; Listing generated by Microsoft (R) Optimizing Compiler Version 19.29.30145.0 

	TITLE	D:\git\src\IBK\IBK_DRFN\#DRfn-CS\_Obj\IndicatorCondition\IndicatorInfoImplementation.obj
	.686P
	.XMM
	include listing.inc
	.model	flat

INCLUDELIB MSVCRT
INCLUDELIB OLDNAMES

PUBLIC	?__empty_global_delete@@YAXPAX@Z		; __empty_global_delete
PUBLIC	?__empty_global_delete@@YAXPAXI@Z		; __empty_global_delete
PUBLIC	??1CObject@@UAE@XZ				; CObject::~CObject
PUBLIC	?Serialize@CObject@@UAEXAAVCArchive@@@Z		; CObject::Serialize
PUBLIC	?AssertValid@CObject@@UBEXXZ			; CObject::AssertValid
PUBLIC	?Dump@CObject@@UBEXAAVCDumpContext@@@Z		; CObject::Dump
PUBLIC	??0CIndicatorList@@QAE@ABV0@@Z			; CIndicatorList::CIndicatorList
PUBLIC	??4CIndicatorList@@QAEAAV0@ABV0@@Z		; CIndicatorList::operator=
PUBLIC	??_GCIndicatorList@@UAEPAXI@Z			; CIndicatorList::`scalar deleting destructor'
PUBLIC	??_ECIndicatorList@@UAEPAXI@Z			; CIndicatorList::`vector deleting destructor'
PUBLIC	??_FCSignalData@@QAEXXZ				; CSignalData::`default constructor closure'
PUBLIC	??0CGraphData@@QAE@XZ				; CGraphData::CGraphData
PUBLIC	?SetIndicatorName@CGraphData@@MAEXABV?$CStringT@DV?$StrTraitMFC_DLL@DV?$ChTraitsCRT@D@ATL@@@@@ATL@@@Z ; CGraphData::SetIndicatorName
PUBLIC	?SetGraphName@CGraphData@@MAEXABV?$CStringT@DV?$StrTraitMFC_DLL@DV?$ChTraitsCRT@D@ATL@@@@@ATL@@@Z ; CGraphData::SetGraphName
PUBLIC	?GetGraphName@CGraphData@@QBE?AV?$CStringT@DV?$StrTraitMFC_DLL@DV?$ChTraitsCRT@D@ATL@@@@@ATL@@XZ ; CGraphData::GetGraphName
PUBLIC	?GetIndicatorName@CGraphData@@QBE?AV?$CStringT@DV?$StrTraitMFC_DLL@DV?$ChTraitsCRT@D@ATL@@@@@ATL@@XZ ; CGraphData::GetIndicatorName
PUBLIC	?GetGraphName2@CGraphData@@QBE?AV?$CStringT@DV?$StrTraitMFC_DLL@DV?$ChTraitsCRT@D@ATL@@@@@ATL@@XZ ; CGraphData::GetGraphName2
PUBLIC	?GetIndicatorName2@CGraphData@@QBE?AV?$CStringT@DV?$StrTraitMFC_DLL@DV?$ChTraitsCRT@D@ATL@@@@@ATL@@XZ ; CGraphData::GetIndicatorName2
PUBLIC	??1CGraphData@@QAE@XZ				; CGraphData::~CGraphData
PUBLIC	??0CGraphData@@QAE@ABV0@@Z			; CGraphData::CGraphData
PUBLIC	?GetHorizontalLine@CSubGraphDataBase@@QBEABV?$CArray@PAU_ST_HORZLINE@@PAU1@@@XZ ; CSubGraphDataBase::GetHorizontalLine
PUBLIC	??0?$CList@NN@@QAE@H@Z				; CList<double,double>::CList<double,double>
PUBLIC	?AddTail@?$CList@NN@@QAEPAU__POSITION@@N@Z	; CList<double,double>::AddTail
PUBLIC	?RemoveAll@?$CList@NN@@QAEXXZ			; CList<double,double>::RemoveAll
PUBLIC	?FindIndex@?$CList@NN@@QBEPAU__POSITION@@H@Z	; CList<double,double>::FindIndex
PUBLIC	?NewNode@?$CList@NN@@IAEPAUCNode@1@PAU21@0@Z	; CList<double,double>::NewNode
PUBLIC	??1?$CList@NN@@UAE@XZ				; CList<double,double>::~CList<double,double>
PUBLIC	?Serialize@?$CList@NN@@UAEXAAVCArchive@@@Z	; CList<double,double>::Serialize
PUBLIC	??_G?$CList@NN@@UAEPAXI@Z			; CList<double,double>::`scalar deleting destructor'
PUBLIC	??0CIndicatorInfoImplementation@@QAE@W4EIndicatorInfoType@@@Z ; CIndicatorInfoImplementation::CIndicatorInfoImplementation
PUBLIC	??0CIndicatorInfoImplementation@@QAE@PBV0@@Z	; CIndicatorInfoImplementation::CIndicatorInfoImplementation
PUBLIC	??1CIndicatorInfoImplementation@@UAE@XZ		; CIndicatorInfoImplementation::~CIndicatorInfoImplementation
PUBLIC	?CopyAllData@CIndicatorInfoImplementation@@AAEXPBV1@H@Z ; CIndicatorInfoImplementation::CopyAllData
PUBLIC	?CopyDoubleList@CIndicatorInfoImplementation@@AAEXABV?$CList@NN@@AAV2@@Z ; CIndicatorInfoImplementation::CopyDoubleList
PUBLIC	?SetDoubleListInVerifiable@CIndicatorInfoImplementation@@AAEXABV?$CList@NN@@AAV2@@Z ; CIndicatorInfoImplementation::SetDoubleListInVerifiable
PUBLIC	?GetStringDoubleList@CIndicatorInfoImplementation@@ABE?AV?$CStringT@DV?$StrTraitMFC_DLL@DV?$ChTraitsCRT@D@ATL@@@@@ATL@@ABV?$CList@NN@@ABV23@@Z ; CIndicatorInfoImplementation::GetStringDoubleList
PUBLIC	?GetConditionTitle@CIndicatorInfoImplementation@@ABE?AW4TITLETYPE@CIndiBaseData@@XZ ; CIndicatorInfoImplementation::GetConditionTitle
PUBLIC	?SetDoubleListData@CIndicatorInfoImplementation@@AAEHHABNAAV?$CList@NN@@@Z ; CIndicatorInfoImplementation::SetDoubleListData
PUBLIC	?ChangeCalConditionDataFromSubGraphTitle@CIndicatorInfoImplementation@@AAE_NXZ ; CIndicatorInfoImplementation::ChangeCalConditionDataFromSubGraphTitle
PUBLIC	?GetCalConditionDataFromSubGraphTitle@CIndicatorInfoImplementation@@AAE_NABV?$CStringT@DV?$StrTraitMFC_DLL@DV?$ChTraitsCRT@D@ATL@@@@@ATL@@AAN@Z ; CIndicatorInfoImplementation::GetCalConditionDataFromSubGraphTitle
PUBLIC	?CopyDataWithVerificationFrom@CIndicatorInfoImplementation@@QAE_NABV1@@Z ; CIndicatorInfoImplementation::CopyDataWithVerificationFrom
PUBLIC	?Initialize@CIndicatorInfoImplementation@@QAEXXZ ; CIndicatorInfoImplementation::Initialize
PUBLIC	?ClearCommonCalConditionList@CIndicatorInfoImplementation@@QAE_NXZ ; CIndicatorInfoImplementation::ClearCommonCalConditionList
PUBLIC	?ClearDrawConditionList@CIndicatorInfoImplementation@@QAE_NXZ ; CIndicatorInfoImplementation::ClearDrawConditionList
PUBLIC	?ClearBaseLineList@CIndicatorInfoImplementation@@QAE_NXZ ; CIndicatorInfoImplementation::ClearBaseLineList
PUBLIC	?GetGroupName@CIndicatorInfoImplementation@@QBE?AV?$CStringT@DV?$StrTraitMFC_DLL@DV?$ChTraitsCRT@D@ATL@@@@@ATL@@XZ ; CIndicatorInfoImplementation::GetGroupName
PUBLIC	?GetIndicatorName@CIndicatorInfoImplementation@@QBE?AV?$CStringT@DV?$StrTraitMFC_DLL@DV?$ChTraitsCRT@D@ATL@@@@@ATL@@XZ ; CIndicatorInfoImplementation::GetIndicatorName
PUBLIC	?GetGraphName@CIndicatorInfoImplementation@@QBE?AV?$CStringT@DV?$StrTraitMFC_DLL@DV?$ChTraitsCRT@D@ATL@@@@@ATL@@XZ ; CIndicatorInfoImplementation::GetGraphName
PUBLIC	?GetGraphPartData@CIndicatorInfoImplementation@@QBEABVCGraphPartData@@XZ ; CIndicatorInfoImplementation::GetGraphPartData
PUBLIC	?GetGraphPartData@CIndicatorInfoImplementation@@QAEPAVCGraphPartData@@XZ ; CIndicatorInfoImplementation::GetGraphPartData
PUBLIC	?GetCommonCalConditionCount@CIndicatorInfoImplementation@@QBEHXZ ; CIndicatorInfoImplementation::GetCommonCalConditionCount
PUBLIC	?GetDrawConditionCount@CIndicatorInfoImplementation@@QBEHXZ ; CIndicatorInfoImplementation::GetDrawConditionCount
PUBLIC	?GetBaseLineCount@CIndicatorInfoImplementation@@QBEHXZ ; CIndicatorInfoImplementation::GetBaseLineCount
PUBLIC	?GetCalConditionCount@CIndicatorInfoImplementation@@QBEHH@Z ; CIndicatorInfoImplementation::GetCalConditionCount
PUBLIC	?GetCalConditionCount@CIndicatorInfoImplementation@@QBEHABV?$CStringT@DV?$StrTraitMFC_DLL@DV?$ChTraitsCRT@D@ATL@@@@@ATL@@@Z ; CIndicatorInfoImplementation::GetCalConditionCount
PUBLIC	?GetCommonCalConditionList@CIndicatorInfoImplementation@@QBEABV?$CList@NN@@XZ ; CIndicatorInfoImplementation::GetCommonCalConditionList
PUBLIC	?GetCommonCalConditionList@CIndicatorInfoImplementation@@QAEPAV?$CList@NN@@XZ ; CIndicatorInfoImplementation::GetCommonCalConditionList
PUBLIC	?GetDrawConditionList@CIndicatorInfoImplementation@@QBEABV?$CList@NN@@XZ ; CIndicatorInfoImplementation::GetDrawConditionList
PUBLIC	?GetDrawConditionList@CIndicatorInfoImplementation@@QAEPAV?$CList@NN@@XZ ; CIndicatorInfoImplementation::GetDrawConditionList
PUBLIC	?GetBaseLineList@CIndicatorInfoImplementation@@QBEABV?$CList@NN@@XZ ; CIndicatorInfoImplementation::GetBaseLineList
PUBLIC	?GetBaseLineList@CIndicatorInfoImplementation@@QAEPAV?$CList@NN@@XZ ; CIndicatorInfoImplementation::GetBaseLineList
PUBLIC	?GetCalConditionList@CIndicatorInfoImplementation@@QBEPAV?$CList@NN@@H@Z ; CIndicatorInfoImplementation::GetCalConditionList
PUBLIC	?GetCalConditionList@CIndicatorInfoImplementation@@QAEPAV?$CList@NN@@H@Z ; CIndicatorInfoImplementation::GetCalConditionList
PUBLIC	?GetCalConditionList@CIndicatorInfoImplementation@@QBEPAV?$CList@NN@@ABV?$CStringT@DV?$StrTraitMFC_DLL@DV?$ChTraitsCRT@D@ATL@@@@@ATL@@@Z ; CIndicatorInfoImplementation::GetCalConditionList
PUBLIC	?GetCalConditionList@CIndicatorInfoImplementation@@QAEPAV?$CList@NN@@ABV?$CStringT@DV?$StrTraitMFC_DLL@DV?$ChTraitsCRT@D@ATL@@@@@ATL@@@Z ; CIndicatorInfoImplementation::GetCalConditionList
PUBLIC	?GetGraphDataForMaking@CIndicatorInfoImplementation@@QBEXAAV?$CStringT@DV?$StrTraitMFC_DLL@DV?$ChTraitsCRT@D@ATL@@@@@ATL@@@Z ; CIndicatorInfoImplementation::GetGraphDataForMaking
PUBLIC	?GetAllSubGraphDataForMaking@CIndicatorInfoImplementation@@QBEXAAV?$CStringT@DV?$StrTraitMFC_DLL@DV?$ChTraitsCRT@D@ATL@@@@@ATL@@@Z ; CIndicatorInfoImplementation::GetAllSubGraphDataForMaking
PUBLIC	?GetStringCommonCalConditionList@CIndicatorInfoImplementation@@QBE?AV?$CStringT@DV?$StrTraitMFC_DLL@DV?$ChTraitsCRT@D@ATL@@@@@ATL@@ABV23@@Z ; CIndicatorInfoImplementation::GetStringCommonCalConditionList
PUBLIC	?GetStringDrawConditionList@CIndicatorInfoImplementation@@QBE?AV?$CStringT@DV?$StrTraitMFC_DLL@DV?$ChTraitsCRT@D@ATL@@@@@ATL@@ABV23@@Z ; CIndicatorInfoImplementation::GetStringDrawConditionList
PUBLIC	?GetStringBaseLineList@CIndicatorInfoImplementation@@QBE?AV?$CStringT@DV?$StrTraitMFC_DLL@DV?$ChTraitsCRT@D@ATL@@@@@ATL@@ABV23@@Z ; CIndicatorInfoImplementation::GetStringBaseLineList
PUBLIC	?GetGraphData@CIndicatorInfoImplementation@@QAEAAVCGraphData@@XZ ; CIndicatorInfoImplementation::GetGraphData
PUBLIC	?GetGraphData_PointerType@CIndicatorInfoImplementation@@QAEPAVCGraphData@@XZ ; CIndicatorInfoImplementation::GetGraphData_PointerType
PUBLIC	?GetGraphDataDrawingData@CIndicatorInfoImplementation@@QBEXAA_N000AAH1@Z ; CIndicatorInfoImplementation::GetGraphDataDrawingData
PUBLIC	?GetCommonPacketNames@CIndicatorInfoImplementation@@QBE?AV?$CStringT@DV?$StrTraitMFC_DLL@DV?$ChTraitsCRT@D@ATL@@@@@ATL@@XZ ; CIndicatorInfoImplementation::GetCommonPacketNames
PUBLIC	?GetPacketNames@CIndicatorInfoImplementation@@QBE?AV?$CStringT@DV?$StrTraitMFC_DLL@DV?$ChTraitsCRT@D@ATL@@@@@ATL@@H@Z ; CIndicatorInfoImplementation::GetPacketNames
PUBLIC	?GetSignalData@CIndicatorInfoImplementation@@QBE?AVCSignalData@@XZ ; CIndicatorInfoImplementation::GetSignalData
PUBLIC	?GetSignalData@CIndicatorInfoImplementation@@QAEAAVCSignalData@@XZ ; CIndicatorInfoImplementation::GetSignalData
PUBLIC	?GetSignalData_PointerType@CIndicatorInfoImplementation@@QAEPAVCSignalData@@XZ ; CIndicatorInfoImplementation::GetSignalData_PointerType
PUBLIC	?IsSignalUse@CIndicatorInfoImplementation@@QBE_NXZ ; CIndicatorInfoImplementation::IsSignalUse
PUBLIC	?IsSignalShow@CIndicatorInfoImplementation@@QBE_NXZ ; CIndicatorInfoImplementation::IsSignalShow
PUBLIC	?GetSubGraphCount@CIndicatorInfoImplementation@@QBEHXZ ; CIndicatorInfoImplementation::GetSubGraphCount
PUBLIC	?GetAllSubGraphDataList@CIndicatorInfoImplementation@@QBE_NAAV?$CList@PAVCSubGraphData@@PAV1@@@@Z ; CIndicatorInfoImplementation::GetAllSubGraphDataList
PUBLIC	?GetSubGraphData@CIndicatorInfoImplementation@@QBEPAVCSubGraphData@@ABV?$CStringT@DV?$StrTraitMFC_DLL@DV?$ChTraitsCRT@D@ATL@@@@@ATL@@@Z ; CIndicatorInfoImplementation::GetSubGraphData
PUBLIC	?GetSubGraphData@CIndicatorInfoImplementation@@QBEPAVCSubGraphData@@H@Z ; CIndicatorInfoImplementation::GetSubGraphData
PUBLIC	?GetSubGraphIndex@CIndicatorInfoImplementation@@QBEHABV?$CStringT@DV?$StrTraitMFC_DLL@DV?$ChTraitsCRT@D@ATL@@@@@ATL@@@Z ; CIndicatorInfoImplementation::GetSubGraphIndex
PUBLIC	?GetSubGraphName@CIndicatorInfoImplementation@@QBE?AV?$CStringT@DV?$StrTraitMFC_DLL@DV?$ChTraitsCRT@D@ATL@@@@@ATL@@H@Z ; CIndicatorInfoImplementation::GetSubGraphName
PUBLIC	?GetSubGraphTitle@CIndicatorInfoImplementation@@QBE?AV?$CStringT@DV?$StrTraitMFC_DLL@DV?$ChTraitsCRT@D@ATL@@@@@ATL@@H@Z ; CIndicatorInfoImplementation::GetSubGraphTitle
PUBLIC	?GetSubGraphNameList@CIndicatorInfoImplementation@@QBE_NAAV?$CList@V?$CStringT@DV?$StrTraitMFC_DLL@DV?$ChTraitsCRT@D@ATL@@@@@ATL@@V12@@@@Z ; CIndicatorInfoImplementation::GetSubGraphNameList
PUBLIC	?GetSubGraphNames@CIndicatorInfoImplementation@@QBEHAAV?$CStringT@DV?$StrTraitMFC_DLL@DV?$ChTraitsCRT@D@ATL@@@@@ATL@@@Z ; CIndicatorInfoImplementation::GetSubGraphNames
PUBLIC	?GetSubGraphColor@CIndicatorInfoImplementation@@QBE?AVCGraphColor@@H@Z ; CIndicatorInfoImplementation::GetSubGraphColor
PUBLIC	?GetSubGraphColor_PointerType@CIndicatorInfoImplementation@@QBEPAVCGraphColor@@H@Z ; CIndicatorInfoImplementation::GetSubGraphColor_PointerType
PUBLIC	?GetSubGraphColorList@CIndicatorInfoImplementation@@QBE_NAAV?$CList@PAVCGraphColor@@PAV1@@@@Z ; CIndicatorInfoImplementation::GetSubGraphColorList
PUBLIC	?GetCopyDataFrom@CIndicatorInfoImplementation@@QAE_NPBV1@H@Z ; CIndicatorInfoImplementation::GetCopyDataFrom
PUBLIC	?SetCommonCalConditionData@CIndicatorInfoImplementation@@QAEHHABN@Z ; CIndicatorInfoImplementation::SetCommonCalConditionData
PUBLIC	?SetDrawConditionData@CIndicatorInfoImplementation@@QAEHHABN@Z ; CIndicatorInfoImplementation::SetDrawConditionData
PUBLIC	?SetBaseLineData@CIndicatorInfoImplementation@@QAEHHABN@Z ; CIndicatorInfoImplementation::SetBaseLineData
PUBLIC	?SetAllCalConditionData_SubGraphPart@CIndicatorInfoImplementation@@QAE_NHABN@Z ; CIndicatorInfoImplementation::SetAllCalConditionData_SubGraphPart
PUBLIC	?SetCalConditionData@CIndicatorInfoImplementation@@QAEHHHABN@Z ; CIndicatorInfoImplementation::SetCalConditionData
PUBLIC	?SetGraphData@CIndicatorInfoImplementation@@QAE_NABVCGraphData@@_N@Z ; CIndicatorInfoImplementation::SetGraphData
PUBLIC	?SetCommonPacketNames@CIndicatorInfoImplementation@@QAE_NABV?$CStringT@DV?$StrTraitMFC_DLL@DV?$ChTraitsCRT@D@ATL@@@@@ATL@@@Z ; CIndicatorInfoImplementation::SetCommonPacketNames
PUBLIC	?SetAllPacketNames_SubGraphPart@CIndicatorInfoImplementation@@QAE_NABV?$CStringT@DV?$StrTraitMFC_DLL@DV?$ChTraitsCRT@D@ATL@@@@@ATL@@_N@Z ; CIndicatorInfoImplementation::SetAllPacketNames_SubGraphPart
PUBLIC	?SetPacketNames@CIndicatorInfoImplementation@@QAE_NHABV?$CStringT@DV?$StrTraitMFC_DLL@DV?$ChTraitsCRT@D@ATL@@@@@ATL@@@Z ; CIndicatorInfoImplementation::SetPacketNames
PUBLIC	?SetSignalData@CIndicatorInfoImplementation@@QAEXABVCSignalData@@@Z ; CIndicatorInfoImplementation::SetSignalData
PUBLIC	?SetAllSubGraphDataList@CIndicatorInfoImplementation@@QAE_NPBV?$CList@PAVCSubGraphData@@PAV1@@@_N@Z ; CIndicatorInfoImplementation::SetAllSubGraphDataList
PUBLIC	?SetSubGraphData@CIndicatorInfoImplementation@@QAE_NPBVCSubGraphData@@@Z ; CIndicatorInfoImplementation::SetSubGraphData
PUBLIC	?SetSubGraphTitle@CIndicatorInfoImplementation@@QAE_NHABV?$CStringT@DV?$StrTraitMFC_DLL@DV?$ChTraitsCRT@D@ATL@@@@@ATL@@@Z ; CIndicatorInfoImplementation::SetSubGraphTitle
PUBLIC	?SetSubGraphColor@CIndicatorInfoImplementation@@QAE_NHABVCGraphColor@@@Z ; CIndicatorInfoImplementation::SetSubGraphColor
PUBLIC	?SetSubGraphColor@CIndicatorInfoImplementation@@QAE_NHABK@Z ; CIndicatorInfoImplementation::SetSubGraphColor
PUBLIC	?SetSubGraphPenThickness@CIndicatorInfoImplementation@@QAE_NHABVCPenThickness@@@Z ; CIndicatorInfoImplementation::SetSubGraphPenThickness
PUBLIC	?SetSubGraphPenThickness@CIndicatorInfoImplementation@@QAE_NHH@Z ; CIndicatorInfoImplementation::SetSubGraphPenThickness
PUBLIC	?ChangeAllSubGraphTitleFromCalConditionData@CIndicatorInfoImplementation@@QAE_NXZ ; CIndicatorInfoImplementation::ChangeAllSubGraphTitleFromCalConditionData
PUBLIC	?AddSubGraphPartDataWithCopy@CIndicatorInfoImplementation@@QAEHPBVCSubGraphPartData@@@Z ; CIndicatorInfoImplementation::AddSubGraphPartDataWithCopy
PUBLIC	?GetSubGraphPartData@CIndicatorInfoImplementation@@QAEPAVCSubGraphPartData@@H@Z ; CIndicatorInfoImplementation::GetSubGraphPartData
PUBLIC	?SetGraphDataDrawingDataWithCopy@CIndicatorInfoImplementation@@QAEXPBVCGraphDataDrawingData@@@Z ; CIndicatorInfoImplementation::SetGraphDataDrawingDataWithCopy
PUBLIC	?GetGraphDataDrawingData@CIndicatorInfoImplementation@@QAEPAVCGraphDataDrawingData@@XZ ; CIndicatorInfoImplementation::GetGraphDataDrawingData
PUBLIC	?GetSubGraphHiding@CIndicatorInfoImplementation@@QAEHPBD@Z ; CIndicatorInfoImplementation::GetSubGraphHiding
PUBLIC	?GetSubGraphHiding@CIndicatorInfoImplementation@@QAEHH@Z ; CIndicatorInfoImplementation::GetSubGraphHiding
PUBLIC	?SetGraph@CIndicatorInfoImplementation@@QAEXPAVCGraph@@@Z ; CIndicatorInfoImplementation::SetGraph
PUBLIC	?GetGraph@CIndicatorInfoImplementation@@QAEPAVCGraph@@XZ ; CIndicatorInfoImplementation::GetGraph
PUBLIC	?SetLoadedRQ@CIndicatorInfoImplementation@@QAEXPBD@Z ; CIndicatorInfoImplementation::SetLoadedRQ
PUBLIC	??_GCIndicatorInfoImplementation@@UAEPAXI@Z	; CIndicatorInfoImplementation::`scalar deleting destructor'
PUBLIC	??0?$CList@V?$CStringT@DV?$StrTraitMFC_DLL@DV?$ChTraitsCRT@D@ATL@@@@@ATL@@V12@@@QAE@H@Z ; CList<ATL::CStringT<char,StrTraitMFC_DLL<char,ATL::ChTraitsCRT<char> > >,ATL::CStringT<char,StrTraitMFC_DLL<char,ATL::ChTraitsCRT<char> > > >::CList<ATL::CStringT<char,StrTraitMFC_DLL<char,ATL::ChTraitsCRT<char> > >,ATL::CStringT<char,StrTraitMFC_DLL<char,ATL::ChTraitsCRT<char> > > >
PUBLIC	?AddTail@?$CList@V?$CStringT@DV?$StrTraitMFC_DLL@DV?$ChTraitsCRT@D@ATL@@@@@ATL@@V12@@@QAEPAU__POSITION@@V?$CStringT@DV?$StrTraitMFC_DLL@DV?$ChTraitsCRT@D@ATL@@@@@ATL@@@Z ; CList<ATL::CStringT<char,StrTraitMFC_DLL<char,ATL::ChTraitsCRT<char> > >,ATL::CStringT<char,StrTraitMFC_DLL<char,ATL::ChTraitsCRT<char> > > >::AddTail
PUBLIC	?RemoveAll@?$CList@V?$CStringT@DV?$StrTraitMFC_DLL@DV?$ChTraitsCRT@D@ATL@@@@@ATL@@V12@@@QAEXXZ ; CList<ATL::CStringT<char,StrTraitMFC_DLL<char,ATL::ChTraitsCRT<char> > >,ATL::CStringT<char,StrTraitMFC_DLL<char,ATL::ChTraitsCRT<char> > > >::RemoveAll
PUBLIC	?NewNode@?$CList@V?$CStringT@DV?$StrTraitMFC_DLL@DV?$ChTraitsCRT@D@ATL@@@@@ATL@@V12@@@IAEPAUCNode@1@PAU21@0@Z ; CList<ATL::CStringT<char,StrTraitMFC_DLL<char,ATL::ChTraitsCRT<char> > >,ATL::CStringT<char,StrTraitMFC_DLL<char,ATL::ChTraitsCRT<char> > > >::NewNode
PUBLIC	??1?$CList@V?$CStringT@DV?$StrTraitMFC_DLL@DV?$ChTraitsCRT@D@ATL@@@@@ATL@@V12@@@UAE@XZ ; CList<ATL::CStringT<char,StrTraitMFC_DLL<char,ATL::ChTraitsCRT<char> > >,ATL::CStringT<char,StrTraitMFC_DLL<char,ATL::ChTraitsCRT<char> > > >::~CList<ATL::CStringT<char,StrTraitMFC_DLL<char,ATL::ChTraitsCRT<char> > >,ATL::CStringT<char,StrTraitMFC_DLL<char,ATL::ChTraitsCRT<char> > > >
PUBLIC	?Serialize@?$CList@V?$CStringT@DV?$StrTraitMFC_DLL@DV?$ChTraitsCRT@D@ATL@@@@@ATL@@V12@@@UAEXAAVCArchive@@@Z ; CList<ATL::CStringT<char,StrTraitMFC_DLL<char,ATL::ChTraitsCRT<char> > >,ATL::CStringT<char,StrTraitMFC_DLL<char,ATL::ChTraitsCRT<char> > > >::Serialize
PUBLIC	??_G?$CList@V?$CStringT@DV?$StrTraitMFC_DLL@DV?$ChTraitsCRT@D@ATL@@@@@ATL@@V12@@@UAEPAXI@Z ; CList<ATL::CStringT<char,StrTraitMFC_DLL<char,ATL::ChTraitsCRT<char> > >,ATL::CStringT<char,StrTraitMFC_DLL<char,ATL::ChTraitsCRT<char> > > >::`scalar deleting destructor'
PUBLIC	??$SerializeElements@N@@YGXAAVCArchive@@PANH@Z	; SerializeElements<double>
PUBLIC	??_C@_00CNPNBAHC@@				; `string'
PUBLIC	??_R0?AVCObject@@@8				; CObject `RTTI Type Descriptor'
PUBLIC	??_R3CObject@@8					; CObject::`RTTI Class Hierarchy Descriptor'
PUBLIC	??_R2CObject@@8					; CObject::`RTTI Base Class Array'
PUBLIC	??_R1A@?0A@EA@CObject@@8			; CObject::`RTTI Base Class Descriptor at (0,-1,0,64)'
PUBLIC	??_7CIndicatorList@@6B@				; CIndicatorList::`vftable'
PUBLIC	??_7CGraphDataBase@@6B@				; CGraphDataBase::`vftable'
PUBLIC	??_7CGraphData@@6B@				; CGraphData::`vftable'
PUBLIC	??_7?$CList@NN@@6B@				; CList<double,double>::`vftable'
PUBLIC	??_7CIndicatorInfoImplementation@@6B@		; CIndicatorInfoImplementation::`vftable'
PUBLIC	??_7?$CList@V?$CStringT@DV?$StrTraitMFC_DLL@DV?$ChTraitsCRT@D@ATL@@@@@ATL@@V12@@@6B@ ; CList<ATL::CStringT<char,StrTraitMFC_DLL<char,ATL::ChTraitsCRT<char> > >,ATL::CStringT<char,StrTraitMFC_DLL<char,ATL::ChTraitsCRT<char> > > >::`vftable'
PUBLIC	??_R4?$CList@NN@@6B@				; CList<double,double>::`RTTI Complete Object Locator'
PUBLIC	??_R0?AV?$CList@NN@@@8				; CList<double,double> `RTTI Type Descriptor'
PUBLIC	??_R3?$CList@NN@@8				; CList<double,double>::`RTTI Class Hierarchy Descriptor'
PUBLIC	??_R2?$CList@NN@@8				; CList<double,double>::`RTTI Base Class Array'
PUBLIC	??_R1A@?0A@EA@?$CList@NN@@8			; CList<double,double>::`RTTI Base Class Descriptor at (0,-1,0,64)'
PUBLIC	??_R4?$CList@V?$CStringT@DV?$StrTraitMFC_DLL@DV?$ChTraitsCRT@D@ATL@@@@@ATL@@V12@@@6B@ ; CList<ATL::CStringT<char,StrTraitMFC_DLL<char,ATL::ChTraitsCRT<char> > >,ATL::CStringT<char,StrTraitMFC_DLL<char,ATL::ChTraitsCRT<char> > > >::`RTTI Complete Object Locator'
PUBLIC	??_R0?AV?$CList@V?$CStringT@DV?$StrTraitMFC_DLL@DV?$ChTraitsCRT@D@ATL@@@@@ATL@@V12@@@@8 ; CList<ATL::CStringT<char,StrTraitMFC_DLL<char,ATL::ChTraitsCRT<char> > >,ATL::CStringT<char,StrTraitMFC_DLL<char,ATL::ChTraitsCRT<char> > > > `RTTI Type Descriptor'
PUBLIC	??_R3?$CList@V?$CStringT@DV?$StrTraitMFC_DLL@DV?$ChTraitsCRT@D@ATL@@@@@ATL@@V12@@@8 ; CList<ATL::CStringT<char,StrTraitMFC_DLL<char,ATL::ChTraitsCRT<char> > >,ATL::CStringT<char,StrTraitMFC_DLL<char,ATL::ChTraitsCRT<char> > > >::`RTTI Class Hierarchy Descriptor'
PUBLIC	??_R2?$CList@V?$CStringT@DV?$StrTraitMFC_DLL@DV?$ChTraitsCRT@D@ATL@@@@@ATL@@V12@@@8 ; CList<ATL::CStringT<char,StrTraitMFC_DLL<char,ATL::ChTraitsCRT<char> > >,ATL::CStringT<char,StrTraitMFC_DLL<char,ATL::ChTraitsCRT<char> > > >::`RTTI Base Class Array'
PUBLIC	??_R1A@?0A@EA@?$CList@V?$CStringT@DV?$StrTraitMFC_DLL@DV?$ChTraitsCRT@D@ATL@@@@@ATL@@V12@@@8 ; CList<ATL::CStringT<char,StrTraitMFC_DLL<char,ATL::ChTraitsCRT<char> > >,ATL::CStringT<char,StrTraitMFC_DLL<char,ATL::ChTraitsCRT<char> > > >::`RTTI Base Class Descriptor at (0,-1,0,64)'
PUBLIC	??_R4CIndicatorList@@6B@			; CIndicatorList::`RTTI Complete Object Locator'
PUBLIC	??_R0?AVCIndicatorList@@@8			; CIndicatorList `RTTI Type Descriptor'
PUBLIC	??_R3CIndicatorList@@8				; CIndicatorList::`RTTI Class Hierarchy Descriptor'
PUBLIC	??_R2CIndicatorList@@8				; CIndicatorList::`RTTI Base Class Array'
PUBLIC	??_R1A@?0A@EA@CIndicatorList@@8			; CIndicatorList::`RTTI Base Class Descriptor at (0,-1,0,64)'
PUBLIC	??_R4CGraphDataBase@@6B@			; CGraphDataBase::`RTTI Complete Object Locator'
PUBLIC	??_R0?AVCGraphDataBase@@@8			; CGraphDataBase `RTTI Type Descriptor'
PUBLIC	??_R3CGraphDataBase@@8				; CGraphDataBase::`RTTI Class Hierarchy Descriptor'
PUBLIC	??_R2CGraphDataBase@@8				; CGraphDataBase::`RTTI Base Class Array'
PUBLIC	??_R1A@?0A@EA@CGraphDataBase@@8			; CGraphDataBase::`RTTI Base Class Descriptor at (0,-1,0,64)'
PUBLIC	??_R4CIndicatorInfoImplementation@@6B@		; CIndicatorInfoImplementation::`RTTI Complete Object Locator'
PUBLIC	??_R0?AVCIndicatorInfoImplementation@@@8	; CIndicatorInfoImplementation `RTTI Type Descriptor'
PUBLIC	??_R3CIndicatorInfoImplementation@@8		; CIndicatorInfoImplementation::`RTTI Class Hierarchy Descriptor'
PUBLIC	??_R2CIndicatorInfoImplementation@@8		; CIndicatorInfoImplementation::`RTTI Base Class Array'
PUBLIC	??_R1A@?0A@EA@CIndicatorInfoImplementation@@8	; CIndicatorInfoImplementation::`RTTI Base Class Descriptor at (0,-1,0,64)'
PUBLIC	??_R4CGraphData@@6B@				; CGraphData::`RTTI Complete Object Locator'
PUBLIC	??_R0?AVCGraphData@@@8				; CGraphData `RTTI Type Descriptor'
PUBLIC	??_R3CGraphData@@8				; CGraphData::`RTTI Class Hierarchy Descriptor'
PUBLIC	??_R2CGraphData@@8				; CGraphData::`RTTI Base Class Array'
PUBLIC	??_R1A@?0A@EA@CGraphData@@8			; CGraphData::`RTTI Base Class Descriptor at (0,-1,0,64)'
EXTRN	??_L@YGXPAXIIP6EX0@Z1@Z:PROC			; `eh vector constructor iterator'
EXTRN	??_M@YGXPAXIIP6EX0@Z@Z:PROC			; `eh vector destructor iterator'
EXTRN	__purecall:PROC
EXTRN	??3@YAXPAX@Z:PROC				; operator delete
EXTRN	??3@YAXPAXI@Z:PROC				; operator delete
EXTRN	?__global_delete@@YAXPAXI@Z:PROC		; __global_delete
EXTRN	??_V@YAXPAXI@Z:PROC				; operator delete[]
EXTRN	___std_terminate:PROC
EXTRN	__imp__strdup:PROC
EXTRN	__imp__free:PROC
EXTRN	__imp__atof:PROC
EXTRN	?AfxThrowInvalidArgException@@YGXXZ:PROC	; AfxThrowInvalidArgException
EXTRN	?AfxThrowArchiveException@@YGXHPBD@Z:PROC	; AfxThrowArchiveException
EXTRN	?GetRuntimeClass@CObject@@UBEPAUCRuntimeClass@@XZ:PROC ; CObject::GetRuntimeClass
EXTRN	__imp_?Concatenate@?$CSimpleStringT@D$00@ATL@@KAXAAV12@PBDH1H@Z:PROC
EXTRN	__imp_??0?$CStringT@DV?$StrTraitMFC_DLL@DV?$ChTraitsCRT@D@ATL@@@@@ATL@@QAE@XZ:PROC
EXTRN	__imp_??0?$CStringT@DV?$StrTraitMFC_DLL@DV?$ChTraitsCRT@D@ATL@@@@@ATL@@QAE@PAUIAtlStringMgr@1@@Z:PROC
EXTRN	__imp_??0?$CStringT@DV?$StrTraitMFC_DLL@DV?$ChTraitsCRT@D@ATL@@@@@ATL@@QAE@ABV01@@Z:PROC
EXTRN	__imp_??0?$CStringT@DV?$StrTraitMFC_DLL@DV?$ChTraitsCRT@D@ATL@@@@@ATL@@QAE@PBD@Z:PROC
EXTRN	__imp_??1?$CStringT@DV?$StrTraitMFC_DLL@DV?$ChTraitsCRT@D@ATL@@@@@ATL@@QAE@XZ:PROC
EXTRN	__imp_??4?$CStringT@DV?$StrTraitMFC_DLL@DV?$ChTraitsCRT@D@ATL@@@@@ATL@@QAEAAV01@ABV01@@Z:PROC
EXTRN	__imp_??Y?$CStringT@DV?$StrTraitMFC_DLL@DV?$ChTraitsCRT@D@ATL@@@@@ATL@@QAEAAV01@ABV?$CSimpleStringT@D$00@1@@Z:PROC
EXTRN	__imp_?GetManager@?$CStringT@DV?$StrTraitMFC_DLL@DV?$ChTraitsCRT@D@ATL@@@@@ATL@@QBEPAUIAtlStringMgr@2@XZ:PROC
EXTRN	__imp_?Compare@?$CStringT@DV?$StrTraitMFC_DLL@DV?$ChTraitsCRT@D@ATL@@@@@ATL@@QBEHPBD@Z:PROC
EXTRN	__imp_?Mid@?$CStringT@DV?$StrTraitMFC_DLL@DV?$ChTraitsCRT@D@ATL@@@@@ATL@@QBE?AV12@HH@Z:PROC
EXTRN	?Read@CArchive@@QAEIPAXI@Z:PROC			; CArchive::Read
EXTRN	?Write@CArchive@@QAEXPBXI@Z:PROC		; CArchive::Write
EXTRN	?ReadCount@CArchive@@QAEKXZ:PROC		; CArchive::ReadCount
EXTRN	?WriteCount@CArchive@@QAEXK@Z:PROC		; CArchive::WriteCount
EXTRN	?Create@CPlex@@SGPAU1@AAPAU1@II@Z:PROC		; CPlex::Create
EXTRN	?FreeDataChain@CPlex@@QAEXXZ:PROC		; CPlex::FreeDataChain
EXTRN	??$SerializeElements@V?$CStringT@DV?$StrTraitMFC_DLL@DV?$ChTraitsCRT@D@ATL@@@@@ATL@@@@YGXAAVCArchive@@PAV?$CStringT@DV?$StrTraitMFC_DLL@DV?$ChTraitsCRT@D@ATL@@@@@ATL@@H@Z:PROC ; SerializeElements<ATL::CStringT<char,StrTraitMFC_DLL<char,ATL::ChTraitsCRT<char> > > >
EXTRN	??1CIndicatorList@@UAE@XZ:PROC			; CIndicatorList::~CIndicatorList
EXTRN	??0CGraphColor@@QAE@XZ:PROC			; CGraphColor::CGraphColor
EXTRN	??0CGraphColor@@QAE@ABK00000@Z:PROC		; CGraphColor::CGraphColor
EXTRN	??0CGraphColor@@QAE@ABV0@@Z:PROC		; CGraphColor::CGraphColor
EXTRN	??0CPenThickness@@QAE@HHHH_N@Z:PROC		; CPenThickness::CPenThickness
EXTRN	??0CGraphDataDrawingData@@QAE@XZ:PROC		; CGraphDataDrawingData::CGraphDataDrawingData
EXTRN	??0CGraphDataDrawingData@@QAE@ABV0@@Z:PROC	; CGraphDataDrawingData::CGraphDataDrawingData
EXTRN	?DoesCalcRiseFallRate_LowHigh@CGraphDataDrawingData@@QBE_NXZ:PROC ; CGraphDataDrawingData::DoesCalcRiseFallRate_LowHigh
EXTRN	?DoesCalcRiseFallRate_LowCur@CGraphDataDrawingData@@QBE_NXZ:PROC ; CGraphDataDrawingData::DoesCalcRiseFallRate_LowCur
EXTRN	?DoesCalcRiseFallRate_HighCur@CGraphDataDrawingData@@QBE_NXZ:PROC ; CGraphDataDrawingData::DoesCalcRiseFallRate_HighCur
EXTRN	?DoesCalcRate_PrevCur@CGraphDataDrawingData@@QBE_NXZ:PROC ; CGraphDataDrawingData::DoesCalcRate_PrevCur
EXTRN	?GetCalcRiseFallRate_CurData@CGraphDataDrawingData@@QBEHXZ:PROC ; CGraphDataDrawingData::GetCalcRiseFallRate_CurData
EXTRN	?GetShowOHLC@CGraphDataDrawingData@@QBEHXZ:PROC	; CGraphDataDrawingData::GetShowOHLC
EXTRN	??0CSignalData@@QAE@_N0@Z:PROC			; CSignalData::CSignalData
EXTRN	??0CSignalData@@QAE@ABV0@@Z:PROC		; CSignalData::CSignalData
EXTRN	??1CSignalData@@QAE@XZ:PROC			; CSignalData::~CSignalData
EXTRN	?IsUse@CSignalData@@QBE_NXZ:PROC		; CSignalData::IsUse
EXTRN	?IsShow@CSignalData@@QBE_NXZ:PROC		; CSignalData::IsShow
EXTRN	?GetPacketNames@CGraphData@@QBE?AV?$CStringT@DV?$StrTraitMFC_DLL@DV?$ChTraitsCRT@D@ATL@@@@@ATL@@XZ:PROC ; CGraphData::GetPacketNames
EXTRN	?SetPacketNames@CGraphData@@QAEXABV?$CStringT@DV?$StrTraitMFC_DLL@DV?$ChTraitsCRT@D@ATL@@@@@ATL@@@Z:PROC ; CGraphData::SetPacketNames
EXTRN	?GetSignalData@CGraphData@@QBE?AVCSignalData@@XZ:PROC ; CGraphData::GetSignalData
EXTRN	?GetSignalData@CGraphData@@QAEAAVCSignalData@@XZ:PROC ; CGraphData::GetSignalData
EXTRN	?SetSignalData@CGraphData@@QAEXABVCSignalData@@@Z:PROC ; CGraphData::SetSignalData
EXTRN	?GetGraphDataDrawingData@CGraphData@@QBE?AVCGraphDataDrawingData@@XZ:PROC ; CGraphData::GetGraphDataDrawingData
EXTRN	?SetItemName@CSubGraphDataBase@@QAEXABV?$CStringT@DV?$StrTraitMFC_DLL@DV?$ChTraitsCRT@D@ATL@@@@@ATL@@@Z:PROC ; CSubGraphDataBase::SetItemName
EXTRN	?GetName@CSubGraphDataBase@@QBE?AV?$CStringT@DV?$StrTraitMFC_DLL@DV?$ChTraitsCRT@D@ATL@@@@@ATL@@XZ:PROC ; CSubGraphDataBase::GetName
EXTRN	?GetColor_PointerType@CSubGraphDataBase@@QAEPAVCGraphColor@@XZ:PROC ; CSubGraphDataBase::GetColor_PointerType
EXTRN	?GetColor@CSubGraphDataBase@@QAEAAVCGraphColor@@XZ:PROC ; CSubGraphDataBase::GetColor
EXTRN	?GetItemName@CSubGraphDataBase@@QBE?AV?$CStringT@DV?$StrTraitMFC_DLL@DV?$ChTraitsCRT@D@ATL@@@@@ATL@@XZ:PROC ; CSubGraphDataBase::GetItemName
EXTRN	?GetConditionList@CSubGraphPartData@@QAEAAV?$CList@NN@@XZ:PROC ; CSubGraphPartData::GetConditionList
EXTRN	??_E?$CList@NN@@UAEPAXI@Z:PROC			; CList<double,double>::`vector deleting destructor'
EXTRN	??4CGraphPartData@@QAEAAV0@ABV0@@Z:PROC		; CGraphPartData::operator=
EXTRN	??0CGraphPartData@@QAE@XZ:PROC			; CGraphPartData::CGraphPartData
EXTRN	??1CGraphPartData@@UAE@XZ:PROC			; CGraphPartData::~CGraphPartData
EXTRN	?Initialize@CGraphPartData@@QAEXXZ:PROC		; CGraphPartData::Initialize
EXTRN	?GetGroupName@CGraphPartData@@QBE?AV?$CStringT@DV?$StrTraitMFC_DLL@DV?$ChTraitsCRT@D@ATL@@@@@ATL@@XZ:PROC ; CGraphPartData::GetGroupName
EXTRN	?GetGraphData@CGraphPartData@@QAEAAVCGraphData@@XZ:PROC ; CGraphPartData::GetGraphData
EXTRN	?GetGraphData@CGraphPartData@@QBEABVCGraphData@@XZ:PROC ; CGraphPartData::GetGraphData
EXTRN	?GetSubGraphPartDataCount@CGraphPartData@@QBEHXZ:PROC ; CGraphPartData::GetSubGraphPartDataCount
EXTRN	?GetSubGraphPartDataIndex@CGraphPartData@@QBEHABV?$CStringT@DV?$StrTraitMFC_DLL@DV?$ChTraitsCRT@D@ATL@@@@@ATL@@@Z:PROC ; CGraphPartData::GetSubGraphPartDataIndex
EXTRN	?GetAllSubGraphDataList@CGraphPartData@@QBE_NAAV?$CList@PAVCSubGraphData@@PAV1@@@@Z:PROC ; CGraphPartData::GetAllSubGraphDataList
EXTRN	?GetSubGraphData@CGraphPartData@@QBEPAVCSubGraphData@@ABV?$CStringT@DV?$StrTraitMFC_DLL@DV?$ChTraitsCRT@D@ATL@@@@@ATL@@@Z:PROC ; CGraphPartData::GetSubGraphData
EXTRN	?GetSubGraphData@CGraphPartData@@QBEPAVCSubGraphData@@H@Z:PROC ; CGraphPartData::GetSubGraphData
EXTRN	?GetConditionList@CGraphPartData@@QBEPAV?$CList@NN@@ABV?$CStringT@DV?$StrTraitMFC_DLL@DV?$ChTraitsCRT@D@ATL@@@@@ATL@@@Z:PROC ; CGraphPartData::GetConditionList
EXTRN	?GetConditionList@CGraphPartData@@QBEPAV?$CList@NN@@H@Z:PROC ; CGraphPartData::GetConditionList
EXTRN	?GetPacketNames@CGraphPartData@@QBE?AV?$CStringT@DV?$StrTraitMFC_DLL@DV?$ChTraitsCRT@D@ATL@@@@@ATL@@H@Z:PROC ; CGraphPartData::GetPacketNames
EXTRN	?GetSubGraphTitle@CGraphPartData@@QBE?AV?$CStringT@DV?$StrTraitMFC_DLL@DV?$ChTraitsCRT@D@ATL@@@@@ATL@@H@Z:PROC ; CGraphPartData::GetSubGraphTitle
EXTRN	?GetGraphDataForMaking@CGraphPartData@@QBEXAAV?$CStringT@DV?$StrTraitMFC_DLL@DV?$ChTraitsCRT@D@ATL@@@@@ATL@@@Z:PROC ; CGraphPartData::GetGraphDataForMaking
EXTRN	?GetGraphDataForMaking@CGraphPartData@@QBEXAAV?$CStringT@DV?$StrTraitMFC_DLL@DV?$ChTraitsCRT@D@ATL@@@@@ATL@@H_N@Z:PROC ; CGraphPartData::GetGraphDataForMaking
EXTRN	?GetAllSubGraphDataForMaking@CGraphPartData@@QBEXAAV?$CStringT@DV?$StrTraitMFC_DLL@DV?$ChTraitsCRT@D@ATL@@@@@ATL@@@Z:PROC ; CGraphPartData::GetAllSubGraphDataForMaking
EXTRN	?GetAllSubGraphDataForMaking@CGraphPartData@@QBEXAAV?$CStringT@DV?$StrTraitMFC_DLL@DV?$ChTraitsCRT@D@ATL@@@@@ATL@@H_N@Z:PROC ; CGraphPartData::GetAllSubGraphDataForMaking
EXTRN	?GetSubGraphNameList@CGraphPartData@@QBE_NAAV?$CList@V?$CStringT@DV?$StrTraitMFC_DLL@DV?$ChTraitsCRT@D@ATL@@@@@ATL@@V12@@@@Z:PROC ; CGraphPartData::GetSubGraphNameList
EXTRN	?GetSubGraphNames@CGraphPartData@@QBEHAAV?$CStringT@DV?$StrTraitMFC_DLL@DV?$ChTraitsCRT@D@ATL@@@@@ATL@@@Z:PROC ; CGraphPartData::GetSubGraphNames
EXTRN	?GetSubGraphTitleList@CGraphPartData@@QBE_NAAV?$CList@V?$CStringT@DV?$StrTraitMFC_DLL@DV?$ChTraitsCRT@D@ATL@@@@@ATL@@V12@@@@Z:PROC ; CGraphPartData::GetSubGraphTitleList
EXTRN	?GetSubGraphColorList@CGraphPartData@@QBE_NAAV?$CList@PAVCGraphColor@@PAV1@@@@Z:PROC ; CGraphPartData::GetSubGraphColorList
EXTRN	?GetConditionTitle@CGraphPartData@@QBE?AW4TITLETYPE@CIndiBaseData@@XZ:PROC ; CGraphPartData::GetConditionTitle
EXTRN	?CopyDataWithVerificationFrom@CGraphPartData@@QAEXABV1@@Z:PROC ; CGraphPartData::CopyDataWithVerificationFrom
EXTRN	?SetGraphData@CGraphPartData@@QAE_NABVCGraphData@@_N@Z:PROC ; CGraphPartData::SetGraphData
EXTRN	?SetAllSubGraphDataList@CGraphPartData@@QAE_NPBV?$CList@PAVCSubGraphData@@PAV1@@@@Z:PROC ; CGraphPartData::SetAllSubGraphDataList
EXTRN	?SetAllPacketNames_SubGraphPart@CGraphPartData@@QAE_NABV?$CStringT@DV?$StrTraitMFC_DLL@DV?$ChTraitsCRT@D@ATL@@@@@ATL@@_N@Z:PROC ; CGraphPartData::SetAllPacketNames_SubGraphPart
EXTRN	?SetPacketNames@CGraphPartData@@QAE_NHABV?$CStringT@DV?$StrTraitMFC_DLL@DV?$ChTraitsCRT@D@ATL@@@@@ATL@@@Z:PROC ; CGraphPartData::SetPacketNames
EXTRN	?SetAllCalConditionData@CGraphPartData@@QAE_NHABN@Z:PROC ; CGraphPartData::SetAllCalConditionData
EXTRN	?SetSubGraphData@CGraphPartData@@QAE_NPBVCSubGraphData@@@Z:PROC ; CGraphPartData::SetSubGraphData
EXTRN	?SetSubGraphTitle@CGraphPartData@@QAE_NHABV?$CStringT@DV?$StrTraitMFC_DLL@DV?$ChTraitsCRT@D@ATL@@@@@ATL@@@Z:PROC ; CGraphPartData::SetSubGraphTitle
EXTRN	?SetSubGraphColor@CGraphPartData@@QAE_NHABVCGraphColor@@@Z:PROC ; CGraphPartData::SetSubGraphColor
EXTRN	?SetSubGraphPenThickness@CGraphPartData@@QAE_NHABVCPenThickness@@@Z:PROC ; CGraphPartData::SetSubGraphPenThickness
EXTRN	?ChangeCalConditionDataFromSubGraphTitle@CGraphPartData@@QAE_NXZ:PROC ; CGraphPartData::ChangeCalConditionDataFromSubGraphTitle
EXTRN	?AddSubGraphPartDataWithCopy@CGraphPartData@@QAEHPBVCSubGraphPartData@@@Z:PROC ; CGraphPartData::AddSubGraphPartDataWithCopy
EXTRN	?GetSubGraphPartData@CGraphPartData@@QBEPAVCSubGraphPartData@@H@Z:PROC ; CGraphPartData::GetSubGraphPartData
EXTRN	?SetGraphDataDrawingDataWithCopy@CGraphPartData@@QAEXPBVCGraphDataDrawingData@@@Z:PROC ; CGraphPartData::SetGraphDataDrawingDataWithCopy
EXTRN	?GetGraphDataDrawingData@CGraphPartData@@QAEPAVCGraphDataDrawingData@@XZ:PROC ; CGraphPartData::GetGraphDataDrawingData
EXTRN	?GetSubGraphHiding@CGraphPartData@@QAEHPBD@Z:PROC ; CGraphPartData::GetSubGraphHiding
EXTRN	?GetSubGraphHiding@CGraphPartData@@QAEHH@Z:PROC	; CGraphPartData::GetSubGraphHiding
EXTRN	??_ECIndicatorInfoImplementation@@UAEPAXI@Z:PROC ; CIndicatorInfoImplementation::`vector deleting destructor'
EXTRN	?DoubleToString@CDataConversion@@SA?AV?$CStringT@DV?$StrTraitMFC_DLL@DV?$ChTraitsCRT@D@ATL@@@@@ATL@@ABN@Z:PROC ; CDataConversion::DoubleToString
EXTRN	??_E?$CList@V?$CStringT@DV?$StrTraitMFC_DLL@DV?$ChTraitsCRT@D@ATL@@@@@ATL@@V12@@@UAEPAXI@Z:PROC ; CList<ATL::CStringT<char,StrTraitMFC_DLL<char,ATL::ChTraitsCRT<char> > >,ATL::CStringT<char,StrTraitMFC_DLL<char,ATL::ChTraitsCRT<char> > > >::`vector deleting destructor'
EXTRN	@__security_check_cookie@4:PROC
EXTRN	___CxxFrameHandler3:PROC
EXTRN	??_7type_info@@6B@:QWORD			; type_info::`vftable'
EXTRN	___security_cookie:DWORD
EXTRN	__fltused:DWORD
;	COMDAT ??_R1A@?0A@EA@CGraphData@@8
rdata$r	SEGMENT
??_R1A@?0A@EA@CGraphData@@8 DD FLAT:??_R0?AVCGraphData@@@8 ; CGraphData::`RTTI Base Class Descriptor at (0,-1,0,64)'
	DD	01H
	DD	00H
	DD	0ffffffffH
	DD	00H
	DD	040H
	DD	FLAT:??_R3CGraphData@@8
rdata$r	ENDS
;	COMDAT ??_R2CGraphData@@8
rdata$r	SEGMENT
??_R2CGraphData@@8 DD FLAT:??_R1A@?0A@EA@CGraphData@@8	; CGraphData::`RTTI Base Class Array'
	DD	FLAT:??_R1A@?0A@EA@CGraphDataBase@@8
rdata$r	ENDS
;	COMDAT ??_R3CGraphData@@8
rdata$r	SEGMENT
??_R3CGraphData@@8 DD 00H				; CGraphData::`RTTI Class Hierarchy Descriptor'
	DD	00H
	DD	02H
	DD	FLAT:??_R2CGraphData@@8
rdata$r	ENDS
;	COMDAT ??_R0?AVCGraphData@@@8
data$rs	SEGMENT
??_R0?AVCGraphData@@@8 DD FLAT:??_7type_info@@6B@	; CGraphData `RTTI Type Descriptor'
	DD	00H
	DB	'.?AVCGraphData@@', 00H
data$rs	ENDS
;	COMDAT ??_R4CGraphData@@6B@
rdata$r	SEGMENT
??_R4CGraphData@@6B@ DD 00H				; CGraphData::`RTTI Complete Object Locator'
	DD	00H
	DD	00H
	DD	FLAT:??_R0?AVCGraphData@@@8
	DD	FLAT:??_R3CGraphData@@8
rdata$r	ENDS
;	COMDAT ??_R1A@?0A@EA@CIndicatorInfoImplementation@@8
rdata$r	SEGMENT
??_R1A@?0A@EA@CIndicatorInfoImplementation@@8 DD FLAT:??_R0?AVCIndicatorInfoImplementation@@@8 ; CIndicatorInfoImplementation::`RTTI Base Class Descriptor at (0,-1,0,64)'
	DD	00H
	DD	00H
	DD	0ffffffffH
	DD	00H
	DD	040H
	DD	FLAT:??_R3CIndicatorInfoImplementation@@8
rdata$r	ENDS
;	COMDAT ??_R2CIndicatorInfoImplementation@@8
rdata$r	SEGMENT
??_R2CIndicatorInfoImplementation@@8 DD FLAT:??_R1A@?0A@EA@CIndicatorInfoImplementation@@8 ; CIndicatorInfoImplementation::`RTTI Base Class Array'
rdata$r	ENDS
;	COMDAT ??_R3CIndicatorInfoImplementation@@8
rdata$r	SEGMENT
??_R3CIndicatorInfoImplementation@@8 DD 00H		; CIndicatorInfoImplementation::`RTTI Class Hierarchy Descriptor'
	DD	00H
	DD	01H
	DD	FLAT:??_R2CIndicatorInfoImplementation@@8
rdata$r	ENDS
;	COMDAT ??_R0?AVCIndicatorInfoImplementation@@@8
data$rs	SEGMENT
??_R0?AVCIndicatorInfoImplementation@@@8 DD FLAT:??_7type_info@@6B@ ; CIndicatorInfoImplementation `RTTI Type Descriptor'
	DD	00H
	DB	'.?AVCIndicatorInfoImplementation@@', 00H
data$rs	ENDS
;	COMDAT ??_R4CIndicatorInfoImplementation@@6B@
rdata$r	SEGMENT
??_R4CIndicatorInfoImplementation@@6B@ DD 00H		; CIndicatorInfoImplementation::`RTTI Complete Object Locator'
	DD	00H
	DD	00H
	DD	FLAT:??_R0?AVCIndicatorInfoImplementation@@@8
	DD	FLAT:??_R3CIndicatorInfoImplementation@@8
rdata$r	ENDS
;	COMDAT ??_R1A@?0A@EA@CGraphDataBase@@8
rdata$r	SEGMENT
??_R1A@?0A@EA@CGraphDataBase@@8 DD FLAT:??_R0?AVCGraphDataBase@@@8 ; CGraphDataBase::`RTTI Base Class Descriptor at (0,-1,0,64)'
	DD	00H
	DD	00H
	DD	0ffffffffH
	DD	00H
	DD	040H
	DD	FLAT:??_R3CGraphDataBase@@8
rdata$r	ENDS
;	COMDAT ??_R2CGraphDataBase@@8
rdata$r	SEGMENT
??_R2CGraphDataBase@@8 DD FLAT:??_R1A@?0A@EA@CGraphDataBase@@8 ; CGraphDataBase::`RTTI Base Class Array'
rdata$r	ENDS
;	COMDAT ??_R3CGraphDataBase@@8
rdata$r	SEGMENT
??_R3CGraphDataBase@@8 DD 00H				; CGraphDataBase::`RTTI Class Hierarchy Descriptor'
	DD	00H
	DD	01H
	DD	FLAT:??_R2CGraphDataBase@@8
rdata$r	ENDS
;	COMDAT ??_R0?AVCGraphDataBase@@@8
data$rs	SEGMENT
??_R0?AVCGraphDataBase@@@8 DD FLAT:??_7type_info@@6B@	; CGraphDataBase `RTTI Type Descriptor'
	DD	00H
	DB	'.?AVCGraphDataBase@@', 00H
data$rs	ENDS
;	COMDAT ??_R4CGraphDataBase@@6B@
rdata$r	SEGMENT
??_R4CGraphDataBase@@6B@ DD 00H				; CGraphDataBase::`RTTI Complete Object Locator'
	DD	00H
	DD	00H
	DD	FLAT:??_R0?AVCGraphDataBase@@@8
	DD	FLAT:??_R3CGraphDataBase@@8
rdata$r	ENDS
;	COMDAT ??_R1A@?0A@EA@CIndicatorList@@8
rdata$r	SEGMENT
??_R1A@?0A@EA@CIndicatorList@@8 DD FLAT:??_R0?AVCIndicatorList@@@8 ; CIndicatorList::`RTTI Base Class Descriptor at (0,-1,0,64)'
	DD	00H
	DD	00H
	DD	0ffffffffH
	DD	00H
	DD	040H
	DD	FLAT:??_R3CIndicatorList@@8
rdata$r	ENDS
;	COMDAT ??_R2CIndicatorList@@8
rdata$r	SEGMENT
??_R2CIndicatorList@@8 DD FLAT:??_R1A@?0A@EA@CIndicatorList@@8 ; CIndicatorList::`RTTI Base Class Array'
rdata$r	ENDS
;	COMDAT ??_R3CIndicatorList@@8
rdata$r	SEGMENT
??_R3CIndicatorList@@8 DD 00H				; CIndicatorList::`RTTI Class Hierarchy Descriptor'
	DD	00H
	DD	01H
	DD	FLAT:??_R2CIndicatorList@@8
rdata$r	ENDS
;	COMDAT ??_R0?AVCIndicatorList@@@8
data$rs	SEGMENT
??_R0?AVCIndicatorList@@@8 DD FLAT:??_7type_info@@6B@	; CIndicatorList `RTTI Type Descriptor'
	DD	00H
	DB	'.?AVCIndicatorList@@', 00H
data$rs	ENDS
;	COMDAT ??_R4CIndicatorList@@6B@
rdata$r	SEGMENT
??_R4CIndicatorList@@6B@ DD 00H				; CIndicatorList::`RTTI Complete Object Locator'
	DD	00H
	DD	00H
	DD	FLAT:??_R0?AVCIndicatorList@@@8
	DD	FLAT:??_R3CIndicatorList@@8
rdata$r	ENDS
;	COMDAT ??_R1A@?0A@EA@?$CList@V?$CStringT@DV?$StrTraitMFC_DLL@DV?$ChTraitsCRT@D@ATL@@@@@ATL@@V12@@@8
rdata$r	SEGMENT
??_R1A@?0A@EA@?$CList@V?$CStringT@DV?$StrTraitMFC_DLL@DV?$ChTraitsCRT@D@ATL@@@@@ATL@@V12@@@8 DD FLAT:??_R0?AV?$CList@V?$CStringT@DV?$StrTraitMFC_DLL@DV?$ChTraitsCRT@D@ATL@@@@@ATL@@V12@@@@8 ; CList<ATL::CStringT<char,StrTraitMFC_DLL<char,ATL::ChTraitsCRT<char> > >,ATL::CStringT<char,StrTraitMFC_DLL<char,ATL::ChTraitsCRT<char> > > >::`RTTI Base Class Descriptor at (0,-1,0,64)'
	DD	01H
	DD	00H
	DD	0ffffffffH
	DD	00H
	DD	040H
	DD	FLAT:??_R3?$CList@V?$CStringT@DV?$StrTraitMFC_DLL@DV?$ChTraitsCRT@D@ATL@@@@@ATL@@V12@@@8
rdata$r	ENDS
;	COMDAT ??_R2?$CList@V?$CStringT@DV?$StrTraitMFC_DLL@DV?$ChTraitsCRT@D@ATL@@@@@ATL@@V12@@@8
rdata$r	SEGMENT
??_R2?$CList@V?$CStringT@DV?$StrTraitMFC_DLL@DV?$ChTraitsCRT@D@ATL@@@@@ATL@@V12@@@8 DD FLAT:??_R1A@?0A@EA@?$CList@V?$CStringT@DV?$StrTraitMFC_DLL@DV?$ChTraitsCRT@D@ATL@@@@@ATL@@V12@@@8 ; CList<ATL::CStringT<char,StrTraitMFC_DLL<char,ATL::ChTraitsCRT<char> > >,ATL::CStringT<char,StrTraitMFC_DLL<char,ATL::ChTraitsCRT<char> > > >::`RTTI Base Class Array'
	DD	FLAT:??_R1A@?0A@EA@CObject@@8
rdata$r	ENDS
;	COMDAT ??_R3?$CList@V?$CStringT@DV?$StrTraitMFC_DLL@DV?$ChTraitsCRT@D@ATL@@@@@ATL@@V12@@@8
rdata$r	SEGMENT
??_R3?$CList@V?$CStringT@DV?$StrTraitMFC_DLL@DV?$ChTraitsCRT@D@ATL@@@@@ATL@@V12@@@8 DD 00H ; CList<ATL::CStringT<char,StrTraitMFC_DLL<char,ATL::ChTraitsCRT<char> > >,ATL::CStringT<char,StrTraitMFC_DLL<char,ATL::ChTraitsCRT<char> > > >::`RTTI Class Hierarchy Descriptor'
	DD	00H
	DD	02H
	DD	FLAT:??_R2?$CList@V?$CStringT@DV?$StrTraitMFC_DLL@DV?$ChTraitsCRT@D@ATL@@@@@ATL@@V12@@@8
rdata$r	ENDS
;	COMDAT ??_R0?AV?$CList@V?$CStringT@DV?$StrTraitMFC_DLL@DV?$ChTraitsCRT@D@ATL@@@@@ATL@@V12@@@@8
data$rs	SEGMENT
??_R0?AV?$CList@V?$CStringT@DV?$StrTraitMFC_DLL@DV?$ChTraitsCRT@D@ATL@@@@@ATL@@V12@@@@8 DD FLAT:??_7type_info@@6B@ ; CList<ATL::CStringT<char,StrTraitMFC_DLL<char,ATL::ChTraitsCRT<char> > >,ATL::CStringT<char,StrTraitMFC_DLL<char,ATL::ChTraitsCRT<char> > > > `RTTI Type Descriptor'
	DD	00H
	DB	'.?AV?$CList@V?$CStringT@DV?$StrTraitMFC_DLL@DV?$ChTraits'
	DB	'CRT@D@ATL@@@@@ATL@@V12@@@', 00H
data$rs	ENDS
;	COMDAT ??_R4?$CList@V?$CStringT@DV?$StrTraitMFC_DLL@DV?$ChTraitsCRT@D@ATL@@@@@ATL@@V12@@@6B@
rdata$r	SEGMENT
??_R4?$CList@V?$CStringT@DV?$StrTraitMFC_DLL@DV?$ChTraitsCRT@D@ATL@@@@@ATL@@V12@@@6B@ DD 00H ; CList<ATL::CStringT<char,StrTraitMFC_DLL<char,ATL::ChTraitsCRT<char> > >,ATL::CStringT<char,StrTraitMFC_DLL<char,ATL::ChTraitsCRT<char> > > >::`RTTI Complete Object Locator'
	DD	00H
	DD	00H
	DD	FLAT:??_R0?AV?$CList@V?$CStringT@DV?$StrTraitMFC_DLL@DV?$ChTraitsCRT@D@ATL@@@@@ATL@@V12@@@@8
	DD	FLAT:??_R3?$CList@V?$CStringT@DV?$StrTraitMFC_DLL@DV?$ChTraitsCRT@D@ATL@@@@@ATL@@V12@@@8
rdata$r	ENDS
;	COMDAT ??_R1A@?0A@EA@?$CList@NN@@8
rdata$r	SEGMENT
??_R1A@?0A@EA@?$CList@NN@@8 DD FLAT:??_R0?AV?$CList@NN@@@8 ; CList<double,double>::`RTTI Base Class Descriptor at (0,-1,0,64)'
	DD	01H
	DD	00H
	DD	0ffffffffH
	DD	00H
	DD	040H
	DD	FLAT:??_R3?$CList@NN@@8
rdata$r	ENDS
;	COMDAT ??_R2?$CList@NN@@8
rdata$r	SEGMENT
??_R2?$CList@NN@@8 DD FLAT:??_R1A@?0A@EA@?$CList@NN@@8	; CList<double,double>::`RTTI Base Class Array'
	DD	FLAT:??_R1A@?0A@EA@CObject@@8
rdata$r	ENDS
;	COMDAT ??_R3?$CList@NN@@8
rdata$r	SEGMENT
??_R3?$CList@NN@@8 DD 00H				; CList<double,double>::`RTTI Class Hierarchy Descriptor'
	DD	00H
	DD	02H
	DD	FLAT:??_R2?$CList@NN@@8
rdata$r	ENDS
;	COMDAT ??_R0?AV?$CList@NN@@@8
data$rs	SEGMENT
??_R0?AV?$CList@NN@@@8 DD FLAT:??_7type_info@@6B@	; CList<double,double> `RTTI Type Descriptor'
	DD	00H
	DB	'.?AV?$CList@NN@@', 00H
data$rs	ENDS
;	COMDAT ??_R4?$CList@NN@@6B@
rdata$r	SEGMENT
??_R4?$CList@NN@@6B@ DD 00H				; CList<double,double>::`RTTI Complete Object Locator'
	DD	00H
	DD	00H
	DD	FLAT:??_R0?AV?$CList@NN@@@8
	DD	FLAT:??_R3?$CList@NN@@8
rdata$r	ENDS
;	COMDAT ??_7?$CList@V?$CStringT@DV?$StrTraitMFC_DLL@DV?$ChTraitsCRT@D@ATL@@@@@ATL@@V12@@@6B@
CONST	SEGMENT
??_7?$CList@V?$CStringT@DV?$StrTraitMFC_DLL@DV?$ChTraitsCRT@D@ATL@@@@@ATL@@V12@@@6B@ DD FLAT:??_R4?$CList@V?$CStringT@DV?$StrTraitMFC_DLL@DV?$ChTraitsCRT@D@ATL@@@@@ATL@@V12@@@6B@ ; CList<ATL::CStringT<char,StrTraitMFC_DLL<char,ATL::ChTraitsCRT<char> > >,ATL::CStringT<char,StrTraitMFC_DLL<char,ATL::ChTraitsCRT<char> > > >::`vftable'
	DD	FLAT:?GetRuntimeClass@CObject@@UBEPAUCRuntimeClass@@XZ
	DD	FLAT:??_E?$CList@V?$CStringT@DV?$StrTraitMFC_DLL@DV?$ChTraitsCRT@D@ATL@@@@@ATL@@V12@@@UAEPAXI@Z
	DD	FLAT:?Serialize@?$CList@V?$CStringT@DV?$StrTraitMFC_DLL@DV?$ChTraitsCRT@D@ATL@@@@@ATL@@V12@@@UAEXAAVCArchive@@@Z
	DD	FLAT:?AssertValid@CObject@@UBEXXZ
	DD	FLAT:?Dump@CObject@@UBEXAAVCDumpContext@@@Z
CONST	ENDS
;	COMDAT ??_7CIndicatorInfoImplementation@@6B@
CONST	SEGMENT
??_7CIndicatorInfoImplementation@@6B@ DD FLAT:??_R4CIndicatorInfoImplementation@@6B@ ; CIndicatorInfoImplementation::`vftable'
	DD	FLAT:??_ECIndicatorInfoImplementation@@UAEPAXI@Z
CONST	ENDS
;	COMDAT ??_7?$CList@NN@@6B@
CONST	SEGMENT
??_7?$CList@NN@@6B@ DD FLAT:??_R4?$CList@NN@@6B@	; CList<double,double>::`vftable'
	DD	FLAT:?GetRuntimeClass@CObject@@UBEPAUCRuntimeClass@@XZ
	DD	FLAT:??_E?$CList@NN@@UAEPAXI@Z
	DD	FLAT:?Serialize@?$CList@NN@@UAEXAAVCArchive@@@Z
	DD	FLAT:?AssertValid@CObject@@UBEXXZ
	DD	FLAT:?Dump@CObject@@UBEXAAVCDumpContext@@@Z
CONST	ENDS
;	COMDAT ??_7CGraphData@@6B@
CONST	SEGMENT
??_7CGraphData@@6B@ DD FLAT:??_R4CGraphData@@6B@	; CGraphData::`vftable'
	DD	FLAT:?SetIndicatorName@CGraphData@@MAEXABV?$CStringT@DV?$StrTraitMFC_DLL@DV?$ChTraitsCRT@D@ATL@@@@@ATL@@@Z
	DD	FLAT:?SetGraphName@CGraphData@@MAEXABV?$CStringT@DV?$StrTraitMFC_DLL@DV?$ChTraitsCRT@D@ATL@@@@@ATL@@@Z
CONST	ENDS
;	COMDAT ??_7CGraphDataBase@@6B@
CONST	SEGMENT
??_7CGraphDataBase@@6B@ DD FLAT:??_R4CGraphDataBase@@6B@ ; CGraphDataBase::`vftable'
	DD	FLAT:__purecall
	DD	FLAT:__purecall
CONST	ENDS
;	COMDAT ??_7CIndicatorList@@6B@
CONST	SEGMENT
??_7CIndicatorList@@6B@ DD FLAT:??_R4CIndicatorList@@6B@ ; CIndicatorList::`vftable'
	DD	FLAT:??_ECIndicatorList@@UAEPAXI@Z
CONST	ENDS
;	COMDAT ??_R1A@?0A@EA@CObject@@8
rdata$r	SEGMENT
??_R1A@?0A@EA@CObject@@8 DD FLAT:??_R0?AVCObject@@@8	; CObject::`RTTI Base Class Descriptor at (0,-1,0,64)'
	DD	00H
	DD	00H
	DD	0ffffffffH
	DD	00H
	DD	040H
	DD	FLAT:??_R3CObject@@8
rdata$r	ENDS
;	COMDAT ??_R2CObject@@8
rdata$r	SEGMENT
??_R2CObject@@8 DD FLAT:??_R1A@?0A@EA@CObject@@8	; CObject::`RTTI Base Class Array'
rdata$r	ENDS
;	COMDAT ??_R3CObject@@8
rdata$r	SEGMENT
??_R3CObject@@8 DD 00H					; CObject::`RTTI Class Hierarchy Descriptor'
	DD	00H
	DD	01H
	DD	FLAT:??_R2CObject@@8
rdata$r	ENDS
;	COMDAT ??_R0?AVCObject@@@8
data$rs	SEGMENT
??_R0?AVCObject@@@8 DD FLAT:??_7type_info@@6B@		; CObject `RTTI Type Descriptor'
	DD	00H
	DB	'.?AVCObject@@', 00H
data$rs	ENDS
;	COMDAT ??_C@_00CNPNBAHC@@
CONST	SEGMENT
??_C@_00CNPNBAHC@@ DB 00H				; `string'
CONST	ENDS
;	COMDAT xdata$x
xdata$x	SEGMENT
__unwindtable$?Serialize@?$CList@V?$CStringT@DV?$StrTraitMFC_DLL@DV?$ChTraitsCRT@D@ATL@@@@@ATL@@V12@@@UAEXAAVCArchive@@@Z DD 0ffffffffH
	DD	FLAT:__unwindfunclet$?Serialize@?$CList@V?$CStringT@DV?$StrTraitMFC_DLL@DV?$ChTraitsCRT@D@ATL@@@@@ATL@@V12@@@UAEXAAVCArchive@@@Z$0
	DD	00H
	DD	FLAT:__unwindfunclet$?Serialize@?$CList@V?$CStringT@DV?$StrTraitMFC_DLL@DV?$ChTraitsCRT@D@ATL@@@@@ATL@@V12@@@UAEXAAVCArchive@@@Z$2
__ehfuncinfo$?Serialize@?$CList@V?$CStringT@DV?$StrTraitMFC_DLL@DV?$ChTraitsCRT@D@ATL@@@@@ATL@@V12@@@UAEXAAVCArchive@@@Z DD 019930522H
	DD	02H
	DD	FLAT:__unwindtable$?Serialize@?$CList@V?$CStringT@DV?$StrTraitMFC_DLL@DV?$ChTraitsCRT@D@ATL@@@@@ATL@@V12@@@UAEXAAVCArchive@@@Z
	DD	2 DUP(00H)
	DD	2 DUP(00H)
	DD	00H
	DD	01H
xdata$x	ENDS
;	COMDAT xdata$x
xdata$x	SEGMENT
__ehfuncinfo$??1?$CList@V?$CStringT@DV?$StrTraitMFC_DLL@DV?$ChTraitsCRT@D@ATL@@@@@ATL@@V12@@@UAE@XZ DD 019930522H
	DD	00H
	DD	00H
	DD	2 DUP(00H)
	DD	2 DUP(00H)
	DD	00H
	DD	05H
xdata$x	ENDS
;	COMDAT xdata$x
xdata$x	SEGMENT
__unwindtable$?AddTail@?$CList@V?$CStringT@DV?$StrTraitMFC_DLL@DV?$ChTraitsCRT@D@ATL@@@@@ATL@@V12@@@QAEPAU__POSITION@@V?$CStringT@DV?$StrTraitMFC_DLL@DV?$ChTraitsCRT@D@ATL@@@@@ATL@@@Z DD 0ffffffffH
	DD	FLAT:__unwindfunclet$?AddTail@?$CList@V?$CStringT@DV?$StrTraitMFC_DLL@DV?$ChTraitsCRT@D@ATL@@@@@ATL@@V12@@@QAEPAU__POSITION@@V?$CStringT@DV?$StrTraitMFC_DLL@DV?$ChTraitsCRT@D@ATL@@@@@ATL@@@Z$0
__ehfuncinfo$?AddTail@?$CList@V?$CStringT@DV?$StrTraitMFC_DLL@DV?$ChTraitsCRT@D@ATL@@@@@ATL@@V12@@@QAEPAU__POSITION@@V?$CStringT@DV?$StrTraitMFC_DLL@DV?$ChTraitsCRT@D@ATL@@@@@ATL@@@Z DD 019930522H
	DD	01H
	DD	FLAT:__unwindtable$?AddTail@?$CList@V?$CStringT@DV?$StrTraitMFC_DLL@DV?$ChTraitsCRT@D@ATL@@@@@ATL@@V12@@@QAEPAU__POSITION@@V?$CStringT@DV?$StrTraitMFC_DLL@DV?$ChTraitsCRT@D@ATL@@@@@ATL@@@Z
	DD	2 DUP(00H)
	DD	2 DUP(00H)
	DD	00H
	DD	01H
xdata$x	ENDS
;	COMDAT xdata$x
xdata$x	SEGMENT
__unwindtable$??_GCIndicatorInfoImplementation@@UAEPAXI@Z DD 0ffffffffH
	DD	FLAT:___std_terminate
	DD	0ffffffffH
	DD	FLAT:___std_terminate
	DD	0ffffffffH
	DD	FLAT:___std_terminate
__ehfuncinfo$??_GCIndicatorInfoImplementation@@UAEPAXI@Z DD 019930522H
	DD	03H
	DD	FLAT:__unwindtable$??_GCIndicatorInfoImplementation@@UAEPAXI@Z
	DD	2 DUP(00H)
	DD	2 DUP(00H)
	DD	00H
	DD	05H
xdata$x	ENDS
;	COMDAT xdata$x
xdata$x	SEGMENT
__unwindtable$?ChangeAllSubGraphTitleFromCalConditionData@CIndicatorInfoImplementation@@QAE_NXZ DD 0ffffffffH
	DD	FLAT:__unwindfunclet$?ChangeAllSubGraphTitleFromCalConditionData@CIndicatorInfoImplementation@@QAE_NXZ$0
__ehfuncinfo$?ChangeAllSubGraphTitleFromCalConditionData@CIndicatorInfoImplementation@@QAE_NXZ DD 019930522H
	DD	01H
	DD	FLAT:__unwindtable$?ChangeAllSubGraphTitleFromCalConditionData@CIndicatorInfoImplementation@@QAE_NXZ
	DD	2 DUP(00H)
	DD	2 DUP(00H)
	DD	00H
	DD	01H
xdata$x	ENDS
;	COMDAT xdata$x
xdata$x	SEGMENT
__unwindtable$?SetCommonPacketNames@CIndicatorInfoImplementation@@QAE_NABV?$CStringT@DV?$StrTraitMFC_DLL@DV?$ChTraitsCRT@D@ATL@@@@@ATL@@@Z DD 0ffffffffH
	DD	FLAT:__unwindfunclet$?SetCommonPacketNames@CIndicatorInfoImplementation@@QAE_NABV?$CStringT@DV?$StrTraitMFC_DLL@DV?$ChTraitsCRT@D@ATL@@@@@ATL@@@Z$0
__ehfuncinfo$?SetCommonPacketNames@CIndicatorInfoImplementation@@QAE_NABV?$CStringT@DV?$StrTraitMFC_DLL@DV?$ChTraitsCRT@D@ATL@@@@@ATL@@@Z DD 019930522H
	DD	01H
	DD	FLAT:__unwindtable$?SetCommonPacketNames@CIndicatorInfoImplementation@@QAE_NABV?$CStringT@DV?$StrTraitMFC_DLL@DV?$ChTraitsCRT@D@ATL@@@@@ATL@@@Z
	DD	2 DUP(00H)
	DD	2 DUP(00H)
	DD	00H
	DD	01H
xdata$x	ENDS
;	COMDAT xdata$x
xdata$x	SEGMENT
__unwindtable$?GetCopyDataFrom@CIndicatorInfoImplementation@@QAE_NPBV1@H@Z DD 0ffffffffH
	DD	FLAT:__unwindfunclet$?GetCopyDataFrom@CIndicatorInfoImplementation@@QAE_NPBV1@H@Z$0
	DD	00H
	DD	FLAT:__unwindfunclet$?GetCopyDataFrom@CIndicatorInfoImplementation@@QAE_NPBV1@H@Z$1
__ehfuncinfo$?GetCopyDataFrom@CIndicatorInfoImplementation@@QAE_NPBV1@H@Z DD 019930522H
	DD	02H
	DD	FLAT:__unwindtable$?GetCopyDataFrom@CIndicatorInfoImplementation@@QAE_NPBV1@H@Z
	DD	2 DUP(00H)
	DD	2 DUP(00H)
	DD	00H
	DD	01H
xdata$x	ENDS
;	COMDAT xdata$x
xdata$x	SEGMENT
__unwindtable$?IsSignalShow@CIndicatorInfoImplementation@@QBE_NXZ DD 0ffffffffH
	DD	FLAT:__unwindfunclet$?IsSignalShow@CIndicatorInfoImplementation@@QBE_NXZ$0
__ehfuncinfo$?IsSignalShow@CIndicatorInfoImplementation@@QBE_NXZ DD 019930522H
	DD	01H
	DD	FLAT:__unwindtable$?IsSignalShow@CIndicatorInfoImplementation@@QBE_NXZ
	DD	2 DUP(00H)
	DD	2 DUP(00H)
	DD	00H
	DD	01H
xdata$x	ENDS
;	COMDAT xdata$x
xdata$x	SEGMENT
__unwindtable$?IsSignalUse@CIndicatorInfoImplementation@@QBE_NXZ DD 0ffffffffH
	DD	FLAT:__unwindfunclet$?IsSignalUse@CIndicatorInfoImplementation@@QBE_NXZ$0
__ehfuncinfo$?IsSignalUse@CIndicatorInfoImplementation@@QBE_NXZ DD 019930522H
	DD	01H
	DD	FLAT:__unwindtable$?IsSignalUse@CIndicatorInfoImplementation@@QBE_NXZ
	DD	2 DUP(00H)
	DD	2 DUP(00H)
	DD	00H
	DD	01H
xdata$x	ENDS
;	COMDAT xdata$x
xdata$x	SEGMENT
__unwindtable$?CopyDataWithVerificationFrom@CIndicatorInfoImplementation@@QAE_NABV1@@Z DD 0ffffffffH
	DD	FLAT:__unwindfunclet$?CopyDataWithVerificationFrom@CIndicatorInfoImplementation@@QAE_NABV1@@Z$0
	DD	00H
	DD	FLAT:__unwindfunclet$?CopyDataWithVerificationFrom@CIndicatorInfoImplementation@@QAE_NABV1@@Z$1
__ehfuncinfo$?CopyDataWithVerificationFrom@CIndicatorInfoImplementation@@QAE_NABV1@@Z DD 019930522H
	DD	02H
	DD	FLAT:__unwindtable$?CopyDataWithVerificationFrom@CIndicatorInfoImplementation@@QAE_NABV1@@Z
	DD	2 DUP(00H)
	DD	2 DUP(00H)
	DD	00H
	DD	01H
xdata$x	ENDS
;	COMDAT xdata$x
xdata$x	SEGMENT
__unwindtable$?ChangeCalConditionDataFromSubGraphTitle@CIndicatorInfoImplementation@@AAE_NXZ DD 0ffffffffH
	DD	FLAT:__unwindfunclet$?ChangeCalConditionDataFromSubGraphTitle@CIndicatorInfoImplementation@@AAE_NXZ$0
	DD	00H
	DD	FLAT:__unwindfunclet$?ChangeCalConditionDataFromSubGraphTitle@CIndicatorInfoImplementation@@AAE_NXZ$1
	DD	0ffffffffH
	DD	FLAT:___std_terminate
__ehfuncinfo$?ChangeCalConditionDataFromSubGraphTitle@CIndicatorInfoImplementation@@AAE_NXZ DD 019930522H
	DD	03H
	DD	FLAT:__unwindtable$?ChangeCalConditionDataFromSubGraphTitle@CIndicatorInfoImplementation@@AAE_NXZ
	DD	2 DUP(00H)
	DD	2 DUP(00H)
	DD	00H
	DD	01H
xdata$x	ENDS
;	COMDAT xdata$x
xdata$x	SEGMENT
__unwindtable$?GetStringDoubleList@CIndicatorInfoImplementation@@ABE?AV?$CStringT@DV?$StrTraitMFC_DLL@DV?$ChTraitsCRT@D@ATL@@@@@ATL@@ABV?$CList@NN@@ABV23@@Z DD 0ffffffffH
	DD	FLAT:__unwindfunclet$?GetStringDoubleList@CIndicatorInfoImplementation@@ABE?AV?$CStringT@DV?$StrTraitMFC_DLL@DV?$ChTraitsCRT@D@ATL@@@@@ATL@@ABV?$CList@NN@@ABV23@@Z$1
	DD	00H
	DD	FLAT:__unwindfunclet$?GetStringDoubleList@CIndicatorInfoImplementation@@ABE?AV?$CStringT@DV?$StrTraitMFC_DLL@DV?$ChTraitsCRT@D@ATL@@@@@ATL@@ABV?$CList@NN@@ABV23@@Z$2
	DD	01H
	DD	FLAT:__unwindfunclet$?GetStringDoubleList@CIndicatorInfoImplementation@@ABE?AV?$CStringT@DV?$StrTraitMFC_DLL@DV?$ChTraitsCRT@D@ATL@@@@@ATL@@ABV?$CList@NN@@ABV23@@Z$4
__ehfuncinfo$?GetStringDoubleList@CIndicatorInfoImplementation@@ABE?AV?$CStringT@DV?$StrTraitMFC_DLL@DV?$ChTraitsCRT@D@ATL@@@@@ATL@@ABV?$CList@NN@@ABV23@@Z DD 019930522H
	DD	03H
	DD	FLAT:__unwindtable$?GetStringDoubleList@CIndicatorInfoImplementation@@ABE?AV?$CStringT@DV?$StrTraitMFC_DLL@DV?$ChTraitsCRT@D@ATL@@@@@ATL@@ABV?$CList@NN@@ABV23@@Z
	DD	2 DUP(00H)
	DD	2 DUP(00H)
	DD	00H
	DD	01H
xdata$x	ENDS
;	COMDAT xdata$x
xdata$x	SEGMENT
__unwindtable$?CopyAllData@CIndicatorInfoImplementation@@AAEXPBV1@H@Z DD 0ffffffffH
	DD	FLAT:__unwindfunclet$?CopyAllData@CIndicatorInfoImplementation@@AAEXPBV1@H@Z$0
	DD	00H
	DD	FLAT:__unwindfunclet$?CopyAllData@CIndicatorInfoImplementation@@AAEXPBV1@H@Z$1
	DD	01H
	DD	FLAT:__unwindfunclet$?CopyAllData@CIndicatorInfoImplementation@@AAEXPBV1@H@Z$2
	DD	01H
	DD	FLAT:__unwindfunclet$?CopyAllData@CIndicatorInfoImplementation@@AAEXPBV1@H@Z$3
__ehfuncinfo$?CopyAllData@CIndicatorInfoImplementation@@AAEXPBV1@H@Z DD 019930522H
	DD	04H
	DD	FLAT:__unwindtable$?CopyAllData@CIndicatorInfoImplementation@@AAEXPBV1@H@Z
	DD	2 DUP(00H)
	DD	2 DUP(00H)
	DD	00H
	DD	01H
xdata$x	ENDS
;	COMDAT xdata$x
xdata$x	SEGMENT
__unwindtable$??1CIndicatorInfoImplementation@@UAE@XZ DD 0ffffffffH
	DD	FLAT:___std_terminate
	DD	0ffffffffH
	DD	FLAT:___std_terminate
	DD	0ffffffffH
	DD	FLAT:___std_terminate
__ehfuncinfo$??1CIndicatorInfoImplementation@@UAE@XZ DD 019930522H
	DD	03H
	DD	FLAT:__unwindtable$??1CIndicatorInfoImplementation@@UAE@XZ
	DD	2 DUP(00H)
	DD	2 DUP(00H)
	DD	00H
	DD	05H
xdata$x	ENDS
;	COMDAT xdata$x
xdata$x	SEGMENT
__ehfuncinfo$??0CIndicatorInfoImplementation@@QAE@PBV0@@Z DD 019930522H
	DD	08H
	DD	FLAT:__unwindtable$??0CIndicatorInfoImplementation@@QAE@PBV0@@Z
	DD	2 DUP(00H)
	DD	2 DUP(00H)
	DD	00H
	DD	01H
__unwindtable$??0CIndicatorInfoImplementation@@QAE@PBV0@@Z DD 0ffffffffH
	DD	FLAT:__unwindfunclet$??0CIndicatorInfoImplementation@@QAE@PBV0@@Z$0
	DD	00H
	DD	FLAT:__unwindfunclet$??0CIndicatorInfoImplementation@@QAE@PBV0@@Z$1
	DD	01H
	DD	FLAT:__unwindfunclet$??0CIndicatorInfoImplementation@@QAE@PBV0@@Z$2
	DD	02H
	DD	FLAT:__unwindfunclet$??0CIndicatorInfoImplementation@@QAE@PBV0@@Z$3
	DD	03H
	DD	FLAT:__unwindfunclet$??0CIndicatorInfoImplementation@@QAE@PBV0@@Z$4
	DD	04H
	DD	FLAT:__unwindfunclet$??0CIndicatorInfoImplementation@@QAE@PBV0@@Z$5
	DD	05H
	DD	00H
	DD	05H
	DD	00H
xdata$x	ENDS
;	COMDAT xdata$x
xdata$x	SEGMENT
__unwindtable$??0CIndicatorInfoImplementation@@QAE@W4EIndicatorInfoType@@@Z DD 0ffffffffH
	DD	FLAT:__unwindfunclet$??0CIndicatorInfoImplementation@@QAE@W4EIndicatorInfoType@@@Z$0
	DD	00H
	DD	FLAT:__unwindfunclet$??0CIndicatorInfoImplementation@@QAE@W4EIndicatorInfoType@@@Z$1
	DD	01H
	DD	FLAT:__unwindfunclet$??0CIndicatorInfoImplementation@@QAE@W4EIndicatorInfoType@@@Z$2
	DD	02H
	DD	FLAT:__unwindfunclet$??0CIndicatorInfoImplementation@@QAE@W4EIndicatorInfoType@@@Z$3
__ehfuncinfo$??0CIndicatorInfoImplementation@@QAE@W4EIndicatorInfoType@@@Z DD 019930522H
	DD	04H
	DD	FLAT:__unwindtable$??0CIndicatorInfoImplementation@@QAE@W4EIndicatorInfoType@@@Z
	DD	2 DUP(00H)
	DD	2 DUP(00H)
	DD	00H
	DD	01H
xdata$x	ENDS
;	COMDAT xdata$x
xdata$x	SEGMENT
__unwindtable$??_G?$CList@NN@@UAEPAXI@Z DD 0ffffffffH
	DD	FLAT:___std_terminate
__ehfuncinfo$??_G?$CList@NN@@UAEPAXI@Z DD 019930522H
	DD	01H
	DD	FLAT:__unwindtable$??_G?$CList@NN@@UAEPAXI@Z
	DD	2 DUP(00H)
	DD	2 DUP(00H)
	DD	00H
	DD	05H
xdata$x	ENDS
;	COMDAT xdata$x
xdata$x	SEGMENT
__ehfuncinfo$??1?$CList@NN@@UAE@XZ DD 019930522H
	DD	00H
	DD	00H
	DD	2 DUP(00H)
	DD	2 DUP(00H)
	DD	00H
	DD	05H
xdata$x	ENDS
;	COMDAT xdata$x
xdata$x	SEGMENT
__unwindtable$??0CGraphData@@QAE@ABV0@@Z DD 0ffffffffH
	DD	FLAT:__unwindfunclet$??0CGraphData@@QAE@ABV0@@Z$0
	DD	00H
	DD	FLAT:__unwindfunclet$??0CGraphData@@QAE@ABV0@@Z$1
	DD	01H
	DD	FLAT:__unwindfunclet$??0CGraphData@@QAE@ABV0@@Z$2
__ehfuncinfo$??0CGraphData@@QAE@ABV0@@Z DD 019930522H
	DD	03H
	DD	FLAT:__unwindtable$??0CGraphData@@QAE@ABV0@@Z
	DD	2 DUP(00H)
	DD	2 DUP(00H)
	DD	00H
	DD	01H
xdata$x	ENDS
;	COMDAT xdata$x
xdata$x	SEGMENT
__unwindtable$??0CGraphData@@QAE@XZ DD 0ffffffffH
	DD	FLAT:__unwindfunclet$??0CGraphData@@QAE@XZ$0
	DD	00H
	DD	FLAT:__unwindfunclet$??0CGraphData@@QAE@XZ$1
__ehfuncinfo$??0CGraphData@@QAE@XZ DD 019930522H
	DD	02H
	DD	FLAT:__unwindtable$??0CGraphData@@QAE@XZ
	DD	2 DUP(00H)
	DD	2 DUP(00H)
	DD	00H
	DD	01H
xdata$x	ENDS
;	COMDAT xdata$x
xdata$x	SEGMENT
__ehfuncinfo$??_ECIndicatorList@@UAEPAXI@Z DD 019930522H
	DD	00H
	DD	00H
	DD	2 DUP(00H)
	DD	2 DUP(00H)
	DD	00H
	DD	05H
xdata$x	ENDS
;	COMDAT xdata$x
xdata$x	SEGMENT
__unwindtable$??HATL@@YA?AV?$CStringT@DV?$StrTraitMFC_DLL@DV?$ChTraitsCRT@D@ATL@@@@@0@ABV10@0@Z DD 0ffffffffH
	DD	FLAT:__unwindfunclet$??HATL@@YA?AV?$CStringT@DV?$StrTraitMFC_DLL@DV?$ChTraitsCRT@D@ATL@@@@@0@ABV10@0@Z$0
__ehfuncinfo$??HATL@@YA?AV?$CStringT@DV?$StrTraitMFC_DLL@DV?$ChTraitsCRT@D@ATL@@@@@0@ABV10@0@Z DD 019930522H
	DD	01H
	DD	FLAT:__unwindtable$??HATL@@YA?AV?$CStringT@DV?$StrTraitMFC_DLL@DV?$ChTraitsCRT@D@ATL@@@@@0@ABV10@0@Z
	DD	2 DUP(00H)
	DD	2 DUP(00H)
	DD	00H
	DD	01H
xdata$x	ENDS
; Function compile flags: /Ogtp
; File C:\Program Files (x86)\Microsoft Visual Studio\2019\Community\VC\Tools\MSVC\14.29.30133\atlmfc\include\afxtempl.h
; File C:\Program Files (x86)\Microsoft Visual Studio\2019\Community\VC\Tools\MSVC\14.29.30133\atlmfc\include\afx.inl
; File C:\Program Files (x86)\Microsoft Visual Studio\2019\Community\VC\Tools\MSVC\14.29.30133\atlmfc\include\afxtempl.h
; File C:\Program Files (x86)\Microsoft Visual Studio\2019\Community\VC\Tools\MSVC\14.29.30133\atlmfc\include\afx.inl
; File C:\Program Files (x86)\Microsoft Visual Studio\2019\Community\VC\Tools\MSVC\14.29.30133\atlmfc\include\afxtempl.h
; File C:\Program Files (x86)\Microsoft Visual Studio\2019\Community\VC\Tools\MSVC\14.29.30133\atlmfc\include\afx.inl
; File C:\Program Files (x86)\Microsoft Visual Studio\2019\Community\VC\Tools\MSVC\14.29.30133\atlmfc\include\afxtempl.h
;	COMDAT ??$SerializeElements@N@@YGXAAVCArchive@@PANH@Z
_TEXT	SEGMENT
_ar$ = 8						; size = 4
_pElements$ = 12					; size = 4
_nCount$ = 16						; size = 4
??$SerializeElements@N@@YGXAAVCArchive@@PANH@Z PROC	; SerializeElements<double>, COMDAT

; 67   : {

  00000	55		 push	 ebp
  00001	8b ec		 mov	 ebp, esp

; 68   : 	ENSURE(nCount == 0 || pElements != NULL);

  00003	8b 4d 0c	 mov	 ecx, DWORD PTR _pElements$[ebp]
  00006	53		 push	 ebx
  00007	56		 push	 esi
  00008	8b 75 10	 mov	 esi, DWORD PTR _nCount$[ebp]
  0000b	57		 push	 edi
  0000c	85 f6		 test	 esi, esi
  0000e	74 08		 je	 SHORT $LN2@SerializeE
  00010	85 c9		 test	 ecx, ecx
  00012	0f 84 89 00 00
	00		 je	 $LN34@SerializeE
$LN2@SerializeE:
; File C:\Program Files (x86)\Microsoft Visual Studio\2019\Community\VC\Tools\MSVC\14.29.30133\atlmfc\include\afx.inl

; 212  : 	{ return (m_nMode & CArchive::load) == 0; }

  00018	8b 55 08	 mov	 edx, DWORD PTR _ar$[ebp]
  0001b	8b 42 18	 mov	 eax, DWORD PTR [edx+24]
  0001e	f7 d0		 not	 eax
  00020	a8 01		 test	 al, 1
; File C:\Program Files (x86)\Microsoft Visual Studio\2019\Community\VC\Tools\MSVC\14.29.30133\atlmfc\include\afxtempl.h

; 73   : 	if (ar.IsStoring())

  00022	74 3c		 je	 SHORT $LN10@SerializeE

; 74   : 	{
; 75   : 		TYPE* pData;
; 76   : 		UINT_PTR nElementsLeft;
; 77   : 
; 78   : 		nElementsLeft = nCount;
; 79   : 		pData = pElements;
; 80   : 		while( nElementsLeft > 0 )

  00024	85 f6		 test	 esi, esi
  00026	74 31		 je	 SHORT $LN8@SerializeE
  00028	0f 1f 84 00 00
	00 00 00	 npad	 8
$LL5@SerializeE:

; 81   : 		{
; 82   : 			UINT nElementsToWrite;
; 83   : 
; 84   : 			nElementsToWrite = UINT(__min(nElementsLeft, INT_MAX/sizeof(TYPE)));

  00030	bb ff ff ff 0f	 mov	 ebx, 268435455		; 0fffffffH
  00035	3b f3		 cmp	 esi, ebx
  00037	0f 42 de	 cmovb	 ebx, esi

; 85   : 			ar.Write(pData, nElementsToWrite*sizeof(TYPE));

  0003a	8d 3c dd 00 00
	00 00		 lea	 edi, DWORD PTR [ebx*8]
  00041	57		 push	 edi
  00042	51		 push	 ecx
  00043	8b ca		 mov	 ecx, edx
  00045	e8 00 00 00 00	 call	 ?Write@CArchive@@QAEXPBXI@Z ; CArchive::Write

; 86   : 			nElementsLeft -= nElementsToWrite;
; 87   : 			pData += nElementsToWrite;

  0004a	8b 4d 0c	 mov	 ecx, DWORD PTR _pElements$[ebp]
  0004d	8b 55 08	 mov	 edx, DWORD PTR _ar$[ebp]
  00050	03 cf		 add	 ecx, edi
  00052	89 4d 0c	 mov	 DWORD PTR _pElements$[ebp], ecx
  00055	2b f3		 sub	 esi, ebx
  00057	75 d7		 jne	 SHORT $LL5@SerializeE
$LN8@SerializeE:
  00059	5f		 pop	 edi

; 105  : 		}
; 106  : 	}
; 107  : }

  0005a	5e		 pop	 esi
  0005b	5b		 pop	 ebx
  0005c	5d		 pop	 ebp
  0005d	c2 0c 00	 ret	 12			; 0000000cH
$LN10@SerializeE:

; 97   : 		while( nElementsLeft > 0 )

  00060	85 f6		 test	 esi, esi
  00062	74 f5		 je	 SHORT $LN8@SerializeE
$LL7@SerializeE:

; 98   : 		{
; 99   : 			UINT nElementsToRead;
; 100  : 
; 101  : 			nElementsToRead = UINT(__min(nElementsLeft, INT_MAX/sizeof(TYPE)));

  00064	bf ff ff ff 0f	 mov	 edi, 268435455		; 0fffffffH
  00069	3b f7		 cmp	 esi, edi
  0006b	0f 42 fe	 cmovb	 edi, esi

; 102  : 			ar.EnsureRead(pData, nElementsToRead*sizeof(TYPE));

  0006e	8d 1c fd 00 00
	00 00		 lea	 ebx, DWORD PTR [edi*8]
; File C:\Program Files (x86)\Microsoft Visual Studio\2019\Community\VC\Tools\MSVC\14.29.30133\atlmfc\include\afx.inl

; 399  : 	UINT nRead=Read(lpBuf, nCount);

  00075	53		 push	 ebx
  00076	51		 push	 ecx
  00077	8b ca		 mov	 ecx, edx
  00079	e8 00 00 00 00	 call	 ?Read@CArchive@@QAEIPAXI@Z ; CArchive::Read

; 400  : 	if(nRead!=nCount)

  0007e	3b c3		 cmp	 eax, ebx
  00080	75 16		 jne	 SHORT $LN23@SerializeE
; File C:\Program Files (x86)\Microsoft Visual Studio\2019\Community\VC\Tools\MSVC\14.29.30133\atlmfc\include\afxtempl.h

; 97   : 		while( nElementsLeft > 0 )

  00082	8b 4d 0c	 mov	 ecx, DWORD PTR _pElements$[ebp]
  00085	8b 55 08	 mov	 edx, DWORD PTR _ar$[ebp]

; 103  : 			nElementsLeft -= nElementsToRead;
; 104  : 			pData += nElementsToRead;

  00088	03 cb		 add	 ecx, ebx
  0008a	89 4d 0c	 mov	 DWORD PTR _pElements$[ebp], ecx
  0008d	2b f7		 sub	 esi, edi
  0008f	75 d3		 jne	 SHORT $LL7@SerializeE

; 105  : 		}
; 106  : 	}
; 107  : }

  00091	5f		 pop	 edi
  00092	5e		 pop	 esi
  00093	5b		 pop	 ebx
  00094	5d		 pop	 ebp
  00095	c2 0c 00	 ret	 12			; 0000000cH
$LN23@SerializeE:
; File C:\Program Files (x86)\Microsoft Visual Studio\2019\Community\VC\Tools\MSVC\14.29.30133\atlmfc\include\afx.inl

; 402  : 		AfxThrowArchiveException(CArchiveException::endOfFile);

  00098	6a 00		 push	 0
  0009a	6a 03		 push	 3
  0009c	e8 00 00 00 00	 call	 ?AfxThrowArchiveException@@YGXHPBD@Z ; AfxThrowArchiveException
$LN34@SerializeE:
; File C:\Program Files (x86)\Microsoft Visual Studio\2019\Community\VC\Tools\MSVC\14.29.30133\atlmfc\include\afxtempl.h

; 68   : 	ENSURE(nCount == 0 || pElements != NULL);

  000a1	e8 00 00 00 00	 call	 ?AfxThrowInvalidArgException@@YGXXZ ; AfxThrowInvalidArgException
$LN32@SerializeE:
  000a6	cc		 int	 3
??$SerializeElements@N@@YGXAAVCArchive@@PANH@Z ENDP	; SerializeElements<double>
_TEXT	ENDS
; Function compile flags: /Ogtp
; File C:\Program Files (x86)\Microsoft Visual Studio\2019\Community\VC\Tools\MSVC\14.29.30133\atlmfc\include\afx.inl
;	COMDAT ??_G?$CList@V?$CStringT@DV?$StrTraitMFC_DLL@DV?$ChTraitsCRT@D@ATL@@@@@ATL@@V12@@@UAEPAXI@Z
_TEXT	SEGMENT
___flags$ = 8						; size = 4
??_G?$CList@V?$CStringT@DV?$StrTraitMFC_DLL@DV?$ChTraitsCRT@D@ATL@@@@@ATL@@V12@@@UAEPAXI@Z PROC ; CList<ATL::CStringT<char,StrTraitMFC_DLL<char,ATL::ChTraitsCRT<char> > >,ATL::CStringT<char,StrTraitMFC_DLL<char,ATL::ChTraitsCRT<char> > > >::`scalar deleting destructor', COMDAT
; _this$ = ecx
  00000	55		 push	 ebp
  00001	8b ec		 mov	 ebp, esp
  00003	56		 push	 esi
  00004	8b f1		 mov	 esi, ecx
  00006	e8 00 00 00 00	 call	 ??1?$CList@V?$CStringT@DV?$StrTraitMFC_DLL@DV?$ChTraitsCRT@D@ATL@@@@@ATL@@V12@@@UAE@XZ ; CList<ATL::CStringT<char,StrTraitMFC_DLL<char,ATL::ChTraitsCRT<char> > >,ATL::CStringT<char,StrTraitMFC_DLL<char,ATL::ChTraitsCRT<char> > > >::~CList<ATL::CStringT<char,StrTraitMFC_DLL<char,ATL::ChTraitsCRT<char> > >,ATL::CStringT<char,StrTraitMFC_DLL<char,ATL::ChTraitsCRT<char> > > >
  0000b	8b 45 08	 mov	 eax, DWORD PTR ___flags$[ebp]
  0000e	a8 01		 test	 al, 1
  00010	74 1f		 je	 SHORT $LN9@scalar
  00012	a8 04		 test	 al, 4
  00014	75 10		 jne	 SHORT $LN3@scalar

; 112  : 	{ ::operator delete(p); }

  00016	56		 push	 esi
  00017	e8 00 00 00 00	 call	 ??3@YAXPAX@Z		; operator delete
  0001c	83 c4 04	 add	 esp, 4
  0001f	8b c6		 mov	 eax, esi
  00021	5e		 pop	 esi
  00022	5d		 pop	 ebp
  00023	c2 04 00	 ret	 4
$LN3@scalar:
  00026	6a 1c		 push	 28			; 0000001cH
  00028	56		 push	 esi
  00029	e8 00 00 00 00	 call	 ?__global_delete@@YAXPAXI@Z ; __global_delete
  0002e	83 c4 08	 add	 esp, 8
$LN9@scalar:
  00031	8b c6		 mov	 eax, esi
  00033	5e		 pop	 esi
  00034	5d		 pop	 ebp
  00035	c2 04 00	 ret	 4
??_G?$CList@V?$CStringT@DV?$StrTraitMFC_DLL@DV?$ChTraitsCRT@D@ATL@@@@@ATL@@V12@@@UAEPAXI@Z ENDP ; CList<ATL::CStringT<char,StrTraitMFC_DLL<char,ATL::ChTraitsCRT<char> > >,ATL::CStringT<char,StrTraitMFC_DLL<char,ATL::ChTraitsCRT<char> > > >::`scalar deleting destructor'
_TEXT	ENDS
; Function compile flags: /Ogtp
; File C:\Program Files (x86)\Microsoft Visual Studio\2019\Community\VC\Tools\MSVC\14.29.30133\atlmfc\include\afxtempl.h
; File C:\Program Files (x86)\Microsoft Visual Studio\2019\Community\VC\Tools\MSVC\14.29.30133\atlmfc\include\afx.inl
; File C:\Program Files (x86)\Microsoft Visual Studio\2019\Community\VC\Tools\MSVC\14.29.30133\atlmfc\include\afxtempl.h
; File C:\Program Files (x86)\Microsoft Visual Studio\2019\Community\VC\Tools\MSVC\14.29.30133\atlmfc\include\afx.inl
; File C:\Program Files (x86)\Microsoft Visual Studio\2019\Community\VC\Tools\MSVC\14.29.30133\atlmfc\include\afxtempl.h
;	COMDAT ?Serialize@?$CList@V?$CStringT@DV?$StrTraitMFC_DLL@DV?$ChTraitsCRT@D@ATL@@@@@ATL@@V12@@@UAEXAAVCArchive@@@Z
_TEXT	SEGMENT
_nNewCount$1$ = -24					; size = 4
$T2 = -20						; size = 4
_newData$3 = -16					; size = 4
__$EHRec$ = -12						; size = 12
_ar$ = 8						; size = 4
?Serialize@?$CList@V?$CStringT@DV?$StrTraitMFC_DLL@DV?$ChTraitsCRT@D@ATL@@@@@ATL@@V12@@@UAEXAAVCArchive@@@Z PROC ; CList<ATL::CStringT<char,StrTraitMFC_DLL<char,ATL::ChTraitsCRT<char> > >,ATL::CStringT<char,StrTraitMFC_DLL<char,ATL::ChTraitsCRT<char> > > >::Serialize, COMDAT
; _this$ = ecx

; 1169 : {

  00000	55		 push	 ebp
  00001	8b ec		 mov	 ebp, esp
  00003	6a ff		 push	 -1
  00005	68 00 00 00 00	 push	 __ehhandler$?Serialize@?$CList@V?$CStringT@DV?$StrTraitMFC_DLL@DV?$ChTraitsCRT@D@ATL@@@@@ATL@@V12@@@UAEXAAVCArchive@@@Z
  0000a	64 a1 00 00 00
	00		 mov	 eax, DWORD PTR fs:0
  00010	50		 push	 eax
  00011	83 ec 0c	 sub	 esp, 12			; 0000000cH
  00014	53		 push	 ebx
  00015	56		 push	 esi
  00016	57		 push	 edi
  00017	a1 00 00 00 00	 mov	 eax, DWORD PTR ___security_cookie
  0001c	33 c5		 xor	 eax, ebp
  0001e	50		 push	 eax
  0001f	8d 45 f4	 lea	 eax, DWORD PTR __$EHRec$[ebp]
  00022	64 a3 00 00 00
	00		 mov	 DWORD PTR fs:0, eax
  00028	8b f9		 mov	 edi, ecx
; File C:\Program Files (x86)\Microsoft Visual Studio\2019\Community\VC\Tools\MSVC\14.29.30133\atlmfc\include\afx.inl

; 212  : 	{ return (m_nMode & CArchive::load) == 0; }

  0002a	8b 5d 08	 mov	 ebx, DWORD PTR _ar$[ebp]
; File C:\Program Files (x86)\Microsoft Visual Studio\2019\Community\VC\Tools\MSVC\14.29.30133\atlmfc\include\afxtempl.h

; 1174 : 	if (ar.IsStoring())

  0002d	8b cb		 mov	 ecx, ebx
; File C:\Program Files (x86)\Microsoft Visual Studio\2019\Community\VC\Tools\MSVC\14.29.30133\atlmfc\include\afx.inl

; 212  : 	{ return (m_nMode & CArchive::load) == 0; }

  0002f	8b 43 18	 mov	 eax, DWORD PTR [ebx+24]
  00032	f7 d0		 not	 eax
  00034	a8 01		 test	 al, 1
; File C:\Program Files (x86)\Microsoft Visual Studio\2019\Community\VC\Tools\MSVC\14.29.30133\atlmfc\include\afxtempl.h

; 1174 : 	if (ar.IsStoring())

  00036	74 35		 je	 SHORT $LN7@Serialize

; 1175 : 	{
; 1176 : 		ar.WriteCount(m_nCount);

  00038	ff 77 0c	 push	 DWORD PTR [edi+12]
  0003b	e8 00 00 00 00	 call	 ?WriteCount@CArchive@@QAEXK@Z ; CArchive::WriteCount

; 1177 : 		for (CNode* pNode = m_pNodeHead; pNode != NULL; pNode = pNode->pNext)

  00040	8b 77 04	 mov	 esi, DWORD PTR [edi+4]
  00043	85 f6		 test	 esi, esi
  00045	74 12		 je	 SHORT $LN48@Serialize
$LL4@Serialize:

; 1178 : 		{
; 1179 : 			ASSERT(AfxIsValidAddress(pNode, sizeof(CNode)));
; 1180 : 			TYPE* pData;
; 1181 : 			/*
; 1182 : 			 * in some cases the & operator might be overloaded, and we cannot use it to obtain
; 1183 : 			 * the address of a given object.  We then use the following trick to get the address
; 1184 : 			 */
; 1185 : 			pData = reinterpret_cast< TYPE* >( &reinterpret_cast< int& >( static_cast< TYPE& >( pNode->data ) ) );
; 1186 : 			SerializeElements<TYPE>(ar, pData, 1);

  00047	6a 01		 push	 1
  00049	8d 46 08	 lea	 eax, DWORD PTR [esi+8]
  0004c	50		 push	 eax
  0004d	53		 push	 ebx
  0004e	e8 00 00 00 00	 call	 ??$SerializeElements@V?$CStringT@DV?$StrTraitMFC_DLL@DV?$ChTraitsCRT@D@ATL@@@@@ATL@@@@YGXAAVCArchive@@PAV?$CStringT@DV?$StrTraitMFC_DLL@DV?$ChTraitsCRT@D@ATL@@@@@ATL@@H@Z ; SerializeElements<ATL::CStringT<char,StrTraitMFC_DLL<char,ATL::ChTraitsCRT<char> > > >
  00053	8b 36		 mov	 esi, DWORD PTR [esi]
  00055	85 f6		 test	 esi, esi
  00057	75 ee		 jne	 SHORT $LL4@Serialize
$LN48@Serialize:

; 1198 : 	}
; 1199 : }

  00059	8b 4d f4	 mov	 ecx, DWORD PTR __$EHRec$[ebp]
  0005c	64 89 0d 00 00
	00 00		 mov	 DWORD PTR fs:0, ecx
  00063	59		 pop	 ecx
  00064	5f		 pop	 edi
  00065	5e		 pop	 esi
  00066	5b		 pop	 ebx
  00067	8b e5		 mov	 esp, ebp
  00069	5d		 pop	 ebp
  0006a	c2 04 00	 ret	 4
$LN7@Serialize:

; 1187 : 		}
; 1188 : 	}
; 1189 : 	else
; 1190 : 	{
; 1191 : 		DWORD_PTR nNewCount = ar.ReadCount();

  0006d	e8 00 00 00 00	 call	 ?ReadCount@CArchive@@QAEKXZ ; CArchive::ReadCount

; 1192 : 		while (nNewCount--)

  00072	85 c0		 test	 eax, eax
  00074	74 e3		 je	 SHORT $LN48@Serialize
  00076	66 66 0f 1f 84
	00 00 00 00 00	 npad	 10
$LL5@Serialize:

; 1193 : 		{
; 1194 : 			TYPE newData[1];

  00080	ff 35 00 00 00
	00		 push	 DWORD PTR __imp_??1?$CStringT@DV?$StrTraitMFC_DLL@DV?$ChTraitsCRT@D@ATL@@@@@ATL@@QAE@XZ
  00086	48		 dec	 eax
  00087	ff 35 00 00 00
	00		 push	 DWORD PTR __imp_??0?$CStringT@DV?$StrTraitMFC_DLL@DV?$ChTraitsCRT@D@ATL@@@@@ATL@@QAE@XZ
  0008d	89 45 e8	 mov	 DWORD PTR _nNewCount$1$[ebp], eax
  00090	8d 45 f0	 lea	 eax, DWORD PTR _newData$3[ebp]
  00093	6a 01		 push	 1
  00095	6a 04		 push	 4
  00097	50		 push	 eax
  00098	e8 00 00 00 00	 call	 ??_L@YGXPAXIIP6EX0@Z1@Z

; 1195 : 			SerializeElements<TYPE>(ar, newData, 1);

  0009d	6a 01		 push	 1
  0009f	8d 45 f0	 lea	 eax, DWORD PTR _newData$3[ebp]
  000a2	c7 45 fc 00 00
	00 00		 mov	 DWORD PTR __$EHRec$[ebp+8], 0
  000a9	50		 push	 eax
  000aa	53		 push	 ebx
  000ab	e8 00 00 00 00	 call	 ??$SerializeElements@V?$CStringT@DV?$StrTraitMFC_DLL@DV?$ChTraitsCRT@D@ATL@@@@@ATL@@@@YGXAAVCArchive@@PAV?$CStringT@DV?$StrTraitMFC_DLL@DV?$ChTraitsCRT@D@ATL@@@@@ATL@@H@Z ; SerializeElements<ATL::CStringT<char,StrTraitMFC_DLL<char,ATL::ChTraitsCRT<char> > > >

; 1196 : 			AddTail(newData[0]);

  000b0	8d 45 f0	 lea	 eax, DWORD PTR _newData$3[ebp]
  000b3	50		 push	 eax
  000b4	8d 4d ec	 lea	 ecx, DWORD PTR $T2[ebp]
  000b7	ff 15 00 00 00
	00		 call	 DWORD PTR __imp_??0?$CStringT@DV?$StrTraitMFC_DLL@DV?$ChTraitsCRT@D@ATL@@@@@ATL@@QAE@ABV01@@Z

; 902  : 	if (m_pNodeFree == NULL)

  000bd	8b 5f 10	 mov	 ebx, DWORD PTR [edi+16]

; 968  : 	CNode* pNewNode = NewNode(m_pNodeTail, NULL);

  000c0	8b 77 08	 mov	 esi, DWORD PTR [edi+8]
  000c3	c6 45 fc 01	 mov	 BYTE PTR __$EHRec$[ebp+8], 1

; 902  : 	if (m_pNodeFree == NULL)

  000c7	85 db		 test	 ebx, ebx
  000c9	75 40		 jne	 SHORT $LN46@Serialize

; 903  : 	{
; 904  : 		// add another block
; 905  : 		CPlex* pNewBlock = CPlex::Create(m_pBlocks, m_nBlockSize,

  000cb	6a 0c		 push	 12			; 0000000cH
  000cd	ff 77 18	 push	 DWORD PTR [edi+24]
  000d0	8d 47 14	 lea	 eax, DWORD PTR [edi+20]
  000d3	50		 push	 eax
  000d4	e8 00 00 00 00	 call	 ?Create@CPlex@@SGPAU1@AAPAU1@II@Z ; CPlex::Create

; 906  : 				 sizeof(CNode));
; 907  : 
; 908  : 		// chain them into free list
; 909  : 		CNode* pNode = (CNode*) pNewBlock->data();
; 910  : 		// free in reverse order to make it easier to debug
; 911  : 		pNode += m_nBlockSize - 1;

  000d9	8b 57 18	 mov	 edx, DWORD PTR [edi+24]
  000dc	8d 0c 52	 lea	 ecx, DWORD PTR [edx+edx*2]
  000df	8d 04 88	 lea	 eax, DWORD PTR [eax+ecx*4]
  000e2	83 c0 fc	 add	 eax, -4			; fffffffcH

; 912  : 		for (INT_PTR i = m_nBlockSize-1; i >= 0; i--, pNode--)

  000e5	83 c2 ff	 add	 edx, -1
  000e8	78 1a		 js	 SHORT $LN47@Serialize
  000ea	66 0f 1f 44 00
	00		 npad	 6
$LL22@Serialize:

; 913  : 		{
; 914  : 			pNode->pNext = m_pNodeFree;

  000f0	8b 4f 10	 mov	 ecx, DWORD PTR [edi+16]
  000f3	8b d8		 mov	 ebx, eax
  000f5	89 08		 mov	 DWORD PTR [eax], ecx

; 915  : 			m_pNodeFree = pNode;

  000f7	89 47 10	 mov	 DWORD PTR [edi+16], eax
  000fa	83 e8 0c	 sub	 eax, 12			; 0000000cH
  000fd	83 ea 01	 sub	 edx, 1
  00100	79 ee		 jns	 SHORT $LL22@Serialize
  00102	eb 03		 jmp	 SHORT $LN25@Serialize
$LN47@Serialize:
  00104	8b 5f 10	 mov	 ebx, DWORD PTR [edi+16]
$LN25@Serialize:

; 916  : 		}
; 917  : 	}
; 918  : 	ENSURE(m_pNodeFree != NULL);  // we must have something

  00107	85 db		 test	 ebx, ebx
  00109	74 6e		 je	 SHORT $LN34@Serialize
$LN46@Serialize:

; 919  : 
; 920  : 	CList::CNode* pNode = m_pNodeFree;
; 921  : 	m_pNodeFree = m_pNodeFree->pNext;

  0010b	8b 03		 mov	 eax, DWORD PTR [ebx]

; 922  : 	pNode->pPrev = pPrev;
; 923  : 	pNode->pNext = pNext;
; 924  : 	m_nCount++;
; 925  : 	ASSERT(m_nCount > 0);  // make sure we don't overflow
; 926  : 
; 927  : #pragma push_macro("new")
; 928  : #undef new
; 929  : 	::new( (void*)( &pNode->data ) ) TYPE;

  0010d	8d 4b 08	 lea	 ecx, DWORD PTR [ebx+8]
  00110	89 47 10	 mov	 DWORD PTR [edi+16], eax
  00113	89 73 04	 mov	 DWORD PTR [ebx+4], esi
  00116	c7 03 00 00 00
	00		 mov	 DWORD PTR [ebx], 0
  0011c	ff 47 0c	 inc	 DWORD PTR [edi+12]
  0011f	ff 15 00 00 00
	00		 call	 DWORD PTR __imp_??0?$CStringT@DV?$StrTraitMFC_DLL@DV?$ChTraitsCRT@D@ATL@@@@@ATL@@QAE@XZ

; 969  : 	pNewNode->data = newElement;

  00125	8d 45 ec	 lea	 eax, DWORD PTR $T2[ebp]
  00128	50		 push	 eax
  00129	8d 4b 08	 lea	 ecx, DWORD PTR [ebx+8]
  0012c	ff 15 00 00 00
	00		 call	 DWORD PTR __imp_??4?$CStringT@DV?$StrTraitMFC_DLL@DV?$ChTraitsCRT@D@ATL@@@@@ATL@@QAEAAV01@ABV01@@Z

; 970  : 	if (m_pNodeTail != NULL)

  00132	8b 47 08	 mov	 eax, DWORD PTR [edi+8]
  00135	85 c0		 test	 eax, eax
  00137	74 04		 je	 SHORT $LN15@Serialize

; 971  : 		m_pNodeTail->pNext = pNewNode;

  00139	89 18		 mov	 DWORD PTR [eax], ebx
  0013b	eb 03		 jmp	 SHORT $LN16@Serialize
$LN15@Serialize:

; 972  : 	else
; 973  : 		m_pNodeHead = pNewNode;

  0013d	89 5f 04	 mov	 DWORD PTR [edi+4], ebx
$LN16@Serialize:

; 974  : 	m_pNodeTail = pNewNode;
; 975  : 	return (POSITION) pNewNode;

  00140	8d 4d ec	 lea	 ecx, DWORD PTR $T2[ebp]
  00143	89 5f 08	 mov	 DWORD PTR [edi+8], ebx
  00146	ff 15 00 00 00
	00		 call	 DWORD PTR __imp_??1?$CStringT@DV?$StrTraitMFC_DLL@DV?$ChTraitsCRT@D@ATL@@@@@ATL@@QAE@XZ

; 1197 : 		}

  0014c	ff 35 00 00 00
	00		 push	 DWORD PTR __imp_??1?$CStringT@DV?$StrTraitMFC_DLL@DV?$ChTraitsCRT@D@ATL@@@@@ATL@@QAE@XZ
  00152	8d 45 f0	 lea	 eax, DWORD PTR _newData$3[ebp]
  00155	c7 45 fc ff ff
	ff ff		 mov	 DWORD PTR __$EHRec$[ebp+8], -1
  0015c	6a 01		 push	 1
  0015e	6a 04		 push	 4
  00160	50		 push	 eax
  00161	e8 00 00 00 00	 call	 ??_M@YGXPAXIIP6EX0@Z@Z
  00166	8b 45 e8	 mov	 eax, DWORD PTR _nNewCount$1$[ebp]
  00169	85 c0		 test	 eax, eax
  0016b	0f 84 e8 fe ff
	ff		 je	 $LN48@Serialize

; 1192 : 		while (nNewCount--)

  00171	8b 5d 08	 mov	 ebx, DWORD PTR _ar$[ebp]
  00174	e9 07 ff ff ff	 jmp	 $LL5@Serialize
$LN34@Serialize:

; 918  : 	ENSURE(m_pNodeFree != NULL);  // we must have something

  00179	e8 00 00 00 00	 call	 ?AfxThrowInvalidArgException@@YGXXZ ; AfxThrowInvalidArgException
$LN50@Serialize:
  0017e	cc		 int	 3
_TEXT	ENDS
;	COMDAT text$x
text$x	SEGMENT
__unwindfunclet$?Serialize@?$CList@V?$CStringT@DV?$StrTraitMFC_DLL@DV?$ChTraitsCRT@D@ATL@@@@@ATL@@V12@@@UAEXAAVCArchive@@@Z$0:
  00000	a1 00 00 00 00	 mov	 eax, DWORD PTR __imp_??1?$CStringT@DV?$StrTraitMFC_DLL@DV?$ChTraitsCRT@D@ATL@@@@@ATL@@QAE@XZ
  00005	50		 push	 eax
  00006	6a 01		 push	 1
  00008	6a 04		 push	 4
  0000a	8d 45 f0	 lea	 eax, DWORD PTR _newData$3[ebp]
  0000d	50		 push	 eax
  0000e	e8 00 00 00 00	 call	 ??_M@YGXPAXIIP6EX0@Z@Z
  00013	c3		 ret	 0
__unwindfunclet$?Serialize@?$CList@V?$CStringT@DV?$StrTraitMFC_DLL@DV?$ChTraitsCRT@D@ATL@@@@@ATL@@V12@@@UAEXAAVCArchive@@@Z$2:
  00014	8d 4d ec	 lea	 ecx, DWORD PTR $T2[ebp]
  00017	ff 25 00 00 00
	00		 jmp	 DWORD PTR __imp_??1?$CStringT@DV?$StrTraitMFC_DLL@DV?$ChTraitsCRT@D@ATL@@@@@ATL@@QAE@XZ
  0001d	cc		 int	 3
  0001e	cc		 int	 3
  0001f	cc		 int	 3
  00020	cc		 int	 3
  00021	cc		 int	 3
__ehhandler$?Serialize@?$CList@V?$CStringT@DV?$StrTraitMFC_DLL@DV?$ChTraitsCRT@D@ATL@@@@@ATL@@V12@@@UAEXAAVCArchive@@@Z:
  00022	90		 npad	 1
  00023	90		 npad	 1
  00024	8b 54 24 08	 mov	 edx, DWORD PTR [esp+8]
  00028	8d 42 0c	 lea	 eax, DWORD PTR [edx+12]
  0002b	8b 4a e4	 mov	 ecx, DWORD PTR [edx-28]
  0002e	33 c8		 xor	 ecx, eax
  00030	e8 00 00 00 00	 call	 @__security_check_cookie@4
  00035	b8 00 00 00 00	 mov	 eax, OFFSET __ehfuncinfo$?Serialize@?$CList@V?$CStringT@DV?$StrTraitMFC_DLL@DV?$ChTraitsCRT@D@ATL@@@@@ATL@@V12@@@UAEXAAVCArchive@@@Z
  0003a	e9 00 00 00 00	 jmp	 ___CxxFrameHandler3
text$x	ENDS
?Serialize@?$CList@V?$CStringT@DV?$StrTraitMFC_DLL@DV?$ChTraitsCRT@D@ATL@@@@@ATL@@V12@@@UAEXAAVCArchive@@@Z ENDP ; CList<ATL::CStringT<char,StrTraitMFC_DLL<char,ATL::ChTraitsCRT<char> > >,ATL::CStringT<char,StrTraitMFC_DLL<char,ATL::ChTraitsCRT<char> > > >::Serialize
; Function compile flags: /Ogtp
; File C:\Program Files (x86)\Microsoft Visual Studio\2019\Community\VC\Tools\MSVC\14.29.30133\atlmfc\include\afxtempl.h
;	COMDAT ??1?$CList@V?$CStringT@DV?$StrTraitMFC_DLL@DV?$ChTraitsCRT@D@ATL@@@@@ATL@@V12@@@UAE@XZ
_TEXT	SEGMENT
__$EHRec$ = -12						; size = 12
??1?$CList@V?$CStringT@DV?$StrTraitMFC_DLL@DV?$ChTraitsCRT@D@ATL@@@@@ATL@@V12@@@UAE@XZ PROC ; CList<ATL::CStringT<char,StrTraitMFC_DLL<char,ATL::ChTraitsCRT<char> > >,ATL::CStringT<char,StrTraitMFC_DLL<char,ATL::ChTraitsCRT<char> > > >::~CList<ATL::CStringT<char,StrTraitMFC_DLL<char,ATL::ChTraitsCRT<char> > >,ATL::CStringT<char,StrTraitMFC_DLL<char,ATL::ChTraitsCRT<char> > > >, COMDAT
; _this$ = ecx

; 878  : {

  00000	55		 push	 ebp
  00001	8b ec		 mov	 ebp, esp
  00003	6a ff		 push	 -1
  00005	68 00 00 00 00	 push	 __ehhandler$??1?$CList@V?$CStringT@DV?$StrTraitMFC_DLL@DV?$ChTraitsCRT@D@ATL@@@@@ATL@@V12@@@UAE@XZ
  0000a	64 a1 00 00 00
	00		 mov	 eax, DWORD PTR fs:0
  00010	50		 push	 eax
  00011	56		 push	 esi
  00012	57		 push	 edi
  00013	a1 00 00 00 00	 mov	 eax, DWORD PTR ___security_cookie
  00018	33 c5		 xor	 eax, ebp
  0001a	50		 push	 eax
  0001b	8d 45 f4	 lea	 eax, DWORD PTR __$EHRec$[ebp]
  0001e	64 a3 00 00 00
	00		 mov	 DWORD PTR fs:0, eax
  00024	8b f9		 mov	 edi, ecx

; 867  : 	for (pNode = m_pNodeHead; pNode != NULL; pNode = pNode->pNext)

  00026	8b 77 04	 mov	 esi, DWORD PTR [edi+4]

; 878  : {

  00029	c7 07 00 00 00
	00		 mov	 DWORD PTR [edi], OFFSET ??_7?$CList@V?$CStringT@DV?$StrTraitMFC_DLL@DV?$ChTraitsCRT@D@ATL@@@@@ATL@@V12@@@6B@

; 867  : 	for (pNode = m_pNodeHead; pNode != NULL; pNode = pNode->pNext)

  0002f	85 f6		 test	 esi, esi
  00031	74 0f		 je	 SHORT $LN5@CList
$LL6@CList:

; 868  : 		pNode->data.~TYPE();

  00033	8d 4e 08	 lea	 ecx, DWORD PTR [esi+8]
  00036	ff 15 00 00 00
	00		 call	 DWORD PTR __imp_??1?$CStringT@DV?$StrTraitMFC_DLL@DV?$ChTraitsCRT@D@ATL@@@@@ATL@@QAE@XZ

; 867  : 	for (pNode = m_pNodeHead; pNode != NULL; pNode = pNode->pNext)

  0003c	8b 36		 mov	 esi, DWORD PTR [esi]
  0003e	85 f6		 test	 esi, esi
  00040	75 f1		 jne	 SHORT $LL6@CList
$LN5@CList:

; 869  : 
; 870  : 	m_nCount = 0;
; 871  : 	m_pNodeHead = m_pNodeTail = m_pNodeFree = NULL;
; 872  : 	m_pBlocks->FreeDataChain();

  00042	8b 4f 14	 mov	 ecx, DWORD PTR [edi+20]
  00045	c7 47 0c 00 00
	00 00		 mov	 DWORD PTR [edi+12], 0
  0004c	c7 47 10 00 00
	00 00		 mov	 DWORD PTR [edi+16], 0
  00053	c7 47 08 00 00
	00 00		 mov	 DWORD PTR [edi+8], 0
  0005a	c7 47 04 00 00
	00 00		 mov	 DWORD PTR [edi+4], 0
  00061	e8 00 00 00 00	 call	 ?FreeDataChain@CPlex@@QAEXXZ ; CPlex::FreeDataChain

; 873  : 	m_pBlocks = NULL;

  00066	c7 47 14 00 00
	00 00		 mov	 DWORD PTR [edi+20], 0

; 879  : 	RemoveAll();
; 880  : 	ASSERT(m_nCount == 0);
; 881  : }

  0006d	8b 4d f4	 mov	 ecx, DWORD PTR __$EHRec$[ebp]
  00070	64 89 0d 00 00
	00 00		 mov	 DWORD PTR fs:0, ecx
  00077	59		 pop	 ecx
  00078	5f		 pop	 edi
  00079	5e		 pop	 esi
  0007a	8b e5		 mov	 esp, ebp
  0007c	5d		 pop	 ebp
  0007d	c3		 ret	 0
  0007e	cc		 int	 3
  0007f	cc		 int	 3
  00080	cc		 int	 3
  00081	cc		 int	 3
  00082	cc		 int	 3
_TEXT	ENDS
;	COMDAT text$x
text$x	SEGMENT
__ehhandler$??1?$CList@V?$CStringT@DV?$StrTraitMFC_DLL@DV?$ChTraitsCRT@D@ATL@@@@@ATL@@V12@@@UAE@XZ:
  00000	90		 npad	 1
  00001	90		 npad	 1
  00002	8b 54 24 08	 mov	 edx, DWORD PTR [esp+8]
  00006	8d 42 0c	 lea	 eax, DWORD PTR [edx+12]
  00009	8b 4a f4	 mov	 ecx, DWORD PTR [edx-12]
  0000c	33 c8		 xor	 ecx, eax
  0000e	e8 00 00 00 00	 call	 @__security_check_cookie@4
  00013	b8 00 00 00 00	 mov	 eax, OFFSET __ehfuncinfo$??1?$CList@V?$CStringT@DV?$StrTraitMFC_DLL@DV?$ChTraitsCRT@D@ATL@@@@@ATL@@V12@@@UAE@XZ
  00018	e9 00 00 00 00	 jmp	 ___CxxFrameHandler3
text$x	ENDS
??1?$CList@V?$CStringT@DV?$StrTraitMFC_DLL@DV?$ChTraitsCRT@D@ATL@@@@@ATL@@V12@@@UAE@XZ ENDP ; CList<ATL::CStringT<char,StrTraitMFC_DLL<char,ATL::ChTraitsCRT<char> > >,ATL::CStringT<char,StrTraitMFC_DLL<char,ATL::ChTraitsCRT<char> > > >::~CList<ATL::CStringT<char,StrTraitMFC_DLL<char,ATL::ChTraitsCRT<char> > >,ATL::CStringT<char,StrTraitMFC_DLL<char,ATL::ChTraitsCRT<char> > > >
; Function compile flags: /Ogtp
; File C:\Program Files (x86)\Microsoft Visual Studio\2019\Community\VC\Tools\MSVC\14.29.30133\atlmfc\include\afxtempl.h
;	COMDAT ?NewNode@?$CList@V?$CStringT@DV?$StrTraitMFC_DLL@DV?$ChTraitsCRT@D@ATL@@@@@ATL@@V12@@@IAEPAUCNode@1@PAU21@0@Z
_TEXT	SEGMENT
_pPrev$ = 8						; size = 4
_pNext$ = 12						; size = 4
?NewNode@?$CList@V?$CStringT@DV?$StrTraitMFC_DLL@DV?$ChTraitsCRT@D@ATL@@@@@ATL@@V12@@@IAEPAUCNode@1@PAU21@0@Z PROC ; CList<ATL::CStringT<char,StrTraitMFC_DLL<char,ATL::ChTraitsCRT<char> > >,ATL::CStringT<char,StrTraitMFC_DLL<char,ATL::ChTraitsCRT<char> > > >::NewNode, COMDAT
; _this$ = ecx

; 901  : {

  00000	55		 push	 ebp
  00001	8b ec		 mov	 ebp, esp
  00003	56		 push	 esi
  00004	8b f1		 mov	 esi, ecx
  00006	57		 push	 edi

; 902  : 	if (m_pNodeFree == NULL)

  00007	83 7e 10 00	 cmp	 DWORD PTR [esi+16], 0
  0000b	75 33		 jne	 SHORT $LN7@NewNode

; 903  : 	{
; 904  : 		// add another block
; 905  : 		CPlex* pNewBlock = CPlex::Create(m_pBlocks, m_nBlockSize,

  0000d	6a 0c		 push	 12			; 0000000cH
  0000f	ff 76 18	 push	 DWORD PTR [esi+24]
  00012	8d 46 14	 lea	 eax, DWORD PTR [esi+20]
  00015	50		 push	 eax
  00016	e8 00 00 00 00	 call	 ?Create@CPlex@@SGPAU1@AAPAU1@II@Z ; CPlex::Create

; 906  : 				 sizeof(CNode));
; 907  : 
; 908  : 		// chain them into free list
; 909  : 		CNode* pNode = (CNode*) pNewBlock->data();
; 910  : 		// free in reverse order to make it easier to debug
; 911  : 		pNode += m_nBlockSize - 1;

  0001b	8b 56 18	 mov	 edx, DWORD PTR [esi+24]
  0001e	83 c0 08	 add	 eax, 8
  00021	8d 0c 52	 lea	 ecx, DWORD PTR [edx+edx*2]
  00024	8d 04 88	 lea	 eax, DWORD PTR [eax+ecx*4]
  00027	83 c0 f4	 add	 eax, -12		; fffffff4H

; 912  : 		for (INT_PTR i = m_nBlockSize-1; i >= 0; i--, pNode--)

  0002a	83 c2 ff	 add	 edx, -1
  0002d	78 11		 js	 SHORT $LN7@NewNode
  0002f	90		 npad	 1
$LL4@NewNode:

; 913  : 		{
; 914  : 			pNode->pNext = m_pNodeFree;

  00030	8b 4e 10	 mov	 ecx, DWORD PTR [esi+16]
  00033	89 08		 mov	 DWORD PTR [eax], ecx

; 915  : 			m_pNodeFree = pNode;

  00035	89 46 10	 mov	 DWORD PTR [esi+16], eax
  00038	83 e8 0c	 sub	 eax, 12			; 0000000cH
  0003b	83 ea 01	 sub	 edx, 1
  0003e	79 f0		 jns	 SHORT $LL4@NewNode
$LN7@NewNode:

; 916  : 		}
; 917  : 	}
; 918  : 	ENSURE(m_pNodeFree != NULL);  // we must have something

  00040	8b 7e 10	 mov	 edi, DWORD PTR [esi+16]
  00043	85 ff		 test	 edi, edi
  00045	74 24		 je	 SHORT $LN17@NewNode

; 919  : 
; 920  : 	CList::CNode* pNode = m_pNodeFree;
; 921  : 	m_pNodeFree = m_pNodeFree->pNext;

  00047	8b 07		 mov	 eax, DWORD PTR [edi]

; 922  : 	pNode->pPrev = pPrev;

  00049	8b 4d 08	 mov	 ecx, DWORD PTR _pPrev$[ebp]
  0004c	89 46 10	 mov	 DWORD PTR [esi+16], eax
  0004f	89 4f 04	 mov	 DWORD PTR [edi+4], ecx

; 923  : 	pNode->pNext = pNext;

  00052	8b 4d 0c	 mov	 ecx, DWORD PTR _pNext$[ebp]
  00055	89 0f		 mov	 DWORD PTR [edi], ecx

; 924  : 	m_nCount++;
; 925  : 	ASSERT(m_nCount > 0);  // make sure we don't overflow
; 926  : 
; 927  : #pragma push_macro("new")
; 928  : #undef new
; 929  : 	::new( (void*)( &pNode->data ) ) TYPE;

  00057	8d 4f 08	 lea	 ecx, DWORD PTR [edi+8]
  0005a	ff 46 0c	 inc	 DWORD PTR [esi+12]
  0005d	ff 15 00 00 00
	00		 call	 DWORD PTR __imp_??0?$CStringT@DV?$StrTraitMFC_DLL@DV?$ChTraitsCRT@D@ATL@@@@@ATL@@QAE@XZ

; 930  : #pragma pop_macro("new")
; 931  : 	return pNode;

  00063	8b c7		 mov	 eax, edi
  00065	5f		 pop	 edi
  00066	5e		 pop	 esi

; 932  : }

  00067	5d		 pop	 ebp
  00068	c2 08 00	 ret	 8
$LN17@NewNode:

; 916  : 		}
; 917  : 	}
; 918  : 	ENSURE(m_pNodeFree != NULL);  // we must have something

  0006b	e8 00 00 00 00	 call	 ?AfxThrowInvalidArgException@@YGXXZ ; AfxThrowInvalidArgException
$LN15@NewNode:
  00070	cc		 int	 3
?NewNode@?$CList@V?$CStringT@DV?$StrTraitMFC_DLL@DV?$ChTraitsCRT@D@ATL@@@@@ATL@@V12@@@IAEPAUCNode@1@PAU21@0@Z ENDP ; CList<ATL::CStringT<char,StrTraitMFC_DLL<char,ATL::ChTraitsCRT<char> > >,ATL::CStringT<char,StrTraitMFC_DLL<char,ATL::ChTraitsCRT<char> > > >::NewNode
_TEXT	ENDS
; Function compile flags: /Ogtp
; File C:\Program Files (x86)\Microsoft Visual Studio\2019\Community\VC\Tools\MSVC\14.29.30133\atlmfc\include\afxtempl.h
;	COMDAT ?RemoveAll@?$CList@V?$CStringT@DV?$StrTraitMFC_DLL@DV?$ChTraitsCRT@D@ATL@@@@@ATL@@V12@@@QAEXXZ
_TEXT	SEGMENT
?RemoveAll@?$CList@V?$CStringT@DV?$StrTraitMFC_DLL@DV?$ChTraitsCRT@D@ATL@@@@@ATL@@V12@@@QAEXXZ PROC ; CList<ATL::CStringT<char,StrTraitMFC_DLL<char,ATL::ChTraitsCRT<char> > >,ATL::CStringT<char,StrTraitMFC_DLL<char,ATL::ChTraitsCRT<char> > > >::RemoveAll, COMDAT
; _this$ = ecx

; 862  : {

  00000	56		 push	 esi
  00001	57		 push	 edi
  00002	8b f9		 mov	 edi, ecx

; 863  : 	ASSERT_VALID(this);
; 864  : 
; 865  : 	// destroy elements
; 866  : 	CNode* pNode;
; 867  : 	for (pNode = m_pNodeHead; pNode != NULL; pNode = pNode->pNext)

  00004	8b 77 04	 mov	 esi, DWORD PTR [edi+4]
  00007	85 f6		 test	 esi, esi
  00009	74 14		 je	 SHORT $LN3@RemoveAll
  0000b	0f 1f 44 00 00	 npad	 5
$LL4@RemoveAll:

; 868  : 		pNode->data.~TYPE();

  00010	8d 4e 08	 lea	 ecx, DWORD PTR [esi+8]
  00013	ff 15 00 00 00
	00		 call	 DWORD PTR __imp_??1?$CStringT@DV?$StrTraitMFC_DLL@DV?$ChTraitsCRT@D@ATL@@@@@ATL@@QAE@XZ
  00019	8b 36		 mov	 esi, DWORD PTR [esi]
  0001b	85 f6		 test	 esi, esi
  0001d	75 f1		 jne	 SHORT $LL4@RemoveAll
$LN3@RemoveAll:

; 869  : 
; 870  : 	m_nCount = 0;
; 871  : 	m_pNodeHead = m_pNodeTail = m_pNodeFree = NULL;
; 872  : 	m_pBlocks->FreeDataChain();

  0001f	8b 4f 14	 mov	 ecx, DWORD PTR [edi+20]
  00022	c7 47 0c 00 00
	00 00		 mov	 DWORD PTR [edi+12], 0
  00029	c7 47 10 00 00
	00 00		 mov	 DWORD PTR [edi+16], 0
  00030	c7 47 08 00 00
	00 00		 mov	 DWORD PTR [edi+8], 0
  00037	c7 47 04 00 00
	00 00		 mov	 DWORD PTR [edi+4], 0
  0003e	e8 00 00 00 00	 call	 ?FreeDataChain@CPlex@@QAEXXZ ; CPlex::FreeDataChain

; 873  : 	m_pBlocks = NULL;

  00043	c7 47 14 00 00
	00 00		 mov	 DWORD PTR [edi+20], 0
  0004a	5f		 pop	 edi
  0004b	5e		 pop	 esi

; 874  : }

  0004c	c3		 ret	 0
?RemoveAll@?$CList@V?$CStringT@DV?$StrTraitMFC_DLL@DV?$ChTraitsCRT@D@ATL@@@@@ATL@@V12@@@QAEXXZ ENDP ; CList<ATL::CStringT<char,StrTraitMFC_DLL<char,ATL::ChTraitsCRT<char> > >,ATL::CStringT<char,StrTraitMFC_DLL<char,ATL::ChTraitsCRT<char> > > >::RemoveAll
_TEXT	ENDS
; Function compile flags: /Ogtp
; File C:\Program Files (x86)\Microsoft Visual Studio\2019\Community\VC\Tools\MSVC\14.29.30133\atlmfc\include\afxtempl.h
;	COMDAT ?AddTail@?$CList@V?$CStringT@DV?$StrTraitMFC_DLL@DV?$ChTraitsCRT@D@ATL@@@@@ATL@@V12@@@QAEPAU__POSITION@@V?$CStringT@DV?$StrTraitMFC_DLL@DV?$ChTraitsCRT@D@ATL@@@@@ATL@@@Z
_TEXT	SEGMENT
__$EHRec$ = -12						; size = 12
_newElement$ = 8					; size = 4
?AddTail@?$CList@V?$CStringT@DV?$StrTraitMFC_DLL@DV?$ChTraitsCRT@D@ATL@@@@@ATL@@V12@@@QAEPAU__POSITION@@V?$CStringT@DV?$StrTraitMFC_DLL@DV?$ChTraitsCRT@D@ATL@@@@@ATL@@@Z PROC ; CList<ATL::CStringT<char,StrTraitMFC_DLL<char,ATL::ChTraitsCRT<char> > >,ATL::CStringT<char,StrTraitMFC_DLL<char,ATL::ChTraitsCRT<char> > > >::AddTail, COMDAT
; _this$ = ecx

; 965  : {

  00000	55		 push	 ebp
  00001	8b ec		 mov	 ebp, esp
  00003	6a ff		 push	 -1
  00005	68 00 00 00 00	 push	 __ehhandler$?AddTail@?$CList@V?$CStringT@DV?$StrTraitMFC_DLL@DV?$ChTraitsCRT@D@ATL@@@@@ATL@@V12@@@QAEPAU__POSITION@@V?$CStringT@DV?$StrTraitMFC_DLL@DV?$ChTraitsCRT@D@ATL@@@@@ATL@@@Z
  0000a	64 a1 00 00 00
	00		 mov	 eax, DWORD PTR fs:0
  00010	50		 push	 eax
  00011	53		 push	 ebx
  00012	56		 push	 esi
  00013	57		 push	 edi
  00014	a1 00 00 00 00	 mov	 eax, DWORD PTR ___security_cookie
  00019	33 c5		 xor	 eax, ebp
  0001b	50		 push	 eax
  0001c	8d 45 f4	 lea	 eax, DWORD PTR __$EHRec$[ebp]
  0001f	64 a3 00 00 00
	00		 mov	 DWORD PTR fs:0, eax
  00025	8b f1		 mov	 esi, ecx

; 902  : 	if (m_pNodeFree == NULL)

  00027	83 7e 10 00	 cmp	 DWORD PTR [esi+16], 0

; 966  : 	ASSERT_VALID(this);
; 967  : 
; 968  : 	CNode* pNewNode = NewNode(m_pNodeTail, NULL);

  0002b	8b 7e 08	 mov	 edi, DWORD PTR [esi+8]
  0002e	c7 45 fc 00 00
	00 00		 mov	 DWORD PTR __$EHRec$[ebp+8], 0

; 902  : 	if (m_pNodeFree == NULL)

  00035	75 39		 jne	 SHORT $LN12@AddTail

; 903  : 	{
; 904  : 		// add another block
; 905  : 		CPlex* pNewBlock = CPlex::Create(m_pBlocks, m_nBlockSize,

  00037	6a 0c		 push	 12			; 0000000cH
  00039	ff 76 18	 push	 DWORD PTR [esi+24]
  0003c	8d 46 14	 lea	 eax, DWORD PTR [esi+20]
  0003f	50		 push	 eax
  00040	e8 00 00 00 00	 call	 ?Create@CPlex@@SGPAU1@AAPAU1@II@Z ; CPlex::Create

; 906  : 				 sizeof(CNode));
; 907  : 
; 908  : 		// chain them into free list
; 909  : 		CNode* pNode = (CNode*) pNewBlock->data();
; 910  : 		// free in reverse order to make it easier to debug
; 911  : 		pNode += m_nBlockSize - 1;

  00045	8b 56 18	 mov	 edx, DWORD PTR [esi+24]
  00048	83 c0 08	 add	 eax, 8
  0004b	8d 4a ff	 lea	 ecx, DWORD PTR [edx-1]

; 912  : 		for (INT_PTR i = m_nBlockSize-1; i >= 0; i--, pNode--)

  0004e	83 c2 ff	 add	 edx, -1
  00051	8d 0c 49	 lea	 ecx, DWORD PTR [ecx+ecx*2]
  00054	8d 0c 88	 lea	 ecx, DWORD PTR [eax+ecx*4]
  00057	78 17		 js	 SHORT $LN12@AddTail
  00059	0f 1f 80 00 00
	00 00		 npad	 7
$LL9@AddTail:

; 913  : 		{
; 914  : 			pNode->pNext = m_pNodeFree;

  00060	8b 46 10	 mov	 eax, DWORD PTR [esi+16]
  00063	89 01		 mov	 DWORD PTR [ecx], eax

; 915  : 			m_pNodeFree = pNode;

  00065	89 4e 10	 mov	 DWORD PTR [esi+16], ecx
  00068	83 e9 0c	 sub	 ecx, 12			; 0000000cH
  0006b	83 ea 01	 sub	 edx, 1
  0006e	79 f0		 jns	 SHORT $LL9@AddTail
$LN12@AddTail:

; 916  : 		}
; 917  : 	}
; 918  : 	ENSURE(m_pNodeFree != NULL);  // we must have something

  00070	8b 5e 10	 mov	 ebx, DWORD PTR [esi+16]
  00073	85 db		 test	 ebx, ebx
  00075	74 57		 je	 SHORT $LN24@AddTail

; 919  : 
; 920  : 	CList::CNode* pNode = m_pNodeFree;
; 921  : 	m_pNodeFree = m_pNodeFree->pNext;

  00077	8b 03		 mov	 eax, DWORD PTR [ebx]

; 922  : 	pNode->pPrev = pPrev;
; 923  : 	pNode->pNext = pNext;
; 924  : 	m_nCount++;
; 925  : 	ASSERT(m_nCount > 0);  // make sure we don't overflow
; 926  : 
; 927  : #pragma push_macro("new")
; 928  : #undef new
; 929  : 	::new( (void*)( &pNode->data ) ) TYPE;

  00079	8d 4b 08	 lea	 ecx, DWORD PTR [ebx+8]
  0007c	89 46 10	 mov	 DWORD PTR [esi+16], eax
  0007f	89 7b 04	 mov	 DWORD PTR [ebx+4], edi
  00082	c7 03 00 00 00
	00		 mov	 DWORD PTR [ebx], 0
  00088	ff 46 0c	 inc	 DWORD PTR [esi+12]
  0008b	ff 15 00 00 00
	00		 call	 DWORD PTR __imp_??0?$CStringT@DV?$StrTraitMFC_DLL@DV?$ChTraitsCRT@D@ATL@@@@@ATL@@QAE@XZ

; 969  : 	pNewNode->data = newElement;

  00091	8d 45 08	 lea	 eax, DWORD PTR _newElement$[ebp]
  00094	50		 push	 eax
  00095	8d 4b 08	 lea	 ecx, DWORD PTR [ebx+8]
  00098	ff 15 00 00 00
	00		 call	 DWORD PTR __imp_??4?$CStringT@DV?$StrTraitMFC_DLL@DV?$ChTraitsCRT@D@ATL@@@@@ATL@@QAEAAV01@ABV01@@Z

; 970  : 	if (m_pNodeTail != NULL)

  0009e	8b 46 08	 mov	 eax, DWORD PTR [esi+8]
  000a1	85 c0		 test	 eax, eax
  000a3	74 04		 je	 SHORT $LN2@AddTail

; 971  : 		m_pNodeTail->pNext = pNewNode;

  000a5	89 18		 mov	 DWORD PTR [eax], ebx
  000a7	eb 03		 jmp	 SHORT $LN3@AddTail
$LN2@AddTail:

; 972  : 	else
; 973  : 		m_pNodeHead = pNewNode;

  000a9	89 5e 04	 mov	 DWORD PTR [esi+4], ebx
$LN3@AddTail:

; 974  : 	m_pNodeTail = pNewNode;
; 975  : 	return (POSITION) pNewNode;

  000ac	8d 4d 08	 lea	 ecx, DWORD PTR _newElement$[ebp]
  000af	89 5e 08	 mov	 DWORD PTR [esi+8], ebx
  000b2	ff 15 00 00 00
	00		 call	 DWORD PTR __imp_??1?$CStringT@DV?$StrTraitMFC_DLL@DV?$ChTraitsCRT@D@ATL@@@@@ATL@@QAE@XZ
  000b8	8b c3		 mov	 eax, ebx

; 976  : }

  000ba	8b 4d f4	 mov	 ecx, DWORD PTR __$EHRec$[ebp]
  000bd	64 89 0d 00 00
	00 00		 mov	 DWORD PTR fs:0, ecx
  000c4	59		 pop	 ecx
  000c5	5f		 pop	 edi
  000c6	5e		 pop	 esi
  000c7	5b		 pop	 ebx
  000c8	8b e5		 mov	 esp, ebp
  000ca	5d		 pop	 ebp
  000cb	c2 04 00	 ret	 4
$LN24@AddTail:

; 918  : 	ENSURE(m_pNodeFree != NULL);  // we must have something

  000ce	e8 00 00 00 00	 call	 ?AfxThrowInvalidArgException@@YGXXZ ; AfxThrowInvalidArgException
$LN22@AddTail:
  000d3	cc		 int	 3
_TEXT	ENDS
;	COMDAT text$x
text$x	SEGMENT
__unwindfunclet$?AddTail@?$CList@V?$CStringT@DV?$StrTraitMFC_DLL@DV?$ChTraitsCRT@D@ATL@@@@@ATL@@V12@@@QAEPAU__POSITION@@V?$CStringT@DV?$StrTraitMFC_DLL@DV?$ChTraitsCRT@D@ATL@@@@@ATL@@@Z$0:
  00000	8d 4d 08	 lea	 ecx, DWORD PTR _newElement$[ebp]
  00003	ff 25 00 00 00
	00		 jmp	 DWORD PTR __imp_??1?$CStringT@DV?$StrTraitMFC_DLL@DV?$ChTraitsCRT@D@ATL@@@@@ATL@@QAE@XZ
  00009	cc		 int	 3
  0000a	cc		 int	 3
  0000b	cc		 int	 3
  0000c	cc		 int	 3
  0000d	cc		 int	 3
__ehhandler$?AddTail@?$CList@V?$CStringT@DV?$StrTraitMFC_DLL@DV?$ChTraitsCRT@D@ATL@@@@@ATL@@V12@@@QAEPAU__POSITION@@V?$CStringT@DV?$StrTraitMFC_DLL@DV?$ChTraitsCRT@D@ATL@@@@@ATL@@@Z:
  0000e	90		 npad	 1
  0000f	90		 npad	 1
  00010	8b 54 24 08	 mov	 edx, DWORD PTR [esp+8]
  00014	8d 42 0c	 lea	 eax, DWORD PTR [edx+12]
  00017	8b 4a f0	 mov	 ecx, DWORD PTR [edx-16]
  0001a	33 c8		 xor	 ecx, eax
  0001c	e8 00 00 00 00	 call	 @__security_check_cookie@4
  00021	b8 00 00 00 00	 mov	 eax, OFFSET __ehfuncinfo$?AddTail@?$CList@V?$CStringT@DV?$StrTraitMFC_DLL@DV?$ChTraitsCRT@D@ATL@@@@@ATL@@V12@@@QAEPAU__POSITION@@V?$CStringT@DV?$StrTraitMFC_DLL@DV?$ChTraitsCRT@D@ATL@@@@@ATL@@@Z
  00026	e9 00 00 00 00	 jmp	 ___CxxFrameHandler3
text$x	ENDS
?AddTail@?$CList@V?$CStringT@DV?$StrTraitMFC_DLL@DV?$ChTraitsCRT@D@ATL@@@@@ATL@@V12@@@QAEPAU__POSITION@@V?$CStringT@DV?$StrTraitMFC_DLL@DV?$ChTraitsCRT@D@ATL@@@@@ATL@@@Z ENDP ; CList<ATL::CStringT<char,StrTraitMFC_DLL<char,ATL::ChTraitsCRT<char> > >,ATL::CStringT<char,StrTraitMFC_DLL<char,ATL::ChTraitsCRT<char> > > >::AddTail
; Function compile flags: /Ogtp
; File C:\Program Files (x86)\Microsoft Visual Studio\2019\Community\VC\Tools\MSVC\14.29.30133\atlmfc\include\afxtempl.h
;	COMDAT ??0?$CList@V?$CStringT@DV?$StrTraitMFC_DLL@DV?$ChTraitsCRT@D@ATL@@@@@ATL@@V12@@@QAE@H@Z
_TEXT	SEGMENT
_nBlockSize$ = 8					; size = 4
??0?$CList@V?$CStringT@DV?$StrTraitMFC_DLL@DV?$ChTraitsCRT@D@ATL@@@@@ATL@@V12@@@QAE@H@Z PROC ; CList<ATL::CStringT<char,StrTraitMFC_DLL<char,ATL::ChTraitsCRT<char> > >,ATL::CStringT<char,StrTraitMFC_DLL<char,ATL::ChTraitsCRT<char> > > >::CList<ATL::CStringT<char,StrTraitMFC_DLL<char,ATL::ChTraitsCRT<char> > >,ATL::CStringT<char,StrTraitMFC_DLL<char,ATL::ChTraitsCRT<char> > > >, COMDAT
; _this$ = ecx

; 851  : {

  00000	55		 push	 ebp
  00001	8b ec		 mov	 ebp, esp

; 852  : 	ASSERT(nBlockSize > 0);
; 853  : 
; 854  : 	m_nCount = 0;
; 855  : 	m_pNodeHead = m_pNodeTail = m_pNodeFree = NULL;
; 856  : 	m_pBlocks = NULL;
; 857  : 	m_nBlockSize = nBlockSize;

  00003	8b 45 08	 mov	 eax, DWORD PTR _nBlockSize$[ebp]
  00006	89 41 18	 mov	 DWORD PTR [ecx+24], eax

; 858  : }

  00009	8b c1		 mov	 eax, ecx
  0000b	c7 01 00 00 00
	00		 mov	 DWORD PTR [ecx], OFFSET ??_7?$CList@V?$CStringT@DV?$StrTraitMFC_DLL@DV?$ChTraitsCRT@D@ATL@@@@@ATL@@V12@@@6B@
  00011	c7 41 0c 00 00
	00 00		 mov	 DWORD PTR [ecx+12], 0
  00018	c7 41 10 00 00
	00 00		 mov	 DWORD PTR [ecx+16], 0
  0001f	c7 41 08 00 00
	00 00		 mov	 DWORD PTR [ecx+8], 0
  00026	c7 41 04 00 00
	00 00		 mov	 DWORD PTR [ecx+4], 0
  0002d	c7 41 14 00 00
	00 00		 mov	 DWORD PTR [ecx+20], 0
  00034	5d		 pop	 ebp
  00035	c2 04 00	 ret	 4
??0?$CList@V?$CStringT@DV?$StrTraitMFC_DLL@DV?$ChTraitsCRT@D@ATL@@@@@ATL@@V12@@@QAE@H@Z ENDP ; CList<ATL::CStringT<char,StrTraitMFC_DLL<char,ATL::ChTraitsCRT<char> > >,ATL::CStringT<char,StrTraitMFC_DLL<char,ATL::ChTraitsCRT<char> > > >::CList<ATL::CStringT<char,StrTraitMFC_DLL<char,ATL::ChTraitsCRT<char> > >,ATL::CStringT<char,StrTraitMFC_DLL<char,ATL::ChTraitsCRT<char> > > >
_TEXT	ENDS
; Function compile flags: /Ogtp
; File D:\git\src\IBK\IBK_DRFN\ProjSrc\SrcChartEx\ChartOCX\IndicatorCondition\IndicatorInfoImplementation.cpp
; File C:\Program Files (x86)\Microsoft Visual Studio\2019\Community\VC\Tools\MSVC\14.29.30133\atlmfc\include\afxtempl.h
; File D:\git\src\IBK\IBK_DRFN\ProjSrc\SrcChartEx\ChartOCX\IndicatorCondition\IndicatorInfoImplementation.cpp
; File C:\Program Files (x86)\Microsoft Visual Studio\2019\Community\VC\Tools\MSVC\14.29.30133\atlmfc\include\afxtempl.h
; File D:\git\src\IBK\IBK_DRFN\ProjSrc\SrcChartEx\ChartOCX\IndicatorCondition\IndicatorInfoImplementation.cpp
;	COMDAT ??_GCIndicatorInfoImplementation@@UAEPAXI@Z
_TEXT	SEGMENT
__$EHRec$ = -12						; size = 12
___flags$ = 8						; size = 4
??_GCIndicatorInfoImplementation@@UAEPAXI@Z PROC	; CIndicatorInfoImplementation::`scalar deleting destructor', COMDAT
; _this$ = ecx
  00000	55		 push	 ebp
  00001	8b ec		 mov	 ebp, esp
  00003	6a ff		 push	 -1
  00005	68 00 00 00 00	 push	 __ehhandler$??_GCIndicatorInfoImplementation@@UAEPAXI@Z
  0000a	64 a1 00 00 00
	00		 mov	 eax, DWORD PTR fs:0
  00010	50		 push	 eax
  00011	56		 push	 esi
  00012	a1 00 00 00 00	 mov	 eax, DWORD PTR ___security_cookie
  00017	33 c5		 xor	 eax, ebp
  00019	50		 push	 eax
  0001a	8d 45 f4	 lea	 eax, DWORD PTR __$EHRec$[ebp]
  0001d	64 a3 00 00 00
	00		 mov	 DWORD PTR fs:0, eax
  00023	8b f1		 mov	 esi, ecx

; 43   : 	if(m_lpszLoadedRQ)

  00025	8b 86 94 00 00
	00		 mov	 eax, DWORD PTR [esi+148]
  0002b	c7 06 00 00 00
	00		 mov	 DWORD PTR [esi], OFFSET ??_7CIndicatorInfoImplementation@@6B@
  00031	85 c0		 test	 eax, eax
  00033	74 0a		 je	 SHORT $LN5@scalar

; 44   : 		::free(m_lpszLoadedRQ);

  00035	50		 push	 eax
  00036	ff 15 00 00 00
	00		 call	 DWORD PTR __imp__free
  0003c	83 c4 04	 add	 esp, 4
$LN5@scalar:
; File C:\Program Files (x86)\Microsoft Visual Studio\2019\Community\VC\Tools\MSVC\14.29.30133\atlmfc\include\afxtempl.h

; 872  : 	m_pBlocks->FreeDataChain();

  0003f	8b 8e 88 00 00
	00		 mov	 ecx, DWORD PTR [esi+136]

; 878  : {

  00045	c7 45 fc 00 00
	00 00		 mov	 DWORD PTR __$EHRec$[ebp+8], 0
  0004c	c7 46 74 00 00
	00 00		 mov	 DWORD PTR [esi+116], OFFSET ??_7?$CList@NN@@6B@

; 870  : 	m_nCount = 0;

  00053	c7 86 80 00 00
	00 00 00 00 00	 mov	 DWORD PTR [esi+128], 0

; 871  : 	m_pNodeHead = m_pNodeTail = m_pNodeFree = NULL;

  0005d	c7 86 84 00 00
	00 00 00 00 00	 mov	 DWORD PTR [esi+132], 0
  00067	c7 46 7c 00 00
	00 00		 mov	 DWORD PTR [esi+124], 0
  0006e	c7 46 78 00 00
	00 00		 mov	 DWORD PTR [esi+120], 0

; 872  : 	m_pBlocks->FreeDataChain();

  00075	e8 00 00 00 00	 call	 ?FreeDataChain@CPlex@@QAEXXZ ; CPlex::FreeDataChain

; 873  : 	m_pBlocks = NULL;

  0007a	c7 86 88 00 00
	00 00 00 00 00	 mov	 DWORD PTR [esi+136], 0

; 872  : 	m_pBlocks->FreeDataChain();

  00084	8b 4e 6c	 mov	 ecx, DWORD PTR [esi+108]

; 878  : {

  00087	c7 45 fc 01 00
	00 00		 mov	 DWORD PTR __$EHRec$[ebp+8], 1
  0008e	c7 46 58 00 00
	00 00		 mov	 DWORD PTR [esi+88], OFFSET ??_7?$CList@NN@@6B@

; 870  : 	m_nCount = 0;

  00095	c7 46 64 00 00
	00 00		 mov	 DWORD PTR [esi+100], 0

; 871  : 	m_pNodeHead = m_pNodeTail = m_pNodeFree = NULL;

  0009c	c7 46 68 00 00
	00 00		 mov	 DWORD PTR [esi+104], 0
  000a3	c7 46 60 00 00
	00 00		 mov	 DWORD PTR [esi+96], 0
  000aa	c7 46 5c 00 00
	00 00		 mov	 DWORD PTR [esi+92], 0

; 872  : 	m_pBlocks->FreeDataChain();

  000b1	e8 00 00 00 00	 call	 ?FreeDataChain@CPlex@@QAEXXZ ; CPlex::FreeDataChain

; 873  : 	m_pBlocks = NULL;

  000b6	c7 46 6c 00 00
	00 00		 mov	 DWORD PTR [esi+108], 0

; 872  : 	m_pBlocks->FreeDataChain();

  000bd	8b 4e 50	 mov	 ecx, DWORD PTR [esi+80]

; 878  : {

  000c0	c7 45 fc 02 00
	00 00		 mov	 DWORD PTR __$EHRec$[ebp+8], 2
  000c7	c7 46 3c 00 00
	00 00		 mov	 DWORD PTR [esi+60], OFFSET ??_7?$CList@NN@@6B@

; 870  : 	m_nCount = 0;

  000ce	c7 46 48 00 00
	00 00		 mov	 DWORD PTR [esi+72], 0

; 871  : 	m_pNodeHead = m_pNodeTail = m_pNodeFree = NULL;

  000d5	c7 46 4c 00 00
	00 00		 mov	 DWORD PTR [esi+76], 0
  000dc	c7 46 44 00 00
	00 00		 mov	 DWORD PTR [esi+68], 0
  000e3	c7 46 40 00 00
	00 00		 mov	 DWORD PTR [esi+64], 0

; 872  : 	m_pBlocks->FreeDataChain();

  000ea	e8 00 00 00 00	 call	 ?FreeDataChain@CPlex@@QAEXXZ ; CPlex::FreeDataChain
; File D:\git\src\IBK\IBK_DRFN\ProjSrc\SrcChartEx\ChartOCX\IndicatorCondition\IndicatorInfoImplementation.cpp

; 45   : }

  000ef	8d 4e 08	 lea	 ecx, DWORD PTR [esi+8]
; File C:\Program Files (x86)\Microsoft Visual Studio\2019\Community\VC\Tools\MSVC\14.29.30133\atlmfc\include\afxtempl.h

; 873  : 	m_pBlocks = NULL;

  000f2	c7 46 50 00 00
	00 00		 mov	 DWORD PTR [esi+80], 0
; File D:\git\src\IBK\IBK_DRFN\ProjSrc\SrcChartEx\ChartOCX\IndicatorCondition\IndicatorInfoImplementation.cpp

; 45   : }

  000f9	e8 00 00 00 00	 call	 ??1CGraphPartData@@UAE@XZ ; CGraphPartData::~CGraphPartData
  000fe	f6 45 08 01	 test	 BYTE PTR ___flags$[ebp], 1
  00102	74 0e		 je	 SHORT $LN47@scalar
  00104	68 98 00 00 00	 push	 152			; 00000098H
  00109	56		 push	 esi
  0010a	e8 00 00 00 00	 call	 ??3@YAXPAXI@Z		; operator delete
  0010f	83 c4 08	 add	 esp, 8
$LN47@scalar:
  00112	8b c6		 mov	 eax, esi
  00114	8b 4d f4	 mov	 ecx, DWORD PTR __$EHRec$[ebp]
  00117	64 89 0d 00 00
	00 00		 mov	 DWORD PTR fs:0, ecx
  0011e	59		 pop	 ecx
  0011f	5e		 pop	 esi
  00120	8b e5		 mov	 esp, ebp
  00122	5d		 pop	 ebp
  00123	c2 04 00	 ret	 4
  00126	cc		 int	 3
  00127	cc		 int	 3
  00128	cc		 int	 3
  00129	cc		 int	 3
  0012a	cc		 int	 3
_TEXT	ENDS
;	COMDAT text$x
text$x	SEGMENT
__ehhandler$??_GCIndicatorInfoImplementation@@UAEPAXI@Z:
  00000	90		 npad	 1
  00001	90		 npad	 1
  00002	8b 54 24 08	 mov	 edx, DWORD PTR [esp+8]
  00006	8d 42 0c	 lea	 eax, DWORD PTR [edx+12]
  00009	8b 4a f8	 mov	 ecx, DWORD PTR [edx-8]
  0000c	33 c8		 xor	 ecx, eax
  0000e	e8 00 00 00 00	 call	 @__security_check_cookie@4
  00013	b8 00 00 00 00	 mov	 eax, OFFSET __ehfuncinfo$??_GCIndicatorInfoImplementation@@UAEPAXI@Z
  00018	e9 00 00 00 00	 jmp	 ___CxxFrameHandler3
text$x	ENDS
??_GCIndicatorInfoImplementation@@UAEPAXI@Z ENDP	; CIndicatorInfoImplementation::`scalar deleting destructor'
; Function compile flags: /Ogtp
; File D:\git\src\IBK\IBK_DRFN\ProjSrc\SrcChartEx\ChartOCX\IndicatorCondition\IndicatorInfoImplementation.cpp
;	COMDAT ?SetLoadedRQ@CIndicatorInfoImplementation@@QAEXPBD@Z
_TEXT	SEGMENT
_lpszRQ$ = 8						; size = 4
?SetLoadedRQ@CIndicatorInfoImplementation@@QAEXPBD@Z PROC ; CIndicatorInfoImplementation::SetLoadedRQ, COMDAT
; _this$ = ecx

; 775  : {

  00000	55		 push	 ebp
  00001	8b ec		 mov	 ebp, esp
  00003	56		 push	 esi
  00004	8b f1		 mov	 esi, ecx

; 776  : 	if(m_lpszLoadedRQ)

  00006	8b 86 94 00 00
	00		 mov	 eax, DWORD PTR [esi+148]
  0000c	85 c0		 test	 eax, eax
  0000e	74 0a		 je	 SHORT $LN2@SetLoadedR

; 777  : 		::free(m_lpszLoadedRQ);

  00010	50		 push	 eax
  00011	ff 15 00 00 00
	00		 call	 DWORD PTR __imp__free
  00017	83 c4 04	 add	 esp, 4
$LN2@SetLoadedR:

; 778  : 
; 779  : 	m_lpszLoadedRQ = ::strdup(lpszRQ);

  0001a	ff 75 08	 push	 DWORD PTR _lpszRQ$[ebp]
  0001d	ff 15 00 00 00
	00		 call	 DWORD PTR __imp__strdup
  00023	83 c4 04	 add	 esp, 4
  00026	89 86 94 00 00
	00		 mov	 DWORD PTR [esi+148], eax
  0002c	5e		 pop	 esi

; 780  : }

  0002d	5d		 pop	 ebp
  0002e	c2 04 00	 ret	 4
?SetLoadedRQ@CIndicatorInfoImplementation@@QAEXPBD@Z ENDP ; CIndicatorInfoImplementation::SetLoadedRQ
_TEXT	ENDS
; Function compile flags: /Ogtp
; File D:\git\src\IBK\IBK_DRFN\ProjSrc\SrcChartEx\ChartOCX\IndicatorCondition\IndicatorInfoImplementation.cpp
;	COMDAT ?GetGraph@CIndicatorInfoImplementation@@QAEPAVCGraph@@XZ
_TEXT	SEGMENT
?GetGraph@CIndicatorInfoImplementation@@QAEPAVCGraph@@XZ PROC ; CIndicatorInfoImplementation::GetGraph, COMDAT
; _this$ = ecx

; 770  : 	return m_pGraph;

  00000	8b 81 90 00 00
	00		 mov	 eax, DWORD PTR [ecx+144]

; 771  : }

  00006	c3		 ret	 0
?GetGraph@CIndicatorInfoImplementation@@QAEPAVCGraph@@XZ ENDP ; CIndicatorInfoImplementation::GetGraph
_TEXT	ENDS
; Function compile flags: /Ogtp
; File D:\git\src\IBK\IBK_DRFN\ProjSrc\SrcChartEx\ChartOCX\IndicatorCondition\IndicatorInfoImplementation.cpp
;	COMDAT ?SetGraph@CIndicatorInfoImplementation@@QAEXPAVCGraph@@@Z
_TEXT	SEGMENT
_pGraph$ = 8						; size = 4
?SetGraph@CIndicatorInfoImplementation@@QAEXPAVCGraph@@@Z PROC ; CIndicatorInfoImplementation::SetGraph, COMDAT
; _this$ = ecx

; 754  : {

  00000	55		 push	 ebp
  00001	8b ec		 mov	 ebp, esp
  00003	56		 push	 esi
  00004	8b f1		 mov	 esi, ecx

; 755  : 	m_pGraph = pGraph;

  00006	8b 4d 08	 mov	 ecx, DWORD PTR _pGraph$[ebp]

; 756  : 
; 757  : 	//   :  - ojtaso (20070514)
; 758  : 	if(m_lpszLoadedRQ)

  00009	8b 96 94 00 00
	00		 mov	 edx, DWORD PTR [esi+148]
  0000f	89 8e 90 00 00
	00		 mov	 DWORD PTR [esi+144], ecx
  00015	85 d2		 test	 edx, edx
  00017	74 1f		 je	 SHORT $LN2@SetGraph

; 759  : 	{
; 760  : 		m_pGraph->SetGraphRQ(m_lpszLoadedRQ);

  00019	8b 01		 mov	 eax, DWORD PTR [ecx]
  0001b	52		 push	 edx
  0001c	ff 50 20	 call	 DWORD PTR [eax+32]

; 761  : 		
; 762  : 		::free(m_lpszLoadedRQ);

  0001f	ff b6 94 00 00
	00		 push	 DWORD PTR [esi+148]
  00025	ff 15 00 00 00
	00		 call	 DWORD PTR __imp__free
  0002b	83 c4 04	 add	 esp, 4

; 763  : 		m_lpszLoadedRQ = NULL;

  0002e	c7 86 94 00 00
	00 00 00 00 00	 mov	 DWORD PTR [esi+148], 0
$LN2@SetGraph:
  00038	5e		 pop	 esi

; 764  : 	}
; 765  : }

  00039	5d		 pop	 ebp
  0003a	c2 04 00	 ret	 4
?SetGraph@CIndicatorInfoImplementation@@QAEXPAVCGraph@@@Z ENDP ; CIndicatorInfoImplementation::SetGraph
_TEXT	ENDS
; Function compile flags: /Ogtp
; File D:\git\src\IBK\IBK_DRFN\ProjSrc\SrcChartEx\ChartOCX\IndicatorCondition\IndicatorInfoImplementation.cpp
;	COMDAT ?GetSubGraphHiding@CIndicatorInfoImplementation@@QAEHH@Z
_TEXT	SEGMENT
_p_nSubGraphIndex$ = 8					; size = 4
?GetSubGraphHiding@CIndicatorInfoImplementation@@QAEHH@Z PROC ; CIndicatorInfoImplementation::GetSubGraphHiding, COMDAT
; _this$ = ecx

; 748  : {

  00000	55		 push	 ebp
  00001	8b ec		 mov	 ebp, esp

; 749  : 	return m_graphPartData.GetSubGraphHiding( p_nSubGraphIndex);

  00003	83 c1 08	 add	 ecx, 8

; 750  : }

  00006	5d		 pop	 ebp

; 749  : 	return m_graphPartData.GetSubGraphHiding( p_nSubGraphIndex);

  00007	e9 00 00 00 00	 jmp	 ?GetSubGraphHiding@CGraphPartData@@QAEHH@Z ; CGraphPartData::GetSubGraphHiding
?GetSubGraphHiding@CIndicatorInfoImplementation@@QAEHH@Z ENDP ; CIndicatorInfoImplementation::GetSubGraphHiding
_TEXT	ENDS
; Function compile flags: /Ogtp
; File D:\git\src\IBK\IBK_DRFN\ProjSrc\SrcChartEx\ChartOCX\IndicatorCondition\IndicatorInfoImplementation.cpp
;	COMDAT ?GetSubGraphHiding@CIndicatorInfoImplementation@@QAEHPBD@Z
_TEXT	SEGMENT
_p_szSubGraphName$ = 8					; size = 4
?GetSubGraphHiding@CIndicatorInfoImplementation@@QAEHPBD@Z PROC ; CIndicatorInfoImplementation::GetSubGraphHiding, COMDAT
; _this$ = ecx

; 744  : {

  00000	55		 push	 ebp
  00001	8b ec		 mov	 ebp, esp

; 745  : 	return m_graphPartData.GetSubGraphHiding( p_szSubGraphName);

  00003	83 c1 08	 add	 ecx, 8

; 746  : }

  00006	5d		 pop	 ebp

; 745  : 	return m_graphPartData.GetSubGraphHiding( p_szSubGraphName);

  00007	e9 00 00 00 00	 jmp	 ?GetSubGraphHiding@CGraphPartData@@QAEHPBD@Z ; CGraphPartData::GetSubGraphHiding
?GetSubGraphHiding@CIndicatorInfoImplementation@@QAEHPBD@Z ENDP ; CIndicatorInfoImplementation::GetSubGraphHiding
_TEXT	ENDS
; Function compile flags: /Ogtp
; File D:\git\src\IBK\IBK_DRFN\ProjSrc\SrcChartEx\ChartOCX\IndicatorCondition\IndicatorInfoImplementation.cpp
;	COMDAT ?GetGraphDataDrawingData@CIndicatorInfoImplementation@@QAEPAVCGraphDataDrawingData@@XZ
_TEXT	SEGMENT
?GetGraphDataDrawingData@CIndicatorInfoImplementation@@QAEPAVCGraphDataDrawingData@@XZ PROC ; CIndicatorInfoImplementation::GetGraphDataDrawingData, COMDAT
; _this$ = ecx

; 738  : 	return m_graphPartData.GetGraphDataDrawingData();

  00000	83 c1 08	 add	 ecx, 8
  00003	e9 00 00 00 00	 jmp	 ?GetGraphDataDrawingData@CGraphPartData@@QAEPAVCGraphDataDrawingData@@XZ ; CGraphPartData::GetGraphDataDrawingData
?GetGraphDataDrawingData@CIndicatorInfoImplementation@@QAEPAVCGraphDataDrawingData@@XZ ENDP ; CIndicatorInfoImplementation::GetGraphDataDrawingData
_TEXT	ENDS
; Function compile flags: /Ogtp
; File D:\git\src\IBK\IBK_DRFN\ProjSrc\SrcChartEx\ChartOCX\IndicatorCondition\IndicatorInfoImplementation.cpp
;	COMDAT ?SetGraphDataDrawingDataWithCopy@CIndicatorInfoImplementation@@QAEXPBVCGraphDataDrawingData@@@Z
_TEXT	SEGMENT
_p_pGraphDataDrawingData$ = 8				; size = 4
?SetGraphDataDrawingDataWithCopy@CIndicatorInfoImplementation@@QAEXPBVCGraphDataDrawingData@@@Z PROC ; CIndicatorInfoImplementation::SetGraphDataDrawingDataWithCopy, COMDAT
; _this$ = ecx

; 733  : {

  00000	55		 push	 ebp
  00001	8b ec		 mov	 ebp, esp

; 734  : 	m_graphPartData.SetGraphDataDrawingDataWithCopy( p_pGraphDataDrawingData);

  00003	83 c1 08	 add	 ecx, 8

; 735  : }

  00006	5d		 pop	 ebp

; 734  : 	m_graphPartData.SetGraphDataDrawingDataWithCopy( p_pGraphDataDrawingData);

  00007	e9 00 00 00 00	 jmp	 ?SetGraphDataDrawingDataWithCopy@CGraphPartData@@QAEXPBVCGraphDataDrawingData@@@Z ; CGraphPartData::SetGraphDataDrawingDataWithCopy
?SetGraphDataDrawingDataWithCopy@CIndicatorInfoImplementation@@QAEXPBVCGraphDataDrawingData@@@Z ENDP ; CIndicatorInfoImplementation::SetGraphDataDrawingDataWithCopy
_TEXT	ENDS
; Function compile flags: /Ogtp
; File D:\git\src\IBK\IBK_DRFN\ProjSrc\SrcChartEx\ChartOCX\IndicatorCondition\IndicatorInfoImplementation.cpp
;	COMDAT ?GetSubGraphPartData@CIndicatorInfoImplementation@@QAEPAVCSubGraphPartData@@H@Z
_TEXT	SEGMENT
_p_nIndex$ = 8						; size = 4
?GetSubGraphPartData@CIndicatorInfoImplementation@@QAEPAVCSubGraphPartData@@H@Z PROC ; CIndicatorInfoImplementation::GetSubGraphPartData, COMDAT
; _this$ = ecx

; 726  : {

  00000	55		 push	 ebp
  00001	8b ec		 mov	 ebp, esp

; 727  : 	return m_graphPartData.GetSubGraphPartData( p_nIndex);

  00003	83 c1 08	 add	 ecx, 8

; 728  : }

  00006	5d		 pop	 ebp

; 727  : 	return m_graphPartData.GetSubGraphPartData( p_nIndex);

  00007	e9 00 00 00 00	 jmp	 ?GetSubGraphPartData@CGraphPartData@@QBEPAVCSubGraphPartData@@H@Z ; CGraphPartData::GetSubGraphPartData
?GetSubGraphPartData@CIndicatorInfoImplementation@@QAEPAVCSubGraphPartData@@H@Z ENDP ; CIndicatorInfoImplementation::GetSubGraphPartData
_TEXT	ENDS
; Function compile flags: /Ogtp
; File D:\git\src\IBK\IBK_DRFN\ProjSrc\SrcChartEx\ChartOCX\IndicatorCondition\IndicatorInfoImplementation.cpp
;	COMDAT ?AddSubGraphPartDataWithCopy@CIndicatorInfoImplementation@@QAEHPBVCSubGraphPartData@@@Z
_TEXT	SEGMENT
_pSubGraphPartData$ = 8					; size = 4
?AddSubGraphPartDataWithCopy@CIndicatorInfoImplementation@@QAEHPBVCSubGraphPartData@@@Z PROC ; CIndicatorInfoImplementation::AddSubGraphPartDataWithCopy, COMDAT
; _this$ = ecx

; 722  : {

  00000	55		 push	 ebp
  00001	8b ec		 mov	 ebp, esp

; 723  : 	return m_graphPartData.AddSubGraphPartDataWithCopy( pSubGraphPartData);

  00003	83 c1 08	 add	 ecx, 8

; 724  : }

  00006	5d		 pop	 ebp

; 723  : 	return m_graphPartData.AddSubGraphPartDataWithCopy( pSubGraphPartData);

  00007	e9 00 00 00 00	 jmp	 ?AddSubGraphPartDataWithCopy@CGraphPartData@@QAEHPBVCSubGraphPartData@@@Z ; CGraphPartData::AddSubGraphPartDataWithCopy
?AddSubGraphPartDataWithCopy@CIndicatorInfoImplementation@@QAEHPBVCSubGraphPartData@@@Z ENDP ; CIndicatorInfoImplementation::AddSubGraphPartDataWithCopy
_TEXT	ENDS
; Function compile flags: /Ogtp
; File D:\git\src\IBK\IBK_DRFN\ProjSrc\SrcChartEx\ChartOCX\IndicatorCondition\IndicatorInfoImplementation.cpp
; File C:\Program Files (x86)\Microsoft Visual Studio\2019\Community\VC\Tools\MSVC\14.29.30133\atlmfc\include\atlsimpstr.h
; File D:\git\src\IBK\IBK_DRFN\ProjSrc\SrcChartEx\ChartOCX\IndicatorCondition\IndicatorInfoImplementation.cpp
; File C:\Program Files (x86)\Microsoft Visual Studio\2019\Community\VC\Tools\MSVC\14.29.30133\atlmfc\include\atlsimpstr.h
; File D:\git\src\IBK\IBK_DRFN\ProjSrc\SrcChartEx\ChartOCX\IndicatorCondition\IndicatorInfoImplementation.cpp
;	COMDAT ?ChangeAllSubGraphTitleFromCalConditionData@CIndicatorInfoImplementation@@QAE_NXZ
_TEXT	SEGMENT
_nCount$1$ = -20					; size = 4
_strTitle$2 = -16					; size = 4
__$EHRec$ = -12						; size = 12
?ChangeAllSubGraphTitleFromCalConditionData@CIndicatorInfoImplementation@@QAE_NXZ PROC ; CIndicatorInfoImplementation::ChangeAllSubGraphTitleFromCalConditionData, COMDAT
; _this$ = ecx

; 542  : {

  00000	55		 push	 ebp
  00001	8b ec		 mov	 ebp, esp
  00003	6a ff		 push	 -1
  00005	68 00 00 00 00	 push	 __ehhandler$?ChangeAllSubGraphTitleFromCalConditionData@CIndicatorInfoImplementation@@QAE_NXZ
  0000a	64 a1 00 00 00
	00		 mov	 eax, DWORD PTR fs:0
  00010	50		 push	 eax
  00011	83 ec 08	 sub	 esp, 8
  00014	53		 push	 ebx
  00015	56		 push	 esi
  00016	57		 push	 edi
  00017	a1 00 00 00 00	 mov	 eax, DWORD PTR ___security_cookie
  0001c	33 c5		 xor	 eax, ebp
  0001e	50		 push	 eax
  0001f	8d 45 f4	 lea	 eax, DWORD PTR __$EHRec$[ebp]
  00022	64 a3 00 00 00
	00		 mov	 DWORD PTR fs:0, eax

; 648  : 	if(GetCommonCalConditionCount() <= 0)

  00028	83 79 48 00	 cmp	 DWORD PTR [ecx+72], 0
  0002c	8d 79 08	 lea	 edi, DWORD PTR [ecx+8]
  0002f	7f 13		 jg	 SHORT $LN36@ChangeAllS

; 205  : 	return m_graphPartData.GetConditionList(nSubGraphIndex);

  00031	6a 00		 push	 0
  00033	8b cf		 mov	 ecx, edi
  00035	e8 00 00 00 00	 call	 ?GetConditionList@CGraphPartData@@QBEPAV?$CList@NN@@H@Z ; CGraphPartData::GetConditionList

; 148  : 	if(pDoubleList == NULL)

  0003a	85 c0		 test	 eax, eax
  0003c	74 11		 je	 SHORT $LN39@ChangeAllS

; 650  : 		if(GetCalConditionCount(0) <= 0)

  0003e	83 78 0c 00	 cmp	 DWORD PTR [eax+12], 0
  00042	7e 0b		 jle	 SHORT $LN39@ChangeAllS
$LN36@ChangeAllS:

; 651  : 			return CIndiBaseData::BASE_TITLE;
; 652  : 	}
; 653  : 
; 654  : 	return m_graphPartData.GetConditionTitle();

  00044	8b cf		 mov	 ecx, edi
  00046	e8 00 00 00 00	 call	 ?GetConditionTitle@CGraphPartData@@QBE?AW4TITLETYPE@CIndiBaseData@@XZ ; CGraphPartData::GetConditionTitle

; 543  : 	//  title 
; 544  : 	if(GetConditionTitle() == CIndiBaseData::BASE_TITLE)

  0004b	85 c0		 test	 eax, eax
  0004d	75 14		 jne	 SHORT $LN5@ChangeAllS
$LN39@ChangeAllS:

; 545  : 		return false;

  0004f	32 c0		 xor	 al, al

; 560  : }

  00051	8b 4d f4	 mov	 ecx, DWORD PTR __$EHRec$[ebp]
  00054	64 89 0d 00 00
	00 00		 mov	 DWORD PTR fs:0, ecx
  0005b	59		 pop	 ecx
  0005c	5f		 pop	 edi
  0005d	5e		 pop	 esi
  0005e	5b		 pop	 ebx
  0005f	8b e5		 mov	 esp, ebp
  00061	5d		 pop	 ebp
  00062	c3		 ret	 0
$LN5@ChangeAllS:

; 344  : 	return m_graphPartData.GetSubGraphPartDataCount();

  00063	8b cf		 mov	 ecx, edi

; 546  : 
; 547  : 	bool bResult = false;

  00065	32 db		 xor	 bl, bl

; 344  : 	return m_graphPartData.GetSubGraphPartDataCount();

  00067	e8 00 00 00 00	 call	 ?GetSubGraphPartDataCount@CGraphPartData@@QBEHXZ ; CGraphPartData::GetSubGraphPartDataCount

; 548  : 	int nCount = GetSubGraphCount();
; 549  : 	for(int nIndex = 0; nIndex < nCount; nIndex++)

  0006c	33 f6		 xor	 esi, esi
  0006e	89 45 ec	 mov	 DWORD PTR _nCount$1$[ebp], eax
  00071	85 c0		 test	 eax, eax
  00073	7e 4b		 jle	 SHORT $LN3@ChangeAllS
$LL4@ChangeAllS:

; 382  : 	return m_graphPartData.GetSubGraphTitle(nIndex);

  00075	56		 push	 esi
  00076	8d 45 f0	 lea	 eax, DWORD PTR _strTitle$2[ebp]
  00079	8b cf		 mov	 ecx, edi
  0007b	50		 push	 eax
  0007c	e8 00 00 00 00	 call	 ?GetSubGraphTitle@CGraphPartData@@QBE?AV?$CStringT@DV?$StrTraitMFC_DLL@DV?$ChTraitsCRT@D@ATL@@@@@ATL@@H@Z ; CGraphPartData::GetSubGraphTitle
; File C:\Program Files (x86)\Microsoft Visual Studio\2019\Community\VC\Tools\MSVC\14.29.30133\atlmfc\include\atlsimpstr.h

; 519  : 		return( GetData()->nDataLength );

  00081	8b 45 f0	 mov	 eax, DWORD PTR _strTitle$2[ebp]
; File D:\git\src\IBK\IBK_DRFN\ProjSrc\SrcChartEx\ChartOCX\IndicatorCondition\IndicatorInfoImplementation.cpp

; 551  : 		CString strTitle = GetSubGraphTitle(nIndex);

  00084	c7 45 fc 00 00
	00 00		 mov	 DWORD PTR __$EHRec$[ebp+8], 0
; File C:\Program Files (x86)\Microsoft Visual Studio\2019\Community\VC\Tools\MSVC\14.29.30133\atlmfc\include\atlsimpstr.h

; 533  : 		return( GetLength() == 0 );

  0008b	83 78 f4 00	 cmp	 DWORD PTR [eax-12], 0
; File D:\git\src\IBK\IBK_DRFN\ProjSrc\SrcChartEx\ChartOCX\IndicatorCondition\IndicatorInfoImplementation.cpp

; 552  : 		if(strTitle.IsEmpty())

  0008f	74 19		 je	 SHORT $LN41@ChangeAllS

; 516  : 	return m_graphPartData.SetSubGraphTitle(nIndex, strTitle);

  00091	8d 45 f0	 lea	 eax, DWORD PTR _strTitle$2[ebp]
  00094	8b cf		 mov	 ecx, edi
  00096	50		 push	 eax
  00097	56		 push	 esi
  00098	e8 00 00 00 00	 call	 ?SetSubGraphTitle@CGraphPartData@@QAE_NHABV?$CStringT@DV?$StrTraitMFC_DLL@DV?$ChTraitsCRT@D@ATL@@@@@ATL@@@Z ; CGraphPartData::SetSubGraphTitle

; 553  : 			continue;
; 554  : 
; 555  : 		if(SetSubGraphTitle(nIndex, strTitle))

  0009d	84 c0		 test	 al, al
  0009f	0f b6 db	 movzx	 ebx, bl
  000a2	b8 01 00 00 00	 mov	 eax, 1
  000a7	0f 45 d8	 cmovne	 ebx, eax
$LN41@ChangeAllS:

; 548  : 	int nCount = GetSubGraphCount();
; 549  : 	for(int nIndex = 0; nIndex < nCount; nIndex++)

  000aa	8d 4d f0	 lea	 ecx, DWORD PTR _strTitle$2[ebp]
  000ad	c7 45 fc ff ff
	ff ff		 mov	 DWORD PTR __$EHRec$[ebp+8], -1
  000b4	ff 15 00 00 00
	00		 call	 DWORD PTR __imp_??1?$CStringT@DV?$StrTraitMFC_DLL@DV?$ChTraitsCRT@D@ATL@@@@@ATL@@QAE@XZ
  000ba	46		 inc	 esi
  000bb	3b 75 ec	 cmp	 esi, DWORD PTR _nCount$1$[ebp]
  000be	7c b5		 jl	 SHORT $LL4@ChangeAllS
$LN3@ChangeAllS:

; 556  : 			bResult = true;
; 557  : 	}
; 558  : 
; 559  : 	return bResult;

  000c0	8a c3		 mov	 al, bl

; 560  : }

  000c2	8b 4d f4	 mov	 ecx, DWORD PTR __$EHRec$[ebp]
  000c5	64 89 0d 00 00
	00 00		 mov	 DWORD PTR fs:0, ecx
  000cc	59		 pop	 ecx
  000cd	5f		 pop	 edi
  000ce	5e		 pop	 esi
  000cf	5b		 pop	 ebx
  000d0	8b e5		 mov	 esp, ebp
  000d2	5d		 pop	 ebp
  000d3	c3		 ret	 0
_TEXT	ENDS
;	COMDAT text$x
text$x	SEGMENT
__unwindfunclet$?ChangeAllSubGraphTitleFromCalConditionData@CIndicatorInfoImplementation@@QAE_NXZ$0:
  00000	8d 4d f0	 lea	 ecx, DWORD PTR _strTitle$2[ebp]
  00003	ff 25 00 00 00
	00		 jmp	 DWORD PTR __imp_??1?$CStringT@DV?$StrTraitMFC_DLL@DV?$ChTraitsCRT@D@ATL@@@@@ATL@@QAE@XZ
  00009	cc		 int	 3
  0000a	cc		 int	 3
  0000b	cc		 int	 3
  0000c	cc		 int	 3
  0000d	cc		 int	 3
__ehhandler$?ChangeAllSubGraphTitleFromCalConditionData@CIndicatorInfoImplementation@@QAE_NXZ:
  0000e	90		 npad	 1
  0000f	90		 npad	 1
  00010	8b 54 24 08	 mov	 edx, DWORD PTR [esp+8]
  00014	8d 42 0c	 lea	 eax, DWORD PTR [edx+12]
  00017	8b 4a e8	 mov	 ecx, DWORD PTR [edx-24]
  0001a	33 c8		 xor	 ecx, eax
  0001c	e8 00 00 00 00	 call	 @__security_check_cookie@4
  00021	b8 00 00 00 00	 mov	 eax, OFFSET __ehfuncinfo$?ChangeAllSubGraphTitleFromCalConditionData@CIndicatorInfoImplementation@@QAE_NXZ
  00026	e9 00 00 00 00	 jmp	 ___CxxFrameHandler3
text$x	ENDS
?ChangeAllSubGraphTitleFromCalConditionData@CIndicatorInfoImplementation@@QAE_NXZ ENDP ; CIndicatorInfoImplementation::ChangeAllSubGraphTitleFromCalConditionData
; Function compile flags: /Ogtp
; File D:\git\src\IBK\IBK_DRFN\ProjSrc\SrcChartEx\ChartOCX\IndicatorCondition\IndicatorInfoImplementation.cpp
;	COMDAT ?SetSubGraphPenThickness@CIndicatorInfoImplementation@@QAE_NHH@Z
_TEXT	SEGMENT
$T1 = -20						; size = 20
_nIndex$ = 8						; size = 4
_nPenThickness$ = 12					; size = 4
?SetSubGraphPenThickness@CIndicatorInfoImplementation@@QAE_NHH@Z PROC ; CIndicatorInfoImplementation::SetSubGraphPenThickness, COMDAT
; _this$ = ecx

; 535  : {

  00000	55		 push	 ebp
  00001	8b ec		 mov	 ebp, esp

; 536  : 	//  ,   - ojtaso (20071213)
; 537  : 	return m_graphPartData.SetSubGraphPenThickness(nIndex, CPenThickness(nPenThickness, nPenThickness, nPenThickness, nPenThickness));

  00003	8b 45 0c	 mov	 eax, DWORD PTR _nPenThickness$[ebp]
  00006	83 ec 14	 sub	 esp, 20			; 00000014H
  00009	56		 push	 esi
  0000a	6a 00		 push	 0
  0000c	50		 push	 eax
  0000d	50		 push	 eax
  0000e	50		 push	 eax
  0000f	8b f1		 mov	 esi, ecx
  00011	8d 4d ec	 lea	 ecx, DWORD PTR $T1[ebp]
  00014	50		 push	 eax
  00015	e8 00 00 00 00	 call	 ??0CPenThickness@@QAE@HHHH_N@Z ; CPenThickness::CPenThickness
  0001a	50		 push	 eax
  0001b	ff 75 08	 push	 DWORD PTR _nIndex$[ebp]
  0001e	8d 4e 08	 lea	 ecx, DWORD PTR [esi+8]
  00021	e8 00 00 00 00	 call	 ?SetSubGraphPenThickness@CGraphPartData@@QAE_NHABVCPenThickness@@@Z ; CGraphPartData::SetSubGraphPenThickness
  00026	5e		 pop	 esi

; 538  : }

  00027	8b e5		 mov	 esp, ebp
  00029	5d		 pop	 ebp
  0002a	c2 08 00	 ret	 8
?SetSubGraphPenThickness@CIndicatorInfoImplementation@@QAE_NHH@Z ENDP ; CIndicatorInfoImplementation::SetSubGraphPenThickness
_TEXT	ENDS
; Function compile flags: /Ogtp
; File D:\git\src\IBK\IBK_DRFN\ProjSrc\SrcChartEx\ChartOCX\IndicatorCondition\IndicatorInfoImplementation.cpp
;	COMDAT ?SetSubGraphPenThickness@CIndicatorInfoImplementation@@QAE_NHABVCPenThickness@@@Z
_TEXT	SEGMENT
_nIndex$ = 8						; size = 4
_penThickness$ = 12					; size = 4
?SetSubGraphPenThickness@CIndicatorInfoImplementation@@QAE_NHABVCPenThickness@@@Z PROC ; CIndicatorInfoImplementation::SetSubGraphPenThickness, COMDAT
; _this$ = ecx

; 530  : {

  00000	55		 push	 ebp
  00001	8b ec		 mov	 ebp, esp

; 531  : 	return m_graphPartData.SetSubGraphPenThickness(nIndex, penThickness);

  00003	83 c1 08	 add	 ecx, 8

; 532  : }

  00006	5d		 pop	 ebp

; 531  : 	return m_graphPartData.SetSubGraphPenThickness(nIndex, penThickness);

  00007	e9 00 00 00 00	 jmp	 ?SetSubGraphPenThickness@CGraphPartData@@QAE_NHABVCPenThickness@@@Z ; CGraphPartData::SetSubGraphPenThickness
?SetSubGraphPenThickness@CIndicatorInfoImplementation@@QAE_NHABVCPenThickness@@@Z ENDP ; CIndicatorInfoImplementation::SetSubGraphPenThickness
_TEXT	ENDS
; Function compile flags: /Ogtp
; File D:\git\src\IBK\IBK_DRFN\ProjSrc\SrcChartEx\ChartOCX\IndicatorCondition\IndicatorInfoImplementation.cpp
;	COMDAT ?SetSubGraphColor@CIndicatorInfoImplementation@@QAE_NHABK@Z
_TEXT	SEGMENT
$T1 = -44						; size = 44
_nIndex$ = 8						; size = 4
_lineColor$ = 12					; size = 4
?SetSubGraphColor@CIndicatorInfoImplementation@@QAE_NHABK@Z PROC ; CIndicatorInfoImplementation::SetSubGraphColor, COMDAT
; _this$ = ecx

; 525  : {

  00000	55		 push	 ebp
  00001	8b ec		 mov	 ebp, esp

; 526  : 	return m_graphPartData.SetSubGraphColor(nIndex, CGraphColor(lineColor, lineColor, lineColor, lineColor, lineColor, lineColor));

  00003	8b 45 0c	 mov	 eax, DWORD PTR _lineColor$[ebp]
  00006	83 ec 2c	 sub	 esp, 44			; 0000002cH
  00009	56		 push	 esi
  0000a	50		 push	 eax
  0000b	50		 push	 eax
  0000c	50		 push	 eax
  0000d	50		 push	 eax
  0000e	50		 push	 eax
  0000f	8b f1		 mov	 esi, ecx
  00011	8d 4d d4	 lea	 ecx, DWORD PTR $T1[ebp]
  00014	50		 push	 eax
  00015	e8 00 00 00 00	 call	 ??0CGraphColor@@QAE@ABK00000@Z ; CGraphColor::CGraphColor
  0001a	50		 push	 eax
  0001b	ff 75 08	 push	 DWORD PTR _nIndex$[ebp]
  0001e	8d 4e 08	 lea	 ecx, DWORD PTR [esi+8]
  00021	e8 00 00 00 00	 call	 ?SetSubGraphColor@CGraphPartData@@QAE_NHABVCGraphColor@@@Z ; CGraphPartData::SetSubGraphColor
  00026	5e		 pop	 esi

; 527  : }

  00027	8b e5		 mov	 esp, ebp
  00029	5d		 pop	 ebp
  0002a	c2 08 00	 ret	 8
?SetSubGraphColor@CIndicatorInfoImplementation@@QAE_NHABK@Z ENDP ; CIndicatorInfoImplementation::SetSubGraphColor
_TEXT	ENDS
; Function compile flags: /Ogtp
; File D:\git\src\IBK\IBK_DRFN\ProjSrc\SrcChartEx\ChartOCX\IndicatorCondition\IndicatorInfoImplementation.cpp
;	COMDAT ?SetSubGraphColor@CIndicatorInfoImplementation@@QAE_NHABVCGraphColor@@@Z
_TEXT	SEGMENT
_nIndex$ = 8						; size = 4
_graphColor$ = 12					; size = 4
?SetSubGraphColor@CIndicatorInfoImplementation@@QAE_NHABVCGraphColor@@@Z PROC ; CIndicatorInfoImplementation::SetSubGraphColor, COMDAT
; _this$ = ecx

; 520  : {

  00000	55		 push	 ebp
  00001	8b ec		 mov	 ebp, esp

; 521  : 	return m_graphPartData.SetSubGraphColor(nIndex, graphColor);

  00003	83 c1 08	 add	 ecx, 8

; 522  : }

  00006	5d		 pop	 ebp

; 521  : 	return m_graphPartData.SetSubGraphColor(nIndex, graphColor);

  00007	e9 00 00 00 00	 jmp	 ?SetSubGraphColor@CGraphPartData@@QAE_NHABVCGraphColor@@@Z ; CGraphPartData::SetSubGraphColor
?SetSubGraphColor@CIndicatorInfoImplementation@@QAE_NHABVCGraphColor@@@Z ENDP ; CIndicatorInfoImplementation::SetSubGraphColor
_TEXT	ENDS
; Function compile flags: /Ogtp
; File D:\git\src\IBK\IBK_DRFN\ProjSrc\SrcChartEx\ChartOCX\IndicatorCondition\IndicatorInfoImplementation.cpp
;	COMDAT ?SetSubGraphTitle@CIndicatorInfoImplementation@@QAE_NHABV?$CStringT@DV?$StrTraitMFC_DLL@DV?$ChTraitsCRT@D@ATL@@@@@ATL@@@Z
_TEXT	SEGMENT
_nIndex$ = 8						; size = 4
_strTitle$ = 12						; size = 4
?SetSubGraphTitle@CIndicatorInfoImplementation@@QAE_NHABV?$CStringT@DV?$StrTraitMFC_DLL@DV?$ChTraitsCRT@D@ATL@@@@@ATL@@@Z PROC ; CIndicatorInfoImplementation::SetSubGraphTitle, COMDAT
; _this$ = ecx

; 515  : {

  00000	55		 push	 ebp
  00001	8b ec		 mov	 ebp, esp

; 516  : 	return m_graphPartData.SetSubGraphTitle(nIndex, strTitle);

  00003	83 c1 08	 add	 ecx, 8

; 517  : }

  00006	5d		 pop	 ebp

; 516  : 	return m_graphPartData.SetSubGraphTitle(nIndex, strTitle);

  00007	e9 00 00 00 00	 jmp	 ?SetSubGraphTitle@CGraphPartData@@QAE_NHABV?$CStringT@DV?$StrTraitMFC_DLL@DV?$ChTraitsCRT@D@ATL@@@@@ATL@@@Z ; CGraphPartData::SetSubGraphTitle
?SetSubGraphTitle@CIndicatorInfoImplementation@@QAE_NHABV?$CStringT@DV?$StrTraitMFC_DLL@DV?$ChTraitsCRT@D@ATL@@@@@ATL@@@Z ENDP ; CIndicatorInfoImplementation::SetSubGraphTitle
_TEXT	ENDS
; Function compile flags: /Ogtp
; File D:\git\src\IBK\IBK_DRFN\ProjSrc\SrcChartEx\ChartOCX\IndicatorCondition\IndicatorInfoImplementation.cpp
;	COMDAT ?SetSubGraphData@CIndicatorInfoImplementation@@QAE_NPBVCSubGraphData@@@Z
_TEXT	SEGMENT
_pSourceData$ = 8					; size = 4
?SetSubGraphData@CIndicatorInfoImplementation@@QAE_NPBVCSubGraphData@@@Z PROC ; CIndicatorInfoImplementation::SetSubGraphData, COMDAT
; _this$ = ecx

; 510  : {

  00000	55		 push	 ebp
  00001	8b ec		 mov	 ebp, esp

; 511  : 	return m_graphPartData.SetSubGraphData(pSourceData);

  00003	83 c1 08	 add	 ecx, 8

; 512  : }

  00006	5d		 pop	 ebp

; 511  : 	return m_graphPartData.SetSubGraphData(pSourceData);

  00007	e9 00 00 00 00	 jmp	 ?SetSubGraphData@CGraphPartData@@QAE_NPBVCSubGraphData@@@Z ; CGraphPartData::SetSubGraphData
?SetSubGraphData@CIndicatorInfoImplementation@@QAE_NPBVCSubGraphData@@@Z ENDP ; CIndicatorInfoImplementation::SetSubGraphData
_TEXT	ENDS
; Function compile flags: /Ogtp
; File D:\git\src\IBK\IBK_DRFN\ProjSrc\SrcChartEx\ChartOCX\IndicatorCondition\IndicatorInfoImplementation.cpp
;	COMDAT ?SetAllSubGraphDataList@CIndicatorInfoImplementation@@QAE_NPBV?$CList@PAVCSubGraphData@@PAV1@@@_N@Z
_TEXT	SEGMENT
_pSubGraphDataList$ = 8					; size = 4
_bAutoCalConditionData$ = 12				; size = 1
?SetAllSubGraphDataList@CIndicatorInfoImplementation@@QAE_NPBV?$CList@PAVCSubGraphData@@PAV1@@@_N@Z PROC ; CIndicatorInfoImplementation::SetAllSubGraphDataList, COMDAT
; _this$ = ecx

; 494  : {

  00000	55		 push	 ebp
  00001	8b ec		 mov	 ebp, esp
  00003	53		 push	 ebx
  00004	56		 push	 esi
  00005	8b f1		 mov	 esi, ecx
  00007	57		 push	 edi

; 495  : 	bool bResult = m_graphPartData.SetAllSubGraphDataList(pSubGraphDataList);

  00008	ff 75 08	 push	 DWORD PTR _pSubGraphDataList$[ebp]
  0000b	8d 4e 08	 lea	 ecx, DWORD PTR [esi+8]
  0000e	e8 00 00 00 00	 call	 ?SetAllSubGraphDataList@CGraphPartData@@QAE_NPBV?$CList@PAVCSubGraphData@@PAV1@@@@Z ; CGraphPartData::SetAllSubGraphDataList

; 496  : 
; 497  : 	// < >, < >    title   
; 498  : 	//   title   .
; 499  : 	// -> subGraphData     !
; 500  : 	if(bAutoCalConditionData)

  00013	80 7d 0c 00	 cmp	 BYTE PTR _bAutoCalConditionData$[ebp], 0
  00017	8a d8		 mov	 bl, al
  00019	74 0f		 je	 SHORT $LN4@SetAllSubG

; 501  : 	{
; 502  : 		ChangeCalConditionDataFromSubGraphTitle();

  0001b	8b ce		 mov	 ecx, esi
  0001d	e8 00 00 00 00	 call	 ?ChangeCalConditionDataFromSubGraphTitle@CIndicatorInfoImplementation@@AAE_NXZ ; CIndicatorInfoImplementation::ChangeCalConditionDataFromSubGraphTitle

; 503  : 		m_graphPartData.ChangeCalConditionDataFromSubGraphTitle();

  00022	8d 4e 08	 lea	 ecx, DWORD PTR [esi+8]
  00025	e8 00 00 00 00	 call	 ?ChangeCalConditionDataFromSubGraphTitle@CGraphPartData@@QAE_NXZ ; CGraphPartData::ChangeCalConditionDataFromSubGraphTitle
$LN4@SetAllSubG:

; 504  : 	}
; 505  : 	
; 506  : 	return bResult;
; 507  : }

  0002a	5f		 pop	 edi
  0002b	5e		 pop	 esi
  0002c	8a c3		 mov	 al, bl
  0002e	5b		 pop	 ebx
  0002f	5d		 pop	 ebp
  00030	c2 08 00	 ret	 8
?SetAllSubGraphDataList@CIndicatorInfoImplementation@@QAE_NPBV?$CList@PAVCSubGraphData@@PAV1@@@_N@Z ENDP ; CIndicatorInfoImplementation::SetAllSubGraphDataList
_TEXT	ENDS
; Function compile flags: /Ogtp
; File D:\git\src\IBK\IBK_DRFN\ProjSrc\SrcChartEx\ChartOCX\IndicatorCondition\IndicatorInfoImplementation.cpp
;	COMDAT ?SetSignalData@CIndicatorInfoImplementation@@QAEXABVCSignalData@@@Z
_TEXT	SEGMENT
_signalData$ = 8					; size = 4
?SetSignalData@CIndicatorInfoImplementation@@QAEXABVCSignalData@@@Z PROC ; CIndicatorInfoImplementation::SetSignalData, COMDAT
; _this$ = ecx

; 488  : {

  00000	55		 push	 ebp
  00001	8b ec		 mov	 ebp, esp

; 489  : 	m_graphPartData.GetGraphData().SetSignalData(signalData);

  00003	ff 75 08	 push	 DWORD PTR _signalData$[ebp]
  00006	83 c1 08	 add	 ecx, 8
  00009	e8 00 00 00 00	 call	 ?GetGraphData@CGraphPartData@@QAEAAVCGraphData@@XZ ; CGraphPartData::GetGraphData
  0000e	8b c8		 mov	 ecx, eax
  00010	e8 00 00 00 00	 call	 ?SetSignalData@CGraphData@@QAEXABVCSignalData@@@Z ; CGraphData::SetSignalData

; 490  : }

  00015	5d		 pop	 ebp
  00016	c2 04 00	 ret	 4
?SetSignalData@CIndicatorInfoImplementation@@QAEXABVCSignalData@@@Z ENDP ; CIndicatorInfoImplementation::SetSignalData
_TEXT	ENDS
; Function compile flags: /Ogtp
; File D:\git\src\IBK\IBK_DRFN\ProjSrc\SrcChartEx\ChartOCX\IndicatorCondition\IndicatorInfoImplementation.cpp
;	COMDAT ?SetPacketNames@CIndicatorInfoImplementation@@QAE_NHABV?$CStringT@DV?$StrTraitMFC_DLL@DV?$ChTraitsCRT@D@ATL@@@@@ATL@@@Z
_TEXT	SEGMENT
_nSubGraphIndex$ = 8					; size = 4
_strPacketNames$ = 12					; size = 4
?SetPacketNames@CIndicatorInfoImplementation@@QAE_NHABV?$CStringT@DV?$StrTraitMFC_DLL@DV?$ChTraitsCRT@D@ATL@@@@@ATL@@@Z PROC ; CIndicatorInfoImplementation::SetPacketNames, COMDAT
; _this$ = ecx

; 483  : {

  00000	55		 push	 ebp
  00001	8b ec		 mov	 ebp, esp

; 484  : 	return m_graphPartData.SetPacketNames(nSubGraphIndex, strPacketNames);

  00003	83 c1 08	 add	 ecx, 8

; 485  : }

  00006	5d		 pop	 ebp

; 484  : 	return m_graphPartData.SetPacketNames(nSubGraphIndex, strPacketNames);

  00007	e9 00 00 00 00	 jmp	 ?SetPacketNames@CGraphPartData@@QAE_NHABV?$CStringT@DV?$StrTraitMFC_DLL@DV?$ChTraitsCRT@D@ATL@@@@@ATL@@@Z ; CGraphPartData::SetPacketNames
?SetPacketNames@CIndicatorInfoImplementation@@QAE_NHABV?$CStringT@DV?$StrTraitMFC_DLL@DV?$ChTraitsCRT@D@ATL@@@@@ATL@@@Z ENDP ; CIndicatorInfoImplementation::SetPacketNames
_TEXT	ENDS
; Function compile flags: /Ogtp
; File D:\git\src\IBK\IBK_DRFN\ProjSrc\SrcChartEx\ChartOCX\IndicatorCondition\IndicatorInfoImplementation.cpp
;	COMDAT ?SetAllPacketNames_SubGraphPart@CIndicatorInfoImplementation@@QAE_NABV?$CStringT@DV?$StrTraitMFC_DLL@DV?$ChTraitsCRT@D@ATL@@@@@ATL@@_N@Z
_TEXT	SEGMENT
_strPacketNames$ = 8					; size = 4
_bIsAutoCheck$ = 12					; size = 1
?SetAllPacketNames_SubGraphPart@CIndicatorInfoImplementation@@QAE_NABV?$CStringT@DV?$StrTraitMFC_DLL@DV?$ChTraitsCRT@D@ATL@@@@@ATL@@_N@Z PROC ; CIndicatorInfoImplementation::SetAllPacketNames_SubGraphPart, COMDAT
; _this$ = ecx

; 478  : {

  00000	55		 push	 ebp
  00001	8b ec		 mov	 ebp, esp

; 479  : 	return m_graphPartData.SetAllPacketNames_SubGraphPart(strPacketNames, bIsAutoCheck);

  00003	83 c1 08	 add	 ecx, 8

; 480  : }

  00006	5d		 pop	 ebp

; 479  : 	return m_graphPartData.SetAllPacketNames_SubGraphPart(strPacketNames, bIsAutoCheck);

  00007	e9 00 00 00 00	 jmp	 ?SetAllPacketNames_SubGraphPart@CGraphPartData@@QAE_NABV?$CStringT@DV?$StrTraitMFC_DLL@DV?$ChTraitsCRT@D@ATL@@@@@ATL@@_N@Z ; CGraphPartData::SetAllPacketNames_SubGraphPart
?SetAllPacketNames_SubGraphPart@CIndicatorInfoImplementation@@QAE_NABV?$CStringT@DV?$StrTraitMFC_DLL@DV?$ChTraitsCRT@D@ATL@@@@@ATL@@_N@Z ENDP ; CIndicatorInfoImplementation::SetAllPacketNames_SubGraphPart
_TEXT	ENDS
; Function compile flags: /Ogtp
; File D:\git\src\IBK\IBK_DRFN\ProjSrc\SrcChartEx\ChartOCX\IndicatorCondition\IndicatorInfoImplementation.cpp
; File C:\Program Files (x86)\Microsoft Visual Studio\2019\Community\VC\Tools\MSVC\14.29.30133\atlmfc\include\atlsimpstr.h
; File C:\Program Files (x86)\Microsoft Visual Studio\2019\Community\VC\Tools\MSVC\14.29.30133\atlmfc\include\cstringt.h
; File D:\git\src\IBK\IBK_DRFN\ProjSrc\SrcChartEx\ChartOCX\IndicatorCondition\IndicatorInfoImplementation.cpp
; File C:\Program Files (x86)\Microsoft Visual Studio\2019\Community\VC\Tools\MSVC\14.29.30133\atlmfc\include\cstringt.h
; File D:\git\src\IBK\IBK_DRFN\ProjSrc\SrcChartEx\ChartOCX\IndicatorCondition\IndicatorInfoImplementation.cpp
; File C:\Program Files (x86)\Microsoft Visual Studio\2019\Community\VC\Tools\MSVC\14.29.30133\atlmfc\include\cstringt.h
; File D:\git\src\IBK\IBK_DRFN\ProjSrc\SrcChartEx\ChartOCX\IndicatorCondition\IndicatorInfoImplementation.cpp
;	COMDAT ?SetCommonPacketNames@CIndicatorInfoImplementation@@QAE_NABV?$CStringT@DV?$StrTraitMFC_DLL@DV?$ChTraitsCRT@D@ATL@@@@@ATL@@@Z
_TEXT	SEGMENT
$T2 = -16						; size = 4
__$EHRec$ = -12						; size = 12
_strPacketNames$ = 8					; size = 4
?SetCommonPacketNames@CIndicatorInfoImplementation@@QAE_NABV?$CStringT@DV?$StrTraitMFC_DLL@DV?$ChTraitsCRT@D@ATL@@@@@ATL@@@Z PROC ; CIndicatorInfoImplementation::SetCommonPacketNames, COMDAT
; _this$ = ecx

; 469  : {

  00000	55		 push	 ebp
  00001	8b ec		 mov	 ebp, esp
  00003	6a ff		 push	 -1
  00005	68 00 00 00 00	 push	 __ehhandler$?SetCommonPacketNames@CIndicatorInfoImplementation@@QAE_NABV?$CStringT@DV?$StrTraitMFC_DLL@DV?$ChTraitsCRT@D@ATL@@@@@ATL@@@Z
  0000a	64 a1 00 00 00
	00		 mov	 eax, DWORD PTR fs:0
  00010	50		 push	 eax
  00011	51		 push	 ecx
  00012	53		 push	 ebx
  00013	56		 push	 esi
  00014	57		 push	 edi
  00015	a1 00 00 00 00	 mov	 eax, DWORD PTR ___security_cookie
  0001a	33 c5		 xor	 eax, ebp
  0001c	50		 push	 eax
  0001d	8d 45 f4	 lea	 eax, DWORD PTR __$EHRec$[ebp]
  00020	64 a3 00 00 00
	00		 mov	 DWORD PTR fs:0, eax

; 470  : 	if(m_graphPartData.GetGraphData().GetPacketNames() == strPacketNames)

  00026	8d 79 08	 lea	 edi, DWORD PTR [ecx+8]
  00029	8d 45 f0	 lea	 eax, DWORD PTR $T2[ebp]
  0002c	8b cf		 mov	 ecx, edi
  0002e	50		 push	 eax
  0002f	e8 00 00 00 00	 call	 ?GetGraphData@CGraphPartData@@QAEAAVCGraphData@@XZ ; CGraphPartData::GetGraphData
  00034	8b c8		 mov	 ecx, eax
  00036	e8 00 00 00 00	 call	 ?GetPacketNames@CGraphData@@QBE?AV?$CStringT@DV?$StrTraitMFC_DLL@DV?$ChTraitsCRT@D@ATL@@@@@ATL@@XZ ; CGraphData::GetPacketNames
; File C:\Program Files (x86)\Microsoft Visual Studio\2019\Community\VC\Tools\MSVC\14.29.30133\atlmfc\include\atlsimpstr.h

; 377  : 		return( m_pszData );

  0003b	8b 5d 08	 mov	 ebx, DWORD PTR _strPacketNames$[ebp]
; File C:\Program Files (x86)\Microsoft Visual Studio\2019\Community\VC\Tools\MSVC\14.29.30133\atlmfc\include\cstringt.h

; 2479 : 		return(str1.Compare(str2) == 0);

  0003e	8b c8		 mov	 ecx, eax
; File D:\git\src\IBK\IBK_DRFN\ProjSrc\SrcChartEx\ChartOCX\IndicatorCondition\IndicatorInfoImplementation.cpp

; 470  : 	if(m_graphPartData.GetGraphData().GetPacketNames() == strPacketNames)

  00040	c7 45 fc 00 00
	00 00		 mov	 DWORD PTR __$EHRec$[ebp+8], 0
; File C:\Program Files (x86)\Microsoft Visual Studio\2019\Community\VC\Tools\MSVC\14.29.30133\atlmfc\include\cstringt.h

; 2479 : 		return(str1.Compare(str2) == 0);

  00047	ff 33		 push	 DWORD PTR [ebx]
  00049	ff 15 00 00 00
	00		 call	 DWORD PTR __imp_?Compare@?$CStringT@DV?$StrTraitMFC_DLL@DV?$ChTraitsCRT@D@ATL@@@@@ATL@@QBEHPBD@Z
; File D:\git\src\IBK\IBK_DRFN\ProjSrc\SrcChartEx\ChartOCX\IndicatorCondition\IndicatorInfoImplementation.cpp

; 470  : 	if(m_graphPartData.GetGraphData().GetPacketNames() == strPacketNames)

  0004f	8d 4d f0	 lea	 ecx, DWORD PTR $T2[ebp]
  00052	c7 45 fc ff ff
	ff ff		 mov	 DWORD PTR __$EHRec$[ebp+8], -1
; File C:\Program Files (x86)\Microsoft Visual Studio\2019\Community\VC\Tools\MSVC\14.29.30133\atlmfc\include\cstringt.h

; 2479 : 		return(str1.Compare(str2) == 0);

  00059	8b f0		 mov	 esi, eax
; File D:\git\src\IBK\IBK_DRFN\ProjSrc\SrcChartEx\ChartOCX\IndicatorCondition\IndicatorInfoImplementation.cpp

; 470  : 	if(m_graphPartData.GetGraphData().GetPacketNames() == strPacketNames)

  0005b	ff 15 00 00 00
	00		 call	 DWORD PTR __imp_??1?$CStringT@DV?$StrTraitMFC_DLL@DV?$ChTraitsCRT@D@ATL@@@@@ATL@@QAE@XZ
  00061	85 f6		 test	 esi, esi
  00063	75 16		 jne	 SHORT $LN2@SetCommonP

; 471  : 		return false;

  00065	32 c0		 xor	 al, al

; 475  : }

  00067	8b 4d f4	 mov	 ecx, DWORD PTR __$EHRec$[ebp]
  0006a	64 89 0d 00 00
	00 00		 mov	 DWORD PTR fs:0, ecx
  00071	59		 pop	 ecx
  00072	5f		 pop	 edi
  00073	5e		 pop	 esi
  00074	5b		 pop	 ebx
  00075	8b e5		 mov	 esp, ebp
  00077	5d		 pop	 ebp
  00078	c2 04 00	 ret	 4
$LN2@SetCommonP:

; 472  : 
; 473  : 	m_graphPartData.GetGraphData().SetPacketNames(strPacketNames);

  0007b	53		 push	 ebx
  0007c	8b cf		 mov	 ecx, edi
  0007e	e8 00 00 00 00	 call	 ?GetGraphData@CGraphPartData@@QAEAAVCGraphData@@XZ ; CGraphPartData::GetGraphData
  00083	8b c8		 mov	 ecx, eax
  00085	e8 00 00 00 00	 call	 ?SetPacketNames@CGraphData@@QAEXABV?$CStringT@DV?$StrTraitMFC_DLL@DV?$ChTraitsCRT@D@ATL@@@@@ATL@@@Z ; CGraphData::SetPacketNames

; 474  : 	return true;

  0008a	b0 01		 mov	 al, 1

; 475  : }

  0008c	8b 4d f4	 mov	 ecx, DWORD PTR __$EHRec$[ebp]
  0008f	64 89 0d 00 00
	00 00		 mov	 DWORD PTR fs:0, ecx
  00096	59		 pop	 ecx
  00097	5f		 pop	 edi
  00098	5e		 pop	 esi
  00099	5b		 pop	 ebx
  0009a	8b e5		 mov	 esp, ebp
  0009c	5d		 pop	 ebp
  0009d	c2 04 00	 ret	 4
_TEXT	ENDS
;	COMDAT text$x
text$x	SEGMENT
__unwindfunclet$?SetCommonPacketNames@CIndicatorInfoImplementation@@QAE_NABV?$CStringT@DV?$StrTraitMFC_DLL@DV?$ChTraitsCRT@D@ATL@@@@@ATL@@@Z$0:
  00000	8d 4d f0	 lea	 ecx, DWORD PTR $T2[ebp]
  00003	ff 25 00 00 00
	00		 jmp	 DWORD PTR __imp_??1?$CStringT@DV?$StrTraitMFC_DLL@DV?$ChTraitsCRT@D@ATL@@@@@ATL@@QAE@XZ
  00009	cc		 int	 3
  0000a	cc		 int	 3
  0000b	cc		 int	 3
  0000c	cc		 int	 3
  0000d	cc		 int	 3
__ehhandler$?SetCommonPacketNames@CIndicatorInfoImplementation@@QAE_NABV?$CStringT@DV?$StrTraitMFC_DLL@DV?$ChTraitsCRT@D@ATL@@@@@ATL@@@Z:
  0000e	90		 npad	 1
  0000f	90		 npad	 1
  00010	8b 54 24 08	 mov	 edx, DWORD PTR [esp+8]
  00014	8d 42 0c	 lea	 eax, DWORD PTR [edx+12]
  00017	8b 4a ec	 mov	 ecx, DWORD PTR [edx-20]
  0001a	33 c8		 xor	 ecx, eax
  0001c	e8 00 00 00 00	 call	 @__security_check_cookie@4
  00021	b8 00 00 00 00	 mov	 eax, OFFSET __ehfuncinfo$?SetCommonPacketNames@CIndicatorInfoImplementation@@QAE_NABV?$CStringT@DV?$StrTraitMFC_DLL@DV?$ChTraitsCRT@D@ATL@@@@@ATL@@@Z
  00026	e9 00 00 00 00	 jmp	 ___CxxFrameHandler3
text$x	ENDS
?SetCommonPacketNames@CIndicatorInfoImplementation@@QAE_NABV?$CStringT@DV?$StrTraitMFC_DLL@DV?$ChTraitsCRT@D@ATL@@@@@ATL@@@Z ENDP ; CIndicatorInfoImplementation::SetCommonPacketNames
; Function compile flags: /Ogtp
; File D:\git\src\IBK\IBK_DRFN\ProjSrc\SrcChartEx\ChartOCX\IndicatorCondition\IndicatorInfoImplementation.cpp
;	COMDAT ?SetGraphData@CIndicatorInfoImplementation@@QAE_NABVCGraphData@@_N@Z
_TEXT	SEGMENT
_graphData$ = 8						; size = 4
_bIsAutoCheck$ = 12					; size = 1
?SetGraphData@CIndicatorInfoImplementation@@QAE_NABVCGraphData@@_N@Z PROC ; CIndicatorInfoImplementation::SetGraphData, COMDAT
; _this$ = ecx

; 464  : {

  00000	55		 push	 ebp
  00001	8b ec		 mov	 ebp, esp

; 465  : 	return m_graphPartData.SetGraphData(graphData, bIsAutoCheck);

  00003	83 c1 08	 add	 ecx, 8

; 466  : }

  00006	5d		 pop	 ebp

; 465  : 	return m_graphPartData.SetGraphData(graphData, bIsAutoCheck);

  00007	e9 00 00 00 00	 jmp	 ?SetGraphData@CGraphPartData@@QAE_NABVCGraphData@@_N@Z ; CGraphPartData::SetGraphData
?SetGraphData@CIndicatorInfoImplementation@@QAE_NABVCGraphData@@_N@Z ENDP ; CIndicatorInfoImplementation::SetGraphData
_TEXT	ENDS
; Function compile flags: /Ogtp
; File D:\git\src\IBK\IBK_DRFN\ProjSrc\SrcChartEx\ChartOCX\IndicatorCondition\IndicatorInfoImplementation.cpp
; File C:\Program Files (x86)\Microsoft Visual Studio\2019\Community\VC\Tools\MSVC\14.29.30133\atlmfc\include\afxtempl.h
; File D:\git\src\IBK\IBK_DRFN\ProjSrc\SrcChartEx\ChartOCX\IndicatorCondition\IndicatorInfoImplementation.cpp
;	COMDAT ?SetCalConditionData@CIndicatorInfoImplementation@@QAEHHHABN@Z
_TEXT	SEGMENT
_nSubGraphIndex$ = 8					; size = 4
_nCondIndex$ = 12					; size = 4
_dData$ = 16						; size = 4
?SetCalConditionData@CIndicatorInfoImplementation@@QAEHHHABN@Z PROC ; CIndicatorInfoImplementation::SetCalConditionData, COMDAT
; _this$ = ecx

; 454  : {

  00000	55		 push	 ebp
  00001	8b ec		 mov	 ebp, esp

; 455  : 	CSubGraphPartData* pSubGraphPartData = m_graphPartData.GetSubGraphPartData(nSubGraphIndex);

  00003	ff 75 08	 push	 DWORD PTR _nSubGraphIndex$[ebp]
  00006	83 c1 08	 add	 ecx, 8
  00009	e8 00 00 00 00	 call	 ?GetSubGraphPartData@CGraphPartData@@QBEPAVCSubGraphPartData@@H@Z ; CGraphPartData::GetSubGraphPartData

; 456  : 	if(pSubGraphPartData == NULL)

  0000e	85 c0		 test	 eax, eax
  00010	74 4f		 je	 SHORT $LN19@SetCalCond

; 457  : 		return -1;
; 458  : 
; 459  : 	return SetDoubleListData(nCondIndex, dData, pSubGraphPartData->GetConditionList());

  00012	8b c8		 mov	 ecx, eax
  00014	e8 00 00 00 00	 call	 ?GetConditionList@CSubGraphPartData@@QAEAAV?$CList@NN@@XZ ; CSubGraphPartData::GetConditionList

; 663  : 	POSITION pos = targetList.FindIndex(nIndex);

  00019	8b 55 0c	 mov	 edx, DWORD PTR _nCondIndex$[ebp]
; File C:\Program Files (x86)\Microsoft Visual Studio\2019\Community\VC\Tools\MSVC\14.29.30133\atlmfc\include\afxtempl.h

; 1133 : 	if (nIndex >= m_nCount || nIndex < 0)

  0001c	3b 50 0c	 cmp	 edx, DWORD PTR [eax+12]
  0001f	7d 40		 jge	 SHORT $LN19@SetCalCond
  00021	85 d2		 test	 edx, edx
  00023	78 3c		 js	 SHORT $LN19@SetCalCond

; 1134 : 		return NULL;  // went too far
; 1135 : 
; 1136 : 	CNode* pNode = m_pNodeHead;

  00025	8b 48 04	 mov	 ecx, DWORD PTR [eax+4]

; 1137 : 	while (nIndex--)

  00028	74 0d		 je	 SHORT $LN15@SetCalCond
  0002a	66 0f 1f 44 00
	00		 npad	 6
$LL9@SetCalCond:

; 1138 : 	{
; 1139 : 		ASSERT(AfxIsValidAddress(pNode, sizeof(CNode)));
; 1140 : 		pNode = pNode->pNext;

  00030	8b 09		 mov	 ecx, DWORD PTR [ecx]
  00032	83 ea 01	 sub	 edx, 1
  00035	75 f9		 jne	 SHORT $LL9@SetCalCond
$LN15@SetCalCond:
; File D:\git\src\IBK\IBK_DRFN\ProjSrc\SrcChartEx\ChartOCX\IndicatorCondition\IndicatorInfoImplementation.cpp

; 664  : 	if(pos == NULL)

  00037	85 c9		 test	 ecx, ecx
  00039	74 26		 je	 SHORT $LN19@SetCalCond

; 665  : 		return -1;
; 666  : 
; 667  : 	double dOrgData = targetList.GetAt(pos);
; 668  : 	if(dData == dOrgData)

  0003b	8b 45 10	 mov	 eax, DWORD PTR _dData$[ebp]
  0003e	f2 0f 10 00	 movsd	 xmm0, QWORD PTR [eax]
  00042	66 0f 2e 41 08	 ucomisd xmm0, QWORD PTR [ecx+8]
  00047	9f		 lahf
  00048	f6 c4 44	 test	 ah, 68			; 00000044H
  0004b	7a 06		 jp	 SHORT $LN6@SetCalCond

; 669  : 		return 0;

  0004d	33 c0		 xor	 eax, eax

; 460  : }

  0004f	5d		 pop	 ebp
  00050	c2 0c 00	 ret	 12			; 0000000cH
$LN6@SetCalCond:

; 671  : 	targetList.SetAt(pos, dData);

  00053	f2 0f 11 41 08	 movsd	 QWORD PTR [ecx+8], xmm0

; 672  : 	return 1;

  00058	b8 01 00 00 00	 mov	 eax, 1

; 460  : }

  0005d	5d		 pop	 ebp
  0005e	c2 0c 00	 ret	 12			; 0000000cH
$LN19@SetCalCond:
  00061	83 c8 ff	 or	 eax, -1
  00064	5d		 pop	 ebp
  00065	c2 0c 00	 ret	 12			; 0000000cH
?SetCalConditionData@CIndicatorInfoImplementation@@QAEHHHABN@Z ENDP ; CIndicatorInfoImplementation::SetCalConditionData
_TEXT	ENDS
; Function compile flags: /Ogtp
; File D:\git\src\IBK\IBK_DRFN\ProjSrc\SrcChartEx\ChartOCX\IndicatorCondition\IndicatorInfoImplementation.cpp
;	COMDAT ?SetAllCalConditionData_SubGraphPart@CIndicatorInfoImplementation@@QAE_NHABN@Z
_TEXT	SEGMENT
_nCondIndex$ = 8					; size = 4
_dData$ = 12						; size = 4
?SetAllCalConditionData_SubGraphPart@CIndicatorInfoImplementation@@QAE_NHABN@Z PROC ; CIndicatorInfoImplementation::SetAllCalConditionData_SubGraphPart, COMDAT
; _this$ = ecx

; 449  : {

  00000	55		 push	 ebp
  00001	8b ec		 mov	 ebp, esp

; 450  : 	return m_graphPartData.SetAllCalConditionData(nCondIndex, dData);

  00003	83 c1 08	 add	 ecx, 8

; 451  : }

  00006	5d		 pop	 ebp

; 450  : 	return m_graphPartData.SetAllCalConditionData(nCondIndex, dData);

  00007	e9 00 00 00 00	 jmp	 ?SetAllCalConditionData@CGraphPartData@@QAE_NHABN@Z ; CGraphPartData::SetAllCalConditionData
?SetAllCalConditionData_SubGraphPart@CIndicatorInfoImplementation@@QAE_NHABN@Z ENDP ; CIndicatorInfoImplementation::SetAllCalConditionData_SubGraphPart
_TEXT	ENDS
; Function compile flags: /Ogtp
; File D:\git\src\IBK\IBK_DRFN\ProjSrc\SrcChartEx\ChartOCX\IndicatorCondition\IndicatorInfoImplementation.cpp
; File C:\Program Files (x86)\Microsoft Visual Studio\2019\Community\VC\Tools\MSVC\14.29.30133\atlmfc\include\afxtempl.h
; File D:\git\src\IBK\IBK_DRFN\ProjSrc\SrcChartEx\ChartOCX\IndicatorCondition\IndicatorInfoImplementation.cpp
;	COMDAT ?SetBaseLineData@CIndicatorInfoImplementation@@QAEHHABN@Z
_TEXT	SEGMENT
_nIndex$ = 8						; size = 4
_dData$ = 12						; size = 4
?SetBaseLineData@CIndicatorInfoImplementation@@QAEHHABN@Z PROC ; CIndicatorInfoImplementation::SetBaseLineData, COMDAT
; _this$ = ecx

; 444  : {

  00000	55		 push	 ebp
  00001	8b ec		 mov	 ebp, esp

; 663  : 	POSITION pos = targetList.FindIndex(nIndex);

  00003	8b 45 08	 mov	 eax, DWORD PTR _nIndex$[ebp]
; File C:\Program Files (x86)\Microsoft Visual Studio\2019\Community\VC\Tools\MSVC\14.29.30133\atlmfc\include\afxtempl.h

; 1133 : 	if (nIndex >= m_nCount || nIndex < 0)

  00006	3b 81 80 00 00
	00		 cmp	 eax, DWORD PTR [ecx+128]
  0000c	7d 3a		 jge	 SHORT $LN18@SetBaseLin
  0000e	85 c0		 test	 eax, eax
  00010	78 36		 js	 SHORT $LN18@SetBaseLin

; 1134 : 		return NULL;  // went too far
; 1135 : 
; 1136 : 	CNode* pNode = m_pNodeHead;

  00012	8b 49 78	 mov	 ecx, DWORD PTR [ecx+120]

; 1137 : 	while (nIndex--)

  00015	74 07		 je	 SHORT $LN14@SetBaseLin
$LL8@SetBaseLin:

; 1138 : 	{
; 1139 : 		ASSERT(AfxIsValidAddress(pNode, sizeof(CNode)));
; 1140 : 		pNode = pNode->pNext;

  00017	8b 09		 mov	 ecx, DWORD PTR [ecx]
  00019	83 e8 01	 sub	 eax, 1
  0001c	75 f9		 jne	 SHORT $LL8@SetBaseLin
$LN14@SetBaseLin:
; File D:\git\src\IBK\IBK_DRFN\ProjSrc\SrcChartEx\ChartOCX\IndicatorCondition\IndicatorInfoImplementation.cpp

; 664  : 	if(pos == NULL)

  0001e	85 c9		 test	 ecx, ecx
  00020	74 26		 je	 SHORT $LN18@SetBaseLin

; 665  : 		return -1;
; 666  : 
; 667  : 	double dOrgData = targetList.GetAt(pos);
; 668  : 	if(dData == dOrgData)

  00022	8b 45 0c	 mov	 eax, DWORD PTR _dData$[ebp]
  00025	f2 0f 10 00	 movsd	 xmm0, QWORD PTR [eax]
  00029	66 0f 2e 41 08	 ucomisd xmm0, QWORD PTR [ecx+8]
  0002e	9f		 lahf
  0002f	f6 c4 44	 test	 ah, 68			; 00000044H
  00032	7a 06		 jp	 SHORT $LN5@SetBaseLin

; 445  : 	return SetDoubleListData(nIndex, dData, m_baseLineList);

  00034	33 c0		 xor	 eax, eax

; 446  : }

  00036	5d		 pop	 ebp
  00037	c2 08 00	 ret	 8
$LN5@SetBaseLin:

; 671  : 	targetList.SetAt(pos, dData);

  0003a	f2 0f 11 41 08	 movsd	 QWORD PTR [ecx+8], xmm0

; 445  : 	return SetDoubleListData(nIndex, dData, m_baseLineList);

  0003f	b8 01 00 00 00	 mov	 eax, 1

; 446  : }

  00044	5d		 pop	 ebp
  00045	c2 08 00	 ret	 8
$LN18@SetBaseLin:

; 445  : 	return SetDoubleListData(nIndex, dData, m_baseLineList);

  00048	83 c8 ff	 or	 eax, -1

; 446  : }

  0004b	5d		 pop	 ebp
  0004c	c2 08 00	 ret	 8
?SetBaseLineData@CIndicatorInfoImplementation@@QAEHHABN@Z ENDP ; CIndicatorInfoImplementation::SetBaseLineData
_TEXT	ENDS
; Function compile flags: /Ogtp
; File D:\git\src\IBK\IBK_DRFN\ProjSrc\SrcChartEx\ChartOCX\IndicatorCondition\IndicatorInfoImplementation.cpp
; File C:\Program Files (x86)\Microsoft Visual Studio\2019\Community\VC\Tools\MSVC\14.29.30133\atlmfc\include\afxtempl.h
; File D:\git\src\IBK\IBK_DRFN\ProjSrc\SrcChartEx\ChartOCX\IndicatorCondition\IndicatorInfoImplementation.cpp
;	COMDAT ?SetDrawConditionData@CIndicatorInfoImplementation@@QAEHHABN@Z
_TEXT	SEGMENT
_nIndex$ = 8						; size = 4
_dData$ = 12						; size = 4
?SetDrawConditionData@CIndicatorInfoImplementation@@QAEHHABN@Z PROC ; CIndicatorInfoImplementation::SetDrawConditionData, COMDAT
; _this$ = ecx

; 439  : {

  00000	55		 push	 ebp
  00001	8b ec		 mov	 ebp, esp

; 663  : 	POSITION pos = targetList.FindIndex(nIndex);

  00003	8b 45 08	 mov	 eax, DWORD PTR _nIndex$[ebp]
; File C:\Program Files (x86)\Microsoft Visual Studio\2019\Community\VC\Tools\MSVC\14.29.30133\atlmfc\include\afxtempl.h

; 1133 : 	if (nIndex >= m_nCount || nIndex < 0)

  00006	3b 41 64	 cmp	 eax, DWORD PTR [ecx+100]
  00009	7d 3a		 jge	 SHORT $LN18@SetDrawCon
  0000b	85 c0		 test	 eax, eax
  0000d	78 36		 js	 SHORT $LN18@SetDrawCon

; 1134 : 		return NULL;  // went too far
; 1135 : 
; 1136 : 	CNode* pNode = m_pNodeHead;

  0000f	8b 49 5c	 mov	 ecx, DWORD PTR [ecx+92]

; 1137 : 	while (nIndex--)

  00012	74 07		 je	 SHORT $LN14@SetDrawCon
$LL8@SetDrawCon:

; 1138 : 	{
; 1139 : 		ASSERT(AfxIsValidAddress(pNode, sizeof(CNode)));
; 1140 : 		pNode = pNode->pNext;

  00014	8b 09		 mov	 ecx, DWORD PTR [ecx]
  00016	83 e8 01	 sub	 eax, 1
  00019	75 f9		 jne	 SHORT $LL8@SetDrawCon
$LN14@SetDrawCon:
; File D:\git\src\IBK\IBK_DRFN\ProjSrc\SrcChartEx\ChartOCX\IndicatorCondition\IndicatorInfoImplementation.cpp

; 664  : 	if(pos == NULL)

  0001b	85 c9		 test	 ecx, ecx
  0001d	74 26		 je	 SHORT $LN18@SetDrawCon

; 665  : 		return -1;
; 666  : 
; 667  : 	double dOrgData = targetList.GetAt(pos);
; 668  : 	if(dData == dOrgData)

  0001f	8b 45 0c	 mov	 eax, DWORD PTR _dData$[ebp]
  00022	f2 0f 10 00	 movsd	 xmm0, QWORD PTR [eax]
  00026	66 0f 2e 41 08	 ucomisd xmm0, QWORD PTR [ecx+8]
  0002b	9f		 lahf
  0002c	f6 c4 44	 test	 ah, 68			; 00000044H
  0002f	7a 06		 jp	 SHORT $LN5@SetDrawCon

; 440  : 	return SetDoubleListData(nIndex, dData, m_drawConditionList);

  00031	33 c0		 xor	 eax, eax

; 441  : }

  00033	5d		 pop	 ebp
  00034	c2 08 00	 ret	 8
$LN5@SetDrawCon:

; 671  : 	targetList.SetAt(pos, dData);

  00037	f2 0f 11 41 08	 movsd	 QWORD PTR [ecx+8], xmm0

; 440  : 	return SetDoubleListData(nIndex, dData, m_drawConditionList);

  0003c	b8 01 00 00 00	 mov	 eax, 1

; 441  : }

  00041	5d		 pop	 ebp
  00042	c2 08 00	 ret	 8
$LN18@SetDrawCon:

; 440  : 	return SetDoubleListData(nIndex, dData, m_drawConditionList);

  00045	83 c8 ff	 or	 eax, -1

; 441  : }

  00048	5d		 pop	 ebp
  00049	c2 08 00	 ret	 8
?SetDrawConditionData@CIndicatorInfoImplementation@@QAEHHABN@Z ENDP ; CIndicatorInfoImplementation::SetDrawConditionData
_TEXT	ENDS
; Function compile flags: /Ogtp
; File D:\git\src\IBK\IBK_DRFN\ProjSrc\SrcChartEx\ChartOCX\IndicatorCondition\IndicatorInfoImplementation.cpp
; File C:\Program Files (x86)\Microsoft Visual Studio\2019\Community\VC\Tools\MSVC\14.29.30133\atlmfc\include\afxtempl.h
; File D:\git\src\IBK\IBK_DRFN\ProjSrc\SrcChartEx\ChartOCX\IndicatorCondition\IndicatorInfoImplementation.cpp
;	COMDAT ?SetCommonCalConditionData@CIndicatorInfoImplementation@@QAEHHABN@Z
_TEXT	SEGMENT
_nIndex$ = 8						; size = 4
_dData$ = 12						; size = 4
?SetCommonCalConditionData@CIndicatorInfoImplementation@@QAEHHABN@Z PROC ; CIndicatorInfoImplementation::SetCommonCalConditionData, COMDAT
; _this$ = ecx

; 434  : {

  00000	55		 push	 ebp
  00001	8b ec		 mov	 ebp, esp

; 663  : 	POSITION pos = targetList.FindIndex(nIndex);

  00003	8b 45 08	 mov	 eax, DWORD PTR _nIndex$[ebp]
; File C:\Program Files (x86)\Microsoft Visual Studio\2019\Community\VC\Tools\MSVC\14.29.30133\atlmfc\include\afxtempl.h

; 1133 : 	if (nIndex >= m_nCount || nIndex < 0)

  00006	3b 41 48	 cmp	 eax, DWORD PTR [ecx+72]
  00009	7d 3a		 jge	 SHORT $LN18@SetCommonC
  0000b	85 c0		 test	 eax, eax
  0000d	78 36		 js	 SHORT $LN18@SetCommonC

; 1134 : 		return NULL;  // went too far
; 1135 : 
; 1136 : 	CNode* pNode = m_pNodeHead;

  0000f	8b 49 40	 mov	 ecx, DWORD PTR [ecx+64]

; 1137 : 	while (nIndex--)

  00012	74 07		 je	 SHORT $LN14@SetCommonC
$LL8@SetCommonC:

; 1138 : 	{
; 1139 : 		ASSERT(AfxIsValidAddress(pNode, sizeof(CNode)));
; 1140 : 		pNode = pNode->pNext;

  00014	8b 09		 mov	 ecx, DWORD PTR [ecx]
  00016	83 e8 01	 sub	 eax, 1
  00019	75 f9		 jne	 SHORT $LL8@SetCommonC
$LN14@SetCommonC:
; File D:\git\src\IBK\IBK_DRFN\ProjSrc\SrcChartEx\ChartOCX\IndicatorCondition\IndicatorInfoImplementation.cpp

; 664  : 	if(pos == NULL)

  0001b	85 c9		 test	 ecx, ecx
  0001d	74 26		 je	 SHORT $LN18@SetCommonC

; 665  : 		return -1;
; 666  : 
; 667  : 	double dOrgData = targetList.GetAt(pos);
; 668  : 	if(dData == dOrgData)

  0001f	8b 45 0c	 mov	 eax, DWORD PTR _dData$[ebp]
  00022	f2 0f 10 00	 movsd	 xmm0, QWORD PTR [eax]
  00026	66 0f 2e 41 08	 ucomisd xmm0, QWORD PTR [ecx+8]
  0002b	9f		 lahf
  0002c	f6 c4 44	 test	 ah, 68			; 00000044H
  0002f	7a 06		 jp	 SHORT $LN5@SetCommonC

; 435  : 	return SetDoubleListData(nIndex, dData, m_calConditionList);

  00031	33 c0		 xor	 eax, eax

; 436  : }

  00033	5d		 pop	 ebp
  00034	c2 08 00	 ret	 8
$LN5@SetCommonC:

; 671  : 	targetList.SetAt(pos, dData);

  00037	f2 0f 11 41 08	 movsd	 QWORD PTR [ecx+8], xmm0

; 435  : 	return SetDoubleListData(nIndex, dData, m_calConditionList);

  0003c	b8 01 00 00 00	 mov	 eax, 1

; 436  : }

  00041	5d		 pop	 ebp
  00042	c2 08 00	 ret	 8
$LN18@SetCommonC:

; 435  : 	return SetDoubleListData(nIndex, dData, m_calConditionList);

  00045	83 c8 ff	 or	 eax, -1

; 436  : }

  00048	5d		 pop	 ebp
  00049	c2 08 00	 ret	 8
?SetCommonCalConditionData@CIndicatorInfoImplementation@@QAEHHABN@Z ENDP ; CIndicatorInfoImplementation::SetCommonCalConditionData
_TEXT	ENDS
; Function compile flags: /Ogtp
; File D:\git\src\IBK\IBK_DRFN\ProjSrc\SrcChartEx\ChartOCX\IndicatorCondition\IndicatorInfoImplementation.cpp
; File D:\git\src\IBK\IBK_DRFN\ProjSrc\SrcChartEx\ChartOCX\Include_Chart\GraphData.h
; File D:\git\src\IBK\IBK_DRFN\ProjSrc\SrcChartEx\ChartOCX\IndicatorCondition\IndicatorInfoImplementation.cpp
; File D:\git\src\IBK\IBK_DRFN\ProjSrc\SrcChartEx\ChartOCX\Include_Chart\GraphData.h
; File C:\Program Files (x86)\Microsoft Visual Studio\2019\Community\VC\Tools\MSVC\14.29.30133\atlmfc\include\cstringt.h
; File D:\git\src\IBK\IBK_DRFN\ProjSrc\SrcChartEx\ChartOCX\IndicatorCondition\IndicatorInfoImplementation.cpp
; File C:\Program Files (x86)\Microsoft Visual Studio\2019\Community\VC\Tools\MSVC\14.29.30133\atlmfc\include\cstringt.h
; File D:\git\src\IBK\IBK_DRFN\ProjSrc\SrcChartEx\ChartOCX\IndicatorCondition\IndicatorInfoImplementation.cpp
; File C:\Program Files (x86)\Microsoft Visual Studio\2019\Community\VC\Tools\MSVC\14.29.30133\atlmfc\include\cstringt.h
; File D:\git\src\IBK\IBK_DRFN\ProjSrc\SrcChartEx\ChartOCX\IndicatorCondition\IndicatorInfoImplementation.cpp
;	COMDAT ?GetCopyDataFrom@CIndicatorInfoImplementation@@QAE_NPBV1@H@Z
_TEXT	SEGMENT
$T2 = -16						; size = 4
__$EHRec$ = -12						; size = 12
$T3 = 8							; size = 4
_pIndiInfoImpl$ = 8					; size = 4
_p_bSameGraph$ = 12					; size = 4
?GetCopyDataFrom@CIndicatorInfoImplementation@@QAE_NPBV1@H@Z PROC ; CIndicatorInfoImplementation::GetCopyDataFrom, COMDAT
; _this$ = ecx

; 422  : {

  00000	55		 push	 ebp
  00001	8b ec		 mov	 ebp, esp
  00003	6a ff		 push	 -1
  00005	68 00 00 00 00	 push	 __ehhandler$?GetCopyDataFrom@CIndicatorInfoImplementation@@QAE_NPBV1@H@Z
  0000a	64 a1 00 00 00
	00		 mov	 eax, DWORD PTR fs:0
  00010	50		 push	 eax
  00011	51		 push	 ecx
  00012	53		 push	 ebx
  00013	56		 push	 esi
  00014	57		 push	 edi
  00015	a1 00 00 00 00	 mov	 eax, DWORD PTR ___security_cookie
  0001a	33 c5		 xor	 eax, ebp
  0001c	50		 push	 eax
  0001d	8d 45 f4	 lea	 eax, DWORD PTR __$EHRec$[ebp]
  00020	64 a3 00 00 00
	00		 mov	 DWORD PTR fs:0, eax
  00026	8b d9		 mov	 ebx, ecx

; 423  : 	if( pIndiInfoImpl == NULL) return false;

  00028	8b 7d 08	 mov	 edi, DWORD PTR _pIndiInfoImpl$[ebp]
  0002b	85 ff		 test	 edi, edi
  0002d	0f 84 85 00 00
	00		 je	 $LN28@GetCopyDat

; 424  : 	if( pIndiInfoImpl == this) return true;

  00033	3b fb		 cmp	 edi, ebx
  00035	74 6b		 je	 SHORT $LN30@GetCopyDat

; 112  : 	return m_graphPartData.GetGraphData().GetIndicatorName();

  00037	8d 4f 08	 lea	 ecx, DWORD PTR [edi+8]
  0003a	e8 00 00 00 00	 call	 ?GetGraphData@CGraphPartData@@QBEABVCGraphData@@XZ ; CGraphPartData::GetGraphData
; File D:\git\src\IBK\IBK_DRFN\ProjSrc\SrcChartEx\ChartOCX\Include_Chart\GraphData.h

; 229  : 	CString			GetIndicatorName( void) const							{	return m_strIndicatorName;					}

  0003f	83 c0 1c	 add	 eax, 28			; 0000001cH
  00042	8d 4d f0	 lea	 ecx, DWORD PTR $T2[ebp]
  00045	50		 push	 eax
  00046	ff 15 00 00 00
	00		 call	 DWORD PTR __imp_??0?$CStringT@DV?$StrTraitMFC_DLL@DV?$ChTraitsCRT@D@ATL@@@@@ATL@@QAE@ABV01@@Z
; File D:\git\src\IBK\IBK_DRFN\ProjSrc\SrcChartEx\ChartOCX\IndicatorCondition\IndicatorInfoImplementation.cpp

; 112  : 	return m_graphPartData.GetGraphData().GetIndicatorName();

  0004c	8d 4b 08	 lea	 ecx, DWORD PTR [ebx+8]

; 426  : 	if(GetIndicatorName() != pIndiInfoImpl->GetIndicatorName())

  0004f	c7 45 fc 00 00
	00 00		 mov	 DWORD PTR __$EHRec$[ebp+8], 0

; 112  : 	return m_graphPartData.GetGraphData().GetIndicatorName();

  00056	e8 00 00 00 00	 call	 ?GetGraphData@CGraphPartData@@QBEABVCGraphData@@XZ ; CGraphPartData::GetGraphData
; File D:\git\src\IBK\IBK_DRFN\ProjSrc\SrcChartEx\ChartOCX\Include_Chart\GraphData.h

; 229  : 	CString			GetIndicatorName( void) const							{	return m_strIndicatorName;					}

  0005b	83 c0 1c	 add	 eax, 28			; 0000001cH
  0005e	8d 4d 08	 lea	 ecx, DWORD PTR $T3[ebp]
  00061	50		 push	 eax
  00062	ff 15 00 00 00
	00		 call	 DWORD PTR __imp_??0?$CStringT@DV?$StrTraitMFC_DLL@DV?$ChTraitsCRT@D@ATL@@@@@ATL@@QAE@ABV01@@Z
; File C:\Program Files (x86)\Microsoft Visual Studio\2019\Community\VC\Tools\MSVC\14.29.30133\atlmfc\include\cstringt.h

; 2560 : 		return( str1.Compare( str2 ) != 0 );

  00068	ff 75 f0	 push	 DWORD PTR $T2[ebp]
  0006b	8d 4d 08	 lea	 ecx, DWORD PTR $T3[ebp]
; File D:\git\src\IBK\IBK_DRFN\ProjSrc\SrcChartEx\ChartOCX\IndicatorCondition\IndicatorInfoImplementation.cpp

; 426  : 	if(GetIndicatorName() != pIndiInfoImpl->GetIndicatorName())

  0006e	c6 45 fc 01	 mov	 BYTE PTR __$EHRec$[ebp+8], 1
; File C:\Program Files (x86)\Microsoft Visual Studio\2019\Community\VC\Tools\MSVC\14.29.30133\atlmfc\include\cstringt.h

; 2560 : 		return( str1.Compare( str2 ) != 0 );

  00072	ff 15 00 00 00
	00		 call	 DWORD PTR __imp_?Compare@?$CStringT@DV?$StrTraitMFC_DLL@DV?$ChTraitsCRT@D@ATL@@@@@ATL@@QBEHPBD@Z
; File D:\git\src\IBK\IBK_DRFN\ProjSrc\SrcChartEx\ChartOCX\IndicatorCondition\IndicatorInfoImplementation.cpp

; 426  : 	if(GetIndicatorName() != pIndiInfoImpl->GetIndicatorName())

  00078	8d 4d 08	 lea	 ecx, DWORD PTR $T3[ebp]
; File C:\Program Files (x86)\Microsoft Visual Studio\2019\Community\VC\Tools\MSVC\14.29.30133\atlmfc\include\cstringt.h

; 2560 : 		return( str1.Compare( str2 ) != 0 );

  0007b	8b f0		 mov	 esi, eax
; File D:\git\src\IBK\IBK_DRFN\ProjSrc\SrcChartEx\ChartOCX\IndicatorCondition\IndicatorInfoImplementation.cpp

; 426  : 	if(GetIndicatorName() != pIndiInfoImpl->GetIndicatorName())

  0007d	ff 15 00 00 00
	00		 call	 DWORD PTR __imp_??1?$CStringT@DV?$StrTraitMFC_DLL@DV?$ChTraitsCRT@D@ATL@@@@@ATL@@QAE@XZ
  00083	8d 4d f0	 lea	 ecx, DWORD PTR $T2[ebp]
  00086	c7 45 fc ff ff
	ff ff		 mov	 DWORD PTR __$EHRec$[ebp+8], -1
  0008d	ff 15 00 00 00
	00		 call	 DWORD PTR __imp_??1?$CStringT@DV?$StrTraitMFC_DLL@DV?$ChTraitsCRT@D@ATL@@@@@ATL@@QAE@XZ
  00093	85 f6		 test	 esi, esi
  00095	75 21		 jne	 SHORT $LN28@GetCopyDat

; 428  : 
; 429  : 	CopyAllData(pIndiInfoImpl, p_bSameGraph);

  00097	ff 75 0c	 push	 DWORD PTR _p_bSameGraph$[ebp]
  0009a	8b cb		 mov	 ecx, ebx
  0009c	57		 push	 edi
  0009d	e8 00 00 00 00	 call	 ?CopyAllData@CIndicatorInfoImplementation@@AAEXPBV1@H@Z ; CIndicatorInfoImplementation::CopyAllData
$LN30@GetCopyDat:

; 430  : 	return true;
; 431  : }

  000a2	b0 01		 mov	 al, 1
  000a4	8b 4d f4	 mov	 ecx, DWORD PTR __$EHRec$[ebp]
  000a7	64 89 0d 00 00
	00 00		 mov	 DWORD PTR fs:0, ecx
  000ae	59		 pop	 ecx
  000af	5f		 pop	 edi
  000b0	5e		 pop	 esi
  000b1	5b		 pop	 ebx
  000b2	8b e5		 mov	 esp, ebp
  000b4	5d		 pop	 ebp
  000b5	c2 08 00	 ret	 8
$LN28@GetCopyDat:

; 427  : 		return false;

  000b8	32 c0		 xor	 al, al

; 430  : 	return true;
; 431  : }

  000ba	8b 4d f4	 mov	 ecx, DWORD PTR __$EHRec$[ebp]
  000bd	64 89 0d 00 00
	00 00		 mov	 DWORD PTR fs:0, ecx
  000c4	59		 pop	 ecx
  000c5	5f		 pop	 edi
  000c6	5e		 pop	 esi
  000c7	5b		 pop	 ebx
  000c8	8b e5		 mov	 esp, ebp
  000ca	5d		 pop	 ebp
  000cb	c2 08 00	 ret	 8
_TEXT	ENDS
;	COMDAT text$x
text$x	SEGMENT
__unwindfunclet$?GetCopyDataFrom@CIndicatorInfoImplementation@@QAE_NPBV1@H@Z$0:
  00000	8d 4d f0	 lea	 ecx, DWORD PTR $T2[ebp]
  00003	ff 25 00 00 00
	00		 jmp	 DWORD PTR __imp_??1?$CStringT@DV?$StrTraitMFC_DLL@DV?$ChTraitsCRT@D@ATL@@@@@ATL@@QAE@XZ
__unwindfunclet$?GetCopyDataFrom@CIndicatorInfoImplementation@@QAE_NPBV1@H@Z$1:
  00009	8d 4d 08	 lea	 ecx, DWORD PTR $T3[ebp]
  0000c	ff 25 00 00 00
	00		 jmp	 DWORD PTR __imp_??1?$CStringT@DV?$StrTraitMFC_DLL@DV?$ChTraitsCRT@D@ATL@@@@@ATL@@QAE@XZ
  00012	cc		 int	 3
  00013	cc		 int	 3
  00014	cc		 int	 3
  00015	cc		 int	 3
  00016	cc		 int	 3
__ehhandler$?GetCopyDataFrom@CIndicatorInfoImplementation@@QAE_NPBV1@H@Z:
  00017	90		 npad	 1
  00018	90		 npad	 1
  00019	8b 54 24 08	 mov	 edx, DWORD PTR [esp+8]
  0001d	8d 42 0c	 lea	 eax, DWORD PTR [edx+12]
  00020	8b 4a ec	 mov	 ecx, DWORD PTR [edx-20]
  00023	33 c8		 xor	 ecx, eax
  00025	e8 00 00 00 00	 call	 @__security_check_cookie@4
  0002a	b8 00 00 00 00	 mov	 eax, OFFSET __ehfuncinfo$?GetCopyDataFrom@CIndicatorInfoImplementation@@QAE_NPBV1@H@Z
  0002f	e9 00 00 00 00	 jmp	 ___CxxFrameHandler3
text$x	ENDS
?GetCopyDataFrom@CIndicatorInfoImplementation@@QAE_NPBV1@H@Z ENDP ; CIndicatorInfoImplementation::GetCopyDataFrom
; Function compile flags: /Ogtp
; File D:\git\src\IBK\IBK_DRFN\ProjSrc\SrcChartEx\ChartOCX\IndicatorCondition\IndicatorInfoImplementation.cpp
;	COMDAT ?GetSubGraphColorList@CIndicatorInfoImplementation@@QBE_NAAV?$CList@PAVCGraphColor@@PAV1@@@@Z
_TEXT	SEGMENT
_subGraphColorList$ = 8					; size = 4
?GetSubGraphColorList@CIndicatorInfoImplementation@@QBE_NAAV?$CList@PAVCGraphColor@@PAV1@@@@Z PROC ; CIndicatorInfoImplementation::GetSubGraphColorList, COMDAT
; _this$ = ecx

; 416  : {

  00000	55		 push	 ebp
  00001	8b ec		 mov	 ebp, esp

; 417  : 	return m_graphPartData.GetSubGraphColorList(subGraphColorList);

  00003	83 c1 08	 add	 ecx, 8

; 418  : }

  00006	5d		 pop	 ebp

; 417  : 	return m_graphPartData.GetSubGraphColorList(subGraphColorList);

  00007	e9 00 00 00 00	 jmp	 ?GetSubGraphColorList@CGraphPartData@@QBE_NAAV?$CList@PAVCGraphColor@@PAV1@@@@Z ; CGraphPartData::GetSubGraphColorList
?GetSubGraphColorList@CIndicatorInfoImplementation@@QBE_NAAV?$CList@PAVCGraphColor@@PAV1@@@@Z ENDP ; CIndicatorInfoImplementation::GetSubGraphColorList
_TEXT	ENDS
; Function compile flags: /Ogtp
; File D:\git\src\IBK\IBK_DRFN\ProjSrc\SrcChartEx\ChartOCX\IndicatorCondition\IndicatorInfoImplementation.cpp
;	COMDAT ?GetSubGraphColor_PointerType@CIndicatorInfoImplementation@@QBEPAVCGraphColor@@H@Z
_TEXT	SEGMENT
_nIndex$ = 8						; size = 4
?GetSubGraphColor_PointerType@CIndicatorInfoImplementation@@QBEPAVCGraphColor@@H@Z PROC ; CIndicatorInfoImplementation::GetSubGraphColor_PointerType, COMDAT
; _this$ = ecx

; 407  : {

  00000	55		 push	 ebp
  00001	8b ec		 mov	 ebp, esp

; 408  : 	CSubGraphData* pSubGraphData = m_graphPartData.GetSubGraphData(nIndex);

  00003	ff 75 08	 push	 DWORD PTR _nIndex$[ebp]
  00006	83 c1 08	 add	 ecx, 8
  00009	e8 00 00 00 00	 call	 ?GetSubGraphData@CGraphPartData@@QBEPAVCSubGraphData@@H@Z ; CGraphPartData::GetSubGraphData

; 409  : 	if(pSubGraphData == NULL)

  0000e	85 c0		 test	 eax, eax
  00010	75 04		 jne	 SHORT $LN2@GetSubGrap

; 413  : }

  00012	5d		 pop	 ebp
  00013	c2 04 00	 ret	 4
$LN2@GetSubGrap:

; 410  : 		return NULL;
; 411  : 
; 412  : 	return pSubGraphData->GetColor_PointerType();

  00016	8b c8		 mov	 ecx, eax
  00018	e8 00 00 00 00	 call	 ?GetColor_PointerType@CSubGraphDataBase@@QAEPAVCGraphColor@@XZ ; CSubGraphDataBase::GetColor_PointerType

; 413  : }

  0001d	5d		 pop	 ebp
  0001e	c2 04 00	 ret	 4
?GetSubGraphColor_PointerType@CIndicatorInfoImplementation@@QBEPAVCGraphColor@@H@Z ENDP ; CIndicatorInfoImplementation::GetSubGraphColor_PointerType
_TEXT	ENDS
; Function compile flags: /Ogtp
; File D:\git\src\IBK\IBK_DRFN\ProjSrc\SrcChartEx\ChartOCX\IndicatorCondition\IndicatorInfoImplementation.cpp
;	COMDAT ?GetSubGraphColor@CIndicatorInfoImplementation@@QBE?AVCGraphColor@@H@Z
_TEXT	SEGMENT
___$ReturnUdt$ = 8					; size = 4
_nIndex$ = 12						; size = 4
?GetSubGraphColor@CIndicatorInfoImplementation@@QBE?AVCGraphColor@@H@Z PROC ; CIndicatorInfoImplementation::GetSubGraphColor, COMDAT
; _this$ = ecx

; 398  : {

  00000	55		 push	 ebp
  00001	8b ec		 mov	 ebp, esp
  00003	56		 push	 esi

; 399  : 	CSubGraphData* pSubGraphData = m_graphPartData.GetSubGraphData(nIndex);

  00004	ff 75 0c	 push	 DWORD PTR _nIndex$[ebp]
  00007	83 c1 08	 add	 ecx, 8
  0000a	e8 00 00 00 00	 call	 ?GetSubGraphData@CGraphPartData@@QBEPAVCSubGraphData@@H@Z ; CGraphPartData::GetSubGraphData

; 400  : 	if(pSubGraphData == NULL)

  0000f	85 c0		 test	 eax, eax
  00011	75 10		 jne	 SHORT $LN2@GetSubGrap

; 401  : 		return CGraphColor();

  00013	8b 4d 08	 mov	 ecx, DWORD PTR ___$ReturnUdt$[ebp]
  00016	e8 00 00 00 00	 call	 ??0CGraphColor@@QAE@XZ	; CGraphColor::CGraphColor

; 404  : }

  0001b	8b 45 08	 mov	 eax, DWORD PTR ___$ReturnUdt$[ebp]
  0001e	5e		 pop	 esi
  0001f	5d		 pop	 ebp
  00020	c2 08 00	 ret	 8
$LN2@GetSubGrap:

; 402  : 
; 403  : 	return pSubGraphData->GetColor();

  00023	8b c8		 mov	 ecx, eax
  00025	e8 00 00 00 00	 call	 ?GetColor@CSubGraphDataBase@@QAEAAVCGraphColor@@XZ ; CSubGraphDataBase::GetColor
  0002a	8b 4d 08	 mov	 ecx, DWORD PTR ___$ReturnUdt$[ebp]
  0002d	50		 push	 eax
  0002e	e8 00 00 00 00	 call	 ??0CGraphColor@@QAE@ABV0@@Z ; CGraphColor::CGraphColor

; 404  : }

  00033	8b 45 08	 mov	 eax, DWORD PTR ___$ReturnUdt$[ebp]
  00036	5e		 pop	 esi
  00037	5d		 pop	 ebp
  00038	c2 08 00	 ret	 8
?GetSubGraphColor@CIndicatorInfoImplementation@@QBE?AVCGraphColor@@H@Z ENDP ; CIndicatorInfoImplementation::GetSubGraphColor
_TEXT	ENDS
; Function compile flags: /Ogtp
; File D:\git\src\IBK\IBK_DRFN\ProjSrc\SrcChartEx\ChartOCX\IndicatorCondition\IndicatorInfoImplementation.cpp
;	COMDAT ?GetSubGraphNames@CIndicatorInfoImplementation@@QBEHAAV?$CStringT@DV?$StrTraitMFC_DLL@DV?$ChTraitsCRT@D@ATL@@@@@ATL@@@Z
_TEXT	SEGMENT
_p_strSubGraphNames$ = 8				; size = 4
?GetSubGraphNames@CIndicatorInfoImplementation@@QBEHAAV?$CStringT@DV?$StrTraitMFC_DLL@DV?$ChTraitsCRT@D@ATL@@@@@ATL@@@Z PROC ; CIndicatorInfoImplementation::GetSubGraphNames, COMDAT
; _this$ = ecx

; 393  : {

  00000	55		 push	 ebp
  00001	8b ec		 mov	 ebp, esp

; 394  : 	return m_graphPartData.GetSubGraphNames( p_strSubGraphNames);

  00003	83 c1 08	 add	 ecx, 8

; 395  : }

  00006	5d		 pop	 ebp

; 394  : 	return m_graphPartData.GetSubGraphNames( p_strSubGraphNames);

  00007	e9 00 00 00 00	 jmp	 ?GetSubGraphNames@CGraphPartData@@QBEHAAV?$CStringT@DV?$StrTraitMFC_DLL@DV?$ChTraitsCRT@D@ATL@@@@@ATL@@@Z ; CGraphPartData::GetSubGraphNames
?GetSubGraphNames@CIndicatorInfoImplementation@@QBEHAAV?$CStringT@DV?$StrTraitMFC_DLL@DV?$ChTraitsCRT@D@ATL@@@@@ATL@@@Z ENDP ; CIndicatorInfoImplementation::GetSubGraphNames
_TEXT	ENDS
; Function compile flags: /Ogtp
; File D:\git\src\IBK\IBK_DRFN\ProjSrc\SrcChartEx\ChartOCX\IndicatorCondition\IndicatorInfoImplementation.cpp
;	COMDAT ?GetSubGraphNameList@CIndicatorInfoImplementation@@QBE_NAAV?$CList@V?$CStringT@DV?$StrTraitMFC_DLL@DV?$ChTraitsCRT@D@ATL@@@@@ATL@@V12@@@@Z
_TEXT	SEGMENT
_SubGraphNameList$ = 8					; size = 4
?GetSubGraphNameList@CIndicatorInfoImplementation@@QBE_NAAV?$CList@V?$CStringT@DV?$StrTraitMFC_DLL@DV?$ChTraitsCRT@D@ATL@@@@@ATL@@V12@@@@Z PROC ; CIndicatorInfoImplementation::GetSubGraphNameList, COMDAT
; _this$ = ecx

; 387  : {

  00000	55		 push	 ebp
  00001	8b ec		 mov	 ebp, esp

; 388  : 	return m_graphPartData.GetSubGraphNameList(SubGraphNameList);

  00003	83 c1 08	 add	 ecx, 8

; 389  : }

  00006	5d		 pop	 ebp

; 388  : 	return m_graphPartData.GetSubGraphNameList(SubGraphNameList);

  00007	e9 00 00 00 00	 jmp	 ?GetSubGraphNameList@CGraphPartData@@QBE_NAAV?$CList@V?$CStringT@DV?$StrTraitMFC_DLL@DV?$ChTraitsCRT@D@ATL@@@@@ATL@@V12@@@@Z ; CGraphPartData::GetSubGraphNameList
?GetSubGraphNameList@CIndicatorInfoImplementation@@QBE_NAAV?$CList@V?$CStringT@DV?$StrTraitMFC_DLL@DV?$ChTraitsCRT@D@ATL@@@@@ATL@@V12@@@@Z ENDP ; CIndicatorInfoImplementation::GetSubGraphNameList
_TEXT	ENDS
; Function compile flags: /Ogtp
; File D:\git\src\IBK\IBK_DRFN\ProjSrc\SrcChartEx\ChartOCX\IndicatorCondition\IndicatorInfoImplementation.cpp
;	COMDAT ?GetSubGraphTitle@CIndicatorInfoImplementation@@QBE?AV?$CStringT@DV?$StrTraitMFC_DLL@DV?$ChTraitsCRT@D@ATL@@@@@ATL@@H@Z
_TEXT	SEGMENT
___$ReturnUdt$ = 8					; size = 4
_nIndex$ = 12						; size = 4
?GetSubGraphTitle@CIndicatorInfoImplementation@@QBE?AV?$CStringT@DV?$StrTraitMFC_DLL@DV?$ChTraitsCRT@D@ATL@@@@@ATL@@H@Z PROC ; CIndicatorInfoImplementation::GetSubGraphTitle, COMDAT
; _this$ = ecx

; 381  : {

  00000	55		 push	 ebp
  00001	8b ec		 mov	 ebp, esp

; 382  : 	return m_graphPartData.GetSubGraphTitle(nIndex);

  00003	ff 75 0c	 push	 DWORD PTR _nIndex$[ebp]
  00006	83 c1 08	 add	 ecx, 8
  00009	ff 75 08	 push	 DWORD PTR ___$ReturnUdt$[ebp]
  0000c	e8 00 00 00 00	 call	 ?GetSubGraphTitle@CGraphPartData@@QBE?AV?$CStringT@DV?$StrTraitMFC_DLL@DV?$ChTraitsCRT@D@ATL@@@@@ATL@@H@Z ; CGraphPartData::GetSubGraphTitle
  00011	8b 45 08	 mov	 eax, DWORD PTR ___$ReturnUdt$[ebp]

; 383  : }

  00014	5d		 pop	 ebp
  00015	c2 08 00	 ret	 8
?GetSubGraphTitle@CIndicatorInfoImplementation@@QBE?AV?$CStringT@DV?$StrTraitMFC_DLL@DV?$ChTraitsCRT@D@ATL@@@@@ATL@@H@Z ENDP ; CIndicatorInfoImplementation::GetSubGraphTitle
_TEXT	ENDS
; Function compile flags: /Ogtp
; File D:\git\src\IBK\IBK_DRFN\ProjSrc\SrcChartEx\ChartOCX\IndicatorCondition\IndicatorInfoImplementation.cpp
;	COMDAT ?GetSubGraphName@CIndicatorInfoImplementation@@QBE?AV?$CStringT@DV?$StrTraitMFC_DLL@DV?$ChTraitsCRT@D@ATL@@@@@ATL@@H@Z
_TEXT	SEGMENT
___$ReturnUdt$ = 8					; size = 4
_nIndex$ = 12						; size = 4
?GetSubGraphName@CIndicatorInfoImplementation@@QBE?AV?$CStringT@DV?$StrTraitMFC_DLL@DV?$ChTraitsCRT@D@ATL@@@@@ATL@@H@Z PROC ; CIndicatorInfoImplementation::GetSubGraphName, COMDAT
; _this$ = ecx

; 372  : {

  00000	55		 push	 ebp
  00001	8b ec		 mov	 ebp, esp
  00003	56		 push	 esi

; 373  : 	CSubGraphData* pSubGraphData = m_graphPartData.GetSubGraphData(nIndex);

  00004	ff 75 0c	 push	 DWORD PTR _nIndex$[ebp]
  00007	83 c1 08	 add	 ecx, 8
  0000a	e8 00 00 00 00	 call	 ?GetSubGraphData@CGraphPartData@@QBEPAVCSubGraphData@@H@Z ; CGraphPartData::GetSubGraphData

; 374  : 	if(pSubGraphData == NULL)

  0000f	85 c0		 test	 eax, eax
  00011	75 16		 jne	 SHORT $LN2@GetSubGrap

; 375  : 		return "";

  00013	8b 4d 08	 mov	 ecx, DWORD PTR ___$ReturnUdt$[ebp]
  00016	68 00 00 00 00	 push	 OFFSET ??_C@_00CNPNBAHC@@
  0001b	ff 15 00 00 00
	00		 call	 DWORD PTR __imp_??0?$CStringT@DV?$StrTraitMFC_DLL@DV?$ChTraitsCRT@D@ATL@@@@@ATL@@QAE@PBD@Z
  00021	8b 45 08	 mov	 eax, DWORD PTR ___$ReturnUdt$[ebp]
  00024	5e		 pop	 esi

; 378  : }

  00025	5d		 pop	 ebp
  00026	c2 08 00	 ret	 8
$LN2@GetSubGrap:

; 376  : 
; 377  : 	return pSubGraphData->GetName();

  00029	8b 75 08	 mov	 esi, DWORD PTR ___$ReturnUdt$[ebp]
  0002c	8b c8		 mov	 ecx, eax
  0002e	56		 push	 esi
  0002f	e8 00 00 00 00	 call	 ?GetName@CSubGraphDataBase@@QBE?AV?$CStringT@DV?$StrTraitMFC_DLL@DV?$ChTraitsCRT@D@ATL@@@@@ATL@@XZ ; CSubGraphDataBase::GetName
  00034	8b c6		 mov	 eax, esi
  00036	5e		 pop	 esi

; 378  : }

  00037	5d		 pop	 ebp
  00038	c2 08 00	 ret	 8
?GetSubGraphName@CIndicatorInfoImplementation@@QBE?AV?$CStringT@DV?$StrTraitMFC_DLL@DV?$ChTraitsCRT@D@ATL@@@@@ATL@@H@Z ENDP ; CIndicatorInfoImplementation::GetSubGraphName
_TEXT	ENDS
; Function compile flags: /Ogtp
; File D:\git\src\IBK\IBK_DRFN\ProjSrc\SrcChartEx\ChartOCX\IndicatorCondition\IndicatorInfoImplementation.cpp
;	COMDAT ?GetSubGraphIndex@CIndicatorInfoImplementation@@QBEHABV?$CStringT@DV?$StrTraitMFC_DLL@DV?$ChTraitsCRT@D@ATL@@@@@ATL@@@Z
_TEXT	SEGMENT
_strSubGraphName$ = 8					; size = 4
?GetSubGraphIndex@CIndicatorInfoImplementation@@QBEHABV?$CStringT@DV?$StrTraitMFC_DLL@DV?$ChTraitsCRT@D@ATL@@@@@ATL@@@Z PROC ; CIndicatorInfoImplementation::GetSubGraphIndex, COMDAT
; _this$ = ecx

; 366  : {

  00000	55		 push	 ebp
  00001	8b ec		 mov	 ebp, esp

; 367  : 	return m_graphPartData.GetSubGraphPartDataIndex(strSubGraphName);

  00003	83 c1 08	 add	 ecx, 8

; 368  : }

  00006	5d		 pop	 ebp

; 367  : 	return m_graphPartData.GetSubGraphPartDataIndex(strSubGraphName);

  00007	e9 00 00 00 00	 jmp	 ?GetSubGraphPartDataIndex@CGraphPartData@@QBEHABV?$CStringT@DV?$StrTraitMFC_DLL@DV?$ChTraitsCRT@D@ATL@@@@@ATL@@@Z ; CGraphPartData::GetSubGraphPartDataIndex
?GetSubGraphIndex@CIndicatorInfoImplementation@@QBEHABV?$CStringT@DV?$StrTraitMFC_DLL@DV?$ChTraitsCRT@D@ATL@@@@@ATL@@@Z ENDP ; CIndicatorInfoImplementation::GetSubGraphIndex
_TEXT	ENDS
; Function compile flags: /Ogtp
; File D:\git\src\IBK\IBK_DRFN\ProjSrc\SrcChartEx\ChartOCX\IndicatorCondition\IndicatorInfoImplementation.cpp
;	COMDAT ?GetSubGraphData@CIndicatorInfoImplementation@@QBEPAVCSubGraphData@@H@Z
_TEXT	SEGMENT
_nSubGraphIndex$ = 8					; size = 4
?GetSubGraphData@CIndicatorInfoImplementation@@QBEPAVCSubGraphData@@H@Z PROC ; CIndicatorInfoImplementation::GetSubGraphData, COMDAT
; _this$ = ecx

; 360  : {

  00000	55		 push	 ebp
  00001	8b ec		 mov	 ebp, esp

; 361  : 	return m_graphPartData.GetSubGraphData(nSubGraphIndex);

  00003	83 c1 08	 add	 ecx, 8

; 362  : }

  00006	5d		 pop	 ebp

; 361  : 	return m_graphPartData.GetSubGraphData(nSubGraphIndex);

  00007	e9 00 00 00 00	 jmp	 ?GetSubGraphData@CGraphPartData@@QBEPAVCSubGraphData@@H@Z ; CGraphPartData::GetSubGraphData
?GetSubGraphData@CIndicatorInfoImplementation@@QBEPAVCSubGraphData@@H@Z ENDP ; CIndicatorInfoImplementation::GetSubGraphData
_TEXT	ENDS
; Function compile flags: /Ogtp
; File D:\git\src\IBK\IBK_DRFN\ProjSrc\SrcChartEx\ChartOCX\IndicatorCondition\IndicatorInfoImplementation.cpp
;	COMDAT ?GetSubGraphData@CIndicatorInfoImplementation@@QBEPAVCSubGraphData@@ABV?$CStringT@DV?$StrTraitMFC_DLL@DV?$ChTraitsCRT@D@ATL@@@@@ATL@@@Z
_TEXT	SEGMENT
_strSubGraphName$ = 8					; size = 4
?GetSubGraphData@CIndicatorInfoImplementation@@QBEPAVCSubGraphData@@ABV?$CStringT@DV?$StrTraitMFC_DLL@DV?$ChTraitsCRT@D@ATL@@@@@ATL@@@Z PROC ; CIndicatorInfoImplementation::GetSubGraphData, COMDAT
; _this$ = ecx

; 355  : {

  00000	55		 push	 ebp
  00001	8b ec		 mov	 ebp, esp

; 356  : 	return m_graphPartData.GetSubGraphData(strSubGraphName);

  00003	83 c1 08	 add	 ecx, 8

; 357  : }

  00006	5d		 pop	 ebp

; 356  : 	return m_graphPartData.GetSubGraphData(strSubGraphName);

  00007	e9 00 00 00 00	 jmp	 ?GetSubGraphData@CGraphPartData@@QBEPAVCSubGraphData@@ABV?$CStringT@DV?$StrTraitMFC_DLL@DV?$ChTraitsCRT@D@ATL@@@@@ATL@@@Z ; CGraphPartData::GetSubGraphData
?GetSubGraphData@CIndicatorInfoImplementation@@QBEPAVCSubGraphData@@ABV?$CStringT@DV?$StrTraitMFC_DLL@DV?$ChTraitsCRT@D@ATL@@@@@ATL@@@Z ENDP ; CIndicatorInfoImplementation::GetSubGraphData
_TEXT	ENDS
; Function compile flags: /Ogtp
; File D:\git\src\IBK\IBK_DRFN\ProjSrc\SrcChartEx\ChartOCX\IndicatorCondition\IndicatorInfoImplementation.cpp
;	COMDAT ?GetAllSubGraphDataList@CIndicatorInfoImplementation@@QBE_NAAV?$CList@PAVCSubGraphData@@PAV1@@@@Z
_TEXT	SEGMENT
_subGraphDataList$ = 8					; size = 4
?GetAllSubGraphDataList@CIndicatorInfoImplementation@@QBE_NAAV?$CList@PAVCSubGraphData@@PAV1@@@@Z PROC ; CIndicatorInfoImplementation::GetAllSubGraphDataList, COMDAT
; _this$ = ecx

; 349  : {

  00000	55		 push	 ebp
  00001	8b ec		 mov	 ebp, esp

; 350  : 	return m_graphPartData.GetAllSubGraphDataList(subGraphDataList);

  00003	83 c1 08	 add	 ecx, 8

; 351  : }

  00006	5d		 pop	 ebp

; 350  : 	return m_graphPartData.GetAllSubGraphDataList(subGraphDataList);

  00007	e9 00 00 00 00	 jmp	 ?GetAllSubGraphDataList@CGraphPartData@@QBE_NAAV?$CList@PAVCSubGraphData@@PAV1@@@@Z ; CGraphPartData::GetAllSubGraphDataList
?GetAllSubGraphDataList@CIndicatorInfoImplementation@@QBE_NAAV?$CList@PAVCSubGraphData@@PAV1@@@@Z ENDP ; CIndicatorInfoImplementation::GetAllSubGraphDataList
_TEXT	ENDS
; Function compile flags: /Ogtp
; File D:\git\src\IBK\IBK_DRFN\ProjSrc\SrcChartEx\ChartOCX\IndicatorCondition\IndicatorInfoImplementation.cpp
;	COMDAT ?GetSubGraphCount@CIndicatorInfoImplementation@@QBEHXZ
_TEXT	SEGMENT
?GetSubGraphCount@CIndicatorInfoImplementation@@QBEHXZ PROC ; CIndicatorInfoImplementation::GetSubGraphCount, COMDAT
; _this$ = ecx

; 344  : 	return m_graphPartData.GetSubGraphPartDataCount();

  00000	83 c1 08	 add	 ecx, 8
  00003	e9 00 00 00 00	 jmp	 ?GetSubGraphPartDataCount@CGraphPartData@@QBEHXZ ; CGraphPartData::GetSubGraphPartDataCount
?GetSubGraphCount@CIndicatorInfoImplementation@@QBEHXZ ENDP ; CIndicatorInfoImplementation::GetSubGraphCount
_TEXT	ENDS
; Function compile flags: /Ogtp
; File D:\git\src\IBK\IBK_DRFN\ProjSrc\SrcChartEx\ChartOCX\IndicatorCondition\IndicatorInfoImplementation.cpp
;	COMDAT ?IsSignalShow@CIndicatorInfoImplementation@@QBE_NXZ
_TEXT	SEGMENT
$T2 = -20						; size = 8
__$EHRec$ = -12						; size = 12
?IsSignalShow@CIndicatorInfoImplementation@@QBE_NXZ PROC ; CIndicatorInfoImplementation::IsSignalShow, COMDAT
; _this$ = ecx

; 326  : {

  00000	55		 push	 ebp
  00001	8b ec		 mov	 ebp, esp
  00003	6a ff		 push	 -1
  00005	68 00 00 00 00	 push	 __ehhandler$?IsSignalShow@CIndicatorInfoImplementation@@QBE_NXZ
  0000a	64 a1 00 00 00
	00		 mov	 eax, DWORD PTR fs:0
  00010	50		 push	 eax
  00011	83 ec 08	 sub	 esp, 8
  00014	53		 push	 ebx
  00015	a1 00 00 00 00	 mov	 eax, DWORD PTR ___security_cookie
  0001a	33 c5		 xor	 eax, ebp
  0001c	50		 push	 eax
  0001d	8d 45 f4	 lea	 eax, DWORD PTR __$EHRec$[ebp]
  00020	64 a3 00 00 00
	00		 mov	 DWORD PTR fs:0, eax

; 327  : 	return m_graphPartData.GetGraphData().GetSignalData().IsShow();

  00026	8d 45 ec	 lea	 eax, DWORD PTR $T2[ebp]
  00029	83 c1 08	 add	 ecx, 8
  0002c	50		 push	 eax
  0002d	e8 00 00 00 00	 call	 ?GetGraphData@CGraphPartData@@QBEABVCGraphData@@XZ ; CGraphPartData::GetGraphData
  00032	8b c8		 mov	 ecx, eax
  00034	e8 00 00 00 00	 call	 ?GetSignalData@CGraphData@@QBE?AVCSignalData@@XZ ; CGraphData::GetSignalData
  00039	8b c8		 mov	 ecx, eax
  0003b	c7 45 fc 00 00
	00 00		 mov	 DWORD PTR __$EHRec$[ebp+8], 0
  00042	e8 00 00 00 00	 call	 ?IsShow@CSignalData@@QBE_NXZ ; CSignalData::IsShow
  00047	8d 4d ec	 lea	 ecx, DWORD PTR $T2[ebp]
  0004a	8a d8		 mov	 bl, al
  0004c	e8 00 00 00 00	 call	 ??1CSignalData@@QAE@XZ	; CSignalData::~CSignalData
  00051	8a c3		 mov	 al, bl

; 328  : }

  00053	8b 4d f4	 mov	 ecx, DWORD PTR __$EHRec$[ebp]
  00056	64 89 0d 00 00
	00 00		 mov	 DWORD PTR fs:0, ecx
  0005d	59		 pop	 ecx
  0005e	5b		 pop	 ebx
  0005f	8b e5		 mov	 esp, ebp
  00061	5d		 pop	 ebp
  00062	c3		 ret	 0
_TEXT	ENDS
;	COMDAT text$x
text$x	SEGMENT
__unwindfunclet$?IsSignalShow@CIndicatorInfoImplementation@@QBE_NXZ$0:
  00000	8d 4d ec	 lea	 ecx, DWORD PTR $T2[ebp]
  00003	e9 00 00 00 00	 jmp	 ??1CSignalData@@QAE@XZ	; CSignalData::~CSignalData
  00008	cc		 int	 3
  00009	cc		 int	 3
  0000a	cc		 int	 3
  0000b	cc		 int	 3
  0000c	cc		 int	 3
__ehhandler$?IsSignalShow@CIndicatorInfoImplementation@@QBE_NXZ:
  0000d	90		 npad	 1
  0000e	90		 npad	 1
  0000f	8b 54 24 08	 mov	 edx, DWORD PTR [esp+8]
  00013	8d 42 0c	 lea	 eax, DWORD PTR [edx+12]
  00016	8b 4a f0	 mov	 ecx, DWORD PTR [edx-16]
  00019	33 c8		 xor	 ecx, eax
  0001b	e8 00 00 00 00	 call	 @__security_check_cookie@4
  00020	b8 00 00 00 00	 mov	 eax, OFFSET __ehfuncinfo$?IsSignalShow@CIndicatorInfoImplementation@@QBE_NXZ
  00025	e9 00 00 00 00	 jmp	 ___CxxFrameHandler3
text$x	ENDS
?IsSignalShow@CIndicatorInfoImplementation@@QBE_NXZ ENDP ; CIndicatorInfoImplementation::IsSignalShow
; Function compile flags: /Ogtp
; File D:\git\src\IBK\IBK_DRFN\ProjSrc\SrcChartEx\ChartOCX\IndicatorCondition\IndicatorInfoImplementation.cpp
;	COMDAT ?IsSignalUse@CIndicatorInfoImplementation@@QBE_NXZ
_TEXT	SEGMENT
$T2 = -20						; size = 8
__$EHRec$ = -12						; size = 12
?IsSignalUse@CIndicatorInfoImplementation@@QBE_NXZ PROC	; CIndicatorInfoImplementation::IsSignalUse, COMDAT
; _this$ = ecx

; 321  : {

  00000	55		 push	 ebp
  00001	8b ec		 mov	 ebp, esp
  00003	6a ff		 push	 -1
  00005	68 00 00 00 00	 push	 __ehhandler$?IsSignalUse@CIndicatorInfoImplementation@@QBE_NXZ
  0000a	64 a1 00 00 00
	00		 mov	 eax, DWORD PTR fs:0
  00010	50		 push	 eax
  00011	83 ec 08	 sub	 esp, 8
  00014	53		 push	 ebx
  00015	a1 00 00 00 00	 mov	 eax, DWORD PTR ___security_cookie
  0001a	33 c5		 xor	 eax, ebp
  0001c	50		 push	 eax
  0001d	8d 45 f4	 lea	 eax, DWORD PTR __$EHRec$[ebp]
  00020	64 a3 00 00 00
	00		 mov	 DWORD PTR fs:0, eax

; 322  : 	return m_graphPartData.GetGraphData().GetSignalData().IsUse();

  00026	8d 45 ec	 lea	 eax, DWORD PTR $T2[ebp]
  00029	83 c1 08	 add	 ecx, 8
  0002c	50		 push	 eax
  0002d	e8 00 00 00 00	 call	 ?GetGraphData@CGraphPartData@@QBEABVCGraphData@@XZ ; CGraphPartData::GetGraphData
  00032	8b c8		 mov	 ecx, eax
  00034	e8 00 00 00 00	 call	 ?GetSignalData@CGraphData@@QBE?AVCSignalData@@XZ ; CGraphData::GetSignalData
  00039	8b c8		 mov	 ecx, eax
  0003b	c7 45 fc 00 00
	00 00		 mov	 DWORD PTR __$EHRec$[ebp+8], 0
  00042	e8 00 00 00 00	 call	 ?IsUse@CSignalData@@QBE_NXZ ; CSignalData::IsUse
  00047	8d 4d ec	 lea	 ecx, DWORD PTR $T2[ebp]
  0004a	8a d8		 mov	 bl, al
  0004c	e8 00 00 00 00	 call	 ??1CSignalData@@QAE@XZ	; CSignalData::~CSignalData
  00051	8a c3		 mov	 al, bl

; 323  : }

  00053	8b 4d f4	 mov	 ecx, DWORD PTR __$EHRec$[ebp]
  00056	64 89 0d 00 00
	00 00		 mov	 DWORD PTR fs:0, ecx
  0005d	59		 pop	 ecx
  0005e	5b		 pop	 ebx
  0005f	8b e5		 mov	 esp, ebp
  00061	5d		 pop	 ebp
  00062	c3		 ret	 0
_TEXT	ENDS
;	COMDAT text$x
text$x	SEGMENT
__unwindfunclet$?IsSignalUse@CIndicatorInfoImplementation@@QBE_NXZ$0:
  00000	8d 4d ec	 lea	 ecx, DWORD PTR $T2[ebp]
  00003	e9 00 00 00 00	 jmp	 ??1CSignalData@@QAE@XZ	; CSignalData::~CSignalData
  00008	cc		 int	 3
  00009	cc		 int	 3
  0000a	cc		 int	 3
  0000b	cc		 int	 3
  0000c	cc		 int	 3
__ehhandler$?IsSignalUse@CIndicatorInfoImplementation@@QBE_NXZ:
  0000d	90		 npad	 1
  0000e	90		 npad	 1
  0000f	8b 54 24 08	 mov	 edx, DWORD PTR [esp+8]
  00013	8d 42 0c	 lea	 eax, DWORD PTR [edx+12]
  00016	8b 4a f0	 mov	 ecx, DWORD PTR [edx-16]
  00019	33 c8		 xor	 ecx, eax
  0001b	e8 00 00 00 00	 call	 @__security_check_cookie@4
  00020	b8 00 00 00 00	 mov	 eax, OFFSET __ehfuncinfo$?IsSignalUse@CIndicatorInfoImplementation@@QBE_NXZ
  00025	e9 00 00 00 00	 jmp	 ___CxxFrameHandler3
text$x	ENDS
?IsSignalUse@CIndicatorInfoImplementation@@QBE_NXZ ENDP	; CIndicatorInfoImplementation::IsSignalUse
; Function compile flags: /Ogtp
; File D:\git\src\IBK\IBK_DRFN\ProjSrc\SrcChartEx\ChartOCX\IndicatorCondition\IndicatorInfoImplementation.cpp
;	COMDAT ?GetSignalData_PointerType@CIndicatorInfoImplementation@@QAEPAVCSignalData@@XZ
_TEXT	SEGMENT
?GetSignalData_PointerType@CIndicatorInfoImplementation@@QAEPAVCSignalData@@XZ PROC ; CIndicatorInfoImplementation::GetSignalData_PointerType, COMDAT
; _this$ = ecx

; 317  : 	return &m_graphPartData.GetGraphData().GetSignalData();

  00000	83 c1 08	 add	 ecx, 8
  00003	e8 00 00 00 00	 call	 ?GetGraphData@CGraphPartData@@QAEAAVCGraphData@@XZ ; CGraphPartData::GetGraphData
  00008	8b c8		 mov	 ecx, eax
  0000a	e9 00 00 00 00	 jmp	 ?GetSignalData@CGraphData@@QAEAAVCSignalData@@XZ ; CGraphData::GetSignalData
?GetSignalData_PointerType@CIndicatorInfoImplementation@@QAEPAVCSignalData@@XZ ENDP ; CIndicatorInfoImplementation::GetSignalData_PointerType
_TEXT	ENDS
; Function compile flags: /Ogtp
; File D:\git\src\IBK\IBK_DRFN\ProjSrc\SrcChartEx\ChartOCX\IndicatorCondition\IndicatorInfoImplementation.cpp
;	COMDAT ?GetSignalData@CIndicatorInfoImplementation@@QAEAAVCSignalData@@XZ
_TEXT	SEGMENT
?GetSignalData@CIndicatorInfoImplementation@@QAEAAVCSignalData@@XZ PROC ; CIndicatorInfoImplementation::GetSignalData, COMDAT
; _this$ = ecx

; 312  : 	return m_graphPartData.GetGraphData().GetSignalData();

  00000	83 c1 08	 add	 ecx, 8
  00003	e8 00 00 00 00	 call	 ?GetGraphData@CGraphPartData@@QAEAAVCGraphData@@XZ ; CGraphPartData::GetGraphData
  00008	8b c8		 mov	 ecx, eax
  0000a	e9 00 00 00 00	 jmp	 ?GetSignalData@CGraphData@@QAEAAVCSignalData@@XZ ; CGraphData::GetSignalData
?GetSignalData@CIndicatorInfoImplementation@@QAEAAVCSignalData@@XZ ENDP ; CIndicatorInfoImplementation::GetSignalData
_TEXT	ENDS
; Function compile flags: /Ogtp
; File D:\git\src\IBK\IBK_DRFN\ProjSrc\SrcChartEx\ChartOCX\IndicatorCondition\IndicatorInfoImplementation.cpp
;	COMDAT ?GetSignalData@CIndicatorInfoImplementation@@QBE?AVCSignalData@@XZ
_TEXT	SEGMENT
___$ReturnUdt$ = 8					; size = 4
?GetSignalData@CIndicatorInfoImplementation@@QBE?AVCSignalData@@XZ PROC ; CIndicatorInfoImplementation::GetSignalData, COMDAT
; _this$ = ecx

; 306  : {

  00000	55		 push	 ebp
  00001	8b ec		 mov	 ebp, esp

; 307  : 	return m_graphPartData.GetGraphData().GetSignalData();

  00003	ff 75 08	 push	 DWORD PTR ___$ReturnUdt$[ebp]
  00006	83 c1 08	 add	 ecx, 8
  00009	e8 00 00 00 00	 call	 ?GetGraphData@CGraphPartData@@QBEABVCGraphData@@XZ ; CGraphPartData::GetGraphData
  0000e	8b c8		 mov	 ecx, eax
  00010	e8 00 00 00 00	 call	 ?GetSignalData@CGraphData@@QBE?AVCSignalData@@XZ ; CGraphData::GetSignalData
  00015	8b 45 08	 mov	 eax, DWORD PTR ___$ReturnUdt$[ebp]

; 308  : }

  00018	5d		 pop	 ebp
  00019	c2 04 00	 ret	 4
?GetSignalData@CIndicatorInfoImplementation@@QBE?AVCSignalData@@XZ ENDP ; CIndicatorInfoImplementation::GetSignalData
_TEXT	ENDS
; Function compile flags: /Ogtp
; File D:\git\src\IBK\IBK_DRFN\ProjSrc\SrcChartEx\ChartOCX\IndicatorCondition\IndicatorInfoImplementation.cpp
;	COMDAT ?GetPacketNames@CIndicatorInfoImplementation@@QBE?AV?$CStringT@DV?$StrTraitMFC_DLL@DV?$ChTraitsCRT@D@ATL@@@@@ATL@@H@Z
_TEXT	SEGMENT
___$ReturnUdt$ = 8					; size = 4
_nSubGraphIndex$ = 12					; size = 4
?GetPacketNames@CIndicatorInfoImplementation@@QBE?AV?$CStringT@DV?$StrTraitMFC_DLL@DV?$ChTraitsCRT@D@ATL@@@@@ATL@@H@Z PROC ; CIndicatorInfoImplementation::GetPacketNames, COMDAT
; _this$ = ecx

; 337  : {

  00000	55		 push	 ebp
  00001	8b ec		 mov	 ebp, esp

; 338  : 	return m_graphPartData.GetPacketNames(nSubGraphIndex);

  00003	ff 75 0c	 push	 DWORD PTR _nSubGraphIndex$[ebp]
  00006	83 c1 08	 add	 ecx, 8
  00009	ff 75 08	 push	 DWORD PTR ___$ReturnUdt$[ebp]
  0000c	e8 00 00 00 00	 call	 ?GetPacketNames@CGraphPartData@@QBE?AV?$CStringT@DV?$StrTraitMFC_DLL@DV?$ChTraitsCRT@D@ATL@@@@@ATL@@H@Z ; CGraphPartData::GetPacketNames
  00011	8b 45 08	 mov	 eax, DWORD PTR ___$ReturnUdt$[ebp]

; 339  : }

  00014	5d		 pop	 ebp
  00015	c2 08 00	 ret	 8
?GetPacketNames@CIndicatorInfoImplementation@@QBE?AV?$CStringT@DV?$StrTraitMFC_DLL@DV?$ChTraitsCRT@D@ATL@@@@@ATL@@H@Z ENDP ; CIndicatorInfoImplementation::GetPacketNames
_TEXT	ENDS
; Function compile flags: /Ogtp
; File D:\git\src\IBK\IBK_DRFN\ProjSrc\SrcChartEx\ChartOCX\IndicatorCondition\IndicatorInfoImplementation.cpp
;	COMDAT ?GetCommonPacketNames@CIndicatorInfoImplementation@@QBE?AV?$CStringT@DV?$StrTraitMFC_DLL@DV?$ChTraitsCRT@D@ATL@@@@@ATL@@XZ
_TEXT	SEGMENT
___$ReturnUdt$ = 8					; size = 4
?GetCommonPacketNames@CIndicatorInfoImplementation@@QBE?AV?$CStringT@DV?$StrTraitMFC_DLL@DV?$ChTraitsCRT@D@ATL@@@@@ATL@@XZ PROC ; CIndicatorInfoImplementation::GetCommonPacketNames, COMDAT
; _this$ = ecx

; 332  : {

  00000	55		 push	 ebp
  00001	8b ec		 mov	 ebp, esp

; 333  : 	return m_graphPartData.GetGraphData().GetPacketNames();

  00003	ff 75 08	 push	 DWORD PTR ___$ReturnUdt$[ebp]
  00006	83 c1 08	 add	 ecx, 8
  00009	e8 00 00 00 00	 call	 ?GetGraphData@CGraphPartData@@QBEABVCGraphData@@XZ ; CGraphPartData::GetGraphData
  0000e	8b c8		 mov	 ecx, eax
  00010	e8 00 00 00 00	 call	 ?GetPacketNames@CGraphData@@QBE?AV?$CStringT@DV?$StrTraitMFC_DLL@DV?$ChTraitsCRT@D@ATL@@@@@ATL@@XZ ; CGraphData::GetPacketNames
  00015	8b 45 08	 mov	 eax, DWORD PTR ___$ReturnUdt$[ebp]

; 334  : }

  00018	5d		 pop	 ebp
  00019	c2 04 00	 ret	 4
?GetCommonPacketNames@CIndicatorInfoImplementation@@QBE?AV?$CStringT@DV?$StrTraitMFC_DLL@DV?$ChTraitsCRT@D@ATL@@@@@ATL@@XZ ENDP ; CIndicatorInfoImplementation::GetCommonPacketNames
_TEXT	ENDS
; Function compile flags: /Ogtp
; File D:\git\src\IBK\IBK_DRFN\ProjSrc\SrcChartEx\ChartOCX\IndicatorCondition\IndicatorInfoImplementation.cpp
;	COMDAT ?GetGraphDataDrawingData@CIndicatorInfoImplementation@@QBEXAA_N000AAH1@Z
_TEXT	SEGMENT
_graphDrawingData$ = -12				; size = 12
_bCalcRiseFallRate_LowHigh$ = 8				; size = 4
_bCalcRiseFallRate_LowCur$ = 12				; size = 4
_bCalcRiseFallRate_HighCur$ = 16			; size = 4
_bCalcRate_PrevCur$ = 20				; size = 4
_nCalcRiseFallRate_CurData$ = 24			; size = 4
_p_bShowOHLC$ = 28					; size = 4
?GetGraphDataDrawingData@CIndicatorInfoImplementation@@QBEXAA_N000AAH1@Z PROC ; CIndicatorInfoImplementation::GetGraphDataDrawingData, COMDAT
; _this$ = ecx

; 293  : {

  00000	55		 push	 ebp
  00001	8b ec		 mov	 ebp, esp
  00003	83 ec 0c	 sub	 esp, 12			; 0000000cH

; 294  : 	CGraphDataDrawingData graphDrawingData = m_graphPartData.GetGraphData().GetGraphDataDrawingData();

  00006	8d 45 f4	 lea	 eax, DWORD PTR _graphDrawingData$[ebp]
  00009	83 c1 08	 add	 ecx, 8
  0000c	50		 push	 eax
  0000d	e8 00 00 00 00	 call	 ?GetGraphData@CGraphPartData@@QBEABVCGraphData@@XZ ; CGraphPartData::GetGraphData
  00012	8b c8		 mov	 ecx, eax
  00014	e8 00 00 00 00	 call	 ?GetGraphDataDrawingData@CGraphData@@QBE?AVCGraphDataDrawingData@@XZ ; CGraphData::GetGraphDataDrawingData

; 295  : 	
; 296  : 	bCalcRiseFallRate_LowHigh = graphDrawingData.DoesCalcRiseFallRate_LowHigh();

  00019	8d 4d f4	 lea	 ecx, DWORD PTR _graphDrawingData$[ebp]
  0001c	e8 00 00 00 00	 call	 ?DoesCalcRiseFallRate_LowHigh@CGraphDataDrawingData@@QBE_NXZ ; CGraphDataDrawingData::DoesCalcRiseFallRate_LowHigh
  00021	8b 4d 08	 mov	 ecx, DWORD PTR _bCalcRiseFallRate_LowHigh$[ebp]
  00024	88 01		 mov	 BYTE PTR [ecx], al

; 297  : 	bCalcRiseFallRate_LowCur = graphDrawingData.DoesCalcRiseFallRate_LowCur();

  00026	8d 4d f4	 lea	 ecx, DWORD PTR _graphDrawingData$[ebp]
  00029	e8 00 00 00 00	 call	 ?DoesCalcRiseFallRate_LowCur@CGraphDataDrawingData@@QBE_NXZ ; CGraphDataDrawingData::DoesCalcRiseFallRate_LowCur
  0002e	8b 4d 0c	 mov	 ecx, DWORD PTR _bCalcRiseFallRate_LowCur$[ebp]
  00031	88 01		 mov	 BYTE PTR [ecx], al

; 298  : 	bCalcRiseFallRate_HighCur = graphDrawingData.DoesCalcRiseFallRate_HighCur();

  00033	8d 4d f4	 lea	 ecx, DWORD PTR _graphDrawingData$[ebp]
  00036	e8 00 00 00 00	 call	 ?DoesCalcRiseFallRate_HighCur@CGraphDataDrawingData@@QBE_NXZ ; CGraphDataDrawingData::DoesCalcRiseFallRate_HighCur
  0003b	8b 4d 10	 mov	 ecx, DWORD PTR _bCalcRiseFallRate_HighCur$[ebp]
  0003e	88 01		 mov	 BYTE PTR [ecx], al

; 299  : 	bCalcRate_PrevCur = graphDrawingData.DoesCalcRate_PrevCur();

  00040	8d 4d f4	 lea	 ecx, DWORD PTR _graphDrawingData$[ebp]
  00043	e8 00 00 00 00	 call	 ?DoesCalcRate_PrevCur@CGraphDataDrawingData@@QBE_NXZ ; CGraphDataDrawingData::DoesCalcRate_PrevCur
  00048	8b 4d 14	 mov	 ecx, DWORD PTR _bCalcRate_PrevCur$[ebp]
  0004b	88 01		 mov	 BYTE PTR [ecx], al

; 300  : 	nCalcRiseFallRate_CurData = graphDrawingData.GetCalcRiseFallRate_CurData();

  0004d	8d 4d f4	 lea	 ecx, DWORD PTR _graphDrawingData$[ebp]
  00050	e8 00 00 00 00	 call	 ?GetCalcRiseFallRate_CurData@CGraphDataDrawingData@@QBEHXZ ; CGraphDataDrawingData::GetCalcRiseFallRate_CurData
  00055	8b 4d 18	 mov	 ecx, DWORD PTR _nCalcRiseFallRate_CurData$[ebp]
  00058	89 01		 mov	 DWORD PTR [ecx], eax

; 301  : 	p_bShowOHLC = graphDrawingData.GetShowOHLC();

  0005a	8d 4d f4	 lea	 ecx, DWORD PTR _graphDrawingData$[ebp]
  0005d	e8 00 00 00 00	 call	 ?GetShowOHLC@CGraphDataDrawingData@@QBEHXZ ; CGraphDataDrawingData::GetShowOHLC
  00062	8b 4d 1c	 mov	 ecx, DWORD PTR _p_bShowOHLC$[ebp]
  00065	89 01		 mov	 DWORD PTR [ecx], eax

; 302  : }

  00067	8b e5		 mov	 esp, ebp
  00069	5d		 pop	 ebp
  0006a	c2 18 00	 ret	 24			; 00000018H
?GetGraphDataDrawingData@CIndicatorInfoImplementation@@QBEXAA_N000AAH1@Z ENDP ; CIndicatorInfoImplementation::GetGraphDataDrawingData
_TEXT	ENDS
; Function compile flags: /Ogtp
; File D:\git\src\IBK\IBK_DRFN\ProjSrc\SrcChartEx\ChartOCX\IndicatorCondition\IndicatorInfoImplementation.cpp
;	COMDAT ?GetGraphData_PointerType@CIndicatorInfoImplementation@@QAEPAVCGraphData@@XZ
_TEXT	SEGMENT
?GetGraphData_PointerType@CIndicatorInfoImplementation@@QAEPAVCGraphData@@XZ PROC ; CIndicatorInfoImplementation::GetGraphData_PointerType, COMDAT
; _this$ = ecx

; 288  : 	return &m_graphPartData.GetGraphData();

  00000	83 c1 08	 add	 ecx, 8
  00003	e9 00 00 00 00	 jmp	 ?GetGraphData@CGraphPartData@@QAEAAVCGraphData@@XZ ; CGraphPartData::GetGraphData
?GetGraphData_PointerType@CIndicatorInfoImplementation@@QAEPAVCGraphData@@XZ ENDP ; CIndicatorInfoImplementation::GetGraphData_PointerType
_TEXT	ENDS
; Function compile flags: /Ogtp
; File D:\git\src\IBK\IBK_DRFN\ProjSrc\SrcChartEx\ChartOCX\IndicatorCondition\IndicatorInfoImplementation.cpp
;	COMDAT ?GetGraphData@CIndicatorInfoImplementation@@QAEAAVCGraphData@@XZ
_TEXT	SEGMENT
?GetGraphData@CIndicatorInfoImplementation@@QAEAAVCGraphData@@XZ PROC ; CIndicatorInfoImplementation::GetGraphData, COMDAT
; _this$ = ecx

; 283  : 	return m_graphPartData.GetGraphData();

  00000	83 c1 08	 add	 ecx, 8
  00003	e9 00 00 00 00	 jmp	 ?GetGraphData@CGraphPartData@@QAEAAVCGraphData@@XZ ; CGraphPartData::GetGraphData
?GetGraphData@CIndicatorInfoImplementation@@QAEAAVCGraphData@@XZ ENDP ; CIndicatorInfoImplementation::GetGraphData
_TEXT	ENDS
; Function compile flags: /Ogtp
; File D:\git\src\IBK\IBK_DRFN\ProjSrc\SrcChartEx\ChartOCX\IndicatorCondition\IndicatorInfoImplementation.cpp
;	COMDAT ?GetStringBaseLineList@CIndicatorInfoImplementation@@QBE?AV?$CStringT@DV?$StrTraitMFC_DLL@DV?$ChTraitsCRT@D@ATL@@@@@ATL@@ABV23@@Z
_TEXT	SEGMENT
___$ReturnUdt$ = 8					; size = 4
_strCompart$ = 12					; size = 4
?GetStringBaseLineList@CIndicatorInfoImplementation@@QBE?AV?$CStringT@DV?$StrTraitMFC_DLL@DV?$ChTraitsCRT@D@ATL@@@@@ATL@@ABV23@@Z PROC ; CIndicatorInfoImplementation::GetStringBaseLineList, COMDAT
; _this$ = ecx

; 277  : {

  00000	55		 push	 ebp
  00001	8b ec		 mov	 ebp, esp

; 278  : 	return GetStringDoubleList(m_baseLineList, strCompart);

  00003	ff 75 0c	 push	 DWORD PTR _strCompart$[ebp]
  00006	8d 41 74	 lea	 eax, DWORD PTR [ecx+116]
  00009	50		 push	 eax
  0000a	ff 75 08	 push	 DWORD PTR ___$ReturnUdt$[ebp]
  0000d	e8 00 00 00 00	 call	 ?GetStringDoubleList@CIndicatorInfoImplementation@@ABE?AV?$CStringT@DV?$StrTraitMFC_DLL@DV?$ChTraitsCRT@D@ATL@@@@@ATL@@ABV?$CList@NN@@ABV23@@Z ; CIndicatorInfoImplementation::GetStringDoubleList
  00012	8b 45 08	 mov	 eax, DWORD PTR ___$ReturnUdt$[ebp]

; 279  : }

  00015	5d		 pop	 ebp
  00016	c2 08 00	 ret	 8
?GetStringBaseLineList@CIndicatorInfoImplementation@@QBE?AV?$CStringT@DV?$StrTraitMFC_DLL@DV?$ChTraitsCRT@D@ATL@@@@@ATL@@ABV23@@Z ENDP ; CIndicatorInfoImplementation::GetStringBaseLineList
_TEXT	ENDS
; Function compile flags: /Ogtp
; File D:\git\src\IBK\IBK_DRFN\ProjSrc\SrcChartEx\ChartOCX\IndicatorCondition\IndicatorInfoImplementation.cpp
;	COMDAT ?GetStringDrawConditionList@CIndicatorInfoImplementation@@QBE?AV?$CStringT@DV?$StrTraitMFC_DLL@DV?$ChTraitsCRT@D@ATL@@@@@ATL@@ABV23@@Z
_TEXT	SEGMENT
___$ReturnUdt$ = 8					; size = 4
_strCompart$ = 12					; size = 4
?GetStringDrawConditionList@CIndicatorInfoImplementation@@QBE?AV?$CStringT@DV?$StrTraitMFC_DLL@DV?$ChTraitsCRT@D@ATL@@@@@ATL@@ABV23@@Z PROC ; CIndicatorInfoImplementation::GetStringDrawConditionList, COMDAT
; _this$ = ecx

; 272  : {

  00000	55		 push	 ebp
  00001	8b ec		 mov	 ebp, esp

; 273  : 	return GetStringDoubleList(m_drawConditionList, strCompart);

  00003	ff 75 0c	 push	 DWORD PTR _strCompart$[ebp]
  00006	8d 41 58	 lea	 eax, DWORD PTR [ecx+88]
  00009	50		 push	 eax
  0000a	ff 75 08	 push	 DWORD PTR ___$ReturnUdt$[ebp]
  0000d	e8 00 00 00 00	 call	 ?GetStringDoubleList@CIndicatorInfoImplementation@@ABE?AV?$CStringT@DV?$StrTraitMFC_DLL@DV?$ChTraitsCRT@D@ATL@@@@@ATL@@ABV?$CList@NN@@ABV23@@Z ; CIndicatorInfoImplementation::GetStringDoubleList
  00012	8b 45 08	 mov	 eax, DWORD PTR ___$ReturnUdt$[ebp]

; 274  : }

  00015	5d		 pop	 ebp
  00016	c2 08 00	 ret	 8
?GetStringDrawConditionList@CIndicatorInfoImplementation@@QBE?AV?$CStringT@DV?$StrTraitMFC_DLL@DV?$ChTraitsCRT@D@ATL@@@@@ATL@@ABV23@@Z ENDP ; CIndicatorInfoImplementation::GetStringDrawConditionList
_TEXT	ENDS
; Function compile flags: /Ogtp
; File D:\git\src\IBK\IBK_DRFN\ProjSrc\SrcChartEx\ChartOCX\IndicatorCondition\IndicatorInfoImplementation.cpp
;	COMDAT ?GetStringCommonCalConditionList@CIndicatorInfoImplementation@@QBE?AV?$CStringT@DV?$StrTraitMFC_DLL@DV?$ChTraitsCRT@D@ATL@@@@@ATL@@ABV23@@Z
_TEXT	SEGMENT
___$ReturnUdt$ = 8					; size = 4
_strCompart$ = 12					; size = 4
?GetStringCommonCalConditionList@CIndicatorInfoImplementation@@QBE?AV?$CStringT@DV?$StrTraitMFC_DLL@DV?$ChTraitsCRT@D@ATL@@@@@ATL@@ABV23@@Z PROC ; CIndicatorInfoImplementation::GetStringCommonCalConditionList, COMDAT
; _this$ = ecx

; 267  : {

  00000	55		 push	 ebp
  00001	8b ec		 mov	 ebp, esp

; 268  : 	return GetStringDoubleList(m_calConditionList, strCompart);

  00003	ff 75 0c	 push	 DWORD PTR _strCompart$[ebp]
  00006	8d 41 3c	 lea	 eax, DWORD PTR [ecx+60]
  00009	50		 push	 eax
  0000a	ff 75 08	 push	 DWORD PTR ___$ReturnUdt$[ebp]
  0000d	e8 00 00 00 00	 call	 ?GetStringDoubleList@CIndicatorInfoImplementation@@ABE?AV?$CStringT@DV?$StrTraitMFC_DLL@DV?$ChTraitsCRT@D@ATL@@@@@ATL@@ABV?$CList@NN@@ABV23@@Z ; CIndicatorInfoImplementation::GetStringDoubleList
  00012	8b 45 08	 mov	 eax, DWORD PTR ___$ReturnUdt$[ebp]

; 269  : }

  00015	5d		 pop	 ebp
  00016	c2 08 00	 ret	 8
?GetStringCommonCalConditionList@CIndicatorInfoImplementation@@QBE?AV?$CStringT@DV?$StrTraitMFC_DLL@DV?$ChTraitsCRT@D@ATL@@@@@ATL@@ABV23@@Z ENDP ; CIndicatorInfoImplementation::GetStringCommonCalConditionList
_TEXT	ENDS
; Function compile flags: /Ogtp
; File D:\git\src\IBK\IBK_DRFN\ProjSrc\SrcChartEx\ChartOCX\IndicatorCondition\IndicatorInfoImplementation.cpp
;	COMDAT ?GetAllSubGraphDataForMaking@CIndicatorInfoImplementation@@QBEXAAV?$CStringT@DV?$StrTraitMFC_DLL@DV?$ChTraitsCRT@D@ATL@@@@@ATL@@@Z
_TEXT	SEGMENT
_p_strGraphData$ = 8					; size = 4
?GetAllSubGraphDataForMaking@CIndicatorInfoImplementation@@QBEXAAV?$CStringT@DV?$StrTraitMFC_DLL@DV?$ChTraitsCRT@D@ATL@@@@@ATL@@@Z PROC ; CIndicatorInfoImplementation::GetAllSubGraphDataForMaking, COMDAT
; _this$ = ecx

; 239  : {

  00000	55		 push	 ebp
  00001	8b ec		 mov	 ebp, esp

; 648  : 	if(GetCommonCalConditionCount() <= 0)

  00003	83 79 48 00	 cmp	 DWORD PTR [ecx+72], 0

; 239  : {

  00007	56		 push	 esi

; 648  : 	if(GetCommonCalConditionCount() <= 0)

  00008	8d 71 08	 lea	 esi, DWORD PTR [ecx+8]
  0000b	7f 13		 jg	 SHORT $LN17@GetAllSubG

; 205  : 	return m_graphPartData.GetConditionList(nSubGraphIndex);

  0000d	6a 00		 push	 0
  0000f	8b ce		 mov	 ecx, esi
  00011	e8 00 00 00 00	 call	 ?GetConditionList@CGraphPartData@@QBEPAV?$CList@NN@@H@Z ; CGraphPartData::GetConditionList

; 148  : 	if(pDoubleList == NULL)

  00016	85 c0		 test	 eax, eax
  00018	74 17		 je	 SHORT $LN6@GetAllSubG

; 650  : 		if(GetCalConditionCount(0) <= 0)

  0001a	83 78 0c 00	 cmp	 DWORD PTR [eax+12], 0
  0001e	7e 11		 jle	 SHORT $LN6@GetAllSubG
$LN17@GetAllSubG:

; 651  : 			return CIndiBaseData::BASE_TITLE;
; 652  : 	}
; 653  : 
; 654  : 	return m_graphPartData.GetConditionTitle();

  00020	8b ce		 mov	 ecx, esi
  00022	e8 00 00 00 00	 call	 ?GetConditionTitle@CGraphPartData@@QBE?AW4TITLETYPE@CIndiBaseData@@XZ ; CGraphPartData::GetConditionTitle

; 240  : 	switch( GetConditionTitle())

  00027	83 e8 01	 sub	 eax, 1
  0002a	74 27		 je	 SHORT $LN4@GetAllSubG
  0002c	83 e8 01	 sub	 eax, 1
  0002f	74 0f		 je	 SHORT $LN5@GetAllSubG
$LN6@GetAllSubG:

; 245  : 												break;
; 246  : 		default:								m_graphPartData.GetAllSubGraphDataForMaking( p_strGraphData);	// title   .

  00031	ff 75 08	 push	 DWORD PTR _p_strGraphData$[ebp]
  00034	8b ce		 mov	 ecx, esi
  00036	e8 00 00 00 00	 call	 ?GetAllSubGraphDataForMaking@CGraphPartData@@QBEXAAV?$CStringT@DV?$StrTraitMFC_DLL@DV?$ChTraitsCRT@D@ATL@@@@@ATL@@@Z ; CGraphPartData::GetAllSubGraphDataForMaking
  0003b	5e		 pop	 esi

; 247  : 												break;
; 248  : 	}
; 249  : }

  0003c	5d		 pop	 ebp
  0003d	c2 04 00	 ret	 4
$LN5@GetAllSubG:

; 243  : 												break;
; 244  : 		case CIndiBaseData::BASE_COND_TITLE:	m_graphPartData.GetAllSubGraphDataForMaking( p_strGraphData, 0, true);

  00040	6a 01		 push	 1

; 247  : 												break;
; 248  : 	}
; 249  : }

  00042	6a 00		 push	 0
  00044	ff 75 08	 push	 DWORD PTR _p_strGraphData$[ebp]
  00047	8b ce		 mov	 ecx, esi
  00049	e8 00 00 00 00	 call	 ?GetAllSubGraphDataForMaking@CGraphPartData@@QBEXAAV?$CStringT@DV?$StrTraitMFC_DLL@DV?$ChTraitsCRT@D@ATL@@@@@ATL@@H_N@Z ; CGraphPartData::GetAllSubGraphDataForMaking
  0004e	5e		 pop	 esi
  0004f	5d		 pop	 ebp
  00050	c2 04 00	 ret	 4
$LN4@GetAllSubG:

; 241  : 	{
; 242  : 		case CIndiBaseData::COND_TITLE:			m_graphPartData.GetAllSubGraphDataForMaking( p_strGraphData, 0, false);

  00053	6a 00		 push	 0

; 247  : 												break;
; 248  : 	}
; 249  : }

  00055	6a 00		 push	 0
  00057	ff 75 08	 push	 DWORD PTR _p_strGraphData$[ebp]
  0005a	8b ce		 mov	 ecx, esi
  0005c	e8 00 00 00 00	 call	 ?GetAllSubGraphDataForMaking@CGraphPartData@@QBEXAAV?$CStringT@DV?$StrTraitMFC_DLL@DV?$ChTraitsCRT@D@ATL@@@@@ATL@@H_N@Z ; CGraphPartData::GetAllSubGraphDataForMaking
  00061	5e		 pop	 esi
  00062	5d		 pop	 ebp
  00063	c2 04 00	 ret	 4
?GetAllSubGraphDataForMaking@CIndicatorInfoImplementation@@QBEXAAV?$CStringT@DV?$StrTraitMFC_DLL@DV?$ChTraitsCRT@D@ATL@@@@@ATL@@@Z ENDP ; CIndicatorInfoImplementation::GetAllSubGraphDataForMaking
_TEXT	ENDS
; Function compile flags: /Ogtp
; File D:\git\src\IBK\IBK_DRFN\ProjSrc\SrcChartEx\ChartOCX\IndicatorCondition\IndicatorInfoImplementation.cpp
;	COMDAT ?GetGraphDataForMaking@CIndicatorInfoImplementation@@QBEXAAV?$CStringT@DV?$StrTraitMFC_DLL@DV?$ChTraitsCRT@D@ATL@@@@@ATL@@@Z
_TEXT	SEGMENT
_p_strGraphData$ = 8					; size = 4
?GetGraphDataForMaking@CIndicatorInfoImplementation@@QBEXAAV?$CStringT@DV?$StrTraitMFC_DLL@DV?$ChTraitsCRT@D@ATL@@@@@ATL@@@Z PROC ; CIndicatorInfoImplementation::GetGraphDataForMaking, COMDAT
; _this$ = ecx

; 223  : {

  00000	55		 push	 ebp
  00001	8b ec		 mov	 ebp, esp

; 648  : 	if(GetCommonCalConditionCount() <= 0)

  00003	83 79 48 00	 cmp	 DWORD PTR [ecx+72], 0

; 223  : {

  00007	56		 push	 esi

; 648  : 	if(GetCommonCalConditionCount() <= 0)

  00008	8d 71 08	 lea	 esi, DWORD PTR [ecx+8]
  0000b	7f 13		 jg	 SHORT $LN17@GetGraphDa

; 205  : 	return m_graphPartData.GetConditionList(nSubGraphIndex);

  0000d	6a 00		 push	 0
  0000f	8b ce		 mov	 ecx, esi
  00011	e8 00 00 00 00	 call	 ?GetConditionList@CGraphPartData@@QBEPAV?$CList@NN@@H@Z ; CGraphPartData::GetConditionList

; 148  : 	if(pDoubleList == NULL)

  00016	85 c0		 test	 eax, eax
  00018	74 17		 je	 SHORT $LN6@GetGraphDa

; 650  : 		if(GetCalConditionCount(0) <= 0)

  0001a	83 78 0c 00	 cmp	 DWORD PTR [eax+12], 0
  0001e	7e 11		 jle	 SHORT $LN6@GetGraphDa
$LN17@GetGraphDa:

; 651  : 			return CIndiBaseData::BASE_TITLE;
; 652  : 	}
; 653  : 
; 654  : 	return m_graphPartData.GetConditionTitle();

  00020	8b ce		 mov	 ecx, esi
  00022	e8 00 00 00 00	 call	 ?GetConditionTitle@CGraphPartData@@QBE?AW4TITLETYPE@CIndiBaseData@@XZ ; CGraphPartData::GetConditionTitle

; 224  : 	switch( GetConditionTitle())

  00027	83 e8 01	 sub	 eax, 1
  0002a	74 27		 je	 SHORT $LN4@GetGraphDa
  0002c	83 e8 01	 sub	 eax, 1
  0002f	74 0f		 je	 SHORT $LN5@GetGraphDa
$LN6@GetGraphDa:

; 229  : 												break;
; 230  : 		default:								m_graphPartData.GetGraphDataForMaking( p_strGraphData);	// title   .

  00031	ff 75 08	 push	 DWORD PTR _p_strGraphData$[ebp]
  00034	8b ce		 mov	 ecx, esi
  00036	e8 00 00 00 00	 call	 ?GetGraphDataForMaking@CGraphPartData@@QBEXAAV?$CStringT@DV?$StrTraitMFC_DLL@DV?$ChTraitsCRT@D@ATL@@@@@ATL@@@Z ; CGraphPartData::GetGraphDataForMaking
  0003b	5e		 pop	 esi

; 231  : 												break;
; 232  : 	}
; 233  : }

  0003c	5d		 pop	 ebp
  0003d	c2 04 00	 ret	 4
$LN5@GetGraphDa:

; 227  : 												break;
; 228  : 		case CIndiBaseData::BASE_COND_TITLE:	m_graphPartData.GetGraphDataForMaking( p_strGraphData, 0, true);

  00040	6a 01		 push	 1

; 231  : 												break;
; 232  : 	}
; 233  : }

  00042	6a 00		 push	 0
  00044	ff 75 08	 push	 DWORD PTR _p_strGraphData$[ebp]
  00047	8b ce		 mov	 ecx, esi
  00049	e8 00 00 00 00	 call	 ?GetGraphDataForMaking@CGraphPartData@@QBEXAAV?$CStringT@DV?$StrTraitMFC_DLL@DV?$ChTraitsCRT@D@ATL@@@@@ATL@@H_N@Z ; CGraphPartData::GetGraphDataForMaking
  0004e	5e		 pop	 esi
  0004f	5d		 pop	 ebp
  00050	c2 04 00	 ret	 4
$LN4@GetGraphDa:

; 225  : 	{
; 226  : 		case CIndiBaseData::COND_TITLE:			m_graphPartData.GetGraphDataForMaking( p_strGraphData, 0, false);

  00053	6a 00		 push	 0

; 231  : 												break;
; 232  : 	}
; 233  : }

  00055	6a 00		 push	 0
  00057	ff 75 08	 push	 DWORD PTR _p_strGraphData$[ebp]
  0005a	8b ce		 mov	 ecx, esi
  0005c	e8 00 00 00 00	 call	 ?GetGraphDataForMaking@CGraphPartData@@QBEXAAV?$CStringT@DV?$StrTraitMFC_DLL@DV?$ChTraitsCRT@D@ATL@@@@@ATL@@H_N@Z ; CGraphPartData::GetGraphDataForMaking
  00061	5e		 pop	 esi
  00062	5d		 pop	 ebp
  00063	c2 04 00	 ret	 4
?GetGraphDataForMaking@CIndicatorInfoImplementation@@QBEXAAV?$CStringT@DV?$StrTraitMFC_DLL@DV?$ChTraitsCRT@D@ATL@@@@@ATL@@@Z ENDP ; CIndicatorInfoImplementation::GetGraphDataForMaking
_TEXT	ENDS
; Function compile flags: /Ogtp
; File D:\git\src\IBK\IBK_DRFN\ProjSrc\SrcChartEx\ChartOCX\IndicatorCondition\IndicatorInfoImplementation.cpp
;	COMDAT ?GetCalConditionList@CIndicatorInfoImplementation@@QAEPAV?$CList@NN@@ABV?$CStringT@DV?$StrTraitMFC_DLL@DV?$ChTraitsCRT@D@ATL@@@@@ATL@@@Z
_TEXT	SEGMENT
_strSubGraphName$ = 8					; size = 4
?GetCalConditionList@CIndicatorInfoImplementation@@QAEPAV?$CList@NN@@ABV?$CStringT@DV?$StrTraitMFC_DLL@DV?$ChTraitsCRT@D@ATL@@@@@ATL@@@Z PROC ; CIndicatorInfoImplementation::GetCalConditionList, COMDAT
; _this$ = ecx

; 199  : {

  00000	55		 push	 ebp
  00001	8b ec		 mov	 ebp, esp

; 200  : 	return m_graphPartData.GetConditionList(strSubGraphName);

  00003	83 c1 08	 add	 ecx, 8

; 201  : }

  00006	5d		 pop	 ebp

; 200  : 	return m_graphPartData.GetConditionList(strSubGraphName);

  00007	e9 00 00 00 00	 jmp	 ?GetConditionList@CGraphPartData@@QBEPAV?$CList@NN@@ABV?$CStringT@DV?$StrTraitMFC_DLL@DV?$ChTraitsCRT@D@ATL@@@@@ATL@@@Z ; CGraphPartData::GetConditionList
?GetCalConditionList@CIndicatorInfoImplementation@@QAEPAV?$CList@NN@@ABV?$CStringT@DV?$StrTraitMFC_DLL@DV?$ChTraitsCRT@D@ATL@@@@@ATL@@@Z ENDP ; CIndicatorInfoImplementation::GetCalConditionList
_TEXT	ENDS
; Function compile flags: /Ogtp
; File D:\git\src\IBK\IBK_DRFN\ProjSrc\SrcChartEx\ChartOCX\IndicatorCondition\IndicatorInfoImplementation.cpp
;	COMDAT ?GetCalConditionList@CIndicatorInfoImplementation@@QBEPAV?$CList@NN@@ABV?$CStringT@DV?$StrTraitMFC_DLL@DV?$ChTraitsCRT@D@ATL@@@@@ATL@@@Z
_TEXT	SEGMENT
_strSubGraphName$ = 8					; size = 4
?GetCalConditionList@CIndicatorInfoImplementation@@QBEPAV?$CList@NN@@ABV?$CStringT@DV?$StrTraitMFC_DLL@DV?$ChTraitsCRT@D@ATL@@@@@ATL@@@Z PROC ; CIndicatorInfoImplementation::GetCalConditionList, COMDAT
; _this$ = ecx

; 194  : {

  00000	55		 push	 ebp
  00001	8b ec		 mov	 ebp, esp

; 195  : 	return m_graphPartData.GetConditionList(strSubGraphName);

  00003	83 c1 08	 add	 ecx, 8

; 196  : }

  00006	5d		 pop	 ebp

; 195  : 	return m_graphPartData.GetConditionList(strSubGraphName);

  00007	e9 00 00 00 00	 jmp	 ?GetConditionList@CGraphPartData@@QBEPAV?$CList@NN@@ABV?$CStringT@DV?$StrTraitMFC_DLL@DV?$ChTraitsCRT@D@ATL@@@@@ATL@@@Z ; CGraphPartData::GetConditionList
?GetCalConditionList@CIndicatorInfoImplementation@@QBEPAV?$CList@NN@@ABV?$CStringT@DV?$StrTraitMFC_DLL@DV?$ChTraitsCRT@D@ATL@@@@@ATL@@@Z ENDP ; CIndicatorInfoImplementation::GetCalConditionList
_TEXT	ENDS
; Function compile flags: /Ogtp
; File D:\git\src\IBK\IBK_DRFN\ProjSrc\SrcChartEx\ChartOCX\IndicatorCondition\IndicatorInfoImplementation.cpp
;	COMDAT ?GetCalConditionList@CIndicatorInfoImplementation@@QAEPAV?$CList@NN@@H@Z
_TEXT	SEGMENT
_nSubGraphIndex$ = 8					; size = 4
?GetCalConditionList@CIndicatorInfoImplementation@@QAEPAV?$CList@NN@@H@Z PROC ; CIndicatorInfoImplementation::GetCalConditionList, COMDAT
; _this$ = ecx

; 209  : {

  00000	55		 push	 ebp
  00001	8b ec		 mov	 ebp, esp

; 210  : 	return m_graphPartData.GetConditionList(nSubGraphIndex);

  00003	83 c1 08	 add	 ecx, 8

; 211  : }

  00006	5d		 pop	 ebp

; 210  : 	return m_graphPartData.GetConditionList(nSubGraphIndex);

  00007	e9 00 00 00 00	 jmp	 ?GetConditionList@CGraphPartData@@QBEPAV?$CList@NN@@H@Z ; CGraphPartData::GetConditionList
?GetCalConditionList@CIndicatorInfoImplementation@@QAEPAV?$CList@NN@@H@Z ENDP ; CIndicatorInfoImplementation::GetCalConditionList
_TEXT	ENDS
; Function compile flags: /Ogtp
; File D:\git\src\IBK\IBK_DRFN\ProjSrc\SrcChartEx\ChartOCX\IndicatorCondition\IndicatorInfoImplementation.cpp
;	COMDAT ?GetCalConditionList@CIndicatorInfoImplementation@@QBEPAV?$CList@NN@@H@Z
_TEXT	SEGMENT
_nSubGraphIndex$ = 8					; size = 4
?GetCalConditionList@CIndicatorInfoImplementation@@QBEPAV?$CList@NN@@H@Z PROC ; CIndicatorInfoImplementation::GetCalConditionList, COMDAT
; _this$ = ecx

; 204  : {

  00000	55		 push	 ebp
  00001	8b ec		 mov	 ebp, esp

; 205  : 	return m_graphPartData.GetConditionList(nSubGraphIndex);

  00003	83 c1 08	 add	 ecx, 8

; 206  : }

  00006	5d		 pop	 ebp

; 205  : 	return m_graphPartData.GetConditionList(nSubGraphIndex);

  00007	e9 00 00 00 00	 jmp	 ?GetConditionList@CGraphPartData@@QBEPAV?$CList@NN@@H@Z ; CGraphPartData::GetConditionList
?GetCalConditionList@CIndicatorInfoImplementation@@QBEPAV?$CList@NN@@H@Z ENDP ; CIndicatorInfoImplementation::GetCalConditionList
_TEXT	ENDS
; Function compile flags: /Ogtp
; File D:\git\src\IBK\IBK_DRFN\ProjSrc\SrcChartEx\ChartOCX\IndicatorCondition\IndicatorInfoImplementation.cpp
;	COMDAT ?GetBaseLineList@CIndicatorInfoImplementation@@QAEPAV?$CList@NN@@XZ
_TEXT	SEGMENT
?GetBaseLineList@CIndicatorInfoImplementation@@QAEPAV?$CList@NN@@XZ PROC ; CIndicatorInfoImplementation::GetBaseLineList, COMDAT
; _this$ = ecx

; 190  : 	return &m_baseLineList;

  00000	8d 41 74	 lea	 eax, DWORD PTR [ecx+116]

; 191  : }

  00003	c3		 ret	 0
?GetBaseLineList@CIndicatorInfoImplementation@@QAEPAV?$CList@NN@@XZ ENDP ; CIndicatorInfoImplementation::GetBaseLineList
_TEXT	ENDS
; Function compile flags: /Ogtp
; File D:\git\src\IBK\IBK_DRFN\ProjSrc\SrcChartEx\ChartOCX\IndicatorCondition\IndicatorInfoImplementation.cpp
;	COMDAT ?GetBaseLineList@CIndicatorInfoImplementation@@QBEABV?$CList@NN@@XZ
_TEXT	SEGMENT
?GetBaseLineList@CIndicatorInfoImplementation@@QBEABV?$CList@NN@@XZ PROC ; CIndicatorInfoImplementation::GetBaseLineList, COMDAT
; _this$ = ecx

; 185  : 	return const_cast<CDoubleList&>(m_baseLineList);

  00000	8d 41 74	 lea	 eax, DWORD PTR [ecx+116]

; 186  : }

  00003	c3		 ret	 0
?GetBaseLineList@CIndicatorInfoImplementation@@QBEABV?$CList@NN@@XZ ENDP ; CIndicatorInfoImplementation::GetBaseLineList
_TEXT	ENDS
; Function compile flags: /Ogtp
; File D:\git\src\IBK\IBK_DRFN\ProjSrc\SrcChartEx\ChartOCX\IndicatorCondition\IndicatorInfoImplementation.cpp
;	COMDAT ?GetDrawConditionList@CIndicatorInfoImplementation@@QAEPAV?$CList@NN@@XZ
_TEXT	SEGMENT
?GetDrawConditionList@CIndicatorInfoImplementation@@QAEPAV?$CList@NN@@XZ PROC ; CIndicatorInfoImplementation::GetDrawConditionList, COMDAT
; _this$ = ecx

; 180  : 	return &m_drawConditionList;

  00000	8d 41 58	 lea	 eax, DWORD PTR [ecx+88]

; 181  : }

  00003	c3		 ret	 0
?GetDrawConditionList@CIndicatorInfoImplementation@@QAEPAV?$CList@NN@@XZ ENDP ; CIndicatorInfoImplementation::GetDrawConditionList
_TEXT	ENDS
; Function compile flags: /Ogtp
; File D:\git\src\IBK\IBK_DRFN\ProjSrc\SrcChartEx\ChartOCX\IndicatorCondition\IndicatorInfoImplementation.cpp
;	COMDAT ?GetDrawConditionList@CIndicatorInfoImplementation@@QBEABV?$CList@NN@@XZ
_TEXT	SEGMENT
?GetDrawConditionList@CIndicatorInfoImplementation@@QBEABV?$CList@NN@@XZ PROC ; CIndicatorInfoImplementation::GetDrawConditionList, COMDAT
; _this$ = ecx

; 175  : 	return const_cast<CDoubleList&>(m_drawConditionList);

  00000	8d 41 58	 lea	 eax, DWORD PTR [ecx+88]

; 176  : }

  00003	c3		 ret	 0
?GetDrawConditionList@CIndicatorInfoImplementation@@QBEABV?$CList@NN@@XZ ENDP ; CIndicatorInfoImplementation::GetDrawConditionList
_TEXT	ENDS
; Function compile flags: /Ogtp
; File D:\git\src\IBK\IBK_DRFN\ProjSrc\SrcChartEx\ChartOCX\IndicatorCondition\IndicatorInfoImplementation.cpp
;	COMDAT ?GetCommonCalConditionList@CIndicatorInfoImplementation@@QAEPAV?$CList@NN@@XZ
_TEXT	SEGMENT
?GetCommonCalConditionList@CIndicatorInfoImplementation@@QAEPAV?$CList@NN@@XZ PROC ; CIndicatorInfoImplementation::GetCommonCalConditionList, COMDAT
; _this$ = ecx

; 170  : 	return &m_calConditionList;

  00000	8d 41 3c	 lea	 eax, DWORD PTR [ecx+60]

; 171  : }

  00003	c3		 ret	 0
?GetCommonCalConditionList@CIndicatorInfoImplementation@@QAEPAV?$CList@NN@@XZ ENDP ; CIndicatorInfoImplementation::GetCommonCalConditionList
_TEXT	ENDS
; Function compile flags: /Ogtp
; File D:\git\src\IBK\IBK_DRFN\ProjSrc\SrcChartEx\ChartOCX\IndicatorCondition\IndicatorInfoImplementation.cpp
;	COMDAT ?GetCommonCalConditionList@CIndicatorInfoImplementation@@QBEABV?$CList@NN@@XZ
_TEXT	SEGMENT
?GetCommonCalConditionList@CIndicatorInfoImplementation@@QBEABV?$CList@NN@@XZ PROC ; CIndicatorInfoImplementation::GetCommonCalConditionList, COMDAT
; _this$ = ecx

; 165  : 	return const_cast<CDoubleList&>(m_calConditionList);

  00000	8d 41 3c	 lea	 eax, DWORD PTR [ecx+60]

; 166  : }

  00003	c3		 ret	 0
?GetCommonCalConditionList@CIndicatorInfoImplementation@@QBEABV?$CList@NN@@XZ ENDP ; CIndicatorInfoImplementation::GetCommonCalConditionList
_TEXT	ENDS
; Function compile flags: /Ogtp
; File D:\git\src\IBK\IBK_DRFN\ProjSrc\SrcChartEx\ChartOCX\IndicatorCondition\IndicatorInfoImplementation.cpp
;	COMDAT ?GetCalConditionCount@CIndicatorInfoImplementation@@QBEHABV?$CStringT@DV?$StrTraitMFC_DLL@DV?$ChTraitsCRT@D@ATL@@@@@ATL@@@Z
_TEXT	SEGMENT
_strSubGraphName$ = 8					; size = 4
?GetCalConditionCount@CIndicatorInfoImplementation@@QBEHABV?$CStringT@DV?$StrTraitMFC_DLL@DV?$ChTraitsCRT@D@ATL@@@@@ATL@@@Z PROC ; CIndicatorInfoImplementation::GetCalConditionCount, COMDAT
; _this$ = ecx

; 155  : {

  00000	55		 push	 ebp
  00001	8b ec		 mov	 ebp, esp

; 195  : 	return m_graphPartData.GetConditionList(strSubGraphName);

  00003	ff 75 08	 push	 DWORD PTR _strSubGraphName$[ebp]
  00006	83 c1 08	 add	 ecx, 8
  00009	e8 00 00 00 00	 call	 ?GetConditionList@CGraphPartData@@QBEPAV?$CList@NN@@ABV?$CStringT@DV?$StrTraitMFC_DLL@DV?$ChTraitsCRT@D@ATL@@@@@ATL@@@Z ; CGraphPartData::GetConditionList

; 156  : 	CDoubleList* pDoubleList = GetCalConditionList(strSubGraphName);
; 157  : 	if(pDoubleList == NULL)

  0000e	85 c0		 test	 eax, eax
  00010	75 04		 jne	 SHORT $LN2@GetCalCond

; 161  : }

  00012	5d		 pop	 ebp
  00013	c2 04 00	 ret	 4
$LN2@GetCalCond:

; 158  : 		return 0;
; 159  : 
; 160  : 	return pDoubleList->GetCount();

  00016	8b 40 0c	 mov	 eax, DWORD PTR [eax+12]

; 161  : }

  00019	5d		 pop	 ebp
  0001a	c2 04 00	 ret	 4
?GetCalConditionCount@CIndicatorInfoImplementation@@QBEHABV?$CStringT@DV?$StrTraitMFC_DLL@DV?$ChTraitsCRT@D@ATL@@@@@ATL@@@Z ENDP ; CIndicatorInfoImplementation::GetCalConditionCount
_TEXT	ENDS
; Function compile flags: /Ogtp
; File D:\git\src\IBK\IBK_DRFN\ProjSrc\SrcChartEx\ChartOCX\IndicatorCondition\IndicatorInfoImplementation.cpp
;	COMDAT ?GetCalConditionCount@CIndicatorInfoImplementation@@QBEHH@Z
_TEXT	SEGMENT
_nSubGraphIndex$ = 8					; size = 4
?GetCalConditionCount@CIndicatorInfoImplementation@@QBEHH@Z PROC ; CIndicatorInfoImplementation::GetCalConditionCount, COMDAT
; _this$ = ecx

; 146  : {

  00000	55		 push	 ebp
  00001	8b ec		 mov	 ebp, esp

; 205  : 	return m_graphPartData.GetConditionList(nSubGraphIndex);

  00003	ff 75 08	 push	 DWORD PTR _nSubGraphIndex$[ebp]
  00006	83 c1 08	 add	 ecx, 8
  00009	e8 00 00 00 00	 call	 ?GetConditionList@CGraphPartData@@QBEPAV?$CList@NN@@H@Z ; CGraphPartData::GetConditionList

; 147  : 	CDoubleList* pDoubleList = GetCalConditionList(nSubGraphIndex);
; 148  : 	if(pDoubleList == NULL)

  0000e	85 c0		 test	 eax, eax
  00010	75 04		 jne	 SHORT $LN2@GetCalCond

; 152  : }

  00012	5d		 pop	 ebp
  00013	c2 04 00	 ret	 4
$LN2@GetCalCond:

; 149  : 		return 0;
; 150  : 
; 151  : 	return pDoubleList->GetCount();

  00016	8b 40 0c	 mov	 eax, DWORD PTR [eax+12]

; 152  : }

  00019	5d		 pop	 ebp
  0001a	c2 04 00	 ret	 4
?GetCalConditionCount@CIndicatorInfoImplementation@@QBEHH@Z ENDP ; CIndicatorInfoImplementation::GetCalConditionCount
_TEXT	ENDS
; Function compile flags: /Ogtp
; File D:\git\src\IBK\IBK_DRFN\ProjSrc\SrcChartEx\ChartOCX\IndicatorCondition\IndicatorInfoImplementation.cpp
;	COMDAT ?GetBaseLineCount@CIndicatorInfoImplementation@@QBEHXZ
_TEXT	SEGMENT
?GetBaseLineCount@CIndicatorInfoImplementation@@QBEHXZ PROC ; CIndicatorInfoImplementation::GetBaseLineCount, COMDAT
; _this$ = ecx

; 142  : 	return m_baseLineList.GetCount();

  00000	8b 81 80 00 00
	00		 mov	 eax, DWORD PTR [ecx+128]

; 143  : }

  00006	c3		 ret	 0
?GetBaseLineCount@CIndicatorInfoImplementation@@QBEHXZ ENDP ; CIndicatorInfoImplementation::GetBaseLineCount
_TEXT	ENDS
; Function compile flags: /Ogtp
; File D:\git\src\IBK\IBK_DRFN\ProjSrc\SrcChartEx\ChartOCX\IndicatorCondition\IndicatorInfoImplementation.cpp
;	COMDAT ?GetDrawConditionCount@CIndicatorInfoImplementation@@QBEHXZ
_TEXT	SEGMENT
?GetDrawConditionCount@CIndicatorInfoImplementation@@QBEHXZ PROC ; CIndicatorInfoImplementation::GetDrawConditionCount, COMDAT
; _this$ = ecx

; 137  : 	return m_drawConditionList.GetCount();

  00000	8b 41 64	 mov	 eax, DWORD PTR [ecx+100]

; 138  : }

  00003	c3		 ret	 0
?GetDrawConditionCount@CIndicatorInfoImplementation@@QBEHXZ ENDP ; CIndicatorInfoImplementation::GetDrawConditionCount
_TEXT	ENDS
; Function compile flags: /Ogtp
; File D:\git\src\IBK\IBK_DRFN\ProjSrc\SrcChartEx\ChartOCX\IndicatorCondition\IndicatorInfoImplementation.cpp
;	COMDAT ?GetCommonCalConditionCount@CIndicatorInfoImplementation@@QBEHXZ
_TEXT	SEGMENT
?GetCommonCalConditionCount@CIndicatorInfoImplementation@@QBEHXZ PROC ; CIndicatorInfoImplementation::GetCommonCalConditionCount, COMDAT
; _this$ = ecx

; 132  : 	return m_calConditionList.GetCount();

  00000	8b 41 48	 mov	 eax, DWORD PTR [ecx+72]

; 133  : }

  00003	c3		 ret	 0
?GetCommonCalConditionCount@CIndicatorInfoImplementation@@QBEHXZ ENDP ; CIndicatorInfoImplementation::GetCommonCalConditionCount
_TEXT	ENDS
; Function compile flags: /Ogtp
; File D:\git\src\IBK\IBK_DRFN\ProjSrc\SrcChartEx\ChartOCX\IndicatorCondition\IndicatorInfoImplementation.cpp
;	COMDAT ?GetGraphPartData@CIndicatorInfoImplementation@@QAEPAVCGraphPartData@@XZ
_TEXT	SEGMENT
?GetGraphPartData@CIndicatorInfoImplementation@@QAEPAVCGraphPartData@@XZ PROC ; CIndicatorInfoImplementation::GetGraphPartData, COMDAT
; _this$ = ecx

; 127  : 	return &m_graphPartData;

  00000	8d 41 08	 lea	 eax, DWORD PTR [ecx+8]

; 128  : }

  00003	c3		 ret	 0
?GetGraphPartData@CIndicatorInfoImplementation@@QAEPAVCGraphPartData@@XZ ENDP ; CIndicatorInfoImplementation::GetGraphPartData
_TEXT	ENDS
; Function compile flags: /Ogtp
; File D:\git\src\IBK\IBK_DRFN\ProjSrc\SrcChartEx\ChartOCX\IndicatorCondition\IndicatorInfoImplementation.cpp
;	COMDAT ?GetGraphPartData@CIndicatorInfoImplementation@@QBEABVCGraphPartData@@XZ
_TEXT	SEGMENT
?GetGraphPartData@CIndicatorInfoImplementation@@QBEABVCGraphPartData@@XZ PROC ; CIndicatorInfoImplementation::GetGraphPartData, COMDAT
; _this$ = ecx

; 122  : 	return const_cast<CGraphPartData&>(m_graphPartData);

  00000	8d 41 08	 lea	 eax, DWORD PTR [ecx+8]

; 123  : }

  00003	c3		 ret	 0
?GetGraphPartData@CIndicatorInfoImplementation@@QBEABVCGraphPartData@@XZ ENDP ; CIndicatorInfoImplementation::GetGraphPartData
_TEXT	ENDS
; Function compile flags: /Ogtp
; File D:\git\src\IBK\IBK_DRFN\ProjSrc\SrcChartEx\ChartOCX\IndicatorCondition\IndicatorInfoImplementation.cpp
; File D:\git\src\IBK\IBK_DRFN\ProjSrc\SrcChartEx\ChartOCX\Include_Chart\GraphData.h
; File D:\git\src\IBK\IBK_DRFN\ProjSrc\SrcChartEx\ChartOCX\IndicatorCondition\IndicatorInfoImplementation.cpp
;	COMDAT ?GetGraphName@CIndicatorInfoImplementation@@QBE?AV?$CStringT@DV?$StrTraitMFC_DLL@DV?$ChTraitsCRT@D@ATL@@@@@ATL@@XZ
_TEXT	SEGMENT
___$ReturnUdt$ = 8					; size = 4
?GetGraphName@CIndicatorInfoImplementation@@QBE?AV?$CStringT@DV?$StrTraitMFC_DLL@DV?$ChTraitsCRT@D@ATL@@@@@ATL@@XZ PROC ; CIndicatorInfoImplementation::GetGraphName, COMDAT
; _this$ = ecx

; 116  : {

  00000	55		 push	 ebp
  00001	8b ec		 mov	 ebp, esp

; 117  : 	return m_graphPartData.GetGraphData().GetGraphName();

  00003	83 c1 08	 add	 ecx, 8
  00006	e8 00 00 00 00	 call	 ?GetGraphData@CGraphPartData@@QBEABVCGraphData@@XZ ; CGraphPartData::GetGraphData
; File D:\git\src\IBK\IBK_DRFN\ProjSrc\SrcChartEx\ChartOCX\Include_Chart\GraphData.h

; 228  : 	CString			GetGraphName( void) const								{	return m_strGraphName;						}

  0000b	8b 4d 08	 mov	 ecx, DWORD PTR ___$ReturnUdt$[ebp]
  0000e	83 c0 20	 add	 eax, 32			; 00000020H
  00011	50		 push	 eax
  00012	ff 15 00 00 00
	00		 call	 DWORD PTR __imp_??0?$CStringT@DV?$StrTraitMFC_DLL@DV?$ChTraitsCRT@D@ATL@@@@@ATL@@QAE@ABV01@@Z
; File D:\git\src\IBK\IBK_DRFN\ProjSrc\SrcChartEx\ChartOCX\IndicatorCondition\IndicatorInfoImplementation.cpp

; 117  : 	return m_graphPartData.GetGraphData().GetGraphName();

  00018	8b 45 08	 mov	 eax, DWORD PTR ___$ReturnUdt$[ebp]

; 118  : }

  0001b	5d		 pop	 ebp
  0001c	c2 04 00	 ret	 4
?GetGraphName@CIndicatorInfoImplementation@@QBE?AV?$CStringT@DV?$StrTraitMFC_DLL@DV?$ChTraitsCRT@D@ATL@@@@@ATL@@XZ ENDP ; CIndicatorInfoImplementation::GetGraphName
_TEXT	ENDS
; Function compile flags: /Ogtp
; File D:\git\src\IBK\IBK_DRFN\ProjSrc\SrcChartEx\ChartOCX\IndicatorCondition\IndicatorInfoImplementation.cpp
; File D:\git\src\IBK\IBK_DRFN\ProjSrc\SrcChartEx\ChartOCX\Include_Chart\GraphData.h
; File D:\git\src\IBK\IBK_DRFN\ProjSrc\SrcChartEx\ChartOCX\IndicatorCondition\IndicatorInfoImplementation.cpp
;	COMDAT ?GetIndicatorName@CIndicatorInfoImplementation@@QBE?AV?$CStringT@DV?$StrTraitMFC_DLL@DV?$ChTraitsCRT@D@ATL@@@@@ATL@@XZ
_TEXT	SEGMENT
___$ReturnUdt$ = 8					; size = 4
?GetIndicatorName@CIndicatorInfoImplementation@@QBE?AV?$CStringT@DV?$StrTraitMFC_DLL@DV?$ChTraitsCRT@D@ATL@@@@@ATL@@XZ PROC ; CIndicatorInfoImplementation::GetIndicatorName, COMDAT
; _this$ = ecx

; 111  : {

  00000	55		 push	 ebp
  00001	8b ec		 mov	 ebp, esp

; 112  : 	return m_graphPartData.GetGraphData().GetIndicatorName();

  00003	83 c1 08	 add	 ecx, 8
  00006	e8 00 00 00 00	 call	 ?GetGraphData@CGraphPartData@@QBEABVCGraphData@@XZ ; CGraphPartData::GetGraphData
; File D:\git\src\IBK\IBK_DRFN\ProjSrc\SrcChartEx\ChartOCX\Include_Chart\GraphData.h

; 229  : 	CString			GetIndicatorName( void) const							{	return m_strIndicatorName;					}

  0000b	8b 4d 08	 mov	 ecx, DWORD PTR ___$ReturnUdt$[ebp]
  0000e	83 c0 1c	 add	 eax, 28			; 0000001cH
  00011	50		 push	 eax
  00012	ff 15 00 00 00
	00		 call	 DWORD PTR __imp_??0?$CStringT@DV?$StrTraitMFC_DLL@DV?$ChTraitsCRT@D@ATL@@@@@ATL@@QAE@ABV01@@Z
; File D:\git\src\IBK\IBK_DRFN\ProjSrc\SrcChartEx\ChartOCX\IndicatorCondition\IndicatorInfoImplementation.cpp

; 112  : 	return m_graphPartData.GetGraphData().GetIndicatorName();

  00018	8b 45 08	 mov	 eax, DWORD PTR ___$ReturnUdt$[ebp]

; 113  : }

  0001b	5d		 pop	 ebp
  0001c	c2 04 00	 ret	 4
?GetIndicatorName@CIndicatorInfoImplementation@@QBE?AV?$CStringT@DV?$StrTraitMFC_DLL@DV?$ChTraitsCRT@D@ATL@@@@@ATL@@XZ ENDP ; CIndicatorInfoImplementation::GetIndicatorName
_TEXT	ENDS
; Function compile flags: /Ogtp
; File D:\git\src\IBK\IBK_DRFN\ProjSrc\SrcChartEx\ChartOCX\IndicatorCondition\IndicatorInfoImplementation.cpp
;	COMDAT ?GetGroupName@CIndicatorInfoImplementation@@QBE?AV?$CStringT@DV?$StrTraitMFC_DLL@DV?$ChTraitsCRT@D@ATL@@@@@ATL@@XZ
_TEXT	SEGMENT
___$ReturnUdt$ = 8					; size = 4
?GetGroupName@CIndicatorInfoImplementation@@QBE?AV?$CStringT@DV?$StrTraitMFC_DLL@DV?$ChTraitsCRT@D@ATL@@@@@ATL@@XZ PROC ; CIndicatorInfoImplementation::GetGroupName, COMDAT
; _this$ = ecx

; 106  : {

  00000	55		 push	 ebp
  00001	8b ec		 mov	 ebp, esp

; 107  : 	return m_graphPartData.GetGroupName();

  00003	ff 75 08	 push	 DWORD PTR ___$ReturnUdt$[ebp]
  00006	83 c1 08	 add	 ecx, 8
  00009	e8 00 00 00 00	 call	 ?GetGroupName@CGraphPartData@@QBE?AV?$CStringT@DV?$StrTraitMFC_DLL@DV?$ChTraitsCRT@D@ATL@@@@@ATL@@XZ ; CGraphPartData::GetGroupName
  0000e	8b 45 08	 mov	 eax, DWORD PTR ___$ReturnUdt$[ebp]

; 108  : }

  00011	5d		 pop	 ebp
  00012	c2 04 00	 ret	 4
?GetGroupName@CIndicatorInfoImplementation@@QBE?AV?$CStringT@DV?$StrTraitMFC_DLL@DV?$ChTraitsCRT@D@ATL@@@@@ATL@@XZ ENDP ; CIndicatorInfoImplementation::GetGroupName
_TEXT	ENDS
; Function compile flags: /Ogtp
; File D:\git\src\IBK\IBK_DRFN\ProjSrc\SrcChartEx\ChartOCX\IndicatorCondition\IndicatorInfoImplementation.cpp
; File C:\Program Files (x86)\Microsoft Visual Studio\2019\Community\VC\Tools\MSVC\14.29.30133\atlmfc\include\afxtempl.h
; File D:\git\src\IBK\IBK_DRFN\ProjSrc\SrcChartEx\ChartOCX\IndicatorCondition\IndicatorInfoImplementation.cpp
;	COMDAT ?ClearBaseLineList@CIndicatorInfoImplementation@@QAE_NXZ
_TEXT	SEGMENT
?ClearBaseLineList@CIndicatorInfoImplementation@@QAE_NXZ PROC ; CIndicatorInfoImplementation::ClearBaseLineList, COMDAT
; _this$ = ecx

; 96   : {

  00000	56		 push	 esi
  00001	8b f1		 mov	 esi, ecx

; 97   : 	if(m_baseLineList.GetCount() <= 0)

  00003	83 be 80 00 00
	00 00		 cmp	 DWORD PTR [esi+128], 0
  0000a	7f 04		 jg	 SHORT $LN2@ClearBaseL

; 98   : 		return false;

  0000c	32 c0		 xor	 al, al
  0000e	5e		 pop	 esi

; 102  : }

  0000f	c3		 ret	 0
$LN2@ClearBaseL:
; File C:\Program Files (x86)\Microsoft Visual Studio\2019\Community\VC\Tools\MSVC\14.29.30133\atlmfc\include\afxtempl.h

; 870  : 	m_nCount = 0;

  00010	c7 86 80 00 00
	00 00 00 00 00	 mov	 DWORD PTR [esi+128], 0

; 871  : 	m_pNodeHead = m_pNodeTail = m_pNodeFree = NULL;
; 872  : 	m_pBlocks->FreeDataChain();

  0001a	8b 8e 88 00 00
	00		 mov	 ecx, DWORD PTR [esi+136]
  00020	c7 86 84 00 00
	00 00 00 00 00	 mov	 DWORD PTR [esi+132], 0
  0002a	c7 46 7c 00 00
	00 00		 mov	 DWORD PTR [esi+124], 0
  00031	c7 46 78 00 00
	00 00		 mov	 DWORD PTR [esi+120], 0
  00038	e8 00 00 00 00	 call	 ?FreeDataChain@CPlex@@QAEXXZ ; CPlex::FreeDataChain

; 873  : 	m_pBlocks = NULL;

  0003d	c7 86 88 00 00
	00 00 00 00 00	 mov	 DWORD PTR [esi+136], 0
; File D:\git\src\IBK\IBK_DRFN\ProjSrc\SrcChartEx\ChartOCX\IndicatorCondition\IndicatorInfoImplementation.cpp

; 101  : 	return true;

  00047	b0 01		 mov	 al, 1
  00049	5e		 pop	 esi

; 102  : }

  0004a	c3		 ret	 0
?ClearBaseLineList@CIndicatorInfoImplementation@@QAE_NXZ ENDP ; CIndicatorInfoImplementation::ClearBaseLineList
_TEXT	ENDS
; Function compile flags: /Ogtp
; File D:\git\src\IBK\IBK_DRFN\ProjSrc\SrcChartEx\ChartOCX\IndicatorCondition\IndicatorInfoImplementation.cpp
; File C:\Program Files (x86)\Microsoft Visual Studio\2019\Community\VC\Tools\MSVC\14.29.30133\atlmfc\include\afxtempl.h
; File D:\git\src\IBK\IBK_DRFN\ProjSrc\SrcChartEx\ChartOCX\IndicatorCondition\IndicatorInfoImplementation.cpp
;	COMDAT ?ClearDrawConditionList@CIndicatorInfoImplementation@@QAE_NXZ
_TEXT	SEGMENT
?ClearDrawConditionList@CIndicatorInfoImplementation@@QAE_NXZ PROC ; CIndicatorInfoImplementation::ClearDrawConditionList, COMDAT
; _this$ = ecx

; 87   : {

  00000	56		 push	 esi
  00001	8b f1		 mov	 esi, ecx

; 88   : 	if(m_drawConditionList.GetCount() <= 0)

  00003	83 7e 64 00	 cmp	 DWORD PTR [esi+100], 0
  00007	7f 04		 jg	 SHORT $LN2@ClearDrawC

; 89   : 		return false;

  00009	32 c0		 xor	 al, al
  0000b	5e		 pop	 esi

; 93   : }

  0000c	c3		 ret	 0
$LN2@ClearDrawC:
; File C:\Program Files (x86)\Microsoft Visual Studio\2019\Community\VC\Tools\MSVC\14.29.30133\atlmfc\include\afxtempl.h

; 870  : 	m_nCount = 0;

  0000d	c7 46 64 00 00
	00 00		 mov	 DWORD PTR [esi+100], 0

; 871  : 	m_pNodeHead = m_pNodeTail = m_pNodeFree = NULL;
; 872  : 	m_pBlocks->FreeDataChain();

  00014	8b 4e 6c	 mov	 ecx, DWORD PTR [esi+108]
  00017	c7 46 68 00 00
	00 00		 mov	 DWORD PTR [esi+104], 0
  0001e	c7 46 60 00 00
	00 00		 mov	 DWORD PTR [esi+96], 0
  00025	c7 46 5c 00 00
	00 00		 mov	 DWORD PTR [esi+92], 0
  0002c	e8 00 00 00 00	 call	 ?FreeDataChain@CPlex@@QAEXXZ ; CPlex::FreeDataChain

; 873  : 	m_pBlocks = NULL;

  00031	c7 46 6c 00 00
	00 00		 mov	 DWORD PTR [esi+108], 0
; File D:\git\src\IBK\IBK_DRFN\ProjSrc\SrcChartEx\ChartOCX\IndicatorCondition\IndicatorInfoImplementation.cpp

; 92   : 	return true;

  00038	b0 01		 mov	 al, 1
  0003a	5e		 pop	 esi

; 93   : }

  0003b	c3		 ret	 0
?ClearDrawConditionList@CIndicatorInfoImplementation@@QAE_NXZ ENDP ; CIndicatorInfoImplementation::ClearDrawConditionList
_TEXT	ENDS
; Function compile flags: /Ogtp
; File D:\git\src\IBK\IBK_DRFN\ProjSrc\SrcChartEx\ChartOCX\IndicatorCondition\IndicatorInfoImplementation.cpp
; File C:\Program Files (x86)\Microsoft Visual Studio\2019\Community\VC\Tools\MSVC\14.29.30133\atlmfc\include\afxtempl.h
; File D:\git\src\IBK\IBK_DRFN\ProjSrc\SrcChartEx\ChartOCX\IndicatorCondition\IndicatorInfoImplementation.cpp
;	COMDAT ?ClearCommonCalConditionList@CIndicatorInfoImplementation@@QAE_NXZ
_TEXT	SEGMENT
?ClearCommonCalConditionList@CIndicatorInfoImplementation@@QAE_NXZ PROC ; CIndicatorInfoImplementation::ClearCommonCalConditionList, COMDAT
; _this$ = ecx

; 78   : {

  00000	56		 push	 esi
  00001	8b f1		 mov	 esi, ecx

; 79   : 	if(m_calConditionList.GetCount() <= 0)

  00003	83 7e 48 00	 cmp	 DWORD PTR [esi+72], 0
  00007	7f 04		 jg	 SHORT $LN2@ClearCommo

; 80   : 		return false;

  00009	32 c0		 xor	 al, al
  0000b	5e		 pop	 esi

; 84   : }

  0000c	c3		 ret	 0
$LN2@ClearCommo:
; File C:\Program Files (x86)\Microsoft Visual Studio\2019\Community\VC\Tools\MSVC\14.29.30133\atlmfc\include\afxtempl.h

; 870  : 	m_nCount = 0;

  0000d	c7 46 48 00 00
	00 00		 mov	 DWORD PTR [esi+72], 0

; 871  : 	m_pNodeHead = m_pNodeTail = m_pNodeFree = NULL;
; 872  : 	m_pBlocks->FreeDataChain();

  00014	8b 4e 50	 mov	 ecx, DWORD PTR [esi+80]
  00017	c7 46 4c 00 00
	00 00		 mov	 DWORD PTR [esi+76], 0
  0001e	c7 46 44 00 00
	00 00		 mov	 DWORD PTR [esi+68], 0
  00025	c7 46 40 00 00
	00 00		 mov	 DWORD PTR [esi+64], 0
  0002c	e8 00 00 00 00	 call	 ?FreeDataChain@CPlex@@QAEXXZ ; CPlex::FreeDataChain

; 873  : 	m_pBlocks = NULL;

  00031	c7 46 50 00 00
	00 00		 mov	 DWORD PTR [esi+80], 0
; File D:\git\src\IBK\IBK_DRFN\ProjSrc\SrcChartEx\ChartOCX\IndicatorCondition\IndicatorInfoImplementation.cpp

; 83   : 	return true;

  00038	b0 01		 mov	 al, 1
  0003a	5e		 pop	 esi

; 84   : }

  0003b	c3		 ret	 0
?ClearCommonCalConditionList@CIndicatorInfoImplementation@@QAE_NXZ ENDP ; CIndicatorInfoImplementation::ClearCommonCalConditionList
_TEXT	ENDS
; Function compile flags: /Ogtp
; File D:\git\src\IBK\IBK_DRFN\ProjSrc\SrcChartEx\ChartOCX\IndicatorCondition\IndicatorInfoImplementation.cpp
; File C:\Program Files (x86)\Microsoft Visual Studio\2019\Community\VC\Tools\MSVC\14.29.30133\atlmfc\include\afxtempl.h
; File D:\git\src\IBK\IBK_DRFN\ProjSrc\SrcChartEx\ChartOCX\IndicatorCondition\IndicatorInfoImplementation.cpp
; File C:\Program Files (x86)\Microsoft Visual Studio\2019\Community\VC\Tools\MSVC\14.29.30133\atlmfc\include\afxtempl.h
; File D:\git\src\IBK\IBK_DRFN\ProjSrc\SrcChartEx\ChartOCX\IndicatorCondition\IndicatorInfoImplementation.cpp
; File C:\Program Files (x86)\Microsoft Visual Studio\2019\Community\VC\Tools\MSVC\14.29.30133\atlmfc\include\afxtempl.h
; File D:\git\src\IBK\IBK_DRFN\ProjSrc\SrcChartEx\ChartOCX\IndicatorCondition\IndicatorInfoImplementation.cpp
;	COMDAT ?Initialize@CIndicatorInfoImplementation@@QAEXXZ
_TEXT	SEGMENT
?Initialize@CIndicatorInfoImplementation@@QAEXXZ PROC	; CIndicatorInfoImplementation::Initialize, COMDAT
; _this$ = ecx

; 67   : {

  00000	56		 push	 esi
  00001	8b f1		 mov	 esi, ecx

; 68   : 	m_graphPartData.Initialize();

  00003	8d 4e 08	 lea	 ecx, DWORD PTR [esi+8]
  00006	e8 00 00 00 00	 call	 ?Initialize@CGraphPartData@@QAEXXZ ; CGraphPartData::Initialize

; 79   : 	if(m_calConditionList.GetCount() <= 0)

  0000b	83 7e 48 00	 cmp	 DWORD PTR [esi+72], 0
  0000f	7e 2b		 jle	 SHORT $LN3@Initialize
; File C:\Program Files (x86)\Microsoft Visual Studio\2019\Community\VC\Tools\MSVC\14.29.30133\atlmfc\include\afxtempl.h

; 870  : 	m_nCount = 0;

  00011	c7 46 48 00 00
	00 00		 mov	 DWORD PTR [esi+72], 0

; 871  : 	m_pNodeHead = m_pNodeTail = m_pNodeFree = NULL;
; 872  : 	m_pBlocks->FreeDataChain();

  00018	8b 4e 50	 mov	 ecx, DWORD PTR [esi+80]
  0001b	c7 46 4c 00 00
	00 00		 mov	 DWORD PTR [esi+76], 0
  00022	c7 46 44 00 00
	00 00		 mov	 DWORD PTR [esi+68], 0
  00029	c7 46 40 00 00
	00 00		 mov	 DWORD PTR [esi+64], 0
  00030	e8 00 00 00 00	 call	 ?FreeDataChain@CPlex@@QAEXXZ ; CPlex::FreeDataChain

; 873  : 	m_pBlocks = NULL;

  00035	c7 46 50 00 00
	00 00		 mov	 DWORD PTR [esi+80], 0
$LN3@Initialize:
; File D:\git\src\IBK\IBK_DRFN\ProjSrc\SrcChartEx\ChartOCX\IndicatorCondition\IndicatorInfoImplementation.cpp

; 88   : 	if(m_drawConditionList.GetCount() <= 0)

  0003c	83 7e 64 00	 cmp	 DWORD PTR [esi+100], 0
  00040	7e 2b		 jle	 SHORT $LN11@Initialize
; File C:\Program Files (x86)\Microsoft Visual Studio\2019\Community\VC\Tools\MSVC\14.29.30133\atlmfc\include\afxtempl.h

; 870  : 	m_nCount = 0;

  00042	c7 46 64 00 00
	00 00		 mov	 DWORD PTR [esi+100], 0

; 871  : 	m_pNodeHead = m_pNodeTail = m_pNodeFree = NULL;
; 872  : 	m_pBlocks->FreeDataChain();

  00049	8b 4e 6c	 mov	 ecx, DWORD PTR [esi+108]
  0004c	c7 46 68 00 00
	00 00		 mov	 DWORD PTR [esi+104], 0
  00053	c7 46 60 00 00
	00 00		 mov	 DWORD PTR [esi+96], 0
  0005a	c7 46 5c 00 00
	00 00		 mov	 DWORD PTR [esi+92], 0
  00061	e8 00 00 00 00	 call	 ?FreeDataChain@CPlex@@QAEXXZ ; CPlex::FreeDataChain

; 873  : 	m_pBlocks = NULL;

  00066	c7 46 6c 00 00
	00 00		 mov	 DWORD PTR [esi+108], 0
$LN11@Initialize:
; File D:\git\src\IBK\IBK_DRFN\ProjSrc\SrcChartEx\ChartOCX\IndicatorCondition\IndicatorInfoImplementation.cpp

; 97   : 	if(m_baseLineList.GetCount() <= 0)

  0006d	83 be 80 00 00
	00 00		 cmp	 DWORD PTR [esi+128], 0
  00074	7e 37		 jle	 SHORT $LN42@Initialize
; File C:\Program Files (x86)\Microsoft Visual Studio\2019\Community\VC\Tools\MSVC\14.29.30133\atlmfc\include\afxtempl.h

; 870  : 	m_nCount = 0;

  00076	c7 86 80 00 00
	00 00 00 00 00	 mov	 DWORD PTR [esi+128], 0

; 871  : 	m_pNodeHead = m_pNodeTail = m_pNodeFree = NULL;
; 872  : 	m_pBlocks->FreeDataChain();

  00080	8b 8e 88 00 00
	00		 mov	 ecx, DWORD PTR [esi+136]
  00086	c7 86 84 00 00
	00 00 00 00 00	 mov	 DWORD PTR [esi+132], 0
  00090	c7 46 7c 00 00
	00 00		 mov	 DWORD PTR [esi+124], 0
  00097	c7 46 78 00 00
	00 00		 mov	 DWORD PTR [esi+120], 0
  0009e	e8 00 00 00 00	 call	 ?FreeDataChain@CPlex@@QAEXXZ ; CPlex::FreeDataChain

; 873  : 	m_pBlocks = NULL;

  000a3	c7 86 88 00 00
	00 00 00 00 00	 mov	 DWORD PTR [esi+136], 0
$LN42@Initialize:
; File D:\git\src\IBK\IBK_DRFN\ProjSrc\SrcChartEx\ChartOCX\IndicatorCondition\IndicatorInfoImplementation.cpp

; 75   : }

  000ad	c7 86 90 00 00
	00 00 00 00 00	 mov	 DWORD PTR [esi+144], 0
  000b7	5e		 pop	 esi
  000b8	c3		 ret	 0
?Initialize@CIndicatorInfoImplementation@@QAEXXZ ENDP	; CIndicatorInfoImplementation::Initialize
_TEXT	ENDS
; Function compile flags: /Ogtp
; File D:\git\src\IBK\IBK_DRFN\ProjSrc\SrcChartEx\ChartOCX\IndicatorCondition\IndicatorInfoImplementation.cpp
; File D:\git\src\IBK\IBK_DRFN\ProjSrc\SrcChartEx\ChartOCX\Include_Chart\GraphData.h
; File D:\git\src\IBK\IBK_DRFN\ProjSrc\SrcChartEx\ChartOCX\IndicatorCondition\IndicatorInfoImplementation.cpp
; File D:\git\src\IBK\IBK_DRFN\ProjSrc\SrcChartEx\ChartOCX\Include_Chart\GraphData.h
; File C:\Program Files (x86)\Microsoft Visual Studio\2019\Community\VC\Tools\MSVC\14.29.30133\atlmfc\include\cstringt.h
; File D:\git\src\IBK\IBK_DRFN\ProjSrc\SrcChartEx\ChartOCX\IndicatorCondition\IndicatorInfoImplementation.cpp
; File C:\Program Files (x86)\Microsoft Visual Studio\2019\Community\VC\Tools\MSVC\14.29.30133\atlmfc\include\cstringt.h
; File D:\git\src\IBK\IBK_DRFN\ProjSrc\SrcChartEx\ChartOCX\IndicatorCondition\IndicatorInfoImplementation.cpp
; File C:\Program Files (x86)\Microsoft Visual Studio\2019\Community\VC\Tools\MSVC\14.29.30133\atlmfc\include\cstringt.h
; File D:\git\src\IBK\IBK_DRFN\ProjSrc\SrcChartEx\ChartOCX\IndicatorCondition\IndicatorInfoImplementation.cpp
;	COMDAT ?CopyDataWithVerificationFrom@CIndicatorInfoImplementation@@QAE_NABV1@@Z
_TEXT	SEGMENT
$T2 = -16						; size = 4
__$EHRec$ = -12						; size = 12
$T3 = 8							; size = 4
_sourceData$ = 8					; size = 4
?CopyDataWithVerificationFrom@CIndicatorInfoImplementation@@QAE_NABV1@@Z PROC ; CIndicatorInfoImplementation::CopyDataWithVerificationFrom, COMDAT
; _this$ = ecx

; 52   : {

  00000	55		 push	 ebp
  00001	8b ec		 mov	 ebp, esp
  00003	6a ff		 push	 -1
  00005	68 00 00 00 00	 push	 __ehhandler$?CopyDataWithVerificationFrom@CIndicatorInfoImplementation@@QAE_NABV1@@Z
  0000a	64 a1 00 00 00
	00		 mov	 eax, DWORD PTR fs:0
  00010	50		 push	 eax
  00011	51		 push	 ecx
  00012	53		 push	 ebx
  00013	56		 push	 esi
  00014	57		 push	 edi
  00015	a1 00 00 00 00	 mov	 eax, DWORD PTR ___security_cookie
  0001a	33 c5		 xor	 eax, ebp
  0001c	50		 push	 eax
  0001d	8d 45 f4	 lea	 eax, DWORD PTR __$EHRec$[ebp]
  00020	64 a3 00 00 00
	00		 mov	 DWORD PTR fs:0, eax
  00026	8b f9		 mov	 edi, ecx

; 112  : 	return m_graphPartData.GetGraphData().GetIndicatorName();

  00028	8b 5d 08	 mov	 ebx, DWORD PTR _sourceData$[ebp]
  0002b	8d 4b 08	 lea	 ecx, DWORD PTR [ebx+8]
  0002e	e8 00 00 00 00	 call	 ?GetGraphData@CGraphPartData@@QBEABVCGraphData@@XZ ; CGraphPartData::GetGraphData
; File D:\git\src\IBK\IBK_DRFN\ProjSrc\SrcChartEx\ChartOCX\Include_Chart\GraphData.h

; 229  : 	CString			GetIndicatorName( void) const							{	return m_strIndicatorName;					}

  00033	83 c0 1c	 add	 eax, 28			; 0000001cH
  00036	8d 4d f0	 lea	 ecx, DWORD PTR $T2[ebp]
  00039	50		 push	 eax
  0003a	ff 15 00 00 00
	00		 call	 DWORD PTR __imp_??0?$CStringT@DV?$StrTraitMFC_DLL@DV?$ChTraitsCRT@D@ATL@@@@@ATL@@QAE@ABV01@@Z
; File D:\git\src\IBK\IBK_DRFN\ProjSrc\SrcChartEx\ChartOCX\IndicatorCondition\IndicatorInfoImplementation.cpp

; 112  : 	return m_graphPartData.GetGraphData().GetIndicatorName();

  00040	8d 4f 08	 lea	 ecx, DWORD PTR [edi+8]

; 53   : 	if(GetIndicatorName() != sourceData.GetIndicatorName())

  00043	c7 45 fc 00 00
	00 00		 mov	 DWORD PTR __$EHRec$[ebp+8], 0

; 112  : 	return m_graphPartData.GetGraphData().GetIndicatorName();

  0004a	e8 00 00 00 00	 call	 ?GetGraphData@CGraphPartData@@QBEABVCGraphData@@XZ ; CGraphPartData::GetGraphData
; File D:\git\src\IBK\IBK_DRFN\ProjSrc\SrcChartEx\ChartOCX\Include_Chart\GraphData.h

; 229  : 	CString			GetIndicatorName( void) const							{	return m_strIndicatorName;					}

  0004f	83 c0 1c	 add	 eax, 28			; 0000001cH
  00052	8d 4d 08	 lea	 ecx, DWORD PTR $T3[ebp]
  00055	50		 push	 eax
  00056	ff 15 00 00 00
	00		 call	 DWORD PTR __imp_??0?$CStringT@DV?$StrTraitMFC_DLL@DV?$ChTraitsCRT@D@ATL@@@@@ATL@@QAE@ABV01@@Z
; File C:\Program Files (x86)\Microsoft Visual Studio\2019\Community\VC\Tools\MSVC\14.29.30133\atlmfc\include\cstringt.h

; 2560 : 		return( str1.Compare( str2 ) != 0 );

  0005c	ff 75 f0	 push	 DWORD PTR $T2[ebp]
  0005f	8d 4d 08	 lea	 ecx, DWORD PTR $T3[ebp]
; File D:\git\src\IBK\IBK_DRFN\ProjSrc\SrcChartEx\ChartOCX\IndicatorCondition\IndicatorInfoImplementation.cpp

; 53   : 	if(GetIndicatorName() != sourceData.GetIndicatorName())

  00062	c6 45 fc 01	 mov	 BYTE PTR __$EHRec$[ebp+8], 1
; File C:\Program Files (x86)\Microsoft Visual Studio\2019\Community\VC\Tools\MSVC\14.29.30133\atlmfc\include\cstringt.h

; 2560 : 		return( str1.Compare( str2 ) != 0 );

  00066	ff 15 00 00 00
	00		 call	 DWORD PTR __imp_?Compare@?$CStringT@DV?$StrTraitMFC_DLL@DV?$ChTraitsCRT@D@ATL@@@@@ATL@@QBEHPBD@Z
; File D:\git\src\IBK\IBK_DRFN\ProjSrc\SrcChartEx\ChartOCX\IndicatorCondition\IndicatorInfoImplementation.cpp

; 53   : 	if(GetIndicatorName() != sourceData.GetIndicatorName())

  0006c	8d 4d 08	 lea	 ecx, DWORD PTR $T3[ebp]
; File C:\Program Files (x86)\Microsoft Visual Studio\2019\Community\VC\Tools\MSVC\14.29.30133\atlmfc\include\cstringt.h

; 2560 : 		return( str1.Compare( str2 ) != 0 );

  0006f	8b f0		 mov	 esi, eax
; File D:\git\src\IBK\IBK_DRFN\ProjSrc\SrcChartEx\ChartOCX\IndicatorCondition\IndicatorInfoImplementation.cpp

; 53   : 	if(GetIndicatorName() != sourceData.GetIndicatorName())

  00071	ff 15 00 00 00
	00		 call	 DWORD PTR __imp_??1?$CStringT@DV?$StrTraitMFC_DLL@DV?$ChTraitsCRT@D@ATL@@@@@ATL@@QAE@XZ
  00077	8d 4d f0	 lea	 ecx, DWORD PTR $T2[ebp]
  0007a	c7 45 fc ff ff
	ff ff		 mov	 DWORD PTR __$EHRec$[ebp+8], -1
  00081	ff 15 00 00 00
	00		 call	 DWORD PTR __imp_??1?$CStringT@DV?$StrTraitMFC_DLL@DV?$ChTraitsCRT@D@ATL@@@@@ATL@@QAE@XZ
  00087	85 f6		 test	 esi, esi
  00089	74 16		 je	 SHORT $LN2@CopyDataWi

; 54   : 		return false;

  0008b	32 c0		 xor	 al, al

; 63   : }

  0008d	8b 4d f4	 mov	 ecx, DWORD PTR __$EHRec$[ebp]
  00090	64 89 0d 00 00
	00 00		 mov	 DWORD PTR fs:0, ecx
  00097	59		 pop	 ecx
  00098	5f		 pop	 edi
  00099	5e		 pop	 esi
  0009a	5b		 pop	 ebx
  0009b	8b e5		 mov	 esp, ebp
  0009d	5d		 pop	 ebp
  0009e	c2 04 00	 ret	 4
$LN2@CopyDataWi:

; 55   : 
; 56   : 	m_graphPartData.CopyDataWithVerificationFrom(sourceData.GetGraphPartData());

  000a1	8d 43 08	 lea	 eax, DWORD PTR [ebx+8]
  000a4	50		 push	 eax
  000a5	8d 4f 08	 lea	 ecx, DWORD PTR [edi+8]
  000a8	e8 00 00 00 00	 call	 ?CopyDataWithVerificationFrom@CGraphPartData@@QAEXABV1@@Z ; CGraphPartData::CopyDataWithVerificationFrom

; 617  : 	if(sourceData.GetCount() != targetData.GetCount())

  000ad	8b 43 48	 mov	 eax, DWORD PTR [ebx+72]

; 57   : 	SetDoubleListInVerifiable(sourceData.GetCommonCalConditionList(), m_calConditionList);

  000b0	8d 53 3c	 lea	 edx, DWORD PTR [ebx+60]

; 617  : 	if(sourceData.GetCount() != targetData.GetCount())

  000b3	3b 47 48	 cmp	 eax, DWORD PTR [edi+72]

; 57   : 	SetDoubleListInVerifiable(sourceData.GetCommonCalConditionList(), m_calConditionList);

  000b6	8d 4f 3c	 lea	 ecx, DWORD PTR [edi+60]

; 617  : 	if(sourceData.GetCount() != targetData.GetCount())

  000b9	75 09		 jne	 SHORT $LN26@CopyDataWi

; 618  : 		return;
; 619  : 
; 620  : 	// count    default    .
; 621  : 	CopyDoubleList(sourceData, targetData);

  000bb	51		 push	 ecx
  000bc	52		 push	 edx
  000bd	8b cf		 mov	 ecx, edi
  000bf	e8 00 00 00 00	 call	 ?CopyDoubleList@CIndicatorInfoImplementation@@AAEXABV?$CList@NN@@AAV2@@Z ; CIndicatorInfoImplementation::CopyDoubleList
$LN26@CopyDataWi:

; 617  : 	if(sourceData.GetCount() != targetData.GetCount())

  000c4	8b 43 64	 mov	 eax, DWORD PTR [ebx+100]

; 58   : 	SetDoubleListInVerifiable(sourceData.GetDrawConditionList(), m_drawConditionList);

  000c7	8d 53 58	 lea	 edx, DWORD PTR [ebx+88]

; 617  : 	if(sourceData.GetCount() != targetData.GetCount())

  000ca	3b 47 64	 cmp	 eax, DWORD PTR [edi+100]

; 58   : 	SetDoubleListInVerifiable(sourceData.GetDrawConditionList(), m_drawConditionList);

  000cd	8d 4f 58	 lea	 ecx, DWORD PTR [edi+88]

; 617  : 	if(sourceData.GetCount() != targetData.GetCount())

  000d0	75 09		 jne	 SHORT $LN29@CopyDataWi

; 618  : 		return;
; 619  : 
; 620  : 	// count    default    .
; 621  : 	CopyDoubleList(sourceData, targetData);

  000d2	51		 push	 ecx
  000d3	52		 push	 edx
  000d4	8b cf		 mov	 ecx, edi
  000d6	e8 00 00 00 00	 call	 ?CopyDoubleList@CIndicatorInfoImplementation@@AAEXABV?$CList@NN@@AAV2@@Z ; CIndicatorInfoImplementation::CopyDoubleList
$LN29@CopyDataWi:

; 59   : 
; 60   : 	// (2006/5/28 - Seung-Won, Bae) Do not check count.
; 61   : 	CopyDoubleList(sourceData.GetBaseLineList(), m_baseLineList);

  000db	8d 47 74	 lea	 eax, DWORD PTR [edi+116]
  000de	8b cf		 mov	 ecx, edi
  000e0	50		 push	 eax
  000e1	8d 43 74	 lea	 eax, DWORD PTR [ebx+116]
  000e4	50		 push	 eax
  000e5	e8 00 00 00 00	 call	 ?CopyDoubleList@CIndicatorInfoImplementation@@AAEXABV?$CList@NN@@AAV2@@Z ; CIndicatorInfoImplementation::CopyDoubleList

; 62   : 	return true;

  000ea	b0 01		 mov	 al, 1

; 63   : }

  000ec	8b 4d f4	 mov	 ecx, DWORD PTR __$EHRec$[ebp]
  000ef	64 89 0d 00 00
	00 00		 mov	 DWORD PTR fs:0, ecx
  000f6	59		 pop	 ecx
  000f7	5f		 pop	 edi
  000f8	5e		 pop	 esi
  000f9	5b		 pop	 ebx
  000fa	8b e5		 mov	 esp, ebp
  000fc	5d		 pop	 ebp
  000fd	c2 04 00	 ret	 4
_TEXT	ENDS
;	COMDAT text$x
text$x	SEGMENT
__unwindfunclet$?CopyDataWithVerificationFrom@CIndicatorInfoImplementation@@QAE_NABV1@@Z$0:
  00000	8d 4d f0	 lea	 ecx, DWORD PTR $T2[ebp]
  00003	ff 25 00 00 00
	00		 jmp	 DWORD PTR __imp_??1?$CStringT@DV?$StrTraitMFC_DLL@DV?$ChTraitsCRT@D@ATL@@@@@ATL@@QAE@XZ
__unwindfunclet$?CopyDataWithVerificationFrom@CIndicatorInfoImplementation@@QAE_NABV1@@Z$1:
  00009	8d 4d 08	 lea	 ecx, DWORD PTR $T3[ebp]
  0000c	ff 25 00 00 00
	00		 jmp	 DWORD PTR __imp_??1?$CStringT@DV?$StrTraitMFC_DLL@DV?$ChTraitsCRT@D@ATL@@@@@ATL@@QAE@XZ
  00012	cc		 int	 3
  00013	cc		 int	 3
  00014	cc		 int	 3
  00015	cc		 int	 3
  00016	cc		 int	 3
__ehhandler$?CopyDataWithVerificationFrom@CIndicatorInfoImplementation@@QAE_NABV1@@Z:
  00017	90		 npad	 1
  00018	90		 npad	 1
  00019	8b 54 24 08	 mov	 edx, DWORD PTR [esp+8]
  0001d	8d 42 0c	 lea	 eax, DWORD PTR [edx+12]
  00020	8b 4a ec	 mov	 ecx, DWORD PTR [edx-20]
  00023	33 c8		 xor	 ecx, eax
  00025	e8 00 00 00 00	 call	 @__security_check_cookie@4
  0002a	b8 00 00 00 00	 mov	 eax, OFFSET __ehfuncinfo$?CopyDataWithVerificationFrom@CIndicatorInfoImplementation@@QAE_NABV1@@Z
  0002f	e9 00 00 00 00	 jmp	 ___CxxFrameHandler3
text$x	ENDS
?CopyDataWithVerificationFrom@CIndicatorInfoImplementation@@QAE_NABV1@@Z ENDP ; CIndicatorInfoImplementation::CopyDataWithVerificationFrom
; Function compile flags: /Ogtp
; File D:\git\src\IBK\IBK_DRFN\ProjSrc\SrcChartEx\ChartOCX\IndicatorCondition\IndicatorInfoImplementation.cpp
; File C:\Program Files (x86)\Microsoft Visual Studio\2019\Community\VC\Tools\MSVC\14.29.30133\atlmfc\include\atlsimpstr.h
; File D:\git\src\IBK\IBK_DRFN\ProjSrc\SrcChartEx\ChartOCX\IndicatorCondition\IndicatorInfoImplementation.cpp
; File C:\Program Files (x86)\Microsoft Visual Studio\2019\Community\VC\Tools\MSVC\14.29.30133\atlmfc\include\atlsimpstr.h
; File D:\git\src\IBK\IBK_DRFN\ProjSrc\SrcChartEx\ChartOCX\IndicatorCondition\IndicatorInfoImplementation.cpp
;	COMDAT ?GetCalConditionDataFromSubGraphTitle@CIndicatorInfoImplementation@@AAE_NABV?$CStringT@DV?$StrTraitMFC_DLL@DV?$ChTraitsCRT@D@ATL@@@@@ATL@@AAN@Z
_TEXT	SEGMENT
$T1 = 8							; size = 4
_strOrgTitle$ = 8					; size = 4
_dCalData$ = 12						; size = 4
?GetCalConditionDataFromSubGraphTitle@CIndicatorInfoImplementation@@AAE_NABV?$CStringT@DV?$StrTraitMFC_DLL@DV?$ChTraitsCRT@D@ATL@@@@@ATL@@AAN@Z PROC ; CIndicatorInfoImplementation::GetCalConditionDataFromSubGraphTitle, COMDAT
; _this$ = ecx

; 707  : {

  00000	55		 push	 ebp
  00001	8b ec		 mov	 ebp, esp
  00003	56		 push	 esi
  00004	57		 push	 edi
; File C:\Program Files (x86)\Microsoft Visual Studio\2019\Community\VC\Tools\MSVC\14.29.30133\atlmfc\include\atlsimpstr.h

; 377  : 		return( m_pszData );

  00005	8b 7d 08	 mov	 edi, DWORD PTR _strOrgTitle$[ebp]
; File D:\git\src\IBK\IBK_DRFN\ProjSrc\SrcChartEx\ChartOCX\IndicatorCondition\IndicatorInfoImplementation.cpp

; 710  : 	int nStartIndex = 0;

  00008	33 d2		 xor	 edx, edx
; File C:\Program Files (x86)\Microsoft Visual Studio\2019\Community\VC\Tools\MSVC\14.29.30133\atlmfc\include\atlsimpstr.h

; 377  : 		return( m_pszData );

  0000a	8b 0f		 mov	 ecx, DWORD PTR [edi]
; File D:\git\src\IBK\IBK_DRFN\ProjSrc\SrcChartEx\ChartOCX\IndicatorCondition\IndicatorInfoImplementation.cpp

; 711  : 	while( szTitle[ nStartIndex] && ( '9' < szTitle[ nStartIndex] || szTitle[ nStartIndex] < '0')) nStartIndex++;

  0000c	8a 01		 mov	 al, BYTE PTR [ecx]
  0000e	84 c0		 test	 al, al
  00010	74 11		 je	 SHORT $LN24@GetCalCond
$LL2@GetCalCond:
  00012	3c 39		 cmp	 al, 57			; 00000039H
  00014	7f 04		 jg	 SHORT $LN20@GetCalCond
  00016	3c 30		 cmp	 al, 48			; 00000030H
  00018	7d 09		 jge	 SHORT $LN24@GetCalCond
$LN20@GetCalCond:
  0001a	8a 44 0a 01	 mov	 al, BYTE PTR [edx+ecx+1]
  0001e	42		 inc	 edx
  0001f	84 c0		 test	 al, al
  00021	75 ef		 jne	 SHORT $LL2@GetCalCond
$LN24@GetCalCond:

; 712  : 	int nEndIndex = nStartIndex;
; 713  : 	while( szTitle[ nEndIndex] && '0' <= szTitle[ nEndIndex] && szTitle[ nEndIndex] <= '9') nEndIndex++;

  00023	8a 04 0a	 mov	 al, BYTE PTR [edx+ecx]
  00026	8b f2		 mov	 esi, edx
  00028	84 c0		 test	 al, al
  0002a	74 48		 je	 SHORT $LN23@GetCalCond
  0002c	0f 1f 40 00	 npad	 4
$LL4@GetCalCond:
  00030	2c 30		 sub	 al, 48			; 00000030H
  00032	3c 09		 cmp	 al, 9
  00034	77 09		 ja	 SHORT $LN5@GetCalCond
  00036	8a 44 0e 01	 mov	 al, BYTE PTR [esi+ecx+1]
  0003a	46		 inc	 esi
  0003b	84 c0		 test	 al, al
  0003d	75 f1		 jne	 SHORT $LL4@GetCalCond
$LN5@GetCalCond:

; 714  : 	if( nStartIndex == nEndIndex) return false;

  0003f	3b d6		 cmp	 edx, esi
  00041	74 31		 je	 SHORT $LN23@GetCalCond

; 715  : 	dCalData = atof( strOrgTitle.Mid( nStartIndex, nEndIndex - nStartIndex));

  00043	2b f2		 sub	 esi, edx
  00045	8d 45 08	 lea	 eax, DWORD PTR $T1[ebp]
  00048	56		 push	 esi
  00049	52		 push	 edx
  0004a	50		 push	 eax
  0004b	8b cf		 mov	 ecx, edi
  0004d	ff 15 00 00 00
	00		 call	 DWORD PTR __imp_?Mid@?$CStringT@DV?$StrTraitMFC_DLL@DV?$ChTraitsCRT@D@ATL@@@@@ATL@@QBE?AV12@HH@Z
  00053	ff 30		 push	 DWORD PTR [eax]
  00055	ff 15 00 00 00
	00		 call	 DWORD PTR __imp__atof
  0005b	8b 45 0c	 mov	 eax, DWORD PTR _dCalData$[ebp]
  0005e	8d 4d 08	 lea	 ecx, DWORD PTR $T1[ebp]
  00061	83 c4 04	 add	 esp, 4
  00064	dd 18		 fstp	 QWORD PTR [eax]
  00066	ff 15 00 00 00
	00		 call	 DWORD PTR __imp_??1?$CStringT@DV?$StrTraitMFC_DLL@DV?$ChTraitsCRT@D@ATL@@@@@ATL@@QAE@XZ
  0006c	5f		 pop	 edi

; 716  : 	return true;

  0006d	b0 01		 mov	 al, 1

; 717  : }

  0006f	5e		 pop	 esi
  00070	5d		 pop	 ebp
  00071	c2 08 00	 ret	 8
$LN23@GetCalCond:
  00074	5f		 pop	 edi

; 714  : 	if( nStartIndex == nEndIndex) return false;

  00075	32 c0		 xor	 al, al

; 717  : }

  00077	5e		 pop	 esi
  00078	5d		 pop	 ebp
  00079	c2 08 00	 ret	 8
?GetCalConditionDataFromSubGraphTitle@CIndicatorInfoImplementation@@AAE_NABV?$CStringT@DV?$StrTraitMFC_DLL@DV?$ChTraitsCRT@D@ATL@@@@@ATL@@AAN@Z ENDP ; CIndicatorInfoImplementation::GetCalConditionDataFromSubGraphTitle
_TEXT	ENDS
; Function compile flags: /Ogtp
; File D:\git\src\IBK\IBK_DRFN\ProjSrc\SrcChartEx\ChartOCX\IndicatorCondition\IndicatorInfoImplementation.cpp
; File C:\Program Files (x86)\Microsoft Visual Studio\2019\Community\VC\Tools\MSVC\14.29.30133\atlmfc\include\afxtempl.h
; File D:\git\src\IBK\IBK_DRFN\ProjSrc\SrcChartEx\ChartOCX\IndicatorCondition\IndicatorInfoImplementation.cpp
; File C:\Program Files (x86)\Microsoft Visual Studio\2019\Community\VC\Tools\MSVC\14.29.30133\atlmfc\include\afxtempl.h
; File D:\git\src\IBK\IBK_DRFN\ProjSrc\SrcChartEx\ChartOCX\IndicatorCondition\IndicatorInfoImplementation.cpp
; File C:\Program Files (x86)\Microsoft Visual Studio\2019\Community\VC\Tools\MSVC\14.29.30133\atlmfc\include\afxtempl.h
; File D:\git\src\IBK\IBK_DRFN\ProjSrc\SrcChartEx\ChartOCX\IndicatorCondition\IndicatorInfoImplementation.cpp
; File C:\Program Files (x86)\Microsoft Visual Studio\2019\Community\VC\Tools\MSVC\14.29.30133\atlmfc\include\afxtempl.h
; File D:\git\src\IBK\IBK_DRFN\ProjSrc\SrcChartEx\ChartOCX\IndicatorCondition\IndicatorInfoImplementation.cpp
; File C:\Program Files (x86)\Microsoft Visual Studio\2019\Community\VC\Tools\MSVC\14.29.30133\atlmfc\include\afxtempl.h
; File D:\git\src\IBK\IBK_DRFN\ProjSrc\SrcChartEx\ChartOCX\IndicatorCondition\IndicatorInfoImplementation.cpp
; File C:\Program Files (x86)\Microsoft Visual Studio\2019\Community\VC\Tools\MSVC\14.29.30133\atlmfc\include\afxtempl.h
; File D:\git\src\IBK\IBK_DRFN\ProjSrc\SrcChartEx\ChartOCX\IndicatorCondition\IndicatorInfoImplementation.cpp
; File C:\Program Files (x86)\Microsoft Visual Studio\2019\Community\VC\Tools\MSVC\14.29.30133\atlmfc\include\afxtempl.h
; File D:\git\src\IBK\IBK_DRFN\ProjSrc\SrcChartEx\ChartOCX\IndicatorCondition\IndicatorInfoImplementation.cpp
;	COMDAT ?ChangeCalConditionDataFromSubGraphTitle@CIndicatorInfoImplementation@@AAE_NXZ
_TEXT	SEGMENT
_subGraphTitleList$ = -64				; size = 28
_dTitle$2 = -36						; size = 8
_this$1$ = -28						; size = 4
$T3 = -24						; size = 4
_strTitle$4 = -20					; size = 4
_bResult$1$ = -13					; size = 1
__$EHRec$ = -12						; size = 12
?ChangeCalConditionDataFromSubGraphTitle@CIndicatorInfoImplementation@@AAE_NXZ PROC ; CIndicatorInfoImplementation::ChangeCalConditionDataFromSubGraphTitle, COMDAT
; _this$ = ecx

; 679  : {

  00000	55		 push	 ebp
  00001	8b ec		 mov	 ebp, esp
  00003	6a ff		 push	 -1
  00005	68 00 00 00 00	 push	 __ehhandler$?ChangeCalConditionDataFromSubGraphTitle@CIndicatorInfoImplementation@@AAE_NXZ
  0000a	64 a1 00 00 00
	00		 mov	 eax, DWORD PTR fs:0
  00010	50		 push	 eax
  00011	83 ec 34	 sub	 esp, 52			; 00000034H
  00014	53		 push	 ebx
  00015	56		 push	 esi
  00016	57		 push	 edi
  00017	a1 00 00 00 00	 mov	 eax, DWORD PTR ___security_cookie
  0001c	33 c5		 xor	 eax, ebp
  0001e	50		 push	 eax
  0001f	8d 45 f4	 lea	 eax, DWORD PTR __$EHRec$[ebp]
  00022	64 a3 00 00 00
	00		 mov	 DWORD PTR fs:0, eax
  00028	8b f1		 mov	 esi, ecx
  0002a	89 75 e4	 mov	 DWORD PTR _this$1$[ebp], esi

; 648  : 	if(GetCommonCalConditionCount() <= 0)

  0002d	83 7e 48 00	 cmp	 DWORD PTR [esi+72], 0
  00031	7f 14		 jg	 SHORT $LN94@ChangeCalC

; 205  : 	return m_graphPartData.GetConditionList(nSubGraphIndex);

  00033	6a 00		 push	 0
  00035	8d 4e 08	 lea	 ecx, DWORD PTR [esi+8]
  00038	e8 00 00 00 00	 call	 ?GetConditionList@CGraphPartData@@QBEPAV?$CList@NN@@H@Z ; CGraphPartData::GetConditionList

; 148  : 	if(pDoubleList == NULL)

  0003d	85 c0		 test	 eax, eax
  0003f	74 12		 je	 SHORT $LN103@ChangeCalC

; 650  : 		if(GetCalConditionCount(0) <= 0)

  00041	83 78 0c 00	 cmp	 DWORD PTR [eax+12], 0
  00045	7e 0c		 jle	 SHORT $LN103@ChangeCalC
$LN94@ChangeCalC:

; 651  : 			return CIndiBaseData::BASE_TITLE;
; 652  : 	}
; 653  : 
; 654  : 	return m_graphPartData.GetConditionTitle();

  00047	8d 4e 08	 lea	 ecx, DWORD PTR [esi+8]
  0004a	e8 00 00 00 00	 call	 ?GetConditionTitle@CGraphPartData@@QBE?AW4TITLETYPE@CIndiBaseData@@XZ ; CGraphPartData::GetConditionTitle

; 680  : 	// title   .
; 681  : 	if(GetConditionTitle() == CIndiBaseData::BASE_TITLE)

  0004f	85 c0		 test	 eax, eax
  00051	75 14		 jne	 SHORT $LN4@ChangeCalC
$LN103@ChangeCalC:

; 682  : 		return false;

  00053	32 c0		 xor	 al, al

; 704  : }

  00055	8b 4d f4	 mov	 ecx, DWORD PTR __$EHRec$[ebp]
  00058	64 89 0d 00 00
	00 00		 mov	 DWORD PTR fs:0, ecx
  0005f	59		 pop	 ecx
  00060	5f		 pop	 edi
  00061	5e		 pop	 esi
  00062	5b		 pop	 ebx
  00063	8b e5		 mov	 esp, ebp
  00065	5d		 pop	 ebp
  00066	c3		 ret	 0
$LN4@ChangeCalC:
; File C:\Program Files (x86)\Microsoft Visual Studio\2019\Community\VC\Tools\MSVC\14.29.30133\atlmfc\include\afxtempl.h

; 851  : {

  00067	c7 45 c0 00 00
	00 00		 mov	 DWORD PTR _subGraphTitleList$[ebp], OFFSET ??_7?$CList@V?$CStringT@DV?$StrTraitMFC_DLL@DV?$ChTraitsCRT@D@ATL@@@@@ATL@@V12@@@6B@

; 852  : 	ASSERT(nBlockSize > 0);
; 853  : 
; 854  : 	m_nCount = 0;

  0006e	c7 45 cc 00 00
	00 00		 mov	 DWORD PTR _subGraphTitleList$[ebp+12], 0

; 855  : 	m_pNodeHead = m_pNodeTail = m_pNodeFree = NULL;

  00075	c7 45 d0 00 00
	00 00		 mov	 DWORD PTR _subGraphTitleList$[ebp+16], 0
  0007c	c7 45 c8 00 00
	00 00		 mov	 DWORD PTR _subGraphTitleList$[ebp+8], 0
  00083	c7 45 c4 00 00
	00 00		 mov	 DWORD PTR _subGraphTitleList$[ebp+4], 0

; 856  : 	m_pBlocks = NULL;

  0008a	c7 45 d4 00 00
	00 00		 mov	 DWORD PTR _subGraphTitleList$[ebp+20], 0

; 857  : 	m_nBlockSize = nBlockSize;

  00091	c7 45 d8 0a 00
	00 00		 mov	 DWORD PTR _subGraphTitleList$[ebp+24], 10 ; 0000000aH
; File D:\git\src\IBK\IBK_DRFN\ProjSrc\SrcChartEx\ChartOCX\IndicatorCondition\IndicatorInfoImplementation.cpp

; 685  : 	m_graphPartData.GetSubGraphTitleList(subGraphTitleList);

  00098	8d 45 c0	 lea	 eax, DWORD PTR _subGraphTitleList$[ebp]
  0009b	c7 45 fc 00 00
	00 00		 mov	 DWORD PTR __$EHRec$[ebp+8], 0
  000a2	50		 push	 eax
  000a3	8d 4e 08	 lea	 ecx, DWORD PTR [esi+8]
  000a6	e8 00 00 00 00	 call	 ?GetSubGraphTitleList@CGraphPartData@@QBE_NAAV?$CList@V?$CStringT@DV?$StrTraitMFC_DLL@DV?$ChTraitsCRT@D@ATL@@@@@ATL@@V12@@@@Z ; CGraphPartData::GetSubGraphTitleList

; 686  : 
; 687  : 	bool bResult = false;
; 688  : 	int nIndex = 0;
; 689  : 	POSITION pos = subGraphTitleList.GetHeadPosition();

  000ab	8b 7d c4	 mov	 edi, DWORD PTR _subGraphTitleList$[ebp+4]
  000ae	33 db		 xor	 ebx, ebx
  000b0	c6 45 f3 00	 mov	 BYTE PTR _bResult$1$[ebp], 0
  000b4	85 ff		 test	 edi, edi

; 690  : 	while(pos != NULL)

  000b6	0f 84 0f 01 00
	00		 je	 $LN3@ChangeCalC
  000bc	0f 1f 40 00	 npad	 4
$LL2@ChangeCalC:
; File C:\Program Files (x86)\Microsoft Visual Studio\2019\Community\VC\Tools\MSVC\14.29.30133\atlmfc\include\afxtempl.h

; 811  : 	{ CNode* pNode = (CNode*) rPosition;

  000c0	8b c7		 mov	 eax, edi
; File D:\git\src\IBK\IBK_DRFN\ProjSrc\SrcChartEx\ChartOCX\IndicatorCondition\IndicatorInfoImplementation.cpp

; 692  : 		CString strTitle = subGraphTitleList.GetNext(pos);

  000c2	8d 4d ec	 lea	 ecx, DWORD PTR _strTitle$4[ebp]
; File C:\Program Files (x86)\Microsoft Visual Studio\2019\Community\VC\Tools\MSVC\14.29.30133\atlmfc\include\afxtempl.h

; 813  : 		rPosition = (POSITION) pNode->pNext;

  000c5	8b 3f		 mov	 edi, DWORD PTR [edi]

; 814  : 		return pNode->data; }

  000c7	83 c0 08	 add	 eax, 8
; File D:\git\src\IBK\IBK_DRFN\ProjSrc\SrcChartEx\ChartOCX\IndicatorCondition\IndicatorInfoImplementation.cpp

; 692  : 		CString strTitle = subGraphTitleList.GetNext(pos);

  000ca	50		 push	 eax
  000cb	ff 15 00 00 00
	00		 call	 DWORD PTR __imp_??0?$CStringT@DV?$StrTraitMFC_DLL@DV?$ChTraitsCRT@D@ATL@@@@@ATL@@QAE@ABV01@@Z

; 711  : 	while( szTitle[ nStartIndex] && ( '9' < szTitle[ nStartIndex] || szTitle[ nStartIndex] < '0')) nStartIndex++;

  000d1	8b 45 ec	 mov	 eax, DWORD PTR _strTitle$4[ebp]
  000d4	33 d2		 xor	 edx, edx

; 692  : 		CString strTitle = subGraphTitleList.GetNext(pos);

  000d6	c6 45 fc 01	 mov	 BYTE PTR __$EHRec$[ebp+8], 1

; 711  : 	while( szTitle[ nStartIndex] && ( '9' < szTitle[ nStartIndex] || szTitle[ nStartIndex] < '0')) nStartIndex++;

  000da	8a 08		 mov	 cl, BYTE PTR [eax]
  000dc	84 c9		 test	 cl, cl
  000de	74 13		 je	 SHORT $LN110@ChangeCalC
$LL25@ChangeCalC:
  000e0	80 f9 39	 cmp	 cl, 57			; 00000039H
  000e3	7f 05		 jg	 SHORT $LN95@ChangeCalC
  000e5	80 f9 30	 cmp	 cl, 48			; 00000030H
  000e8	7d 09		 jge	 SHORT $LN110@ChangeCalC
$LN95@ChangeCalC:
  000ea	8a 4c 02 01	 mov	 cl, BYTE PTR [edx+eax+1]
  000ee	42		 inc	 edx
  000ef	84 c9		 test	 cl, cl
  000f1	75 ed		 jne	 SHORT $LL25@ChangeCalC
$LN110@ChangeCalC:

; 712  : 	int nEndIndex = nStartIndex;
; 713  : 	while( szTitle[ nEndIndex] && '0' <= szTitle[ nEndIndex] && szTitle[ nEndIndex] <= '9') nEndIndex++;

  000f3	8a 0c 02	 mov	 cl, BYTE PTR [edx+eax]
  000f6	8b f2		 mov	 esi, edx
  000f8	84 c9		 test	 cl, cl
  000fa	0f 84 b3 00 00
	00		 je	 $LN105@ChangeCalC
$LL27@ChangeCalC:
  00100	80 e9 30	 sub	 cl, 48			; 00000030H
  00103	80 f9 09	 cmp	 cl, 9
  00106	77 09		 ja	 SHORT $LN28@ChangeCalC
  00108	8a 4c 06 01	 mov	 cl, BYTE PTR [esi+eax+1]
  0010c	46		 inc	 esi
  0010d	84 c9		 test	 cl, cl
  0010f	75 ef		 jne	 SHORT $LL27@ChangeCalC
$LN28@ChangeCalC:

; 714  : 	if( nStartIndex == nEndIndex) return false;

  00111	3b d6		 cmp	 edx, esi
  00113	0f 84 9a 00 00
	00		 je	 $LN105@ChangeCalC

; 715  : 	dCalData = atof( strOrgTitle.Mid( nStartIndex, nEndIndex - nStartIndex));

  00119	2b f2		 sub	 esi, edx
  0011b	8d 45 e8	 lea	 eax, DWORD PTR $T3[ebp]
  0011e	56		 push	 esi
  0011f	52		 push	 edx
  00120	50		 push	 eax
  00121	8d 4d ec	 lea	 ecx, DWORD PTR _strTitle$4[ebp]
  00124	ff 15 00 00 00
	00		 call	 DWORD PTR __imp_?Mid@?$CStringT@DV?$StrTraitMFC_DLL@DV?$ChTraitsCRT@D@ATL@@@@@ATL@@QBE?AV12@HH@Z
  0012a	ff 30		 push	 DWORD PTR [eax]
  0012c	ff 15 00 00 00
	00		 call	 DWORD PTR __imp__atof
  00132	83 c4 04	 add	 esp, 4
  00135	8d 4d e8	 lea	 ecx, DWORD PTR $T3[ebp]
  00138	dd 5d dc	 fstp	 QWORD PTR _dTitle$2[ebp]
  0013b	ff 15 00 00 00
	00		 call	 DWORD PTR __imp_??1?$CStringT@DV?$StrTraitMFC_DLL@DV?$ChTraitsCRT@D@ATL@@@@@ATL@@QAE@XZ
; File C:\Program Files (x86)\Microsoft Visual Studio\2019\Community\VC\Tools\MSVC\14.29.30133\atlmfc\include\afxtempl.h

; 1133 : 	if (nIndex >= m_nCount || nIndex < 0)

  00141	8b 75 e4	 mov	 esi, DWORD PTR _this$1$[ebp]
; File D:\git\src\IBK\IBK_DRFN\ProjSrc\SrcChartEx\ChartOCX\IndicatorCondition\IndicatorInfoImplementation.cpp

; 663  : 	POSITION pos = targetList.FindIndex(nIndex);

  00144	8b c3		 mov	 eax, ebx
; File C:\Program Files (x86)\Microsoft Visual Studio\2019\Community\VC\Tools\MSVC\14.29.30133\atlmfc\include\afxtempl.h

; 1133 : 	if (nIndex >= m_nCount || nIndex < 0)

  00146	3b 5e 48	 cmp	 ebx, DWORD PTR [esi+72]
  00149	7d 2d		 jge	 SHORT $LN6@ChangeCalC
  0014b	85 db		 test	 ebx, ebx
  0014d	78 29		 js	 SHORT $LN6@ChangeCalC

; 1134 : 		return NULL;  // went too far
; 1135 : 
; 1136 : 	CNode* pNode = m_pNodeHead;

  0014f	8b 4e 40	 mov	 ecx, DWORD PTR [esi+64]

; 1137 : 	while (nIndex--)

  00152	74 07		 je	 SHORT $LN82@ChangeCalC
$LL44@ChangeCalC:

; 1138 : 	{
; 1139 : 		ASSERT(AfxIsValidAddress(pNode, sizeof(CNode)));
; 1140 : 		pNode = pNode->pNext;

  00154	8b 09		 mov	 ecx, DWORD PTR [ecx]
  00156	83 e8 01	 sub	 eax, 1
  00159	75 f9		 jne	 SHORT $LL44@ChangeCalC
$LN82@ChangeCalC:
; File D:\git\src\IBK\IBK_DRFN\ProjSrc\SrcChartEx\ChartOCX\IndicatorCondition\IndicatorInfoImplementation.cpp

; 664  : 	if(pos == NULL)

  0015b	85 c9		 test	 ecx, ecx
  0015d	74 19		 je	 SHORT $LN6@ChangeCalC

; 665  : 		return -1;
; 666  : 
; 667  : 	double dOrgData = targetList.GetAt(pos);
; 668  : 	if(dData == dOrgData)

  0015f	f2 0f 10 45 dc	 movsd	 xmm0, QWORD PTR _dTitle$2[ebp]
  00164	66 0f 2e 41 08	 ucomisd xmm0, QWORD PTR [ecx+8]
  00169	9f		 lahf
  0016a	f6 c4 44	 test	 ah, 68			; 00000044H
  0016d	7b 09		 jnp	 SHORT $LN6@ChangeCalC

; 669  : 		return 0;
; 670  : 
; 671  : 	targetList.SetAt(pos, dData);

  0016f	f2 0f 11 41 08	 movsd	 QWORD PTR [ecx+8], xmm0

; 693  : 		double dTitle = 0.0;
; 694  : 		if(!GetCalConditionDataFromSubGraphTitle(strTitle, dTitle))
; 695  : 			continue;
; 696  : 		if(SetCommonCalConditionData(nIndex, dTitle) == 1)
; 697  : 			bResult = true;

  00174	c6 45 f3 01	 mov	 BYTE PTR _bResult$1$[ebp], 1
$LN6@ChangeCalC:

; 455  : 	CSubGraphPartData* pSubGraphPartData = m_graphPartData.GetSubGraphPartData(nSubGraphIndex);

  00178	53		 push	 ebx
  00179	8d 4e 08	 lea	 ecx, DWORD PTR [esi+8]
  0017c	e8 00 00 00 00	 call	 ?GetSubGraphPartData@CGraphPartData@@QBEPAVCSubGraphPartData@@H@Z ; CGraphPartData::GetSubGraphPartData

; 456  : 	if(pSubGraphPartData == NULL)

  00181	85 c0		 test	 eax, eax
  00183	74 2d		 je	 SHORT $LN7@ChangeCalC

; 457  : 		return -1;
; 458  : 
; 459  : 	return SetDoubleListData(nCondIndex, dData, pSubGraphPartData->GetConditionList());

  00185	8b c8		 mov	 ecx, eax
  00187	e8 00 00 00 00	 call	 ?GetConditionList@CSubGraphPartData@@QAEAAV?$CList@NN@@XZ ; CSubGraphPartData::GetConditionList
; File C:\Program Files (x86)\Microsoft Visual Studio\2019\Community\VC\Tools\MSVC\14.29.30133\atlmfc\include\afxtempl.h

; 1133 : 	if (nIndex >= m_nCount || nIndex < 0)

  0018c	83 78 0c 00	 cmp	 DWORD PTR [eax+12], 0
  00190	7e 20		 jle	 SHORT $LN7@ChangeCalC

; 1134 : 		return NULL;  // went too far
; 1135 : 
; 1136 : 	CNode* pNode = m_pNodeHead;

  00192	8b 48 04	 mov	 ecx, DWORD PTR [eax+4]
; File D:\git\src\IBK\IBK_DRFN\ProjSrc\SrcChartEx\ChartOCX\IndicatorCondition\IndicatorInfoImplementation.cpp

; 664  : 	if(pos == NULL)

  00195	85 c9		 test	 ecx, ecx
  00197	74 19		 je	 SHORT $LN7@ChangeCalC

; 665  : 		return -1;
; 666  : 
; 667  : 	double dOrgData = targetList.GetAt(pos);
; 668  : 	if(dData == dOrgData)

  00199	f2 0f 10 45 dc	 movsd	 xmm0, QWORD PTR _dTitle$2[ebp]
  0019e	66 0f 2e 41 08	 ucomisd xmm0, QWORD PTR [ecx+8]
  001a3	9f		 lahf
  001a4	f6 c4 44	 test	 ah, 68			; 00000044H
  001a7	7b 09		 jnp	 SHORT $LN7@ChangeCalC

; 669  : 		return 0;
; 670  : 
; 671  : 	targetList.SetAt(pos, dData);

  001a9	f2 0f 11 41 08	 movsd	 QWORD PTR [ecx+8], xmm0

; 698  : 		if(SetCalConditionData(nIndex, 0, dTitle) == 1)
; 699  : 			bResult = true;

  001ae	c6 45 f3 01	 mov	 BYTE PTR _bResult$1$[ebp], 1
$LN7@ChangeCalC:

; 700  : 		nIndex++;

  001b2	43		 inc	 ebx
$LN105@ChangeCalC:

; 690  : 	while(pos != NULL)

  001b3	8d 4d ec	 lea	 ecx, DWORD PTR _strTitle$4[ebp]
  001b6	c6 45 fc 00	 mov	 BYTE PTR __$EHRec$[ebp+8], 0
  001ba	ff 15 00 00 00
	00		 call	 DWORD PTR __imp_??1?$CStringT@DV?$StrTraitMFC_DLL@DV?$ChTraitsCRT@D@ATL@@@@@ATL@@QAE@XZ
  001c0	85 ff		 test	 edi, edi
  001c2	0f 85 f8 fe ff
	ff		 jne	 $LL2@ChangeCalC
  001c8	8b 7d c4	 mov	 edi, DWORD PTR _subGraphTitleList$[ebp+4]
$LN3@ChangeCalC:
; File C:\Program Files (x86)\Microsoft Visual Studio\2019\Community\VC\Tools\MSVC\14.29.30133\atlmfc\include\afxtempl.h

; 878  : {

  001cb	c7 45 fc 02 00
	00 00		 mov	 DWORD PTR __$EHRec$[ebp+8], 2
  001d2	c7 45 c0 00 00
	00 00		 mov	 DWORD PTR _subGraphTitleList$[ebp], OFFSET ??_7?$CList@V?$CStringT@DV?$StrTraitMFC_DLL@DV?$ChTraitsCRT@D@ATL@@@@@ATL@@V12@@@6B@

; 867  : 	for (pNode = m_pNodeHead; pNode != NULL; pNode = pNode->pNext)

  001d9	85 ff		 test	 edi, edi
  001db	74 12		 je	 SHORT $LN67@ChangeCalC
  001dd	0f 1f 00	 npad	 3
$LL68@ChangeCalC:

; 868  : 		pNode->data.~TYPE();

  001e0	8d 4f 08	 lea	 ecx, DWORD PTR [edi+8]
  001e3	ff 15 00 00 00
	00		 call	 DWORD PTR __imp_??1?$CStringT@DV?$StrTraitMFC_DLL@DV?$ChTraitsCRT@D@ATL@@@@@ATL@@QAE@XZ

; 858  : }
; 859  : 
; 860  : template<class TYPE, class ARG_TYPE>
; 861  : void CList<TYPE, ARG_TYPE>::RemoveAll()
; 862  : {
; 863  : 	ASSERT_VALID(this);
; 864  : 
; 865  : 	// destroy elements
; 866  : 	CNode* pNode;
; 867  : 	for (pNode = m_pNodeHead; pNode != NULL; pNode = pNode->pNext)

  001e9	8b 3f		 mov	 edi, DWORD PTR [edi]
  001eb	85 ff		 test	 edi, edi
  001ed	75 f1		 jne	 SHORT $LL68@ChangeCalC
$LN67@ChangeCalC:

; 869  : 
; 870  : 	m_nCount = 0;
; 871  : 	m_pNodeHead = m_pNodeTail = m_pNodeFree = NULL;
; 872  : 	m_pBlocks->FreeDataChain();

  001ef	8b 4d d4	 mov	 ecx, DWORD PTR _subGraphTitleList$[ebp+20]
  001f2	c7 45 cc 00 00
	00 00		 mov	 DWORD PTR _subGraphTitleList$[ebp+12], 0
  001f9	c7 45 d0 00 00
	00 00		 mov	 DWORD PTR _subGraphTitleList$[ebp+16], 0
  00200	c7 45 c8 00 00
	00 00		 mov	 DWORD PTR _subGraphTitleList$[ebp+8], 0
  00207	c7 45 c4 00 00
	00 00		 mov	 DWORD PTR _subGraphTitleList$[ebp+4], 0
  0020e	e8 00 00 00 00	 call	 ?FreeDataChain@CPlex@@QAEXXZ ; CPlex::FreeDataChain
; File D:\git\src\IBK\IBK_DRFN\ProjSrc\SrcChartEx\ChartOCX\IndicatorCondition\IndicatorInfoImplementation.cpp

; 703  : 	return bResult;

  00213	8a 45 f3	 mov	 al, BYTE PTR _bResult$1$[ebp]

; 704  : }

  00216	8b 4d f4	 mov	 ecx, DWORD PTR __$EHRec$[ebp]
  00219	64 89 0d 00 00
	00 00		 mov	 DWORD PTR fs:0, ecx
  00220	59		 pop	 ecx
  00221	5f		 pop	 edi
  00222	5e		 pop	 esi
  00223	5b		 pop	 ebx
  00224	8b e5		 mov	 esp, ebp
  00226	5d		 pop	 ebp
  00227	c3		 ret	 0
_TEXT	ENDS
;	COMDAT text$x
text$x	SEGMENT
__unwindfunclet$?ChangeCalConditionDataFromSubGraphTitle@CIndicatorInfoImplementation@@AAE_NXZ$0:
  00000	8d 4d c0	 lea	 ecx, DWORD PTR _subGraphTitleList$[ebp]
  00003	e9 00 00 00 00	 jmp	 ??1?$CList@V?$CStringT@DV?$StrTraitMFC_DLL@DV?$ChTraitsCRT@D@ATL@@@@@ATL@@V12@@@UAE@XZ ; CList<ATL::CStringT<char,StrTraitMFC_DLL<char,ATL::ChTraitsCRT<char> > >,ATL::CStringT<char,StrTraitMFC_DLL<char,ATL::ChTraitsCRT<char> > > >::~CList<ATL::CStringT<char,StrTraitMFC_DLL<char,ATL::ChTraitsCRT<char> > >,ATL::CStringT<char,StrTraitMFC_DLL<char,ATL::ChTraitsCRT<char> > > >
__unwindfunclet$?ChangeCalConditionDataFromSubGraphTitle@CIndicatorInfoImplementation@@AAE_NXZ$1:
  00008	8d 4d ec	 lea	 ecx, DWORD PTR _strTitle$4[ebp]
  0000b	ff 25 00 00 00
	00		 jmp	 DWORD PTR __imp_??1?$CStringT@DV?$StrTraitMFC_DLL@DV?$ChTraitsCRT@D@ATL@@@@@ATL@@QAE@XZ
  00011	cc		 int	 3
  00012	cc		 int	 3
  00013	cc		 int	 3
  00014	cc		 int	 3
  00015	cc		 int	 3
__ehhandler$?ChangeCalConditionDataFromSubGraphTitle@CIndicatorInfoImplementation@@AAE_NXZ:
  00016	90		 npad	 1
  00017	90		 npad	 1
  00018	8b 54 24 08	 mov	 edx, DWORD PTR [esp+8]
  0001c	8d 42 0c	 lea	 eax, DWORD PTR [edx+12]
  0001f	8b 4a bc	 mov	 ecx, DWORD PTR [edx-68]
  00022	33 c8		 xor	 ecx, eax
  00024	e8 00 00 00 00	 call	 @__security_check_cookie@4
  00029	b8 00 00 00 00	 mov	 eax, OFFSET __ehfuncinfo$?ChangeCalConditionDataFromSubGraphTitle@CIndicatorInfoImplementation@@AAE_NXZ
  0002e	e9 00 00 00 00	 jmp	 ___CxxFrameHandler3
text$x	ENDS
?ChangeCalConditionDataFromSubGraphTitle@CIndicatorInfoImplementation@@AAE_NXZ ENDP ; CIndicatorInfoImplementation::ChangeCalConditionDataFromSubGraphTitle
; Function compile flags: /Ogtp
; File D:\git\src\IBK\IBK_DRFN\ProjSrc\SrcChartEx\ChartOCX\IndicatorCondition\IndicatorInfoImplementation.cpp
; File C:\Program Files (x86)\Microsoft Visual Studio\2019\Community\VC\Tools\MSVC\14.29.30133\atlmfc\include\afxtempl.h
; File D:\git\src\IBK\IBK_DRFN\ProjSrc\SrcChartEx\ChartOCX\IndicatorCondition\IndicatorInfoImplementation.cpp
; File C:\Program Files (x86)\Microsoft Visual Studio\2019\Community\VC\Tools\MSVC\14.29.30133\atlmfc\include\afxtempl.h
; File D:\git\src\IBK\IBK_DRFN\ProjSrc\SrcChartEx\ChartOCX\IndicatorCondition\IndicatorInfoImplementation.cpp
;	COMDAT ?SetDoubleListData@CIndicatorInfoImplementation@@AAEHHABNAAV?$CList@NN@@@Z
_TEXT	SEGMENT
_nIndex$ = 8						; size = 4
_dData$ = 12						; size = 4
_targetList$ = 16					; size = 4
?SetDoubleListData@CIndicatorInfoImplementation@@AAEHHABNAAV?$CList@NN@@@Z PROC ; CIndicatorInfoImplementation::SetDoubleListData, COMDAT
; _this$ = ecx

; 662  : {

  00000	55		 push	 ebp
  00001	8b ec		 mov	 ebp, esp
; File C:\Program Files (x86)\Microsoft Visual Studio\2019\Community\VC\Tools\MSVC\14.29.30133\atlmfc\include\afxtempl.h

; 1133 : 	if (nIndex >= m_nCount || nIndex < 0)

  00003	8b 4d 10	 mov	 ecx, DWORD PTR _targetList$[ebp]
; File D:\git\src\IBK\IBK_DRFN\ProjSrc\SrcChartEx\ChartOCX\IndicatorCondition\IndicatorInfoImplementation.cpp

; 663  : 	POSITION pos = targetList.FindIndex(nIndex);

  00006	8b 45 08	 mov	 eax, DWORD PTR _nIndex$[ebp]
; File C:\Program Files (x86)\Microsoft Visual Studio\2019\Community\VC\Tools\MSVC\14.29.30133\atlmfc\include\afxtempl.h

; 1133 : 	if (nIndex >= m_nCount || nIndex < 0)

  00009	3b 41 0c	 cmp	 eax, DWORD PTR [ecx+12]
  0000c	7d 3a		 jge	 SHORT $LN16@SetDoubleL
  0000e	85 c0		 test	 eax, eax
  00010	78 36		 js	 SHORT $LN16@SetDoubleL

; 1134 : 		return NULL;  // went too far
; 1135 : 
; 1136 : 	CNode* pNode = m_pNodeHead;

  00012	8b 49 04	 mov	 ecx, DWORD PTR [ecx+4]

; 1137 : 	while (nIndex--)

  00015	74 07		 je	 SHORT $LN12@SetDoubleL
$LL6@SetDoubleL:

; 1138 : 	{
; 1139 : 		ASSERT(AfxIsValidAddress(pNode, sizeof(CNode)));
; 1140 : 		pNode = pNode->pNext;

  00017	8b 09		 mov	 ecx, DWORD PTR [ecx]
  00019	83 e8 01	 sub	 eax, 1
  0001c	75 f9		 jne	 SHORT $LL6@SetDoubleL
$LN12@SetDoubleL:
; File D:\git\src\IBK\IBK_DRFN\ProjSrc\SrcChartEx\ChartOCX\IndicatorCondition\IndicatorInfoImplementation.cpp

; 664  : 	if(pos == NULL)

  0001e	85 c9		 test	 ecx, ecx
  00020	74 26		 je	 SHORT $LN16@SetDoubleL

; 666  : 
; 667  : 	double dOrgData = targetList.GetAt(pos);
; 668  : 	if(dData == dOrgData)

  00022	8b 45 0c	 mov	 eax, DWORD PTR _dData$[ebp]
  00025	f2 0f 10 00	 movsd	 xmm0, QWORD PTR [eax]
  00029	66 0f 2e 41 08	 ucomisd xmm0, QWORD PTR [ecx+8]
  0002e	9f		 lahf
  0002f	f6 c4 44	 test	 ah, 68			; 00000044H
  00032	7a 06		 jp	 SHORT $LN3@SetDoubleL

; 669  : 		return 0;

  00034	33 c0		 xor	 eax, eax

; 673  : }

  00036	5d		 pop	 ebp
  00037	c2 0c 00	 ret	 12			; 0000000cH
$LN3@SetDoubleL:

; 670  : 
; 671  : 	targetList.SetAt(pos, dData);

  0003a	f2 0f 11 41 08	 movsd	 QWORD PTR [ecx+8], xmm0

; 672  : 	return 1;

  0003f	b8 01 00 00 00	 mov	 eax, 1

; 673  : }

  00044	5d		 pop	 ebp
  00045	c2 0c 00	 ret	 12			; 0000000cH
$LN16@SetDoubleL:

; 665  : 		return -1;

  00048	83 c8 ff	 or	 eax, -1

; 673  : }

  0004b	5d		 pop	 ebp
  0004c	c2 0c 00	 ret	 12			; 0000000cH
?SetDoubleListData@CIndicatorInfoImplementation@@AAEHHABNAAV?$CList@NN@@@Z ENDP ; CIndicatorInfoImplementation::SetDoubleListData
_TEXT	ENDS
; Function compile flags: /Ogtp
; File D:\git\src\IBK\IBK_DRFN\ProjSrc\SrcChartEx\ChartOCX\IndicatorCondition\IndicatorInfoImplementation.cpp
;	COMDAT ?GetConditionTitle@CIndicatorInfoImplementation@@ABE?AW4TITLETYPE@CIndiBaseData@@XZ
_TEXT	SEGMENT
?GetConditionTitle@CIndicatorInfoImplementation@@ABE?AW4TITLETYPE@CIndiBaseData@@XZ PROC ; CIndicatorInfoImplementation::GetConditionTitle, COMDAT
; _this$ = ecx

; 646  : 	// " ", " "  subCalCondition .
; 647  : 	// ->   
; 648  : 	if(GetCommonCalConditionCount() <= 0)

  00000	83 79 48 00	 cmp	 DWORD PTR [ecx+72], 0
  00004	56		 push	 esi
  00005	8d 71 08	 lea	 esi, DWORD PTR [ecx+8]
  00008	7f 17		 jg	 SHORT $LN10@GetConditi

; 205  : 	return m_graphPartData.GetConditionList(nSubGraphIndex);

  0000a	6a 00		 push	 0
  0000c	8b ce		 mov	 ecx, esi
  0000e	e8 00 00 00 00	 call	 ?GetConditionList@CGraphPartData@@QBEPAV?$CList@NN@@H@Z ; CGraphPartData::GetConditionList

; 148  : 	if(pDoubleList == NULL)

  00013	85 c0		 test	 eax, eax
  00015	74 06		 je	 SHORT $LN11@GetConditi

; 649  : 	{
; 650  : 		if(GetCalConditionCount(0) <= 0)

  00017	83 78 0c 00	 cmp	 DWORD PTR [eax+12], 0
  0001b	7f 04		 jg	 SHORT $LN10@GetConditi
$LN11@GetConditi:

; 651  : 			return CIndiBaseData::BASE_TITLE;

  0001d	33 c0		 xor	 eax, eax
  0001f	5e		 pop	 esi

; 655  : }

  00020	c3		 ret	 0
$LN10@GetConditi:

; 652  : 	}
; 653  : 
; 654  : 	return m_graphPartData.GetConditionTitle();

  00021	8b ce		 mov	 ecx, esi
  00023	5e		 pop	 esi
  00024	e9 00 00 00 00	 jmp	 ?GetConditionTitle@CGraphPartData@@QBE?AW4TITLETYPE@CIndiBaseData@@XZ ; CGraphPartData::GetConditionTitle
?GetConditionTitle@CIndicatorInfoImplementation@@ABE?AW4TITLETYPE@CIndiBaseData@@XZ ENDP ; CIndicatorInfoImplementation::GetConditionTitle
_TEXT	ENDS
; Function compile flags: /Ogtp
; File D:\git\src\IBK\IBK_DRFN\ProjSrc\SrcChartEx\ChartOCX\IndicatorCondition\IndicatorInfoImplementation.cpp
; File C:\Program Files (x86)\Microsoft Visual Studio\2019\Community\VC\Tools\MSVC\14.29.30133\atlmfc\include\afxtempl.h
; File D:\git\src\IBK\IBK_DRFN\ProjSrc\SrcChartEx\ChartOCX\IndicatorCondition\IndicatorInfoImplementation.cpp
; File C:\Program Files (x86)\Microsoft Visual Studio\2019\Community\VC\Tools\MSVC\14.29.30133\atlmfc\include\cstringt.h
; File D:\git\src\IBK\IBK_DRFN\ProjSrc\SrcChartEx\ChartOCX\IndicatorCondition\IndicatorInfoImplementation.cpp
; File C:\Program Files (x86)\Microsoft Visual Studio\2019\Community\VC\Tools\MSVC\14.29.30133\atlmfc\include\cstringt.h
; File C:\Program Files (x86)\Microsoft Visual Studio\2019\Community\VC\Tools\MSVC\14.29.30133\atlmfc\include\atlsimpstr.h
; File C:\Program Files (x86)\Microsoft Visual Studio\2019\Community\VC\Tools\MSVC\14.29.30133\atlmfc\include\cstringt.h
; File C:\Program Files (x86)\Microsoft Visual Studio\2019\Community\VC\Tools\MSVC\14.29.30133\atlmfc\include\atlsimpstr.h
; File C:\Program Files (x86)\Microsoft Visual Studio\2019\Community\VC\Tools\MSVC\14.29.30133\atlmfc\include\cstringt.h
; File C:\Program Files (x86)\Microsoft Visual Studio\2019\Community\VC\Tools\MSVC\14.29.30133\atlmfc\include\atlsimpstr.h
; File C:\Program Files (x86)\Microsoft Visual Studio\2019\Community\VC\Tools\MSVC\14.29.30133\atlmfc\include\cstringt.h
; File D:\git\src\IBK\IBK_DRFN\ProjSrc\SrcChartEx\ChartOCX\IndicatorCondition\IndicatorInfoImplementation.cpp
;	COMDAT ?GetStringDoubleList@CIndicatorInfoImplementation@@ABE?AV?$CStringT@DV?$StrTraitMFC_DLL@DV?$ChTraitsCRT@D@ATL@@@@@ATL@@ABV?$CList@NN@@ABV23@@Z
_TEXT	SEGMENT
_dData$2 = -32						; size = 8
$T3 = -24						; size = 4
$T4 = -20						; size = 4
_strData$ = -16						; size = 4
__$EHRec$ = -12						; size = 12
___$ReturnUdt$ = 8					; size = 4
$T5 = 12						; size = 4
_doubleList$ = 12					; size = 4
_strCompart$ = 16					; size = 4
?GetStringDoubleList@CIndicatorInfoImplementation@@ABE?AV?$CStringT@DV?$StrTraitMFC_DLL@DV?$ChTraitsCRT@D@ATL@@@@@ATL@@ABV?$CList@NN@@ABV23@@Z PROC ; CIndicatorInfoImplementation::GetStringDoubleList, COMDAT
; _this$ = ecx

; 626  : {

  00000	55		 push	 ebp
  00001	8b ec		 mov	 ebp, esp
  00003	6a ff		 push	 -1
  00005	68 00 00 00 00	 push	 __ehhandler$?GetStringDoubleList@CIndicatorInfoImplementation@@ABE?AV?$CStringT@DV?$StrTraitMFC_DLL@DV?$ChTraitsCRT@D@ATL@@@@@ATL@@ABV?$CList@NN@@ABV23@@Z
  0000a	64 a1 00 00 00
	00		 mov	 eax, DWORD PTR fs:0
  00010	50		 push	 eax
  00011	83 ec 14	 sub	 esp, 20			; 00000014H
  00014	53		 push	 ebx
  00015	56		 push	 esi
  00016	57		 push	 edi
  00017	a1 00 00 00 00	 mov	 eax, DWORD PTR ___security_cookie
  0001c	33 c5		 xor	 eax, ebp
  0001e	50		 push	 eax
  0001f	8d 45 f4	 lea	 eax, DWORD PTR __$EHRec$[ebp]
  00022	64 a3 00 00 00
	00		 mov	 DWORD PTR fs:0, eax
  00028	33 ff		 xor	 edi, edi
  0002a	89 7d ec	 mov	 DWORD PTR $T4[ebp], edi

; 627  : 	if(doubleList.GetCount() <= 0)

  0002d	8b 5d 0c	 mov	 ebx, DWORD PTR _doubleList$[ebp]
  00030	39 7b 0c	 cmp	 DWORD PTR [ebx+12], edi
  00033	7f 13		 jg	 SHORT $LN4@GetStringD

; 628  : 		return "";

  00035	8b 4d 08	 mov	 ecx, DWORD PTR ___$ReturnUdt$[ebp]
  00038	68 00 00 00 00	 push	 OFFSET ??_C@_00CNPNBAHC@@
  0003d	ff 15 00 00 00
	00		 call	 DWORD PTR __imp_??0?$CStringT@DV?$StrTraitMFC_DLL@DV?$ChTraitsCRT@D@ATL@@@@@ATL@@QAE@PBD@Z
  00043	e9 b7 00 00 00	 jmp	 $LN34@GetStringD
$LN4@GetStringD:

; 629  : 
; 630  : 	CString strData;

  00048	8d 4d f0	 lea	 ecx, DWORD PTR _strData$[ebp]
  0004b	ff 15 00 00 00
	00		 call	 DWORD PTR __imp_??0?$CStringT@DV?$StrTraitMFC_DLL@DV?$ChTraitsCRT@D@ATL@@@@@ATL@@QAE@XZ

; 631  : 	POSITION pos = doubleList.GetHeadPosition();

  00051	8b 5b 04	 mov	 ebx, DWORD PTR [ebx+4]
  00054	c7 45 fc 00 00
	00 00		 mov	 DWORD PTR __$EHRec$[ebp+8], 0

; 632  : 	while(pos != NULL)

  0005b	85 db		 test	 ebx, ebx
  0005d	0f 84 86 00 00
	00		 je	 $LN3@GetStringD
$LL2@GetStringD:

; 633  : 	{
; 634  : 		double dData = doubleList.GetNext(pos);

  00063	f2 0f 10 43 08	 movsd	 xmm0, QWORD PTR [ebx+8]
; File C:\Program Files (x86)\Microsoft Visual Studio\2019\Community\VC\Tools\MSVC\14.29.30133\atlmfc\include\afxtempl.h

; 817  : 	{ CNode* pNode = (CNode*) rPosition;

  00068	8d 03		 lea	 eax, DWORD PTR [ebx]

; 818  : 		ASSERT(AfxIsValidAddress(pNode, sizeof(CNode)));
; 819  : 		rPosition = (POSITION) pNode->pNext;

  0006a	8b 1b		 mov	 ebx, DWORD PTR [ebx]
; File D:\git\src\IBK\IBK_DRFN\ProjSrc\SrcChartEx\ChartOCX\IndicatorCondition\IndicatorInfoImplementation.cpp

; 635  : 		strData += (CDataConversion::DoubleToString(dData) + strCompart);

  0006c	8d 45 e0	 lea	 eax, DWORD PTR _dData$2[ebp]
  0006f	50		 push	 eax
  00070	8d 45 e8	 lea	 eax, DWORD PTR $T3[ebp]
  00073	f2 0f 11 45 e0	 movsd	 QWORD PTR _dData$2[ebp], xmm0
  00078	50		 push	 eax
  00079	e8 00 00 00 00	 call	 ?DoubleToString@CDataConversion@@SA?AV?$CStringT@DV?$StrTraitMFC_DLL@DV?$ChTraitsCRT@D@ATL@@@@@ATL@@ABN@Z ; CDataConversion::DoubleToString
  0007e	83 c4 08	 add	 esp, 8
  00081	8b f0		 mov	 esi, eax
; File C:\Program Files (x86)\Microsoft Visual Studio\2019\Community\VC\Tools\MSVC\14.29.30133\atlmfc\include\cstringt.h

; 2390 : 		CStringT strResult( str1.GetManager() );

  00083	8b ce		 mov	 ecx, esi
; File D:\git\src\IBK\IBK_DRFN\ProjSrc\SrcChartEx\ChartOCX\IndicatorCondition\IndicatorInfoImplementation.cpp

; 635  : 		strData += (CDataConversion::DoubleToString(dData) + strCompart);

  00085	c6 45 fc 02	 mov	 BYTE PTR __$EHRec$[ebp+8], 2
; File C:\Program Files (x86)\Microsoft Visual Studio\2019\Community\VC\Tools\MSVC\14.29.30133\atlmfc\include\cstringt.h

; 2390 : 		CStringT strResult( str1.GetManager() );

  00089	ff 15 00 00 00
	00		 call	 DWORD PTR __imp_?GetManager@?$CStringT@DV?$StrTraitMFC_DLL@DV?$ChTraitsCRT@D@ATL@@@@@ATL@@QBEPAUIAtlStringMgr@2@XZ
  0008f	50		 push	 eax
  00090	8d 4d 0c	 lea	 ecx, DWORD PTR $T5[ebp]
  00093	ff 15 00 00 00
	00		 call	 DWORD PTR __imp_??0?$CStringT@DV?$StrTraitMFC_DLL@DV?$ChTraitsCRT@D@ATL@@@@@ATL@@QAE@PAUIAtlStringMgr@1@@Z
; File C:\Program Files (x86)\Microsoft Visual Studio\2019\Community\VC\Tools\MSVC\14.29.30133\atlmfc\include\atlsimpstr.h

; 519  : 		return( GetData()->nDataLength );

  00099	8b 45 10	 mov	 eax, DWORD PTR _strCompart$[ebp]
; File C:\Program Files (x86)\Microsoft Visual Studio\2019\Community\VC\Tools\MSVC\14.29.30133\atlmfc\include\cstringt.h

; 2394 : 		return( strResult );

  0009c	83 cf 02	 or	 edi, 2
; File C:\Program Files (x86)\Microsoft Visual Studio\2019\Community\VC\Tools\MSVC\14.29.30133\atlmfc\include\atlsimpstr.h

; 519  : 		return( GetData()->nDataLength );

  0009f	8b 0e		 mov	 ecx, DWORD PTR [esi]
; File C:\Program Files (x86)\Microsoft Visual Studio\2019\Community\VC\Tools\MSVC\14.29.30133\atlmfc\include\cstringt.h

; 2394 : 		return( strResult );

  000a1	89 7d ec	 mov	 DWORD PTR $T4[ebp], edi
; File C:\Program Files (x86)\Microsoft Visual Studio\2019\Community\VC\Tools\MSVC\14.29.30133\atlmfc\include\atlsimpstr.h

; 519  : 		return( GetData()->nDataLength );

  000a4	8b 00		 mov	 eax, DWORD PTR [eax]
; File C:\Program Files (x86)\Microsoft Visual Studio\2019\Community\VC\Tools\MSVC\14.29.30133\atlmfc\include\cstringt.h

; 2392 : 		CThisSimpleString::Concatenate( strResult, str1, str1.GetLength(), str2, str2.GetLength() );

  000a6	ff 70 f4	 push	 DWORD PTR [eax-12]
  000a9	50		 push	 eax
  000aa	ff 71 f4	 push	 DWORD PTR [ecx-12]
  000ad	8d 45 0c	 lea	 eax, DWORD PTR $T5[ebp]
  000b0	51		 push	 ecx
  000b1	50		 push	 eax
  000b2	ff 15 00 00 00
	00		 call	 DWORD PTR __imp_?Concatenate@?$CSimpleStringT@D$00@ATL@@KAXAAV12@PBDH1H@Z
  000b8	83 c4 14	 add	 esp, 20			; 00000014H
; File D:\git\src\IBK\IBK_DRFN\ProjSrc\SrcChartEx\ChartOCX\IndicatorCondition\IndicatorInfoImplementation.cpp

; 635  : 		strData += (CDataConversion::DoubleToString(dData) + strCompart);

  000bb	8d 45 0c	 lea	 eax, DWORD PTR $T5[ebp]
  000be	8d 4d f0	 lea	 ecx, DWORD PTR _strData$[ebp]
  000c1	50		 push	 eax
  000c2	ff 15 00 00 00
	00		 call	 DWORD PTR __imp_??Y?$CStringT@DV?$StrTraitMFC_DLL@DV?$ChTraitsCRT@D@ATL@@@@@ATL@@QAEAAV01@ABV?$CSimpleStringT@D$00@1@@Z
  000c8	8d 4d 0c	 lea	 ecx, DWORD PTR $T5[ebp]
  000cb	83 e7 fd	 and	 edi, -3			; fffffffdH
  000ce	ff 15 00 00 00
	00		 call	 DWORD PTR __imp_??1?$CStringT@DV?$StrTraitMFC_DLL@DV?$ChTraitsCRT@D@ATL@@@@@ATL@@QAE@XZ
  000d4	8d 4d e8	 lea	 ecx, DWORD PTR $T3[ebp]
  000d7	c6 45 fc 00	 mov	 BYTE PTR __$EHRec$[ebp+8], 0
  000db	ff 15 00 00 00
	00		 call	 DWORD PTR __imp_??1?$CStringT@DV?$StrTraitMFC_DLL@DV?$ChTraitsCRT@D@ATL@@@@@ATL@@QAE@XZ
  000e1	85 db		 test	 ebx, ebx
  000e3	0f 85 7a ff ff
	ff		 jne	 $LL2@GetStringD
$LN3@GetStringD:

; 636  : 	}
; 637  : 	return strData;

  000e9	8b 4d 08	 mov	 ecx, DWORD PTR ___$ReturnUdt$[ebp]
  000ec	8d 45 f0	 lea	 eax, DWORD PTR _strData$[ebp]
  000ef	50		 push	 eax
  000f0	ff 15 00 00 00
	00		 call	 DWORD PTR __imp_??0?$CStringT@DV?$StrTraitMFC_DLL@DV?$ChTraitsCRT@D@ATL@@@@@ATL@@QAE@ABV01@@Z
  000f6	8d 4d f0	 lea	 ecx, DWORD PTR _strData$[ebp]
  000f9	ff 15 00 00 00
	00		 call	 DWORD PTR __imp_??1?$CStringT@DV?$StrTraitMFC_DLL@DV?$ChTraitsCRT@D@ATL@@@@@ATL@@QAE@XZ
$LN34@GetStringD:

; 638  : }

  000ff	8b 45 08	 mov	 eax, DWORD PTR ___$ReturnUdt$[ebp]
  00102	8b 4d f4	 mov	 ecx, DWORD PTR __$EHRec$[ebp]
  00105	64 89 0d 00 00
	00 00		 mov	 DWORD PTR fs:0, ecx
  0010c	59		 pop	 ecx
  0010d	5f		 pop	 edi
  0010e	5e		 pop	 esi
  0010f	5b		 pop	 ebx
  00110	8b e5		 mov	 esp, ebp
  00112	5d		 pop	 ebp
  00113	c2 0c 00	 ret	 12			; 0000000cH
_TEXT	ENDS
;	COMDAT text$x
text$x	SEGMENT
__unwindfunclet$?GetStringDoubleList@CIndicatorInfoImplementation@@ABE?AV?$CStringT@DV?$StrTraitMFC_DLL@DV?$ChTraitsCRT@D@ATL@@@@@ATL@@ABV?$CList@NN@@ABV23@@Z$1:
  00000	8d 4d f0	 lea	 ecx, DWORD PTR _strData$[ebp]
  00003	ff 25 00 00 00
	00		 jmp	 DWORD PTR __imp_??1?$CStringT@DV?$StrTraitMFC_DLL@DV?$ChTraitsCRT@D@ATL@@@@@ATL@@QAE@XZ
__unwindfunclet$?GetStringDoubleList@CIndicatorInfoImplementation@@ABE?AV?$CStringT@DV?$StrTraitMFC_DLL@DV?$ChTraitsCRT@D@ATL@@@@@ATL@@ABV?$CList@NN@@ABV23@@Z$2:
  00009	8d 4d e8	 lea	 ecx, DWORD PTR $T3[ebp]
  0000c	ff 25 00 00 00
	00		 jmp	 DWORD PTR __imp_??1?$CStringT@DV?$StrTraitMFC_DLL@DV?$ChTraitsCRT@D@ATL@@@@@ATL@@QAE@XZ
__unwindfunclet$?GetStringDoubleList@CIndicatorInfoImplementation@@ABE?AV?$CStringT@DV?$StrTraitMFC_DLL@DV?$ChTraitsCRT@D@ATL@@@@@ATL@@ABV?$CList@NN@@ABV23@@Z$4:
  00012	8b 45 ec	 mov	 eax, DWORD PTR $T4[ebp]
  00015	83 e0 02	 and	 eax, 2
  00018	0f 84 0d 00 00
	00		 je	 $LN16@GetStringD
  0001e	83 65 ec fd	 and	 DWORD PTR $T4[ebp], -3	; fffffffdH
  00022	8d 4d 0c	 lea	 ecx, DWORD PTR $T5[ebp]
  00025	ff 25 00 00 00
	00		 jmp	 DWORD PTR __imp_??1?$CStringT@DV?$StrTraitMFC_DLL@DV?$ChTraitsCRT@D@ATL@@@@@ATL@@QAE@XZ
$LN16@GetStringD:
  0002b	c3		 ret	 0
  0002c	cc		 int	 3
  0002d	cc		 int	 3
  0002e	cc		 int	 3
  0002f	cc		 int	 3
  00030	cc		 int	 3
__ehhandler$?GetStringDoubleList@CIndicatorInfoImplementation@@ABE?AV?$CStringT@DV?$StrTraitMFC_DLL@DV?$ChTraitsCRT@D@ATL@@@@@ATL@@ABV?$CList@NN@@ABV23@@Z:
  00031	90		 npad	 1
  00032	90		 npad	 1
  00033	8b 54 24 08	 mov	 edx, DWORD PTR [esp+8]
  00037	8d 42 0c	 lea	 eax, DWORD PTR [edx+12]
  0003a	8b 4a dc	 mov	 ecx, DWORD PTR [edx-36]
  0003d	33 c8		 xor	 ecx, eax
  0003f	e8 00 00 00 00	 call	 @__security_check_cookie@4
  00044	b8 00 00 00 00	 mov	 eax, OFFSET __ehfuncinfo$?GetStringDoubleList@CIndicatorInfoImplementation@@ABE?AV?$CStringT@DV?$StrTraitMFC_DLL@DV?$ChTraitsCRT@D@ATL@@@@@ATL@@ABV?$CList@NN@@ABV23@@Z
  00049	e9 00 00 00 00	 jmp	 ___CxxFrameHandler3
text$x	ENDS
?GetStringDoubleList@CIndicatorInfoImplementation@@ABE?AV?$CStringT@DV?$StrTraitMFC_DLL@DV?$ChTraitsCRT@D@ATL@@@@@ATL@@ABV?$CList@NN@@ABV23@@Z ENDP ; CIndicatorInfoImplementation::GetStringDoubleList
; Function compile flags: /Ogtp
; File D:\git\src\IBK\IBK_DRFN\ProjSrc\SrcChartEx\ChartOCX\IndicatorCondition\IndicatorInfoImplementation.cpp
;	COMDAT ?SetDoubleListInVerifiable@CIndicatorInfoImplementation@@AAEXABV?$CList@NN@@AAV2@@Z
_TEXT	SEGMENT
_sourceData$ = 8					; size = 4
_targetData$ = 12					; size = 4
?SetDoubleListInVerifiable@CIndicatorInfoImplementation@@AAEXABV?$CList@NN@@AAV2@@Z PROC ; CIndicatorInfoImplementation::SetDoubleListInVerifiable, COMDAT
; _this$ = ecx

; 615  : {

  00000	55		 push	 ebp
  00001	8b ec		 mov	 ebp, esp

; 616  : 	// count          default  .
; 617  : 	if(sourceData.GetCount() != targetData.GetCount())

  00003	8b 55 08	 mov	 edx, DWORD PTR _sourceData$[ebp]
  00006	56		 push	 esi
  00007	8b 75 0c	 mov	 esi, DWORD PTR _targetData$[ebp]
  0000a	8b 42 0c	 mov	 eax, DWORD PTR [edx+12]
  0000d	3b 46 0c	 cmp	 eax, DWORD PTR [esi+12]
  00010	75 07		 jne	 SHORT $LN1@SetDoubleL

; 618  : 		return;
; 619  : 
; 620  : 	// count    default    .
; 621  : 	CopyDoubleList(sourceData, targetData);

  00012	56		 push	 esi
  00013	52		 push	 edx
  00014	e8 00 00 00 00	 call	 ?CopyDoubleList@CIndicatorInfoImplementation@@AAEXABV?$CList@NN@@AAV2@@Z ; CIndicatorInfoImplementation::CopyDoubleList
$LN1@SetDoubleL:
  00019	5e		 pop	 esi

; 622  : }

  0001a	5d		 pop	 ebp
  0001b	c2 08 00	 ret	 8
?SetDoubleListInVerifiable@CIndicatorInfoImplementation@@AAEXABV?$CList@NN@@AAV2@@Z ENDP ; CIndicatorInfoImplementation::SetDoubleListInVerifiable
_TEXT	ENDS
; Function compile flags: /Ogtp
; File D:\git\src\IBK\IBK_DRFN\ProjSrc\SrcChartEx\ChartOCX\IndicatorCondition\IndicatorInfoImplementation.cpp
; File C:\Program Files (x86)\Microsoft Visual Studio\2019\Community\VC\Tools\MSVC\14.29.30133\atlmfc\include\afxtempl.h
; File D:\git\src\IBK\IBK_DRFN\ProjSrc\SrcChartEx\ChartOCX\IndicatorCondition\IndicatorInfoImplementation.cpp
; File C:\Program Files (x86)\Microsoft Visual Studio\2019\Community\VC\Tools\MSVC\14.29.30133\atlmfc\include\afxtempl.h
; File D:\git\src\IBK\IBK_DRFN\ProjSrc\SrcChartEx\ChartOCX\IndicatorCondition\IndicatorInfoImplementation.cpp
; File C:\Program Files (x86)\Microsoft Visual Studio\2019\Community\VC\Tools\MSVC\14.29.30133\atlmfc\include\afxtempl.h
; File D:\git\src\IBK\IBK_DRFN\ProjSrc\SrcChartEx\ChartOCX\IndicatorCondition\IndicatorInfoImplementation.cpp
; File C:\Program Files (x86)\Microsoft Visual Studio\2019\Community\VC\Tools\MSVC\14.29.30133\atlmfc\include\afxtempl.h
; File D:\git\src\IBK\IBK_DRFN\ProjSrc\SrcChartEx\ChartOCX\IndicatorCondition\IndicatorInfoImplementation.cpp
; File C:\Program Files (x86)\Microsoft Visual Studio\2019\Community\VC\Tools\MSVC\14.29.30133\atlmfc\include\afxtempl.h
; File D:\git\src\IBK\IBK_DRFN\ProjSrc\SrcChartEx\ChartOCX\IndicatorCondition\IndicatorInfoImplementation.cpp
; File C:\Program Files (x86)\Microsoft Visual Studio\2019\Community\VC\Tools\MSVC\14.29.30133\atlmfc\include\afxtempl.h
; File D:\git\src\IBK\IBK_DRFN\ProjSrc\SrcChartEx\ChartOCX\IndicatorCondition\IndicatorInfoImplementation.cpp
;	COMDAT ?CopyDoubleList@CIndicatorInfoImplementation@@AAEXABV?$CList@NN@@AAV2@@Z
_TEXT	SEGMENT
_newElement$1$ = -8					; size = 8
_sourceData$ = 8					; size = 4
$T1 = 12						; size = 4
_targetData$ = 12					; size = 4
?CopyDoubleList@CIndicatorInfoImplementation@@AAEXABV?$CList@NN@@AAV2@@Z PROC ; CIndicatorInfoImplementation::CopyDoubleList, COMDAT
; _this$ = ecx

; 603  : {

  00000	55		 push	 ebp
  00001	8b ec		 mov	 ebp, esp
  00003	83 ec 08	 sub	 esp, 8
  00006	53		 push	 ebx
  00007	56		 push	 esi
; File C:\Program Files (x86)\Microsoft Visual Studio\2019\Community\VC\Tools\MSVC\14.29.30133\atlmfc\include\afxtempl.h

; 867  : 	for (pNode = m_pNodeHead; pNode != NULL; pNode = pNode->pNext)

  00008	8b 75 0c	 mov	 esi, DWORD PTR _targetData$[ebp]

; 872  : 	m_pBlocks->FreeDataChain();

  0000b	8b 4e 14	 mov	 ecx, DWORD PTR [esi+20]
; File D:\git\src\IBK\IBK_DRFN\ProjSrc\SrcChartEx\ChartOCX\IndicatorCondition\IndicatorInfoImplementation.cpp

; 603  : {

  0000e	57		 push	 edi
; File C:\Program Files (x86)\Microsoft Visual Studio\2019\Community\VC\Tools\MSVC\14.29.30133\atlmfc\include\afxtempl.h

; 872  : 	m_pBlocks->FreeDataChain();

  0000f	8d 7e 14	 lea	 edi, DWORD PTR [esi+20]
  00012	c7 46 0c 00 00
	00 00		 mov	 DWORD PTR [esi+12], 0
  00019	c7 46 10 00 00
	00 00		 mov	 DWORD PTR [esi+16], 0
  00020	c7 46 08 00 00
	00 00		 mov	 DWORD PTR [esi+8], 0
  00027	c7 46 04 00 00
	00 00		 mov	 DWORD PTR [esi+4], 0
  0002e	e8 00 00 00 00	 call	 ?FreeDataChain@CPlex@@QAEXXZ ; CPlex::FreeDataChain
; File D:\git\src\IBK\IBK_DRFN\ProjSrc\SrcChartEx\ChartOCX\IndicatorCondition\IndicatorInfoImplementation.cpp

; 606  : 	POSITION pos = sourceData.GetHeadPosition();

  00033	8b 45 08	 mov	 eax, DWORD PTR _sourceData$[ebp]
; File C:\Program Files (x86)\Microsoft Visual Studio\2019\Community\VC\Tools\MSVC\14.29.30133\atlmfc\include\afxtempl.h

; 873  : 	m_pBlocks = NULL;

  00036	c7 07 00 00 00
	00		 mov	 DWORD PTR [edi], 0
; File D:\git\src\IBK\IBK_DRFN\ProjSrc\SrcChartEx\ChartOCX\IndicatorCondition\IndicatorInfoImplementation.cpp

; 606  : 	POSITION pos = sourceData.GetHeadPosition();

  0003c	8b 58 04	 mov	 ebx, DWORD PTR [eax+4]

; 607  : 	while(pos != NULL)

  0003f	85 db		 test	 ebx, ebx
  00041	0f 84 9a 00 00
	00		 je	 $LN45@CopyDouble
  00047	8b 4e 08	 mov	 ecx, DWORD PTR [esi+8]
  0004a	89 4d 0c	 mov	 DWORD PTR $T1[ebp], ecx
  0004d	0f 1f 00	 npad	 3
$LL2@CopyDouble:

; 609  : 		targetData.AddTail(sourceData.GetNext(pos));

  00050	f2 0f 10 43 08	 movsd	 xmm0, QWORD PTR [ebx+8]
; File C:\Program Files (x86)\Microsoft Visual Studio\2019\Community\VC\Tools\MSVC\14.29.30133\atlmfc\include\afxtempl.h

; 817  : 	{ CNode* pNode = (CNode*) rPosition;

  00055	8d 03		 lea	 eax, DWORD PTR [ebx]

; 902  : 	if (m_pNodeFree == NULL)

  00057	8b 56 10	 mov	 edx, DWORD PTR [esi+16]

; 819  : 		rPosition = (POSITION) pNode->pNext;

  0005a	8b 1b		 mov	 ebx, DWORD PTR [ebx]
; File D:\git\src\IBK\IBK_DRFN\ProjSrc\SrcChartEx\ChartOCX\IndicatorCondition\IndicatorInfoImplementation.cpp

; 609  : 		targetData.AddTail(sourceData.GetNext(pos));

  0005c	f2 0f 11 45 f8	 movsd	 QWORD PTR _newElement$1$[ebp], xmm0
; File C:\Program Files (x86)\Microsoft Visual Studio\2019\Community\VC\Tools\MSVC\14.29.30133\atlmfc\include\afxtempl.h

; 902  : 	if (m_pNodeFree == NULL)

  00061	85 d2		 test	 edx, edx
  00063	75 48		 jne	 SHORT $LN42@CopyDouble

; 903  : 	{
; 904  : 		// add another block
; 905  : 		CPlex* pNewBlock = CPlex::Create(m_pBlocks, m_nBlockSize,

  00065	6a 10		 push	 16			; 00000010H
  00067	ff 76 18	 push	 DWORD PTR [esi+24]
  0006a	57		 push	 edi
  0006b	e8 00 00 00 00	 call	 ?Create@CPlex@@SGPAU1@AAPAU1@II@Z ; CPlex::Create

; 906  : 				 sizeof(CNode));
; 907  : 
; 908  : 		// chain them into free list
; 909  : 		CNode* pNode = (CNode*) pNewBlock->data();
; 910  : 		// free in reverse order to make it easier to debug
; 911  : 		pNode += m_nBlockSize - 1;

  00070	8b 56 18	 mov	 edx, DWORD PTR [esi+24]
  00073	83 c0 08	 add	 eax, 8
  00076	8b ca		 mov	 ecx, edx
  00078	c1 e1 04	 shl	 ecx, 4
  0007b	83 c1 f0	 add	 ecx, -16		; fffffff0H

; 912  : 		for (INT_PTR i = m_nBlockSize-1; i >= 0; i--, pNode--)

  0007e	8d 7a ff	 lea	 edi, DWORD PTR [edx-1]
  00081	03 c8		 add	 ecx, eax
  00083	85 ff		 test	 edi, edi
  00085	78 14		 js	 SHORT $LN43@CopyDouble
$LL19@CopyDouble:

; 913  : 		{
; 914  : 			pNode->pNext = m_pNodeFree;

  00087	8b 46 10	 mov	 eax, DWORD PTR [esi+16]
  0008a	8b d1		 mov	 edx, ecx
  0008c	89 01		 mov	 DWORD PTR [ecx], eax

; 915  : 			m_pNodeFree = pNode;

  0008e	89 4e 10	 mov	 DWORD PTR [esi+16], ecx
  00091	83 e9 10	 sub	 ecx, 16			; 00000010H
  00094	83 ef 01	 sub	 edi, 1
  00097	79 ee		 jns	 SHORT $LL19@CopyDouble
  00099	eb 03		 jmp	 SHORT $LN22@CopyDouble
$LN43@CopyDouble:
  0009b	8b 56 10	 mov	 edx, DWORD PTR [esi+16]
$LN22@CopyDouble:

; 918  : 	ENSURE(m_pNodeFree != NULL);  // we must have something

  0009e	85 d2		 test	 edx, edx
  000a0	74 48		 je	 SHORT $LN31@CopyDouble
  000a2	f2 0f 10 45 f8	 movsd	 xmm0, QWORD PTR _newElement$1$[ebp]
  000a7	8d 7e 14	 lea	 edi, DWORD PTR [esi+20]
  000aa	8b 4d 0c	 mov	 ecx, DWORD PTR $T1[ebp]
$LN42@CopyDouble:

; 919  : 
; 920  : 	CList::CNode* pNode = m_pNodeFree;
; 921  : 	m_pNodeFree = m_pNodeFree->pNext;

  000ad	8b 02		 mov	 eax, DWORD PTR [edx]
  000af	89 46 10	 mov	 DWORD PTR [esi+16], eax

; 922  : 	pNode->pPrev = pPrev;

  000b2	89 4a 04	 mov	 DWORD PTR [edx+4], ecx

; 923  : 	pNode->pNext = pNext;

  000b5	c7 02 00 00 00
	00		 mov	 DWORD PTR [edx], 0

; 924  : 	m_nCount++;

  000bb	ff 46 0c	 inc	 DWORD PTR [esi+12]

; 969  : 	pNewNode->data = newElement;

  000be	f2 0f 11 42 08	 movsd	 QWORD PTR [edx+8], xmm0

; 970  : 	if (m_pNodeTail != NULL)

  000c3	8b 46 08	 mov	 eax, DWORD PTR [esi+8]
  000c6	85 c0		 test	 eax, eax
  000c8	74 04		 je	 SHORT $LN13@CopyDouble

; 971  : 		m_pNodeTail->pNext = pNewNode;

  000ca	89 10		 mov	 DWORD PTR [eax], edx
  000cc	eb 03		 jmp	 SHORT $LN14@CopyDouble
$LN13@CopyDouble:

; 972  : 	else
; 973  : 		m_pNodeHead = pNewNode;

  000ce	89 56 04	 mov	 DWORD PTR [esi+4], edx
$LN14@CopyDouble:

; 974  : 	m_pNodeTail = pNewNode;

  000d1	89 56 08	 mov	 DWORD PTR [esi+8], edx
  000d4	8b ca		 mov	 ecx, edx
  000d6	89 55 0c	 mov	 DWORD PTR $T1[ebp], edx
; File D:\git\src\IBK\IBK_DRFN\ProjSrc\SrcChartEx\ChartOCX\IndicatorCondition\IndicatorInfoImplementation.cpp

; 607  : 	while(pos != NULL)

  000d9	85 db		 test	 ebx, ebx
  000db	0f 85 6f ff ff
	ff		 jne	 $LL2@CopyDouble
$LN45@CopyDouble:
  000e1	5f		 pop	 edi

; 611  : }

  000e2	5e		 pop	 esi
  000e3	5b		 pop	 ebx
  000e4	8b e5		 mov	 esp, ebp
  000e6	5d		 pop	 ebp
  000e7	c2 08 00	 ret	 8
$LN31@CopyDouble:
; File C:\Program Files (x86)\Microsoft Visual Studio\2019\Community\VC\Tools\MSVC\14.29.30133\atlmfc\include\afxtempl.h

; 918  : 	ENSURE(m_pNodeFree != NULL);  // we must have something

  000ea	e8 00 00 00 00	 call	 ?AfxThrowInvalidArgException@@YGXXZ ; AfxThrowInvalidArgException
$LN46@CopyDouble:
  000ef	cc		 int	 3
?CopyDoubleList@CIndicatorInfoImplementation@@AAEXABV?$CList@NN@@AAV2@@Z ENDP ; CIndicatorInfoImplementation::CopyDoubleList
_TEXT	ENDS
; Function compile flags: /Ogtp
; File D:\git\src\IBK\IBK_DRFN\ProjSrc\SrcChartEx\ChartOCX\IndicatorCondition\IndicatorInfoImplementation.cpp
; File D:\git\src\IBK\IBK_DRFN\ProjSrc\SrcChartEx\ChartOCX\Include_Chart\GraphData.h
; File D:\git\src\IBK\IBK_DRFN\ProjSrc\SrcChartEx\ChartOCX\IndicatorCondition\IndicatorInfoImplementation.cpp
; File C:\Program Files (x86)\Microsoft Visual Studio\2019\Community\VC\Tools\MSVC\14.29.30133\atlmfc\include\atlsimpstr.h
; File D:\git\src\IBK\IBK_DRFN\ProjSrc\SrcChartEx\ChartOCX\IndicatorCondition\IndicatorInfoImplementation.cpp
;	COMDAT ?CopyAllData@CIndicatorInfoImplementation@@AAEXPBV1@H@Z
_TEXT	SEGMENT
_pGraph$1$ = -28					; size = 4
$T2 = -24						; size = 4
$T3 = -24						; size = 4
_strGraphName$ = -20					; size = 4
_strItemName$ = -16					; size = 4
__$EHRec$ = -12						; size = 12
_pSourceData$ = 8					; size = 4
_p_bSameGraph$ = 12					; size = 4
?CopyAllData@CIndicatorInfoImplementation@@AAEXPBV1@H@Z PROC ; CIndicatorInfoImplementation::CopyAllData, COMDAT
; _this$ = ecx

; 570  : {

  00000	55		 push	 ebp
  00001	8b ec		 mov	 ebp, esp
  00003	6a ff		 push	 -1
  00005	68 00 00 00 00	 push	 __ehhandler$?CopyAllData@CIndicatorInfoImplementation@@AAEXPBV1@H@Z
  0000a	64 a1 00 00 00
	00		 mov	 eax, DWORD PTR fs:0
  00010	50		 push	 eax
  00011	83 ec 10	 sub	 esp, 16			; 00000010H
  00014	53		 push	 ebx
  00015	56		 push	 esi
  00016	57		 push	 edi
  00017	a1 00 00 00 00	 mov	 eax, DWORD PTR ___security_cookie
  0001c	33 c5		 xor	 eax, ebp
  0001e	50		 push	 eax
  0001f	8d 45 f4	 lea	 eax, DWORD PTR __$EHRec$[ebp]
  00022	64 a3 00 00 00
	00		 mov	 DWORD PTR fs:0, eax
  00028	8b f1		 mov	 esi, ecx

; 571  : 	CGraph *pGraph = NULL;
; 572  : 	CString strGraphName;

  0002a	8d 4d ec	 lea	 ecx, DWORD PTR _strGraphName$[ebp]
  0002d	c7 45 e4 00 00
	00 00		 mov	 DWORD PTR _pGraph$1$[ebp], 0
  00034	ff 15 00 00 00
	00		 call	 DWORD PTR __imp_??0?$CStringT@DV?$StrTraitMFC_DLL@DV?$ChTraitsCRT@D@ATL@@@@@ATL@@QAE@XZ

; 573  : 	CString strItemName;

  0003a	8d 4d f0	 lea	 ecx, DWORD PTR _strItemName$[ebp]
  0003d	c7 45 fc 00 00
	00 00		 mov	 DWORD PTR __$EHRec$[ebp+8], 0
  00044	ff 15 00 00 00
	00		 call	 DWORD PTR __imp_??0?$CStringT@DV?$StrTraitMFC_DLL@DV?$ChTraitsCRT@D@ATL@@@@@ATL@@QAE@XZ

; 574  : 	if( !p_bSameGraph)

  0004a	83 7d 0c 00	 cmp	 DWORD PTR _p_bSameGraph$[ebp], 0
  0004e	c6 45 fc 01	 mov	 BYTE PTR __$EHRec$[ebp+8], 1
  00052	75 78		 jne	 SHORT $LN3@CopyAllDat

; 575  : 	{
; 576  : 		pGraph = m_pGraph;

  00054	8b 86 90 00 00
	00		 mov	 eax, DWORD PTR [esi+144]

; 577  : 		strGraphName = m_graphPartData.GetGraphData().GetGraphName();

  0005a	8d 4e 08	 lea	 ecx, DWORD PTR [esi+8]
  0005d	89 45 e4	 mov	 DWORD PTR _pGraph$1$[ebp], eax
  00060	e8 00 00 00 00	 call	 ?GetGraphData@CGraphPartData@@QAEAAVCGraphData@@XZ ; CGraphPartData::GetGraphData
; File D:\git\src\IBK\IBK_DRFN\ProjSrc\SrcChartEx\ChartOCX\Include_Chart\GraphData.h

; 228  : 	CString			GetGraphName( void) const								{	return m_strGraphName;						}

  00065	83 c0 20	 add	 eax, 32			; 00000020H
  00068	8d 4d e8	 lea	 ecx, DWORD PTR $T3[ebp]
  0006b	50		 push	 eax
  0006c	ff 15 00 00 00
	00		 call	 DWORD PTR __imp_??0?$CStringT@DV?$StrTraitMFC_DLL@DV?$ChTraitsCRT@D@ATL@@@@@ATL@@QAE@ABV01@@Z
; File D:\git\src\IBK\IBK_DRFN\ProjSrc\SrcChartEx\ChartOCX\IndicatorCondition\IndicatorInfoImplementation.cpp

; 577  : 		strGraphName = m_graphPartData.GetGraphData().GetGraphName();

  00072	8d 45 e8	 lea	 eax, DWORD PTR $T3[ebp]
  00075	c6 45 fc 02	 mov	 BYTE PTR __$EHRec$[ebp+8], 2
  00079	50		 push	 eax
  0007a	8d 4d ec	 lea	 ecx, DWORD PTR _strGraphName$[ebp]
  0007d	ff 15 00 00 00
	00		 call	 DWORD PTR __imp_??4?$CStringT@DV?$StrTraitMFC_DLL@DV?$ChTraitsCRT@D@ATL@@@@@ATL@@QAEAAV01@ABV01@@Z
  00083	8d 4d e8	 lea	 ecx, DWORD PTR $T3[ebp]
  00086	c6 45 fc 01	 mov	 BYTE PTR __$EHRec$[ebp+8], 1
  0008a	ff 15 00 00 00
	00		 call	 DWORD PTR __imp_??1?$CStringT@DV?$StrTraitMFC_DLL@DV?$ChTraitsCRT@D@ATL@@@@@ATL@@QAE@XZ

; 578  : 		if( 0 < m_graphPartData.GetSubGraphPartDataCount())

  00090	8d 4e 08	 lea	 ecx, DWORD PTR [esi+8]
  00093	e8 00 00 00 00	 call	 ?GetSubGraphPartDataCount@CGraphPartData@@QBEHXZ ; CGraphPartData::GetSubGraphPartDataCount
  00098	85 c0		 test	 eax, eax
  0009a	7e 30		 jle	 SHORT $LN3@CopyAllDat

; 579  : 			strItemName = m_graphPartData.GetSubGraphData( 0)->GetItemName();

  0009c	8d 45 e8	 lea	 eax, DWORD PTR $T2[ebp]
  0009f	50		 push	 eax
  000a0	6a 00		 push	 0
  000a2	8d 4e 08	 lea	 ecx, DWORD PTR [esi+8]
  000a5	e8 00 00 00 00	 call	 ?GetSubGraphData@CGraphPartData@@QBEPAVCSubGraphData@@H@Z ; CGraphPartData::GetSubGraphData
  000aa	8b c8		 mov	 ecx, eax
  000ac	e8 00 00 00 00	 call	 ?GetItemName@CSubGraphDataBase@@QBE?AV?$CStringT@DV?$StrTraitMFC_DLL@DV?$ChTraitsCRT@D@ATL@@@@@ATL@@XZ ; CSubGraphDataBase::GetItemName
  000b1	50		 push	 eax
  000b2	8d 4d f0	 lea	 ecx, DWORD PTR _strItemName$[ebp]
  000b5	c6 45 fc 03	 mov	 BYTE PTR __$EHRec$[ebp+8], 3
  000b9	ff 15 00 00 00
	00		 call	 DWORD PTR __imp_??4?$CStringT@DV?$StrTraitMFC_DLL@DV?$ChTraitsCRT@D@ATL@@@@@ATL@@QAEAAV01@ABV01@@Z
  000bf	8d 4d e8	 lea	 ecx, DWORD PTR $T2[ebp]
  000c2	c6 45 fc 01	 mov	 BYTE PTR __$EHRec$[ebp+8], 1
  000c6	ff 15 00 00 00
	00		 call	 DWORD PTR __imp_??1?$CStringT@DV?$StrTraitMFC_DLL@DV?$ChTraitsCRT@D@ATL@@@@@ATL@@QAE@XZ
$LN3@CopyAllDat:

; 580  : 	}
; 581  : 
; 582  : 	Initialize();

  000cc	8b ce		 mov	 ecx, esi
  000ce	e8 00 00 00 00	 call	 ?Initialize@CIndicatorInfoImplementation@@QAEXXZ ; CIndicatorInfoImplementation::Initialize

; 583  : 	if(pSourceData == NULL) return;

  000d3	8b 7d 08	 mov	 edi, DWORD PTR _pSourceData$[ebp]
  000d6	85 ff		 test	 edi, edi
  000d8	0f 84 8b 00 00
	00		 je	 $LN6@CopyAllDat

; 584  : 	m_eIndicatorInfoType	= pSourceData->m_eIndicatorInfoType;

  000de	8b 47 04	 mov	 eax, DWORD PTR [edi+4]

; 585  : 	m_graphPartData			= pSourceData->GetGraphPartData();

  000e1	8d 4e 08	 lea	 ecx, DWORD PTR [esi+8]
  000e4	89 46 04	 mov	 DWORD PTR [esi+4], eax
  000e7	8d 47 08	 lea	 eax, DWORD PTR [edi+8]
  000ea	50		 push	 eax
  000eb	e8 00 00 00 00	 call	 ??4CGraphPartData@@QAEAAV0@ABV0@@Z ; CGraphPartData::operator=

; 586  :  	CopyDoubleList(pSourceData->GetCommonCalConditionList(), m_calConditionList);

  000f0	8d 46 3c	 lea	 eax, DWORD PTR [esi+60]
  000f3	8b ce		 mov	 ecx, esi
  000f5	50		 push	 eax
  000f6	8d 47 3c	 lea	 eax, DWORD PTR [edi+60]
  000f9	50		 push	 eax
  000fa	e8 00 00 00 00	 call	 ?CopyDoubleList@CIndicatorInfoImplementation@@AAEXABV?$CList@NN@@AAV2@@Z ; CIndicatorInfoImplementation::CopyDoubleList

; 587  : 	CopyDoubleList(pSourceData->GetDrawConditionList(), m_drawConditionList);

  000ff	8d 46 58	 lea	 eax, DWORD PTR [esi+88]
  00102	8b ce		 mov	 ecx, esi
  00104	50		 push	 eax
  00105	8d 47 58	 lea	 eax, DWORD PTR [edi+88]
  00108	50		 push	 eax
  00109	e8 00 00 00 00	 call	 ?CopyDoubleList@CIndicatorInfoImplementation@@AAEXABV?$CList@NN@@AAV2@@Z ; CIndicatorInfoImplementation::CopyDoubleList

; 588  : 	CopyDoubleList(pSourceData->GetBaseLineList(), m_baseLineList);

  0010e	8d 46 74	 lea	 eax, DWORD PTR [esi+116]
  00111	8b ce		 mov	 ecx, esi
  00113	50		 push	 eax
  00114	8d 47 74	 lea	 eax, DWORD PTR [edi+116]
  00117	50		 push	 eax
  00118	e8 00 00 00 00	 call	 ?CopyDoubleList@CIndicatorInfoImplementation@@AAEXABV?$CList@NN@@AAV2@@Z ; CIndicatorInfoImplementation::CopyDoubleList

; 589  : 	
; 590  : 	// CGraph :  - ojtaso (20070308)
; 591  : 	m_pGraph = const_cast<CIndicatorInfoImplementation*>(pSourceData)->GetGraph();
; 592  : 
; 593  : 	if( !p_bSameGraph)

  0011d	83 7d 0c 00	 cmp	 DWORD PTR _p_bSameGraph$[ebp], 0
  00121	8b 87 90 00 00
	00		 mov	 eax, DWORD PTR [edi+144]
  00127	89 86 90 00 00
	00		 mov	 DWORD PTR [esi+144], eax
  0012d	75 3a		 jne	 SHORT $LN6@CopyAllDat

; 594  : 	{
; 595  : 		m_pGraph = pGraph;

  0012f	8b 45 e4	 mov	 eax, DWORD PTR _pGraph$1$[ebp]

; 596  : 		( ( CGraphDataBase *)( &m_graphPartData.GetGraphData()))->SetGraphName( strGraphName);

  00132	8d 4e 08	 lea	 ecx, DWORD PTR [esi+8]
  00135	89 86 90 00 00
	00		 mov	 DWORD PTR [esi+144], eax
  0013b	e8 00 00 00 00	 call	 ?GetGraphData@CGraphPartData@@QAEAAVCGraphData@@XZ ; CGraphPartData::GetGraphData
  00140	8d 4d ec	 lea	 ecx, DWORD PTR _strGraphName$[ebp]
  00143	51		 push	 ecx
  00144	8b c8		 mov	 ecx, eax
  00146	8b 10		 mov	 edx, DWORD PTR [eax]
  00148	ff 52 04	 call	 DWORD PTR [edx+4]
; File C:\Program Files (x86)\Microsoft Visual Studio\2019\Community\VC\Tools\MSVC\14.29.30133\atlmfc\include\atlsimpstr.h

; 533  : 		return( GetLength() == 0 );

  0014b	8b 45 f0	 mov	 eax, DWORD PTR _strItemName$[ebp]
  0014e	83 78 f4 00	 cmp	 DWORD PTR [eax-12], 0
; File D:\git\src\IBK\IBK_DRFN\ProjSrc\SrcChartEx\ChartOCX\IndicatorCondition\IndicatorInfoImplementation.cpp

; 597  : 		if( !strItemName.IsEmpty())

  00152	74 15		 je	 SHORT $LN6@CopyAllDat

; 598  : 			m_graphPartData.GetSubGraphData( 0)->SetItemName( strItemName);

  00154	8d 45 f0	 lea	 eax, DWORD PTR _strItemName$[ebp]
  00157	50		 push	 eax
  00158	6a 00		 push	 0
  0015a	8d 4e 08	 lea	 ecx, DWORD PTR [esi+8]
  0015d	e8 00 00 00 00	 call	 ?GetSubGraphData@CGraphPartData@@QBEPAVCSubGraphData@@H@Z ; CGraphPartData::GetSubGraphData
  00162	8b c8		 mov	 ecx, eax
  00164	e8 00 00 00 00	 call	 ?SetItemName@CSubGraphDataBase@@QAEXABV?$CStringT@DV?$StrTraitMFC_DLL@DV?$ChTraitsCRT@D@ATL@@@@@ATL@@@Z ; CSubGraphDataBase::SetItemName
$LN6@CopyAllDat:

; 599  : 	}
; 600  : }

  00169	8d 4d f0	 lea	 ecx, DWORD PTR _strItemName$[ebp]
  0016c	ff 15 00 00 00
	00		 call	 DWORD PTR __imp_??1?$CStringT@DV?$StrTraitMFC_DLL@DV?$ChTraitsCRT@D@ATL@@@@@ATL@@QAE@XZ
  00172	8d 4d ec	 lea	 ecx, DWORD PTR _strGraphName$[ebp]
  00175	ff 15 00 00 00
	00		 call	 DWORD PTR __imp_??1?$CStringT@DV?$StrTraitMFC_DLL@DV?$ChTraitsCRT@D@ATL@@@@@ATL@@QAE@XZ
  0017b	8b 4d f4	 mov	 ecx, DWORD PTR __$EHRec$[ebp]
  0017e	64 89 0d 00 00
	00 00		 mov	 DWORD PTR fs:0, ecx
  00185	59		 pop	 ecx
  00186	5f		 pop	 edi
  00187	5e		 pop	 esi
  00188	5b		 pop	 ebx
  00189	8b e5		 mov	 esp, ebp
  0018b	5d		 pop	 ebp
  0018c	c2 08 00	 ret	 8
_TEXT	ENDS
;	COMDAT text$x
text$x	SEGMENT
__unwindfunclet$?CopyAllData@CIndicatorInfoImplementation@@AAEXPBV1@H@Z$0:
  00000	8d 4d ec	 lea	 ecx, DWORD PTR _strGraphName$[ebp]
  00003	ff 25 00 00 00
	00		 jmp	 DWORD PTR __imp_??1?$CStringT@DV?$StrTraitMFC_DLL@DV?$ChTraitsCRT@D@ATL@@@@@ATL@@QAE@XZ
__unwindfunclet$?CopyAllData@CIndicatorInfoImplementation@@AAEXPBV1@H@Z$1:
  00009	8d 4d f0	 lea	 ecx, DWORD PTR _strItemName$[ebp]
  0000c	ff 25 00 00 00
	00		 jmp	 DWORD PTR __imp_??1?$CStringT@DV?$StrTraitMFC_DLL@DV?$ChTraitsCRT@D@ATL@@@@@ATL@@QAE@XZ
__unwindfunclet$?CopyAllData@CIndicatorInfoImplementation@@AAEXPBV1@H@Z$2:
  00012	8d 4d e8	 lea	 ecx, DWORD PTR $T3[ebp]
  00015	ff 25 00 00 00
	00		 jmp	 DWORD PTR __imp_??1?$CStringT@DV?$StrTraitMFC_DLL@DV?$ChTraitsCRT@D@ATL@@@@@ATL@@QAE@XZ
__unwindfunclet$?CopyAllData@CIndicatorInfoImplementation@@AAEXPBV1@H@Z$3:
  0001b	8d 4d e8	 lea	 ecx, DWORD PTR $T2[ebp]
  0001e	ff 25 00 00 00
	00		 jmp	 DWORD PTR __imp_??1?$CStringT@DV?$StrTraitMFC_DLL@DV?$ChTraitsCRT@D@ATL@@@@@ATL@@QAE@XZ
  00024	cc		 int	 3
  00025	cc		 int	 3
  00026	cc		 int	 3
  00027	cc		 int	 3
  00028	cc		 int	 3
__ehhandler$?CopyAllData@CIndicatorInfoImplementation@@AAEXPBV1@H@Z:
  00029	90		 npad	 1
  0002a	90		 npad	 1
  0002b	8b 54 24 08	 mov	 edx, DWORD PTR [esp+8]
  0002f	8d 42 0c	 lea	 eax, DWORD PTR [edx+12]
  00032	8b 4a e0	 mov	 ecx, DWORD PTR [edx-32]
  00035	33 c8		 xor	 ecx, eax
  00037	e8 00 00 00 00	 call	 @__security_check_cookie@4
  0003c	b8 00 00 00 00	 mov	 eax, OFFSET __ehfuncinfo$?CopyAllData@CIndicatorInfoImplementation@@AAEXPBV1@H@Z
  00041	e9 00 00 00 00	 jmp	 ___CxxFrameHandler3
text$x	ENDS
?CopyAllData@CIndicatorInfoImplementation@@AAEXPBV1@H@Z ENDP ; CIndicatorInfoImplementation::CopyAllData
; Function compile flags: /Ogtp
; File D:\git\src\IBK\IBK_DRFN\ProjSrc\SrcChartEx\ChartOCX\IndicatorCondition\IndicatorInfoImplementation.cpp
; File C:\Program Files (x86)\Microsoft Visual Studio\2019\Community\VC\Tools\MSVC\14.29.30133\atlmfc\include\afxtempl.h
; File D:\git\src\IBK\IBK_DRFN\ProjSrc\SrcChartEx\ChartOCX\IndicatorCondition\IndicatorInfoImplementation.cpp
; File C:\Program Files (x86)\Microsoft Visual Studio\2019\Community\VC\Tools\MSVC\14.29.30133\atlmfc\include\afxtempl.h
; File D:\git\src\IBK\IBK_DRFN\ProjSrc\SrcChartEx\ChartOCX\IndicatorCondition\IndicatorInfoImplementation.cpp
;	COMDAT ??1CIndicatorInfoImplementation@@UAE@XZ
_TEXT	SEGMENT
__$EHRec$ = -12						; size = 12
??1CIndicatorInfoImplementation@@UAE@XZ PROC		; CIndicatorInfoImplementation::~CIndicatorInfoImplementation, COMDAT
; _this$ = ecx

; 41   : {

  00000	55		 push	 ebp
  00001	8b ec		 mov	 ebp, esp
  00003	6a ff		 push	 -1
  00005	68 00 00 00 00	 push	 __ehhandler$??1CIndicatorInfoImplementation@@UAE@XZ
  0000a	64 a1 00 00 00
	00		 mov	 eax, DWORD PTR fs:0
  00010	50		 push	 eax
  00011	56		 push	 esi
  00012	a1 00 00 00 00	 mov	 eax, DWORD PTR ___security_cookie
  00017	33 c5		 xor	 eax, ebp
  00019	50		 push	 eax
  0001a	8d 45 f4	 lea	 eax, DWORD PTR __$EHRec$[ebp]
  0001d	64 a3 00 00 00
	00		 mov	 DWORD PTR fs:0, eax
  00023	8b f1		 mov	 esi, ecx

; 42   : 	//   :  - ojtaso (20070514)
; 43   : 	if(m_lpszLoadedRQ)

  00025	8b 86 94 00 00
	00		 mov	 eax, DWORD PTR [esi+148]
  0002b	c7 06 00 00 00
	00		 mov	 DWORD PTR [esi], OFFSET ??_7CIndicatorInfoImplementation@@6B@
  00031	85 c0		 test	 eax, eax
  00033	74 0a		 je	 SHORT $LN2@CIndicator

; 44   : 		::free(m_lpszLoadedRQ);

  00035	50		 push	 eax
  00036	ff 15 00 00 00
	00		 call	 DWORD PTR __imp__free
  0003c	83 c4 04	 add	 esp, 4
$LN2@CIndicator:
; File C:\Program Files (x86)\Microsoft Visual Studio\2019\Community\VC\Tools\MSVC\14.29.30133\atlmfc\include\afxtempl.h

; 872  : 	m_pBlocks->FreeDataChain();

  0003f	8b 8e 88 00 00
	00		 mov	 ecx, DWORD PTR [esi+136]

; 878  : {

  00045	c7 45 fc 00 00
	00 00		 mov	 DWORD PTR __$EHRec$[ebp+8], 0
  0004c	c7 46 74 00 00
	00 00		 mov	 DWORD PTR [esi+116], OFFSET ??_7?$CList@NN@@6B@

; 870  : 	m_nCount = 0;

  00053	c7 86 80 00 00
	00 00 00 00 00	 mov	 DWORD PTR [esi+128], 0

; 871  : 	m_pNodeHead = m_pNodeTail = m_pNodeFree = NULL;

  0005d	c7 86 84 00 00
	00 00 00 00 00	 mov	 DWORD PTR [esi+132], 0
  00067	c7 46 7c 00 00
	00 00		 mov	 DWORD PTR [esi+124], 0
  0006e	c7 46 78 00 00
	00 00		 mov	 DWORD PTR [esi+120], 0

; 872  : 	m_pBlocks->FreeDataChain();

  00075	e8 00 00 00 00	 call	 ?FreeDataChain@CPlex@@QAEXXZ ; CPlex::FreeDataChain

; 873  : 	m_pBlocks = NULL;

  0007a	c7 86 88 00 00
	00 00 00 00 00	 mov	 DWORD PTR [esi+136], 0

; 872  : 	m_pBlocks->FreeDataChain();

  00084	8b 4e 6c	 mov	 ecx, DWORD PTR [esi+108]

; 878  : {

  00087	c7 45 fc 01 00
	00 00		 mov	 DWORD PTR __$EHRec$[ebp+8], 1
  0008e	c7 46 58 00 00
	00 00		 mov	 DWORD PTR [esi+88], OFFSET ??_7?$CList@NN@@6B@

; 870  : 	m_nCount = 0;

  00095	c7 46 64 00 00
	00 00		 mov	 DWORD PTR [esi+100], 0

; 871  : 	m_pNodeHead = m_pNodeTail = m_pNodeFree = NULL;

  0009c	c7 46 68 00 00
	00 00		 mov	 DWORD PTR [esi+104], 0
  000a3	c7 46 60 00 00
	00 00		 mov	 DWORD PTR [esi+96], 0
  000aa	c7 46 5c 00 00
	00 00		 mov	 DWORD PTR [esi+92], 0

; 872  : 	m_pBlocks->FreeDataChain();

  000b1	e8 00 00 00 00	 call	 ?FreeDataChain@CPlex@@QAEXXZ ; CPlex::FreeDataChain

; 873  : 	m_pBlocks = NULL;

  000b6	c7 46 6c 00 00
	00 00		 mov	 DWORD PTR [esi+108], 0

; 872  : 	m_pBlocks->FreeDataChain();

  000bd	8b 4e 50	 mov	 ecx, DWORD PTR [esi+80]

; 878  : {

  000c0	c7 45 fc 02 00
	00 00		 mov	 DWORD PTR __$EHRec$[ebp+8], 2
  000c7	c7 46 3c 00 00
	00 00		 mov	 DWORD PTR [esi+60], OFFSET ??_7?$CList@NN@@6B@

; 870  : 	m_nCount = 0;

  000ce	c7 46 48 00 00
	00 00		 mov	 DWORD PTR [esi+72], 0

; 871  : 	m_pNodeHead = m_pNodeTail = m_pNodeFree = NULL;

  000d5	c7 46 4c 00 00
	00 00		 mov	 DWORD PTR [esi+76], 0
  000dc	c7 46 44 00 00
	00 00		 mov	 DWORD PTR [esi+68], 0
  000e3	c7 46 40 00 00
	00 00		 mov	 DWORD PTR [esi+64], 0

; 872  : 	m_pBlocks->FreeDataChain();

  000ea	e8 00 00 00 00	 call	 ?FreeDataChain@CPlex@@QAEXXZ ; CPlex::FreeDataChain
; File D:\git\src\IBK\IBK_DRFN\ProjSrc\SrcChartEx\ChartOCX\IndicatorCondition\IndicatorInfoImplementation.cpp

; 45   : }

  000ef	8d 4e 08	 lea	 ecx, DWORD PTR [esi+8]
; File C:\Program Files (x86)\Microsoft Visual Studio\2019\Community\VC\Tools\MSVC\14.29.30133\atlmfc\include\afxtempl.h

; 873  : 	m_pBlocks = NULL;

  000f2	c7 46 50 00 00
	00 00		 mov	 DWORD PTR [esi+80], 0
; File D:\git\src\IBK\IBK_DRFN\ProjSrc\SrcChartEx\ChartOCX\IndicatorCondition\IndicatorInfoImplementation.cpp

; 45   : }

  000f9	e8 00 00 00 00	 call	 ??1CGraphPartData@@UAE@XZ ; CGraphPartData::~CGraphPartData
  000fe	8b 4d f4	 mov	 ecx, DWORD PTR __$EHRec$[ebp]
  00101	64 89 0d 00 00
	00 00		 mov	 DWORD PTR fs:0, ecx
  00108	59		 pop	 ecx
  00109	5e		 pop	 esi
  0010a	8b e5		 mov	 esp, ebp
  0010c	5d		 pop	 ebp
  0010d	c3		 ret	 0
  0010e	cc		 int	 3
  0010f	cc		 int	 3
  00110	cc		 int	 3
  00111	cc		 int	 3
  00112	cc		 int	 3
_TEXT	ENDS
;	COMDAT text$x
text$x	SEGMENT
__ehhandler$??1CIndicatorInfoImplementation@@UAE@XZ:
  00000	90		 npad	 1
  00001	90		 npad	 1
  00002	8b 54 24 08	 mov	 edx, DWORD PTR [esp+8]
  00006	8d 42 0c	 lea	 eax, DWORD PTR [edx+12]
  00009	8b 4a f8	 mov	 ecx, DWORD PTR [edx-8]
  0000c	33 c8		 xor	 ecx, eax
  0000e	e8 00 00 00 00	 call	 @__security_check_cookie@4
  00013	b8 00 00 00 00	 mov	 eax, OFFSET __ehfuncinfo$??1CIndicatorInfoImplementation@@UAE@XZ
  00018	e9 00 00 00 00	 jmp	 ___CxxFrameHandler3
text$x	ENDS
??1CIndicatorInfoImplementation@@UAE@XZ ENDP		; CIndicatorInfoImplementation::~CIndicatorInfoImplementation
; Function compile flags: /Ogtp
; File D:\git\src\IBK\IBK_DRFN\ProjSrc\SrcChartEx\ChartOCX\IndicatorCondition\IndicatorInfoImplementation.cpp
; File C:\Program Files (x86)\Microsoft Visual Studio\2019\Community\VC\Tools\MSVC\14.29.30133\atlmfc\include\afxtempl.h
; File D:\git\src\IBK\IBK_DRFN\ProjSrc\SrcChartEx\ChartOCX\IndicatorCondition\IndicatorInfoImplementation.cpp
; File C:\Program Files (x86)\Microsoft Visual Studio\2019\Community\VC\Tools\MSVC\14.29.30133\atlmfc\include\afxtempl.h
; File D:\git\src\IBK\IBK_DRFN\ProjSrc\SrcChartEx\ChartOCX\IndicatorCondition\IndicatorInfoImplementation.cpp
; File C:\Program Files (x86)\Microsoft Visual Studio\2019\Community\VC\Tools\MSVC\14.29.30133\atlmfc\include\afxtempl.h
; File D:\git\src\IBK\IBK_DRFN\ProjSrc\SrcChartEx\ChartOCX\IndicatorCondition\IndicatorInfoImplementation.cpp
; File C:\Program Files (x86)\Microsoft Visual Studio\2019\Community\VC\Tools\MSVC\14.29.30133\atlmfc\include\afxtempl.h
; File D:\git\src\IBK\IBK_DRFN\ProjSrc\SrcChartEx\ChartOCX\IndicatorCondition\IndicatorInfoImplementation.cpp
; File C:\Program Files (x86)\Microsoft Visual Studio\2019\Community\VC\Tools\MSVC\14.29.30133\atlmfc\include\afxtempl.h
; File D:\git\src\IBK\IBK_DRFN\ProjSrc\SrcChartEx\ChartOCX\IndicatorCondition\IndicatorInfoImplementation.cpp
;	COMDAT ??0CIndicatorInfoImplementation@@QAE@PBV0@@Z
_TEXT	SEGMENT
_this$ = -24						; size = 4
_strGraphName$2 = -20					; size = 4
_strItemName$3 = -16					; size = 4
__$EHRec$ = -12						; size = 12
_pDefaultIndiInfoImpl$ = 8				; size = 4
??0CIndicatorInfoImplementation@@QAE@PBV0@@Z PROC	; CIndicatorInfoImplementation::CIndicatorInfoImplementation, COMDAT
; _this$ = ecx

; 33   : {

  00000	55		 push	 ebp
  00001	8b ec		 mov	 ebp, esp
  00003	6a ff		 push	 -1
  00005	68 00 00 00 00	 push	 __ehhandler$??0CIndicatorInfoImplementation@@QAE@PBV0@@Z
  0000a	64 a1 00 00 00
	00		 mov	 eax, DWORD PTR fs:0
  00010	50		 push	 eax
  00011	83 ec 0c	 sub	 esp, 12			; 0000000cH
  00014	53		 push	 ebx
  00015	56		 push	 esi
  00016	57		 push	 edi
  00017	a1 00 00 00 00	 mov	 eax, DWORD PTR ___security_cookie
  0001c	33 c5		 xor	 eax, ebp
  0001e	50		 push	 eax
  0001f	8d 45 f4	 lea	 eax, DWORD PTR __$EHRec$[ebp]
  00022	64 a3 00 00 00
	00		 mov	 DWORD PTR fs:0, eax
  00028	8b f1		 mov	 esi, ecx
  0002a	89 75 e8	 mov	 DWORD PTR _this$[ebp], esi
  0002d	8d 4e 08	 lea	 ecx, DWORD PTR [esi+8]
  00030	c7 06 00 00 00
	00		 mov	 DWORD PTR [esi], OFFSET ??_7CIndicatorInfoImplementation@@6B@
  00036	e8 00 00 00 00	 call	 ??0CGraphPartData@@QAE@XZ ; CGraphPartData::CGraphPartData
  0003b	8d 7e 3c	 lea	 edi, DWORD PTR [esi+60]
  0003e	c7 45 fc 00 00
	00 00		 mov	 DWORD PTR __$EHRec$[ebp+8], 0
; File C:\Program Files (x86)\Microsoft Visual Studio\2019\Community\VC\Tools\MSVC\14.29.30133\atlmfc\include\afxtempl.h

; 851  : {

  00045	c7 07 00 00 00
	00		 mov	 DWORD PTR [edi], OFFSET ??_7?$CList@NN@@6B@

; 852  : 	ASSERT(nBlockSize > 0);
; 853  : 
; 854  : 	m_nCount = 0;

  0004b	c7 47 0c 00 00
	00 00		 mov	 DWORD PTR [edi+12], 0

; 855  : 	m_pNodeHead = m_pNodeTail = m_pNodeFree = NULL;

  00052	c7 47 10 00 00
	00 00		 mov	 DWORD PTR [edi+16], 0
  00059	c7 47 08 00 00
	00 00		 mov	 DWORD PTR [edi+8], 0
  00060	c7 47 04 00 00
	00 00		 mov	 DWORD PTR [edi+4], 0

; 856  : 	m_pBlocks = NULL;

  00067	c7 47 14 00 00
	00 00		 mov	 DWORD PTR [edi+20], 0

; 857  : 	m_nBlockSize = nBlockSize;

  0006e	c7 47 18 0a 00
	00 00		 mov	 DWORD PTR [edi+24], 10	; 0000000aH
; File D:\git\src\IBK\IBK_DRFN\ProjSrc\SrcChartEx\ChartOCX\IndicatorCondition\IndicatorInfoImplementation.cpp

; 33   : {

  00075	8d 5e 58	 lea	 ebx, DWORD PTR [esi+88]
; File C:\Program Files (x86)\Microsoft Visual Studio\2019\Community\VC\Tools\MSVC\14.29.30133\atlmfc\include\afxtempl.h

; 851  : {

  00078	c7 03 00 00 00
	00		 mov	 DWORD PTR [ebx], OFFSET ??_7?$CList@NN@@6B@

; 852  : 	ASSERT(nBlockSize > 0);
; 853  : 
; 854  : 	m_nCount = 0;

  0007e	c7 43 0c 00 00
	00 00		 mov	 DWORD PTR [ebx+12], 0

; 855  : 	m_pNodeHead = m_pNodeTail = m_pNodeFree = NULL;

  00085	c7 43 10 00 00
	00 00		 mov	 DWORD PTR [ebx+16], 0
  0008c	c7 43 08 00 00
	00 00		 mov	 DWORD PTR [ebx+8], 0
  00093	c7 43 04 00 00
	00 00		 mov	 DWORD PTR [ebx+4], 0

; 856  : 	m_pBlocks = NULL;

  0009a	c7 43 14 00 00
	00 00		 mov	 DWORD PTR [ebx+20], 0

; 857  : 	m_nBlockSize = nBlockSize;

  000a1	c7 43 18 0a 00
	00 00		 mov	 DWORD PTR [ebx+24], 10	; 0000000aH

; 851  : {

  000a8	c7 46 74 00 00
	00 00		 mov	 DWORD PTR [esi+116], OFFSET ??_7?$CList@NN@@6B@

; 852  : 	ASSERT(nBlockSize > 0);
; 853  : 
; 854  : 	m_nCount = 0;

  000af	c7 86 80 00 00
	00 00 00 00 00	 mov	 DWORD PTR [esi+128], 0

; 855  : 	m_pNodeHead = m_pNodeTail = m_pNodeFree = NULL;

  000b9	c7 86 84 00 00
	00 00 00 00 00	 mov	 DWORD PTR [esi+132], 0
  000c3	c7 46 7c 00 00
	00 00		 mov	 DWORD PTR [esi+124], 0
  000ca	c7 46 78 00 00
	00 00		 mov	 DWORD PTR [esi+120], 0

; 856  : 	m_pBlocks = NULL;

  000d1	c7 86 88 00 00
	00 00 00 00 00	 mov	 DWORD PTR [esi+136], 0

; 857  : 	m_nBlockSize = nBlockSize;

  000db	c7 86 8c 00 00
	00 0a 00 00 00	 mov	 DWORD PTR [esi+140], 10	; 0000000aH
; File D:\git\src\IBK\IBK_DRFN\ProjSrc\SrcChartEx\ChartOCX\IndicatorCondition\IndicatorInfoImplementation.cpp

; 572  : 	CString strGraphName;

  000e5	8d 4d ec	 lea	 ecx, DWORD PTR _strGraphName$2[ebp]
  000e8	ff 15 00 00 00
	00		 call	 DWORD PTR __imp_??0?$CStringT@DV?$StrTraitMFC_DLL@DV?$ChTraitsCRT@D@ATL@@@@@ATL@@QAE@XZ

; 573  : 	CString strItemName;

  000ee	8d 4d f0	 lea	 ecx, DWORD PTR _strItemName$3[ebp]
  000f1	ff 15 00 00 00
	00		 call	 DWORD PTR __imp_??0?$CStringT@DV?$StrTraitMFC_DLL@DV?$ChTraitsCRT@D@ATL@@@@@ATL@@QAE@XZ

; 68   : 	m_graphPartData.Initialize();

  000f7	8d 4e 08	 lea	 ecx, DWORD PTR [esi+8]

; 573  : 	CString strItemName;

  000fa	c6 45 fc 05	 mov	 BYTE PTR __$EHRec$[ebp+8], 5

; 68   : 	m_graphPartData.Initialize();

  000fe	e8 00 00 00 00	 call	 ?Initialize@CGraphPartData@@QAEXXZ ; CGraphPartData::Initialize

; 79   : 	if(m_calConditionList.GetCount() <= 0)

  00103	83 7e 48 00	 cmp	 DWORD PTR [esi+72], 0
  00107	7e 2b		 jle	 SHORT $LN30@CIndicator
; File C:\Program Files (x86)\Microsoft Visual Studio\2019\Community\VC\Tools\MSVC\14.29.30133\atlmfc\include\afxtempl.h

; 872  : 	m_pBlocks->FreeDataChain();

  00109	8b 4f 14	 mov	 ecx, DWORD PTR [edi+20]
  0010c	c7 47 0c 00 00
	00 00		 mov	 DWORD PTR [edi+12], 0
  00113	c7 47 10 00 00
	00 00		 mov	 DWORD PTR [edi+16], 0
  0011a	c7 47 08 00 00
	00 00		 mov	 DWORD PTR [edi+8], 0
  00121	c7 47 04 00 00
	00 00		 mov	 DWORD PTR [edi+4], 0
  00128	e8 00 00 00 00	 call	 ?FreeDataChain@CPlex@@QAEXXZ ; CPlex::FreeDataChain

; 873  : 	m_pBlocks = NULL;

  0012d	c7 47 14 00 00
	00 00		 mov	 DWORD PTR [edi+20], 0
$LN30@CIndicator:
; File D:\git\src\IBK\IBK_DRFN\ProjSrc\SrcChartEx\ChartOCX\IndicatorCondition\IndicatorInfoImplementation.cpp

; 88   : 	if(m_drawConditionList.GetCount() <= 0)

  00134	83 7e 64 00	 cmp	 DWORD PTR [esi+100], 0
  00138	7e 2b		 jle	 SHORT $LN38@CIndicator
; File C:\Program Files (x86)\Microsoft Visual Studio\2019\Community\VC\Tools\MSVC\14.29.30133\atlmfc\include\afxtempl.h

; 872  : 	m_pBlocks->FreeDataChain();

  0013a	8b 4b 14	 mov	 ecx, DWORD PTR [ebx+20]
  0013d	c7 43 0c 00 00
	00 00		 mov	 DWORD PTR [ebx+12], 0
  00144	c7 43 10 00 00
	00 00		 mov	 DWORD PTR [ebx+16], 0
  0014b	c7 43 08 00 00
	00 00		 mov	 DWORD PTR [ebx+8], 0
  00152	c7 43 04 00 00
	00 00		 mov	 DWORD PTR [ebx+4], 0
  00159	e8 00 00 00 00	 call	 ?FreeDataChain@CPlex@@QAEXXZ ; CPlex::FreeDataChain

; 873  : 	m_pBlocks = NULL;

  0015e	c7 43 14 00 00
	00 00		 mov	 DWORD PTR [ebx+20], 0
$LN38@CIndicator:
; File D:\git\src\IBK\IBK_DRFN\ProjSrc\SrcChartEx\ChartOCX\IndicatorCondition\IndicatorInfoImplementation.cpp

; 97   : 	if(m_baseLineList.GetCount() <= 0)

  00165	83 be 80 00 00
	00 00		 cmp	 DWORD PTR [esi+128], 0
  0016c	7e 37		 jle	 SHORT $LN46@CIndicator
; File C:\Program Files (x86)\Microsoft Visual Studio\2019\Community\VC\Tools\MSVC\14.29.30133\atlmfc\include\afxtempl.h

; 872  : 	m_pBlocks->FreeDataChain();

  0016e	8b 8e 88 00 00
	00		 mov	 ecx, DWORD PTR [esi+136]
  00174	c7 86 80 00 00
	00 00 00 00 00	 mov	 DWORD PTR [esi+128], 0
  0017e	c7 86 84 00 00
	00 00 00 00 00	 mov	 DWORD PTR [esi+132], 0
  00188	c7 46 7c 00 00
	00 00		 mov	 DWORD PTR [esi+124], 0
  0018f	c7 46 78 00 00
	00 00		 mov	 DWORD PTR [esi+120], 0
  00196	e8 00 00 00 00	 call	 ?FreeDataChain@CPlex@@QAEXXZ ; CPlex::FreeDataChain

; 873  : 	m_pBlocks = NULL;

  0019b	c7 86 88 00 00
	00 00 00 00 00	 mov	 DWORD PTR [esi+136], 0
$LN46@CIndicator:
; File D:\git\src\IBK\IBK_DRFN\ProjSrc\SrcChartEx\ChartOCX\IndicatorCondition\IndicatorInfoImplementation.cpp

; 583  : 	if(pSourceData == NULL) return;

  001a5	8b 4d 08	 mov	 ecx, DWORD PTR _pDefaultIndiInfoImpl$[ebp]

; 74   : 	m_pGraph = NULL;

  001a8	c7 86 90 00 00
	00 00 00 00 00	 mov	 DWORD PTR [esi+144], 0

; 583  : 	if(pSourceData == NULL) return;

  001b2	85 c9		 test	 ecx, ecx
  001b4	74 48		 je	 SHORT $LN76@CIndicator

; 584  : 	m_eIndicatorInfoType	= pSourceData->m_eIndicatorInfoType;

  001b6	8b 41 04	 mov	 eax, DWORD PTR [ecx+4]
  001b9	89 46 04	 mov	 DWORD PTR [esi+4], eax

; 585  : 	m_graphPartData			= pSourceData->GetGraphPartData();

  001bc	8d 41 08	 lea	 eax, DWORD PTR [ecx+8]
  001bf	50		 push	 eax
  001c0	8d 4e 08	 lea	 ecx, DWORD PTR [esi+8]
  001c3	e8 00 00 00 00	 call	 ??4CGraphPartData@@QAEAAV0@ABV0@@Z ; CGraphPartData::operator=

; 586  :  	CopyDoubleList(pSourceData->GetCommonCalConditionList(), m_calConditionList);

  001c8	57		 push	 edi
  001c9	8b 7d 08	 mov	 edi, DWORD PTR _pDefaultIndiInfoImpl$[ebp]
  001cc	8b ce		 mov	 ecx, esi
  001ce	8d 47 3c	 lea	 eax, DWORD PTR [edi+60]
  001d1	50		 push	 eax
  001d2	e8 00 00 00 00	 call	 ?CopyDoubleList@CIndicatorInfoImplementation@@AAEXABV?$CList@NN@@AAV2@@Z ; CIndicatorInfoImplementation::CopyDoubleList

; 587  : 	CopyDoubleList(pSourceData->GetDrawConditionList(), m_drawConditionList);

  001d7	53		 push	 ebx
  001d8	8d 47 58	 lea	 eax, DWORD PTR [edi+88]
  001db	8b ce		 mov	 ecx, esi
  001dd	50		 push	 eax
  001de	e8 00 00 00 00	 call	 ?CopyDoubleList@CIndicatorInfoImplementation@@AAEXABV?$CList@NN@@AAV2@@Z ; CIndicatorInfoImplementation::CopyDoubleList

; 588  : 	CopyDoubleList(pSourceData->GetBaseLineList(), m_baseLineList);

  001e3	8d 46 74	 lea	 eax, DWORD PTR [esi+116]
  001e6	8b ce		 mov	 ecx, esi
  001e8	50		 push	 eax
  001e9	8d 47 74	 lea	 eax, DWORD PTR [edi+116]
  001ec	50		 push	 eax
  001ed	e8 00 00 00 00	 call	 ?CopyDoubleList@CIndicatorInfoImplementation@@AAEXABV?$CList@NN@@AAV2@@Z ; CIndicatorInfoImplementation::CopyDoubleList

; 589  : 	
; 590  : 	// CGraph :  - ojtaso (20070308)
; 591  : 	m_pGraph = const_cast<CIndicatorInfoImplementation*>(pSourceData)->GetGraph();

  001f2	8b 87 90 00 00
	00		 mov	 eax, DWORD PTR [edi+144]
  001f8	89 86 90 00 00
	00		 mov	 DWORD PTR [esi+144], eax
$LN76@CIndicator:

; 34   : 	CopyAllData( pDefaultIndiInfoImpl);
; 35   : 	
; 36   : 	//   :  - ojtaso (20070514)
; 37   : 	m_lpszLoadedRQ = NULL;
; 38   : }

  001fe	8d 4d f0	 lea	 ecx, DWORD PTR _strItemName$3[ebp]
  00201	ff 15 00 00 00
	00		 call	 DWORD PTR __imp_??1?$CStringT@DV?$StrTraitMFC_DLL@DV?$ChTraitsCRT@D@ATL@@@@@ATL@@QAE@XZ
  00207	8d 4d ec	 lea	 ecx, DWORD PTR _strGraphName$2[ebp]
  0020a	ff 15 00 00 00
	00		 call	 DWORD PTR __imp_??1?$CStringT@DV?$StrTraitMFC_DLL@DV?$ChTraitsCRT@D@ATL@@@@@ATL@@QAE@XZ
  00210	8b c6		 mov	 eax, esi
  00212	c7 86 94 00 00
	00 00 00 00 00	 mov	 DWORD PTR [esi+148], 0
  0021c	8b 4d f4	 mov	 ecx, DWORD PTR __$EHRec$[ebp]
  0021f	64 89 0d 00 00
	00 00		 mov	 DWORD PTR fs:0, ecx
  00226	59		 pop	 ecx
  00227	5f		 pop	 edi
  00228	5e		 pop	 esi
  00229	5b		 pop	 ebx
  0022a	8b e5		 mov	 esp, ebp
  0022c	5d		 pop	 ebp
  0022d	c2 04 00	 ret	 4
_TEXT	ENDS
;	COMDAT text$x
text$x	SEGMENT
__unwindfunclet$??0CIndicatorInfoImplementation@@QAE@PBV0@@Z$0:
  00000	8b 4d e8	 mov	 ecx, DWORD PTR _this$[ebp]
  00003	83 c1 08	 add	 ecx, 8
  00006	e9 00 00 00 00	 jmp	 ??1CGraphPartData@@UAE@XZ ; CGraphPartData::~CGraphPartData
__unwindfunclet$??0CIndicatorInfoImplementation@@QAE@PBV0@@Z$1:
  0000b	8b 4d e8	 mov	 ecx, DWORD PTR _this$[ebp]
  0000e	83 c1 3c	 add	 ecx, 60			; 0000003cH
  00011	e9 00 00 00 00	 jmp	 ??1?$CList@NN@@UAE@XZ	; CList<double,double>::~CList<double,double>
__unwindfunclet$??0CIndicatorInfoImplementation@@QAE@PBV0@@Z$2:
  00016	8b 4d e8	 mov	 ecx, DWORD PTR _this$[ebp]
  00019	83 c1 58	 add	 ecx, 88			; 00000058H
  0001c	e9 00 00 00 00	 jmp	 ??1?$CList@NN@@UAE@XZ	; CList<double,double>::~CList<double,double>
__unwindfunclet$??0CIndicatorInfoImplementation@@QAE@PBV0@@Z$3:
  00021	8b 4d e8	 mov	 ecx, DWORD PTR _this$[ebp]
  00024	83 c1 74	 add	 ecx, 116		; 00000074H
  00027	e9 00 00 00 00	 jmp	 ??1?$CList@NN@@UAE@XZ	; CList<double,double>::~CList<double,double>
__unwindfunclet$??0CIndicatorInfoImplementation@@QAE@PBV0@@Z$4:
  0002c	8d 4d ec	 lea	 ecx, DWORD PTR _strGraphName$2[ebp]
  0002f	ff 25 00 00 00
	00		 jmp	 DWORD PTR __imp_??1?$CStringT@DV?$StrTraitMFC_DLL@DV?$ChTraitsCRT@D@ATL@@@@@ATL@@QAE@XZ
__unwindfunclet$??0CIndicatorInfoImplementation@@QAE@PBV0@@Z$5:
  00035	8d 4d f0	 lea	 ecx, DWORD PTR _strItemName$3[ebp]
  00038	ff 25 00 00 00
	00		 jmp	 DWORD PTR __imp_??1?$CStringT@DV?$StrTraitMFC_DLL@DV?$ChTraitsCRT@D@ATL@@@@@ATL@@QAE@XZ
  0003e	cc		 int	 3
  0003f	cc		 int	 3
  00040	cc		 int	 3
  00041	cc		 int	 3
  00042	cc		 int	 3
__ehhandler$??0CIndicatorInfoImplementation@@QAE@PBV0@@Z:
  00043	90		 npad	 1
  00044	90		 npad	 1
  00045	8b 54 24 08	 mov	 edx, DWORD PTR [esp+8]
  00049	8d 42 0c	 lea	 eax, DWORD PTR [edx+12]
  0004c	8b 4a e4	 mov	 ecx, DWORD PTR [edx-28]
  0004f	33 c8		 xor	 ecx, eax
  00051	e8 00 00 00 00	 call	 @__security_check_cookie@4
  00056	b8 00 00 00 00	 mov	 eax, OFFSET __ehfuncinfo$??0CIndicatorInfoImplementation@@QAE@PBV0@@Z
  0005b	e9 00 00 00 00	 jmp	 ___CxxFrameHandler3
text$x	ENDS
??0CIndicatorInfoImplementation@@QAE@PBV0@@Z ENDP	; CIndicatorInfoImplementation::CIndicatorInfoImplementation
; Function compile flags: /Ogtp
; File D:\git\src\IBK\IBK_DRFN\ProjSrc\SrcChartEx\ChartOCX\IndicatorCondition\IndicatorInfoImplementation.cpp
; File C:\Program Files (x86)\Microsoft Visual Studio\2019\Community\VC\Tools\MSVC\14.29.30133\atlmfc\include\afxtempl.h
; File D:\git\src\IBK\IBK_DRFN\ProjSrc\SrcChartEx\ChartOCX\IndicatorCondition\IndicatorInfoImplementation.cpp
; File C:\Program Files (x86)\Microsoft Visual Studio\2019\Community\VC\Tools\MSVC\14.29.30133\atlmfc\include\afxtempl.h
; File D:\git\src\IBK\IBK_DRFN\ProjSrc\SrcChartEx\ChartOCX\IndicatorCondition\IndicatorInfoImplementation.cpp
; File C:\Program Files (x86)\Microsoft Visual Studio\2019\Community\VC\Tools\MSVC\14.29.30133\atlmfc\include\afxtempl.h
; File D:\git\src\IBK\IBK_DRFN\ProjSrc\SrcChartEx\ChartOCX\IndicatorCondition\IndicatorInfoImplementation.cpp
; File C:\Program Files (x86)\Microsoft Visual Studio\2019\Community\VC\Tools\MSVC\14.29.30133\atlmfc\include\afxtempl.h
; File D:\git\src\IBK\IBK_DRFN\ProjSrc\SrcChartEx\ChartOCX\IndicatorCondition\IndicatorInfoImplementation.cpp
;	COMDAT ??0CIndicatorInfoImplementation@@QAE@W4EIndicatorInfoType@@@Z
_TEXT	SEGMENT
_this$ = -16						; size = 4
__$EHRec$ = -12						; size = 12
_p_eIndicatorInfoType$ = 8				; size = 4
??0CIndicatorInfoImplementation@@QAE@W4EIndicatorInfoType@@@Z PROC ; CIndicatorInfoImplementation::CIndicatorInfoImplementation, COMDAT
; _this$ = ecx

; 23   : {

  00000	55		 push	 ebp
  00001	8b ec		 mov	 ebp, esp
  00003	6a ff		 push	 -1
  00005	68 00 00 00 00	 push	 __ehhandler$??0CIndicatorInfoImplementation@@QAE@W4EIndicatorInfoType@@@Z
  0000a	64 a1 00 00 00
	00		 mov	 eax, DWORD PTR fs:0
  00010	50		 push	 eax
  00011	51		 push	 ecx
  00012	56		 push	 esi
  00013	57		 push	 edi
  00014	a1 00 00 00 00	 mov	 eax, DWORD PTR ___security_cookie
  00019	33 c5		 xor	 eax, ebp
  0001b	50		 push	 eax
  0001c	8d 45 f4	 lea	 eax, DWORD PTR __$EHRec$[ebp]
  0001f	64 a3 00 00 00
	00		 mov	 DWORD PTR fs:0, eax
  00025	8b f9		 mov	 edi, ecx
  00027	89 7d f0	 mov	 DWORD PTR _this$[ebp], edi
  0002a	8d 4f 08	 lea	 ecx, DWORD PTR [edi+8]
  0002d	c7 07 00 00 00
	00		 mov	 DWORD PTR [edi], OFFSET ??_7CIndicatorInfoImplementation@@6B@
  00033	e8 00 00 00 00	 call	 ??0CGraphPartData@@QAE@XZ ; CGraphPartData::CGraphPartData
  00038	c7 45 fc 00 00
	00 00		 mov	 DWORD PTR __$EHRec$[ebp+8], 0
; File C:\Program Files (x86)\Microsoft Visual Studio\2019\Community\VC\Tools\MSVC\14.29.30133\atlmfc\include\afxtempl.h

; 851  : {

  0003f	c7 47 3c 00 00
	00 00		 mov	 DWORD PTR [edi+60], OFFSET ??_7?$CList@NN@@6B@

; 852  : 	ASSERT(nBlockSize > 0);
; 853  : 
; 854  : 	m_nCount = 0;

  00046	c7 47 48 00 00
	00 00		 mov	 DWORD PTR [edi+72], 0

; 855  : 	m_pNodeHead = m_pNodeTail = m_pNodeFree = NULL;

  0004d	c7 47 4c 00 00
	00 00		 mov	 DWORD PTR [edi+76], 0
  00054	c7 47 44 00 00
	00 00		 mov	 DWORD PTR [edi+68], 0
  0005b	c7 47 40 00 00
	00 00		 mov	 DWORD PTR [edi+64], 0

; 856  : 	m_pBlocks = NULL;

  00062	c7 47 50 00 00
	00 00		 mov	 DWORD PTR [edi+80], 0

; 857  : 	m_nBlockSize = nBlockSize;

  00069	c7 47 54 0a 00
	00 00		 mov	 DWORD PTR [edi+84], 10	; 0000000aH

; 851  : {

  00070	c7 47 58 00 00
	00 00		 mov	 DWORD PTR [edi+88], OFFSET ??_7?$CList@NN@@6B@

; 852  : 	ASSERT(nBlockSize > 0);
; 853  : 
; 854  : 	m_nCount = 0;

  00077	c7 47 64 00 00
	00 00		 mov	 DWORD PTR [edi+100], 0

; 855  : 	m_pNodeHead = m_pNodeTail = m_pNodeFree = NULL;

  0007e	c7 47 68 00 00
	00 00		 mov	 DWORD PTR [edi+104], 0
  00085	c7 47 60 00 00
	00 00		 mov	 DWORD PTR [edi+96], 0
  0008c	c7 47 5c 00 00
	00 00		 mov	 DWORD PTR [edi+92], 0

; 856  : 	m_pBlocks = NULL;

  00093	c7 47 6c 00 00
	00 00		 mov	 DWORD PTR [edi+108], 0

; 857  : 	m_nBlockSize = nBlockSize;

  0009a	c7 47 70 0a 00
	00 00		 mov	 DWORD PTR [edi+112], 10	; 0000000aH

; 851  : {

  000a1	c7 47 74 00 00
	00 00		 mov	 DWORD PTR [edi+116], OFFSET ??_7?$CList@NN@@6B@

; 852  : 	ASSERT(nBlockSize > 0);
; 853  : 
; 854  : 	m_nCount = 0;

  000a8	c7 87 80 00 00
	00 00 00 00 00	 mov	 DWORD PTR [edi+128], 0

; 855  : 	m_pNodeHead = m_pNodeTail = m_pNodeFree = NULL;

  000b2	c7 87 84 00 00
	00 00 00 00 00	 mov	 DWORD PTR [edi+132], 0
  000bc	c7 47 7c 00 00
	00 00		 mov	 DWORD PTR [edi+124], 0
  000c3	c7 47 78 00 00
	00 00		 mov	 DWORD PTR [edi+120], 0

; 856  : 	m_pBlocks = NULL;

  000ca	c7 87 88 00 00
	00 00 00 00 00	 mov	 DWORD PTR [edi+136], 0

; 857  : 	m_nBlockSize = nBlockSize;

  000d4	c7 87 8c 00 00
	00 0a 00 00 00	 mov	 DWORD PTR [edi+140], 10	; 0000000aH
; File D:\git\src\IBK\IBK_DRFN\ProjSrc\SrcChartEx\ChartOCX\IndicatorCondition\IndicatorInfoImplementation.cpp

; 24   : 	m_eIndicatorInfoType = p_eIndicatorInfoType;

  000de	8b 45 08	 mov	 eax, DWORD PTR _p_eIndicatorInfoType$[ebp]

; 68   : 	m_graphPartData.Initialize();

  000e1	8d 4f 08	 lea	 ecx, DWORD PTR [edi+8]

; 23   : {

  000e4	c6 45 fc 03	 mov	 BYTE PTR __$EHRec$[ebp+8], 3

; 24   : 	m_eIndicatorInfoType = p_eIndicatorInfoType;

  000e8	89 47 04	 mov	 DWORD PTR [edi+4], eax

; 68   : 	m_graphPartData.Initialize();

  000eb	e8 00 00 00 00	 call	 ?Initialize@CGraphPartData@@QAEXXZ ; CGraphPartData::Initialize

; 79   : 	if(m_calConditionList.GetCount() <= 0)

  000f0	83 7f 48 00	 cmp	 DWORD PTR [edi+72], 0
  000f4	7e 2b		 jle	 SHORT $LN15@CIndicator
; File C:\Program Files (x86)\Microsoft Visual Studio\2019\Community\VC\Tools\MSVC\14.29.30133\atlmfc\include\afxtempl.h

; 872  : 	m_pBlocks->FreeDataChain();

  000f6	8b 4f 50	 mov	 ecx, DWORD PTR [edi+80]
  000f9	c7 47 48 00 00
	00 00		 mov	 DWORD PTR [edi+72], 0
  00100	c7 47 4c 00 00
	00 00		 mov	 DWORD PTR [edi+76], 0
  00107	c7 47 44 00 00
	00 00		 mov	 DWORD PTR [edi+68], 0
  0010e	c7 47 40 00 00
	00 00		 mov	 DWORD PTR [edi+64], 0
  00115	e8 00 00 00 00	 call	 ?FreeDataChain@CPlex@@QAEXXZ ; CPlex::FreeDataChain

; 873  : 	m_pBlocks = NULL;

  0011a	c7 47 50 00 00
	00 00		 mov	 DWORD PTR [edi+80], 0
$LN15@CIndicator:
; File D:\git\src\IBK\IBK_DRFN\ProjSrc\SrcChartEx\ChartOCX\IndicatorCondition\IndicatorInfoImplementation.cpp

; 88   : 	if(m_drawConditionList.GetCount() <= 0)

  00121	83 7f 64 00	 cmp	 DWORD PTR [edi+100], 0
  00125	7e 2b		 jle	 SHORT $LN23@CIndicator
; File C:\Program Files (x86)\Microsoft Visual Studio\2019\Community\VC\Tools\MSVC\14.29.30133\atlmfc\include\afxtempl.h

; 872  : 	m_pBlocks->FreeDataChain();

  00127	8b 4f 6c	 mov	 ecx, DWORD PTR [edi+108]
  0012a	c7 47 64 00 00
	00 00		 mov	 DWORD PTR [edi+100], 0
  00131	c7 47 68 00 00
	00 00		 mov	 DWORD PTR [edi+104], 0
  00138	c7 47 60 00 00
	00 00		 mov	 DWORD PTR [edi+96], 0
  0013f	c7 47 5c 00 00
	00 00		 mov	 DWORD PTR [edi+92], 0
  00146	e8 00 00 00 00	 call	 ?FreeDataChain@CPlex@@QAEXXZ ; CPlex::FreeDataChain

; 873  : 	m_pBlocks = NULL;

  0014b	c7 47 6c 00 00
	00 00		 mov	 DWORD PTR [edi+108], 0
$LN23@CIndicator:
; File D:\git\src\IBK\IBK_DRFN\ProjSrc\SrcChartEx\ChartOCX\IndicatorCondition\IndicatorInfoImplementation.cpp

; 97   : 	if(m_baseLineList.GetCount() <= 0)

  00152	83 bf 80 00 00
	00 00		 cmp	 DWORD PTR [edi+128], 0
  00159	7e 37		 jle	 SHORT $LN31@CIndicator
; File C:\Program Files (x86)\Microsoft Visual Studio\2019\Community\VC\Tools\MSVC\14.29.30133\atlmfc\include\afxtempl.h

; 872  : 	m_pBlocks->FreeDataChain();

  0015b	8b 8f 88 00 00
	00		 mov	 ecx, DWORD PTR [edi+136]
  00161	c7 87 80 00 00
	00 00 00 00 00	 mov	 DWORD PTR [edi+128], 0
  0016b	c7 87 84 00 00
	00 00 00 00 00	 mov	 DWORD PTR [edi+132], 0
  00175	c7 47 7c 00 00
	00 00		 mov	 DWORD PTR [edi+124], 0
  0017c	c7 47 78 00 00
	00 00		 mov	 DWORD PTR [edi+120], 0
  00183	e8 00 00 00 00	 call	 ?FreeDataChain@CPlex@@QAEXXZ ; CPlex::FreeDataChain

; 873  : 	m_pBlocks = NULL;

  00188	c7 87 88 00 00
	00 00 00 00 00	 mov	 DWORD PTR [edi+136], 0
$LN31@CIndicator:
; File D:\git\src\IBK\IBK_DRFN\ProjSrc\SrcChartEx\ChartOCX\IndicatorCondition\IndicatorInfoImplementation.cpp

; 74   : 	m_pGraph = NULL;

  00192	c7 87 90 00 00
	00 00 00 00 00	 mov	 DWORD PTR [edi+144], 0

; 25   : 
; 26   : 	Initialize();
; 27   : 
; 28   : 	//   :  - ojtaso (20070514)
; 29   : 	m_lpszLoadedRQ = NULL;
; 30   : }

  0019c	8b c7		 mov	 eax, edi
  0019e	c7 87 94 00 00
	00 00 00 00 00	 mov	 DWORD PTR [edi+148], 0
  001a8	8b 4d f4	 mov	 ecx, DWORD PTR __$EHRec$[ebp]
  001ab	64 89 0d 00 00
	00 00		 mov	 DWORD PTR fs:0, ecx
  001b2	59		 pop	 ecx
  001b3	5f		 pop	 edi
  001b4	5e		 pop	 esi
  001b5	8b e5		 mov	 esp, ebp
  001b7	5d		 pop	 ebp
  001b8	c2 04 00	 ret	 4
_TEXT	ENDS
;	COMDAT text$x
text$x	SEGMENT
__unwindfunclet$??0CIndicatorInfoImplementation@@QAE@W4EIndicatorInfoType@@@Z$0:
  00000	8b 4d f0	 mov	 ecx, DWORD PTR _this$[ebp]
  00003	83 c1 08	 add	 ecx, 8
  00006	e9 00 00 00 00	 jmp	 ??1CGraphPartData@@UAE@XZ ; CGraphPartData::~CGraphPartData
__unwindfunclet$??0CIndicatorInfoImplementation@@QAE@W4EIndicatorInfoType@@@Z$1:
  0000b	8b 4d f0	 mov	 ecx, DWORD PTR _this$[ebp]
  0000e	83 c1 3c	 add	 ecx, 60			; 0000003cH
  00011	e9 00 00 00 00	 jmp	 ??1?$CList@NN@@UAE@XZ	; CList<double,double>::~CList<double,double>
__unwindfunclet$??0CIndicatorInfoImplementation@@QAE@W4EIndicatorInfoType@@@Z$2:
  00016	8b 4d f0	 mov	 ecx, DWORD PTR _this$[ebp]
  00019	83 c1 58	 add	 ecx, 88			; 00000058H
  0001c	e9 00 00 00 00	 jmp	 ??1?$CList@NN@@UAE@XZ	; CList<double,double>::~CList<double,double>
__unwindfunclet$??0CIndicatorInfoImplementation@@QAE@W4EIndicatorInfoType@@@Z$3:
  00021	8b 4d f0	 mov	 ecx, DWORD PTR _this$[ebp]
  00024	83 c1 74	 add	 ecx, 116		; 00000074H
  00027	e9 00 00 00 00	 jmp	 ??1?$CList@NN@@UAE@XZ	; CList<double,double>::~CList<double,double>
  0002c	cc		 int	 3
  0002d	cc		 int	 3
  0002e	cc		 int	 3
  0002f	cc		 int	 3
  00030	cc		 int	 3
__ehhandler$??0CIndicatorInfoImplementation@@QAE@W4EIndicatorInfoType@@@Z:
  00031	90		 npad	 1
  00032	90		 npad	 1
  00033	8b 54 24 08	 mov	 edx, DWORD PTR [esp+8]
  00037	8d 42 0c	 lea	 eax, DWORD PTR [edx+12]
  0003a	8b 4a f0	 mov	 ecx, DWORD PTR [edx-16]
  0003d	33 c8		 xor	 ecx, eax
  0003f	e8 00 00 00 00	 call	 @__security_check_cookie@4
  00044	b8 00 00 00 00	 mov	 eax, OFFSET __ehfuncinfo$??0CIndicatorInfoImplementation@@QAE@W4EIndicatorInfoType@@@Z
  00049	e9 00 00 00 00	 jmp	 ___CxxFrameHandler3
text$x	ENDS
??0CIndicatorInfoImplementation@@QAE@W4EIndicatorInfoType@@@Z ENDP ; CIndicatorInfoImplementation::CIndicatorInfoImplementation
; Function compile flags: /Ogtp
; File C:\Program Files (x86)\Microsoft Visual Studio\2019\Community\VC\Tools\MSVC\14.29.30133\atlmfc\include\afxtempl.h
; File C:\Program Files (x86)\Microsoft Visual Studio\2019\Community\VC\Tools\MSVC\14.29.30133\atlmfc\include\afx.inl
;	COMDAT ??_G?$CList@NN@@UAEPAXI@Z
_TEXT	SEGMENT
__$EHRec$ = -12						; size = 12
___flags$ = 8						; size = 4
??_G?$CList@NN@@UAEPAXI@Z PROC				; CList<double,double>::`scalar deleting destructor', COMDAT
; _this$ = ecx
  00000	55		 push	 ebp
  00001	8b ec		 mov	 ebp, esp
  00003	6a ff		 push	 -1
  00005	68 00 00 00 00	 push	 __ehhandler$??_G?$CList@NN@@UAEPAXI@Z
  0000a	64 a1 00 00 00
	00		 mov	 eax, DWORD PTR fs:0
  00010	50		 push	 eax
  00011	56		 push	 esi
  00012	a1 00 00 00 00	 mov	 eax, DWORD PTR ___security_cookie
  00017	33 c5		 xor	 eax, ebp
  00019	50		 push	 eax
  0001a	8d 45 f4	 lea	 eax, DWORD PTR __$EHRec$[ebp]
  0001d	64 a3 00 00 00
	00		 mov	 DWORD PTR fs:0, eax
  00023	8b f1		 mov	 esi, ecx
; File C:\Program Files (x86)\Microsoft Visual Studio\2019\Community\VC\Tools\MSVC\14.29.30133\atlmfc\include\afxtempl.h

; 872  : 	m_pBlocks->FreeDataChain();

  00025	8b 4e 14	 mov	 ecx, DWORD PTR [esi+20]

; 878  : {

  00028	c7 45 fc 00 00
	00 00		 mov	 DWORD PTR __$EHRec$[ebp+8], 0
  0002f	c7 06 00 00 00
	00		 mov	 DWORD PTR [esi], OFFSET ??_7?$CList@NN@@6B@

; 870  : 	m_nCount = 0;

  00035	c7 46 0c 00 00
	00 00		 mov	 DWORD PTR [esi+12], 0

; 871  : 	m_pNodeHead = m_pNodeTail = m_pNodeFree = NULL;

  0003c	c7 46 10 00 00
	00 00		 mov	 DWORD PTR [esi+16], 0
  00043	c7 46 08 00 00
	00 00		 mov	 DWORD PTR [esi+8], 0
  0004a	c7 46 04 00 00
	00 00		 mov	 DWORD PTR [esi+4], 0

; 872  : 	m_pBlocks->FreeDataChain();

  00051	e8 00 00 00 00	 call	 ?FreeDataChain@CPlex@@QAEXXZ ; CPlex::FreeDataChain

; 873  : 	m_pBlocks = NULL;

  00056	8b 45 08	 mov	 eax, DWORD PTR ___flags$[ebp]
  00059	c7 46 14 00 00
	00 00		 mov	 DWORD PTR [esi+20], 0
  00060	a8 01		 test	 al, 1
  00062	74 2c		 je	 SHORT $LN22@scalar
  00064	a8 04		 test	 al, 4
  00066	75 1d		 jne	 SHORT $LN3@scalar
; File C:\Program Files (x86)\Microsoft Visual Studio\2019\Community\VC\Tools\MSVC\14.29.30133\atlmfc\include\afx.inl

; 112  : 	{ ::operator delete(p); }

  00068	56		 push	 esi
  00069	e8 00 00 00 00	 call	 ??3@YAXPAX@Z		; operator delete
  0006e	83 c4 04	 add	 esp, 4
  00071	8b c6		 mov	 eax, esi
  00073	8b 4d f4	 mov	 ecx, DWORD PTR __$EHRec$[ebp]
  00076	64 89 0d 00 00
	00 00		 mov	 DWORD PTR fs:0, ecx
  0007d	59		 pop	 ecx
  0007e	5e		 pop	 esi
  0007f	8b e5		 mov	 esp, ebp
  00081	5d		 pop	 ebp
  00082	c2 04 00	 ret	 4
$LN3@scalar:
  00085	6a 1c		 push	 28			; 0000001cH
  00087	56		 push	 esi
  00088	e8 00 00 00 00	 call	 ?__global_delete@@YAXPAXI@Z ; __global_delete
  0008d	83 c4 08	 add	 esp, 8
$LN22@scalar:
  00090	8b c6		 mov	 eax, esi
  00092	8b 4d f4	 mov	 ecx, DWORD PTR __$EHRec$[ebp]
  00095	64 89 0d 00 00
	00 00		 mov	 DWORD PTR fs:0, ecx
  0009c	59		 pop	 ecx
  0009d	5e		 pop	 esi
  0009e	8b e5		 mov	 esp, ebp
  000a0	5d		 pop	 ebp
  000a1	c2 04 00	 ret	 4
  000a4	cc		 int	 3
  000a5	cc		 int	 3
  000a6	cc		 int	 3
  000a7	cc		 int	 3
  000a8	cc		 int	 3
_TEXT	ENDS
;	COMDAT text$x
text$x	SEGMENT
__ehhandler$??_G?$CList@NN@@UAEPAXI@Z:
  00000	90		 npad	 1
  00001	90		 npad	 1
  00002	8b 54 24 08	 mov	 edx, DWORD PTR [esp+8]
  00006	8d 42 0c	 lea	 eax, DWORD PTR [edx+12]
  00009	8b 4a f8	 mov	 ecx, DWORD PTR [edx-8]
  0000c	33 c8		 xor	 ecx, eax
  0000e	e8 00 00 00 00	 call	 @__security_check_cookie@4
  00013	b8 00 00 00 00	 mov	 eax, OFFSET __ehfuncinfo$??_G?$CList@NN@@UAEPAXI@Z
  00018	e9 00 00 00 00	 jmp	 ___CxxFrameHandler3
text$x	ENDS
??_G?$CList@NN@@UAEPAXI@Z ENDP				; CList<double,double>::`scalar deleting destructor'
; Function compile flags: /Ogtp
; File C:\Program Files (x86)\Microsoft Visual Studio\2019\Community\VC\Tools\MSVC\14.29.30133\atlmfc\include\afxtempl.h
; File C:\Program Files (x86)\Microsoft Visual Studio\2019\Community\VC\Tools\MSVC\14.29.30133\atlmfc\include\afx.inl
; File C:\Program Files (x86)\Microsoft Visual Studio\2019\Community\VC\Tools\MSVC\14.29.30133\atlmfc\include\afxtempl.h
; File C:\Program Files (x86)\Microsoft Visual Studio\2019\Community\VC\Tools\MSVC\14.29.30133\atlmfc\include\afx.inl
; File C:\Program Files (x86)\Microsoft Visual Studio\2019\Community\VC\Tools\MSVC\14.29.30133\atlmfc\include\afxtempl.h
; File C:\Program Files (x86)\Microsoft Visual Studio\2019\Community\VC\Tools\MSVC\14.29.30133\atlmfc\include\afx.inl
; File C:\Program Files (x86)\Microsoft Visual Studio\2019\Community\VC\Tools\MSVC\14.29.30133\atlmfc\include\afxtempl.h
; File C:\Program Files (x86)\Microsoft Visual Studio\2019\Community\VC\Tools\MSVC\14.29.30133\atlmfc\include\afx.inl
; File C:\Program Files (x86)\Microsoft Visual Studio\2019\Community\VC\Tools\MSVC\14.29.30133\atlmfc\include\afxtempl.h
; File C:\Program Files (x86)\Microsoft Visual Studio\2019\Community\VC\Tools\MSVC\14.29.30133\atlmfc\include\afx.inl
; File C:\Program Files (x86)\Microsoft Visual Studio\2019\Community\VC\Tools\MSVC\14.29.30133\atlmfc\include\afxtempl.h
; File C:\Program Files (x86)\Microsoft Visual Studio\2019\Community\VC\Tools\MSVC\14.29.30133\atlmfc\include\afx.inl
; File C:\Program Files (x86)\Microsoft Visual Studio\2019\Community\VC\Tools\MSVC\14.29.30133\atlmfc\include\afxtempl.h
;	COMDAT ?Serialize@?$CList@NN@@UAEXAAVCArchive@@@Z
_TEXT	SEGMENT
_newData$1 = -20					; size = 8
_nNewCount$1$ = -12					; size = 4
_pData$1$ = -8						; size = 4
_pNode$1$ = -8						; size = 4
_nElementsLeft$1$ = -4					; size = 4
_this$1$ = -4						; size = 4
_ar$ = 8						; size = 4
?Serialize@?$CList@NN@@UAEXAAVCArchive@@@Z PROC		; CList<double,double>::Serialize, COMDAT
; _this$ = ecx

; 1169 : {

  00000	55		 push	 ebp
  00001	8b ec		 mov	 ebp, esp
  00003	83 ec 14	 sub	 esp, 20			; 00000014H
  00006	53		 push	 ebx
  00007	8b d9		 mov	 ebx, ecx
; File C:\Program Files (x86)\Microsoft Visual Studio\2019\Community\VC\Tools\MSVC\14.29.30133\atlmfc\include\afx.inl

; 212  : 	{ return (m_nMode & CArchive::load) == 0; }

  00009	8b 4d 08	 mov	 ecx, DWORD PTR _ar$[ebp]
; File C:\Program Files (x86)\Microsoft Visual Studio\2019\Community\VC\Tools\MSVC\14.29.30133\atlmfc\include\afxtempl.h

; 1169 : {

  0000c	56		 push	 esi
  0000d	57		 push	 edi
  0000e	89 5d fc	 mov	 DWORD PTR _this$1$[ebp], ebx
; File C:\Program Files (x86)\Microsoft Visual Studio\2019\Community\VC\Tools\MSVC\14.29.30133\atlmfc\include\afx.inl

; 212  : 	{ return (m_nMode & CArchive::load) == 0; }

  00011	8b 41 18	 mov	 eax, DWORD PTR [ecx+24]
  00014	f7 d0		 not	 eax
  00016	a8 01		 test	 al, 1
; File C:\Program Files (x86)\Microsoft Visual Studio\2019\Community\VC\Tools\MSVC\14.29.30133\atlmfc\include\afxtempl.h

; 1174 : 	if (ar.IsStoring())

  00018	0f 84 ae 00 00
	00		 je	 $LN7@Serialize

; 1175 : 	{
; 1176 : 		ar.WriteCount(m_nCount);

  0001e	ff 73 0c	 push	 DWORD PTR [ebx+12]
  00021	e8 00 00 00 00	 call	 ?WriteCount@CArchive@@QAEXK@Z ; CArchive::WriteCount

; 1177 : 		for (CNode* pNode = m_pNodeHead; pNode != NULL; pNode = pNode->pNext)

  00026	8b 43 04	 mov	 eax, DWORD PTR [ebx+4]
  00029	89 45 f8	 mov	 DWORD PTR _pNode$1$[ebp], eax
  0002c	85 c0		 test	 eax, eax
  0002e	0f 84 4d 01 00
	00		 je	 $LN68@Serialize
$LL4@Serialize:

; 1178 : 		{
; 1179 : 			ASSERT(AfxIsValidAddress(pNode, sizeof(CNode)));
; 1180 : 			TYPE* pData;
; 1181 : 			/*
; 1182 : 			 * in some cases the & operator might be overloaded, and we cannot use it to obtain
; 1183 : 			 * the address of a given object.  We then use the following trick to get the address
; 1184 : 			 */
; 1185 : 			pData = reinterpret_cast< TYPE* >( &reinterpret_cast< int& >( static_cast< TYPE& >( pNode->data ) ) );

  00034	8d 58 08	 lea	 ebx, DWORD PTR [eax+8]

; 68   : 	ENSURE(nCount == 0 || pElements != NULL);

  00037	85 db		 test	 ebx, ebx
  00039	0f 84 54 01 00
	00		 je	 $LN60@Serialize
; File C:\Program Files (x86)\Microsoft Visual Studio\2019\Community\VC\Tools\MSVC\14.29.30133\atlmfc\include\afx.inl

; 212  : 	{ return (m_nMode & CArchive::load) == 0; }

  0003f	8b 4d 08	 mov	 ecx, DWORD PTR _ar$[ebp]
  00042	8b 41 18	 mov	 eax, DWORD PTR [ecx+24]
  00045	f7 d0		 not	 eax
  00047	a8 01		 test	 al, 1
; File C:\Program Files (x86)\Microsoft Visual Studio\2019\Community\VC\Tools\MSVC\14.29.30133\atlmfc\include\afxtempl.h

; 73   : 	if (ar.IsStoring())

  00049	74 33		 je	 SHORT $LN21@Serialize

; 74   : 	{
; 75   : 		TYPE* pData;
; 76   : 		UINT_PTR nElementsLeft;
; 77   : 
; 78   : 		nElementsLeft = nCount;

  0004b	b8 01 00 00 00	 mov	 eax, 1
  00050	89 45 fc	 mov	 DWORD PTR _nElementsLeft$1$[ebp], eax
$LL16@Serialize:

; 80   : 		while( nElementsLeft > 0 )
; 81   : 		{
; 82   : 			UINT nElementsToWrite;
; 83   : 
; 84   : 			nElementsToWrite = UINT(__min(nElementsLeft, INT_MAX/sizeof(TYPE)));

  00053	bf ff ff ff 0f	 mov	 edi, 268435455		; 0fffffffH
  00058	3b c7		 cmp	 eax, edi
  0005a	0f 42 f8	 cmovb	 edi, eax

; 85   : 			ar.Write(pData, nElementsToWrite*sizeof(TYPE));

  0005d	8d 34 fd 00 00
	00 00		 lea	 esi, DWORD PTR [edi*8]
  00064	56		 push	 esi
  00065	53		 push	 ebx
  00066	e8 00 00 00 00	 call	 ?Write@CArchive@@QAEXPBXI@Z ; CArchive::Write

; 86   : 			nElementsLeft -= nElementsToWrite;

  0006b	8b 45 fc	 mov	 eax, DWORD PTR _nElementsLeft$1$[ebp]

; 87   : 			pData += nElementsToWrite;

  0006e	03 de		 add	 ebx, esi
  00070	8b 4d 08	 mov	 ecx, DWORD PTR _ar$[ebp]
  00073	2b c7		 sub	 eax, edi
  00075	89 45 fc	 mov	 DWORD PTR _nElementsLeft$1$[ebp], eax
  00078	85 c0		 test	 eax, eax
  0007a	75 d7		 jne	 SHORT $LL16@Serialize

; 88   : 		}
; 89   : 	}

  0007c	eb 35		 jmp	 SHORT $LN2@Serialize
$LN21@Serialize:

; 90   : 	else
; 91   : 	{
; 92   : 		TYPE* pData;
; 93   : 		UINT_PTR nElementsLeft;
; 94   : 
; 95   : 		nElementsLeft = nCount;

  0007e	be 01 00 00 00	 mov	 esi, 1
$LL18@Serialize:

; 98   : 		{
; 99   : 			UINT nElementsToRead;
; 100  : 
; 101  : 			nElementsToRead = UINT(__min(nElementsLeft, INT_MAX/sizeof(TYPE)));

  00083	bf ff ff ff 0f	 mov	 edi, 268435455		; 0fffffffH
  00088	3b f7		 cmp	 esi, edi
  0008a	0f 42 fe	 cmovb	 edi, esi

; 102  : 			ar.EnsureRead(pData, nElementsToRead*sizeof(TYPE));

  0008d	8d 04 fd 00 00
	00 00		 lea	 eax, DWORD PTR [edi*8]
; File C:\Program Files (x86)\Microsoft Visual Studio\2019\Community\VC\Tools\MSVC\14.29.30133\atlmfc\include\afx.inl

; 399  : 	UINT nRead=Read(lpBuf, nCount);

  00094	50		 push	 eax
  00095	53		 push	 ebx
  00096	e8 00 00 00 00	 call	 ?Read@CArchive@@QAEIPAXI@Z ; CArchive::Read

; 400  : 	if(nRead!=nCount)

  0009b	8d 0c fd 00 00
	00 00		 lea	 ecx, DWORD PTR [edi*8]
  000a2	3b c1		 cmp	 eax, ecx
  000a4	0f 85 e0 00 00
	00		 jne	 $LN59@Serialize
; File C:\Program Files (x86)\Microsoft Visual Studio\2019\Community\VC\Tools\MSVC\14.29.30133\atlmfc\include\afxtempl.h

; 97   : 		while( nElementsLeft > 0 )

  000aa	03 d9		 add	 ebx, ecx
  000ac	8b 4d 08	 mov	 ecx, DWORD PTR _ar$[ebp]

; 103  : 			nElementsLeft -= nElementsToRead;

  000af	2b f7		 sub	 esi, edi
  000b1	75 d0		 jne	 SHORT $LL18@Serialize
$LN2@Serialize:

; 1177 : 		for (CNode* pNode = m_pNodeHead; pNode != NULL; pNode = pNode->pNext)

  000b3	8b 45 f8	 mov	 eax, DWORD PTR _pNode$1$[ebp]
  000b6	8b 00		 mov	 eax, DWORD PTR [eax]
  000b8	89 45 f8	 mov	 DWORD PTR _pNode$1$[ebp], eax
  000bb	85 c0		 test	 eax, eax
  000bd	0f 85 71 ff ff
	ff		 jne	 $LL4@Serialize

; 1197 : 		}
; 1198 : 	}
; 1199 : }

  000c3	5f		 pop	 edi
  000c4	5e		 pop	 esi
  000c5	5b		 pop	 ebx
  000c6	8b e5		 mov	 esp, ebp
  000c8	5d		 pop	 ebp
  000c9	c2 04 00	 ret	 4
$LN7@Serialize:

; 1186 : 			SerializeElements<TYPE>(ar, pData, 1);
; 1187 : 		}
; 1188 : 	}
; 1189 : 	else
; 1190 : 	{
; 1191 : 		DWORD_PTR nNewCount = ar.ReadCount();

  000cc	e8 00 00 00 00	 call	 ?ReadCount@CArchive@@QAEKXZ ; CArchive::ReadCount

; 1192 : 		while (nNewCount--)

  000d1	85 c0		 test	 eax, eax
  000d3	0f 84 a8 00 00
	00		 je	 $LN68@Serialize
  000d9	0f 1f 80 00 00
	00 00		 npad	 7
$LL5@Serialize:
  000e0	48		 dec	 eax
  000e1	89 45 f4	 mov	 DWORD PTR _nNewCount$1$[ebp], eax
; File C:\Program Files (x86)\Microsoft Visual Studio\2019\Community\VC\Tools\MSVC\14.29.30133\atlmfc\include\afx.inl

; 212  : 	{ return (m_nMode & CArchive::load) == 0; }

  000e4	8b 45 08	 mov	 eax, DWORD PTR _ar$[ebp]
  000e7	8b 48 18	 mov	 ecx, DWORD PTR [eax+24]
  000ea	f7 d1		 not	 ecx
  000ec	f6 c1 01	 test	 cl, 1
; File C:\Program Files (x86)\Microsoft Visual Studio\2019\Community\VC\Tools\MSVC\14.29.30133\atlmfc\include\afxtempl.h

; 73   : 	if (ar.IsStoring())

  000ef	74 3a		 je	 SHORT $LN42@Serialize

; 79   : 		pData = pElements;

  000f1	8d 4d ec	 lea	 ecx, DWORD PTR _newData$1[ebp]
  000f4	bb 01 00 00 00	 mov	 ebx, 1
  000f9	89 4d f8	 mov	 DWORD PTR _pData$1$[ebp], ecx
  000fc	0f 1f 40 00	 npad	 4
$LL37@Serialize:

; 80   : 		while( nElementsLeft > 0 )
; 81   : 		{
; 82   : 			UINT nElementsToWrite;
; 83   : 
; 84   : 			nElementsToWrite = UINT(__min(nElementsLeft, INT_MAX/sizeof(TYPE)));

  00100	bf ff ff ff 0f	 mov	 edi, 268435455		; 0fffffffH
  00105	3b df		 cmp	 ebx, edi
  00107	0f 42 fb	 cmovb	 edi, ebx

; 85   : 			ar.Write(pData, nElementsToWrite*sizeof(TYPE));

  0010a	8d 34 fd 00 00
	00 00		 lea	 esi, DWORD PTR [edi*8]
  00111	56		 push	 esi
  00112	51		 push	 ecx
  00113	8b c8		 mov	 ecx, eax
  00115	e8 00 00 00 00	 call	 ?Write@CArchive@@QAEXPBXI@Z ; CArchive::Write

; 87   : 			pData += nElementsToWrite;

  0011a	8b 4d f8	 mov	 ecx, DWORD PTR _pData$1$[ebp]
  0011d	8b 45 08	 mov	 eax, DWORD PTR _ar$[ebp]
  00120	03 ce		 add	 ecx, esi
  00122	89 4d f8	 mov	 DWORD PTR _pData$1$[ebp], ecx
  00125	2b df		 sub	 ebx, edi
  00127	75 d7		 jne	 SHORT $LL37@Serialize

; 88   : 		}
; 89   : 	}

  00129	eb 36		 jmp	 SHORT $LN40@Serialize
$LN42@Serialize:

; 90   : 	else
; 91   : 	{
; 92   : 		TYPE* pData;
; 93   : 		UINT_PTR nElementsLeft;
; 94   : 
; 95   : 		nElementsLeft = nCount;

  0012b	be 01 00 00 00	 mov	 esi, 1

; 96   : 		pData = pElements;

  00130	8d 5d ec	 lea	 ebx, DWORD PTR _newData$1[ebp]
$LL39@Serialize:

; 98   : 		{
; 99   : 			UINT nElementsToRead;
; 100  : 
; 101  : 			nElementsToRead = UINT(__min(nElementsLeft, INT_MAX/sizeof(TYPE)));

  00133	bf ff ff ff 0f	 mov	 edi, 268435455		; 0fffffffH
  00138	3b f7		 cmp	 esi, edi
  0013a	0f 42 fe	 cmovb	 edi, esi

; 102  : 			ar.EnsureRead(pData, nElementsToRead*sizeof(TYPE));

  0013d	8d 0c fd 00 00
	00 00		 lea	 ecx, DWORD PTR [edi*8]
; File C:\Program Files (x86)\Microsoft Visual Studio\2019\Community\VC\Tools\MSVC\14.29.30133\atlmfc\include\afx.inl

; 399  : 	UINT nRead=Read(lpBuf, nCount);

  00144	51		 push	 ecx
  00145	53		 push	 ebx
  00146	8b c8		 mov	 ecx, eax
  00148	e8 00 00 00 00	 call	 ?Read@CArchive@@QAEIPAXI@Z ; CArchive::Read

; 400  : 	if(nRead!=nCount)

  0014d	8d 0c fd 00 00
	00 00		 lea	 ecx, DWORD PTR [edi*8]
  00154	3b c1		 cmp	 eax, ecx
  00156	75 32		 jne	 SHORT $LN59@Serialize
; File C:\Program Files (x86)\Microsoft Visual Studio\2019\Community\VC\Tools\MSVC\14.29.30133\atlmfc\include\afxtempl.h

; 104  : 			pData += nElementsToRead;

  00158	8b 45 08	 mov	 eax, DWORD PTR _ar$[ebp]
  0015b	03 d9		 add	 ebx, ecx
  0015d	2b f7		 sub	 esi, edi
  0015f	75 d2		 jne	 SHORT $LL39@Serialize
$LN40@Serialize:

; 1193 : 		{
; 1194 : 			TYPE newData[1];
; 1195 : 			SerializeElements<TYPE>(ar, newData, 1);
; 1196 : 			AddTail(newData[0]);

  00161	f2 0f 10 45 ec	 movsd	 xmm0, QWORD PTR _newData$1[ebp]
  00166	83 ec 08	 sub	 esp, 8
  00169	8b 4d fc	 mov	 ecx, DWORD PTR _this$1$[ebp]
  0016c	f2 0f 11 04 24	 movsd	 QWORD PTR [esp], xmm0
  00171	e8 00 00 00 00	 call	 ?AddTail@?$CList@NN@@QAEPAU__POSITION@@N@Z ; CList<double,double>::AddTail
  00176	8b 45 f4	 mov	 eax, DWORD PTR _nNewCount$1$[ebp]
  00179	85 c0		 test	 eax, eax
  0017b	0f 85 5f ff ff
	ff		 jne	 $LL5@Serialize
$LN68@Serialize:
  00181	5f		 pop	 edi

; 1197 : 		}
; 1198 : 	}
; 1199 : }

  00182	5e		 pop	 esi
  00183	5b		 pop	 ebx
  00184	8b e5		 mov	 esp, ebp
  00186	5d		 pop	 ebp
  00187	c2 04 00	 ret	 4
$LN59@Serialize:
  0018a	6a 00		 push	 0
  0018c	6a 03		 push	 3
  0018e	e8 00 00 00 00	 call	 ?AfxThrowArchiveException@@YGXHPBD@Z ; AfxThrowArchiveException
$LN60@Serialize:

; 68   : 	ENSURE(nCount == 0 || pElements != NULL);

  00193	e8 00 00 00 00	 call	 ?AfxThrowInvalidArgException@@YGXXZ ; AfxThrowInvalidArgException
$LN85@Serialize:
  00198	cc		 int	 3
?Serialize@?$CList@NN@@UAEXAAVCArchive@@@Z ENDP		; CList<double,double>::Serialize
_TEXT	ENDS
; Function compile flags: /Ogtp
; File C:\Program Files (x86)\Microsoft Visual Studio\2019\Community\VC\Tools\MSVC\14.29.30133\atlmfc\include\afxtempl.h
;	COMDAT ??1?$CList@NN@@UAE@XZ
_TEXT	SEGMENT
__$EHRec$ = -12						; size = 12
??1?$CList@NN@@UAE@XZ PROC				; CList<double,double>::~CList<double,double>, COMDAT
; _this$ = ecx

; 878  : {

  00000	55		 push	 ebp
  00001	8b ec		 mov	 ebp, esp
  00003	6a ff		 push	 -1
  00005	68 00 00 00 00	 push	 __ehhandler$??1?$CList@NN@@UAE@XZ
  0000a	64 a1 00 00 00
	00		 mov	 eax, DWORD PTR fs:0
  00010	50		 push	 eax
  00011	56		 push	 esi
  00012	a1 00 00 00 00	 mov	 eax, DWORD PTR ___security_cookie
  00017	33 c5		 xor	 eax, ebp
  00019	50		 push	 eax
  0001a	8d 45 f4	 lea	 eax, DWORD PTR __$EHRec$[ebp]
  0001d	64 a3 00 00 00
	00		 mov	 DWORD PTR fs:0, eax
  00023	8b f1		 mov	 esi, ecx

; 872  : 	m_pBlocks->FreeDataChain();

  00025	8b 4e 14	 mov	 ecx, DWORD PTR [esi+20]

; 878  : {

  00028	c7 06 00 00 00
	00		 mov	 DWORD PTR [esi], OFFSET ??_7?$CList@NN@@6B@

; 870  : 	m_nCount = 0;

  0002e	c7 46 0c 00 00
	00 00		 mov	 DWORD PTR [esi+12], 0

; 871  : 	m_pNodeHead = m_pNodeTail = m_pNodeFree = NULL;

  00035	c7 46 10 00 00
	00 00		 mov	 DWORD PTR [esi+16], 0
  0003c	c7 46 08 00 00
	00 00		 mov	 DWORD PTR [esi+8], 0
  00043	c7 46 04 00 00
	00 00		 mov	 DWORD PTR [esi+4], 0

; 872  : 	m_pBlocks->FreeDataChain();

  0004a	e8 00 00 00 00	 call	 ?FreeDataChain@CPlex@@QAEXXZ ; CPlex::FreeDataChain

; 873  : 	m_pBlocks = NULL;

  0004f	c7 46 14 00 00
	00 00		 mov	 DWORD PTR [esi+20], 0

; 879  : 	RemoveAll();
; 880  : 	ASSERT(m_nCount == 0);
; 881  : }

  00056	8b 4d f4	 mov	 ecx, DWORD PTR __$EHRec$[ebp]
  00059	64 89 0d 00 00
	00 00		 mov	 DWORD PTR fs:0, ecx
  00060	59		 pop	 ecx
  00061	5e		 pop	 esi
  00062	8b e5		 mov	 esp, ebp
  00064	5d		 pop	 ebp
  00065	c3		 ret	 0
  00066	cc		 int	 3
  00067	cc		 int	 3
  00068	cc		 int	 3
  00069	cc		 int	 3
  0006a	cc		 int	 3
_TEXT	ENDS
;	COMDAT text$x
text$x	SEGMENT
__ehhandler$??1?$CList@NN@@UAE@XZ:
  00000	90		 npad	 1
  00001	90		 npad	 1
  00002	8b 54 24 08	 mov	 edx, DWORD PTR [esp+8]
  00006	8d 42 0c	 lea	 eax, DWORD PTR [edx+12]
  00009	8b 4a f8	 mov	 ecx, DWORD PTR [edx-8]
  0000c	33 c8		 xor	 ecx, eax
  0000e	e8 00 00 00 00	 call	 @__security_check_cookie@4
  00013	b8 00 00 00 00	 mov	 eax, OFFSET __ehfuncinfo$??1?$CList@NN@@UAE@XZ
  00018	e9 00 00 00 00	 jmp	 ___CxxFrameHandler3
text$x	ENDS
??1?$CList@NN@@UAE@XZ ENDP				; CList<double,double>::~CList<double,double>
; Function compile flags: /Ogtp
; File C:\Program Files (x86)\Microsoft Visual Studio\2019\Community\VC\Tools\MSVC\14.29.30133\atlmfc\include\afxtempl.h
;	COMDAT ?NewNode@?$CList@NN@@IAEPAUCNode@1@PAU21@0@Z
_TEXT	SEGMENT
_pPrev$ = 8						; size = 4
_pNext$ = 12						; size = 4
?NewNode@?$CList@NN@@IAEPAUCNode@1@PAU21@0@Z PROC	; CList<double,double>::NewNode, COMDAT
; _this$ = ecx

; 901  : {

  00000	55		 push	 ebp
  00001	8b ec		 mov	 ebp, esp
  00003	56		 push	 esi
  00004	8b f1		 mov	 esi, ecx

; 902  : 	if (m_pNodeFree == NULL)

  00006	83 7e 10 00	 cmp	 DWORD PTR [esi+16], 0
  0000a	75 34		 jne	 SHORT $LN7@NewNode

; 903  : 	{
; 904  : 		// add another block
; 905  : 		CPlex* pNewBlock = CPlex::Create(m_pBlocks, m_nBlockSize,

  0000c	6a 10		 push	 16			; 00000010H
  0000e	ff 76 18	 push	 DWORD PTR [esi+24]
  00011	8d 46 14	 lea	 eax, DWORD PTR [esi+20]
  00014	50		 push	 eax
  00015	e8 00 00 00 00	 call	 ?Create@CPlex@@SGPAU1@AAPAU1@II@Z ; CPlex::Create

; 906  : 				 sizeof(CNode));
; 907  : 
; 908  : 		// chain them into free list
; 909  : 		CNode* pNode = (CNode*) pNewBlock->data();
; 910  : 		// free in reverse order to make it easier to debug
; 911  : 		pNode += m_nBlockSize - 1;

  0001a	8b 56 18	 mov	 edx, DWORD PTR [esi+24]
  0001d	83 c0 08	 add	 eax, 8
  00020	8b ca		 mov	 ecx, edx
  00022	c1 e1 04	 shl	 ecx, 4
  00025	83 c1 f0	 add	 ecx, -16		; fffffff0H
  00028	03 c1		 add	 eax, ecx

; 912  : 		for (INT_PTR i = m_nBlockSize-1; i >= 0; i--, pNode--)

  0002a	83 c2 ff	 add	 edx, -1
  0002d	78 11		 js	 SHORT $LN7@NewNode
  0002f	90		 npad	 1
$LL4@NewNode:

; 913  : 		{
; 914  : 			pNode->pNext = m_pNodeFree;

  00030	8b 4e 10	 mov	 ecx, DWORD PTR [esi+16]
  00033	89 08		 mov	 DWORD PTR [eax], ecx

; 915  : 			m_pNodeFree = pNode;

  00035	89 46 10	 mov	 DWORD PTR [esi+16], eax
  00038	83 e8 10	 sub	 eax, 16			; 00000010H
  0003b	83 ea 01	 sub	 edx, 1
  0003e	79 f0		 jns	 SHORT $LL4@NewNode
$LN7@NewNode:

; 916  : 		}
; 917  : 	}
; 918  : 	ENSURE(m_pNodeFree != NULL);  // we must have something

  00040	8b 46 10	 mov	 eax, DWORD PTR [esi+16]
  00043	85 c0		 test	 eax, eax
  00045	74 18		 je	 SHORT $LN17@NewNode

; 919  : 
; 920  : 	CList::CNode* pNode = m_pNodeFree;
; 921  : 	m_pNodeFree = m_pNodeFree->pNext;

  00047	8b 08		 mov	 ecx, DWORD PTR [eax]
  00049	89 4e 10	 mov	 DWORD PTR [esi+16], ecx

; 922  : 	pNode->pPrev = pPrev;

  0004c	8b 4d 08	 mov	 ecx, DWORD PTR _pPrev$[ebp]
  0004f	89 48 04	 mov	 DWORD PTR [eax+4], ecx

; 923  : 	pNode->pNext = pNext;

  00052	8b 4d 0c	 mov	 ecx, DWORD PTR _pNext$[ebp]
  00055	89 08		 mov	 DWORD PTR [eax], ecx

; 924  : 	m_nCount++;

  00057	ff 46 0c	 inc	 DWORD PTR [esi+12]

; 925  : 	ASSERT(m_nCount > 0);  // make sure we don't overflow
; 926  : 
; 927  : #pragma push_macro("new")
; 928  : #undef new
; 929  : 	::new( (void*)( &pNode->data ) ) TYPE;
; 930  : #pragma pop_macro("new")
; 931  : 	return pNode;

  0005a	5e		 pop	 esi

; 932  : }

  0005b	5d		 pop	 ebp
  0005c	c2 08 00	 ret	 8
$LN17@NewNode:

; 916  : 		}
; 917  : 	}
; 918  : 	ENSURE(m_pNodeFree != NULL);  // we must have something

  0005f	e8 00 00 00 00	 call	 ?AfxThrowInvalidArgException@@YGXXZ ; AfxThrowInvalidArgException
$LN15@NewNode:
  00064	cc		 int	 3
?NewNode@?$CList@NN@@IAEPAUCNode@1@PAU21@0@Z ENDP	; CList<double,double>::NewNode
_TEXT	ENDS
; Function compile flags: /Ogtp
; File C:\Program Files (x86)\Microsoft Visual Studio\2019\Community\VC\Tools\MSVC\14.29.30133\atlmfc\include\afxtempl.h
;	COMDAT ?FindIndex@?$CList@NN@@QBEPAU__POSITION@@H@Z
_TEXT	SEGMENT
_nIndex$ = 8						; size = 4
?FindIndex@?$CList@NN@@QBEPAU__POSITION@@H@Z PROC	; CList<double,double>::FindIndex, COMDAT
; _this$ = ecx

; 1130 : {

  00000	55		 push	 ebp
  00001	8b ec		 mov	 ebp, esp

; 1131 : 	ASSERT_VALID(this);
; 1132 : 
; 1133 : 	if (nIndex >= m_nCount || nIndex < 0)

  00003	8b 55 08	 mov	 edx, DWORD PTR _nIndex$[ebp]
  00006	3b 51 0c	 cmp	 edx, DWORD PTR [ecx+12]
  00009	7d 14		 jge	 SHORT $LN5@FindIndex
  0000b	85 d2		 test	 edx, edx
  0000d	78 10		 js	 SHORT $LN5@FindIndex

; 1135 : 
; 1136 : 	CNode* pNode = m_pNodeHead;

  0000f	8b 41 04	 mov	 eax, DWORD PTR [ecx+4]

; 1137 : 	while (nIndex--)

  00012	74 0d		 je	 SHORT $LN1@FindIndex
$LL2@FindIndex:

; 1138 : 	{
; 1139 : 		ASSERT(AfxIsValidAddress(pNode, sizeof(CNode)));
; 1140 : 		pNode = pNode->pNext;

  00014	8b 00		 mov	 eax, DWORD PTR [eax]
  00016	83 ea 01	 sub	 edx, 1
  00019	75 f9		 jne	 SHORT $LL2@FindIndex

; 1141 : 	}
; 1142 : 	return (POSITION) pNode;
; 1143 : }

  0001b	5d		 pop	 ebp
  0001c	c2 04 00	 ret	 4
$LN5@FindIndex:

; 1134 : 		return NULL;  // went too far

  0001f	33 c0		 xor	 eax, eax
$LN1@FindIndex:

; 1141 : 	}
; 1142 : 	return (POSITION) pNode;
; 1143 : }

  00021	5d		 pop	 ebp
  00022	c2 04 00	 ret	 4
?FindIndex@?$CList@NN@@QBEPAU__POSITION@@H@Z ENDP	; CList<double,double>::FindIndex
_TEXT	ENDS
; Function compile flags: /Ogtp
; File C:\Program Files (x86)\Microsoft Visual Studio\2019\Community\VC\Tools\MSVC\14.29.30133\atlmfc\include\afxtempl.h
;	COMDAT ?RemoveAll@?$CList@NN@@QAEXXZ
_TEXT	SEGMENT
?RemoveAll@?$CList@NN@@QAEXXZ PROC			; CList<double,double>::RemoveAll, COMDAT
; _this$ = ecx

; 862  : {

  00000	56		 push	 esi
  00001	8b f1		 mov	 esi, ecx

; 863  : 	ASSERT_VALID(this);
; 864  : 
; 865  : 	// destroy elements
; 866  : 	CNode* pNode;
; 867  : 	for (pNode = m_pNodeHead; pNode != NULL; pNode = pNode->pNext)
; 868  : 		pNode->data.~TYPE();
; 869  : 
; 870  : 	m_nCount = 0;
; 871  : 	m_pNodeHead = m_pNodeTail = m_pNodeFree = NULL;
; 872  : 	m_pBlocks->FreeDataChain();

  00003	8b 4e 14	 mov	 ecx, DWORD PTR [esi+20]
  00006	c7 46 0c 00 00
	00 00		 mov	 DWORD PTR [esi+12], 0
  0000d	c7 46 10 00 00
	00 00		 mov	 DWORD PTR [esi+16], 0
  00014	c7 46 08 00 00
	00 00		 mov	 DWORD PTR [esi+8], 0
  0001b	c7 46 04 00 00
	00 00		 mov	 DWORD PTR [esi+4], 0
  00022	e8 00 00 00 00	 call	 ?FreeDataChain@CPlex@@QAEXXZ ; CPlex::FreeDataChain

; 873  : 	m_pBlocks = NULL;

  00027	c7 46 14 00 00
	00 00		 mov	 DWORD PTR [esi+20], 0
  0002e	5e		 pop	 esi

; 874  : }

  0002f	c3		 ret	 0
?RemoveAll@?$CList@NN@@QAEXXZ ENDP			; CList<double,double>::RemoveAll
_TEXT	ENDS
; Function compile flags: /Ogtp
; File C:\Program Files (x86)\Microsoft Visual Studio\2019\Community\VC\Tools\MSVC\14.29.30133\atlmfc\include\afxtempl.h
;	COMDAT ?AddTail@?$CList@NN@@QAEPAU__POSITION@@N@Z
_TEXT	SEGMENT
_newElement$ = 8					; size = 8
?AddTail@?$CList@NN@@QAEPAU__POSITION@@N@Z PROC		; CList<double,double>::AddTail, COMDAT
; _this$ = ecx

; 965  : {

  00000	55		 push	 ebp
  00001	8b ec		 mov	 ebp, esp
  00003	56		 push	 esi
  00004	8b f1		 mov	 esi, ecx
  00006	57		 push	 edi

; 902  : 	if (m_pNodeFree == NULL)

  00007	83 7e 10 00	 cmp	 DWORD PTR [esi+16], 0

; 966  : 	ASSERT_VALID(this);
; 967  : 
; 968  : 	CNode* pNewNode = NewNode(m_pNodeTail, NULL);

  0000b	8b 7e 08	 mov	 edi, DWORD PTR [esi+8]

; 902  : 	if (m_pNodeFree == NULL)

  0000e	75 33		 jne	 SHORT $LN11@AddTail

; 903  : 	{
; 904  : 		// add another block
; 905  : 		CPlex* pNewBlock = CPlex::Create(m_pBlocks, m_nBlockSize,

  00010	6a 10		 push	 16			; 00000010H
  00012	ff 76 18	 push	 DWORD PTR [esi+24]
  00015	8d 46 14	 lea	 eax, DWORD PTR [esi+20]
  00018	50		 push	 eax
  00019	e8 00 00 00 00	 call	 ?Create@CPlex@@SGPAU1@AAPAU1@II@Z ; CPlex::Create

; 906  : 				 sizeof(CNode));
; 907  : 
; 908  : 		// chain them into free list
; 909  : 		CNode* pNode = (CNode*) pNewBlock->data();
; 910  : 		// free in reverse order to make it easier to debug
; 911  : 		pNode += m_nBlockSize - 1;

  0001e	8b 56 18	 mov	 edx, DWORD PTR [esi+24]
  00021	83 c0 08	 add	 eax, 8
  00024	8b ca		 mov	 ecx, edx
  00026	c1 e1 04	 shl	 ecx, 4
  00029	83 c1 f0	 add	 ecx, -16		; fffffff0H
  0002c	03 c8		 add	 ecx, eax

; 912  : 		for (INT_PTR i = m_nBlockSize-1; i >= 0; i--, pNode--)

  0002e	83 c2 ff	 add	 edx, -1
  00031	78 10		 js	 SHORT $LN11@AddTail
$LL8@AddTail:

; 913  : 		{
; 914  : 			pNode->pNext = m_pNodeFree;

  00033	8b 46 10	 mov	 eax, DWORD PTR [esi+16]
  00036	89 01		 mov	 DWORD PTR [ecx], eax

; 915  : 			m_pNodeFree = pNode;

  00038	89 4e 10	 mov	 DWORD PTR [esi+16], ecx
  0003b	83 e9 10	 sub	 ecx, 16			; 00000010H
  0003e	83 ea 01	 sub	 edx, 1
  00041	79 f0		 jns	 SHORT $LL8@AddTail
$LN11@AddTail:

; 916  : 		}
; 917  : 	}
; 918  : 	ENSURE(m_pNodeFree != NULL);  // we must have something

  00043	8b 4e 10	 mov	 ecx, DWORD PTR [esi+16]
  00046	85 c9		 test	 ecx, ecx
  00048	74 3d		 je	 SHORT $LN22@AddTail

; 919  : 
; 920  : 	CList::CNode* pNode = m_pNodeFree;
; 921  : 	m_pNodeFree = m_pNodeFree->pNext;

  0004a	8b 01		 mov	 eax, DWORD PTR [ecx]

; 969  : 	pNewNode->data = newElement;

  0004c	f2 0f 10 45 08	 movsd	 xmm0, QWORD PTR _newElement$[ebp]

; 921  : 	m_pNodeFree = m_pNodeFree->pNext;

  00051	89 46 10	 mov	 DWORD PTR [esi+16], eax

; 922  : 	pNode->pPrev = pPrev;

  00054	89 79 04	 mov	 DWORD PTR [ecx+4], edi

; 923  : 	pNode->pNext = pNext;

  00057	c7 01 00 00 00
	00		 mov	 DWORD PTR [ecx], 0

; 924  : 	m_nCount++;

  0005d	ff 46 0c	 inc	 DWORD PTR [esi+12]

; 969  : 	pNewNode->data = newElement;

  00060	f2 0f 11 41 08	 movsd	 QWORD PTR [ecx+8], xmm0

; 970  : 	if (m_pNodeTail != NULL)

  00065	8b 46 08	 mov	 eax, DWORD PTR [esi+8]
  00068	85 c0		 test	 eax, eax
  0006a	74 0d		 je	 SHORT $LN2@AddTail

; 971  : 		m_pNodeTail->pNext = pNewNode;

  0006c	89 08		 mov	 DWORD PTR [eax], ecx

; 972  : 	else
; 973  : 		m_pNodeHead = pNewNode;
; 974  : 	m_pNodeTail = pNewNode;
; 975  : 	return (POSITION) pNewNode;

  0006e	8b c1		 mov	 eax, ecx
  00070	5f		 pop	 edi
  00071	89 4e 08	 mov	 DWORD PTR [esi+8], ecx
  00074	5e		 pop	 esi

; 976  : }

  00075	5d		 pop	 ebp
  00076	c2 08 00	 ret	 8
$LN2@AddTail:

; 972  : 	else
; 973  : 		m_pNodeHead = pNewNode;
; 974  : 	m_pNodeTail = pNewNode;
; 975  : 	return (POSITION) pNewNode;

  00079	5f		 pop	 edi
  0007a	89 4e 04	 mov	 DWORD PTR [esi+4], ecx
  0007d	8b c1		 mov	 eax, ecx
  0007f	89 4e 08	 mov	 DWORD PTR [esi+8], ecx
  00082	5e		 pop	 esi

; 976  : }

  00083	5d		 pop	 ebp
  00084	c2 08 00	 ret	 8
$LN22@AddTail:

; 918  : 	ENSURE(m_pNodeFree != NULL);  // we must have something

  00087	e8 00 00 00 00	 call	 ?AfxThrowInvalidArgException@@YGXXZ ; AfxThrowInvalidArgException
$LN20@AddTail:
  0008c	cc		 int	 3
?AddTail@?$CList@NN@@QAEPAU__POSITION@@N@Z ENDP		; CList<double,double>::AddTail
_TEXT	ENDS
; Function compile flags: /Ogtp
; File C:\Program Files (x86)\Microsoft Visual Studio\2019\Community\VC\Tools\MSVC\14.29.30133\atlmfc\include\afxtempl.h
;	COMDAT ??0?$CList@NN@@QAE@H@Z
_TEXT	SEGMENT
_nBlockSize$ = 8					; size = 4
??0?$CList@NN@@QAE@H@Z PROC				; CList<double,double>::CList<double,double>, COMDAT
; _this$ = ecx

; 851  : {

  00000	55		 push	 ebp
  00001	8b ec		 mov	 ebp, esp

; 852  : 	ASSERT(nBlockSize > 0);
; 853  : 
; 854  : 	m_nCount = 0;
; 855  : 	m_pNodeHead = m_pNodeTail = m_pNodeFree = NULL;
; 856  : 	m_pBlocks = NULL;
; 857  : 	m_nBlockSize = nBlockSize;

  00003	8b 45 08	 mov	 eax, DWORD PTR _nBlockSize$[ebp]
  00006	89 41 18	 mov	 DWORD PTR [ecx+24], eax

; 858  : }

  00009	8b c1		 mov	 eax, ecx
  0000b	c7 01 00 00 00
	00		 mov	 DWORD PTR [ecx], OFFSET ??_7?$CList@NN@@6B@
  00011	c7 41 0c 00 00
	00 00		 mov	 DWORD PTR [ecx+12], 0
  00018	c7 41 10 00 00
	00 00		 mov	 DWORD PTR [ecx+16], 0
  0001f	c7 41 08 00 00
	00 00		 mov	 DWORD PTR [ecx+8], 0
  00026	c7 41 04 00 00
	00 00		 mov	 DWORD PTR [ecx+4], 0
  0002d	c7 41 14 00 00
	00 00		 mov	 DWORD PTR [ecx+20], 0
  00034	5d		 pop	 ebp
  00035	c2 04 00	 ret	 4
??0?$CList@NN@@QAE@H@Z ENDP				; CList<double,double>::CList<double,double>
_TEXT	ENDS
; Function compile flags: /Ogtp
; File D:\git\src\IBK\IBK_DRFN\ProjSrc\SrcChartEx\ChartOCX\Include_Chart\GraphData.h
;	COMDAT ?GetHorizontalLine@CSubGraphDataBase@@QBEABV?$CArray@PAU_ST_HORZLINE@@PAU1@@@XZ
_TEXT	SEGMENT
?GetHorizontalLine@CSubGraphDataBase@@QBEABV?$CArray@PAU_ST_HORZLINE@@PAU1@@@XZ PROC ; CSubGraphDataBase::GetHorizontalLine, COMDAT
; _this$ = ecx

; 313  : 	const CArray<ST_HORZLINE*, ST_HORZLINE*>& GetHorizontalLine() const { return m_arrHorzLine; }

  00000	8d 41 70	 lea	 eax, DWORD PTR [ecx+112]
  00003	c3		 ret	 0
?GetHorizontalLine@CSubGraphDataBase@@QBEABV?$CArray@PAU_ST_HORZLINE@@PAU1@@@XZ ENDP ; CSubGraphDataBase::GetHorizontalLine
_TEXT	ENDS
; Function compile flags: /Ogtp
;	COMDAT ??0CGraphData@@QAE@ABV0@@Z
_TEXT	SEGMENT
_this$ = -16						; size = 4
__$EHRec$ = -12						; size = 12
___that$ = 8						; size = 4
??0CGraphData@@QAE@ABV0@@Z PROC				; CGraphData::CGraphData, COMDAT
; _this$ = ecx
  00000	55		 push	 ebp
  00001	8b ec		 mov	 ebp, esp
  00003	6a ff		 push	 -1
  00005	68 00 00 00 00	 push	 __ehhandler$??0CGraphData@@QAE@ABV0@@Z
  0000a	64 a1 00 00 00
	00		 mov	 eax, DWORD PTR fs:0
  00010	50		 push	 eax
  00011	51		 push	 ecx
  00012	56		 push	 esi
  00013	57		 push	 edi
  00014	a1 00 00 00 00	 mov	 eax, DWORD PTR ___security_cookie
  00019	33 c5		 xor	 eax, ebp
  0001b	50		 push	 eax
  0001c	8d 45 f4	 lea	 eax, DWORD PTR __$EHRec$[ebp]
  0001f	64 a3 00 00 00
	00		 mov	 DWORD PTR fs:0, eax
  00025	8b f9		 mov	 edi, ecx
  00027	89 7d f0	 mov	 DWORD PTR _this$[ebp], edi
  0002a	8b 75 08	 mov	 esi, DWORD PTR ___that$[ebp]
  0002d	8d 4f 04	 lea	 ecx, DWORD PTR [edi+4]
  00030	c7 07 00 00 00
	00		 mov	 DWORD PTR [edi], OFFSET ??_7CGraphData@@6B@
  00036	8d 46 04	 lea	 eax, DWORD PTR [esi+4]
  00039	50		 push	 eax
  0003a	ff 15 00 00 00
	00		 call	 DWORD PTR __imp_??0?$CStringT@DV?$StrTraitMFC_DLL@DV?$ChTraitsCRT@D@ATL@@@@@ATL@@QAE@ABV01@@Z
  00040	8d 46 08	 lea	 eax, DWORD PTR [esi+8]
  00043	c7 45 fc 00 00
	00 00		 mov	 DWORD PTR __$EHRec$[ebp+8], 0
  0004a	50		 push	 eax
  0004b	8d 4f 08	 lea	 ecx, DWORD PTR [edi+8]
  0004e	e8 00 00 00 00	 call	 ??0CSignalData@@QAE@ABV0@@Z ; CSignalData::CSignalData
  00053	8d 46 10	 lea	 eax, DWORD PTR [esi+16]
  00056	c6 45 fc 01	 mov	 BYTE PTR __$EHRec$[ebp+8], 1
  0005a	50		 push	 eax
  0005b	8d 4f 10	 lea	 ecx, DWORD PTR [edi+16]
  0005e	e8 00 00 00 00	 call	 ??0CGraphDataDrawingData@@QAE@ABV0@@Z ; CGraphDataDrawingData::CGraphDataDrawingData
  00063	8d 46 1c	 lea	 eax, DWORD PTR [esi+28]
  00066	50		 push	 eax
  00067	8d 4f 1c	 lea	 ecx, DWORD PTR [edi+28]
  0006a	ff 15 00 00 00
	00		 call	 DWORD PTR __imp_??0?$CStringT@DV?$StrTraitMFC_DLL@DV?$ChTraitsCRT@D@ATL@@@@@ATL@@QAE@ABV01@@Z
  00070	8d 46 20	 lea	 eax, DWORD PTR [esi+32]
  00073	c6 45 fc 02	 mov	 BYTE PTR __$EHRec$[ebp+8], 2
  00077	50		 push	 eax
  00078	8d 4f 20	 lea	 ecx, DWORD PTR [edi+32]
  0007b	ff 15 00 00 00
	00		 call	 DWORD PTR __imp_??0?$CStringT@DV?$StrTraitMFC_DLL@DV?$ChTraitsCRT@D@ATL@@@@@ATL@@QAE@ABV01@@Z
  00081	8b c7		 mov	 eax, edi
  00083	8b 4d f4	 mov	 ecx, DWORD PTR __$EHRec$[ebp]
  00086	64 89 0d 00 00
	00 00		 mov	 DWORD PTR fs:0, ecx
  0008d	59		 pop	 ecx
  0008e	5f		 pop	 edi
  0008f	5e		 pop	 esi
  00090	8b e5		 mov	 esp, ebp
  00092	5d		 pop	 ebp
  00093	c2 04 00	 ret	 4
_TEXT	ENDS
;	COMDAT text$x
text$x	SEGMENT
__unwindfunclet$??0CGraphData@@QAE@ABV0@@Z$0:
  00000	8b 4d f0	 mov	 ecx, DWORD PTR _this$[ebp]
  00003	83 c1 04	 add	 ecx, 4
  00006	ff 25 00 00 00
	00		 jmp	 DWORD PTR __imp_??1?$CStringT@DV?$StrTraitMFC_DLL@DV?$ChTraitsCRT@D@ATL@@@@@ATL@@QAE@XZ
__unwindfunclet$??0CGraphData@@QAE@ABV0@@Z$1:
  0000c	8b 4d f0	 mov	 ecx, DWORD PTR _this$[ebp]
  0000f	83 c1 08	 add	 ecx, 8
  00012	e9 00 00 00 00	 jmp	 ??1CSignalData@@QAE@XZ	; CSignalData::~CSignalData
__unwindfunclet$??0CGraphData@@QAE@ABV0@@Z$2:
  00017	8b 4d f0	 mov	 ecx, DWORD PTR _this$[ebp]
  0001a	83 c1 1c	 add	 ecx, 28			; 0000001cH
  0001d	ff 25 00 00 00
	00		 jmp	 DWORD PTR __imp_??1?$CStringT@DV?$StrTraitMFC_DLL@DV?$ChTraitsCRT@D@ATL@@@@@ATL@@QAE@XZ
  00023	cc		 int	 3
  00024	cc		 int	 3
  00025	cc		 int	 3
  00026	cc		 int	 3
  00027	cc		 int	 3
__ehhandler$??0CGraphData@@QAE@ABV0@@Z:
  00028	90		 npad	 1
  00029	90		 npad	 1
  0002a	8b 54 24 08	 mov	 edx, DWORD PTR [esp+8]
  0002e	8d 42 0c	 lea	 eax, DWORD PTR [edx+12]
  00031	8b 4a f0	 mov	 ecx, DWORD PTR [edx-16]
  00034	33 c8		 xor	 ecx, eax
  00036	e8 00 00 00 00	 call	 @__security_check_cookie@4
  0003b	b8 00 00 00 00	 mov	 eax, OFFSET __ehfuncinfo$??0CGraphData@@QAE@ABV0@@Z
  00040	e9 00 00 00 00	 jmp	 ___CxxFrameHandler3
text$x	ENDS
??0CGraphData@@QAE@ABV0@@Z ENDP				; CGraphData::CGraphData
; Function compile flags: /Ogtp
;	COMDAT ??1CGraphData@@QAE@XZ
_TEXT	SEGMENT
??1CGraphData@@QAE@XZ PROC				; CGraphData::~CGraphData, COMDAT
; _this$ = ecx
  00000	56		 push	 esi
  00001	8b f1		 mov	 esi, ecx
  00003	8d 4e 20	 lea	 ecx, DWORD PTR [esi+32]
  00006	ff 15 00 00 00
	00		 call	 DWORD PTR __imp_??1?$CStringT@DV?$StrTraitMFC_DLL@DV?$ChTraitsCRT@D@ATL@@@@@ATL@@QAE@XZ
  0000c	8d 4e 1c	 lea	 ecx, DWORD PTR [esi+28]
  0000f	ff 15 00 00 00
	00		 call	 DWORD PTR __imp_??1?$CStringT@DV?$StrTraitMFC_DLL@DV?$ChTraitsCRT@D@ATL@@@@@ATL@@QAE@XZ
  00015	8d 4e 08	 lea	 ecx, DWORD PTR [esi+8]
  00018	e8 00 00 00 00	 call	 ??1CSignalData@@QAE@XZ	; CSignalData::~CSignalData
  0001d	8d 4e 04	 lea	 ecx, DWORD PTR [esi+4]
  00020	5e		 pop	 esi
  00021	ff 25 00 00 00
	00		 jmp	 DWORD PTR __imp_??1?$CStringT@DV?$StrTraitMFC_DLL@DV?$ChTraitsCRT@D@ATL@@@@@ATL@@QAE@XZ
??1CGraphData@@QAE@XZ ENDP				; CGraphData::~CGraphData
_TEXT	ENDS
; Function compile flags: /Ogtp
; File D:\git\src\IBK\IBK_DRFN\ProjSrc\SrcChartEx\ChartOCX\Include_Chart\GraphData.h
;	COMDAT ?GetIndicatorName2@CGraphData@@QBE?AV?$CStringT@DV?$StrTraitMFC_DLL@DV?$ChTraitsCRT@D@ATL@@@@@ATL@@XZ
_TEXT	SEGMENT
___$ReturnUdt$ = 8					; size = 4
?GetIndicatorName2@CGraphData@@QBE?AV?$CStringT@DV?$StrTraitMFC_DLL@DV?$ChTraitsCRT@D@ATL@@@@@ATL@@XZ PROC ; CGraphData::GetIndicatorName2, COMDAT
; _this$ = ecx

; 232  : 	CString			GetIndicatorName2( void) const							{	return GetIndicatorName();					}

  00000	55		 push	 ebp
  00001	8b ec		 mov	 ebp, esp

; 229  : 	CString			GetIndicatorName( void) const							{	return m_strIndicatorName;					}

  00003	8d 41 1c	 lea	 eax, DWORD PTR [ecx+28]
  00006	8b 4d 08	 mov	 ecx, DWORD PTR ___$ReturnUdt$[ebp]
  00009	50		 push	 eax
  0000a	ff 15 00 00 00
	00		 call	 DWORD PTR __imp_??0?$CStringT@DV?$StrTraitMFC_DLL@DV?$ChTraitsCRT@D@ATL@@@@@ATL@@QAE@ABV01@@Z

; 232  : 	CString			GetIndicatorName2( void) const							{	return GetIndicatorName();					}

  00010	8b 45 08	 mov	 eax, DWORD PTR ___$ReturnUdt$[ebp]
  00013	5d		 pop	 ebp
  00014	c2 04 00	 ret	 4
?GetIndicatorName2@CGraphData@@QBE?AV?$CStringT@DV?$StrTraitMFC_DLL@DV?$ChTraitsCRT@D@ATL@@@@@ATL@@XZ ENDP ; CGraphData::GetIndicatorName2
_TEXT	ENDS
; Function compile flags: /Ogtp
; File D:\git\src\IBK\IBK_DRFN\ProjSrc\SrcChartEx\ChartOCX\Include_Chart\GraphData.h
;	COMDAT ?GetGraphName2@CGraphData@@QBE?AV?$CStringT@DV?$StrTraitMFC_DLL@DV?$ChTraitsCRT@D@ATL@@@@@ATL@@XZ
_TEXT	SEGMENT
___$ReturnUdt$ = 8					; size = 4
?GetGraphName2@CGraphData@@QBE?AV?$CStringT@DV?$StrTraitMFC_DLL@DV?$ChTraitsCRT@D@ATL@@@@@ATL@@XZ PROC ; CGraphData::GetGraphName2, COMDAT
; _this$ = ecx

; 231  : 	CString			GetGraphName2( void) const								{	return GetGraphName();						}

  00000	55		 push	 ebp
  00001	8b ec		 mov	 ebp, esp

; 228  : 	CString			GetGraphName( void) const								{	return m_strGraphName;						}

  00003	8d 41 20	 lea	 eax, DWORD PTR [ecx+32]
  00006	8b 4d 08	 mov	 ecx, DWORD PTR ___$ReturnUdt$[ebp]
  00009	50		 push	 eax
  0000a	ff 15 00 00 00
	00		 call	 DWORD PTR __imp_??0?$CStringT@DV?$StrTraitMFC_DLL@DV?$ChTraitsCRT@D@ATL@@@@@ATL@@QAE@ABV01@@Z

; 231  : 	CString			GetGraphName2( void) const								{	return GetGraphName();						}

  00010	8b 45 08	 mov	 eax, DWORD PTR ___$ReturnUdt$[ebp]
  00013	5d		 pop	 ebp
  00014	c2 04 00	 ret	 4
?GetGraphName2@CGraphData@@QBE?AV?$CStringT@DV?$StrTraitMFC_DLL@DV?$ChTraitsCRT@D@ATL@@@@@ATL@@XZ ENDP ; CGraphData::GetGraphName2
_TEXT	ENDS
; Function compile flags: /Ogtp
; File D:\git\src\IBK\IBK_DRFN\ProjSrc\SrcChartEx\ChartOCX\Include_Chart\GraphData.h
;	COMDAT ?GetIndicatorName@CGraphData@@QBE?AV?$CStringT@DV?$StrTraitMFC_DLL@DV?$ChTraitsCRT@D@ATL@@@@@ATL@@XZ
_TEXT	SEGMENT
___$ReturnUdt$ = 8					; size = 4
?GetIndicatorName@CGraphData@@QBE?AV?$CStringT@DV?$StrTraitMFC_DLL@DV?$ChTraitsCRT@D@ATL@@@@@ATL@@XZ PROC ; CGraphData::GetIndicatorName, COMDAT
; _this$ = ecx

; 229  : 	CString			GetIndicatorName( void) const							{	return m_strIndicatorName;					}

  00000	55		 push	 ebp
  00001	8b ec		 mov	 ebp, esp
  00003	8d 41 1c	 lea	 eax, DWORD PTR [ecx+28]
  00006	8b 4d 08	 mov	 ecx, DWORD PTR ___$ReturnUdt$[ebp]
  00009	50		 push	 eax
  0000a	ff 15 00 00 00
	00		 call	 DWORD PTR __imp_??0?$CStringT@DV?$StrTraitMFC_DLL@DV?$ChTraitsCRT@D@ATL@@@@@ATL@@QAE@ABV01@@Z
  00010	8b 45 08	 mov	 eax, DWORD PTR ___$ReturnUdt$[ebp]
  00013	5d		 pop	 ebp
  00014	c2 04 00	 ret	 4
?GetIndicatorName@CGraphData@@QBE?AV?$CStringT@DV?$StrTraitMFC_DLL@DV?$ChTraitsCRT@D@ATL@@@@@ATL@@XZ ENDP ; CGraphData::GetIndicatorName
_TEXT	ENDS
; Function compile flags: /Ogtp
; File D:\git\src\IBK\IBK_DRFN\ProjSrc\SrcChartEx\ChartOCX\Include_Chart\GraphData.h
;	COMDAT ?GetGraphName@CGraphData@@QBE?AV?$CStringT@DV?$StrTraitMFC_DLL@DV?$ChTraitsCRT@D@ATL@@@@@ATL@@XZ
_TEXT	SEGMENT
___$ReturnUdt$ = 8					; size = 4
?GetGraphName@CGraphData@@QBE?AV?$CStringT@DV?$StrTraitMFC_DLL@DV?$ChTraitsCRT@D@ATL@@@@@ATL@@XZ PROC ; CGraphData::GetGraphName, COMDAT
; _this$ = ecx

; 228  : 	CString			GetGraphName( void) const								{	return m_strGraphName;						}

  00000	55		 push	 ebp
  00001	8b ec		 mov	 ebp, esp
  00003	8d 41 20	 lea	 eax, DWORD PTR [ecx+32]
  00006	8b 4d 08	 mov	 ecx, DWORD PTR ___$ReturnUdt$[ebp]
  00009	50		 push	 eax
  0000a	ff 15 00 00 00
	00		 call	 DWORD PTR __imp_??0?$CStringT@DV?$StrTraitMFC_DLL@DV?$ChTraitsCRT@D@ATL@@@@@ATL@@QAE@ABV01@@Z
  00010	8b 45 08	 mov	 eax, DWORD PTR ___$ReturnUdt$[ebp]
  00013	5d		 pop	 ebp
  00014	c2 04 00	 ret	 4
?GetGraphName@CGraphData@@QBE?AV?$CStringT@DV?$StrTraitMFC_DLL@DV?$ChTraitsCRT@D@ATL@@@@@ATL@@XZ ENDP ; CGraphData::GetGraphName
_TEXT	ENDS
; Function compile flags: /Ogtp
; File D:\git\src\IBK\IBK_DRFN\ProjSrc\SrcChartEx\ChartOCX\Include_Chart\GraphData.h
;	COMDAT ?SetGraphName@CGraphData@@MAEXABV?$CStringT@DV?$StrTraitMFC_DLL@DV?$ChTraitsCRT@D@ATL@@@@@ATL@@@Z
_TEXT	SEGMENT
_p_strGraphName$ = 8					; size = 4
?SetGraphName@CGraphData@@MAEXABV?$CStringT@DV?$StrTraitMFC_DLL@DV?$ChTraitsCRT@D@ATL@@@@@ATL@@@Z PROC ; CGraphData::SetGraphName, COMDAT
; _this$ = ecx

; 225  : 	virtual void	SetGraphName(		const CString &p_strGraphName)		{	m_strGraphName		= p_strGraphName;		}

  00000	55		 push	 ebp
  00001	8b ec		 mov	 ebp, esp
  00003	83 c1 20	 add	 ecx, 32			; 00000020H
  00006	5d		 pop	 ebp
  00007	ff 25 00 00 00
	00		 jmp	 DWORD PTR __imp_??4?$CStringT@DV?$StrTraitMFC_DLL@DV?$ChTraitsCRT@D@ATL@@@@@ATL@@QAEAAV01@ABV01@@Z
?SetGraphName@CGraphData@@MAEXABV?$CStringT@DV?$StrTraitMFC_DLL@DV?$ChTraitsCRT@D@ATL@@@@@ATL@@@Z ENDP ; CGraphData::SetGraphName
_TEXT	ENDS
; Function compile flags: /Ogtp
; File D:\git\src\IBK\IBK_DRFN\ProjSrc\SrcChartEx\ChartOCX\Include_Chart\GraphData.h
;	COMDAT ?SetIndicatorName@CGraphData@@MAEXABV?$CStringT@DV?$StrTraitMFC_DLL@DV?$ChTraitsCRT@D@ATL@@@@@ATL@@@Z
_TEXT	SEGMENT
_p_strIndicatorName$ = 8				; size = 4
?SetIndicatorName@CGraphData@@MAEXABV?$CStringT@DV?$StrTraitMFC_DLL@DV?$ChTraitsCRT@D@ATL@@@@@ATL@@@Z PROC ; CGraphData::SetIndicatorName, COMDAT
; _this$ = ecx

; 224  : 	virtual void	SetIndicatorName(	const CString &p_strIndicatorName)	{	m_strIndicatorName	= p_strIndicatorName;	}

  00000	55		 push	 ebp
  00001	8b ec		 mov	 ebp, esp
  00003	83 c1 1c	 add	 ecx, 28			; 0000001cH
  00006	5d		 pop	 ebp
  00007	ff 25 00 00 00
	00		 jmp	 DWORD PTR __imp_??4?$CStringT@DV?$StrTraitMFC_DLL@DV?$ChTraitsCRT@D@ATL@@@@@ATL@@QAEAAV01@ABV01@@Z
?SetIndicatorName@CGraphData@@MAEXABV?$CStringT@DV?$StrTraitMFC_DLL@DV?$ChTraitsCRT@D@ATL@@@@@ATL@@@Z ENDP ; CGraphData::SetIndicatorName
_TEXT	ENDS
; Function compile flags: /Ogtp
; File D:\git\src\IBK\IBK_DRFN\ProjSrc\SrcChartEx\ChartOCX\Include_Chart\GraphData.h
;	COMDAT ??0CGraphData@@QAE@XZ
_TEXT	SEGMENT
_this$ = -16						; size = 4
__$EHRec$ = -12						; size = 12
??0CGraphData@@QAE@XZ PROC				; CGraphData::CGraphData, COMDAT
; _this$ = ecx

; 181  : 	CGraphData()	{}							// (2006/11/26 - Seung-Won, Bae) Created by CIndicatorInfo Consturctor.

  00000	55		 push	 ebp
  00001	8b ec		 mov	 ebp, esp
  00003	6a ff		 push	 -1
  00005	68 00 00 00 00	 push	 __ehhandler$??0CGraphData@@QAE@XZ
  0000a	64 a1 00 00 00
	00		 mov	 eax, DWORD PTR fs:0
  00010	50		 push	 eax
  00011	51		 push	 ecx
  00012	56		 push	 esi
  00013	a1 00 00 00 00	 mov	 eax, DWORD PTR ___security_cookie
  00018	33 c5		 xor	 eax, ebp
  0001a	50		 push	 eax
  0001b	8d 45 f4	 lea	 eax, DWORD PTR __$EHRec$[ebp]
  0001e	64 a3 00 00 00
	00		 mov	 DWORD PTR fs:0, eax
  00024	8b f1		 mov	 esi, ecx
  00026	89 75 f0	 mov	 DWORD PTR _this$[ebp], esi
  00029	8d 4e 04	 lea	 ecx, DWORD PTR [esi+4]
  0002c	c7 06 00 00 00
	00		 mov	 DWORD PTR [esi], OFFSET ??_7CGraphData@@6B@
  00032	ff 15 00 00 00
	00		 call	 DWORD PTR __imp_??0?$CStringT@DV?$StrTraitMFC_DLL@DV?$ChTraitsCRT@D@ATL@@@@@ATL@@QAE@XZ
  00038	6a 00		 push	 0
  0003a	6a 00		 push	 0
  0003c	8d 4e 08	 lea	 ecx, DWORD PTR [esi+8]
  0003f	c7 45 fc 00 00
	00 00		 mov	 DWORD PTR __$EHRec$[ebp+8], 0
  00046	e8 00 00 00 00	 call	 ??0CSignalData@@QAE@_N0@Z ; CSignalData::CSignalData
  0004b	8d 4e 10	 lea	 ecx, DWORD PTR [esi+16]
  0004e	c6 45 fc 01	 mov	 BYTE PTR __$EHRec$[ebp+8], 1
  00052	e8 00 00 00 00	 call	 ??0CGraphDataDrawingData@@QAE@XZ ; CGraphDataDrawingData::CGraphDataDrawingData
  00057	8d 4e 1c	 lea	 ecx, DWORD PTR [esi+28]
  0005a	ff 15 00 00 00
	00		 call	 DWORD PTR __imp_??0?$CStringT@DV?$StrTraitMFC_DLL@DV?$ChTraitsCRT@D@ATL@@@@@ATL@@QAE@XZ
  00060	8d 4e 20	 lea	 ecx, DWORD PTR [esi+32]
  00063	ff 15 00 00 00
	00		 call	 DWORD PTR __imp_??0?$CStringT@DV?$StrTraitMFC_DLL@DV?$ChTraitsCRT@D@ATL@@@@@ATL@@QAE@XZ
  00069	8b c6		 mov	 eax, esi
  0006b	8b 4d f4	 mov	 ecx, DWORD PTR __$EHRec$[ebp]
  0006e	64 89 0d 00 00
	00 00		 mov	 DWORD PTR fs:0, ecx
  00075	59		 pop	 ecx
  00076	5e		 pop	 esi
  00077	8b e5		 mov	 esp, ebp
  00079	5d		 pop	 ebp
  0007a	c3		 ret	 0
_TEXT	ENDS
;	COMDAT text$x
text$x	SEGMENT
__unwindfunclet$??0CGraphData@@QAE@XZ$0:
  00000	8b 4d f0	 mov	 ecx, DWORD PTR _this$[ebp]
  00003	83 c1 04	 add	 ecx, 4
  00006	ff 25 00 00 00
	00		 jmp	 DWORD PTR __imp_??1?$CStringT@DV?$StrTraitMFC_DLL@DV?$ChTraitsCRT@D@ATL@@@@@ATL@@QAE@XZ
__unwindfunclet$??0CGraphData@@QAE@XZ$1:
  0000c	8b 4d f0	 mov	 ecx, DWORD PTR _this$[ebp]
  0000f	83 c1 08	 add	 ecx, 8
  00012	e9 00 00 00 00	 jmp	 ??1CSignalData@@QAE@XZ	; CSignalData::~CSignalData
  00017	cc		 int	 3
  00018	cc		 int	 3
  00019	cc		 int	 3
  0001a	cc		 int	 3
  0001b	cc		 int	 3
__ehhandler$??0CGraphData@@QAE@XZ:
  0001c	90		 npad	 1
  0001d	90		 npad	 1
  0001e	8b 54 24 08	 mov	 edx, DWORD PTR [esp+8]
  00022	8d 42 0c	 lea	 eax, DWORD PTR [edx+12]
  00025	8b 4a f4	 mov	 ecx, DWORD PTR [edx-12]
  00028	33 c8		 xor	 ecx, eax
  0002a	e8 00 00 00 00	 call	 @__security_check_cookie@4
  0002f	b8 00 00 00 00	 mov	 eax, OFFSET __ehfuncinfo$??0CGraphData@@QAE@XZ
  00034	e9 00 00 00 00	 jmp	 ___CxxFrameHandler3
text$x	ENDS
??0CGraphData@@QAE@XZ ENDP				; CGraphData::CGraphData
; Function compile flags: /Ogtp
;	COMDAT ??_FCSignalData@@QAEXXZ
_TEXT	SEGMENT
??_FCSignalData@@QAEXXZ PROC				; CSignalData::`default constructor closure', COMDAT
; _this$ = ecx
  00000	6a 00		 push	 0
  00002	6a 00		 push	 0
  00004	e8 00 00 00 00	 call	 ??0CSignalData@@QAE@_N0@Z ; CSignalData::CSignalData
  00009	c3		 ret	 0
??_FCSignalData@@QAEXXZ ENDP				; CSignalData::`default constructor closure'
_TEXT	ENDS
; Function compile flags: /Ogtp
;	COMDAT ??_ECIndicatorList@@UAEPAXI@Z
_TEXT	SEGMENT
__$EHRec$ = -12						; size = 12
___flags$ = 8						; size = 4
??_ECIndicatorList@@UAEPAXI@Z PROC			; CIndicatorList::`vector deleting destructor', COMDAT
; _this$ = ecx
  00000	55		 push	 ebp
  00001	8b ec		 mov	 ebp, esp
  00003	6a ff		 push	 -1
  00005	68 00 00 00 00	 push	 __ehhandler$??_ECIndicatorList@@UAEPAXI@Z
  0000a	64 a1 00 00 00
	00		 mov	 eax, DWORD PTR fs:0
  00010	50		 push	 eax
  00011	53		 push	 ebx
  00012	56		 push	 esi
  00013	57		 push	 edi
  00014	a1 00 00 00 00	 mov	 eax, DWORD PTR ___security_cookie
  00019	33 c5		 xor	 eax, ebp
  0001b	50		 push	 eax
  0001c	8d 45 f4	 lea	 eax, DWORD PTR __$EHRec$[ebp]
  0001f	64 a3 00 00 00
	00		 mov	 DWORD PTR fs:0, eax
  00025	8b f1		 mov	 esi, ecx
  00027	8b 45 08	 mov	 eax, DWORD PTR ___flags$[ebp]
  0002a	8b d8		 mov	 ebx, eax
  0002c	83 e3 01	 and	 ebx, 1
  0002f	a8 02		 test	 al, 2
  00031	74 40		 je	 SHORT $LN2@vector
  00033	68 00 00 00 00	 push	 OFFSET ??1CIndicatorList@@UAE@XZ ; CIndicatorList::~CIndicatorList
  00038	ff 76 fc	 push	 DWORD PTR [esi-4]
  0003b	8d 7e fc	 lea	 edi, DWORD PTR [esi-4]
  0003e	6a 08		 push	 8
  00040	56		 push	 esi
  00041	e8 00 00 00 00	 call	 ??_M@YGXPAXIIP6EX0@Z@Z
  00046	85 db		 test	 ebx, ebx
  00048	74 13		 je	 SHORT $LN3@vector
  0004a	8b 0f		 mov	 ecx, DWORD PTR [edi]
  0004c	8d 0c cd 04 00
	00 00		 lea	 ecx, DWORD PTR [ecx*8+4]
  00053	51		 push	 ecx
  00054	57		 push	 edi
  00055	e8 00 00 00 00	 call	 ??_V@YAXPAXI@Z		; operator delete[]
  0005a	83 c4 08	 add	 esp, 8
$LN3@vector:
  0005d	8b c7		 mov	 eax, edi
  0005f	8b 4d f4	 mov	 ecx, DWORD PTR __$EHRec$[ebp]
  00062	64 89 0d 00 00
	00 00		 mov	 DWORD PTR fs:0, ecx
  00069	59		 pop	 ecx
  0006a	5f		 pop	 edi
  0006b	5e		 pop	 esi
  0006c	5b		 pop	 ebx
  0006d	8b e5		 mov	 esp, ebp
  0006f	5d		 pop	 ebp
  00070	c2 04 00	 ret	 4
$LN2@vector:
  00073	e8 00 00 00 00	 call	 ??1CIndicatorList@@UAE@XZ ; CIndicatorList::~CIndicatorList
  00078	85 db		 test	 ebx, ebx
  0007a	74 0b		 je	 SHORT $LN4@vector
  0007c	6a 08		 push	 8
  0007e	56		 push	 esi
  0007f	e8 00 00 00 00	 call	 ??3@YAXPAXI@Z		; operator delete
  00084	83 c4 08	 add	 esp, 8
$LN4@vector:
  00087	8b c6		 mov	 eax, esi
  00089	8b 4d f4	 mov	 ecx, DWORD PTR __$EHRec$[ebp]
  0008c	64 89 0d 00 00
	00 00		 mov	 DWORD PTR fs:0, ecx
  00093	59		 pop	 ecx
  00094	5f		 pop	 edi
  00095	5e		 pop	 esi
  00096	5b		 pop	 ebx
  00097	8b e5		 mov	 esp, ebp
  00099	5d		 pop	 ebp
  0009a	c2 04 00	 ret	 4
  0009d	cc		 int	 3
  0009e	cc		 int	 3
  0009f	cc		 int	 3
  000a0	cc		 int	 3
  000a1	cc		 int	 3
_TEXT	ENDS
;	COMDAT text$x
text$x	SEGMENT
__ehhandler$??_ECIndicatorList@@UAEPAXI@Z:
  00000	90		 npad	 1
  00001	90		 npad	 1
  00002	8b 54 24 08	 mov	 edx, DWORD PTR [esp+8]
  00006	8d 42 0c	 lea	 eax, DWORD PTR [edx+12]
  00009	8b 4a f0	 mov	 ecx, DWORD PTR [edx-16]
  0000c	33 c8		 xor	 ecx, eax
  0000e	e8 00 00 00 00	 call	 @__security_check_cookie@4
  00013	b8 00 00 00 00	 mov	 eax, OFFSET __ehfuncinfo$??_ECIndicatorList@@UAEPAXI@Z
  00018	e9 00 00 00 00	 jmp	 ___CxxFrameHandler3
text$x	ENDS
??_ECIndicatorList@@UAEPAXI@Z ENDP			; CIndicatorList::`vector deleting destructor'
; Function compile flags: /Ogtp
;	COMDAT ??_GCIndicatorList@@UAEPAXI@Z
_TEXT	SEGMENT
___flags$ = 8						; size = 4
??_GCIndicatorList@@UAEPAXI@Z PROC			; CIndicatorList::`scalar deleting destructor', COMDAT
; _this$ = ecx
  00000	55		 push	 ebp
  00001	8b ec		 mov	 ebp, esp
  00003	56		 push	 esi
  00004	8b f1		 mov	 esi, ecx
  00006	e8 00 00 00 00	 call	 ??1CIndicatorList@@UAE@XZ ; CIndicatorList::~CIndicatorList
  0000b	f6 45 08 01	 test	 BYTE PTR ___flags$[ebp], 1
  0000f	74 0b		 je	 SHORT $LN4@scalar
  00011	6a 08		 push	 8
  00013	56		 push	 esi
  00014	e8 00 00 00 00	 call	 ??3@YAXPAXI@Z		; operator delete
  00019	83 c4 08	 add	 esp, 8
$LN4@scalar:
  0001c	8b c6		 mov	 eax, esi
  0001e	5e		 pop	 esi
  0001f	5d		 pop	 ebp
  00020	c2 04 00	 ret	 4
??_GCIndicatorList@@UAEPAXI@Z ENDP			; CIndicatorList::`scalar deleting destructor'
_TEXT	ENDS
; Function compile flags: /Ogtp
;	COMDAT ??4CIndicatorList@@QAEAAV0@ABV0@@Z
_TEXT	SEGMENT
___that$ = 8						; size = 4
??4CIndicatorList@@QAEAAV0@ABV0@@Z PROC			; CIndicatorList::operator=, COMDAT
; _this$ = ecx
  00000	55		 push	 ebp
  00001	8b ec		 mov	 ebp, esp
  00003	8b 45 08	 mov	 eax, DWORD PTR ___that$[ebp]
  00006	8b 40 04	 mov	 eax, DWORD PTR [eax+4]
  00009	89 41 04	 mov	 DWORD PTR [ecx+4], eax
  0000c	8b c1		 mov	 eax, ecx
  0000e	5d		 pop	 ebp
  0000f	c2 04 00	 ret	 4
??4CIndicatorList@@QAEAAV0@ABV0@@Z ENDP			; CIndicatorList::operator=
_TEXT	ENDS
; Function compile flags: /Ogtp
;	COMDAT ??0CIndicatorList@@QAE@ABV0@@Z
_TEXT	SEGMENT
___that$ = 8						; size = 4
??0CIndicatorList@@QAE@ABV0@@Z PROC			; CIndicatorList::CIndicatorList, COMDAT
; _this$ = ecx
  00000	55		 push	 ebp
  00001	8b ec		 mov	 ebp, esp
  00003	8b 45 08	 mov	 eax, DWORD PTR ___that$[ebp]
  00006	c7 01 00 00 00
	00		 mov	 DWORD PTR [ecx], OFFSET ??_7CIndicatorList@@6B@
  0000c	8b 40 04	 mov	 eax, DWORD PTR [eax+4]
  0000f	89 41 04	 mov	 DWORD PTR [ecx+4], eax
  00012	8b c1		 mov	 eax, ecx
  00014	5d		 pop	 ebp
  00015	c2 04 00	 ret	 4
??0CIndicatorList@@QAE@ABV0@@Z ENDP			; CIndicatorList::CIndicatorList
_TEXT	ENDS
; Function compile flags: /Ogtp
; File C:\Program Files (x86)\Microsoft Visual Studio\2019\Community\VC\Tools\MSVC\14.29.30133\atlmfc\include\afx.inl
;	COMDAT ?Dump@CObject@@UBEXAAVCDumpContext@@@Z
_TEXT	SEGMENT
___formal$ = 8						; size = 4
?Dump@CObject@@UBEXAAVCDumpContext@@@Z PROC		; CObject::Dump, COMDAT
; _this$ = ecx

; 122  : 	{ /* no dumping in release builds */ }

  00000	c2 04 00	 ret	 4
?Dump@CObject@@UBEXAAVCDumpContext@@@Z ENDP		; CObject::Dump
_TEXT	ENDS
; Function compile flags: /Ogtp
; File C:\Program Files (x86)\Microsoft Visual Studio\2019\Community\VC\Tools\MSVC\14.29.30133\atlmfc\include\afx.inl
;	COMDAT ?AssertValid@CObject@@UBEXXZ
_TEXT	SEGMENT
?AssertValid@CObject@@UBEXXZ PROC			; CObject::AssertValid, COMDAT
; _this$ = ecx

; 120  : 	{ /* no asserts in release builds */ }

  00000	c2 00 00	 ret	 0
?AssertValid@CObject@@UBEXXZ ENDP			; CObject::AssertValid
_TEXT	ENDS
; Function compile flags: /Ogtp
; File C:\Program Files (x86)\Microsoft Visual Studio\2019\Community\VC\Tools\MSVC\14.29.30133\atlmfc\include\afx.inl
;	COMDAT ?Serialize@CObject@@UAEXAAVCArchive@@@Z
_TEXT	SEGMENT
___formal$ = 8						; size = 4
?Serialize@CObject@@UAEXAAVCArchive@@@Z PROC		; CObject::Serialize, COMDAT
; _this$ = ecx

; 106  : 	{ /* CObject does not serialize anything by default */ }

  00000	c2 04 00	 ret	 4
?Serialize@CObject@@UAEXAAVCArchive@@@Z ENDP		; CObject::Serialize
_TEXT	ENDS
; Function compile flags: /Ogtp
; File C:\Program Files (x86)\Microsoft Visual Studio\2019\Community\VC\Tools\MSVC\14.29.30133\atlmfc\include\afx.inl
;	COMDAT ??1CObject@@UAE@XZ
_TEXT	SEGMENT
??1CObject@@UAE@XZ PROC					; CObject::~CObject, COMDAT
; _this$ = ecx

; 104  : 	{ }

  00000	c2 00 00	 ret	 0
??1CObject@@UAE@XZ ENDP					; CObject::~CObject
_TEXT	ENDS
; Function compile flags: /Ogtp
; File D:\git\src\IBK\IBK_DRFN\ProjSrc\SrcChartEx\ChartOCX\IndicatorCondition\IndicatorInfoImplementation.cpp
;	COMDAT ?__empty_global_delete@@YAXPAXI@Z
_TEXT	SEGMENT
___formal$ = 8						; size = 4
___formal$ = 12						; size = 4
?__empty_global_delete@@YAXPAXI@Z PROC			; __empty_global_delete, COMDAT

  00000	c2 00 00	 ret	 0
?__empty_global_delete@@YAXPAXI@Z ENDP			; __empty_global_delete
_TEXT	ENDS
; Function compile flags: /Ogtp
; File D:\git\src\IBK\IBK_DRFN\ProjSrc\SrcChartEx\ChartOCX\IndicatorCondition\IndicatorInfoImplementation.cpp
;	COMDAT ?__empty_global_delete@@YAXPAX@Z
_TEXT	SEGMENT
___formal$ = 8						; size = 4
?__empty_global_delete@@YAXPAX@Z PROC			; __empty_global_delete, COMDAT

  00000	c2 00 00	 ret	 0
?__empty_global_delete@@YAXPAX@Z ENDP			; __empty_global_delete
_TEXT	ENDS
END
