; Listing generated by Microsoft (R) Optimizing Compiler Version 19.29.30145.0 

	TITLE	D:\git\src\IBK\IBK_DRFN\#DRfn-CS\_Obj\IndicatorCondition\IndicatorConditionBaseData.obj
	.686P
	.XMM
	include listing.inc
	.model	flat

INCLUDELIB MSVCRT
INCLUDELIB OLDNAMES

CONST	SEGMENT
?_Fake_alloc@std@@3U_Fake_allocator@1@B	ORG $+1		; std::_Fake_alloc
CONST	ENDS
PUBLIC	?__empty_global_delete@@YAXPAX@Z		; __empty_global_delete
PUBLIC	?__empty_global_delete@@YAXPAXI@Z		; __empty_global_delete
PUBLIC	??1CObject@@UAE@XZ				; CObject::~CObject
PUBLIC	??3CObject@@SGXPAX@Z				; CObject::operator delete
PUBLIC	?Serialize@CObject@@UAEXAAVCArchive@@@Z		; CObject::Serialize
PUBLIC	?AssertValid@CObject@@UBEXXZ			; CObject::AssertValid
PUBLIC	?Dump@CObject@@UBEXAAVCDumpContext@@@Z		; CObject::Dump
PUBLIC	??HATL@@YA?AV?$CStringT@DV?$StrTraitMFC_DLL@DV?$ChTraitsCRT@D@ATL@@@@@0@ABV10@PBD@Z ; ATL::operator+
PUBLIC	??0exception@std@@QAE@ABV01@@Z			; std::exception::exception
PUBLIC	??1exception@std@@UAE@XZ			; std::exception::~exception
PUBLIC	?what@exception@std@@UBEPBDXZ			; std::exception::what
PUBLIC	??_Gexception@std@@UAEPAXI@Z			; std::exception::`scalar deleting destructor'
PUBLIC	??0bad_alloc@std@@QAE@ABV01@@Z			; std::bad_alloc::bad_alloc
PUBLIC	??_Gbad_alloc@std@@UAEPAXI@Z			; std::bad_alloc::`scalar deleting destructor'
PUBLIC	??0bad_array_new_length@std@@QAE@XZ		; std::bad_array_new_length::bad_array_new_length
PUBLIC	??1bad_array_new_length@std@@UAE@XZ		; std::bad_array_new_length::~bad_array_new_length
PUBLIC	??0bad_array_new_length@std@@QAE@ABV01@@Z	; std::bad_array_new_length::bad_array_new_length
PUBLIC	??_Gbad_array_new_length@std@@UAEPAXI@Z		; std::bad_array_new_length::`scalar deleting destructor'
PUBLIC	?_Throw_bad_array_new_length@std@@YAXXZ		; std::_Throw_bad_array_new_length
PUBLIC	??0CIndicatorList@@QAE@ABV0@@Z			; CIndicatorList::CIndicatorList
PUBLIC	??4CIndicatorList@@QAEAAV0@ABV0@@Z		; CIndicatorList::operator=
PUBLIC	??_GCIndicatorList@@UAEPAXI@Z			; CIndicatorList::`scalar deleting destructor'
PUBLIC	??_ECIndicatorList@@UAEPAXI@Z			; CIndicatorList::`vector deleting destructor'
PUBLIC	??_FCSignalData@@QAEXXZ				; CSignalData::`default constructor closure'
PUBLIC	??0CGraphData@@QAE@XZ				; CGraphData::CGraphData
PUBLIC	?SetIndicatorName@CGraphData@@MAEXABV?$CStringT@DV?$StrTraitMFC_DLL@DV?$ChTraitsCRT@D@ATL@@@@@ATL@@@Z ; CGraphData::SetIndicatorName
PUBLIC	?SetGraphName@CGraphData@@MAEXABV?$CStringT@DV?$StrTraitMFC_DLL@DV?$ChTraitsCRT@D@ATL@@@@@ATL@@@Z ; CGraphData::SetGraphName
PUBLIC	?GetGraphName@CGraphData@@QBE?AV?$CStringT@DV?$StrTraitMFC_DLL@DV?$ChTraitsCRT@D@ATL@@@@@ATL@@XZ ; CGraphData::GetGraphName
PUBLIC	?GetIndicatorName@CGraphData@@QBE?AV?$CStringT@DV?$StrTraitMFC_DLL@DV?$ChTraitsCRT@D@ATL@@@@@ATL@@XZ ; CGraphData::GetIndicatorName
PUBLIC	?GetGraphName2@CGraphData@@QBE?AV?$CStringT@DV?$StrTraitMFC_DLL@DV?$ChTraitsCRT@D@ATL@@@@@ATL@@XZ ; CGraphData::GetGraphName2
PUBLIC	?GetIndicatorName2@CGraphData@@QBE?AV?$CStringT@DV?$StrTraitMFC_DLL@DV?$ChTraitsCRT@D@ATL@@@@@ATL@@XZ ; CGraphData::GetIndicatorName2
PUBLIC	??1CGraphData@@QAE@XZ				; CGraphData::~CGraphData
PUBLIC	??0CGraphData@@QAE@ABV0@@Z			; CGraphData::CGraphData
PUBLIC	?GetHorizontalLine@CSubGraphDataBase@@QBEABV?$CArray@PAU_ST_HORZLINE@@PAU1@@@XZ ; CSubGraphDataBase::GetHorizontalLine
PUBLIC	??4CSubGraphPartData@@QAEAAV0@ABV0@@Z		; CSubGraphPartData::operator=
PUBLIC	??0CSubGraphPartData@@QAE@XZ			; CSubGraphPartData::CSubGraphPartData
PUBLIC	??0CSubGraphPartData@@QAE@ABV0@@Z		; CSubGraphPartData::CSubGraphPartData
PUBLIC	??0CSubGraphPartData@@QAE@ABVCSubGraphData@@@Z	; CSubGraphPartData::CSubGraphPartData
PUBLIC	??1CSubGraphPartData@@UAE@XZ			; CSubGraphPartData::~CSubGraphPartData
PUBLIC	?GetConditionList@CSubGraphPartData@@QBEABV?$CList@NN@@XZ ; CSubGraphPartData::GetConditionList
PUBLIC	?GetConditionList@CSubGraphPartData@@QAEAAV?$CList@NN@@XZ ; CSubGraphPartData::GetConditionList
PUBLIC	?GetSubGraphData@CSubGraphPartData@@QBEABVCSubGraphData@@XZ ; CSubGraphPartData::GetSubGraphData
PUBLIC	?GetSubGraphData@CSubGraphPartData@@QAEAAVCSubGraphData@@XZ ; CSubGraphPartData::GetSubGraphData
PUBLIC	?GetSubGraphData_PointeType@CSubGraphPartData@@QAEPAVCSubGraphData@@XZ ; CSubGraphPartData::GetSubGraphData_PointeType
PUBLIC	?GetConditionData@CSubGraphPartData@@QBE_NHAAN@Z ; CSubGraphPartData::GetConditionData
PUBLIC	?GetConditionData@CSubGraphPartData@@QBE_NHAAV?$CStringT@DV?$StrTraitMFC_DLL@DV?$ChTraitsCRT@D@ATL@@@@@ATL@@@Z ; CSubGraphPartData::GetConditionData
PUBLIC	?GetCalPacketNames@CSubGraphPartData@@QBE?AV?$CStringT@DV?$StrTraitMFC_DLL@DV?$ChTraitsCRT@D@ATL@@@@@ATL@@XZ ; CSubGraphPartData::GetCalPacketNames
PUBLIC	?GetSubGraphName@CSubGraphPartData@@QBE?AV?$CStringT@DV?$StrTraitMFC_DLL@DV?$ChTraitsCRT@D@ATL@@@@@ATL@@XZ ; CSubGraphPartData::GetSubGraphName
PUBLIC	?GetSubGraphStringData@CSubGraphPartData@@QBEXAAV?$CStringT@DV?$StrTraitMFC_DLL@DV?$ChTraitsCRT@D@ATL@@@@@ATL@@@Z ; CSubGraphPartData::GetSubGraphStringData
PUBLIC	?GetSubGraphStringData@CSubGraphPartData@@QAEXAAV?$CStringT@DV?$StrTraitMFC_DLL@DV?$ChTraitsCRT@D@ATL@@@@@ATL@@H_N@Z ; CSubGraphPartData::GetSubGraphStringData
PUBLIC	?CopyDataWithVerificationFrom@CSubGraphPartData@@QAE_NPBV1@@Z ; CSubGraphPartData::CopyDataWithVerificationFrom
PUBLIC	?CopyDataWithVerificationFrom@CSubGraphPartData@@QAE_NABVCSubGraphData@@@Z ; CSubGraphPartData::CopyDataWithVerificationFrom
PUBLIC	?SetCalPacketNames@CSubGraphPartData@@QAE_NPBD@Z ; CSubGraphPartData::SetCalPacketNames
PUBLIC	?SetCalPacketNames@CSubGraphPartData@@QAE_NPBD_N@Z ; CSubGraphPartData::SetCalPacketNames
PUBLIC	?SetConditionList@CSubGraphPartData@@QAEXPBDABV?$CStringT@DV?$StrTraitMFC_DLL@DV?$ChTraitsCRT@D@ATL@@@@@ATL@@@Z ; CSubGraphPartData::SetConditionList
PUBLIC	?SetCalConditionData@CSubGraphPartData@@QAE_NHABN@Z ; CSubGraphPartData::SetCalConditionData
PUBLIC	?ChangeCalConditionDataFromSubGraphTitle@CSubGraphPartData@@QAE_NXZ ; CSubGraphPartData::ChangeCalConditionDataFromSubGraphTitle
PUBLIC	?CopyConditionList@CSubGraphPartData@@AAEXABV?$CList@NN@@@Z ; CSubGraphPartData::CopyConditionList
PUBLIC	?CopyDataWithVerificationFrom@CSubGraphPartData@@AAEXABV?$CList@NN@@@Z ; CSubGraphPartData::CopyDataWithVerificationFrom
PUBLIC	?GetSubGraphStringData@CSubGraphPartData@@ABEXAAV?$CStringT@DV?$StrTraitMFC_DLL@DV?$ChTraitsCRT@D@ATL@@@@@ATL@@AAVCSubGraphData@@H_N@Z ; CSubGraphPartData::GetSubGraphStringData
PUBLIC	??0?$CList@NN@@QAE@H@Z				; CList<double,double>::CList<double,double>
PUBLIC	?AddTail@?$CList@NN@@QAEPAU__POSITION@@N@Z	; CList<double,double>::AddTail
PUBLIC	?RemoveAll@?$CList@NN@@QAEXXZ			; CList<double,double>::RemoveAll
PUBLIC	?FindIndex@?$CList@NN@@QBEPAU__POSITION@@H@Z	; CList<double,double>::FindIndex
PUBLIC	?NewNode@?$CList@NN@@IAEPAUCNode@1@PAU21@0@Z	; CList<double,double>::NewNode
PUBLIC	??1?$CList@NN@@UAE@XZ				; CList<double,double>::~CList<double,double>
PUBLIC	?Serialize@?$CList@NN@@UAEXAAVCArchive@@@Z	; CList<double,double>::Serialize
PUBLIC	??_G?$CList@NN@@UAEPAXI@Z			; CList<double,double>::`scalar deleting destructor'
PUBLIC	??_GCSubGraphPartData@@UAEPAXI@Z		; CSubGraphPartData::`scalar deleting destructor'
PUBLIC	??1?$list@PAVCSubGraphPartData@@V?$allocator@PAVCSubGraphPartData@@@std@@@std@@QAE@XZ ; std::list<CSubGraphPartData *,std::allocator<CSubGraphPartData *> >::~list<CSubGraphPartData *,std::allocator<CSubGraphPartData *> >
PUBLIC	?push_back@?$list@PAVCSubGraphPartData@@V?$allocator@PAVCSubGraphPartData@@@std@@@std@@QAEXABQAVCSubGraphPartData@@@Z ; std::list<CSubGraphPartData *,std::allocator<CSubGraphPartData *> >::push_back
PUBLIC	?MakeSubGraphPartDataList@CGraphPartData@@AAE_NPBV?$CList@PAVCSubGraphData@@PAV1@@@@Z ; CGraphPartData::MakeSubGraphPartDataList
PUBLIC	?CopySubGraphPartDataList@CGraphPartData@@AAEXPBV?$list@PAVCSubGraphPartData@@V?$allocator@PAVCSubGraphPartData@@@std@@@std@@@Z ; CGraphPartData::CopySubGraphPartDataList
PUBLIC	?SetGraphDataInVerifiable@CGraphPartData@@AAEXABVCGraphData@@@Z ; CGraphPartData::SetGraphDataInVerifiable
PUBLIC	?SetSubGraphPartDataListInVerifiable@CGraphPartData@@AAEXPBV?$list@PAVCSubGraphPartData@@V?$allocator@PAVCSubGraphPartData@@@std@@@std@@@Z ; CGraphPartData::SetSubGraphPartDataListInVerifiable
PUBLIC	?SetAllSubGraphDataList@CGraphPartData@@AAE_NPBV?$CList@PAVCSubGraphData@@PAV1@@@AAV?$list@PAVCSubGraphPartData@@V?$allocator@PAVCSubGraphPartData@@@std@@@std@@@Z ; CGraphPartData::SetAllSubGraphDataList
PUBLIC	??4CGraphPartData@@QAEAAV0@ABV0@@Z		; CGraphPartData::operator=
PUBLIC	??0CGraphPartData@@QAE@XZ			; CGraphPartData::CGraphPartData
PUBLIC	??0CGraphPartData@@QAE@ABV0@@Z			; CGraphPartData::CGraphPartData
PUBLIC	??1CGraphPartData@@UAE@XZ			; CGraphPartData::~CGraphPartData
PUBLIC	?Initialize@CGraphPartData@@QAEXXZ		; CGraphPartData::Initialize
PUBLIC	?Initialize_GraphData@CGraphPartData@@QAEXXZ	; CGraphPartData::Initialize_GraphData
PUBLIC	?AddTail@CGraphPartData@@QAEXPAVCSubGraphPartData@@@Z ; CGraphPartData::AddTail
PUBLIC	?DeleteAllSubGraph@CGraphPartData@@QAE_NXZ	; CGraphPartData::DeleteAllSubGraph
PUBLIC	?GetGroupName@CGraphPartData@@QBE?AV?$CStringT@DV?$StrTraitMFC_DLL@DV?$ChTraitsCRT@D@ATL@@@@@ATL@@XZ ; CGraphPartData::GetGroupName
PUBLIC	?GetGraphData@CGraphPartData@@QAEAAVCGraphData@@XZ ; CGraphPartData::GetGraphData
PUBLIC	?GetSubGraphPartDataList@CGraphPartData@@QAEPAV?$list@PAVCSubGraphPartData@@V?$allocator@PAVCSubGraphPartData@@@std@@@std@@XZ ; CGraphPartData::GetSubGraphPartDataList
PUBLIC	?GetGraphData@CGraphPartData@@QBEABVCGraphData@@XZ ; CGraphPartData::GetGraphData
PUBLIC	?GetSubGraphPartDataList@CGraphPartData@@QBEPBV?$list@PAVCSubGraphPartData@@V?$allocator@PAVCSubGraphPartData@@@std@@@std@@XZ ; CGraphPartData::GetSubGraphPartDataList
PUBLIC	?GetSubGraphPartDataCount@CGraphPartData@@QBEHXZ ; CGraphPartData::GetSubGraphPartDataCount
PUBLIC	?GetSubGraphPartDataIndex@CGraphPartData@@QBEHABV?$CStringT@DV?$StrTraitMFC_DLL@DV?$ChTraitsCRT@D@ATL@@@@@ATL@@@Z ; CGraphPartData::GetSubGraphPartDataIndex
PUBLIC	?GetAllSubGraphDataList@CGraphPartData@@QBE_NAAV?$CList@PAVCSubGraphData@@PAV1@@@@Z ; CGraphPartData::GetAllSubGraphDataList
PUBLIC	?GetSubGraphData@CGraphPartData@@QBEPAVCSubGraphData@@ABV?$CStringT@DV?$StrTraitMFC_DLL@DV?$ChTraitsCRT@D@ATL@@@@@ATL@@@Z ; CGraphPartData::GetSubGraphData
PUBLIC	?GetSubGraphData@CGraphPartData@@QBEPAVCSubGraphData@@H@Z ; CGraphPartData::GetSubGraphData
PUBLIC	?GetConditionList@CGraphPartData@@QBEPAV?$CList@NN@@ABV?$CStringT@DV?$StrTraitMFC_DLL@DV?$ChTraitsCRT@D@ATL@@@@@ATL@@@Z ; CGraphPartData::GetConditionList
PUBLIC	?GetConditionList@CGraphPartData@@QBEPAV?$CList@NN@@H@Z ; CGraphPartData::GetConditionList
PUBLIC	?GetPacketNames@CGraphPartData@@QBE?AV?$CStringT@DV?$StrTraitMFC_DLL@DV?$ChTraitsCRT@D@ATL@@@@@ATL@@H@Z ; CGraphPartData::GetPacketNames
PUBLIC	?GetSubGraphTitle@CGraphPartData@@QBE?AV?$CStringT@DV?$StrTraitMFC_DLL@DV?$ChTraitsCRT@D@ATL@@@@@ATL@@H@Z ; CGraphPartData::GetSubGraphTitle
PUBLIC	?GetGraphDataForMaking@CGraphPartData@@QBEXAAV?$CStringT@DV?$StrTraitMFC_DLL@DV?$ChTraitsCRT@D@ATL@@@@@ATL@@@Z ; CGraphPartData::GetGraphDataForMaking
PUBLIC	?GetGraphDataForMaking@CGraphPartData@@QBEXAAV?$CStringT@DV?$StrTraitMFC_DLL@DV?$ChTraitsCRT@D@ATL@@@@@ATL@@H_N@Z ; CGraphPartData::GetGraphDataForMaking
PUBLIC	?GetAllSubGraphDataForMaking@CGraphPartData@@QBEXAAV?$CStringT@DV?$StrTraitMFC_DLL@DV?$ChTraitsCRT@D@ATL@@@@@ATL@@@Z ; CGraphPartData::GetAllSubGraphDataForMaking
PUBLIC	?GetAllSubGraphDataForMaking@CGraphPartData@@QBEXAAV?$CStringT@DV?$StrTraitMFC_DLL@DV?$ChTraitsCRT@D@ATL@@@@@ATL@@H_N@Z ; CGraphPartData::GetAllSubGraphDataForMaking
PUBLIC	?GetSubGraphNameList@CGraphPartData@@QBE_NAAV?$CList@V?$CStringT@DV?$StrTraitMFC_DLL@DV?$ChTraitsCRT@D@ATL@@@@@ATL@@V12@@@@Z ; CGraphPartData::GetSubGraphNameList
PUBLIC	?GetSubGraphNames@CGraphPartData@@QBEHAAV?$CStringT@DV?$StrTraitMFC_DLL@DV?$ChTraitsCRT@D@ATL@@@@@ATL@@@Z ; CGraphPartData::GetSubGraphNames
PUBLIC	?GetSubGraphTitleList@CGraphPartData@@QBE_NAAV?$CList@V?$CStringT@DV?$StrTraitMFC_DLL@DV?$ChTraitsCRT@D@ATL@@@@@ATL@@V12@@@@Z ; CGraphPartData::GetSubGraphTitleList
PUBLIC	?GetSubGraphColorList@CGraphPartData@@QBE_NAAV?$CList@PAVCGraphColor@@PAV1@@@@Z ; CGraphPartData::GetSubGraphColorList
PUBLIC	?GetConditionTitle@CGraphPartData@@QBE?AW4TITLETYPE@CIndiBaseData@@XZ ; CGraphPartData::GetConditionTitle
PUBLIC	?SetGroupName@CGraphPartData@@QAEXABV?$CStringT@DV?$StrTraitMFC_DLL@DV?$ChTraitsCRT@D@ATL@@@@@ATL@@@Z ; CGraphPartData::SetGroupName
PUBLIC	?CopyDataWithVerificationFrom@CGraphPartData@@QAEXABV1@@Z ; CGraphPartData::CopyDataWithVerificationFrom
PUBLIC	?SetGraphData@CGraphPartData@@QAE_NABVCGraphData@@_N@Z ; CGraphPartData::SetGraphData
PUBLIC	?SetAllSubGraphPartDataList@CGraphPartData@@QAE_NPBV?$list@PAVCSubGraphPartData@@V?$allocator@PAVCSubGraphPartData@@@std@@@std@@@Z ; CGraphPartData::SetAllSubGraphPartDataList
PUBLIC	?SetAllSubGraphDataList@CGraphPartData@@QAE_NPBV?$CList@PAVCSubGraphData@@PAV1@@@@Z ; CGraphPartData::SetAllSubGraphDataList
PUBLIC	?SetAllPacketNames_SubGraphPart@CGraphPartData@@QAE_NABV?$CStringT@DV?$StrTraitMFC_DLL@DV?$ChTraitsCRT@D@ATL@@@@@ATL@@_N@Z ; CGraphPartData::SetAllPacketNames_SubGraphPart
PUBLIC	?SetPacketNames@CGraphPartData@@QAE_NHABV?$CStringT@DV?$StrTraitMFC_DLL@DV?$ChTraitsCRT@D@ATL@@@@@ATL@@@Z ; CGraphPartData::SetPacketNames
PUBLIC	?SetAllCalConditionData@CGraphPartData@@QAE_NHABN@Z ; CGraphPartData::SetAllCalConditionData
PUBLIC	?SetSubGraphData@CGraphPartData@@QAE_NPBVCSubGraphData@@@Z ; CGraphPartData::SetSubGraphData
PUBLIC	?SetSubGraphTitle@CGraphPartData@@QAE_NHABV?$CStringT@DV?$StrTraitMFC_DLL@DV?$ChTraitsCRT@D@ATL@@@@@ATL@@@Z ; CGraphPartData::SetSubGraphTitle
PUBLIC	?SetSubGraphColor@CGraphPartData@@QAE_NHABVCGraphColor@@@Z ; CGraphPartData::SetSubGraphColor
PUBLIC	?SetSubGraphPenThickness@CGraphPartData@@QAE_NHABVCPenThickness@@@Z ; CGraphPartData::SetSubGraphPenThickness
PUBLIC	?ChangeCalConditionDataFromSubGraphTitle@CGraphPartData@@QAE_NXZ ; CGraphPartData::ChangeCalConditionDataFromSubGraphTitle
PUBLIC	?AddSubGraphPartDataWithCopy@CGraphPartData@@QAEHPBVCSubGraphPartData@@@Z ; CGraphPartData::AddSubGraphPartDataWithCopy
PUBLIC	?GetSubGraphPartData@CGraphPartData@@QBEPAVCSubGraphPartData@@ABV?$CStringT@DV?$StrTraitMFC_DLL@DV?$ChTraitsCRT@D@ATL@@@@@ATL@@@Z ; CGraphPartData::GetSubGraphPartData
PUBLIC	?GetSubGraphPartData@CGraphPartData@@QBEPAVCSubGraphPartData@@H@Z ; CGraphPartData::GetSubGraphPartData
PUBLIC	?GetSubGraphPartData@CGraphPartData@@QBEPAVCSubGraphPartData@@PBV?$list@PAVCSubGraphPartData@@V?$allocator@PAVCSubGraphPartData@@@std@@@std@@ABV?$CStringT@DV?$StrTraitMFC_DLL@DV?$ChTraitsCRT@D@ATL@@@@@ATL@@@Z ; CGraphPartData::GetSubGraphPartData
PUBLIC	?SetGraphDataDrawingDataWithCopy@CGraphPartData@@QAEXPBVCGraphDataDrawingData@@@Z ; CGraphPartData::SetGraphDataDrawingDataWithCopy
PUBLIC	?GetGraphDataDrawingData@CGraphPartData@@QAEPAVCGraphDataDrawingData@@XZ ; CGraphPartData::GetGraphDataDrawingData
PUBLIC	?GetSubGraphHiding@CGraphPartData@@QAEHPBD@Z	; CGraphPartData::GetSubGraphHiding
PUBLIC	?GetSubGraphHiding@CGraphPartData@@QAEHH@Z	; CGraphPartData::GetSubGraphHiding
PUBLIC	??_GCGraphPartData@@UAEPAXI@Z			; CGraphPartData::`scalar deleting destructor'
PUBLIC	??0CBaseIndicatorList@@QAE@W4EIndicatorListType@@@Z ; CBaseIndicatorList::CBaseIndicatorList
PUBLIC	??1CBaseIndicatorList@@UAE@XZ			; CBaseIndicatorList::~CBaseIndicatorList
PUBLIC	?GetVersion@CBaseIndicatorList@@ABENAAPAD@Z	; CBaseIndicatorList::GetVersion
PUBLIC	?GetVersion@CBaseIndicatorList@@QBENXZ		; CBaseIndicatorList::GetVersion
PUBLIC	?SetVersion@CBaseIndicatorList@@QAE_NAAPAD@Z	; CBaseIndicatorList::SetVersion
PUBLIC	?SetVersion@CBaseIndicatorList@@QAEXABN@Z	; CBaseIndicatorList::SetVersion
PUBLIC	?GetGeneralIndiMap@CBaseIndicatorList@@IAEPAVCIndicatorInfoMap@@XZ ; CBaseIndicatorList::GetGeneralIndiMap
PUBLIC	?GetSpecialIndiMap@CBaseIndicatorList@@IAEPAVCIndicatorInfoMap@@XZ ; CBaseIndicatorList::GetSpecialIndiMap
PUBLIC	?GetNoneIndiMap@CBaseIndicatorList@@IAEPAVCIndicatorInfoMap@@XZ ; CBaseIndicatorList::GetNoneIndiMap
PUBLIC	?GetGeneralIndiMap@CBaseIndicatorList@@IBEPBVCIndicatorInfoMap@@XZ ; CBaseIndicatorList::GetGeneralIndiMap
PUBLIC	?GetSpecialIndiMap@CBaseIndicatorList@@IBEPBVCIndicatorInfoMap@@XZ ; CBaseIndicatorList::GetSpecialIndiMap
PUBLIC	?GetNoneIndiMap@CBaseIndicatorList@@IBEPBVCIndicatorInfoMap@@XZ ; CBaseIndicatorList::GetNoneIndiMap
PUBLIC	?AddIndicatorInfo@CBaseIndicatorList@@QAE_NPAVCIndicatorInfo@@@Z ; CBaseIndicatorList::AddIndicatorInfo
PUBLIC	?Delete@CBaseIndicatorList@@QAE_NPAVCIndicatorInfo@@@Z ; CBaseIndicatorList::Delete
PUBLIC	?DeleteAll@CBaseIndicatorList@@QAE_NW4INDICATORTYPE@1@@Z ; CBaseIndicatorList::DeleteAll
PUBLIC	?RemoveAllIndicator@CBaseIndicatorList@@QAE_NW4INDICATORTYPE@1@PBD@Z ; CBaseIndicatorList::RemoveAllIndicator
PUBLIC	?IsEmpty@CBaseIndicatorList@@QBE_NXZ		; CBaseIndicatorList::IsEmpty
PUBLIC	?GetIndicatorNameList@CBaseIndicatorList@@QBE_NW4INDICATORTYPE@1@AAV?$CList@V?$CStringT@DV?$StrTraitMFC_DLL@DV?$ChTraitsCRT@D@ATL@@@@@ATL@@V12@@@W4CHART_MODE@CChartInfo@@@Z ; CBaseIndicatorList::GetIndicatorNameList
PUBLIC	?GetGraphNameList@CBaseIndicatorList@@QBE_NW4INDICATORTYPE@1@AAV?$CList@V?$CStringT@DV?$StrTraitMFC_DLL@DV?$ChTraitsCRT@D@ATL@@@@@ATL@@V12@@@W4CHART_MODE@CChartInfo@@@Z ; CBaseIndicatorList::GetGraphNameList
PUBLIC	?GetAllIndicatorNameWithGroupName@CBaseIndicatorList@@QBE_NAAVCIndicatorGroupDataList@@W4CHART_MODE@CChartInfo@@@Z ; CBaseIndicatorList::GetAllIndicatorNameWithGroupName
PUBLIC	?GetIndicatorInfo@CBaseIndicatorList@@QAEPAVCIndicatorInfo@@PBDW4CHART_MODE@CChartInfo@@@Z ; CBaseIndicatorList::GetIndicatorInfo
PUBLIC	?GetFirstIndicatorInfo@CBaseIndicatorList@@QBEPAVCIndicatorInfo@@PBDPAPAU__POSITION@@W4CHART_MODE@CChartInfo@@@Z ; CBaseIndicatorList::GetFirstIndicatorInfo
PUBLIC	?GetNextIndicatorInfo@CBaseIndicatorList@@QBEXPBDPAPAU__POSITION@@AAPAVCIndicatorInfo@@@Z ; CBaseIndicatorList::GetNextIndicatorInfo
PUBLIC	??_GCBaseIndicatorList@@UAEPAXI@Z		; CBaseIndicatorList::`scalar deleting destructor'
PUBLIC	??0CDefaultIndicatorList@@QAE@W4EIndicatorListType@@@Z ; CDefaultIndicatorList::CDefaultIndicatorList
PUBLIC	??1CDefaultIndicatorList@@UAE@XZ		; CDefaultIndicatorList::~CDefaultIndicatorList
PUBLIC	?AddIndiInfoFromCfgString@CDefaultIndicatorList@@QAE_NPAVCIndicatorList@@PAVCGraphTypeAndStyleData@@AAPADPAUHWND__@@@Z ; CDefaultIndicatorList::AddIndiInfoFromCfgString
PUBLIC	??_GCDefaultIndicatorList@@UAEPAXI@Z		; CDefaultIndicatorList::`scalar deleting destructor'
PUBLIC	??0CUserIndicatorList@@QAE@PAVCDefaultIndicatorList@@W4EIndicatorListType@@PAUHWND__@@@Z ; CUserIndicatorList::CUserIndicatorList
PUBLIC	?AddIndiInfoFromCfgString@CUserIndicatorList@@QAE_NPAVCIndicatorList@@AAPAD_N@Z ; CUserIndicatorList::AddIndiInfoFromCfgString
PUBLIC	?GetDefaultVersion@CUserIndicatorList@@IBENXZ	; CUserIndicatorList::GetDefaultVersion
PUBLIC	?GetWritingFileData@CUserIndicatorList@@QBEXAAVCStringList@@@Z ; CUserIndicatorList::GetWritingFileData
PUBLIC	?GetWritingFileVersion@CUserIndicatorList@@IBENXZ ; CUserIndicatorList::GetWritingFileVersion
PUBLIC	??_GCUserIndicatorList@@UAEPAXI@Z		; CUserIndicatorList::`scalar deleting destructor'
PUBLIC	??0CIndicatorInfo@@QAE@ABV0@@Z			; CIndicatorInfo::CIndicatorInfo
PUBLIC	??4CIndicatorInfo@@QAEAAV0@ABV0@@Z		; CIndicatorInfo::operator=
PUBLIC	??_GCIndicatorInfo@@UAEPAXI@Z			; CIndicatorInfo::`scalar deleting destructor'
PUBLIC	??_ECIndicatorInfo@@UAEPAXI@Z			; CIndicatorInfo::`vector deleting destructor'
PUBLIC	?AddTail@?$CList@V?$CStringT@DV?$StrTraitMFC_DLL@DV?$ChTraitsCRT@D@ATL@@@@@ATL@@V12@@@QAEPAU__POSITION@@V?$CStringT@DV?$StrTraitMFC_DLL@DV?$ChTraitsCRT@D@ATL@@@@@ATL@@@Z ; CList<ATL::CStringT<char,StrTraitMFC_DLL<char,ATL::ChTraitsCRT<char> > >,ATL::CStringT<char,StrTraitMFC_DLL<char,ATL::ChTraitsCRT<char> > > >::AddTail
PUBLIC	?RemoveAll@?$CList@V?$CStringT@DV?$StrTraitMFC_DLL@DV?$ChTraitsCRT@D@ATL@@@@@ATL@@V12@@@QAEXXZ ; CList<ATL::CStringT<char,StrTraitMFC_DLL<char,ATL::ChTraitsCRT<char> > >,ATL::CStringT<char,StrTraitMFC_DLL<char,ATL::ChTraitsCRT<char> > > >::RemoveAll
PUBLIC	?NewNode@?$CList@V?$CStringT@DV?$StrTraitMFC_DLL@DV?$ChTraitsCRT@D@ATL@@@@@ATL@@V12@@@IAEPAUCNode@1@PAU21@0@Z ; CList<ATL::CStringT<char,StrTraitMFC_DLL<char,ATL::ChTraitsCRT<char> > >,ATL::CStringT<char,StrTraitMFC_DLL<char,ATL::ChTraitsCRT<char> > > >::NewNode
PUBLIC	??_FCIndicatorGroupData@@QAEXXZ			; CIndicatorGroupData::`default constructor closure'
PUBLIC	??0?$CList@PAVCIndicatorGroupData@@PAV1@@@QAE@H@Z ; CList<CIndicatorGroupData *,CIndicatorGroupData *>::CList<CIndicatorGroupData *,CIndicatorGroupData *>
PUBLIC	?AddTail@?$CList@PAVCIndicatorGroupData@@PAV1@@@QAEPAU__POSITION@@PAVCIndicatorGroupData@@@Z ; CList<CIndicatorGroupData *,CIndicatorGroupData *>::AddTail
PUBLIC	?RemoveAll@?$CList@PAVCIndicatorGroupData@@PAV1@@@QAEXXZ ; CList<CIndicatorGroupData *,CIndicatorGroupData *>::RemoveAll
PUBLIC	?NewNode@?$CList@PAVCIndicatorGroupData@@PAV1@@@IAEPAUCNode@1@PAU21@0@Z ; CList<CIndicatorGroupData *,CIndicatorGroupData *>::NewNode
PUBLIC	??1?$CList@PAVCIndicatorGroupData@@PAV1@@@UAE@XZ ; CList<CIndicatorGroupData *,CIndicatorGroupData *>::~CList<CIndicatorGroupData *,CIndicatorGroupData *>
PUBLIC	?Serialize@?$CList@PAVCIndicatorGroupData@@PAV1@@@UAEXAAVCArchive@@@Z ; CList<CIndicatorGroupData *,CIndicatorGroupData *>::Serialize
PUBLIC	??_G?$CList@PAVCIndicatorGroupData@@PAV1@@@UAEPAXI@Z ; CList<CIndicatorGroupData *,CIndicatorGroupData *>::`scalar deleting destructor'
PUBLIC	??0CIndicatorGroupDataList@@QAE@XZ		; CIndicatorGroupDataList::CIndicatorGroupDataList
PUBLIC	??_GCIndicatorGroupDataList@@UAEPAXI@Z		; CIndicatorGroupDataList::`scalar deleting destructor'
PUBLIC	??_ECIndicatorGroupDataList@@UAEPAXI@Z		; CIndicatorGroupDataList::`vector deleting destructor'
PUBLIC	??1CNotDefaultUserTypeIndiListBuilder@@QAE@XZ	; CNotDefaultUserTypeIndiListBuilder::~CNotDefaultUserTypeIndiListBuilder
PUBLIC	?AddTail@?$CList@PAVCSubGraphData@@PAV1@@@QAEPAU__POSITION@@PAVCSubGraphData@@@Z ; CList<CSubGraphData *,CSubGraphData *>::AddTail
PUBLIC	?NewNode@?$CList@PAVCSubGraphData@@PAV1@@@IAEPAUCNode@1@PAU21@0@Z ; CList<CSubGraphData *,CSubGraphData *>::NewNode
PUBLIC	?AddTail@?$CList@PAVCGraphColor@@PAV1@@@QAEPAU__POSITION@@PAVCGraphColor@@@Z ; CList<CGraphColor *,CGraphColor *>::AddTail
PUBLIC	?RemoveAll@?$CList@PAVCGraphColor@@PAV1@@@QAEXXZ ; CList<CGraphColor *,CGraphColor *>::RemoveAll
PUBLIC	?NewNode@?$CList@PAVCGraphColor@@PAV1@@@IAEPAUCNode@1@PAU21@0@Z ; CList<CGraphColor *,CGraphColor *>::NewNode
PUBLIC	??$SerializeElements@N@@YGXAAVCArchive@@PANH@Z	; SerializeElements<double>
PUBLIC	??$SerializeElements@PAVCIndicatorGroupData@@@@YGXAAVCArchive@@PAPAVCIndicatorGroupData@@H@Z ; SerializeElements<CIndicatorGroupData *>
PUBLIC	??1?$_Alloc_construct_ptr@V?$allocator@U?$_List_node@PAVCSubGraphPartData@@PAX@std@@@std@@@std@@QAE@XZ ; std::_Alloc_construct_ptr<std::allocator<std::_List_node<CSubGraphPartData *,void *> > >::~_Alloc_construct_ptr<std::allocator<std::_List_node<CSubGraphPartData *,void *> > >
PUBLIC	??$_Allocate_manually_vector_aligned@U_Default_allocate_traits@std@@@std@@YAPAXI@Z ; std::_Allocate_manually_vector_aligned<std::_Default_allocate_traits>
PUBLIC	??_C@_00CNPNBAHC@@				; `string'
PUBLIC	??_R0?AVCObject@@@8				; CObject `RTTI Type Descriptor'
PUBLIC	??_R3CObject@@8					; CObject::`RTTI Class Hierarchy Descriptor'
PUBLIC	??_R2CObject@@8					; CObject::`RTTI Base Class Array'
PUBLIC	??_R1A@?0A@EA@CObject@@8			; CObject::`RTTI Base Class Descriptor at (0,-1,0,64)'
PUBLIC	??_7exception@std@@6B@				; std::exception::`vftable'
PUBLIC	??_C@_0BC@EOODALEL@Unknown?5exception@		; `string'
PUBLIC	??_7bad_alloc@std@@6B@				; std::bad_alloc::`vftable'
PUBLIC	??_7bad_array_new_length@std@@6B@		; std::bad_array_new_length::`vftable'
PUBLIC	??_C@_0BF@KINCDENJ@bad?5array?5new?5length@	; `string'
PUBLIC	__TI3?AVbad_array_new_length@std@@
PUBLIC	__CTA3?AVbad_array_new_length@std@@
PUBLIC	??_R0?AVbad_array_new_length@std@@@8		; std::bad_array_new_length `RTTI Type Descriptor'
PUBLIC	__CT??_R0?AVbad_array_new_length@std@@@8??0bad_array_new_length@std@@QAE@ABV01@@Z12
PUBLIC	??_R0?AVbad_alloc@std@@@8			; std::bad_alloc `RTTI Type Descriptor'
PUBLIC	__CT??_R0?AVbad_alloc@std@@@8??0bad_alloc@std@@QAE@ABV01@@Z12
PUBLIC	??_R0?AVexception@std@@@8			; std::exception `RTTI Type Descriptor'
PUBLIC	__CT??_R0?AVexception@std@@@8??0exception@std@@QAE@ABV01@@Z12
PUBLIC	??_7CIndicatorList@@6B@				; CIndicatorList::`vftable'
PUBLIC	??_7CGraphDataBase@@6B@				; CGraphDataBase::`vftable'
PUBLIC	??_7CGraphData@@6B@				; CGraphData::`vftable'
PUBLIC	??_7?$CList@NN@@6B@				; CList<double,double>::`vftable'
PUBLIC	??_7CSubGraphPartData@@6B@			; CSubGraphPartData::`vftable'
PUBLIC	??_7CGraphPartData@@6B@				; CGraphPartData::`vftable'
PUBLIC	??_7CBaseIndicatorList@@6B@			; CBaseIndicatorList::`vftable'
PUBLIC	??_7CDefaultIndicatorList@@6B@			; CDefaultIndicatorList::`vftable'
PUBLIC	??_7CUserIndicatorList@@6B@			; CUserIndicatorList::`vftable'
PUBLIC	??_7CIndicatorInfo@@6B@				; CIndicatorInfo::`vftable'
PUBLIC	??_7?$CList@PAVCIndicatorGroupData@@PAV1@@@6B@	; CList<CIndicatorGroupData *,CIndicatorGroupData *>::`vftable'
PUBLIC	??_7CIndicatorGroupDataList@@6B@		; CIndicatorGroupDataList::`vftable'
PUBLIC	??_7CDefaultIndicatorListBuilder@@6B@		; CDefaultIndicatorListBuilder::`vftable'
PUBLIC	??_7CDefaultUserTypeIndiListBuilder@@6B@	; CDefaultUserTypeIndiListBuilder::`vftable'
PUBLIC	??_C@_01CLKCMJKC@?5@				; `string'
PUBLIC	??_C@_01GBGANLPD@0@				; `string'
PUBLIC	??_C@_07PDGNMDCO@?$CFs_?$CF0?4f@		; `string'
PUBLIC	??_C@_04MBKDPHPM@?$CF0?4f@			; `string'
PUBLIC	??_C@_01IDAFKMJL@_@				; `string'
PUBLIC	??_C@_08BHMMGBBH@Graph?$DL?$AN?6@		; `string'
PUBLIC	??_C@_0M@DGHFHKEI@GraphEnd?$DL?$AN?6@		; `string'
PUBLIC	??_C@_01IHBHIGKO@?0@				; `string'
PUBLIC	??_C@_03GDMIGCCC@Ver@				; `string'
PUBLIC	??_C@_0BM@KJFALDEM@?$CK?$CK?$CK?$CK?$CK?5Indicator?5List?5?3?5Ver?5@ ; `string'
PUBLIC	??_C@_04GEFJINEE@?$CF?42f@			; `string'
PUBLIC	??_C@_08IIICFEMI@?5?$CK?$CK?$CK?$CK?$CK?$AN?6@	; `string'
PUBLIC	??_C@_0BJ@MDCENAHP@?$AN?6?$CK?$CK?$CK?$CK?$CK?5File?5End?5?$CK?$CK?$CK?$CK?$CK?$AN?6@ ; `string'
PUBLIC	??_C@_0O@NKNMEGII@list?5too?5long@		; `string'
PUBLIC	??_R4exception@std@@6B@				; std::exception::`RTTI Complete Object Locator'
PUBLIC	??_R3exception@std@@8				; std::exception::`RTTI Class Hierarchy Descriptor'
PUBLIC	??_R2exception@std@@8				; std::exception::`RTTI Base Class Array'
PUBLIC	??_R1A@?0A@EA@exception@std@@8			; std::exception::`RTTI Base Class Descriptor at (0,-1,0,64)'
PUBLIC	??_R4bad_alloc@std@@6B@				; std::bad_alloc::`RTTI Complete Object Locator'
PUBLIC	??_R3bad_alloc@std@@8				; std::bad_alloc::`RTTI Class Hierarchy Descriptor'
PUBLIC	??_R2bad_alloc@std@@8				; std::bad_alloc::`RTTI Base Class Array'
PUBLIC	??_R1A@?0A@EA@bad_alloc@std@@8			; std::bad_alloc::`RTTI Base Class Descriptor at (0,-1,0,64)'
PUBLIC	??_R4bad_array_new_length@std@@6B@		; std::bad_array_new_length::`RTTI Complete Object Locator'
PUBLIC	??_R3bad_array_new_length@std@@8		; std::bad_array_new_length::`RTTI Class Hierarchy Descriptor'
PUBLIC	??_R2bad_array_new_length@std@@8		; std::bad_array_new_length::`RTTI Base Class Array'
PUBLIC	??_R1A@?0A@EA@bad_array_new_length@std@@8	; std::bad_array_new_length::`RTTI Base Class Descriptor at (0,-1,0,64)'
PUBLIC	??_R4CIndicatorInfo@@6B@			; CIndicatorInfo::`RTTI Complete Object Locator'
PUBLIC	??_R0?AVCIndicatorInfo@@@8			; CIndicatorInfo `RTTI Type Descriptor'
PUBLIC	??_R3CIndicatorInfo@@8				; CIndicatorInfo::`RTTI Class Hierarchy Descriptor'
PUBLIC	??_R2CIndicatorInfo@@8				; CIndicatorInfo::`RTTI Base Class Array'
PUBLIC	??_R1A@?0A@EA@CIndicatorInfo@@8			; CIndicatorInfo::`RTTI Base Class Descriptor at (0,-1,0,64)'
PUBLIC	??_R4CSubGraphPartData@@6B@			; CSubGraphPartData::`RTTI Complete Object Locator'
PUBLIC	??_R0?AVCSubGraphPartData@@@8			; CSubGraphPartData `RTTI Type Descriptor'
PUBLIC	??_R3CSubGraphPartData@@8			; CSubGraphPartData::`RTTI Class Hierarchy Descriptor'
PUBLIC	??_R2CSubGraphPartData@@8			; CSubGraphPartData::`RTTI Base Class Array'
PUBLIC	??_R1A@?0A@EA@CSubGraphPartData@@8		; CSubGraphPartData::`RTTI Base Class Descriptor at (0,-1,0,64)'
PUBLIC	??_R4?$CList@NN@@6B@				; CList<double,double>::`RTTI Complete Object Locator'
PUBLIC	??_R0?AV?$CList@NN@@@8				; CList<double,double> `RTTI Type Descriptor'
PUBLIC	??_R3?$CList@NN@@8				; CList<double,double>::`RTTI Class Hierarchy Descriptor'
PUBLIC	??_R2?$CList@NN@@8				; CList<double,double>::`RTTI Base Class Array'
PUBLIC	??_R1A@?0A@EA@?$CList@NN@@8			; CList<double,double>::`RTTI Base Class Descriptor at (0,-1,0,64)'
PUBLIC	??_R4CIndicatorGroupDataList@@6B@		; CIndicatorGroupDataList::`RTTI Complete Object Locator'
PUBLIC	??_R0?AVCIndicatorGroupDataList@@@8		; CIndicatorGroupDataList `RTTI Type Descriptor'
PUBLIC	??_R3CIndicatorGroupDataList@@8			; CIndicatorGroupDataList::`RTTI Class Hierarchy Descriptor'
PUBLIC	??_R2CIndicatorGroupDataList@@8			; CIndicatorGroupDataList::`RTTI Base Class Array'
PUBLIC	??_R1A@?0A@EA@CIndicatorGroupDataList@@8	; CIndicatorGroupDataList::`RTTI Base Class Descriptor at (0,-1,0,64)'
PUBLIC	??_R4CIndicatorList@@6B@			; CIndicatorList::`RTTI Complete Object Locator'
PUBLIC	??_R0?AVCIndicatorList@@@8			; CIndicatorList `RTTI Type Descriptor'
PUBLIC	??_R3CIndicatorList@@8				; CIndicatorList::`RTTI Class Hierarchy Descriptor'
PUBLIC	??_R2CIndicatorList@@8				; CIndicatorList::`RTTI Base Class Array'
PUBLIC	??_R1A@?0A@EA@CIndicatorList@@8			; CIndicatorList::`RTTI Base Class Descriptor at (0,-1,0,64)'
PUBLIC	??_R4CGraphDataBase@@6B@			; CGraphDataBase::`RTTI Complete Object Locator'
PUBLIC	??_R0?AVCGraphDataBase@@@8			; CGraphDataBase `RTTI Type Descriptor'
PUBLIC	??_R3CGraphDataBase@@8				; CGraphDataBase::`RTTI Class Hierarchy Descriptor'
PUBLIC	??_R2CGraphDataBase@@8				; CGraphDataBase::`RTTI Base Class Array'
PUBLIC	??_R1A@?0A@EA@CGraphDataBase@@8			; CGraphDataBase::`RTTI Base Class Descriptor at (0,-1,0,64)'
PUBLIC	??_R13?0A@EA@CIndicatorBuilder@@8		; CIndicatorBuilder::`RTTI Base Class Descriptor at (4,-1,0,64)'
PUBLIC	??_R0?AVCIndicatorBuilder@@@8			; CIndicatorBuilder `RTTI Type Descriptor'
PUBLIC	??_R3CIndicatorBuilder@@8			; CIndicatorBuilder::`RTTI Class Hierarchy Descriptor'
PUBLIC	??_R2CIndicatorBuilder@@8			; CIndicatorBuilder::`RTTI Base Class Array'
PUBLIC	??_R1A@?0A@EA@CIndicatorBuilder@@8		; CIndicatorBuilder::`RTTI Base Class Descriptor at (0,-1,0,64)'
PUBLIC	??_R4CGraphData@@6B@				; CGraphData::`RTTI Complete Object Locator'
PUBLIC	??_R0?AVCGraphData@@@8				; CGraphData `RTTI Type Descriptor'
PUBLIC	??_R3CGraphData@@8				; CGraphData::`RTTI Class Hierarchy Descriptor'
PUBLIC	??_R2CGraphData@@8				; CGraphData::`RTTI Base Class Array'
PUBLIC	??_R1A@?0A@EA@CGraphData@@8			; CGraphData::`RTTI Base Class Descriptor at (0,-1,0,64)'
PUBLIC	??_R4CGraphPartData@@6B@			; CGraphPartData::`RTTI Complete Object Locator'
PUBLIC	??_R0?AVCGraphPartData@@@8			; CGraphPartData `RTTI Type Descriptor'
PUBLIC	??_R3CGraphPartData@@8				; CGraphPartData::`RTTI Class Hierarchy Descriptor'
PUBLIC	??_R2CGraphPartData@@8				; CGraphPartData::`RTTI Base Class Array'
PUBLIC	??_R1A@?0A@EA@CGraphPartData@@8			; CGraphPartData::`RTTI Base Class Descriptor at (0,-1,0,64)'
PUBLIC	??_R4CBaseIndicatorList@@6B@			; CBaseIndicatorList::`RTTI Complete Object Locator'
PUBLIC	??_R0?AVCBaseIndicatorList@@@8			; CBaseIndicatorList `RTTI Type Descriptor'
PUBLIC	??_R3CBaseIndicatorList@@8			; CBaseIndicatorList::`RTTI Class Hierarchy Descriptor'
PUBLIC	??_R2CBaseIndicatorList@@8			; CBaseIndicatorList::`RTTI Base Class Array'
PUBLIC	??_R1A@?0A@EA@CBaseIndicatorList@@8		; CBaseIndicatorList::`RTTI Base Class Descriptor at (0,-1,0,64)'
PUBLIC	??_R4CDefaultIndicatorListBuilder@@6B@		; CDefaultIndicatorListBuilder::`RTTI Complete Object Locator'
PUBLIC	??_R0?AVCDefaultIndicatorListBuilder@@@8	; CDefaultIndicatorListBuilder `RTTI Type Descriptor'
PUBLIC	??_R3CDefaultIndicatorListBuilder@@8		; CDefaultIndicatorListBuilder::`RTTI Class Hierarchy Descriptor'
PUBLIC	??_R2CDefaultIndicatorListBuilder@@8		; CDefaultIndicatorListBuilder::`RTTI Base Class Array'
PUBLIC	??_R1A@?0A@EA@CDefaultIndicatorListBuilder@@8	; CDefaultIndicatorListBuilder::`RTTI Base Class Descriptor at (0,-1,0,64)'
PUBLIC	??_R4CDefaultUserTypeIndiListBuilder@@6B@	; CDefaultUserTypeIndiListBuilder::`RTTI Complete Object Locator'
PUBLIC	??_R0?AVCDefaultUserTypeIndiListBuilder@@@8	; CDefaultUserTypeIndiListBuilder `RTTI Type Descriptor'
PUBLIC	??_R3CDefaultUserTypeIndiListBuilder@@8		; CDefaultUserTypeIndiListBuilder::`RTTI Class Hierarchy Descriptor'
PUBLIC	??_R2CDefaultUserTypeIndiListBuilder@@8		; CDefaultUserTypeIndiListBuilder::`RTTI Base Class Array'
PUBLIC	??_R1A@?0A@EA@CDefaultUserTypeIndiListBuilder@@8 ; CDefaultUserTypeIndiListBuilder::`RTTI Base Class Descriptor at (0,-1,0,64)'
PUBLIC	??_R4CDefaultIndicatorList@@6B@			; CDefaultIndicatorList::`RTTI Complete Object Locator'
PUBLIC	??_R0?AVCDefaultIndicatorList@@@8		; CDefaultIndicatorList `RTTI Type Descriptor'
PUBLIC	??_R3CDefaultIndicatorList@@8			; CDefaultIndicatorList::`RTTI Class Hierarchy Descriptor'
PUBLIC	??_R2CDefaultIndicatorList@@8			; CDefaultIndicatorList::`RTTI Base Class Array'
PUBLIC	??_R1A@?0A@EA@CDefaultIndicatorList@@8		; CDefaultIndicatorList::`RTTI Base Class Descriptor at (0,-1,0,64)'
PUBLIC	??_R4CUserIndicatorList@@6B@			; CUserIndicatorList::`RTTI Complete Object Locator'
PUBLIC	??_R0?AVCUserIndicatorList@@@8			; CUserIndicatorList `RTTI Type Descriptor'
PUBLIC	??_R3CUserIndicatorList@@8			; CUserIndicatorList::`RTTI Class Hierarchy Descriptor'
PUBLIC	??_R2CUserIndicatorList@@8			; CUserIndicatorList::`RTTI Base Class Array'
PUBLIC	??_R1A@?0A@EA@CUserIndicatorList@@8		; CUserIndicatorList::`RTTI Base Class Descriptor at (0,-1,0,64)'
PUBLIC	??_R4?$CList@PAVCIndicatorGroupData@@PAV1@@@6B@	; CList<CIndicatorGroupData *,CIndicatorGroupData *>::`RTTI Complete Object Locator'
PUBLIC	??_R0?AV?$CList@PAVCIndicatorGroupData@@PAV1@@@@8 ; CList<CIndicatorGroupData *,CIndicatorGroupData *> `RTTI Type Descriptor'
PUBLIC	??_R3?$CList@PAVCIndicatorGroupData@@PAV1@@@8	; CList<CIndicatorGroupData *,CIndicatorGroupData *>::`RTTI Class Hierarchy Descriptor'
PUBLIC	??_R2?$CList@PAVCIndicatorGroupData@@PAV1@@@8	; CList<CIndicatorGroupData *,CIndicatorGroupData *>::`RTTI Base Class Array'
PUBLIC	??_R1A@?0A@EA@?$CList@PAVCIndicatorGroupData@@PAV1@@@8 ; CList<CIndicatorGroupData *,CIndicatorGroupData *>::`RTTI Base Class Descriptor at (0,-1,0,64)'
PUBLIC	__real@0000000000000000
PUBLIC	__real@400999999999999a
PUBLIC	__real@400a666666666666
PUBLIC	__real@401399999999999a
PUBLIC	__real@4014000000000000
PUBLIC	__real@4014666666666666
PUBLIC	__real@4014cbc6a7ef9db2
PUBLIC	__real@4014cccccccccccd
PUBLIC	__real@4014d70a3d70a3d7
EXTRN	??_M@YGXPAXIIP6EX0@Z@Z:PROC			; `eh vector destructor iterator'
EXTRN	__purecall:PROC
EXTRN	??2@YAPAXI@Z:PROC				; operator new
EXTRN	??3@YAXPAX@Z:PROC				; operator delete
EXTRN	??3@YAXPAXI@Z:PROC				; operator delete
EXTRN	?__global_delete@@YAXPAXI@Z:PROC		; __global_delete
EXTRN	??_V@YAXPAXI@Z:PROC				; operator delete[]
EXTRN	_atexit:PROC
EXTRN	__Init_thread_header:PROC
EXTRN	__Init_thread_abort:PROC
EXTRN	__Init_thread_footer:PROC
EXTRN	___std_terminate:PROC
EXTRN	__imp___invalid_parameter_noinfo_noreturn:PROC
EXTRN	_strchr:PROC
EXTRN	_strstr:PROC
EXTRN	__imp__atof:PROC
EXTRN	?AfxThrowInvalidArgException@@YGXXZ:PROC	; AfxThrowInvalidArgException
EXTRN	?AfxThrowArchiveException@@YGXHPBD@Z:PROC	; AfxThrowArchiveException
EXTRN	?GetRuntimeClass@CObject@@UBEPAUCRuntimeClass@@XZ:PROC ; CObject::GetRuntimeClass
EXTRN	__imp_?Empty@?$CSimpleStringT@D$00@ATL@@QAEXXZ:PROC
EXTRN	__imp_?GetBufferSetLength@?$CSimpleStringT@D$00@ATL@@QAEPADH@Z:PROC
EXTRN	__imp_?Concatenate@?$CSimpleStringT@D$00@ATL@@KAXAAV12@PBDH1H@Z:PROC
EXTRN	__imp_??0?$CStringT@DV?$StrTraitMFC_DLL@DV?$ChTraitsCRT@D@ATL@@@@@ATL@@QAE@XZ:PROC
EXTRN	__imp_??0?$CStringT@DV?$StrTraitMFC_DLL@DV?$ChTraitsCRT@D@ATL@@@@@ATL@@QAE@PAUIAtlStringMgr@1@@Z:PROC
EXTRN	__imp_??0?$CStringT@DV?$StrTraitMFC_DLL@DV?$ChTraitsCRT@D@ATL@@@@@ATL@@QAE@ABV01@@Z:PROC
EXTRN	__imp_??0?$CStringT@DV?$StrTraitMFC_DLL@DV?$ChTraitsCRT@D@ATL@@@@@ATL@@QAE@PBD@Z:PROC
EXTRN	__imp_??1?$CStringT@DV?$StrTraitMFC_DLL@DV?$ChTraitsCRT@D@ATL@@@@@ATL@@QAE@XZ:PROC
EXTRN	__imp_??4?$CStringT@DV?$StrTraitMFC_DLL@DV?$ChTraitsCRT@D@ATL@@@@@ATL@@QAEAAV01@ABV01@@Z:PROC
EXTRN	__imp_??4?$CStringT@DV?$StrTraitMFC_DLL@DV?$ChTraitsCRT@D@ATL@@@@@ATL@@QAEAAV01@PBD@Z:PROC
EXTRN	__imp_??Y?$CStringT@DV?$StrTraitMFC_DLL@DV?$ChTraitsCRT@D@ATL@@@@@ATL@@QAEAAV01@ABV?$CSimpleStringT@D$00@1@@Z:PROC
EXTRN	__imp_?GetManager@?$CStringT@DV?$StrTraitMFC_DLL@DV?$ChTraitsCRT@D@ATL@@@@@ATL@@QBEPAUIAtlStringMgr@2@XZ:PROC
EXTRN	__imp_?Compare@?$CStringT@DV?$StrTraitMFC_DLL@DV?$ChTraitsCRT@D@ATL@@@@@ATL@@QBEHPBD@Z:PROC
EXTRN	__imp_?TrimRight@?$CStringT@DV?$StrTraitMFC_DLL@DV?$ChTraitsCRT@D@ATL@@@@@ATL@@QAEAAV12@PBD@Z:PROC
EXTRN	__imp_?TrimLeft@?$CStringT@DV?$StrTraitMFC_DLL@DV?$ChTraitsCRT@D@ATL@@@@@ATL@@QAEAAV12@PBD@Z:PROC
EXTRN	__imp_?Right@?$CStringT@DV?$StrTraitMFC_DLL@DV?$ChTraitsCRT@D@ATL@@@@@ATL@@QBE?AV12@H@Z:PROC
EXTRN	__imp_?Format@?$CStringT@DV?$StrTraitMFC_DLL@DV?$ChTraitsCRT@D@ATL@@@@@ATL@@QAAXPBDZZ:PROC
EXTRN	?Read@CArchive@@QAEIPAXI@Z:PROC			; CArchive::Read
EXTRN	?Write@CArchive@@QAEXPBXI@Z:PROC		; CArchive::Write
EXTRN	?ReadCount@CArchive@@QAEKXZ:PROC		; CArchive::ReadCount
EXTRN	?WriteCount@CArchive@@QAEXK@Z:PROC		; CArchive::WriteCount
EXTRN	??0CStringList@@QAE@H@Z:PROC			; CStringList::CStringList
EXTRN	?AddTail@CStringList@@QAEPAU__POSITION@@PBD@Z:PROC ; CStringList::AddTail
EXTRN	?AddTail@CStringList@@QAEPAU__POSITION@@ABV?$CStringT@DV?$StrTraitMFC_DLL@DV?$ChTraitsCRT@D@ATL@@@@@ATL@@@Z:PROC ; CStringList::AddTail
EXTRN	??1CStringList@@UAE@XZ:PROC			; CStringList::~CStringList
EXTRN	??1CMapStringToPtr@@UAE@XZ:PROC			; CMapStringToPtr::~CMapStringToPtr
EXTRN	??1CMapStringToString@@UAE@XZ:PROC		; CMapStringToString::~CMapStringToString
EXTRN	?Create@CPlex@@SGPAU1@AAPAU1@II@Z:PROC		; CPlex::Create
EXTRN	?FreeDataChain@CPlex@@QAEXXZ:PROC		; CPlex::FreeDataChain
EXTRN	___std_exception_copy:PROC
EXTRN	___std_exception_destroy:PROC
EXTRN	??_Eexception@std@@UAEPAXI@Z:PROC		; std::exception::`vector deleting destructor'
EXTRN	??_Ebad_alloc@std@@UAEPAXI@Z:PROC		; std::bad_alloc::`vector deleting destructor'
EXTRN	??_Ebad_array_new_length@std@@UAEPAXI@Z:PROC	; std::bad_array_new_length::`vector deleting destructor'
EXTRN	?_Xlength_error@std@@YAXPBD@Z:PROC		; std::_Xlength_error
EXTRN	??1CIndicatorList@@UAE@XZ:PROC			; CIndicatorList::~CIndicatorList
EXTRN	??0CGraphDataDrawingData@@QAE@XZ:PROC		; CGraphDataDrawingData::CGraphDataDrawingData
EXTRN	??0CGraphDataDrawingData@@QAE@ABV0@@Z:PROC	; CGraphDataDrawingData::CGraphDataDrawingData
EXTRN	??0CSignalData@@QAE@_N0@Z:PROC			; CSignalData::CSignalData
EXTRN	??0CSignalData@@QAE@ABV0@@Z:PROC		; CSignalData::CSignalData
EXTRN	??1CSignalData@@QAE@XZ:PROC			; CSignalData::~CSignalData
EXTRN	?GetData@CGraphData@@QBEXAAV?$CStringT@DV?$StrTraitMFC_DLL@DV?$ChTraitsCRT@D@ATL@@@@@ATL@@PBD@Z:PROC ; CGraphData::GetData
EXTRN	??4CGraphData@@QAEAAV0@ABV0@@Z:PROC		; CGraphData::operator=
EXTRN	?ClearData@CGraphData@@QAEXXZ:PROC		; CGraphData::ClearData
EXTRN	?IsSignalUse@CGraphData@@QBE_NXZ:PROC		; CGraphData::IsSignalUse
EXTRN	?IsSignalShow@CGraphData@@QBE_NXZ:PROC		; CGraphData::IsSignalShow
EXTRN	?SetSignalData@CGraphData@@QAEX_N0@Z:PROC	; CGraphData::SetSignalData
EXTRN	?GetGraphDataDrawingData@CGraphData@@QBE?AVCGraphDataDrawingData@@XZ:PROC ; CGraphData::GetGraphDataDrawingData
EXTRN	?GetGraphDataDrawingData@CGraphData@@QAEAAVCGraphDataDrawingData@@XZ:PROC ; CGraphData::GetGraphDataDrawingData
EXTRN	?SetGraphDataDrawingData@CGraphData@@QAEXABVCGraphDataDrawingData@@@Z:PROC ; CGraphData::SetGraphDataDrawingData
EXTRN	?SetStyle@CSubGraphDataBase@@QAEXABVCGraphStyle@@@Z:PROC ; CSubGraphDataBase::SetStyle
EXTRN	?SetDrawStyle@CSubGraphDataBase@@QAEXABVCGraphDrawStyle@@@Z:PROC ; CSubGraphDataBase::SetDrawStyle
EXTRN	?SetTitle@CSubGraphDataBase@@QAEXABV?$CStringT@DV?$StrTraitMFC_DLL@DV?$ChTraitsCRT@D@ATL@@@@@ATL@@@Z:PROC ; CSubGraphDataBase::SetTitle
EXTRN	?SetHiding@CSubGraphDataBase@@QAEX_N@Z:PROC	; CSubGraphDataBase::SetHiding
EXTRN	?SetColor@CSubGraphDataBase@@QAEXABVCGraphColor@@@Z:PROC ; CSubGraphDataBase::SetColor
EXTRN	?SetPenThickness@CSubGraphDataBase@@QAEXABVCPenThickness@@@Z:PROC ; CSubGraphDataBase::SetPenThickness
EXTRN	?SetItemName@CSubGraphDataBase@@QAEXABV?$CStringT@DV?$StrTraitMFC_DLL@DV?$ChTraitsCRT@D@ATL@@@@@ATL@@@Z:PROC ; CSubGraphDataBase::SetItemName
EXTRN	?GetType@CSubGraphDataBase@@QBE?AW4GRAPHTYPE@CGraphBaseData@@XZ:PROC ; CSubGraphDataBase::GetType
EXTRN	?GetStyle@CSubGraphDataBase@@QBE?AVCGraphStyle@@XZ:PROC ; CSubGraphDataBase::GetStyle
EXTRN	?GetDrawStyle@CSubGraphDataBase@@QBE?AVCGraphDrawStyle@@XZ:PROC ; CSubGraphDataBase::GetDrawStyle
EXTRN	?GetName@CSubGraphDataBase@@QBE?AV?$CStringT@DV?$StrTraitMFC_DLL@DV?$ChTraitsCRT@D@ATL@@@@@ATL@@XZ:PROC ; CSubGraphDataBase::GetName
EXTRN	?GetTitle@CSubGraphDataBase@@QBE?AV?$CStringT@DV?$StrTraitMFC_DLL@DV?$ChTraitsCRT@D@ATL@@@@@ATL@@XZ:PROC ; CSubGraphDataBase::GetTitle
EXTRN	?GetColor@CSubGraphDataBase@@QBE?AVCGraphColor@@XZ:PROC ; CSubGraphDataBase::GetColor
EXTRN	?GetColor_PointerType@CSubGraphDataBase@@QAEPAVCGraphColor@@XZ:PROC ; CSubGraphDataBase::GetColor_PointerType
EXTRN	?GetPenThickness@CSubGraphDataBase@@QBE?AVCPenThickness@@XZ:PROC ; CSubGraphDataBase::GetPenThickness
EXTRN	?GetStringData@CSubGraphDataBase@@QBEXAAV?$CStringT@DV?$StrTraitMFC_DLL@DV?$ChTraitsCRT@D@ATL@@@@@ATL@@@Z:PROC ; CSubGraphDataBase::GetStringData
EXTRN	?GetItemName@CSubGraphDataBase@@QBE?AV?$CStringT@DV?$StrTraitMFC_DLL@DV?$ChTraitsCRT@D@ATL@@@@@ATL@@XZ:PROC ; CSubGraphDataBase::GetItemName
EXTRN	??0CSubGraphData@@QAE@XZ:PROC			; CSubGraphData::CSubGraphData
EXTRN	??0CSubGraphData@@QAE@ABV0@@Z:PROC		; CSubGraphData::CSubGraphData
EXTRN	??1CSubGraphData@@QAE@XZ:PROC			; CSubGraphData::~CSubGraphData
EXTRN	?GetHiding@CSubGraphData@@ABE_NXZ:PROC		; CSubGraphData::GetHiding
EXTRN	??4CSubGraphData@@QAEAAV0@ABV0@@Z:PROC		; CSubGraphData::operator=
EXTRN	?Delete@CIndicatorInfoMap@@QAEHPAVCIndicatorInfo@@@Z:PROC ; CIndicatorInfoMap::Delete
EXTRN	?DeleteAll@CIndicatorInfoMap@@QAEHXZ:PROC	; CIndicatorInfoMap::DeleteAll
EXTRN	?GetIndicatorNameList@CIndicatorInfoMap@@QBEHAAV?$CList@V?$CStringT@DV?$StrTraitMFC_DLL@DV?$ChTraitsCRT@D@ATL@@@@@ATL@@V12@@@W4CHART_MODE@CChartInfo@@@Z:PROC ; CIndicatorInfoMap::GetIndicatorNameList
EXTRN	?GetIndicatorInfo@CIndicatorInfoMap@@QAEPAVCIndicatorInfo@@PBDW4CHART_MODE@CChartInfo@@@Z:PROC ; CIndicatorInfoMap::GetIndicatorInfo
EXTRN	??0CDefaultIndicatorInfoMap@@QAE@W4EIndicatorInfoType@@@Z:PROC ; CDefaultIndicatorInfoMap::CDefaultIndicatorInfoMap
EXTRN	??0CGraphIndicatorInfoMap@@QAE@W4EIndicatorInfoType@@@Z:PROC ; CGraphIndicatorInfoMap::CGraphIndicatorInfoMap
EXTRN	??_E?$CList@NN@@UAEPAXI@Z:PROC			; CList<double,double>::`vector deleting destructor'
EXTRN	??_ECSubGraphPartData@@UAEPAXI@Z:PROC		; CSubGraphPartData::`vector deleting destructor'
EXTRN	??_ECGraphPartData@@UAEPAXI@Z:PROC		; CGraphPartData::`vector deleting destructor'
EXTRN	??_ECBaseIndicatorList@@UAEPAXI@Z:PROC		; CBaseIndicatorList::`vector deleting destructor'
EXTRN	??_ECDefaultIndicatorList@@UAEPAXI@Z:PROC	; CDefaultIndicatorList::`vector deleting destructor'
EXTRN	??_ECUserIndicatorList@@UAEPAXI@Z:PROC		; CUserIndicatorList::`vector deleting destructor'
EXTRN	??1CIndicatorInfo@@UAE@XZ:PROC			; CIndicatorInfo::~CIndicatorInfo
EXTRN	?GetIndicatorInfoType@CIndicatorInfo@@QBE?AW4EIndicatorInfoType@@XZ:PROC ; CIndicatorInfo::GetIndicatorInfoType
EXTRN	??0CIndicatorGroupData@@QAE@ABV?$CStringT@DV?$StrTraitMFC_DLL@DV?$ChTraitsCRT@D@ATL@@@@@ATL@@@Z:PROC ; CIndicatorGroupData::CIndicatorGroupData
EXTRN	??1CIndicatorGroupDataList@@UAE@XZ:PROC		; CIndicatorGroupDataList::~CIndicatorGroupDataList
EXTRN	?DeleteAll@CIndicatorGroupDataList@@QAEXXZ:PROC	; CIndicatorGroupDataList::DeleteAll
EXTRN	?GetCount@CIndicatorGroupDataList@@QBEHXZ:PROC	; CIndicatorGroupDataList::GetCount
EXTRN	??_E?$CList@PAVCIndicatorGroupData@@PAV1@@@UAEPAXI@Z:PROC ; CList<CIndicatorGroupData *,CIndicatorGroupData *>::`vector deleting destructor'
EXTRN	?IsTitleOnlyCondition@IMetaTable@@QAE_NABV?$CStringT@DV?$StrTraitMFC_DLL@DV?$ChTraitsCRT@D@ATL@@@@@ATL@@@Z:PROC ; IMetaTable::IsTitleOnlyCondition
EXTRN	?IsTitleOrCondition@IMetaTable@@QAE_NABV?$CStringT@DV?$StrTraitMFC_DLL@DV?$ChTraitsCRT@D@ATL@@@@@ATL@@@Z:PROC ; IMetaTable::IsTitleOrCondition
EXTRN	?FileDataBuild@CDefaultIndicatorListBuilder@@UAE_NPAVCBaseIndicatorList@@AAPAD@Z:PROC ; CDefaultIndicatorListBuilder::FileDataBuild
EXTRN	?MakeIndicatorInfo@CDefaultIndicatorListBuilder@@MAEPAVCIndicatorInfo@@W4EIndicatorInfoType@@AAPAD@Z:PROC ; CDefaultIndicatorListBuilder::MakeIndicatorInfo
EXTRN	??0CDefaultTypeIndiListBuilder@@QAE@PAVCGraphTypeAndStyleData@@PAUHWND__@@@Z:PROC ; CDefaultTypeIndiListBuilder::CDefaultTypeIndiListBuilder
EXTRN	?ReadInfoCfgStrToObject@CDefaultUserTypeIndiListBuilder@@MAE_NPAVCIndicatorInfo@@AAPAD@Z:PROC ; CDefaultUserTypeIndiListBuilder::ReadInfoCfgStrToObject
EXTRN	?GetWritingFileData@CDefaultUserTypeIndiListBuilder@@QBEXABVCUserIndicatorList@@AAVCStringList@@@Z:PROC ; CDefaultUserTypeIndiListBuilder::GetWritingFileData
EXTRN	??0CNotDefaultUserTypeIndiListBuilder@@QAE@PAVCDefaultIndicatorList@@PAUHWND__@@@Z:PROC ; CNotDefaultUserTypeIndiListBuilder::CNotDefaultUserTypeIndiListBuilder
EXTRN	?FileDataBuild@CNotDefaultUserTypeIndiListBuilder@@UAE_NPAVCBaseIndicatorList@@AAPAD@Z:PROC ; CNotDefaultUserTypeIndiListBuilder::FileDataBuild
EXTRN	??0CUserVer5Dot20TypeIndiListBuilder@@QAE@PAVCDefaultIndicatorList@@PAUHWND__@@@Z:PROC ; CUserVer5Dot20TypeIndiListBuilder::CUserVer5Dot20TypeIndiListBuilder
EXTRN	??0CUserVer5Dot10TypeIndiListBuilder@@QAE@PAVCDefaultIndicatorList@@PAUHWND__@@@Z:PROC ; CUserVer5Dot10TypeIndiListBuilder::CUserVer5Dot10TypeIndiListBuilder
EXTRN	??0CUserVer5Dot00TypeIndiListBuilder@@QAE@PAVCDefaultIndicatorList@@PAUHWND__@@@Z:PROC ; CUserVer5Dot00TypeIndiListBuilder::CUserVer5Dot00TypeIndiListBuilder
EXTRN	??0CUserVer3Dot21TypeIndiListBuilder@@QAE@PAVCDefaultIndicatorList@@PAUHWND__@@@Z:PROC ; CUserVer3Dot21TypeIndiListBuilder::CUserVer3Dot21TypeIndiListBuilder
EXTRN	?DoubleToString@CDataConversion@@SA?AV?$CStringT@DV?$StrTraitMFC_DLL@DV?$ChTraitsCRT@D@ATL@@@@@ATL@@ABN@Z:PROC ; CDataConversion::DoubleToString
EXTRN	?GetStringData@CDataConversion@@SA?AV?$CStringT@DV?$StrTraitMFC_DLL@DV?$ChTraitsCRT@D@ATL@@@@@ATL@@AAV23@ABV23@_N@Z:PROC ; CDataConversion::GetStringData
EXTRN	@__security_check_cookie@4:PROC
EXTRN	__CxxThrowException@8:PROC
EXTRN	___CxxFrameHandler3:PROC
EXTRN	__Init_thread_epoch:DWORD
EXTRN	??_7type_info@@6B@:QWORD			; type_info::`vftable'
EXTRN	?g_iMetaTable@@3VIMetaTable@@A:BYTE		; g_iMetaTable
EXTRN	___security_cookie:DWORD
EXTRN	__fltused:DWORD
EXTRN	__tls_array:DWORD
EXTRN	__tls_index:DWORD
;	COMDAT ?dilBuilder@?O@??AddIndiInfoFromCfgString@CUserIndicatorList@@QAE_NPAVCIndicatorList@@AAPAD_N@Z@4VCUserVer3Dot21TypeIndiListBuilder@@A
_BSS	SEGMENT
?dilBuilder@?O@??AddIndiInfoFromCfgString@CUserIndicatorList@@QAE_NPAVCIndicatorList@@AAPAD_N@Z@4VCUserVer3Dot21TypeIndiListBuilder@@A DB 09cH DUP (?) ; `CUserIndicatorList::AddIndiInfoFromCfgString'::`14'::dilBuilder
_BSS	ENDS
;	COMDAT ?$TSS0@?O@??AddIndiInfoFromCfgString@CUserIndicatorList@@QAE_NPAVCIndicatorList@@AAPAD_N@Z@4HA
_BSS	SEGMENT
?$TSS0@?O@??AddIndiInfoFromCfgString@CUserIndicatorList@@QAE_NPAVCIndicatorList@@AAPAD_N@Z@4HA DD 01H DUP (?) ; `CUserIndicatorList::AddIndiInfoFromCfgString'::`14'::$TSS0
_BSS	ENDS
;	COMDAT ?dilBuilder@?BC@??AddIndiInfoFromCfgString@CUserIndicatorList@@QAE_NPAVCIndicatorList@@AAPAD_N@Z@4VCUserVer5Dot00TypeIndiListBuilder@@A
_BSS	SEGMENT
?dilBuilder@?BC@??AddIndiInfoFromCfgString@CUserIndicatorList@@QAE_NPAVCIndicatorList@@AAPAD_N@Z@4VCUserVer5Dot00TypeIndiListBuilder@@A DB 080H DUP (?) ; `CUserIndicatorList::AddIndiInfoFromCfgString'::`18'::dilBuilder
_BSS	ENDS
;	COMDAT ?$TSS1@?BC@??AddIndiInfoFromCfgString@CUserIndicatorList@@QAE_NPAVCIndicatorList@@AAPAD_N@Z@4HA
_BSS	SEGMENT
?$TSS1@?BC@??AddIndiInfoFromCfgString@CUserIndicatorList@@QAE_NPAVCIndicatorList@@AAPAD_N@Z@4HA DD 01H DUP (?) ; `CUserIndicatorList::AddIndiInfoFromCfgString'::`18'::$TSS1
_BSS	ENDS
;	COMDAT ?dilBuilder@?BG@??AddIndiInfoFromCfgString@CUserIndicatorList@@QAE_NPAVCIndicatorList@@AAPAD_N@Z@4VCUserVer5Dot10TypeIndiListBuilder@@A
_BSS	SEGMENT
?dilBuilder@?BG@??AddIndiInfoFromCfgString@CUserIndicatorList@@QAE_NPAVCIndicatorList@@AAPAD_N@Z@4VCUserVer5Dot10TypeIndiListBuilder@@A DB 064H DUP (?) ; `CUserIndicatorList::AddIndiInfoFromCfgString'::`22'::dilBuilder
_BSS	ENDS
;	COMDAT ?$TSS2@?BG@??AddIndiInfoFromCfgString@CUserIndicatorList@@QAE_NPAVCIndicatorList@@AAPAD_N@Z@4HA
_BSS	SEGMENT
?$TSS2@?BG@??AddIndiInfoFromCfgString@CUserIndicatorList@@QAE_NPAVCIndicatorList@@AAPAD_N@Z@4HA DD 01H DUP (?) ; `CUserIndicatorList::AddIndiInfoFromCfgString'::`22'::$TSS2
_BSS	ENDS
;	COMDAT ?dilBuilder@?BK@??AddIndiInfoFromCfgString@CUserIndicatorList@@QAE_NPAVCIndicatorList@@AAPAD_N@Z@4VCUserVer5Dot20TypeIndiListBuilder@@A
_BSS	SEGMENT
?dilBuilder@?BK@??AddIndiInfoFromCfgString@CUserIndicatorList@@QAE_NPAVCIndicatorList@@AAPAD_N@Z@4VCUserVer5Dot20TypeIndiListBuilder@@A DB 048H DUP (?) ; `CUserIndicatorList::AddIndiInfoFromCfgString'::`26'::dilBuilder
_BSS	ENDS
;	COMDAT ?$TSS3@?BK@??AddIndiInfoFromCfgString@CUserIndicatorList@@QAE_NPAVCIndicatorList@@AAPAD_N@Z@4HA
_BSS	SEGMENT
?$TSS3@?BK@??AddIndiInfoFromCfgString@CUserIndicatorList@@QAE_NPAVCIndicatorList@@AAPAD_N@Z@4HA DD 01H DUP (?) ; `CUserIndicatorList::AddIndiInfoFromCfgString'::`26'::$TSS3
_BSS	ENDS
;	COMDAT __real@4014d70a3d70a3d7
CONST	SEGMENT
__real@4014d70a3d70a3d7 DQ 04014d70a3d70a3d7r	; 5.21
CONST	ENDS
;	COMDAT __real@4014cccccccccccd
CONST	SEGMENT
__real@4014cccccccccccd DQ 04014cccccccccccdr	; 5.2
CONST	ENDS
;	COMDAT __real@4014cbc6a7ef9db2
CONST	SEGMENT
__real@4014cbc6a7ef9db2 DQ 04014cbc6a7ef9db2r	; 5.199
CONST	ENDS
;	COMDAT __real@4014666666666666
CONST	SEGMENT
__real@4014666666666666 DQ 04014666666666666r	; 5.1
CONST	ENDS
;	COMDAT __real@4014000000000000
CONST	SEGMENT
__real@4014000000000000 DQ 04014000000000000r	; 5
CONST	ENDS
;	COMDAT __real@401399999999999a
CONST	SEGMENT
__real@401399999999999a DQ 0401399999999999ar	; 4.9
CONST	ENDS
;	COMDAT __real@400a666666666666
CONST	SEGMENT
__real@400a666666666666 DQ 0400a666666666666r	; 3.3
CONST	ENDS
;	COMDAT __real@400999999999999a
CONST	SEGMENT
__real@400999999999999a DQ 0400999999999999ar	; 3.2
CONST	ENDS
;	COMDAT __real@0000000000000000
CONST	SEGMENT
__real@0000000000000000 DQ 00000000000000000r	; 0
CONST	ENDS
;	COMDAT ??_R1A@?0A@EA@?$CList@PAVCIndicatorGroupData@@PAV1@@@8
rdata$r	SEGMENT
??_R1A@?0A@EA@?$CList@PAVCIndicatorGroupData@@PAV1@@@8 DD FLAT:??_R0?AV?$CList@PAVCIndicatorGroupData@@PAV1@@@@8 ; CList<CIndicatorGroupData *,CIndicatorGroupData *>::`RTTI Base Class Descriptor at (0,-1,0,64)'
	DD	01H
	DD	00H
	DD	0ffffffffH
	DD	00H
	DD	040H
	DD	FLAT:??_R3?$CList@PAVCIndicatorGroupData@@PAV1@@@8
rdata$r	ENDS
;	COMDAT ??_R2?$CList@PAVCIndicatorGroupData@@PAV1@@@8
rdata$r	SEGMENT
??_R2?$CList@PAVCIndicatorGroupData@@PAV1@@@8 DD FLAT:??_R1A@?0A@EA@?$CList@PAVCIndicatorGroupData@@PAV1@@@8 ; CList<CIndicatorGroupData *,CIndicatorGroupData *>::`RTTI Base Class Array'
	DD	FLAT:??_R1A@?0A@EA@CObject@@8
rdata$r	ENDS
;	COMDAT ??_R3?$CList@PAVCIndicatorGroupData@@PAV1@@@8
rdata$r	SEGMENT
??_R3?$CList@PAVCIndicatorGroupData@@PAV1@@@8 DD 00H	; CList<CIndicatorGroupData *,CIndicatorGroupData *>::`RTTI Class Hierarchy Descriptor'
	DD	00H
	DD	02H
	DD	FLAT:??_R2?$CList@PAVCIndicatorGroupData@@PAV1@@@8
rdata$r	ENDS
;	COMDAT ??_R0?AV?$CList@PAVCIndicatorGroupData@@PAV1@@@@8
data$rs	SEGMENT
??_R0?AV?$CList@PAVCIndicatorGroupData@@PAV1@@@@8 DD FLAT:??_7type_info@@6B@ ; CList<CIndicatorGroupData *,CIndicatorGroupData *> `RTTI Type Descriptor'
	DD	00H
	DB	'.?AV?$CList@PAVCIndicatorGroupData@@PAV1@@@', 00H
data$rs	ENDS
;	COMDAT ??_R4?$CList@PAVCIndicatorGroupData@@PAV1@@@6B@
rdata$r	SEGMENT
??_R4?$CList@PAVCIndicatorGroupData@@PAV1@@@6B@ DD 00H	; CList<CIndicatorGroupData *,CIndicatorGroupData *>::`RTTI Complete Object Locator'
	DD	00H
	DD	00H
	DD	FLAT:??_R0?AV?$CList@PAVCIndicatorGroupData@@PAV1@@@@8
	DD	FLAT:??_R3?$CList@PAVCIndicatorGroupData@@PAV1@@@8
rdata$r	ENDS
;	COMDAT ??_R1A@?0A@EA@CUserIndicatorList@@8
rdata$r	SEGMENT
??_R1A@?0A@EA@CUserIndicatorList@@8 DD FLAT:??_R0?AVCUserIndicatorList@@@8 ; CUserIndicatorList::`RTTI Base Class Descriptor at (0,-1,0,64)'
	DD	01H
	DD	00H
	DD	0ffffffffH
	DD	00H
	DD	040H
	DD	FLAT:??_R3CUserIndicatorList@@8
rdata$r	ENDS
;	COMDAT ??_R2CUserIndicatorList@@8
rdata$r	SEGMENT
??_R2CUserIndicatorList@@8 DD FLAT:??_R1A@?0A@EA@CUserIndicatorList@@8 ; CUserIndicatorList::`RTTI Base Class Array'
	DD	FLAT:??_R1A@?0A@EA@CBaseIndicatorList@@8
rdata$r	ENDS
;	COMDAT ??_R3CUserIndicatorList@@8
rdata$r	SEGMENT
??_R3CUserIndicatorList@@8 DD 00H			; CUserIndicatorList::`RTTI Class Hierarchy Descriptor'
	DD	00H
	DD	02H
	DD	FLAT:??_R2CUserIndicatorList@@8
rdata$r	ENDS
;	COMDAT ??_R0?AVCUserIndicatorList@@@8
data$rs	SEGMENT
??_R0?AVCUserIndicatorList@@@8 DD FLAT:??_7type_info@@6B@ ; CUserIndicatorList `RTTI Type Descriptor'
	DD	00H
	DB	'.?AVCUserIndicatorList@@', 00H
data$rs	ENDS
;	COMDAT ??_R4CUserIndicatorList@@6B@
rdata$r	SEGMENT
??_R4CUserIndicatorList@@6B@ DD 00H			; CUserIndicatorList::`RTTI Complete Object Locator'
	DD	00H
	DD	00H
	DD	FLAT:??_R0?AVCUserIndicatorList@@@8
	DD	FLAT:??_R3CUserIndicatorList@@8
rdata$r	ENDS
;	COMDAT ??_R1A@?0A@EA@CDefaultIndicatorList@@8
rdata$r	SEGMENT
??_R1A@?0A@EA@CDefaultIndicatorList@@8 DD FLAT:??_R0?AVCDefaultIndicatorList@@@8 ; CDefaultIndicatorList::`RTTI Base Class Descriptor at (0,-1,0,64)'
	DD	01H
	DD	00H
	DD	0ffffffffH
	DD	00H
	DD	040H
	DD	FLAT:??_R3CDefaultIndicatorList@@8
rdata$r	ENDS
;	COMDAT ??_R2CDefaultIndicatorList@@8
rdata$r	SEGMENT
??_R2CDefaultIndicatorList@@8 DD FLAT:??_R1A@?0A@EA@CDefaultIndicatorList@@8 ; CDefaultIndicatorList::`RTTI Base Class Array'
	DD	FLAT:??_R1A@?0A@EA@CBaseIndicatorList@@8
rdata$r	ENDS
;	COMDAT ??_R3CDefaultIndicatorList@@8
rdata$r	SEGMENT
??_R3CDefaultIndicatorList@@8 DD 00H			; CDefaultIndicatorList::`RTTI Class Hierarchy Descriptor'
	DD	00H
	DD	02H
	DD	FLAT:??_R2CDefaultIndicatorList@@8
rdata$r	ENDS
;	COMDAT ??_R0?AVCDefaultIndicatorList@@@8
data$rs	SEGMENT
??_R0?AVCDefaultIndicatorList@@@8 DD FLAT:??_7type_info@@6B@ ; CDefaultIndicatorList `RTTI Type Descriptor'
	DD	00H
	DB	'.?AVCDefaultIndicatorList@@', 00H
data$rs	ENDS
;	COMDAT ??_R4CDefaultIndicatorList@@6B@
rdata$r	SEGMENT
??_R4CDefaultIndicatorList@@6B@ DD 00H			; CDefaultIndicatorList::`RTTI Complete Object Locator'
	DD	00H
	DD	00H
	DD	FLAT:??_R0?AVCDefaultIndicatorList@@@8
	DD	FLAT:??_R3CDefaultIndicatorList@@8
rdata$r	ENDS
;	COMDAT ??_R1A@?0A@EA@CDefaultUserTypeIndiListBuilder@@8
rdata$r	SEGMENT
??_R1A@?0A@EA@CDefaultUserTypeIndiListBuilder@@8 DD FLAT:??_R0?AVCDefaultUserTypeIndiListBuilder@@@8 ; CDefaultUserTypeIndiListBuilder::`RTTI Base Class Descriptor at (0,-1,0,64)'
	DD	02H
	DD	00H
	DD	0ffffffffH
	DD	00H
	DD	040H
	DD	FLAT:??_R3CDefaultUserTypeIndiListBuilder@@8
rdata$r	ENDS
;	COMDAT ??_R2CDefaultUserTypeIndiListBuilder@@8
rdata$r	SEGMENT
??_R2CDefaultUserTypeIndiListBuilder@@8 DD FLAT:??_R1A@?0A@EA@CDefaultUserTypeIndiListBuilder@@8 ; CDefaultUserTypeIndiListBuilder::`RTTI Base Class Array'
	DD	FLAT:??_R1A@?0A@EA@CDefaultIndicatorListBuilder@@8
	DD	FLAT:??_R13?0A@EA@CIndicatorBuilder@@8
rdata$r	ENDS
;	COMDAT ??_R3CDefaultUserTypeIndiListBuilder@@8
rdata$r	SEGMENT
??_R3CDefaultUserTypeIndiListBuilder@@8 DD 00H		; CDefaultUserTypeIndiListBuilder::`RTTI Class Hierarchy Descriptor'
	DD	00H
	DD	03H
	DD	FLAT:??_R2CDefaultUserTypeIndiListBuilder@@8
rdata$r	ENDS
;	COMDAT ??_R0?AVCDefaultUserTypeIndiListBuilder@@@8
data$rs	SEGMENT
??_R0?AVCDefaultUserTypeIndiListBuilder@@@8 DD FLAT:??_7type_info@@6B@ ; CDefaultUserTypeIndiListBuilder `RTTI Type Descriptor'
	DD	00H
	DB	'.?AVCDefaultUserTypeIndiListBuilder@@', 00H
data$rs	ENDS
;	COMDAT ??_R4CDefaultUserTypeIndiListBuilder@@6B@
rdata$r	SEGMENT
??_R4CDefaultUserTypeIndiListBuilder@@6B@ DD 00H	; CDefaultUserTypeIndiListBuilder::`RTTI Complete Object Locator'
	DD	00H
	DD	00H
	DD	FLAT:??_R0?AVCDefaultUserTypeIndiListBuilder@@@8
	DD	FLAT:??_R3CDefaultUserTypeIndiListBuilder@@8
rdata$r	ENDS
;	COMDAT ??_R1A@?0A@EA@CDefaultIndicatorListBuilder@@8
rdata$r	SEGMENT
??_R1A@?0A@EA@CDefaultIndicatorListBuilder@@8 DD FLAT:??_R0?AVCDefaultIndicatorListBuilder@@@8 ; CDefaultIndicatorListBuilder::`RTTI Base Class Descriptor at (0,-1,0,64)'
	DD	01H
	DD	00H
	DD	0ffffffffH
	DD	00H
	DD	040H
	DD	FLAT:??_R3CDefaultIndicatorListBuilder@@8
rdata$r	ENDS
;	COMDAT ??_R2CDefaultIndicatorListBuilder@@8
rdata$r	SEGMENT
??_R2CDefaultIndicatorListBuilder@@8 DD FLAT:??_R1A@?0A@EA@CDefaultIndicatorListBuilder@@8 ; CDefaultIndicatorListBuilder::`RTTI Base Class Array'
	DD	FLAT:??_R13?0A@EA@CIndicatorBuilder@@8
rdata$r	ENDS
;	COMDAT ??_R3CDefaultIndicatorListBuilder@@8
rdata$r	SEGMENT
??_R3CDefaultIndicatorListBuilder@@8 DD 00H		; CDefaultIndicatorListBuilder::`RTTI Class Hierarchy Descriptor'
	DD	00H
	DD	02H
	DD	FLAT:??_R2CDefaultIndicatorListBuilder@@8
rdata$r	ENDS
;	COMDAT ??_R0?AVCDefaultIndicatorListBuilder@@@8
data$rs	SEGMENT
??_R0?AVCDefaultIndicatorListBuilder@@@8 DD FLAT:??_7type_info@@6B@ ; CDefaultIndicatorListBuilder `RTTI Type Descriptor'
	DD	00H
	DB	'.?AVCDefaultIndicatorListBuilder@@', 00H
data$rs	ENDS
;	COMDAT ??_R4CDefaultIndicatorListBuilder@@6B@
rdata$r	SEGMENT
??_R4CDefaultIndicatorListBuilder@@6B@ DD 00H		; CDefaultIndicatorListBuilder::`RTTI Complete Object Locator'
	DD	00H
	DD	00H
	DD	FLAT:??_R0?AVCDefaultIndicatorListBuilder@@@8
	DD	FLAT:??_R3CDefaultIndicatorListBuilder@@8
rdata$r	ENDS
;	COMDAT ??_R1A@?0A@EA@CBaseIndicatorList@@8
rdata$r	SEGMENT
??_R1A@?0A@EA@CBaseIndicatorList@@8 DD FLAT:??_R0?AVCBaseIndicatorList@@@8 ; CBaseIndicatorList::`RTTI Base Class Descriptor at (0,-1,0,64)'
	DD	00H
	DD	00H
	DD	0ffffffffH
	DD	00H
	DD	040H
	DD	FLAT:??_R3CBaseIndicatorList@@8
rdata$r	ENDS
;	COMDAT ??_R2CBaseIndicatorList@@8
rdata$r	SEGMENT
??_R2CBaseIndicatorList@@8 DD FLAT:??_R1A@?0A@EA@CBaseIndicatorList@@8 ; CBaseIndicatorList::`RTTI Base Class Array'
rdata$r	ENDS
;	COMDAT ??_R3CBaseIndicatorList@@8
rdata$r	SEGMENT
??_R3CBaseIndicatorList@@8 DD 00H			; CBaseIndicatorList::`RTTI Class Hierarchy Descriptor'
	DD	00H
	DD	01H
	DD	FLAT:??_R2CBaseIndicatorList@@8
rdata$r	ENDS
;	COMDAT ??_R0?AVCBaseIndicatorList@@@8
data$rs	SEGMENT
??_R0?AVCBaseIndicatorList@@@8 DD FLAT:??_7type_info@@6B@ ; CBaseIndicatorList `RTTI Type Descriptor'
	DD	00H
	DB	'.?AVCBaseIndicatorList@@', 00H
data$rs	ENDS
;	COMDAT ??_R4CBaseIndicatorList@@6B@
rdata$r	SEGMENT
??_R4CBaseIndicatorList@@6B@ DD 00H			; CBaseIndicatorList::`RTTI Complete Object Locator'
	DD	00H
	DD	00H
	DD	FLAT:??_R0?AVCBaseIndicatorList@@@8
	DD	FLAT:??_R3CBaseIndicatorList@@8
rdata$r	ENDS
;	COMDAT ??_R1A@?0A@EA@CGraphPartData@@8
rdata$r	SEGMENT
??_R1A@?0A@EA@CGraphPartData@@8 DD FLAT:??_R0?AVCGraphPartData@@@8 ; CGraphPartData::`RTTI Base Class Descriptor at (0,-1,0,64)'
	DD	00H
	DD	00H
	DD	0ffffffffH
	DD	00H
	DD	040H
	DD	FLAT:??_R3CGraphPartData@@8
rdata$r	ENDS
;	COMDAT ??_R2CGraphPartData@@8
rdata$r	SEGMENT
??_R2CGraphPartData@@8 DD FLAT:??_R1A@?0A@EA@CGraphPartData@@8 ; CGraphPartData::`RTTI Base Class Array'
rdata$r	ENDS
;	COMDAT ??_R3CGraphPartData@@8
rdata$r	SEGMENT
??_R3CGraphPartData@@8 DD 00H				; CGraphPartData::`RTTI Class Hierarchy Descriptor'
	DD	00H
	DD	01H
	DD	FLAT:??_R2CGraphPartData@@8
rdata$r	ENDS
;	COMDAT ??_R0?AVCGraphPartData@@@8
data$rs	SEGMENT
??_R0?AVCGraphPartData@@@8 DD FLAT:??_7type_info@@6B@	; CGraphPartData `RTTI Type Descriptor'
	DD	00H
	DB	'.?AVCGraphPartData@@', 00H
data$rs	ENDS
;	COMDAT ??_R4CGraphPartData@@6B@
rdata$r	SEGMENT
??_R4CGraphPartData@@6B@ DD 00H				; CGraphPartData::`RTTI Complete Object Locator'
	DD	00H
	DD	00H
	DD	FLAT:??_R0?AVCGraphPartData@@@8
	DD	FLAT:??_R3CGraphPartData@@8
rdata$r	ENDS
;	COMDAT ??_R1A@?0A@EA@CGraphData@@8
rdata$r	SEGMENT
??_R1A@?0A@EA@CGraphData@@8 DD FLAT:??_R0?AVCGraphData@@@8 ; CGraphData::`RTTI Base Class Descriptor at (0,-1,0,64)'
	DD	01H
	DD	00H
	DD	0ffffffffH
	DD	00H
	DD	040H
	DD	FLAT:??_R3CGraphData@@8
rdata$r	ENDS
;	COMDAT ??_R2CGraphData@@8
rdata$r	SEGMENT
??_R2CGraphData@@8 DD FLAT:??_R1A@?0A@EA@CGraphData@@8	; CGraphData::`RTTI Base Class Array'
	DD	FLAT:??_R1A@?0A@EA@CGraphDataBase@@8
rdata$r	ENDS
;	COMDAT ??_R3CGraphData@@8
rdata$r	SEGMENT
??_R3CGraphData@@8 DD 00H				; CGraphData::`RTTI Class Hierarchy Descriptor'
	DD	00H
	DD	02H
	DD	FLAT:??_R2CGraphData@@8
rdata$r	ENDS
;	COMDAT ??_R0?AVCGraphData@@@8
data$rs	SEGMENT
??_R0?AVCGraphData@@@8 DD FLAT:??_7type_info@@6B@	; CGraphData `RTTI Type Descriptor'
	DD	00H
	DB	'.?AVCGraphData@@', 00H
data$rs	ENDS
;	COMDAT ??_R4CGraphData@@6B@
rdata$r	SEGMENT
??_R4CGraphData@@6B@ DD 00H				; CGraphData::`RTTI Complete Object Locator'
	DD	00H
	DD	00H
	DD	FLAT:??_R0?AVCGraphData@@@8
	DD	FLAT:??_R3CGraphData@@8
rdata$r	ENDS
;	COMDAT ??_R1A@?0A@EA@CIndicatorBuilder@@8
rdata$r	SEGMENT
??_R1A@?0A@EA@CIndicatorBuilder@@8 DD FLAT:??_R0?AVCIndicatorBuilder@@@8 ; CIndicatorBuilder::`RTTI Base Class Descriptor at (0,-1,0,64)'
	DD	00H
	DD	00H
	DD	0ffffffffH
	DD	00H
	DD	040H
	DD	FLAT:??_R3CIndicatorBuilder@@8
rdata$r	ENDS
;	COMDAT ??_R2CIndicatorBuilder@@8
rdata$r	SEGMENT
??_R2CIndicatorBuilder@@8 DD FLAT:??_R1A@?0A@EA@CIndicatorBuilder@@8 ; CIndicatorBuilder::`RTTI Base Class Array'
rdata$r	ENDS
;	COMDAT ??_R3CIndicatorBuilder@@8
rdata$r	SEGMENT
??_R3CIndicatorBuilder@@8 DD 00H			; CIndicatorBuilder::`RTTI Class Hierarchy Descriptor'
	DD	00H
	DD	01H
	DD	FLAT:??_R2CIndicatorBuilder@@8
rdata$r	ENDS
;	COMDAT ??_R0?AVCIndicatorBuilder@@@8
data$rs	SEGMENT
??_R0?AVCIndicatorBuilder@@@8 DD FLAT:??_7type_info@@6B@ ; CIndicatorBuilder `RTTI Type Descriptor'
	DD	00H
	DB	'.?AVCIndicatorBuilder@@', 00H
data$rs	ENDS
;	COMDAT ??_R13?0A@EA@CIndicatorBuilder@@8
rdata$r	SEGMENT
??_R13?0A@EA@CIndicatorBuilder@@8 DD FLAT:??_R0?AVCIndicatorBuilder@@@8 ; CIndicatorBuilder::`RTTI Base Class Descriptor at (4,-1,0,64)'
	DD	00H
	DD	04H
	DD	0ffffffffH
	DD	00H
	DD	040H
	DD	FLAT:??_R3CIndicatorBuilder@@8
rdata$r	ENDS
;	COMDAT ??_R1A@?0A@EA@CGraphDataBase@@8
rdata$r	SEGMENT
??_R1A@?0A@EA@CGraphDataBase@@8 DD FLAT:??_R0?AVCGraphDataBase@@@8 ; CGraphDataBase::`RTTI Base Class Descriptor at (0,-1,0,64)'
	DD	00H
	DD	00H
	DD	0ffffffffH
	DD	00H
	DD	040H
	DD	FLAT:??_R3CGraphDataBase@@8
rdata$r	ENDS
;	COMDAT ??_R2CGraphDataBase@@8
rdata$r	SEGMENT
??_R2CGraphDataBase@@8 DD FLAT:??_R1A@?0A@EA@CGraphDataBase@@8 ; CGraphDataBase::`RTTI Base Class Array'
rdata$r	ENDS
;	COMDAT ??_R3CGraphDataBase@@8
rdata$r	SEGMENT
??_R3CGraphDataBase@@8 DD 00H				; CGraphDataBase::`RTTI Class Hierarchy Descriptor'
	DD	00H
	DD	01H
	DD	FLAT:??_R2CGraphDataBase@@8
rdata$r	ENDS
;	COMDAT ??_R0?AVCGraphDataBase@@@8
data$rs	SEGMENT
??_R0?AVCGraphDataBase@@@8 DD FLAT:??_7type_info@@6B@	; CGraphDataBase `RTTI Type Descriptor'
	DD	00H
	DB	'.?AVCGraphDataBase@@', 00H
data$rs	ENDS
;	COMDAT ??_R4CGraphDataBase@@6B@
rdata$r	SEGMENT
??_R4CGraphDataBase@@6B@ DD 00H				; CGraphDataBase::`RTTI Complete Object Locator'
	DD	00H
	DD	00H
	DD	FLAT:??_R0?AVCGraphDataBase@@@8
	DD	FLAT:??_R3CGraphDataBase@@8
rdata$r	ENDS
;	COMDAT ??_R1A@?0A@EA@CIndicatorList@@8
rdata$r	SEGMENT
??_R1A@?0A@EA@CIndicatorList@@8 DD FLAT:??_R0?AVCIndicatorList@@@8 ; CIndicatorList::`RTTI Base Class Descriptor at (0,-1,0,64)'
	DD	00H
	DD	00H
	DD	0ffffffffH
	DD	00H
	DD	040H
	DD	FLAT:??_R3CIndicatorList@@8
rdata$r	ENDS
;	COMDAT ??_R2CIndicatorList@@8
rdata$r	SEGMENT
??_R2CIndicatorList@@8 DD FLAT:??_R1A@?0A@EA@CIndicatorList@@8 ; CIndicatorList::`RTTI Base Class Array'
rdata$r	ENDS
;	COMDAT ??_R3CIndicatorList@@8
rdata$r	SEGMENT
??_R3CIndicatorList@@8 DD 00H				; CIndicatorList::`RTTI Class Hierarchy Descriptor'
	DD	00H
	DD	01H
	DD	FLAT:??_R2CIndicatorList@@8
rdata$r	ENDS
;	COMDAT ??_R0?AVCIndicatorList@@@8
data$rs	SEGMENT
??_R0?AVCIndicatorList@@@8 DD FLAT:??_7type_info@@6B@	; CIndicatorList `RTTI Type Descriptor'
	DD	00H
	DB	'.?AVCIndicatorList@@', 00H
data$rs	ENDS
;	COMDAT ??_R4CIndicatorList@@6B@
rdata$r	SEGMENT
??_R4CIndicatorList@@6B@ DD 00H				; CIndicatorList::`RTTI Complete Object Locator'
	DD	00H
	DD	00H
	DD	FLAT:??_R0?AVCIndicatorList@@@8
	DD	FLAT:??_R3CIndicatorList@@8
rdata$r	ENDS
;	COMDAT ??_R1A@?0A@EA@CIndicatorGroupDataList@@8
rdata$r	SEGMENT
??_R1A@?0A@EA@CIndicatorGroupDataList@@8 DD FLAT:??_R0?AVCIndicatorGroupDataList@@@8 ; CIndicatorGroupDataList::`RTTI Base Class Descriptor at (0,-1,0,64)'
	DD	00H
	DD	00H
	DD	0ffffffffH
	DD	00H
	DD	040H
	DD	FLAT:??_R3CIndicatorGroupDataList@@8
rdata$r	ENDS
;	COMDAT ??_R2CIndicatorGroupDataList@@8
rdata$r	SEGMENT
??_R2CIndicatorGroupDataList@@8 DD FLAT:??_R1A@?0A@EA@CIndicatorGroupDataList@@8 ; CIndicatorGroupDataList::`RTTI Base Class Array'
rdata$r	ENDS
;	COMDAT ??_R3CIndicatorGroupDataList@@8
rdata$r	SEGMENT
??_R3CIndicatorGroupDataList@@8 DD 00H			; CIndicatorGroupDataList::`RTTI Class Hierarchy Descriptor'
	DD	00H
	DD	01H
	DD	FLAT:??_R2CIndicatorGroupDataList@@8
rdata$r	ENDS
;	COMDAT ??_R0?AVCIndicatorGroupDataList@@@8
data$rs	SEGMENT
??_R0?AVCIndicatorGroupDataList@@@8 DD FLAT:??_7type_info@@6B@ ; CIndicatorGroupDataList `RTTI Type Descriptor'
	DD	00H
	DB	'.?AVCIndicatorGroupDataList@@', 00H
data$rs	ENDS
;	COMDAT ??_R4CIndicatorGroupDataList@@6B@
rdata$r	SEGMENT
??_R4CIndicatorGroupDataList@@6B@ DD 00H		; CIndicatorGroupDataList::`RTTI Complete Object Locator'
	DD	00H
	DD	00H
	DD	FLAT:??_R0?AVCIndicatorGroupDataList@@@8
	DD	FLAT:??_R3CIndicatorGroupDataList@@8
rdata$r	ENDS
;	COMDAT ??_R1A@?0A@EA@?$CList@NN@@8
rdata$r	SEGMENT
??_R1A@?0A@EA@?$CList@NN@@8 DD FLAT:??_R0?AV?$CList@NN@@@8 ; CList<double,double>::`RTTI Base Class Descriptor at (0,-1,0,64)'
	DD	01H
	DD	00H
	DD	0ffffffffH
	DD	00H
	DD	040H
	DD	FLAT:??_R3?$CList@NN@@8
rdata$r	ENDS
;	COMDAT ??_R2?$CList@NN@@8
rdata$r	SEGMENT
??_R2?$CList@NN@@8 DD FLAT:??_R1A@?0A@EA@?$CList@NN@@8	; CList<double,double>::`RTTI Base Class Array'
	DD	FLAT:??_R1A@?0A@EA@CObject@@8
rdata$r	ENDS
;	COMDAT ??_R3?$CList@NN@@8
rdata$r	SEGMENT
??_R3?$CList@NN@@8 DD 00H				; CList<double,double>::`RTTI Class Hierarchy Descriptor'
	DD	00H
	DD	02H
	DD	FLAT:??_R2?$CList@NN@@8
rdata$r	ENDS
;	COMDAT ??_R0?AV?$CList@NN@@@8
data$rs	SEGMENT
??_R0?AV?$CList@NN@@@8 DD FLAT:??_7type_info@@6B@	; CList<double,double> `RTTI Type Descriptor'
	DD	00H
	DB	'.?AV?$CList@NN@@', 00H
data$rs	ENDS
;	COMDAT ??_R4?$CList@NN@@6B@
rdata$r	SEGMENT
??_R4?$CList@NN@@6B@ DD 00H				; CList<double,double>::`RTTI Complete Object Locator'
	DD	00H
	DD	00H
	DD	FLAT:??_R0?AV?$CList@NN@@@8
	DD	FLAT:??_R3?$CList@NN@@8
rdata$r	ENDS
;	COMDAT ??_R1A@?0A@EA@CSubGraphPartData@@8
rdata$r	SEGMENT
??_R1A@?0A@EA@CSubGraphPartData@@8 DD FLAT:??_R0?AVCSubGraphPartData@@@8 ; CSubGraphPartData::`RTTI Base Class Descriptor at (0,-1,0,64)'
	DD	00H
	DD	00H
	DD	0ffffffffH
	DD	00H
	DD	040H
	DD	FLAT:??_R3CSubGraphPartData@@8
rdata$r	ENDS
;	COMDAT ??_R2CSubGraphPartData@@8
rdata$r	SEGMENT
??_R2CSubGraphPartData@@8 DD FLAT:??_R1A@?0A@EA@CSubGraphPartData@@8 ; CSubGraphPartData::`RTTI Base Class Array'
rdata$r	ENDS
;	COMDAT ??_R3CSubGraphPartData@@8
rdata$r	SEGMENT
??_R3CSubGraphPartData@@8 DD 00H			; CSubGraphPartData::`RTTI Class Hierarchy Descriptor'
	DD	00H
	DD	01H
	DD	FLAT:??_R2CSubGraphPartData@@8
rdata$r	ENDS
;	COMDAT ??_R0?AVCSubGraphPartData@@@8
data$rs	SEGMENT
??_R0?AVCSubGraphPartData@@@8 DD FLAT:??_7type_info@@6B@ ; CSubGraphPartData `RTTI Type Descriptor'
	DD	00H
	DB	'.?AVCSubGraphPartData@@', 00H
data$rs	ENDS
;	COMDAT ??_R4CSubGraphPartData@@6B@
rdata$r	SEGMENT
??_R4CSubGraphPartData@@6B@ DD 00H			; CSubGraphPartData::`RTTI Complete Object Locator'
	DD	00H
	DD	00H
	DD	FLAT:??_R0?AVCSubGraphPartData@@@8
	DD	FLAT:??_R3CSubGraphPartData@@8
rdata$r	ENDS
;	COMDAT ??_R1A@?0A@EA@CIndicatorInfo@@8
rdata$r	SEGMENT
??_R1A@?0A@EA@CIndicatorInfo@@8 DD FLAT:??_R0?AVCIndicatorInfo@@@8 ; CIndicatorInfo::`RTTI Base Class Descriptor at (0,-1,0,64)'
	DD	00H
	DD	00H
	DD	0ffffffffH
	DD	00H
	DD	040H
	DD	FLAT:??_R3CIndicatorInfo@@8
rdata$r	ENDS
;	COMDAT ??_R2CIndicatorInfo@@8
rdata$r	SEGMENT
??_R2CIndicatorInfo@@8 DD FLAT:??_R1A@?0A@EA@CIndicatorInfo@@8 ; CIndicatorInfo::`RTTI Base Class Array'
rdata$r	ENDS
;	COMDAT ??_R3CIndicatorInfo@@8
rdata$r	SEGMENT
??_R3CIndicatorInfo@@8 DD 00H				; CIndicatorInfo::`RTTI Class Hierarchy Descriptor'
	DD	00H
	DD	01H
	DD	FLAT:??_R2CIndicatorInfo@@8
rdata$r	ENDS
;	COMDAT ??_R0?AVCIndicatorInfo@@@8
data$rs	SEGMENT
??_R0?AVCIndicatorInfo@@@8 DD FLAT:??_7type_info@@6B@	; CIndicatorInfo `RTTI Type Descriptor'
	DD	00H
	DB	'.?AVCIndicatorInfo@@', 00H
data$rs	ENDS
;	COMDAT ??_R4CIndicatorInfo@@6B@
rdata$r	SEGMENT
??_R4CIndicatorInfo@@6B@ DD 00H				; CIndicatorInfo::`RTTI Complete Object Locator'
	DD	00H
	DD	00H
	DD	FLAT:??_R0?AVCIndicatorInfo@@@8
	DD	FLAT:??_R3CIndicatorInfo@@8
rdata$r	ENDS
;	COMDAT ??_R1A@?0A@EA@bad_array_new_length@std@@8
rdata$r	SEGMENT
??_R1A@?0A@EA@bad_array_new_length@std@@8 DD FLAT:??_R0?AVbad_array_new_length@std@@@8 ; std::bad_array_new_length::`RTTI Base Class Descriptor at (0,-1,0,64)'
	DD	02H
	DD	00H
	DD	0ffffffffH
	DD	00H
	DD	040H
	DD	FLAT:??_R3bad_array_new_length@std@@8
rdata$r	ENDS
;	COMDAT ??_R2bad_array_new_length@std@@8
rdata$r	SEGMENT
??_R2bad_array_new_length@std@@8 DD FLAT:??_R1A@?0A@EA@bad_array_new_length@std@@8 ; std::bad_array_new_length::`RTTI Base Class Array'
	DD	FLAT:??_R1A@?0A@EA@bad_alloc@std@@8
	DD	FLAT:??_R1A@?0A@EA@exception@std@@8
rdata$r	ENDS
;	COMDAT ??_R3bad_array_new_length@std@@8
rdata$r	SEGMENT
??_R3bad_array_new_length@std@@8 DD 00H			; std::bad_array_new_length::`RTTI Class Hierarchy Descriptor'
	DD	00H
	DD	03H
	DD	FLAT:??_R2bad_array_new_length@std@@8
rdata$r	ENDS
;	COMDAT ??_R4bad_array_new_length@std@@6B@
rdata$r	SEGMENT
??_R4bad_array_new_length@std@@6B@ DD 00H		; std::bad_array_new_length::`RTTI Complete Object Locator'
	DD	00H
	DD	00H
	DD	FLAT:??_R0?AVbad_array_new_length@std@@@8
	DD	FLAT:??_R3bad_array_new_length@std@@8
rdata$r	ENDS
;	COMDAT ??_R1A@?0A@EA@bad_alloc@std@@8
rdata$r	SEGMENT
??_R1A@?0A@EA@bad_alloc@std@@8 DD FLAT:??_R0?AVbad_alloc@std@@@8 ; std::bad_alloc::`RTTI Base Class Descriptor at (0,-1,0,64)'
	DD	01H
	DD	00H
	DD	0ffffffffH
	DD	00H
	DD	040H
	DD	FLAT:??_R3bad_alloc@std@@8
rdata$r	ENDS
;	COMDAT ??_R2bad_alloc@std@@8
rdata$r	SEGMENT
??_R2bad_alloc@std@@8 DD FLAT:??_R1A@?0A@EA@bad_alloc@std@@8 ; std::bad_alloc::`RTTI Base Class Array'
	DD	FLAT:??_R1A@?0A@EA@exception@std@@8
rdata$r	ENDS
;	COMDAT ??_R3bad_alloc@std@@8
rdata$r	SEGMENT
??_R3bad_alloc@std@@8 DD 00H				; std::bad_alloc::`RTTI Class Hierarchy Descriptor'
	DD	00H
	DD	02H
	DD	FLAT:??_R2bad_alloc@std@@8
rdata$r	ENDS
;	COMDAT ??_R4bad_alloc@std@@6B@
rdata$r	SEGMENT
??_R4bad_alloc@std@@6B@ DD 00H				; std::bad_alloc::`RTTI Complete Object Locator'
	DD	00H
	DD	00H
	DD	FLAT:??_R0?AVbad_alloc@std@@@8
	DD	FLAT:??_R3bad_alloc@std@@8
rdata$r	ENDS
;	COMDAT ??_R1A@?0A@EA@exception@std@@8
rdata$r	SEGMENT
??_R1A@?0A@EA@exception@std@@8 DD FLAT:??_R0?AVexception@std@@@8 ; std::exception::`RTTI Base Class Descriptor at (0,-1,0,64)'
	DD	00H
	DD	00H
	DD	0ffffffffH
	DD	00H
	DD	040H
	DD	FLAT:??_R3exception@std@@8
rdata$r	ENDS
;	COMDAT ??_R2exception@std@@8
rdata$r	SEGMENT
??_R2exception@std@@8 DD FLAT:??_R1A@?0A@EA@exception@std@@8 ; std::exception::`RTTI Base Class Array'
rdata$r	ENDS
;	COMDAT ??_R3exception@std@@8
rdata$r	SEGMENT
??_R3exception@std@@8 DD 00H				; std::exception::`RTTI Class Hierarchy Descriptor'
	DD	00H
	DD	01H
	DD	FLAT:??_R2exception@std@@8
rdata$r	ENDS
;	COMDAT ??_R4exception@std@@6B@
rdata$r	SEGMENT
??_R4exception@std@@6B@ DD 00H				; std::exception::`RTTI Complete Object Locator'
	DD	00H
	DD	00H
	DD	FLAT:??_R0?AVexception@std@@@8
	DD	FLAT:??_R3exception@std@@8
rdata$r	ENDS
;	COMDAT ??_C@_0O@NKNMEGII@list?5too?5long@
CONST	SEGMENT
??_C@_0O@NKNMEGII@list?5too?5long@ DB 'list too long', 00H ; `string'
CONST	ENDS
;	COMDAT ??_C@_0BJ@MDCENAHP@?$AN?6?$CK?$CK?$CK?$CK?$CK?5File?5End?5?$CK?$CK?$CK?$CK?$CK?$AN?6@
CONST	SEGMENT
??_C@_0BJ@MDCENAHP@?$AN?6?$CK?$CK?$CK?$CK?$CK?5File?5End?5?$CK?$CK?$CK?$CK?$CK?$AN?6@ DB 0dH
	DB	0aH, '***** File End *****', 0dH, 0aH, 00H	; `string'
CONST	ENDS
;	COMDAT ??_C@_08IIICFEMI@?5?$CK?$CK?$CK?$CK?$CK?$AN?6@
CONST	SEGMENT
??_C@_08IIICFEMI@?5?$CK?$CK?$CK?$CK?$CK?$AN?6@ DB ' *****', 0dH, 0aH, 00H ; `string'
CONST	ENDS
;	COMDAT ??_C@_04GEFJINEE@?$CF?42f@
CONST	SEGMENT
??_C@_04GEFJINEE@?$CF?42f@ DB '%.2f', 00H		; `string'
CONST	ENDS
;	COMDAT ??_C@_0BM@KJFALDEM@?$CK?$CK?$CK?$CK?$CK?5Indicator?5List?5?3?5Ver?5@
CONST	SEGMENT
??_C@_0BM@KJFALDEM@?$CK?$CK?$CK?$CK?$CK?5Indicator?5List?5?3?5Ver?5@ DB '*'
	DB	'**** Indicator List : Ver ', 00H		; `string'
CONST	ENDS
;	COMDAT ??_C@_03GDMIGCCC@Ver@
CONST	SEGMENT
??_C@_03GDMIGCCC@Ver@ DB 'Ver', 00H			; `string'
CONST	ENDS
;	COMDAT ??_C@_01IHBHIGKO@?0@
CONST	SEGMENT
??_C@_01IHBHIGKO@?0@ DB ',', 00H			; `string'
CONST	ENDS
;	COMDAT ??_C@_0M@DGHFHKEI@GraphEnd?$DL?$AN?6@
CONST	SEGMENT
??_C@_0M@DGHFHKEI@GraphEnd?$DL?$AN?6@ DB 'GraphEnd;', 0dH, 0aH, 00H ; `string'
CONST	ENDS
;	COMDAT ??_C@_08BHMMGBBH@Graph?$DL?$AN?6@
CONST	SEGMENT
??_C@_08BHMMGBBH@Graph?$DL?$AN?6@ DB 'Graph;', 0dH, 0aH, 00H ; `string'
CONST	ENDS
;	COMDAT ??_C@_01IDAFKMJL@_@
CONST	SEGMENT
??_C@_01IDAFKMJL@_@ DB '_', 00H				; `string'
CONST	ENDS
;	COMDAT ??_C@_04MBKDPHPM@?$CF0?4f@
CONST	SEGMENT
??_C@_04MBKDPHPM@?$CF0?4f@ DB '%0.f', 00H		; `string'
CONST	ENDS
;	COMDAT ??_C@_07PDGNMDCO@?$CFs_?$CF0?4f@
CONST	SEGMENT
??_C@_07PDGNMDCO@?$CFs_?$CF0?4f@ DB '%s_%0.f', 00H	; `string'
CONST	ENDS
;	COMDAT ??_C@_01GBGANLPD@0@
CONST	SEGMENT
??_C@_01GBGANLPD@0@ DB '0', 00H				; `string'
CONST	ENDS
;	COMDAT ??_C@_01CLKCMJKC@?5@
CONST	SEGMENT
??_C@_01CLKCMJKC@?5@ DB ' ', 00H			; `string'
CONST	ENDS
;	COMDAT ??_7CDefaultUserTypeIndiListBuilder@@6B@
CONST	SEGMENT
??_7CDefaultUserTypeIndiListBuilder@@6B@ DD FLAT:??_R4CDefaultUserTypeIndiListBuilder@@6B@ ; CDefaultUserTypeIndiListBuilder::`vftable'
	DD	FLAT:?FileDataBuild@CDefaultIndicatorListBuilder@@UAE_NPAVCBaseIndicatorList@@AAPAD@Z
	DD	FLAT:?MakeIndicatorInfo@CDefaultIndicatorListBuilder@@MAEPAVCIndicatorInfo@@W4EIndicatorInfoType@@AAPAD@Z
	DD	FLAT:?ReadInfoCfgStrToObject@CDefaultUserTypeIndiListBuilder@@MAE_NPAVCIndicatorInfo@@AAPAD@Z
CONST	ENDS
;	COMDAT ??_7CDefaultIndicatorListBuilder@@6B@
CONST	SEGMENT
??_7CDefaultIndicatorListBuilder@@6B@ DD FLAT:??_R4CDefaultIndicatorListBuilder@@6B@ ; CDefaultIndicatorListBuilder::`vftable'
	DD	FLAT:?FileDataBuild@CDefaultIndicatorListBuilder@@UAE_NPAVCBaseIndicatorList@@AAPAD@Z
	DD	FLAT:?MakeIndicatorInfo@CDefaultIndicatorListBuilder@@MAEPAVCIndicatorInfo@@W4EIndicatorInfoType@@AAPAD@Z
	DD	FLAT:__purecall
CONST	ENDS
;	COMDAT ??_7CIndicatorGroupDataList@@6B@
CONST	SEGMENT
??_7CIndicatorGroupDataList@@6B@ DD FLAT:??_R4CIndicatorGroupDataList@@6B@ ; CIndicatorGroupDataList::`vftable'
	DD	FLAT:??_ECIndicatorGroupDataList@@UAEPAXI@Z
CONST	ENDS
;	COMDAT ??_7?$CList@PAVCIndicatorGroupData@@PAV1@@@6B@
CONST	SEGMENT
??_7?$CList@PAVCIndicatorGroupData@@PAV1@@@6B@ DD FLAT:??_R4?$CList@PAVCIndicatorGroupData@@PAV1@@@6B@ ; CList<CIndicatorGroupData *,CIndicatorGroupData *>::`vftable'
	DD	FLAT:?GetRuntimeClass@CObject@@UBEPAUCRuntimeClass@@XZ
	DD	FLAT:??_E?$CList@PAVCIndicatorGroupData@@PAV1@@@UAEPAXI@Z
	DD	FLAT:?Serialize@?$CList@PAVCIndicatorGroupData@@PAV1@@@UAEXAAVCArchive@@@Z
	DD	FLAT:?AssertValid@CObject@@UBEXXZ
	DD	FLAT:?Dump@CObject@@UBEXAAVCDumpContext@@@Z
CONST	ENDS
;	COMDAT ??_7CIndicatorInfo@@6B@
CONST	SEGMENT
??_7CIndicatorInfo@@6B@ DD FLAT:??_R4CIndicatorInfo@@6B@ ; CIndicatorInfo::`vftable'
	DD	FLAT:??_ECIndicatorInfo@@UAEPAXI@Z
CONST	ENDS
;	COMDAT ??_7CUserIndicatorList@@6B@
CONST	SEGMENT
??_7CUserIndicatorList@@6B@ DD FLAT:??_R4CUserIndicatorList@@6B@ ; CUserIndicatorList::`vftable'
	DD	FLAT:??_ECUserIndicatorList@@UAEPAXI@Z
CONST	ENDS
;	COMDAT ??_7CDefaultIndicatorList@@6B@
CONST	SEGMENT
??_7CDefaultIndicatorList@@6B@ DD FLAT:??_R4CDefaultIndicatorList@@6B@ ; CDefaultIndicatorList::`vftable'
	DD	FLAT:??_ECDefaultIndicatorList@@UAEPAXI@Z
CONST	ENDS
;	COMDAT ??_7CBaseIndicatorList@@6B@
CONST	SEGMENT
??_7CBaseIndicatorList@@6B@ DD FLAT:??_R4CBaseIndicatorList@@6B@ ; CBaseIndicatorList::`vftable'
	DD	FLAT:??_ECBaseIndicatorList@@UAEPAXI@Z
CONST	ENDS
;	COMDAT ??_7CGraphPartData@@6B@
CONST	SEGMENT
??_7CGraphPartData@@6B@ DD FLAT:??_R4CGraphPartData@@6B@ ; CGraphPartData::`vftable'
	DD	FLAT:??_ECGraphPartData@@UAEPAXI@Z
CONST	ENDS
;	COMDAT ??_7CSubGraphPartData@@6B@
CONST	SEGMENT
??_7CSubGraphPartData@@6B@ DD FLAT:??_R4CSubGraphPartData@@6B@ ; CSubGraphPartData::`vftable'
	DD	FLAT:??_ECSubGraphPartData@@UAEPAXI@Z
CONST	ENDS
;	COMDAT ??_7?$CList@NN@@6B@
CONST	SEGMENT
??_7?$CList@NN@@6B@ DD FLAT:??_R4?$CList@NN@@6B@	; CList<double,double>::`vftable'
	DD	FLAT:?GetRuntimeClass@CObject@@UBEPAUCRuntimeClass@@XZ
	DD	FLAT:??_E?$CList@NN@@UAEPAXI@Z
	DD	FLAT:?Serialize@?$CList@NN@@UAEXAAVCArchive@@@Z
	DD	FLAT:?AssertValid@CObject@@UBEXXZ
	DD	FLAT:?Dump@CObject@@UBEXAAVCDumpContext@@@Z
CONST	ENDS
;	COMDAT ??_7CGraphData@@6B@
CONST	SEGMENT
??_7CGraphData@@6B@ DD FLAT:??_R4CGraphData@@6B@	; CGraphData::`vftable'
	DD	FLAT:?SetIndicatorName@CGraphData@@MAEXABV?$CStringT@DV?$StrTraitMFC_DLL@DV?$ChTraitsCRT@D@ATL@@@@@ATL@@@Z
	DD	FLAT:?SetGraphName@CGraphData@@MAEXABV?$CStringT@DV?$StrTraitMFC_DLL@DV?$ChTraitsCRT@D@ATL@@@@@ATL@@@Z
CONST	ENDS
;	COMDAT ??_7CGraphDataBase@@6B@
CONST	SEGMENT
??_7CGraphDataBase@@6B@ DD FLAT:??_R4CGraphDataBase@@6B@ ; CGraphDataBase::`vftable'
	DD	FLAT:__purecall
	DD	FLAT:__purecall
CONST	ENDS
;	COMDAT ??_7CIndicatorList@@6B@
CONST	SEGMENT
??_7CIndicatorList@@6B@ DD FLAT:??_R4CIndicatorList@@6B@ ; CIndicatorList::`vftable'
	DD	FLAT:??_ECIndicatorList@@UAEPAXI@Z
CONST	ENDS
;	COMDAT __CT??_R0?AVexception@std@@@8??0exception@std@@QAE@ABV01@@Z12
xdata$x	SEGMENT
__CT??_R0?AVexception@std@@@8??0exception@std@@QAE@ABV01@@Z12 DD 00H
	DD	FLAT:??_R0?AVexception@std@@@8
	DD	00H
	DD	0ffffffffH
	ORG $+4
	DD	0cH
	DD	FLAT:??0exception@std@@QAE@ABV01@@Z
xdata$x	ENDS
;	COMDAT ??_R0?AVexception@std@@@8
data$r	SEGMENT
??_R0?AVexception@std@@@8 DD FLAT:??_7type_info@@6B@	; std::exception `RTTI Type Descriptor'
	DD	00H
	DB	'.?AVexception@std@@', 00H
data$r	ENDS
;	COMDAT __CT??_R0?AVbad_alloc@std@@@8??0bad_alloc@std@@QAE@ABV01@@Z12
xdata$x	SEGMENT
__CT??_R0?AVbad_alloc@std@@@8??0bad_alloc@std@@QAE@ABV01@@Z12 DD 010H
	DD	FLAT:??_R0?AVbad_alloc@std@@@8
	DD	00H
	DD	0ffffffffH
	ORG $+4
	DD	0cH
	DD	FLAT:??0bad_alloc@std@@QAE@ABV01@@Z
xdata$x	ENDS
;	COMDAT ??_R0?AVbad_alloc@std@@@8
data$r	SEGMENT
??_R0?AVbad_alloc@std@@@8 DD FLAT:??_7type_info@@6B@	; std::bad_alloc `RTTI Type Descriptor'
	DD	00H
	DB	'.?AVbad_alloc@std@@', 00H
data$r	ENDS
;	COMDAT __CT??_R0?AVbad_array_new_length@std@@@8??0bad_array_new_length@std@@QAE@ABV01@@Z12
xdata$x	SEGMENT
__CT??_R0?AVbad_array_new_length@std@@@8??0bad_array_new_length@std@@QAE@ABV01@@Z12 DD 00H
	DD	FLAT:??_R0?AVbad_array_new_length@std@@@8
	DD	00H
	DD	0ffffffffH
	ORG $+4
	DD	0cH
	DD	FLAT:??0bad_array_new_length@std@@QAE@ABV01@@Z
xdata$x	ENDS
;	COMDAT ??_R0?AVbad_array_new_length@std@@@8
data$r	SEGMENT
??_R0?AVbad_array_new_length@std@@@8 DD FLAT:??_7type_info@@6B@ ; std::bad_array_new_length `RTTI Type Descriptor'
	DD	00H
	DB	'.?AVbad_array_new_length@std@@', 00H
data$r	ENDS
;	COMDAT __CTA3?AVbad_array_new_length@std@@
xdata$x	SEGMENT
__CTA3?AVbad_array_new_length@std@@ DD 03H
	DD	FLAT:__CT??_R0?AVbad_array_new_length@std@@@8??0bad_array_new_length@std@@QAE@ABV01@@Z12
	DD	FLAT:__CT??_R0?AVbad_alloc@std@@@8??0bad_alloc@std@@QAE@ABV01@@Z12
	DD	FLAT:__CT??_R0?AVexception@std@@@8??0exception@std@@QAE@ABV01@@Z12
xdata$x	ENDS
;	COMDAT __TI3?AVbad_array_new_length@std@@
xdata$x	SEGMENT
__TI3?AVbad_array_new_length@std@@ DD 00H
	DD	FLAT:??1bad_array_new_length@std@@UAE@XZ
	DD	00H
	DD	FLAT:__CTA3?AVbad_array_new_length@std@@
xdata$x	ENDS
;	COMDAT ??_C@_0BF@KINCDENJ@bad?5array?5new?5length@
CONST	SEGMENT
??_C@_0BF@KINCDENJ@bad?5array?5new?5length@ DB 'bad array new length', 00H ; `string'
CONST	ENDS
;	COMDAT ??_7bad_array_new_length@std@@6B@
CONST	SEGMENT
??_7bad_array_new_length@std@@6B@ DD FLAT:??_R4bad_array_new_length@std@@6B@ ; std::bad_array_new_length::`vftable'
	DD	FLAT:??_Ebad_array_new_length@std@@UAEPAXI@Z
	DD	FLAT:?what@exception@std@@UBEPBDXZ
CONST	ENDS
;	COMDAT ??_7bad_alloc@std@@6B@
CONST	SEGMENT
??_7bad_alloc@std@@6B@ DD FLAT:??_R4bad_alloc@std@@6B@	; std::bad_alloc::`vftable'
	DD	FLAT:??_Ebad_alloc@std@@UAEPAXI@Z
	DD	FLAT:?what@exception@std@@UBEPBDXZ
CONST	ENDS
;	COMDAT ??_C@_0BC@EOODALEL@Unknown?5exception@
CONST	SEGMENT
??_C@_0BC@EOODALEL@Unknown?5exception@ DB 'Unknown exception', 00H ; `string'
CONST	ENDS
;	COMDAT ??_7exception@std@@6B@
CONST	SEGMENT
??_7exception@std@@6B@ DD FLAT:??_R4exception@std@@6B@	; std::exception::`vftable'
	DD	FLAT:??_Eexception@std@@UAEPAXI@Z
	DD	FLAT:?what@exception@std@@UBEPBDXZ
CONST	ENDS
;	COMDAT ??_R1A@?0A@EA@CObject@@8
rdata$r	SEGMENT
??_R1A@?0A@EA@CObject@@8 DD FLAT:??_R0?AVCObject@@@8	; CObject::`RTTI Base Class Descriptor at (0,-1,0,64)'
	DD	00H
	DD	00H
	DD	0ffffffffH
	DD	00H
	DD	040H
	DD	FLAT:??_R3CObject@@8
rdata$r	ENDS
;	COMDAT ??_R2CObject@@8
rdata$r	SEGMENT
??_R2CObject@@8 DD FLAT:??_R1A@?0A@EA@CObject@@8	; CObject::`RTTI Base Class Array'
rdata$r	ENDS
;	COMDAT ??_R3CObject@@8
rdata$r	SEGMENT
??_R3CObject@@8 DD 00H					; CObject::`RTTI Class Hierarchy Descriptor'
	DD	00H
	DD	01H
	DD	FLAT:??_R2CObject@@8
rdata$r	ENDS
;	COMDAT ??_R0?AVCObject@@@8
data$rs	SEGMENT
??_R0?AVCObject@@@8 DD FLAT:??_7type_info@@6B@		; CObject `RTTI Type Descriptor'
	DD	00H
	DB	'.?AVCObject@@', 00H
data$rs	ENDS
;	COMDAT ??_C@_00CNPNBAHC@@
CONST	SEGMENT
??_C@_00CNPNBAHC@@ DB 00H				; `string'
CONST	ENDS
;	COMDAT xdata$x
xdata$x	SEGMENT
__unwindtable$??$?0PAVCSubGraphPartData@@@?$_List_node_emplace_op2@V?$allocator@U?$_List_node@PAVCSubGraphPartData@@PAX@std@@@std@@@std@@QAE@AAV?$allocator@U?$_List_node@PAVCSubGraphPartData@@PAX@std@@@1@$$QAPAVCSubGraphPartData@@@Z DD 0ffffffffH
	DD	FLAT:__unwindfunclet$??$?0PAVCSubGraphPartData@@@?$_List_node_emplace_op2@V?$allocator@U?$_List_node@PAVCSubGraphPartData@@PAX@std@@@std@@@std@@QAE@AAV?$allocator@U?$_List_node@PAVCSubGraphPartData@@PAX@std@@@1@$$QAPAVCSubGraphPartData@@@Z$0
__ehfuncinfo$??$?0PAVCSubGraphPartData@@@?$_List_node_emplace_op2@V?$allocator@U?$_List_node@PAVCSubGraphPartData@@PAX@std@@@std@@@std@@QAE@AAV?$allocator@U?$_List_node@PAVCSubGraphPartData@@PAX@std@@@1@$$QAPAVCSubGraphPartData@@@Z DD 019930522H
	DD	01H
	DD	FLAT:__unwindtable$??$?0PAVCSubGraphPartData@@@?$_List_node_emplace_op2@V?$allocator@U?$_List_node@PAVCSubGraphPartData@@PAX@std@@@std@@@std@@QAE@AAV?$allocator@U?$_List_node@PAVCSubGraphPartData@@PAX@std@@@1@$$QAPAVCSubGraphPartData@@@Z
	DD	2 DUP(00H)
	DD	2 DUP(00H)
	DD	00H
	DD	01H
xdata$x	ENDS
;	COMDAT xdata$x
xdata$x	SEGMENT
__unwindtable$??$?0ABQAVCSubGraphPartData@@@?$_List_node_emplace_op2@V?$allocator@U?$_List_node@PAVCSubGraphPartData@@PAX@std@@@std@@@std@@QAE@AAV?$allocator@U?$_List_node@PAVCSubGraphPartData@@PAX@std@@@1@ABQAVCSubGraphPartData@@@Z DD 0ffffffffH
	DD	FLAT:__unwindfunclet$??$?0ABQAVCSubGraphPartData@@@?$_List_node_emplace_op2@V?$allocator@U?$_List_node@PAVCSubGraphPartData@@PAX@std@@@std@@@std@@QAE@AAV?$allocator@U?$_List_node@PAVCSubGraphPartData@@PAX@std@@@1@ABQAVCSubGraphPartData@@@Z$0
__ehfuncinfo$??$?0ABQAVCSubGraphPartData@@@?$_List_node_emplace_op2@V?$allocator@U?$_List_node@PAVCSubGraphPartData@@PAX@std@@@std@@@std@@QAE@AAV?$allocator@U?$_List_node@PAVCSubGraphPartData@@PAX@std@@@1@ABQAVCSubGraphPartData@@@Z DD 019930522H
	DD	01H
	DD	FLAT:__unwindtable$??$?0ABQAVCSubGraphPartData@@@?$_List_node_emplace_op2@V?$allocator@U?$_List_node@PAVCSubGraphPartData@@PAX@std@@@std@@@std@@QAE@AAV?$allocator@U?$_List_node@PAVCSubGraphPartData@@PAX@std@@@1@ABQAVCSubGraphPartData@@@Z
	DD	2 DUP(00H)
	DD	2 DUP(00H)
	DD	00H
	DD	01H
xdata$x	ENDS
;	COMDAT xdata$x
xdata$x	SEGMENT
__unwindtable$??$_Emplace@PAVCSubGraphPartData@@@?$list@PAVCSubGraphPartData@@V?$allocator@PAVCSubGraphPartData@@@std@@@std@@QAEPAU?$_List_node@PAVCSubGraphPartData@@PAX@1@QAU21@$$QAPAVCSubGraphPartData@@@Z DD 0ffffffffH
	DD	FLAT:__unwindfunclet$??$_Emplace@PAVCSubGraphPartData@@@?$list@PAVCSubGraphPartData@@V?$allocator@PAVCSubGraphPartData@@@std@@@std@@QAEPAU?$_List_node@PAVCSubGraphPartData@@PAX@1@QAU21@$$QAPAVCSubGraphPartData@@@Z$1
__ehfuncinfo$??$_Emplace@PAVCSubGraphPartData@@@?$list@PAVCSubGraphPartData@@V?$allocator@PAVCSubGraphPartData@@@std@@@std@@QAEPAU?$_List_node@PAVCSubGraphPartData@@PAX@1@QAU21@$$QAPAVCSubGraphPartData@@@Z DD 019930522H
	DD	01H
	DD	FLAT:__unwindtable$??$_Emplace@PAVCSubGraphPartData@@@?$list@PAVCSubGraphPartData@@V?$allocator@PAVCSubGraphPartData@@@std@@@std@@QAEPAU?$_List_node@PAVCSubGraphPartData@@PAX@1@QAU21@$$QAPAVCSubGraphPartData@@@Z
	DD	2 DUP(00H)
	DD	2 DUP(00H)
	DD	00H
	DD	01H
xdata$x	ENDS
;	COMDAT xdata$x
xdata$x	SEGMENT
__unwindtable$??$_Emplace@ABQAVCSubGraphPartData@@@?$list@PAVCSubGraphPartData@@V?$allocator@PAVCSubGraphPartData@@@std@@@std@@QAEPAU?$_List_node@PAVCSubGraphPartData@@PAX@1@QAU21@ABQAVCSubGraphPartData@@@Z DD 0ffffffffH
	DD	FLAT:__unwindfunclet$??$_Emplace@ABQAVCSubGraphPartData@@@?$list@PAVCSubGraphPartData@@V?$allocator@PAVCSubGraphPartData@@@std@@@std@@QAEPAU?$_List_node@PAVCSubGraphPartData@@PAX@1@QAU21@ABQAVCSubGraphPartData@@@Z$1
__ehfuncinfo$??$_Emplace@ABQAVCSubGraphPartData@@@?$list@PAVCSubGraphPartData@@V?$allocator@PAVCSubGraphPartData@@@std@@@std@@QAEPAU?$_List_node@PAVCSubGraphPartData@@PAX@1@QAU21@ABQAVCSubGraphPartData@@@Z DD 019930522H
	DD	01H
	DD	FLAT:__unwindtable$??$_Emplace@ABQAVCSubGraphPartData@@@?$list@PAVCSubGraphPartData@@V?$allocator@PAVCSubGraphPartData@@@std@@@std@@QAEPAU?$_List_node@PAVCSubGraphPartData@@PAX@1@QAU21@ABQAVCSubGraphPartData@@@Z
	DD	2 DUP(00H)
	DD	2 DUP(00H)
	DD	00H
	DD	01H
xdata$x	ENDS
;	COMDAT xdata$x
xdata$x	SEGMENT
__ehfuncinfo$??_ECIndicatorGroupDataList@@UAEPAXI@Z DD 019930522H
	DD	00H
	DD	00H
	DD	2 DUP(00H)
	DD	2 DUP(00H)
	DD	00H
	DD	05H
xdata$x	ENDS
;	COMDAT xdata$x
xdata$x	SEGMENT
__unwindtable$??_G?$CList@PAVCIndicatorGroupData@@PAV1@@@UAEPAXI@Z DD 0ffffffffH
	DD	FLAT:___std_terminate
__ehfuncinfo$??_G?$CList@PAVCIndicatorGroupData@@PAV1@@@UAEPAXI@Z DD 019930522H
	DD	01H
	DD	FLAT:__unwindtable$??_G?$CList@PAVCIndicatorGroupData@@PAV1@@@UAEPAXI@Z
	DD	2 DUP(00H)
	DD	2 DUP(00H)
	DD	00H
	DD	05H
xdata$x	ENDS
;	COMDAT xdata$x
xdata$x	SEGMENT
__ehfuncinfo$??1?$CList@PAVCIndicatorGroupData@@PAV1@@@UAE@XZ DD 019930522H
	DD	00H
	DD	00H
	DD	2 DUP(00H)
	DD	2 DUP(00H)
	DD	00H
	DD	05H
xdata$x	ENDS
;	COMDAT xdata$x
xdata$x	SEGMENT
__unwindtable$??_FCIndicatorGroupData@@QAEXXZ DD 0ffffffffH
	DD	FLAT:__unwindfunclet$??_FCIndicatorGroupData@@QAEXXZ$0
__ehfuncinfo$??_FCIndicatorGroupData@@QAEXXZ DD 019930522H
	DD	01H
	DD	FLAT:__unwindtable$??_FCIndicatorGroupData@@QAEXXZ
	DD	2 DUP(00H)
	DD	2 DUP(00H)
	DD	00H
	DD	01H
xdata$x	ENDS
;	COMDAT xdata$x
xdata$x	SEGMENT
__unwindtable$?AddTail@?$CList@V?$CStringT@DV?$StrTraitMFC_DLL@DV?$ChTraitsCRT@D@ATL@@@@@ATL@@V12@@@QAEPAU__POSITION@@V?$CStringT@DV?$StrTraitMFC_DLL@DV?$ChTraitsCRT@D@ATL@@@@@ATL@@@Z DD 0ffffffffH
	DD	FLAT:__unwindfunclet$?AddTail@?$CList@V?$CStringT@DV?$StrTraitMFC_DLL@DV?$ChTraitsCRT@D@ATL@@@@@ATL@@V12@@@QAEPAU__POSITION@@V?$CStringT@DV?$StrTraitMFC_DLL@DV?$ChTraitsCRT@D@ATL@@@@@ATL@@@Z$0
__ehfuncinfo$?AddTail@?$CList@V?$CStringT@DV?$StrTraitMFC_DLL@DV?$ChTraitsCRT@D@ATL@@@@@ATL@@V12@@@QAEPAU__POSITION@@V?$CStringT@DV?$StrTraitMFC_DLL@DV?$ChTraitsCRT@D@ATL@@@@@ATL@@@Z DD 019930522H
	DD	01H
	DD	FLAT:__unwindtable$?AddTail@?$CList@V?$CStringT@DV?$StrTraitMFC_DLL@DV?$ChTraitsCRT@D@ATL@@@@@ATL@@V12@@@QAEPAU__POSITION@@V?$CStringT@DV?$StrTraitMFC_DLL@DV?$ChTraitsCRT@D@ATL@@@@@ATL@@@Z
	DD	2 DUP(00H)
	DD	2 DUP(00H)
	DD	00H
	DD	01H
xdata$x	ENDS
;	COMDAT xdata$x
xdata$x	SEGMENT
__ehfuncinfo$??_ECIndicatorInfo@@UAEPAXI@Z DD 019930522H
	DD	00H
	DD	00H
	DD	2 DUP(00H)
	DD	2 DUP(00H)
	DD	00H
	DD	05H
xdata$x	ENDS
;	COMDAT xdata$x
xdata$x	SEGMENT
__unwindtable$??_GCUserIndicatorList@@UAEPAXI@Z DD 0ffffffffH
	DD	FLAT:___std_terminate
__ehfuncinfo$??_GCUserIndicatorList@@UAEPAXI@Z DD 019930522H
	DD	01H
	DD	FLAT:__unwindtable$??_GCUserIndicatorList@@UAEPAXI@Z
	DD	2 DUP(00H)
	DD	2 DUP(00H)
	DD	00H
	DD	05H
xdata$x	ENDS
;	COMDAT xdata$x
xdata$x	SEGMENT
__unwindtable$??1CUserIndicatorList@@UAE@XZ DD 0ffffffffH
	DD	FLAT:___std_terminate
__ehfuncinfo$??1CUserIndicatorList@@UAE@XZ DD 019930522H
	DD	01H
	DD	FLAT:__unwindtable$??1CUserIndicatorList@@UAE@XZ
	DD	2 DUP(00H)
	DD	2 DUP(00H)
	DD	00H
	DD	05H
xdata$x	ENDS
;	COMDAT xdata$x
xdata$x	SEGMENT
__unwindtable$?GetWritingFileData@CUserIndicatorList@@QBEXAAVCStringList@@@Z DD 0ffffffffH
	DD	FLAT:__unwindfunclet$?GetWritingFileData@CUserIndicatorList@@QBEXAAVCStringList@@@Z$0
__ehfuncinfo$?GetWritingFileData@CUserIndicatorList@@QBEXAAVCStringList@@@Z DD 019930522H
	DD	01H
	DD	FLAT:__unwindtable$?GetWritingFileData@CUserIndicatorList@@QBEXAAVCStringList@@@Z
	DD	2 DUP(00H)
	DD	2 DUP(00H)
	DD	00H
	DD	01H
xdata$x	ENDS
;	COMDAT xdata$x
xdata$x	SEGMENT
__ehfuncinfo$?AddIndiInfoFromCfgString@CUserIndicatorList@@QAE_NPAVCIndicatorList@@AAPAD_N@Z DD 019930522H
	DD	05H
	DD	FLAT:__unwindtable$?AddIndiInfoFromCfgString@CUserIndicatorList@@QAE_NPAVCIndicatorList@@AAPAD_N@Z
	DD	2 DUP(00H)
	DD	2 DUP(00H)
	DD	00H
	DD	01H
__unwindtable$?AddIndiInfoFromCfgString@CUserIndicatorList@@QAE_NPAVCIndicatorList@@AAPAD_N@Z DD 0ffffffffH
	DD	FLAT:__unwindfunclet$?AddIndiInfoFromCfgString@CUserIndicatorList@@QAE_NPAVCIndicatorList@@AAPAD_N@Z$0
	DD	0ffffffffH
	DD	FLAT:__unwindfunclet$?AddIndiInfoFromCfgString@CUserIndicatorList@@QAE_NPAVCIndicatorList@@AAPAD_N@Z$1
	DD	0ffffffffH
	DD	FLAT:__unwindfunclet$?AddIndiInfoFromCfgString@CUserIndicatorList@@QAE_NPAVCIndicatorList@@AAPAD_N@Z$2
	DD	0ffffffffH
	DD	FLAT:__unwindfunclet$?AddIndiInfoFromCfgString@CUserIndicatorList@@QAE_NPAVCIndicatorList@@AAPAD_N@Z$3
	DD	0ffffffffH
	DD	FLAT:__unwindfunclet$?AddIndiInfoFromCfgString@CUserIndicatorList@@QAE_NPAVCIndicatorList@@AAPAD_N@Z$4
xdata$x	ENDS
;	COMDAT xdata$x
xdata$x	SEGMENT
__unwindtable$??_GCDefaultIndicatorList@@UAEPAXI@Z DD 0ffffffffH
	DD	FLAT:___std_terminate
__ehfuncinfo$??_GCDefaultIndicatorList@@UAEPAXI@Z DD 019930522H
	DD	01H
	DD	FLAT:__unwindtable$??_GCDefaultIndicatorList@@UAEPAXI@Z
	DD	2 DUP(00H)
	DD	2 DUP(00H)
	DD	00H
	DD	05H
xdata$x	ENDS
;	COMDAT xdata$x
xdata$x	SEGMENT
__unwindtable$??1CDefaultIndicatorList@@UAE@XZ DD 0ffffffffH
	DD	FLAT:___std_terminate
__ehfuncinfo$??1CDefaultIndicatorList@@UAE@XZ DD 019930522H
	DD	01H
	DD	FLAT:__unwindtable$??1CDefaultIndicatorList@@UAE@XZ
	DD	2 DUP(00H)
	DD	2 DUP(00H)
	DD	00H
	DD	05H
xdata$x	ENDS
;	COMDAT xdata$x
xdata$x	SEGMENT
__unwindtable$??_GCBaseIndicatorList@@UAEPAXI@Z DD 0ffffffffH
	DD	FLAT:___std_terminate
__ehfuncinfo$??_GCBaseIndicatorList@@UAEPAXI@Z DD 019930522H
	DD	01H
	DD	FLAT:__unwindtable$??_GCBaseIndicatorList@@UAEPAXI@Z
	DD	2 DUP(00H)
	DD	2 DUP(00H)
	DD	00H
	DD	05H
xdata$x	ENDS
;	COMDAT xdata$x
xdata$x	SEGMENT
__ehfuncinfo$??1CBaseIndicatorList@@UAE@XZ DD 019930522H
	DD	00H
	DD	00H
	DD	2 DUP(00H)
	DD	2 DUP(00H)
	DD	00H
	DD	05H
xdata$x	ENDS
;	COMDAT xdata$x
xdata$x	SEGMENT
__ehfuncinfo$??0CBaseIndicatorList@@QAE@W4EIndicatorListType@@@Z DD 019930522H
	DD	06H
	DD	FLAT:__unwindtable$??0CBaseIndicatorList@@QAE@W4EIndicatorListType@@@Z
	DD	2 DUP(00H)
	DD	2 DUP(00H)
	DD	00H
	DD	01H
__unwindtable$??0CBaseIndicatorList@@QAE@W4EIndicatorListType@@@Z DD 0ffffffffH
	DD	FLAT:__unwindfunclet$??0CBaseIndicatorList@@QAE@W4EIndicatorListType@@@Z$0
	DD	0ffffffffH
	DD	FLAT:__unwindfunclet$??0CBaseIndicatorList@@QAE@W4EIndicatorListType@@@Z$1
	DD	0ffffffffH
	DD	FLAT:__unwindfunclet$??0CBaseIndicatorList@@QAE@W4EIndicatorListType@@@Z$2
	DD	0ffffffffH
	DD	FLAT:__unwindfunclet$??0CBaseIndicatorList@@QAE@W4EIndicatorListType@@@Z$3
	DD	0ffffffffH
	DD	FLAT:__unwindfunclet$??0CBaseIndicatorList@@QAE@W4EIndicatorListType@@@Z$4
	DD	0ffffffffH
	DD	FLAT:__unwindfunclet$??0CBaseIndicatorList@@QAE@W4EIndicatorListType@@@Z$5
xdata$x	ENDS
;	COMDAT xdata$x
xdata$x	SEGMENT
__unwindtable$?GetSubGraphHiding@CGraphPartData@@QAEHPBD@Z DD 0ffffffffH
	DD	FLAT:__unwindfunclet$?GetSubGraphHiding@CGraphPartData@@QAEHPBD@Z$0
__ehfuncinfo$?GetSubGraphHiding@CGraphPartData@@QAEHPBD@Z DD 019930522H
	DD	01H
	DD	FLAT:__unwindtable$?GetSubGraphHiding@CGraphPartData@@QAEHPBD@Z
	DD	2 DUP(00H)
	DD	2 DUP(00H)
	DD	00H
	DD	01H
xdata$x	ENDS
;	COMDAT xdata$x
xdata$x	SEGMENT
__unwindtable$?GetSubGraphPartData@CGraphPartData@@QBEPAVCSubGraphPartData@@PBV?$list@PAVCSubGraphPartData@@V?$allocator@PAVCSubGraphPartData@@@std@@@std@@ABV?$CStringT@DV?$StrTraitMFC_DLL@DV?$ChTraitsCRT@D@ATL@@@@@ATL@@@Z DD 0ffffffffH
	DD	FLAT:__unwindfunclet$?GetSubGraphPartData@CGraphPartData@@QBEPAVCSubGraphPartData@@PBV?$list@PAVCSubGraphPartData@@V?$allocator@PAVCSubGraphPartData@@@std@@@std@@ABV?$CStringT@DV?$StrTraitMFC_DLL@DV?$ChTraitsCRT@D@ATL@@@@@ATL@@@Z$0
__ehfuncinfo$?GetSubGraphPartData@CGraphPartData@@QBEPAVCSubGraphPartData@@PBV?$list@PAVCSubGraphPartData@@V?$allocator@PAVCSubGraphPartData@@@std@@@std@@ABV?$CStringT@DV?$StrTraitMFC_DLL@DV?$ChTraitsCRT@D@ATL@@@@@ATL@@@Z DD 019930522H
	DD	01H
	DD	FLAT:__unwindtable$?GetSubGraphPartData@CGraphPartData@@QBEPAVCSubGraphPartData@@PBV?$list@PAVCSubGraphPartData@@V?$allocator@PAVCSubGraphPartData@@@std@@@std@@ABV?$CStringT@DV?$StrTraitMFC_DLL@DV?$ChTraitsCRT@D@ATL@@@@@ATL@@@Z
	DD	2 DUP(00H)
	DD	2 DUP(00H)
	DD	00H
	DD	01H
xdata$x	ENDS
;	COMDAT xdata$x
xdata$x	SEGMENT
__unwindtable$?AddSubGraphPartDataWithCopy@CGraphPartData@@QAEHPBVCSubGraphPartData@@@Z DD 0ffffffffH
	DD	FLAT:__unwindfunclet$?AddSubGraphPartDataWithCopy@CGraphPartData@@QAEHPBVCSubGraphPartData@@@Z$0
	DD	0ffffffffH
	DD	FLAT:__unwindfunclet$?AddSubGraphPartDataWithCopy@CGraphPartData@@QAEHPBVCSubGraphPartData@@@Z$2
__ehfuncinfo$?AddSubGraphPartDataWithCopy@CGraphPartData@@QAEHPBVCSubGraphPartData@@@Z DD 019930522H
	DD	02H
	DD	FLAT:__unwindtable$?AddSubGraphPartDataWithCopy@CGraphPartData@@QAEHPBVCSubGraphPartData@@@Z
	DD	2 DUP(00H)
	DD	2 DUP(00H)
	DD	00H
	DD	01H
xdata$x	ENDS
;	COMDAT xdata$x
xdata$x	SEGMENT
__unwindtable$?ChangeCalConditionDataFromSubGraphTitle@CGraphPartData@@QAE_NXZ DD 0ffffffffH
	DD	FLAT:__unwindfunclet$?ChangeCalConditionDataFromSubGraphTitle@CGraphPartData@@QAE_NXZ$0
__ehfuncinfo$?ChangeCalConditionDataFromSubGraphTitle@CGraphPartData@@QAE_NXZ DD 019930522H
	DD	01H
	DD	FLAT:__unwindtable$?ChangeCalConditionDataFromSubGraphTitle@CGraphPartData@@QAE_NXZ
	DD	2 DUP(00H)
	DD	2 DUP(00H)
	DD	00H
	DD	01H
xdata$x	ENDS
;	COMDAT xdata$x
xdata$x	SEGMENT
__unwindtable$?SetSubGraphData@CGraphPartData@@QAE_NPBVCSubGraphData@@@Z DD 0ffffffffH
	DD	FLAT:__unwindfunclet$?SetSubGraphData@CGraphPartData@@QAE_NPBVCSubGraphData@@@Z$0
__ehfuncinfo$?SetSubGraphData@CGraphPartData@@QAE_NPBVCSubGraphData@@@Z DD 019930522H
	DD	01H
	DD	FLAT:__unwindtable$?SetSubGraphData@CGraphPartData@@QAE_NPBVCSubGraphData@@@Z
	DD	2 DUP(00H)
	DD	2 DUP(00H)
	DD	00H
	DD	01H
xdata$x	ENDS
;	COMDAT xdata$x
xdata$x	SEGMENT
__unwindtable$?SetAllSubGraphDataList@CGraphPartData@@QAE_NPBV?$CList@PAVCSubGraphData@@PAV1@@@@Z DD 0ffffffffH
	DD	FLAT:__unwindfunclet$?SetAllSubGraphDataList@CGraphPartData@@QAE_NPBV?$CList@PAVCSubGraphData@@PAV1@@@@Z$0
	DD	00H
	DD	FLAT:__unwindfunclet$?SetAllSubGraphDataList@CGraphPartData@@QAE_NPBV?$CList@PAVCSubGraphData@@PAV1@@@@Z$1
	DD	01H
	DD	FLAT:__unwindfunclet$?SetAllSubGraphDataList@CGraphPartData@@QAE_NPBV?$CList@PAVCSubGraphData@@PAV1@@@@Z$2
__ehfuncinfo$?SetAllSubGraphDataList@CGraphPartData@@QAE_NPBV?$CList@PAVCSubGraphData@@PAV1@@@@Z DD 019930522H
	DD	03H
	DD	FLAT:__unwindtable$?SetAllSubGraphDataList@CGraphPartData@@QAE_NPBV?$CList@PAVCSubGraphData@@PAV1@@@@Z
	DD	2 DUP(00H)
	DD	2 DUP(00H)
	DD	00H
	DD	01H
xdata$x	ENDS
;	COMDAT xdata$x
xdata$x	SEGMENT
__unwindtable$?SetGraphData@CGraphPartData@@QAE_NABVCGraphData@@_N@Z DD 0ffffffffH
	DD	FLAT:__unwindfunclet$?SetGraphData@CGraphPartData@@QAE_NABVCGraphData@@_N@Z$0
	DD	00H
	DD	FLAT:__unwindfunclet$?SetGraphData@CGraphPartData@@QAE_NABVCGraphData@@_N@Z$1
__ehfuncinfo$?SetGraphData@CGraphPartData@@QAE_NABVCGraphData@@_N@Z DD 019930522H
	DD	02H
	DD	FLAT:__unwindtable$?SetGraphData@CGraphPartData@@QAE_NABVCGraphData@@_N@Z
	DD	2 DUP(00H)
	DD	2 DUP(00H)
	DD	00H
	DD	01H
xdata$x	ENDS
;	COMDAT xdata$x
xdata$x	SEGMENT
__unwindtable$?CopyDataWithVerificationFrom@CGraphPartData@@QAEXABV1@@Z DD 0ffffffffH
	DD	FLAT:__unwindfunclet$?CopyDataWithVerificationFrom@CGraphPartData@@QAEXABV1@@Z$0
__ehfuncinfo$?CopyDataWithVerificationFrom@CGraphPartData@@QAEXABV1@@Z DD 019930522H
	DD	01H
	DD	FLAT:__unwindtable$?CopyDataWithVerificationFrom@CGraphPartData@@QAEXABV1@@Z
	DD	2 DUP(00H)
	DD	2 DUP(00H)
	DD	00H
	DD	01H
xdata$x	ENDS
;	COMDAT xdata$x
xdata$x	SEGMENT
__unwindtable$?GetConditionTitle@CGraphPartData@@QBE?AW4TITLETYPE@CIndiBaseData@@XZ DD 0ffffffffH
	DD	FLAT:__unwindfunclet$?GetConditionTitle@CGraphPartData@@QBE?AW4TITLETYPE@CIndiBaseData@@XZ$0
__ehfuncinfo$?GetConditionTitle@CGraphPartData@@QBE?AW4TITLETYPE@CIndiBaseData@@XZ DD 019930522H
	DD	01H
	DD	FLAT:__unwindtable$?GetConditionTitle@CGraphPartData@@QBE?AW4TITLETYPE@CIndiBaseData@@XZ
	DD	2 DUP(00H)
	DD	2 DUP(00H)
	DD	00H
	DD	01H
xdata$x	ENDS
;	COMDAT xdata$x
xdata$x	SEGMENT
__unwindtable$?GetSubGraphNames@CGraphPartData@@QBEHAAV?$CStringT@DV?$StrTraitMFC_DLL@DV?$ChTraitsCRT@D@ATL@@@@@ATL@@@Z DD 0ffffffffH
	DD	FLAT:__unwindfunclet$?GetSubGraphNames@CGraphPartData@@QBEHAAV?$CStringT@DV?$StrTraitMFC_DLL@DV?$ChTraitsCRT@D@ATL@@@@@ATL@@@Z$0
	DD	00H
	DD	FLAT:__unwindfunclet$?GetSubGraphNames@CGraphPartData@@QBEHAAV?$CStringT@DV?$StrTraitMFC_DLL@DV?$ChTraitsCRT@D@ATL@@@@@ATL@@@Z$3
__ehfuncinfo$?GetSubGraphNames@CGraphPartData@@QBEHAAV?$CStringT@DV?$StrTraitMFC_DLL@DV?$ChTraitsCRT@D@ATL@@@@@ATL@@@Z DD 019930522H
	DD	02H
	DD	FLAT:__unwindtable$?GetSubGraphNames@CGraphPartData@@QBEHAAV?$CStringT@DV?$StrTraitMFC_DLL@DV?$ChTraitsCRT@D@ATL@@@@@ATL@@@Z
	DD	2 DUP(00H)
	DD	2 DUP(00H)
	DD	00H
	DD	01H
xdata$x	ENDS
;	COMDAT xdata$x
xdata$x	SEGMENT
__ehfuncinfo$?GetAllSubGraphDataForMaking@CGraphPartData@@QBEXAAV?$CStringT@DV?$StrTraitMFC_DLL@DV?$ChTraitsCRT@D@ATL@@@@@ATL@@H_N@Z DD 019930522H
	DD	05H
	DD	FLAT:__unwindtable$?GetAllSubGraphDataForMaking@CGraphPartData@@QBEXAAV?$CStringT@DV?$StrTraitMFC_DLL@DV?$ChTraitsCRT@D@ATL@@@@@ATL@@H_N@Z
	DD	2 DUP(00H)
	DD	2 DUP(00H)
	DD	00H
	DD	01H
__unwindtable$?GetAllSubGraphDataForMaking@CGraphPartData@@QBEXAAV?$CStringT@DV?$StrTraitMFC_DLL@DV?$ChTraitsCRT@D@ATL@@@@@ATL@@H_N@Z DD 0ffffffffH
	DD	FLAT:__unwindfunclet$?GetAllSubGraphDataForMaking@CGraphPartData@@QBEXAAV?$CStringT@DV?$StrTraitMFC_DLL@DV?$ChTraitsCRT@D@ATL@@@@@ATL@@H_N@Z$0
	DD	00H
	DD	FLAT:__unwindfunclet$?GetAllSubGraphDataForMaking@CGraphPartData@@QBEXAAV?$CStringT@DV?$StrTraitMFC_DLL@DV?$ChTraitsCRT@D@ATL@@@@@ATL@@H_N@Z$1
	DD	00H
	DD	FLAT:__unwindfunclet$?GetAllSubGraphDataForMaking@CGraphPartData@@QBEXAAV?$CStringT@DV?$StrTraitMFC_DLL@DV?$ChTraitsCRT@D@ATL@@@@@ATL@@H_N@Z$2
	DD	02H
	DD	FLAT:__unwindfunclet$?GetAllSubGraphDataForMaking@CGraphPartData@@QBEXAAV?$CStringT@DV?$StrTraitMFC_DLL@DV?$ChTraitsCRT@D@ATL@@@@@ATL@@H_N@Z$3
	DD	02H
	DD	FLAT:__unwindfunclet$?GetAllSubGraphDataForMaking@CGraphPartData@@QBEXAAV?$CStringT@DV?$StrTraitMFC_DLL@DV?$ChTraitsCRT@D@ATL@@@@@ATL@@H_N@Z$4
xdata$x	ENDS
;	COMDAT xdata$x
xdata$x	SEGMENT
__unwindtable$?GetAllSubGraphDataForMaking@CGraphPartData@@QBEXAAV?$CStringT@DV?$StrTraitMFC_DLL@DV?$ChTraitsCRT@D@ATL@@@@@ATL@@@Z DD 0ffffffffH
	DD	FLAT:__unwindfunclet$?GetAllSubGraphDataForMaking@CGraphPartData@@QBEXAAV?$CStringT@DV?$StrTraitMFC_DLL@DV?$ChTraitsCRT@D@ATL@@@@@ATL@@@Z$0
	DD	00H
	DD	FLAT:__unwindfunclet$?GetAllSubGraphDataForMaking@CGraphPartData@@QBEXAAV?$CStringT@DV?$StrTraitMFC_DLL@DV?$ChTraitsCRT@D@ATL@@@@@ATL@@@Z$1
__ehfuncinfo$?GetAllSubGraphDataForMaking@CGraphPartData@@QBEXAAV?$CStringT@DV?$StrTraitMFC_DLL@DV?$ChTraitsCRT@D@ATL@@@@@ATL@@@Z DD 019930522H
	DD	02H
	DD	FLAT:__unwindtable$?GetAllSubGraphDataForMaking@CGraphPartData@@QBEXAAV?$CStringT@DV?$StrTraitMFC_DLL@DV?$ChTraitsCRT@D@ATL@@@@@ATL@@@Z
	DD	2 DUP(00H)
	DD	2 DUP(00H)
	DD	00H
	DD	01H
xdata$x	ENDS
;	COMDAT xdata$x
xdata$x	SEGMENT
__unwindtable$?GetGraphDataForMaking@CGraphPartData@@QBEXAAV?$CStringT@DV?$StrTraitMFC_DLL@DV?$ChTraitsCRT@D@ATL@@@@@ATL@@H_N@Z DD 0ffffffffH
	DD	FLAT:__unwindfunclet$?GetGraphDataForMaking@CGraphPartData@@QBEXAAV?$CStringT@DV?$StrTraitMFC_DLL@DV?$ChTraitsCRT@D@ATL@@@@@ATL@@H_N@Z$0
	DD	00H
	DD	FLAT:__unwindfunclet$?GetGraphDataForMaking@CGraphPartData@@QBEXAAV?$CStringT@DV?$StrTraitMFC_DLL@DV?$ChTraitsCRT@D@ATL@@@@@ATL@@H_N@Z$1
__ehfuncinfo$?GetGraphDataForMaking@CGraphPartData@@QBEXAAV?$CStringT@DV?$StrTraitMFC_DLL@DV?$ChTraitsCRT@D@ATL@@@@@ATL@@H_N@Z DD 019930522H
	DD	02H
	DD	FLAT:__unwindtable$?GetGraphDataForMaking@CGraphPartData@@QBEXAAV?$CStringT@DV?$StrTraitMFC_DLL@DV?$ChTraitsCRT@D@ATL@@@@@ATL@@H_N@Z
	DD	2 DUP(00H)
	DD	2 DUP(00H)
	DD	00H
	DD	01H
xdata$x	ENDS
;	COMDAT xdata$x
xdata$x	SEGMENT
__unwindtable$?GetGraphDataForMaking@CGraphPartData@@QBEXAAV?$CStringT@DV?$StrTraitMFC_DLL@DV?$ChTraitsCRT@D@ATL@@@@@ATL@@@Z DD 0ffffffffH
	DD	FLAT:__unwindfunclet$?GetGraphDataForMaking@CGraphPartData@@QBEXAAV?$CStringT@DV?$StrTraitMFC_DLL@DV?$ChTraitsCRT@D@ATL@@@@@ATL@@@Z$0
	DD	00H
	DD	FLAT:__unwindfunclet$?GetGraphDataForMaking@CGraphPartData@@QBEXAAV?$CStringT@DV?$StrTraitMFC_DLL@DV?$ChTraitsCRT@D@ATL@@@@@ATL@@@Z$1
	DD	01H
	DD	FLAT:__unwindfunclet$?GetGraphDataForMaking@CGraphPartData@@QBEXAAV?$CStringT@DV?$StrTraitMFC_DLL@DV?$ChTraitsCRT@D@ATL@@@@@ATL@@@Z$2
	DD	02H
	DD	FLAT:__unwindfunclet$?GetGraphDataForMaking@CGraphPartData@@QBEXAAV?$CStringT@DV?$StrTraitMFC_DLL@DV?$ChTraitsCRT@D@ATL@@@@@ATL@@@Z$3
__ehfuncinfo$?GetGraphDataForMaking@CGraphPartData@@QBEXAAV?$CStringT@DV?$StrTraitMFC_DLL@DV?$ChTraitsCRT@D@ATL@@@@@ATL@@@Z DD 019930522H
	DD	04H
	DD	FLAT:__unwindtable$?GetGraphDataForMaking@CGraphPartData@@QBEXAAV?$CStringT@DV?$StrTraitMFC_DLL@DV?$ChTraitsCRT@D@ATL@@@@@ATL@@@Z
	DD	2 DUP(00H)
	DD	2 DUP(00H)
	DD	00H
	DD	01H
xdata$x	ENDS
;	COMDAT xdata$x
xdata$x	SEGMENT
__ehfuncinfo$?GetSubGraphTitle@CGraphPartData@@QBE?AV?$CStringT@DV?$StrTraitMFC_DLL@DV?$ChTraitsCRT@D@ATL@@@@@ATL@@H@Z DD 019930522H
	DD	08H
	DD	FLAT:__unwindtable$?GetSubGraphTitle@CGraphPartData@@QBE?AV?$CStringT@DV?$StrTraitMFC_DLL@DV?$ChTraitsCRT@D@ATL@@@@@ATL@@H@Z
	DD	2 DUP(00H)
	DD	2 DUP(00H)
	DD	00H
	DD	01H
__unwindtable$?GetSubGraphTitle@CGraphPartData@@QBE?AV?$CStringT@DV?$StrTraitMFC_DLL@DV?$ChTraitsCRT@D@ATL@@@@@ATL@@H@Z DD 0ffffffffH
	DD	FLAT:__unwindfunclet$?GetSubGraphTitle@CGraphPartData@@QBE?AV?$CStringT@DV?$StrTraitMFC_DLL@DV?$ChTraitsCRT@D@ATL@@@@@ATL@@H@Z$5
	DD	0ffffffffH
	DD	FLAT:__unwindfunclet$?GetSubGraphTitle@CGraphPartData@@QBE?AV?$CStringT@DV?$StrTraitMFC_DLL@DV?$ChTraitsCRT@D@ATL@@@@@ATL@@H@Z$1
	DD	01H
	DD	FLAT:__unwindfunclet$?GetSubGraphTitle@CGraphPartData@@QBE?AV?$CStringT@DV?$StrTraitMFC_DLL@DV?$ChTraitsCRT@D@ATL@@@@@ATL@@H@Z$7
	DD	0ffffffffH
	DD	FLAT:__unwindfunclet$?GetSubGraphTitle@CGraphPartData@@QBE?AV?$CStringT@DV?$StrTraitMFC_DLL@DV?$ChTraitsCRT@D@ATL@@@@@ATL@@H@Z$2
	DD	03H
	DD	FLAT:__unwindfunclet$?GetSubGraphTitle@CGraphPartData@@QBE?AV?$CStringT@DV?$StrTraitMFC_DLL@DV?$ChTraitsCRT@D@ATL@@@@@ATL@@H@Z$8
	DD	03H
	DD	FLAT:__unwindfunclet$?GetSubGraphTitle@CGraphPartData@@QBE?AV?$CStringT@DV?$StrTraitMFC_DLL@DV?$ChTraitsCRT@D@ATL@@@@@ATL@@H@Z$3
	DD	05H
	DD	FLAT:__unwindfunclet$?GetSubGraphTitle@CGraphPartData@@QBE?AV?$CStringT@DV?$StrTraitMFC_DLL@DV?$ChTraitsCRT@D@ATL@@@@@ATL@@H@Z$4
	DD	06H
	DD	FLAT:__unwindfunclet$?GetSubGraphTitle@CGraphPartData@@QBE?AV?$CStringT@DV?$StrTraitMFC_DLL@DV?$ChTraitsCRT@D@ATL@@@@@ATL@@H@Z$10
xdata$x	ENDS
;	COMDAT xdata$x
xdata$x	SEGMENT
__unwindtable$?GetSubGraphPartDataIndex@CGraphPartData@@QBEHABV?$CStringT@DV?$StrTraitMFC_DLL@DV?$ChTraitsCRT@D@ATL@@@@@ATL@@@Z DD 0ffffffffH
	DD	FLAT:__unwindfunclet$?GetSubGraphPartDataIndex@CGraphPartData@@QBEHABV?$CStringT@DV?$StrTraitMFC_DLL@DV?$ChTraitsCRT@D@ATL@@@@@ATL@@@Z$0
__ehfuncinfo$?GetSubGraphPartDataIndex@CGraphPartData@@QBEHABV?$CStringT@DV?$StrTraitMFC_DLL@DV?$ChTraitsCRT@D@ATL@@@@@ATL@@@Z DD 019930522H
	DD	01H
	DD	FLAT:__unwindtable$?GetSubGraphPartDataIndex@CGraphPartData@@QBEHABV?$CStringT@DV?$StrTraitMFC_DLL@DV?$ChTraitsCRT@D@ATL@@@@@ATL@@@Z
	DD	2 DUP(00H)
	DD	2 DUP(00H)
	DD	00H
	DD	01H
xdata$x	ENDS
;	COMDAT xdata$x
xdata$x	SEGMENT
__unwindtable$??0CGraphPartData@@QAE@ABV0@@Z DD 0ffffffffH
	DD	FLAT:__unwindfunclet$??0CGraphPartData@@QAE@ABV0@@Z$0
	DD	00H
	DD	FLAT:__unwindfunclet$??0CGraphPartData@@QAE@ABV0@@Z$1
	DD	01H
	DD	FLAT:__unwindfunclet$??0CGraphPartData@@QAE@ABV0@@Z$2
__ehfuncinfo$??0CGraphPartData@@QAE@ABV0@@Z DD 019930522H
	DD	03H
	DD	FLAT:__unwindtable$??0CGraphPartData@@QAE@ABV0@@Z
	DD	2 DUP(00H)
	DD	2 DUP(00H)
	DD	00H
	DD	01H
xdata$x	ENDS
;	COMDAT xdata$x
xdata$x	SEGMENT
__unwindtable$??0CGraphPartData@@QAE@XZ DD 0ffffffffH
	DD	FLAT:__unwindfunclet$??0CGraphPartData@@QAE@XZ$0
	DD	00H
	DD	FLAT:__unwindfunclet$??0CGraphPartData@@QAE@XZ$3
	DD	01H
	DD	FLAT:__unwindfunclet$??0CGraphPartData@@QAE@XZ$4
	DD	00H
	DD	FLAT:__unwindfunclet$??0CGraphPartData@@QAE@XZ$1
__ehfuncinfo$??0CGraphPartData@@QAE@XZ DD 019930522H
	DD	04H
	DD	FLAT:__unwindtable$??0CGraphPartData@@QAE@XZ
	DD	2 DUP(00H)
	DD	2 DUP(00H)
	DD	00H
	DD	01H
xdata$x	ENDS
;	COMDAT xdata$x
xdata$x	SEGMENT
__unwindtable$??4CGraphPartData@@QAEAAV0@ABV0@@Z DD 0ffffffffH
	DD	FLAT:__unwindfunclet$??4CGraphPartData@@QAEAAV0@ABV0@@Z$0
__ehfuncinfo$??4CGraphPartData@@QAEAAV0@ABV0@@Z DD 019930522H
	DD	01H
	DD	FLAT:__unwindtable$??4CGraphPartData@@QAEAAV0@ABV0@@Z
	DD	2 DUP(00H)
	DD	2 DUP(00H)
	DD	00H
	DD	01H
xdata$x	ENDS
;	COMDAT xdata$x
xdata$x	SEGMENT
__unwindtable$?SetSubGraphPartDataListInVerifiable@CGraphPartData@@AAEXPBV?$list@PAVCSubGraphPartData@@V?$allocator@PAVCSubGraphPartData@@@std@@@std@@@Z DD 0ffffffffH
	DD	FLAT:__unwindfunclet$?SetSubGraphPartDataListInVerifiable@CGraphPartData@@AAEXPBV?$list@PAVCSubGraphPartData@@V?$allocator@PAVCSubGraphPartData@@@std@@@std@@@Z$0
__ehfuncinfo$?SetSubGraphPartDataListInVerifiable@CGraphPartData@@AAEXPBV?$list@PAVCSubGraphPartData@@V?$allocator@PAVCSubGraphPartData@@@std@@@std@@@Z DD 019930522H
	DD	01H
	DD	FLAT:__unwindtable$?SetSubGraphPartDataListInVerifiable@CGraphPartData@@AAEXPBV?$list@PAVCSubGraphPartData@@V?$allocator@PAVCSubGraphPartData@@@std@@@std@@@Z
	DD	2 DUP(00H)
	DD	2 DUP(00H)
	DD	00H
	DD	01H
xdata$x	ENDS
;	COMDAT xdata$x
xdata$x	SEGMENT
__unwindtable$?CopySubGraphPartDataList@CGraphPartData@@AAEXPBV?$list@PAVCSubGraphPartData@@V?$allocator@PAVCSubGraphPartData@@@std@@@std@@@Z DD 0ffffffffH
	DD	FLAT:__unwindfunclet$?CopySubGraphPartDataList@CGraphPartData@@AAEXPBV?$list@PAVCSubGraphPartData@@V?$allocator@PAVCSubGraphPartData@@@std@@@std@@@Z$0
	DD	0ffffffffH
	DD	FLAT:__unwindfunclet$?CopySubGraphPartDataList@CGraphPartData@@AAEXPBV?$list@PAVCSubGraphPartData@@V?$allocator@PAVCSubGraphPartData@@@std@@@std@@@Z$2
__ehfuncinfo$?CopySubGraphPartDataList@CGraphPartData@@AAEXPBV?$list@PAVCSubGraphPartData@@V?$allocator@PAVCSubGraphPartData@@@std@@@std@@@Z DD 019930522H
	DD	02H
	DD	FLAT:__unwindtable$?CopySubGraphPartDataList@CGraphPartData@@AAEXPBV?$list@PAVCSubGraphPartData@@V?$allocator@PAVCSubGraphPartData@@@std@@@std@@@Z
	DD	2 DUP(00H)
	DD	2 DUP(00H)
	DD	00H
	DD	01H
xdata$x	ENDS
;	COMDAT xdata$x
xdata$x	SEGMENT
__unwindtable$?MakeSubGraphPartDataList@CGraphPartData@@AAE_NPBV?$CList@PAVCSubGraphData@@PAV1@@@@Z DD 0ffffffffH
	DD	FLAT:__unwindfunclet$?MakeSubGraphPartDataList@CGraphPartData@@AAE_NPBV?$CList@PAVCSubGraphData@@PAV1@@@@Z$0
	DD	00H
	DD	FLAT:__unwindfunclet$?MakeSubGraphPartDataList@CGraphPartData@@AAE_NPBV?$CList@PAVCSubGraphData@@PAV1@@@@Z$1
	DD	01H
	DD	FLAT:__unwindfunclet$?MakeSubGraphPartDataList@CGraphPartData@@AAE_NPBV?$CList@PAVCSubGraphData@@PAV1@@@@Z$2
__ehfuncinfo$?MakeSubGraphPartDataList@CGraphPartData@@AAE_NPBV?$CList@PAVCSubGraphData@@PAV1@@@@Z DD 019930522H
	DD	03H
	DD	FLAT:__unwindtable$?MakeSubGraphPartDataList@CGraphPartData@@AAE_NPBV?$CList@PAVCSubGraphData@@PAV1@@@@Z
	DD	2 DUP(00H)
	DD	2 DUP(00H)
	DD	00H
	DD	01H
xdata$x	ENDS
;	COMDAT xdata$x
xdata$x	SEGMENT
__unwindtable$?push_back@?$list@PAVCSubGraphPartData@@V?$allocator@PAVCSubGraphPartData@@@std@@@std@@QAEXABQAVCSubGraphPartData@@@Z DD 0ffffffffH
	DD	FLAT:__unwindfunclet$?push_back@?$list@PAVCSubGraphPartData@@V?$allocator@PAVCSubGraphPartData@@@std@@@std@@QAEXABQAVCSubGraphPartData@@@Z$1
__ehfuncinfo$?push_back@?$list@PAVCSubGraphPartData@@V?$allocator@PAVCSubGraphPartData@@@std@@@std@@QAEXABQAVCSubGraphPartData@@@Z DD 019930522H
	DD	01H
	DD	FLAT:__unwindtable$?push_back@?$list@PAVCSubGraphPartData@@V?$allocator@PAVCSubGraphPartData@@@std@@@std@@QAEXABQAVCSubGraphPartData@@@Z
	DD	2 DUP(00H)
	DD	2 DUP(00H)
	DD	00H
	DD	01H
xdata$x	ENDS
;	COMDAT xdata$x
xdata$x	SEGMENT
__unwindtable$?push_back@?$list@PAVCSubGraphPartData@@V?$allocator@PAVCSubGraphPartData@@@std@@@std@@QAEX$$QAPAVCSubGraphPartData@@@Z DD 0ffffffffH
	DD	FLAT:__unwindfunclet$?push_back@?$list@PAVCSubGraphPartData@@V?$allocator@PAVCSubGraphPartData@@@std@@@std@@QAEX$$QAPAVCSubGraphPartData@@@Z$1
__ehfuncinfo$?push_back@?$list@PAVCSubGraphPartData@@V?$allocator@PAVCSubGraphPartData@@@std@@@std@@QAEX$$QAPAVCSubGraphPartData@@@Z DD 019930522H
	DD	01H
	DD	FLAT:__unwindtable$?push_back@?$list@PAVCSubGraphPartData@@V?$allocator@PAVCSubGraphPartData@@@std@@@std@@QAEX$$QAPAVCSubGraphPartData@@@Z
	DD	2 DUP(00H)
	DD	2 DUP(00H)
	DD	00H
	DD	01H
xdata$x	ENDS
;	COMDAT xdata$x
xdata$x	SEGMENT
__unwindtable$??_GCSubGraphPartData@@UAEPAXI@Z DD 0ffffffffH
	DD	FLAT:___std_terminate
	DD	00H
	DD	FLAT:___std_terminate
__ehfuncinfo$??_GCSubGraphPartData@@UAEPAXI@Z DD 019930522H
	DD	02H
	DD	FLAT:__unwindtable$??_GCSubGraphPartData@@UAEPAXI@Z
	DD	2 DUP(00H)
	DD	2 DUP(00H)
	DD	00H
	DD	05H
xdata$x	ENDS
;	COMDAT xdata$x
xdata$x	SEGMENT
__unwindtable$??_G?$CList@NN@@UAEPAXI@Z DD 0ffffffffH
	DD	FLAT:___std_terminate
__ehfuncinfo$??_G?$CList@NN@@UAEPAXI@Z DD 019930522H
	DD	01H
	DD	FLAT:__unwindtable$??_G?$CList@NN@@UAEPAXI@Z
	DD	2 DUP(00H)
	DD	2 DUP(00H)
	DD	00H
	DD	05H
xdata$x	ENDS
;	COMDAT xdata$x
xdata$x	SEGMENT
__ehfuncinfo$??1?$CList@NN@@UAE@XZ DD 019930522H
	DD	00H
	DD	00H
	DD	2 DUP(00H)
	DD	2 DUP(00H)
	DD	00H
	DD	05H
xdata$x	ENDS
;	COMDAT xdata$x
xdata$x	SEGMENT
__unwindtable$?GetSubGraphStringData@CSubGraphPartData@@ABEXAAV?$CStringT@DV?$StrTraitMFC_DLL@DV?$ChTraitsCRT@D@ATL@@@@@ATL@@AAVCSubGraphData@@H_N@Z DD 0ffffffffH
	DD	FLAT:__unwindfunclet$?GetSubGraphStringData@CSubGraphPartData@@ABEXAAV?$CStringT@DV?$StrTraitMFC_DLL@DV?$ChTraitsCRT@D@ATL@@@@@ATL@@AAVCSubGraphData@@H_N@Z$0
	DD	00H
	DD	FLAT:__unwindfunclet$?GetSubGraphStringData@CSubGraphPartData@@ABEXAAV?$CStringT@DV?$StrTraitMFC_DLL@DV?$ChTraitsCRT@D@ATL@@@@@ATL@@AAVCSubGraphData@@H_N@Z$1
	DD	00H
	DD	FLAT:__unwindfunclet$?GetSubGraphStringData@CSubGraphPartData@@ABEXAAV?$CStringT@DV?$StrTraitMFC_DLL@DV?$ChTraitsCRT@D@ATL@@@@@ATL@@AAVCSubGraphData@@H_N@Z$2
__ehfuncinfo$?GetSubGraphStringData@CSubGraphPartData@@ABEXAAV?$CStringT@DV?$StrTraitMFC_DLL@DV?$ChTraitsCRT@D@ATL@@@@@ATL@@AAVCSubGraphData@@H_N@Z DD 019930522H
	DD	03H
	DD	FLAT:__unwindtable$?GetSubGraphStringData@CSubGraphPartData@@ABEXAAV?$CStringT@DV?$StrTraitMFC_DLL@DV?$ChTraitsCRT@D@ATL@@@@@ATL@@AAVCSubGraphData@@H_N@Z
	DD	2 DUP(00H)
	DD	2 DUP(00H)
	DD	00H
	DD	01H
xdata$x	ENDS
;	COMDAT xdata$x
xdata$x	SEGMENT
__unwindtable$?ChangeCalConditionDataFromSubGraphTitle@CSubGraphPartData@@QAE_NXZ DD 0ffffffffH
	DD	FLAT:__unwindfunclet$?ChangeCalConditionDataFromSubGraphTitle@CSubGraphPartData@@QAE_NXZ$0
__ehfuncinfo$?ChangeCalConditionDataFromSubGraphTitle@CSubGraphPartData@@QAE_NXZ DD 019930522H
	DD	01H
	DD	FLAT:__unwindtable$?ChangeCalConditionDataFromSubGraphTitle@CSubGraphPartData@@QAE_NXZ
	DD	2 DUP(00H)
	DD	2 DUP(00H)
	DD	00H
	DD	01H
xdata$x	ENDS
;	COMDAT xdata$x
xdata$x	SEGMENT
__unwindtable$?SetConditionList@CSubGraphPartData@@QAEXPBDABV?$CStringT@DV?$StrTraitMFC_DLL@DV?$ChTraitsCRT@D@ATL@@@@@ATL@@@Z DD 0ffffffffH
	DD	FLAT:__unwindfunclet$?SetConditionList@CSubGraphPartData@@QAEXPBDABV?$CStringT@DV?$StrTraitMFC_DLL@DV?$ChTraitsCRT@D@ATL@@@@@ATL@@@Z$0
	DD	00H
	DD	FLAT:__unwindfunclet$?SetConditionList@CSubGraphPartData@@QAEXPBDABV?$CStringT@DV?$StrTraitMFC_DLL@DV?$ChTraitsCRT@D@ATL@@@@@ATL@@@Z$1
	DD	00H
	DD	FLAT:__unwindfunclet$?SetConditionList@CSubGraphPartData@@QAEXPBDABV?$CStringT@DV?$StrTraitMFC_DLL@DV?$ChTraitsCRT@D@ATL@@@@@ATL@@@Z$2
__ehfuncinfo$?SetConditionList@CSubGraphPartData@@QAEXPBDABV?$CStringT@DV?$StrTraitMFC_DLL@DV?$ChTraitsCRT@D@ATL@@@@@ATL@@@Z DD 019930522H
	DD	03H
	DD	FLAT:__unwindtable$?SetConditionList@CSubGraphPartData@@QAEXPBDABV?$CStringT@DV?$StrTraitMFC_DLL@DV?$ChTraitsCRT@D@ATL@@@@@ATL@@@Z
	DD	2 DUP(00H)
	DD	2 DUP(00H)
	DD	00H
	DD	01H
xdata$x	ENDS
;	COMDAT xdata$x
xdata$x	SEGMENT
__unwindtable$?CopyDataWithVerificationFrom@CSubGraphPartData@@QAE_NABVCSubGraphData@@@Z DD 0ffffffffH
	DD	FLAT:__unwindfunclet$?CopyDataWithVerificationFrom@CSubGraphPartData@@QAE_NABVCSubGraphData@@@Z$0
	DD	00H
	DD	FLAT:__unwindfunclet$?CopyDataWithVerificationFrom@CSubGraphPartData@@QAE_NABVCSubGraphData@@@Z$1
	DD	0ffffffffH
	DD	FLAT:__unwindfunclet$?CopyDataWithVerificationFrom@CSubGraphPartData@@QAE_NABVCSubGraphData@@@Z$2
	DD	0ffffffffH
	DD	FLAT:__unwindfunclet$?CopyDataWithVerificationFrom@CSubGraphPartData@@QAE_NABVCSubGraphData@@@Z$3
__ehfuncinfo$?CopyDataWithVerificationFrom@CSubGraphPartData@@QAE_NABVCSubGraphData@@@Z DD 019930522H
	DD	04H
	DD	FLAT:__unwindtable$?CopyDataWithVerificationFrom@CSubGraphPartData@@QAE_NABVCSubGraphData@@@Z
	DD	2 DUP(00H)
	DD	2 DUP(00H)
	DD	00H
	DD	01H
xdata$x	ENDS
;	COMDAT xdata$x
xdata$x	SEGMENT
__unwindtable$?CopyDataWithVerificationFrom@CSubGraphPartData@@QAE_NPBV1@@Z DD 0ffffffffH
	DD	FLAT:__unwindfunclet$?CopyDataWithVerificationFrom@CSubGraphPartData@@QAE_NPBV1@@Z$1
__ehfuncinfo$?CopyDataWithVerificationFrom@CSubGraphPartData@@QAE_NPBV1@@Z DD 019930522H
	DD	01H
	DD	FLAT:__unwindtable$?CopyDataWithVerificationFrom@CSubGraphPartData@@QAE_NPBV1@@Z
	DD	2 DUP(00H)
	DD	2 DUP(00H)
	DD	00H
	DD	01H
xdata$x	ENDS
;	COMDAT xdata$x
xdata$x	SEGMENT
__unwindtable$?GetSubGraphStringData@CSubGraphPartData@@QAEXAAV?$CStringT@DV?$StrTraitMFC_DLL@DV?$ChTraitsCRT@D@ATL@@@@@ATL@@H_N@Z DD 0ffffffffH
	DD	FLAT:__unwindfunclet$?GetSubGraphStringData@CSubGraphPartData@@QAEXAAV?$CStringT@DV?$StrTraitMFC_DLL@DV?$ChTraitsCRT@D@ATL@@@@@ATL@@H_N@Z$0
	DD	00H
	DD	FLAT:__unwindfunclet$?GetSubGraphStringData@CSubGraphPartData@@QAEXAAV?$CStringT@DV?$StrTraitMFC_DLL@DV?$ChTraitsCRT@D@ATL@@@@@ATL@@H_N@Z$1
	DD	00H
	DD	FLAT:__unwindfunclet$?GetSubGraphStringData@CSubGraphPartData@@QAEXAAV?$CStringT@DV?$StrTraitMFC_DLL@DV?$ChTraitsCRT@D@ATL@@@@@ATL@@H_N@Z$2
__ehfuncinfo$?GetSubGraphStringData@CSubGraphPartData@@QAEXAAV?$CStringT@DV?$StrTraitMFC_DLL@DV?$ChTraitsCRT@D@ATL@@@@@ATL@@H_N@Z DD 019930522H
	DD	03H
	DD	FLAT:__unwindtable$?GetSubGraphStringData@CSubGraphPartData@@QAEXAAV?$CStringT@DV?$StrTraitMFC_DLL@DV?$ChTraitsCRT@D@ATL@@@@@ATL@@H_N@Z
	DD	2 DUP(00H)
	DD	2 DUP(00H)
	DD	00H
	DD	01H
xdata$x	ENDS
;	COMDAT xdata$x
xdata$x	SEGMENT
__unwindtable$?GetConditionData@CSubGraphPartData@@QBE_NHAAV?$CStringT@DV?$StrTraitMFC_DLL@DV?$ChTraitsCRT@D@ATL@@@@@ATL@@@Z DD 0ffffffffH
	DD	FLAT:__unwindfunclet$?GetConditionData@CSubGraphPartData@@QBE_NHAAV?$CStringT@DV?$StrTraitMFC_DLL@DV?$ChTraitsCRT@D@ATL@@@@@ATL@@@Z$0
__ehfuncinfo$?GetConditionData@CSubGraphPartData@@QBE_NHAAV?$CStringT@DV?$StrTraitMFC_DLL@DV?$ChTraitsCRT@D@ATL@@@@@ATL@@@Z DD 019930522H
	DD	01H
	DD	FLAT:__unwindtable$?GetConditionData@CSubGraphPartData@@QBE_NHAAV?$CStringT@DV?$StrTraitMFC_DLL@DV?$ChTraitsCRT@D@ATL@@@@@ATL@@@Z
	DD	2 DUP(00H)
	DD	2 DUP(00H)
	DD	00H
	DD	01H
xdata$x	ENDS
;	COMDAT xdata$x
xdata$x	SEGMENT
__unwindtable$??1CSubGraphPartData@@UAE@XZ DD 0ffffffffH
	DD	FLAT:___std_terminate
__ehfuncinfo$??1CSubGraphPartData@@UAE@XZ DD 019930522H
	DD	01H
	DD	FLAT:__unwindtable$??1CSubGraphPartData@@UAE@XZ
	DD	2 DUP(00H)
	DD	2 DUP(00H)
	DD	00H
	DD	05H
xdata$x	ENDS
;	COMDAT xdata$x
xdata$x	SEGMENT
__unwindtable$??0CSubGraphPartData@@QAE@ABVCSubGraphData@@@Z DD 0ffffffffH
	DD	FLAT:__unwindfunclet$??0CSubGraphPartData@@QAE@ABVCSubGraphData@@@Z$0
	DD	00H
	DD	FLAT:__unwindfunclet$??0CSubGraphPartData@@QAE@ABVCSubGraphData@@@Z$1
__ehfuncinfo$??0CSubGraphPartData@@QAE@ABVCSubGraphData@@@Z DD 019930522H
	DD	02H
	DD	FLAT:__unwindtable$??0CSubGraphPartData@@QAE@ABVCSubGraphData@@@Z
	DD	2 DUP(00H)
	DD	2 DUP(00H)
	DD	00H
	DD	01H
xdata$x	ENDS
;	COMDAT xdata$x
xdata$x	SEGMENT
__unwindtable$??0CSubGraphPartData@@QAE@ABV0@@Z DD 0ffffffffH
	DD	FLAT:__unwindfunclet$??0CSubGraphPartData@@QAE@ABV0@@Z$0
	DD	00H
	DD	FLAT:__unwindfunclet$??0CSubGraphPartData@@QAE@ABV0@@Z$1
	DD	01H
	DD	FLAT:__unwindfunclet$??0CSubGraphPartData@@QAE@ABV0@@Z$2
__ehfuncinfo$??0CSubGraphPartData@@QAE@ABV0@@Z DD 019930522H
	DD	03H
	DD	FLAT:__unwindtable$??0CSubGraphPartData@@QAE@ABV0@@Z
	DD	2 DUP(00H)
	DD	2 DUP(00H)
	DD	00H
	DD	01H
xdata$x	ENDS
;	COMDAT xdata$x
xdata$x	SEGMENT
__unwindtable$??0CSubGraphPartData@@QAE@XZ DD 0ffffffffH
	DD	FLAT:__unwindfunclet$??0CSubGraphPartData@@QAE@XZ$0
	DD	00H
	DD	FLAT:__unwindfunclet$??0CSubGraphPartData@@QAE@XZ$1
__ehfuncinfo$??0CSubGraphPartData@@QAE@XZ DD 019930522H
	DD	02H
	DD	FLAT:__unwindtable$??0CSubGraphPartData@@QAE@XZ
	DD	2 DUP(00H)
	DD	2 DUP(00H)
	DD	00H
	DD	01H
xdata$x	ENDS
;	COMDAT xdata$x
xdata$x	SEGMENT
__unwindtable$??4CSubGraphPartData@@QAEAAV0@ABV0@@Z DD 0ffffffffH
	DD	FLAT:__unwindfunclet$??4CSubGraphPartData@@QAEAAV0@ABV0@@Z$0
__ehfuncinfo$??4CSubGraphPartData@@QAEAAV0@ABV0@@Z DD 019930522H
	DD	01H
	DD	FLAT:__unwindtable$??4CSubGraphPartData@@QAEAAV0@ABV0@@Z
	DD	2 DUP(00H)
	DD	2 DUP(00H)
	DD	00H
	DD	01H
xdata$x	ENDS
;	COMDAT xdata$x
xdata$x	SEGMENT
__unwindtable$??0CGraphData@@QAE@ABV0@@Z DD 0ffffffffH
	DD	FLAT:__unwindfunclet$??0CGraphData@@QAE@ABV0@@Z$0
	DD	00H
	DD	FLAT:__unwindfunclet$??0CGraphData@@QAE@ABV0@@Z$1
	DD	01H
	DD	FLAT:__unwindfunclet$??0CGraphData@@QAE@ABV0@@Z$2
__ehfuncinfo$??0CGraphData@@QAE@ABV0@@Z DD 019930522H
	DD	03H
	DD	FLAT:__unwindtable$??0CGraphData@@QAE@ABV0@@Z
	DD	2 DUP(00H)
	DD	2 DUP(00H)
	DD	00H
	DD	01H
xdata$x	ENDS
;	COMDAT xdata$x
xdata$x	SEGMENT
__unwindtable$??0CGraphData@@QAE@XZ DD 0ffffffffH
	DD	FLAT:__unwindfunclet$??0CGraphData@@QAE@XZ$0
	DD	00H
	DD	FLAT:__unwindfunclet$??0CGraphData@@QAE@XZ$1
__ehfuncinfo$??0CGraphData@@QAE@XZ DD 019930522H
	DD	02H
	DD	FLAT:__unwindtable$??0CGraphData@@QAE@XZ
	DD	2 DUP(00H)
	DD	2 DUP(00H)
	DD	00H
	DD	01H
xdata$x	ENDS
;	COMDAT xdata$x
xdata$x	SEGMENT
__ehfuncinfo$??_ECIndicatorList@@UAEPAXI@Z DD 019930522H
	DD	00H
	DD	00H
	DD	2 DUP(00H)
	DD	2 DUP(00H)
	DD	00H
	DD	05H
xdata$x	ENDS
;	COMDAT xdata$x
xdata$x	SEGMENT
__unwindtable$??HATL@@YA?AV?$CStringT@DV?$StrTraitMFC_DLL@DV?$ChTraitsCRT@D@ATL@@@@@0@ABV10@PBD@Z DD 0ffffffffH
	DD	FLAT:__unwindfunclet$??HATL@@YA?AV?$CStringT@DV?$StrTraitMFC_DLL@DV?$ChTraitsCRT@D@ATL@@@@@0@ABV10@PBD@Z$0
__ehfuncinfo$??HATL@@YA?AV?$CStringT@DV?$StrTraitMFC_DLL@DV?$ChTraitsCRT@D@ATL@@@@@0@ABV10@PBD@Z DD 019930522H
	DD	01H
	DD	FLAT:__unwindtable$??HATL@@YA?AV?$CStringT@DV?$StrTraitMFC_DLL@DV?$ChTraitsCRT@D@ATL@@@@@0@ABV10@PBD@Z
	DD	2 DUP(00H)
	DD	2 DUP(00H)
	DD	00H
	DD	01H
xdata$x	ENDS
;	COMDAT xdata$x
xdata$x	SEGMENT
__unwindtable$??HATL@@YA?AV?$CStringT@DV?$StrTraitMFC_DLL@DV?$ChTraitsCRT@D@ATL@@@@@0@ABV10@0@Z DD 0ffffffffH
	DD	FLAT:__unwindfunclet$??HATL@@YA?AV?$CStringT@DV?$StrTraitMFC_DLL@DV?$ChTraitsCRT@D@ATL@@@@@0@ABV10@0@Z$0
__ehfuncinfo$??HATL@@YA?AV?$CStringT@DV?$StrTraitMFC_DLL@DV?$ChTraitsCRT@D@ATL@@@@@0@ABV10@0@Z DD 019930522H
	DD	01H
	DD	FLAT:__unwindtable$??HATL@@YA?AV?$CStringT@DV?$StrTraitMFC_DLL@DV?$ChTraitsCRT@D@ATL@@@@@0@ABV10@0@Z
	DD	2 DUP(00H)
	DD	2 DUP(00H)
	DD	00H
	DD	01H
xdata$x	ENDS
; Function compile flags: /Ogtp
; File C:\Program Files (x86)\Microsoft Visual Studio\2019\Community\VC\Tools\MSVC\14.29.30133\include\xmemory
;	COMDAT ??$_Allocate_manually_vector_aligned@U_Default_allocate_traits@std@@@std@@YAPAXI@Z
_TEXT	SEGMENT
__Bytes$ = 8						; size = 4
??$_Allocate_manually_vector_aligned@U_Default_allocate_traits@std@@@std@@YAPAXI@Z PROC ; std::_Allocate_manually_vector_aligned<std::_Default_allocate_traits>, COMDAT

; 127  : __declspec(allocator) void* _Allocate_manually_vector_aligned(const size_t _Bytes) {

  00000	55		 push	 ebp
  00001	8b ec		 mov	 ebp, esp

; 128  :     // allocate _Bytes manually aligned to at least _Big_allocation_alignment
; 129  :     const size_t _Block_size = _Non_user_size + _Bytes;

  00003	8b 45 08	 mov	 eax, DWORD PTR __Bytes$[ebp]
  00006	8d 48 23	 lea	 ecx, DWORD PTR [eax+35]

; 130  :     if (_Block_size <= _Bytes) {

  00009	3b c8		 cmp	 ecx, eax
  0000b	0f 86 00 00 00
	00		 jbe	 ?_Throw_bad_array_new_length@std@@YAXXZ ; std::_Throw_bad_array_new_length

; 79   :         return ::operator new(_Bytes);

  00011	51		 push	 ecx
  00012	e8 00 00 00 00	 call	 ??2@YAPAXI@Z		; operator new

; 131  :         _Throw_bad_array_new_length(); // add overflow
; 132  :     }
; 133  : 
; 134  :     const uintptr_t _Ptr_container = reinterpret_cast<uintptr_t>(_Traits::_Allocate(_Block_size));

  00017	8b c8		 mov	 ecx, eax

; 79   :         return ::operator new(_Bytes);

  00019	83 c4 04	 add	 esp, 4

; 135  :     _STL_VERIFY(_Ptr_container != 0, "invalid argument"); // validate even in release since we're doing p[-1]

  0001c	85 c9		 test	 ecx, ecx
  0001e	74 0b		 je	 SHORT $LN7@Allocate_m

; 136  :     void* const _Ptr = reinterpret_cast<void*>((_Ptr_container + _Non_user_size) & ~(_Big_allocation_alignment - 1));

  00020	8d 41 23	 lea	 eax, DWORD PTR [ecx+35]
  00023	83 e0 e0	 and	 eax, -32		; ffffffe0H

; 137  :     static_cast<uintptr_t*>(_Ptr)[-1] = _Ptr_container;

  00026	89 48 fc	 mov	 DWORD PTR [eax-4], ecx

; 138  : 
; 139  : #ifdef _DEBUG
; 140  :     static_cast<uintptr_t*>(_Ptr)[-2] = _Big_allocation_sentinel;
; 141  : #endif // _DEBUG
; 142  :     return _Ptr;
; 143  : }

  00029	5d		 pop	 ebp
  0002a	c3		 ret	 0
$LN7@Allocate_m:

; 135  :     _STL_VERIFY(_Ptr_container != 0, "invalid argument"); // validate even in release since we're doing p[-1]

  0002b	ff 25 00 00 00
	00		 jmp	 DWORD PTR __imp___invalid_parameter_noinfo_noreturn
??$_Allocate_manually_vector_aligned@U_Default_allocate_traits@std@@@std@@YAPAXI@Z ENDP ; std::_Allocate_manually_vector_aligned<std::_Default_allocate_traits>
_TEXT	ENDS
; Function compile flags: /Ogtp
; File C:\Program Files (x86)\Microsoft Visual Studio\2019\Community\VC\Tools\MSVC\14.29.30133\include\xmemory
;	COMDAT ??1?$_Alloc_construct_ptr@V?$allocator@U?$_List_node@PAVCSubGraphPartData@@PAX@std@@@std@@@std@@QAE@XZ
_TEXT	SEGMENT
??1?$_Alloc_construct_ptr@V?$allocator@U?$_List_node@PAVCSubGraphPartData@@PAX@std@@@std@@@std@@QAE@XZ PROC ; std::_Alloc_construct_ptr<std::allocator<std::_List_node<CSubGraphPartData *,void *> > >::~_Alloc_construct_ptr<std::allocator<std::_List_node<CSubGraphPartData *,void *> > >, COMDAT
; _this$ = ecx

; 970  :         if (_Ptr) {

  00000	8b 41 04	 mov	 eax, DWORD PTR [ecx+4]
  00003	85 c0		 test	 eax, eax
  00005	74 0b		 je	 SHORT $LN8@Alloc_cons

; 255  :         ::operator delete(_Ptr, _Bytes);

  00007	6a 0c		 push	 12			; 0000000cH
  00009	50		 push	 eax
  0000a	e8 00 00 00 00	 call	 ??3@YAXPAXI@Z		; operator delete
  0000f	83 c4 08	 add	 esp, 8
$LN8@Alloc_cons:

; 971  :             _Al.deallocate(_Ptr, 1);
; 972  :         }
; 973  :     }

  00012	c3		 ret	 0
??1?$_Alloc_construct_ptr@V?$allocator@U?$_List_node@PAVCSubGraphPartData@@PAX@std@@@std@@@std@@QAE@XZ ENDP ; std::_Alloc_construct_ptr<std::allocator<std::_List_node<CSubGraphPartData *,void *> > >::~_Alloc_construct_ptr<std::allocator<std::_List_node<CSubGraphPartData *,void *> > >
_TEXT	ENDS
; Function compile flags: /Ogtp
; File C:\Program Files (x86)\Microsoft Visual Studio\2019\Community\VC\Tools\MSVC\14.29.30133\atlmfc\include\afxtempl.h
; File C:\Program Files (x86)\Microsoft Visual Studio\2019\Community\VC\Tools\MSVC\14.29.30133\atlmfc\include\afx.inl
; File C:\Program Files (x86)\Microsoft Visual Studio\2019\Community\VC\Tools\MSVC\14.29.30133\atlmfc\include\afxtempl.h
; File C:\Program Files (x86)\Microsoft Visual Studio\2019\Community\VC\Tools\MSVC\14.29.30133\atlmfc\include\afx.inl
; File C:\Program Files (x86)\Microsoft Visual Studio\2019\Community\VC\Tools\MSVC\14.29.30133\atlmfc\include\afxtempl.h
; File C:\Program Files (x86)\Microsoft Visual Studio\2019\Community\VC\Tools\MSVC\14.29.30133\atlmfc\include\afx.inl
; File C:\Program Files (x86)\Microsoft Visual Studio\2019\Community\VC\Tools\MSVC\14.29.30133\atlmfc\include\afxtempl.h
;	COMDAT ??$SerializeElements@PAVCIndicatorGroupData@@@@YGXAAVCArchive@@PAPAVCIndicatorGroupData@@H@Z
_TEXT	SEGMENT
_ar$ = 8						; size = 4
_pElements$ = 12					; size = 4
_nCount$ = 16						; size = 4
??$SerializeElements@PAVCIndicatorGroupData@@@@YGXAAVCArchive@@PAPAVCIndicatorGroupData@@H@Z PROC ; SerializeElements<CIndicatorGroupData *>, COMDAT

; 67   : {

  00000	55		 push	 ebp
  00001	8b ec		 mov	 ebp, esp

; 68   : 	ENSURE(nCount == 0 || pElements != NULL);

  00003	8b 4d 0c	 mov	 ecx, DWORD PTR _pElements$[ebp]
  00006	53		 push	 ebx
  00007	56		 push	 esi
  00008	8b 75 10	 mov	 esi, DWORD PTR _nCount$[ebp]
  0000b	57		 push	 edi
  0000c	85 f6		 test	 esi, esi
  0000e	74 08		 je	 SHORT $LN2@SerializeE
  00010	85 c9		 test	 ecx, ecx
  00012	0f 84 89 00 00
	00		 je	 $LN34@SerializeE
$LN2@SerializeE:
; File C:\Program Files (x86)\Microsoft Visual Studio\2019\Community\VC\Tools\MSVC\14.29.30133\atlmfc\include\afx.inl

; 212  : 	{ return (m_nMode & CArchive::load) == 0; }

  00018	8b 55 08	 mov	 edx, DWORD PTR _ar$[ebp]
  0001b	8b 42 18	 mov	 eax, DWORD PTR [edx+24]
  0001e	f7 d0		 not	 eax
  00020	a8 01		 test	 al, 1
; File C:\Program Files (x86)\Microsoft Visual Studio\2019\Community\VC\Tools\MSVC\14.29.30133\atlmfc\include\afxtempl.h

; 73   : 	if (ar.IsStoring())

  00022	74 3c		 je	 SHORT $LN10@SerializeE

; 74   : 	{
; 75   : 		TYPE* pData;
; 76   : 		UINT_PTR nElementsLeft;
; 77   : 
; 78   : 		nElementsLeft = nCount;
; 79   : 		pData = pElements;
; 80   : 		while( nElementsLeft > 0 )

  00024	85 f6		 test	 esi, esi
  00026	74 31		 je	 SHORT $LN8@SerializeE
  00028	0f 1f 84 00 00
	00 00 00	 npad	 8
$LL5@SerializeE:

; 81   : 		{
; 82   : 			UINT nElementsToWrite;
; 83   : 
; 84   : 			nElementsToWrite = UINT(__min(nElementsLeft, INT_MAX/sizeof(TYPE)));

  00030	bb ff ff ff 1f	 mov	 ebx, 536870911		; 1fffffffH
  00035	3b f3		 cmp	 esi, ebx
  00037	0f 42 de	 cmovb	 ebx, esi

; 85   : 			ar.Write(pData, nElementsToWrite*sizeof(TYPE));

  0003a	8d 3c 9d 00 00
	00 00		 lea	 edi, DWORD PTR [ebx*4]
  00041	57		 push	 edi
  00042	51		 push	 ecx
  00043	8b ca		 mov	 ecx, edx
  00045	e8 00 00 00 00	 call	 ?Write@CArchive@@QAEXPBXI@Z ; CArchive::Write

; 86   : 			nElementsLeft -= nElementsToWrite;
; 87   : 			pData += nElementsToWrite;

  0004a	8b 4d 0c	 mov	 ecx, DWORD PTR _pElements$[ebp]
  0004d	8b 55 08	 mov	 edx, DWORD PTR _ar$[ebp]
  00050	03 cf		 add	 ecx, edi
  00052	89 4d 0c	 mov	 DWORD PTR _pElements$[ebp], ecx
  00055	2b f3		 sub	 esi, ebx
  00057	75 d7		 jne	 SHORT $LL5@SerializeE
$LN8@SerializeE:
  00059	5f		 pop	 edi

; 105  : 		}
; 106  : 	}
; 107  : }

  0005a	5e		 pop	 esi
  0005b	5b		 pop	 ebx
  0005c	5d		 pop	 ebp
  0005d	c2 0c 00	 ret	 12			; 0000000cH
$LN10@SerializeE:

; 97   : 		while( nElementsLeft > 0 )

  00060	85 f6		 test	 esi, esi
  00062	74 f5		 je	 SHORT $LN8@SerializeE
$LL7@SerializeE:

; 98   : 		{
; 99   : 			UINT nElementsToRead;
; 100  : 
; 101  : 			nElementsToRead = UINT(__min(nElementsLeft, INT_MAX/sizeof(TYPE)));

  00064	bf ff ff ff 1f	 mov	 edi, 536870911		; 1fffffffH
  00069	3b f7		 cmp	 esi, edi
  0006b	0f 42 fe	 cmovb	 edi, esi

; 102  : 			ar.EnsureRead(pData, nElementsToRead*sizeof(TYPE));

  0006e	8d 1c bd 00 00
	00 00		 lea	 ebx, DWORD PTR [edi*4]
; File C:\Program Files (x86)\Microsoft Visual Studio\2019\Community\VC\Tools\MSVC\14.29.30133\atlmfc\include\afx.inl

; 399  : 	UINT nRead=Read(lpBuf, nCount);

  00075	53		 push	 ebx
  00076	51		 push	 ecx
  00077	8b ca		 mov	 ecx, edx
  00079	e8 00 00 00 00	 call	 ?Read@CArchive@@QAEIPAXI@Z ; CArchive::Read

; 400  : 	if(nRead!=nCount)

  0007e	3b c3		 cmp	 eax, ebx
  00080	75 16		 jne	 SHORT $LN23@SerializeE
; File C:\Program Files (x86)\Microsoft Visual Studio\2019\Community\VC\Tools\MSVC\14.29.30133\atlmfc\include\afxtempl.h

; 97   : 		while( nElementsLeft > 0 )

  00082	8b 4d 0c	 mov	 ecx, DWORD PTR _pElements$[ebp]
  00085	8b 55 08	 mov	 edx, DWORD PTR _ar$[ebp]

; 103  : 			nElementsLeft -= nElementsToRead;
; 104  : 			pData += nElementsToRead;

  00088	03 cb		 add	 ecx, ebx
  0008a	89 4d 0c	 mov	 DWORD PTR _pElements$[ebp], ecx
  0008d	2b f7		 sub	 esi, edi
  0008f	75 d3		 jne	 SHORT $LL7@SerializeE

; 105  : 		}
; 106  : 	}
; 107  : }

  00091	5f		 pop	 edi
  00092	5e		 pop	 esi
  00093	5b		 pop	 ebx
  00094	5d		 pop	 ebp
  00095	c2 0c 00	 ret	 12			; 0000000cH
$LN23@SerializeE:
; File C:\Program Files (x86)\Microsoft Visual Studio\2019\Community\VC\Tools\MSVC\14.29.30133\atlmfc\include\afx.inl

; 402  : 		AfxThrowArchiveException(CArchiveException::endOfFile);

  00098	6a 00		 push	 0
  0009a	6a 03		 push	 3
  0009c	e8 00 00 00 00	 call	 ?AfxThrowArchiveException@@YGXHPBD@Z ; AfxThrowArchiveException
$LN34@SerializeE:
; File C:\Program Files (x86)\Microsoft Visual Studio\2019\Community\VC\Tools\MSVC\14.29.30133\atlmfc\include\afxtempl.h

; 68   : 	ENSURE(nCount == 0 || pElements != NULL);

  000a1	e8 00 00 00 00	 call	 ?AfxThrowInvalidArgException@@YGXXZ ; AfxThrowInvalidArgException
$LN32@SerializeE:
  000a6	cc		 int	 3
??$SerializeElements@PAVCIndicatorGroupData@@@@YGXAAVCArchive@@PAPAVCIndicatorGroupData@@H@Z ENDP ; SerializeElements<CIndicatorGroupData *>
_TEXT	ENDS
; Function compile flags: /Ogtp
; File C:\Program Files (x86)\Microsoft Visual Studio\2019\Community\VC\Tools\MSVC\14.29.30133\atlmfc\include\afxtempl.h
; File C:\Program Files (x86)\Microsoft Visual Studio\2019\Community\VC\Tools\MSVC\14.29.30133\atlmfc\include\afx.inl
; File C:\Program Files (x86)\Microsoft Visual Studio\2019\Community\VC\Tools\MSVC\14.29.30133\atlmfc\include\afxtempl.h
; File C:\Program Files (x86)\Microsoft Visual Studio\2019\Community\VC\Tools\MSVC\14.29.30133\atlmfc\include\afx.inl
; File C:\Program Files (x86)\Microsoft Visual Studio\2019\Community\VC\Tools\MSVC\14.29.30133\atlmfc\include\afxtempl.h
; File C:\Program Files (x86)\Microsoft Visual Studio\2019\Community\VC\Tools\MSVC\14.29.30133\atlmfc\include\afx.inl
; File C:\Program Files (x86)\Microsoft Visual Studio\2019\Community\VC\Tools\MSVC\14.29.30133\atlmfc\include\afxtempl.h
;	COMDAT ??$SerializeElements@N@@YGXAAVCArchive@@PANH@Z
_TEXT	SEGMENT
_ar$ = 8						; size = 4
_pElements$ = 12					; size = 4
_nCount$ = 16						; size = 4
??$SerializeElements@N@@YGXAAVCArchive@@PANH@Z PROC	; SerializeElements<double>, COMDAT

; 67   : {

  00000	55		 push	 ebp
  00001	8b ec		 mov	 ebp, esp

; 68   : 	ENSURE(nCount == 0 || pElements != NULL);

  00003	8b 4d 0c	 mov	 ecx, DWORD PTR _pElements$[ebp]
  00006	53		 push	 ebx
  00007	56		 push	 esi
  00008	8b 75 10	 mov	 esi, DWORD PTR _nCount$[ebp]
  0000b	57		 push	 edi
  0000c	85 f6		 test	 esi, esi
  0000e	74 08		 je	 SHORT $LN2@SerializeE
  00010	85 c9		 test	 ecx, ecx
  00012	0f 84 89 00 00
	00		 je	 $LN34@SerializeE
$LN2@SerializeE:
; File C:\Program Files (x86)\Microsoft Visual Studio\2019\Community\VC\Tools\MSVC\14.29.30133\atlmfc\include\afx.inl

; 212  : 	{ return (m_nMode & CArchive::load) == 0; }

  00018	8b 55 08	 mov	 edx, DWORD PTR _ar$[ebp]
  0001b	8b 42 18	 mov	 eax, DWORD PTR [edx+24]
  0001e	f7 d0		 not	 eax
  00020	a8 01		 test	 al, 1
; File C:\Program Files (x86)\Microsoft Visual Studio\2019\Community\VC\Tools\MSVC\14.29.30133\atlmfc\include\afxtempl.h

; 73   : 	if (ar.IsStoring())

  00022	74 3c		 je	 SHORT $LN10@SerializeE

; 74   : 	{
; 75   : 		TYPE* pData;
; 76   : 		UINT_PTR nElementsLeft;
; 77   : 
; 78   : 		nElementsLeft = nCount;
; 79   : 		pData = pElements;
; 80   : 		while( nElementsLeft > 0 )

  00024	85 f6		 test	 esi, esi
  00026	74 31		 je	 SHORT $LN8@SerializeE
  00028	0f 1f 84 00 00
	00 00 00	 npad	 8
$LL5@SerializeE:

; 81   : 		{
; 82   : 			UINT nElementsToWrite;
; 83   : 
; 84   : 			nElementsToWrite = UINT(__min(nElementsLeft, INT_MAX/sizeof(TYPE)));

  00030	bb ff ff ff 0f	 mov	 ebx, 268435455		; 0fffffffH
  00035	3b f3		 cmp	 esi, ebx
  00037	0f 42 de	 cmovb	 ebx, esi

; 85   : 			ar.Write(pData, nElementsToWrite*sizeof(TYPE));

  0003a	8d 3c dd 00 00
	00 00		 lea	 edi, DWORD PTR [ebx*8]
  00041	57		 push	 edi
  00042	51		 push	 ecx
  00043	8b ca		 mov	 ecx, edx
  00045	e8 00 00 00 00	 call	 ?Write@CArchive@@QAEXPBXI@Z ; CArchive::Write

; 86   : 			nElementsLeft -= nElementsToWrite;
; 87   : 			pData += nElementsToWrite;

  0004a	8b 4d 0c	 mov	 ecx, DWORD PTR _pElements$[ebp]
  0004d	8b 55 08	 mov	 edx, DWORD PTR _ar$[ebp]
  00050	03 cf		 add	 ecx, edi
  00052	89 4d 0c	 mov	 DWORD PTR _pElements$[ebp], ecx
  00055	2b f3		 sub	 esi, ebx
  00057	75 d7		 jne	 SHORT $LL5@SerializeE
$LN8@SerializeE:
  00059	5f		 pop	 edi

; 105  : 		}
; 106  : 	}
; 107  : }

  0005a	5e		 pop	 esi
  0005b	5b		 pop	 ebx
  0005c	5d		 pop	 ebp
  0005d	c2 0c 00	 ret	 12			; 0000000cH
$LN10@SerializeE:

; 97   : 		while( nElementsLeft > 0 )

  00060	85 f6		 test	 esi, esi
  00062	74 f5		 je	 SHORT $LN8@SerializeE
$LL7@SerializeE:

; 98   : 		{
; 99   : 			UINT nElementsToRead;
; 100  : 
; 101  : 			nElementsToRead = UINT(__min(nElementsLeft, INT_MAX/sizeof(TYPE)));

  00064	bf ff ff ff 0f	 mov	 edi, 268435455		; 0fffffffH
  00069	3b f7		 cmp	 esi, edi
  0006b	0f 42 fe	 cmovb	 edi, esi

; 102  : 			ar.EnsureRead(pData, nElementsToRead*sizeof(TYPE));

  0006e	8d 1c fd 00 00
	00 00		 lea	 ebx, DWORD PTR [edi*8]
; File C:\Program Files (x86)\Microsoft Visual Studio\2019\Community\VC\Tools\MSVC\14.29.30133\atlmfc\include\afx.inl

; 399  : 	UINT nRead=Read(lpBuf, nCount);

  00075	53		 push	 ebx
  00076	51		 push	 ecx
  00077	8b ca		 mov	 ecx, edx
  00079	e8 00 00 00 00	 call	 ?Read@CArchive@@QAEIPAXI@Z ; CArchive::Read

; 400  : 	if(nRead!=nCount)

  0007e	3b c3		 cmp	 eax, ebx
  00080	75 16		 jne	 SHORT $LN23@SerializeE
; File C:\Program Files (x86)\Microsoft Visual Studio\2019\Community\VC\Tools\MSVC\14.29.30133\atlmfc\include\afxtempl.h

; 97   : 		while( nElementsLeft > 0 )

  00082	8b 4d 0c	 mov	 ecx, DWORD PTR _pElements$[ebp]
  00085	8b 55 08	 mov	 edx, DWORD PTR _ar$[ebp]

; 103  : 			nElementsLeft -= nElementsToRead;
; 104  : 			pData += nElementsToRead;

  00088	03 cb		 add	 ecx, ebx
  0008a	89 4d 0c	 mov	 DWORD PTR _pElements$[ebp], ecx
  0008d	2b f7		 sub	 esi, edi
  0008f	75 d3		 jne	 SHORT $LL7@SerializeE

; 105  : 		}
; 106  : 	}
; 107  : }

  00091	5f		 pop	 edi
  00092	5e		 pop	 esi
  00093	5b		 pop	 ebx
  00094	5d		 pop	 ebp
  00095	c2 0c 00	 ret	 12			; 0000000cH
$LN23@SerializeE:
; File C:\Program Files (x86)\Microsoft Visual Studio\2019\Community\VC\Tools\MSVC\14.29.30133\atlmfc\include\afx.inl

; 402  : 		AfxThrowArchiveException(CArchiveException::endOfFile);

  00098	6a 00		 push	 0
  0009a	6a 03		 push	 3
  0009c	e8 00 00 00 00	 call	 ?AfxThrowArchiveException@@YGXHPBD@Z ; AfxThrowArchiveException
$LN34@SerializeE:
; File C:\Program Files (x86)\Microsoft Visual Studio\2019\Community\VC\Tools\MSVC\14.29.30133\atlmfc\include\afxtempl.h

; 68   : 	ENSURE(nCount == 0 || pElements != NULL);

  000a1	e8 00 00 00 00	 call	 ?AfxThrowInvalidArgException@@YGXXZ ; AfxThrowInvalidArgException
$LN32@SerializeE:
  000a6	cc		 int	 3
??$SerializeElements@N@@YGXAAVCArchive@@PANH@Z ENDP	; SerializeElements<double>
_TEXT	ENDS
; Function compile flags: /Ogtp
;	COMDAT ??__FdilBuilder@?BK@??AddIndiInfoFromCfgString@CUserIndicatorList@@QAE_NPAVCIndicatorList@@AAPAD_N@Z@YAXXZ
text$yd	SEGMENT
??__FdilBuilder@?BK@??AddIndiInfoFromCfgString@CUserIndicatorList@@QAE_NPAVCIndicatorList@@AAPAD_N@Z@YAXXZ PROC ; `CUserIndicatorList::AddIndiInfoFromCfgString'::`26'::`dynamic atexit destructor for 'dilBuilder'', COMDAT
  00000	b9 2c 00 00 00	 mov	 ecx, OFFSET ?dilBuilder@?BK@??AddIndiInfoFromCfgString@CUserIndicatorList@@QAE_NPAVCIndicatorList@@AAPAD_N@Z@4VCUserVer5Dot20TypeIndiListBuilder@@A+44
  00005	e8 00 00 00 00	 call	 ??1CMapStringToPtr@@UAE@XZ ; CMapStringToPtr::~CMapStringToPtr
  0000a	b9 10 00 00 00	 mov	 ecx, OFFSET ?dilBuilder@?BK@??AddIndiInfoFromCfgString@CUserIndicatorList@@QAE_NPAVCIndicatorList@@AAPAD_N@Z@4VCUserVer5Dot20TypeIndiListBuilder@@A+16
  0000f	e9 00 00 00 00	 jmp	 ??1CMapStringToString@@UAE@XZ ; CMapStringToString::~CMapStringToString
??__FdilBuilder@?BK@??AddIndiInfoFromCfgString@CUserIndicatorList@@QAE_NPAVCIndicatorList@@AAPAD_N@Z@YAXXZ ENDP ; `CUserIndicatorList::AddIndiInfoFromCfgString'::`26'::`dynamic atexit destructor for 'dilBuilder''
text$yd	ENDS
; Function compile flags: /Ogtp
;	COMDAT ??__FdilBuilder@?BG@??AddIndiInfoFromCfgString@CUserIndicatorList@@QAE_NPAVCIndicatorList@@AAPAD_N@Z@YAXXZ
text$yd	SEGMENT
??__FdilBuilder@?BG@??AddIndiInfoFromCfgString@CUserIndicatorList@@QAE_NPAVCIndicatorList@@AAPAD_N@Z@YAXXZ PROC ; `CUserIndicatorList::AddIndiInfoFromCfgString'::`22'::`dynamic atexit destructor for 'dilBuilder'', COMDAT
  00000	b9 48 00 00 00	 mov	 ecx, OFFSET ?dilBuilder@?BG@??AddIndiInfoFromCfgString@CUserIndicatorList@@QAE_NPAVCIndicatorList@@AAPAD_N@Z@4VCUserVer5Dot10TypeIndiListBuilder@@A+72
  00005	e8 00 00 00 00	 call	 ??1CMapStringToPtr@@UAE@XZ ; CMapStringToPtr::~CMapStringToPtr
  0000a	b9 2c 00 00 00	 mov	 ecx, OFFSET ?dilBuilder@?BG@??AddIndiInfoFromCfgString@CUserIndicatorList@@QAE_NPAVCIndicatorList@@AAPAD_N@Z@4VCUserVer5Dot10TypeIndiListBuilder@@A+44
  0000f	e8 00 00 00 00	 call	 ??1CMapStringToPtr@@UAE@XZ ; CMapStringToPtr::~CMapStringToPtr
  00014	b9 10 00 00 00	 mov	 ecx, OFFSET ?dilBuilder@?BG@??AddIndiInfoFromCfgString@CUserIndicatorList@@QAE_NPAVCIndicatorList@@AAPAD_N@Z@4VCUserVer5Dot10TypeIndiListBuilder@@A+16
  00019	e9 00 00 00 00	 jmp	 ??1CMapStringToString@@UAE@XZ ; CMapStringToString::~CMapStringToString
??__FdilBuilder@?BG@??AddIndiInfoFromCfgString@CUserIndicatorList@@QAE_NPAVCIndicatorList@@AAPAD_N@Z@YAXXZ ENDP ; `CUserIndicatorList::AddIndiInfoFromCfgString'::`22'::`dynamic atexit destructor for 'dilBuilder''
text$yd	ENDS
; Function compile flags: /Ogtp
;	COMDAT ??__FdilBuilder@?BC@??AddIndiInfoFromCfgString@CUserIndicatorList@@QAE_NPAVCIndicatorList@@AAPAD_N@Z@YAXXZ
text$yd	SEGMENT
??__FdilBuilder@?BC@??AddIndiInfoFromCfgString@CUserIndicatorList@@QAE_NPAVCIndicatorList@@AAPAD_N@Z@YAXXZ PROC ; `CUserIndicatorList::AddIndiInfoFromCfgString'::`18'::`dynamic atexit destructor for 'dilBuilder'', COMDAT
  00000	b9 64 00 00 00	 mov	 ecx, OFFSET ?dilBuilder@?BC@??AddIndiInfoFromCfgString@CUserIndicatorList@@QAE_NPAVCIndicatorList@@AAPAD_N@Z@4VCUserVer5Dot00TypeIndiListBuilder@@A+100
  00005	e8 00 00 00 00	 call	 ??1CMapStringToPtr@@UAE@XZ ; CMapStringToPtr::~CMapStringToPtr
  0000a	b9 48 00 00 00	 mov	 ecx, OFFSET ?dilBuilder@?BC@??AddIndiInfoFromCfgString@CUserIndicatorList@@QAE_NPAVCIndicatorList@@AAPAD_N@Z@4VCUserVer5Dot00TypeIndiListBuilder@@A+72
  0000f	e8 00 00 00 00	 call	 ??1CMapStringToPtr@@UAE@XZ ; CMapStringToPtr::~CMapStringToPtr
  00014	b9 2c 00 00 00	 mov	 ecx, OFFSET ?dilBuilder@?BC@??AddIndiInfoFromCfgString@CUserIndicatorList@@QAE_NPAVCIndicatorList@@AAPAD_N@Z@4VCUserVer5Dot00TypeIndiListBuilder@@A+44
  00019	e8 00 00 00 00	 call	 ??1CMapStringToPtr@@UAE@XZ ; CMapStringToPtr::~CMapStringToPtr
  0001e	b9 10 00 00 00	 mov	 ecx, OFFSET ?dilBuilder@?BC@??AddIndiInfoFromCfgString@CUserIndicatorList@@QAE_NPAVCIndicatorList@@AAPAD_N@Z@4VCUserVer5Dot00TypeIndiListBuilder@@A+16
  00023	e9 00 00 00 00	 jmp	 ??1CMapStringToString@@UAE@XZ ; CMapStringToString::~CMapStringToString
??__FdilBuilder@?BC@??AddIndiInfoFromCfgString@CUserIndicatorList@@QAE_NPAVCIndicatorList@@AAPAD_N@Z@YAXXZ ENDP ; `CUserIndicatorList::AddIndiInfoFromCfgString'::`18'::`dynamic atexit destructor for 'dilBuilder''
text$yd	ENDS
; Function compile flags: /Ogtp
;	COMDAT ??__FdilBuilder@?O@??AddIndiInfoFromCfgString@CUserIndicatorList@@QAE_NPAVCIndicatorList@@AAPAD_N@Z@YAXXZ
text$yd	SEGMENT
??__FdilBuilder@?O@??AddIndiInfoFromCfgString@CUserIndicatorList@@QAE_NPAVCIndicatorList@@AAPAD_N@Z@YAXXZ PROC ; `CUserIndicatorList::AddIndiInfoFromCfgString'::`14'::`dynamic atexit destructor for 'dilBuilder'', COMDAT
  00000	b9 80 00 00 00	 mov	 ecx, OFFSET ?dilBuilder@?O@??AddIndiInfoFromCfgString@CUserIndicatorList@@QAE_NPAVCIndicatorList@@AAPAD_N@Z@4VCUserVer3Dot21TypeIndiListBuilder@@A+128
  00005	e8 00 00 00 00	 call	 ??1CMapStringToPtr@@UAE@XZ ; CMapStringToPtr::~CMapStringToPtr
  0000a	b9 64 00 00 00	 mov	 ecx, OFFSET ?dilBuilder@?O@??AddIndiInfoFromCfgString@CUserIndicatorList@@QAE_NPAVCIndicatorList@@AAPAD_N@Z@4VCUserVer3Dot21TypeIndiListBuilder@@A+100
  0000f	e8 00 00 00 00	 call	 ??1CMapStringToPtr@@UAE@XZ ; CMapStringToPtr::~CMapStringToPtr
  00014	b9 48 00 00 00	 mov	 ecx, OFFSET ?dilBuilder@?O@??AddIndiInfoFromCfgString@CUserIndicatorList@@QAE_NPAVCIndicatorList@@AAPAD_N@Z@4VCUserVer3Dot21TypeIndiListBuilder@@A+72
  00019	e8 00 00 00 00	 call	 ??1CMapStringToPtr@@UAE@XZ ; CMapStringToPtr::~CMapStringToPtr
  0001e	b9 2c 00 00 00	 mov	 ecx, OFFSET ?dilBuilder@?O@??AddIndiInfoFromCfgString@CUserIndicatorList@@QAE_NPAVCIndicatorList@@AAPAD_N@Z@4VCUserVer3Dot21TypeIndiListBuilder@@A+44
  00023	e8 00 00 00 00	 call	 ??1CMapStringToPtr@@UAE@XZ ; CMapStringToPtr::~CMapStringToPtr
  00028	b9 10 00 00 00	 mov	 ecx, OFFSET ?dilBuilder@?O@??AddIndiInfoFromCfgString@CUserIndicatorList@@QAE_NPAVCIndicatorList@@AAPAD_N@Z@4VCUserVer3Dot21TypeIndiListBuilder@@A+16
  0002d	e9 00 00 00 00	 jmp	 ??1CMapStringToString@@UAE@XZ ; CMapStringToString::~CMapStringToString
??__FdilBuilder@?O@??AddIndiInfoFromCfgString@CUserIndicatorList@@QAE_NPAVCIndicatorList@@AAPAD_N@Z@YAXXZ ENDP ; `CUserIndicatorList::AddIndiInfoFromCfgString'::`14'::`dynamic atexit destructor for 'dilBuilder''
text$yd	ENDS
; Function compile flags: /Ogtp
; File C:\Program Files (x86)\Microsoft Visual Studio\2019\Community\VC\Tools\MSVC\14.29.30133\atlmfc\include\afxtempl.h
;	COMDAT ?NewNode@?$CList@PAVCGraphColor@@PAV1@@@IAEPAUCNode@1@PAU21@0@Z
_TEXT	SEGMENT
_pPrev$ = 8						; size = 4
_pNext$ = 12						; size = 4
?NewNode@?$CList@PAVCGraphColor@@PAV1@@@IAEPAUCNode@1@PAU21@0@Z PROC ; CList<CGraphColor *,CGraphColor *>::NewNode, COMDAT
; _this$ = ecx

; 901  : {

  00000	55		 push	 ebp
  00001	8b ec		 mov	 ebp, esp
  00003	56		 push	 esi
  00004	8b f1		 mov	 esi, ecx

; 902  : 	if (m_pNodeFree == NULL)

  00006	83 7e 10 00	 cmp	 DWORD PTR [esi+16], 0
  0000a	75 34		 jne	 SHORT $LN7@NewNode

; 903  : 	{
; 904  : 		// add another block
; 905  : 		CPlex* pNewBlock = CPlex::Create(m_pBlocks, m_nBlockSize,

  0000c	6a 0c		 push	 12			; 0000000cH
  0000e	ff 76 18	 push	 DWORD PTR [esi+24]
  00011	8d 46 14	 lea	 eax, DWORD PTR [esi+20]
  00014	50		 push	 eax
  00015	e8 00 00 00 00	 call	 ?Create@CPlex@@SGPAU1@AAPAU1@II@Z ; CPlex::Create

; 906  : 				 sizeof(CNode));
; 907  : 
; 908  : 		// chain them into free list
; 909  : 		CNode* pNode = (CNode*) pNewBlock->data();
; 910  : 		// free in reverse order to make it easier to debug
; 911  : 		pNode += m_nBlockSize - 1;

  0001a	8b 56 18	 mov	 edx, DWORD PTR [esi+24]
  0001d	83 c0 08	 add	 eax, 8
  00020	8d 0c 52	 lea	 ecx, DWORD PTR [edx+edx*2]
  00023	8d 04 88	 lea	 eax, DWORD PTR [eax+ecx*4]
  00026	83 c0 f4	 add	 eax, -12		; fffffff4H

; 912  : 		for (INT_PTR i = m_nBlockSize-1; i >= 0; i--, pNode--)

  00029	83 c2 ff	 add	 edx, -1
  0002c	78 12		 js	 SHORT $LN7@NewNode
  0002e	66 90		 npad	 2
$LL4@NewNode:

; 913  : 		{
; 914  : 			pNode->pNext = m_pNodeFree;

  00030	8b 4e 10	 mov	 ecx, DWORD PTR [esi+16]
  00033	89 08		 mov	 DWORD PTR [eax], ecx

; 915  : 			m_pNodeFree = pNode;

  00035	89 46 10	 mov	 DWORD PTR [esi+16], eax
  00038	83 e8 0c	 sub	 eax, 12			; 0000000cH
  0003b	83 ea 01	 sub	 edx, 1
  0003e	79 f0		 jns	 SHORT $LL4@NewNode
$LN7@NewNode:

; 916  : 		}
; 917  : 	}
; 918  : 	ENSURE(m_pNodeFree != NULL);  // we must have something

  00040	8b 46 10	 mov	 eax, DWORD PTR [esi+16]
  00043	85 c0		 test	 eax, eax
  00045	74 18		 je	 SHORT $LN17@NewNode

; 919  : 
; 920  : 	CList::CNode* pNode = m_pNodeFree;
; 921  : 	m_pNodeFree = m_pNodeFree->pNext;

  00047	8b 08		 mov	 ecx, DWORD PTR [eax]
  00049	89 4e 10	 mov	 DWORD PTR [esi+16], ecx

; 922  : 	pNode->pPrev = pPrev;

  0004c	8b 4d 08	 mov	 ecx, DWORD PTR _pPrev$[ebp]
  0004f	89 48 04	 mov	 DWORD PTR [eax+4], ecx

; 923  : 	pNode->pNext = pNext;

  00052	8b 4d 0c	 mov	 ecx, DWORD PTR _pNext$[ebp]
  00055	89 08		 mov	 DWORD PTR [eax], ecx

; 924  : 	m_nCount++;

  00057	ff 46 0c	 inc	 DWORD PTR [esi+12]

; 925  : 	ASSERT(m_nCount > 0);  // make sure we don't overflow
; 926  : 
; 927  : #pragma push_macro("new")
; 928  : #undef new
; 929  : 	::new( (void*)( &pNode->data ) ) TYPE;
; 930  : #pragma pop_macro("new")
; 931  : 	return pNode;

  0005a	5e		 pop	 esi

; 932  : }

  0005b	5d		 pop	 ebp
  0005c	c2 08 00	 ret	 8
$LN17@NewNode:

; 916  : 		}
; 917  : 	}
; 918  : 	ENSURE(m_pNodeFree != NULL);  // we must have something

  0005f	e8 00 00 00 00	 call	 ?AfxThrowInvalidArgException@@YGXXZ ; AfxThrowInvalidArgException
$LN15@NewNode:
  00064	cc		 int	 3
?NewNode@?$CList@PAVCGraphColor@@PAV1@@@IAEPAUCNode@1@PAU21@0@Z ENDP ; CList<CGraphColor *,CGraphColor *>::NewNode
_TEXT	ENDS
; Function compile flags: /Ogtp
; File C:\Program Files (x86)\Microsoft Visual Studio\2019\Community\VC\Tools\MSVC\14.29.30133\atlmfc\include\afxtempl.h
;	COMDAT ?RemoveAll@?$CList@PAVCGraphColor@@PAV1@@@QAEXXZ
_TEXT	SEGMENT
?RemoveAll@?$CList@PAVCGraphColor@@PAV1@@@QAEXXZ PROC	; CList<CGraphColor *,CGraphColor *>::RemoveAll, COMDAT
; _this$ = ecx

; 862  : {

  00000	56		 push	 esi
  00001	8b f1		 mov	 esi, ecx

; 863  : 	ASSERT_VALID(this);
; 864  : 
; 865  : 	// destroy elements
; 866  : 	CNode* pNode;
; 867  : 	for (pNode = m_pNodeHead; pNode != NULL; pNode = pNode->pNext)
; 868  : 		pNode->data.~TYPE();
; 869  : 
; 870  : 	m_nCount = 0;
; 871  : 	m_pNodeHead = m_pNodeTail = m_pNodeFree = NULL;
; 872  : 	m_pBlocks->FreeDataChain();

  00003	8b 4e 14	 mov	 ecx, DWORD PTR [esi+20]
  00006	c7 46 0c 00 00
	00 00		 mov	 DWORD PTR [esi+12], 0
  0000d	c7 46 10 00 00
	00 00		 mov	 DWORD PTR [esi+16], 0
  00014	c7 46 08 00 00
	00 00		 mov	 DWORD PTR [esi+8], 0
  0001b	c7 46 04 00 00
	00 00		 mov	 DWORD PTR [esi+4], 0
  00022	e8 00 00 00 00	 call	 ?FreeDataChain@CPlex@@QAEXXZ ; CPlex::FreeDataChain

; 873  : 	m_pBlocks = NULL;

  00027	c7 46 14 00 00
	00 00		 mov	 DWORD PTR [esi+20], 0
  0002e	5e		 pop	 esi

; 874  : }

  0002f	c3		 ret	 0
?RemoveAll@?$CList@PAVCGraphColor@@PAV1@@@QAEXXZ ENDP	; CList<CGraphColor *,CGraphColor *>::RemoveAll
_TEXT	ENDS
; Function compile flags: /Ogtp
; File C:\Program Files (x86)\Microsoft Visual Studio\2019\Community\VC\Tools\MSVC\14.29.30133\atlmfc\include\afxtempl.h
;	COMDAT ?AddTail@?$CList@PAVCGraphColor@@PAV1@@@QAEPAU__POSITION@@PAVCGraphColor@@@Z
_TEXT	SEGMENT
_newElement$ = 8					; size = 4
?AddTail@?$CList@PAVCGraphColor@@PAV1@@@QAEPAU__POSITION@@PAVCGraphColor@@@Z PROC ; CList<CGraphColor *,CGraphColor *>::AddTail, COMDAT
; _this$ = ecx

; 965  : {

  00000	55		 push	 ebp
  00001	8b ec		 mov	 ebp, esp
  00003	56		 push	 esi
  00004	8b f1		 mov	 esi, ecx
  00006	57		 push	 edi

; 902  : 	if (m_pNodeFree == NULL)

  00007	83 7e 10 00	 cmp	 DWORD PTR [esi+16], 0

; 966  : 	ASSERT_VALID(this);
; 967  : 
; 968  : 	CNode* pNewNode = NewNode(m_pNodeTail, NULL);

  0000b	8b 7e 08	 mov	 edi, DWORD PTR [esi+8]

; 902  : 	if (m_pNodeFree == NULL)

  0000e	75 32		 jne	 SHORT $LN11@AddTail

; 903  : 	{
; 904  : 		// add another block
; 905  : 		CPlex* pNewBlock = CPlex::Create(m_pBlocks, m_nBlockSize,

  00010	6a 0c		 push	 12			; 0000000cH
  00012	ff 76 18	 push	 DWORD PTR [esi+24]
  00015	8d 46 14	 lea	 eax, DWORD PTR [esi+20]
  00018	50		 push	 eax
  00019	e8 00 00 00 00	 call	 ?Create@CPlex@@SGPAU1@AAPAU1@II@Z ; CPlex::Create

; 906  : 				 sizeof(CNode));
; 907  : 
; 908  : 		// chain them into free list
; 909  : 		CNode* pNode = (CNode*) pNewBlock->data();
; 910  : 		// free in reverse order to make it easier to debug
; 911  : 		pNode += m_nBlockSize - 1;

  0001e	8b 56 18	 mov	 edx, DWORD PTR [esi+24]
  00021	83 c0 08	 add	 eax, 8
  00024	8d 4a ff	 lea	 ecx, DWORD PTR [edx-1]

; 912  : 		for (INT_PTR i = m_nBlockSize-1; i >= 0; i--, pNode--)

  00027	83 c2 ff	 add	 edx, -1
  0002a	8d 0c 49	 lea	 ecx, DWORD PTR [ecx+ecx*2]
  0002d	8d 0c 88	 lea	 ecx, DWORD PTR [eax+ecx*4]
  00030	78 10		 js	 SHORT $LN11@AddTail
$LL8@AddTail:

; 913  : 		{
; 914  : 			pNode->pNext = m_pNodeFree;

  00032	8b 46 10	 mov	 eax, DWORD PTR [esi+16]
  00035	89 01		 mov	 DWORD PTR [ecx], eax

; 915  : 			m_pNodeFree = pNode;

  00037	89 4e 10	 mov	 DWORD PTR [esi+16], ecx
  0003a	83 e9 0c	 sub	 ecx, 12			; 0000000cH
  0003d	83 ea 01	 sub	 edx, 1
  00040	79 f0		 jns	 SHORT $LL8@AddTail
$LN11@AddTail:

; 916  : 		}
; 917  : 	}
; 918  : 	ENSURE(m_pNodeFree != NULL);  // we must have something

  00042	8b 4e 10	 mov	 ecx, DWORD PTR [esi+16]
  00045	85 c9		 test	 ecx, ecx
  00047	74 39		 je	 SHORT $LN22@AddTail

; 919  : 
; 920  : 	CList::CNode* pNode = m_pNodeFree;
; 921  : 	m_pNodeFree = m_pNodeFree->pNext;

  00049	8b 01		 mov	 eax, DWORD PTR [ecx]
  0004b	89 46 10	 mov	 DWORD PTR [esi+16], eax

; 969  : 	pNewNode->data = newElement;

  0004e	8b 45 08	 mov	 eax, DWORD PTR _newElement$[ebp]

; 922  : 	pNode->pPrev = pPrev;

  00051	89 79 04	 mov	 DWORD PTR [ecx+4], edi

; 923  : 	pNode->pNext = pNext;

  00054	c7 01 00 00 00
	00		 mov	 DWORD PTR [ecx], 0

; 924  : 	m_nCount++;

  0005a	ff 46 0c	 inc	 DWORD PTR [esi+12]

; 969  : 	pNewNode->data = newElement;

  0005d	89 41 08	 mov	 DWORD PTR [ecx+8], eax

; 970  : 	if (m_pNodeTail != NULL)

  00060	8b 46 08	 mov	 eax, DWORD PTR [esi+8]
  00063	85 c0		 test	 eax, eax
  00065	74 0d		 je	 SHORT $LN2@AddTail

; 971  : 		m_pNodeTail->pNext = pNewNode;

  00067	89 08		 mov	 DWORD PTR [eax], ecx

; 972  : 	else
; 973  : 		m_pNodeHead = pNewNode;
; 974  : 	m_pNodeTail = pNewNode;
; 975  : 	return (POSITION) pNewNode;

  00069	8b c1		 mov	 eax, ecx
  0006b	5f		 pop	 edi
  0006c	89 4e 08	 mov	 DWORD PTR [esi+8], ecx
  0006f	5e		 pop	 esi

; 976  : }

  00070	5d		 pop	 ebp
  00071	c2 04 00	 ret	 4
$LN2@AddTail:

; 972  : 	else
; 973  : 		m_pNodeHead = pNewNode;
; 974  : 	m_pNodeTail = pNewNode;
; 975  : 	return (POSITION) pNewNode;

  00074	5f		 pop	 edi
  00075	89 4e 04	 mov	 DWORD PTR [esi+4], ecx
  00078	8b c1		 mov	 eax, ecx
  0007a	89 4e 08	 mov	 DWORD PTR [esi+8], ecx
  0007d	5e		 pop	 esi

; 976  : }

  0007e	5d		 pop	 ebp
  0007f	c2 04 00	 ret	 4
$LN22@AddTail:

; 918  : 	ENSURE(m_pNodeFree != NULL);  // we must have something

  00082	e8 00 00 00 00	 call	 ?AfxThrowInvalidArgException@@YGXXZ ; AfxThrowInvalidArgException
$LN20@AddTail:
  00087	cc		 int	 3
?AddTail@?$CList@PAVCGraphColor@@PAV1@@@QAEPAU__POSITION@@PAVCGraphColor@@@Z ENDP ; CList<CGraphColor *,CGraphColor *>::AddTail
_TEXT	ENDS
; Function compile flags: /Ogtp
; File C:\Program Files (x86)\Microsoft Visual Studio\2019\Community\VC\Tools\MSVC\14.29.30133\atlmfc\include\afxtempl.h
;	COMDAT ?NewNode@?$CList@PAVCSubGraphData@@PAV1@@@IAEPAUCNode@1@PAU21@0@Z
_TEXT	SEGMENT
_pPrev$ = 8						; size = 4
_pNext$ = 12						; size = 4
?NewNode@?$CList@PAVCSubGraphData@@PAV1@@@IAEPAUCNode@1@PAU21@0@Z PROC ; CList<CSubGraphData *,CSubGraphData *>::NewNode, COMDAT
; _this$ = ecx

; 901  : {

  00000	55		 push	 ebp
  00001	8b ec		 mov	 ebp, esp
  00003	56		 push	 esi
  00004	8b f1		 mov	 esi, ecx

; 902  : 	if (m_pNodeFree == NULL)

  00006	83 7e 10 00	 cmp	 DWORD PTR [esi+16], 0
  0000a	75 34		 jne	 SHORT $LN7@NewNode

; 903  : 	{
; 904  : 		// add another block
; 905  : 		CPlex* pNewBlock = CPlex::Create(m_pBlocks, m_nBlockSize,

  0000c	6a 0c		 push	 12			; 0000000cH
  0000e	ff 76 18	 push	 DWORD PTR [esi+24]
  00011	8d 46 14	 lea	 eax, DWORD PTR [esi+20]
  00014	50		 push	 eax
  00015	e8 00 00 00 00	 call	 ?Create@CPlex@@SGPAU1@AAPAU1@II@Z ; CPlex::Create

; 906  : 				 sizeof(CNode));
; 907  : 
; 908  : 		// chain them into free list
; 909  : 		CNode* pNode = (CNode*) pNewBlock->data();
; 910  : 		// free in reverse order to make it easier to debug
; 911  : 		pNode += m_nBlockSize - 1;

  0001a	8b 56 18	 mov	 edx, DWORD PTR [esi+24]
  0001d	83 c0 08	 add	 eax, 8
  00020	8d 0c 52	 lea	 ecx, DWORD PTR [edx+edx*2]
  00023	8d 04 88	 lea	 eax, DWORD PTR [eax+ecx*4]
  00026	83 c0 f4	 add	 eax, -12		; fffffff4H

; 912  : 		for (INT_PTR i = m_nBlockSize-1; i >= 0; i--, pNode--)

  00029	83 c2 ff	 add	 edx, -1
  0002c	78 12		 js	 SHORT $LN7@NewNode
  0002e	66 90		 npad	 2
$LL4@NewNode:

; 913  : 		{
; 914  : 			pNode->pNext = m_pNodeFree;

  00030	8b 4e 10	 mov	 ecx, DWORD PTR [esi+16]
  00033	89 08		 mov	 DWORD PTR [eax], ecx

; 915  : 			m_pNodeFree = pNode;

  00035	89 46 10	 mov	 DWORD PTR [esi+16], eax
  00038	83 e8 0c	 sub	 eax, 12			; 0000000cH
  0003b	83 ea 01	 sub	 edx, 1
  0003e	79 f0		 jns	 SHORT $LL4@NewNode
$LN7@NewNode:

; 916  : 		}
; 917  : 	}
; 918  : 	ENSURE(m_pNodeFree != NULL);  // we must have something

  00040	8b 46 10	 mov	 eax, DWORD PTR [esi+16]
  00043	85 c0		 test	 eax, eax
  00045	74 18		 je	 SHORT $LN17@NewNode

; 919  : 
; 920  : 	CList::CNode* pNode = m_pNodeFree;
; 921  : 	m_pNodeFree = m_pNodeFree->pNext;

  00047	8b 08		 mov	 ecx, DWORD PTR [eax]
  00049	89 4e 10	 mov	 DWORD PTR [esi+16], ecx

; 922  : 	pNode->pPrev = pPrev;

  0004c	8b 4d 08	 mov	 ecx, DWORD PTR _pPrev$[ebp]
  0004f	89 48 04	 mov	 DWORD PTR [eax+4], ecx

; 923  : 	pNode->pNext = pNext;

  00052	8b 4d 0c	 mov	 ecx, DWORD PTR _pNext$[ebp]
  00055	89 08		 mov	 DWORD PTR [eax], ecx

; 924  : 	m_nCount++;

  00057	ff 46 0c	 inc	 DWORD PTR [esi+12]

; 925  : 	ASSERT(m_nCount > 0);  // make sure we don't overflow
; 926  : 
; 927  : #pragma push_macro("new")
; 928  : #undef new
; 929  : 	::new( (void*)( &pNode->data ) ) TYPE;
; 930  : #pragma pop_macro("new")
; 931  : 	return pNode;

  0005a	5e		 pop	 esi

; 932  : }

  0005b	5d		 pop	 ebp
  0005c	c2 08 00	 ret	 8
$LN17@NewNode:

; 916  : 		}
; 917  : 	}
; 918  : 	ENSURE(m_pNodeFree != NULL);  // we must have something

  0005f	e8 00 00 00 00	 call	 ?AfxThrowInvalidArgException@@YGXXZ ; AfxThrowInvalidArgException
$LN15@NewNode:
  00064	cc		 int	 3
?NewNode@?$CList@PAVCSubGraphData@@PAV1@@@IAEPAUCNode@1@PAU21@0@Z ENDP ; CList<CSubGraphData *,CSubGraphData *>::NewNode
_TEXT	ENDS
; Function compile flags: /Ogtp
; File C:\Program Files (x86)\Microsoft Visual Studio\2019\Community\VC\Tools\MSVC\14.29.30133\atlmfc\include\afxtempl.h
;	COMDAT ?AddTail@?$CList@PAVCSubGraphData@@PAV1@@@QAEPAU__POSITION@@PAVCSubGraphData@@@Z
_TEXT	SEGMENT
_newElement$ = 8					; size = 4
?AddTail@?$CList@PAVCSubGraphData@@PAV1@@@QAEPAU__POSITION@@PAVCSubGraphData@@@Z PROC ; CList<CSubGraphData *,CSubGraphData *>::AddTail, COMDAT
; _this$ = ecx

; 965  : {

  00000	55		 push	 ebp
  00001	8b ec		 mov	 ebp, esp
  00003	56		 push	 esi
  00004	8b f1		 mov	 esi, ecx
  00006	57		 push	 edi

; 902  : 	if (m_pNodeFree == NULL)

  00007	83 7e 10 00	 cmp	 DWORD PTR [esi+16], 0

; 966  : 	ASSERT_VALID(this);
; 967  : 
; 968  : 	CNode* pNewNode = NewNode(m_pNodeTail, NULL);

  0000b	8b 7e 08	 mov	 edi, DWORD PTR [esi+8]

; 902  : 	if (m_pNodeFree == NULL)

  0000e	75 32		 jne	 SHORT $LN11@AddTail

; 903  : 	{
; 904  : 		// add another block
; 905  : 		CPlex* pNewBlock = CPlex::Create(m_pBlocks, m_nBlockSize,

  00010	6a 0c		 push	 12			; 0000000cH
  00012	ff 76 18	 push	 DWORD PTR [esi+24]
  00015	8d 46 14	 lea	 eax, DWORD PTR [esi+20]
  00018	50		 push	 eax
  00019	e8 00 00 00 00	 call	 ?Create@CPlex@@SGPAU1@AAPAU1@II@Z ; CPlex::Create

; 906  : 				 sizeof(CNode));
; 907  : 
; 908  : 		// chain them into free list
; 909  : 		CNode* pNode = (CNode*) pNewBlock->data();
; 910  : 		// free in reverse order to make it easier to debug
; 911  : 		pNode += m_nBlockSize - 1;

  0001e	8b 56 18	 mov	 edx, DWORD PTR [esi+24]
  00021	83 c0 08	 add	 eax, 8
  00024	8d 4a ff	 lea	 ecx, DWORD PTR [edx-1]

; 912  : 		for (INT_PTR i = m_nBlockSize-1; i >= 0; i--, pNode--)

  00027	83 c2 ff	 add	 edx, -1
  0002a	8d 0c 49	 lea	 ecx, DWORD PTR [ecx+ecx*2]
  0002d	8d 0c 88	 lea	 ecx, DWORD PTR [eax+ecx*4]
  00030	78 10		 js	 SHORT $LN11@AddTail
$LL8@AddTail:

; 913  : 		{
; 914  : 			pNode->pNext = m_pNodeFree;

  00032	8b 46 10	 mov	 eax, DWORD PTR [esi+16]
  00035	89 01		 mov	 DWORD PTR [ecx], eax

; 915  : 			m_pNodeFree = pNode;

  00037	89 4e 10	 mov	 DWORD PTR [esi+16], ecx
  0003a	83 e9 0c	 sub	 ecx, 12			; 0000000cH
  0003d	83 ea 01	 sub	 edx, 1
  00040	79 f0		 jns	 SHORT $LL8@AddTail
$LN11@AddTail:

; 916  : 		}
; 917  : 	}
; 918  : 	ENSURE(m_pNodeFree != NULL);  // we must have something

  00042	8b 4e 10	 mov	 ecx, DWORD PTR [esi+16]
  00045	85 c9		 test	 ecx, ecx
  00047	74 39		 je	 SHORT $LN22@AddTail

; 919  : 
; 920  : 	CList::CNode* pNode = m_pNodeFree;
; 921  : 	m_pNodeFree = m_pNodeFree->pNext;

  00049	8b 01		 mov	 eax, DWORD PTR [ecx]
  0004b	89 46 10	 mov	 DWORD PTR [esi+16], eax

; 969  : 	pNewNode->data = newElement;

  0004e	8b 45 08	 mov	 eax, DWORD PTR _newElement$[ebp]

; 922  : 	pNode->pPrev = pPrev;

  00051	89 79 04	 mov	 DWORD PTR [ecx+4], edi

; 923  : 	pNode->pNext = pNext;

  00054	c7 01 00 00 00
	00		 mov	 DWORD PTR [ecx], 0

; 924  : 	m_nCount++;

  0005a	ff 46 0c	 inc	 DWORD PTR [esi+12]

; 969  : 	pNewNode->data = newElement;

  0005d	89 41 08	 mov	 DWORD PTR [ecx+8], eax

; 970  : 	if (m_pNodeTail != NULL)

  00060	8b 46 08	 mov	 eax, DWORD PTR [esi+8]
  00063	85 c0		 test	 eax, eax
  00065	74 0d		 je	 SHORT $LN2@AddTail

; 971  : 		m_pNodeTail->pNext = pNewNode;

  00067	89 08		 mov	 DWORD PTR [eax], ecx

; 972  : 	else
; 973  : 		m_pNodeHead = pNewNode;
; 974  : 	m_pNodeTail = pNewNode;
; 975  : 	return (POSITION) pNewNode;

  00069	8b c1		 mov	 eax, ecx
  0006b	5f		 pop	 edi
  0006c	89 4e 08	 mov	 DWORD PTR [esi+8], ecx
  0006f	5e		 pop	 esi

; 976  : }

  00070	5d		 pop	 ebp
  00071	c2 04 00	 ret	 4
$LN2@AddTail:

; 972  : 	else
; 973  : 		m_pNodeHead = pNewNode;
; 974  : 	m_pNodeTail = pNewNode;
; 975  : 	return (POSITION) pNewNode;

  00074	5f		 pop	 edi
  00075	89 4e 04	 mov	 DWORD PTR [esi+4], ecx
  00078	8b c1		 mov	 eax, ecx
  0007a	89 4e 08	 mov	 DWORD PTR [esi+8], ecx
  0007d	5e		 pop	 esi

; 976  : }

  0007e	5d		 pop	 ebp
  0007f	c2 04 00	 ret	 4
$LN22@AddTail:

; 918  : 	ENSURE(m_pNodeFree != NULL);  // we must have something

  00082	e8 00 00 00 00	 call	 ?AfxThrowInvalidArgException@@YGXXZ ; AfxThrowInvalidArgException
$LN20@AddTail:
  00087	cc		 int	 3
?AddTail@?$CList@PAVCSubGraphData@@PAV1@@@QAEPAU__POSITION@@PAVCSubGraphData@@@Z ENDP ; CList<CSubGraphData *,CSubGraphData *>::AddTail
_TEXT	ENDS
; Function compile flags: /Ogtp
;	COMDAT ??1CNotDefaultUserTypeIndiListBuilder@@QAE@XZ
_TEXT	SEGMENT
??1CNotDefaultUserTypeIndiListBuilder@@QAE@XZ PROC	; CNotDefaultUserTypeIndiListBuilder::~CNotDefaultUserTypeIndiListBuilder, COMDAT
; _this$ = ecx
  00000	83 c1 10	 add	 ecx, 16			; 00000010H
  00003	e9 00 00 00 00	 jmp	 ??1CMapStringToString@@UAE@XZ ; CMapStringToString::~CMapStringToString
??1CNotDefaultUserTypeIndiListBuilder@@QAE@XZ ENDP	; CNotDefaultUserTypeIndiListBuilder::~CNotDefaultUserTypeIndiListBuilder
_TEXT	ENDS
; Function compile flags: /Ogtp
;	COMDAT ??_ECIndicatorGroupDataList@@UAEPAXI@Z
_TEXT	SEGMENT
__$EHRec$ = -12						; size = 12
___flags$ = 8						; size = 4
??_ECIndicatorGroupDataList@@UAEPAXI@Z PROC		; CIndicatorGroupDataList::`vector deleting destructor', COMDAT
; _this$ = ecx
  00000	55		 push	 ebp
  00001	8b ec		 mov	 ebp, esp
  00003	6a ff		 push	 -1
  00005	68 00 00 00 00	 push	 __ehhandler$??_ECIndicatorGroupDataList@@UAEPAXI@Z
  0000a	64 a1 00 00 00
	00		 mov	 eax, DWORD PTR fs:0
  00010	50		 push	 eax
  00011	53		 push	 ebx
  00012	56		 push	 esi
  00013	57		 push	 edi
  00014	a1 00 00 00 00	 mov	 eax, DWORD PTR ___security_cookie
  00019	33 c5		 xor	 eax, ebp
  0001b	50		 push	 eax
  0001c	8d 45 f4	 lea	 eax, DWORD PTR __$EHRec$[ebp]
  0001f	64 a3 00 00 00
	00		 mov	 DWORD PTR fs:0, eax
  00025	8b f1		 mov	 esi, ecx
  00027	8b 45 08	 mov	 eax, DWORD PTR ___flags$[ebp]
  0002a	8b d8		 mov	 ebx, eax
  0002c	83 e3 01	 and	 ebx, 1
  0002f	a8 02		 test	 al, 2
  00031	74 3f		 je	 SHORT $LN2@vector
  00033	68 00 00 00 00	 push	 OFFSET ??1CIndicatorGroupDataList@@UAE@XZ ; CIndicatorGroupDataList::~CIndicatorGroupDataList
  00038	ff 76 fc	 push	 DWORD PTR [esi-4]
  0003b	8d 7e fc	 lea	 edi, DWORD PTR [esi-4]
  0003e	6a 20		 push	 32			; 00000020H
  00040	56		 push	 esi
  00041	e8 00 00 00 00	 call	 ??_M@YGXPAXIIP6EX0@Z@Z
  00046	85 db		 test	 ebx, ebx
  00048	74 12		 je	 SHORT $LN3@vector
  0004a	8b 0f		 mov	 ecx, DWORD PTR [edi]
  0004c	c1 e1 05	 shl	 ecx, 5
  0004f	83 c1 04	 add	 ecx, 4
  00052	51		 push	 ecx
  00053	57		 push	 edi
  00054	e8 00 00 00 00	 call	 ??_V@YAXPAXI@Z		; operator delete[]
  00059	83 c4 08	 add	 esp, 8
$LN3@vector:
  0005c	8b c7		 mov	 eax, edi
  0005e	8b 4d f4	 mov	 ecx, DWORD PTR __$EHRec$[ebp]
  00061	64 89 0d 00 00
	00 00		 mov	 DWORD PTR fs:0, ecx
  00068	59		 pop	 ecx
  00069	5f		 pop	 edi
  0006a	5e		 pop	 esi
  0006b	5b		 pop	 ebx
  0006c	8b e5		 mov	 esp, ebp
  0006e	5d		 pop	 ebp
  0006f	c2 04 00	 ret	 4
$LN2@vector:
  00072	e8 00 00 00 00	 call	 ??1CIndicatorGroupDataList@@UAE@XZ ; CIndicatorGroupDataList::~CIndicatorGroupDataList
  00077	85 db		 test	 ebx, ebx
  00079	74 0b		 je	 SHORT $LN4@vector
  0007b	6a 20		 push	 32			; 00000020H
  0007d	56		 push	 esi
  0007e	e8 00 00 00 00	 call	 ??3@YAXPAXI@Z		; operator delete
  00083	83 c4 08	 add	 esp, 8
$LN4@vector:
  00086	8b c6		 mov	 eax, esi
  00088	8b 4d f4	 mov	 ecx, DWORD PTR __$EHRec$[ebp]
  0008b	64 89 0d 00 00
	00 00		 mov	 DWORD PTR fs:0, ecx
  00092	59		 pop	 ecx
  00093	5f		 pop	 edi
  00094	5e		 pop	 esi
  00095	5b		 pop	 ebx
  00096	8b e5		 mov	 esp, ebp
  00098	5d		 pop	 ebp
  00099	c2 04 00	 ret	 4
  0009c	cc		 int	 3
  0009d	cc		 int	 3
  0009e	cc		 int	 3
  0009f	cc		 int	 3
  000a0	cc		 int	 3
_TEXT	ENDS
;	COMDAT text$x
text$x	SEGMENT
__ehhandler$??_ECIndicatorGroupDataList@@UAEPAXI@Z:
  00000	90		 npad	 1
  00001	90		 npad	 1
  00002	8b 54 24 08	 mov	 edx, DWORD PTR [esp+8]
  00006	8d 42 0c	 lea	 eax, DWORD PTR [edx+12]
  00009	8b 4a f0	 mov	 ecx, DWORD PTR [edx-16]
  0000c	33 c8		 xor	 ecx, eax
  0000e	e8 00 00 00 00	 call	 @__security_check_cookie@4
  00013	b8 00 00 00 00	 mov	 eax, OFFSET __ehfuncinfo$??_ECIndicatorGroupDataList@@UAEPAXI@Z
  00018	e9 00 00 00 00	 jmp	 ___CxxFrameHandler3
text$x	ENDS
??_ECIndicatorGroupDataList@@UAEPAXI@Z ENDP		; CIndicatorGroupDataList::`vector deleting destructor'
; Function compile flags: /Ogtp
;	COMDAT ??_GCIndicatorGroupDataList@@UAEPAXI@Z
_TEXT	SEGMENT
___flags$ = 8						; size = 4
??_GCIndicatorGroupDataList@@UAEPAXI@Z PROC		; CIndicatorGroupDataList::`scalar deleting destructor', COMDAT
; _this$ = ecx
  00000	55		 push	 ebp
  00001	8b ec		 mov	 ebp, esp
  00003	56		 push	 esi
  00004	8b f1		 mov	 esi, ecx
  00006	e8 00 00 00 00	 call	 ??1CIndicatorGroupDataList@@UAE@XZ ; CIndicatorGroupDataList::~CIndicatorGroupDataList
  0000b	f6 45 08 01	 test	 BYTE PTR ___flags$[ebp], 1
  0000f	74 0b		 je	 SHORT $LN4@scalar
  00011	6a 20		 push	 32			; 00000020H
  00013	56		 push	 esi
  00014	e8 00 00 00 00	 call	 ??3@YAXPAXI@Z		; operator delete
  00019	83 c4 08	 add	 esp, 8
$LN4@scalar:
  0001c	8b c6		 mov	 eax, esi
  0001e	5e		 pop	 esi
  0001f	5d		 pop	 ebp
  00020	c2 04 00	 ret	 4
??_GCIndicatorGroupDataList@@UAEPAXI@Z ENDP		; CIndicatorGroupDataList::`scalar deleting destructor'
_TEXT	ENDS
; Function compile flags: /Ogtp
; File C:\Program Files (x86)\Microsoft Visual Studio\2019\Community\VC\Tools\MSVC\14.29.30133\atlmfc\include\afxtempl.h
;	COMDAT ??0CIndicatorGroupDataList@@QAE@XZ
_TEXT	SEGMENT
_this$ = -4						; size = 4
??0CIndicatorGroupDataList@@QAE@XZ PROC			; CIndicatorGroupDataList::CIndicatorGroupDataList, COMDAT
; _this$ = ecx
  00000	55		 push	 ebp
  00001	8b ec		 mov	 ebp, esp
  00003	51		 push	 ecx
  00004	c7 01 00 00 00
	00		 mov	 DWORD PTR [ecx], OFFSET ??_7CIndicatorGroupDataList@@6B@
  0000a	8b c1		 mov	 eax, ecx
  0000c	89 4d fc	 mov	 DWORD PTR _this$[ebp], ecx

; 851  : {

  0000f	c7 41 04 00 00
	00 00		 mov	 DWORD PTR [ecx+4], OFFSET ??_7?$CList@PAVCIndicatorGroupData@@PAV1@@@6B@

; 852  : 	ASSERT(nBlockSize > 0);
; 853  : 
; 854  : 	m_nCount = 0;

  00016	c7 41 10 00 00
	00 00		 mov	 DWORD PTR [ecx+16], 0

; 855  : 	m_pNodeHead = m_pNodeTail = m_pNodeFree = NULL;

  0001d	c7 41 14 00 00
	00 00		 mov	 DWORD PTR [ecx+20], 0
  00024	c7 41 0c 00 00
	00 00		 mov	 DWORD PTR [ecx+12], 0
  0002b	c7 41 08 00 00
	00 00		 mov	 DWORD PTR [ecx+8], 0

; 856  : 	m_pBlocks = NULL;

  00032	c7 41 18 00 00
	00 00		 mov	 DWORD PTR [ecx+24], 0

; 857  : 	m_nBlockSize = nBlockSize;

  00039	c7 41 1c 0a 00
	00 00		 mov	 DWORD PTR [ecx+28], 10	; 0000000aH
  00040	8b e5		 mov	 esp, ebp
  00042	5d		 pop	 ebp
  00043	c3		 ret	 0
??0CIndicatorGroupDataList@@QAE@XZ ENDP			; CIndicatorGroupDataList::CIndicatorGroupDataList
_TEXT	ENDS
; Function compile flags: /Ogtp
; File C:\Program Files (x86)\Microsoft Visual Studio\2019\Community\VC\Tools\MSVC\14.29.30133\atlmfc\include\afxtempl.h
; File C:\Program Files (x86)\Microsoft Visual Studio\2019\Community\VC\Tools\MSVC\14.29.30133\atlmfc\include\afx.inl
;	COMDAT ??_G?$CList@PAVCIndicatorGroupData@@PAV1@@@UAEPAXI@Z
_TEXT	SEGMENT
__$EHRec$ = -12						; size = 12
___flags$ = 8						; size = 4
??_G?$CList@PAVCIndicatorGroupData@@PAV1@@@UAEPAXI@Z PROC ; CList<CIndicatorGroupData *,CIndicatorGroupData *>::`scalar deleting destructor', COMDAT
; _this$ = ecx
  00000	55		 push	 ebp
  00001	8b ec		 mov	 ebp, esp
  00003	6a ff		 push	 -1
  00005	68 00 00 00 00	 push	 __ehhandler$??_G?$CList@PAVCIndicatorGroupData@@PAV1@@@UAEPAXI@Z
  0000a	64 a1 00 00 00
	00		 mov	 eax, DWORD PTR fs:0
  00010	50		 push	 eax
  00011	56		 push	 esi
  00012	a1 00 00 00 00	 mov	 eax, DWORD PTR ___security_cookie
  00017	33 c5		 xor	 eax, ebp
  00019	50		 push	 eax
  0001a	8d 45 f4	 lea	 eax, DWORD PTR __$EHRec$[ebp]
  0001d	64 a3 00 00 00
	00		 mov	 DWORD PTR fs:0, eax
  00023	8b f1		 mov	 esi, ecx
; File C:\Program Files (x86)\Microsoft Visual Studio\2019\Community\VC\Tools\MSVC\14.29.30133\atlmfc\include\afxtempl.h

; 872  : 	m_pBlocks->FreeDataChain();

  00025	8b 4e 14	 mov	 ecx, DWORD PTR [esi+20]

; 878  : {

  00028	c7 45 fc 00 00
	00 00		 mov	 DWORD PTR __$EHRec$[ebp+8], 0
  0002f	c7 06 00 00 00
	00		 mov	 DWORD PTR [esi], OFFSET ??_7?$CList@PAVCIndicatorGroupData@@PAV1@@@6B@

; 870  : 	m_nCount = 0;

  00035	c7 46 0c 00 00
	00 00		 mov	 DWORD PTR [esi+12], 0

; 871  : 	m_pNodeHead = m_pNodeTail = m_pNodeFree = NULL;

  0003c	c7 46 10 00 00
	00 00		 mov	 DWORD PTR [esi+16], 0
  00043	c7 46 08 00 00
	00 00		 mov	 DWORD PTR [esi+8], 0
  0004a	c7 46 04 00 00
	00 00		 mov	 DWORD PTR [esi+4], 0

; 872  : 	m_pBlocks->FreeDataChain();

  00051	e8 00 00 00 00	 call	 ?FreeDataChain@CPlex@@QAEXXZ ; CPlex::FreeDataChain

; 873  : 	m_pBlocks = NULL;

  00056	8b 45 08	 mov	 eax, DWORD PTR ___flags$[ebp]
  00059	c7 46 14 00 00
	00 00		 mov	 DWORD PTR [esi+20], 0
  00060	a8 01		 test	 al, 1
  00062	74 2c		 je	 SHORT $LN22@scalar
  00064	a8 04		 test	 al, 4
  00066	75 1d		 jne	 SHORT $LN3@scalar
; File C:\Program Files (x86)\Microsoft Visual Studio\2019\Community\VC\Tools\MSVC\14.29.30133\atlmfc\include\afx.inl

; 112  : 	{ ::operator delete(p); }

  00068	56		 push	 esi
  00069	e8 00 00 00 00	 call	 ??3@YAXPAX@Z		; operator delete
  0006e	83 c4 04	 add	 esp, 4
  00071	8b c6		 mov	 eax, esi
  00073	8b 4d f4	 mov	 ecx, DWORD PTR __$EHRec$[ebp]
  00076	64 89 0d 00 00
	00 00		 mov	 DWORD PTR fs:0, ecx
  0007d	59		 pop	 ecx
  0007e	5e		 pop	 esi
  0007f	8b e5		 mov	 esp, ebp
  00081	5d		 pop	 ebp
  00082	c2 04 00	 ret	 4
$LN3@scalar:
  00085	6a 1c		 push	 28			; 0000001cH
  00087	56		 push	 esi
  00088	e8 00 00 00 00	 call	 ?__global_delete@@YAXPAXI@Z ; __global_delete
  0008d	83 c4 08	 add	 esp, 8
$LN22@scalar:
  00090	8b c6		 mov	 eax, esi
  00092	8b 4d f4	 mov	 ecx, DWORD PTR __$EHRec$[ebp]
  00095	64 89 0d 00 00
	00 00		 mov	 DWORD PTR fs:0, ecx
  0009c	59		 pop	 ecx
  0009d	5e		 pop	 esi
  0009e	8b e5		 mov	 esp, ebp
  000a0	5d		 pop	 ebp
  000a1	c2 04 00	 ret	 4
  000a4	cc		 int	 3
  000a5	cc		 int	 3
  000a6	cc		 int	 3
  000a7	cc		 int	 3
  000a8	cc		 int	 3
_TEXT	ENDS
;	COMDAT text$x
text$x	SEGMENT
__ehhandler$??_G?$CList@PAVCIndicatorGroupData@@PAV1@@@UAEPAXI@Z:
  00000	90		 npad	 1
  00001	90		 npad	 1
  00002	8b 54 24 08	 mov	 edx, DWORD PTR [esp+8]
  00006	8d 42 0c	 lea	 eax, DWORD PTR [edx+12]
  00009	8b 4a f8	 mov	 ecx, DWORD PTR [edx-8]
  0000c	33 c8		 xor	 ecx, eax
  0000e	e8 00 00 00 00	 call	 @__security_check_cookie@4
  00013	b8 00 00 00 00	 mov	 eax, OFFSET __ehfuncinfo$??_G?$CList@PAVCIndicatorGroupData@@PAV1@@@UAEPAXI@Z
  00018	e9 00 00 00 00	 jmp	 ___CxxFrameHandler3
text$x	ENDS
??_G?$CList@PAVCIndicatorGroupData@@PAV1@@@UAEPAXI@Z ENDP ; CList<CIndicatorGroupData *,CIndicatorGroupData *>::`scalar deleting destructor'
; Function compile flags: /Ogtp
; File C:\Program Files (x86)\Microsoft Visual Studio\2019\Community\VC\Tools\MSVC\14.29.30133\atlmfc\include\afxtempl.h
; File C:\Program Files (x86)\Microsoft Visual Studio\2019\Community\VC\Tools\MSVC\14.29.30133\atlmfc\include\afx.inl
; File C:\Program Files (x86)\Microsoft Visual Studio\2019\Community\VC\Tools\MSVC\14.29.30133\atlmfc\include\afxtempl.h
; File C:\Program Files (x86)\Microsoft Visual Studio\2019\Community\VC\Tools\MSVC\14.29.30133\atlmfc\include\afx.inl
; File C:\Program Files (x86)\Microsoft Visual Studio\2019\Community\VC\Tools\MSVC\14.29.30133\atlmfc\include\afxtempl.h
; File C:\Program Files (x86)\Microsoft Visual Studio\2019\Community\VC\Tools\MSVC\14.29.30133\atlmfc\include\afx.inl
; File C:\Program Files (x86)\Microsoft Visual Studio\2019\Community\VC\Tools\MSVC\14.29.30133\atlmfc\include\afxtempl.h
; File C:\Program Files (x86)\Microsoft Visual Studio\2019\Community\VC\Tools\MSVC\14.29.30133\atlmfc\include\afx.inl
; File C:\Program Files (x86)\Microsoft Visual Studio\2019\Community\VC\Tools\MSVC\14.29.30133\atlmfc\include\afxtempl.h
; File C:\Program Files (x86)\Microsoft Visual Studio\2019\Community\VC\Tools\MSVC\14.29.30133\atlmfc\include\afx.inl
; File C:\Program Files (x86)\Microsoft Visual Studio\2019\Community\VC\Tools\MSVC\14.29.30133\atlmfc\include\afxtempl.h
; File C:\Program Files (x86)\Microsoft Visual Studio\2019\Community\VC\Tools\MSVC\14.29.30133\atlmfc\include\afx.inl
; File C:\Program Files (x86)\Microsoft Visual Studio\2019\Community\VC\Tools\MSVC\14.29.30133\atlmfc\include\afxtempl.h
;	COMDAT ?Serialize@?$CList@PAVCIndicatorGroupData@@PAV1@@@UAEXAAVCArchive@@@Z
_TEXT	SEGMENT
_nNewCount$1$ = -16					; size = 4
_newData$1 = -12					; size = 4
_pData$1$ = -8						; size = 4
_pData$1$ = -8						; size = 4
_pNode$1$ = -8						; size = 4
_nElementsLeft$1$ = -4					; size = 4
_this$1$ = -4						; size = 4
_ar$ = 8						; size = 4
?Serialize@?$CList@PAVCIndicatorGroupData@@PAV1@@@UAEXAAVCArchive@@@Z PROC ; CList<CIndicatorGroupData *,CIndicatorGroupData *>::Serialize, COMDAT
; _this$ = ecx

; 1169 : {

  00000	55		 push	 ebp
  00001	8b ec		 mov	 ebp, esp
  00003	83 ec 10	 sub	 esp, 16			; 00000010H
  00006	53		 push	 ebx
  00007	8b d9		 mov	 ebx, ecx
; File C:\Program Files (x86)\Microsoft Visual Studio\2019\Community\VC\Tools\MSVC\14.29.30133\atlmfc\include\afx.inl

; 212  : 	{ return (m_nMode & CArchive::load) == 0; }

  00009	8b 4d 08	 mov	 ecx, DWORD PTR _ar$[ebp]
; File C:\Program Files (x86)\Microsoft Visual Studio\2019\Community\VC\Tools\MSVC\14.29.30133\atlmfc\include\afxtempl.h

; 1169 : {

  0000c	56		 push	 esi
  0000d	57		 push	 edi
  0000e	89 5d fc	 mov	 DWORD PTR _this$1$[ebp], ebx
; File C:\Program Files (x86)\Microsoft Visual Studio\2019\Community\VC\Tools\MSVC\14.29.30133\atlmfc\include\afx.inl

; 212  : 	{ return (m_nMode & CArchive::load) == 0; }

  00011	8b 41 18	 mov	 eax, DWORD PTR [ecx+24]
  00014	f7 d0		 not	 eax
  00016	a8 01		 test	 al, 1
; File C:\Program Files (x86)\Microsoft Visual Studio\2019\Community\VC\Tools\MSVC\14.29.30133\atlmfc\include\afxtempl.h

; 1174 : 	if (ar.IsStoring())

  00018	0f 84 ae 00 00
	00		 je	 $LN7@Serialize

; 1175 : 	{
; 1176 : 		ar.WriteCount(m_nCount);

  0001e	ff 73 0c	 push	 DWORD PTR [ebx+12]
  00021	e8 00 00 00 00	 call	 ?WriteCount@CArchive@@QAEXK@Z ; CArchive::WriteCount

; 1177 : 		for (CNode* pNode = m_pNodeHead; pNode != NULL; pNode = pNode->pNext)

  00026	8b 43 04	 mov	 eax, DWORD PTR [ebx+4]
  00029	89 45 f8	 mov	 DWORD PTR _pNode$1$[ebp], eax
  0002c	85 c0		 test	 eax, eax
  0002e	0f 84 b9 01 00
	00		 je	 $LN86@Serialize
$LL4@Serialize:

; 1178 : 		{
; 1179 : 			ASSERT(AfxIsValidAddress(pNode, sizeof(CNode)));
; 1180 : 			TYPE* pData;
; 1181 : 			/*
; 1182 : 			 * in some cases the & operator might be overloaded, and we cannot use it to obtain
; 1183 : 			 * the address of a given object.  We then use the following trick to get the address
; 1184 : 			 */
; 1185 : 			pData = reinterpret_cast< TYPE* >( &reinterpret_cast< int& >( static_cast< TYPE& >( pNode->data ) ) );

  00034	8d 70 08	 lea	 esi, DWORD PTR [eax+8]

; 68   : 	ENSURE(nCount == 0 || pElements != NULL);

  00037	85 f6		 test	 esi, esi
  00039	0f 84 c0 01 00
	00		 je	 $LN76@Serialize
; File C:\Program Files (x86)\Microsoft Visual Studio\2019\Community\VC\Tools\MSVC\14.29.30133\atlmfc\include\afx.inl

; 212  : 	{ return (m_nMode & CArchive::load) == 0; }

  0003f	8b 4d 08	 mov	 ecx, DWORD PTR _ar$[ebp]
  00042	8b 41 18	 mov	 eax, DWORD PTR [ecx+24]
  00045	f7 d0		 not	 eax
  00047	a8 01		 test	 al, 1
; File C:\Program Files (x86)\Microsoft Visual Studio\2019\Community\VC\Tools\MSVC\14.29.30133\atlmfc\include\afxtempl.h

; 73   : 	if (ar.IsStoring())

  00049	74 33		 je	 SHORT $LN21@Serialize

; 74   : 	{
; 75   : 		TYPE* pData;
; 76   : 		UINT_PTR nElementsLeft;
; 77   : 
; 78   : 		nElementsLeft = nCount;

  0004b	b8 01 00 00 00	 mov	 eax, 1
  00050	89 45 fc	 mov	 DWORD PTR _nElementsLeft$1$[ebp], eax
$LL16@Serialize:

; 80   : 		while( nElementsLeft > 0 )
; 81   : 		{
; 82   : 			UINT nElementsToWrite;
; 83   : 
; 84   : 			nElementsToWrite = UINT(__min(nElementsLeft, INT_MAX/sizeof(TYPE)));

  00053	bb ff ff ff 1f	 mov	 ebx, 536870911		; 1fffffffH
  00058	3b c3		 cmp	 eax, ebx
  0005a	0f 42 d8	 cmovb	 ebx, eax

; 85   : 			ar.Write(pData, nElementsToWrite*sizeof(TYPE));

  0005d	8d 3c 9d 00 00
	00 00		 lea	 edi, DWORD PTR [ebx*4]
  00064	57		 push	 edi
  00065	56		 push	 esi
  00066	e8 00 00 00 00	 call	 ?Write@CArchive@@QAEXPBXI@Z ; CArchive::Write

; 86   : 			nElementsLeft -= nElementsToWrite;

  0006b	8b 45 fc	 mov	 eax, DWORD PTR _nElementsLeft$1$[ebp]

; 87   : 			pData += nElementsToWrite;

  0006e	03 f7		 add	 esi, edi
  00070	8b 4d 08	 mov	 ecx, DWORD PTR _ar$[ebp]
  00073	2b c3		 sub	 eax, ebx
  00075	89 45 fc	 mov	 DWORD PTR _nElementsLeft$1$[ebp], eax
  00078	85 c0		 test	 eax, eax
  0007a	75 d7		 jne	 SHORT $LL16@Serialize

; 88   : 		}
; 89   : 	}

  0007c	eb 35		 jmp	 SHORT $LN2@Serialize
$LN21@Serialize:

; 90   : 	else
; 91   : 	{
; 92   : 		TYPE* pData;
; 93   : 		UINT_PTR nElementsLeft;
; 94   : 
; 95   : 		nElementsLeft = nCount;

  0007e	bf 01 00 00 00	 mov	 edi, 1
$LL18@Serialize:

; 98   : 		{
; 99   : 			UINT nElementsToRead;
; 100  : 
; 101  : 			nElementsToRead = UINT(__min(nElementsLeft, INT_MAX/sizeof(TYPE)));

  00083	bb ff ff ff 1f	 mov	 ebx, 536870911		; 1fffffffH
  00088	3b fb		 cmp	 edi, ebx
  0008a	0f 42 df	 cmovb	 ebx, edi

; 102  : 			ar.EnsureRead(pData, nElementsToRead*sizeof(TYPE));

  0008d	8d 04 9d 00 00
	00 00		 lea	 eax, DWORD PTR [ebx*4]
; File C:\Program Files (x86)\Microsoft Visual Studio\2019\Community\VC\Tools\MSVC\14.29.30133\atlmfc\include\afx.inl

; 399  : 	UINT nRead=Read(lpBuf, nCount);

  00094	50		 push	 eax
  00095	56		 push	 esi
  00096	e8 00 00 00 00	 call	 ?Read@CArchive@@QAEIPAXI@Z ; CArchive::Read

; 400  : 	if(nRead!=nCount)

  0009b	8d 0c 9d 00 00
	00 00		 lea	 ecx, DWORD PTR [ebx*4]
  000a2	3b c1		 cmp	 eax, ecx
  000a4	0f 85 4c 01 00
	00		 jne	 $LN75@Serialize
; File C:\Program Files (x86)\Microsoft Visual Studio\2019\Community\VC\Tools\MSVC\14.29.30133\atlmfc\include\afxtempl.h

; 97   : 		while( nElementsLeft > 0 )

  000aa	03 f1		 add	 esi, ecx
  000ac	8b 4d 08	 mov	 ecx, DWORD PTR _ar$[ebp]

; 103  : 			nElementsLeft -= nElementsToRead;

  000af	2b fb		 sub	 edi, ebx
  000b1	75 d0		 jne	 SHORT $LL18@Serialize
$LN2@Serialize:

; 1177 : 		for (CNode* pNode = m_pNodeHead; pNode != NULL; pNode = pNode->pNext)

  000b3	8b 45 f8	 mov	 eax, DWORD PTR _pNode$1$[ebp]
  000b6	8b 00		 mov	 eax, DWORD PTR [eax]
  000b8	89 45 f8	 mov	 DWORD PTR _pNode$1$[ebp], eax
  000bb	85 c0		 test	 eax, eax
  000bd	0f 85 71 ff ff
	ff		 jne	 $LL4@Serialize

; 1197 : 		}
; 1198 : 	}
; 1199 : }

  000c3	5f		 pop	 edi
  000c4	5e		 pop	 esi
  000c5	5b		 pop	 ebx
  000c6	8b e5		 mov	 esp, ebp
  000c8	5d		 pop	 ebp
  000c9	c2 04 00	 ret	 4
$LN7@Serialize:

; 1186 : 			SerializeElements<TYPE>(ar, pData, 1);
; 1187 : 		}
; 1188 : 	}
; 1189 : 	else
; 1190 : 	{
; 1191 : 		DWORD_PTR nNewCount = ar.ReadCount();

  000cc	e8 00 00 00 00	 call	 ?ReadCount@CArchive@@QAEKXZ ; CArchive::ReadCount

; 1192 : 		while (nNewCount--)

  000d1	85 c0		 test	 eax, eax
  000d3	0f 84 14 01 00
	00		 je	 $LN86@Serialize
  000d9	0f 1f 80 00 00
	00 00		 npad	 7
$LL5@Serialize:
  000e0	48		 dec	 eax
  000e1	89 45 f0	 mov	 DWORD PTR _nNewCount$1$[ebp], eax
; File C:\Program Files (x86)\Microsoft Visual Studio\2019\Community\VC\Tools\MSVC\14.29.30133\atlmfc\include\afx.inl

; 212  : 	{ return (m_nMode & CArchive::load) == 0; }

  000e4	8b 45 08	 mov	 eax, DWORD PTR _ar$[ebp]
  000e7	8b 48 18	 mov	 ecx, DWORD PTR [eax+24]
  000ea	f7 d1		 not	 ecx
  000ec	f6 c1 01	 test	 cl, 1
; File C:\Program Files (x86)\Microsoft Visual Studio\2019\Community\VC\Tools\MSVC\14.29.30133\atlmfc\include\afxtempl.h

; 73   : 	if (ar.IsStoring())

  000ef	74 3d		 je	 SHORT $LN42@Serialize

; 79   : 		pData = pElements;

  000f1	8d 4d f4	 lea	 ecx, DWORD PTR _newData$1[ebp]
  000f4	bb 01 00 00 00	 mov	 ebx, 1
  000f9	89 4d f8	 mov	 DWORD PTR _pData$1$[ebp], ecx
  000fc	0f 1f 40 00	 npad	 4
$LL37@Serialize:

; 80   : 		while( nElementsLeft > 0 )
; 81   : 		{
; 82   : 			UINT nElementsToWrite;
; 83   : 
; 84   : 			nElementsToWrite = UINT(__min(nElementsLeft, INT_MAX/sizeof(TYPE)));

  00100	bf ff ff ff 1f	 mov	 edi, 536870911		; 1fffffffH
  00105	3b df		 cmp	 ebx, edi
  00107	0f 42 fb	 cmovb	 edi, ebx

; 85   : 			ar.Write(pData, nElementsToWrite*sizeof(TYPE));

  0010a	8d 34 bd 00 00
	00 00		 lea	 esi, DWORD PTR [edi*4]
  00111	56		 push	 esi
  00112	51		 push	 ecx
  00113	8b c8		 mov	 ecx, eax
  00115	e8 00 00 00 00	 call	 ?Write@CArchive@@QAEXPBXI@Z ; CArchive::Write

; 87   : 			pData += nElementsToWrite;

  0011a	8b 4d f8	 mov	 ecx, DWORD PTR _pData$1$[ebp]
  0011d	8b 45 08	 mov	 eax, DWORD PTR _ar$[ebp]
  00120	03 ce		 add	 ecx, esi
  00122	89 4d f8	 mov	 DWORD PTR _pData$1$[ebp], ecx
  00125	2b df		 sub	 ebx, edi
  00127	75 d7		 jne	 SHORT $LL37@Serialize

; 88   : 		}
; 89   : 	}

  00129	8b 5d fc	 mov	 ebx, DWORD PTR _this$1$[ebp]
  0012c	eb 4a		 jmp	 SHORT $LN40@Serialize
$LN42@Serialize:

; 96   : 		pData = pElements;

  0012e	8d 55 f4	 lea	 edx, DWORD PTR _newData$1[ebp]
  00131	be 01 00 00 00	 mov	 esi, 1
  00136	89 55 f8	 mov	 DWORD PTR _pData$1$[ebp], edx
  00139	0f 1f 80 00 00
	00 00		 npad	 7
$LL39@Serialize:

; 98   : 		{
; 99   : 			UINT nElementsToRead;
; 100  : 
; 101  : 			nElementsToRead = UINT(__min(nElementsLeft, INT_MAX/sizeof(TYPE)));

  00140	bf ff ff ff 1f	 mov	 edi, 536870911		; 1fffffffH
  00145	3b f7		 cmp	 esi, edi
  00147	0f 42 fe	 cmovb	 edi, esi

; 102  : 			ar.EnsureRead(pData, nElementsToRead*sizeof(TYPE));

  0014a	8d 0c bd 00 00
	00 00		 lea	 ecx, DWORD PTR [edi*4]
; File C:\Program Files (x86)\Microsoft Visual Studio\2019\Community\VC\Tools\MSVC\14.29.30133\atlmfc\include\afx.inl

; 399  : 	UINT nRead=Read(lpBuf, nCount);

  00151	51		 push	 ecx
  00152	52		 push	 edx
  00153	8b c8		 mov	 ecx, eax
  00155	e8 00 00 00 00	 call	 ?Read@CArchive@@QAEIPAXI@Z ; CArchive::Read

; 400  : 	if(nRead!=nCount)

  0015a	8d 0c bd 00 00
	00 00		 lea	 ecx, DWORD PTR [edi*4]
  00161	3b c1		 cmp	 eax, ecx
  00163	0f 85 8d 00 00
	00		 jne	 $LN75@Serialize
; File C:\Program Files (x86)\Microsoft Visual Studio\2019\Community\VC\Tools\MSVC\14.29.30133\atlmfc\include\afxtempl.h

; 97   : 		while( nElementsLeft > 0 )

  00169	8b 55 f8	 mov	 edx, DWORD PTR _pData$1$[ebp]
  0016c	8b 45 08	 mov	 eax, DWORD PTR _ar$[ebp]

; 104  : 			pData += nElementsToRead;

  0016f	03 d1		 add	 edx, ecx
  00171	89 55 f8	 mov	 DWORD PTR _pData$1$[ebp], edx
  00174	2b f7		 sub	 esi, edi
  00176	75 c8		 jne	 SHORT $LL39@Serialize
$LN40@Serialize:

; 902  : 	if (m_pNodeFree == NULL)

  00178	83 7b 10 00	 cmp	 DWORD PTR [ebx+16], 0

; 1193 : 		{
; 1194 : 			TYPE newData[1];
; 1195 : 			SerializeElements<TYPE>(ar, newData, 1);
; 1196 : 			AddTail(newData[0]);

  0017c	8b 75 f4	 mov	 esi, DWORD PTR _newData$1[ebp]

; 968  : 	CNode* pNewNode = NewNode(m_pNodeTail, NULL);

  0017f	8b 7b 08	 mov	 edi, DWORD PTR [ebx+8]

; 902  : 	if (m_pNodeFree == NULL)

  00182	75 32		 jne	 SHORT $LN63@Serialize

; 903  : 	{
; 904  : 		// add another block
; 905  : 		CPlex* pNewBlock = CPlex::Create(m_pBlocks, m_nBlockSize,

  00184	6a 0c		 push	 12			; 0000000cH
  00186	ff 73 18	 push	 DWORD PTR [ebx+24]
  00189	8d 43 14	 lea	 eax, DWORD PTR [ebx+20]
  0018c	50		 push	 eax
  0018d	e8 00 00 00 00	 call	 ?Create@CPlex@@SGPAU1@AAPAU1@II@Z ; CPlex::Create

; 906  : 				 sizeof(CNode));
; 907  : 
; 908  : 		// chain them into free list
; 909  : 		CNode* pNode = (CNode*) pNewBlock->data();
; 910  : 		// free in reverse order to make it easier to debug
; 911  : 		pNode += m_nBlockSize - 1;

  00192	8b 53 18	 mov	 edx, DWORD PTR [ebx+24]
  00195	83 c0 08	 add	 eax, 8
  00198	8d 4a ff	 lea	 ecx, DWORD PTR [edx-1]

; 912  : 		for (INT_PTR i = m_nBlockSize-1; i >= 0; i--, pNode--)

  0019b	83 c2 ff	 add	 edx, -1
  0019e	8d 0c 49	 lea	 ecx, DWORD PTR [ecx+ecx*2]
  001a1	8d 0c 88	 lea	 ecx, DWORD PTR [eax+ecx*4]
  001a4	78 10		 js	 SHORT $LN63@Serialize
$LL60@Serialize:

; 913  : 		{
; 914  : 			pNode->pNext = m_pNodeFree;

  001a6	8b 43 10	 mov	 eax, DWORD PTR [ebx+16]
  001a9	89 01		 mov	 DWORD PTR [ecx], eax

; 915  : 			m_pNodeFree = pNode;

  001ab	89 4b 10	 mov	 DWORD PTR [ebx+16], ecx
  001ae	83 e9 0c	 sub	 ecx, 12			; 0000000cH
  001b1	83 ea 01	 sub	 edx, 1
  001b4	79 f0		 jns	 SHORT $LL60@Serialize
$LN63@Serialize:

; 916  : 		}
; 917  : 	}
; 918  : 	ENSURE(m_pNodeFree != NULL);  // we must have something

  001b6	8b 4b 10	 mov	 ecx, DWORD PTR [ebx+16]
  001b9	85 c9		 test	 ecx, ecx
  001bb	74 42		 je	 SHORT $LN76@Serialize

; 919  : 
; 920  : 	CList::CNode* pNode = m_pNodeFree;
; 921  : 	m_pNodeFree = m_pNodeFree->pNext;

  001bd	8b 01		 mov	 eax, DWORD PTR [ecx]
  001bf	89 43 10	 mov	 DWORD PTR [ebx+16], eax

; 922  : 	pNode->pPrev = pPrev;

  001c2	89 79 04	 mov	 DWORD PTR [ecx+4], edi

; 923  : 	pNode->pNext = pNext;

  001c5	c7 01 00 00 00
	00		 mov	 DWORD PTR [ecx], 0

; 924  : 	m_nCount++;

  001cb	ff 43 0c	 inc	 DWORD PTR [ebx+12]

; 969  : 	pNewNode->data = newElement;

  001ce	89 71 08	 mov	 DWORD PTR [ecx+8], esi

; 970  : 	if (m_pNodeTail != NULL)

  001d1	8b 43 08	 mov	 eax, DWORD PTR [ebx+8]
  001d4	85 c0		 test	 eax, eax
  001d6	74 04		 je	 SHORT $LN54@Serialize

; 971  : 		m_pNodeTail->pNext = pNewNode;

  001d8	89 08		 mov	 DWORD PTR [eax], ecx
  001da	eb 03		 jmp	 SHORT $LN55@Serialize
$LN54@Serialize:

; 972  : 	else
; 973  : 		m_pNodeHead = pNewNode;

  001dc	89 4b 04	 mov	 DWORD PTR [ebx+4], ecx
$LN55@Serialize:

; 1192 : 		while (nNewCount--)

  001df	8b 45 f0	 mov	 eax, DWORD PTR _nNewCount$1$[ebp]

; 974  : 	m_pNodeTail = pNewNode;

  001e2	89 4b 08	 mov	 DWORD PTR [ebx+8], ecx

; 1192 : 		while (nNewCount--)

  001e5	85 c0		 test	 eax, eax
  001e7	0f 85 f3 fe ff
	ff		 jne	 $LL5@Serialize
$LN86@Serialize:
  001ed	5f		 pop	 edi

; 1197 : 		}
; 1198 : 	}
; 1199 : }

  001ee	5e		 pop	 esi
  001ef	5b		 pop	 ebx
  001f0	8b e5		 mov	 esp, ebp
  001f2	5d		 pop	 ebp
  001f3	c2 04 00	 ret	 4
$LN75@Serialize:
  001f6	6a 00		 push	 0
  001f8	6a 03		 push	 3
  001fa	e8 00 00 00 00	 call	 ?AfxThrowArchiveException@@YGXHPBD@Z ; AfxThrowArchiveException
$LN76@Serialize:
  001ff	e8 00 00 00 00	 call	 ?AfxThrowInvalidArgException@@YGXXZ ; AfxThrowInvalidArgException
$LN105@Serialize:
  00204	cc		 int	 3
?Serialize@?$CList@PAVCIndicatorGroupData@@PAV1@@@UAEXAAVCArchive@@@Z ENDP ; CList<CIndicatorGroupData *,CIndicatorGroupData *>::Serialize
_TEXT	ENDS
; Function compile flags: /Ogtp
; File C:\Program Files (x86)\Microsoft Visual Studio\2019\Community\VC\Tools\MSVC\14.29.30133\atlmfc\include\afxtempl.h
;	COMDAT ??1?$CList@PAVCIndicatorGroupData@@PAV1@@@UAE@XZ
_TEXT	SEGMENT
__$EHRec$ = -12						; size = 12
??1?$CList@PAVCIndicatorGroupData@@PAV1@@@UAE@XZ PROC	; CList<CIndicatorGroupData *,CIndicatorGroupData *>::~CList<CIndicatorGroupData *,CIndicatorGroupData *>, COMDAT
; _this$ = ecx

; 878  : {

  00000	55		 push	 ebp
  00001	8b ec		 mov	 ebp, esp
  00003	6a ff		 push	 -1
  00005	68 00 00 00 00	 push	 __ehhandler$??1?$CList@PAVCIndicatorGroupData@@PAV1@@@UAE@XZ
  0000a	64 a1 00 00 00
	00		 mov	 eax, DWORD PTR fs:0
  00010	50		 push	 eax
  00011	56		 push	 esi
  00012	a1 00 00 00 00	 mov	 eax, DWORD PTR ___security_cookie
  00017	33 c5		 xor	 eax, ebp
  00019	50		 push	 eax
  0001a	8d 45 f4	 lea	 eax, DWORD PTR __$EHRec$[ebp]
  0001d	64 a3 00 00 00
	00		 mov	 DWORD PTR fs:0, eax
  00023	8b f1		 mov	 esi, ecx

; 872  : 	m_pBlocks->FreeDataChain();

  00025	8b 4e 14	 mov	 ecx, DWORD PTR [esi+20]

; 878  : {

  00028	c7 06 00 00 00
	00		 mov	 DWORD PTR [esi], OFFSET ??_7?$CList@PAVCIndicatorGroupData@@PAV1@@@6B@

; 870  : 	m_nCount = 0;

  0002e	c7 46 0c 00 00
	00 00		 mov	 DWORD PTR [esi+12], 0

; 871  : 	m_pNodeHead = m_pNodeTail = m_pNodeFree = NULL;

  00035	c7 46 10 00 00
	00 00		 mov	 DWORD PTR [esi+16], 0
  0003c	c7 46 08 00 00
	00 00		 mov	 DWORD PTR [esi+8], 0
  00043	c7 46 04 00 00
	00 00		 mov	 DWORD PTR [esi+4], 0

; 872  : 	m_pBlocks->FreeDataChain();

  0004a	e8 00 00 00 00	 call	 ?FreeDataChain@CPlex@@QAEXXZ ; CPlex::FreeDataChain

; 873  : 	m_pBlocks = NULL;

  0004f	c7 46 14 00 00
	00 00		 mov	 DWORD PTR [esi+20], 0

; 879  : 	RemoveAll();
; 880  : 	ASSERT(m_nCount == 0);
; 881  : }

  00056	8b 4d f4	 mov	 ecx, DWORD PTR __$EHRec$[ebp]
  00059	64 89 0d 00 00
	00 00		 mov	 DWORD PTR fs:0, ecx
  00060	59		 pop	 ecx
  00061	5e		 pop	 esi
  00062	8b e5		 mov	 esp, ebp
  00064	5d		 pop	 ebp
  00065	c3		 ret	 0
  00066	cc		 int	 3
  00067	cc		 int	 3
  00068	cc		 int	 3
  00069	cc		 int	 3
  0006a	cc		 int	 3
_TEXT	ENDS
;	COMDAT text$x
text$x	SEGMENT
__ehhandler$??1?$CList@PAVCIndicatorGroupData@@PAV1@@@UAE@XZ:
  00000	90		 npad	 1
  00001	90		 npad	 1
  00002	8b 54 24 08	 mov	 edx, DWORD PTR [esp+8]
  00006	8d 42 0c	 lea	 eax, DWORD PTR [edx+12]
  00009	8b 4a f8	 mov	 ecx, DWORD PTR [edx-8]
  0000c	33 c8		 xor	 ecx, eax
  0000e	e8 00 00 00 00	 call	 @__security_check_cookie@4
  00013	b8 00 00 00 00	 mov	 eax, OFFSET __ehfuncinfo$??1?$CList@PAVCIndicatorGroupData@@PAV1@@@UAE@XZ
  00018	e9 00 00 00 00	 jmp	 ___CxxFrameHandler3
text$x	ENDS
??1?$CList@PAVCIndicatorGroupData@@PAV1@@@UAE@XZ ENDP	; CList<CIndicatorGroupData *,CIndicatorGroupData *>::~CList<CIndicatorGroupData *,CIndicatorGroupData *>
; Function compile flags: /Ogtp
; File C:\Program Files (x86)\Microsoft Visual Studio\2019\Community\VC\Tools\MSVC\14.29.30133\atlmfc\include\afxtempl.h
;	COMDAT ?NewNode@?$CList@PAVCIndicatorGroupData@@PAV1@@@IAEPAUCNode@1@PAU21@0@Z
_TEXT	SEGMENT
_pPrev$ = 8						; size = 4
_pNext$ = 12						; size = 4
?NewNode@?$CList@PAVCIndicatorGroupData@@PAV1@@@IAEPAUCNode@1@PAU21@0@Z PROC ; CList<CIndicatorGroupData *,CIndicatorGroupData *>::NewNode, COMDAT
; _this$ = ecx

; 901  : {

  00000	55		 push	 ebp
  00001	8b ec		 mov	 ebp, esp
  00003	56		 push	 esi
  00004	8b f1		 mov	 esi, ecx

; 902  : 	if (m_pNodeFree == NULL)

  00006	83 7e 10 00	 cmp	 DWORD PTR [esi+16], 0
  0000a	75 34		 jne	 SHORT $LN7@NewNode

; 903  : 	{
; 904  : 		// add another block
; 905  : 		CPlex* pNewBlock = CPlex::Create(m_pBlocks, m_nBlockSize,

  0000c	6a 0c		 push	 12			; 0000000cH
  0000e	ff 76 18	 push	 DWORD PTR [esi+24]
  00011	8d 46 14	 lea	 eax, DWORD PTR [esi+20]
  00014	50		 push	 eax
  00015	e8 00 00 00 00	 call	 ?Create@CPlex@@SGPAU1@AAPAU1@II@Z ; CPlex::Create

; 906  : 				 sizeof(CNode));
; 907  : 
; 908  : 		// chain them into free list
; 909  : 		CNode* pNode = (CNode*) pNewBlock->data();
; 910  : 		// free in reverse order to make it easier to debug
; 911  : 		pNode += m_nBlockSize - 1;

  0001a	8b 56 18	 mov	 edx, DWORD PTR [esi+24]
  0001d	83 c0 08	 add	 eax, 8
  00020	8d 0c 52	 lea	 ecx, DWORD PTR [edx+edx*2]
  00023	8d 04 88	 lea	 eax, DWORD PTR [eax+ecx*4]
  00026	83 c0 f4	 add	 eax, -12		; fffffff4H

; 912  : 		for (INT_PTR i = m_nBlockSize-1; i >= 0; i--, pNode--)

  00029	83 c2 ff	 add	 edx, -1
  0002c	78 12		 js	 SHORT $LN7@NewNode
  0002e	66 90		 npad	 2
$LL4@NewNode:

; 913  : 		{
; 914  : 			pNode->pNext = m_pNodeFree;

  00030	8b 4e 10	 mov	 ecx, DWORD PTR [esi+16]
  00033	89 08		 mov	 DWORD PTR [eax], ecx

; 915  : 			m_pNodeFree = pNode;

  00035	89 46 10	 mov	 DWORD PTR [esi+16], eax
  00038	83 e8 0c	 sub	 eax, 12			; 0000000cH
  0003b	83 ea 01	 sub	 edx, 1
  0003e	79 f0		 jns	 SHORT $LL4@NewNode
$LN7@NewNode:

; 916  : 		}
; 917  : 	}
; 918  : 	ENSURE(m_pNodeFree != NULL);  // we must have something

  00040	8b 46 10	 mov	 eax, DWORD PTR [esi+16]
  00043	85 c0		 test	 eax, eax
  00045	74 18		 je	 SHORT $LN17@NewNode

; 919  : 
; 920  : 	CList::CNode* pNode = m_pNodeFree;
; 921  : 	m_pNodeFree = m_pNodeFree->pNext;

  00047	8b 08		 mov	 ecx, DWORD PTR [eax]
  00049	89 4e 10	 mov	 DWORD PTR [esi+16], ecx

; 922  : 	pNode->pPrev = pPrev;

  0004c	8b 4d 08	 mov	 ecx, DWORD PTR _pPrev$[ebp]
  0004f	89 48 04	 mov	 DWORD PTR [eax+4], ecx

; 923  : 	pNode->pNext = pNext;

  00052	8b 4d 0c	 mov	 ecx, DWORD PTR _pNext$[ebp]
  00055	89 08		 mov	 DWORD PTR [eax], ecx

; 924  : 	m_nCount++;

  00057	ff 46 0c	 inc	 DWORD PTR [esi+12]

; 925  : 	ASSERT(m_nCount > 0);  // make sure we don't overflow
; 926  : 
; 927  : #pragma push_macro("new")
; 928  : #undef new
; 929  : 	::new( (void*)( &pNode->data ) ) TYPE;
; 930  : #pragma pop_macro("new")
; 931  : 	return pNode;

  0005a	5e		 pop	 esi

; 932  : }

  0005b	5d		 pop	 ebp
  0005c	c2 08 00	 ret	 8
$LN17@NewNode:

; 916  : 		}
; 917  : 	}
; 918  : 	ENSURE(m_pNodeFree != NULL);  // we must have something

  0005f	e8 00 00 00 00	 call	 ?AfxThrowInvalidArgException@@YGXXZ ; AfxThrowInvalidArgException
$LN15@NewNode:
  00064	cc		 int	 3
?NewNode@?$CList@PAVCIndicatorGroupData@@PAV1@@@IAEPAUCNode@1@PAU21@0@Z ENDP ; CList<CIndicatorGroupData *,CIndicatorGroupData *>::NewNode
_TEXT	ENDS
; Function compile flags: /Ogtp
; File C:\Program Files (x86)\Microsoft Visual Studio\2019\Community\VC\Tools\MSVC\14.29.30133\atlmfc\include\afxtempl.h
;	COMDAT ?RemoveAll@?$CList@PAVCIndicatorGroupData@@PAV1@@@QAEXXZ
_TEXT	SEGMENT
?RemoveAll@?$CList@PAVCIndicatorGroupData@@PAV1@@@QAEXXZ PROC ; CList<CIndicatorGroupData *,CIndicatorGroupData *>::RemoveAll, COMDAT
; _this$ = ecx

; 862  : {

  00000	56		 push	 esi
  00001	8b f1		 mov	 esi, ecx

; 863  : 	ASSERT_VALID(this);
; 864  : 
; 865  : 	// destroy elements
; 866  : 	CNode* pNode;
; 867  : 	for (pNode = m_pNodeHead; pNode != NULL; pNode = pNode->pNext)
; 868  : 		pNode->data.~TYPE();
; 869  : 
; 870  : 	m_nCount = 0;
; 871  : 	m_pNodeHead = m_pNodeTail = m_pNodeFree = NULL;
; 872  : 	m_pBlocks->FreeDataChain();

  00003	8b 4e 14	 mov	 ecx, DWORD PTR [esi+20]
  00006	c7 46 0c 00 00
	00 00		 mov	 DWORD PTR [esi+12], 0
  0000d	c7 46 10 00 00
	00 00		 mov	 DWORD PTR [esi+16], 0
  00014	c7 46 08 00 00
	00 00		 mov	 DWORD PTR [esi+8], 0
  0001b	c7 46 04 00 00
	00 00		 mov	 DWORD PTR [esi+4], 0
  00022	e8 00 00 00 00	 call	 ?FreeDataChain@CPlex@@QAEXXZ ; CPlex::FreeDataChain

; 873  : 	m_pBlocks = NULL;

  00027	c7 46 14 00 00
	00 00		 mov	 DWORD PTR [esi+20], 0
  0002e	5e		 pop	 esi

; 874  : }

  0002f	c3		 ret	 0
?RemoveAll@?$CList@PAVCIndicatorGroupData@@PAV1@@@QAEXXZ ENDP ; CList<CIndicatorGroupData *,CIndicatorGroupData *>::RemoveAll
_TEXT	ENDS
; Function compile flags: /Ogtp
; File C:\Program Files (x86)\Microsoft Visual Studio\2019\Community\VC\Tools\MSVC\14.29.30133\atlmfc\include\afxtempl.h
;	COMDAT ?AddTail@?$CList@PAVCIndicatorGroupData@@PAV1@@@QAEPAU__POSITION@@PAVCIndicatorGroupData@@@Z
_TEXT	SEGMENT
_newElement$ = 8					; size = 4
?AddTail@?$CList@PAVCIndicatorGroupData@@PAV1@@@QAEPAU__POSITION@@PAVCIndicatorGroupData@@@Z PROC ; CList<CIndicatorGroupData *,CIndicatorGroupData *>::AddTail, COMDAT
; _this$ = ecx

; 965  : {

  00000	55		 push	 ebp
  00001	8b ec		 mov	 ebp, esp
  00003	56		 push	 esi
  00004	8b f1		 mov	 esi, ecx
  00006	57		 push	 edi

; 902  : 	if (m_pNodeFree == NULL)

  00007	83 7e 10 00	 cmp	 DWORD PTR [esi+16], 0

; 966  : 	ASSERT_VALID(this);
; 967  : 
; 968  : 	CNode* pNewNode = NewNode(m_pNodeTail, NULL);

  0000b	8b 7e 08	 mov	 edi, DWORD PTR [esi+8]

; 902  : 	if (m_pNodeFree == NULL)

  0000e	75 32		 jne	 SHORT $LN11@AddTail

; 903  : 	{
; 904  : 		// add another block
; 905  : 		CPlex* pNewBlock = CPlex::Create(m_pBlocks, m_nBlockSize,

  00010	6a 0c		 push	 12			; 0000000cH
  00012	ff 76 18	 push	 DWORD PTR [esi+24]
  00015	8d 46 14	 lea	 eax, DWORD PTR [esi+20]
  00018	50		 push	 eax
  00019	e8 00 00 00 00	 call	 ?Create@CPlex@@SGPAU1@AAPAU1@II@Z ; CPlex::Create

; 906  : 				 sizeof(CNode));
; 907  : 
; 908  : 		// chain them into free list
; 909  : 		CNode* pNode = (CNode*) pNewBlock->data();
; 910  : 		// free in reverse order to make it easier to debug
; 911  : 		pNode += m_nBlockSize - 1;

  0001e	8b 56 18	 mov	 edx, DWORD PTR [esi+24]
  00021	83 c0 08	 add	 eax, 8
  00024	8d 4a ff	 lea	 ecx, DWORD PTR [edx-1]

; 912  : 		for (INT_PTR i = m_nBlockSize-1; i >= 0; i--, pNode--)

  00027	83 c2 ff	 add	 edx, -1
  0002a	8d 0c 49	 lea	 ecx, DWORD PTR [ecx+ecx*2]
  0002d	8d 0c 88	 lea	 ecx, DWORD PTR [eax+ecx*4]
  00030	78 10		 js	 SHORT $LN11@AddTail
$LL8@AddTail:

; 913  : 		{
; 914  : 			pNode->pNext = m_pNodeFree;

  00032	8b 46 10	 mov	 eax, DWORD PTR [esi+16]
  00035	89 01		 mov	 DWORD PTR [ecx], eax

; 915  : 			m_pNodeFree = pNode;

  00037	89 4e 10	 mov	 DWORD PTR [esi+16], ecx
  0003a	83 e9 0c	 sub	 ecx, 12			; 0000000cH
  0003d	83 ea 01	 sub	 edx, 1
  00040	79 f0		 jns	 SHORT $LL8@AddTail
$LN11@AddTail:

; 916  : 		}
; 917  : 	}
; 918  : 	ENSURE(m_pNodeFree != NULL);  // we must have something

  00042	8b 4e 10	 mov	 ecx, DWORD PTR [esi+16]
  00045	85 c9		 test	 ecx, ecx
  00047	74 39		 je	 SHORT $LN22@AddTail

; 919  : 
; 920  : 	CList::CNode* pNode = m_pNodeFree;
; 921  : 	m_pNodeFree = m_pNodeFree->pNext;

  00049	8b 01		 mov	 eax, DWORD PTR [ecx]
  0004b	89 46 10	 mov	 DWORD PTR [esi+16], eax

; 969  : 	pNewNode->data = newElement;

  0004e	8b 45 08	 mov	 eax, DWORD PTR _newElement$[ebp]

; 922  : 	pNode->pPrev = pPrev;

  00051	89 79 04	 mov	 DWORD PTR [ecx+4], edi

; 923  : 	pNode->pNext = pNext;

  00054	c7 01 00 00 00
	00		 mov	 DWORD PTR [ecx], 0

; 924  : 	m_nCount++;

  0005a	ff 46 0c	 inc	 DWORD PTR [esi+12]

; 969  : 	pNewNode->data = newElement;

  0005d	89 41 08	 mov	 DWORD PTR [ecx+8], eax

; 970  : 	if (m_pNodeTail != NULL)

  00060	8b 46 08	 mov	 eax, DWORD PTR [esi+8]
  00063	85 c0		 test	 eax, eax
  00065	74 0d		 je	 SHORT $LN2@AddTail

; 971  : 		m_pNodeTail->pNext = pNewNode;

  00067	89 08		 mov	 DWORD PTR [eax], ecx

; 972  : 	else
; 973  : 		m_pNodeHead = pNewNode;
; 974  : 	m_pNodeTail = pNewNode;
; 975  : 	return (POSITION) pNewNode;

  00069	8b c1		 mov	 eax, ecx
  0006b	5f		 pop	 edi
  0006c	89 4e 08	 mov	 DWORD PTR [esi+8], ecx
  0006f	5e		 pop	 esi

; 976  : }

  00070	5d		 pop	 ebp
  00071	c2 04 00	 ret	 4
$LN2@AddTail:

; 972  : 	else
; 973  : 		m_pNodeHead = pNewNode;
; 974  : 	m_pNodeTail = pNewNode;
; 975  : 	return (POSITION) pNewNode;

  00074	5f		 pop	 edi
  00075	89 4e 04	 mov	 DWORD PTR [esi+4], ecx
  00078	8b c1		 mov	 eax, ecx
  0007a	89 4e 08	 mov	 DWORD PTR [esi+8], ecx
  0007d	5e		 pop	 esi

; 976  : }

  0007e	5d		 pop	 ebp
  0007f	c2 04 00	 ret	 4
$LN22@AddTail:

; 918  : 	ENSURE(m_pNodeFree != NULL);  // we must have something

  00082	e8 00 00 00 00	 call	 ?AfxThrowInvalidArgException@@YGXXZ ; AfxThrowInvalidArgException
$LN20@AddTail:
  00087	cc		 int	 3
?AddTail@?$CList@PAVCIndicatorGroupData@@PAV1@@@QAEPAU__POSITION@@PAVCIndicatorGroupData@@@Z ENDP ; CList<CIndicatorGroupData *,CIndicatorGroupData *>::AddTail
_TEXT	ENDS
; Function compile flags: /Ogtp
; File C:\Program Files (x86)\Microsoft Visual Studio\2019\Community\VC\Tools\MSVC\14.29.30133\atlmfc\include\afxtempl.h
;	COMDAT ??0?$CList@PAVCIndicatorGroupData@@PAV1@@@QAE@H@Z
_TEXT	SEGMENT
_nBlockSize$ = 8					; size = 4
??0?$CList@PAVCIndicatorGroupData@@PAV1@@@QAE@H@Z PROC	; CList<CIndicatorGroupData *,CIndicatorGroupData *>::CList<CIndicatorGroupData *,CIndicatorGroupData *>, COMDAT
; _this$ = ecx

; 851  : {

  00000	55		 push	 ebp
  00001	8b ec		 mov	 ebp, esp

; 852  : 	ASSERT(nBlockSize > 0);
; 853  : 
; 854  : 	m_nCount = 0;
; 855  : 	m_pNodeHead = m_pNodeTail = m_pNodeFree = NULL;
; 856  : 	m_pBlocks = NULL;
; 857  : 	m_nBlockSize = nBlockSize;

  00003	8b 45 08	 mov	 eax, DWORD PTR _nBlockSize$[ebp]
  00006	89 41 18	 mov	 DWORD PTR [ecx+24], eax

; 858  : }

  00009	8b c1		 mov	 eax, ecx
  0000b	c7 01 00 00 00
	00		 mov	 DWORD PTR [ecx], OFFSET ??_7?$CList@PAVCIndicatorGroupData@@PAV1@@@6B@
  00011	c7 41 0c 00 00
	00 00		 mov	 DWORD PTR [ecx+12], 0
  00018	c7 41 10 00 00
	00 00		 mov	 DWORD PTR [ecx+16], 0
  0001f	c7 41 08 00 00
	00 00		 mov	 DWORD PTR [ecx+8], 0
  00026	c7 41 04 00 00
	00 00		 mov	 DWORD PTR [ecx+4], 0
  0002d	c7 41 14 00 00
	00 00		 mov	 DWORD PTR [ecx+20], 0
  00034	5d		 pop	 ebp
  00035	c2 04 00	 ret	 4
??0?$CList@PAVCIndicatorGroupData@@PAV1@@@QAE@H@Z ENDP	; CList<CIndicatorGroupData *,CIndicatorGroupData *>::CList<CIndicatorGroupData *,CIndicatorGroupData *>
_TEXT	ENDS
; Function compile flags: /Ogtp
;	COMDAT ??_FCIndicatorGroupData@@QAEXXZ
_TEXT	SEGMENT
$T2 = -16						; size = 4
__$EHRec$ = -12						; size = 12
??_FCIndicatorGroupData@@QAEXXZ PROC			; CIndicatorGroupData::`default constructor closure', COMDAT
; _this$ = ecx
  00000	55		 push	 ebp
  00001	8b ec		 mov	 ebp, esp
  00003	6a ff		 push	 -1
  00005	68 00 00 00 00	 push	 __ehhandler$??_FCIndicatorGroupData@@QAEXXZ
  0000a	64 a1 00 00 00
	00		 mov	 eax, DWORD PTR fs:0
  00010	50		 push	 eax
  00011	51		 push	 ecx
  00012	56		 push	 esi
  00013	a1 00 00 00 00	 mov	 eax, DWORD PTR ___security_cookie
  00018	33 c5		 xor	 eax, ebp
  0001a	50		 push	 eax
  0001b	8d 45 f4	 lea	 eax, DWORD PTR __$EHRec$[ebp]
  0001e	64 a3 00 00 00
	00		 mov	 DWORD PTR fs:0, eax
  00024	8b f1		 mov	 esi, ecx
  00026	68 00 00 00 00	 push	 OFFSET ??_C@_00CNPNBAHC@@
  0002b	8d 4d f0	 lea	 ecx, DWORD PTR $T2[ebp]
  0002e	ff 15 00 00 00
	00		 call	 DWORD PTR __imp_??0?$CStringT@DV?$StrTraitMFC_DLL@DV?$ChTraitsCRT@D@ATL@@@@@ATL@@QAE@PBD@Z
  00034	8d 45 f0	 lea	 eax, DWORD PTR $T2[ebp]
  00037	c7 45 fc 00 00
	00 00		 mov	 DWORD PTR __$EHRec$[ebp+8], 0
  0003e	50		 push	 eax
  0003f	8b ce		 mov	 ecx, esi
  00041	e8 00 00 00 00	 call	 ??0CIndicatorGroupData@@QAE@ABV?$CStringT@DV?$StrTraitMFC_DLL@DV?$ChTraitsCRT@D@ATL@@@@@ATL@@@Z ; CIndicatorGroupData::CIndicatorGroupData
  00046	8d 4d f0	 lea	 ecx, DWORD PTR $T2[ebp]
  00049	ff 15 00 00 00
	00		 call	 DWORD PTR __imp_??1?$CStringT@DV?$StrTraitMFC_DLL@DV?$ChTraitsCRT@D@ATL@@@@@ATL@@QAE@XZ
  0004f	8b 4d f4	 mov	 ecx, DWORD PTR __$EHRec$[ebp]
  00052	64 89 0d 00 00
	00 00		 mov	 DWORD PTR fs:0, ecx
  00059	59		 pop	 ecx
  0005a	5e		 pop	 esi
  0005b	8b e5		 mov	 esp, ebp
  0005d	5d		 pop	 ebp
  0005e	c3		 ret	 0
_TEXT	ENDS
;	COMDAT text$x
text$x	SEGMENT
__unwindfunclet$??_FCIndicatorGroupData@@QAEXXZ$0:
  00000	8d 4d f0	 lea	 ecx, DWORD PTR $T2[ebp]
  00003	ff 25 00 00 00
	00		 jmp	 DWORD PTR __imp_??1?$CStringT@DV?$StrTraitMFC_DLL@DV?$ChTraitsCRT@D@ATL@@@@@ATL@@QAE@XZ
  00009	cc		 int	 3
  0000a	cc		 int	 3
  0000b	cc		 int	 3
  0000c	cc		 int	 3
  0000d	cc		 int	 3
__ehhandler$??_FCIndicatorGroupData@@QAEXXZ:
  0000e	90		 npad	 1
  0000f	90		 npad	 1
  00010	8b 54 24 08	 mov	 edx, DWORD PTR [esp+8]
  00014	8d 42 0c	 lea	 eax, DWORD PTR [edx+12]
  00017	8b 4a f4	 mov	 ecx, DWORD PTR [edx-12]
  0001a	33 c8		 xor	 ecx, eax
  0001c	e8 00 00 00 00	 call	 @__security_check_cookie@4
  00021	b8 00 00 00 00	 mov	 eax, OFFSET __ehfuncinfo$??_FCIndicatorGroupData@@QAEXXZ
  00026	e9 00 00 00 00	 jmp	 ___CxxFrameHandler3
text$x	ENDS
??_FCIndicatorGroupData@@QAEXXZ ENDP			; CIndicatorGroupData::`default constructor closure'
; Function compile flags: /Ogtp
; File C:\Program Files (x86)\Microsoft Visual Studio\2019\Community\VC\Tools\MSVC\14.29.30133\atlmfc\include\afxtempl.h
;	COMDAT ?NewNode@?$CList@V?$CStringT@DV?$StrTraitMFC_DLL@DV?$ChTraitsCRT@D@ATL@@@@@ATL@@V12@@@IAEPAUCNode@1@PAU21@0@Z
_TEXT	SEGMENT
_pPrev$ = 8						; size = 4
_pNext$ = 12						; size = 4
?NewNode@?$CList@V?$CStringT@DV?$StrTraitMFC_DLL@DV?$ChTraitsCRT@D@ATL@@@@@ATL@@V12@@@IAEPAUCNode@1@PAU21@0@Z PROC ; CList<ATL::CStringT<char,StrTraitMFC_DLL<char,ATL::ChTraitsCRT<char> > >,ATL::CStringT<char,StrTraitMFC_DLL<char,ATL::ChTraitsCRT<char> > > >::NewNode, COMDAT
; _this$ = ecx

; 901  : {

  00000	55		 push	 ebp
  00001	8b ec		 mov	 ebp, esp
  00003	56		 push	 esi
  00004	8b f1		 mov	 esi, ecx
  00006	57		 push	 edi

; 902  : 	if (m_pNodeFree == NULL)

  00007	83 7e 10 00	 cmp	 DWORD PTR [esi+16], 0
  0000b	75 33		 jne	 SHORT $LN7@NewNode

; 903  : 	{
; 904  : 		// add another block
; 905  : 		CPlex* pNewBlock = CPlex::Create(m_pBlocks, m_nBlockSize,

  0000d	6a 0c		 push	 12			; 0000000cH
  0000f	ff 76 18	 push	 DWORD PTR [esi+24]
  00012	8d 46 14	 lea	 eax, DWORD PTR [esi+20]
  00015	50		 push	 eax
  00016	e8 00 00 00 00	 call	 ?Create@CPlex@@SGPAU1@AAPAU1@II@Z ; CPlex::Create

; 906  : 				 sizeof(CNode));
; 907  : 
; 908  : 		// chain them into free list
; 909  : 		CNode* pNode = (CNode*) pNewBlock->data();
; 910  : 		// free in reverse order to make it easier to debug
; 911  : 		pNode += m_nBlockSize - 1;

  0001b	8b 56 18	 mov	 edx, DWORD PTR [esi+24]
  0001e	83 c0 08	 add	 eax, 8
  00021	8d 0c 52	 lea	 ecx, DWORD PTR [edx+edx*2]
  00024	8d 04 88	 lea	 eax, DWORD PTR [eax+ecx*4]
  00027	83 c0 f4	 add	 eax, -12		; fffffff4H

; 912  : 		for (INT_PTR i = m_nBlockSize-1; i >= 0; i--, pNode--)

  0002a	83 c2 ff	 add	 edx, -1
  0002d	78 11		 js	 SHORT $LN7@NewNode
  0002f	90		 npad	 1
$LL4@NewNode:

; 913  : 		{
; 914  : 			pNode->pNext = m_pNodeFree;

  00030	8b 4e 10	 mov	 ecx, DWORD PTR [esi+16]
  00033	89 08		 mov	 DWORD PTR [eax], ecx

; 915  : 			m_pNodeFree = pNode;

  00035	89 46 10	 mov	 DWORD PTR [esi+16], eax
  00038	83 e8 0c	 sub	 eax, 12			; 0000000cH
  0003b	83 ea 01	 sub	 edx, 1
  0003e	79 f0		 jns	 SHORT $LL4@NewNode
$LN7@NewNode:

; 916  : 		}
; 917  : 	}
; 918  : 	ENSURE(m_pNodeFree != NULL);  // we must have something

  00040	8b 7e 10	 mov	 edi, DWORD PTR [esi+16]
  00043	85 ff		 test	 edi, edi
  00045	74 24		 je	 SHORT $LN17@NewNode

; 919  : 
; 920  : 	CList::CNode* pNode = m_pNodeFree;
; 921  : 	m_pNodeFree = m_pNodeFree->pNext;

  00047	8b 07		 mov	 eax, DWORD PTR [edi]

; 922  : 	pNode->pPrev = pPrev;

  00049	8b 4d 08	 mov	 ecx, DWORD PTR _pPrev$[ebp]
  0004c	89 46 10	 mov	 DWORD PTR [esi+16], eax
  0004f	89 4f 04	 mov	 DWORD PTR [edi+4], ecx

; 923  : 	pNode->pNext = pNext;

  00052	8b 4d 0c	 mov	 ecx, DWORD PTR _pNext$[ebp]
  00055	89 0f		 mov	 DWORD PTR [edi], ecx

; 924  : 	m_nCount++;
; 925  : 	ASSERT(m_nCount > 0);  // make sure we don't overflow
; 926  : 
; 927  : #pragma push_macro("new")
; 928  : #undef new
; 929  : 	::new( (void*)( &pNode->data ) ) TYPE;

  00057	8d 4f 08	 lea	 ecx, DWORD PTR [edi+8]
  0005a	ff 46 0c	 inc	 DWORD PTR [esi+12]
  0005d	ff 15 00 00 00
	00		 call	 DWORD PTR __imp_??0?$CStringT@DV?$StrTraitMFC_DLL@DV?$ChTraitsCRT@D@ATL@@@@@ATL@@QAE@XZ

; 930  : #pragma pop_macro("new")
; 931  : 	return pNode;

  00063	8b c7		 mov	 eax, edi
  00065	5f		 pop	 edi
  00066	5e		 pop	 esi

; 932  : }

  00067	5d		 pop	 ebp
  00068	c2 08 00	 ret	 8
$LN17@NewNode:

; 916  : 		}
; 917  : 	}
; 918  : 	ENSURE(m_pNodeFree != NULL);  // we must have something

  0006b	e8 00 00 00 00	 call	 ?AfxThrowInvalidArgException@@YGXXZ ; AfxThrowInvalidArgException
$LN15@NewNode:
  00070	cc		 int	 3
?NewNode@?$CList@V?$CStringT@DV?$StrTraitMFC_DLL@DV?$ChTraitsCRT@D@ATL@@@@@ATL@@V12@@@IAEPAUCNode@1@PAU21@0@Z ENDP ; CList<ATL::CStringT<char,StrTraitMFC_DLL<char,ATL::ChTraitsCRT<char> > >,ATL::CStringT<char,StrTraitMFC_DLL<char,ATL::ChTraitsCRT<char> > > >::NewNode
_TEXT	ENDS
; Function compile flags: /Ogtp
; File C:\Program Files (x86)\Microsoft Visual Studio\2019\Community\VC\Tools\MSVC\14.29.30133\atlmfc\include\afxtempl.h
;	COMDAT ?RemoveAll@?$CList@V?$CStringT@DV?$StrTraitMFC_DLL@DV?$ChTraitsCRT@D@ATL@@@@@ATL@@V12@@@QAEXXZ
_TEXT	SEGMENT
?RemoveAll@?$CList@V?$CStringT@DV?$StrTraitMFC_DLL@DV?$ChTraitsCRT@D@ATL@@@@@ATL@@V12@@@QAEXXZ PROC ; CList<ATL::CStringT<char,StrTraitMFC_DLL<char,ATL::ChTraitsCRT<char> > >,ATL::CStringT<char,StrTraitMFC_DLL<char,ATL::ChTraitsCRT<char> > > >::RemoveAll, COMDAT
; _this$ = ecx

; 862  : {

  00000	56		 push	 esi
  00001	57		 push	 edi
  00002	8b f9		 mov	 edi, ecx

; 863  : 	ASSERT_VALID(this);
; 864  : 
; 865  : 	// destroy elements
; 866  : 	CNode* pNode;
; 867  : 	for (pNode = m_pNodeHead; pNode != NULL; pNode = pNode->pNext)

  00004	8b 77 04	 mov	 esi, DWORD PTR [edi+4]
  00007	85 f6		 test	 esi, esi
  00009	74 14		 je	 SHORT $LN3@RemoveAll
  0000b	0f 1f 44 00 00	 npad	 5
$LL4@RemoveAll:

; 868  : 		pNode->data.~TYPE();

  00010	8d 4e 08	 lea	 ecx, DWORD PTR [esi+8]
  00013	ff 15 00 00 00
	00		 call	 DWORD PTR __imp_??1?$CStringT@DV?$StrTraitMFC_DLL@DV?$ChTraitsCRT@D@ATL@@@@@ATL@@QAE@XZ
  00019	8b 36		 mov	 esi, DWORD PTR [esi]
  0001b	85 f6		 test	 esi, esi
  0001d	75 f1		 jne	 SHORT $LL4@RemoveAll
$LN3@RemoveAll:

; 869  : 
; 870  : 	m_nCount = 0;
; 871  : 	m_pNodeHead = m_pNodeTail = m_pNodeFree = NULL;
; 872  : 	m_pBlocks->FreeDataChain();

  0001f	8b 4f 14	 mov	 ecx, DWORD PTR [edi+20]
  00022	c7 47 0c 00 00
	00 00		 mov	 DWORD PTR [edi+12], 0
  00029	c7 47 10 00 00
	00 00		 mov	 DWORD PTR [edi+16], 0
  00030	c7 47 08 00 00
	00 00		 mov	 DWORD PTR [edi+8], 0
  00037	c7 47 04 00 00
	00 00		 mov	 DWORD PTR [edi+4], 0
  0003e	e8 00 00 00 00	 call	 ?FreeDataChain@CPlex@@QAEXXZ ; CPlex::FreeDataChain

; 873  : 	m_pBlocks = NULL;

  00043	c7 47 14 00 00
	00 00		 mov	 DWORD PTR [edi+20], 0
  0004a	5f		 pop	 edi
  0004b	5e		 pop	 esi

; 874  : }

  0004c	c3		 ret	 0
?RemoveAll@?$CList@V?$CStringT@DV?$StrTraitMFC_DLL@DV?$ChTraitsCRT@D@ATL@@@@@ATL@@V12@@@QAEXXZ ENDP ; CList<ATL::CStringT<char,StrTraitMFC_DLL<char,ATL::ChTraitsCRT<char> > >,ATL::CStringT<char,StrTraitMFC_DLL<char,ATL::ChTraitsCRT<char> > > >::RemoveAll
_TEXT	ENDS
; Function compile flags: /Ogtp
; File C:\Program Files (x86)\Microsoft Visual Studio\2019\Community\VC\Tools\MSVC\14.29.30133\atlmfc\include\afxtempl.h
;	COMDAT ?AddTail@?$CList@V?$CStringT@DV?$StrTraitMFC_DLL@DV?$ChTraitsCRT@D@ATL@@@@@ATL@@V12@@@QAEPAU__POSITION@@V?$CStringT@DV?$StrTraitMFC_DLL@DV?$ChTraitsCRT@D@ATL@@@@@ATL@@@Z
_TEXT	SEGMENT
__$EHRec$ = -12						; size = 12
_newElement$ = 8					; size = 4
?AddTail@?$CList@V?$CStringT@DV?$StrTraitMFC_DLL@DV?$ChTraitsCRT@D@ATL@@@@@ATL@@V12@@@QAEPAU__POSITION@@V?$CStringT@DV?$StrTraitMFC_DLL@DV?$ChTraitsCRT@D@ATL@@@@@ATL@@@Z PROC ; CList<ATL::CStringT<char,StrTraitMFC_DLL<char,ATL::ChTraitsCRT<char> > >,ATL::CStringT<char,StrTraitMFC_DLL<char,ATL::ChTraitsCRT<char> > > >::AddTail, COMDAT
; _this$ = ecx

; 965  : {

  00000	55		 push	 ebp
  00001	8b ec		 mov	 ebp, esp
  00003	6a ff		 push	 -1
  00005	68 00 00 00 00	 push	 __ehhandler$?AddTail@?$CList@V?$CStringT@DV?$StrTraitMFC_DLL@DV?$ChTraitsCRT@D@ATL@@@@@ATL@@V12@@@QAEPAU__POSITION@@V?$CStringT@DV?$StrTraitMFC_DLL@DV?$ChTraitsCRT@D@ATL@@@@@ATL@@@Z
  0000a	64 a1 00 00 00
	00		 mov	 eax, DWORD PTR fs:0
  00010	50		 push	 eax
  00011	53		 push	 ebx
  00012	56		 push	 esi
  00013	57		 push	 edi
  00014	a1 00 00 00 00	 mov	 eax, DWORD PTR ___security_cookie
  00019	33 c5		 xor	 eax, ebp
  0001b	50		 push	 eax
  0001c	8d 45 f4	 lea	 eax, DWORD PTR __$EHRec$[ebp]
  0001f	64 a3 00 00 00
	00		 mov	 DWORD PTR fs:0, eax
  00025	8b f1		 mov	 esi, ecx

; 902  : 	if (m_pNodeFree == NULL)

  00027	83 7e 10 00	 cmp	 DWORD PTR [esi+16], 0

; 966  : 	ASSERT_VALID(this);
; 967  : 
; 968  : 	CNode* pNewNode = NewNode(m_pNodeTail, NULL);

  0002b	8b 7e 08	 mov	 edi, DWORD PTR [esi+8]
  0002e	c7 45 fc 00 00
	00 00		 mov	 DWORD PTR __$EHRec$[ebp+8], 0

; 902  : 	if (m_pNodeFree == NULL)

  00035	75 39		 jne	 SHORT $LN12@AddTail

; 903  : 	{
; 904  : 		// add another block
; 905  : 		CPlex* pNewBlock = CPlex::Create(m_pBlocks, m_nBlockSize,

  00037	6a 0c		 push	 12			; 0000000cH
  00039	ff 76 18	 push	 DWORD PTR [esi+24]
  0003c	8d 46 14	 lea	 eax, DWORD PTR [esi+20]
  0003f	50		 push	 eax
  00040	e8 00 00 00 00	 call	 ?Create@CPlex@@SGPAU1@AAPAU1@II@Z ; CPlex::Create

; 906  : 				 sizeof(CNode));
; 907  : 
; 908  : 		// chain them into free list
; 909  : 		CNode* pNode = (CNode*) pNewBlock->data();
; 910  : 		// free in reverse order to make it easier to debug
; 911  : 		pNode += m_nBlockSize - 1;

  00045	8b 56 18	 mov	 edx, DWORD PTR [esi+24]
  00048	83 c0 08	 add	 eax, 8
  0004b	8d 4a ff	 lea	 ecx, DWORD PTR [edx-1]

; 912  : 		for (INT_PTR i = m_nBlockSize-1; i >= 0; i--, pNode--)

  0004e	83 c2 ff	 add	 edx, -1
  00051	8d 0c 49	 lea	 ecx, DWORD PTR [ecx+ecx*2]
  00054	8d 0c 88	 lea	 ecx, DWORD PTR [eax+ecx*4]
  00057	78 17		 js	 SHORT $LN12@AddTail
  00059	0f 1f 80 00 00
	00 00		 npad	 7
$LL9@AddTail:

; 913  : 		{
; 914  : 			pNode->pNext = m_pNodeFree;

  00060	8b 46 10	 mov	 eax, DWORD PTR [esi+16]
  00063	89 01		 mov	 DWORD PTR [ecx], eax

; 915  : 			m_pNodeFree = pNode;

  00065	89 4e 10	 mov	 DWORD PTR [esi+16], ecx
  00068	83 e9 0c	 sub	 ecx, 12			; 0000000cH
  0006b	83 ea 01	 sub	 edx, 1
  0006e	79 f0		 jns	 SHORT $LL9@AddTail
$LN12@AddTail:

; 916  : 		}
; 917  : 	}
; 918  : 	ENSURE(m_pNodeFree != NULL);  // we must have something

  00070	8b 5e 10	 mov	 ebx, DWORD PTR [esi+16]
  00073	85 db		 test	 ebx, ebx
  00075	74 57		 je	 SHORT $LN24@AddTail

; 919  : 
; 920  : 	CList::CNode* pNode = m_pNodeFree;
; 921  : 	m_pNodeFree = m_pNodeFree->pNext;

  00077	8b 03		 mov	 eax, DWORD PTR [ebx]

; 922  : 	pNode->pPrev = pPrev;
; 923  : 	pNode->pNext = pNext;
; 924  : 	m_nCount++;
; 925  : 	ASSERT(m_nCount > 0);  // make sure we don't overflow
; 926  : 
; 927  : #pragma push_macro("new")
; 928  : #undef new
; 929  : 	::new( (void*)( &pNode->data ) ) TYPE;

  00079	8d 4b 08	 lea	 ecx, DWORD PTR [ebx+8]
  0007c	89 46 10	 mov	 DWORD PTR [esi+16], eax
  0007f	89 7b 04	 mov	 DWORD PTR [ebx+4], edi
  00082	c7 03 00 00 00
	00		 mov	 DWORD PTR [ebx], 0
  00088	ff 46 0c	 inc	 DWORD PTR [esi+12]
  0008b	ff 15 00 00 00
	00		 call	 DWORD PTR __imp_??0?$CStringT@DV?$StrTraitMFC_DLL@DV?$ChTraitsCRT@D@ATL@@@@@ATL@@QAE@XZ

; 969  : 	pNewNode->data = newElement;

  00091	8d 45 08	 lea	 eax, DWORD PTR _newElement$[ebp]
  00094	50		 push	 eax
  00095	8d 4b 08	 lea	 ecx, DWORD PTR [ebx+8]
  00098	ff 15 00 00 00
	00		 call	 DWORD PTR __imp_??4?$CStringT@DV?$StrTraitMFC_DLL@DV?$ChTraitsCRT@D@ATL@@@@@ATL@@QAEAAV01@ABV01@@Z

; 970  : 	if (m_pNodeTail != NULL)

  0009e	8b 46 08	 mov	 eax, DWORD PTR [esi+8]
  000a1	85 c0		 test	 eax, eax
  000a3	74 04		 je	 SHORT $LN2@AddTail

; 971  : 		m_pNodeTail->pNext = pNewNode;

  000a5	89 18		 mov	 DWORD PTR [eax], ebx
  000a7	eb 03		 jmp	 SHORT $LN3@AddTail
$LN2@AddTail:

; 972  : 	else
; 973  : 		m_pNodeHead = pNewNode;

  000a9	89 5e 04	 mov	 DWORD PTR [esi+4], ebx
$LN3@AddTail:

; 974  : 	m_pNodeTail = pNewNode;
; 975  : 	return (POSITION) pNewNode;

  000ac	8d 4d 08	 lea	 ecx, DWORD PTR _newElement$[ebp]
  000af	89 5e 08	 mov	 DWORD PTR [esi+8], ebx
  000b2	ff 15 00 00 00
	00		 call	 DWORD PTR __imp_??1?$CStringT@DV?$StrTraitMFC_DLL@DV?$ChTraitsCRT@D@ATL@@@@@ATL@@QAE@XZ
  000b8	8b c3		 mov	 eax, ebx

; 976  : }

  000ba	8b 4d f4	 mov	 ecx, DWORD PTR __$EHRec$[ebp]
  000bd	64 89 0d 00 00
	00 00		 mov	 DWORD PTR fs:0, ecx
  000c4	59		 pop	 ecx
  000c5	5f		 pop	 edi
  000c6	5e		 pop	 esi
  000c7	5b		 pop	 ebx
  000c8	8b e5		 mov	 esp, ebp
  000ca	5d		 pop	 ebp
  000cb	c2 04 00	 ret	 4
$LN24@AddTail:

; 918  : 	ENSURE(m_pNodeFree != NULL);  // we must have something

  000ce	e8 00 00 00 00	 call	 ?AfxThrowInvalidArgException@@YGXXZ ; AfxThrowInvalidArgException
$LN22@AddTail:
  000d3	cc		 int	 3
_TEXT	ENDS
;	COMDAT text$x
text$x	SEGMENT
__unwindfunclet$?AddTail@?$CList@V?$CStringT@DV?$StrTraitMFC_DLL@DV?$ChTraitsCRT@D@ATL@@@@@ATL@@V12@@@QAEPAU__POSITION@@V?$CStringT@DV?$StrTraitMFC_DLL@DV?$ChTraitsCRT@D@ATL@@@@@ATL@@@Z$0:
  00000	8d 4d 08	 lea	 ecx, DWORD PTR _newElement$[ebp]
  00003	ff 25 00 00 00
	00		 jmp	 DWORD PTR __imp_??1?$CStringT@DV?$StrTraitMFC_DLL@DV?$ChTraitsCRT@D@ATL@@@@@ATL@@QAE@XZ
  00009	cc		 int	 3
  0000a	cc		 int	 3
  0000b	cc		 int	 3
  0000c	cc		 int	 3
  0000d	cc		 int	 3
__ehhandler$?AddTail@?$CList@V?$CStringT@DV?$StrTraitMFC_DLL@DV?$ChTraitsCRT@D@ATL@@@@@ATL@@V12@@@QAEPAU__POSITION@@V?$CStringT@DV?$StrTraitMFC_DLL@DV?$ChTraitsCRT@D@ATL@@@@@ATL@@@Z:
  0000e	90		 npad	 1
  0000f	90		 npad	 1
  00010	8b 54 24 08	 mov	 edx, DWORD PTR [esp+8]
  00014	8d 42 0c	 lea	 eax, DWORD PTR [edx+12]
  00017	8b 4a f0	 mov	 ecx, DWORD PTR [edx-16]
  0001a	33 c8		 xor	 ecx, eax
  0001c	e8 00 00 00 00	 call	 @__security_check_cookie@4
  00021	b8 00 00 00 00	 mov	 eax, OFFSET __ehfuncinfo$?AddTail@?$CList@V?$CStringT@DV?$StrTraitMFC_DLL@DV?$ChTraitsCRT@D@ATL@@@@@ATL@@V12@@@QAEPAU__POSITION@@V?$CStringT@DV?$StrTraitMFC_DLL@DV?$ChTraitsCRT@D@ATL@@@@@ATL@@@Z
  00026	e9 00 00 00 00	 jmp	 ___CxxFrameHandler3
text$x	ENDS
?AddTail@?$CList@V?$CStringT@DV?$StrTraitMFC_DLL@DV?$ChTraitsCRT@D@ATL@@@@@ATL@@V12@@@QAEPAU__POSITION@@V?$CStringT@DV?$StrTraitMFC_DLL@DV?$ChTraitsCRT@D@ATL@@@@@ATL@@@Z ENDP ; CList<ATL::CStringT<char,StrTraitMFC_DLL<char,ATL::ChTraitsCRT<char> > >,ATL::CStringT<char,StrTraitMFC_DLL<char,ATL::ChTraitsCRT<char> > > >::AddTail
; Function compile flags: /Ogtp
;	COMDAT ??_ECIndicatorInfo@@UAEPAXI@Z
_TEXT	SEGMENT
__$EHRec$ = -12						; size = 12
___flags$ = 8						; size = 4
??_ECIndicatorInfo@@UAEPAXI@Z PROC			; CIndicatorInfo::`vector deleting destructor', COMDAT
; _this$ = ecx
  00000	55		 push	 ebp
  00001	8b ec		 mov	 ebp, esp
  00003	6a ff		 push	 -1
  00005	68 00 00 00 00	 push	 __ehhandler$??_ECIndicatorInfo@@UAEPAXI@Z
  0000a	64 a1 00 00 00
	00		 mov	 eax, DWORD PTR fs:0
  00010	50		 push	 eax
  00011	53		 push	 ebx
  00012	56		 push	 esi
  00013	57		 push	 edi
  00014	a1 00 00 00 00	 mov	 eax, DWORD PTR ___security_cookie
  00019	33 c5		 xor	 eax, ebp
  0001b	50		 push	 eax
  0001c	8d 45 f4	 lea	 eax, DWORD PTR __$EHRec$[ebp]
  0001f	64 a3 00 00 00
	00		 mov	 DWORD PTR fs:0, eax
  00025	8b f1		 mov	 esi, ecx
  00027	8b 45 08	 mov	 eax, DWORD PTR ___flags$[ebp]
  0002a	8b d8		 mov	 ebx, eax
  0002c	83 e3 01	 and	 ebx, 1
  0002f	a8 02		 test	 al, 2
  00031	74 40		 je	 SHORT $LN2@vector
  00033	68 00 00 00 00	 push	 OFFSET ??1CIndicatorInfo@@UAE@XZ ; CIndicatorInfo::~CIndicatorInfo
  00038	ff 76 fc	 push	 DWORD PTR [esi-4]
  0003b	8d 7e fc	 lea	 edi, DWORD PTR [esi-4]
  0003e	6a 08		 push	 8
  00040	56		 push	 esi
  00041	e8 00 00 00 00	 call	 ??_M@YGXPAXIIP6EX0@Z@Z
  00046	85 db		 test	 ebx, ebx
  00048	74 13		 je	 SHORT $LN3@vector
  0004a	8b 0f		 mov	 ecx, DWORD PTR [edi]
  0004c	8d 0c cd 04 00
	00 00		 lea	 ecx, DWORD PTR [ecx*8+4]
  00053	51		 push	 ecx
  00054	57		 push	 edi
  00055	e8 00 00 00 00	 call	 ??_V@YAXPAXI@Z		; operator delete[]
  0005a	83 c4 08	 add	 esp, 8
$LN3@vector:
  0005d	8b c7		 mov	 eax, edi
  0005f	8b 4d f4	 mov	 ecx, DWORD PTR __$EHRec$[ebp]
  00062	64 89 0d 00 00
	00 00		 mov	 DWORD PTR fs:0, ecx
  00069	59		 pop	 ecx
  0006a	5f		 pop	 edi
  0006b	5e		 pop	 esi
  0006c	5b		 pop	 ebx
  0006d	8b e5		 mov	 esp, ebp
  0006f	5d		 pop	 ebp
  00070	c2 04 00	 ret	 4
$LN2@vector:
  00073	e8 00 00 00 00	 call	 ??1CIndicatorInfo@@UAE@XZ ; CIndicatorInfo::~CIndicatorInfo
  00078	85 db		 test	 ebx, ebx
  0007a	74 0b		 je	 SHORT $LN4@vector
  0007c	6a 08		 push	 8
  0007e	56		 push	 esi
  0007f	e8 00 00 00 00	 call	 ??3@YAXPAXI@Z		; operator delete
  00084	83 c4 08	 add	 esp, 8
$LN4@vector:
  00087	8b c6		 mov	 eax, esi
  00089	8b 4d f4	 mov	 ecx, DWORD PTR __$EHRec$[ebp]
  0008c	64 89 0d 00 00
	00 00		 mov	 DWORD PTR fs:0, ecx
  00093	59		 pop	 ecx
  00094	5f		 pop	 edi
  00095	5e		 pop	 esi
  00096	5b		 pop	 ebx
  00097	8b e5		 mov	 esp, ebp
  00099	5d		 pop	 ebp
  0009a	c2 04 00	 ret	 4
  0009d	cc		 int	 3
  0009e	cc		 int	 3
  0009f	cc		 int	 3
  000a0	cc		 int	 3
  000a1	cc		 int	 3
_TEXT	ENDS
;	COMDAT text$x
text$x	SEGMENT
__ehhandler$??_ECIndicatorInfo@@UAEPAXI@Z:
  00000	90		 npad	 1
  00001	90		 npad	 1
  00002	8b 54 24 08	 mov	 edx, DWORD PTR [esp+8]
  00006	8d 42 0c	 lea	 eax, DWORD PTR [edx+12]
  00009	8b 4a f0	 mov	 ecx, DWORD PTR [edx-16]
  0000c	33 c8		 xor	 ecx, eax
  0000e	e8 00 00 00 00	 call	 @__security_check_cookie@4
  00013	b8 00 00 00 00	 mov	 eax, OFFSET __ehfuncinfo$??_ECIndicatorInfo@@UAEPAXI@Z
  00018	e9 00 00 00 00	 jmp	 ___CxxFrameHandler3
text$x	ENDS
??_ECIndicatorInfo@@UAEPAXI@Z ENDP			; CIndicatorInfo::`vector deleting destructor'
; Function compile flags: /Ogtp
;	COMDAT ??_GCIndicatorInfo@@UAEPAXI@Z
_TEXT	SEGMENT
___flags$ = 8						; size = 4
??_GCIndicatorInfo@@UAEPAXI@Z PROC			; CIndicatorInfo::`scalar deleting destructor', COMDAT
; _this$ = ecx
  00000	55		 push	 ebp
  00001	8b ec		 mov	 ebp, esp
  00003	56		 push	 esi
  00004	8b f1		 mov	 esi, ecx
  00006	e8 00 00 00 00	 call	 ??1CIndicatorInfo@@UAE@XZ ; CIndicatorInfo::~CIndicatorInfo
  0000b	f6 45 08 01	 test	 BYTE PTR ___flags$[ebp], 1
  0000f	74 0b		 je	 SHORT $LN4@scalar
  00011	6a 08		 push	 8
  00013	56		 push	 esi
  00014	e8 00 00 00 00	 call	 ??3@YAXPAXI@Z		; operator delete
  00019	83 c4 08	 add	 esp, 8
$LN4@scalar:
  0001c	8b c6		 mov	 eax, esi
  0001e	5e		 pop	 esi
  0001f	5d		 pop	 ebp
  00020	c2 04 00	 ret	 4
??_GCIndicatorInfo@@UAEPAXI@Z ENDP			; CIndicatorInfo::`scalar deleting destructor'
_TEXT	ENDS
; Function compile flags: /Ogtp
;	COMDAT ??4CIndicatorInfo@@QAEAAV0@ABV0@@Z
_TEXT	SEGMENT
___that$ = 8						; size = 4
??4CIndicatorInfo@@QAEAAV0@ABV0@@Z PROC			; CIndicatorInfo::operator=, COMDAT
; _this$ = ecx
  00000	55		 push	 ebp
  00001	8b ec		 mov	 ebp, esp
  00003	8b 45 08	 mov	 eax, DWORD PTR ___that$[ebp]
  00006	8b 40 04	 mov	 eax, DWORD PTR [eax+4]
  00009	89 41 04	 mov	 DWORD PTR [ecx+4], eax
  0000c	8b c1		 mov	 eax, ecx
  0000e	5d		 pop	 ebp
  0000f	c2 04 00	 ret	 4
??4CIndicatorInfo@@QAEAAV0@ABV0@@Z ENDP			; CIndicatorInfo::operator=
_TEXT	ENDS
; Function compile flags: /Ogtp
;	COMDAT ??0CIndicatorInfo@@QAE@ABV0@@Z
_TEXT	SEGMENT
___that$ = 8						; size = 4
??0CIndicatorInfo@@QAE@ABV0@@Z PROC			; CIndicatorInfo::CIndicatorInfo, COMDAT
; _this$ = ecx
  00000	55		 push	 ebp
  00001	8b ec		 mov	 ebp, esp
  00003	8b 45 08	 mov	 eax, DWORD PTR ___that$[ebp]
  00006	c7 01 00 00 00
	00		 mov	 DWORD PTR [ecx], OFFSET ??_7CIndicatorInfo@@6B@
  0000c	8b 40 04	 mov	 eax, DWORD PTR [eax+4]
  0000f	89 41 04	 mov	 DWORD PTR [ecx+4], eax
  00012	8b c1		 mov	 eax, ecx
  00014	5d		 pop	 ebp
  00015	c2 04 00	 ret	 4
??0CIndicatorInfo@@QAE@ABV0@@Z ENDP			; CIndicatorInfo::CIndicatorInfo
_TEXT	ENDS
; Function compile flags: /Ogtp
; File D:\git\src\IBK\IBK_DRFN\ProjSrc\SrcChartEx\ChartOCX\IndicatorCondition\IndicatorConditionBaseData.cpp
;	COMDAT ??_GCUserIndicatorList@@UAEPAXI@Z
_TEXT	SEGMENT
__$EHRec$ = -12						; size = 12
___flags$ = 8						; size = 4
??_GCUserIndicatorList@@UAEPAXI@Z PROC			; CUserIndicatorList::`scalar deleting destructor', COMDAT
; _this$ = ecx
  00000	55		 push	 ebp
  00001	8b ec		 mov	 ebp, esp
  00003	6a ff		 push	 -1
  00005	68 00 00 00 00	 push	 __ehhandler$??_GCUserIndicatorList@@UAEPAXI@Z
  0000a	64 a1 00 00 00
	00		 mov	 eax, DWORD PTR fs:0
  00010	50		 push	 eax
  00011	56		 push	 esi
  00012	a1 00 00 00 00	 mov	 eax, DWORD PTR ___security_cookie
  00017	33 c5		 xor	 eax, ebp
  00019	50		 push	 eax
  0001a	8d 45 f4	 lea	 eax, DWORD PTR __$EHRec$[ebp]
  0001d	64 a3 00 00 00
	00		 mov	 DWORD PTR fs:0, eax
  00023	8b f1		 mov	 esi, ecx

; 1141 : 	m_pGeneralMap->DeleteAll();

  00025	8b 4e 10	 mov	 ecx, DWORD PTR [esi+16]
  00028	c7 45 fc 00 00
	00 00		 mov	 DWORD PTR __$EHRec$[ebp+8], 0
  0002f	c7 06 00 00 00
	00		 mov	 DWORD PTR [esi], OFFSET ??_7CBaseIndicatorList@@6B@
  00035	e8 00 00 00 00	 call	 ?DeleteAll@CIndicatorInfoMap@@QAEHXZ ; CIndicatorInfoMap::DeleteAll

; 1142 : 	m_pSpecialMap->DeleteAll();

  0003a	8b 4e 14	 mov	 ecx, DWORD PTR [esi+20]
  0003d	e8 00 00 00 00	 call	 ?DeleteAll@CIndicatorInfoMap@@QAEHXZ ; CIndicatorInfoMap::DeleteAll

; 1143 : 	m_pNoneIndiMap->DeleteAll();

  00042	8b 4e 18	 mov	 ecx, DWORD PTR [esi+24]
  00045	e8 00 00 00 00	 call	 ?DeleteAll@CIndicatorInfoMap@@QAEHXZ ; CIndicatorInfoMap::DeleteAll

; 1144 : 
; 1145 : 	delete m_pGeneralMap;

  0004a	8b 4e 10	 mov	 ecx, DWORD PTR [esi+16]
  0004d	85 c9		 test	 ecx, ecx
  0004f	74 07		 je	 SHORT $LN9@scalar
  00051	8b 01		 mov	 eax, DWORD PTR [ecx]
  00053	6a 01		 push	 1
  00055	ff 50 04	 call	 DWORD PTR [eax+4]
$LN9@scalar:

; 1146 : 	delete m_pSpecialMap;

  00058	8b 4e 14	 mov	 ecx, DWORD PTR [esi+20]
  0005b	85 c9		 test	 ecx, ecx
  0005d	74 07		 je	 SHORT $LN11@scalar
  0005f	8b 01		 mov	 eax, DWORD PTR [ecx]
  00061	6a 01		 push	 1
  00063	ff 50 04	 call	 DWORD PTR [eax+4]
$LN11@scalar:

; 1147 : 	delete m_pNoneIndiMap; // none(default)

  00066	8b 4e 18	 mov	 ecx, DWORD PTR [esi+24]
  00069	85 c9		 test	 ecx, ecx
  0006b	74 07		 je	 SHORT $LN13@scalar
  0006d	8b 01		 mov	 eax, DWORD PTR [ecx]
  0006f	6a 01		 push	 1
  00071	ff 50 04	 call	 DWORD PTR [eax+4]
$LN13@scalar:
  00074	f6 45 08 01	 test	 BYTE PTR ___flags$[ebp], 1
  00078	74 0b		 je	 SHORT $LN16@scalar
  0007a	6a 28		 push	 40			; 00000028H
  0007c	56		 push	 esi
  0007d	e8 00 00 00 00	 call	 ??3@YAXPAXI@Z		; operator delete
  00082	83 c4 08	 add	 esp, 8
$LN16@scalar:
  00085	8b c6		 mov	 eax, esi
  00087	8b 4d f4	 mov	 ecx, DWORD PTR __$EHRec$[ebp]
  0008a	64 89 0d 00 00
	00 00		 mov	 DWORD PTR fs:0, ecx
  00091	59		 pop	 ecx
  00092	5e		 pop	 esi
  00093	8b e5		 mov	 esp, ebp
  00095	5d		 pop	 ebp
  00096	c2 04 00	 ret	 4
  00099	cc		 int	 3
  0009a	cc		 int	 3
  0009b	cc		 int	 3
  0009c	cc		 int	 3
  0009d	cc		 int	 3
_TEXT	ENDS
;	COMDAT text$x
text$x	SEGMENT
__ehhandler$??_GCUserIndicatorList@@UAEPAXI@Z:
  00000	90		 npad	 1
  00001	90		 npad	 1
  00002	8b 54 24 08	 mov	 edx, DWORD PTR [esp+8]
  00006	8d 42 0c	 lea	 eax, DWORD PTR [edx+12]
  00009	8b 4a f8	 mov	 ecx, DWORD PTR [edx-8]
  0000c	33 c8		 xor	 ecx, eax
  0000e	e8 00 00 00 00	 call	 @__security_check_cookie@4
  00013	b8 00 00 00 00	 mov	 eax, OFFSET __ehfuncinfo$??_GCUserIndicatorList@@UAEPAXI@Z
  00018	e9 00 00 00 00	 jmp	 ___CxxFrameHandler3
text$x	ENDS
??_GCUserIndicatorList@@UAEPAXI@Z ENDP			; CUserIndicatorList::`scalar deleting destructor'
; Function compile flags: /Ogtp
; File D:\git\src\IBK\IBK_DRFN\ProjSrc\SrcChartEx\ChartOCX\IndicatorCondition\IndicatorConditionBaseData.cpp
;	COMDAT ?GetWritingFileVersion@CUserIndicatorList@@IBENXZ
_TEXT	SEGMENT
?GetWritingFileVersion@CUserIndicatorList@@IBENXZ PROC	; CUserIndicatorList::GetWritingFileVersion, COMDAT
; _this$ = ecx

; 1514 : 	if(m_pDefaultIndiList == NULL)

  00000	8b 41 20	 mov	 eax, DWORD PTR [ecx+32]
  00003	85 c0		 test	 eax, eax
  00005	75 04		 jne	 SHORT $LN2@GetWriting

; 1515 : 		return CBaseIndicatorList::GetVersion();

  00007	dd 41 08	 fld	 QWORD PTR [ecx+8]

; 1518 : }

  0000a	c3		 ret	 0
$LN2@GetWriting:

; 1516 : 
; 1517 : 	return (m_pDefaultIndiList->GetVersion());

  0000b	dd 40 08	 fld	 QWORD PTR [eax+8]

; 1518 : }

  0000e	c3		 ret	 0
?GetWritingFileVersion@CUserIndicatorList@@IBENXZ ENDP	; CUserIndicatorList::GetWritingFileVersion
_TEXT	ENDS
; Function compile flags: /Ogtp
; File D:\git\src\IBK\IBK_DRFN\ProjSrc\SrcChartEx\ChartOCX\IndicatorCondition\IndicatorConditionBaseData.cpp
; File C:\Program Files (x86)\Microsoft Visual Studio\2019\Community\VC\Tools\MSVC\14.29.30133\atlmfc\include\afxcoll.inl
; File D:\git\src\IBK\IBK_DRFN\ProjSrc\SrcChartEx\ChartOCX\IndicatorCondition\IndicatorConditionBaseData.cpp
; File C:\Program Files (x86)\Microsoft Visual Studio\2019\Community\VC\Tools\MSVC\14.29.30133\atlmfc\include\afxcoll.inl
; File D:\git\src\IBK\IBK_DRFN\ProjSrc\SrcChartEx\ChartOCX\IndicatorCondition\IndicatorConditionBaseData.cpp
; File D:\git\src\IBK\IBK_DRFN\ProjSrc\SrcChartEx\ChartOCX\IndicatorCondition\FileBuilder.h
; File D:\git\src\IBK\IBK_DRFN\ProjSrc\SrcChartEx\ChartOCX\IndicatorCondition\IndicatorConditionBaseData.cpp
; File D:\git\src\IBK\IBK_DRFN\ProjSrc\SrcChartEx\ChartOCX\IndicatorCondition\FileBuilder.h
; File D:\git\src\IBK\IBK_DRFN\ProjSrc\SrcChartEx\ChartOCX\IndicatorCondition\IndicatorConditionBaseData.cpp
;	COMDAT ?GetWritingFileData@CUserIndicatorList@@QBEXAAVCStringList@@@Z
_TEXT	SEGMENT
$T2 = -20						; size = 8
__$EHRec$ = -12						; size = 12
$T3 = 8							; size = 4
_p_slDataString$ = 8					; size = 4
?GetWritingFileData@CUserIndicatorList@@QBEXAAVCStringList@@@Z PROC ; CUserIndicatorList::GetWritingFileData, COMDAT
; _this$ = ecx

; 1499 : {

  00000	55		 push	 ebp
  00001	8b ec		 mov	 ebp, esp
  00003	6a ff		 push	 -1
  00005	68 00 00 00 00	 push	 __ehhandler$?GetWritingFileData@CUserIndicatorList@@QBEXAAVCStringList@@@Z
  0000a	64 a1 00 00 00
	00		 mov	 eax, DWORD PTR fs:0
  00010	50		 push	 eax
  00011	83 ec 08	 sub	 esp, 8
  00014	56		 push	 esi
  00015	57		 push	 edi
  00016	a1 00 00 00 00	 mov	 eax, DWORD PTR ___security_cookie
  0001b	33 c5		 xor	 eax, ebp
  0001d	50		 push	 eax
  0001e	8d 45 f4	 lea	 eax, DWORD PTR __$EHRec$[ebp]
  00021	64 a3 00 00 00
	00		 mov	 DWORD PTR fs:0, eax
  00027	8b f9		 mov	 edi, ecx

; 1500 : 	p_slDataString.AddTail( "***** Indicator List : Ver ");

  00029	8b 75 08	 mov	 esi, DWORD PTR _p_slDataString$[ebp]
  0002c	8b ce		 mov	 ecx, esi
  0002e	68 00 00 00 00	 push	 OFFSET ??_C@_0BM@KJFALDEM@?$CK?$CK?$CK?$CK?$CK?5Indicator?5List?5?3?5Ver?5@
  00033	e8 00 00 00 00	 call	 ?AddTail@CStringList@@QAEPAU__POSITION@@PBD@Z ; CStringList::AddTail

; 1501 : 
; 1502 : 	p_slDataString.AddTail( CString());

  00038	8d 4d 08	 lea	 ecx, DWORD PTR $T3[ebp]
  0003b	ff 15 00 00 00
	00		 call	 DWORD PTR __imp_??0?$CStringT@DV?$StrTraitMFC_DLL@DV?$ChTraitsCRT@D@ATL@@@@@ATL@@QAE@XZ
  00041	50		 push	 eax
  00042	8b ce		 mov	 ecx, esi
  00044	c7 45 fc 00 00
	00 00		 mov	 DWORD PTR __$EHRec$[ebp+8], 0
  0004b	e8 00 00 00 00	 call	 ?AddTail@CStringList@@QAEPAU__POSITION@@ABV?$CStringT@DV?$StrTraitMFC_DLL@DV?$ChTraitsCRT@D@ATL@@@@@ATL@@@Z ; CStringList::AddTail
  00050	8d 4d 08	 lea	 ecx, DWORD PTR $T3[ebp]
  00053	c7 45 fc ff ff
	ff ff		 mov	 DWORD PTR __$EHRec$[ebp+8], -1
  0005a	ff 15 00 00 00
	00		 call	 DWORD PTR __imp_??1?$CStringT@DV?$StrTraitMFC_DLL@DV?$ChTraitsCRT@D@ATL@@@@@ATL@@QAE@XZ
; File C:\Program Files (x86)\Microsoft Visual Studio\2019\Community\VC\Tools\MSVC\14.29.30133\atlmfc\include\afxcoll.inl

; 492  : 		return m_pNodeTail->data; }

  00060	8b 4e 08	 mov	 ecx, DWORD PTR [esi+8]
; File D:\git\src\IBK\IBK_DRFN\ProjSrc\SrcChartEx\ChartOCX\IndicatorCondition\IndicatorConditionBaseData.cpp

; 1514 : 	if(m_pDefaultIndiList == NULL)

  00063	8b 47 20	 mov	 eax, DWORD PTR [edi+32]
; File C:\Program Files (x86)\Microsoft Visual Studio\2019\Community\VC\Tools\MSVC\14.29.30133\atlmfc\include\afxcoll.inl

; 492  : 		return m_pNodeTail->data; }

  00066	83 c1 08	 add	 ecx, 8
; File D:\git\src\IBK\IBK_DRFN\ProjSrc\SrcChartEx\ChartOCX\IndicatorCondition\IndicatorConditionBaseData.cpp

; 1514 : 	if(m_pDefaultIndiList == NULL)

  00069	85 c0		 test	 eax, eax
  0006b	75 07		 jne	 SHORT $LN7@GetWriting

; 1515 : 		return CBaseIndicatorList::GetVersion();

  0006d	f2 0f 10 47 08	 movsd	 xmm0, QWORD PTR [edi+8]
  00072	eb 05		 jmp	 SHORT $LN6@GetWriting
$LN7@GetWriting:

; 1516 : 
; 1517 : 	return (m_pDefaultIndiList->GetVersion());

  00074	f2 0f 10 40 08	 movsd	 xmm0, QWORD PTR [eax+8]
$LN6@GetWriting:

; 1503 : 	CString &strVer = p_slDataString.GetTail();
; 1504 : 	strVer.Format( "%.2f", GetWritingFileVersion());

  00079	83 ec 08	 sub	 esp, 8
  0007c	f2 0f 11 04 24	 movsd	 QWORD PTR [esp], xmm0
  00081	68 00 00 00 00	 push	 OFFSET ??_C@_04GEFJINEE@?$CF?42f@
  00086	51		 push	 ecx
  00087	ff 15 00 00 00
	00		 call	 DWORD PTR __imp_?Format@?$CStringT@DV?$StrTraitMFC_DLL@DV?$ChTraitsCRT@D@ATL@@@@@ATL@@QAAXPBDZZ
  0008d	83 c4 10	 add	 esp, 16			; 00000010H

; 1505 : 
; 1506 : 	p_slDataString.AddTail( " *****\r\n");

  00090	8b ce		 mov	 ecx, esi
  00092	68 00 00 00 00	 push	 OFFSET ??_C@_08IIICFEMI@?5?$CK?$CK?$CK?$CK?$CK?$AN?6@
  00097	e8 00 00 00 00	 call	 ?AddTail@CStringList@@QAEPAU__POSITION@@PBD@Z ; CStringList::AddTail
; File D:\git\src\IBK\IBK_DRFN\ProjSrc\SrcChartEx\ChartOCX\IndicatorCondition\FileBuilder.h

; 49   : 		{	m_hOcxWnd = p_hOcxWnd;	}

  0009c	8b 47 24	 mov	 eax, DWORD PTR [edi+36]
; File D:\git\src\IBK\IBK_DRFN\ProjSrc\SrcChartEx\ChartOCX\IndicatorCondition\IndicatorConditionBaseData.cpp

; 1507 : 	CDefaultUserTypeIndiListBuilder( m_hOcxWnd).GetWritingFileData( *this, p_slDataString);

  0009f	8d 4d ec	 lea	 ecx, DWORD PTR $T2[ebp]
  000a2	56		 push	 esi
  000a3	57		 push	 edi
; File D:\git\src\IBK\IBK_DRFN\ProjSrc\SrcChartEx\ChartOCX\IndicatorCondition\FileBuilder.h

; 49   : 		{	m_hOcxWnd = p_hOcxWnd;	}

  000a4	89 45 f0	 mov	 DWORD PTR $T2[ebp+4], eax

; 150  : 	CDefaultUserTypeIndiListBuilder( HWND p_hOcxWnd) : CDefaultIndicatorListBuilder( p_hOcxWnd)		{}

  000a7	c7 45 ec 00 00
	00 00		 mov	 DWORD PTR $T2[ebp], OFFSET ??_7CDefaultUserTypeIndiListBuilder@@6B@
; File D:\git\src\IBK\IBK_DRFN\ProjSrc\SrcChartEx\ChartOCX\IndicatorCondition\IndicatorConditionBaseData.cpp

; 1507 : 	CDefaultUserTypeIndiListBuilder( m_hOcxWnd).GetWritingFileData( *this, p_slDataString);

  000ae	e8 00 00 00 00	 call	 ?GetWritingFileData@CDefaultUserTypeIndiListBuilder@@QBEXABVCUserIndicatorList@@AAVCStringList@@@Z ; CDefaultUserTypeIndiListBuilder::GetWritingFileData

; 1508 : 	p_slDataString.AddTail( "\r\n***** File End *****\r\n");

  000b3	68 00 00 00 00	 push	 OFFSET ??_C@_0BJ@MDCENAHP@?$AN?6?$CK?$CK?$CK?$CK?$CK?5File?5End?5?$CK?$CK?$CK?$CK?$CK?$AN?6@
  000b8	8b ce		 mov	 ecx, esi
  000ba	e8 00 00 00 00	 call	 ?AddTail@CStringList@@QAEPAU__POSITION@@PBD@Z ; CStringList::AddTail

; 1509 : }

  000bf	8b 4d f4	 mov	 ecx, DWORD PTR __$EHRec$[ebp]
  000c2	64 89 0d 00 00
	00 00		 mov	 DWORD PTR fs:0, ecx
  000c9	59		 pop	 ecx
  000ca	5f		 pop	 edi
  000cb	5e		 pop	 esi
  000cc	8b e5		 mov	 esp, ebp
  000ce	5d		 pop	 ebp
  000cf	c2 04 00	 ret	 4
_TEXT	ENDS
;	COMDAT text$x
text$x	SEGMENT
__unwindfunclet$?GetWritingFileData@CUserIndicatorList@@QBEXAAVCStringList@@@Z$0:
  00000	8d 4d 08	 lea	 ecx, DWORD PTR $T3[ebp]
  00003	ff 25 00 00 00
	00		 jmp	 DWORD PTR __imp_??1?$CStringT@DV?$StrTraitMFC_DLL@DV?$ChTraitsCRT@D@ATL@@@@@ATL@@QAE@XZ
  00009	cc		 int	 3
  0000a	cc		 int	 3
  0000b	cc		 int	 3
  0000c	cc		 int	 3
  0000d	cc		 int	 3
__ehhandler$?GetWritingFileData@CUserIndicatorList@@QBEXAAVCStringList@@@Z:
  0000e	90		 npad	 1
  0000f	90		 npad	 1
  00010	8b 54 24 08	 mov	 edx, DWORD PTR [esp+8]
  00014	8d 42 0c	 lea	 eax, DWORD PTR [edx+12]
  00017	8b 4a ec	 mov	 ecx, DWORD PTR [edx-20]
  0001a	33 c8		 xor	 ecx, eax
  0001c	e8 00 00 00 00	 call	 @__security_check_cookie@4
  00021	b8 00 00 00 00	 mov	 eax, OFFSET __ehfuncinfo$?GetWritingFileData@CUserIndicatorList@@QBEXAAVCStringList@@@Z
  00026	e9 00 00 00 00	 jmp	 ___CxxFrameHandler3
text$x	ENDS
?GetWritingFileData@CUserIndicatorList@@QBEXAAVCStringList@@@Z ENDP ; CUserIndicatorList::GetWritingFileData
; Function compile flags: /Ogtp
; File D:\git\src\IBK\IBK_DRFN\ProjSrc\SrcChartEx\ChartOCX\IndicatorCondition\IndicatorConditionBaseData.cpp
;	COMDAT ?GetDefaultVersion@CUserIndicatorList@@IBENXZ
_TEXT	SEGMENT
?GetDefaultVersion@CUserIndicatorList@@IBENXZ PROC	; CUserIndicatorList::GetDefaultVersion, COMDAT
; _this$ = ecx

; 1491 : 	if(m_pDefaultIndiList == NULL)

  00000	8b 41 20	 mov	 eax, DWORD PTR [ecx+32]
  00003	85 c0		 test	 eax, eax
  00005	75 03		 jne	 SHORT $LN2@GetDefault

; 1492 : 		return 0.0;

  00007	d9 ee		 fldz

; 1495 : }

  00009	c3		 ret	 0
$LN2@GetDefault:

; 1493 : 
; 1494 : 	return (m_pDefaultIndiList->GetVersion());

  0000a	dd 40 08	 fld	 QWORD PTR [eax+8]

; 1495 : }

  0000d	c3		 ret	 0
?GetDefaultVersion@CUserIndicatorList@@IBENXZ ENDP	; CUserIndicatorList::GetDefaultVersion
_TEXT	ENDS
; Function compile flags: /Ogtp
; File D:\git\src\IBK\IBK_DRFN\ProjSrc\SrcChartEx\ChartOCX\IndicatorCondition\IndicatorConditionBaseData.cpp
; File D:\git\src\IBK\IBK_DRFN\ProjSrc\SrcChartEx\ChartOCX\IndicatorCondition\FileBuilder.h
; File D:\git\src\IBK\IBK_DRFN\ProjSrc\SrcChartEx\ChartOCX\IndicatorCondition\IndicatorConditionBaseData.cpp
; File D:\git\src\IBK\IBK_DRFN\ProjSrc\SrcChartEx\ChartOCX\IndicatorCondition\FileBuilder.h
; File D:\git\src\IBK\IBK_DRFN\ProjSrc\SrcChartEx\ChartOCX\IndicatorCondition\IndicatorConditionBaseData.cpp
;	COMDAT ?AddIndiInfoFromCfgString@CUserIndicatorList@@QAE_NPAVCIndicatorList@@AAPAD_N@Z
_TEXT	SEGMENT
$T2 = -64						; size = 44
$T3 = -20						; size = 8
__$EHRec$ = -12						; size = 12
_pIndicatorList$ = 8					; size = 4
_p_szDataString$ = 12					; size = 4
_dDoesDeleteOldData$ = 16				; size = 1
?AddIndiInfoFromCfgString@CUserIndicatorList@@QAE_NPAVCIndicatorList@@AAPAD_N@Z PROC ; CUserIndicatorList::AddIndiInfoFromCfgString, COMDAT
; _this$ = ecx

; 1440 : {

  00000	55		 push	 ebp
  00001	8b ec		 mov	 ebp, esp
  00003	6a ff		 push	 -1
  00005	68 00 00 00 00	 push	 __ehhandler$?AddIndiInfoFromCfgString@CUserIndicatorList@@QAE_NPAVCIndicatorList@@AAPAD_N@Z
  0000a	64 a1 00 00 00
	00		 mov	 eax, DWORD PTR fs:0
  00010	50		 push	 eax
  00011	83 ec 34	 sub	 esp, 52			; 00000034H
  00014	53		 push	 ebx
  00015	56		 push	 esi
  00016	57		 push	 edi
  00017	a1 00 00 00 00	 mov	 eax, DWORD PTR ___security_cookie
  0001c	33 c5		 xor	 eax, ebp
  0001e	50		 push	 eax
  0001f	8d 45 f4	 lea	 eax, DWORD PTR __$EHRec$[ebp]
  00022	64 a3 00 00 00
	00		 mov	 DWORD PTR fs:0, eax
  00028	8b f1		 mov	 esi, ecx

; 1441 : 	if( !CBaseIndicatorList::SetVersion( p_szDataString)) return false;

  0002a	8b 7d 0c	 mov	 edi, DWORD PTR _p_szDataString$[ebp]
  0002d	57		 push	 edi
  0002e	e8 00 00 00 00	 call	 ?SetVersion@CBaseIndicatorList@@QAE_NAAPAD@Z ; CBaseIndicatorList::SetVersion
  00033	84 c0		 test	 al, al
  00035	0f 84 17 02 00
	00		 je	 $LN9@AddIndiInf

; 1442 : 
; 1443 : 	bool bResult = false;
; 1444 : 	//  data .
; 1445 : 	if(dDoesDeleteOldData)

  0003b	80 7d 10 00	 cmp	 BYTE PTR _dDoesDeleteOldData$[ebp], 0
  0003f	74 18		 je	 SHORT $LN24@AddIndiInf

; 1241 : 		m_pGeneralMap->DeleteAll();

  00041	8b 4e 10	 mov	 ecx, DWORD PTR [esi+16]
  00044	e8 00 00 00 00	 call	 ?DeleteAll@CIndicatorInfoMap@@QAEHXZ ; CIndicatorInfoMap::DeleteAll

; 1242 : 		m_pSpecialMap->DeleteAll();

  00049	8b 4e 14	 mov	 ecx, DWORD PTR [esi+20]
  0004c	e8 00 00 00 00	 call	 ?DeleteAll@CIndicatorInfoMap@@QAEHXZ ; CIndicatorInfoMap::DeleteAll

; 1243 : 		m_pNoneIndiMap->DeleteAll();

  00051	8b 4e 18	 mov	 ecx, DWORD PTR [esi+24]
  00054	e8 00 00 00 00	 call	 ?DeleteAll@CIndicatorInfoMap@@QAEHXZ ; CIndicatorInfoMap::DeleteAll
$LN24@AddIndiInf:

; 1446 : 	{
; 1447 : 		bResult = CBaseIndicatorList::DeleteAll(CBaseIndicatorList::ALL);
; 1448 : 	}
; 1449 : 
; 1450 : 	// file 
; 1451 : 	double dUserVersion = CBaseIndicatorList::GetVersion();

  00059	f2 0f 10 4e 08	 movsd	 xmm1, QWORD PTR [esi+8]
  0005e	0f 57 c0	 xorps	 xmm0, xmm0

; 1452 : 	if(dUserVersion <= 0.0 || !p_szDataString) return false;

  00061	66 0f 2f c1	 comisd	 xmm0, xmm1
  00065	0f 83 e7 01 00
	00		 jae	 $LN9@AddIndiInf
  0006b	83 3f 00	 cmp	 DWORD PTR [edi], 0
  0006e	0f 84 de 01 00
	00		 je	 $LN9@AddIndiInf

; 1491 : 	if(m_pDefaultIndiList == NULL)

  00074	8b 4e 20	 mov	 ecx, DWORD PTR [esi+32]
  00077	85 c9		 test	 ecx, ecx
  00079	74 05		 je	 SHORT $LN31@AddIndiInf

; 1492 : 		return 0.0;
; 1493 : 
; 1494 : 	return (m_pDefaultIndiList->GetVersion());

  0007b	f2 0f 10 41 08	 movsd	 xmm0, QWORD PTR [ecx+8]
$LN31@AddIndiInf:

; 1453 : 
; 1454 : 	//    
; 1455 : 	if( dUserVersion == GetDefaultVersion())

  00080	66 0f 2e c8	 ucomisd xmm1, xmm0
  00084	9f		 lahf
  00085	f6 c4 44	 test	 ah, 68			; 00000044H
  00088	7a 2b		 jp	 SHORT $LN10@AddIndiInf
; File D:\git\src\IBK\IBK_DRFN\ProjSrc\SrcChartEx\ChartOCX\IndicatorCondition\FileBuilder.h

; 49   : 		{	m_hOcxWnd = p_hOcxWnd;	}

  0008a	8b 46 24	 mov	 eax, DWORD PTR [esi+36]
; File D:\git\src\IBK\IBK_DRFN\ProjSrc\SrcChartEx\ChartOCX\IndicatorCondition\IndicatorConditionBaseData.cpp

; 1456 : 		return CDefaultUserTypeIndiListBuilder( m_hOcxWnd).FileDataBuild( this, p_szDataString);

  0008d	8d 4d ec	 lea	 ecx, DWORD PTR $T3[ebp]
  00090	57		 push	 edi
  00091	56		 push	 esi
; File D:\git\src\IBK\IBK_DRFN\ProjSrc\SrcChartEx\ChartOCX\IndicatorCondition\FileBuilder.h

; 49   : 		{	m_hOcxWnd = p_hOcxWnd;	}

  00092	89 45 f0	 mov	 DWORD PTR $T3[ebp+4], eax

; 150  : 	CDefaultUserTypeIndiListBuilder( HWND p_hOcxWnd) : CDefaultIndicatorListBuilder( p_hOcxWnd)		{}

  00095	c7 45 ec 00 00
	00 00		 mov	 DWORD PTR $T3[ebp], OFFSET ??_7CDefaultUserTypeIndiListBuilder@@6B@
; File D:\git\src\IBK\IBK_DRFN\ProjSrc\SrcChartEx\ChartOCX\IndicatorCondition\IndicatorConditionBaseData.cpp

; 1456 : 		return CDefaultUserTypeIndiListBuilder( m_hOcxWnd).FileDataBuild( this, p_szDataString);

  0009c	e8 00 00 00 00	 call	 ?FileDataBuild@CDefaultIndicatorListBuilder@@UAE_NPAVCBaseIndicatorList@@AAPAD@Z ; CDefaultIndicatorListBuilder::FileDataBuild

; 1486 : }

  000a1	8b 4d f4	 mov	 ecx, DWORD PTR __$EHRec$[ebp]
  000a4	64 89 0d 00 00
	00 00		 mov	 DWORD PTR fs:0, ecx
  000ab	59		 pop	 ecx
  000ac	5f		 pop	 edi
  000ad	5e		 pop	 esi
  000ae	5b		 pop	 ebx
  000af	8b e5		 mov	 esp, ebp
  000b1	5d		 pop	 ebp
  000b2	c2 0c 00	 ret	 12			; 0000000cH
$LN10@AddIndiInf:

; 1457 : 
; 1458 : 	//   3.21  
; 1459 : 	if( dUserVersion > 3.2 && dUserVersion < 3.3)

  000b5	66 0f 2f 0d 00
	00 00 00	 comisd	 xmm1, QWORD PTR __real@400999999999999a
  000bd	76 4e		 jbe	 SHORT $LN43@AddIndiInf
  000bf	f2 0f 10 05 00
	00 00 00	 movsd	 xmm0, QWORD PTR __real@400a666666666666
  000c7	66 0f 2f c1	 comisd	 xmm0, xmm1
  000cb	76 40		 jbe	 SHORT $LN43@AddIndiInf

; 1460 : 	{
; 1461 : 		// (2006/6/1 - Seung-Won, Bae) Manage static for Operation Map Init.
; 1462 : 		static CUserVer3Dot21TypeIndiListBuilder dilBuilder( m_pDefaultIndiList, m_hOcxWnd);

  000cd	64 a1 00 00 00
	00		 mov	 eax, DWORD PTR fs:__tls_array
  000d3	8b 0d 00 00 00
	00		 mov	 ecx, DWORD PTR __tls_index
  000d9	8b 0c 88	 mov	 ecx, DWORD PTR [eax+ecx*4]
  000dc	a1 00 00 00 00	 mov	 eax, DWORD PTR ?$TSS0@?O@??AddIndiInfoFromCfgString@CUserIndicatorList@@QAE_NPAVCIndicatorList@@AAPAD_N@Z@4HA
  000e1	3b 81 00 00 00
	00		 cmp	 eax, DWORD PTR __Init_thread_epoch[ecx]
  000e7	0f 8f 7b 01 00
	00		 jg	 $LN47@AddIndiInf
$LN2@AddIndiInf:

; 1463 : 		return dilBuilder.FileDataBuild( this, p_szDataString);

  000ed	57		 push	 edi
  000ee	56		 push	 esi
  000ef	b9 00 00 00 00	 mov	 ecx, OFFSET ?dilBuilder@?O@??AddIndiInfoFromCfgString@CUserIndicatorList@@QAE_NPAVCIndicatorList@@AAPAD_N@Z@4VCUserVer3Dot21TypeIndiListBuilder@@A
  000f4	e8 00 00 00 00	 call	 ?FileDataBuild@CNotDefaultUserTypeIndiListBuilder@@UAE_NPAVCBaseIndicatorList@@AAPAD@Z ; CNotDefaultUserTypeIndiListBuilder::FileDataBuild

; 1486 : }

  000f9	8b 4d f4	 mov	 ecx, DWORD PTR __$EHRec$[ebp]
  000fc	64 89 0d 00 00
	00 00		 mov	 DWORD PTR fs:0, ecx
  00103	59		 pop	 ecx
  00104	5f		 pop	 edi
  00105	5e		 pop	 esi
  00106	5b		 pop	 ebx
  00107	8b e5		 mov	 esp, ebp
  00109	5d		 pop	 ebp
  0010a	c2 0c 00	 ret	 12			; 0000000cH
$LN43@AddIndiInf:

; 1464 : 	}
; 1465 : 	else if( dUserVersion > 4.9 && dUserVersion < 5.1)

  0010d	66 0f 2f 0d 00
	00 00 00	 comisd	 xmm1, QWORD PTR __real@401399999999999a
  00115	76 4e		 jbe	 SHORT $LN44@AddIndiInf
  00117	f2 0f 10 05 00
	00 00 00	 movsd	 xmm0, QWORD PTR __real@4014666666666666
  0011f	66 0f 2f c1	 comisd	 xmm0, xmm1
  00123	76 40		 jbe	 SHORT $LN44@AddIndiInf

; 1466 : 	{
; 1467 : 		static CUserVer5Dot00TypeIndiListBuilder dilBuilder( m_pDefaultIndiList, m_hOcxWnd);

  00125	64 a1 00 00 00
	00		 mov	 eax, DWORD PTR fs:__tls_array
  0012b	8b 0d 00 00 00
	00		 mov	 ecx, DWORD PTR __tls_index
  00131	8b 0c 88	 mov	 ecx, DWORD PTR [eax+ecx*4]
  00134	a1 00 00 00 00	 mov	 eax, DWORD PTR ?$TSS1@?BC@??AddIndiInfoFromCfgString@CUserIndicatorList@@QAE_NPAVCIndicatorList@@AAPAD_N@Z@4HA
  00139	3b 81 00 00 00
	00		 cmp	 eax, DWORD PTR __Init_thread_epoch[ecx]
  0013f	0f 8f 77 01 00
	00		 jg	 $LN48@AddIndiInf
$LN3@AddIndiInf:

; 1468 : 		return dilBuilder.FileDataBuild(  this ,p_szDataString);

  00145	57		 push	 edi
  00146	56		 push	 esi
  00147	b9 00 00 00 00	 mov	 ecx, OFFSET ?dilBuilder@?BC@??AddIndiInfoFromCfgString@CUserIndicatorList@@QAE_NPAVCIndicatorList@@AAPAD_N@Z@4VCUserVer5Dot00TypeIndiListBuilder@@A
  0014c	e8 00 00 00 00	 call	 ?FileDataBuild@CNotDefaultUserTypeIndiListBuilder@@UAE_NPAVCBaseIndicatorList@@AAPAD@Z ; CNotDefaultUserTypeIndiListBuilder::FileDataBuild

; 1486 : }

  00151	8b 4d f4	 mov	 ecx, DWORD PTR __$EHRec$[ebp]
  00154	64 89 0d 00 00
	00 00		 mov	 DWORD PTR fs:0, ecx
  0015b	59		 pop	 ecx
  0015c	5f		 pop	 edi
  0015d	5e		 pop	 esi
  0015e	5b		 pop	 ebx
  0015f	8b e5		 mov	 esp, ebp
  00161	5d		 pop	 ebp
  00162	c2 0c 00	 ret	 12			; 0000000cH
$LN44@AddIndiInf:

; 1469 : 	}
; 1470 : 
; 1471 : 	else if( dUserVersion > 5.0 && dUserVersion < 5.2)

  00165	66 0f 2f 0d 00
	00 00 00	 comisd	 xmm1, QWORD PTR __real@4014000000000000
  0016d	76 4e		 jbe	 SHORT $LN15@AddIndiInf
  0016f	f2 0f 10 05 00
	00 00 00	 movsd	 xmm0, QWORD PTR __real@4014cccccccccccd
  00177	66 0f 2f c1	 comisd	 xmm0, xmm1
  0017b	76 40		 jbe	 SHORT $LN15@AddIndiInf

; 1472 : 	{
; 1473 : 		static CUserVer5Dot10TypeIndiListBuilder dilBuilder( m_pDefaultIndiList, m_hOcxWnd);

  0017d	64 a1 00 00 00
	00		 mov	 eax, DWORD PTR fs:__tls_array
  00183	8b 0d 00 00 00
	00		 mov	 ecx, DWORD PTR __tls_index
  00189	8b 0c 88	 mov	 ecx, DWORD PTR [eax+ecx*4]
  0018c	a1 00 00 00 00	 mov	 eax, DWORD PTR ?$TSS2@?BG@??AddIndiInfoFromCfgString@CUserIndicatorList@@QAE_NPAVCIndicatorList@@AAPAD_N@Z@4HA
  00191	3b 81 00 00 00
	00		 cmp	 eax, DWORD PTR __Init_thread_epoch[ecx]
  00197	0f 8f 73 01 00
	00		 jg	 $LN49@AddIndiInf
$LN4@AddIndiInf:

; 1474 : 		return dilBuilder.FileDataBuild(  this ,p_szDataString);

  0019d	57		 push	 edi
  0019e	56		 push	 esi
  0019f	b9 00 00 00 00	 mov	 ecx, OFFSET ?dilBuilder@?BG@??AddIndiInfoFromCfgString@CUserIndicatorList@@QAE_NPAVCIndicatorList@@AAPAD_N@Z@4VCUserVer5Dot10TypeIndiListBuilder@@A
  001a4	e8 00 00 00 00	 call	 ?FileDataBuild@CNotDefaultUserTypeIndiListBuilder@@UAE_NPAVCBaseIndicatorList@@AAPAD@Z ; CNotDefaultUserTypeIndiListBuilder::FileDataBuild

; 1486 : }

  001a9	8b 4d f4	 mov	 ecx, DWORD PTR __$EHRec$[ebp]
  001ac	64 89 0d 00 00
	00 00		 mov	 DWORD PTR fs:0, ecx
  001b3	59		 pop	 ecx
  001b4	5f		 pop	 edi
  001b5	5e		 pop	 esi
  001b6	5b		 pop	 ebx
  001b7	8b e5		 mov	 esp, ebp
  001b9	5d		 pop	 ebp
  001ba	c2 0c 00	 ret	 12			; 0000000cH
$LN15@AddIndiInf:

; 1475 : 	}
; 1476 : 
; 1477 : 	// (2008/6/13 - Seung-Won, Bae) for BuySellOverhaningSupply's Draw Option
; 1478 : 	else if( dUserVersion > 5.199 && dUserVersion < 5.210)

  001bd	66 0f 2f 0d 00
	00 00 00	 comisd	 xmm1, QWORD PTR __real@4014cbc6a7ef9db2
  001c5	76 4e		 jbe	 SHORT $LN17@AddIndiInf
  001c7	f2 0f 10 05 00
	00 00 00	 movsd	 xmm0, QWORD PTR __real@4014d70a3d70a3d7
  001cf	66 0f 2f c1	 comisd	 xmm0, xmm1
  001d3	76 40		 jbe	 SHORT $LN17@AddIndiInf

; 1479 : 	{
; 1480 : 		static CUserVer5Dot20TypeIndiListBuilder dilBuilder( m_pDefaultIndiList, m_hOcxWnd);

  001d5	64 a1 00 00 00
	00		 mov	 eax, DWORD PTR fs:__tls_array
  001db	8b 0d 00 00 00
	00		 mov	 ecx, DWORD PTR __tls_index
  001e1	8b 0c 88	 mov	 ecx, DWORD PTR [eax+ecx*4]
  001e4	a1 00 00 00 00	 mov	 eax, DWORD PTR ?$TSS3@?BK@??AddIndiInfoFromCfgString@CUserIndicatorList@@QAE_NPAVCIndicatorList@@AAPAD_N@Z@4HA
  001e9	3b 81 00 00 00
	00		 cmp	 eax, DWORD PTR __Init_thread_epoch[ecx]
  001ef	0f 8f 6f 01 00
	00		 jg	 $LN50@AddIndiInf
$LN5@AddIndiInf:

; 1481 : 		return dilBuilder.FileDataBuild(  this ,p_szDataString);

  001f5	57		 push	 edi
  001f6	56		 push	 esi
  001f7	b9 00 00 00 00	 mov	 ecx, OFFSET ?dilBuilder@?BK@??AddIndiInfoFromCfgString@CUserIndicatorList@@QAE_NPAVCIndicatorList@@AAPAD_N@Z@4VCUserVer5Dot20TypeIndiListBuilder@@A
  001fc	e8 00 00 00 00	 call	 ?FileDataBuild@CNotDefaultUserTypeIndiListBuilder@@UAE_NPAVCBaseIndicatorList@@AAPAD@Z ; CNotDefaultUserTypeIndiListBuilder::FileDataBuild

; 1486 : }

  00201	8b 4d f4	 mov	 ecx, DWORD PTR __$EHRec$[ebp]
  00204	64 89 0d 00 00
	00 00		 mov	 DWORD PTR fs:0, ecx
  0020b	59		 pop	 ecx
  0020c	5f		 pop	 edi
  0020d	5e		 pop	 esi
  0020e	5b		 pop	 ebx
  0020f	8b e5		 mov	 esp, ebp
  00211	5d		 pop	 ebp
  00212	c2 0c 00	 ret	 12			; 0000000cH
$LN17@AddIndiInf:

; 1482 : 	}
; 1483 : 
; 1484 : 	//     
; 1485 : 	return CNotDefaultUserTypeIndiListBuilder( m_pDefaultIndiList, m_hOcxWnd).FileDataBuild( this, p_szDataString);

  00215	ff 76 24	 push	 DWORD PTR [esi+36]
  00218	51		 push	 ecx
  00219	8d 4d c0	 lea	 ecx, DWORD PTR $T2[ebp]
  0021c	e8 00 00 00 00	 call	 ??0CNotDefaultUserTypeIndiListBuilder@@QAE@PAVCDefaultIndicatorList@@PAUHWND__@@@Z ; CNotDefaultUserTypeIndiListBuilder::CNotDefaultUserTypeIndiListBuilder
  00221	8b c8		 mov	 ecx, eax
  00223	8b 01		 mov	 eax, DWORD PTR [ecx]
  00225	57		 push	 edi
  00226	56		 push	 esi
  00227	c7 45 fc 04 00
	00 00		 mov	 DWORD PTR __$EHRec$[ebp+8], 4
  0022e	8b 00		 mov	 eax, DWORD PTR [eax]
  00230	ff d0		 call	 eax
  00232	8d 4d d0	 lea	 ecx, DWORD PTR $T2[ebp+16]
  00235	8a d8		 mov	 bl, al
  00237	e8 00 00 00 00	 call	 ??1CMapStringToString@@UAE@XZ ; CMapStringToString::~CMapStringToString
  0023c	8a c3		 mov	 al, bl

; 1486 : }

  0023e	8b 4d f4	 mov	 ecx, DWORD PTR __$EHRec$[ebp]
  00241	64 89 0d 00 00
	00 00		 mov	 DWORD PTR fs:0, ecx
  00248	59		 pop	 ecx
  00249	5f		 pop	 edi
  0024a	5e		 pop	 esi
  0024b	5b		 pop	 ebx
  0024c	8b e5		 mov	 esp, ebp
  0024e	5d		 pop	 ebp
  0024f	c2 0c 00	 ret	 12			; 0000000cH
$LN9@AddIndiInf:

; 1452 : 	if(dUserVersion <= 0.0 || !p_szDataString) return false;

  00252	32 c0		 xor	 al, al

; 1486 : }

  00254	8b 4d f4	 mov	 ecx, DWORD PTR __$EHRec$[ebp]
  00257	64 89 0d 00 00
	00 00		 mov	 DWORD PTR fs:0, ecx
  0025e	59		 pop	 ecx
  0025f	5f		 pop	 edi
  00260	5e		 pop	 esi
  00261	5b		 pop	 ebx
  00262	8b e5		 mov	 esp, ebp
  00264	5d		 pop	 ebp
  00265	c2 0c 00	 ret	 12			; 0000000cH
$LN47@AddIndiInf:

; 1460 : 	{
; 1461 : 		// (2006/6/1 - Seung-Won, Bae) Manage static for Operation Map Init.
; 1462 : 		static CUserVer3Dot21TypeIndiListBuilder dilBuilder( m_pDefaultIndiList, m_hOcxWnd);

  00268	68 00 00 00 00	 push	 OFFSET ?$TSS0@?O@??AddIndiInfoFromCfgString@CUserIndicatorList@@QAE_NPAVCIndicatorList@@AAPAD_N@Z@4HA
  0026d	e8 00 00 00 00	 call	 __Init_thread_header
  00272	83 c4 04	 add	 esp, 4
  00275	83 3d 00 00 00
	00 ff		 cmp	 DWORD PTR ?$TSS0@?O@??AddIndiInfoFromCfgString@CUserIndicatorList@@QAE_NPAVCIndicatorList@@AAPAD_N@Z@4HA, -1
  0027c	0f 85 6b fe ff
	ff		 jne	 $LN2@AddIndiInf
  00282	ff 76 24	 push	 DWORD PTR [esi+36]
  00285	b9 00 00 00 00	 mov	 ecx, OFFSET ?dilBuilder@?O@??AddIndiInfoFromCfgString@CUserIndicatorList@@QAE_NPAVCIndicatorList@@AAPAD_N@Z@4VCUserVer3Dot21TypeIndiListBuilder@@A
  0028a	c7 45 fc 00 00
	00 00		 mov	 DWORD PTR __$EHRec$[ebp+8], 0
  00291	ff 76 20	 push	 DWORD PTR [esi+32]
  00294	e8 00 00 00 00	 call	 ??0CUserVer3Dot21TypeIndiListBuilder@@QAE@PAVCDefaultIndicatorList@@PAUHWND__@@@Z ; CUserVer3Dot21TypeIndiListBuilder::CUserVer3Dot21TypeIndiListBuilder
  00299	68 00 00 00 00	 push	 OFFSET ??__FdilBuilder@?O@??AddIndiInfoFromCfgString@CUserIndicatorList@@QAE_NPAVCIndicatorList@@AAPAD_N@Z@YAXXZ ; `CUserIndicatorList::AddIndiInfoFromCfgString'::`14'::`dynamic atexit destructor for 'dilBuilder''
  0029e	e8 00 00 00 00	 call	 _atexit
  002a3	68 00 00 00 00	 push	 OFFSET ?$TSS0@?O@??AddIndiInfoFromCfgString@CUserIndicatorList@@QAE_NPAVCIndicatorList@@AAPAD_N@Z@4HA
  002a8	c7 45 fc ff ff
	ff ff		 mov	 DWORD PTR __$EHRec$[ebp+8], -1
  002af	e8 00 00 00 00	 call	 __Init_thread_footer
  002b4	83 c4 08	 add	 esp, 8
  002b7	e9 31 fe ff ff	 jmp	 $LN2@AddIndiInf
$LN48@AddIndiInf:

; 1466 : 	{
; 1467 : 		static CUserVer5Dot00TypeIndiListBuilder dilBuilder( m_pDefaultIndiList, m_hOcxWnd);

  002bc	68 00 00 00 00	 push	 OFFSET ?$TSS1@?BC@??AddIndiInfoFromCfgString@CUserIndicatorList@@QAE_NPAVCIndicatorList@@AAPAD_N@Z@4HA
  002c1	e8 00 00 00 00	 call	 __Init_thread_header
  002c6	83 c4 04	 add	 esp, 4
  002c9	83 3d 00 00 00
	00 ff		 cmp	 DWORD PTR ?$TSS1@?BC@??AddIndiInfoFromCfgString@CUserIndicatorList@@QAE_NPAVCIndicatorList@@AAPAD_N@Z@4HA, -1
  002d0	0f 85 6f fe ff
	ff		 jne	 $LN3@AddIndiInf
  002d6	ff 76 24	 push	 DWORD PTR [esi+36]
  002d9	b9 00 00 00 00	 mov	 ecx, OFFSET ?dilBuilder@?BC@??AddIndiInfoFromCfgString@CUserIndicatorList@@QAE_NPAVCIndicatorList@@AAPAD_N@Z@4VCUserVer5Dot00TypeIndiListBuilder@@A
  002de	c7 45 fc 01 00
	00 00		 mov	 DWORD PTR __$EHRec$[ebp+8], 1
  002e5	ff 76 20	 push	 DWORD PTR [esi+32]
  002e8	e8 00 00 00 00	 call	 ??0CUserVer5Dot00TypeIndiListBuilder@@QAE@PAVCDefaultIndicatorList@@PAUHWND__@@@Z ; CUserVer5Dot00TypeIndiListBuilder::CUserVer5Dot00TypeIndiListBuilder
  002ed	68 00 00 00 00	 push	 OFFSET ??__FdilBuilder@?BC@??AddIndiInfoFromCfgString@CUserIndicatorList@@QAE_NPAVCIndicatorList@@AAPAD_N@Z@YAXXZ ; `CUserIndicatorList::AddIndiInfoFromCfgString'::`18'::`dynamic atexit destructor for 'dilBuilder''
  002f2	e8 00 00 00 00	 call	 _atexit
  002f7	68 00 00 00 00	 push	 OFFSET ?$TSS1@?BC@??AddIndiInfoFromCfgString@CUserIndicatorList@@QAE_NPAVCIndicatorList@@AAPAD_N@Z@4HA
  002fc	c7 45 fc ff ff
	ff ff		 mov	 DWORD PTR __$EHRec$[ebp+8], -1
  00303	e8 00 00 00 00	 call	 __Init_thread_footer
  00308	83 c4 08	 add	 esp, 8
  0030b	e9 35 fe ff ff	 jmp	 $LN3@AddIndiInf
$LN49@AddIndiInf:

; 1472 : 	{
; 1473 : 		static CUserVer5Dot10TypeIndiListBuilder dilBuilder( m_pDefaultIndiList, m_hOcxWnd);

  00310	68 00 00 00 00	 push	 OFFSET ?$TSS2@?BG@??AddIndiInfoFromCfgString@CUserIndicatorList@@QAE_NPAVCIndicatorList@@AAPAD_N@Z@4HA
  00315	e8 00 00 00 00	 call	 __Init_thread_header
  0031a	83 c4 04	 add	 esp, 4
  0031d	83 3d 00 00 00
	00 ff		 cmp	 DWORD PTR ?$TSS2@?BG@??AddIndiInfoFromCfgString@CUserIndicatorList@@QAE_NPAVCIndicatorList@@AAPAD_N@Z@4HA, -1
  00324	0f 85 73 fe ff
	ff		 jne	 $LN4@AddIndiInf
  0032a	ff 76 24	 push	 DWORD PTR [esi+36]
  0032d	b9 00 00 00 00	 mov	 ecx, OFFSET ?dilBuilder@?BG@??AddIndiInfoFromCfgString@CUserIndicatorList@@QAE_NPAVCIndicatorList@@AAPAD_N@Z@4VCUserVer5Dot10TypeIndiListBuilder@@A
  00332	c7 45 fc 02 00
	00 00		 mov	 DWORD PTR __$EHRec$[ebp+8], 2
  00339	ff 76 20	 push	 DWORD PTR [esi+32]
  0033c	e8 00 00 00 00	 call	 ??0CUserVer5Dot10TypeIndiListBuilder@@QAE@PAVCDefaultIndicatorList@@PAUHWND__@@@Z ; CUserVer5Dot10TypeIndiListBuilder::CUserVer5Dot10TypeIndiListBuilder
  00341	68 00 00 00 00	 push	 OFFSET ??__FdilBuilder@?BG@??AddIndiInfoFromCfgString@CUserIndicatorList@@QAE_NPAVCIndicatorList@@AAPAD_N@Z@YAXXZ ; `CUserIndicatorList::AddIndiInfoFromCfgString'::`22'::`dynamic atexit destructor for 'dilBuilder''
  00346	e8 00 00 00 00	 call	 _atexit
  0034b	68 00 00 00 00	 push	 OFFSET ?$TSS2@?BG@??AddIndiInfoFromCfgString@CUserIndicatorList@@QAE_NPAVCIndicatorList@@AAPAD_N@Z@4HA
  00350	c7 45 fc ff ff
	ff ff		 mov	 DWORD PTR __$EHRec$[ebp+8], -1
  00357	e8 00 00 00 00	 call	 __Init_thread_footer
  0035c	83 c4 08	 add	 esp, 8
  0035f	e9 39 fe ff ff	 jmp	 $LN4@AddIndiInf
$LN50@AddIndiInf:

; 1479 : 	{
; 1480 : 		static CUserVer5Dot20TypeIndiListBuilder dilBuilder( m_pDefaultIndiList, m_hOcxWnd);

  00364	68 00 00 00 00	 push	 OFFSET ?$TSS3@?BK@??AddIndiInfoFromCfgString@CUserIndicatorList@@QAE_NPAVCIndicatorList@@AAPAD_N@Z@4HA
  00369	e8 00 00 00 00	 call	 __Init_thread_header
  0036e	83 c4 04	 add	 esp, 4
  00371	83 3d 00 00 00
	00 ff		 cmp	 DWORD PTR ?$TSS3@?BK@??AddIndiInfoFromCfgString@CUserIndicatorList@@QAE_NPAVCIndicatorList@@AAPAD_N@Z@4HA, -1
  00378	0f 85 77 fe ff
	ff		 jne	 $LN5@AddIndiInf
  0037e	ff 76 24	 push	 DWORD PTR [esi+36]
  00381	b9 00 00 00 00	 mov	 ecx, OFFSET ?dilBuilder@?BK@??AddIndiInfoFromCfgString@CUserIndicatorList@@QAE_NPAVCIndicatorList@@AAPAD_N@Z@4VCUserVer5Dot20TypeIndiListBuilder@@A
  00386	c7 45 fc 03 00
	00 00		 mov	 DWORD PTR __$EHRec$[ebp+8], 3
  0038d	ff 76 20	 push	 DWORD PTR [esi+32]
  00390	e8 00 00 00 00	 call	 ??0CUserVer5Dot20TypeIndiListBuilder@@QAE@PAVCDefaultIndicatorList@@PAUHWND__@@@Z ; CUserVer5Dot20TypeIndiListBuilder::CUserVer5Dot20TypeIndiListBuilder
  00395	68 00 00 00 00	 push	 OFFSET ??__FdilBuilder@?BK@??AddIndiInfoFromCfgString@CUserIndicatorList@@QAE_NPAVCIndicatorList@@AAPAD_N@Z@YAXXZ ; `CUserIndicatorList::AddIndiInfoFromCfgString'::`26'::`dynamic atexit destructor for 'dilBuilder''
  0039a	e8 00 00 00 00	 call	 _atexit
  0039f	68 00 00 00 00	 push	 OFFSET ?$TSS3@?BK@??AddIndiInfoFromCfgString@CUserIndicatorList@@QAE_NPAVCIndicatorList@@AAPAD_N@Z@4HA
  003a4	c7 45 fc ff ff
	ff ff		 mov	 DWORD PTR __$EHRec$[ebp+8], -1
  003ab	e8 00 00 00 00	 call	 __Init_thread_footer
  003b0	83 c4 08	 add	 esp, 8
  003b3	e9 3d fe ff ff	 jmp	 $LN5@AddIndiInf
_TEXT	ENDS
;	COMDAT text$x
text$x	SEGMENT
__unwindfunclet$?AddIndiInfoFromCfgString@CUserIndicatorList@@QAE_NPAVCIndicatorList@@AAPAD_N@Z$4:
  00000	8d 4d c0	 lea	 ecx, DWORD PTR $T2[ebp]
  00003	e9 00 00 00 00	 jmp	 ??1CNotDefaultUserTypeIndiListBuilder@@QAE@XZ
__unwindfunclet$?AddIndiInfoFromCfgString@CUserIndicatorList@@QAE_NPAVCIndicatorList@@AAPAD_N@Z$0:
  00008	68 00 00 00 00	 push	 OFFSET ?$TSS0@?O@??AddIndiInfoFromCfgString@CUserIndicatorList@@QAE_NPAVCIndicatorList@@AAPAD_N@Z@4HA
  0000d	e8 00 00 00 00	 call	 __Init_thread_abort
  00012	59		 pop	 ecx
  00013	c3		 ret	 0
__unwindfunclet$?AddIndiInfoFromCfgString@CUserIndicatorList@@QAE_NPAVCIndicatorList@@AAPAD_N@Z$1:
  00014	68 00 00 00 00	 push	 OFFSET ?$TSS1@?BC@??AddIndiInfoFromCfgString@CUserIndicatorList@@QAE_NPAVCIndicatorList@@AAPAD_N@Z@4HA
  00019	e8 00 00 00 00	 call	 __Init_thread_abort
  0001e	59		 pop	 ecx
  0001f	c3		 ret	 0
__unwindfunclet$?AddIndiInfoFromCfgString@CUserIndicatorList@@QAE_NPAVCIndicatorList@@AAPAD_N@Z$2:
  00020	68 00 00 00 00	 push	 OFFSET ?$TSS2@?BG@??AddIndiInfoFromCfgString@CUserIndicatorList@@QAE_NPAVCIndicatorList@@AAPAD_N@Z@4HA
  00025	e8 00 00 00 00	 call	 __Init_thread_abort
  0002a	59		 pop	 ecx
  0002b	c3		 ret	 0
__unwindfunclet$?AddIndiInfoFromCfgString@CUserIndicatorList@@QAE_NPAVCIndicatorList@@AAPAD_N@Z$3:
  0002c	68 00 00 00 00	 push	 OFFSET ?$TSS3@?BK@??AddIndiInfoFromCfgString@CUserIndicatorList@@QAE_NPAVCIndicatorList@@AAPAD_N@Z@4HA
  00031	e8 00 00 00 00	 call	 __Init_thread_abort
  00036	59		 pop	 ecx
  00037	c3		 ret	 0
  00038	cc		 int	 3
  00039	cc		 int	 3
  0003a	cc		 int	 3
  0003b	cc		 int	 3
  0003c	cc		 int	 3
__ehhandler$?AddIndiInfoFromCfgString@CUserIndicatorList@@QAE_NPAVCIndicatorList@@AAPAD_N@Z:
  0003d	90		 npad	 1
  0003e	90		 npad	 1
  0003f	8b 54 24 08	 mov	 edx, DWORD PTR [esp+8]
  00043	8d 42 0c	 lea	 eax, DWORD PTR [edx+12]
  00046	8b 4a bc	 mov	 ecx, DWORD PTR [edx-68]
  00049	33 c8		 xor	 ecx, eax
  0004b	e8 00 00 00 00	 call	 @__security_check_cookie@4
  00050	b8 00 00 00 00	 mov	 eax, OFFSET __ehfuncinfo$?AddIndiInfoFromCfgString@CUserIndicatorList@@QAE_NPAVCIndicatorList@@AAPAD_N@Z
  00055	e9 00 00 00 00	 jmp	 ___CxxFrameHandler3
text$x	ENDS
?AddIndiInfoFromCfgString@CUserIndicatorList@@QAE_NPAVCIndicatorList@@AAPAD_N@Z ENDP ; CUserIndicatorList::AddIndiInfoFromCfgString
; Function compile flags: /Ogtp
; File D:\git\src\IBK\IBK_DRFN\ProjSrc\SrcChartEx\ChartOCX\IndicatorCondition\IndicatorConditionBaseData.cpp
;	COMDAT ??0CUserIndicatorList@@QAE@PAVCDefaultIndicatorList@@W4EIndicatorListType@@PAUHWND__@@@Z
_TEXT	SEGMENT
_this$ = -4						; size = 4
_pDefaultIndiList$ = 8					; size = 4
_p_eIndicatorListType$ = 12				; size = 4
_p_hOcxWnd$ = 16					; size = 4
??0CUserIndicatorList@@QAE@PAVCDefaultIndicatorList@@W4EIndicatorListType@@PAUHWND__@@@Z PROC ; CUserIndicatorList::CUserIndicatorList, COMDAT
; _this$ = ecx

; 1430 : {

  00000	55		 push	 ebp
  00001	8b ec		 mov	 ebp, esp
  00003	51		 push	 ecx
  00004	56		 push	 esi
  00005	ff 75 0c	 push	 DWORD PTR _p_eIndicatorListType$[ebp]
  00008	8b f1		 mov	 esi, ecx
  0000a	89 75 fc	 mov	 DWORD PTR _this$[ebp], esi
  0000d	e8 00 00 00 00	 call	 ??0CBaseIndicatorList@@QAE@W4EIndicatorListType@@@Z ; CBaseIndicatorList::CBaseIndicatorList

; 1431 : 	m_pDefaultIndiList = pDefaultIndiList;

  00012	8b 45 08	 mov	 eax, DWORD PTR _pDefaultIndiList$[ebp]
  00015	89 46 20	 mov	 DWORD PTR [esi+32], eax

; 1432 : 
; 1433 : 	// (2008/1/14 - Seung-Won, Bae) for MultiLanguage.
; 1434 : 	m_hOcxWnd = p_hOcxWnd;

  00018	8b 45 10	 mov	 eax, DWORD PTR _p_hOcxWnd$[ebp]
  0001b	89 46 24	 mov	 DWORD PTR [esi+36], eax

; 1435 : }

  0001e	8b c6		 mov	 eax, esi
  00020	c7 06 00 00 00
	00		 mov	 DWORD PTR [esi], OFFSET ??_7CUserIndicatorList@@6B@
  00026	5e		 pop	 esi
  00027	8b e5		 mov	 esp, ebp
  00029	5d		 pop	 ebp
  0002a	c2 0c 00	 ret	 12			; 0000000cH
??0CUserIndicatorList@@QAE@PAVCDefaultIndicatorList@@W4EIndicatorListType@@PAUHWND__@@@Z ENDP ; CUserIndicatorList::CUserIndicatorList
_TEXT	ENDS
; Function compile flags: /Ogtp
; File D:\git\src\IBK\IBK_DRFN\ProjSrc\SrcChartEx\ChartOCX\IndicatorCondition\IndicatorConditionBaseData.cpp
;	COMDAT ??_GCDefaultIndicatorList@@UAEPAXI@Z
_TEXT	SEGMENT
__$EHRec$ = -12						; size = 12
___flags$ = 8						; size = 4
??_GCDefaultIndicatorList@@UAEPAXI@Z PROC		; CDefaultIndicatorList::`scalar deleting destructor', COMDAT
; _this$ = ecx
  00000	55		 push	 ebp
  00001	8b ec		 mov	 ebp, esp
  00003	6a ff		 push	 -1
  00005	68 00 00 00 00	 push	 __ehhandler$??_GCDefaultIndicatorList@@UAEPAXI@Z
  0000a	64 a1 00 00 00
	00		 mov	 eax, DWORD PTR fs:0
  00010	50		 push	 eax
  00011	56		 push	 esi
  00012	a1 00 00 00 00	 mov	 eax, DWORD PTR ___security_cookie
  00017	33 c5		 xor	 eax, ebp
  00019	50		 push	 eax
  0001a	8d 45 f4	 lea	 eax, DWORD PTR __$EHRec$[ebp]
  0001d	64 a3 00 00 00
	00		 mov	 DWORD PTR fs:0, eax
  00023	8b f1		 mov	 esi, ecx

; 1141 : 	m_pGeneralMap->DeleteAll();

  00025	8b 4e 10	 mov	 ecx, DWORD PTR [esi+16]
  00028	c7 45 fc 00 00
	00 00		 mov	 DWORD PTR __$EHRec$[ebp+8], 0
  0002f	c7 06 00 00 00
	00		 mov	 DWORD PTR [esi], OFFSET ??_7CBaseIndicatorList@@6B@
  00035	e8 00 00 00 00	 call	 ?DeleteAll@CIndicatorInfoMap@@QAEHXZ ; CIndicatorInfoMap::DeleteAll

; 1142 : 	m_pSpecialMap->DeleteAll();

  0003a	8b 4e 14	 mov	 ecx, DWORD PTR [esi+20]
  0003d	e8 00 00 00 00	 call	 ?DeleteAll@CIndicatorInfoMap@@QAEHXZ ; CIndicatorInfoMap::DeleteAll

; 1143 : 	m_pNoneIndiMap->DeleteAll();

  00042	8b 4e 18	 mov	 ecx, DWORD PTR [esi+24]
  00045	e8 00 00 00 00	 call	 ?DeleteAll@CIndicatorInfoMap@@QAEHXZ ; CIndicatorInfoMap::DeleteAll

; 1144 : 
; 1145 : 	delete m_pGeneralMap;

  0004a	8b 4e 10	 mov	 ecx, DWORD PTR [esi+16]
  0004d	85 c9		 test	 ecx, ecx
  0004f	74 07		 je	 SHORT $LN9@scalar
  00051	8b 01		 mov	 eax, DWORD PTR [ecx]
  00053	6a 01		 push	 1
  00055	ff 50 04	 call	 DWORD PTR [eax+4]
$LN9@scalar:

; 1146 : 	delete m_pSpecialMap;

  00058	8b 4e 14	 mov	 ecx, DWORD PTR [esi+20]
  0005b	85 c9		 test	 ecx, ecx
  0005d	74 07		 je	 SHORT $LN11@scalar
  0005f	8b 01		 mov	 eax, DWORD PTR [ecx]
  00061	6a 01		 push	 1
  00063	ff 50 04	 call	 DWORD PTR [eax+4]
$LN11@scalar:

; 1147 : 	delete m_pNoneIndiMap; // none(default)

  00066	8b 4e 18	 mov	 ecx, DWORD PTR [esi+24]
  00069	85 c9		 test	 ecx, ecx
  0006b	74 07		 je	 SHORT $LN13@scalar
  0006d	8b 01		 mov	 eax, DWORD PTR [ecx]
  0006f	6a 01		 push	 1
  00071	ff 50 04	 call	 DWORD PTR [eax+4]
$LN13@scalar:
  00074	f6 45 08 01	 test	 BYTE PTR ___flags$[ebp], 1
  00078	74 0b		 je	 SHORT $LN16@scalar
  0007a	6a 20		 push	 32			; 00000020H
  0007c	56		 push	 esi
  0007d	e8 00 00 00 00	 call	 ??3@YAXPAXI@Z		; operator delete
  00082	83 c4 08	 add	 esp, 8
$LN16@scalar:
  00085	8b c6		 mov	 eax, esi
  00087	8b 4d f4	 mov	 ecx, DWORD PTR __$EHRec$[ebp]
  0008a	64 89 0d 00 00
	00 00		 mov	 DWORD PTR fs:0, ecx
  00091	59		 pop	 ecx
  00092	5e		 pop	 esi
  00093	8b e5		 mov	 esp, ebp
  00095	5d		 pop	 ebp
  00096	c2 04 00	 ret	 4
  00099	cc		 int	 3
  0009a	cc		 int	 3
  0009b	cc		 int	 3
  0009c	cc		 int	 3
  0009d	cc		 int	 3
_TEXT	ENDS
;	COMDAT text$x
text$x	SEGMENT
__ehhandler$??_GCDefaultIndicatorList@@UAEPAXI@Z:
  00000	90		 npad	 1
  00001	90		 npad	 1
  00002	8b 54 24 08	 mov	 edx, DWORD PTR [esp+8]
  00006	8d 42 0c	 lea	 eax, DWORD PTR [edx+12]
  00009	8b 4a f8	 mov	 ecx, DWORD PTR [edx-8]
  0000c	33 c8		 xor	 ecx, eax
  0000e	e8 00 00 00 00	 call	 @__security_check_cookie@4
  00013	b8 00 00 00 00	 mov	 eax, OFFSET __ehfuncinfo$??_GCDefaultIndicatorList@@UAEPAXI@Z
  00018	e9 00 00 00 00	 jmp	 ___CxxFrameHandler3
text$x	ENDS
??_GCDefaultIndicatorList@@UAEPAXI@Z ENDP		; CDefaultIndicatorList::`scalar deleting destructor'
; Function compile flags: /Ogtp
; File D:\git\src\IBK\IBK_DRFN\ProjSrc\SrcChartEx\ChartOCX\IndicatorCondition\IndicatorConditionBaseData.cpp
;	COMDAT ?AddIndiInfoFromCfgString@CDefaultIndicatorList@@QAE_NPAVCIndicatorList@@PAVCGraphTypeAndStyleData@@AAPADPAUHWND__@@@Z
_TEXT	SEGMENT
_fileBuilder$ = -12					; size = 12
_pIndicatorList$ = 8					; size = 4
_pGraphTypeAndStyleData$ = 12				; size = 4
_p_szDataString$ = 16					; size = 4
_p_hOcxWnd$ = 20					; size = 4
?AddIndiInfoFromCfgString@CDefaultIndicatorList@@QAE_NPAVCIndicatorList@@PAVCGraphTypeAndStyleData@@AAPADPAUHWND__@@@Z PROC ; CDefaultIndicatorList::AddIndiInfoFromCfgString, COMDAT
; _this$ = ecx

; 1416 : {

  00000	55		 push	 ebp
  00001	8b ec		 mov	 ebp, esp
  00003	83 ec 0c	 sub	 esp, 12			; 0000000cH
  00006	56		 push	 esi

; 1417 : 	if( !CBaseIndicatorList::SetVersion( p_szDataString)) return false;

  00007	ff 75 10	 push	 DWORD PTR _p_szDataString$[ebp]
  0000a	8b f1		 mov	 esi, ecx
  0000c	e8 00 00 00 00	 call	 ?SetVersion@CBaseIndicatorList@@QAE_NAAPAD@Z ; CBaseIndicatorList::SetVersion
  00011	84 c0		 test	 al, al
  00013	75 07		 jne	 SHORT $LN2@AddIndiInf
  00015	5e		 pop	 esi

; 1423 : }

  00016	8b e5		 mov	 esp, ebp
  00018	5d		 pop	 ebp
  00019	c2 10 00	 ret	 16			; 00000010H
$LN2@AddIndiInf:

; 1241 : 		m_pGeneralMap->DeleteAll();

  0001c	8b 4e 10	 mov	 ecx, DWORD PTR [esi+16]
  0001f	e8 00 00 00 00	 call	 ?DeleteAll@CIndicatorInfoMap@@QAEHXZ ; CIndicatorInfoMap::DeleteAll

; 1242 : 		m_pSpecialMap->DeleteAll();

  00024	8b 4e 14	 mov	 ecx, DWORD PTR [esi+20]
  00027	e8 00 00 00 00	 call	 ?DeleteAll@CIndicatorInfoMap@@QAEHXZ ; CIndicatorInfoMap::DeleteAll

; 1243 : 		m_pNoneIndiMap->DeleteAll();

  0002c	8b 4e 18	 mov	 ecx, DWORD PTR [esi+24]
  0002f	e8 00 00 00 00	 call	 ?DeleteAll@CIndicatorInfoMap@@QAEHXZ ; CIndicatorInfoMap::DeleteAll

; 1418 : 
; 1419 : 	DeleteAll(CBaseIndicatorList::ALL);
; 1420 : 
; 1421 : 	CDefaultTypeIndiListBuilder fileBuilder( pGraphTypeAndStyleData, p_hOcxWnd);

  00034	ff 75 14	 push	 DWORD PTR _p_hOcxWnd$[ebp]
  00037	8d 4d f4	 lea	 ecx, DWORD PTR _fileBuilder$[ebp]
  0003a	ff 75 0c	 push	 DWORD PTR _pGraphTypeAndStyleData$[ebp]
  0003d	e8 00 00 00 00	 call	 ??0CDefaultTypeIndiListBuilder@@QAE@PAVCGraphTypeAndStyleData@@PAUHWND__@@@Z ; CDefaultTypeIndiListBuilder::CDefaultTypeIndiListBuilder

; 1422 : 	return fileBuilder.FileDataBuild( this, p_szDataString);

  00042	ff 75 10	 push	 DWORD PTR _p_szDataString$[ebp]
  00045	8d 4d f4	 lea	 ecx, DWORD PTR _fileBuilder$[ebp]
  00048	56		 push	 esi
  00049	e8 00 00 00 00	 call	 ?FileDataBuild@CDefaultIndicatorListBuilder@@UAE_NPAVCBaseIndicatorList@@AAPAD@Z ; CDefaultIndicatorListBuilder::FileDataBuild
  0004e	5e		 pop	 esi

; 1423 : }

  0004f	8b e5		 mov	 esp, ebp
  00051	5d		 pop	 ebp
  00052	c2 10 00	 ret	 16			; 00000010H
?AddIndiInfoFromCfgString@CDefaultIndicatorList@@QAE_NPAVCIndicatorList@@PAVCGraphTypeAndStyleData@@AAPADPAUHWND__@@@Z ENDP ; CDefaultIndicatorList::AddIndiInfoFromCfgString
_TEXT	ENDS
; Function compile flags: /Ogtp
; File D:\git\src\IBK\IBK_DRFN\ProjSrc\SrcChartEx\ChartOCX\IndicatorCondition\IndicatorConditionBaseData.cpp
;	COMDAT ??1CDefaultIndicatorList@@UAE@XZ
_TEXT	SEGMENT
__$EHRec$ = -12						; size = 12
??1CDefaultIndicatorList@@UAE@XZ PROC			; CDefaultIndicatorList::~CDefaultIndicatorList, COMDAT
; _this$ = ecx

; 1410 : {

  00000	55		 push	 ebp
  00001	8b ec		 mov	 ebp, esp
  00003	6a ff		 push	 -1
  00005	68 00 00 00 00	 push	 __ehhandler$??1CDefaultIndicatorList@@UAE@XZ
  0000a	64 a1 00 00 00
	00		 mov	 eax, DWORD PTR fs:0
  00010	50		 push	 eax
  00011	56		 push	 esi
  00012	a1 00 00 00 00	 mov	 eax, DWORD PTR ___security_cookie
  00017	33 c5		 xor	 eax, ebp
  00019	50		 push	 eax
  0001a	8d 45 f4	 lea	 eax, DWORD PTR __$EHRec$[ebp]
  0001d	64 a3 00 00 00
	00		 mov	 DWORD PTR fs:0, eax
  00023	8b f1		 mov	 esi, ecx

; 1141 : 	m_pGeneralMap->DeleteAll();

  00025	8b 4e 10	 mov	 ecx, DWORD PTR [esi+16]
  00028	c7 45 fc 00 00
	00 00		 mov	 DWORD PTR __$EHRec$[ebp+8], 0
  0002f	c7 06 00 00 00
	00		 mov	 DWORD PTR [esi], OFFSET ??_7CBaseIndicatorList@@6B@
  00035	e8 00 00 00 00	 call	 ?DeleteAll@CIndicatorInfoMap@@QAEHXZ ; CIndicatorInfoMap::DeleteAll

; 1142 : 	m_pSpecialMap->DeleteAll();

  0003a	8b 4e 14	 mov	 ecx, DWORD PTR [esi+20]
  0003d	e8 00 00 00 00	 call	 ?DeleteAll@CIndicatorInfoMap@@QAEHXZ ; CIndicatorInfoMap::DeleteAll

; 1143 : 	m_pNoneIndiMap->DeleteAll();

  00042	8b 4e 18	 mov	 ecx, DWORD PTR [esi+24]
  00045	e8 00 00 00 00	 call	 ?DeleteAll@CIndicatorInfoMap@@QAEHXZ ; CIndicatorInfoMap::DeleteAll

; 1144 : 
; 1145 : 	delete m_pGeneralMap;

  0004a	8b 4e 10	 mov	 ecx, DWORD PTR [esi+16]
  0004d	85 c9		 test	 ecx, ecx
  0004f	74 07		 je	 SHORT $LN5@CDefaultIn
  00051	8b 01		 mov	 eax, DWORD PTR [ecx]
  00053	6a 01		 push	 1
  00055	ff 50 04	 call	 DWORD PTR [eax+4]
$LN5@CDefaultIn:

; 1146 : 	delete m_pSpecialMap;

  00058	8b 4e 14	 mov	 ecx, DWORD PTR [esi+20]
  0005b	85 c9		 test	 ecx, ecx
  0005d	74 07		 je	 SHORT $LN7@CDefaultIn
  0005f	8b 01		 mov	 eax, DWORD PTR [ecx]
  00061	6a 01		 push	 1
  00063	ff 50 04	 call	 DWORD PTR [eax+4]
$LN7@CDefaultIn:

; 1147 : 	delete m_pNoneIndiMap; // none(default)

  00066	8b 4e 18	 mov	 ecx, DWORD PTR [esi+24]
  00069	85 c9		 test	 ecx, ecx
  0006b	74 07		 je	 SHORT $LN9@CDefaultIn
  0006d	8b 01		 mov	 eax, DWORD PTR [ecx]
  0006f	6a 01		 push	 1
  00071	ff 50 04	 call	 DWORD PTR [eax+4]
$LN9@CDefaultIn:

; 1411 : }

  00074	8b 4d f4	 mov	 ecx, DWORD PTR __$EHRec$[ebp]
  00077	64 89 0d 00 00
	00 00		 mov	 DWORD PTR fs:0, ecx
  0007e	59		 pop	 ecx
  0007f	5e		 pop	 esi
  00080	8b e5		 mov	 esp, ebp
  00082	5d		 pop	 ebp
  00083	c3		 ret	 0
  00084	cc		 int	 3
  00085	cc		 int	 3
  00086	cc		 int	 3
  00087	cc		 int	 3
  00088	cc		 int	 3
_TEXT	ENDS
;	COMDAT text$x
text$x	SEGMENT
__ehhandler$??1CDefaultIndicatorList@@UAE@XZ:
  00000	90		 npad	 1
  00001	90		 npad	 1
  00002	8b 54 24 08	 mov	 edx, DWORD PTR [esp+8]
  00006	8d 42 0c	 lea	 eax, DWORD PTR [edx+12]
  00009	8b 4a f8	 mov	 ecx, DWORD PTR [edx-8]
  0000c	33 c8		 xor	 ecx, eax
  0000e	e8 00 00 00 00	 call	 @__security_check_cookie@4
  00013	b8 00 00 00 00	 mov	 eax, OFFSET __ehfuncinfo$??1CDefaultIndicatorList@@UAE@XZ
  00018	e9 00 00 00 00	 jmp	 ___CxxFrameHandler3
text$x	ENDS
??1CDefaultIndicatorList@@UAE@XZ ENDP			; CDefaultIndicatorList::~CDefaultIndicatorList
; Function compile flags: /Ogtp
; File D:\git\src\IBK\IBK_DRFN\ProjSrc\SrcChartEx\ChartOCX\IndicatorCondition\IndicatorConditionBaseData.cpp
;	COMDAT ??0CDefaultIndicatorList@@QAE@W4EIndicatorListType@@@Z
_TEXT	SEGMENT
_this$ = -4						; size = 4
_p_eIndicatorListType$ = 8				; size = 4
??0CDefaultIndicatorList@@QAE@W4EIndicatorListType@@@Z PROC ; CDefaultIndicatorList::CDefaultIndicatorList, COMDAT
; _this$ = ecx

; 1406 : {

  00000	55		 push	 ebp
  00001	8b ec		 mov	 ebp, esp
  00003	51		 push	 ecx
  00004	56		 push	 esi
  00005	ff 75 08	 push	 DWORD PTR _p_eIndicatorListType$[ebp]
  00008	8b f1		 mov	 esi, ecx
  0000a	89 75 fc	 mov	 DWORD PTR _this$[ebp], esi
  0000d	e8 00 00 00 00	 call	 ??0CBaseIndicatorList@@QAE@W4EIndicatorListType@@@Z ; CBaseIndicatorList::CBaseIndicatorList
  00012	c7 06 00 00 00
	00		 mov	 DWORD PTR [esi], OFFSET ??_7CDefaultIndicatorList@@6B@

; 1407 : }

  00018	8b c6		 mov	 eax, esi
  0001a	5e		 pop	 esi
  0001b	8b e5		 mov	 esp, ebp
  0001d	5d		 pop	 ebp
  0001e	c2 04 00	 ret	 4
??0CDefaultIndicatorList@@QAE@W4EIndicatorListType@@@Z ENDP ; CDefaultIndicatorList::CDefaultIndicatorList
_TEXT	ENDS
; Function compile flags: /Ogtp
; File D:\git\src\IBK\IBK_DRFN\ProjSrc\SrcChartEx\ChartOCX\IndicatorCondition\IndicatorConditionBaseData.cpp
;	COMDAT ??_GCBaseIndicatorList@@UAEPAXI@Z
_TEXT	SEGMENT
__$EHRec$ = -12						; size = 12
___flags$ = 8						; size = 4
??_GCBaseIndicatorList@@UAEPAXI@Z PROC			; CBaseIndicatorList::`scalar deleting destructor', COMDAT
; _this$ = ecx
  00000	55		 push	 ebp
  00001	8b ec		 mov	 ebp, esp
  00003	6a ff		 push	 -1
  00005	68 00 00 00 00	 push	 __ehhandler$??_GCBaseIndicatorList@@UAEPAXI@Z
  0000a	64 a1 00 00 00
	00		 mov	 eax, DWORD PTR fs:0
  00010	50		 push	 eax
  00011	56		 push	 esi
  00012	a1 00 00 00 00	 mov	 eax, DWORD PTR ___security_cookie
  00017	33 c5		 xor	 eax, ebp
  00019	50		 push	 eax
  0001a	8d 45 f4	 lea	 eax, DWORD PTR __$EHRec$[ebp]
  0001d	64 a3 00 00 00
	00		 mov	 DWORD PTR fs:0, eax
  00023	8b f1		 mov	 esi, ecx

; 1141 : 	m_pGeneralMap->DeleteAll();

  00025	8b 4e 10	 mov	 ecx, DWORD PTR [esi+16]
  00028	c7 45 fc 00 00
	00 00		 mov	 DWORD PTR __$EHRec$[ebp+8], 0
  0002f	c7 06 00 00 00
	00		 mov	 DWORD PTR [esi], OFFSET ??_7CBaseIndicatorList@@6B@
  00035	e8 00 00 00 00	 call	 ?DeleteAll@CIndicatorInfoMap@@QAEHXZ ; CIndicatorInfoMap::DeleteAll

; 1142 : 	m_pSpecialMap->DeleteAll();

  0003a	8b 4e 14	 mov	 ecx, DWORD PTR [esi+20]
  0003d	e8 00 00 00 00	 call	 ?DeleteAll@CIndicatorInfoMap@@QAEHXZ ; CIndicatorInfoMap::DeleteAll

; 1143 : 	m_pNoneIndiMap->DeleteAll();

  00042	8b 4e 18	 mov	 ecx, DWORD PTR [esi+24]
  00045	e8 00 00 00 00	 call	 ?DeleteAll@CIndicatorInfoMap@@QAEHXZ ; CIndicatorInfoMap::DeleteAll

; 1144 : 
; 1145 : 	delete m_pGeneralMap;

  0004a	8b 4e 10	 mov	 ecx, DWORD PTR [esi+16]
  0004d	85 c9		 test	 ecx, ecx
  0004f	74 07		 je	 SHORT $LN6@scalar
  00051	8b 01		 mov	 eax, DWORD PTR [ecx]
  00053	6a 01		 push	 1
  00055	ff 50 04	 call	 DWORD PTR [eax+4]
$LN6@scalar:

; 1146 : 	delete m_pSpecialMap;

  00058	8b 4e 14	 mov	 ecx, DWORD PTR [esi+20]
  0005b	85 c9		 test	 ecx, ecx
  0005d	74 07		 je	 SHORT $LN8@scalar
  0005f	8b 01		 mov	 eax, DWORD PTR [ecx]
  00061	6a 01		 push	 1
  00063	ff 50 04	 call	 DWORD PTR [eax+4]
$LN8@scalar:

; 1147 : 	delete m_pNoneIndiMap; // none(default)

  00066	8b 4e 18	 mov	 ecx, DWORD PTR [esi+24]
  00069	85 c9		 test	 ecx, ecx
  0006b	74 07		 je	 SHORT $LN10@scalar
  0006d	8b 01		 mov	 eax, DWORD PTR [ecx]
  0006f	6a 01		 push	 1
  00071	ff 50 04	 call	 DWORD PTR [eax+4]
$LN10@scalar:
  00074	f6 45 08 01	 test	 BYTE PTR ___flags$[ebp], 1
  00078	74 0b		 je	 SHORT $LN13@scalar
  0007a	6a 20		 push	 32			; 00000020H
  0007c	56		 push	 esi
  0007d	e8 00 00 00 00	 call	 ??3@YAXPAXI@Z		; operator delete
  00082	83 c4 08	 add	 esp, 8
$LN13@scalar:
  00085	8b c6		 mov	 eax, esi
  00087	8b 4d f4	 mov	 ecx, DWORD PTR __$EHRec$[ebp]
  0008a	64 89 0d 00 00
	00 00		 mov	 DWORD PTR fs:0, ecx
  00091	59		 pop	 ecx
  00092	5e		 pop	 esi
  00093	8b e5		 mov	 esp, ebp
  00095	5d		 pop	 ebp
  00096	c2 04 00	 ret	 4
  00099	cc		 int	 3
  0009a	cc		 int	 3
  0009b	cc		 int	 3
  0009c	cc		 int	 3
  0009d	cc		 int	 3
_TEXT	ENDS
;	COMDAT text$x
text$x	SEGMENT
__ehhandler$??_GCBaseIndicatorList@@UAEPAXI@Z:
  00000	90		 npad	 1
  00001	90		 npad	 1
  00002	8b 54 24 08	 mov	 edx, DWORD PTR [esp+8]
  00006	8d 42 0c	 lea	 eax, DWORD PTR [edx+12]
  00009	8b 4a f8	 mov	 ecx, DWORD PTR [edx-8]
  0000c	33 c8		 xor	 ecx, eax
  0000e	e8 00 00 00 00	 call	 @__security_check_cookie@4
  00013	b8 00 00 00 00	 mov	 eax, OFFSET __ehfuncinfo$??_GCBaseIndicatorList@@UAEPAXI@Z
  00018	e9 00 00 00 00	 jmp	 ___CxxFrameHandler3
text$x	ENDS
??_GCBaseIndicatorList@@UAEPAXI@Z ENDP			; CBaseIndicatorList::`scalar deleting destructor'
; Function compile flags: /Ogtp
; File D:\git\src\IBK\IBK_DRFN\ProjSrc\SrcChartEx\ChartOCX\IndicatorCondition\IndicatorConditionBaseData.cpp
;	COMDAT ?GetNextIndicatorInfo@CBaseIndicatorList@@QBEXPBDPAPAU__POSITION@@AAPAVCIndicatorInfo@@@Z
_TEXT	SEGMENT
_this$1$ = -4						; size = 4
_p_szIndicatorName$ = 8					; size = 4
_p_ppsnIndicator$ = 12					; size = 4
_p_pPrevIndicatorInfo$ = 16				; size = 4
?GetNextIndicatorInfo@CBaseIndicatorList@@QBEXPBDPAPAU__POSITION@@AAPAVCIndicatorInfo@@@Z PROC ; CBaseIndicatorList::GetNextIndicatorInfo, COMDAT
; _this$ = ecx

; 1375 : {

  00000	55		 push	 ebp
  00001	8b ec		 mov	 ebp, esp
  00003	51		 push	 ecx
  00004	56		 push	 esi

; 1376 : 	if( !p_ppsnIndicator)			p_pPrevIndicatorInfo = NULL;

  00005	8b 75 0c	 mov	 esi, DWORD PTR _p_ppsnIndicator$[ebp]
  00008	89 4d fc	 mov	 DWORD PTR _this$1$[ebp], ecx
  0000b	57		 push	 edi
  0000c	85 f6		 test	 esi, esi
  0000e	75 0f		 jne	 SHORT $LN13@GetNextInd
  00010	8b 45 10	 mov	 eax, DWORD PTR _p_pPrevIndicatorInfo$[ebp]
  00013	5f		 pop	 edi
  00014	89 30		 mov	 DWORD PTR [eax], esi

; 1378 : 	{
; 1379 : 		*p_ppsnIndicator = NULL;

  00016	89 36		 mov	 DWORD PTR [esi], esi

; 1395 : 							break;
; 1396 : 	}
; 1397 : }

  00018	5e		 pop	 esi
  00019	8b e5		 mov	 esp, ebp
  0001b	5d		 pop	 ebp
  0001c	c2 0c 00	 ret	 12			; 0000000cH
$LN13@GetNextInd:

; 1376 : 	if( !p_ppsnIndicator)			p_pPrevIndicatorInfo = NULL;

  0001f	8b 7d 10	 mov	 edi, DWORD PTR _p_pPrevIndicatorInfo$[ebp]
  00022	8b 0f		 mov	 ecx, DWORD PTR [edi]

; 1377 : 	if( !p_pPrevIndicatorInfo)

  00024	85 c9		 test	 ecx, ecx
  00026	75 0a		 jne	 SHORT $LN5@GetNextInd

; 1378 : 	{
; 1379 : 		*p_ppsnIndicator = NULL;

  00028	5f		 pop	 edi
  00029	89 0e		 mov	 DWORD PTR [esi], ecx

; 1395 : 							break;
; 1396 : 	}
; 1397 : }

  0002b	5e		 pop	 esi
  0002c	8b e5		 mov	 esp, ebp
  0002e	5d		 pop	 ebp
  0002f	c2 0c 00	 ret	 12			; 0000000cH
$LN5@GetNextInd:
  00032	53		 push	 ebx

; 1380 : 		return;
; 1381 : 	}
; 1382 : 
; 1383 : 	EIndicatorInfoType eIndicatorInfoType = ( EIndicatorInfoType)-1;
; 1384 : 	if( p_szIndicatorName) if( *p_szIndicatorName) eIndicatorInfoType = p_pPrevIndicatorInfo->GetIndicatorInfoType();

  00033	8b 5d 08	 mov	 ebx, DWORD PTR _p_szIndicatorName$[ebp]
  00036	85 db		 test	 ebx, ebx
  00038	74 31		 je	 SHORT $LN11@GetNextInd
  0003a	80 3b 00	 cmp	 BYTE PTR [ebx], 0
  0003d	74 2c		 je	 SHORT $LN11@GetNextInd
  0003f	e8 00 00 00 00	 call	 ?GetIndicatorInfoType@CIndicatorInfo@@QBE?AW4EIndicatorInfoType@@XZ ; CIndicatorInfo::GetIndicatorInfoType

; 1385 : 	switch( eIndicatorInfoType)

  00044	83 e8 00	 sub	 eax, 0
  00047	74 0a		 je	 SHORT $LN8@GetNextInd
  00049	83 e8 01	 sub	 eax, 1
  0004c	74 05		 je	 SHORT $LN8@GetNextInd
  0004e	83 e8 01	 sub	 eax, 1
  00051	75 18		 jne	 SHORT $LN11@GetNextInd
$LN8@GetNextInd:

; 1386 : 	{
; 1387 : 		case EIIT_GENERAL:	p_pPrevIndicatorInfo = m_pGeneralMap->GetNextIndicatorInfo( p_szIndicatorName, p_ppsnIndicator);
; 1388 : 							break;
; 1389 : 		case EIIT_SPECIAL:	p_pPrevIndicatorInfo = m_pGeneralMap->GetNextIndicatorInfo( p_szIndicatorName, p_ppsnIndicator);
; 1390 : 							break;
; 1391 : 		case EIIT_NONE:		p_pPrevIndicatorInfo = m_pGeneralMap->GetNextIndicatorInfo( p_szIndicatorName, p_ppsnIndicator);

  00053	8b 4d fc	 mov	 ecx, DWORD PTR _this$1$[ebp]
  00056	56		 push	 esi
  00057	53		 push	 ebx
  00058	8b 49 10	 mov	 ecx, DWORD PTR [ecx+16]
  0005b	8b 01		 mov	 eax, DWORD PTR [ecx]
  0005d	ff 50 20	 call	 DWORD PTR [eax+32]
  00060	5b		 pop	 ebx
  00061	89 07		 mov	 DWORD PTR [edi], eax
  00063	5f		 pop	 edi

; 1395 : 							break;
; 1396 : 	}
; 1397 : }

  00064	5e		 pop	 esi
  00065	8b e5		 mov	 esp, ebp
  00067	5d		 pop	 ebp
  00068	c2 0c 00	 ret	 12			; 0000000cH
$LN11@GetNextInd:

; 1392 : 							break;
; 1393 : 		default:			*p_ppsnIndicator = NULL;

  0006b	c7 06 00 00 00
	00		 mov	 DWORD PTR [esi], 0
  00071	5b		 pop	 ebx

; 1394 : 							p_pPrevIndicatorInfo = NULL;

  00072	c7 07 00 00 00
	00		 mov	 DWORD PTR [edi], 0
  00078	5f		 pop	 edi

; 1395 : 							break;
; 1396 : 	}
; 1397 : }

  00079	5e		 pop	 esi
  0007a	8b e5		 mov	 esp, ebp
  0007c	5d		 pop	 ebp
  0007d	c2 0c 00	 ret	 12			; 0000000cH
?GetNextIndicatorInfo@CBaseIndicatorList@@QBEXPBDPAPAU__POSITION@@AAPAVCIndicatorInfo@@@Z ENDP ; CBaseIndicatorList::GetNextIndicatorInfo
_TEXT	ENDS
; Function compile flags: /Ogtp
; File D:\git\src\IBK\IBK_DRFN\ProjSrc\SrcChartEx\ChartOCX\IndicatorCondition\IndicatorConditionBaseData.cpp
;	COMDAT ?GetFirstIndicatorInfo@CBaseIndicatorList@@QBEPAVCIndicatorInfo@@PBDPAPAU__POSITION@@W4CHART_MODE@CChartInfo@@@Z
_TEXT	SEGMENT
_p_szIndicatorName$ = 8					; size = 4
_p_ppsnIndicator$ = 12					; size = 4
_p_eChartMode$ = 16					; size = 4
?GetFirstIndicatorInfo@CBaseIndicatorList@@QBEPAVCIndicatorInfo@@PBDPAPAU__POSITION@@W4CHART_MODE@CChartInfo@@@Z PROC ; CBaseIndicatorList::GetFirstIndicatorInfo, COMDAT
; _this$ = ecx

; 1361 : {

  00000	55		 push	 ebp
  00001	8b ec		 mov	 ebp, esp
  00003	56		 push	 esi

; 1362 : 	if( !p_szIndicatorName) return NULL;

  00004	8b 75 08	 mov	 esi, DWORD PTR _p_szIndicatorName$[ebp]
  00007	57		 push	 edi
  00008	8b f9		 mov	 edi, ecx
  0000a	85 f6		 test	 esi, esi
  0000c	74 3f		 je	 SHORT $LN7@GetFirstIn

; 1363 : 	if( !*p_szIndicatorName) return NULL;

  0000e	80 3e 00	 cmp	 BYTE PTR [esi], 0
  00011	74 3a		 je	 SHORT $LN7@GetFirstIn

; 1364 : 
; 1365 : 	CIndicatorInfo *pIndicatorInfo = m_pGeneralMap->GetFirstIndicatorInfo( p_szIndicatorName, p_ppsnIndicator, p_eChartMode);

  00013	8b 4f 10	 mov	 ecx, DWORD PTR [edi+16]
  00016	53		 push	 ebx
  00017	8b 5d 10	 mov	 ebx, DWORD PTR _p_eChartMode$[ebp]
  0001a	53		 push	 ebx
  0001b	ff 75 0c	 push	 DWORD PTR _p_ppsnIndicator$[ebp]
  0001e	8b 01		 mov	 eax, DWORD PTR [ecx]
  00020	56		 push	 esi
  00021	ff 50 1c	 call	 DWORD PTR [eax+28]

; 1366 : 	if( pIndicatorInfo) return pIndicatorInfo;

  00024	85 c0		 test	 eax, eax
  00026	75 1e		 jne	 SHORT $LN8@GetFirstIn

; 1367 : 
; 1368 : 	pIndicatorInfo = m_pSpecialMap->GetFirstIndicatorInfo( p_szIndicatorName, p_ppsnIndicator, p_eChartMode);

  00028	8b 4f 14	 mov	 ecx, DWORD PTR [edi+20]
  0002b	53		 push	 ebx
  0002c	ff 75 0c	 push	 DWORD PTR _p_ppsnIndicator$[ebp]
  0002f	8b 01		 mov	 eax, DWORD PTR [ecx]
  00031	56		 push	 esi
  00032	ff 50 1c	 call	 DWORD PTR [eax+28]

; 1369 : 	if( pIndicatorInfo) return pIndicatorInfo;

  00035	85 c0		 test	 eax, eax
  00037	75 0d		 jne	 SHORT $LN8@GetFirstIn

; 1370 : 
; 1371 : 	return m_pNoneIndiMap->GetFirstIndicatorInfo( p_szIndicatorName, p_ppsnIndicator, p_eChartMode);

  00039	8b 4f 18	 mov	 ecx, DWORD PTR [edi+24]
  0003c	53		 push	 ebx
  0003d	ff 75 0c	 push	 DWORD PTR _p_ppsnIndicator$[ebp]
  00040	8b 01		 mov	 eax, DWORD PTR [ecx]
  00042	56		 push	 esi
  00043	ff 50 1c	 call	 DWORD PTR [eax+28]
$LN8@GetFirstIn:

; 1372 : }

  00046	5b		 pop	 ebx
  00047	5f		 pop	 edi
  00048	5e		 pop	 esi
  00049	5d		 pop	 ebp
  0004a	c2 0c 00	 ret	 12			; 0000000cH
$LN7@GetFirstIn:
  0004d	5f		 pop	 edi

; 1363 : 	if( !*p_szIndicatorName) return NULL;

  0004e	33 c0		 xor	 eax, eax

; 1372 : }

  00050	5e		 pop	 esi
  00051	5d		 pop	 ebp
  00052	c2 0c 00	 ret	 12			; 0000000cH
?GetFirstIndicatorInfo@CBaseIndicatorList@@QBEPAVCIndicatorInfo@@PBDPAPAU__POSITION@@W4CHART_MODE@CChartInfo@@@Z ENDP ; CBaseIndicatorList::GetFirstIndicatorInfo
_TEXT	ENDS
; Function compile flags: /Ogtp
; File D:\git\src\IBK\IBK_DRFN\ProjSrc\SrcChartEx\ChartOCX\IndicatorCondition\IndicatorConditionBaseData.cpp
;	COMDAT ?GetIndicatorInfo@CBaseIndicatorList@@QAEPAVCIndicatorInfo@@PBDW4CHART_MODE@CChartInfo@@@Z
_TEXT	SEGMENT
_p_szIndicatorKeyName$ = 8				; size = 4
_p_eChartMode$ = 12					; size = 4
?GetIndicatorInfo@CBaseIndicatorList@@QAEPAVCIndicatorInfo@@PBDW4CHART_MODE@CChartInfo@@@Z PROC ; CBaseIndicatorList::GetIndicatorInfo, COMDAT
; _this$ = ecx

; 1346 : {

  00000	55		 push	 ebp
  00001	8b ec		 mov	 ebp, esp
  00003	56		 push	 esi

; 1347 : 	if( !p_szIndicatorKeyName) return NULL;

  00004	8b 75 08	 mov	 esi, DWORD PTR _p_szIndicatorKeyName$[ebp]
  00007	57		 push	 edi
  00008	8b f9		 mov	 edi, ecx
  0000a	85 f6		 test	 esi, esi
  0000c	74 36		 je	 SHORT $LN7@GetIndicat

; 1348 : 	if( !*p_szIndicatorKeyName) return NULL;

  0000e	80 3e 00	 cmp	 BYTE PTR [esi], 0
  00011	74 31		 je	 SHORT $LN7@GetIndicat

; 1349 : 
; 1350 : 	CIndicatorInfo *pIndicatorInfo = m_pGeneralMap->GetIndicatorInfo( p_szIndicatorKeyName, p_eChartMode);

  00013	8b 4f 10	 mov	 ecx, DWORD PTR [edi+16]
  00016	53		 push	 ebx
  00017	8b 5d 0c	 mov	 ebx, DWORD PTR _p_eChartMode$[ebp]
  0001a	53		 push	 ebx
  0001b	56		 push	 esi
  0001c	e8 00 00 00 00	 call	 ?GetIndicatorInfo@CIndicatorInfoMap@@QAEPAVCIndicatorInfo@@PBDW4CHART_MODE@CChartInfo@@@Z ; CIndicatorInfoMap::GetIndicatorInfo

; 1351 : 	if( pIndicatorInfo) return pIndicatorInfo;

  00021	85 c0		 test	 eax, eax
  00023	75 18		 jne	 SHORT $LN8@GetIndicat

; 1352 : 
; 1353 : 	pIndicatorInfo = m_pSpecialMap->GetIndicatorInfo( p_szIndicatorKeyName, p_eChartMode);

  00025	8b 4f 14	 mov	 ecx, DWORD PTR [edi+20]
  00028	53		 push	 ebx
  00029	56		 push	 esi
  0002a	e8 00 00 00 00	 call	 ?GetIndicatorInfo@CIndicatorInfoMap@@QAEPAVCIndicatorInfo@@PBDW4CHART_MODE@CChartInfo@@@Z ; CIndicatorInfoMap::GetIndicatorInfo

; 1354 : 	if( pIndicatorInfo) return pIndicatorInfo;

  0002f	85 c0		 test	 eax, eax
  00031	75 0a		 jne	 SHORT $LN8@GetIndicat

; 1355 : 
; 1356 : 	return m_pNoneIndiMap->GetIndicatorInfo( p_szIndicatorKeyName, p_eChartMode);

  00033	8b 4f 18	 mov	 ecx, DWORD PTR [edi+24]
  00036	53		 push	 ebx
  00037	56		 push	 esi
  00038	e8 00 00 00 00	 call	 ?GetIndicatorInfo@CIndicatorInfoMap@@QAEPAVCIndicatorInfo@@PBDW4CHART_MODE@CChartInfo@@@Z ; CIndicatorInfoMap::GetIndicatorInfo
$LN8@GetIndicat:

; 1357 : }

  0003d	5b		 pop	 ebx
  0003e	5f		 pop	 edi
  0003f	5e		 pop	 esi
  00040	5d		 pop	 ebp
  00041	c2 08 00	 ret	 8
$LN7@GetIndicat:
  00044	5f		 pop	 edi

; 1348 : 	if( !*p_szIndicatorKeyName) return NULL;

  00045	33 c0		 xor	 eax, eax

; 1357 : }

  00047	5e		 pop	 esi
  00048	5d		 pop	 ebp
  00049	c2 08 00	 ret	 8
?GetIndicatorInfo@CBaseIndicatorList@@QAEPAVCIndicatorInfo@@PBDW4CHART_MODE@CChartInfo@@@Z ENDP ; CBaseIndicatorList::GetIndicatorInfo
_TEXT	ENDS
; Function compile flags: /Ogtp
; File D:\git\src\IBK\IBK_DRFN\ProjSrc\SrcChartEx\ChartOCX\IndicatorCondition\IndicatorConditionBaseData.cpp
;	COMDAT ?GetAllIndicatorNameWithGroupName@CBaseIndicatorList@@QBE_NAAVCIndicatorGroupDataList@@W4CHART_MODE@CChartInfo@@@Z
_TEXT	SEGMENT
_indiGroupDataList$ = 8					; size = 4
_p_eChartMode$ = 12					; size = 4
?GetAllIndicatorNameWithGroupName@CBaseIndicatorList@@QBE_NAAVCIndicatorGroupDataList@@W4CHART_MODE@CChartInfo@@@Z PROC ; CBaseIndicatorList::GetAllIndicatorNameWithGroupName, COMDAT
; _this$ = ecx

; 1333 : {

  00000	55		 push	 ebp
  00001	8b ec		 mov	 ebp, esp
  00003	53		 push	 ebx

; 1334 : 	indiGroupDataList.DeleteAll();

  00004	8b 5d 08	 mov	 ebx, DWORD PTR _indiGroupDataList$[ebp]
  00007	56		 push	 esi
  00008	57		 push	 edi
  00009	8b f9		 mov	 edi, ecx
  0000b	8b cb		 mov	 ecx, ebx
  0000d	e8 00 00 00 00	 call	 ?DeleteAll@CIndicatorGroupDataList@@QAEXXZ ; CIndicatorGroupDataList::DeleteAll

; 1335 : 
; 1336 : 	m_pGeneralMap->GetAllIndicatorNameWithGroupName( indiGroupDataList, p_eChartMode);

  00012	8b 4f 10	 mov	 ecx, DWORD PTR [edi+16]
  00015	8b 75 0c	 mov	 esi, DWORD PTR _p_eChartMode$[ebp]
  00018	56		 push	 esi
  00019	53		 push	 ebx
  0001a	8b 01		 mov	 eax, DWORD PTR [ecx]
  0001c	ff 50 28	 call	 DWORD PTR [eax+40]

; 1337 : 	m_pSpecialMap->GetAllIndicatorNameWithGroupName( indiGroupDataList, p_eChartMode);

  0001f	8b 4f 14	 mov	 ecx, DWORD PTR [edi+20]
  00022	56		 push	 esi
  00023	53		 push	 ebx
  00024	8b 01		 mov	 eax, DWORD PTR [ecx]
  00026	ff 50 28	 call	 DWORD PTR [eax+40]

; 1338 : 	m_pNoneIndiMap->GetAllIndicatorNameWithGroupName( indiGroupDataList, p_eChartMode);

  00029	8b 4f 18	 mov	 ecx, DWORD PTR [edi+24]
  0002c	56		 push	 esi
  0002d	53		 push	 ebx
  0002e	8b 01		 mov	 eax, DWORD PTR [ecx]
  00030	ff 50 28	 call	 DWORD PTR [eax+40]

; 1339 : 
; 1340 : 	return (indiGroupDataList.GetCount() > 0);

  00033	8b cb		 mov	 ecx, ebx
  00035	e8 00 00 00 00	 call	 ?GetCount@CIndicatorGroupDataList@@QBEHXZ ; CIndicatorGroupDataList::GetCount
  0003a	5f		 pop	 edi
  0003b	85 c0		 test	 eax, eax
  0003d	5e		 pop	 esi
  0003e	0f 9f c0	 setg	 al
  00041	5b		 pop	 ebx

; 1341 : }

  00042	5d		 pop	 ebp
  00043	c2 08 00	 ret	 8
?GetAllIndicatorNameWithGroupName@CBaseIndicatorList@@QBE_NAAVCIndicatorGroupDataList@@W4CHART_MODE@CChartInfo@@@Z ENDP ; CBaseIndicatorList::GetAllIndicatorNameWithGroupName
_TEXT	ENDS
; Function compile flags: /Ogtp
; File D:\git\src\IBK\IBK_DRFN\ProjSrc\SrcChartEx\ChartOCX\IndicatorCondition\IndicatorConditionBaseData.cpp
;	COMDAT ?GetGraphNameList@CBaseIndicatorList@@QBE_NW4INDICATORTYPE@1@AAV?$CList@V?$CStringT@DV?$StrTraitMFC_DLL@DV?$ChTraitsCRT@D@ATL@@@@@ATL@@V12@@@W4CHART_MODE@CChartInfo@@@Z
_TEXT	SEGMENT
_eType$ = 8						; size = 4
_dataList$ = 12						; size = 4
_p_eChartMode$ = 16					; size = 4
?GetGraphNameList@CBaseIndicatorList@@QBE_NW4INDICATORTYPE@1@AAV?$CList@V?$CStringT@DV?$StrTraitMFC_DLL@DV?$ChTraitsCRT@D@ATL@@@@@ATL@@V12@@@W4CHART_MODE@CChartInfo@@@Z PROC ; CBaseIndicatorList::GetGraphNameList, COMDAT
; _this$ = ecx

; 1306 : {

  00000	55		 push	 ebp
  00001	8b ec		 mov	 ebp, esp
  00003	53		 push	 ebx
  00004	57		 push	 edi

; 1307 : 	dataList.RemoveAll();

  00005	8b 7d 0c	 mov	 edi, DWORD PTR _dataList$[ebp]
  00008	8b d9		 mov	 ebx, ecx
  0000a	8b cf		 mov	 ecx, edi
  0000c	e8 00 00 00 00	 call	 ?RemoveAll@?$CList@V?$CStringT@DV?$StrTraitMFC_DLL@DV?$ChTraitsCRT@D@ATL@@@@@ATL@@V12@@@QAEXXZ ; CList<ATL::CStringT<char,StrTraitMFC_DLL<char,ATL::ChTraitsCRT<char> > >,ATL::CStringT<char,StrTraitMFC_DLL<char,ATL::ChTraitsCRT<char> > > >::RemoveAll

; 1308 : 
; 1309 : 	switch(eType)

  00011	8b 45 08	 mov	 eax, DWORD PTR _eType$[ebp]
  00014	83 f8 03	 cmp	 eax, 3
  00017	77 61		 ja	 SHORT $LN8@GetGraphNa
  00019	ff 24 85 00 00
	00 00		 jmp	 DWORD PTR $LN10@GetGraphNa[eax*4]
$LN4@GetGraphNa:

; 1310 : 	{
; 1311 : 	case ALL:
; 1312 : 		m_pGeneralMap->GetGraphNameList( dataList, p_eChartMode);

  00020	8b 4b 10	 mov	 ecx, DWORD PTR [ebx+16]
  00023	56		 push	 esi
  00024	8b 75 10	 mov	 esi, DWORD PTR _p_eChartMode$[ebp]
  00027	56		 push	 esi
  00028	8b 01		 mov	 eax, DWORD PTR [ecx]
  0002a	57		 push	 edi
  0002b	ff 50 24	 call	 DWORD PTR [eax+36]

; 1313 : 		m_pSpecialMap->GetGraphNameList( dataList, p_eChartMode);

  0002e	8b 4b 14	 mov	 ecx, DWORD PTR [ebx+20]
  00031	56		 push	 esi
  00032	57		 push	 edi
  00033	8b 01		 mov	 eax, DWORD PTR [ecx]
  00035	ff 50 24	 call	 DWORD PTR [eax+36]

; 1314 : 		m_pNoneIndiMap->GetGraphNameList( dataList, p_eChartMode);

  00038	8b 4b 18	 mov	 ecx, DWORD PTR [ebx+24]
  0003b	56		 push	 esi
  0003c	57		 push	 edi
  0003d	8b 01		 mov	 eax, DWORD PTR [ecx]
  0003f	ff 50 24	 call	 DWORD PTR [eax+36]

; 1326 : 	}
; 1327 : 
; 1328 : 	return (dataList.GetCount() > 0);

  00042	83 7f 0c 00	 cmp	 DWORD PTR [edi+12], 0
  00046	5e		 pop	 esi
  00047	5f		 pop	 edi
  00048	0f 9f c0	 setg	 al

; 1329 : }

  0004b	5b		 pop	 ebx
  0004c	5d		 pop	 ebp
  0004d	c2 0c 00	 ret	 12			; 0000000cH
$LN5@GetGraphNa:

; 1315 : 		break;
; 1316 : 	case GENERAL:
; 1317 : 		m_pGeneralMap->GetGraphNameList( dataList, p_eChartMode);

  00050	8b 4b 10	 mov	 ecx, DWORD PTR [ebx+16]

; 1318 : 		break;

  00053	eb 03		 jmp	 SHORT $LN11@GetGraphNa
$LN6@GetGraphNa:

; 1319 : 	case SPECIAL:
; 1320 : 		m_pSpecialMap->GetGraphNameList( dataList, p_eChartMode);

  00055	8b 4b 14	 mov	 ecx, DWORD PTR [ebx+20]
$LN11@GetGraphNa:

; 1326 : 	}
; 1327 : 
; 1328 : 	return (dataList.GetCount() > 0);

  00058	ff 75 10	 push	 DWORD PTR _p_eChartMode$[ebp]
  0005b	8b 01		 mov	 eax, DWORD PTR [ecx]
  0005d	57		 push	 edi
  0005e	ff 50 24	 call	 DWORD PTR [eax+36]
  00061	83 7f 0c 00	 cmp	 DWORD PTR [edi+12], 0
  00065	5f		 pop	 edi
  00066	0f 9f c0	 setg	 al

; 1329 : }

  00069	5b		 pop	 ebx
  0006a	5d		 pop	 ebp
  0006b	c2 0c 00	 ret	 12			; 0000000cH
$LN7@GetGraphNa:

; 1321 : 		break;
; 1322 : 	case NONE:
; 1323 : 		m_pNoneIndiMap->GetGraphNameList( dataList, p_eChartMode);

  0006e	8b 4b 18	 mov	 ecx, DWORD PTR [ebx+24]
  00071	ff 75 10	 push	 DWORD PTR _p_eChartMode$[ebp]
  00074	57		 push	 edi
  00075	8b 01		 mov	 eax, DWORD PTR [ecx]
  00077	ff 50 24	 call	 DWORD PTR [eax+36]
$LN8@GetGraphNa:

; 1324 : 	default:
; 1325 : 		return false;

  0007a	5f		 pop	 edi
  0007b	32 c0		 xor	 al, al

; 1329 : }

  0007d	5b		 pop	 ebx
  0007e	5d		 pop	 ebp
  0007f	c2 0c 00	 ret	 12			; 0000000cH
  00082	66 90		 npad	 2
$LN10@GetGraphNa:
  00084	00 00 00 00	 DD	 $LN4@GetGraphNa
  00088	00 00 00 00	 DD	 $LN5@GetGraphNa
  0008c	00 00 00 00	 DD	 $LN6@GetGraphNa
  00090	00 00 00 00	 DD	 $LN7@GetGraphNa
?GetGraphNameList@CBaseIndicatorList@@QBE_NW4INDICATORTYPE@1@AAV?$CList@V?$CStringT@DV?$StrTraitMFC_DLL@DV?$ChTraitsCRT@D@ATL@@@@@ATL@@V12@@@W4CHART_MODE@CChartInfo@@@Z ENDP ; CBaseIndicatorList::GetGraphNameList
_TEXT	ENDS
; Function compile flags: /Ogtp
; File D:\git\src\IBK\IBK_DRFN\ProjSrc\SrcChartEx\ChartOCX\IndicatorCondition\IndicatorConditionBaseData.cpp
;	COMDAT ?GetIndicatorNameList@CBaseIndicatorList@@QBE_NW4INDICATORTYPE@1@AAV?$CList@V?$CStringT@DV?$StrTraitMFC_DLL@DV?$ChTraitsCRT@D@ATL@@@@@ATL@@V12@@@W4CHART_MODE@CChartInfo@@@Z
_TEXT	SEGMENT
_eType$ = 8						; size = 4
_dataList$ = 12						; size = 4
_p_eChartMode$ = 16					; size = 4
?GetIndicatorNameList@CBaseIndicatorList@@QBE_NW4INDICATORTYPE@1@AAV?$CList@V?$CStringT@DV?$StrTraitMFC_DLL@DV?$ChTraitsCRT@D@ATL@@@@@ATL@@V12@@@W4CHART_MODE@CChartInfo@@@Z PROC ; CBaseIndicatorList::GetIndicatorNameList, COMDAT
; _this$ = ecx

; 1279 : {

  00000	55		 push	 ebp
  00001	8b ec		 mov	 ebp, esp
  00003	53		 push	 ebx
  00004	56		 push	 esi
  00005	57		 push	 edi

; 1280 : 	dataList.RemoveAll();

  00006	8b 7d 0c	 mov	 edi, DWORD PTR _dataList$[ebp]
  00009	8b f1		 mov	 esi, ecx
  0000b	8b cf		 mov	 ecx, edi
  0000d	e8 00 00 00 00	 call	 ?RemoveAll@?$CList@V?$CStringT@DV?$StrTraitMFC_DLL@DV?$ChTraitsCRT@D@ATL@@@@@ATL@@V12@@@QAEXXZ ; CList<ATL::CStringT<char,StrTraitMFC_DLL<char,ATL::ChTraitsCRT<char> > >,ATL::CStringT<char,StrTraitMFC_DLL<char,ATL::ChTraitsCRT<char> > > >::RemoveAll

; 1281 : 
; 1282 : 	switch(eType)

  00012	8b 45 08	 mov	 eax, DWORD PTR _eType$[ebp]
  00015	83 f8 03	 cmp	 eax, 3
  00018	77 70		 ja	 SHORT $LN8@GetIndicat
  0001a	8b 5d 10	 mov	 ebx, DWORD PTR _p_eChartMode$[ebp]
  0001d	ff 24 85 00 00
	00 00		 jmp	 DWORD PTR $LN10@GetIndicat[eax*4]
$LN4@GetIndicat:

; 1283 : 	{
; 1284 : 	case ALL:
; 1285 : 		m_pGeneralMap->GetIndicatorNameList( dataList, p_eChartMode);

  00024	8b 4e 10	 mov	 ecx, DWORD PTR [esi+16]
  00027	53		 push	 ebx
  00028	57		 push	 edi
  00029	e8 00 00 00 00	 call	 ?GetIndicatorNameList@CIndicatorInfoMap@@QBEHAAV?$CList@V?$CStringT@DV?$StrTraitMFC_DLL@DV?$ChTraitsCRT@D@ATL@@@@@ATL@@V12@@@W4CHART_MODE@CChartInfo@@@Z ; CIndicatorInfoMap::GetIndicatorNameList

; 1286 : 		m_pSpecialMap->GetIndicatorNameList( dataList, p_eChartMode);

  0002e	8b 4e 14	 mov	 ecx, DWORD PTR [esi+20]
  00031	53		 push	 ebx
  00032	57		 push	 edi
  00033	e8 00 00 00 00	 call	 ?GetIndicatorNameList@CIndicatorInfoMap@@QBEHAAV?$CList@V?$CStringT@DV?$StrTraitMFC_DLL@DV?$ChTraitsCRT@D@ATL@@@@@ATL@@V12@@@W4CHART_MODE@CChartInfo@@@Z ; CIndicatorInfoMap::GetIndicatorNameList

; 1287 : 		m_pNoneIndiMap->GetIndicatorNameList( dataList, p_eChartMode);

  00038	8b 4e 18	 mov	 ecx, DWORD PTR [esi+24]

; 1297 : 	default:
; 1298 : 		return false;
; 1299 : 	}
; 1300 : 
; 1301 : 	return (dataList.GetCount() > 0);

  0003b	53		 push	 ebx
  0003c	57		 push	 edi
  0003d	e8 00 00 00 00	 call	 ?GetIndicatorNameList@CIndicatorInfoMap@@QBEHAAV?$CList@V?$CStringT@DV?$StrTraitMFC_DLL@DV?$ChTraitsCRT@D@ATL@@@@@ATL@@V12@@@W4CHART_MODE@CChartInfo@@@Z ; CIndicatorInfoMap::GetIndicatorNameList
  00042	83 7f 0c 00	 cmp	 DWORD PTR [edi+12], 0
  00046	5f		 pop	 edi

; 1302 : }

  00047	5e		 pop	 esi
  00048	0f 9f c0	 setg	 al
  0004b	5b		 pop	 ebx
  0004c	5d		 pop	 ebp
  0004d	c2 0c 00	 ret	 12			; 0000000cH
$LN5@GetIndicat:

; 1288 : 		break;
; 1289 : 	case GENERAL:
; 1290 : 		m_pGeneralMap->GetIndicatorNameList( dataList, p_eChartMode);

  00050	8b 4e 10	 mov	 ecx, DWORD PTR [esi+16]

; 1297 : 	default:
; 1298 : 		return false;
; 1299 : 	}
; 1300 : 
; 1301 : 	return (dataList.GetCount() > 0);

  00053	53		 push	 ebx
  00054	57		 push	 edi
  00055	e8 00 00 00 00	 call	 ?GetIndicatorNameList@CIndicatorInfoMap@@QBEHAAV?$CList@V?$CStringT@DV?$StrTraitMFC_DLL@DV?$ChTraitsCRT@D@ATL@@@@@ATL@@V12@@@W4CHART_MODE@CChartInfo@@@Z ; CIndicatorInfoMap::GetIndicatorNameList
  0005a	83 7f 0c 00	 cmp	 DWORD PTR [edi+12], 0
  0005e	5f		 pop	 edi

; 1302 : }

  0005f	5e		 pop	 esi
  00060	0f 9f c0	 setg	 al
  00063	5b		 pop	 ebx
  00064	5d		 pop	 ebp
  00065	c2 0c 00	 ret	 12			; 0000000cH
$LN6@GetIndicat:

; 1291 : 		break;
; 1292 : 	case SPECIAL:
; 1293 : 		m_pSpecialMap->GetIndicatorNameList( dataList, p_eChartMode);

  00068	8b 4e 14	 mov	 ecx, DWORD PTR [esi+20]

; 1297 : 	default:
; 1298 : 		return false;
; 1299 : 	}
; 1300 : 
; 1301 : 	return (dataList.GetCount() > 0);

  0006b	53		 push	 ebx
  0006c	57		 push	 edi
  0006d	e8 00 00 00 00	 call	 ?GetIndicatorNameList@CIndicatorInfoMap@@QBEHAAV?$CList@V?$CStringT@DV?$StrTraitMFC_DLL@DV?$ChTraitsCRT@D@ATL@@@@@ATL@@V12@@@W4CHART_MODE@CChartInfo@@@Z ; CIndicatorInfoMap::GetIndicatorNameList
  00072	83 7f 0c 00	 cmp	 DWORD PTR [edi+12], 0
  00076	5f		 pop	 edi

; 1302 : }

  00077	5e		 pop	 esi
  00078	0f 9f c0	 setg	 al
  0007b	5b		 pop	 ebx
  0007c	5d		 pop	 ebp
  0007d	c2 0c 00	 ret	 12			; 0000000cH
$LN7@GetIndicat:

; 1294 : 		break;
; 1295 : 	case NONE:
; 1296 : 		m_pNoneIndiMap->GetIndicatorNameList( dataList, p_eChartMode);

  00080	8b 4e 18	 mov	 ecx, DWORD PTR [esi+24]
  00083	53		 push	 ebx
  00084	57		 push	 edi
  00085	e8 00 00 00 00	 call	 ?GetIndicatorNameList@CIndicatorInfoMap@@QBEHAAV?$CList@V?$CStringT@DV?$StrTraitMFC_DLL@DV?$ChTraitsCRT@D@ATL@@@@@ATL@@V12@@@W4CHART_MODE@CChartInfo@@@Z ; CIndicatorInfoMap::GetIndicatorNameList
$LN8@GetIndicat:

; 1302 : }

  0008a	5f		 pop	 edi
  0008b	5e		 pop	 esi
  0008c	32 c0		 xor	 al, al
  0008e	5b		 pop	 ebx
  0008f	5d		 pop	 ebp
  00090	c2 0c 00	 ret	 12			; 0000000cH
  00093	90		 npad	 1
$LN10@GetIndicat:
  00094	00 00 00 00	 DD	 $LN4@GetIndicat
  00098	00 00 00 00	 DD	 $LN5@GetIndicat
  0009c	00 00 00 00	 DD	 $LN6@GetIndicat
  000a0	00 00 00 00	 DD	 $LN7@GetIndicat
?GetIndicatorNameList@CBaseIndicatorList@@QBE_NW4INDICATORTYPE@1@AAV?$CList@V?$CStringT@DV?$StrTraitMFC_DLL@DV?$ChTraitsCRT@D@ATL@@@@@ATL@@V12@@@W4CHART_MODE@CChartInfo@@@Z ENDP ; CBaseIndicatorList::GetIndicatorNameList
_TEXT	ENDS
; Function compile flags: /Ogtp
; File D:\git\src\IBK\IBK_DRFN\ProjSrc\SrcChartEx\ChartOCX\IndicatorCondition\IndicatorConditionBaseData.cpp
;	COMDAT ?IsEmpty@CBaseIndicatorList@@QBE_NXZ
_TEXT	SEGMENT
?IsEmpty@CBaseIndicatorList@@QBE_NXZ PROC		; CBaseIndicatorList::IsEmpty, COMDAT
; _this$ = ecx

; 1274 : 	return 0 < m_pGeneralMap->GetCount() || 0 < m_pSpecialMap->GetCount() || 0 < m_pNoneIndiMap->GetCount();

  00000	8b 41 10	 mov	 eax, DWORD PTR [ecx+16]
  00003	83 78 0c 00	 cmp	 DWORD PTR [eax+12], 0
  00007	7f 15		 jg	 SHORT $LN3@IsEmpty
  00009	8b 41 14	 mov	 eax, DWORD PTR [ecx+20]
  0000c	83 78 0c 00	 cmp	 DWORD PTR [eax+12], 0
  00010	7f 0c		 jg	 SHORT $LN3@IsEmpty
  00012	8b 41 18	 mov	 eax, DWORD PTR [ecx+24]
  00015	83 78 0c 00	 cmp	 DWORD PTR [eax+12], 0
  00019	7f 03		 jg	 SHORT $LN3@IsEmpty
  0001b	32 c0		 xor	 al, al

; 1275 : }

  0001d	c3		 ret	 0
$LN3@IsEmpty:

; 1274 : 	return 0 < m_pGeneralMap->GetCount() || 0 < m_pSpecialMap->GetCount() || 0 < m_pNoneIndiMap->GetCount();

  0001e	b0 01		 mov	 al, 1

; 1275 : }

  00020	c3		 ret	 0
?IsEmpty@CBaseIndicatorList@@QBE_NXZ ENDP		; CBaseIndicatorList::IsEmpty
_TEXT	ENDS
; Function compile flags: /Ogtp
; File D:\git\src\IBK\IBK_DRFN\ProjSrc\SrcChartEx\ChartOCX\IndicatorCondition\IndicatorConditionBaseData.cpp
;	COMDAT ?RemoveAllIndicator@CBaseIndicatorList@@QAE_NW4INDICATORTYPE@1@PBD@Z
_TEXT	SEGMENT
_eDeleteType$ = 8					; size = 4
_p_szIndicatorName$ = 12				; size = 4
?RemoveAllIndicator@CBaseIndicatorList@@QAE_NW4INDICATORTYPE@1@PBD@Z PROC ; CBaseIndicatorList::RemoveAllIndicator, COMDAT
; _this$ = ecx

; 1254 : {

  00000	55		 push	 ebp
  00001	8b ec		 mov	 ebp, esp

; 1255 : 	switch(eDeleteType)

  00003	8b 45 08	 mov	 eax, DWORD PTR _eDeleteType$[ebp]
  00006	57		 push	 edi
  00007	8b f9		 mov	 edi, ecx
  00009	83 e8 00	 sub	 eax, 0
  0000c	74 3b		 je	 SHORT $LN4@RemoveAllI
  0000e	83 e8 01	 sub	 eax, 1
  00011	74 21		 je	 SHORT $LN5@RemoveAllI
  00013	83 e8 01	 sub	 eax, 1
  00016	74 07		 je	 SHORT $LN6@RemoveAllI

; 1266 : 	}
; 1267 : 
; 1268 : 	return false;

  00018	32 c0		 xor	 al, al
  0001a	5f		 pop	 edi

; 1269 : }

  0001b	5d		 pop	 ebp
  0001c	c2 08 00	 ret	 8
$LN6@RemoveAllI:

; 1264 : 	case SPECIAL:
; 1265 : 		return m_pSpecialMap->RemoveAllIndicator( p_szIndicatorName);

  0001f	8b 4f 14	 mov	 ecx, DWORD PTR [edi+20]
  00022	ff 75 0c	 push	 DWORD PTR _p_szIndicatorName$[ebp]
  00025	8b 01		 mov	 eax, DWORD PTR [ecx]
  00027	ff 50 18	 call	 DWORD PTR [eax+24]
  0002a	85 c0		 test	 eax, eax
  0002c	5f		 pop	 edi
  0002d	0f 95 c0	 setne	 al

; 1269 : }

  00030	5d		 pop	 ebp
  00031	c2 08 00	 ret	 8
$LN5@RemoveAllI:

; 1262 : 	case GENERAL:
; 1263 : 		return m_pGeneralMap->RemoveAllIndicator( p_szIndicatorName);

  00034	8b 4f 10	 mov	 ecx, DWORD PTR [edi+16]
  00037	ff 75 0c	 push	 DWORD PTR _p_szIndicatorName$[ebp]
  0003a	8b 01		 mov	 eax, DWORD PTR [ecx]
  0003c	ff 50 18	 call	 DWORD PTR [eax+24]
  0003f	85 c0		 test	 eax, eax
  00041	5f		 pop	 edi
  00042	0f 95 c0	 setne	 al

; 1269 : }

  00045	5d		 pop	 ebp
  00046	c2 08 00	 ret	 8
$LN4@RemoveAllI:

; 1256 : 	{
; 1257 : 	case ALL:
; 1258 : 		m_pGeneralMap->RemoveAllIndicator( p_szIndicatorName);

  00049	8b 4f 10	 mov	 ecx, DWORD PTR [edi+16]
  0004c	56		 push	 esi
  0004d	8b 75 0c	 mov	 esi, DWORD PTR _p_szIndicatorName$[ebp]
  00050	56		 push	 esi
  00051	8b 01		 mov	 eax, DWORD PTR [ecx]
  00053	ff 50 18	 call	 DWORD PTR [eax+24]

; 1259 : 		m_pSpecialMap->RemoveAllIndicator( p_szIndicatorName);

  00056	8b 4f 14	 mov	 ecx, DWORD PTR [edi+20]
  00059	56		 push	 esi
  0005a	8b 01		 mov	 eax, DWORD PTR [ecx]
  0005c	ff 50 18	 call	 DWORD PTR [eax+24]

; 1260 : 		m_pNoneIndiMap->RemoveAllIndicator( p_szIndicatorName);

  0005f	8b 4f 18	 mov	 ecx, DWORD PTR [edi+24]
  00062	56		 push	 esi
  00063	8b 01		 mov	 eax, DWORD PTR [ecx]
  00065	ff 50 18	 call	 DWORD PTR [eax+24]

; 1261 : 		return true;

  00068	5e		 pop	 esi
  00069	b0 01		 mov	 al, 1
  0006b	5f		 pop	 edi

; 1269 : }

  0006c	5d		 pop	 ebp
  0006d	c2 08 00	 ret	 8
?RemoveAllIndicator@CBaseIndicatorList@@QAE_NW4INDICATORTYPE@1@PBD@Z ENDP ; CBaseIndicatorList::RemoveAllIndicator
_TEXT	ENDS
; Function compile flags: /Ogtp
; File D:\git\src\IBK\IBK_DRFN\ProjSrc\SrcChartEx\ChartOCX\IndicatorCondition\IndicatorConditionBaseData.cpp
;	COMDAT ?DeleteAll@CBaseIndicatorList@@QAE_NW4INDICATORTYPE@1@@Z
_TEXT	SEGMENT
_eDeleteType$ = 8					; size = 4
?DeleteAll@CBaseIndicatorList@@QAE_NW4INDICATORTYPE@1@@Z PROC ; CBaseIndicatorList::DeleteAll, COMDAT
; _this$ = ecx

; 1237 : {

  00000	55		 push	 ebp
  00001	8b ec		 mov	 ebp, esp

; 1238 : 	switch(eDeleteType)

  00003	8b 45 08	 mov	 eax, DWORD PTR _eDeleteType$[ebp]
  00006	56		 push	 esi
  00007	8b f1		 mov	 esi, ecx
  00009	83 e8 00	 sub	 eax, 0
  0000c	74 35		 je	 SHORT $LN4@DeleteAll
  0000e	83 e8 01	 sub	 eax, 1
  00011	74 1e		 je	 SHORT $LN5@DeleteAll
  00013	83 e8 01	 sub	 eax, 1
  00016	74 07		 je	 SHORT $LN6@DeleteAll

; 1249 : 	}
; 1250 : 
; 1251 : 	return false;

  00018	32 c0		 xor	 al, al
  0001a	5e		 pop	 esi

; 1252 : }

  0001b	5d		 pop	 ebp
  0001c	c2 04 00	 ret	 4
$LN6@DeleteAll:

; 1247 : 	case SPECIAL:
; 1248 : 		return m_pSpecialMap->DeleteAll();

  0001f	8b 4e 14	 mov	 ecx, DWORD PTR [esi+20]
  00022	e8 00 00 00 00	 call	 ?DeleteAll@CIndicatorInfoMap@@QAEHXZ ; CIndicatorInfoMap::DeleteAll
  00027	85 c0		 test	 eax, eax
  00029	5e		 pop	 esi
  0002a	0f 95 c0	 setne	 al

; 1252 : }

  0002d	5d		 pop	 ebp
  0002e	c2 04 00	 ret	 4
$LN5@DeleteAll:

; 1245 : 	case GENERAL:
; 1246 : 		return m_pGeneralMap->DeleteAll();

  00031	8b 4e 10	 mov	 ecx, DWORD PTR [esi+16]
  00034	e8 00 00 00 00	 call	 ?DeleteAll@CIndicatorInfoMap@@QAEHXZ ; CIndicatorInfoMap::DeleteAll
  00039	85 c0		 test	 eax, eax
  0003b	5e		 pop	 esi
  0003c	0f 95 c0	 setne	 al

; 1252 : }

  0003f	5d		 pop	 ebp
  00040	c2 04 00	 ret	 4
$LN4@DeleteAll:

; 1239 : 	{
; 1240 : 	case ALL:
; 1241 : 		m_pGeneralMap->DeleteAll();

  00043	8b 4e 10	 mov	 ecx, DWORD PTR [esi+16]
  00046	e8 00 00 00 00	 call	 ?DeleteAll@CIndicatorInfoMap@@QAEHXZ ; CIndicatorInfoMap::DeleteAll

; 1242 : 		m_pSpecialMap->DeleteAll();

  0004b	8b 4e 14	 mov	 ecx, DWORD PTR [esi+20]
  0004e	e8 00 00 00 00	 call	 ?DeleteAll@CIndicatorInfoMap@@QAEHXZ ; CIndicatorInfoMap::DeleteAll

; 1243 : 		m_pNoneIndiMap->DeleteAll();

  00053	8b 4e 18	 mov	 ecx, DWORD PTR [esi+24]
  00056	e8 00 00 00 00	 call	 ?DeleteAll@CIndicatorInfoMap@@QAEHXZ ; CIndicatorInfoMap::DeleteAll

; 1244 : 		return true;

  0005b	b0 01		 mov	 al, 1
  0005d	5e		 pop	 esi

; 1252 : }

  0005e	5d		 pop	 ebp
  0005f	c2 04 00	 ret	 4
?DeleteAll@CBaseIndicatorList@@QAE_NW4INDICATORTYPE@1@@Z ENDP ; CBaseIndicatorList::DeleteAll
_TEXT	ENDS
; Function compile flags: /Ogtp
; File D:\git\src\IBK\IBK_DRFN\ProjSrc\SrcChartEx\ChartOCX\IndicatorCondition\IndicatorConditionBaseData.cpp
;	COMDAT ?Delete@CBaseIndicatorList@@QAE_NPAVCIndicatorInfo@@@Z
_TEXT	SEGMENT
_pIndicatorInfo$ = 8					; size = 4
?Delete@CBaseIndicatorList@@QAE_NPAVCIndicatorInfo@@@Z PROC ; CBaseIndicatorList::Delete, COMDAT
; _this$ = ecx

; 1229 : {

  00000	55		 push	 ebp
  00001	8b ec		 mov	 ebp, esp
  00003	56		 push	 esi

; 1230 : 	if( pIndicatorInfo == NULL) return false;

  00004	8b 75 08	 mov	 esi, DWORD PTR _pIndicatorInfo$[ebp]
  00007	57		 push	 edi
  00008	8b f9		 mov	 edi, ecx
  0000a	85 f6		 test	 esi, esi
  0000c	75 08		 jne	 SHORT $LN2@Delete
  0000e	5f		 pop	 edi
  0000f	32 c0		 xor	 al, al

; 1235 : }

  00011	5e		 pop	 esi
  00012	5d		 pop	 ebp
  00013	c2 04 00	 ret	 4
$LN2@Delete:

; 1231 : 	
; 1232 : 	if( m_pGeneralMap->Delete( pIndicatorInfo)) return true;

  00016	8b 4f 10	 mov	 ecx, DWORD PTR [edi+16]
  00019	56		 push	 esi
  0001a	e8 00 00 00 00	 call	 ?Delete@CIndicatorInfoMap@@QAEHPAVCIndicatorInfo@@@Z ; CIndicatorInfoMap::Delete
  0001f	85 c0		 test	 eax, eax
  00021	75 21		 jne	 SHORT $LN6@Delete

; 1233 : 	if( m_pSpecialMap->Delete( pIndicatorInfo)) return true;

  00023	8b 4f 14	 mov	 ecx, DWORD PTR [edi+20]
  00026	56		 push	 esi
  00027	e8 00 00 00 00	 call	 ?Delete@CIndicatorInfoMap@@QAEHPAVCIndicatorInfo@@@Z ; CIndicatorInfoMap::Delete
  0002c	85 c0		 test	 eax, eax
  0002e	75 14		 jne	 SHORT $LN6@Delete

; 1234 : 	return m_pNoneIndiMap->Delete( pIndicatorInfo);

  00030	8b 4f 18	 mov	 ecx, DWORD PTR [edi+24]
  00033	56		 push	 esi
  00034	e8 00 00 00 00	 call	 ?Delete@CIndicatorInfoMap@@QAEHPAVCIndicatorInfo@@@Z ; CIndicatorInfoMap::Delete
  00039	85 c0		 test	 eax, eax
  0003b	5f		 pop	 edi
  0003c	0f 95 c0	 setne	 al

; 1235 : }

  0003f	5e		 pop	 esi
  00040	5d		 pop	 ebp
  00041	c2 04 00	 ret	 4
$LN6@Delete:
  00044	5f		 pop	 edi

; 1233 : 	if( m_pSpecialMap->Delete( pIndicatorInfo)) return true;

  00045	b0 01		 mov	 al, 1

; 1235 : }

  00047	5e		 pop	 esi
  00048	5d		 pop	 ebp
  00049	c2 04 00	 ret	 4
?Delete@CBaseIndicatorList@@QAE_NPAVCIndicatorInfo@@@Z ENDP ; CBaseIndicatorList::Delete
_TEXT	ENDS
; Function compile flags: /Ogtp
; File D:\git\src\IBK\IBK_DRFN\ProjSrc\SrcChartEx\ChartOCX\IndicatorCondition\IndicatorConditionBaseData.cpp
;	COMDAT ?AddIndicatorInfo@CBaseIndicatorList@@QAE_NPAVCIndicatorInfo@@@Z
_TEXT	SEGMENT
_pIndicatorInfo$ = 8					; size = 4
?AddIndicatorInfo@CBaseIndicatorList@@QAE_NPAVCIndicatorInfo@@@Z PROC ; CBaseIndicatorList::AddIndicatorInfo, COMDAT
; _this$ = ecx

; 1217 : {

  00000	55		 push	 ebp
  00001	8b ec		 mov	 ebp, esp
  00003	56		 push	 esi

; 1218 : 	if( pIndicatorInfo == NULL) return false;

  00004	8b 75 08	 mov	 esi, DWORD PTR _pIndicatorInfo$[ebp]
  00007	57		 push	 edi
  00008	8b f9		 mov	 edi, ecx
  0000a	85 f6		 test	 esi, esi
  0000c	75 08		 jne	 SHORT $LN4@AddIndicat
$LN10@AddIndicat:
  0000e	5f		 pop	 edi

; 1225 : 	}
; 1226 : 	return false;
; 1227 : }

  0000f	32 c0		 xor	 al, al
  00011	5e		 pop	 esi
  00012	5d		 pop	 ebp
  00013	c2 04 00	 ret	 4
$LN4@AddIndicat:

; 1219 : 
; 1220 : 	switch( pIndicatorInfo->GetIndicatorInfoType())

  00016	8b ce		 mov	 ecx, esi
  00018	e8 00 00 00 00	 call	 ?GetIndicatorInfoType@CIndicatorInfo@@QBE?AW4EIndicatorInfoType@@XZ ; CIndicatorInfo::GetIndicatorInfoType
  0001d	83 e8 00	 sub	 eax, 0
  00020	74 32		 je	 SHORT $LN5@AddIndicat
  00022	83 e8 01	 sub	 eax, 1
  00025	74 19		 je	 SHORT $LN6@AddIndicat
  00027	83 e8 01	 sub	 eax, 1
  0002a	75 e2		 jne	 SHORT $LN10@AddIndicat

; 1224 : 		case EIIT_NONE:		return m_pNoneIndiMap->AddIndicatorInfo( pIndicatorInfo);

  0002c	8b 4f 18	 mov	 ecx, DWORD PTR [edi+24]

; 1225 : 	}
; 1226 : 	return false;
; 1227 : }

  0002f	56		 push	 esi
  00030	8b 01		 mov	 eax, DWORD PTR [ecx]
  00032	ff 50 14	 call	 DWORD PTR [eax+20]
  00035	85 c0		 test	 eax, eax
  00037	5f		 pop	 edi
  00038	0f 95 c0	 setne	 al
  0003b	5e		 pop	 esi
  0003c	5d		 pop	 ebp
  0003d	c2 04 00	 ret	 4
$LN6@AddIndicat:

; 1223 : 		case EIIT_SPECIAL:	return m_pSpecialMap->AddIndicatorInfo( pIndicatorInfo);

  00040	8b 4f 14	 mov	 ecx, DWORD PTR [edi+20]

; 1225 : 	}
; 1226 : 	return false;
; 1227 : }

  00043	56		 push	 esi
  00044	8b 01		 mov	 eax, DWORD PTR [ecx]
  00046	ff 50 14	 call	 DWORD PTR [eax+20]
  00049	85 c0		 test	 eax, eax
  0004b	5f		 pop	 edi
  0004c	0f 95 c0	 setne	 al
  0004f	5e		 pop	 esi
  00050	5d		 pop	 ebp
  00051	c2 04 00	 ret	 4
$LN5@AddIndicat:

; 1221 : 	{
; 1222 : 		case EIIT_GENERAL:	return m_pGeneralMap->AddIndicatorInfo( pIndicatorInfo);

  00054	8b 4f 10	 mov	 ecx, DWORD PTR [edi+16]

; 1225 : 	}
; 1226 : 	return false;
; 1227 : }

  00057	56		 push	 esi
  00058	8b 01		 mov	 eax, DWORD PTR [ecx]
  0005a	ff 50 14	 call	 DWORD PTR [eax+20]
  0005d	85 c0		 test	 eax, eax
  0005f	5f		 pop	 edi
  00060	0f 95 c0	 setne	 al
  00063	5e		 pop	 esi
  00064	5d		 pop	 ebp
  00065	c2 04 00	 ret	 4
?AddIndicatorInfo@CBaseIndicatorList@@QAE_NPAVCIndicatorInfo@@@Z ENDP ; CBaseIndicatorList::AddIndicatorInfo
_TEXT	ENDS
; Function compile flags: /Ogtp
; File D:\git\src\IBK\IBK_DRFN\ProjSrc\SrcChartEx\ChartOCX\IndicatorCondition\IndicatorConditionBaseData.cpp
;	COMDAT ?GetNoneIndiMap@CBaseIndicatorList@@IBEPBVCIndicatorInfoMap@@XZ
_TEXT	SEGMENT
?GetNoneIndiMap@CBaseIndicatorList@@IBEPBVCIndicatorInfoMap@@XZ PROC ; CBaseIndicatorList::GetNoneIndiMap, COMDAT
; _this$ = ecx

; 1211 : 	return m_pNoneIndiMap;

  00000	8b 41 18	 mov	 eax, DWORD PTR [ecx+24]

; 1212 : }

  00003	c3		 ret	 0
?GetNoneIndiMap@CBaseIndicatorList@@IBEPBVCIndicatorInfoMap@@XZ ENDP ; CBaseIndicatorList::GetNoneIndiMap
_TEXT	ENDS
; Function compile flags: /Ogtp
; File D:\git\src\IBK\IBK_DRFN\ProjSrc\SrcChartEx\ChartOCX\IndicatorCondition\IndicatorConditionBaseData.cpp
;	COMDAT ?GetSpecialIndiMap@CBaseIndicatorList@@IBEPBVCIndicatorInfoMap@@XZ
_TEXT	SEGMENT
?GetSpecialIndiMap@CBaseIndicatorList@@IBEPBVCIndicatorInfoMap@@XZ PROC ; CBaseIndicatorList::GetSpecialIndiMap, COMDAT
; _this$ = ecx

; 1207 : 	return m_pSpecialMap;

  00000	8b 41 14	 mov	 eax, DWORD PTR [ecx+20]

; 1208 : }

  00003	c3		 ret	 0
?GetSpecialIndiMap@CBaseIndicatorList@@IBEPBVCIndicatorInfoMap@@XZ ENDP ; CBaseIndicatorList::GetSpecialIndiMap
_TEXT	ENDS
; Function compile flags: /Ogtp
; File D:\git\src\IBK\IBK_DRFN\ProjSrc\SrcChartEx\ChartOCX\IndicatorCondition\IndicatorConditionBaseData.cpp
;	COMDAT ?GetGeneralIndiMap@CBaseIndicatorList@@IBEPBVCIndicatorInfoMap@@XZ
_TEXT	SEGMENT
?GetGeneralIndiMap@CBaseIndicatorList@@IBEPBVCIndicatorInfoMap@@XZ PROC ; CBaseIndicatorList::GetGeneralIndiMap, COMDAT
; _this$ = ecx

; 1203 : 	return m_pGeneralMap;

  00000	8b 41 10	 mov	 eax, DWORD PTR [ecx+16]

; 1204 : }

  00003	c3		 ret	 0
?GetGeneralIndiMap@CBaseIndicatorList@@IBEPBVCIndicatorInfoMap@@XZ ENDP ; CBaseIndicatorList::GetGeneralIndiMap
_TEXT	ENDS
; Function compile flags: /Ogtp
; File D:\git\src\IBK\IBK_DRFN\ProjSrc\SrcChartEx\ChartOCX\IndicatorCondition\IndicatorConditionBaseData.cpp
;	COMDAT ?GetNoneIndiMap@CBaseIndicatorList@@IAEPAVCIndicatorInfoMap@@XZ
_TEXT	SEGMENT
?GetNoneIndiMap@CBaseIndicatorList@@IAEPAVCIndicatorInfoMap@@XZ PROC ; CBaseIndicatorList::GetNoneIndiMap, COMDAT
; _this$ = ecx

; 1199 : 	return m_pNoneIndiMap;

  00000	8b 41 18	 mov	 eax, DWORD PTR [ecx+24]

; 1200 : }

  00003	c3		 ret	 0
?GetNoneIndiMap@CBaseIndicatorList@@IAEPAVCIndicatorInfoMap@@XZ ENDP ; CBaseIndicatorList::GetNoneIndiMap
_TEXT	ENDS
; Function compile flags: /Ogtp
; File D:\git\src\IBK\IBK_DRFN\ProjSrc\SrcChartEx\ChartOCX\IndicatorCondition\IndicatorConditionBaseData.cpp
;	COMDAT ?GetSpecialIndiMap@CBaseIndicatorList@@IAEPAVCIndicatorInfoMap@@XZ
_TEXT	SEGMENT
?GetSpecialIndiMap@CBaseIndicatorList@@IAEPAVCIndicatorInfoMap@@XZ PROC ; CBaseIndicatorList::GetSpecialIndiMap, COMDAT
; _this$ = ecx

; 1195 : 	return m_pSpecialMap;

  00000	8b 41 14	 mov	 eax, DWORD PTR [ecx+20]

; 1196 : }

  00003	c3		 ret	 0
?GetSpecialIndiMap@CBaseIndicatorList@@IAEPAVCIndicatorInfoMap@@XZ ENDP ; CBaseIndicatorList::GetSpecialIndiMap
_TEXT	ENDS
; Function compile flags: /Ogtp
; File D:\git\src\IBK\IBK_DRFN\ProjSrc\SrcChartEx\ChartOCX\IndicatorCondition\IndicatorConditionBaseData.cpp
;	COMDAT ?GetGeneralIndiMap@CBaseIndicatorList@@IAEPAVCIndicatorInfoMap@@XZ
_TEXT	SEGMENT
?GetGeneralIndiMap@CBaseIndicatorList@@IAEPAVCIndicatorInfoMap@@XZ PROC ; CBaseIndicatorList::GetGeneralIndiMap, COMDAT
; _this$ = ecx

; 1191 : 	return m_pGeneralMap;

  00000	8b 41 10	 mov	 eax, DWORD PTR [ecx+16]

; 1192 : }

  00003	c3		 ret	 0
?GetGeneralIndiMap@CBaseIndicatorList@@IAEPAVCIndicatorInfoMap@@XZ ENDP ; CBaseIndicatorList::GetGeneralIndiMap
_TEXT	ENDS
; Function compile flags: /Ogtp
; File D:\git\src\IBK\IBK_DRFN\ProjSrc\SrcChartEx\ChartOCX\IndicatorCondition\IndicatorConditionBaseData.cpp
;	COMDAT ?SetVersion@CBaseIndicatorList@@QAEXABN@Z
_TEXT	SEGMENT
_dVersion$ = 8						; size = 4
?SetVersion@CBaseIndicatorList@@QAEXABN@Z PROC		; CBaseIndicatorList::SetVersion, COMDAT
; _this$ = ecx

; 1164 : {

  00000	55		 push	 ebp
  00001	8b ec		 mov	 ebp, esp

; 1165 : 	m_dVersion = dVersion;

  00003	8b 45 08	 mov	 eax, DWORD PTR _dVersion$[ebp]
  00006	f2 0f 10 00	 movsd	 xmm0, QWORD PTR [eax]
  0000a	f2 0f 11 41 08	 movsd	 QWORD PTR [ecx+8], xmm0

; 1166 : }

  0000f	5d		 pop	 ebp
  00010	c2 04 00	 ret	 4
?SetVersion@CBaseIndicatorList@@QAEXABN@Z ENDP		; CBaseIndicatorList::SetVersion
_TEXT	ENDS
; Function compile flags: /Ogtp
; File D:\git\src\IBK\IBK_DRFN\ProjSrc\SrcChartEx\ChartOCX\IndicatorCondition\IndicatorConditionBaseData.cpp
; File C:\Program Files (x86)\Windows Kits\10\Include\10.0.22000.0\ucrt\string.h
; File D:\git\src\IBK\IBK_DRFN\ProjSrc\SrcChartEx\ChartOCX\IndicatorCondition\IndicatorConditionBaseData.cpp
; File C:\Program Files (x86)\Windows Kits\10\Include\10.0.22000.0\ucrt\string.h
; File D:\git\src\IBK\IBK_DRFN\ProjSrc\SrcChartEx\ChartOCX\IndicatorCondition\IndicatorConditionBaseData.cpp
; File C:\Program Files (x86)\Windows Kits\10\Include\10.0.22000.0\ucrt\string.h
; File D:\git\src\IBK\IBK_DRFN\ProjSrc\SrcChartEx\ChartOCX\IndicatorCondition\IndicatorConditionBaseData.cpp
;	COMDAT ?SetVersion@CBaseIndicatorList@@QAE_NAAPAD@Z
_TEXT	SEGMENT
_dVersion$ = -8						; size = 8
_p_szData$ = 8						; size = 4
?SetVersion@CBaseIndicatorList@@QAE_NAAPAD@Z PROC	; CBaseIndicatorList::SetVersion, COMDAT
; _this$ = ecx

; 1156 : {

  00000	55		 push	 ebp
  00001	8b ec		 mov	 ebp, esp
  00003	83 ec 08	 sub	 esp, 8
  00006	53		 push	 ebx
  00007	56		 push	 esi
  00008	57		 push	 edi

; 1169 : 	if( !p_szData) return 0.0;

  00009	8b 7d 08	 mov	 edi, DWORD PTR _p_szData$[ebp]

; 1156 : {

  0000c	8b d9		 mov	 ebx, ecx

; 1169 : 	if( !p_szData) return 0.0;

  0000e	8b 07		 mov	 eax, DWORD PTR [edi]
  00010	85 c0		 test	 eax, eax
  00012	74 7b		 je	 SHORT $LN26@SetVersion

; 1170 : 	if( !*p_szData) return 0.0;

  00014	80 38 00	 cmp	 BYTE PTR [eax], 0
  00017	74 76		 je	 SHORT $LN26@SetVersion
; File C:\Program Files (x86)\Windows Kits\10\Include\10.0.22000.0\ucrt\string.h

; 520  :         return const_cast<char*>(strstr(static_cast<char const*>(_String), _SubString));

  00019	68 00 00 00 00	 push	 OFFSET ??_C@_03GDMIGCCC@Ver@
  0001e	50		 push	 eax
  0001f	e8 00 00 00 00	 call	 _strstr
; File D:\git\src\IBK\IBK_DRFN\ProjSrc\SrcChartEx\ChartOCX\IndicatorCondition\IndicatorConditionBaseData.cpp

; 1172 : 	char *szVersion = strstr( p_szData, "Ver");

  00024	8b f0		 mov	 esi, eax
; File C:\Program Files (x86)\Windows Kits\10\Include\10.0.22000.0\ucrt\string.h

; 520  :         return const_cast<char*>(strstr(static_cast<char const*>(_String), _SubString));

  00026	83 c4 08	 add	 esp, 8
; File D:\git\src\IBK\IBK_DRFN\ProjSrc\SrcChartEx\ChartOCX\IndicatorCondition\IndicatorConditionBaseData.cpp

; 1173 : 	if( !szVersion) return 0.0;

  00029	85 f6		 test	 esi, esi
  0002b	74 62		 je	 SHORT $LN26@SetVersion

; 1174 : 	szVersion += 3;	// skip 'Ver'

  0002d	83 c6 03	 add	 esi, 3

; 1175 : 	while( *szVersion == ' ') szVersion++;		// skip Space.

  00030	80 3e 20	 cmp	 BYTE PTR [esi], 32	; 00000020H
  00033	75 06		 jne	 SHORT $LN6@SetVersion
$LL5@SetVersion:
  00035	46		 inc	 esi
  00036	80 3e 20	 cmp	 BYTE PTR [esi], 32	; 00000020H
  00039	74 fa		 je	 SHORT $LL5@SetVersion
$LN6@SetVersion:
; File C:\Program Files (x86)\Windows Kits\10\Include\10.0.22000.0\ucrt\string.h

; 502  :         return const_cast<char*>(strchr(static_cast<char const*>(_String), _Ch));

  0003b	6a 2a		 push	 42			; 0000002aH
  0003d	56		 push	 esi
  0003e	e8 00 00 00 00	 call	 _strchr
  00043	83 c4 08	 add	 esp, 8
; File D:\git\src\IBK\IBK_DRFN\ProjSrc\SrcChartEx\ChartOCX\IndicatorCondition\IndicatorConditionBaseData.cpp

; 1178 : 	if( !szAsterisk) return 0.0;

  00046	85 c0		 test	 eax, eax
  00048	74 45		 je	 SHORT $LN26@SetVersion

; 1179 : 	while( *( szAsterisk - 1) == ' ') szAsterisk--;		// skip Space.

  0004a	80 78 ff 20	 cmp	 BYTE PTR [eax-1], 32	; 00000020H
  0004e	8d 48 ff	 lea	 ecx, DWORD PTR [eax-1]
  00051	75 0b		 jne	 SHORT $LN8@SetVersion
$LL7@SetVersion:
  00053	8b c1		 mov	 eax, ecx
  00055	80 78 ff 20	 cmp	 BYTE PTR [eax-1], 32	; 00000020H
  00059	8d 48 ff	 lea	 ecx, DWORD PTR [eax-1]
  0005c	74 f5		 je	 SHORT $LL7@SetVersion
$LN8@SetVersion:

; 1180 : 
; 1181 : 	*szAsterisk = '\0';

  0005e	c6 00 00	 mov	 BYTE PTR [eax], 0

; 1182 : 	p_szData = szAsterisk + 1;

  00061	40		 inc	 eax

; 1183 : 
; 1184 : 	return atof( szVersion);

  00062	56		 push	 esi
  00063	89 07		 mov	 DWORD PTR [edi], eax
  00065	ff 15 00 00 00
	00		 call	 DWORD PTR __imp__atof
  0006b	dd 5d f8	 fstp	 QWORD PTR _dVersion$[ebp]

; 1157 : 	double dVersion = GetVersion( p_szData);
; 1158 : 	if(dVersion <= 0.0) return false;

  0006e	f2 0f 10 4d f8	 movsd	 xmm1, QWORD PTR _dVersion$[ebp]
  00073	0f 57 c0	 xorps	 xmm0, xmm0

; 1184 : 	return atof( szVersion);

  00076	83 c4 04	 add	 esp, 4

; 1157 : 	double dVersion = GetVersion( p_szData);
; 1158 : 	if(dVersion <= 0.0) return false;

  00079	66 0f 2f c1	 comisd	 xmm0, xmm1
  0007d	73 10		 jae	 SHORT $LN26@SetVersion

; 1159 : 
; 1160 : 	m_dVersion = dVersion;
; 1161 : 	return true;
; 1162 : }

  0007f	5f		 pop	 edi
  00080	5e		 pop	 esi
  00081	f2 0f 11 4b 08	 movsd	 QWORD PTR [ebx+8], xmm1
  00086	b0 01		 mov	 al, 1
  00088	5b		 pop	 ebx
  00089	8b e5		 mov	 esp, ebp
  0008b	5d		 pop	 ebp
  0008c	c2 04 00	 ret	 4
$LN26@SetVersion:
  0008f	5f		 pop	 edi
  00090	5e		 pop	 esi
  00091	32 c0		 xor	 al, al
  00093	5b		 pop	 ebx
  00094	8b e5		 mov	 esp, ebp
  00096	5d		 pop	 ebp
  00097	c2 04 00	 ret	 4
?SetVersion@CBaseIndicatorList@@QAE_NAAPAD@Z ENDP	; CBaseIndicatorList::SetVersion
_TEXT	ENDS
; Function compile flags: /Ogtp
; File D:\git\src\IBK\IBK_DRFN\ProjSrc\SrcChartEx\ChartOCX\IndicatorCondition\IndicatorConditionBaseData.cpp
;	COMDAT ?GetVersion@CBaseIndicatorList@@QBENXZ
_TEXT	SEGMENT
?GetVersion@CBaseIndicatorList@@QBENXZ PROC		; CBaseIndicatorList::GetVersion, COMDAT
; _this$ = ecx

; 1153 : 	return m_dVersion;

  00000	dd 41 08	 fld	 QWORD PTR [ecx+8]

; 1154 : }

  00003	c3		 ret	 0
?GetVersion@CBaseIndicatorList@@QBENXZ ENDP		; CBaseIndicatorList::GetVersion
_TEXT	ENDS
; Function compile flags: /Ogtp
; File D:\git\src\IBK\IBK_DRFN\ProjSrc\SrcChartEx\ChartOCX\IndicatorCondition\IndicatorConditionBaseData.cpp
; File C:\Program Files (x86)\Windows Kits\10\Include\10.0.22000.0\ucrt\string.h
; File D:\git\src\IBK\IBK_DRFN\ProjSrc\SrcChartEx\ChartOCX\IndicatorCondition\IndicatorConditionBaseData.cpp
; File C:\Program Files (x86)\Windows Kits\10\Include\10.0.22000.0\ucrt\string.h
; File D:\git\src\IBK\IBK_DRFN\ProjSrc\SrcChartEx\ChartOCX\IndicatorCondition\IndicatorConditionBaseData.cpp
; File C:\Program Files (x86)\Windows Kits\10\Include\10.0.22000.0\ucrt\string.h
; File D:\git\src\IBK\IBK_DRFN\ProjSrc\SrcChartEx\ChartOCX\IndicatorCondition\IndicatorConditionBaseData.cpp
;	COMDAT ?GetVersion@CBaseIndicatorList@@ABENAAPAD@Z
_TEXT	SEGMENT
_p_szData$ = 8						; size = 4
?GetVersion@CBaseIndicatorList@@ABENAAPAD@Z PROC	; CBaseIndicatorList::GetVersion, COMDAT
; _this$ = ecx

; 1168 : {

  00000	55		 push	 ebp
  00001	8b ec		 mov	 ebp, esp
  00003	56		 push	 esi
  00004	57		 push	 edi

; 1169 : 	if( !p_szData) return 0.0;

  00005	8b 7d 08	 mov	 edi, DWORD PTR _p_szData$[ebp]
  00008	8b 07		 mov	 eax, DWORD PTR [edi]
  0000a	85 c0		 test	 eax, eax
  0000c	74 63		 je	 SHORT $LN23@GetVersion

; 1170 : 	if( !*p_szData) return 0.0;

  0000e	80 38 00	 cmp	 BYTE PTR [eax], 0
  00011	74 5e		 je	 SHORT $LN23@GetVersion
; File C:\Program Files (x86)\Windows Kits\10\Include\10.0.22000.0\ucrt\string.h

; 520  :         return const_cast<char*>(strstr(static_cast<char const*>(_String), _SubString));

  00013	68 00 00 00 00	 push	 OFFSET ??_C@_03GDMIGCCC@Ver@
  00018	50		 push	 eax
  00019	e8 00 00 00 00	 call	 _strstr
; File D:\git\src\IBK\IBK_DRFN\ProjSrc\SrcChartEx\ChartOCX\IndicatorCondition\IndicatorConditionBaseData.cpp

; 1172 : 	char *szVersion = strstr( p_szData, "Ver");

  0001e	8b f0		 mov	 esi, eax
; File C:\Program Files (x86)\Windows Kits\10\Include\10.0.22000.0\ucrt\string.h

; 520  :         return const_cast<char*>(strstr(static_cast<char const*>(_String), _SubString));

  00020	83 c4 08	 add	 esp, 8
; File D:\git\src\IBK\IBK_DRFN\ProjSrc\SrcChartEx\ChartOCX\IndicatorCondition\IndicatorConditionBaseData.cpp

; 1173 : 	if( !szVersion) return 0.0;

  00023	85 f6		 test	 esi, esi
  00025	74 4a		 je	 SHORT $LN23@GetVersion

; 1174 : 	szVersion += 3;	// skip 'Ver'

  00027	83 c6 03	 add	 esi, 3

; 1175 : 	while( *szVersion == ' ') szVersion++;		// skip Space.

  0002a	80 3e 20	 cmp	 BYTE PTR [esi], 32	; 00000020H
  0002d	75 07		 jne	 SHORT $LN3@GetVersion
  0002f	90		 npad	 1
$LL2@GetVersion:
  00030	46		 inc	 esi
  00031	80 3e 20	 cmp	 BYTE PTR [esi], 32	; 00000020H
  00034	74 fa		 je	 SHORT $LL2@GetVersion
$LN3@GetVersion:
; File C:\Program Files (x86)\Windows Kits\10\Include\10.0.22000.0\ucrt\string.h

; 502  :         return const_cast<char*>(strchr(static_cast<char const*>(_String), _Ch));

  00036	6a 2a		 push	 42			; 0000002aH
  00038	56		 push	 esi
  00039	e8 00 00 00 00	 call	 _strchr
  0003e	83 c4 08	 add	 esp, 8
; File D:\git\src\IBK\IBK_DRFN\ProjSrc\SrcChartEx\ChartOCX\IndicatorCondition\IndicatorConditionBaseData.cpp

; 1178 : 	if( !szAsterisk) return 0.0;

  00041	85 c0		 test	 eax, eax
  00043	74 2c		 je	 SHORT $LN23@GetVersion

; 1179 : 	while( *( szAsterisk - 1) == ' ') szAsterisk--;		// skip Space.

  00045	80 78 ff 20	 cmp	 BYTE PTR [eax-1], 32	; 00000020H
  00049	8d 48 ff	 lea	 ecx, DWORD PTR [eax-1]
  0004c	75 0d		 jne	 SHORT $LN5@GetVersion
  0004e	66 90		 npad	 2
$LL4@GetVersion:
  00050	8b c1		 mov	 eax, ecx
  00052	80 78 ff 20	 cmp	 BYTE PTR [eax-1], 32	; 00000020H
  00056	8d 48 ff	 lea	 ecx, DWORD PTR [eax-1]
  00059	74 f5		 je	 SHORT $LL4@GetVersion
$LN5@GetVersion:

; 1180 : 
; 1181 : 	*szAsterisk = '\0';

  0005b	c6 00 00	 mov	 BYTE PTR [eax], 0

; 1182 : 	p_szData = szAsterisk + 1;

  0005e	40		 inc	 eax

; 1183 : 
; 1184 : 	return atof( szVersion);

  0005f	56		 push	 esi
  00060	89 07		 mov	 DWORD PTR [edi], eax
  00062	ff 15 00 00 00
	00		 call	 DWORD PTR __imp__atof
  00068	83 c4 04	 add	 esp, 4
  0006b	5f		 pop	 edi

; 1185 : }

  0006c	5e		 pop	 esi
  0006d	5d		 pop	 ebp
  0006e	c2 04 00	 ret	 4
$LN23@GetVersion:

; 1178 : 	if( !szAsterisk) return 0.0;

  00071	d9 ee		 fldz
  00073	5f		 pop	 edi

; 1185 : }

  00074	5e		 pop	 esi
  00075	5d		 pop	 ebp
  00076	c2 04 00	 ret	 4
?GetVersion@CBaseIndicatorList@@ABENAAPAD@Z ENDP	; CBaseIndicatorList::GetVersion
_TEXT	ENDS
; Function compile flags: /Ogtp
; File D:\git\src\IBK\IBK_DRFN\ProjSrc\SrcChartEx\ChartOCX\IndicatorCondition\IndicatorConditionBaseData.cpp
;	COMDAT ??1CBaseIndicatorList@@UAE@XZ
_TEXT	SEGMENT
__$EHRec$ = -12						; size = 12
??1CBaseIndicatorList@@UAE@XZ PROC			; CBaseIndicatorList::~CBaseIndicatorList, COMDAT
; _this$ = ecx

; 1140 : {

  00000	55		 push	 ebp
  00001	8b ec		 mov	 ebp, esp
  00003	6a ff		 push	 -1
  00005	68 00 00 00 00	 push	 __ehhandler$??1CBaseIndicatorList@@UAE@XZ
  0000a	64 a1 00 00 00
	00		 mov	 eax, DWORD PTR fs:0
  00010	50		 push	 eax
  00011	56		 push	 esi
  00012	a1 00 00 00 00	 mov	 eax, DWORD PTR ___security_cookie
  00017	33 c5		 xor	 eax, ebp
  00019	50		 push	 eax
  0001a	8d 45 f4	 lea	 eax, DWORD PTR __$EHRec$[ebp]
  0001d	64 a3 00 00 00
	00		 mov	 DWORD PTR fs:0, eax
  00023	8b f1		 mov	 esi, ecx

; 1141 : 	m_pGeneralMap->DeleteAll();

  00025	8b 4e 10	 mov	 ecx, DWORD PTR [esi+16]
  00028	c7 06 00 00 00
	00		 mov	 DWORD PTR [esi], OFFSET ??_7CBaseIndicatorList@@6B@
  0002e	e8 00 00 00 00	 call	 ?DeleteAll@CIndicatorInfoMap@@QAEHXZ ; CIndicatorInfoMap::DeleteAll

; 1142 : 	m_pSpecialMap->DeleteAll();

  00033	8b 4e 14	 mov	 ecx, DWORD PTR [esi+20]
  00036	e8 00 00 00 00	 call	 ?DeleteAll@CIndicatorInfoMap@@QAEHXZ ; CIndicatorInfoMap::DeleteAll

; 1143 : 	m_pNoneIndiMap->DeleteAll();

  0003b	8b 4e 18	 mov	 ecx, DWORD PTR [esi+24]
  0003e	e8 00 00 00 00	 call	 ?DeleteAll@CIndicatorInfoMap@@QAEHXZ ; CIndicatorInfoMap::DeleteAll

; 1144 : 
; 1145 : 	delete m_pGeneralMap;

  00043	8b 4e 10	 mov	 ecx, DWORD PTR [esi+16]
  00046	85 c9		 test	 ecx, ecx
  00048	74 07		 je	 SHORT $LN3@CBaseIndic
  0004a	8b 01		 mov	 eax, DWORD PTR [ecx]
  0004c	6a 01		 push	 1
  0004e	ff 50 04	 call	 DWORD PTR [eax+4]
$LN3@CBaseIndic:

; 1146 : 	delete m_pSpecialMap;

  00051	8b 4e 14	 mov	 ecx, DWORD PTR [esi+20]
  00054	85 c9		 test	 ecx, ecx
  00056	74 07		 je	 SHORT $LN5@CBaseIndic
  00058	8b 01		 mov	 eax, DWORD PTR [ecx]
  0005a	6a 01		 push	 1
  0005c	ff 50 04	 call	 DWORD PTR [eax+4]
$LN5@CBaseIndic:

; 1147 : 	delete m_pNoneIndiMap; // none(default)

  0005f	8b 4e 18	 mov	 ecx, DWORD PTR [esi+24]
  00062	85 c9		 test	 ecx, ecx
  00064	74 07		 je	 SHORT $LN7@CBaseIndic
  00066	8b 01		 mov	 eax, DWORD PTR [ecx]
  00068	6a 01		 push	 1
  0006a	ff 50 04	 call	 DWORD PTR [eax+4]
$LN7@CBaseIndic:

; 1148 : }

  0006d	8b 4d f4	 mov	 ecx, DWORD PTR __$EHRec$[ebp]
  00070	64 89 0d 00 00
	00 00		 mov	 DWORD PTR fs:0, ecx
  00077	59		 pop	 ecx
  00078	5e		 pop	 esi
  00079	8b e5		 mov	 esp, ebp
  0007b	5d		 pop	 ebp
  0007c	c3		 ret	 0
  0007d	cc		 int	 3
  0007e	cc		 int	 3
  0007f	cc		 int	 3
  00080	cc		 int	 3
  00081	cc		 int	 3
_TEXT	ENDS
;	COMDAT text$x
text$x	SEGMENT
__ehhandler$??1CBaseIndicatorList@@UAE@XZ:
  00000	90		 npad	 1
  00001	90		 npad	 1
  00002	8b 54 24 08	 mov	 edx, DWORD PTR [esp+8]
  00006	8d 42 0c	 lea	 eax, DWORD PTR [edx+12]
  00009	8b 4a f8	 mov	 ecx, DWORD PTR [edx-8]
  0000c	33 c8		 xor	 ecx, eax
  0000e	e8 00 00 00 00	 call	 @__security_check_cookie@4
  00013	b8 00 00 00 00	 mov	 eax, OFFSET __ehfuncinfo$??1CBaseIndicatorList@@UAE@XZ
  00018	e9 00 00 00 00	 jmp	 ___CxxFrameHandler3
text$x	ENDS
??1CBaseIndicatorList@@UAE@XZ ENDP			; CBaseIndicatorList::~CBaseIndicatorList
; Function compile flags: /Ogtp
; File D:\git\src\IBK\IBK_DRFN\ProjSrc\SrcChartEx\ChartOCX\IndicatorCondition\IndicatorConditionBaseData.cpp
; File C:\Program Files (x86)\Microsoft Visual Studio\2019\Community\VC\Tools\MSVC\14.29.30133\atlmfc\include\afx.inl
; File D:\git\src\IBK\IBK_DRFN\ProjSrc\SrcChartEx\ChartOCX\IndicatorCondition\IndicatorConditionBaseData.cpp
; File C:\Program Files (x86)\Microsoft Visual Studio\2019\Community\VC\Tools\MSVC\14.29.30133\atlmfc\include\afx.inl
; File D:\git\src\IBK\IBK_DRFN\ProjSrc\SrcChartEx\ChartOCX\IndicatorCondition\IndicatorConditionBaseData.cpp
; File C:\Program Files (x86)\Microsoft Visual Studio\2019\Community\VC\Tools\MSVC\14.29.30133\atlmfc\include\afx.inl
; File D:\git\src\IBK\IBK_DRFN\ProjSrc\SrcChartEx\ChartOCX\IndicatorCondition\IndicatorConditionBaseData.cpp
; File C:\Program Files (x86)\Microsoft Visual Studio\2019\Community\VC\Tools\MSVC\14.29.30133\atlmfc\include\afx.inl
; File D:\git\src\IBK\IBK_DRFN\ProjSrc\SrcChartEx\ChartOCX\IndicatorCondition\IndicatorConditionBaseData.cpp
; File C:\Program Files (x86)\Microsoft Visual Studio\2019\Community\VC\Tools\MSVC\14.29.30133\atlmfc\include\afx.inl
; File D:\git\src\IBK\IBK_DRFN\ProjSrc\SrcChartEx\ChartOCX\IndicatorCondition\IndicatorConditionBaseData.cpp
; File C:\Program Files (x86)\Microsoft Visual Studio\2019\Community\VC\Tools\MSVC\14.29.30133\atlmfc\include\afx.inl
; File D:\git\src\IBK\IBK_DRFN\ProjSrc\SrcChartEx\ChartOCX\IndicatorCondition\IndicatorConditionBaseData.cpp
; File C:\Program Files (x86)\Microsoft Visual Studio\2019\Community\VC\Tools\MSVC\14.29.30133\atlmfc\include\afx.inl
; File D:\git\src\IBK\IBK_DRFN\ProjSrc\SrcChartEx\ChartOCX\IndicatorCondition\IndicatorConditionBaseData.cpp
; File C:\Program Files (x86)\Microsoft Visual Studio\2019\Community\VC\Tools\MSVC\14.29.30133\atlmfc\include\afx.inl
; File D:\git\src\IBK\IBK_DRFN\ProjSrc\SrcChartEx\ChartOCX\IndicatorCondition\IndicatorConditionBaseData.cpp
; File C:\Program Files (x86)\Microsoft Visual Studio\2019\Community\VC\Tools\MSVC\14.29.30133\atlmfc\include\afx.inl
; File D:\git\src\IBK\IBK_DRFN\ProjSrc\SrcChartEx\ChartOCX\IndicatorCondition\IndicatorConditionBaseData.cpp
; File C:\Program Files (x86)\Microsoft Visual Studio\2019\Community\VC\Tools\MSVC\14.29.30133\atlmfc\include\afx.inl
; File D:\git\src\IBK\IBK_DRFN\ProjSrc\SrcChartEx\ChartOCX\IndicatorCondition\IndicatorConditionBaseData.cpp
;	COMDAT ??0CBaseIndicatorList@@QAE@W4EIndicatorListType@@@Z
_TEXT	SEGMENT
__$EHRec$ = -12						; size = 12
$T2 = 8							; size = 4
$T3 = 8							; size = 4
$T4 = 8							; size = 4
$T5 = 8							; size = 4
$T6 = 8							; size = 4
$T7 = 8							; size = 4
_p_eIndicatorListType$ = 8				; size = 4
??0CBaseIndicatorList@@QAE@W4EIndicatorListType@@@Z PROC ; CBaseIndicatorList::CBaseIndicatorList, COMDAT
; _this$ = ecx

; 1118 : {

  00000	55		 push	 ebp
  00001	8b ec		 mov	 ebp, esp
  00003	6a ff		 push	 -1
  00005	68 00 00 00 00	 push	 __ehhandler$??0CBaseIndicatorList@@QAE@W4EIndicatorListType@@@Z
  0000a	64 a1 00 00 00
	00		 mov	 eax, DWORD PTR fs:0
  00010	50		 push	 eax
  00011	56		 push	 esi
  00012	a1 00 00 00 00	 mov	 eax, DWORD PTR ___security_cookie
  00017	33 c5		 xor	 eax, ebp
  00019	50		 push	 eax
  0001a	8d 45 f4	 lea	 eax, DWORD PTR __$EHRec$[ebp]
  0001d	64 a3 00 00 00
	00		 mov	 DWORD PTR fs:0, eax
  00023	8b f1		 mov	 esi, ecx

; 1119 : 	// (2006/11/30 - Seung-Won, Bae) Support Indicator List Type Manage.
; 1120 : 	m_eIndicatorListType = p_eIndicatorListType;

  00025	8b 45 08	 mov	 eax, DWORD PTR _p_eIndicatorListType$[ebp]
  00028	0f 57 c0	 xorps	 xmm0, xmm0
  0002b	c7 06 00 00 00
	00		 mov	 DWORD PTR [esi], OFFSET ??_7CBaseIndicatorList@@6B@
  00031	f2 0f 11 46 08	 movsd	 QWORD PTR [esi+8], xmm0
  00036	89 46 1c	 mov	 DWORD PTR [esi+28], eax

; 1121 : 
; 1122 : 	switch( m_eIndicatorListType)

  00039	83 f8 03	 cmp	 eax, 3
  0003c	0f 87 8f 00 00
	00		 ja	 $LN6@CBaseIndic
  00042	ff 24 85 00 00
	00 00		 jmp	 DWORD PTR $LN40@CBaseIndic[eax*4]
$LN4@CBaseIndic:
; File C:\Program Files (x86)\Microsoft Visual Studio\2019\Community\VC\Tools\MSVC\14.29.30133\atlmfc\include\afx.inl

; 116  : 	{ return ::operator new(nSize); }

  00049	6a 3c		 push	 60			; 0000003cH
  0004b	e8 00 00 00 00	 call	 ??2@YAPAXI@Z		; operator new
  00050	83 c4 04	 add	 esp, 4
; File D:\git\src\IBK\IBK_DRFN\ProjSrc\SrcChartEx\ChartOCX\IndicatorCondition\IndicatorConditionBaseData.cpp

; 1126 : 								m_pGeneralMap	= new CDefaultIndicatorInfoMap( EIIT_GENERAL);	// (default)

  00053	89 45 08	 mov	 DWORD PTR $T7[ebp], eax
  00056	c7 45 fc 00 00
	00 00		 mov	 DWORD PTR __$EHRec$[ebp+8], 0
  0005d	85 c0		 test	 eax, eax
  0005f	74 0b		 je	 SHORT $LN10@CBaseIndic
  00061	6a 00		 push	 0
  00063	8b c8		 mov	 ecx, eax
  00065	e8 00 00 00 00	 call	 ??0CDefaultIndicatorInfoMap@@QAE@W4EIndicatorInfoType@@@Z ; CDefaultIndicatorInfoMap::CDefaultIndicatorInfoMap
  0006a	eb 02		 jmp	 SHORT $LN11@CBaseIndic
$LN10@CBaseIndic:
  0006c	33 c0		 xor	 eax, eax
$LN11@CBaseIndic:
; File C:\Program Files (x86)\Microsoft Visual Studio\2019\Community\VC\Tools\MSVC\14.29.30133\atlmfc\include\afx.inl

; 116  : 	{ return ::operator new(nSize); }

  0006e	6a 3c		 push	 60			; 0000003cH
; File D:\git\src\IBK\IBK_DRFN\ProjSrc\SrcChartEx\ChartOCX\IndicatorCondition\IndicatorConditionBaseData.cpp

; 1126 : 								m_pGeneralMap	= new CDefaultIndicatorInfoMap( EIIT_GENERAL);	// (default)

  00070	c7 45 fc ff ff
	ff ff		 mov	 DWORD PTR __$EHRec$[ebp+8], -1
  00077	89 46 10	 mov	 DWORD PTR [esi+16], eax
; File C:\Program Files (x86)\Microsoft Visual Studio\2019\Community\VC\Tools\MSVC\14.29.30133\atlmfc\include\afx.inl

; 116  : 	{ return ::operator new(nSize); }

  0007a	e8 00 00 00 00	 call	 ??2@YAPAXI@Z		; operator new
  0007f	83 c4 04	 add	 esp, 4
; File D:\git\src\IBK\IBK_DRFN\ProjSrc\SrcChartEx\ChartOCX\IndicatorCondition\IndicatorConditionBaseData.cpp

; 1127 : 								m_pSpecialMap	= new CDefaultIndicatorInfoMap( EIIT_SPECIAL);	// (default)

  00082	89 45 08	 mov	 DWORD PTR $T6[ebp], eax
  00085	c7 45 fc 01 00
	00 00		 mov	 DWORD PTR __$EHRec$[ebp+8], 1
  0008c	85 c0		 test	 eax, eax
  0008e	74 0b		 je	 SHORT $LN12@CBaseIndic
  00090	6a 01		 push	 1
  00092	8b c8		 mov	 ecx, eax
  00094	e8 00 00 00 00	 call	 ??0CDefaultIndicatorInfoMap@@QAE@W4EIndicatorInfoType@@@Z ; CDefaultIndicatorInfoMap::CDefaultIndicatorInfoMap
  00099	eb 02		 jmp	 SHORT $LN13@CBaseIndic
$LN12@CBaseIndic:
  0009b	33 c0		 xor	 eax, eax
$LN13@CBaseIndic:
; File C:\Program Files (x86)\Microsoft Visual Studio\2019\Community\VC\Tools\MSVC\14.29.30133\atlmfc\include\afx.inl

; 116  : 	{ return ::operator new(nSize); }

  0009d	6a 3c		 push	 60			; 0000003cH
; File D:\git\src\IBK\IBK_DRFN\ProjSrc\SrcChartEx\ChartOCX\IndicatorCondition\IndicatorConditionBaseData.cpp

; 1127 : 								m_pSpecialMap	= new CDefaultIndicatorInfoMap( EIIT_SPECIAL);	// (default)

  0009f	c7 45 fc ff ff
	ff ff		 mov	 DWORD PTR __$EHRec$[ebp+8], -1
  000a6	89 46 14	 mov	 DWORD PTR [esi+20], eax
; File C:\Program Files (x86)\Microsoft Visual Studio\2019\Community\VC\Tools\MSVC\14.29.30133\atlmfc\include\afx.inl

; 116  : 	{ return ::operator new(nSize); }

  000a9	e8 00 00 00 00	 call	 ??2@YAPAXI@Z		; operator new
  000ae	83 c4 04	 add	 esp, 4
; File D:\git\src\IBK\IBK_DRFN\ProjSrc\SrcChartEx\ChartOCX\IndicatorCondition\IndicatorConditionBaseData.cpp

; 1128 : 								m_pNoneIndiMap	= new CDefaultIndicatorInfoMap( EIIT_NONE);		// none(default)

  000b1	89 45 08	 mov	 DWORD PTR $T5[ebp], eax
  000b4	c7 45 fc 02 00
	00 00		 mov	 DWORD PTR __$EHRec$[ebp+8], 2
  000bb	85 c0		 test	 eax, eax
  000bd	0f 84 8f 00 00
	00		 je	 $LN20@CBaseIndic
  000c3	6a 02		 push	 2
  000c5	8b c8		 mov	 ecx, eax
  000c7	e8 00 00 00 00	 call	 ??0CDefaultIndicatorInfoMap@@QAE@W4EIndicatorInfoType@@@Z ; CDefaultIndicatorInfoMap::CDefaultIndicatorInfoMap
  000cc	e9 83 00 00 00	 jmp	 $LN21@CBaseIndic
$LN6@CBaseIndic:
; File C:\Program Files (x86)\Microsoft Visual Studio\2019\Community\VC\Tools\MSVC\14.29.30133\atlmfc\include\afx.inl

; 116  : 	{ return ::operator new(nSize); }

  000d1	6a 20		 push	 32			; 00000020H
  000d3	e8 00 00 00 00	 call	 ??2@YAPAXI@Z		; operator new
  000d8	83 c4 04	 add	 esp, 4
; File D:\git\src\IBK\IBK_DRFN\ProjSrc\SrcChartEx\ChartOCX\IndicatorCondition\IndicatorConditionBaseData.cpp

; 1133 : 								m_pGeneralMap	= new CGraphIndicatorInfoMap( EIIT_GENERAL);	// (default)

  000db	89 45 08	 mov	 DWORD PTR $T4[ebp], eax
  000de	c7 45 fc 03 00
	00 00		 mov	 DWORD PTR __$EHRec$[ebp+8], 3
  000e5	85 c0		 test	 eax, eax
  000e7	74 0b		 je	 SHORT $LN16@CBaseIndic
  000e9	6a 00		 push	 0
  000eb	8b c8		 mov	 ecx, eax
  000ed	e8 00 00 00 00	 call	 ??0CGraphIndicatorInfoMap@@QAE@W4EIndicatorInfoType@@@Z ; CGraphIndicatorInfoMap::CGraphIndicatorInfoMap
  000f2	eb 02		 jmp	 SHORT $LN17@CBaseIndic
$LN16@CBaseIndic:
  000f4	33 c0		 xor	 eax, eax
$LN17@CBaseIndic:
; File C:\Program Files (x86)\Microsoft Visual Studio\2019\Community\VC\Tools\MSVC\14.29.30133\atlmfc\include\afx.inl

; 116  : 	{ return ::operator new(nSize); }

  000f6	6a 20		 push	 32			; 00000020H
; File D:\git\src\IBK\IBK_DRFN\ProjSrc\SrcChartEx\ChartOCX\IndicatorCondition\IndicatorConditionBaseData.cpp

; 1133 : 								m_pGeneralMap	= new CGraphIndicatorInfoMap( EIIT_GENERAL);	// (default)

  000f8	c7 45 fc ff ff
	ff ff		 mov	 DWORD PTR __$EHRec$[ebp+8], -1
  000ff	89 46 10	 mov	 DWORD PTR [esi+16], eax
; File C:\Program Files (x86)\Microsoft Visual Studio\2019\Community\VC\Tools\MSVC\14.29.30133\atlmfc\include\afx.inl

; 116  : 	{ return ::operator new(nSize); }

  00102	e8 00 00 00 00	 call	 ??2@YAPAXI@Z		; operator new
  00107	83 c4 04	 add	 esp, 4
; File D:\git\src\IBK\IBK_DRFN\ProjSrc\SrcChartEx\ChartOCX\IndicatorCondition\IndicatorConditionBaseData.cpp

; 1134 : 								m_pSpecialMap	= new CGraphIndicatorInfoMap( EIIT_SPECIAL);	// (default)

  0010a	89 45 08	 mov	 DWORD PTR $T3[ebp], eax
  0010d	c7 45 fc 04 00
	00 00		 mov	 DWORD PTR __$EHRec$[ebp+8], 4
  00114	85 c0		 test	 eax, eax
  00116	74 0b		 je	 SHORT $LN18@CBaseIndic
  00118	6a 01		 push	 1
  0011a	8b c8		 mov	 ecx, eax
  0011c	e8 00 00 00 00	 call	 ??0CGraphIndicatorInfoMap@@QAE@W4EIndicatorInfoType@@@Z ; CGraphIndicatorInfoMap::CGraphIndicatorInfoMap
  00121	eb 02		 jmp	 SHORT $LN19@CBaseIndic
$LN18@CBaseIndic:
  00123	33 c0		 xor	 eax, eax
$LN19@CBaseIndic:
; File C:\Program Files (x86)\Microsoft Visual Studio\2019\Community\VC\Tools\MSVC\14.29.30133\atlmfc\include\afx.inl

; 116  : 	{ return ::operator new(nSize); }

  00125	6a 20		 push	 32			; 00000020H
; File D:\git\src\IBK\IBK_DRFN\ProjSrc\SrcChartEx\ChartOCX\IndicatorCondition\IndicatorConditionBaseData.cpp

; 1134 : 								m_pSpecialMap	= new CGraphIndicatorInfoMap( EIIT_SPECIAL);	// (default)

  00127	c7 45 fc ff ff
	ff ff		 mov	 DWORD PTR __$EHRec$[ebp+8], -1
  0012e	89 46 14	 mov	 DWORD PTR [esi+20], eax
; File C:\Program Files (x86)\Microsoft Visual Studio\2019\Community\VC\Tools\MSVC\14.29.30133\atlmfc\include\afx.inl

; 116  : 	{ return ::operator new(nSize); }

  00131	e8 00 00 00 00	 call	 ??2@YAPAXI@Z		; operator new
  00136	83 c4 04	 add	 esp, 4
; File D:\git\src\IBK\IBK_DRFN\ProjSrc\SrcChartEx\ChartOCX\IndicatorCondition\IndicatorConditionBaseData.cpp

; 1135 : 								m_pNoneIndiMap	= new CGraphIndicatorInfoMap( EIIT_NONE);		// none(default)

  00139	89 45 08	 mov	 DWORD PTR $T2[ebp], eax
  0013c	c7 45 fc 05 00
	00 00		 mov	 DWORD PTR __$EHRec$[ebp+8], 5
  00143	85 c0		 test	 eax, eax
  00145	74 0b		 je	 SHORT $LN20@CBaseIndic
  00147	6a 02		 push	 2
  00149	8b c8		 mov	 ecx, eax
  0014b	e8 00 00 00 00	 call	 ??0CGraphIndicatorInfoMap@@QAE@W4EIndicatorInfoType@@@Z ; CGraphIndicatorInfoMap::CGraphIndicatorInfoMap
  00150	eb 02		 jmp	 SHORT $LN21@CBaseIndic
$LN20@CBaseIndic:

; 1136 : 								break;
; 1137 : 	}
; 1138 : }

  00152	33 c0		 xor	 eax, eax
$LN21@CBaseIndic:
  00154	89 46 18	 mov	 DWORD PTR [esi+24], eax
  00157	8b c6		 mov	 eax, esi
  00159	8b 4d f4	 mov	 ecx, DWORD PTR __$EHRec$[ebp]
  0015c	64 89 0d 00 00
	00 00		 mov	 DWORD PTR fs:0, ecx
  00163	59		 pop	 ecx
  00164	5e		 pop	 esi
  00165	8b e5		 mov	 esp, ebp
  00167	5d		 pop	 ebp
  00168	c2 04 00	 ret	 4
  0016b	90		 npad	 1
$LN40@CBaseIndic:
  0016c	00 00 00 00	 DD	 $LN4@CBaseIndic
  00170	00 00 00 00	 DD	 $LN6@CBaseIndic
  00174	00 00 00 00	 DD	 $LN4@CBaseIndic
  00178	00 00 00 00	 DD	 $LN6@CBaseIndic
_TEXT	ENDS
;	COMDAT text$x
text$x	SEGMENT
__unwindfunclet$??0CBaseIndicatorList@@QAE@W4EIndicatorListType@@@Z$0:
  00000	8b 45 08	 mov	 eax, DWORD PTR $T7[ebp]
  00003	50		 push	 eax
  00004	e8 00 00 00 00	 call	 ??3CObject@@SGXPAX@Z	; CObject::operator delete
  00009	c3		 ret	 0
__unwindfunclet$??0CBaseIndicatorList@@QAE@W4EIndicatorListType@@@Z$1:
  0000a	8b 45 08	 mov	 eax, DWORD PTR $T6[ebp]
  0000d	50		 push	 eax
  0000e	e8 00 00 00 00	 call	 ??3CObject@@SGXPAX@Z	; CObject::operator delete
  00013	c3		 ret	 0
__unwindfunclet$??0CBaseIndicatorList@@QAE@W4EIndicatorListType@@@Z$2:
  00014	8b 45 08	 mov	 eax, DWORD PTR $T5[ebp]
  00017	50		 push	 eax
  00018	e8 00 00 00 00	 call	 ??3CObject@@SGXPAX@Z	; CObject::operator delete
  0001d	c3		 ret	 0
__unwindfunclet$??0CBaseIndicatorList@@QAE@W4EIndicatorListType@@@Z$3:
  0001e	8b 45 08	 mov	 eax, DWORD PTR $T4[ebp]
  00021	50		 push	 eax
  00022	e8 00 00 00 00	 call	 ??3CObject@@SGXPAX@Z	; CObject::operator delete
  00027	c3		 ret	 0
__unwindfunclet$??0CBaseIndicatorList@@QAE@W4EIndicatorListType@@@Z$4:
  00028	8b 45 08	 mov	 eax, DWORD PTR $T3[ebp]
  0002b	50		 push	 eax
  0002c	e8 00 00 00 00	 call	 ??3CObject@@SGXPAX@Z	; CObject::operator delete
  00031	c3		 ret	 0
__unwindfunclet$??0CBaseIndicatorList@@QAE@W4EIndicatorListType@@@Z$5:
  00032	8b 45 08	 mov	 eax, DWORD PTR $T2[ebp]
  00035	50		 push	 eax
  00036	e8 00 00 00 00	 call	 ??3CObject@@SGXPAX@Z	; CObject::operator delete
  0003b	c3		 ret	 0
  0003c	cc		 int	 3
  0003d	cc		 int	 3
  0003e	cc		 int	 3
  0003f	cc		 int	 3
  00040	cc		 int	 3
__ehhandler$??0CBaseIndicatorList@@QAE@W4EIndicatorListType@@@Z:
  00041	90		 npad	 1
  00042	90		 npad	 1
  00043	8b 54 24 08	 mov	 edx, DWORD PTR [esp+8]
  00047	8d 42 0c	 lea	 eax, DWORD PTR [edx+12]
  0004a	8b 4a f8	 mov	 ecx, DWORD PTR [edx-8]
  0004d	33 c8		 xor	 ecx, eax
  0004f	e8 00 00 00 00	 call	 @__security_check_cookie@4
  00054	b8 00 00 00 00	 mov	 eax, OFFSET __ehfuncinfo$??0CBaseIndicatorList@@QAE@W4EIndicatorListType@@@Z
  00059	e9 00 00 00 00	 jmp	 ___CxxFrameHandler3
text$x	ENDS
??0CBaseIndicatorList@@QAE@W4EIndicatorListType@@@Z ENDP ; CBaseIndicatorList::CBaseIndicatorList
; Function compile flags: /Ogtp
; File D:\git\src\IBK\IBK_DRFN\ProjSrc\SrcChartEx\ChartOCX\IndicatorCondition\IndicatorConditionBaseData.cpp
; File C:\Program Files (x86)\Microsoft Visual Studio\2019\Community\VC\Tools\MSVC\14.29.30133\include\list
; File C:\Program Files (x86)\Microsoft Visual Studio\2019\Community\VC\Tools\MSVC\14.29.30133\include\xmemory
; File C:\Program Files (x86)\Microsoft Visual Studio\2019\Community\VC\Tools\MSVC\14.29.30133\include\list
; File C:\Program Files (x86)\Microsoft Visual Studio\2019\Community\VC\Tools\MSVC\14.29.30133\include\xmemory
; File D:\git\src\IBK\IBK_DRFN\ProjSrc\SrcChartEx\ChartOCX\IndicatorCondition\IndicatorConditionBaseData.cpp
;	COMDAT ??_GCGraphPartData@@UAEPAXI@Z
_TEXT	SEGMENT
___flags$ = 8						; size = 4
??_GCGraphPartData@@UAEPAXI@Z PROC			; CGraphPartData::`scalar deleting destructor', COMDAT
; _this$ = ecx
  00000	55		 push	 ebp
  00001	8b ec		 mov	 ebp, esp

; 361  : {

  00003	57		 push	 edi
  00004	8b f9		 mov	 edi, ecx
  00006	c7 07 00 00 00
	00		 mov	 DWORD PTR [edi], OFFSET ??_7CGraphPartData@@6B@

; 362  : 	DeleteAllSubGraph();

  0000c	e8 00 00 00 00	 call	 ?DeleteAllSubGraph@CGraphPartData@@QAE_NXZ ; CGraphPartData::DeleteAllSubGraph
; File C:\Program Files (x86)\Microsoft Visual Studio\2019\Community\VC\Tools\MSVC\14.29.30133\include\list

; 1431 :         _Node::_Free_non_head(_Al, _My_data._Myhead);

  00011	8b 57 2c	 mov	 edx, DWORD PTR [edi+44]

; 323  :         _Head->_Prev->_Next = nullptr;

  00014	8b 42 04	 mov	 eax, DWORD PTR [edx+4]
  00017	c7 00 00 00 00
	00		 mov	 DWORD PTR [eax], 0

; 324  : 
; 325  :         auto _Pnode = _Head->_Next;

  0001d	8b 02		 mov	 eax, DWORD PTR [edx]

; 326  :         for (_Nodeptr _Pnext; _Pnode; _Pnode = _Pnext) {

  0001f	85 c0		 test	 eax, eax
  00021	74 15		 je	 SHORT $LN13@scalar
  00023	56		 push	 esi
$LL14@scalar:

; 327  :             _Pnext = _Pnode->_Next;

  00024	8b 30		 mov	 esi, DWORD PTR [eax]
; File C:\Program Files (x86)\Microsoft Visual Studio\2019\Community\VC\Tools\MSVC\14.29.30133\include\xmemory

; 255  :         ::operator delete(_Ptr, _Bytes);

  00026	6a 0c		 push	 12			; 0000000cH
  00028	50		 push	 eax
  00029	e8 00 00 00 00	 call	 ??3@YAXPAXI@Z		; operator delete
  0002e	83 c4 08	 add	 esp, 8
; File C:\Program Files (x86)\Microsoft Visual Studio\2019\Community\VC\Tools\MSVC\14.29.30133\include\list

; 326  :         for (_Nodeptr _Pnext; _Pnode; _Pnode = _Pnext) {

  00031	8b c6		 mov	 eax, esi
  00033	85 f6		 test	 esi, esi
  00035	75 ed		 jne	 SHORT $LL14@scalar
  00037	5e		 pop	 esi
$LN13@scalar:
; File C:\Program Files (x86)\Microsoft Visual Studio\2019\Community\VC\Tools\MSVC\14.29.30133\include\xmemory

; 255  :         ::operator delete(_Ptr, _Bytes);

  00038	6a 0c		 push	 12			; 0000000cH
  0003a	ff 77 2c	 push	 DWORD PTR [edi+44]
  0003d	e8 00 00 00 00	 call	 ??3@YAXPAXI@Z		; operator delete
  00042	83 c4 08	 add	 esp, 8
; File D:\git\src\IBK\IBK_DRFN\ProjSrc\SrcChartEx\ChartOCX\IndicatorCondition\IndicatorConditionBaseData.cpp

; 363  : }

  00045	8d 4f 28	 lea	 ecx, DWORD PTR [edi+40]
  00048	ff 15 00 00 00
	00		 call	 DWORD PTR __imp_??1?$CStringT@DV?$StrTraitMFC_DLL@DV?$ChTraitsCRT@D@ATL@@@@@ATL@@QAE@XZ
  0004e	8d 4f 24	 lea	 ecx, DWORD PTR [edi+36]
  00051	ff 15 00 00 00
	00		 call	 DWORD PTR __imp_??1?$CStringT@DV?$StrTraitMFC_DLL@DV?$ChTraitsCRT@D@ATL@@@@@ATL@@QAE@XZ
  00057	8d 4f 10	 lea	 ecx, DWORD PTR [edi+16]
  0005a	e8 00 00 00 00	 call	 ??1CSignalData@@QAE@XZ	; CSignalData::~CSignalData
  0005f	8d 4f 0c	 lea	 ecx, DWORD PTR [edi+12]
  00062	ff 15 00 00 00
	00		 call	 DWORD PTR __imp_??1?$CStringT@DV?$StrTraitMFC_DLL@DV?$ChTraitsCRT@D@ATL@@@@@ATL@@QAE@XZ
  00068	8d 4f 04	 lea	 ecx, DWORD PTR [edi+4]
  0006b	ff 15 00 00 00
	00		 call	 DWORD PTR __imp_??1?$CStringT@DV?$StrTraitMFC_DLL@DV?$ChTraitsCRT@D@ATL@@@@@ATL@@QAE@XZ
  00071	f6 45 08 01	 test	 BYTE PTR ___flags$[ebp], 1
  00075	74 0b		 je	 SHORT $LN71@scalar
  00077	6a 34		 push	 52			; 00000034H
  00079	57		 push	 edi
  0007a	e8 00 00 00 00	 call	 ??3@YAXPAXI@Z		; operator delete
  0007f	83 c4 08	 add	 esp, 8
$LN71@scalar:
  00082	8b c7		 mov	 eax, edi
  00084	5f		 pop	 edi
  00085	5d		 pop	 ebp
  00086	c2 04 00	 ret	 4
??_GCGraphPartData@@UAEPAXI@Z ENDP			; CGraphPartData::`scalar deleting destructor'
_TEXT	ENDS
; Function compile flags: /Ogtp
; File D:\git\src\IBK\IBK_DRFN\ProjSrc\SrcChartEx\ChartOCX\IndicatorCondition\IndicatorConditionBaseData.cpp
; File C:\Program Files (x86)\Microsoft Visual Studio\2019\Community\VC\Tools\MSVC\14.29.30133\include\list
; File D:\git\src\IBK\IBK_DRFN\ProjSrc\SrcChartEx\ChartOCX\IndicatorCondition\IndicatorConditionBaseData.cpp
; File C:\Program Files (x86)\Microsoft Visual Studio\2019\Community\VC\Tools\MSVC\14.29.30133\include\list
; File D:\git\src\IBK\IBK_DRFN\ProjSrc\SrcChartEx\ChartOCX\IndicatorCondition\IndicatorConditionBaseData.cpp
; File C:\Program Files (x86)\Microsoft Visual Studio\2019\Community\VC\Tools\MSVC\14.29.30133\include\list
; File D:\git\src\IBK\IBK_DRFN\ProjSrc\SrcChartEx\ChartOCX\IndicatorCondition\IndicatorConditionBaseData.cpp
; File C:\Program Files (x86)\Microsoft Visual Studio\2019\Community\VC\Tools\MSVC\14.29.30133\include\list
; File D:\git\src\IBK\IBK_DRFN\ProjSrc\SrcChartEx\ChartOCX\IndicatorCondition\IndicatorConditionBaseData.cpp
;	COMDAT ?GetSubGraphHiding@CGraphPartData@@QAEHH@Z
_TEXT	SEGMENT
_p_nSubGraphIndex$ = 8					; size = 4
?GetSubGraphHiding@CGraphPartData@@QAEHH@Z PROC		; CGraphPartData::GetSubGraphHiding, COMDAT
; _this$ = ecx

; 1107 : {

  00000	55		 push	 ebp
  00001	8b ec		 mov	 ebp, esp
  00003	56		 push	 esi
  00004	57		 push	 edi

; 1056 : 	if(nSubGraphIndex < 0 || nSubGraphIndex >= m_subGraphPartDataList.size())

  00005	8b 7d 08	 mov	 edi, DWORD PTR _p_nSubGraphIndex$[ebp]
  00008	85 ff		 test	 edi, edi
  0000a	78 22		 js	 SHORT $LN44@GetSubGrap
  0000c	3b 79 30	 cmp	 edi, DWORD PTR [ecx+48]
  0000f	73 1d		 jae	 SHORT $LN44@GetSubGrap
; File C:\Program Files (x86)\Microsoft Visual Studio\2019\Community\VC\Tools\MSVC\14.29.30133\include\list

; 1087 :         return const_iterator(_Mypair._Myval2._Myhead->_Next, _STD addressof(_Mypair._Myval2));

  00011	8b 49 2c	 mov	 ecx, DWORD PTR [ecx+44]
; File D:\git\src\IBK\IBK_DRFN\ProjSrc\SrcChartEx\ChartOCX\IndicatorCondition\IndicatorConditionBaseData.cpp

; 1059 : 	int nCount = 0;

  00014	33 d2		 xor	 edx, edx
; File C:\Program Files (x86)\Microsoft Visual Studio\2019\Community\VC\Tools\MSVC\14.29.30133\include\list

; 38   :     _List_unchecked_const_iterator(_Nodeptr _Pnode, const _Mylist* _Plist) noexcept : _Ptr(_Pnode) {

  00016	8b 01		 mov	 eax, DWORD PTR [ecx]
  00018	3b c1		 cmp	 eax, ecx
; File D:\git\src\IBK\IBK_DRFN\ProjSrc\SrcChartEx\ChartOCX\IndicatorCondition\IndicatorConditionBaseData.cpp

; 1061 : 	for(i = m_subGraphPartDataList.begin(); i != m_subGraphPartDataList.end(); ++i)

  0001a	74 12		 je	 SHORT $LN44@GetSubGrap
  0001c	0f 1f 40 00	 npad	 4
$LL26@GetSubGrap:

; 1062 : 	{
; 1063 :         CSubGraphPartData* pSubGraphPartData = *i;

  00020	8b 70 08	 mov	 esi, DWORD PTR [eax+8]

; 1064 : 		assert(pSubGraphPartData != NULL);
; 1065 : 		if(nSubGraphIndex == nCount)

  00023	3b fa		 cmp	 edi, edx
  00025	74 0f		 je	 SHORT $LN40@GetSubGrap
; File C:\Program Files (x86)\Microsoft Visual Studio\2019\Community\VC\Tools\MSVC\14.29.30133\include\list

; 165  :         this->_Ptr = this->_Ptr->_Next;

  00027	8b 00		 mov	 eax, DWORD PTR [eax]
; File D:\git\src\IBK\IBK_DRFN\ProjSrc\SrcChartEx\ChartOCX\IndicatorCondition\IndicatorConditionBaseData.cpp

; 1067 : 		nCount++;

  00029	42		 inc	 edx
; File C:\Program Files (x86)\Microsoft Visual Studio\2019\Community\VC\Tools\MSVC\14.29.30133\include\list

; 198  :         return this->_Ptr == _Right._Ptr;

  0002a	3b c1		 cmp	 eax, ecx
; File D:\git\src\IBK\IBK_DRFN\ProjSrc\SrcChartEx\ChartOCX\IndicatorCondition\IndicatorConditionBaseData.cpp

; 1061 : 	for(i = m_subGraphPartDataList.begin(); i != m_subGraphPartDataList.end(); ++i)

  0002c	75 f2		 jne	 SHORT $LL26@GetSubGrap
$LN44@GetSubGrap:
  0002e	5f		 pop	 edi

; 1108 : 	CSubGraphData *pSubGraphData = GetSubGraphData( p_nSubGraphIndex);
; 1109 : 	if( !pSubGraphData) return FALSE;

  0002f	33 c0		 xor	 eax, eax

; 1111 : }

  00031	5e		 pop	 esi
  00032	5d		 pop	 ebp
  00033	c2 04 00	 ret	 4
$LN40@GetSubGrap:

; 1108 : 	CSubGraphData *pSubGraphData = GetSubGraphData( p_nSubGraphIndex);
; 1109 : 	if( !pSubGraphData) return FALSE;

  00036	8d 46 24	 lea	 eax, DWORD PTR [esi+36]
  00039	f7 de		 neg	 esi
  0003b	1b f6		 sbb	 esi, esi
  0003d	23 f0		 and	 esi, eax
  0003f	74 ed		 je	 SHORT $LN44@GetSubGrap

; 1110 : 	return pSubGraphData->GetHiding();

  00041	8b ce		 mov	 ecx, esi
  00043	e8 00 00 00 00	 call	 ?GetHiding@CSubGraphData@@ABE_NXZ ; CSubGraphData::GetHiding
  00048	5f		 pop	 edi
  00049	0f b6 c0	 movzx	 eax, al

; 1111 : }

  0004c	5e		 pop	 esi
  0004d	5d		 pop	 ebp
  0004e	c2 04 00	 ret	 4
?GetSubGraphHiding@CGraphPartData@@QAEHH@Z ENDP		; CGraphPartData::GetSubGraphHiding
_TEXT	ENDS
; Function compile flags: /Ogtp
; File D:\git\src\IBK\IBK_DRFN\ProjSrc\SrcChartEx\ChartOCX\IndicatorCondition\IndicatorConditionBaseData.cpp
;	COMDAT ?GetSubGraphHiding@CGraphPartData@@QAEHPBD@Z
_TEXT	SEGMENT
__$EHRec$ = -12						; size = 12
$T2 = 8							; size = 4
_p_szSubGraphName$ = 8					; size = 4
?GetSubGraphHiding@CGraphPartData@@QAEHPBD@Z PROC	; CGraphPartData::GetSubGraphHiding, COMDAT
; _this$ = ecx

; 1101 : {

  00000	55		 push	 ebp
  00001	8b ec		 mov	 ebp, esp
  00003	6a ff		 push	 -1
  00005	68 00 00 00 00	 push	 __ehhandler$?GetSubGraphHiding@CGraphPartData@@QAEHPBD@Z
  0000a	64 a1 00 00 00
	00		 mov	 eax, DWORD PTR fs:0
  00010	50		 push	 eax
  00011	56		 push	 esi
  00012	a1 00 00 00 00	 mov	 eax, DWORD PTR ___security_cookie
  00017	33 c5		 xor	 eax, ebp
  00019	50		 push	 eax
  0001a	8d 45 f4	 lea	 eax, DWORD PTR __$EHRec$[ebp]
  0001d	64 a3 00 00 00
	00		 mov	 DWORD PTR fs:0, eax
  00023	8b f1		 mov	 esi, ecx

; 1102 : 	CSubGraphData *pSubGraphData = GetSubGraphData( p_szSubGraphName);

  00025	ff 75 08	 push	 DWORD PTR _p_szSubGraphName$[ebp]
  00028	8d 4d 08	 lea	 ecx, DWORD PTR $T2[ebp]
  0002b	ff 15 00 00 00
	00		 call	 DWORD PTR __imp_??0?$CStringT@DV?$StrTraitMFC_DLL@DV?$ChTraitsCRT@D@ATL@@@@@ATL@@QAE@PBD@Z

; 1052 : 	return GetSubGraphPartData(&m_subGraphPartDataList, strSubGraphName);

  00031	8d 45 08	 lea	 eax, DWORD PTR $T2[ebp]

; 1102 : 	CSubGraphData *pSubGraphData = GetSubGraphData( p_szSubGraphName);

  00034	c7 45 fc 00 00
	00 00		 mov	 DWORD PTR __$EHRec$[ebp+8], 0

; 1052 : 	return GetSubGraphPartData(&m_subGraphPartDataList, strSubGraphName);

  0003b	50		 push	 eax
  0003c	8d 46 2c	 lea	 eax, DWORD PTR [esi+44]
  0003f	8b ce		 mov	 ecx, esi
  00041	50		 push	 eax
  00042	e8 00 00 00 00	 call	 ?GetSubGraphPartData@CGraphPartData@@QBEPAVCSubGraphPartData@@PBV?$list@PAVCSubGraphPartData@@V?$allocator@PAVCSubGraphPartData@@@std@@@std@@ABV?$CStringT@DV?$StrTraitMFC_DLL@DV?$ChTraitsCRT@D@ATL@@@@@ATL@@@Z ; CGraphPartData::GetSubGraphPartData

; 468  : 	if(pSubGraphPartData == NULL)

  00047	85 c0		 test	 eax, eax
  00049	75 04		 jne	 SHORT $LN6@GetSubGrap

; 469  : 		return NULL;

  0004b	33 f6		 xor	 esi, esi
  0004d	eb 03		 jmp	 SHORT $LN5@GetSubGrap
$LN6@GetSubGrap:

; 470  : 
; 471  : 	return &pSubGraphPartData->GetSubGraphData();

  0004f	8d 70 24	 lea	 esi, DWORD PTR [eax+36]
$LN5@GetSubGrap:

; 1102 : 	CSubGraphData *pSubGraphData = GetSubGraphData( p_szSubGraphName);

  00052	8d 4d 08	 lea	 ecx, DWORD PTR $T2[ebp]
  00055	c7 45 fc ff ff
	ff ff		 mov	 DWORD PTR __$EHRec$[ebp+8], -1
  0005c	ff 15 00 00 00
	00		 call	 DWORD PTR __imp_??1?$CStringT@DV?$StrTraitMFC_DLL@DV?$ChTraitsCRT@D@ATL@@@@@ATL@@QAE@XZ

; 1103 : 	if( !pSubGraphData) return FALSE;

  00062	85 f6		 test	 esi, esi
  00064	75 14		 jne	 SHORT $LN2@GetSubGrap
  00066	33 c0		 xor	 eax, eax

; 1105 : }

  00068	8b 4d f4	 mov	 ecx, DWORD PTR __$EHRec$[ebp]
  0006b	64 89 0d 00 00
	00 00		 mov	 DWORD PTR fs:0, ecx
  00072	59		 pop	 ecx
  00073	5e		 pop	 esi
  00074	8b e5		 mov	 esp, ebp
  00076	5d		 pop	 ebp
  00077	c2 04 00	 ret	 4
$LN2@GetSubGrap:

; 1104 : 	return pSubGraphData->GetHiding();

  0007a	8b ce		 mov	 ecx, esi
  0007c	e8 00 00 00 00	 call	 ?GetHiding@CSubGraphData@@ABE_NXZ ; CSubGraphData::GetHiding
  00081	0f b6 c0	 movzx	 eax, al

; 1105 : }

  00084	8b 4d f4	 mov	 ecx, DWORD PTR __$EHRec$[ebp]
  00087	64 89 0d 00 00
	00 00		 mov	 DWORD PTR fs:0, ecx
  0008e	59		 pop	 ecx
  0008f	5e		 pop	 esi
  00090	8b e5		 mov	 esp, ebp
  00092	5d		 pop	 ebp
  00093	c2 04 00	 ret	 4
_TEXT	ENDS
;	COMDAT text$x
text$x	SEGMENT
__unwindfunclet$?GetSubGraphHiding@CGraphPartData@@QAEHPBD@Z$0:
  00000	8d 4d 08	 lea	 ecx, DWORD PTR $T2[ebp]
  00003	ff 25 00 00 00
	00		 jmp	 DWORD PTR __imp_??1?$CStringT@DV?$StrTraitMFC_DLL@DV?$ChTraitsCRT@D@ATL@@@@@ATL@@QAE@XZ
  00009	cc		 int	 3
  0000a	cc		 int	 3
  0000b	cc		 int	 3
  0000c	cc		 int	 3
  0000d	cc		 int	 3
__ehhandler$?GetSubGraphHiding@CGraphPartData@@QAEHPBD@Z:
  0000e	90		 npad	 1
  0000f	90		 npad	 1
  00010	8b 54 24 08	 mov	 edx, DWORD PTR [esp+8]
  00014	8d 42 0c	 lea	 eax, DWORD PTR [edx+12]
  00017	8b 4a f8	 mov	 ecx, DWORD PTR [edx-8]
  0001a	33 c8		 xor	 ecx, eax
  0001c	e8 00 00 00 00	 call	 @__security_check_cookie@4
  00021	b8 00 00 00 00	 mov	 eax, OFFSET __ehfuncinfo$?GetSubGraphHiding@CGraphPartData@@QAEHPBD@Z
  00026	e9 00 00 00 00	 jmp	 ___CxxFrameHandler3
text$x	ENDS
?GetSubGraphHiding@CGraphPartData@@QAEHPBD@Z ENDP	; CGraphPartData::GetSubGraphHiding
; Function compile flags: /Ogtp
; File D:\git\src\IBK\IBK_DRFN\ProjSrc\SrcChartEx\ChartOCX\IndicatorCondition\IndicatorConditionBaseData.cpp
;	COMDAT ?GetGraphDataDrawingData@CGraphPartData@@QAEPAVCGraphDataDrawingData@@XZ
_TEXT	SEGMENT
?GetGraphDataDrawingData@CGraphPartData@@QAEPAVCGraphDataDrawingData@@XZ PROC ; CGraphPartData::GetGraphDataDrawingData, COMDAT
; _this$ = ecx

; 1096 : 	return &m_graphData.GetGraphDataDrawingData();

  00000	83 c1 08	 add	 ecx, 8
  00003	e9 00 00 00 00	 jmp	 ?GetGraphDataDrawingData@CGraphData@@QAEAAVCGraphDataDrawingData@@XZ ; CGraphData::GetGraphDataDrawingData
?GetGraphDataDrawingData@CGraphPartData@@QAEPAVCGraphDataDrawingData@@XZ ENDP ; CGraphPartData::GetGraphDataDrawingData
_TEXT	ENDS
; Function compile flags: /Ogtp
; File D:\git\src\IBK\IBK_DRFN\ProjSrc\SrcChartEx\ChartOCX\IndicatorCondition\IndicatorConditionBaseData.cpp
;	COMDAT ?SetGraphDataDrawingDataWithCopy@CGraphPartData@@QAEXPBVCGraphDataDrawingData@@@Z
_TEXT	SEGMENT
_p_pGraphDataDrawingData$ = 8				; size = 4
?SetGraphDataDrawingDataWithCopy@CGraphPartData@@QAEXPBVCGraphDataDrawingData@@@Z PROC ; CGraphPartData::SetGraphDataDrawingDataWithCopy, COMDAT
; _this$ = ecx

; 1091 : {

  00000	55		 push	 ebp
  00001	8b ec		 mov	 ebp, esp

; 1092 : 	m_graphData.SetGraphDataDrawingData( *p_pGraphDataDrawingData);

  00003	83 c1 08	 add	 ecx, 8

; 1093 : }

  00006	5d		 pop	 ebp

; 1092 : 	m_graphData.SetGraphDataDrawingData( *p_pGraphDataDrawingData);

  00007	e9 00 00 00 00	 jmp	 ?SetGraphDataDrawingData@CGraphData@@QAEXABVCGraphDataDrawingData@@@Z ; CGraphData::SetGraphDataDrawingData
?SetGraphDataDrawingDataWithCopy@CGraphPartData@@QAEXPBVCGraphDataDrawingData@@@Z ENDP ; CGraphPartData::SetGraphDataDrawingDataWithCopy
_TEXT	ENDS
; Function compile flags: /Ogtp
; File D:\git\src\IBK\IBK_DRFN\ProjSrc\SrcChartEx\ChartOCX\IndicatorCondition\IndicatorConditionBaseData.cpp
; File C:\Program Files (x86)\Microsoft Visual Studio\2019\Community\VC\Tools\MSVC\14.29.30133\include\list
; File D:\git\src\IBK\IBK_DRFN\ProjSrc\SrcChartEx\ChartOCX\IndicatorCondition\IndicatorConditionBaseData.cpp
; File C:\Program Files (x86)\Microsoft Visual Studio\2019\Community\VC\Tools\MSVC\14.29.30133\atlmfc\include\cstringt.h
; File D:\git\src\IBK\IBK_DRFN\ProjSrc\SrcChartEx\ChartOCX\IndicatorCondition\IndicatorConditionBaseData.cpp
; File C:\Program Files (x86)\Microsoft Visual Studio\2019\Community\VC\Tools\MSVC\14.29.30133\atlmfc\include\cstringt.h
; File D:\git\src\IBK\IBK_DRFN\ProjSrc\SrcChartEx\ChartOCX\IndicatorCondition\IndicatorConditionBaseData.cpp
; File C:\Program Files (x86)\Microsoft Visual Studio\2019\Community\VC\Tools\MSVC\14.29.30133\atlmfc\include\cstringt.h
; File D:\git\src\IBK\IBK_DRFN\ProjSrc\SrcChartEx\ChartOCX\IndicatorCondition\IndicatorConditionBaseData.cpp
; File C:\Program Files (x86)\Microsoft Visual Studio\2019\Community\VC\Tools\MSVC\14.29.30133\include\list
; File D:\git\src\IBK\IBK_DRFN\ProjSrc\SrcChartEx\ChartOCX\IndicatorCondition\IndicatorConditionBaseData.cpp
;	COMDAT ?GetSubGraphPartData@CGraphPartData@@QBEPAVCSubGraphPartData@@PBV?$list@PAVCSubGraphPartData@@V?$allocator@PAVCSubGraphPartData@@@std@@@std@@ABV?$CStringT@DV?$StrTraitMFC_DLL@DV?$ChTraitsCRT@D@ATL@@@@@ATL@@@Z
_TEXT	SEGMENT
_pSubGraphPartData$1$ = -16				; size = 4
__$EHRec$ = -12						; size = 12
$T2 = 8							; size = 4
_pSubGraphPartDataList$ = 8				; size = 4
_strSubGraphName$ = 12					; size = 4
?GetSubGraphPartData@CGraphPartData@@QBEPAVCSubGraphPartData@@PBV?$list@PAVCSubGraphPartData@@V?$allocator@PAVCSubGraphPartData@@@std@@@std@@ABV?$CStringT@DV?$StrTraitMFC_DLL@DV?$ChTraitsCRT@D@ATL@@@@@ATL@@@Z PROC ; CGraphPartData::GetSubGraphPartData, COMDAT
; _this$ = ecx

; 1073 : {

  00000	55		 push	 ebp
  00001	8b ec		 mov	 ebp, esp
  00003	6a ff		 push	 -1
  00005	68 00 00 00 00	 push	 __ehhandler$?GetSubGraphPartData@CGraphPartData@@QBEPAVCSubGraphPartData@@PBV?$list@PAVCSubGraphPartData@@V?$allocator@PAVCSubGraphPartData@@@std@@@std@@ABV?$CStringT@DV?$StrTraitMFC_DLL@DV?$ChTraitsCRT@D@ATL@@@@@ATL@@@Z
  0000a	64 a1 00 00 00
	00		 mov	 eax, DWORD PTR fs:0
  00010	50		 push	 eax
  00011	51		 push	 ecx
  00012	53		 push	 ebx
  00013	56		 push	 esi
  00014	57		 push	 edi
  00015	a1 00 00 00 00	 mov	 eax, DWORD PTR ___security_cookie
  0001a	33 c5		 xor	 eax, ebp
  0001c	50		 push	 eax
  0001d	8d 45 f4	 lea	 eax, DWORD PTR __$EHRec$[ebp]
  00020	64 a3 00 00 00
	00		 mov	 DWORD PTR fs:0, eax

; 1074 : 	if(pSubGraphPartDataList->size() <= 0)

  00026	8b 5d 08	 mov	 ebx, DWORD PTR _pSubGraphPartDataList$[ebp]
  00029	83 7b 04 00	 cmp	 DWORD PTR [ebx+4], 0
  0002d	76 4b		 jbe	 SHORT $LN3@GetSubGrap
; File C:\Program Files (x86)\Microsoft Visual Studio\2019\Community\VC\Tools\MSVC\14.29.30133\include\list

; 1087 :         return const_iterator(_Mypair._Myval2._Myhead->_Next, _STD addressof(_Mypair._Myval2));

  0002f	8b 03		 mov	 eax, DWORD PTR [ebx]

; 38   :     _List_unchecked_const_iterator(_Nodeptr _Pnode, const _Mylist* _Plist) noexcept : _Ptr(_Pnode) {

  00031	8b 30		 mov	 esi, DWORD PTR [eax]
; File D:\git\src\IBK\IBK_DRFN\ProjSrc\SrcChartEx\ChartOCX\IndicatorCondition\IndicatorConditionBaseData.cpp

; 1078 : 	for(i = pSubGraphPartDataList->begin(); i != pSubGraphPartDataList->end(); ++i)

  00033	3b f0		 cmp	 esi, eax
  00035	74 43		 je	 SHORT $LN3@GetSubGrap
$LL20@GetSubGrap:

; 1079 : 	{
; 1080 :         CSubGraphPartData* pSubGraphPartData = *i;

  00037	8b 46 08	 mov	 eax, DWORD PTR [esi+8]

; 118  : 	return m_subGraphData.GetName();

  0003a	8d 4d 08	 lea	 ecx, DWORD PTR $T2[ebp]
  0003d	51		 push	 ecx

; 1079 : 	{
; 1080 :         CSubGraphPartData* pSubGraphPartData = *i;

  0003e	89 45 f0	 mov	 DWORD PTR _pSubGraphPartData$1$[ebp], eax

; 118  : 	return m_subGraphData.GetName();

  00041	8d 48 24	 lea	 ecx, DWORD PTR [eax+36]
  00044	e8 00 00 00 00	 call	 ?GetName@CSubGraphDataBase@@QBE?AV?$CStringT@DV?$StrTraitMFC_DLL@DV?$ChTraitsCRT@D@ATL@@@@@ATL@@XZ ; CSubGraphDataBase::GetName
; File C:\Program Files (x86)\Microsoft Visual Studio\2019\Community\VC\Tools\MSVC\14.29.30133\atlmfc\include\cstringt.h

; 2479 : 		return(str1.Compare(str2) == 0);

  00049	8b 45 0c	 mov	 eax, DWORD PTR _strSubGraphName$[ebp]
  0004c	8d 4d 08	 lea	 ecx, DWORD PTR $T2[ebp]
; File D:\git\src\IBK\IBK_DRFN\ProjSrc\SrcChartEx\ChartOCX\IndicatorCondition\IndicatorConditionBaseData.cpp

; 1082 : 		if(pSubGraphPartData->GetSubGraphName() == strSubGraphName)

  0004f	c7 45 fc 00 00
	00 00		 mov	 DWORD PTR __$EHRec$[ebp+8], 0
; File C:\Program Files (x86)\Microsoft Visual Studio\2019\Community\VC\Tools\MSVC\14.29.30133\atlmfc\include\cstringt.h

; 2479 : 		return(str1.Compare(str2) == 0);

  00056	ff 30		 push	 DWORD PTR [eax]
  00058	ff 15 00 00 00
	00		 call	 DWORD PTR __imp_?Compare@?$CStringT@DV?$StrTraitMFC_DLL@DV?$ChTraitsCRT@D@ATL@@@@@ATL@@QBEHPBD@Z
; File D:\git\src\IBK\IBK_DRFN\ProjSrc\SrcChartEx\ChartOCX\IndicatorCondition\IndicatorConditionBaseData.cpp

; 1082 : 		if(pSubGraphPartData->GetSubGraphName() == strSubGraphName)

  0005e	8d 4d 08	 lea	 ecx, DWORD PTR $T2[ebp]
  00061	c7 45 fc ff ff
	ff ff		 mov	 DWORD PTR __$EHRec$[ebp+8], -1
; File C:\Program Files (x86)\Microsoft Visual Studio\2019\Community\VC\Tools\MSVC\14.29.30133\atlmfc\include\cstringt.h

; 2479 : 		return(str1.Compare(str2) == 0);

  00068	8b f8		 mov	 edi, eax
; File D:\git\src\IBK\IBK_DRFN\ProjSrc\SrcChartEx\ChartOCX\IndicatorCondition\IndicatorConditionBaseData.cpp

; 1082 : 		if(pSubGraphPartData->GetSubGraphName() == strSubGraphName)

  0006a	ff 15 00 00 00
	00		 call	 DWORD PTR __imp_??1?$CStringT@DV?$StrTraitMFC_DLL@DV?$ChTraitsCRT@D@ATL@@@@@ATL@@QAE@XZ
  00070	85 ff		 test	 edi, edi
  00072	74 1c		 je	 SHORT $LN42@GetSubGrap
; File C:\Program Files (x86)\Microsoft Visual Studio\2019\Community\VC\Tools\MSVC\14.29.30133\include\list

; 165  :         this->_Ptr = this->_Ptr->_Next;

  00074	8b 36		 mov	 esi, DWORD PTR [esi]

; 198  :         return this->_Ptr == _Right._Ptr;

  00076	3b 33		 cmp	 esi, DWORD PTR [ebx]
; File D:\git\src\IBK\IBK_DRFN\ProjSrc\SrcChartEx\ChartOCX\IndicatorCondition\IndicatorConditionBaseData.cpp

; 1078 : 	for(i = pSubGraphPartDataList->begin(); i != pSubGraphPartDataList->end(); ++i)

  00078	75 bd		 jne	 SHORT $LL20@GetSubGrap
$LN3@GetSubGrap:

; 1084 : 	}
; 1085 : 
; 1086 : 	return NULL;

  0007a	33 c0		 xor	 eax, eax

; 1087 : }

  0007c	8b 4d f4	 mov	 ecx, DWORD PTR __$EHRec$[ebp]
  0007f	64 89 0d 00 00
	00 00		 mov	 DWORD PTR fs:0, ecx
  00086	59		 pop	 ecx
  00087	5f		 pop	 edi
  00088	5e		 pop	 esi
  00089	5b		 pop	 ebx
  0008a	8b e5		 mov	 esp, ebp
  0008c	5d		 pop	 ebp
  0008d	c2 08 00	 ret	 8
$LN42@GetSubGrap:

; 1083 : 			return pSubGraphPartData;

  00090	8b 45 f0	 mov	 eax, DWORD PTR _pSubGraphPartData$1$[ebp]

; 1087 : }

  00093	8b 4d f4	 mov	 ecx, DWORD PTR __$EHRec$[ebp]
  00096	64 89 0d 00 00
	00 00		 mov	 DWORD PTR fs:0, ecx
  0009d	59		 pop	 ecx
  0009e	5f		 pop	 edi
  0009f	5e		 pop	 esi
  000a0	5b		 pop	 ebx
  000a1	8b e5		 mov	 esp, ebp
  000a3	5d		 pop	 ebp
  000a4	c2 08 00	 ret	 8
_TEXT	ENDS
;	COMDAT text$x
text$x	SEGMENT
__unwindfunclet$?GetSubGraphPartData@CGraphPartData@@QBEPAVCSubGraphPartData@@PBV?$list@PAVCSubGraphPartData@@V?$allocator@PAVCSubGraphPartData@@@std@@@std@@ABV?$CStringT@DV?$StrTraitMFC_DLL@DV?$ChTraitsCRT@D@ATL@@@@@ATL@@@Z$0:
  00000	8d 4d 08	 lea	 ecx, DWORD PTR $T2[ebp]
  00003	ff 25 00 00 00
	00		 jmp	 DWORD PTR __imp_??1?$CStringT@DV?$StrTraitMFC_DLL@DV?$ChTraitsCRT@D@ATL@@@@@ATL@@QAE@XZ
  00009	cc		 int	 3
  0000a	cc		 int	 3
  0000b	cc		 int	 3
  0000c	cc		 int	 3
  0000d	cc		 int	 3
__ehhandler$?GetSubGraphPartData@CGraphPartData@@QBEPAVCSubGraphPartData@@PBV?$list@PAVCSubGraphPartData@@V?$allocator@PAVCSubGraphPartData@@@std@@@std@@ABV?$CStringT@DV?$StrTraitMFC_DLL@DV?$ChTraitsCRT@D@ATL@@@@@ATL@@@Z:
  0000e	90		 npad	 1
  0000f	90		 npad	 1
  00010	8b 54 24 08	 mov	 edx, DWORD PTR [esp+8]
  00014	8d 42 0c	 lea	 eax, DWORD PTR [edx+12]
  00017	8b 4a ec	 mov	 ecx, DWORD PTR [edx-20]
  0001a	33 c8		 xor	 ecx, eax
  0001c	e8 00 00 00 00	 call	 @__security_check_cookie@4
  00021	b8 00 00 00 00	 mov	 eax, OFFSET __ehfuncinfo$?GetSubGraphPartData@CGraphPartData@@QBEPAVCSubGraphPartData@@PBV?$list@PAVCSubGraphPartData@@V?$allocator@PAVCSubGraphPartData@@@std@@@std@@ABV?$CStringT@DV?$StrTraitMFC_DLL@DV?$ChTraitsCRT@D@ATL@@@@@ATL@@@Z
  00026	e9 00 00 00 00	 jmp	 ___CxxFrameHandler3
text$x	ENDS
?GetSubGraphPartData@CGraphPartData@@QBEPAVCSubGraphPartData@@PBV?$list@PAVCSubGraphPartData@@V?$allocator@PAVCSubGraphPartData@@@std@@@std@@ABV?$CStringT@DV?$StrTraitMFC_DLL@DV?$ChTraitsCRT@D@ATL@@@@@ATL@@@Z ENDP ; CGraphPartData::GetSubGraphPartData
; Function compile flags: /Ogtp
; File D:\git\src\IBK\IBK_DRFN\ProjSrc\SrcChartEx\ChartOCX\IndicatorCondition\IndicatorConditionBaseData.cpp
; File C:\Program Files (x86)\Microsoft Visual Studio\2019\Community\VC\Tools\MSVC\14.29.30133\include\list
; File D:\git\src\IBK\IBK_DRFN\ProjSrc\SrcChartEx\ChartOCX\IndicatorCondition\IndicatorConditionBaseData.cpp
; File C:\Program Files (x86)\Microsoft Visual Studio\2019\Community\VC\Tools\MSVC\14.29.30133\include\list
; File D:\git\src\IBK\IBK_DRFN\ProjSrc\SrcChartEx\ChartOCX\IndicatorCondition\IndicatorConditionBaseData.cpp
; File C:\Program Files (x86)\Microsoft Visual Studio\2019\Community\VC\Tools\MSVC\14.29.30133\include\list
; File D:\git\src\IBK\IBK_DRFN\ProjSrc\SrcChartEx\ChartOCX\IndicatorCondition\IndicatorConditionBaseData.cpp
; File C:\Program Files (x86)\Microsoft Visual Studio\2019\Community\VC\Tools\MSVC\14.29.30133\include\list
; File D:\git\src\IBK\IBK_DRFN\ProjSrc\SrcChartEx\ChartOCX\IndicatorCondition\IndicatorConditionBaseData.cpp
;	COMDAT ?GetSubGraphPartData@CGraphPartData@@QBEPAVCSubGraphPartData@@H@Z
_TEXT	SEGMENT
_nSubGraphIndex$ = 8					; size = 4
?GetSubGraphPartData@CGraphPartData@@QBEPAVCSubGraphPartData@@H@Z PROC ; CGraphPartData::GetSubGraphPartData, COMDAT
; _this$ = ecx

; 1055 : {

  00000	55		 push	 ebp
  00001	8b ec		 mov	 ebp, esp
  00003	56		 push	 esi

; 1056 : 	if(nSubGraphIndex < 0 || nSubGraphIndex >= m_subGraphPartDataList.size())

  00004	8b 75 08	 mov	 esi, DWORD PTR _nSubGraphIndex$[ebp]
  00007	57		 push	 edi
  00008	85 f6		 test	 esi, esi
  0000a	78 22		 js	 SHORT $LN6@GetSubGrap
  0000c	3b 71 30	 cmp	 esi, DWORD PTR [ecx+48]
  0000f	73 1d		 jae	 SHORT $LN6@GetSubGrap
; File C:\Program Files (x86)\Microsoft Visual Studio\2019\Community\VC\Tools\MSVC\14.29.30133\include\list

; 1087 :         return const_iterator(_Mypair._Myval2._Myhead->_Next, _STD addressof(_Mypair._Myval2));

  00011	8b 49 2c	 mov	 ecx, DWORD PTR [ecx+44]
; File D:\git\src\IBK\IBK_DRFN\ProjSrc\SrcChartEx\ChartOCX\IndicatorCondition\IndicatorConditionBaseData.cpp

; 1059 : 	int nCount = 0;

  00014	33 d2		 xor	 edx, edx
; File C:\Program Files (x86)\Microsoft Visual Studio\2019\Community\VC\Tools\MSVC\14.29.30133\include\list

; 38   :     _List_unchecked_const_iterator(_Nodeptr _Pnode, const _Mylist* _Plist) noexcept : _Ptr(_Pnode) {

  00016	8b 01		 mov	 eax, DWORD PTR [ecx]
  00018	3b c1		 cmp	 eax, ecx
; File D:\git\src\IBK\IBK_DRFN\ProjSrc\SrcChartEx\ChartOCX\IndicatorCondition\IndicatorConditionBaseData.cpp

; 1061 : 	for(i = m_subGraphPartDataList.begin(); i != m_subGraphPartDataList.end(); ++i)

  0001a	74 12		 je	 SHORT $LN6@GetSubGrap
  0001c	0f 1f 40 00	 npad	 4
$LL20@GetSubGrap:

; 1062 : 	{
; 1063 :         CSubGraphPartData* pSubGraphPartData = *i;

  00020	8b 78 08	 mov	 edi, DWORD PTR [eax+8]

; 1064 : 		assert(pSubGraphPartData != NULL);
; 1065 : 		if(nSubGraphIndex == nCount)

  00023	3b f2		 cmp	 esi, edx
  00025	74 0f		 je	 SHORT $LN34@GetSubGrap
; File C:\Program Files (x86)\Microsoft Visual Studio\2019\Community\VC\Tools\MSVC\14.29.30133\include\list

; 165  :         this->_Ptr = this->_Ptr->_Next;

  00027	8b 00		 mov	 eax, DWORD PTR [eax]
; File D:\git\src\IBK\IBK_DRFN\ProjSrc\SrcChartEx\ChartOCX\IndicatorCondition\IndicatorConditionBaseData.cpp

; 1067 : 		nCount++;

  00029	42		 inc	 edx
; File C:\Program Files (x86)\Microsoft Visual Studio\2019\Community\VC\Tools\MSVC\14.29.30133\include\list

; 198  :         return this->_Ptr == _Right._Ptr;

  0002a	3b c1		 cmp	 eax, ecx
; File D:\git\src\IBK\IBK_DRFN\ProjSrc\SrcChartEx\ChartOCX\IndicatorCondition\IndicatorConditionBaseData.cpp

; 1061 : 	for(i = m_subGraphPartDataList.begin(); i != m_subGraphPartDataList.end(); ++i)

  0002c	75 f2		 jne	 SHORT $LL20@GetSubGrap
$LN6@GetSubGrap:
  0002e	5f		 pop	 edi

; 1057 : 		return NULL;

  0002f	33 c0		 xor	 eax, eax

; 1068 : 	}
; 1069 : 
; 1070 : 	return NULL;
; 1071 : }

  00031	5e		 pop	 esi
  00032	5d		 pop	 ebp
  00033	c2 04 00	 ret	 4
$LN34@GetSubGrap:

; 1066 : 			return pSubGraphPartData;

  00036	8b c7		 mov	 eax, edi
  00038	5f		 pop	 edi

; 1068 : 	}
; 1069 : 
; 1070 : 	return NULL;
; 1071 : }

  00039	5e		 pop	 esi
  0003a	5d		 pop	 ebp
  0003b	c2 04 00	 ret	 4
?GetSubGraphPartData@CGraphPartData@@QBEPAVCSubGraphPartData@@H@Z ENDP ; CGraphPartData::GetSubGraphPartData
_TEXT	ENDS
; Function compile flags: /Ogtp
; File D:\git\src\IBK\IBK_DRFN\ProjSrc\SrcChartEx\ChartOCX\IndicatorCondition\IndicatorConditionBaseData.cpp
;	COMDAT ?GetSubGraphPartData@CGraphPartData@@QBEPAVCSubGraphPartData@@ABV?$CStringT@DV?$StrTraitMFC_DLL@DV?$ChTraitsCRT@D@ATL@@@@@ATL@@@Z
_TEXT	SEGMENT
_strSubGraphName$ = 8					; size = 4
?GetSubGraphPartData@CGraphPartData@@QBEPAVCSubGraphPartData@@ABV?$CStringT@DV?$StrTraitMFC_DLL@DV?$ChTraitsCRT@D@ATL@@@@@ATL@@@Z PROC ; CGraphPartData::GetSubGraphPartData, COMDAT
; _this$ = ecx

; 1051 : {

  00000	55		 push	 ebp
  00001	8b ec		 mov	 ebp, esp

; 1052 : 	return GetSubGraphPartData(&m_subGraphPartDataList, strSubGraphName);

  00003	ff 75 08	 push	 DWORD PTR _strSubGraphName$[ebp]
  00006	8d 41 2c	 lea	 eax, DWORD PTR [ecx+44]
  00009	50		 push	 eax
  0000a	e8 00 00 00 00	 call	 ?GetSubGraphPartData@CGraphPartData@@QBEPAVCSubGraphPartData@@PBV?$list@PAVCSubGraphPartData@@V?$allocator@PAVCSubGraphPartData@@@std@@@std@@ABV?$CStringT@DV?$StrTraitMFC_DLL@DV?$ChTraitsCRT@D@ATL@@@@@ATL@@@Z ; CGraphPartData::GetSubGraphPartData

; 1053 : }

  0000f	5d		 pop	 ebp
  00010	c2 04 00	 ret	 4
?GetSubGraphPartData@CGraphPartData@@QBEPAVCSubGraphPartData@@ABV?$CStringT@DV?$StrTraitMFC_DLL@DV?$ChTraitsCRT@D@ATL@@@@@ATL@@@Z ENDP ; CGraphPartData::GetSubGraphPartData
_TEXT	ENDS
; Function compile flags: /Ogtp
; File D:\git\src\IBK\IBK_DRFN\ProjSrc\SrcChartEx\ChartOCX\IndicatorCondition\IndicatorConditionBaseData.cpp
; File C:\Program Files (x86)\Microsoft Visual Studio\2019\Community\VC\Tools\MSVC\14.29.30133\include\list
; File D:\git\src\IBK\IBK_DRFN\ProjSrc\SrcChartEx\ChartOCX\IndicatorCondition\IndicatorConditionBaseData.cpp
; File C:\Program Files (x86)\Microsoft Visual Studio\2019\Community\VC\Tools\MSVC\14.29.30133\include\list
; File C:\Program Files (x86)\Microsoft Visual Studio\2019\Community\VC\Tools\MSVC\14.29.30133\include\xmemory
; File C:\Program Files (x86)\Microsoft Visual Studio\2019\Community\VC\Tools\MSVC\14.29.30133\include\list
; File C:\Program Files (x86)\Microsoft Visual Studio\2019\Community\VC\Tools\MSVC\14.29.30133\include\xmemory
; File C:\Program Files (x86)\Microsoft Visual Studio\2019\Community\VC\Tools\MSVC\14.29.30133\include\list
; File D:\git\src\IBK\IBK_DRFN\ProjSrc\SrcChartEx\ChartOCX\IndicatorCondition\IndicatorConditionBaseData.cpp
; File C:\Program Files (x86)\Microsoft Visual Studio\2019\Community\VC\Tools\MSVC\14.29.30133\include\list
; File D:\git\src\IBK\IBK_DRFN\ProjSrc\SrcChartEx\ChartOCX\IndicatorCondition\IndicatorConditionBaseData.cpp
;	COMDAT ?AddSubGraphPartDataWithCopy@CGraphPartData@@QAEHPBVCSubGraphPartData@@@Z
_TEXT	SEGMENT
__Op$2 = -20						; size = 8
$T3 = -16						; size = 4
__$EHRec$ = -12						; size = 12
_pSubGraphPartData$ = 8					; size = 4
?AddSubGraphPartDataWithCopy@CGraphPartData@@QAEHPBVCSubGraphPartData@@@Z PROC ; CGraphPartData::AddSubGraphPartDataWithCopy, COMDAT
; _this$ = ecx

; 1046 : {

  00000	55		 push	 ebp
  00001	8b ec		 mov	 ebp, esp
  00003	6a ff		 push	 -1
  00005	68 00 00 00 00	 push	 __ehhandler$?AddSubGraphPartDataWithCopy@CGraphPartData@@QAEHPBVCSubGraphPartData@@@Z
  0000a	64 a1 00 00 00
	00		 mov	 eax, DWORD PTR fs:0
  00010	50		 push	 eax
  00011	83 ec 08	 sub	 esp, 8
  00014	53		 push	 ebx
  00015	56		 push	 esi
  00016	57		 push	 edi
  00017	a1 00 00 00 00	 mov	 eax, DWORD PTR ___security_cookie
  0001c	33 c5		 xor	 eax, ebp
  0001e	50		 push	 eax
  0001f	8d 45 f4	 lea	 eax, DWORD PTR __$EHRec$[ebp]
  00022	64 a3 00 00 00
	00		 mov	 DWORD PTR fs:0, eax
  00028	8b f1		 mov	 esi, ecx

; 1047 : 	m_subGraphPartDataList.push_back( new CSubGraphPartData( *pSubGraphPartData));

  0002a	68 ac 00 00 00	 push	 172			; 000000acH
  0002f	e8 00 00 00 00	 call	 ??2@YAPAXI@Z		; operator new
  00034	83 c4 04	 add	 esp, 4
  00037	89 45 f0	 mov	 DWORD PTR $T3[ebp], eax
  0003a	c7 45 fc 00 00
	00 00		 mov	 DWORD PTR __$EHRec$[ebp+8], 0
  00041	85 c0		 test	 eax, eax
  00043	74 0e		 je	 SHORT $LN3@AddSubGrap
  00045	ff 75 08	 push	 DWORD PTR _pSubGraphPartData$[ebp]
  00048	8b c8		 mov	 ecx, eax
  0004a	e8 00 00 00 00	 call	 ??0CSubGraphPartData@@QAE@ABV0@@Z ; CSubGraphPartData::CSubGraphPartData
  0004f	8b f8		 mov	 edi, eax
  00051	eb 02		 jmp	 SHORT $LN4@AddSubGrap
$LN3@AddSubGrap:
  00053	33 ff		 xor	 edi, edi
$LN4@AddSubGrap:
; File C:\Program Files (x86)\Microsoft Visual Studio\2019\Community\VC\Tools\MSVC\14.29.30133\include\list

; 964  :         _Emplace(_Mypair._Myval2._Myhead, _STD move(_Val));

  00055	8b 5e 2c	 mov	 ebx, DWORD PTR [esi+44]
; File D:\git\src\IBK\IBK_DRFN\ProjSrc\SrcChartEx\ChartOCX\IndicatorCondition\IndicatorConditionBaseData.cpp

; 1047 : 	m_subGraphPartDataList.push_back( new CSubGraphPartData( *pSubGraphPartData));

  00058	83 c6 2c	 add	 esi, 44			; 0000002cH
  0005b	c7 45 fc ff ff
	ff ff		 mov	 DWORD PTR __$EHRec$[ebp+8], -1
; File C:\Program Files (x86)\Microsoft Visual Studio\2019\Community\VC\Tools\MSVC\14.29.30133\include\list

; 1005 :         if (_Mysize == max_size()) {

  00062	81 7e 04 55 55
	55 15		 cmp	 DWORD PTR [esi+4], 357913941 ; 15555555H
  00069	74 47		 je	 SHORT $LN82@AddSubGrap
; File C:\Program Files (x86)\Microsoft Visual Studio\2019\Community\VC\Tools\MSVC\14.29.30133\include\xmemory

; 958  :     _CONSTEXPR20_DYNALLOC explicit _Alloc_construct_ptr(_Alloc& _Al_) : _Al(_Al_), _Ptr(nullptr) {}

  0006b	89 75 ec	 mov	 DWORD PTR __Op$2[ebp], esi

; 79   :         return ::operator new(_Bytes);

  0006e	6a 0c		 push	 12			; 0000000cH
; File C:\Program Files (x86)\Microsoft Visual Studio\2019\Community\VC\Tools\MSVC\14.29.30133\include\list

; 582  :     explicit _List_node_emplace_op2(_Alnode& _Al_, _Valtys&&... _Vals) : _Alloc_construct_ptr<_Alnode>(_Al_) {

  00070	c7 45 fc 01 00
	00 00		 mov	 DWORD PTR __$EHRec$[ebp+8], 1
; File C:\Program Files (x86)\Microsoft Visual Studio\2019\Community\VC\Tools\MSVC\14.29.30133\include\xmemory

; 965  :         _Ptr = nullptr; // if allocate throws, prevents double-free

  00077	c7 45 f0 00 00
	00 00		 mov	 DWORD PTR __Op$2[ebp+4], 0

; 79   :         return ::operator new(_Bytes);

  0007e	e8 00 00 00 00	 call	 ??2@YAPAXI@Z		; operator new
  00083	83 c4 04	 add	 esp, 4
; File C:\Program Files (x86)\Microsoft Visual Studio\2019\Community\VC\Tools\MSVC\14.29.30133\include\list

; 584  :         _Alnode_traits::construct(this->_Al, _STD addressof(this->_Ptr->_Myval), _STD forward<_Valtys>(_Vals)...);

  00086	89 78 08	 mov	 DWORD PTR [eax+8], edi

; 1010 :         ++_Mysize;

  00089	ff 46 04	 inc	 DWORD PTR [esi+4]

; 597  :         const pointer _Insert_after = _Insert_before->_Prev;

  0008c	8b 4b 04	 mov	 ecx, DWORD PTR [ebx+4]

; 598  :         _Construct_in_place(this->_Ptr->_Next, _Insert_before);

  0008f	89 18		 mov	 DWORD PTR [eax], ebx

; 599  :         _Construct_in_place(this->_Ptr->_Prev, _Insert_after);

  00091	89 48 04	 mov	 DWORD PTR [eax+4], ecx

; 600  :         const auto _Result    = this->_Ptr;
; 601  :         this->_Ptr            = pointer{};
; 602  :         _Insert_before->_Prev = _Result;

  00094	89 43 04	 mov	 DWORD PTR [ebx+4], eax

; 603  :         _Insert_after->_Next  = _Result;

  00097	89 01		 mov	 DWORD PTR [ecx], eax
; File D:\git\src\IBK\IBK_DRFN\ProjSrc\SrcChartEx\ChartOCX\IndicatorCondition\IndicatorConditionBaseData.cpp

; 1048 : 	return true;

  00099	b8 01 00 00 00	 mov	 eax, 1

; 1049 : }

  0009e	8b 4d f4	 mov	 ecx, DWORD PTR __$EHRec$[ebp]
  000a1	64 89 0d 00 00
	00 00		 mov	 DWORD PTR fs:0, ecx
  000a8	59		 pop	 ecx
  000a9	5f		 pop	 edi
  000aa	5e		 pop	 esi
  000ab	5b		 pop	 ebx
  000ac	8b e5		 mov	 esp, ebp
  000ae	5d		 pop	 ebp
  000af	c2 04 00	 ret	 4
$LN82@AddSubGrap:
; File C:\Program Files (x86)\Microsoft Visual Studio\2019\Community\VC\Tools\MSVC\14.29.30133\include\list

; 1006 :             _Xlength_error("list too long");

  000b2	68 00 00 00 00	 push	 OFFSET ??_C@_0O@NKNMEGII@list?5too?5long@
  000b7	e8 00 00 00 00	 call	 ?_Xlength_error@std@@YAXPBD@Z ; std::_Xlength_error
$LN80@AddSubGrap:
  000bc	cc		 int	 3
_TEXT	ENDS
;	COMDAT text$x
text$x	SEGMENT
__unwindfunclet$?AddSubGraphPartDataWithCopy@CGraphPartData@@QAEHPBVCSubGraphPartData@@@Z$0:
  00000	68 ac 00 00 00	 push	 172			; 000000acH
  00005	8b 45 f0	 mov	 eax, DWORD PTR $T3[ebp]
  00008	50		 push	 eax
  00009	e8 00 00 00 00	 call	 ??3@YAXPAXI@Z		; operator delete
  0000e	83 c4 08	 add	 esp, 8
  00011	c3		 ret	 0
__unwindfunclet$?AddSubGraphPartDataWithCopy@CGraphPartData@@QAEHPBVCSubGraphPartData@@@Z$2:
  00012	8d 4d ec	 lea	 ecx, DWORD PTR __Op$2[ebp]
  00015	e9 00 00 00 00	 jmp	 ??1?$_Alloc_construct_ptr@V?$allocator@U?$_List_node@PAVCSubGraphPartData@@PAX@std@@@std@@@std@@QAE@XZ ; std::_Alloc_construct_ptr<std::allocator<std::_List_node<CSubGraphPartData *,void *> > >::~_Alloc_construct_ptr<std::allocator<std::_List_node<CSubGraphPartData *,void *> > >
  0001a	cc		 int	 3
  0001b	cc		 int	 3
  0001c	cc		 int	 3
  0001d	cc		 int	 3
  0001e	cc		 int	 3
__ehhandler$?AddSubGraphPartDataWithCopy@CGraphPartData@@QAEHPBVCSubGraphPartData@@@Z:
  0001f	90		 npad	 1
  00020	90		 npad	 1
  00021	8b 54 24 08	 mov	 edx, DWORD PTR [esp+8]
  00025	8d 42 0c	 lea	 eax, DWORD PTR [edx+12]
  00028	8b 4a e8	 mov	 ecx, DWORD PTR [edx-24]
  0002b	33 c8		 xor	 ecx, eax
  0002d	e8 00 00 00 00	 call	 @__security_check_cookie@4
  00032	b8 00 00 00 00	 mov	 eax, OFFSET __ehfuncinfo$?AddSubGraphPartDataWithCopy@CGraphPartData@@QAEHPBVCSubGraphPartData@@@Z
  00037	e9 00 00 00 00	 jmp	 ___CxxFrameHandler3
text$x	ENDS
?AddSubGraphPartDataWithCopy@CGraphPartData@@QAEHPBVCSubGraphPartData@@@Z ENDP ; CGraphPartData::AddSubGraphPartDataWithCopy
; Function compile flags: /Ogtp
; File D:\git\src\IBK\IBK_DRFN\ProjSrc\SrcChartEx\ChartOCX\IndicatorCondition\IndicatorConditionBaseData.cpp
; File C:\Program Files (x86)\Microsoft Visual Studio\2019\Community\VC\Tools\MSVC\14.29.30133\include\list
; File D:\git\src\IBK\IBK_DRFN\ProjSrc\SrcChartEx\ChartOCX\IndicatorCondition\IndicatorConditionBaseData.cpp
; File C:\Program Files (x86)\Microsoft Visual Studio\2019\Community\VC\Tools\MSVC\14.29.30133\include\list
; File D:\git\src\IBK\IBK_DRFN\ProjSrc\SrcChartEx\ChartOCX\IndicatorCondition\IndicatorConditionBaseData.cpp
; File C:\Program Files (x86)\Microsoft Visual Studio\2019\Community\VC\Tools\MSVC\14.29.30133\atlmfc\include\atlsimpstr.h
; File D:\git\src\IBK\IBK_DRFN\ProjSrc\SrcChartEx\ChartOCX\IndicatorCondition\IndicatorConditionBaseData.cpp
; File C:\Program Files (x86)\Microsoft Visual Studio\2019\Community\VC\Tools\MSVC\14.29.30133\include\list
; File D:\git\src\IBK\IBK_DRFN\ProjSrc\SrcChartEx\ChartOCX\IndicatorCondition\IndicatorConditionBaseData.cpp
; File C:\Program Files (x86)\Microsoft Visual Studio\2019\Community\VC\Tools\MSVC\14.29.30133\atlmfc\include\cstringt.h
; File D:\git\src\IBK\IBK_DRFN\ProjSrc\SrcChartEx\ChartOCX\IndicatorCondition\IndicatorConditionBaseData.cpp
; File C:\Program Files (x86)\Microsoft Visual Studio\2019\Community\VC\Tools\MSVC\14.29.30133\atlmfc\include\afxtempl.h
; File D:\git\src\IBK\IBK_DRFN\ProjSrc\SrcChartEx\ChartOCX\IndicatorCondition\IndicatorConditionBaseData.cpp
; File C:\Program Files (x86)\Microsoft Visual Studio\2019\Community\VC\Tools\MSVC\14.29.30133\include\list
; File D:\git\src\IBK\IBK_DRFN\ProjSrc\SrcChartEx\ChartOCX\IndicatorCondition\IndicatorConditionBaseData.cpp
;	COMDAT ?ChangeCalConditionDataFromSubGraphTitle@CGraphPartData@@QAE_NXZ
_TEXT	SEGMENT
_dData$2 = -32						; size = 8
_this$1$ = -24						; size = 4
_strTitle$3 = -20					; size = 4
$T4 = -13						; size = 1
__$EHRec$ = -12						; size = 12
?ChangeCalConditionDataFromSubGraphTitle@CGraphPartData@@QAE_NXZ PROC ; CGraphPartData::ChangeCalConditionDataFromSubGraphTitle, COMDAT
; _this$ = ecx

; 942  : {

  00000	55		 push	 ebp
  00001	8b ec		 mov	 ebp, esp
  00003	6a ff		 push	 -1
  00005	68 00 00 00 00	 push	 __ehhandler$?ChangeCalConditionDataFromSubGraphTitle@CGraphPartData@@QAE_NXZ
  0000a	64 a1 00 00 00
	00		 mov	 eax, DWORD PTR fs:0
  00010	50		 push	 eax
  00011	83 ec 14	 sub	 esp, 20			; 00000014H
  00014	53		 push	 ebx
  00015	56		 push	 esi
  00016	57		 push	 edi
  00017	a1 00 00 00 00	 mov	 eax, DWORD PTR ___security_cookie
  0001c	33 c5		 xor	 eax, ebp
  0001e	50		 push	 eax
  0001f	8d 45 f4	 lea	 eax, DWORD PTR __$EHRec$[ebp]
  00022	64 a3 00 00 00
	00		 mov	 DWORD PTR fs:0, eax
  00028	8b c1		 mov	 eax, ecx
  0002a	89 45 e8	 mov	 DWORD PTR _this$1$[ebp], eax
; File C:\Program Files (x86)\Microsoft Visual Studio\2019\Community\VC\Tools\MSVC\14.29.30133\include\list

; 1083 :         return iterator(_Mypair._Myval2._Myhead->_Next, _STD addressof(_Mypair._Myval2));

  0002d	8b 40 2c	 mov	 eax, DWORD PTR [eax+44]
; File D:\git\src\IBK\IBK_DRFN\ProjSrc\SrcChartEx\ChartOCX\IndicatorCondition\IndicatorConditionBaseData.cpp

; 943  : 	bool bResult = false;

  00030	32 db		 xor	 bl, bl
; File C:\Program Files (x86)\Microsoft Visual Studio\2019\Community\VC\Tools\MSVC\14.29.30133\include\list

; 38   :     _List_unchecked_const_iterator(_Nodeptr _Pnode, const _Mylist* _Plist) noexcept : _Ptr(_Pnode) {

  00032	8b 30		 mov	 esi, DWORD PTR [eax]
; File D:\git\src\IBK\IBK_DRFN\ProjSrc\SrcChartEx\ChartOCX\IndicatorCondition\IndicatorConditionBaseData.cpp

; 945  : 	for(i = m_subGraphPartDataList.begin();	i != m_subGraphPartDataList.end(); ++i)

  00034	3b f0		 cmp	 esi, eax
  00036	0f 84 da 00 00
	00		 je	 $LN70@ChangeCalC
  0003c	8b c1		 mov	 eax, ecx
  0003e	66 90		 npad	 2
$LL20@ChangeCalC:

; 946  : 	{
; 947  :         CSubGraphPartData* pSubGraphPartData = *i;

  00040	8b 7e 08	 mov	 edi, DWORD PTR [esi+8]

; 257  : 	if(m_calConditionList.GetCount() <= 0)

  00043	83 7f 14 00	 cmp	 DWORD PTR [edi+20], 0
  00047	0f 8e be 00 00
	00		 jle	 $LN2@ChangeCalC

; 258  : 		return false;
; 259  : 
; 260  : 	CString strTitle = m_subGraphData.GetTitle();

  0004d	8d 45 ec	 lea	 eax, DWORD PTR _strTitle$3[ebp]
  00050	50		 push	 eax
  00051	8d 4f 24	 lea	 ecx, DWORD PTR [edi+36]
  00054	e8 00 00 00 00	 call	 ?GetTitle@CSubGraphDataBase@@QBE?AV?$CStringT@DV?$StrTraitMFC_DLL@DV?$ChTraitsCRT@D@ATL@@@@@ATL@@XZ ; CSubGraphDataBase::GetTitle

; 261  : 	strTitle.TrimLeft(" ");

  00059	68 00 00 00 00	 push	 OFFSET ??_C@_01CLKCMJKC@?5@
  0005e	8d 4d ec	 lea	 ecx, DWORD PTR _strTitle$3[ebp]
  00061	c7 45 fc 00 00
	00 00		 mov	 DWORD PTR __$EHRec$[ebp+8], 0
  00068	ff 15 00 00 00
	00		 call	 DWORD PTR __imp_?TrimLeft@?$CStringT@DV?$StrTraitMFC_DLL@DV?$ChTraitsCRT@D@ATL@@@@@ATL@@QAEAAV12@PBD@Z

; 262  : 	strTitle.TrimRight(" ");

  0006e	68 00 00 00 00	 push	 OFFSET ??_C@_01CLKCMJKC@?5@
  00073	8d 4d ec	 lea	 ecx, DWORD PTR _strTitle$3[ebp]
  00076	ff 15 00 00 00
	00		 call	 DWORD PTR __imp_?TrimRight@?$CStringT@DV?$StrTraitMFC_DLL@DV?$ChTraitsCRT@D@ATL@@@@@ATL@@QAEAAV12@PBD@Z
; File C:\Program Files (x86)\Microsoft Visual Studio\2019\Community\VC\Tools\MSVC\14.29.30133\atlmfc\include\atlsimpstr.h

; 519  : 		return( GetData()->nDataLength );

  0007c	8b 45 ec	 mov	 eax, DWORD PTR _strTitle$3[ebp]

; 533  : 		return( GetLength() == 0 );

  0007f	83 78 f4 00	 cmp	 DWORD PTR [eax-12], 0
; File D:\git\src\IBK\IBK_DRFN\ProjSrc\SrcChartEx\ChartOCX\IndicatorCondition\IndicatorConditionBaseData.cpp

; 263  : 	if(strTitle.IsEmpty())

  00083	75 12		 jne	 SHORT $LN37@ChangeCalC
$LN74@ChangeCalC:
; File C:\Program Files (x86)\Microsoft Visual Studio\2019\Community\VC\Tools\MSVC\14.29.30133\include\list

; 165  :         this->_Ptr = this->_Ptr->_Next;

  00085	8d 4d ec	 lea	 ecx, DWORD PTR _strTitle$3[ebp]
  00088	c7 45 fc ff ff
	ff ff		 mov	 DWORD PTR __$EHRec$[ebp+8], -1
  0008f	ff 15 00 00 00
	00		 call	 DWORD PTR __imp_??1?$CStringT@DV?$StrTraitMFC_DLL@DV?$ChTraitsCRT@D@ATL@@@@@ATL@@QAE@XZ
  00095	eb 71		 jmp	 SHORT $LN73@ChangeCalC
$LN37@ChangeCalC:
; File D:\git\src\IBK\IBK_DRFN\ProjSrc\SrcChartEx\ChartOCX\IndicatorCondition\IndicatorConditionBaseData.cpp

; 266  : 	double dData = atof(strTitle);

  00097	50		 push	 eax
  00098	ff 15 00 00 00
	00		 call	 DWORD PTR __imp__atof
  0009e	dd 5d e0	 fstp	 QWORD PTR _dData$2[ebp]

; 267  : 	if(dData == 0.0 && strTitle != "0")

  000a1	f2 0f 10 45 e0	 movsd	 xmm0, QWORD PTR _dData$2[ebp]
  000a6	83 c4 04	 add	 esp, 4
  000a9	0f 57 c9	 xorps	 xmm1, xmm1
  000ac	66 0f 2e c1	 ucomisd xmm0, xmm1
  000b0	9f		 lahf
  000b1	f6 c4 44	 test	 ah, 68			; 00000044H
  000b4	7a 17		 jp	 SHORT $LN38@ChangeCalC
; File C:\Program Files (x86)\Microsoft Visual Studio\2019\Community\VC\Tools\MSVC\14.29.30133\atlmfc\include\cstringt.h

; 2567 : 		return( str1.Compare( psz2 ) != 0 );

  000b6	68 00 00 00 00	 push	 OFFSET ??_C@_01GBGANLPD@0@
  000bb	8d 4d ec	 lea	 ecx, DWORD PTR _strTitle$3[ebp]
  000be	ff 15 00 00 00
	00		 call	 DWORD PTR __imp_?Compare@?$CStringT@DV?$StrTraitMFC_DLL@DV?$ChTraitsCRT@D@ATL@@@@@ATL@@QBEHPBD@Z
  000c4	85 c0		 test	 eax, eax
; File D:\git\src\IBK\IBK_DRFN\ProjSrc\SrcChartEx\ChartOCX\IndicatorCondition\IndicatorConditionBaseData.cpp

; 267  : 	if(dData == 0.0 && strTitle != "0")

  000c6	75 bd		 jne	 SHORT $LN74@ChangeCalC
  000c8	f2 0f 10 45 e0	 movsd	 xmm0, QWORD PTR _dData$2[ebp]
$LN38@ChangeCalC:
; File C:\Program Files (x86)\Microsoft Visual Studio\2019\Community\VC\Tools\MSVC\14.29.30133\atlmfc\include\afxtempl.h

; 1133 : 	if (nIndex >= m_nCount || nIndex < 0)

  000cd	83 7f 14 00	 cmp	 DWORD PTR [edi+20], 0
  000d1	7e 12		 jle	 SHORT $LN69@ChangeCalC

; 1134 : 		return NULL;  // went too far
; 1135 : 
; 1136 : 	CNode* pNode = m_pNodeHead;

  000d3	8b 47 0c	 mov	 eax, DWORD PTR [edi+12]
; File D:\git\src\IBK\IBK_DRFN\ProjSrc\SrcChartEx\ChartOCX\IndicatorCondition\IndicatorConditionBaseData.cpp

; 246  : 	if(pos == NULL)

  000d6	85 c0		 test	 eax, eax
  000d8	74 0b		 je	 SHORT $LN69@ChangeCalC

; 248  : 
; 249  : 	m_calConditionList.SetAt(pos, dData);

  000da	f2 0f 11 40 08	 movsd	 QWORD PTR [eax+8], xmm0

; 250  : 	return true;

  000df	c6 45 f3 01	 mov	 BYTE PTR $T4[ebp], 1
  000e3	eb 04		 jmp	 SHORT $LN51@ChangeCalC
$LN69@ChangeCalC:

; 247  : 		return false;

  000e5	c6 45 f3 00	 mov	 BYTE PTR $T4[ebp], 0
$LN51@ChangeCalC:

; 270  : 	return SetCalConditionData(0, dData);

  000e9	8d 4d ec	 lea	 ecx, DWORD PTR _strTitle$3[ebp]
  000ec	c7 45 fc ff ff
	ff ff		 mov	 DWORD PTR __$EHRec$[ebp+8], -1
  000f3	ff 15 00 00 00
	00		 call	 DWORD PTR __imp_??1?$CStringT@DV?$StrTraitMFC_DLL@DV?$ChTraitsCRT@D@ATL@@@@@ATL@@QAE@XZ

; 948  : 		assert(pSubGraphPartData != NULL);
; 949  : 		if(pSubGraphPartData->ChangeCalConditionDataFromSubGraphTitle())

  000f9	80 7d f3 00	 cmp	 BYTE PTR $T4[ebp], 0
  000fd	b8 01 00 00 00	 mov	 eax, 1
  00102	0f b6 db	 movzx	 ebx, bl
  00105	0f 45 d8	 cmovne	 ebx, eax
$LN73@ChangeCalC:
; File C:\Program Files (x86)\Microsoft Visual Studio\2019\Community\VC\Tools\MSVC\14.29.30133\include\list

; 165  :         this->_Ptr = this->_Ptr->_Next;

  00108	8b 45 e8	 mov	 eax, DWORD PTR _this$1$[ebp]
$LN2@ChangeCalC:
  0010b	8b 36		 mov	 esi, DWORD PTR [esi]

; 198  :         return this->_Ptr == _Right._Ptr;

  0010d	3b 70 2c	 cmp	 esi, DWORD PTR [eax+44]
; File D:\git\src\IBK\IBK_DRFN\ProjSrc\SrcChartEx\ChartOCX\IndicatorCondition\IndicatorConditionBaseData.cpp

; 945  : 	for(i = m_subGraphPartDataList.begin();	i != m_subGraphPartDataList.end(); ++i)

  00110	0f 85 2a ff ff
	ff		 jne	 $LL20@ChangeCalC
$LN70@ChangeCalC:

; 950  : 			bResult = true;
; 951  : 	}
; 952  : 
; 953  : 	return bResult;
; 954  : }

  00116	8a c3		 mov	 al, bl
  00118	8b 4d f4	 mov	 ecx, DWORD PTR __$EHRec$[ebp]
  0011b	64 89 0d 00 00
	00 00		 mov	 DWORD PTR fs:0, ecx
  00122	59		 pop	 ecx
  00123	5f		 pop	 edi
  00124	5e		 pop	 esi
  00125	5b		 pop	 ebx
  00126	8b e5		 mov	 esp, ebp
  00128	5d		 pop	 ebp
  00129	c3		 ret	 0
_TEXT	ENDS
;	COMDAT text$x
text$x	SEGMENT
__unwindfunclet$?ChangeCalConditionDataFromSubGraphTitle@CGraphPartData@@QAE_NXZ$0:
  00000	8d 4d ec	 lea	 ecx, DWORD PTR _strTitle$3[ebp]
  00003	ff 25 00 00 00
	00		 jmp	 DWORD PTR __imp_??1?$CStringT@DV?$StrTraitMFC_DLL@DV?$ChTraitsCRT@D@ATL@@@@@ATL@@QAE@XZ
  00009	cc		 int	 3
  0000a	cc		 int	 3
  0000b	cc		 int	 3
  0000c	cc		 int	 3
  0000d	cc		 int	 3
__ehhandler$?ChangeCalConditionDataFromSubGraphTitle@CGraphPartData@@QAE_NXZ:
  0000e	90		 npad	 1
  0000f	90		 npad	 1
  00010	8b 54 24 08	 mov	 edx, DWORD PTR [esp+8]
  00014	8d 42 0c	 lea	 eax, DWORD PTR [edx+12]
  00017	8b 4a dc	 mov	 ecx, DWORD PTR [edx-36]
  0001a	33 c8		 xor	 ecx, eax
  0001c	e8 00 00 00 00	 call	 @__security_check_cookie@4
  00021	b8 00 00 00 00	 mov	 eax, OFFSET __ehfuncinfo$?ChangeCalConditionDataFromSubGraphTitle@CGraphPartData@@QAE_NXZ
  00026	e9 00 00 00 00	 jmp	 ___CxxFrameHandler3
text$x	ENDS
?ChangeCalConditionDataFromSubGraphTitle@CGraphPartData@@QAE_NXZ ENDP ; CGraphPartData::ChangeCalConditionDataFromSubGraphTitle
; Function compile flags: /Ogtp
; File D:\git\src\IBK\IBK_DRFN\ProjSrc\SrcChartEx\ChartOCX\IndicatorCondition\IndicatorConditionBaseData.cpp
; File C:\Program Files (x86)\Microsoft Visual Studio\2019\Community\VC\Tools\MSVC\14.29.30133\include\list
; File D:\git\src\IBK\IBK_DRFN\ProjSrc\SrcChartEx\ChartOCX\IndicatorCondition\IndicatorConditionBaseData.cpp
; File C:\Program Files (x86)\Microsoft Visual Studio\2019\Community\VC\Tools\MSVC\14.29.30133\include\list
; File D:\git\src\IBK\IBK_DRFN\ProjSrc\SrcChartEx\ChartOCX\IndicatorCondition\IndicatorConditionBaseData.cpp
; File C:\Program Files (x86)\Microsoft Visual Studio\2019\Community\VC\Tools\MSVC\14.29.30133\include\list
; File D:\git\src\IBK\IBK_DRFN\ProjSrc\SrcChartEx\ChartOCX\IndicatorCondition\IndicatorConditionBaseData.cpp
; File C:\Program Files (x86)\Microsoft Visual Studio\2019\Community\VC\Tools\MSVC\14.29.30133\include\list
; File D:\git\src\IBK\IBK_DRFN\ProjSrc\SrcChartEx\ChartOCX\IndicatorCondition\IndicatorConditionBaseData.cpp
;	COMDAT ?SetSubGraphPenThickness@CGraphPartData@@QAE_NHABVCPenThickness@@@Z
_TEXT	SEGMENT
_nIndex$ = 8						; size = 4
_penThickness$ = 12					; size = 4
?SetSubGraphPenThickness@CGraphPartData@@QAE_NHABVCPenThickness@@@Z PROC ; CGraphPartData::SetSubGraphPenThickness, COMDAT
; _this$ = ecx

; 929  : {

  00000	55		 push	 ebp
  00001	8b ec		 mov	 ebp, esp
  00003	56		 push	 esi
  00004	57		 push	 edi

; 1056 : 	if(nSubGraphIndex < 0 || nSubGraphIndex >= m_subGraphPartDataList.size())

  00005	8b 7d 08	 mov	 edi, DWORD PTR _nIndex$[ebp]
  00008	85 ff		 test	 edi, edi
  0000a	78 22		 js	 SHORT $LN44@SetSubGrap
  0000c	3b 79 30	 cmp	 edi, DWORD PTR [ecx+48]
  0000f	73 1d		 jae	 SHORT $LN44@SetSubGrap
; File C:\Program Files (x86)\Microsoft Visual Studio\2019\Community\VC\Tools\MSVC\14.29.30133\include\list

; 1087 :         return const_iterator(_Mypair._Myval2._Myhead->_Next, _STD addressof(_Mypair._Myval2));

  00011	8b 49 2c	 mov	 ecx, DWORD PTR [ecx+44]
; File D:\git\src\IBK\IBK_DRFN\ProjSrc\SrcChartEx\ChartOCX\IndicatorCondition\IndicatorConditionBaseData.cpp

; 1059 : 	int nCount = 0;

  00014	33 d2		 xor	 edx, edx
; File C:\Program Files (x86)\Microsoft Visual Studio\2019\Community\VC\Tools\MSVC\14.29.30133\include\list

; 38   :     _List_unchecked_const_iterator(_Nodeptr _Pnode, const _Mylist* _Plist) noexcept : _Ptr(_Pnode) {

  00016	8b 01		 mov	 eax, DWORD PTR [ecx]
  00018	3b c1		 cmp	 eax, ecx
; File D:\git\src\IBK\IBK_DRFN\ProjSrc\SrcChartEx\ChartOCX\IndicatorCondition\IndicatorConditionBaseData.cpp

; 1061 : 	for(i = m_subGraphPartDataList.begin(); i != m_subGraphPartDataList.end(); ++i)

  0001a	74 12		 je	 SHORT $LN44@SetSubGrap
  0001c	0f 1f 40 00	 npad	 4
$LL26@SetSubGrap:

; 1062 : 	{
; 1063 :         CSubGraphPartData* pSubGraphPartData = *i;

  00020	8b 70 08	 mov	 esi, DWORD PTR [eax+8]

; 1064 : 		assert(pSubGraphPartData != NULL);
; 1065 : 		if(nSubGraphIndex == nCount)

  00023	3b fa		 cmp	 edi, edx
  00025	74 0f		 je	 SHORT $LN40@SetSubGrap
; File C:\Program Files (x86)\Microsoft Visual Studio\2019\Community\VC\Tools\MSVC\14.29.30133\include\list

; 165  :         this->_Ptr = this->_Ptr->_Next;

  00027	8b 00		 mov	 eax, DWORD PTR [eax]
; File D:\git\src\IBK\IBK_DRFN\ProjSrc\SrcChartEx\ChartOCX\IndicatorCondition\IndicatorConditionBaseData.cpp

; 1067 : 		nCount++;

  00029	42		 inc	 edx
; File C:\Program Files (x86)\Microsoft Visual Studio\2019\Community\VC\Tools\MSVC\14.29.30133\include\list

; 198  :         return this->_Ptr == _Right._Ptr;

  0002a	3b c1		 cmp	 eax, ecx
; File D:\git\src\IBK\IBK_DRFN\ProjSrc\SrcChartEx\ChartOCX\IndicatorCondition\IndicatorConditionBaseData.cpp

; 1061 : 	for(i = m_subGraphPartDataList.begin(); i != m_subGraphPartDataList.end(); ++i)

  0002c	75 f2		 jne	 SHORT $LL26@SetSubGrap
$LN44@SetSubGrap:
  0002e	5f		 pop	 edi

; 932  : 		return false;

  0002f	32 c0		 xor	 al, al

; 936  : }

  00031	5e		 pop	 esi
  00032	5d		 pop	 ebp
  00033	c2 08 00	 ret	 8
$LN40@SetSubGrap:

; 930  : 	CSubGraphData* pSubGraphData = GetSubGraphData(nIndex);
; 931  : 	if(pSubGraphData == NULL)

  00036	8d 46 24	 lea	 eax, DWORD PTR [esi+36]
  00039	f7 de		 neg	 esi
  0003b	1b f6		 sbb	 esi, esi
  0003d	23 f0		 and	 esi, eax
  0003f	74 ed		 je	 SHORT $LN44@SetSubGrap

; 933  : 
; 934  : 	pSubGraphData->SetPenThickness(penThickness);

  00041	ff 75 0c	 push	 DWORD PTR _penThickness$[ebp]
  00044	8b ce		 mov	 ecx, esi
  00046	e8 00 00 00 00	 call	 ?SetPenThickness@CSubGraphDataBase@@QAEXABVCPenThickness@@@Z ; CSubGraphDataBase::SetPenThickness
  0004b	5f		 pop	 edi

; 935  : 	return true;

  0004c	b0 01		 mov	 al, 1

; 936  : }

  0004e	5e		 pop	 esi
  0004f	5d		 pop	 ebp
  00050	c2 08 00	 ret	 8
?SetSubGraphPenThickness@CGraphPartData@@QAE_NHABVCPenThickness@@@Z ENDP ; CGraphPartData::SetSubGraphPenThickness
_TEXT	ENDS
; Function compile flags: /Ogtp
; File D:\git\src\IBK\IBK_DRFN\ProjSrc\SrcChartEx\ChartOCX\IndicatorCondition\IndicatorConditionBaseData.cpp
; File C:\Program Files (x86)\Microsoft Visual Studio\2019\Community\VC\Tools\MSVC\14.29.30133\include\list
; File D:\git\src\IBK\IBK_DRFN\ProjSrc\SrcChartEx\ChartOCX\IndicatorCondition\IndicatorConditionBaseData.cpp
; File C:\Program Files (x86)\Microsoft Visual Studio\2019\Community\VC\Tools\MSVC\14.29.30133\include\list
; File D:\git\src\IBK\IBK_DRFN\ProjSrc\SrcChartEx\ChartOCX\IndicatorCondition\IndicatorConditionBaseData.cpp
; File C:\Program Files (x86)\Microsoft Visual Studio\2019\Community\VC\Tools\MSVC\14.29.30133\include\list
; File D:\git\src\IBK\IBK_DRFN\ProjSrc\SrcChartEx\ChartOCX\IndicatorCondition\IndicatorConditionBaseData.cpp
; File C:\Program Files (x86)\Microsoft Visual Studio\2019\Community\VC\Tools\MSVC\14.29.30133\include\list
; File D:\git\src\IBK\IBK_DRFN\ProjSrc\SrcChartEx\ChartOCX\IndicatorCondition\IndicatorConditionBaseData.cpp
;	COMDAT ?SetSubGraphColor@CGraphPartData@@QAE_NHABVCGraphColor@@@Z
_TEXT	SEGMENT
_nIndex$ = 8						; size = 4
_graphColor$ = 12					; size = 4
?SetSubGraphColor@CGraphPartData@@QAE_NHABVCGraphColor@@@Z PROC ; CGraphPartData::SetSubGraphColor, COMDAT
; _this$ = ecx

; 919  : {

  00000	55		 push	 ebp
  00001	8b ec		 mov	 ebp, esp
  00003	56		 push	 esi
  00004	57		 push	 edi

; 1056 : 	if(nSubGraphIndex < 0 || nSubGraphIndex >= m_subGraphPartDataList.size())

  00005	8b 7d 08	 mov	 edi, DWORD PTR _nIndex$[ebp]
  00008	85 ff		 test	 edi, edi
  0000a	78 22		 js	 SHORT $LN44@SetSubGrap
  0000c	3b 79 30	 cmp	 edi, DWORD PTR [ecx+48]
  0000f	73 1d		 jae	 SHORT $LN44@SetSubGrap
; File C:\Program Files (x86)\Microsoft Visual Studio\2019\Community\VC\Tools\MSVC\14.29.30133\include\list

; 1087 :         return const_iterator(_Mypair._Myval2._Myhead->_Next, _STD addressof(_Mypair._Myval2));

  00011	8b 49 2c	 mov	 ecx, DWORD PTR [ecx+44]
; File D:\git\src\IBK\IBK_DRFN\ProjSrc\SrcChartEx\ChartOCX\IndicatorCondition\IndicatorConditionBaseData.cpp

; 1059 : 	int nCount = 0;

  00014	33 d2		 xor	 edx, edx
; File C:\Program Files (x86)\Microsoft Visual Studio\2019\Community\VC\Tools\MSVC\14.29.30133\include\list

; 38   :     _List_unchecked_const_iterator(_Nodeptr _Pnode, const _Mylist* _Plist) noexcept : _Ptr(_Pnode) {

  00016	8b 01		 mov	 eax, DWORD PTR [ecx]
  00018	3b c1		 cmp	 eax, ecx
; File D:\git\src\IBK\IBK_DRFN\ProjSrc\SrcChartEx\ChartOCX\IndicatorCondition\IndicatorConditionBaseData.cpp

; 1061 : 	for(i = m_subGraphPartDataList.begin(); i != m_subGraphPartDataList.end(); ++i)

  0001a	74 12		 je	 SHORT $LN44@SetSubGrap
  0001c	0f 1f 40 00	 npad	 4
$LL26@SetSubGrap:

; 1062 : 	{
; 1063 :         CSubGraphPartData* pSubGraphPartData = *i;

  00020	8b 70 08	 mov	 esi, DWORD PTR [eax+8]

; 1064 : 		assert(pSubGraphPartData != NULL);
; 1065 : 		if(nSubGraphIndex == nCount)

  00023	3b fa		 cmp	 edi, edx
  00025	74 0f		 je	 SHORT $LN40@SetSubGrap
; File C:\Program Files (x86)\Microsoft Visual Studio\2019\Community\VC\Tools\MSVC\14.29.30133\include\list

; 165  :         this->_Ptr = this->_Ptr->_Next;

  00027	8b 00		 mov	 eax, DWORD PTR [eax]
; File D:\git\src\IBK\IBK_DRFN\ProjSrc\SrcChartEx\ChartOCX\IndicatorCondition\IndicatorConditionBaseData.cpp

; 1067 : 		nCount++;

  00029	42		 inc	 edx
; File C:\Program Files (x86)\Microsoft Visual Studio\2019\Community\VC\Tools\MSVC\14.29.30133\include\list

; 198  :         return this->_Ptr == _Right._Ptr;

  0002a	3b c1		 cmp	 eax, ecx
; File D:\git\src\IBK\IBK_DRFN\ProjSrc\SrcChartEx\ChartOCX\IndicatorCondition\IndicatorConditionBaseData.cpp

; 1061 : 	for(i = m_subGraphPartDataList.begin(); i != m_subGraphPartDataList.end(); ++i)

  0002c	75 f2		 jne	 SHORT $LL26@SetSubGrap
$LN44@SetSubGrap:
  0002e	5f		 pop	 edi

; 922  : 		return false;

  0002f	32 c0		 xor	 al, al

; 926  : }

  00031	5e		 pop	 esi
  00032	5d		 pop	 ebp
  00033	c2 08 00	 ret	 8
$LN40@SetSubGrap:

; 920  : 	CSubGraphData* pSubGraphData = GetSubGraphData(nIndex);
; 921  : 	if(pSubGraphData == NULL)

  00036	8d 46 24	 lea	 eax, DWORD PTR [esi+36]
  00039	f7 de		 neg	 esi
  0003b	1b f6		 sbb	 esi, esi
  0003d	23 f0		 and	 esi, eax
  0003f	74 ed		 je	 SHORT $LN44@SetSubGrap

; 923  : 
; 924  : 	pSubGraphData->SetColor(graphColor);

  00041	ff 75 0c	 push	 DWORD PTR _graphColor$[ebp]
  00044	8b ce		 mov	 ecx, esi
  00046	e8 00 00 00 00	 call	 ?SetColor@CSubGraphDataBase@@QAEXABVCGraphColor@@@Z ; CSubGraphDataBase::SetColor
  0004b	5f		 pop	 edi

; 925  : 	return true;

  0004c	b0 01		 mov	 al, 1

; 926  : }

  0004e	5e		 pop	 esi
  0004f	5d		 pop	 ebp
  00050	c2 08 00	 ret	 8
?SetSubGraphColor@CGraphPartData@@QAE_NHABVCGraphColor@@@Z ENDP ; CGraphPartData::SetSubGraphColor
_TEXT	ENDS
; Function compile flags: /Ogtp
; File D:\git\src\IBK\IBK_DRFN\ProjSrc\SrcChartEx\ChartOCX\IndicatorCondition\IndicatorConditionBaseData.cpp
; File C:\Program Files (x86)\Microsoft Visual Studio\2019\Community\VC\Tools\MSVC\14.29.30133\include\list
; File D:\git\src\IBK\IBK_DRFN\ProjSrc\SrcChartEx\ChartOCX\IndicatorCondition\IndicatorConditionBaseData.cpp
; File C:\Program Files (x86)\Microsoft Visual Studio\2019\Community\VC\Tools\MSVC\14.29.30133\include\list
; File D:\git\src\IBK\IBK_DRFN\ProjSrc\SrcChartEx\ChartOCX\IndicatorCondition\IndicatorConditionBaseData.cpp
; File C:\Program Files (x86)\Microsoft Visual Studio\2019\Community\VC\Tools\MSVC\14.29.30133\include\list
; File D:\git\src\IBK\IBK_DRFN\ProjSrc\SrcChartEx\ChartOCX\IndicatorCondition\IndicatorConditionBaseData.cpp
; File C:\Program Files (x86)\Microsoft Visual Studio\2019\Community\VC\Tools\MSVC\14.29.30133\include\list
; File D:\git\src\IBK\IBK_DRFN\ProjSrc\SrcChartEx\ChartOCX\IndicatorCondition\IndicatorConditionBaseData.cpp
;	COMDAT ?SetSubGraphTitle@CGraphPartData@@QAE_NHABV?$CStringT@DV?$StrTraitMFC_DLL@DV?$ChTraitsCRT@D@ATL@@@@@ATL@@@Z
_TEXT	SEGMENT
_nIndex$ = 8						; size = 4
_strTitle$ = 12						; size = 4
?SetSubGraphTitle@CGraphPartData@@QAE_NHABV?$CStringT@DV?$StrTraitMFC_DLL@DV?$ChTraitsCRT@D@ATL@@@@@ATL@@@Z PROC ; CGraphPartData::SetSubGraphTitle, COMDAT
; _this$ = ecx

; 909  : {

  00000	55		 push	 ebp
  00001	8b ec		 mov	 ebp, esp
  00003	56		 push	 esi
  00004	57		 push	 edi

; 1056 : 	if(nSubGraphIndex < 0 || nSubGraphIndex >= m_subGraphPartDataList.size())

  00005	8b 7d 08	 mov	 edi, DWORD PTR _nIndex$[ebp]
  00008	85 ff		 test	 edi, edi
  0000a	78 22		 js	 SHORT $LN44@SetSubGrap
  0000c	3b 79 30	 cmp	 edi, DWORD PTR [ecx+48]
  0000f	73 1d		 jae	 SHORT $LN44@SetSubGrap
; File C:\Program Files (x86)\Microsoft Visual Studio\2019\Community\VC\Tools\MSVC\14.29.30133\include\list

; 1087 :         return const_iterator(_Mypair._Myval2._Myhead->_Next, _STD addressof(_Mypair._Myval2));

  00011	8b 49 2c	 mov	 ecx, DWORD PTR [ecx+44]
; File D:\git\src\IBK\IBK_DRFN\ProjSrc\SrcChartEx\ChartOCX\IndicatorCondition\IndicatorConditionBaseData.cpp

; 1059 : 	int nCount = 0;

  00014	33 d2		 xor	 edx, edx
; File C:\Program Files (x86)\Microsoft Visual Studio\2019\Community\VC\Tools\MSVC\14.29.30133\include\list

; 38   :     _List_unchecked_const_iterator(_Nodeptr _Pnode, const _Mylist* _Plist) noexcept : _Ptr(_Pnode) {

  00016	8b 01		 mov	 eax, DWORD PTR [ecx]
  00018	3b c1		 cmp	 eax, ecx
; File D:\git\src\IBK\IBK_DRFN\ProjSrc\SrcChartEx\ChartOCX\IndicatorCondition\IndicatorConditionBaseData.cpp

; 1061 : 	for(i = m_subGraphPartDataList.begin(); i != m_subGraphPartDataList.end(); ++i)

  0001a	74 12		 je	 SHORT $LN44@SetSubGrap
  0001c	0f 1f 40 00	 npad	 4
$LL26@SetSubGrap:

; 1062 : 	{
; 1063 :         CSubGraphPartData* pSubGraphPartData = *i;

  00020	8b 70 08	 mov	 esi, DWORD PTR [eax+8]

; 1064 : 		assert(pSubGraphPartData != NULL);
; 1065 : 		if(nSubGraphIndex == nCount)

  00023	3b fa		 cmp	 edi, edx
  00025	74 0f		 je	 SHORT $LN40@SetSubGrap
; File C:\Program Files (x86)\Microsoft Visual Studio\2019\Community\VC\Tools\MSVC\14.29.30133\include\list

; 165  :         this->_Ptr = this->_Ptr->_Next;

  00027	8b 00		 mov	 eax, DWORD PTR [eax]
; File D:\git\src\IBK\IBK_DRFN\ProjSrc\SrcChartEx\ChartOCX\IndicatorCondition\IndicatorConditionBaseData.cpp

; 1067 : 		nCount++;

  00029	42		 inc	 edx
; File C:\Program Files (x86)\Microsoft Visual Studio\2019\Community\VC\Tools\MSVC\14.29.30133\include\list

; 198  :         return this->_Ptr == _Right._Ptr;

  0002a	3b c1		 cmp	 eax, ecx
; File D:\git\src\IBK\IBK_DRFN\ProjSrc\SrcChartEx\ChartOCX\IndicatorCondition\IndicatorConditionBaseData.cpp

; 1061 : 	for(i = m_subGraphPartDataList.begin(); i != m_subGraphPartDataList.end(); ++i)

  0002c	75 f2		 jne	 SHORT $LL26@SetSubGrap
$LN44@SetSubGrap:
  0002e	5f		 pop	 edi

; 912  : 		return false;

  0002f	32 c0		 xor	 al, al

; 916  : }

  00031	5e		 pop	 esi
  00032	5d		 pop	 ebp
  00033	c2 08 00	 ret	 8
$LN40@SetSubGrap:

; 910  : 	CSubGraphData* pSubGraphData = GetSubGraphData(nIndex);
; 911  : 	if(pSubGraphData == NULL)

  00036	8d 46 24	 lea	 eax, DWORD PTR [esi+36]
  00039	f7 de		 neg	 esi
  0003b	1b f6		 sbb	 esi, esi
  0003d	23 f0		 and	 esi, eax
  0003f	74 ed		 je	 SHORT $LN44@SetSubGrap

; 913  : 
; 914  : 	pSubGraphData->SetTitle(strTitle);

  00041	ff 75 0c	 push	 DWORD PTR _strTitle$[ebp]
  00044	8b ce		 mov	 ecx, esi
  00046	e8 00 00 00 00	 call	 ?SetTitle@CSubGraphDataBase@@QAEXABV?$CStringT@DV?$StrTraitMFC_DLL@DV?$ChTraitsCRT@D@ATL@@@@@ATL@@@Z ; CSubGraphDataBase::SetTitle
  0004b	5f		 pop	 edi

; 915  : 	return true;

  0004c	b0 01		 mov	 al, 1

; 916  : }

  0004e	5e		 pop	 esi
  0004f	5d		 pop	 ebp
  00050	c2 08 00	 ret	 8
?SetSubGraphTitle@CGraphPartData@@QAE_NHABV?$CStringT@DV?$StrTraitMFC_DLL@DV?$ChTraitsCRT@D@ATL@@@@@ATL@@@Z ENDP ; CGraphPartData::SetSubGraphTitle
_TEXT	ENDS
; Function compile flags: /Ogtp
; File D:\git\src\IBK\IBK_DRFN\ProjSrc\SrcChartEx\ChartOCX\IndicatorCondition\IndicatorConditionBaseData.cpp
;	COMDAT ?SetSubGraphData@CGraphPartData@@QAE_NPBVCSubGraphData@@@Z
_TEXT	SEGMENT
__$EHRec$ = -12						; size = 12
$T2 = 8							; size = 4
_pSourceData$ = 8					; size = 4
?SetSubGraphData@CGraphPartData@@QAE_NPBVCSubGraphData@@@Z PROC ; CGraphPartData::SetSubGraphData, COMDAT
; _this$ = ecx

; 896  : {

  00000	55		 push	 ebp
  00001	8b ec		 mov	 ebp, esp
  00003	6a ff		 push	 -1
  00005	68 00 00 00 00	 push	 __ehhandler$?SetSubGraphData@CGraphPartData@@QAE_NPBVCSubGraphData@@@Z
  0000a	64 a1 00 00 00
	00		 mov	 eax, DWORD PTR fs:0
  00010	50		 push	 eax
  00011	56		 push	 esi
  00012	57		 push	 edi
  00013	a1 00 00 00 00	 mov	 eax, DWORD PTR ___security_cookie
  00018	33 c5		 xor	 eax, ebp
  0001a	50		 push	 eax
  0001b	8d 45 f4	 lea	 eax, DWORD PTR __$EHRec$[ebp]
  0001e	64 a3 00 00 00
	00		 mov	 DWORD PTR fs:0, eax
  00024	8b f1		 mov	 esi, ecx

; 897  : 	if(pSourceData == NULL)

  00026	8b 7d 08	 mov	 edi, DWORD PTR _pSourceData$[ebp]
  00029	85 ff		 test	 edi, edi
  0002b	74 5a		 je	 SHORT $LN11@SetSubGrap

; 898  : 		return false;
; 899  : 
; 900  : 	CSubGraphData* pTargetData = GetSubGraphData(pSourceData->GetName());

  0002d	8d 45 08	 lea	 eax, DWORD PTR $T2[ebp]
  00030	8b cf		 mov	 ecx, edi
  00032	50		 push	 eax
  00033	e8 00 00 00 00	 call	 ?GetName@CSubGraphDataBase@@QBE?AV?$CStringT@DV?$StrTraitMFC_DLL@DV?$ChTraitsCRT@D@ATL@@@@@ATL@@XZ ; CSubGraphDataBase::GetName

; 1052 : 	return GetSubGraphPartData(&m_subGraphPartDataList, strSubGraphName);

  00038	50		 push	 eax
  00039	8d 46 2c	 lea	 eax, DWORD PTR [esi+44]

; 898  : 		return false;
; 899  : 
; 900  : 	CSubGraphData* pTargetData = GetSubGraphData(pSourceData->GetName());

  0003c	c7 45 fc 00 00
	00 00		 mov	 DWORD PTR __$EHRec$[ebp+8], 0

; 1052 : 	return GetSubGraphPartData(&m_subGraphPartDataList, strSubGraphName);

  00043	50		 push	 eax
  00044	8b ce		 mov	 ecx, esi
  00046	e8 00 00 00 00	 call	 ?GetSubGraphPartData@CGraphPartData@@QBEPAVCSubGraphPartData@@PBV?$list@PAVCSubGraphPartData@@V?$allocator@PAVCSubGraphPartData@@@std@@@std@@ABV?$CStringT@DV?$StrTraitMFC_DLL@DV?$ChTraitsCRT@D@ATL@@@@@ATL@@@Z ; CGraphPartData::GetSubGraphPartData

; 468  : 	if(pSubGraphPartData == NULL)

  0004b	85 c0		 test	 eax, eax
  0004d	75 04		 jne	 SHORT $LN7@SetSubGrap

; 469  : 		return NULL;

  0004f	33 f6		 xor	 esi, esi
  00051	eb 03		 jmp	 SHORT $LN6@SetSubGrap
$LN7@SetSubGrap:

; 470  : 
; 471  : 	return &pSubGraphPartData->GetSubGraphData();

  00053	8d 70 24	 lea	 esi, DWORD PTR [eax+36]
$LN6@SetSubGrap:

; 898  : 		return false;
; 899  : 
; 900  : 	CSubGraphData* pTargetData = GetSubGraphData(pSourceData->GetName());

  00056	8d 4d 08	 lea	 ecx, DWORD PTR $T2[ebp]
  00059	c7 45 fc ff ff
	ff ff		 mov	 DWORD PTR __$EHRec$[ebp+8], -1
  00060	ff 15 00 00 00
	00		 call	 DWORD PTR __imp_??1?$CStringT@DV?$StrTraitMFC_DLL@DV?$ChTraitsCRT@D@ATL@@@@@ATL@@QAE@XZ

; 901  : 	if(pTargetData == NULL)

  00066	85 f6		 test	 esi, esi
  00068	74 1d		 je	 SHORT $LN11@SetSubGrap

; 903  : 
; 904  : 	*pTargetData = *pSourceData;

  0006a	57		 push	 edi
  0006b	8b ce		 mov	 ecx, esi
  0006d	e8 00 00 00 00	 call	 ??4CSubGraphData@@QAEAAV0@ABV0@@Z ; CSubGraphData::operator=

; 905  : 	return true;

  00072	b0 01		 mov	 al, 1

; 906  : }

  00074	8b 4d f4	 mov	 ecx, DWORD PTR __$EHRec$[ebp]
  00077	64 89 0d 00 00
	00 00		 mov	 DWORD PTR fs:0, ecx
  0007e	59		 pop	 ecx
  0007f	5f		 pop	 edi
  00080	5e		 pop	 esi
  00081	8b e5		 mov	 esp, ebp
  00083	5d		 pop	 ebp
  00084	c2 04 00	 ret	 4
$LN11@SetSubGrap:

; 902  : 		return false;

  00087	32 c0		 xor	 al, al

; 906  : }

  00089	8b 4d f4	 mov	 ecx, DWORD PTR __$EHRec$[ebp]
  0008c	64 89 0d 00 00
	00 00		 mov	 DWORD PTR fs:0, ecx
  00093	59		 pop	 ecx
  00094	5f		 pop	 edi
  00095	5e		 pop	 esi
  00096	8b e5		 mov	 esp, ebp
  00098	5d		 pop	 ebp
  00099	c2 04 00	 ret	 4
_TEXT	ENDS
;	COMDAT text$x
text$x	SEGMENT
__unwindfunclet$?SetSubGraphData@CGraphPartData@@QAE_NPBVCSubGraphData@@@Z$0:
  00000	8d 4d 08	 lea	 ecx, DWORD PTR $T2[ebp]
  00003	ff 25 00 00 00
	00		 jmp	 DWORD PTR __imp_??1?$CStringT@DV?$StrTraitMFC_DLL@DV?$ChTraitsCRT@D@ATL@@@@@ATL@@QAE@XZ
  00009	cc		 int	 3
  0000a	cc		 int	 3
  0000b	cc		 int	 3
  0000c	cc		 int	 3
  0000d	cc		 int	 3
__ehhandler$?SetSubGraphData@CGraphPartData@@QAE_NPBVCSubGraphData@@@Z:
  0000e	90		 npad	 1
  0000f	90		 npad	 1
  00010	8b 54 24 08	 mov	 edx, DWORD PTR [esp+8]
  00014	8d 42 0c	 lea	 eax, DWORD PTR [edx+12]
  00017	8b 4a f4	 mov	 ecx, DWORD PTR [edx-12]
  0001a	33 c8		 xor	 ecx, eax
  0001c	e8 00 00 00 00	 call	 @__security_check_cookie@4
  00021	b8 00 00 00 00	 mov	 eax, OFFSET __ehfuncinfo$?SetSubGraphData@CGraphPartData@@QAE_NPBVCSubGraphData@@@Z
  00026	e9 00 00 00 00	 jmp	 ___CxxFrameHandler3
text$x	ENDS
?SetSubGraphData@CGraphPartData@@QAE_NPBVCSubGraphData@@@Z ENDP ; CGraphPartData::SetSubGraphData
; Function compile flags: /Ogtp
; File D:\git\src\IBK\IBK_DRFN\ProjSrc\SrcChartEx\ChartOCX\IndicatorCondition\IndicatorConditionBaseData.cpp
; File C:\Program Files (x86)\Microsoft Visual Studio\2019\Community\VC\Tools\MSVC\14.29.30133\include\list
; File D:\git\src\IBK\IBK_DRFN\ProjSrc\SrcChartEx\ChartOCX\IndicatorCondition\IndicatorConditionBaseData.cpp
; File C:\Program Files (x86)\Microsoft Visual Studio\2019\Community\VC\Tools\MSVC\14.29.30133\atlmfc\include\afxtempl.h
; File D:\git\src\IBK\IBK_DRFN\ProjSrc\SrcChartEx\ChartOCX\IndicatorCondition\IndicatorConditionBaseData.cpp
; File C:\Program Files (x86)\Microsoft Visual Studio\2019\Community\VC\Tools\MSVC\14.29.30133\include\list
; File D:\git\src\IBK\IBK_DRFN\ProjSrc\SrcChartEx\ChartOCX\IndicatorCondition\IndicatorConditionBaseData.cpp
;	COMDAT ?SetAllCalConditionData@CGraphPartData@@QAE_NHABN@Z
_TEXT	SEGMENT
_nCondIndex$ = 8					; size = 4
_dData$ = 12						; size = 4
?SetAllCalConditionData@CGraphPartData@@QAE_NHABN@Z PROC ; CGraphPartData::SetAllCalConditionData, COMDAT
; _this$ = ecx

; 881  : {

  00000	55		 push	 ebp
  00001	8b ec		 mov	 ebp, esp
  00003	53		 push	 ebx
  00004	57		 push	 edi
  00005	8b f9		 mov	 edi, ecx

; 882  : 	bool bResult = false;

  00007	32 db		 xor	 bl, bl
; File C:\Program Files (x86)\Microsoft Visual Studio\2019\Community\VC\Tools\MSVC\14.29.30133\include\list

; 1083 :         return iterator(_Mypair._Myval2._Myhead->_Next, _STD addressof(_Mypair._Myval2));

  00009	8b 47 2c	 mov	 eax, DWORD PTR [edi+44]

; 38   :     _List_unchecked_const_iterator(_Nodeptr _Pnode, const _Mylist* _Plist) noexcept : _Ptr(_Pnode) {

  0000c	8b 10		 mov	 edx, DWORD PTR [eax]
  0000e	3b d0		 cmp	 edx, eax
; File D:\git\src\IBK\IBK_DRFN\ProjSrc\SrcChartEx\ChartOCX\IndicatorCondition\IndicatorConditionBaseData.cpp

; 884  : 	for(i = m_subGraphPartDataList.begin(); i != m_subGraphPartDataList.end(); ++i)

  00010	74 3f		 je	 SHORT $LN55@SetAllCalC
  00012	56		 push	 esi
  00013	8b 75 08	 mov	 esi, DWORD PTR _nCondIndex$[ebp]
$LL20@SetAllCalC:

; 245  : 	POSITION pos = m_calConditionList.FindIndex(nCondIndex);

  00016	8b 42 08	 mov	 eax, DWORD PTR [edx+8]
  00019	8b ce		 mov	 ecx, esi
; File C:\Program Files (x86)\Microsoft Visual Studio\2019\Community\VC\Tools\MSVC\14.29.30133\atlmfc\include\afxtempl.h

; 1133 : 	if (nIndex >= m_nCount || nIndex < 0)

  0001b	3b 70 14	 cmp	 esi, DWORD PTR [eax+20]
  0001e	7d 29		 jge	 SHORT $LN2@SetAllCalC
  00020	85 f6		 test	 esi, esi
  00022	78 25		 js	 SHORT $LN2@SetAllCalC

; 1134 : 		return NULL;  // went too far
; 1135 : 
; 1136 : 	CNode* pNode = m_pNodeHead;

  00024	8b 40 0c	 mov	 eax, DWORD PTR [eax+12]

; 1137 : 	while (nIndex--)

  00027	74 0e		 je	 SHORT $LN46@SetAllCalC
  00029	0f 1f 80 00 00
	00 00		 npad	 7
$LL39@SetAllCalC:

; 1138 : 	{
; 1139 : 		ASSERT(AfxIsValidAddress(pNode, sizeof(CNode)));
; 1140 : 		pNode = pNode->pNext;

  00030	8b 00		 mov	 eax, DWORD PTR [eax]
  00032	83 e9 01	 sub	 ecx, 1
  00035	75 f9		 jne	 SHORT $LL39@SetAllCalC
$LN46@SetAllCalC:
; File D:\git\src\IBK\IBK_DRFN\ProjSrc\SrcChartEx\ChartOCX\IndicatorCondition\IndicatorConditionBaseData.cpp

; 246  : 	if(pos == NULL)

  00037	85 c0		 test	 eax, eax
  00039	74 0e		 je	 SHORT $LN2@SetAllCalC

; 247  : 		return false;
; 248  : 
; 249  : 	m_calConditionList.SetAt(pos, dData);

  0003b	8b 4d 0c	 mov	 ecx, DWORD PTR _dData$[ebp]

; 885  : 	{
; 886  :         CSubGraphPartData* pSubGraphPartData = *i;
; 887  : 		assert(pSubGraphPartData != NULL);
; 888  : 		if(pSubGraphPartData->SetCalConditionData(nCondIndex, dData))
; 889  : 			bResult = true;

  0003e	b3 01		 mov	 bl, 1

; 249  : 	m_calConditionList.SetAt(pos, dData);

  00040	f2 0f 10 01	 movsd	 xmm0, QWORD PTR [ecx]
  00044	f2 0f 11 40 08	 movsd	 QWORD PTR [eax+8], xmm0
$LN2@SetAllCalC:
; File C:\Program Files (x86)\Microsoft Visual Studio\2019\Community\VC\Tools\MSVC\14.29.30133\include\list

; 165  :         this->_Ptr = this->_Ptr->_Next;

  00049	8b 12		 mov	 edx, DWORD PTR [edx]

; 198  :         return this->_Ptr == _Right._Ptr;

  0004b	3b 57 2c	 cmp	 edx, DWORD PTR [edi+44]
; File D:\git\src\IBK\IBK_DRFN\ProjSrc\SrcChartEx\ChartOCX\IndicatorCondition\IndicatorConditionBaseData.cpp

; 884  : 	for(i = m_subGraphPartDataList.begin(); i != m_subGraphPartDataList.end(); ++i)

  0004e	75 c6		 jne	 SHORT $LL20@SetAllCalC

; 890  : 	}
; 891  : 
; 892  : 	return bResult;

  00050	5e		 pop	 esi
$LN55@SetAllCalC:
  00051	5f		 pop	 edi

; 893  : }

  00052	8a c3		 mov	 al, bl
  00054	5b		 pop	 ebx
  00055	5d		 pop	 ebp
  00056	c2 08 00	 ret	 8
?SetAllCalConditionData@CGraphPartData@@QAE_NHABN@Z ENDP ; CGraphPartData::SetAllCalConditionData
_TEXT	ENDS
; Function compile flags: /Ogtp
; File D:\git\src\IBK\IBK_DRFN\ProjSrc\SrcChartEx\ChartOCX\IndicatorCondition\IndicatorConditionBaseData.cpp
; File C:\Program Files (x86)\Microsoft Visual Studio\2019\Community\VC\Tools\MSVC\14.29.30133\include\list
; File D:\git\src\IBK\IBK_DRFN\ProjSrc\SrcChartEx\ChartOCX\IndicatorCondition\IndicatorConditionBaseData.cpp
; File C:\Program Files (x86)\Microsoft Visual Studio\2019\Community\VC\Tools\MSVC\14.29.30133\include\list
; File D:\git\src\IBK\IBK_DRFN\ProjSrc\SrcChartEx\ChartOCX\IndicatorCondition\IndicatorConditionBaseData.cpp
; File C:\Program Files (x86)\Microsoft Visual Studio\2019\Community\VC\Tools\MSVC\14.29.30133\include\list
; File D:\git\src\IBK\IBK_DRFN\ProjSrc\SrcChartEx\ChartOCX\IndicatorCondition\IndicatorConditionBaseData.cpp
; File C:\Program Files (x86)\Microsoft Visual Studio\2019\Community\VC\Tools\MSVC\14.29.30133\include\list
; File D:\git\src\IBK\IBK_DRFN\ProjSrc\SrcChartEx\ChartOCX\IndicatorCondition\IndicatorConditionBaseData.cpp
; File C:\Program Files (x86)\Microsoft Visual Studio\2019\Community\VC\Tools\MSVC\14.29.30133\atlmfc\include\atlsimpstr.h
; File C:\Program Files (x86)\Microsoft Visual Studio\2019\Community\VC\Tools\MSVC\14.29.30133\atlmfc\include\cstringt.h
; File C:\Program Files (x86)\Microsoft Visual Studio\2019\Community\VC\Tools\MSVC\14.29.30133\atlmfc\include\atlsimpstr.h
; File C:\Program Files (x86)\Microsoft Visual Studio\2019\Community\VC\Tools\MSVC\14.29.30133\atlmfc\include\cstringt.h
; File D:\git\src\IBK\IBK_DRFN\ProjSrc\SrcChartEx\ChartOCX\IndicatorCondition\IndicatorConditionBaseData.cpp
;	COMDAT ?SetPacketNames@CGraphPartData@@QAE_NHABV?$CStringT@DV?$StrTraitMFC_DLL@DV?$ChTraitsCRT@D@ATL@@@@@ATL@@@Z
_TEXT	SEGMENT
_nSubGraphIndex$ = 8					; size = 4
_strPacketNames$ = 12					; size = 4
?SetPacketNames@CGraphPartData@@QAE_NHABV?$CStringT@DV?$StrTraitMFC_DLL@DV?$ChTraitsCRT@D@ATL@@@@@ATL@@@Z PROC ; CGraphPartData::SetPacketNames, COMDAT
; _this$ = ecx

; 872  : {

  00000	55		 push	 ebp
  00001	8b ec		 mov	 ebp, esp
  00003	56		 push	 esi

; 1056 : 	if(nSubGraphIndex < 0 || nSubGraphIndex >= m_subGraphPartDataList.size())

  00004	8b 75 08	 mov	 esi, DWORD PTR _nSubGraphIndex$[ebp]

; 872  : {

  00007	57		 push	 edi

; 1056 : 	if(nSubGraphIndex < 0 || nSubGraphIndex >= m_subGraphPartDataList.size())

  00008	85 f6		 test	 esi, esi
  0000a	78 22		 js	 SHORT $LN48@SetPacketN
  0000c	3b 71 30	 cmp	 esi, DWORD PTR [ecx+48]
  0000f	73 1d		 jae	 SHORT $LN48@SetPacketN
; File C:\Program Files (x86)\Microsoft Visual Studio\2019\Community\VC\Tools\MSVC\14.29.30133\include\list

; 1087 :         return const_iterator(_Mypair._Myval2._Myhead->_Next, _STD addressof(_Mypair._Myval2));

  00011	8b 49 2c	 mov	 ecx, DWORD PTR [ecx+44]
; File D:\git\src\IBK\IBK_DRFN\ProjSrc\SrcChartEx\ChartOCX\IndicatorCondition\IndicatorConditionBaseData.cpp

; 1059 : 	int nCount = 0;

  00014	33 d2		 xor	 edx, edx
; File C:\Program Files (x86)\Microsoft Visual Studio\2019\Community\VC\Tools\MSVC\14.29.30133\include\list

; 38   :     _List_unchecked_const_iterator(_Nodeptr _Pnode, const _Mylist* _Plist) noexcept : _Ptr(_Pnode) {

  00016	8b 01		 mov	 eax, DWORD PTR [ecx]
  00018	3b c1		 cmp	 eax, ecx
; File D:\git\src\IBK\IBK_DRFN\ProjSrc\SrcChartEx\ChartOCX\IndicatorCondition\IndicatorConditionBaseData.cpp

; 1061 : 	for(i = m_subGraphPartDataList.begin(); i != m_subGraphPartDataList.end(); ++i)

  0001a	74 12		 je	 SHORT $LN48@SetPacketN
  0001c	0f 1f 40 00	 npad	 4
$LL23@SetPacketN:

; 1062 : 	{
; 1063 :         CSubGraphPartData* pSubGraphPartData = *i;

  00020	8b 78 08	 mov	 edi, DWORD PTR [eax+8]

; 1064 : 		assert(pSubGraphPartData != NULL);
; 1065 : 		if(nSubGraphIndex == nCount)

  00023	3b f2		 cmp	 esi, edx
  00025	74 0f		 je	 SHORT $LN4@SetPacketN
; File C:\Program Files (x86)\Microsoft Visual Studio\2019\Community\VC\Tools\MSVC\14.29.30133\include\list

; 165  :         this->_Ptr = this->_Ptr->_Next;

  00027	8b 00		 mov	 eax, DWORD PTR [eax]
; File D:\git\src\IBK\IBK_DRFN\ProjSrc\SrcChartEx\ChartOCX\IndicatorCondition\IndicatorConditionBaseData.cpp

; 1067 : 		nCount++;

  00029	42		 inc	 edx
; File C:\Program Files (x86)\Microsoft Visual Studio\2019\Community\VC\Tools\MSVC\14.29.30133\include\list

; 198  :         return this->_Ptr == _Right._Ptr;

  0002a	3b c1		 cmp	 eax, ecx
; File D:\git\src\IBK\IBK_DRFN\ProjSrc\SrcChartEx\ChartOCX\IndicatorCondition\IndicatorConditionBaseData.cpp

; 1061 : 	for(i = m_subGraphPartDataList.begin(); i != m_subGraphPartDataList.end(); ++i)

  0002c	75 f2		 jne	 SHORT $LL23@SetPacketN
$LN48@SetPacketN:
  0002e	5f		 pop	 edi

; 875  : 		return false;
; 876  : 
; 877  : 	return pSubGraphPartData->SetCalPacketNames(strPacketNames);
; 878  : }

  0002f	32 c0		 xor	 al, al
  00031	5e		 pop	 esi
  00032	5d		 pop	 ebp
  00033	c2 08 00	 ret	 8
$LN4@SetPacketN:

; 873  : 	CSubGraphPartData* pSubGraphPartData = GetSubGraphPartData(nSubGraphIndex);
; 874  : 	if(pSubGraphPartData == NULL)

  00036	85 ff		 test	 edi, edi
  00038	74 f4		 je	 SHORT $LN48@SetPacketN
; File C:\Program Files (x86)\Microsoft Visual Studio\2019\Community\VC\Tools\MSVC\14.29.30133\atlmfc\include\atlsimpstr.h

; 377  : 		return( m_pszData );

  0003a	8b 45 0c	 mov	 eax, DWORD PTR _strPacketNames$[ebp]
; File C:\Program Files (x86)\Microsoft Visual Studio\2019\Community\VC\Tools\MSVC\14.29.30133\atlmfc\include\cstringt.h

; 2486 : 		return(str1.Compare(psz2) == 0);

  0003d	8d 4f 04	 lea	 ecx, DWORD PTR [edi+4]
; File C:\Program Files (x86)\Microsoft Visual Studio\2019\Community\VC\Tools\MSVC\14.29.30133\atlmfc\include\atlsimpstr.h

; 377  : 		return( m_pszData );

  00040	8b 30		 mov	 esi, DWORD PTR [eax]
; File C:\Program Files (x86)\Microsoft Visual Studio\2019\Community\VC\Tools\MSVC\14.29.30133\atlmfc\include\cstringt.h

; 2486 : 		return(str1.Compare(psz2) == 0);

  00042	56		 push	 esi
  00043	ff 15 00 00 00
	00		 call	 DWORD PTR __imp_?Compare@?$CStringT@DV?$StrTraitMFC_DLL@DV?$ChTraitsCRT@D@ATL@@@@@ATL@@QBEHPBD@Z
  00049	85 c0		 test	 eax, eax
; File D:\git\src\IBK\IBK_DRFN\ProjSrc\SrcChartEx\ChartOCX\IndicatorCondition\IndicatorConditionBaseData.cpp

; 205  : 	if(m_strCalPacketNames == p_szCalPacketNames) return false;

  0004b	74 e1		 je	 SHORT $LN48@SetPacketN

; 206  : 
; 207  : 	m_strCalPacketNames = p_szCalPacketNames;

  0004d	56		 push	 esi
  0004e	8d 4f 04	 lea	 ecx, DWORD PTR [edi+4]
  00051	ff 15 00 00 00
	00		 call	 DWORD PTR __imp_??4?$CStringT@DV?$StrTraitMFC_DLL@DV?$ChTraitsCRT@D@ATL@@@@@ATL@@QAEAAV01@PBD@Z
  00057	5f		 pop	 edi

; 208  : 	return true;

  00058	b0 01		 mov	 al, 1

; 875  : 		return false;
; 876  : 
; 877  : 	return pSubGraphPartData->SetCalPacketNames(strPacketNames);
; 878  : }

  0005a	5e		 pop	 esi
  0005b	5d		 pop	 ebp
  0005c	c2 08 00	 ret	 8
?SetPacketNames@CGraphPartData@@QAE_NHABV?$CStringT@DV?$StrTraitMFC_DLL@DV?$ChTraitsCRT@D@ATL@@@@@ATL@@@Z ENDP ; CGraphPartData::SetPacketNames
_TEXT	ENDS
; Function compile flags: /Ogtp
; File D:\git\src\IBK\IBK_DRFN\ProjSrc\SrcChartEx\ChartOCX\IndicatorCondition\IndicatorConditionBaseData.cpp
; File C:\Program Files (x86)\Microsoft Visual Studio\2019\Community\VC\Tools\MSVC\14.29.30133\include\list
; File D:\git\src\IBK\IBK_DRFN\ProjSrc\SrcChartEx\ChartOCX\IndicatorCondition\IndicatorConditionBaseData.cpp
; File C:\Program Files (x86)\Microsoft Visual Studio\2019\Community\VC\Tools\MSVC\14.29.30133\atlmfc\include\atlsimpstr.h
; File D:\git\src\IBK\IBK_DRFN\ProjSrc\SrcChartEx\ChartOCX\IndicatorCondition\IndicatorConditionBaseData.cpp
; File C:\Program Files (x86)\Microsoft Visual Studio\2019\Community\VC\Tools\MSVC\14.29.30133\atlmfc\include\atlsimpstr.h
; File C:\Program Files (x86)\Microsoft Visual Studio\2019\Community\VC\Tools\MSVC\14.29.30133\atlmfc\include\cstringt.h
; File C:\Program Files (x86)\Microsoft Visual Studio\2019\Community\VC\Tools\MSVC\14.29.30133\atlmfc\include\atlsimpstr.h
; File C:\Program Files (x86)\Microsoft Visual Studio\2019\Community\VC\Tools\MSVC\14.29.30133\atlmfc\include\cstringt.h
; File D:\git\src\IBK\IBK_DRFN\ProjSrc\SrcChartEx\ChartOCX\IndicatorCondition\IndicatorConditionBaseData.cpp
; File C:\Program Files (x86)\Microsoft Visual Studio\2019\Community\VC\Tools\MSVC\14.29.30133\include\list
; File D:\git\src\IBK\IBK_DRFN\ProjSrc\SrcChartEx\ChartOCX\IndicatorCondition\IndicatorConditionBaseData.cpp
;	COMDAT ?SetAllPacketNames_SubGraphPart@CGraphPartData@@QAE_NABV?$CStringT@DV?$StrTraitMFC_DLL@DV?$ChTraitsCRT@D@ATL@@@@@ATL@@_N@Z
_TEXT	SEGMENT
_this$1$ = -8						; size = 4
_bResult$1$ = -1					; size = 1
_strPacketNames$ = 8					; size = 4
_bIsAutoCheck$ = 12					; size = 1
?SetAllPacketNames_SubGraphPart@CGraphPartData@@QAE_NABV?$CStringT@DV?$StrTraitMFC_DLL@DV?$ChTraitsCRT@D@ATL@@@@@ATL@@_N@Z PROC ; CGraphPartData::SetAllPacketNames_SubGraphPart, COMDAT
; _this$ = ecx

; 858  : {

  00000	55		 push	 ebp
  00001	8b ec		 mov	 ebp, esp
  00003	83 ec 08	 sub	 esp, 8
  00006	8b c1		 mov	 eax, ecx

; 859  : 	bool bResult = false;

  00008	32 c9		 xor	 cl, cl
  0000a	89 45 f8	 mov	 DWORD PTR _this$1$[ebp], eax
  0000d	56		 push	 esi
  0000e	88 4d ff	 mov	 BYTE PTR _bResult$1$[ebp], cl
; File C:\Program Files (x86)\Microsoft Visual Studio\2019\Community\VC\Tools\MSVC\14.29.30133\include\list

; 1083 :         return iterator(_Mypair._Myval2._Myhead->_Next, _STD addressof(_Mypair._Myval2));

  00011	8b 40 2c	 mov	 eax, DWORD PTR [eax+44]

; 38   :     _List_unchecked_const_iterator(_Nodeptr _Pnode, const _Mylist* _Plist) noexcept : _Ptr(_Pnode) {

  00014	8b 30		 mov	 esi, DWORD PTR [eax]
  00016	3b f0		 cmp	 esi, eax
; File D:\git\src\IBK\IBK_DRFN\ProjSrc\SrcChartEx\ChartOCX\IndicatorCondition\IndicatorConditionBaseData.cpp

; 861  : 	for(i = m_subGraphPartDataList.begin(); i != m_subGraphPartDataList.end(); ++i)

  00018	74 4b		 je	 SHORT $LN57@SetAllPack
  0001a	53		 push	 ebx
  0001b	57		 push	 edi
  0001c	0f 1f 40 00	 npad	 4
$LL20@SetAllPack:

; 862  : 	{
; 863  :         CSubGraphPartData* pSubGraphPartData = *i;

  00020	8b 7e 08	 mov	 edi, DWORD PTR [esi+8]

; 213  : 	if( bIsAutoCheck && m_strCalPacketNames.IsEmpty()) return false;

  00023	83 c7 04	 add	 edi, 4
  00026	80 7d 0c 00	 cmp	 BYTE PTR _bIsAutoCheck$[ebp], 0
  0002a	74 08		 je	 SHORT $LN38@SetAllPack
; File C:\Program Files (x86)\Microsoft Visual Studio\2019\Community\VC\Tools\MSVC\14.29.30133\atlmfc\include\atlsimpstr.h

; 533  : 		return( GetLength() == 0 );

  0002c	8b 07		 mov	 eax, DWORD PTR [edi]
  0002e	83 78 f4 00	 cmp	 DWORD PTR [eax-12], 0
; File D:\git\src\IBK\IBK_DRFN\ProjSrc\SrcChartEx\ChartOCX\IndicatorCondition\IndicatorConditionBaseData.cpp

; 213  : 	if( bIsAutoCheck && m_strCalPacketNames.IsEmpty()) return false;

  00032	74 25		 je	 SHORT $LN2@SetAllPack
$LN38@SetAllPack:
; File C:\Program Files (x86)\Microsoft Visual Studio\2019\Community\VC\Tools\MSVC\14.29.30133\atlmfc\include\atlsimpstr.h

; 377  : 		return( m_pszData );

  00034	8b 45 08	 mov	 eax, DWORD PTR _strPacketNames$[ebp]
; File C:\Program Files (x86)\Microsoft Visual Studio\2019\Community\VC\Tools\MSVC\14.29.30133\atlmfc\include\cstringt.h

; 2486 : 		return(str1.Compare(psz2) == 0);

  00037	8b cf		 mov	 ecx, edi
; File C:\Program Files (x86)\Microsoft Visual Studio\2019\Community\VC\Tools\MSVC\14.29.30133\atlmfc\include\atlsimpstr.h

; 377  : 		return( m_pszData );

  00039	8b 18		 mov	 ebx, DWORD PTR [eax]
; File C:\Program Files (x86)\Microsoft Visual Studio\2019\Community\VC\Tools\MSVC\14.29.30133\atlmfc\include\cstringt.h

; 2486 : 		return(str1.Compare(psz2) == 0);

  0003b	53		 push	 ebx
  0003c	ff 15 00 00 00
	00		 call	 DWORD PTR __imp_?Compare@?$CStringT@DV?$StrTraitMFC_DLL@DV?$ChTraitsCRT@D@ATL@@@@@ATL@@QBEHPBD@Z
  00042	85 c0		 test	 eax, eax
; File D:\git\src\IBK\IBK_DRFN\ProjSrc\SrcChartEx\ChartOCX\IndicatorCondition\IndicatorConditionBaseData.cpp

; 205  : 	if(m_strCalPacketNames == p_szCalPacketNames) return false;

  00044	74 10		 je	 SHORT $LN58@SetAllPack

; 206  : 
; 207  : 	m_strCalPacketNames = p_szCalPacketNames;

  00046	53		 push	 ebx
  00047	8b cf		 mov	 ecx, edi
  00049	ff 15 00 00 00
	00		 call	 DWORD PTR __imp_??4?$CStringT@DV?$StrTraitMFC_DLL@DV?$ChTraitsCRT@D@ATL@@@@@ATL@@QAEAAV01@PBD@Z

; 864  : 		assert(pSubGraphPartData != NULL);
; 865  : 		if(pSubGraphPartData->SetCalPacketNames(strPacketNames, bIsAutoCheck))
; 866  : 			bResult = true;

  0004f	b1 01		 mov	 cl, 1
  00051	88 4d ff	 mov	 BYTE PTR _bResult$1$[ebp], cl

; 205  : 	if(m_strCalPacketNames == p_szCalPacketNames) return false;

  00054	eb 03		 jmp	 SHORT $LN2@SetAllPack
$LN58@SetAllPack:
  00056	8a 4d ff	 mov	 cl, BYTE PTR _bResult$1$[ebp]
$LN2@SetAllPack:
; File C:\Program Files (x86)\Microsoft Visual Studio\2019\Community\VC\Tools\MSVC\14.29.30133\include\list

; 198  :         return this->_Ptr == _Right._Ptr;

  00059	8b 45 f8	 mov	 eax, DWORD PTR _this$1$[ebp]

; 165  :         this->_Ptr = this->_Ptr->_Next;

  0005c	8b 36		 mov	 esi, DWORD PTR [esi]

; 198  :         return this->_Ptr == _Right._Ptr;

  0005e	3b 70 2c	 cmp	 esi, DWORD PTR [eax+44]
; File D:\git\src\IBK\IBK_DRFN\ProjSrc\SrcChartEx\ChartOCX\IndicatorCondition\IndicatorConditionBaseData.cpp

; 861  : 	for(i = m_subGraphPartDataList.begin(); i != m_subGraphPartDataList.end(); ++i)

  00061	75 bd		 jne	 SHORT $LL20@SetAllPack

; 867  : 	}
; 868  : 	return bResult;

  00063	5f		 pop	 edi
  00064	5b		 pop	 ebx
$LN57@SetAllPack:

; 869  : }

  00065	8a c1		 mov	 al, cl
  00067	5e		 pop	 esi
  00068	8b e5		 mov	 esp, ebp
  0006a	5d		 pop	 ebp
  0006b	c2 08 00	 ret	 8
?SetAllPacketNames_SubGraphPart@CGraphPartData@@QAE_NABV?$CStringT@DV?$StrTraitMFC_DLL@DV?$ChTraitsCRT@D@ATL@@@@@ATL@@_N@Z ENDP ; CGraphPartData::SetAllPacketNames_SubGraphPart
_TEXT	ENDS
; Function compile flags: /Ogtp
; File D:\git\src\IBK\IBK_DRFN\ProjSrc\SrcChartEx\ChartOCX\IndicatorCondition\IndicatorConditionBaseData.cpp
; File C:\Program Files (x86)\Microsoft Visual Studio\2019\Community\VC\Tools\MSVC\14.29.30133\atlmfc\include\afxtempl.h
; File D:\git\src\IBK\IBK_DRFN\ProjSrc\SrcChartEx\ChartOCX\IndicatorCondition\IndicatorConditionBaseData.cpp
; File C:\Program Files (x86)\Microsoft Visual Studio\2019\Community\VC\Tools\MSVC\14.29.30133\atlmfc\include\afxtempl.h
; File D:\git\src\IBK\IBK_DRFN\ProjSrc\SrcChartEx\ChartOCX\IndicatorCondition\IndicatorConditionBaseData.cpp
; File C:\Program Files (x86)\Microsoft Visual Studio\2019\Community\VC\Tools\MSVC\14.29.30133\include\list
; File D:\git\src\IBK\IBK_DRFN\ProjSrc\SrcChartEx\ChartOCX\IndicatorCondition\IndicatorConditionBaseData.cpp
; File C:\Program Files (x86)\Microsoft Visual Studio\2019\Community\VC\Tools\MSVC\14.29.30133\include\list
; File D:\git\src\IBK\IBK_DRFN\ProjSrc\SrcChartEx\ChartOCX\IndicatorCondition\IndicatorConditionBaseData.cpp
; File C:\Program Files (x86)\Microsoft Visual Studio\2019\Community\VC\Tools\MSVC\14.29.30133\atlmfc\include\afxtempl.h
; File D:\git\src\IBK\IBK_DRFN\ProjSrc\SrcChartEx\ChartOCX\IndicatorCondition\IndicatorConditionBaseData.cpp
; File C:\Program Files (x86)\Microsoft Visual Studio\2019\Community\VC\Tools\MSVC\14.29.30133\include\list
; File D:\git\src\IBK\IBK_DRFN\ProjSrc\SrcChartEx\ChartOCX\IndicatorCondition\IndicatorConditionBaseData.cpp
; File C:\Program Files (x86)\Microsoft Visual Studio\2019\Community\VC\Tools\MSVC\14.29.30133\include\list
; File D:\git\src\IBK\IBK_DRFN\ProjSrc\SrcChartEx\ChartOCX\IndicatorCondition\IndicatorConditionBaseData.cpp
;	COMDAT ?SetAllSubGraphDataList@CGraphPartData@@QAE_NPBV?$CList@PAVCSubGraphData@@PAV1@@@@Z
_TEXT	SEGMENT
_this$1$ = -16						; size = 4
__$EHRec$ = -12						; size = 12
$T2 = 8							; size = 4
_pNewSubGraphPartData$3 = 8				; size = 4
_pSubGraphDataList$ = 8					; size = 4
?SetAllSubGraphDataList@CGraphPartData@@QAE_NPBV?$CList@PAVCSubGraphData@@PAV1@@@@Z PROC ; CGraphPartData::SetAllSubGraphDataList, COMDAT
; _this$ = ecx

; 848  : {

  00000	55		 push	 ebp
  00001	8b ec		 mov	 ebp, esp
  00003	6a ff		 push	 -1
  00005	68 00 00 00 00	 push	 __ehhandler$?SetAllSubGraphDataList@CGraphPartData@@QAE_NPBV?$CList@PAVCSubGraphData@@PAV1@@@@Z
  0000a	64 a1 00 00 00
	00		 mov	 eax, DWORD PTR fs:0
  00010	50		 push	 eax
  00011	51		 push	 ecx
  00012	53		 push	 ebx
  00013	56		 push	 esi
  00014	57		 push	 edi
  00015	a1 00 00 00 00	 mov	 eax, DWORD PTR ___security_cookie
  0001a	33 c5		 xor	 eax, ebp
  0001c	50		 push	 eax
  0001d	8d 45 f4	 lea	 eax, DWORD PTR __$EHRec$[ebp]
  00020	64 a3 00 00 00
	00		 mov	 DWORD PTR fs:0, eax
  00026	8b d9		 mov	 ebx, ecx
  00028	89 5d f0	 mov	 DWORD PTR _this$1$[ebp], ebx

; 849  : 	// subGraph count == 0 :  subGraphPartData 
; 850  : 	if(m_subGraphPartDataList.size() <= 0)

  0002b	83 7b 30 00	 cmp	 DWORD PTR [ebx+48], 0
  0002f	0f 87 d5 00 00
	00		 ja	 $LN2@SetAllSubG

; 960  : 	if(pSubGraphDataList == NULL || pSubGraphDataList->GetCount() <= 0)

  00035	8b 75 08	 mov	 esi, DWORD PTR _pSubGraphDataList$[ebp]
  00038	85 f6		 test	 esi, esi
  0003a	0f 84 b4 00 00
	00		 je	 $LN6@SetAllSubG
  00040	83 7e 0c 00	 cmp	 DWORD PTR [esi+12], 0
  00044	0f 8e aa 00 00
	00		 jle	 $LN6@SetAllSubG

; 962  : 
; 963  : 	DeleteAllSubGraph();

  0004a	e8 00 00 00 00	 call	 ?DeleteAllSubGraph@CGraphPartData@@QAE_NXZ ; CGraphPartData::DeleteAllSubGraph
; File C:\Program Files (x86)\Microsoft Visual Studio\2019\Community\VC\Tools\MSVC\14.29.30133\atlmfc\include\afxtempl.h

; 817  : 	{ CNode* pNode = (CNode*) rPosition;

  0004f	8b 46 04	 mov	 eax, DWORD PTR [esi+4]
; File D:\git\src\IBK\IBK_DRFN\ProjSrc\SrcChartEx\ChartOCX\IndicatorCondition\IndicatorConditionBaseData.cpp

; 969  :         CSubGraphPartData* pNewSubGraphPartData = new CSubGraphPartData(*pSourceSubGraphData);

  00052	68 ac 00 00 00	 push	 172			; 000000acH
  00057	8b 78 08	 mov	 edi, DWORD PTR [eax+8]
  0005a	e8 00 00 00 00	 call	 ??2@YAPAXI@Z		; operator new
  0005f	8b f0		 mov	 esi, eax
  00061	83 c4 04	 add	 esp, 4
  00064	89 75 08	 mov	 DWORD PTR $T2[ebp], esi
  00067	c7 45 fc 00 00
	00 00		 mov	 DWORD PTR __$EHRec$[ebp+8], 0
  0006e	85 f6		 test	 esi, esi
  00070	74 4f		 je	 SHORT $LN8@SetAllSubG

; 52   : {

  00072	8d 4e 04	 lea	 ecx, DWORD PTR [esi+4]
  00075	c7 06 00 00 00
	00		 mov	 DWORD PTR [esi], OFFSET ??_7CSubGraphPartData@@6B@
  0007b	ff 15 00 00 00
	00		 call	 DWORD PTR __imp_??0?$CStringT@DV?$StrTraitMFC_DLL@DV?$ChTraitsCRT@D@ATL@@@@@ATL@@QAE@XZ
; File C:\Program Files (x86)\Microsoft Visual Studio\2019\Community\VC\Tools\MSVC\14.29.30133\atlmfc\include\afxtempl.h

; 851  : {

  00081	c7 46 08 00 00
	00 00		 mov	 DWORD PTR [esi+8], OFFSET ??_7?$CList@NN@@6B@

; 852  : 	ASSERT(nBlockSize > 0);
; 853  : 
; 854  : 	m_nCount = 0;

  00088	c7 46 14 00 00
	00 00		 mov	 DWORD PTR [esi+20], 0

; 855  : 	m_pNodeHead = m_pNodeTail = m_pNodeFree = NULL;

  0008f	c7 46 18 00 00
	00 00		 mov	 DWORD PTR [esi+24], 0
  00096	c7 46 10 00 00
	00 00		 mov	 DWORD PTR [esi+16], 0
  0009d	c7 46 0c 00 00
	00 00		 mov	 DWORD PTR [esi+12], 0

; 856  : 	m_pBlocks = NULL;

  000a4	c7 46 1c 00 00
	00 00		 mov	 DWORD PTR [esi+28], 0

; 857  : 	m_nBlockSize = nBlockSize;

  000ab	c7 46 20 0a 00
	00 00		 mov	 DWORD PTR [esi+32], 10	; 0000000aH
; File D:\git\src\IBK\IBK_DRFN\ProjSrc\SrcChartEx\ChartOCX\IndicatorCondition\IndicatorConditionBaseData.cpp

; 52   : {

  000b2	57		 push	 edi
  000b3	8d 4e 24	 lea	 ecx, DWORD PTR [esi+36]
  000b6	c6 45 fc 02	 mov	 BYTE PTR __$EHRec$[ebp+8], 2
  000ba	e8 00 00 00 00	 call	 ??0CSubGraphData@@QAE@ABV0@@Z ; CSubGraphData::CSubGraphData

; 969  :         CSubGraphPartData* pNewSubGraphPartData = new CSubGraphPartData(*pSourceSubGraphData);

  000bf	eb 02		 jmp	 SHORT $LN9@SetAllSubG
$LN8@SetAllSubG:
  000c1	33 f6		 xor	 esi, esi
$LN9@SetAllSubG:

; 970  : 		m_subGraphPartDataList.push_back(pNewSubGraphPartData);

  000c3	8d 45 08	 lea	 eax, DWORD PTR _pNewSubGraphPartData$3[ebp]
  000c6	c7 45 fc ff ff
	ff ff		 mov	 DWORD PTR __$EHRec$[ebp+8], -1
  000cd	50		 push	 eax
  000ce	8d 4b 2c	 lea	 ecx, DWORD PTR [ebx+44]
  000d1	89 75 08	 mov	 DWORD PTR _pNewSubGraphPartData$3[ebp], esi
  000d4	e8 00 00 00 00	 call	 ?push_back@?$list@PAVCSubGraphPartData@@V?$allocator@PAVCSubGraphPartData@@@std@@@std@@QAEXABQAVCSubGraphPartData@@@Z ; std::list<CSubGraphPartData *,std::allocator<CSubGraphPartData *> >::push_back

; 971  : 	}
; 972  : 
; 973  : 	return (m_subGraphPartDataList.size() > 0);

  000d9	83 7b 30 00	 cmp	 DWORD PTR [ebx+48], 0
  000dd	0f 97 c0	 seta	 al

; 855  : }

  000e0	8b 4d f4	 mov	 ecx, DWORD PTR __$EHRec$[ebp]
  000e3	64 89 0d 00 00
	00 00		 mov	 DWORD PTR fs:0, ecx
  000ea	59		 pop	 ecx
  000eb	5f		 pop	 edi
  000ec	5e		 pop	 esi
  000ed	5b		 pop	 ebx
  000ee	8b e5		 mov	 esp, ebp
  000f0	5d		 pop	 ebp
  000f1	c2 04 00	 ret	 4
$LN6@SetAllSubG:

; 961  : 		return false;

  000f4	32 c0		 xor	 al, al

; 855  : }

  000f6	8b 4d f4	 mov	 ecx, DWORD PTR __$EHRec$[ebp]
  000f9	64 89 0d 00 00
	00 00		 mov	 DWORD PTR fs:0, ecx
  00100	59		 pop	 ecx
  00101	5f		 pop	 edi
  00102	5e		 pop	 esi
  00103	5b		 pop	 ebx
  00104	8b e5		 mov	 esp, ebp
  00106	5d		 pop	 ebp
  00107	c2 04 00	 ret	 4
$LN2@SetAllSubG:

; 1023 : 	if(pSubGraphDataList == NULL || pSubGraphDataList->GetCount() <= 0)

  0010a	8b 7d 08	 mov	 edi, DWORD PTR _pSubGraphDataList$[ebp]
  0010d	85 ff		 test	 edi, edi
  0010f	74 40		 je	 SHORT $LN25@SetAllSubG
  00111	83 7f 0c 00	 cmp	 DWORD PTR [edi+12], 0
  00115	7e 3a		 jle	 SHORT $LN25@SetAllSubG

; 1028 : 	POSITION pos = pSubGraphDataList->GetHeadPosition();

  00117	8b 7f 04	 mov	 edi, DWORD PTR [edi+4]
; File C:\Program Files (x86)\Microsoft Visual Studio\2019\Community\VC\Tools\MSVC\14.29.30133\include\list

; 1083 :         return iterator(_Mypair._Myval2._Myhead->_Next, _STD addressof(_Mypair._Myval2));

  0011a	8b c1		 mov	 eax, ecx
; File D:\git\src\IBK\IBK_DRFN\ProjSrc\SrcChartEx\ChartOCX\IndicatorCondition\IndicatorConditionBaseData.cpp

; 1027 : 	bool bResult = false;

  0011c	32 db		 xor	 bl, bl
; File C:\Program Files (x86)\Microsoft Visual Studio\2019\Community\VC\Tools\MSVC\14.29.30133\include\list

; 1083 :         return iterator(_Mypair._Myval2._Myhead->_Next, _STD addressof(_Mypair._Myval2));

  0011e	8b 40 2c	 mov	 eax, DWORD PTR [eax+44]

; 38   :     _List_unchecked_const_iterator(_Nodeptr _Pnode, const _Mylist* _Plist) noexcept : _Ptr(_Pnode) {

  00121	8b 30		 mov	 esi, DWORD PTR [eax]
  00123	3b f0		 cmp	 esi, eax
; File D:\git\src\IBK\IBK_DRFN\ProjSrc\SrcChartEx\ChartOCX\IndicatorCondition\IndicatorConditionBaseData.cpp

; 1030 : 	for(t_i = targetData.begin(); t_i != targetData.end() && pos != NULL; ++t_i)

  00125	74 2c		 je	 SHORT $LN20@SetAllSubG
$LL41@SetAllSubG:
  00127	85 ff		 test	 edi, edi
  00129	74 28		 je	 SHORT $LN20@SetAllSubG

; 1035 : 		if(pTarget->CopyDataWithVerificationFrom(*pSourceSubGraphData))

  0012b	ff 77 08	 push	 DWORD PTR [edi+8]
  0012e	8b 4e 08	 mov	 ecx, DWORD PTR [esi+8]
; File C:\Program Files (x86)\Microsoft Visual Studio\2019\Community\VC\Tools\MSVC\14.29.30133\atlmfc\include\afxtempl.h

; 819  : 		rPosition = (POSITION) pNode->pNext;

  00131	8b 3f		 mov	 edi, DWORD PTR [edi]
; File D:\git\src\IBK\IBK_DRFN\ProjSrc\SrcChartEx\ChartOCX\IndicatorCondition\IndicatorConditionBaseData.cpp

; 1035 : 		if(pTarget->CopyDataWithVerificationFrom(*pSourceSubGraphData))

  00133	e8 00 00 00 00	 call	 ?CopyDataWithVerificationFrom@CSubGraphPartData@@QAE_NABVCSubGraphData@@@Z ; CSubGraphPartData::CopyDataWithVerificationFrom
; File C:\Program Files (x86)\Microsoft Visual Studio\2019\Community\VC\Tools\MSVC\14.29.30133\include\list

; 165  :         this->_Ptr = this->_Ptr->_Next;

  00138	8b 36		 mov	 esi, DWORD PTR [esi]
; File D:\git\src\IBK\IBK_DRFN\ProjSrc\SrcChartEx\ChartOCX\IndicatorCondition\IndicatorConditionBaseData.cpp

; 1035 : 		if(pTarget->CopyDataWithVerificationFrom(*pSourceSubGraphData))

  0013a	84 c0		 test	 al, al
  0013c	b8 01 00 00 00	 mov	 eax, 1
  00141	0f b6 db	 movzx	 ebx, bl
  00144	0f 45 d8	 cmovne	 ebx, eax
; File C:\Program Files (x86)\Microsoft Visual Studio\2019\Community\VC\Tools\MSVC\14.29.30133\include\list

; 198  :         return this->_Ptr == _Right._Ptr;

  00147	8b 45 f0	 mov	 eax, DWORD PTR _this$1$[ebp]
  0014a	3b 70 2c	 cmp	 esi, DWORD PTR [eax+44]
; File D:\git\src\IBK\IBK_DRFN\ProjSrc\SrcChartEx\ChartOCX\IndicatorCondition\IndicatorConditionBaseData.cpp

; 1030 : 	for(t_i = targetData.begin(); t_i != targetData.end() && pos != NULL; ++t_i)

  0014d	75 d8		 jne	 SHORT $LL41@SetAllSubG

; 1036 : 			bResult = true;
; 1037 : 	}
; 1038 : 
; 1039 : 	return bResult;

  0014f	eb 02		 jmp	 SHORT $LN20@SetAllSubG
$LN25@SetAllSubG:

; 1024 : 		return false;

  00151	32 db		 xor	 bl, bl
$LN20@SetAllSubG:

; 851  : 		return MakeSubGraphPartDataList(pSubGraphDataList);
; 852  : 
; 853  : 	// subGraph count != 0 :  subGraphPartData 
; 854  : 	return SetAllSubGraphDataList(pSubGraphDataList, m_subGraphPartDataList);

  00153	8a c3		 mov	 al, bl

; 855  : }

  00155	8b 4d f4	 mov	 ecx, DWORD PTR __$EHRec$[ebp]
  00158	64 89 0d 00 00
	00 00		 mov	 DWORD PTR fs:0, ecx
  0015f	59		 pop	 ecx
  00160	5f		 pop	 edi
  00161	5e		 pop	 esi
  00162	5b		 pop	 ebx
  00163	8b e5		 mov	 esp, ebp
  00165	5d		 pop	 ebp
  00166	c2 04 00	 ret	 4
_TEXT	ENDS
;	COMDAT text$x
text$x	SEGMENT
__unwindfunclet$?SetAllSubGraphDataList@CGraphPartData@@QAE_NPBV?$CList@PAVCSubGraphData@@PAV1@@@@Z$0:
  00000	68 ac 00 00 00	 push	 172			; 000000acH
  00005	8b 45 08	 mov	 eax, DWORD PTR $T2[ebp]
  00008	50		 push	 eax
  00009	e8 00 00 00 00	 call	 ??3@YAXPAXI@Z		; operator delete
  0000e	83 c4 08	 add	 esp, 8
  00011	c3		 ret	 0
__unwindfunclet$?SetAllSubGraphDataList@CGraphPartData@@QAE_NPBV?$CList@PAVCSubGraphData@@PAV1@@@@Z$1:
  00012	8b 4d 08	 mov	 ecx, DWORD PTR $T2[ebp]
  00015	83 c1 04	 add	 ecx, 4
  00018	ff 25 00 00 00
	00		 jmp	 DWORD PTR __imp_??1?$CStringT@DV?$StrTraitMFC_DLL@DV?$ChTraitsCRT@D@ATL@@@@@ATL@@QAE@XZ
__unwindfunclet$?SetAllSubGraphDataList@CGraphPartData@@QAE_NPBV?$CList@PAVCSubGraphData@@PAV1@@@@Z$2:
  0001e	8b 4d 08	 mov	 ecx, DWORD PTR $T2[ebp]
  00021	83 c1 08	 add	 ecx, 8
  00024	e9 00 00 00 00	 jmp	 ??1?$CList@NN@@UAE@XZ	; CList<double,double>::~CList<double,double>
  00029	cc		 int	 3
  0002a	cc		 int	 3
  0002b	cc		 int	 3
  0002c	cc		 int	 3
  0002d	cc		 int	 3
__ehhandler$?SetAllSubGraphDataList@CGraphPartData@@QAE_NPBV?$CList@PAVCSubGraphData@@PAV1@@@@Z:
  0002e	90		 npad	 1
  0002f	90		 npad	 1
  00030	8b 54 24 08	 mov	 edx, DWORD PTR [esp+8]
  00034	8d 42 0c	 lea	 eax, DWORD PTR [edx+12]
  00037	8b 4a ec	 mov	 ecx, DWORD PTR [edx-20]
  0003a	33 c8		 xor	 ecx, eax
  0003c	e8 00 00 00 00	 call	 @__security_check_cookie@4
  00041	b8 00 00 00 00	 mov	 eax, OFFSET __ehfuncinfo$?SetAllSubGraphDataList@CGraphPartData@@QAE_NPBV?$CList@PAVCSubGraphData@@PAV1@@@@Z
  00046	e9 00 00 00 00	 jmp	 ___CxxFrameHandler3
text$x	ENDS
?SetAllSubGraphDataList@CGraphPartData@@QAE_NPBV?$CList@PAVCSubGraphData@@PAV1@@@@Z ENDP ; CGraphPartData::SetAllSubGraphDataList
; Function compile flags: /Ogtp
; File D:\git\src\IBK\IBK_DRFN\ProjSrc\SrcChartEx\ChartOCX\IndicatorCondition\IndicatorConditionBaseData.cpp
; File C:\Program Files (x86)\Microsoft Visual Studio\2019\Community\VC\Tools\MSVC\14.29.30133\include\list
; File D:\git\src\IBK\IBK_DRFN\ProjSrc\SrcChartEx\ChartOCX\IndicatorCondition\IndicatorConditionBaseData.cpp
; File C:\Program Files (x86)\Microsoft Visual Studio\2019\Community\VC\Tools\MSVC\14.29.30133\include\list
; File D:\git\src\IBK\IBK_DRFN\ProjSrc\SrcChartEx\ChartOCX\IndicatorCondition\IndicatorConditionBaseData.cpp
; File C:\Program Files (x86)\Microsoft Visual Studio\2019\Community\VC\Tools\MSVC\14.29.30133\include\list
; File D:\git\src\IBK\IBK_DRFN\ProjSrc\SrcChartEx\ChartOCX\IndicatorCondition\IndicatorConditionBaseData.cpp
; File C:\Program Files (x86)\Microsoft Visual Studio\2019\Community\VC\Tools\MSVC\14.29.30133\include\list
; File D:\git\src\IBK\IBK_DRFN\ProjSrc\SrcChartEx\ChartOCX\IndicatorCondition\IndicatorConditionBaseData.cpp
; File C:\Program Files (x86)\Microsoft Visual Studio\2019\Community\VC\Tools\MSVC\14.29.30133\include\list
; File D:\git\src\IBK\IBK_DRFN\ProjSrc\SrcChartEx\ChartOCX\IndicatorCondition\IndicatorConditionBaseData.cpp
; File C:\Program Files (x86)\Microsoft Visual Studio\2019\Community\VC\Tools\MSVC\14.29.30133\include\list
; File D:\git\src\IBK\IBK_DRFN\ProjSrc\SrcChartEx\ChartOCX\IndicatorCondition\IndicatorConditionBaseData.cpp
; File C:\Program Files (x86)\Microsoft Visual Studio\2019\Community\VC\Tools\MSVC\14.29.30133\include\list
; File D:\git\src\IBK\IBK_DRFN\ProjSrc\SrcChartEx\ChartOCX\IndicatorCondition\IndicatorConditionBaseData.cpp
; File C:\Program Files (x86)\Microsoft Visual Studio\2019\Community\VC\Tools\MSVC\14.29.30133\include\list
; File D:\git\src\IBK\IBK_DRFN\ProjSrc\SrcChartEx\ChartOCX\IndicatorCondition\IndicatorConditionBaseData.cpp
; File C:\Program Files (x86)\Microsoft Visual Studio\2019\Community\VC\Tools\MSVC\14.29.30133\include\list
; File D:\git\src\IBK\IBK_DRFN\ProjSrc\SrcChartEx\ChartOCX\IndicatorCondition\IndicatorConditionBaseData.cpp
;	COMDAT ?SetAllSubGraphPartDataList@CGraphPartData@@QAE_NPBV?$list@PAVCSubGraphPartData@@V?$allocator@PAVCSubGraphPartData@@@std@@@std@@@Z
_TEXT	SEGMENT
_this$1$ = -4						; size = 4
tv406 = 8						; size = 4
_pSubGraphPartDataList$ = 8				; size = 4
?SetAllSubGraphPartDataList@CGraphPartData@@QAE_NPBV?$list@PAVCSubGraphPartData@@V?$allocator@PAVCSubGraphPartData@@@std@@@std@@@Z PROC ; CGraphPartData::SetAllSubGraphPartDataList, COMDAT
; _this$ = ecx

; 826  : {

  00000	55		 push	 ebp
  00001	8b ec		 mov	 ebp, esp
  00003	51		 push	 ecx
  00004	53		 push	 ebx

; 827  : 	if(pSubGraphPartDataList == NULL || pSubGraphPartDataList->size() <= 0)

  00005	8b 5d 08	 mov	 ebx, DWORD PTR _pSubGraphPartDataList$[ebp]
  00008	8b c1		 mov	 eax, ecx
  0000a	89 45 fc	 mov	 DWORD PTR _this$1$[ebp], eax
  0000d	85 db		 test	 ebx, ebx
  0000f	74 58		 je	 SHORT $LN6@SetAllSubG
  00011	83 7b 04 00	 cmp	 DWORD PTR [ebx+4], 0
  00015	76 52		 jbe	 SHORT $LN6@SetAllSubG
; File C:\Program Files (x86)\Microsoft Visual Studio\2019\Community\VC\Tools\MSVC\14.29.30133\include\list

; 1083 :         return iterator(_Mypair._Myval2._Myhead->_Next, _STD addressof(_Mypair._Myval2));

  00017	8b 40 2c	 mov	 eax, DWORD PTR [eax+44]
; File D:\git\src\IBK\IBK_DRFN\ProjSrc\SrcChartEx\ChartOCX\IndicatorCondition\IndicatorConditionBaseData.cpp

; 831  : 	bool bResult = false;

  0001a	32 c9		 xor	 cl, cl
  0001c	56		 push	 esi
; File C:\Program Files (x86)\Microsoft Visual Studio\2019\Community\VC\Tools\MSVC\14.29.30133\include\list

; 1087 :         return const_iterator(_Mypair._Myval2._Myhead->_Next, _STD addressof(_Mypair._Myval2));

  0001d	8b 33		 mov	 esi, DWORD PTR [ebx]
; File D:\git\src\IBK\IBK_DRFN\ProjSrc\SrcChartEx\ChartOCX\IndicatorCondition\IndicatorConditionBaseData.cpp

; 831  : 	bool bResult = false;

  0001f	57		 push	 edi
; File C:\Program Files (x86)\Microsoft Visual Studio\2019\Community\VC\Tools\MSVC\14.29.30133\include\list

; 38   :     _List_unchecked_const_iterator(_Nodeptr _Pnode, const _Mylist* _Plist) noexcept : _Ptr(_Pnode) {

  00020	8b 38		 mov	 edi, DWORD PTR [eax]
; File D:\git\src\IBK\IBK_DRFN\ProjSrc\SrcChartEx\ChartOCX\IndicatorCondition\IndicatorConditionBaseData.cpp

; 831  : 	bool bResult = false;

  00022	89 4d 08	 mov	 DWORD PTR tv406[ebp], ecx
; File C:\Program Files (x86)\Microsoft Visual Studio\2019\Community\VC\Tools\MSVC\14.29.30133\include\list

; 38   :     _List_unchecked_const_iterator(_Nodeptr _Pnode, const _Mylist* _Plist) noexcept : _Ptr(_Pnode) {

  00025	8b 36		 mov	 esi, DWORD PTR [esi]
  00027	3b f8		 cmp	 edi, eax
; File D:\git\src\IBK\IBK_DRFN\ProjSrc\SrcChartEx\ChartOCX\IndicatorCondition\IndicatorConditionBaseData.cpp

; 834  : 		t_i != m_subGraphPartDataList.end() && s_i != pSubGraphPartDataList->end(); 

  00029	74 33		 je	 SHORT $LN65@SetAllSubG
  0002b	0f 1f 44 00 00	 npad	 5
$LL34@SetAllSubG:
; File C:\Program Files (x86)\Microsoft Visual Studio\2019\Community\VC\Tools\MSVC\14.29.30133\include\list

; 38   :     _List_unchecked_const_iterator(_Nodeptr _Pnode, const _Mylist* _Plist) noexcept : _Ptr(_Pnode) {

  00030	3b 33		 cmp	 esi, DWORD PTR [ebx]
; File D:\git\src\IBK\IBK_DRFN\ProjSrc\SrcChartEx\ChartOCX\IndicatorCondition\IndicatorConditionBaseData.cpp

; 834  : 		t_i != m_subGraphPartDataList.end() && s_i != pSubGraphPartDataList->end(); 

  00032	74 2a		 je	 SHORT $LN65@SetAllSubG

; 840  : 		if(pTarget->CopyDataWithVerificationFrom(pSource))

  00034	ff 76 08	 push	 DWORD PTR [esi+8]
  00037	8b 4f 08	 mov	 ecx, DWORD PTR [edi+8]
  0003a	e8 00 00 00 00	 call	 ?CopyDataWithVerificationFrom@CSubGraphPartData@@QAE_NPBV1@@Z ; CSubGraphPartData::CopyDataWithVerificationFrom
  0003f	8b 4d 08	 mov	 ecx, DWORD PTR tv406[ebp]
  00042	84 c0		 test	 al, al
; File C:\Program Files (x86)\Microsoft Visual Studio\2019\Community\VC\Tools\MSVC\14.29.30133\include\list

; 165  :         this->_Ptr = this->_Ptr->_Next;

  00044	8b 3f		 mov	 edi, DWORD PTR [edi]
; File D:\git\src\IBK\IBK_DRFN\ProjSrc\SrcChartEx\ChartOCX\IndicatorCondition\IndicatorConditionBaseData.cpp

; 840  : 		if(pTarget->CopyDataWithVerificationFrom(pSource))

  00046	b8 01 00 00 00	 mov	 eax, 1
; File C:\Program Files (x86)\Microsoft Visual Studio\2019\Community\VC\Tools\MSVC\14.29.30133\include\list

; 165  :         this->_Ptr = this->_Ptr->_Next;

  0004b	8b 36		 mov	 esi, DWORD PTR [esi]
; File D:\git\src\IBK\IBK_DRFN\ProjSrc\SrcChartEx\ChartOCX\IndicatorCondition\IndicatorConditionBaseData.cpp

; 840  : 		if(pTarget->CopyDataWithVerificationFrom(pSource))

  0004d	0f b6 c9	 movzx	 ecx, cl
  00050	0f 45 c8	 cmovne	 ecx, eax
; File C:\Program Files (x86)\Microsoft Visual Studio\2019\Community\VC\Tools\MSVC\14.29.30133\include\list

; 198  :         return this->_Ptr == _Right._Ptr;

  00053	8b 45 fc	 mov	 eax, DWORD PTR _this$1$[ebp]
; File D:\git\src\IBK\IBK_DRFN\ProjSrc\SrcChartEx\ChartOCX\IndicatorCondition\IndicatorConditionBaseData.cpp

; 840  : 		if(pTarget->CopyDataWithVerificationFrom(pSource))

  00056	89 4d 08	 mov	 DWORD PTR tv406[ebp], ecx
; File C:\Program Files (x86)\Microsoft Visual Studio\2019\Community\VC\Tools\MSVC\14.29.30133\include\list

; 198  :         return this->_Ptr == _Right._Ptr;

  00059	3b 78 2c	 cmp	 edi, DWORD PTR [eax+44]
; File D:\git\src\IBK\IBK_DRFN\ProjSrc\SrcChartEx\ChartOCX\IndicatorCondition\IndicatorConditionBaseData.cpp

; 834  : 		t_i != m_subGraphPartDataList.end() && s_i != pSubGraphPartDataList->end(); 

  0005c	75 d2		 jne	 SHORT $LL34@SetAllSubG
$LN65@SetAllSubG:

; 841  : 			bResult = true;
; 842  : 	}
; 843  : 
; 844  : 	return bResult;

  0005e	5f		 pop	 edi
  0005f	5e		 pop	 esi
  00060	8a c1		 mov	 al, cl
  00062	5b		 pop	 ebx

; 845  : }

  00063	8b e5		 mov	 esp, ebp
  00065	5d		 pop	 ebp
  00066	c2 04 00	 ret	 4
$LN6@SetAllSubG:

; 828  : 		return false;

  00069	32 c0		 xor	 al, al
  0006b	5b		 pop	 ebx

; 845  : }

  0006c	8b e5		 mov	 esp, ebp
  0006e	5d		 pop	 ebp
  0006f	c2 04 00	 ret	 4
?SetAllSubGraphPartDataList@CGraphPartData@@QAE_NPBV?$list@PAVCSubGraphPartData@@V?$allocator@PAVCSubGraphPartData@@@std@@@std@@@Z ENDP ; CGraphPartData::SetAllSubGraphPartDataList
_TEXT	ENDS
; Function compile flags: /Ogtp
; File D:\git\src\IBK\IBK_DRFN\ProjSrc\SrcChartEx\ChartOCX\IndicatorCondition\IndicatorConditionBaseData.cpp
; File D:\git\src\IBK\IBK_DRFN\ProjSrc\SrcChartEx\ChartOCX\Include_Chart\GraphData.h
; File D:\git\src\IBK\IBK_DRFN\ProjSrc\SrcChartEx\ChartOCX\IndicatorCondition\IndicatorConditionBaseData.cpp
; File D:\git\src\IBK\IBK_DRFN\ProjSrc\SrcChartEx\ChartOCX\Include_Chart\GraphData.h
; File C:\Program Files (x86)\Microsoft Visual Studio\2019\Community\VC\Tools\MSVC\14.29.30133\atlmfc\include\cstringt.h
; File D:\git\src\IBK\IBK_DRFN\ProjSrc\SrcChartEx\ChartOCX\IndicatorCondition\IndicatorConditionBaseData.cpp
; File C:\Program Files (x86)\Microsoft Visual Studio\2019\Community\VC\Tools\MSVC\14.29.30133\atlmfc\include\cstringt.h
; File D:\git\src\IBK\IBK_DRFN\ProjSrc\SrcChartEx\ChartOCX\IndicatorCondition\IndicatorConditionBaseData.cpp
; File C:\Program Files (x86)\Microsoft Visual Studio\2019\Community\VC\Tools\MSVC\14.29.30133\atlmfc\include\cstringt.h
; File D:\git\src\IBK\IBK_DRFN\ProjSrc\SrcChartEx\ChartOCX\IndicatorCondition\IndicatorConditionBaseData.cpp
;	COMDAT ?SetGraphData@CGraphPartData@@QAE_NABVCGraphData@@_N@Z
_TEXT	SEGMENT
__$EHRec$ = -12						; size = 12
$T2 = 8							; size = 4
_graphData$ = 8						; size = 4
$T3 = 12						; size = 4
_bIsAutoCheck$ = 12					; size = 1
?SetGraphData@CGraphPartData@@QAE_NABVCGraphData@@_N@Z PROC ; CGraphPartData::SetGraphData, COMDAT
; _this$ = ecx

; 813  : {

  00000	55		 push	 ebp
  00001	8b ec		 mov	 ebp, esp
  00003	6a ff		 push	 -1
  00005	68 00 00 00 00	 push	 __ehhandler$?SetGraphData@CGraphPartData@@QAE_NABVCGraphData@@_N@Z
  0000a	64 a1 00 00 00
	00		 mov	 eax, DWORD PTR fs:0
  00010	50		 push	 eax
  00011	53		 push	 ebx
  00012	56		 push	 esi
  00013	57		 push	 edi
  00014	a1 00 00 00 00	 mov	 eax, DWORD PTR ___security_cookie
  00019	33 c5		 xor	 eax, ebp
  0001b	50		 push	 eax
  0001c	8d 45 f4	 lea	 eax, DWORD PTR __$EHRec$[ebp]
  0001f	64 a3 00 00 00
	00		 mov	 DWORD PTR fs:0, eax
  00025	8b f9		 mov	 edi, ecx

; 814  : 	// .
; 815  : 	if(bIsAutoCheck)

  00027	80 7d 0c 00	 cmp	 BYTE PTR _bIsAutoCheck$[ebp], 0
  0002b	8b 5d 08	 mov	 ebx, DWORD PTR _graphData$[ebp]
  0002e	74 66		 je	 SHORT $LN3@SetGraphDa
; File D:\git\src\IBK\IBK_DRFN\ProjSrc\SrcChartEx\ChartOCX\Include_Chart\GraphData.h

; 229  : 	CString			GetIndicatorName( void) const							{	return m_strIndicatorName;					}

  00030	8d 43 1c	 lea	 eax, DWORD PTR [ebx+28]
  00033	50		 push	 eax
  00034	8d 4d 08	 lea	 ecx, DWORD PTR $T2[ebp]
  00037	ff 15 00 00 00
	00		 call	 DWORD PTR __imp_??0?$CStringT@DV?$StrTraitMFC_DLL@DV?$ChTraitsCRT@D@ATL@@@@@ATL@@QAE@ABV01@@Z
  0003d	8d 47 24	 lea	 eax, DWORD PTR [edi+36]
; File D:\git\src\IBK\IBK_DRFN\ProjSrc\SrcChartEx\ChartOCX\IndicatorCondition\IndicatorConditionBaseData.cpp

; 817  : 		if(m_graphData.GetIndicatorName() != graphData.GetIndicatorName())

  00040	c7 45 fc 00 00
	00 00		 mov	 DWORD PTR __$EHRec$[ebp+8], 0
; File D:\git\src\IBK\IBK_DRFN\ProjSrc\SrcChartEx\ChartOCX\Include_Chart\GraphData.h

; 229  : 	CString			GetIndicatorName( void) const							{	return m_strIndicatorName;					}

  00047	50		 push	 eax
  00048	8d 4d 0c	 lea	 ecx, DWORD PTR $T3[ebp]
  0004b	ff 15 00 00 00
	00		 call	 DWORD PTR __imp_??0?$CStringT@DV?$StrTraitMFC_DLL@DV?$ChTraitsCRT@D@ATL@@@@@ATL@@QAE@ABV01@@Z
; File C:\Program Files (x86)\Microsoft Visual Studio\2019\Community\VC\Tools\MSVC\14.29.30133\atlmfc\include\cstringt.h

; 2560 : 		return( str1.Compare( str2 ) != 0 );

  00051	ff 75 08	 push	 DWORD PTR $T2[ebp]
  00054	8d 4d 0c	 lea	 ecx, DWORD PTR $T3[ebp]
; File D:\git\src\IBK\IBK_DRFN\ProjSrc\SrcChartEx\ChartOCX\IndicatorCondition\IndicatorConditionBaseData.cpp

; 817  : 		if(m_graphData.GetIndicatorName() != graphData.GetIndicatorName())

  00057	c6 45 fc 01	 mov	 BYTE PTR __$EHRec$[ebp+8], 1
; File C:\Program Files (x86)\Microsoft Visual Studio\2019\Community\VC\Tools\MSVC\14.29.30133\atlmfc\include\cstringt.h

; 2560 : 		return( str1.Compare( str2 ) != 0 );

  0005b	ff 15 00 00 00
	00		 call	 DWORD PTR __imp_?Compare@?$CStringT@DV?$StrTraitMFC_DLL@DV?$ChTraitsCRT@D@ATL@@@@@ATL@@QBEHPBD@Z
; File D:\git\src\IBK\IBK_DRFN\ProjSrc\SrcChartEx\ChartOCX\IndicatorCondition\IndicatorConditionBaseData.cpp

; 817  : 		if(m_graphData.GetIndicatorName() != graphData.GetIndicatorName())

  00061	8d 4d 0c	 lea	 ecx, DWORD PTR $T3[ebp]
; File C:\Program Files (x86)\Microsoft Visual Studio\2019\Community\VC\Tools\MSVC\14.29.30133\atlmfc\include\cstringt.h

; 2560 : 		return( str1.Compare( str2 ) != 0 );

  00064	8b f0		 mov	 esi, eax
; File D:\git\src\IBK\IBK_DRFN\ProjSrc\SrcChartEx\ChartOCX\IndicatorCondition\IndicatorConditionBaseData.cpp

; 817  : 		if(m_graphData.GetIndicatorName() != graphData.GetIndicatorName())

  00066	ff 15 00 00 00
	00		 call	 DWORD PTR __imp_??1?$CStringT@DV?$StrTraitMFC_DLL@DV?$ChTraitsCRT@D@ATL@@@@@ATL@@QAE@XZ
  0006c	8d 4d 08	 lea	 ecx, DWORD PTR $T2[ebp]
  0006f	c7 45 fc ff ff
	ff ff		 mov	 DWORD PTR __$EHRec$[ebp+8], -1
  00076	ff 15 00 00 00
	00		 call	 DWORD PTR __imp_??1?$CStringT@DV?$StrTraitMFC_DLL@DV?$ChTraitsCRT@D@ATL@@@@@ATL@@QAE@XZ
  0007c	85 f6		 test	 esi, esi
  0007e	74 16		 je	 SHORT $LN3@SetGraphDa

; 818  : 			return false;

  00080	32 c0		 xor	 al, al

; 823  : }

  00082	8b 4d f4	 mov	 ecx, DWORD PTR __$EHRec$[ebp]
  00085	64 89 0d 00 00
	00 00		 mov	 DWORD PTR fs:0, ecx
  0008c	59		 pop	 ecx
  0008d	5f		 pop	 edi
  0008e	5e		 pop	 esi
  0008f	5b		 pop	 ebx
  00090	8b e5		 mov	 esp, ebp
  00092	5d		 pop	 ebp
  00093	c2 08 00	 ret	 8
$LN3@SetGraphDa:

; 819  : 	}
; 820  : 
; 821  : 	m_graphData = graphData;

  00096	53		 push	 ebx
  00097	8d 4f 08	 lea	 ecx, DWORD PTR [edi+8]
  0009a	e8 00 00 00 00	 call	 ??4CGraphData@@QAEAAV0@ABV0@@Z ; CGraphData::operator=

; 822  : 	return true;

  0009f	b0 01		 mov	 al, 1

; 823  : }

  000a1	8b 4d f4	 mov	 ecx, DWORD PTR __$EHRec$[ebp]
  000a4	64 89 0d 00 00
	00 00		 mov	 DWORD PTR fs:0, ecx
  000ab	59		 pop	 ecx
  000ac	5f		 pop	 edi
  000ad	5e		 pop	 esi
  000ae	5b		 pop	 ebx
  000af	8b e5		 mov	 esp, ebp
  000b1	5d		 pop	 ebp
  000b2	c2 08 00	 ret	 8
_TEXT	ENDS
;	COMDAT text$x
text$x	SEGMENT
__unwindfunclet$?SetGraphData@CGraphPartData@@QAE_NABVCGraphData@@_N@Z$0:
  00000	8d 4d 08	 lea	 ecx, DWORD PTR $T2[ebp]
  00003	ff 25 00 00 00
	00		 jmp	 DWORD PTR __imp_??1?$CStringT@DV?$StrTraitMFC_DLL@DV?$ChTraitsCRT@D@ATL@@@@@ATL@@QAE@XZ
__unwindfunclet$?SetGraphData@CGraphPartData@@QAE_NABVCGraphData@@_N@Z$1:
  00009	8d 4d 0c	 lea	 ecx, DWORD PTR $T3[ebp]
  0000c	ff 25 00 00 00
	00		 jmp	 DWORD PTR __imp_??1?$CStringT@DV?$StrTraitMFC_DLL@DV?$ChTraitsCRT@D@ATL@@@@@ATL@@QAE@XZ
  00012	cc		 int	 3
  00013	cc		 int	 3
  00014	cc		 int	 3
  00015	cc		 int	 3
  00016	cc		 int	 3
__ehhandler$?SetGraphData@CGraphPartData@@QAE_NABVCGraphData@@_N@Z:
  00017	90		 npad	 1
  00018	90		 npad	 1
  00019	8b 54 24 08	 mov	 edx, DWORD PTR [esp+8]
  0001d	8d 42 0c	 lea	 eax, DWORD PTR [edx+12]
  00020	8b 4a f0	 mov	 ecx, DWORD PTR [edx-16]
  00023	33 c8		 xor	 ecx, eax
  00025	e8 00 00 00 00	 call	 @__security_check_cookie@4
  0002a	b8 00 00 00 00	 mov	 eax, OFFSET __ehfuncinfo$?SetGraphData@CGraphPartData@@QAE_NABVCGraphData@@_N@Z
  0002f	e9 00 00 00 00	 jmp	 ___CxxFrameHandler3
text$x	ENDS
?SetGraphData@CGraphPartData@@QAE_NABVCGraphData@@_N@Z ENDP ; CGraphPartData::SetGraphData
; Function compile flags: /Ogtp
; File D:\git\src\IBK\IBK_DRFN\ProjSrc\SrcChartEx\ChartOCX\IndicatorCondition\IndicatorConditionBaseData.cpp
; File C:\Program Files (x86)\Microsoft Visual Studio\2019\Community\VC\Tools\MSVC\14.29.30133\include\list
; File D:\git\src\IBK\IBK_DRFN\ProjSrc\SrcChartEx\ChartOCX\IndicatorCondition\IndicatorConditionBaseData.cpp
; File C:\Program Files (x86)\Microsoft Visual Studio\2019\Community\VC\Tools\MSVC\14.29.30133\include\list
; File D:\git\src\IBK\IBK_DRFN\ProjSrc\SrcChartEx\ChartOCX\IndicatorCondition\IndicatorConditionBaseData.cpp
;	COMDAT ?CopyDataWithVerificationFrom@CGraphPartData@@QAEXABV1@@Z
_TEXT	SEGMENT
$T2 = -32						; size = 12
_pSource$1$ = -20					; size = 4
_pSourceData$1$ = -16					; size = 4
__$EHRec$ = -12						; size = 12
$T3 = 8							; size = 4
_sourceData$ = 8					; size = 4
?CopyDataWithVerificationFrom@CGraphPartData@@QAEXABV1@@Z PROC ; CGraphPartData::CopyDataWithVerificationFrom, COMDAT
; _this$ = ecx

; 807  : {

  00000	55		 push	 ebp
  00001	8b ec		 mov	 ebp, esp
  00003	6a ff		 push	 -1
  00005	68 00 00 00 00	 push	 __ehhandler$?CopyDataWithVerificationFrom@CGraphPartData@@QAEXABV1@@Z
  0000a	64 a1 00 00 00
	00		 mov	 eax, DWORD PTR fs:0
  00010	50		 push	 eax
  00011	83 ec 14	 sub	 esp, 20			; 00000014H
  00014	53		 push	 ebx
  00015	56		 push	 esi
  00016	57		 push	 edi
  00017	a1 00 00 00 00	 mov	 eax, DWORD PTR ___security_cookie
  0001c	33 c5		 xor	 eax, ebp
  0001e	50		 push	 eax
  0001f	8d 45 f4	 lea	 eax, DWORD PTR __$EHRec$[ebp]
  00022	64 a3 00 00 00
	00		 mov	 DWORD PTR fs:0, eax
  00028	8b f9		 mov	 edi, ecx

; 808  : 	SetGraphDataInVerifiable(sourceData.GetGraphData());

  0002a	8b 5d 08	 mov	 ebx, DWORD PTR _sourceData$[ebp]

; 995  : 	if(m_graphData.IsSignalUse()) m_graphData.SetSignalData( true, sourceData.IsSignalShow());

  0002d	8d 4f 08	 lea	 ecx, DWORD PTR [edi+8]
  00030	e8 00 00 00 00	 call	 ?IsSignalUse@CGraphData@@QBE_NXZ ; CGraphData::IsSignalUse
  00035	84 c0		 test	 al, al
  00037	74 16		 je	 SHORT $LN4@CopyDataWi
  00039	8d 4b 08	 lea	 ecx, DWORD PTR [ebx+8]
  0003c	e8 00 00 00 00	 call	 ?IsSignalShow@CGraphData@@QBE_NXZ ; CGraphData::IsSignalShow
  00041	0f b6 c0	 movzx	 eax, al
  00044	8d 4f 08	 lea	 ecx, DWORD PTR [edi+8]
  00047	50		 push	 eax
  00048	6a 01		 push	 1
  0004a	e8 00 00 00 00	 call	 ?SetSignalData@CGraphData@@QAEX_N0@Z ; CGraphData::SetSignalData
$LN4@CopyDataWi:

; 996  : 
; 997  : 	m_graphData.SetGraphDataDrawingData( sourceData.GetGraphDataDrawingData());

  0004f	8d 45 e0	 lea	 eax, DWORD PTR $T2[ebp]
  00052	50		 push	 eax
  00053	8d 4b 08	 lea	 ecx, DWORD PTR [ebx+8]
  00056	e8 00 00 00 00	 call	 ?GetGraphDataDrawingData@CGraphData@@QBE?AVCGraphDataDrawingData@@XZ ; CGraphData::GetGraphDataDrawingData
  0005b	50		 push	 eax
  0005c	8d 4f 08	 lea	 ecx, DWORD PTR [edi+8]
  0005f	e8 00 00 00 00	 call	 ?SetGraphDataDrawingData@CGraphData@@QAEXABVCGraphDataDrawingData@@@Z ; CGraphData::SetGraphDataDrawingData

; 809  : 	SetSubGraphPartDataListInVerifiable(sourceData.GetSubGraphPartDataList());

  00064	8b c3		 mov	 eax, ebx
  00066	83 c0 2c	 add	 eax, 44			; 0000002cH
  00069	89 45 f0	 mov	 DWORD PTR _pSourceData$1$[ebp], eax

; 1007 : 	if(pSourceData == NULL) return;

  0006c	74 56		 je	 SHORT $LN8@CopyDataWi
; File C:\Program Files (x86)\Microsoft Visual Studio\2019\Community\VC\Tools\MSVC\14.29.30133\include\list

; 1083 :         return iterator(_Mypair._Myval2._Myhead->_Next, _STD addressof(_Mypair._Myval2));

  0006e	8b 47 2c	 mov	 eax, DWORD PTR [edi+44]

; 38   :     _List_unchecked_const_iterator(_Nodeptr _Pnode, const _Mylist* _Plist) noexcept : _Ptr(_Pnode) {

  00071	8b 30		 mov	 esi, DWORD PTR [eax]
; File D:\git\src\IBK\IBK_DRFN\ProjSrc\SrcChartEx\ChartOCX\IndicatorCondition\IndicatorConditionBaseData.cpp

; 1011 : 	for(i = m_subGraphPartDataList.begin(); i != m_subGraphPartDataList.end(); ++i)

  00073	3b f0		 cmp	 esi, eax
  00075	74 4d		 je	 SHORT $LN8@CopyDataWi
$LL27@CopyDataWi:

; 1012 : 	{
; 1013 :         CSubGraphPartData* pTarget = *i;

  00077	8b 5e 08	 mov	 ebx, DWORD PTR [esi+8]

; 118  : 	return m_subGraphData.GetName();

  0007a	8d 45 08	 lea	 eax, DWORD PTR $T3[ebp]
  0007d	50		 push	 eax
  0007e	8d 4b 24	 lea	 ecx, DWORD PTR [ebx+36]
  00081	e8 00 00 00 00	 call	 ?GetName@CSubGraphDataBase@@QBE?AV?$CStringT@DV?$StrTraitMFC_DLL@DV?$ChTraitsCRT@D@ATL@@@@@ATL@@XZ ; CSubGraphDataBase::GetName

; 1015 : 		CSubGraphPartData* pSource = GetSubGraphPartData(pSourceData, pTarget->GetSubGraphName());

  00086	8d 45 08	 lea	 eax, DWORD PTR $T3[ebp]
  00089	c7 45 fc 00 00
	00 00		 mov	 DWORD PTR __$EHRec$[ebp+8], 0
  00090	50		 push	 eax
  00091	ff 75 f0	 push	 DWORD PTR _pSourceData$1$[ebp]
  00094	8b cf		 mov	 ecx, edi
  00096	e8 00 00 00 00	 call	 ?GetSubGraphPartData@CGraphPartData@@QBEPAVCSubGraphPartData@@PBV?$list@PAVCSubGraphPartData@@V?$allocator@PAVCSubGraphPartData@@@std@@@std@@ABV?$CStringT@DV?$StrTraitMFC_DLL@DV?$ChTraitsCRT@D@ATL@@@@@ATL@@@Z ; CGraphPartData::GetSubGraphPartData
  0009b	8d 4d 08	 lea	 ecx, DWORD PTR $T3[ebp]
  0009e	89 45 ec	 mov	 DWORD PTR _pSource$1$[ebp], eax
  000a1	c7 45 fc ff ff
	ff ff		 mov	 DWORD PTR __$EHRec$[ebp+8], -1
  000a8	ff 15 00 00 00
	00		 call	 DWORD PTR __imp_??1?$CStringT@DV?$StrTraitMFC_DLL@DV?$ChTraitsCRT@D@ATL@@@@@ATL@@QAE@XZ

; 1016 : 		if( pSource) pTarget->CopyDataWithVerificationFrom(pSource);

  000ae	8b 45 ec	 mov	 eax, DWORD PTR _pSource$1$[ebp]
  000b1	85 c0		 test	 eax, eax
  000b3	74 08		 je	 SHORT $LN7@CopyDataWi
  000b5	50		 push	 eax
  000b6	8b cb		 mov	 ecx, ebx
  000b8	e8 00 00 00 00	 call	 ?CopyDataWithVerificationFrom@CSubGraphPartData@@QAE_NPBV1@@Z ; CSubGraphPartData::CopyDataWithVerificationFrom
$LN7@CopyDataWi:
; File C:\Program Files (x86)\Microsoft Visual Studio\2019\Community\VC\Tools\MSVC\14.29.30133\include\list

; 165  :         this->_Ptr = this->_Ptr->_Next;

  000bd	8b 36		 mov	 esi, DWORD PTR [esi]

; 198  :         return this->_Ptr == _Right._Ptr;

  000bf	3b 77 2c	 cmp	 esi, DWORD PTR [edi+44]
; File D:\git\src\IBK\IBK_DRFN\ProjSrc\SrcChartEx\ChartOCX\IndicatorCondition\IndicatorConditionBaseData.cpp

; 1011 : 	for(i = m_subGraphPartDataList.begin(); i != m_subGraphPartDataList.end(); ++i)

  000c2	75 b3		 jne	 SHORT $LL27@CopyDataWi
$LN8@CopyDataWi:

; 810  : }

  000c4	8b 4d f4	 mov	 ecx, DWORD PTR __$EHRec$[ebp]
  000c7	64 89 0d 00 00
	00 00		 mov	 DWORD PTR fs:0, ecx
  000ce	59		 pop	 ecx
  000cf	5f		 pop	 edi
  000d0	5e		 pop	 esi
  000d1	5b		 pop	 ebx
  000d2	8b e5		 mov	 esp, ebp
  000d4	5d		 pop	 ebp
  000d5	c2 04 00	 ret	 4
_TEXT	ENDS
;	COMDAT text$x
text$x	SEGMENT
__unwindfunclet$?CopyDataWithVerificationFrom@CGraphPartData@@QAEXABV1@@Z$0:
  00000	8d 4d 08	 lea	 ecx, DWORD PTR $T3[ebp]
  00003	ff 25 00 00 00
	00		 jmp	 DWORD PTR __imp_??1?$CStringT@DV?$StrTraitMFC_DLL@DV?$ChTraitsCRT@D@ATL@@@@@ATL@@QAE@XZ
  00009	cc		 int	 3
  0000a	cc		 int	 3
  0000b	cc		 int	 3
  0000c	cc		 int	 3
  0000d	cc		 int	 3
__ehhandler$?CopyDataWithVerificationFrom@CGraphPartData@@QAEXABV1@@Z:
  0000e	90		 npad	 1
  0000f	90		 npad	 1
  00010	8b 54 24 08	 mov	 edx, DWORD PTR [esp+8]
  00014	8d 42 0c	 lea	 eax, DWORD PTR [edx+12]
  00017	8b 4a dc	 mov	 ecx, DWORD PTR [edx-36]
  0001a	33 c8		 xor	 ecx, eax
  0001c	e8 00 00 00 00	 call	 @__security_check_cookie@4
  00021	b8 00 00 00 00	 mov	 eax, OFFSET __ehfuncinfo$?CopyDataWithVerificationFrom@CGraphPartData@@QAEXABV1@@Z
  00026	e9 00 00 00 00	 jmp	 ___CxxFrameHandler3
text$x	ENDS
?CopyDataWithVerificationFrom@CGraphPartData@@QAEXABV1@@Z ENDP ; CGraphPartData::CopyDataWithVerificationFrom
; Function compile flags: /Ogtp
; File D:\git\src\IBK\IBK_DRFN\ProjSrc\SrcChartEx\ChartOCX\IndicatorCondition\IndicatorConditionBaseData.cpp
;	COMDAT ?SetGroupName@CGraphPartData@@QAEXABV?$CStringT@DV?$StrTraitMFC_DLL@DV?$ChTraitsCRT@D@ATL@@@@@ATL@@@Z
_TEXT	SEGMENT
_strGroupName$ = 8					; size = 4
?SetGroupName@CGraphPartData@@QAEXABV?$CStringT@DV?$StrTraitMFC_DLL@DV?$ChTraitsCRT@D@ATL@@@@@ATL@@@Z PROC ; CGraphPartData::SetGroupName, COMDAT
; _this$ = ecx

; 799  : {

  00000	55		 push	 ebp
  00001	8b ec		 mov	 ebp, esp

; 800  : 	m_strGroupName = strGroupName;

  00003	83 c1 04	 add	 ecx, 4

; 801  : }

  00006	5d		 pop	 ebp

; 800  : 	m_strGroupName = strGroupName;

  00007	ff 25 00 00 00
	00		 jmp	 DWORD PTR __imp_??4?$CStringT@DV?$StrTraitMFC_DLL@DV?$ChTraitsCRT@D@ATL@@@@@ATL@@QAEAAV01@ABV01@@Z
?SetGroupName@CGraphPartData@@QAEXABV?$CStringT@DV?$StrTraitMFC_DLL@DV?$ChTraitsCRT@D@ATL@@@@@ATL@@@Z ENDP ; CGraphPartData::SetGroupName
_TEXT	ENDS
; Function compile flags: /Ogtp
; File D:\git\src\IBK\IBK_DRFN\ProjSrc\SrcChartEx\ChartOCX\IndicatorCondition\IndicatorConditionBaseData.cpp
; File D:\git\src\IBK\IBK_DRFN\ProjSrc\SrcChartEx\ChartOCX\Include_Chart\GraphData.h
; File C:\Program Files (x86)\Microsoft Visual Studio\2019\Community\VC\Tools\MSVC\14.29.30133\atlmfc\include\atlsimpstr.h
; File D:\git\src\IBK\IBK_DRFN\ProjSrc\SrcChartEx\ChartOCX\IndicatorCondition\IndicatorConditionBaseData.cpp
; File C:\Program Files (x86)\Microsoft Visual Studio\2019\Community\VC\Tools\MSVC\14.29.30133\atlmfc\include\atlsimpstr.h
; File D:\git\src\IBK\IBK_DRFN\ProjSrc\SrcChartEx\ChartOCX\IndicatorCondition\IndicatorConditionBaseData.cpp
;	COMDAT ?GetConditionTitle@CGraphPartData@@QBE?AW4TITLETYPE@CIndiBaseData@@XZ
_TEXT	SEGMENT
_strIndicatorName$ = -16				; size = 4
__$EHRec$ = -12						; size = 12
?GetConditionTitle@CGraphPartData@@QBE?AW4TITLETYPE@CIndiBaseData@@XZ PROC ; CGraphPartData::GetConditionTitle, COMDAT
; _this$ = ecx

; 784  : {

  00000	55		 push	 ebp
  00001	8b ec		 mov	 ebp, esp
  00003	6a ff		 push	 -1
  00005	68 00 00 00 00	 push	 __ehhandler$?GetConditionTitle@CGraphPartData@@QBE?AW4TITLETYPE@CIndiBaseData@@XZ
  0000a	64 a1 00 00 00
	00		 mov	 eax, DWORD PTR fs:0
  00010	50		 push	 eax
  00011	51		 push	 ecx
  00012	56		 push	 esi
  00013	a1 00 00 00 00	 mov	 eax, DWORD PTR ___security_cookie
  00018	33 c5		 xor	 eax, ebp
  0001a	50		 push	 eax
  0001b	8d 45 f4	 lea	 eax, DWORD PTR __$EHRec$[ebp]
  0001e	64 a3 00 00 00
	00		 mov	 DWORD PTR fs:0, eax
; File D:\git\src\IBK\IBK_DRFN\ProjSrc\SrcChartEx\ChartOCX\Include_Chart\GraphData.h

; 229  : 	CString			GetIndicatorName( void) const							{	return m_strIndicatorName;					}

  00024	8d 41 24	 lea	 eax, DWORD PTR [ecx+36]
  00027	50		 push	 eax
  00028	8d 4d f0	 lea	 ecx, DWORD PTR _strIndicatorName$[ebp]
  0002b	ff 15 00 00 00
	00		 call	 DWORD PTR __imp_??0?$CStringT@DV?$StrTraitMFC_DLL@DV?$ChTraitsCRT@D@ATL@@@@@ATL@@QAE@ABV01@@Z
; File C:\Program Files (x86)\Microsoft Visual Studio\2019\Community\VC\Tools\MSVC\14.29.30133\atlmfc\include\atlsimpstr.h

; 533  : 		return( GetLength() == 0 );

  00031	8b 45 f0	 mov	 eax, DWORD PTR _strIndicatorName$[ebp]
; File D:\git\src\IBK\IBK_DRFN\ProjSrc\SrcChartEx\ChartOCX\IndicatorCondition\IndicatorConditionBaseData.cpp

; 785  : 	CString strIndicatorName = m_graphData.GetIndicatorName();

  00034	c7 45 fc 00 00
	00 00		 mov	 DWORD PTR __$EHRec$[ebp+8], 0
; File C:\Program Files (x86)\Microsoft Visual Studio\2019\Community\VC\Tools\MSVC\14.29.30133\atlmfc\include\atlsimpstr.h

; 533  : 		return( GetLength() == 0 );

  0003b	83 78 f4 00	 cmp	 DWORD PTR [eax-12], 0
; File D:\git\src\IBK\IBK_DRFN\ProjSrc\SrcChartEx\ChartOCX\IndicatorCondition\IndicatorConditionBaseData.cpp

; 786  : 	if(strIndicatorName.IsEmpty())

  0003f	74 32		 je	 SHORT $LN5@GetConditi

; 787  : 		return CIndiBaseData::BASE_TITLE;
; 788  : 
; 789  : 	if( g_iMetaTable.IsTitleOnlyCondition(strIndicatorName))

  00041	8d 45 f0	 lea	 eax, DWORD PTR _strIndicatorName$[ebp]
  00044	b9 00 00 00 00	 mov	 ecx, OFFSET ?g_iMetaTable@@3VIMetaTable@@A ; g_iMetaTable
  00049	50		 push	 eax
  0004a	e8 00 00 00 00	 call	 ?IsTitleOnlyCondition@IMetaTable@@QAE_NABV?$CStringT@DV?$StrTraitMFC_DLL@DV?$ChTraitsCRT@D@ATL@@@@@ATL@@@Z ; IMetaTable::IsTitleOnlyCondition
  0004f	84 c0		 test	 al, al
  00051	74 07		 je	 SHORT $LN3@GetConditi

; 790  : 		return CIndiBaseData::COND_TITLE;

  00053	be 01 00 00 00	 mov	 esi, 1
  00058	eb 1b		 jmp	 SHORT $LN10@GetConditi
$LN3@GetConditi:

; 791  : 	else if( g_iMetaTable.IsTitleOrCondition(strIndicatorName))

  0005a	8d 45 f0	 lea	 eax, DWORD PTR _strIndicatorName$[ebp]
  0005d	b9 00 00 00 00	 mov	 ecx, OFFSET ?g_iMetaTable@@3VIMetaTable@@A ; g_iMetaTable
  00062	50		 push	 eax
  00063	e8 00 00 00 00	 call	 ?IsTitleOrCondition@IMetaTable@@QAE_NABV?$CStringT@DV?$StrTraitMFC_DLL@DV?$ChTraitsCRT@D@ATL@@@@@ATL@@@Z ; IMetaTable::IsTitleOrCondition
  00068	84 c0		 test	 al, al
  0006a	74 07		 je	 SHORT $LN5@GetConditi

; 792  : 		return CIndiBaseData::BASE_COND_TITLE;

  0006c	be 02 00 00 00	 mov	 esi, 2
  00071	eb 02		 jmp	 SHORT $LN10@GetConditi
$LN5@GetConditi:

; 793  : 
; 794  : 	return CIndiBaseData::BASE_TITLE;

  00073	33 f6		 xor	 esi, esi
$LN10@GetConditi:
  00075	8d 4d f0	 lea	 ecx, DWORD PTR _strIndicatorName$[ebp]
  00078	ff 15 00 00 00
	00		 call	 DWORD PTR __imp_??1?$CStringT@DV?$StrTraitMFC_DLL@DV?$ChTraitsCRT@D@ATL@@@@@ATL@@QAE@XZ
  0007e	8b c6		 mov	 eax, esi

; 795  : }

  00080	8b 4d f4	 mov	 ecx, DWORD PTR __$EHRec$[ebp]
  00083	64 89 0d 00 00
	00 00		 mov	 DWORD PTR fs:0, ecx
  0008a	59		 pop	 ecx
  0008b	5e		 pop	 esi
  0008c	8b e5		 mov	 esp, ebp
  0008e	5d		 pop	 ebp
  0008f	c3		 ret	 0
_TEXT	ENDS
;	COMDAT text$x
text$x	SEGMENT
__unwindfunclet$?GetConditionTitle@CGraphPartData@@QBE?AW4TITLETYPE@CIndiBaseData@@XZ$0:
  00000	8d 4d f0	 lea	 ecx, DWORD PTR _strIndicatorName$[ebp]
  00003	ff 25 00 00 00
	00		 jmp	 DWORD PTR __imp_??1?$CStringT@DV?$StrTraitMFC_DLL@DV?$ChTraitsCRT@D@ATL@@@@@ATL@@QAE@XZ
  00009	cc		 int	 3
  0000a	cc		 int	 3
  0000b	cc		 int	 3
  0000c	cc		 int	 3
  0000d	cc		 int	 3
__ehhandler$?GetConditionTitle@CGraphPartData@@QBE?AW4TITLETYPE@CIndiBaseData@@XZ:
  0000e	90		 npad	 1
  0000f	90		 npad	 1
  00010	8b 54 24 08	 mov	 edx, DWORD PTR [esp+8]
  00014	8d 42 0c	 lea	 eax, DWORD PTR [edx+12]
  00017	8b 4a f4	 mov	 ecx, DWORD PTR [edx-12]
  0001a	33 c8		 xor	 ecx, eax
  0001c	e8 00 00 00 00	 call	 @__security_check_cookie@4
  00021	b8 00 00 00 00	 mov	 eax, OFFSET __ehfuncinfo$?GetConditionTitle@CGraphPartData@@QBE?AW4TITLETYPE@CIndiBaseData@@XZ
  00026	e9 00 00 00 00	 jmp	 ___CxxFrameHandler3
text$x	ENDS
?GetConditionTitle@CGraphPartData@@QBE?AW4TITLETYPE@CIndiBaseData@@XZ ENDP ; CGraphPartData::GetConditionTitle
; Function compile flags: /Ogtp
; File D:\git\src\IBK\IBK_DRFN\ProjSrc\SrcChartEx\ChartOCX\IndicatorCondition\IndicatorConditionBaseData.cpp
; File C:\Program Files (x86)\Microsoft Visual Studio\2019\Community\VC\Tools\MSVC\14.29.30133\atlmfc\include\afxtempl.h
; File D:\git\src\IBK\IBK_DRFN\ProjSrc\SrcChartEx\ChartOCX\IndicatorCondition\IndicatorConditionBaseData.cpp
; File C:\Program Files (x86)\Microsoft Visual Studio\2019\Community\VC\Tools\MSVC\14.29.30133\atlmfc\include\afxtempl.h
; File C:\Program Files (x86)\Microsoft Visual Studio\2019\Community\VC\Tools\MSVC\14.29.30133\include\list
; File D:\git\src\IBK\IBK_DRFN\ProjSrc\SrcChartEx\ChartOCX\IndicatorCondition\IndicatorConditionBaseData.cpp
; File C:\Program Files (x86)\Microsoft Visual Studio\2019\Community\VC\Tools\MSVC\14.29.30133\include\list
; File D:\git\src\IBK\IBK_DRFN\ProjSrc\SrcChartEx\ChartOCX\IndicatorCondition\IndicatorConditionBaseData.cpp
;	COMDAT ?GetSubGraphColorList@CGraphPartData@@QBE_NAAV?$CList@PAVCGraphColor@@PAV1@@@@Z
_TEXT	SEGMENT
_subGraphColorList$ = 8					; size = 4
?GetSubGraphColorList@CGraphPartData@@QBE_NAAV?$CList@PAVCGraphColor@@PAV1@@@@Z PROC ; CGraphPartData::GetSubGraphColorList, COMDAT
; _this$ = ecx

; 769  : {

  00000	55		 push	 ebp
  00001	8b ec		 mov	 ebp, esp
  00003	53		 push	 ebx
  00004	56		 push	 esi
  00005	57		 push	 edi
; File C:\Program Files (x86)\Microsoft Visual Studio\2019\Community\VC\Tools\MSVC\14.29.30133\atlmfc\include\afxtempl.h

; 870  : 	m_nCount = 0;

  00006	8b 7d 08	 mov	 edi, DWORD PTR _subGraphColorList$[ebp]
; File D:\git\src\IBK\IBK_DRFN\ProjSrc\SrcChartEx\ChartOCX\IndicatorCondition\IndicatorConditionBaseData.cpp

; 769  : {

  00009	8b d9		 mov	 ebx, ecx
; File C:\Program Files (x86)\Microsoft Visual Studio\2019\Community\VC\Tools\MSVC\14.29.30133\atlmfc\include\afxtempl.h

; 872  : 	m_pBlocks->FreeDataChain();

  0000b	8b 4f 14	 mov	 ecx, DWORD PTR [edi+20]
  0000e	c7 47 0c 00 00
	00 00		 mov	 DWORD PTR [edi+12], 0
  00015	c7 47 10 00 00
	00 00		 mov	 DWORD PTR [edi+16], 0
  0001c	c7 47 08 00 00
	00 00		 mov	 DWORD PTR [edi+8], 0
  00023	c7 47 04 00 00
	00 00		 mov	 DWORD PTR [edi+4], 0
  0002a	e8 00 00 00 00	 call	 ?FreeDataChain@CPlex@@QAEXXZ ; CPlex::FreeDataChain

; 873  : 	m_pBlocks = NULL;

  0002f	c7 47 14 00 00
	00 00		 mov	 DWORD PTR [edi+20], 0
; File C:\Program Files (x86)\Microsoft Visual Studio\2019\Community\VC\Tools\MSVC\14.29.30133\include\list

; 1087 :         return const_iterator(_Mypair._Myval2._Myhead->_Next, _STD addressof(_Mypair._Myval2));

  00036	8b 43 2c	 mov	 eax, DWORD PTR [ebx+44]

; 38   :     _List_unchecked_const_iterator(_Nodeptr _Pnode, const _Mylist* _Plist) noexcept : _Ptr(_Pnode) {

  00039	8b 30		 mov	 esi, DWORD PTR [eax]
  0003b	3b f0		 cmp	 esi, eax
; File D:\git\src\IBK\IBK_DRFN\ProjSrc\SrcChartEx\ChartOCX\IndicatorCondition\IndicatorConditionBaseData.cpp

; 773  : 	for(i = m_subGraphPartDataList.begin(); i != m_subGraphPartDataList.end(); ++i)

  0003d	74 1b		 je	 SHORT $LN3@GetSubGrap
  0003f	90		 npad	 1
$LL22@GetSubGrap:

; 774  : 	{
; 775  :         CSubGraphPartData* pSubGraphPartData = *i;

  00040	8b 4e 08	 mov	 ecx, DWORD PTR [esi+8]

; 776  : 		assert(pSubGraphPartData != NULL);
; 777  : 		subGraphColorList.AddTail(pSubGraphPartData->GetSubGraphData().GetColor_PointerType());

  00043	8d 49 24	 lea	 ecx, DWORD PTR [ecx+36]
  00046	e8 00 00 00 00	 call	 ?GetColor_PointerType@CSubGraphDataBase@@QAEPAVCGraphColor@@XZ ; CSubGraphDataBase::GetColor_PointerType
  0004b	50		 push	 eax
  0004c	8b cf		 mov	 ecx, edi
  0004e	e8 00 00 00 00	 call	 ?AddTail@?$CList@PAVCGraphColor@@PAV1@@@QAEPAU__POSITION@@PAVCGraphColor@@@Z ; CList<CGraphColor *,CGraphColor *>::AddTail
; File C:\Program Files (x86)\Microsoft Visual Studio\2019\Community\VC\Tools\MSVC\14.29.30133\include\list

; 165  :         this->_Ptr = this->_Ptr->_Next;

  00053	8b 36		 mov	 esi, DWORD PTR [esi]

; 198  :         return this->_Ptr == _Right._Ptr;

  00055	3b 73 2c	 cmp	 esi, DWORD PTR [ebx+44]
; File D:\git\src\IBK\IBK_DRFN\ProjSrc\SrcChartEx\ChartOCX\IndicatorCondition\IndicatorConditionBaseData.cpp

; 773  : 	for(i = m_subGraphPartDataList.begin(); i != m_subGraphPartDataList.end(); ++i)

  00058	75 e6		 jne	 SHORT $LL22@GetSubGrap
$LN3@GetSubGrap:

; 778  : 	}
; 779  : 
; 780  : 	return (subGraphColorList.GetCount() > 0);

  0005a	83 7f 0c 00	 cmp	 DWORD PTR [edi+12], 0
  0005e	5f		 pop	 edi
  0005f	5e		 pop	 esi
  00060	0f 9f c0	 setg	 al
  00063	5b		 pop	 ebx

; 781  : }

  00064	5d		 pop	 ebp
  00065	c2 04 00	 ret	 4
?GetSubGraphColorList@CGraphPartData@@QBE_NAAV?$CList@PAVCGraphColor@@PAV1@@@@Z ENDP ; CGraphPartData::GetSubGraphColorList
_TEXT	ENDS
; Function compile flags: /Ogtp
; File D:\git\src\IBK\IBK_DRFN\ProjSrc\SrcChartEx\ChartOCX\IndicatorCondition\IndicatorConditionBaseData.cpp
; File C:\Program Files (x86)\Microsoft Visual Studio\2019\Community\VC\Tools\MSVC\14.29.30133\include\list
; File D:\git\src\IBK\IBK_DRFN\ProjSrc\SrcChartEx\ChartOCX\IndicatorCondition\IndicatorConditionBaseData.cpp
; File C:\Program Files (x86)\Microsoft Visual Studio\2019\Community\VC\Tools\MSVC\14.29.30133\include\list
; File D:\git\src\IBK\IBK_DRFN\ProjSrc\SrcChartEx\ChartOCX\IndicatorCondition\IndicatorConditionBaseData.cpp
;	COMDAT ?GetSubGraphTitleList@CGraphPartData@@QBE_NAAV?$CList@V?$CStringT@DV?$StrTraitMFC_DLL@DV?$ChTraitsCRT@D@ATL@@@@@ATL@@V12@@@@Z
_TEXT	SEGMENT
_subGraphTitleList$ = 8					; size = 4
?GetSubGraphTitleList@CGraphPartData@@QBE_NAAV?$CList@V?$CStringT@DV?$StrTraitMFC_DLL@DV?$ChTraitsCRT@D@ATL@@@@@ATL@@V12@@@@Z PROC ; CGraphPartData::GetSubGraphTitleList, COMDAT
; _this$ = ecx

; 754  : {

  00000	55		 push	 ebp
  00001	8b ec		 mov	 ebp, esp
  00003	53		 push	 ebx
  00004	56		 push	 esi
  00005	57		 push	 edi

; 755  : 	subGraphTitleList.RemoveAll();

  00006	8b 7d 08	 mov	 edi, DWORD PTR _subGraphTitleList$[ebp]
  00009	8b d9		 mov	 ebx, ecx
  0000b	8b cf		 mov	 ecx, edi
  0000d	e8 00 00 00 00	 call	 ?RemoveAll@?$CList@V?$CStringT@DV?$StrTraitMFC_DLL@DV?$ChTraitsCRT@D@ATL@@@@@ATL@@V12@@@QAEXXZ ; CList<ATL::CStringT<char,StrTraitMFC_DLL<char,ATL::ChTraitsCRT<char> > >,ATL::CStringT<char,StrTraitMFC_DLL<char,ATL::ChTraitsCRT<char> > > >::RemoveAll
; File C:\Program Files (x86)\Microsoft Visual Studio\2019\Community\VC\Tools\MSVC\14.29.30133\include\list

; 1087 :         return const_iterator(_Mypair._Myval2._Myhead->_Next, _STD addressof(_Mypair._Myval2));

  00012	8b 43 2c	 mov	 eax, DWORD PTR [ebx+44]

; 38   :     _List_unchecked_const_iterator(_Nodeptr _Pnode, const _Mylist* _Plist) noexcept : _Ptr(_Pnode) {

  00015	8b 30		 mov	 esi, DWORD PTR [eax]
  00017	3b f0		 cmp	 esi, eax
; File D:\git\src\IBK\IBK_DRFN\ProjSrc\SrcChartEx\ChartOCX\IndicatorCondition\IndicatorConditionBaseData.cpp

; 758  : 	for(i = m_subGraphPartDataList.begin(); i != m_subGraphPartDataList.end(); ++i)

  00019	74 20		 je	 SHORT $LN3@GetSubGrap
  0001b	0f 1f 44 00 00	 npad	 5
$LL18@GetSubGrap:

; 759  : 	{
; 760  :         CSubGraphPartData* pSubGraphPartData = *i;

  00020	8b 4e 08	 mov	 ecx, DWORD PTR [esi+8]

; 761  : 		assert(pSubGraphPartData != NULL);
; 762  : 		subGraphTitleList.AddTail(pSubGraphPartData->GetSubGraphData().GetTitle());

  00023	51		 push	 ecx
  00024	54		 push	 esp
  00025	83 c1 24	 add	 ecx, 36			; 00000024H
  00028	e8 00 00 00 00	 call	 ?GetTitle@CSubGraphDataBase@@QBE?AV?$CStringT@DV?$StrTraitMFC_DLL@DV?$ChTraitsCRT@D@ATL@@@@@ATL@@XZ ; CSubGraphDataBase::GetTitle
  0002d	8b cf		 mov	 ecx, edi
  0002f	e8 00 00 00 00	 call	 ?AddTail@?$CList@V?$CStringT@DV?$StrTraitMFC_DLL@DV?$ChTraitsCRT@D@ATL@@@@@ATL@@V12@@@QAEPAU__POSITION@@V?$CStringT@DV?$StrTraitMFC_DLL@DV?$ChTraitsCRT@D@ATL@@@@@ATL@@@Z ; CList<ATL::CStringT<char,StrTraitMFC_DLL<char,ATL::ChTraitsCRT<char> > >,ATL::CStringT<char,StrTraitMFC_DLL<char,ATL::ChTraitsCRT<char> > > >::AddTail
; File C:\Program Files (x86)\Microsoft Visual Studio\2019\Community\VC\Tools\MSVC\14.29.30133\include\list

; 165  :         this->_Ptr = this->_Ptr->_Next;

  00034	8b 36		 mov	 esi, DWORD PTR [esi]

; 198  :         return this->_Ptr == _Right._Ptr;

  00036	3b 73 2c	 cmp	 esi, DWORD PTR [ebx+44]
; File D:\git\src\IBK\IBK_DRFN\ProjSrc\SrcChartEx\ChartOCX\IndicatorCondition\IndicatorConditionBaseData.cpp

; 758  : 	for(i = m_subGraphPartDataList.begin(); i != m_subGraphPartDataList.end(); ++i)

  00039	75 e5		 jne	 SHORT $LL18@GetSubGrap
$LN3@GetSubGrap:

; 763  : 	}
; 764  : 	return (subGraphTitleList.GetCount() > 0);

  0003b	83 7f 0c 00	 cmp	 DWORD PTR [edi+12], 0

; 765  : }

  0003f	5f		 pop	 edi
  00040	5e		 pop	 esi
  00041	0f 9f c0	 setg	 al
  00044	5b		 pop	 ebx
  00045	5d		 pop	 ebp
  00046	c2 04 00	 ret	 4
?GetSubGraphTitleList@CGraphPartData@@QBE_NAAV?$CList@V?$CStringT@DV?$StrTraitMFC_DLL@DV?$ChTraitsCRT@D@ATL@@@@@ATL@@V12@@@@Z ENDP ; CGraphPartData::GetSubGraphTitleList
_TEXT	ENDS
; Function compile flags: /Ogtp
; File D:\git\src\IBK\IBK_DRFN\ProjSrc\SrcChartEx\ChartOCX\IndicatorCondition\IndicatorConditionBaseData.cpp
; File C:\Program Files (x86)\Microsoft Visual Studio\2019\Community\VC\Tools\MSVC\14.29.30133\include\list
; File D:\git\src\IBK\IBK_DRFN\ProjSrc\SrcChartEx\ChartOCX\IndicatorCondition\IndicatorConditionBaseData.cpp
; File C:\Program Files (x86)\Microsoft Visual Studio\2019\Community\VC\Tools\MSVC\14.29.30133\atlmfc\include\cstringt.h
; File D:\git\src\IBK\IBK_DRFN\ProjSrc\SrcChartEx\ChartOCX\IndicatorCondition\IndicatorConditionBaseData.cpp
; File C:\Program Files (x86)\Microsoft Visual Studio\2019\Community\VC\Tools\MSVC\14.29.30133\atlmfc\include\cstringt.h
; File C:\Program Files (x86)\Microsoft Visual Studio\2019\Community\VC\Tools\MSVC\14.29.30133\atlmfc\include\atlsimpstr.h
; File C:\Program Files (x86)\Microsoft Visual Studio\2019\Community\VC\Tools\MSVC\14.29.30133\atlmfc\include\cstringt.h
; File D:\git\src\IBK\IBK_DRFN\ProjSrc\SrcChartEx\ChartOCX\IndicatorCondition\IndicatorConditionBaseData.cpp
; File C:\Program Files (x86)\Microsoft Visual Studio\2019\Community\VC\Tools\MSVC\14.29.30133\include\list
; File D:\git\src\IBK\IBK_DRFN\ProjSrc\SrcChartEx\ChartOCX\IndicatorCondition\IndicatorConditionBaseData.cpp
; File C:\Program Files (x86)\Microsoft Visual Studio\2019\Community\VC\Tools\MSVC\14.29.30133\atlmfc\include\atlsimpstr.h
; File D:\git\src\IBK\IBK_DRFN\ProjSrc\SrcChartEx\ChartOCX\IndicatorCondition\IndicatorConditionBaseData.cpp
; File C:\Program Files (x86)\Microsoft Visual Studio\2019\Community\VC\Tools\MSVC\14.29.30133\atlmfc\include\atlsimpstr.h
; File D:\git\src\IBK\IBK_DRFN\ProjSrc\SrcChartEx\ChartOCX\IndicatorCondition\IndicatorConditionBaseData.cpp
;	COMDAT ?GetSubGraphNames@CGraphPartData@@QBEHAAV?$CStringT@DV?$StrTraitMFC_DLL@DV?$ChTraitsCRT@D@ATL@@@@@ATL@@@Z
_TEXT	SEGMENT
_this$1$ = -24						; size = 4
$T2 = -20						; size = 4
$T3 = -16						; size = 4
__$EHRec$ = -12						; size = 12
$T4 = 8							; size = 4
_p_strSubGraphNames$ = 8				; size = 4
?GetSubGraphNames@CGraphPartData@@QBEHAAV?$CStringT@DV?$StrTraitMFC_DLL@DV?$ChTraitsCRT@D@ATL@@@@@ATL@@@Z PROC ; CGraphPartData::GetSubGraphNames, COMDAT
; _this$ = ecx

; 739  : {

  00000	55		 push	 ebp
  00001	8b ec		 mov	 ebp, esp
  00003	6a ff		 push	 -1
  00005	68 00 00 00 00	 push	 __ehhandler$?GetSubGraphNames@CGraphPartData@@QBEHAAV?$CStringT@DV?$StrTraitMFC_DLL@DV?$ChTraitsCRT@D@ATL@@@@@ATL@@@Z
  0000a	64 a1 00 00 00
	00		 mov	 eax, DWORD PTR fs:0
  00010	50		 push	 eax
  00011	83 ec 0c	 sub	 esp, 12			; 0000000cH
  00014	53		 push	 ebx
  00015	56		 push	 esi
  00016	57		 push	 edi
  00017	a1 00 00 00 00	 mov	 eax, DWORD PTR ___security_cookie
  0001c	33 c5		 xor	 eax, ebp
  0001e	50		 push	 eax
  0001f	8d 45 f4	 lea	 eax, DWORD PTR __$EHRec$[ebp]
  00022	64 a3 00 00 00
	00		 mov	 DWORD PTR fs:0, eax
  00028	8b f1		 mov	 esi, ecx
  0002a	89 75 e8	 mov	 DWORD PTR _this$1$[ebp], esi
  0002d	33 ff		 xor	 edi, edi
  0002f	89 7d ec	 mov	 DWORD PTR $T2[ebp], edi

; 740  : 	p_strSubGraphNames.Empty();

  00032	8b 5d 08	 mov	 ebx, DWORD PTR _p_strSubGraphNames$[ebp]
  00035	8b cb		 mov	 ecx, ebx
  00037	ff 15 00 00 00
	00		 call	 DWORD PTR __imp_?Empty@?$CSimpleStringT@D$00@ATL@@QAEXXZ
; File C:\Program Files (x86)\Microsoft Visual Studio\2019\Community\VC\Tools\MSVC\14.29.30133\include\list

; 1087 :         return const_iterator(_Mypair._Myval2._Myhead->_Next, _STD addressof(_Mypair._Myval2));

  0003d	8b 46 2c	 mov	 eax, DWORD PTR [esi+44]

; 38   :     _List_unchecked_const_iterator(_Nodeptr _Pnode, const _Mylist* _Plist) noexcept : _Ptr(_Pnode) {

  00040	8b 30		 mov	 esi, DWORD PTR [eax]
; File D:\git\src\IBK\IBK_DRFN\ProjSrc\SrcChartEx\ChartOCX\IndicatorCondition\IndicatorConditionBaseData.cpp

; 743  : 	for(i = m_subGraphPartDataList.begin(); i != m_subGraphPartDataList.end(); ++i)

  00042	3b f0		 cmp	 esi, eax
  00044	74 7f		 je	 SHORT $LN3@GetSubGrap
$LL19@GetSubGrap:

; 744  : 	{
; 745  :         CSubGraphPartData* pSubGraphPartData = *i;

  00046	8b 4e 08	 mov	 ecx, DWORD PTR [esi+8]

; 118  : 	return m_subGraphData.GetName();

  00049	8d 45 f0	 lea	 eax, DWORD PTR $T3[ebp]
  0004c	50		 push	 eax
  0004d	83 c1 24	 add	 ecx, 36			; 00000024H
  00050	e8 00 00 00 00	 call	 ?GetName@CSubGraphDataBase@@QBE?AV?$CStringT@DV?$StrTraitMFC_DLL@DV?$ChTraitsCRT@D@ATL@@@@@ATL@@XZ ; CSubGraphDataBase::GetName
  00055	83 cf 01	 or	 edi, 1
; File C:\Program Files (x86)\Microsoft Visual Studio\2019\Community\VC\Tools\MSVC\14.29.30133\atlmfc\include\cstringt.h

; 2401 : 		CStringT strResult( str1.GetManager() );

  00058	8d 4d f0	 lea	 ecx, DWORD PTR $T3[ebp]
; File D:\git\src\IBK\IBK_DRFN\ProjSrc\SrcChartEx\ChartOCX\IndicatorCondition\IndicatorConditionBaseData.cpp

; 747  : 		p_strSubGraphNames += pSubGraphPartData->GetSubGraphName() + ",";

  0005b	c7 45 fc 01 00
	00 00		 mov	 DWORD PTR __$EHRec$[ebp+8], 1
; File C:\Program Files (x86)\Microsoft Visual Studio\2019\Community\VC\Tools\MSVC\14.29.30133\atlmfc\include\cstringt.h

; 2401 : 		CStringT strResult( str1.GetManager() );

  00062	ff 15 00 00 00
	00		 call	 DWORD PTR __imp_?GetManager@?$CStringT@DV?$StrTraitMFC_DLL@DV?$ChTraitsCRT@D@ATL@@@@@ATL@@QBEPAUIAtlStringMgr@2@XZ
  00068	50		 push	 eax
  00069	8d 4d 08	 lea	 ecx, DWORD PTR $T4[ebp]
  0006c	ff 15 00 00 00
	00		 call	 DWORD PTR __imp_??0?$CStringT@DV?$StrTraitMFC_DLL@DV?$ChTraitsCRT@D@ATL@@@@@ATL@@QAE@PAUIAtlStringMgr@1@@Z
; File C:\Program Files (x86)\Microsoft Visual Studio\2019\Community\VC\Tools\MSVC\14.29.30133\atlmfc\include\atlsimpstr.h

; 519  : 		return( GetData()->nDataLength );

  00072	8b 45 f0	 mov	 eax, DWORD PTR $T3[ebp]
; File C:\Program Files (x86)\Microsoft Visual Studio\2019\Community\VC\Tools\MSVC\14.29.30133\atlmfc\include\cstringt.h

; 2405 : 		return( strResult );

  00075	83 cf 02	 or	 edi, 2
  00078	6a 01		 push	 1
  0007a	68 00 00 00 00	 push	 OFFSET ??_C@_01IHBHIGKO@?0@
  0007f	89 7d ec	 mov	 DWORD PTR $T2[ebp], edi
  00082	ff 70 f4	 push	 DWORD PTR [eax-12]
  00085	50		 push	 eax
  00086	8d 45 08	 lea	 eax, DWORD PTR $T4[ebp]
  00089	50		 push	 eax
  0008a	ff 15 00 00 00
	00		 call	 DWORD PTR __imp_?Concatenate@?$CSimpleStringT@D$00@ATL@@KAXAAV12@PBDH1H@Z
  00090	83 c4 14	 add	 esp, 20			; 00000014H
; File D:\git\src\IBK\IBK_DRFN\ProjSrc\SrcChartEx\ChartOCX\IndicatorCondition\IndicatorConditionBaseData.cpp

; 747  : 		p_strSubGraphNames += pSubGraphPartData->GetSubGraphName() + ",";

  00093	8d 45 08	 lea	 eax, DWORD PTR $T4[ebp]
  00096	8b cb		 mov	 ecx, ebx
  00098	50		 push	 eax
  00099	ff 15 00 00 00
	00		 call	 DWORD PTR __imp_??Y?$CStringT@DV?$StrTraitMFC_DLL@DV?$ChTraitsCRT@D@ATL@@@@@ATL@@QAEAAV01@ABV?$CSimpleStringT@D$00@1@@Z
  0009f	8d 4d 08	 lea	 ecx, DWORD PTR $T4[ebp]
  000a2	83 e7 fd	 and	 edi, -3			; fffffffdH
  000a5	ff 15 00 00 00
	00		 call	 DWORD PTR __imp_??1?$CStringT@DV?$StrTraitMFC_DLL@DV?$ChTraitsCRT@D@ATL@@@@@ATL@@QAE@XZ
  000ab	8d 4d f0	 lea	 ecx, DWORD PTR $T3[ebp]
  000ae	c7 45 fc ff ff
	ff ff		 mov	 DWORD PTR __$EHRec$[ebp+8], -1
  000b5	ff 15 00 00 00
	00		 call	 DWORD PTR __imp_??1?$CStringT@DV?$StrTraitMFC_DLL@DV?$ChTraitsCRT@D@ATL@@@@@ATL@@QAE@XZ
; File C:\Program Files (x86)\Microsoft Visual Studio\2019\Community\VC\Tools\MSVC\14.29.30133\include\list

; 198  :         return this->_Ptr == _Right._Ptr;

  000bb	8b 45 e8	 mov	 eax, DWORD PTR _this$1$[ebp]

; 165  :         this->_Ptr = this->_Ptr->_Next;

  000be	8b 36		 mov	 esi, DWORD PTR [esi]

; 198  :         return this->_Ptr == _Right._Ptr;

  000c0	3b 70 2c	 cmp	 esi, DWORD PTR [eax+44]
; File D:\git\src\IBK\IBK_DRFN\ProjSrc\SrcChartEx\ChartOCX\IndicatorCondition\IndicatorConditionBaseData.cpp

; 743  : 	for(i = m_subGraphPartDataList.begin(); i != m_subGraphPartDataList.end(); ++i)

  000c3	75 81		 jne	 SHORT $LL19@GetSubGrap
$LN3@GetSubGrap:
; File C:\Program Files (x86)\Microsoft Visual Studio\2019\Community\VC\Tools\MSVC\14.29.30133\atlmfc\include\atlsimpstr.h

; 533  : 		return( GetLength() == 0 );

  000c5	8b 0b		 mov	 ecx, DWORD PTR [ebx]
; File D:\git\src\IBK\IBK_DRFN\ProjSrc\SrcChartEx\ChartOCX\IndicatorCondition\IndicatorConditionBaseData.cpp

; 749  : 	return !p_strSubGraphNames.IsEmpty();

  000c7	33 c0		 xor	 eax, eax
; File C:\Program Files (x86)\Microsoft Visual Studio\2019\Community\VC\Tools\MSVC\14.29.30133\atlmfc\include\atlsimpstr.h

; 533  : 		return( GetLength() == 0 );

  000c9	39 41 f4	 cmp	 DWORD PTR [ecx-12], eax
; File D:\git\src\IBK\IBK_DRFN\ProjSrc\SrcChartEx\ChartOCX\IndicatorCondition\IndicatorConditionBaseData.cpp

; 749  : 	return !p_strSubGraphNames.IsEmpty();

  000cc	0f 95 c0	 setne	 al

; 750  : }

  000cf	8b 4d f4	 mov	 ecx, DWORD PTR __$EHRec$[ebp]
  000d2	64 89 0d 00 00
	00 00		 mov	 DWORD PTR fs:0, ecx
  000d9	59		 pop	 ecx
  000da	5f		 pop	 edi
  000db	5e		 pop	 esi
  000dc	5b		 pop	 ebx
  000dd	8b e5		 mov	 esp, ebp
  000df	5d		 pop	 ebp
  000e0	c2 04 00	 ret	 4
_TEXT	ENDS
;	COMDAT text$x
text$x	SEGMENT
__unwindfunclet$?GetSubGraphNames@CGraphPartData@@QBEHAAV?$CStringT@DV?$StrTraitMFC_DLL@DV?$ChTraitsCRT@D@ATL@@@@@ATL@@@Z$0:
  00000	8d 4d f0	 lea	 ecx, DWORD PTR $T3[ebp]
  00003	ff 25 00 00 00
	00		 jmp	 DWORD PTR __imp_??1?$CStringT@DV?$StrTraitMFC_DLL@DV?$ChTraitsCRT@D@ATL@@@@@ATL@@QAE@XZ
__unwindfunclet$?GetSubGraphNames@CGraphPartData@@QBEHAAV?$CStringT@DV?$StrTraitMFC_DLL@DV?$ChTraitsCRT@D@ATL@@@@@ATL@@@Z$3:
  00009	8b 45 ec	 mov	 eax, DWORD PTR $T2[ebp]
  0000c	83 e0 02	 and	 eax, 2
  0000f	0f 84 0d 00 00
	00		 je	 $LN39@GetSubGrap
  00015	83 65 ec fd	 and	 DWORD PTR $T2[ebp], -3	; fffffffdH
  00019	8d 4d 08	 lea	 ecx, DWORD PTR $T4[ebp]
  0001c	ff 25 00 00 00
	00		 jmp	 DWORD PTR __imp_??1?$CStringT@DV?$StrTraitMFC_DLL@DV?$ChTraitsCRT@D@ATL@@@@@ATL@@QAE@XZ
$LN39@GetSubGrap:
  00022	c3		 ret	 0
  00023	cc		 int	 3
  00024	cc		 int	 3
  00025	cc		 int	 3
  00026	cc		 int	 3
  00027	cc		 int	 3
__ehhandler$?GetSubGraphNames@CGraphPartData@@QBEHAAV?$CStringT@DV?$StrTraitMFC_DLL@DV?$ChTraitsCRT@D@ATL@@@@@ATL@@@Z:
  00028	90		 npad	 1
  00029	90		 npad	 1
  0002a	8b 54 24 08	 mov	 edx, DWORD PTR [esp+8]
  0002e	8d 42 0c	 lea	 eax, DWORD PTR [edx+12]
  00031	8b 4a e4	 mov	 ecx, DWORD PTR [edx-28]
  00034	33 c8		 xor	 ecx, eax
  00036	e8 00 00 00 00	 call	 @__security_check_cookie@4
  0003b	b8 00 00 00 00	 mov	 eax, OFFSET __ehfuncinfo$?GetSubGraphNames@CGraphPartData@@QBEHAAV?$CStringT@DV?$StrTraitMFC_DLL@DV?$ChTraitsCRT@D@ATL@@@@@ATL@@@Z
  00040	e9 00 00 00 00	 jmp	 ___CxxFrameHandler3
text$x	ENDS
?GetSubGraphNames@CGraphPartData@@QBEHAAV?$CStringT@DV?$StrTraitMFC_DLL@DV?$ChTraitsCRT@D@ATL@@@@@ATL@@@Z ENDP ; CGraphPartData::GetSubGraphNames
; Function compile flags: /Ogtp
; File D:\git\src\IBK\IBK_DRFN\ProjSrc\SrcChartEx\ChartOCX\IndicatorCondition\IndicatorConditionBaseData.cpp
; File C:\Program Files (x86)\Microsoft Visual Studio\2019\Community\VC\Tools\MSVC\14.29.30133\include\list
; File D:\git\src\IBK\IBK_DRFN\ProjSrc\SrcChartEx\ChartOCX\IndicatorCondition\IndicatorConditionBaseData.cpp
; File C:\Program Files (x86)\Microsoft Visual Studio\2019\Community\VC\Tools\MSVC\14.29.30133\include\list
; File D:\git\src\IBK\IBK_DRFN\ProjSrc\SrcChartEx\ChartOCX\IndicatorCondition\IndicatorConditionBaseData.cpp
;	COMDAT ?GetSubGraphNameList@CGraphPartData@@QBE_NAAV?$CList@V?$CStringT@DV?$StrTraitMFC_DLL@DV?$ChTraitsCRT@D@ATL@@@@@ATL@@V12@@@@Z
_TEXT	SEGMENT
___$ReturnUdt$ = 8					; size = 4
_SubGraphNameList$ = 8					; size = 4
?GetSubGraphNameList@CGraphPartData@@QBE_NAAV?$CList@V?$CStringT@DV?$StrTraitMFC_DLL@DV?$ChTraitsCRT@D@ATL@@@@@ATL@@V12@@@@Z PROC ; CGraphPartData::GetSubGraphNameList, COMDAT
; _this$ = ecx

; 724  : {

  00000	55		 push	 ebp
  00001	8b ec		 mov	 ebp, esp
  00003	53		 push	 ebx
  00004	56		 push	 esi
  00005	57		 push	 edi

; 725  : 	SubGraphNameList.RemoveAll();

  00006	8b 7d 08	 mov	 edi, DWORD PTR _SubGraphNameList$[ebp]
  00009	8b d9		 mov	 ebx, ecx
  0000b	8b cf		 mov	 ecx, edi
  0000d	e8 00 00 00 00	 call	 ?RemoveAll@?$CList@V?$CStringT@DV?$StrTraitMFC_DLL@DV?$ChTraitsCRT@D@ATL@@@@@ATL@@V12@@@QAEXXZ ; CList<ATL::CStringT<char,StrTraitMFC_DLL<char,ATL::ChTraitsCRT<char> > >,ATL::CStringT<char,StrTraitMFC_DLL<char,ATL::ChTraitsCRT<char> > > >::RemoveAll
; File C:\Program Files (x86)\Microsoft Visual Studio\2019\Community\VC\Tools\MSVC\14.29.30133\include\list

; 1087 :         return const_iterator(_Mypair._Myval2._Myhead->_Next, _STD addressof(_Mypair._Myval2));

  00012	8b 43 2c	 mov	 eax, DWORD PTR [ebx+44]

; 38   :     _List_unchecked_const_iterator(_Nodeptr _Pnode, const _Mylist* _Plist) noexcept : _Ptr(_Pnode) {

  00015	8b 30		 mov	 esi, DWORD PTR [eax]
  00017	3b f0		 cmp	 esi, eax
; File D:\git\src\IBK\IBK_DRFN\ProjSrc\SrcChartEx\ChartOCX\IndicatorCondition\IndicatorConditionBaseData.cpp

; 728  : 	for(i = m_subGraphPartDataList.begin(); i != m_subGraphPartDataList.end(); ++i)

  00019	74 25		 je	 SHORT $LN3@GetSubGrap
  0001b	0f 1f 44 00 00	 npad	 5
$LL18@GetSubGrap:

; 729  : 	{
; 730  :         CSubGraphPartData* pSubGraphPartData = *i;

  00020	8b 4e 08	 mov	 ecx, DWORD PTR [esi+8]

; 731  : 		assert(pSubGraphPartData != NULL);
; 732  : 		SubGraphNameList.AddTail(pSubGraphPartData->GetSubGraphName());

  00023	51		 push	 ecx
  00024	8b c4		 mov	 eax, esp

; 118  : 	return m_subGraphData.GetName();

  00026	83 c1 24	 add	 ecx, 36			; 00000024H
  00029	50		 push	 eax

; 731  : 		assert(pSubGraphPartData != NULL);
; 732  : 		SubGraphNameList.AddTail(pSubGraphPartData->GetSubGraphName());

  0002a	89 45 08	 mov	 DWORD PTR ___$ReturnUdt$[ebp], eax

; 118  : 	return m_subGraphData.GetName();

  0002d	e8 00 00 00 00	 call	 ?GetName@CSubGraphDataBase@@QBE?AV?$CStringT@DV?$StrTraitMFC_DLL@DV?$ChTraitsCRT@D@ATL@@@@@ATL@@XZ ; CSubGraphDataBase::GetName

; 731  : 		assert(pSubGraphPartData != NULL);
; 732  : 		SubGraphNameList.AddTail(pSubGraphPartData->GetSubGraphName());

  00032	8b cf		 mov	 ecx, edi
  00034	e8 00 00 00 00	 call	 ?AddTail@?$CList@V?$CStringT@DV?$StrTraitMFC_DLL@DV?$ChTraitsCRT@D@ATL@@@@@ATL@@V12@@@QAEPAU__POSITION@@V?$CStringT@DV?$StrTraitMFC_DLL@DV?$ChTraitsCRT@D@ATL@@@@@ATL@@@Z ; CList<ATL::CStringT<char,StrTraitMFC_DLL<char,ATL::ChTraitsCRT<char> > >,ATL::CStringT<char,StrTraitMFC_DLL<char,ATL::ChTraitsCRT<char> > > >::AddTail
; File C:\Program Files (x86)\Microsoft Visual Studio\2019\Community\VC\Tools\MSVC\14.29.30133\include\list

; 165  :         this->_Ptr = this->_Ptr->_Next;

  00039	8b 36		 mov	 esi, DWORD PTR [esi]

; 198  :         return this->_Ptr == _Right._Ptr;

  0003b	3b 73 2c	 cmp	 esi, DWORD PTR [ebx+44]
; File D:\git\src\IBK\IBK_DRFN\ProjSrc\SrcChartEx\ChartOCX\IndicatorCondition\IndicatorConditionBaseData.cpp

; 728  : 	for(i = m_subGraphPartDataList.begin(); i != m_subGraphPartDataList.end(); ++i)

  0003e	75 e0		 jne	 SHORT $LL18@GetSubGrap
$LN3@GetSubGrap:

; 733  : 	}
; 734  : 	return (SubGraphNameList.GetCount() > 0);

  00040	83 7f 0c 00	 cmp	 DWORD PTR [edi+12], 0

; 735  : }

  00044	5f		 pop	 edi
  00045	5e		 pop	 esi
  00046	0f 9f c0	 setg	 al
  00049	5b		 pop	 ebx
  0004a	5d		 pop	 ebp
  0004b	c2 04 00	 ret	 4
?GetSubGraphNameList@CGraphPartData@@QBE_NAAV?$CList@V?$CStringT@DV?$StrTraitMFC_DLL@DV?$ChTraitsCRT@D@ATL@@@@@ATL@@V12@@@@Z ENDP ; CGraphPartData::GetSubGraphNameList
_TEXT	ENDS
; Function compile flags: /Ogtp
; File D:\git\src\IBK\IBK_DRFN\ProjSrc\SrcChartEx\ChartOCX\IndicatorCondition\IndicatorConditionBaseData.cpp
; File C:\Program Files (x86)\Microsoft Visual Studio\2019\Community\VC\Tools\MSVC\14.29.30133\include\list
; File D:\git\src\IBK\IBK_DRFN\ProjSrc\SrcChartEx\ChartOCX\IndicatorCondition\IndicatorConditionBaseData.cpp
; File C:\Program Files (x86)\Microsoft Visual Studio\2019\Community\VC\Tools\MSVC\14.29.30133\include\list
; File D:\git\src\IBK\IBK_DRFN\ProjSrc\SrcChartEx\ChartOCX\IndicatorCondition\IndicatorConditionBaseData.cpp
; File C:\Program Files (x86)\Microsoft Visual Studio\2019\Community\VC\Tools\MSVC\14.29.30133\atlmfc\include\afxcoll.inl
; File D:\git\src\IBK\IBK_DRFN\ProjSrc\SrcChartEx\ChartOCX\IndicatorCondition\IndicatorConditionBaseData.cpp
; File C:\Program Files (x86)\Microsoft Visual Studio\2019\Community\VC\Tools\MSVC\14.29.30133\atlmfc\include\afxcoll.inl
; File D:\git\src\IBK\IBK_DRFN\ProjSrc\SrcChartEx\ChartOCX\IndicatorCondition\IndicatorConditionBaseData.cpp
; File C:\Program Files (x86)\Microsoft Visual Studio\2019\Community\VC\Tools\MSVC\14.29.30133\atlmfc\include\afxtempl.h
; File D:\git\src\IBK\IBK_DRFN\ProjSrc\SrcChartEx\ChartOCX\IndicatorCondition\IndicatorConditionBaseData.cpp
; File C:\Program Files (x86)\Microsoft Visual Studio\2019\Community\VC\Tools\MSVC\14.29.30133\include\list
; File D:\git\src\IBK\IBK_DRFN\ProjSrc\SrcChartEx\ChartOCX\IndicatorCondition\IndicatorConditionBaseData.cpp
; File C:\Program Files (x86)\Microsoft Visual Studio\2019\Community\VC\Tools\MSVC\14.29.30133\include\list
; File D:\git\src\IBK\IBK_DRFN\ProjSrc\SrcChartEx\ChartOCX\IndicatorCondition\IndicatorConditionBaseData.cpp
; File C:\Program Files (x86)\Microsoft Visual Studio\2019\Community\VC\Tools\MSVC\14.29.30133\include\list
; File D:\git\src\IBK\IBK_DRFN\ProjSrc\SrcChartEx\ChartOCX\IndicatorCondition\IndicatorConditionBaseData.cpp
; File C:\Program Files (x86)\Microsoft Visual Studio\2019\Community\VC\Tools\MSVC\14.29.30133\atlmfc\include\afxcoll.inl
; File D:\git\src\IBK\IBK_DRFN\ProjSrc\SrcChartEx\ChartOCX\IndicatorCondition\IndicatorConditionBaseData.cpp
; File C:\Program Files (x86)\Microsoft Visual Studio\2019\Community\VC\Tools\MSVC\14.29.30133\atlmfc\include\atlsimpstr.h
; File D:\git\src\IBK\IBK_DRFN\ProjSrc\SrcChartEx\ChartOCX\IndicatorCondition\IndicatorConditionBaseData.cpp
; File C:\Program Files (x86)\Microsoft Visual Studio\2019\Community\VC\Tools\MSVC\14.29.30133\atlmfc\include\afxcoll.inl
; File D:\git\src\IBK\IBK_DRFN\ProjSrc\SrcChartEx\ChartOCX\IndicatorCondition\IndicatorConditionBaseData.cpp
;	COMDAT ?GetAllSubGraphDataForMaking@CGraphPartData@@QBEXAAV?$CStringT@DV?$StrTraitMFC_DLL@DV?$ChTraitsCRT@D@ATL@@@@@ATL@@H_N@Z
_TEXT	SEGMENT
_slSubGraphData$ = -76					; size = 28
_dCondition$1$ = -48					; size = 8
_this$1$ = -40						; size = 4
$T2 = -36						; size = 4
$T3 = -32						; size = 4
_nAllSubGraphDataLen$1$ = -28				; size = 4
_OldTitle$4 = -24					; size = 4
_strSubGraphData$1$ = -20				; size = 4
_strTitle$5 = -16					; size = 4
__$EHRec$ = -12						; size = 12
_p_strAllSubGraphData$ = 8				; size = 4
_nCondIndexForTitle$ = 12				; size = 4
_bIncludeOrgTitle$ = 16					; size = 1
?GetAllSubGraphDataForMaking@CGraphPartData@@QBEXAAV?$CStringT@DV?$StrTraitMFC_DLL@DV?$ChTraitsCRT@D@ATL@@@@@ATL@@H_N@Z PROC ; CGraphPartData::GetAllSubGraphDataForMaking, COMDAT
; _this$ = ecx

; 633  : {

  00000	55		 push	 ebp
  00001	8b ec		 mov	 ebp, esp
  00003	6a ff		 push	 -1
  00005	68 00 00 00 00	 push	 __ehhandler$?GetAllSubGraphDataForMaking@CGraphPartData@@QBEXAAV?$CStringT@DV?$StrTraitMFC_DLL@DV?$ChTraitsCRT@D@ATL@@@@@ATL@@H_N@Z
  0000a	64 a1 00 00 00
	00		 mov	 eax, DWORD PTR fs:0
  00010	50		 push	 eax
  00011	83 ec 40	 sub	 esp, 64			; 00000040H
  00014	53		 push	 ebx
  00015	56		 push	 esi
  00016	57		 push	 edi
  00017	a1 00 00 00 00	 mov	 eax, DWORD PTR ___security_cookie
  0001c	33 c5		 xor	 eax, ebp
  0001e	50		 push	 eax
  0001f	8d 45 f4	 lea	 eax, DWORD PTR __$EHRec$[ebp]
  00022	64 a3 00 00 00
	00		 mov	 DWORD PTR fs:0, eax
  00028	8b f1		 mov	 esi, ecx
  0002a	89 75 d8	 mov	 DWORD PTR _this$1$[ebp], esi

; 634  : 	p_strAllSubGraphData.Empty();

  0002d	8b 4d 08	 mov	 ecx, DWORD PTR _p_strAllSubGraphData$[ebp]
  00030	ff 15 00 00 00
	00		 call	 DWORD PTR __imp_?Empty@?$CSimpleStringT@D$00@ATL@@QAEXXZ

; 635  : 
; 636  : 	if( m_subGraphPartDataList.size() <= 0) return;

  00036	83 7e 30 00	 cmp	 DWORD PTR [esi+48], 0
  0003a	0f 86 b0 01 00
	00		 jbe	 $LN1@GetAllSubG

; 637  : 
; 638  : 	int nAllSubGraphDataLen = 0;

  00040	33 db		 xor	 ebx, ebx

; 639  : 	CStringList slSubGraphData;

  00042	8d 4d b4	 lea	 ecx, DWORD PTR _slSubGraphData$[ebp]
  00045	6a 0a		 push	 10			; 0000000aH
  00047	89 5d e4	 mov	 DWORD PTR _nAllSubGraphDataLen$1$[ebp], ebx
  0004a	e8 00 00 00 00	 call	 ??0CStringList@@QAE@H@Z	; CStringList::CStringList
; File C:\Program Files (x86)\Microsoft Visual Studio\2019\Community\VC\Tools\MSVC\14.29.30133\include\list

; 1087 :         return const_iterator(_Mypair._Myval2._Myhead->_Next, _STD addressof(_Mypair._Myval2));

  0004f	8b 46 2c	 mov	 eax, DWORD PTR [esi+44]
; File D:\git\src\IBK\IBK_DRFN\ProjSrc\SrcChartEx\ChartOCX\IndicatorCondition\IndicatorConditionBaseData.cpp

; 639  : 	CStringList slSubGraphData;

  00052	89 5d fc	 mov	 DWORD PTR __$EHRec$[ebp+8], ebx
; File C:\Program Files (x86)\Microsoft Visual Studio\2019\Community\VC\Tools\MSVC\14.29.30133\include\list

; 38   :     _List_unchecked_const_iterator(_Nodeptr _Pnode, const _Mylist* _Plist) noexcept : _Ptr(_Pnode) {

  00055	8b 30		 mov	 esi, DWORD PTR [eax]
; File D:\git\src\IBK\IBK_DRFN\ProjSrc\SrcChartEx\ChartOCX\IndicatorCondition\IndicatorConditionBaseData.cpp

; 641  : 	for(i = m_subGraphPartDataList.begin(); i != m_subGraphPartDataList.end(); ++i)

  00057	3b f0		 cmp	 esi, eax
  00059	0f 84 4a 01 00
	00		 je	 $LN3@GetAllSubG
  0005f	90		 npad	 1
$LL23@GetAllSubG:

; 642  : 	{
; 643  :         CSubGraphPartData* pSubGraphPartData = *i;

  00060	8b 7e 08	 mov	 edi, DWORD PTR [esi+8]

; 644  : 		assert(pSubGraphPartData != NULL);
; 645  : 
; 646  : 		slSubGraphData.AddTail( CString());

  00063	8d 4d e0	 lea	 ecx, DWORD PTR $T3[ebp]
  00066	ff 15 00 00 00
	00		 call	 DWORD PTR __imp_??0?$CStringT@DV?$StrTraitMFC_DLL@DV?$ChTraitsCRT@D@ATL@@@@@ATL@@QAE@XZ
  0006c	50		 push	 eax
  0006d	8d 4d b4	 lea	 ecx, DWORD PTR _slSubGraphData$[ebp]
  00070	c6 45 fc 01	 mov	 BYTE PTR __$EHRec$[ebp+8], 1
  00074	e8 00 00 00 00	 call	 ?AddTail@CStringList@@QAEPAU__POSITION@@ABV?$CStringT@DV?$StrTraitMFC_DLL@DV?$ChTraitsCRT@D@ATL@@@@@ATL@@@Z ; CStringList::AddTail
  00079	8d 4d e0	 lea	 ecx, DWORD PTR $T3[ebp]
  0007c	c6 45 fc 00	 mov	 BYTE PTR __$EHRec$[ebp+8], 0
  00080	ff 15 00 00 00
	00		 call	 DWORD PTR __imp_??1?$CStringT@DV?$StrTraitMFC_DLL@DV?$ChTraitsCRT@D@ATL@@@@@ATL@@QAE@XZ
; File C:\Program Files (x86)\Microsoft Visual Studio\2019\Community\VC\Tools\MSVC\14.29.30133\atlmfc\include\afxcoll.inl

; 492  : 		return m_pNodeTail->data; }

  00086	8b 45 bc	 mov	 eax, DWORD PTR _slSubGraphData$[ebp+8]
; File D:\git\src\IBK\IBK_DRFN\ProjSrc\SrcChartEx\ChartOCX\IndicatorCondition\IndicatorConditionBaseData.cpp

; 128  : 	GetSubGraphStringData( p_strSubGraphData, m_subGraphData, nCondIndexForTitle, bIncludeOrgTitle);

  00089	8d 5f 24	 lea	 ebx, DWORD PTR [edi+36]

; 90   : 	if(nIndex < 0)

  0008c	8b 55 0c	 mov	 edx, DWORD PTR _nCondIndexForTitle$[ebp]
; File C:\Program Files (x86)\Microsoft Visual Studio\2019\Community\VC\Tools\MSVC\14.29.30133\atlmfc\include\afxcoll.inl

; 492  : 		return m_pNodeTail->data; }

  0008f	83 c0 08	 add	 eax, 8
  00092	89 45 ec	 mov	 DWORD PTR _strSubGraphData$1$[ebp], eax
; File D:\git\src\IBK\IBK_DRFN\ProjSrc\SrcChartEx\ChartOCX\IndicatorCondition\IndicatorConditionBaseData.cpp

; 90   : 	if(nIndex < 0)

  00095	85 d2		 test	 edx, edx
  00097	0f 88 e8 00 00
	00		 js	 $LN89@GetAllSubG

; 91   : 		return false;
; 92   : 
; 93   : 	POSITION pos = m_calConditionList.FindIndex(nIndex);

  0009d	8b ca		 mov	 ecx, edx
; File C:\Program Files (x86)\Microsoft Visual Studio\2019\Community\VC\Tools\MSVC\14.29.30133\atlmfc\include\afxtempl.h

; 1133 : 	if (nIndex >= m_nCount || nIndex < 0)

  0009f	3b 57 14	 cmp	 edx, DWORD PTR [edi+20]
  000a2	0f 8d dd 00 00
	00		 jge	 $LN89@GetAllSubG

; 1134 : 		return NULL;  // went too far
; 1135 : 
; 1136 : 	CNode* pNode = m_pNodeHead;

  000a8	8b 47 0c	 mov	 eax, DWORD PTR [edi+12]

; 1137 : 	while (nIndex--)

  000ab	85 d2		 test	 edx, edx
  000ad	74 08		 je	 SHORT $LN77@GetAllSubG
  000af	90		 npad	 1
$LL53@GetAllSubG:

; 1138 : 	{
; 1139 : 		ASSERT(AfxIsValidAddress(pNode, sizeof(CNode)));
; 1140 : 		pNode = pNode->pNext;

  000b0	8b 00		 mov	 eax, DWORD PTR [eax]
  000b2	83 e9 01	 sub	 ecx, 1
  000b5	75 f9		 jne	 SHORT $LL53@GetAllSubG
$LN77@GetAllSubG:
; File D:\git\src\IBK\IBK_DRFN\ProjSrc\SrcChartEx\ChartOCX\IndicatorCondition\IndicatorConditionBaseData.cpp

; 94   : 	if(pos == NULL)

  000b7	85 c0		 test	 eax, eax
  000b9	0f 84 c3 00 00
	00		 je	 $LN91@GetAllSubG

; 95   : 		return false;
; 96   : 
; 97   : 	dData = m_calConditionList.GetAt(pos);

  000bf	f2 0f 10 40 08	 movsd	 xmm0, QWORD PTR [eax+8]

; 324  : 	CString strTitle;

  000c4	8d 4d f0	 lea	 ecx, DWORD PTR _strTitle$5[ebp]

; 97   : 	dData = m_calConditionList.GetAt(pos);

  000c7	f2 0f 11 45 d0	 movsd	 QWORD PTR _dCondition$1$[ebp], xmm0

; 324  : 	CString strTitle;

  000cc	ff 15 00 00 00
	00		 call	 DWORD PTR __imp_??0?$CStringT@DV?$StrTraitMFC_DLL@DV?$ChTraitsCRT@D@ATL@@@@@ATL@@QAE@XZ

; 325  : 	if( bIncludeOrgTitle)	strTitle.Format( "%s_%0.f", subGraphData.GetTitle(), dCondition);

  000d2	80 7d 10 00	 cmp	 BYTE PTR _bIncludeOrgTitle$[ebp], 0
  000d6	c6 45 fc 02	 mov	 BYTE PTR __$EHRec$[ebp+8], 2
  000da	74 3f		 je	 SHORT $LN42@GetAllSubG
  000dc	8d 45 dc	 lea	 eax, DWORD PTR $T2[ebp]
  000df	8b cb		 mov	 ecx, ebx
  000e1	50		 push	 eax
  000e2	e8 00 00 00 00	 call	 ?GetTitle@CSubGraphDataBase@@QBE?AV?$CStringT@DV?$StrTraitMFC_DLL@DV?$ChTraitsCRT@D@ATL@@@@@ATL@@XZ ; CSubGraphDataBase::GetTitle
  000e7	f2 0f 10 45 d0	 movsd	 xmm0, QWORD PTR _dCondition$1$[ebp]
  000ec	83 ec 08	 sub	 esp, 8
  000ef	c6 45 fc 03	 mov	 BYTE PTR __$EHRec$[ebp+8], 3
  000f3	f2 0f 11 04 24	 movsd	 QWORD PTR [esp], xmm0
  000f8	ff 30		 push	 DWORD PTR [eax]
  000fa	8d 45 f0	 lea	 eax, DWORD PTR _strTitle$5[ebp]
  000fd	68 00 00 00 00	 push	 OFFSET ??_C@_07PDGNMDCO@?$CFs_?$CF0?4f@
  00102	50		 push	 eax
  00103	ff 15 00 00 00
	00		 call	 DWORD PTR __imp_?Format@?$CStringT@DV?$StrTraitMFC_DLL@DV?$ChTraitsCRT@D@ATL@@@@@ATL@@QAAXPBDZZ
  00109	83 c4 14	 add	 esp, 20			; 00000014H
  0010c	c6 45 fc 02	 mov	 BYTE PTR __$EHRec$[ebp+8], 2
  00110	8d 4d dc	 lea	 ecx, DWORD PTR $T2[ebp]
  00113	ff 15 00 00 00
	00		 call	 DWORD PTR __imp_??1?$CStringT@DV?$StrTraitMFC_DLL@DV?$ChTraitsCRT@D@ATL@@@@@ATL@@QAE@XZ
  00119	eb 1f		 jmp	 SHORT $LN43@GetAllSubG
$LN42@GetAllSubG:

; 326  : 	else					strTitle.Format( "%0.f",	dCondition);

  0011b	f2 0f 10 45 d0	 movsd	 xmm0, QWORD PTR _dCondition$1$[ebp]
  00120	8d 45 f0	 lea	 eax, DWORD PTR _strTitle$5[ebp]
  00123	83 ec 08	 sub	 esp, 8
  00126	f2 0f 11 04 24	 movsd	 QWORD PTR [esp], xmm0
  0012b	68 00 00 00 00	 push	 OFFSET ??_C@_04MBKDPHPM@?$CF0?4f@
  00130	50		 push	 eax
  00131	ff 15 00 00 00
	00		 call	 DWORD PTR __imp_?Format@?$CStringT@DV?$StrTraitMFC_DLL@DV?$ChTraitsCRT@D@ATL@@@@@ATL@@QAAXPBDZZ
  00137	83 c4 10	 add	 esp, 16			; 00000010H
$LN43@GetAllSubG:

; 327  : 
; 328  : 	CString OldTitle = subGraphData.GetTitle();

  0013a	8d 45 e8	 lea	 eax, DWORD PTR _OldTitle$4[ebp]
  0013d	8b cb		 mov	 ecx, ebx
  0013f	50		 push	 eax
  00140	e8 00 00 00 00	 call	 ?GetTitle@CSubGraphDataBase@@QBE?AV?$CStringT@DV?$StrTraitMFC_DLL@DV?$ChTraitsCRT@D@ATL@@@@@ATL@@XZ ; CSubGraphDataBase::GetTitle

; 329  : 	subGraphData.SetTitle( strTitle);

  00145	8d 45 f0	 lea	 eax, DWORD PTR _strTitle$5[ebp]
  00148	c6 45 fc 04	 mov	 BYTE PTR __$EHRec$[ebp+8], 4
  0014c	50		 push	 eax
  0014d	8b cb		 mov	 ecx, ebx
  0014f	e8 00 00 00 00	 call	 ?SetTitle@CSubGraphDataBase@@QAEXABV?$CStringT@DV?$StrTraitMFC_DLL@DV?$ChTraitsCRT@D@ATL@@@@@ATL@@@Z ; CSubGraphDataBase::SetTitle

; 330  : 	subGraphData.GetStringData( p_SubGraphData);

  00154	8b 7d ec	 mov	 edi, DWORD PTR _strSubGraphData$1$[ebp]
  00157	8b cb		 mov	 ecx, ebx
  00159	57		 push	 edi
  0015a	e8 00 00 00 00	 call	 ?GetStringData@CSubGraphDataBase@@QBEXAAV?$CStringT@DV?$StrTraitMFC_DLL@DV?$ChTraitsCRT@D@ATL@@@@@ATL@@@Z ; CSubGraphDataBase::GetStringData

; 331  : 	subGraphData.SetTitle( OldTitle);

  0015f	8d 45 e8	 lea	 eax, DWORD PTR _OldTitle$4[ebp]
  00162	8b cb		 mov	 ecx, ebx
  00164	50		 push	 eax
  00165	e8 00 00 00 00	 call	 ?SetTitle@CSubGraphDataBase@@QAEXABV?$CStringT@DV?$StrTraitMFC_DLL@DV?$ChTraitsCRT@D@ATL@@@@@ATL@@@Z ; CSubGraphDataBase::SetTitle

; 332  : }

  0016a	8d 4d e8	 lea	 ecx, DWORD PTR _OldTitle$4[ebp]
  0016d	ff 15 00 00 00
	00		 call	 DWORD PTR __imp_??1?$CStringT@DV?$StrTraitMFC_DLL@DV?$ChTraitsCRT@D@ATL@@@@@ATL@@QAE@XZ
  00173	8d 4d f0	 lea	 ecx, DWORD PTR _strTitle$5[ebp]
  00176	c6 45 fc 00	 mov	 BYTE PTR __$EHRec$[ebp+8], 0
  0017a	ff 15 00 00 00
	00		 call	 DWORD PTR __imp_??1?$CStringT@DV?$StrTraitMFC_DLL@DV?$ChTraitsCRT@D@ATL@@@@@ATL@@QAE@XZ
  00180	eb 0e		 jmp	 SHORT $LN40@GetAllSubG
$LN91@GetAllSubG:

; 94   : 	if(pos == NULL)

  00182	8b 45 ec	 mov	 eax, DWORD PTR _strSubGraphData$1$[ebp]
$LN89@GetAllSubG:

; 320  : 		subGraphData.GetStringData( p_SubGraphData);

  00185	50		 push	 eax
  00186	8b cb		 mov	 ecx, ebx
  00188	e8 00 00 00 00	 call	 ?GetStringData@CSubGraphDataBase@@QBEXAAV?$CStringT@DV?$StrTraitMFC_DLL@DV?$ChTraitsCRT@D@ATL@@@@@ATL@@@Z ; CSubGraphDataBase::GetStringData
  0018d	8b 7d ec	 mov	 edi, DWORD PTR _strSubGraphData$1$[ebp]
$LN40@GetAllSubG:

; 649  : 		nAllSubGraphDataLen += strSubGraphData.GetLength();

  00190	8b 07		 mov	 eax, DWORD PTR [edi]
  00192	8b 5d e4	 mov	 ebx, DWORD PTR _nAllSubGraphDataLen$1$[ebp]
; File C:\Program Files (x86)\Microsoft Visual Studio\2019\Community\VC\Tools\MSVC\14.29.30133\include\list

; 165  :         this->_Ptr = this->_Ptr->_Next;

  00195	8b 36		 mov	 esi, DWORD PTR [esi]
; File D:\git\src\IBK\IBK_DRFN\ProjSrc\SrcChartEx\ChartOCX\IndicatorCondition\IndicatorConditionBaseData.cpp

; 649  : 		nAllSubGraphDataLen += strSubGraphData.GetLength();

  00197	03 58 f4	 add	 ebx, DWORD PTR [eax-12]
; File C:\Program Files (x86)\Microsoft Visual Studio\2019\Community\VC\Tools\MSVC\14.29.30133\include\list

; 198  :         return this->_Ptr == _Right._Ptr;

  0019a	8b 45 d8	 mov	 eax, DWORD PTR _this$1$[ebp]
; File D:\git\src\IBK\IBK_DRFN\ProjSrc\SrcChartEx\ChartOCX\IndicatorCondition\IndicatorConditionBaseData.cpp

; 649  : 		nAllSubGraphDataLen += strSubGraphData.GetLength();

  0019d	89 5d e4	 mov	 DWORD PTR _nAllSubGraphDataLen$1$[ebp], ebx
; File C:\Program Files (x86)\Microsoft Visual Studio\2019\Community\VC\Tools\MSVC\14.29.30133\include\list

; 198  :         return this->_Ptr == _Right._Ptr;

  001a0	3b 70 2c	 cmp	 esi, DWORD PTR [eax+44]
; File D:\git\src\IBK\IBK_DRFN\ProjSrc\SrcChartEx\ChartOCX\IndicatorCondition\IndicatorConditionBaseData.cpp

; 641  : 	for(i = m_subGraphPartDataList.begin(); i != m_subGraphPartDataList.end(); ++i)

  001a3	0f 85 b7 fe ff
	ff		 jne	 $LL23@GetAllSubG
$LN3@GetAllSubG:

; 650  : 	}
; 651  : 
; 652  : 	char *szAllSubGraphData = p_strAllSubGraphData.GetBufferSetLength( nAllSubGraphDataLen);

  001a9	8b 4d 08	 mov	 ecx, DWORD PTR _p_strAllSubGraphData$[ebp]
  001ac	53		 push	 ebx
  001ad	ff 15 00 00 00
	00		 call	 DWORD PTR __imp_?GetBufferSetLength@?$CSimpleStringT@D$00@ATL@@QAEPADH@Z

; 653  : 	POSITION psn = slSubGraphData.GetHeadPosition();

  001b3	8b 75 b8	 mov	 esi, DWORD PTR _slSubGraphData$[ebp+4]
  001b6	8b f8		 mov	 edi, eax
  001b8	85 f6		 test	 esi, esi

; 654  : 	while( psn)

  001ba	74 2c		 je	 SHORT $LN6@GetAllSubG
  001bc	0f 1f 40 00	 npad	 4
$LL5@GetAllSubG:
; File C:\Program Files (x86)\Microsoft Visual Studio\2019\Community\VC\Tools\MSVC\14.29.30133\atlmfc\include\afxcoll.inl

; 501  : 	{ CNode* pNode = (CNode*) rPosition;

  001c0	8b de		 mov	 ebx, esi

; 502  : 		ASSERT(AfxIsValidAddress(pNode, sizeof(CNode)));
; 503  : 		if( pNode == NULL )

  001c2	85 f6		 test	 esi, esi
  001c4	74 3e		 je	 SHORT $LN76@GetAllSubG

; 505  : 		rPosition = (POSITION) pNode->pNext;

  001c6	8b 36		 mov	 esi, DWORD PTR [esi]
; File D:\git\src\IBK\IBK_DRFN\ProjSrc\SrcChartEx\ChartOCX\IndicatorCondition\IndicatorConditionBaseData.cpp

; 657  : 		strcpy( szAllSubGraphData, strSubGraphData);

  001c8	8b d7		 mov	 edx, edi
; File C:\Program Files (x86)\Microsoft Visual Studio\2019\Community\VC\Tools\MSVC\14.29.30133\atlmfc\include\atlsimpstr.h

; 377  : 		return( m_pszData );

  001ca	8b 4b 08	 mov	 ecx, DWORD PTR [ebx+8]
  001cd	0f 1f 00	 npad	 3
$LL9@GetAllSubG:
; File D:\git\src\IBK\IBK_DRFN\ProjSrc\SrcChartEx\ChartOCX\IndicatorCondition\IndicatorConditionBaseData.cpp

; 657  : 		strcpy( szAllSubGraphData, strSubGraphData);

  001d0	8a 01		 mov	 al, BYTE PTR [ecx]
  001d2	8d 49 01	 lea	 ecx, DWORD PTR [ecx+1]
  001d5	88 02		 mov	 BYTE PTR [edx], al
  001d7	8d 52 01	 lea	 edx, DWORD PTR [edx+1]
  001da	84 c0		 test	 al, al
  001dc	75 f2		 jne	 SHORT $LL9@GetAllSubG

; 658  : 		szAllSubGraphData += strSubGraphData.GetLength();

  001de	8b 43 08	 mov	 eax, DWORD PTR [ebx+8]
  001e1	03 78 f4	 add	 edi, DWORD PTR [eax-12]
  001e4	85 f6		 test	 esi, esi
  001e6	75 d8		 jne	 SHORT $LL5@GetAllSubG
$LN6@GetAllSubG:

; 660  : }

  001e8	8d 4d b4	 lea	 ecx, DWORD PTR _slSubGraphData$[ebp]
  001eb	e8 00 00 00 00	 call	 ??1CStringList@@UAE@XZ	; CStringList::~CStringList
$LN1@GetAllSubG:
  001f0	8b 4d f4	 mov	 ecx, DWORD PTR __$EHRec$[ebp]
  001f3	64 89 0d 00 00
	00 00		 mov	 DWORD PTR fs:0, ecx
  001fa	59		 pop	 ecx
  001fb	5f		 pop	 edi
  001fc	5e		 pop	 esi
  001fd	5b		 pop	 ebx
  001fe	8b e5		 mov	 esp, ebp
  00200	5d		 pop	 ebp
  00201	c2 0c 00	 ret	 12			; 0000000cH
$LN76@GetAllSubG:
; File C:\Program Files (x86)\Microsoft Visual Studio\2019\Community\VC\Tools\MSVC\14.29.30133\atlmfc\include\afxcoll.inl

; 504  : 			AfxThrowInvalidArgException();

  00204	e8 00 00 00 00	 call	 ?AfxThrowInvalidArgException@@YGXXZ ; AfxThrowInvalidArgException
$LN93@GetAllSubG:
  00209	cc		 int	 3
_TEXT	ENDS
;	COMDAT text$x
text$x	SEGMENT
__unwindfunclet$?GetAllSubGraphDataForMaking@CGraphPartData@@QBEXAAV?$CStringT@DV?$StrTraitMFC_DLL@DV?$ChTraitsCRT@D@ATL@@@@@ATL@@H_N@Z$0:
  00000	8d 4d b4	 lea	 ecx, DWORD PTR _slSubGraphData$[ebp]
  00003	e9 00 00 00 00	 jmp	 ??1CStringList@@UAE@XZ	; CStringList::~CStringList
__unwindfunclet$?GetAllSubGraphDataForMaking@CGraphPartData@@QBEXAAV?$CStringT@DV?$StrTraitMFC_DLL@DV?$ChTraitsCRT@D@ATL@@@@@ATL@@H_N@Z$1:
  00008	8d 4d e0	 lea	 ecx, DWORD PTR $T3[ebp]
  0000b	ff 25 00 00 00
	00		 jmp	 DWORD PTR __imp_??1?$CStringT@DV?$StrTraitMFC_DLL@DV?$ChTraitsCRT@D@ATL@@@@@ATL@@QAE@XZ
__unwindfunclet$?GetAllSubGraphDataForMaking@CGraphPartData@@QBEXAAV?$CStringT@DV?$StrTraitMFC_DLL@DV?$ChTraitsCRT@D@ATL@@@@@ATL@@H_N@Z$2:
  00011	8d 4d f0	 lea	 ecx, DWORD PTR _strTitle$5[ebp]
  00014	ff 25 00 00 00
	00		 jmp	 DWORD PTR __imp_??1?$CStringT@DV?$StrTraitMFC_DLL@DV?$ChTraitsCRT@D@ATL@@@@@ATL@@QAE@XZ
__unwindfunclet$?GetAllSubGraphDataForMaking@CGraphPartData@@QBEXAAV?$CStringT@DV?$StrTraitMFC_DLL@DV?$ChTraitsCRT@D@ATL@@@@@ATL@@H_N@Z$3:
  0001a	8d 4d dc	 lea	 ecx, DWORD PTR $T2[ebp]
  0001d	ff 25 00 00 00
	00		 jmp	 DWORD PTR __imp_??1?$CStringT@DV?$StrTraitMFC_DLL@DV?$ChTraitsCRT@D@ATL@@@@@ATL@@QAE@XZ
__unwindfunclet$?GetAllSubGraphDataForMaking@CGraphPartData@@QBEXAAV?$CStringT@DV?$StrTraitMFC_DLL@DV?$ChTraitsCRT@D@ATL@@@@@ATL@@H_N@Z$4:
  00023	8d 4d e8	 lea	 ecx, DWORD PTR _OldTitle$4[ebp]
  00026	ff 25 00 00 00
	00		 jmp	 DWORD PTR __imp_??1?$CStringT@DV?$StrTraitMFC_DLL@DV?$ChTraitsCRT@D@ATL@@@@@ATL@@QAE@XZ
  0002c	cc		 int	 3
  0002d	cc		 int	 3
  0002e	cc		 int	 3
  0002f	cc		 int	 3
  00030	cc		 int	 3
__ehhandler$?GetAllSubGraphDataForMaking@CGraphPartData@@QBEXAAV?$CStringT@DV?$StrTraitMFC_DLL@DV?$ChTraitsCRT@D@ATL@@@@@ATL@@H_N@Z:
  00031	90		 npad	 1
  00032	90		 npad	 1
  00033	8b 54 24 08	 mov	 edx, DWORD PTR [esp+8]
  00037	8d 42 0c	 lea	 eax, DWORD PTR [edx+12]
  0003a	8b 4a b0	 mov	 ecx, DWORD PTR [edx-80]
  0003d	33 c8		 xor	 ecx, eax
  0003f	e8 00 00 00 00	 call	 @__security_check_cookie@4
  00044	b8 00 00 00 00	 mov	 eax, OFFSET __ehfuncinfo$?GetAllSubGraphDataForMaking@CGraphPartData@@QBEXAAV?$CStringT@DV?$StrTraitMFC_DLL@DV?$ChTraitsCRT@D@ATL@@@@@ATL@@H_N@Z
  00049	e9 00 00 00 00	 jmp	 ___CxxFrameHandler3
text$x	ENDS
?GetAllSubGraphDataForMaking@CGraphPartData@@QBEXAAV?$CStringT@DV?$StrTraitMFC_DLL@DV?$ChTraitsCRT@D@ATL@@@@@ATL@@H_N@Z ENDP ; CGraphPartData::GetAllSubGraphDataForMaking
; Function compile flags: /Ogtp
; File D:\git\src\IBK\IBK_DRFN\ProjSrc\SrcChartEx\ChartOCX\IndicatorCondition\IndicatorConditionBaseData.cpp
; File C:\Program Files (x86)\Microsoft Visual Studio\2019\Community\VC\Tools\MSVC\14.29.30133\include\list
; File D:\git\src\IBK\IBK_DRFN\ProjSrc\SrcChartEx\ChartOCX\IndicatorCondition\IndicatorConditionBaseData.cpp
; File C:\Program Files (x86)\Microsoft Visual Studio\2019\Community\VC\Tools\MSVC\14.29.30133\include\list
; File D:\git\src\IBK\IBK_DRFN\ProjSrc\SrcChartEx\ChartOCX\IndicatorCondition\IndicatorConditionBaseData.cpp
; File C:\Program Files (x86)\Microsoft Visual Studio\2019\Community\VC\Tools\MSVC\14.29.30133\atlmfc\include\afxcoll.inl
; File D:\git\src\IBK\IBK_DRFN\ProjSrc\SrcChartEx\ChartOCX\IndicatorCondition\IndicatorConditionBaseData.cpp
; File C:\Program Files (x86)\Microsoft Visual Studio\2019\Community\VC\Tools\MSVC\14.29.30133\atlmfc\include\afxcoll.inl
; File D:\git\src\IBK\IBK_DRFN\ProjSrc\SrcChartEx\ChartOCX\IndicatorCondition\IndicatorConditionBaseData.cpp
; File C:\Program Files (x86)\Microsoft Visual Studio\2019\Community\VC\Tools\MSVC\14.29.30133\include\list
; File D:\git\src\IBK\IBK_DRFN\ProjSrc\SrcChartEx\ChartOCX\IndicatorCondition\IndicatorConditionBaseData.cpp
; File C:\Program Files (x86)\Microsoft Visual Studio\2019\Community\VC\Tools\MSVC\14.29.30133\include\list
; File D:\git\src\IBK\IBK_DRFN\ProjSrc\SrcChartEx\ChartOCX\IndicatorCondition\IndicatorConditionBaseData.cpp
; File C:\Program Files (x86)\Microsoft Visual Studio\2019\Community\VC\Tools\MSVC\14.29.30133\include\list
; File D:\git\src\IBK\IBK_DRFN\ProjSrc\SrcChartEx\ChartOCX\IndicatorCondition\IndicatorConditionBaseData.cpp
; File C:\Program Files (x86)\Microsoft Visual Studio\2019\Community\VC\Tools\MSVC\14.29.30133\atlmfc\include\afxcoll.inl
; File D:\git\src\IBK\IBK_DRFN\ProjSrc\SrcChartEx\ChartOCX\IndicatorCondition\IndicatorConditionBaseData.cpp
; File C:\Program Files (x86)\Microsoft Visual Studio\2019\Community\VC\Tools\MSVC\14.29.30133\atlmfc\include\atlsimpstr.h
; File D:\git\src\IBK\IBK_DRFN\ProjSrc\SrcChartEx\ChartOCX\IndicatorCondition\IndicatorConditionBaseData.cpp
; File C:\Program Files (x86)\Microsoft Visual Studio\2019\Community\VC\Tools\MSVC\14.29.30133\atlmfc\include\afxcoll.inl
; File D:\git\src\IBK\IBK_DRFN\ProjSrc\SrcChartEx\ChartOCX\IndicatorCondition\IndicatorConditionBaseData.cpp
;	COMDAT ?GetAllSubGraphDataForMaking@CGraphPartData@@QBEXAAV?$CStringT@DV?$StrTraitMFC_DLL@DV?$ChTraitsCRT@D@ATL@@@@@ATL@@@Z
_TEXT	SEGMENT
_slSubGraphData$ = -52					; size = 28
_this$1$ = -24						; size = 4
$T2 = -20						; size = 4
_nAllSubGraphDataLen$1$ = -16				; size = 4
__$EHRec$ = -12						; size = 12
_p_strAllSubGraphData$ = 8				; size = 4
?GetAllSubGraphDataForMaking@CGraphPartData@@QBEXAAV?$CStringT@DV?$StrTraitMFC_DLL@DV?$ChTraitsCRT@D@ATL@@@@@ATL@@@Z PROC ; CGraphPartData::GetAllSubGraphDataForMaking, COMDAT
; _this$ = ecx

; 603  : {

  00000	55		 push	 ebp
  00001	8b ec		 mov	 ebp, esp
  00003	6a ff		 push	 -1
  00005	68 00 00 00 00	 push	 __ehhandler$?GetAllSubGraphDataForMaking@CGraphPartData@@QBEXAAV?$CStringT@DV?$StrTraitMFC_DLL@DV?$ChTraitsCRT@D@ATL@@@@@ATL@@@Z
  0000a	64 a1 00 00 00
	00		 mov	 eax, DWORD PTR fs:0
  00010	50		 push	 eax
  00011	83 ec 28	 sub	 esp, 40			; 00000028H
  00014	53		 push	 ebx
  00015	56		 push	 esi
  00016	57		 push	 edi
  00017	a1 00 00 00 00	 mov	 eax, DWORD PTR ___security_cookie
  0001c	33 c5		 xor	 eax, ebp
  0001e	50		 push	 eax
  0001f	8d 45 f4	 lea	 eax, DWORD PTR __$EHRec$[ebp]
  00022	64 a3 00 00 00
	00		 mov	 DWORD PTR fs:0, eax
  00028	8b d9		 mov	 ebx, ecx
  0002a	89 5d e8	 mov	 DWORD PTR _this$1$[ebp], ebx

; 604  : 	p_strAllSubGraphData.Empty();

  0002d	8b 4d 08	 mov	 ecx, DWORD PTR _p_strAllSubGraphData$[ebp]
  00030	ff 15 00 00 00
	00		 call	 DWORD PTR __imp_?Empty@?$CSimpleStringT@D$00@ATL@@QAEXXZ

; 605  : 
; 606  : 	if( m_subGraphPartDataList.size() <= 0) return;

  00036	83 7b 30 00	 cmp	 DWORD PTR [ebx+48], 0
  0003a	0f 86 b0 00 00
	00		 jbe	 $LN1@GetAllSubG

; 607  : 
; 608  : 	int nAllSubGraphDataLen = 0;

  00040	33 ff		 xor	 edi, edi

; 609  : 	CStringList slSubGraphData;

  00042	8d 4d cc	 lea	 ecx, DWORD PTR _slSubGraphData$[ebp]
  00045	6a 0a		 push	 10			; 0000000aH
  00047	89 7d f0	 mov	 DWORD PTR _nAllSubGraphDataLen$1$[ebp], edi
  0004a	e8 00 00 00 00	 call	 ??0CStringList@@QAE@H@Z	; CStringList::CStringList
; File C:\Program Files (x86)\Microsoft Visual Studio\2019\Community\VC\Tools\MSVC\14.29.30133\include\list

; 1087 :         return const_iterator(_Mypair._Myval2._Myhead->_Next, _STD addressof(_Mypair._Myval2));

  0004f	8b 43 2c	 mov	 eax, DWORD PTR [ebx+44]
; File D:\git\src\IBK\IBK_DRFN\ProjSrc\SrcChartEx\ChartOCX\IndicatorCondition\IndicatorConditionBaseData.cpp

; 609  : 	CStringList slSubGraphData;

  00052	89 7d fc	 mov	 DWORD PTR __$EHRec$[ebp+8], edi
; File C:\Program Files (x86)\Microsoft Visual Studio\2019\Community\VC\Tools\MSVC\14.29.30133\include\list

; 38   :     _List_unchecked_const_iterator(_Nodeptr _Pnode, const _Mylist* _Plist) noexcept : _Ptr(_Pnode) {

  00055	8b 30		 mov	 esi, DWORD PTR [eax]
; File D:\git\src\IBK\IBK_DRFN\ProjSrc\SrcChartEx\ChartOCX\IndicatorCondition\IndicatorConditionBaseData.cpp

; 611  : 	for(i = m_subGraphPartDataList.begin(); i != m_subGraphPartDataList.end(); ++i)

  00057	3b f0		 cmp	 esi, eax
  00059	74 4f		 je	 SHORT $LN3@GetAllSubG
  0005b	0f 1f 44 00 00	 npad	 5
$LL23@GetAllSubG:

; 612  : 	{
; 613  :         CSubGraphPartData* pSubGraphPartData = *i;

  00060	8b 5e 08	 mov	 ebx, DWORD PTR [esi+8]

; 614  : 		assert(pSubGraphPartData != NULL);
; 615  : 
; 616  : 		slSubGraphData.AddTail( CString());

  00063	8d 4d ec	 lea	 ecx, DWORD PTR $T2[ebp]
  00066	ff 15 00 00 00
	00		 call	 DWORD PTR __imp_??0?$CStringT@DV?$StrTraitMFC_DLL@DV?$ChTraitsCRT@D@ATL@@@@@ATL@@QAE@XZ
  0006c	50		 push	 eax
  0006d	8d 4d cc	 lea	 ecx, DWORD PTR _slSubGraphData$[ebp]
  00070	c6 45 fc 01	 mov	 BYTE PTR __$EHRec$[ebp+8], 1
  00074	e8 00 00 00 00	 call	 ?AddTail@CStringList@@QAEPAU__POSITION@@ABV?$CStringT@DV?$StrTraitMFC_DLL@DV?$ChTraitsCRT@D@ATL@@@@@ATL@@@Z ; CStringList::AddTail
  00079	8d 4d ec	 lea	 ecx, DWORD PTR $T2[ebp]
  0007c	c6 45 fc 00	 mov	 BYTE PTR __$EHRec$[ebp+8], 0
  00080	ff 15 00 00 00
	00		 call	 DWORD PTR __imp_??1?$CStringT@DV?$StrTraitMFC_DLL@DV?$ChTraitsCRT@D@ATL@@@@@ATL@@QAE@XZ
; File C:\Program Files (x86)\Microsoft Visual Studio\2019\Community\VC\Tools\MSVC\14.29.30133\atlmfc\include\afxcoll.inl

; 492  : 		return m_pNodeTail->data; }

  00086	8b 7d d4	 mov	 edi, DWORD PTR _slSubGraphData$[ebp+8]
; File D:\git\src\IBK\IBK_DRFN\ProjSrc\SrcChartEx\ChartOCX\IndicatorCondition\IndicatorConditionBaseData.cpp

; 123  : 	m_subGraphData.GetStringData( p_strSubGraphData);

  00089	8d 4b 24	 lea	 ecx, DWORD PTR [ebx+36]
; File C:\Program Files (x86)\Microsoft Visual Studio\2019\Community\VC\Tools\MSVC\14.29.30133\atlmfc\include\afxcoll.inl

; 492  : 		return m_pNodeTail->data; }

  0008c	83 c7 08	 add	 edi, 8
; File D:\git\src\IBK\IBK_DRFN\ProjSrc\SrcChartEx\ChartOCX\IndicatorCondition\IndicatorConditionBaseData.cpp

; 123  : 	m_subGraphData.GetStringData( p_strSubGraphData);

  0008f	57		 push	 edi
  00090	e8 00 00 00 00	 call	 ?GetStringData@CSubGraphDataBase@@QBEXAAV?$CStringT@DV?$StrTraitMFC_DLL@DV?$ChTraitsCRT@D@ATL@@@@@ATL@@@Z ; CSubGraphDataBase::GetStringData

; 619  : 		nAllSubGraphDataLen += strSubGraphData.GetLength();

  00095	8b 07		 mov	 eax, DWORD PTR [edi]
  00097	8b 7d f0	 mov	 edi, DWORD PTR _nAllSubGraphDataLen$1$[ebp]
; File C:\Program Files (x86)\Microsoft Visual Studio\2019\Community\VC\Tools\MSVC\14.29.30133\include\list

; 165  :         this->_Ptr = this->_Ptr->_Next;

  0009a	8b 36		 mov	 esi, DWORD PTR [esi]
; File D:\git\src\IBK\IBK_DRFN\ProjSrc\SrcChartEx\ChartOCX\IndicatorCondition\IndicatorConditionBaseData.cpp

; 619  : 		nAllSubGraphDataLen += strSubGraphData.GetLength();

  0009c	03 78 f4	 add	 edi, DWORD PTR [eax-12]
; File C:\Program Files (x86)\Microsoft Visual Studio\2019\Community\VC\Tools\MSVC\14.29.30133\include\list

; 198  :         return this->_Ptr == _Right._Ptr;

  0009f	8b 45 e8	 mov	 eax, DWORD PTR _this$1$[ebp]
; File D:\git\src\IBK\IBK_DRFN\ProjSrc\SrcChartEx\ChartOCX\IndicatorCondition\IndicatorConditionBaseData.cpp

; 619  : 		nAllSubGraphDataLen += strSubGraphData.GetLength();

  000a2	89 7d f0	 mov	 DWORD PTR _nAllSubGraphDataLen$1$[ebp], edi
; File C:\Program Files (x86)\Microsoft Visual Studio\2019\Community\VC\Tools\MSVC\14.29.30133\include\list

; 198  :         return this->_Ptr == _Right._Ptr;

  000a5	3b 70 2c	 cmp	 esi, DWORD PTR [eax+44]
; File D:\git\src\IBK\IBK_DRFN\ProjSrc\SrcChartEx\ChartOCX\IndicatorCondition\IndicatorConditionBaseData.cpp

; 611  : 	for(i = m_subGraphPartDataList.begin(); i != m_subGraphPartDataList.end(); ++i)

  000a8	75 b6		 jne	 SHORT $LL23@GetAllSubG
$LN3@GetAllSubG:

; 620  : 	}
; 621  : 
; 622  : 	char *szAllSubGraphData = p_strAllSubGraphData.GetBufferSetLength( nAllSubGraphDataLen);

  000aa	8b 4d 08	 mov	 ecx, DWORD PTR _p_strAllSubGraphData$[ebp]
  000ad	57		 push	 edi
  000ae	ff 15 00 00 00
	00		 call	 DWORD PTR __imp_?GetBufferSetLength@?$CSimpleStringT@D$00@ATL@@QAEPADH@Z

; 623  : 	POSITION psn = slSubGraphData.GetHeadPosition();

  000b4	8b 75 d0	 mov	 esi, DWORD PTR _slSubGraphData$[ebp+4]
  000b7	8b f8		 mov	 edi, eax
  000b9	85 f6		 test	 esi, esi

; 624  : 	while( psn)

  000bb	74 2b		 je	 SHORT $LN6@GetAllSubG
  000bd	0f 1f 00	 npad	 3
$LL5@GetAllSubG:
; File C:\Program Files (x86)\Microsoft Visual Studio\2019\Community\VC\Tools\MSVC\14.29.30133\atlmfc\include\afxcoll.inl

; 501  : 	{ CNode* pNode = (CNode*) rPosition;

  000c0	8b de		 mov	 ebx, esi

; 502  : 		ASSERT(AfxIsValidAddress(pNode, sizeof(CNode)));
; 503  : 		if( pNode == NULL )

  000c2	85 f6		 test	 esi, esi
  000c4	74 3e		 je	 SHORT $LN57@GetAllSubG

; 505  : 		rPosition = (POSITION) pNode->pNext;

  000c6	8b 36		 mov	 esi, DWORD PTR [esi]
; File D:\git\src\IBK\IBK_DRFN\ProjSrc\SrcChartEx\ChartOCX\IndicatorCondition\IndicatorConditionBaseData.cpp

; 627  : 		strcpy( szAllSubGraphData, strSubGraphData);

  000c8	8b c7		 mov	 eax, edi
; File C:\Program Files (x86)\Microsoft Visual Studio\2019\Community\VC\Tools\MSVC\14.29.30133\atlmfc\include\atlsimpstr.h

; 377  : 		return( m_pszData );

  000ca	8b 53 08	 mov	 edx, DWORD PTR [ebx+8]
  000cd	0f 1f 00	 npad	 3
$LL9@GetAllSubG:
; File D:\git\src\IBK\IBK_DRFN\ProjSrc\SrcChartEx\ChartOCX\IndicatorCondition\IndicatorConditionBaseData.cpp

; 627  : 		strcpy( szAllSubGraphData, strSubGraphData);

  000d0	8a 0a		 mov	 cl, BYTE PTR [edx]
  000d2	8d 52 01	 lea	 edx, DWORD PTR [edx+1]
  000d5	88 08		 mov	 BYTE PTR [eax], cl
  000d7	8d 40 01	 lea	 eax, DWORD PTR [eax+1]
  000da	84 c9		 test	 cl, cl
  000dc	75 f2		 jne	 SHORT $LL9@GetAllSubG

; 628  : 		szAllSubGraphData += strSubGraphData.GetLength();

  000de	8b 43 08	 mov	 eax, DWORD PTR [ebx+8]
  000e1	03 78 f4	 add	 edi, DWORD PTR [eax-12]
  000e4	85 f6		 test	 esi, esi
  000e6	75 d8		 jne	 SHORT $LL5@GetAllSubG
$LN6@GetAllSubG:

; 630  : }

  000e8	8d 4d cc	 lea	 ecx, DWORD PTR _slSubGraphData$[ebp]
  000eb	e8 00 00 00 00	 call	 ??1CStringList@@UAE@XZ	; CStringList::~CStringList
$LN1@GetAllSubG:
  000f0	8b 4d f4	 mov	 ecx, DWORD PTR __$EHRec$[ebp]
  000f3	64 89 0d 00 00
	00 00		 mov	 DWORD PTR fs:0, ecx
  000fa	59		 pop	 ecx
  000fb	5f		 pop	 edi
  000fc	5e		 pop	 esi
  000fd	5b		 pop	 ebx
  000fe	8b e5		 mov	 esp, ebp
  00100	5d		 pop	 ebp
  00101	c2 04 00	 ret	 4
$LN57@GetAllSubG:
; File C:\Program Files (x86)\Microsoft Visual Studio\2019\Community\VC\Tools\MSVC\14.29.30133\atlmfc\include\afxcoll.inl

; 504  : 			AfxThrowInvalidArgException();

  00104	e8 00 00 00 00	 call	 ?AfxThrowInvalidArgException@@YGXXZ ; AfxThrowInvalidArgException
$LN67@GetAllSubG:
  00109	cc		 int	 3
_TEXT	ENDS
;	COMDAT text$x
text$x	SEGMENT
__unwindfunclet$?GetAllSubGraphDataForMaking@CGraphPartData@@QBEXAAV?$CStringT@DV?$StrTraitMFC_DLL@DV?$ChTraitsCRT@D@ATL@@@@@ATL@@@Z$0:
  00000	8d 4d cc	 lea	 ecx, DWORD PTR _slSubGraphData$[ebp]
  00003	e9 00 00 00 00	 jmp	 ??1CStringList@@UAE@XZ	; CStringList::~CStringList
__unwindfunclet$?GetAllSubGraphDataForMaking@CGraphPartData@@QBEXAAV?$CStringT@DV?$StrTraitMFC_DLL@DV?$ChTraitsCRT@D@ATL@@@@@ATL@@@Z$1:
  00008	8d 4d ec	 lea	 ecx, DWORD PTR $T2[ebp]
  0000b	ff 25 00 00 00
	00		 jmp	 DWORD PTR __imp_??1?$CStringT@DV?$StrTraitMFC_DLL@DV?$ChTraitsCRT@D@ATL@@@@@ATL@@QAE@XZ
  00011	cc		 int	 3
  00012	cc		 int	 3
  00013	cc		 int	 3
  00014	cc		 int	 3
  00015	cc		 int	 3
__ehhandler$?GetAllSubGraphDataForMaking@CGraphPartData@@QBEXAAV?$CStringT@DV?$StrTraitMFC_DLL@DV?$ChTraitsCRT@D@ATL@@@@@ATL@@@Z:
  00016	90		 npad	 1
  00017	90		 npad	 1
  00018	8b 54 24 08	 mov	 edx, DWORD PTR [esp+8]
  0001c	8d 42 0c	 lea	 eax, DWORD PTR [edx+12]
  0001f	8b 4a c8	 mov	 ecx, DWORD PTR [edx-56]
  00022	33 c8		 xor	 ecx, eax
  00024	e8 00 00 00 00	 call	 @__security_check_cookie@4
  00029	b8 00 00 00 00	 mov	 eax, OFFSET __ehfuncinfo$?GetAllSubGraphDataForMaking@CGraphPartData@@QBEXAAV?$CStringT@DV?$StrTraitMFC_DLL@DV?$ChTraitsCRT@D@ATL@@@@@ATL@@@Z
  0002e	e9 00 00 00 00	 jmp	 ___CxxFrameHandler3
text$x	ENDS
?GetAllSubGraphDataForMaking@CGraphPartData@@QBEXAAV?$CStringT@DV?$StrTraitMFC_DLL@DV?$ChTraitsCRT@D@ATL@@@@@ATL@@@Z ENDP ; CGraphPartData::GetAllSubGraphDataForMaking
; Function compile flags: /Ogtp
; File D:\git\src\IBK\IBK_DRFN\ProjSrc\SrcChartEx\ChartOCX\IndicatorCondition\IndicatorConditionBaseData.cpp
; File C:\Program Files (x86)\Microsoft Visual Studio\2019\Community\VC\Tools\MSVC\14.29.30133\atlmfc\include\atlsimpstr.h
; File D:\git\src\IBK\IBK_DRFN\ProjSrc\SrcChartEx\ChartOCX\IndicatorCondition\IndicatorConditionBaseData.cpp
; File C:\Program Files (x86)\Microsoft Visual Studio\2019\Community\VC\Tools\MSVC\14.29.30133\atlmfc\include\atlsimpstr.h
; File D:\git\src\IBK\IBK_DRFN\ProjSrc\SrcChartEx\ChartOCX\IndicatorCondition\IndicatorConditionBaseData.cpp
; File C:\Program Files (x86)\Microsoft Visual Studio\2019\Community\VC\Tools\MSVC\14.29.30133\atlmfc\include\atlsimpstr.h
; File D:\git\src\IBK\IBK_DRFN\ProjSrc\SrcChartEx\ChartOCX\IndicatorCondition\IndicatorConditionBaseData.cpp
; File C:\Program Files (x86)\Microsoft Visual Studio\2019\Community\VC\Tools\MSVC\14.29.30133\atlmfc\include\atlsimpstr.h
; File D:\git\src\IBK\IBK_DRFN\ProjSrc\SrcChartEx\ChartOCX\IndicatorCondition\IndicatorConditionBaseData.cpp
;	COMDAT ?GetGraphDataForMaking@CGraphPartData@@QBEXAAV?$CStringT@DV?$StrTraitMFC_DLL@DV?$ChTraitsCRT@D@ATL@@@@@ATL@@H_N@Z
_TEXT	SEGMENT
_strGraphData$ = -20					; size = 4
_strAllSubGraphData$ = -16				; size = 4
__$EHRec$ = -12						; size = 12
_p_strGraphData$ = 8					; size = 4
_nCondIndexForTitle$ = 12				; size = 4
_bIncludeOrgTitle$ = 16					; size = 1
?GetGraphDataForMaking@CGraphPartData@@QBEXAAV?$CStringT@DV?$StrTraitMFC_DLL@DV?$ChTraitsCRT@D@ATL@@@@@ATL@@H_N@Z PROC ; CGraphPartData::GetGraphDataForMaking, COMDAT
; _this$ = ecx

; 572  : {

  00000	55		 push	 ebp
  00001	8b ec		 mov	 ebp, esp
  00003	6a ff		 push	 -1
  00005	68 00 00 00 00	 push	 __ehhandler$?GetGraphDataForMaking@CGraphPartData@@QBEXAAV?$CStringT@DV?$StrTraitMFC_DLL@DV?$ChTraitsCRT@D@ATL@@@@@ATL@@H_N@Z
  0000a	64 a1 00 00 00
	00		 mov	 eax, DWORD PTR fs:0
  00010	50		 push	 eax
  00011	83 ec 08	 sub	 esp, 8
  00014	56		 push	 esi
  00015	a1 00 00 00 00	 mov	 eax, DWORD PTR ___security_cookie
  0001a	33 c5		 xor	 eax, ebp
  0001c	50		 push	 eax
  0001d	8d 45 f4	 lea	 eax, DWORD PTR __$EHRec$[ebp]
  00020	64 a3 00 00 00
	00		 mov	 DWORD PTR fs:0, eax
  00026	8b f1		 mov	 esi, ecx

; 573  : 	CString strGraphData;

  00028	8d 4d ec	 lea	 ecx, DWORD PTR _strGraphData$[ebp]
  0002b	ff 15 00 00 00
	00		 call	 DWORD PTR __imp_??0?$CStringT@DV?$StrTraitMFC_DLL@DV?$ChTraitsCRT@D@ATL@@@@@ATL@@QAE@XZ

; 574  : 	m_graphData.GetData( strGraphData);

  00031	6a 00		 push	 0
  00033	8d 45 ec	 lea	 eax, DWORD PTR _strGraphData$[ebp]
  00036	c7 45 fc 00 00
	00 00		 mov	 DWORD PTR __$EHRec$[ebp+8], 0
  0003d	50		 push	 eax
  0003e	8d 4e 08	 lea	 ecx, DWORD PTR [esi+8]
  00041	e8 00 00 00 00	 call	 ?GetData@CGraphData@@QBEXAAV?$CStringT@DV?$StrTraitMFC_DLL@DV?$ChTraitsCRT@D@ATL@@@@@ATL@@PBD@Z ; CGraphData::GetData

; 575  : 
; 576  : 	CString strAllSubGraphData;

  00046	8d 4d f0	 lea	 ecx, DWORD PTR _strAllSubGraphData$[ebp]
  00049	ff 15 00 00 00
	00		 call	 DWORD PTR __imp_??0?$CStringT@DV?$StrTraitMFC_DLL@DV?$ChTraitsCRT@D@ATL@@@@@ATL@@QAE@XZ

; 577  : 	GetAllSubGraphDataForMaking( strAllSubGraphData, nCondIndexForTitle, bIncludeOrgTitle);

  0004f	ff 75 10	 push	 DWORD PTR _bIncludeOrgTitle$[ebp]
  00052	8d 45 f0	 lea	 eax, DWORD PTR _strAllSubGraphData$[ebp]
  00055	c6 45 fc 01	 mov	 BYTE PTR __$EHRec$[ebp+8], 1
  00059	ff 75 0c	 push	 DWORD PTR _nCondIndexForTitle$[ebp]
  0005c	8b ce		 mov	 ecx, esi
  0005e	50		 push	 eax
  0005f	e8 00 00 00 00	 call	 ?GetAllSubGraphDataForMaking@CGraphPartData@@QBEXAAV?$CStringT@DV?$StrTraitMFC_DLL@DV?$ChTraitsCRT@D@ATL@@@@@ATL@@H_N@Z ; CGraphPartData::GetAllSubGraphDataForMaking
; File C:\Program Files (x86)\Microsoft Visual Studio\2019\Community\VC\Tools\MSVC\14.29.30133\atlmfc\include\atlsimpstr.h

; 519  : 		return( GetData()->nDataLength );

  00064	8b 45 ec	 mov	 eax, DWORD PTR _strGraphData$[ebp]
  00067	8b 48 f4	 mov	 ecx, DWORD PTR [eax-12]
  0006a	8b 45 f0	 mov	 eax, DWORD PTR _strAllSubGraphData$[ebp]
; File D:\git\src\IBK\IBK_DRFN\ProjSrc\SrcChartEx\ChartOCX\IndicatorCondition\IndicatorConditionBaseData.cpp

; 583  : 	nGraphDataLen += 11;								// "GraphEnd;\r\n"

  0006d	83 c1 13	 add	 ecx, 19			; 00000013H
; File C:\Program Files (x86)\Microsoft Visual Studio\2019\Community\VC\Tools\MSVC\14.29.30133\atlmfc\include\atlsimpstr.h

; 519  : 		return( GetData()->nDataLength );

  00070	8b 40 f4	 mov	 eax, DWORD PTR [eax-12]
; File D:\git\src\IBK\IBK_DRFN\ProjSrc\SrcChartEx\ChartOCX\IndicatorCondition\IndicatorConditionBaseData.cpp

; 583  : 	nGraphDataLen += 11;								// "GraphEnd;\r\n"

  00073	03 c1		 add	 eax, ecx

; 584  : 
; 585  : 	char *szGraphData = p_strGraphData.GetBufferSetLength( nGraphDataLen);

  00075	8b 4d 08	 mov	 ecx, DWORD PTR _p_strGraphData$[ebp]
  00078	50		 push	 eax
  00079	ff 15 00 00 00
	00		 call	 DWORD PTR __imp_?GetBufferSetLength@?$CSimpleStringT@D$00@ATL@@QAEPADH@Z

; 586  : 
; 587  : 	strcpy( szGraphData, "Graph;\r\n");

  0007f	f3 0f 7e 05 00
	00 00 00	 movq	 xmm0, QWORD PTR ??_C@_08BHMMGBBH@Graph?$DL?$AN?6@
  00087	8b f0		 mov	 esi, eax
  00089	66 0f d6 06	 movq	 QWORD PTR [esi], xmm0
  0008d	8a 0d 08 00 00
	00		 mov	 cl, BYTE PTR ??_C@_08BHMMGBBH@Graph?$DL?$AN?6@+8
  00093	88 4e 08	 mov	 BYTE PTR [esi+8], cl

; 588  : 	szGraphData += 8;

  00096	83 c6 08	 add	 esi, 8
; File C:\Program Files (x86)\Microsoft Visual Studio\2019\Community\VC\Tools\MSVC\14.29.30133\atlmfc\include\atlsimpstr.h

; 377  : 		return( m_pszData );

  00099	8b 4d ec	 mov	 ecx, DWORD PTR _strGraphData$[ebp]
; File D:\git\src\IBK\IBK_DRFN\ProjSrc\SrcChartEx\ChartOCX\IndicatorCondition\IndicatorConditionBaseData.cpp

; 590  : 	strcpy( szGraphData, strGraphData);

  0009c	8b d6		 mov	 edx, esi
  0009e	66 90		 npad	 2
$LL3@GetGraphDa:
  000a0	8a 01		 mov	 al, BYTE PTR [ecx]
  000a2	8d 49 01	 lea	 ecx, DWORD PTR [ecx+1]
  000a5	88 02		 mov	 BYTE PTR [edx], al
  000a7	8d 52 01	 lea	 edx, DWORD PTR [edx+1]
  000aa	84 c0		 test	 al, al
  000ac	75 f2		 jne	 SHORT $LL3@GetGraphDa

; 591  : 	szGraphData += strGraphData.GetLength();

  000ae	8b 45 ec	 mov	 eax, DWORD PTR _strGraphData$[ebp]
; File C:\Program Files (x86)\Microsoft Visual Studio\2019\Community\VC\Tools\MSVC\14.29.30133\atlmfc\include\atlsimpstr.h

; 377  : 		return( m_pszData );

  000b1	8b 55 f0	 mov	 edx, DWORD PTR _strAllSubGraphData$[ebp]
; File D:\git\src\IBK\IBK_DRFN\ProjSrc\SrcChartEx\ChartOCX\IndicatorCondition\IndicatorConditionBaseData.cpp

; 591  : 	szGraphData += strGraphData.GetLength();

  000b4	03 70 f4	 add	 esi, DWORD PTR [eax-12]

; 592  : 
; 593  : 	strcpy( szGraphData, strAllSubGraphData);

  000b7	8b c6		 mov	 eax, esi
  000b9	0f 1f 80 00 00
	00 00		 npad	 7
$LL4@GetGraphDa:
  000c0	8a 0a		 mov	 cl, BYTE PTR [edx]
  000c2	8d 52 01	 lea	 edx, DWORD PTR [edx+1]
  000c5	88 08		 mov	 BYTE PTR [eax], cl
  000c7	8d 40 01	 lea	 eax, DWORD PTR [eax+1]
  000ca	84 c9		 test	 cl, cl
  000cc	75 f2		 jne	 SHORT $LL4@GetGraphDa

; 594  : 	szGraphData += strAllSubGraphData.GetLength();

  000ce	8b 45 f0	 mov	 eax, DWORD PTR _strAllSubGraphData$[ebp]

; 595  : 
; 596  : 	strcpy( szGraphData, "GraphEnd;\r\n");

  000d1	f3 0f 7e 05 00
	00 00 00	 movq	 xmm0, QWORD PTR ??_C@_0M@DGHFHKEI@GraphEnd?$DL?$AN?6@
  000d9	8b 48 f4	 mov	 ecx, DWORD PTR [eax-12]
  000dc	66 0f d6 04 31	 movq	 QWORD PTR [ecx+esi], xmm0
  000e1	a1 08 00 00 00	 mov	 eax, DWORD PTR ??_C@_0M@DGHFHKEI@GraphEnd?$DL?$AN?6@+8
  000e6	89 44 31 08	 mov	 DWORD PTR [ecx+esi+8], eax

; 597  : }

  000ea	8d 4d f0	 lea	 ecx, DWORD PTR _strAllSubGraphData$[ebp]
  000ed	ff 15 00 00 00
	00		 call	 DWORD PTR __imp_??1?$CStringT@DV?$StrTraitMFC_DLL@DV?$ChTraitsCRT@D@ATL@@@@@ATL@@QAE@XZ
  000f3	8d 4d ec	 lea	 ecx, DWORD PTR _strGraphData$[ebp]
  000f6	ff 15 00 00 00
	00		 call	 DWORD PTR __imp_??1?$CStringT@DV?$StrTraitMFC_DLL@DV?$ChTraitsCRT@D@ATL@@@@@ATL@@QAE@XZ
  000fc	8b 4d f4	 mov	 ecx, DWORD PTR __$EHRec$[ebp]
  000ff	64 89 0d 00 00
	00 00		 mov	 DWORD PTR fs:0, ecx
  00106	59		 pop	 ecx
  00107	5e		 pop	 esi
  00108	8b e5		 mov	 esp, ebp
  0010a	5d		 pop	 ebp
  0010b	c2 0c 00	 ret	 12			; 0000000cH
_TEXT	ENDS
;	COMDAT text$x
text$x	SEGMENT
__unwindfunclet$?GetGraphDataForMaking@CGraphPartData@@QBEXAAV?$CStringT@DV?$StrTraitMFC_DLL@DV?$ChTraitsCRT@D@ATL@@@@@ATL@@H_N@Z$0:
  00000	8d 4d ec	 lea	 ecx, DWORD PTR _strGraphData$[ebp]
  00003	ff 25 00 00 00
	00		 jmp	 DWORD PTR __imp_??1?$CStringT@DV?$StrTraitMFC_DLL@DV?$ChTraitsCRT@D@ATL@@@@@ATL@@QAE@XZ
__unwindfunclet$?GetGraphDataForMaking@CGraphPartData@@QBEXAAV?$CStringT@DV?$StrTraitMFC_DLL@DV?$ChTraitsCRT@D@ATL@@@@@ATL@@H_N@Z$1:
  00009	8d 4d f0	 lea	 ecx, DWORD PTR _strAllSubGraphData$[ebp]
  0000c	ff 25 00 00 00
	00		 jmp	 DWORD PTR __imp_??1?$CStringT@DV?$StrTraitMFC_DLL@DV?$ChTraitsCRT@D@ATL@@@@@ATL@@QAE@XZ
  00012	cc		 int	 3
  00013	cc		 int	 3
  00014	cc		 int	 3
  00015	cc		 int	 3
  00016	cc		 int	 3
__ehhandler$?GetGraphDataForMaking@CGraphPartData@@QBEXAAV?$CStringT@DV?$StrTraitMFC_DLL@DV?$ChTraitsCRT@D@ATL@@@@@ATL@@H_N@Z:
  00017	90		 npad	 1
  00018	90		 npad	 1
  00019	8b 54 24 08	 mov	 edx, DWORD PTR [esp+8]
  0001d	8d 42 0c	 lea	 eax, DWORD PTR [edx+12]
  00020	8b 4a f0	 mov	 ecx, DWORD PTR [edx-16]
  00023	33 c8		 xor	 ecx, eax
  00025	e8 00 00 00 00	 call	 @__security_check_cookie@4
  0002a	b8 00 00 00 00	 mov	 eax, OFFSET __ehfuncinfo$?GetGraphDataForMaking@CGraphPartData@@QBEXAAV?$CStringT@DV?$StrTraitMFC_DLL@DV?$ChTraitsCRT@D@ATL@@@@@ATL@@H_N@Z
  0002f	e9 00 00 00 00	 jmp	 ___CxxFrameHandler3
text$x	ENDS
?GetGraphDataForMaking@CGraphPartData@@QBEXAAV?$CStringT@DV?$StrTraitMFC_DLL@DV?$ChTraitsCRT@D@ATL@@@@@ATL@@H_N@Z ENDP ; CGraphPartData::GetGraphDataForMaking
; Function compile flags: /Ogtp
; File D:\git\src\IBK\IBK_DRFN\ProjSrc\SrcChartEx\ChartOCX\IndicatorCondition\IndicatorConditionBaseData.cpp
; File C:\Program Files (x86)\Microsoft Visual Studio\2019\Community\VC\Tools\MSVC\14.29.30133\include\list
; File D:\git\src\IBK\IBK_DRFN\ProjSrc\SrcChartEx\ChartOCX\IndicatorCondition\IndicatorConditionBaseData.cpp
; File C:\Program Files (x86)\Microsoft Visual Studio\2019\Community\VC\Tools\MSVC\14.29.30133\include\list
; File D:\git\src\IBK\IBK_DRFN\ProjSrc\SrcChartEx\ChartOCX\IndicatorCondition\IndicatorConditionBaseData.cpp
; File C:\Program Files (x86)\Microsoft Visual Studio\2019\Community\VC\Tools\MSVC\14.29.30133\atlmfc\include\afxcoll.inl
; File D:\git\src\IBK\IBK_DRFN\ProjSrc\SrcChartEx\ChartOCX\IndicatorCondition\IndicatorConditionBaseData.cpp
; File C:\Program Files (x86)\Microsoft Visual Studio\2019\Community\VC\Tools\MSVC\14.29.30133\atlmfc\include\afxcoll.inl
; File D:\git\src\IBK\IBK_DRFN\ProjSrc\SrcChartEx\ChartOCX\IndicatorCondition\IndicatorConditionBaseData.cpp
; File C:\Program Files (x86)\Microsoft Visual Studio\2019\Community\VC\Tools\MSVC\14.29.30133\atlmfc\include\atlsimpstr.h
; File D:\git\src\IBK\IBK_DRFN\ProjSrc\SrcChartEx\ChartOCX\IndicatorCondition\IndicatorConditionBaseData.cpp
; File C:\Program Files (x86)\Microsoft Visual Studio\2019\Community\VC\Tools\MSVC\14.29.30133\include\list
; File D:\git\src\IBK\IBK_DRFN\ProjSrc\SrcChartEx\ChartOCX\IndicatorCondition\IndicatorConditionBaseData.cpp
; File C:\Program Files (x86)\Microsoft Visual Studio\2019\Community\VC\Tools\MSVC\14.29.30133\atlmfc\include\afxcoll.inl
; File D:\git\src\IBK\IBK_DRFN\ProjSrc\SrcChartEx\ChartOCX\IndicatorCondition\IndicatorConditionBaseData.cpp
; File C:\Program Files (x86)\Microsoft Visual Studio\2019\Community\VC\Tools\MSVC\14.29.30133\atlmfc\include\atlsimpstr.h
; File D:\git\src\IBK\IBK_DRFN\ProjSrc\SrcChartEx\ChartOCX\IndicatorCondition\IndicatorConditionBaseData.cpp
; File C:\Program Files (x86)\Microsoft Visual Studio\2019\Community\VC\Tools\MSVC\14.29.30133\atlmfc\include\atlsimpstr.h
; File D:\git\src\IBK\IBK_DRFN\ProjSrc\SrcChartEx\ChartOCX\IndicatorCondition\IndicatorConditionBaseData.cpp
; File C:\Program Files (x86)\Microsoft Visual Studio\2019\Community\VC\Tools\MSVC\14.29.30133\atlmfc\include\atlsimpstr.h
; File D:\git\src\IBK\IBK_DRFN\ProjSrc\SrcChartEx\ChartOCX\IndicatorCondition\IndicatorConditionBaseData.cpp
; File C:\Program Files (x86)\Microsoft Visual Studio\2019\Community\VC\Tools\MSVC\14.29.30133\atlmfc\include\atlsimpstr.h
; File D:\git\src\IBK\IBK_DRFN\ProjSrc\SrcChartEx\ChartOCX\IndicatorCondition\IndicatorConditionBaseData.cpp
; File C:\Program Files (x86)\Microsoft Visual Studio\2019\Community\VC\Tools\MSVC\14.29.30133\atlmfc\include\atlsimpstr.h
; File D:\git\src\IBK\IBK_DRFN\ProjSrc\SrcChartEx\ChartOCX\IndicatorCondition\IndicatorConditionBaseData.cpp
; File C:\Program Files (x86)\Microsoft Visual Studio\2019\Community\VC\Tools\MSVC\14.29.30133\atlmfc\include\atlsimpstr.h
; File D:\git\src\IBK\IBK_DRFN\ProjSrc\SrcChartEx\ChartOCX\IndicatorCondition\IndicatorConditionBaseData.cpp
; File C:\Program Files (x86)\Microsoft Visual Studio\2019\Community\VC\Tools\MSVC\14.29.30133\atlmfc\include\afxcoll.inl
; File D:\git\src\IBK\IBK_DRFN\ProjSrc\SrcChartEx\ChartOCX\IndicatorCondition\IndicatorConditionBaseData.cpp
;	COMDAT ?GetGraphDataForMaking@CGraphPartData@@QBEXAAV?$CStringT@DV?$StrTraitMFC_DLL@DV?$ChTraitsCRT@D@ATL@@@@@ATL@@@Z
_TEXT	SEGMENT
_slSubGraphData$2 = -60					; size = 28
_this$1$ = -32						; size = 4
$T3 = -28						; size = 4
_nAllSubGraphDataLen$1$ = -24				; size = 4
_strGraphData$ = -20					; size = 4
_strAllSubGraphData$ = -16				; size = 4
__$EHRec$ = -12						; size = 12
_p_strGraphData$ = 8					; size = 4
?GetGraphDataForMaking@CGraphPartData@@QBEXAAV?$CStringT@DV?$StrTraitMFC_DLL@DV?$ChTraitsCRT@D@ATL@@@@@ATL@@@Z PROC ; CGraphPartData::GetGraphDataForMaking, COMDAT
; _this$ = ecx

; 544  : {

  00000	55		 push	 ebp
  00001	8b ec		 mov	 ebp, esp
  00003	6a ff		 push	 -1
  00005	68 00 00 00 00	 push	 __ehhandler$?GetGraphDataForMaking@CGraphPartData@@QBEXAAV?$CStringT@DV?$StrTraitMFC_DLL@DV?$ChTraitsCRT@D@ATL@@@@@ATL@@@Z
  0000a	64 a1 00 00 00
	00		 mov	 eax, DWORD PTR fs:0
  00010	50		 push	 eax
  00011	83 ec 30	 sub	 esp, 48			; 00000030H
  00014	53		 push	 ebx
  00015	56		 push	 esi
  00016	57		 push	 edi
  00017	a1 00 00 00 00	 mov	 eax, DWORD PTR ___security_cookie
  0001c	33 c5		 xor	 eax, ebp
  0001e	50		 push	 eax
  0001f	8d 45 f4	 lea	 eax, DWORD PTR __$EHRec$[ebp]
  00022	64 a3 00 00 00
	00		 mov	 DWORD PTR fs:0, eax
  00028	8b d9		 mov	 ebx, ecx
  0002a	89 5d e0	 mov	 DWORD PTR _this$1$[ebp], ebx

; 545  : 	CString strGraphData;

  0002d	8d 4d ec	 lea	 ecx, DWORD PTR _strGraphData$[ebp]
  00030	ff 15 00 00 00
	00		 call	 DWORD PTR __imp_??0?$CStringT@DV?$StrTraitMFC_DLL@DV?$ChTraitsCRT@D@ATL@@@@@ATL@@QAE@XZ

; 546  : 	m_graphData.GetData( strGraphData);

  00036	6a 00		 push	 0
  00038	8d 45 ec	 lea	 eax, DWORD PTR _strGraphData$[ebp]
  0003b	c7 45 fc 00 00
	00 00		 mov	 DWORD PTR __$EHRec$[ebp+8], 0
  00042	50		 push	 eax
  00043	8d 4b 08	 lea	 ecx, DWORD PTR [ebx+8]
  00046	e8 00 00 00 00	 call	 ?GetData@CGraphData@@QBEXAAV?$CStringT@DV?$StrTraitMFC_DLL@DV?$ChTraitsCRT@D@ATL@@@@@ATL@@PBD@Z ; CGraphData::GetData

; 547  : 
; 548  : 	CString strAllSubGraphData;

  0004b	8d 4d f0	 lea	 ecx, DWORD PTR _strAllSubGraphData$[ebp]
  0004e	ff 15 00 00 00
	00		 call	 DWORD PTR __imp_??0?$CStringT@DV?$StrTraitMFC_DLL@DV?$ChTraitsCRT@D@ATL@@@@@ATL@@QAE@XZ

; 604  : 	p_strAllSubGraphData.Empty();

  00054	8d 4d f0	 lea	 ecx, DWORD PTR _strAllSubGraphData$[ebp]

; 547  : 
; 548  : 	CString strAllSubGraphData;

  00057	c6 45 fc 01	 mov	 BYTE PTR __$EHRec$[ebp+8], 1

; 604  : 	p_strAllSubGraphData.Empty();

  0005b	ff 15 00 00 00
	00		 call	 DWORD PTR __imp_?Empty@?$CSimpleStringT@D$00@ATL@@QAEXXZ

; 605  : 
; 606  : 	if( m_subGraphPartDataList.size() <= 0) return;

  00061	83 7b 30 00	 cmp	 DWORD PTR [ebx+48], 0
  00065	0f 86 ba 00 00
	00		 jbe	 $LN7@GetGraphDa

; 607  : 
; 608  : 	int nAllSubGraphDataLen = 0;

  0006b	33 ff		 xor	 edi, edi

; 609  : 	CStringList slSubGraphData;

  0006d	8d 4d c4	 lea	 ecx, DWORD PTR _slSubGraphData$2[ebp]
  00070	6a 0a		 push	 10			; 0000000aH
  00072	89 7d e8	 mov	 DWORD PTR _nAllSubGraphDataLen$1$[ebp], edi
  00075	e8 00 00 00 00	 call	 ??0CStringList@@QAE@H@Z	; CStringList::CStringList
; File C:\Program Files (x86)\Microsoft Visual Studio\2019\Community\VC\Tools\MSVC\14.29.30133\include\list

; 1087 :         return const_iterator(_Mypair._Myval2._Myhead->_Next, _STD addressof(_Mypair._Myval2));

  0007a	8b 43 2c	 mov	 eax, DWORD PTR [ebx+44]
; File D:\git\src\IBK\IBK_DRFN\ProjSrc\SrcChartEx\ChartOCX\IndicatorCondition\IndicatorConditionBaseData.cpp

; 609  : 	CStringList slSubGraphData;

  0007d	c6 45 fc 02	 mov	 BYTE PTR __$EHRec$[ebp+8], 2
; File C:\Program Files (x86)\Microsoft Visual Studio\2019\Community\VC\Tools\MSVC\14.29.30133\include\list

; 38   :     _List_unchecked_const_iterator(_Nodeptr _Pnode, const _Mylist* _Plist) noexcept : _Ptr(_Pnode) {

  00081	8b 30		 mov	 esi, DWORD PTR [eax]
; File D:\git\src\IBK\IBK_DRFN\ProjSrc\SrcChartEx\ChartOCX\IndicatorCondition\IndicatorConditionBaseData.cpp

; 611  : 	for(i = m_subGraphPartDataList.begin(); i != m_subGraphPartDataList.end(); ++i)

  00083	3b f0		 cmp	 esi, eax
  00085	74 55		 je	 SHORT $LN9@GetGraphDa
  00087	66 0f 1f 84 00
	00 00 00 00	 npad	 9
$LL29@GetGraphDa:

; 612  : 	{
; 613  :         CSubGraphPartData* pSubGraphPartData = *i;

  00090	8b 5e 08	 mov	 ebx, DWORD PTR [esi+8]

; 614  : 		assert(pSubGraphPartData != NULL);
; 615  : 
; 616  : 		slSubGraphData.AddTail( CString());

  00093	8d 4d e4	 lea	 ecx, DWORD PTR $T3[ebp]
  00096	ff 15 00 00 00
	00		 call	 DWORD PTR __imp_??0?$CStringT@DV?$StrTraitMFC_DLL@DV?$ChTraitsCRT@D@ATL@@@@@ATL@@QAE@XZ
  0009c	50		 push	 eax
  0009d	8d 4d c4	 lea	 ecx, DWORD PTR _slSubGraphData$2[ebp]
  000a0	c6 45 fc 03	 mov	 BYTE PTR __$EHRec$[ebp+8], 3
  000a4	e8 00 00 00 00	 call	 ?AddTail@CStringList@@QAEPAU__POSITION@@ABV?$CStringT@DV?$StrTraitMFC_DLL@DV?$ChTraitsCRT@D@ATL@@@@@ATL@@@Z ; CStringList::AddTail
  000a9	8d 4d e4	 lea	 ecx, DWORD PTR $T3[ebp]
  000ac	c6 45 fc 02	 mov	 BYTE PTR __$EHRec$[ebp+8], 2
  000b0	ff 15 00 00 00
	00		 call	 DWORD PTR __imp_??1?$CStringT@DV?$StrTraitMFC_DLL@DV?$ChTraitsCRT@D@ATL@@@@@ATL@@QAE@XZ
; File C:\Program Files (x86)\Microsoft Visual Studio\2019\Community\VC\Tools\MSVC\14.29.30133\atlmfc\include\afxcoll.inl

; 492  : 		return m_pNodeTail->data; }

  000b6	8b 7d cc	 mov	 edi, DWORD PTR _slSubGraphData$2[ebp+8]
; File D:\git\src\IBK\IBK_DRFN\ProjSrc\SrcChartEx\ChartOCX\IndicatorCondition\IndicatorConditionBaseData.cpp

; 123  : 	m_subGraphData.GetStringData( p_strSubGraphData);

  000b9	8d 4b 24	 lea	 ecx, DWORD PTR [ebx+36]
; File C:\Program Files (x86)\Microsoft Visual Studio\2019\Community\VC\Tools\MSVC\14.29.30133\atlmfc\include\afxcoll.inl

; 492  : 		return m_pNodeTail->data; }

  000bc	83 c7 08	 add	 edi, 8
; File D:\git\src\IBK\IBK_DRFN\ProjSrc\SrcChartEx\ChartOCX\IndicatorCondition\IndicatorConditionBaseData.cpp

; 123  : 	m_subGraphData.GetStringData( p_strSubGraphData);

  000bf	57		 push	 edi
  000c0	e8 00 00 00 00	 call	 ?GetStringData@CSubGraphDataBase@@QBEXAAV?$CStringT@DV?$StrTraitMFC_DLL@DV?$ChTraitsCRT@D@ATL@@@@@ATL@@@Z ; CSubGraphDataBase::GetStringData
; File C:\Program Files (x86)\Microsoft Visual Studio\2019\Community\VC\Tools\MSVC\14.29.30133\atlmfc\include\atlsimpstr.h

; 519  : 		return( GetData()->nDataLength );

  000c5	8b 07		 mov	 eax, DWORD PTR [edi]
; File D:\git\src\IBK\IBK_DRFN\ProjSrc\SrcChartEx\ChartOCX\IndicatorCondition\IndicatorConditionBaseData.cpp

; 619  : 		nAllSubGraphDataLen += strSubGraphData.GetLength();

  000c7	8b 7d e8	 mov	 edi, DWORD PTR _nAllSubGraphDataLen$1$[ebp]
  000ca	8b 4d e0	 mov	 ecx, DWORD PTR _this$1$[ebp]
  000cd	03 78 f4	 add	 edi, DWORD PTR [eax-12]
; File C:\Program Files (x86)\Microsoft Visual Studio\2019\Community\VC\Tools\MSVC\14.29.30133\include\list

; 165  :         this->_Ptr = this->_Ptr->_Next;

  000d0	8b 06		 mov	 eax, DWORD PTR [esi]
  000d2	8b f0		 mov	 esi, eax
; File D:\git\src\IBK\IBK_DRFN\ProjSrc\SrcChartEx\ChartOCX\IndicatorCondition\IndicatorConditionBaseData.cpp

; 619  : 		nAllSubGraphDataLen += strSubGraphData.GetLength();

  000d4	89 7d e8	 mov	 DWORD PTR _nAllSubGraphDataLen$1$[ebp], edi
  000d7	3b 41 2c	 cmp	 eax, DWORD PTR [ecx+44]
  000da	75 b4		 jne	 SHORT $LL29@GetGraphDa
$LN9@GetGraphDa:

; 620  : 	}
; 621  : 
; 622  : 	char *szAllSubGraphData = p_strAllSubGraphData.GetBufferSetLength( nAllSubGraphDataLen);

  000dc	57		 push	 edi
  000dd	8d 4d f0	 lea	 ecx, DWORD PTR _strAllSubGraphData$[ebp]
  000e0	ff 15 00 00 00
	00		 call	 DWORD PTR __imp_?GetBufferSetLength@?$CSimpleStringT@D$00@ATL@@QAEPADH@Z

; 623  : 	POSITION psn = slSubGraphData.GetHeadPosition();

  000e6	8b 75 c8	 mov	 esi, DWORD PTR _slSubGraphData$2[ebp+4]
  000e9	8b f8		 mov	 edi, eax
  000eb	85 f6		 test	 esi, esi

; 624  : 	while( psn)

  000ed	74 2a		 je	 SHORT $LN12@GetGraphDa
  000ef	90		 npad	 1
$LL11@GetGraphDa:
; File C:\Program Files (x86)\Microsoft Visual Studio\2019\Community\VC\Tools\MSVC\14.29.30133\atlmfc\include\afxcoll.inl

; 501  : 	{ CNode* pNode = (CNode*) rPosition;

  000f0	8b de		 mov	 ebx, esi

; 502  : 		ASSERT(AfxIsValidAddress(pNode, sizeof(CNode)));
; 503  : 		if( pNode == NULL )

  000f2	85 f6		 test	 esi, esi
  000f4	0f 84 d6 00 00
	00		 je	 $LN86@GetGraphDa

; 505  : 		rPosition = (POSITION) pNode->pNext;

  000fa	8b 36		 mov	 esi, DWORD PTR [esi]
; File D:\git\src\IBK\IBK_DRFN\ProjSrc\SrcChartEx\ChartOCX\IndicatorCondition\IndicatorConditionBaseData.cpp

; 627  : 		strcpy( szAllSubGraphData, strSubGraphData);

  000fc	8b c7		 mov	 eax, edi
; File C:\Program Files (x86)\Microsoft Visual Studio\2019\Community\VC\Tools\MSVC\14.29.30133\atlmfc\include\atlsimpstr.h

; 377  : 		return( m_pszData );

  000fe	8b 53 08	 mov	 edx, DWORD PTR [ebx+8]
$LL15@GetGraphDa:
; File D:\git\src\IBK\IBK_DRFN\ProjSrc\SrcChartEx\ChartOCX\IndicatorCondition\IndicatorConditionBaseData.cpp

; 627  : 		strcpy( szAllSubGraphData, strSubGraphData);

  00101	8a 0a		 mov	 cl, BYTE PTR [edx]
  00103	8d 52 01	 lea	 edx, DWORD PTR [edx+1]
  00106	88 08		 mov	 BYTE PTR [eax], cl
  00108	8d 40 01	 lea	 eax, DWORD PTR [eax+1]
  0010b	84 c9		 test	 cl, cl
  0010d	75 f2		 jne	 SHORT $LL15@GetGraphDa
; File C:\Program Files (x86)\Microsoft Visual Studio\2019\Community\VC\Tools\MSVC\14.29.30133\atlmfc\include\atlsimpstr.h

; 519  : 		return( GetData()->nDataLength );

  0010f	8b 43 08	 mov	 eax, DWORD PTR [ebx+8]
; File D:\git\src\IBK\IBK_DRFN\ProjSrc\SrcChartEx\ChartOCX\IndicatorCondition\IndicatorConditionBaseData.cpp

; 628  : 		szAllSubGraphData += strSubGraphData.GetLength();

  00112	03 78 f4	 add	 edi, DWORD PTR [eax-12]
  00115	85 f6		 test	 esi, esi
  00117	75 d7		 jne	 SHORT $LL11@GetGraphDa
$LN12@GetGraphDa:

; 629  : 	}
; 630  : }

  00119	8d 4d c4	 lea	 ecx, DWORD PTR _slSubGraphData$2[ebp]
  0011c	c6 45 fc 01	 mov	 BYTE PTR __$EHRec$[ebp+8], 1
  00120	e8 00 00 00 00	 call	 ??1CStringList@@UAE@XZ	; CStringList::~CStringList
$LN7@GetGraphDa:
; File C:\Program Files (x86)\Microsoft Visual Studio\2019\Community\VC\Tools\MSVC\14.29.30133\atlmfc\include\atlsimpstr.h

; 519  : 		return( GetData()->nDataLength );

  00125	8b 45 ec	 mov	 eax, DWORD PTR _strGraphData$[ebp]
  00128	8b 48 f4	 mov	 ecx, DWORD PTR [eax-12]
  0012b	8b 45 f0	 mov	 eax, DWORD PTR _strAllSubGraphData$[ebp]
; File D:\git\src\IBK\IBK_DRFN\ProjSrc\SrcChartEx\ChartOCX\IndicatorCondition\IndicatorConditionBaseData.cpp

; 555  : 	nGraphDataLen += 11;								// "GraphEnd;\r\n"

  0012e	83 c1 13	 add	 ecx, 19			; 00000013H
; File C:\Program Files (x86)\Microsoft Visual Studio\2019\Community\VC\Tools\MSVC\14.29.30133\atlmfc\include\atlsimpstr.h

; 519  : 		return( GetData()->nDataLength );

  00131	8b 40 f4	 mov	 eax, DWORD PTR [eax-12]
; File D:\git\src\IBK\IBK_DRFN\ProjSrc\SrcChartEx\ChartOCX\IndicatorCondition\IndicatorConditionBaseData.cpp

; 555  : 	nGraphDataLen += 11;								// "GraphEnd;\r\n"

  00134	03 c1		 add	 eax, ecx

; 556  : 
; 557  : 	char *szGraphData = p_strGraphData.GetBufferSetLength( nGraphDataLen);

  00136	8b 4d 08	 mov	 ecx, DWORD PTR _p_strGraphData$[ebp]
  00139	50		 push	 eax
  0013a	ff 15 00 00 00
	00		 call	 DWORD PTR __imp_?GetBufferSetLength@?$CSimpleStringT@D$00@ATL@@QAEPADH@Z

; 558  : 
; 559  : 	strcpy( szGraphData, "Graph;\r\n");

  00140	f3 0f 7e 05 00
	00 00 00	 movq	 xmm0, QWORD PTR ??_C@_08BHMMGBBH@Graph?$DL?$AN?6@
  00148	8b f0		 mov	 esi, eax
  0014a	66 0f d6 06	 movq	 QWORD PTR [esi], xmm0
  0014e	8a 0d 08 00 00
	00		 mov	 cl, BYTE PTR ??_C@_08BHMMGBBH@Graph?$DL?$AN?6@+8
  00154	88 4e 08	 mov	 BYTE PTR [esi+8], cl

; 560  : 	szGraphData += 8;

  00157	83 c6 08	 add	 esi, 8
; File C:\Program Files (x86)\Microsoft Visual Studio\2019\Community\VC\Tools\MSVC\14.29.30133\atlmfc\include\atlsimpstr.h

; 377  : 		return( m_pszData );

  0015a	8b 4d ec	 mov	 ecx, DWORD PTR _strGraphData$[ebp]
; File D:\git\src\IBK\IBK_DRFN\ProjSrc\SrcChartEx\ChartOCX\IndicatorCondition\IndicatorConditionBaseData.cpp

; 562  : 	strcpy( szGraphData, strGraphData);

  0015d	8b d6		 mov	 edx, esi
  0015f	90		 npad	 1
$LL3@GetGraphDa:
  00160	8a 01		 mov	 al, BYTE PTR [ecx]
  00162	8d 49 01	 lea	 ecx, DWORD PTR [ecx+1]
  00165	88 02		 mov	 BYTE PTR [edx], al
  00167	8d 52 01	 lea	 edx, DWORD PTR [edx+1]
  0016a	84 c0		 test	 al, al
  0016c	75 f2		 jne	 SHORT $LL3@GetGraphDa

; 563  : 	szGraphData += strGraphData.GetLength();

  0016e	8b 45 ec	 mov	 eax, DWORD PTR _strGraphData$[ebp]
; File C:\Program Files (x86)\Microsoft Visual Studio\2019\Community\VC\Tools\MSVC\14.29.30133\atlmfc\include\atlsimpstr.h

; 377  : 		return( m_pszData );

  00171	8b 4d f0	 mov	 ecx, DWORD PTR _strAllSubGraphData$[ebp]
; File D:\git\src\IBK\IBK_DRFN\ProjSrc\SrcChartEx\ChartOCX\IndicatorCondition\IndicatorConditionBaseData.cpp

; 563  : 	szGraphData += strGraphData.GetLength();

  00174	03 70 f4	 add	 esi, DWORD PTR [eax-12]

; 564  : 
; 565  : 	strcpy( szGraphData, strAllSubGraphData);

  00177	8b d6		 mov	 edx, esi
  00179	0f 1f 80 00 00
	00 00		 npad	 7
$LL4@GetGraphDa:
  00180	8a 01		 mov	 al, BYTE PTR [ecx]
  00182	8d 49 01	 lea	 ecx, DWORD PTR [ecx+1]
  00185	88 02		 mov	 BYTE PTR [edx], al
  00187	8d 52 01	 lea	 edx, DWORD PTR [edx+1]
  0018a	84 c0		 test	 al, al
  0018c	75 f2		 jne	 SHORT $LL4@GetGraphDa

; 566  : 	szGraphData += strAllSubGraphData.GetLength();

  0018e	8b 45 f0	 mov	 eax, DWORD PTR _strAllSubGraphData$[ebp]

; 567  : 
; 568  : 	strcpy( szGraphData, "GraphEnd;\r\n");

  00191	f3 0f 7e 05 00
	00 00 00	 movq	 xmm0, QWORD PTR ??_C@_0M@DGHFHKEI@GraphEnd?$DL?$AN?6@
  00199	8b 48 f4	 mov	 ecx, DWORD PTR [eax-12]
  0019c	66 0f d6 04 31	 movq	 QWORD PTR [ecx+esi], xmm0
  001a1	a1 08 00 00 00	 mov	 eax, DWORD PTR ??_C@_0M@DGHFHKEI@GraphEnd?$DL?$AN?6@+8
  001a6	89 44 31 08	 mov	 DWORD PTR [ecx+esi+8], eax

; 569  : }

  001aa	8d 4d f0	 lea	 ecx, DWORD PTR _strAllSubGraphData$[ebp]
  001ad	ff 15 00 00 00
	00		 call	 DWORD PTR __imp_??1?$CStringT@DV?$StrTraitMFC_DLL@DV?$ChTraitsCRT@D@ATL@@@@@ATL@@QAE@XZ
  001b3	8d 4d ec	 lea	 ecx, DWORD PTR _strGraphData$[ebp]
  001b6	ff 15 00 00 00
	00		 call	 DWORD PTR __imp_??1?$CStringT@DV?$StrTraitMFC_DLL@DV?$ChTraitsCRT@D@ATL@@@@@ATL@@QAE@XZ
  001bc	8b 4d f4	 mov	 ecx, DWORD PTR __$EHRec$[ebp]
  001bf	64 89 0d 00 00
	00 00		 mov	 DWORD PTR fs:0, ecx
  001c6	59		 pop	 ecx
  001c7	5f		 pop	 edi
  001c8	5e		 pop	 esi
  001c9	5b		 pop	 ebx
  001ca	8b e5		 mov	 esp, ebp
  001cc	5d		 pop	 ebp
  001cd	c2 04 00	 ret	 4
$LN86@GetGraphDa:
; File C:\Program Files (x86)\Microsoft Visual Studio\2019\Community\VC\Tools\MSVC\14.29.30133\atlmfc\include\afxcoll.inl

; 504  : 			AfxThrowInvalidArgException();

  001d0	e8 00 00 00 00	 call	 ?AfxThrowInvalidArgException@@YGXXZ ; AfxThrowInvalidArgException
$LN100@GetGraphDa:
  001d5	cc		 int	 3
_TEXT	ENDS
;	COMDAT text$x
text$x	SEGMENT
__unwindfunclet$?GetGraphDataForMaking@CGraphPartData@@QBEXAAV?$CStringT@DV?$StrTraitMFC_DLL@DV?$ChTraitsCRT@D@ATL@@@@@ATL@@@Z$0:
  00000	8d 4d ec	 lea	 ecx, DWORD PTR _strGraphData$[ebp]
  00003	ff 25 00 00 00
	00		 jmp	 DWORD PTR __imp_??1?$CStringT@DV?$StrTraitMFC_DLL@DV?$ChTraitsCRT@D@ATL@@@@@ATL@@QAE@XZ
__unwindfunclet$?GetGraphDataForMaking@CGraphPartData@@QBEXAAV?$CStringT@DV?$StrTraitMFC_DLL@DV?$ChTraitsCRT@D@ATL@@@@@ATL@@@Z$1:
  00009	8d 4d f0	 lea	 ecx, DWORD PTR _strAllSubGraphData$[ebp]
  0000c	ff 25 00 00 00
	00		 jmp	 DWORD PTR __imp_??1?$CStringT@DV?$StrTraitMFC_DLL@DV?$ChTraitsCRT@D@ATL@@@@@ATL@@QAE@XZ
__unwindfunclet$?GetGraphDataForMaking@CGraphPartData@@QBEXAAV?$CStringT@DV?$StrTraitMFC_DLL@DV?$ChTraitsCRT@D@ATL@@@@@ATL@@@Z$2:
  00012	8d 4d c4	 lea	 ecx, DWORD PTR _slSubGraphData$2[ebp]
  00015	e9 00 00 00 00	 jmp	 ??1CStringList@@UAE@XZ	; CStringList::~CStringList
__unwindfunclet$?GetGraphDataForMaking@CGraphPartData@@QBEXAAV?$CStringT@DV?$StrTraitMFC_DLL@DV?$ChTraitsCRT@D@ATL@@@@@ATL@@@Z$3:
  0001a	8d 4d e4	 lea	 ecx, DWORD PTR $T3[ebp]
  0001d	ff 25 00 00 00
	00		 jmp	 DWORD PTR __imp_??1?$CStringT@DV?$StrTraitMFC_DLL@DV?$ChTraitsCRT@D@ATL@@@@@ATL@@QAE@XZ
  00023	cc		 int	 3
  00024	cc		 int	 3
  00025	cc		 int	 3
  00026	cc		 int	 3
  00027	cc		 int	 3
__ehhandler$?GetGraphDataForMaking@CGraphPartData@@QBEXAAV?$CStringT@DV?$StrTraitMFC_DLL@DV?$ChTraitsCRT@D@ATL@@@@@ATL@@@Z:
  00028	90		 npad	 1
  00029	90		 npad	 1
  0002a	8b 54 24 08	 mov	 edx, DWORD PTR [esp+8]
  0002e	8d 42 0c	 lea	 eax, DWORD PTR [edx+12]
  00031	8b 4a c0	 mov	 ecx, DWORD PTR [edx-64]
  00034	33 c8		 xor	 ecx, eax
  00036	e8 00 00 00 00	 call	 @__security_check_cookie@4
  0003b	b8 00 00 00 00	 mov	 eax, OFFSET __ehfuncinfo$?GetGraphDataForMaking@CGraphPartData@@QBEXAAV?$CStringT@DV?$StrTraitMFC_DLL@DV?$ChTraitsCRT@D@ATL@@@@@ATL@@@Z
  00040	e9 00 00 00 00	 jmp	 ___CxxFrameHandler3
text$x	ENDS
?GetGraphDataForMaking@CGraphPartData@@QBEXAAV?$CStringT@DV?$StrTraitMFC_DLL@DV?$ChTraitsCRT@D@ATL@@@@@ATL@@@Z ENDP ; CGraphPartData::GetGraphDataForMaking
; Function compile flags: /Ogtp
; File D:\git\src\IBK\IBK_DRFN\ProjSrc\SrcChartEx\ChartOCX\IndicatorCondition\IndicatorConditionBaseData.cpp
; File C:\Program Files (x86)\Microsoft Visual Studio\2019\Community\VC\Tools\MSVC\14.29.30133\include\list
; File D:\git\src\IBK\IBK_DRFN\ProjSrc\SrcChartEx\ChartOCX\IndicatorCondition\IndicatorConditionBaseData.cpp
; File C:\Program Files (x86)\Microsoft Visual Studio\2019\Community\VC\Tools\MSVC\14.29.30133\include\list
; File D:\git\src\IBK\IBK_DRFN\ProjSrc\SrcChartEx\ChartOCX\IndicatorCondition\IndicatorConditionBaseData.cpp
; File C:\Program Files (x86)\Microsoft Visual Studio\2019\Community\VC\Tools\MSVC\14.29.30133\include\list
; File D:\git\src\IBK\IBK_DRFN\ProjSrc\SrcChartEx\ChartOCX\IndicatorCondition\IndicatorConditionBaseData.cpp
; File C:\Program Files (x86)\Microsoft Visual Studio\2019\Community\VC\Tools\MSVC\14.29.30133\include\list
; File D:\git\src\IBK\IBK_DRFN\ProjSrc\SrcChartEx\ChartOCX\IndicatorCondition\IndicatorConditionBaseData.cpp
; File D:\git\src\IBK\IBK_DRFN\ProjSrc\SrcChartEx\ChartOCX\Include_Chart\GraphData.h
; File C:\Program Files (x86)\Microsoft Visual Studio\2019\Community\VC\Tools\MSVC\14.29.30133\atlmfc\include\atlsimpstr.h
; File D:\git\src\IBK\IBK_DRFN\ProjSrc\SrcChartEx\ChartOCX\IndicatorCondition\IndicatorConditionBaseData.cpp
; File C:\Program Files (x86)\Microsoft Visual Studio\2019\Community\VC\Tools\MSVC\14.29.30133\atlmfc\include\atlsimpstr.h
; File D:\git\src\IBK\IBK_DRFN\ProjSrc\SrcChartEx\ChartOCX\IndicatorCondition\IndicatorConditionBaseData.cpp
; File C:\Program Files (x86)\Microsoft Visual Studio\2019\Community\VC\Tools\MSVC\14.29.30133\atlmfc\include\afxtempl.h
; File D:\git\src\IBK\IBK_DRFN\ProjSrc\SrcChartEx\ChartOCX\IndicatorCondition\IndicatorConditionBaseData.cpp
; File C:\Program Files (x86)\Microsoft Visual Studio\2019\Community\VC\Tools\MSVC\14.29.30133\atlmfc\include\afxtempl.h
; File D:\git\src\IBK\IBK_DRFN\ProjSrc\SrcChartEx\ChartOCX\IndicatorCondition\IndicatorConditionBaseData.cpp
; File C:\Program Files (x86)\Microsoft Visual Studio\2019\Community\VC\Tools\MSVC\14.29.30133\atlmfc\include\afxtempl.h
; File D:\git\src\IBK\IBK_DRFN\ProjSrc\SrcChartEx\ChartOCX\IndicatorCondition\IndicatorConditionBaseData.cpp
; File C:\Program Files (x86)\Microsoft Visual Studio\2019\Community\VC\Tools\MSVC\14.29.30133\atlmfc\include\afxtempl.h
; File D:\git\src\IBK\IBK_DRFN\ProjSrc\SrcChartEx\ChartOCX\IndicatorCondition\IndicatorConditionBaseData.cpp
; File C:\Program Files (x86)\Microsoft Visual Studio\2019\Community\VC\Tools\MSVC\14.29.30133\atlmfc\include\cstringt.h
; File D:\git\src\IBK\IBK_DRFN\ProjSrc\SrcChartEx\ChartOCX\IndicatorCondition\IndicatorConditionBaseData.cpp
; File C:\Program Files (x86)\Microsoft Visual Studio\2019\Community\VC\Tools\MSVC\14.29.30133\atlmfc\include\cstringt.h
; File C:\Program Files (x86)\Microsoft Visual Studio\2019\Community\VC\Tools\MSVC\14.29.30133\atlmfc\include\atlsimpstr.h
; File C:\Program Files (x86)\Microsoft Visual Studio\2019\Community\VC\Tools\MSVC\14.29.30133\atlmfc\include\cstringt.h
; File D:\git\src\IBK\IBK_DRFN\ProjSrc\SrcChartEx\ChartOCX\IndicatorCondition\IndicatorConditionBaseData.cpp
;	COMDAT ?GetSubGraphTitle@CGraphPartData@@QBE?AV?$CStringT@DV?$StrTraitMFC_DLL@DV?$ChTraitsCRT@D@ATL@@@@@ATL@@H@Z
_TEXT	SEGMENT
_dData$2 = -32						; size = 8
_dData$3 = -32						; size = 8
$T4 = -28						; size = 4
$T5 = -24						; size = 4
$T6 = -20						; size = 4
_this$1$ = -16						; size = 4
$T7 = -16						; size = 4
_strCond$8 = -16					; size = 4
__$EHRec$ = -12						; size = 12
___$ReturnUdt$ = 8					; size = 4
$T9 = 12						; size = 4
_strIndicatorName$10 = 12				; size = 4
_strCond$11 = 12					; size = 4
_nSubGraphIndex$ = 12					; size = 4
?GetSubGraphTitle@CGraphPartData@@QBE?AV?$CStringT@DV?$StrTraitMFC_DLL@DV?$ChTraitsCRT@D@ATL@@@@@ATL@@H@Z PROC ; CGraphPartData::GetSubGraphTitle, COMDAT
; _this$ = ecx

; 511  : {

  00000	55		 push	 ebp
  00001	8b ec		 mov	 ebp, esp
  00003	6a ff		 push	 -1
  00005	68 00 00 00 00	 push	 __ehhandler$?GetSubGraphTitle@CGraphPartData@@QBE?AV?$CStringT@DV?$StrTraitMFC_DLL@DV?$ChTraitsCRT@D@ATL@@@@@ATL@@H@Z
  0000a	64 a1 00 00 00
	00		 mov	 eax, DWORD PTR fs:0
  00010	50		 push	 eax
  00011	83 ec 14	 sub	 esp, 20			; 00000014H
  00014	53		 push	 ebx
  00015	56		 push	 esi
  00016	57		 push	 edi
  00017	a1 00 00 00 00	 mov	 eax, DWORD PTR ___security_cookie
  0001c	33 c5		 xor	 eax, ebp
  0001e	50		 push	 eax
  0001f	8d 45 f4	 lea	 eax, DWORD PTR __$EHRec$[ebp]
  00022	64 a3 00 00 00
	00		 mov	 DWORD PTR fs:0, eax
  00028	89 4d f0	 mov	 DWORD PTR _this$1$[ebp], ecx
  0002b	c7 45 ec 00 00
	00 00		 mov	 DWORD PTR $T6[ebp], 0

; 1056 : 	if(nSubGraphIndex < 0 || nSubGraphIndex >= m_subGraphPartDataList.size())

  00032	8b 75 0c	 mov	 esi, DWORD PTR _nSubGraphIndex$[ebp]
  00035	85 f6		 test	 esi, esi
  00037	78 27		 js	 SHORT $LN142@GetSubGrap
  00039	3b 71 30	 cmp	 esi, DWORD PTR [ecx+48]
  0003c	73 22		 jae	 SHORT $LN142@GetSubGrap
; File C:\Program Files (x86)\Microsoft Visual Studio\2019\Community\VC\Tools\MSVC\14.29.30133\include\list

; 1087 :         return const_iterator(_Mypair._Myval2._Myhead->_Next, _STD addressof(_Mypair._Myval2));

  0003e	8b 59 2c	 mov	 ebx, DWORD PTR [ecx+44]
; File D:\git\src\IBK\IBK_DRFN\ProjSrc\SrcChartEx\ChartOCX\IndicatorCondition\IndicatorConditionBaseData.cpp

; 1059 : 	int nCount = 0;

  00041	33 d2		 xor	 edx, edx
; File C:\Program Files (x86)\Microsoft Visual Studio\2019\Community\VC\Tools\MSVC\14.29.30133\include\list

; 38   :     _List_unchecked_const_iterator(_Nodeptr _Pnode, const _Mylist* _Plist) noexcept : _Ptr(_Pnode) {

  00043	8b 03		 mov	 eax, DWORD PTR [ebx]
; File D:\git\src\IBK\IBK_DRFN\ProjSrc\SrcChartEx\ChartOCX\IndicatorCondition\IndicatorConditionBaseData.cpp

; 1061 : 	for(i = m_subGraphPartDataList.begin(); i != m_subGraphPartDataList.end(); ++i)

  00045	3b c3		 cmp	 eax, ebx
  00047	74 17		 je	 SHORT $LN142@GetSubGrap
  00049	0f 1f 80 00 00
	00 00		 npad	 7
$LL34@GetSubGrap:

; 1062 : 	{
; 1063 :         CSubGraphPartData* pSubGraphPartData = *i;

  00050	8b 78 08	 mov	 edi, DWORD PTR [eax+8]

; 1064 : 		assert(pSubGraphPartData != NULL);
; 1065 : 		if(nSubGraphIndex == nCount)

  00053	3b f2		 cmp	 esi, edx
  00055	74 2e		 je	 SHORT $LN15@GetSubGrap
; File C:\Program Files (x86)\Microsoft Visual Studio\2019\Community\VC\Tools\MSVC\14.29.30133\include\list

; 165  :         this->_Ptr = this->_Ptr->_Next;

  00057	8b 08		 mov	 ecx, DWORD PTR [eax]
; File D:\git\src\IBK\IBK_DRFN\ProjSrc\SrcChartEx\ChartOCX\IndicatorCondition\IndicatorConditionBaseData.cpp

; 1067 : 		nCount++;

  00059	42		 inc	 edx
; File C:\Program Files (x86)\Microsoft Visual Studio\2019\Community\VC\Tools\MSVC\14.29.30133\include\list

; 165  :         this->_Ptr = this->_Ptr->_Next;

  0005a	8b c1		 mov	 eax, ecx
; File D:\git\src\IBK\IBK_DRFN\ProjSrc\SrcChartEx\ChartOCX\IndicatorCondition\IndicatorConditionBaseData.cpp

; 1061 : 	for(i = m_subGraphPartDataList.begin(); i != m_subGraphPartDataList.end(); ++i)

  0005c	3b cb		 cmp	 ecx, ebx
  0005e	75 f0		 jne	 SHORT $LL34@GetSubGrap
$LN142@GetSubGrap:

; 514  : 		return "";

  00060	8b 4d 08	 mov	 ecx, DWORD PTR ___$ReturnUdt$[ebp]
  00063	68 00 00 00 00	 push	 OFFSET ??_C@_00CNPNBAHC@@
  00068	ff 15 00 00 00
	00		 call	 DWORD PTR __imp_??0?$CStringT@DV?$StrTraitMFC_DLL@DV?$ChTraitsCRT@D@ATL@@@@@ATL@@QAE@PBD@Z
$LN146@GetSubGrap:

; 531  : }

  0006e	8b 45 08	 mov	 eax, DWORD PTR ___$ReturnUdt$[ebp]
  00071	8b 4d f4	 mov	 ecx, DWORD PTR __$EHRec$[ebp]
  00074	64 89 0d 00 00
	00 00		 mov	 DWORD PTR fs:0, ecx
  0007b	59		 pop	 ecx
  0007c	5f		 pop	 edi
  0007d	5e		 pop	 esi
  0007e	5b		 pop	 ebx
  0007f	8b e5		 mov	 esp, ebp
  00081	5d		 pop	 ebp
  00082	c2 08 00	 ret	 8
$LN15@GetSubGrap:

; 512  : 	CSubGraphPartData* pSubGraphPartData = GetSubGraphPartData(nSubGraphIndex);
; 513  : 	if(pSubGraphPartData == NULL)

  00085	85 ff		 test	 edi, edi
  00087	74 d7		 je	 SHORT $LN142@GetSubGrap
; File D:\git\src\IBK\IBK_DRFN\ProjSrc\SrcChartEx\ChartOCX\Include_Chart\GraphData.h

; 229  : 	CString			GetIndicatorName( void) const							{	return m_strIndicatorName;					}

  00089	8b 45 f0	 mov	 eax, DWORD PTR _this$1$[ebp]
  0008c	8d 4d 0c	 lea	 ecx, DWORD PTR _strIndicatorName$10[ebp]
  0008f	83 c0 24	 add	 eax, 36			; 00000024H
  00092	50		 push	 eax
  00093	ff 15 00 00 00
	00		 call	 DWORD PTR __imp_??0?$CStringT@DV?$StrTraitMFC_DLL@DV?$ChTraitsCRT@D@ATL@@@@@ATL@@QAE@ABV01@@Z
; File C:\Program Files (x86)\Microsoft Visual Studio\2019\Community\VC\Tools\MSVC\14.29.30133\atlmfc\include\atlsimpstr.h

; 519  : 		return( GetData()->nDataLength );

  00099	8b 45 0c	 mov	 eax, DWORD PTR _strIndicatorName$10[ebp]
; File D:\git\src\IBK\IBK_DRFN\ProjSrc\SrcChartEx\ChartOCX\IndicatorCondition\IndicatorConditionBaseData.cpp

; 785  : 	CString strIndicatorName = m_graphData.GetIndicatorName();

  0009c	c7 45 fc 00 00
	00 00		 mov	 DWORD PTR __$EHRec$[ebp+8], 0
; File C:\Program Files (x86)\Microsoft Visual Studio\2019\Community\VC\Tools\MSVC\14.29.30133\atlmfc\include\atlsimpstr.h

; 533  : 		return( GetLength() == 0 );

  000a3	83 78 f4 00	 cmp	 DWORD PTR [eax-12], 0
; File D:\git\src\IBK\IBK_DRFN\ProjSrc\SrcChartEx\ChartOCX\IndicatorCondition\IndicatorConditionBaseData.cpp

; 786  : 	if(strIndicatorName.IsEmpty())

  000a7	0f 84 99 01 00
	00		 je	 $LN51@GetSubGrap

; 787  : 		return CIndiBaseData::BASE_TITLE;
; 788  : 
; 789  : 	if( g_iMetaTable.IsTitleOnlyCondition(strIndicatorName))

  000ad	8d 45 0c	 lea	 eax, DWORD PTR _strIndicatorName$10[ebp]
  000b0	b9 00 00 00 00	 mov	 ecx, OFFSET ?g_iMetaTable@@3VIMetaTable@@A ; g_iMetaTable
  000b5	50		 push	 eax
  000b6	e8 00 00 00 00	 call	 ?IsTitleOnlyCondition@IMetaTable@@QAE_NABV?$CStringT@DV?$StrTraitMFC_DLL@DV?$ChTraitsCRT@D@ATL@@@@@ATL@@@Z ; IMetaTable::IsTitleOnlyCondition
  000bb	84 c0		 test	 al, al
  000bd	74 7e		 je	 SHORT $LN49@GetSubGrap

; 790  : 		return CIndiBaseData::COND_TITLE;

  000bf	8d 4d 0c	 lea	 ecx, DWORD PTR _strIndicatorName$10[ebp]
  000c2	ff 15 00 00 00
	00		 call	 DWORD PTR __imp_??1?$CStringT@DV?$StrTraitMFC_DLL@DV?$ChTraitsCRT@D@ATL@@@@@ATL@@QAE@XZ

; 519  : 		CString strCond;

  000c8	8d 4d 0c	 lea	 ecx, DWORD PTR _strCond$11[ebp]
  000cb	ff 15 00 00 00
	00		 call	 DWORD PTR __imp_??0?$CStringT@DV?$StrTraitMFC_DLL@DV?$ChTraitsCRT@D@ATL@@@@@ATL@@QAE@XZ
; File C:\Program Files (x86)\Microsoft Visual Studio\2019\Community\VC\Tools\MSVC\14.29.30133\atlmfc\include\afxtempl.h

; 1133 : 	if (nIndex >= m_nCount || nIndex < 0)

  000d1	83 7f 14 00	 cmp	 DWORD PTR [edi+20], 0
; File D:\git\src\IBK\IBK_DRFN\ProjSrc\SrcChartEx\ChartOCX\IndicatorCondition\IndicatorConditionBaseData.cpp

; 519  : 		CString strCond;

  000d5	c7 45 fc 01 00
	00 00		 mov	 DWORD PTR __$EHRec$[ebp+8], 1
; File C:\Program Files (x86)\Microsoft Visual Studio\2019\Community\VC\Tools\MSVC\14.29.30133\atlmfc\include\afxtempl.h

; 1133 : 	if (nIndex >= m_nCount || nIndex < 0)

  000dc	0f 8e 64 01 00
	00		 jle	 $LN51@GetSubGrap

; 1134 : 		return NULL;  // went too far
; 1135 : 
; 1136 : 	CNode* pNode = m_pNodeHead;

  000e2	8b 47 0c	 mov	 eax, DWORD PTR [edi+12]
; File D:\git\src\IBK\IBK_DRFN\ProjSrc\SrcChartEx\ChartOCX\IndicatorCondition\IndicatorConditionBaseData.cpp

; 94   : 	if(pos == NULL)

  000e5	85 c0		 test	 eax, eax
  000e7	0f 84 59 01 00
	00		 je	 $LN51@GetSubGrap

; 95   : 		return false;
; 96   : 
; 97   : 	dData = m_calConditionList.GetAt(pos);

  000ed	f2 0f 10 40 08	 movsd	 xmm0, QWORD PTR [eax+8]

; 107  : 	strData = CDataConversion::DoubleToString(dData);

  000f2	8d 45 e0	 lea	 eax, DWORD PTR _dData$3[ebp]
  000f5	50		 push	 eax
  000f6	8d 45 f0	 lea	 eax, DWORD PTR $T7[ebp]

; 97   : 	dData = m_calConditionList.GetAt(pos);

  000f9	f2 0f 11 45 e0	 movsd	 QWORD PTR _dData$3[ebp], xmm0

; 107  : 	strData = CDataConversion::DoubleToString(dData);

  000fe	50		 push	 eax
  000ff	e8 00 00 00 00	 call	 ?DoubleToString@CDataConversion@@SA?AV?$CStringT@DV?$StrTraitMFC_DLL@DV?$ChTraitsCRT@D@ATL@@@@@ATL@@ABN@Z ; CDataConversion::DoubleToString
  00104	83 c4 08	 add	 esp, 8
  00107	50		 push	 eax
  00108	8d 4d 0c	 lea	 ecx, DWORD PTR _strCond$11[ebp]
  0010b	c6 45 fc 02	 mov	 BYTE PTR __$EHRec$[ebp+8], 2
  0010f	ff 15 00 00 00
	00		 call	 DWORD PTR __imp_??4?$CStringT@DV?$StrTraitMFC_DLL@DV?$ChTraitsCRT@D@ATL@@@@@ATL@@QAEAAV01@ABV01@@Z
  00115	8d 4d f0	 lea	 ecx, DWORD PTR $T7[ebp]
  00118	c6 45 fc 01	 mov	 BYTE PTR __$EHRec$[ebp+8], 1
  0011c	ff 15 00 00 00
	00		 call	 DWORD PTR __imp_??1?$CStringT@DV?$StrTraitMFC_DLL@DV?$ChTraitsCRT@D@ATL@@@@@ATL@@QAE@XZ

; 520  : 		if(pSubGraphPartData->GetConditionData(0, strCond))
; 521  : 			return strCond;

  00122	8b 4d 08	 mov	 ecx, DWORD PTR ___$ReturnUdt$[ebp]
  00125	8d 45 0c	 lea	 eax, DWORD PTR _strCond$11[ebp]
  00128	50		 push	 eax
  00129	ff 15 00 00 00
	00		 call	 DWORD PTR __imp_??0?$CStringT@DV?$StrTraitMFC_DLL@DV?$ChTraitsCRT@D@ATL@@@@@ATL@@QAE@ABV01@@Z
  0012f	8d 4d 0c	 lea	 ecx, DWORD PTR _strCond$11[ebp]
  00132	ff 15 00 00 00
	00		 call	 DWORD PTR __imp_??1?$CStringT@DV?$StrTraitMFC_DLL@DV?$ChTraitsCRT@D@ATL@@@@@ATL@@QAE@XZ
  00138	e9 31 ff ff ff	 jmp	 $LN146@GetSubGrap
$LN49@GetSubGrap:

; 791  : 	else if( g_iMetaTable.IsTitleOrCondition(strIndicatorName))

  0013d	8d 45 0c	 lea	 eax, DWORD PTR _strIndicatorName$10[ebp]
  00140	b9 00 00 00 00	 mov	 ecx, OFFSET ?g_iMetaTable@@3VIMetaTable@@A ; g_iMetaTable
  00145	50		 push	 eax
  00146	e8 00 00 00 00	 call	 ?IsTitleOrCondition@IMetaTable@@QAE_NABV?$CStringT@DV?$StrTraitMFC_DLL@DV?$ChTraitsCRT@D@ATL@@@@@ATL@@@Z ; IMetaTable::IsTitleOrCondition
  0014b	84 c0		 test	 al, al
  0014d	0f 84 f3 00 00
	00		 je	 $LN51@GetSubGrap

; 792  : 		return CIndiBaseData::BASE_COND_TITLE;

  00153	8d 4d 0c	 lea	 ecx, DWORD PTR _strIndicatorName$10[ebp]
  00156	ff 15 00 00 00
	00		 call	 DWORD PTR __imp_??1?$CStringT@DV?$StrTraitMFC_DLL@DV?$ChTraitsCRT@D@ATL@@@@@ATL@@QAE@XZ

; 525  : 		CString strCond;

  0015c	8d 4d f0	 lea	 ecx, DWORD PTR _strCond$8[ebp]
  0015f	ff 15 00 00 00
	00		 call	 DWORD PTR __imp_??0?$CStringT@DV?$StrTraitMFC_DLL@DV?$ChTraitsCRT@D@ATL@@@@@ATL@@QAE@XZ
; File C:\Program Files (x86)\Microsoft Visual Studio\2019\Community\VC\Tools\MSVC\14.29.30133\atlmfc\include\afxtempl.h

; 1133 : 	if (nIndex >= m_nCount || nIndex < 0)

  00165	83 7f 14 00	 cmp	 DWORD PTR [edi+20], 0
; File D:\git\src\IBK\IBK_DRFN\ProjSrc\SrcChartEx\ChartOCX\IndicatorCondition\IndicatorConditionBaseData.cpp

; 525  : 		CString strCond;

  00169	c7 45 fc 03 00
	00 00		 mov	 DWORD PTR __$EHRec$[ebp+8], 3
; File C:\Program Files (x86)\Microsoft Visual Studio\2019\Community\VC\Tools\MSVC\14.29.30133\atlmfc\include\afxtempl.h

; 1133 : 	if (nIndex >= m_nCount || nIndex < 0)

  00170	0f 8e cb 00 00
	00		 jle	 $LN7@GetSubGrap

; 1134 : 		return NULL;  // went too far
; 1135 : 
; 1136 : 	CNode* pNode = m_pNodeHead;

  00176	8b 47 0c	 mov	 eax, DWORD PTR [edi+12]
; File D:\git\src\IBK\IBK_DRFN\ProjSrc\SrcChartEx\ChartOCX\IndicatorCondition\IndicatorConditionBaseData.cpp

; 94   : 	if(pos == NULL)

  00179	85 c0		 test	 eax, eax
  0017b	0f 84 c0 00 00
	00		 je	 $LN7@GetSubGrap

; 95   : 		return false;
; 96   : 
; 97   : 	dData = m_calConditionList.GetAt(pos);

  00181	f2 0f 10 40 08	 movsd	 xmm0, QWORD PTR [eax+8]

; 107  : 	strData = CDataConversion::DoubleToString(dData);

  00186	8d 45 e0	 lea	 eax, DWORD PTR _dData$2[ebp]
  00189	50		 push	 eax
  0018a	8d 45 0c	 lea	 eax, DWORD PTR $T9[ebp]

; 97   : 	dData = m_calConditionList.GetAt(pos);

  0018d	f2 0f 11 45 e0	 movsd	 QWORD PTR _dData$2[ebp], xmm0

; 107  : 	strData = CDataConversion::DoubleToString(dData);

  00192	50		 push	 eax
  00193	e8 00 00 00 00	 call	 ?DoubleToString@CDataConversion@@SA?AV?$CStringT@DV?$StrTraitMFC_DLL@DV?$ChTraitsCRT@D@ATL@@@@@ATL@@ABN@Z ; CDataConversion::DoubleToString
  00198	83 c4 08	 add	 esp, 8
  0019b	50		 push	 eax
  0019c	8d 4d f0	 lea	 ecx, DWORD PTR _strCond$8[ebp]
  0019f	c6 45 fc 04	 mov	 BYTE PTR __$EHRec$[ebp+8], 4
  001a3	ff 15 00 00 00
	00		 call	 DWORD PTR __imp_??4?$CStringT@DV?$StrTraitMFC_DLL@DV?$ChTraitsCRT@D@ATL@@@@@ATL@@QAEAAV01@ABV01@@Z
  001a9	8d 4d 0c	 lea	 ecx, DWORD PTR $T9[ebp]
  001ac	c6 45 fc 03	 mov	 BYTE PTR __$EHRec$[ebp+8], 3
  001b0	ff 15 00 00 00
	00		 call	 DWORD PTR __imp_??1?$CStringT@DV?$StrTraitMFC_DLL@DV?$ChTraitsCRT@D@ATL@@@@@ATL@@QAE@XZ

; 527  : 			return (pSubGraphPartData->GetSubGraphData().GetTitle() + "_" + strCond);

  001b6	8d 45 e4	 lea	 eax, DWORD PTR $T4[ebp]
  001b9	50		 push	 eax
  001ba	8d 4f 24	 lea	 ecx, DWORD PTR [edi+36]
  001bd	e8 00 00 00 00	 call	 ?GetTitle@CSubGraphDataBase@@QBE?AV?$CStringT@DV?$StrTraitMFC_DLL@DV?$ChTraitsCRT@D@ATL@@@@@ATL@@XZ ; CSubGraphDataBase::GetTitle
  001c2	68 00 00 00 00	 push	 OFFSET ??_C@_01IDAFKMJL@_@
  001c7	50		 push	 eax
  001c8	8d 45 e8	 lea	 eax, DWORD PTR $T5[ebp]
  001cb	c6 45 fc 05	 mov	 BYTE PTR __$EHRec$[ebp+8], 5
  001cf	50		 push	 eax
  001d0	e8 00 00 00 00	 call	 ??HATL@@YA?AV?$CStringT@DV?$StrTraitMFC_DLL@DV?$ChTraitsCRT@D@ATL@@@@@0@ABV10@PBD@Z ; ATL::operator+
  001d5	83 c4 0c	 add	 esp, 12			; 0000000cH
  001d8	8b f0		 mov	 esi, eax
; File C:\Program Files (x86)\Microsoft Visual Studio\2019\Community\VC\Tools\MSVC\14.29.30133\atlmfc\include\cstringt.h

; 2390 : 		CStringT strResult( str1.GetManager() );

  001da	8b ce		 mov	 ecx, esi
; File D:\git\src\IBK\IBK_DRFN\ProjSrc\SrcChartEx\ChartOCX\IndicatorCondition\IndicatorConditionBaseData.cpp

; 527  : 			return (pSubGraphPartData->GetSubGraphData().GetTitle() + "_" + strCond);

  001dc	c6 45 fc 07	 mov	 BYTE PTR __$EHRec$[ebp+8], 7
; File C:\Program Files (x86)\Microsoft Visual Studio\2019\Community\VC\Tools\MSVC\14.29.30133\atlmfc\include\cstringt.h

; 2390 : 		CStringT strResult( str1.GetManager() );

  001e0	ff 15 00 00 00
	00		 call	 DWORD PTR __imp_?GetManager@?$CStringT@DV?$StrTraitMFC_DLL@DV?$ChTraitsCRT@D@ATL@@@@@ATL@@QBEPAUIAtlStringMgr@2@XZ
  001e6	8b 7d 08	 mov	 edi, DWORD PTR ___$ReturnUdt$[ebp]
  001e9	8b cf		 mov	 ecx, edi
  001eb	50		 push	 eax
  001ec	ff 15 00 00 00
	00		 call	 DWORD PTR __imp_??0?$CStringT@DV?$StrTraitMFC_DLL@DV?$ChTraitsCRT@D@ATL@@@@@ATL@@QAE@PAUIAtlStringMgr@1@@Z

; 2391 : 
; 2392 : 		CThisSimpleString::Concatenate( strResult, str1, str1.GetLength(), str2, str2.GetLength() );

  001f2	8b 45 f0	 mov	 eax, DWORD PTR _strCond$8[ebp]
; File C:\Program Files (x86)\Microsoft Visual Studio\2019\Community\VC\Tools\MSVC\14.29.30133\atlmfc\include\atlsimpstr.h

; 519  : 		return( GetData()->nDataLength );

  001f5	8b 0e		 mov	 ecx, DWORD PTR [esi]
; File C:\Program Files (x86)\Microsoft Visual Studio\2019\Community\VC\Tools\MSVC\14.29.30133\atlmfc\include\cstringt.h

; 2394 : 		return( strResult );

  001f7	c7 45 ec 0a 00
	00 00		 mov	 DWORD PTR $T6[ebp], 10	; 0000000aH
  001fe	ff 70 f4	 push	 DWORD PTR [eax-12]
  00201	50		 push	 eax
  00202	ff 71 f4	 push	 DWORD PTR [ecx-12]
  00205	51		 push	 ecx
  00206	57		 push	 edi
  00207	ff 15 00 00 00
	00		 call	 DWORD PTR __imp_?Concatenate@?$CSimpleStringT@D$00@ATL@@KAXAAV12@PBDH1H@Z
  0020d	83 c4 14	 add	 esp, 20			; 00000014H
; File D:\git\src\IBK\IBK_DRFN\ProjSrc\SrcChartEx\ChartOCX\IndicatorCondition\IndicatorConditionBaseData.cpp

; 527  : 			return (pSubGraphPartData->GetSubGraphData().GetTitle() + "_" + strCond);

  00210	8d 4d e8	 lea	 ecx, DWORD PTR $T5[ebp]
  00213	ff 15 00 00 00
	00		 call	 DWORD PTR __imp_??1?$CStringT@DV?$StrTraitMFC_DLL@DV?$ChTraitsCRT@D@ATL@@@@@ATL@@QAE@XZ
  00219	8d 4d e4	 lea	 ecx, DWORD PTR $T4[ebp]
  0021c	ff 15 00 00 00
	00		 call	 DWORD PTR __imp_??1?$CStringT@DV?$StrTraitMFC_DLL@DV?$ChTraitsCRT@D@ATL@@@@@ATL@@QAE@XZ
  00222	8d 4d f0	 lea	 ecx, DWORD PTR _strCond$8[ebp]
  00225	ff 15 00 00 00
	00		 call	 DWORD PTR __imp_??1?$CStringT@DV?$StrTraitMFC_DLL@DV?$ChTraitsCRT@D@ATL@@@@@ATL@@QAE@XZ
  0022b	8b c7		 mov	 eax, edi

; 531  : }

  0022d	8b 4d f4	 mov	 ecx, DWORD PTR __$EHRec$[ebp]
  00230	64 89 0d 00 00
	00 00		 mov	 DWORD PTR fs:0, ecx
  00237	59		 pop	 ecx
  00238	5f		 pop	 edi
  00239	5e		 pop	 esi
  0023a	5b		 pop	 ebx
  0023b	8b e5		 mov	 esp, ebp
  0023d	5d		 pop	 ebp
  0023e	c2 08 00	 ret	 8
$LN7@GetSubGrap:

; 528  : 	}

  00241	8d 4d f0	 lea	 ecx, DWORD PTR _strCond$8[ebp]
  00244	eb 03		 jmp	 SHORT $LN147@GetSubGrap
$LN51@GetSubGrap:

; 529  : 
; 530  : 	return pSubGraphPartData->GetSubGraphData().GetTitle();

  00246	8d 4d 0c	 lea	 ecx, DWORD PTR _strIndicatorName$10[ebp]
$LN147@GetSubGrap:
  00249	c7 45 fc ff ff
	ff ff		 mov	 DWORD PTR __$EHRec$[ebp+8], -1
  00250	ff 15 00 00 00
	00		 call	 DWORD PTR __imp_??1?$CStringT@DV?$StrTraitMFC_DLL@DV?$ChTraitsCRT@D@ATL@@@@@ATL@@QAE@XZ
  00256	8b 75 08	 mov	 esi, DWORD PTR ___$ReturnUdt$[ebp]
  00259	8d 4f 24	 lea	 ecx, DWORD PTR [edi+36]
  0025c	56		 push	 esi
  0025d	e8 00 00 00 00	 call	 ?GetTitle@CSubGraphDataBase@@QBE?AV?$CStringT@DV?$StrTraitMFC_DLL@DV?$ChTraitsCRT@D@ATL@@@@@ATL@@XZ ; CSubGraphDataBase::GetTitle
  00262	8b c6		 mov	 eax, esi

; 531  : }

  00264	8b 4d f4	 mov	 ecx, DWORD PTR __$EHRec$[ebp]
  00267	64 89 0d 00 00
	00 00		 mov	 DWORD PTR fs:0, ecx
  0026e	59		 pop	 ecx
  0026f	5f		 pop	 edi
  00270	5e		 pop	 esi
  00271	5b		 pop	 ebx
  00272	8b e5		 mov	 esp, ebp
  00274	5d		 pop	 ebp
  00275	c2 08 00	 ret	 8
_TEXT	ENDS
;	COMDAT text$x
text$x	SEGMENT
__unwindfunclet$?GetSubGraphTitle@CGraphPartData@@QBE?AV?$CStringT@DV?$StrTraitMFC_DLL@DV?$ChTraitsCRT@D@ATL@@@@@ATL@@H@Z$5:
  00000	8d 4d 0c	 lea	 ecx, DWORD PTR _strIndicatorName$10[ebp]
  00003	ff 25 00 00 00
	00		 jmp	 DWORD PTR __imp_??1?$CStringT@DV?$StrTraitMFC_DLL@DV?$ChTraitsCRT@D@ATL@@@@@ATL@@QAE@XZ
__unwindfunclet$?GetSubGraphTitle@CGraphPartData@@QBE?AV?$CStringT@DV?$StrTraitMFC_DLL@DV?$ChTraitsCRT@D@ATL@@@@@ATL@@H@Z$1:
  00009	8d 4d 0c	 lea	 ecx, DWORD PTR _strCond$11[ebp]
  0000c	ff 25 00 00 00
	00		 jmp	 DWORD PTR __imp_??1?$CStringT@DV?$StrTraitMFC_DLL@DV?$ChTraitsCRT@D@ATL@@@@@ATL@@QAE@XZ
__unwindfunclet$?GetSubGraphTitle@CGraphPartData@@QBE?AV?$CStringT@DV?$StrTraitMFC_DLL@DV?$ChTraitsCRT@D@ATL@@@@@ATL@@H@Z$7:
  00012	8d 4d f0	 lea	 ecx, DWORD PTR $T7[ebp]
  00015	ff 25 00 00 00
	00		 jmp	 DWORD PTR __imp_??1?$CStringT@DV?$StrTraitMFC_DLL@DV?$ChTraitsCRT@D@ATL@@@@@ATL@@QAE@XZ
__unwindfunclet$?GetSubGraphTitle@CGraphPartData@@QBE?AV?$CStringT@DV?$StrTraitMFC_DLL@DV?$ChTraitsCRT@D@ATL@@@@@ATL@@H@Z$2:
  0001b	8d 4d f0	 lea	 ecx, DWORD PTR _strCond$8[ebp]
  0001e	ff 25 00 00 00
	00		 jmp	 DWORD PTR __imp_??1?$CStringT@DV?$StrTraitMFC_DLL@DV?$ChTraitsCRT@D@ATL@@@@@ATL@@QAE@XZ
__unwindfunclet$?GetSubGraphTitle@CGraphPartData@@QBE?AV?$CStringT@DV?$StrTraitMFC_DLL@DV?$ChTraitsCRT@D@ATL@@@@@ATL@@H@Z$8:
  00024	8d 4d 0c	 lea	 ecx, DWORD PTR $T9[ebp]
  00027	ff 25 00 00 00
	00		 jmp	 DWORD PTR __imp_??1?$CStringT@DV?$StrTraitMFC_DLL@DV?$ChTraitsCRT@D@ATL@@@@@ATL@@QAE@XZ
__unwindfunclet$?GetSubGraphTitle@CGraphPartData@@QBE?AV?$CStringT@DV?$StrTraitMFC_DLL@DV?$ChTraitsCRT@D@ATL@@@@@ATL@@H@Z$3:
  0002d	8d 4d e4	 lea	 ecx, DWORD PTR $T4[ebp]
  00030	ff 25 00 00 00
	00		 jmp	 DWORD PTR __imp_??1?$CStringT@DV?$StrTraitMFC_DLL@DV?$ChTraitsCRT@D@ATL@@@@@ATL@@QAE@XZ
__unwindfunclet$?GetSubGraphTitle@CGraphPartData@@QBE?AV?$CStringT@DV?$StrTraitMFC_DLL@DV?$ChTraitsCRT@D@ATL@@@@@ATL@@H@Z$4:
  00036	8d 4d e8	 lea	 ecx, DWORD PTR $T5[ebp]
  00039	ff 25 00 00 00
	00		 jmp	 DWORD PTR __imp_??1?$CStringT@DV?$StrTraitMFC_DLL@DV?$ChTraitsCRT@D@ATL@@@@@ATL@@QAE@XZ
__unwindfunclet$?GetSubGraphTitle@CGraphPartData@@QBE?AV?$CStringT@DV?$StrTraitMFC_DLL@DV?$ChTraitsCRT@D@ATL@@@@@ATL@@H@Z$10:
  0003f	8b 45 ec	 mov	 eax, DWORD PTR $T6[ebp]
  00042	83 e0 08	 and	 eax, 8
  00045	0f 84 0d 00 00
	00		 je	 $LN108@GetSubGrap
  0004b	83 65 ec f7	 and	 DWORD PTR $T6[ebp], -9	; fffffff7H
  0004f	8b 4d 08	 mov	 ecx, DWORD PTR ___$ReturnUdt$[ebp]
  00052	ff 25 00 00 00
	00		 jmp	 DWORD PTR __imp_??1?$CStringT@DV?$StrTraitMFC_DLL@DV?$ChTraitsCRT@D@ATL@@@@@ATL@@QAE@XZ
$LN108@GetSubGrap:
  00058	c3		 ret	 0
  00059	cc		 int	 3
  0005a	cc		 int	 3
  0005b	cc		 int	 3
  0005c	cc		 int	 3
  0005d	cc		 int	 3
__ehhandler$?GetSubGraphTitle@CGraphPartData@@QBE?AV?$CStringT@DV?$StrTraitMFC_DLL@DV?$ChTraitsCRT@D@ATL@@@@@ATL@@H@Z:
  0005e	90		 npad	 1
  0005f	90		 npad	 1
  00060	8b 54 24 08	 mov	 edx, DWORD PTR [esp+8]
  00064	8d 42 0c	 lea	 eax, DWORD PTR [edx+12]
  00067	8b 4a dc	 mov	 ecx, DWORD PTR [edx-36]
  0006a	33 c8		 xor	 ecx, eax
  0006c	e8 00 00 00 00	 call	 @__security_check_cookie@4
  00071	b8 00 00 00 00	 mov	 eax, OFFSET __ehfuncinfo$?GetSubGraphTitle@CGraphPartData@@QBE?AV?$CStringT@DV?$StrTraitMFC_DLL@DV?$ChTraitsCRT@D@ATL@@@@@ATL@@H@Z
  00076	e9 00 00 00 00	 jmp	 ___CxxFrameHandler3
text$x	ENDS
?GetSubGraphTitle@CGraphPartData@@QBE?AV?$CStringT@DV?$StrTraitMFC_DLL@DV?$ChTraitsCRT@D@ATL@@@@@ATL@@H@Z ENDP ; CGraphPartData::GetSubGraphTitle
; Function compile flags: /Ogtp
; File D:\git\src\IBK\IBK_DRFN\ProjSrc\SrcChartEx\ChartOCX\IndicatorCondition\IndicatorConditionBaseData.cpp
; File C:\Program Files (x86)\Microsoft Visual Studio\2019\Community\VC\Tools\MSVC\14.29.30133\include\list
; File D:\git\src\IBK\IBK_DRFN\ProjSrc\SrcChartEx\ChartOCX\IndicatorCondition\IndicatorConditionBaseData.cpp
; File C:\Program Files (x86)\Microsoft Visual Studio\2019\Community\VC\Tools\MSVC\14.29.30133\include\list
; File D:\git\src\IBK\IBK_DRFN\ProjSrc\SrcChartEx\ChartOCX\IndicatorCondition\IndicatorConditionBaseData.cpp
; File C:\Program Files (x86)\Microsoft Visual Studio\2019\Community\VC\Tools\MSVC\14.29.30133\include\list
; File D:\git\src\IBK\IBK_DRFN\ProjSrc\SrcChartEx\ChartOCX\IndicatorCondition\IndicatorConditionBaseData.cpp
; File C:\Program Files (x86)\Microsoft Visual Studio\2019\Community\VC\Tools\MSVC\14.29.30133\include\list
; File D:\git\src\IBK\IBK_DRFN\ProjSrc\SrcChartEx\ChartOCX\IndicatorCondition\IndicatorConditionBaseData.cpp
;	COMDAT ?GetPacketNames@CGraphPartData@@QBE?AV?$CStringT@DV?$StrTraitMFC_DLL@DV?$ChTraitsCRT@D@ATL@@@@@ATL@@H@Z
_TEXT	SEGMENT
___$ReturnUdt$ = 8					; size = 4
_nSubGraphIndex$ = 12					; size = 4
?GetPacketNames@CGraphPartData@@QBE?AV?$CStringT@DV?$StrTraitMFC_DLL@DV?$ChTraitsCRT@D@ATL@@@@@ATL@@H@Z PROC ; CGraphPartData::GetPacketNames, COMDAT
; _this$ = ecx

; 502  : {

  00000	55		 push	 ebp
  00001	8b ec		 mov	 ebp, esp
  00003	56		 push	 esi

; 1056 : 	if(nSubGraphIndex < 0 || nSubGraphIndex >= m_subGraphPartDataList.size())

  00004	8b 75 0c	 mov	 esi, DWORD PTR _nSubGraphIndex$[ebp]

; 502  : {

  00007	57		 push	 edi

; 1056 : 	if(nSubGraphIndex < 0 || nSubGraphIndex >= m_subGraphPartDataList.size())

  00008	85 f6		 test	 esi, esi
  0000a	78 22		 js	 SHORT $LN47@GetPacketN
  0000c	3b 71 30	 cmp	 esi, DWORD PTR [ecx+48]
  0000f	73 1d		 jae	 SHORT $LN47@GetPacketN
; File C:\Program Files (x86)\Microsoft Visual Studio\2019\Community\VC\Tools\MSVC\14.29.30133\include\list

; 1087 :         return const_iterator(_Mypair._Myval2._Myhead->_Next, _STD addressof(_Mypair._Myval2));

  00011	8b 49 2c	 mov	 ecx, DWORD PTR [ecx+44]
; File D:\git\src\IBK\IBK_DRFN\ProjSrc\SrcChartEx\ChartOCX\IndicatorCondition\IndicatorConditionBaseData.cpp

; 1059 : 	int nCount = 0;

  00014	33 d2		 xor	 edx, edx
; File C:\Program Files (x86)\Microsoft Visual Studio\2019\Community\VC\Tools\MSVC\14.29.30133\include\list

; 38   :     _List_unchecked_const_iterator(_Nodeptr _Pnode, const _Mylist* _Plist) noexcept : _Ptr(_Pnode) {

  00016	8b 01		 mov	 eax, DWORD PTR [ecx]
  00018	3b c1		 cmp	 eax, ecx
; File D:\git\src\IBK\IBK_DRFN\ProjSrc\SrcChartEx\ChartOCX\IndicatorCondition\IndicatorConditionBaseData.cpp

; 1061 : 	for(i = m_subGraphPartDataList.begin(); i != m_subGraphPartDataList.end(); ++i)

  0001a	74 12		 je	 SHORT $LN47@GetPacketN
  0001c	0f 1f 40 00	 npad	 4
$LL25@GetPacketN:

; 1062 : 	{
; 1063 :         CSubGraphPartData* pSubGraphPartData = *i;

  00020	8b 78 08	 mov	 edi, DWORD PTR [eax+8]

; 1064 : 		assert(pSubGraphPartData != NULL);
; 1065 : 		if(nSubGraphIndex == nCount)

  00023	3b f2		 cmp	 esi, edx
  00025	74 1e		 je	 SHORT $LN6@GetPacketN
; File C:\Program Files (x86)\Microsoft Visual Studio\2019\Community\VC\Tools\MSVC\14.29.30133\include\list

; 165  :         this->_Ptr = this->_Ptr->_Next;

  00027	8b 00		 mov	 eax, DWORD PTR [eax]
; File D:\git\src\IBK\IBK_DRFN\ProjSrc\SrcChartEx\ChartOCX\IndicatorCondition\IndicatorConditionBaseData.cpp

; 1067 : 		nCount++;

  00029	42		 inc	 edx
; File C:\Program Files (x86)\Microsoft Visual Studio\2019\Community\VC\Tools\MSVC\14.29.30133\include\list

; 198  :         return this->_Ptr == _Right._Ptr;

  0002a	3b c1		 cmp	 eax, ecx
; File D:\git\src\IBK\IBK_DRFN\ProjSrc\SrcChartEx\ChartOCX\IndicatorCondition\IndicatorConditionBaseData.cpp

; 1061 : 	for(i = m_subGraphPartDataList.begin(); i != m_subGraphPartDataList.end(); ++i)

  0002c	75 f2		 jne	 SHORT $LL25@GetPacketN
$LN47@GetPacketN:

; 505  : 		return "";

  0002e	8b 4d 08	 mov	 ecx, DWORD PTR ___$ReturnUdt$[ebp]
  00031	68 00 00 00 00	 push	 OFFSET ??_C@_00CNPNBAHC@@
  00036	ff 15 00 00 00
	00		 call	 DWORD PTR __imp_??0?$CStringT@DV?$StrTraitMFC_DLL@DV?$ChTraitsCRT@D@ATL@@@@@ATL@@QAE@PBD@Z

; 506  : 
; 507  : 	return pSubGraphPartData->GetCalPacketNames();
; 508  : }

  0003c	8b 45 08	 mov	 eax, DWORD PTR ___$ReturnUdt$[ebp]
  0003f	5f		 pop	 edi
  00040	5e		 pop	 esi
  00041	5d		 pop	 ebp
  00042	c2 08 00	 ret	 8
$LN6@GetPacketN:

; 503  : 	CSubGraphPartData* pSubGraphPartData = GetSubGraphPartData(nSubGraphIndex);
; 504  : 	if(pSubGraphPartData == NULL)

  00045	85 ff		 test	 edi, edi
  00047	74 e5		 je	 SHORT $LN47@GetPacketN

; 113  : 	return m_strCalPacketNames;

  00049	8b 4d 08	 mov	 ecx, DWORD PTR ___$ReturnUdt$[ebp]
  0004c	8d 47 04	 lea	 eax, DWORD PTR [edi+4]
  0004f	50		 push	 eax
  00050	ff 15 00 00 00
	00		 call	 DWORD PTR __imp_??0?$CStringT@DV?$StrTraitMFC_DLL@DV?$ChTraitsCRT@D@ATL@@@@@ATL@@QAE@ABV01@@Z

; 506  : 
; 507  : 	return pSubGraphPartData->GetCalPacketNames();
; 508  : }

  00056	8b 45 08	 mov	 eax, DWORD PTR ___$ReturnUdt$[ebp]
  00059	5f		 pop	 edi
  0005a	5e		 pop	 esi
  0005b	5d		 pop	 ebp
  0005c	c2 08 00	 ret	 8
?GetPacketNames@CGraphPartData@@QBE?AV?$CStringT@DV?$StrTraitMFC_DLL@DV?$ChTraitsCRT@D@ATL@@@@@ATL@@H@Z ENDP ; CGraphPartData::GetPacketNames
_TEXT	ENDS
; Function compile flags: /Ogtp
; File D:\git\src\IBK\IBK_DRFN\ProjSrc\SrcChartEx\ChartOCX\IndicatorCondition\IndicatorConditionBaseData.cpp
; File C:\Program Files (x86)\Microsoft Visual Studio\2019\Community\VC\Tools\MSVC\14.29.30133\include\list
; File D:\git\src\IBK\IBK_DRFN\ProjSrc\SrcChartEx\ChartOCX\IndicatorCondition\IndicatorConditionBaseData.cpp
; File C:\Program Files (x86)\Microsoft Visual Studio\2019\Community\VC\Tools\MSVC\14.29.30133\include\list
; File D:\git\src\IBK\IBK_DRFN\ProjSrc\SrcChartEx\ChartOCX\IndicatorCondition\IndicatorConditionBaseData.cpp
; File C:\Program Files (x86)\Microsoft Visual Studio\2019\Community\VC\Tools\MSVC\14.29.30133\include\list
; File D:\git\src\IBK\IBK_DRFN\ProjSrc\SrcChartEx\ChartOCX\IndicatorCondition\IndicatorConditionBaseData.cpp
; File C:\Program Files (x86)\Microsoft Visual Studio\2019\Community\VC\Tools\MSVC\14.29.30133\include\list
; File D:\git\src\IBK\IBK_DRFN\ProjSrc\SrcChartEx\ChartOCX\IndicatorCondition\IndicatorConditionBaseData.cpp
;	COMDAT ?GetConditionList@CGraphPartData@@QBEPAV?$CList@NN@@H@Z
_TEXT	SEGMENT
_nSubGraphIndex$ = 8					; size = 4
?GetConditionList@CGraphPartData@@QBEPAV?$CList@NN@@H@Z PROC ; CGraphPartData::GetConditionList, COMDAT
; _this$ = ecx

; 493  : {

  00000	55		 push	 ebp
  00001	8b ec		 mov	 ebp, esp
  00003	56		 push	 esi

; 1056 : 	if(nSubGraphIndex < 0 || nSubGraphIndex >= m_subGraphPartDataList.size())

  00004	8b 75 08	 mov	 esi, DWORD PTR _nSubGraphIndex$[ebp]

; 493  : {

  00007	57		 push	 edi

; 1056 : 	if(nSubGraphIndex < 0 || nSubGraphIndex >= m_subGraphPartDataList.size())

  00008	85 f6		 test	 esi, esi
  0000a	78 22		 js	 SHORT $LN41@GetConditi
  0000c	3b 71 30	 cmp	 esi, DWORD PTR [ecx+48]
  0000f	73 1d		 jae	 SHORT $LN41@GetConditi
; File C:\Program Files (x86)\Microsoft Visual Studio\2019\Community\VC\Tools\MSVC\14.29.30133\include\list

; 1087 :         return const_iterator(_Mypair._Myval2._Myhead->_Next, _STD addressof(_Mypair._Myval2));

  00011	8b 49 2c	 mov	 ecx, DWORD PTR [ecx+44]
; File D:\git\src\IBK\IBK_DRFN\ProjSrc\SrcChartEx\ChartOCX\IndicatorCondition\IndicatorConditionBaseData.cpp

; 1059 : 	int nCount = 0;

  00014	33 d2		 xor	 edx, edx
; File C:\Program Files (x86)\Microsoft Visual Studio\2019\Community\VC\Tools\MSVC\14.29.30133\include\list

; 38   :     _List_unchecked_const_iterator(_Nodeptr _Pnode, const _Mylist* _Plist) noexcept : _Ptr(_Pnode) {

  00016	8b 01		 mov	 eax, DWORD PTR [ecx]
  00018	3b c1		 cmp	 eax, ecx
; File D:\git\src\IBK\IBK_DRFN\ProjSrc\SrcChartEx\ChartOCX\IndicatorCondition\IndicatorConditionBaseData.cpp

; 1061 : 	for(i = m_subGraphPartDataList.begin(); i != m_subGraphPartDataList.end(); ++i)

  0001a	74 12		 je	 SHORT $LN41@GetConditi
  0001c	0f 1f 40 00	 npad	 4
$LL23@GetConditi:

; 1062 : 	{
; 1063 :         CSubGraphPartData* pSubGraphPartData = *i;

  00020	8b 78 08	 mov	 edi, DWORD PTR [eax+8]

; 1064 : 		assert(pSubGraphPartData != NULL);
; 1065 : 		if(nSubGraphIndex == nCount)

  00023	3b f2		 cmp	 esi, edx
  00025	74 0f		 je	 SHORT $LN4@GetConditi
; File C:\Program Files (x86)\Microsoft Visual Studio\2019\Community\VC\Tools\MSVC\14.29.30133\include\list

; 165  :         this->_Ptr = this->_Ptr->_Next;

  00027	8b 00		 mov	 eax, DWORD PTR [eax]
; File D:\git\src\IBK\IBK_DRFN\ProjSrc\SrcChartEx\ChartOCX\IndicatorCondition\IndicatorConditionBaseData.cpp

; 1067 : 		nCount++;

  00029	42		 inc	 edx
; File C:\Program Files (x86)\Microsoft Visual Studio\2019\Community\VC\Tools\MSVC\14.29.30133\include\list

; 198  :         return this->_Ptr == _Right._Ptr;

  0002a	3b c1		 cmp	 eax, ecx
; File D:\git\src\IBK\IBK_DRFN\ProjSrc\SrcChartEx\ChartOCX\IndicatorCondition\IndicatorConditionBaseData.cpp

; 1061 : 	for(i = m_subGraphPartDataList.begin(); i != m_subGraphPartDataList.end(); ++i)

  0002c	75 f2		 jne	 SHORT $LL23@GetConditi
$LN41@GetConditi:
  0002e	5f		 pop	 edi

; 496  : 		return NULL;

  0002f	33 c0		 xor	 eax, eax

; 499  : }

  00031	5e		 pop	 esi
  00032	5d		 pop	 ebp
  00033	c2 04 00	 ret	 4
$LN4@GetConditi:

; 494  : 	CSubGraphPartData* pSubGraphPartData = GetSubGraphPartData(nSubGraphIndex);
; 495  : 	if(pSubGraphPartData == NULL)

  00036	85 ff		 test	 edi, edi
  00038	74 f4		 je	 SHORT $LN41@GetConditi

; 497  : 
; 498  : 	return &pSubGraphPartData->GetConditionList();

  0003a	8d 47 08	 lea	 eax, DWORD PTR [edi+8]
  0003d	5f		 pop	 edi

; 499  : }

  0003e	5e		 pop	 esi
  0003f	5d		 pop	 ebp
  00040	c2 04 00	 ret	 4
?GetConditionList@CGraphPartData@@QBEPAV?$CList@NN@@H@Z ENDP ; CGraphPartData::GetConditionList
_TEXT	ENDS
; Function compile flags: /Ogtp
; File D:\git\src\IBK\IBK_DRFN\ProjSrc\SrcChartEx\ChartOCX\IndicatorCondition\IndicatorConditionBaseData.cpp
;	COMDAT ?GetConditionList@CGraphPartData@@QBEPAV?$CList@NN@@ABV?$CStringT@DV?$StrTraitMFC_DLL@DV?$ChTraitsCRT@D@ATL@@@@@ATL@@@Z
_TEXT	SEGMENT
_strSubGraphName$ = 8					; size = 4
?GetConditionList@CGraphPartData@@QBEPAV?$CList@NN@@ABV?$CStringT@DV?$StrTraitMFC_DLL@DV?$ChTraitsCRT@D@ATL@@@@@ATL@@@Z PROC ; CGraphPartData::GetConditionList, COMDAT
; _this$ = ecx

; 484  : {

  00000	55		 push	 ebp
  00001	8b ec		 mov	 ebp, esp

; 1052 : 	return GetSubGraphPartData(&m_subGraphPartDataList, strSubGraphName);

  00003	ff 75 08	 push	 DWORD PTR _strSubGraphName$[ebp]
  00006	8d 41 2c	 lea	 eax, DWORD PTR [ecx+44]
  00009	50		 push	 eax
  0000a	e8 00 00 00 00	 call	 ?GetSubGraphPartData@CGraphPartData@@QBEPAVCSubGraphPartData@@PBV?$list@PAVCSubGraphPartData@@V?$allocator@PAVCSubGraphPartData@@@std@@@std@@ABV?$CStringT@DV?$StrTraitMFC_DLL@DV?$ChTraitsCRT@D@ATL@@@@@ATL@@@Z ; CGraphPartData::GetSubGraphPartData

; 485  : 	CSubGraphPartData* pSubGraphPartData = GetSubGraphPartData(strSubGraphName);
; 486  : 	if(pSubGraphPartData == NULL)

  0000f	85 c0		 test	 eax, eax
  00011	75 04		 jne	 SHORT $LN2@GetConditi

; 490  : }

  00013	5d		 pop	 ebp
  00014	c2 04 00	 ret	 4
$LN2@GetConditi:

; 487  : 		return NULL;
; 488  : 
; 489  : 	return &pSubGraphPartData->GetConditionList();

  00017	83 c0 08	 add	 eax, 8

; 490  : }

  0001a	5d		 pop	 ebp
  0001b	c2 04 00	 ret	 4
?GetConditionList@CGraphPartData@@QBEPAV?$CList@NN@@ABV?$CStringT@DV?$StrTraitMFC_DLL@DV?$ChTraitsCRT@D@ATL@@@@@ATL@@@Z ENDP ; CGraphPartData::GetConditionList
_TEXT	ENDS
; Function compile flags: /Ogtp
; File D:\git\src\IBK\IBK_DRFN\ProjSrc\SrcChartEx\ChartOCX\IndicatorCondition\IndicatorConditionBaseData.cpp
; File C:\Program Files (x86)\Microsoft Visual Studio\2019\Community\VC\Tools\MSVC\14.29.30133\include\list
; File D:\git\src\IBK\IBK_DRFN\ProjSrc\SrcChartEx\ChartOCX\IndicatorCondition\IndicatorConditionBaseData.cpp
; File C:\Program Files (x86)\Microsoft Visual Studio\2019\Community\VC\Tools\MSVC\14.29.30133\include\list
; File D:\git\src\IBK\IBK_DRFN\ProjSrc\SrcChartEx\ChartOCX\IndicatorCondition\IndicatorConditionBaseData.cpp
; File C:\Program Files (x86)\Microsoft Visual Studio\2019\Community\VC\Tools\MSVC\14.29.30133\include\list
; File D:\git\src\IBK\IBK_DRFN\ProjSrc\SrcChartEx\ChartOCX\IndicatorCondition\IndicatorConditionBaseData.cpp
; File C:\Program Files (x86)\Microsoft Visual Studio\2019\Community\VC\Tools\MSVC\14.29.30133\include\list
; File D:\git\src\IBK\IBK_DRFN\ProjSrc\SrcChartEx\ChartOCX\IndicatorCondition\IndicatorConditionBaseData.cpp
;	COMDAT ?GetSubGraphData@CGraphPartData@@QBEPAVCSubGraphData@@H@Z
_TEXT	SEGMENT
_nIndex$ = 8						; size = 4
?GetSubGraphData@CGraphPartData@@QBEPAVCSubGraphData@@H@Z PROC ; CGraphPartData::GetSubGraphData, COMDAT
; _this$ = ecx

; 475  : {

  00000	55		 push	 ebp
  00001	8b ec		 mov	 ebp, esp
  00003	56		 push	 esi

; 1056 : 	if(nSubGraphIndex < 0 || nSubGraphIndex >= m_subGraphPartDataList.size())

  00004	8b 75 08	 mov	 esi, DWORD PTR _nIndex$[ebp]

; 475  : {

  00007	57		 push	 edi

; 1056 : 	if(nSubGraphIndex < 0 || nSubGraphIndex >= m_subGraphPartDataList.size())

  00008	85 f6		 test	 esi, esi
  0000a	78 22		 js	 SHORT $LN41@GetSubGrap
  0000c	3b 71 30	 cmp	 esi, DWORD PTR [ecx+48]
  0000f	73 1d		 jae	 SHORT $LN41@GetSubGrap
; File C:\Program Files (x86)\Microsoft Visual Studio\2019\Community\VC\Tools\MSVC\14.29.30133\include\list

; 1087 :         return const_iterator(_Mypair._Myval2._Myhead->_Next, _STD addressof(_Mypair._Myval2));

  00011	8b 49 2c	 mov	 ecx, DWORD PTR [ecx+44]
; File D:\git\src\IBK\IBK_DRFN\ProjSrc\SrcChartEx\ChartOCX\IndicatorCondition\IndicatorConditionBaseData.cpp

; 1059 : 	int nCount = 0;

  00014	33 d2		 xor	 edx, edx
; File C:\Program Files (x86)\Microsoft Visual Studio\2019\Community\VC\Tools\MSVC\14.29.30133\include\list

; 38   :     _List_unchecked_const_iterator(_Nodeptr _Pnode, const _Mylist* _Plist) noexcept : _Ptr(_Pnode) {

  00016	8b 01		 mov	 eax, DWORD PTR [ecx]
  00018	3b c1		 cmp	 eax, ecx
; File D:\git\src\IBK\IBK_DRFN\ProjSrc\SrcChartEx\ChartOCX\IndicatorCondition\IndicatorConditionBaseData.cpp

; 1061 : 	for(i = m_subGraphPartDataList.begin(); i != m_subGraphPartDataList.end(); ++i)

  0001a	74 12		 je	 SHORT $LN41@GetSubGrap
  0001c	0f 1f 40 00	 npad	 4
$LL23@GetSubGrap:

; 1062 : 	{
; 1063 :         CSubGraphPartData* pSubGraphPartData = *i;

  00020	8b 78 08	 mov	 edi, DWORD PTR [eax+8]

; 1064 : 		assert(pSubGraphPartData != NULL);
; 1065 : 		if(nSubGraphIndex == nCount)

  00023	3b f2		 cmp	 esi, edx
  00025	74 0f		 je	 SHORT $LN4@GetSubGrap
; File C:\Program Files (x86)\Microsoft Visual Studio\2019\Community\VC\Tools\MSVC\14.29.30133\include\list

; 165  :         this->_Ptr = this->_Ptr->_Next;

  00027	8b 00		 mov	 eax, DWORD PTR [eax]
; File D:\git\src\IBK\IBK_DRFN\ProjSrc\SrcChartEx\ChartOCX\IndicatorCondition\IndicatorConditionBaseData.cpp

; 1067 : 		nCount++;

  00029	42		 inc	 edx
; File C:\Program Files (x86)\Microsoft Visual Studio\2019\Community\VC\Tools\MSVC\14.29.30133\include\list

; 198  :         return this->_Ptr == _Right._Ptr;

  0002a	3b c1		 cmp	 eax, ecx
; File D:\git\src\IBK\IBK_DRFN\ProjSrc\SrcChartEx\ChartOCX\IndicatorCondition\IndicatorConditionBaseData.cpp

; 1061 : 	for(i = m_subGraphPartDataList.begin(); i != m_subGraphPartDataList.end(); ++i)

  0002c	75 f2		 jne	 SHORT $LL23@GetSubGrap
$LN41@GetSubGrap:
  0002e	5f		 pop	 edi

; 478  : 		return NULL;

  0002f	33 c0		 xor	 eax, eax

; 481  : }

  00031	5e		 pop	 esi
  00032	5d		 pop	 ebp
  00033	c2 04 00	 ret	 4
$LN4@GetSubGrap:

; 476  : 	CSubGraphPartData* pSubGraphPartData = GetSubGraphPartData(nIndex);
; 477  : 	if(pSubGraphPartData == NULL)

  00036	85 ff		 test	 edi, edi
  00038	74 f4		 je	 SHORT $LN41@GetSubGrap

; 479  : 
; 480  : 	return &pSubGraphPartData->GetSubGraphData();

  0003a	8d 47 24	 lea	 eax, DWORD PTR [edi+36]
  0003d	5f		 pop	 edi

; 481  : }

  0003e	5e		 pop	 esi
  0003f	5d		 pop	 ebp
  00040	c2 04 00	 ret	 4
?GetSubGraphData@CGraphPartData@@QBEPAVCSubGraphData@@H@Z ENDP ; CGraphPartData::GetSubGraphData
_TEXT	ENDS
; Function compile flags: /Ogtp
; File D:\git\src\IBK\IBK_DRFN\ProjSrc\SrcChartEx\ChartOCX\IndicatorCondition\IndicatorConditionBaseData.cpp
;	COMDAT ?GetSubGraphData@CGraphPartData@@QBEPAVCSubGraphData@@ABV?$CStringT@DV?$StrTraitMFC_DLL@DV?$ChTraitsCRT@D@ATL@@@@@ATL@@@Z
_TEXT	SEGMENT
_strSubGraphName$ = 8					; size = 4
?GetSubGraphData@CGraphPartData@@QBEPAVCSubGraphData@@ABV?$CStringT@DV?$StrTraitMFC_DLL@DV?$ChTraitsCRT@D@ATL@@@@@ATL@@@Z PROC ; CGraphPartData::GetSubGraphData, COMDAT
; _this$ = ecx

; 466  : {

  00000	55		 push	 ebp
  00001	8b ec		 mov	 ebp, esp

; 1052 : 	return GetSubGraphPartData(&m_subGraphPartDataList, strSubGraphName);

  00003	ff 75 08	 push	 DWORD PTR _strSubGraphName$[ebp]
  00006	8d 41 2c	 lea	 eax, DWORD PTR [ecx+44]
  00009	50		 push	 eax
  0000a	e8 00 00 00 00	 call	 ?GetSubGraphPartData@CGraphPartData@@QBEPAVCSubGraphPartData@@PBV?$list@PAVCSubGraphPartData@@V?$allocator@PAVCSubGraphPartData@@@std@@@std@@ABV?$CStringT@DV?$StrTraitMFC_DLL@DV?$ChTraitsCRT@D@ATL@@@@@ATL@@@Z ; CGraphPartData::GetSubGraphPartData

; 467  : 	CSubGraphPartData* pSubGraphPartData = GetSubGraphPartData(strSubGraphName);
; 468  : 	if(pSubGraphPartData == NULL)

  0000f	85 c0		 test	 eax, eax
  00011	75 04		 jne	 SHORT $LN2@GetSubGrap

; 472  : }

  00013	5d		 pop	 ebp
  00014	c2 04 00	 ret	 4
$LN2@GetSubGrap:

; 469  : 		return NULL;
; 470  : 
; 471  : 	return &pSubGraphPartData->GetSubGraphData();

  00017	83 c0 24	 add	 eax, 36			; 00000024H

; 472  : }

  0001a	5d		 pop	 ebp
  0001b	c2 04 00	 ret	 4
?GetSubGraphData@CGraphPartData@@QBEPAVCSubGraphData@@ABV?$CStringT@DV?$StrTraitMFC_DLL@DV?$ChTraitsCRT@D@ATL@@@@@ATL@@@Z ENDP ; CGraphPartData::GetSubGraphData
_TEXT	ENDS
; Function compile flags: /Ogtp
; File D:\git\src\IBK\IBK_DRFN\ProjSrc\SrcChartEx\ChartOCX\IndicatorCondition\IndicatorConditionBaseData.cpp
; File C:\Program Files (x86)\Microsoft Visual Studio\2019\Community\VC\Tools\MSVC\14.29.30133\include\list
; File D:\git\src\IBK\IBK_DRFN\ProjSrc\SrcChartEx\ChartOCX\IndicatorCondition\IndicatorConditionBaseData.cpp
; File C:\Program Files (x86)\Microsoft Visual Studio\2019\Community\VC\Tools\MSVC\14.29.30133\include\list
; File D:\git\src\IBK\IBK_DRFN\ProjSrc\SrcChartEx\ChartOCX\IndicatorCondition\IndicatorConditionBaseData.cpp
;	COMDAT ?GetAllSubGraphDataList@CGraphPartData@@QBE_NAAV?$CList@PAVCSubGraphData@@PAV1@@@@Z
_TEXT	SEGMENT
_subGraphDataList$ = 8					; size = 4
?GetAllSubGraphDataList@CGraphPartData@@QBE_NAAV?$CList@PAVCSubGraphData@@PAV1@@@@Z PROC ; CGraphPartData::GetAllSubGraphDataList, COMDAT
; _this$ = ecx

; 453  : {

  00000	55		 push	 ebp
  00001	8b ec		 mov	 ebp, esp
  00003	53		 push	 ebx
  00004	8b d9		 mov	 ebx, ecx
  00006	56		 push	 esi
  00007	57		 push	 edi

; 455  : 	for(i = m_subGraphPartDataList.begin(); i != m_subGraphPartDataList.end(); ++i)

  00008	8b 7d 08	 mov	 edi, DWORD PTR _subGraphDataList$[ebp]
; File C:\Program Files (x86)\Microsoft Visual Studio\2019\Community\VC\Tools\MSVC\14.29.30133\include\list

; 1087 :         return const_iterator(_Mypair._Myval2._Myhead->_Next, _STD addressof(_Mypair._Myval2));

  0000b	8b 43 2c	 mov	 eax, DWORD PTR [ebx+44]

; 38   :     _List_unchecked_const_iterator(_Nodeptr _Pnode, const _Mylist* _Plist) noexcept : _Ptr(_Pnode) {

  0000e	8b 30		 mov	 esi, DWORD PTR [eax]
  00010	3b f0		 cmp	 esi, eax
; File D:\git\src\IBK\IBK_DRFN\ProjSrc\SrcChartEx\ChartOCX\IndicatorCondition\IndicatorConditionBaseData.cpp

; 455  : 	for(i = m_subGraphPartDataList.begin(); i != m_subGraphPartDataList.end(); ++i)

  00012	74 15		 je	 SHORT $LN3@GetAllSubG
$LL17@GetAllSubG:

; 456  : 	{
; 457  :         CSubGraphPartData* pSubGraphPartData = *i;
; 458  : 		assert(pSubGraphPartData != NULL);
; 459  : 		subGraphDataList.AddTail(pSubGraphPartData->GetSubGraphData_PointeType());

  00014	8b 46 08	 mov	 eax, DWORD PTR [esi+8]
  00017	8b cf		 mov	 ecx, edi
  00019	83 c0 24	 add	 eax, 36			; 00000024H
  0001c	50		 push	 eax
  0001d	e8 00 00 00 00	 call	 ?AddTail@?$CList@PAVCSubGraphData@@PAV1@@@QAEPAU__POSITION@@PAVCSubGraphData@@@Z ; CList<CSubGraphData *,CSubGraphData *>::AddTail
; File C:\Program Files (x86)\Microsoft Visual Studio\2019\Community\VC\Tools\MSVC\14.29.30133\include\list

; 165  :         this->_Ptr = this->_Ptr->_Next;

  00022	8b 36		 mov	 esi, DWORD PTR [esi]

; 198  :         return this->_Ptr == _Right._Ptr;

  00024	3b 73 2c	 cmp	 esi, DWORD PTR [ebx+44]
; File D:\git\src\IBK\IBK_DRFN\ProjSrc\SrcChartEx\ChartOCX\IndicatorCondition\IndicatorConditionBaseData.cpp

; 455  : 	for(i = m_subGraphPartDataList.begin(); i != m_subGraphPartDataList.end(); ++i)

  00027	75 eb		 jne	 SHORT $LL17@GetAllSubG
$LN3@GetAllSubG:

; 460  : 	}
; 461  : 
; 462  : 	return (subGraphDataList.GetCount() > 0);

  00029	83 7f 0c 00	 cmp	 DWORD PTR [edi+12], 0
  0002d	5f		 pop	 edi
  0002e	5e		 pop	 esi
  0002f	0f 9f c0	 setg	 al
  00032	5b		 pop	 ebx

; 463  : }

  00033	5d		 pop	 ebp
  00034	c2 04 00	 ret	 4
?GetAllSubGraphDataList@CGraphPartData@@QBE_NAAV?$CList@PAVCSubGraphData@@PAV1@@@@Z ENDP ; CGraphPartData::GetAllSubGraphDataList
_TEXT	ENDS
; Function compile flags: /Ogtp
; File D:\git\src\IBK\IBK_DRFN\ProjSrc\SrcChartEx\ChartOCX\IndicatorCondition\IndicatorConditionBaseData.cpp
; File C:\Program Files (x86)\Microsoft Visual Studio\2019\Community\VC\Tools\MSVC\14.29.30133\atlmfc\include\atlsimpstr.h
; File D:\git\src\IBK\IBK_DRFN\ProjSrc\SrcChartEx\ChartOCX\IndicatorCondition\IndicatorConditionBaseData.cpp
; File C:\Program Files (x86)\Microsoft Visual Studio\2019\Community\VC\Tools\MSVC\14.29.30133\include\list
; File D:\git\src\IBK\IBK_DRFN\ProjSrc\SrcChartEx\ChartOCX\IndicatorCondition\IndicatorConditionBaseData.cpp
; File C:\Program Files (x86)\Microsoft Visual Studio\2019\Community\VC\Tools\MSVC\14.29.30133\include\list
; File D:\git\src\IBK\IBK_DRFN\ProjSrc\SrcChartEx\ChartOCX\IndicatorCondition\IndicatorConditionBaseData.cpp
; File C:\Program Files (x86)\Microsoft Visual Studio\2019\Community\VC\Tools\MSVC\14.29.30133\atlmfc\include\cstringt.h
; File D:\git\src\IBK\IBK_DRFN\ProjSrc\SrcChartEx\ChartOCX\IndicatorCondition\IndicatorConditionBaseData.cpp
; File C:\Program Files (x86)\Microsoft Visual Studio\2019\Community\VC\Tools\MSVC\14.29.30133\atlmfc\include\cstringt.h
; File D:\git\src\IBK\IBK_DRFN\ProjSrc\SrcChartEx\ChartOCX\IndicatorCondition\IndicatorConditionBaseData.cpp
; File C:\Program Files (x86)\Microsoft Visual Studio\2019\Community\VC\Tools\MSVC\14.29.30133\atlmfc\include\cstringt.h
; File D:\git\src\IBK\IBK_DRFN\ProjSrc\SrcChartEx\ChartOCX\IndicatorCondition\IndicatorConditionBaseData.cpp
; File C:\Program Files (x86)\Microsoft Visual Studio\2019\Community\VC\Tools\MSVC\14.29.30133\include\list
; File D:\git\src\IBK\IBK_DRFN\ProjSrc\SrcChartEx\ChartOCX\IndicatorCondition\IndicatorConditionBaseData.cpp
; File C:\Program Files (x86)\Microsoft Visual Studio\2019\Community\VC\Tools\MSVC\14.29.30133\include\list
; File D:\git\src\IBK\IBK_DRFN\ProjSrc\SrcChartEx\ChartOCX\IndicatorCondition\IndicatorConditionBaseData.cpp
; File C:\Program Files (x86)\Microsoft Visual Studio\2019\Community\VC\Tools\MSVC\14.29.30133\include\list
; File D:\git\src\IBK\IBK_DRFN\ProjSrc\SrcChartEx\ChartOCX\IndicatorCondition\IndicatorConditionBaseData.cpp
;	COMDAT ?GetSubGraphPartDataIndex@CGraphPartData@@QBEHABV?$CStringT@DV?$StrTraitMFC_DLL@DV?$ChTraitsCRT@D@ATL@@@@@ATL@@@Z
_TEXT	SEGMENT
_this$1$ = -20						; size = 4
$T2 = -16						; size = 4
__$EHRec$ = -12						; size = 12
_strSubGraphName$ = 8					; size = 4
?GetSubGraphPartDataIndex@CGraphPartData@@QBEHABV?$CStringT@DV?$StrTraitMFC_DLL@DV?$ChTraitsCRT@D@ATL@@@@@ATL@@@Z PROC ; CGraphPartData::GetSubGraphPartDataIndex, COMDAT
; _this$ = ecx

; 435  : {

  00000	55		 push	 ebp
  00001	8b ec		 mov	 ebp, esp
  00003	6a ff		 push	 -1
  00005	68 00 00 00 00	 push	 __ehhandler$?GetSubGraphPartDataIndex@CGraphPartData@@QBEHABV?$CStringT@DV?$StrTraitMFC_DLL@DV?$ChTraitsCRT@D@ATL@@@@@ATL@@@Z
  0000a	64 a1 00 00 00
	00		 mov	 eax, DWORD PTR fs:0
  00010	50		 push	 eax
  00011	83 ec 08	 sub	 esp, 8
  00014	53		 push	 ebx
  00015	56		 push	 esi
  00016	57		 push	 edi
  00017	a1 00 00 00 00	 mov	 eax, DWORD PTR ___security_cookie
  0001c	33 c5		 xor	 eax, ebp
  0001e	50		 push	 eax
  0001f	8d 45 f4	 lea	 eax, DWORD PTR __$EHRec$[ebp]
  00022	64 a3 00 00 00
	00		 mov	 DWORD PTR fs:0, eax
  00028	89 4d ec	 mov	 DWORD PTR _this$1$[ebp], ecx
; File C:\Program Files (x86)\Microsoft Visual Studio\2019\Community\VC\Tools\MSVC\14.29.30133\atlmfc\include\atlsimpstr.h

; 519  : 		return( GetData()->nDataLength );

  0002b	8b 7d 08	 mov	 edi, DWORD PTR _strSubGraphName$[ebp]
  0002e	8b 07		 mov	 eax, DWORD PTR [edi]

; 533  : 		return( GetLength() == 0 );

  00030	83 78 f4 00	 cmp	 DWORD PTR [eax-12], 0
; File D:\git\src\IBK\IBK_DRFN\ProjSrc\SrcChartEx\ChartOCX\IndicatorCondition\IndicatorConditionBaseData.cpp

; 436  : 	if(strSubGraphName.IsEmpty() || m_subGraphPartDataList.size() <= 0)

  00034	74 56		 je	 SHORT $LN6@GetSubGrap
  00036	83 79 30 00	 cmp	 DWORD PTR [ecx+48], 0
  0003a	76 50		 jbe	 SHORT $LN6@GetSubGrap
; File C:\Program Files (x86)\Microsoft Visual Studio\2019\Community\VC\Tools\MSVC\14.29.30133\include\list

; 1087 :         return const_iterator(_Mypair._Myval2._Myhead->_Next, _STD addressof(_Mypair._Myval2));

  0003c	8b 41 2c	 mov	 eax, DWORD PTR [ecx+44]
; File D:\git\src\IBK\IBK_DRFN\ProjSrc\SrcChartEx\ChartOCX\IndicatorCondition\IndicatorConditionBaseData.cpp

; 439  : 	int nIndex = 0;

  0003f	33 db		 xor	 ebx, ebx
; File C:\Program Files (x86)\Microsoft Visual Studio\2019\Community\VC\Tools\MSVC\14.29.30133\include\list

; 38   :     _List_unchecked_const_iterator(_Nodeptr _Pnode, const _Mylist* _Plist) noexcept : _Ptr(_Pnode) {

  00041	8b 30		 mov	 esi, DWORD PTR [eax]
; File D:\git\src\IBK\IBK_DRFN\ProjSrc\SrcChartEx\ChartOCX\IndicatorCondition\IndicatorConditionBaseData.cpp

; 441  : 	for(i = m_subGraphPartDataList.begin(); i != m_subGraphPartDataList.end(); ++i)

  00043	3b f0		 cmp	 esi, eax
  00045	74 45		 je	 SHORT $LN6@GetSubGrap
$LL27@GetSubGrap:

; 442  : 	{
; 443  :         CSubGraphPartData* pSubGraphPartData = *i;

  00047	8b 4e 08	 mov	 ecx, DWORD PTR [esi+8]

; 118  : 	return m_subGraphData.GetName();

  0004a	8d 45 f0	 lea	 eax, DWORD PTR $T2[ebp]
  0004d	50		 push	 eax
  0004e	83 c1 24	 add	 ecx, 36			; 00000024H
  00051	e8 00 00 00 00	 call	 ?GetName@CSubGraphDataBase@@QBE?AV?$CStringT@DV?$StrTraitMFC_DLL@DV?$ChTraitsCRT@D@ATL@@@@@ATL@@XZ ; CSubGraphDataBase::GetName
; File C:\Program Files (x86)\Microsoft Visual Studio\2019\Community\VC\Tools\MSVC\14.29.30133\atlmfc\include\cstringt.h

; 2479 : 		return(str1.Compare(str2) == 0);

  00056	ff 37		 push	 DWORD PTR [edi]
  00058	8d 4d f0	 lea	 ecx, DWORD PTR $T2[ebp]
; File D:\git\src\IBK\IBK_DRFN\ProjSrc\SrcChartEx\ChartOCX\IndicatorCondition\IndicatorConditionBaseData.cpp

; 445  : 		if(pSubGraphPartData->GetSubGraphName() == strSubGraphName)

  0005b	c7 45 fc 00 00
	00 00		 mov	 DWORD PTR __$EHRec$[ebp+8], 0
; File C:\Program Files (x86)\Microsoft Visual Studio\2019\Community\VC\Tools\MSVC\14.29.30133\atlmfc\include\cstringt.h

; 2479 : 		return(str1.Compare(str2) == 0);

  00062	ff 15 00 00 00
	00		 call	 DWORD PTR __imp_?Compare@?$CStringT@DV?$StrTraitMFC_DLL@DV?$ChTraitsCRT@D@ATL@@@@@ATL@@QBEHPBD@Z
; File D:\git\src\IBK\IBK_DRFN\ProjSrc\SrcChartEx\ChartOCX\IndicatorCondition\IndicatorConditionBaseData.cpp

; 445  : 		if(pSubGraphPartData->GetSubGraphName() == strSubGraphName)

  00068	8d 4d f0	 lea	 ecx, DWORD PTR $T2[ebp]
  0006b	c7 45 fc ff ff
	ff ff		 mov	 DWORD PTR __$EHRec$[ebp+8], -1
; File C:\Program Files (x86)\Microsoft Visual Studio\2019\Community\VC\Tools\MSVC\14.29.30133\atlmfc\include\cstringt.h

; 2479 : 		return(str1.Compare(str2) == 0);

  00072	8b f8		 mov	 edi, eax
; File D:\git\src\IBK\IBK_DRFN\ProjSrc\SrcChartEx\ChartOCX\IndicatorCondition\IndicatorConditionBaseData.cpp

; 445  : 		if(pSubGraphPartData->GetSubGraphName() == strSubGraphName)

  00074	ff 15 00 00 00
	00		 call	 DWORD PTR __imp_??1?$CStringT@DV?$StrTraitMFC_DLL@DV?$ChTraitsCRT@D@ATL@@@@@ATL@@QAE@XZ
  0007a	85 ff		 test	 edi, edi
  0007c	74 25		 je	 SHORT $LN49@GetSubGrap
; File C:\Program Files (x86)\Microsoft Visual Studio\2019\Community\VC\Tools\MSVC\14.29.30133\include\list

; 198  :         return this->_Ptr == _Right._Ptr;

  0007e	8b 45 ec	 mov	 eax, DWORD PTR _this$1$[ebp]
; File D:\git\src\IBK\IBK_DRFN\ProjSrc\SrcChartEx\ChartOCX\IndicatorCondition\IndicatorConditionBaseData.cpp

; 447  : 		nIndex++;

  00081	43		 inc	 ebx
; File C:\Program Files (x86)\Microsoft Visual Studio\2019\Community\VC\Tools\MSVC\14.29.30133\include\list

; 165  :         this->_Ptr = this->_Ptr->_Next;

  00082	8b 36		 mov	 esi, DWORD PTR [esi]
; File D:\git\src\IBK\IBK_DRFN\ProjSrc\SrcChartEx\ChartOCX\IndicatorCondition\IndicatorConditionBaseData.cpp

; 441  : 	for(i = m_subGraphPartDataList.begin(); i != m_subGraphPartDataList.end(); ++i)

  00084	8b 7d 08	 mov	 edi, DWORD PTR _strSubGraphName$[ebp]
; File C:\Program Files (x86)\Microsoft Visual Studio\2019\Community\VC\Tools\MSVC\14.29.30133\include\list

; 198  :         return this->_Ptr == _Right._Ptr;

  00087	3b 70 2c	 cmp	 esi, DWORD PTR [eax+44]
; File D:\git\src\IBK\IBK_DRFN\ProjSrc\SrcChartEx\ChartOCX\IndicatorCondition\IndicatorConditionBaseData.cpp

; 441  : 	for(i = m_subGraphPartDataList.begin(); i != m_subGraphPartDataList.end(); ++i)

  0008a	75 bb		 jne	 SHORT $LL27@GetSubGrap
$LN6@GetSubGrap:

; 437  : 		return -1;

  0008c	83 c8 ff	 or	 eax, -1

; 448  : 	}
; 449  : 	return -1;
; 450  : }

  0008f	8b 4d f4	 mov	 ecx, DWORD PTR __$EHRec$[ebp]
  00092	64 89 0d 00 00
	00 00		 mov	 DWORD PTR fs:0, ecx
  00099	59		 pop	 ecx
  0009a	5f		 pop	 edi
  0009b	5e		 pop	 esi
  0009c	5b		 pop	 ebx
  0009d	8b e5		 mov	 esp, ebp
  0009f	5d		 pop	 ebp
  000a0	c2 04 00	 ret	 4
$LN49@GetSubGrap:

; 446  : 			return nIndex;

  000a3	8b c3		 mov	 eax, ebx

; 448  : 	}
; 449  : 	return -1;
; 450  : }

  000a5	8b 4d f4	 mov	 ecx, DWORD PTR __$EHRec$[ebp]
  000a8	64 89 0d 00 00
	00 00		 mov	 DWORD PTR fs:0, ecx
  000af	59		 pop	 ecx
  000b0	5f		 pop	 edi
  000b1	5e		 pop	 esi
  000b2	5b		 pop	 ebx
  000b3	8b e5		 mov	 esp, ebp
  000b5	5d		 pop	 ebp
  000b6	c2 04 00	 ret	 4
_TEXT	ENDS
;	COMDAT text$x
text$x	SEGMENT
__unwindfunclet$?GetSubGraphPartDataIndex@CGraphPartData@@QBEHABV?$CStringT@DV?$StrTraitMFC_DLL@DV?$ChTraitsCRT@D@ATL@@@@@ATL@@@Z$0:
  00000	8d 4d f0	 lea	 ecx, DWORD PTR $T2[ebp]
  00003	ff 25 00 00 00
	00		 jmp	 DWORD PTR __imp_??1?$CStringT@DV?$StrTraitMFC_DLL@DV?$ChTraitsCRT@D@ATL@@@@@ATL@@QAE@XZ
  00009	cc		 int	 3
  0000a	cc		 int	 3
  0000b	cc		 int	 3
  0000c	cc		 int	 3
  0000d	cc		 int	 3
__ehhandler$?GetSubGraphPartDataIndex@CGraphPartData@@QBEHABV?$CStringT@DV?$StrTraitMFC_DLL@DV?$ChTraitsCRT@D@ATL@@@@@ATL@@@Z:
  0000e	90		 npad	 1
  0000f	90		 npad	 1
  00010	8b 54 24 08	 mov	 edx, DWORD PTR [esp+8]
  00014	8d 42 0c	 lea	 eax, DWORD PTR [edx+12]
  00017	8b 4a e8	 mov	 ecx, DWORD PTR [edx-24]
  0001a	33 c8		 xor	 ecx, eax
  0001c	e8 00 00 00 00	 call	 @__security_check_cookie@4
  00021	b8 00 00 00 00	 mov	 eax, OFFSET __ehfuncinfo$?GetSubGraphPartDataIndex@CGraphPartData@@QBEHABV?$CStringT@DV?$StrTraitMFC_DLL@DV?$ChTraitsCRT@D@ATL@@@@@ATL@@@Z
  00026	e9 00 00 00 00	 jmp	 ___CxxFrameHandler3
text$x	ENDS
?GetSubGraphPartDataIndex@CGraphPartData@@QBEHABV?$CStringT@DV?$StrTraitMFC_DLL@DV?$ChTraitsCRT@D@ATL@@@@@ATL@@@Z ENDP ; CGraphPartData::GetSubGraphPartDataIndex
; Function compile flags: /Ogtp
; File D:\git\src\IBK\IBK_DRFN\ProjSrc\SrcChartEx\ChartOCX\IndicatorCondition\IndicatorConditionBaseData.cpp
;	COMDAT ?GetSubGraphPartDataCount@CGraphPartData@@QBEHXZ
_TEXT	SEGMENT
?GetSubGraphPartDataCount@CGraphPartData@@QBEHXZ PROC	; CGraphPartData::GetSubGraphPartDataCount, COMDAT
; _this$ = ecx

; 431  : 	return m_subGraphPartDataList.size();

  00000	8b 41 30	 mov	 eax, DWORD PTR [ecx+48]

; 432  : }

  00003	c3		 ret	 0
?GetSubGraphPartDataCount@CGraphPartData@@QBEHXZ ENDP	; CGraphPartData::GetSubGraphPartDataCount
_TEXT	ENDS
; Function compile flags: /Ogtp
; File D:\git\src\IBK\IBK_DRFN\ProjSrc\SrcChartEx\ChartOCX\IndicatorCondition\IndicatorConditionBaseData.cpp
;	COMDAT ?GetSubGraphPartDataList@CGraphPartData@@QBEPBV?$list@PAVCSubGraphPartData@@V?$allocator@PAVCSubGraphPartData@@@std@@@std@@XZ
_TEXT	SEGMENT
?GetSubGraphPartDataList@CGraphPartData@@QBEPBV?$list@PAVCSubGraphPartData@@V?$allocator@PAVCSubGraphPartData@@@std@@@std@@XZ PROC ; CGraphPartData::GetSubGraphPartDataList, COMDAT
; _this$ = ecx

; 426  : 	return &m_subGraphPartDataList;

  00000	8d 41 2c	 lea	 eax, DWORD PTR [ecx+44]

; 427  : }

  00003	c3		 ret	 0
?GetSubGraphPartDataList@CGraphPartData@@QBEPBV?$list@PAVCSubGraphPartData@@V?$allocator@PAVCSubGraphPartData@@@std@@@std@@XZ ENDP ; CGraphPartData::GetSubGraphPartDataList
_TEXT	ENDS
; Function compile flags: /Ogtp
; File D:\git\src\IBK\IBK_DRFN\ProjSrc\SrcChartEx\ChartOCX\IndicatorCondition\IndicatorConditionBaseData.cpp
;	COMDAT ?GetGraphData@CGraphPartData@@QBEABVCGraphData@@XZ
_TEXT	SEGMENT
?GetGraphData@CGraphPartData@@QBEABVCGraphData@@XZ PROC	; CGraphPartData::GetGraphData, COMDAT
; _this$ = ecx

; 421  : 	return m_graphData;

  00000	8d 41 08	 lea	 eax, DWORD PTR [ecx+8]

; 422  : }

  00003	c3		 ret	 0
?GetGraphData@CGraphPartData@@QBEABVCGraphData@@XZ ENDP	; CGraphPartData::GetGraphData
_TEXT	ENDS
; Function compile flags: /Ogtp
; File D:\git\src\IBK\IBK_DRFN\ProjSrc\SrcChartEx\ChartOCX\IndicatorCondition\IndicatorConditionBaseData.cpp
;	COMDAT ?GetSubGraphPartDataList@CGraphPartData@@QAEPAV?$list@PAVCSubGraphPartData@@V?$allocator@PAVCSubGraphPartData@@@std@@@std@@XZ
_TEXT	SEGMENT
?GetSubGraphPartDataList@CGraphPartData@@QAEPAV?$list@PAVCSubGraphPartData@@V?$allocator@PAVCSubGraphPartData@@@std@@@std@@XZ PROC ; CGraphPartData::GetSubGraphPartDataList, COMDAT
; _this$ = ecx

; 416  : 	return &m_subGraphPartDataList;

  00000	8d 41 2c	 lea	 eax, DWORD PTR [ecx+44]

; 417  : }

  00003	c3		 ret	 0
?GetSubGraphPartDataList@CGraphPartData@@QAEPAV?$list@PAVCSubGraphPartData@@V?$allocator@PAVCSubGraphPartData@@@std@@@std@@XZ ENDP ; CGraphPartData::GetSubGraphPartDataList
_TEXT	ENDS
; Function compile flags: /Ogtp
; File D:\git\src\IBK\IBK_DRFN\ProjSrc\SrcChartEx\ChartOCX\IndicatorCondition\IndicatorConditionBaseData.cpp
;	COMDAT ?GetGraphData@CGraphPartData@@QAEAAVCGraphData@@XZ
_TEXT	SEGMENT
?GetGraphData@CGraphPartData@@QAEAAVCGraphData@@XZ PROC	; CGraphPartData::GetGraphData, COMDAT
; _this$ = ecx

; 411  : 	return m_graphData;

  00000	8d 41 08	 lea	 eax, DWORD PTR [ecx+8]

; 412  : }

  00003	c3		 ret	 0
?GetGraphData@CGraphPartData@@QAEAAVCGraphData@@XZ ENDP	; CGraphPartData::GetGraphData
_TEXT	ENDS
; Function compile flags: /Ogtp
; File D:\git\src\IBK\IBK_DRFN\ProjSrc\SrcChartEx\ChartOCX\IndicatorCondition\IndicatorConditionBaseData.cpp
;	COMDAT ?GetGroupName@CGraphPartData@@QBE?AV?$CStringT@DV?$StrTraitMFC_DLL@DV?$ChTraitsCRT@D@ATL@@@@@ATL@@XZ
_TEXT	SEGMENT
___$ReturnUdt$ = 8					; size = 4
?GetGroupName@CGraphPartData@@QBE?AV?$CStringT@DV?$StrTraitMFC_DLL@DV?$ChTraitsCRT@D@ATL@@@@@ATL@@XZ PROC ; CGraphPartData::GetGroupName, COMDAT
; _this$ = ecx

; 405  : {

  00000	55		 push	 ebp
  00001	8b ec		 mov	 ebp, esp

; 406  : 	return m_strGroupName;

  00003	8d 41 04	 lea	 eax, DWORD PTR [ecx+4]
  00006	8b 4d 08	 mov	 ecx, DWORD PTR ___$ReturnUdt$[ebp]
  00009	50		 push	 eax
  0000a	ff 15 00 00 00
	00		 call	 DWORD PTR __imp_??0?$CStringT@DV?$StrTraitMFC_DLL@DV?$ChTraitsCRT@D@ATL@@@@@ATL@@QAE@ABV01@@Z
  00010	8b 45 08	 mov	 eax, DWORD PTR ___$ReturnUdt$[ebp]

; 407  : }

  00013	5d		 pop	 ebp
  00014	c2 04 00	 ret	 4
?GetGroupName@CGraphPartData@@QBE?AV?$CStringT@DV?$StrTraitMFC_DLL@DV?$ChTraitsCRT@D@ATL@@@@@ATL@@XZ ENDP ; CGraphPartData::GetGroupName
_TEXT	ENDS
; Function compile flags: /Ogtp
; File D:\git\src\IBK\IBK_DRFN\ProjSrc\SrcChartEx\ChartOCX\IndicatorCondition\IndicatorConditionBaseData.cpp
; File C:\Program Files (x86)\Microsoft Visual Studio\2019\Community\VC\Tools\MSVC\14.29.30133\include\list
; File D:\git\src\IBK\IBK_DRFN\ProjSrc\SrcChartEx\ChartOCX\IndicatorCondition\IndicatorConditionBaseData.cpp
; File C:\Program Files (x86)\Microsoft Visual Studio\2019\Community\VC\Tools\MSVC\14.29.30133\include\list
; File D:\git\src\IBK\IBK_DRFN\ProjSrc\SrcChartEx\ChartOCX\IndicatorCondition\IndicatorConditionBaseData.cpp
; File C:\Program Files (x86)\Microsoft Visual Studio\2019\Community\VC\Tools\MSVC\14.29.30133\include\list
; File C:\Program Files (x86)\Microsoft Visual Studio\2019\Community\VC\Tools\MSVC\14.29.30133\include\xmemory
; File C:\Program Files (x86)\Microsoft Visual Studio\2019\Community\VC\Tools\MSVC\14.29.30133\include\list
; File D:\git\src\IBK\IBK_DRFN\ProjSrc\SrcChartEx\ChartOCX\IndicatorCondition\IndicatorConditionBaseData.cpp
; File C:\Program Files (x86)\Microsoft Visual Studio\2019\Community\VC\Tools\MSVC\14.29.30133\include\list
; File D:\git\src\IBK\IBK_DRFN\ProjSrc\SrcChartEx\ChartOCX\IndicatorCondition\IndicatorConditionBaseData.cpp
; File C:\Program Files (x86)\Microsoft Visual Studio\2019\Community\VC\Tools\MSVC\14.29.30133\include\list
; File D:\git\src\IBK\IBK_DRFN\ProjSrc\SrcChartEx\ChartOCX\IndicatorCondition\IndicatorConditionBaseData.cpp
;	COMDAT ?DeleteAllSubGraph@CGraphPartData@@QAE_NXZ
_TEXT	SEGMENT
?DeleteAllSubGraph@CGraphPartData@@QAE_NXZ PROC		; CGraphPartData::DeleteAllSubGraph, COMDAT
; _this$ = ecx

; 388  : {

  00000	57		 push	 edi
  00001	8b f9		 mov	 edi, ecx

; 389  : 	if(m_subGraphPartDataList.size() <= 0)

  00003	83 7f 30 00	 cmp	 DWORD PTR [edi+48], 0
  00007	77 04		 ja	 SHORT $LN5@DeleteAllS

; 390  : 		return false;

  00009	32 c0		 xor	 al, al
  0000b	5f		 pop	 edi

; 401  : }

  0000c	c3		 ret	 0
$LN5@DeleteAllS:
; File C:\Program Files (x86)\Microsoft Visual Studio\2019\Community\VC\Tools\MSVC\14.29.30133\include\list

; 1083 :         return iterator(_Mypair._Myval2._Myhead->_Next, _STD addressof(_Mypair._Myval2));

  0000d	8b 47 2c	 mov	 eax, DWORD PTR [edi+44]
  00010	56		 push	 esi

; 38   :     _List_unchecked_const_iterator(_Nodeptr _Pnode, const _Mylist* _Plist) noexcept : _Ptr(_Pnode) {

  00011	8b 30		 mov	 esi, DWORD PTR [eax]
  00013	3b f0		 cmp	 esi, eax
; File D:\git\src\IBK\IBK_DRFN\ProjSrc\SrcChartEx\ChartOCX\IndicatorCondition\IndicatorConditionBaseData.cpp

; 393  : 	for(i = m_subGraphPartDataList.begin(); i != m_subGraphPartDataList.end(); ++i)

  00015	74 16		 je	 SHORT $LN3@DeleteAllS
$LL26@DeleteAllS:

; 394  : 	{
; 395  :         CSubGraphPartData* pSubGraphPartData = *i;
; 396  : 		delete pSubGraphPartData;

  00017	8b 4e 08	 mov	 ecx, DWORD PTR [esi+8]
  0001a	85 c9		 test	 ecx, ecx
  0001c	74 06		 je	 SHORT $LN2@DeleteAllS
  0001e	8b 01		 mov	 eax, DWORD PTR [ecx]
  00020	6a 01		 push	 1
  00022	ff 10		 call	 DWORD PTR [eax]
$LN2@DeleteAllS:
; File C:\Program Files (x86)\Microsoft Visual Studio\2019\Community\VC\Tools\MSVC\14.29.30133\include\list

; 165  :         this->_Ptr = this->_Ptr->_Next;

  00024	8b 36		 mov	 esi, DWORD PTR [esi]

; 38   :     _List_unchecked_const_iterator(_Nodeptr _Pnode, const _Mylist* _Plist) noexcept : _Ptr(_Pnode) {

  00026	8b 47 2c	 mov	 eax, DWORD PTR [edi+44]

; 198  :         return this->_Ptr == _Right._Ptr;

  00029	3b f0		 cmp	 esi, eax
; File D:\git\src\IBK\IBK_DRFN\ProjSrc\SrcChartEx\ChartOCX\IndicatorCondition\IndicatorConditionBaseData.cpp

; 393  : 	for(i = m_subGraphPartDataList.begin(); i != m_subGraphPartDataList.end(); ++i)

  0002b	75 ea		 jne	 SHORT $LL26@DeleteAllS
$LN3@DeleteAllS:
; File C:\Program Files (x86)\Microsoft Visual Studio\2019\Community\VC\Tools\MSVC\14.29.30133\include\list

; 323  :         _Head->_Prev->_Next = nullptr;

  0002d	8b 48 04	 mov	 ecx, DWORD PTR [eax+4]
  00030	c7 01 00 00 00
	00		 mov	 DWORD PTR [ecx], 0

; 324  : 
; 325  :         auto _Pnode = _Head->_Next;

  00036	8b 00		 mov	 eax, DWORD PTR [eax]

; 326  :         for (_Nodeptr _Pnext; _Pnode; _Pnode = _Pnext) {

  00038	85 c0		 test	 eax, eax
  0003a	74 17		 je	 SHORT $LN47@DeleteAllS
  0003c	0f 1f 40 00	 npad	 4
$LL48@DeleteAllS:

; 327  :             _Pnext = _Pnode->_Next;

  00040	8b 30		 mov	 esi, DWORD PTR [eax]
; File C:\Program Files (x86)\Microsoft Visual Studio\2019\Community\VC\Tools\MSVC\14.29.30133\include\xmemory

; 255  :         ::operator delete(_Ptr, _Bytes);

  00042	6a 0c		 push	 12			; 0000000cH
  00044	50		 push	 eax
  00045	e8 00 00 00 00	 call	 ??3@YAXPAXI@Z		; operator delete
  0004a	83 c4 08	 add	 esp, 8
; File C:\Program Files (x86)\Microsoft Visual Studio\2019\Community\VC\Tools\MSVC\14.29.30133\include\list

; 326  :         for (_Nodeptr _Pnext; _Pnode; _Pnode = _Pnext) {

  0004d	8b c6		 mov	 eax, esi
  0004f	85 f6		 test	 esi, esi
  00051	75 ed		 jne	 SHORT $LL48@DeleteAllS
$LN47@DeleteAllS:

; 1421 :         _My_data._Myhead->_Next = _My_data._Myhead;

  00053	8b 47 2c	 mov	 eax, DWORD PTR [edi+44]
; File D:\git\src\IBK\IBK_DRFN\ProjSrc\SrcChartEx\ChartOCX\IndicatorCondition\IndicatorConditionBaseData.cpp

; 400  : 	return true;

  00056	5e		 pop	 esi
; File C:\Program Files (x86)\Microsoft Visual Studio\2019\Community\VC\Tools\MSVC\14.29.30133\include\list

; 1421 :         _My_data._Myhead->_Next = _My_data._Myhead;

  00057	89 00		 mov	 DWORD PTR [eax], eax

; 1422 :         _My_data._Myhead->_Prev = _My_data._Myhead;

  00059	8b 47 2c	 mov	 eax, DWORD PTR [edi+44]
  0005c	89 40 04	 mov	 DWORD PTR [eax+4], eax
; File D:\git\src\IBK\IBK_DRFN\ProjSrc\SrcChartEx\ChartOCX\IndicatorCondition\IndicatorConditionBaseData.cpp

; 400  : 	return true;

  0005f	b0 01		 mov	 al, 1
; File C:\Program Files (x86)\Microsoft Visual Studio\2019\Community\VC\Tools\MSVC\14.29.30133\include\list

; 1423 :         _My_data._Mysize        = 0;

  00061	c7 47 30 00 00
	00 00		 mov	 DWORD PTR [edi+48], 0
  00068	5f		 pop	 edi
; File D:\git\src\IBK\IBK_DRFN\ProjSrc\SrcChartEx\ChartOCX\IndicatorCondition\IndicatorConditionBaseData.cpp

; 401  : }

  00069	c3		 ret	 0
?DeleteAllSubGraph@CGraphPartData@@QAE_NXZ ENDP		; CGraphPartData::DeleteAllSubGraph
_TEXT	ENDS
; Function compile flags: /Ogtp
; File D:\git\src\IBK\IBK_DRFN\ProjSrc\SrcChartEx\ChartOCX\IndicatorCondition\IndicatorConditionBaseData.cpp
;	COMDAT ?AddTail@CGraphPartData@@QAEXPAVCSubGraphPartData@@@Z
_TEXT	SEGMENT
_pSubGraphPartData$ = 8					; size = 4
?AddTail@CGraphPartData@@QAEXPAVCSubGraphPartData@@@Z PROC ; CGraphPartData::AddTail, COMDAT
; _this$ = ecx

; 380  : {

  00000	55		 push	 ebp
  00001	8b ec		 mov	 ebp, esp

; 381  : 	if(pSubGraphPartData == NULL)

  00003	83 7d 08 00	 cmp	 DWORD PTR _pSubGraphPartData$[ebp], 0
  00007	74 0c		 je	 SHORT $LN1@AddTail

; 382  : 		return;
; 383  : 
; 384  : 	m_subGraphPartDataList.push_back(pSubGraphPartData);

  00009	8d 45 08	 lea	 eax, DWORD PTR _pSubGraphPartData$[ebp]
  0000c	83 c1 2c	 add	 ecx, 44			; 0000002cH
  0000f	50		 push	 eax
  00010	e8 00 00 00 00	 call	 ?push_back@?$list@PAVCSubGraphPartData@@V?$allocator@PAVCSubGraphPartData@@@std@@@std@@QAEXABQAVCSubGraphPartData@@@Z ; std::list<CSubGraphPartData *,std::allocator<CSubGraphPartData *> >::push_back
$LN1@AddTail:

; 385  : }

  00015	5d		 pop	 ebp
  00016	c2 04 00	 ret	 4
?AddTail@CGraphPartData@@QAEXPAVCSubGraphPartData@@@Z ENDP ; CGraphPartData::AddTail
_TEXT	ENDS
; Function compile flags: /Ogtp
; File D:\git\src\IBK\IBK_DRFN\ProjSrc\SrcChartEx\ChartOCX\IndicatorCondition\IndicatorConditionBaseData.cpp
;	COMDAT ?Initialize_GraphData@CGraphPartData@@QAEXXZ
_TEXT	SEGMENT
?Initialize_GraphData@CGraphPartData@@QAEXXZ PROC	; CGraphPartData::Initialize_GraphData, COMDAT
; _this$ = ecx

; 376  : 	m_graphData.ClearData();

  00000	83 c1 08	 add	 ecx, 8
  00003	e9 00 00 00 00	 jmp	 ?ClearData@CGraphData@@QAEXXZ ; CGraphData::ClearData
?Initialize_GraphData@CGraphPartData@@QAEXXZ ENDP	; CGraphPartData::Initialize_GraphData
_TEXT	ENDS
; Function compile flags: /Ogtp
; File D:\git\src\IBK\IBK_DRFN\ProjSrc\SrcChartEx\ChartOCX\IndicatorCondition\IndicatorConditionBaseData.cpp
;	COMDAT ?Initialize@CGraphPartData@@QAEXXZ
_TEXT	SEGMENT
?Initialize@CGraphPartData@@QAEXXZ PROC			; CGraphPartData::Initialize, COMDAT
; _this$ = ecx

; 368  : {

  00000	56		 push	 esi
  00001	8b f1		 mov	 esi, ecx

; 369  : 	m_strGroupName.Empty();

  00003	8d 4e 04	 lea	 ecx, DWORD PTR [esi+4]
  00006	ff 15 00 00 00
	00		 call	 DWORD PTR __imp_?Empty@?$CSimpleStringT@D$00@ATL@@QAEXXZ

; 376  : 	m_graphData.ClearData();

  0000c	8d 4e 08	 lea	 ecx, DWORD PTR [esi+8]
  0000f	e8 00 00 00 00	 call	 ?ClearData@CGraphData@@QAEXXZ ; CGraphData::ClearData

; 370  : 	Initialize_GraphData();
; 371  : 	DeleteAllSubGraph();

  00014	8b ce		 mov	 ecx, esi
  00016	5e		 pop	 esi
  00017	e9 00 00 00 00	 jmp	 ?DeleteAllSubGraph@CGraphPartData@@QAE_NXZ ; CGraphPartData::DeleteAllSubGraph
?Initialize@CGraphPartData@@QAEXXZ ENDP			; CGraphPartData::Initialize
_TEXT	ENDS
; Function compile flags: /Ogtp
; File D:\git\src\IBK\IBK_DRFN\ProjSrc\SrcChartEx\ChartOCX\IndicatorCondition\IndicatorConditionBaseData.cpp
; File C:\Program Files (x86)\Microsoft Visual Studio\2019\Community\VC\Tools\MSVC\14.29.30133\include\list
; File C:\Program Files (x86)\Microsoft Visual Studio\2019\Community\VC\Tools\MSVC\14.29.30133\include\xmemory
; File C:\Program Files (x86)\Microsoft Visual Studio\2019\Community\VC\Tools\MSVC\14.29.30133\include\list
; File C:\Program Files (x86)\Microsoft Visual Studio\2019\Community\VC\Tools\MSVC\14.29.30133\include\xmemory
; File D:\git\src\IBK\IBK_DRFN\ProjSrc\SrcChartEx\ChartOCX\IndicatorCondition\IndicatorConditionBaseData.cpp
;	COMDAT ??1CGraphPartData@@UAE@XZ
_TEXT	SEGMENT
??1CGraphPartData@@UAE@XZ PROC				; CGraphPartData::~CGraphPartData, COMDAT
; _this$ = ecx

; 361  : {

  00000	57		 push	 edi
  00001	8b f9		 mov	 edi, ecx
  00003	c7 07 00 00 00
	00		 mov	 DWORD PTR [edi], OFFSET ??_7CGraphPartData@@6B@

; 362  : 	DeleteAllSubGraph();

  00009	e8 00 00 00 00	 call	 ?DeleteAllSubGraph@CGraphPartData@@QAE_NXZ ; CGraphPartData::DeleteAllSubGraph
; File C:\Program Files (x86)\Microsoft Visual Studio\2019\Community\VC\Tools\MSVC\14.29.30133\include\list

; 1431 :         _Node::_Free_non_head(_Al, _My_data._Myhead);

  0000e	8b 57 2c	 mov	 edx, DWORD PTR [edi+44]

; 323  :         _Head->_Prev->_Next = nullptr;

  00011	8b 42 04	 mov	 eax, DWORD PTR [edx+4]
  00014	c7 00 00 00 00
	00		 mov	 DWORD PTR [eax], 0

; 324  : 
; 325  :         auto _Pnode = _Head->_Next;

  0001a	8b 02		 mov	 eax, DWORD PTR [edx]

; 326  :         for (_Nodeptr _Pnext; _Pnode; _Pnode = _Pnext) {

  0001c	85 c0		 test	 eax, eax
  0001e	74 15		 je	 SHORT $LN9@CGraphPart
  00020	56		 push	 esi
$LL10@CGraphPart:

; 327  :             _Pnext = _Pnode->_Next;

  00021	8b 30		 mov	 esi, DWORD PTR [eax]
; File C:\Program Files (x86)\Microsoft Visual Studio\2019\Community\VC\Tools\MSVC\14.29.30133\include\xmemory

; 255  :         ::operator delete(_Ptr, _Bytes);

  00023	6a 0c		 push	 12			; 0000000cH
  00025	50		 push	 eax
  00026	e8 00 00 00 00	 call	 ??3@YAXPAXI@Z		; operator delete
  0002b	83 c4 08	 add	 esp, 8
; File C:\Program Files (x86)\Microsoft Visual Studio\2019\Community\VC\Tools\MSVC\14.29.30133\include\list

; 326  :         for (_Nodeptr _Pnext; _Pnode; _Pnode = _Pnext) {

  0002e	8b c6		 mov	 eax, esi
  00030	85 f6		 test	 esi, esi
  00032	75 ed		 jne	 SHORT $LL10@CGraphPart
  00034	5e		 pop	 esi
$LN9@CGraphPart:
; File C:\Program Files (x86)\Microsoft Visual Studio\2019\Community\VC\Tools\MSVC\14.29.30133\include\xmemory

; 255  :         ::operator delete(_Ptr, _Bytes);

  00035	6a 0c		 push	 12			; 0000000cH
  00037	ff 77 2c	 push	 DWORD PTR [edi+44]
  0003a	e8 00 00 00 00	 call	 ??3@YAXPAXI@Z		; operator delete
  0003f	83 c4 08	 add	 esp, 8
; File D:\git\src\IBK\IBK_DRFN\ProjSrc\SrcChartEx\ChartOCX\IndicatorCondition\IndicatorConditionBaseData.cpp

; 363  : }

  00042	8d 4f 28	 lea	 ecx, DWORD PTR [edi+40]
  00045	ff 15 00 00 00
	00		 call	 DWORD PTR __imp_??1?$CStringT@DV?$StrTraitMFC_DLL@DV?$ChTraitsCRT@D@ATL@@@@@ATL@@QAE@XZ
  0004b	8d 4f 24	 lea	 ecx, DWORD PTR [edi+36]
  0004e	ff 15 00 00 00
	00		 call	 DWORD PTR __imp_??1?$CStringT@DV?$StrTraitMFC_DLL@DV?$ChTraitsCRT@D@ATL@@@@@ATL@@QAE@XZ
  00054	8d 4f 10	 lea	 ecx, DWORD PTR [edi+16]
  00057	e8 00 00 00 00	 call	 ??1CSignalData@@QAE@XZ	; CSignalData::~CSignalData
  0005c	8d 4f 0c	 lea	 ecx, DWORD PTR [edi+12]
  0005f	ff 15 00 00 00
	00		 call	 DWORD PTR __imp_??1?$CStringT@DV?$StrTraitMFC_DLL@DV?$ChTraitsCRT@D@ATL@@@@@ATL@@QAE@XZ
  00065	8d 4f 04	 lea	 ecx, DWORD PTR [edi+4]
  00068	5f		 pop	 edi
  00069	ff 25 00 00 00
	00		 jmp	 DWORD PTR __imp_??1?$CStringT@DV?$StrTraitMFC_DLL@DV?$ChTraitsCRT@D@ATL@@@@@ATL@@QAE@XZ
??1CGraphPartData@@UAE@XZ ENDP				; CGraphPartData::~CGraphPartData
_TEXT	ENDS
; Function compile flags: /Ogtp
; File D:\git\src\IBK\IBK_DRFN\ProjSrc\SrcChartEx\ChartOCX\IndicatorCondition\IndicatorConditionBaseData.cpp
; File C:\Program Files (x86)\Microsoft Visual Studio\2019\Community\VC\Tools\MSVC\14.29.30133\include\xmemory
; File D:\git\src\IBK\IBK_DRFN\ProjSrc\SrcChartEx\ChartOCX\IndicatorCondition\IndicatorConditionBaseData.cpp
; File C:\Program Files (x86)\Microsoft Visual Studio\2019\Community\VC\Tools\MSVC\14.29.30133\include\list
; File C:\Program Files (x86)\Microsoft Visual Studio\2019\Community\VC\Tools\MSVC\14.29.30133\include\xmemory
; File C:\Program Files (x86)\Microsoft Visual Studio\2019\Community\VC\Tools\MSVC\14.29.30133\include\list
; File D:\git\src\IBK\IBK_DRFN\ProjSrc\SrcChartEx\ChartOCX\IndicatorCondition\IndicatorConditionBaseData.cpp
;	COMDAT ??0CGraphPartData@@QAE@ABV0@@Z
_TEXT	SEGMENT
___$ReturnUdt$ = -20					; size = 4
_this$ = -16						; size = 4
__$EHRec$ = -12						; size = 12
_graphPartData$ = 8					; size = 4
??0CGraphPartData@@QAE@ABV0@@Z PROC			; CGraphPartData::CGraphPartData, COMDAT
; _this$ = ecx

; 356  : {

  00000	55		 push	 ebp
  00001	8b ec		 mov	 ebp, esp
  00003	6a ff		 push	 -1
  00005	68 00 00 00 00	 push	 __ehhandler$??0CGraphPartData@@QAE@ABV0@@Z
  0000a	64 a1 00 00 00
	00		 mov	 eax, DWORD PTR fs:0
  00010	50		 push	 eax
  00011	83 ec 08	 sub	 esp, 8
  00014	56		 push	 esi
  00015	57		 push	 edi
  00016	a1 00 00 00 00	 mov	 eax, DWORD PTR ___security_cookie
  0001b	33 c5		 xor	 eax, ebp
  0001d	50		 push	 eax
  0001e	8d 45 f4	 lea	 eax, DWORD PTR __$EHRec$[ebp]
  00021	64 a3 00 00 00
	00		 mov	 DWORD PTR fs:0, eax
  00027	8b f9		 mov	 edi, ecx
  00029	89 7d f0	 mov	 DWORD PTR _this$[ebp], edi

; 406  : 	return m_strGroupName;

  0002c	8b 75 08	 mov	 esi, DWORD PTR _graphPartData$[ebp]

; 354  : 	m_strGroupName(graphPartData.GetGroupName()),

  0002f	8d 4f 04	 lea	 ecx, DWORD PTR [edi+4]

; 356  : {

  00032	c7 07 00 00 00
	00		 mov	 DWORD PTR [edi], OFFSET ??_7CGraphPartData@@6B@
  00038	89 4d ec	 mov	 DWORD PTR ___$ReturnUdt$[ebp], ecx

; 406  : 	return m_strGroupName;

  0003b	8d 46 04	 lea	 eax, DWORD PTR [esi+4]
  0003e	50		 push	 eax
  0003f	ff 15 00 00 00
	00		 call	 DWORD PTR __imp_??0?$CStringT@DV?$StrTraitMFC_DLL@DV?$ChTraitsCRT@D@ATL@@@@@ATL@@QAE@ABV01@@Z

; 355  : 	m_graphData(graphPartData.GetGraphData())

  00045	8d 46 08	 lea	 eax, DWORD PTR [esi+8]
  00048	c7 45 fc 00 00
	00 00		 mov	 DWORD PTR __$EHRec$[ebp+8], 0
  0004f	50		 push	 eax
  00050	8d 4f 08	 lea	 ecx, DWORD PTR [edi+8]
  00053	e8 00 00 00 00	 call	 ??0CGraphData@@QAE@ABV0@@Z
; File C:\Program Files (x86)\Microsoft Visual Studio\2019\Community\VC\Tools\MSVC\14.29.30133\include\xmemory

; 79   :         return ::operator new(_Bytes);

  00058	6a 0c		 push	 12			; 0000000cH
; File D:\git\src\IBK\IBK_DRFN\ProjSrc\SrcChartEx\ChartOCX\IndicatorCondition\IndicatorConditionBaseData.cpp

; 355  : 	m_graphData(graphPartData.GetGraphData())

  0005a	c6 45 fc 01	 mov	 BYTE PTR __$EHRec$[ebp+8], 1
; File C:\Program Files (x86)\Microsoft Visual Studio\2019\Community\VC\Tools\MSVC\14.29.30133\include\list

; 352  :     _List_val() noexcept : _Myhead(), _Mysize(0) {} // initialize data

  0005e	c7 47 2c 00 00
	00 00		 mov	 DWORD PTR [edi+44], 0
  00065	c7 47 30 00 00
	00 00		 mov	 DWORD PTR [edi+48], 0
; File C:\Program Files (x86)\Microsoft Visual Studio\2019\Community\VC\Tools\MSVC\14.29.30133\include\xmemory

; 79   :         return ::operator new(_Bytes);

  0006c	e8 00 00 00 00	 call	 ??2@YAPAXI@Z		; operator new
  00071	83 c4 04	 add	 esp, 4
; File C:\Program Files (x86)\Microsoft Visual Studio\2019\Community\VC\Tools\MSVC\14.29.30133\include\list

; 1767 :         _Construct_in_place(_Newhead->_Next, _Newhead);

  00074	89 00		 mov	 DWORD PTR [eax], eax

; 1768 :         _Construct_in_place(_Newhead->_Prev, _Newhead);

  00076	89 40 04	 mov	 DWORD PTR [eax+4], eax

; 1769 :         _Mypair._Myval2._Myhead = _Newhead;

  00079	89 47 2c	 mov	 DWORD PTR [edi+44], eax
; File D:\git\src\IBK\IBK_DRFN\ProjSrc\SrcChartEx\ChartOCX\IndicatorCondition\IndicatorConditionBaseData.cpp

; 357  : 	CopySubGraphPartDataList(const_cast<CSubGraphPartDataList*>(graphPartData.GetSubGraphPartDataList()));

  0007c	8d 46 2c	 lea	 eax, DWORD PTR [esi+44]
  0007f	c6 45 fc 02	 mov	 BYTE PTR __$EHRec$[ebp+8], 2
  00083	50		 push	 eax
  00084	8b cf		 mov	 ecx, edi
  00086	e8 00 00 00 00	 call	 ?CopySubGraphPartDataList@CGraphPartData@@AAEXPBV?$list@PAVCSubGraphPartData@@V?$allocator@PAVCSubGraphPartData@@@std@@@std@@@Z ; CGraphPartData::CopySubGraphPartDataList

; 358  : }

  0008b	8b c7		 mov	 eax, edi
  0008d	8b 4d f4	 mov	 ecx, DWORD PTR __$EHRec$[ebp]
  00090	64 89 0d 00 00
	00 00		 mov	 DWORD PTR fs:0, ecx
  00097	59		 pop	 ecx
  00098	5f		 pop	 edi
  00099	5e		 pop	 esi
  0009a	8b e5		 mov	 esp, ebp
  0009c	5d		 pop	 ebp
  0009d	c2 04 00	 ret	 4
_TEXT	ENDS
;	COMDAT text$x
text$x	SEGMENT
__unwindfunclet$??0CGraphPartData@@QAE@ABV0@@Z$0:
  00000	8b 4d f0	 mov	 ecx, DWORD PTR _this$[ebp]
  00003	83 c1 04	 add	 ecx, 4
  00006	ff 25 00 00 00
	00		 jmp	 DWORD PTR __imp_??1?$CStringT@DV?$StrTraitMFC_DLL@DV?$ChTraitsCRT@D@ATL@@@@@ATL@@QAE@XZ
__unwindfunclet$??0CGraphPartData@@QAE@ABV0@@Z$1:
  0000c	8b 4d f0	 mov	 ecx, DWORD PTR _this$[ebp]
  0000f	83 c1 08	 add	 ecx, 8
  00012	e9 00 00 00 00	 jmp	 ??1CGraphData@@QAE@XZ
__unwindfunclet$??0CGraphPartData@@QAE@ABV0@@Z$2:
  00017	8b 4d f0	 mov	 ecx, DWORD PTR _this$[ebp]
  0001a	83 c1 2c	 add	 ecx, 44			; 0000002cH
  0001d	e9 00 00 00 00	 jmp	 ??1?$list@PAVCSubGraphPartData@@V?$allocator@PAVCSubGraphPartData@@@std@@@std@@QAE@XZ ; std::list<CSubGraphPartData *,std::allocator<CSubGraphPartData *> >::~list<CSubGraphPartData *,std::allocator<CSubGraphPartData *> >
  00022	cc		 int	 3
  00023	cc		 int	 3
  00024	cc		 int	 3
  00025	cc		 int	 3
  00026	cc		 int	 3
__ehhandler$??0CGraphPartData@@QAE@ABV0@@Z:
  00027	90		 npad	 1
  00028	90		 npad	 1
  00029	8b 54 24 08	 mov	 edx, DWORD PTR [esp+8]
  0002d	8d 42 0c	 lea	 eax, DWORD PTR [edx+12]
  00030	8b 4a ec	 mov	 ecx, DWORD PTR [edx-20]
  00033	33 c8		 xor	 ecx, eax
  00035	e8 00 00 00 00	 call	 @__security_check_cookie@4
  0003a	b8 00 00 00 00	 mov	 eax, OFFSET __ehfuncinfo$??0CGraphPartData@@QAE@ABV0@@Z
  0003f	e9 00 00 00 00	 jmp	 ___CxxFrameHandler3
text$x	ENDS
??0CGraphPartData@@QAE@ABV0@@Z ENDP			; CGraphPartData::CGraphPartData
; Function compile flags: /Ogtp
; File D:\git\src\IBK\IBK_DRFN\ProjSrc\SrcChartEx\ChartOCX\IndicatorCondition\IndicatorConditionBaseData.cpp
; File D:\git\src\IBK\IBK_DRFN\ProjSrc\SrcChartEx\ChartOCX\Include_Chart\GraphData.h
; File C:\Program Files (x86)\Microsoft Visual Studio\2019\Community\VC\Tools\MSVC\14.29.30133\include\xmemory
; File D:\git\src\IBK\IBK_DRFN\ProjSrc\SrcChartEx\ChartOCX\IndicatorCondition\IndicatorConditionBaseData.cpp
; File C:\Program Files (x86)\Microsoft Visual Studio\2019\Community\VC\Tools\MSVC\14.29.30133\include\list
; File C:\Program Files (x86)\Microsoft Visual Studio\2019\Community\VC\Tools\MSVC\14.29.30133\include\xmemory
; File C:\Program Files (x86)\Microsoft Visual Studio\2019\Community\VC\Tools\MSVC\14.29.30133\include\list
; File D:\git\src\IBK\IBK_DRFN\ProjSrc\SrcChartEx\ChartOCX\IndicatorCondition\IndicatorConditionBaseData.cpp
;	COMDAT ??0CGraphPartData@@QAE@XZ
_TEXT	SEGMENT
_this$ = -20						; size = 4
_this$ = -16						; size = 4
__$EHRec$ = -12						; size = 12
??0CGraphPartData@@QAE@XZ PROC				; CGraphPartData::CGraphPartData, COMDAT
; _this$ = ecx

; 350  : {

  00000	55		 push	 ebp
  00001	8b ec		 mov	 ebp, esp
  00003	6a ff		 push	 -1
  00005	68 00 00 00 00	 push	 __ehhandler$??0CGraphPartData@@QAE@XZ
  0000a	64 a1 00 00 00
	00		 mov	 eax, DWORD PTR fs:0
  00010	50		 push	 eax
  00011	83 ec 08	 sub	 esp, 8
  00014	56		 push	 esi
  00015	57		 push	 edi
  00016	a1 00 00 00 00	 mov	 eax, DWORD PTR ___security_cookie
  0001b	33 c5		 xor	 eax, ebp
  0001d	50		 push	 eax
  0001e	8d 45 f4	 lea	 eax, DWORD PTR __$EHRec$[ebp]
  00021	64 a3 00 00 00
	00		 mov	 DWORD PTR fs:0, eax
  00027	8b f9		 mov	 edi, ecx
  00029	89 7d f0	 mov	 DWORD PTR _this$[ebp], edi
  0002c	8d 4f 04	 lea	 ecx, DWORD PTR [edi+4]
  0002f	c7 07 00 00 00
	00		 mov	 DWORD PTR [edi], OFFSET ??_7CGraphPartData@@6B@
  00035	ff 15 00 00 00
	00		 call	 DWORD PTR __imp_??0?$CStringT@DV?$StrTraitMFC_DLL@DV?$ChTraitsCRT@D@ATL@@@@@ATL@@QAE@XZ
  0003b	8d 77 08	 lea	 esi, DWORD PTR [edi+8]
  0003e	c7 45 fc 00 00
	00 00		 mov	 DWORD PTR __$EHRec$[ebp+8], 0
  00045	89 75 ec	 mov	 DWORD PTR _this$[ebp], esi
; File D:\git\src\IBK\IBK_DRFN\ProjSrc\SrcChartEx\ChartOCX\Include_Chart\GraphData.h

; 181  : 	CGraphData()	{}							// (2006/11/26 - Seung-Won, Bae) Created by CIndicatorInfo Consturctor.

  00048	8d 4e 04	 lea	 ecx, DWORD PTR [esi+4]
  0004b	c7 06 00 00 00
	00		 mov	 DWORD PTR [esi], OFFSET ??_7CGraphData@@6B@
  00051	ff 15 00 00 00
	00		 call	 DWORD PTR __imp_??0?$CStringT@DV?$StrTraitMFC_DLL@DV?$ChTraitsCRT@D@ATL@@@@@ATL@@QAE@XZ
  00057	6a 00		 push	 0
  00059	6a 00		 push	 0
  0005b	8d 4e 08	 lea	 ecx, DWORD PTR [esi+8]
  0005e	c6 45 fc 01	 mov	 BYTE PTR __$EHRec$[ebp+8], 1
  00062	e8 00 00 00 00	 call	 ??0CSignalData@@QAE@_N0@Z ; CSignalData::CSignalData
  00067	8d 4e 10	 lea	 ecx, DWORD PTR [esi+16]
  0006a	c6 45 fc 02	 mov	 BYTE PTR __$EHRec$[ebp+8], 2
  0006e	e8 00 00 00 00	 call	 ??0CGraphDataDrawingData@@QAE@XZ ; CGraphDataDrawingData::CGraphDataDrawingData
  00073	8d 4e 1c	 lea	 ecx, DWORD PTR [esi+28]
  00076	ff 15 00 00 00
	00		 call	 DWORD PTR __imp_??0?$CStringT@DV?$StrTraitMFC_DLL@DV?$ChTraitsCRT@D@ATL@@@@@ATL@@QAE@XZ
  0007c	8d 4e 20	 lea	 ecx, DWORD PTR [esi+32]
  0007f	ff 15 00 00 00
	00		 call	 DWORD PTR __imp_??0?$CStringT@DV?$StrTraitMFC_DLL@DV?$ChTraitsCRT@D@ATL@@@@@ATL@@QAE@XZ
; File C:\Program Files (x86)\Microsoft Visual Studio\2019\Community\VC\Tools\MSVC\14.29.30133\include\xmemory

; 79   :         return ::operator new(_Bytes);

  00085	6a 0c		 push	 12			; 0000000cH
; File D:\git\src\IBK\IBK_DRFN\ProjSrc\SrcChartEx\ChartOCX\IndicatorCondition\IndicatorConditionBaseData.cpp

; 350  : {

  00087	c6 45 fc 03	 mov	 BYTE PTR __$EHRec$[ebp+8], 3
; File C:\Program Files (x86)\Microsoft Visual Studio\2019\Community\VC\Tools\MSVC\14.29.30133\include\list

; 352  :     _List_val() noexcept : _Myhead(), _Mysize(0) {} // initialize data

  0008b	c7 47 2c 00 00
	00 00		 mov	 DWORD PTR [edi+44], 0
  00092	c7 47 30 00 00
	00 00		 mov	 DWORD PTR [edi+48], 0
; File C:\Program Files (x86)\Microsoft Visual Studio\2019\Community\VC\Tools\MSVC\14.29.30133\include\xmemory

; 79   :         return ::operator new(_Bytes);

  00099	e8 00 00 00 00	 call	 ??2@YAPAXI@Z		; operator new
  0009e	83 c4 04	 add	 esp, 4
; File C:\Program Files (x86)\Microsoft Visual Studio\2019\Community\VC\Tools\MSVC\14.29.30133\include\list

; 1767 :         _Construct_in_place(_Newhead->_Next, _Newhead);

  000a1	89 00		 mov	 DWORD PTR [eax], eax

; 1768 :         _Construct_in_place(_Newhead->_Prev, _Newhead);

  000a3	89 40 04	 mov	 DWORD PTR [eax+4], eax

; 1769 :         _Mypair._Myval2._Myhead = _Newhead;

  000a6	89 47 2c	 mov	 DWORD PTR [edi+44], eax
; File D:\git\src\IBK\IBK_DRFN\ProjSrc\SrcChartEx\ChartOCX\IndicatorCondition\IndicatorConditionBaseData.cpp

; 351  : }

  000a9	8b c7		 mov	 eax, edi
  000ab	8b 4d f4	 mov	 ecx, DWORD PTR __$EHRec$[ebp]
  000ae	64 89 0d 00 00
	00 00		 mov	 DWORD PTR fs:0, ecx
  000b5	59		 pop	 ecx
  000b6	5f		 pop	 edi
  000b7	5e		 pop	 esi
  000b8	8b e5		 mov	 esp, ebp
  000ba	5d		 pop	 ebp
  000bb	c3		 ret	 0
_TEXT	ENDS
;	COMDAT text$x
text$x	SEGMENT
__unwindfunclet$??0CGraphPartData@@QAE@XZ$0:
  00000	8b 4d f0	 mov	 ecx, DWORD PTR _this$[ebp]
  00003	83 c1 04	 add	 ecx, 4
  00006	ff 25 00 00 00
	00		 jmp	 DWORD PTR __imp_??1?$CStringT@DV?$StrTraitMFC_DLL@DV?$ChTraitsCRT@D@ATL@@@@@ATL@@QAE@XZ
__unwindfunclet$??0CGraphPartData@@QAE@XZ$3:
  0000c	8b 4d ec	 mov	 ecx, DWORD PTR _this$[ebp]
  0000f	83 c1 04	 add	 ecx, 4
  00012	ff 25 00 00 00
	00		 jmp	 DWORD PTR __imp_??1?$CStringT@DV?$StrTraitMFC_DLL@DV?$ChTraitsCRT@D@ATL@@@@@ATL@@QAE@XZ
__unwindfunclet$??0CGraphPartData@@QAE@XZ$4:
  00018	8b 4d ec	 mov	 ecx, DWORD PTR _this$[ebp]
  0001b	83 c1 08	 add	 ecx, 8
  0001e	e9 00 00 00 00	 jmp	 ??1CSignalData@@QAE@XZ	; CSignalData::~CSignalData
__unwindfunclet$??0CGraphPartData@@QAE@XZ$1:
  00023	8b 4d f0	 mov	 ecx, DWORD PTR _this$[ebp]
  00026	83 c1 08	 add	 ecx, 8
  00029	e9 00 00 00 00	 jmp	 ??1CGraphData@@QAE@XZ
  0002e	cc		 int	 3
  0002f	cc		 int	 3
  00030	cc		 int	 3
  00031	cc		 int	 3
  00032	cc		 int	 3
__ehhandler$??0CGraphPartData@@QAE@XZ:
  00033	90		 npad	 1
  00034	90		 npad	 1
  00035	8b 54 24 08	 mov	 edx, DWORD PTR [esp+8]
  00039	8d 42 0c	 lea	 eax, DWORD PTR [edx+12]
  0003c	8b 4a ec	 mov	 ecx, DWORD PTR [edx-20]
  0003f	33 c8		 xor	 ecx, eax
  00041	e8 00 00 00 00	 call	 @__security_check_cookie@4
  00046	b8 00 00 00 00	 mov	 eax, OFFSET __ehfuncinfo$??0CGraphPartData@@QAE@XZ
  0004b	e9 00 00 00 00	 jmp	 ___CxxFrameHandler3
text$x	ENDS
??0CGraphPartData@@QAE@XZ ENDP				; CGraphPartData::CGraphPartData
; Function compile flags: /Ogtp
; File D:\git\src\IBK\IBK_DRFN\ProjSrc\SrcChartEx\ChartOCX\IndicatorCondition\IndicatorConditionBaseData.cpp
;	COMDAT ??4CGraphPartData@@QAEAAV0@ABV0@@Z
_TEXT	SEGMENT
__$EHRec$ = -12						; size = 12
$T2 = 8							; size = 4
_data$ = 8						; size = 4
??4CGraphPartData@@QAEAAV0@ABV0@@Z PROC			; CGraphPartData::operator=, COMDAT
; _this$ = ecx

; 339  : {

  00000	55		 push	 ebp
  00001	8b ec		 mov	 ebp, esp
  00003	6a ff		 push	 -1
  00005	68 00 00 00 00	 push	 __ehhandler$??4CGraphPartData@@QAEAAV0@ABV0@@Z
  0000a	64 a1 00 00 00
	00		 mov	 eax, DWORD PTR fs:0
  00010	50		 push	 eax
  00011	56		 push	 esi
  00012	57		 push	 edi
  00013	a1 00 00 00 00	 mov	 eax, DWORD PTR ___security_cookie
  00018	33 c5		 xor	 eax, ebp
  0001a	50		 push	 eax
  0001b	8d 45 f4	 lea	 eax, DWORD PTR __$EHRec$[ebp]
  0001e	64 a3 00 00 00
	00		 mov	 DWORD PTR fs:0, eax
  00024	8b f1		 mov	 esi, ecx

; 340  : 	if(this == &data)

  00026	8b 7d 08	 mov	 edi, DWORD PTR _data$[ebp]
  00029	3b f7		 cmp	 esi, edi
  0002b	74 48		 je	 SHORT $LN10@operator

; 406  : 	return m_strGroupName;

  0002d	8d 47 04	 lea	 eax, DWORD PTR [edi+4]
  00030	50		 push	 eax
  00031	8d 4d 08	 lea	 ecx, DWORD PTR $T2[ebp]
  00034	ff 15 00 00 00
	00		 call	 DWORD PTR __imp_??0?$CStringT@DV?$StrTraitMFC_DLL@DV?$ChTraitsCRT@D@ATL@@@@@ATL@@QAE@ABV01@@Z

; 341  : 		return *this;
; 342  : 
; 343  : 	m_strGroupName = data.GetGroupName();

  0003a	8d 45 08	 lea	 eax, DWORD PTR $T2[ebp]
  0003d	c7 45 fc 00 00
	00 00		 mov	 DWORD PTR __$EHRec$[ebp+8], 0
  00044	50		 push	 eax
  00045	8d 4e 04	 lea	 ecx, DWORD PTR [esi+4]
  00048	ff 15 00 00 00
	00		 call	 DWORD PTR __imp_??4?$CStringT@DV?$StrTraitMFC_DLL@DV?$ChTraitsCRT@D@ATL@@@@@ATL@@QAEAAV01@ABV01@@Z
  0004e	8d 4d 08	 lea	 ecx, DWORD PTR $T2[ebp]
  00051	c7 45 fc ff ff
	ff ff		 mov	 DWORD PTR __$EHRec$[ebp+8], -1
  00058	ff 15 00 00 00
	00		 call	 DWORD PTR __imp_??1?$CStringT@DV?$StrTraitMFC_DLL@DV?$ChTraitsCRT@D@ATL@@@@@ATL@@QAE@XZ

; 344  : 	m_graphData = data.GetGraphData();

  0005e	8d 47 08	 lea	 eax, DWORD PTR [edi+8]
  00061	50		 push	 eax
  00062	8d 4e 08	 lea	 ecx, DWORD PTR [esi+8]
  00065	e8 00 00 00 00	 call	 ??4CGraphData@@QAEAAV0@ABV0@@Z ; CGraphData::operator=

; 345  : 	CopySubGraphPartDataList(const_cast<CSubGraphPartDataList*>(data.GetSubGraphPartDataList()));

  0006a	8d 47 2c	 lea	 eax, DWORD PTR [edi+44]
  0006d	8b ce		 mov	 ecx, esi
  0006f	50		 push	 eax
  00070	e8 00 00 00 00	 call	 ?CopySubGraphPartDataList@CGraphPartData@@AAEXPBV?$list@PAVCSubGraphPartData@@V?$allocator@PAVCSubGraphPartData@@@std@@@std@@@Z ; CGraphPartData::CopySubGraphPartDataList
$LN10@operator:

; 346  : 	return *this;
; 347  : }

  00075	8b c6		 mov	 eax, esi
  00077	8b 4d f4	 mov	 ecx, DWORD PTR __$EHRec$[ebp]
  0007a	64 89 0d 00 00
	00 00		 mov	 DWORD PTR fs:0, ecx
  00081	59		 pop	 ecx
  00082	5f		 pop	 edi
  00083	5e		 pop	 esi
  00084	8b e5		 mov	 esp, ebp
  00086	5d		 pop	 ebp
  00087	c2 04 00	 ret	 4
_TEXT	ENDS
;	COMDAT text$x
text$x	SEGMENT
__unwindfunclet$??4CGraphPartData@@QAEAAV0@ABV0@@Z$0:
  00000	8d 4d 08	 lea	 ecx, DWORD PTR $T2[ebp]
  00003	ff 25 00 00 00
	00		 jmp	 DWORD PTR __imp_??1?$CStringT@DV?$StrTraitMFC_DLL@DV?$ChTraitsCRT@D@ATL@@@@@ATL@@QAE@XZ
  00009	cc		 int	 3
  0000a	cc		 int	 3
  0000b	cc		 int	 3
  0000c	cc		 int	 3
  0000d	cc		 int	 3
__ehhandler$??4CGraphPartData@@QAEAAV0@ABV0@@Z:
  0000e	90		 npad	 1
  0000f	90		 npad	 1
  00010	8b 54 24 08	 mov	 edx, DWORD PTR [esp+8]
  00014	8d 42 0c	 lea	 eax, DWORD PTR [edx+12]
  00017	8b 4a f4	 mov	 ecx, DWORD PTR [edx-12]
  0001a	33 c8		 xor	 ecx, eax
  0001c	e8 00 00 00 00	 call	 @__security_check_cookie@4
  00021	b8 00 00 00 00	 mov	 eax, OFFSET __ehfuncinfo$??4CGraphPartData@@QAEAAV0@ABV0@@Z
  00026	e9 00 00 00 00	 jmp	 ___CxxFrameHandler3
text$x	ENDS
??4CGraphPartData@@QAEAAV0@ABV0@@Z ENDP			; CGraphPartData::operator=
; Function compile flags: /Ogtp
; File D:\git\src\IBK\IBK_DRFN\ProjSrc\SrcChartEx\ChartOCX\IndicatorCondition\IndicatorConditionBaseData.cpp
; File C:\Program Files (x86)\Microsoft Visual Studio\2019\Community\VC\Tools\MSVC\14.29.30133\include\list
; File D:\git\src\IBK\IBK_DRFN\ProjSrc\SrcChartEx\ChartOCX\IndicatorCondition\IndicatorConditionBaseData.cpp
; File C:\Program Files (x86)\Microsoft Visual Studio\2019\Community\VC\Tools\MSVC\14.29.30133\include\list
; File D:\git\src\IBK\IBK_DRFN\ProjSrc\SrcChartEx\ChartOCX\IndicatorCondition\IndicatorConditionBaseData.cpp
; File C:\Program Files (x86)\Microsoft Visual Studio\2019\Community\VC\Tools\MSVC\14.29.30133\include\list
; File D:\git\src\IBK\IBK_DRFN\ProjSrc\SrcChartEx\ChartOCX\IndicatorCondition\IndicatorConditionBaseData.cpp
; File C:\Program Files (x86)\Microsoft Visual Studio\2019\Community\VC\Tools\MSVC\14.29.30133\atlmfc\include\afxtempl.h
; File D:\git\src\IBK\IBK_DRFN\ProjSrc\SrcChartEx\ChartOCX\IndicatorCondition\IndicatorConditionBaseData.cpp
; File C:\Program Files (x86)\Microsoft Visual Studio\2019\Community\VC\Tools\MSVC\14.29.30133\include\list
; File D:\git\src\IBK\IBK_DRFN\ProjSrc\SrcChartEx\ChartOCX\IndicatorCondition\IndicatorConditionBaseData.cpp
; File C:\Program Files (x86)\Microsoft Visual Studio\2019\Community\VC\Tools\MSVC\14.29.30133\include\list
; File D:\git\src\IBK\IBK_DRFN\ProjSrc\SrcChartEx\ChartOCX\IndicatorCondition\IndicatorConditionBaseData.cpp
;	COMDAT ?SetAllSubGraphDataList@CGraphPartData@@AAE_NPBV?$CList@PAVCSubGraphData@@PAV1@@@AAV?$list@PAVCSubGraphPartData@@V?$allocator@PAVCSubGraphPartData@@@std@@@std@@@Z
_TEXT	SEGMENT
_pSubGraphDataList$ = 8					; size = 4
_targetData$ = 12					; size = 4
?SetAllSubGraphDataList@CGraphPartData@@AAE_NPBV?$CList@PAVCSubGraphData@@PAV1@@@AAV?$list@PAVCSubGraphPartData@@V?$allocator@PAVCSubGraphPartData@@@std@@@std@@@Z PROC ; CGraphPartData::SetAllSubGraphDataList, COMDAT
; _this$ = ecx

; 1022 : {

  00000	55		 push	 ebp
  00001	8b ec		 mov	 ebp, esp
  00003	57		 push	 edi

; 1023 : 	if(pSubGraphDataList == NULL || pSubGraphDataList->GetCount() <= 0)

  00004	8b 7d 08	 mov	 edi, DWORD PTR _pSubGraphDataList$[ebp]
  00007	85 ff		 test	 edi, edi
  00009	74 48		 je	 SHORT $LN6@SetAllSubG
  0000b	83 7f 0c 00	 cmp	 DWORD PTR [edi+12], 0
  0000f	7e 42		 jle	 SHORT $LN6@SetAllSubG
; File C:\Program Files (x86)\Microsoft Visual Studio\2019\Community\VC\Tools\MSVC\14.29.30133\include\list

; 1083 :         return iterator(_Mypair._Myval2._Myhead->_Next, _STD addressof(_Mypair._Myval2));

  00011	8b 45 0c	 mov	 eax, DWORD PTR _targetData$[ebp]
; File D:\git\src\IBK\IBK_DRFN\ProjSrc\SrcChartEx\ChartOCX\IndicatorCondition\IndicatorConditionBaseData.cpp

; 1028 : 	POSITION pos = pSubGraphDataList->GetHeadPosition();

  00014	8b 7f 04	 mov	 edi, DWORD PTR [edi+4]
  00017	53		 push	 ebx
  00018	56		 push	 esi
; File C:\Program Files (x86)\Microsoft Visual Studio\2019\Community\VC\Tools\MSVC\14.29.30133\include\list

; 1083 :         return iterator(_Mypair._Myval2._Myhead->_Next, _STD addressof(_Mypair._Myval2));

  00019	8b 00		 mov	 eax, DWORD PTR [eax]
; File D:\git\src\IBK\IBK_DRFN\ProjSrc\SrcChartEx\ChartOCX\IndicatorCondition\IndicatorConditionBaseData.cpp

; 1027 : 	bool bResult = false;

  0001b	32 db		 xor	 bl, bl
; File C:\Program Files (x86)\Microsoft Visual Studio\2019\Community\VC\Tools\MSVC\14.29.30133\include\list

; 38   :     _List_unchecked_const_iterator(_Nodeptr _Pnode, const _Mylist* _Plist) noexcept : _Ptr(_Pnode) {

  0001d	8b 30		 mov	 esi, DWORD PTR [eax]
  0001f	3b f0		 cmp	 esi, eax
; File D:\git\src\IBK\IBK_DRFN\ProjSrc\SrcChartEx\ChartOCX\IndicatorCondition\IndicatorConditionBaseData.cpp

; 1030 : 	for(t_i = targetData.begin(); t_i != targetData.end() && pos != NULL; ++t_i)

  00021	74 27		 je	 SHORT $LN43@SetAllSubG
$LL22@SetAllSubG:
  00023	85 ff		 test	 edi, edi
  00025	74 23		 je	 SHORT $LN43@SetAllSubG

; 1035 : 		if(pTarget->CopyDataWithVerificationFrom(*pSourceSubGraphData))

  00027	ff 77 08	 push	 DWORD PTR [edi+8]
  0002a	8b 4e 08	 mov	 ecx, DWORD PTR [esi+8]
; File C:\Program Files (x86)\Microsoft Visual Studio\2019\Community\VC\Tools\MSVC\14.29.30133\atlmfc\include\afxtempl.h

; 819  : 		rPosition = (POSITION) pNode->pNext;

  0002d	8b 3f		 mov	 edi, DWORD PTR [edi]
; File D:\git\src\IBK\IBK_DRFN\ProjSrc\SrcChartEx\ChartOCX\IndicatorCondition\IndicatorConditionBaseData.cpp

; 1035 : 		if(pTarget->CopyDataWithVerificationFrom(*pSourceSubGraphData))

  0002f	e8 00 00 00 00	 call	 ?CopyDataWithVerificationFrom@CSubGraphPartData@@QAE_NABVCSubGraphData@@@Z ; CSubGraphPartData::CopyDataWithVerificationFrom
; File C:\Program Files (x86)\Microsoft Visual Studio\2019\Community\VC\Tools\MSVC\14.29.30133\include\list

; 165  :         this->_Ptr = this->_Ptr->_Next;

  00034	8b 36		 mov	 esi, DWORD PTR [esi]
; File D:\git\src\IBK\IBK_DRFN\ProjSrc\SrcChartEx\ChartOCX\IndicatorCondition\IndicatorConditionBaseData.cpp

; 1035 : 		if(pTarget->CopyDataWithVerificationFrom(*pSourceSubGraphData))

  00036	84 c0		 test	 al, al
  00038	b8 01 00 00 00	 mov	 eax, 1
  0003d	0f b6 db	 movzx	 ebx, bl
  00040	0f 45 d8	 cmovne	 ebx, eax
; File C:\Program Files (x86)\Microsoft Visual Studio\2019\Community\VC\Tools\MSVC\14.29.30133\include\list

; 198  :         return this->_Ptr == _Right._Ptr;

  00043	8b 45 0c	 mov	 eax, DWORD PTR _targetData$[ebp]
  00046	3b 30		 cmp	 esi, DWORD PTR [eax]
; File D:\git\src\IBK\IBK_DRFN\ProjSrc\SrcChartEx\ChartOCX\IndicatorCondition\IndicatorConditionBaseData.cpp

; 1030 : 	for(t_i = targetData.begin(); t_i != targetData.end() && pos != NULL; ++t_i)

  00048	75 d9		 jne	 SHORT $LL22@SetAllSubG
$LN43@SetAllSubG:

; 1036 : 			bResult = true;
; 1037 : 	}
; 1038 : 
; 1039 : 	return bResult;

  0004a	5e		 pop	 esi
  0004b	8a c3		 mov	 al, bl
  0004d	5b		 pop	 ebx
  0004e	5f		 pop	 edi

; 1040 : }

  0004f	5d		 pop	 ebp
  00050	c2 08 00	 ret	 8
$LN6@SetAllSubG:

; 1024 : 		return false;

  00053	32 c0		 xor	 al, al
  00055	5f		 pop	 edi

; 1040 : }

  00056	5d		 pop	 ebp
  00057	c2 08 00	 ret	 8
?SetAllSubGraphDataList@CGraphPartData@@AAE_NPBV?$CList@PAVCSubGraphData@@PAV1@@@AAV?$list@PAVCSubGraphPartData@@V?$allocator@PAVCSubGraphPartData@@@std@@@std@@@Z ENDP ; CGraphPartData::SetAllSubGraphDataList
_TEXT	ENDS
; Function compile flags: /Ogtp
; File D:\git\src\IBK\IBK_DRFN\ProjSrc\SrcChartEx\ChartOCX\IndicatorCondition\IndicatorConditionBaseData.cpp
; File C:\Program Files (x86)\Microsoft Visual Studio\2019\Community\VC\Tools\MSVC\14.29.30133\include\list
; File D:\git\src\IBK\IBK_DRFN\ProjSrc\SrcChartEx\ChartOCX\IndicatorCondition\IndicatorConditionBaseData.cpp
; File C:\Program Files (x86)\Microsoft Visual Studio\2019\Community\VC\Tools\MSVC\14.29.30133\include\list
; File D:\git\src\IBK\IBK_DRFN\ProjSrc\SrcChartEx\ChartOCX\IndicatorCondition\IndicatorConditionBaseData.cpp
;	COMDAT ?SetSubGraphPartDataListInVerifiable@CGraphPartData@@AAEXPBV?$list@PAVCSubGraphPartData@@V?$allocator@PAVCSubGraphPartData@@@std@@@std@@@Z
_TEXT	SEGMENT
_pSource$1$ = -20					; size = 4
$T2 = -16						; size = 4
__$EHRec$ = -12						; size = 12
_pSourceData$ = 8					; size = 4
?SetSubGraphPartDataListInVerifiable@CGraphPartData@@AAEXPBV?$list@PAVCSubGraphPartData@@V?$allocator@PAVCSubGraphPartData@@@std@@@std@@@Z PROC ; CGraphPartData::SetSubGraphPartDataListInVerifiable, COMDAT
; _this$ = ecx

; 1005 : {

  00000	55		 push	 ebp
  00001	8b ec		 mov	 ebp, esp
  00003	6a ff		 push	 -1
  00005	68 00 00 00 00	 push	 __ehhandler$?SetSubGraphPartDataListInVerifiable@CGraphPartData@@AAEXPBV?$list@PAVCSubGraphPartData@@V?$allocator@PAVCSubGraphPartData@@@std@@@std@@@Z
  0000a	64 a1 00 00 00
	00		 mov	 eax, DWORD PTR fs:0
  00010	50		 push	 eax
  00011	83 ec 08	 sub	 esp, 8
  00014	53		 push	 ebx
  00015	56		 push	 esi
  00016	57		 push	 edi
  00017	a1 00 00 00 00	 mov	 eax, DWORD PTR ___security_cookie
  0001c	33 c5		 xor	 eax, ebp
  0001e	50		 push	 eax
  0001f	8d 45 f4	 lea	 eax, DWORD PTR __$EHRec$[ebp]
  00022	64 a3 00 00 00
	00		 mov	 DWORD PTR fs:0, eax
  00028	8b f9		 mov	 edi, ecx

; 1006 : 	// (2006/5/30 - Seung-Won, Bae) Do not check Sub Graph Count. (Update possible SubGraph.)
; 1007 : 	if(pSourceData == NULL) return;

  0002a	83 7d 08 00	 cmp	 DWORD PTR _pSourceData$[ebp], 0
  0002e	74 5d		 je	 SHORT $LN3@SetSubGrap
; File C:\Program Files (x86)\Microsoft Visual Studio\2019\Community\VC\Tools\MSVC\14.29.30133\include\list

; 1083 :         return iterator(_Mypair._Myval2._Myhead->_Next, _STD addressof(_Mypair._Myval2));

  00030	8b 47 2c	 mov	 eax, DWORD PTR [edi+44]

; 38   :     _List_unchecked_const_iterator(_Nodeptr _Pnode, const _Mylist* _Plist) noexcept : _Ptr(_Pnode) {

  00033	8b 30		 mov	 esi, DWORD PTR [eax]
; File D:\git\src\IBK\IBK_DRFN\ProjSrc\SrcChartEx\ChartOCX\IndicatorCondition\IndicatorConditionBaseData.cpp

; 1011 : 	for(i = m_subGraphPartDataList.begin(); i != m_subGraphPartDataList.end(); ++i)

  00035	3b f0		 cmp	 esi, eax
  00037	74 54		 je	 SHORT $LN3@SetSubGrap
  00039	0f 1f 80 00 00
	00 00		 npad	 7
$LL22@SetSubGrap:

; 1012 : 	{
; 1013 :         CSubGraphPartData* pTarget = *i;

  00040	8b 5e 08	 mov	 ebx, DWORD PTR [esi+8]

; 118  : 	return m_subGraphData.GetName();

  00043	8d 45 f0	 lea	 eax, DWORD PTR $T2[ebp]
  00046	50		 push	 eax
  00047	8d 4b 24	 lea	 ecx, DWORD PTR [ebx+36]
  0004a	e8 00 00 00 00	 call	 ?GetName@CSubGraphDataBase@@QBE?AV?$CStringT@DV?$StrTraitMFC_DLL@DV?$ChTraitsCRT@D@ATL@@@@@ATL@@XZ ; CSubGraphDataBase::GetName

; 1014 : 		assert(pTarget != NULL);
; 1015 : 		CSubGraphPartData* pSource = GetSubGraphPartData(pSourceData, pTarget->GetSubGraphName());

  0004f	8d 45 f0	 lea	 eax, DWORD PTR $T2[ebp]
  00052	c7 45 fc 00 00
	00 00		 mov	 DWORD PTR __$EHRec$[ebp+8], 0
  00059	50		 push	 eax
  0005a	ff 75 08	 push	 DWORD PTR _pSourceData$[ebp]
  0005d	8b cf		 mov	 ecx, edi
  0005f	e8 00 00 00 00	 call	 ?GetSubGraphPartData@CGraphPartData@@QBEPAVCSubGraphPartData@@PBV?$list@PAVCSubGraphPartData@@V?$allocator@PAVCSubGraphPartData@@@std@@@std@@ABV?$CStringT@DV?$StrTraitMFC_DLL@DV?$ChTraitsCRT@D@ATL@@@@@ATL@@@Z ; CGraphPartData::GetSubGraphPartData
  00064	8d 4d f0	 lea	 ecx, DWORD PTR $T2[ebp]
  00067	89 45 ec	 mov	 DWORD PTR _pSource$1$[ebp], eax
  0006a	c7 45 fc ff ff
	ff ff		 mov	 DWORD PTR __$EHRec$[ebp+8], -1
  00071	ff 15 00 00 00
	00		 call	 DWORD PTR __imp_??1?$CStringT@DV?$StrTraitMFC_DLL@DV?$ChTraitsCRT@D@ATL@@@@@ATL@@QAE@XZ

; 1016 : 		if( pSource) pTarget->CopyDataWithVerificationFrom(pSource);

  00077	8b 45 ec	 mov	 eax, DWORD PTR _pSource$1$[ebp]
  0007a	85 c0		 test	 eax, eax
  0007c	74 08		 je	 SHORT $LN2@SetSubGrap
  0007e	50		 push	 eax
  0007f	8b cb		 mov	 ecx, ebx
  00081	e8 00 00 00 00	 call	 ?CopyDataWithVerificationFrom@CSubGraphPartData@@QAE_NPBV1@@Z ; CSubGraphPartData::CopyDataWithVerificationFrom
$LN2@SetSubGrap:
; File C:\Program Files (x86)\Microsoft Visual Studio\2019\Community\VC\Tools\MSVC\14.29.30133\include\list

; 165  :         this->_Ptr = this->_Ptr->_Next;

  00086	8b 36		 mov	 esi, DWORD PTR [esi]

; 198  :         return this->_Ptr == _Right._Ptr;

  00088	3b 77 2c	 cmp	 esi, DWORD PTR [edi+44]
; File D:\git\src\IBK\IBK_DRFN\ProjSrc\SrcChartEx\ChartOCX\IndicatorCondition\IndicatorConditionBaseData.cpp

; 1011 : 	for(i = m_subGraphPartDataList.begin(); i != m_subGraphPartDataList.end(); ++i)

  0008b	75 b3		 jne	 SHORT $LL22@SetSubGrap
$LN3@SetSubGrap:

; 1017 : 	}
; 1018 : }

  0008d	8b 4d f4	 mov	 ecx, DWORD PTR __$EHRec$[ebp]
  00090	64 89 0d 00 00
	00 00		 mov	 DWORD PTR fs:0, ecx
  00097	59		 pop	 ecx
  00098	5f		 pop	 edi
  00099	5e		 pop	 esi
  0009a	5b		 pop	 ebx
  0009b	8b e5		 mov	 esp, ebp
  0009d	5d		 pop	 ebp
  0009e	c2 04 00	 ret	 4
_TEXT	ENDS
;	COMDAT text$x
text$x	SEGMENT
__unwindfunclet$?SetSubGraphPartDataListInVerifiable@CGraphPartData@@AAEXPBV?$list@PAVCSubGraphPartData@@V?$allocator@PAVCSubGraphPartData@@@std@@@std@@@Z$0:
  00000	8d 4d f0	 lea	 ecx, DWORD PTR $T2[ebp]
  00003	ff 25 00 00 00
	00		 jmp	 DWORD PTR __imp_??1?$CStringT@DV?$StrTraitMFC_DLL@DV?$ChTraitsCRT@D@ATL@@@@@ATL@@QAE@XZ
  00009	cc		 int	 3
  0000a	cc		 int	 3
  0000b	cc		 int	 3
  0000c	cc		 int	 3
  0000d	cc		 int	 3
__ehhandler$?SetSubGraphPartDataListInVerifiable@CGraphPartData@@AAEXPBV?$list@PAVCSubGraphPartData@@V?$allocator@PAVCSubGraphPartData@@@std@@@std@@@Z:
  0000e	90		 npad	 1
  0000f	90		 npad	 1
  00010	8b 54 24 08	 mov	 edx, DWORD PTR [esp+8]
  00014	8d 42 0c	 lea	 eax, DWORD PTR [edx+12]
  00017	8b 4a e8	 mov	 ecx, DWORD PTR [edx-24]
  0001a	33 c8		 xor	 ecx, eax
  0001c	e8 00 00 00 00	 call	 @__security_check_cookie@4
  00021	b8 00 00 00 00	 mov	 eax, OFFSET __ehfuncinfo$?SetSubGraphPartDataListInVerifiable@CGraphPartData@@AAEXPBV?$list@PAVCSubGraphPartData@@V?$allocator@PAVCSubGraphPartData@@@std@@@std@@@Z
  00026	e9 00 00 00 00	 jmp	 ___CxxFrameHandler3
text$x	ENDS
?SetSubGraphPartDataListInVerifiable@CGraphPartData@@AAEXPBV?$list@PAVCSubGraphPartData@@V?$allocator@PAVCSubGraphPartData@@@std@@@std@@@Z ENDP ; CGraphPartData::SetSubGraphPartDataListInVerifiable
; Function compile flags: /Ogtp
; File D:\git\src\IBK\IBK_DRFN\ProjSrc\SrcChartEx\ChartOCX\IndicatorCondition\IndicatorConditionBaseData.cpp
;	COMDAT ?SetGraphDataInVerifiable@CGraphPartData@@AAEXABVCGraphData@@@Z
_TEXT	SEGMENT
$T1 = -12						; size = 12
_sourceData$ = 8					; size = 4
?SetGraphDataInVerifiable@CGraphPartData@@AAEXABVCGraphData@@@Z PROC ; CGraphPartData::SetGraphDataInVerifiable, COMDAT
; _this$ = ecx

; 992  : {

  00000	55		 push	 ebp
  00001	8b ec		 mov	 ebp, esp
  00003	83 ec 0c	 sub	 esp, 12			; 0000000cH
  00006	56		 push	 esi

; 993  : //	m_graphData.SetFunctionIndex( sourceData.GetFunctionIndex());
; 994  : 
; 995  : 	if(m_graphData.IsSignalUse()) m_graphData.SetSignalData( true, sourceData.IsSignalShow());

  00007	8d 71 08	 lea	 esi, DWORD PTR [ecx+8]
  0000a	8b ce		 mov	 ecx, esi
  0000c	e8 00 00 00 00	 call	 ?IsSignalUse@CGraphData@@QBE_NXZ ; CGraphData::IsSignalUse
  00011	84 c0		 test	 al, al
  00013	74 15		 je	 SHORT $LN2@SetGraphDa
  00015	8b 4d 08	 mov	 ecx, DWORD PTR _sourceData$[ebp]
  00018	e8 00 00 00 00	 call	 ?IsSignalShow@CGraphData@@QBE_NXZ ; CGraphData::IsSignalShow
  0001d	0f b6 c0	 movzx	 eax, al
  00020	8b ce		 mov	 ecx, esi
  00022	50		 push	 eax
  00023	6a 01		 push	 1
  00025	e8 00 00 00 00	 call	 ?SetSignalData@CGraphData@@QAEX_N0@Z ; CGraphData::SetSignalData
$LN2@SetGraphDa:

; 996  : 
; 997  : 	m_graphData.SetGraphDataDrawingData( sourceData.GetGraphDataDrawingData());

  0002a	8b 4d 08	 mov	 ecx, DWORD PTR _sourceData$[ebp]
  0002d	8d 45 f4	 lea	 eax, DWORD PTR $T1[ebp]
  00030	50		 push	 eax
  00031	e8 00 00 00 00	 call	 ?GetGraphDataDrawingData@CGraphData@@QBE?AVCGraphDataDrawingData@@XZ ; CGraphData::GetGraphDataDrawingData
  00036	50		 push	 eax
  00037	8b ce		 mov	 ecx, esi
  00039	e8 00 00 00 00	 call	 ?SetGraphDataDrawingData@CGraphData@@QAEXABVCGraphDataDrawingData@@@Z ; CGraphData::SetGraphDataDrawingData
  0003e	5e		 pop	 esi

; 998  : 
; 999  : 	// (2006/5/28 - Seung-Won, Bae) with minmaxdatadrawing
; 1000 : //	m_graphData.SetViewMinMaxDrawingData( sourceData.GetViewMinMaxDrawingData());
; 1001 : }

  0003f	8b e5		 mov	 esp, ebp
  00041	5d		 pop	 ebp
  00042	c2 04 00	 ret	 4
?SetGraphDataInVerifiable@CGraphPartData@@AAEXABVCGraphData@@@Z ENDP ; CGraphPartData::SetGraphDataInVerifiable
_TEXT	ENDS
; Function compile flags: /Ogtp
; File D:\git\src\IBK\IBK_DRFN\ProjSrc\SrcChartEx\ChartOCX\IndicatorCondition\IndicatorConditionBaseData.cpp
; File C:\Program Files (x86)\Microsoft Visual Studio\2019\Community\VC\Tools\MSVC\14.29.30133\include\list
; File D:\git\src\IBK\IBK_DRFN\ProjSrc\SrcChartEx\ChartOCX\IndicatorCondition\IndicatorConditionBaseData.cpp
; File C:\Program Files (x86)\Microsoft Visual Studio\2019\Community\VC\Tools\MSVC\14.29.30133\include\list
; File D:\git\src\IBK\IBK_DRFN\ProjSrc\SrcChartEx\ChartOCX\IndicatorCondition\IndicatorConditionBaseData.cpp
; File C:\Program Files (x86)\Microsoft Visual Studio\2019\Community\VC\Tools\MSVC\14.29.30133\include\list
; File C:\Program Files (x86)\Microsoft Visual Studio\2019\Community\VC\Tools\MSVC\14.29.30133\include\xmemory
; File C:\Program Files (x86)\Microsoft Visual Studio\2019\Community\VC\Tools\MSVC\14.29.30133\include\list
; File C:\Program Files (x86)\Microsoft Visual Studio\2019\Community\VC\Tools\MSVC\14.29.30133\include\xmemory
; File C:\Program Files (x86)\Microsoft Visual Studio\2019\Community\VC\Tools\MSVC\14.29.30133\include\list
; File C:\Program Files (x86)\Microsoft Visual Studio\2019\Community\VC\Tools\MSVC\14.29.30133\include\xmemory
; File C:\Program Files (x86)\Microsoft Visual Studio\2019\Community\VC\Tools\MSVC\14.29.30133\include\list
; File D:\git\src\IBK\IBK_DRFN\ProjSrc\SrcChartEx\ChartOCX\IndicatorCondition\IndicatorConditionBaseData.cpp
; File C:\Program Files (x86)\Microsoft Visual Studio\2019\Community\VC\Tools\MSVC\14.29.30133\include\list
; File D:\git\src\IBK\IBK_DRFN\ProjSrc\SrcChartEx\ChartOCX\IndicatorCondition\IndicatorConditionBaseData.cpp
;	COMDAT ?CopySubGraphPartDataList@CGraphPartData@@AAEXPBV?$list@PAVCSubGraphPartData@@V?$allocator@PAVCSubGraphPartData@@@std@@@std@@@Z
_TEXT	SEGMENT
__Op$2 = -28						; size = 8
$T3 = -20						; size = 4
$T4 = -16						; size = 4
__$EHRec$ = -12						; size = 12
_pSourceData$ = 8					; size = 4
?CopySubGraphPartDataList@CGraphPartData@@AAEXPBV?$list@PAVCSubGraphPartData@@V?$allocator@PAVCSubGraphPartData@@@std@@@std@@@Z PROC ; CGraphPartData::CopySubGraphPartDataList, COMDAT
; _this$ = ecx

; 977  : {

  00000	55		 push	 ebp
  00001	8b ec		 mov	 ebp, esp
  00003	6a ff		 push	 -1
  00005	68 00 00 00 00	 push	 __ehhandler$?CopySubGraphPartDataList@CGraphPartData@@AAEXPBV?$list@PAVCSubGraphPartData@@V?$allocator@PAVCSubGraphPartData@@@std@@@std@@@Z
  0000a	64 a1 00 00 00
	00		 mov	 eax, DWORD PTR fs:0
  00010	50		 push	 eax
  00011	83 ec 10	 sub	 esp, 16			; 00000010H
  00014	53		 push	 ebx
  00015	56		 push	 esi
  00016	57		 push	 edi
  00017	a1 00 00 00 00	 mov	 eax, DWORD PTR ___security_cookie
  0001c	33 c5		 xor	 eax, ebp
  0001e	50		 push	 eax
  0001f	8d 45 f4	 lea	 eax, DWORD PTR __$EHRec$[ebp]
  00022	64 a3 00 00 00
	00		 mov	 DWORD PTR fs:0, eax
  00028	8b f9		 mov	 edi, ecx

; 978  : 	DeleteAllSubGraph();

  0002a	e8 00 00 00 00	 call	 ?DeleteAllSubGraph@CGraphPartData@@QAE_NXZ ; CGraphPartData::DeleteAllSubGraph
; File C:\Program Files (x86)\Microsoft Visual Studio\2019\Community\VC\Tools\MSVC\14.29.30133\include\list

; 1087 :         return const_iterator(_Mypair._Myval2._Myhead->_Next, _STD addressof(_Mypair._Myval2));

  0002f	8b 45 08	 mov	 eax, DWORD PTR _pSourceData$[ebp]
  00032	8b 00		 mov	 eax, DWORD PTR [eax]

; 38   :     _List_unchecked_const_iterator(_Nodeptr _Pnode, const _Mylist* _Plist) noexcept : _Ptr(_Pnode) {

  00034	8b 30		 mov	 esi, DWORD PTR [eax]
; File D:\git\src\IBK\IBK_DRFN\ProjSrc\SrcChartEx\ChartOCX\IndicatorCondition\IndicatorConditionBaseData.cpp

; 981  : 	for(i = pSourceData->begin(); i != pSourceData->end(); ++i)

  00036	3b f0		 cmp	 esi, eax
  00038	0f 84 92 00 00
	00		 je	 $LN3@CopySubGra
  0003e	83 c7 2c	 add	 edi, 44			; 0000002cH
$LL20@CopySubGra:

; 983  :         CSubGraphPartData* pNewSubGraphPartData = new CSubGraphPartData(*(*i));

  00041	68 ac 00 00 00	 push	 172			; 000000acH
  00046	e8 00 00 00 00	 call	 ??2@YAPAXI@Z		; operator new
  0004b	83 c4 04	 add	 esp, 4
  0004e	89 45 ec	 mov	 DWORD PTR $T3[ebp], eax
  00051	c7 45 fc 00 00
	00 00		 mov	 DWORD PTR __$EHRec$[ebp+8], 0
  00058	85 c0		 test	 eax, eax
  0005a	74 0f		 je	 SHORT $LN6@CopySubGra
  0005c	ff 76 08	 push	 DWORD PTR [esi+8]
  0005f	8b c8		 mov	 ecx, eax
  00061	e8 00 00 00 00	 call	 ??0CSubGraphPartData@@QAE@ABV0@@Z ; CSubGraphPartData::CSubGraphPartData
  00066	89 45 f0	 mov	 DWORD PTR $T4[ebp], eax
  00069	eb 07		 jmp	 SHORT $LN7@CopySubGra
$LN6@CopySubGra:
  0006b	c7 45 f0 00 00
	00 00		 mov	 DWORD PTR $T4[ebp], 0
$LN7@CopySubGra:
; File C:\Program Files (x86)\Microsoft Visual Studio\2019\Community\VC\Tools\MSVC\14.29.30133\include\list

; 1005 :         if (_Mysize == max_size()) {

  00072	81 7f 04 55 55
	55 15		 cmp	 DWORD PTR [edi+4], 357913941 ; 15555555H

; 1243 :         _Emplace(_Mypair._Myval2._Myhead, _Val);

  00079	8b 1f		 mov	 ebx, DWORD PTR [edi]
; File D:\git\src\IBK\IBK_DRFN\ProjSrc\SrcChartEx\ChartOCX\IndicatorCondition\IndicatorConditionBaseData.cpp

; 983  :         CSubGraphPartData* pNewSubGraphPartData = new CSubGraphPartData(*(*i));

  0007b	c7 45 fc ff ff
	ff ff		 mov	 DWORD PTR __$EHRec$[ebp+8], -1
; File C:\Program Files (x86)\Microsoft Visual Studio\2019\Community\VC\Tools\MSVC\14.29.30133\include\list

; 1005 :         if (_Mysize == max_size()) {

  00082	74 60		 je	 SHORT $LN106@CopySubGra
; File C:\Program Files (x86)\Microsoft Visual Studio\2019\Community\VC\Tools\MSVC\14.29.30133\include\xmemory

; 958  :     _CONSTEXPR20_DYNALLOC explicit _Alloc_construct_ptr(_Alloc& _Al_) : _Al(_Al_), _Ptr(nullptr) {}

  00084	89 7d e4	 mov	 DWORD PTR __Op$2[ebp], edi

; 79   :         return ::operator new(_Bytes);

  00087	6a 0c		 push	 12			; 0000000cH
; File C:\Program Files (x86)\Microsoft Visual Studio\2019\Community\VC\Tools\MSVC\14.29.30133\include\list

; 582  :     explicit _List_node_emplace_op2(_Alnode& _Al_, _Valtys&&... _Vals) : _Alloc_construct_ptr<_Alnode>(_Al_) {

  00089	c7 45 fc 01 00
	00 00		 mov	 DWORD PTR __$EHRec$[ebp+8], 1
; File C:\Program Files (x86)\Microsoft Visual Studio\2019\Community\VC\Tools\MSVC\14.29.30133\include\xmemory

; 965  :         _Ptr = nullptr; // if allocate throws, prevents double-free

  00090	c7 45 e8 00 00
	00 00		 mov	 DWORD PTR __Op$2[ebp+4], 0

; 79   :         return ::operator new(_Bytes);

  00097	e8 00 00 00 00	 call	 ??2@YAPAXI@Z		; operator new
; File C:\Program Files (x86)\Microsoft Visual Studio\2019\Community\VC\Tools\MSVC\14.29.30133\include\list

; 584  :         _Alnode_traits::construct(this->_Al, _STD addressof(this->_Ptr->_Myval), _STD forward<_Valtys>(_Vals)...);

  0009c	8b 4d f0	 mov	 ecx, DWORD PTR $T4[ebp]
; File C:\Program Files (x86)\Microsoft Visual Studio\2019\Community\VC\Tools\MSVC\14.29.30133\include\xmemory

; 79   :         return ::operator new(_Bytes);

  0009f	83 c4 04	 add	 esp, 4
; File C:\Program Files (x86)\Microsoft Visual Studio\2019\Community\VC\Tools\MSVC\14.29.30133\include\list

; 585  :     }

  000a2	c7 45 fc ff ff
	ff ff		 mov	 DWORD PTR __$EHRec$[ebp+8], -1

; 601  :         this->_Ptr            = pointer{};

  000a9	c7 45 e8 00 00
	00 00		 mov	 DWORD PTR __Op$2[ebp+4], 0

; 584  :         _Alnode_traits::construct(this->_Al, _STD addressof(this->_Ptr->_Myval), _STD forward<_Valtys>(_Vals)...);

  000b0	89 48 08	 mov	 DWORD PTR [eax+8], ecx

; 1010 :         ++_Mysize;

  000b3	ff 47 04	 inc	 DWORD PTR [edi+4]

; 597  :         const pointer _Insert_after = _Insert_before->_Prev;

  000b6	8b 4b 04	 mov	 ecx, DWORD PTR [ebx+4]

; 598  :         _Construct_in_place(this->_Ptr->_Next, _Insert_before);

  000b9	89 18		 mov	 DWORD PTR [eax], ebx

; 599  :         _Construct_in_place(this->_Ptr->_Prev, _Insert_after);

  000bb	89 48 04	 mov	 DWORD PTR [eax+4], ecx

; 602  :         _Insert_before->_Prev = _Result;

  000be	89 43 04	 mov	 DWORD PTR [ebx+4], eax

; 603  :         _Insert_after->_Next  = _Result;

  000c1	89 01		 mov	 DWORD PTR [ecx], eax

; 198  :         return this->_Ptr == _Right._Ptr;

  000c3	8b 45 08	 mov	 eax, DWORD PTR _pSourceData$[ebp]

; 165  :         this->_Ptr = this->_Ptr->_Next;

  000c6	8b 36		 mov	 esi, DWORD PTR [esi]

; 198  :         return this->_Ptr == _Right._Ptr;

  000c8	3b 30		 cmp	 esi, DWORD PTR [eax]
; File D:\git\src\IBK\IBK_DRFN\ProjSrc\SrcChartEx\ChartOCX\IndicatorCondition\IndicatorConditionBaseData.cpp

; 981  : 	for(i = pSourceData->begin(); i != pSourceData->end(); ++i)

  000ca	0f 85 71 ff ff
	ff		 jne	 $LL20@CopySubGra
$LN3@CopySubGra:

; 986  : }

  000d0	8b 4d f4	 mov	 ecx, DWORD PTR __$EHRec$[ebp]
  000d3	64 89 0d 00 00
	00 00		 mov	 DWORD PTR fs:0, ecx
  000da	59		 pop	 ecx
  000db	5f		 pop	 edi
  000dc	5e		 pop	 esi
  000dd	5b		 pop	 ebx
  000de	8b e5		 mov	 esp, ebp
  000e0	5d		 pop	 ebp
  000e1	c2 04 00	 ret	 4
$LN106@CopySubGra:
; File C:\Program Files (x86)\Microsoft Visual Studio\2019\Community\VC\Tools\MSVC\14.29.30133\include\list

; 1006 :             _Xlength_error("list too long");

  000e4	68 00 00 00 00	 push	 OFFSET ??_C@_0O@NKNMEGII@list?5too?5long@
  000e9	e8 00 00 00 00	 call	 ?_Xlength_error@std@@YAXPBD@Z ; std::_Xlength_error
$LN113@CopySubGra:
  000ee	cc		 int	 3
_TEXT	ENDS
;	COMDAT text$x
text$x	SEGMENT
__unwindfunclet$?CopySubGraphPartDataList@CGraphPartData@@AAEXPBV?$list@PAVCSubGraphPartData@@V?$allocator@PAVCSubGraphPartData@@@std@@@std@@@Z$0:
  00000	68 ac 00 00 00	 push	 172			; 000000acH
  00005	8b 45 ec	 mov	 eax, DWORD PTR $T3[ebp]
  00008	50		 push	 eax
  00009	e8 00 00 00 00	 call	 ??3@YAXPAXI@Z		; operator delete
  0000e	83 c4 08	 add	 esp, 8
  00011	c3		 ret	 0
__unwindfunclet$?CopySubGraphPartDataList@CGraphPartData@@AAEXPBV?$list@PAVCSubGraphPartData@@V?$allocator@PAVCSubGraphPartData@@@std@@@std@@@Z$2:
  00012	8d 4d e4	 lea	 ecx, DWORD PTR __Op$2[ebp]
  00015	e9 00 00 00 00	 jmp	 ??1?$_Alloc_construct_ptr@V?$allocator@U?$_List_node@PAVCSubGraphPartData@@PAX@std@@@std@@@std@@QAE@XZ ; std::_Alloc_construct_ptr<std::allocator<std::_List_node<CSubGraphPartData *,void *> > >::~_Alloc_construct_ptr<std::allocator<std::_List_node<CSubGraphPartData *,void *> > >
  0001a	cc		 int	 3
  0001b	cc		 int	 3
  0001c	cc		 int	 3
  0001d	cc		 int	 3
  0001e	cc		 int	 3
__ehhandler$?CopySubGraphPartDataList@CGraphPartData@@AAEXPBV?$list@PAVCSubGraphPartData@@V?$allocator@PAVCSubGraphPartData@@@std@@@std@@@Z:
  0001f	90		 npad	 1
  00020	90		 npad	 1
  00021	8b 54 24 08	 mov	 edx, DWORD PTR [esp+8]
  00025	8d 42 0c	 lea	 eax, DWORD PTR [edx+12]
  00028	8b 4a e0	 mov	 ecx, DWORD PTR [edx-32]
  0002b	33 c8		 xor	 ecx, eax
  0002d	e8 00 00 00 00	 call	 @__security_check_cookie@4
  00032	b8 00 00 00 00	 mov	 eax, OFFSET __ehfuncinfo$?CopySubGraphPartDataList@CGraphPartData@@AAEXPBV?$list@PAVCSubGraphPartData@@V?$allocator@PAVCSubGraphPartData@@@std@@@std@@@Z
  00037	e9 00 00 00 00	 jmp	 ___CxxFrameHandler3
text$x	ENDS
?CopySubGraphPartDataList@CGraphPartData@@AAEXPBV?$list@PAVCSubGraphPartData@@V?$allocator@PAVCSubGraphPartData@@@std@@@std@@@Z ENDP ; CGraphPartData::CopySubGraphPartDataList
; Function compile flags: /Ogtp
; File D:\git\src\IBK\IBK_DRFN\ProjSrc\SrcChartEx\ChartOCX\IndicatorCondition\IndicatorConditionBaseData.cpp
; File C:\Program Files (x86)\Microsoft Visual Studio\2019\Community\VC\Tools\MSVC\14.29.30133\atlmfc\include\afxtempl.h
; File D:\git\src\IBK\IBK_DRFN\ProjSrc\SrcChartEx\ChartOCX\IndicatorCondition\IndicatorConditionBaseData.cpp
; File C:\Program Files (x86)\Microsoft Visual Studio\2019\Community\VC\Tools\MSVC\14.29.30133\atlmfc\include\afxtempl.h
; File D:\git\src\IBK\IBK_DRFN\ProjSrc\SrcChartEx\ChartOCX\IndicatorCondition\IndicatorConditionBaseData.cpp
;	COMDAT ?MakeSubGraphPartDataList@CGraphPartData@@AAE_NPBV?$CList@PAVCSubGraphData@@PAV1@@@@Z
_TEXT	SEGMENT
__$EHRec$ = -12						; size = 12
$T2 = 8							; size = 4
_pNewSubGraphPartData$3 = 8				; size = 4
_pSubGraphDataList$ = 8					; size = 4
?MakeSubGraphPartDataList@CGraphPartData@@AAE_NPBV?$CList@PAVCSubGraphData@@PAV1@@@@Z PROC ; CGraphPartData::MakeSubGraphPartDataList, COMDAT
; _this$ = ecx

; 959  : {

  00000	55		 push	 ebp
  00001	8b ec		 mov	 ebp, esp
  00003	6a ff		 push	 -1
  00005	68 00 00 00 00	 push	 __ehhandler$?MakeSubGraphPartDataList@CGraphPartData@@AAE_NPBV?$CList@PAVCSubGraphData@@PAV1@@@@Z
  0000a	64 a1 00 00 00
	00		 mov	 eax, DWORD PTR fs:0
  00010	50		 push	 eax
  00011	53		 push	 ebx
  00012	56		 push	 esi
  00013	57		 push	 edi
  00014	a1 00 00 00 00	 mov	 eax, DWORD PTR ___security_cookie
  00019	33 c5		 xor	 eax, ebp
  0001b	50		 push	 eax
  0001c	8d 45 f4	 lea	 eax, DWORD PTR __$EHRec$[ebp]
  0001f	64 a3 00 00 00
	00		 mov	 DWORD PTR fs:0, eax
  00025	8b f9		 mov	 edi, ecx

; 960  : 	if(pSubGraphDataList == NULL || pSubGraphDataList->GetCount() <= 0)

  00027	8b 75 08	 mov	 esi, DWORD PTR _pSubGraphDataList$[ebp]
  0002a	85 f6		 test	 esi, esi
  0002c	0f 84 b4 00 00
	00		 je	 $LN3@MakeSubGra
  00032	83 7e 0c 00	 cmp	 DWORD PTR [esi+12], 0
  00036	0f 8e aa 00 00
	00		 jle	 $LN3@MakeSubGra

; 962  : 
; 963  : 	DeleteAllSubGraph();

  0003c	e8 00 00 00 00	 call	 ?DeleteAllSubGraph@CGraphPartData@@QAE_NXZ ; CGraphPartData::DeleteAllSubGraph
; File C:\Program Files (x86)\Microsoft Visual Studio\2019\Community\VC\Tools\MSVC\14.29.30133\atlmfc\include\afxtempl.h

; 817  : 	{ CNode* pNode = (CNode*) rPosition;

  00041	8b 46 04	 mov	 eax, DWORD PTR [esi+4]
; File D:\git\src\IBK\IBK_DRFN\ProjSrc\SrcChartEx\ChartOCX\IndicatorCondition\IndicatorConditionBaseData.cpp

; 969  :         CSubGraphPartData* pNewSubGraphPartData = new CSubGraphPartData(*pSourceSubGraphData);

  00044	68 ac 00 00 00	 push	 172			; 000000acH
  00049	8b 58 08	 mov	 ebx, DWORD PTR [eax+8]
  0004c	e8 00 00 00 00	 call	 ??2@YAPAXI@Z		; operator new
  00051	8b f0		 mov	 esi, eax
  00053	83 c4 04	 add	 esp, 4
  00056	89 75 08	 mov	 DWORD PTR $T2[ebp], esi
  00059	c7 45 fc 00 00
	00 00		 mov	 DWORD PTR __$EHRec$[ebp+8], 0
  00060	85 f6		 test	 esi, esi
  00062	74 4f		 je	 SHORT $LN5@MakeSubGra

; 52   : {

  00064	8d 4e 04	 lea	 ecx, DWORD PTR [esi+4]
  00067	c7 06 00 00 00
	00		 mov	 DWORD PTR [esi], OFFSET ??_7CSubGraphPartData@@6B@
  0006d	ff 15 00 00 00
	00		 call	 DWORD PTR __imp_??0?$CStringT@DV?$StrTraitMFC_DLL@DV?$ChTraitsCRT@D@ATL@@@@@ATL@@QAE@XZ
; File C:\Program Files (x86)\Microsoft Visual Studio\2019\Community\VC\Tools\MSVC\14.29.30133\atlmfc\include\afxtempl.h

; 851  : {

  00073	c7 46 08 00 00
	00 00		 mov	 DWORD PTR [esi+8], OFFSET ??_7?$CList@NN@@6B@

; 852  : 	ASSERT(nBlockSize > 0);
; 853  : 
; 854  : 	m_nCount = 0;

  0007a	c7 46 14 00 00
	00 00		 mov	 DWORD PTR [esi+20], 0

; 855  : 	m_pNodeHead = m_pNodeTail = m_pNodeFree = NULL;

  00081	c7 46 18 00 00
	00 00		 mov	 DWORD PTR [esi+24], 0
  00088	c7 46 10 00 00
	00 00		 mov	 DWORD PTR [esi+16], 0
  0008f	c7 46 0c 00 00
	00 00		 mov	 DWORD PTR [esi+12], 0

; 856  : 	m_pBlocks = NULL;

  00096	c7 46 1c 00 00
	00 00		 mov	 DWORD PTR [esi+28], 0

; 857  : 	m_nBlockSize = nBlockSize;

  0009d	c7 46 20 0a 00
	00 00		 mov	 DWORD PTR [esi+32], 10	; 0000000aH
; File D:\git\src\IBK\IBK_DRFN\ProjSrc\SrcChartEx\ChartOCX\IndicatorCondition\IndicatorConditionBaseData.cpp

; 52   : {

  000a4	53		 push	 ebx
  000a5	8d 4e 24	 lea	 ecx, DWORD PTR [esi+36]
  000a8	c6 45 fc 02	 mov	 BYTE PTR __$EHRec$[ebp+8], 2
  000ac	e8 00 00 00 00	 call	 ??0CSubGraphData@@QAE@ABV0@@Z ; CSubGraphData::CSubGraphData

; 969  :         CSubGraphPartData* pNewSubGraphPartData = new CSubGraphPartData(*pSourceSubGraphData);

  000b1	eb 02		 jmp	 SHORT $LN6@MakeSubGra
$LN5@MakeSubGra:
  000b3	33 f6		 xor	 esi, esi
$LN6@MakeSubGra:

; 970  : 		m_subGraphPartDataList.push_back(pNewSubGraphPartData);

  000b5	8d 45 08	 lea	 eax, DWORD PTR _pNewSubGraphPartData$3[ebp]
  000b8	c7 45 fc ff ff
	ff ff		 mov	 DWORD PTR __$EHRec$[ebp+8], -1
  000bf	50		 push	 eax
  000c0	8d 4f 2c	 lea	 ecx, DWORD PTR [edi+44]
  000c3	89 75 08	 mov	 DWORD PTR _pNewSubGraphPartData$3[ebp], esi
  000c6	e8 00 00 00 00	 call	 ?push_back@?$list@PAVCSubGraphPartData@@V?$allocator@PAVCSubGraphPartData@@@std@@@std@@QAEXABQAVCSubGraphPartData@@@Z ; std::list<CSubGraphPartData *,std::allocator<CSubGraphPartData *> >::push_back

; 971  : 	}
; 972  : 
; 973  : 	return (m_subGraphPartDataList.size() > 0);

  000cb	83 7f 30 00	 cmp	 DWORD PTR [edi+48], 0
  000cf	0f 97 c0	 seta	 al

; 974  : }

  000d2	8b 4d f4	 mov	 ecx, DWORD PTR __$EHRec$[ebp]
  000d5	64 89 0d 00 00
	00 00		 mov	 DWORD PTR fs:0, ecx
  000dc	59		 pop	 ecx
  000dd	5f		 pop	 edi
  000de	5e		 pop	 esi
  000df	5b		 pop	 ebx
  000e0	8b e5		 mov	 esp, ebp
  000e2	5d		 pop	 ebp
  000e3	c2 04 00	 ret	 4
$LN3@MakeSubGra:

; 961  : 		return false;

  000e6	32 c0		 xor	 al, al

; 974  : }

  000e8	8b 4d f4	 mov	 ecx, DWORD PTR __$EHRec$[ebp]
  000eb	64 89 0d 00 00
	00 00		 mov	 DWORD PTR fs:0, ecx
  000f2	59		 pop	 ecx
  000f3	5f		 pop	 edi
  000f4	5e		 pop	 esi
  000f5	5b		 pop	 ebx
  000f6	8b e5		 mov	 esp, ebp
  000f8	5d		 pop	 ebp
  000f9	c2 04 00	 ret	 4
_TEXT	ENDS
;	COMDAT text$x
text$x	SEGMENT
__unwindfunclet$?MakeSubGraphPartDataList@CGraphPartData@@AAE_NPBV?$CList@PAVCSubGraphData@@PAV1@@@@Z$0:
  00000	68 ac 00 00 00	 push	 172			; 000000acH
  00005	8b 45 08	 mov	 eax, DWORD PTR $T2[ebp]
  00008	50		 push	 eax
  00009	e8 00 00 00 00	 call	 ??3@YAXPAXI@Z		; operator delete
  0000e	83 c4 08	 add	 esp, 8
  00011	c3		 ret	 0
__unwindfunclet$?MakeSubGraphPartDataList@CGraphPartData@@AAE_NPBV?$CList@PAVCSubGraphData@@PAV1@@@@Z$1:
  00012	8b 4d 08	 mov	 ecx, DWORD PTR $T2[ebp]
  00015	83 c1 04	 add	 ecx, 4
  00018	ff 25 00 00 00
	00		 jmp	 DWORD PTR __imp_??1?$CStringT@DV?$StrTraitMFC_DLL@DV?$ChTraitsCRT@D@ATL@@@@@ATL@@QAE@XZ
__unwindfunclet$?MakeSubGraphPartDataList@CGraphPartData@@AAE_NPBV?$CList@PAVCSubGraphData@@PAV1@@@@Z$2:
  0001e	8b 4d 08	 mov	 ecx, DWORD PTR $T2[ebp]
  00021	83 c1 08	 add	 ecx, 8
  00024	e9 00 00 00 00	 jmp	 ??1?$CList@NN@@UAE@XZ	; CList<double,double>::~CList<double,double>
  00029	cc		 int	 3
  0002a	cc		 int	 3
  0002b	cc		 int	 3
  0002c	cc		 int	 3
  0002d	cc		 int	 3
__ehhandler$?MakeSubGraphPartDataList@CGraphPartData@@AAE_NPBV?$CList@PAVCSubGraphData@@PAV1@@@@Z:
  0002e	90		 npad	 1
  0002f	90		 npad	 1
  00030	8b 54 24 08	 mov	 edx, DWORD PTR [esp+8]
  00034	8d 42 0c	 lea	 eax, DWORD PTR [edx+12]
  00037	8b 4a f0	 mov	 ecx, DWORD PTR [edx-16]
  0003a	33 c8		 xor	 ecx, eax
  0003c	e8 00 00 00 00	 call	 @__security_check_cookie@4
  00041	b8 00 00 00 00	 mov	 eax, OFFSET __ehfuncinfo$?MakeSubGraphPartDataList@CGraphPartData@@AAE_NPBV?$CList@PAVCSubGraphData@@PAV1@@@@Z
  00046	e9 00 00 00 00	 jmp	 ___CxxFrameHandler3
text$x	ENDS
?MakeSubGraphPartDataList@CGraphPartData@@AAE_NPBV?$CList@PAVCSubGraphData@@PAV1@@@@Z ENDP ; CGraphPartData::MakeSubGraphPartDataList
; Function compile flags: /Ogtp
; File C:\Program Files (x86)\Microsoft Visual Studio\2019\Community\VC\Tools\MSVC\14.29.30133\include\list
; File C:\Program Files (x86)\Microsoft Visual Studio\2019\Community\VC\Tools\MSVC\14.29.30133\include\xmemory
; File C:\Program Files (x86)\Microsoft Visual Studio\2019\Community\VC\Tools\MSVC\14.29.30133\include\list
; File C:\Program Files (x86)\Microsoft Visual Studio\2019\Community\VC\Tools\MSVC\14.29.30133\include\xmemory
; File C:\Program Files (x86)\Microsoft Visual Studio\2019\Community\VC\Tools\MSVC\14.29.30133\include\list
; File C:\Program Files (x86)\Microsoft Visual Studio\2019\Community\VC\Tools\MSVC\14.29.30133\include\xmemory
; File C:\Program Files (x86)\Microsoft Visual Studio\2019\Community\VC\Tools\MSVC\14.29.30133\include\list
;	COMDAT ?push_back@?$list@PAVCSubGraphPartData@@V?$allocator@PAVCSubGraphPartData@@@std@@@std@@QAEXABQAVCSubGraphPartData@@@Z
_TEXT	SEGMENT
__Op$2 = -20						; size = 8
__$EHRec$ = -12						; size = 12
__Val$ = 8						; size = 4
?push_back@?$list@PAVCSubGraphPartData@@V?$allocator@PAVCSubGraphPartData@@@std@@@std@@QAEXABQAVCSubGraphPartData@@@Z PROC ; std::list<CSubGraphPartData *,std::allocator<CSubGraphPartData *> >::push_back, COMDAT
; _this$ = ecx

; 1242 :     void push_back(const _Ty& _Val) {

  00000	55		 push	 ebp
  00001	8b ec		 mov	 ebp, esp
  00003	6a ff		 push	 -1
  00005	68 00 00 00 00	 push	 __ehhandler$?push_back@?$list@PAVCSubGraphPartData@@V?$allocator@PAVCSubGraphPartData@@@std@@@std@@QAEXABQAVCSubGraphPartData@@@Z
  0000a	64 a1 00 00 00
	00		 mov	 eax, DWORD PTR fs:0
  00010	50		 push	 eax
  00011	83 ec 08	 sub	 esp, 8
  00014	56		 push	 esi
  00015	57		 push	 edi
  00016	a1 00 00 00 00	 mov	 eax, DWORD PTR ___security_cookie
  0001b	33 c5		 xor	 eax, ebp
  0001d	50		 push	 eax
  0001e	8d 45 f4	 lea	 eax, DWORD PTR __$EHRec$[ebp]
  00021	64 a3 00 00 00
	00		 mov	 DWORD PTR fs:0, eax
  00027	8b f1		 mov	 esi, ecx

; 1005 :         if (_Mysize == max_size()) {

  00029	81 7e 04 55 55
	55 15		 cmp	 DWORD PTR [esi+4], 357913941 ; 15555555H

; 1243 :         _Emplace(_Mypair._Myval2._Myhead, _Val);

  00030	8b 3e		 mov	 edi, DWORD PTR [esi]

; 1005 :         if (_Mysize == max_size()) {

  00032	74 46		 je	 SHORT $LN76@push_back
; File C:\Program Files (x86)\Microsoft Visual Studio\2019\Community\VC\Tools\MSVC\14.29.30133\include\xmemory

; 958  :     _CONSTEXPR20_DYNALLOC explicit _Alloc_construct_ptr(_Alloc& _Al_) : _Al(_Al_), _Ptr(nullptr) {}

  00034	89 75 ec	 mov	 DWORD PTR __Op$2[ebp], esi

; 79   :         return ::operator new(_Bytes);

  00037	6a 0c		 push	 12			; 0000000cH
; File C:\Program Files (x86)\Microsoft Visual Studio\2019\Community\VC\Tools\MSVC\14.29.30133\include\list

; 582  :     explicit _List_node_emplace_op2(_Alnode& _Al_, _Valtys&&... _Vals) : _Alloc_construct_ptr<_Alnode>(_Al_) {

  00039	c7 45 fc 00 00
	00 00		 mov	 DWORD PTR __$EHRec$[ebp+8], 0
; File C:\Program Files (x86)\Microsoft Visual Studio\2019\Community\VC\Tools\MSVC\14.29.30133\include\xmemory

; 965  :         _Ptr = nullptr; // if allocate throws, prevents double-free

  00040	c7 45 f0 00 00
	00 00		 mov	 DWORD PTR __Op$2[ebp+4], 0

; 79   :         return ::operator new(_Bytes);

  00047	e8 00 00 00 00	 call	 ??2@YAPAXI@Z		; operator new
; File C:\Program Files (x86)\Microsoft Visual Studio\2019\Community\VC\Tools\MSVC\14.29.30133\include\list

; 584  :         _Alnode_traits::construct(this->_Al, _STD addressof(this->_Ptr->_Myval), _STD forward<_Valtys>(_Vals)...);

  0004c	8b 4d 08	 mov	 ecx, DWORD PTR __Val$[ebp]
; File C:\Program Files (x86)\Microsoft Visual Studio\2019\Community\VC\Tools\MSVC\14.29.30133\include\xmemory

; 79   :         return ::operator new(_Bytes);

  0004f	83 c4 04	 add	 esp, 4
; File C:\Program Files (x86)\Microsoft Visual Studio\2019\Community\VC\Tools\MSVC\14.29.30133\include\list

; 584  :         _Alnode_traits::construct(this->_Al, _STD addressof(this->_Ptr->_Myval), _STD forward<_Valtys>(_Vals)...);

  00052	8b 09		 mov	 ecx, DWORD PTR [ecx]
  00054	89 48 08	 mov	 DWORD PTR [eax+8], ecx

; 1010 :         ++_Mysize;

  00057	ff 46 04	 inc	 DWORD PTR [esi+4]

; 597  :         const pointer _Insert_after = _Insert_before->_Prev;

  0005a	8b 4f 04	 mov	 ecx, DWORD PTR [edi+4]

; 598  :         _Construct_in_place(this->_Ptr->_Next, _Insert_before);

  0005d	89 38		 mov	 DWORD PTR [eax], edi

; 599  :         _Construct_in_place(this->_Ptr->_Prev, _Insert_after);

  0005f	89 48 04	 mov	 DWORD PTR [eax+4], ecx

; 600  :         const auto _Result    = this->_Ptr;
; 601  :         this->_Ptr            = pointer{};
; 602  :         _Insert_before->_Prev = _Result;

  00062	89 47 04	 mov	 DWORD PTR [edi+4], eax

; 603  :         _Insert_after->_Next  = _Result;

  00065	89 01		 mov	 DWORD PTR [ecx], eax

; 1244 :     }

  00067	8b 4d f4	 mov	 ecx, DWORD PTR __$EHRec$[ebp]
  0006a	64 89 0d 00 00
	00 00		 mov	 DWORD PTR fs:0, ecx
  00071	59		 pop	 ecx
  00072	5f		 pop	 edi
  00073	5e		 pop	 esi
  00074	8b e5		 mov	 esp, ebp
  00076	5d		 pop	 ebp
  00077	c2 04 00	 ret	 4
$LN76@push_back:

; 1006 :             _Xlength_error("list too long");

  0007a	68 00 00 00 00	 push	 OFFSET ??_C@_0O@NKNMEGII@list?5too?5long@
  0007f	e8 00 00 00 00	 call	 ?_Xlength_error@std@@YAXPBD@Z ; std::_Xlength_error
$LN74@push_back:
  00084	cc		 int	 3
_TEXT	ENDS
;	COMDAT text$x
text$x	SEGMENT
__unwindfunclet$?push_back@?$list@PAVCSubGraphPartData@@V?$allocator@PAVCSubGraphPartData@@@std@@@std@@QAEXABQAVCSubGraphPartData@@@Z$1:
  00000	8d 4d ec	 lea	 ecx, DWORD PTR __Op$2[ebp]
  00003	e9 00 00 00 00	 jmp	 ??1?$_Alloc_construct_ptr@V?$allocator@U?$_List_node@PAVCSubGraphPartData@@PAX@std@@@std@@@std@@QAE@XZ ; std::_Alloc_construct_ptr<std::allocator<std::_List_node<CSubGraphPartData *,void *> > >::~_Alloc_construct_ptr<std::allocator<std::_List_node<CSubGraphPartData *,void *> > >
  00008	cc		 int	 3
  00009	cc		 int	 3
  0000a	cc		 int	 3
  0000b	cc		 int	 3
  0000c	cc		 int	 3
__ehhandler$?push_back@?$list@PAVCSubGraphPartData@@V?$allocator@PAVCSubGraphPartData@@@std@@@std@@QAEXABQAVCSubGraphPartData@@@Z:
  0000d	90		 npad	 1
  0000e	90		 npad	 1
  0000f	8b 54 24 08	 mov	 edx, DWORD PTR [esp+8]
  00013	8d 42 0c	 lea	 eax, DWORD PTR [edx+12]
  00016	8b 4a ec	 mov	 ecx, DWORD PTR [edx-20]
  00019	33 c8		 xor	 ecx, eax
  0001b	e8 00 00 00 00	 call	 @__security_check_cookie@4
  00020	b8 00 00 00 00	 mov	 eax, OFFSET __ehfuncinfo$?push_back@?$list@PAVCSubGraphPartData@@V?$allocator@PAVCSubGraphPartData@@@std@@@std@@QAEXABQAVCSubGraphPartData@@@Z
  00025	e9 00 00 00 00	 jmp	 ___CxxFrameHandler3
text$x	ENDS
?push_back@?$list@PAVCSubGraphPartData@@V?$allocator@PAVCSubGraphPartData@@@std@@@std@@QAEXABQAVCSubGraphPartData@@@Z ENDP ; std::list<CSubGraphPartData *,std::allocator<CSubGraphPartData *> >::push_back
; Function compile flags: /Ogtp
; File C:\Program Files (x86)\Microsoft Visual Studio\2019\Community\VC\Tools\MSVC\14.29.30133\include\list
; File C:\Program Files (x86)\Microsoft Visual Studio\2019\Community\VC\Tools\MSVC\14.29.30133\include\xmemory
; File C:\Program Files (x86)\Microsoft Visual Studio\2019\Community\VC\Tools\MSVC\14.29.30133\include\list
; File C:\Program Files (x86)\Microsoft Visual Studio\2019\Community\VC\Tools\MSVC\14.29.30133\include\xmemory
; File C:\Program Files (x86)\Microsoft Visual Studio\2019\Community\VC\Tools\MSVC\14.29.30133\include\list
;	COMDAT ??1?$list@PAVCSubGraphPartData@@V?$allocator@PAVCSubGraphPartData@@@std@@@std@@QAE@XZ
_TEXT	SEGMENT
??1?$list@PAVCSubGraphPartData@@V?$allocator@PAVCSubGraphPartData@@@std@@@std@@QAE@XZ PROC ; std::list<CSubGraphPartData *,std::allocator<CSubGraphPartData *> >::~list<CSubGraphPartData *,std::allocator<CSubGraphPartData *> >, COMDAT
; _this$ = ecx

; 1036 :     ~list() noexcept {

  00000	57		 push	 edi
  00001	8b f9		 mov	 edi, ecx

; 1431 :         _Node::_Free_non_head(_Al, _My_data._Myhead);

  00003	8b 17		 mov	 edx, DWORD PTR [edi]

; 323  :         _Head->_Prev->_Next = nullptr;

  00005	8b 42 04	 mov	 eax, DWORD PTR [edx+4]
  00008	c7 00 00 00 00
	00		 mov	 DWORD PTR [eax], 0

; 324  : 
; 325  :         auto _Pnode = _Head->_Next;

  0000e	8b 02		 mov	 eax, DWORD PTR [edx]

; 326  :         for (_Nodeptr _Pnext; _Pnode; _Pnode = _Pnext) {

  00010	85 c0		 test	 eax, eax
  00012	74 15		 je	 SHORT $LN7@list
  00014	56		 push	 esi
$LL8@list:

; 327  :             _Pnext = _Pnode->_Next;

  00015	8b 30		 mov	 esi, DWORD PTR [eax]
; File C:\Program Files (x86)\Microsoft Visual Studio\2019\Community\VC\Tools\MSVC\14.29.30133\include\xmemory

; 255  :         ::operator delete(_Ptr, _Bytes);

  00017	6a 0c		 push	 12			; 0000000cH
  00019	50		 push	 eax
  0001a	e8 00 00 00 00	 call	 ??3@YAXPAXI@Z		; operator delete
  0001f	83 c4 08	 add	 esp, 8
; File C:\Program Files (x86)\Microsoft Visual Studio\2019\Community\VC\Tools\MSVC\14.29.30133\include\list

; 326  :         for (_Nodeptr _Pnext; _Pnode; _Pnode = _Pnext) {

  00022	8b c6		 mov	 eax, esi
  00024	85 f6		 test	 esi, esi
  00026	75 ed		 jne	 SHORT $LL8@list
  00028	5e		 pop	 esi
$LN7@list:
; File C:\Program Files (x86)\Microsoft Visual Studio\2019\Community\VC\Tools\MSVC\14.29.30133\include\xmemory

; 255  :         ::operator delete(_Ptr, _Bytes);

  00029	6a 0c		 push	 12			; 0000000cH
  0002b	ff 37		 push	 DWORD PTR [edi]
  0002d	e8 00 00 00 00	 call	 ??3@YAXPAXI@Z		; operator delete
  00032	83 c4 08	 add	 esp, 8
  00035	5f		 pop	 edi
; File C:\Program Files (x86)\Microsoft Visual Studio\2019\Community\VC\Tools\MSVC\14.29.30133\include\list

; 1042 :     }

  00036	c3		 ret	 0
??1?$list@PAVCSubGraphPartData@@V?$allocator@PAVCSubGraphPartData@@@std@@@std@@QAE@XZ ENDP ; std::list<CSubGraphPartData *,std::allocator<CSubGraphPartData *> >::~list<CSubGraphPartData *,std::allocator<CSubGraphPartData *> >
_TEXT	ENDS
; Function compile flags: /Ogtp
; File D:\git\src\IBK\IBK_DRFN\ProjSrc\SrcChartEx\ChartOCX\IndicatorCondition\IndicatorConditionBaseData.cpp
; File C:\Program Files (x86)\Microsoft Visual Studio\2019\Community\VC\Tools\MSVC\14.29.30133\atlmfc\include\afxtempl.h
; File D:\git\src\IBK\IBK_DRFN\ProjSrc\SrcChartEx\ChartOCX\IndicatorCondition\IndicatorConditionBaseData.cpp
; File C:\Program Files (x86)\Microsoft Visual Studio\2019\Community\VC\Tools\MSVC\14.29.30133\atlmfc\include\afxtempl.h
; File D:\git\src\IBK\IBK_DRFN\ProjSrc\SrcChartEx\ChartOCX\IndicatorCondition\IndicatorConditionBaseData.cpp
; File C:\Program Files (x86)\Microsoft Visual Studio\2019\Community\VC\Tools\MSVC\14.29.30133\atlmfc\include\afxtempl.h
; File D:\git\src\IBK\IBK_DRFN\ProjSrc\SrcChartEx\ChartOCX\IndicatorCondition\IndicatorConditionBaseData.cpp
; File C:\Program Files (x86)\Microsoft Visual Studio\2019\Community\VC\Tools\MSVC\14.29.30133\atlmfc\include\afxtempl.h
; File D:\git\src\IBK\IBK_DRFN\ProjSrc\SrcChartEx\ChartOCX\IndicatorCondition\IndicatorConditionBaseData.cpp
; File C:\Program Files (x86)\Microsoft Visual Studio\2019\Community\VC\Tools\MSVC\14.29.30133\atlmfc\include\afxtempl.h
; File D:\git\src\IBK\IBK_DRFN\ProjSrc\SrcChartEx\ChartOCX\IndicatorCondition\IndicatorConditionBaseData.cpp
;	COMDAT ??_GCSubGraphPartData@@UAEPAXI@Z
_TEXT	SEGMENT
__$EHRec$ = -12						; size = 12
___flags$ = 8						; size = 4
??_GCSubGraphPartData@@UAEPAXI@Z PROC			; CSubGraphPartData::`scalar deleting destructor', COMDAT
; _this$ = ecx
  00000	55		 push	 ebp
  00001	8b ec		 mov	 ebp, esp
  00003	6a ff		 push	 -1
  00005	68 00 00 00 00	 push	 __ehhandler$??_GCSubGraphPartData@@UAEPAXI@Z
  0000a	64 a1 00 00 00
	00		 mov	 eax, DWORD PTR fs:0
  00010	50		 push	 eax
  00011	56		 push	 esi
  00012	a1 00 00 00 00	 mov	 eax, DWORD PTR ___security_cookie
  00017	33 c5		 xor	 eax, ebp
  00019	50		 push	 eax
  0001a	8d 45 f4	 lea	 eax, DWORD PTR __$EHRec$[ebp]
  0001d	64 a3 00 00 00
	00		 mov	 DWORD PTR fs:0, eax
  00023	8b f1		 mov	 esi, ecx

; 56   : {

  00025	c7 06 00 00 00
	00		 mov	 DWORD PTR [esi], OFFSET ??_7CSubGraphPartData@@6B@
; File C:\Program Files (x86)\Microsoft Visual Studio\2019\Community\VC\Tools\MSVC\14.29.30133\atlmfc\include\afxtempl.h

; 872  : 	m_pBlocks->FreeDataChain();

  0002b	8b 4e 1c	 mov	 ecx, DWORD PTR [esi+28]
; File D:\git\src\IBK\IBK_DRFN\ProjSrc\SrcChartEx\ChartOCX\IndicatorCondition\IndicatorConditionBaseData.cpp

; 56   : {

  0002e	c7 45 fc 00 00
	00 00		 mov	 DWORD PTR __$EHRec$[ebp+8], 0
; File C:\Program Files (x86)\Microsoft Visual Studio\2019\Community\VC\Tools\MSVC\14.29.30133\atlmfc\include\afxtempl.h

; 870  : 	m_nCount = 0;

  00035	c7 46 14 00 00
	00 00		 mov	 DWORD PTR [esi+20], 0

; 871  : 	m_pNodeHead = m_pNodeTail = m_pNodeFree = NULL;

  0003c	c7 46 18 00 00
	00 00		 mov	 DWORD PTR [esi+24], 0
  00043	c7 46 10 00 00
	00 00		 mov	 DWORD PTR [esi+16], 0
  0004a	c7 46 0c 00 00
	00 00		 mov	 DWORD PTR [esi+12], 0

; 872  : 	m_pBlocks->FreeDataChain();

  00051	e8 00 00 00 00	 call	 ?FreeDataChain@CPlex@@QAEXXZ ; CPlex::FreeDataChain
; File D:\git\src\IBK\IBK_DRFN\ProjSrc\SrcChartEx\ChartOCX\IndicatorCondition\IndicatorConditionBaseData.cpp

; 58   : }

  00056	8d 4e 24	 lea	 ecx, DWORD PTR [esi+36]
; File C:\Program Files (x86)\Microsoft Visual Studio\2019\Community\VC\Tools\MSVC\14.29.30133\atlmfc\include\afxtempl.h

; 873  : 	m_pBlocks = NULL;

  00059	c7 46 1c 00 00
	00 00		 mov	 DWORD PTR [esi+28], 0
; File D:\git\src\IBK\IBK_DRFN\ProjSrc\SrcChartEx\ChartOCX\IndicatorCondition\IndicatorConditionBaseData.cpp

; 58   : }

  00060	e8 00 00 00 00	 call	 ??1CSubGraphData@@QAE@XZ ; CSubGraphData::~CSubGraphData
; File C:\Program Files (x86)\Microsoft Visual Studio\2019\Community\VC\Tools\MSVC\14.29.30133\atlmfc\include\afxtempl.h

; 872  : 	m_pBlocks->FreeDataChain();

  00065	8b 4e 1c	 mov	 ecx, DWORD PTR [esi+28]

; 878  : {

  00068	c6 45 fc 01	 mov	 BYTE PTR __$EHRec$[ebp+8], 1
  0006c	c7 46 08 00 00
	00 00		 mov	 DWORD PTR [esi+8], OFFSET ??_7?$CList@NN@@6B@

; 870  : 	m_nCount = 0;

  00073	c7 46 14 00 00
	00 00		 mov	 DWORD PTR [esi+20], 0

; 871  : 	m_pNodeHead = m_pNodeTail = m_pNodeFree = NULL;

  0007a	c7 46 18 00 00
	00 00		 mov	 DWORD PTR [esi+24], 0
  00081	c7 46 10 00 00
	00 00		 mov	 DWORD PTR [esi+16], 0
  00088	c7 46 0c 00 00
	00 00		 mov	 DWORD PTR [esi+12], 0

; 872  : 	m_pBlocks->FreeDataChain();

  0008f	e8 00 00 00 00	 call	 ?FreeDataChain@CPlex@@QAEXXZ ; CPlex::FreeDataChain
; File D:\git\src\IBK\IBK_DRFN\ProjSrc\SrcChartEx\ChartOCX\IndicatorCondition\IndicatorConditionBaseData.cpp

; 58   : }

  00094	8d 4e 04	 lea	 ecx, DWORD PTR [esi+4]
; File C:\Program Files (x86)\Microsoft Visual Studio\2019\Community\VC\Tools\MSVC\14.29.30133\atlmfc\include\afxtempl.h

; 873  : 	m_pBlocks = NULL;

  00097	c7 46 1c 00 00
	00 00		 mov	 DWORD PTR [esi+28], 0
; File D:\git\src\IBK\IBK_DRFN\ProjSrc\SrcChartEx\ChartOCX\IndicatorCondition\IndicatorConditionBaseData.cpp

; 58   : }

  0009e	ff 15 00 00 00
	00		 call	 DWORD PTR __imp_??1?$CStringT@DV?$StrTraitMFC_DLL@DV?$ChTraitsCRT@D@ATL@@@@@ATL@@QAE@XZ
  000a4	f6 45 08 01	 test	 BYTE PTR ___flags$[ebp], 1
  000a8	74 0e		 je	 SHORT $LN30@scalar
  000aa	68 ac 00 00 00	 push	 172			; 000000acH
  000af	56		 push	 esi
  000b0	e8 00 00 00 00	 call	 ??3@YAXPAXI@Z		; operator delete
  000b5	83 c4 08	 add	 esp, 8
$LN30@scalar:
  000b8	8b c6		 mov	 eax, esi
  000ba	8b 4d f4	 mov	 ecx, DWORD PTR __$EHRec$[ebp]
  000bd	64 89 0d 00 00
	00 00		 mov	 DWORD PTR fs:0, ecx
  000c4	59		 pop	 ecx
  000c5	5e		 pop	 esi
  000c6	8b e5		 mov	 esp, ebp
  000c8	5d		 pop	 ebp
  000c9	c2 04 00	 ret	 4
  000cc	cc		 int	 3
  000cd	cc		 int	 3
  000ce	cc		 int	 3
  000cf	cc		 int	 3
  000d0	cc		 int	 3
_TEXT	ENDS
;	COMDAT text$x
text$x	SEGMENT
__ehhandler$??_GCSubGraphPartData@@UAEPAXI@Z:
  00000	90		 npad	 1
  00001	90		 npad	 1
  00002	8b 54 24 08	 mov	 edx, DWORD PTR [esp+8]
  00006	8d 42 0c	 lea	 eax, DWORD PTR [edx+12]
  00009	8b 4a f8	 mov	 ecx, DWORD PTR [edx-8]
  0000c	33 c8		 xor	 ecx, eax
  0000e	e8 00 00 00 00	 call	 @__security_check_cookie@4
  00013	b8 00 00 00 00	 mov	 eax, OFFSET __ehfuncinfo$??_GCSubGraphPartData@@UAEPAXI@Z
  00018	e9 00 00 00 00	 jmp	 ___CxxFrameHandler3
text$x	ENDS
??_GCSubGraphPartData@@UAEPAXI@Z ENDP			; CSubGraphPartData::`scalar deleting destructor'
; Function compile flags: /Ogtp
; File C:\Program Files (x86)\Microsoft Visual Studio\2019\Community\VC\Tools\MSVC\14.29.30133\atlmfc\include\afxtempl.h
; File C:\Program Files (x86)\Microsoft Visual Studio\2019\Community\VC\Tools\MSVC\14.29.30133\atlmfc\include\afx.inl
;	COMDAT ??_G?$CList@NN@@UAEPAXI@Z
_TEXT	SEGMENT
__$EHRec$ = -12						; size = 12
___flags$ = 8						; size = 4
??_G?$CList@NN@@UAEPAXI@Z PROC				; CList<double,double>::`scalar deleting destructor', COMDAT
; _this$ = ecx
  00000	55		 push	 ebp
  00001	8b ec		 mov	 ebp, esp
  00003	6a ff		 push	 -1
  00005	68 00 00 00 00	 push	 __ehhandler$??_G?$CList@NN@@UAEPAXI@Z
  0000a	64 a1 00 00 00
	00		 mov	 eax, DWORD PTR fs:0
  00010	50		 push	 eax
  00011	56		 push	 esi
  00012	a1 00 00 00 00	 mov	 eax, DWORD PTR ___security_cookie
  00017	33 c5		 xor	 eax, ebp
  00019	50		 push	 eax
  0001a	8d 45 f4	 lea	 eax, DWORD PTR __$EHRec$[ebp]
  0001d	64 a3 00 00 00
	00		 mov	 DWORD PTR fs:0, eax
  00023	8b f1		 mov	 esi, ecx
; File C:\Program Files (x86)\Microsoft Visual Studio\2019\Community\VC\Tools\MSVC\14.29.30133\atlmfc\include\afxtempl.h

; 872  : 	m_pBlocks->FreeDataChain();

  00025	8b 4e 14	 mov	 ecx, DWORD PTR [esi+20]

; 878  : {

  00028	c7 45 fc 00 00
	00 00		 mov	 DWORD PTR __$EHRec$[ebp+8], 0
  0002f	c7 06 00 00 00
	00		 mov	 DWORD PTR [esi], OFFSET ??_7?$CList@NN@@6B@

; 870  : 	m_nCount = 0;

  00035	c7 46 0c 00 00
	00 00		 mov	 DWORD PTR [esi+12], 0

; 871  : 	m_pNodeHead = m_pNodeTail = m_pNodeFree = NULL;

  0003c	c7 46 10 00 00
	00 00		 mov	 DWORD PTR [esi+16], 0
  00043	c7 46 08 00 00
	00 00		 mov	 DWORD PTR [esi+8], 0
  0004a	c7 46 04 00 00
	00 00		 mov	 DWORD PTR [esi+4], 0

; 872  : 	m_pBlocks->FreeDataChain();

  00051	e8 00 00 00 00	 call	 ?FreeDataChain@CPlex@@QAEXXZ ; CPlex::FreeDataChain

; 873  : 	m_pBlocks = NULL;

  00056	8b 45 08	 mov	 eax, DWORD PTR ___flags$[ebp]
  00059	c7 46 14 00 00
	00 00		 mov	 DWORD PTR [esi+20], 0
  00060	a8 01		 test	 al, 1
  00062	74 2c		 je	 SHORT $LN22@scalar
  00064	a8 04		 test	 al, 4
  00066	75 1d		 jne	 SHORT $LN3@scalar
; File C:\Program Files (x86)\Microsoft Visual Studio\2019\Community\VC\Tools\MSVC\14.29.30133\atlmfc\include\afx.inl

; 112  : 	{ ::operator delete(p); }

  00068	56		 push	 esi
  00069	e8 00 00 00 00	 call	 ??3@YAXPAX@Z		; operator delete
  0006e	83 c4 04	 add	 esp, 4
  00071	8b c6		 mov	 eax, esi
  00073	8b 4d f4	 mov	 ecx, DWORD PTR __$EHRec$[ebp]
  00076	64 89 0d 00 00
	00 00		 mov	 DWORD PTR fs:0, ecx
  0007d	59		 pop	 ecx
  0007e	5e		 pop	 esi
  0007f	8b e5		 mov	 esp, ebp
  00081	5d		 pop	 ebp
  00082	c2 04 00	 ret	 4
$LN3@scalar:
  00085	6a 1c		 push	 28			; 0000001cH
  00087	56		 push	 esi
  00088	e8 00 00 00 00	 call	 ?__global_delete@@YAXPAXI@Z ; __global_delete
  0008d	83 c4 08	 add	 esp, 8
$LN22@scalar:
  00090	8b c6		 mov	 eax, esi
  00092	8b 4d f4	 mov	 ecx, DWORD PTR __$EHRec$[ebp]
  00095	64 89 0d 00 00
	00 00		 mov	 DWORD PTR fs:0, ecx
  0009c	59		 pop	 ecx
  0009d	5e		 pop	 esi
  0009e	8b e5		 mov	 esp, ebp
  000a0	5d		 pop	 ebp
  000a1	c2 04 00	 ret	 4
  000a4	cc		 int	 3
  000a5	cc		 int	 3
  000a6	cc		 int	 3
  000a7	cc		 int	 3
  000a8	cc		 int	 3
_TEXT	ENDS
;	COMDAT text$x
text$x	SEGMENT
__ehhandler$??_G?$CList@NN@@UAEPAXI@Z:
  00000	90		 npad	 1
  00001	90		 npad	 1
  00002	8b 54 24 08	 mov	 edx, DWORD PTR [esp+8]
  00006	8d 42 0c	 lea	 eax, DWORD PTR [edx+12]
  00009	8b 4a f8	 mov	 ecx, DWORD PTR [edx-8]
  0000c	33 c8		 xor	 ecx, eax
  0000e	e8 00 00 00 00	 call	 @__security_check_cookie@4
  00013	b8 00 00 00 00	 mov	 eax, OFFSET __ehfuncinfo$??_G?$CList@NN@@UAEPAXI@Z
  00018	e9 00 00 00 00	 jmp	 ___CxxFrameHandler3
text$x	ENDS
??_G?$CList@NN@@UAEPAXI@Z ENDP				; CList<double,double>::`scalar deleting destructor'
; Function compile flags: /Ogtp
; File C:\Program Files (x86)\Microsoft Visual Studio\2019\Community\VC\Tools\MSVC\14.29.30133\atlmfc\include\afxtempl.h
; File C:\Program Files (x86)\Microsoft Visual Studio\2019\Community\VC\Tools\MSVC\14.29.30133\atlmfc\include\afx.inl
; File C:\Program Files (x86)\Microsoft Visual Studio\2019\Community\VC\Tools\MSVC\14.29.30133\atlmfc\include\afxtempl.h
; File C:\Program Files (x86)\Microsoft Visual Studio\2019\Community\VC\Tools\MSVC\14.29.30133\atlmfc\include\afx.inl
; File C:\Program Files (x86)\Microsoft Visual Studio\2019\Community\VC\Tools\MSVC\14.29.30133\atlmfc\include\afxtempl.h
; File C:\Program Files (x86)\Microsoft Visual Studio\2019\Community\VC\Tools\MSVC\14.29.30133\atlmfc\include\afx.inl
; File C:\Program Files (x86)\Microsoft Visual Studio\2019\Community\VC\Tools\MSVC\14.29.30133\atlmfc\include\afxtempl.h
; File C:\Program Files (x86)\Microsoft Visual Studio\2019\Community\VC\Tools\MSVC\14.29.30133\atlmfc\include\afx.inl
; File C:\Program Files (x86)\Microsoft Visual Studio\2019\Community\VC\Tools\MSVC\14.29.30133\atlmfc\include\afxtempl.h
; File C:\Program Files (x86)\Microsoft Visual Studio\2019\Community\VC\Tools\MSVC\14.29.30133\atlmfc\include\afx.inl
; File C:\Program Files (x86)\Microsoft Visual Studio\2019\Community\VC\Tools\MSVC\14.29.30133\atlmfc\include\afxtempl.h
; File C:\Program Files (x86)\Microsoft Visual Studio\2019\Community\VC\Tools\MSVC\14.29.30133\atlmfc\include\afx.inl
; File C:\Program Files (x86)\Microsoft Visual Studio\2019\Community\VC\Tools\MSVC\14.29.30133\atlmfc\include\afxtempl.h
;	COMDAT ?Serialize@?$CList@NN@@UAEXAAVCArchive@@@Z
_TEXT	SEGMENT
_newData$1 = -20					; size = 8
_nNewCount$1$ = -12					; size = 4
_pData$1$ = -8						; size = 4
_pNode$1$ = -8						; size = 4
_nElementsLeft$1$ = -4					; size = 4
_this$1$ = -4						; size = 4
_ar$ = 8						; size = 4
?Serialize@?$CList@NN@@UAEXAAVCArchive@@@Z PROC		; CList<double,double>::Serialize, COMDAT
; _this$ = ecx

; 1169 : {

  00000	55		 push	 ebp
  00001	8b ec		 mov	 ebp, esp
  00003	83 ec 14	 sub	 esp, 20			; 00000014H
  00006	53		 push	 ebx
  00007	8b d9		 mov	 ebx, ecx
; File C:\Program Files (x86)\Microsoft Visual Studio\2019\Community\VC\Tools\MSVC\14.29.30133\atlmfc\include\afx.inl

; 212  : 	{ return (m_nMode & CArchive::load) == 0; }

  00009	8b 4d 08	 mov	 ecx, DWORD PTR _ar$[ebp]
; File C:\Program Files (x86)\Microsoft Visual Studio\2019\Community\VC\Tools\MSVC\14.29.30133\atlmfc\include\afxtempl.h

; 1169 : {

  0000c	56		 push	 esi
  0000d	57		 push	 edi
  0000e	89 5d fc	 mov	 DWORD PTR _this$1$[ebp], ebx
; File C:\Program Files (x86)\Microsoft Visual Studio\2019\Community\VC\Tools\MSVC\14.29.30133\atlmfc\include\afx.inl

; 212  : 	{ return (m_nMode & CArchive::load) == 0; }

  00011	8b 41 18	 mov	 eax, DWORD PTR [ecx+24]
  00014	f7 d0		 not	 eax
  00016	a8 01		 test	 al, 1
; File C:\Program Files (x86)\Microsoft Visual Studio\2019\Community\VC\Tools\MSVC\14.29.30133\atlmfc\include\afxtempl.h

; 1174 : 	if (ar.IsStoring())

  00018	0f 84 ae 00 00
	00		 je	 $LN7@Serialize

; 1175 : 	{
; 1176 : 		ar.WriteCount(m_nCount);

  0001e	ff 73 0c	 push	 DWORD PTR [ebx+12]
  00021	e8 00 00 00 00	 call	 ?WriteCount@CArchive@@QAEXK@Z ; CArchive::WriteCount

; 1177 : 		for (CNode* pNode = m_pNodeHead; pNode != NULL; pNode = pNode->pNext)

  00026	8b 43 04	 mov	 eax, DWORD PTR [ebx+4]
  00029	89 45 f8	 mov	 DWORD PTR _pNode$1$[ebp], eax
  0002c	85 c0		 test	 eax, eax
  0002e	0f 84 4d 01 00
	00		 je	 $LN68@Serialize
$LL4@Serialize:

; 1178 : 		{
; 1179 : 			ASSERT(AfxIsValidAddress(pNode, sizeof(CNode)));
; 1180 : 			TYPE* pData;
; 1181 : 			/*
; 1182 : 			 * in some cases the & operator might be overloaded, and we cannot use it to obtain
; 1183 : 			 * the address of a given object.  We then use the following trick to get the address
; 1184 : 			 */
; 1185 : 			pData = reinterpret_cast< TYPE* >( &reinterpret_cast< int& >( static_cast< TYPE& >( pNode->data ) ) );

  00034	8d 58 08	 lea	 ebx, DWORD PTR [eax+8]

; 68   : 	ENSURE(nCount == 0 || pElements != NULL);

  00037	85 db		 test	 ebx, ebx
  00039	0f 84 54 01 00
	00		 je	 $LN60@Serialize
; File C:\Program Files (x86)\Microsoft Visual Studio\2019\Community\VC\Tools\MSVC\14.29.30133\atlmfc\include\afx.inl

; 212  : 	{ return (m_nMode & CArchive::load) == 0; }

  0003f	8b 4d 08	 mov	 ecx, DWORD PTR _ar$[ebp]
  00042	8b 41 18	 mov	 eax, DWORD PTR [ecx+24]
  00045	f7 d0		 not	 eax
  00047	a8 01		 test	 al, 1
; File C:\Program Files (x86)\Microsoft Visual Studio\2019\Community\VC\Tools\MSVC\14.29.30133\atlmfc\include\afxtempl.h

; 73   : 	if (ar.IsStoring())

  00049	74 33		 je	 SHORT $LN21@Serialize

; 74   : 	{
; 75   : 		TYPE* pData;
; 76   : 		UINT_PTR nElementsLeft;
; 77   : 
; 78   : 		nElementsLeft = nCount;

  0004b	b8 01 00 00 00	 mov	 eax, 1
  00050	89 45 fc	 mov	 DWORD PTR _nElementsLeft$1$[ebp], eax
$LL16@Serialize:

; 80   : 		while( nElementsLeft > 0 )
; 81   : 		{
; 82   : 			UINT nElementsToWrite;
; 83   : 
; 84   : 			nElementsToWrite = UINT(__min(nElementsLeft, INT_MAX/sizeof(TYPE)));

  00053	bf ff ff ff 0f	 mov	 edi, 268435455		; 0fffffffH
  00058	3b c7		 cmp	 eax, edi
  0005a	0f 42 f8	 cmovb	 edi, eax

; 85   : 			ar.Write(pData, nElementsToWrite*sizeof(TYPE));

  0005d	8d 34 fd 00 00
	00 00		 lea	 esi, DWORD PTR [edi*8]
  00064	56		 push	 esi
  00065	53		 push	 ebx
  00066	e8 00 00 00 00	 call	 ?Write@CArchive@@QAEXPBXI@Z ; CArchive::Write

; 86   : 			nElementsLeft -= nElementsToWrite;

  0006b	8b 45 fc	 mov	 eax, DWORD PTR _nElementsLeft$1$[ebp]

; 87   : 			pData += nElementsToWrite;

  0006e	03 de		 add	 ebx, esi
  00070	8b 4d 08	 mov	 ecx, DWORD PTR _ar$[ebp]
  00073	2b c7		 sub	 eax, edi
  00075	89 45 fc	 mov	 DWORD PTR _nElementsLeft$1$[ebp], eax
  00078	85 c0		 test	 eax, eax
  0007a	75 d7		 jne	 SHORT $LL16@Serialize

; 88   : 		}
; 89   : 	}

  0007c	eb 35		 jmp	 SHORT $LN2@Serialize
$LN21@Serialize:

; 90   : 	else
; 91   : 	{
; 92   : 		TYPE* pData;
; 93   : 		UINT_PTR nElementsLeft;
; 94   : 
; 95   : 		nElementsLeft = nCount;

  0007e	be 01 00 00 00	 mov	 esi, 1
$LL18@Serialize:

; 98   : 		{
; 99   : 			UINT nElementsToRead;
; 100  : 
; 101  : 			nElementsToRead = UINT(__min(nElementsLeft, INT_MAX/sizeof(TYPE)));

  00083	bf ff ff ff 0f	 mov	 edi, 268435455		; 0fffffffH
  00088	3b f7		 cmp	 esi, edi
  0008a	0f 42 fe	 cmovb	 edi, esi

; 102  : 			ar.EnsureRead(pData, nElementsToRead*sizeof(TYPE));

  0008d	8d 04 fd 00 00
	00 00		 lea	 eax, DWORD PTR [edi*8]
; File C:\Program Files (x86)\Microsoft Visual Studio\2019\Community\VC\Tools\MSVC\14.29.30133\atlmfc\include\afx.inl

; 399  : 	UINT nRead=Read(lpBuf, nCount);

  00094	50		 push	 eax
  00095	53		 push	 ebx
  00096	e8 00 00 00 00	 call	 ?Read@CArchive@@QAEIPAXI@Z ; CArchive::Read

; 400  : 	if(nRead!=nCount)

  0009b	8d 0c fd 00 00
	00 00		 lea	 ecx, DWORD PTR [edi*8]
  000a2	3b c1		 cmp	 eax, ecx
  000a4	0f 85 e0 00 00
	00		 jne	 $LN59@Serialize
; File C:\Program Files (x86)\Microsoft Visual Studio\2019\Community\VC\Tools\MSVC\14.29.30133\atlmfc\include\afxtempl.h

; 97   : 		while( nElementsLeft > 0 )

  000aa	03 d9		 add	 ebx, ecx
  000ac	8b 4d 08	 mov	 ecx, DWORD PTR _ar$[ebp]

; 103  : 			nElementsLeft -= nElementsToRead;

  000af	2b f7		 sub	 esi, edi
  000b1	75 d0		 jne	 SHORT $LL18@Serialize
$LN2@Serialize:

; 1177 : 		for (CNode* pNode = m_pNodeHead; pNode != NULL; pNode = pNode->pNext)

  000b3	8b 45 f8	 mov	 eax, DWORD PTR _pNode$1$[ebp]
  000b6	8b 00		 mov	 eax, DWORD PTR [eax]
  000b8	89 45 f8	 mov	 DWORD PTR _pNode$1$[ebp], eax
  000bb	85 c0		 test	 eax, eax
  000bd	0f 85 71 ff ff
	ff		 jne	 $LL4@Serialize

; 1197 : 		}
; 1198 : 	}
; 1199 : }

  000c3	5f		 pop	 edi
  000c4	5e		 pop	 esi
  000c5	5b		 pop	 ebx
  000c6	8b e5		 mov	 esp, ebp
  000c8	5d		 pop	 ebp
  000c9	c2 04 00	 ret	 4
$LN7@Serialize:

; 1186 : 			SerializeElements<TYPE>(ar, pData, 1);
; 1187 : 		}
; 1188 : 	}
; 1189 : 	else
; 1190 : 	{
; 1191 : 		DWORD_PTR nNewCount = ar.ReadCount();

  000cc	e8 00 00 00 00	 call	 ?ReadCount@CArchive@@QAEKXZ ; CArchive::ReadCount

; 1192 : 		while (nNewCount--)

  000d1	85 c0		 test	 eax, eax
  000d3	0f 84 a8 00 00
	00		 je	 $LN68@Serialize
  000d9	0f 1f 80 00 00
	00 00		 npad	 7
$LL5@Serialize:
  000e0	48		 dec	 eax
  000e1	89 45 f4	 mov	 DWORD PTR _nNewCount$1$[ebp], eax
; File C:\Program Files (x86)\Microsoft Visual Studio\2019\Community\VC\Tools\MSVC\14.29.30133\atlmfc\include\afx.inl

; 212  : 	{ return (m_nMode & CArchive::load) == 0; }

  000e4	8b 45 08	 mov	 eax, DWORD PTR _ar$[ebp]
  000e7	8b 48 18	 mov	 ecx, DWORD PTR [eax+24]
  000ea	f7 d1		 not	 ecx
  000ec	f6 c1 01	 test	 cl, 1
; File C:\Program Files (x86)\Microsoft Visual Studio\2019\Community\VC\Tools\MSVC\14.29.30133\atlmfc\include\afxtempl.h

; 73   : 	if (ar.IsStoring())

  000ef	74 3a		 je	 SHORT $LN42@Serialize

; 79   : 		pData = pElements;

  000f1	8d 4d ec	 lea	 ecx, DWORD PTR _newData$1[ebp]
  000f4	bb 01 00 00 00	 mov	 ebx, 1
  000f9	89 4d f8	 mov	 DWORD PTR _pData$1$[ebp], ecx
  000fc	0f 1f 40 00	 npad	 4
$LL37@Serialize:

; 80   : 		while( nElementsLeft > 0 )
; 81   : 		{
; 82   : 			UINT nElementsToWrite;
; 83   : 
; 84   : 			nElementsToWrite = UINT(__min(nElementsLeft, INT_MAX/sizeof(TYPE)));

  00100	bf ff ff ff 0f	 mov	 edi, 268435455		; 0fffffffH
  00105	3b df		 cmp	 ebx, edi
  00107	0f 42 fb	 cmovb	 edi, ebx

; 85   : 			ar.Write(pData, nElementsToWrite*sizeof(TYPE));

  0010a	8d 34 fd 00 00
	00 00		 lea	 esi, DWORD PTR [edi*8]
  00111	56		 push	 esi
  00112	51		 push	 ecx
  00113	8b c8		 mov	 ecx, eax
  00115	e8 00 00 00 00	 call	 ?Write@CArchive@@QAEXPBXI@Z ; CArchive::Write

; 87   : 			pData += nElementsToWrite;

  0011a	8b 4d f8	 mov	 ecx, DWORD PTR _pData$1$[ebp]
  0011d	8b 45 08	 mov	 eax, DWORD PTR _ar$[ebp]
  00120	03 ce		 add	 ecx, esi
  00122	89 4d f8	 mov	 DWORD PTR _pData$1$[ebp], ecx
  00125	2b df		 sub	 ebx, edi
  00127	75 d7		 jne	 SHORT $LL37@Serialize

; 88   : 		}
; 89   : 	}

  00129	eb 36		 jmp	 SHORT $LN40@Serialize
$LN42@Serialize:

; 90   : 	else
; 91   : 	{
; 92   : 		TYPE* pData;
; 93   : 		UINT_PTR nElementsLeft;
; 94   : 
; 95   : 		nElementsLeft = nCount;

  0012b	be 01 00 00 00	 mov	 esi, 1

; 96   : 		pData = pElements;

  00130	8d 5d ec	 lea	 ebx, DWORD PTR _newData$1[ebp]
$LL39@Serialize:

; 98   : 		{
; 99   : 			UINT nElementsToRead;
; 100  : 
; 101  : 			nElementsToRead = UINT(__min(nElementsLeft, INT_MAX/sizeof(TYPE)));

  00133	bf ff ff ff 0f	 mov	 edi, 268435455		; 0fffffffH
  00138	3b f7		 cmp	 esi, edi
  0013a	0f 42 fe	 cmovb	 edi, esi

; 102  : 			ar.EnsureRead(pData, nElementsToRead*sizeof(TYPE));

  0013d	8d 0c fd 00 00
	00 00		 lea	 ecx, DWORD PTR [edi*8]
; File C:\Program Files (x86)\Microsoft Visual Studio\2019\Community\VC\Tools\MSVC\14.29.30133\atlmfc\include\afx.inl

; 399  : 	UINT nRead=Read(lpBuf, nCount);

  00144	51		 push	 ecx
  00145	53		 push	 ebx
  00146	8b c8		 mov	 ecx, eax
  00148	e8 00 00 00 00	 call	 ?Read@CArchive@@QAEIPAXI@Z ; CArchive::Read

; 400  : 	if(nRead!=nCount)

  0014d	8d 0c fd 00 00
	00 00		 lea	 ecx, DWORD PTR [edi*8]
  00154	3b c1		 cmp	 eax, ecx
  00156	75 32		 jne	 SHORT $LN59@Serialize
; File C:\Program Files (x86)\Microsoft Visual Studio\2019\Community\VC\Tools\MSVC\14.29.30133\atlmfc\include\afxtempl.h

; 104  : 			pData += nElementsToRead;

  00158	8b 45 08	 mov	 eax, DWORD PTR _ar$[ebp]
  0015b	03 d9		 add	 ebx, ecx
  0015d	2b f7		 sub	 esi, edi
  0015f	75 d2		 jne	 SHORT $LL39@Serialize
$LN40@Serialize:

; 1193 : 		{
; 1194 : 			TYPE newData[1];
; 1195 : 			SerializeElements<TYPE>(ar, newData, 1);
; 1196 : 			AddTail(newData[0]);

  00161	f2 0f 10 45 ec	 movsd	 xmm0, QWORD PTR _newData$1[ebp]
  00166	83 ec 08	 sub	 esp, 8
  00169	8b 4d fc	 mov	 ecx, DWORD PTR _this$1$[ebp]
  0016c	f2 0f 11 04 24	 movsd	 QWORD PTR [esp], xmm0
  00171	e8 00 00 00 00	 call	 ?AddTail@?$CList@NN@@QAEPAU__POSITION@@N@Z ; CList<double,double>::AddTail
  00176	8b 45 f4	 mov	 eax, DWORD PTR _nNewCount$1$[ebp]
  00179	85 c0		 test	 eax, eax
  0017b	0f 85 5f ff ff
	ff		 jne	 $LL5@Serialize
$LN68@Serialize:
  00181	5f		 pop	 edi

; 1197 : 		}
; 1198 : 	}
; 1199 : }

  00182	5e		 pop	 esi
  00183	5b		 pop	 ebx
  00184	8b e5		 mov	 esp, ebp
  00186	5d		 pop	 ebp
  00187	c2 04 00	 ret	 4
$LN59@Serialize:
  0018a	6a 00		 push	 0
  0018c	6a 03		 push	 3
  0018e	e8 00 00 00 00	 call	 ?AfxThrowArchiveException@@YGXHPBD@Z ; AfxThrowArchiveException
$LN60@Serialize:

; 68   : 	ENSURE(nCount == 0 || pElements != NULL);

  00193	e8 00 00 00 00	 call	 ?AfxThrowInvalidArgException@@YGXXZ ; AfxThrowInvalidArgException
$LN85@Serialize:
  00198	cc		 int	 3
?Serialize@?$CList@NN@@UAEXAAVCArchive@@@Z ENDP		; CList<double,double>::Serialize
_TEXT	ENDS
; Function compile flags: /Ogtp
; File C:\Program Files (x86)\Microsoft Visual Studio\2019\Community\VC\Tools\MSVC\14.29.30133\atlmfc\include\afxtempl.h
;	COMDAT ??1?$CList@NN@@UAE@XZ
_TEXT	SEGMENT
__$EHRec$ = -12						; size = 12
??1?$CList@NN@@UAE@XZ PROC				; CList<double,double>::~CList<double,double>, COMDAT
; _this$ = ecx

; 878  : {

  00000	55		 push	 ebp
  00001	8b ec		 mov	 ebp, esp
  00003	6a ff		 push	 -1
  00005	68 00 00 00 00	 push	 __ehhandler$??1?$CList@NN@@UAE@XZ
  0000a	64 a1 00 00 00
	00		 mov	 eax, DWORD PTR fs:0
  00010	50		 push	 eax
  00011	56		 push	 esi
  00012	a1 00 00 00 00	 mov	 eax, DWORD PTR ___security_cookie
  00017	33 c5		 xor	 eax, ebp
  00019	50		 push	 eax
  0001a	8d 45 f4	 lea	 eax, DWORD PTR __$EHRec$[ebp]
  0001d	64 a3 00 00 00
	00		 mov	 DWORD PTR fs:0, eax
  00023	8b f1		 mov	 esi, ecx

; 872  : 	m_pBlocks->FreeDataChain();

  00025	8b 4e 14	 mov	 ecx, DWORD PTR [esi+20]

; 878  : {

  00028	c7 06 00 00 00
	00		 mov	 DWORD PTR [esi], OFFSET ??_7?$CList@NN@@6B@

; 870  : 	m_nCount = 0;

  0002e	c7 46 0c 00 00
	00 00		 mov	 DWORD PTR [esi+12], 0

; 871  : 	m_pNodeHead = m_pNodeTail = m_pNodeFree = NULL;

  00035	c7 46 10 00 00
	00 00		 mov	 DWORD PTR [esi+16], 0
  0003c	c7 46 08 00 00
	00 00		 mov	 DWORD PTR [esi+8], 0
  00043	c7 46 04 00 00
	00 00		 mov	 DWORD PTR [esi+4], 0

; 872  : 	m_pBlocks->FreeDataChain();

  0004a	e8 00 00 00 00	 call	 ?FreeDataChain@CPlex@@QAEXXZ ; CPlex::FreeDataChain

; 873  : 	m_pBlocks = NULL;

  0004f	c7 46 14 00 00
	00 00		 mov	 DWORD PTR [esi+20], 0

; 879  : 	RemoveAll();
; 880  : 	ASSERT(m_nCount == 0);
; 881  : }

  00056	8b 4d f4	 mov	 ecx, DWORD PTR __$EHRec$[ebp]
  00059	64 89 0d 00 00
	00 00		 mov	 DWORD PTR fs:0, ecx
  00060	59		 pop	 ecx
  00061	5e		 pop	 esi
  00062	8b e5		 mov	 esp, ebp
  00064	5d		 pop	 ebp
  00065	c3		 ret	 0
  00066	cc		 int	 3
  00067	cc		 int	 3
  00068	cc		 int	 3
  00069	cc		 int	 3
  0006a	cc		 int	 3
_TEXT	ENDS
;	COMDAT text$x
text$x	SEGMENT
__ehhandler$??1?$CList@NN@@UAE@XZ:
  00000	90		 npad	 1
  00001	90		 npad	 1
  00002	8b 54 24 08	 mov	 edx, DWORD PTR [esp+8]
  00006	8d 42 0c	 lea	 eax, DWORD PTR [edx+12]
  00009	8b 4a f8	 mov	 ecx, DWORD PTR [edx-8]
  0000c	33 c8		 xor	 ecx, eax
  0000e	e8 00 00 00 00	 call	 @__security_check_cookie@4
  00013	b8 00 00 00 00	 mov	 eax, OFFSET __ehfuncinfo$??1?$CList@NN@@UAE@XZ
  00018	e9 00 00 00 00	 jmp	 ___CxxFrameHandler3
text$x	ENDS
??1?$CList@NN@@UAE@XZ ENDP				; CList<double,double>::~CList<double,double>
; Function compile flags: /Ogtp
; File C:\Program Files (x86)\Microsoft Visual Studio\2019\Community\VC\Tools\MSVC\14.29.30133\atlmfc\include\afxtempl.h
;	COMDAT ?NewNode@?$CList@NN@@IAEPAUCNode@1@PAU21@0@Z
_TEXT	SEGMENT
_pPrev$ = 8						; size = 4
_pNext$ = 12						; size = 4
?NewNode@?$CList@NN@@IAEPAUCNode@1@PAU21@0@Z PROC	; CList<double,double>::NewNode, COMDAT
; _this$ = ecx

; 901  : {

  00000	55		 push	 ebp
  00001	8b ec		 mov	 ebp, esp
  00003	56		 push	 esi
  00004	8b f1		 mov	 esi, ecx

; 902  : 	if (m_pNodeFree == NULL)

  00006	83 7e 10 00	 cmp	 DWORD PTR [esi+16], 0
  0000a	75 34		 jne	 SHORT $LN7@NewNode

; 903  : 	{
; 904  : 		// add another block
; 905  : 		CPlex* pNewBlock = CPlex::Create(m_pBlocks, m_nBlockSize,

  0000c	6a 10		 push	 16			; 00000010H
  0000e	ff 76 18	 push	 DWORD PTR [esi+24]
  00011	8d 46 14	 lea	 eax, DWORD PTR [esi+20]
  00014	50		 push	 eax
  00015	e8 00 00 00 00	 call	 ?Create@CPlex@@SGPAU1@AAPAU1@II@Z ; CPlex::Create

; 906  : 				 sizeof(CNode));
; 907  : 
; 908  : 		// chain them into free list
; 909  : 		CNode* pNode = (CNode*) pNewBlock->data();
; 910  : 		// free in reverse order to make it easier to debug
; 911  : 		pNode += m_nBlockSize - 1;

  0001a	8b 56 18	 mov	 edx, DWORD PTR [esi+24]
  0001d	83 c0 08	 add	 eax, 8
  00020	8b ca		 mov	 ecx, edx
  00022	c1 e1 04	 shl	 ecx, 4
  00025	83 c1 f0	 add	 ecx, -16		; fffffff0H
  00028	03 c1		 add	 eax, ecx

; 912  : 		for (INT_PTR i = m_nBlockSize-1; i >= 0; i--, pNode--)

  0002a	83 c2 ff	 add	 edx, -1
  0002d	78 11		 js	 SHORT $LN7@NewNode
  0002f	90		 npad	 1
$LL4@NewNode:

; 913  : 		{
; 914  : 			pNode->pNext = m_pNodeFree;

  00030	8b 4e 10	 mov	 ecx, DWORD PTR [esi+16]
  00033	89 08		 mov	 DWORD PTR [eax], ecx

; 915  : 			m_pNodeFree = pNode;

  00035	89 46 10	 mov	 DWORD PTR [esi+16], eax
  00038	83 e8 10	 sub	 eax, 16			; 00000010H
  0003b	83 ea 01	 sub	 edx, 1
  0003e	79 f0		 jns	 SHORT $LL4@NewNode
$LN7@NewNode:

; 916  : 		}
; 917  : 	}
; 918  : 	ENSURE(m_pNodeFree != NULL);  // we must have something

  00040	8b 46 10	 mov	 eax, DWORD PTR [esi+16]
  00043	85 c0		 test	 eax, eax
  00045	74 18		 je	 SHORT $LN17@NewNode

; 919  : 
; 920  : 	CList::CNode* pNode = m_pNodeFree;
; 921  : 	m_pNodeFree = m_pNodeFree->pNext;

  00047	8b 08		 mov	 ecx, DWORD PTR [eax]
  00049	89 4e 10	 mov	 DWORD PTR [esi+16], ecx

; 922  : 	pNode->pPrev = pPrev;

  0004c	8b 4d 08	 mov	 ecx, DWORD PTR _pPrev$[ebp]
  0004f	89 48 04	 mov	 DWORD PTR [eax+4], ecx

; 923  : 	pNode->pNext = pNext;

  00052	8b 4d 0c	 mov	 ecx, DWORD PTR _pNext$[ebp]
  00055	89 08		 mov	 DWORD PTR [eax], ecx

; 924  : 	m_nCount++;

  00057	ff 46 0c	 inc	 DWORD PTR [esi+12]

; 925  : 	ASSERT(m_nCount > 0);  // make sure we don't overflow
; 926  : 
; 927  : #pragma push_macro("new")
; 928  : #undef new
; 929  : 	::new( (void*)( &pNode->data ) ) TYPE;
; 930  : #pragma pop_macro("new")
; 931  : 	return pNode;

  0005a	5e		 pop	 esi

; 932  : }

  0005b	5d		 pop	 ebp
  0005c	c2 08 00	 ret	 8
$LN17@NewNode:

; 916  : 		}
; 917  : 	}
; 918  : 	ENSURE(m_pNodeFree != NULL);  // we must have something

  0005f	e8 00 00 00 00	 call	 ?AfxThrowInvalidArgException@@YGXXZ ; AfxThrowInvalidArgException
$LN15@NewNode:
  00064	cc		 int	 3
?NewNode@?$CList@NN@@IAEPAUCNode@1@PAU21@0@Z ENDP	; CList<double,double>::NewNode
_TEXT	ENDS
; Function compile flags: /Ogtp
; File C:\Program Files (x86)\Microsoft Visual Studio\2019\Community\VC\Tools\MSVC\14.29.30133\atlmfc\include\afxtempl.h
;	COMDAT ?FindIndex@?$CList@NN@@QBEPAU__POSITION@@H@Z
_TEXT	SEGMENT
_nIndex$ = 8						; size = 4
?FindIndex@?$CList@NN@@QBEPAU__POSITION@@H@Z PROC	; CList<double,double>::FindIndex, COMDAT
; _this$ = ecx

; 1130 : {

  00000	55		 push	 ebp
  00001	8b ec		 mov	 ebp, esp

; 1131 : 	ASSERT_VALID(this);
; 1132 : 
; 1133 : 	if (nIndex >= m_nCount || nIndex < 0)

  00003	8b 55 08	 mov	 edx, DWORD PTR _nIndex$[ebp]
  00006	3b 51 0c	 cmp	 edx, DWORD PTR [ecx+12]
  00009	7d 14		 jge	 SHORT $LN5@FindIndex
  0000b	85 d2		 test	 edx, edx
  0000d	78 10		 js	 SHORT $LN5@FindIndex

; 1135 : 
; 1136 : 	CNode* pNode = m_pNodeHead;

  0000f	8b 41 04	 mov	 eax, DWORD PTR [ecx+4]

; 1137 : 	while (nIndex--)

  00012	74 0d		 je	 SHORT $LN1@FindIndex
$LL2@FindIndex:

; 1138 : 	{
; 1139 : 		ASSERT(AfxIsValidAddress(pNode, sizeof(CNode)));
; 1140 : 		pNode = pNode->pNext;

  00014	8b 00		 mov	 eax, DWORD PTR [eax]
  00016	83 ea 01	 sub	 edx, 1
  00019	75 f9		 jne	 SHORT $LL2@FindIndex

; 1141 : 	}
; 1142 : 	return (POSITION) pNode;
; 1143 : }

  0001b	5d		 pop	 ebp
  0001c	c2 04 00	 ret	 4
$LN5@FindIndex:

; 1134 : 		return NULL;  // went too far

  0001f	33 c0		 xor	 eax, eax
$LN1@FindIndex:

; 1141 : 	}
; 1142 : 	return (POSITION) pNode;
; 1143 : }

  00021	5d		 pop	 ebp
  00022	c2 04 00	 ret	 4
?FindIndex@?$CList@NN@@QBEPAU__POSITION@@H@Z ENDP	; CList<double,double>::FindIndex
_TEXT	ENDS
; Function compile flags: /Ogtp
; File C:\Program Files (x86)\Microsoft Visual Studio\2019\Community\VC\Tools\MSVC\14.29.30133\atlmfc\include\afxtempl.h
;	COMDAT ?RemoveAll@?$CList@NN@@QAEXXZ
_TEXT	SEGMENT
?RemoveAll@?$CList@NN@@QAEXXZ PROC			; CList<double,double>::RemoveAll, COMDAT
; _this$ = ecx

; 862  : {

  00000	56		 push	 esi
  00001	8b f1		 mov	 esi, ecx

; 863  : 	ASSERT_VALID(this);
; 864  : 
; 865  : 	// destroy elements
; 866  : 	CNode* pNode;
; 867  : 	for (pNode = m_pNodeHead; pNode != NULL; pNode = pNode->pNext)
; 868  : 		pNode->data.~TYPE();
; 869  : 
; 870  : 	m_nCount = 0;
; 871  : 	m_pNodeHead = m_pNodeTail = m_pNodeFree = NULL;
; 872  : 	m_pBlocks->FreeDataChain();

  00003	8b 4e 14	 mov	 ecx, DWORD PTR [esi+20]
  00006	c7 46 0c 00 00
	00 00		 mov	 DWORD PTR [esi+12], 0
  0000d	c7 46 10 00 00
	00 00		 mov	 DWORD PTR [esi+16], 0
  00014	c7 46 08 00 00
	00 00		 mov	 DWORD PTR [esi+8], 0
  0001b	c7 46 04 00 00
	00 00		 mov	 DWORD PTR [esi+4], 0
  00022	e8 00 00 00 00	 call	 ?FreeDataChain@CPlex@@QAEXXZ ; CPlex::FreeDataChain

; 873  : 	m_pBlocks = NULL;

  00027	c7 46 14 00 00
	00 00		 mov	 DWORD PTR [esi+20], 0
  0002e	5e		 pop	 esi

; 874  : }

  0002f	c3		 ret	 0
?RemoveAll@?$CList@NN@@QAEXXZ ENDP			; CList<double,double>::RemoveAll
_TEXT	ENDS
; Function compile flags: /Ogtp
; File C:\Program Files (x86)\Microsoft Visual Studio\2019\Community\VC\Tools\MSVC\14.29.30133\atlmfc\include\afxtempl.h
;	COMDAT ?AddTail@?$CList@NN@@QAEPAU__POSITION@@N@Z
_TEXT	SEGMENT
_newElement$ = 8					; size = 8
?AddTail@?$CList@NN@@QAEPAU__POSITION@@N@Z PROC		; CList<double,double>::AddTail, COMDAT
; _this$ = ecx

; 965  : {

  00000	55		 push	 ebp
  00001	8b ec		 mov	 ebp, esp
  00003	56		 push	 esi
  00004	8b f1		 mov	 esi, ecx
  00006	57		 push	 edi

; 902  : 	if (m_pNodeFree == NULL)

  00007	83 7e 10 00	 cmp	 DWORD PTR [esi+16], 0

; 966  : 	ASSERT_VALID(this);
; 967  : 
; 968  : 	CNode* pNewNode = NewNode(m_pNodeTail, NULL);

  0000b	8b 7e 08	 mov	 edi, DWORD PTR [esi+8]

; 902  : 	if (m_pNodeFree == NULL)

  0000e	75 33		 jne	 SHORT $LN11@AddTail

; 903  : 	{
; 904  : 		// add another block
; 905  : 		CPlex* pNewBlock = CPlex::Create(m_pBlocks, m_nBlockSize,

  00010	6a 10		 push	 16			; 00000010H
  00012	ff 76 18	 push	 DWORD PTR [esi+24]
  00015	8d 46 14	 lea	 eax, DWORD PTR [esi+20]
  00018	50		 push	 eax
  00019	e8 00 00 00 00	 call	 ?Create@CPlex@@SGPAU1@AAPAU1@II@Z ; CPlex::Create

; 906  : 				 sizeof(CNode));
; 907  : 
; 908  : 		// chain them into free list
; 909  : 		CNode* pNode = (CNode*) pNewBlock->data();
; 910  : 		// free in reverse order to make it easier to debug
; 911  : 		pNode += m_nBlockSize - 1;

  0001e	8b 56 18	 mov	 edx, DWORD PTR [esi+24]
  00021	83 c0 08	 add	 eax, 8
  00024	8b ca		 mov	 ecx, edx
  00026	c1 e1 04	 shl	 ecx, 4
  00029	83 c1 f0	 add	 ecx, -16		; fffffff0H
  0002c	03 c8		 add	 ecx, eax

; 912  : 		for (INT_PTR i = m_nBlockSize-1; i >= 0; i--, pNode--)

  0002e	83 c2 ff	 add	 edx, -1
  00031	78 10		 js	 SHORT $LN11@AddTail
$LL8@AddTail:

; 913  : 		{
; 914  : 			pNode->pNext = m_pNodeFree;

  00033	8b 46 10	 mov	 eax, DWORD PTR [esi+16]
  00036	89 01		 mov	 DWORD PTR [ecx], eax

; 915  : 			m_pNodeFree = pNode;

  00038	89 4e 10	 mov	 DWORD PTR [esi+16], ecx
  0003b	83 e9 10	 sub	 ecx, 16			; 00000010H
  0003e	83 ea 01	 sub	 edx, 1
  00041	79 f0		 jns	 SHORT $LL8@AddTail
$LN11@AddTail:

; 916  : 		}
; 917  : 	}
; 918  : 	ENSURE(m_pNodeFree != NULL);  // we must have something

  00043	8b 4e 10	 mov	 ecx, DWORD PTR [esi+16]
  00046	85 c9		 test	 ecx, ecx
  00048	74 3d		 je	 SHORT $LN22@AddTail

; 919  : 
; 920  : 	CList::CNode* pNode = m_pNodeFree;
; 921  : 	m_pNodeFree = m_pNodeFree->pNext;

  0004a	8b 01		 mov	 eax, DWORD PTR [ecx]

; 969  : 	pNewNode->data = newElement;

  0004c	f2 0f 10 45 08	 movsd	 xmm0, QWORD PTR _newElement$[ebp]

; 921  : 	m_pNodeFree = m_pNodeFree->pNext;

  00051	89 46 10	 mov	 DWORD PTR [esi+16], eax

; 922  : 	pNode->pPrev = pPrev;

  00054	89 79 04	 mov	 DWORD PTR [ecx+4], edi

; 923  : 	pNode->pNext = pNext;

  00057	c7 01 00 00 00
	00		 mov	 DWORD PTR [ecx], 0

; 924  : 	m_nCount++;

  0005d	ff 46 0c	 inc	 DWORD PTR [esi+12]

; 969  : 	pNewNode->data = newElement;

  00060	f2 0f 11 41 08	 movsd	 QWORD PTR [ecx+8], xmm0

; 970  : 	if (m_pNodeTail != NULL)

  00065	8b 46 08	 mov	 eax, DWORD PTR [esi+8]
  00068	85 c0		 test	 eax, eax
  0006a	74 0d		 je	 SHORT $LN2@AddTail

; 971  : 		m_pNodeTail->pNext = pNewNode;

  0006c	89 08		 mov	 DWORD PTR [eax], ecx

; 972  : 	else
; 973  : 		m_pNodeHead = pNewNode;
; 974  : 	m_pNodeTail = pNewNode;
; 975  : 	return (POSITION) pNewNode;

  0006e	8b c1		 mov	 eax, ecx
  00070	5f		 pop	 edi
  00071	89 4e 08	 mov	 DWORD PTR [esi+8], ecx
  00074	5e		 pop	 esi

; 976  : }

  00075	5d		 pop	 ebp
  00076	c2 08 00	 ret	 8
$LN2@AddTail:

; 972  : 	else
; 973  : 		m_pNodeHead = pNewNode;
; 974  : 	m_pNodeTail = pNewNode;
; 975  : 	return (POSITION) pNewNode;

  00079	5f		 pop	 edi
  0007a	89 4e 04	 mov	 DWORD PTR [esi+4], ecx
  0007d	8b c1		 mov	 eax, ecx
  0007f	89 4e 08	 mov	 DWORD PTR [esi+8], ecx
  00082	5e		 pop	 esi

; 976  : }

  00083	5d		 pop	 ebp
  00084	c2 08 00	 ret	 8
$LN22@AddTail:

; 918  : 	ENSURE(m_pNodeFree != NULL);  // we must have something

  00087	e8 00 00 00 00	 call	 ?AfxThrowInvalidArgException@@YGXXZ ; AfxThrowInvalidArgException
$LN20@AddTail:
  0008c	cc		 int	 3
?AddTail@?$CList@NN@@QAEPAU__POSITION@@N@Z ENDP		; CList<double,double>::AddTail
_TEXT	ENDS
; Function compile flags: /Ogtp
; File C:\Program Files (x86)\Microsoft Visual Studio\2019\Community\VC\Tools\MSVC\14.29.30133\atlmfc\include\afxtempl.h
;	COMDAT ??0?$CList@NN@@QAE@H@Z
_TEXT	SEGMENT
_nBlockSize$ = 8					; size = 4
??0?$CList@NN@@QAE@H@Z PROC				; CList<double,double>::CList<double,double>, COMDAT
; _this$ = ecx

; 851  : {

  00000	55		 push	 ebp
  00001	8b ec		 mov	 ebp, esp

; 852  : 	ASSERT(nBlockSize > 0);
; 853  : 
; 854  : 	m_nCount = 0;
; 855  : 	m_pNodeHead = m_pNodeTail = m_pNodeFree = NULL;
; 856  : 	m_pBlocks = NULL;
; 857  : 	m_nBlockSize = nBlockSize;

  00003	8b 45 08	 mov	 eax, DWORD PTR _nBlockSize$[ebp]
  00006	89 41 18	 mov	 DWORD PTR [ecx+24], eax

; 858  : }

  00009	8b c1		 mov	 eax, ecx
  0000b	c7 01 00 00 00
	00		 mov	 DWORD PTR [ecx], OFFSET ??_7?$CList@NN@@6B@
  00011	c7 41 0c 00 00
	00 00		 mov	 DWORD PTR [ecx+12], 0
  00018	c7 41 10 00 00
	00 00		 mov	 DWORD PTR [ecx+16], 0
  0001f	c7 41 08 00 00
	00 00		 mov	 DWORD PTR [ecx+8], 0
  00026	c7 41 04 00 00
	00 00		 mov	 DWORD PTR [ecx+4], 0
  0002d	c7 41 14 00 00
	00 00		 mov	 DWORD PTR [ecx+20], 0
  00034	5d		 pop	 ebp
  00035	c2 04 00	 ret	 4
??0?$CList@NN@@QAE@H@Z ENDP				; CList<double,double>::CList<double,double>
_TEXT	ENDS
; Function compile flags: /Ogtp
; File D:\git\src\IBK\IBK_DRFN\ProjSrc\SrcChartEx\ChartOCX\IndicatorCondition\IndicatorConditionBaseData.cpp
; File C:\Program Files (x86)\Microsoft Visual Studio\2019\Community\VC\Tools\MSVC\14.29.30133\atlmfc\include\afxtempl.h
; File D:\git\src\IBK\IBK_DRFN\ProjSrc\SrcChartEx\ChartOCX\IndicatorCondition\IndicatorConditionBaseData.cpp
;	COMDAT ?GetSubGraphStringData@CSubGraphPartData@@ABEXAAV?$CStringT@DV?$StrTraitMFC_DLL@DV?$ChTraitsCRT@D@ATL@@@@@ATL@@AAVCSubGraphData@@H_N@Z
_TEXT	SEGMENT
_dCondition$1$ = -24					; size = 8
_OldTitle$ = -16					; size = 4
__$EHRec$ = -12						; size = 12
_p_SubGraphData$ = 8					; size = 4
_subGraphData$ = 12					; size = 4
_strTitle$ = 16						; size = 4
_nCondIndexForTitle$ = 16				; size = 4
$T2 = 20						; size = 4
_bIncludeOrgTitle$ = 20					; size = 1
?GetSubGraphStringData@CSubGraphPartData@@ABEXAAV?$CStringT@DV?$StrTraitMFC_DLL@DV?$ChTraitsCRT@D@ATL@@@@@ATL@@AAVCSubGraphData@@H_N@Z PROC ; CSubGraphPartData::GetSubGraphStringData, COMDAT
; _this$ = ecx

; 316  : {

  00000	55		 push	 ebp
  00001	8b ec		 mov	 ebp, esp
  00003	6a ff		 push	 -1
  00005	68 00 00 00 00	 push	 __ehhandler$?GetSubGraphStringData@CSubGraphPartData@@ABEXAAV?$CStringT@DV?$StrTraitMFC_DLL@DV?$ChTraitsCRT@D@ATL@@@@@ATL@@AAVCSubGraphData@@H_N@Z
  0000a	64 a1 00 00 00
	00		 mov	 eax, DWORD PTR fs:0
  00010	50		 push	 eax
  00011	83 ec 0c	 sub	 esp, 12			; 0000000cH
  00014	56		 push	 esi
  00015	a1 00 00 00 00	 mov	 eax, DWORD PTR ___security_cookie
  0001a	33 c5		 xor	 eax, ebp
  0001c	50		 push	 eax
  0001d	8d 45 f4	 lea	 eax, DWORD PTR __$EHRec$[ebp]
  00020	64 a3 00 00 00
	00		 mov	 DWORD PTR fs:0, eax

; 90   : 	if(nIndex < 0)

  00026	8b 45 10	 mov	 eax, DWORD PTR _nCondIndexForTitle$[ebp]
  00029	85 c0		 test	 eax, eax
  0002b	0f 88 f3 00 00
	00		 js	 $LN24@GetSubGrap
; File C:\Program Files (x86)\Microsoft Visual Studio\2019\Community\VC\Tools\MSVC\14.29.30133\atlmfc\include\afxtempl.h

; 1133 : 	if (nIndex >= m_nCount || nIndex < 0)

  00031	3b 41 14	 cmp	 eax, DWORD PTR [ecx+20]
  00034	0f 8d ea 00 00
	00		 jge	 $LN24@GetSubGrap

; 1134 : 		return NULL;  // went too far
; 1135 : 
; 1136 : 	CNode* pNode = m_pNodeHead;

  0003a	8b 49 0c	 mov	 ecx, DWORD PTR [ecx+12]

; 1137 : 	while (nIndex--)

  0003d	85 c0		 test	 eax, eax
  0003f	74 07		 je	 SHORT $LN20@GetSubGrap
$LL14@GetSubGrap:

; 1138 : 	{
; 1139 : 		ASSERT(AfxIsValidAddress(pNode, sizeof(CNode)));
; 1140 : 		pNode = pNode->pNext;

  00041	8b 09		 mov	 ecx, DWORD PTR [ecx]
  00043	83 e8 01	 sub	 eax, 1
  00046	75 f9		 jne	 SHORT $LL14@GetSubGrap
$LN20@GetSubGrap:
; File D:\git\src\IBK\IBK_DRFN\ProjSrc\SrcChartEx\ChartOCX\IndicatorCondition\IndicatorConditionBaseData.cpp

; 94   : 	if(pos == NULL)

  00048	85 c9		 test	 ecx, ecx
  0004a	0f 84 d4 00 00
	00		 je	 $LN24@GetSubGrap

; 95   : 		return false;
; 96   : 
; 97   : 	dData = m_calConditionList.GetAt(pos);

  00050	f2 0f 10 41 08	 movsd	 xmm0, QWORD PTR [ecx+8]

; 321  : 		return;
; 322  : 	}
; 323  : 
; 324  : 	CString strTitle;

  00055	8d 4d 10	 lea	 ecx, DWORD PTR _strTitle$[ebp]

; 97   : 	dData = m_calConditionList.GetAt(pos);

  00058	f2 0f 11 45 e8	 movsd	 QWORD PTR _dCondition$1$[ebp], xmm0

; 321  : 		return;
; 322  : 	}
; 323  : 
; 324  : 	CString strTitle;

  0005d	ff 15 00 00 00
	00		 call	 DWORD PTR __imp_??0?$CStringT@DV?$StrTraitMFC_DLL@DV?$ChTraitsCRT@D@ATL@@@@@ATL@@QAE@XZ

; 325  : 	if( bIncludeOrgTitle)	strTitle.Format( "%s_%0.f", subGraphData.GetTitle(), dCondition);

  00063	80 7d 14 00	 cmp	 BYTE PTR _bIncludeOrgTitle$[ebp], 0
  00067	8b 75 0c	 mov	 esi, DWORD PTR _subGraphData$[ebp]
  0006a	c7 45 fc 00 00
	00 00		 mov	 DWORD PTR __$EHRec$[ebp+8], 0
  00071	74 3f		 je	 SHORT $LN3@GetSubGrap
  00073	8d 45 14	 lea	 eax, DWORD PTR $T2[ebp]
  00076	8b ce		 mov	 ecx, esi
  00078	50		 push	 eax
  00079	e8 00 00 00 00	 call	 ?GetTitle@CSubGraphDataBase@@QBE?AV?$CStringT@DV?$StrTraitMFC_DLL@DV?$ChTraitsCRT@D@ATL@@@@@ATL@@XZ ; CSubGraphDataBase::GetTitle
  0007e	f2 0f 10 45 e8	 movsd	 xmm0, QWORD PTR _dCondition$1$[ebp]
  00083	83 ec 08	 sub	 esp, 8
  00086	c6 45 fc 01	 mov	 BYTE PTR __$EHRec$[ebp+8], 1
  0008a	f2 0f 11 04 24	 movsd	 QWORD PTR [esp], xmm0
  0008f	ff 30		 push	 DWORD PTR [eax]
  00091	8d 45 10	 lea	 eax, DWORD PTR _strTitle$[ebp]
  00094	68 00 00 00 00	 push	 OFFSET ??_C@_07PDGNMDCO@?$CFs_?$CF0?4f@
  00099	50		 push	 eax
  0009a	ff 15 00 00 00
	00		 call	 DWORD PTR __imp_?Format@?$CStringT@DV?$StrTraitMFC_DLL@DV?$ChTraitsCRT@D@ATL@@@@@ATL@@QAAXPBDZZ
  000a0	83 c4 14	 add	 esp, 20			; 00000014H
  000a3	c6 45 fc 00	 mov	 BYTE PTR __$EHRec$[ebp+8], 0
  000a7	8d 4d 14	 lea	 ecx, DWORD PTR $T2[ebp]
  000aa	ff 15 00 00 00
	00		 call	 DWORD PTR __imp_??1?$CStringT@DV?$StrTraitMFC_DLL@DV?$ChTraitsCRT@D@ATL@@@@@ATL@@QAE@XZ
  000b0	eb 1f		 jmp	 SHORT $LN4@GetSubGrap
$LN3@GetSubGrap:

; 326  : 	else					strTitle.Format( "%0.f",	dCondition);

  000b2	f2 0f 10 45 e8	 movsd	 xmm0, QWORD PTR _dCondition$1$[ebp]
  000b7	8d 45 10	 lea	 eax, DWORD PTR _strTitle$[ebp]
  000ba	83 ec 08	 sub	 esp, 8
  000bd	f2 0f 11 04 24	 movsd	 QWORD PTR [esp], xmm0
  000c2	68 00 00 00 00	 push	 OFFSET ??_C@_04MBKDPHPM@?$CF0?4f@
  000c7	50		 push	 eax
  000c8	ff 15 00 00 00
	00		 call	 DWORD PTR __imp_?Format@?$CStringT@DV?$StrTraitMFC_DLL@DV?$ChTraitsCRT@D@ATL@@@@@ATL@@QAAXPBDZZ
  000ce	83 c4 10	 add	 esp, 16			; 00000010H
$LN4@GetSubGrap:

; 327  : 
; 328  : 	CString OldTitle = subGraphData.GetTitle();

  000d1	8d 45 f0	 lea	 eax, DWORD PTR _OldTitle$[ebp]
  000d4	8b ce		 mov	 ecx, esi
  000d6	50		 push	 eax
  000d7	e8 00 00 00 00	 call	 ?GetTitle@CSubGraphDataBase@@QBE?AV?$CStringT@DV?$StrTraitMFC_DLL@DV?$ChTraitsCRT@D@ATL@@@@@ATL@@XZ ; CSubGraphDataBase::GetTitle

; 329  : 	subGraphData.SetTitle( strTitle);

  000dc	8d 45 10	 lea	 eax, DWORD PTR _strTitle$[ebp]
  000df	c6 45 fc 02	 mov	 BYTE PTR __$EHRec$[ebp+8], 2
  000e3	50		 push	 eax
  000e4	8b ce		 mov	 ecx, esi
  000e6	e8 00 00 00 00	 call	 ?SetTitle@CSubGraphDataBase@@QAEXABV?$CStringT@DV?$StrTraitMFC_DLL@DV?$ChTraitsCRT@D@ATL@@@@@ATL@@@Z ; CSubGraphDataBase::SetTitle

; 330  : 	subGraphData.GetStringData( p_SubGraphData);

  000eb	ff 75 08	 push	 DWORD PTR _p_SubGraphData$[ebp]
  000ee	8b ce		 mov	 ecx, esi
  000f0	e8 00 00 00 00	 call	 ?GetStringData@CSubGraphDataBase@@QBEXAAV?$CStringT@DV?$StrTraitMFC_DLL@DV?$ChTraitsCRT@D@ATL@@@@@ATL@@@Z ; CSubGraphDataBase::GetStringData

; 331  : 	subGraphData.SetTitle( OldTitle);

  000f5	8d 45 f0	 lea	 eax, DWORD PTR _OldTitle$[ebp]
  000f8	8b ce		 mov	 ecx, esi
  000fa	50		 push	 eax
  000fb	e8 00 00 00 00	 call	 ?SetTitle@CSubGraphDataBase@@QAEXABV?$CStringT@DV?$StrTraitMFC_DLL@DV?$ChTraitsCRT@D@ATL@@@@@ATL@@@Z ; CSubGraphDataBase::SetTitle

; 332  : }

  00100	8d 4d f0	 lea	 ecx, DWORD PTR _OldTitle$[ebp]
  00103	ff 15 00 00 00
	00		 call	 DWORD PTR __imp_??1?$CStringT@DV?$StrTraitMFC_DLL@DV?$ChTraitsCRT@D@ATL@@@@@ATL@@QAE@XZ
  00109	8d 4d 10	 lea	 ecx, DWORD PTR _strTitle$[ebp]
  0010c	ff 15 00 00 00
	00		 call	 DWORD PTR __imp_??1?$CStringT@DV?$StrTraitMFC_DLL@DV?$ChTraitsCRT@D@ATL@@@@@ATL@@QAE@XZ
  00112	8b 4d f4	 mov	 ecx, DWORD PTR __$EHRec$[ebp]
  00115	64 89 0d 00 00
	00 00		 mov	 DWORD PTR fs:0, ecx
  0011c	59		 pop	 ecx
  0011d	5e		 pop	 esi
  0011e	8b e5		 mov	 esp, ebp
  00120	5d		 pop	 ebp
  00121	c2 10 00	 ret	 16			; 00000010H
$LN24@GetSubGrap:

; 317  : 	double dCondition = 0.0;
; 318  : 	if( !GetConditionData( nCondIndexForTitle, dCondition))
; 319  : 	{
; 320  : 		subGraphData.GetStringData( p_SubGraphData);

  00124	ff 75 08	 push	 DWORD PTR _p_SubGraphData$[ebp]
  00127	8b 4d 0c	 mov	 ecx, DWORD PTR _subGraphData$[ebp]
  0012a	e8 00 00 00 00	 call	 ?GetStringData@CSubGraphDataBase@@QBEXAAV?$CStringT@DV?$StrTraitMFC_DLL@DV?$ChTraitsCRT@D@ATL@@@@@ATL@@@Z ; CSubGraphDataBase::GetStringData

; 332  : }

  0012f	8b 4d f4	 mov	 ecx, DWORD PTR __$EHRec$[ebp]
  00132	64 89 0d 00 00
	00 00		 mov	 DWORD PTR fs:0, ecx
  00139	59		 pop	 ecx
  0013a	5e		 pop	 esi
  0013b	8b e5		 mov	 esp, ebp
  0013d	5d		 pop	 ebp
  0013e	c2 10 00	 ret	 16			; 00000010H
_TEXT	ENDS
;	COMDAT text$x
text$x	SEGMENT
__unwindfunclet$?GetSubGraphStringData@CSubGraphPartData@@ABEXAAV?$CStringT@DV?$StrTraitMFC_DLL@DV?$ChTraitsCRT@D@ATL@@@@@ATL@@AAVCSubGraphData@@H_N@Z$0:
  00000	8d 4d 10	 lea	 ecx, DWORD PTR _strTitle$[ebp]
  00003	ff 25 00 00 00
	00		 jmp	 DWORD PTR __imp_??1?$CStringT@DV?$StrTraitMFC_DLL@DV?$ChTraitsCRT@D@ATL@@@@@ATL@@QAE@XZ
__unwindfunclet$?GetSubGraphStringData@CSubGraphPartData@@ABEXAAV?$CStringT@DV?$StrTraitMFC_DLL@DV?$ChTraitsCRT@D@ATL@@@@@ATL@@AAVCSubGraphData@@H_N@Z$1:
  00009	8d 4d 14	 lea	 ecx, DWORD PTR $T2[ebp]
  0000c	ff 25 00 00 00
	00		 jmp	 DWORD PTR __imp_??1?$CStringT@DV?$StrTraitMFC_DLL@DV?$ChTraitsCRT@D@ATL@@@@@ATL@@QAE@XZ
__unwindfunclet$?GetSubGraphStringData@CSubGraphPartData@@ABEXAAV?$CStringT@DV?$StrTraitMFC_DLL@DV?$ChTraitsCRT@D@ATL@@@@@ATL@@AAVCSubGraphData@@H_N@Z$2:
  00012	8d 4d f0	 lea	 ecx, DWORD PTR _OldTitle$[ebp]
  00015	ff 25 00 00 00
	00		 jmp	 DWORD PTR __imp_??1?$CStringT@DV?$StrTraitMFC_DLL@DV?$ChTraitsCRT@D@ATL@@@@@ATL@@QAE@XZ
  0001b	cc		 int	 3
  0001c	cc		 int	 3
  0001d	cc		 int	 3
  0001e	cc		 int	 3
  0001f	cc		 int	 3
__ehhandler$?GetSubGraphStringData@CSubGraphPartData@@ABEXAAV?$CStringT@DV?$StrTraitMFC_DLL@DV?$ChTraitsCRT@D@ATL@@@@@ATL@@AAVCSubGraphData@@H_N@Z:
  00020	90		 npad	 1
  00021	90		 npad	 1
  00022	8b 54 24 08	 mov	 edx, DWORD PTR [esp+8]
  00026	8d 42 0c	 lea	 eax, DWORD PTR [edx+12]
  00029	8b 4a ec	 mov	 ecx, DWORD PTR [edx-20]
  0002c	33 c8		 xor	 ecx, eax
  0002e	e8 00 00 00 00	 call	 @__security_check_cookie@4
  00033	b8 00 00 00 00	 mov	 eax, OFFSET __ehfuncinfo$?GetSubGraphStringData@CSubGraphPartData@@ABEXAAV?$CStringT@DV?$StrTraitMFC_DLL@DV?$ChTraitsCRT@D@ATL@@@@@ATL@@AAVCSubGraphData@@H_N@Z
  00038	e9 00 00 00 00	 jmp	 ___CxxFrameHandler3
text$x	ENDS
?GetSubGraphStringData@CSubGraphPartData@@ABEXAAV?$CStringT@DV?$StrTraitMFC_DLL@DV?$ChTraitsCRT@D@ATL@@@@@ATL@@AAVCSubGraphData@@H_N@Z ENDP ; CSubGraphPartData::GetSubGraphStringData
; Function compile flags: /Ogtp
; File D:\git\src\IBK\IBK_DRFN\ProjSrc\SrcChartEx\ChartOCX\IndicatorCondition\IndicatorConditionBaseData.cpp
;	COMDAT ?CopyDataWithVerificationFrom@CSubGraphPartData@@AAEXABV?$CList@NN@@@Z
_TEXT	SEGMENT
_sourceData$ = 8					; size = 4
?CopyDataWithVerificationFrom@CSubGraphPartData@@AAEXABV?$CList@NN@@@Z PROC ; CSubGraphPartData::CopyDataWithVerificationFrom, COMDAT
; _this$ = ecx

; 288  : {

  00000	55		 push	 ebp
  00001	8b ec		 mov	 ebp, esp

; 289  : 	// count          default  .
; 290  : 	if(m_calConditionList.GetCount() != sourceData.GetCount())

  00003	8b 55 08	 mov	 edx, DWORD PTR _sourceData$[ebp]
  00006	8b 41 14	 mov	 eax, DWORD PTR [ecx+20]
  00009	3b 42 0c	 cmp	 eax, DWORD PTR [edx+12]
  0000c	75 09		 jne	 SHORT $LN1@CopyDataWi

; 291  : 		return;
; 292  : 
; 293  : 	// count    default    .
; 294  : 	CopyConditionList(sourceData);

  0000e	89 55 08	 mov	 DWORD PTR _sourceData$[ebp], edx

; 295  : }

  00011	5d		 pop	 ebp

; 291  : 		return;
; 292  : 
; 293  : 	// count    default    .
; 294  : 	CopyConditionList(sourceData);

  00012	e9 00 00 00 00	 jmp	 ?CopyConditionList@CSubGraphPartData@@AAEXABV?$CList@NN@@@Z ; CSubGraphPartData::CopyConditionList
$LN1@CopyDataWi:

; 295  : }

  00017	5d		 pop	 ebp
  00018	c2 04 00	 ret	 4
?CopyDataWithVerificationFrom@CSubGraphPartData@@AAEXABV?$CList@NN@@@Z ENDP ; CSubGraphPartData::CopyDataWithVerificationFrom
_TEXT	ENDS
; Function compile flags: /Ogtp
; File D:\git\src\IBK\IBK_DRFN\ProjSrc\SrcChartEx\ChartOCX\IndicatorCondition\IndicatorConditionBaseData.cpp
; File C:\Program Files (x86)\Microsoft Visual Studio\2019\Community\VC\Tools\MSVC\14.29.30133\atlmfc\include\afxtempl.h
; File D:\git\src\IBK\IBK_DRFN\ProjSrc\SrcChartEx\ChartOCX\IndicatorCondition\IndicatorConditionBaseData.cpp
; File C:\Program Files (x86)\Microsoft Visual Studio\2019\Community\VC\Tools\MSVC\14.29.30133\atlmfc\include\afxtempl.h
; File D:\git\src\IBK\IBK_DRFN\ProjSrc\SrcChartEx\ChartOCX\IndicatorCondition\IndicatorConditionBaseData.cpp
; File C:\Program Files (x86)\Microsoft Visual Studio\2019\Community\VC\Tools\MSVC\14.29.30133\atlmfc\include\afxtempl.h
; File D:\git\src\IBK\IBK_DRFN\ProjSrc\SrcChartEx\ChartOCX\IndicatorCondition\IndicatorConditionBaseData.cpp
; File C:\Program Files (x86)\Microsoft Visual Studio\2019\Community\VC\Tools\MSVC\14.29.30133\atlmfc\include\afxtempl.h
; File D:\git\src\IBK\IBK_DRFN\ProjSrc\SrcChartEx\ChartOCX\IndicatorCondition\IndicatorConditionBaseData.cpp
; File C:\Program Files (x86)\Microsoft Visual Studio\2019\Community\VC\Tools\MSVC\14.29.30133\atlmfc\include\afxtempl.h
; File D:\git\src\IBK\IBK_DRFN\ProjSrc\SrcChartEx\ChartOCX\IndicatorCondition\IndicatorConditionBaseData.cpp
; File C:\Program Files (x86)\Microsoft Visual Studio\2019\Community\VC\Tools\MSVC\14.29.30133\atlmfc\include\afxtempl.h
; File D:\git\src\IBK\IBK_DRFN\ProjSrc\SrcChartEx\ChartOCX\IndicatorCondition\IndicatorConditionBaseData.cpp
;	COMDAT ?CopyConditionList@CSubGraphPartData@@AAEXABV?$CList@NN@@@Z
_TEXT	SEGMENT
_newElement$1$ = -8					; size = 8
$T1 = 8							; size = 4
_sourceData$ = 8					; size = 4
?CopyConditionList@CSubGraphPartData@@AAEXABV?$CList@NN@@@Z PROC ; CSubGraphPartData::CopyConditionList, COMDAT
; _this$ = ecx

; 276  : {

  00000	55		 push	 ebp
  00001	8b ec		 mov	 ebp, esp
  00003	83 ec 08	 sub	 esp, 8
  00006	53		 push	 ebx
  00007	56		 push	 esi
  00008	8b f1		 mov	 esi, ecx
; File C:\Program Files (x86)\Microsoft Visual Studio\2019\Community\VC\Tools\MSVC\14.29.30133\atlmfc\include\afxtempl.h

; 872  : 	m_pBlocks->FreeDataChain();

  0000a	8b 4e 1c	 mov	 ecx, DWORD PTR [esi+28]
; File D:\git\src\IBK\IBK_DRFN\ProjSrc\SrcChartEx\ChartOCX\IndicatorCondition\IndicatorConditionBaseData.cpp

; 276  : {

  0000d	57		 push	 edi
; File C:\Program Files (x86)\Microsoft Visual Studio\2019\Community\VC\Tools\MSVC\14.29.30133\atlmfc\include\afxtempl.h

; 872  : 	m_pBlocks->FreeDataChain();

  0000e	8d 7e 1c	 lea	 edi, DWORD PTR [esi+28]
  00011	c7 46 14 00 00
	00 00		 mov	 DWORD PTR [esi+20], 0
  00018	c7 46 18 00 00
	00 00		 mov	 DWORD PTR [esi+24], 0
  0001f	c7 46 10 00 00
	00 00		 mov	 DWORD PTR [esi+16], 0
  00026	c7 46 0c 00 00
	00 00		 mov	 DWORD PTR [esi+12], 0
  0002d	e8 00 00 00 00	 call	 ?FreeDataChain@CPlex@@QAEXXZ ; CPlex::FreeDataChain
; File D:\git\src\IBK\IBK_DRFN\ProjSrc\SrcChartEx\ChartOCX\IndicatorCondition\IndicatorConditionBaseData.cpp

; 279  : 	POSITION pos = sourceData.GetHeadPosition();

  00032	8b 45 08	 mov	 eax, DWORD PTR _sourceData$[ebp]
; File C:\Program Files (x86)\Microsoft Visual Studio\2019\Community\VC\Tools\MSVC\14.29.30133\atlmfc\include\afxtempl.h

; 873  : 	m_pBlocks = NULL;

  00035	c7 07 00 00 00
	00		 mov	 DWORD PTR [edi], 0
; File D:\git\src\IBK\IBK_DRFN\ProjSrc\SrcChartEx\ChartOCX\IndicatorCondition\IndicatorConditionBaseData.cpp

; 279  : 	POSITION pos = sourceData.GetHeadPosition();

  0003b	8b 58 04	 mov	 ebx, DWORD PTR [eax+4]

; 280  : 	while(pos != NULL)

  0003e	85 db		 test	 ebx, ebx
  00040	0f 84 9b 00 00
	00		 je	 $LN45@CopyCondit
  00046	8b 4e 10	 mov	 ecx, DWORD PTR [esi+16]
  00049	89 4d 08	 mov	 DWORD PTR $T1[ebp], ecx
  0004c	0f 1f 40 00	 npad	 4
$LL2@CopyCondit:

; 282  : 		m_calConditionList.AddTail(sourceData.GetNext(pos));

  00050	f2 0f 10 43 08	 movsd	 xmm0, QWORD PTR [ebx+8]
; File C:\Program Files (x86)\Microsoft Visual Studio\2019\Community\VC\Tools\MSVC\14.29.30133\atlmfc\include\afxtempl.h

; 817  : 	{ CNode* pNode = (CNode*) rPosition;

  00055	8d 03		 lea	 eax, DWORD PTR [ebx]

; 902  : 	if (m_pNodeFree == NULL)

  00057	8b 56 18	 mov	 edx, DWORD PTR [esi+24]

; 819  : 		rPosition = (POSITION) pNode->pNext;

  0005a	8b 1b		 mov	 ebx, DWORD PTR [ebx]
; File D:\git\src\IBK\IBK_DRFN\ProjSrc\SrcChartEx\ChartOCX\IndicatorCondition\IndicatorConditionBaseData.cpp

; 282  : 		m_calConditionList.AddTail(sourceData.GetNext(pos));

  0005c	f2 0f 11 45 f8	 movsd	 QWORD PTR _newElement$1$[ebp], xmm0
; File C:\Program Files (x86)\Microsoft Visual Studio\2019\Community\VC\Tools\MSVC\14.29.30133\atlmfc\include\afxtempl.h

; 902  : 	if (m_pNodeFree == NULL)

  00061	85 d2		 test	 edx, edx
  00063	75 48		 jne	 SHORT $LN42@CopyCondit

; 903  : 	{
; 904  : 		// add another block
; 905  : 		CPlex* pNewBlock = CPlex::Create(m_pBlocks, m_nBlockSize,

  00065	6a 10		 push	 16			; 00000010H
  00067	ff 76 20	 push	 DWORD PTR [esi+32]
  0006a	57		 push	 edi
  0006b	e8 00 00 00 00	 call	 ?Create@CPlex@@SGPAU1@AAPAU1@II@Z ; CPlex::Create

; 906  : 				 sizeof(CNode));
; 907  : 
; 908  : 		// chain them into free list
; 909  : 		CNode* pNode = (CNode*) pNewBlock->data();
; 910  : 		// free in reverse order to make it easier to debug
; 911  : 		pNode += m_nBlockSize - 1;

  00070	8b 56 20	 mov	 edx, DWORD PTR [esi+32]
  00073	83 c0 08	 add	 eax, 8
  00076	8b ca		 mov	 ecx, edx
  00078	c1 e1 04	 shl	 ecx, 4
  0007b	83 c1 f0	 add	 ecx, -16		; fffffff0H

; 912  : 		for (INT_PTR i = m_nBlockSize-1; i >= 0; i--, pNode--)

  0007e	8d 7a ff	 lea	 edi, DWORD PTR [edx-1]
  00081	03 c8		 add	 ecx, eax
  00083	85 ff		 test	 edi, edi
  00085	78 14		 js	 SHORT $LN43@CopyCondit
$LL19@CopyCondit:

; 913  : 		{
; 914  : 			pNode->pNext = m_pNodeFree;

  00087	8b 46 18	 mov	 eax, DWORD PTR [esi+24]
  0008a	8b d1		 mov	 edx, ecx
  0008c	89 01		 mov	 DWORD PTR [ecx], eax

; 915  : 			m_pNodeFree = pNode;

  0008e	89 4e 18	 mov	 DWORD PTR [esi+24], ecx
  00091	83 e9 10	 sub	 ecx, 16			; 00000010H
  00094	83 ef 01	 sub	 edi, 1
  00097	79 ee		 jns	 SHORT $LL19@CopyCondit
  00099	eb 03		 jmp	 SHORT $LN22@CopyCondit
$LN43@CopyCondit:
  0009b	8b 56 18	 mov	 edx, DWORD PTR [esi+24]
$LN22@CopyCondit:

; 918  : 	ENSURE(m_pNodeFree != NULL);  // we must have something

  0009e	85 d2		 test	 edx, edx
  000a0	74 48		 je	 SHORT $LN31@CopyCondit
  000a2	f2 0f 10 45 f8	 movsd	 xmm0, QWORD PTR _newElement$1$[ebp]
  000a7	8d 7e 1c	 lea	 edi, DWORD PTR [esi+28]
  000aa	8b 4d 08	 mov	 ecx, DWORD PTR $T1[ebp]
$LN42@CopyCondit:

; 919  : 
; 920  : 	CList::CNode* pNode = m_pNodeFree;
; 921  : 	m_pNodeFree = m_pNodeFree->pNext;

  000ad	8b 02		 mov	 eax, DWORD PTR [edx]
  000af	89 46 18	 mov	 DWORD PTR [esi+24], eax

; 922  : 	pNode->pPrev = pPrev;

  000b2	89 4a 04	 mov	 DWORD PTR [edx+4], ecx

; 923  : 	pNode->pNext = pNext;

  000b5	c7 02 00 00 00
	00		 mov	 DWORD PTR [edx], 0

; 924  : 	m_nCount++;

  000bb	ff 46 14	 inc	 DWORD PTR [esi+20]

; 969  : 	pNewNode->data = newElement;

  000be	f2 0f 11 42 08	 movsd	 QWORD PTR [edx+8], xmm0

; 970  : 	if (m_pNodeTail != NULL)

  000c3	8b 46 10	 mov	 eax, DWORD PTR [esi+16]
  000c6	85 c0		 test	 eax, eax
  000c8	74 04		 je	 SHORT $LN13@CopyCondit

; 971  : 		m_pNodeTail->pNext = pNewNode;

  000ca	89 10		 mov	 DWORD PTR [eax], edx
  000cc	eb 03		 jmp	 SHORT $LN14@CopyCondit
$LN13@CopyCondit:

; 972  : 	else
; 973  : 		m_pNodeHead = pNewNode;

  000ce	89 56 0c	 mov	 DWORD PTR [esi+12], edx
$LN14@CopyCondit:

; 974  : 	m_pNodeTail = pNewNode;

  000d1	89 56 10	 mov	 DWORD PTR [esi+16], edx
  000d4	8b ca		 mov	 ecx, edx
  000d6	89 55 08	 mov	 DWORD PTR $T1[ebp], edx
; File D:\git\src\IBK\IBK_DRFN\ProjSrc\SrcChartEx\ChartOCX\IndicatorCondition\IndicatorConditionBaseData.cpp

; 280  : 	while(pos != NULL)

  000d9	85 db		 test	 ebx, ebx
  000db	0f 85 6f ff ff
	ff		 jne	 $LL2@CopyCondit
$LN45@CopyCondit:
  000e1	5f		 pop	 edi

; 284  : }

  000e2	5e		 pop	 esi
  000e3	5b		 pop	 ebx
  000e4	8b e5		 mov	 esp, ebp
  000e6	5d		 pop	 ebp
  000e7	c2 04 00	 ret	 4
$LN31@CopyCondit:
; File C:\Program Files (x86)\Microsoft Visual Studio\2019\Community\VC\Tools\MSVC\14.29.30133\atlmfc\include\afxtempl.h

; 918  : 	ENSURE(m_pNodeFree != NULL);  // we must have something

  000ea	e8 00 00 00 00	 call	 ?AfxThrowInvalidArgException@@YGXXZ ; AfxThrowInvalidArgException
$LN46@CopyCondit:
  000ef	cc		 int	 3
?CopyConditionList@CSubGraphPartData@@AAEXABV?$CList@NN@@@Z ENDP ; CSubGraphPartData::CopyConditionList
_TEXT	ENDS
; Function compile flags: /Ogtp
; File D:\git\src\IBK\IBK_DRFN\ProjSrc\SrcChartEx\ChartOCX\IndicatorCondition\IndicatorConditionBaseData.cpp
; File C:\Program Files (x86)\Microsoft Visual Studio\2019\Community\VC\Tools\MSVC\14.29.30133\atlmfc\include\atlsimpstr.h
; File D:\git\src\IBK\IBK_DRFN\ProjSrc\SrcChartEx\ChartOCX\IndicatorCondition\IndicatorConditionBaseData.cpp
; File C:\Program Files (x86)\Microsoft Visual Studio\2019\Community\VC\Tools\MSVC\14.29.30133\atlmfc\include\cstringt.h
; File D:\git\src\IBK\IBK_DRFN\ProjSrc\SrcChartEx\ChartOCX\IndicatorCondition\IndicatorConditionBaseData.cpp
; File C:\Program Files (x86)\Microsoft Visual Studio\2019\Community\VC\Tools\MSVC\14.29.30133\atlmfc\include\afxtempl.h
; File D:\git\src\IBK\IBK_DRFN\ProjSrc\SrcChartEx\ChartOCX\IndicatorCondition\IndicatorConditionBaseData.cpp
;	COMDAT ?ChangeCalConditionDataFromSubGraphTitle@CSubGraphPartData@@QAE_NXZ
_TEXT	SEGMENT
_dData$ = -24						; size = 8
_strTitle$ = -16					; size = 4
__$EHRec$ = -12						; size = 12
?ChangeCalConditionDataFromSubGraphTitle@CSubGraphPartData@@QAE_NXZ PROC ; CSubGraphPartData::ChangeCalConditionDataFromSubGraphTitle, COMDAT
; _this$ = ecx

; 256  : {

  00000	55		 push	 ebp
  00001	8b ec		 mov	 ebp, esp
  00003	6a ff		 push	 -1
  00005	68 00 00 00 00	 push	 __ehhandler$?ChangeCalConditionDataFromSubGraphTitle@CSubGraphPartData@@QAE_NXZ
  0000a	64 a1 00 00 00
	00		 mov	 eax, DWORD PTR fs:0
  00010	50		 push	 eax
  00011	83 ec 0c	 sub	 esp, 12			; 0000000cH
  00014	53		 push	 ebx
  00015	56		 push	 esi
  00016	a1 00 00 00 00	 mov	 eax, DWORD PTR ___security_cookie
  0001b	33 c5		 xor	 eax, ebp
  0001d	50		 push	 eax
  0001e	8d 45 f4	 lea	 eax, DWORD PTR __$EHRec$[ebp]
  00021	64 a3 00 00 00
	00		 mov	 DWORD PTR fs:0, eax
  00027	8b f1		 mov	 esi, ecx

; 257  : 	if(m_calConditionList.GetCount() <= 0)

  00029	83 7e 14 00	 cmp	 DWORD PTR [esi+20], 0
  0002d	7f 13		 jg	 SHORT $LN2@ChangeCalC

; 258  : 		return false;

  0002f	32 c0		 xor	 al, al

; 271  : }

  00031	8b 4d f4	 mov	 ecx, DWORD PTR __$EHRec$[ebp]
  00034	64 89 0d 00 00
	00 00		 mov	 DWORD PTR fs:0, ecx
  0003b	59		 pop	 ecx
  0003c	5e		 pop	 esi
  0003d	5b		 pop	 ebx
  0003e	8b e5		 mov	 esp, ebp
  00040	5d		 pop	 ebp
  00041	c3		 ret	 0
$LN2@ChangeCalC:

; 259  : 
; 260  : 	CString strTitle = m_subGraphData.GetTitle();

  00042	8d 45 f0	 lea	 eax, DWORD PTR _strTitle$[ebp]
  00045	50		 push	 eax
  00046	8d 4e 24	 lea	 ecx, DWORD PTR [esi+36]
  00049	e8 00 00 00 00	 call	 ?GetTitle@CSubGraphDataBase@@QBE?AV?$CStringT@DV?$StrTraitMFC_DLL@DV?$ChTraitsCRT@D@ATL@@@@@ATL@@XZ ; CSubGraphDataBase::GetTitle

; 261  : 	strTitle.TrimLeft(" ");

  0004e	68 00 00 00 00	 push	 OFFSET ??_C@_01CLKCMJKC@?5@
  00053	8d 4d f0	 lea	 ecx, DWORD PTR _strTitle$[ebp]
  00056	c7 45 fc 00 00
	00 00		 mov	 DWORD PTR __$EHRec$[ebp+8], 0
  0005d	ff 15 00 00 00
	00		 call	 DWORD PTR __imp_?TrimLeft@?$CStringT@DV?$StrTraitMFC_DLL@DV?$ChTraitsCRT@D@ATL@@@@@ATL@@QAEAAV12@PBD@Z

; 262  : 	strTitle.TrimRight(" ");

  00063	68 00 00 00 00	 push	 OFFSET ??_C@_01CLKCMJKC@?5@
  00068	8d 4d f0	 lea	 ecx, DWORD PTR _strTitle$[ebp]
  0006b	ff 15 00 00 00
	00		 call	 DWORD PTR __imp_?TrimRight@?$CStringT@DV?$StrTraitMFC_DLL@DV?$ChTraitsCRT@D@ATL@@@@@ATL@@QAEAAV12@PBD@Z
; File C:\Program Files (x86)\Microsoft Visual Studio\2019\Community\VC\Tools\MSVC\14.29.30133\atlmfc\include\atlsimpstr.h

; 533  : 		return( GetLength() == 0 );

  00071	8b 45 f0	 mov	 eax, DWORD PTR _strTitle$[ebp]
  00074	83 78 f4 00	 cmp	 DWORD PTR [eax-12], 0
; File D:\git\src\IBK\IBK_DRFN\ProjSrc\SrcChartEx\ChartOCX\IndicatorCondition\IndicatorConditionBaseData.cpp

; 263  : 	if(strTitle.IsEmpty())

  00078	74 4d		 je	 SHORT $LN7@ChangeCalC

; 264  : 		return false;
; 265  : 
; 266  : 	double dData = atof(strTitle);

  0007a	50		 push	 eax
  0007b	ff 15 00 00 00
	00		 call	 DWORD PTR __imp__atof
  00081	dd 5d e8	 fstp	 QWORD PTR _dData$[ebp]

; 267  : 	if(dData == 0.0 && strTitle != "0")

  00084	f2 0f 10 45 e8	 movsd	 xmm0, QWORD PTR _dData$[ebp]
  00089	83 c4 04	 add	 esp, 4
  0008c	66 0f 2e 05 00
	00 00 00	 ucomisd xmm0, QWORD PTR __real@0000000000000000
  00094	9f		 lahf
  00095	f6 c4 44	 test	 ah, 68			; 00000044H
  00098	7a 17		 jp	 SHORT $LN4@ChangeCalC
; File C:\Program Files (x86)\Microsoft Visual Studio\2019\Community\VC\Tools\MSVC\14.29.30133\atlmfc\include\cstringt.h

; 2567 : 		return( str1.Compare( psz2 ) != 0 );

  0009a	68 00 00 00 00	 push	 OFFSET ??_C@_01GBGANLPD@0@
  0009f	8d 4d f0	 lea	 ecx, DWORD PTR _strTitle$[ebp]
  000a2	ff 15 00 00 00
	00		 call	 DWORD PTR __imp_?Compare@?$CStringT@DV?$StrTraitMFC_DLL@DV?$ChTraitsCRT@D@ATL@@@@@ATL@@QBEHPBD@Z
  000a8	85 c0		 test	 eax, eax
; File D:\git\src\IBK\IBK_DRFN\ProjSrc\SrcChartEx\ChartOCX\IndicatorCondition\IndicatorConditionBaseData.cpp

; 267  : 	if(dData == 0.0 && strTitle != "0")

  000aa	75 1b		 jne	 SHORT $LN7@ChangeCalC
  000ac	f2 0f 10 45 e8	 movsd	 xmm0, QWORD PTR _dData$[ebp]
$LN4@ChangeCalC:
; File C:\Program Files (x86)\Microsoft Visual Studio\2019\Community\VC\Tools\MSVC\14.29.30133\atlmfc\include\afxtempl.h

; 1133 : 	if (nIndex >= m_nCount || nIndex < 0)

  000b1	83 7e 14 00	 cmp	 DWORD PTR [esi+20], 0
  000b5	7e 10		 jle	 SHORT $LN7@ChangeCalC

; 1134 : 		return NULL;  // went too far
; 1135 : 
; 1136 : 	CNode* pNode = m_pNodeHead;

  000b7	8b 46 0c	 mov	 eax, DWORD PTR [esi+12]
; File D:\git\src\IBK\IBK_DRFN\ProjSrc\SrcChartEx\ChartOCX\IndicatorCondition\IndicatorConditionBaseData.cpp

; 246  : 	if(pos == NULL)

  000ba	85 c0		 test	 eax, eax
  000bc	74 09		 je	 SHORT $LN7@ChangeCalC

; 247  : 		return false;
; 248  : 
; 249  : 	m_calConditionList.SetAt(pos, dData);

  000be	f2 0f 11 40 08	 movsd	 QWORD PTR [eax+8], xmm0

; 250  : 	return true;

  000c3	b3 01		 mov	 bl, 1
  000c5	eb 02		 jmp	 SHORT $LN19@ChangeCalC
$LN7@ChangeCalC:

; 268  : 		return false;
; 269  : 
; 270  : 	return SetCalConditionData(0, dData);

  000c7	32 db		 xor	 bl, bl
$LN19@ChangeCalC:
  000c9	8d 4d f0	 lea	 ecx, DWORD PTR _strTitle$[ebp]
  000cc	ff 15 00 00 00
	00		 call	 DWORD PTR __imp_??1?$CStringT@DV?$StrTraitMFC_DLL@DV?$ChTraitsCRT@D@ATL@@@@@ATL@@QAE@XZ
  000d2	8a c3		 mov	 al, bl

; 271  : }

  000d4	8b 4d f4	 mov	 ecx, DWORD PTR __$EHRec$[ebp]
  000d7	64 89 0d 00 00
	00 00		 mov	 DWORD PTR fs:0, ecx
  000de	59		 pop	 ecx
  000df	5e		 pop	 esi
  000e0	5b		 pop	 ebx
  000e1	8b e5		 mov	 esp, ebp
  000e3	5d		 pop	 ebp
  000e4	c3		 ret	 0
_TEXT	ENDS
;	COMDAT text$x
text$x	SEGMENT
__unwindfunclet$?ChangeCalConditionDataFromSubGraphTitle@CSubGraphPartData@@QAE_NXZ$0:
  00000	8d 4d f0	 lea	 ecx, DWORD PTR _strTitle$[ebp]
  00003	ff 25 00 00 00
	00		 jmp	 DWORD PTR __imp_??1?$CStringT@DV?$StrTraitMFC_DLL@DV?$ChTraitsCRT@D@ATL@@@@@ATL@@QAE@XZ
  00009	cc		 int	 3
  0000a	cc		 int	 3
  0000b	cc		 int	 3
  0000c	cc		 int	 3
  0000d	cc		 int	 3
__ehhandler$?ChangeCalConditionDataFromSubGraphTitle@CSubGraphPartData@@QAE_NXZ:
  0000e	90		 npad	 1
  0000f	90		 npad	 1
  00010	8b 54 24 08	 mov	 edx, DWORD PTR [esp+8]
  00014	8d 42 0c	 lea	 eax, DWORD PTR [edx+12]
  00017	8b 4a e8	 mov	 ecx, DWORD PTR [edx-24]
  0001a	33 c8		 xor	 ecx, eax
  0001c	e8 00 00 00 00	 call	 @__security_check_cookie@4
  00021	b8 00 00 00 00	 mov	 eax, OFFSET __ehfuncinfo$?ChangeCalConditionDataFromSubGraphTitle@CSubGraphPartData@@QAE_NXZ
  00026	e9 00 00 00 00	 jmp	 ___CxxFrameHandler3
text$x	ENDS
?ChangeCalConditionDataFromSubGraphTitle@CSubGraphPartData@@QAE_NXZ ENDP ; CSubGraphPartData::ChangeCalConditionDataFromSubGraphTitle
; Function compile flags: /Ogtp
; File D:\git\src\IBK\IBK_DRFN\ProjSrc\SrcChartEx\ChartOCX\IndicatorCondition\IndicatorConditionBaseData.cpp
; File C:\Program Files (x86)\Microsoft Visual Studio\2019\Community\VC\Tools\MSVC\14.29.30133\atlmfc\include\afxtempl.h
; File D:\git\src\IBK\IBK_DRFN\ProjSrc\SrcChartEx\ChartOCX\IndicatorCondition\IndicatorConditionBaseData.cpp
;	COMDAT ?SetCalConditionData@CSubGraphPartData@@QAE_NHABN@Z
_TEXT	SEGMENT
_nCondIndex$ = 8					; size = 4
_dData$ = 12						; size = 4
?SetCalConditionData@CSubGraphPartData@@QAE_NHABN@Z PROC ; CSubGraphPartData::SetCalConditionData, COMDAT
; _this$ = ecx

; 244  : {

  00000	55		 push	 ebp
  00001	8b ec		 mov	 ebp, esp

; 245  : 	POSITION pos = m_calConditionList.FindIndex(nCondIndex);

  00003	8b 45 08	 mov	 eax, DWORD PTR _nCondIndex$[ebp]
; File C:\Program Files (x86)\Microsoft Visual Studio\2019\Community\VC\Tools\MSVC\14.29.30133\atlmfc\include\afxtempl.h

; 1133 : 	if (nIndex >= m_nCount || nIndex < 0)

  00006	3b 41 14	 cmp	 eax, DWORD PTR [ecx+20]
  00009	7d 26		 jge	 SHORT $LN15@SetCalCond
  0000b	85 c0		 test	 eax, eax
  0000d	78 22		 js	 SHORT $LN15@SetCalCond

; 1134 : 		return NULL;  // went too far
; 1135 : 
; 1136 : 	CNode* pNode = m_pNodeHead;

  0000f	8b 49 0c	 mov	 ecx, DWORD PTR [ecx+12]

; 1137 : 	while (nIndex--)

  00012	74 07		 je	 SHORT $LN11@SetCalCond
$LL5@SetCalCond:

; 1138 : 	{
; 1139 : 		ASSERT(AfxIsValidAddress(pNode, sizeof(CNode)));
; 1140 : 		pNode = pNode->pNext;

  00014	8b 09		 mov	 ecx, DWORD PTR [ecx]
  00016	83 e8 01	 sub	 eax, 1
  00019	75 f9		 jne	 SHORT $LL5@SetCalCond
$LN11@SetCalCond:
; File D:\git\src\IBK\IBK_DRFN\ProjSrc\SrcChartEx\ChartOCX\IndicatorCondition\IndicatorConditionBaseData.cpp

; 246  : 	if(pos == NULL)

  0001b	85 c9		 test	 ecx, ecx
  0001d	74 12		 je	 SHORT $LN15@SetCalCond

; 248  : 
; 249  : 	m_calConditionList.SetAt(pos, dData);

  0001f	8b 45 0c	 mov	 eax, DWORD PTR _dData$[ebp]
  00022	f2 0f 10 00	 movsd	 xmm0, QWORD PTR [eax]

; 250  : 	return true;

  00026	b0 01		 mov	 al, 1
  00028	f2 0f 11 41 08	 movsd	 QWORD PTR [ecx+8], xmm0

; 251  : }

  0002d	5d		 pop	 ebp
  0002e	c2 08 00	 ret	 8
$LN15@SetCalCond:

; 247  : 		return false;

  00031	32 c0		 xor	 al, al

; 251  : }

  00033	5d		 pop	 ebp
  00034	c2 08 00	 ret	 8
?SetCalConditionData@CSubGraphPartData@@QAE_NHABN@Z ENDP ; CSubGraphPartData::SetCalConditionData
_TEXT	ENDS
; Function compile flags: /Ogtp
; File D:\git\src\IBK\IBK_DRFN\ProjSrc\SrcChartEx\ChartOCX\IndicatorCondition\IndicatorConditionBaseData.cpp
; File C:\Program Files (x86)\Microsoft Visual Studio\2019\Community\VC\Tools\MSVC\14.29.30133\atlmfc\include\afxtempl.h
; File D:\git\src\IBK\IBK_DRFN\ProjSrc\SrcChartEx\ChartOCX\IndicatorCondition\IndicatorConditionBaseData.cpp
; File C:\Program Files (x86)\Microsoft Visual Studio\2019\Community\VC\Tools\MSVC\14.29.30133\atlmfc\include\afxtempl.h
; File D:\git\src\IBK\IBK_DRFN\ProjSrc\SrcChartEx\ChartOCX\IndicatorCondition\IndicatorConditionBaseData.cpp
; File C:\Program Files (x86)\Microsoft Visual Studio\2019\Community\VC\Tools\MSVC\14.29.30133\atlmfc\include\afxtempl.h
; File D:\git\src\IBK\IBK_DRFN\ProjSrc\SrcChartEx\ChartOCX\IndicatorCondition\IndicatorConditionBaseData.cpp
; File C:\Program Files (x86)\Microsoft Visual Studio\2019\Community\VC\Tools\MSVC\14.29.30133\atlmfc\include\atlsimpstr.h
; File D:\git\src\IBK\IBK_DRFN\ProjSrc\SrcChartEx\ChartOCX\IndicatorCondition\IndicatorConditionBaseData.cpp
; File C:\Program Files (x86)\Microsoft Visual Studio\2019\Community\VC\Tools\MSVC\14.29.30133\atlmfc\include\atlsimpstr.h
; File D:\git\src\IBK\IBK_DRFN\ProjSrc\SrcChartEx\ChartOCX\IndicatorCondition\IndicatorConditionBaseData.cpp
; File C:\Program Files (x86)\Microsoft Visual Studio\2019\Community\VC\Tools\MSVC\14.29.30133\atlmfc\include\atlsimpstr.h
; File D:\git\src\IBK\IBK_DRFN\ProjSrc\SrcChartEx\ChartOCX\IndicatorCondition\IndicatorConditionBaseData.cpp
; File C:\Program Files (x86)\Microsoft Visual Studio\2019\Community\VC\Tools\MSVC\14.29.30133\atlmfc\include\cstringt.h
; File D:\git\src\IBK\IBK_DRFN\ProjSrc\SrcChartEx\ChartOCX\IndicatorCondition\IndicatorConditionBaseData.cpp
; File C:\Program Files (x86)\Microsoft Visual Studio\2019\Community\VC\Tools\MSVC\14.29.30133\atlmfc\include\cstringt.h
; File D:\git\src\IBK\IBK_DRFN\ProjSrc\SrcChartEx\ChartOCX\IndicatorCondition\IndicatorConditionBaseData.cpp
; File C:\Program Files (x86)\Microsoft Visual Studio\2019\Community\VC\Tools\MSVC\14.29.30133\atlmfc\include\cstringt.h
; File D:\git\src\IBK\IBK_DRFN\ProjSrc\SrcChartEx\ChartOCX\IndicatorCondition\IndicatorConditionBaseData.cpp
; File C:\Program Files (x86)\Microsoft Visual Studio\2019\Community\VC\Tools\MSVC\14.29.30133\atlmfc\include\atlsimpstr.h
; File D:\git\src\IBK\IBK_DRFN\ProjSrc\SrcChartEx\ChartOCX\IndicatorCondition\IndicatorConditionBaseData.cpp
; File C:\Program Files (x86)\Microsoft Visual Studio\2019\Community\VC\Tools\MSVC\14.29.30133\atlmfc\include\atlsimpstr.h
; File D:\git\src\IBK\IBK_DRFN\ProjSrc\SrcChartEx\ChartOCX\IndicatorCondition\IndicatorConditionBaseData.cpp
;	COMDAT ?SetConditionList@CSubGraphPartData@@QAEXPBDABV?$CStringT@DV?$StrTraitMFC_DLL@DV?$ChTraitsCRT@D@ATL@@@@@ATL@@@Z
_TEXT	SEGMENT
_dData$2 = -24						; size = 8
_strTemp$ = -16						; size = 4
__$EHRec$ = -12						; size = 12
_strRealData$3 = 8					; size = 4
$T4 = 8							; size = 4
_p_szData$ = 8						; size = 4
_strCompart$ = 12					; size = 4
?SetConditionList@CSubGraphPartData@@QAEXPBDABV?$CStringT@DV?$StrTraitMFC_DLL@DV?$ChTraitsCRT@D@ATL@@@@@ATL@@@Z PROC ; CSubGraphPartData::SetConditionList, COMDAT
; _this$ = ecx

; 218  : {

  00000	55		 push	 ebp
  00001	8b ec		 mov	 ebp, esp
  00003	6a ff		 push	 -1
  00005	68 00 00 00 00	 push	 __ehhandler$?SetConditionList@CSubGraphPartData@@QAEXPBDABV?$CStringT@DV?$StrTraitMFC_DLL@DV?$ChTraitsCRT@D@ATL@@@@@ATL@@@Z
  0000a	64 a1 00 00 00
	00		 mov	 eax, DWORD PTR fs:0
  00010	50		 push	 eax
  00011	83 ec 0c	 sub	 esp, 12			; 0000000cH
  00014	53		 push	 ebx
  00015	56		 push	 esi
  00016	57		 push	 edi
  00017	a1 00 00 00 00	 mov	 eax, DWORD PTR ___security_cookie
  0001c	33 c5		 xor	 eax, ebp
  0001e	50		 push	 eax
  0001f	8d 45 f4	 lea	 eax, DWORD PTR __$EHRec$[ebp]
  00022	64 a3 00 00 00
	00		 mov	 DWORD PTR fs:0, eax
  00028	8b f1		 mov	 esi, ecx
; File C:\Program Files (x86)\Microsoft Visual Studio\2019\Community\VC\Tools\MSVC\14.29.30133\atlmfc\include\afxtempl.h

; 872  : 	m_pBlocks->FreeDataChain();

  0002a	8b 4e 1c	 mov	 ecx, DWORD PTR [esi+28]
; File D:\git\src\IBK\IBK_DRFN\ProjSrc\SrcChartEx\ChartOCX\IndicatorCondition\IndicatorConditionBaseData.cpp

; 219  : 	m_calConditionList.RemoveAll();

  0002d	8d 5e 08	 lea	 ebx, DWORD PTR [esi+8]
; File C:\Program Files (x86)\Microsoft Visual Studio\2019\Community\VC\Tools\MSVC\14.29.30133\atlmfc\include\afxtempl.h

; 870  : 	m_nCount = 0;

  00030	c7 46 14 00 00
	00 00		 mov	 DWORD PTR [esi+20], 0

; 871  : 	m_pNodeHead = m_pNodeTail = m_pNodeFree = NULL;

  00037	c7 46 18 00 00
	00 00		 mov	 DWORD PTR [esi+24], 0
  0003e	c7 46 10 00 00
	00 00		 mov	 DWORD PTR [esi+16], 0
  00045	c7 46 0c 00 00
	00 00		 mov	 DWORD PTR [esi+12], 0

; 872  : 	m_pBlocks->FreeDataChain();

  0004c	e8 00 00 00 00	 call	 ?FreeDataChain@CPlex@@QAEXXZ ; CPlex::FreeDataChain
; File D:\git\src\IBK\IBK_DRFN\ProjSrc\SrcChartEx\ChartOCX\IndicatorCondition\IndicatorConditionBaseData.cpp

; 220  : 	if( !p_szData) return;

  00051	8b 55 08	 mov	 edx, DWORD PTR _p_szData$[ebp]
; File C:\Program Files (x86)\Microsoft Visual Studio\2019\Community\VC\Tools\MSVC\14.29.30133\atlmfc\include\afxtempl.h

; 873  : 	m_pBlocks = NULL;

  00054	c7 46 1c 00 00
	00 00		 mov	 DWORD PTR [esi+28], 0
; File D:\git\src\IBK\IBK_DRFN\ProjSrc\SrcChartEx\ChartOCX\IndicatorCondition\IndicatorConditionBaseData.cpp

; 220  : 	if( !p_szData) return;

  0005b	85 d2		 test	 edx, edx
  0005d	0f 84 e6 00 00
	00		 je	 $LN1@SetConditi

; 221  : 	if( !*p_szData) return;

  00063	80 3a 00	 cmp	 BYTE PTR [edx], 0
  00066	0f 84 dd 00 00
	00		 je	 $LN1@SetConditi
; File C:\Program Files (x86)\Microsoft Visual Studio\2019\Community\VC\Tools\MSVC\14.29.30133\atlmfc\include\atlsimpstr.h

; 519  : 		return( GetData()->nDataLength );

  0006c	8b 7d 0c	 mov	 edi, DWORD PTR _strCompart$[ebp]
; File D:\git\src\IBK\IBK_DRFN\ProjSrc\SrcChartEx\ChartOCX\IndicatorCondition\IndicatorConditionBaseData.cpp

; 224  : 	if(strCompart.IsEmpty())

  0006f	52		 push	 edx
; File C:\Program Files (x86)\Microsoft Visual Studio\2019\Community\VC\Tools\MSVC\14.29.30133\atlmfc\include\atlsimpstr.h

; 519  : 		return( GetData()->nDataLength );

  00070	8b 07		 mov	 eax, DWORD PTR [edi]

; 533  : 		return( GetLength() == 0 );

  00072	83 78 f4 00	 cmp	 DWORD PTR [eax-12], 0
; File D:\git\src\IBK\IBK_DRFN\ProjSrc\SrcChartEx\ChartOCX\IndicatorCondition\IndicatorConditionBaseData.cpp

; 224  : 	if(strCompart.IsEmpty())

  00076	75 2f		 jne	 SHORT $LN6@SetConditi

; 225  : 	{
; 226  : 		double dData = atof( p_szData);

  00078	ff 15 00 00 00
	00		 call	 DWORD PTR __imp__atof
  0007e	dd 5d e8	 fstp	 QWORD PTR _dData$2[ebp]

; 227  : 		m_calConditionList.AddTail(dData);

  00081	f2 0f 10 45 e8	 movsd	 xmm0, QWORD PTR _dData$2[ebp]
  00086	51		 push	 ecx
  00087	8b cb		 mov	 ecx, ebx
  00089	f2 0f 11 04 24	 movsd	 QWORD PTR [esp], xmm0
  0008e	e8 00 00 00 00	 call	 ?AddTail@?$CList@NN@@QAEPAU__POSITION@@N@Z ; CList<double,double>::AddTail

; 241  : }

  00093	8b 4d f4	 mov	 ecx, DWORD PTR __$EHRec$[ebp]
  00096	64 89 0d 00 00
	00 00		 mov	 DWORD PTR fs:0, ecx
  0009d	59		 pop	 ecx
  0009e	5f		 pop	 edi
  0009f	5e		 pop	 esi
  000a0	5b		 pop	 ebx
  000a1	8b e5		 mov	 esp, ebp
  000a3	5d		 pop	 ebp
  000a4	c2 08 00	 ret	 8
$LN6@SetConditi:

; 228  : 		return;
; 229  : 	}
; 230  : 
; 231  : 	// data   
; 232  : 	CString strTemp = p_szData;

  000a7	8d 4d f0	 lea	 ecx, DWORD PTR _strTemp$[ebp]
  000aa	ff 15 00 00 00
	00		 call	 DWORD PTR __imp_??0?$CStringT@DV?$StrTraitMFC_DLL@DV?$ChTraitsCRT@D@ATL@@@@@ATL@@QAE@PBD@Z
; File C:\Program Files (x86)\Microsoft Visual Studio\2019\Community\VC\Tools\MSVC\14.29.30133\atlmfc\include\atlsimpstr.h

; 519  : 		return( GetData()->nDataLength );

  000b0	8b 07		 mov	 eax, DWORD PTR [edi]
; File D:\git\src\IBK\IBK_DRFN\ProjSrc\SrcChartEx\ChartOCX\IndicatorCondition\IndicatorConditionBaseData.cpp

; 233  : 	if(strTemp.Right(strCompart.GetLength()) != strCompart)

  000b2	8d 4d f0	 lea	 ecx, DWORD PTR _strTemp$[ebp]
  000b5	c7 45 fc 00 00
	00 00		 mov	 DWORD PTR __$EHRec$[ebp+8], 0
  000bc	ff 70 f4	 push	 DWORD PTR [eax-12]
  000bf	8d 45 08	 lea	 eax, DWORD PTR $T4[ebp]
  000c2	50		 push	 eax
  000c3	ff 15 00 00 00
	00		 call	 DWORD PTR __imp_?Right@?$CStringT@DV?$StrTraitMFC_DLL@DV?$ChTraitsCRT@D@ATL@@@@@ATL@@QBE?AV12@H@Z
; File C:\Program Files (x86)\Microsoft Visual Studio\2019\Community\VC\Tools\MSVC\14.29.30133\atlmfc\include\cstringt.h

; 2560 : 		return( str1.Compare( str2 ) != 0 );

  000c9	ff 37		 push	 DWORD PTR [edi]
  000cb	8b c8		 mov	 ecx, eax
; File D:\git\src\IBK\IBK_DRFN\ProjSrc\SrcChartEx\ChartOCX\IndicatorCondition\IndicatorConditionBaseData.cpp

; 233  : 	if(strTemp.Right(strCompart.GetLength()) != strCompart)

  000cd	c6 45 fc 01	 mov	 BYTE PTR __$EHRec$[ebp+8], 1
; File C:\Program Files (x86)\Microsoft Visual Studio\2019\Community\VC\Tools\MSVC\14.29.30133\atlmfc\include\cstringt.h

; 2560 : 		return( str1.Compare( str2 ) != 0 );

  000d1	ff 15 00 00 00
	00		 call	 DWORD PTR __imp_?Compare@?$CStringT@DV?$StrTraitMFC_DLL@DV?$ChTraitsCRT@D@ATL@@@@@ATL@@QBEHPBD@Z
; File D:\git\src\IBK\IBK_DRFN\ProjSrc\SrcChartEx\ChartOCX\IndicatorCondition\IndicatorConditionBaseData.cpp

; 233  : 	if(strTemp.Right(strCompart.GetLength()) != strCompart)

  000d7	8d 4d 08	 lea	 ecx, DWORD PTR $T4[ebp]
  000da	c6 45 fc 00	 mov	 BYTE PTR __$EHRec$[ebp+8], 0
; File C:\Program Files (x86)\Microsoft Visual Studio\2019\Community\VC\Tools\MSVC\14.29.30133\atlmfc\include\cstringt.h

; 2560 : 		return( str1.Compare( str2 ) != 0 );

  000de	8b f0		 mov	 esi, eax
; File D:\git\src\IBK\IBK_DRFN\ProjSrc\SrcChartEx\ChartOCX\IndicatorCondition\IndicatorConditionBaseData.cpp

; 233  : 	if(strTemp.Right(strCompart.GetLength()) != strCompart)

  000e0	ff 15 00 00 00
	00		 call	 DWORD PTR __imp_??1?$CStringT@DV?$StrTraitMFC_DLL@DV?$ChTraitsCRT@D@ATL@@@@@ATL@@QAE@XZ
  000e6	85 f6		 test	 esi, esi
  000e8	74 0a		 je	 SHORT $LN40@SetConditi

; 234  : 		strTemp += strCompart;

  000ea	57		 push	 edi
  000eb	8d 4d f0	 lea	 ecx, DWORD PTR _strTemp$[ebp]
  000ee	ff 15 00 00 00
	00		 call	 DWORD PTR __imp_??Y?$CStringT@DV?$StrTraitMFC_DLL@DV?$ChTraitsCRT@D@ATL@@@@@ATL@@QAEAAV01@ABV?$CSimpleStringT@D$00@1@@Z
$LN40@SetConditi:
; File C:\Program Files (x86)\Microsoft Visual Studio\2019\Community\VC\Tools\MSVC\14.29.30133\atlmfc\include\atlsimpstr.h

; 519  : 		return( GetData()->nDataLength );

  000f4	8b 45 f0	 mov	 eax, DWORD PTR _strTemp$[ebp]

; 533  : 		return( GetLength() == 0 );

  000f7	83 78 f4 00	 cmp	 DWORD PTR [eax-12], 0
; File D:\git\src\IBK\IBK_DRFN\ProjSrc\SrcChartEx\ChartOCX\IndicatorCondition\IndicatorConditionBaseData.cpp

; 236  : 	while(!strTemp.IsEmpty())

  000fb	74 43		 je	 SHORT $LN3@SetConditi
  000fd	0f 1f 00	 npad	 3
$LL2@SetConditi:

; 237  : 	{
; 238  : 		CString strRealData = CDataConversion::GetStringData(strTemp, strCompart);

  00100	6a 01		 push	 1
  00102	57		 push	 edi
  00103	8d 45 f0	 lea	 eax, DWORD PTR _strTemp$[ebp]
  00106	50		 push	 eax
  00107	8d 45 08	 lea	 eax, DWORD PTR _strRealData$3[ebp]
  0010a	50		 push	 eax
  0010b	e8 00 00 00 00	 call	 ?GetStringData@CDataConversion@@SA?AV?$CStringT@DV?$StrTraitMFC_DLL@DV?$ChTraitsCRT@D@ATL@@@@@ATL@@AAV23@ABV23@_N@Z ; CDataConversion::GetStringData

; 239  : 		m_calConditionList.AddTail(atof(strRealData));

  00110	ff 75 08	 push	 DWORD PTR _strRealData$3[ebp]
  00113	c6 45 fc 02	 mov	 BYTE PTR __$EHRec$[ebp+8], 2
  00117	ff 15 00 00 00
	00		 call	 DWORD PTR __imp__atof
  0011d	83 c4 0c	 add	 esp, 12			; 0000000cH
  00120	8b cb		 mov	 ecx, ebx
  00122	dd 1c 24	 fstp	 QWORD PTR [esp]
  00125	e8 00 00 00 00	 call	 ?AddTail@?$CList@NN@@QAEPAU__POSITION@@N@Z ; CList<double,double>::AddTail

; 240  : 	}

  0012a	8d 4d 08	 lea	 ecx, DWORD PTR _strRealData$3[ebp]
  0012d	c6 45 fc 00	 mov	 BYTE PTR __$EHRec$[ebp+8], 0
  00131	ff 15 00 00 00
	00		 call	 DWORD PTR __imp_??1?$CStringT@DV?$StrTraitMFC_DLL@DV?$ChTraitsCRT@D@ATL@@@@@ATL@@QAE@XZ
; File C:\Program Files (x86)\Microsoft Visual Studio\2019\Community\VC\Tools\MSVC\14.29.30133\atlmfc\include\atlsimpstr.h

; 533  : 		return( GetLength() == 0 );

  00137	8b 45 f0	 mov	 eax, DWORD PTR _strTemp$[ebp]
  0013a	83 78 f4 00	 cmp	 DWORD PTR [eax-12], 0
; File D:\git\src\IBK\IBK_DRFN\ProjSrc\SrcChartEx\ChartOCX\IndicatorCondition\IndicatorConditionBaseData.cpp

; 236  : 	while(!strTemp.IsEmpty())

  0013e	75 c0		 jne	 SHORT $LL2@SetConditi
$LN3@SetConditi:

; 241  : }

  00140	8d 4d f0	 lea	 ecx, DWORD PTR _strTemp$[ebp]
  00143	ff 15 00 00 00
	00		 call	 DWORD PTR __imp_??1?$CStringT@DV?$StrTraitMFC_DLL@DV?$ChTraitsCRT@D@ATL@@@@@ATL@@QAE@XZ
$LN1@SetConditi:
  00149	8b 4d f4	 mov	 ecx, DWORD PTR __$EHRec$[ebp]
  0014c	64 89 0d 00 00
	00 00		 mov	 DWORD PTR fs:0, ecx
  00153	59		 pop	 ecx
  00154	5f		 pop	 edi
  00155	5e		 pop	 esi
  00156	5b		 pop	 ebx
  00157	8b e5		 mov	 esp, ebp
  00159	5d		 pop	 ebp
  0015a	c2 08 00	 ret	 8
_TEXT	ENDS
;	COMDAT text$x
text$x	SEGMENT
__unwindfunclet$?SetConditionList@CSubGraphPartData@@QAEXPBDABV?$CStringT@DV?$StrTraitMFC_DLL@DV?$ChTraitsCRT@D@ATL@@@@@ATL@@@Z$0:
  00000	8d 4d f0	 lea	 ecx, DWORD PTR _strTemp$[ebp]
  00003	ff 25 00 00 00
	00		 jmp	 DWORD PTR __imp_??1?$CStringT@DV?$StrTraitMFC_DLL@DV?$ChTraitsCRT@D@ATL@@@@@ATL@@QAE@XZ
__unwindfunclet$?SetConditionList@CSubGraphPartData@@QAEXPBDABV?$CStringT@DV?$StrTraitMFC_DLL@DV?$ChTraitsCRT@D@ATL@@@@@ATL@@@Z$1:
  00009	8d 4d 08	 lea	 ecx, DWORD PTR $T4[ebp]
  0000c	ff 25 00 00 00
	00		 jmp	 DWORD PTR __imp_??1?$CStringT@DV?$StrTraitMFC_DLL@DV?$ChTraitsCRT@D@ATL@@@@@ATL@@QAE@XZ
__unwindfunclet$?SetConditionList@CSubGraphPartData@@QAEXPBDABV?$CStringT@DV?$StrTraitMFC_DLL@DV?$ChTraitsCRT@D@ATL@@@@@ATL@@@Z$2:
  00012	8d 4d 08	 lea	 ecx, DWORD PTR _strRealData$3[ebp]
  00015	ff 25 00 00 00
	00		 jmp	 DWORD PTR __imp_??1?$CStringT@DV?$StrTraitMFC_DLL@DV?$ChTraitsCRT@D@ATL@@@@@ATL@@QAE@XZ
  0001b	cc		 int	 3
  0001c	cc		 int	 3
  0001d	cc		 int	 3
  0001e	cc		 int	 3
  0001f	cc		 int	 3
__ehhandler$?SetConditionList@CSubGraphPartData@@QAEXPBDABV?$CStringT@DV?$StrTraitMFC_DLL@DV?$ChTraitsCRT@D@ATL@@@@@ATL@@@Z:
  00020	90		 npad	 1
  00021	90		 npad	 1
  00022	8b 54 24 08	 mov	 edx, DWORD PTR [esp+8]
  00026	8d 42 0c	 lea	 eax, DWORD PTR [edx+12]
  00029	8b 4a e4	 mov	 ecx, DWORD PTR [edx-28]
  0002c	33 c8		 xor	 ecx, eax
  0002e	e8 00 00 00 00	 call	 @__security_check_cookie@4
  00033	b8 00 00 00 00	 mov	 eax, OFFSET __ehfuncinfo$?SetConditionList@CSubGraphPartData@@QAEXPBDABV?$CStringT@DV?$StrTraitMFC_DLL@DV?$ChTraitsCRT@D@ATL@@@@@ATL@@@Z
  00038	e9 00 00 00 00	 jmp	 ___CxxFrameHandler3
text$x	ENDS
?SetConditionList@CSubGraphPartData@@QAEXPBDABV?$CStringT@DV?$StrTraitMFC_DLL@DV?$ChTraitsCRT@D@ATL@@@@@ATL@@@Z ENDP ; CSubGraphPartData::SetConditionList
; Function compile flags: /Ogtp
; File D:\git\src\IBK\IBK_DRFN\ProjSrc\SrcChartEx\ChartOCX\IndicatorCondition\IndicatorConditionBaseData.cpp
; File C:\Program Files (x86)\Microsoft Visual Studio\2019\Community\VC\Tools\MSVC\14.29.30133\atlmfc\include\atlsimpstr.h
; File D:\git\src\IBK\IBK_DRFN\ProjSrc\SrcChartEx\ChartOCX\IndicatorCondition\IndicatorConditionBaseData.cpp
; File C:\Program Files (x86)\Microsoft Visual Studio\2019\Community\VC\Tools\MSVC\14.29.30133\atlmfc\include\cstringt.h
; File D:\git\src\IBK\IBK_DRFN\ProjSrc\SrcChartEx\ChartOCX\IndicatorCondition\IndicatorConditionBaseData.cpp
;	COMDAT ?SetCalPacketNames@CSubGraphPartData@@QAE_NPBD_N@Z
_TEXT	SEGMENT
_p_szCalPacketNames$ = 8				; size = 4
_bIsAutoCheck$ = 12					; size = 1
?SetCalPacketNames@CSubGraphPartData@@QAE_NPBD_N@Z PROC	; CSubGraphPartData::SetCalPacketNames, COMDAT
; _this$ = ecx

; 212  : {

  00000	55		 push	 ebp
  00001	8b ec		 mov	 ebp, esp

; 213  : 	if( bIsAutoCheck && m_strCalPacketNames.IsEmpty()) return false;

  00003	80 7d 0c 00	 cmp	 BYTE PTR _bIsAutoCheck$[ebp], 0
  00007	56		 push	 esi
  00008	8d 71 04	 lea	 esi, DWORD PTR [ecx+4]
  0000b	74 0f		 je	 SHORT $LN15@SetCalPack
; File C:\Program Files (x86)\Microsoft Visual Studio\2019\Community\VC\Tools\MSVC\14.29.30133\atlmfc\include\atlsimpstr.h

; 533  : 		return( GetLength() == 0 );

  0000d	8b 06		 mov	 eax, DWORD PTR [esi]
  0000f	83 78 f4 00	 cmp	 DWORD PTR [eax-12], 0
; File D:\git\src\IBK\IBK_DRFN\ProjSrc\SrcChartEx\ChartOCX\IndicatorCondition\IndicatorConditionBaseData.cpp

; 213  : 	if( bIsAutoCheck && m_strCalPacketNames.IsEmpty()) return false;

  00013	75 07		 jne	 SHORT $LN15@SetCalPack
$LN16@SetCalPack:

; 214  : 	return SetCalPacketNames( p_szCalPacketNames);
; 215  : }

  00015	32 c0		 xor	 al, al
  00017	5e		 pop	 esi
  00018	5d		 pop	 ebp
  00019	c2 08 00	 ret	 8
$LN15@SetCalPack:
; File C:\Program Files (x86)\Microsoft Visual Studio\2019\Community\VC\Tools\MSVC\14.29.30133\atlmfc\include\cstringt.h

; 2486 : 		return(str1.Compare(psz2) == 0);

  0001c	ff 75 08	 push	 DWORD PTR _p_szCalPacketNames$[ebp]
  0001f	8b ce		 mov	 ecx, esi
  00021	ff 15 00 00 00
	00		 call	 DWORD PTR __imp_?Compare@?$CStringT@DV?$StrTraitMFC_DLL@DV?$ChTraitsCRT@D@ATL@@@@@ATL@@QBEHPBD@Z
  00027	85 c0		 test	 eax, eax
; File D:\git\src\IBK\IBK_DRFN\ProjSrc\SrcChartEx\ChartOCX\IndicatorCondition\IndicatorConditionBaseData.cpp

; 205  : 	if(m_strCalPacketNames == p_szCalPacketNames) return false;

  00029	74 ea		 je	 SHORT $LN16@SetCalPack

; 206  : 
; 207  : 	m_strCalPacketNames = p_szCalPacketNames;

  0002b	ff 75 08	 push	 DWORD PTR _p_szCalPacketNames$[ebp]
  0002e	8b ce		 mov	 ecx, esi
  00030	ff 15 00 00 00
	00		 call	 DWORD PTR __imp_??4?$CStringT@DV?$StrTraitMFC_DLL@DV?$ChTraitsCRT@D@ATL@@@@@ATL@@QAEAAV01@PBD@Z

; 208  : 	return true;

  00036	b0 01		 mov	 al, 1
  00038	5e		 pop	 esi

; 214  : 	return SetCalPacketNames( p_szCalPacketNames);
; 215  : }

  00039	5d		 pop	 ebp
  0003a	c2 08 00	 ret	 8
?SetCalPacketNames@CSubGraphPartData@@QAE_NPBD_N@Z ENDP	; CSubGraphPartData::SetCalPacketNames
_TEXT	ENDS
; Function compile flags: /Ogtp
; File D:\git\src\IBK\IBK_DRFN\ProjSrc\SrcChartEx\ChartOCX\IndicatorCondition\IndicatorConditionBaseData.cpp
; File C:\Program Files (x86)\Microsoft Visual Studio\2019\Community\VC\Tools\MSVC\14.29.30133\atlmfc\include\cstringt.h
; File D:\git\src\IBK\IBK_DRFN\ProjSrc\SrcChartEx\ChartOCX\IndicatorCondition\IndicatorConditionBaseData.cpp
; File C:\Program Files (x86)\Microsoft Visual Studio\2019\Community\VC\Tools\MSVC\14.29.30133\atlmfc\include\cstringt.h
; File D:\git\src\IBK\IBK_DRFN\ProjSrc\SrcChartEx\ChartOCX\IndicatorCondition\IndicatorConditionBaseData.cpp
;	COMDAT ?SetCalPacketNames@CSubGraphPartData@@QAE_NPBD@Z
_TEXT	SEGMENT
_p_szCalPacketNames$ = 8				; size = 4
?SetCalPacketNames@CSubGraphPartData@@QAE_NPBD@Z PROC	; CSubGraphPartData::SetCalPacketNames, COMDAT
; _this$ = ecx

; 204  : {

  00000	55		 push	 ebp
  00001	8b ec		 mov	 ebp, esp
  00003	56		 push	 esi
; File C:\Program Files (x86)\Microsoft Visual Studio\2019\Community\VC\Tools\MSVC\14.29.30133\atlmfc\include\cstringt.h

; 2486 : 		return(str1.Compare(psz2) == 0);

  00004	ff 75 08	 push	 DWORD PTR _p_szCalPacketNames$[ebp]
; File D:\git\src\IBK\IBK_DRFN\ProjSrc\SrcChartEx\ChartOCX\IndicatorCondition\IndicatorConditionBaseData.cpp

; 205  : 	if(m_strCalPacketNames == p_szCalPacketNames) return false;

  00007	8d 71 04	 lea	 esi, DWORD PTR [ecx+4]
; File C:\Program Files (x86)\Microsoft Visual Studio\2019\Community\VC\Tools\MSVC\14.29.30133\atlmfc\include\cstringt.h

; 2486 : 		return(str1.Compare(psz2) == 0);

  0000a	8b ce		 mov	 ecx, esi
  0000c	ff 15 00 00 00
	00		 call	 DWORD PTR __imp_?Compare@?$CStringT@DV?$StrTraitMFC_DLL@DV?$ChTraitsCRT@D@ATL@@@@@ATL@@QBEHPBD@Z
  00012	85 c0		 test	 eax, eax
; File D:\git\src\IBK\IBK_DRFN\ProjSrc\SrcChartEx\ChartOCX\IndicatorCondition\IndicatorConditionBaseData.cpp

; 205  : 	if(m_strCalPacketNames == p_szCalPacketNames) return false;

  00014	75 07		 jne	 SHORT $LN2@SetCalPack
  00016	32 c0		 xor	 al, al
  00018	5e		 pop	 esi

; 209  : }

  00019	5d		 pop	 ebp
  0001a	c2 04 00	 ret	 4
$LN2@SetCalPack:

; 206  : 
; 207  : 	m_strCalPacketNames = p_szCalPacketNames;

  0001d	ff 75 08	 push	 DWORD PTR _p_szCalPacketNames$[ebp]
  00020	8b ce		 mov	 ecx, esi
  00022	ff 15 00 00 00
	00		 call	 DWORD PTR __imp_??4?$CStringT@DV?$StrTraitMFC_DLL@DV?$ChTraitsCRT@D@ATL@@@@@ATL@@QAEAAV01@PBD@Z

; 208  : 	return true;

  00028	b0 01		 mov	 al, 1
  0002a	5e		 pop	 esi

; 209  : }

  0002b	5d		 pop	 ebp
  0002c	c2 04 00	 ret	 4
?SetCalPacketNames@CSubGraphPartData@@QAE_NPBD@Z ENDP	; CSubGraphPartData::SetCalPacketNames
_TEXT	ENDS
; Function compile flags: /Ogtp
; File D:\git\src\IBK\IBK_DRFN\ProjSrc\SrcChartEx\ChartOCX\IndicatorCondition\IndicatorConditionBaseData.cpp
; File C:\Program Files (x86)\Microsoft Visual Studio\2019\Community\VC\Tools\MSVC\14.29.30133\atlmfc\include\cstringt.h
; File D:\git\src\IBK\IBK_DRFN\ProjSrc\SrcChartEx\ChartOCX\IndicatorCondition\IndicatorConditionBaseData.cpp
; File C:\Program Files (x86)\Microsoft Visual Studio\2019\Community\VC\Tools\MSVC\14.29.30133\atlmfc\include\cstringt.h
; File D:\git\src\IBK\IBK_DRFN\ProjSrc\SrcChartEx\ChartOCX\IndicatorCondition\IndicatorConditionBaseData.cpp
; File C:\Program Files (x86)\Microsoft Visual Studio\2019\Community\VC\Tools\MSVC\14.29.30133\atlmfc\include\cstringt.h
; File D:\git\src\IBK\IBK_DRFN\ProjSrc\SrcChartEx\ChartOCX\IndicatorCondition\IndicatorConditionBaseData.cpp
;	COMDAT ?CopyDataWithVerificationFrom@CSubGraphPartData@@QAE_NABVCSubGraphData@@@Z
_TEXT	SEGMENT
$T2 = -84						; size = 44
$T3 = -40						; size = 20
tv87 = -20						; size = 4
$T4 = -16						; size = 4
__$EHRec$ = -12						; size = 12
$T5 = 8							; size = 4
$T6 = 8							; size = 4
$T7 = 8							; size = 4
$T8 = 8							; size = 4
$T9 = 8							; size = 4
_sourceData$ = 8					; size = 4
?CopyDataWithVerificationFrom@CSubGraphPartData@@QAE_NABVCSubGraphData@@@Z PROC ; CSubGraphPartData::CopyDataWithVerificationFrom, COMDAT
; _this$ = ecx

; 180  : {

  00000	55		 push	 ebp
  00001	8b ec		 mov	 ebp, esp
  00003	6a ff		 push	 -1
  00005	68 00 00 00 00	 push	 __ehhandler$?CopyDataWithVerificationFrom@CSubGraphPartData@@QAE_NABVCSubGraphData@@@Z
  0000a	64 a1 00 00 00
	00		 mov	 eax, DWORD PTR fs:0
  00010	50		 push	 eax
  00011	83 ec 48	 sub	 esp, 72			; 00000048H
  00014	53		 push	 ebx
  00015	56		 push	 esi
  00016	57		 push	 edi
  00017	a1 00 00 00 00	 mov	 eax, DWORD PTR ___security_cookie
  0001c	33 c5		 xor	 eax, ebp
  0001e	50		 push	 eax
  0001f	8d 45 f4	 lea	 eax, DWORD PTR __$EHRec$[ebp]
  00022	64 a3 00 00 00
	00		 mov	 DWORD PTR fs:0, eax
  00028	8b f1		 mov	 esi, ecx

; 181  : 	if(m_subGraphData.GetName() != sourceData.GetName())

  0002a	8b 5d 08	 mov	 ebx, DWORD PTR _sourceData$[ebp]
  0002d	8d 45 f0	 lea	 eax, DWORD PTR $T4[ebp]
  00030	50		 push	 eax
  00031	8b cb		 mov	 ecx, ebx
  00033	e8 00 00 00 00	 call	 ?GetName@CSubGraphDataBase@@QBE?AV?$CStringT@DV?$StrTraitMFC_DLL@DV?$ChTraitsCRT@D@ATL@@@@@ATL@@XZ ; CSubGraphDataBase::GetName
  00038	8b f8		 mov	 edi, eax
  0003a	8d 45 08	 lea	 eax, DWORD PTR $T9[ebp]
  0003d	c7 45 fc 00 00
	00 00		 mov	 DWORD PTR __$EHRec$[ebp+8], 0
  00044	8d 4e 24	 lea	 ecx, DWORD PTR [esi+36]
  00047	50		 push	 eax
  00048	89 4d ec	 mov	 DWORD PTR tv87[ebp], ecx
  0004b	e8 00 00 00 00	 call	 ?GetName@CSubGraphDataBase@@QBE?AV?$CStringT@DV?$StrTraitMFC_DLL@DV?$ChTraitsCRT@D@ATL@@@@@ATL@@XZ ; CSubGraphDataBase::GetName
; File C:\Program Files (x86)\Microsoft Visual Studio\2019\Community\VC\Tools\MSVC\14.29.30133\atlmfc\include\cstringt.h

; 2560 : 		return( str1.Compare( str2 ) != 0 );

  00050	ff 37		 push	 DWORD PTR [edi]
  00052	8b c8		 mov	 ecx, eax
; File D:\git\src\IBK\IBK_DRFN\ProjSrc\SrcChartEx\ChartOCX\IndicatorCondition\IndicatorConditionBaseData.cpp

; 181  : 	if(m_subGraphData.GetName() != sourceData.GetName())

  00054	c6 45 fc 01	 mov	 BYTE PTR __$EHRec$[ebp+8], 1
; File C:\Program Files (x86)\Microsoft Visual Studio\2019\Community\VC\Tools\MSVC\14.29.30133\atlmfc\include\cstringt.h

; 2560 : 		return( str1.Compare( str2 ) != 0 );

  00058	ff 15 00 00 00
	00		 call	 DWORD PTR __imp_?Compare@?$CStringT@DV?$StrTraitMFC_DLL@DV?$ChTraitsCRT@D@ATL@@@@@ATL@@QBEHPBD@Z
; File D:\git\src\IBK\IBK_DRFN\ProjSrc\SrcChartEx\ChartOCX\IndicatorCondition\IndicatorConditionBaseData.cpp

; 181  : 	if(m_subGraphData.GetName() != sourceData.GetName())

  0005e	8d 4d 08	 lea	 ecx, DWORD PTR $T9[ebp]
; File C:\Program Files (x86)\Microsoft Visual Studio\2019\Community\VC\Tools\MSVC\14.29.30133\atlmfc\include\cstringt.h

; 2560 : 		return( str1.Compare( str2 ) != 0 );

  00061	8b f0		 mov	 esi, eax
; File D:\git\src\IBK\IBK_DRFN\ProjSrc\SrcChartEx\ChartOCX\IndicatorCondition\IndicatorConditionBaseData.cpp

; 181  : 	if(m_subGraphData.GetName() != sourceData.GetName())

  00063	ff 15 00 00 00
	00		 call	 DWORD PTR __imp_??1?$CStringT@DV?$StrTraitMFC_DLL@DV?$ChTraitsCRT@D@ATL@@@@@ATL@@QAE@XZ
  00069	8d 4d f0	 lea	 ecx, DWORD PTR $T4[ebp]
  0006c	c7 45 fc ff ff
	ff ff		 mov	 DWORD PTR __$EHRec$[ebp+8], -1
  00073	ff 15 00 00 00
	00		 call	 DWORD PTR __imp_??1?$CStringT@DV?$StrTraitMFC_DLL@DV?$ChTraitsCRT@D@ATL@@@@@ATL@@QAE@XZ
  00079	85 f6		 test	 esi, esi
  0007b	74 16		 je	 SHORT $LN2@CopyDataWi

; 182  : 		return false;

  0007d	32 c0		 xor	 al, al

; 201  : }

  0007f	8b 4d f4	 mov	 ecx, DWORD PTR __$EHRec$[ebp]
  00082	64 89 0d 00 00
	00 00		 mov	 DWORD PTR fs:0, ecx
  00089	59		 pop	 ecx
  0008a	5f		 pop	 edi
  0008b	5e		 pop	 esi
  0008c	5b		 pop	 ebx
  0008d	8b e5		 mov	 esp, ebp
  0008f	5d		 pop	 ebp
  00090	c2 04 00	 ret	 4
$LN2@CopyDataWi:

; 183  : 
; 184  : 	// type, style, drawStyle
; 185  : 	if(m_subGraphData.GetType() == sourceData.GetType())

  00093	8b 7d ec	 mov	 edi, DWORD PTR tv87[ebp]
  00096	8b cf		 mov	 ecx, edi
  00098	e8 00 00 00 00	 call	 ?GetType@CSubGraphDataBase@@QBE?AW4GRAPHTYPE@CGraphBaseData@@XZ ; CSubGraphDataBase::GetType
  0009d	8b cb		 mov	 ecx, ebx
  0009f	8b f0		 mov	 esi, eax
  000a1	e8 00 00 00 00	 call	 ?GetType@CSubGraphDataBase@@QBE?AW4GRAPHTYPE@CGraphBaseData@@XZ ; CSubGraphDataBase::GetType
  000a6	3b f0		 cmp	 esi, eax
  000a8	75 50		 jne	 SHORT $LN3@CopyDataWi

; 186  : 	{
; 187  : 		m_subGraphData.SetStyle(sourceData.GetStyle());

  000aa	8d 45 08	 lea	 eax, DWORD PTR $T8[ebp]
  000ad	8b cb		 mov	 ecx, ebx
  000af	50		 push	 eax
  000b0	e8 00 00 00 00	 call	 ?GetStyle@CSubGraphDataBase@@QBE?AVCGraphStyle@@XZ ; CSubGraphDataBase::GetStyle
  000b5	50		 push	 eax
  000b6	8b cf		 mov	 ecx, edi
  000b8	e8 00 00 00 00	 call	 ?SetStyle@CSubGraphDataBase@@QAEXABVCGraphStyle@@@Z ; CSubGraphDataBase::SetStyle

; 188  : 		m_subGraphData.SetDrawStyle(sourceData.GetDrawStyle());

  000bd	8d 45 08	 lea	 eax, DWORD PTR $T7[ebp]
  000c0	8b cb		 mov	 ecx, ebx
  000c2	50		 push	 eax
  000c3	e8 00 00 00 00	 call	 ?GetDrawStyle@CSubGraphDataBase@@QBE?AVCGraphDrawStyle@@XZ ; CSubGraphDataBase::GetDrawStyle
  000c8	50		 push	 eax
  000c9	8b cf		 mov	 ecx, edi
  000cb	e8 00 00 00 00	 call	 ?SetDrawStyle@CSubGraphDataBase@@QAEXABVCGraphDrawStyle@@@Z ; CSubGraphDataBase::SetDrawStyle

; 189  : 		// (2008/9/14 - Seung-Won, Bae) for Pair Tick
; 190  : 		m_subGraphData.SetItemName( sourceData.GetItemName());

  000d0	8d 45 08	 lea	 eax, DWORD PTR $T6[ebp]
  000d3	8b cb		 mov	 ecx, ebx
  000d5	50		 push	 eax
  000d6	e8 00 00 00 00	 call	 ?GetItemName@CSubGraphDataBase@@QBE?AV?$CStringT@DV?$StrTraitMFC_DLL@DV?$ChTraitsCRT@D@ATL@@@@@ATL@@XZ ; CSubGraphDataBase::GetItemName
  000db	50		 push	 eax
  000dc	8b cf		 mov	 ecx, edi
  000de	c7 45 fc 02 00
	00 00		 mov	 DWORD PTR __$EHRec$[ebp+8], 2
  000e5	e8 00 00 00 00	 call	 ?SetItemName@CSubGraphDataBase@@QAEXABV?$CStringT@DV?$StrTraitMFC_DLL@DV?$ChTraitsCRT@D@ATL@@@@@ATL@@@Z ; CSubGraphDataBase::SetItemName
  000ea	8d 4d 08	 lea	 ecx, DWORD PTR $T6[ebp]
  000ed	c7 45 fc ff ff
	ff ff		 mov	 DWORD PTR __$EHRec$[ebp+8], -1
  000f4	ff 15 00 00 00
	00		 call	 DWORD PTR __imp_??1?$CStringT@DV?$StrTraitMFC_DLL@DV?$ChTraitsCRT@D@ATL@@@@@ATL@@QAE@XZ
$LN3@CopyDataWi:

; 191  : 	}
; 192  : 	// title
; 193  : 	m_subGraphData.SetTitle(sourceData.GetTitle());

  000fa	8d 45 08	 lea	 eax, DWORD PTR $T5[ebp]
  000fd	8b cb		 mov	 ecx, ebx
  000ff	50		 push	 eax
  00100	e8 00 00 00 00	 call	 ?GetTitle@CSubGraphDataBase@@QBE?AV?$CStringT@DV?$StrTraitMFC_DLL@DV?$ChTraitsCRT@D@ATL@@@@@ATL@@XZ ; CSubGraphDataBase::GetTitle
  00105	50		 push	 eax
  00106	8b cf		 mov	 ecx, edi
  00108	c7 45 fc 03 00
	00 00		 mov	 DWORD PTR __$EHRec$[ebp+8], 3
  0010f	e8 00 00 00 00	 call	 ?SetTitle@CSubGraphDataBase@@QAEXABV?$CStringT@DV?$StrTraitMFC_DLL@DV?$ChTraitsCRT@D@ATL@@@@@ATL@@@Z ; CSubGraphDataBase::SetTitle
  00114	8d 4d 08	 lea	 ecx, DWORD PTR $T5[ebp]
  00117	c7 45 fc ff ff
	ff ff		 mov	 DWORD PTR __$EHRec$[ebp+8], -1
  0011e	ff 15 00 00 00
	00		 call	 DWORD PTR __imp_??1?$CStringT@DV?$StrTraitMFC_DLL@DV?$ChTraitsCRT@D@ATL@@@@@ATL@@QAE@XZ

; 194  : 	// hiding
; 195  : 	m_subGraphData.SetHiding(sourceData.GetHiding());

  00124	8b cb		 mov	 ecx, ebx
  00126	e8 00 00 00 00	 call	 ?GetHiding@CSubGraphData@@ABE_NXZ ; CSubGraphData::GetHiding
  0012b	0f b6 c0	 movzx	 eax, al
  0012e	8b cf		 mov	 ecx, edi
  00130	50		 push	 eax
  00131	e8 00 00 00 00	 call	 ?SetHiding@CSubGraphDataBase@@QAEX_N@Z ; CSubGraphDataBase::SetHiding

; 196  : 	// graphColor
; 197  : 	m_subGraphData.SetColor(sourceData.GetColor());

  00136	8d 45 ac	 lea	 eax, DWORD PTR $T2[ebp]
  00139	8b cb		 mov	 ecx, ebx
  0013b	50		 push	 eax
  0013c	e8 00 00 00 00	 call	 ?GetColor@CSubGraphDataBase@@QBE?AVCGraphColor@@XZ ; CSubGraphDataBase::GetColor
  00141	50		 push	 eax
  00142	8b cf		 mov	 ecx, edi
  00144	e8 00 00 00 00	 call	 ?SetColor@CSubGraphDataBase@@QAEXABVCGraphColor@@@Z ; CSubGraphDataBase::SetColor

; 198  : 	// penThickness
; 199  : 	m_subGraphData.SetPenThickness(sourceData.GetPenThickness());

  00149	8d 45 d8	 lea	 eax, DWORD PTR $T3[ebp]
  0014c	8b cb		 mov	 ecx, ebx
  0014e	50		 push	 eax
  0014f	e8 00 00 00 00	 call	 ?GetPenThickness@CSubGraphDataBase@@QBE?AVCPenThickness@@XZ ; CSubGraphDataBase::GetPenThickness
  00154	50		 push	 eax
  00155	8b cf		 mov	 ecx, edi
  00157	e8 00 00 00 00	 call	 ?SetPenThickness@CSubGraphDataBase@@QAEXABVCPenThickness@@@Z ; CSubGraphDataBase::SetPenThickness

; 200  : 	return true;

  0015c	b0 01		 mov	 al, 1

; 201  : }

  0015e	8b 4d f4	 mov	 ecx, DWORD PTR __$EHRec$[ebp]
  00161	64 89 0d 00 00
	00 00		 mov	 DWORD PTR fs:0, ecx
  00168	59		 pop	 ecx
  00169	5f		 pop	 edi
  0016a	5e		 pop	 esi
  0016b	5b		 pop	 ebx
  0016c	8b e5		 mov	 esp, ebp
  0016e	5d		 pop	 ebp
  0016f	c2 04 00	 ret	 4
_TEXT	ENDS
;	COMDAT text$x
text$x	SEGMENT
__unwindfunclet$?CopyDataWithVerificationFrom@CSubGraphPartData@@QAE_NABVCSubGraphData@@@Z$0:
  00000	8d 4d f0	 lea	 ecx, DWORD PTR $T4[ebp]
  00003	ff 25 00 00 00
	00		 jmp	 DWORD PTR __imp_??1?$CStringT@DV?$StrTraitMFC_DLL@DV?$ChTraitsCRT@D@ATL@@@@@ATL@@QAE@XZ
__unwindfunclet$?CopyDataWithVerificationFrom@CSubGraphPartData@@QAE_NABVCSubGraphData@@@Z$1:
  00009	8d 4d 08	 lea	 ecx, DWORD PTR $T9[ebp]
  0000c	ff 25 00 00 00
	00		 jmp	 DWORD PTR __imp_??1?$CStringT@DV?$StrTraitMFC_DLL@DV?$ChTraitsCRT@D@ATL@@@@@ATL@@QAE@XZ
__unwindfunclet$?CopyDataWithVerificationFrom@CSubGraphPartData@@QAE_NABVCSubGraphData@@@Z$2:
  00012	8d 4d 08	 lea	 ecx, DWORD PTR $T6[ebp]
  00015	ff 25 00 00 00
	00		 jmp	 DWORD PTR __imp_??1?$CStringT@DV?$StrTraitMFC_DLL@DV?$ChTraitsCRT@D@ATL@@@@@ATL@@QAE@XZ
__unwindfunclet$?CopyDataWithVerificationFrom@CSubGraphPartData@@QAE_NABVCSubGraphData@@@Z$3:
  0001b	8d 4d 08	 lea	 ecx, DWORD PTR $T5[ebp]
  0001e	ff 25 00 00 00
	00		 jmp	 DWORD PTR __imp_??1?$CStringT@DV?$StrTraitMFC_DLL@DV?$ChTraitsCRT@D@ATL@@@@@ATL@@QAE@XZ
  00024	cc		 int	 3
  00025	cc		 int	 3
  00026	cc		 int	 3
  00027	cc		 int	 3
  00028	cc		 int	 3
__ehhandler$?CopyDataWithVerificationFrom@CSubGraphPartData@@QAE_NABVCSubGraphData@@@Z:
  00029	90		 npad	 1
  0002a	90		 npad	 1
  0002b	8b 54 24 08	 mov	 edx, DWORD PTR [esp+8]
  0002f	8d 42 0c	 lea	 eax, DWORD PTR [edx+12]
  00032	8b 4a a8	 mov	 ecx, DWORD PTR [edx-88]
  00035	33 c8		 xor	 ecx, eax
  00037	e8 00 00 00 00	 call	 @__security_check_cookie@4
  0003c	b8 00 00 00 00	 mov	 eax, OFFSET __ehfuncinfo$?CopyDataWithVerificationFrom@CSubGraphPartData@@QAE_NABVCSubGraphData@@@Z
  00041	e9 00 00 00 00	 jmp	 ___CxxFrameHandler3
text$x	ENDS
?CopyDataWithVerificationFrom@CSubGraphPartData@@QAE_NABVCSubGraphData@@@Z ENDP ; CSubGraphPartData::CopyDataWithVerificationFrom
; Function compile flags: /Ogtp
; File D:\git\src\IBK\IBK_DRFN\ProjSrc\SrcChartEx\ChartOCX\IndicatorCondition\IndicatorConditionBaseData.cpp
; File C:\Program Files (x86)\Microsoft Visual Studio\2019\Community\VC\Tools\MSVC\14.29.30133\atlmfc\include\atlsimpstr.h
; File D:\git\src\IBK\IBK_DRFN\ProjSrc\SrcChartEx\ChartOCX\IndicatorCondition\IndicatorConditionBaseData.cpp
; File C:\Program Files (x86)\Microsoft Visual Studio\2019\Community\VC\Tools\MSVC\14.29.30133\atlmfc\include\atlsimpstr.h
; File D:\git\src\IBK\IBK_DRFN\ProjSrc\SrcChartEx\ChartOCX\IndicatorCondition\IndicatorConditionBaseData.cpp
; File C:\Program Files (x86)\Microsoft Visual Studio\2019\Community\VC\Tools\MSVC\14.29.30133\atlmfc\include\atlsimpstr.h
; File D:\git\src\IBK\IBK_DRFN\ProjSrc\SrcChartEx\ChartOCX\IndicatorCondition\IndicatorConditionBaseData.cpp
; File C:\Program Files (x86)\Microsoft Visual Studio\2019\Community\VC\Tools\MSVC\14.29.30133\atlmfc\include\cstringt.h
; File D:\git\src\IBK\IBK_DRFN\ProjSrc\SrcChartEx\ChartOCX\IndicatorCondition\IndicatorConditionBaseData.cpp
; File C:\Program Files (x86)\Microsoft Visual Studio\2019\Community\VC\Tools\MSVC\14.29.30133\atlmfc\include\cstringt.h
; File D:\git\src\IBK\IBK_DRFN\ProjSrc\SrcChartEx\ChartOCX\IndicatorCondition\IndicatorConditionBaseData.cpp
;	COMDAT ?CopyDataWithVerificationFrom@CSubGraphPartData@@QAE_NPBV1@@Z
_TEXT	SEGMENT
$T2 = -16						; size = 4
__$EHRec$ = -12						; size = 12
$T3 = 8							; size = 4
_pSourceData$ = 8					; size = 4
?CopyDataWithVerificationFrom@CSubGraphPartData@@QAE_NPBV1@@Z PROC ; CSubGraphPartData::CopyDataWithVerificationFrom, COMDAT
; _this$ = ecx

; 163  : {

  00000	55		 push	 ebp
  00001	8b ec		 mov	 ebp, esp
  00003	6a ff		 push	 -1
  00005	68 00 00 00 00	 push	 __ehhandler$?CopyDataWithVerificationFrom@CSubGraphPartData@@QAE_NPBV1@@Z
  0000a	64 a1 00 00 00
	00		 mov	 eax, DWORD PTR fs:0
  00010	50		 push	 eax
  00011	51		 push	 ecx
  00012	53		 push	 ebx
  00013	56		 push	 esi
  00014	57		 push	 edi
  00015	a1 00 00 00 00	 mov	 eax, DWORD PTR ___security_cookie
  0001a	33 c5		 xor	 eax, ebp
  0001c	50		 push	 eax
  0001d	8d 45 f4	 lea	 eax, DWORD PTR __$EHRec$[ebp]
  00020	64 a3 00 00 00
	00		 mov	 DWORD PTR fs:0, eax
  00026	8b d9		 mov	 ebx, ecx

; 164  : 	if(pSourceData == NULL)

  00028	8b 7d 08	 mov	 edi, DWORD PTR _pSourceData$[ebp]
  0002b	85 ff		 test	 edi, edi
  0002d	0f 84 99 00 00
	00		 je	 $LN32@CopyDataWi

; 165  : 		return false;
; 166  : 
; 167  : 	//subGraph   doubleList .
; 168  : 	if(!CopyDataWithVerificationFrom(pSourceData->GetSubGraphData()))

  00033	8d 47 24	 lea	 eax, DWORD PTR [edi+36]
  00036	50		 push	 eax
  00037	e8 00 00 00 00	 call	 ?CopyDataWithVerificationFrom@CSubGraphPartData@@QAE_NABVCSubGraphData@@@Z ; CSubGraphPartData::CopyDataWithVerificationFrom
  0003c	84 c0		 test	 al, al
  0003e	0f 84 88 00 00
	00		 je	 $LN32@CopyDataWi

; 113  : 	return m_strCalPacketNames;

  00044	8d 47 04	 lea	 eax, DWORD PTR [edi+4]
  00047	50		 push	 eax
  00048	8d 4d 08	 lea	 ecx, DWORD PTR $T3[ebp]
  0004b	ff 15 00 00 00
	00		 call	 DWORD PTR __imp_??0?$CStringT@DV?$StrTraitMFC_DLL@DV?$ChTraitsCRT@D@ATL@@@@@ATL@@QAE@ABV01@@Z
; File C:\Program Files (x86)\Microsoft Visual Studio\2019\Community\VC\Tools\MSVC\14.29.30133\atlmfc\include\atlsimpstr.h

; 519  : 		return( GetData()->nDataLength );

  00051	8b 45 08	 mov	 eax, DWORD PTR $T3[ebp]
; File D:\git\src\IBK\IBK_DRFN\ProjSrc\SrcChartEx\ChartOCX\IndicatorCondition\IndicatorConditionBaseData.cpp

; 171  : 	if(!pSourceData->GetCalPacketNames().IsEmpty())

  00054	8d 4d 08	 lea	 ecx, DWORD PTR $T3[ebp]
; File C:\Program Files (x86)\Microsoft Visual Studio\2019\Community\VC\Tools\MSVC\14.29.30133\atlmfc\include\atlsimpstr.h

; 519  : 		return( GetData()->nDataLength );

  00057	8b 70 f4	 mov	 esi, DWORD PTR [eax-12]
; File D:\git\src\IBK\IBK_DRFN\ProjSrc\SrcChartEx\ChartOCX\IndicatorCondition\IndicatorConditionBaseData.cpp

; 171  : 	if(!pSourceData->GetCalPacketNames().IsEmpty())

  0005a	ff 15 00 00 00
	00		 call	 DWORD PTR __imp_??1?$CStringT@DV?$StrTraitMFC_DLL@DV?$ChTraitsCRT@D@ATL@@@@@ATL@@QAE@XZ
  00060	85 f6		 test	 esi, esi
  00062	74 3f		 je	 SHORT $LN4@CopyDataWi

; 113  : 	return m_strCalPacketNames;

  00064	8d 47 04	 lea	 eax, DWORD PTR [edi+4]
  00067	50		 push	 eax
  00068	8d 4d f0	 lea	 ecx, DWORD PTR $T2[ebp]
  0006b	ff 15 00 00 00
	00		 call	 DWORD PTR __imp_??0?$CStringT@DV?$StrTraitMFC_DLL@DV?$ChTraitsCRT@D@ATL@@@@@ATL@@QAE@ABV01@@Z
; File C:\Program Files (x86)\Microsoft Visual Studio\2019\Community\VC\Tools\MSVC\14.29.30133\atlmfc\include\atlsimpstr.h

; 377  : 		return( m_pszData );

  00071	8b 75 f0	 mov	 esi, DWORD PTR $T2[ebp]
; File D:\git\src\IBK\IBK_DRFN\ProjSrc\SrcChartEx\ChartOCX\IndicatorCondition\IndicatorConditionBaseData.cpp

; 205  : 	if(m_strCalPacketNames == p_szCalPacketNames) return false;

  00074	8d 4b 04	 lea	 ecx, DWORD PTR [ebx+4]
; File C:\Program Files (x86)\Microsoft Visual Studio\2019\Community\VC\Tools\MSVC\14.29.30133\atlmfc\include\cstringt.h

; 2486 : 		return(str1.Compare(psz2) == 0);

  00077	56		 push	 esi
; File D:\git\src\IBK\IBK_DRFN\ProjSrc\SrcChartEx\ChartOCX\IndicatorCondition\IndicatorConditionBaseData.cpp

; 172  : 		SetCalPacketNames(pSourceData->GetCalPacketNames());

  00078	c7 45 fc 00 00
	00 00		 mov	 DWORD PTR __$EHRec$[ebp+8], 0
; File C:\Program Files (x86)\Microsoft Visual Studio\2019\Community\VC\Tools\MSVC\14.29.30133\atlmfc\include\cstringt.h

; 2486 : 		return(str1.Compare(psz2) == 0);

  0007f	ff 15 00 00 00
	00		 call	 DWORD PTR __imp_?Compare@?$CStringT@DV?$StrTraitMFC_DLL@DV?$ChTraitsCRT@D@ATL@@@@@ATL@@QBEHPBD@Z
  00085	85 c0		 test	 eax, eax
; File D:\git\src\IBK\IBK_DRFN\ProjSrc\SrcChartEx\ChartOCX\IndicatorCondition\IndicatorConditionBaseData.cpp

; 205  : 	if(m_strCalPacketNames == p_szCalPacketNames) return false;

  00087	74 0a		 je	 SHORT $LN24@CopyDataWi

; 206  : 
; 207  : 	m_strCalPacketNames = p_szCalPacketNames;

  00089	56		 push	 esi
  0008a	8d 4b 04	 lea	 ecx, DWORD PTR [ebx+4]
  0008d	ff 15 00 00 00
	00		 call	 DWORD PTR __imp_??4?$CStringT@DV?$StrTraitMFC_DLL@DV?$ChTraitsCRT@D@ATL@@@@@ATL@@QAEAAV01@PBD@Z
$LN24@CopyDataWi:

; 172  : 		SetCalPacketNames(pSourceData->GetCalPacketNames());

  00093	8d 4d f0	 lea	 ecx, DWORD PTR $T2[ebp]
  00096	c7 45 fc ff ff
	ff ff		 mov	 DWORD PTR __$EHRec$[ebp+8], -1
  0009d	ff 15 00 00 00
	00		 call	 DWORD PTR __imp_??1?$CStringT@DV?$StrTraitMFC_DLL@DV?$ChTraitsCRT@D@ATL@@@@@ATL@@QAE@XZ
$LN4@CopyDataWi:

; 290  : 	if(m_calConditionList.GetCount() != sourceData.GetCount())

  000a3	8b 43 14	 mov	 eax, DWORD PTR [ebx+20]

; 173  : 
; 174  : 	CopyDataWithVerificationFrom(pSourceData->GetConditionList());

  000a6	83 c7 08	 add	 edi, 8

; 290  : 	if(m_calConditionList.GetCount() != sourceData.GetCount())

  000a9	3b 47 0c	 cmp	 eax, DWORD PTR [edi+12]
  000ac	75 08		 jne	 SHORT $LN29@CopyDataWi

; 291  : 		return;
; 292  : 
; 293  : 	// count    default    .
; 294  : 	CopyConditionList(sourceData);

  000ae	57		 push	 edi
  000af	8b cb		 mov	 ecx, ebx
  000b1	e8 00 00 00 00	 call	 ?CopyConditionList@CSubGraphPartData@@AAEXABV?$CList@NN@@@Z ; CSubGraphPartData::CopyConditionList
$LN29@CopyDataWi:

; 175  : 	return true;

  000b6	b0 01		 mov	 al, 1

; 176  : }

  000b8	8b 4d f4	 mov	 ecx, DWORD PTR __$EHRec$[ebp]
  000bb	64 89 0d 00 00
	00 00		 mov	 DWORD PTR fs:0, ecx
  000c2	59		 pop	 ecx
  000c3	5f		 pop	 edi
  000c4	5e		 pop	 esi
  000c5	5b		 pop	 ebx
  000c6	8b e5		 mov	 esp, ebp
  000c8	5d		 pop	 ebp
  000c9	c2 04 00	 ret	 4
$LN32@CopyDataWi:

; 169  : 		return false;

  000cc	32 c0		 xor	 al, al

; 176  : }

  000ce	8b 4d f4	 mov	 ecx, DWORD PTR __$EHRec$[ebp]
  000d1	64 89 0d 00 00
	00 00		 mov	 DWORD PTR fs:0, ecx
  000d8	59		 pop	 ecx
  000d9	5f		 pop	 edi
  000da	5e		 pop	 esi
  000db	5b		 pop	 ebx
  000dc	8b e5		 mov	 esp, ebp
  000de	5d		 pop	 ebp
  000df	c2 04 00	 ret	 4
_TEXT	ENDS
;	COMDAT text$x
text$x	SEGMENT
__unwindfunclet$?CopyDataWithVerificationFrom@CSubGraphPartData@@QAE_NPBV1@@Z$1:
  00000	8d 4d f0	 lea	 ecx, DWORD PTR $T2[ebp]
  00003	ff 25 00 00 00
	00		 jmp	 DWORD PTR __imp_??1?$CStringT@DV?$StrTraitMFC_DLL@DV?$ChTraitsCRT@D@ATL@@@@@ATL@@QAE@XZ
  00009	cc		 int	 3
  0000a	cc		 int	 3
  0000b	cc		 int	 3
  0000c	cc		 int	 3
  0000d	cc		 int	 3
__ehhandler$?CopyDataWithVerificationFrom@CSubGraphPartData@@QAE_NPBV1@@Z:
  0000e	90		 npad	 1
  0000f	90		 npad	 1
  00010	8b 54 24 08	 mov	 edx, DWORD PTR [esp+8]
  00014	8d 42 0c	 lea	 eax, DWORD PTR [edx+12]
  00017	8b 4a ec	 mov	 ecx, DWORD PTR [edx-20]
  0001a	33 c8		 xor	 ecx, eax
  0001c	e8 00 00 00 00	 call	 @__security_check_cookie@4
  00021	b8 00 00 00 00	 mov	 eax, OFFSET __ehfuncinfo$?CopyDataWithVerificationFrom@CSubGraphPartData@@QAE_NPBV1@@Z
  00026	e9 00 00 00 00	 jmp	 ___CxxFrameHandler3
text$x	ENDS
?CopyDataWithVerificationFrom@CSubGraphPartData@@QAE_NPBV1@@Z ENDP ; CSubGraphPartData::CopyDataWithVerificationFrom
; Function compile flags: /Ogtp
; File D:\git\src\IBK\IBK_DRFN\ProjSrc\SrcChartEx\ChartOCX\IndicatorCondition\IndicatorConditionBaseData.cpp
; File C:\Program Files (x86)\Microsoft Visual Studio\2019\Community\VC\Tools\MSVC\14.29.30133\atlmfc\include\afxtempl.h
; File D:\git\src\IBK\IBK_DRFN\ProjSrc\SrcChartEx\ChartOCX\IndicatorCondition\IndicatorConditionBaseData.cpp
;	COMDAT ?GetSubGraphStringData@CSubGraphPartData@@QAEXAAV?$CStringT@DV?$StrTraitMFC_DLL@DV?$ChTraitsCRT@D@ATL@@@@@ATL@@H_N@Z
_TEXT	SEGMENT
_dCondition$1$ = -24					; size = 8
_OldTitle$2 = -16					; size = 4
__$EHRec$ = -12						; size = 12
_p_strSubGraphData$ = 8					; size = 4
_strTitle$3 = 12					; size = 4
_nCondIndexForTitle$ = 12				; size = 4
$T4 = 16						; size = 4
_bIncludeOrgTitle$ = 16					; size = 1
?GetSubGraphStringData@CSubGraphPartData@@QAEXAAV?$CStringT@DV?$StrTraitMFC_DLL@DV?$ChTraitsCRT@D@ATL@@@@@ATL@@H_N@Z PROC ; CSubGraphPartData::GetSubGraphStringData, COMDAT
; _this$ = ecx

; 127  : {

  00000	55		 push	 ebp
  00001	8b ec		 mov	 ebp, esp
  00003	6a ff		 push	 -1
  00005	68 00 00 00 00	 push	 __ehhandler$?GetSubGraphStringData@CSubGraphPartData@@QAEXAAV?$CStringT@DV?$StrTraitMFC_DLL@DV?$ChTraitsCRT@D@ATL@@@@@ATL@@H_N@Z
  0000a	64 a1 00 00 00
	00		 mov	 eax, DWORD PTR fs:0
  00010	50		 push	 eax
  00011	83 ec 0c	 sub	 esp, 12			; 0000000cH
  00014	56		 push	 esi
  00015	a1 00 00 00 00	 mov	 eax, DWORD PTR ___security_cookie
  0001a	33 c5		 xor	 eax, ebp
  0001c	50		 push	 eax
  0001d	8d 45 f4	 lea	 eax, DWORD PTR __$EHRec$[ebp]
  00020	64 a3 00 00 00
	00		 mov	 DWORD PTR fs:0, eax

; 90   : 	if(nIndex < 0)

  00026	8b 45 0c	 mov	 eax, DWORD PTR _nCondIndexForTitle$[ebp]

; 128  : 	GetSubGraphStringData( p_strSubGraphData, m_subGraphData, nCondIndexForTitle, bIncludeOrgTitle);

  00029	8d 71 24	 lea	 esi, DWORD PTR [ecx+36]

; 90   : 	if(nIndex < 0)

  0002c	85 c0		 test	 eax, eax
  0002e	0f 88 f0 00 00
	00		 js	 $LN26@GetSubGrap
; File C:\Program Files (x86)\Microsoft Visual Studio\2019\Community\VC\Tools\MSVC\14.29.30133\atlmfc\include\afxtempl.h

; 1133 : 	if (nIndex >= m_nCount || nIndex < 0)

  00034	3b 41 14	 cmp	 eax, DWORD PTR [ecx+20]
  00037	0f 8d e7 00 00
	00		 jge	 $LN26@GetSubGrap

; 1134 : 		return NULL;  // went too far
; 1135 : 
; 1136 : 	CNode* pNode = m_pNodeHead;

  0003d	8b 49 0c	 mov	 ecx, DWORD PTR [ecx+12]

; 1137 : 	while (nIndex--)

  00040	85 c0		 test	 eax, eax
  00042	74 07		 je	 SHORT $LN22@GetSubGrap
$LL16@GetSubGrap:

; 1138 : 	{
; 1139 : 		ASSERT(AfxIsValidAddress(pNode, sizeof(CNode)));
; 1140 : 		pNode = pNode->pNext;

  00044	8b 09		 mov	 ecx, DWORD PTR [ecx]
  00046	83 e8 01	 sub	 eax, 1
  00049	75 f9		 jne	 SHORT $LL16@GetSubGrap
$LN22@GetSubGrap:
; File D:\git\src\IBK\IBK_DRFN\ProjSrc\SrcChartEx\ChartOCX\IndicatorCondition\IndicatorConditionBaseData.cpp

; 94   : 	if(pos == NULL)

  0004b	85 c9		 test	 ecx, ecx
  0004d	0f 84 d1 00 00
	00		 je	 $LN26@GetSubGrap

; 95   : 		return false;
; 96   : 
; 97   : 	dData = m_calConditionList.GetAt(pos);

  00053	f2 0f 10 41 08	 movsd	 xmm0, QWORD PTR [ecx+8]

; 324  : 	CString strTitle;

  00058	8d 4d 0c	 lea	 ecx, DWORD PTR _strTitle$3[ebp]

; 97   : 	dData = m_calConditionList.GetAt(pos);

  0005b	f2 0f 11 45 e8	 movsd	 QWORD PTR _dCondition$1$[ebp], xmm0

; 324  : 	CString strTitle;

  00060	ff 15 00 00 00
	00		 call	 DWORD PTR __imp_??0?$CStringT@DV?$StrTraitMFC_DLL@DV?$ChTraitsCRT@D@ATL@@@@@ATL@@QAE@XZ

; 325  : 	if( bIncludeOrgTitle)	strTitle.Format( "%s_%0.f", subGraphData.GetTitle(), dCondition);

  00066	80 7d 10 00	 cmp	 BYTE PTR _bIncludeOrgTitle$[ebp], 0
  0006a	c7 45 fc 00 00
	00 00		 mov	 DWORD PTR __$EHRec$[ebp+8], 0
  00071	74 3f		 je	 SHORT $LN5@GetSubGrap
  00073	8d 45 10	 lea	 eax, DWORD PTR $T4[ebp]
  00076	8b ce		 mov	 ecx, esi
  00078	50		 push	 eax
  00079	e8 00 00 00 00	 call	 ?GetTitle@CSubGraphDataBase@@QBE?AV?$CStringT@DV?$StrTraitMFC_DLL@DV?$ChTraitsCRT@D@ATL@@@@@ATL@@XZ ; CSubGraphDataBase::GetTitle
  0007e	f2 0f 10 45 e8	 movsd	 xmm0, QWORD PTR _dCondition$1$[ebp]
  00083	83 ec 08	 sub	 esp, 8
  00086	c6 45 fc 01	 mov	 BYTE PTR __$EHRec$[ebp+8], 1
  0008a	f2 0f 11 04 24	 movsd	 QWORD PTR [esp], xmm0
  0008f	ff 30		 push	 DWORD PTR [eax]
  00091	8d 45 0c	 lea	 eax, DWORD PTR _strTitle$3[ebp]
  00094	68 00 00 00 00	 push	 OFFSET ??_C@_07PDGNMDCO@?$CFs_?$CF0?4f@
  00099	50		 push	 eax
  0009a	ff 15 00 00 00
	00		 call	 DWORD PTR __imp_?Format@?$CStringT@DV?$StrTraitMFC_DLL@DV?$ChTraitsCRT@D@ATL@@@@@ATL@@QAAXPBDZZ
  000a0	83 c4 14	 add	 esp, 20			; 00000014H
  000a3	c6 45 fc 00	 mov	 BYTE PTR __$EHRec$[ebp+8], 0
  000a7	8d 4d 10	 lea	 ecx, DWORD PTR $T4[ebp]
  000aa	ff 15 00 00 00
	00		 call	 DWORD PTR __imp_??1?$CStringT@DV?$StrTraitMFC_DLL@DV?$ChTraitsCRT@D@ATL@@@@@ATL@@QAE@XZ
  000b0	eb 1f		 jmp	 SHORT $LN6@GetSubGrap
$LN5@GetSubGrap:

; 326  : 	else					strTitle.Format( "%0.f",	dCondition);

  000b2	f2 0f 10 45 e8	 movsd	 xmm0, QWORD PTR _dCondition$1$[ebp]
  000b7	8d 45 0c	 lea	 eax, DWORD PTR _strTitle$3[ebp]
  000ba	83 ec 08	 sub	 esp, 8
  000bd	f2 0f 11 04 24	 movsd	 QWORD PTR [esp], xmm0
  000c2	68 00 00 00 00	 push	 OFFSET ??_C@_04MBKDPHPM@?$CF0?4f@
  000c7	50		 push	 eax
  000c8	ff 15 00 00 00
	00		 call	 DWORD PTR __imp_?Format@?$CStringT@DV?$StrTraitMFC_DLL@DV?$ChTraitsCRT@D@ATL@@@@@ATL@@QAAXPBDZZ
  000ce	83 c4 10	 add	 esp, 16			; 00000010H
$LN6@GetSubGrap:

; 327  : 
; 328  : 	CString OldTitle = subGraphData.GetTitle();

  000d1	8d 45 f0	 lea	 eax, DWORD PTR _OldTitle$2[ebp]
  000d4	8b ce		 mov	 ecx, esi
  000d6	50		 push	 eax
  000d7	e8 00 00 00 00	 call	 ?GetTitle@CSubGraphDataBase@@QBE?AV?$CStringT@DV?$StrTraitMFC_DLL@DV?$ChTraitsCRT@D@ATL@@@@@ATL@@XZ ; CSubGraphDataBase::GetTitle

; 329  : 	subGraphData.SetTitle( strTitle);

  000dc	8d 45 0c	 lea	 eax, DWORD PTR _strTitle$3[ebp]
  000df	c6 45 fc 02	 mov	 BYTE PTR __$EHRec$[ebp+8], 2
  000e3	50		 push	 eax
  000e4	8b ce		 mov	 ecx, esi
  000e6	e8 00 00 00 00	 call	 ?SetTitle@CSubGraphDataBase@@QAEXABV?$CStringT@DV?$StrTraitMFC_DLL@DV?$ChTraitsCRT@D@ATL@@@@@ATL@@@Z ; CSubGraphDataBase::SetTitle

; 330  : 	subGraphData.GetStringData( p_SubGraphData);

  000eb	ff 75 08	 push	 DWORD PTR _p_strSubGraphData$[ebp]
  000ee	8b ce		 mov	 ecx, esi
  000f0	e8 00 00 00 00	 call	 ?GetStringData@CSubGraphDataBase@@QBEXAAV?$CStringT@DV?$StrTraitMFC_DLL@DV?$ChTraitsCRT@D@ATL@@@@@ATL@@@Z ; CSubGraphDataBase::GetStringData

; 331  : 	subGraphData.SetTitle( OldTitle);

  000f5	8d 45 f0	 lea	 eax, DWORD PTR _OldTitle$2[ebp]
  000f8	8b ce		 mov	 ecx, esi
  000fa	50		 push	 eax
  000fb	e8 00 00 00 00	 call	 ?SetTitle@CSubGraphDataBase@@QAEXABV?$CStringT@DV?$StrTraitMFC_DLL@DV?$ChTraitsCRT@D@ATL@@@@@ATL@@@Z ; CSubGraphDataBase::SetTitle

; 332  : }

  00100	8d 4d f0	 lea	 ecx, DWORD PTR _OldTitle$2[ebp]
  00103	ff 15 00 00 00
	00		 call	 DWORD PTR __imp_??1?$CStringT@DV?$StrTraitMFC_DLL@DV?$ChTraitsCRT@D@ATL@@@@@ATL@@QAE@XZ
  00109	8d 4d 0c	 lea	 ecx, DWORD PTR _strTitle$3[ebp]
  0010c	ff 15 00 00 00
	00		 call	 DWORD PTR __imp_??1?$CStringT@DV?$StrTraitMFC_DLL@DV?$ChTraitsCRT@D@ATL@@@@@ATL@@QAE@XZ

; 129  : }

  00112	8b 4d f4	 mov	 ecx, DWORD PTR __$EHRec$[ebp]
  00115	64 89 0d 00 00
	00 00		 mov	 DWORD PTR fs:0, ecx
  0011c	59		 pop	 ecx
  0011d	5e		 pop	 esi
  0011e	8b e5		 mov	 esp, ebp
  00120	5d		 pop	 ebp
  00121	c2 0c 00	 ret	 12			; 0000000cH
$LN26@GetSubGrap:

; 320  : 		subGraphData.GetStringData( p_SubGraphData);

  00124	ff 75 08	 push	 DWORD PTR _p_strSubGraphData$[ebp]
  00127	8b ce		 mov	 ecx, esi
  00129	e8 00 00 00 00	 call	 ?GetStringData@CSubGraphDataBase@@QBEXAAV?$CStringT@DV?$StrTraitMFC_DLL@DV?$ChTraitsCRT@D@ATL@@@@@ATL@@@Z ; CSubGraphDataBase::GetStringData

; 129  : }

  0012e	8b 4d f4	 mov	 ecx, DWORD PTR __$EHRec$[ebp]
  00131	64 89 0d 00 00
	00 00		 mov	 DWORD PTR fs:0, ecx
  00138	59		 pop	 ecx
  00139	5e		 pop	 esi
  0013a	8b e5		 mov	 esp, ebp
  0013c	5d		 pop	 ebp
  0013d	c2 0c 00	 ret	 12			; 0000000cH
_TEXT	ENDS
;	COMDAT text$x
text$x	SEGMENT
__unwindfunclet$?GetSubGraphStringData@CSubGraphPartData@@QAEXAAV?$CStringT@DV?$StrTraitMFC_DLL@DV?$ChTraitsCRT@D@ATL@@@@@ATL@@H_N@Z$0:
  00000	8d 4d 0c	 lea	 ecx, DWORD PTR _strTitle$3[ebp]
  00003	ff 25 00 00 00
	00		 jmp	 DWORD PTR __imp_??1?$CStringT@DV?$StrTraitMFC_DLL@DV?$ChTraitsCRT@D@ATL@@@@@ATL@@QAE@XZ
__unwindfunclet$?GetSubGraphStringData@CSubGraphPartData@@QAEXAAV?$CStringT@DV?$StrTraitMFC_DLL@DV?$ChTraitsCRT@D@ATL@@@@@ATL@@H_N@Z$1:
  00009	8d 4d 10	 lea	 ecx, DWORD PTR $T4[ebp]
  0000c	ff 25 00 00 00
	00		 jmp	 DWORD PTR __imp_??1?$CStringT@DV?$StrTraitMFC_DLL@DV?$ChTraitsCRT@D@ATL@@@@@ATL@@QAE@XZ
__unwindfunclet$?GetSubGraphStringData@CSubGraphPartData@@QAEXAAV?$CStringT@DV?$StrTraitMFC_DLL@DV?$ChTraitsCRT@D@ATL@@@@@ATL@@H_N@Z$2:
  00012	8d 4d f0	 lea	 ecx, DWORD PTR _OldTitle$2[ebp]
  00015	ff 25 00 00 00
	00		 jmp	 DWORD PTR __imp_??1?$CStringT@DV?$StrTraitMFC_DLL@DV?$ChTraitsCRT@D@ATL@@@@@ATL@@QAE@XZ
  0001b	cc		 int	 3
  0001c	cc		 int	 3
  0001d	cc		 int	 3
  0001e	cc		 int	 3
  0001f	cc		 int	 3
__ehhandler$?GetSubGraphStringData@CSubGraphPartData@@QAEXAAV?$CStringT@DV?$StrTraitMFC_DLL@DV?$ChTraitsCRT@D@ATL@@@@@ATL@@H_N@Z:
  00020	90		 npad	 1
  00021	90		 npad	 1
  00022	8b 54 24 08	 mov	 edx, DWORD PTR [esp+8]
  00026	8d 42 0c	 lea	 eax, DWORD PTR [edx+12]
  00029	8b 4a ec	 mov	 ecx, DWORD PTR [edx-20]
  0002c	33 c8		 xor	 ecx, eax
  0002e	e8 00 00 00 00	 call	 @__security_check_cookie@4
  00033	b8 00 00 00 00	 mov	 eax, OFFSET __ehfuncinfo$?GetSubGraphStringData@CSubGraphPartData@@QAEXAAV?$CStringT@DV?$StrTraitMFC_DLL@DV?$ChTraitsCRT@D@ATL@@@@@ATL@@H_N@Z
  00038	e9 00 00 00 00	 jmp	 ___CxxFrameHandler3
text$x	ENDS
?GetSubGraphStringData@CSubGraphPartData@@QAEXAAV?$CStringT@DV?$StrTraitMFC_DLL@DV?$ChTraitsCRT@D@ATL@@@@@ATL@@H_N@Z ENDP ; CSubGraphPartData::GetSubGraphStringData
; Function compile flags: /Ogtp
; File D:\git\src\IBK\IBK_DRFN\ProjSrc\SrcChartEx\ChartOCX\IndicatorCondition\IndicatorConditionBaseData.cpp
;	COMDAT ?GetSubGraphStringData@CSubGraphPartData@@QBEXAAV?$CStringT@DV?$StrTraitMFC_DLL@DV?$ChTraitsCRT@D@ATL@@@@@ATL@@@Z
_TEXT	SEGMENT
_p_strSubGraphData$ = 8					; size = 4
?GetSubGraphStringData@CSubGraphPartData@@QBEXAAV?$CStringT@DV?$StrTraitMFC_DLL@DV?$ChTraitsCRT@D@ATL@@@@@ATL@@@Z PROC ; CSubGraphPartData::GetSubGraphStringData, COMDAT
; _this$ = ecx

; 122  : {

  00000	55		 push	 ebp
  00001	8b ec		 mov	 ebp, esp

; 123  : 	m_subGraphData.GetStringData( p_strSubGraphData);

  00003	83 c1 24	 add	 ecx, 36			; 00000024H

; 124  : }

  00006	5d		 pop	 ebp

; 123  : 	m_subGraphData.GetStringData( p_strSubGraphData);

  00007	e9 00 00 00 00	 jmp	 ?GetStringData@CSubGraphDataBase@@QBEXAAV?$CStringT@DV?$StrTraitMFC_DLL@DV?$ChTraitsCRT@D@ATL@@@@@ATL@@@Z ; CSubGraphDataBase::GetStringData
?GetSubGraphStringData@CSubGraphPartData@@QBEXAAV?$CStringT@DV?$StrTraitMFC_DLL@DV?$ChTraitsCRT@D@ATL@@@@@ATL@@@Z ENDP ; CSubGraphPartData::GetSubGraphStringData
_TEXT	ENDS
; Function compile flags: /Ogtp
; File D:\git\src\IBK\IBK_DRFN\ProjSrc\SrcChartEx\ChartOCX\IndicatorCondition\IndicatorConditionBaseData.cpp
;	COMDAT ?GetSubGraphName@CSubGraphPartData@@QBE?AV?$CStringT@DV?$StrTraitMFC_DLL@DV?$ChTraitsCRT@D@ATL@@@@@ATL@@XZ
_TEXT	SEGMENT
___$ReturnUdt$ = 8					; size = 4
?GetSubGraphName@CSubGraphPartData@@QBE?AV?$CStringT@DV?$StrTraitMFC_DLL@DV?$ChTraitsCRT@D@ATL@@@@@ATL@@XZ PROC ; CSubGraphPartData::GetSubGraphName, COMDAT
; _this$ = ecx

; 117  : {

  00000	55		 push	 ebp
  00001	8b ec		 mov	 ebp, esp

; 118  : 	return m_subGraphData.GetName();

  00003	ff 75 08	 push	 DWORD PTR ___$ReturnUdt$[ebp]
  00006	83 c1 24	 add	 ecx, 36			; 00000024H
  00009	e8 00 00 00 00	 call	 ?GetName@CSubGraphDataBase@@QBE?AV?$CStringT@DV?$StrTraitMFC_DLL@DV?$ChTraitsCRT@D@ATL@@@@@ATL@@XZ ; CSubGraphDataBase::GetName
  0000e	8b 45 08	 mov	 eax, DWORD PTR ___$ReturnUdt$[ebp]

; 119  : }

  00011	5d		 pop	 ebp
  00012	c2 04 00	 ret	 4
?GetSubGraphName@CSubGraphPartData@@QBE?AV?$CStringT@DV?$StrTraitMFC_DLL@DV?$ChTraitsCRT@D@ATL@@@@@ATL@@XZ ENDP ; CSubGraphPartData::GetSubGraphName
_TEXT	ENDS
; Function compile flags: /Ogtp
; File D:\git\src\IBK\IBK_DRFN\ProjSrc\SrcChartEx\ChartOCX\IndicatorCondition\IndicatorConditionBaseData.cpp
;	COMDAT ?GetCalPacketNames@CSubGraphPartData@@QBE?AV?$CStringT@DV?$StrTraitMFC_DLL@DV?$ChTraitsCRT@D@ATL@@@@@ATL@@XZ
_TEXT	SEGMENT
___$ReturnUdt$ = 8					; size = 4
?GetCalPacketNames@CSubGraphPartData@@QBE?AV?$CStringT@DV?$StrTraitMFC_DLL@DV?$ChTraitsCRT@D@ATL@@@@@ATL@@XZ PROC ; CSubGraphPartData::GetCalPacketNames, COMDAT
; _this$ = ecx

; 112  : {

  00000	55		 push	 ebp
  00001	8b ec		 mov	 ebp, esp

; 113  : 	return m_strCalPacketNames;

  00003	8d 41 04	 lea	 eax, DWORD PTR [ecx+4]
  00006	8b 4d 08	 mov	 ecx, DWORD PTR ___$ReturnUdt$[ebp]
  00009	50		 push	 eax
  0000a	ff 15 00 00 00
	00		 call	 DWORD PTR __imp_??0?$CStringT@DV?$StrTraitMFC_DLL@DV?$ChTraitsCRT@D@ATL@@@@@ATL@@QAE@ABV01@@Z
  00010	8b 45 08	 mov	 eax, DWORD PTR ___$ReturnUdt$[ebp]

; 114  : }

  00013	5d		 pop	 ebp
  00014	c2 04 00	 ret	 4
?GetCalPacketNames@CSubGraphPartData@@QBE?AV?$CStringT@DV?$StrTraitMFC_DLL@DV?$ChTraitsCRT@D@ATL@@@@@ATL@@XZ ENDP ; CSubGraphPartData::GetCalPacketNames
_TEXT	ENDS
; Function compile flags: /Ogtp
; File D:\git\src\IBK\IBK_DRFN\ProjSrc\SrcChartEx\ChartOCX\IndicatorCondition\IndicatorConditionBaseData.cpp
; File C:\Program Files (x86)\Microsoft Visual Studio\2019\Community\VC\Tools\MSVC\14.29.30133\atlmfc\include\afxtempl.h
; File D:\git\src\IBK\IBK_DRFN\ProjSrc\SrcChartEx\ChartOCX\IndicatorCondition\IndicatorConditionBaseData.cpp
;	COMDAT ?GetConditionData@CSubGraphPartData@@QBE_NHAAV?$CStringT@DV?$StrTraitMFC_DLL@DV?$ChTraitsCRT@D@ATL@@@@@ATL@@@Z
_TEXT	SEGMENT
_dData$ = -20						; size = 8
__$EHRec$ = -12						; size = 12
$T2 = 8							; size = 4
_nIndex$ = 8						; size = 4
_strData$ = 12						; size = 4
?GetConditionData@CSubGraphPartData@@QBE_NHAAV?$CStringT@DV?$StrTraitMFC_DLL@DV?$ChTraitsCRT@D@ATL@@@@@ATL@@@Z PROC ; CSubGraphPartData::GetConditionData, COMDAT
; _this$ = ecx

; 102  : {

  00000	55		 push	 ebp
  00001	8b ec		 mov	 ebp, esp
  00003	6a ff		 push	 -1
  00005	68 00 00 00 00	 push	 __ehhandler$?GetConditionData@CSubGraphPartData@@QBE_NHAAV?$CStringT@DV?$StrTraitMFC_DLL@DV?$ChTraitsCRT@D@ATL@@@@@ATL@@@Z
  0000a	64 a1 00 00 00
	00		 mov	 eax, DWORD PTR fs:0
  00010	50		 push	 eax
  00011	83 ec 08	 sub	 esp, 8
  00014	a1 00 00 00 00	 mov	 eax, DWORD PTR ___security_cookie
  00019	33 c5		 xor	 eax, ebp
  0001b	50		 push	 eax
  0001c	8d 45 f4	 lea	 eax, DWORD PTR __$EHRec$[ebp]
  0001f	64 a3 00 00 00
	00		 mov	 DWORD PTR fs:0, eax

; 90   : 	if(nIndex < 0)

  00025	8b 45 08	 mov	 eax, DWORD PTR _nIndex$[ebp]
  00028	85 c0		 test	 eax, eax
  0002a	78 5e		 js	 SHORT $LN20@GetConditi
; File C:\Program Files (x86)\Microsoft Visual Studio\2019\Community\VC\Tools\MSVC\14.29.30133\atlmfc\include\afxtempl.h

; 1133 : 	if (nIndex >= m_nCount || nIndex < 0)

  0002c	3b 41 14	 cmp	 eax, DWORD PTR [ecx+20]
  0002f	7d 59		 jge	 SHORT $LN20@GetConditi

; 1134 : 		return NULL;  // went too far
; 1135 : 
; 1136 : 	CNode* pNode = m_pNodeHead;

  00031	8b 49 0c	 mov	 ecx, DWORD PTR [ecx+12]

; 1137 : 	while (nIndex--)

  00034	85 c0		 test	 eax, eax
  00036	74 07		 je	 SHORT $LN16@GetConditi
$LL10@GetConditi:

; 1138 : 	{
; 1139 : 		ASSERT(AfxIsValidAddress(pNode, sizeof(CNode)));
; 1140 : 		pNode = pNode->pNext;

  00038	8b 09		 mov	 ecx, DWORD PTR [ecx]
  0003a	83 e8 01	 sub	 eax, 1
  0003d	75 f9		 jne	 SHORT $LL10@GetConditi
$LN16@GetConditi:
; File D:\git\src\IBK\IBK_DRFN\ProjSrc\SrcChartEx\ChartOCX\IndicatorCondition\IndicatorConditionBaseData.cpp

; 94   : 	if(pos == NULL)

  0003f	85 c9		 test	 ecx, ecx
  00041	74 47		 je	 SHORT $LN20@GetConditi

; 95   : 		return false;
; 96   : 
; 97   : 	dData = m_calConditionList.GetAt(pos);

  00043	f2 0f 10 41 08	 movsd	 xmm0, QWORD PTR [ecx+8]

; 106  : 
; 107  : 	strData = CDataConversion::DoubleToString(dData);

  00048	8d 45 ec	 lea	 eax, DWORD PTR _dData$[ebp]
  0004b	50		 push	 eax
  0004c	8d 45 08	 lea	 eax, DWORD PTR $T2[ebp]

; 97   : 	dData = m_calConditionList.GetAt(pos);

  0004f	f2 0f 11 45 ec	 movsd	 QWORD PTR _dData$[ebp], xmm0

; 106  : 
; 107  : 	strData = CDataConversion::DoubleToString(dData);

  00054	50		 push	 eax
  00055	e8 00 00 00 00	 call	 ?DoubleToString@CDataConversion@@SA?AV?$CStringT@DV?$StrTraitMFC_DLL@DV?$ChTraitsCRT@D@ATL@@@@@ATL@@ABN@Z ; CDataConversion::DoubleToString
  0005a	83 c4 08	 add	 esp, 8
  0005d	8b 4d 0c	 mov	 ecx, DWORD PTR _strData$[ebp]
  00060	50		 push	 eax
  00061	c7 45 fc 00 00
	00 00		 mov	 DWORD PTR __$EHRec$[ebp+8], 0
  00068	ff 15 00 00 00
	00		 call	 DWORD PTR __imp_??4?$CStringT@DV?$StrTraitMFC_DLL@DV?$ChTraitsCRT@D@ATL@@@@@ATL@@QAEAAV01@ABV01@@Z
  0006e	8d 4d 08	 lea	 ecx, DWORD PTR $T2[ebp]
  00071	ff 15 00 00 00
	00		 call	 DWORD PTR __imp_??1?$CStringT@DV?$StrTraitMFC_DLL@DV?$ChTraitsCRT@D@ATL@@@@@ATL@@QAE@XZ

; 108  : 	return true;

  00077	b0 01		 mov	 al, 1

; 109  : }

  00079	8b 4d f4	 mov	 ecx, DWORD PTR __$EHRec$[ebp]
  0007c	64 89 0d 00 00
	00 00		 mov	 DWORD PTR fs:0, ecx
  00083	59		 pop	 ecx
  00084	8b e5		 mov	 esp, ebp
  00086	5d		 pop	 ebp
  00087	c2 08 00	 ret	 8
$LN20@GetConditi:

; 103  : 	double dData = 0.0;
; 104  : 	if(!GetConditionData(nIndex, dData))
; 105  : 		return false;

  0008a	32 c0		 xor	 al, al

; 109  : }

  0008c	8b 4d f4	 mov	 ecx, DWORD PTR __$EHRec$[ebp]
  0008f	64 89 0d 00 00
	00 00		 mov	 DWORD PTR fs:0, ecx
  00096	59		 pop	 ecx
  00097	8b e5		 mov	 esp, ebp
  00099	5d		 pop	 ebp
  0009a	c2 08 00	 ret	 8
_TEXT	ENDS
;	COMDAT text$x
text$x	SEGMENT
__unwindfunclet$?GetConditionData@CSubGraphPartData@@QBE_NHAAV?$CStringT@DV?$StrTraitMFC_DLL@DV?$ChTraitsCRT@D@ATL@@@@@ATL@@@Z$0:
  00000	8d 4d 08	 lea	 ecx, DWORD PTR $T2[ebp]
  00003	ff 25 00 00 00
	00		 jmp	 DWORD PTR __imp_??1?$CStringT@DV?$StrTraitMFC_DLL@DV?$ChTraitsCRT@D@ATL@@@@@ATL@@QAE@XZ
  00009	cc		 int	 3
  0000a	cc		 int	 3
  0000b	cc		 int	 3
  0000c	cc		 int	 3
  0000d	cc		 int	 3
__ehhandler$?GetConditionData@CSubGraphPartData@@QBE_NHAAV?$CStringT@DV?$StrTraitMFC_DLL@DV?$ChTraitsCRT@D@ATL@@@@@ATL@@@Z:
  0000e	90		 npad	 1
  0000f	90		 npad	 1
  00010	8b 54 24 08	 mov	 edx, DWORD PTR [esp+8]
  00014	8d 42 0c	 lea	 eax, DWORD PTR [edx+12]
  00017	8b 4a f4	 mov	 ecx, DWORD PTR [edx-12]
  0001a	33 c8		 xor	 ecx, eax
  0001c	e8 00 00 00 00	 call	 @__security_check_cookie@4
  00021	b8 00 00 00 00	 mov	 eax, OFFSET __ehfuncinfo$?GetConditionData@CSubGraphPartData@@QBE_NHAAV?$CStringT@DV?$StrTraitMFC_DLL@DV?$ChTraitsCRT@D@ATL@@@@@ATL@@@Z
  00026	e9 00 00 00 00	 jmp	 ___CxxFrameHandler3
text$x	ENDS
?GetConditionData@CSubGraphPartData@@QBE_NHAAV?$CStringT@DV?$StrTraitMFC_DLL@DV?$ChTraitsCRT@D@ATL@@@@@ATL@@@Z ENDP ; CSubGraphPartData::GetConditionData
; Function compile flags: /Ogtp
; File D:\git\src\IBK\IBK_DRFN\ProjSrc\SrcChartEx\ChartOCX\IndicatorCondition\IndicatorConditionBaseData.cpp
; File C:\Program Files (x86)\Microsoft Visual Studio\2019\Community\VC\Tools\MSVC\14.29.30133\atlmfc\include\afxtempl.h
; File D:\git\src\IBK\IBK_DRFN\ProjSrc\SrcChartEx\ChartOCX\IndicatorCondition\IndicatorConditionBaseData.cpp
;	COMDAT ?GetConditionData@CSubGraphPartData@@QBE_NHAAN@Z
_TEXT	SEGMENT
_nIndex$ = 8						; size = 4
_dData$ = 12						; size = 4
?GetConditionData@CSubGraphPartData@@QBE_NHAAN@Z PROC	; CSubGraphPartData::GetConditionData, COMDAT
; _this$ = ecx

; 89   : {

  00000	55		 push	 ebp
  00001	8b ec		 mov	 ebp, esp

; 90   : 	if(nIndex < 0)

  00003	8b 45 08	 mov	 eax, DWORD PTR _nIndex$[ebp]
  00006	85 c0		 test	 eax, eax
  00008	78 29		 js	 SHORT $LN16@GetConditi
; File C:\Program Files (x86)\Microsoft Visual Studio\2019\Community\VC\Tools\MSVC\14.29.30133\atlmfc\include\afxtempl.h

; 1133 : 	if (nIndex >= m_nCount || nIndex < 0)

  0000a	3b 41 14	 cmp	 eax, DWORD PTR [ecx+20]
  0000d	7d 24		 jge	 SHORT $LN16@GetConditi

; 1134 : 		return NULL;  // went too far
; 1135 : 
; 1136 : 	CNode* pNode = m_pNodeHead;

  0000f	8b 49 0c	 mov	 ecx, DWORD PTR [ecx+12]

; 1137 : 	while (nIndex--)

  00012	85 c0		 test	 eax, eax
  00014	74 07		 je	 SHORT $LN12@GetConditi
$LL6@GetConditi:

; 1138 : 	{
; 1139 : 		ASSERT(AfxIsValidAddress(pNode, sizeof(CNode)));
; 1140 : 		pNode = pNode->pNext;

  00016	8b 09		 mov	 ecx, DWORD PTR [ecx]
  00018	83 e8 01	 sub	 eax, 1
  0001b	75 f9		 jne	 SHORT $LL6@GetConditi
$LN12@GetConditi:
; File D:\git\src\IBK\IBK_DRFN\ProjSrc\SrcChartEx\ChartOCX\IndicatorCondition\IndicatorConditionBaseData.cpp

; 94   : 	if(pos == NULL)

  0001d	85 c9		 test	 ecx, ecx
  0001f	74 12		 je	 SHORT $LN16@GetConditi

; 96   : 
; 97   : 	dData = m_calConditionList.GetAt(pos);

  00021	8b 45 0c	 mov	 eax, DWORD PTR _dData$[ebp]
  00024	f2 0f 10 41 08	 movsd	 xmm0, QWORD PTR [ecx+8]
  00029	f2 0f 11 00	 movsd	 QWORD PTR [eax], xmm0

; 98   : 	return true;

  0002d	b0 01		 mov	 al, 1

; 99   : }

  0002f	5d		 pop	 ebp
  00030	c2 08 00	 ret	 8
$LN16@GetConditi:

; 95   : 		return false;

  00033	32 c0		 xor	 al, al

; 99   : }

  00035	5d		 pop	 ebp
  00036	c2 08 00	 ret	 8
?GetConditionData@CSubGraphPartData@@QBE_NHAAN@Z ENDP	; CSubGraphPartData::GetConditionData
_TEXT	ENDS
; Function compile flags: /Ogtp
; File D:\git\src\IBK\IBK_DRFN\ProjSrc\SrcChartEx\ChartOCX\IndicatorCondition\IndicatorConditionBaseData.cpp
;	COMDAT ?GetSubGraphData_PointeType@CSubGraphPartData@@QAEPAVCSubGraphData@@XZ
_TEXT	SEGMENT
?GetSubGraphData_PointeType@CSubGraphPartData@@QAEPAVCSubGraphData@@XZ PROC ; CSubGraphPartData::GetSubGraphData_PointeType, COMDAT
; _this$ = ecx

; 84   : 	return &m_subGraphData;

  00000	8d 41 24	 lea	 eax, DWORD PTR [ecx+36]

; 85   : }

  00003	c3		 ret	 0
?GetSubGraphData_PointeType@CSubGraphPartData@@QAEPAVCSubGraphData@@XZ ENDP ; CSubGraphPartData::GetSubGraphData_PointeType
_TEXT	ENDS
; Function compile flags: /Ogtp
; File D:\git\src\IBK\IBK_DRFN\ProjSrc\SrcChartEx\ChartOCX\IndicatorCondition\IndicatorConditionBaseData.cpp
;	COMDAT ?GetSubGraphData@CSubGraphPartData@@QAEAAVCSubGraphData@@XZ
_TEXT	SEGMENT
?GetSubGraphData@CSubGraphPartData@@QAEAAVCSubGraphData@@XZ PROC ; CSubGraphPartData::GetSubGraphData, COMDAT
; _this$ = ecx

; 79   : 	return m_subGraphData;

  00000	8d 41 24	 lea	 eax, DWORD PTR [ecx+36]

; 80   : }

  00003	c3		 ret	 0
?GetSubGraphData@CSubGraphPartData@@QAEAAVCSubGraphData@@XZ ENDP ; CSubGraphPartData::GetSubGraphData
_TEXT	ENDS
; Function compile flags: /Ogtp
; File D:\git\src\IBK\IBK_DRFN\ProjSrc\SrcChartEx\ChartOCX\IndicatorCondition\IndicatorConditionBaseData.cpp
;	COMDAT ?GetSubGraphData@CSubGraphPartData@@QBEABVCSubGraphData@@XZ
_TEXT	SEGMENT
?GetSubGraphData@CSubGraphPartData@@QBEABVCSubGraphData@@XZ PROC ; CSubGraphPartData::GetSubGraphData, COMDAT
; _this$ = ecx

; 74   : 	return m_subGraphData;

  00000	8d 41 24	 lea	 eax, DWORD PTR [ecx+36]

; 75   : }

  00003	c3		 ret	 0
?GetSubGraphData@CSubGraphPartData@@QBEABVCSubGraphData@@XZ ENDP ; CSubGraphPartData::GetSubGraphData
_TEXT	ENDS
; Function compile flags: /Ogtp
; File D:\git\src\IBK\IBK_DRFN\ProjSrc\SrcChartEx\ChartOCX\IndicatorCondition\IndicatorConditionBaseData.cpp
;	COMDAT ?GetConditionList@CSubGraphPartData@@QAEAAV?$CList@NN@@XZ
_TEXT	SEGMENT
?GetConditionList@CSubGraphPartData@@QAEAAV?$CList@NN@@XZ PROC ; CSubGraphPartData::GetConditionList, COMDAT
; _this$ = ecx

; 69   : 	return m_calConditionList;

  00000	8d 41 08	 lea	 eax, DWORD PTR [ecx+8]

; 70   : }

  00003	c3		 ret	 0
?GetConditionList@CSubGraphPartData@@QAEAAV?$CList@NN@@XZ ENDP ; CSubGraphPartData::GetConditionList
_TEXT	ENDS
; Function compile flags: /Ogtp
; File D:\git\src\IBK\IBK_DRFN\ProjSrc\SrcChartEx\ChartOCX\IndicatorCondition\IndicatorConditionBaseData.cpp
;	COMDAT ?GetConditionList@CSubGraphPartData@@QBEABV?$CList@NN@@XZ
_TEXT	SEGMENT
?GetConditionList@CSubGraphPartData@@QBEABV?$CList@NN@@XZ PROC ; CSubGraphPartData::GetConditionList, COMDAT
; _this$ = ecx

; 64   : 	return m_calConditionList;

  00000	8d 41 08	 lea	 eax, DWORD PTR [ecx+8]

; 65   : }

  00003	c3		 ret	 0
?GetConditionList@CSubGraphPartData@@QBEABV?$CList@NN@@XZ ENDP ; CSubGraphPartData::GetConditionList
_TEXT	ENDS
; Function compile flags: /Ogtp
; File D:\git\src\IBK\IBK_DRFN\ProjSrc\SrcChartEx\ChartOCX\IndicatorCondition\IndicatorConditionBaseData.cpp
; File C:\Program Files (x86)\Microsoft Visual Studio\2019\Community\VC\Tools\MSVC\14.29.30133\atlmfc\include\afxtempl.h
; File D:\git\src\IBK\IBK_DRFN\ProjSrc\SrcChartEx\ChartOCX\IndicatorCondition\IndicatorConditionBaseData.cpp
; File C:\Program Files (x86)\Microsoft Visual Studio\2019\Community\VC\Tools\MSVC\14.29.30133\atlmfc\include\afxtempl.h
; File D:\git\src\IBK\IBK_DRFN\ProjSrc\SrcChartEx\ChartOCX\IndicatorCondition\IndicatorConditionBaseData.cpp
; File C:\Program Files (x86)\Microsoft Visual Studio\2019\Community\VC\Tools\MSVC\14.29.30133\atlmfc\include\afxtempl.h
; File D:\git\src\IBK\IBK_DRFN\ProjSrc\SrcChartEx\ChartOCX\IndicatorCondition\IndicatorConditionBaseData.cpp
; File C:\Program Files (x86)\Microsoft Visual Studio\2019\Community\VC\Tools\MSVC\14.29.30133\atlmfc\include\afxtempl.h
; File D:\git\src\IBK\IBK_DRFN\ProjSrc\SrcChartEx\ChartOCX\IndicatorCondition\IndicatorConditionBaseData.cpp
;	COMDAT ??1CSubGraphPartData@@UAE@XZ
_TEXT	SEGMENT
__$EHRec$ = -12						; size = 12
??1CSubGraphPartData@@UAE@XZ PROC			; CSubGraphPartData::~CSubGraphPartData, COMDAT
; _this$ = ecx

; 56   : {

  00000	55		 push	 ebp
  00001	8b ec		 mov	 ebp, esp
  00003	6a ff		 push	 -1
  00005	68 00 00 00 00	 push	 __ehhandler$??1CSubGraphPartData@@UAE@XZ
  0000a	64 a1 00 00 00
	00		 mov	 eax, DWORD PTR fs:0
  00010	50		 push	 eax
  00011	56		 push	 esi
  00012	a1 00 00 00 00	 mov	 eax, DWORD PTR ___security_cookie
  00017	33 c5		 xor	 eax, ebp
  00019	50		 push	 eax
  0001a	8d 45 f4	 lea	 eax, DWORD PTR __$EHRec$[ebp]
  0001d	64 a3 00 00 00
	00		 mov	 DWORD PTR fs:0, eax
  00023	8b f1		 mov	 esi, ecx
  00025	c7 06 00 00 00
	00		 mov	 DWORD PTR [esi], OFFSET ??_7CSubGraphPartData@@6B@
; File C:\Program Files (x86)\Microsoft Visual Studio\2019\Community\VC\Tools\MSVC\14.29.30133\atlmfc\include\afxtempl.h

; 872  : 	m_pBlocks->FreeDataChain();

  0002b	8b 4e 1c	 mov	 ecx, DWORD PTR [esi+28]
  0002e	c7 46 14 00 00
	00 00		 mov	 DWORD PTR [esi+20], 0
  00035	c7 46 18 00 00
	00 00		 mov	 DWORD PTR [esi+24], 0
  0003c	c7 46 10 00 00
	00 00		 mov	 DWORD PTR [esi+16], 0
  00043	c7 46 0c 00 00
	00 00		 mov	 DWORD PTR [esi+12], 0
  0004a	e8 00 00 00 00	 call	 ?FreeDataChain@CPlex@@QAEXXZ ; CPlex::FreeDataChain
; File D:\git\src\IBK\IBK_DRFN\ProjSrc\SrcChartEx\ChartOCX\IndicatorCondition\IndicatorConditionBaseData.cpp

; 58   : }

  0004f	8d 4e 24	 lea	 ecx, DWORD PTR [esi+36]
; File C:\Program Files (x86)\Microsoft Visual Studio\2019\Community\VC\Tools\MSVC\14.29.30133\atlmfc\include\afxtempl.h

; 873  : 	m_pBlocks = NULL;

  00052	c7 46 1c 00 00
	00 00		 mov	 DWORD PTR [esi+28], 0
; File D:\git\src\IBK\IBK_DRFN\ProjSrc\SrcChartEx\ChartOCX\IndicatorCondition\IndicatorConditionBaseData.cpp

; 58   : }

  00059	e8 00 00 00 00	 call	 ??1CSubGraphData@@QAE@XZ ; CSubGraphData::~CSubGraphData
; File C:\Program Files (x86)\Microsoft Visual Studio\2019\Community\VC\Tools\MSVC\14.29.30133\atlmfc\include\afxtempl.h

; 872  : 	m_pBlocks->FreeDataChain();

  0005e	8b 4e 1c	 mov	 ecx, DWORD PTR [esi+28]

; 878  : {

  00061	c7 45 fc 00 00
	00 00		 mov	 DWORD PTR __$EHRec$[ebp+8], 0
  00068	c7 46 08 00 00
	00 00		 mov	 DWORD PTR [esi+8], OFFSET ??_7?$CList@NN@@6B@

; 870  : 	m_nCount = 0;

  0006f	c7 46 14 00 00
	00 00		 mov	 DWORD PTR [esi+20], 0

; 871  : 	m_pNodeHead = m_pNodeTail = m_pNodeFree = NULL;

  00076	c7 46 18 00 00
	00 00		 mov	 DWORD PTR [esi+24], 0
  0007d	c7 46 10 00 00
	00 00		 mov	 DWORD PTR [esi+16], 0
  00084	c7 46 0c 00 00
	00 00		 mov	 DWORD PTR [esi+12], 0

; 872  : 	m_pBlocks->FreeDataChain();

  0008b	e8 00 00 00 00	 call	 ?FreeDataChain@CPlex@@QAEXXZ ; CPlex::FreeDataChain
; File D:\git\src\IBK\IBK_DRFN\ProjSrc\SrcChartEx\ChartOCX\IndicatorCondition\IndicatorConditionBaseData.cpp

; 58   : }

  00090	8d 4e 04	 lea	 ecx, DWORD PTR [esi+4]
; File C:\Program Files (x86)\Microsoft Visual Studio\2019\Community\VC\Tools\MSVC\14.29.30133\atlmfc\include\afxtempl.h

; 873  : 	m_pBlocks = NULL;

  00093	c7 46 1c 00 00
	00 00		 mov	 DWORD PTR [esi+28], 0
; File D:\git\src\IBK\IBK_DRFN\ProjSrc\SrcChartEx\ChartOCX\IndicatorCondition\IndicatorConditionBaseData.cpp

; 58   : }

  0009a	ff 15 00 00 00
	00		 call	 DWORD PTR __imp_??1?$CStringT@DV?$StrTraitMFC_DLL@DV?$ChTraitsCRT@D@ATL@@@@@ATL@@QAE@XZ
  000a0	8b 4d f4	 mov	 ecx, DWORD PTR __$EHRec$[ebp]
  000a3	64 89 0d 00 00
	00 00		 mov	 DWORD PTR fs:0, ecx
  000aa	59		 pop	 ecx
  000ab	5e		 pop	 esi
  000ac	8b e5		 mov	 esp, ebp
  000ae	5d		 pop	 ebp
  000af	c3		 ret	 0
  000b0	cc		 int	 3
  000b1	cc		 int	 3
  000b2	cc		 int	 3
  000b3	cc		 int	 3
  000b4	cc		 int	 3
_TEXT	ENDS
;	COMDAT text$x
text$x	SEGMENT
__ehhandler$??1CSubGraphPartData@@UAE@XZ:
  00000	90		 npad	 1
  00001	90		 npad	 1
  00002	8b 54 24 08	 mov	 edx, DWORD PTR [esp+8]
  00006	8d 42 0c	 lea	 eax, DWORD PTR [edx+12]
  00009	8b 4a f8	 mov	 ecx, DWORD PTR [edx-8]
  0000c	33 c8		 xor	 ecx, eax
  0000e	e8 00 00 00 00	 call	 @__security_check_cookie@4
  00013	b8 00 00 00 00	 mov	 eax, OFFSET __ehfuncinfo$??1CSubGraphPartData@@UAE@XZ
  00018	e9 00 00 00 00	 jmp	 ___CxxFrameHandler3
text$x	ENDS
??1CSubGraphPartData@@UAE@XZ ENDP			; CSubGraphPartData::~CSubGraphPartData
; Function compile flags: /Ogtp
; File D:\git\src\IBK\IBK_DRFN\ProjSrc\SrcChartEx\ChartOCX\IndicatorCondition\IndicatorConditionBaseData.cpp
; File C:\Program Files (x86)\Microsoft Visual Studio\2019\Community\VC\Tools\MSVC\14.29.30133\atlmfc\include\afxtempl.h
; File D:\git\src\IBK\IBK_DRFN\ProjSrc\SrcChartEx\ChartOCX\IndicatorCondition\IndicatorConditionBaseData.cpp
;	COMDAT ??0CSubGraphPartData@@QAE@ABVCSubGraphData@@@Z
_TEXT	SEGMENT
_this$ = -16						; size = 4
__$EHRec$ = -12						; size = 12
_subGraphData$ = 8					; size = 4
??0CSubGraphPartData@@QAE@ABVCSubGraphData@@@Z PROC	; CSubGraphPartData::CSubGraphPartData, COMDAT
; _this$ = ecx

; 52   : {

  00000	55		 push	 ebp
  00001	8b ec		 mov	 ebp, esp
  00003	6a ff		 push	 -1
  00005	68 00 00 00 00	 push	 __ehhandler$??0CSubGraphPartData@@QAE@ABVCSubGraphData@@@Z
  0000a	64 a1 00 00 00
	00		 mov	 eax, DWORD PTR fs:0
  00010	50		 push	 eax
  00011	51		 push	 ecx
  00012	56		 push	 esi
  00013	a1 00 00 00 00	 mov	 eax, DWORD PTR ___security_cookie
  00018	33 c5		 xor	 eax, ebp
  0001a	50		 push	 eax
  0001b	8d 45 f4	 lea	 eax, DWORD PTR __$EHRec$[ebp]
  0001e	64 a3 00 00 00
	00		 mov	 DWORD PTR fs:0, eax
  00024	8b f1		 mov	 esi, ecx
  00026	89 75 f0	 mov	 DWORD PTR _this$[ebp], esi
  00029	8d 4e 04	 lea	 ecx, DWORD PTR [esi+4]
  0002c	c7 06 00 00 00
	00		 mov	 DWORD PTR [esi], OFFSET ??_7CSubGraphPartData@@6B@
  00032	ff 15 00 00 00
	00		 call	 DWORD PTR __imp_??0?$CStringT@DV?$StrTraitMFC_DLL@DV?$ChTraitsCRT@D@ATL@@@@@ATL@@QAE@XZ
  00038	c7 45 fc 00 00
	00 00		 mov	 DWORD PTR __$EHRec$[ebp+8], 0
; File C:\Program Files (x86)\Microsoft Visual Studio\2019\Community\VC\Tools\MSVC\14.29.30133\atlmfc\include\afxtempl.h

; 851  : {

  0003f	c7 46 08 00 00
	00 00		 mov	 DWORD PTR [esi+8], OFFSET ??_7?$CList@NN@@6B@

; 852  : 	ASSERT(nBlockSize > 0);
; 853  : 
; 854  : 	m_nCount = 0;

  00046	c7 46 14 00 00
	00 00		 mov	 DWORD PTR [esi+20], 0

; 855  : 	m_pNodeHead = m_pNodeTail = m_pNodeFree = NULL;

  0004d	c7 46 18 00 00
	00 00		 mov	 DWORD PTR [esi+24], 0
  00054	c7 46 10 00 00
	00 00		 mov	 DWORD PTR [esi+16], 0
  0005b	c7 46 0c 00 00
	00 00		 mov	 DWORD PTR [esi+12], 0

; 856  : 	m_pBlocks = NULL;

  00062	c7 46 1c 00 00
	00 00		 mov	 DWORD PTR [esi+28], 0

; 857  : 	m_nBlockSize = nBlockSize;

  00069	c7 46 20 0a 00
	00 00		 mov	 DWORD PTR [esi+32], 10	; 0000000aH
; File D:\git\src\IBK\IBK_DRFN\ProjSrc\SrcChartEx\ChartOCX\IndicatorCondition\IndicatorConditionBaseData.cpp

; 52   : {

  00070	ff 75 08	 push	 DWORD PTR _subGraphData$[ebp]
  00073	8d 4e 24	 lea	 ecx, DWORD PTR [esi+36]
  00076	c6 45 fc 01	 mov	 BYTE PTR __$EHRec$[ebp+8], 1
  0007a	e8 00 00 00 00	 call	 ??0CSubGraphData@@QAE@ABV0@@Z ; CSubGraphData::CSubGraphData

; 53   : }

  0007f	8b c6		 mov	 eax, esi
  00081	8b 4d f4	 mov	 ecx, DWORD PTR __$EHRec$[ebp]
  00084	64 89 0d 00 00
	00 00		 mov	 DWORD PTR fs:0, ecx
  0008b	59		 pop	 ecx
  0008c	5e		 pop	 esi
  0008d	8b e5		 mov	 esp, ebp
  0008f	5d		 pop	 ebp
  00090	c2 04 00	 ret	 4
_TEXT	ENDS
;	COMDAT text$x
text$x	SEGMENT
__unwindfunclet$??0CSubGraphPartData@@QAE@ABVCSubGraphData@@@Z$0:
  00000	8b 4d f0	 mov	 ecx, DWORD PTR _this$[ebp]
  00003	83 c1 04	 add	 ecx, 4
  00006	ff 25 00 00 00
	00		 jmp	 DWORD PTR __imp_??1?$CStringT@DV?$StrTraitMFC_DLL@DV?$ChTraitsCRT@D@ATL@@@@@ATL@@QAE@XZ
__unwindfunclet$??0CSubGraphPartData@@QAE@ABVCSubGraphData@@@Z$1:
  0000c	8b 4d f0	 mov	 ecx, DWORD PTR _this$[ebp]
  0000f	83 c1 08	 add	 ecx, 8
  00012	e9 00 00 00 00	 jmp	 ??1?$CList@NN@@UAE@XZ	; CList<double,double>::~CList<double,double>
  00017	cc		 int	 3
  00018	cc		 int	 3
  00019	cc		 int	 3
  0001a	cc		 int	 3
  0001b	cc		 int	 3
__ehhandler$??0CSubGraphPartData@@QAE@ABVCSubGraphData@@@Z:
  0001c	90		 npad	 1
  0001d	90		 npad	 1
  0001e	8b 54 24 08	 mov	 edx, DWORD PTR [esp+8]
  00022	8d 42 0c	 lea	 eax, DWORD PTR [edx+12]
  00025	8b 4a f4	 mov	 ecx, DWORD PTR [edx-12]
  00028	33 c8		 xor	 ecx, eax
  0002a	e8 00 00 00 00	 call	 @__security_check_cookie@4
  0002f	b8 00 00 00 00	 mov	 eax, OFFSET __ehfuncinfo$??0CSubGraphPartData@@QAE@ABVCSubGraphData@@@Z
  00034	e9 00 00 00 00	 jmp	 ___CxxFrameHandler3
text$x	ENDS
??0CSubGraphPartData@@QAE@ABVCSubGraphData@@@Z ENDP	; CSubGraphPartData::CSubGraphPartData
; Function compile flags: /Ogtp
; File D:\git\src\IBK\IBK_DRFN\ProjSrc\SrcChartEx\ChartOCX\IndicatorCondition\IndicatorConditionBaseData.cpp
; File C:\Program Files (x86)\Microsoft Visual Studio\2019\Community\VC\Tools\MSVC\14.29.30133\atlmfc\include\afxtempl.h
; File D:\git\src\IBK\IBK_DRFN\ProjSrc\SrcChartEx\ChartOCX\IndicatorCondition\IndicatorConditionBaseData.cpp
;	COMDAT ??0CSubGraphPartData@@QAE@ABV0@@Z
_TEXT	SEGMENT
___$ReturnUdt$ = -20					; size = 4
_this$ = -16						; size = 4
__$EHRec$ = -12						; size = 12
_data$ = 8						; size = 4
??0CSubGraphPartData@@QAE@ABV0@@Z PROC			; CSubGraphPartData::CSubGraphPartData, COMDAT
; _this$ = ecx

; 46   : {

  00000	55		 push	 ebp
  00001	8b ec		 mov	 ebp, esp
  00003	6a ff		 push	 -1
  00005	68 00 00 00 00	 push	 __ehhandler$??0CSubGraphPartData@@QAE@ABV0@@Z
  0000a	64 a1 00 00 00
	00		 mov	 eax, DWORD PTR fs:0
  00010	50		 push	 eax
  00011	83 ec 08	 sub	 esp, 8
  00014	56		 push	 esi
  00015	57		 push	 edi
  00016	a1 00 00 00 00	 mov	 eax, DWORD PTR ___security_cookie
  0001b	33 c5		 xor	 eax, ebp
  0001d	50		 push	 eax
  0001e	8d 45 f4	 lea	 eax, DWORD PTR __$EHRec$[ebp]
  00021	64 a3 00 00 00
	00		 mov	 DWORD PTR fs:0, eax
  00027	8b f9		 mov	 edi, ecx
  00029	89 7d f0	 mov	 DWORD PTR _this$[ebp], edi

; 113  : 	return m_strCalPacketNames;

  0002c	8b 75 08	 mov	 esi, DWORD PTR _data$[ebp]

; 44   : 	m_strCalPacketNames(data.GetCalPacketNames()), 

  0002f	8d 4f 04	 lea	 ecx, DWORD PTR [edi+4]

; 46   : {

  00032	c7 07 00 00 00
	00		 mov	 DWORD PTR [edi], OFFSET ??_7CSubGraphPartData@@6B@
  00038	89 4d ec	 mov	 DWORD PTR ___$ReturnUdt$[ebp], ecx

; 113  : 	return m_strCalPacketNames;

  0003b	8d 46 04	 lea	 eax, DWORD PTR [esi+4]
  0003e	50		 push	 eax
  0003f	ff 15 00 00 00
	00		 call	 DWORD PTR __imp_??0?$CStringT@DV?$StrTraitMFC_DLL@DV?$ChTraitsCRT@D@ATL@@@@@ATL@@QAE@ABV01@@Z

; 44   : 	m_strCalPacketNames(data.GetCalPacketNames()), 

  00045	c7 45 fc 00 00
	00 00		 mov	 DWORD PTR __$EHRec$[ebp+8], 0
; File C:\Program Files (x86)\Microsoft Visual Studio\2019\Community\VC\Tools\MSVC\14.29.30133\atlmfc\include\afxtempl.h

; 851  : {

  0004c	c7 47 08 00 00
	00 00		 mov	 DWORD PTR [edi+8], OFFSET ??_7?$CList@NN@@6B@

; 852  : 	ASSERT(nBlockSize > 0);
; 853  : 
; 854  : 	m_nCount = 0;

  00053	c7 47 14 00 00
	00 00		 mov	 DWORD PTR [edi+20], 0

; 855  : 	m_pNodeHead = m_pNodeTail = m_pNodeFree = NULL;

  0005a	c7 47 18 00 00
	00 00		 mov	 DWORD PTR [edi+24], 0
  00061	c7 47 10 00 00
	00 00		 mov	 DWORD PTR [edi+16], 0
  00068	c7 47 0c 00 00
	00 00		 mov	 DWORD PTR [edi+12], 0

; 856  : 	m_pBlocks = NULL;

  0006f	c7 47 1c 00 00
	00 00		 mov	 DWORD PTR [edi+28], 0

; 857  : 	m_nBlockSize = nBlockSize;

  00076	c7 47 20 0a 00
	00 00		 mov	 DWORD PTR [edi+32], 10	; 0000000aH
; File D:\git\src\IBK\IBK_DRFN\ProjSrc\SrcChartEx\ChartOCX\IndicatorCondition\IndicatorConditionBaseData.cpp

; 46   : {

  0007d	8d 46 24	 lea	 eax, DWORD PTR [esi+36]
  00080	c6 45 fc 01	 mov	 BYTE PTR __$EHRec$[ebp+8], 1
  00084	50		 push	 eax
  00085	8d 4f 24	 lea	 ecx, DWORD PTR [edi+36]
  00088	e8 00 00 00 00	 call	 ??0CSubGraphData@@QAE@ABV0@@Z ; CSubGraphData::CSubGraphData

; 47   : 	CopyConditionList(data.GetConditionList());

  0008d	8d 46 08	 lea	 eax, DWORD PTR [esi+8]
  00090	c6 45 fc 02	 mov	 BYTE PTR __$EHRec$[ebp+8], 2
  00094	50		 push	 eax
  00095	8b cf		 mov	 ecx, edi
  00097	e8 00 00 00 00	 call	 ?CopyConditionList@CSubGraphPartData@@AAEXABV?$CList@NN@@@Z ; CSubGraphPartData::CopyConditionList

; 48   : }

  0009c	8b c7		 mov	 eax, edi
  0009e	8b 4d f4	 mov	 ecx, DWORD PTR __$EHRec$[ebp]
  000a1	64 89 0d 00 00
	00 00		 mov	 DWORD PTR fs:0, ecx
  000a8	59		 pop	 ecx
  000a9	5f		 pop	 edi
  000aa	5e		 pop	 esi
  000ab	8b e5		 mov	 esp, ebp
  000ad	5d		 pop	 ebp
  000ae	c2 04 00	 ret	 4
_TEXT	ENDS
;	COMDAT text$x
text$x	SEGMENT
__unwindfunclet$??0CSubGraphPartData@@QAE@ABV0@@Z$0:
  00000	8b 4d f0	 mov	 ecx, DWORD PTR _this$[ebp]
  00003	83 c1 04	 add	 ecx, 4
  00006	ff 25 00 00 00
	00		 jmp	 DWORD PTR __imp_??1?$CStringT@DV?$StrTraitMFC_DLL@DV?$ChTraitsCRT@D@ATL@@@@@ATL@@QAE@XZ
__unwindfunclet$??0CSubGraphPartData@@QAE@ABV0@@Z$1:
  0000c	8b 4d f0	 mov	 ecx, DWORD PTR _this$[ebp]
  0000f	83 c1 08	 add	 ecx, 8
  00012	e9 00 00 00 00	 jmp	 ??1?$CList@NN@@UAE@XZ	; CList<double,double>::~CList<double,double>
__unwindfunclet$??0CSubGraphPartData@@QAE@ABV0@@Z$2:
  00017	8b 4d f0	 mov	 ecx, DWORD PTR _this$[ebp]
  0001a	83 c1 24	 add	 ecx, 36			; 00000024H
  0001d	e9 00 00 00 00	 jmp	 ??1CSubGraphData@@QAE@XZ ; CSubGraphData::~CSubGraphData
  00022	cc		 int	 3
  00023	cc		 int	 3
  00024	cc		 int	 3
  00025	cc		 int	 3
  00026	cc		 int	 3
__ehhandler$??0CSubGraphPartData@@QAE@ABV0@@Z:
  00027	90		 npad	 1
  00028	90		 npad	 1
  00029	8b 54 24 08	 mov	 edx, DWORD PTR [esp+8]
  0002d	8d 42 0c	 lea	 eax, DWORD PTR [edx+12]
  00030	8b 4a ec	 mov	 ecx, DWORD PTR [edx-20]
  00033	33 c8		 xor	 ecx, eax
  00035	e8 00 00 00 00	 call	 @__security_check_cookie@4
  0003a	b8 00 00 00 00	 mov	 eax, OFFSET __ehfuncinfo$??0CSubGraphPartData@@QAE@ABV0@@Z
  0003f	e9 00 00 00 00	 jmp	 ___CxxFrameHandler3
text$x	ENDS
??0CSubGraphPartData@@QAE@ABV0@@Z ENDP			; CSubGraphPartData::CSubGraphPartData
; Function compile flags: /Ogtp
; File D:\git\src\IBK\IBK_DRFN\ProjSrc\SrcChartEx\ChartOCX\IndicatorCondition\IndicatorConditionBaseData.cpp
; File C:\Program Files (x86)\Microsoft Visual Studio\2019\Community\VC\Tools\MSVC\14.29.30133\atlmfc\include\afxtempl.h
; File D:\git\src\IBK\IBK_DRFN\ProjSrc\SrcChartEx\ChartOCX\IndicatorCondition\IndicatorConditionBaseData.cpp
;	COMDAT ??0CSubGraphPartData@@QAE@XZ
_TEXT	SEGMENT
_this$ = -16						; size = 4
__$EHRec$ = -12						; size = 12
??0CSubGraphPartData@@QAE@XZ PROC			; CSubGraphPartData::CSubGraphPartData, COMDAT
; _this$ = ecx

; 40   : {

  00000	55		 push	 ebp
  00001	8b ec		 mov	 ebp, esp
  00003	6a ff		 push	 -1
  00005	68 00 00 00 00	 push	 __ehhandler$??0CSubGraphPartData@@QAE@XZ
  0000a	64 a1 00 00 00
	00		 mov	 eax, DWORD PTR fs:0
  00010	50		 push	 eax
  00011	51		 push	 ecx
  00012	56		 push	 esi
  00013	a1 00 00 00 00	 mov	 eax, DWORD PTR ___security_cookie
  00018	33 c5		 xor	 eax, ebp
  0001a	50		 push	 eax
  0001b	8d 45 f4	 lea	 eax, DWORD PTR __$EHRec$[ebp]
  0001e	64 a3 00 00 00
	00		 mov	 DWORD PTR fs:0, eax
  00024	8b f1		 mov	 esi, ecx
  00026	89 75 f0	 mov	 DWORD PTR _this$[ebp], esi
  00029	8d 4e 04	 lea	 ecx, DWORD PTR [esi+4]
  0002c	c7 06 00 00 00
	00		 mov	 DWORD PTR [esi], OFFSET ??_7CSubGraphPartData@@6B@
  00032	ff 15 00 00 00
	00		 call	 DWORD PTR __imp_??0?$CStringT@DV?$StrTraitMFC_DLL@DV?$ChTraitsCRT@D@ATL@@@@@ATL@@QAE@XZ
  00038	c7 45 fc 00 00
	00 00		 mov	 DWORD PTR __$EHRec$[ebp+8], 0
; File C:\Program Files (x86)\Microsoft Visual Studio\2019\Community\VC\Tools\MSVC\14.29.30133\atlmfc\include\afxtempl.h

; 851  : {

  0003f	c7 46 08 00 00
	00 00		 mov	 DWORD PTR [esi+8], OFFSET ??_7?$CList@NN@@6B@

; 852  : 	ASSERT(nBlockSize > 0);
; 853  : 
; 854  : 	m_nCount = 0;

  00046	c7 46 14 00 00
	00 00		 mov	 DWORD PTR [esi+20], 0

; 855  : 	m_pNodeHead = m_pNodeTail = m_pNodeFree = NULL;

  0004d	c7 46 18 00 00
	00 00		 mov	 DWORD PTR [esi+24], 0
  00054	c7 46 10 00 00
	00 00		 mov	 DWORD PTR [esi+16], 0
  0005b	c7 46 0c 00 00
	00 00		 mov	 DWORD PTR [esi+12], 0

; 856  : 	m_pBlocks = NULL;

  00062	c7 46 1c 00 00
	00 00		 mov	 DWORD PTR [esi+28], 0

; 857  : 	m_nBlockSize = nBlockSize;

  00069	c7 46 20 0a 00
	00 00		 mov	 DWORD PTR [esi+32], 10	; 0000000aH
; File D:\git\src\IBK\IBK_DRFN\ProjSrc\SrcChartEx\ChartOCX\IndicatorCondition\IndicatorConditionBaseData.cpp

; 40   : {

  00070	8d 4e 24	 lea	 ecx, DWORD PTR [esi+36]
  00073	c6 45 fc 01	 mov	 BYTE PTR __$EHRec$[ebp+8], 1
  00077	e8 00 00 00 00	 call	 ??0CSubGraphData@@QAE@XZ ; CSubGraphData::CSubGraphData

; 41   : }

  0007c	8b c6		 mov	 eax, esi
  0007e	8b 4d f4	 mov	 ecx, DWORD PTR __$EHRec$[ebp]
  00081	64 89 0d 00 00
	00 00		 mov	 DWORD PTR fs:0, ecx
  00088	59		 pop	 ecx
  00089	5e		 pop	 esi
  0008a	8b e5		 mov	 esp, ebp
  0008c	5d		 pop	 ebp
  0008d	c3		 ret	 0
_TEXT	ENDS
;	COMDAT text$x
text$x	SEGMENT
__unwindfunclet$??0CSubGraphPartData@@QAE@XZ$0:
  00000	8b 4d f0	 mov	 ecx, DWORD PTR _this$[ebp]
  00003	83 c1 04	 add	 ecx, 4
  00006	ff 25 00 00 00
	00		 jmp	 DWORD PTR __imp_??1?$CStringT@DV?$StrTraitMFC_DLL@DV?$ChTraitsCRT@D@ATL@@@@@ATL@@QAE@XZ
__unwindfunclet$??0CSubGraphPartData@@QAE@XZ$1:
  0000c	8b 4d f0	 mov	 ecx, DWORD PTR _this$[ebp]
  0000f	83 c1 08	 add	 ecx, 8
  00012	e9 00 00 00 00	 jmp	 ??1?$CList@NN@@UAE@XZ	; CList<double,double>::~CList<double,double>
  00017	cc		 int	 3
  00018	cc		 int	 3
  00019	cc		 int	 3
  0001a	cc		 int	 3
  0001b	cc		 int	 3
__ehhandler$??0CSubGraphPartData@@QAE@XZ:
  0001c	90		 npad	 1
  0001d	90		 npad	 1
  0001e	8b 54 24 08	 mov	 edx, DWORD PTR [esp+8]
  00022	8d 42 0c	 lea	 eax, DWORD PTR [edx+12]
  00025	8b 4a f4	 mov	 ecx, DWORD PTR [edx-12]
  00028	33 c8		 xor	 ecx, eax
  0002a	e8 00 00 00 00	 call	 @__security_check_cookie@4
  0002f	b8 00 00 00 00	 mov	 eax, OFFSET __ehfuncinfo$??0CSubGraphPartData@@QAE@XZ
  00034	e9 00 00 00 00	 jmp	 ___CxxFrameHandler3
text$x	ENDS
??0CSubGraphPartData@@QAE@XZ ENDP			; CSubGraphPartData::CSubGraphPartData
; Function compile flags: /Ogtp
; File D:\git\src\IBK\IBK_DRFN\ProjSrc\SrcChartEx\ChartOCX\IndicatorCondition\IndicatorConditionBaseData.cpp
;	COMDAT ??4CSubGraphPartData@@QAEAAV0@ABV0@@Z
_TEXT	SEGMENT
__$EHRec$ = -12						; size = 12
$T2 = 8							; size = 4
_data$ = 8						; size = 4
??4CSubGraphPartData@@QAEAAV0@ABV0@@Z PROC		; CSubGraphPartData::operator=, COMDAT
; _this$ = ecx

; 29   : {

  00000	55		 push	 ebp
  00001	8b ec		 mov	 ebp, esp
  00003	6a ff		 push	 -1
  00005	68 00 00 00 00	 push	 __ehhandler$??4CSubGraphPartData@@QAEAAV0@ABV0@@Z
  0000a	64 a1 00 00 00
	00		 mov	 eax, DWORD PTR fs:0
  00010	50		 push	 eax
  00011	56		 push	 esi
  00012	57		 push	 edi
  00013	a1 00 00 00 00	 mov	 eax, DWORD PTR ___security_cookie
  00018	33 c5		 xor	 eax, ebp
  0001a	50		 push	 eax
  0001b	8d 45 f4	 lea	 eax, DWORD PTR __$EHRec$[ebp]
  0001e	64 a3 00 00 00
	00		 mov	 DWORD PTR fs:0, eax
  00024	8b f1		 mov	 esi, ecx

; 30   : 	if(this == &data)

  00026	8b 7d 08	 mov	 edi, DWORD PTR _data$[ebp]
  00029	3b f7		 cmp	 esi, edi
  0002b	74 48		 je	 SHORT $LN10@operator

; 113  : 	return m_strCalPacketNames;

  0002d	8d 47 04	 lea	 eax, DWORD PTR [edi+4]
  00030	50		 push	 eax
  00031	8d 4d 08	 lea	 ecx, DWORD PTR $T2[ebp]
  00034	ff 15 00 00 00
	00		 call	 DWORD PTR __imp_??0?$CStringT@DV?$StrTraitMFC_DLL@DV?$ChTraitsCRT@D@ATL@@@@@ATL@@QAE@ABV01@@Z

; 31   : 		return *this;
; 32   : 
; 33   : 	m_strCalPacketNames = data.GetCalPacketNames();

  0003a	8d 45 08	 lea	 eax, DWORD PTR $T2[ebp]
  0003d	c7 45 fc 00 00
	00 00		 mov	 DWORD PTR __$EHRec$[ebp+8], 0
  00044	50		 push	 eax
  00045	8d 4e 04	 lea	 ecx, DWORD PTR [esi+4]
  00048	ff 15 00 00 00
	00		 call	 DWORD PTR __imp_??4?$CStringT@DV?$StrTraitMFC_DLL@DV?$ChTraitsCRT@D@ATL@@@@@ATL@@QAEAAV01@ABV01@@Z
  0004e	8d 4d 08	 lea	 ecx, DWORD PTR $T2[ebp]
  00051	c7 45 fc ff ff
	ff ff		 mov	 DWORD PTR __$EHRec$[ebp+8], -1
  00058	ff 15 00 00 00
	00		 call	 DWORD PTR __imp_??1?$CStringT@DV?$StrTraitMFC_DLL@DV?$ChTraitsCRT@D@ATL@@@@@ATL@@QAE@XZ

; 34   : 	m_subGraphData = data.GetSubGraphData();

  0005e	8d 47 24	 lea	 eax, DWORD PTR [edi+36]
  00061	50		 push	 eax
  00062	8d 4e 24	 lea	 ecx, DWORD PTR [esi+36]
  00065	e8 00 00 00 00	 call	 ??4CSubGraphData@@QAEAAV0@ABV0@@Z ; CSubGraphData::operator=

; 35   : 	CopyConditionList(data.GetConditionList());

  0006a	8d 47 08	 lea	 eax, DWORD PTR [edi+8]
  0006d	8b ce		 mov	 ecx, esi
  0006f	50		 push	 eax
  00070	e8 00 00 00 00	 call	 ?CopyConditionList@CSubGraphPartData@@AAEXABV?$CList@NN@@@Z ; CSubGraphPartData::CopyConditionList
$LN10@operator:

; 36   : 	return *this;
; 37   : }

  00075	8b c6		 mov	 eax, esi
  00077	8b 4d f4	 mov	 ecx, DWORD PTR __$EHRec$[ebp]
  0007a	64 89 0d 00 00
	00 00		 mov	 DWORD PTR fs:0, ecx
  00081	59		 pop	 ecx
  00082	5f		 pop	 edi
  00083	5e		 pop	 esi
  00084	8b e5		 mov	 esp, ebp
  00086	5d		 pop	 ebp
  00087	c2 04 00	 ret	 4
_TEXT	ENDS
;	COMDAT text$x
text$x	SEGMENT
__unwindfunclet$??4CSubGraphPartData@@QAEAAV0@ABV0@@Z$0:
  00000	8d 4d 08	 lea	 ecx, DWORD PTR $T2[ebp]
  00003	ff 25 00 00 00
	00		 jmp	 DWORD PTR __imp_??1?$CStringT@DV?$StrTraitMFC_DLL@DV?$ChTraitsCRT@D@ATL@@@@@ATL@@QAE@XZ
  00009	cc		 int	 3
  0000a	cc		 int	 3
  0000b	cc		 int	 3
  0000c	cc		 int	 3
  0000d	cc		 int	 3
__ehhandler$??4CSubGraphPartData@@QAEAAV0@ABV0@@Z:
  0000e	90		 npad	 1
  0000f	90		 npad	 1
  00010	8b 54 24 08	 mov	 edx, DWORD PTR [esp+8]
  00014	8d 42 0c	 lea	 eax, DWORD PTR [edx+12]
  00017	8b 4a f4	 mov	 ecx, DWORD PTR [edx-12]
  0001a	33 c8		 xor	 ecx, eax
  0001c	e8 00 00 00 00	 call	 @__security_check_cookie@4
  00021	b8 00 00 00 00	 mov	 eax, OFFSET __ehfuncinfo$??4CSubGraphPartData@@QAEAAV0@ABV0@@Z
  00026	e9 00 00 00 00	 jmp	 ___CxxFrameHandler3
text$x	ENDS
??4CSubGraphPartData@@QAEAAV0@ABV0@@Z ENDP		; CSubGraphPartData::operator=
; Function compile flags: /Ogtp
; File D:\git\src\IBK\IBK_DRFN\ProjSrc\SrcChartEx\ChartOCX\Include_Chart\GraphData.h
;	COMDAT ?GetHorizontalLine@CSubGraphDataBase@@QBEABV?$CArray@PAU_ST_HORZLINE@@PAU1@@@XZ
_TEXT	SEGMENT
?GetHorizontalLine@CSubGraphDataBase@@QBEABV?$CArray@PAU_ST_HORZLINE@@PAU1@@@XZ PROC ; CSubGraphDataBase::GetHorizontalLine, COMDAT
; _this$ = ecx

; 313  : 	const CArray<ST_HORZLINE*, ST_HORZLINE*>& GetHorizontalLine() const { return m_arrHorzLine; }

  00000	8d 41 70	 lea	 eax, DWORD PTR [ecx+112]
  00003	c3		 ret	 0
?GetHorizontalLine@CSubGraphDataBase@@QBEABV?$CArray@PAU_ST_HORZLINE@@PAU1@@@XZ ENDP ; CSubGraphDataBase::GetHorizontalLine
_TEXT	ENDS
; Function compile flags: /Ogtp
;	COMDAT ??0CGraphData@@QAE@ABV0@@Z
_TEXT	SEGMENT
_this$ = -16						; size = 4
__$EHRec$ = -12						; size = 12
___that$ = 8						; size = 4
??0CGraphData@@QAE@ABV0@@Z PROC				; CGraphData::CGraphData, COMDAT
; _this$ = ecx
  00000	55		 push	 ebp
  00001	8b ec		 mov	 ebp, esp
  00003	6a ff		 push	 -1
  00005	68 00 00 00 00	 push	 __ehhandler$??0CGraphData@@QAE@ABV0@@Z
  0000a	64 a1 00 00 00
	00		 mov	 eax, DWORD PTR fs:0
  00010	50		 push	 eax
  00011	51		 push	 ecx
  00012	56		 push	 esi
  00013	57		 push	 edi
  00014	a1 00 00 00 00	 mov	 eax, DWORD PTR ___security_cookie
  00019	33 c5		 xor	 eax, ebp
  0001b	50		 push	 eax
  0001c	8d 45 f4	 lea	 eax, DWORD PTR __$EHRec$[ebp]
  0001f	64 a3 00 00 00
	00		 mov	 DWORD PTR fs:0, eax
  00025	8b f9		 mov	 edi, ecx
  00027	89 7d f0	 mov	 DWORD PTR _this$[ebp], edi
  0002a	8b 75 08	 mov	 esi, DWORD PTR ___that$[ebp]
  0002d	8d 4f 04	 lea	 ecx, DWORD PTR [edi+4]
  00030	c7 07 00 00 00
	00		 mov	 DWORD PTR [edi], OFFSET ??_7CGraphData@@6B@
  00036	8d 46 04	 lea	 eax, DWORD PTR [esi+4]
  00039	50		 push	 eax
  0003a	ff 15 00 00 00
	00		 call	 DWORD PTR __imp_??0?$CStringT@DV?$StrTraitMFC_DLL@DV?$ChTraitsCRT@D@ATL@@@@@ATL@@QAE@ABV01@@Z
  00040	8d 46 08	 lea	 eax, DWORD PTR [esi+8]
  00043	c7 45 fc 00 00
	00 00		 mov	 DWORD PTR __$EHRec$[ebp+8], 0
  0004a	50		 push	 eax
  0004b	8d 4f 08	 lea	 ecx, DWORD PTR [edi+8]
  0004e	e8 00 00 00 00	 call	 ??0CSignalData@@QAE@ABV0@@Z ; CSignalData::CSignalData
  00053	8d 46 10	 lea	 eax, DWORD PTR [esi+16]
  00056	c6 45 fc 01	 mov	 BYTE PTR __$EHRec$[ebp+8], 1
  0005a	50		 push	 eax
  0005b	8d 4f 10	 lea	 ecx, DWORD PTR [edi+16]
  0005e	e8 00 00 00 00	 call	 ??0CGraphDataDrawingData@@QAE@ABV0@@Z ; CGraphDataDrawingData::CGraphDataDrawingData
  00063	8d 46 1c	 lea	 eax, DWORD PTR [esi+28]
  00066	50		 push	 eax
  00067	8d 4f 1c	 lea	 ecx, DWORD PTR [edi+28]
  0006a	ff 15 00 00 00
	00		 call	 DWORD PTR __imp_??0?$CStringT@DV?$StrTraitMFC_DLL@DV?$ChTraitsCRT@D@ATL@@@@@ATL@@QAE@ABV01@@Z
  00070	8d 46 20	 lea	 eax, DWORD PTR [esi+32]
  00073	c6 45 fc 02	 mov	 BYTE PTR __$EHRec$[ebp+8], 2
  00077	50		 push	 eax
  00078	8d 4f 20	 lea	 ecx, DWORD PTR [edi+32]
  0007b	ff 15 00 00 00
	00		 call	 DWORD PTR __imp_??0?$CStringT@DV?$StrTraitMFC_DLL@DV?$ChTraitsCRT@D@ATL@@@@@ATL@@QAE@ABV01@@Z
  00081	8b c7		 mov	 eax, edi
  00083	8b 4d f4	 mov	 ecx, DWORD PTR __$EHRec$[ebp]
  00086	64 89 0d 00 00
	00 00		 mov	 DWORD PTR fs:0, ecx
  0008d	59		 pop	 ecx
  0008e	5f		 pop	 edi
  0008f	5e		 pop	 esi
  00090	8b e5		 mov	 esp, ebp
  00092	5d		 pop	 ebp
  00093	c2 04 00	 ret	 4
_TEXT	ENDS
;	COMDAT text$x
text$x	SEGMENT
__unwindfunclet$??0CGraphData@@QAE@ABV0@@Z$0:
  00000	8b 4d f0	 mov	 ecx, DWORD PTR _this$[ebp]
  00003	83 c1 04	 add	 ecx, 4
  00006	ff 25 00 00 00
	00		 jmp	 DWORD PTR __imp_??1?$CStringT@DV?$StrTraitMFC_DLL@DV?$ChTraitsCRT@D@ATL@@@@@ATL@@QAE@XZ
__unwindfunclet$??0CGraphData@@QAE@ABV0@@Z$1:
  0000c	8b 4d f0	 mov	 ecx, DWORD PTR _this$[ebp]
  0000f	83 c1 08	 add	 ecx, 8
  00012	e9 00 00 00 00	 jmp	 ??1CSignalData@@QAE@XZ	; CSignalData::~CSignalData
__unwindfunclet$??0CGraphData@@QAE@ABV0@@Z$2:
  00017	8b 4d f0	 mov	 ecx, DWORD PTR _this$[ebp]
  0001a	83 c1 1c	 add	 ecx, 28			; 0000001cH
  0001d	ff 25 00 00 00
	00		 jmp	 DWORD PTR __imp_??1?$CStringT@DV?$StrTraitMFC_DLL@DV?$ChTraitsCRT@D@ATL@@@@@ATL@@QAE@XZ
  00023	cc		 int	 3
  00024	cc		 int	 3
  00025	cc		 int	 3
  00026	cc		 int	 3
  00027	cc		 int	 3
__ehhandler$??0CGraphData@@QAE@ABV0@@Z:
  00028	90		 npad	 1
  00029	90		 npad	 1
  0002a	8b 54 24 08	 mov	 edx, DWORD PTR [esp+8]
  0002e	8d 42 0c	 lea	 eax, DWORD PTR [edx+12]
  00031	8b 4a f0	 mov	 ecx, DWORD PTR [edx-16]
  00034	33 c8		 xor	 ecx, eax
  00036	e8 00 00 00 00	 call	 @__security_check_cookie@4
  0003b	b8 00 00 00 00	 mov	 eax, OFFSET __ehfuncinfo$??0CGraphData@@QAE@ABV0@@Z
  00040	e9 00 00 00 00	 jmp	 ___CxxFrameHandler3
text$x	ENDS
??0CGraphData@@QAE@ABV0@@Z ENDP				; CGraphData::CGraphData
; Function compile flags: /Ogtp
;	COMDAT ??1CGraphData@@QAE@XZ
_TEXT	SEGMENT
??1CGraphData@@QAE@XZ PROC				; CGraphData::~CGraphData, COMDAT
; _this$ = ecx
  00000	56		 push	 esi
  00001	8b f1		 mov	 esi, ecx
  00003	8d 4e 20	 lea	 ecx, DWORD PTR [esi+32]
  00006	ff 15 00 00 00
	00		 call	 DWORD PTR __imp_??1?$CStringT@DV?$StrTraitMFC_DLL@DV?$ChTraitsCRT@D@ATL@@@@@ATL@@QAE@XZ
  0000c	8d 4e 1c	 lea	 ecx, DWORD PTR [esi+28]
  0000f	ff 15 00 00 00
	00		 call	 DWORD PTR __imp_??1?$CStringT@DV?$StrTraitMFC_DLL@DV?$ChTraitsCRT@D@ATL@@@@@ATL@@QAE@XZ
  00015	8d 4e 08	 lea	 ecx, DWORD PTR [esi+8]
  00018	e8 00 00 00 00	 call	 ??1CSignalData@@QAE@XZ	; CSignalData::~CSignalData
  0001d	8d 4e 04	 lea	 ecx, DWORD PTR [esi+4]
  00020	5e		 pop	 esi
  00021	ff 25 00 00 00
	00		 jmp	 DWORD PTR __imp_??1?$CStringT@DV?$StrTraitMFC_DLL@DV?$ChTraitsCRT@D@ATL@@@@@ATL@@QAE@XZ
??1CGraphData@@QAE@XZ ENDP				; CGraphData::~CGraphData
_TEXT	ENDS
; Function compile flags: /Ogtp
; File D:\git\src\IBK\IBK_DRFN\ProjSrc\SrcChartEx\ChartOCX\Include_Chart\GraphData.h
;	COMDAT ?GetIndicatorName2@CGraphData@@QBE?AV?$CStringT@DV?$StrTraitMFC_DLL@DV?$ChTraitsCRT@D@ATL@@@@@ATL@@XZ
_TEXT	SEGMENT
___$ReturnUdt$ = 8					; size = 4
?GetIndicatorName2@CGraphData@@QBE?AV?$CStringT@DV?$StrTraitMFC_DLL@DV?$ChTraitsCRT@D@ATL@@@@@ATL@@XZ PROC ; CGraphData::GetIndicatorName2, COMDAT
; _this$ = ecx

; 232  : 	CString			GetIndicatorName2( void) const							{	return GetIndicatorName();					}

  00000	55		 push	 ebp
  00001	8b ec		 mov	 ebp, esp

; 229  : 	CString			GetIndicatorName( void) const							{	return m_strIndicatorName;					}

  00003	8d 41 1c	 lea	 eax, DWORD PTR [ecx+28]
  00006	8b 4d 08	 mov	 ecx, DWORD PTR ___$ReturnUdt$[ebp]
  00009	50		 push	 eax
  0000a	ff 15 00 00 00
	00		 call	 DWORD PTR __imp_??0?$CStringT@DV?$StrTraitMFC_DLL@DV?$ChTraitsCRT@D@ATL@@@@@ATL@@QAE@ABV01@@Z

; 232  : 	CString			GetIndicatorName2( void) const							{	return GetIndicatorName();					}

  00010	8b 45 08	 mov	 eax, DWORD PTR ___$ReturnUdt$[ebp]
  00013	5d		 pop	 ebp
  00014	c2 04 00	 ret	 4
?GetIndicatorName2@CGraphData@@QBE?AV?$CStringT@DV?$StrTraitMFC_DLL@DV?$ChTraitsCRT@D@ATL@@@@@ATL@@XZ ENDP ; CGraphData::GetIndicatorName2
_TEXT	ENDS
; Function compile flags: /Ogtp
; File D:\git\src\IBK\IBK_DRFN\ProjSrc\SrcChartEx\ChartOCX\Include_Chart\GraphData.h
;	COMDAT ?GetGraphName2@CGraphData@@QBE?AV?$CStringT@DV?$StrTraitMFC_DLL@DV?$ChTraitsCRT@D@ATL@@@@@ATL@@XZ
_TEXT	SEGMENT
___$ReturnUdt$ = 8					; size = 4
?GetGraphName2@CGraphData@@QBE?AV?$CStringT@DV?$StrTraitMFC_DLL@DV?$ChTraitsCRT@D@ATL@@@@@ATL@@XZ PROC ; CGraphData::GetGraphName2, COMDAT
; _this$ = ecx

; 231  : 	CString			GetGraphName2( void) const								{	return GetGraphName();						}

  00000	55		 push	 ebp
  00001	8b ec		 mov	 ebp, esp

; 228  : 	CString			GetGraphName( void) const								{	return m_strGraphName;						}

  00003	8d 41 20	 lea	 eax, DWORD PTR [ecx+32]
  00006	8b 4d 08	 mov	 ecx, DWORD PTR ___$ReturnUdt$[ebp]
  00009	50		 push	 eax
  0000a	ff 15 00 00 00
	00		 call	 DWORD PTR __imp_??0?$CStringT@DV?$StrTraitMFC_DLL@DV?$ChTraitsCRT@D@ATL@@@@@ATL@@QAE@ABV01@@Z

; 231  : 	CString			GetGraphName2( void) const								{	return GetGraphName();						}

  00010	8b 45 08	 mov	 eax, DWORD PTR ___$ReturnUdt$[ebp]
  00013	5d		 pop	 ebp
  00014	c2 04 00	 ret	 4
?GetGraphName2@CGraphData@@QBE?AV?$CStringT@DV?$StrTraitMFC_DLL@DV?$ChTraitsCRT@D@ATL@@@@@ATL@@XZ ENDP ; CGraphData::GetGraphName2
_TEXT	ENDS
; Function compile flags: /Ogtp
; File D:\git\src\IBK\IBK_DRFN\ProjSrc\SrcChartEx\ChartOCX\Include_Chart\GraphData.h
;	COMDAT ?GetIndicatorName@CGraphData@@QBE?AV?$CStringT@DV?$StrTraitMFC_DLL@DV?$ChTraitsCRT@D@ATL@@@@@ATL@@XZ
_TEXT	SEGMENT
___$ReturnUdt$ = 8					; size = 4
?GetIndicatorName@CGraphData@@QBE?AV?$CStringT@DV?$StrTraitMFC_DLL@DV?$ChTraitsCRT@D@ATL@@@@@ATL@@XZ PROC ; CGraphData::GetIndicatorName, COMDAT
; _this$ = ecx

; 229  : 	CString			GetIndicatorName( void) const							{	return m_strIndicatorName;					}

  00000	55		 push	 ebp
  00001	8b ec		 mov	 ebp, esp
  00003	8d 41 1c	 lea	 eax, DWORD PTR [ecx+28]
  00006	8b 4d 08	 mov	 ecx, DWORD PTR ___$ReturnUdt$[ebp]
  00009	50		 push	 eax
  0000a	ff 15 00 00 00
	00		 call	 DWORD PTR __imp_??0?$CStringT@DV?$StrTraitMFC_DLL@DV?$ChTraitsCRT@D@ATL@@@@@ATL@@QAE@ABV01@@Z
  00010	8b 45 08	 mov	 eax, DWORD PTR ___$ReturnUdt$[ebp]
  00013	5d		 pop	 ebp
  00014	c2 04 00	 ret	 4
?GetIndicatorName@CGraphData@@QBE?AV?$CStringT@DV?$StrTraitMFC_DLL@DV?$ChTraitsCRT@D@ATL@@@@@ATL@@XZ ENDP ; CGraphData::GetIndicatorName
_TEXT	ENDS
; Function compile flags: /Ogtp
; File D:\git\src\IBK\IBK_DRFN\ProjSrc\SrcChartEx\ChartOCX\Include_Chart\GraphData.h
;	COMDAT ?GetGraphName@CGraphData@@QBE?AV?$CStringT@DV?$StrTraitMFC_DLL@DV?$ChTraitsCRT@D@ATL@@@@@ATL@@XZ
_TEXT	SEGMENT
___$ReturnUdt$ = 8					; size = 4
?GetGraphName@CGraphData@@QBE?AV?$CStringT@DV?$StrTraitMFC_DLL@DV?$ChTraitsCRT@D@ATL@@@@@ATL@@XZ PROC ; CGraphData::GetGraphName, COMDAT
; _this$ = ecx

; 228  : 	CString			GetGraphName( void) const								{	return m_strGraphName;						}

  00000	55		 push	 ebp
  00001	8b ec		 mov	 ebp, esp
  00003	8d 41 20	 lea	 eax, DWORD PTR [ecx+32]
  00006	8b 4d 08	 mov	 ecx, DWORD PTR ___$ReturnUdt$[ebp]
  00009	50		 push	 eax
  0000a	ff 15 00 00 00
	00		 call	 DWORD PTR __imp_??0?$CStringT@DV?$StrTraitMFC_DLL@DV?$ChTraitsCRT@D@ATL@@@@@ATL@@QAE@ABV01@@Z
  00010	8b 45 08	 mov	 eax, DWORD PTR ___$ReturnUdt$[ebp]
  00013	5d		 pop	 ebp
  00014	c2 04 00	 ret	 4
?GetGraphName@CGraphData@@QBE?AV?$CStringT@DV?$StrTraitMFC_DLL@DV?$ChTraitsCRT@D@ATL@@@@@ATL@@XZ ENDP ; CGraphData::GetGraphName
_TEXT	ENDS
; Function compile flags: /Ogtp
; File D:\git\src\IBK\IBK_DRFN\ProjSrc\SrcChartEx\ChartOCX\Include_Chart\GraphData.h
;	COMDAT ?SetGraphName@CGraphData@@MAEXABV?$CStringT@DV?$StrTraitMFC_DLL@DV?$ChTraitsCRT@D@ATL@@@@@ATL@@@Z
_TEXT	SEGMENT
_p_strGraphName$ = 8					; size = 4
?SetGraphName@CGraphData@@MAEXABV?$CStringT@DV?$StrTraitMFC_DLL@DV?$ChTraitsCRT@D@ATL@@@@@ATL@@@Z PROC ; CGraphData::SetGraphName, COMDAT
; _this$ = ecx

; 225  : 	virtual void	SetGraphName(		const CString &p_strGraphName)		{	m_strGraphName		= p_strGraphName;		}

  00000	55		 push	 ebp
  00001	8b ec		 mov	 ebp, esp
  00003	83 c1 20	 add	 ecx, 32			; 00000020H
  00006	5d		 pop	 ebp
  00007	ff 25 00 00 00
	00		 jmp	 DWORD PTR __imp_??4?$CStringT@DV?$StrTraitMFC_DLL@DV?$ChTraitsCRT@D@ATL@@@@@ATL@@QAEAAV01@ABV01@@Z
?SetGraphName@CGraphData@@MAEXABV?$CStringT@DV?$StrTraitMFC_DLL@DV?$ChTraitsCRT@D@ATL@@@@@ATL@@@Z ENDP ; CGraphData::SetGraphName
_TEXT	ENDS
; Function compile flags: /Ogtp
; File D:\git\src\IBK\IBK_DRFN\ProjSrc\SrcChartEx\ChartOCX\Include_Chart\GraphData.h
;	COMDAT ?SetIndicatorName@CGraphData@@MAEXABV?$CStringT@DV?$StrTraitMFC_DLL@DV?$ChTraitsCRT@D@ATL@@@@@ATL@@@Z
_TEXT	SEGMENT
_p_strIndicatorName$ = 8				; size = 4
?SetIndicatorName@CGraphData@@MAEXABV?$CStringT@DV?$StrTraitMFC_DLL@DV?$ChTraitsCRT@D@ATL@@@@@ATL@@@Z PROC ; CGraphData::SetIndicatorName, COMDAT
; _this$ = ecx

; 224  : 	virtual void	SetIndicatorName(	const CString &p_strIndicatorName)	{	m_strIndicatorName	= p_strIndicatorName;	}

  00000	55		 push	 ebp
  00001	8b ec		 mov	 ebp, esp
  00003	83 c1 1c	 add	 ecx, 28			; 0000001cH
  00006	5d		 pop	 ebp
  00007	ff 25 00 00 00
	00		 jmp	 DWORD PTR __imp_??4?$CStringT@DV?$StrTraitMFC_DLL@DV?$ChTraitsCRT@D@ATL@@@@@ATL@@QAEAAV01@ABV01@@Z
?SetIndicatorName@CGraphData@@MAEXABV?$CStringT@DV?$StrTraitMFC_DLL@DV?$ChTraitsCRT@D@ATL@@@@@ATL@@@Z ENDP ; CGraphData::SetIndicatorName
_TEXT	ENDS
; Function compile flags: /Ogtp
; File D:\git\src\IBK\IBK_DRFN\ProjSrc\SrcChartEx\ChartOCX\Include_Chart\GraphData.h
;	COMDAT ??0CGraphData@@QAE@XZ
_TEXT	SEGMENT
_this$ = -16						; size = 4
__$EHRec$ = -12						; size = 12
??0CGraphData@@QAE@XZ PROC				; CGraphData::CGraphData, COMDAT
; _this$ = ecx

; 181  : 	CGraphData()	{}							// (2006/11/26 - Seung-Won, Bae) Created by CIndicatorInfo Consturctor.

  00000	55		 push	 ebp
  00001	8b ec		 mov	 ebp, esp
  00003	6a ff		 push	 -1
  00005	68 00 00 00 00	 push	 __ehhandler$??0CGraphData@@QAE@XZ
  0000a	64 a1 00 00 00
	00		 mov	 eax, DWORD PTR fs:0
  00010	50		 push	 eax
  00011	51		 push	 ecx
  00012	56		 push	 esi
  00013	a1 00 00 00 00	 mov	 eax, DWORD PTR ___security_cookie
  00018	33 c5		 xor	 eax, ebp
  0001a	50		 push	 eax
  0001b	8d 45 f4	 lea	 eax, DWORD PTR __$EHRec$[ebp]
  0001e	64 a3 00 00 00
	00		 mov	 DWORD PTR fs:0, eax
  00024	8b f1		 mov	 esi, ecx
  00026	89 75 f0	 mov	 DWORD PTR _this$[ebp], esi
  00029	8d 4e 04	 lea	 ecx, DWORD PTR [esi+4]
  0002c	c7 06 00 00 00
	00		 mov	 DWORD PTR [esi], OFFSET ??_7CGraphData@@6B@
  00032	ff 15 00 00 00
	00		 call	 DWORD PTR __imp_??0?$CStringT@DV?$StrTraitMFC_DLL@DV?$ChTraitsCRT@D@ATL@@@@@ATL@@QAE@XZ
  00038	6a 00		 push	 0
  0003a	6a 00		 push	 0
  0003c	8d 4e 08	 lea	 ecx, DWORD PTR [esi+8]
  0003f	c7 45 fc 00 00
	00 00		 mov	 DWORD PTR __$EHRec$[ebp+8], 0
  00046	e8 00 00 00 00	 call	 ??0CSignalData@@QAE@_N0@Z ; CSignalData::CSignalData
  0004b	8d 4e 10	 lea	 ecx, DWORD PTR [esi+16]
  0004e	c6 45 fc 01	 mov	 BYTE PTR __$EHRec$[ebp+8], 1
  00052	e8 00 00 00 00	 call	 ??0CGraphDataDrawingData@@QAE@XZ ; CGraphDataDrawingData::CGraphDataDrawingData
  00057	8d 4e 1c	 lea	 ecx, DWORD PTR [esi+28]
  0005a	ff 15 00 00 00
	00		 call	 DWORD PTR __imp_??0?$CStringT@DV?$StrTraitMFC_DLL@DV?$ChTraitsCRT@D@ATL@@@@@ATL@@QAE@XZ
  00060	8d 4e 20	 lea	 ecx, DWORD PTR [esi+32]
  00063	ff 15 00 00 00
	00		 call	 DWORD PTR __imp_??0?$CStringT@DV?$StrTraitMFC_DLL@DV?$ChTraitsCRT@D@ATL@@@@@ATL@@QAE@XZ
  00069	8b c6		 mov	 eax, esi
  0006b	8b 4d f4	 mov	 ecx, DWORD PTR __$EHRec$[ebp]
  0006e	64 89 0d 00 00
	00 00		 mov	 DWORD PTR fs:0, ecx
  00075	59		 pop	 ecx
  00076	5e		 pop	 esi
  00077	8b e5		 mov	 esp, ebp
  00079	5d		 pop	 ebp
  0007a	c3		 ret	 0
_TEXT	ENDS
;	COMDAT text$x
text$x	SEGMENT
__unwindfunclet$??0CGraphData@@QAE@XZ$0:
  00000	8b 4d f0	 mov	 ecx, DWORD PTR _this$[ebp]
  00003	83 c1 04	 add	 ecx, 4
  00006	ff 25 00 00 00
	00		 jmp	 DWORD PTR __imp_??1?$CStringT@DV?$StrTraitMFC_DLL@DV?$ChTraitsCRT@D@ATL@@@@@ATL@@QAE@XZ
__unwindfunclet$??0CGraphData@@QAE@XZ$1:
  0000c	8b 4d f0	 mov	 ecx, DWORD PTR _this$[ebp]
  0000f	83 c1 08	 add	 ecx, 8
  00012	e9 00 00 00 00	 jmp	 ??1CSignalData@@QAE@XZ	; CSignalData::~CSignalData
  00017	cc		 int	 3
  00018	cc		 int	 3
  00019	cc		 int	 3
  0001a	cc		 int	 3
  0001b	cc		 int	 3
__ehhandler$??0CGraphData@@QAE@XZ:
  0001c	90		 npad	 1
  0001d	90		 npad	 1
  0001e	8b 54 24 08	 mov	 edx, DWORD PTR [esp+8]
  00022	8d 42 0c	 lea	 eax, DWORD PTR [edx+12]
  00025	8b 4a f4	 mov	 ecx, DWORD PTR [edx-12]
  00028	33 c8		 xor	 ecx, eax
  0002a	e8 00 00 00 00	 call	 @__security_check_cookie@4
  0002f	b8 00 00 00 00	 mov	 eax, OFFSET __ehfuncinfo$??0CGraphData@@QAE@XZ
  00034	e9 00 00 00 00	 jmp	 ___CxxFrameHandler3
text$x	ENDS
??0CGraphData@@QAE@XZ ENDP				; CGraphData::CGraphData
; Function compile flags: /Ogtp
;	COMDAT ??_FCSignalData@@QAEXXZ
_TEXT	SEGMENT
??_FCSignalData@@QAEXXZ PROC				; CSignalData::`default constructor closure', COMDAT
; _this$ = ecx
  00000	6a 00		 push	 0
  00002	6a 00		 push	 0
  00004	e8 00 00 00 00	 call	 ??0CSignalData@@QAE@_N0@Z ; CSignalData::CSignalData
  00009	c3		 ret	 0
??_FCSignalData@@QAEXXZ ENDP				; CSignalData::`default constructor closure'
_TEXT	ENDS
; Function compile flags: /Ogtp
;	COMDAT ??_ECIndicatorList@@UAEPAXI@Z
_TEXT	SEGMENT
__$EHRec$ = -12						; size = 12
___flags$ = 8						; size = 4
??_ECIndicatorList@@UAEPAXI@Z PROC			; CIndicatorList::`vector deleting destructor', COMDAT
; _this$ = ecx
  00000	55		 push	 ebp
  00001	8b ec		 mov	 ebp, esp
  00003	6a ff		 push	 -1
  00005	68 00 00 00 00	 push	 __ehhandler$??_ECIndicatorList@@UAEPAXI@Z
  0000a	64 a1 00 00 00
	00		 mov	 eax, DWORD PTR fs:0
  00010	50		 push	 eax
  00011	53		 push	 ebx
  00012	56		 push	 esi
  00013	57		 push	 edi
  00014	a1 00 00 00 00	 mov	 eax, DWORD PTR ___security_cookie
  00019	33 c5		 xor	 eax, ebp
  0001b	50		 push	 eax
  0001c	8d 45 f4	 lea	 eax, DWORD PTR __$EHRec$[ebp]
  0001f	64 a3 00 00 00
	00		 mov	 DWORD PTR fs:0, eax
  00025	8b f1		 mov	 esi, ecx
  00027	8b 45 08	 mov	 eax, DWORD PTR ___flags$[ebp]
  0002a	8b d8		 mov	 ebx, eax
  0002c	83 e3 01	 and	 ebx, 1
  0002f	a8 02		 test	 al, 2
  00031	74 40		 je	 SHORT $LN2@vector
  00033	68 00 00 00 00	 push	 OFFSET ??1CIndicatorList@@UAE@XZ ; CIndicatorList::~CIndicatorList
  00038	ff 76 fc	 push	 DWORD PTR [esi-4]
  0003b	8d 7e fc	 lea	 edi, DWORD PTR [esi-4]
  0003e	6a 08		 push	 8
  00040	56		 push	 esi
  00041	e8 00 00 00 00	 call	 ??_M@YGXPAXIIP6EX0@Z@Z
  00046	85 db		 test	 ebx, ebx
  00048	74 13		 je	 SHORT $LN3@vector
  0004a	8b 0f		 mov	 ecx, DWORD PTR [edi]
  0004c	8d 0c cd 04 00
	00 00		 lea	 ecx, DWORD PTR [ecx*8+4]
  00053	51		 push	 ecx
  00054	57		 push	 edi
  00055	e8 00 00 00 00	 call	 ??_V@YAXPAXI@Z		; operator delete[]
  0005a	83 c4 08	 add	 esp, 8
$LN3@vector:
  0005d	8b c7		 mov	 eax, edi
  0005f	8b 4d f4	 mov	 ecx, DWORD PTR __$EHRec$[ebp]
  00062	64 89 0d 00 00
	00 00		 mov	 DWORD PTR fs:0, ecx
  00069	59		 pop	 ecx
  0006a	5f		 pop	 edi
  0006b	5e		 pop	 esi
  0006c	5b		 pop	 ebx
  0006d	8b e5		 mov	 esp, ebp
  0006f	5d		 pop	 ebp
  00070	c2 04 00	 ret	 4
$LN2@vector:
  00073	e8 00 00 00 00	 call	 ??1CIndicatorList@@UAE@XZ ; CIndicatorList::~CIndicatorList
  00078	85 db		 test	 ebx, ebx
  0007a	74 0b		 je	 SHORT $LN4@vector
  0007c	6a 08		 push	 8
  0007e	56		 push	 esi
  0007f	e8 00 00 00 00	 call	 ??3@YAXPAXI@Z		; operator delete
  00084	83 c4 08	 add	 esp, 8
$LN4@vector:
  00087	8b c6		 mov	 eax, esi
  00089	8b 4d f4	 mov	 ecx, DWORD PTR __$EHRec$[ebp]
  0008c	64 89 0d 00 00
	00 00		 mov	 DWORD PTR fs:0, ecx
  00093	59		 pop	 ecx
  00094	5f		 pop	 edi
  00095	5e		 pop	 esi
  00096	5b		 pop	 ebx
  00097	8b e5		 mov	 esp, ebp
  00099	5d		 pop	 ebp
  0009a	c2 04 00	 ret	 4
  0009d	cc		 int	 3
  0009e	cc		 int	 3
  0009f	cc		 int	 3
  000a0	cc		 int	 3
  000a1	cc		 int	 3
_TEXT	ENDS
;	COMDAT text$x
text$x	SEGMENT
__ehhandler$??_ECIndicatorList@@UAEPAXI@Z:
  00000	90		 npad	 1
  00001	90		 npad	 1
  00002	8b 54 24 08	 mov	 edx, DWORD PTR [esp+8]
  00006	8d 42 0c	 lea	 eax, DWORD PTR [edx+12]
  00009	8b 4a f0	 mov	 ecx, DWORD PTR [edx-16]
  0000c	33 c8		 xor	 ecx, eax
  0000e	e8 00 00 00 00	 call	 @__security_check_cookie@4
  00013	b8 00 00 00 00	 mov	 eax, OFFSET __ehfuncinfo$??_ECIndicatorList@@UAEPAXI@Z
  00018	e9 00 00 00 00	 jmp	 ___CxxFrameHandler3
text$x	ENDS
??_ECIndicatorList@@UAEPAXI@Z ENDP			; CIndicatorList::`vector deleting destructor'
; Function compile flags: /Ogtp
;	COMDAT ??_GCIndicatorList@@UAEPAXI@Z
_TEXT	SEGMENT
___flags$ = 8						; size = 4
??_GCIndicatorList@@UAEPAXI@Z PROC			; CIndicatorList::`scalar deleting destructor', COMDAT
; _this$ = ecx
  00000	55		 push	 ebp
  00001	8b ec		 mov	 ebp, esp
  00003	56		 push	 esi
  00004	8b f1		 mov	 esi, ecx
  00006	e8 00 00 00 00	 call	 ??1CIndicatorList@@UAE@XZ ; CIndicatorList::~CIndicatorList
  0000b	f6 45 08 01	 test	 BYTE PTR ___flags$[ebp], 1
  0000f	74 0b		 je	 SHORT $LN4@scalar
  00011	6a 08		 push	 8
  00013	56		 push	 esi
  00014	e8 00 00 00 00	 call	 ??3@YAXPAXI@Z		; operator delete
  00019	83 c4 08	 add	 esp, 8
$LN4@scalar:
  0001c	8b c6		 mov	 eax, esi
  0001e	5e		 pop	 esi
  0001f	5d		 pop	 ebp
  00020	c2 04 00	 ret	 4
??_GCIndicatorList@@UAEPAXI@Z ENDP			; CIndicatorList::`scalar deleting destructor'
_TEXT	ENDS
; Function compile flags: /Ogtp
;	COMDAT ??4CIndicatorList@@QAEAAV0@ABV0@@Z
_TEXT	SEGMENT
___that$ = 8						; size = 4
??4CIndicatorList@@QAEAAV0@ABV0@@Z PROC			; CIndicatorList::operator=, COMDAT
; _this$ = ecx
  00000	55		 push	 ebp
  00001	8b ec		 mov	 ebp, esp
  00003	8b 45 08	 mov	 eax, DWORD PTR ___that$[ebp]
  00006	8b 40 04	 mov	 eax, DWORD PTR [eax+4]
  00009	89 41 04	 mov	 DWORD PTR [ecx+4], eax
  0000c	8b c1		 mov	 eax, ecx
  0000e	5d		 pop	 ebp
  0000f	c2 04 00	 ret	 4
??4CIndicatorList@@QAEAAV0@ABV0@@Z ENDP			; CIndicatorList::operator=
_TEXT	ENDS
; Function compile flags: /Ogtp
;	COMDAT ??0CIndicatorList@@QAE@ABV0@@Z
_TEXT	SEGMENT
___that$ = 8						; size = 4
??0CIndicatorList@@QAE@ABV0@@Z PROC			; CIndicatorList::CIndicatorList, COMDAT
; _this$ = ecx
  00000	55		 push	 ebp
  00001	8b ec		 mov	 ebp, esp
  00003	8b 45 08	 mov	 eax, DWORD PTR ___that$[ebp]
  00006	c7 01 00 00 00
	00		 mov	 DWORD PTR [ecx], OFFSET ??_7CIndicatorList@@6B@
  0000c	8b 40 04	 mov	 eax, DWORD PTR [eax+4]
  0000f	89 41 04	 mov	 DWORD PTR [ecx+4], eax
  00012	8b c1		 mov	 eax, ecx
  00014	5d		 pop	 ebp
  00015	c2 04 00	 ret	 4
??0CIndicatorList@@QAE@ABV0@@Z ENDP			; CIndicatorList::CIndicatorList
_TEXT	ENDS
; Function compile flags: /Ogtp
; File C:\Program Files (x86)\Microsoft Visual Studio\2019\Community\VC\Tools\MSVC\14.29.30133\include\exception
;	COMDAT ?_Throw_bad_array_new_length@std@@YAXXZ
_TEXT	SEGMENT
$T1 = -12						; size = 12
?_Throw_bad_array_new_length@std@@YAXXZ PROC		; std::_Throw_bad_array_new_length, COMDAT

; 315  : [[noreturn]] inline void _Throw_bad_array_new_length() {

  00000	55		 push	 ebp
  00001	8b ec		 mov	 ebp, esp
  00003	83 ec 0c	 sub	 esp, 12			; 0000000cH

; 316  :     _THROW(bad_array_new_length{});

  00006	8d 4d f4	 lea	 ecx, DWORD PTR $T1[ebp]
  00009	e8 00 00 00 00	 call	 ??0bad_array_new_length@std@@QAE@XZ ; std::bad_array_new_length::bad_array_new_length
  0000e	68 00 00 00 00	 push	 OFFSET __TI3?AVbad_array_new_length@std@@
  00013	8d 45 f4	 lea	 eax, DWORD PTR $T1[ebp]
  00016	50		 push	 eax
  00017	e8 00 00 00 00	 call	 __CxxThrowException@8
$LN3@Throw_bad_:
  0001c	cc		 int	 3
?_Throw_bad_array_new_length@std@@YAXXZ ENDP		; std::_Throw_bad_array_new_length
_TEXT	ENDS
; Function compile flags: /Ogtp
; File C:\Program Files (x86)\Microsoft Visual Studio\2019\Community\VC\Tools\MSVC\14.29.30133\include\vcruntime_exception.h
;	COMDAT ??_Gbad_array_new_length@std@@UAEPAXI@Z
_TEXT	SEGMENT
___flags$ = 8						; size = 4
??_Gbad_array_new_length@std@@UAEPAXI@Z PROC		; std::bad_array_new_length::`scalar deleting destructor', COMDAT
; _this$ = ecx
  00000	55		 push	 ebp
  00001	8b ec		 mov	 ebp, esp

; 89   :     {

  00003	56		 push	 esi
  00004	8b f1		 mov	 esi, ecx

; 90   :         __std_exception_destroy(&_Data);

  00006	8d 46 04	 lea	 eax, DWORD PTR [esi+4]
  00009	c7 06 00 00 00
	00		 mov	 DWORD PTR [esi], OFFSET ??_7exception@std@@6B@
  0000f	50		 push	 eax
  00010	e8 00 00 00 00	 call	 ___std_exception_destroy
  00015	83 c4 04	 add	 esp, 4
  00018	f6 45 08 01	 test	 BYTE PTR ___flags$[ebp], 1
  0001c	74 0b		 je	 SHORT $LN12@scalar
  0001e	6a 0c		 push	 12			; 0000000cH
  00020	56		 push	 esi
  00021	e8 00 00 00 00	 call	 ??3@YAXPAXI@Z		; operator delete
  00026	83 c4 08	 add	 esp, 8
$LN12@scalar:
  00029	8b c6		 mov	 eax, esi
  0002b	5e		 pop	 esi
  0002c	5d		 pop	 ebp
  0002d	c2 04 00	 ret	 4
??_Gbad_array_new_length@std@@UAEPAXI@Z ENDP		; std::bad_array_new_length::`scalar deleting destructor'
_TEXT	ENDS
; Function compile flags: /Ogtp
; File C:\Program Files (x86)\Microsoft Visual Studio\2019\Community\VC\Tools\MSVC\14.29.30133\include\vcruntime_exception.h
;	COMDAT ??0bad_array_new_length@std@@QAE@ABV01@@Z
_TEXT	SEGMENT
___that$ = 8						; size = 4
??0bad_array_new_length@std@@QAE@ABV01@@Z PROC		; std::bad_array_new_length::bad_array_new_length, COMDAT
; _this$ = ecx
  00000	55		 push	 ebp
  00001	8b ec		 mov	 ebp, esp

; 72   :     {

  00003	56		 push	 esi
  00004	8b f1		 mov	 esi, ecx
  00006	0f 57 c0	 xorps	 xmm0, xmm0

; 71   :         : _Data()

  00009	8d 46 04	 lea	 eax, DWORD PTR [esi+4]

; 73   :         __std_exception_copy(&_Other._Data, &_Data);

  0000c	50		 push	 eax
  0000d	c7 06 00 00 00
	00		 mov	 DWORD PTR [esi], OFFSET ??_7exception@std@@6B@
  00013	66 0f d6 00	 movq	 QWORD PTR [eax], xmm0
  00017	8b 45 08	 mov	 eax, DWORD PTR ___that$[ebp]
  0001a	83 c0 04	 add	 eax, 4
  0001d	50		 push	 eax
  0001e	e8 00 00 00 00	 call	 ___std_exception_copy
  00023	83 c4 08	 add	 esp, 8
  00026	c7 06 00 00 00
	00		 mov	 DWORD PTR [esi], OFFSET ??_7bad_array_new_length@std@@6B@
  0002c	8b c6		 mov	 eax, esi
  0002e	5e		 pop	 esi
  0002f	5d		 pop	 ebp
  00030	c2 04 00	 ret	 4
??0bad_array_new_length@std@@QAE@ABV01@@Z ENDP		; std::bad_array_new_length::bad_array_new_length
_TEXT	ENDS
; Function compile flags: /Ogtp
; File C:\Program Files (x86)\Microsoft Visual Studio\2019\Community\VC\Tools\MSVC\14.29.30133\include\vcruntime_exception.h
;	COMDAT ??1bad_array_new_length@std@@UAE@XZ
_TEXT	SEGMENT
??1bad_array_new_length@std@@UAE@XZ PROC		; std::bad_array_new_length::~bad_array_new_length, COMDAT
; _this$ = ecx

; 90   :         __std_exception_destroy(&_Data);

  00000	8d 41 04	 lea	 eax, DWORD PTR [ecx+4]
  00003	c7 01 00 00 00
	00		 mov	 DWORD PTR [ecx], OFFSET ??_7exception@std@@6B@
  00009	50		 push	 eax
  0000a	e8 00 00 00 00	 call	 ___std_exception_destroy
  0000f	59		 pop	 ecx
  00010	c3		 ret	 0
??1bad_array_new_length@std@@UAE@XZ ENDP		; std::bad_array_new_length::~bad_array_new_length
_TEXT	ENDS
; Function compile flags: /Ogtp
; File C:\Program Files (x86)\Microsoft Visual Studio\2019\Community\VC\Tools\MSVC\14.29.30133\include\vcruntime_exception.h
;	COMDAT ??0bad_array_new_length@std@@QAE@XZ
_TEXT	SEGMENT
??0bad_array_new_length@std@@QAE@XZ PROC		; std::bad_array_new_length::bad_array_new_length, COMDAT
; _this$ = ecx

; 141  :     {

  00000	0f 57 c0	 xorps	 xmm0, xmm0

; 142  :     }

  00003	8b c1		 mov	 eax, ecx

; 65   :         : _Data()

  00005	66 0f d6 41 04	 movq	 QWORD PTR [ecx+4], xmm0

; 66   :     {
; 67   :         _Data._What = _Message;

  0000a	c7 41 04 00 00
	00 00		 mov	 DWORD PTR [ecx+4], OFFSET ??_C@_0BF@KINCDENJ@bad?5array?5new?5length@

; 141  :     {

  00011	c7 01 00 00 00
	00		 mov	 DWORD PTR [ecx], OFFSET ??_7bad_array_new_length@std@@6B@

; 142  :     }

  00017	c3		 ret	 0
??0bad_array_new_length@std@@QAE@XZ ENDP		; std::bad_array_new_length::bad_array_new_length
_TEXT	ENDS
; Function compile flags: /Ogtp
; File C:\Program Files (x86)\Microsoft Visual Studio\2019\Community\VC\Tools\MSVC\14.29.30133\include\vcruntime_exception.h
;	COMDAT ??_Gbad_alloc@std@@UAEPAXI@Z
_TEXT	SEGMENT
___flags$ = 8						; size = 4
??_Gbad_alloc@std@@UAEPAXI@Z PROC			; std::bad_alloc::`scalar deleting destructor', COMDAT
; _this$ = ecx
  00000	55		 push	 ebp
  00001	8b ec		 mov	 ebp, esp

; 89   :     {

  00003	56		 push	 esi
  00004	8b f1		 mov	 esi, ecx

; 90   :         __std_exception_destroy(&_Data);

  00006	8d 46 04	 lea	 eax, DWORD PTR [esi+4]
  00009	c7 06 00 00 00
	00		 mov	 DWORD PTR [esi], OFFSET ??_7exception@std@@6B@
  0000f	50		 push	 eax
  00010	e8 00 00 00 00	 call	 ___std_exception_destroy
  00015	83 c4 04	 add	 esp, 4
  00018	f6 45 08 01	 test	 BYTE PTR ___flags$[ebp], 1
  0001c	74 0b		 je	 SHORT $LN9@scalar
  0001e	6a 0c		 push	 12			; 0000000cH
  00020	56		 push	 esi
  00021	e8 00 00 00 00	 call	 ??3@YAXPAXI@Z		; operator delete
  00026	83 c4 08	 add	 esp, 8
$LN9@scalar:
  00029	8b c6		 mov	 eax, esi
  0002b	5e		 pop	 esi
  0002c	5d		 pop	 ebp
  0002d	c2 04 00	 ret	 4
??_Gbad_alloc@std@@UAEPAXI@Z ENDP			; std::bad_alloc::`scalar deleting destructor'
_TEXT	ENDS
; Function compile flags: /Ogtp
; File C:\Program Files (x86)\Microsoft Visual Studio\2019\Community\VC\Tools\MSVC\14.29.30133\include\vcruntime_exception.h
;	COMDAT ??0bad_alloc@std@@QAE@ABV01@@Z
_TEXT	SEGMENT
___that$ = 8						; size = 4
??0bad_alloc@std@@QAE@ABV01@@Z PROC			; std::bad_alloc::bad_alloc, COMDAT
; _this$ = ecx
  00000	55		 push	 ebp
  00001	8b ec		 mov	 ebp, esp

; 72   :     {

  00003	56		 push	 esi
  00004	8b f1		 mov	 esi, ecx
  00006	0f 57 c0	 xorps	 xmm0, xmm0

; 71   :         : _Data()

  00009	8d 46 04	 lea	 eax, DWORD PTR [esi+4]

; 73   :         __std_exception_copy(&_Other._Data, &_Data);

  0000c	50		 push	 eax
  0000d	c7 06 00 00 00
	00		 mov	 DWORD PTR [esi], OFFSET ??_7exception@std@@6B@
  00013	66 0f d6 00	 movq	 QWORD PTR [eax], xmm0
  00017	8b 45 08	 mov	 eax, DWORD PTR ___that$[ebp]
  0001a	83 c0 04	 add	 eax, 4
  0001d	50		 push	 eax
  0001e	e8 00 00 00 00	 call	 ___std_exception_copy
  00023	83 c4 08	 add	 esp, 8
  00026	c7 06 00 00 00
	00		 mov	 DWORD PTR [esi], OFFSET ??_7bad_alloc@std@@6B@
  0002c	8b c6		 mov	 eax, esi
  0002e	5e		 pop	 esi
  0002f	5d		 pop	 ebp
  00030	c2 04 00	 ret	 4
??0bad_alloc@std@@QAE@ABV01@@Z ENDP			; std::bad_alloc::bad_alloc
_TEXT	ENDS
; Function compile flags: /Ogtp
; File C:\Program Files (x86)\Microsoft Visual Studio\2019\Community\VC\Tools\MSVC\14.29.30133\include\vcruntime_exception.h
;	COMDAT ??_Gexception@std@@UAEPAXI@Z
_TEXT	SEGMENT
___flags$ = 8						; size = 4
??_Gexception@std@@UAEPAXI@Z PROC			; std::exception::`scalar deleting destructor', COMDAT
; _this$ = ecx
  00000	55		 push	 ebp
  00001	8b ec		 mov	 ebp, esp

; 89   :     {

  00003	56		 push	 esi
  00004	8b f1		 mov	 esi, ecx

; 90   :         __std_exception_destroy(&_Data);

  00006	8d 46 04	 lea	 eax, DWORD PTR [esi+4]
  00009	c7 06 00 00 00
	00		 mov	 DWORD PTR [esi], OFFSET ??_7exception@std@@6B@
  0000f	50		 push	 eax
  00010	e8 00 00 00 00	 call	 ___std_exception_destroy
  00015	83 c4 04	 add	 esp, 4
  00018	f6 45 08 01	 test	 BYTE PTR ___flags$[ebp], 1
  0001c	74 0b		 je	 SHORT $LN6@scalar
  0001e	6a 0c		 push	 12			; 0000000cH
  00020	56		 push	 esi
  00021	e8 00 00 00 00	 call	 ??3@YAXPAXI@Z		; operator delete
  00026	83 c4 08	 add	 esp, 8
$LN6@scalar:
  00029	8b c6		 mov	 eax, esi
  0002b	5e		 pop	 esi
  0002c	5d		 pop	 ebp
  0002d	c2 04 00	 ret	 4
??_Gexception@std@@UAEPAXI@Z ENDP			; std::exception::`scalar deleting destructor'
_TEXT	ENDS
; Function compile flags: /Ogtp
; File C:\Program Files (x86)\Microsoft Visual Studio\2019\Community\VC\Tools\MSVC\14.29.30133\include\vcruntime_exception.h
;	COMDAT ?what@exception@std@@UBEPBDXZ
_TEXT	SEGMENT
?what@exception@std@@UBEPBDXZ PROC			; std::exception::what, COMDAT
; _this$ = ecx

; 95   :         return _Data._What ? _Data._What : "Unknown exception";

  00000	8b 49 04	 mov	 ecx, DWORD PTR [ecx+4]
  00003	b8 00 00 00 00	 mov	 eax, OFFSET ??_C@_0BC@EOODALEL@Unknown?5exception@
  00008	85 c9		 test	 ecx, ecx
  0000a	0f 45 c1	 cmovne	 eax, ecx

; 96   :     }

  0000d	c3		 ret	 0
?what@exception@std@@UBEPBDXZ ENDP			; std::exception::what
_TEXT	ENDS
; Function compile flags: /Ogtp
; File C:\Program Files (x86)\Microsoft Visual Studio\2019\Community\VC\Tools\MSVC\14.29.30133\include\vcruntime_exception.h
;	COMDAT ??1exception@std@@UAE@XZ
_TEXT	SEGMENT
??1exception@std@@UAE@XZ PROC				; std::exception::~exception, COMDAT
; _this$ = ecx

; 90   :         __std_exception_destroy(&_Data);

  00000	8d 41 04	 lea	 eax, DWORD PTR [ecx+4]
  00003	c7 01 00 00 00
	00		 mov	 DWORD PTR [ecx], OFFSET ??_7exception@std@@6B@
  00009	50		 push	 eax
  0000a	e8 00 00 00 00	 call	 ___std_exception_destroy
  0000f	59		 pop	 ecx

; 91   :     }

  00010	c3		 ret	 0
??1exception@std@@UAE@XZ ENDP				; std::exception::~exception
_TEXT	ENDS
; Function compile flags: /Ogtp
; File C:\Program Files (x86)\Microsoft Visual Studio\2019\Community\VC\Tools\MSVC\14.29.30133\include\vcruntime_exception.h
;	COMDAT ??0exception@std@@QAE@ABV01@@Z
_TEXT	SEGMENT
__Other$ = 8						; size = 4
??0exception@std@@QAE@ABV01@@Z PROC			; std::exception::exception, COMDAT
; _this$ = ecx

; 72   :     {

  00000	55		 push	 ebp
  00001	8b ec		 mov	 ebp, esp
  00003	56		 push	 esi
  00004	8b f1		 mov	 esi, ecx
  00006	0f 57 c0	 xorps	 xmm0, xmm0
  00009	8d 46 04	 lea	 eax, DWORD PTR [esi+4]

; 73   :         __std_exception_copy(&_Other._Data, &_Data);

  0000c	50		 push	 eax
  0000d	c7 06 00 00 00
	00		 mov	 DWORD PTR [esi], OFFSET ??_7exception@std@@6B@
  00013	66 0f d6 00	 movq	 QWORD PTR [eax], xmm0
  00017	8b 45 08	 mov	 eax, DWORD PTR __Other$[ebp]
  0001a	83 c0 04	 add	 eax, 4
  0001d	50		 push	 eax
  0001e	e8 00 00 00 00	 call	 ___std_exception_copy
  00023	83 c4 08	 add	 esp, 8

; 74   :     }

  00026	8b c6		 mov	 eax, esi
  00028	5e		 pop	 esi
  00029	5d		 pop	 ebp
  0002a	c2 04 00	 ret	 4
??0exception@std@@QAE@ABV01@@Z ENDP			; std::exception::exception
_TEXT	ENDS
; Function compile flags: /Ogtp
; File C:\Program Files (x86)\Microsoft Visual Studio\2019\Community\VC\Tools\MSVC\14.29.30133\atlmfc\include\cstringt.h
; File C:\Program Files (x86)\Microsoft Visual Studio\2019\Community\VC\Tools\MSVC\14.29.30133\atlmfc\include\atlsimpstr.h
; File C:\Program Files (x86)\Microsoft Visual Studio\2019\Community\VC\Tools\MSVC\14.29.30133\atlmfc\include\cstringt.h
; File C:\Program Files (x86)\Microsoft Visual Studio\2019\Community\VC\Tools\MSVC\14.29.30133\atlmfc\include\atlsimpstr.h
; File C:\Program Files (x86)\Microsoft Visual Studio\2019\Community\VC\Tools\MSVC\14.29.30133\atlmfc\include\cstringt.h
;	COMDAT ??HATL@@YA?AV?$CStringT@DV?$StrTraitMFC_DLL@DV?$ChTraitsCRT@D@ATL@@@@@0@ABV10@PBD@Z
_TEXT	SEGMENT
$T2 = -16						; size = 4
__$EHRec$ = -12						; size = 12
___$ReturnUdt$ = 8					; size = 4
_str1$ = 12						; size = 4
_psz2$ = 16						; size = 4
??HATL@@YA?AV?$CStringT@DV?$StrTraitMFC_DLL@DV?$ChTraitsCRT@D@ATL@@@@@0@ABV10@PBD@Z PROC ; ATL::operator+, COMDAT

; 2400 : 	{

  00000	55		 push	 ebp
  00001	8b ec		 mov	 ebp, esp
  00003	6a ff		 push	 -1
  00005	68 00 00 00 00	 push	 __ehhandler$??HATL@@YA?AV?$CStringT@DV?$StrTraitMFC_DLL@DV?$ChTraitsCRT@D@ATL@@@@@0@ABV10@PBD@Z
  0000a	64 a1 00 00 00
	00		 mov	 eax, DWORD PTR fs:0
  00010	50		 push	 eax
  00011	51		 push	 ecx
  00012	53		 push	 ebx
  00013	56		 push	 esi
  00014	57		 push	 edi
  00015	a1 00 00 00 00	 mov	 eax, DWORD PTR ___security_cookie
  0001a	33 c5		 xor	 eax, ebp
  0001c	50		 push	 eax
  0001d	8d 45 f4	 lea	 eax, DWORD PTR __$EHRec$[ebp]
  00020	64 a3 00 00 00
	00		 mov	 DWORD PTR fs:0, eax

; 2401 : 		CStringT strResult( str1.GetManager() );

  00026	8b 5d 0c	 mov	 ebx, DWORD PTR _str1$[ebp]
  00029	8b cb		 mov	 ecx, ebx
  0002b	c7 45 f0 00 00
	00 00		 mov	 DWORD PTR $T2[ebp], 0
  00032	ff 15 00 00 00
	00		 call	 DWORD PTR __imp_?GetManager@?$CStringT@DV?$StrTraitMFC_DLL@DV?$ChTraitsCRT@D@ATL@@@@@ATL@@QBEPAUIAtlStringMgr@2@XZ
  00038	8b 7d 08	 mov	 edi, DWORD PTR ___$ReturnUdt$[ebp]
  0003b	8b cf		 mov	 ecx, edi
  0003d	50		 push	 eax
  0003e	ff 15 00 00 00
	00		 call	 DWORD PTR __imp_??0?$CStringT@DV?$StrTraitMFC_DLL@DV?$ChTraitsCRT@D@ATL@@@@@ATL@@QAE@PAUIAtlStringMgr@1@@Z
; File C:\Program Files (x86)\Microsoft Visual Studio\2019\Community\VC\Tools\MSVC\14.29.30133\atlmfc\include\atlsimpstr.h

; 722  : 		if( psz == NULL )

  00044	8b 75 10	 mov	 esi, DWORD PTR _psz2$[ebp]
; File C:\Program Files (x86)\Microsoft Visual Studio\2019\Community\VC\Tools\MSVC\14.29.30133\atlmfc\include\cstringt.h

; 2405 : 		return( strResult );

  00047	c7 45 fc 00 00
	00 00		 mov	 DWORD PTR __$EHRec$[ebp+8], 0
  0004e	c7 45 f0 01 00
	00 00		 mov	 DWORD PTR $T2[ebp], 1
; File C:\Program Files (x86)\Microsoft Visual Studio\2019\Community\VC\Tools\MSVC\14.29.30133\atlmfc\include\atlsimpstr.h

; 722  : 		if( psz == NULL )

  00055	85 f6		 test	 esi, esi
  00057	75 04		 jne	 SHORT $LN6@operator

; 723  : 		{
; 724  : 			return( 0 );

  00059	33 d2		 xor	 edx, edx
  0005b	eb 0e		 jmp	 SHORT $LN5@operator
$LN6@operator:

; 725  : 		}
; 726  : 		return( int( strlen( psz ) ) );

  0005d	8b d6		 mov	 edx, esi
  0005f	8d 4a 01	 lea	 ecx, DWORD PTR [edx+1]
$LL14@operator:
  00062	8a 02		 mov	 al, BYTE PTR [edx]
  00064	42		 inc	 edx
  00065	84 c0		 test	 al, al
  00067	75 f9		 jne	 SHORT $LL14@operator
  00069	2b d1		 sub	 edx, ecx
$LN5@operator:

; 519  : 		return( GetData()->nDataLength );

  0006b	8b 0b		 mov	 ecx, DWORD PTR [ebx]
; File C:\Program Files (x86)\Microsoft Visual Studio\2019\Community\VC\Tools\MSVC\14.29.30133\atlmfc\include\cstringt.h

; 2403 : 		CThisSimpleString::Concatenate( strResult, str1, str1.GetLength(), psz2, CThisSimpleString::StringLength( psz2 ) );

  0006d	52		 push	 edx
  0006e	56		 push	 esi
  0006f	ff 71 f4	 push	 DWORD PTR [ecx-12]
  00072	51		 push	 ecx
  00073	57		 push	 edi
  00074	ff 15 00 00 00
	00		 call	 DWORD PTR __imp_?Concatenate@?$CSimpleStringT@D$00@ATL@@KAXAAV12@PBDH1H@Z
  0007a	83 c4 14	 add	 esp, 20			; 00000014H

; 2405 : 		return( strResult );

  0007d	8b c7		 mov	 eax, edi

; 2406 : 	}

  0007f	8b 4d f4	 mov	 ecx, DWORD PTR __$EHRec$[ebp]
  00082	64 89 0d 00 00
	00 00		 mov	 DWORD PTR fs:0, ecx
  00089	59		 pop	 ecx
  0008a	5f		 pop	 edi
  0008b	5e		 pop	 esi
  0008c	5b		 pop	 ebx
  0008d	8b e5		 mov	 esp, ebp
  0008f	5d		 pop	 ebp
  00090	c3		 ret	 0
_TEXT	ENDS
;	COMDAT text$x
text$x	SEGMENT
__unwindfunclet$??HATL@@YA?AV?$CStringT@DV?$StrTraitMFC_DLL@DV?$ChTraitsCRT@D@ATL@@@@@0@ABV10@PBD@Z$0:
  00000	8b 45 f0	 mov	 eax, DWORD PTR $T2[ebp]
  00003	83 e0 01	 and	 eax, 1
  00006	0f 84 0d 00 00
	00		 je	 $LN4@operator
  0000c	83 65 f0 fe	 and	 DWORD PTR $T2[ebp], -2	; fffffffeH
  00010	8b 4d 08	 mov	 ecx, DWORD PTR ___$ReturnUdt$[ebp]
  00013	ff 25 00 00 00
	00		 jmp	 DWORD PTR __imp_??1?$CStringT@DV?$StrTraitMFC_DLL@DV?$ChTraitsCRT@D@ATL@@@@@ATL@@QAE@XZ
$LN4@operator:
  00019	c3		 ret	 0
  0001a	cc		 int	 3
  0001b	cc		 int	 3
  0001c	cc		 int	 3
  0001d	cc		 int	 3
  0001e	cc		 int	 3
__ehhandler$??HATL@@YA?AV?$CStringT@DV?$StrTraitMFC_DLL@DV?$ChTraitsCRT@D@ATL@@@@@0@ABV10@PBD@Z:
  0001f	90		 npad	 1
  00020	90		 npad	 1
  00021	8b 54 24 08	 mov	 edx, DWORD PTR [esp+8]
  00025	8d 42 0c	 lea	 eax, DWORD PTR [edx+12]
  00028	8b 4a ec	 mov	 ecx, DWORD PTR [edx-20]
  0002b	33 c8		 xor	 ecx, eax
  0002d	e8 00 00 00 00	 call	 @__security_check_cookie@4
  00032	b8 00 00 00 00	 mov	 eax, OFFSET __ehfuncinfo$??HATL@@YA?AV?$CStringT@DV?$StrTraitMFC_DLL@DV?$ChTraitsCRT@D@ATL@@@@@0@ABV10@PBD@Z
  00037	e9 00 00 00 00	 jmp	 ___CxxFrameHandler3
text$x	ENDS
??HATL@@YA?AV?$CStringT@DV?$StrTraitMFC_DLL@DV?$ChTraitsCRT@D@ATL@@@@@0@ABV10@PBD@Z ENDP ; ATL::operator+
; Function compile flags: /Ogtp
; File C:\Program Files (x86)\Microsoft Visual Studio\2019\Community\VC\Tools\MSVC\14.29.30133\atlmfc\include\afx.inl
;	COMDAT ?Dump@CObject@@UBEXAAVCDumpContext@@@Z
_TEXT	SEGMENT
___formal$ = 8						; size = 4
?Dump@CObject@@UBEXAAVCDumpContext@@@Z PROC		; CObject::Dump, COMDAT
; _this$ = ecx

; 122  : 	{ /* no dumping in release builds */ }

  00000	c2 04 00	 ret	 4
?Dump@CObject@@UBEXAAVCDumpContext@@@Z ENDP		; CObject::Dump
_TEXT	ENDS
; Function compile flags: /Ogtp
; File C:\Program Files (x86)\Microsoft Visual Studio\2019\Community\VC\Tools\MSVC\14.29.30133\atlmfc\include\afx.inl
;	COMDAT ?AssertValid@CObject@@UBEXXZ
_TEXT	SEGMENT
?AssertValid@CObject@@UBEXXZ PROC			; CObject::AssertValid, COMDAT
; _this$ = ecx

; 120  : 	{ /* no asserts in release builds */ }

  00000	c2 00 00	 ret	 0
?AssertValid@CObject@@UBEXXZ ENDP			; CObject::AssertValid
_TEXT	ENDS
; Function compile flags: /Ogtp
; File C:\Program Files (x86)\Microsoft Visual Studio\2019\Community\VC\Tools\MSVC\14.29.30133\atlmfc\include\afx.inl
;	COMDAT ?Serialize@CObject@@UAEXAAVCArchive@@@Z
_TEXT	SEGMENT
___formal$ = 8						; size = 4
?Serialize@CObject@@UAEXAAVCArchive@@@Z PROC		; CObject::Serialize, COMDAT
; _this$ = ecx

; 106  : 	{ /* CObject does not serialize anything by default */ }

  00000	c2 04 00	 ret	 4
?Serialize@CObject@@UAEXAAVCArchive@@@Z ENDP		; CObject::Serialize
_TEXT	ENDS
; Function compile flags: /Ogtp
; File C:\Program Files (x86)\Microsoft Visual Studio\2019\Community\VC\Tools\MSVC\14.29.30133\atlmfc\include\afx.inl
;	COMDAT ??3CObject@@SGXPAX@Z
_TEXT	SEGMENT
_p$ = 8							; size = 4
??3CObject@@SGXPAX@Z PROC				; CObject::operator delete, COMDAT

; 112  : 	{ ::operator delete(p); }

  00000	55		 push	 ebp
  00001	8b ec		 mov	 ebp, esp
  00003	ff 75 08	 push	 DWORD PTR _p$[ebp]
  00006	e8 00 00 00 00	 call	 ??3@YAXPAX@Z		; operator delete
  0000b	83 c4 04	 add	 esp, 4
  0000e	5d		 pop	 ebp
  0000f	c2 04 00	 ret	 4
??3CObject@@SGXPAX@Z ENDP				; CObject::operator delete
_TEXT	ENDS
; Function compile flags: /Ogtp
; File C:\Program Files (x86)\Microsoft Visual Studio\2019\Community\VC\Tools\MSVC\14.29.30133\atlmfc\include\afx.inl
;	COMDAT ??1CObject@@UAE@XZ
_TEXT	SEGMENT
??1CObject@@UAE@XZ PROC					; CObject::~CObject, COMDAT
; _this$ = ecx

; 104  : 	{ }

  00000	c2 00 00	 ret	 0
??1CObject@@UAE@XZ ENDP					; CObject::~CObject
_TEXT	ENDS
; Function compile flags: /Ogtp
; File D:\git\src\IBK\IBK_DRFN\ProjSrc\SrcChartEx\ChartOCX\IndicatorCondition\IndicatorConditionBaseData.cpp
;	COMDAT ?__empty_global_delete@@YAXPAXI@Z
_TEXT	SEGMENT
___formal$ = 8						; size = 4
___formal$ = 12						; size = 4
?__empty_global_delete@@YAXPAXI@Z PROC			; __empty_global_delete, COMDAT

  00000	c2 00 00	 ret	 0
?__empty_global_delete@@YAXPAXI@Z ENDP			; __empty_global_delete
_TEXT	ENDS
; Function compile flags: /Ogtp
; File D:\git\src\IBK\IBK_DRFN\ProjSrc\SrcChartEx\ChartOCX\IndicatorCondition\IndicatorConditionBaseData.cpp
;	COMDAT ?__empty_global_delete@@YAXPAX@Z
_TEXT	SEGMENT
___formal$ = 8						; size = 4
?__empty_global_delete@@YAXPAX@Z PROC			; __empty_global_delete, COMDAT

  00000	c2 00 00	 ret	 0
?__empty_global_delete@@YAXPAX@Z ENDP			; __empty_global_delete
_TEXT	ENDS
END
