; Listing generated by Microsoft (R) Optimizing Compiler Version 19.29.30145.0 

	TITLE	D:\git\src\IBK\IBK_DRFN\#DRfn-CS\_Obj\IndicatorCondition\IndicatorListImplementation.obj
	.686P
	.XMM
	include listing.inc
	.model	flat

INCLUDELIB MSVCRT
INCLUDELIB OLDNAMES

PUBLIC	?__empty_global_delete@@YAXPAX@Z		; __empty_global_delete
PUBLIC	?__empty_global_delete@@YAXPAXI@Z		; __empty_global_delete
PUBLIC	??1CObject@@UAE@XZ				; CObject::~CObject
PUBLIC	?Serialize@CObject@@UAEXAAVCArchive@@@Z		; CObject::Serialize
PUBLIC	?AssertValid@CObject@@UBEXXZ			; CObject::AssertValid
PUBLIC	?Dump@CObject@@UBEXAAVCDumpContext@@@Z		; CObject::Dump
PUBLIC	??0exception@std@@QAE@ABV01@@Z			; std::exception::exception
PUBLIC	??1exception@std@@UAE@XZ			; std::exception::~exception
PUBLIC	?what@exception@std@@UBEPBDXZ			; std::exception::what
PUBLIC	??_Gexception@std@@UAEPAXI@Z			; std::exception::`scalar deleting destructor'
PUBLIC	??0bad_alloc@std@@QAE@ABV01@@Z			; std::bad_alloc::bad_alloc
PUBLIC	??_Gbad_alloc@std@@UAEPAXI@Z			; std::bad_alloc::`scalar deleting destructor'
PUBLIC	??0bad_array_new_length@std@@QAE@XZ		; std::bad_array_new_length::bad_array_new_length
PUBLIC	??1bad_array_new_length@std@@UAE@XZ		; std::bad_array_new_length::~bad_array_new_length
PUBLIC	??0bad_array_new_length@std@@QAE@ABV01@@Z	; std::bad_array_new_length::bad_array_new_length
PUBLIC	??_Gbad_array_new_length@std@@UAEPAXI@Z		; std::bad_array_new_length::`scalar deleting destructor'
PUBLIC	?_Throw_bad_array_new_length@std@@YAXXZ		; std::_Throw_bad_array_new_length
PUBLIC	??0CIndicatorList@@QAE@ABV0@@Z			; CIndicatorList::CIndicatorList
PUBLIC	??4CIndicatorList@@QAEAAV0@ABV0@@Z		; CIndicatorList::operator=
PUBLIC	??_GCIndicatorList@@UAEPAXI@Z			; CIndicatorList::`scalar deleting destructor'
PUBLIC	??_ECIndicatorList@@UAEPAXI@Z			; CIndicatorList::`vector deleting destructor'
PUBLIC	??_FCSignalData@@QAEXXZ				; CSignalData::`default constructor closure'
PUBLIC	??0CGraphData@@QAE@XZ				; CGraphData::CGraphData
PUBLIC	?SetIndicatorName@CGraphData@@MAEXABV?$CStringT@DV?$StrTraitMFC_DLL@DV?$ChTraitsCRT@D@ATL@@@@@ATL@@@Z ; CGraphData::SetIndicatorName
PUBLIC	?SetGraphName@CGraphData@@MAEXABV?$CStringT@DV?$StrTraitMFC_DLL@DV?$ChTraitsCRT@D@ATL@@@@@ATL@@@Z ; CGraphData::SetGraphName
PUBLIC	?GetGraphName@CGraphData@@QBE?AV?$CStringT@DV?$StrTraitMFC_DLL@DV?$ChTraitsCRT@D@ATL@@@@@ATL@@XZ ; CGraphData::GetGraphName
PUBLIC	?GetIndicatorName@CGraphData@@QBE?AV?$CStringT@DV?$StrTraitMFC_DLL@DV?$ChTraitsCRT@D@ATL@@@@@ATL@@XZ ; CGraphData::GetIndicatorName
PUBLIC	?GetGraphName2@CGraphData@@QBE?AV?$CStringT@DV?$StrTraitMFC_DLL@DV?$ChTraitsCRT@D@ATL@@@@@ATL@@XZ ; CGraphData::GetGraphName2
PUBLIC	?GetIndicatorName2@CGraphData@@QBE?AV?$CStringT@DV?$StrTraitMFC_DLL@DV?$ChTraitsCRT@D@ATL@@@@@ATL@@XZ ; CGraphData::GetIndicatorName2
PUBLIC	??1CGraphData@@QAE@XZ				; CGraphData::~CGraphData
PUBLIC	??0CGraphData@@QAE@ABV0@@Z			; CGraphData::CGraphData
PUBLIC	?GetHorizontalLine@CSubGraphDataBase@@QBEABV?$CArray@PAU_ST_HORZLINE@@PAU1@@@XZ ; CSubGraphDataBase::GetHorizontalLine
PUBLIC	??1CUserIndicatorList@@UAE@XZ			; CUserIndicatorList::~CUserIndicatorList
PUBLIC	?_Xlen@?$deque@PAVCGraphTypeData@@V?$allocator@PAVCGraphTypeData@@@std@@@std@@ABEXXZ ; std::deque<CGraphTypeData *,std::allocator<CGraphTypeData *> >::_Xlen
PUBLIC	?_Growmap@?$deque@PAVCGraphTypeData@@V?$allocator@PAVCGraphTypeData@@@std@@@std@@AAEXI@Z ; std::deque<CGraphTypeData *,std::allocator<CGraphTypeData *> >::_Growmap
PUBLIC	?_Tidy@?$deque@PAVCGraphTypeData@@V?$allocator@PAVCGraphTypeData@@@std@@@std@@AAEXXZ ; std::deque<CGraphTypeData *,std::allocator<CGraphTypeData *> >::_Tidy
PUBLIC	??0CGraphTypeDataList@@QAE@ABV0@@Z		; CGraphTypeDataList::CGraphTypeDataList
PUBLIC	??_GCGraphTypeDataList@@UAEPAXI@Z		; CGraphTypeDataList::`scalar deleting destructor'
PUBLIC	??0CGraphTypeAndStyleData@@QAE@XZ		; CGraphTypeAndStyleData::CGraphTypeAndStyleData
PUBLIC	??0CGraphTypeAndStyleData@@QAE@ABV0@@Z		; CGraphTypeAndStyleData::CGraphTypeAndStyleData
PUBLIC	??4CGraphTypeAndStyleData@@QAEAAV0@ABV0@@Z	; CGraphTypeAndStyleData::operator=
PUBLIC	??_GCGraphTypeAndStyleData@@UAEPAXI@Z		; CGraphTypeAndStyleData::`scalar deleting destructor'
PUBLIC	??_ECGraphTypeAndStyleData@@UAEPAXI@Z		; CGraphTypeAndStyleData::`vector deleting destructor'
PUBLIC	??_FCIndicatorGroupData@@QAEXXZ			; CIndicatorGroupData::`default constructor closure'
PUBLIC	??0?$CList@PAVCIndicatorGroupData@@PAV1@@@QAE@H@Z ; CList<CIndicatorGroupData *,CIndicatorGroupData *>::CList<CIndicatorGroupData *,CIndicatorGroupData *>
PUBLIC	?AddTail@?$CList@PAVCIndicatorGroupData@@PAV1@@@QAEPAU__POSITION@@PAVCIndicatorGroupData@@@Z ; CList<CIndicatorGroupData *,CIndicatorGroupData *>::AddTail
PUBLIC	?RemoveAll@?$CList@PAVCIndicatorGroupData@@PAV1@@@QAEXXZ ; CList<CIndicatorGroupData *,CIndicatorGroupData *>::RemoveAll
PUBLIC	?NewNode@?$CList@PAVCIndicatorGroupData@@PAV1@@@IAEPAUCNode@1@PAU21@0@Z ; CList<CIndicatorGroupData *,CIndicatorGroupData *>::NewNode
PUBLIC	??1?$CList@PAVCIndicatorGroupData@@PAV1@@@UAE@XZ ; CList<CIndicatorGroupData *,CIndicatorGroupData *>::~CList<CIndicatorGroupData *,CIndicatorGroupData *>
PUBLIC	?Serialize@?$CList@PAVCIndicatorGroupData@@PAV1@@@UAEXAAVCArchive@@@Z ; CList<CIndicatorGroupData *,CIndicatorGroupData *>::Serialize
PUBLIC	??_G?$CList@PAVCIndicatorGroupData@@PAV1@@@UAEPAXI@Z ; CList<CIndicatorGroupData *,CIndicatorGroupData *>::`scalar deleting destructor'
PUBLIC	??0CIndicatorGroupDataList@@QAE@XZ		; CIndicatorGroupDataList::CIndicatorGroupDataList
PUBLIC	??_GCIndicatorGroupDataList@@UAEPAXI@Z		; CIndicatorGroupDataList::`scalar deleting destructor'
PUBLIC	??_ECIndicatorGroupDataList@@UAEPAXI@Z		; CIndicatorGroupDataList::`vector deleting destructor'
PUBLIC	??0CIndicatorListImplementation@@QAE@PAUHWND__@@PAVCIndicatorList@@ABV?$CStringT@DV?$StrTraitMFC_DLL@DV?$ChTraitsCRT@D@ATL@@@@@ATL@@22W4CHART_MODE@CChartInfo@@@Z ; CIndicatorListImplementation::CIndicatorListImplementation
PUBLIC	??1CIndicatorListImplementation@@UAE@XZ		; CIndicatorListImplementation::~CIndicatorListImplementation
PUBLIC	?LoadIndicatorInfo@CIndicatorListImplementation@@QAEHW4EIndicatorListType@@PBD@Z ; CIndicatorListImplementation::LoadIndicatorInfo
PUBLIC	?LoadIndicatorInfoFromString@CIndicatorListImplementation@@QAEHW4EIndicatorListType@@ABV?$CStringT@DV?$StrTraitMFC_DLL@DV?$ChTraitsCRT@D@ATL@@@@@ATL@@@Z ; CIndicatorListImplementation::LoadIndicatorInfoFromString
PUBLIC	?SaveIndicatorInfo@CIndicatorListImplementation@@QAEHW4EIndicatorListType@@PBD@Z ; CIndicatorListImplementation::SaveIndicatorInfo
PUBLIC	?GetSaveIndicatorInfoString@CIndicatorListImplementation@@QAEHW4EIndicatorListType@@AAV?$CStringT@DV?$StrTraitMFC_DLL@DV?$ChTraitsCRT@D@ATL@@@@@ATL@@@Z ; CIndicatorListImplementation::GetSaveIndicatorInfoString
PUBLIC	?GetCfgFileVersion@CIndicatorListImplementation@@QBENW4EIndicatorListType@@@Z ; CIndicatorListImplementation::GetCfgFileVersion
PUBLIC	?GetIndicatorNameList@CIndicatorListImplementation@@QBEHW4EIndicatorListType@@W4EIndicatorInfoType@@AAV?$CList@V?$CStringT@DV?$StrTraitMFC_DLL@DV?$ChTraitsCRT@D@ATL@@@@@ATL@@V12@@@@Z ; CIndicatorListImplementation::GetIndicatorNameList
PUBLIC	?GetGraphNameList@CIndicatorListImplementation@@QBEHW4EIndicatorListType@@W4EIndicatorInfoType@@AAV?$CList@V?$CStringT@DV?$StrTraitMFC_DLL@DV?$ChTraitsCRT@D@ATL@@@@@ATL@@V12@@@@Z ; CIndicatorListImplementation::GetGraphNameList
PUBLIC	?GetAllIndicatorNameWithGroupName@CIndicatorListImplementation@@QAEPAVCIndicatorGroupDataList@@XZ ; CIndicatorListImplementation::GetAllIndicatorNameWithGroupName
PUBLIC	?GetGraphTypeAndStyleData@CIndicatorListImplementation@@QAEPBVCGraphTypeAndStyleData@@XZ ; CIndicatorListImplementation::GetGraphTypeAndStyleData
PUBLIC	?GetGraphIndicatorInfo@CIndicatorListImplementation@@QAEPAVCIndicatorInfo@@W4EIndicatorListType@@PBD1W4EIndicatorInfoGettingType@@@Z ; CIndicatorListImplementation::GetGraphIndicatorInfo
PUBLIC	?CreateGraphIndicatorInfo@CIndicatorListImplementation@@QAEPAVCIndicatorInfo@@PBD@Z ; CIndicatorListImplementation::CreateGraphIndicatorInfo
PUBLIC	?GetFirstIndicatorInfo@CIndicatorListImplementation@@QAEPAVCIndicatorInfo@@W4EIndicatorListType@@PBDPAPAU__POSITION@@@Z ; CIndicatorListImplementation::GetFirstIndicatorInfo
PUBLIC	?GetNextIndicatorInfo@CIndicatorListImplementation@@QAEXW4EIndicatorListType@@PBDPAPAU__POSITION@@AAPAVCIndicatorInfo@@@Z ; CIndicatorListImplementation::GetNextIndicatorInfo
PUBLIC	?GetDefaultIndicatorInfo@CIndicatorListImplementation@@QAEPAVCIndicatorInfo@@W4EIndicatorListType@@PBDW4EIndicatorInfoGettingType@@@Z ; CIndicatorListImplementation::GetDefaultIndicatorInfo
PUBLIC	?RemoveGraphIndicatorInfo@CIndicatorListImplementation@@QAEHPBD@Z ; CIndicatorListImplementation::RemoveGraphIndicatorInfo
PUBLIC	?RemoveAllIndicatorInfo@CIndicatorListImplementation@@QAEHW4EIndicatorListType@@@Z ; CIndicatorListImplementation::RemoveAllIndicatorInfo
PUBLIC	?RemoveAllIndicatorInfo@CIndicatorListImplementation@@QAEHW4EIndicatorListType@@PBD@Z ; CIndicatorListImplementation::RemoveAllIndicatorInfo
PUBLIC	??_GCIndicatorListImplementation@@UAEPAXI@Z	; CIndicatorListImplementation::`scalar deleting destructor'
PUBLIC	??0CIndicatorInfo@@QAE@ABV0@@Z			; CIndicatorInfo::CIndicatorInfo
PUBLIC	??4CIndicatorInfo@@QAEAAV0@ABV0@@Z		; CIndicatorInfo::operator=
PUBLIC	??_GCIndicatorInfo@@UAEPAXI@Z			; CIndicatorInfo::`scalar deleting destructor'
PUBLIC	??_ECIndicatorInfo@@UAEPAXI@Z			; CIndicatorInfo::`vector deleting destructor'
PUBLIC	??1?$_Container_proxy_ptr12@V?$allocator@U_Container_proxy@std@@@std@@@std@@QAE@XZ ; std::_Container_proxy_ptr12<std::allocator<std::_Container_proxy> >::~_Container_proxy_ptr12<std::allocator<std::_Container_proxy> >
PUBLIC	??$assign@V?$_Deque_unchecked_const_iterator@V?$_Deque_val@U?$_Deque_simple_types@PAVCGraphTypeData@@@std@@@std@@@std@@$0A@@?$deque@PAVCGraphTypeData@@V?$allocator@PAVCGraphTypeData@@@std@@@std@@QAEXV?$_Deque_unchecked_const_iterator@V?$_Deque_val@U?$_Deque_simple_types@PAVCGraphTypeData@@@std@@@std@@@1@0@Z ; std::deque<CGraphTypeData *,std::allocator<CGraphTypeData *> >::assign<std::_Deque_unchecked_const_iterator<std::_Deque_val<std::_Deque_simple_types<CGraphTypeData *> > >,0>
PUBLIC	??$SerializeElements@PAVCIndicatorGroupData@@@@YGXAAVCArchive@@PAPAVCIndicatorGroupData@@H@Z ; SerializeElements<CIndicatorGroupData *>
PUBLIC	??1?$_Tidy_guard@V?$deque@PAVCGraphTypeData@@V?$allocator@PAVCGraphTypeData@@@std@@@std@@@std@@QAE@XZ ; std::_Tidy_guard<std::deque<CGraphTypeData *,std::allocator<CGraphTypeData *> > >::~_Tidy_guard<std::deque<CGraphTypeData *,std::allocator<CGraphTypeData *> > >
PUBLIC	??$_Allocate_manually_vector_aligned@U_Default_allocate_traits@std@@@std@@YAPAXI@Z ; std::_Allocate_manually_vector_aligned<std::_Default_allocate_traits>
PUBLIC	??$uninitialized_copy@PAPAPAVCGraphTypeData@@PAPAPAV1@@std@@YAPAPAPAVCGraphTypeData@@QAPAPAV1@0PAPAPAV1@@Z ; std::uninitialized_copy<CGraphTypeData * * *,CGraphTypeData * * *>
PUBLIC	??$_Uninitialized_value_construct_n_unchecked1@PAPAPAVCGraphTypeData@@I@std@@YAPAPAPAVCGraphTypeData@@PAPAPAV1@I@Z ; std::_Uninitialized_value_construct_n_unchecked1<CGraphTypeData * * *,unsigned int>
PUBLIC	??$_Zero_range@PAPAPAVCGraphTypeData@@@std@@YAPAPAPAVCGraphTypeData@@QAPAPAV1@0@Z ; std::_Zero_range<CGraphTypeData * * *>
PUBLIC	??$_Copy_memmove@PAPAPAVCGraphTypeData@@PAPAPAV1@@std@@YAPAPAPAVCGraphTypeData@@PAPAPAV1@00@Z ; std::_Copy_memmove<CGraphTypeData * * *,CGraphTypeData * * *>
PUBLIC	??_C@_00CNPNBAHC@@				; `string'
PUBLIC	??_R0?AVCObject@@@8				; CObject `RTTI Type Descriptor'
PUBLIC	??_R3CObject@@8					; CObject::`RTTI Class Hierarchy Descriptor'
PUBLIC	??_R2CObject@@8					; CObject::`RTTI Base Class Array'
PUBLIC	??_R1A@?0A@EA@CObject@@8			; CObject::`RTTI Base Class Descriptor at (0,-1,0,64)'
PUBLIC	??_7exception@std@@6B@				; std::exception::`vftable'
PUBLIC	??_C@_0BC@EOODALEL@Unknown?5exception@		; `string'
PUBLIC	??_7bad_alloc@std@@6B@				; std::bad_alloc::`vftable'
PUBLIC	??_7bad_array_new_length@std@@6B@		; std::bad_array_new_length::`vftable'
PUBLIC	??_C@_0BF@KINCDENJ@bad?5array?5new?5length@	; `string'
PUBLIC	__TI3?AVbad_array_new_length@std@@
PUBLIC	__CTA3?AVbad_array_new_length@std@@
PUBLIC	??_R0?AVbad_array_new_length@std@@@8		; std::bad_array_new_length `RTTI Type Descriptor'
PUBLIC	__CT??_R0?AVbad_array_new_length@std@@@8??0bad_array_new_length@std@@QAE@ABV01@@Z12
PUBLIC	??_R0?AVbad_alloc@std@@@8			; std::bad_alloc `RTTI Type Descriptor'
PUBLIC	__CT??_R0?AVbad_alloc@std@@@8??0bad_alloc@std@@QAE@ABV01@@Z12
PUBLIC	??_R0?AVexception@std@@@8			; std::exception `RTTI Type Descriptor'
PUBLIC	__CT??_R0?AVexception@std@@@8??0exception@std@@QAE@ABV01@@Z12
PUBLIC	??_7CIndicatorList@@6B@				; CIndicatorList::`vftable'
PUBLIC	??_7CGraphDataBase@@6B@				; CGraphDataBase::`vftable'
PUBLIC	??_7CGraphData@@6B@				; CGraphData::`vftable'
PUBLIC	??_7CGraphTypeDataList@@6B@			; CGraphTypeDataList::`vftable'
PUBLIC	??_7CGraphTypeAndStyleData@@6B@			; CGraphTypeAndStyleData::`vftable'
PUBLIC	??_7?$CList@PAVCIndicatorGroupData@@PAV1@@@6B@	; CList<CIndicatorGroupData *,CIndicatorGroupData *>::`vftable'
PUBLIC	??_7CIndicatorGroupDataList@@6B@		; CIndicatorGroupDataList::`vftable'
PUBLIC	?m_unchangeableData@CIndicatorListImplementation@@1VCUnchangeableData@@A ; CIndicatorListImplementation::m_unchangeableData
PUBLIC	??_7CIndicatorListImplementation@@6B@		; CIndicatorListImplementation::`vftable'
PUBLIC	??_7CIndicatorInfo@@6B@				; CIndicatorInfo::`vftable'
PUBLIC	??_C@_05GHAPOLAB@?$CD?$CF04X@			; `string'
PUBLIC	??_C@_0BC@KBDMBKEH@deque?$DMT?$DO?5too?5long@	; `string'
PUBLIC	??_R4exception@std@@6B@				; std::exception::`RTTI Complete Object Locator'
PUBLIC	??_R3exception@std@@8				; std::exception::`RTTI Class Hierarchy Descriptor'
PUBLIC	??_R2exception@std@@8				; std::exception::`RTTI Base Class Array'
PUBLIC	??_R1A@?0A@EA@exception@std@@8			; std::exception::`RTTI Base Class Descriptor at (0,-1,0,64)'
PUBLIC	??_R4bad_alloc@std@@6B@				; std::bad_alloc::`RTTI Complete Object Locator'
PUBLIC	??_R3bad_alloc@std@@8				; std::bad_alloc::`RTTI Class Hierarchy Descriptor'
PUBLIC	??_R2bad_alloc@std@@8				; std::bad_alloc::`RTTI Base Class Array'
PUBLIC	??_R1A@?0A@EA@bad_alloc@std@@8			; std::bad_alloc::`RTTI Base Class Descriptor at (0,-1,0,64)'
PUBLIC	??_R4bad_array_new_length@std@@6B@		; std::bad_array_new_length::`RTTI Complete Object Locator'
PUBLIC	??_R3bad_array_new_length@std@@8		; std::bad_array_new_length::`RTTI Class Hierarchy Descriptor'
PUBLIC	??_R2bad_array_new_length@std@@8		; std::bad_array_new_length::`RTTI Base Class Array'
PUBLIC	??_R1A@?0A@EA@bad_array_new_length@std@@8	; std::bad_array_new_length::`RTTI Base Class Descriptor at (0,-1,0,64)'
PUBLIC	??_R4CIndicatorInfo@@6B@			; CIndicatorInfo::`RTTI Complete Object Locator'
PUBLIC	??_R0?AVCIndicatorInfo@@@8			; CIndicatorInfo `RTTI Type Descriptor'
PUBLIC	??_R3CIndicatorInfo@@8				; CIndicatorInfo::`RTTI Class Hierarchy Descriptor'
PUBLIC	??_R2CIndicatorInfo@@8				; CIndicatorInfo::`RTTI Base Class Array'
PUBLIC	??_R1A@?0A@EA@CIndicatorInfo@@8			; CIndicatorInfo::`RTTI Base Class Descriptor at (0,-1,0,64)'
PUBLIC	??_R4CGraphTypeAndStyleData@@6B@		; CGraphTypeAndStyleData::`RTTI Complete Object Locator'
PUBLIC	??_R0?AVCGraphTypeAndStyleData@@@8		; CGraphTypeAndStyleData `RTTI Type Descriptor'
PUBLIC	??_R3CGraphTypeAndStyleData@@8			; CGraphTypeAndStyleData::`RTTI Class Hierarchy Descriptor'
PUBLIC	??_R2CGraphTypeAndStyleData@@8			; CGraphTypeAndStyleData::`RTTI Base Class Array'
PUBLIC	??_R1A@?0A@EA@CGraphTypeAndStyleData@@8		; CGraphTypeAndStyleData::`RTTI Base Class Descriptor at (0,-1,0,64)'
PUBLIC	??_R4CIndicatorGroupDataList@@6B@		; CIndicatorGroupDataList::`RTTI Complete Object Locator'
PUBLIC	??_R0?AVCIndicatorGroupDataList@@@8		; CIndicatorGroupDataList `RTTI Type Descriptor'
PUBLIC	??_R3CIndicatorGroupDataList@@8			; CIndicatorGroupDataList::`RTTI Class Hierarchy Descriptor'
PUBLIC	??_R2CIndicatorGroupDataList@@8			; CIndicatorGroupDataList::`RTTI Base Class Array'
PUBLIC	??_R1A@?0A@EA@CIndicatorGroupDataList@@8	; CIndicatorGroupDataList::`RTTI Base Class Descriptor at (0,-1,0,64)'
PUBLIC	??_R4CIndicatorListImplementation@@6B@		; CIndicatorListImplementation::`RTTI Complete Object Locator'
PUBLIC	??_R0?AVCIndicatorListImplementation@@@8	; CIndicatorListImplementation `RTTI Type Descriptor'
PUBLIC	??_R3CIndicatorListImplementation@@8		; CIndicatorListImplementation::`RTTI Class Hierarchy Descriptor'
PUBLIC	??_R2CIndicatorListImplementation@@8		; CIndicatorListImplementation::`RTTI Base Class Array'
PUBLIC	??_R1A@?0A@EA@CIndicatorListImplementation@@8	; CIndicatorListImplementation::`RTTI Base Class Descriptor at (0,-1,0,64)'
PUBLIC	??_R4CIndicatorList@@6B@			; CIndicatorList::`RTTI Complete Object Locator'
PUBLIC	??_R0?AVCIndicatorList@@@8			; CIndicatorList `RTTI Type Descriptor'
PUBLIC	??_R3CIndicatorList@@8				; CIndicatorList::`RTTI Class Hierarchy Descriptor'
PUBLIC	??_R2CIndicatorList@@8				; CIndicatorList::`RTTI Base Class Array'
PUBLIC	??_R1A@?0A@EA@CIndicatorList@@8			; CIndicatorList::`RTTI Base Class Descriptor at (0,-1,0,64)'
PUBLIC	??_R4CGraphDataBase@@6B@			; CGraphDataBase::`RTTI Complete Object Locator'
PUBLIC	??_R0?AVCGraphDataBase@@@8			; CGraphDataBase `RTTI Type Descriptor'
PUBLIC	??_R3CGraphDataBase@@8				; CGraphDataBase::`RTTI Class Hierarchy Descriptor'
PUBLIC	??_R2CGraphDataBase@@8				; CGraphDataBase::`RTTI Base Class Array'
PUBLIC	??_R1A@?0A@EA@CGraphDataBase@@8			; CGraphDataBase::`RTTI Base Class Descriptor at (0,-1,0,64)'
PUBLIC	??_R4CGraphData@@6B@				; CGraphData::`RTTI Complete Object Locator'
PUBLIC	??_R0?AVCGraphData@@@8				; CGraphData `RTTI Type Descriptor'
PUBLIC	??_R3CGraphData@@8				; CGraphData::`RTTI Class Hierarchy Descriptor'
PUBLIC	??_R2CGraphData@@8				; CGraphData::`RTTI Base Class Array'
PUBLIC	??_R1A@?0A@EA@CGraphData@@8			; CGraphData::`RTTI Base Class Descriptor at (0,-1,0,64)'
PUBLIC	??_R4CGraphTypeDataList@@6B@			; CGraphTypeDataList::`RTTI Complete Object Locator'
PUBLIC	??_R0?AVCGraphTypeDataList@@@8			; CGraphTypeDataList `RTTI Type Descriptor'
PUBLIC	??_R3CGraphTypeDataList@@8			; CGraphTypeDataList::`RTTI Class Hierarchy Descriptor'
PUBLIC	??_R2CGraphTypeDataList@@8			; CGraphTypeDataList::`RTTI Base Class Array'
PUBLIC	??_R1A@?0A@EA@CGraphTypeDataList@@8		; CGraphTypeDataList::`RTTI Base Class Descriptor at (0,-1,0,64)'
PUBLIC	??_R4?$CList@PAVCIndicatorGroupData@@PAV1@@@6B@	; CList<CIndicatorGroupData *,CIndicatorGroupData *>::`RTTI Complete Object Locator'
PUBLIC	??_R0?AV?$CList@PAVCIndicatorGroupData@@PAV1@@@@8 ; CList<CIndicatorGroupData *,CIndicatorGroupData *> `RTTI Type Descriptor'
PUBLIC	??_R3?$CList@PAVCIndicatorGroupData@@PAV1@@@8	; CList<CIndicatorGroupData *,CIndicatorGroupData *>::`RTTI Class Hierarchy Descriptor'
PUBLIC	??_R2?$CList@PAVCIndicatorGroupData@@PAV1@@@8	; CList<CIndicatorGroupData *,CIndicatorGroupData *>::`RTTI Base Class Array'
PUBLIC	??_R1A@?0A@EA@?$CList@PAVCIndicatorGroupData@@PAV1@@@8 ; CList<CIndicatorGroupData *,CIndicatorGroupData *>::`RTTI Base Class Descriptor at (0,-1,0,64)'
PUBLIC	__real@0000000000000000
EXTRN	??_M@YGXPAXIIP6EX0@Z@Z:PROC			; `eh vector destructor iterator'
EXTRN	__purecall:PROC
EXTRN	??2@YAPAXI@Z:PROC				; operator new
EXTRN	??3@YAXPAX@Z:PROC				; operator delete
EXTRN	??3@YAXPAXI@Z:PROC				; operator delete
EXTRN	?__global_delete@@YAXPAXI@Z:PROC		; __global_delete
EXTRN	??_V@YAXPAXI@Z:PROC				; operator delete[]
EXTRN	_atexit:PROC
EXTRN	___std_terminate:PROC
EXTRN	__imp___invalid_parameter_noinfo_noreturn:PROC
EXTRN	__imp__rand:PROC
EXTRN	?AfxThrowInvalidArgException@@YGXXZ:PROC	; AfxThrowInvalidArgException
EXTRN	?AfxThrowArchiveException@@YGXHPBD@Z:PROC	; AfxThrowArchiveException
EXTRN	?GetRuntimeClass@CObject@@UBEPAUCRuntimeClass@@XZ:PROC ; CObject::GetRuntimeClass
EXTRN	__imp_?Empty@?$CSimpleStringT@D$00@ATL@@QAEXXZ:PROC
EXTRN	__imp_?GetBufferSetLength@?$CSimpleStringT@D$00@ATL@@QAEPADH@Z:PROC
EXTRN	__imp_??0?$CStringT@DV?$StrTraitMFC_DLL@DV?$ChTraitsCRT@D@ATL@@@@@ATL@@QAE@XZ:PROC
EXTRN	__imp_??0?$CStringT@DV?$StrTraitMFC_DLL@DV?$ChTraitsCRT@D@ATL@@@@@ATL@@QAE@ABV01@@Z:PROC
EXTRN	__imp_??0?$CStringT@DV?$StrTraitMFC_DLL@DV?$ChTraitsCRT@D@ATL@@@@@ATL@@QAE@PBD@Z:PROC
EXTRN	__imp_??1?$CStringT@DV?$StrTraitMFC_DLL@DV?$ChTraitsCRT@D@ATL@@@@@ATL@@QAE@XZ:PROC
EXTRN	__imp_??4?$CStringT@DV?$StrTraitMFC_DLL@DV?$ChTraitsCRT@D@ATL@@@@@ATL@@QAEAAV01@ABV01@@Z:PROC
EXTRN	__imp_?Format@?$CStringT@DV?$StrTraitMFC_DLL@DV?$ChTraitsCRT@D@ATL@@@@@ATL@@QAAXPBDZZ:PROC
EXTRN	?Read@CArchive@@QAEIPAXI@Z:PROC			; CArchive::Read
EXTRN	?Write@CArchive@@QAEXPBXI@Z:PROC		; CArchive::Write
EXTRN	?ReadCount@CArchive@@QAEKXZ:PROC		; CArchive::ReadCount
EXTRN	?WriteCount@CArchive@@QAEXK@Z:PROC		; CArchive::WriteCount
EXTRN	??0CStringList@@QAE@H@Z:PROC			; CStringList::CStringList
EXTRN	??1CStringList@@UAE@XZ:PROC			; CStringList::~CStringList
EXTRN	?Create@CPlex@@SGPAU1@AAPAU1@II@Z:PROC		; CPlex::Create
EXTRN	?FreeDataChain@CPlex@@QAEXXZ:PROC		; CPlex::FreeDataChain
EXTRN	___std_exception_copy:PROC
EXTRN	___std_exception_destroy:PROC
EXTRN	??_Eexception@std@@UAEPAXI@Z:PROC		; std::exception::`vector deleting destructor'
EXTRN	??_Ebad_alloc@std@@UAEPAXI@Z:PROC		; std::bad_alloc::`vector deleting destructor'
EXTRN	??_Ebad_array_new_length@std@@UAEPAXI@Z:PROC	; std::bad_array_new_length::`vector deleting destructor'
EXTRN	?_Xlength_error@std@@YAXPBD@Z:PROC		; std::_Xlength_error
EXTRN	??1CIndicatorList@@UAE@XZ:PROC			; CIndicatorList::~CIndicatorList
EXTRN	??0CGraphDataDrawingData@@QAE@XZ:PROC		; CGraphDataDrawingData::CGraphDataDrawingData
EXTRN	??0CGraphDataDrawingData@@QAE@ABV0@@Z:PROC	; CGraphDataDrawingData::CGraphDataDrawingData
EXTRN	?SetDoesCalcRiseFallRate_LowHigh@CGraphDataDrawingData@@QAEX_N@Z:PROC ; CGraphDataDrawingData::SetDoesCalcRiseFallRate_LowHigh
EXTRN	?SetDoesCalcRiseFallRate_LowCur@CGraphDataDrawingData@@QAEX_N@Z:PROC ; CGraphDataDrawingData::SetDoesCalcRiseFallRate_LowCur
EXTRN	?SetDoesCalcRiseFallRate_HighCur@CGraphDataDrawingData@@QAEX_N@Z:PROC ; CGraphDataDrawingData::SetDoesCalcRiseFallRate_HighCur
EXTRN	?SetShowOHLC@CGraphDataDrawingData@@QAEXH@Z:PROC ; CGraphDataDrawingData::SetShowOHLC
EXTRN	??0CSignalData@@QAE@_N0@Z:PROC			; CSignalData::CSignalData
EXTRN	??0CSignalData@@QAE@ABV0@@Z:PROC		; CSignalData::CSignalData
EXTRN	??1CSignalData@@QAE@XZ:PROC			; CSignalData::~CSignalData
EXTRN	?GetGraphDataDrawingData@CGraphData@@QAEAAVCGraphDataDrawingData@@XZ:PROC ; CGraphData::GetGraphDataDrawingData
EXTRN	??1CBaseIndicatorList@@UAE@XZ:PROC		; CBaseIndicatorList::~CBaseIndicatorList
EXTRN	?GetVersion@CBaseIndicatorList@@QBENXZ:PROC	; CBaseIndicatorList::GetVersion
EXTRN	?AddIndicatorInfo@CBaseIndicatorList@@QAE_NPAVCIndicatorInfo@@@Z:PROC ; CBaseIndicatorList::AddIndicatorInfo
EXTRN	?Delete@CBaseIndicatorList@@QAE_NPAVCIndicatorInfo@@@Z:PROC ; CBaseIndicatorList::Delete
EXTRN	?DeleteAll@CBaseIndicatorList@@QAE_NW4INDICATORTYPE@1@@Z:PROC ; CBaseIndicatorList::DeleteAll
EXTRN	?RemoveAllIndicator@CBaseIndicatorList@@QAE_NW4INDICATORTYPE@1@PBD@Z:PROC ; CBaseIndicatorList::RemoveAllIndicator
EXTRN	?GetIndicatorNameList@CBaseIndicatorList@@QBE_NW4INDICATORTYPE@1@AAV?$CList@V?$CStringT@DV?$StrTraitMFC_DLL@DV?$ChTraitsCRT@D@ATL@@@@@ATL@@V12@@@W4CHART_MODE@CChartInfo@@@Z:PROC ; CBaseIndicatorList::GetIndicatorNameList
EXTRN	?GetGraphNameList@CBaseIndicatorList@@QBE_NW4INDICATORTYPE@1@AAV?$CList@V?$CStringT@DV?$StrTraitMFC_DLL@DV?$ChTraitsCRT@D@ATL@@@@@ATL@@V12@@@W4CHART_MODE@CChartInfo@@@Z:PROC ; CBaseIndicatorList::GetGraphNameList
EXTRN	?GetIndicatorInfo@CBaseIndicatorList@@QAEPAVCIndicatorInfo@@PBDW4CHART_MODE@CChartInfo@@@Z:PROC ; CBaseIndicatorList::GetIndicatorInfo
EXTRN	?GetFirstIndicatorInfo@CBaseIndicatorList@@QBEPAVCIndicatorInfo@@PBDPAPAU__POSITION@@W4CHART_MODE@CChartInfo@@@Z:PROC ; CBaseIndicatorList::GetFirstIndicatorInfo
EXTRN	?GetNextIndicatorInfo@CBaseIndicatorList@@QBEXPBDPAPAU__POSITION@@AAPAVCIndicatorInfo@@@Z:PROC ; CBaseIndicatorList::GetNextIndicatorInfo
EXTRN	??1CDefaultIndicatorList@@UAE@XZ:PROC		; CDefaultIndicatorList::~CDefaultIndicatorList
EXTRN	??0CUserIndicatorList@@QAE@PAVCDefaultIndicatorList@@W4EIndicatorListType@@PAUHWND__@@@Z:PROC ; CUserIndicatorList::CUserIndicatorList
EXTRN	?AddIndiInfoFromCfgString@CUserIndicatorList@@QAE_NPAVCIndicatorList@@AAPAD_N@Z:PROC ; CUserIndicatorList::AddIndiInfoFromCfgString
EXTRN	?GetWritingFileData@CUserIndicatorList@@QBEXAAVCStringList@@@Z:PROC ; CUserIndicatorList::GetWritingFileData
EXTRN	??1CGraphTypeDataList@@UAE@XZ:PROC		; CGraphTypeDataList::~CGraphTypeDataList
EXTRN	??_ECGraphTypeDataList@@UAEPAXI@Z:PROC		; CGraphTypeDataList::`vector deleting destructor'
EXTRN	??1CGraphTypeAndStyleData@@UAE@XZ:PROC		; CGraphTypeAndStyleData::~CGraphTypeAndStyleData
EXTRN	??0CIndicatorGroupData@@QAE@ABV?$CStringT@DV?$StrTraitMFC_DLL@DV?$ChTraitsCRT@D@ATL@@@@@ATL@@@Z:PROC ; CIndicatorGroupData::CIndicatorGroupData
EXTRN	??1CIndicatorGroupDataList@@UAE@XZ:PROC		; CIndicatorGroupDataList::~CIndicatorGroupDataList
EXTRN	?GetCount@CIndicatorGroupDataList@@QBEHXZ:PROC	; CIndicatorGroupDataList::GetCount
EXTRN	??_E?$CList@PAVCIndicatorGroupData@@PAV1@@@UAEPAXI@Z:PROC ; CList<CIndicatorGroupData *,CIndicatorGroupData *>::`vector deleting destructor'
EXTRN	??0CUnchangeableData@@QAE@XZ:PROC		; CUnchangeableData::CUnchangeableData
EXTRN	?FileSUDefaultDataBuild@CUnchangeableData@@QAE_NPAVCIndicatorList@@ABV?$CStringT@DV?$StrTraitMFC_DLL@DV?$ChTraitsCRT@D@ATL@@@@@ATL@@1PAUHWND__@@@Z:PROC ; CUnchangeableData::FileSUDefaultDataBuild
EXTRN	?GetWritingFileData@CUnchangeableData@@QBEXAAVCStringList@@@Z:PROC ; CUnchangeableData::GetWritingFileData
EXTRN	?GetDefaultVersion@CUnchangeableData@@QBENXZ:PROC ; CUnchangeableData::GetDefaultVersion
EXTRN	?GetMainDefaultIndicatorList@CUnchangeableData@@QAEAAVCDefaultIndicatorList@@XZ:PROC ; CUnchangeableData::GetMainDefaultIndicatorList
EXTRN	?GetMainDefaultIndicatorList_Pointer@CUnchangeableData@@QAEPAVCDefaultIndicatorList@@XZ:PROC ; CUnchangeableData::GetMainDefaultIndicatorList_Pointer
EXTRN	?GetAllIndicatorNameWithGroupName@CUnchangeableData@@QAEHAAVCIndicatorGroupDataList@@W4CHART_MODE@CChartInfo@@@Z:PROC ; CUnchangeableData::GetAllIndicatorNameWithGroupName
EXTRN	?GetUserDefaultIndiList@CUnchangeableData@@QBEPAVCUserIndicatorList@@XZ:PROC ; CUnchangeableData::GetUserDefaultIndiList
EXTRN	?GetMainDefaultIndicatorNameList_General@CUnchangeableData@@QBE_NAAV?$CList@V?$CStringT@DV?$StrTraitMFC_DLL@DV?$ChTraitsCRT@D@ATL@@@@@ATL@@V12@@@W4CHART_MODE@CChartInfo@@@Z:PROC ; CUnchangeableData::GetMainDefaultIndicatorNameList_General
EXTRN	?GetMainDefaultIndicatorNameList_Special@CUnchangeableData@@QBE_NAAV?$CList@V?$CStringT@DV?$StrTraitMFC_DLL@DV?$ChTraitsCRT@D@ATL@@@@@ATL@@V12@@@W4CHART_MODE@CChartInfo@@@Z:PROC ; CUnchangeableData::GetMainDefaultIndicatorNameList_Special
EXTRN	?GetMainDefaultIndicatorNameList_None@CUnchangeableData@@QBE_NAAV?$CList@V?$CStringT@DV?$StrTraitMFC_DLL@DV?$ChTraitsCRT@D@ATL@@@@@ATL@@V12@@@W4CHART_MODE@CChartInfo@@@Z:PROC ; CUnchangeableData::GetMainDefaultIndicatorNameList_None
EXTRN	??_ECIndicatorListImplementation@@UAEPAXI@Z:PROC ; CIndicatorListImplementation::`vector deleting destructor'
EXTRN	?Make@CIndicatorInfo@@SAPAV1@PBV1@@Z:PROC	; CIndicatorInfo::Make
EXTRN	??1CIndicatorInfo@@UAE@XZ:PROC			; CIndicatorInfo::~CIndicatorInfo
EXTRN	?GetGraphData_PointerType@CIndicatorInfo@@QAEPAVCGraphData@@XZ:PROC ; CIndicatorInfo::GetGraphData_PointerType
EXTRN	?FileRead@CFileBuilder@@QBEPADPBDAAV?$CStringT@DV?$StrTraitMFC_DLL@DV?$ChTraitsCRT@D@ATL@@@@@ATL@@@Z:PROC ; CFileBuilder::FileRead
EXTRN	?FileCreatWrite@CFileBuilder@@QAE_NPBDAAVCStringList@@@Z:PROC ; CFileBuilder::FileCreatWrite
EXTRN	@__security_check_cookie@4:PROC
EXTRN	__CxxThrowException@8:PROC
EXTRN	___CxxFrameHandler3:PROC
EXTRN	_memmove:PROC
EXTRN	_memset:PROC
EXTRN	??_7type_info@@6B@:QWORD			; type_info::`vftable'
EXTRN	?g_iMetaTable@@3VIMetaTable@@A:BYTE		; g_iMetaTable
EXTRN	___security_cookie:DWORD
EXTRN	__fltused:DWORD
_BSS	SEGMENT
?m_unchangeableData@CIndicatorListImplementation@@1VCUnchangeableData@@A DB 080H DUP (?) ; CIndicatorListImplementation::m_unchangeableData
_BSS	ENDS
CRT$XCU	SEGMENT
??m_unchangeableData$initializer$@CIndicatorListImplementation@@1P6AXXZA@@3P6AXXZA DD FLAT:??__E?m_unchangeableData@CIndicatorListImplementation@@1VCUnchangeableData@@A@@YAXXZ ; ??m_unchangeableData$initializer$@CIndicatorListImplementation@@1P6AXXZA@@3P6AXXZA
CRT$XCU	ENDS
;	COMDAT __real@0000000000000000
CONST	SEGMENT
__real@0000000000000000 DQ 00000000000000000r	; 0
CONST	ENDS
;	COMDAT ??_R1A@?0A@EA@?$CList@PAVCIndicatorGroupData@@PAV1@@@8
rdata$r	SEGMENT
??_R1A@?0A@EA@?$CList@PAVCIndicatorGroupData@@PAV1@@@8 DD FLAT:??_R0?AV?$CList@PAVCIndicatorGroupData@@PAV1@@@@8 ; CList<CIndicatorGroupData *,CIndicatorGroupData *>::`RTTI Base Class Descriptor at (0,-1,0,64)'
	DD	01H
	DD	00H
	DD	0ffffffffH
	DD	00H
	DD	040H
	DD	FLAT:??_R3?$CList@PAVCIndicatorGroupData@@PAV1@@@8
rdata$r	ENDS
;	COMDAT ??_R2?$CList@PAVCIndicatorGroupData@@PAV1@@@8
rdata$r	SEGMENT
??_R2?$CList@PAVCIndicatorGroupData@@PAV1@@@8 DD FLAT:??_R1A@?0A@EA@?$CList@PAVCIndicatorGroupData@@PAV1@@@8 ; CList<CIndicatorGroupData *,CIndicatorGroupData *>::`RTTI Base Class Array'
	DD	FLAT:??_R1A@?0A@EA@CObject@@8
rdata$r	ENDS
;	COMDAT ??_R3?$CList@PAVCIndicatorGroupData@@PAV1@@@8
rdata$r	SEGMENT
??_R3?$CList@PAVCIndicatorGroupData@@PAV1@@@8 DD 00H	; CList<CIndicatorGroupData *,CIndicatorGroupData *>::`RTTI Class Hierarchy Descriptor'
	DD	00H
	DD	02H
	DD	FLAT:??_R2?$CList@PAVCIndicatorGroupData@@PAV1@@@8
rdata$r	ENDS
;	COMDAT ??_R0?AV?$CList@PAVCIndicatorGroupData@@PAV1@@@@8
data$rs	SEGMENT
??_R0?AV?$CList@PAVCIndicatorGroupData@@PAV1@@@@8 DD FLAT:??_7type_info@@6B@ ; CList<CIndicatorGroupData *,CIndicatorGroupData *> `RTTI Type Descriptor'
	DD	00H
	DB	'.?AV?$CList@PAVCIndicatorGroupData@@PAV1@@@', 00H
data$rs	ENDS
;	COMDAT ??_R4?$CList@PAVCIndicatorGroupData@@PAV1@@@6B@
rdata$r	SEGMENT
??_R4?$CList@PAVCIndicatorGroupData@@PAV1@@@6B@ DD 00H	; CList<CIndicatorGroupData *,CIndicatorGroupData *>::`RTTI Complete Object Locator'
	DD	00H
	DD	00H
	DD	FLAT:??_R0?AV?$CList@PAVCIndicatorGroupData@@PAV1@@@@8
	DD	FLAT:??_R3?$CList@PAVCIndicatorGroupData@@PAV1@@@8
rdata$r	ENDS
;	COMDAT ??_R1A@?0A@EA@CGraphTypeDataList@@8
rdata$r	SEGMENT
??_R1A@?0A@EA@CGraphTypeDataList@@8 DD FLAT:??_R0?AVCGraphTypeDataList@@@8 ; CGraphTypeDataList::`RTTI Base Class Descriptor at (0,-1,0,64)'
	DD	00H
	DD	00H
	DD	0ffffffffH
	DD	00H
	DD	040H
	DD	FLAT:??_R3CGraphTypeDataList@@8
rdata$r	ENDS
;	COMDAT ??_R2CGraphTypeDataList@@8
rdata$r	SEGMENT
??_R2CGraphTypeDataList@@8 DD FLAT:??_R1A@?0A@EA@CGraphTypeDataList@@8 ; CGraphTypeDataList::`RTTI Base Class Array'
rdata$r	ENDS
;	COMDAT ??_R3CGraphTypeDataList@@8
rdata$r	SEGMENT
??_R3CGraphTypeDataList@@8 DD 00H			; CGraphTypeDataList::`RTTI Class Hierarchy Descriptor'
	DD	00H
	DD	01H
	DD	FLAT:??_R2CGraphTypeDataList@@8
rdata$r	ENDS
;	COMDAT ??_R0?AVCGraphTypeDataList@@@8
data$rs	SEGMENT
??_R0?AVCGraphTypeDataList@@@8 DD FLAT:??_7type_info@@6B@ ; CGraphTypeDataList `RTTI Type Descriptor'
	DD	00H
	DB	'.?AVCGraphTypeDataList@@', 00H
data$rs	ENDS
;	COMDAT ??_R4CGraphTypeDataList@@6B@
rdata$r	SEGMENT
??_R4CGraphTypeDataList@@6B@ DD 00H			; CGraphTypeDataList::`RTTI Complete Object Locator'
	DD	00H
	DD	00H
	DD	FLAT:??_R0?AVCGraphTypeDataList@@@8
	DD	FLAT:??_R3CGraphTypeDataList@@8
rdata$r	ENDS
;	COMDAT ??_R1A@?0A@EA@CGraphData@@8
rdata$r	SEGMENT
??_R1A@?0A@EA@CGraphData@@8 DD FLAT:??_R0?AVCGraphData@@@8 ; CGraphData::`RTTI Base Class Descriptor at (0,-1,0,64)'
	DD	01H
	DD	00H
	DD	0ffffffffH
	DD	00H
	DD	040H
	DD	FLAT:??_R3CGraphData@@8
rdata$r	ENDS
;	COMDAT ??_R2CGraphData@@8
rdata$r	SEGMENT
??_R2CGraphData@@8 DD FLAT:??_R1A@?0A@EA@CGraphData@@8	; CGraphData::`RTTI Base Class Array'
	DD	FLAT:??_R1A@?0A@EA@CGraphDataBase@@8
rdata$r	ENDS
;	COMDAT ??_R3CGraphData@@8
rdata$r	SEGMENT
??_R3CGraphData@@8 DD 00H				; CGraphData::`RTTI Class Hierarchy Descriptor'
	DD	00H
	DD	02H
	DD	FLAT:??_R2CGraphData@@8
rdata$r	ENDS
;	COMDAT ??_R0?AVCGraphData@@@8
data$rs	SEGMENT
??_R0?AVCGraphData@@@8 DD FLAT:??_7type_info@@6B@	; CGraphData `RTTI Type Descriptor'
	DD	00H
	DB	'.?AVCGraphData@@', 00H
data$rs	ENDS
;	COMDAT ??_R4CGraphData@@6B@
rdata$r	SEGMENT
??_R4CGraphData@@6B@ DD 00H				; CGraphData::`RTTI Complete Object Locator'
	DD	00H
	DD	00H
	DD	FLAT:??_R0?AVCGraphData@@@8
	DD	FLAT:??_R3CGraphData@@8
rdata$r	ENDS
;	COMDAT ??_R1A@?0A@EA@CGraphDataBase@@8
rdata$r	SEGMENT
??_R1A@?0A@EA@CGraphDataBase@@8 DD FLAT:??_R0?AVCGraphDataBase@@@8 ; CGraphDataBase::`RTTI Base Class Descriptor at (0,-1,0,64)'
	DD	00H
	DD	00H
	DD	0ffffffffH
	DD	00H
	DD	040H
	DD	FLAT:??_R3CGraphDataBase@@8
rdata$r	ENDS
;	COMDAT ??_R2CGraphDataBase@@8
rdata$r	SEGMENT
??_R2CGraphDataBase@@8 DD FLAT:??_R1A@?0A@EA@CGraphDataBase@@8 ; CGraphDataBase::`RTTI Base Class Array'
rdata$r	ENDS
;	COMDAT ??_R3CGraphDataBase@@8
rdata$r	SEGMENT
??_R3CGraphDataBase@@8 DD 00H				; CGraphDataBase::`RTTI Class Hierarchy Descriptor'
	DD	00H
	DD	01H
	DD	FLAT:??_R2CGraphDataBase@@8
rdata$r	ENDS
;	COMDAT ??_R0?AVCGraphDataBase@@@8
data$rs	SEGMENT
??_R0?AVCGraphDataBase@@@8 DD FLAT:??_7type_info@@6B@	; CGraphDataBase `RTTI Type Descriptor'
	DD	00H
	DB	'.?AVCGraphDataBase@@', 00H
data$rs	ENDS
;	COMDAT ??_R4CGraphDataBase@@6B@
rdata$r	SEGMENT
??_R4CGraphDataBase@@6B@ DD 00H				; CGraphDataBase::`RTTI Complete Object Locator'
	DD	00H
	DD	00H
	DD	FLAT:??_R0?AVCGraphDataBase@@@8
	DD	FLAT:??_R3CGraphDataBase@@8
rdata$r	ENDS
;	COMDAT ??_R1A@?0A@EA@CIndicatorList@@8
rdata$r	SEGMENT
??_R1A@?0A@EA@CIndicatorList@@8 DD FLAT:??_R0?AVCIndicatorList@@@8 ; CIndicatorList::`RTTI Base Class Descriptor at (0,-1,0,64)'
	DD	00H
	DD	00H
	DD	0ffffffffH
	DD	00H
	DD	040H
	DD	FLAT:??_R3CIndicatorList@@8
rdata$r	ENDS
;	COMDAT ??_R2CIndicatorList@@8
rdata$r	SEGMENT
??_R2CIndicatorList@@8 DD FLAT:??_R1A@?0A@EA@CIndicatorList@@8 ; CIndicatorList::`RTTI Base Class Array'
rdata$r	ENDS
;	COMDAT ??_R3CIndicatorList@@8
rdata$r	SEGMENT
??_R3CIndicatorList@@8 DD 00H				; CIndicatorList::`RTTI Class Hierarchy Descriptor'
	DD	00H
	DD	01H
	DD	FLAT:??_R2CIndicatorList@@8
rdata$r	ENDS
;	COMDAT ??_R0?AVCIndicatorList@@@8
data$rs	SEGMENT
??_R0?AVCIndicatorList@@@8 DD FLAT:??_7type_info@@6B@	; CIndicatorList `RTTI Type Descriptor'
	DD	00H
	DB	'.?AVCIndicatorList@@', 00H
data$rs	ENDS
;	COMDAT ??_R4CIndicatorList@@6B@
rdata$r	SEGMENT
??_R4CIndicatorList@@6B@ DD 00H				; CIndicatorList::`RTTI Complete Object Locator'
	DD	00H
	DD	00H
	DD	FLAT:??_R0?AVCIndicatorList@@@8
	DD	FLAT:??_R3CIndicatorList@@8
rdata$r	ENDS
;	COMDAT ??_R1A@?0A@EA@CIndicatorListImplementation@@8
rdata$r	SEGMENT
??_R1A@?0A@EA@CIndicatorListImplementation@@8 DD FLAT:??_R0?AVCIndicatorListImplementation@@@8 ; CIndicatorListImplementation::`RTTI Base Class Descriptor at (0,-1,0,64)'
	DD	00H
	DD	00H
	DD	0ffffffffH
	DD	00H
	DD	040H
	DD	FLAT:??_R3CIndicatorListImplementation@@8
rdata$r	ENDS
;	COMDAT ??_R2CIndicatorListImplementation@@8
rdata$r	SEGMENT
??_R2CIndicatorListImplementation@@8 DD FLAT:??_R1A@?0A@EA@CIndicatorListImplementation@@8 ; CIndicatorListImplementation::`RTTI Base Class Array'
rdata$r	ENDS
;	COMDAT ??_R3CIndicatorListImplementation@@8
rdata$r	SEGMENT
??_R3CIndicatorListImplementation@@8 DD 00H		; CIndicatorListImplementation::`RTTI Class Hierarchy Descriptor'
	DD	00H
	DD	01H
	DD	FLAT:??_R2CIndicatorListImplementation@@8
rdata$r	ENDS
;	COMDAT ??_R0?AVCIndicatorListImplementation@@@8
data$rs	SEGMENT
??_R0?AVCIndicatorListImplementation@@@8 DD FLAT:??_7type_info@@6B@ ; CIndicatorListImplementation `RTTI Type Descriptor'
	DD	00H
	DB	'.?AVCIndicatorListImplementation@@', 00H
data$rs	ENDS
;	COMDAT ??_R4CIndicatorListImplementation@@6B@
rdata$r	SEGMENT
??_R4CIndicatorListImplementation@@6B@ DD 00H		; CIndicatorListImplementation::`RTTI Complete Object Locator'
	DD	00H
	DD	00H
	DD	FLAT:??_R0?AVCIndicatorListImplementation@@@8
	DD	FLAT:??_R3CIndicatorListImplementation@@8
rdata$r	ENDS
;	COMDAT ??_R1A@?0A@EA@CIndicatorGroupDataList@@8
rdata$r	SEGMENT
??_R1A@?0A@EA@CIndicatorGroupDataList@@8 DD FLAT:??_R0?AVCIndicatorGroupDataList@@@8 ; CIndicatorGroupDataList::`RTTI Base Class Descriptor at (0,-1,0,64)'
	DD	00H
	DD	00H
	DD	0ffffffffH
	DD	00H
	DD	040H
	DD	FLAT:??_R3CIndicatorGroupDataList@@8
rdata$r	ENDS
;	COMDAT ??_R2CIndicatorGroupDataList@@8
rdata$r	SEGMENT
??_R2CIndicatorGroupDataList@@8 DD FLAT:??_R1A@?0A@EA@CIndicatorGroupDataList@@8 ; CIndicatorGroupDataList::`RTTI Base Class Array'
rdata$r	ENDS
;	COMDAT ??_R3CIndicatorGroupDataList@@8
rdata$r	SEGMENT
??_R3CIndicatorGroupDataList@@8 DD 00H			; CIndicatorGroupDataList::`RTTI Class Hierarchy Descriptor'
	DD	00H
	DD	01H
	DD	FLAT:??_R2CIndicatorGroupDataList@@8
rdata$r	ENDS
;	COMDAT ??_R0?AVCIndicatorGroupDataList@@@8
data$rs	SEGMENT
??_R0?AVCIndicatorGroupDataList@@@8 DD FLAT:??_7type_info@@6B@ ; CIndicatorGroupDataList `RTTI Type Descriptor'
	DD	00H
	DB	'.?AVCIndicatorGroupDataList@@', 00H
data$rs	ENDS
;	COMDAT ??_R4CIndicatorGroupDataList@@6B@
rdata$r	SEGMENT
??_R4CIndicatorGroupDataList@@6B@ DD 00H		; CIndicatorGroupDataList::`RTTI Complete Object Locator'
	DD	00H
	DD	00H
	DD	FLAT:??_R0?AVCIndicatorGroupDataList@@@8
	DD	FLAT:??_R3CIndicatorGroupDataList@@8
rdata$r	ENDS
;	COMDAT ??_R1A@?0A@EA@CGraphTypeAndStyleData@@8
rdata$r	SEGMENT
??_R1A@?0A@EA@CGraphTypeAndStyleData@@8 DD FLAT:??_R0?AVCGraphTypeAndStyleData@@@8 ; CGraphTypeAndStyleData::`RTTI Base Class Descriptor at (0,-1,0,64)'
	DD	00H
	DD	00H
	DD	0ffffffffH
	DD	00H
	DD	040H
	DD	FLAT:??_R3CGraphTypeAndStyleData@@8
rdata$r	ENDS
;	COMDAT ??_R2CGraphTypeAndStyleData@@8
rdata$r	SEGMENT
??_R2CGraphTypeAndStyleData@@8 DD FLAT:??_R1A@?0A@EA@CGraphTypeAndStyleData@@8 ; CGraphTypeAndStyleData::`RTTI Base Class Array'
rdata$r	ENDS
;	COMDAT ??_R3CGraphTypeAndStyleData@@8
rdata$r	SEGMENT
??_R3CGraphTypeAndStyleData@@8 DD 00H			; CGraphTypeAndStyleData::`RTTI Class Hierarchy Descriptor'
	DD	00H
	DD	01H
	DD	FLAT:??_R2CGraphTypeAndStyleData@@8
rdata$r	ENDS
;	COMDAT ??_R0?AVCGraphTypeAndStyleData@@@8
data$rs	SEGMENT
??_R0?AVCGraphTypeAndStyleData@@@8 DD FLAT:??_7type_info@@6B@ ; CGraphTypeAndStyleData `RTTI Type Descriptor'
	DD	00H
	DB	'.?AVCGraphTypeAndStyleData@@', 00H
data$rs	ENDS
;	COMDAT ??_R4CGraphTypeAndStyleData@@6B@
rdata$r	SEGMENT
??_R4CGraphTypeAndStyleData@@6B@ DD 00H			; CGraphTypeAndStyleData::`RTTI Complete Object Locator'
	DD	00H
	DD	00H
	DD	FLAT:??_R0?AVCGraphTypeAndStyleData@@@8
	DD	FLAT:??_R3CGraphTypeAndStyleData@@8
rdata$r	ENDS
;	COMDAT ??_R1A@?0A@EA@CIndicatorInfo@@8
rdata$r	SEGMENT
??_R1A@?0A@EA@CIndicatorInfo@@8 DD FLAT:??_R0?AVCIndicatorInfo@@@8 ; CIndicatorInfo::`RTTI Base Class Descriptor at (0,-1,0,64)'
	DD	00H
	DD	00H
	DD	0ffffffffH
	DD	00H
	DD	040H
	DD	FLAT:??_R3CIndicatorInfo@@8
rdata$r	ENDS
;	COMDAT ??_R2CIndicatorInfo@@8
rdata$r	SEGMENT
??_R2CIndicatorInfo@@8 DD FLAT:??_R1A@?0A@EA@CIndicatorInfo@@8 ; CIndicatorInfo::`RTTI Base Class Array'
rdata$r	ENDS
;	COMDAT ??_R3CIndicatorInfo@@8
rdata$r	SEGMENT
??_R3CIndicatorInfo@@8 DD 00H				; CIndicatorInfo::`RTTI Class Hierarchy Descriptor'
	DD	00H
	DD	01H
	DD	FLAT:??_R2CIndicatorInfo@@8
rdata$r	ENDS
;	COMDAT ??_R0?AVCIndicatorInfo@@@8
data$rs	SEGMENT
??_R0?AVCIndicatorInfo@@@8 DD FLAT:??_7type_info@@6B@	; CIndicatorInfo `RTTI Type Descriptor'
	DD	00H
	DB	'.?AVCIndicatorInfo@@', 00H
data$rs	ENDS
;	COMDAT ??_R4CIndicatorInfo@@6B@
rdata$r	SEGMENT
??_R4CIndicatorInfo@@6B@ DD 00H				; CIndicatorInfo::`RTTI Complete Object Locator'
	DD	00H
	DD	00H
	DD	FLAT:??_R0?AVCIndicatorInfo@@@8
	DD	FLAT:??_R3CIndicatorInfo@@8
rdata$r	ENDS
;	COMDAT ??_R1A@?0A@EA@bad_array_new_length@std@@8
rdata$r	SEGMENT
??_R1A@?0A@EA@bad_array_new_length@std@@8 DD FLAT:??_R0?AVbad_array_new_length@std@@@8 ; std::bad_array_new_length::`RTTI Base Class Descriptor at (0,-1,0,64)'
	DD	02H
	DD	00H
	DD	0ffffffffH
	DD	00H
	DD	040H
	DD	FLAT:??_R3bad_array_new_length@std@@8
rdata$r	ENDS
;	COMDAT ??_R2bad_array_new_length@std@@8
rdata$r	SEGMENT
??_R2bad_array_new_length@std@@8 DD FLAT:??_R1A@?0A@EA@bad_array_new_length@std@@8 ; std::bad_array_new_length::`RTTI Base Class Array'
	DD	FLAT:??_R1A@?0A@EA@bad_alloc@std@@8
	DD	FLAT:??_R1A@?0A@EA@exception@std@@8
rdata$r	ENDS
;	COMDAT ??_R3bad_array_new_length@std@@8
rdata$r	SEGMENT
??_R3bad_array_new_length@std@@8 DD 00H			; std::bad_array_new_length::`RTTI Class Hierarchy Descriptor'
	DD	00H
	DD	03H
	DD	FLAT:??_R2bad_array_new_length@std@@8
rdata$r	ENDS
;	COMDAT ??_R4bad_array_new_length@std@@6B@
rdata$r	SEGMENT
??_R4bad_array_new_length@std@@6B@ DD 00H		; std::bad_array_new_length::`RTTI Complete Object Locator'
	DD	00H
	DD	00H
	DD	FLAT:??_R0?AVbad_array_new_length@std@@@8
	DD	FLAT:??_R3bad_array_new_length@std@@8
rdata$r	ENDS
;	COMDAT ??_R1A@?0A@EA@bad_alloc@std@@8
rdata$r	SEGMENT
??_R1A@?0A@EA@bad_alloc@std@@8 DD FLAT:??_R0?AVbad_alloc@std@@@8 ; std::bad_alloc::`RTTI Base Class Descriptor at (0,-1,0,64)'
	DD	01H
	DD	00H
	DD	0ffffffffH
	DD	00H
	DD	040H
	DD	FLAT:??_R3bad_alloc@std@@8
rdata$r	ENDS
;	COMDAT ??_R2bad_alloc@std@@8
rdata$r	SEGMENT
??_R2bad_alloc@std@@8 DD FLAT:??_R1A@?0A@EA@bad_alloc@std@@8 ; std::bad_alloc::`RTTI Base Class Array'
	DD	FLAT:??_R1A@?0A@EA@exception@std@@8
rdata$r	ENDS
;	COMDAT ??_R3bad_alloc@std@@8
rdata$r	SEGMENT
??_R3bad_alloc@std@@8 DD 00H				; std::bad_alloc::`RTTI Class Hierarchy Descriptor'
	DD	00H
	DD	02H
	DD	FLAT:??_R2bad_alloc@std@@8
rdata$r	ENDS
;	COMDAT ??_R4bad_alloc@std@@6B@
rdata$r	SEGMENT
??_R4bad_alloc@std@@6B@ DD 00H				; std::bad_alloc::`RTTI Complete Object Locator'
	DD	00H
	DD	00H
	DD	FLAT:??_R0?AVbad_alloc@std@@@8
	DD	FLAT:??_R3bad_alloc@std@@8
rdata$r	ENDS
;	COMDAT ??_R1A@?0A@EA@exception@std@@8
rdata$r	SEGMENT
??_R1A@?0A@EA@exception@std@@8 DD FLAT:??_R0?AVexception@std@@@8 ; std::exception::`RTTI Base Class Descriptor at (0,-1,0,64)'
	DD	00H
	DD	00H
	DD	0ffffffffH
	DD	00H
	DD	040H
	DD	FLAT:??_R3exception@std@@8
rdata$r	ENDS
;	COMDAT ??_R2exception@std@@8
rdata$r	SEGMENT
??_R2exception@std@@8 DD FLAT:??_R1A@?0A@EA@exception@std@@8 ; std::exception::`RTTI Base Class Array'
rdata$r	ENDS
;	COMDAT ??_R3exception@std@@8
rdata$r	SEGMENT
??_R3exception@std@@8 DD 00H				; std::exception::`RTTI Class Hierarchy Descriptor'
	DD	00H
	DD	01H
	DD	FLAT:??_R2exception@std@@8
rdata$r	ENDS
;	COMDAT ??_R4exception@std@@6B@
rdata$r	SEGMENT
??_R4exception@std@@6B@ DD 00H				; std::exception::`RTTI Complete Object Locator'
	DD	00H
	DD	00H
	DD	FLAT:??_R0?AVexception@std@@@8
	DD	FLAT:??_R3exception@std@@8
rdata$r	ENDS
;	COMDAT ??_C@_0BC@KBDMBKEH@deque?$DMT?$DO?5too?5long@
CONST	SEGMENT
??_C@_0BC@KBDMBKEH@deque?$DMT?$DO?5too?5long@ DB 'deque<T> too long', 00H ; `string'
CONST	ENDS
;	COMDAT ??_C@_05GHAPOLAB@?$CD?$CF04X@
CONST	SEGMENT
??_C@_05GHAPOLAB@?$CD?$CF04X@ DB '#%04X', 00H		; `string'
CONST	ENDS
;	COMDAT ??_7CIndicatorInfo@@6B@
CONST	SEGMENT
??_7CIndicatorInfo@@6B@ DD FLAT:??_R4CIndicatorInfo@@6B@ ; CIndicatorInfo::`vftable'
	DD	FLAT:??_ECIndicatorInfo@@UAEPAXI@Z
CONST	ENDS
;	COMDAT ??_7CIndicatorListImplementation@@6B@
CONST	SEGMENT
??_7CIndicatorListImplementation@@6B@ DD FLAT:??_R4CIndicatorListImplementation@@6B@ ; CIndicatorListImplementation::`vftable'
	DD	FLAT:??_ECIndicatorListImplementation@@UAEPAXI@Z
CONST	ENDS
;	COMDAT ??_7CIndicatorGroupDataList@@6B@
CONST	SEGMENT
??_7CIndicatorGroupDataList@@6B@ DD FLAT:??_R4CIndicatorGroupDataList@@6B@ ; CIndicatorGroupDataList::`vftable'
	DD	FLAT:??_ECIndicatorGroupDataList@@UAEPAXI@Z
CONST	ENDS
;	COMDAT ??_7?$CList@PAVCIndicatorGroupData@@PAV1@@@6B@
CONST	SEGMENT
??_7?$CList@PAVCIndicatorGroupData@@PAV1@@@6B@ DD FLAT:??_R4?$CList@PAVCIndicatorGroupData@@PAV1@@@6B@ ; CList<CIndicatorGroupData *,CIndicatorGroupData *>::`vftable'
	DD	FLAT:?GetRuntimeClass@CObject@@UBEPAUCRuntimeClass@@XZ
	DD	FLAT:??_E?$CList@PAVCIndicatorGroupData@@PAV1@@@UAEPAXI@Z
	DD	FLAT:?Serialize@?$CList@PAVCIndicatorGroupData@@PAV1@@@UAEXAAVCArchive@@@Z
	DD	FLAT:?AssertValid@CObject@@UBEXXZ
	DD	FLAT:?Dump@CObject@@UBEXAAVCDumpContext@@@Z
CONST	ENDS
;	COMDAT ??_7CGraphTypeAndStyleData@@6B@
CONST	SEGMENT
??_7CGraphTypeAndStyleData@@6B@ DD FLAT:??_R4CGraphTypeAndStyleData@@6B@ ; CGraphTypeAndStyleData::`vftable'
	DD	FLAT:??_ECGraphTypeAndStyleData@@UAEPAXI@Z
CONST	ENDS
;	COMDAT ??_7CGraphTypeDataList@@6B@
CONST	SEGMENT
??_7CGraphTypeDataList@@6B@ DD FLAT:??_R4CGraphTypeDataList@@6B@ ; CGraphTypeDataList::`vftable'
	DD	FLAT:??_ECGraphTypeDataList@@UAEPAXI@Z
CONST	ENDS
;	COMDAT ??_7CGraphData@@6B@
CONST	SEGMENT
??_7CGraphData@@6B@ DD FLAT:??_R4CGraphData@@6B@	; CGraphData::`vftable'
	DD	FLAT:?SetIndicatorName@CGraphData@@MAEXABV?$CStringT@DV?$StrTraitMFC_DLL@DV?$ChTraitsCRT@D@ATL@@@@@ATL@@@Z
	DD	FLAT:?SetGraphName@CGraphData@@MAEXABV?$CStringT@DV?$StrTraitMFC_DLL@DV?$ChTraitsCRT@D@ATL@@@@@ATL@@@Z
CONST	ENDS
;	COMDAT ??_7CGraphDataBase@@6B@
CONST	SEGMENT
??_7CGraphDataBase@@6B@ DD FLAT:??_R4CGraphDataBase@@6B@ ; CGraphDataBase::`vftable'
	DD	FLAT:__purecall
	DD	FLAT:__purecall
CONST	ENDS
;	COMDAT ??_7CIndicatorList@@6B@
CONST	SEGMENT
??_7CIndicatorList@@6B@ DD FLAT:??_R4CIndicatorList@@6B@ ; CIndicatorList::`vftable'
	DD	FLAT:??_ECIndicatorList@@UAEPAXI@Z
CONST	ENDS
;	COMDAT __CT??_R0?AVexception@std@@@8??0exception@std@@QAE@ABV01@@Z12
xdata$x	SEGMENT
__CT??_R0?AVexception@std@@@8??0exception@std@@QAE@ABV01@@Z12 DD 00H
	DD	FLAT:??_R0?AVexception@std@@@8
	DD	00H
	DD	0ffffffffH
	ORG $+4
	DD	0cH
	DD	FLAT:??0exception@std@@QAE@ABV01@@Z
xdata$x	ENDS
;	COMDAT ??_R0?AVexception@std@@@8
data$r	SEGMENT
??_R0?AVexception@std@@@8 DD FLAT:??_7type_info@@6B@	; std::exception `RTTI Type Descriptor'
	DD	00H
	DB	'.?AVexception@std@@', 00H
data$r	ENDS
;	COMDAT __CT??_R0?AVbad_alloc@std@@@8??0bad_alloc@std@@QAE@ABV01@@Z12
xdata$x	SEGMENT
__CT??_R0?AVbad_alloc@std@@@8??0bad_alloc@std@@QAE@ABV01@@Z12 DD 010H
	DD	FLAT:??_R0?AVbad_alloc@std@@@8
	DD	00H
	DD	0ffffffffH
	ORG $+4
	DD	0cH
	DD	FLAT:??0bad_alloc@std@@QAE@ABV01@@Z
xdata$x	ENDS
;	COMDAT ??_R0?AVbad_alloc@std@@@8
data$r	SEGMENT
??_R0?AVbad_alloc@std@@@8 DD FLAT:??_7type_info@@6B@	; std::bad_alloc `RTTI Type Descriptor'
	DD	00H
	DB	'.?AVbad_alloc@std@@', 00H
data$r	ENDS
;	COMDAT __CT??_R0?AVbad_array_new_length@std@@@8??0bad_array_new_length@std@@QAE@ABV01@@Z12
xdata$x	SEGMENT
__CT??_R0?AVbad_array_new_length@std@@@8??0bad_array_new_length@std@@QAE@ABV01@@Z12 DD 00H
	DD	FLAT:??_R0?AVbad_array_new_length@std@@@8
	DD	00H
	DD	0ffffffffH
	ORG $+4
	DD	0cH
	DD	FLAT:??0bad_array_new_length@std@@QAE@ABV01@@Z
xdata$x	ENDS
;	COMDAT ??_R0?AVbad_array_new_length@std@@@8
data$r	SEGMENT
??_R0?AVbad_array_new_length@std@@@8 DD FLAT:??_7type_info@@6B@ ; std::bad_array_new_length `RTTI Type Descriptor'
	DD	00H
	DB	'.?AVbad_array_new_length@std@@', 00H
data$r	ENDS
;	COMDAT __CTA3?AVbad_array_new_length@std@@
xdata$x	SEGMENT
__CTA3?AVbad_array_new_length@std@@ DD 03H
	DD	FLAT:__CT??_R0?AVbad_array_new_length@std@@@8??0bad_array_new_length@std@@QAE@ABV01@@Z12
	DD	FLAT:__CT??_R0?AVbad_alloc@std@@@8??0bad_alloc@std@@QAE@ABV01@@Z12
	DD	FLAT:__CT??_R0?AVexception@std@@@8??0exception@std@@QAE@ABV01@@Z12
xdata$x	ENDS
;	COMDAT __TI3?AVbad_array_new_length@std@@
xdata$x	SEGMENT
__TI3?AVbad_array_new_length@std@@ DD 00H
	DD	FLAT:??1bad_array_new_length@std@@UAE@XZ
	DD	00H
	DD	FLAT:__CTA3?AVbad_array_new_length@std@@
xdata$x	ENDS
;	COMDAT ??_C@_0BF@KINCDENJ@bad?5array?5new?5length@
CONST	SEGMENT
??_C@_0BF@KINCDENJ@bad?5array?5new?5length@ DB 'bad array new length', 00H ; `string'
CONST	ENDS
;	COMDAT ??_7bad_array_new_length@std@@6B@
CONST	SEGMENT
??_7bad_array_new_length@std@@6B@ DD FLAT:??_R4bad_array_new_length@std@@6B@ ; std::bad_array_new_length::`vftable'
	DD	FLAT:??_Ebad_array_new_length@std@@UAEPAXI@Z
	DD	FLAT:?what@exception@std@@UBEPBDXZ
CONST	ENDS
;	COMDAT ??_7bad_alloc@std@@6B@
CONST	SEGMENT
??_7bad_alloc@std@@6B@ DD FLAT:??_R4bad_alloc@std@@6B@	; std::bad_alloc::`vftable'
	DD	FLAT:??_Ebad_alloc@std@@UAEPAXI@Z
	DD	FLAT:?what@exception@std@@UBEPBDXZ
CONST	ENDS
;	COMDAT ??_C@_0BC@EOODALEL@Unknown?5exception@
CONST	SEGMENT
??_C@_0BC@EOODALEL@Unknown?5exception@ DB 'Unknown exception', 00H ; `string'
CONST	ENDS
;	COMDAT ??_7exception@std@@6B@
CONST	SEGMENT
??_7exception@std@@6B@ DD FLAT:??_R4exception@std@@6B@	; std::exception::`vftable'
	DD	FLAT:??_Eexception@std@@UAEPAXI@Z
	DD	FLAT:?what@exception@std@@UBEPBDXZ
CONST	ENDS
;	COMDAT ??_R1A@?0A@EA@CObject@@8
rdata$r	SEGMENT
??_R1A@?0A@EA@CObject@@8 DD FLAT:??_R0?AVCObject@@@8	; CObject::`RTTI Base Class Descriptor at (0,-1,0,64)'
	DD	00H
	DD	00H
	DD	0ffffffffH
	DD	00H
	DD	040H
	DD	FLAT:??_R3CObject@@8
rdata$r	ENDS
;	COMDAT ??_R2CObject@@8
rdata$r	SEGMENT
??_R2CObject@@8 DD FLAT:??_R1A@?0A@EA@CObject@@8	; CObject::`RTTI Base Class Array'
rdata$r	ENDS
;	COMDAT ??_R3CObject@@8
rdata$r	SEGMENT
??_R3CObject@@8 DD 00H					; CObject::`RTTI Class Hierarchy Descriptor'
	DD	00H
	DD	01H
	DD	FLAT:??_R2CObject@@8
rdata$r	ENDS
;	COMDAT ??_R0?AVCObject@@@8
data$rs	SEGMENT
??_R0?AVCObject@@@8 DD FLAT:??_7type_info@@6B@		; CObject `RTTI Type Descriptor'
	DD	00H
	DB	'.?AVCObject@@', 00H
data$rs	ENDS
;	COMDAT ??_C@_00CNPNBAHC@@
CONST	SEGMENT
??_C@_00CNPNBAHC@@ DB 00H				; `string'
CONST	ENDS
;	COMDAT xdata$x
xdata$x	SEGMENT
__unwindtable$??$_Construct@V?$_Deque_unchecked_const_iterator@V?$_Deque_val@U?$_Deque_simple_types@PAVCGraphTypeData@@@std@@@std@@@std@@@?$deque@PAVCGraphTypeData@@V?$allocator@PAVCGraphTypeData@@@std@@@std@@AAEXV?$_Deque_unchecked_const_iterator@V?$_Deque_val@U?$_Deque_simple_types@PAVCGraphTypeData@@@std@@@std@@@1@0@Z DD 0ffffffffH
	DD	FLAT:__unwindfunclet$??$_Construct@V?$_Deque_unchecked_const_iterator@V?$_Deque_val@U?$_Deque_simple_types@PAVCGraphTypeData@@@std@@@std@@@std@@@?$deque@PAVCGraphTypeData@@V?$allocator@PAVCGraphTypeData@@@std@@@std@@AAEXV?$_Deque_unchecked_const_iterator@V?$_Deque_val@U?$_Deque_simple_types@PAVCGraphTypeData@@@std@@@std@@@1@0@Z$0
__ehfuncinfo$??$_Construct@V?$_Deque_unchecked_const_iterator@V?$_Deque_val@U?$_Deque_simple_types@PAVCGraphTypeData@@@std@@@std@@@std@@@?$deque@PAVCGraphTypeData@@V?$allocator@PAVCGraphTypeData@@@std@@@std@@AAEXV?$_Deque_unchecked_const_iterator@V?$_Deque_val@U?$_Deque_simple_types@PAVCGraphTypeData@@@std@@@std@@@1@0@Z DD 019930522H
	DD	01H
	DD	FLAT:__unwindtable$??$_Construct@V?$_Deque_unchecked_const_iterator@V?$_Deque_val@U?$_Deque_simple_types@PAVCGraphTypeData@@@std@@@std@@@std@@@?$deque@PAVCGraphTypeData@@V?$allocator@PAVCGraphTypeData@@@std@@@std@@AAEXV?$_Deque_unchecked_const_iterator@V?$_Deque_val@U?$_Deque_simple_types@PAVCGraphTypeData@@@std@@@std@@@1@0@Z
	DD	2 DUP(00H)
	DD	2 DUP(00H)
	DD	00H
	DD	01H
xdata$x	ENDS
;	COMDAT xdata$x
xdata$x	SEGMENT
__ehfuncinfo$??_ECIndicatorInfo@@UAEPAXI@Z DD 019930522H
	DD	00H
	DD	00H
	DD	2 DUP(00H)
	DD	2 DUP(00H)
	DD	00H
	DD	05H
xdata$x	ENDS
;	COMDAT xdata$x
xdata$x	SEGMENT
__unwindtable$?CreateGraphIndicatorInfo@CIndicatorListImplementation@@QAEPAVCIndicatorInfo@@PBD@Z DD 0ffffffffH
	DD	FLAT:__unwindfunclet$?CreateGraphIndicatorInfo@CIndicatorListImplementation@@QAEPAVCIndicatorInfo@@PBD@Z$0
__ehfuncinfo$?CreateGraphIndicatorInfo@CIndicatorListImplementation@@QAEPAVCIndicatorInfo@@PBD@Z DD 019930522H
	DD	01H
	DD	FLAT:__unwindtable$?CreateGraphIndicatorInfo@CIndicatorListImplementation@@QAEPAVCIndicatorInfo@@PBD@Z
	DD	2 DUP(00H)
	DD	2 DUP(00H)
	DD	00H
	DD	01H
xdata$x	ENDS
;	COMDAT xdata$x
xdata$x	SEGMENT
__unwindtable$?GetGraphIndicatorInfo@CIndicatorListImplementation@@QAEPAVCIndicatorInfo@@W4EIndicatorListType@@PBD1W4EIndicatorInfoGettingType@@@Z DD 0ffffffffH
	DD	FLAT:__unwindfunclet$?GetGraphIndicatorInfo@CIndicatorListImplementation@@QAEPAVCIndicatorInfo@@W4EIndicatorListType@@PBD1W4EIndicatorInfoGettingType@@@Z$0
__ehfuncinfo$?GetGraphIndicatorInfo@CIndicatorListImplementation@@QAEPAVCIndicatorInfo@@W4EIndicatorListType@@PBD1W4EIndicatorInfoGettingType@@@Z DD 019930522H
	DD	01H
	DD	FLAT:__unwindtable$?GetGraphIndicatorInfo@CIndicatorListImplementation@@QAEPAVCIndicatorInfo@@W4EIndicatorListType@@PBD1W4EIndicatorInfoGettingType@@@Z
	DD	2 DUP(00H)
	DD	2 DUP(00H)
	DD	00H
	DD	01H
xdata$x	ENDS
;	COMDAT xdata$x
xdata$x	SEGMENT
__unwindtable$?GetSaveIndicatorInfoString@CIndicatorListImplementation@@QAEHW4EIndicatorListType@@AAV?$CStringT@DV?$StrTraitMFC_DLL@DV?$ChTraitsCRT@D@ATL@@@@@ATL@@@Z DD 0ffffffffH
	DD	FLAT:__unwindfunclet$?GetSaveIndicatorInfoString@CIndicatorListImplementation@@QAEHW4EIndicatorListType@@AAV?$CStringT@DV?$StrTraitMFC_DLL@DV?$ChTraitsCRT@D@ATL@@@@@ATL@@@Z$0
__ehfuncinfo$?GetSaveIndicatorInfoString@CIndicatorListImplementation@@QAEHW4EIndicatorListType@@AAV?$CStringT@DV?$StrTraitMFC_DLL@DV?$ChTraitsCRT@D@ATL@@@@@ATL@@@Z DD 019930522H
	DD	01H
	DD	FLAT:__unwindtable$?GetSaveIndicatorInfoString@CIndicatorListImplementation@@QAEHW4EIndicatorListType@@AAV?$CStringT@DV?$StrTraitMFC_DLL@DV?$ChTraitsCRT@D@ATL@@@@@ATL@@@Z
	DD	2 DUP(00H)
	DD	2 DUP(00H)
	DD	00H
	DD	01H
xdata$x	ENDS
;	COMDAT xdata$x
xdata$x	SEGMENT
__unwindtable$?SaveIndicatorInfo@CIndicatorListImplementation@@QAEHW4EIndicatorListType@@PBD@Z DD 0ffffffffH
	DD	FLAT:__unwindfunclet$?SaveIndicatorInfo@CIndicatorListImplementation@@QAEHW4EIndicatorListType@@PBD@Z$0
	DD	0ffffffffH
	DD	FLAT:__unwindfunclet$?SaveIndicatorInfo@CIndicatorListImplementation@@QAEHW4EIndicatorListType@@PBD@Z$1
__ehfuncinfo$?SaveIndicatorInfo@CIndicatorListImplementation@@QAEHW4EIndicatorListType@@PBD@Z DD 019930522H
	DD	02H
	DD	FLAT:__unwindtable$?SaveIndicatorInfo@CIndicatorListImplementation@@QAEHW4EIndicatorListType@@PBD@Z
	DD	2 DUP(00H)
	DD	2 DUP(00H)
	DD	00H
	DD	01H
xdata$x	ENDS
;	COMDAT xdata$x
xdata$x	SEGMENT
__unwindtable$?LoadIndicatorInfoFromString@CIndicatorListImplementation@@QAEHW4EIndicatorListType@@ABV?$CStringT@DV?$StrTraitMFC_DLL@DV?$ChTraitsCRT@D@ATL@@@@@ATL@@@Z DD 0ffffffffH
	DD	FLAT:__unwindfunclet$?LoadIndicatorInfoFromString@CIndicatorListImplementation@@QAEHW4EIndicatorListType@@ABV?$CStringT@DV?$StrTraitMFC_DLL@DV?$ChTraitsCRT@D@ATL@@@@@ATL@@@Z$0
__ehfuncinfo$?LoadIndicatorInfoFromString@CIndicatorListImplementation@@QAEHW4EIndicatorListType@@ABV?$CStringT@DV?$StrTraitMFC_DLL@DV?$ChTraitsCRT@D@ATL@@@@@ATL@@@Z DD 019930522H
	DD	01H
	DD	FLAT:__unwindtable$?LoadIndicatorInfoFromString@CIndicatorListImplementation@@QAEHW4EIndicatorListType@@ABV?$CStringT@DV?$StrTraitMFC_DLL@DV?$ChTraitsCRT@D@ATL@@@@@ATL@@@Z
	DD	2 DUP(00H)
	DD	2 DUP(00H)
	DD	00H
	DD	01H
xdata$x	ENDS
;	COMDAT xdata$x
xdata$x	SEGMENT
__unwindtable$?LoadIndicatorInfo@CIndicatorListImplementation@@QAEHW4EIndicatorListType@@PBD@Z DD 0ffffffffH
	DD	FLAT:__unwindfunclet$?LoadIndicatorInfo@CIndicatorListImplementation@@QAEHW4EIndicatorListType@@PBD@Z$0
__ehfuncinfo$?LoadIndicatorInfo@CIndicatorListImplementation@@QAEHW4EIndicatorListType@@PBD@Z DD 019930522H
	DD	01H
	DD	FLAT:__unwindtable$?LoadIndicatorInfo@CIndicatorListImplementation@@QAEHW4EIndicatorListType@@PBD@Z
	DD	2 DUP(00H)
	DD	2 DUP(00H)
	DD	00H
	DD	01H
xdata$x	ENDS
;	COMDAT xdata$x
xdata$x	SEGMENT
__unwindtable$??0CIndicatorListImplementation@@QAE@PAUHWND__@@PAVCIndicatorList@@ABV?$CStringT@DV?$StrTraitMFC_DLL@DV?$ChTraitsCRT@D@ATL@@@@@ATL@@22W4CHART_MODE@CChartInfo@@@Z DD 0ffffffffH
	DD	FLAT:__unwindfunclet$??0CIndicatorListImplementation@@QAE@PAUHWND__@@PAVCIndicatorList@@ABV?$CStringT@DV?$StrTraitMFC_DLL@DV?$ChTraitsCRT@D@ATL@@@@@ATL@@22W4CHART_MODE@CChartInfo@@@Z$0
	DD	00H
	DD	FLAT:__unwindfunclet$??0CIndicatorListImplementation@@QAE@PAUHWND__@@PAVCIndicatorList@@ABV?$CStringT@DV?$StrTraitMFC_DLL@DV?$ChTraitsCRT@D@ATL@@@@@ATL@@22W4CHART_MODE@CChartInfo@@@Z$1
	DD	01H
	DD	FLAT:__unwindfunclet$??0CIndicatorListImplementation@@QAE@PAUHWND__@@PAVCIndicatorList@@ABV?$CStringT@DV?$StrTraitMFC_DLL@DV?$ChTraitsCRT@D@ATL@@@@@ATL@@22W4CHART_MODE@CChartInfo@@@Z$2
	DD	02H
	DD	FLAT:__unwindfunclet$??0CIndicatorListImplementation@@QAE@PAUHWND__@@PAVCIndicatorList@@ABV?$CStringT@DV?$StrTraitMFC_DLL@DV?$ChTraitsCRT@D@ATL@@@@@ATL@@22W4CHART_MODE@CChartInfo@@@Z$3
__ehfuncinfo$??0CIndicatorListImplementation@@QAE@PAUHWND__@@PAVCIndicatorList@@ABV?$CStringT@DV?$StrTraitMFC_DLL@DV?$ChTraitsCRT@D@ATL@@@@@ATL@@22W4CHART_MODE@CChartInfo@@@Z DD 019930522H
	DD	04H
	DD	FLAT:__unwindtable$??0CIndicatorListImplementation@@QAE@PAUHWND__@@PAVCIndicatorList@@ABV?$CStringT@DV?$StrTraitMFC_DLL@DV?$ChTraitsCRT@D@ATL@@@@@ATL@@22W4CHART_MODE@CChartInfo@@@Z
	DD	2 DUP(00H)
	DD	2 DUP(00H)
	DD	00H
	DD	01H
xdata$x	ENDS
;	COMDAT xdata$x
xdata$x	SEGMENT
__ehfuncinfo$??_ECIndicatorGroupDataList@@UAEPAXI@Z DD 019930522H
	DD	00H
	DD	00H
	DD	2 DUP(00H)
	DD	2 DUP(00H)
	DD	00H
	DD	05H
xdata$x	ENDS
;	COMDAT xdata$x
xdata$x	SEGMENT
__unwindtable$??_G?$CList@PAVCIndicatorGroupData@@PAV1@@@UAEPAXI@Z DD 0ffffffffH
	DD	FLAT:___std_terminate
__ehfuncinfo$??_G?$CList@PAVCIndicatorGroupData@@PAV1@@@UAEPAXI@Z DD 019930522H
	DD	01H
	DD	FLAT:__unwindtable$??_G?$CList@PAVCIndicatorGroupData@@PAV1@@@UAEPAXI@Z
	DD	2 DUP(00H)
	DD	2 DUP(00H)
	DD	00H
	DD	05H
xdata$x	ENDS
;	COMDAT xdata$x
xdata$x	SEGMENT
__ehfuncinfo$??1?$CList@PAVCIndicatorGroupData@@PAV1@@@UAE@XZ DD 019930522H
	DD	00H
	DD	00H
	DD	2 DUP(00H)
	DD	2 DUP(00H)
	DD	00H
	DD	05H
xdata$x	ENDS
;	COMDAT xdata$x
xdata$x	SEGMENT
__unwindtable$??_FCIndicatorGroupData@@QAEXXZ DD 0ffffffffH
	DD	FLAT:__unwindfunclet$??_FCIndicatorGroupData@@QAEXXZ$0
__ehfuncinfo$??_FCIndicatorGroupData@@QAEXXZ DD 019930522H
	DD	01H
	DD	FLAT:__unwindtable$??_FCIndicatorGroupData@@QAEXXZ
	DD	2 DUP(00H)
	DD	2 DUP(00H)
	DD	00H
	DD	01H
xdata$x	ENDS
;	COMDAT xdata$x
xdata$x	SEGMENT
__ehfuncinfo$??_ECGraphTypeAndStyleData@@UAEPAXI@Z DD 019930522H
	DD	00H
	DD	00H
	DD	2 DUP(00H)
	DD	2 DUP(00H)
	DD	00H
	DD	05H
xdata$x	ENDS
;	COMDAT xdata$x
xdata$x	SEGMENT
__unwindtable$??0CGraphTypeAndStyleData@@QAE@ABV0@@Z DD 0ffffffffH
	DD	FLAT:__unwindfunclet$??0CGraphTypeAndStyleData@@QAE@ABV0@@Z$0
__ehfuncinfo$??0CGraphTypeAndStyleData@@QAE@ABV0@@Z DD 019930522H
	DD	01H
	DD	FLAT:__unwindtable$??0CGraphTypeAndStyleData@@QAE@ABV0@@Z
	DD	2 DUP(00H)
	DD	2 DUP(00H)
	DD	00H
	DD	01H
xdata$x	ENDS
;	COMDAT xdata$x
xdata$x	SEGMENT
__unwindtable$??0CGraphTypeAndStyleData@@QAE@XZ DD 0ffffffffH
	DD	FLAT:__unwindfunclet$??0CGraphTypeAndStyleData@@QAE@XZ$0
__ehfuncinfo$??0CGraphTypeAndStyleData@@QAE@XZ DD 019930522H
	DD	01H
	DD	FLAT:__unwindtable$??0CGraphTypeAndStyleData@@QAE@XZ
	DD	2 DUP(00H)
	DD	2 DUP(00H)
	DD	00H
	DD	01H
xdata$x	ENDS
;	COMDAT xdata$x
xdata$x	SEGMENT
__unwindtable$??0CGraphTypeDataList@@QAE@ABV0@@Z DD 0ffffffffH
	DD	FLAT:__unwindfunclet$??0CGraphTypeDataList@@QAE@ABV0@@Z$1
	DD	00H
	DD	FLAT:__unwindfunclet$??0CGraphTypeDataList@@QAE@ABV0@@Z$2
__ehfuncinfo$??0CGraphTypeDataList@@QAE@ABV0@@Z DD 019930522H
	DD	02H
	DD	FLAT:__unwindtable$??0CGraphTypeDataList@@QAE@ABV0@@Z
	DD	2 DUP(00H)
	DD	2 DUP(00H)
	DD	00H
	DD	01H
xdata$x	ENDS
;	COMDAT xdata$x
xdata$x	SEGMENT
__unwindtable$??0?$deque@PAVCGraphTypeData@@V?$allocator@PAVCGraphTypeData@@@std@@@std@@QAE@ABV01@@Z DD 0ffffffffH
	DD	FLAT:__unwindfunclet$??0?$deque@PAVCGraphTypeData@@V?$allocator@PAVCGraphTypeData@@@std@@@std@@QAE@ABV01@@Z$0
	DD	00H
	DD	FLAT:__unwindfunclet$??0?$deque@PAVCGraphTypeData@@V?$allocator@PAVCGraphTypeData@@@std@@@std@@QAE@ABV01@@Z$1
__ehfuncinfo$??0?$deque@PAVCGraphTypeData@@V?$allocator@PAVCGraphTypeData@@@std@@@std@@QAE@ABV01@@Z DD 019930522H
	DD	02H
	DD	FLAT:__unwindtable$??0?$deque@PAVCGraphTypeData@@V?$allocator@PAVCGraphTypeData@@@std@@@std@@QAE@ABV01@@Z
	DD	2 DUP(00H)
	DD	2 DUP(00H)
	DD	00H
	DD	01H
xdata$x	ENDS
;	COMDAT xdata$x
xdata$x	SEGMENT
__unwindtable$??0CGraphData@@QAE@ABV0@@Z DD 0ffffffffH
	DD	FLAT:__unwindfunclet$??0CGraphData@@QAE@ABV0@@Z$0
	DD	00H
	DD	FLAT:__unwindfunclet$??0CGraphData@@QAE@ABV0@@Z$1
	DD	01H
	DD	FLAT:__unwindfunclet$??0CGraphData@@QAE@ABV0@@Z$2
__ehfuncinfo$??0CGraphData@@QAE@ABV0@@Z DD 019930522H
	DD	03H
	DD	FLAT:__unwindtable$??0CGraphData@@QAE@ABV0@@Z
	DD	2 DUP(00H)
	DD	2 DUP(00H)
	DD	00H
	DD	01H
xdata$x	ENDS
;	COMDAT xdata$x
xdata$x	SEGMENT
__unwindtable$??0CGraphData@@QAE@XZ DD 0ffffffffH
	DD	FLAT:__unwindfunclet$??0CGraphData@@QAE@XZ$0
	DD	00H
	DD	FLAT:__unwindfunclet$??0CGraphData@@QAE@XZ$1
__ehfuncinfo$??0CGraphData@@QAE@XZ DD 019930522H
	DD	02H
	DD	FLAT:__unwindtable$??0CGraphData@@QAE@XZ
	DD	2 DUP(00H)
	DD	2 DUP(00H)
	DD	00H
	DD	01H
xdata$x	ENDS
;	COMDAT xdata$x
xdata$x	SEGMENT
__ehfuncinfo$??_ECIndicatorList@@UAEPAXI@Z DD 019930522H
	DD	00H
	DD	00H
	DD	2 DUP(00H)
	DD	2 DUP(00H)
	DD	00H
	DD	05H
xdata$x	ENDS
; Function compile flags: /Ogtp
; File C:\Program Files (x86)\Microsoft Visual Studio\2019\Community\VC\Tools\MSVC\14.29.30133\include\xutility
;	COMDAT ??$_Copy_memmove@PAPAPAVCGraphTypeData@@PAPAPAV1@@std@@YAPAPAPAVCGraphTypeData@@PAPAPAV1@00@Z
_TEXT	SEGMENT
__First$ = 8						; size = 4
__Last$ = 12						; size = 4
__Dest$ = 16						; size = 4
??$_Copy_memmove@PAPAPAVCGraphTypeData@@PAPAPAV1@@std@@YAPAPAPAVCGraphTypeData@@PAPAPAV1@00@Z PROC ; std::_Copy_memmove<CGraphTypeData * * *,CGraphTypeData * * *>, COMDAT

; 4058 : _OutCtgIt _Copy_memmove(_CtgIt _First, _CtgIt _Last, _OutCtgIt _Dest) {

  00000	55		 push	 ebp
  00001	8b ec		 mov	 ebp, esp

; 4059 :     auto _FirstPtr              = _To_address(_First);
; 4060 :     auto _LastPtr               = _To_address(_Last);
; 4061 :     auto _DestPtr               = _To_address(_Dest);
; 4062 :     const char* const _First_ch = const_cast<const char*>(reinterpret_cast<const volatile char*>(_FirstPtr));
; 4063 :     const char* const _Last_ch  = const_cast<const char*>(reinterpret_cast<const volatile char*>(_LastPtr));
; 4064 :     char* const _Dest_ch        = const_cast<char*>(reinterpret_cast<const volatile char*>(_DestPtr));
; 4065 :     const auto _Count           = static_cast<size_t>(_Last_ch - _First_ch);

  00003	8b 45 08	 mov	 eax, DWORD PTR __First$[ebp]
  00006	56		 push	 esi

; 4066 :     _CSTD memmove(_Dest_ch, _First_ch, _Count);

  00007	8b 75 10	 mov	 esi, DWORD PTR __Dest$[ebp]
  0000a	57		 push	 edi
  0000b	8b 7d 0c	 mov	 edi, DWORD PTR __Last$[ebp]
  0000e	2b f8		 sub	 edi, eax
  00010	57		 push	 edi
  00011	50		 push	 eax
  00012	56		 push	 esi
  00013	e8 00 00 00 00	 call	 _memmove
  00018	83 c4 0c	 add	 esp, 12			; 0000000cH

; 4067 :     if constexpr (is_pointer_v<_OutCtgIt>) {
; 4068 :         return reinterpret_cast<_OutCtgIt>(_Dest_ch + _Count);

  0001b	8d 04 37	 lea	 eax, DWORD PTR [edi+esi]
  0001e	5f		 pop	 edi
  0001f	5e		 pop	 esi

; 4069 :     } else {
; 4070 :         return _Dest + (_LastPtr - _FirstPtr);
; 4071 :     }
; 4072 : }

  00020	5d		 pop	 ebp
  00021	c3		 ret	 0
??$_Copy_memmove@PAPAPAVCGraphTypeData@@PAPAPAV1@@std@@YAPAPAPAVCGraphTypeData@@PAPAPAV1@00@Z ENDP ; std::_Copy_memmove<CGraphTypeData * * *,CGraphTypeData * * *>
_TEXT	ENDS
; Function compile flags: /Ogtp
; File C:\Program Files (x86)\Microsoft Visual Studio\2019\Community\VC\Tools\MSVC\14.29.30133\include\xmemory
;	COMDAT ??$_Zero_range@PAPAPAVCGraphTypeData@@@std@@YAPAPAPAVCGraphTypeData@@QAPAPAV1@0@Z
_TEXT	SEGMENT
__First$ = 8						; size = 4
__Last$ = 12						; size = 4
??$_Zero_range@PAPAPAVCGraphTypeData@@@std@@YAPAPAPAVCGraphTypeData@@QAPAPAV1@0@Z PROC ; std::_Zero_range<CGraphTypeData * * *>, COMDAT

; 1789 : _Ptr _Zero_range(const _Ptr _First, const _Ptr _Last) { // fill [_First, _Last) with zeroes

  00000	55		 push	 ebp
  00001	8b ec		 mov	 ebp, esp

; 1790 :     char* const _First_ch = reinterpret_cast<char*>(_To_address(_First));
; 1791 :     char* const _Last_ch  = reinterpret_cast<char*>(_To_address(_Last));
; 1792 :     _CSTD memset(_First_ch, 0, static_cast<size_t>(_Last_ch - _First_ch));

  00003	8b 55 08	 mov	 edx, DWORD PTR __First$[ebp]
  00006	8b 4d 0c	 mov	 ecx, DWORD PTR __Last$[ebp]
  00009	2b ca		 sub	 ecx, edx
  0000b	51		 push	 ecx
  0000c	6a 00		 push	 0
  0000e	52		 push	 edx
  0000f	e8 00 00 00 00	 call	 _memset

; 1793 :     return _Last;

  00014	8b 45 0c	 mov	 eax, DWORD PTR __Last$[ebp]
  00017	83 c4 0c	 add	 esp, 12			; 0000000cH

; 1794 : }

  0001a	5d		 pop	 ebp
  0001b	c3		 ret	 0
??$_Zero_range@PAPAPAVCGraphTypeData@@@std@@YAPAPAPAVCGraphTypeData@@QAPAPAV1@0@Z ENDP ; std::_Zero_range<CGraphTypeData * * *>
_TEXT	ENDS
; Function compile flags: /Ogtp
; File C:\Program Files (x86)\Microsoft Visual Studio\2019\Community\VC\Tools\MSVC\14.29.30133\include\xmemory
;	COMDAT ??$_Uninitialized_value_construct_n_unchecked1@PAPAPAVCGraphTypeData@@I@std@@YAPAPAPAVCGraphTypeData@@PAPAPAV1@I@Z
_TEXT	SEGMENT
__UFirst$ = 8						; size = 4
__Count$ = 12						; size = 4
??$_Uninitialized_value_construct_n_unchecked1@PAPAPAVCGraphTypeData@@I@std@@YAPAPAPAVCGraphTypeData@@PAPAPAV1@I@Z PROC ; std::_Uninitialized_value_construct_n_unchecked1<CGraphTypeData * * *,unsigned int>, COMDAT

; 1821 : _NoThrowFwdIt _Uninitialized_value_construct_n_unchecked1(_NoThrowFwdIt _UFirst, _Diff _Count) {

  00000	55		 push	 ebp
  00001	8b ec		 mov	 ebp, esp

; 1822 :     // value-initialize all elements in [_UFirst, _UFirst + _Count_raw)
; 1823 :     _STL_INTERNAL_CHECK(_Count >= 0);
; 1824 :     if constexpr (_Use_memset_value_construct_v<_NoThrowFwdIt>) {
; 1825 :         return _Zero_range(_UFirst, _UFirst + _Count);

  00003	8b 45 0c	 mov	 eax, DWORD PTR __Count$[ebp]
  00006	56		 push	 esi

; 1792 :     _CSTD memset(_First_ch, 0, static_cast<size_t>(_Last_ch - _First_ch));

  00007	8b 75 08	 mov	 esi, DWORD PTR __UFirst$[ebp]

; 1821 : _NoThrowFwdIt _Uninitialized_value_construct_n_unchecked1(_NoThrowFwdIt _UFirst, _Diff _Count) {

  0000a	57		 push	 edi

; 1822 :     // value-initialize all elements in [_UFirst, _UFirst + _Count_raw)
; 1823 :     _STL_INTERNAL_CHECK(_Count >= 0);
; 1824 :     if constexpr (_Use_memset_value_construct_v<_NoThrowFwdIt>) {
; 1825 :         return _Zero_range(_UFirst, _UFirst + _Count);

  0000b	8d 3c 85 00 00
	00 00		 lea	 edi, DWORD PTR [eax*4]

; 1792 :     _CSTD memset(_First_ch, 0, static_cast<size_t>(_Last_ch - _First_ch));

  00012	57		 push	 edi
  00013	6a 00		 push	 0
  00015	56		 push	 esi
  00016	e8 00 00 00 00	 call	 _memset
  0001b	83 c4 0c	 add	 esp, 12			; 0000000cH

; 1822 :     // value-initialize all elements in [_UFirst, _UFirst + _Count_raw)
; 1823 :     _STL_INTERNAL_CHECK(_Count >= 0);
; 1824 :     if constexpr (_Use_memset_value_construct_v<_NoThrowFwdIt>) {
; 1825 :         return _Zero_range(_UFirst, _UFirst + _Count);

  0001e	8d 04 37	 lea	 eax, DWORD PTR [edi+esi]
  00021	5f		 pop	 edi
  00022	5e		 pop	 esi

; 1826 :     } else {
; 1827 :         _Uninitialized_backout<_NoThrowFwdIt> _Backout{_UFirst};
; 1828 :         for (; 0 < _Count; --_Count) {
; 1829 :             _Backout._Emplace_back();
; 1830 :         }
; 1831 : 
; 1832 :         return _Backout._Release();
; 1833 :     }
; 1834 : }

  00023	5d		 pop	 ebp
  00024	c3		 ret	 0
??$_Uninitialized_value_construct_n_unchecked1@PAPAPAVCGraphTypeData@@I@std@@YAPAPAPAVCGraphTypeData@@PAPAPAV1@I@Z ENDP ; std::_Uninitialized_value_construct_n_unchecked1<CGraphTypeData * * *,unsigned int>
_TEXT	ENDS
; Function compile flags: /Ogtp
; File C:\Program Files (x86)\Microsoft Visual Studio\2019\Community\VC\Tools\MSVC\14.29.30133\include\xmemory
; File C:\Program Files (x86)\Microsoft Visual Studio\2019\Community\VC\Tools\MSVC\14.29.30133\include\xutility
; File C:\Program Files (x86)\Microsoft Visual Studio\2019\Community\VC\Tools\MSVC\14.29.30133\include\xmemory
; File C:\Program Files (x86)\Microsoft Visual Studio\2019\Community\VC\Tools\MSVC\14.29.30133\include\xutility
; File C:\Program Files (x86)\Microsoft Visual Studio\2019\Community\VC\Tools\MSVC\14.29.30133\include\xmemory
; File C:\Program Files (x86)\Microsoft Visual Studio\2019\Community\VC\Tools\MSVC\14.29.30133\include\xutility
; File C:\Program Files (x86)\Microsoft Visual Studio\2019\Community\VC\Tools\MSVC\14.29.30133\include\xmemory
;	COMDAT ??$uninitialized_copy@PAPAPAVCGraphTypeData@@PAPAPAV1@@std@@YAPAPAPAVCGraphTypeData@@QAPAPAV1@0PAPAPAV1@@Z
_TEXT	SEGMENT
__First$ = 8						; size = 4
__Last$ = 12						; size = 4
__Dest$ = 16						; size = 4
??$uninitialized_copy@PAPAPAVCGraphTypeData@@PAPAPAV1@@std@@YAPAPAPAVCGraphTypeData@@QAPAPAV1@0PAPAPAV1@@Z PROC ; std::uninitialized_copy<CGraphTypeData * * *,CGraphTypeData * * *>, COMDAT

; 1687 : _NoThrowFwdIt uninitialized_copy(const _InIt _First, const _InIt _Last, _NoThrowFwdIt _Dest) {

  00000	55		 push	 ebp
  00001	8b ec		 mov	 ebp, esp
; File C:\Program Files (x86)\Microsoft Visual Studio\2019\Community\VC\Tools\MSVC\14.29.30133\include\xutility

; 4065 :     const auto _Count           = static_cast<size_t>(_Last_ch - _First_ch);

  00003	8b 45 08	 mov	 eax, DWORD PTR __First$[ebp]
; File C:\Program Files (x86)\Microsoft Visual Studio\2019\Community\VC\Tools\MSVC\14.29.30133\include\xmemory

; 1687 : _NoThrowFwdIt uninitialized_copy(const _InIt _First, const _InIt _Last, _NoThrowFwdIt _Dest) {

  00006	56		 push	 esi
; File C:\Program Files (x86)\Microsoft Visual Studio\2019\Community\VC\Tools\MSVC\14.29.30133\include\xutility

; 4066 :     _CSTD memmove(_Dest_ch, _First_ch, _Count);

  00007	8b 75 10	 mov	 esi, DWORD PTR __Dest$[ebp]
; File C:\Program Files (x86)\Microsoft Visual Studio\2019\Community\VC\Tools\MSVC\14.29.30133\include\xmemory

; 1687 : _NoThrowFwdIt uninitialized_copy(const _InIt _First, const _InIt _Last, _NoThrowFwdIt _Dest) {

  0000a	57		 push	 edi
; File C:\Program Files (x86)\Microsoft Visual Studio\2019\Community\VC\Tools\MSVC\14.29.30133\include\xutility

; 4065 :     const auto _Count           = static_cast<size_t>(_Last_ch - _First_ch);

  0000b	8b 7d 0c	 mov	 edi, DWORD PTR __Last$[ebp]
  0000e	2b f8		 sub	 edi, eax

; 4066 :     _CSTD memmove(_Dest_ch, _First_ch, _Count);

  00010	57		 push	 edi
  00011	50		 push	 eax
  00012	56		 push	 esi
  00013	e8 00 00 00 00	 call	 _memmove
  00018	83 c4 0c	 add	 esp, 12			; 0000000cH

; 4067 :     if constexpr (is_pointer_v<_OutCtgIt>) {
; 4068 :         return reinterpret_cast<_OutCtgIt>(_Dest_ch + _Count);

  0001b	8d 04 37	 lea	 eax, DWORD PTR [edi+esi]
; File C:\Program Files (x86)\Microsoft Visual Studio\2019\Community\VC\Tools\MSVC\14.29.30133\include\xmemory

; 1694 :     return _Dest;

  0001e	5f		 pop	 edi
  0001f	5e		 pop	 esi

; 1695 : }

  00020	5d		 pop	 ebp
  00021	c3		 ret	 0
??$uninitialized_copy@PAPAPAVCGraphTypeData@@PAPAPAV1@@std@@YAPAPAPAVCGraphTypeData@@QAPAPAV1@0PAPAPAV1@@Z ENDP ; std::uninitialized_copy<CGraphTypeData * * *,CGraphTypeData * * *>
_TEXT	ENDS
; Function compile flags: /Ogtp
; File C:\Program Files (x86)\Microsoft Visual Studio\2019\Community\VC\Tools\MSVC\14.29.30133\include\xmemory
;	COMDAT ??$_Allocate_manually_vector_aligned@U_Default_allocate_traits@std@@@std@@YAPAXI@Z
_TEXT	SEGMENT
__Bytes$ = 8						; size = 4
??$_Allocate_manually_vector_aligned@U_Default_allocate_traits@std@@@std@@YAPAXI@Z PROC ; std::_Allocate_manually_vector_aligned<std::_Default_allocate_traits>, COMDAT

; 127  : __declspec(allocator) void* _Allocate_manually_vector_aligned(const size_t _Bytes) {

  00000	55		 push	 ebp
  00001	8b ec		 mov	 ebp, esp

; 128  :     // allocate _Bytes manually aligned to at least _Big_allocation_alignment
; 129  :     const size_t _Block_size = _Non_user_size + _Bytes;

  00003	8b 45 08	 mov	 eax, DWORD PTR __Bytes$[ebp]
  00006	8d 48 23	 lea	 ecx, DWORD PTR [eax+35]

; 130  :     if (_Block_size <= _Bytes) {

  00009	3b c8		 cmp	 ecx, eax
  0000b	0f 86 00 00 00
	00		 jbe	 ?_Throw_bad_array_new_length@std@@YAXXZ ; std::_Throw_bad_array_new_length

; 79   :         return ::operator new(_Bytes);

  00011	51		 push	 ecx
  00012	e8 00 00 00 00	 call	 ??2@YAPAXI@Z		; operator new

; 131  :         _Throw_bad_array_new_length(); // add overflow
; 132  :     }
; 133  : 
; 134  :     const uintptr_t _Ptr_container = reinterpret_cast<uintptr_t>(_Traits::_Allocate(_Block_size));

  00017	8b c8		 mov	 ecx, eax

; 79   :         return ::operator new(_Bytes);

  00019	83 c4 04	 add	 esp, 4

; 135  :     _STL_VERIFY(_Ptr_container != 0, "invalid argument"); // validate even in release since we're doing p[-1]

  0001c	85 c9		 test	 ecx, ecx
  0001e	74 0b		 je	 SHORT $LN7@Allocate_m

; 136  :     void* const _Ptr = reinterpret_cast<void*>((_Ptr_container + _Non_user_size) & ~(_Big_allocation_alignment - 1));

  00020	8d 41 23	 lea	 eax, DWORD PTR [ecx+35]
  00023	83 e0 e0	 and	 eax, -32		; ffffffe0H

; 137  :     static_cast<uintptr_t*>(_Ptr)[-1] = _Ptr_container;

  00026	89 48 fc	 mov	 DWORD PTR [eax-4], ecx

; 138  : 
; 139  : #ifdef _DEBUG
; 140  :     static_cast<uintptr_t*>(_Ptr)[-2] = _Big_allocation_sentinel;
; 141  : #endif // _DEBUG
; 142  :     return _Ptr;
; 143  : }

  00029	5d		 pop	 ebp
  0002a	c3		 ret	 0
$LN7@Allocate_m:

; 135  :     _STL_VERIFY(_Ptr_container != 0, "invalid argument"); // validate even in release since we're doing p[-1]

  0002b	ff 25 00 00 00
	00		 jmp	 DWORD PTR __imp___invalid_parameter_noinfo_noreturn
??$_Allocate_manually_vector_aligned@U_Default_allocate_traits@std@@@std@@YAPAXI@Z ENDP ; std::_Allocate_manually_vector_aligned<std::_Default_allocate_traits>
_TEXT	ENDS
; Function compile flags: /Ogtp
; File C:\Program Files (x86)\Microsoft Visual Studio\2019\Community\VC\Tools\MSVC\14.29.30133\include\xmemory
;	COMDAT ??1?$_Tidy_guard@V?$deque@PAVCGraphTypeData@@V?$allocator@PAVCGraphTypeData@@@std@@@std@@@std@@QAE@XZ
_TEXT	SEGMENT
??1?$_Tidy_guard@V?$deque@PAVCGraphTypeData@@V?$allocator@PAVCGraphTypeData@@@std@@@std@@@std@@QAE@XZ PROC ; std::_Tidy_guard<std::deque<CGraphTypeData *,std::allocator<CGraphTypeData *> > >::~_Tidy_guard<std::deque<CGraphTypeData *,std::allocator<CGraphTypeData *> > >, COMDAT
; _this$ = ecx

; 34   :         if (_Target) {

  00000	8b 09		 mov	 ecx, DWORD PTR [ecx]
  00002	85 c9		 test	 ecx, ecx
  00004	0f 85 00 00 00
	00		 jne	 ?_Tidy@?$deque@PAVCGraphTypeData@@V?$allocator@PAVCGraphTypeData@@@std@@@std@@AAEXXZ ; std::deque<CGraphTypeData *,std::allocator<CGraphTypeData *> >::_Tidy

; 35   :             _Target->_Tidy();
; 36   :         }
; 37   :     }

  0000a	c3		 ret	 0
??1?$_Tidy_guard@V?$deque@PAVCGraphTypeData@@V?$allocator@PAVCGraphTypeData@@@std@@@std@@@std@@QAE@XZ ENDP ; std::_Tidy_guard<std::deque<CGraphTypeData *,std::allocator<CGraphTypeData *> > >::~_Tidy_guard<std::deque<CGraphTypeData *,std::allocator<CGraphTypeData *> > >
_TEXT	ENDS
; Function compile flags: /Ogtp
; File C:\Program Files (x86)\Microsoft Visual Studio\2019\Community\VC\Tools\MSVC\14.29.30133\atlmfc\include\afxtempl.h
; File C:\Program Files (x86)\Microsoft Visual Studio\2019\Community\VC\Tools\MSVC\14.29.30133\atlmfc\include\afx.inl
; File C:\Program Files (x86)\Microsoft Visual Studio\2019\Community\VC\Tools\MSVC\14.29.30133\atlmfc\include\afxtempl.h
; File C:\Program Files (x86)\Microsoft Visual Studio\2019\Community\VC\Tools\MSVC\14.29.30133\atlmfc\include\afx.inl
; File C:\Program Files (x86)\Microsoft Visual Studio\2019\Community\VC\Tools\MSVC\14.29.30133\atlmfc\include\afxtempl.h
; File C:\Program Files (x86)\Microsoft Visual Studio\2019\Community\VC\Tools\MSVC\14.29.30133\atlmfc\include\afx.inl
; File C:\Program Files (x86)\Microsoft Visual Studio\2019\Community\VC\Tools\MSVC\14.29.30133\atlmfc\include\afxtempl.h
;	COMDAT ??$SerializeElements@PAVCIndicatorGroupData@@@@YGXAAVCArchive@@PAPAVCIndicatorGroupData@@H@Z
_TEXT	SEGMENT
_ar$ = 8						; size = 4
_pElements$ = 12					; size = 4
_nCount$ = 16						; size = 4
??$SerializeElements@PAVCIndicatorGroupData@@@@YGXAAVCArchive@@PAPAVCIndicatorGroupData@@H@Z PROC ; SerializeElements<CIndicatorGroupData *>, COMDAT

; 67   : {

  00000	55		 push	 ebp
  00001	8b ec		 mov	 ebp, esp

; 68   : 	ENSURE(nCount == 0 || pElements != NULL);

  00003	8b 4d 0c	 mov	 ecx, DWORD PTR _pElements$[ebp]
  00006	53		 push	 ebx
  00007	56		 push	 esi
  00008	8b 75 10	 mov	 esi, DWORD PTR _nCount$[ebp]
  0000b	57		 push	 edi
  0000c	85 f6		 test	 esi, esi
  0000e	74 08		 je	 SHORT $LN2@SerializeE
  00010	85 c9		 test	 ecx, ecx
  00012	0f 84 89 00 00
	00		 je	 $LN34@SerializeE
$LN2@SerializeE:
; File C:\Program Files (x86)\Microsoft Visual Studio\2019\Community\VC\Tools\MSVC\14.29.30133\atlmfc\include\afx.inl

; 212  : 	{ return (m_nMode & CArchive::load) == 0; }

  00018	8b 55 08	 mov	 edx, DWORD PTR _ar$[ebp]
  0001b	8b 42 18	 mov	 eax, DWORD PTR [edx+24]
  0001e	f7 d0		 not	 eax
  00020	a8 01		 test	 al, 1
; File C:\Program Files (x86)\Microsoft Visual Studio\2019\Community\VC\Tools\MSVC\14.29.30133\atlmfc\include\afxtempl.h

; 73   : 	if (ar.IsStoring())

  00022	74 3c		 je	 SHORT $LN10@SerializeE

; 74   : 	{
; 75   : 		TYPE* pData;
; 76   : 		UINT_PTR nElementsLeft;
; 77   : 
; 78   : 		nElementsLeft = nCount;
; 79   : 		pData = pElements;
; 80   : 		while( nElementsLeft > 0 )

  00024	85 f6		 test	 esi, esi
  00026	74 31		 je	 SHORT $LN8@SerializeE
  00028	0f 1f 84 00 00
	00 00 00	 npad	 8
$LL5@SerializeE:

; 81   : 		{
; 82   : 			UINT nElementsToWrite;
; 83   : 
; 84   : 			nElementsToWrite = UINT(__min(nElementsLeft, INT_MAX/sizeof(TYPE)));

  00030	bb ff ff ff 1f	 mov	 ebx, 536870911		; 1fffffffH
  00035	3b f3		 cmp	 esi, ebx
  00037	0f 42 de	 cmovb	 ebx, esi

; 85   : 			ar.Write(pData, nElementsToWrite*sizeof(TYPE));

  0003a	8d 3c 9d 00 00
	00 00		 lea	 edi, DWORD PTR [ebx*4]
  00041	57		 push	 edi
  00042	51		 push	 ecx
  00043	8b ca		 mov	 ecx, edx
  00045	e8 00 00 00 00	 call	 ?Write@CArchive@@QAEXPBXI@Z ; CArchive::Write

; 86   : 			nElementsLeft -= nElementsToWrite;
; 87   : 			pData += nElementsToWrite;

  0004a	8b 4d 0c	 mov	 ecx, DWORD PTR _pElements$[ebp]
  0004d	8b 55 08	 mov	 edx, DWORD PTR _ar$[ebp]
  00050	03 cf		 add	 ecx, edi
  00052	89 4d 0c	 mov	 DWORD PTR _pElements$[ebp], ecx
  00055	2b f3		 sub	 esi, ebx
  00057	75 d7		 jne	 SHORT $LL5@SerializeE
$LN8@SerializeE:
  00059	5f		 pop	 edi

; 105  : 		}
; 106  : 	}
; 107  : }

  0005a	5e		 pop	 esi
  0005b	5b		 pop	 ebx
  0005c	5d		 pop	 ebp
  0005d	c2 0c 00	 ret	 12			; 0000000cH
$LN10@SerializeE:

; 97   : 		while( nElementsLeft > 0 )

  00060	85 f6		 test	 esi, esi
  00062	74 f5		 je	 SHORT $LN8@SerializeE
$LL7@SerializeE:

; 98   : 		{
; 99   : 			UINT nElementsToRead;
; 100  : 
; 101  : 			nElementsToRead = UINT(__min(nElementsLeft, INT_MAX/sizeof(TYPE)));

  00064	bf ff ff ff 1f	 mov	 edi, 536870911		; 1fffffffH
  00069	3b f7		 cmp	 esi, edi
  0006b	0f 42 fe	 cmovb	 edi, esi

; 102  : 			ar.EnsureRead(pData, nElementsToRead*sizeof(TYPE));

  0006e	8d 1c bd 00 00
	00 00		 lea	 ebx, DWORD PTR [edi*4]
; File C:\Program Files (x86)\Microsoft Visual Studio\2019\Community\VC\Tools\MSVC\14.29.30133\atlmfc\include\afx.inl

; 399  : 	UINT nRead=Read(lpBuf, nCount);

  00075	53		 push	 ebx
  00076	51		 push	 ecx
  00077	8b ca		 mov	 ecx, edx
  00079	e8 00 00 00 00	 call	 ?Read@CArchive@@QAEIPAXI@Z ; CArchive::Read

; 400  : 	if(nRead!=nCount)

  0007e	3b c3		 cmp	 eax, ebx
  00080	75 16		 jne	 SHORT $LN23@SerializeE
; File C:\Program Files (x86)\Microsoft Visual Studio\2019\Community\VC\Tools\MSVC\14.29.30133\atlmfc\include\afxtempl.h

; 97   : 		while( nElementsLeft > 0 )

  00082	8b 4d 0c	 mov	 ecx, DWORD PTR _pElements$[ebp]
  00085	8b 55 08	 mov	 edx, DWORD PTR _ar$[ebp]

; 103  : 			nElementsLeft -= nElementsToRead;
; 104  : 			pData += nElementsToRead;

  00088	03 cb		 add	 ecx, ebx
  0008a	89 4d 0c	 mov	 DWORD PTR _pElements$[ebp], ecx
  0008d	2b f7		 sub	 esi, edi
  0008f	75 d3		 jne	 SHORT $LL7@SerializeE

; 105  : 		}
; 106  : 	}
; 107  : }

  00091	5f		 pop	 edi
  00092	5e		 pop	 esi
  00093	5b		 pop	 ebx
  00094	5d		 pop	 ebp
  00095	c2 0c 00	 ret	 12			; 0000000cH
$LN23@SerializeE:
; File C:\Program Files (x86)\Microsoft Visual Studio\2019\Community\VC\Tools\MSVC\14.29.30133\atlmfc\include\afx.inl

; 402  : 		AfxThrowArchiveException(CArchiveException::endOfFile);

  00098	6a 00		 push	 0
  0009a	6a 03		 push	 3
  0009c	e8 00 00 00 00	 call	 ?AfxThrowArchiveException@@YGXHPBD@Z ; AfxThrowArchiveException
$LN34@SerializeE:
; File C:\Program Files (x86)\Microsoft Visual Studio\2019\Community\VC\Tools\MSVC\14.29.30133\atlmfc\include\afxtempl.h

; 68   : 	ENSURE(nCount == 0 || pElements != NULL);

  000a1	e8 00 00 00 00	 call	 ?AfxThrowInvalidArgException@@YGXXZ ; AfxThrowInvalidArgException
$LN32@SerializeE:
  000a6	cc		 int	 3
??$SerializeElements@PAVCIndicatorGroupData@@@@YGXAAVCArchive@@PAPAVCIndicatorGroupData@@H@Z ENDP ; SerializeElements<CIndicatorGroupData *>
_TEXT	ENDS
; Function compile flags: /Ogtp
; File C:\Program Files (x86)\Microsoft Visual Studio\2019\Community\VC\Tools\MSVC\14.29.30133\include\deque
; File C:\Program Files (x86)\Microsoft Visual Studio\2019\Community\VC\Tools\MSVC\14.29.30133\include\xmemory
; File C:\Program Files (x86)\Microsoft Visual Studio\2019\Community\VC\Tools\MSVC\14.29.30133\include\deque
; File C:\Program Files (x86)\Microsoft Visual Studio\2019\Community\VC\Tools\MSVC\14.29.30133\include\xmemory
; File C:\Program Files (x86)\Microsoft Visual Studio\2019\Community\VC\Tools\MSVC\14.29.30133\include\deque
;	COMDAT ??$assign@V?$_Deque_unchecked_const_iterator@V?$_Deque_val@U?$_Deque_simple_types@PAVCGraphTypeData@@@std@@@std@@@std@@$0A@@?$deque@PAVCGraphTypeData@@V?$allocator@PAVCGraphTypeData@@@std@@@std@@QAEXV?$_Deque_unchecked_const_iterator@V?$_Deque_val@U?$_Deque_simple_types@PAVCGraphTypeData@@@std@@@std@@@1@0@Z
_TEXT	SEGMENT
__ULast$1$ = -28					; size = 4
$T1 = -20						; size = 4
tv846 = -20						; size = 4
$T2 = -20						; size = 4
__Count$1$ = -16					; size = 4
__UFirst$2$ = -12					; size = 4
__Myfirst$$sroa$161$1$ = -8				; size = 4
__UFirst$1$ = -4					; size = 4
__First$ = 8						; size = 8
__Last$ = 16						; size = 8
??$assign@V?$_Deque_unchecked_const_iterator@V?$_Deque_val@U?$_Deque_simple_types@PAVCGraphTypeData@@@std@@@std@@@std@@$0A@@?$deque@PAVCGraphTypeData@@V?$allocator@PAVCGraphTypeData@@@std@@@std@@QAEXV?$_Deque_unchecked_const_iterator@V?$_Deque_val@U?$_Deque_simple_types@PAVCGraphTypeData@@@std@@@std@@@1@0@Z PROC ; std::deque<CGraphTypeData *,std::allocator<CGraphTypeData *> >::assign<std::_Deque_unchecked_const_iterator<std::_Deque_val<std::_Deque_simple_types<CGraphTypeData *> > >,0>, COMDAT
; _this$ = ecx

; 1153 :     void assign(_Iter _First, _Iter _Last) {

  00000	55		 push	 ebp
  00001	8b ec		 mov	 ebp, esp
  00003	83 ec 1c	 sub	 esp, 28			; 0000001cH

; 1154 :         _Orphan_all();
; 1155 :         _Adl_verify_range(_First, _Last);
; 1156 :         auto _UFirst       = _Get_unwrapped(_First);

  00006	8b 45 08	 mov	 eax, DWORD PTR __First$[ebp]
  00009	8b 55 0c	 mov	 edx, DWORD PTR __First$[ebp+4]
  0000c	53		 push	 ebx
  0000d	56		 push	 esi
  0000e	8b f1		 mov	 esi, ecx
  00010	89 45 f4	 mov	 DWORD PTR __UFirst$2$[ebp], eax

; 1157 :         const auto _ULast  = _Get_unwrapped(_Last);

  00013	8b 4d 14	 mov	 ecx, DWORD PTR __Last$[ebp+4]
  00016	57		 push	 edi
  00017	89 55 fc	 mov	 DWORD PTR __UFirst$1$[ebp], edx

; 43   :         : _Mycont(static_cast<const _Mydeque*>(_Pdeque)), _Myoff(_Off) {}

  0001a	8b 7e 0c	 mov	 edi, DWORD PTR [esi+12]

; 913  :         return _Unchecked_iterator(_Myoff() + _Mysize(), _STD addressof(_Get_data()));

  0001d	8b 46 10	 mov	 eax, DWORD PTR [esi+16]
  00020	03 c7		 add	 eax, edi

; 1157 :         const auto _ULast  = _Get_unwrapped(_Last);

  00022	89 4d e4	 mov	 DWORD PTR __ULast$1$[ebp], ecx

; 43   :         : _Mycont(static_cast<const _Mydeque*>(_Pdeque)), _Myoff(_Off) {}

  00025	89 7d f8	 mov	 DWORD PTR __Myfirst$$sroa$161$1$[ebp], edi

; 913  :         return _Unchecked_iterator(_Myoff() + _Mysize(), _STD addressof(_Get_data()));

  00028	89 45 f0	 mov	 DWORD PTR __Count$1$[ebp], eax

; 43   :         : _Mycont(static_cast<const _Mydeque*>(_Pdeque)), _Myoff(_Off) {}

  0002b	3b d1		 cmp	 edx, ecx

; 1158 :         auto _Myfirst      = _Unchecked_begin();
; 1159 :         const auto _Mylast = _Unchecked_end();
; 1160 :         for (; _UFirst != _ULast; ++_UFirst) { // try to assign over an element in the container

  0002d	74 5c		 je	 SHORT $LN3@assign
  0002f	8b ca		 mov	 ecx, edx
  00031	89 55 ec	 mov	 DWORD PTR $T1[ebp], edx
$LL23@assign:

; 106  :         return _Myoff == _Right._Myoff;

  00034	3b f8		 cmp	 edi, eax

; 1161 :             if (_Myfirst == _Mylast) { // container wasn't big enough, insert what's left at end

  00036	74 73		 je	 SHORT $LN118@assign

; 559  :         return (_Off / _Block_size) & (_Mapsize - 1);

  00038	8b 5d f4	 mov	 ebx, DWORD PTR __UFirst$2$[ebp]
  0003b	8b c2		 mov	 eax, edx
  0003d	c1 e8 02	 shr	 eax, 2

; 47   :         _Size_type _Off   = _Myoff % _Block_size;

  00040	83 e2 03	 and	 edx, 3

; 559  :         return (_Off / _Block_size) & (_Mapsize - 1);

  00043	c1 ef 02	 shr	 edi, 2

; 47   :         _Size_type _Off   = _Myoff % _Block_size;

  00046	89 55 ec	 mov	 DWORD PTR tv846[ebp], edx

; 559  :         return (_Off / _Block_size) & (_Mapsize - 1);

  00049	8b 4b 08	 mov	 ecx, DWORD PTR [ebx+8]

; 47   :         _Size_type _Off   = _Myoff % _Block_size;

  0004c	8b 55 f8	 mov	 edx, DWORD PTR __Myfirst$$sroa$161$1$[ebp]

; 559  :         return (_Off / _Block_size) & (_Mapsize - 1);

  0004f	49		 dec	 ecx
  00050	23 c8		 and	 ecx, eax

; 47   :         _Size_type _Off   = _Myoff % _Block_size;

  00052	83 e2 03	 and	 edx, 3

; 1166 :                 return;
; 1167 :             }
; 1168 : 
; 1169 :             *_Myfirst = *_UFirst;

  00055	8b 43 04	 mov	 eax, DWORD PTR [ebx+4]
  00058	8b 1c 88	 mov	 ebx, DWORD PTR [eax+ecx*4]

; 559  :         return (_Off / _Block_size) & (_Mapsize - 1);

  0005b	8b 46 08	 mov	 eax, DWORD PTR [esi+8]

; 1166 :                 return;
; 1167 :             }
; 1168 : 
; 1169 :             *_Myfirst = *_UFirst;

  0005e	8b 4e 04	 mov	 ecx, DWORD PTR [esi+4]

; 559  :         return (_Off / _Block_size) & (_Mapsize - 1);

  00061	48		 dec	 eax
  00062	23 f8		 and	 edi, eax

; 1166 :                 return;
; 1167 :             }
; 1168 : 
; 1169 :             *_Myfirst = *_UFirst;

  00064	8b 45 ec	 mov	 eax, DWORD PTR tv846[ebp]
  00067	8b 0c b9	 mov	 ecx, DWORD PTR [ecx+edi*4]
  0006a	8b 04 83	 mov	 eax, DWORD PTR [ebx+eax*4]

; 56   :         ++_Myoff;

  0006d	8b 7d f8	 mov	 edi, DWORD PTR __Myfirst$$sroa$161$1$[ebp]
  00070	47		 inc	 edi

; 1166 :                 return;
; 1167 :             }
; 1168 : 
; 1169 :             *_Myfirst = *_UFirst;

  00071	89 04 91	 mov	 DWORD PTR [ecx+edx*4], eax

; 56   :         ++_Myoff;

  00074	8b 55 fc	 mov	 edx, DWORD PTR __UFirst$1$[ebp]

; 1158 :         auto _Myfirst      = _Unchecked_begin();
; 1159 :         const auto _Mylast = _Unchecked_end();
; 1160 :         for (; _UFirst != _ULast; ++_UFirst) { // try to assign over an element in the container

  00077	8b 45 f0	 mov	 eax, DWORD PTR __Count$1$[ebp]

; 56   :         ++_Myoff;

  0007a	42		 inc	 edx
  0007b	8b ca		 mov	 ecx, edx
  0007d	89 7d f8	 mov	 DWORD PTR __Myfirst$$sroa$161$1$[ebp], edi
  00080	89 55 fc	 mov	 DWORD PTR __UFirst$1$[ebp], edx
  00083	89 4d ec	 mov	 DWORD PTR $T1[ebp], ecx

; 106  :         return _Myoff == _Right._Myoff;

  00086	3b 55 e4	 cmp	 edx, DWORD PTR __ULast$1$[ebp]

; 1158 :         auto _Myfirst      = _Unchecked_begin();
; 1159 :         const auto _Mylast = _Unchecked_end();
; 1160 :         for (; _UFirst != _ULast; ++_UFirst) { // try to assign over an element in the container

  00089	75 a9		 jne	 SHORT $LL23@assign
$LN3@assign:

; 98   :         return static_cast<difference_type>(_Myoff - _Right._Myoff);

  0008b	2b c7		 sub	 eax, edi

; 1325 :         for (; 0 < _Count; --_Count) {

  0008d	74 13		 je	 SHORT $LN99@assign
  0008f	90		 npad	 1
$LL100@assign:

; 1146 :         if (--_Mysize() == 0) {

  00090	83 46 10 ff	 add	 DWORD PTR [esi+16], -1
  00094	75 07		 jne	 SHORT $LN98@assign

; 1147 :             _Myoff() = 0;

  00096	c7 46 0c 00 00
	00 00		 mov	 DWORD PTR [esi+12], 0
$LN98@assign:

; 1325 :         for (; 0 < _Count; --_Count) {

  0009d	83 e8 01	 sub	 eax, 1
  000a0	75 ee		 jne	 SHORT $LL100@assign
$LN99@assign:
  000a2	5f		 pop	 edi

; 1170 :             ++_Myfirst;
; 1171 :         }
; 1172 : 
; 1173 :         _Erase_last_n(static_cast<size_type>(_Mylast - _Myfirst));
; 1174 :     }

  000a3	5e		 pop	 esi
  000a4	5b		 pop	 ebx
  000a5	8b e5		 mov	 esp, ebp
  000a7	5d		 pop	 ebp
  000a8	c2 10 00	 ret	 16			; 00000010H
$LN118@assign:
  000ab	8b 5e 10	 mov	 ebx, DWORD PTR [esi+16]
  000ae	8b fb		 mov	 edi, ebx
  000b0	8b 55 ec	 mov	 edx, DWORD PTR $T1[ebp]
$LL7@assign:

; 559  :         return (_Off / _Block_size) & (_Mapsize - 1);

  000b3	8b 45 f4	 mov	 eax, DWORD PTR __UFirst$2$[ebp]

; 48   :         return _Mycont->_Map[_Block][_Off];

  000b6	83 e2 03	 and	 edx, 3

; 559  :         return (_Off / _Block_size) & (_Mapsize - 1);

  000b9	c1 e9 02	 shr	 ecx, 2
  000bc	8b 40 08	 mov	 eax, DWORD PTR [eax+8]
  000bf	48		 dec	 eax
  000c0	23 c8		 and	 ecx, eax

; 48   :         return _Mycont->_Map[_Block][_Off];

  000c2	8b 45 f4	 mov	 eax, DWORD PTR __UFirst$2$[ebp]
  000c5	8b 40 04	 mov	 eax, DWORD PTR [eax+4]
  000c8	8b 04 88	 mov	 eax, DWORD PTR [eax+ecx*4]
  000cb	8d 04 90	 lea	 eax, DWORD PTR [eax+edx*4]

; 1106 :         if ((_Myoff() + _Mysize()) % _Block_size == 0 && _Mapsize() <= (_Mysize() + _Block_size) / _Block_size) {

  000ce	8b 56 0c	 mov	 edx, DWORD PTR [esi+12]

; 48   :         return _Mycont->_Map[_Block][_Off];

  000d1	89 45 ec	 mov	 DWORD PTR $T2[ebp], eax

; 1106 :         if ((_Myoff() + _Mysize()) % _Block_size == 0 && _Mapsize() <= (_Mysize() + _Block_size) / _Block_size) {

  000d4	8d 04 1a	 lea	 eax, DWORD PTR [edx+ebx]
  000d7	a8 03		 test	 al, 3
  000d9	75 1a		 jne	 SHORT $LN37@assign
  000db	8d 43 04	 lea	 eax, DWORD PTR [ebx+4]
  000de	c1 e8 02	 shr	 eax, 2
  000e1	39 46 08	 cmp	 DWORD PTR [esi+8], eax
  000e4	77 0f		 ja	 SHORT $LN37@assign

; 1107 :             _Growmap(1);

  000e6	6a 01		 push	 1
  000e8	8b ce		 mov	 ecx, esi
  000ea	e8 00 00 00 00	 call	 ?_Growmap@?$deque@PAVCGraphTypeData@@V?$allocator@PAVCGraphTypeData@@@std@@@std@@AAEXI@Z ; std::deque<CGraphTypeData *,std::allocator<CGraphTypeData *> >::_Growmap
  000ef	8b 56 0c	 mov	 edx, DWORD PTR [esi+12]
  000f2	8b 7e 10	 mov	 edi, DWORD PTR [esi+16]
$LN37@assign:

; 1108 :         }
; 1109 :         _Myoff() &= _Mapsize() * _Block_size - 1;

  000f5	8b 4e 08	 mov	 ecx, DWORD PTR [esi+8]
  000f8	8d 04 8d ff ff
	ff ff		 lea	 eax, DWORD PTR [ecx*4-1]

; 559  :         return (_Off / _Block_size) & (_Mapsize - 1);

  000ff	49		 dec	 ecx

; 1109 :         _Myoff() &= _Mapsize() * _Block_size - 1;

  00100	23 c2		 and	 eax, edx
  00102	89 46 0c	 mov	 DWORD PTR [esi+12], eax

; 1110 :         size_type _Newoff = _Myoff() + _Mysize();

  00105	8d 1c 38	 lea	 ebx, DWORD PTR [eax+edi]

; 559  :         return (_Off / _Block_size) & (_Mapsize - 1);

  00108	8b c3		 mov	 eax, ebx
  0010a	c1 e8 02	 shr	 eax, 2
  0010d	23 c8		 and	 ecx, eax

; 1112 :         if (_Map()[_Block] == nullptr) {

  0010f	8d 3c 8d 00 00
	00 00		 lea	 edi, DWORD PTR [ecx*4]
  00116	8b 4e 04	 mov	 ecx, DWORD PTR [esi+4]
  00119	83 3c 39 00	 cmp	 DWORD PTR [ecx+edi], 0
  0011d	75 13		 jne	 SHORT $LN127@assign
; File C:\Program Files (x86)\Microsoft Visual Studio\2019\Community\VC\Tools\MSVC\14.29.30133\include\xmemory

; 79   :         return ::operator new(_Bytes);

  0011f	6a 10		 push	 16			; 00000010H
  00121	e8 00 00 00 00	 call	 ??2@YAPAXI@Z		; operator new
; File C:\Program Files (x86)\Microsoft Visual Studio\2019\Community\VC\Tools\MSVC\14.29.30133\include\deque

; 1113 :             _Map()[_Block] = _Getal().allocate(_Block_size);

  00126	8b 4e 04	 mov	 ecx, DWORD PTR [esi+4]
; File C:\Program Files (x86)\Microsoft Visual Studio\2019\Community\VC\Tools\MSVC\14.29.30133\include\xmemory

; 79   :         return ::operator new(_Bytes);

  00129	83 c4 04	 add	 esp, 4
; File C:\Program Files (x86)\Microsoft Visual Studio\2019\Community\VC\Tools\MSVC\14.29.30133\include\deque

; 1113 :             _Map()[_Block] = _Getal().allocate(_Block_size);

  0012c	89 04 0f	 mov	 DWORD PTR [edi+ecx], eax
  0012f	8b 4e 04	 mov	 ecx, DWORD PTR [esi+4]
$LN127@assign:

; 1114 :         }
; 1115 : 
; 1116 :         _Alty_traits::construct(

  00132	8b 0c 0f	 mov	 ecx, DWORD PTR [edi+ecx]
  00135	83 e3 03	 and	 ebx, 3
  00138	8b 45 ec	 mov	 eax, DWORD PTR $T2[ebp]
  0013b	8b 00		 mov	 eax, DWORD PTR [eax]
  0013d	89 04 99	 mov	 DWORD PTR [ecx+ebx*4], eax

; 56   :         ++_Myoff;

  00140	8b 45 fc	 mov	 eax, DWORD PTR __UFirst$1$[ebp]

; 1119 :         ++_Mysize();

  00143	8b 5e 10	 mov	 ebx, DWORD PTR [esi+16]

; 56   :         ++_Myoff;

  00146	40		 inc	 eax

; 1119 :         ++_Mysize();

  00147	43		 inc	 ebx

; 56   :         ++_Myoff;

  00148	89 45 fc	 mov	 DWORD PTR __UFirst$1$[ebp], eax
  0014b	8b c8		 mov	 ecx, eax

; 1119 :         ++_Mysize();

  0014d	89 5e 10	 mov	 DWORD PTR [esi+16], ebx
  00150	8b fb		 mov	 edi, ebx

; 56   :         ++_Myoff;

  00152	3b 4d e4	 cmp	 ecx, DWORD PTR __ULast$1$[ebp]

; 1162 :                 do {
; 1163 :                     emplace_back(*_UFirst);
; 1164 :                     ++_UFirst;
; 1165 :                 } while (_UFirst != _ULast);

  00155	0f 84 47 ff ff
	ff		 je	 $LN99@assign
  0015b	8b d1		 mov	 edx, ecx
  0015d	e9 51 ff ff ff	 jmp	 $LL7@assign
??$assign@V?$_Deque_unchecked_const_iterator@V?$_Deque_val@U?$_Deque_simple_types@PAVCGraphTypeData@@@std@@@std@@@std@@$0A@@?$deque@PAVCGraphTypeData@@V?$allocator@PAVCGraphTypeData@@@std@@@std@@QAEXV?$_Deque_unchecked_const_iterator@V?$_Deque_val@U?$_Deque_simple_types@PAVCGraphTypeData@@@std@@@std@@@1@0@Z ENDP ; std::deque<CGraphTypeData *,std::allocator<CGraphTypeData *> >::assign<std::_Deque_unchecked_const_iterator<std::_Deque_val<std::_Deque_simple_types<CGraphTypeData *> > >,0>
_TEXT	ENDS
; Function compile flags: /Ogtp
; File C:\Program Files (x86)\Microsoft Visual Studio\2019\Community\VC\Tools\MSVC\14.29.30133\include\xmemory
;	COMDAT ??1?$_Container_proxy_ptr12@V?$allocator@U_Container_proxy@std@@@std@@@std@@QAE@XZ
_TEXT	SEGMENT
??1?$_Container_proxy_ptr12@V?$allocator@U_Container_proxy@std@@@std@@@std@@QAE@XZ PROC ; std::_Container_proxy_ptr12<std::allocator<std::_Container_proxy> >::~_Container_proxy_ptr12<std::allocator<std::_Container_proxy> >, COMDAT
; _this$ = ecx

; 1296 :         if (_Ptr) {

  00000	8b 01		 mov	 eax, DWORD PTR [ecx]
  00002	85 c0		 test	 eax, eax
  00004	74 0b		 je	 SHORT $LN12@Container_

; 255  :         ::operator delete(_Ptr, _Bytes);

  00006	6a 08		 push	 8
  00008	50		 push	 eax
  00009	e8 00 00 00 00	 call	 ??3@YAXPAXI@Z		; operator delete
  0000e	83 c4 08	 add	 esp, 8
$LN12@Container_:

; 1297 :             _Delete_plain_internal(_Al, _Ptr);
; 1298 :         }
; 1299 :     }

  00011	c3		 ret	 0
??1?$_Container_proxy_ptr12@V?$allocator@U_Container_proxy@std@@@std@@@std@@QAE@XZ ENDP ; std::_Container_proxy_ptr12<std::allocator<std::_Container_proxy> >::~_Container_proxy_ptr12<std::allocator<std::_Container_proxy> >
_TEXT	ENDS
; Function compile flags: /Ogtp
;	COMDAT ??__F?m_unchangeableData@CIndicatorListImplementation@@1VCUnchangeableData@@A@@YAXXZ
text$yd	SEGMENT
??__F?m_unchangeableData@CIndicatorListImplementation@@1VCUnchangeableData@@A@@YAXXZ PROC ; `dynamic atexit destructor for 'CIndicatorListImplementation::m_unchangeableData'', COMDAT
  00000	b9 58 00 00 00	 mov	 ecx, OFFSET ?m_unchangeableData@CIndicatorListImplementation@@1VCUnchangeableData@@A+88
  00005	e8 00 00 00 00	 call	 ??1CBaseIndicatorList@@UAE@XZ ; CBaseIndicatorList::~CBaseIndicatorList
  0000a	b9 38 00 00 00	 mov	 ecx, OFFSET ?m_unchangeableData@CIndicatorListImplementation@@1VCUnchangeableData@@A+56
  0000f	e8 00 00 00 00	 call	 ??1CDefaultIndicatorList@@UAE@XZ ; CDefaultIndicatorList::~CDefaultIndicatorList
  00014	b9 04 00 00 00	 mov	 ecx, OFFSET ?m_unchangeableData@CIndicatorListImplementation@@1VCUnchangeableData@@A+4
  00019	e9 00 00 00 00	 jmp	 ??1CGraphTypeAndStyleData@@UAE@XZ ; CGraphTypeAndStyleData::~CGraphTypeAndStyleData
??__F?m_unchangeableData@CIndicatorListImplementation@@1VCUnchangeableData@@A@@YAXXZ ENDP ; `dynamic atexit destructor for 'CIndicatorListImplementation::m_unchangeableData''
text$yd	ENDS
; Function compile flags: /Ogtp
; File D:\git\src\IBK\IBK_DRFN\ProjSrc\SrcChartEx\ChartOCX\IndicatorCondition\IndicatorListImplementation.cpp
;	COMDAT ??__E?m_unchangeableData@CIndicatorListImplementation@@1VCUnchangeableData@@A@@YAXXZ
text$di	SEGMENT
??__E?m_unchangeableData@CIndicatorListImplementation@@1VCUnchangeableData@@A@@YAXXZ PROC ; `dynamic initializer for 'CIndicatorListImplementation::m_unchangeableData'', COMDAT

; 24   : CUnchangeableData CIndicatorListImplementation::m_unchangeableData;

  00000	b9 00 00 00 00	 mov	 ecx, OFFSET ?m_unchangeableData@CIndicatorListImplementation@@1VCUnchangeableData@@A ; CIndicatorListImplementation::m_unchangeableData
  00005	e8 00 00 00 00	 call	 ??0CUnchangeableData@@QAE@XZ ; CUnchangeableData::CUnchangeableData
  0000a	68 00 00 00 00	 push	 OFFSET ??__F?m_unchangeableData@CIndicatorListImplementation@@1VCUnchangeableData@@A@@YAXXZ ; `dynamic atexit destructor for 'CIndicatorListImplementation::m_unchangeableData''
  0000f	e8 00 00 00 00	 call	 _atexit
  00014	59		 pop	 ecx
  00015	c3		 ret	 0
??__E?m_unchangeableData@CIndicatorListImplementation@@1VCUnchangeableData@@A@@YAXXZ ENDP ; `dynamic initializer for 'CIndicatorListImplementation::m_unchangeableData''
text$di	ENDS
; Function compile flags: /Ogtp
;	COMDAT ??_ECIndicatorInfo@@UAEPAXI@Z
_TEXT	SEGMENT
__$EHRec$ = -12						; size = 12
___flags$ = 8						; size = 4
??_ECIndicatorInfo@@UAEPAXI@Z PROC			; CIndicatorInfo::`vector deleting destructor', COMDAT
; _this$ = ecx
  00000	55		 push	 ebp
  00001	8b ec		 mov	 ebp, esp
  00003	6a ff		 push	 -1
  00005	68 00 00 00 00	 push	 __ehhandler$??_ECIndicatorInfo@@UAEPAXI@Z
  0000a	64 a1 00 00 00
	00		 mov	 eax, DWORD PTR fs:0
  00010	50		 push	 eax
  00011	53		 push	 ebx
  00012	56		 push	 esi
  00013	57		 push	 edi
  00014	a1 00 00 00 00	 mov	 eax, DWORD PTR ___security_cookie
  00019	33 c5		 xor	 eax, ebp
  0001b	50		 push	 eax
  0001c	8d 45 f4	 lea	 eax, DWORD PTR __$EHRec$[ebp]
  0001f	64 a3 00 00 00
	00		 mov	 DWORD PTR fs:0, eax
  00025	8b f1		 mov	 esi, ecx
  00027	8b 45 08	 mov	 eax, DWORD PTR ___flags$[ebp]
  0002a	8b d8		 mov	 ebx, eax
  0002c	83 e3 01	 and	 ebx, 1
  0002f	a8 02		 test	 al, 2
  00031	74 40		 je	 SHORT $LN2@vector
  00033	68 00 00 00 00	 push	 OFFSET ??1CIndicatorInfo@@UAE@XZ ; CIndicatorInfo::~CIndicatorInfo
  00038	ff 76 fc	 push	 DWORD PTR [esi-4]
  0003b	8d 7e fc	 lea	 edi, DWORD PTR [esi-4]
  0003e	6a 08		 push	 8
  00040	56		 push	 esi
  00041	e8 00 00 00 00	 call	 ??_M@YGXPAXIIP6EX0@Z@Z
  00046	85 db		 test	 ebx, ebx
  00048	74 13		 je	 SHORT $LN3@vector
  0004a	8b 0f		 mov	 ecx, DWORD PTR [edi]
  0004c	8d 0c cd 04 00
	00 00		 lea	 ecx, DWORD PTR [ecx*8+4]
  00053	51		 push	 ecx
  00054	57		 push	 edi
  00055	e8 00 00 00 00	 call	 ??_V@YAXPAXI@Z		; operator delete[]
  0005a	83 c4 08	 add	 esp, 8
$LN3@vector:
  0005d	8b c7		 mov	 eax, edi
  0005f	8b 4d f4	 mov	 ecx, DWORD PTR __$EHRec$[ebp]
  00062	64 89 0d 00 00
	00 00		 mov	 DWORD PTR fs:0, ecx
  00069	59		 pop	 ecx
  0006a	5f		 pop	 edi
  0006b	5e		 pop	 esi
  0006c	5b		 pop	 ebx
  0006d	8b e5		 mov	 esp, ebp
  0006f	5d		 pop	 ebp
  00070	c2 04 00	 ret	 4
$LN2@vector:
  00073	e8 00 00 00 00	 call	 ??1CIndicatorInfo@@UAE@XZ ; CIndicatorInfo::~CIndicatorInfo
  00078	85 db		 test	 ebx, ebx
  0007a	74 0b		 je	 SHORT $LN4@vector
  0007c	6a 08		 push	 8
  0007e	56		 push	 esi
  0007f	e8 00 00 00 00	 call	 ??3@YAXPAXI@Z		; operator delete
  00084	83 c4 08	 add	 esp, 8
$LN4@vector:
  00087	8b c6		 mov	 eax, esi
  00089	8b 4d f4	 mov	 ecx, DWORD PTR __$EHRec$[ebp]
  0008c	64 89 0d 00 00
	00 00		 mov	 DWORD PTR fs:0, ecx
  00093	59		 pop	 ecx
  00094	5f		 pop	 edi
  00095	5e		 pop	 esi
  00096	5b		 pop	 ebx
  00097	8b e5		 mov	 esp, ebp
  00099	5d		 pop	 ebp
  0009a	c2 04 00	 ret	 4
  0009d	cc		 int	 3
  0009e	cc		 int	 3
  0009f	cc		 int	 3
  000a0	cc		 int	 3
  000a1	cc		 int	 3
_TEXT	ENDS
;	COMDAT text$x
text$x	SEGMENT
__ehhandler$??_ECIndicatorInfo@@UAEPAXI@Z:
  00000	90		 npad	 1
  00001	90		 npad	 1
  00002	8b 54 24 08	 mov	 edx, DWORD PTR [esp+8]
  00006	8d 42 0c	 lea	 eax, DWORD PTR [edx+12]
  00009	8b 4a f0	 mov	 ecx, DWORD PTR [edx-16]
  0000c	33 c8		 xor	 ecx, eax
  0000e	e8 00 00 00 00	 call	 @__security_check_cookie@4
  00013	b8 00 00 00 00	 mov	 eax, OFFSET __ehfuncinfo$??_ECIndicatorInfo@@UAEPAXI@Z
  00018	e9 00 00 00 00	 jmp	 ___CxxFrameHandler3
text$x	ENDS
??_ECIndicatorInfo@@UAEPAXI@Z ENDP			; CIndicatorInfo::`vector deleting destructor'
; Function compile flags: /Ogtp
;	COMDAT ??_GCIndicatorInfo@@UAEPAXI@Z
_TEXT	SEGMENT
___flags$ = 8						; size = 4
??_GCIndicatorInfo@@UAEPAXI@Z PROC			; CIndicatorInfo::`scalar deleting destructor', COMDAT
; _this$ = ecx
  00000	55		 push	 ebp
  00001	8b ec		 mov	 ebp, esp
  00003	56		 push	 esi
  00004	8b f1		 mov	 esi, ecx
  00006	e8 00 00 00 00	 call	 ??1CIndicatorInfo@@UAE@XZ ; CIndicatorInfo::~CIndicatorInfo
  0000b	f6 45 08 01	 test	 BYTE PTR ___flags$[ebp], 1
  0000f	74 0b		 je	 SHORT $LN4@scalar
  00011	6a 08		 push	 8
  00013	56		 push	 esi
  00014	e8 00 00 00 00	 call	 ??3@YAXPAXI@Z		; operator delete
  00019	83 c4 08	 add	 esp, 8
$LN4@scalar:
  0001c	8b c6		 mov	 eax, esi
  0001e	5e		 pop	 esi
  0001f	5d		 pop	 ebp
  00020	c2 04 00	 ret	 4
??_GCIndicatorInfo@@UAEPAXI@Z ENDP			; CIndicatorInfo::`scalar deleting destructor'
_TEXT	ENDS
; Function compile flags: /Ogtp
;	COMDAT ??4CIndicatorInfo@@QAEAAV0@ABV0@@Z
_TEXT	SEGMENT
___that$ = 8						; size = 4
??4CIndicatorInfo@@QAEAAV0@ABV0@@Z PROC			; CIndicatorInfo::operator=, COMDAT
; _this$ = ecx
  00000	55		 push	 ebp
  00001	8b ec		 mov	 ebp, esp
  00003	8b 45 08	 mov	 eax, DWORD PTR ___that$[ebp]
  00006	8b 40 04	 mov	 eax, DWORD PTR [eax+4]
  00009	89 41 04	 mov	 DWORD PTR [ecx+4], eax
  0000c	8b c1		 mov	 eax, ecx
  0000e	5d		 pop	 ebp
  0000f	c2 04 00	 ret	 4
??4CIndicatorInfo@@QAEAAV0@ABV0@@Z ENDP			; CIndicatorInfo::operator=
_TEXT	ENDS
; Function compile flags: /Ogtp
;	COMDAT ??0CIndicatorInfo@@QAE@ABV0@@Z
_TEXT	SEGMENT
___that$ = 8						; size = 4
??0CIndicatorInfo@@QAE@ABV0@@Z PROC			; CIndicatorInfo::CIndicatorInfo, COMDAT
; _this$ = ecx
  00000	55		 push	 ebp
  00001	8b ec		 mov	 ebp, esp
  00003	8b 45 08	 mov	 eax, DWORD PTR ___that$[ebp]
  00006	c7 01 00 00 00
	00		 mov	 DWORD PTR [ecx], OFFSET ??_7CIndicatorInfo@@6B@
  0000c	8b 40 04	 mov	 eax, DWORD PTR [eax+4]
  0000f	89 41 04	 mov	 DWORD PTR [ecx+4], eax
  00012	8b c1		 mov	 eax, ecx
  00014	5d		 pop	 ebp
  00015	c2 04 00	 ret	 4
??0CIndicatorInfo@@QAE@ABV0@@Z ENDP			; CIndicatorInfo::CIndicatorInfo
_TEXT	ENDS
; Function compile flags: /Ogtp
; File D:\git\src\IBK\IBK_DRFN\ProjSrc\SrcChartEx\ChartOCX\IndicatorCondition\IndicatorListImplementation.cpp
;	COMDAT ??_GCIndicatorListImplementation@@UAEPAXI@Z
_TEXT	SEGMENT
___flags$ = 8						; size = 4
??_GCIndicatorListImplementation@@UAEPAXI@Z PROC	; CIndicatorListImplementation::`scalar deleting destructor', COMDAT
; _this$ = ecx
  00000	55		 push	 ebp
  00001	8b ec		 mov	 ebp, esp

; 43   : {

  00003	56		 push	 esi
  00004	8b f1		 mov	 esi, ecx

; 44   : }

  00006	8d 4e 64	 lea	 ecx, DWORD PTR [esi+100]
  00009	c7 06 00 00 00
	00		 mov	 DWORD PTR [esi], OFFSET ??_7CIndicatorListImplementation@@6B@
  0000f	e8 00 00 00 00	 call	 ??1CIndicatorGroupDataList@@UAE@XZ ; CIndicatorGroupDataList::~CIndicatorGroupDataList
  00014	8d 4e 38	 lea	 ecx, DWORD PTR [esi+56]
  00017	e8 00 00 00 00	 call	 ??1CBaseIndicatorList@@UAE@XZ ; CBaseIndicatorList::~CBaseIndicatorList
  0001c	8d 4e 10	 lea	 ecx, DWORD PTR [esi+16]
  0001f	e8 00 00 00 00	 call	 ??1CBaseIndicatorList@@UAE@XZ ; CBaseIndicatorList::~CBaseIndicatorList
  00024	f6 45 08 01	 test	 BYTE PTR ___flags$[ebp], 1
  00028	74 0e		 je	 SHORT $LN13@scalar
  0002a	68 88 00 00 00	 push	 136			; 00000088H
  0002f	56		 push	 esi
  00030	e8 00 00 00 00	 call	 ??3@YAXPAXI@Z		; operator delete
  00035	83 c4 08	 add	 esp, 8
$LN13@scalar:
  00038	8b c6		 mov	 eax, esi
  0003a	5e		 pop	 esi
  0003b	5d		 pop	 ebp
  0003c	c2 04 00	 ret	 4
??_GCIndicatorListImplementation@@UAEPAXI@Z ENDP	; CIndicatorListImplementation::`scalar deleting destructor'
_TEXT	ENDS
; Function compile flags: /Ogtp
; File D:\git\src\IBK\IBK_DRFN\ProjSrc\SrcChartEx\ChartOCX\IndicatorCondition\IndicatorListImplementation.cpp
;	COMDAT ?RemoveAllIndicatorInfo@CIndicatorListImplementation@@QAEHW4EIndicatorListType@@PBD@Z
_TEXT	SEGMENT
_p_eIndicatorListType$ = 8				; size = 4
_p_szIndicatorName$ = 12				; size = 4
?RemoveAllIndicatorInfo@CIndicatorListImplementation@@QAEHW4EIndicatorListType@@PBD@Z PROC ; CIndicatorListImplementation::RemoveAllIndicatorInfo, COMDAT
; _this$ = ecx

; 480  : {

  00000	55		 push	 ebp
  00001	8b ec		 mov	 ebp, esp

; 481  : 	if( !p_szIndicatorName) return FALSE;

  00003	8b 45 0c	 mov	 eax, DWORD PTR _p_szIndicatorName$[ebp]
  00006	85 c0		 test	 eax, eax
  00008	74 36		 je	 SHORT $LN10@RemoveAllI

; 482  : 	if( !*p_szIndicatorName) return FALSE;

  0000a	80 38 00	 cmp	 BYTE PTR [eax], 0
  0000d	74 31		 je	 SHORT $LN10@RemoveAllI

; 483  : 
; 484  : 	if( EILT_USER != p_eIndicatorListType && EILT_MAP_DEFAULT != p_eIndicatorListType) return FALSE;

  0000f	8b 55 08	 mov	 edx, DWORD PTR _p_eIndicatorListType$[ebp]
  00012	83 fa 03	 cmp	 edx, 3
  00015	74 17		 je	 SHORT $LN8@RemoveAllI
  00017	83 fa 01	 cmp	 edx, 1
  0001a	75 24		 jne	 SHORT $LN10@RemoveAllI

; 488  : 
; 489  : 	if( EILT_MAP_DEFAULT == p_eIndicatorListType)
; 490  : 		return m_mapDefaultIndiList.RemoveAllIndicator( CBaseIndicatorList::ALL, p_szIndicatorName);

  0001c	50		 push	 eax
  0001d	6a 00		 push	 0
  0001f	83 c1 10	 add	 ecx, 16			; 00000010H
  00022	e8 00 00 00 00	 call	 ?RemoveAllIndicator@CBaseIndicatorList@@QAE_NW4INDICATORTYPE@1@PBD@Z ; CBaseIndicatorList::RemoveAllIndicator
  00027	0f b6 c0	 movzx	 eax, al

; 491  : 
; 492  : 	return FALSE;
; 493  : }

  0002a	5d		 pop	 ebp
  0002b	c2 08 00	 ret	 8
$LN8@RemoveAllI:

; 485  : 
; 486  : 	if( EILT_USER == p_eIndicatorListType)
; 487  : 		return m_userIndiList.RemoveAllIndicator( CBaseIndicatorList::ALL, p_szIndicatorName);

  0002e	50		 push	 eax
  0002f	6a 00		 push	 0
  00031	83 c1 38	 add	 ecx, 56			; 00000038H
  00034	e8 00 00 00 00	 call	 ?RemoveAllIndicator@CBaseIndicatorList@@QAE_NW4INDICATORTYPE@1@PBD@Z ; CBaseIndicatorList::RemoveAllIndicator
  00039	0f b6 c0	 movzx	 eax, al

; 491  : 
; 492  : 	return FALSE;
; 493  : }

  0003c	5d		 pop	 ebp
  0003d	c2 08 00	 ret	 8
$LN10@RemoveAllI:

; 483  : 
; 484  : 	if( EILT_USER != p_eIndicatorListType && EILT_MAP_DEFAULT != p_eIndicatorListType) return FALSE;

  00040	33 c0		 xor	 eax, eax

; 491  : 
; 492  : 	return FALSE;
; 493  : }

  00042	5d		 pop	 ebp
  00043	c2 08 00	 ret	 8
?RemoveAllIndicatorInfo@CIndicatorListImplementation@@QAEHW4EIndicatorListType@@PBD@Z ENDP ; CIndicatorListImplementation::RemoveAllIndicatorInfo
_TEXT	ENDS
; Function compile flags: /Ogtp
; File D:\git\src\IBK\IBK_DRFN\ProjSrc\SrcChartEx\ChartOCX\IndicatorCondition\IndicatorListImplementation.cpp
;	COMDAT ?RemoveAllIndicatorInfo@CIndicatorListImplementation@@QAEHW4EIndicatorListType@@@Z
_TEXT	SEGMENT
_p_eIndicatorListType$ = 8				; size = 4
?RemoveAllIndicatorInfo@CIndicatorListImplementation@@QAEHW4EIndicatorListType@@@Z PROC ; CIndicatorListImplementation::RemoveAllIndicatorInfo, COMDAT
; _this$ = ecx

; 467  : {

  00000	55		 push	 ebp
  00001	8b ec		 mov	 ebp, esp

; 468  : 	if( EILT_USER != p_eIndicatorListType && EILT_MAP_DEFAULT != p_eIndicatorListType) return FALSE;

  00003	8b 45 08	 mov	 eax, DWORD PTR _p_eIndicatorListType$[ebp]
  00006	83 f8 03	 cmp	 eax, 3
  00009	74 1c		 je	 SHORT $LN6@RemoveAllI
  0000b	83 f8 01	 cmp	 eax, 1
  0000e	74 06		 je	 SHORT $LN7@RemoveAllI
  00010	33 c0		 xor	 eax, eax

; 475  : 
; 476  : 	return FALSE;
; 477  : }

  00012	5d		 pop	 ebp
  00013	c2 04 00	 ret	 4
$LN7@RemoveAllI:

; 472  : 
; 473  : 	if( EILT_MAP_DEFAULT == p_eIndicatorListType)
; 474  : 		return m_mapDefaultIndiList.DeleteAll(CBaseIndicatorList::ALL);

  00016	83 c1 10	 add	 ecx, 16			; 00000010H

; 475  : 
; 476  : 	return FALSE;
; 477  : }

  00019	6a 00		 push	 0
  0001b	e8 00 00 00 00	 call	 ?DeleteAll@CBaseIndicatorList@@QAE_NW4INDICATORTYPE@1@@Z ; CBaseIndicatorList::DeleteAll
  00020	0f b6 c0	 movzx	 eax, al
  00023	5d		 pop	 ebp
  00024	c2 04 00	 ret	 4
$LN6@RemoveAllI:

; 469  : 
; 470  : 	if( EILT_USER == p_eIndicatorListType)
; 471  : 		return m_userIndiList.DeleteAll(CBaseIndicatorList::ALL);

  00027	83 c1 38	 add	 ecx, 56			; 00000038H

; 475  : 
; 476  : 	return FALSE;
; 477  : }

  0002a	6a 00		 push	 0
  0002c	e8 00 00 00 00	 call	 ?DeleteAll@CBaseIndicatorList@@QAE_NW4INDICATORTYPE@1@@Z ; CBaseIndicatorList::DeleteAll
  00031	0f b6 c0	 movzx	 eax, al
  00034	5d		 pop	 ebp
  00035	c2 04 00	 ret	 4
?RemoveAllIndicatorInfo@CIndicatorListImplementation@@QAEHW4EIndicatorListType@@@Z ENDP ; CIndicatorListImplementation::RemoveAllIndicatorInfo
_TEXT	ENDS
; Function compile flags: /Ogtp
; File D:\git\src\IBK\IBK_DRFN\ProjSrc\SrcChartEx\ChartOCX\IndicatorCondition\IndicatorListImplementation.cpp
;	COMDAT ?RemoveGraphIndicatorInfo@CIndicatorListImplementation@@QAEHPBD@Z
_TEXT	SEGMENT
_p_szGraphName$ = 8					; size = 4
?RemoveGraphIndicatorInfo@CIndicatorListImplementation@@QAEHPBD@Z PROC ; CIndicatorListImplementation::RemoveGraphIndicatorInfo, COMDAT
; _this$ = ecx

; 462  : {

  00000	55		 push	 ebp
  00001	8b ec		 mov	 ebp, esp

; 239  : 	if( !p_szGraphName) return NULL;

  00003	8b 45 08	 mov	 eax, DWORD PTR _p_szGraphName$[ebp]

; 462  : {

  00006	56		 push	 esi
  00007	8b f1		 mov	 esi, ecx

; 239  : 	if( !p_szGraphName) return NULL;

  00009	85 c0		 test	 eax, eax
  0000b	75 13		 jne	 SHORT $LN6@RemoveGrap
$LN31@RemoveGrap:

; 463  : 	return m_userIndiList.Delete( GetGraphIndicatorInfo( EILT_USER, p_szGraphName, NULL, EIIGT_WITHOUT_DEFAULT));

  0000d	33 c0		 xor	 eax, eax
  0000f	8d 4e 38	 lea	 ecx, DWORD PTR [esi+56]
  00012	50		 push	 eax
  00013	e8 00 00 00 00	 call	 ?Delete@CBaseIndicatorList@@QAE_NPAVCIndicatorInfo@@@Z ; CBaseIndicatorList::Delete
  00018	0f b6 c0	 movzx	 eax, al
  0001b	5e		 pop	 esi

; 464  : }

  0001c	5d		 pop	 ebp
  0001d	c2 04 00	 ret	 4
$LN6@RemoveGrap:

; 240  : 	if( !*p_szGraphName) return NULL;

  00020	80 38 00	 cmp	 BYTE PTR [eax], 0
  00023	74 e8		 je	 SHORT $LN31@RemoveGrap

; 241  : 	if( EILT_USER != p_eIndicatorListType && EILT_MAP_DEFAULT != p_eIndicatorListType) return NULL;
; 242  : 
; 243  : 	CBaseIndicatorList *pTargetIndicatorList = NULL;
; 244  : 	// 1. Select Target Indicator List
; 245  : 	if( EILT_USER == p_eIndicatorListType)	pTargetIndicatorList = &m_userIndiList;
; 246  : 	else									pTargetIndicatorList = &m_mapDefaultIndiList;
; 247  : 	// 2. Get Indicator Info from target or without defualt
; 248  : 	// (2009/9/2 - Seung-Won, Bae) Support Chart Mode. (for HTS/FX/WorldOn)
; 249  : 	CIndicatorInfo *pIndicatorInfo = pTargetIndicatorList->GetIndicatorInfo( p_szGraphName, m_eChartMode);

  00025	ff 76 60	 push	 DWORD PTR [esi+96]
  00028	8d 4e 38	 lea	 ecx, DWORD PTR [esi+56]
  0002b	50		 push	 eax
  0002c	e8 00 00 00 00	 call	 ?GetIndicatorInfo@CBaseIndicatorList@@QAEPAVCIndicatorInfo@@PBDW4CHART_MODE@CChartInfo@@@Z ; CBaseIndicatorList::GetIndicatorInfo

; 463  : 	return m_userIndiList.Delete( GetGraphIndicatorInfo( EILT_USER, p_szGraphName, NULL, EIIGT_WITHOUT_DEFAULT));

  00031	50		 push	 eax
  00032	8d 4e 38	 lea	 ecx, DWORD PTR [esi+56]
  00035	e8 00 00 00 00	 call	 ?Delete@CBaseIndicatorList@@QAE_NPAVCIndicatorInfo@@@Z ; CBaseIndicatorList::Delete
  0003a	0f b6 c0	 movzx	 eax, al
  0003d	5e		 pop	 esi

; 464  : }

  0003e	5d		 pop	 ebp
  0003f	c2 04 00	 ret	 4
?RemoveGraphIndicatorInfo@CIndicatorListImplementation@@QAEHPBD@Z ENDP ; CIndicatorListImplementation::RemoveGraphIndicatorInfo
_TEXT	ENDS
; Function compile flags: /Ogtp
; File D:\git\src\IBK\IBK_DRFN\ProjSrc\SrcChartEx\ChartOCX\IndicatorCondition\IndicatorListImplementation.cpp
;	COMDAT ?GetDefaultIndicatorInfo@CIndicatorListImplementation@@QAEPAVCIndicatorInfo@@W4EIndicatorListType@@PBDW4EIndicatorInfoGettingType@@@Z
_TEXT	SEGMENT
_this$1$ = -4						; size = 4
_p_eIndicatorListType$ = 8				; size = 4
_p_szIndicatorName$ = 12				; size = 4
_p_nDefaultOption$ = 16					; size = 4
?GetDefaultIndicatorInfo@CIndicatorListImplementation@@QAEPAVCIndicatorInfo@@W4EIndicatorListType@@PBDW4EIndicatorInfoGettingType@@@Z PROC ; CIndicatorListImplementation::GetDefaultIndicatorInfo, COMDAT
; _this$ = ecx

; 415  : {

  00000	55		 push	 ebp
  00001	8b ec		 mov	 ebp, esp
  00003	51		 push	 ecx
  00004	53		 push	 ebx
  00005	56		 push	 esi

; 416  : 	if( !p_szIndicatorName) return NULL;

  00006	8b 75 0c	 mov	 esi, DWORD PTR _p_szIndicatorName$[ebp]
  00009	89 4d fc	 mov	 DWORD PTR _this$1$[ebp], ecx
  0000c	57		 push	 edi
  0000d	85 f6		 test	 esi, esi
  0000f	0f 84 af 00 00
	00		 je	 $LN9@GetDefault

; 417  : 	if( !*p_szIndicatorName) return NULL;

  00015	80 3e 00	 cmp	 BYTE PTR [esi], 0
  00018	0f 84 a6 00 00
	00		 je	 $LN9@GetDefault

; 418  : 	if( EILT_USER_DEFAULT != p_eIndicatorListType && EILT_SITE_DEFAULT != p_eIndicatorListType) return NULL;

  0001e	8b 7d 08	 mov	 edi, DWORD PTR _p_eIndicatorListType$[ebp]
  00021	83 ff 02	 cmp	 edi, 2
  00024	74 14		 je	 SHORT $LN19@GetDefault
  00026	85 ff		 test	 edi, edi
  00028	0f 85 96 00 00
	00		 jne	 $LN9@GetDefault

; 423  : 	else											pTargetIndicatorList = m_unchangeableData.GetMainDefaultIndicatorList_Pointer();

  0002e	b9 00 00 00 00	 mov	 ecx, OFFSET ?m_unchangeableData@CIndicatorListImplementation@@1VCUnchangeableData@@A ; CIndicatorListImplementation::m_unchangeableData
  00033	e8 00 00 00 00	 call	 ?GetMainDefaultIndicatorList_Pointer@CUnchangeableData@@QAEPAVCDefaultIndicatorList@@XZ ; CUnchangeableData::GetMainDefaultIndicatorList_Pointer
  00038	eb 0a		 jmp	 SHORT $LN20@GetDefault
$LN19@GetDefault:

; 419  : 
; 420  : 	CBaseIndicatorList *pTargetIndicatorList = NULL;
; 421  : 	// 1. Select Target Indicator List
; 422  : 	if( EILT_USER_DEFAULT == p_eIndicatorListType)	pTargetIndicatorList = m_unchangeableData.GetUserDefaultIndiList();

  0003a	b9 00 00 00 00	 mov	 ecx, OFFSET ?m_unchangeableData@CIndicatorListImplementation@@1VCUnchangeableData@@A ; CIndicatorListImplementation::m_unchangeableData
  0003f	e8 00 00 00 00	 call	 ?GetUserDefaultIndiList@CUnchangeableData@@QBEPAVCUserIndicatorList@@XZ ; CUnchangeableData::GetUserDefaultIndiList
$LN20@GetDefault:

; 424  : 	// 2. Get Indicator Info from target or without defualt
; 425  : 	// (2009/9/2 - Seung-Won, Bae) Support Chart Mode. (for HTS/FX/WorldOn)
; 426  : 	CIndicatorInfo *pIndicatorInfo = pTargetIndicatorList->GetIndicatorInfo( p_szIndicatorName, m_eChartMode);

  00044	8b d8		 mov	 ebx, eax
  00046	8b 45 fc	 mov	 eax, DWORD PTR _this$1$[ebp]
  00049	8b cb		 mov	 ecx, ebx
  0004b	ff 70 60	 push	 DWORD PTR [eax+96]
  0004e	56		 push	 esi
  0004f	e8 00 00 00 00	 call	 ?GetIndicatorInfo@CBaseIndicatorList@@QAEPAVCIndicatorInfo@@PBDW4CHART_MODE@CChartInfo@@@Z ; CBaseIndicatorList::GetIndicatorInfo

; 427  : 	if( pIndicatorInfo) return pIndicatorInfo;

  00054	85 c0		 test	 eax, eax
  00056	75 6e		 jne	 SHORT $LN1@GetDefault

; 428  : 
; 429  : 	// (Without Default Get)
; 430  : 	if( EIIGT_WITHOUT_DEFAULT == p_nDefaultOption || EILT_SITE_DEFAULT == p_eIndicatorListType) return NULL;

  00058	39 45 10	 cmp	 DWORD PTR _p_nDefaultOption$[ebp], eax
  0005b	74 67		 je	 SHORT $LN9@GetDefault
  0005d	85 ff		 test	 edi, edi
  0005f	74 63		 je	 SHORT $LN9@GetDefault

; 431  : 
; 432  : 	// 3. Get Indicator Info with default
; 433  : 	// (With Default Get)
; 434  : 	CBaseIndicatorList *pDefaultIndicatorList = m_unchangeableData.GetMainDefaultIndicatorList_Pointer();

  00061	b9 00 00 00 00	 mov	 ecx, OFFSET ?m_unchangeableData@CIndicatorListImplementation@@1VCUnchangeableData@@A ; CIndicatorListImplementation::m_unchangeableData
  00066	e8 00 00 00 00	 call	 ?GetMainDefaultIndicatorList_Pointer@CUnchangeableData@@QAEPAVCDefaultIndicatorList@@XZ ; CUnchangeableData::GetMainDefaultIndicatorList_Pointer

; 435  : 	// (2009/9/2 - Seung-Won, Bae) Support Chart Mode. (for HTS/FX/WorldOn)
; 436  : 	pIndicatorInfo = pDefaultIndicatorList->GetIndicatorInfo( p_szIndicatorName, m_eChartMode);

  0006b	8b 4d fc	 mov	 ecx, DWORD PTR _this$1$[ebp]
  0006e	ff 71 60	 push	 DWORD PTR [ecx+96]
  00071	8b c8		 mov	 ecx, eax
  00073	56		 push	 esi
  00074	e8 00 00 00 00	 call	 ?GetIndicatorInfo@CBaseIndicatorList@@QAEPAVCIndicatorInfo@@PBDW4CHART_MODE@CChartInfo@@@Z ; CBaseIndicatorList::GetIndicatorInfo
  00079	8b f8		 mov	 edi, eax

; 437  : 	if( !pIndicatorInfo) return NULL;

  0007b	85 ff		 test	 edi, edi
  0007d	74 45		 je	 SHORT $LN9@GetDefault

; 438  : 	if( EIIGT_WITH_DEFAULT_GET_AND_SET != p_nDefaultOption) return pIndicatorInfo;

  0007f	83 7d 10 02	 cmp	 DWORD PTR _p_nDefaultOption$[ebp], 2
  00083	75 34		 jne	 SHORT $LN15@GetDefault

; 439  : 
; 440  : 	// 4. Set Indicator Info with default
; 441  : 	//	(With MapDefault Get and Set)
; 442  : 	if( pTargetIndicatorList)

  00085	85 db		 test	 ebx, ebx
  00087	74 30		 je	 SHORT $LN15@GetDefault

; 443  : 	{
; 444  : 		CIndicatorInfo *pIndicatorInfo2 = CIndicatorInfo::Make( pIndicatorInfo);

  00089	57		 push	 edi
  0008a	e8 00 00 00 00	 call	 ?Make@CIndicatorInfo@@SAPAV1@PBV1@@Z ; CIndicatorInfo::Make
  0008f	8b f0		 mov	 esi, eax
  00091	83 c4 04	 add	 esp, 4

; 445  : 		if( pIndicatorInfo2)

  00094	85 f6		 test	 esi, esi
  00096	74 21		 je	 SHORT $LN15@GetDefault

; 446  : 		{
; 447  : 			if( !pTargetIndicatorList->AddIndicatorInfo( pIndicatorInfo2)) delete pIndicatorInfo2;

  00098	56		 push	 esi
  00099	8b cb		 mov	 ecx, ebx
  0009b	e8 00 00 00 00	 call	 ?AddIndicatorInfo@CBaseIndicatorList@@QAE_NPAVCIndicatorInfo@@@Z ; CBaseIndicatorList::AddIndicatorInfo
  000a0	84 c0		 test	 al, al
  000a2	75 13		 jne	 SHORT $LN14@GetDefault
  000a4	8b 06		 mov	 eax, DWORD PTR [esi]
  000a6	8b ce		 mov	 ecx, esi
  000a8	6a 01		 push	 1
  000aa	ff 10		 call	 DWORD PTR [eax]

; 449  : 		}
; 450  : 	}
; 451  : 
; 452  : 	return pIndicatorInfo;
; 453  : }

  000ac	8b c7		 mov	 eax, edi
  000ae	5f		 pop	 edi
  000af	5e		 pop	 esi
  000b0	5b		 pop	 ebx
  000b1	8b e5		 mov	 esp, ebp
  000b3	5d		 pop	 ebp
  000b4	c2 0c 00	 ret	 12			; 0000000cH
$LN14@GetDefault:

; 448  : 			else pIndicatorInfo = pIndicatorInfo2;

  000b7	8b fe		 mov	 edi, esi
$LN15@GetDefault:

; 449  : 		}
; 450  : 	}
; 451  : 
; 452  : 	return pIndicatorInfo;
; 453  : }

  000b9	8b c7		 mov	 eax, edi
  000bb	5f		 pop	 edi
  000bc	5e		 pop	 esi
  000bd	5b		 pop	 ebx
  000be	8b e5		 mov	 esp, ebp
  000c0	5d		 pop	 ebp
  000c1	c2 0c 00	 ret	 12			; 0000000cH
$LN9@GetDefault:

; 428  : 
; 429  : 	// (Without Default Get)
; 430  : 	if( EIIGT_WITHOUT_DEFAULT == p_nDefaultOption || EILT_SITE_DEFAULT == p_eIndicatorListType) return NULL;

  000c4	33 c0		 xor	 eax, eax
$LN1@GetDefault:
  000c6	5f		 pop	 edi

; 449  : 		}
; 450  : 	}
; 451  : 
; 452  : 	return pIndicatorInfo;
; 453  : }

  000c7	5e		 pop	 esi
  000c8	5b		 pop	 ebx
  000c9	8b e5		 mov	 esp, ebp
  000cb	5d		 pop	 ebp
  000cc	c2 0c 00	 ret	 12			; 0000000cH
?GetDefaultIndicatorInfo@CIndicatorListImplementation@@QAEPAVCIndicatorInfo@@W4EIndicatorListType@@PBDW4EIndicatorInfoGettingType@@@Z ENDP ; CIndicatorListImplementation::GetDefaultIndicatorInfo
_TEXT	ENDS
; Function compile flags: /Ogtp
; File D:\git\src\IBK\IBK_DRFN\ProjSrc\SrcChartEx\ChartOCX\IndicatorCondition\IndicatorListImplementation.cpp
;	COMDAT ?GetNextIndicatorInfo@CIndicatorListImplementation@@QAEXW4EIndicatorListType@@PBDPAPAU__POSITION@@AAPAVCIndicatorInfo@@@Z
_TEXT	SEGMENT
_p_eIndicatorListType$ = 8				; size = 4
_p_szIndicatorName$ = 12				; size = 4
_p_ppsnIndicator$ = 16					; size = 4
_p_pPrevIndicatorInfo$ = 20				; size = 4
?GetNextIndicatorInfo@CIndicatorListImplementation@@QAEXW4EIndicatorListType@@PBDPAPAU__POSITION@@AAPAVCIndicatorInfo@@@Z PROC ; CIndicatorListImplementation::GetNextIndicatorInfo, COMDAT
; _this$ = ecx

; 387  : {

  00000	55		 push	 ebp
  00001	8b ec		 mov	 ebp, esp

; 388  : 	if( !p_ppsnIndicator)			p_pPrevIndicatorInfo = NULL;

  00003	8b 55 10	 mov	 edx, DWORD PTR _p_ppsnIndicator$[ebp]
  00006	8b 45 14	 mov	 eax, DWORD PTR _p_pPrevIndicatorInfo$[ebp]
  00009	57		 push	 edi
  0000a	8b f9		 mov	 edi, ecx
  0000c	85 d2		 test	 edx, edx
  0000e	75 09		 jne	 SHORT $LN10@GetNextInd
  00010	89 10		 mov	 DWORD PTR [eax], edx

; 390  : 	{
; 391  : 		*p_ppsnIndicator = NULL;

  00012	89 12		 mov	 DWORD PTR [edx], edx
  00014	5f		 pop	 edi

; 410  : }

  00015	5d		 pop	 ebp
  00016	c2 10 00	 ret	 16			; 00000010H
$LN10@GetNextInd:

; 389  : 	if( !p_pPrevIndicatorInfo)

  00019	83 38 00	 cmp	 DWORD PTR [eax], 0
  0001c	75 0b		 jne	 SHORT $LN3@GetNextInd

; 390  : 	{
; 391  : 		*p_ppsnIndicator = NULL;

  0001e	c7 02 00 00 00
	00		 mov	 DWORD PTR [edx], 0
  00024	5f		 pop	 edi

; 410  : }

  00025	5d		 pop	 ebp
  00026	c2 10 00	 ret	 16			; 00000010H
$LN3@GetNextInd:
  00029	56		 push	 esi

; 392  : 		return;
; 393  : 	}
; 394  : 
; 395  : 	EIndicatorListType eIndicatorListType = ( EIndicatorListType)-1;
; 396  : 	if( p_szIndicatorName) if( *p_szIndicatorName) eIndicatorListType = p_eIndicatorListType;
; 397  : 	if( EILT_USER != p_eIndicatorListType && EILT_MAP_DEFAULT != p_eIndicatorListType)

  0002a	8b 75 08	 mov	 esi, DWORD PTR _p_eIndicatorListType$[ebp]
  0002d	83 fe 03	 cmp	 esi, 3
  00030	74 17		 je	 SHORT $LN6@GetNextInd
  00032	83 fe 01	 cmp	 esi, 1
  00035	74 12		 je	 SHORT $LN6@GetNextInd

; 398  : 	{
; 399  : 		*p_ppsnIndicator = NULL;

  00037	5e		 pop	 esi
  00038	c7 02 00 00 00
	00		 mov	 DWORD PTR [edx], 0

; 400  : 		p_pPrevIndicatorInfo = NULL;

  0003e	c7 00 00 00 00
	00		 mov	 DWORD PTR [eax], 0
  00044	5f		 pop	 edi

; 410  : }

  00045	5d		 pop	 ebp
  00046	c2 10 00	 ret	 16			; 00000010H
$LN6@GetNextInd:

; 401  : 		return;
; 402  : 	}
; 403  : 
; 404  : 	CBaseIndicatorList *pIndicatorList = NULL;
; 405  : 	// 1. Select Target Indicator List
; 406  : 	if( EILT_USER == p_eIndicatorListType)	pIndicatorList = &m_userIndiList;
; 407  : 	else									pIndicatorList = &m_mapDefaultIndiList;
; 408  : 	// 2. Get Indicator Info from target or without defualt
; 409  : 	pIndicatorList->GetNextIndicatorInfo( p_szIndicatorName, p_ppsnIndicator, p_pPrevIndicatorInfo);

  00049	50		 push	 eax
  0004a	83 fe 03	 cmp	 esi, 3
  0004d	b8 10 00 00 00	 mov	 eax, 16			; 00000010H
  00052	52		 push	 edx
  00053	ff 75 0c	 push	 DWORD PTR _p_szIndicatorName$[ebp]
  00056	b9 38 00 00 00	 mov	 ecx, 56			; 00000038H
  0005b	0f 45 c8	 cmovne	 ecx, eax
  0005e	03 cf		 add	 ecx, edi
  00060	e8 00 00 00 00	 call	 ?GetNextIndicatorInfo@CBaseIndicatorList@@QBEXPBDPAPAU__POSITION@@AAPAVCIndicatorInfo@@@Z ; CBaseIndicatorList::GetNextIndicatorInfo
  00065	5e		 pop	 esi
  00066	5f		 pop	 edi

; 410  : }

  00067	5d		 pop	 ebp
  00068	c2 10 00	 ret	 16			; 00000010H
?GetNextIndicatorInfo@CIndicatorListImplementation@@QAEXW4EIndicatorListType@@PBDPAPAU__POSITION@@AAPAVCIndicatorInfo@@@Z ENDP ; CIndicatorListImplementation::GetNextIndicatorInfo
_TEXT	ENDS
; Function compile flags: /Ogtp
; File D:\git\src\IBK\IBK_DRFN\ProjSrc\SrcChartEx\ChartOCX\IndicatorCondition\IndicatorListImplementation.cpp
;	COMDAT ?GetFirstIndicatorInfo@CIndicatorListImplementation@@QAEPAVCIndicatorInfo@@W4EIndicatorListType@@PBDPAPAU__POSITION@@@Z
_TEXT	SEGMENT
_p_eIndicatorListType$ = 8				; size = 4
_p_szIndicatorName$ = 12				; size = 4
_p_ppsnIndicator$ = 16					; size = 4
?GetFirstIndicatorInfo@CIndicatorListImplementation@@QAEPAVCIndicatorInfo@@W4EIndicatorListType@@PBDPAPAU__POSITION@@@Z PROC ; CIndicatorListImplementation::GetFirstIndicatorInfo, COMDAT
; _this$ = ecx

; 368  : {

  00000	55		 push	 ebp
  00001	8b ec		 mov	 ebp, esp

; 369  : 	if( p_ppsnIndicator) *p_ppsnIndicator = NULL;

  00003	8b 45 10	 mov	 eax, DWORD PTR _p_ppsnIndicator$[ebp]
  00006	56		 push	 esi
  00007	57		 push	 edi
  00008	8b f9		 mov	 edi, ecx
  0000a	85 c0		 test	 eax, eax
  0000c	74 06		 je	 SHORT $LN2@GetFirstIn
  0000e	c7 00 00 00 00
	00		 mov	 DWORD PTR [eax], 0
$LN2@GetFirstIn:

; 370  : 
; 371  : 	if( !p_szIndicatorName) return NULL;

  00014	8b 55 0c	 mov	 edx, DWORD PTR _p_szIndicatorName$[ebp]
  00017	85 d2		 test	 edx, edx
  00019	74 34		 je	 SHORT $LN9@GetFirstIn

; 372  : 	if( !*p_szIndicatorName) return NULL;

  0001b	80 3a 00	 cmp	 BYTE PTR [edx], 0
  0001e	74 2f		 je	 SHORT $LN9@GetFirstIn

; 373  : 	if( EILT_USER != p_eIndicatorListType && EILT_MAP_DEFAULT != p_eIndicatorListType) return NULL;

  00020	8b 75 08	 mov	 esi, DWORD PTR _p_eIndicatorListType$[ebp]
  00023	83 fe 03	 cmp	 esi, 3
  00026	74 05		 je	 SHORT $LN5@GetFirstIn
  00028	83 fe 01	 cmp	 esi, 1
  0002b	75 22		 jne	 SHORT $LN9@GetFirstIn
$LN5@GetFirstIn:

; 374  : 
; 375  : 	CBaseIndicatorList *pTargetIndicatorList = NULL;
; 376  : 	// 1. Select Target Indicator List
; 377  : 	if( EILT_USER == p_eIndicatorListType)	pTargetIndicatorList = &m_userIndiList;
; 378  : 	else									pTargetIndicatorList = &m_mapDefaultIndiList;
; 379  : 	// 2. Get Indicator Info from target or without defualt
; 380  : 	// (2009/9/2 - Seung-Won, Bae) Support Chart Mode. (for HTS/FX/WorldOn)
; 381  : 	return pTargetIndicatorList->GetFirstIndicatorInfo( p_szIndicatorName, p_ppsnIndicator, m_eChartMode);

  0002d	ff 77 60	 push	 DWORD PTR [edi+96]
  00030	83 fe 03	 cmp	 esi, 3
  00033	b9 38 00 00 00	 mov	 ecx, 56			; 00000038H
  00038	50		 push	 eax
  00039	b8 10 00 00 00	 mov	 eax, 16			; 00000010H
  0003e	0f 45 c8	 cmovne	 ecx, eax
  00041	52		 push	 edx
  00042	03 cf		 add	 ecx, edi
  00044	e8 00 00 00 00	 call	 ?GetFirstIndicatorInfo@CBaseIndicatorList@@QBEPAVCIndicatorInfo@@PBDPAPAU__POSITION@@W4CHART_MODE@CChartInfo@@@Z ; CBaseIndicatorList::GetFirstIndicatorInfo
  00049	5f		 pop	 edi

; 382  : }

  0004a	5e		 pop	 esi
  0004b	5d		 pop	 ebp
  0004c	c2 0c 00	 ret	 12			; 0000000cH
$LN9@GetFirstIn:
  0004f	5f		 pop	 edi

; 373  : 	if( EILT_USER != p_eIndicatorListType && EILT_MAP_DEFAULT != p_eIndicatorListType) return NULL;

  00050	33 c0		 xor	 eax, eax

; 382  : }

  00052	5e		 pop	 esi
  00053	5d		 pop	 ebp
  00054	c2 0c 00	 ret	 12			; 0000000cH
?GetFirstIndicatorInfo@CIndicatorListImplementation@@QAEPAVCIndicatorInfo@@W4EIndicatorListType@@PBDPAPAU__POSITION@@@Z ENDP ; CIndicatorListImplementation::GetFirstIndicatorInfo
_TEXT	ENDS
; Function compile flags: /Ogtp
; File D:\git\src\IBK\IBK_DRFN\ProjSrc\SrcChartEx\ChartOCX\IndicatorCondition\IndicatorListImplementation.cpp
;	COMDAT ?CreateGraphIndicatorInfo@CIndicatorListImplementation@@QAEPAVCIndicatorInfo@@PBD@Z
_TEXT	SEGMENT
_pIndicatorInfo$1$ = -20				; size = 4
_strGraphName$ = -16					; size = 4
__$EHRec$ = -12						; size = 12
_pGraphData$1$ = 8					; size = 4
_p_szIndicatorName$ = 8					; size = 4
?CreateGraphIndicatorInfo@CIndicatorListImplementation@@QAEPAVCIndicatorInfo@@PBD@Z PROC ; CIndicatorListImplementation::CreateGraphIndicatorInfo, COMDAT
; _this$ = ecx

; 305  : {

  00000	55		 push	 ebp
  00001	8b ec		 mov	 ebp, esp
  00003	6a ff		 push	 -1
  00005	68 00 00 00 00	 push	 __ehhandler$?CreateGraphIndicatorInfo@CIndicatorListImplementation@@QAEPAVCIndicatorInfo@@PBD@Z
  0000a	64 a1 00 00 00
	00		 mov	 eax, DWORD PTR fs:0
  00010	50		 push	 eax
  00011	83 ec 08	 sub	 esp, 8
  00014	53		 push	 ebx
  00015	56		 push	 esi
  00016	57		 push	 edi
  00017	a1 00 00 00 00	 mov	 eax, DWORD PTR ___security_cookie
  0001c	33 c5		 xor	 eax, ebp
  0001e	50		 push	 eax
  0001f	8d 45 f4	 lea	 eax, DWORD PTR __$EHRec$[ebp]
  00022	64 a3 00 00 00
	00		 mov	 DWORD PTR fs:0, eax
  00028	8b f9		 mov	 edi, ecx

; 306  : 	if( !p_szIndicatorName) return NULL;

  0002a	8b 75 08	 mov	 esi, DWORD PTR _p_szIndicatorName$[ebp]
  0002d	85 f6		 test	 esi, esi
  0002f	0f 84 83 01 00
	00		 je	 $LN28@CreateGrap

; 307  : 	if( !*p_szIndicatorName) return NULL;

  00035	80 3e 00	 cmp	 BYTE PTR [esi], 0
  00038	0f 84 7a 01 00
	00		 je	 $LN28@CreateGrap

; 308  : 
; 309  : 	// 3. Get Indicator Info with default
; 310  : 	CIndicatorInfo *pIndicatorInfo = NULL;
; 311  : 	//	Get Graph Info in MapDefault Indicator Info (Option Order)
; 312  : 	//		1. Without Indicator Info, With Indicator Info				~ p_szIndicatorName
; 313  : 	if( m_bUseUserDefaultIndicator)

  0003e	83 7f 08 00	 cmp	 DWORD PTR [edi+8], 0
  00042	74 22		 je	 SHORT $LN27@CreateGrap

; 314  : 	{
; 315  : 		CBaseIndicatorList *pDefaultIndicatorList = m_unchangeableData.GetUserDefaultIndiList();

  00044	b9 00 00 00 00	 mov	 ecx, OFFSET ?m_unchangeableData@CIndicatorListImplementation@@1VCUnchangeableData@@A ; CIndicatorListImplementation::m_unchangeableData
  00049	e8 00 00 00 00	 call	 ?GetUserDefaultIndiList@CUnchangeableData@@QBEPAVCUserIndicatorList@@XZ ; CUnchangeableData::GetUserDefaultIndiList

; 316  : 		// (2009/9/2 - Seung-Won, Bae) Support Chart Mode. (for HTS/FX/WorldOn)
; 317  : 		if( pDefaultIndicatorList) pIndicatorInfo = pDefaultIndicatorList->GetIndicatorInfo( p_szIndicatorName, m_eChartMode);

  0004e	85 c0		 test	 eax, eax
  00050	74 14		 je	 SHORT $LN27@CreateGrap
  00052	ff 77 60	 push	 DWORD PTR [edi+96]
  00055	8b c8		 mov	 ecx, eax
  00057	56		 push	 esi
  00058	e8 00 00 00 00	 call	 ?GetIndicatorInfo@CBaseIndicatorList@@QAEPAVCIndicatorInfo@@PBDW4CHART_MODE@CChartInfo@@@Z ; CBaseIndicatorList::GetIndicatorInfo
  0005d	8b d8		 mov	 ebx, eax
  0005f	89 5d ec	 mov	 DWORD PTR _pIndicatorInfo$1$[ebp], ebx

; 318  : 	}
; 319  : 	//		2. in With Indicator Info : With SiteDefault Get			~ EIndicatorInfoGettingType
; 320  : 	// (2009/9/2 - Seung-Won, Bae) Support Chart Mode. (for HTS/FX/WorldOn)
; 321  : 	if( !pIndicatorInfo) pIndicatorInfo = m_unchangeableData.GetMainDefaultIndicatorList().GetIndicatorInfo( p_szIndicatorName, m_eChartMode);

  00062	85 db		 test	 ebx, ebx
  00064	75 1a		 jne	 SHORT $LN8@CreateGrap
$LN27@CreateGrap:
  00066	ff 77 60	 push	 DWORD PTR [edi+96]
  00069	b9 00 00 00 00	 mov	 ecx, OFFSET ?m_unchangeableData@CIndicatorListImplementation@@1VCUnchangeableData@@A ; CIndicatorListImplementation::m_unchangeableData
  0006e	56		 push	 esi
  0006f	e8 00 00 00 00	 call	 ?GetMainDefaultIndicatorList@CUnchangeableData@@QAEAAVCDefaultIndicatorList@@XZ ; CUnchangeableData::GetMainDefaultIndicatorList
  00074	8b c8		 mov	 ecx, eax
  00076	e8 00 00 00 00	 call	 ?GetIndicatorInfo@CBaseIndicatorList@@QAEPAVCIndicatorInfo@@PBDW4CHART_MODE@CChartInfo@@@Z ; CBaseIndicatorList::GetIndicatorInfo
  0007b	8b d8		 mov	 ebx, eax
  0007d	89 45 ec	 mov	 DWORD PTR _pIndicatorInfo$1$[ebp], eax
$LN8@CreateGrap:

; 322  : 
; 323  : 	// (2006/12/10 - Seung-Won, Bae) Make new Graph Name
; 324  : 	CString strGraphName( p_szIndicatorName);

  00080	56		 push	 esi
  00081	8d 4d f0	 lea	 ecx, DWORD PTR _strGraphName$[ebp]
  00084	ff 15 00 00 00
	00		 call	 DWORD PTR __imp_??0?$CStringT@DV?$StrTraitMFC_DLL@DV?$ChTraitsCRT@D@ATL@@@@@ATL@@QAE@PBD@Z
  0008a	c7 45 fc 00 00
	00 00		 mov	 DWORD PTR __$EHRec$[ebp+8], 0

; 325  : 	CIndicatorInfo *pIndicatorInfo2 = pIndicatorInfo;
; 326  : 	while( pIndicatorInfo2 )

  00091	85 db		 test	 ebx, ebx
  00093	74 3a		 je	 SHORT $LN26@CreateGrap
  00095	8b 1d 00 00 00
	00		 mov	 ebx, DWORD PTR __imp_?Format@?$CStringT@DV?$StrTraitMFC_DLL@DV?$ChTraitsCRT@D@ATL@@@@@ATL@@QAAXPBDZZ
  0009b	0f 1f 44 00 00	 npad	 5
$LL2@CreateGrap:

; 327  : 	{
; 328  : 		// (2009/9/2 - Seung-Won, Bae) Support Chart Mode. (for HTS/FX/WorldOn)
; 329  : 		pIndicatorInfo2 = m_userIndiList.GetIndicatorInfo( strGraphName, m_eChartMode);

  000a0	ff 77 60	 push	 DWORD PTR [edi+96]
  000a3	8d 4f 38	 lea	 ecx, DWORD PTR [edi+56]
  000a6	ff 75 f0	 push	 DWORD PTR _strGraphName$[ebp]
  000a9	e8 00 00 00 00	 call	 ?GetIndicatorInfo@CBaseIndicatorList@@QAEPAVCIndicatorInfo@@PBDW4CHART_MODE@CChartInfo@@@Z ; CBaseIndicatorList::GetIndicatorInfo

; 330  : 		if( pIndicatorInfo2 ) strGraphName.Format( "#%04X", rand());

  000ae	85 c0		 test	 eax, eax
  000b0	74 17		 je	 SHORT $LN33@CreateGrap
  000b2	ff 15 00 00 00
	00		 call	 DWORD PTR __imp__rand
  000b8	50		 push	 eax
  000b9	8d 45 f0	 lea	 eax, DWORD PTR _strGraphName$[ebp]
  000bc	68 00 00 00 00	 push	 OFFSET ??_C@_05GHAPOLAB@?$CD?$CF04X@
  000c1	50		 push	 eax
  000c2	ff d3		 call	 ebx
  000c4	83 c4 0c	 add	 esp, 12			; 0000000cH
  000c7	eb d7		 jmp	 SHORT $LL2@CreateGrap
$LN33@CreateGrap:
  000c9	8b 75 08	 mov	 esi, DWORD PTR _p_szIndicatorName$[ebp]
  000cc	8b 5d ec	 mov	 ebx, DWORD PTR _pIndicatorInfo$1$[ebp]
$LN26@CreateGrap:

; 331  : 	}
; 332  : 
; 333  : 	// 4. Set Indicator Info with default
; 334  : 	//	With MapDefault Get and Set
; 335  : 	pIndicatorInfo = CIndicatorInfo::Make( pIndicatorInfo);

  000cf	53		 push	 ebx
  000d0	e8 00 00 00 00	 call	 ?Make@CIndicatorInfo@@SAPAV1@PBV1@@Z ; CIndicatorInfo::Make
  000d5	8b d8		 mov	 ebx, eax
  000d7	83 c4 04	 add	 esp, 4

; 336  : 	if( pIndicatorInfo)

  000da	85 db		 test	 ebx, ebx
  000dc	0f 84 b7 00 00
	00		 je	 $LN15@CreateGrap

; 337  : 	{
; 338  : 		CGraphData *pGraphData = pIndicatorInfo->GetGraphData_PointerType();

  000e2	8b cb		 mov	 ecx, ebx
  000e4	e8 00 00 00 00	 call	 ?GetGraphData_PointerType@CIndicatorInfo@@QAEPAVCGraphData@@XZ ; CIndicatorInfo::GetGraphData_PointerType
  000e9	89 45 08	 mov	 DWORD PTR _pGraphData$1$[ebp], eax

; 339  : 		if( pGraphData) ( ( CGraphDataBase *)pGraphData)->SetGraphName( strGraphName);

  000ec	85 c0		 test	 eax, eax
  000ee	74 0b		 je	 SHORT $LN11@CreateGrap
  000f0	8b 10		 mov	 edx, DWORD PTR [eax]
  000f2	8d 4d f0	 lea	 ecx, DWORD PTR _strGraphName$[ebp]
  000f5	51		 push	 ecx
  000f6	8b c8		 mov	 ecx, eax
  000f8	ff 52 04	 call	 DWORD PTR [edx+4]
$LN11@CreateGrap:

; 340  : 		if( !m_userIndiList.AddIndicatorInfo( pIndicatorInfo))

  000fb	53		 push	 ebx
  000fc	8d 4f 38	 lea	 ecx, DWORD PTR [edi+56]
  000ff	e8 00 00 00 00	 call	 ?AddIndicatorInfo@CBaseIndicatorList@@QAE_NPAVCIndicatorInfo@@@Z ; CBaseIndicatorList::AddIndicatorInfo
  00104	84 c0		 test	 al, al
  00106	75 29		 jne	 SHORT $LN12@CreateGrap

; 341  : 		{
; 342  : 			delete pIndicatorInfo;

  00108	8b 03		 mov	 eax, DWORD PTR [ebx]
  0010a	8b cb		 mov	 ecx, ebx
  0010c	6a 01		 push	 1
  0010e	ff 10		 call	 DWORD PTR [eax]

; 357  : 				}
; 358  : 			}
; 359  : 		}
; 360  : 	}
; 361  : 
; 362  : 	return pIndicatorInfo;

  00110	8d 4d f0	 lea	 ecx, DWORD PTR _strGraphName$[ebp]
  00113	33 db		 xor	 ebx, ebx
  00115	ff 15 00 00 00
	00		 call	 DWORD PTR __imp_??1?$CStringT@DV?$StrTraitMFC_DLL@DV?$ChTraitsCRT@D@ATL@@@@@ATL@@QAE@XZ
  0011b	8b c3		 mov	 eax, ebx

; 363  : }

  0011d	8b 4d f4	 mov	 ecx, DWORD PTR __$EHRec$[ebp]
  00120	64 89 0d 00 00
	00 00		 mov	 DWORD PTR fs:0, ecx
  00127	59		 pop	 ecx
  00128	5f		 pop	 edi
  00129	5e		 pop	 esi
  0012a	5b		 pop	 ebx
  0012b	8b e5		 mov	 esp, ebp
  0012d	5d		 pop	 ebp
  0012e	c2 04 00	 ret	 4
$LN12@CreateGrap:

; 343  : 			pIndicatorInfo = NULL;
; 344  : 		}
; 345  : 		else
; 346  : 		{
; 347  : 			// (2009/9/12 - Seung-Won, Bae) for WorldOn's OHLC
; 348  : 			if( CChartInfo::WORLD_ON == m_eChartMode)

  00131	83 7f 60 03	 cmp	 DWORD PTR [edi+96], 3
  00135	75 62		 jne	 SHORT $LN15@CreateGrap

; 349  : 			{
; 350  : 				if( !strcmp( p_szIndicatorName, _MTEXT( C2_PRICE_CHART)))

  00137	a1 54 00 00 00	 mov	 eax, DWORD PTR ?g_iMetaTable@@3VIMetaTable@@A+84
  0013c	8b 80 28 03 00
	00		 mov	 eax, DWORD PTR [eax+808]
$LL29@CreateGrap:
  00142	8a 0e		 mov	 cl, BYTE PTR [esi]
  00144	3a 08		 cmp	 cl, BYTE PTR [eax]
  00146	75 1a		 jne	 SHORT $LN30@CreateGrap
  00148	84 c9		 test	 cl, cl
  0014a	74 12		 je	 SHORT $LN31@CreateGrap
  0014c	8a 4e 01	 mov	 cl, BYTE PTR [esi+1]
  0014f	3a 48 01	 cmp	 cl, BYTE PTR [eax+1]
  00152	75 0e		 jne	 SHORT $LN30@CreateGrap
  00154	83 c6 02	 add	 esi, 2
  00157	83 c0 02	 add	 eax, 2
  0015a	84 c9		 test	 cl, cl
  0015c	75 e4		 jne	 SHORT $LL29@CreateGrap
$LN31@CreateGrap:
  0015e	33 c0		 xor	 eax, eax
  00160	eb 05		 jmp	 SHORT $LN32@CreateGrap
$LN30@CreateGrap:
  00162	1b c0		 sbb	 eax, eax
  00164	83 c8 01	 or	 eax, 1
$LN32@CreateGrap:
  00167	85 c0		 test	 eax, eax
  00169	75 2e		 jne	 SHORT $LN15@CreateGrap

; 351  : 				{
; 352  : 					CGraphDataDrawingData &graphDataDrawingData = pGraphData->GetGraphDataDrawingData();

  0016b	8b 4d 08	 mov	 ecx, DWORD PTR _pGraphData$1$[ebp]
  0016e	e8 00 00 00 00	 call	 ?GetGraphDataDrawingData@CGraphData@@QAEAAVCGraphDataDrawingData@@XZ ; CGraphData::GetGraphDataDrawingData
  00173	8b f0		 mov	 esi, eax

; 353  : 					graphDataDrawingData.SetDoesCalcRiseFallRate_HighCur( false);

  00175	6a 00		 push	 0
  00177	8b ce		 mov	 ecx, esi
  00179	e8 00 00 00 00	 call	 ?SetDoesCalcRiseFallRate_HighCur@CGraphDataDrawingData@@QAEX_N@Z ; CGraphDataDrawingData::SetDoesCalcRiseFallRate_HighCur

; 354  : 					graphDataDrawingData.SetDoesCalcRiseFallRate_LowCur( false);

  0017e	6a 00		 push	 0
  00180	8b ce		 mov	 ecx, esi
  00182	e8 00 00 00 00	 call	 ?SetDoesCalcRiseFallRate_LowCur@CGraphDataDrawingData@@QAEX_N@Z ; CGraphDataDrawingData::SetDoesCalcRiseFallRate_LowCur

; 355  : 					graphDataDrawingData.SetDoesCalcRiseFallRate_LowHigh( false);

  00187	6a 00		 push	 0
  00189	8b ce		 mov	 ecx, esi
  0018b	e8 00 00 00 00	 call	 ?SetDoesCalcRiseFallRate_LowHigh@CGraphDataDrawingData@@QAEX_N@Z ; CGraphDataDrawingData::SetDoesCalcRiseFallRate_LowHigh

; 356  : 					graphDataDrawingData.SetShowOHLC( TRUE);

  00190	6a 01		 push	 1
  00192	8b ce		 mov	 ecx, esi
  00194	e8 00 00 00 00	 call	 ?SetShowOHLC@CGraphDataDrawingData@@QAEXH@Z ; CGraphDataDrawingData::SetShowOHLC
$LN15@CreateGrap:

; 357  : 				}
; 358  : 			}
; 359  : 		}
; 360  : 	}
; 361  : 
; 362  : 	return pIndicatorInfo;

  00199	8d 4d f0	 lea	 ecx, DWORD PTR _strGraphName$[ebp]
  0019c	ff 15 00 00 00
	00		 call	 DWORD PTR __imp_??1?$CStringT@DV?$StrTraitMFC_DLL@DV?$ChTraitsCRT@D@ATL@@@@@ATL@@QAE@XZ
  001a2	8b c3		 mov	 eax, ebx

; 363  : }

  001a4	8b 4d f4	 mov	 ecx, DWORD PTR __$EHRec$[ebp]
  001a7	64 89 0d 00 00
	00 00		 mov	 DWORD PTR fs:0, ecx
  001ae	59		 pop	 ecx
  001af	5f		 pop	 edi
  001b0	5e		 pop	 esi
  001b1	5b		 pop	 ebx
  001b2	8b e5		 mov	 esp, ebp
  001b4	5d		 pop	 ebp
  001b5	c2 04 00	 ret	 4
$LN28@CreateGrap:

; 307  : 	if( !*p_szIndicatorName) return NULL;

  001b8	33 c0		 xor	 eax, eax

; 363  : }

  001ba	8b 4d f4	 mov	 ecx, DWORD PTR __$EHRec$[ebp]
  001bd	64 89 0d 00 00
	00 00		 mov	 DWORD PTR fs:0, ecx
  001c4	59		 pop	 ecx
  001c5	5f		 pop	 edi
  001c6	5e		 pop	 esi
  001c7	5b		 pop	 ebx
  001c8	8b e5		 mov	 esp, ebp
  001ca	5d		 pop	 ebp
  001cb	c2 04 00	 ret	 4
_TEXT	ENDS
;	COMDAT text$x
text$x	SEGMENT
__unwindfunclet$?CreateGraphIndicatorInfo@CIndicatorListImplementation@@QAEPAVCIndicatorInfo@@PBD@Z$0:
  00000	8d 4d f0	 lea	 ecx, DWORD PTR _strGraphName$[ebp]
  00003	ff 25 00 00 00
	00		 jmp	 DWORD PTR __imp_??1?$CStringT@DV?$StrTraitMFC_DLL@DV?$ChTraitsCRT@D@ATL@@@@@ATL@@QAE@XZ
  00009	cc		 int	 3
  0000a	cc		 int	 3
  0000b	cc		 int	 3
  0000c	cc		 int	 3
  0000d	cc		 int	 3
__ehhandler$?CreateGraphIndicatorInfo@CIndicatorListImplementation@@QAEPAVCIndicatorInfo@@PBD@Z:
  0000e	90		 npad	 1
  0000f	90		 npad	 1
  00010	8b 54 24 08	 mov	 edx, DWORD PTR [esp+8]
  00014	8d 42 0c	 lea	 eax, DWORD PTR [edx+12]
  00017	8b 4a e8	 mov	 ecx, DWORD PTR [edx-24]
  0001a	33 c8		 xor	 ecx, eax
  0001c	e8 00 00 00 00	 call	 @__security_check_cookie@4
  00021	b8 00 00 00 00	 mov	 eax, OFFSET __ehfuncinfo$?CreateGraphIndicatorInfo@CIndicatorListImplementation@@QAEPAVCIndicatorInfo@@PBD@Z
  00026	e9 00 00 00 00	 jmp	 ___CxxFrameHandler3
text$x	ENDS
?CreateGraphIndicatorInfo@CIndicatorListImplementation@@QAEPAVCIndicatorInfo@@PBD@Z ENDP ; CIndicatorListImplementation::CreateGraphIndicatorInfo
; Function compile flags: /Ogtp
; File D:\git\src\IBK\IBK_DRFN\ProjSrc\SrcChartEx\ChartOCX\IndicatorCondition\IndicatorListImplementation.cpp
;	COMDAT ?GetGraphIndicatorInfo@CIndicatorListImplementation@@QAEPAVCIndicatorInfo@@W4EIndicatorListType@@PBD1W4EIndicatorInfoGettingType@@@Z
_TEXT	SEGMENT
_this$1$ = -16						; size = 4
__$EHRec$ = -12						; size = 12
_p_eIndicatorListType$ = 8				; size = 4
tv299 = 12						; size = 4
_p_szGraphName$ = 12					; size = 4
$T2 = 16						; size = 4
_p_szIndicatorName$ = 16				; size = 4
_pGraphDataBase$1$ = 20					; size = 4
_p_nDefaultOption$ = 20					; size = 4
?GetGraphIndicatorInfo@CIndicatorListImplementation@@QAEPAVCIndicatorInfo@@W4EIndicatorListType@@PBD1W4EIndicatorInfoGettingType@@@Z PROC ; CIndicatorListImplementation::GetGraphIndicatorInfo, COMDAT
; _this$ = ecx

; 238  : {

  00000	55		 push	 ebp
  00001	8b ec		 mov	 ebp, esp
  00003	6a ff		 push	 -1
  00005	68 00 00 00 00	 push	 __ehhandler$?GetGraphIndicatorInfo@CIndicatorListImplementation@@QAEPAVCIndicatorInfo@@W4EIndicatorListType@@PBD1W4EIndicatorInfoGettingType@@@Z
  0000a	64 a1 00 00 00
	00		 mov	 eax, DWORD PTR fs:0
  00010	50		 push	 eax
  00011	51		 push	 ecx
  00012	53		 push	 ebx
  00013	56		 push	 esi
  00014	57		 push	 edi
  00015	a1 00 00 00 00	 mov	 eax, DWORD PTR ___security_cookie
  0001a	33 c5		 xor	 eax, ebp
  0001c	50		 push	 eax
  0001d	8d 45 f4	 lea	 eax, DWORD PTR __$EHRec$[ebp]
  00020	64 a3 00 00 00
	00		 mov	 DWORD PTR fs:0, eax
  00026	8b c1		 mov	 eax, ecx
  00028	89 45 f0	 mov	 DWORD PTR _this$1$[ebp], eax

; 239  : 	if( !p_szGraphName) return NULL;

  0002b	8b 5d 0c	 mov	 ebx, DWORD PTR _p_szGraphName$[ebp]
  0002e	85 db		 test	 ebx, ebx
  00030	0f 84 5a 01 00
	00		 je	 $LN30@GetGraphIn

; 240  : 	if( !*p_szGraphName) return NULL;

  00036	80 3b 00	 cmp	 BYTE PTR [ebx], 0
  00039	0f 84 51 01 00
	00		 je	 $LN30@GetGraphIn

; 241  : 	if( EILT_USER != p_eIndicatorListType && EILT_MAP_DEFAULT != p_eIndicatorListType) return NULL;

  0003f	8b 7d 08	 mov	 edi, DWORD PTR _p_eIndicatorListType$[ebp]
  00042	83 ff 03	 cmp	 edi, 3
  00045	74 0e		 je	 SHORT $LN29@GetGraphIn
  00047	83 ff 01	 cmp	 edi, 1
  0004a	0f 85 40 01 00
	00		 jne	 $LN30@GetGraphIn

; 246  : 	else									pTargetIndicatorList = &m_mapDefaultIndiList;

  00050	8d 4f 0f	 lea	 ecx, DWORD PTR [edi+15]
  00053	eb 05		 jmp	 SHORT $LN8@GetGraphIn
$LN29@GetGraphIn:

; 242  : 
; 243  : 	CBaseIndicatorList *pTargetIndicatorList = NULL;
; 244  : 	// 1. Select Target Indicator List
; 245  : 	if( EILT_USER == p_eIndicatorListType)	pTargetIndicatorList = &m_userIndiList;

  00055	b9 38 00 00 00	 mov	 ecx, 56			; 00000038H
$LN8@GetGraphIn:

; 247  : 	// 2. Get Indicator Info from target or without defualt
; 248  : 	// (2009/9/2 - Seung-Won, Bae) Support Chart Mode. (for HTS/FX/WorldOn)
; 249  : 	CIndicatorInfo *pIndicatorInfo = pTargetIndicatorList->GetIndicatorInfo( p_szGraphName, m_eChartMode);

  0005a	ff 70 60	 push	 DWORD PTR [eax+96]
  0005d	03 c8		 add	 ecx, eax
  0005f	53		 push	 ebx
  00060	89 4d 0c	 mov	 DWORD PTR tv299[ebp], ecx
  00063	e8 00 00 00 00	 call	 ?GetIndicatorInfo@CBaseIndicatorList@@QAEPAVCIndicatorInfo@@PBDW4CHART_MODE@CChartInfo@@@Z ; CBaseIndicatorList::GetIndicatorInfo
  00068	8b f0		 mov	 esi, eax

; 250  : 	if( pIndicatorInfo) return pIndicatorInfo;

  0006a	85 f6		 test	 esi, esi
  0006c	0f 85 08 01 00
	00		 jne	 $LN24@GetGraphIn

; 251  : 
; 252  : 	//	Get Graph Info in User Indicator Info (Option Order)
; 253  : 	//		1. Without MapDefault Get		~ EIndicatorInfoGettingType
; 254  : 	if( EIIGT_WITHOUT_DEFAULT == p_nDefaultOption) return NULL;

  00072	39 45 14	 cmp	 DWORD PTR _p_nDefaultOption$[ebp], eax
  00075	0f 84 15 01 00
	00		 je	 $LN30@GetGraphIn

; 255  : 
; 256  : 	// 3. Get Indicator Info with default
; 257  : 	CBaseIndicatorList *pDefaultIndicatorList = NULL;
; 258  : 	switch( p_eIndicatorListType)

  0007b	83 ef 01	 sub	 edi, 1
  0007e	74 20		 je	 SHORT $LN31@GetGraphIn
  00080	83 ef 02	 sub	 edi, 2
  00083	0f 85 07 01 00
	00		 jne	 $LN30@GetGraphIn

; 259  : 	{
; 260  : 		//	Get Graph Info in User Indicator Info (Option Order)
; 261  : 		//		1. With MapDefault Get		~ EIndicatorInfoGettingType
; 262  : 		case EILT_USER:			pDefaultIndicatorList = &m_mapDefaultIndiList;
; 263  : 								// (2009/9/2 - Seung-Won, Bae) Support Chart Mode. (for HTS/FX/WorldOn)
; 264  : 								pIndicatorInfo = pDefaultIndicatorList->GetIndicatorInfo( p_szGraphName, m_eChartMode);

  00089	8b 7d f0	 mov	 edi, DWORD PTR _this$1$[ebp]
  0008c	ff 77 60	 push	 DWORD PTR [edi+96]
  0008f	8d 4f 10	 lea	 ecx, DWORD PTR [edi+16]
  00092	53		 push	 ebx
  00093	e8 00 00 00 00	 call	 ?GetIndicatorInfo@CBaseIndicatorList@@QAEPAVCIndicatorInfo@@PBDW4CHART_MODE@CChartInfo@@@Z ; CBaseIndicatorList::GetIndicatorInfo
  00098	8b f0		 mov	 esi, eax

; 265  : 								if( pIndicatorInfo) break;

  0009a	85 f6		 test	 esi, esi
  0009c	75 59		 jne	 SHORT $LN18@GetGraphIn

; 255  : 
; 256  : 	// 3. Get Indicator Info with default
; 257  : 	CBaseIndicatorList *pDefaultIndicatorList = NULL;
; 258  : 	switch( p_eIndicatorListType)

  0009e	eb 03		 jmp	 SHORT $LN12@GetGraphIn
$LN31@GetGraphIn:
  000a0	8b 7d f0	 mov	 edi, DWORD PTR _this$1$[ebp]
$LN12@GetGraphIn:

; 266  : 
; 267  : 		//	Get Graph Info in MapDefault Indicator Info (Option Order)
; 268  : 		//		1. Without Indicator Info, With Indicator Info				~ p_szIndicatorName
; 269  : 		//		2. in With Indicator Info : With SiteDefault Get			~ EIndicatorInfoGettingType
; 270  : 		case EILT_MAP_DEFAULT:	if( !p_szIndicatorName) break;

  000a3	8b 45 10	 mov	 eax, DWORD PTR _p_szIndicatorName$[ebp]
  000a6	85 c0		 test	 eax, eax
  000a8	0f 84 e2 00 00
	00		 je	 $LN30@GetGraphIn

; 271  : 								if( !*p_szIndicatorName) break;

  000ae	80 38 00	 cmp	 BYTE PTR [eax], 0
  000b1	74 3c		 je	 SHORT $LN2@GetGraphIn

; 272  : 								if( m_bUseUserDefaultIndicator)

  000b3	83 7f 08 00	 cmp	 DWORD PTR [edi+8], 0
  000b7	74 1d		 je	 SHORT $LN17@GetGraphIn

; 273  : 								{
; 274  : 									pDefaultIndicatorList = m_unchangeableData.GetUserDefaultIndiList();

  000b9	b9 00 00 00 00	 mov	 ecx, OFFSET ?m_unchangeableData@CIndicatorListImplementation@@1VCUnchangeableData@@A ; CIndicatorListImplementation::m_unchangeableData
  000be	e8 00 00 00 00	 call	 ?GetUserDefaultIndiList@CUnchangeableData@@QBEPAVCUserIndicatorList@@XZ ; CUnchangeableData::GetUserDefaultIndiList

; 275  : 									// (2009/9/2 - Seung-Won, Bae) Support Chart Mode. (for HTS/FX/WorldOn)
; 276  : 									pIndicatorInfo = pDefaultIndicatorList->GetIndicatorInfo( p_szIndicatorName, m_eChartMode);

  000c3	ff 77 60	 push	 DWORD PTR [edi+96]
  000c6	8b c8		 mov	 ecx, eax
  000c8	ff 75 10	 push	 DWORD PTR _p_szIndicatorName$[ebp]
  000cb	e8 00 00 00 00	 call	 ?GetIndicatorInfo@CBaseIndicatorList@@QAEPAVCIndicatorInfo@@PBDW4CHART_MODE@CChartInfo@@@Z ; CBaseIndicatorList::GetIndicatorInfo
  000d0	8b f0		 mov	 esi, eax

; 277  : 									if( pIndicatorInfo) break;

  000d2	85 f6		 test	 esi, esi
  000d4	75 21		 jne	 SHORT $LN18@GetGraphIn
$LN17@GetGraphIn:

; 278  : 								}
; 279  : 								pDefaultIndicatorList = m_unchangeableData.GetMainDefaultIndicatorList_Pointer();

  000d6	b9 00 00 00 00	 mov	 ecx, OFFSET ?m_unchangeableData@CIndicatorListImplementation@@1VCUnchangeableData@@A ; CIndicatorListImplementation::m_unchangeableData
  000db	e8 00 00 00 00	 call	 ?GetMainDefaultIndicatorList_Pointer@CUnchangeableData@@QAEPAVCDefaultIndicatorList@@XZ ; CUnchangeableData::GetMainDefaultIndicatorList_Pointer

; 280  : 								// (2009/9/2 - Seung-Won, Bae) Support Chart Mode. (for HTS/FX/WorldOn)
; 281  : 								pIndicatorInfo = pDefaultIndicatorList->GetIndicatorInfo( p_szIndicatorName, m_eChartMode);

  000e0	ff 77 60	 push	 DWORD PTR [edi+96]
  000e3	8b c8		 mov	 ecx, eax
  000e5	ff 75 10	 push	 DWORD PTR _p_szIndicatorName$[ebp]
  000e8	e8 00 00 00 00	 call	 ?GetIndicatorInfo@CBaseIndicatorList@@QAEPAVCIndicatorInfo@@PBDW4CHART_MODE@CChartInfo@@@Z ; CBaseIndicatorList::GetIndicatorInfo
  000ed	8b f0		 mov	 esi, eax
$LN2@GetGraphIn:

; 282  : 	}
; 283  : 	if( !pIndicatorInfo) return NULL;

  000ef	85 f6		 test	 esi, esi
  000f1	0f 84 99 00 00
	00		 je	 $LN30@GetGraphIn
$LN18@GetGraphIn:

; 284  : 	if( EIIGT_WITH_DEFAULT_GET_AND_SET != p_nDefaultOption) return pIndicatorInfo;

  000f7	83 7d 14 02	 cmp	 DWORD PTR _p_nDefaultOption$[ebp], 2
  000fb	75 7d		 jne	 SHORT $LN24@GetGraphIn

; 285  : 
; 286  : 	// 4. Set Indicator Info with default
; 287  : 	//	With MapDefault Get and Set
; 288  : 	if( pTargetIndicatorList)

  000fd	83 7d 0c 00	 cmp	 DWORD PTR tv299[ebp], 0
  00101	74 77		 je	 SHORT $LN24@GetGraphIn

; 289  : 	{
; 290  : 		CIndicatorInfo *pIndicatorInfo2 = CIndicatorInfo::Make( pIndicatorInfo);

  00103	56		 push	 esi
  00104	e8 00 00 00 00	 call	 ?Make@CIndicatorInfo@@SAPAV1@PBV1@@Z ; CIndicatorInfo::Make
  00109	8b f8		 mov	 edi, eax
  0010b	83 c4 04	 add	 esp, 4

; 291  : 		if( pIndicatorInfo2)

  0010e	85 ff		 test	 edi, edi
  00110	74 68		 je	 SHORT $LN24@GetGraphIn

; 292  : 		{
; 293  : 			CGraphDataBase *pGraphDataBase = pIndicatorInfo2->GetGraphData_PointerType();

  00112	8b cf		 mov	 ecx, edi
  00114	e8 00 00 00 00	 call	 ?GetGraphData_PointerType@CIndicatorInfo@@QAEPAVCGraphData@@XZ ; CIndicatorInfo::GetGraphData_PointerType
  00119	89 45 14	 mov	 DWORD PTR _pGraphDataBase$1$[ebp], eax

; 294  : 			if( pGraphDataBase) pGraphDataBase->SetGraphName( p_szGraphName);

  0011c	85 c0		 test	 eax, eax
  0011e	74 2d		 je	 SHORT $LN22@GetGraphIn
  00120	53		 push	 ebx
  00121	8d 4d 10	 lea	 ecx, DWORD PTR $T2[ebp]
  00124	ff 15 00 00 00
	00		 call	 DWORD PTR __imp_??0?$CStringT@DV?$StrTraitMFC_DLL@DV?$ChTraitsCRT@D@ATL@@@@@ATL@@QAE@PBD@Z
  0012a	8b 4d 14	 mov	 ecx, DWORD PTR _pGraphDataBase$1$[ebp]
  0012d	8d 45 10	 lea	 eax, DWORD PTR $T2[ebp]
  00130	50		 push	 eax
  00131	c7 45 fc 00 00
	00 00		 mov	 DWORD PTR __$EHRec$[ebp+8], 0
  00138	8b 11		 mov	 edx, DWORD PTR [ecx]
  0013a	ff 52 04	 call	 DWORD PTR [edx+4]
  0013d	8d 4d 10	 lea	 ecx, DWORD PTR $T2[ebp]
  00140	c7 45 fc ff ff
	ff ff		 mov	 DWORD PTR __$EHRec$[ebp+8], -1
  00147	ff 15 00 00 00
	00		 call	 DWORD PTR __imp_??1?$CStringT@DV?$StrTraitMFC_DLL@DV?$ChTraitsCRT@D@ATL@@@@@ATL@@QAE@XZ
$LN22@GetGraphIn:

; 295  : 			if( !pTargetIndicatorList->AddIndicatorInfo( pIndicatorInfo2)) delete pIndicatorInfo2;

  0014d	8b 4d 0c	 mov	 ecx, DWORD PTR tv299[ebp]
  00150	57		 push	 edi
  00151	e8 00 00 00 00	 call	 ?AddIndicatorInfo@CBaseIndicatorList@@QAE_NPAVCIndicatorInfo@@@Z ; CBaseIndicatorList::AddIndicatorInfo
  00156	84 c0		 test	 al, al
  00158	75 1e		 jne	 SHORT $LN23@GetGraphIn
  0015a	8b 07		 mov	 eax, DWORD PTR [edi]
  0015c	8b cf		 mov	 ecx, edi
  0015e	6a 01		 push	 1
  00160	ff 10		 call	 DWORD PTR [eax]

; 297  : 		}
; 298  : 	}
; 299  : 
; 300  : 	return pIndicatorInfo;
; 301  : }

  00162	8b c6		 mov	 eax, esi
  00164	8b 4d f4	 mov	 ecx, DWORD PTR __$EHRec$[ebp]
  00167	64 89 0d 00 00
	00 00		 mov	 DWORD PTR fs:0, ecx
  0016e	59		 pop	 ecx
  0016f	5f		 pop	 edi
  00170	5e		 pop	 esi
  00171	5b		 pop	 ebx
  00172	8b e5		 mov	 esp, ebp
  00174	5d		 pop	 ebp
  00175	c2 10 00	 ret	 16			; 00000010H
$LN23@GetGraphIn:

; 296  : 			else pIndicatorInfo = pIndicatorInfo2;

  00178	8b f7		 mov	 esi, edi
$LN24@GetGraphIn:

; 297  : 		}
; 298  : 	}
; 299  : 
; 300  : 	return pIndicatorInfo;
; 301  : }

  0017a	8b c6		 mov	 eax, esi
  0017c	8b 4d f4	 mov	 ecx, DWORD PTR __$EHRec$[ebp]
  0017f	64 89 0d 00 00
	00 00		 mov	 DWORD PTR fs:0, ecx
  00186	59		 pop	 ecx
  00187	5f		 pop	 edi
  00188	5e		 pop	 esi
  00189	5b		 pop	 ebx
  0018a	8b e5		 mov	 esp, ebp
  0018c	5d		 pop	 ebp
  0018d	c2 10 00	 ret	 16			; 00000010H
$LN30@GetGraphIn:

; 282  : 	}
; 283  : 	if( !pIndicatorInfo) return NULL;

  00190	33 c0		 xor	 eax, eax

; 297  : 		}
; 298  : 	}
; 299  : 
; 300  : 	return pIndicatorInfo;
; 301  : }

  00192	8b 4d f4	 mov	 ecx, DWORD PTR __$EHRec$[ebp]
  00195	64 89 0d 00 00
	00 00		 mov	 DWORD PTR fs:0, ecx
  0019c	59		 pop	 ecx
  0019d	5f		 pop	 edi
  0019e	5e		 pop	 esi
  0019f	5b		 pop	 ebx
  001a0	8b e5		 mov	 esp, ebp
  001a2	5d		 pop	 ebp
  001a3	c2 10 00	 ret	 16			; 00000010H
_TEXT	ENDS
;	COMDAT text$x
text$x	SEGMENT
__unwindfunclet$?GetGraphIndicatorInfo@CIndicatorListImplementation@@QAEPAVCIndicatorInfo@@W4EIndicatorListType@@PBD1W4EIndicatorInfoGettingType@@@Z$0:
  00000	8d 4d 10	 lea	 ecx, DWORD PTR $T2[ebp]
  00003	ff 25 00 00 00
	00		 jmp	 DWORD PTR __imp_??1?$CStringT@DV?$StrTraitMFC_DLL@DV?$ChTraitsCRT@D@ATL@@@@@ATL@@QAE@XZ
  00009	cc		 int	 3
  0000a	cc		 int	 3
  0000b	cc		 int	 3
  0000c	cc		 int	 3
  0000d	cc		 int	 3
__ehhandler$?GetGraphIndicatorInfo@CIndicatorListImplementation@@QAEPAVCIndicatorInfo@@W4EIndicatorListType@@PBD1W4EIndicatorInfoGettingType@@@Z:
  0000e	90		 npad	 1
  0000f	90		 npad	 1
  00010	8b 54 24 08	 mov	 edx, DWORD PTR [esp+8]
  00014	8d 42 0c	 lea	 eax, DWORD PTR [edx+12]
  00017	8b 4a ec	 mov	 ecx, DWORD PTR [edx-20]
  0001a	33 c8		 xor	 ecx, eax
  0001c	e8 00 00 00 00	 call	 @__security_check_cookie@4
  00021	b8 00 00 00 00	 mov	 eax, OFFSET __ehfuncinfo$?GetGraphIndicatorInfo@CIndicatorListImplementation@@QAEPAVCIndicatorInfo@@W4EIndicatorListType@@PBD1W4EIndicatorInfoGettingType@@@Z
  00026	e9 00 00 00 00	 jmp	 ___CxxFrameHandler3
text$x	ENDS
?GetGraphIndicatorInfo@CIndicatorListImplementation@@QAEPAVCIndicatorInfo@@W4EIndicatorListType@@PBD1W4EIndicatorInfoGettingType@@@Z ENDP ; CIndicatorListImplementation::GetGraphIndicatorInfo
; Function compile flags: /Ogtp
; File D:\git\src\IBK\IBK_DRFN\ProjSrc\SrcChartEx\ChartOCX\IndicatorCondition\IndicatorListImplementation.cpp
;	COMDAT ?GetGraphTypeAndStyleData@CIndicatorListImplementation@@QAEPBVCGraphTypeAndStyleData@@XZ
_TEXT	SEGMENT
?GetGraphTypeAndStyleData@CIndicatorListImplementation@@QAEPBVCGraphTypeAndStyleData@@XZ PROC ; CIndicatorListImplementation::GetGraphTypeAndStyleData, COMDAT
; _this$ = ecx

; 220  : 	return m_unchangeableData.GetGraphTypeAndStyleData();

  00000	b8 04 00 00 00	 mov	 eax, OFFSET ?m_unchangeableData@CIndicatorListImplementation@@1VCUnchangeableData@@A+4

; 221  : }

  00005	c3		 ret	 0
?GetGraphTypeAndStyleData@CIndicatorListImplementation@@QAEPBVCGraphTypeAndStyleData@@XZ ENDP ; CIndicatorListImplementation::GetGraphTypeAndStyleData
_TEXT	ENDS
; Function compile flags: /Ogtp
; File D:\git\src\IBK\IBK_DRFN\ProjSrc\SrcChartEx\ChartOCX\IndicatorCondition\IndicatorListImplementation.cpp
;	COMDAT ?GetAllIndicatorNameWithGroupName@CIndicatorListImplementation@@QAEPAVCIndicatorGroupDataList@@XZ
_TEXT	SEGMENT
?GetAllIndicatorNameWithGroupName@CIndicatorListImplementation@@QAEPAVCIndicatorGroupDataList@@XZ PROC ; CIndicatorListImplementation::GetAllIndicatorNameWithGroupName, COMDAT
; _this$ = ecx

; 208  : {

  00000	56		 push	 esi
  00001	57		 push	 edi
  00002	8b f9		 mov	 edi, ecx

; 209  : 	if( m_indiGroupDataList.GetCount() > 0)

  00004	8d 77 64	 lea	 esi, DWORD PTR [edi+100]
  00007	8b ce		 mov	 ecx, esi
  00009	e8 00 00 00 00	 call	 ?GetCount@CIndicatorGroupDataList@@QBEHXZ ; CIndicatorGroupDataList::GetCount
  0000e	85 c0		 test	 eax, eax
  00010	7f 0e		 jg	 SHORT $LN4@GetAllIndi

; 210  : 		return &m_indiGroupDataList;
; 211  : 
; 212  : 	// (2009/9/2 - Seung-Won, Bae) Support Chart Mode. (for HTS/FX/WorldOn)
; 213  : 	m_unchangeableData.GetAllIndicatorNameWithGroupName( m_indiGroupDataList, m_eChartMode);

  00012	ff 77 60	 push	 DWORD PTR [edi+96]
  00015	b9 00 00 00 00	 mov	 ecx, OFFSET ?m_unchangeableData@CIndicatorListImplementation@@1VCUnchangeableData@@A ; CIndicatorListImplementation::m_unchangeableData
  0001a	56		 push	 esi
  0001b	e8 00 00 00 00	 call	 ?GetAllIndicatorNameWithGroupName@CUnchangeableData@@QAEHAAVCIndicatorGroupDataList@@W4CHART_MODE@CChartInfo@@@Z ; CUnchangeableData::GetAllIndicatorNameWithGroupName
$LN4@GetAllIndi:

; 214  : 
; 215  : 	return &m_indiGroupDataList;
; 216  : }

  00020	5f		 pop	 edi
  00021	8b c6		 mov	 eax, esi
  00023	5e		 pop	 esi
  00024	c3		 ret	 0
?GetAllIndicatorNameWithGroupName@CIndicatorListImplementation@@QAEPAVCIndicatorGroupDataList@@XZ ENDP ; CIndicatorListImplementation::GetAllIndicatorNameWithGroupName
_TEXT	ENDS
; Function compile flags: /Ogtp
; File D:\git\src\IBK\IBK_DRFN\ProjSrc\SrcChartEx\ChartOCX\IndicatorCondition\IndicatorListImplementation.cpp
;	COMDAT ?GetGraphNameList@CIndicatorListImplementation@@QBEHW4EIndicatorListType@@W4EIndicatorInfoType@@AAV?$CList@V?$CStringT@DV?$StrTraitMFC_DLL@DV?$ChTraitsCRT@D@ATL@@@@@ATL@@V12@@@@Z
_TEXT	SEGMENT
_p_eIndicatorListType$ = 8				; size = 4
_p_eIndicatorInfoType$ = 12				; size = 4
_graphNameList$ = 16					; size = 4
?GetGraphNameList@CIndicatorListImplementation@@QBEHW4EIndicatorListType@@W4EIndicatorInfoType@@AAV?$CList@V?$CStringT@DV?$StrTraitMFC_DLL@DV?$ChTraitsCRT@D@ATL@@@@@ATL@@V12@@@@Z PROC ; CIndicatorListImplementation::GetGraphNameList, COMDAT
; _this$ = ecx

; 188  : {

  00000	55		 push	 ebp
  00001	8b ec		 mov	 ebp, esp

; 189  : 	if( EILT_USER != p_eIndicatorListType && EILT_MAP_DEFAULT != p_eIndicatorListType) return FALSE;

  00003	8b 55 08	 mov	 edx, DWORD PTR _p_eIndicatorListType$[ebp]
  00006	83 fa 03	 cmp	 edx, 3
  00009	74 05		 je	 SHORT $LN4@GetGraphNa
  0000b	83 fa 01	 cmp	 edx, 1
  0000e	75 7d		 jne	 SHORT $LN2@GetGraphNa
$LN4@GetGraphNa:

; 190  : 
; 191  : 	const CUserIndicatorList *pUserIndicatorList = &m_mapDefaultIndiList;
; 192  : 	if( EILT_USER == p_eIndicatorListType) pUserIndicatorList = &m_userIndiList;
; 193  : 
; 194  : 	switch( p_eIndicatorInfoType)

  00010	83 fa 03	 cmp	 edx, 3
  00013	b8 38 00 00 00	 mov	 eax, 56			; 00000038H
  00018	56		 push	 esi
  00019	be 10 00 00 00	 mov	 esi, 16			; 00000010H
  0001e	0f 45 c6	 cmovne	 eax, esi
  00021	5e		 pop	 esi
  00022	8d 14 08	 lea	 edx, DWORD PTR [eax+ecx]
  00025	8b 45 0c	 mov	 eax, DWORD PTR _p_eIndicatorInfoType$[ebp]
  00028	40		 inc	 eax
  00029	83 f8 03	 cmp	 eax, 3
  0002c	77 5f		 ja	 SHORT $LN2@GetGraphNa
  0002e	ff 24 85 00 00
	00 00		 jmp	 DWORD PTR $LN11@GetGraphNa[eax*4]
$LN6@GetGraphNa:

; 195  : 	{
; 196  : 		// (2009/9/2 - Seung-Won, Bae) Support Chart Mode. (for HTS/FX/WorldOn)
; 197  : 		case EIIT_ALL:		return pUserIndicatorList->GetGraphNameList( CBaseIndicatorList::ALL,		graphNameList, m_eChartMode);

  00035	ff 71 60	 push	 DWORD PTR [ecx+96]
  00038	8b ca		 mov	 ecx, edx
  0003a	ff 75 10	 push	 DWORD PTR _graphNameList$[ebp]
  0003d	6a 00		 push	 0
  0003f	e8 00 00 00 00	 call	 ?GetGraphNameList@CBaseIndicatorList@@QBE_NW4INDICATORTYPE@1@AAV?$CList@V?$CStringT@DV?$StrTraitMFC_DLL@DV?$ChTraitsCRT@D@ATL@@@@@ATL@@V12@@@W4CHART_MODE@CChartInfo@@@Z ; CBaseIndicatorList::GetGraphNameList
  00044	0f b6 c0	 movzx	 eax, al

; 204  : }

  00047	5d		 pop	 ebp
  00048	c2 0c 00	 ret	 12			; 0000000cH
$LN7@GetGraphNa:

; 198  : 		case EIIT_GENERAL:	return pUserIndicatorList->GetGraphNameList( CBaseIndicatorList::GENERAL,	graphNameList, m_eChartMode);

  0004b	ff 71 60	 push	 DWORD PTR [ecx+96]
  0004e	8b ca		 mov	 ecx, edx
  00050	ff 75 10	 push	 DWORD PTR _graphNameList$[ebp]
  00053	6a 01		 push	 1
  00055	e8 00 00 00 00	 call	 ?GetGraphNameList@CBaseIndicatorList@@QBE_NW4INDICATORTYPE@1@AAV?$CList@V?$CStringT@DV?$StrTraitMFC_DLL@DV?$ChTraitsCRT@D@ATL@@@@@ATL@@V12@@@W4CHART_MODE@CChartInfo@@@Z ; CBaseIndicatorList::GetGraphNameList
  0005a	0f b6 c0	 movzx	 eax, al

; 204  : }

  0005d	5d		 pop	 ebp
  0005e	c2 0c 00	 ret	 12			; 0000000cH
$LN8@GetGraphNa:

; 199  : 		case EIIT_SPECIAL:	return pUserIndicatorList->GetGraphNameList( CBaseIndicatorList::SPECIAL,	graphNameList, m_eChartMode);

  00061	ff 71 60	 push	 DWORD PTR [ecx+96]
  00064	8b ca		 mov	 ecx, edx
  00066	ff 75 10	 push	 DWORD PTR _graphNameList$[ebp]
  00069	6a 02		 push	 2
  0006b	e8 00 00 00 00	 call	 ?GetGraphNameList@CBaseIndicatorList@@QBE_NW4INDICATORTYPE@1@AAV?$CList@V?$CStringT@DV?$StrTraitMFC_DLL@DV?$ChTraitsCRT@D@ATL@@@@@ATL@@V12@@@W4CHART_MODE@CChartInfo@@@Z ; CBaseIndicatorList::GetGraphNameList
  00070	0f b6 c0	 movzx	 eax, al

; 204  : }

  00073	5d		 pop	 ebp
  00074	c2 0c 00	 ret	 12			; 0000000cH
$LN9@GetGraphNa:

; 200  : 		case EIIT_NONE:		return pUserIndicatorList->GetGraphNameList( CBaseIndicatorList::NONE,		graphNameList, m_eChartMode);

  00077	ff 71 60	 push	 DWORD PTR [ecx+96]
  0007a	8b ca		 mov	 ecx, edx
  0007c	ff 75 10	 push	 DWORD PTR _graphNameList$[ebp]
  0007f	6a 03		 push	 3
  00081	e8 00 00 00 00	 call	 ?GetGraphNameList@CBaseIndicatorList@@QBE_NW4INDICATORTYPE@1@AAV?$CList@V?$CStringT@DV?$StrTraitMFC_DLL@DV?$ChTraitsCRT@D@ATL@@@@@ATL@@V12@@@W4CHART_MODE@CChartInfo@@@Z ; CBaseIndicatorList::GetGraphNameList
  00086	0f b6 c0	 movzx	 eax, al

; 204  : }

  00089	5d		 pop	 ebp
  0008a	c2 0c 00	 ret	 12			; 0000000cH
$LN2@GetGraphNa:

; 201  : 	}
; 202  : 
; 203  : 	return FALSE;

  0008d	33 c0		 xor	 eax, eax

; 204  : }

  0008f	5d		 pop	 ebp
  00090	c2 0c 00	 ret	 12			; 0000000cH
  00093	90		 npad	 1
$LN11@GetGraphNa:
  00094	00 00 00 00	 DD	 $LN6@GetGraphNa
  00098	00 00 00 00	 DD	 $LN7@GetGraphNa
  0009c	00 00 00 00	 DD	 $LN8@GetGraphNa
  000a0	00 00 00 00	 DD	 $LN9@GetGraphNa
?GetGraphNameList@CIndicatorListImplementation@@QBEHW4EIndicatorListType@@W4EIndicatorInfoType@@AAV?$CList@V?$CStringT@DV?$StrTraitMFC_DLL@DV?$ChTraitsCRT@D@ATL@@@@@ATL@@V12@@@@Z ENDP ; CIndicatorListImplementation::GetGraphNameList
_TEXT	ENDS
; Function compile flags: /Ogtp
; File D:\git\src\IBK\IBK_DRFN\ProjSrc\SrcChartEx\ChartOCX\IndicatorCondition\IndicatorListImplementation.cpp
;	COMDAT ?GetIndicatorNameList@CIndicatorListImplementation@@QBEHW4EIndicatorListType@@W4EIndicatorInfoType@@AAV?$CList@V?$CStringT@DV?$StrTraitMFC_DLL@DV?$ChTraitsCRT@D@ATL@@@@@ATL@@V12@@@@Z
_TEXT	SEGMENT
_p_eIndicatorListType$ = 8				; size = 4
_p_eIndicatorInfoType$ = 12				; size = 4
_IndicatorNameList$ = 16				; size = 4
?GetIndicatorNameList@CIndicatorListImplementation@@QBEHW4EIndicatorListType@@W4EIndicatorInfoType@@AAV?$CList@V?$CStringT@DV?$StrTraitMFC_DLL@DV?$ChTraitsCRT@D@ATL@@@@@ATL@@V12@@@@Z PROC ; CIndicatorListImplementation::GetIndicatorNameList, COMDAT
; _this$ = ecx

; 165  : {

  00000	55		 push	 ebp
  00001	8b ec		 mov	 ebp, esp

; 166  : 	if( EILT_USER != p_eIndicatorListType && EILT_SITE_DEFAULT != p_eIndicatorListType) return FALSE;

  00003	8b 45 08	 mov	 eax, DWORD PTR _p_eIndicatorListType$[ebp]
  00006	83 f8 03	 cmp	 eax, 3
  00009	74 5b		 je	 SHORT $LN15@GetIndicat
  0000b	85 c0		 test	 eax, eax
  0000d	75 64		 jne	 SHORT $LN4@GetIndicat

; 173  : 	}
; 174  : 
; 175  : 	if( EILT_SITE_DEFAULT == p_eIndicatorListType) switch( p_eIndicatorInfoType)

  0000f	8b 45 0c	 mov	 eax, DWORD PTR _p_eIndicatorInfoType$[ebp]
  00012	83 e8 00	 sub	 eax, 0
  00015	74 38		 je	 SHORT $LN11@GetIndicat
  00017	83 e8 01	 sub	 eax, 1
  0001a	74 1c		 je	 SHORT $LN12@GetIndicat
  0001c	83 e8 01	 sub	 eax, 1
  0001f	75 52		 jne	 SHORT $LN4@GetIndicat

; 180  : 		case EIIT_NONE:		return m_unchangeableData.GetMainDefaultIndicatorNameList_None(		IndicatorNameList, m_eChartMode);

  00021	ff 71 60	 push	 DWORD PTR [ecx+96]
  00024	b9 00 00 00 00	 mov	 ecx, OFFSET ?m_unchangeableData@CIndicatorListImplementation@@1VCUnchangeableData@@A ; CIndicatorListImplementation::m_unchangeableData
  00029	ff 75 10	 push	 DWORD PTR _IndicatorNameList$[ebp]
  0002c	e8 00 00 00 00	 call	 ?GetMainDefaultIndicatorNameList_None@CUnchangeableData@@QBE_NAAV?$CList@V?$CStringT@DV?$StrTraitMFC_DLL@DV?$ChTraitsCRT@D@ATL@@@@@ATL@@V12@@@W4CHART_MODE@CChartInfo@@@Z ; CUnchangeableData::GetMainDefaultIndicatorNameList_None

; 184  : }

  00031	0f b6 c0	 movzx	 eax, al
  00034	5d		 pop	 ebp
  00035	c2 0c 00	 ret	 12			; 0000000cH
$LN12@GetIndicat:

; 179  : 		case EIIT_SPECIAL:	return m_unchangeableData.GetMainDefaultIndicatorNameList_Special(	IndicatorNameList, m_eChartMode);

  00038	ff 71 60	 push	 DWORD PTR [ecx+96]
  0003b	b9 00 00 00 00	 mov	 ecx, OFFSET ?m_unchangeableData@CIndicatorListImplementation@@1VCUnchangeableData@@A ; CIndicatorListImplementation::m_unchangeableData
  00040	ff 75 10	 push	 DWORD PTR _IndicatorNameList$[ebp]
  00043	e8 00 00 00 00	 call	 ?GetMainDefaultIndicatorNameList_Special@CUnchangeableData@@QBE_NAAV?$CList@V?$CStringT@DV?$StrTraitMFC_DLL@DV?$ChTraitsCRT@D@ATL@@@@@ATL@@V12@@@W4CHART_MODE@CChartInfo@@@Z ; CUnchangeableData::GetMainDefaultIndicatorNameList_Special

; 184  : }

  00048	0f b6 c0	 movzx	 eax, al
  0004b	5d		 pop	 ebp
  0004c	c2 0c 00	 ret	 12			; 0000000cH
$LN11@GetIndicat:

; 176  : 	{
; 177  : 		// (2009/9/2 - Seung-Won, Bae) Support Chart Mode. (for HTS/FX/WorldOn)
; 178  : 		case EIIT_GENERAL:	return m_unchangeableData.GetMainDefaultIndicatorNameList_General(	IndicatorNameList, m_eChartMode);

  0004f	ff 71 60	 push	 DWORD PTR [ecx+96]
  00052	b9 00 00 00 00	 mov	 ecx, OFFSET ?m_unchangeableData@CIndicatorListImplementation@@1VCUnchangeableData@@A ; CIndicatorListImplementation::m_unchangeableData
  00057	ff 75 10	 push	 DWORD PTR _IndicatorNameList$[ebp]
  0005a	e8 00 00 00 00	 call	 ?GetMainDefaultIndicatorNameList_General@CUnchangeableData@@QBE_NAAV?$CList@V?$CStringT@DV?$StrTraitMFC_DLL@DV?$ChTraitsCRT@D@ATL@@@@@ATL@@V12@@@W4CHART_MODE@CChartInfo@@@Z ; CUnchangeableData::GetMainDefaultIndicatorNameList_General

; 184  : }

  0005f	0f b6 c0	 movzx	 eax, al
  00062	5d		 pop	 ebp
  00063	c2 0c 00	 ret	 12			; 0000000cH
$LN15@GetIndicat:

; 167  : 
; 168  : 	if( EILT_USER == p_eIndicatorListType) switch( p_eIndicatorInfoType)

  00066	8b 45 0c	 mov	 eax, DWORD PTR _p_eIndicatorInfoType$[ebp]
  00069	83 e8 00	 sub	 eax, 0
  0006c	74 22		 je	 SHORT $LN8@GetIndicat
  0006e	83 e8 01	 sub	 eax, 1
  00071	74 06		 je	 SHORT $LN9@GetIndicat
$LN4@GetIndicat:

; 181  : 	}
; 182  : 
; 183  : 	return FALSE;

  00073	33 c0		 xor	 eax, eax

; 184  : }

  00075	5d		 pop	 ebp
  00076	c2 0c 00	 ret	 12			; 0000000cH
$LN9@GetIndicat:

; 172  : 		case EIIT_SPECIAL:	return m_userIndiList.GetIndicatorNameList( CBaseIndicatorList::SPECIAL, IndicatorNameList, m_eChartMode);

  00079	ff 71 60	 push	 DWORD PTR [ecx+96]

; 184  : }

  0007c	83 c1 38	 add	 ecx, 56			; 00000038H
  0007f	ff 75 10	 push	 DWORD PTR _IndicatorNameList$[ebp]
  00082	6a 02		 push	 2
  00084	e8 00 00 00 00	 call	 ?GetIndicatorNameList@CBaseIndicatorList@@QBE_NW4INDICATORTYPE@1@AAV?$CList@V?$CStringT@DV?$StrTraitMFC_DLL@DV?$ChTraitsCRT@D@ATL@@@@@ATL@@V12@@@W4CHART_MODE@CChartInfo@@@Z ; CBaseIndicatorList::GetIndicatorNameList
  00089	0f b6 c0	 movzx	 eax, al
  0008c	5d		 pop	 ebp
  0008d	c2 0c 00	 ret	 12			; 0000000cH
$LN8@GetIndicat:

; 169  : 	{
; 170  : 		// (2009/9/2 - Seung-Won, Bae) Support Chart Mode. (for HTS/FX/WorldOn)
; 171  : 		case EIIT_GENERAL:	return m_userIndiList.GetIndicatorNameList( CBaseIndicatorList::GENERAL, IndicatorNameList, m_eChartMode);

  00090	ff 71 60	 push	 DWORD PTR [ecx+96]

; 184  : }

  00093	83 c1 38	 add	 ecx, 56			; 00000038H
  00096	ff 75 10	 push	 DWORD PTR _IndicatorNameList$[ebp]
  00099	6a 01		 push	 1
  0009b	e8 00 00 00 00	 call	 ?GetIndicatorNameList@CBaseIndicatorList@@QBE_NW4INDICATORTYPE@1@AAV?$CList@V?$CStringT@DV?$StrTraitMFC_DLL@DV?$ChTraitsCRT@D@ATL@@@@@ATL@@V12@@@W4CHART_MODE@CChartInfo@@@Z ; CBaseIndicatorList::GetIndicatorNameList
  000a0	0f b6 c0	 movzx	 eax, al
  000a3	5d		 pop	 ebp
  000a4	c2 0c 00	 ret	 12			; 0000000cH
?GetIndicatorNameList@CIndicatorListImplementation@@QBEHW4EIndicatorListType@@W4EIndicatorInfoType@@AAV?$CList@V?$CStringT@DV?$StrTraitMFC_DLL@DV?$ChTraitsCRT@D@ATL@@@@@ATL@@V12@@@@Z ENDP ; CIndicatorListImplementation::GetIndicatorNameList
_TEXT	ENDS
; Function compile flags: /Ogtp
; File D:\git\src\IBK\IBK_DRFN\ProjSrc\SrcChartEx\ChartOCX\IndicatorCondition\IndicatorListImplementation.cpp
;	COMDAT ?GetCfgFileVersion@CIndicatorListImplementation@@QBENW4EIndicatorListType@@@Z
_TEXT	SEGMENT
_p_eIndicatorListType$ = 8				; size = 4
?GetCfgFileVersion@CIndicatorListImplementation@@QBENW4EIndicatorListType@@@Z PROC ; CIndicatorListImplementation::GetCfgFileVersion, COMDAT
; _this$ = ecx

; 151  : {

  00000	55		 push	 ebp
  00001	8b ec		 mov	 ebp, esp

; 152  : 	if( EILT_USER != p_eIndicatorListType && EILT_SITE_DEFAULT != p_eIndicatorListType) return 0.;

  00003	8b 45 08	 mov	 eax, DWORD PTR _p_eIndicatorListType$[ebp]
  00006	83 f8 03	 cmp	 eax, 3
  00009	74 18		 je	 SHORT $LN6@GetCfgFile
  0000b	85 c0		 test	 eax, eax
  0000d	74 06		 je	 SHORT $LN7@GetCfgFile
  0000f	d9 ee		 fldz

; 159  : 
; 160  : 	return 0;
; 161  : }

  00011	5d		 pop	 ebp
  00012	c2 04 00	 ret	 4
$LN7@GetCfgFile:

; 156  : 
; 157  : 	if( EILT_SITE_DEFAULT == p_eIndicatorListType)
; 158  : 		return m_unchangeableData.GetDefaultVersion();

  00015	b9 00 00 00 00	 mov	 ecx, OFFSET ?m_unchangeableData@CIndicatorListImplementation@@1VCUnchangeableData@@A ; CIndicatorListImplementation::m_unchangeableData
  0001a	e8 00 00 00 00	 call	 ?GetDefaultVersion@CUnchangeableData@@QBENXZ ; CUnchangeableData::GetDefaultVersion

; 159  : 
; 160  : 	return 0;
; 161  : }

  0001f	5d		 pop	 ebp
  00020	c2 04 00	 ret	 4
$LN6@GetCfgFile:

; 153  : 
; 154  : 	if( EILT_USER == p_eIndicatorListType)
; 155  : 		return m_userIndiList.GetVersion();

  00023	83 c1 38	 add	 ecx, 56			; 00000038H
  00026	e8 00 00 00 00	 call	 ?GetVersion@CBaseIndicatorList@@QBENXZ ; CBaseIndicatorList::GetVersion

; 159  : 
; 160  : 	return 0;
; 161  : }

  0002b	5d		 pop	 ebp
  0002c	c2 04 00	 ret	 4
?GetCfgFileVersion@CIndicatorListImplementation@@QBENW4EIndicatorListType@@@Z ENDP ; CIndicatorListImplementation::GetCfgFileVersion
_TEXT	ENDS
; Function compile flags: /Ogtp
; File D:\git\src\IBK\IBK_DRFN\ProjSrc\SrcChartEx\ChartOCX\IndicatorCondition\IndicatorListImplementation.cpp
; File C:\Program Files (x86)\Microsoft Visual Studio\2019\Community\VC\Tools\MSVC\14.29.30133\atlmfc\include\afxcoll.inl
; File D:\git\src\IBK\IBK_DRFN\ProjSrc\SrcChartEx\ChartOCX\IndicatorCondition\IndicatorListImplementation.cpp
; File C:\Program Files (x86)\Microsoft Visual Studio\2019\Community\VC\Tools\MSVC\14.29.30133\atlmfc\include\afxcoll.inl
; File D:\git\src\IBK\IBK_DRFN\ProjSrc\SrcChartEx\ChartOCX\IndicatorCondition\IndicatorListImplementation.cpp
; File C:\Program Files (x86)\Microsoft Visual Studio\2019\Community\VC\Tools\MSVC\14.29.30133\atlmfc\include\afxcoll.inl
; File D:\git\src\IBK\IBK_DRFN\ProjSrc\SrcChartEx\ChartOCX\IndicatorCondition\IndicatorListImplementation.cpp
; File C:\Program Files (x86)\Microsoft Visual Studio\2019\Community\VC\Tools\MSVC\14.29.30133\atlmfc\include\atlsimpstr.h
; File D:\git\src\IBK\IBK_DRFN\ProjSrc\SrcChartEx\ChartOCX\IndicatorCondition\IndicatorListImplementation.cpp
; File C:\Program Files (x86)\Microsoft Visual Studio\2019\Community\VC\Tools\MSVC\14.29.30133\atlmfc\include\afxcoll.inl
; File D:\git\src\IBK\IBK_DRFN\ProjSrc\SrcChartEx\ChartOCX\IndicatorCondition\IndicatorListImplementation.cpp
;	COMDAT ?GetSaveIndicatorInfoString@CIndicatorListImplementation@@QAEHW4EIndicatorListType@@AAV?$CStringT@DV?$StrTraitMFC_DLL@DV?$ChTraitsCRT@D@ATL@@@@@ATL@@@Z
_TEXT	SEGMENT
_slDataString$ = -40					; size = 28
__$EHRec$ = -12						; size = 12
_p_eIndicatorListType$ = 8				; size = 4
_nBufferLength$1$ = 12					; size = 4
_p_strIndicatorList$ = 12				; size = 4
?GetSaveIndicatorInfoString@CIndicatorListImplementation@@QAEHW4EIndicatorListType@@AAV?$CStringT@DV?$StrTraitMFC_DLL@DV?$ChTraitsCRT@D@ATL@@@@@ATL@@@Z PROC ; CIndicatorListImplementation::GetSaveIndicatorInfoString, COMDAT
; _this$ = ecx

; 111  : {

  00000	55		 push	 ebp
  00001	8b ec		 mov	 ebp, esp
  00003	6a ff		 push	 -1
  00005	68 00 00 00 00	 push	 __ehhandler$?GetSaveIndicatorInfoString@CIndicatorListImplementation@@QAEHW4EIndicatorListType@@AAV?$CStringT@DV?$StrTraitMFC_DLL@DV?$ChTraitsCRT@D@ATL@@@@@ATL@@@Z
  0000a	64 a1 00 00 00
	00		 mov	 eax, DWORD PTR fs:0
  00010	50		 push	 eax
  00011	83 ec 1c	 sub	 esp, 28			; 0000001cH
  00014	53		 push	 ebx
  00015	56		 push	 esi
  00016	57		 push	 edi
  00017	a1 00 00 00 00	 mov	 eax, DWORD PTR ___security_cookie
  0001c	33 c5		 xor	 eax, ebp
  0001e	50		 push	 eax
  0001f	8d 45 f4	 lea	 eax, DWORD PTR __$EHRec$[ebp]
  00022	64 a3 00 00 00
	00		 mov	 DWORD PTR fs:0, eax
  00028	8b f9		 mov	 edi, ecx

; 112  : 	p_strIndicatorList.Empty();

  0002a	8b 75 0c	 mov	 esi, DWORD PTR _p_strIndicatorList$[ebp]
  0002d	8b ce		 mov	 ecx, esi
  0002f	ff 15 00 00 00
	00		 call	 DWORD PTR __imp_?Empty@?$CSimpleStringT@D$00@ATL@@QAEXXZ

; 113  : 
; 114  : 	CStringList slDataString;

  00035	6a 0a		 push	 10			; 0000000aH
  00037	8d 4d d8	 lea	 ecx, DWORD PTR _slDataString$[ebp]
  0003a	e8 00 00 00 00	 call	 ??0CStringList@@QAE@H@Z	; CStringList::CStringList

; 115  : 
; 116  : 	switch( p_eIndicatorListType)

  0003f	8b 45 08	 mov	 eax, DWORD PTR _p_eIndicatorListType$[ebp]
  00042	c7 45 fc 00 00
	00 00		 mov	 DWORD PTR __$EHRec$[ebp+8], 0
  00049	83 e8 01	 sub	 eax, 1
  0004c	74 10		 je	 SHORT $LN9@GetSaveInd
  0004e	83 e8 02	 sub	 eax, 2
  00051	74 04		 je	 SHORT $LN8@GetSaveInd
  00053	33 db		 xor	 ebx, ebx
  00055	eb 7d		 jmp	 SHORT $LN14@GetSaveInd
$LN8@GetSaveInd:

; 117  : 	{
; 118  : 		case EILT_USER:	m_userIndiList.GetWritingFileData( slDataString);

  00057	b8 38 00 00 00	 mov	 eax, 56			; 00000038H

; 119  : 						break;

  0005c	eb 05		 jmp	 SHORT $LN2@GetSaveInd
$LN9@GetSaveInd:

; 120  : 		case EILT_MAP_DEFAULT:	m_mapDefaultIndiList.GetWritingFileData( slDataString);

  0005e	b8 10 00 00 00	 mov	 eax, 16			; 00000010H
$LN2@GetSaveInd:

; 121  : 								break;
; 122  : 		default:	return FALSE;
; 123  : 	}
; 124  : 
; 125  : 	// 1. Get Buffer Size
; 126  : 	int nBufferLength = 0;

  00063	8d 4d d8	 lea	 ecx, DWORD PTR _slDataString$[ebp]
  00066	51		 push	 ecx
  00067	8d 0c 38	 lea	 ecx, DWORD PTR [eax+edi]
  0006a	e8 00 00 00 00	 call	 ?GetWritingFileData@CUserIndicatorList@@QBEXAAVCStringList@@@Z ; CUserIndicatorList::GetWritingFileData

; 127  : 	POSITION psn = slDataString.GetHeadPosition();

  0006f	8b 55 dc	 mov	 edx, DWORD PTR _slDataString$[ebp+4]
  00072	33 c9		 xor	 ecx, ecx
  00074	89 4d 0c	 mov	 DWORD PTR _nBufferLength$1$[ebp], ecx
  00077	85 d2		 test	 edx, edx

; 128  : 	while( psn)

  00079	74 1a		 je	 SHORT $LN5@GetSaveInd
  0007b	0f 1f 44 00 00	 npad	 5
$LL4@GetSaveInd:
; File C:\Program Files (x86)\Microsoft Visual Studio\2019\Community\VC\Tools\MSVC\14.29.30133\atlmfc\include\afxcoll.inl

; 501  : 	{ CNode* pNode = (CNode*) rPosition;

  00080	8b c2		 mov	 eax, edx

; 502  : 		ASSERT(AfxIsValidAddress(pNode, sizeof(CNode)));
; 503  : 		if( pNode == NULL )

  00082	85 d2		 test	 edx, edx
  00084	74 6c		 je	 SHORT $LN36@GetSaveInd
; File D:\git\src\IBK\IBK_DRFN\ProjSrc\SrcChartEx\ChartOCX\IndicatorCondition\IndicatorListImplementation.cpp

; 131  : 		nBufferLength += strData.GetLength();

  00086	8b 40 08	 mov	 eax, DWORD PTR [eax+8]
; File C:\Program Files (x86)\Microsoft Visual Studio\2019\Community\VC\Tools\MSVC\14.29.30133\atlmfc\include\afxcoll.inl

; 505  : 		rPosition = (POSITION) pNode->pNext;

  00089	8b 12		 mov	 edx, DWORD PTR [edx]
; File D:\git\src\IBK\IBK_DRFN\ProjSrc\SrcChartEx\ChartOCX\IndicatorCondition\IndicatorListImplementation.cpp

; 131  : 		nBufferLength += strData.GetLength();

  0008b	03 48 f4	 add	 ecx, DWORD PTR [eax-12]
  0008e	89 4d 0c	 mov	 DWORD PTR _nBufferLength$1$[ebp], ecx
  00091	85 d2		 test	 edx, edx
  00093	75 eb		 jne	 SHORT $LL4@GetSaveInd
$LN5@GetSaveInd:

; 132  : 	}
; 133  : 	// 2. Set Buffer Size
; 134  : 	char *szBuffer = p_strIndicatorList.GetBufferSetLength( nBufferLength);

  00095	51		 push	 ecx
  00096	8b ce		 mov	 ecx, esi
  00098	ff 15 00 00 00
	00		 call	 DWORD PTR __imp_?GetBufferSetLength@?$CSimpleStringT@D$00@ATL@@QAEPADH@Z

; 135  : 	psn = slDataString.GetHeadPosition();

  0009e	8b 75 dc	 mov	 esi, DWORD PTR _slDataString$[ebp+4]
  000a1	8b d8		 mov	 ebx, eax
  000a3	85 f6		 test	 esi, esi

; 136  : 	while( psn)

  000a5	74 25		 je	 SHORT $LN7@GetSaveInd
$LL6@GetSaveInd:
; File C:\Program Files (x86)\Microsoft Visual Studio\2019\Community\VC\Tools\MSVC\14.29.30133\atlmfc\include\afxcoll.inl

; 501  : 	{ CNode* pNode = (CNode*) rPosition;

  000a7	8b fe		 mov	 edi, esi

; 502  : 		ASSERT(AfxIsValidAddress(pNode, sizeof(CNode)));
; 503  : 		if( pNode == NULL )

  000a9	85 f6		 test	 esi, esi
  000ab	74 45		 je	 SHORT $LN36@GetSaveInd

; 505  : 		rPosition = (POSITION) pNode->pNext;

  000ad	8b 36		 mov	 esi, DWORD PTR [esi]
; File D:\git\src\IBK\IBK_DRFN\ProjSrc\SrcChartEx\ChartOCX\IndicatorCondition\IndicatorListImplementation.cpp

; 139  : 		strcpy( szBuffer, strData);

  000af	8b c3		 mov	 eax, ebx
; File C:\Program Files (x86)\Microsoft Visual Studio\2019\Community\VC\Tools\MSVC\14.29.30133\atlmfc\include\atlsimpstr.h

; 377  : 		return( m_pszData );

  000b1	8b 57 08	 mov	 edx, DWORD PTR [edi+8]
$LL12@GetSaveInd:
; File D:\git\src\IBK\IBK_DRFN\ProjSrc\SrcChartEx\ChartOCX\IndicatorCondition\IndicatorListImplementation.cpp

; 139  : 		strcpy( szBuffer, strData);

  000b4	8a 0a		 mov	 cl, BYTE PTR [edx]
  000b6	8d 52 01	 lea	 edx, DWORD PTR [edx+1]
  000b9	88 08		 mov	 BYTE PTR [eax], cl
  000bb	8d 40 01	 lea	 eax, DWORD PTR [eax+1]
  000be	84 c9		 test	 cl, cl
  000c0	75 f2		 jne	 SHORT $LL12@GetSaveInd

; 140  : 		szBuffer += strData.GetLength();

  000c2	8b 47 08	 mov	 eax, DWORD PTR [edi+8]
  000c5	03 58 f4	 add	 ebx, DWORD PTR [eax-12]
  000c8	85 f6		 test	 esi, esi
  000ca	75 db		 jne	 SHORT $LL6@GetSaveInd
$LN7@GetSaveInd:

; 141  : 	}
; 142  : 
; 143  : 	return nBufferLength > 0;

  000cc	33 db		 xor	 ebx, ebx
  000ce	39 5d 0c	 cmp	 DWORD PTR _nBufferLength$1$[ebp], ebx
  000d1	0f 9f c3	 setg	 bl
$LN14@GetSaveInd:
  000d4	8d 4d d8	 lea	 ecx, DWORD PTR _slDataString$[ebp]
  000d7	e8 00 00 00 00	 call	 ??1CStringList@@UAE@XZ	; CStringList::~CStringList
  000dc	8b c3		 mov	 eax, ebx

; 144  : }

  000de	8b 4d f4	 mov	 ecx, DWORD PTR __$EHRec$[ebp]
  000e1	64 89 0d 00 00
	00 00		 mov	 DWORD PTR fs:0, ecx
  000e8	59		 pop	 ecx
  000e9	5f		 pop	 edi
  000ea	5e		 pop	 esi
  000eb	5b		 pop	 ebx
  000ec	8b e5		 mov	 esp, ebp
  000ee	5d		 pop	 ebp
  000ef	c2 08 00	 ret	 8
$LN36@GetSaveInd:
; File C:\Program Files (x86)\Microsoft Visual Studio\2019\Community\VC\Tools\MSVC\14.29.30133\atlmfc\include\afxcoll.inl

; 504  : 			AfxThrowInvalidArgException();

  000f2	e8 00 00 00 00	 call	 ?AfxThrowInvalidArgException@@YGXXZ ; AfxThrowInvalidArgException
$LN46@GetSaveInd:
  000f7	cc		 int	 3
_TEXT	ENDS
;	COMDAT text$x
text$x	SEGMENT
__unwindfunclet$?GetSaveIndicatorInfoString@CIndicatorListImplementation@@QAEHW4EIndicatorListType@@AAV?$CStringT@DV?$StrTraitMFC_DLL@DV?$ChTraitsCRT@D@ATL@@@@@ATL@@@Z$0:
  00000	8d 4d d8	 lea	 ecx, DWORD PTR _slDataString$[ebp]
  00003	e9 00 00 00 00	 jmp	 ??1CStringList@@UAE@XZ	; CStringList::~CStringList
  00008	cc		 int	 3
  00009	cc		 int	 3
  0000a	cc		 int	 3
  0000b	cc		 int	 3
  0000c	cc		 int	 3
__ehhandler$?GetSaveIndicatorInfoString@CIndicatorListImplementation@@QAEHW4EIndicatorListType@@AAV?$CStringT@DV?$StrTraitMFC_DLL@DV?$ChTraitsCRT@D@ATL@@@@@ATL@@@Z:
  0000d	90		 npad	 1
  0000e	90		 npad	 1
  0000f	8b 54 24 08	 mov	 edx, DWORD PTR [esp+8]
  00013	8d 42 0c	 lea	 eax, DWORD PTR [edx+12]
  00016	8b 4a d4	 mov	 ecx, DWORD PTR [edx-44]
  00019	33 c8		 xor	 ecx, eax
  0001b	e8 00 00 00 00	 call	 @__security_check_cookie@4
  00020	b8 00 00 00 00	 mov	 eax, OFFSET __ehfuncinfo$?GetSaveIndicatorInfoString@CIndicatorListImplementation@@QAEHW4EIndicatorListType@@AAV?$CStringT@DV?$StrTraitMFC_DLL@DV?$ChTraitsCRT@D@ATL@@@@@ATL@@@Z
  00025	e9 00 00 00 00	 jmp	 ___CxxFrameHandler3
text$x	ENDS
?GetSaveIndicatorInfoString@CIndicatorListImplementation@@QAEHW4EIndicatorListType@@AAV?$CStringT@DV?$StrTraitMFC_DLL@DV?$ChTraitsCRT@D@ATL@@@@@ATL@@@Z ENDP ; CIndicatorListImplementation::GetSaveIndicatorInfoString
; Function compile flags: /Ogtp
; File D:\git\src\IBK\IBK_DRFN\ProjSrc\SrcChartEx\ChartOCX\IndicatorCondition\IndicatorListImplementation.cpp
;	COMDAT ?SaveIndicatorInfo@CIndicatorListImplementation@@QAEHW4EIndicatorListType@@PBD@Z
_TEXT	SEGMENT
_slDataString$2 = -68					; size = 28
_slDataString$3 = -40					; size = 28
__$EHRec$ = -12						; size = 12
_p_eIndicatorListType$ = 8				; size = 4
_szFilePath$ = 12					; size = 4
$T4 = 15						; size = 1
$T5 = 15						; size = 1
?SaveIndicatorInfo@CIndicatorListImplementation@@QAEHW4EIndicatorListType@@PBD@Z PROC ; CIndicatorListImplementation::SaveIndicatorInfo, COMDAT
; _this$ = ecx

; 88   : {

  00000	55		 push	 ebp
  00001	8b ec		 mov	 ebp, esp
  00003	6a ff		 push	 -1
  00005	68 00 00 00 00	 push	 __ehhandler$?SaveIndicatorInfo@CIndicatorListImplementation@@QAEHW4EIndicatorListType@@PBD@Z
  0000a	64 a1 00 00 00
	00		 mov	 eax, DWORD PTR fs:0
  00010	50		 push	 eax
  00011	83 ec 38	 sub	 esp, 56			; 00000038H
  00014	56		 push	 esi
  00015	57		 push	 edi
  00016	a1 00 00 00 00	 mov	 eax, DWORD PTR ___security_cookie
  0001b	33 c5		 xor	 eax, ebp
  0001d	50		 push	 eax
  0001e	8d 45 f4	 lea	 eax, DWORD PTR __$EHRec$[ebp]
  00021	64 a3 00 00 00
	00		 mov	 DWORD PTR fs:0, eax
  00027	8b f9		 mov	 edi, ecx

; 89   : 	if( !szFilePath) return FALSE;

  00029	8b 75 0c	 mov	 esi, DWORD PTR _szFilePath$[ebp]
  0002c	85 f6		 test	 esi, esi
  0002e	0f 84 b0 00 00
	00		 je	 $LN12@SaveIndica

; 90   : 	if( !*szFilePath) return FALSE;

  00034	80 3e 00	 cmp	 BYTE PTR [esi], 0
  00037	0f 84 a7 00 00
	00		 je	 $LN12@SaveIndica

; 91   : 	if( EILT_USER != p_eIndicatorListType && EILT_USER_DEFAULT != p_eIndicatorListType) return FALSE;

  0003d	8b 45 08	 mov	 eax, DWORD PTR _p_eIndicatorListType$[ebp]
  00040	83 f8 03	 cmp	 eax, 3
  00043	74 55		 je	 SHORT $LN10@SaveIndica
  00045	83 f8 02	 cmp	 eax, 2
  00048	0f 85 96 00 00
	00		 jne	 $LN12@SaveIndica

; 98   : 	}
; 99   : 
; 100  : 	if( EILT_USER_DEFAULT == p_eIndicatorListType)
; 101  : 	{
; 102  : 		CStringList slDataString;

  0004e	6a 0a		 push	 10			; 0000000aH
  00050	8d 4d d8	 lea	 ecx, DWORD PTR _slDataString$3[ebp]
  00053	e8 00 00 00 00	 call	 ??0CStringList@@QAE@H@Z	; CStringList::CStringList

; 103  : 		m_unchangeableData.GetWritingFileData( slDataString);

  00058	8d 45 d8	 lea	 eax, DWORD PTR _slDataString$3[ebp]
  0005b	c7 45 fc 01 00
	00 00		 mov	 DWORD PTR __$EHRec$[ebp+8], 1
  00062	50		 push	 eax
  00063	b9 00 00 00 00	 mov	 ecx, OFFSET ?m_unchangeableData@CIndicatorListImplementation@@1VCUnchangeableData@@A ; CIndicatorListImplementation::m_unchangeableData
  00068	e8 00 00 00 00	 call	 ?GetWritingFileData@CUnchangeableData@@QBEXAAVCStringList@@@Z ; CUnchangeableData::GetWritingFileData

; 104  : 		return CFileBuilder().FileCreatWrite( szFilePath, slDataString);

  0006d	8d 45 d8	 lea	 eax, DWORD PTR _slDataString$3[ebp]
  00070	50		 push	 eax
  00071	56		 push	 esi
  00072	8d 4d 0f	 lea	 ecx, DWORD PTR $T4[ebp]
  00075	e8 00 00 00 00	 call	 ?FileCreatWrite@CFileBuilder@@QAE_NPBDAAVCStringList@@@Z ; CFileBuilder::FileCreatWrite
  0007a	8d 4d d8	 lea	 ecx, DWORD PTR _slDataString$3[ebp]
  0007d	0f b6 f0	 movzx	 esi, al
  00080	e8 00 00 00 00	 call	 ??1CStringList@@UAE@XZ	; CStringList::~CStringList
  00085	8b c6		 mov	 eax, esi

; 105  : 	}
; 106  : 
; 107  : 	return FALSE;
; 108  : }

  00087	8b 4d f4	 mov	 ecx, DWORD PTR __$EHRec$[ebp]
  0008a	64 89 0d 00 00
	00 00		 mov	 DWORD PTR fs:0, ecx
  00091	59		 pop	 ecx
  00092	5f		 pop	 edi
  00093	5e		 pop	 esi
  00094	8b e5		 mov	 esp, ebp
  00096	5d		 pop	 ebp
  00097	c2 08 00	 ret	 8
$LN10@SaveIndica:

; 92   : 
; 93   : 	if( EILT_USER == p_eIndicatorListType)
; 94   : 	{
; 95   : 		CStringList slDataString;

  0009a	6a 0a		 push	 10			; 0000000aH
  0009c	8d 4d bc	 lea	 ecx, DWORD PTR _slDataString$2[ebp]
  0009f	e8 00 00 00 00	 call	 ??0CStringList@@QAE@H@Z	; CStringList::CStringList

; 96   : 		m_userIndiList.GetWritingFileData( slDataString);

  000a4	8d 45 bc	 lea	 eax, DWORD PTR _slDataString$2[ebp]
  000a7	c7 45 fc 00 00
	00 00		 mov	 DWORD PTR __$EHRec$[ebp+8], 0
  000ae	50		 push	 eax
  000af	8d 4f 38	 lea	 ecx, DWORD PTR [edi+56]
  000b2	e8 00 00 00 00	 call	 ?GetWritingFileData@CUserIndicatorList@@QBEXAAVCStringList@@@Z ; CUserIndicatorList::GetWritingFileData

; 97   : 		return CFileBuilder().FileCreatWrite( szFilePath, slDataString);

  000b7	8d 45 bc	 lea	 eax, DWORD PTR _slDataString$2[ebp]
  000ba	50		 push	 eax
  000bb	56		 push	 esi
  000bc	8d 4d 0f	 lea	 ecx, DWORD PTR $T5[ebp]
  000bf	e8 00 00 00 00	 call	 ?FileCreatWrite@CFileBuilder@@QAE_NPBDAAVCStringList@@@Z ; CFileBuilder::FileCreatWrite
  000c4	8d 4d bc	 lea	 ecx, DWORD PTR _slDataString$2[ebp]
  000c7	0f b6 f0	 movzx	 esi, al
  000ca	e8 00 00 00 00	 call	 ??1CStringList@@UAE@XZ	; CStringList::~CStringList
  000cf	8b c6		 mov	 eax, esi

; 105  : 	}
; 106  : 
; 107  : 	return FALSE;
; 108  : }

  000d1	8b 4d f4	 mov	 ecx, DWORD PTR __$EHRec$[ebp]
  000d4	64 89 0d 00 00
	00 00		 mov	 DWORD PTR fs:0, ecx
  000db	59		 pop	 ecx
  000dc	5f		 pop	 edi
  000dd	5e		 pop	 esi
  000de	8b e5		 mov	 esp, ebp
  000e0	5d		 pop	 ebp
  000e1	c2 08 00	 ret	 8
$LN12@SaveIndica:

; 91   : 	if( EILT_USER != p_eIndicatorListType && EILT_USER_DEFAULT != p_eIndicatorListType) return FALSE;

  000e4	33 c0		 xor	 eax, eax

; 105  : 	}
; 106  : 
; 107  : 	return FALSE;
; 108  : }

  000e6	8b 4d f4	 mov	 ecx, DWORD PTR __$EHRec$[ebp]
  000e9	64 89 0d 00 00
	00 00		 mov	 DWORD PTR fs:0, ecx
  000f0	59		 pop	 ecx
  000f1	5f		 pop	 edi
  000f2	5e		 pop	 esi
  000f3	8b e5		 mov	 esp, ebp
  000f5	5d		 pop	 ebp
  000f6	c2 08 00	 ret	 8
_TEXT	ENDS
;	COMDAT text$x
text$x	SEGMENT
__unwindfunclet$?SaveIndicatorInfo@CIndicatorListImplementation@@QAEHW4EIndicatorListType@@PBD@Z$1:
  00000	8d 4d d8	 lea	 ecx, DWORD PTR _slDataString$3[ebp]
  00003	e9 00 00 00 00	 jmp	 ??1CStringList@@UAE@XZ	; CStringList::~CStringList
__unwindfunclet$?SaveIndicatorInfo@CIndicatorListImplementation@@QAEHW4EIndicatorListType@@PBD@Z$0:
  00008	8d 4d bc	 lea	 ecx, DWORD PTR _slDataString$2[ebp]
  0000b	e9 00 00 00 00	 jmp	 ??1CStringList@@UAE@XZ	; CStringList::~CStringList
  00010	cc		 int	 3
  00011	cc		 int	 3
  00012	cc		 int	 3
  00013	cc		 int	 3
  00014	cc		 int	 3
__ehhandler$?SaveIndicatorInfo@CIndicatorListImplementation@@QAEHW4EIndicatorListType@@PBD@Z:
  00015	90		 npad	 1
  00016	90		 npad	 1
  00017	8b 54 24 08	 mov	 edx, DWORD PTR [esp+8]
  0001b	8d 42 0c	 lea	 eax, DWORD PTR [edx+12]
  0001e	8b 4a bc	 mov	 ecx, DWORD PTR [edx-68]
  00021	33 c8		 xor	 ecx, eax
  00023	e8 00 00 00 00	 call	 @__security_check_cookie@4
  00028	b8 00 00 00 00	 mov	 eax, OFFSET __ehfuncinfo$?SaveIndicatorInfo@CIndicatorListImplementation@@QAEHW4EIndicatorListType@@PBD@Z
  0002d	e9 00 00 00 00	 jmp	 ___CxxFrameHandler3
text$x	ENDS
?SaveIndicatorInfo@CIndicatorListImplementation@@QAEHW4EIndicatorListType@@PBD@Z ENDP ; CIndicatorListImplementation::SaveIndicatorInfo
; Function compile flags: /Ogtp
; File D:\git\src\IBK\IBK_DRFN\ProjSrc\SrcChartEx\ChartOCX\IndicatorCondition\IndicatorListImplementation.cpp
; File C:\Program Files (x86)\Microsoft Visual Studio\2019\Community\VC\Tools\MSVC\14.29.30133\atlmfc\include\atlsimpstr.h
; File D:\git\src\IBK\IBK_DRFN\ProjSrc\SrcChartEx\ChartOCX\IndicatorCondition\IndicatorListImplementation.cpp
; File C:\Program Files (x86)\Microsoft Visual Studio\2019\Community\VC\Tools\MSVC\14.29.30133\atlmfc\include\atlsimpstr.h
; File D:\git\src\IBK\IBK_DRFN\ProjSrc\SrcChartEx\ChartOCX\IndicatorCondition\IndicatorListImplementation.cpp
; File C:\Program Files (x86)\Microsoft Visual Studio\2019\Community\VC\Tools\MSVC\14.29.30133\atlmfc\include\atlsimpstr.h
; File D:\git\src\IBK\IBK_DRFN\ProjSrc\SrcChartEx\ChartOCX\IndicatorCondition\IndicatorListImplementation.cpp
;	COMDAT ?LoadIndicatorInfoFromString@CIndicatorListImplementation@@QAEHW4EIndicatorListType@@ABV?$CStringT@DV?$StrTraitMFC_DLL@DV?$ChTraitsCRT@D@ATL@@@@@ATL@@@Z
_TEXT	SEGMENT
_strFileData$ = -16					; size = 4
__$EHRec$ = -12						; size = 12
_p_eIndicatorListType$ = 8				; size = 4
_szFileData$ = 12					; size = 4
_p_strIndicatorList$ = 12				; size = 4
?LoadIndicatorInfoFromString@CIndicatorListImplementation@@QAEHW4EIndicatorListType@@ABV?$CStringT@DV?$StrTraitMFC_DLL@DV?$ChTraitsCRT@D@ATL@@@@@ATL@@@Z PROC ; CIndicatorListImplementation::LoadIndicatorInfoFromString, COMDAT
; _this$ = ecx

; 67   : {

  00000	55		 push	 ebp
  00001	8b ec		 mov	 ebp, esp
  00003	6a ff		 push	 -1
  00005	68 00 00 00 00	 push	 __ehhandler$?LoadIndicatorInfoFromString@CIndicatorListImplementation@@QAEHW4EIndicatorListType@@ABV?$CStringT@DV?$StrTraitMFC_DLL@DV?$ChTraitsCRT@D@ATL@@@@@ATL@@@Z
  0000a	64 a1 00 00 00
	00		 mov	 eax, DWORD PTR fs:0
  00010	50		 push	 eax
  00011	51		 push	 ecx
  00012	56		 push	 esi
  00013	57		 push	 edi
  00014	a1 00 00 00 00	 mov	 eax, DWORD PTR ___security_cookie
  00019	33 c5		 xor	 eax, ebp
  0001b	50		 push	 eax
  0001c	8d 45 f4	 lea	 eax, DWORD PTR __$EHRec$[ebp]
  0001f	64 a3 00 00 00
	00		 mov	 DWORD PTR fs:0, eax
  00025	8b f1		 mov	 esi, ecx
; File C:\Program Files (x86)\Microsoft Visual Studio\2019\Community\VC\Tools\MSVC\14.29.30133\atlmfc\include\atlsimpstr.h

; 519  : 		return( GetData()->nDataLength );

  00027	8b 7d 0c	 mov	 edi, DWORD PTR _p_strIndicatorList$[ebp]
  0002a	8b 07		 mov	 eax, DWORD PTR [edi]

; 533  : 		return( GetLength() == 0 );

  0002c	83 78 f4 00	 cmp	 DWORD PTR [eax-12], 0
; File D:\git\src\IBK\IBK_DRFN\ProjSrc\SrcChartEx\ChartOCX\IndicatorCondition\IndicatorListImplementation.cpp

; 68   : 	if( p_strIndicatorList.IsEmpty()) return FALSE;

  00030	75 15		 jne	 SHORT $LN4@LoadIndica
  00032	33 c0		 xor	 eax, eax

; 81   : }

  00034	8b 4d f4	 mov	 ecx, DWORD PTR __$EHRec$[ebp]
  00037	64 89 0d 00 00
	00 00		 mov	 DWORD PTR fs:0, ecx
  0003e	59		 pop	 ecx
  0003f	5f		 pop	 edi
  00040	5e		 pop	 esi
  00041	8b e5		 mov	 esp, ebp
  00043	5d		 pop	 ebp
  00044	c2 08 00	 ret	 8
$LN4@LoadIndica:

; 69   : 
; 70   : 	CString strFileData;

  00047	8d 4d f0	 lea	 ecx, DWORD PTR _strFileData$[ebp]
  0004a	ff 15 00 00 00
	00		 call	 DWORD PTR __imp_??0?$CStringT@DV?$StrTraitMFC_DLL@DV?$ChTraitsCRT@D@ATL@@@@@ATL@@QAE@XZ
; File C:\Program Files (x86)\Microsoft Visual Studio\2019\Community\VC\Tools\MSVC\14.29.30133\atlmfc\include\atlsimpstr.h

; 519  : 		return( GetData()->nDataLength );

  00050	8b 07		 mov	 eax, DWORD PTR [edi]
; File D:\git\src\IBK\IBK_DRFN\ProjSrc\SrcChartEx\ChartOCX\IndicatorCondition\IndicatorListImplementation.cpp

; 71   : 	char *szFileData = strFileData.GetBufferSetLength( p_strIndicatorList.GetLength());

  00052	8d 4d f0	 lea	 ecx, DWORD PTR _strFileData$[ebp]
  00055	c7 45 fc 00 00
	00 00		 mov	 DWORD PTR __$EHRec$[ebp+8], 0
  0005c	ff 70 f4	 push	 DWORD PTR [eax-12]
  0005f	ff 15 00 00 00
	00		 call	 DWORD PTR __imp_?GetBufferSetLength@?$CSimpleStringT@D$00@ATL@@QAEPADH@Z
; File C:\Program Files (x86)\Microsoft Visual Studio\2019\Community\VC\Tools\MSVC\14.29.30133\atlmfc\include\atlsimpstr.h

; 377  : 		return( m_pszData );

  00065	8b 17		 mov	 edx, DWORD PTR [edi]
; File D:\git\src\IBK\IBK_DRFN\ProjSrc\SrcChartEx\ChartOCX\IndicatorCondition\IndicatorListImplementation.cpp

; 71   : 	char *szFileData = strFileData.GetBufferSetLength( p_strIndicatorList.GetLength());

  00067	89 45 0c	 mov	 DWORD PTR _szFileData$[ebp], eax
  0006a	66 0f 1f 44 00
	00		 npad	 6
$LL8@LoadIndica:

; 72   : 	strcpy( szFileData, p_strIndicatorList);

  00070	8a 0a		 mov	 cl, BYTE PTR [edx]
  00072	8d 52 01	 lea	 edx, DWORD PTR [edx+1]
  00075	88 08		 mov	 BYTE PTR [eax], cl
  00077	8d 40 01	 lea	 eax, DWORD PTR [eax+1]
  0007a	84 c9		 test	 cl, cl
  0007c	75 f2		 jne	 SHORT $LL8@LoadIndica

; 73   : 
; 74   : 	switch( p_eIndicatorListType)

  0007e	8b 45 08	 mov	 eax, DWORD PTR _p_eIndicatorListType$[ebp]
  00081	83 e8 01	 sub	 eax, 1
  00084	74 0e		 je	 SHORT $LN6@LoadIndica
  00086	83 e8 02	 sub	 eax, 2
  00089	74 04		 je	 SHORT $LN5@LoadIndica

; 78   : 	}
; 79   : 
; 80   : 	return FALSE;

  0008b	33 f6		 xor	 esi, esi
  0008d	eb 19		 jmp	 SHORT $LN11@LoadIndica
$LN5@LoadIndica:

; 75   : 	{
; 76   : 		case EILT_USER:	return m_userIndiList.AddIndiInfoFromCfgString( m_pParent, szFileData, true);

  0008f	8d 4e 38	 lea	 ecx, DWORD PTR [esi+56]
  00092	eb 03		 jmp	 SHORT $LN28@LoadIndica
$LN6@LoadIndica:

; 77   : 		case EILT_MAP_DEFAULT:	return m_mapDefaultIndiList.AddIndiInfoFromCfgString( m_pParent, szFileData, true);

  00094	8d 4e 10	 lea	 ecx, DWORD PTR [esi+16]
$LN28@LoadIndica:

; 78   : 	}
; 79   : 
; 80   : 	return FALSE;

  00097	6a 01		 push	 1
  00099	8d 45 0c	 lea	 eax, DWORD PTR _szFileData$[ebp]
  0009c	50		 push	 eax
  0009d	ff 76 0c	 push	 DWORD PTR [esi+12]
  000a0	e8 00 00 00 00	 call	 ?AddIndiInfoFromCfgString@CUserIndicatorList@@QAE_NPAVCIndicatorList@@AAPAD_N@Z ; CUserIndicatorList::AddIndiInfoFromCfgString
  000a5	0f b6 f0	 movzx	 esi, al
$LN11@LoadIndica:
  000a8	8d 4d f0	 lea	 ecx, DWORD PTR _strFileData$[ebp]
  000ab	ff 15 00 00 00
	00		 call	 DWORD PTR __imp_??1?$CStringT@DV?$StrTraitMFC_DLL@DV?$ChTraitsCRT@D@ATL@@@@@ATL@@QAE@XZ
  000b1	8b c6		 mov	 eax, esi

; 81   : }

  000b3	8b 4d f4	 mov	 ecx, DWORD PTR __$EHRec$[ebp]
  000b6	64 89 0d 00 00
	00 00		 mov	 DWORD PTR fs:0, ecx
  000bd	59		 pop	 ecx
  000be	5f		 pop	 edi
  000bf	5e		 pop	 esi
  000c0	8b e5		 mov	 esp, ebp
  000c2	5d		 pop	 ebp
  000c3	c2 08 00	 ret	 8
_TEXT	ENDS
;	COMDAT text$x
text$x	SEGMENT
__unwindfunclet$?LoadIndicatorInfoFromString@CIndicatorListImplementation@@QAEHW4EIndicatorListType@@ABV?$CStringT@DV?$StrTraitMFC_DLL@DV?$ChTraitsCRT@D@ATL@@@@@ATL@@@Z$0:
  00000	8d 4d f0	 lea	 ecx, DWORD PTR _strFileData$[ebp]
  00003	ff 25 00 00 00
	00		 jmp	 DWORD PTR __imp_??1?$CStringT@DV?$StrTraitMFC_DLL@DV?$ChTraitsCRT@D@ATL@@@@@ATL@@QAE@XZ
  00009	cc		 int	 3
  0000a	cc		 int	 3
  0000b	cc		 int	 3
  0000c	cc		 int	 3
  0000d	cc		 int	 3
__ehhandler$?LoadIndicatorInfoFromString@CIndicatorListImplementation@@QAEHW4EIndicatorListType@@ABV?$CStringT@DV?$StrTraitMFC_DLL@DV?$ChTraitsCRT@D@ATL@@@@@ATL@@@Z:
  0000e	90		 npad	 1
  0000f	90		 npad	 1
  00010	8b 54 24 08	 mov	 edx, DWORD PTR [esp+8]
  00014	8d 42 0c	 lea	 eax, DWORD PTR [edx+12]
  00017	8b 4a f0	 mov	 ecx, DWORD PTR [edx-16]
  0001a	33 c8		 xor	 ecx, eax
  0001c	e8 00 00 00 00	 call	 @__security_check_cookie@4
  00021	b8 00 00 00 00	 mov	 eax, OFFSET __ehfuncinfo$?LoadIndicatorInfoFromString@CIndicatorListImplementation@@QAEHW4EIndicatorListType@@ABV?$CStringT@DV?$StrTraitMFC_DLL@DV?$ChTraitsCRT@D@ATL@@@@@ATL@@@Z
  00026	e9 00 00 00 00	 jmp	 ___CxxFrameHandler3
text$x	ENDS
?LoadIndicatorInfoFromString@CIndicatorListImplementation@@QAEHW4EIndicatorListType@@ABV?$CStringT@DV?$StrTraitMFC_DLL@DV?$ChTraitsCRT@D@ATL@@@@@ATL@@@Z ENDP ; CIndicatorListImplementation::LoadIndicatorInfoFromString
; Function compile flags: /Ogtp
; File D:\git\src\IBK\IBK_DRFN\ProjSrc\SrcChartEx\ChartOCX\IndicatorCondition\IndicatorListImplementation.cpp
; File C:\Program Files (x86)\Microsoft Visual Studio\2019\Community\VC\Tools\MSVC\14.29.30133\atlmfc\include\atlsimpstr.h
; File D:\git\src\IBK\IBK_DRFN\ProjSrc\SrcChartEx\ChartOCX\IndicatorCondition\IndicatorListImplementation.cpp
;	COMDAT ?LoadIndicatorInfo@CIndicatorListImplementation@@QAEHW4EIndicatorListType@@PBD@Z
_TEXT	SEGMENT
_szFileData$2 = -20					; size = 4
_strFileData$3 = -16					; size = 4
__$EHRec$ = -12						; size = 12
_p_eIndicatorListType$ = 8				; size = 4
$T4 = 11						; size = 1
_szFilePath$ = 12					; size = 4
?LoadIndicatorInfo@CIndicatorListImplementation@@QAEHW4EIndicatorListType@@PBD@Z PROC ; CIndicatorListImplementation::LoadIndicatorInfo, COMDAT
; _this$ = ecx

; 51   : {

  00000	55		 push	 ebp
  00001	8b ec		 mov	 ebp, esp
  00003	6a ff		 push	 -1
  00005	68 00 00 00 00	 push	 __ehhandler$?LoadIndicatorInfo@CIndicatorListImplementation@@QAEHW4EIndicatorListType@@PBD@Z
  0000a	64 a1 00 00 00
	00		 mov	 eax, DWORD PTR fs:0
  00010	50		 push	 eax
  00011	83 ec 08	 sub	 esp, 8
  00014	56		 push	 esi
  00015	a1 00 00 00 00	 mov	 eax, DWORD PTR ___security_cookie
  0001a	33 c5		 xor	 eax, ebp
  0001c	50		 push	 eax
  0001d	8d 45 f4	 lea	 eax, DWORD PTR __$EHRec$[ebp]
  00020	64 a3 00 00 00
	00		 mov	 DWORD PTR fs:0, eax
  00026	8b f1		 mov	 esi, ecx

; 52   : 	if( EILT_USER != p_eIndicatorListType) return FALSE;

  00028	83 7d 08 03	 cmp	 DWORD PTR _p_eIndicatorListType$[ebp], 3
  0002c	74 14		 je	 SHORT $LN2@LoadIndica
  0002e	33 c0		 xor	 eax, eax

; 62   : 	}
; 63   : 
; 64   : 	return FALSE;
; 65   : }

  00030	8b 4d f4	 mov	 ecx, DWORD PTR __$EHRec$[ebp]
  00033	64 89 0d 00 00
	00 00		 mov	 DWORD PTR fs:0, ecx
  0003a	59		 pop	 ecx
  0003b	5e		 pop	 esi
  0003c	8b e5		 mov	 esp, ebp
  0003e	5d		 pop	 ebp
  0003f	c2 08 00	 ret	 8
$LN2@LoadIndica:

; 53   : 
; 54   : 	if( EILT_USER == p_eIndicatorListType)
; 55   : 	{
; 56   : 		CString strFileData;

  00042	8d 4d f0	 lea	 ecx, DWORD PTR _strFileData$3[ebp]
  00045	ff 15 00 00 00
	00		 call	 DWORD PTR __imp_??0?$CStringT@DV?$StrTraitMFC_DLL@DV?$ChTraitsCRT@D@ATL@@@@@ATL@@QAE@XZ

; 57   : 		char *szFileData = CFileBuilder().FileRead( szFilePath, strFileData);

  0004b	8d 45 f0	 lea	 eax, DWORD PTR _strFileData$3[ebp]
  0004e	c7 45 fc 00 00
	00 00		 mov	 DWORD PTR __$EHRec$[ebp+8], 0
  00055	50		 push	 eax
  00056	ff 75 0c	 push	 DWORD PTR _szFilePath$[ebp]
  00059	8d 4d 0b	 lea	 ecx, DWORD PTR $T4[ebp]
  0005c	e8 00 00 00 00	 call	 ?FileRead@CFileBuilder@@QBEPADPBDAAV?$CStringT@DV?$StrTraitMFC_DLL@DV?$ChTraitsCRT@D@ATL@@@@@ATL@@@Z ; CFileBuilder::FileRead
  00061	89 45 ec	 mov	 DWORD PTR _szFileData$2[ebp], eax
; File C:\Program Files (x86)\Microsoft Visual Studio\2019\Community\VC\Tools\MSVC\14.29.30133\atlmfc\include\atlsimpstr.h

; 533  : 		return( GetLength() == 0 );

  00064	8b 45 f0	 mov	 eax, DWORD PTR _strFileData$3[ebp]
  00067	83 78 f4 00	 cmp	 DWORD PTR [eax-12], 0
; File D:\git\src\IBK\IBK_DRFN\ProjSrc\SrcChartEx\ChartOCX\IndicatorCondition\IndicatorListImplementation.cpp

; 58   : 		if( strFileData.IsEmpty()) return FALSE;

  0006b	75 04		 jne	 SHORT $LN4@LoadIndica
  0006d	33 f6		 xor	 esi, esi
  0006f	eb 14		 jmp	 SHORT $LN7@LoadIndica
$LN4@LoadIndica:

; 59   : 
; 60   : 		//   
; 61   : 		return m_userIndiList.AddIndiInfoFromCfgString( m_pParent, szFileData, true);

  00071	6a 01		 push	 1
  00073	8d 45 ec	 lea	 eax, DWORD PTR _szFileData$2[ebp]
  00076	50		 push	 eax
  00077	ff 76 0c	 push	 DWORD PTR [esi+12]
  0007a	8d 4e 38	 lea	 ecx, DWORD PTR [esi+56]
  0007d	e8 00 00 00 00	 call	 ?AddIndiInfoFromCfgString@CUserIndicatorList@@QAE_NPAVCIndicatorList@@AAPAD_N@Z ; CUserIndicatorList::AddIndiInfoFromCfgString
  00082	0f b6 f0	 movzx	 esi, al
$LN7@LoadIndica:
  00085	8d 4d f0	 lea	 ecx, DWORD PTR _strFileData$3[ebp]
  00088	ff 15 00 00 00
	00		 call	 DWORD PTR __imp_??1?$CStringT@DV?$StrTraitMFC_DLL@DV?$ChTraitsCRT@D@ATL@@@@@ATL@@QAE@XZ
  0008e	8b c6		 mov	 eax, esi

; 62   : 	}
; 63   : 
; 64   : 	return FALSE;
; 65   : }

  00090	8b 4d f4	 mov	 ecx, DWORD PTR __$EHRec$[ebp]
  00093	64 89 0d 00 00
	00 00		 mov	 DWORD PTR fs:0, ecx
  0009a	59		 pop	 ecx
  0009b	5e		 pop	 esi
  0009c	8b e5		 mov	 esp, ebp
  0009e	5d		 pop	 ebp
  0009f	c2 08 00	 ret	 8
_TEXT	ENDS
;	COMDAT text$x
text$x	SEGMENT
__unwindfunclet$?LoadIndicatorInfo@CIndicatorListImplementation@@QAEHW4EIndicatorListType@@PBD@Z$0:
  00000	8d 4d f0	 lea	 ecx, DWORD PTR _strFileData$3[ebp]
  00003	ff 25 00 00 00
	00		 jmp	 DWORD PTR __imp_??1?$CStringT@DV?$StrTraitMFC_DLL@DV?$ChTraitsCRT@D@ATL@@@@@ATL@@QAE@XZ
  00009	cc		 int	 3
  0000a	cc		 int	 3
  0000b	cc		 int	 3
  0000c	cc		 int	 3
  0000d	cc		 int	 3
__ehhandler$?LoadIndicatorInfo@CIndicatorListImplementation@@QAEHW4EIndicatorListType@@PBD@Z:
  0000e	90		 npad	 1
  0000f	90		 npad	 1
  00010	8b 54 24 08	 mov	 edx, DWORD PTR [esp+8]
  00014	8d 42 0c	 lea	 eax, DWORD PTR [edx+12]
  00017	8b 4a f0	 mov	 ecx, DWORD PTR [edx-16]
  0001a	33 c8		 xor	 ecx, eax
  0001c	e8 00 00 00 00	 call	 @__security_check_cookie@4
  00021	b8 00 00 00 00	 mov	 eax, OFFSET __ehfuncinfo$?LoadIndicatorInfo@CIndicatorListImplementation@@QAEHW4EIndicatorListType@@PBD@Z
  00026	e9 00 00 00 00	 jmp	 ___CxxFrameHandler3
text$x	ENDS
?LoadIndicatorInfo@CIndicatorListImplementation@@QAEHW4EIndicatorListType@@PBD@Z ENDP ; CIndicatorListImplementation::LoadIndicatorInfo
; Function compile flags: /Ogtp
; File D:\git\src\IBK\IBK_DRFN\ProjSrc\SrcChartEx\ChartOCX\IndicatorCondition\IndicatorListImplementation.cpp
;	COMDAT ??1CIndicatorListImplementation@@UAE@XZ
_TEXT	SEGMENT
??1CIndicatorListImplementation@@UAE@XZ PROC		; CIndicatorListImplementation::~CIndicatorListImplementation, COMDAT
; _this$ = ecx

; 43   : {

  00000	56		 push	 esi
  00001	8b f1		 mov	 esi, ecx

; 44   : }

  00003	8d 4e 64	 lea	 ecx, DWORD PTR [esi+100]
  00006	c7 06 00 00 00
	00		 mov	 DWORD PTR [esi], OFFSET ??_7CIndicatorListImplementation@@6B@
  0000c	e8 00 00 00 00	 call	 ??1CIndicatorGroupDataList@@UAE@XZ ; CIndicatorGroupDataList::~CIndicatorGroupDataList
  00011	8d 4e 38	 lea	 ecx, DWORD PTR [esi+56]
  00014	e8 00 00 00 00	 call	 ??1CBaseIndicatorList@@UAE@XZ ; CBaseIndicatorList::~CBaseIndicatorList
  00019	8d 4e 10	 lea	 ecx, DWORD PTR [esi+16]
  0001c	5e		 pop	 esi
  0001d	e9 00 00 00 00	 jmp	 ??1CBaseIndicatorList@@UAE@XZ ; CBaseIndicatorList::~CBaseIndicatorList
??1CIndicatorListImplementation@@UAE@XZ ENDP		; CIndicatorListImplementation::~CIndicatorListImplementation
_TEXT	ENDS
; Function compile flags: /Ogtp
; File D:\git\src\IBK\IBK_DRFN\ProjSrc\SrcChartEx\ChartOCX\IndicatorCondition\IndicatorListImplementation.cpp
; File C:\Program Files (x86)\Microsoft Visual Studio\2019\Community\VC\Tools\MSVC\14.29.30133\atlmfc\include\afxtempl.h
; File D:\git\src\IBK\IBK_DRFN\ProjSrc\SrcChartEx\ChartOCX\IndicatorCondition\IndicatorListImplementation.cpp
; File C:\Program Files (x86)\Microsoft Visual Studio\2019\Community\VC\Tools\MSVC\14.29.30133\atlmfc\include\atlsimpstr.h
; File D:\git\src\IBK\IBK_DRFN\ProjSrc\SrcChartEx\ChartOCX\IndicatorCondition\IndicatorListImplementation.cpp
; File C:\Program Files (x86)\Microsoft Visual Studio\2019\Community\VC\Tools\MSVC\14.29.30133\atlmfc\include\atlsimpstr.h
; File D:\git\src\IBK\IBK_DRFN\ProjSrc\SrcChartEx\ChartOCX\IndicatorCondition\IndicatorListImplementation.cpp
; File C:\Program Files (x86)\Microsoft Visual Studio\2019\Community\VC\Tools\MSVC\14.29.30133\atlmfc\include\atlsimpstr.h
; File D:\git\src\IBK\IBK_DRFN\ProjSrc\SrcChartEx\ChartOCX\IndicatorCondition\IndicatorListImplementation.cpp
;	COMDAT ??0CIndicatorListImplementation@@QAE@PAUHWND__@@PAVCIndicatorList@@ABV?$CStringT@DV?$StrTraitMFC_DLL@DV?$ChTraitsCRT@D@ATL@@@@@ATL@@22W4CHART_MODE@CChartInfo@@@Z
_TEXT	SEGMENT
_this$ = -16						; size = 4
__$EHRec$ = -12						; size = 12
_strFileData$2 = 8					; size = 4
_p_hOcxWnd$ = 8						; size = 4
_pIndicatorList$ = 12					; size = 4
$T3 = 15						; size = 1
_strMainDefaultFilePathAndName$ = 16			; size = 4
_strUserDefaultFilePathAndName$ = 20			; size = 4
_strUserFilePathAndName$ = 24				; size = 4
_szFileData$4 = 28					; size = 4
_p_eChartMode$ = 28					; size = 4
??0CIndicatorListImplementation@@QAE@PAUHWND__@@PAVCIndicatorList@@ABV?$CStringT@DV?$StrTraitMFC_DLL@DV?$ChTraitsCRT@D@ATL@@@@@ATL@@22W4CHART_MODE@CChartInfo@@@Z PROC ; CIndicatorListImplementation::CIndicatorListImplementation, COMDAT
; _this$ = ecx

; 32   : {

  00000	55		 push	 ebp
  00001	8b ec		 mov	 ebp, esp
  00003	6a ff		 push	 -1
  00005	68 00 00 00 00	 push	 __ehhandler$??0CIndicatorListImplementation@@QAE@PAUHWND__@@PAVCIndicatorList@@ABV?$CStringT@DV?$StrTraitMFC_DLL@DV?$ChTraitsCRT@D@ATL@@@@@ATL@@22W4CHART_MODE@CChartInfo@@@Z
  0000a	64 a1 00 00 00
	00		 mov	 eax, DWORD PTR fs:0
  00010	50		 push	 eax
  00011	51		 push	 ecx
  00012	53		 push	 ebx
  00013	56		 push	 esi
  00014	57		 push	 edi
  00015	a1 00 00 00 00	 mov	 eax, DWORD PTR ___security_cookie
  0001a	33 c5		 xor	 eax, ebp
  0001c	50		 push	 eax
  0001d	8d 45 f4	 lea	 eax, DWORD PTR __$EHRec$[ebp]
  00020	64 a3 00 00 00
	00		 mov	 DWORD PTR fs:0, eax
  00026	8b f9		 mov	 edi, ecx
  00028	89 7d f0	 mov	 DWORD PTR _this$[ebp], edi

; 30   : 		m_mapDefaultIndiList( m_unchangeableData.GetMainDefaultIndicatorList_Pointer(), EILT_MAP_DEFAULT, p_hOcxWnd),

  0002b	8b 75 08	 mov	 esi, DWORD PTR _p_hOcxWnd$[ebp]
  0002e	b9 00 00 00 00	 mov	 ecx, OFFSET ?m_unchangeableData@CIndicatorListImplementation@@1VCUnchangeableData@@A ; CIndicatorListImplementation::m_unchangeableData
  00033	8b 45 0c	 mov	 eax, DWORD PTR _pIndicatorList$[ebp]
  00036	56		 push	 esi
  00037	6a 01		 push	 1
  00039	c7 07 00 00 00
	00		 mov	 DWORD PTR [edi], OFFSET ??_7CIndicatorListImplementation@@6B@
  0003f	c7 47 08 00 00
	00 00		 mov	 DWORD PTR [edi+8], 0
  00046	89 47 0c	 mov	 DWORD PTR [edi+12], eax
  00049	e8 00 00 00 00	 call	 ?GetMainDefaultIndicatorList_Pointer@CUnchangeableData@@QAEPAVCDefaultIndicatorList@@XZ ; CUnchangeableData::GetMainDefaultIndicatorList_Pointer
  0004e	50		 push	 eax
  0004f	8d 4f 10	 lea	 ecx, DWORD PTR [edi+16]
  00052	e8 00 00 00 00	 call	 ??0CUserIndicatorList@@QAE@PAVCDefaultIndicatorList@@W4EIndicatorListType@@PAUHWND__@@@Z ; CUserIndicatorList::CUserIndicatorList

; 31   : 		m_userIndiList( m_unchangeableData.GetMainDefaultIndicatorList_Pointer(), EILT_USER, p_hOcxWnd)

  00057	56		 push	 esi
  00058	6a 03		 push	 3
  0005a	b9 00 00 00 00	 mov	 ecx, OFFSET ?m_unchangeableData@CIndicatorListImplementation@@1VCUnchangeableData@@A ; CIndicatorListImplementation::m_unchangeableData
  0005f	c7 45 fc 00 00
	00 00		 mov	 DWORD PTR __$EHRec$[ebp+8], 0
  00066	e8 00 00 00 00	 call	 ?GetMainDefaultIndicatorList_Pointer@CUnchangeableData@@QAEPAVCDefaultIndicatorList@@XZ ; CUnchangeableData::GetMainDefaultIndicatorList_Pointer
  0006b	50		 push	 eax
  0006c	8d 4f 38	 lea	 ecx, DWORD PTR [edi+56]
  0006f	e8 00 00 00 00	 call	 ??0CUserIndicatorList@@QAE@PAVCDefaultIndicatorList@@W4EIndicatorListType@@PAUHWND__@@@Z ; CUserIndicatorList::CUserIndicatorList
  00074	c7 47 64 00 00
	00 00		 mov	 DWORD PTR [edi+100], OFFSET ??_7CIndicatorGroupDataList@@6B@
; File C:\Program Files (x86)\Microsoft Visual Studio\2019\Community\VC\Tools\MSVC\14.29.30133\atlmfc\include\afxtempl.h

; 851  : {

  0007b	c7 47 68 00 00
	00 00		 mov	 DWORD PTR [edi+104], OFFSET ??_7?$CList@PAVCIndicatorGroupData@@PAV1@@@6B@

; 852  : 	ASSERT(nBlockSize > 0);
; 853  : 
; 854  : 	m_nCount = 0;

  00082	c7 47 74 00 00
	00 00		 mov	 DWORD PTR [edi+116], 0

; 855  : 	m_pNodeHead = m_pNodeTail = m_pNodeFree = NULL;

  00089	c7 47 78 00 00
	00 00		 mov	 DWORD PTR [edi+120], 0
  00090	c7 47 70 00 00
	00 00		 mov	 DWORD PTR [edi+112], 0
  00097	c7 47 6c 00 00
	00 00		 mov	 DWORD PTR [edi+108], 0

; 856  : 	m_pBlocks = NULL;

  0009e	c7 47 7c 00 00
	00 00		 mov	 DWORD PTR [edi+124], 0

; 857  : 	m_nBlockSize = nBlockSize;

  000a5	c7 87 80 00 00
	00 0a 00 00 00	 mov	 DWORD PTR [edi+128], 10	; 0000000aH
; File D:\git\src\IBK\IBK_DRFN\ProjSrc\SrcChartEx\ChartOCX\IndicatorCondition\IndicatorListImplementation.cpp

; 34   : 	m_eChartMode = p_eChartMode;

  000af	8b 45 1c	 mov	 eax, DWORD PTR _p_eChartMode$[ebp]

; 35   : 
; 36   : 	//   ! -> user default/user  Site default  .
; 37   : 	m_unchangeableData.FileSUDefaultDataBuild( m_pParent, strMainDefaultFilePathAndName, strUserDefaultFilePathAndName, p_hOcxWnd);

  000b2	b9 00 00 00 00	 mov	 ecx, OFFSET ?m_unchangeableData@CIndicatorListImplementation@@1VCUnchangeableData@@A ; CIndicatorListImplementation::m_unchangeableData
  000b7	56		 push	 esi
  000b8	ff 75 14	 push	 DWORD PTR _strUserDefaultFilePathAndName$[ebp]
  000bb	c6 45 fc 02	 mov	 BYTE PTR __$EHRec$[ebp+8], 2
  000bf	ff 75 10	 push	 DWORD PTR _strMainDefaultFilePathAndName$[ebp]
  000c2	89 47 60	 mov	 DWORD PTR [edi+96], eax
  000c5	ff 77 0c	 push	 DWORD PTR [edi+12]
  000c8	e8 00 00 00 00	 call	 ?FileSUDefaultDataBuild@CUnchangeableData@@QAE_NPAVCIndicatorList@@ABV?$CStringT@DV?$StrTraitMFC_DLL@DV?$ChTraitsCRT@D@ATL@@@@@ATL@@1PAUHWND__@@@Z ; CUnchangeableData::FileSUDefaultDataBuild
; File C:\Program Files (x86)\Microsoft Visual Studio\2019\Community\VC\Tools\MSVC\14.29.30133\atlmfc\include\atlsimpstr.h

; 377  : 		return( m_pszData );

  000cd	8b 45 18	 mov	 eax, DWORD PTR _strUserFilePathAndName$[ebp]
; File D:\git\src\IBK\IBK_DRFN\ProjSrc\SrcChartEx\ChartOCX\IndicatorCondition\IndicatorListImplementation.cpp

; 56   : 		CString strFileData;

  000d0	8d 4d 08	 lea	 ecx, DWORD PTR _strFileData$2[ebp]
; File C:\Program Files (x86)\Microsoft Visual Studio\2019\Community\VC\Tools\MSVC\14.29.30133\atlmfc\include\atlsimpstr.h

; 377  : 		return( m_pszData );

  000d3	8b 30		 mov	 esi, DWORD PTR [eax]
; File D:\git\src\IBK\IBK_DRFN\ProjSrc\SrcChartEx\ChartOCX\IndicatorCondition\IndicatorListImplementation.cpp

; 56   : 		CString strFileData;

  000d5	ff 15 00 00 00
	00		 call	 DWORD PTR __imp_??0?$CStringT@DV?$StrTraitMFC_DLL@DV?$ChTraitsCRT@D@ATL@@@@@ATL@@QAE@XZ

; 57   : 		char *szFileData = CFileBuilder().FileRead( szFilePath, strFileData);

  000db	8d 45 08	 lea	 eax, DWORD PTR _strFileData$2[ebp]
  000de	c6 45 fc 03	 mov	 BYTE PTR __$EHRec$[ebp+8], 3
  000e2	50		 push	 eax
  000e3	56		 push	 esi
  000e4	8d 4d 0f	 lea	 ecx, DWORD PTR $T3[ebp]
  000e7	e8 00 00 00 00	 call	 ?FileRead@CFileBuilder@@QBEPADPBDAAV?$CStringT@DV?$StrTraitMFC_DLL@DV?$ChTraitsCRT@D@ATL@@@@@ATL@@@Z ; CFileBuilder::FileRead
  000ec	89 45 1c	 mov	 DWORD PTR _szFileData$4[ebp], eax
; File C:\Program Files (x86)\Microsoft Visual Studio\2019\Community\VC\Tools\MSVC\14.29.30133\atlmfc\include\atlsimpstr.h

; 533  : 		return( GetLength() == 0 );

  000ef	8b 45 08	 mov	 eax, DWORD PTR _strFileData$2[ebp]
  000f2	83 78 f4 00	 cmp	 DWORD PTR [eax-12], 0
; File D:\git\src\IBK\IBK_DRFN\ProjSrc\SrcChartEx\ChartOCX\IndicatorCondition\IndicatorListImplementation.cpp

; 58   : 		if( strFileData.IsEmpty()) return FALSE;

  000f6	74 11		 je	 SHORT $LN25@CIndicator

; 59   : 
; 60   : 		//   
; 61   : 		return m_userIndiList.AddIndiInfoFromCfgString( m_pParent, szFileData, true);

  000f8	6a 01		 push	 1
  000fa	8d 45 1c	 lea	 eax, DWORD PTR _szFileData$4[ebp]
  000fd	50		 push	 eax
  000fe	ff 77 0c	 push	 DWORD PTR [edi+12]
  00101	8d 4f 38	 lea	 ecx, DWORD PTR [edi+56]
  00104	e8 00 00 00 00	 call	 ?AddIndiInfoFromCfgString@CUserIndicatorList@@QAE_NPAVCIndicatorList@@AAPAD_N@Z ; CUserIndicatorList::AddIndiInfoFromCfgString
$LN25@CIndicator:

; 38   : 
; 39   : 	LoadIndicatorInfo( EILT_USER, strUserFilePathAndName);
; 40   : }

  00109	8d 4d 08	 lea	 ecx, DWORD PTR _strFileData$2[ebp]
  0010c	ff 15 00 00 00
	00		 call	 DWORD PTR __imp_??1?$CStringT@DV?$StrTraitMFC_DLL@DV?$ChTraitsCRT@D@ATL@@@@@ATL@@QAE@XZ
  00112	8b c7		 mov	 eax, edi
  00114	8b 4d f4	 mov	 ecx, DWORD PTR __$EHRec$[ebp]
  00117	64 89 0d 00 00
	00 00		 mov	 DWORD PTR fs:0, ecx
  0011e	59		 pop	 ecx
  0011f	5f		 pop	 edi
  00120	5e		 pop	 esi
  00121	5b		 pop	 ebx
  00122	8b e5		 mov	 esp, ebp
  00124	5d		 pop	 ebp
  00125	c2 18 00	 ret	 24			; 00000018H
_TEXT	ENDS
;	COMDAT text$x
text$x	SEGMENT
__unwindfunclet$??0CIndicatorListImplementation@@QAE@PAUHWND__@@PAVCIndicatorList@@ABV?$CStringT@DV?$StrTraitMFC_DLL@DV?$ChTraitsCRT@D@ATL@@@@@ATL@@22W4CHART_MODE@CChartInfo@@@Z$0:
  00000	8b 4d f0	 mov	 ecx, DWORD PTR _this$[ebp]
  00003	83 c1 10	 add	 ecx, 16			; 00000010H
  00006	e9 00 00 00 00	 jmp	 ??1CUserIndicatorList@@UAE@XZ
__unwindfunclet$??0CIndicatorListImplementation@@QAE@PAUHWND__@@PAVCIndicatorList@@ABV?$CStringT@DV?$StrTraitMFC_DLL@DV?$ChTraitsCRT@D@ATL@@@@@ATL@@22W4CHART_MODE@CChartInfo@@@Z$1:
  0000b	8b 4d f0	 mov	 ecx, DWORD PTR _this$[ebp]
  0000e	83 c1 38	 add	 ecx, 56			; 00000038H
  00011	e9 00 00 00 00	 jmp	 ??1CUserIndicatorList@@UAE@XZ
__unwindfunclet$??0CIndicatorListImplementation@@QAE@PAUHWND__@@PAVCIndicatorList@@ABV?$CStringT@DV?$StrTraitMFC_DLL@DV?$ChTraitsCRT@D@ATL@@@@@ATL@@22W4CHART_MODE@CChartInfo@@@Z$2:
  00016	8b 4d f0	 mov	 ecx, DWORD PTR _this$[ebp]
  00019	83 c1 64	 add	 ecx, 100		; 00000064H
  0001c	e9 00 00 00 00	 jmp	 ??1CIndicatorGroupDataList@@UAE@XZ ; CIndicatorGroupDataList::~CIndicatorGroupDataList
__unwindfunclet$??0CIndicatorListImplementation@@QAE@PAUHWND__@@PAVCIndicatorList@@ABV?$CStringT@DV?$StrTraitMFC_DLL@DV?$ChTraitsCRT@D@ATL@@@@@ATL@@22W4CHART_MODE@CChartInfo@@@Z$3:
  00021	8d 4d 08	 lea	 ecx, DWORD PTR _strFileData$2[ebp]
  00024	ff 25 00 00 00
	00		 jmp	 DWORD PTR __imp_??1?$CStringT@DV?$StrTraitMFC_DLL@DV?$ChTraitsCRT@D@ATL@@@@@ATL@@QAE@XZ
  0002a	cc		 int	 3
  0002b	cc		 int	 3
  0002c	cc		 int	 3
  0002d	cc		 int	 3
  0002e	cc		 int	 3
__ehhandler$??0CIndicatorListImplementation@@QAE@PAUHWND__@@PAVCIndicatorList@@ABV?$CStringT@DV?$StrTraitMFC_DLL@DV?$ChTraitsCRT@D@ATL@@@@@ATL@@22W4CHART_MODE@CChartInfo@@@Z:
  0002f	90		 npad	 1
  00030	90		 npad	 1
  00031	8b 54 24 08	 mov	 edx, DWORD PTR [esp+8]
  00035	8d 42 0c	 lea	 eax, DWORD PTR [edx+12]
  00038	8b 4a ec	 mov	 ecx, DWORD PTR [edx-20]
  0003b	33 c8		 xor	 ecx, eax
  0003d	e8 00 00 00 00	 call	 @__security_check_cookie@4
  00042	b8 00 00 00 00	 mov	 eax, OFFSET __ehfuncinfo$??0CIndicatorListImplementation@@QAE@PAUHWND__@@PAVCIndicatorList@@ABV?$CStringT@DV?$StrTraitMFC_DLL@DV?$ChTraitsCRT@D@ATL@@@@@ATL@@22W4CHART_MODE@CChartInfo@@@Z
  00047	e9 00 00 00 00	 jmp	 ___CxxFrameHandler3
text$x	ENDS
??0CIndicatorListImplementation@@QAE@PAUHWND__@@PAVCIndicatorList@@ABV?$CStringT@DV?$StrTraitMFC_DLL@DV?$ChTraitsCRT@D@ATL@@@@@ATL@@22W4CHART_MODE@CChartInfo@@@Z ENDP ; CIndicatorListImplementation::CIndicatorListImplementation
; Function compile flags: /Ogtp
;	COMDAT ??_ECIndicatorGroupDataList@@UAEPAXI@Z
_TEXT	SEGMENT
__$EHRec$ = -12						; size = 12
___flags$ = 8						; size = 4
??_ECIndicatorGroupDataList@@UAEPAXI@Z PROC		; CIndicatorGroupDataList::`vector deleting destructor', COMDAT
; _this$ = ecx
  00000	55		 push	 ebp
  00001	8b ec		 mov	 ebp, esp
  00003	6a ff		 push	 -1
  00005	68 00 00 00 00	 push	 __ehhandler$??_ECIndicatorGroupDataList@@UAEPAXI@Z
  0000a	64 a1 00 00 00
	00		 mov	 eax, DWORD PTR fs:0
  00010	50		 push	 eax
  00011	53		 push	 ebx
  00012	56		 push	 esi
  00013	57		 push	 edi
  00014	a1 00 00 00 00	 mov	 eax, DWORD PTR ___security_cookie
  00019	33 c5		 xor	 eax, ebp
  0001b	50		 push	 eax
  0001c	8d 45 f4	 lea	 eax, DWORD PTR __$EHRec$[ebp]
  0001f	64 a3 00 00 00
	00		 mov	 DWORD PTR fs:0, eax
  00025	8b f1		 mov	 esi, ecx
  00027	8b 45 08	 mov	 eax, DWORD PTR ___flags$[ebp]
  0002a	8b d8		 mov	 ebx, eax
  0002c	83 e3 01	 and	 ebx, 1
  0002f	a8 02		 test	 al, 2
  00031	74 3f		 je	 SHORT $LN2@vector
  00033	68 00 00 00 00	 push	 OFFSET ??1CIndicatorGroupDataList@@UAE@XZ ; CIndicatorGroupDataList::~CIndicatorGroupDataList
  00038	ff 76 fc	 push	 DWORD PTR [esi-4]
  0003b	8d 7e fc	 lea	 edi, DWORD PTR [esi-4]
  0003e	6a 20		 push	 32			; 00000020H
  00040	56		 push	 esi
  00041	e8 00 00 00 00	 call	 ??_M@YGXPAXIIP6EX0@Z@Z
  00046	85 db		 test	 ebx, ebx
  00048	74 12		 je	 SHORT $LN3@vector
  0004a	8b 0f		 mov	 ecx, DWORD PTR [edi]
  0004c	c1 e1 05	 shl	 ecx, 5
  0004f	83 c1 04	 add	 ecx, 4
  00052	51		 push	 ecx
  00053	57		 push	 edi
  00054	e8 00 00 00 00	 call	 ??_V@YAXPAXI@Z		; operator delete[]
  00059	83 c4 08	 add	 esp, 8
$LN3@vector:
  0005c	8b c7		 mov	 eax, edi
  0005e	8b 4d f4	 mov	 ecx, DWORD PTR __$EHRec$[ebp]
  00061	64 89 0d 00 00
	00 00		 mov	 DWORD PTR fs:0, ecx
  00068	59		 pop	 ecx
  00069	5f		 pop	 edi
  0006a	5e		 pop	 esi
  0006b	5b		 pop	 ebx
  0006c	8b e5		 mov	 esp, ebp
  0006e	5d		 pop	 ebp
  0006f	c2 04 00	 ret	 4
$LN2@vector:
  00072	e8 00 00 00 00	 call	 ??1CIndicatorGroupDataList@@UAE@XZ ; CIndicatorGroupDataList::~CIndicatorGroupDataList
  00077	85 db		 test	 ebx, ebx
  00079	74 0b		 je	 SHORT $LN4@vector
  0007b	6a 20		 push	 32			; 00000020H
  0007d	56		 push	 esi
  0007e	e8 00 00 00 00	 call	 ??3@YAXPAXI@Z		; operator delete
  00083	83 c4 08	 add	 esp, 8
$LN4@vector:
  00086	8b c6		 mov	 eax, esi
  00088	8b 4d f4	 mov	 ecx, DWORD PTR __$EHRec$[ebp]
  0008b	64 89 0d 00 00
	00 00		 mov	 DWORD PTR fs:0, ecx
  00092	59		 pop	 ecx
  00093	5f		 pop	 edi
  00094	5e		 pop	 esi
  00095	5b		 pop	 ebx
  00096	8b e5		 mov	 esp, ebp
  00098	5d		 pop	 ebp
  00099	c2 04 00	 ret	 4
  0009c	cc		 int	 3
  0009d	cc		 int	 3
  0009e	cc		 int	 3
  0009f	cc		 int	 3
  000a0	cc		 int	 3
_TEXT	ENDS
;	COMDAT text$x
text$x	SEGMENT
__ehhandler$??_ECIndicatorGroupDataList@@UAEPAXI@Z:
  00000	90		 npad	 1
  00001	90		 npad	 1
  00002	8b 54 24 08	 mov	 edx, DWORD PTR [esp+8]
  00006	8d 42 0c	 lea	 eax, DWORD PTR [edx+12]
  00009	8b 4a f0	 mov	 ecx, DWORD PTR [edx-16]
  0000c	33 c8		 xor	 ecx, eax
  0000e	e8 00 00 00 00	 call	 @__security_check_cookie@4
  00013	b8 00 00 00 00	 mov	 eax, OFFSET __ehfuncinfo$??_ECIndicatorGroupDataList@@UAEPAXI@Z
  00018	e9 00 00 00 00	 jmp	 ___CxxFrameHandler3
text$x	ENDS
??_ECIndicatorGroupDataList@@UAEPAXI@Z ENDP		; CIndicatorGroupDataList::`vector deleting destructor'
; Function compile flags: /Ogtp
;	COMDAT ??_GCIndicatorGroupDataList@@UAEPAXI@Z
_TEXT	SEGMENT
___flags$ = 8						; size = 4
??_GCIndicatorGroupDataList@@UAEPAXI@Z PROC		; CIndicatorGroupDataList::`scalar deleting destructor', COMDAT
; _this$ = ecx
  00000	55		 push	 ebp
  00001	8b ec		 mov	 ebp, esp
  00003	56		 push	 esi
  00004	8b f1		 mov	 esi, ecx
  00006	e8 00 00 00 00	 call	 ??1CIndicatorGroupDataList@@UAE@XZ ; CIndicatorGroupDataList::~CIndicatorGroupDataList
  0000b	f6 45 08 01	 test	 BYTE PTR ___flags$[ebp], 1
  0000f	74 0b		 je	 SHORT $LN4@scalar
  00011	6a 20		 push	 32			; 00000020H
  00013	56		 push	 esi
  00014	e8 00 00 00 00	 call	 ??3@YAXPAXI@Z		; operator delete
  00019	83 c4 08	 add	 esp, 8
$LN4@scalar:
  0001c	8b c6		 mov	 eax, esi
  0001e	5e		 pop	 esi
  0001f	5d		 pop	 ebp
  00020	c2 04 00	 ret	 4
??_GCIndicatorGroupDataList@@UAEPAXI@Z ENDP		; CIndicatorGroupDataList::`scalar deleting destructor'
_TEXT	ENDS
; Function compile flags: /Ogtp
; File C:\Program Files (x86)\Microsoft Visual Studio\2019\Community\VC\Tools\MSVC\14.29.30133\atlmfc\include\afxtempl.h
;	COMDAT ??0CIndicatorGroupDataList@@QAE@XZ
_TEXT	SEGMENT
_this$ = -4						; size = 4
??0CIndicatorGroupDataList@@QAE@XZ PROC			; CIndicatorGroupDataList::CIndicatorGroupDataList, COMDAT
; _this$ = ecx
  00000	55		 push	 ebp
  00001	8b ec		 mov	 ebp, esp
  00003	51		 push	 ecx
  00004	c7 01 00 00 00
	00		 mov	 DWORD PTR [ecx], OFFSET ??_7CIndicatorGroupDataList@@6B@
  0000a	8b c1		 mov	 eax, ecx
  0000c	89 4d fc	 mov	 DWORD PTR _this$[ebp], ecx

; 851  : {

  0000f	c7 41 04 00 00
	00 00		 mov	 DWORD PTR [ecx+4], OFFSET ??_7?$CList@PAVCIndicatorGroupData@@PAV1@@@6B@

; 852  : 	ASSERT(nBlockSize > 0);
; 853  : 
; 854  : 	m_nCount = 0;

  00016	c7 41 10 00 00
	00 00		 mov	 DWORD PTR [ecx+16], 0

; 855  : 	m_pNodeHead = m_pNodeTail = m_pNodeFree = NULL;

  0001d	c7 41 14 00 00
	00 00		 mov	 DWORD PTR [ecx+20], 0
  00024	c7 41 0c 00 00
	00 00		 mov	 DWORD PTR [ecx+12], 0
  0002b	c7 41 08 00 00
	00 00		 mov	 DWORD PTR [ecx+8], 0

; 856  : 	m_pBlocks = NULL;

  00032	c7 41 18 00 00
	00 00		 mov	 DWORD PTR [ecx+24], 0

; 857  : 	m_nBlockSize = nBlockSize;

  00039	c7 41 1c 0a 00
	00 00		 mov	 DWORD PTR [ecx+28], 10	; 0000000aH
  00040	8b e5		 mov	 esp, ebp
  00042	5d		 pop	 ebp
  00043	c3		 ret	 0
??0CIndicatorGroupDataList@@QAE@XZ ENDP			; CIndicatorGroupDataList::CIndicatorGroupDataList
_TEXT	ENDS
; Function compile flags: /Ogtp
; File C:\Program Files (x86)\Microsoft Visual Studio\2019\Community\VC\Tools\MSVC\14.29.30133\atlmfc\include\afxtempl.h
; File C:\Program Files (x86)\Microsoft Visual Studio\2019\Community\VC\Tools\MSVC\14.29.30133\atlmfc\include\afx.inl
;	COMDAT ??_G?$CList@PAVCIndicatorGroupData@@PAV1@@@UAEPAXI@Z
_TEXT	SEGMENT
__$EHRec$ = -12						; size = 12
___flags$ = 8						; size = 4
??_G?$CList@PAVCIndicatorGroupData@@PAV1@@@UAEPAXI@Z PROC ; CList<CIndicatorGroupData *,CIndicatorGroupData *>::`scalar deleting destructor', COMDAT
; _this$ = ecx
  00000	55		 push	 ebp
  00001	8b ec		 mov	 ebp, esp
  00003	6a ff		 push	 -1
  00005	68 00 00 00 00	 push	 __ehhandler$??_G?$CList@PAVCIndicatorGroupData@@PAV1@@@UAEPAXI@Z
  0000a	64 a1 00 00 00
	00		 mov	 eax, DWORD PTR fs:0
  00010	50		 push	 eax
  00011	56		 push	 esi
  00012	a1 00 00 00 00	 mov	 eax, DWORD PTR ___security_cookie
  00017	33 c5		 xor	 eax, ebp
  00019	50		 push	 eax
  0001a	8d 45 f4	 lea	 eax, DWORD PTR __$EHRec$[ebp]
  0001d	64 a3 00 00 00
	00		 mov	 DWORD PTR fs:0, eax
  00023	8b f1		 mov	 esi, ecx
; File C:\Program Files (x86)\Microsoft Visual Studio\2019\Community\VC\Tools\MSVC\14.29.30133\atlmfc\include\afxtempl.h

; 872  : 	m_pBlocks->FreeDataChain();

  00025	8b 4e 14	 mov	 ecx, DWORD PTR [esi+20]

; 878  : {

  00028	c7 45 fc 00 00
	00 00		 mov	 DWORD PTR __$EHRec$[ebp+8], 0
  0002f	c7 06 00 00 00
	00		 mov	 DWORD PTR [esi], OFFSET ??_7?$CList@PAVCIndicatorGroupData@@PAV1@@@6B@

; 870  : 	m_nCount = 0;

  00035	c7 46 0c 00 00
	00 00		 mov	 DWORD PTR [esi+12], 0

; 871  : 	m_pNodeHead = m_pNodeTail = m_pNodeFree = NULL;

  0003c	c7 46 10 00 00
	00 00		 mov	 DWORD PTR [esi+16], 0
  00043	c7 46 08 00 00
	00 00		 mov	 DWORD PTR [esi+8], 0
  0004a	c7 46 04 00 00
	00 00		 mov	 DWORD PTR [esi+4], 0

; 872  : 	m_pBlocks->FreeDataChain();

  00051	e8 00 00 00 00	 call	 ?FreeDataChain@CPlex@@QAEXXZ ; CPlex::FreeDataChain

; 873  : 	m_pBlocks = NULL;

  00056	8b 45 08	 mov	 eax, DWORD PTR ___flags$[ebp]
  00059	c7 46 14 00 00
	00 00		 mov	 DWORD PTR [esi+20], 0
  00060	a8 01		 test	 al, 1
  00062	74 2c		 je	 SHORT $LN22@scalar
  00064	a8 04		 test	 al, 4
  00066	75 1d		 jne	 SHORT $LN3@scalar
; File C:\Program Files (x86)\Microsoft Visual Studio\2019\Community\VC\Tools\MSVC\14.29.30133\atlmfc\include\afx.inl

; 112  : 	{ ::operator delete(p); }

  00068	56		 push	 esi
  00069	e8 00 00 00 00	 call	 ??3@YAXPAX@Z		; operator delete
  0006e	83 c4 04	 add	 esp, 4
  00071	8b c6		 mov	 eax, esi
  00073	8b 4d f4	 mov	 ecx, DWORD PTR __$EHRec$[ebp]
  00076	64 89 0d 00 00
	00 00		 mov	 DWORD PTR fs:0, ecx
  0007d	59		 pop	 ecx
  0007e	5e		 pop	 esi
  0007f	8b e5		 mov	 esp, ebp
  00081	5d		 pop	 ebp
  00082	c2 04 00	 ret	 4
$LN3@scalar:
  00085	6a 1c		 push	 28			; 0000001cH
  00087	56		 push	 esi
  00088	e8 00 00 00 00	 call	 ?__global_delete@@YAXPAXI@Z ; __global_delete
  0008d	83 c4 08	 add	 esp, 8
$LN22@scalar:
  00090	8b c6		 mov	 eax, esi
  00092	8b 4d f4	 mov	 ecx, DWORD PTR __$EHRec$[ebp]
  00095	64 89 0d 00 00
	00 00		 mov	 DWORD PTR fs:0, ecx
  0009c	59		 pop	 ecx
  0009d	5e		 pop	 esi
  0009e	8b e5		 mov	 esp, ebp
  000a0	5d		 pop	 ebp
  000a1	c2 04 00	 ret	 4
  000a4	cc		 int	 3
  000a5	cc		 int	 3
  000a6	cc		 int	 3
  000a7	cc		 int	 3
  000a8	cc		 int	 3
_TEXT	ENDS
;	COMDAT text$x
text$x	SEGMENT
__ehhandler$??_G?$CList@PAVCIndicatorGroupData@@PAV1@@@UAEPAXI@Z:
  00000	90		 npad	 1
  00001	90		 npad	 1
  00002	8b 54 24 08	 mov	 edx, DWORD PTR [esp+8]
  00006	8d 42 0c	 lea	 eax, DWORD PTR [edx+12]
  00009	8b 4a f8	 mov	 ecx, DWORD PTR [edx-8]
  0000c	33 c8		 xor	 ecx, eax
  0000e	e8 00 00 00 00	 call	 @__security_check_cookie@4
  00013	b8 00 00 00 00	 mov	 eax, OFFSET __ehfuncinfo$??_G?$CList@PAVCIndicatorGroupData@@PAV1@@@UAEPAXI@Z
  00018	e9 00 00 00 00	 jmp	 ___CxxFrameHandler3
text$x	ENDS
??_G?$CList@PAVCIndicatorGroupData@@PAV1@@@UAEPAXI@Z ENDP ; CList<CIndicatorGroupData *,CIndicatorGroupData *>::`scalar deleting destructor'
; Function compile flags: /Ogtp
; File C:\Program Files (x86)\Microsoft Visual Studio\2019\Community\VC\Tools\MSVC\14.29.30133\atlmfc\include\afxtempl.h
; File C:\Program Files (x86)\Microsoft Visual Studio\2019\Community\VC\Tools\MSVC\14.29.30133\atlmfc\include\afx.inl
; File C:\Program Files (x86)\Microsoft Visual Studio\2019\Community\VC\Tools\MSVC\14.29.30133\atlmfc\include\afxtempl.h
; File C:\Program Files (x86)\Microsoft Visual Studio\2019\Community\VC\Tools\MSVC\14.29.30133\atlmfc\include\afx.inl
; File C:\Program Files (x86)\Microsoft Visual Studio\2019\Community\VC\Tools\MSVC\14.29.30133\atlmfc\include\afxtempl.h
; File C:\Program Files (x86)\Microsoft Visual Studio\2019\Community\VC\Tools\MSVC\14.29.30133\atlmfc\include\afx.inl
; File C:\Program Files (x86)\Microsoft Visual Studio\2019\Community\VC\Tools\MSVC\14.29.30133\atlmfc\include\afxtempl.h
; File C:\Program Files (x86)\Microsoft Visual Studio\2019\Community\VC\Tools\MSVC\14.29.30133\atlmfc\include\afx.inl
; File C:\Program Files (x86)\Microsoft Visual Studio\2019\Community\VC\Tools\MSVC\14.29.30133\atlmfc\include\afxtempl.h
; File C:\Program Files (x86)\Microsoft Visual Studio\2019\Community\VC\Tools\MSVC\14.29.30133\atlmfc\include\afx.inl
; File C:\Program Files (x86)\Microsoft Visual Studio\2019\Community\VC\Tools\MSVC\14.29.30133\atlmfc\include\afxtempl.h
; File C:\Program Files (x86)\Microsoft Visual Studio\2019\Community\VC\Tools\MSVC\14.29.30133\atlmfc\include\afx.inl
; File C:\Program Files (x86)\Microsoft Visual Studio\2019\Community\VC\Tools\MSVC\14.29.30133\atlmfc\include\afxtempl.h
;	COMDAT ?Serialize@?$CList@PAVCIndicatorGroupData@@PAV1@@@UAEXAAVCArchive@@@Z
_TEXT	SEGMENT
_nNewCount$1$ = -16					; size = 4
_newData$1 = -12					; size = 4
_pData$1$ = -8						; size = 4
_pData$1$ = -8						; size = 4
_pNode$1$ = -8						; size = 4
_nElementsLeft$1$ = -4					; size = 4
_this$1$ = -4						; size = 4
_ar$ = 8						; size = 4
?Serialize@?$CList@PAVCIndicatorGroupData@@PAV1@@@UAEXAAVCArchive@@@Z PROC ; CList<CIndicatorGroupData *,CIndicatorGroupData *>::Serialize, COMDAT
; _this$ = ecx

; 1169 : {

  00000	55		 push	 ebp
  00001	8b ec		 mov	 ebp, esp
  00003	83 ec 10	 sub	 esp, 16			; 00000010H
  00006	53		 push	 ebx
  00007	8b d9		 mov	 ebx, ecx
; File C:\Program Files (x86)\Microsoft Visual Studio\2019\Community\VC\Tools\MSVC\14.29.30133\atlmfc\include\afx.inl

; 212  : 	{ return (m_nMode & CArchive::load) == 0; }

  00009	8b 4d 08	 mov	 ecx, DWORD PTR _ar$[ebp]
; File C:\Program Files (x86)\Microsoft Visual Studio\2019\Community\VC\Tools\MSVC\14.29.30133\atlmfc\include\afxtempl.h

; 1169 : {

  0000c	56		 push	 esi
  0000d	57		 push	 edi
  0000e	89 5d fc	 mov	 DWORD PTR _this$1$[ebp], ebx
; File C:\Program Files (x86)\Microsoft Visual Studio\2019\Community\VC\Tools\MSVC\14.29.30133\atlmfc\include\afx.inl

; 212  : 	{ return (m_nMode & CArchive::load) == 0; }

  00011	8b 41 18	 mov	 eax, DWORD PTR [ecx+24]
  00014	f7 d0		 not	 eax
  00016	a8 01		 test	 al, 1
; File C:\Program Files (x86)\Microsoft Visual Studio\2019\Community\VC\Tools\MSVC\14.29.30133\atlmfc\include\afxtempl.h

; 1174 : 	if (ar.IsStoring())

  00018	0f 84 ae 00 00
	00		 je	 $LN7@Serialize

; 1175 : 	{
; 1176 : 		ar.WriteCount(m_nCount);

  0001e	ff 73 0c	 push	 DWORD PTR [ebx+12]
  00021	e8 00 00 00 00	 call	 ?WriteCount@CArchive@@QAEXK@Z ; CArchive::WriteCount

; 1177 : 		for (CNode* pNode = m_pNodeHead; pNode != NULL; pNode = pNode->pNext)

  00026	8b 43 04	 mov	 eax, DWORD PTR [ebx+4]
  00029	89 45 f8	 mov	 DWORD PTR _pNode$1$[ebp], eax
  0002c	85 c0		 test	 eax, eax
  0002e	0f 84 b9 01 00
	00		 je	 $LN86@Serialize
$LL4@Serialize:

; 1178 : 		{
; 1179 : 			ASSERT(AfxIsValidAddress(pNode, sizeof(CNode)));
; 1180 : 			TYPE* pData;
; 1181 : 			/*
; 1182 : 			 * in some cases the & operator might be overloaded, and we cannot use it to obtain
; 1183 : 			 * the address of a given object.  We then use the following trick to get the address
; 1184 : 			 */
; 1185 : 			pData = reinterpret_cast< TYPE* >( &reinterpret_cast< int& >( static_cast< TYPE& >( pNode->data ) ) );

  00034	8d 70 08	 lea	 esi, DWORD PTR [eax+8]

; 68   : 	ENSURE(nCount == 0 || pElements != NULL);

  00037	85 f6		 test	 esi, esi
  00039	0f 84 c0 01 00
	00		 je	 $LN76@Serialize
; File C:\Program Files (x86)\Microsoft Visual Studio\2019\Community\VC\Tools\MSVC\14.29.30133\atlmfc\include\afx.inl

; 212  : 	{ return (m_nMode & CArchive::load) == 0; }

  0003f	8b 4d 08	 mov	 ecx, DWORD PTR _ar$[ebp]
  00042	8b 41 18	 mov	 eax, DWORD PTR [ecx+24]
  00045	f7 d0		 not	 eax
  00047	a8 01		 test	 al, 1
; File C:\Program Files (x86)\Microsoft Visual Studio\2019\Community\VC\Tools\MSVC\14.29.30133\atlmfc\include\afxtempl.h

; 73   : 	if (ar.IsStoring())

  00049	74 33		 je	 SHORT $LN21@Serialize

; 74   : 	{
; 75   : 		TYPE* pData;
; 76   : 		UINT_PTR nElementsLeft;
; 77   : 
; 78   : 		nElementsLeft = nCount;

  0004b	b8 01 00 00 00	 mov	 eax, 1
  00050	89 45 fc	 mov	 DWORD PTR _nElementsLeft$1$[ebp], eax
$LL16@Serialize:

; 80   : 		while( nElementsLeft > 0 )
; 81   : 		{
; 82   : 			UINT nElementsToWrite;
; 83   : 
; 84   : 			nElementsToWrite = UINT(__min(nElementsLeft, INT_MAX/sizeof(TYPE)));

  00053	bb ff ff ff 1f	 mov	 ebx, 536870911		; 1fffffffH
  00058	3b c3		 cmp	 eax, ebx
  0005a	0f 42 d8	 cmovb	 ebx, eax

; 85   : 			ar.Write(pData, nElementsToWrite*sizeof(TYPE));

  0005d	8d 3c 9d 00 00
	00 00		 lea	 edi, DWORD PTR [ebx*4]
  00064	57		 push	 edi
  00065	56		 push	 esi
  00066	e8 00 00 00 00	 call	 ?Write@CArchive@@QAEXPBXI@Z ; CArchive::Write

; 86   : 			nElementsLeft -= nElementsToWrite;

  0006b	8b 45 fc	 mov	 eax, DWORD PTR _nElementsLeft$1$[ebp]

; 87   : 			pData += nElementsToWrite;

  0006e	03 f7		 add	 esi, edi
  00070	8b 4d 08	 mov	 ecx, DWORD PTR _ar$[ebp]
  00073	2b c3		 sub	 eax, ebx
  00075	89 45 fc	 mov	 DWORD PTR _nElementsLeft$1$[ebp], eax
  00078	85 c0		 test	 eax, eax
  0007a	75 d7		 jne	 SHORT $LL16@Serialize

; 88   : 		}
; 89   : 	}

  0007c	eb 35		 jmp	 SHORT $LN2@Serialize
$LN21@Serialize:

; 90   : 	else
; 91   : 	{
; 92   : 		TYPE* pData;
; 93   : 		UINT_PTR nElementsLeft;
; 94   : 
; 95   : 		nElementsLeft = nCount;

  0007e	bf 01 00 00 00	 mov	 edi, 1
$LL18@Serialize:

; 98   : 		{
; 99   : 			UINT nElementsToRead;
; 100  : 
; 101  : 			nElementsToRead = UINT(__min(nElementsLeft, INT_MAX/sizeof(TYPE)));

  00083	bb ff ff ff 1f	 mov	 ebx, 536870911		; 1fffffffH
  00088	3b fb		 cmp	 edi, ebx
  0008a	0f 42 df	 cmovb	 ebx, edi

; 102  : 			ar.EnsureRead(pData, nElementsToRead*sizeof(TYPE));

  0008d	8d 04 9d 00 00
	00 00		 lea	 eax, DWORD PTR [ebx*4]
; File C:\Program Files (x86)\Microsoft Visual Studio\2019\Community\VC\Tools\MSVC\14.29.30133\atlmfc\include\afx.inl

; 399  : 	UINT nRead=Read(lpBuf, nCount);

  00094	50		 push	 eax
  00095	56		 push	 esi
  00096	e8 00 00 00 00	 call	 ?Read@CArchive@@QAEIPAXI@Z ; CArchive::Read

; 400  : 	if(nRead!=nCount)

  0009b	8d 0c 9d 00 00
	00 00		 lea	 ecx, DWORD PTR [ebx*4]
  000a2	3b c1		 cmp	 eax, ecx
  000a4	0f 85 4c 01 00
	00		 jne	 $LN75@Serialize
; File C:\Program Files (x86)\Microsoft Visual Studio\2019\Community\VC\Tools\MSVC\14.29.30133\atlmfc\include\afxtempl.h

; 97   : 		while( nElementsLeft > 0 )

  000aa	03 f1		 add	 esi, ecx
  000ac	8b 4d 08	 mov	 ecx, DWORD PTR _ar$[ebp]

; 103  : 			nElementsLeft -= nElementsToRead;

  000af	2b fb		 sub	 edi, ebx
  000b1	75 d0		 jne	 SHORT $LL18@Serialize
$LN2@Serialize:

; 1177 : 		for (CNode* pNode = m_pNodeHead; pNode != NULL; pNode = pNode->pNext)

  000b3	8b 45 f8	 mov	 eax, DWORD PTR _pNode$1$[ebp]
  000b6	8b 00		 mov	 eax, DWORD PTR [eax]
  000b8	89 45 f8	 mov	 DWORD PTR _pNode$1$[ebp], eax
  000bb	85 c0		 test	 eax, eax
  000bd	0f 85 71 ff ff
	ff		 jne	 $LL4@Serialize

; 1197 : 		}
; 1198 : 	}
; 1199 : }

  000c3	5f		 pop	 edi
  000c4	5e		 pop	 esi
  000c5	5b		 pop	 ebx
  000c6	8b e5		 mov	 esp, ebp
  000c8	5d		 pop	 ebp
  000c9	c2 04 00	 ret	 4
$LN7@Serialize:

; 1186 : 			SerializeElements<TYPE>(ar, pData, 1);
; 1187 : 		}
; 1188 : 	}
; 1189 : 	else
; 1190 : 	{
; 1191 : 		DWORD_PTR nNewCount = ar.ReadCount();

  000cc	e8 00 00 00 00	 call	 ?ReadCount@CArchive@@QAEKXZ ; CArchive::ReadCount

; 1192 : 		while (nNewCount--)

  000d1	85 c0		 test	 eax, eax
  000d3	0f 84 14 01 00
	00		 je	 $LN86@Serialize
  000d9	0f 1f 80 00 00
	00 00		 npad	 7
$LL5@Serialize:
  000e0	48		 dec	 eax
  000e1	89 45 f0	 mov	 DWORD PTR _nNewCount$1$[ebp], eax
; File C:\Program Files (x86)\Microsoft Visual Studio\2019\Community\VC\Tools\MSVC\14.29.30133\atlmfc\include\afx.inl

; 212  : 	{ return (m_nMode & CArchive::load) == 0; }

  000e4	8b 45 08	 mov	 eax, DWORD PTR _ar$[ebp]
  000e7	8b 48 18	 mov	 ecx, DWORD PTR [eax+24]
  000ea	f7 d1		 not	 ecx
  000ec	f6 c1 01	 test	 cl, 1
; File C:\Program Files (x86)\Microsoft Visual Studio\2019\Community\VC\Tools\MSVC\14.29.30133\atlmfc\include\afxtempl.h

; 73   : 	if (ar.IsStoring())

  000ef	74 3d		 je	 SHORT $LN42@Serialize

; 79   : 		pData = pElements;

  000f1	8d 4d f4	 lea	 ecx, DWORD PTR _newData$1[ebp]
  000f4	bb 01 00 00 00	 mov	 ebx, 1
  000f9	89 4d f8	 mov	 DWORD PTR _pData$1$[ebp], ecx
  000fc	0f 1f 40 00	 npad	 4
$LL37@Serialize:

; 80   : 		while( nElementsLeft > 0 )
; 81   : 		{
; 82   : 			UINT nElementsToWrite;
; 83   : 
; 84   : 			nElementsToWrite = UINT(__min(nElementsLeft, INT_MAX/sizeof(TYPE)));

  00100	bf ff ff ff 1f	 mov	 edi, 536870911		; 1fffffffH
  00105	3b df		 cmp	 ebx, edi
  00107	0f 42 fb	 cmovb	 edi, ebx

; 85   : 			ar.Write(pData, nElementsToWrite*sizeof(TYPE));

  0010a	8d 34 bd 00 00
	00 00		 lea	 esi, DWORD PTR [edi*4]
  00111	56		 push	 esi
  00112	51		 push	 ecx
  00113	8b c8		 mov	 ecx, eax
  00115	e8 00 00 00 00	 call	 ?Write@CArchive@@QAEXPBXI@Z ; CArchive::Write

; 87   : 			pData += nElementsToWrite;

  0011a	8b 4d f8	 mov	 ecx, DWORD PTR _pData$1$[ebp]
  0011d	8b 45 08	 mov	 eax, DWORD PTR _ar$[ebp]
  00120	03 ce		 add	 ecx, esi
  00122	89 4d f8	 mov	 DWORD PTR _pData$1$[ebp], ecx
  00125	2b df		 sub	 ebx, edi
  00127	75 d7		 jne	 SHORT $LL37@Serialize

; 88   : 		}
; 89   : 	}

  00129	8b 5d fc	 mov	 ebx, DWORD PTR _this$1$[ebp]
  0012c	eb 4a		 jmp	 SHORT $LN40@Serialize
$LN42@Serialize:

; 96   : 		pData = pElements;

  0012e	8d 55 f4	 lea	 edx, DWORD PTR _newData$1[ebp]
  00131	be 01 00 00 00	 mov	 esi, 1
  00136	89 55 f8	 mov	 DWORD PTR _pData$1$[ebp], edx
  00139	0f 1f 80 00 00
	00 00		 npad	 7
$LL39@Serialize:

; 98   : 		{
; 99   : 			UINT nElementsToRead;
; 100  : 
; 101  : 			nElementsToRead = UINT(__min(nElementsLeft, INT_MAX/sizeof(TYPE)));

  00140	bf ff ff ff 1f	 mov	 edi, 536870911		; 1fffffffH
  00145	3b f7		 cmp	 esi, edi
  00147	0f 42 fe	 cmovb	 edi, esi

; 102  : 			ar.EnsureRead(pData, nElementsToRead*sizeof(TYPE));

  0014a	8d 0c bd 00 00
	00 00		 lea	 ecx, DWORD PTR [edi*4]
; File C:\Program Files (x86)\Microsoft Visual Studio\2019\Community\VC\Tools\MSVC\14.29.30133\atlmfc\include\afx.inl

; 399  : 	UINT nRead=Read(lpBuf, nCount);

  00151	51		 push	 ecx
  00152	52		 push	 edx
  00153	8b c8		 mov	 ecx, eax
  00155	e8 00 00 00 00	 call	 ?Read@CArchive@@QAEIPAXI@Z ; CArchive::Read

; 400  : 	if(nRead!=nCount)

  0015a	8d 0c bd 00 00
	00 00		 lea	 ecx, DWORD PTR [edi*4]
  00161	3b c1		 cmp	 eax, ecx
  00163	0f 85 8d 00 00
	00		 jne	 $LN75@Serialize
; File C:\Program Files (x86)\Microsoft Visual Studio\2019\Community\VC\Tools\MSVC\14.29.30133\atlmfc\include\afxtempl.h

; 97   : 		while( nElementsLeft > 0 )

  00169	8b 55 f8	 mov	 edx, DWORD PTR _pData$1$[ebp]
  0016c	8b 45 08	 mov	 eax, DWORD PTR _ar$[ebp]

; 104  : 			pData += nElementsToRead;

  0016f	03 d1		 add	 edx, ecx
  00171	89 55 f8	 mov	 DWORD PTR _pData$1$[ebp], edx
  00174	2b f7		 sub	 esi, edi
  00176	75 c8		 jne	 SHORT $LL39@Serialize
$LN40@Serialize:

; 902  : 	if (m_pNodeFree == NULL)

  00178	83 7b 10 00	 cmp	 DWORD PTR [ebx+16], 0

; 1193 : 		{
; 1194 : 			TYPE newData[1];
; 1195 : 			SerializeElements<TYPE>(ar, newData, 1);
; 1196 : 			AddTail(newData[0]);

  0017c	8b 75 f4	 mov	 esi, DWORD PTR _newData$1[ebp]

; 968  : 	CNode* pNewNode = NewNode(m_pNodeTail, NULL);

  0017f	8b 7b 08	 mov	 edi, DWORD PTR [ebx+8]

; 902  : 	if (m_pNodeFree == NULL)

  00182	75 32		 jne	 SHORT $LN63@Serialize

; 903  : 	{
; 904  : 		// add another block
; 905  : 		CPlex* pNewBlock = CPlex::Create(m_pBlocks, m_nBlockSize,

  00184	6a 0c		 push	 12			; 0000000cH
  00186	ff 73 18	 push	 DWORD PTR [ebx+24]
  00189	8d 43 14	 lea	 eax, DWORD PTR [ebx+20]
  0018c	50		 push	 eax
  0018d	e8 00 00 00 00	 call	 ?Create@CPlex@@SGPAU1@AAPAU1@II@Z ; CPlex::Create

; 906  : 				 sizeof(CNode));
; 907  : 
; 908  : 		// chain them into free list
; 909  : 		CNode* pNode = (CNode*) pNewBlock->data();
; 910  : 		// free in reverse order to make it easier to debug
; 911  : 		pNode += m_nBlockSize - 1;

  00192	8b 53 18	 mov	 edx, DWORD PTR [ebx+24]
  00195	83 c0 08	 add	 eax, 8
  00198	8d 4a ff	 lea	 ecx, DWORD PTR [edx-1]

; 912  : 		for (INT_PTR i = m_nBlockSize-1; i >= 0; i--, pNode--)

  0019b	83 c2 ff	 add	 edx, -1
  0019e	8d 0c 49	 lea	 ecx, DWORD PTR [ecx+ecx*2]
  001a1	8d 0c 88	 lea	 ecx, DWORD PTR [eax+ecx*4]
  001a4	78 10		 js	 SHORT $LN63@Serialize
$LL60@Serialize:

; 913  : 		{
; 914  : 			pNode->pNext = m_pNodeFree;

  001a6	8b 43 10	 mov	 eax, DWORD PTR [ebx+16]
  001a9	89 01		 mov	 DWORD PTR [ecx], eax

; 915  : 			m_pNodeFree = pNode;

  001ab	89 4b 10	 mov	 DWORD PTR [ebx+16], ecx
  001ae	83 e9 0c	 sub	 ecx, 12			; 0000000cH
  001b1	83 ea 01	 sub	 edx, 1
  001b4	79 f0		 jns	 SHORT $LL60@Serialize
$LN63@Serialize:

; 916  : 		}
; 917  : 	}
; 918  : 	ENSURE(m_pNodeFree != NULL);  // we must have something

  001b6	8b 4b 10	 mov	 ecx, DWORD PTR [ebx+16]
  001b9	85 c9		 test	 ecx, ecx
  001bb	74 42		 je	 SHORT $LN76@Serialize

; 919  : 
; 920  : 	CList::CNode* pNode = m_pNodeFree;
; 921  : 	m_pNodeFree = m_pNodeFree->pNext;

  001bd	8b 01		 mov	 eax, DWORD PTR [ecx]
  001bf	89 43 10	 mov	 DWORD PTR [ebx+16], eax

; 922  : 	pNode->pPrev = pPrev;

  001c2	89 79 04	 mov	 DWORD PTR [ecx+4], edi

; 923  : 	pNode->pNext = pNext;

  001c5	c7 01 00 00 00
	00		 mov	 DWORD PTR [ecx], 0

; 924  : 	m_nCount++;

  001cb	ff 43 0c	 inc	 DWORD PTR [ebx+12]

; 969  : 	pNewNode->data = newElement;

  001ce	89 71 08	 mov	 DWORD PTR [ecx+8], esi

; 970  : 	if (m_pNodeTail != NULL)

  001d1	8b 43 08	 mov	 eax, DWORD PTR [ebx+8]
  001d4	85 c0		 test	 eax, eax
  001d6	74 04		 je	 SHORT $LN54@Serialize

; 971  : 		m_pNodeTail->pNext = pNewNode;

  001d8	89 08		 mov	 DWORD PTR [eax], ecx
  001da	eb 03		 jmp	 SHORT $LN55@Serialize
$LN54@Serialize:

; 972  : 	else
; 973  : 		m_pNodeHead = pNewNode;

  001dc	89 4b 04	 mov	 DWORD PTR [ebx+4], ecx
$LN55@Serialize:

; 1192 : 		while (nNewCount--)

  001df	8b 45 f0	 mov	 eax, DWORD PTR _nNewCount$1$[ebp]

; 974  : 	m_pNodeTail = pNewNode;

  001e2	89 4b 08	 mov	 DWORD PTR [ebx+8], ecx

; 1192 : 		while (nNewCount--)

  001e5	85 c0		 test	 eax, eax
  001e7	0f 85 f3 fe ff
	ff		 jne	 $LL5@Serialize
$LN86@Serialize:
  001ed	5f		 pop	 edi

; 1197 : 		}
; 1198 : 	}
; 1199 : }

  001ee	5e		 pop	 esi
  001ef	5b		 pop	 ebx
  001f0	8b e5		 mov	 esp, ebp
  001f2	5d		 pop	 ebp
  001f3	c2 04 00	 ret	 4
$LN75@Serialize:
  001f6	6a 00		 push	 0
  001f8	6a 03		 push	 3
  001fa	e8 00 00 00 00	 call	 ?AfxThrowArchiveException@@YGXHPBD@Z ; AfxThrowArchiveException
$LN76@Serialize:
  001ff	e8 00 00 00 00	 call	 ?AfxThrowInvalidArgException@@YGXXZ ; AfxThrowInvalidArgException
$LN105@Serialize:
  00204	cc		 int	 3
?Serialize@?$CList@PAVCIndicatorGroupData@@PAV1@@@UAEXAAVCArchive@@@Z ENDP ; CList<CIndicatorGroupData *,CIndicatorGroupData *>::Serialize
_TEXT	ENDS
; Function compile flags: /Ogtp
; File C:\Program Files (x86)\Microsoft Visual Studio\2019\Community\VC\Tools\MSVC\14.29.30133\atlmfc\include\afxtempl.h
;	COMDAT ??1?$CList@PAVCIndicatorGroupData@@PAV1@@@UAE@XZ
_TEXT	SEGMENT
__$EHRec$ = -12						; size = 12
??1?$CList@PAVCIndicatorGroupData@@PAV1@@@UAE@XZ PROC	; CList<CIndicatorGroupData *,CIndicatorGroupData *>::~CList<CIndicatorGroupData *,CIndicatorGroupData *>, COMDAT
; _this$ = ecx

; 878  : {

  00000	55		 push	 ebp
  00001	8b ec		 mov	 ebp, esp
  00003	6a ff		 push	 -1
  00005	68 00 00 00 00	 push	 __ehhandler$??1?$CList@PAVCIndicatorGroupData@@PAV1@@@UAE@XZ
  0000a	64 a1 00 00 00
	00		 mov	 eax, DWORD PTR fs:0
  00010	50		 push	 eax
  00011	56		 push	 esi
  00012	a1 00 00 00 00	 mov	 eax, DWORD PTR ___security_cookie
  00017	33 c5		 xor	 eax, ebp
  00019	50		 push	 eax
  0001a	8d 45 f4	 lea	 eax, DWORD PTR __$EHRec$[ebp]
  0001d	64 a3 00 00 00
	00		 mov	 DWORD PTR fs:0, eax
  00023	8b f1		 mov	 esi, ecx

; 872  : 	m_pBlocks->FreeDataChain();

  00025	8b 4e 14	 mov	 ecx, DWORD PTR [esi+20]

; 878  : {

  00028	c7 06 00 00 00
	00		 mov	 DWORD PTR [esi], OFFSET ??_7?$CList@PAVCIndicatorGroupData@@PAV1@@@6B@

; 870  : 	m_nCount = 0;

  0002e	c7 46 0c 00 00
	00 00		 mov	 DWORD PTR [esi+12], 0

; 871  : 	m_pNodeHead = m_pNodeTail = m_pNodeFree = NULL;

  00035	c7 46 10 00 00
	00 00		 mov	 DWORD PTR [esi+16], 0
  0003c	c7 46 08 00 00
	00 00		 mov	 DWORD PTR [esi+8], 0
  00043	c7 46 04 00 00
	00 00		 mov	 DWORD PTR [esi+4], 0

; 872  : 	m_pBlocks->FreeDataChain();

  0004a	e8 00 00 00 00	 call	 ?FreeDataChain@CPlex@@QAEXXZ ; CPlex::FreeDataChain

; 873  : 	m_pBlocks = NULL;

  0004f	c7 46 14 00 00
	00 00		 mov	 DWORD PTR [esi+20], 0

; 879  : 	RemoveAll();
; 880  : 	ASSERT(m_nCount == 0);
; 881  : }

  00056	8b 4d f4	 mov	 ecx, DWORD PTR __$EHRec$[ebp]
  00059	64 89 0d 00 00
	00 00		 mov	 DWORD PTR fs:0, ecx
  00060	59		 pop	 ecx
  00061	5e		 pop	 esi
  00062	8b e5		 mov	 esp, ebp
  00064	5d		 pop	 ebp
  00065	c3		 ret	 0
  00066	cc		 int	 3
  00067	cc		 int	 3
  00068	cc		 int	 3
  00069	cc		 int	 3
  0006a	cc		 int	 3
_TEXT	ENDS
;	COMDAT text$x
text$x	SEGMENT
__ehhandler$??1?$CList@PAVCIndicatorGroupData@@PAV1@@@UAE@XZ:
  00000	90		 npad	 1
  00001	90		 npad	 1
  00002	8b 54 24 08	 mov	 edx, DWORD PTR [esp+8]
  00006	8d 42 0c	 lea	 eax, DWORD PTR [edx+12]
  00009	8b 4a f8	 mov	 ecx, DWORD PTR [edx-8]
  0000c	33 c8		 xor	 ecx, eax
  0000e	e8 00 00 00 00	 call	 @__security_check_cookie@4
  00013	b8 00 00 00 00	 mov	 eax, OFFSET __ehfuncinfo$??1?$CList@PAVCIndicatorGroupData@@PAV1@@@UAE@XZ
  00018	e9 00 00 00 00	 jmp	 ___CxxFrameHandler3
text$x	ENDS
??1?$CList@PAVCIndicatorGroupData@@PAV1@@@UAE@XZ ENDP	; CList<CIndicatorGroupData *,CIndicatorGroupData *>::~CList<CIndicatorGroupData *,CIndicatorGroupData *>
; Function compile flags: /Ogtp
; File C:\Program Files (x86)\Microsoft Visual Studio\2019\Community\VC\Tools\MSVC\14.29.30133\atlmfc\include\afxtempl.h
;	COMDAT ?NewNode@?$CList@PAVCIndicatorGroupData@@PAV1@@@IAEPAUCNode@1@PAU21@0@Z
_TEXT	SEGMENT
_pPrev$ = 8						; size = 4
_pNext$ = 12						; size = 4
?NewNode@?$CList@PAVCIndicatorGroupData@@PAV1@@@IAEPAUCNode@1@PAU21@0@Z PROC ; CList<CIndicatorGroupData *,CIndicatorGroupData *>::NewNode, COMDAT
; _this$ = ecx

; 901  : {

  00000	55		 push	 ebp
  00001	8b ec		 mov	 ebp, esp
  00003	56		 push	 esi
  00004	8b f1		 mov	 esi, ecx

; 902  : 	if (m_pNodeFree == NULL)

  00006	83 7e 10 00	 cmp	 DWORD PTR [esi+16], 0
  0000a	75 34		 jne	 SHORT $LN7@NewNode

; 903  : 	{
; 904  : 		// add another block
; 905  : 		CPlex* pNewBlock = CPlex::Create(m_pBlocks, m_nBlockSize,

  0000c	6a 0c		 push	 12			; 0000000cH
  0000e	ff 76 18	 push	 DWORD PTR [esi+24]
  00011	8d 46 14	 lea	 eax, DWORD PTR [esi+20]
  00014	50		 push	 eax
  00015	e8 00 00 00 00	 call	 ?Create@CPlex@@SGPAU1@AAPAU1@II@Z ; CPlex::Create

; 906  : 				 sizeof(CNode));
; 907  : 
; 908  : 		// chain them into free list
; 909  : 		CNode* pNode = (CNode*) pNewBlock->data();
; 910  : 		// free in reverse order to make it easier to debug
; 911  : 		pNode += m_nBlockSize - 1;

  0001a	8b 56 18	 mov	 edx, DWORD PTR [esi+24]
  0001d	83 c0 08	 add	 eax, 8
  00020	8d 0c 52	 lea	 ecx, DWORD PTR [edx+edx*2]
  00023	8d 04 88	 lea	 eax, DWORD PTR [eax+ecx*4]
  00026	83 c0 f4	 add	 eax, -12		; fffffff4H

; 912  : 		for (INT_PTR i = m_nBlockSize-1; i >= 0; i--, pNode--)

  00029	83 c2 ff	 add	 edx, -1
  0002c	78 12		 js	 SHORT $LN7@NewNode
  0002e	66 90		 npad	 2
$LL4@NewNode:

; 913  : 		{
; 914  : 			pNode->pNext = m_pNodeFree;

  00030	8b 4e 10	 mov	 ecx, DWORD PTR [esi+16]
  00033	89 08		 mov	 DWORD PTR [eax], ecx

; 915  : 			m_pNodeFree = pNode;

  00035	89 46 10	 mov	 DWORD PTR [esi+16], eax
  00038	83 e8 0c	 sub	 eax, 12			; 0000000cH
  0003b	83 ea 01	 sub	 edx, 1
  0003e	79 f0		 jns	 SHORT $LL4@NewNode
$LN7@NewNode:

; 916  : 		}
; 917  : 	}
; 918  : 	ENSURE(m_pNodeFree != NULL);  // we must have something

  00040	8b 46 10	 mov	 eax, DWORD PTR [esi+16]
  00043	85 c0		 test	 eax, eax
  00045	74 18		 je	 SHORT $LN17@NewNode

; 919  : 
; 920  : 	CList::CNode* pNode = m_pNodeFree;
; 921  : 	m_pNodeFree = m_pNodeFree->pNext;

  00047	8b 08		 mov	 ecx, DWORD PTR [eax]
  00049	89 4e 10	 mov	 DWORD PTR [esi+16], ecx

; 922  : 	pNode->pPrev = pPrev;

  0004c	8b 4d 08	 mov	 ecx, DWORD PTR _pPrev$[ebp]
  0004f	89 48 04	 mov	 DWORD PTR [eax+4], ecx

; 923  : 	pNode->pNext = pNext;

  00052	8b 4d 0c	 mov	 ecx, DWORD PTR _pNext$[ebp]
  00055	89 08		 mov	 DWORD PTR [eax], ecx

; 924  : 	m_nCount++;

  00057	ff 46 0c	 inc	 DWORD PTR [esi+12]

; 925  : 	ASSERT(m_nCount > 0);  // make sure we don't overflow
; 926  : 
; 927  : #pragma push_macro("new")
; 928  : #undef new
; 929  : 	::new( (void*)( &pNode->data ) ) TYPE;
; 930  : #pragma pop_macro("new")
; 931  : 	return pNode;

  0005a	5e		 pop	 esi

; 932  : }

  0005b	5d		 pop	 ebp
  0005c	c2 08 00	 ret	 8
$LN17@NewNode:

; 916  : 		}
; 917  : 	}
; 918  : 	ENSURE(m_pNodeFree != NULL);  // we must have something

  0005f	e8 00 00 00 00	 call	 ?AfxThrowInvalidArgException@@YGXXZ ; AfxThrowInvalidArgException
$LN15@NewNode:
  00064	cc		 int	 3
?NewNode@?$CList@PAVCIndicatorGroupData@@PAV1@@@IAEPAUCNode@1@PAU21@0@Z ENDP ; CList<CIndicatorGroupData *,CIndicatorGroupData *>::NewNode
_TEXT	ENDS
; Function compile flags: /Ogtp
; File C:\Program Files (x86)\Microsoft Visual Studio\2019\Community\VC\Tools\MSVC\14.29.30133\atlmfc\include\afxtempl.h
;	COMDAT ?RemoveAll@?$CList@PAVCIndicatorGroupData@@PAV1@@@QAEXXZ
_TEXT	SEGMENT
?RemoveAll@?$CList@PAVCIndicatorGroupData@@PAV1@@@QAEXXZ PROC ; CList<CIndicatorGroupData *,CIndicatorGroupData *>::RemoveAll, COMDAT
; _this$ = ecx

; 862  : {

  00000	56		 push	 esi
  00001	8b f1		 mov	 esi, ecx

; 863  : 	ASSERT_VALID(this);
; 864  : 
; 865  : 	// destroy elements
; 866  : 	CNode* pNode;
; 867  : 	for (pNode = m_pNodeHead; pNode != NULL; pNode = pNode->pNext)
; 868  : 		pNode->data.~TYPE();
; 869  : 
; 870  : 	m_nCount = 0;
; 871  : 	m_pNodeHead = m_pNodeTail = m_pNodeFree = NULL;
; 872  : 	m_pBlocks->FreeDataChain();

  00003	8b 4e 14	 mov	 ecx, DWORD PTR [esi+20]
  00006	c7 46 0c 00 00
	00 00		 mov	 DWORD PTR [esi+12], 0
  0000d	c7 46 10 00 00
	00 00		 mov	 DWORD PTR [esi+16], 0
  00014	c7 46 08 00 00
	00 00		 mov	 DWORD PTR [esi+8], 0
  0001b	c7 46 04 00 00
	00 00		 mov	 DWORD PTR [esi+4], 0
  00022	e8 00 00 00 00	 call	 ?FreeDataChain@CPlex@@QAEXXZ ; CPlex::FreeDataChain

; 873  : 	m_pBlocks = NULL;

  00027	c7 46 14 00 00
	00 00		 mov	 DWORD PTR [esi+20], 0
  0002e	5e		 pop	 esi

; 874  : }

  0002f	c3		 ret	 0
?RemoveAll@?$CList@PAVCIndicatorGroupData@@PAV1@@@QAEXXZ ENDP ; CList<CIndicatorGroupData *,CIndicatorGroupData *>::RemoveAll
_TEXT	ENDS
; Function compile flags: /Ogtp
; File C:\Program Files (x86)\Microsoft Visual Studio\2019\Community\VC\Tools\MSVC\14.29.30133\atlmfc\include\afxtempl.h
;	COMDAT ?AddTail@?$CList@PAVCIndicatorGroupData@@PAV1@@@QAEPAU__POSITION@@PAVCIndicatorGroupData@@@Z
_TEXT	SEGMENT
_newElement$ = 8					; size = 4
?AddTail@?$CList@PAVCIndicatorGroupData@@PAV1@@@QAEPAU__POSITION@@PAVCIndicatorGroupData@@@Z PROC ; CList<CIndicatorGroupData *,CIndicatorGroupData *>::AddTail, COMDAT
; _this$ = ecx

; 965  : {

  00000	55		 push	 ebp
  00001	8b ec		 mov	 ebp, esp
  00003	56		 push	 esi
  00004	8b f1		 mov	 esi, ecx
  00006	57		 push	 edi

; 902  : 	if (m_pNodeFree == NULL)

  00007	83 7e 10 00	 cmp	 DWORD PTR [esi+16], 0

; 966  : 	ASSERT_VALID(this);
; 967  : 
; 968  : 	CNode* pNewNode = NewNode(m_pNodeTail, NULL);

  0000b	8b 7e 08	 mov	 edi, DWORD PTR [esi+8]

; 902  : 	if (m_pNodeFree == NULL)

  0000e	75 32		 jne	 SHORT $LN11@AddTail

; 903  : 	{
; 904  : 		// add another block
; 905  : 		CPlex* pNewBlock = CPlex::Create(m_pBlocks, m_nBlockSize,

  00010	6a 0c		 push	 12			; 0000000cH
  00012	ff 76 18	 push	 DWORD PTR [esi+24]
  00015	8d 46 14	 lea	 eax, DWORD PTR [esi+20]
  00018	50		 push	 eax
  00019	e8 00 00 00 00	 call	 ?Create@CPlex@@SGPAU1@AAPAU1@II@Z ; CPlex::Create

; 906  : 				 sizeof(CNode));
; 907  : 
; 908  : 		// chain them into free list
; 909  : 		CNode* pNode = (CNode*) pNewBlock->data();
; 910  : 		// free in reverse order to make it easier to debug
; 911  : 		pNode += m_nBlockSize - 1;

  0001e	8b 56 18	 mov	 edx, DWORD PTR [esi+24]
  00021	83 c0 08	 add	 eax, 8
  00024	8d 4a ff	 lea	 ecx, DWORD PTR [edx-1]

; 912  : 		for (INT_PTR i = m_nBlockSize-1; i >= 0; i--, pNode--)

  00027	83 c2 ff	 add	 edx, -1
  0002a	8d 0c 49	 lea	 ecx, DWORD PTR [ecx+ecx*2]
  0002d	8d 0c 88	 lea	 ecx, DWORD PTR [eax+ecx*4]
  00030	78 10		 js	 SHORT $LN11@AddTail
$LL8@AddTail:

; 913  : 		{
; 914  : 			pNode->pNext = m_pNodeFree;

  00032	8b 46 10	 mov	 eax, DWORD PTR [esi+16]
  00035	89 01		 mov	 DWORD PTR [ecx], eax

; 915  : 			m_pNodeFree = pNode;

  00037	89 4e 10	 mov	 DWORD PTR [esi+16], ecx
  0003a	83 e9 0c	 sub	 ecx, 12			; 0000000cH
  0003d	83 ea 01	 sub	 edx, 1
  00040	79 f0		 jns	 SHORT $LL8@AddTail
$LN11@AddTail:

; 916  : 		}
; 917  : 	}
; 918  : 	ENSURE(m_pNodeFree != NULL);  // we must have something

  00042	8b 4e 10	 mov	 ecx, DWORD PTR [esi+16]
  00045	85 c9		 test	 ecx, ecx
  00047	74 39		 je	 SHORT $LN22@AddTail

; 919  : 
; 920  : 	CList::CNode* pNode = m_pNodeFree;
; 921  : 	m_pNodeFree = m_pNodeFree->pNext;

  00049	8b 01		 mov	 eax, DWORD PTR [ecx]
  0004b	89 46 10	 mov	 DWORD PTR [esi+16], eax

; 969  : 	pNewNode->data = newElement;

  0004e	8b 45 08	 mov	 eax, DWORD PTR _newElement$[ebp]

; 922  : 	pNode->pPrev = pPrev;

  00051	89 79 04	 mov	 DWORD PTR [ecx+4], edi

; 923  : 	pNode->pNext = pNext;

  00054	c7 01 00 00 00
	00		 mov	 DWORD PTR [ecx], 0

; 924  : 	m_nCount++;

  0005a	ff 46 0c	 inc	 DWORD PTR [esi+12]

; 969  : 	pNewNode->data = newElement;

  0005d	89 41 08	 mov	 DWORD PTR [ecx+8], eax

; 970  : 	if (m_pNodeTail != NULL)

  00060	8b 46 08	 mov	 eax, DWORD PTR [esi+8]
  00063	85 c0		 test	 eax, eax
  00065	74 0d		 je	 SHORT $LN2@AddTail

; 971  : 		m_pNodeTail->pNext = pNewNode;

  00067	89 08		 mov	 DWORD PTR [eax], ecx

; 972  : 	else
; 973  : 		m_pNodeHead = pNewNode;
; 974  : 	m_pNodeTail = pNewNode;
; 975  : 	return (POSITION) pNewNode;

  00069	8b c1		 mov	 eax, ecx
  0006b	5f		 pop	 edi
  0006c	89 4e 08	 mov	 DWORD PTR [esi+8], ecx
  0006f	5e		 pop	 esi

; 976  : }

  00070	5d		 pop	 ebp
  00071	c2 04 00	 ret	 4
$LN2@AddTail:

; 972  : 	else
; 973  : 		m_pNodeHead = pNewNode;
; 974  : 	m_pNodeTail = pNewNode;
; 975  : 	return (POSITION) pNewNode;

  00074	5f		 pop	 edi
  00075	89 4e 04	 mov	 DWORD PTR [esi+4], ecx
  00078	8b c1		 mov	 eax, ecx
  0007a	89 4e 08	 mov	 DWORD PTR [esi+8], ecx
  0007d	5e		 pop	 esi

; 976  : }

  0007e	5d		 pop	 ebp
  0007f	c2 04 00	 ret	 4
$LN22@AddTail:

; 918  : 	ENSURE(m_pNodeFree != NULL);  // we must have something

  00082	e8 00 00 00 00	 call	 ?AfxThrowInvalidArgException@@YGXXZ ; AfxThrowInvalidArgException
$LN20@AddTail:
  00087	cc		 int	 3
?AddTail@?$CList@PAVCIndicatorGroupData@@PAV1@@@QAEPAU__POSITION@@PAVCIndicatorGroupData@@@Z ENDP ; CList<CIndicatorGroupData *,CIndicatorGroupData *>::AddTail
_TEXT	ENDS
; Function compile flags: /Ogtp
; File C:\Program Files (x86)\Microsoft Visual Studio\2019\Community\VC\Tools\MSVC\14.29.30133\atlmfc\include\afxtempl.h
;	COMDAT ??0?$CList@PAVCIndicatorGroupData@@PAV1@@@QAE@H@Z
_TEXT	SEGMENT
_nBlockSize$ = 8					; size = 4
??0?$CList@PAVCIndicatorGroupData@@PAV1@@@QAE@H@Z PROC	; CList<CIndicatorGroupData *,CIndicatorGroupData *>::CList<CIndicatorGroupData *,CIndicatorGroupData *>, COMDAT
; _this$ = ecx

; 851  : {

  00000	55		 push	 ebp
  00001	8b ec		 mov	 ebp, esp

; 852  : 	ASSERT(nBlockSize > 0);
; 853  : 
; 854  : 	m_nCount = 0;
; 855  : 	m_pNodeHead = m_pNodeTail = m_pNodeFree = NULL;
; 856  : 	m_pBlocks = NULL;
