; Listing generated by Microsoft (R) Optimizing Compiler Version 19.29.30145.0 

	TITLE	D:\git\src\IBK\IBK_DRFN\#DRfn-CS\_Obj\ChartOutsideCustomAddIn\_ChartAddInBase.obj
	.686P
	.XMM
	include listing.inc
	.model	flat

INCLUDELIB MSVCRT
INCLUDELIB OLDNAMES

PUBLIC	?__empty_global_delete@@YAXPAX@Z		; __empty_global_delete
PUBLIC	?__empty_global_delete@@YAXPAXI@Z		; __empty_global_delete
PUBLIC	?Serialize@CObject@@UAEXAAVCArchive@@@Z		; CObject::Serialize
PUBLIC	?AssertValid@CObject@@UBEXXZ			; CObject::AssertValid
PUBLIC	?Dump@CObject@@UBEXAAVCDumpContext@@@Z		; CObject::Dump
PUBLIC	?_AfxInitManaged@@YAHXZ				; _AfxInitManaged
PUBLIC	?PostConstruct@CIWUnknown@@MAEXXZ		; CIWUnknown::PostConstruct
PUBLIC	?PreDestructX@CIWUnknown@@MAEXXZ		; CIWUnknown::PreDestructX
PUBLIC	?PreDestruct@CIWUnknown@@MAEXXZ			; CIWUnknown::PreDestruct
PUBLIC	??1IChartAddIn003531@@MAE@XZ			; IChartAddIn003531::~IChartAddIn003531
PUBLIC	??_GIChartAddIn003531@@MAEPAXI@Z		; IChartAddIn003531::`scalar deleting destructor'
PUBLIC	??0CChartAddInBase003531@@IAE@PAUIChartOCX003531@@PAUIAddInDllBase@@@Z ; CChartAddInBase003531::CChartAddInBase003531
PUBLIC	??1CChartAddInBase003531@@MAE@XZ		; CChartAddInBase003531::~CChartAddInBase003531
PUBLIC	?AddRef@CChartAddInBase003531@@MAGKXZ		; CChartAddInBase003531::AddRef
PUBLIC	?Release@CChartAddInBase003531@@MAGKXZ		; CChartAddInBase003531::Release
PUBLIC	?QueryInterface@CChartAddInBase003531@@MAGJABU_GUID@@PAPAX@Z ; CChartAddInBase003531::QueryInterface
PUBLIC	?HasFullManager@CChartAddInBase003531@@MAEHXZ	; CChartAddInBase003531::HasFullManager
PUBLIC	?GetAddInCustomInterface@CChartAddInBase003531@@MAEPAUIUnknown@@XZ ; CChartAddInBase003531::GetAddInCustomInterface
PUBLIC	?InvokeAddIn@CChartAddInBase003531@@MAEHHJ@Z	; CChartAddInBase003531::InvokeAddIn
PUBLIC	?InvokeAddInStr@CChartAddInBase003531@@MAEHPBD0@Z ; CChartAddInBase003531::InvokeAddInStr
PUBLIC	?RegisterEventMap@CChartAddInBase003531@@UAEHH@Z ; CChartAddInBase003531::RegisterEventMap
PUBLIC	?UnregisterEventMap@CChartAddInBase003531@@UAEHXZ ; CChartAddInBase003531::UnregisterEventMap
PUBLIC	?RemoveAllInterface@CChartAddInBase003531@@IAEXXZ ; CChartAddInBase003531::RemoveAllInterface
PUBLIC	?OnOcxDestroyWindow@CChartAddInBase003531@@MAEXXZ ; CChartAddInBase003531::OnOcxDestroyWindow
PUBLIC	?AfeterOnOcxDestroyWindow@CChartAddInBase003531@@MAEXXZ ; CChartAddInBase003531::AfeterOnOcxDestroyWindow
PUBLIC	?ChangeChartMode@CChartAddInBase003531@@MAEXW4CHART_MODE@CChartInfo@@@Z ; CChartAddInBase003531::ChangeChartMode
PUBLIC	?OnGSharedDataChange@CChartAddInBase003531@@MAEXPBD0H@Z ; CChartAddInBase003531::OnGSharedDataChange
PUBLIC	?OnLSharedDataChange@CChartAddInBase003531@@MAEXPBD0@Z ; CChartAddInBase003531::OnLSharedDataChange
PUBLIC	?OnResetChart@CChartAddInBase003531@@MAEXXZ	; CChartAddInBase003531::OnResetChart
PUBLIC	?OnDrawBeforeGraph@CChartAddInBase003531@@MAEXPAUHDC__@@@Z ; CChartAddInBase003531::OnDrawBeforeGraph
PUBLIC	?OnDrawAfterGraph@CChartAddInBase003531@@MAEXPAUHDC__@@@Z ; CChartAddInBase003531::OnDrawAfterGraph
PUBLIC	?OnUpdatePacketData@CChartAddInBase003531@@MAEXH@Z ; CChartAddInBase003531::OnUpdatePacketData
PUBLIC	?OnPacketDataMultiItem@CChartAddInBase003531@@MAEXPBD0H@Z ; CChartAddInBase003531::OnPacketDataMultiItem
PUBLIC	?OnTimer@CChartAddInBase003531@@MAEXI@Z		; CChartAddInBase003531::OnTimer
PUBLIC	?OnCaptureChanged@CChartAddInBase003531@@MAEXPAUHWND__@@QAUHBITMAP__@@@Z ; CChartAddInBase003531::OnCaptureChanged
PUBLIC	?OnResetMainBlock@CChartAddInBase003531@@MAEXXZ	; CChartAddInBase003531::OnResetMainBlock
PUBLIC	?OnUserIndiatorConditionLoaded@CChartAddInBase003531@@MAEXXZ ; CChartAddInBase003531::OnUserIndiatorConditionLoaded
PUBLIC	?OnChartItemChanged@CChartAddInBase003531@@MAEXXZ ; CChartAddInBase003531::OnChartItemChanged
PUBLIC	?OnGraphDataChanged@CChartAddInBase003531@@MAEXXZ ; CChartAddInBase003531::OnGraphDataChanged
PUBLIC	?OnBlockRemoved@CChartAddInBase003531@@MAEXHH@Z	; CChartAddInBase003531::OnBlockRemoved
PUBLIC	?OnGraphAdded@CChartAddInBase003531@@MAEXPBD0@Z	; CChartAddInBase003531::OnGraphAdded
PUBLIC	?OnManualRealData@CChartAddInBase003531@@MAEXPBDNH@Z ; CChartAddInBase003531::OnManualRealData
PUBLIC	?OnContextMenu@CChartAddInBase003531@@MAEXPAUHWND__@@AAUtagPOINT@@@Z ; CChartAddInBase003531::OnContextMenu
PUBLIC	?OnGraphDeleted@CChartAddInBase003531@@MAEXPBD0@Z ; CChartAddInBase003531::OnGraphDeleted
PUBLIC	?OnPacketTruncated@CChartAddInBase003531@@MAEXH@Z ; CChartAddInBase003531::OnPacketTruncated
PUBLIC	?OnBlockChanged@CChartAddInBase003531@@MAEXW4BLOCKBEHAVIOR@CBlockBaseData@@HHHH@Z ; CChartAddInBase003531::OnBlockChanged
PUBLIC	?OnToolCommand@CChartAddInBase003531@@MAEXHH@Z	; CChartAddInBase003531::OnToolCommand
PUBLIC	?OnRealData@CChartAddInBase003531@@MAEXPBDN0@Z	; CChartAddInBase003531::OnRealData
PUBLIC	?OnIndexedRealData@CChartAddInBase003531@@MAEXPBDHN@Z ; CChartAddInBase003531::OnIndexedRealData
PUBLIC	?OnRealPacketEnd@CChartAddInBase003531@@MAEXPBD@Z ; CChartAddInBase003531::OnRealPacketEnd
PUBLIC	?OnLoadEnvironment@CChartAddInBase003531@@MAEXPAUIPropertyMap@@@Z ; CChartAddInBase003531::OnLoadEnvironment
PUBLIC	?OnSaveEnvironment@CChartAddInBase003531@@MAEXPAUIPropertyMap@@@Z ; CChartAddInBase003531::OnSaveEnvironment
PUBLIC	?DrawCursor@CChartAddInBase003531@@MAE?AUtagRECT@@PAUHDC__@@@Z ; CChartAddInBase003531::DrawCursor
PUBLIC	?OnRecalculationComplete@CChartAddInBase003531@@MAEXXZ ; CChartAddInBase003531::OnRecalculationComplete
PUBLIC	?OnPreRealData@CChartAddInBase003531@@MAEHPBDAAN0H@Z ; CChartAddInBase003531::OnPreRealData
PUBLIC	?OnPreIndexedRealData@CChartAddInBase003531@@MAEHPBDHAANH@Z ; CChartAddInBase003531::OnPreIndexedRealData
PUBLIC	?OnPreRealPacketEnd@CChartAddInBase003531@@MAEHPBDH@Z ; CChartAddInBase003531::OnPreRealPacketEnd
PUBLIC	?OnPreNMTRClock@CChartAddInBase003531@@MAEHAA_J@Z ; CChartAddInBase003531::OnPreNMTRClock
PUBLIC	?OnCmdMsg@CChartAddInBase003531@@MAEHIHPAUICmdUI003531@@@Z ; CChartAddInBase003531::OnCmdMsg
PUBLIC	?OnAddInMsg@CChartAddInBase003531@@MAEHPBDJ@Z	; CChartAddInBase003531::OnAddInMsg
PUBLIC	?OnAddInToolCommand@CChartAddInBase003531@@MAEHW4EAICommandType@@@Z ; CChartAddInBase003531::OnAddInToolCommand
PUBLIC	?OnAddInToolCommand@CChartAddInBase003531@@MAEHW4EAICommandType@@PAUHDC__@@IAAUtagPOINT@@K@Z ; CChartAddInBase003531::OnAddInToolCommand
PUBLIC	?OnAddInToolCommand@CChartAddInBase003531@@MAEHW4EAICommandType@@PBD@Z ; CChartAddInBase003531::OnAddInToolCommand
PUBLIC	?OnAddInToolCommand@CChartAddInBase003531@@MAEHW4EAICommandType@@PBD1@Z ; CChartAddInBase003531::OnAddInToolCommand
PUBLIC	?OnAddInToolCommand@CChartAddInBase003531@@MAEHW4EAICommandType@@PBDJ@Z ; CChartAddInBase003531::OnAddInToolCommand
PUBLIC	?OnAddInToolCommand@CChartAddInBase003531@@MAEHW4EAICommandType@@PBUIAddInDllBase@@@Z ; CChartAddInBase003531::OnAddInToolCommand
PUBLIC	?OnAddInToolCommand@CChartAddInBase003531@@MAEHW4EAICommandType@@J@Z ; CChartAddInBase003531::OnAddInToolCommand
PUBLIC	?OnAddInToolCommand@CChartAddInBase003531@@MAEHW4EAICommandType@@JPBD@Z ; CChartAddInBase003531::OnAddInToolCommand
PUBLIC	?OnAddInToolCommand@CChartAddInBase003531@@MAEHW4EAICommandType@@JPBD11@Z ; CChartAddInBase003531::OnAddInToolCommand
PUBLIC	?OnAddInToolCommand@CChartAddInBase003531@@MAEHW4EAICommandType@@JJ@Z ; CChartAddInBase003531::OnAddInToolCommand
PUBLIC	?OnAddInToolCommand@CChartAddInBase003531@@MAEHW4EAICommandType@@JJJJJJJJJ@Z ; CChartAddInBase003531::OnAddInToolCommand
PUBLIC	?OnAddInToolCommand@CChartAddInBase003531@@MAEHAAJW4EAICommandType@@@Z ; CChartAddInBase003531::OnAddInToolCommand
PUBLIC	?OnAddInToolCommand@CChartAddInBase003531@@MAEHAAJW4EAICommandType@@PAUIGraphInfo003531@@@Z ; CChartAddInBase003531::OnAddInToolCommand
PUBLIC	?OnAddInToolCommand@CChartAddInBase003531@@MAEHAAJW4EAICommandType@@PBD@Z ; CChartAddInBase003531::OnAddInToolCommand
PUBLIC	?OnAddInToolCommand@CChartAddInBase003531@@MAEHAAJW4EAICommandType@@PBDPAVCObject@@@Z ; CChartAddInBase003531::OnAddInToolCommand
PUBLIC	?OnAddInToolCommand@CChartAddInBase003531@@MAEHAAJW4EAICommandType@@J@Z ; CChartAddInBase003531::OnAddInToolCommand
PUBLIC	?OnAddInToolCommand@CChartAddInBase003531@@MAEHAAJW4EAICommandType@@JJ@Z ; CChartAddInBase003531::OnAddInToolCommand
PUBLIC	?OnKeyDown@CChartAddInBase003531@@MAEHIII@Z	; CChartAddInBase003531::OnKeyDown
PUBLIC	?OnKeyUp@CChartAddInBase003531@@MAEHIII@Z	; CChartAddInBase003531::OnKeyUp
PUBLIC	?OnMouseWheel@CChartAddInBase003531@@MAEHIFUtagPOINT@@K@Z ; CChartAddInBase003531::OnMouseWheel
PUBLIC	?OnMouseMove@CChartAddInBase003531@@MAEHPAUHDC__@@IAAUtagPOINT@@KQAUHBITMAP__@@@Z ; CChartAddInBase003531::OnMouseMove
PUBLIC	?OnLButtonDown@CChartAddInBase003531@@MAEHPAUHDC__@@IAAUtagPOINT@@K@Z ; CChartAddInBase003531::OnLButtonDown
PUBLIC	?OnLButtonUp@CChartAddInBase003531@@MAEHPAUHDC__@@IAAUtagPOINT@@K@Z ; CChartAddInBase003531::OnLButtonUp
PUBLIC	?OnLButtonDblClk@CChartAddInBase003531@@MAEHPAUHDC__@@IAAUtagPOINT@@K@Z ; CChartAddInBase003531::OnLButtonDblClk
PUBLIC	?OnRButtonDown@CChartAddInBase003531@@MAEHPAUHDC__@@IAAUtagPOINT@@K@Z ; CChartAddInBase003531::OnRButtonDown
PUBLIC	?OnRButtonUp@CChartAddInBase003531@@MAEHPAUHDC__@@IAAUtagPOINT@@K@Z ; CChartAddInBase003531::OnRButtonUp
PUBLIC	?OnRButtonDblClk@CChartAddInBase003531@@MAEHPAUHDC__@@IAAUtagPOINT@@K@Z ; CChartAddInBase003531::OnRButtonDblClk
PUBLIC	??_GCChartAddInBase003531@@MAEPAXI@Z		; CChartAddInBase003531::`scalar deleting destructor'
PUBLIC	?QueryInterface@CChartAddInBase003531@@O7AGJABU_GUID@@PAPAX@Z ; [thunk]:CChartAddInBase003531::QueryInterface`adjustor{8}'
PUBLIC	?AddRef@CChartAddInBase003531@@O7AGKXZ		; [thunk]:CChartAddInBase003531::AddRef`adjustor{8}'
PUBLIC	?Release@CChartAddInBase003531@@O7AGKXZ		; [thunk]:CChartAddInBase003531::Release`adjustor{8}'
PUBLIC	??_ECChartAddInBase003531@@O7AEPAXI@Z		; [thunk]:CChartAddInBase003531::`vector deleting destructor'
PUBLIC	??_R0?AVCObject@@@8				; CObject `RTTI Type Descriptor'
PUBLIC	??_R3CObject@@8					; CObject::`RTTI Class Hierarchy Descriptor'
PUBLIC	??_R2CObject@@8					; CObject::`RTTI Base Class Array'
PUBLIC	??_R1A@?0A@EA@CObject@@8			; CObject::`RTTI Base Class Descriptor at (0,-1,0,64)'
PUBLIC	??_R0?AUIUnknown@@@8				; IUnknown `RTTI Type Descriptor'
PUBLIC	??_R3IUnknown@@8				; IUnknown::`RTTI Class Hierarchy Descriptor'
PUBLIC	??_R2IUnknown@@8				; IUnknown::`RTTI Base Class Array'
PUBLIC	??_R1A@?0A@EA@IUnknown@@8			; IUnknown::`RTTI Base Class Descriptor at (0,-1,0,64)'
PUBLIC	??_7IChartAddIn003531@@6B@			; IChartAddIn003531::`vftable'
PUBLIC	??_7CChartAddInBase003531@@6BCIWUnknown@@@	; CChartAddInBase003531::`vftable'
PUBLIC	??_7CChartAddInBase003531@@6BIChartAddIn003531@@@ ; CChartAddInBase003531::`vftable'
PUBLIC	??_C@_0CL@ODHPAEIM@CChartAddInBase003531?5Null?5Wrap@ ; `string'
PUBLIC	??_R4IChartAddIn003531@@6B@			; IChartAddIn003531::`RTTI Complete Object Locator'
PUBLIC	??_R0?AUIChartAddIn003531@@@8			; IChartAddIn003531 `RTTI Type Descriptor'
PUBLIC	??_R3IChartAddIn003531@@8			; IChartAddIn003531::`RTTI Class Hierarchy Descriptor'
PUBLIC	??_R2IChartAddIn003531@@8			; IChartAddIn003531::`RTTI Base Class Array'
PUBLIC	??_R1A@?0A@EA@IChartAddIn003531@@8		; IChartAddIn003531::`RTTI Base Class Descriptor at (0,-1,0,64)'
PUBLIC	??_R4CChartAddInBase003531@@6BCIWUnknown@@@	; CChartAddInBase003531::`RTTI Complete Object Locator'
PUBLIC	??_R0?AVCChartAddInBase003531@@@8		; CChartAddInBase003531 `RTTI Type Descriptor'
PUBLIC	??_R3CChartAddInBase003531@@8			; CChartAddInBase003531::`RTTI Class Hierarchy Descriptor'
PUBLIC	??_R2CChartAddInBase003531@@8			; CChartAddInBase003531::`RTTI Base Class Array'
PUBLIC	??_R1A@?0A@EA@CChartAddInBase003531@@8		; CChartAddInBase003531::`RTTI Base Class Descriptor at (0,-1,0,64)'
PUBLIC	??_R1A@?0A@EA@CIWUnknown@@8			; CIWUnknown::`RTTI Base Class Descriptor at (0,-1,0,64)'
PUBLIC	??_R0?AVCIWUnknown@@@8				; CIWUnknown `RTTI Type Descriptor'
PUBLIC	??_R3CIWUnknown@@8				; CIWUnknown::`RTTI Class Hierarchy Descriptor'
PUBLIC	??_R2CIWUnknown@@8				; CIWUnknown::`RTTI Base Class Array'
PUBLIC	??_R17?0A@EA@IChartAddIn003531@@8		; IChartAddIn003531::`RTTI Base Class Descriptor at (8,-1,0,64)'
PUBLIC	??_R17?0A@EA@IUnknown@@8			; IUnknown::`RTTI Base Class Descriptor at (8,-1,0,64)'
PUBLIC	??_R4CChartAddInBase003531@@6BIChartAddIn003531@@@ ; CChartAddInBase003531::`RTTI Complete Object Locator'
EXTRN	__purecall:PROC
EXTRN	??3@YAXPAX@Z:PROC				; operator delete
EXTRN	??3@YAXPAXI@Z:PROC				; operator delete
EXTRN	?__global_delete@@YAXPAXI@Z:PROC		; __global_delete
EXTRN	___std_terminate:PROC
EXTRN	?GetRuntimeClass@CObject@@UBEPAUCRuntimeClass@@XZ:PROC ; CObject::GetRuntimeClass
EXTRN	?AfxGetStaticModuleState@@YGPAVAFX_MODULE_STATE@@XZ:PROC ; AfxGetStaticModuleState
EXTRN	??0AFX_MAINTAIN_STATE2@@QAE@PAVAFX_MODULE_STATE@@@Z:PROC ; AFX_MAINTAIN_STATE2::AFX_MAINTAIN_STATE2
EXTRN	??1AFX_MAINTAIN_STATE2@@QAE@XZ:PROC		; AFX_MAINTAIN_STATE2::~AFX_MAINTAIN_STATE2
EXTRN	?FromHandle@CWnd@@SGPAV1@PAUHWND__@@@Z:PROC	; CWnd::FromHandle
EXTRN	?AfxMessageBox@@YGHPBDII@Z:PROC			; AfxMessageBox
EXTRN	??0CIWUnknown@@QAE@XZ:PROC			; CIWUnknown::CIWUnknown
EXTRN	??1CIWUnknown@@MAE@XZ:PROC			; CIWUnknown::~CIWUnknown
EXTRN	?AddRef@CIWUnknown@@MAGKXZ:PROC			; CIWUnknown::AddRef
EXTRN	?Release@CIWUnknown@@MAGKXZ:PROC		; CIWUnknown::Release
EXTRN	??_EIChartAddIn003531@@MAEPAXI@Z:PROC		; IChartAddIn003531::`vector deleting destructor'
EXTRN	??_ECChartAddInBase003531@@MAEPAXI@Z:PROC	; CChartAddInBase003531::`vector deleting destructor'
EXTRN	@__security_check_cookie@4:PROC
EXTRN	___CxxFrameHandler3:PROC
EXTRN	??_7type_info@@6B@:QWORD			; type_info::`vftable'
EXTRN	___security_cookie:DWORD
;	COMDAT ??_R4CChartAddInBase003531@@6BIChartAddIn003531@@@
rdata$r	SEGMENT
??_R4CChartAddInBase003531@@6BIChartAddIn003531@@@ DD 00H ; CChartAddInBase003531::`RTTI Complete Object Locator'
	DD	08H
	DD	00H
	DD	FLAT:??_R0?AVCChartAddInBase003531@@@8
	DD	FLAT:??_R3CChartAddInBase003531@@8
rdata$r	ENDS
;	COMDAT ??_R17?0A@EA@IUnknown@@8
rdata$r	SEGMENT
??_R17?0A@EA@IUnknown@@8 DD FLAT:??_R0?AUIUnknown@@@8	; IUnknown::`RTTI Base Class Descriptor at (8,-1,0,64)'
	DD	00H
	DD	08H
	DD	0ffffffffH
	DD	00H
	DD	040H
	DD	FLAT:??_R3IUnknown@@8
rdata$r	ENDS
;	COMDAT ??_R17?0A@EA@IChartAddIn003531@@8
rdata$r	SEGMENT
??_R17?0A@EA@IChartAddIn003531@@8 DD FLAT:??_R0?AUIChartAddIn003531@@@8 ; IChartAddIn003531::`RTTI Base Class Descriptor at (8,-1,0,64)'
	DD	01H
	DD	08H
	DD	0ffffffffH
	DD	00H
	DD	040H
	DD	FLAT:??_R3IChartAddIn003531@@8
rdata$r	ENDS
;	COMDAT ??_R2CIWUnknown@@8
rdata$r	SEGMENT
??_R2CIWUnknown@@8 DD FLAT:??_R1A@?0A@EA@CIWUnknown@@8	; CIWUnknown::`RTTI Base Class Array'
	DD	FLAT:??_R1A@?0A@EA@CObject@@8
rdata$r	ENDS
;	COMDAT ??_R3CIWUnknown@@8
rdata$r	SEGMENT
??_R3CIWUnknown@@8 DD 00H				; CIWUnknown::`RTTI Class Hierarchy Descriptor'
	DD	00H
	DD	02H
	DD	FLAT:??_R2CIWUnknown@@8
rdata$r	ENDS
;	COMDAT ??_R0?AVCIWUnknown@@@8
data$rs	SEGMENT
??_R0?AVCIWUnknown@@@8 DD FLAT:??_7type_info@@6B@	; CIWUnknown `RTTI Type Descriptor'
	DD	00H
	DB	'.?AVCIWUnknown@@', 00H
data$rs	ENDS
;	COMDAT ??_R1A@?0A@EA@CIWUnknown@@8
rdata$r	SEGMENT
??_R1A@?0A@EA@CIWUnknown@@8 DD FLAT:??_R0?AVCIWUnknown@@@8 ; CIWUnknown::`RTTI Base Class Descriptor at (0,-1,0,64)'
	DD	01H
	DD	00H
	DD	0ffffffffH
	DD	00H
	DD	040H
	DD	FLAT:??_R3CIWUnknown@@8
rdata$r	ENDS
;	COMDAT ??_R1A@?0A@EA@CChartAddInBase003531@@8
rdata$r	SEGMENT
??_R1A@?0A@EA@CChartAddInBase003531@@8 DD FLAT:??_R0?AVCChartAddInBase003531@@@8 ; CChartAddInBase003531::`RTTI Base Class Descriptor at (0,-1,0,64)'
	DD	04H
	DD	00H
	DD	0ffffffffH
	DD	00H
	DD	040H
	DD	FLAT:??_R3CChartAddInBase003531@@8
rdata$r	ENDS
;	COMDAT ??_R2CChartAddInBase003531@@8
rdata$r	SEGMENT
??_R2CChartAddInBase003531@@8 DD FLAT:??_R1A@?0A@EA@CChartAddInBase003531@@8 ; CChartAddInBase003531::`RTTI Base Class Array'
	DD	FLAT:??_R1A@?0A@EA@CIWUnknown@@8
	DD	FLAT:??_R1A@?0A@EA@CObject@@8
	DD	FLAT:??_R17?0A@EA@IChartAddIn003531@@8
	DD	FLAT:??_R17?0A@EA@IUnknown@@8
rdata$r	ENDS
;	COMDAT ??_R3CChartAddInBase003531@@8
rdata$r	SEGMENT
??_R3CChartAddInBase003531@@8 DD 00H			; CChartAddInBase003531::`RTTI Class Hierarchy Descriptor'
	DD	01H
	DD	05H
	DD	FLAT:??_R2CChartAddInBase003531@@8
rdata$r	ENDS
;	COMDAT ??_R0?AVCChartAddInBase003531@@@8
data$rs	SEGMENT
??_R0?AVCChartAddInBase003531@@@8 DD FLAT:??_7type_info@@6B@ ; CChartAddInBase003531 `RTTI Type Descriptor'
	DD	00H
	DB	'.?AVCChartAddInBase003531@@', 00H
data$rs	ENDS
;	COMDAT ??_R4CChartAddInBase003531@@6BCIWUnknown@@@
rdata$r	SEGMENT
??_R4CChartAddInBase003531@@6BCIWUnknown@@@ DD 00H	; CChartAddInBase003531::`RTTI Complete Object Locator'
	DD	00H
	DD	00H
	DD	FLAT:??_R0?AVCChartAddInBase003531@@@8
	DD	FLAT:??_R3CChartAddInBase003531@@8
rdata$r	ENDS
;	COMDAT ??_R1A@?0A@EA@IChartAddIn003531@@8
rdata$r	SEGMENT
??_R1A@?0A@EA@IChartAddIn003531@@8 DD FLAT:??_R0?AUIChartAddIn003531@@@8 ; IChartAddIn003531::`RTTI Base Class Descriptor at (0,-1,0,64)'
	DD	01H
	DD	00H
	DD	0ffffffffH
	DD	00H
	DD	040H
	DD	FLAT:??_R3IChartAddIn003531@@8
rdata$r	ENDS
;	COMDAT ??_R2IChartAddIn003531@@8
rdata$r	SEGMENT
??_R2IChartAddIn003531@@8 DD FLAT:??_R1A@?0A@EA@IChartAddIn003531@@8 ; IChartAddIn003531::`RTTI Base Class Array'
	DD	FLAT:??_R1A@?0A@EA@IUnknown@@8
rdata$r	ENDS
;	COMDAT ??_R3IChartAddIn003531@@8
rdata$r	SEGMENT
??_R3IChartAddIn003531@@8 DD 00H			; IChartAddIn003531::`RTTI Class Hierarchy Descriptor'
	DD	00H
	DD	02H
	DD	FLAT:??_R2IChartAddIn003531@@8
rdata$r	ENDS
;	COMDAT ??_R0?AUIChartAddIn003531@@@8
data$rs	SEGMENT
??_R0?AUIChartAddIn003531@@@8 DD FLAT:??_7type_info@@6B@ ; IChartAddIn003531 `RTTI Type Descriptor'
	DD	00H
	DB	'.?AUIChartAddIn003531@@', 00H
data$rs	ENDS
;	COMDAT ??_R4IChartAddIn003531@@6B@
rdata$r	SEGMENT
??_R4IChartAddIn003531@@6B@ DD 00H			; IChartAddIn003531::`RTTI Complete Object Locator'
	DD	00H
	DD	00H
	DD	FLAT:??_R0?AUIChartAddIn003531@@@8
	DD	FLAT:??_R3IChartAddIn003531@@8
rdata$r	ENDS
;	COMDAT ??_C@_0CL@ODHPAEIM@CChartAddInBase003531?5Null?5Wrap@
CONST	SEGMENT
??_C@_0CL@ODHPAEIM@CChartAddInBase003531?5Null?5Wrap@ DB 'CChartAddInBase'
	DB	'003531 Null Wrapping Error!', 00H		; `string'
CONST	ENDS
;	COMDAT ??_7CChartAddInBase003531@@6BIChartAddIn003531@@@
CONST	SEGMENT
??_7CChartAddInBase003531@@6BIChartAddIn003531@@@ DD FLAT:??_R4CChartAddInBase003531@@6BIChartAddIn003531@@@ ; CChartAddInBase003531::`vftable'
	DD	FLAT:?QueryInterface@CChartAddInBase003531@@O7AGJABU_GUID@@PAPAX@Z
	DD	FLAT:?AddRef@CChartAddInBase003531@@O7AGKXZ
	DD	FLAT:?Release@CChartAddInBase003531@@O7AGKXZ
	DD	FLAT:??_ECChartAddInBase003531@@O7AEPAXI@Z
	DD	FLAT:?HasFullManager@CChartAddInBase003531@@MAEHXZ
	DD	FLAT:?GetAddInCustomInterface@CChartAddInBase003531@@MAEPAUIUnknown@@XZ
	DD	FLAT:?InvokeAddIn@CChartAddInBase003531@@MAEHHJ@Z
	DD	FLAT:?InvokeAddInStr@CChartAddInBase003531@@MAEHPBD0@Z
	DD	FLAT:?OnOcxDestroyWindow@CChartAddInBase003531@@MAEXXZ
	DD	FLAT:?ChangeChartMode@CChartAddInBase003531@@MAEXW4CHART_MODE@CChartInfo@@@Z
	DD	FLAT:?RegisterEventMap@CChartAddInBase003531@@UAEHH@Z
	DD	FLAT:?UnregisterEventMap@CChartAddInBase003531@@UAEHXZ
	DD	FLAT:?OnGSharedDataChange@CChartAddInBase003531@@MAEXPBD0H@Z
	DD	FLAT:?OnLSharedDataChange@CChartAddInBase003531@@MAEXPBD0@Z
	DD	FLAT:?OnResetChart@CChartAddInBase003531@@MAEXXZ
	DD	FLAT:?OnDrawBeforeGraph@CChartAddInBase003531@@MAEXPAUHDC__@@@Z
	DD	FLAT:?OnDrawAfterGraph@CChartAddInBase003531@@MAEXPAUHDC__@@@Z
	DD	FLAT:?OnUpdatePacketData@CChartAddInBase003531@@MAEXH@Z
	DD	FLAT:?OnPacketDataMultiItem@CChartAddInBase003531@@MAEXPBD0H@Z
	DD	FLAT:?OnTimer@CChartAddInBase003531@@MAEXI@Z
	DD	FLAT:?OnCaptureChanged@CChartAddInBase003531@@MAEXPAUHWND__@@QAUHBITMAP__@@@Z
	DD	FLAT:?OnResetMainBlock@CChartAddInBase003531@@MAEXXZ
	DD	FLAT:?OnUserIndiatorConditionLoaded@CChartAddInBase003531@@MAEXXZ
	DD	FLAT:?OnChartItemChanged@CChartAddInBase003531@@MAEXXZ
	DD	FLAT:?OnGraphDataChanged@CChartAddInBase003531@@MAEXXZ
	DD	FLAT:?OnBlockRemoved@CChartAddInBase003531@@MAEXHH@Z
	DD	FLAT:?OnGraphAdded@CChartAddInBase003531@@MAEXPBD0@Z
	DD	FLAT:?OnManualRealData@CChartAddInBase003531@@MAEXPBDNH@Z
	DD	FLAT:?OnContextMenu@CChartAddInBase003531@@MAEXPAUHWND__@@AAUtagPOINT@@@Z
	DD	FLAT:?OnGraphDeleted@CChartAddInBase003531@@MAEXPBD0@Z
	DD	FLAT:?OnPacketTruncated@CChartAddInBase003531@@MAEXH@Z
	DD	FLAT:?OnBlockChanged@CChartAddInBase003531@@MAEXW4BLOCKBEHAVIOR@CBlockBaseData@@HHHH@Z
	DD	FLAT:?OnToolCommand@CChartAddInBase003531@@MAEXHH@Z
	DD	FLAT:?OnRealData@CChartAddInBase003531@@MAEXPBDN0@Z
	DD	FLAT:?OnIndexedRealData@CChartAddInBase003531@@MAEXPBDHN@Z
	DD	FLAT:?OnRealPacketEnd@CChartAddInBase003531@@MAEXPBD@Z
	DD	FLAT:?OnLoadEnvironment@CChartAddInBase003531@@MAEXPAUIPropertyMap@@@Z
	DD	FLAT:?OnSaveEnvironment@CChartAddInBase003531@@MAEXPAUIPropertyMap@@@Z
	DD	FLAT:?DrawCursor@CChartAddInBase003531@@MAE?AUtagRECT@@PAUHDC__@@@Z
	DD	FLAT:?OnRecalculationComplete@CChartAddInBase003531@@MAEXXZ
	DD	FLAT:?OnPreRealData@CChartAddInBase003531@@MAEHPBDAAN0H@Z
	DD	FLAT:?OnPreIndexedRealData@CChartAddInBase003531@@MAEHPBDHAANH@Z
	DD	FLAT:?OnPreRealPacketEnd@CChartAddInBase003531@@MAEHPBDH@Z
	DD	FLAT:?OnPreNMTRClock@CChartAddInBase003531@@MAEHAA_J@Z
	DD	FLAT:?OnCmdMsg@CChartAddInBase003531@@MAEHIHPAUICmdUI003531@@@Z
	DD	FLAT:?OnAddInMsg@CChartAddInBase003531@@MAEHPBDJ@Z
	DD	FLAT:?OnAddInToolCommand@CChartAddInBase003531@@MAEHAAJW4EAICommandType@@JJ@Z
	DD	FLAT:?OnAddInToolCommand@CChartAddInBase003531@@MAEHAAJW4EAICommandType@@J@Z
	DD	FLAT:?OnAddInToolCommand@CChartAddInBase003531@@MAEHAAJW4EAICommandType@@PBDPAVCObject@@@Z
	DD	FLAT:?OnAddInToolCommand@CChartAddInBase003531@@MAEHAAJW4EAICommandType@@PBD@Z
	DD	FLAT:?OnAddInToolCommand@CChartAddInBase003531@@MAEHAAJW4EAICommandType@@PAUIGraphInfo003531@@@Z
	DD	FLAT:?OnAddInToolCommand@CChartAddInBase003531@@MAEHAAJW4EAICommandType@@@Z
	DD	FLAT:?OnAddInToolCommand@CChartAddInBase003531@@MAEHW4EAICommandType@@JJJJJJJJJ@Z
	DD	FLAT:?OnAddInToolCommand@CChartAddInBase003531@@MAEHW4EAICommandType@@JJ@Z
	DD	FLAT:?OnAddInToolCommand@CChartAddInBase003531@@MAEHW4EAICommandType@@JPBD11@Z
	DD	FLAT:?OnAddInToolCommand@CChartAddInBase003531@@MAEHW4EAICommandType@@JPBD@Z
	DD	FLAT:?OnAddInToolCommand@CChartAddInBase003531@@MAEHW4EAICommandType@@J@Z
	DD	FLAT:?OnAddInToolCommand@CChartAddInBase003531@@MAEHW4EAICommandType@@PBUIAddInDllBase@@@Z
	DD	FLAT:?OnAddInToolCommand@CChartAddInBase003531@@MAEHW4EAICommandType@@PBDJ@Z
	DD	FLAT:?OnAddInToolCommand@CChartAddInBase003531@@MAEHW4EAICommandType@@PBD1@Z
	DD	FLAT:?OnAddInToolCommand@CChartAddInBase003531@@MAEHW4EAICommandType@@PBD@Z
	DD	FLAT:?OnAddInToolCommand@CChartAddInBase003531@@MAEHW4EAICommandType@@PAUHDC__@@IAAUtagPOINT@@K@Z
	DD	FLAT:?OnAddInToolCommand@CChartAddInBase003531@@MAEHW4EAICommandType@@@Z
	DD	FLAT:?OnKeyDown@CChartAddInBase003531@@MAEHIII@Z
	DD	FLAT:?OnKeyUp@CChartAddInBase003531@@MAEHIII@Z
	DD	FLAT:?OnMouseWheel@CChartAddInBase003531@@MAEHIFUtagPOINT@@K@Z
	DD	FLAT:?OnMouseMove@CChartAddInBase003531@@MAEHPAUHDC__@@IAAUtagPOINT@@KQAUHBITMAP__@@@Z
	DD	FLAT:?OnLButtonDown@CChartAddInBase003531@@MAEHPAUHDC__@@IAAUtagPOINT@@K@Z
	DD	FLAT:?OnLButtonUp@CChartAddInBase003531@@MAEHPAUHDC__@@IAAUtagPOINT@@K@Z
	DD	FLAT:?OnLButtonDblClk@CChartAddInBase003531@@MAEHPAUHDC__@@IAAUtagPOINT@@K@Z
	DD	FLAT:?OnRButtonDown@CChartAddInBase003531@@MAEHPAUHDC__@@IAAUtagPOINT@@K@Z
	DD	FLAT:?OnRButtonUp@CChartAddInBase003531@@MAEHPAUHDC__@@IAAUtagPOINT@@K@Z
	DD	FLAT:?OnRButtonDblClk@CChartAddInBase003531@@MAEHPAUHDC__@@IAAUtagPOINT@@K@Z
CONST	ENDS
;	COMDAT ??_7CChartAddInBase003531@@6BCIWUnknown@@@
CONST	SEGMENT
??_7CChartAddInBase003531@@6BCIWUnknown@@@ DD FLAT:??_R4CChartAddInBase003531@@6BCIWUnknown@@@ ; CChartAddInBase003531::`vftable'
	DD	FLAT:?GetRuntimeClass@CObject@@UBEPAUCRuntimeClass@@XZ
	DD	FLAT:??_ECChartAddInBase003531@@MAEPAXI@Z
	DD	FLAT:?Serialize@CObject@@UAEXAAVCArchive@@@Z
	DD	FLAT:?AssertValid@CObject@@UBEXXZ
	DD	FLAT:?Dump@CObject@@UBEXAAVCDumpContext@@@Z
	DD	FLAT:?AddRef@CChartAddInBase003531@@MAGKXZ
	DD	FLAT:?Release@CChartAddInBase003531@@MAGKXZ
	DD	FLAT:?QueryInterface@CChartAddInBase003531@@MAGJABU_GUID@@PAPAX@Z
	DD	FLAT:?PostConstruct@CIWUnknown@@MAEXXZ
	DD	FLAT:?PreDestructX@CIWUnknown@@MAEXXZ
	DD	FLAT:?PreDestruct@CIWUnknown@@MAEXXZ
	DD	FLAT:__purecall
	DD	FLAT:?AfeterOnOcxDestroyWindow@CChartAddInBase003531@@MAEXXZ
CONST	ENDS
;	COMDAT ??_7IChartAddIn003531@@6B@
CONST	SEGMENT
??_7IChartAddIn003531@@6B@ DD FLAT:??_R4IChartAddIn003531@@6B@ ; IChartAddIn003531::`vftable'
	DD	FLAT:__purecall
	DD	FLAT:__purecall
	DD	FLAT:__purecall
	DD	FLAT:??_EIChartAddIn003531@@MAEPAXI@Z
	DD	FLAT:__purecall
	DD	FLAT:__purecall
	DD	FLAT:__purecall
	DD	FLAT:__purecall
	DD	FLAT:__purecall
	DD	FLAT:__purecall
	DD	FLAT:__purecall
	DD	FLAT:__purecall
	DD	FLAT:__purecall
	DD	FLAT:__purecall
	DD	FLAT:__purecall
	DD	FLAT:__purecall
	DD	FLAT:__purecall
	DD	FLAT:__purecall
	DD	FLAT:__purecall
	DD	FLAT:__purecall
	DD	FLAT:__purecall
	DD	FLAT:__purecall
	DD	FLAT:__purecall
	DD	FLAT:__purecall
	DD	FLAT:__purecall
	DD	FLAT:__purecall
	DD	FLAT:__purecall
	DD	FLAT:__purecall
	DD	FLAT:__purecall
	DD	FLAT:__purecall
	DD	FLAT:__purecall
	DD	FLAT:__purecall
	DD	FLAT:__purecall
	DD	FLAT:__purecall
	DD	FLAT:__purecall
	DD	FLAT:__purecall
	DD	FLAT:__purecall
	DD	FLAT:__purecall
	DD	FLAT:__purecall
	DD	FLAT:__purecall
	DD	FLAT:__purecall
	DD	FLAT:__purecall
	DD	FLAT:__purecall
	DD	FLAT:__purecall
	DD	FLAT:__purecall
	DD	FLAT:__purecall
	DD	FLAT:__purecall
	DD	FLAT:__purecall
	DD	FLAT:__purecall
	DD	FLAT:__purecall
	DD	FLAT:__purecall
	DD	FLAT:__purecall
	DD	FLAT:__purecall
	DD	FLAT:__purecall
	DD	FLAT:__purecall
	DD	FLAT:__purecall
	DD	FLAT:__purecall
	DD	FLAT:__purecall
	DD	FLAT:__purecall
	DD	FLAT:__purecall
	DD	FLAT:__purecall
	DD	FLAT:__purecall
	DD	FLAT:__purecall
	DD	FLAT:__purecall
	DD	FLAT:__purecall
	DD	FLAT:__purecall
	DD	FLAT:__purecall
	DD	FLAT:__purecall
	DD	FLAT:__purecall
	DD	FLAT:__purecall
	DD	FLAT:__purecall
	DD	FLAT:__purecall
	DD	FLAT:__purecall
CONST	ENDS
;	COMDAT ??_R1A@?0A@EA@IUnknown@@8
rdata$r	SEGMENT
??_R1A@?0A@EA@IUnknown@@8 DD FLAT:??_R0?AUIUnknown@@@8	; IUnknown::`RTTI Base Class Descriptor at (0,-1,0,64)'
	DD	00H
	DD	00H
	DD	0ffffffffH
	DD	00H
	DD	040H
	DD	FLAT:??_R3IUnknown@@8
rdata$r	ENDS
;	COMDAT ??_R2IUnknown@@8
rdata$r	SEGMENT
??_R2IUnknown@@8 DD FLAT:??_R1A@?0A@EA@IUnknown@@8	; IUnknown::`RTTI Base Class Array'
rdata$r	ENDS
;	COMDAT ??_R3IUnknown@@8
rdata$r	SEGMENT
??_R3IUnknown@@8 DD 00H					; IUnknown::`RTTI Class Hierarchy Descriptor'
	DD	00H
	DD	01H
	DD	FLAT:??_R2IUnknown@@8
rdata$r	ENDS
;	COMDAT ??_R0?AUIUnknown@@@8
data$rs	SEGMENT
??_R0?AUIUnknown@@@8 DD FLAT:??_7type_info@@6B@		; IUnknown `RTTI Type Descriptor'
	DD	00H
	DB	'.?AUIUnknown@@', 00H
data$rs	ENDS
;	COMDAT ??_R1A@?0A@EA@CObject@@8
rdata$r	SEGMENT
??_R1A@?0A@EA@CObject@@8 DD FLAT:??_R0?AVCObject@@@8	; CObject::`RTTI Base Class Descriptor at (0,-1,0,64)'
	DD	00H
	DD	00H
	DD	0ffffffffH
	DD	00H
	DD	040H
	DD	FLAT:??_R3CObject@@8
rdata$r	ENDS
;	COMDAT ??_R2CObject@@8
rdata$r	SEGMENT
??_R2CObject@@8 DD FLAT:??_R1A@?0A@EA@CObject@@8	; CObject::`RTTI Base Class Array'
rdata$r	ENDS
;	COMDAT ??_R3CObject@@8
rdata$r	SEGMENT
??_R3CObject@@8 DD 00H					; CObject::`RTTI Class Hierarchy Descriptor'
	DD	00H
	DD	01H
	DD	FLAT:??_R2CObject@@8
rdata$r	ENDS
;	COMDAT ??_R0?AVCObject@@@8
data$rs	SEGMENT
??_R0?AVCObject@@@8 DD FLAT:??_7type_info@@6B@		; CObject `RTTI Type Descriptor'
	DD	00H
	DB	'.?AVCObject@@', 00H
data$rs	ENDS
;	COMDAT xdata$x
xdata$x	SEGMENT
__unwindtable$??_GCChartAddInBase003531@@MAEPAXI@Z DD 0ffffffffH
	DD	FLAT:___std_terminate
__ehfuncinfo$??_GCChartAddInBase003531@@MAEPAXI@Z DD 019930522H
	DD	01H
	DD	FLAT:__unwindtable$??_GCChartAddInBase003531@@MAEPAXI@Z
	DD	2 DUP(00H)
	DD	2 DUP(00H)
	DD	00H
	DD	05H
xdata$x	ENDS
;	COMDAT xdata$x
xdata$x	SEGMENT
__ehfuncinfo$??1CChartAddInBase003531@@MAE@XZ DD 019930522H
	DD	00H
	DD	00H
	DD	2 DUP(00H)
	DD	2 DUP(00H)
	DD	00H
	DD	05H
xdata$x	ENDS
;	COMDAT xdata$x
xdata$x	SEGMENT
__unwindtable$??0CChartAddInBase003531@@IAE@PAUIChartOCX003531@@PAUIAddInDllBase@@@Z DD 0ffffffffH
	DD	FLAT:__unwindfunclet$??0CChartAddInBase003531@@IAE@PAUIChartOCX003531@@PAUIAddInDllBase@@@Z$0
	DD	00H
	DD	FLAT:__unwindfunclet$??0CChartAddInBase003531@@IAE@PAUIChartOCX003531@@PAUIAddInDllBase@@@Z$1
	DD	01H
	DD	FLAT:__unwindfunclet$??0CChartAddInBase003531@@IAE@PAUIChartOCX003531@@PAUIAddInDllBase@@@Z$2
__ehfuncinfo$??0CChartAddInBase003531@@IAE@PAUIChartOCX003531@@PAUIAddInDllBase@@@Z DD 019930522H
	DD	03H
	DD	FLAT:__unwindtable$??0CChartAddInBase003531@@IAE@PAUIChartOCX003531@@PAUIAddInDllBase@@@Z
	DD	2 DUP(00H)
	DD	2 DUP(00H)
	DD	00H
	DD	01H
xdata$x	ENDS
; Function compile flags: /Odsp
;	COMDAT ??_ECChartAddInBase003531@@O7AEPAXI@Z
_TEXT	SEGMENT
??_ECChartAddInBase003531@@O7AEPAXI@Z PROC		; [thunk]:CChartAddInBase003531::`vector deleting destructor', COMDAT
  00000	83 e9 08	 sub	 ecx, 8
  00003	e9 00 00 00 00	 jmp	 ??_ECChartAddInBase003531@@MAEPAXI@Z
??_ECChartAddInBase003531@@O7AEPAXI@Z ENDP		; [thunk]:CChartAddInBase003531::`vector deleting destructor'
_TEXT	ENDS
; Function compile flags: /Odsp
;	COMDAT ?Release@CChartAddInBase003531@@O7AGKXZ
_TEXT	SEGMENT
?Release@CChartAddInBase003531@@O7AGKXZ PROC		; [thunk]:CChartAddInBase003531::Release`adjustor{8}', COMDAT
  00000	83 6c 24 04 08	 sub	 DWORD PTR [esp+4], 8
  00005	e9 00 00 00 00	 jmp	 ?Release@CChartAddInBase003531@@MAGKXZ ; CChartAddInBase003531::Release
?Release@CChartAddInBase003531@@O7AGKXZ ENDP		; [thunk]:CChartAddInBase003531::Release`adjustor{8}'
_TEXT	ENDS
; Function compile flags: /Odsp
;	COMDAT ?AddRef@CChartAddInBase003531@@O7AGKXZ
_TEXT	SEGMENT
?AddRef@CChartAddInBase003531@@O7AGKXZ PROC		; [thunk]:CChartAddInBase003531::AddRef`adjustor{8}', COMDAT
  00000	83 6c 24 04 08	 sub	 DWORD PTR [esp+4], 8
  00005	e9 00 00 00 00	 jmp	 ?AddRef@CChartAddInBase003531@@MAGKXZ ; CChartAddInBase003531::AddRef
?AddRef@CChartAddInBase003531@@O7AGKXZ ENDP		; [thunk]:CChartAddInBase003531::AddRef`adjustor{8}'
_TEXT	ENDS
; Function compile flags: /Odsp
;	COMDAT ?QueryInterface@CChartAddInBase003531@@O7AGJABU_GUID@@PAPAX@Z
_TEXT	SEGMENT
?QueryInterface@CChartAddInBase003531@@O7AGJABU_GUID@@PAPAX@Z PROC ; [thunk]:CChartAddInBase003531::QueryInterface`adjustor{8}', COMDAT
  00000	83 6c 24 04 08	 sub	 DWORD PTR [esp+4], 8
  00005	e9 00 00 00 00	 jmp	 ?QueryInterface@CChartAddInBase003531@@MAGJABU_GUID@@PAPAX@Z ; CChartAddInBase003531::QueryInterface
?QueryInterface@CChartAddInBase003531@@O7AGJABU_GUID@@PAPAX@Z ENDP ; [thunk]:CChartAddInBase003531::QueryInterface`adjustor{8}'
_TEXT	ENDS
; Function compile flags: /Ogtp
; File D:\git\src\IBK\IBK_DRFN\ProjSrc\SrcChartEx\ChartAddIn\ChartOutsideCustomAddIn\Include_AddIn\I003531\_ChartAddInBase.cpp
; File C:\Program Files (x86)\Microsoft Visual Studio\2019\Community\VC\Tools\MSVC\14.29.30133\atlmfc\include\afx.inl
;	COMDAT ??_GCChartAddInBase003531@@MAEPAXI@Z
_TEXT	SEGMENT
__$EHRec$ = -12						; size = 12
___flags$ = 8						; size = 4
??_GCChartAddInBase003531@@MAEPAXI@Z PROC		; CChartAddInBase003531::`scalar deleting destructor', COMDAT
; _this$ = ecx
  00000	55		 push	 ebp
  00001	8b ec		 mov	 ebp, esp
  00003	6a ff		 push	 -1
  00005	68 00 00 00 00	 push	 __ehhandler$??_GCChartAddInBase003531@@MAEPAXI@Z
  0000a	64 a1 00 00 00
	00		 mov	 eax, DWORD PTR fs:0
  00010	50		 push	 eax
  00011	56		 push	 esi
  00012	a1 00 00 00 00	 mov	 eax, DWORD PTR ___security_cookie
  00017	33 c5		 xor	 eax, ebp
  00019	50		 push	 eax
  0001a	8d 45 f4	 lea	 eax, DWORD PTR __$EHRec$[ebp]
  0001d	64 a3 00 00 00
	00		 mov	 DWORD PTR fs:0, eax
  00023	8b f1		 mov	 esi, ecx
; File D:\git\src\IBK\IBK_DRFN\ProjSrc\SrcChartEx\ChartAddIn\ChartOutsideCustomAddIn\Include_AddIn\I003531\_ChartAddInBase.cpp

; 75   : {

  00025	c7 45 fc 00 00
	00 00		 mov	 DWORD PTR __$EHRec$[ebp+8], 0
  0002c	c7 06 00 00 00
	00		 mov	 DWORD PTR [esi], OFFSET ??_7CChartAddInBase003531@@6BCIWUnknown@@@
  00032	c7 46 08 00 00
	00 00		 mov	 DWORD PTR [esi+8], OFFSET ??_7CChartAddInBase003531@@6BIChartAddIn003531@@@

; 76   : 	RemoveAllInterface();

  00039	e8 00 00 00 00	 call	 ?RemoveAllInterface@CChartAddInBase003531@@IAEXXZ ; CChartAddInBase003531::RemoveAllInterface

; 77   : }

  0003e	8b ce		 mov	 ecx, esi
  00040	c7 46 08 00 00
	00 00		 mov	 DWORD PTR [esi+8], OFFSET ??_7IChartAddIn003531@@6B@
  00047	e8 00 00 00 00	 call	 ??1CIWUnknown@@MAE@XZ	; CIWUnknown::~CIWUnknown
  0004c	8b 45 08	 mov	 eax, DWORD PTR ___flags$[ebp]
  0004f	a8 01		 test	 al, 1
  00051	74 2c		 je	 SHORT $LN12@scalar
  00053	a8 04		 test	 al, 4
  00055	75 1d		 jne	 SHORT $LN3@scalar
; File C:\Program Files (x86)\Microsoft Visual Studio\2019\Community\VC\Tools\MSVC\14.29.30133\atlmfc\include\afx.inl

; 112  : 	{ ::operator delete(p); }

  00057	56		 push	 esi
  00058	e8 00 00 00 00	 call	 ??3@YAXPAX@Z		; operator delete
  0005d	83 c4 04	 add	 esp, 4
  00060	8b c6		 mov	 eax, esi
  00062	8b 4d f4	 mov	 ecx, DWORD PTR __$EHRec$[ebp]
  00065	64 89 0d 00 00
	00 00		 mov	 DWORD PTR fs:0, ecx
  0006c	59		 pop	 ecx
  0006d	5e		 pop	 esi
  0006e	8b e5		 mov	 esp, ebp
  00070	5d		 pop	 ebp
  00071	c2 04 00	 ret	 4
$LN3@scalar:
  00074	6a 40		 push	 64			; 00000040H
  00076	56		 push	 esi
  00077	e8 00 00 00 00	 call	 ?__global_delete@@YAXPAXI@Z ; __global_delete
  0007c	83 c4 08	 add	 esp, 8
$LN12@scalar:
  0007f	8b c6		 mov	 eax, esi
  00081	8b 4d f4	 mov	 ecx, DWORD PTR __$EHRec$[ebp]
  00084	64 89 0d 00 00
	00 00		 mov	 DWORD PTR fs:0, ecx
  0008b	59		 pop	 ecx
  0008c	5e		 pop	 esi
  0008d	8b e5		 mov	 esp, ebp
  0008f	5d		 pop	 ebp
  00090	c2 04 00	 ret	 4
  00093	cc		 int	 3
  00094	cc		 int	 3
  00095	cc		 int	 3
  00096	cc		 int	 3
  00097	cc		 int	 3
_TEXT	ENDS
;	COMDAT text$x
text$x	SEGMENT
__ehhandler$??_GCChartAddInBase003531@@MAEPAXI@Z:
  00000	90		 npad	 1
  00001	90		 npad	 1
  00002	8b 54 24 08	 mov	 edx, DWORD PTR [esp+8]
  00006	8d 42 0c	 lea	 eax, DWORD PTR [edx+12]
  00009	8b 4a f8	 mov	 ecx, DWORD PTR [edx-8]
  0000c	33 c8		 xor	 ecx, eax
  0000e	e8 00 00 00 00	 call	 @__security_check_cookie@4
  00013	b8 00 00 00 00	 mov	 eax, OFFSET __ehfuncinfo$??_GCChartAddInBase003531@@MAEPAXI@Z
  00018	e9 00 00 00 00	 jmp	 ___CxxFrameHandler3
text$x	ENDS
??_GCChartAddInBase003531@@MAEPAXI@Z ENDP		; CChartAddInBase003531::`scalar deleting destructor'
; Function compile flags: /Ogtp
; File D:\git\src\IBK\IBK_DRFN\ProjSrc\SrcChartEx\ChartAddIn\ChartOutsideCustomAddIn\Include_AddIn\I003531\_ChartAddInBase.h
;	COMDAT ?OnRButtonDblClk@CChartAddInBase003531@@MAEHPAUHDC__@@IAAUtagPOINT@@K@Z
_TEXT	SEGMENT
_p_hDC$ = 8						; size = 4
_nFlags$ = 12						; size = 4
_point$ = 16						; size = 4
_p_dwMouseActionID$ = 20				; size = 4
?OnRButtonDblClk@CChartAddInBase003531@@MAEHPAUHDC__@@IAAUtagPOINT@@K@Z PROC ; CChartAddInBase003531::OnRButtonDblClk, COMDAT
; _this$ = ecx

; 223  : 	virtual BOOL	OnRButtonDblClk(	HDC p_hDC, UINT nFlags, POINT &point, const DWORD p_dwMouseActionID)									{	return FALSE;	}

  00000	33 c0		 xor	 eax, eax
  00002	c2 10 00	 ret	 16			; 00000010H
?OnRButtonDblClk@CChartAddInBase003531@@MAEHPAUHDC__@@IAAUtagPOINT@@K@Z ENDP ; CChartAddInBase003531::OnRButtonDblClk
_TEXT	ENDS
; Function compile flags: /Ogtp
; File D:\git\src\IBK\IBK_DRFN\ProjSrc\SrcChartEx\ChartAddIn\ChartOutsideCustomAddIn\Include_AddIn\I003531\_ChartAddInBase.h
;	COMDAT ?OnRButtonUp@CChartAddInBase003531@@MAEHPAUHDC__@@IAAUtagPOINT@@K@Z
_TEXT	SEGMENT
_p_hDC$ = 8						; size = 4
_nFlags$ = 12						; size = 4
_point$ = 16						; size = 4
_p_dwMouseActionID$ = 20				; size = 4
?OnRButtonUp@CChartAddInBase003531@@MAEHPAUHDC__@@IAAUtagPOINT@@K@Z PROC ; CChartAddInBase003531::OnRButtonUp, COMDAT
; _this$ = ecx

; 222  : 	virtual BOOL	OnRButtonUp(		HDC p_hDC, UINT nFlags, POINT &point, const DWORD p_dwMouseActionID)									{	return FALSE;	}

  00000	33 c0		 xor	 eax, eax
  00002	c2 10 00	 ret	 16			; 00000010H
?OnRButtonUp@CChartAddInBase003531@@MAEHPAUHDC__@@IAAUtagPOINT@@K@Z ENDP ; CChartAddInBase003531::OnRButtonUp
_TEXT	ENDS
; Function compile flags: /Ogtp
; File D:\git\src\IBK\IBK_DRFN\ProjSrc\SrcChartEx\ChartAddIn\ChartOutsideCustomAddIn\Include_AddIn\I003531\_ChartAddInBase.h
;	COMDAT ?OnRButtonDown@CChartAddInBase003531@@MAEHPAUHDC__@@IAAUtagPOINT@@K@Z
_TEXT	SEGMENT
_p_hDC$ = 8						; size = 4
_nFlags$ = 12						; size = 4
_point$ = 16						; size = 4
_p_dwMouseActionID$ = 20				; size = 4
?OnRButtonDown@CChartAddInBase003531@@MAEHPAUHDC__@@IAAUtagPOINT@@K@Z PROC ; CChartAddInBase003531::OnRButtonDown, COMDAT
; _this$ = ecx

; 221  : 	virtual BOOL	OnRButtonDown(		HDC p_hDC, UINT nFlags, POINT &point, const DWORD p_dwMouseActionID)									{	return FALSE;	}

  00000	33 c0		 xor	 eax, eax
  00002	c2 10 00	 ret	 16			; 00000010H
?OnRButtonDown@CChartAddInBase003531@@MAEHPAUHDC__@@IAAUtagPOINT@@K@Z ENDP ; CChartAddInBase003531::OnRButtonDown
_TEXT	ENDS
; Function compile flags: /Ogtp
; File D:\git\src\IBK\IBK_DRFN\ProjSrc\SrcChartEx\ChartAddIn\ChartOutsideCustomAddIn\Include_AddIn\I003531\_ChartAddInBase.h
;	COMDAT ?OnLButtonDblClk@CChartAddInBase003531@@MAEHPAUHDC__@@IAAUtagPOINT@@K@Z
_TEXT	SEGMENT
_p_hDC$ = 8						; size = 4
_nFlags$ = 12						; size = 4
_point$ = 16						; size = 4
_p_dwMouseActionID$ = 20				; size = 4
?OnLButtonDblClk@CChartAddInBase003531@@MAEHPAUHDC__@@IAAUtagPOINT@@K@Z PROC ; CChartAddInBase003531::OnLButtonDblClk, COMDAT
; _this$ = ecx

; 220  : 	virtual BOOL	OnLButtonDblClk(	HDC p_hDC, UINT nFlags, POINT &point, const DWORD p_dwMouseActionID)									{	return FALSE;	}

  00000	33 c0		 xor	 eax, eax
  00002	c2 10 00	 ret	 16			; 00000010H
?OnLButtonDblClk@CChartAddInBase003531@@MAEHPAUHDC__@@IAAUtagPOINT@@K@Z ENDP ; CChartAddInBase003531::OnLButtonDblClk
_TEXT	ENDS
; Function compile flags: /Ogtp
; File D:\git\src\IBK\IBK_DRFN\ProjSrc\SrcChartEx\ChartAddIn\ChartOutsideCustomAddIn\Include_AddIn\I003531\_ChartAddInBase.h
;	COMDAT ?OnLButtonUp@CChartAddInBase003531@@MAEHPAUHDC__@@IAAUtagPOINT@@K@Z
_TEXT	SEGMENT
_p_hDC$ = 8						; size = 4
_nFlags$ = 12						; size = 4
_point$ = 16						; size = 4
_p_dwMouseActionID$ = 20				; size = 4
?OnLButtonUp@CChartAddInBase003531@@MAEHPAUHDC__@@IAAUtagPOINT@@K@Z PROC ; CChartAddInBase003531::OnLButtonUp, COMDAT
; _this$ = ecx

; 219  : 	virtual BOOL	OnLButtonUp(		HDC p_hDC, UINT nFlags, POINT &point, const DWORD p_dwMouseActionID)									{	return FALSE;	}

  00000	33 c0		 xor	 eax, eax
  00002	c2 10 00	 ret	 16			; 00000010H
?OnLButtonUp@CChartAddInBase003531@@MAEHPAUHDC__@@IAAUtagPOINT@@K@Z ENDP ; CChartAddInBase003531::OnLButtonUp
_TEXT	ENDS
; Function compile flags: /Ogtp
; File D:\git\src\IBK\IBK_DRFN\ProjSrc\SrcChartEx\ChartAddIn\ChartOutsideCustomAddIn\Include_AddIn\I003531\_ChartAddInBase.h
;	COMDAT ?OnLButtonDown@CChartAddInBase003531@@MAEHPAUHDC__@@IAAUtagPOINT@@K@Z
_TEXT	SEGMENT
_p_hDC$ = 8						; size = 4
_nFlags$ = 12						; size = 4
_point$ = 16						; size = 4
_p_dwMouseActionID$ = 20				; size = 4
?OnLButtonDown@CChartAddInBase003531@@MAEHPAUHDC__@@IAAUtagPOINT@@K@Z PROC ; CChartAddInBase003531::OnLButtonDown, COMDAT
; _this$ = ecx

; 218  : 	virtual BOOL	OnLButtonDown(		HDC p_hDC, UINT nFlags, POINT &point, const DWORD p_dwMouseActionID)									{	return FALSE;	}

  00000	33 c0		 xor	 eax, eax
  00002	c2 10 00	 ret	 16			; 00000010H
?OnLButtonDown@CChartAddInBase003531@@MAEHPAUHDC__@@IAAUtagPOINT@@K@Z ENDP ; CChartAddInBase003531::OnLButtonDown
_TEXT	ENDS
; Function compile flags: /Ogtp
; File D:\git\src\IBK\IBK_DRFN\ProjSrc\SrcChartEx\ChartAddIn\ChartOutsideCustomAddIn\Include_AddIn\I003531\_ChartAddInBase.h
;	COMDAT ?OnMouseMove@CChartAddInBase003531@@MAEHPAUHDC__@@IAAUtagPOINT@@KQAUHBITMAP__@@@Z
_TEXT	SEGMENT
_p_hDC$ = 8						; size = 4
_nFlags$ = 12						; size = 4
_point$ = 16						; size = 4
_p_dwMouseActionID$ = 20				; size = 4
_p_hbmpMainOSB$ = 24					; size = 4
?OnMouseMove@CChartAddInBase003531@@MAEHPAUHDC__@@IAAUtagPOINT@@KQAUHBITMAP__@@@Z PROC ; CChartAddInBase003531::OnMouseMove, COMDAT
; _this$ = ecx

; 217  : 	virtual BOOL	OnMouseMove(		HDC p_hDC, UINT nFlags, POINT &point, const DWORD p_dwMouseActionID, const HBITMAP p_hbmpMainOSB)		{	return FALSE;	}	// (2006/11/5 - Seung-Won, Bae) Support MainOSB

  00000	33 c0		 xor	 eax, eax
  00002	c2 14 00	 ret	 20			; 00000014H
?OnMouseMove@CChartAddInBase003531@@MAEHPAUHDC__@@IAAUtagPOINT@@KQAUHBITMAP__@@@Z ENDP ; CChartAddInBase003531::OnMouseMove
_TEXT	ENDS
; Function compile flags: /Ogtp
; File D:\git\src\IBK\IBK_DRFN\ProjSrc\SrcChartEx\ChartAddIn\ChartOutsideCustomAddIn\Include_AddIn\I003531\_ChartAddInBase.h
;	COMDAT ?OnMouseWheel@CChartAddInBase003531@@MAEHIFUtagPOINT@@K@Z
_TEXT	SEGMENT
_nFlags$ = 8						; size = 4
_zDelta$ = 12						; size = 2
_pt$ = 16						; size = 8
_p_dwMouseActionID$ = 24				; size = 4
?OnMouseWheel@CChartAddInBase003531@@MAEHIFUtagPOINT@@K@Z PROC ; CChartAddInBase003531::OnMouseWheel, COMDAT
; _this$ = ecx

; 216  : 	virtual BOOL	OnMouseWheel(		UINT nFlags, short zDelta, POINT pt, const DWORD p_dwMouseActionID)										{	return FALSE;	}

  00000	33 c0		 xor	 eax, eax
  00002	c2 14 00	 ret	 20			; 00000014H
?OnMouseWheel@CChartAddInBase003531@@MAEHIFUtagPOINT@@K@Z ENDP ; CChartAddInBase003531::OnMouseWheel
_TEXT	ENDS
; Function compile flags: /Ogtp
; File D:\git\src\IBK\IBK_DRFN\ProjSrc\SrcChartEx\ChartAddIn\ChartOutsideCustomAddIn\Include_AddIn\I003531\_ChartAddInBase.h
;	COMDAT ?OnKeyUp@CChartAddInBase003531@@MAEHIII@Z
_TEXT	SEGMENT
_nChar$ = 8						; size = 4
_nRepCnt$ = 12						; size = 4
_nFlags$ = 16						; size = 4
?OnKeyUp@CChartAddInBase003531@@MAEHIII@Z PROC		; CChartAddInBase003531::OnKeyUp, COMDAT
; _this$ = ecx

; 215  : 	virtual BOOL	OnKeyUp(			UINT nChar, UINT nRepCnt, UINT nFlags)																	{	return FALSE;	}

  00000	33 c0		 xor	 eax, eax
  00002	c2 0c 00	 ret	 12			; 0000000cH
?OnKeyUp@CChartAddInBase003531@@MAEHIII@Z ENDP		; CChartAddInBase003531::OnKeyUp
_TEXT	ENDS
; Function compile flags: /Ogtp
; File D:\git\src\IBK\IBK_DRFN\ProjSrc\SrcChartEx\ChartAddIn\ChartOutsideCustomAddIn\Include_AddIn\I003531\_ChartAddInBase.h
;	COMDAT ?OnKeyDown@CChartAddInBase003531@@MAEHIII@Z
_TEXT	SEGMENT
_nChar$ = 8						; size = 4
_nRepCnt$ = 12						; size = 4
_nFlags$ = 16						; size = 4
?OnKeyDown@CChartAddInBase003531@@MAEHIII@Z PROC	; CChartAddInBase003531::OnKeyDown, COMDAT
; _this$ = ecx

; 214  : 	virtual BOOL	OnKeyDown(			UINT nChar, UINT nRepCnt, UINT nFlags)																	{	return FALSE;	}

  00000	33 c0		 xor	 eax, eax
  00002	c2 0c 00	 ret	 12			; 0000000cH
?OnKeyDown@CChartAddInBase003531@@MAEHIII@Z ENDP	; CChartAddInBase003531::OnKeyDown
_TEXT	ENDS
; Function compile flags: /Ogtp
; File D:\git\src\IBK\IBK_DRFN\ProjSrc\SrcChartEx\ChartAddIn\ChartOutsideCustomAddIn\Include_AddIn\I003531\_ChartAddInBase.h
;	COMDAT ?OnAddInToolCommand@CChartAddInBase003531@@MAEHAAJW4EAICommandType@@JJ@Z
_TEXT	SEGMENT
_p_lResult$ = 8						; size = 4
_p_eCommandID$ = 12					; size = 4
_p_lParam1$ = 16					; size = 4
_p_lParam2$ = 20					; size = 4
?OnAddInToolCommand@CChartAddInBase003531@@MAEHAAJW4EAICommandType@@JJ@Z PROC ; CChartAddInBase003531::OnAddInToolCommand, COMDAT
; _this$ = ecx

; 212  : 	virtual BOOL	OnAddInToolCommand(	long &p_lResult, const EAICommandType p_eCommandID, const long p_lParam1, const long p_lParam2)			{	return FALSE;	}

  00000	33 c0		 xor	 eax, eax
  00002	c2 10 00	 ret	 16			; 00000010H
?OnAddInToolCommand@CChartAddInBase003531@@MAEHAAJW4EAICommandType@@JJ@Z ENDP ; CChartAddInBase003531::OnAddInToolCommand
_TEXT	ENDS
; Function compile flags: /Ogtp
; File D:\git\src\IBK\IBK_DRFN\ProjSrc\SrcChartEx\ChartAddIn\ChartOutsideCustomAddIn\Include_AddIn\I003531\_ChartAddInBase.h
;	COMDAT ?OnAddInToolCommand@CChartAddInBase003531@@MAEHAAJW4EAICommandType@@J@Z
_TEXT	SEGMENT
_p_lResult$ = 8						; size = 4
_p_eCommandID$ = 12					; size = 4
_p_lParam$ = 16						; size = 4
?OnAddInToolCommand@CChartAddInBase003531@@MAEHAAJW4EAICommandType@@J@Z PROC ; CChartAddInBase003531::OnAddInToolCommand, COMDAT
; _this$ = ecx

; 211  : 	virtual BOOL	OnAddInToolCommand(	long &p_lResult, const EAICommandType p_eCommandID, const long p_lParam)								{	return FALSE;	}

  00000	33 c0		 xor	 eax, eax
  00002	c2 0c 00	 ret	 12			; 0000000cH
?OnAddInToolCommand@CChartAddInBase003531@@MAEHAAJW4EAICommandType@@J@Z ENDP ; CChartAddInBase003531::OnAddInToolCommand
_TEXT	ENDS
; Function compile flags: /Ogtp
; File D:\git\src\IBK\IBK_DRFN\ProjSrc\SrcChartEx\ChartAddIn\ChartOutsideCustomAddIn\Include_AddIn\I003531\_ChartAddInBase.h
;	COMDAT ?OnAddInToolCommand@CChartAddInBase003531@@MAEHAAJW4EAICommandType@@PBDPAVCObject@@@Z
_TEXT	SEGMENT
_p_lResult$ = 8						; size = 4
_p_eCommandID$ = 12					; size = 4
_p_szParam$ = 16					; size = 4
_p_pParam$ = 20						; size = 4
?OnAddInToolCommand@CChartAddInBase003531@@MAEHAAJW4EAICommandType@@PBDPAVCObject@@@Z PROC ; CChartAddInBase003531::OnAddInToolCommand, COMDAT
; _this$ = ecx

; 210  : 	virtual BOOL	OnAddInToolCommand(	long &p_lResult, const EAICommandType p_eCommandID, const char *p_szParam, CObject *p_pParam)			{	return FALSE;	}

  00000	33 c0		 xor	 eax, eax
  00002	c2 10 00	 ret	 16			; 00000010H
?OnAddInToolCommand@CChartAddInBase003531@@MAEHAAJW4EAICommandType@@PBDPAVCObject@@@Z ENDP ; CChartAddInBase003531::OnAddInToolCommand
_TEXT	ENDS
; Function compile flags: /Ogtp
; File D:\git\src\IBK\IBK_DRFN\ProjSrc\SrcChartEx\ChartAddIn\ChartOutsideCustomAddIn\Include_AddIn\I003531\_ChartAddInBase.h
;	COMDAT ?OnAddInToolCommand@CChartAddInBase003531@@MAEHAAJW4EAICommandType@@PBD@Z
_TEXT	SEGMENT
_p_lResult$ = 8						; size = 4
_p_eCommandID$ = 12					; size = 4
_p_szParam$ = 16					; size = 4
?OnAddInToolCommand@CChartAddInBase003531@@MAEHAAJW4EAICommandType@@PBD@Z PROC ; CChartAddInBase003531::OnAddInToolCommand, COMDAT
; _this$ = ecx

; 209  : 	virtual BOOL	OnAddInToolCommand(	long &p_lResult, const EAICommandType p_eCommandID, const char *p_szParam)								{	return FALSE;	}

  00000	33 c0		 xor	 eax, eax
  00002	c2 0c 00	 ret	 12			; 0000000cH
?OnAddInToolCommand@CChartAddInBase003531@@MAEHAAJW4EAICommandType@@PBD@Z ENDP ; CChartAddInBase003531::OnAddInToolCommand
_TEXT	ENDS
; Function compile flags: /Ogtp
; File D:\git\src\IBK\IBK_DRFN\ProjSrc\SrcChartEx\ChartAddIn\ChartOutsideCustomAddIn\Include_AddIn\I003531\_ChartAddInBase.h
;	COMDAT ?OnAddInToolCommand@CChartAddInBase003531@@MAEHAAJW4EAICommandType@@PAUIGraphInfo003531@@@Z
_TEXT	SEGMENT
_p_lResult$ = 8						; size = 4
_p_eCommandID$ = 12					; size = 4
_p_pIGraphInfo$ = 16					; size = 4
?OnAddInToolCommand@CChartAddInBase003531@@MAEHAAJW4EAICommandType@@PAUIGraphInfo003531@@@Z PROC ; CChartAddInBase003531::OnAddInToolCommand, COMDAT
; _this$ = ecx

; 208  : 	virtual BOOL	OnAddInToolCommand(	long &p_lResult, const EAICommandType p_eCommandID, IGraphInfo *p_pIGraphInfo)							{	return FALSE;	}

  00000	33 c0		 xor	 eax, eax
  00002	c2 0c 00	 ret	 12			; 0000000cH
?OnAddInToolCommand@CChartAddInBase003531@@MAEHAAJW4EAICommandType@@PAUIGraphInfo003531@@@Z ENDP ; CChartAddInBase003531::OnAddInToolCommand
_TEXT	ENDS
; Function compile flags: /Ogtp
; File D:\git\src\IBK\IBK_DRFN\ProjSrc\SrcChartEx\ChartAddIn\ChartOutsideCustomAddIn\Include_AddIn\I003531\_ChartAddInBase.h
;	COMDAT ?OnAddInToolCommand@CChartAddInBase003531@@MAEHAAJW4EAICommandType@@@Z
_TEXT	SEGMENT
_p_lResult$ = 8						; size = 4
_p_eCommandID$ = 12					; size = 4
?OnAddInToolCommand@CChartAddInBase003531@@MAEHAAJW4EAICommandType@@@Z PROC ; CChartAddInBase003531::OnAddInToolCommand, COMDAT
; _this$ = ecx

; 207  : 	virtual BOOL	OnAddInToolCommand(	long &p_lResult, const EAICommandType p_eCommandID)														{	return FALSE;	}

  00000	33 c0		 xor	 eax, eax
  00002	c2 08 00	 ret	 8
?OnAddInToolCommand@CChartAddInBase003531@@MAEHAAJW4EAICommandType@@@Z ENDP ; CChartAddInBase003531::OnAddInToolCommand
_TEXT	ENDS
; Function compile flags: /Ogtp
; File D:\git\src\IBK\IBK_DRFN\ProjSrc\SrcChartEx\ChartAddIn\ChartOutsideCustomAddIn\Include_AddIn\I003531\_ChartAddInBase.h
;	COMDAT ?OnAddInToolCommand@CChartAddInBase003531@@MAEHW4EAICommandType@@JJJJJJJJJ@Z
_TEXT	SEGMENT
_p_eCommandID$ = 8					; size = 4
_p_lParam1$ = 12					; size = 4
_p_lParam2$ = 16					; size = 4
_p_lParam3$ = 20					; size = 4
_p_lParam4$ = 24					; size = 4
_p_lParam5$ = 28					; size = 4
_p_lParam6$ = 32					; size = 4
_p_lParam7$ = 36					; size = 4
_p_lParam8$ = 40					; size = 4
_p_lParam9$ = 44					; size = 4
?OnAddInToolCommand@CChartAddInBase003531@@MAEHW4EAICommandType@@JJJJJJJJJ@Z PROC ; CChartAddInBase003531::OnAddInToolCommand, COMDAT
; _this$ = ecx

; 206  : 	virtual BOOL	OnAddInToolCommand(	const EAICommandType p_eCommandID, const long p_lParam1, const long p_lParam2, const long p_lParam3, const long p_lParam4, const long p_lParam5, const long p_lParam6, const long p_lParam7, const long p_lParam8, const long p_lParam9)	{	return FALSE;	}

  00000	33 c0		 xor	 eax, eax
  00002	c2 28 00	 ret	 40			; 00000028H
?OnAddInToolCommand@CChartAddInBase003531@@MAEHW4EAICommandType@@JJJJJJJJJ@Z ENDP ; CChartAddInBase003531::OnAddInToolCommand
_TEXT	ENDS
; Function compile flags: /Ogtp
; File D:\git\src\IBK\IBK_DRFN\ProjSrc\SrcChartEx\ChartAddIn\ChartOutsideCustomAddIn\Include_AddIn\I003531\_ChartAddInBase.h
;	COMDAT ?OnAddInToolCommand@CChartAddInBase003531@@MAEHW4EAICommandType@@JJ@Z
_TEXT	SEGMENT
_p_eCommandID$ = 8					; size = 4
_p_lParam1$ = 12					; size = 4
_p_lParam2$ = 16					; size = 4
?OnAddInToolCommand@CChartAddInBase003531@@MAEHW4EAICommandType@@JJ@Z PROC ; CChartAddInBase003531::OnAddInToolCommand, COMDAT
; _this$ = ecx

; 205  : 	virtual BOOL	OnAddInToolCommand(	const EAICommandType p_eCommandID, const long p_lParam1, const long p_lParam2)							{	return FALSE;	}

  00000	33 c0		 xor	 eax, eax
  00002	c2 0c 00	 ret	 12			; 0000000cH
?OnAddInToolCommand@CChartAddInBase003531@@MAEHW4EAICommandType@@JJ@Z ENDP ; CChartAddInBase003531::OnAddInToolCommand
_TEXT	ENDS
; Function compile flags: /Ogtp
; File D:\git\src\IBK\IBK_DRFN\ProjSrc\SrcChartEx\ChartAddIn\ChartOutsideCustomAddIn\Include_AddIn\I003531\_ChartAddInBase.h
;	COMDAT ?OnAddInToolCommand@CChartAddInBase003531@@MAEHW4EAICommandType@@JPBD11@Z
_TEXT	SEGMENT
_p_eCommandID$ = 8					; size = 4
_p_lParam$ = 12						; size = 4
_p_szParam1$ = 16					; size = 4
_p_szParam2$ = 20					; size = 4
_p_szParam3$ = 24					; size = 4
?OnAddInToolCommand@CChartAddInBase003531@@MAEHW4EAICommandType@@JPBD11@Z PROC ; CChartAddInBase003531::OnAddInToolCommand, COMDAT
; _this$ = ecx

; 204  : 	virtual BOOL	OnAddInToolCommand( const EAICommandType p_eCommandID, const long p_lParam, const char *p_szParam1, const char *p_szParam2, const char *p_szParam3)	{	return FALSE;	}

  00000	33 c0		 xor	 eax, eax
  00002	c2 14 00	 ret	 20			; 00000014H
?OnAddInToolCommand@CChartAddInBase003531@@MAEHW4EAICommandType@@JPBD11@Z ENDP ; CChartAddInBase003531::OnAddInToolCommand
_TEXT	ENDS
; Function compile flags: /Ogtp
; File D:\git\src\IBK\IBK_DRFN\ProjSrc\SrcChartEx\ChartAddIn\ChartOutsideCustomAddIn\Include_AddIn\I003531\_ChartAddInBase.h
;	COMDAT ?OnAddInToolCommand@CChartAddInBase003531@@MAEHW4EAICommandType@@JPBD@Z
_TEXT	SEGMENT
_p_eCommandID$ = 8					; size = 4
_p_lParam$ = 12						; size = 4
_p_szParam$ = 16					; size = 4
?OnAddInToolCommand@CChartAddInBase003531@@MAEHW4EAICommandType@@JPBD@Z PROC ; CChartAddInBase003531::OnAddInToolCommand, COMDAT
; _this$ = ecx

; 203  : 	virtual BOOL	OnAddInToolCommand( const EAICommandType p_eCommandID, const long p_lParam, const char *p_szParam)							{	return FALSE;	}

  00000	33 c0		 xor	 eax, eax
  00002	c2 0c 00	 ret	 12			; 0000000cH
?OnAddInToolCommand@CChartAddInBase003531@@MAEHW4EAICommandType@@JPBD@Z ENDP ; CChartAddInBase003531::OnAddInToolCommand
_TEXT	ENDS
; Function compile flags: /Ogtp
; File D:\git\src\IBK\IBK_DRFN\ProjSrc\SrcChartEx\ChartAddIn\ChartOutsideCustomAddIn\Include_AddIn\I003531\_ChartAddInBase.h
;	COMDAT ?OnAddInToolCommand@CChartAddInBase003531@@MAEHW4EAICommandType@@J@Z
_TEXT	SEGMENT
_p_eCommandID$ = 8					; size = 4
_p_lParam$ = 12						; size = 4
?OnAddInToolCommand@CChartAddInBase003531@@MAEHW4EAICommandType@@J@Z PROC ; CChartAddInBase003531::OnAddInToolCommand, COMDAT
; _this$ = ecx

; 202  : 	virtual BOOL	OnAddInToolCommand(	const EAICommandType p_eCommandID, const long p_lParam)													{	return FALSE;	}

  00000	33 c0		 xor	 eax, eax
  00002	c2 08 00	 ret	 8
?OnAddInToolCommand@CChartAddInBase003531@@MAEHW4EAICommandType@@J@Z ENDP ; CChartAddInBase003531::OnAddInToolCommand
_TEXT	ENDS
; Function compile flags: /Ogtp
; File D:\git\src\IBK\IBK_DRFN\ProjSrc\SrcChartEx\ChartAddIn\ChartOutsideCustomAddIn\Include_AddIn\I003531\_ChartAddInBase.h
;	COMDAT ?OnAddInToolCommand@CChartAddInBase003531@@MAEHW4EAICommandType@@PBUIAddInDllBase@@@Z
_TEXT	SEGMENT
_p_eCommandID$ = 8					; size = 4
_p_pParam$ = 12						; size = 4
?OnAddInToolCommand@CChartAddInBase003531@@MAEHW4EAICommandType@@PBUIAddInDllBase@@@Z PROC ; CChartAddInBase003531::OnAddInToolCommand, COMDAT
; _this$ = ecx

; 201  : 	virtual BOOL	OnAddInToolCommand(	const EAICommandType p_eCommandID, const IAddInDllBase *p_pParam)										{	return FALSE;	}

  00000	33 c0		 xor	 eax, eax
  00002	c2 08 00	 ret	 8
?OnAddInToolCommand@CChartAddInBase003531@@MAEHW4EAICommandType@@PBUIAddInDllBase@@@Z ENDP ; CChartAddInBase003531::OnAddInToolCommand
_TEXT	ENDS
; Function compile flags: /Ogtp
; File D:\git\src\IBK\IBK_DRFN\ProjSrc\SrcChartEx\ChartAddIn\ChartOutsideCustomAddIn\Include_AddIn\I003531\_ChartAddInBase.h
;	COMDAT ?OnAddInToolCommand@CChartAddInBase003531@@MAEHW4EAICommandType@@PBDJ@Z
_TEXT	SEGMENT
_p_eCommandID$ = 8					; size = 4
_p_szParam$ = 12					; size = 4
_p_lParam$ = 16						; size = 4
?OnAddInToolCommand@CChartAddInBase003531@@MAEHW4EAICommandType@@PBDJ@Z PROC ; CChartAddInBase003531::OnAddInToolCommand, COMDAT
; _this$ = ecx

; 200  : 	virtual BOOL	OnAddInToolCommand( const EAICommandType p_eCommandID, const char *p_szParam, const long p_lParam)							{	return FALSE;	}

  00000	33 c0		 xor	 eax, eax
  00002	c2 0c 00	 ret	 12			; 0000000cH
?OnAddInToolCommand@CChartAddInBase003531@@MAEHW4EAICommandType@@PBDJ@Z ENDP ; CChartAddInBase003531::OnAddInToolCommand
_TEXT	ENDS
; Function compile flags: /Ogtp
; File D:\git\src\IBK\IBK_DRFN\ProjSrc\SrcChartEx\ChartAddIn\ChartOutsideCustomAddIn\Include_AddIn\I003531\_ChartAddInBase.h
;	COMDAT ?OnAddInToolCommand@CChartAddInBase003531@@MAEHW4EAICommandType@@PBD1@Z
_TEXT	SEGMENT
_p_eCommandID$ = 8					; size = 4
_p_szParam1$ = 12					; size = 4
_p_szParam2$ = 16					; size = 4
?OnAddInToolCommand@CChartAddInBase003531@@MAEHW4EAICommandType@@PBD1@Z PROC ; CChartAddInBase003531::OnAddInToolCommand, COMDAT
; _this$ = ecx

; 199  : 	virtual BOOL	OnAddInToolCommand(	const EAICommandType p_eCommandID, const char *p_szParam1, const char *p_szParam2)						{	return FALSE;	}

  00000	33 c0		 xor	 eax, eax
  00002	c2 0c 00	 ret	 12			; 0000000cH
?OnAddInToolCommand@CChartAddInBase003531@@MAEHW4EAICommandType@@PBD1@Z ENDP ; CChartAddInBase003531::OnAddInToolCommand
_TEXT	ENDS
; Function compile flags: /Ogtp
; File D:\git\src\IBK\IBK_DRFN\ProjSrc\SrcChartEx\ChartAddIn\ChartOutsideCustomAddIn\Include_AddIn\I003531\_ChartAddInBase.h
;	COMDAT ?OnAddInToolCommand@CChartAddInBase003531@@MAEHW4EAICommandType@@PBD@Z
_TEXT	SEGMENT
_p_eCommandID$ = 8					; size = 4
_p_szParam$ = 12					; size = 4
?OnAddInToolCommand@CChartAddInBase003531@@MAEHW4EAICommandType@@PBD@Z PROC ; CChartAddInBase003531::OnAddInToolCommand, COMDAT
; _this$ = ecx

; 198  : 	virtual BOOL	OnAddInToolCommand(	const EAICommandType p_eCommandID, const char *p_szParam)												{	return FALSE;	}

  00000	33 c0		 xor	 eax, eax
  00002	c2 08 00	 ret	 8
?OnAddInToolCommand@CChartAddInBase003531@@MAEHW4EAICommandType@@PBD@Z ENDP ; CChartAddInBase003531::OnAddInToolCommand
_TEXT	ENDS
; Function compile flags: /Ogtp
; File D:\git\src\IBK\IBK_DRFN\ProjSrc\SrcChartEx\ChartAddIn\ChartOutsideCustomAddIn\Include_AddIn\I003531\_ChartAddInBase.h
;	COMDAT ?OnAddInToolCommand@CChartAddInBase003531@@MAEHW4EAICommandType@@PAUHDC__@@IAAUtagPOINT@@K@Z
_TEXT	SEGMENT
_p_eCommandID$ = 8					; size = 4
_p_hDC$ = 12						; size = 4
_nFlags$ = 16						; size = 4
_point$ = 20						; size = 4
_p_dwMouseActionID$ = 24				; size = 4
?OnAddInToolCommand@CChartAddInBase003531@@MAEHW4EAICommandType@@PAUHDC__@@IAAUtagPOINT@@K@Z PROC ; CChartAddInBase003531::OnAddInToolCommand, COMDAT
; _this$ = ecx

; 197  : 	virtual BOOL	OnAddInToolCommand(	const EAICommandType p_eCommandID, HDC p_hDC, UINT nFlags, POINT &point, const DWORD p_dwMouseActionID)	{	return FALSE;	}

  00000	33 c0		 xor	 eax, eax
  00002	c2 14 00	 ret	 20			; 00000014H
?OnAddInToolCommand@CChartAddInBase003531@@MAEHW4EAICommandType@@PAUHDC__@@IAAUtagPOINT@@K@Z ENDP ; CChartAddInBase003531::OnAddInToolCommand
_TEXT	ENDS
; Function compile flags: /Ogtp
; File D:\git\src\IBK\IBK_DRFN\ProjSrc\SrcChartEx\ChartAddIn\ChartOutsideCustomAddIn\Include_AddIn\I003531\_ChartAddInBase.h
;	COMDAT ?OnAddInToolCommand@CChartAddInBase003531@@MAEHW4EAICommandType@@@Z
_TEXT	SEGMENT
_p_eCommandID$ = 8					; size = 4
?OnAddInToolCommand@CChartAddInBase003531@@MAEHW4EAICommandType@@@Z PROC ; CChartAddInBase003531::OnAddInToolCommand, COMDAT
; _this$ = ecx

; 196  : 	virtual BOOL	OnAddInToolCommand(	const EAICommandType p_eCommandID)																		{	return FALSE;	}

  00000	33 c0		 xor	 eax, eax
  00002	c2 04 00	 ret	 4
?OnAddInToolCommand@CChartAddInBase003531@@MAEHW4EAICommandType@@@Z ENDP ; CChartAddInBase003531::OnAddInToolCommand
_TEXT	ENDS
; Function compile flags: /Ogtp
; File D:\git\src\IBK\IBK_DRFN\ProjSrc\SrcChartEx\ChartAddIn\ChartOutsideCustomAddIn\Include_AddIn\I003531\_ChartAddInBase.h
;	COMDAT ?OnAddInMsg@CChartAddInBase003531@@MAEHPBDJ@Z
_TEXT	SEGMENT
_p_szAddInItemName$ = 8					; size = 4
_p_lParam$ = 12						; size = 4
?OnAddInMsg@CChartAddInBase003531@@MAEHPBDJ@Z PROC	; CChartAddInBase003531::OnAddInMsg, COMDAT
; _this$ = ecx

; 195  : 	virtual BOOL	OnAddInMsg(			const char *p_szAddInItemName, const long p_lParam)														{	return FALSE;	}

  00000	33 c0		 xor	 eax, eax
  00002	c2 08 00	 ret	 8
?OnAddInMsg@CChartAddInBase003531@@MAEHPBDJ@Z ENDP	; CChartAddInBase003531::OnAddInMsg
_TEXT	ENDS
; Function compile flags: /Ogtp
; File D:\git\src\IBK\IBK_DRFN\ProjSrc\SrcChartEx\ChartAddIn\ChartOutsideCustomAddIn\Include_AddIn\I003531\_ChartAddInBase.h
;	COMDAT ?OnCmdMsg@CChartAddInBase003531@@MAEHIHPAUICmdUI003531@@@Z
_TEXT	SEGMENT
_nID$ = 8						; size = 4
_nCode$ = 12						; size = 4
_p_pICmdUI$ = 16					; size = 4
?OnCmdMsg@CChartAddInBase003531@@MAEHIHPAUICmdUI003531@@@Z PROC ; CChartAddInBase003531::OnCmdMsg, COMDAT
; _this$ = ecx

; 194  : 	virtual BOOL	OnCmdMsg(			UINT nID, int nCode, ICmdUI *p_pICmdUI)																	{	return FALSE;	}

  00000	33 c0		 xor	 eax, eax
  00002	c2 0c 00	 ret	 12			; 0000000cH
?OnCmdMsg@CChartAddInBase003531@@MAEHIHPAUICmdUI003531@@@Z ENDP ; CChartAddInBase003531::OnCmdMsg
_TEXT	ENDS
; Function compile flags: /Ogtp
; File D:\git\src\IBK\IBK_DRFN\ProjSrc\SrcChartEx\ChartAddIn\ChartOutsideCustomAddIn\Include_AddIn\I003531\_ChartAddInBase.h
;	COMDAT ?OnPreNMTRClock@CChartAddInBase003531@@MAEHAA_J@Z
_TEXT	SEGMENT
_p_nRealClockSecs$ = 8					; size = 4
?OnPreNMTRClock@CChartAddInBase003531@@MAEHAA_J@Z PROC	; CChartAddInBase003531::OnPreNMTRClock, COMDAT
; _this$ = ecx

; 188  : 	virtual BOOL	OnPreNMTRClock( __int64 &p_nRealClockSecs)																		{	return TRUE;	}

  00000	b8 01 00 00 00	 mov	 eax, 1
  00005	c2 04 00	 ret	 4
?OnPreNMTRClock@CChartAddInBase003531@@MAEHAA_J@Z ENDP	; CChartAddInBase003531::OnPreNMTRClock
_TEXT	ENDS
; Function compile flags: /Ogtp
; File D:\git\src\IBK\IBK_DRFN\ProjSrc\SrcChartEx\ChartAddIn\ChartOutsideCustomAddIn\Include_AddIn\I003531\_ChartAddInBase.h
;	COMDAT ?OnPreRealPacketEnd@CChartAddInBase003531@@MAEHPBDH@Z
_TEXT	SEGMENT
_p_szRQ$ = 8						; size = 4
_p_bRealData$ = 12					; size = 4
?OnPreRealPacketEnd@CChartAddInBase003531@@MAEHPBDH@Z PROC ; CChartAddInBase003531::OnPreRealPacketEnd, COMDAT
; _this$ = ecx

; 187  : 	virtual BOOL	OnPreRealPacketEnd( const char *p_szRQ = NULL, BOOL p_bRealData = TRUE)											{	return TRUE;	}

  00000	b8 01 00 00 00	 mov	 eax, 1
  00005	c2 08 00	 ret	 8
?OnPreRealPacketEnd@CChartAddInBase003531@@MAEHPBDH@Z ENDP ; CChartAddInBase003531::OnPreRealPacketEnd
_TEXT	ENDS
; Function compile flags: /Ogtp
; File D:\git\src\IBK\IBK_DRFN\ProjSrc\SrcChartEx\ChartAddIn\ChartOutsideCustomAddIn\Include_AddIn\I003531\_ChartAddInBase.h
;	COMDAT ?OnPreIndexedRealData@CChartAddInBase003531@@MAEHPBDHAANH@Z
_TEXT	SEGMENT
_p_szPacketName$ = 8					; size = 4
_p_nIndex$ = 12						; size = 4
_p_dData$ = 16						; size = 4
_p_bRealData$ = 20					; size = 4
?OnPreIndexedRealData@CChartAddInBase003531@@MAEHPBDHAANH@Z PROC ; CChartAddInBase003531::OnPreIndexedRealData, COMDAT
; _this$ = ecx

; 186  : 	virtual BOOL	OnPreIndexedRealData( const char *p_szPacketName, const int p_nIndex, double &p_dData, BOOL p_bRealData = TRUE)	{	return TRUE;	}

  00000	b8 01 00 00 00	 mov	 eax, 1
  00005	c2 10 00	 ret	 16			; 00000010H
?OnPreIndexedRealData@CChartAddInBase003531@@MAEHPBDHAANH@Z ENDP ; CChartAddInBase003531::OnPreIndexedRealData
_TEXT	ENDS
; Function compile flags: /Ogtp
; File D:\git\src\IBK\IBK_DRFN\ProjSrc\SrcChartEx\ChartAddIn\ChartOutsideCustomAddIn\Include_AddIn\I003531\_ChartAddInBase.h
;	COMDAT ?OnPreRealData@CChartAddInBase003531@@MAEHPBDAAN0H@Z
_TEXT	SEGMENT
_p_szPacketName$ = 8					; size = 4
_p_dData$ = 12						; size = 4
_p_szRQ$ = 16						; size = 4
_p_bRealData$ = 20					; size = 4
?OnPreRealData@CChartAddInBase003531@@MAEHPBDAAN0H@Z PROC ; CChartAddInBase003531::OnPreRealData, COMDAT
; _this$ = ecx

; 185  : 	virtual BOOL	OnPreRealData( const char *p_szPacketName, double &p_dData, const char *p_szRQ = NULL, BOOL p_bRealData = TRUE)	{	return TRUE;	}

  00000	b8 01 00 00 00	 mov	 eax, 1
  00005	c2 10 00	 ret	 16			; 00000010H
?OnPreRealData@CChartAddInBase003531@@MAEHPBDAAN0H@Z ENDP ; CChartAddInBase003531::OnPreRealData
_TEXT	ENDS
; Function compile flags: /Ogtp
; File D:\git\src\IBK\IBK_DRFN\ProjSrc\SrcChartEx\ChartAddIn\ChartOutsideCustomAddIn\Include_AddIn\I003531\_ChartAddInBase.h
;	COMDAT ?OnRecalculationComplete@CChartAddInBase003531@@MAEXXZ
_TEXT	SEGMENT
?OnRecalculationComplete@CChartAddInBase003531@@MAEXXZ PROC ; CChartAddInBase003531::OnRecalculationComplete, COMDAT
; _this$ = ecx

; 181  : 	virtual void	OnRecalculationComplete( void)						{}

  00000	c2 00 00	 ret	 0
?OnRecalculationComplete@CChartAddInBase003531@@MAEXXZ ENDP ; CChartAddInBase003531::OnRecalculationComplete
_TEXT	ENDS
; Function compile flags: /Ogtp
; File D:\git\src\IBK\IBK_DRFN\ProjSrc\SrcChartEx\ChartAddIn\ChartOutsideCustomAddIn\Include_AddIn\I003531\_ChartAddInBase.h
;	COMDAT ?DrawCursor@CChartAddInBase003531@@MAE?AUtagRECT@@PAUHDC__@@@Z
_TEXT	SEGMENT
___$ReturnUdt$ = 8					; size = 4
_p_hDC$ = 12						; size = 4
?DrawCursor@CChartAddInBase003531@@MAE?AUtagRECT@@PAUHDC__@@@Z PROC ; CChartAddInBase003531::DrawCursor, COMDAT
; _this$ = ecx

; 179  : 	virtual RECT	DrawCursor( HDC p_hDC)								{	RECT rct = { 0, 0, 0, 0};	return rct;		}

  00000	55		 push	 ebp
  00001	8b ec		 mov	 ebp, esp
  00003	8b 45 08	 mov	 eax, DWORD PTR ___$ReturnUdt$[ebp]
  00006	c7 00 00 00 00
	00		 mov	 DWORD PTR [eax], 0
  0000c	c7 40 04 00 00
	00 00		 mov	 DWORD PTR [eax+4], 0
  00013	c7 40 08 00 00
	00 00		 mov	 DWORD PTR [eax+8], 0
  0001a	c7 40 0c 00 00
	00 00		 mov	 DWORD PTR [eax+12], 0
  00021	5d		 pop	 ebp
  00022	c2 08 00	 ret	 8
?DrawCursor@CChartAddInBase003531@@MAE?AUtagRECT@@PAUHDC__@@@Z ENDP ; CChartAddInBase003531::DrawCursor
_TEXT	ENDS
; Function compile flags: /Ogtp
; File D:\git\src\IBK\IBK_DRFN\ProjSrc\SrcChartEx\ChartAddIn\ChartOutsideCustomAddIn\Include_AddIn\I003531\_ChartAddInBase.h
;	COMDAT ?OnSaveEnvironment@CChartAddInBase003531@@MAEXPAUIPropertyMap@@@Z
_TEXT	SEGMENT
_p_pIAddInEnvMap$ = 8					; size = 4
?OnSaveEnvironment@CChartAddInBase003531@@MAEXPAUIPropertyMap@@@Z PROC ; CChartAddInBase003531::OnSaveEnvironment, COMDAT
; _this$ = ecx

; 177  : 	virtual void	OnSaveEnvironment( IPropertyMap *p_pIAddInEnvMap)	{}

  00000	c2 04 00	 ret	 4
?OnSaveEnvironment@CChartAddInBase003531@@MAEXPAUIPropertyMap@@@Z ENDP ; CChartAddInBase003531::OnSaveEnvironment
_TEXT	ENDS
; Function compile flags: /Ogtp
; File D:\git\src\IBK\IBK_DRFN\ProjSrc\SrcChartEx\ChartAddIn\ChartOutsideCustomAddIn\Include_AddIn\I003531\_ChartAddInBase.h
;	COMDAT ?OnLoadEnvironment@CChartAddInBase003531@@MAEXPAUIPropertyMap@@@Z
_TEXT	SEGMENT
_p_pIAddInEnvMap$ = 8					; size = 4
?OnLoadEnvironment@CChartAddInBase003531@@MAEXPAUIPropertyMap@@@Z PROC ; CChartAddInBase003531::OnLoadEnvironment, COMDAT
; _this$ = ecx

; 176  : 	virtual void	OnLoadEnvironment( IPropertyMap *p_pIAddInEnvMap)	{}

  00000	c2 04 00	 ret	 4
?OnLoadEnvironment@CChartAddInBase003531@@MAEXPAUIPropertyMap@@@Z ENDP ; CChartAddInBase003531::OnLoadEnvironment
_TEXT	ENDS
; Function compile flags: /Ogtp
; File D:\git\src\IBK\IBK_DRFN\ProjSrc\SrcChartEx\ChartAddIn\ChartOutsideCustomAddIn\Include_AddIn\I003531\_ChartAddInBase.h
;	COMDAT ?OnRealPacketEnd@CChartAddInBase003531@@MAEXPBD@Z
_TEXT	SEGMENT
_p_szRQ$ = 8						; size = 4
?OnRealPacketEnd@CChartAddInBase003531@@MAEXPBD@Z PROC	; CChartAddInBase003531::OnRealPacketEnd, COMDAT
; _this$ = ecx

; 174  : 	virtual void	OnRealPacketEnd( const char *p_szRQ)								{}

  00000	c2 04 00	 ret	 4
?OnRealPacketEnd@CChartAddInBase003531@@MAEXPBD@Z ENDP	; CChartAddInBase003531::OnRealPacketEnd
_TEXT	ENDS
; Function compile flags: /Ogtp
; File D:\git\src\IBK\IBK_DRFN\ProjSrc\SrcChartEx\ChartAddIn\ChartOutsideCustomAddIn\Include_AddIn\I003531\_ChartAddInBase.h
;	COMDAT ?OnIndexedRealData@CChartAddInBase003531@@MAEXPBDHN@Z
_TEXT	SEGMENT
_p_szPacketName$ = 8					; size = 4
_p_nIndex$ = 12						; size = 4
_p_dData$ = 16						; size = 8
?OnIndexedRealData@CChartAddInBase003531@@MAEXPBDHN@Z PROC ; CChartAddInBase003531::OnIndexedRealData, COMDAT
; _this$ = ecx

; 172  : 	virtual void	OnIndexedRealData( const char *p_szPacketName, const int p_nIndex, double p_dData)		{}

  00000	c2 10 00	 ret	 16			; 00000010H
?OnIndexedRealData@CChartAddInBase003531@@MAEXPBDHN@Z ENDP ; CChartAddInBase003531::OnIndexedRealData
_TEXT	ENDS
; Function compile flags: /Ogtp
; File D:\git\src\IBK\IBK_DRFN\ProjSrc\SrcChartEx\ChartAddIn\ChartOutsideCustomAddIn\Include_AddIn\I003531\_ChartAddInBase.h
;	COMDAT ?OnRealData@CChartAddInBase003531@@MAEXPBDN0@Z
_TEXT	SEGMENT
_p_szPacketName$ = 8					; size = 4
_p_dData$ = 12						; size = 8
_p_szRQ$ = 20						; size = 4
?OnRealData@CChartAddInBase003531@@MAEXPBDN0@Z PROC	; CChartAddInBase003531::OnRealData, COMDAT
; _this$ = ecx

; 171  : 	virtual void	OnRealData( const char *p_szPacketName, double p_dData, const char *p_szRQ)			{}

  00000	c2 10 00	 ret	 16			; 00000010H
?OnRealData@CChartAddInBase003531@@MAEXPBDN0@Z ENDP	; CChartAddInBase003531::OnRealData
_TEXT	ENDS
; Function compile flags: /Ogtp
; File D:\git\src\IBK\IBK_DRFN\ProjSrc\SrcChartEx\ChartAddIn\ChartOutsideCustomAddIn\Include_AddIn\I003531\_ChartAddInBase.h
;	COMDAT ?OnToolCommand@CChartAddInBase003531@@MAEXHH@Z
_TEXT	SEGMENT
_p_nToolType$ = 8					; size = 4
_p_nCmdOption$ = 12					; size = 4
?OnToolCommand@CChartAddInBase003531@@MAEXHH@Z PROC	; CChartAddInBase003531::OnToolCommand, COMDAT
; _this$ = ecx

; 169  : 	virtual void	OnToolCommand( const int p_nToolType, const int p_nCmdOption)	{}

  00000	c2 08 00	 ret	 8
?OnToolCommand@CChartAddInBase003531@@MAEXHH@Z ENDP	; CChartAddInBase003531::OnToolCommand
_TEXT	ENDS
; Function compile flags: /Ogtp
; File D:\git\src\IBK\IBK_DRFN\ProjSrc\SrcChartEx\ChartAddIn\ChartOutsideCustomAddIn\Include_AddIn\I003531\_ChartAddInBase.h
;	COMDAT ?OnBlockChanged@CChartAddInBase003531@@MAEXW4BLOCKBEHAVIOR@CBlockBaseData@@HHHH@Z
_TEXT	SEGMENT
_p_eChangeType$ = 8					; size = 4
_p_nSourceRow$ = 12					; size = 4
_p_nSourceColumn$ = 16					; size = 4
_p_nTargetRow$ = 20					; size = 4
_p_nTargetColumn$ = 24					; size = 4
?OnBlockChanged@CChartAddInBase003531@@MAEXW4BLOCKBEHAVIOR@CBlockBaseData@@HHHH@Z PROC ; CChartAddInBase003531::OnBlockChanged, COMDAT
; _this$ = ecx

; 167  : 	virtual void	OnBlockChanged( const CBlockBaseData::BLOCKBEHAVIOR p_eChangeType, const int p_nSourceRow, const int p_nSourceColumn, const int p_nTargetRow, const int p_nTargetColumn)	{}

  00000	c2 14 00	 ret	 20			; 00000014H
?OnBlockChanged@CChartAddInBase003531@@MAEXW4BLOCKBEHAVIOR@CBlockBaseData@@HHHH@Z ENDP ; CChartAddInBase003531::OnBlockChanged
_TEXT	ENDS
; Function compile flags: /Ogtp
; File D:\git\src\IBK\IBK_DRFN\ProjSrc\SrcChartEx\ChartAddIn\ChartOutsideCustomAddIn\Include_AddIn\I003531\_ChartAddInBase.h
;	COMDAT ?OnPacketTruncated@CChartAddInBase003531@@MAEXH@Z
_TEXT	SEGMENT
_p_nDataCount$ = 8					; size = 4
?OnPacketTruncated@CChartAddInBase003531@@MAEXH@Z PROC	; CChartAddInBase003531::OnPacketTruncated, COMDAT
; _this$ = ecx

; 165  : 	virtual void	OnPacketTruncated( const int p_nDataCount)			{}

  00000	c2 04 00	 ret	 4
?OnPacketTruncated@CChartAddInBase003531@@MAEXH@Z ENDP	; CChartAddInBase003531::OnPacketTruncated
_TEXT	ENDS
; Function compile flags: /Ogtp
; File D:\git\src\IBK\IBK_DRFN\ProjSrc\SrcChartEx\ChartAddIn\ChartOutsideCustomAddIn\Include_AddIn\I003531\_ChartAddInBase.h
;	COMDAT ?OnGraphDeleted@CChartAddInBase003531@@MAEXPBD0@Z
_TEXT	SEGMENT
_p_szGraphName$ = 8					; size = 4
_p_szIndicatorName$ = 12				; size = 4
?OnGraphDeleted@CChartAddInBase003531@@MAEXPBD0@Z PROC	; CChartAddInBase003531::OnGraphDeleted, COMDAT
; _this$ = ecx

; 163  : 	virtual void	OnGraphDeleted( const char *p_szGraphName, const char *p_szIndicatorName)			{}

  00000	c2 08 00	 ret	 8
?OnGraphDeleted@CChartAddInBase003531@@MAEXPBD0@Z ENDP	; CChartAddInBase003531::OnGraphDeleted
_TEXT	ENDS
; Function compile flags: /Ogtp
; File D:\git\src\IBK\IBK_DRFN\ProjSrc\SrcChartEx\ChartAddIn\ChartOutsideCustomAddIn\Include_AddIn\I003531\_ChartAddInBase.h
;	COMDAT ?OnContextMenu@CChartAddInBase003531@@MAEXPAUHWND__@@AAUtagPOINT@@@Z
_TEXT	SEGMENT
_p_hWnd$ = 8						; size = 4
_p_pt$ = 12						; size = 4
?OnContextMenu@CChartAddInBase003531@@MAEXPAUHWND__@@AAUtagPOINT@@@Z PROC ; CChartAddInBase003531::OnContextMenu, COMDAT
; _this$ = ecx

; 161  : 	virtual void	OnContextMenu( HWND p_hWnd, POINT &p_pt)			{}

  00000	c2 08 00	 ret	 8
?OnContextMenu@CChartAddInBase003531@@MAEXPAUHWND__@@AAUtagPOINT@@@Z ENDP ; CChartAddInBase003531::OnContextMenu
_TEXT	ENDS
; Function compile flags: /Ogtp
; File D:\git\src\IBK\IBK_DRFN\ProjSrc\SrcChartEx\ChartAddIn\ChartOutsideCustomAddIn\Include_AddIn\I003531\_ChartAddInBase.h
;	COMDAT ?OnManualRealData@CChartAddInBase003531@@MAEXPBDNH@Z
_TEXT	SEGMENT
_p_szPacketName$ = 8					; size = 4
_p_dData$ = 12						; size = 8
_p_nOption$ = 20					; size = 4
?OnManualRealData@CChartAddInBase003531@@MAEXPBDNH@Z PROC ; CChartAddInBase003531::OnManualRealData, COMDAT
; _this$ = ecx

; 159  : 	virtual void	OnManualRealData( const char *p_szPacketName, const double p_dData, const int p_nOption)	{}

  00000	c2 10 00	 ret	 16			; 00000010H
?OnManualRealData@CChartAddInBase003531@@MAEXPBDNH@Z ENDP ; CChartAddInBase003531::OnManualRealData
_TEXT	ENDS
; Function compile flags: /Ogtp
; File D:\git\src\IBK\IBK_DRFN\ProjSrc\SrcChartEx\ChartAddIn\ChartOutsideCustomAddIn\Include_AddIn\I003531\_ChartAddInBase.h
;	COMDAT ?OnGraphAdded@CChartAddInBase003531@@MAEXPBD0@Z
_TEXT	SEGMENT
_p_szGraphName$ = 8					; size = 4
_p_szIndicatorName$ = 12				; size = 4
?OnGraphAdded@CChartAddInBase003531@@MAEXPBD0@Z PROC	; CChartAddInBase003531::OnGraphAdded, COMDAT
; _this$ = ecx

; 157  : 	virtual void	OnGraphAdded( const char *p_szGraphName, const char *p_szIndicatorName)			{}

  00000	c2 08 00	 ret	 8
?OnGraphAdded@CChartAddInBase003531@@MAEXPBD0@Z ENDP	; CChartAddInBase003531::OnGraphAdded
_TEXT	ENDS
; Function compile flags: /Ogtp
; File D:\git\src\IBK\IBK_DRFN\ProjSrc\SrcChartEx\ChartAddIn\ChartOutsideCustomAddIn\Include_AddIn\I003531\_ChartAddInBase.h
;	COMDAT ?OnBlockRemoved@CChartAddInBase003531@@MAEXHH@Z
_TEXT	SEGMENT
_p_nRow$ = 8						; size = 4
_p_nColumn$ = 12					; size = 4
?OnBlockRemoved@CChartAddInBase003531@@MAEXHH@Z PROC	; CChartAddInBase003531::OnBlockRemoved, COMDAT
; _this$ = ecx

; 155  : 	virtual void	OnBlockRemoved( const int p_nRow, const int p_nColumn)	{}

  00000	c2 08 00	 ret	 8
?OnBlockRemoved@CChartAddInBase003531@@MAEXHH@Z ENDP	; CChartAddInBase003531::OnBlockRemoved
_TEXT	ENDS
; Function compile flags: /Ogtp
; File D:\git\src\IBK\IBK_DRFN\ProjSrc\SrcChartEx\ChartAddIn\ChartOutsideCustomAddIn\Include_AddIn\I003531\_ChartAddInBase.h
;	COMDAT ?OnGraphDataChanged@CChartAddInBase003531@@MAEXXZ
_TEXT	SEGMENT
?OnGraphDataChanged@CChartAddInBase003531@@MAEXXZ PROC	; CChartAddInBase003531::OnGraphDataChanged, COMDAT
; _this$ = ecx

; 153  : 	virtual void	OnGraphDataChanged( void)							{}

  00000	c2 00 00	 ret	 0
?OnGraphDataChanged@CChartAddInBase003531@@MAEXXZ ENDP	; CChartAddInBase003531::OnGraphDataChanged
_TEXT	ENDS
; Function compile flags: /Ogtp
; File D:\git\src\IBK\IBK_DRFN\ProjSrc\SrcChartEx\ChartAddIn\ChartOutsideCustomAddIn\Include_AddIn\I003531\_ChartAddInBase.h
;	COMDAT ?OnChartItemChanged@CChartAddInBase003531@@MAEXXZ
_TEXT	SEGMENT
?OnChartItemChanged@CChartAddInBase003531@@MAEXXZ PROC	; CChartAddInBase003531::OnChartItemChanged, COMDAT
; _this$ = ecx

; 151  : 	virtual void	OnChartItemChanged( void)							{}

  00000	c2 00 00	 ret	 0
?OnChartItemChanged@CChartAddInBase003531@@MAEXXZ ENDP	; CChartAddInBase003531::OnChartItemChanged
_TEXT	ENDS
; Function compile flags: /Ogtp
; File D:\git\src\IBK\IBK_DRFN\ProjSrc\SrcChartEx\ChartAddIn\ChartOutsideCustomAddIn\Include_AddIn\I003531\_ChartAddInBase.h
;	COMDAT ?OnUserIndiatorConditionLoaded@CChartAddInBase003531@@MAEXXZ
_TEXT	SEGMENT
?OnUserIndiatorConditionLoaded@CChartAddInBase003531@@MAEXXZ PROC ; CChartAddInBase003531::OnUserIndiatorConditionLoaded, COMDAT
; _this$ = ecx

; 149  : 	virtual void	OnUserIndiatorConditionLoaded( void)				{}

  00000	c2 00 00	 ret	 0
?OnUserIndiatorConditionLoaded@CChartAddInBase003531@@MAEXXZ ENDP ; CChartAddInBase003531::OnUserIndiatorConditionLoaded
_TEXT	ENDS
; Function compile flags: /Ogtp
; File D:\git\src\IBK\IBK_DRFN\ProjSrc\SrcChartEx\ChartAddIn\ChartOutsideCustomAddIn\Include_AddIn\I003531\_ChartAddInBase.h
;	COMDAT ?OnResetMainBlock@CChartAddInBase003531@@MAEXXZ
_TEXT	SEGMENT
?OnResetMainBlock@CChartAddInBase003531@@MAEXXZ PROC	; CChartAddInBase003531::OnResetMainBlock, COMDAT
; _this$ = ecx

; 147  : 	virtual void	OnResetMainBlock( void)								{}

  00000	c2 00 00	 ret	 0
?OnResetMainBlock@CChartAddInBase003531@@MAEXXZ ENDP	; CChartAddInBase003531::OnResetMainBlock
_TEXT	ENDS
; Function compile flags: /Ogtp
; File D:\git\src\IBK\IBK_DRFN\ProjSrc\SrcChartEx\ChartAddIn\ChartOutsideCustomAddIn\Include_AddIn\I003531\_ChartAddInBase.h
;	COMDAT ?OnCaptureChanged@CChartAddInBase003531@@MAEXPAUHWND__@@QAUHBITMAP__@@@Z
_TEXT	SEGMENT
_p_hWnd$ = 8						; size = 4
_p_hbmpMainOSB$ = 12					; size = 4
?OnCaptureChanged@CChartAddInBase003531@@MAEXPAUHWND__@@QAUHBITMAP__@@@Z PROC ; CChartAddInBase003531::OnCaptureChanged, COMDAT
; _this$ = ecx

; 145  : 	virtual void	OnCaptureChanged( HWND p_hWnd, const HBITMAP p_hbmpMainOSB)	{}	// (2006/11/5 - Seung-Won, Bae) Support MainOSB

  00000	c2 08 00	 ret	 8
?OnCaptureChanged@CChartAddInBase003531@@MAEXPAUHWND__@@QAUHBITMAP__@@@Z ENDP ; CChartAddInBase003531::OnCaptureChanged
_TEXT	ENDS
; Function compile flags: /Ogtp
; File D:\git\src\IBK\IBK_DRFN\ProjSrc\SrcChartEx\ChartAddIn\ChartOutsideCustomAddIn\Include_AddIn\I003531\_ChartAddInBase.h
;	COMDAT ?OnTimer@CChartAddInBase003531@@MAEXI@Z
_TEXT	SEGMENT
_p_uTimerID$ = 8					; size = 4
?OnTimer@CChartAddInBase003531@@MAEXI@Z PROC		; CChartAddInBase003531::OnTimer, COMDAT
; _this$ = ecx

; 140  : 	virtual void	OnTimer( UINT p_uTimerID)	{}

  00000	c2 04 00	 ret	 4
?OnTimer@CChartAddInBase003531@@MAEXI@Z ENDP		; CChartAddInBase003531::OnTimer
_TEXT	ENDS
; Function compile flags: /Ogtp
; File D:\git\src\IBK\IBK_DRFN\ProjSrc\SrcChartEx\ChartAddIn\ChartOutsideCustomAddIn\Include_AddIn\I003531\_ChartAddInBase.h
;	COMDAT ?OnPacketDataMultiItem@CChartAddInBase003531@@MAEXPBD0H@Z
_TEXT	SEGMENT
_lpszRQ$ = 8						; size = 4
_p_szPacketNames$ = 12					; size = 4
_p_bWithReset$ = 16					; size = 4
?OnPacketDataMultiItem@CChartAddInBase003531@@MAEXPBD0H@Z PROC ; CChartAddInBase003531::OnPacketDataMultiItem, COMDAT
; _this$ = ecx

; 138  : 	virtual void	OnPacketDataMultiItem(LPCTSTR lpszRQ, const char *p_szPacketNames, BOOL p_bWithReset)	{}

  00000	c2 0c 00	 ret	 12			; 0000000cH
?OnPacketDataMultiItem@CChartAddInBase003531@@MAEXPBD0H@Z ENDP ; CChartAddInBase003531::OnPacketDataMultiItem
_TEXT	ENDS
; Function compile flags: /Ogtp
; File D:\git\src\IBK\IBK_DRFN\ProjSrc\SrcChartEx\ChartAddIn\ChartOutsideCustomAddIn\Include_AddIn\I003531\_ChartAddInBase.h
;	COMDAT ?OnUpdatePacketData@CChartAddInBase003531@@MAEXH@Z
_TEXT	SEGMENT
_p_bTrUpdate$ = 8					; size = 4
?OnUpdatePacketData@CChartAddInBase003531@@MAEXH@Z PROC	; CChartAddInBase003531::OnUpdatePacketData, COMDAT
; _this$ = ecx

; 136  : 	virtual void	OnUpdatePacketData( BOOL p_bTrUpdate)	{}

  00000	c2 04 00	 ret	 4
?OnUpdatePacketData@CChartAddInBase003531@@MAEXH@Z ENDP	; CChartAddInBase003531::OnUpdatePacketData
_TEXT	ENDS
; Function compile flags: /Ogtp
; File D:\git\src\IBK\IBK_DRFN\ProjSrc\SrcChartEx\ChartAddIn\ChartOutsideCustomAddIn\Include_AddIn\I003531\_ChartAddInBase.h
;	COMDAT ?OnDrawAfterGraph@CChartAddInBase003531@@MAEXPAUHDC__@@@Z
_TEXT	SEGMENT
_p_hDC$ = 8						; size = 4
?OnDrawAfterGraph@CChartAddInBase003531@@MAEXPAUHDC__@@@Z PROC ; CChartAddInBase003531::OnDrawAfterGraph, COMDAT
; _this$ = ecx

; 134  : 	virtual void	OnDrawAfterGraph( HDC p_hDC)	{}

  00000	c2 04 00	 ret	 4
?OnDrawAfterGraph@CChartAddInBase003531@@MAEXPAUHDC__@@@Z ENDP ; CChartAddInBase003531::OnDrawAfterGraph
_TEXT	ENDS
; Function compile flags: /Ogtp
; File D:\git\src\IBK\IBK_DRFN\ProjSrc\SrcChartEx\ChartAddIn\ChartOutsideCustomAddIn\Include_AddIn\I003531\_ChartAddInBase.h
;	COMDAT ?OnDrawBeforeGraph@CChartAddInBase003531@@MAEXPAUHDC__@@@Z
_TEXT	SEGMENT
_p_hDC$ = 8						; size = 4
?OnDrawBeforeGraph@CChartAddInBase003531@@MAEXPAUHDC__@@@Z PROC ; CChartAddInBase003531::OnDrawBeforeGraph, COMDAT
; _this$ = ecx

; 132  : 	virtual void	OnDrawBeforeGraph( HDC p_hDC)	{}

  00000	c2 04 00	 ret	 4
?OnDrawBeforeGraph@CChartAddInBase003531@@MAEXPAUHDC__@@@Z ENDP ; CChartAddInBase003531::OnDrawBeforeGraph
_TEXT	ENDS
; Function compile flags: /Ogtp
; File D:\git\src\IBK\IBK_DRFN\ProjSrc\SrcChartEx\ChartAddIn\ChartOutsideCustomAddIn\Include_AddIn\I003531\_ChartAddInBase.h
;	COMDAT ?OnResetChart@CChartAddInBase003531@@MAEXXZ
_TEXT	SEGMENT
?OnResetChart@CChartAddInBase003531@@MAEXXZ PROC	; CChartAddInBase003531::OnResetChart, COMDAT
; _this$ = ecx

; 130  : 	virtual void	OnResetChart( void)	{}

  00000	c2 00 00	 ret	 0
?OnResetChart@CChartAddInBase003531@@MAEXXZ ENDP	; CChartAddInBase003531::OnResetChart
_TEXT	ENDS
; Function compile flags: /Ogtp
; File D:\git\src\IBK\IBK_DRFN\ProjSrc\SrcChartEx\ChartAddIn\ChartOutsideCustomAddIn\Include_AddIn\I003531\_ChartAddInBase.h
;	COMDAT ?OnLSharedDataChange@CChartAddInBase003531@@MAEXPBD0@Z
_TEXT	SEGMENT
_p_szLShareKey$ = 8					; size = 4
_p_szLShareValue$ = 12					; size = 4
?OnLSharedDataChange@CChartAddInBase003531@@MAEXPBD0@Z PROC ; CChartAddInBase003531::OnLSharedDataChange, COMDAT
; _this$ = ecx

; 128  : 	virtual void	OnLSharedDataChange( const char *p_szLShareKey, const char *p_szLShareValue)	{}

  00000	c2 08 00	 ret	 8
?OnLSharedDataChange@CChartAddInBase003531@@MAEXPBD0@Z ENDP ; CChartAddInBase003531::OnLSharedDataChange
_TEXT	ENDS
; Function compile flags: /Ogtp
; File D:\git\src\IBK\IBK_DRFN\ProjSrc\SrcChartEx\ChartAddIn\ChartOutsideCustomAddIn\Include_AddIn\I003531\_ChartAddInBase.h
;	COMDAT ?OnGSharedDataChange@CChartAddInBase003531@@MAEXPBD0H@Z
_TEXT	SEGMENT
_p_szGShareKey$ = 8					; size = 4
_p_szGShareValue$ = 12					; size = 4
_p_bStartShare$ = 16					; size = 4
?OnGSharedDataChange@CChartAddInBase003531@@MAEXPBD0H@Z PROC ; CChartAddInBase003531::OnGSharedDataChange, COMDAT
; _this$ = ecx

; 126  : 	virtual void	OnGSharedDataChange( const char *p_szGShareKey, const char *p_szGShareValue, BOOL p_bStartShare)	{}

  00000	c2 0c 00	 ret	 12			; 0000000cH
?OnGSharedDataChange@CChartAddInBase003531@@MAEXPBD0H@Z ENDP ; CChartAddInBase003531::OnGSharedDataChange
_TEXT	ENDS
; Function compile flags: /Ogtp
; File D:\git\src\IBK\IBK_DRFN\ProjSrc\SrcChartEx\ChartAddIn\ChartOutsideCustomAddIn\Include_AddIn\I003531\_ChartAddInBase.h
;	COMDAT ?ChangeChartMode@CChartAddInBase003531@@MAEXW4CHART_MODE@CChartInfo@@@Z
_TEXT	SEGMENT
_p_eChartMode$ = 8					; size = 4
?ChangeChartMode@CChartAddInBase003531@@MAEXW4CHART_MODE@CChartInfo@@@Z PROC ; CChartAddInBase003531::ChangeChartMode, COMDAT
; _this$ = ecx

; 116  : 	virtual void	ChangeChartMode( CChartInfo::CHART_MODE p_eChartMode)	{	m_eChartMode = p_eChartMode;	}

  00000	55		 push	 ebp
  00001	8b ec		 mov	 ebp, esp
  00003	8b 45 08	 mov	 eax, DWORD PTR _p_eChartMode$[ebp]
  00006	89 41 34	 mov	 DWORD PTR [ecx+52], eax
  00009	5d		 pop	 ebp
  0000a	c2 04 00	 ret	 4
?ChangeChartMode@CChartAddInBase003531@@MAEXW4CHART_MODE@CChartInfo@@@Z ENDP ; CChartAddInBase003531::ChangeChartMode
_TEXT	ENDS
; Function compile flags: /Ogtp
; File D:\git\src\IBK\IBK_DRFN\ProjSrc\SrcChartEx\ChartAddIn\ChartOutsideCustomAddIn\Include_AddIn\I003531\_ChartAddInBase.h
;	COMDAT ?AfeterOnOcxDestroyWindow@CChartAddInBase003531@@MAEXXZ
_TEXT	SEGMENT
?AfeterOnOcxDestroyWindow@CChartAddInBase003531@@MAEXXZ PROC ; CChartAddInBase003531::AfeterOnOcxDestroyWindow, COMDAT
; _this$ = ecx

; 109  : 	virtual void	AfeterOnOcxDestroyWindow( void)							{}

  00000	c2 00 00	 ret	 0
?AfeterOnOcxDestroyWindow@CChartAddInBase003531@@MAEXXZ ENDP ; CChartAddInBase003531::AfeterOnOcxDestroyWindow
_TEXT	ENDS
; Function compile flags: /Ogtp
; File D:\git\src\IBK\IBK_DRFN\ProjSrc\SrcChartEx\ChartAddIn\ChartOutsideCustomAddIn\Include_AddIn\I003531\_ChartAddInBase.cpp
;	COMDAT ?OnOcxDestroyWindow@CChartAddInBase003531@@MAEXXZ
_TEXT	SEGMENT
?OnOcxDestroyWindow@CChartAddInBase003531@@MAEXXZ PROC	; CChartAddInBase003531::OnOcxDestroyWindow, COMDAT
; _this$ = ecx

; 151  : {

  00000	56		 push	 esi

; 152  : 	m_bOcxDestroyed = TRUE;
; 153  : 	RemoveAllInterface();

  00001	8d 71 f8	 lea	 esi, DWORD PTR [ecx-8]
  00004	c7 41 30 01 00
	00 00		 mov	 DWORD PTR [ecx+48], 1
  0000b	8b ce		 mov	 ecx, esi
  0000d	e8 00 00 00 00	 call	 ?RemoveAllInterface@CChartAddInBase003531@@IAEXXZ ; CChartAddInBase003531::RemoveAllInterface

; 154  : 	AfeterOnOcxDestroyWindow();

  00012	8b 06		 mov	 eax, DWORD PTR [esi]
  00014	8b ce		 mov	 ecx, esi
  00016	5e		 pop	 esi
  00017	ff 60 30	 jmp	 DWORD PTR [eax+48]
?OnOcxDestroyWindow@CChartAddInBase003531@@MAEXXZ ENDP	; CChartAddInBase003531::OnOcxDestroyWindow
_TEXT	ENDS
; Function compile flags: /Ogtp
; File D:\git\src\IBK\IBK_DRFN\ProjSrc\SrcChartEx\ChartAddIn\ChartOutsideCustomAddIn\Include_AddIn\I003531\_ChartAddInBase.cpp
;	COMDAT ?RemoveAllInterface@CChartAddInBase003531@@IAEXXZ
_TEXT	SEGMENT
?RemoveAllInterface@CChartAddInBase003531@@IAEXXZ PROC	; CChartAddInBase003531::RemoveAllInterface, COMDAT
; _this$ = ecx

; 114  : {

  00000	56		 push	 esi
  00001	8b f1		 mov	 esi, ecx

; 115  : 	// (2004.10.08, ) Chart OCX Interface ,   Object    .
; 116  : 	if( m_pIChartOCX)

  00003	8b 4e 0c	 mov	 ecx, DWORD PTR [esi+12]
  00006	85 c9		 test	 ecx, ecx
  00008	74 0d		 je	 SHORT $LN2@RemoveAllI

; 117  : 	{
; 118  : 		m_pIChartOCX->Release();

  0000a	8b 01		 mov	 eax, DWORD PTR [ecx]
  0000c	51		 push	 ecx
  0000d	ff 50 08	 call	 DWORD PTR [eax+8]

; 119  : 		m_pIChartOCX = NULL;

  00010	c7 46 0c 00 00
	00 00		 mov	 DWORD PTR [esi+12], 0
$LN2@RemoveAllI:

; 120  : 	}
; 121  : 
; 122  : 	// (2004.10.11, ) OCX  Manager Interface  .
; 123  : 	if( m_pIPacketListManager)

  00017	8b 4e 1c	 mov	 ecx, DWORD PTR [esi+28]
  0001a	85 c9		 test	 ecx, ecx
  0001c	74 0d		 je	 SHORT $LN3@RemoveAllI

; 124  : 	{
; 125  : 		m_pIPacketListManager->Release();

  0001e	8b 01		 mov	 eax, DWORD PTR [ecx]
  00020	51		 push	 ecx
  00021	ff 50 08	 call	 DWORD PTR [eax+8]

; 126  : 		m_pIPacketListManager = NULL;

  00024	c7 46 1c 00 00
	00 00		 mov	 DWORD PTR [esi+28], 0
$LN3@RemoveAllI:

; 127  : 	}
; 128  : 	if( m_pIDefaultPacketManager)

  0002b	8b 4e 20	 mov	 ecx, DWORD PTR [esi+32]
  0002e	85 c9		 test	 ecx, ecx
  00030	74 0d		 je	 SHORT $LN4@RemoveAllI

; 129  : 	{
; 130  : 		m_pIDefaultPacketManager->Release();

  00032	8b 01		 mov	 eax, DWORD PTR [ecx]
  00034	51		 push	 ecx
  00035	ff 50 08	 call	 DWORD PTR [eax+8]

; 131  : 		m_pIDefaultPacketManager = NULL;

  00038	c7 46 20 00 00
	00 00		 mov	 DWORD PTR [esi+32], 0
$LN4@RemoveAllI:

; 132  : 	}
; 133  : 	if( m_pIChartManager)

  0003f	8b 4e 24	 mov	 ecx, DWORD PTR [esi+36]
  00042	85 c9		 test	 ecx, ecx
  00044	74 0d		 je	 SHORT $LN5@RemoveAllI

; 134  : 	{
; 135  : 		m_pIChartManager->Release();

  00046	8b 01		 mov	 eax, DWORD PTR [ecx]
  00048	51		 push	 ecx
  00049	ff 50 08	 call	 DWORD PTR [eax+8]

; 136  : 		m_pIChartManager = NULL;

  0004c	c7 46 24 00 00
	00 00		 mov	 DWORD PTR [esi+36], 0
$LN5@RemoveAllI:

; 137  : 	}
; 138  : 	if( m_pIGraphInfoManager)

  00053	8b 4e 28	 mov	 ecx, DWORD PTR [esi+40]
  00056	85 c9		 test	 ecx, ecx
  00058	74 0d		 je	 SHORT $LN6@RemoveAllI

; 139  : 	{
; 140  : 		m_pIGraphInfoManager->Release();

  0005a	8b 01		 mov	 eax, DWORD PTR [ecx]
  0005c	51		 push	 ecx
  0005d	ff 50 08	 call	 DWORD PTR [eax+8]

; 141  : 		m_pIGraphInfoManager = NULL;

  00060	c7 46 28 00 00
	00 00		 mov	 DWORD PTR [esi+40], 0
$LN6@RemoveAllI:

; 142  : 	}
; 143  : 	if( m_pIAddInToolMgr)

  00067	8b 4e 2c	 mov	 ecx, DWORD PTR [esi+44]
  0006a	85 c9		 test	 ecx, ecx
  0006c	74 0d		 je	 SHORT $LN7@RemoveAllI

; 144  : 	{
; 145  : 		m_pIAddInToolMgr->Release();

  0006e	8b 01		 mov	 eax, DWORD PTR [ecx]
  00070	51		 push	 ecx
  00071	ff 50 08	 call	 DWORD PTR [eax+8]

; 146  : 		m_pIAddInToolMgr = NULL;

  00074	c7 46 2c 00 00
	00 00		 mov	 DWORD PTR [esi+44], 0
$LN7@RemoveAllI:

; 147  : 	}
; 148  : }

  0007b	5e		 pop	 esi
  0007c	c3		 ret	 0
?RemoveAllInterface@CChartAddInBase003531@@IAEXXZ ENDP	; CChartAddInBase003531::RemoveAllInterface
_TEXT	ENDS
; Function compile flags: /Ogtp
; File D:\git\src\IBK\IBK_DRFN\ProjSrc\SrcChartEx\ChartAddIn\ChartOutsideCustomAddIn\Include_AddIn\I003531\_ChartAddInBase.cpp
;	COMDAT ?UnregisterEventMap@CChartAddInBase003531@@UAEHXZ
_TEXT	SEGMENT
_pRegisteredEventMap$1$ = -4				; size = 4
?UnregisterEventMap@CChartAddInBase003531@@UAEHXZ PROC	; CChartAddInBase003531::UnregisterEventMap, COMDAT
; _this$ = ecx

; 101  : {

  00000	55		 push	 ebp
  00001	8b ec		 mov	 ebp, esp
  00003	51		 push	 ecx
  00004	53		 push	 ebx
  00005	8b d9		 mov	 ebx, ecx

; 102  : 	if( !m_pIAddInToolMgr) return 0;

  00007	83 7b 24 00	 cmp	 DWORD PTR [ebx+36], 0
  0000b	75 07		 jne	 SHORT $LN5@Unregister
  0000d	33 c0		 xor	 eax, eax
  0000f	5b		 pop	 ebx

; 111  : }

  00010	8b e5		 mov	 esp, ebp
  00012	5d		 pop	 ebp
  00013	c3		 ret	 0
$LN5@Unregister:

; 103  : 
; 104  : 	const EAddInEventType *pRegisteredEventMap = GetRegisteredEventMap();

  00014	8b 43 f8	 mov	 eax, DWORD PTR [ebx-8]
  00017	8d 4b f8	 lea	 ecx, DWORD PTR [ebx-8]
  0001a	56		 push	 esi
  0001b	57		 push	 edi
  0001c	ff 50 2c	 call	 DWORD PTR [eax+44]

; 105  : 
; 106  : 	int nUnregisteredCount = 0;

  0001f	33 ff		 xor	 edi, edi
  00021	89 45 fc	 mov	 DWORD PTR _pRegisteredEventMap$1$[ebp], eax

; 107  : 	for( int i = 0; pRegisteredEventMap[ i] != EAE_END; i++)

  00024	33 f6		 xor	 esi, esi
  00026	8b 10		 mov	 edx, DWORD PTR [eax]
  00028	83 fa 3d	 cmp	 edx, 61			; 0000003dH
  0002b	74 23		 je	 SHORT $LN3@Unregister
  0002d	0f 1f 00	 npad	 3
$LL4@Unregister:

; 108  : 		if( m_pIAddInToolMgr->UnregisterEventMap( pRegisteredEventMap[ i], m_pIAddInDllBase, m_bOverExclusive)) nUnregisteredCount++;

  00030	8b 4b 24	 mov	 ecx, DWORD PTR [ebx+36]
  00033	ff 73 2c	 push	 DWORD PTR [ebx+44]
  00036	ff 73 10	 push	 DWORD PTR [ebx+16]
  00039	8b 01		 mov	 eax, DWORD PTR [ecx]
  0003b	52		 push	 edx
  0003c	ff 50 14	 call	 DWORD PTR [eax+20]
  0003f	85 c0		 test	 eax, eax
  00041	74 01		 je	 SHORT $LN2@Unregister
  00043	47		 inc	 edi
$LN2@Unregister:

; 107  : 	for( int i = 0; pRegisteredEventMap[ i] != EAE_END; i++)

  00044	8b 45 fc	 mov	 eax, DWORD PTR _pRegisteredEventMap$1$[ebp]
  00047	46		 inc	 esi
  00048	8b 14 b0	 mov	 edx, DWORD PTR [eax+esi*4]
  0004b	83 fa 3d	 cmp	 edx, 61			; 0000003dH
  0004e	75 e0		 jne	 SHORT $LL4@Unregister
$LN3@Unregister:

; 109  : 
; 110  : 	return nUnregisteredCount;

  00050	8b c7		 mov	 eax, edi
  00052	5f		 pop	 edi
  00053	5e		 pop	 esi
  00054	5b		 pop	 ebx

; 111  : }

  00055	8b e5		 mov	 esp, ebp
  00057	5d		 pop	 ebp
  00058	c3		 ret	 0
?UnregisterEventMap@CChartAddInBase003531@@UAEHXZ ENDP	; CChartAddInBase003531::UnregisterEventMap
_TEXT	ENDS
; Function compile flags: /Ogtp
; File D:\git\src\IBK\IBK_DRFN\ProjSrc\SrcChartEx\ChartAddIn\ChartOutsideCustomAddIn\Include_AddIn\I003531\_ChartAddInBase.cpp
;	COMDAT ?RegisterEventMap@CChartAddInBase003531@@UAEHH@Z
_TEXT	SEGMENT
_pRegisteredEventMap$1$ = 8				; size = 4
_p_bOverExclusive$ = 8					; size = 4
?RegisterEventMap@CChartAddInBase003531@@UAEHH@Z PROC	; CChartAddInBase003531::RegisterEventMap, COMDAT
; _this$ = ecx

; 87   : {

  00000	55		 push	 ebp
  00001	8b ec		 mov	 ebp, esp

; 88   : 	m_bOverExclusive = p_bOverExclusive;

  00003	8b 45 08	 mov	 eax, DWORD PTR _p_bOverExclusive$[ebp]
  00006	53		 push	 ebx
  00007	8b d9		 mov	 ebx, ecx

; 89   : 
; 90   : 	const EAddInEventType *pRegisteredEventMap = GetRegisteredEventMap();

  00009	8d 4b f8	 lea	 ecx, DWORD PTR [ebx-8]
  0000c	56		 push	 esi
  0000d	57		 push	 edi
  0000e	89 43 2c	 mov	 DWORD PTR [ebx+44], eax
  00011	8b 01		 mov	 eax, DWORD PTR [ecx]
  00013	ff 50 2c	 call	 DWORD PTR [eax+44]

; 91   : 
; 92   : 	int nRegisteredCount = 0;

  00016	33 f6		 xor	 esi, esi
  00018	89 45 08	 mov	 DWORD PTR _pRegisteredEventMap$1$[ebp], eax

; 93   : 	for( int i = 0; pRegisteredEventMap[ i] != EAE_END; i++)

  0001b	33 ff		 xor	 edi, edi
  0001d	8b 10		 mov	 edx, DWORD PTR [eax]
  0001f	83 fa 3d	 cmp	 edx, 61			; 0000003dH
  00022	74 20		 je	 SHORT $LN11@RegisterEv
$LL4@RegisterEv:

; 94   : 		if( m_pIAddInToolMgr->RegisterEventMap( pRegisteredEventMap[ i], m_pIAddInDllBase, m_bOverExclusive)) nRegisteredCount++;

  00024	8b 4b 24	 mov	 ecx, DWORD PTR [ebx+36]
  00027	ff 73 2c	 push	 DWORD PTR [ebx+44]
  0002a	ff 73 10	 push	 DWORD PTR [ebx+16]
  0002d	8b 01		 mov	 eax, DWORD PTR [ecx]
  0002f	52		 push	 edx
  00030	ff 50 10	 call	 DWORD PTR [eax+16]
  00033	85 c0		 test	 eax, eax
  00035	74 01		 je	 SHORT $LN2@RegisterEv
  00037	46		 inc	 esi
$LN2@RegisterEv:

; 93   : 	for( int i = 0; pRegisteredEventMap[ i] != EAE_END; i++)

  00038	8b 45 08	 mov	 eax, DWORD PTR _pRegisteredEventMap$1$[ebp]
  0003b	47		 inc	 edi
  0003c	8b 14 b8	 mov	 edx, DWORD PTR [eax+edi*4]
  0003f	83 fa 3d	 cmp	 edx, 61			; 0000003dH
  00042	75 e0		 jne	 SHORT $LL4@RegisterEv
$LN11@RegisterEv:
  00044	5f		 pop	 edi

; 95   : 
; 96   : 	return nRegisteredCount;
; 97   : }

  00045	8b c6		 mov	 eax, esi
  00047	5e		 pop	 esi
  00048	5b		 pop	 ebx
  00049	5d		 pop	 ebp
  0004a	c2 04 00	 ret	 4
?RegisterEventMap@CChartAddInBase003531@@UAEHH@Z ENDP	; CChartAddInBase003531::RegisterEventMap
_TEXT	ENDS
; Function compile flags: /Ogtp
; File D:\git\src\IBK\IBK_DRFN\ProjSrc\SrcChartEx\ChartAddIn\ChartOutsideCustomAddIn\Include_AddIn\I003531\_ChartAddInBase.h
;	COMDAT ?InvokeAddInStr@CChartAddInBase003531@@MAEHPBD0@Z
_TEXT	SEGMENT
_p_szCommandName$ = 8					; size = 4
_p_szData$ = 12						; size = 4
?InvokeAddInStr@CChartAddInBase003531@@MAEHPBD0@Z PROC	; CChartAddInBase003531::InvokeAddInStr, COMDAT
; _this$ = ecx

; 92   : 	virtual BOOL	InvokeAddInStr( LPCTSTR p_szCommandName, LPCTSTR p_szData)	{	return FALSE;	}	// (2005/9/2 - Seung-Won, Bae) for String Data

  00000	33 c0		 xor	 eax, eax
  00002	c2 08 00	 ret	 8
?InvokeAddInStr@CChartAddInBase003531@@MAEHPBD0@Z ENDP	; CChartAddInBase003531::InvokeAddInStr
_TEXT	ENDS
; Function compile flags: /Ogtp
; File D:\git\src\IBK\IBK_DRFN\ProjSrc\SrcChartEx\ChartAddIn\ChartOutsideCustomAddIn\Include_AddIn\I003531\_ChartAddInBase.h
;	COMDAT ?InvokeAddIn@CChartAddInBase003531@@MAEHHJ@Z
_TEXT	SEGMENT
_p_nCommandType$ = 8					; size = 4
_p_lData$ = 12						; size = 4
?InvokeAddIn@CChartAddInBase003531@@MAEHHJ@Z PROC	; CChartAddInBase003531::InvokeAddIn, COMDAT
; _this$ = ecx

; 91   : 	virtual BOOL	InvokeAddIn( int p_nCommandType, long p_lData)	{	return FALSE;	}

  00000	33 c0		 xor	 eax, eax
  00002	c2 08 00	 ret	 8
?InvokeAddIn@CChartAddInBase003531@@MAEHHJ@Z ENDP	; CChartAddInBase003531::InvokeAddIn
_TEXT	ENDS
; Function compile flags: /Ogtp
; File D:\git\src\IBK\IBK_DRFN\ProjSrc\SrcChartEx\ChartAddIn\ChartOutsideCustomAddIn\Include_AddIn\I003531\_ChartAddInBase.h
;	COMDAT ?GetAddInCustomInterface@CChartAddInBase003531@@MAEPAUIUnknown@@XZ
_TEXT	SEGMENT
?GetAddInCustomInterface@CChartAddInBase003531@@MAEPAUIUnknown@@XZ PROC ; CChartAddInBase003531::GetAddInCustomInterface, COMDAT
; _this$ = ecx

; 87   : 	virtual IUnknown *	GetAddInCustomInterface( void)				{	return NULL;	}

  00000	33 c0		 xor	 eax, eax
  00002	c3		 ret	 0
?GetAddInCustomInterface@CChartAddInBase003531@@MAEPAUIUnknown@@XZ ENDP ; CChartAddInBase003531::GetAddInCustomInterface
_TEXT	ENDS
; Function compile flags: /Ogtp
; File D:\git\src\IBK\IBK_DRFN\ProjSrc\SrcChartEx\ChartAddIn\ChartOutsideCustomAddIn\Include_AddIn\I003531\_ChartAddInBase.cpp
;	COMDAT ?HasFullManager@CChartAddInBase003531@@MAEHXZ
_TEXT	SEGMENT
?HasFullManager@CChartAddInBase003531@@MAEHXZ PROC	; CChartAddInBase003531::HasFullManager, COMDAT
; _this$ = ecx

; 82   : 	return m_pIChartOCX && m_pIPacketListManager && m_pIDefaultPacketManager && m_pIChartManager && m_pIGraphInfoManager && m_pIAddInToolMgr;

  00000	83 79 04 00	 cmp	 DWORD PTR [ecx+4], 0
  00004	74 24		 je	 SHORT $LN3@HasFullMan
  00006	83 79 14 00	 cmp	 DWORD PTR [ecx+20], 0
  0000a	74 1e		 je	 SHORT $LN3@HasFullMan
  0000c	83 79 18 00	 cmp	 DWORD PTR [ecx+24], 0
  00010	74 18		 je	 SHORT $LN3@HasFullMan
  00012	83 79 1c 00	 cmp	 DWORD PTR [ecx+28], 0
  00016	74 12		 je	 SHORT $LN3@HasFullMan
  00018	83 79 20 00	 cmp	 DWORD PTR [ecx+32], 0
  0001c	74 0c		 je	 SHORT $LN3@HasFullMan
  0001e	83 79 24 00	 cmp	 DWORD PTR [ecx+36], 0
  00022	74 06		 je	 SHORT $LN3@HasFullMan
  00024	b8 01 00 00 00	 mov	 eax, 1

; 83   : }

  00029	c3		 ret	 0
$LN3@HasFullMan:

; 82   : 	return m_pIChartOCX && m_pIPacketListManager && m_pIDefaultPacketManager && m_pIChartManager && m_pIGraphInfoManager && m_pIAddInToolMgr;

  0002a	33 c0		 xor	 eax, eax

; 83   : }

  0002c	c3		 ret	 0
?HasFullManager@CChartAddInBase003531@@MAEHXZ ENDP	; CChartAddInBase003531::HasFullManager
_TEXT	ENDS
; Function compile flags: /Ogtp
; File D:\git\src\IBK\IBK_DRFN\ProjSrc\SrcChartEx\ChartAddIn\ChartOutsideCustomAddIn\Include_AddIn\I003531\_ChartAddInBase.h
;	COMDAT ?QueryInterface@CChartAddInBase003531@@MAGJABU_GUID@@PAPAX@Z
_TEXT	SEGMENT
_this$ = 8						; size = 4
_iid$ = 12						; size = 4
_ppvObject$ = 16					; size = 4
?QueryInterface@CChartAddInBase003531@@MAGJABU_GUID@@PAPAX@Z PROC ; CChartAddInBase003531::QueryInterface, COMDAT

; 54   : 	_IWRAPPER_IUNKNOWN_INTERFACE()

  00000	b8 02 40 00 80	 mov	 eax, -2147467262	; 80004002H
  00005	c2 0c 00	 ret	 12			; 0000000cH
?QueryInterface@CChartAddInBase003531@@MAGJABU_GUID@@PAPAX@Z ENDP ; CChartAddInBase003531::QueryInterface
_TEXT	ENDS
; Function compile flags: /Ogtp
; File D:\git\src\IBK\IBK_DRFN\ProjSrc\SrcChartEx\ChartAddIn\ChartOutsideCustomAddIn\Include_AddIn\I003531\_ChartAddInBase.h
;	COMDAT ?Release@CChartAddInBase003531@@MAGKXZ
_TEXT	SEGMENT
_this$ = 8						; size = 4
?Release@CChartAddInBase003531@@MAGKXZ PROC		; CChartAddInBase003531::Release, COMDAT

; 54   : 	_IWRAPPER_IUNKNOWN_INTERFACE()

  00000	55		 push	 ebp
  00001	8b ec		 mov	 ebp, esp
  00003	5d		 pop	 ebp
  00004	e9 00 00 00 00	 jmp	 ?Release@CIWUnknown@@MAGKXZ ; CIWUnknown::Release
?Release@CChartAddInBase003531@@MAGKXZ ENDP		; CChartAddInBase003531::Release
_TEXT	ENDS
; Function compile flags: /Ogtp
; File D:\git\src\IBK\IBK_DRFN\ProjSrc\SrcChartEx\ChartAddIn\ChartOutsideCustomAddIn\Include_AddIn\I003531\_ChartAddInBase.h
;	COMDAT ?AddRef@CChartAddInBase003531@@MAGKXZ
_TEXT	SEGMENT
_this$ = 8						; size = 4
?AddRef@CChartAddInBase003531@@MAGKXZ PROC		; CChartAddInBase003531::AddRef, COMDAT

; 54   : 	_IWRAPPER_IUNKNOWN_INTERFACE()

  00000	55		 push	 ebp
  00001	8b ec		 mov	 ebp, esp
  00003	5d		 pop	 ebp
  00004	e9 00 00 00 00	 jmp	 ?AddRef@CIWUnknown@@MAGKXZ ; CIWUnknown::AddRef
?AddRef@CChartAddInBase003531@@MAGKXZ ENDP		; CChartAddInBase003531::AddRef
_TEXT	ENDS
; Function compile flags: /Ogtp
; File D:\git\src\IBK\IBK_DRFN\ProjSrc\SrcChartEx\ChartAddIn\ChartOutsideCustomAddIn\Include_AddIn\I003531\_ChartAddInBase.cpp
;	COMDAT ??1CChartAddInBase003531@@MAE@XZ
_TEXT	SEGMENT
__$EHRec$ = -12						; size = 12
??1CChartAddInBase003531@@MAE@XZ PROC			; CChartAddInBase003531::~CChartAddInBase003531, COMDAT
; _this$ = ecx

; 75   : {

  00000	55		 push	 ebp
  00001	8b ec		 mov	 ebp, esp
  00003	6a ff		 push	 -1
  00005	68 00 00 00 00	 push	 __ehhandler$??1CChartAddInBase003531@@MAE@XZ
  0000a	64 a1 00 00 00
	00		 mov	 eax, DWORD PTR fs:0
  00010	50		 push	 eax
  00011	56		 push	 esi
  00012	a1 00 00 00 00	 mov	 eax, DWORD PTR ___security_cookie
  00017	33 c5		 xor	 eax, ebp
  00019	50		 push	 eax
  0001a	8d 45 f4	 lea	 eax, DWORD PTR __$EHRec$[ebp]
  0001d	64 a3 00 00 00
	00		 mov	 DWORD PTR fs:0, eax
  00023	8b f1		 mov	 esi, ecx
  00025	c7 06 00 00 00
	00		 mov	 DWORD PTR [esi], OFFSET ??_7CChartAddInBase003531@@6BCIWUnknown@@@
  0002b	c7 46 08 00 00
	00 00		 mov	 DWORD PTR [esi+8], OFFSET ??_7CChartAddInBase003531@@6BIChartAddIn003531@@@

; 76   : 	RemoveAllInterface();

  00032	e8 00 00 00 00	 call	 ?RemoveAllInterface@CChartAddInBase003531@@IAEXXZ ; CChartAddInBase003531::RemoveAllInterface

; 77   : }

  00037	8b ce		 mov	 ecx, esi
  00039	c7 46 08 00 00
	00 00		 mov	 DWORD PTR [esi+8], OFFSET ??_7IChartAddIn003531@@6B@
  00040	e8 00 00 00 00	 call	 ??1CIWUnknown@@MAE@XZ	; CIWUnknown::~CIWUnknown
  00045	8b 4d f4	 mov	 ecx, DWORD PTR __$EHRec$[ebp]
  00048	64 89 0d 00 00
	00 00		 mov	 DWORD PTR fs:0, ecx
  0004f	59		 pop	 ecx
  00050	5e		 pop	 esi
  00051	8b e5		 mov	 esp, ebp
  00053	5d		 pop	 ebp
  00054	c3		 ret	 0
  00055	cc		 int	 3
  00056	cc		 int	 3
  00057	cc		 int	 3
  00058	cc		 int	 3
  00059	cc		 int	 3
_TEXT	ENDS
;	COMDAT text$x
text$x	SEGMENT
__ehhandler$??1CChartAddInBase003531@@MAE@XZ:
  00000	90		 npad	 1
  00001	90		 npad	 1
  00002	8b 54 24 08	 mov	 edx, DWORD PTR [esp+8]
  00006	8d 42 0c	 lea	 eax, DWORD PTR [edx+12]
  00009	8b 4a f8	 mov	 ecx, DWORD PTR [edx-8]
  0000c	33 c8		 xor	 ecx, eax
  0000e	e8 00 00 00 00	 call	 @__security_check_cookie@4
  00013	b8 00 00 00 00	 mov	 eax, OFFSET __ehfuncinfo$??1CChartAddInBase003531@@MAE@XZ
  00018	e9 00 00 00 00	 jmp	 ___CxxFrameHandler3
text$x	ENDS
??1CChartAddInBase003531@@MAE@XZ ENDP			; CChartAddInBase003531::~CChartAddInBase003531
; Function compile flags: /Ogtp
; File D:\git\src\IBK\IBK_DRFN\ProjSrc\SrcChartEx\ChartAddIn\ChartOutsideCustomAddIn\Include_AddIn\I003531\_ChartAddInBase.cpp
;	COMDAT ??0CChartAddInBase003531@@IAE@PAUIChartOCX003531@@PAUIAddInDllBase@@@Z
_TEXT	SEGMENT
__ctlState$ = -24					; size = 8
_this$ = -16						; size = 4
__$EHRec$ = -12						; size = 12
_p_pIChartOCX$ = 8					; size = 4
_p_pIAddInDllBase$ = 12					; size = 4
??0CChartAddInBase003531@@IAE@PAUIChartOCX003531@@PAUIAddInDllBase@@@Z PROC ; CChartAddInBase003531::CChartAddInBase003531, COMDAT
; _this$ = ecx

; 27   : {

  00000	55		 push	 ebp
  00001	8b ec		 mov	 ebp, esp
  00003	6a ff		 push	 -1
  00005	68 00 00 00 00	 push	 __ehhandler$??0CChartAddInBase003531@@IAE@PAUIChartOCX003531@@PAUIAddInDllBase@@@Z
  0000a	64 a1 00 00 00
	00		 mov	 eax, DWORD PTR fs:0
  00010	50		 push	 eax
  00011	83 ec 0c	 sub	 esp, 12			; 0000000cH
  00014	56		 push	 esi
  00015	57		 push	 edi
  00016	a1 00 00 00 00	 mov	 eax, DWORD PTR ___security_cookie
  0001b	33 c5		 xor	 eax, ebp
  0001d	50		 push	 eax
  0001e	8d 45 f4	 lea	 eax, DWORD PTR __$EHRec$[ebp]
  00021	64 a3 00 00 00
	00		 mov	 DWORD PTR fs:0, eax
  00027	8b f1		 mov	 esi, ecx
  00029	89 75 f0	 mov	 DWORD PTR _this$[ebp], esi
  0002c	e8 00 00 00 00	 call	 ??0CIWUnknown@@QAE@XZ	; CIWUnknown::CIWUnknown
  00031	c7 45 fc 00 00
	00 00		 mov	 DWORD PTR __$EHRec$[ebp+8], 0
  00038	c7 46 08 00 00
	00 00		 mov	 DWORD PTR [esi+8], OFFSET ??_7IChartAddIn003531@@6B@
  0003f	c6 45 fc 01	 mov	 BYTE PTR __$EHRec$[ebp+8], 1
  00043	c7 06 00 00 00
	00		 mov	 DWORD PTR [esi], OFFSET ??_7CChartAddInBase003531@@6BCIWUnknown@@@
  00049	c7 46 08 00 00
	00 00		 mov	 DWORD PTR [esi+8], OFFSET ??_7CChartAddInBase003531@@6BIChartAddIn003531@@@

; 28   : 	// (2006/2/10 - Seung-Won, Bae) Manage State for CWnd::FromHandle()
; 29   : 	AFX_MANAGE_STATE( AfxGetStaticModuleState());

  00050	e8 00 00 00 00	 call	 ?AfxGetStaticModuleState@@YGPAVAFX_MODULE_STATE@@XZ ; AfxGetStaticModuleState
  00055	50		 push	 eax
  00056	8d 4d e8	 lea	 ecx, DWORD PTR __ctlState$[ebp]
  00059	e8 00 00 00 00	 call	 ??0AFX_MAINTAIN_STATE2@@QAE@PAVAFX_MODULE_STATE@@@Z ; AFX_MAINTAIN_STATE2::AFX_MAINTAIN_STATE2

; 30   : 
; 31   : 	// (2006/2/12 - Seung-Won, Bae) Manage Over Exclusive Flag for Registering AddIn Event Map
; 32   : 	m_bOverExclusive = FALSE;
; 33   : 
; 34   : 	// (2004.10.15, ) OCX Interface NULL  , Member  NULL  .
; 35   : 	m_pIPacketListManager		= NULL;
; 36   : 	m_pIDefaultPacketManager	= NULL;
; 37   : 	m_pIChartManager			= NULL;
; 38   : 	m_pIGraphInfoManager		= NULL;
; 39   : 	m_pIAddInToolMgr			= NULL;
; 40   : 
; 41   : 	m_pChartCWnd				= NULL;
; 42   : 	// (2006/1/17 - Seung-Won, Bae) Manage IAddInDll for AddIn Tool Exclusive
; 43   : 	m_pIAddInDllBase		= p_pIAddInDllBase;
; 44   : 
; 45   : 	// (2004.10.08, ) Chart OCX Interface ,   Object    .
; 46   : 	m_pIChartOCX = p_pIChartOCX;

  0005e	8b 7d 08	 mov	 edi, DWORD PTR _p_pIChartOCX$[ebp]
  00061	8b 45 0c	 mov	 eax, DWORD PTR _p_pIAddInDllBase$[ebp]
  00064	c6 45 fc 02	 mov	 BYTE PTR __$EHRec$[ebp+8], 2
  00068	c7 46 34 00 00
	00 00		 mov	 DWORD PTR [esi+52], 0
  0006f	c7 46 1c 00 00
	00 00		 mov	 DWORD PTR [esi+28], 0
  00076	c7 46 20 00 00
	00 00		 mov	 DWORD PTR [esi+32], 0
  0007d	c7 46 24 00 00
	00 00		 mov	 DWORD PTR [esi+36], 0
  00084	c7 46 28 00 00
	00 00		 mov	 DWORD PTR [esi+40], 0
  0008b	c7 46 2c 00 00
	00 00		 mov	 DWORD PTR [esi+44], 0
  00092	c7 46 10 00 00
	00 00		 mov	 DWORD PTR [esi+16], 0
  00099	89 46 18	 mov	 DWORD PTR [esi+24], eax
  0009c	89 7e 0c	 mov	 DWORD PTR [esi+12], edi

; 47   : 	if( !m_pIChartOCX)

  0009f	85 ff		 test	 edi, edi
  000a1	75 0e		 jne	 SHORT $LN2@CChartAddI

; 48   : 	{
; 49   : 		AfxMessageBox( "CChartAddInBase" _AIVERS " Null Wrapping Error!");

  000a3	57		 push	 edi
  000a4	57		 push	 edi
  000a5	68 00 00 00 00	 push	 OFFSET ??_C@_0CL@ODHPAEIM@CChartAddInBase003531?5Null?5Wrap@
  000aa	e8 00 00 00 00	 call	 ?AfxMessageBox@@YGHPBDII@Z ; AfxMessageBox

; 50   : 		return;

  000af	eb 6c		 jmp	 SHORT $LN1@CChartAddI
$LN2@CChartAddI:

; 51   : 	}
; 52   : 	m_pIChartOCX->AddRef();

  000b1	8b 07		 mov	 eax, DWORD PTR [edi]
  000b3	57		 push	 edi
  000b4	ff 50 04	 call	 DWORD PTR [eax+4]

; 53   : 
; 54   : 	// (2004.10.11, ) OCX  Manager Interface  .
; 55   : 	m_pIDefaultPacketManager	= m_pIChartOCX->GetIDefaultPacketManager();

  000b7	8b 4e 0c	 mov	 ecx, DWORD PTR [esi+12]
  000ba	8b 01		 mov	 eax, DWORD PTR [ecx]
  000bc	ff 50 20	 call	 DWORD PTR [eax+32]

; 56   : 	m_pIPacketListManager		= m_pIChartOCX->GetIPacketListManager();

  000bf	8b 4e 0c	 mov	 ecx, DWORD PTR [esi+12]
  000c2	89 46 20	 mov	 DWORD PTR [esi+32], eax
  000c5	8b 01		 mov	 eax, DWORD PTR [ecx]
  000c7	ff 50 1c	 call	 DWORD PTR [eax+28]

; 57   : 	m_pIChartManager			= m_pIChartOCX->GetIChartManager();

  000ca	8b 4e 0c	 mov	 ecx, DWORD PTR [esi+12]
  000cd	89 46 1c	 mov	 DWORD PTR [esi+28], eax
  000d0	8b 01		 mov	 eax, DWORD PTR [ecx]
  000d2	ff 50 18	 call	 DWORD PTR [eax+24]

; 58   : 	m_pIGraphInfoManager		= m_pIChartOCX->GetIGraphInfoManager();

  000d5	8b 4e 0c	 mov	 ecx, DWORD PTR [esi+12]
  000d8	89 46 24	 mov	 DWORD PTR [esi+36], eax
  000db	8b 01		 mov	 eax, DWORD PTR [ecx]
  000dd	ff 50 24	 call	 DWORD PTR [eax+36]

; 59   : 	m_pIAddInToolMgr			= m_pIChartOCX->GetIAddInToolMgr();

  000e0	8b 4e 0c	 mov	 ecx, DWORD PTR [esi+12]
  000e3	89 46 28	 mov	 DWORD PTR [esi+40], eax
  000e6	8b 01		 mov	 eax, DWORD PTR [ecx]
  000e8	ff 50 28	 call	 DWORD PTR [eax+40]

; 60   : 
; 61   : 	// (2004.10.25, ) Chart OCX Control Window Pointer  Windows Interface    .
; 62   : 	m_pChartCWnd = CWnd::FromHandle( m_pIChartOCX->GetOcxHwnd());

  000eb	8b 4e 0c	 mov	 ecx, DWORD PTR [esi+12]
  000ee	89 46 2c	 mov	 DWORD PTR [esi+44], eax
  000f1	8b 01		 mov	 eax, DWORD PTR [ecx]
  000f3	ff 50 40	 call	 DWORD PTR [eax+64]
  000f6	50		 push	 eax
  000f7	e8 00 00 00 00	 call	 ?FromHandle@CWnd@@SGPAV1@PAUHWND__@@@Z ; CWnd::FromHandle
  000fc	89 46 10	 mov	 DWORD PTR [esi+16], eax

; 63   : 
; 64   : 	// (2007/3/4 - Seung-Won, Bae) Notify OCX Destroying to Addin for Reset OCX's Interface
; 65   : 	m_bOcxDestroyed = FALSE;
; 66   : 
; 67   : 	// (2008/1/22 - Seung-Won, Bae) for Multi-Language
; 68   : 	m_hOcxWnd = p_pIChartOCX->GetOcxHwnd();

  000ff	8b cf		 mov	 ecx, edi
  00101	c7 46 38 00 00
	00 00		 mov	 DWORD PTR [esi+56], 0
  00108	8b 07		 mov	 eax, DWORD PTR [edi]
  0010a	ff 50 40	 call	 DWORD PTR [eax+64]
  0010d	89 46 14	 mov	 DWORD PTR [esi+20], eax

; 69   : 
; 70   : 	// (2009/9/14 - Seung-Won, Bae) for World-On
; 71   : 	m_eChartMode = p_pIChartOCX->GetChartMode();

  00110	8b cf		 mov	 ecx, edi
  00112	8b 07		 mov	 eax, DWORD PTR [edi]
  00114	ff 90 60 02 00
	00		 call	 DWORD PTR [eax+608]
  0011a	89 46 3c	 mov	 DWORD PTR [esi+60], eax
$LN1@CChartAddI:

; 72   : }

  0011d	8d 4d e8	 lea	 ecx, DWORD PTR __ctlState$[ebp]
  00120	e8 00 00 00 00	 call	 ??1AFX_MAINTAIN_STATE2@@QAE@XZ ; AFX_MAINTAIN_STATE2::~AFX_MAINTAIN_STATE2
  00125	8b c6		 mov	 eax, esi
  00127	8b 4d f4	 mov	 ecx, DWORD PTR __$EHRec$[ebp]
  0012a	64 89 0d 00 00
	00 00		 mov	 DWORD PTR fs:0, ecx
  00131	59		 pop	 ecx
  00132	5f		 pop	 edi
  00133	5e		 pop	 esi
  00134	8b e5		 mov	 esp, ebp
  00136	5d		 pop	 ebp
  00137	c2 08 00	 ret	 8
_TEXT	ENDS
;	COMDAT text$x
text$x	SEGMENT
__unwindfunclet$??0CChartAddInBase003531@@IAE@PAUIChartOCX003531@@PAUIAddInDllBase@@@Z$0:
  00000	8b 4d f0	 mov	 ecx, DWORD PTR _this$[ebp]
  00003	e9 00 00 00 00	 jmp	 ??1CIWUnknown@@MAE@XZ	; CIWUnknown::~CIWUnknown
__unwindfunclet$??0CChartAddInBase003531@@IAE@PAUIChartOCX003531@@PAUIAddInDllBase@@@Z$1:
  00008	8b 4d f0	 mov	 ecx, DWORD PTR _this$[ebp]
  0000b	83 c1 08	 add	 ecx, 8
  0000e	e9 00 00 00 00	 jmp	 ??1IChartAddIn003531@@MAE@XZ ; IChartAddIn003531::~IChartAddIn003531
__unwindfunclet$??0CChartAddInBase003531@@IAE@PAUIChartOCX003531@@PAUIAddInDllBase@@@Z$2:
  00013	8d 4d e8	 lea	 ecx, DWORD PTR __ctlState$[ebp]
  00016	e9 00 00 00 00	 jmp	 ??1AFX_MAINTAIN_STATE2@@QAE@XZ ; AFX_MAINTAIN_STATE2::~AFX_MAINTAIN_STATE2
  0001b	cc		 int	 3
  0001c	cc		 int	 3
  0001d	cc		 int	 3
  0001e	cc		 int	 3
  0001f	cc		 int	 3
__ehhandler$??0CChartAddInBase003531@@IAE@PAUIChartOCX003531@@PAUIAddInDllBase@@@Z:
  00020	90		 npad	 1
  00021	90		 npad	 1
  00022	8b 54 24 08	 mov	 edx, DWORD PTR [esp+8]
  00026	8d 42 0c	 lea	 eax, DWORD PTR [edx+12]
  00029	8b 4a e8	 mov	 ecx, DWORD PTR [edx-24]
  0002c	33 c8		 xor	 ecx, eax
  0002e	e8 00 00 00 00	 call	 @__security_check_cookie@4
  00033	b8 00 00 00 00	 mov	 eax, OFFSET __ehfuncinfo$??0CChartAddInBase003531@@IAE@PAUIChartOCX003531@@PAUIAddInDllBase@@@Z
  00038	e9 00 00 00 00	 jmp	 ___CxxFrameHandler3
text$x	ENDS
??0CChartAddInBase003531@@IAE@PAUIChartOCX003531@@PAUIAddInDllBase@@@Z ENDP ; CChartAddInBase003531::CChartAddInBase003531
; Function compile flags: /Ogtp
;	COMDAT ??_GIChartAddIn003531@@MAEPAXI@Z
_TEXT	SEGMENT
___flags$ = 8						; size = 4
??_GIChartAddIn003531@@MAEPAXI@Z PROC			; IChartAddIn003531::`scalar deleting destructor', COMDAT
; _this$ = ecx
  00000	55		 push	 ebp
  00001	8b ec		 mov	 ebp, esp
  00003	f6 45 08 01	 test	 BYTE PTR ___flags$[ebp], 1
  00007	56		 push	 esi
  00008	8b f1		 mov	 esi, ecx
  0000a	c7 06 00 00 00
	00		 mov	 DWORD PTR [esi], OFFSET ??_7IChartAddIn003531@@6B@
  00010	74 0b		 je	 SHORT $LN4@scalar
  00012	6a 04		 push	 4
  00014	56		 push	 esi
  00015	e8 00 00 00 00	 call	 ??3@YAXPAXI@Z		; operator delete
  0001a	83 c4 08	 add	 esp, 8
$LN4@scalar:
  0001d	8b c6		 mov	 eax, esi
  0001f	5e		 pop	 esi
  00020	5d		 pop	 ebp
  00021	c2 04 00	 ret	 4
??_GIChartAddIn003531@@MAEPAXI@Z ENDP			; IChartAddIn003531::`scalar deleting destructor'
_TEXT	ENDS
; Function compile flags: /Ogtp
; File D:\git\src\IBK\IBK_DRFN\ProjSrc\SrcChartEx\ChartAddIn\ChartOutsideCustomAddIn\Include_AddIn\I003531\_IChartAddIn.h
;	COMDAT ??1IChartAddIn003531@@MAE@XZ
_TEXT	SEGMENT
??1IChartAddIn003531@@MAE@XZ PROC			; IChartAddIn003531::~IChartAddIn003531, COMDAT
; _this$ = ecx

; 23   : 	virtual ~IChartAddIn()	{}

  00000	c7 01 00 00 00
	00		 mov	 DWORD PTR [ecx], OFFSET ??_7IChartAddIn003531@@6B@
  00006	c3		 ret	 0
??1IChartAddIn003531@@MAE@XZ ENDP			; IChartAddIn003531::~IChartAddIn003531
_TEXT	ENDS
; Function compile flags: /Ogtp
; File D:\git\src\IBK\IBK_DRFN\ProjSrc\SrcChartEx\ChartAddIn\ChartOutsideCustomAddIn\Include_AddIn\_IWUnknown.h
;	COMDAT ?PreDestruct@CIWUnknown@@MAEXXZ
_TEXT	SEGMENT
?PreDestruct@CIWUnknown@@MAEXXZ PROC			; CIWUnknown::PreDestruct, COMDAT
; _this$ = ecx

; 48   : 	virtual void	PreDestruct( void)		{}

  00000	c2 00 00	 ret	 0
?PreDestruct@CIWUnknown@@MAEXXZ ENDP			; CIWUnknown::PreDestruct
_TEXT	ENDS
; Function compile flags: /Ogtp
; File D:\git\src\IBK\IBK_DRFN\ProjSrc\SrcChartEx\ChartAddIn\ChartOutsideCustomAddIn\Include_AddIn\_IWUnknown.h
;	COMDAT ?PreDestructX@CIWUnknown@@MAEXXZ
_TEXT	SEGMENT
?PreDestructX@CIWUnknown@@MAEXXZ PROC			; CIWUnknown::PreDestructX, COMDAT
; _this$ = ecx

; 47   : 	virtual void	PreDestructX( void)		{}

  00000	c2 00 00	 ret	 0
?PreDestructX@CIWUnknown@@MAEXXZ ENDP			; CIWUnknown::PreDestructX
_TEXT	ENDS
; Function compile flags: /Ogtp
; File D:\git\src\IBK\IBK_DRFN\ProjSrc\SrcChartEx\ChartAddIn\ChartOutsideCustomAddIn\Include_AddIn\_IWUnknown.h
;	COMDAT ?PostConstruct@CIWUnknown@@MAEXXZ
_TEXT	SEGMENT
?PostConstruct@CIWUnknown@@MAEXXZ PROC			; CIWUnknown::PostConstruct, COMDAT
; _this$ = ecx

; 46   : 	virtual void	PostConstruct( void)	{}

  00000	c2 00 00	 ret	 0
?PostConstruct@CIWUnknown@@MAEXXZ ENDP			; CIWUnknown::PostConstruct
_TEXT	ENDS
; Function compile flags: /Ogtp
; File C:\Program Files (x86)\Microsoft Visual Studio\2019\Community\VC\Tools\MSVC\14.29.30133\atlmfc\include\afx.inl
;	COMDAT ?_AfxInitManaged@@YAHXZ
_TEXT	SEGMENT
?_AfxInitManaged@@YAHXZ PROC				; _AfxInitManaged, COMDAT

; 87   : 	return 0;

  00000	33 c0		 xor	 eax, eax

; 88   : }

  00002	c3		 ret	 0
?_AfxInitManaged@@YAHXZ ENDP				; _AfxInitManaged
_TEXT	ENDS
; Function compile flags: /Ogtp
; File C:\Program Files (x86)\Microsoft Visual Studio\2019\Community\VC\Tools\MSVC\14.29.30133\atlmfc\include\afx.inl
;	COMDAT ?Dump@CObject@@UBEXAAVCDumpContext@@@Z
_TEXT	SEGMENT
___formal$ = 8						; size = 4
?Dump@CObject@@UBEXAAVCDumpContext@@@Z PROC		; CObject::Dump, COMDAT
; _this$ = ecx

; 122  : 	{ /* no dumping in release builds */ }

  00000	c2 04 00	 ret	 4
?Dump@CObject@@UBEXAAVCDumpContext@@@Z ENDP		; CObject::Dump
_TEXT	ENDS
; Function compile flags: /Ogtp
; File C:\Program Files (x86)\Microsoft Visual Studio\2019\Community\VC\Tools\MSVC\14.29.30133\atlmfc\include\afx.inl
;	COMDAT ?AssertValid@CObject@@UBEXXZ
_TEXT	SEGMENT
?AssertValid@CObject@@UBEXXZ PROC			; CObject::AssertValid, COMDAT
; _this$ = ecx

; 120  : 	{ /* no asserts in release builds */ }

  00000	c2 00 00	 ret	 0
?AssertValid@CObject@@UBEXXZ ENDP			; CObject::AssertValid
_TEXT	ENDS
; Function compile flags: /Ogtp
; File C:\Program Files (x86)\Microsoft Visual Studio\2019\Community\VC\Tools\MSVC\14.29.30133\atlmfc\include\afx.inl
;	COMDAT ?Serialize@CObject@@UAEXAAVCArchive@@@Z
_TEXT	SEGMENT
___formal$ = 8						; size = 4
?Serialize@CObject@@UAEXAAVCArchive@@@Z PROC		; CObject::Serialize, COMDAT
; _this$ = ecx

; 106  : 	{ /* CObject does not serialize anything by default */ }

  00000	c2 04 00	 ret	 4
?Serialize@CObject@@UAEXAAVCArchive@@@Z ENDP		; CObject::Serialize
_TEXT	ENDS
; Function compile flags: /Ogtp
; File D:\git\src\IBK\IBK_DRFN\ProjSrc\SrcChartEx\ChartAddIn\ChartOutsideCustomAddIn\Include_AddIn\I003531\_ChartAddInBase.cpp
;	COMDAT ?__empty_global_delete@@YAXPAXI@Z
_TEXT	SEGMENT
___formal$ = 8						; size = 4
___formal$ = 12						; size = 4
?__empty_global_delete@@YAXPAXI@Z PROC			; __empty_global_delete, COMDAT

  00000	c2 00 00	 ret	 0
?__empty_global_delete@@YAXPAXI@Z ENDP			; __empty_global_delete
_TEXT	ENDS
; Function compile flags: /Ogtp
; File D:\git\src\IBK\IBK_DRFN\ProjSrc\SrcChartEx\ChartAddIn\ChartOutsideCustomAddIn\Include_AddIn\I003531\_ChartAddInBase.cpp
;	COMDAT ?__empty_global_delete@@YAXPAX@Z
_TEXT	SEGMENT
___formal$ = 8						; size = 4
?__empty_global_delete@@YAXPAX@Z PROC			; __empty_global_delete, COMDAT

  00000	c2 00 00	 ret	 0
?__empty_global_delete@@YAXPAX@Z ENDP			; __empty_global_delete
_TEXT	ENDS
END
