; Listing generated by Microsoft (R) Optimizing Compiler Version 19.29.30145.0 

	TITLE	D:\git\src\IBK\IBK_DRFN\#DRfn-CS\_Obj\ChartOutsideCustomAddIn\CommentObj.obj
	.686P
	.XMM
	include listing.inc
	.model	flat

INCLUDELIB MSVCRT
INCLUDELIB OLDNAMES

PUBLIC	?__empty_global_delete@@YAXPAX@Z		; __empty_global_delete
PUBLIC	?__empty_global_delete@@YAXPAXI@Z		; __empty_global_delete
PUBLIC	??0CCommentItem@@QAE@XZ				; CCommentItem::CCommentItem
PUBLIC	??1CCommentItem@@UAE@XZ				; CCommentItem::~CCommentItem
PUBLIC	?Draw@CCommentItem@@QAEXPAVCDC@@@Z		; CCommentItem::Draw
PUBLIC	?SetDate@CCommentItem@@QAEXJ@Z			; CCommentItem::SetDate
PUBLIC	?SetPosition@CCommentItem@@QAEXPAVCDC@@PAVCPoint@@@Z ; CCommentItem::SetPosition
PUBLIC	?IsInRegion@CCommentItem@@QAEHVCPoint@@@Z	; CCommentItem::IsInRegion
PUBLIC	?GetToolTipText@CCommentItem@@QAE?AV?$CStringT@DV?$StrTraitMFC_DLL@DV?$ChTraitsCRT@D@ATL@@@@@ATL@@XZ ; CCommentItem::GetToolTipText
PUBLIC	??_GCCommentItem@@UAEPAXI@Z			; CCommentItem::`scalar deleting destructor'
PUBLIC	??_7CCommentItem@@6B@				; CCommentItem::`vftable'
PUBLIC	??_C@_02KDNDDMCP@?$KB?Z@			; `string'
PUBLIC	??_C@_04NKIBGBJK@?A?x?$MA?T@			; `string'
PUBLIC	??_C@_08EAFBBLEB@?$CFd?1?$CFd?1?$CFd@		; `string'
PUBLIC	??_C@_04NGFLBEEM@?$LI?E?$LM?v@			; `string'
PUBLIC	??_C@_04CNODDAF@?$LI?E?$LF?$LF@			; `string'
PUBLIC	??_C@_02ONFJPPEA@91@				; `string'
PUBLIC	??_C@_0EE@PFLHPNGA@?$CFs?$AN?6?5?5?$LM?v?$LH?$KO?5?3?5?$CF?4f?$AN?6?5?5?$LA?$KB?$LA?$NN?5?3?5?$CFs?$AN?6@ ; `string'
PUBLIC	??_C@_0EJ@EFIJJPLE@?$CFs?5?$DM?$CFs?$DO?$AN?6?5?5?$LM?v?$LH?$KO?5?3?5?$CF?4f?$AN?6?5?5?H?$KP?$MA?$LC?5?3@ ; `string'
PUBLIC	??_R4CCommentItem@@6B@				; CCommentItem::`RTTI Complete Object Locator'
PUBLIC	??_R0?AVCCommentItem@@@8			; CCommentItem `RTTI Type Descriptor'
PUBLIC	??_R3CCommentItem@@8				; CCommentItem::`RTTI Class Hierarchy Descriptor'
PUBLIC	??_R2CCommentItem@@8				; CCommentItem::`RTTI Base Class Array'
PUBLIC	??_R1A@?0A@EA@CCommentItem@@8			; CCommentItem::`RTTI Base Class Descriptor at (0,-1,0,64)'
EXTRN	??3@YAXPAXI@Z:PROC				; operator delete
EXTRN	__imp__PtInRect@12:PROC
EXTRN	__imp_??0?$CStringT@DV?$StrTraitMFC_DLL@DV?$ChTraitsCRT@D@ATL@@@@@ATL@@QAE@XZ:PROC
EXTRN	__imp_??0?$CStringT@DV?$StrTraitMFC_DLL@DV?$ChTraitsCRT@D@ATL@@@@@ATL@@QAE@PBD@Z:PROC
EXTRN	__imp_??1?$CStringT@DV?$StrTraitMFC_DLL@DV?$ChTraitsCRT@D@ATL@@@@@ATL@@QAE@XZ:PROC
EXTRN	__imp_??4?$CStringT@DV?$StrTraitMFC_DLL@DV?$ChTraitsCRT@D@ATL@@@@@ATL@@QAEAAV01@PBD@Z:PROC
EXTRN	__imp_?Compare@?$CStringT@DV?$StrTraitMFC_DLL@DV?$ChTraitsCRT@D@ATL@@@@@ATL@@QBEHPBD@Z:PROC
EXTRN	__imp_?Mid@?$CStringT@DV?$StrTraitMFC_DLL@DV?$ChTraitsCRT@D@ATL@@@@@ATL@@QBE?AV12@HH@Z:PROC
EXTRN	__imp_?Left@?$CStringT@DV?$StrTraitMFC_DLL@DV?$ChTraitsCRT@D@ATL@@@@@ATL@@QBE?AV12@H@Z:PROC
EXTRN	__imp_?Format@?$CStringT@DV?$StrTraitMFC_DLL@DV?$ChTraitsCRT@D@ATL@@@@@ATL@@QAAXPBDZZ:PROC
EXTRN	?SetBkMode@CDC@@QAEHH@Z:PROC			; CDC::SetBkMode
EXTRN	??_ECCommentItem@@UAEPAXI@Z:PROC		; CCommentItem::`vector deleting destructor'
EXTRN	@__security_check_cookie@4:PROC
EXTRN	___CxxFrameHandler3:PROC
EXTRN	??_7type_info@@6B@:QWORD			; type_info::`vftable'
EXTRN	___security_cookie:DWORD
EXTRN	__fltused:DWORD
;	COMDAT ??_R1A@?0A@EA@CCommentItem@@8
rdata$r	SEGMENT
??_R1A@?0A@EA@CCommentItem@@8 DD FLAT:??_R0?AVCCommentItem@@@8 ; CCommentItem::`RTTI Base Class Descriptor at (0,-1,0,64)'
	DD	00H
	DD	00H
	DD	0ffffffffH
	DD	00H
	DD	040H
	DD	FLAT:??_R3CCommentItem@@8
rdata$r	ENDS
;	COMDAT ??_R2CCommentItem@@8
rdata$r	SEGMENT
??_R2CCommentItem@@8 DD FLAT:??_R1A@?0A@EA@CCommentItem@@8 ; CCommentItem::`RTTI Base Class Array'
rdata$r	ENDS
;	COMDAT ??_R3CCommentItem@@8
rdata$r	SEGMENT
??_R3CCommentItem@@8 DD 00H				; CCommentItem::`RTTI Class Hierarchy Descriptor'
	DD	00H
	DD	01H
	DD	FLAT:??_R2CCommentItem@@8
rdata$r	ENDS
;	COMDAT ??_R0?AVCCommentItem@@@8
data$rs	SEGMENT
??_R0?AVCCommentItem@@@8 DD FLAT:??_7type_info@@6B@	; CCommentItem `RTTI Type Descriptor'
	DD	00H
	DB	'.?AVCCommentItem@@', 00H
data$rs	ENDS
;	COMDAT ??_R4CCommentItem@@6B@
rdata$r	SEGMENT
??_R4CCommentItem@@6B@ DD 00H				; CCommentItem::`RTTI Complete Object Locator'
	DD	00H
	DD	00H
	DD	FLAT:??_R0?AVCCommentItem@@@8
	DD	FLAT:??_R3CCommentItem@@8
rdata$r	ENDS
;	COMDAT ??_C@_0EJ@EFIJJPLE@?$CFs?5?$DM?$CFs?$DO?$AN?6?5?5?$LM?v?$LH?$KO?5?3?5?$CF?4f?$AN?6?5?5?H?$KP?$MA?$LC?5?3@
CONST	SEGMENT
??_C@_0EJ@EFIJJPLE@?$CFs?5?$DM?$CFs?$DO?$AN?6?5?5?$LM?v?$LH?$KO?5?3?5?$CF?4f?$AN?6?5?5?H?$KP?$MA?$LC?5?3@ DB '%'
	DB	's <%s>', 0dH, 0aH, '  ', 0bcH, 0f6H, 0b7H, 0aeH, ' : %.f', 0dH
	DB	0aH, '  ', 0c8H, 0afH, 0c0H, 0b2H, ' : %s', 0dH, 0aH, '  ', 0bdH
	DB	0c3H, 0b0H, 0a3H, ' : %4s/%2s/%2s-%2s:%2s:%2s  ', 0dH, 0aH, 00H ; `string'
CONST	ENDS
;	COMDAT ??_C@_0EE@PFLHPNGA@?$CFs?$AN?6?5?5?$LM?v?$LH?$KO?5?3?5?$CF?4f?$AN?6?5?5?$LA?$KB?$LA?$NN?5?3?5?$CFs?$AN?6@
CONST	SEGMENT
??_C@_0EE@PFLHPNGA@?$CFs?$AN?6?5?5?$LM?v?$LH?$KO?5?3?5?$CF?4f?$AN?6?5?5?$LA?$KB?$LA?$NN?5?3?5?$CFs?$AN?6@ DB '%'
	DB	's', 0dH, 0aH, '  ', 0bcH, 0f6H, 0b7H, 0aeH, ' : %.f', 0dH, 0aH
	DB	'  ', 0b0H, 0a1H, 0b0H, 0ddH, ' : %s', 0dH, 0aH, '  ', 0bdH, 0c3H
	DB	0b0H, 0a3H, ' : %4s/%2s/%2s-%2s:%2s:%2s  ', 0dH, 0aH, 00H ; `string'
CONST	ENDS
;	COMDAT ??_C@_02ONFJPPEA@91@
CONST	SEGMENT
??_C@_02ONFJPPEA@91@ DB '91', 00H			; `string'
CONST	ENDS
;	COMDAT ??_C@_04CNODDAF@?$LI?E?$LF?$LF@
CONST	SEGMENT
??_C@_04CNODDAF@?$LI?E?$LF?$LF@ DB 0b8H, 0c5H, 0b5H, 0b5H, 00H ; `string'
CONST	ENDS
;	COMDAT ??_C@_04NGFLBEEM@?$LI?E?$LM?v@
CONST	SEGMENT
??_C@_04NGFLBEEM@?$LI?E?$LM?v@ DB 0b8H, 0c5H, 0bcH, 0f6H, 00H ; `string'
CONST	ENDS
;	COMDAT ??_C@_08EAFBBLEB@?$CFd?1?$CFd?1?$CFd@
CONST	SEGMENT
??_C@_08EAFBBLEB@?$CFd?1?$CFd?1?$CFd@ DB '%d/%d/%d', 00H ; `string'
CONST	ENDS
;	COMDAT ??_C@_04NKIBGBJK@?A?x?$MA?T@
CONST	SEGMENT
??_C@_04NKIBGBJK@?A?x?$MA?T@ DB 0c1H, 0f8H, 0c0H, 0d4H, 00H ; `string'
CONST	ENDS
;	COMDAT ??_C@_02KDNDDMCP@?$KB?Z@
CONST	SEGMENT
??_C@_02KDNDDMCP@?$KB?Z@ DB 0a1H, 0daH, 00H		; `string'
CONST	ENDS
;	COMDAT ??_7CCommentItem@@6B@
CONST	SEGMENT
??_7CCommentItem@@6B@ DD FLAT:??_R4CCommentItem@@6B@	; CCommentItem::`vftable'
	DD	FLAT:??_ECCommentItem@@UAEPAXI@Z
CONST	ENDS
;	COMDAT xdata$x
xdata$x	SEGMENT
__ehfuncinfo$?GetToolTipText@CCommentItem@@QAE?AV?$CStringT@DV?$StrTraitMFC_DLL@DV?$ChTraitsCRT@D@ATL@@@@@ATL@@XZ DD 019930522H
	DD	0eH
	DD	FLAT:__unwindtable$?GetToolTipText@CCommentItem@@QAE?AV?$CStringT@DV?$StrTraitMFC_DLL@DV?$ChTraitsCRT@D@ATL@@@@@ATL@@XZ
	DD	2 DUP(00H)
	DD	2 DUP(00H)
	DD	00H
	DD	01H
__unwindtable$?GetToolTipText@CCommentItem@@QAE?AV?$CStringT@DV?$StrTraitMFC_DLL@DV?$ChTraitsCRT@D@ATL@@@@@ATL@@XZ DD 0ffffffffH
	DD	FLAT:__unwindfunclet$?GetToolTipText@CCommentItem@@QAE?AV?$CStringT@DV?$StrTraitMFC_DLL@DV?$ChTraitsCRT@D@ATL@@@@@ATL@@XZ$0
	DD	00H
	DD	FLAT:__unwindfunclet$?GetToolTipText@CCommentItem@@QAE?AV?$CStringT@DV?$StrTraitMFC_DLL@DV?$ChTraitsCRT@D@ATL@@@@@ATL@@XZ$1
	DD	01H
	DD	FLAT:__unwindfunclet$?GetToolTipText@CCommentItem@@QAE?AV?$CStringT@DV?$StrTraitMFC_DLL@DV?$ChTraitsCRT@D@ATL@@@@@ATL@@XZ$2
	DD	02H
	DD	FLAT:__unwindfunclet$?GetToolTipText@CCommentItem@@QAE?AV?$CStringT@DV?$StrTraitMFC_DLL@DV?$ChTraitsCRT@D@ATL@@@@@ATL@@XZ$3
	DD	03H
	DD	FLAT:__unwindfunclet$?GetToolTipText@CCommentItem@@QAE?AV?$CStringT@DV?$StrTraitMFC_DLL@DV?$ChTraitsCRT@D@ATL@@@@@ATL@@XZ$4
	DD	04H
	DD	FLAT:__unwindfunclet$?GetToolTipText@CCommentItem@@QAE?AV?$CStringT@DV?$StrTraitMFC_DLL@DV?$ChTraitsCRT@D@ATL@@@@@ATL@@XZ$5
	DD	05H
	DD	FLAT:__unwindfunclet$?GetToolTipText@CCommentItem@@QAE?AV?$CStringT@DV?$StrTraitMFC_DLL@DV?$ChTraitsCRT@D@ATL@@@@@ATL@@XZ$6
	DD	06H
	DD	FLAT:__unwindfunclet$?GetToolTipText@CCommentItem@@QAE?AV?$CStringT@DV?$StrTraitMFC_DLL@DV?$ChTraitsCRT@D@ATL@@@@@ATL@@XZ$7
	DD	01H
	DD	FLAT:__unwindfunclet$?GetToolTipText@CCommentItem@@QAE?AV?$CStringT@DV?$StrTraitMFC_DLL@DV?$ChTraitsCRT@D@ATL@@@@@ATL@@XZ$8
	DD	08H
	DD	FLAT:__unwindfunclet$?GetToolTipText@CCommentItem@@QAE?AV?$CStringT@DV?$StrTraitMFC_DLL@DV?$ChTraitsCRT@D@ATL@@@@@ATL@@XZ$9
	DD	09H
	DD	FLAT:__unwindfunclet$?GetToolTipText@CCommentItem@@QAE?AV?$CStringT@DV?$StrTraitMFC_DLL@DV?$ChTraitsCRT@D@ATL@@@@@ATL@@XZ$10
	DD	0aH
	DD	FLAT:__unwindfunclet$?GetToolTipText@CCommentItem@@QAE?AV?$CStringT@DV?$StrTraitMFC_DLL@DV?$ChTraitsCRT@D@ATL@@@@@ATL@@XZ$11
	DD	0bH
	DD	FLAT:__unwindfunclet$?GetToolTipText@CCommentItem@@QAE?AV?$CStringT@DV?$StrTraitMFC_DLL@DV?$ChTraitsCRT@D@ATL@@@@@ATL@@XZ$12
	DD	0cH
	DD	FLAT:__unwindfunclet$?GetToolTipText@CCommentItem@@QAE?AV?$CStringT@DV?$StrTraitMFC_DLL@DV?$ChTraitsCRT@D@ATL@@@@@ATL@@XZ$13
xdata$x	ENDS
;	COMDAT xdata$x
xdata$x	SEGMENT
__unwindtable$?Draw@CCommentItem@@QAEXPAVCDC@@@Z DD 0ffffffffH
	DD	FLAT:__unwindfunclet$?Draw@CCommentItem@@QAEXPAVCDC@@@Z$0
	DD	00H
	DD	FLAT:__unwindfunclet$?Draw@CCommentItem@@QAEXPAVCDC@@@Z$1
	DD	00H
	DD	FLAT:__unwindfunclet$?Draw@CCommentItem@@QAEXPAVCDC@@@Z$2
__ehfuncinfo$?Draw@CCommentItem@@QAEXPAVCDC@@@Z DD 019930522H
	DD	03H
	DD	FLAT:__unwindtable$?Draw@CCommentItem@@QAEXPAVCDC@@@Z
	DD	2 DUP(00H)
	DD	2 DUP(00H)
	DD	00H
	DD	01H
xdata$x	ENDS
; Function compile flags: /Ogtp
; File D:\git\src\IBK\IBK_DRFN\ProjSrc\SrcChartEx\ChartAddIn\ChartOutsideCustomAddIn\ChartOutsideCustomAddIn\CommentObj.cpp
;	COMDAT ??_GCCommentItem@@UAEPAXI@Z
_TEXT	SEGMENT
___flags$ = 8						; size = 4
??_GCCommentItem@@UAEPAXI@Z PROC			; CCommentItem::`scalar deleting destructor', COMDAT
; _this$ = ecx
  00000	55		 push	 ebp
  00001	8b ec		 mov	 ebp, esp

; 23   : {

  00003	56		 push	 esi
  00004	8b f1		 mov	 esi, ecx

; 24   : }

  00006	8d 4e 30	 lea	 ecx, DWORD PTR [esi+48]
  00009	c7 06 00 00 00
	00		 mov	 DWORD PTR [esi], OFFSET ??_7CCommentItem@@6B@
  0000f	ff 15 00 00 00
	00		 call	 DWORD PTR __imp_??1?$CStringT@DV?$StrTraitMFC_DLL@DV?$ChTraitsCRT@D@ATL@@@@@ATL@@QAE@XZ
  00015	8d 4e 2c	 lea	 ecx, DWORD PTR [esi+44]
  00018	ff 15 00 00 00
	00		 call	 DWORD PTR __imp_??1?$CStringT@DV?$StrTraitMFC_DLL@DV?$ChTraitsCRT@D@ATL@@@@@ATL@@QAE@XZ
  0001e	8d 4e 28	 lea	 ecx, DWORD PTR [esi+40]
  00021	ff 15 00 00 00
	00		 call	 DWORD PTR __imp_??1?$CStringT@DV?$StrTraitMFC_DLL@DV?$ChTraitsCRT@D@ATL@@@@@ATL@@QAE@XZ
  00027	8d 4e 1c	 lea	 ecx, DWORD PTR [esi+28]
  0002a	ff 15 00 00 00
	00		 call	 DWORD PTR __imp_??1?$CStringT@DV?$StrTraitMFC_DLL@DV?$ChTraitsCRT@D@ATL@@@@@ATL@@QAE@XZ
  00030	8d 4e 14	 lea	 ecx, DWORD PTR [esi+20]
  00033	ff 15 00 00 00
	00		 call	 DWORD PTR __imp_??1?$CStringT@DV?$StrTraitMFC_DLL@DV?$ChTraitsCRT@D@ATL@@@@@ATL@@QAE@XZ
  00039	8d 4e 10	 lea	 ecx, DWORD PTR [esi+16]
  0003c	ff 15 00 00 00
	00		 call	 DWORD PTR __imp_??1?$CStringT@DV?$StrTraitMFC_DLL@DV?$ChTraitsCRT@D@ATL@@@@@ATL@@QAE@XZ
  00042	8d 4e 0c	 lea	 ecx, DWORD PTR [esi+12]
  00045	ff 15 00 00 00
	00		 call	 DWORD PTR __imp_??1?$CStringT@DV?$StrTraitMFC_DLL@DV?$ChTraitsCRT@D@ATL@@@@@ATL@@QAE@XZ
  0004b	f6 45 08 01	 test	 BYTE PTR ___flags$[ebp], 1
  0004f	74 0b		 je	 SHORT $LN7@scalar
  00051	6a 48		 push	 72			; 00000048H
  00053	56		 push	 esi
  00054	e8 00 00 00 00	 call	 ??3@YAXPAXI@Z		; operator delete
  00059	83 c4 08	 add	 esp, 8
$LN7@scalar:
  0005c	8b c6		 mov	 eax, esi
  0005e	5e		 pop	 esi
  0005f	5d		 pop	 ebp
  00060	c2 04 00	 ret	 4
??_GCCommentItem@@UAEPAXI@Z ENDP			; CCommentItem::`scalar deleting destructor'
_TEXT	ENDS
; Function compile flags: /Ogtp
; File D:\git\src\IBK\IBK_DRFN\ProjSrc\SrcChartEx\ChartAddIn\ChartOutsideCustomAddIn\ChartOutsideCustomAddIn\CommentObj.cpp
; File C:\Program Files (x86)\Microsoft Visual Studio\2019\Community\VC\Tools\MSVC\14.29.30133\atlmfc\include\cstringt.h
; File D:\git\src\IBK\IBK_DRFN\ProjSrc\SrcChartEx\ChartAddIn\ChartOutsideCustomAddIn\ChartOutsideCustomAddIn\CommentObj.cpp
; File C:\Program Files (x86)\Microsoft Visual Studio\2019\Community\VC\Tools\MSVC\14.29.30133\atlmfc\include\cstringt.h
; File D:\git\src\IBK\IBK_DRFN\ProjSrc\SrcChartEx\ChartAddIn\ChartOutsideCustomAddIn\ChartOutsideCustomAddIn\CommentObj.cpp
; File C:\Program Files (x86)\Microsoft Visual Studio\2019\Community\VC\Tools\MSVC\14.29.30133\atlmfc\include\cstringt.h
; File D:\git\src\IBK\IBK_DRFN\ProjSrc\SrcChartEx\ChartAddIn\ChartOutsideCustomAddIn\ChartOutsideCustomAddIn\CommentObj.cpp
;	COMDAT ?GetToolTipText@CCommentItem@@QAE?AV?$CStringT@DV?$StrTraitMFC_DLL@DV?$ChTraitsCRT@D@ATL@@@@@ATL@@XZ
_TEXT	SEGMENT
tv336 = -60						; size = 4
$T2 = -60						; size = 4
tv335 = -56						; size = 4
$T3 = -56						; size = 4
$T4 = -52						; size = 4
$T5 = -52						; size = 4
$T6 = -48						; size = 4
$T7 = -48						; size = 4
$T8 = -44						; size = 4
$T9 = -44						; size = 4
$T10 = -40						; size = 4
$T11 = -40						; size = 4
tv341 = -36						; size = 4
$T12 = -36						; size = 4
tv342 = -32						; size = 4
$T13 = -32						; size = 4
$T14 = -28						; size = 4
_this$1$ = -24						; size = 4
tv330 = -20						; size = 4
_strSide$ = -16						; size = 4
__$EHRec$ = -12						; size = 12
___$ReturnUdt$ = 8					; size = 4
?GetToolTipText@CCommentItem@@QAE?AV?$CStringT@DV?$StrTraitMFC_DLL@DV?$ChTraitsCRT@D@ATL@@@@@ATL@@XZ PROC ; CCommentItem::GetToolTipText, COMDAT
; _this$ = ecx

; 126  : {

  00000	55		 push	 ebp
  00001	8b ec		 mov	 ebp, esp
  00003	6a ff		 push	 -1
  00005	68 00 00 00 00	 push	 __ehhandler$?GetToolTipText@CCommentItem@@QAE?AV?$CStringT@DV?$StrTraitMFC_DLL@DV?$ChTraitsCRT@D@ATL@@@@@ATL@@XZ
  0000a	64 a1 00 00 00
	00		 mov	 eax, DWORD PTR fs:0
  00010	50		 push	 eax
  00011	83 ec 30	 sub	 esp, 48			; 00000030H
  00014	53		 push	 ebx
  00015	56		 push	 esi
  00016	57		 push	 edi
  00017	a1 00 00 00 00	 mov	 eax, DWORD PTR ___security_cookie
  0001c	33 c5		 xor	 eax, ebp
  0001e	50		 push	 eax
  0001f	8d 45 f4	 lea	 eax, DWORD PTR __$EHRec$[ebp]
  00022	64 a3 00 00 00
	00		 mov	 DWORD PTR fs:0, eax
  00028	8b d9		 mov	 ebx, ecx
  0002a	89 5d e8	 mov	 DWORD PTR _this$1$[ebp], ebx
  0002d	c7 45 e4 00 00
	00 00		 mov	 DWORD PTR $T14[ebp], 0

; 127  : 	CString strToolTip;

  00034	8b 4d 08	 mov	 ecx, DWORD PTR ___$ReturnUdt$[ebp]
  00037	ff 15 00 00 00
	00		 call	 DWORD PTR __imp_??0?$CStringT@DV?$StrTraitMFC_DLL@DV?$ChTraitsCRT@D@ATL@@@@@ATL@@QAE@XZ

; 142  : 							m_strComment,
; 143  : 							strSide,
; 144  : 							m_fAmount,
; 145  : 							m_strPrice,
; 146  : 							m_strDateTime.Left(4), m_strDateTime.Mid(4,2), m_strDateTime.Mid(6,2),
; 147  : 							m_strDateTime.Mid(8,2), m_strDateTime.Mid(10,2), m_strDateTime.Mid(12,2));
; 148  : 	return strToolTip;

  0003d	8d 4d f0	 lea	 ecx, DWORD PTR _strSide$[ebp]
  00040	c7 45 e4 01 00
	00 00		 mov	 DWORD PTR $T14[ebp], 1
  00047	ff 15 00 00 00
	00		 call	 DWORD PTR __imp_??0?$CStringT@DV?$StrTraitMFC_DLL@DV?$ChTraitsCRT@D@ATL@@@@@ATL@@QAE@XZ
  0004d	83 7b 18 00	 cmp	 DWORD PTR [ebx+24], 0
  00051	8d 4d f0	 lea	 ecx, DWORD PTR _strSide$[ebp]
  00054	c7 45 fc 01 00
	00 00		 mov	 DWORD PTR __$EHRec$[ebp+8], 1
  0005b	74 07		 je	 SHORT $LN2@GetToolTip

; 128  : 	CString strSide;
; 129  : 
; 130  : 	if( m_bBuy )		strSide = "매수";

  0005d	68 00 00 00 00	 push	 OFFSET ??_C@_04NGFLBEEM@?$LI?E?$LM?v@
  00062	eb 05		 jmp	 SHORT $LN25@GetToolTip
$LN2@GetToolTip:

; 131  : 	else				strSide = "매도";	

  00064	68 00 00 00 00	 push	 OFFSET ??_C@_04CNODDAF@?$LI?E?$LF?$LF@
$LN25@GetToolTip:
; File C:\Program Files (x86)\Microsoft Visual Studio\2019\Community\VC\Tools\MSVC\14.29.30133\atlmfc\include\cstringt.h

; 2486 : 		return(str1.Compare(psz2) == 0);

  00069	ff 15 00 00 00
	00		 call	 DWORD PTR __imp_??4?$CStringT@DV?$StrTraitMFC_DLL@DV?$ChTraitsCRT@D@ATL@@@@@ATL@@QAEAAV01@PBD@Z
  0006f	8d 73 10	 lea	 esi, DWORD PTR [ebx+16]
  00072	68 00 00 00 00	 push	 OFFSET ??_C@_02ONFJPPEA@91@
; File D:\git\src\IBK\IBK_DRFN\ProjSrc\SrcChartEx\ChartAddIn\ChartOutsideCustomAddIn\ChartOutsideCustomAddIn\CommentObj.cpp

; 133  : 	if( m_strTradeType == "91" )

  00077	8d 4b 0c	 lea	 ecx, DWORD PTR [ebx+12]
; File C:\Program Files (x86)\Microsoft Visual Studio\2019\Community\VC\Tools\MSVC\14.29.30133\atlmfc\include\cstringt.h

; 2486 : 		return(str1.Compare(psz2) == 0);

  0007a	89 75 ec	 mov	 DWORD PTR tv330[ebp], esi
  0007d	ff 15 00 00 00
	00		 call	 DWORD PTR __imp_?Compare@?$CStringT@DV?$StrTraitMFC_DLL@DV?$ChTraitsCRT@D@ATL@@@@@ATL@@QBEHPBD@Z
; File D:\git\src\IBK\IBK_DRFN\ProjSrc\SrcChartEx\ChartAddIn\ChartOutsideCustomAddIn\ChartOutsideCustomAddIn\CommentObj.cpp

; 133  : 	if( m_strTradeType == "91" )

  00083	8b ce		 mov	 ecx, esi
  00085	6a 02		 push	 2
  00087	6a 0c		 push	 12			; 0000000cH
; File C:\Program Files (x86)\Microsoft Visual Studio\2019\Community\VC\Tools\MSVC\14.29.30133\atlmfc\include\cstringt.h

; 2486 : 		return(str1.Compare(psz2) == 0);

  00089	85 c0		 test	 eax, eax
; File D:\git\src\IBK\IBK_DRFN\ProjSrc\SrcChartEx\ChartAddIn\ChartOutsideCustomAddIn\ChartOutsideCustomAddIn\CommentObj.cpp

; 133  : 	if( m_strTradeType == "91" )

  0008b	0f 85 ec 00 00
	00		 jne	 $LN4@GetToolTip

; 134  : 		strToolTip.Format("%s\r\n  수량 : %.f\r\n  가격 : %s\r\n  시간 : %4s/%2s/%2s-%2s:%2s:%2s  \r\n", 

  00091	8d 45 c4	 lea	 eax, DWORD PTR $T2[ebp]
  00094	50		 push	 eax
  00095	ff 15 00 00 00
	00		 call	 DWORD PTR __imp_?Mid@?$CStringT@DV?$StrTraitMFC_DLL@DV?$ChTraitsCRT@D@ATL@@@@@ATL@@QBE?AV12@HH@Z
  0009b	89 45 e0	 mov	 DWORD PTR tv342[ebp], eax
  0009e	6a 02		 push	 2
  000a0	6a 0a		 push	 10			; 0000000aH
  000a2	8d 45 c8	 lea	 eax, DWORD PTR $T3[ebp]
  000a5	c6 45 fc 02	 mov	 BYTE PTR __$EHRec$[ebp+8], 2
  000a9	50		 push	 eax
  000aa	8b ce		 mov	 ecx, esi
  000ac	ff 15 00 00 00
	00		 call	 DWORD PTR __imp_?Mid@?$CStringT@DV?$StrTraitMFC_DLL@DV?$ChTraitsCRT@D@ATL@@@@@ATL@@QBE?AV12@HH@Z
  000b2	89 45 dc	 mov	 DWORD PTR tv341[ebp], eax
  000b5	6a 02		 push	 2
  000b7	6a 08		 push	 8
  000b9	8d 45 cc	 lea	 eax, DWORD PTR $T5[ebp]
  000bc	c6 45 fc 03	 mov	 BYTE PTR __$EHRec$[ebp+8], 3
  000c0	50		 push	 eax
  000c1	8b ce		 mov	 ecx, esi
  000c3	ff 15 00 00 00
	00		 call	 DWORD PTR __imp_?Mid@?$CStringT@DV?$StrTraitMFC_DLL@DV?$ChTraitsCRT@D@ATL@@@@@ATL@@QBE?AV12@HH@Z
  000c9	8b d8		 mov	 ebx, eax
  000cb	6a 02		 push	 2
  000cd	6a 06		 push	 6
  000cf	8d 45 d0	 lea	 eax, DWORD PTR $T7[ebp]
  000d2	c6 45 fc 04	 mov	 BYTE PTR __$EHRec$[ebp+8], 4
  000d6	50		 push	 eax
  000d7	8b ce		 mov	 ecx, esi
  000d9	ff 15 00 00 00
	00		 call	 DWORD PTR __imp_?Mid@?$CStringT@DV?$StrTraitMFC_DLL@DV?$ChTraitsCRT@D@ATL@@@@@ATL@@QBE?AV12@HH@Z
  000df	8b f8		 mov	 edi, eax
  000e1	6a 02		 push	 2
  000e3	6a 04		 push	 4
  000e5	8d 45 d4	 lea	 eax, DWORD PTR $T9[ebp]
  000e8	c6 45 fc 05	 mov	 BYTE PTR __$EHRec$[ebp+8], 5
  000ec	50		 push	 eax
  000ed	8b ce		 mov	 ecx, esi
  000ef	ff 15 00 00 00
	00		 call	 DWORD PTR __imp_?Mid@?$CStringT@DV?$StrTraitMFC_DLL@DV?$ChTraitsCRT@D@ATL@@@@@ATL@@QBE?AV12@HH@Z
  000f5	8b f0		 mov	 esi, eax
  000f7	8b 4d ec	 mov	 ecx, DWORD PTR tv330[ebp]
  000fa	8d 45 d8	 lea	 eax, DWORD PTR $T11[ebp]
  000fd	6a 04		 push	 4
  000ff	50		 push	 eax
  00100	c6 45 fc 06	 mov	 BYTE PTR __$EHRec$[ebp+8], 6
  00104	ff 15 00 00 00
	00		 call	 DWORD PTR __imp_?Left@?$CStringT@DV?$StrTraitMFC_DLL@DV?$ChTraitsCRT@D@ATL@@@@@ATL@@QBE?AV12@H@Z
  0010a	8b 4d e0	 mov	 ecx, DWORD PTR tv342[ebp]
  0010d	c6 45 fc 07	 mov	 BYTE PTR __$EHRec$[ebp+8], 7
  00111	ff 31		 push	 DWORD PTR [ecx]
  00113	8b 4d dc	 mov	 ecx, DWORD PTR tv341[ebp]
  00116	ff 31		 push	 DWORD PTR [ecx]
  00118	ff 33		 push	 DWORD PTR [ebx]
  0011a	ff 37		 push	 DWORD PTR [edi]
  0011c	ff 36		 push	 DWORD PTR [esi]
  0011e	8b 75 08	 mov	 esi, DWORD PTR ___$ReturnUdt$[ebp]
  00121	ff 30		 push	 DWORD PTR [eax]
  00123	8b 45 e8	 mov	 eax, DWORD PTR _this$1$[ebp]
  00126	ff 70 1c	 push	 DWORD PTR [eax+28]
  00129	f2 0f 10 40 20	 movsd	 xmm0, QWORD PTR [eax+32]
  0012e	83 ec 08	 sub	 esp, 8
  00131	f2 0f 11 04 24	 movsd	 QWORD PTR [esp], xmm0
  00136	ff 75 f0	 push	 DWORD PTR _strSide$[ebp]
  00139	68 00 00 00 00	 push	 OFFSET ??_C@_0EE@PFLHPNGA@?$CFs?$AN?6?5?5?$LM?v?$LH?$KO?5?3?5?$CF?4f?$AN?6?5?5?$LA?$KB?$LA?$NN?5?3?5?$CFs?$AN?6@
  0013e	56		 push	 esi
  0013f	ff 15 00 00 00
	00		 call	 DWORD PTR __imp_?Format@?$CStringT@DV?$StrTraitMFC_DLL@DV?$ChTraitsCRT@D@ATL@@@@@ATL@@QAAXPBDZZ
  00145	83 c4 30	 add	 esp, 48			; 00000030H
  00148	8d 4d d8	 lea	 ecx, DWORD PTR $T11[ebp]
  0014b	ff 15 00 00 00
	00		 call	 DWORD PTR __imp_??1?$CStringT@DV?$StrTraitMFC_DLL@DV?$ChTraitsCRT@D@ATL@@@@@ATL@@QAE@XZ
  00151	8d 4d d4	 lea	 ecx, DWORD PTR $T9[ebp]
  00154	ff 15 00 00 00
	00		 call	 DWORD PTR __imp_??1?$CStringT@DV?$StrTraitMFC_DLL@DV?$ChTraitsCRT@D@ATL@@@@@ATL@@QAE@XZ
  0015a	8d 4d d0	 lea	 ecx, DWORD PTR $T7[ebp]
  0015d	ff 15 00 00 00
	00		 call	 DWORD PTR __imp_??1?$CStringT@DV?$StrTraitMFC_DLL@DV?$ChTraitsCRT@D@ATL@@@@@ATL@@QAE@XZ
  00163	8d 4d cc	 lea	 ecx, DWORD PTR $T5[ebp]
  00166	ff 15 00 00 00
	00		 call	 DWORD PTR __imp_??1?$CStringT@DV?$StrTraitMFC_DLL@DV?$ChTraitsCRT@D@ATL@@@@@ATL@@QAE@XZ
  0016c	8d 4d c8	 lea	 ecx, DWORD PTR $T3[ebp]
  0016f	ff 15 00 00 00
	00		 call	 DWORD PTR __imp_??1?$CStringT@DV?$StrTraitMFC_DLL@DV?$ChTraitsCRT@D@ATL@@@@@ATL@@QAE@XZ
  00175	8d 4d c4	 lea	 ecx, DWORD PTR $T2[ebp]
  00178	e9 ea 00 00 00	 jmp	 $LN26@GetToolTip
$LN4@GetToolTip:

; 135  : 							strSide,
; 136  : 							m_fAmount,
; 137  : 							m_strPrice,
; 138  : 							m_strDateTime.Left(4), m_strDateTime.Mid(4,2), m_strDateTime.Mid(6,2),
; 139  : 							m_strDateTime.Mid(8,2), m_strDateTime.Mid(10,2), m_strDateTime.Mid(12,2));
; 140  : 	else
; 141  : 		strToolTip.Format("%s <%s>\r\n  수량 : %.f\r\n  환율 : %s\r\n  시간 : %4s/%2s/%2s-%2s:%2s:%2s  \r\n", 

  0017d	8d 45 e0	 lea	 eax, DWORD PTR $T13[ebp]
  00180	50		 push	 eax
  00181	ff 15 00 00 00
	00		 call	 DWORD PTR __imp_?Mid@?$CStringT@DV?$StrTraitMFC_DLL@DV?$ChTraitsCRT@D@ATL@@@@@ATL@@QBE?AV12@HH@Z
  00187	89 45 c4	 mov	 DWORD PTR tv336[ebp], eax
  0018a	6a 02		 push	 2
  0018c	6a 0a		 push	 10			; 0000000aH
  0018e	8d 45 dc	 lea	 eax, DWORD PTR $T12[ebp]
  00191	c6 45 fc 08	 mov	 BYTE PTR __$EHRec$[ebp+8], 8
  00195	50		 push	 eax
  00196	8b ce		 mov	 ecx, esi
  00198	ff 15 00 00 00
	00		 call	 DWORD PTR __imp_?Mid@?$CStringT@DV?$StrTraitMFC_DLL@DV?$ChTraitsCRT@D@ATL@@@@@ATL@@QBE?AV12@HH@Z
  0019e	89 45 c8	 mov	 DWORD PTR tv335[ebp], eax
  001a1	6a 02		 push	 2
  001a3	6a 08		 push	 8
  001a5	8d 45 d8	 lea	 eax, DWORD PTR $T10[ebp]
  001a8	c6 45 fc 09	 mov	 BYTE PTR __$EHRec$[ebp+8], 9
  001ac	50		 push	 eax
  001ad	8b ce		 mov	 ecx, esi
  001af	ff 15 00 00 00
	00		 call	 DWORD PTR __imp_?Mid@?$CStringT@DV?$StrTraitMFC_DLL@DV?$ChTraitsCRT@D@ATL@@@@@ATL@@QBE?AV12@HH@Z
  001b5	8b d8		 mov	 ebx, eax
  001b7	6a 02		 push	 2
  001b9	6a 06		 push	 6
  001bb	8d 45 d4	 lea	 eax, DWORD PTR $T8[ebp]
  001be	c6 45 fc 0a	 mov	 BYTE PTR __$EHRec$[ebp+8], 10 ; 0000000aH
  001c2	50		 push	 eax
  001c3	8b ce		 mov	 ecx, esi
  001c5	ff 15 00 00 00
	00		 call	 DWORD PTR __imp_?Mid@?$CStringT@DV?$StrTraitMFC_DLL@DV?$ChTraitsCRT@D@ATL@@@@@ATL@@QBE?AV12@HH@Z
  001cb	8b f8		 mov	 edi, eax
  001cd	6a 02		 push	 2
  001cf	6a 04		 push	 4
  001d1	8d 45 d0	 lea	 eax, DWORD PTR $T6[ebp]
  001d4	c6 45 fc 0b	 mov	 BYTE PTR __$EHRec$[ebp+8], 11 ; 0000000bH
  001d8	50		 push	 eax
  001d9	8b ce		 mov	 ecx, esi
  001db	ff 15 00 00 00
	00		 call	 DWORD PTR __imp_?Mid@?$CStringT@DV?$StrTraitMFC_DLL@DV?$ChTraitsCRT@D@ATL@@@@@ATL@@QBE?AV12@HH@Z
  001e1	8b f0		 mov	 esi, eax
  001e3	8b 4d ec	 mov	 ecx, DWORD PTR tv330[ebp]
  001e6	8d 45 cc	 lea	 eax, DWORD PTR $T4[ebp]
  001e9	6a 04		 push	 4
  001eb	50		 push	 eax
  001ec	c6 45 fc 0c	 mov	 BYTE PTR __$EHRec$[ebp+8], 12 ; 0000000cH
  001f0	ff 15 00 00 00
	00		 call	 DWORD PTR __imp_?Left@?$CStringT@DV?$StrTraitMFC_DLL@DV?$ChTraitsCRT@D@ATL@@@@@ATL@@QBE?AV12@H@Z
  001f6	8b 4d c4	 mov	 ecx, DWORD PTR tv336[ebp]
  001f9	c6 45 fc 0d	 mov	 BYTE PTR __$EHRec$[ebp+8], 13 ; 0000000dH
  001fd	ff 31		 push	 DWORD PTR [ecx]
  001ff	8b 4d c8	 mov	 ecx, DWORD PTR tv335[ebp]
  00202	ff 31		 push	 DWORD PTR [ecx]
  00204	ff 33		 push	 DWORD PTR [ebx]
  00206	ff 37		 push	 DWORD PTR [edi]
  00208	ff 36		 push	 DWORD PTR [esi]
  0020a	8b 75 08	 mov	 esi, DWORD PTR ___$ReturnUdt$[ebp]
  0020d	ff 30		 push	 DWORD PTR [eax]
  0020f	8b 45 e8	 mov	 eax, DWORD PTR _this$1$[ebp]
  00212	ff 70 1c	 push	 DWORD PTR [eax+28]
  00215	f2 0f 10 40 20	 movsd	 xmm0, QWORD PTR [eax+32]
  0021a	83 ec 08	 sub	 esp, 8
  0021d	f2 0f 11 04 24	 movsd	 QWORD PTR [esp], xmm0
  00222	ff 75 f0	 push	 DWORD PTR _strSide$[ebp]
  00225	ff 70 14	 push	 DWORD PTR [eax+20]
  00228	68 00 00 00 00	 push	 OFFSET ??_C@_0EJ@EFIJJPLE@?$CFs?5?$DM?$CFs?$DO?$AN?6?5?5?$LM?v?$LH?$KO?5?3?5?$CF?4f?$AN?6?5?5?H?$KP?$MA?$LC?5?3@
  0022d	56		 push	 esi
  0022e	ff 15 00 00 00
	00		 call	 DWORD PTR __imp_?Format@?$CStringT@DV?$StrTraitMFC_DLL@DV?$ChTraitsCRT@D@ATL@@@@@ATL@@QAAXPBDZZ
  00234	83 c4 34	 add	 esp, 52			; 00000034H
  00237	8d 4d cc	 lea	 ecx, DWORD PTR $T4[ebp]
  0023a	ff 15 00 00 00
	00		 call	 DWORD PTR __imp_??1?$CStringT@DV?$StrTraitMFC_DLL@DV?$ChTraitsCRT@D@ATL@@@@@ATL@@QAE@XZ
  00240	8d 4d d0	 lea	 ecx, DWORD PTR $T6[ebp]
  00243	ff 15 00 00 00
	00		 call	 DWORD PTR __imp_??1?$CStringT@DV?$StrTraitMFC_DLL@DV?$ChTraitsCRT@D@ATL@@@@@ATL@@QAE@XZ
  00249	8d 4d d4	 lea	 ecx, DWORD PTR $T8[ebp]
  0024c	ff 15 00 00 00
	00		 call	 DWORD PTR __imp_??1?$CStringT@DV?$StrTraitMFC_DLL@DV?$ChTraitsCRT@D@ATL@@@@@ATL@@QAE@XZ
  00252	8d 4d d8	 lea	 ecx, DWORD PTR $T10[ebp]
  00255	ff 15 00 00 00
	00		 call	 DWORD PTR __imp_??1?$CStringT@DV?$StrTraitMFC_DLL@DV?$ChTraitsCRT@D@ATL@@@@@ATL@@QAE@XZ
  0025b	8d 4d dc	 lea	 ecx, DWORD PTR $T12[ebp]
  0025e	ff 15 00 00 00
	00		 call	 DWORD PTR __imp_??1?$CStringT@DV?$StrTraitMFC_DLL@DV?$ChTraitsCRT@D@ATL@@@@@ATL@@QAE@XZ
  00264	8d 4d e0	 lea	 ecx, DWORD PTR $T13[ebp]
$LN26@GetToolTip:

; 142  : 							m_strComment,
; 143  : 							strSide,
; 144  : 							m_fAmount,
; 145  : 							m_strPrice,
; 146  : 							m_strDateTime.Left(4), m_strDateTime.Mid(4,2), m_strDateTime.Mid(6,2),
; 147  : 							m_strDateTime.Mid(8,2), m_strDateTime.Mid(10,2), m_strDateTime.Mid(12,2));
; 148  : 	return strToolTip;

  00267	ff 15 00 00 00
	00		 call	 DWORD PTR __imp_??1?$CStringT@DV?$StrTraitMFC_DLL@DV?$ChTraitsCRT@D@ATL@@@@@ATL@@QAE@XZ
  0026d	8d 4d f0	 lea	 ecx, DWORD PTR _strSide$[ebp]
  00270	ff 15 00 00 00
	00		 call	 DWORD PTR __imp_??1?$CStringT@DV?$StrTraitMFC_DLL@DV?$ChTraitsCRT@D@ATL@@@@@ATL@@QAE@XZ
  00276	8b c6		 mov	 eax, esi

; 149  : 
; 150  : }

  00278	8b 4d f4	 mov	 ecx, DWORD PTR __$EHRec$[ebp]
  0027b	64 89 0d 00 00
	00 00		 mov	 DWORD PTR fs:0, ecx
  00282	59		 pop	 ecx
  00283	5f		 pop	 edi
  00284	5e		 pop	 esi
  00285	5b		 pop	 ebx
  00286	8b e5		 mov	 esp, ebp
  00288	5d		 pop	 ebp
  00289	c2 04 00	 ret	 4
_TEXT	ENDS
;	COMDAT text$x
text$x	SEGMENT
__unwindfunclet$?GetToolTipText@CCommentItem@@QAE?AV?$CStringT@DV?$StrTraitMFC_DLL@DV?$ChTraitsCRT@D@ATL@@@@@ATL@@XZ$0:
  00000	8b 45 e4	 mov	 eax, DWORD PTR $T14[ebp]
  00003	83 e0 01	 and	 eax, 1
  00006	0f 84 0d 00 00
	00		 je	 $LN8@GetToolTip
  0000c	83 65 e4 fe	 and	 DWORD PTR $T14[ebp], -2	; fffffffeH
  00010	8b 4d 08	 mov	 ecx, DWORD PTR ___$ReturnUdt$[ebp]
  00013	ff 25 00 00 00
	00		 jmp	 DWORD PTR __imp_??1?$CStringT@DV?$StrTraitMFC_DLL@DV?$ChTraitsCRT@D@ATL@@@@@ATL@@QAE@XZ
$LN8@GetToolTip:
  00019	c3		 ret	 0
__unwindfunclet$?GetToolTipText@CCommentItem@@QAE?AV?$CStringT@DV?$StrTraitMFC_DLL@DV?$ChTraitsCRT@D@ATL@@@@@ATL@@XZ$1:
  0001a	8d 4d f0	 lea	 ecx, DWORD PTR _strSide$[ebp]
  0001d	ff 25 00 00 00
	00		 jmp	 DWORD PTR __imp_??1?$CStringT@DV?$StrTraitMFC_DLL@DV?$ChTraitsCRT@D@ATL@@@@@ATL@@QAE@XZ
__unwindfunclet$?GetToolTipText@CCommentItem@@QAE?AV?$CStringT@DV?$StrTraitMFC_DLL@DV?$ChTraitsCRT@D@ATL@@@@@ATL@@XZ$2:
  00023	8d 4d c4	 lea	 ecx, DWORD PTR $T2[ebp]
  00026	ff 25 00 00 00
	00		 jmp	 DWORD PTR __imp_??1?$CStringT@DV?$StrTraitMFC_DLL@DV?$ChTraitsCRT@D@ATL@@@@@ATL@@QAE@XZ
__unwindfunclet$?GetToolTipText@CCommentItem@@QAE?AV?$CStringT@DV?$StrTraitMFC_DLL@DV?$ChTraitsCRT@D@ATL@@@@@ATL@@XZ$3:
  0002c	8d 4d c8	 lea	 ecx, DWORD PTR $T3[ebp]
  0002f	ff 25 00 00 00
	00		 jmp	 DWORD PTR __imp_??1?$CStringT@DV?$StrTraitMFC_DLL@DV?$ChTraitsCRT@D@ATL@@@@@ATL@@QAE@XZ
__unwindfunclet$?GetToolTipText@CCommentItem@@QAE?AV?$CStringT@DV?$StrTraitMFC_DLL@DV?$ChTraitsCRT@D@ATL@@@@@ATL@@XZ$4:
  00035	8d 4d cc	 lea	 ecx, DWORD PTR $T5[ebp]
  00038	ff 25 00 00 00
	00		 jmp	 DWORD PTR __imp_??1?$CStringT@DV?$StrTraitMFC_DLL@DV?$ChTraitsCRT@D@ATL@@@@@ATL@@QAE@XZ
__unwindfunclet$?GetToolTipText@CCommentItem@@QAE?AV?$CStringT@DV?$StrTraitMFC_DLL@DV?$ChTraitsCRT@D@ATL@@@@@ATL@@XZ$5:
  0003e	8d 4d d0	 lea	 ecx, DWORD PTR $T7[ebp]
  00041	ff 25 00 00 00
	00		 jmp	 DWORD PTR __imp_??1?$CStringT@DV?$StrTraitMFC_DLL@DV?$ChTraitsCRT@D@ATL@@@@@ATL@@QAE@XZ
__unwindfunclet$?GetToolTipText@CCommentItem@@QAE?AV?$CStringT@DV?$StrTraitMFC_DLL@DV?$ChTraitsCRT@D@ATL@@@@@ATL@@XZ$6:
  00047	8d 4d d4	 lea	 ecx, DWORD PTR $T9[ebp]
  0004a	ff 25 00 00 00
	00		 jmp	 DWORD PTR __imp_??1?$CStringT@DV?$StrTraitMFC_DLL@DV?$ChTraitsCRT@D@ATL@@@@@ATL@@QAE@XZ
__unwindfunclet$?GetToolTipText@CCommentItem@@QAE?AV?$CStringT@DV?$StrTraitMFC_DLL@DV?$ChTraitsCRT@D@ATL@@@@@ATL@@XZ$7:
  00050	8d 4d d8	 lea	 ecx, DWORD PTR $T11[ebp]
  00053	ff 25 00 00 00
	00		 jmp	 DWORD PTR __imp_??1?$CStringT@DV?$StrTraitMFC_DLL@DV?$ChTraitsCRT@D@ATL@@@@@ATL@@QAE@XZ
__unwindfunclet$?GetToolTipText@CCommentItem@@QAE?AV?$CStringT@DV?$StrTraitMFC_DLL@DV?$ChTraitsCRT@D@ATL@@@@@ATL@@XZ$8:
  00059	8d 4d e0	 lea	 ecx, DWORD PTR $T13[ebp]
  0005c	ff 25 00 00 00
	00		 jmp	 DWORD PTR __imp_??1?$CStringT@DV?$StrTraitMFC_DLL@DV?$ChTraitsCRT@D@ATL@@@@@ATL@@QAE@XZ
__unwindfunclet$?GetToolTipText@CCommentItem@@QAE?AV?$CStringT@DV?$StrTraitMFC_DLL@DV?$ChTraitsCRT@D@ATL@@@@@ATL@@XZ$9:
  00062	8d 4d dc	 lea	 ecx, DWORD PTR $T12[ebp]
  00065	ff 25 00 00 00
	00		 jmp	 DWORD PTR __imp_??1?$CStringT@DV?$StrTraitMFC_DLL@DV?$ChTraitsCRT@D@ATL@@@@@ATL@@QAE@XZ
__unwindfunclet$?GetToolTipText@CCommentItem@@QAE?AV?$CStringT@DV?$StrTraitMFC_DLL@DV?$ChTraitsCRT@D@ATL@@@@@ATL@@XZ$10:
  0006b	8d 4d d8	 lea	 ecx, DWORD PTR $T10[ebp]
  0006e	ff 25 00 00 00
	00		 jmp	 DWORD PTR __imp_??1?$CStringT@DV?$StrTraitMFC_DLL@DV?$ChTraitsCRT@D@ATL@@@@@ATL@@QAE@XZ
__unwindfunclet$?GetToolTipText@CCommentItem@@QAE?AV?$CStringT@DV?$StrTraitMFC_DLL@DV?$ChTraitsCRT@D@ATL@@@@@ATL@@XZ$11:
  00074	8d 4d d4	 lea	 ecx, DWORD PTR $T8[ebp]
  00077	ff 25 00 00 00
	00		 jmp	 DWORD PTR __imp_??1?$CStringT@DV?$StrTraitMFC_DLL@DV?$ChTraitsCRT@D@ATL@@@@@ATL@@QAE@XZ
__unwindfunclet$?GetToolTipText@CCommentItem@@QAE?AV?$CStringT@DV?$StrTraitMFC_DLL@DV?$ChTraitsCRT@D@ATL@@@@@ATL@@XZ$12:
  0007d	8d 4d d0	 lea	 ecx, DWORD PTR $T6[ebp]
  00080	ff 25 00 00 00
	00		 jmp	 DWORD PTR __imp_??1?$CStringT@DV?$StrTraitMFC_DLL@DV?$ChTraitsCRT@D@ATL@@@@@ATL@@QAE@XZ
__unwindfunclet$?GetToolTipText@CCommentItem@@QAE?AV?$CStringT@DV?$StrTraitMFC_DLL@DV?$ChTraitsCRT@D@ATL@@@@@ATL@@XZ$13:
  00086	8d 4d cc	 lea	 ecx, DWORD PTR $T4[ebp]
  00089	ff 25 00 00 00
	00		 jmp	 DWORD PTR __imp_??1?$CStringT@DV?$StrTraitMFC_DLL@DV?$ChTraitsCRT@D@ATL@@@@@ATL@@QAE@XZ
  0008f	cc		 int	 3
  00090	cc		 int	 3
  00091	cc		 int	 3
  00092	cc		 int	 3
  00093	cc		 int	 3
__ehhandler$?GetToolTipText@CCommentItem@@QAE?AV?$CStringT@DV?$StrTraitMFC_DLL@DV?$ChTraitsCRT@D@ATL@@@@@ATL@@XZ:
  00094	90		 npad	 1
  00095	90		 npad	 1
  00096	8b 54 24 08	 mov	 edx, DWORD PTR [esp+8]
  0009a	8d 42 0c	 lea	 eax, DWORD PTR [edx+12]
  0009d	8b 4a c0	 mov	 ecx, DWORD PTR [edx-64]
  000a0	33 c8		 xor	 ecx, eax
  000a2	e8 00 00 00 00	 call	 @__security_check_cookie@4
  000a7	b8 00 00 00 00	 mov	 eax, OFFSET __ehfuncinfo$?GetToolTipText@CCommentItem@@QAE?AV?$CStringT@DV?$StrTraitMFC_DLL@DV?$ChTraitsCRT@D@ATL@@@@@ATL@@XZ
  000ac	e9 00 00 00 00	 jmp	 ___CxxFrameHandler3
text$x	ENDS
?GetToolTipText@CCommentItem@@QAE?AV?$CStringT@DV?$StrTraitMFC_DLL@DV?$ChTraitsCRT@D@ATL@@@@@ATL@@XZ ENDP ; CCommentItem::GetToolTipText
; Function compile flags: /Ogtp
; File D:\git\src\IBK\IBK_DRFN\ProjSrc\SrcChartEx\ChartAddIn\ChartOutsideCustomAddIn\ChartOutsideCustomAddIn\CommentObj.cpp
; File C:\Program Files (x86)\Microsoft Visual Studio\2019\Community\VC\Tools\MSVC\14.29.30133\atlmfc\include\atltypes.h
; File D:\git\src\IBK\IBK_DRFN\ProjSrc\SrcChartEx\ChartAddIn\ChartOutsideCustomAddIn\ChartOutsideCustomAddIn\CommentObj.cpp
; File C:\Program Files (x86)\Microsoft Visual Studio\2019\Community\VC\Tools\MSVC\14.29.30133\atlmfc\include\atltypes.h
; File D:\git\src\IBK\IBK_DRFN\ProjSrc\SrcChartEx\ChartAddIn\ChartOutsideCustomAddIn\ChartOutsideCustomAddIn\CommentObj.cpp
;	COMDAT ?IsInRegion@CCommentItem@@QAEHVCPoint@@@Z
_TEXT	SEGMENT
_pt$ = 8						; size = 8
?IsInRegion@CCommentItem@@QAEHVCPoint@@@Z PROC		; CCommentItem::IsInRegion, COMDAT
; _this$ = ecx

; 118  : {

  00000	55		 push	 ebp
  00001	8b ec		 mov	 ebp, esp
; File C:\Program Files (x86)\Microsoft Visual Studio\2019\Community\VC\Tools\MSVC\14.29.30133\atlmfc\include\atltypes.h

; 648  : 	return ::PtInRect(this, point);

  00003	ff 75 0c	 push	 DWORD PTR _pt$[ebp+4]
; File D:\git\src\IBK\IBK_DRFN\ProjSrc\SrcChartEx\ChartAddIn\ChartOutsideCustomAddIn\ChartOutsideCustomAddIn\CommentObj.cpp

; 119  : 	if(m_rc.PtInRect(pt))

  00006	8d 41 34	 lea	 eax, DWORD PTR [ecx+52]
; File C:\Program Files (x86)\Microsoft Visual Studio\2019\Community\VC\Tools\MSVC\14.29.30133\atlmfc\include\atltypes.h

; 648  : 	return ::PtInRect(this, point);

  00009	ff 75 08	 push	 DWORD PTR _pt$[ebp]
  0000c	50		 push	 eax
  0000d	ff 15 00 00 00
	00		 call	 DWORD PTR __imp__PtInRect@12
; File D:\git\src\IBK\IBK_DRFN\ProjSrc\SrcChartEx\ChartAddIn\ChartOutsideCustomAddIn\ChartOutsideCustomAddIn\CommentObj.cpp

; 119  : 	if(m_rc.PtInRect(pt))

  00013	f7 d8		 neg	 eax
  00015	1b c0		 sbb	 eax, eax
  00017	f7 d8		 neg	 eax

; 120  : 		return TRUE;
; 121  : 	else 
; 122  : 		return FALSE;
; 123  : }

  00019	5d		 pop	 ebp
  0001a	c2 08 00	 ret	 8
?IsInRegion@CCommentItem@@QAEHVCPoint@@@Z ENDP		; CCommentItem::IsInRegion
_TEXT	ENDS
; Function compile flags: /Ogtp
; File D:\git\src\IBK\IBK_DRFN\ProjSrc\SrcChartEx\ChartAddIn\ChartOutsideCustomAddIn\ChartOutsideCustomAddIn\CommentObj.cpp
; File C:\Program Files (x86)\Microsoft Visual Studio\2019\Community\VC\Tools\MSVC\14.29.30133\atlmfc\include\atlsimpstr.h
; File D:\git\src\IBK\IBK_DRFN\ProjSrc\SrcChartEx\ChartAddIn\ChartOutsideCustomAddIn\ChartOutsideCustomAddIn\CommentObj.cpp
; File C:\Program Files (x86)\Microsoft Visual Studio\2019\Community\VC\Tools\MSVC\14.29.30133\atlmfc\include\afxwin1.inl
; File C:\Program Files (x86)\Microsoft Visual Studio\2019\Community\VC\Tools\MSVC\14.29.30133\atlmfc\include\atltypes.h
; File C:\Program Files (x86)\Microsoft Visual Studio\2019\Community\VC\Tools\MSVC\14.29.30133\atlmfc\include\afxwin1.inl
; File C:\Program Files (x86)\Microsoft Visual Studio\2019\Community\VC\Tools\MSVC\14.29.30133\atlmfc\include\atltypes.h
; File C:\Program Files (x86)\Microsoft Visual Studio\2019\Community\VC\Tools\MSVC\14.29.30133\atlmfc\include\afxwin1.inl
; File C:\Program Files (x86)\Microsoft Visual Studio\2019\Community\VC\Tools\MSVC\14.29.30133\atlmfc\include\atltypes.h
; File D:\git\src\IBK\IBK_DRFN\ProjSrc\SrcChartEx\ChartAddIn\ChartOutsideCustomAddIn\ChartOutsideCustomAddIn\CommentObj.cpp
;	COMDAT ?SetPosition@CCommentItem@@QAEXPAVCDC@@PAVCPoint@@@Z
_TEXT	SEGMENT
_rect$ = -20						; size = 16
__$ArrayPad$ = -4					; size = 4
_pDC$ = 8						; size = 4
_pPoint$ = 12						; size = 4
?SetPosition@CCommentItem@@QAEXPAVCDC@@PAVCPoint@@@Z PROC ; CCommentItem::SetPosition, COMDAT
; _this$ = ecx

; 97   : {

  00000	55		 push	 ebp
  00001	8b ec		 mov	 ebp, esp
  00003	83 ec 14	 sub	 esp, 20			; 00000014H
  00006	a1 00 00 00 00	 mov	 eax, DWORD PTR ___security_cookie
  0000b	33 c5		 xor	 eax, ebp
  0000d	89 45 fc	 mov	 DWORD PTR __$ArrayPad$[ebp], eax
  00010	56		 push	 esi
  00011	8b f1		 mov	 esi, ecx
  00013	8b 4d 08	 mov	 ecx, DWORD PTR _pDC$[ebp]
; File C:\Program Files (x86)\Microsoft Visual Studio\2019\Community\VC\Tools\MSVC\14.29.30133\atlmfc\include\atlsimpstr.h

; 519  : 		return( GetData()->nDataLength );

  00016	8b 56 14	 mov	 edx, DWORD PTR [esi+20]

; 533  : 		return( GetLength() == 0 );

  00019	83 7a f4 00	 cmp	 DWORD PTR [edx-12], 0
; File D:\git\src\IBK\IBK_DRFN\ProjSrc\SrcChartEx\ChartAddIn\ChartOutsideCustomAddIn\ChartOutsideCustomAddIn\CommentObj.cpp

; 98   : 	if( m_strComment.IsEmpty() )		return;

  0001d	74 75		 je	 SHORT $LN4@SetPositio
; File C:\Program Files (x86)\Microsoft Visual Studio\2019\Community\VC\Tools\MSVC\14.29.30133\atlmfc\include\afxwin1.inl

; 600  : 		return _AFX_FUNCNAME(DrawText)((LPCTSTR)str, (int)str.GetLength(), lpRect, nFormat); }

  0001f	8b 01		 mov	 eax, DWORD PTR [ecx]
  00021	0f 57 c0	 xorps	 xmm0, xmm0
; File C:\Program Files (x86)\Microsoft Visual Studio\2019\Community\VC\Tools\MSVC\14.29.30133\atlmfc\include\atltypes.h

; 528  : 	left = 0;

  00024	57		 push	 edi
; File C:\Program Files (x86)\Microsoft Visual Studio\2019\Community\VC\Tools\MSVC\14.29.30133\atlmfc\include\afxwin1.inl

; 600  : 		return _AFX_FUNCNAME(DrawText)((LPCTSTR)str, (int)str.GetLength(), lpRect, nFormat); }

  00025	68 00 04 00 00	 push	 1024			; 00000400H
  0002a	8d 7d ec	 lea	 edi, DWORD PTR _rect$[ebp]
  0002d	57		 push	 edi
; File C:\Program Files (x86)\Microsoft Visual Studio\2019\Community\VC\Tools\MSVC\14.29.30133\atlmfc\include\atltypes.h

; 528  : 	left = 0;

  0002e	0f 11 45 ec	 movups	 XMMWORD PTR _rect$[ebp], xmm0
; File C:\Program Files (x86)\Microsoft Visual Studio\2019\Community\VC\Tools\MSVC\14.29.30133\atlmfc\include\afxwin1.inl

; 600  : 		return _AFX_FUNCNAME(DrawText)((LPCTSTR)str, (int)str.GetLength(), lpRect, nFormat); }

  00032	ff 72 f4	 push	 DWORD PTR [edx-12]
  00035	52		 push	 edx
  00036	ff 50 70	 call	 DWORD PTR [eax+112]
; File C:\Program Files (x86)\Microsoft Visual Studio\2019\Community\VC\Tools\MSVC\14.29.30133\atlmfc\include\atltypes.h

; 576  : 	return right - left;

  00039	8b 45 f4	 mov	 eax, DWORD PTR _rect$[ebp+8]
  0003c	2b 45 ec	 sub	 eax, DWORD PTR _rect$[ebp]
; File D:\git\src\IBK\IBK_DRFN\ProjSrc\SrcChartEx\ChartAddIn\ChartOutsideCustomAddIn\ChartOutsideCustomAddIn\CommentObj.cpp

; 103  : 	m_rc.left = pPoint->x - rect.Width()/2;

  0003f	99		 cdq
  00040	2b c2		 sub	 eax, edx
  00042	8b 55 0c	 mov	 edx, DWORD PTR _pPoint$[ebp]
  00045	d1 f8		 sar	 eax, 1

; 104  : 	m_rc.right = pPoint->x + rect.Width()/2;
; 105  : 	if (m_bBuy)		// 저가위치

  00047	5f		 pop	 edi
  00048	8b 0a		 mov	 ecx, DWORD PTR [edx]
  0004a	2b c8		 sub	 ecx, eax
  0004c	89 4e 34	 mov	 DWORD PTR [esi+52], ecx
  0004f	8b 0a		 mov	 ecx, DWORD PTR [edx]
  00051	03 c8		 add	 ecx, eax
  00053	83 7e 18 00	 cmp	 DWORD PTR [esi+24], 0
  00057	89 4e 3c	 mov	 DWORD PTR [esi+60], ecx
  0005a	8b 4a 04	 mov	 ecx, DWORD PTR [edx+4]
  0005d	74 23		 je	 SHORT $LN3@SetPositio

; 106  : 	{
; 107  : 		m_rc.top = pPoint->y;

  0005f	89 4e 38	 mov	 DWORD PTR [esi+56], ecx

; 108  : 		m_rc.bottom = pPoint->y + rect.Height()*2;

  00062	8b 4d f8	 mov	 ecx, DWORD PTR _rect$[ebp+12]
  00065	8b 42 04	 mov	 eax, DWORD PTR [edx+4]
  00068	2b 4d f0	 sub	 ecx, DWORD PTR _rect$[ebp+4]
  0006b	8d 04 48	 lea	 eax, DWORD PTR [eax+ecx*2]

; 114  : 	}
; 115  : }

  0006e	89 46 40	 mov	 DWORD PTR [esi+64], eax
  00071	5e		 pop	 esi
  00072	8b 4d fc	 mov	 ecx, DWORD PTR __$ArrayPad$[ebp]
  00075	33 cd		 xor	 ecx, ebp
  00077	e8 00 00 00 00	 call	 @__security_check_cookie@4
  0007c	8b e5		 mov	 esp, ebp
  0007e	5d		 pop	 ebp
  0007f	c2 08 00	 ret	 8
$LN3@SetPositio:

; 109  : 	}
; 110  : 	else			// 고가위치
; 111  : 	{
; 112  : 		m_rc.top = pPoint->y - rect.Height()*2;

  00082	8b 45 f0	 mov	 eax, DWORD PTR _rect$[ebp+4]
  00085	2b 45 f8	 sub	 eax, DWORD PTR _rect$[ebp+12]
  00088	8d 04 41	 lea	 eax, DWORD PTR [ecx+eax*2]
  0008b	89 46 38	 mov	 DWORD PTR [esi+56], eax

; 113  : 		m_rc.bottom = pPoint->y;

  0008e	8b 42 04	 mov	 eax, DWORD PTR [edx+4]

; 114  : 	}
; 115  : }

  00091	89 46 40	 mov	 DWORD PTR [esi+64], eax
$LN4@SetPositio:
  00094	8b 4d fc	 mov	 ecx, DWORD PTR __$ArrayPad$[ebp]
  00097	33 cd		 xor	 ecx, ebp
  00099	5e		 pop	 esi
  0009a	e8 00 00 00 00	 call	 @__security_check_cookie@4
  0009f	8b e5		 mov	 esp, ebp
  000a1	5d		 pop	 ebp
  000a2	c2 08 00	 ret	 8
?SetPosition@CCommentItem@@QAEXPAVCDC@@PAVCPoint@@@Z ENDP ; CCommentItem::SetPosition
_TEXT	ENDS
; Function compile flags: /Ogtp
; File D:\git\src\IBK\IBK_DRFN\ProjSrc\SrcChartEx\ChartAddIn\ChartOutsideCustomAddIn\ChartOutsideCustomAddIn\CommentObj.cpp
;	COMDAT ?SetDate@CCommentItem@@QAEXJ@Z
_TEXT	SEGMENT
_lDate$ = 8						; size = 4
?SetDate@CCommentItem@@QAEXJ@Z PROC			; CCommentItem::SetDate, COMDAT
; _this$ = ecx

; 83   : {

  00000	55		 push	 ebp
  00001	8b ec		 mov	 ebp, esp
  00003	53		 push	 ebx
  00004	56		 push	 esi
  00005	57		 push	 edi

; 84   : 	int a, b, c;	// 시간 데이터를 분리
; 85   : 
; 86   : 	// 시작일
; 87   : 	a = lDate/10000;

  00006	8b 7d 08	 mov	 edi, DWORD PTR _lDate$[ebp]
  00009	b8 ad 8b db 68	 mov	 eax, 1759218605		; 68db8badH
  0000e	f7 ef		 imul	 edi
  00010	8b d9		 mov	 ebx, ecx
  00012	c1 fa 0c	 sar	 edx, 12			; 0000000cH
  00015	8b f2		 mov	 esi, edx
  00017	c1 ee 1f	 shr	 esi, 31			; 0000001fH
  0001a	03 f2		 add	 esi, edx

; 88   : 	lDate = lDate%10000;

  0001c	69 c6 f0 d8 ff
	ff		 imul	 eax, esi, -10000
  00022	03 f8		 add	 edi, eax

; 89   : 	b = lDate/100;
; 90   : 	lDate = lDate%100;

  00024	b8 1f 85 eb 51	 mov	 eax, 1374389535		; 51eb851fH
  00029	f7 ef		 imul	 edi
  0002b	c1 fa 05	 sar	 edx, 5
  0002e	8b ca		 mov	 ecx, edx
  00030	c1 e9 1f	 shr	 ecx, 31			; 0000001fH
  00033	03 ca		 add	 ecx, edx
  00035	6b c1 64	 imul	 eax, ecx, 100
  00038	2b f8		 sub	 edi, eax

; 91   : 	c = lDate;
; 92   : 
; 93   : 	m_strDate.Format("%d/%d/%d", a,b,c);

  0003a	8d 43 30	 lea	 eax, DWORD PTR [ebx+48]
  0003d	57		 push	 edi
  0003e	51		 push	 ecx
  0003f	56		 push	 esi
  00040	68 00 00 00 00	 push	 OFFSET ??_C@_08EAFBBLEB@?$CFd?1?$CFd?1?$CFd@
  00045	50		 push	 eax
  00046	ff 15 00 00 00
	00		 call	 DWORD PTR __imp_?Format@?$CStringT@DV?$StrTraitMFC_DLL@DV?$ChTraitsCRT@D@ATL@@@@@ATL@@QAAXPBDZZ
  0004c	83 c4 14	 add	 esp, 20			; 00000014H
  0004f	5f		 pop	 edi
  00050	5e		 pop	 esi
  00051	5b		 pop	 ebx

; 94   : }

  00052	5d		 pop	 ebp
  00053	c2 04 00	 ret	 4
?SetDate@CCommentItem@@QAEXJ@Z ENDP			; CCommentItem::SetDate
_TEXT	ENDS
; Function compile flags: /Ogtp
; File D:\git\src\IBK\IBK_DRFN\ProjSrc\SrcChartEx\ChartAddIn\ChartOutsideCustomAddIn\ChartOutsideCustomAddIn\CommentObj.cpp
; File C:\Program Files (x86)\Microsoft Visual Studio\2019\Community\VC\Tools\MSVC\14.29.30133\atlmfc\include\cstringt.h
; File D:\git\src\IBK\IBK_DRFN\ProjSrc\SrcChartEx\ChartAddIn\ChartOutsideCustomAddIn\ChartOutsideCustomAddIn\CommentObj.cpp
; File C:\Program Files (x86)\Microsoft Visual Studio\2019\Community\VC\Tools\MSVC\14.29.30133\atlmfc\include\cstringt.h
; File D:\git\src\IBK\IBK_DRFN\ProjSrc\SrcChartEx\ChartAddIn\ChartOutsideCustomAddIn\ChartOutsideCustomAddIn\CommentObj.cpp
; File C:\Program Files (x86)\Microsoft Visual Studio\2019\Community\VC\Tools\MSVC\14.29.30133\atlmfc\include\cstringt.h
; File D:\git\src\IBK\IBK_DRFN\ProjSrc\SrcChartEx\ChartAddIn\ChartOutsideCustomAddIn\ChartOutsideCustomAddIn\CommentObj.cpp
; File C:\Program Files (x86)\Microsoft Visual Studio\2019\Community\VC\Tools\MSVC\14.29.30133\atlmfc\include\afxwin1.inl
; File C:\Program Files (x86)\Microsoft Visual Studio\2019\Community\VC\Tools\MSVC\14.29.30133\atlmfc\include\atltypes.h
; File D:\git\src\IBK\IBK_DRFN\ProjSrc\SrcChartEx\ChartAddIn\ChartOutsideCustomAddIn\ChartOutsideCustomAddIn\CommentObj.cpp
; File C:\Program Files (x86)\Microsoft Visual Studio\2019\Community\VC\Tools\MSVC\14.29.30133\atlmfc\include\atltypes.h
; File D:\git\src\IBK\IBK_DRFN\ProjSrc\SrcChartEx\ChartAddIn\ChartOutsideCustomAddIn\ChartOutsideCustomAddIn\CommentObj.cpp
; File C:\Program Files (x86)\Microsoft Visual Studio\2019\Community\VC\Tools\MSVC\14.29.30133\atlmfc\include\atlsimpstr.h
; File C:\Program Files (x86)\Microsoft Visual Studio\2019\Community\VC\Tools\MSVC\14.29.30133\atlmfc\include\afxwin1.inl
; File D:\git\src\IBK\IBK_DRFN\ProjSrc\SrcChartEx\ChartAddIn\ChartOutsideCustomAddIn\ChartOutsideCustomAddIn\CommentObj.cpp
; File C:\Program Files (x86)\Microsoft Visual Studio\2019\Community\VC\Tools\MSVC\14.29.30133\atlmfc\include\atlsimpstr.h
; File C:\Program Files (x86)\Microsoft Visual Studio\2019\Community\VC\Tools\MSVC\14.29.30133\atlmfc\include\afxwin1.inl
; File C:\Program Files (x86)\Microsoft Visual Studio\2019\Community\VC\Tools\MSVC\14.29.30133\atlmfc\include\atltypes.h
; File D:\git\src\IBK\IBK_DRFN\ProjSrc\SrcChartEx\ChartAddIn\ChartOutsideCustomAddIn\ChartOutsideCustomAddIn\CommentObj.cpp
; File C:\Program Files (x86)\Microsoft Visual Studio\2019\Community\VC\Tools\MSVC\14.29.30133\atlmfc\include\cstringt.h
; File D:\git\src\IBK\IBK_DRFN\ProjSrc\SrcChartEx\ChartAddIn\ChartOutsideCustomAddIn\ChartOutsideCustomAddIn\CommentObj.cpp
; File C:\Program Files (x86)\Microsoft Visual Studio\2019\Community\VC\Tools\MSVC\14.29.30133\atlmfc\include\cstringt.h
; File D:\git\src\IBK\IBK_DRFN\ProjSrc\SrcChartEx\ChartAddIn\ChartOutsideCustomAddIn\ChartOutsideCustomAddIn\CommentObj.cpp
; File C:\Program Files (x86)\Microsoft Visual Studio\2019\Community\VC\Tools\MSVC\14.29.30133\atlmfc\include\cstringt.h
; File D:\git\src\IBK\IBK_DRFN\ProjSrc\SrcChartEx\ChartAddIn\ChartOutsideCustomAddIn\ChartOutsideCustomAddIn\CommentObj.cpp
; File C:\Program Files (x86)\Microsoft Visual Studio\2019\Community\VC\Tools\MSVC\14.29.30133\atlmfc\include\afxwin1.inl
; File D:\git\src\IBK\IBK_DRFN\ProjSrc\SrcChartEx\ChartAddIn\ChartOutsideCustomAddIn\ChartOutsideCustomAddIn\CommentObj.cpp
;	COMDAT ?Draw@CCommentItem@@QAEXPAVCDC@@@Z
_TEXT	SEGMENT
_this$GSCopy$1$ = -48					; size = 4
tv547 = -44						; size = 4
$T2 = -40						; size = 4
$T3 = -40						; size = 4
_strDrawingMark$ = -36					; size = 4
_rect$ = -32						; size = 16
__$ArrayPad$ = -16					; size = 4
__$EHRec$ = -12						; size = 12
_pDC$ = 8						; size = 4
?Draw@CCommentItem@@QAEXPAVCDC@@@Z PROC			; CCommentItem::Draw, COMDAT
; _this$ = ecx

; 27   : {

  00000	55		 push	 ebp
  00001	8b ec		 mov	 ebp, esp
  00003	6a ff		 push	 -1
  00005	68 00 00 00 00	 push	 __ehhandler$?Draw@CCommentItem@@QAEXPAVCDC@@@Z
  0000a	64 a1 00 00 00
	00		 mov	 eax, DWORD PTR fs:0
  00010	50		 push	 eax
  00011	83 ec 24	 sub	 esp, 36			; 00000024H
  00014	a1 00 00 00 00	 mov	 eax, DWORD PTR ___security_cookie
  00019	33 c5		 xor	 eax, ebp
  0001b	89 45 f0	 mov	 DWORD PTR __$ArrayPad$[ebp], eax
  0001e	56		 push	 esi
  0001f	57		 push	 edi
  00020	50		 push	 eax
  00021	8d 45 f4	 lea	 eax, DWORD PTR __$EHRec$[ebp]
  00024	64 a3 00 00 00
	00		 mov	 DWORD PTR fs:0, eax
  0002a	8b f1		 mov	 esi, ecx
  0002c	89 75 d0	 mov	 DWORD PTR _this$GSCopy$1$[ebp], esi

; 28   : 	CRect rect;
; 29   : 	rect = m_rc;

  0002f	0f 10 46 34	 movups	 xmm0, XMMWORD PTR [esi+52]
  00033	8b 7d 08	 mov	 edi, DWORD PTR _pDC$[ebp]

; 30   : 	pDC->SetBkMode(TRANSPARENT);

  00036	8b cf		 mov	 ecx, edi
  00038	6a 01		 push	 1
  0003a	0f 11 45 e0	 movups	 XMMWORD PTR _rect$[ebp], xmm0
  0003e	e8 00 00 00 00	 call	 ?SetBkMode@CDC@@QAEHH@Z	; CDC::SetBkMode

; 31   : 
; 32   : //	if (m_lSumOrdCnt <= 0)
; 33   : //		return;
; 34   : 
; 35   : //	CString strCnt;
; 36   : //	strCnt.Format("%d", (int)m_lSumOrdCnt);
; 37   : /*
; 38   : 	if( drawingString != "☞" &&
; 39   : 		drawingString != "☜" &&
; 40   : 		drawingString != "◆" &&
; 41   : 		drawingString != "★" &&
; 42   : 		drawingString != "●" &&
; 43   : 		drawingString != "■")
; 44   : 		♠♣
; 45   : */
; 46   : 	CString strDrawingMark = "★";

  00043	68 00 00 00 00	 push	 OFFSET ??_C@_02KDNDDMCP@?$KB?Z@
  00048	8d 4d dc	 lea	 ecx, DWORD PTR _strDrawingMark$[ebp]
  0004b	ff 15 00 00 00
	00		 call	 DWORD PTR __imp_??0?$CStringT@DV?$StrTraitMFC_DLL@DV?$ChTraitsCRT@D@ATL@@@@@ATL@@QAE@PBD@Z

; 47   : 
; 48   : 	if (m_bBuy)		// 저가위치

  00051	8b 4e 38	 mov	 ecx, DWORD PTR [esi+56]
  00054	8d 46 14	 lea	 eax, DWORD PTR [esi+20]
  00057	89 45 d4	 mov	 DWORD PTR tv547[ebp], eax
  0005a	8b 46 40	 mov	 eax, DWORD PTR [esi+64]
  0005d	2b c1		 sub	 eax, ecx
  0005f	c7 45 fc 00 00
	00 00		 mov	 DWORD PTR __$EHRec$[ebp+8], 0
  00066	99		 cdq
  00067	2b c2		 sub	 eax, edx
  00069	d1 f8		 sar	 eax, 1
  0006b	03 c1		 add	 eax, ecx
  0006d	83 7e 18 00	 cmp	 DWORD PTR [esi+24], 0
  00071	89 45 ec	 mov	 DWORD PTR _rect$[ebp+12], eax
  00074	0f 84 8f 00 00
	00		 je	 $LN2@Draw

; 54   : 		if( m_strComment.Left(4) == "진입" )

  0007a	8b 4d d4	 mov	 ecx, DWORD PTR tv547[ebp]
  0007d	8d 45 d8	 lea	 eax, DWORD PTR $T3[ebp]
  00080	6a 04		 push	 4
  00082	50		 push	 eax
  00083	ff 15 00 00 00
	00		 call	 DWORD PTR __imp_?Left@?$CStringT@DV?$StrTraitMFC_DLL@DV?$ChTraitsCRT@D@ATL@@@@@ATL@@QBE?AV12@H@Z
; File C:\Program Files (x86)\Microsoft Visual Studio\2019\Community\VC\Tools\MSVC\14.29.30133\atlmfc\include\cstringt.h

; 2486 : 		return(str1.Compare(psz2) == 0);

  00089	68 00 00 00 00	 push	 OFFSET ??_C@_04NKIBGBJK@?A?x?$MA?T@
  0008e	8b c8		 mov	 ecx, eax
; File D:\git\src\IBK\IBK_DRFN\ProjSrc\SrcChartEx\ChartAddIn\ChartOutsideCustomAddIn\ChartOutsideCustomAddIn\CommentObj.cpp

; 54   : 		if( m_strComment.Left(4) == "진입" )

  00090	c6 45 fc 01	 mov	 BYTE PTR __$EHRec$[ebp+8], 1
; File C:\Program Files (x86)\Microsoft Visual Studio\2019\Community\VC\Tools\MSVC\14.29.30133\atlmfc\include\cstringt.h

; 2486 : 		return(str1.Compare(psz2) == 0);

  00094	ff 15 00 00 00
	00		 call	 DWORD PTR __imp_?Compare@?$CStringT@DV?$StrTraitMFC_DLL@DV?$ChTraitsCRT@D@ATL@@@@@ATL@@QBEHPBD@Z
; File D:\git\src\IBK\IBK_DRFN\ProjSrc\SrcChartEx\ChartAddIn\ChartOutsideCustomAddIn\ChartOutsideCustomAddIn\CommentObj.cpp

; 54   : 		if( m_strComment.Left(4) == "진입" )

  0009a	8d 4d d8	 lea	 ecx, DWORD PTR $T3[ebp]
  0009d	c6 45 fc 00	 mov	 BYTE PTR __$EHRec$[ebp+8], 0
; File C:\Program Files (x86)\Microsoft Visual Studio\2019\Community\VC\Tools\MSVC\14.29.30133\atlmfc\include\cstringt.h

; 2486 : 		return(str1.Compare(psz2) == 0);

  000a1	8b f0		 mov	 esi, eax
; File D:\git\src\IBK\IBK_DRFN\ProjSrc\SrcChartEx\ChartAddIn\ChartOutsideCustomAddIn\ChartOutsideCustomAddIn\CommentObj.cpp

; 54   : 		if( m_strComment.Left(4) == "진입" )

  000a3	ff 15 00 00 00
	00		 call	 DWORD PTR __imp_??1?$CStringT@DV?$StrTraitMFC_DLL@DV?$ChTraitsCRT@D@ATL@@@@@ATL@@QAE@XZ
  000a9	8b 0f		 mov	 ecx, DWORD PTR [edi]
  000ab	8b 41 38	 mov	 eax, DWORD PTR [ecx+56]
  000ae	8b cf		 mov	 ecx, edi
  000b0	85 f6		 test	 esi, esi
  000b2	75 07		 jne	 SHORT $LN4@Draw

; 55   : 			pDC->SetTextColor(RGB(0, 208, 208));

  000b4	68 00 d0 d0 00	 push	 13684736		; 00d0d000H
  000b9	eb 05		 jmp	 SHORT $LN59@Draw
$LN4@Draw:

; 56   : 		else
; 57   : 			pDC->SetTextColor(RGB(0, 208, 0));

  000bb	68 00 d0 00 00	 push	 53248			; 0000d000H
$LN59@Draw:
; File C:\Program Files (x86)\Microsoft Visual Studio\2019\Community\VC\Tools\MSVC\14.29.30133\atlmfc\include\afxwin1.inl

; 600  : 		return _AFX_FUNCNAME(DrawText)((LPCTSTR)str, (int)str.GetLength(), lpRect, nFormat); }

  000c0	ff d0		 call	 eax
  000c2	8b 17		 mov	 edx, DWORD PTR [edi]
  000c4	8d 45 e0	 lea	 eax, DWORD PTR _rect$[ebp]
  000c7	6a 01		 push	 1
  000c9	50		 push	 eax
  000ca	8b 45 dc	 mov	 eax, DWORD PTR _strDrawingMark$[ebp]
  000cd	8b cf		 mov	 ecx, edi
  000cf	ff 70 f4	 push	 DWORD PTR [eax-12]
  000d2	50		 push	 eax
  000d3	ff 52 70	 call	 DWORD PTR [edx+112]
; File C:\Program Files (x86)\Microsoft Visual Studio\2019\Community\VC\Tools\MSVC\14.29.30133\atlmfc\include\atltypes.h

; 581  : 	return bottom - top;

  000d6	8b 75 d0	 mov	 esi, DWORD PTR _this$GSCopy$1$[ebp]
; File D:\git\src\IBK\IBK_DRFN\ProjSrc\SrcChartEx\ChartAddIn\ChartOutsideCustomAddIn\ChartOutsideCustomAddIn\CommentObj.cpp

; 60   : 		rect.top = rect.bottom;

  000d9	8b 4d ec	 mov	 ecx, DWORD PTR _rect$[ebp+12]
  000dc	89 4d e4	 mov	 DWORD PTR _rect$[ebp+4], ecx

; 62   : 		pDC->SetTextColor(RGB(208, 45, 45));

  000df	68 d0 2d 2d 00	 push	 2960848			; 002d2dd0H
; File C:\Program Files (x86)\Microsoft Visual Studio\2019\Community\VC\Tools\MSVC\14.29.30133\atlmfc\include\atltypes.h

; 581  : 	return bottom - top;

  000e4	8b 46 40	 mov	 eax, DWORD PTR [esi+64]
  000e7	2b 46 38	 sub	 eax, DWORD PTR [esi+56]
; File D:\git\src\IBK\IBK_DRFN\ProjSrc\SrcChartEx\ChartAddIn\ChartOutsideCustomAddIn\ChartOutsideCustomAddIn\CommentObj.cpp

; 61   : 		rect.bottom = rect.top + m_rc.Height()/ 2;

  000ea	99		 cdq
  000eb	2b c2		 sub	 eax, edx
  000ed	d1 f8		 sar	 eax, 1
  000ef	03 c8		 add	 ecx, eax

; 62   : 		pDC->SetTextColor(RGB(208, 45, 45));

  000f1	8b 07		 mov	 eax, DWORD PTR [edi]
  000f3	89 4d ec	 mov	 DWORD PTR _rect$[ebp+12], ecx
  000f6	8b cf		 mov	 ecx, edi
  000f8	ff 50 38	 call	 DWORD PTR [eax+56]
; File C:\Program Files (x86)\Microsoft Visual Studio\2019\Community\VC\Tools\MSVC\14.29.30133\atlmfc\include\atlsimpstr.h

; 519  : 		return( GetData()->nDataLength );

  000fb	8b 46 14	 mov	 eax, DWORD PTR [esi+20]
; File C:\Program Files (x86)\Microsoft Visual Studio\2019\Community\VC\Tools\MSVC\14.29.30133\atlmfc\include\afxwin1.inl

; 600  : 		return _AFX_FUNCNAME(DrawText)((LPCTSTR)str, (int)str.GetLength(), lpRect, nFormat); }

  000fe	8d 4d e0	 lea	 ecx, DWORD PTR _rect$[ebp]
  00101	6a 01		 push	 1
  00103	51		 push	 ecx
; File D:\git\src\IBK\IBK_DRFN\ProjSrc\SrcChartEx\ChartAddIn\ChartOutsideCustomAddIn\ChartOutsideCustomAddIn\CommentObj.cpp

; 64   : 	}

  00104	e9 87 00 00 00	 jmp	 $LN60@Draw
$LN2@Draw:

; 65   : 	else			// 고가위치
; 66   : 	{
; 67   : //		rect.bottom = rect.top + rect.Height() / 2;
; 68   : 		rect.bottom = m_rc.top + m_rc.Height()/ 2;
; 69   : 		pDC->SetTextColor(RGB(45, 45, 208));

  00109	8b 07		 mov	 eax, DWORD PTR [edi]
  0010b	8b cf		 mov	 ecx, edi
  0010d	68 2d 2d d0 00	 push	 13643053		; 00d02d2dH
  00112	ff 50 38	 call	 DWORD PTR [eax+56]
; File C:\Program Files (x86)\Microsoft Visual Studio\2019\Community\VC\Tools\MSVC\14.29.30133\atlmfc\include\atlsimpstr.h

; 519  : 		return( GetData()->nDataLength );

  00115	8b 46 14	 mov	 eax, DWORD PTR [esi+20]
; File C:\Program Files (x86)\Microsoft Visual Studio\2019\Community\VC\Tools\MSVC\14.29.30133\atlmfc\include\afxwin1.inl

; 600  : 		return _AFX_FUNCNAME(DrawText)((LPCTSTR)str, (int)str.GetLength(), lpRect, nFormat); }

  00118	8d 4d e0	 lea	 ecx, DWORD PTR _rect$[ebp]
  0011b	8b 17		 mov	 edx, DWORD PTR [edi]
  0011d	6a 09		 push	 9
  0011f	51		 push	 ecx
  00120	ff 70 f4	 push	 DWORD PTR [eax-12]
  00123	8b cf		 mov	 ecx, edi
  00125	50		 push	 eax
  00126	ff 52 70	 call	 DWORD PTR [edx+112]
; File C:\Program Files (x86)\Microsoft Visual Studio\2019\Community\VC\Tools\MSVC\14.29.30133\atlmfc\include\atltypes.h

; 581  : 	return bottom - top;

  00129	8b 46 40	 mov	 eax, DWORD PTR [esi+64]
  0012c	2b 46 38	 sub	 eax, DWORD PTR [esi+56]
; File D:\git\src\IBK\IBK_DRFN\ProjSrc\SrcChartEx\ChartAddIn\ChartOutsideCustomAddIn\ChartOutsideCustomAddIn\CommentObj.cpp

; 72   : 		rect.top = rect.bottom;

  0012f	8b 4d ec	 mov	 ecx, DWORD PTR _rect$[ebp+12]

; 73   : 		rect.bottom = rect.top + m_rc.Height()/ 2;

  00132	99		 cdq
  00133	2b c2		 sub	 eax, edx
  00135	89 4d e4	 mov	 DWORD PTR _rect$[ebp+4], ecx
  00138	d1 f8		 sar	 eax, 1
  0013a	03 c8		 add	 ecx, eax

; 74   : 		if( m_strComment.Left(4) == "진입" )

  0013c	8d 45 d8	 lea	 eax, DWORD PTR $T2[ebp]
  0013f	6a 04		 push	 4
  00141	89 4d ec	 mov	 DWORD PTR _rect$[ebp+12], ecx
  00144	8d 4e 14	 lea	 ecx, DWORD PTR [esi+20]
  00147	50		 push	 eax
  00148	ff 15 00 00 00
	00		 call	 DWORD PTR __imp_?Left@?$CStringT@DV?$StrTraitMFC_DLL@DV?$ChTraitsCRT@D@ATL@@@@@ATL@@QBE?AV12@H@Z
; File C:\Program Files (x86)\Microsoft Visual Studio\2019\Community\VC\Tools\MSVC\14.29.30133\atlmfc\include\cstringt.h

; 2486 : 		return(str1.Compare(psz2) == 0);

  0014e	68 00 00 00 00	 push	 OFFSET ??_C@_04NKIBGBJK@?A?x?$MA?T@
  00153	8b c8		 mov	 ecx, eax
; File D:\git\src\IBK\IBK_DRFN\ProjSrc\SrcChartEx\ChartAddIn\ChartOutsideCustomAddIn\ChartOutsideCustomAddIn\CommentObj.cpp

; 74   : 		if( m_strComment.Left(4) == "진입" )

  00155	c6 45 fc 02	 mov	 BYTE PTR __$EHRec$[ebp+8], 2
; File C:\Program Files (x86)\Microsoft Visual Studio\2019\Community\VC\Tools\MSVC\14.29.30133\atlmfc\include\cstringt.h

; 2486 : 		return(str1.Compare(psz2) == 0);

  00159	ff 15 00 00 00
	00		 call	 DWORD PTR __imp_?Compare@?$CStringT@DV?$StrTraitMFC_DLL@DV?$ChTraitsCRT@D@ATL@@@@@ATL@@QBEHPBD@Z
; File D:\git\src\IBK\IBK_DRFN\ProjSrc\SrcChartEx\ChartAddIn\ChartOutsideCustomAddIn\ChartOutsideCustomAddIn\CommentObj.cpp

; 74   : 		if( m_strComment.Left(4) == "진입" )

  0015f	8d 4d d8	 lea	 ecx, DWORD PTR $T2[ebp]
  00162	c6 45 fc 00	 mov	 BYTE PTR __$EHRec$[ebp+8], 0
; File C:\Program Files (x86)\Microsoft Visual Studio\2019\Community\VC\Tools\MSVC\14.29.30133\atlmfc\include\cstringt.h

; 2486 : 		return(str1.Compare(psz2) == 0);

  00166	8b f0		 mov	 esi, eax
; File D:\git\src\IBK\IBK_DRFN\ProjSrc\SrcChartEx\ChartAddIn\ChartOutsideCustomAddIn\ChartOutsideCustomAddIn\CommentObj.cpp

; 74   : 		if( m_strComment.Left(4) == "진입" )

  00168	ff 15 00 00 00
	00		 call	 DWORD PTR __imp_??1?$CStringT@DV?$StrTraitMFC_DLL@DV?$ChTraitsCRT@D@ATL@@@@@ATL@@QAE@XZ
  0016e	8b 0f		 mov	 ecx, DWORD PTR [edi]
  00170	8b 41 38	 mov	 eax, DWORD PTR [ecx+56]
  00173	8b cf		 mov	 ecx, edi
  00175	85 f6		 test	 esi, esi
  00177	75 07		 jne	 SHORT $LN6@Draw

; 75   : 			pDC->SetTextColor(RGB(0, 208, 208));

  00179	68 00 d0 d0 00	 push	 13684736		; 00d0d000H
  0017e	eb 05		 jmp	 SHORT $LN61@Draw
$LN6@Draw:

; 76   : 		else
; 77   : 			pDC->SetTextColor(RGB(0, 208, 0));

  00180	68 00 d0 00 00	 push	 53248			; 0000d000H
$LN61@Draw:
; File C:\Program Files (x86)\Microsoft Visual Studio\2019\Community\VC\Tools\MSVC\14.29.30133\atlmfc\include\afxwin1.inl

; 600  : 		return _AFX_FUNCNAME(DrawText)((LPCTSTR)str, (int)str.GetLength(), lpRect, nFormat); }

  00185	ff d0		 call	 eax
  00187	8d 45 e0	 lea	 eax, DWORD PTR _rect$[ebp]
  0018a	6a 09		 push	 9
  0018c	50		 push	 eax
  0018d	8b 45 dc	 mov	 eax, DWORD PTR _strDrawingMark$[ebp]
$LN60@Draw:
; File D:\git\src\IBK\IBK_DRFN\ProjSrc\SrcChartEx\ChartAddIn\ChartOutsideCustomAddIn\ChartOutsideCustomAddIn\CommentObj.cpp

; 80   : }

  00190	ff 70 f4	 push	 DWORD PTR [eax-12]
  00193	8b 17		 mov	 edx, DWORD PTR [edi]
  00195	8b cf		 mov	 ecx, edi
  00197	50		 push	 eax
  00198	ff 52 70	 call	 DWORD PTR [edx+112]
  0019b	8d 4d dc	 lea	 ecx, DWORD PTR _strDrawingMark$[ebp]
  0019e	ff 15 00 00 00
	00		 call	 DWORD PTR __imp_??1?$CStringT@DV?$StrTraitMFC_DLL@DV?$ChTraitsCRT@D@ATL@@@@@ATL@@QAE@XZ
  001a4	8b 4d f4	 mov	 ecx, DWORD PTR __$EHRec$[ebp]
  001a7	64 89 0d 00 00
	00 00		 mov	 DWORD PTR fs:0, ecx
  001ae	59		 pop	 ecx
  001af	5f		 pop	 edi
  001b0	5e		 pop	 esi
  001b1	8b 4d f0	 mov	 ecx, DWORD PTR __$ArrayPad$[ebp]
  001b4	33 cd		 xor	 ecx, ebp
  001b6	e8 00 00 00 00	 call	 @__security_check_cookie@4
  001bb	8b e5		 mov	 esp, ebp
  001bd	5d		 pop	 ebp
  001be	c2 04 00	 ret	 4
_TEXT	ENDS
;	COMDAT text$x
text$x	SEGMENT
__unwindfunclet$?Draw@CCommentItem@@QAEXPAVCDC@@@Z$0:
  00000	8d 4d dc	 lea	 ecx, DWORD PTR _strDrawingMark$[ebp]
  00003	ff 25 00 00 00
	00		 jmp	 DWORD PTR __imp_??1?$CStringT@DV?$StrTraitMFC_DLL@DV?$ChTraitsCRT@D@ATL@@@@@ATL@@QAE@XZ
__unwindfunclet$?Draw@CCommentItem@@QAEXPAVCDC@@@Z$1:
  00009	8d 4d d8	 lea	 ecx, DWORD PTR $T3[ebp]
  0000c	ff 25 00 00 00
	00		 jmp	 DWORD PTR __imp_??1?$CStringT@DV?$StrTraitMFC_DLL@DV?$ChTraitsCRT@D@ATL@@@@@ATL@@QAE@XZ
__unwindfunclet$?Draw@CCommentItem@@QAEXPAVCDC@@@Z$2:
  00012	8d 4d d8	 lea	 ecx, DWORD PTR $T2[ebp]
  00015	ff 25 00 00 00
	00		 jmp	 DWORD PTR __imp_??1?$CStringT@DV?$StrTraitMFC_DLL@DV?$ChTraitsCRT@D@ATL@@@@@ATL@@QAE@XZ
  0001b	cc		 int	 3
  0001c	cc		 int	 3
  0001d	cc		 int	 3
  0001e	cc		 int	 3
  0001f	cc		 int	 3
__ehhandler$?Draw@CCommentItem@@QAEXPAVCDC@@@Z:
  00020	90		 npad	 1
  00021	90		 npad	 1
  00022	8b 54 24 08	 mov	 edx, DWORD PTR [esp+8]
  00026	8d 42 0c	 lea	 eax, DWORD PTR [edx+12]
  00029	8b 4a d0	 mov	 ecx, DWORD PTR [edx-48]
  0002c	33 c8		 xor	 ecx, eax
  0002e	e8 00 00 00 00	 call	 @__security_check_cookie@4
  00033	8b 4a fc	 mov	 ecx, DWORD PTR [edx-4]
  00036	33 c8		 xor	 ecx, eax
  00038	e8 00 00 00 00	 call	 @__security_check_cookie@4
  0003d	b8 00 00 00 00	 mov	 eax, OFFSET __ehfuncinfo$?Draw@CCommentItem@@QAEXPAVCDC@@@Z
  00042	e9 00 00 00 00	 jmp	 ___CxxFrameHandler3
text$x	ENDS
?Draw@CCommentItem@@QAEXPAVCDC@@@Z ENDP			; CCommentItem::Draw
; Function compile flags: /Ogtp
; File D:\git\src\IBK\IBK_DRFN\ProjSrc\SrcChartEx\ChartAddIn\ChartOutsideCustomAddIn\ChartOutsideCustomAddIn\CommentObj.cpp
;	COMDAT ??1CCommentItem@@UAE@XZ
_TEXT	SEGMENT
??1CCommentItem@@UAE@XZ PROC				; CCommentItem::~CCommentItem, COMDAT
; _this$ = ecx

; 23   : {

  00000	56		 push	 esi
  00001	8b f1		 mov	 esi, ecx

; 24   : }

  00003	8d 4e 30	 lea	 ecx, DWORD PTR [esi+48]
  00006	c7 06 00 00 00
	00		 mov	 DWORD PTR [esi], OFFSET ??_7CCommentItem@@6B@
  0000c	ff 15 00 00 00
	00		 call	 DWORD PTR __imp_??1?$CStringT@DV?$StrTraitMFC_DLL@DV?$ChTraitsCRT@D@ATL@@@@@ATL@@QAE@XZ
  00012	8d 4e 2c	 lea	 ecx, DWORD PTR [esi+44]
  00015	ff 15 00 00 00
	00		 call	 DWORD PTR __imp_??1?$CStringT@DV?$StrTraitMFC_DLL@DV?$ChTraitsCRT@D@ATL@@@@@ATL@@QAE@XZ
  0001b	8d 4e 28	 lea	 ecx, DWORD PTR [esi+40]
  0001e	ff 15 00 00 00
	00		 call	 DWORD PTR __imp_??1?$CStringT@DV?$StrTraitMFC_DLL@DV?$ChTraitsCRT@D@ATL@@@@@ATL@@QAE@XZ
  00024	8d 4e 1c	 lea	 ecx, DWORD PTR [esi+28]
  00027	ff 15 00 00 00
	00		 call	 DWORD PTR __imp_??1?$CStringT@DV?$StrTraitMFC_DLL@DV?$ChTraitsCRT@D@ATL@@@@@ATL@@QAE@XZ
  0002d	8d 4e 14	 lea	 ecx, DWORD PTR [esi+20]
  00030	ff 15 00 00 00
	00		 call	 DWORD PTR __imp_??1?$CStringT@DV?$StrTraitMFC_DLL@DV?$ChTraitsCRT@D@ATL@@@@@ATL@@QAE@XZ
  00036	8d 4e 10	 lea	 ecx, DWORD PTR [esi+16]
  00039	ff 15 00 00 00
	00		 call	 DWORD PTR __imp_??1?$CStringT@DV?$StrTraitMFC_DLL@DV?$ChTraitsCRT@D@ATL@@@@@ATL@@QAE@XZ
  0003f	8d 4e 0c	 lea	 ecx, DWORD PTR [esi+12]
  00042	5e		 pop	 esi
  00043	ff 25 00 00 00
	00		 jmp	 DWORD PTR __imp_??1?$CStringT@DV?$StrTraitMFC_DLL@DV?$ChTraitsCRT@D@ATL@@@@@ATL@@QAE@XZ
??1CCommentItem@@UAE@XZ ENDP				; CCommentItem::~CCommentItem
_TEXT	ENDS
; Function compile flags: /Ogtp
; File D:\git\src\IBK\IBK_DRFN\ProjSrc\SrcChartEx\ChartAddIn\ChartOutsideCustomAddIn\ChartOutsideCustomAddIn\CommentObj.cpp
; File C:\Program Files (x86)\Microsoft Visual Studio\2019\Community\VC\Tools\MSVC\14.29.30133\atlmfc\include\atltypes.h
; File D:\git\src\IBK\IBK_DRFN\ProjSrc\SrcChartEx\ChartAddIn\ChartOutsideCustomAddIn\ChartOutsideCustomAddIn\CommentObj.cpp
; File C:\Program Files (x86)\Microsoft Visual Studio\2019\Community\VC\Tools\MSVC\14.29.30133\atlmfc\include\atltypes.h
; File D:\git\src\IBK\IBK_DRFN\ProjSrc\SrcChartEx\ChartAddIn\ChartOutsideCustomAddIn\ChartOutsideCustomAddIn\CommentObj.cpp
;	COMDAT ??0CCommentItem@@QAE@XZ
_TEXT	SEGMENT
_this$ = -4						; size = 4
??0CCommentItem@@QAE@XZ PROC				; CCommentItem::CCommentItem, COMDAT
; _this$ = ecx

; 19   : {

  00000	55		 push	 ebp
  00001	8b ec		 mov	 ebp, esp
  00003	51		 push	 ecx
  00004	56		 push	 esi
  00005	8b f1		 mov	 esi, ecx
  00007	89 75 fc	 mov	 DWORD PTR _this$[ebp], esi
  0000a	8d 4e 0c	 lea	 ecx, DWORD PTR [esi+12]
  0000d	c7 06 00 00 00
	00		 mov	 DWORD PTR [esi], OFFSET ??_7CCommentItem@@6B@
  00013	ff 15 00 00 00
	00		 call	 DWORD PTR __imp_??0?$CStringT@DV?$StrTraitMFC_DLL@DV?$ChTraitsCRT@D@ATL@@@@@ATL@@QAE@XZ
  00019	8d 4e 10	 lea	 ecx, DWORD PTR [esi+16]
  0001c	ff 15 00 00 00
	00		 call	 DWORD PTR __imp_??0?$CStringT@DV?$StrTraitMFC_DLL@DV?$ChTraitsCRT@D@ATL@@@@@ATL@@QAE@XZ
  00022	8d 4e 14	 lea	 ecx, DWORD PTR [esi+20]
  00025	ff 15 00 00 00
	00		 call	 DWORD PTR __imp_??0?$CStringT@DV?$StrTraitMFC_DLL@DV?$ChTraitsCRT@D@ATL@@@@@ATL@@QAE@XZ
  0002b	8d 4e 1c	 lea	 ecx, DWORD PTR [esi+28]
  0002e	ff 15 00 00 00
	00		 call	 DWORD PTR __imp_??0?$CStringT@DV?$StrTraitMFC_DLL@DV?$ChTraitsCRT@D@ATL@@@@@ATL@@QAE@XZ
  00034	8d 4e 28	 lea	 ecx, DWORD PTR [esi+40]
  00037	ff 15 00 00 00
	00		 call	 DWORD PTR __imp_??0?$CStringT@DV?$StrTraitMFC_DLL@DV?$ChTraitsCRT@D@ATL@@@@@ATL@@QAE@XZ
  0003d	8d 4e 2c	 lea	 ecx, DWORD PTR [esi+44]
  00040	ff 15 00 00 00
	00		 call	 DWORD PTR __imp_??0?$CStringT@DV?$StrTraitMFC_DLL@DV?$ChTraitsCRT@D@ATL@@@@@ATL@@QAE@XZ
  00046	8d 4e 30	 lea	 ecx, DWORD PTR [esi+48]
  00049	ff 15 00 00 00
	00		 call	 DWORD PTR __imp_??0?$CStringT@DV?$StrTraitMFC_DLL@DV?$ChTraitsCRT@D@ATL@@@@@ATL@@QAE@XZ
; File C:\Program Files (x86)\Microsoft Visual Studio\2019\Community\VC\Tools\MSVC\14.29.30133\atlmfc\include\atltypes.h

; 540  : 	left = l;

  0004f	c7 46 34 00 00
	00 00		 mov	 DWORD PTR [esi+52], 0
; File D:\git\src\IBK\IBK_DRFN\ProjSrc\SrcChartEx\ChartAddIn\ChartOutsideCustomAddIn\ChartOutsideCustomAddIn\CommentObj.cpp

; 20   : }

  00056	8b c6		 mov	 eax, esi
; File C:\Program Files (x86)\Microsoft Visual Studio\2019\Community\VC\Tools\MSVC\14.29.30133\atlmfc\include\atltypes.h

; 541  : 	top = t;

  00058	c7 46 38 00 00
	00 00		 mov	 DWORD PTR [esi+56], 0

; 542  : 	right = r;

  0005f	c7 46 3c 32 00
	00 00		 mov	 DWORD PTR [esi+60], 50	; 00000032H

; 543  : 	bottom = b;

  00066	c7 46 40 20 00
	00 00		 mov	 DWORD PTR [esi+64], 32	; 00000020H
; File D:\git\src\IBK\IBK_DRFN\ProjSrc\SrcChartEx\ChartAddIn\ChartOutsideCustomAddIn\ChartOutsideCustomAddIn\CommentObj.cpp

; 20   : }

  0006d	5e		 pop	 esi
  0006e	8b e5		 mov	 esp, ebp
  00070	5d		 pop	 ebp
  00071	c3		 ret	 0
??0CCommentItem@@QAE@XZ ENDP				; CCommentItem::CCommentItem
_TEXT	ENDS
; Function compile flags: /Ogtp
; File D:\git\src\IBK\IBK_DRFN\ProjSrc\SrcChartEx\ChartAddIn\ChartOutsideCustomAddIn\ChartOutsideCustomAddIn\CommentObj.cpp
;	COMDAT ?__empty_global_delete@@YAXPAXI@Z
_TEXT	SEGMENT
___formal$ = 8						; size = 4
___formal$ = 12						; size = 4
?__empty_global_delete@@YAXPAXI@Z PROC			; __empty_global_delete, COMDAT

  00000	c2 00 00	 ret	 0
?__empty_global_delete@@YAXPAXI@Z ENDP			; __empty_global_delete
_TEXT	ENDS
; Function compile flags: /Ogtp
; File D:\git\src\IBK\IBK_DRFN\ProjSrc\SrcChartEx\ChartAddIn\ChartOutsideCustomAddIn\ChartOutsideCustomAddIn\CommentObj.cpp
;	COMDAT ?__empty_global_delete@@YAXPAX@Z
_TEXT	SEGMENT
___formal$ = 8						; size = 4
?__empty_global_delete@@YAXPAX@Z PROC			; __empty_global_delete, COMDAT

  00000	c2 00 00	 ret	 0
?__empty_global_delete@@YAXPAX@Z ENDP			; __empty_global_delete
_TEXT	ENDS
END
