; Listing generated by Microsoft (R) Optimizing Compiler Version 19.29.30145.0 

	TITLE	D:\git\src\IBK\IBK_DRFN\#DRfn-CS\_Obj\ChartOutsideCustomAddIn\OrderLineAddinImp.obj
	.686P
	.XMM
	include listing.inc
	.model	flat

INCLUDELIB MSVCRT
INCLUDELIB OLDNAMES

PUBLIC	??_C@_0L@ELKNJAAE@ORDER_LINE@			; `string'
PUBLIC	?m_eRegisteredEventMap@COrderLineAddInImp@@1QBW4EAddInEventType@IChartAddIn003531@@B ; COrderLineAddInImp::m_eRegisteredEventMap
PUBLIC	??_C@_0BC@MMPGLPDH@RMS_ANALYSIS_FUNC@		; `string'
;	COMDAT ??_C@_0BC@MMPGLPDH@RMS_ANALYSIS_FUNC@
CONST	SEGMENT
??_C@_0BC@MMPGLPDH@RMS_ANALYSIS_FUNC@ DB 'RMS_ANALYSIS_FUNC', 00H ; `string'
CONST	ENDS
CONST	SEGMENT
?m_eRegisteredEventMap@COrderLineAddInImp@@1QBW4EAddInEventType@IChartAddIn003531@@B DD 014H ; COrderLineAddInImp::m_eRegisteredEventMap
	DD	015H
	DD	035H
	DD	022H
	DD	01dH
	DD	01aH
	DD	01bH
	DD	019H
	DD	021H
	DD	02fH
	DD	022H
	DD	030H
	DD	037H
	DD	03dH
	ORG $+192
CONST	ENDS
;	COMDAT ??_C@_0L@ELKNJAAE@ORDER_LINE@
CONST	SEGMENT
??_C@_0L@ELKNJAAE@ORDER_LINE@ DB 'ORDER_LINE', 00H	; `string'
CONST	ENDS
PUBLIC	??_H@YGXPAXIIP6EPAX0@Z@Z			; `vector constructor iterator'
PUBLIC	?__empty_global_delete@@YAXPAX@Z		; __empty_global_delete
PUBLIC	?__empty_global_delete@@YAXPAXI@Z		; __empty_global_delete
PUBLIC	?AfxCrtErrorCheck@@YAHH@Z			; AfxCrtErrorCheck
PUBLIC	??1CObject@@UAE@XZ				; CObject::~CObject
PUBLIC	?Serialize@CObject@@UAEXAAVCArchive@@@Z		; CObject::Serialize
PUBLIC	?AssertValid@CObject@@UBEXXZ			; CObject::AssertValid
PUBLIC	?Dump@CObject@@UBEXAAVCDumpContext@@@Z		; CObject::Dump
PUBLIC	?GetYear@CTime@ATL@@QBEHXZ			; ATL::CTime::GetYear
PUBLIC	?GetMonth@CTime@ATL@@QBEHXZ			; ATL::CTime::GetMonth
PUBLIC	?GetDay@CTime@ATL@@QBEHXZ			; ATL::CTime::GetDay
PUBLIC	?GetHour@CTime@ATL@@QBEHXZ			; ATL::CTime::GetHour
PUBLIC	?GetMinute@CTime@ATL@@QBEHXZ			; ATL::CTime::GetMinute
PUBLIC	??0CPoint@@QAE@XZ				; CPoint::CPoint
PUBLIC	??8CPoint@@QBEHUtagPOINT@@@Z			; CPoint::operator==
PUBLIC	??1CGdiObject@@UAE@XZ				; CGdiObject::~CGdiObject
PUBLIC	??_GCGdiObject@@UAEPAXI@Z			; CGdiObject::`scalar deleting destructor'
PUBLIC	??1CPen@@UAE@XZ					; CPen::~CPen
PUBLIC	??_GCPen@@UAEPAXI@Z				; CPen::`scalar deleting destructor'
PUBLIC	??1CBrush@@UAE@XZ				; CBrush::~CBrush
PUBLIC	??_GCBrush@@UAEPAXI@Z				; CBrush::`scalar deleting destructor'
PUBLIC	??1CFont@@UAE@XZ				; CFont::~CFont
PUBLIC	??_GCFont@@UAEPAXI@Z				; CFont::`scalar deleting destructor'
PUBLIC	??1CMenu@@UAE@XZ				; CMenu::~CMenu
PUBLIC	??_GCMenu@@UAEPAXI@Z				; CMenu::`scalar deleting destructor'
PUBLIC	?PostConstruct@CIWUnknown@@MAEXXZ		; CIWUnknown::PostConstruct
PUBLIC	?PreDestructX@CIWUnknown@@MAEXXZ		; CIWUnknown::PreDestructX
PUBLIC	?PreDestruct@CIWUnknown@@MAEXXZ			; CIWUnknown::PreDestruct
PUBLIC	?AddRef@CChartAddInBase003531@@MAGKXZ		; CChartAddInBase003531::AddRef
PUBLIC	?Release@CChartAddInBase003531@@MAGKXZ		; CChartAddInBase003531::Release
PUBLIC	?QueryInterface@CChartAddInBase003531@@MAGJABU_GUID@@PAPAX@Z ; CChartAddInBase003531::QueryInterface
PUBLIC	?GetAddInCustomInterface@CChartAddInBase003531@@MAEPAUIUnknown@@XZ ; CChartAddInBase003531::GetAddInCustomInterface
PUBLIC	?AfeterOnOcxDestroyWindow@CChartAddInBase003531@@MAEXXZ ; CChartAddInBase003531::AfeterOnOcxDestroyWindow
PUBLIC	?ChangeChartMode@CChartAddInBase003531@@MAEXW4CHART_MODE@CChartInfo@@@Z ; CChartAddInBase003531::ChangeChartMode
PUBLIC	?OnGSharedDataChange@CChartAddInBase003531@@MAEXPBD0H@Z ; CChartAddInBase003531::OnGSharedDataChange
PUBLIC	?OnLSharedDataChange@CChartAddInBase003531@@MAEXPBD0@Z ; CChartAddInBase003531::OnLSharedDataChange
PUBLIC	?OnPacketDataMultiItem@CChartAddInBase003531@@MAEXPBD0H@Z ; CChartAddInBase003531::OnPacketDataMultiItem
PUBLIC	?OnTimer@CChartAddInBase003531@@MAEXI@Z		; CChartAddInBase003531::OnTimer
PUBLIC	?OnCaptureChanged@CChartAddInBase003531@@MAEXPAUHWND__@@QAUHBITMAP__@@@Z ; CChartAddInBase003531::OnCaptureChanged
PUBLIC	?OnResetMainBlock@CChartAddInBase003531@@MAEXXZ	; CChartAddInBase003531::OnResetMainBlock
PUBLIC	?OnUserIndiatorConditionLoaded@CChartAddInBase003531@@MAEXXZ ; CChartAddInBase003531::OnUserIndiatorConditionLoaded
PUBLIC	?OnChartItemChanged@CChartAddInBase003531@@MAEXXZ ; CChartAddInBase003531::OnChartItemChanged
PUBLIC	?OnGraphDataChanged@CChartAddInBase003531@@MAEXXZ ; CChartAddInBase003531::OnGraphDataChanged
PUBLIC	?OnBlockRemoved@CChartAddInBase003531@@MAEXHH@Z	; CChartAddInBase003531::OnBlockRemoved
PUBLIC	?OnGraphAdded@CChartAddInBase003531@@MAEXPBD0@Z	; CChartAddInBase003531::OnGraphAdded
PUBLIC	?OnManualRealData@CChartAddInBase003531@@MAEXPBDNH@Z ; CChartAddInBase003531::OnManualRealData
PUBLIC	?OnContextMenu@CChartAddInBase003531@@MAEXPAUHWND__@@AAUtagPOINT@@@Z ; CChartAddInBase003531::OnContextMenu
PUBLIC	?OnGraphDeleted@CChartAddInBase003531@@MAEXPBD0@Z ; CChartAddInBase003531::OnGraphDeleted
PUBLIC	?OnPacketTruncated@CChartAddInBase003531@@MAEXH@Z ; CChartAddInBase003531::OnPacketTruncated
PUBLIC	?OnBlockChanged@CChartAddInBase003531@@MAEXW4BLOCKBEHAVIOR@CBlockBaseData@@HHHH@Z ; CChartAddInBase003531::OnBlockChanged
PUBLIC	?OnIndexedRealData@CChartAddInBase003531@@MAEXPBDHN@Z ; CChartAddInBase003531::OnIndexedRealData
PUBLIC	?OnRealPacketEnd@CChartAddInBase003531@@MAEXPBD@Z ; CChartAddInBase003531::OnRealPacketEnd
PUBLIC	?OnLoadEnvironment@CChartAddInBase003531@@MAEXPAUIPropertyMap@@@Z ; CChartAddInBase003531::OnLoadEnvironment
PUBLIC	?OnSaveEnvironment@CChartAddInBase003531@@MAEXPAUIPropertyMap@@@Z ; CChartAddInBase003531::OnSaveEnvironment
PUBLIC	?OnRecalculationComplete@CChartAddInBase003531@@MAEXXZ ; CChartAddInBase003531::OnRecalculationComplete
PUBLIC	?OnPreRealData@CChartAddInBase003531@@MAEHPBDAAN0H@Z ; CChartAddInBase003531::OnPreRealData
PUBLIC	?OnPreIndexedRealData@CChartAddInBase003531@@MAEHPBDHAANH@Z ; CChartAddInBase003531::OnPreIndexedRealData
PUBLIC	?OnPreRealPacketEnd@CChartAddInBase003531@@MAEHPBDH@Z ; CChartAddInBase003531::OnPreRealPacketEnd
PUBLIC	?OnPreNMTRClock@CChartAddInBase003531@@MAEHAA_J@Z ; CChartAddInBase003531::OnPreNMTRClock
PUBLIC	?OnCmdMsg@CChartAddInBase003531@@MAEHIHPAUICmdUI003531@@@Z ; CChartAddInBase003531::OnCmdMsg
PUBLIC	?OnAddInMsg@CChartAddInBase003531@@MAEHPBDJ@Z	; CChartAddInBase003531::OnAddInMsg
PUBLIC	?OnAddInToolCommand@CChartAddInBase003531@@MAEHW4EAICommandType@@@Z ; CChartAddInBase003531::OnAddInToolCommand
PUBLIC	?OnAddInToolCommand@CChartAddInBase003531@@MAEHW4EAICommandType@@PAUHDC__@@IAAUtagPOINT@@K@Z ; CChartAddInBase003531::OnAddInToolCommand
PUBLIC	?OnAddInToolCommand@CChartAddInBase003531@@MAEHW4EAICommandType@@PBD@Z ; CChartAddInBase003531::OnAddInToolCommand
PUBLIC	?OnAddInToolCommand@CChartAddInBase003531@@MAEHW4EAICommandType@@PBD1@Z ; CChartAddInBase003531::OnAddInToolCommand
PUBLIC	?OnAddInToolCommand@CChartAddInBase003531@@MAEHW4EAICommandType@@PBDJ@Z ; CChartAddInBase003531::OnAddInToolCommand
PUBLIC	?OnAddInToolCommand@CChartAddInBase003531@@MAEHW4EAICommandType@@PBUIAddInDllBase@@@Z ; CChartAddInBase003531::OnAddInToolCommand
PUBLIC	?OnAddInToolCommand@CChartAddInBase003531@@MAEHW4EAICommandType@@J@Z ; CChartAddInBase003531::OnAddInToolCommand
PUBLIC	?OnAddInToolCommand@CChartAddInBase003531@@MAEHW4EAICommandType@@JPBD@Z ; CChartAddInBase003531::OnAddInToolCommand
PUBLIC	?OnAddInToolCommand@CChartAddInBase003531@@MAEHW4EAICommandType@@JPBD11@Z ; CChartAddInBase003531::OnAddInToolCommand
PUBLIC	?OnAddInToolCommand@CChartAddInBase003531@@MAEHW4EAICommandType@@JJ@Z ; CChartAddInBase003531::OnAddInToolCommand
PUBLIC	?OnAddInToolCommand@CChartAddInBase003531@@MAEHW4EAICommandType@@JJJJJJJJJ@Z ; CChartAddInBase003531::OnAddInToolCommand
PUBLIC	?OnAddInToolCommand@CChartAddInBase003531@@MAEHAAJW4EAICommandType@@@Z ; CChartAddInBase003531::OnAddInToolCommand
PUBLIC	?OnAddInToolCommand@CChartAddInBase003531@@MAEHAAJW4EAICommandType@@PAUIGraphInfo003531@@@Z ; CChartAddInBase003531::OnAddInToolCommand
PUBLIC	?OnAddInToolCommand@CChartAddInBase003531@@MAEHAAJW4EAICommandType@@PBD@Z ; CChartAddInBase003531::OnAddInToolCommand
PUBLIC	?OnAddInToolCommand@CChartAddInBase003531@@MAEHAAJW4EAICommandType@@PBDPAVCObject@@@Z ; CChartAddInBase003531::OnAddInToolCommand
PUBLIC	?OnAddInToolCommand@CChartAddInBase003531@@MAEHAAJW4EAICommandType@@J@Z ; CChartAddInBase003531::OnAddInToolCommand
PUBLIC	?OnAddInToolCommand@CChartAddInBase003531@@MAEHAAJW4EAICommandType@@JJ@Z ; CChartAddInBase003531::OnAddInToolCommand
PUBLIC	?OnKeyDown@CChartAddInBase003531@@MAEHIII@Z	; CChartAddInBase003531::OnKeyDown
PUBLIC	?OnKeyUp@CChartAddInBase003531@@MAEHIII@Z	; CChartAddInBase003531::OnKeyUp
PUBLIC	?OnMouseWheel@CChartAddInBase003531@@MAEHIFUtagPOINT@@K@Z ; CChartAddInBase003531::OnMouseWheel
PUBLIC	?OnRButtonDown@CChartAddInBase003531@@MAEHPAUHDC__@@IAAUtagPOINT@@K@Z ; CChartAddInBase003531::OnRButtonDown
PUBLIC	?OnRButtonDblClk@CChartAddInBase003531@@MAEHPAUHDC__@@IAAUtagPOINT@@K@Z ; CChartAddInBase003531::OnRButtonDblClk
PUBLIC	??0COrderLine@@QAE@XZ				; COrderLine::COrderLine
PUBLIC	??0COrderLine@@QAE@VCPoint@@0N@Z		; COrderLine::COrderLine
PUBLIC	??1COrderLine@@UAE@XZ				; COrderLine::~COrderLine
PUBLIC	?GetPrevPoint@COrderLine@@QAE?AVCPoint@@XZ	; COrderLine::GetPrevPoint
PUBLIC	?GetEndPoint@COrderLine@@QAE?AVCPoint@@XZ	; COrderLine::GetEndPoint
PUBLIC	?ShowOrderLine@COrderLine@@QAEXPAVCDC@@@Z	; COrderLine::ShowOrderLine
PUBLIC	?HideOrderLine@COrderLine@@QAEXPAVCDC@@@Z	; COrderLine::HideOrderLine
PUBLIC	?IsInRegion@COrderLine@@QAEHVCPoint@@@Z		; COrderLine::IsInRegion
PUBLIC	?IsOnLine@COrderLine@@QAEHVCPoint@@@Z		; COrderLine::IsOnLine
PUBLIC	?IsOnTable@COrderLine@@QAEHVCPoint@@@Z		; COrderLine::IsOnTable
PUBLIC	?GetRect@COrderLine@@QAE?AVCRect@@XZ		; COrderLine::GetRect
PUBLIC	?GetPostion@COrderLine@@QAE?AVCPoint@@XZ	; COrderLine::GetPostion
PUBLIC	?SetPosition@COrderLine@@QAEXVCPoint@@H@Z	; COrderLine::SetPosition
PUBLIC	?MouseLButtonDown@COrderLine@@QAEXABVCPoint@@@Z	; COrderLine::MouseLButtonDown
PUBLIC	?MouseLButtonUp@COrderLine@@QAEXABVCPoint@@@Z	; COrderLine::MouseLButtonUp
PUBLIC	?MouseRButtonUp@COrderLine@@QAEXABVCPoint@@@Z	; COrderLine::MouseRButtonUp
PUBLIC	?Draw@COrderLine@@QAEXPAVCDC@@@Z		; COrderLine::Draw
PUBLIC	?DrawOrderLine@COrderLine@@QAEXPAVCDC@@@Z	; COrderLine::DrawOrderLine
PUBLIC	?DrawChgLine@COrderLine@@QAEXPAVCDC@@@Z		; COrderLine::DrawChgLine
PUBLIC	?DrawOrderLineOnMouseOver@COrderLine@@QAEXPAVCDC@@@Z ; COrderLine::DrawOrderLineOnMouseOver
PUBLIC	?DrawOrderText@COrderLine@@QAEXPAVCDC@@@Z	; COrderLine::DrawOrderText
PUBLIC	?DrawOrderTable@COrderLine@@QAEXPAVCDC@@@Z	; COrderLine::DrawOrderTable
PUBLIC	?DrawEscapeTriangle@COrderLine@@QAEXPAVCDC@@@Z	; COrderLine::DrawEscapeTriangle
PUBLIC	?GetToolTipText@COrderLine@@QAE?AV?$CStringT@DV?$StrTraitMFC_DLL@DV?$ChTraitsCRT@D@ATL@@@@@ATL@@XZ ; COrderLine::GetToolTipText
PUBLIC	??_GCOrderLine@@UAEPAXI@Z			; COrderLine::`scalar deleting destructor'
PUBLIC	??0COrderLineAddInImp@@QAE@PAUIChartOCX003531@@PAUIAddInDllBase@@@Z ; COrderLineAddInImp::COrderLineAddInImp
PUBLIC	??1COrderLineAddInImp@@UAE@XZ			; COrderLineAddInImp::~COrderLineAddInImp
PUBLIC	?GetRegisteredEventMap@COrderLineAddInImp@@MBEPBW4EAddInEventType@IChartAddIn003531@@XZ ; COrderLineAddInImp::GetRegisteredEventMap
PUBLIC	??0?$CArray@PAVCCommentItem@@PAV1@@@QAE@XZ	; CArray<CCommentItem *,CCommentItem *>::CArray<CCommentItem *,CCommentItem *>
PUBLIC	?SetSize@?$CArray@PAVCCommentItem@@PAV1@@@QAEXHH@Z ; CArray<CCommentItem *,CCommentItem *>::SetSize
PUBLIC	?SetAtGrow@?$CArray@PAVCCommentItem@@PAV1@@@QAEXHPAVCCommentItem@@@Z ; CArray<CCommentItem *,CCommentItem *>::SetAtGrow
PUBLIC	??1?$CArray@PAVCCommentItem@@PAV1@@@UAE@XZ	; CArray<CCommentItem *,CCommentItem *>::~CArray<CCommentItem *,CCommentItem *>
PUBLIC	?Serialize@?$CArray@PAVCCommentItem@@PAV1@@@UAEXAAVCArchive@@@Z ; CArray<CCommentItem *,CCommentItem *>::Serialize
PUBLIC	??_G?$CArray@PAVCCommentItem@@PAV1@@@UAEPAXI@Z	; CArray<CCommentItem *,CCommentItem *>::`scalar deleting destructor'
PUBLIC	?SetMouseCursor@COrderLineAddInImp@@QAEXH@Z	; COrderLineAddInImp::SetMouseCursor
PUBLIC	?SetOpenPosition@COrderLineAddInImp@@QAEXPAUFX_CHE_STRUCT@@@Z ; COrderLineAddInImp::SetOpenPosition
PUBLIC	?SetPendingPosition@COrderLineAddInImp@@QAEXPAUFX_CHE_STRUCT@@@Z ; COrderLineAddInImp::SetPendingPosition
PUBLIC	?CheckTypeAndSet@COrderLineAddInImp@@QAEHPAUFX_CHE_STRUCT@@H@Z ; COrderLineAddInImp::CheckTypeAndSet
PUBLIC	?AddOpenPosition@COrderLineAddInImp@@QAEXPAUFX_CHE_STRUCT@@H@Z ; COrderLineAddInImp::AddOpenPosition
PUBLIC	?AddPendingPosition@COrderLineAddInImp@@QAEXPAUFX_CHE_STRUCT@@H@Z ; COrderLineAddInImp::AddPendingPosition
PUBLIC	?CheckAllTypeLineAndDoFunc@COrderLineAddInImp@@QAEXPAVCObList@@PAVCDC@@@Z ; COrderLineAddInImp::CheckAllTypeLineAndDoFunc
PUBLIC	?CheckIsLineInScreen@COrderLineAddInImp@@QAEXPAVCOrderLine@@@Z ; COrderLineAddInImp::CheckIsLineInScreen
PUBLIC	?SetData@COrderLineAddInImp@@QAEXPAVCOrderLine@@PAUFX_CHE_STRUCT@@HH@Z ; COrderLineAddInImp::SetData
PUBLIC	?SetOrderInfomation@COrderLineAddInImp@@QAEXVCPoint@@@Z ; COrderLineAddInImp::SetOrderInfomation
PUBLIC	?DrawVertText@COrderLineAddInImp@@QAEXPAUHDC__@@VCPoint@@@Z ; COrderLineAddInImp::DrawVertText
PUBLIC	?DrawHorzText@COrderLineAddInImp@@QAEXPAUHDC__@@VCPoint@@@Z ; COrderLineAddInImp::DrawHorzText
PUBLIC	?DrawCrossLine@COrderLineAddInImp@@QAEXPAUHDC__@@VCPoint@@@Z ; COrderLineAddInImp::DrawCrossLine
PUBLIC	?FindandSet@COrderLineAddInImp@@QAEHPAUFX_CHE_STRUCT@@HAAV?$CStringT@DV?$StrTraitMFC_DLL@DV?$ChTraitsCRT@D@ATL@@@@@ATL@@@Z ; COrderLineAddInImp::FindandSet
PUBLIC	?IsPointInLine@COrderLineAddInImp@@QAEHPAVCObList@@VCPoint@@@Z ; COrderLineAddInImp::IsPointInLine
PUBLIC	?SetLineStatusOnMouseMove@COrderLineAddInImp@@QAEHVCPoint@@@Z ; COrderLineAddInImp::SetLineStatusOnMouseMove
PUBLIC	?SetOrderLineShowAndMouseOver@COrderLineAddInImp@@QAEXPAU__POSITION@@PAVCObList@@H@Z ; COrderLineAddInImp::SetOrderLineShowAndMouseOver
PUBLIC	?SetCommentData@COrderLineAddInImp@@QAEXPAUFX_CHE_STRUCT@@@Z ; COrderLineAddInImp::SetCommentData
PUBLIC	?SetCommentStatusOnMouseMove@COrderLineAddInImp@@QAEHVCPoint@@@Z ; COrderLineAddInImp::SetCommentStatusOnMouseMove
PUBLIC	?SetRemove_CommentData@COrderLineAddInImp@@QAEXXZ ; COrderLineAddInImp::SetRemove_CommentData
PUBLIC	?GetIndexFromValue@COrderLineAddInImp@@QAEHV?$CStringT@DV?$StrTraitMFC_DLL@DV?$ChTraitsCRT@D@ATL@@@@@ATL@@AAJ@Z ; COrderLineAddInImp::GetIndexFromValue
PUBLIC	?GetGraphBlockRegion@COrderLineAddInImp@@IAEHXZ	; COrderLineAddInImp::GetGraphBlockRegion
PUBLIC	?GetGraphVScaleRegion@COrderLineAddInImp@@IAEHXZ ; COrderLineAddInImp::GetGraphVScaleRegion
PUBLIC	?SetRemove_OrderLine@COrderLineAddInImp@@IAEXXZ	; COrderLineAddInImp::SetRemove_OrderLine
PUBLIC	?FindLineAndSelect@COrderLineAddInImp@@IAEHPAVCObList@@VCPoint@@@Z ; COrderLineAddInImp::FindLineAndSelect
PUBLIC	?InitToolTip@COrderLineAddInImp@@IAEXXZ		; COrderLineAddInImp::InitToolTip
PUBLIC	?AddToolInTooltip@COrderLineAddInImp@@IAEXABV?$CStringT@DV?$StrTraitMFC_DLL@DV?$ChTraitsCRT@D@ATL@@@@@ATL@@_N@Z ; COrderLineAddInImp::AddToolInTooltip
PUBLIC	?SetToolTipText@COrderLineAddInImp@@IAEXABV?$CStringT@DV?$StrTraitMFC_DLL@DV?$ChTraitsCRT@D@ATL@@@@@ATL@@@Z ; COrderLineAddInImp::SetToolTipText
PUBLIC	?SetToolTipText@COrderLineAddInImp@@IAEXABV?$CStringT@DV?$StrTraitMFC_DLL@DV?$ChTraitsCRT@D@ATL@@@@@ATL@@_N@Z ; COrderLineAddInImp::SetToolTipText
PUBLIC	?OnLButtonDownForYZoom@COrderLineAddInImp@@IAEHPAUHDC__@@IAAUtagPOINT@@K@Z ; COrderLineAddInImp::OnLButtonDownForYZoom
PUBLIC	?OnMouseMoveForYZoom@COrderLineAddInImp@@IAEHPAUHDC__@@IAAUtagPOINT@@KQAUHBITMAP__@@@Z ; COrderLineAddInImp::OnMouseMoveForYZoom
PUBLIC	?OnLButtonUpForYZoom@COrderLineAddInImp@@IAEHPAUHDC__@@IAAUtagPOINT@@K@Z ; COrderLineAddInImp::OnLButtonUpForYZoom
PUBLIC	?InvokeAddInStr@COrderLineAddInImp@@MAEHPBD0@Z	; COrderLineAddInImp::InvokeAddInStr
PUBLIC	?OnResetChart@COrderLineAddInImp@@MAEXXZ	; COrderLineAddInImp::OnResetChart
PUBLIC	?OnDrawAfterGraph@COrderLineAddInImp@@MAEXPAUHDC__@@@Z ; COrderLineAddInImp::OnDrawAfterGraph
PUBLIC	?OnDrawBeforeGraph@COrderLineAddInImp@@MAEXPAUHDC__@@@Z ; COrderLineAddInImp::OnDrawBeforeGraph
PUBLIC	?DrawCursor@COrderLineAddInImp@@MAE?AUtagRECT@@PAUHDC__@@@Z ; COrderLineAddInImp::DrawCursor
PUBLIC	?OnMouseMove@COrderLineAddInImp@@MAEHPAUHDC__@@IAAUtagPOINT@@KQAUHBITMAP__@@@Z ; COrderLineAddInImp::OnMouseMove
PUBLIC	?OnLButtonDown@COrderLineAddInImp@@MAEHPAUHDC__@@IAAUtagPOINT@@K@Z ; COrderLineAddInImp::OnLButtonDown
PUBLIC	?OnLButtonUp@COrderLineAddInImp@@MAEHPAUHDC__@@IAAUtagPOINT@@K@Z ; COrderLineAddInImp::OnLButtonUp
PUBLIC	?OnLButtonDblClk@COrderLineAddInImp@@MAEHPAUHDC__@@IAAUtagPOINT@@K@Z ; COrderLineAddInImp::OnLButtonDblClk
PUBLIC	?OnRButtonUp@COrderLineAddInImp@@MAEHPAUHDC__@@IAAUtagPOINT@@K@Z ; COrderLineAddInImp::OnRButtonUp
PUBLIC	?OnToolCommand@COrderLineAddInImp@@MAEXHH@Z	; COrderLineAddInImp::OnToolCommand
PUBLIC	?OnRealData@COrderLineAddInImp@@MAEXPBDN0@Z	; COrderLineAddInImp::OnRealData
PUBLIC	?OnUpdatePacketData@COrderLineAddInImp@@MAEXH@Z	; COrderLineAddInImp::OnUpdatePacketData
PUBLIC	?InvokeAddIn@COrderLineAddInImp@@MAEHHJ@Z	; COrderLineAddInImp::InvokeAddIn
PUBLIC	??_GCOrderLineAddInImp@@UAEPAXI@Z		; COrderLineAddInImp::`scalar deleting destructor'
PUBLIC	??1CMultiLanguageResourceSetter@@QAE@XZ		; CMultiLanguageResourceSetter::~CMultiLanguageResourceSetter
PUBLIC	??1ILPCSTR003531@@QAE@XZ			; ILPCSTR003531::~ILPCSTR003531
PUBLIC	??$SerializeElements@PAVCCommentItem@@@@YGXAAVCArchive@@PAPAVCCommentItem@@H@Z ; SerializeElements<CCommentItem *>
PUBLIC	?QueryInterface@CChartAddInBase003531@@O7AGJABU_GUID@@PAPAX@Z ; [thunk]:CChartAddInBase003531::QueryInterface`adjustor{8}'
PUBLIC	?AddRef@CChartAddInBase003531@@O7AGKXZ		; [thunk]:CChartAddInBase003531::AddRef`adjustor{8}'
PUBLIC	?Release@CChartAddInBase003531@@O7AGKXZ		; [thunk]:CChartAddInBase003531::Release`adjustor{8}'
PUBLIC	??_ECOrderLineAddInImp@@W7AEPAXI@Z		; [thunk]:COrderLineAddInImp::`vector deleting destructor'
PUBLIC	??_R0PAVCException@@@8				; CException * `RTTI Type Descriptor'
PUBLIC	??_C@_02DPKJAMEF@?$CFd@				; `string'
PUBLIC	??_C@_00CNPNBAHC@@				; `string'
PUBLIC	??_7CGdiObject@@6B@				; CGdiObject::`vftable'
PUBLIC	??_7CPen@@6B@					; CPen::`vftable'
PUBLIC	??_7CBrush@@6B@					; CBrush::`vftable'
PUBLIC	??_7CFont@@6B@					; CFont::`vftable'
PUBLIC	??_7CMenu@@6B@					; CMenu::`vftable'
PUBLIC	??_C@_0HD@JJCHHHNK@C?3?2Program?5Files?5?$CIx86?$CJ?2Microsof@ ; `string'
PUBLIC	??_C@_0BP@OIEOKIDM@Exception?5thrown?5in?5destructor@ ; `string'
PUBLIC	??_C@_0BB@HBOOMJBF@?$CFTs?5?$CI?$CFTs?3?$CFd?$CJ?6?$CFTs@ ; `string'
PUBLIC	??_C@_0N@OMEMOKLE@?$CFTs?5?$CI?$CFTs?3?$CFd?$CJ@ ; `string'
PUBLIC	??_R0?AVCObject@@@8				; CObject `RTTI Type Descriptor'
PUBLIC	??_R3CObject@@8					; CObject::`RTTI Class Hierarchy Descriptor'
PUBLIC	??_R2CObject@@8					; CObject::`RTTI Base Class Array'
PUBLIC	??_R1A@?0A@EA@CObject@@8			; CObject::`RTTI Base Class Descriptor at (0,-1,0,64)'
PUBLIC	??_R0?AUIUnknown@@@8				; IUnknown `RTTI Type Descriptor'
PUBLIC	??_R3IUnknown@@8				; IUnknown::`RTTI Class Hierarchy Descriptor'
PUBLIC	??_R2IUnknown@@8				; IUnknown::`RTTI Base Class Array'
PUBLIC	??_R1A@?0A@EA@IUnknown@@8			; IUnknown::`RTTI Base Class Descriptor at (0,-1,0,64)'
PUBLIC	??_R4CGdiObject@@6B@				; CGdiObject::`RTTI Complete Object Locator'
PUBLIC	??_R0?AVCGdiObject@@@8				; CGdiObject `RTTI Type Descriptor'
PUBLIC	??_R3CGdiObject@@8				; CGdiObject::`RTTI Class Hierarchy Descriptor'
PUBLIC	??_R2CGdiObject@@8				; CGdiObject::`RTTI Base Class Array'
PUBLIC	??_R1A@?0A@EA@CGdiObject@@8			; CGdiObject::`RTTI Base Class Descriptor at (0,-1,0,64)'
PUBLIC	??_R4CPen@@6B@					; CPen::`RTTI Complete Object Locator'
PUBLIC	??_R0?AVCPen@@@8				; CPen `RTTI Type Descriptor'
PUBLIC	??_R3CPen@@8					; CPen::`RTTI Class Hierarchy Descriptor'
PUBLIC	??_R2CPen@@8					; CPen::`RTTI Base Class Array'
PUBLIC	??_R1A@?0A@EA@CPen@@8				; CPen::`RTTI Base Class Descriptor at (0,-1,0,64)'
PUBLIC	??_R4CBrush@@6B@				; CBrush::`RTTI Complete Object Locator'
PUBLIC	??_R0?AVCBrush@@@8				; CBrush `RTTI Type Descriptor'
PUBLIC	??_R3CBrush@@8					; CBrush::`RTTI Class Hierarchy Descriptor'
PUBLIC	??_R2CBrush@@8					; CBrush::`RTTI Base Class Array'
PUBLIC	??_R1A@?0A@EA@CBrush@@8				; CBrush::`RTTI Base Class Descriptor at (0,-1,0,64)'
PUBLIC	??_R4CFont@@6B@					; CFont::`RTTI Complete Object Locator'
PUBLIC	??_R0?AVCFont@@@8				; CFont `RTTI Type Descriptor'
PUBLIC	??_R3CFont@@8					; CFont::`RTTI Class Hierarchy Descriptor'
PUBLIC	??_R2CFont@@8					; CFont::`RTTI Base Class Array'
PUBLIC	??_R1A@?0A@EA@CFont@@8				; CFont::`RTTI Base Class Descriptor at (0,-1,0,64)'
PUBLIC	??_R4CMenu@@6B@					; CMenu::`RTTI Complete Object Locator'
PUBLIC	??_R0?AVCMenu@@@8				; CMenu `RTTI Type Descriptor'
PUBLIC	??_R3CMenu@@8					; CMenu::`RTTI Class Hierarchy Descriptor'
PUBLIC	??_R2CMenu@@8					; CMenu::`RTTI Base Class Array'
PUBLIC	??_R1A@?0A@EA@CMenu@@8				; CMenu::`RTTI Base Class Descriptor at (0,-1,0,64)'
PUBLIC	??_7COrderLine@@6B@				; COrderLine::`vftable'
PUBLIC	?m_strAddInItemName@COrderLineAddInImp@@2V?$CStringT@DV?$StrTraitMFC_DLL@DV?$ChTraitsCRT@D@ATL@@@@@ATL@@A ; COrderLineAddInImp::m_strAddInItemName
PUBLIC	??_7?$CArray@PAVCCommentItem@@PAV1@@@6B@	; CArray<CCommentItem *,CCommentItem *>::`vftable'
PUBLIC	??_7COrderLineAddInImp@@6BCIWUnknown@@@		; COrderLineAddInImp::`vftable'
PUBLIC	??_7COrderLineAddInImp@@6BIChartAddIn003531@@@	; COrderLineAddInImp::`vftable'
PUBLIC	??_C@_03BDAKGON@079@				; `string'
PUBLIC	??_C@_04NGFLBEEM@?$LI?E?$LM?v@			; `string'
PUBLIC	??_C@_03MCLFGLNI@081@				; `string'
PUBLIC	??_C@_04CNODDAF@?$LI?E?$LF?$LF@			; `string'
PUBLIC	??_C@_03NLKOFKJJ@080@				; `string'
PUBLIC	??_C@_03OJJIDIBL@082@				; `string'
PUBLIC	??_C@_03DLDNIBIK@?$CFlf@			; `string'
PUBLIC	??_C@_0BG@HNPHDGJO@Stop?$DM?$CFs?$DO?0?5?$DM?$CFld?$DO?0?5?$DM?$CFs?$DO@ ; `string'
PUBLIC	??_C@_0BH@IIKNGHIO@Limit?$DM?$CFs?$DO?0?5?$DM?$CFld?$DO?0?5?$DM?$CFs?$DO@ ; `string'
PUBLIC	??_C@_0BI@IPLBKFJF@?$LJ?L?C?$LL?$LL?j?$DM?$CFs?$DO?0?5?$DM?$CFld?$DO?0?5?$DM?$CFs?$DO@ ; `string'
PUBLIC	??_C@_0BI@HONDCDJJ@?$LJ?L?C?$LM?$LA?a?$DM?$CFs?$DO?0?5?$DM?$CFld?$DO?0?5?$DM?$CFs?$DO@ ; `string'
PUBLIC	??_C@_01GBGANLPD@0@				; `string'
PUBLIC	??_C@_0BD@JAHIENFA@?$DMStop?$DO?5?$AN?6?$LA?$KB?$LA?$NN?5?3?5?$CFs@ ; `string'
PUBLIC	??_C@_0BE@NKANEIMB@?$DMLimit?$DO?5?$AN?6?$LA?$KB?$LA?$NN?5?3?5?$CFs@ ; `string'
PUBLIC	??_C@_0EO@FPIPCAHD@?F?w?A?v?$LM?G?$LJ?x?H?$KD?3?5?$DM?$CFs?$DO?5?$AN?6?$LM?v?$LH?$KO?5?5?5?5?5?5?5?5@ ; `string'
PUBLIC	??_C@_0EH@LGJDLFBO@?A?V?$LJ?$KO?$LJ?x?H?$KD?5?3?5?$DM?$CFs?$DO?5?$AN?6?$LM?v?$LH?$KO?5?5?5?5?5?5?5?3?5@ ; `string'
PUBLIC	??_C@_07MGCPDNLD@DEFAULT@			; `string'
PUBLIC	__TI7PAVCOrderLineAddInImp@@
PUBLIC	__CTA7PAVCOrderLineAddInImp@@
PUBLIC	??_R0PAVCOrderLineAddInImp@@@8			; COrderLineAddInImp * `RTTI Type Descriptor'
PUBLIC	__CT??_R0PAVCOrderLineAddInImp@@@84
PUBLIC	??_R0PAVCChartAddInBase003531@@@8		; CChartAddInBase003531 * `RTTI Type Descriptor'
PUBLIC	__CT??_R0PAVCChartAddInBase003531@@@84
PUBLIC	??_R0PAVCIWUnknown@@@8				; CIWUnknown * `RTTI Type Descriptor'
PUBLIC	__CT??_R0PAVCIWUnknown@@@84
PUBLIC	??_R0PAVCObject@@@8				; CObject * `RTTI Type Descriptor'
PUBLIC	__CT??_R0PAVCObject@@@84
PUBLIC	??_R0PAUIChartAddIn003531@@@8			; IChartAddIn003531 * `RTTI Type Descriptor'
PUBLIC	__CT??_R0PAUIChartAddIn003531@@@848
PUBLIC	??_R0PAUIUnknown@@@8				; IUnknown * `RTTI Type Descriptor'
PUBLIC	__CT??_R0PAUIUnknown@@@848
PUBLIC	??_R0PAX@8					; void * `RTTI Type Descriptor'
PUBLIC	__CT??_R0PAX@84
PUBLIC	??_C@_01LFCBOECM@?4@				; `string'
PUBLIC	??_C@_07EEGHAAJM@?$CF?$CF?4?$CFdlf@		; `string'
PUBLIC	??_C@_01CLKCMJKC@?5@				; `string'
PUBLIC	??_C@_0M@LONIGBD@?A?v?A?$KE?$LA?$KB?5?$LI?E?$LF?$LF@ ; `string'
PUBLIC	??_C@_0M@NPGIKBFK@?A?v?A?$KE?$LA?$KB?5?$LI?E?$LM?v@ ; `string'
PUBLIC	??_C@_0O@PGPJCONP@?$LP?$KK?A?v?A?$KE?$LA?$KB?5?$LI?E?$LF?$LF@ ; `string'
PUBLIC	??_C@_0O@CCHMAJJG@?$LP?$KK?A?v?A?$KE?$LA?$KB?5?$LI?E?$LM?v@ ; `string'
PUBLIC	??_C@_0M@FFLLNBEC@?$LN?C?$MA?e?$LA?$KB?5?$LI?E?$LF?$LF@ ; `string'
PUBLIC	??_C@_0M@IBDOPGAL@?$LN?C?$MA?e?$LA?$KB?5?$LI?E?$LM?v@ ; `string'
PUBLIC	??_C@_01HIHLOKLC@1@				; `string'
PUBLIC	??_C@_09HJOOGAIP@?A?V?$LJ?$KO?5?A?$KE?A?$KE@	; `string'
PUBLIC	??_C@_09OFBFFOPH@?A?V?$LJ?$KO?5?C?k?$LM?R@	; `string'
PUBLIC	??_C@_0BA@DDLEBGKJ@Stop?1Limit?5?$MA?$PL?$LP?k@	; `string'
PUBLIC	??_C@_0BA@CIMPAIAF@Stop?1Limit?5?C?k?$LM?R@	; `string'
PUBLIC	??_C@_09DMMIPLCL@?A?V?$LJ?$KO?5?C?$LL?$LL?j@	; `string'
PUBLIC	??_C@_04JKBILIIL@CH01@				; `string'
PUBLIC	??_C@_04GAEMOCHB@OR01@				; `string'
PUBLIC	??_C@_04MFHKFNBO@CLSL@				; `string'
PUBLIC	??_C@_05MMFNHMGI@?$CF?$CF?$CFds@		; `string'
PUBLIC	??_C@_0BI@LPMCOGLF@?$CF4s?3?$CF2s?3?$CF2s?9?$CF2s?3?$CF2s?3?$CF2s@ ; `string'
PUBLIC	??_C@_0M@IOIDFALE@?$CF2s?3?$CF2s?3?$CF2s@	; `string'
PUBLIC	??_C@_02BFICIOJL@ON@				; `string'
PUBLIC	??_C@_01FDFGLJHB@2@				; `string'
PUBLIC	??_C@_01EKENIIDA@3@				; `string'
PUBLIC	??_C@_03OOKILKBD@BUY@				; `string'
PUBLIC	??_C@_08DKDJLCMP@YYYYMMDD@			; `string'
PUBLIC	??_C@_0O@IIKJHPIJ@?$CF4d?1?$CF02d?1?$CF02d@	; `string'
PUBLIC	??_C@_06EBMMBHJD@YYYYMM@			; `string'
PUBLIC	??_C@_08IGGAGJKH@?$CF4d?1?$CF02d@		; `string'
PUBLIC	??_C@_08KLIIINKM@MMDDHHMM@			; `string'
PUBLIC	??_C@_0BE@BHNDCNAF@?$CF02d?1?$CF02d?1?$CF02d?3?$CF02d@ ; `string'
PUBLIC	??_C@_06MAANBBPI@HHMMSS@			; `string'
PUBLIC	??_C@_0P@PLMNPDMB@?$CF02d?3?$CF02d?3?$CF02d@	; `string'
PUBLIC	??_C@_04FMMHFHOO@?$AN?6?$AN?6@			; `string'
PUBLIC	??_C@_04NKIBGBJK@?A?x?$MA?T@			; `string'
PUBLIC	??_C@_04DAIBFJOF@?C?$LL?$LL?j@			; `string'
PUBLIC	??_C@_06IIANKLMD@?$LI?$LG?A?x?D?$NN@		; `string'
PUBLIC	??_C@_04LCMPBGFC@YYYY@				; `string'
PUBLIC	??_C@_04BDEGLLOH@MMDD@				; `string'
PUBLIC	??_C@_02ODDIIJPA@DD@				; `string'
PUBLIC	??_C@_02EGJHDPJI@HH@				; `string'
PUBLIC	??_C@_04DCGLEEGD@HHMM@				; `string'
PUBLIC	??_C@_04PKMIKIE@MMSS@				; `string'
PUBLIC	??_C@_02PPNCLIJD@SS@				; `string'
PUBLIC	??_R0?AUIChartAddIn003531@@@8			; IChartAddIn003531 `RTTI Type Descriptor'
PUBLIC	??_R3IChartAddIn003531@@8			; IChartAddIn003531::`RTTI Class Hierarchy Descriptor'
PUBLIC	??_R2IChartAddIn003531@@8			; IChartAddIn003531::`RTTI Base Class Array'
PUBLIC	??_R1A@?0A@EA@IChartAddIn003531@@8		; IChartAddIn003531::`RTTI Base Class Descriptor at (0,-1,0,64)'
PUBLIC	??_R4COrderLine@@6B@				; COrderLine::`RTTI Complete Object Locator'
PUBLIC	??_R0?AVCOrderLine@@@8				; COrderLine `RTTI Type Descriptor'
PUBLIC	??_R3COrderLine@@8				; COrderLine::`RTTI Class Hierarchy Descriptor'
PUBLIC	??_R2COrderLine@@8				; COrderLine::`RTTI Base Class Array'
PUBLIC	??_R1A@?0A@EA@COrderLine@@8			; COrderLine::`RTTI Base Class Descriptor at (0,-1,0,64)'
PUBLIC	??_R4COrderLineAddInImp@@6BCIWUnknown@@@	; COrderLineAddInImp::`RTTI Complete Object Locator'
PUBLIC	??_R0?AVCOrderLineAddInImp@@@8			; COrderLineAddInImp `RTTI Type Descriptor'
PUBLIC	??_R3COrderLineAddInImp@@8			; COrderLineAddInImp::`RTTI Class Hierarchy Descriptor'
PUBLIC	??_R2COrderLineAddInImp@@8			; COrderLineAddInImp::`RTTI Base Class Array'
PUBLIC	??_R1A@?0A@EA@COrderLineAddInImp@@8		; COrderLineAddInImp::`RTTI Base Class Descriptor at (0,-1,0,64)'
PUBLIC	??_R1A@?0A@EA@CChartAddInBase003531@@8		; CChartAddInBase003531::`RTTI Base Class Descriptor at (0,-1,0,64)'
PUBLIC	??_R0?AVCChartAddInBase003531@@@8		; CChartAddInBase003531 `RTTI Type Descriptor'
PUBLIC	??_R3CChartAddInBase003531@@8			; CChartAddInBase003531::`RTTI Class Hierarchy Descriptor'
PUBLIC	??_R2CChartAddInBase003531@@8			; CChartAddInBase003531::`RTTI Base Class Array'
PUBLIC	??_R1A@?0A@EA@CIWUnknown@@8			; CIWUnknown::`RTTI Base Class Descriptor at (0,-1,0,64)'
PUBLIC	??_R0?AVCIWUnknown@@@8				; CIWUnknown `RTTI Type Descriptor'
PUBLIC	??_R3CIWUnknown@@8				; CIWUnknown::`RTTI Class Hierarchy Descriptor'
PUBLIC	??_R2CIWUnknown@@8				; CIWUnknown::`RTTI Base Class Array'
PUBLIC	??_R17?0A@EA@IChartAddIn003531@@8		; IChartAddIn003531::`RTTI Base Class Descriptor at (8,-1,0,64)'
PUBLIC	??_R17?0A@EA@IUnknown@@8			; IUnknown::`RTTI Base Class Descriptor at (8,-1,0,64)'
PUBLIC	??_R4COrderLineAddInImp@@6BIChartAddIn003531@@@	; COrderLineAddInImp::`RTTI Complete Object Locator'
PUBLIC	??_R4?$CArray@PAVCCommentItem@@PAV1@@@6B@	; CArray<CCommentItem *,CCommentItem *>::`RTTI Complete Object Locator'
PUBLIC	??_R0?AV?$CArray@PAVCCommentItem@@PAV1@@@@8	; CArray<CCommentItem *,CCommentItem *> `RTTI Type Descriptor'
PUBLIC	??_R3?$CArray@PAVCCommentItem@@PAV1@@@8		; CArray<CCommentItem *,CCommentItem *>::`RTTI Class Hierarchy Descriptor'
PUBLIC	??_R2?$CArray@PAVCCommentItem@@PAV1@@@8		; CArray<CCommentItem *,CCommentItem *>::`RTTI Base Class Array'
PUBLIC	??_R1A@?0A@EA@?$CArray@PAVCCommentItem@@PAV1@@@8 ; CArray<CCommentItem *,CCommentItem *>::`RTTI Base Class Descriptor at (0,-1,0,64)'
PUBLIC	__real@0000000000000000
PUBLIC	__real@3fe0000000000000
PUBLIC	__real@4024000000000000
PUBLIC	__real@41efffffffe00000
PUBLIC	__xmm@41f00000000000000000000000000000
EXTRN	??2@YAPAXI@Z:PROC				; operator new
EXTRN	??3@YAXPAX@Z:PROC				; operator delete
EXTRN	??3@YAXPAXI@Z:PROC				; operator delete
EXTRN	?__global_delete@@YAXPAXI@Z:PROC		; __global_delete
EXTRN	??_U@YAPAXI@Z:PROC				; operator new[]
EXTRN	??_V@YAXPAX@Z:PROC				; operator delete[]
EXTRN	_atexit:PROC
EXTRN	___std_terminate:PROC
EXTRN	__imp___invalid_parameter_noinfo:PROC
EXTRN	__imp___errno:PROC
EXTRN	__imp__stricmp:PROC
EXTRN	__imp__CreateFontIndirectA@4:PROC
EXTRN	__imp__CreatePen@12:PROC
EXTRN	__imp__CreateSolidBrush@4:PROC
EXTRN	__imp__GetCurrentObject@8:PROC
EXTRN	__imp__Rectangle@20:PROC
EXTRN	__imp__SelectObject@8:PROC
EXTRN	__imp__GetTextMetricsA@8:PROC
EXTRN	__imp__GetObjectA@12:PROC
EXTRN	__imp__Polygon@12:PROC
EXTRN	__imp__RegisterWindowMessageA@4:PROC
EXTRN	__imp__SendMessageA@16:PROC
EXTRN	__imp__CreatePopupMenu@0:PROC
EXTRN	__imp__AppendMenuA@16:PROC
EXTRN	__imp__GetClientRect@8:PROC
EXTRN	__imp__GetCursorPos@4:PROC
EXTRN	__imp__ClientToScreen@8:PROC
EXTRN	__imp__ScreenToClient@8:PROC
EXTRN	__imp__FillRect@12:PROC
EXTRN	__imp__SetRectEmpty@4:PROC
EXTRN	__imp__CopyRect@8:PROC
EXTRN	__imp__IsRectEmpty@4:PROC
EXTRN	__imp__PtInRect@12:PROC
EXTRN	__imp__LoadCursorW@8:PROC
EXTRN	__imp__atof:PROC
EXTRN	__imp__atoi:PROC
EXTRN	__imp__atol:PROC
EXTRN	__imp___localtime64_s:PROC
EXTRN	?AfxThrowMemoryException@@YGXXZ:PROC		; AfxThrowMemoryException
EXTRN	?AfxThrowInvalidArgException@@YGXXZ:PROC	; AfxThrowInvalidArgException
EXTRN	?AfxThrowArchiveException@@YGXHPBD@Z:PROC	; AfxThrowArchiveException
EXTRN	?AfxThrowOleException@@YGXJ@Z:PROC		; AfxThrowOleException
EXTRN	?GetRuntimeClass@CObject@@UBEPAUCRuntimeClass@@XZ:PROC ; CObject::GetRuntimeClass
EXTRN	__imp_?Empty@?$CSimpleStringT@D$00@ATL@@QAEXXZ:PROC
EXTRN	__imp_??0?$CStringT@DV?$StrTraitMFC_DLL@DV?$ChTraitsCRT@D@ATL@@@@@ATL@@QAE@XZ:PROC
EXTRN	__imp_??0?$CStringT@DV?$StrTraitMFC_DLL@DV?$ChTraitsCRT@D@ATL@@@@@ATL@@QAE@ABV01@@Z:PROC
EXTRN	__imp_??0?$CStringT@DV?$StrTraitMFC_DLL@DV?$ChTraitsCRT@D@ATL@@@@@ATL@@QAE@PBD@Z:PROC
EXTRN	__imp_??0?$CStringT@DV?$StrTraitMFC_DLL@DV?$ChTraitsCRT@D@ATL@@@@@ATL@@QAE@PBDH@Z:PROC
EXTRN	__imp_??1?$CStringT@DV?$StrTraitMFC_DLL@DV?$ChTraitsCRT@D@ATL@@@@@ATL@@QAE@XZ:PROC
EXTRN	__imp_??4?$CStringT@DV?$StrTraitMFC_DLL@DV?$ChTraitsCRT@D@ATL@@@@@ATL@@QAEAAV01@ABV01@@Z:PROC
EXTRN	__imp_??4?$CStringT@DV?$StrTraitMFC_DLL@DV?$ChTraitsCRT@D@ATL@@@@@ATL@@QAEAAV01@PBD@Z:PROC
EXTRN	__imp_??Y?$CStringT@DV?$StrTraitMFC_DLL@DV?$ChTraitsCRT@D@ATL@@@@@ATL@@QAEAAV01@ABV?$CSimpleStringT@D$00@1@@Z:PROC
EXTRN	__imp_??Y?$CStringT@DV?$StrTraitMFC_DLL@DV?$ChTraitsCRT@D@ATL@@@@@ATL@@QAEAAV01@PBD@Z:PROC
EXTRN	__imp_?Compare@?$CStringT@DV?$StrTraitMFC_DLL@DV?$ChTraitsCRT@D@ATL@@@@@ATL@@QBEHPBD@Z:PROC
EXTRN	__imp_?CompareNoCase@?$CStringT@DV?$StrTraitMFC_DLL@DV?$ChTraitsCRT@D@ATL@@@@@ATL@@QBEHPBD@Z:PROC
EXTRN	__imp_?Remove@?$CStringT@DV?$StrTraitMFC_DLL@DV?$ChTraitsCRT@D@ATL@@@@@ATL@@QAEHD@Z:PROC
EXTRN	__imp_?Find@?$CStringT@DV?$StrTraitMFC_DLL@DV?$ChTraitsCRT@D@ATL@@@@@ATL@@QBEHPBDH@Z:PROC
EXTRN	__imp_?TrimRight@?$CStringT@DV?$StrTraitMFC_DLL@DV?$ChTraitsCRT@D@ATL@@@@@ATL@@QAEAAV12@XZ:PROC
EXTRN	__imp_?TrimLeft@?$CStringT@DV?$StrTraitMFC_DLL@DV?$ChTraitsCRT@D@ATL@@@@@ATL@@QAEAAV12@XZ:PROC
EXTRN	__imp_?Mid@?$CStringT@DV?$StrTraitMFC_DLL@DV?$ChTraitsCRT@D@ATL@@@@@ATL@@QBE?AV12@HH@Z:PROC
EXTRN	__imp_?Left@?$CStringT@DV?$StrTraitMFC_DLL@DV?$ChTraitsCRT@D@ATL@@@@@ATL@@QBE?AV12@H@Z:PROC
EXTRN	__imp_?Format@?$CStringT@DV?$StrTraitMFC_DLL@DV?$ChTraitsCRT@D@ATL@@@@@ATL@@QAAXPBDZZ:PROC
EXTRN	?Read@CArchive@@QAEIPAXI@Z:PROC			; CArchive::Read
EXTRN	?Write@CArchive@@QAEXPBXI@Z:PROC		; CArchive::Write
EXTRN	?ReadCount@CArchive@@QAEKXZ:PROC		; CArchive::ReadCount
EXTRN	?WriteCount@CArchive@@QAEXK@Z:PROC		; CArchive::WriteCount
EXTRN	??0CObList@@QAE@H@Z:PROC			; CObList::CObList
EXTRN	?AddTail@CObList@@QAEPAU__POSITION@@PAVCObject@@@Z:PROC ; CObList::AddTail
EXTRN	?RemoveAll@CObList@@QAEXXZ:PROC			; CObList::RemoveAll
EXTRN	?RemoveAt@CObList@@QAEXPAU__POSITION@@@Z:PROC	; CObList::RemoveAt
EXTRN	?Find@CObList@@QBEPAU__POSITION@@PAVCObject@@PAU2@@Z:PROC ; CObList::Find
EXTRN	??1CObList@@UAE@XZ:PROC				; CObList::~CObList
EXTRN	?AfxGetModuleState@@YGPAVAFX_MODULE_STATE@@XZ:PROC ; AfxGetModuleState
EXTRN	?AfxGetStaticModuleState@@YGPAVAFX_MODULE_STATE@@XZ:PROC ; AfxGetStaticModuleState
EXTRN	?GetRuntimeClass@CGdiObject@@UBEPAUCRuntimeClass@@XZ:PROC ; CGdiObject::GetRuntimeClass
EXTRN	?FromHandle@CGdiObject@@SGPAV1@PAX@Z:PROC	; CGdiObject::FromHandle
EXTRN	?Attach@CGdiObject@@QAEHPAX@Z:PROC		; CGdiObject::Attach
EXTRN	?DeleteObject@CGdiObject@@QAEHXZ:PROC		; CGdiObject::DeleteObject
EXTRN	??_ECGdiObject@@UAEPAXI@Z:PROC			; CGdiObject::`vector deleting destructor'
EXTRN	?GetRuntimeClass@CPen@@UBEPAUCRuntimeClass@@XZ:PROC ; CPen::GetRuntimeClass
EXTRN	??0CPen@@QAE@HHK@Z:PROC				; CPen::CPen
EXTRN	??_ECPen@@UAEPAXI@Z:PROC			; CPen::`vector deleting destructor'
EXTRN	?GetRuntimeClass@CBrush@@UBEPAUCRuntimeClass@@XZ:PROC ; CBrush::GetRuntimeClass
EXTRN	??0CBrush@@QAE@K@Z:PROC				; CBrush::CBrush
EXTRN	??_ECBrush@@UAEPAXI@Z:PROC			; CBrush::`vector deleting destructor'
EXTRN	?GetRuntimeClass@CFont@@UBEPAUCRuntimeClass@@XZ:PROC ; CFont::GetRuntimeClass
EXTRN	??_ECFont@@UAEPAXI@Z:PROC			; CFont::`vector deleting destructor'
EXTRN	?FromHandle@CDC@@SGPAV1@PAUHDC__@@@Z:PROC	; CDC::FromHandle
EXTRN	?SelectObject@CDC@@QAEPAVCPen@@PAV2@@Z:PROC	; CDC::SelectObject
EXTRN	?SelectObject@CDC@@QAEPAVCBrush@@PAV2@@Z:PROC	; CDC::SelectObject
EXTRN	?MoveTo@CDC@@QAE?AVCPoint@@HH@Z:PROC		; CDC::MoveTo
EXTRN	?LineTo@CDC@@QAEHHH@Z:PROC			; CDC::LineTo
EXTRN	?FillSolidRect@CDC@@QAEXPBUtagRECT@@K@Z:PROC	; CDC::FillSolidRect
EXTRN	?GetRuntimeClass@CMenu@@UBEPAUCRuntimeClass@@XZ:PROC ; CMenu::GetRuntimeClass
EXTRN	?DestroyMenu@CMenu@@QAEHXZ:PROC			; CMenu::DestroyMenu
EXTRN	?Attach@CMenu@@QAEHPAUHMENU__@@@Z:PROC		; CMenu::Attach
EXTRN	?TrackPopupMenu@CMenu@@QAEHIHHPAVCWnd@@PBUtagRECT@@@Z:PROC ; CMenu::TrackPopupMenu
EXTRN	?DrawItem@CMenu@@UAEXPAUtagDRAWITEMSTRUCT@@@Z:PROC ; CMenu::DrawItem
EXTRN	?MeasureItem@CMenu@@UAEXPAUtagMEASUREITEMSTRUCT@@@Z:PROC ; CMenu::MeasureItem
EXTRN	??_ECMenu@@UAEPAXI@Z:PROC			; CMenu::`vector deleting destructor'
EXTRN	?AfxFindResourceHandle@@YGPAUHINSTANCE__@@PBD0@Z:PROC ; AfxFindResourceHandle
EXTRN	?AfxMessageBox@@YGHPBDII@Z:PROC			; AfxMessageBox
EXTRN	??0CToolTipCtrl@@QAE@XZ:PROC			; CToolTipCtrl::CToolTipCtrl
EXTRN	?AddTool@CToolTipCtrl@@QAEHPAVCWnd@@PBDPBUtagRECT@@I@Z:PROC ; CToolTipCtrl::AddTool
EXTRN	?UpdateTipText@CToolTipCtrl@@QAEXPBDPAVCWnd@@I@Z:PROC ; CToolTipCtrl::UpdateTipText
EXTRN	??1CToolTipCtrl@@UAE@XZ:PROC			; CToolTipCtrl::~CToolTipCtrl
EXTRN	?AddRef@CIWUnknown@@MAGKXZ:PROC			; CIWUnknown::AddRef
EXTRN	?Release@CIWUnknown@@MAGKXZ:PROC		; CIWUnknown::Release
EXTRN	??0CChartAddInBase003531@@IAE@PAUIChartOCX003531@@PAUIAddInDllBase@@@Z:PROC ; CChartAddInBase003531::CChartAddInBase003531
EXTRN	??1CChartAddInBase003531@@MAE@XZ:PROC		; CChartAddInBase003531::~CChartAddInBase003531
EXTRN	?HasFullManager@CChartAddInBase003531@@MAEHXZ:PROC ; CChartAddInBase003531::HasFullManager
EXTRN	?RegisterEventMap@CChartAddInBase003531@@UAEHH@Z:PROC ; CChartAddInBase003531::RegisterEventMap
EXTRN	?UnregisterEventMap@CChartAddInBase003531@@UAEHXZ:PROC ; CChartAddInBase003531::UnregisterEventMap
EXTRN	?OnOcxDestroyWindow@CChartAddInBase003531@@MAEXXZ:PROC ; CChartAddInBase003531::OnOcxDestroyWindow
EXTRN	??0CCommentItem@@QAE@XZ:PROC			; CCommentItem::CCommentItem
EXTRN	?Draw@CCommentItem@@QAEXPAVCDC@@@Z:PROC		; CCommentItem::Draw
EXTRN	?SetPosition@CCommentItem@@QAEXPAVCDC@@PAVCPoint@@@Z:PROC ; CCommentItem::SetPosition
EXTRN	?IsInRegion@CCommentItem@@QAEHVCPoint@@@Z:PROC	; CCommentItem::IsInRegion
EXTRN	?GetToolTipText@CCommentItem@@QAE?AV?$CStringT@DV?$StrTraitMFC_DLL@DV?$ChTraitsCRT@D@ATL@@@@@ATL@@XZ:PROC ; CCommentItem::GetToolTipText
EXTRN	??_ECOrderLine@@UAEPAXI@Z:PROC			; COrderLine::`vector deleting destructor'
EXTRN	??_E?$CArray@PAVCCommentItem@@PAV1@@@UAEPAXI@Z:PROC ; CArray<CCommentItem *,CCommentItem *>::`vector deleting destructor'
EXTRN	??_ECOrderLineAddInImp@@UAEPAXI@Z:PROC		; COrderLineAddInImp::`vector deleting destructor'
EXTRN	@__security_check_cookie@4:PROC
EXTRN	__CxxThrowException@8:PROC
EXTRN	___CxxFrameHandler3:PROC
EXTRN	__libm_sse2_pow_precise:PROC
EXTRN	_ceil:PROC
EXTRN	_memcpy:PROC
EXTRN	_memset:PROC
EXTRN	??_7type_info@@6B@:QWORD			; type_info::`vftable'
EXTRN	?g_iMetaTable@@3VIMetaTable@@A:BYTE		; g_iMetaTable
EXTRN	___security_cookie:DWORD
EXTRN	__fltused:DWORD
_BSS	SEGMENT
?m_strAddInItemName@COrderLineAddInImp@@2V?$CStringT@DV?$StrTraitMFC_DLL@DV?$ChTraitsCRT@D@ATL@@@@@ATL@@A DD 01H DUP (?) ; COrderLineAddInImp::m_strAddInItemName
?RMS_ANALYSIS_FUNC@@3IB DD 01H DUP (?)			; RMS_ANALYSIS_FUNC
_BSS	ENDS
CRT$XCU	SEGMENT
?RMS_ANALYSIS_FUNC$initializer$@@3P6AXXZA DD FLAT:??__ERMS_ANALYSIS_FUNC@@YAXXZ ; RMS_ANALYSIS_FUNC$initializer$
CRT$XCU	ENDS
;	COMDAT __xmm@41f00000000000000000000000000000
CONST	SEGMENT
__xmm@41f00000000000000000000000000000 DB 00H, 00H, 00H, 00H, 00H, 00H, 00H
	DB	00H, 00H, 00H, 00H, 00H, 00H, 00H, 0f0H, 'A'
CONST	ENDS
;	COMDAT __real@41efffffffe00000
CONST	SEGMENT
__real@41efffffffe00000 DQ 041efffffffe00000r	; 4.29497e+09
CONST	ENDS
;	COMDAT __real@4024000000000000
CONST	SEGMENT
__real@4024000000000000 DQ 04024000000000000r	; 10
CONST	ENDS
;	COMDAT __real@3fe0000000000000
CONST	SEGMENT
__real@3fe0000000000000 DQ 03fe0000000000000r	; 0.5
CONST	ENDS
;	COMDAT __real@0000000000000000
CONST	SEGMENT
__real@0000000000000000 DQ 00000000000000000r	; 0
CONST	ENDS
;	COMDAT ??_R1A@?0A@EA@?$CArray@PAVCCommentItem@@PAV1@@@8
rdata$r	SEGMENT
??_R1A@?0A@EA@?$CArray@PAVCCommentItem@@PAV1@@@8 DD FLAT:??_R0?AV?$CArray@PAVCCommentItem@@PAV1@@@@8 ; CArray<CCommentItem *,CCommentItem *>::`RTTI Base Class Descriptor at (0,-1,0,64)'
	DD	01H
	DD	00H
	DD	0ffffffffH
	DD	00H
	DD	040H
	DD	FLAT:??_R3?$CArray@PAVCCommentItem@@PAV1@@@8
rdata$r	ENDS
;	COMDAT ??_R2?$CArray@PAVCCommentItem@@PAV1@@@8
rdata$r	SEGMENT
??_R2?$CArray@PAVCCommentItem@@PAV1@@@8 DD FLAT:??_R1A@?0A@EA@?$CArray@PAVCCommentItem@@PAV1@@@8 ; CArray<CCommentItem *,CCommentItem *>::`RTTI Base Class Array'
	DD	FLAT:??_R1A@?0A@EA@CObject@@8
rdata$r	ENDS
;	COMDAT ??_R3?$CArray@PAVCCommentItem@@PAV1@@@8
rdata$r	SEGMENT
??_R3?$CArray@PAVCCommentItem@@PAV1@@@8 DD 00H		; CArray<CCommentItem *,CCommentItem *>::`RTTI Class Hierarchy Descriptor'
	DD	00H
	DD	02H
	DD	FLAT:??_R2?$CArray@PAVCCommentItem@@PAV1@@@8
rdata$r	ENDS
;	COMDAT ??_R0?AV?$CArray@PAVCCommentItem@@PAV1@@@@8
data$rs	SEGMENT
??_R0?AV?$CArray@PAVCCommentItem@@PAV1@@@@8 DD FLAT:??_7type_info@@6B@ ; CArray<CCommentItem *,CCommentItem *> `RTTI Type Descriptor'
	DD	00H
	DB	'.?AV?$CArray@PAVCCommentItem@@PAV1@@@', 00H
data$rs	ENDS
;	COMDAT ??_R4?$CArray@PAVCCommentItem@@PAV1@@@6B@
rdata$r	SEGMENT
??_R4?$CArray@PAVCCommentItem@@PAV1@@@6B@ DD 00H	; CArray<CCommentItem *,CCommentItem *>::`RTTI Complete Object Locator'
	DD	00H
	DD	00H
	DD	FLAT:??_R0?AV?$CArray@PAVCCommentItem@@PAV1@@@@8
	DD	FLAT:??_R3?$CArray@PAVCCommentItem@@PAV1@@@8
rdata$r	ENDS
;	COMDAT ??_R4COrderLineAddInImp@@6BIChartAddIn003531@@@
rdata$r	SEGMENT
??_R4COrderLineAddInImp@@6BIChartAddIn003531@@@ DD 00H	; COrderLineAddInImp::`RTTI Complete Object Locator'
	DD	08H
	DD	00H
	DD	FLAT:??_R0?AVCOrderLineAddInImp@@@8
	DD	FLAT:??_R3COrderLineAddInImp@@8
rdata$r	ENDS
;	COMDAT ??_R17?0A@EA@IUnknown@@8
rdata$r	SEGMENT
??_R17?0A@EA@IUnknown@@8 DD FLAT:??_R0?AUIUnknown@@@8	; IUnknown::`RTTI Base Class Descriptor at (8,-1,0,64)'
	DD	00H
	DD	08H
	DD	0ffffffffH
	DD	00H
	DD	040H
	DD	FLAT:??_R3IUnknown@@8
rdata$r	ENDS
;	COMDAT ??_R17?0A@EA@IChartAddIn003531@@8
rdata$r	SEGMENT
??_R17?0A@EA@IChartAddIn003531@@8 DD FLAT:??_R0?AUIChartAddIn003531@@@8 ; IChartAddIn003531::`RTTI Base Class Descriptor at (8,-1,0,64)'
	DD	01H
	DD	08H
	DD	0ffffffffH
	DD	00H
	DD	040H
	DD	FLAT:??_R3IChartAddIn003531@@8
rdata$r	ENDS
;	COMDAT ??_R2CIWUnknown@@8
rdata$r	SEGMENT
??_R2CIWUnknown@@8 DD FLAT:??_R1A@?0A@EA@CIWUnknown@@8	; CIWUnknown::`RTTI Base Class Array'
	DD	FLAT:??_R1A@?0A@EA@CObject@@8
rdata$r	ENDS
;	COMDAT ??_R3CIWUnknown@@8
rdata$r	SEGMENT
??_R3CIWUnknown@@8 DD 00H				; CIWUnknown::`RTTI Class Hierarchy Descriptor'
	DD	00H
	DD	02H
	DD	FLAT:??_R2CIWUnknown@@8
rdata$r	ENDS
;	COMDAT ??_R0?AVCIWUnknown@@@8
data$rs	SEGMENT
??_R0?AVCIWUnknown@@@8 DD FLAT:??_7type_info@@6B@	; CIWUnknown `RTTI Type Descriptor'
	DD	00H
	DB	'.?AVCIWUnknown@@', 00H
data$rs	ENDS
;	COMDAT ??_R1A@?0A@EA@CIWUnknown@@8
rdata$r	SEGMENT
??_R1A@?0A@EA@CIWUnknown@@8 DD FLAT:??_R0?AVCIWUnknown@@@8 ; CIWUnknown::`RTTI Base Class Descriptor at (0,-1,0,64)'
	DD	01H
	DD	00H
	DD	0ffffffffH
	DD	00H
	DD	040H
	DD	FLAT:??_R3CIWUnknown@@8
rdata$r	ENDS
;	COMDAT ??_R2CChartAddInBase003531@@8
rdata$r	SEGMENT
??_R2CChartAddInBase003531@@8 DD FLAT:??_R1A@?0A@EA@CChartAddInBase003531@@8 ; CChartAddInBase003531::`RTTI Base Class Array'
	DD	FLAT:??_R1A@?0A@EA@CIWUnknown@@8
	DD	FLAT:??_R1A@?0A@EA@CObject@@8
	DD	FLAT:??_R17?0A@EA@IChartAddIn003531@@8
	DD	FLAT:??_R17?0A@EA@IUnknown@@8
rdata$r	ENDS
;	COMDAT ??_R3CChartAddInBase003531@@8
rdata$r	SEGMENT
??_R3CChartAddInBase003531@@8 DD 00H			; CChartAddInBase003531::`RTTI Class Hierarchy Descriptor'
	DD	01H
	DD	05H
	DD	FLAT:??_R2CChartAddInBase003531@@8
rdata$r	ENDS
;	COMDAT ??_R0?AVCChartAddInBase003531@@@8
data$rs	SEGMENT
??_R0?AVCChartAddInBase003531@@@8 DD FLAT:??_7type_info@@6B@ ; CChartAddInBase003531 `RTTI Type Descriptor'
	DD	00H
	DB	'.?AVCChartAddInBase003531@@', 00H
data$rs	ENDS
;	COMDAT ??_R1A@?0A@EA@CChartAddInBase003531@@8
rdata$r	SEGMENT
??_R1A@?0A@EA@CChartAddInBase003531@@8 DD FLAT:??_R0?AVCChartAddInBase003531@@@8 ; CChartAddInBase003531::`RTTI Base Class Descriptor at (0,-1,0,64)'
	DD	04H
	DD	00H
	DD	0ffffffffH
	DD	00H
	DD	040H
	DD	FLAT:??_R3CChartAddInBase003531@@8
rdata$r	ENDS
;	COMDAT ??_R1A@?0A@EA@COrderLineAddInImp@@8
rdata$r	SEGMENT
??_R1A@?0A@EA@COrderLineAddInImp@@8 DD FLAT:??_R0?AVCOrderLineAddInImp@@@8 ; COrderLineAddInImp::`RTTI Base Class Descriptor at (0,-1,0,64)'
	DD	05H
	DD	00H
	DD	0ffffffffH
	DD	00H
	DD	040H
	DD	FLAT:??_R3COrderLineAddInImp@@8
rdata$r	ENDS
;	COMDAT ??_R2COrderLineAddInImp@@8
rdata$r	SEGMENT
??_R2COrderLineAddInImp@@8 DD FLAT:??_R1A@?0A@EA@COrderLineAddInImp@@8 ; COrderLineAddInImp::`RTTI Base Class Array'
	DD	FLAT:??_R1A@?0A@EA@CChartAddInBase003531@@8
	DD	FLAT:??_R1A@?0A@EA@CIWUnknown@@8
	DD	FLAT:??_R1A@?0A@EA@CObject@@8
	DD	FLAT:??_R17?0A@EA@IChartAddIn003531@@8
	DD	FLAT:??_R17?0A@EA@IUnknown@@8
rdata$r	ENDS
;	COMDAT ??_R3COrderLineAddInImp@@8
rdata$r	SEGMENT
??_R3COrderLineAddInImp@@8 DD 00H			; COrderLineAddInImp::`RTTI Class Hierarchy Descriptor'
	DD	01H
	DD	06H
	DD	FLAT:??_R2COrderLineAddInImp@@8
rdata$r	ENDS
;	COMDAT ??_R0?AVCOrderLineAddInImp@@@8
data$rs	SEGMENT
??_R0?AVCOrderLineAddInImp@@@8 DD FLAT:??_7type_info@@6B@ ; COrderLineAddInImp `RTTI Type Descriptor'
	DD	00H
	DB	'.?AVCOrderLineAddInImp@@', 00H
data$rs	ENDS
;	COMDAT ??_R4COrderLineAddInImp@@6BCIWUnknown@@@
rdata$r	SEGMENT
??_R4COrderLineAddInImp@@6BCIWUnknown@@@ DD 00H		; COrderLineAddInImp::`RTTI Complete Object Locator'
	DD	00H
	DD	00H
	DD	FLAT:??_R0?AVCOrderLineAddInImp@@@8
	DD	FLAT:??_R3COrderLineAddInImp@@8
rdata$r	ENDS
;	COMDAT ??_R1A@?0A@EA@COrderLine@@8
rdata$r	SEGMENT
??_R1A@?0A@EA@COrderLine@@8 DD FLAT:??_R0?AVCOrderLine@@@8 ; COrderLine::`RTTI Base Class Descriptor at (0,-1,0,64)'
	DD	00H
	DD	00H
	DD	0ffffffffH
	DD	00H
	DD	040H
	DD	FLAT:??_R3COrderLine@@8
rdata$r	ENDS
;	COMDAT ??_R2COrderLine@@8
rdata$r	SEGMENT
??_R2COrderLine@@8 DD FLAT:??_R1A@?0A@EA@COrderLine@@8	; COrderLine::`RTTI Base Class Array'
rdata$r	ENDS
;	COMDAT ??_R3COrderLine@@8
rdata$r	SEGMENT
??_R3COrderLine@@8 DD 00H				; COrderLine::`RTTI Class Hierarchy Descriptor'
	DD	00H
	DD	01H
	DD	FLAT:??_R2COrderLine@@8
rdata$r	ENDS
;	COMDAT ??_R0?AVCOrderLine@@@8
data$rs	SEGMENT
??_R0?AVCOrderLine@@@8 DD FLAT:??_7type_info@@6B@	; COrderLine `RTTI Type Descriptor'
	DD	00H
	DB	'.?AVCOrderLine@@', 00H
data$rs	ENDS
;	COMDAT ??_R4COrderLine@@6B@
rdata$r	SEGMENT
??_R4COrderLine@@6B@ DD 00H				; COrderLine::`RTTI Complete Object Locator'
	DD	00H
	DD	00H
	DD	FLAT:??_R0?AVCOrderLine@@@8
	DD	FLAT:??_R3COrderLine@@8
rdata$r	ENDS
;	COMDAT ??_R1A@?0A@EA@IChartAddIn003531@@8
rdata$r	SEGMENT
??_R1A@?0A@EA@IChartAddIn003531@@8 DD FLAT:??_R0?AUIChartAddIn003531@@@8 ; IChartAddIn003531::`RTTI Base Class Descriptor at (0,-1,0,64)'
	DD	01H
	DD	00H
	DD	0ffffffffH
	DD	00H
	DD	040H
	DD	FLAT:??_R3IChartAddIn003531@@8
rdata$r	ENDS
;	COMDAT ??_R2IChartAddIn003531@@8
rdata$r	SEGMENT
??_R2IChartAddIn003531@@8 DD FLAT:??_R1A@?0A@EA@IChartAddIn003531@@8 ; IChartAddIn003531::`RTTI Base Class Array'
	DD	FLAT:??_R1A@?0A@EA@IUnknown@@8
rdata$r	ENDS
;	COMDAT ??_R3IChartAddIn003531@@8
rdata$r	SEGMENT
??_R3IChartAddIn003531@@8 DD 00H			; IChartAddIn003531::`RTTI Class Hierarchy Descriptor'
	DD	00H
	DD	02H
	DD	FLAT:??_R2IChartAddIn003531@@8
rdata$r	ENDS
;	COMDAT ??_R0?AUIChartAddIn003531@@@8
data$rs	SEGMENT
??_R0?AUIChartAddIn003531@@@8 DD FLAT:??_7type_info@@6B@ ; IChartAddIn003531 `RTTI Type Descriptor'
	DD	00H
	DB	'.?AUIChartAddIn003531@@', 00H
data$rs	ENDS
;	COMDAT ??_C@_02PPNCLIJD@SS@
CONST	SEGMENT
??_C@_02PPNCLIJD@SS@ DB 'SS', 00H			; `string'
CONST	ENDS
;	COMDAT ??_C@_04PKMIKIE@MMSS@
CONST	SEGMENT
??_C@_04PKMIKIE@MMSS@ DB 'MMSS', 00H			; `string'
CONST	ENDS
;	COMDAT ??_C@_04DCGLEEGD@HHMM@
CONST	SEGMENT
??_C@_04DCGLEEGD@HHMM@ DB 'HHMM', 00H			; `string'
CONST	ENDS
;	COMDAT ??_C@_02EGJHDPJI@HH@
CONST	SEGMENT
??_C@_02EGJHDPJI@HH@ DB 'HH', 00H			; `string'
CONST	ENDS
;	COMDAT ??_C@_02ODDIIJPA@DD@
CONST	SEGMENT
??_C@_02ODDIIJPA@DD@ DB 'DD', 00H			; `string'
CONST	ENDS
;	COMDAT ??_C@_04BDEGLLOH@MMDD@
CONST	SEGMENT
??_C@_04BDEGLLOH@MMDD@ DB 'MMDD', 00H			; `string'
CONST	ENDS
;	COMDAT ??_C@_04LCMPBGFC@YYYY@
CONST	SEGMENT
??_C@_04LCMPBGFC@YYYY@ DB 'YYYY', 00H			; `string'
CONST	ENDS
;	COMDAT ??_C@_06IIANKLMD@?$LI?$LG?A?x?D?$NN@
CONST	SEGMENT
??_C@_06IIANKLMD@?$LI?$LG?A?x?D?$NN@ DB 0b8H, 0b6H, 0c1H, 0f8H, 0c4H, 0ddH
	DB	00H						; `string'
CONST	ENDS
;	COMDAT ??_C@_04DAIBFJOF@?C?$LL?$LL?j@
CONST	SEGMENT
??_C@_04DAIBFJOF@?C?$LL?$LL?j@ DB 0c3H, 0bbH, 0bbH, 0eaH, 00H ; `string'
CONST	ENDS
;	COMDAT ??_C@_04NKIBGBJK@?A?x?$MA?T@
CONST	SEGMENT
??_C@_04NKIBGBJK@?A?x?$MA?T@ DB 0c1H, 0f8H, 0c0H, 0d4H, 00H ; `string'
CONST	ENDS
;	COMDAT ??_C@_04FMMHFHOO@?$AN?6?$AN?6@
CONST	SEGMENT
??_C@_04FMMHFHOO@?$AN?6?$AN?6@ DB 0dH, 0aH, 0dH, 0aH, 00H ; `string'
CONST	ENDS
;	COMDAT ??_C@_0P@PLMNPDMB@?$CF02d?3?$CF02d?3?$CF02d@
CONST	SEGMENT
??_C@_0P@PLMNPDMB@?$CF02d?3?$CF02d?3?$CF02d@ DB '%02d:%02d:%02d', 00H ; `string'
CONST	ENDS
;	COMDAT ??_C@_06MAANBBPI@HHMMSS@
CONST	SEGMENT
??_C@_06MAANBBPI@HHMMSS@ DB 'HHMMSS', 00H		; `string'
CONST	ENDS
;	COMDAT ??_C@_0BE@BHNDCNAF@?$CF02d?1?$CF02d?1?$CF02d?3?$CF02d@
CONST	SEGMENT
??_C@_0BE@BHNDCNAF@?$CF02d?1?$CF02d?1?$CF02d?3?$CF02d@ DB '%02d/%02d/%02d'
	DB	':%02d', 00H					; `string'
CONST	ENDS
;	COMDAT ??_C@_08KLIIINKM@MMDDHHMM@
CONST	SEGMENT
??_C@_08KLIIINKM@MMDDHHMM@ DB 'MMDDHHMM', 00H		; `string'
CONST	ENDS
;	COMDAT ??_C@_08IGGAGJKH@?$CF4d?1?$CF02d@
CONST	SEGMENT
??_C@_08IGGAGJKH@?$CF4d?1?$CF02d@ DB '%4d/%02d', 00H	; `string'
CONST	ENDS
;	COMDAT ??_C@_06EBMMBHJD@YYYYMM@
CONST	SEGMENT
??_C@_06EBMMBHJD@YYYYMM@ DB 'YYYYMM', 00H		; `string'
CONST	ENDS
;	COMDAT ??_C@_0O@IIKJHPIJ@?$CF4d?1?$CF02d?1?$CF02d@
CONST	SEGMENT
??_C@_0O@IIKJHPIJ@?$CF4d?1?$CF02d?1?$CF02d@ DB '%4d/%02d/%02d', 00H ; `string'
CONST	ENDS
;	COMDAT ??_C@_08DKDJLCMP@YYYYMMDD@
CONST	SEGMENT
??_C@_08DKDJLCMP@YYYYMMDD@ DB 'YYYYMMDD', 00H		; `string'
CONST	ENDS
;	COMDAT ??_C@_03OOKILKBD@BUY@
CONST	SEGMENT
??_C@_03OOKILKBD@BUY@ DB 'BUY', 00H			; `string'
CONST	ENDS
;	COMDAT ??_C@_01EKENIIDA@3@
CONST	SEGMENT
??_C@_01EKENIIDA@3@ DB '3', 00H				; `string'
CONST	ENDS
;	COMDAT ??_C@_01FDFGLJHB@2@
CONST	SEGMENT
??_C@_01FDFGLJHB@2@ DB '2', 00H				; `string'
CONST	ENDS
;	COMDAT ??_C@_02BFICIOJL@ON@
CONST	SEGMENT
??_C@_02BFICIOJL@ON@ DB 'ON', 00H			; `string'
CONST	ENDS
;	COMDAT ??_C@_0M@IOIDFALE@?$CF2s?3?$CF2s?3?$CF2s@
CONST	SEGMENT
??_C@_0M@IOIDFALE@?$CF2s?3?$CF2s?3?$CF2s@ DB '%2s:%2s:%2s', 00H ; `string'
CONST	ENDS
;	COMDAT ??_C@_0BI@LPMCOGLF@?$CF4s?3?$CF2s?3?$CF2s?9?$CF2s?3?$CF2s?3?$CF2s@
CONST	SEGMENT
??_C@_0BI@LPMCOGLF@?$CF4s?3?$CF2s?3?$CF2s?9?$CF2s?3?$CF2s?3?$CF2s@ DB '%4'
	DB	's:%2s:%2s-%2s:%2s:%2s', 00H			; `string'
CONST	ENDS
;	COMDAT ??_C@_05MMFNHMGI@?$CF?$CF?$CFds@
CONST	SEGMENT
??_C@_05MMFNHMGI@?$CF?$CF?$CFds@ DB '%%%ds', 00H	; `string'
CONST	ENDS
;	COMDAT ??_C@_04MFHKFNBO@CLSL@
CONST	SEGMENT
??_C@_04MFHKFNBO@CLSL@ DB 'CLSL', 00H			; `string'
CONST	ENDS
;	COMDAT ??_C@_04GAEMOCHB@OR01@
CONST	SEGMENT
??_C@_04GAEMOCHB@OR01@ DB 'OR01', 00H			; `string'
CONST	ENDS
;	COMDAT ??_C@_04JKBILIIL@CH01@
CONST	SEGMENT
??_C@_04JKBILIIL@CH01@ DB 'CH01', 00H			; `string'
CONST	ENDS
;	COMDAT ??_C@_09DMMIPLCL@?A?V?$LJ?$KO?5?C?$LL?$LL?j@
CONST	SEGMENT
??_C@_09DMMIPLCL@?A?V?$LJ?$KO?5?C?$LL?$LL?j@ DB 0c1H, 0d6H, 0b9H, 0aeH, ' '
	DB	0c3H, 0bbH, 0bbH, 0eaH, 00H			; `string'
CONST	ENDS
;	COMDAT ??_C@_0BA@CIMPAIAF@Stop?1Limit?5?C?k?$LM?R@
CONST	SEGMENT
??_C@_0BA@CIMPAIAF@Stop?1Limit?5?C?k?$LM?R@ DB 'Stop/Limit ', 0c3H, 0ebH, 0bcH
	DB	0d2H, 00H					; `string'
CONST	ENDS
;	COMDAT ??_C@_0BA@DDLEBGKJ@Stop?1Limit?5?$MA?$PL?$LP?k@
CONST	SEGMENT
??_C@_0BA@DDLEBGKJ@Stop?1Limit?5?$MA?$PL?$LP?k@ DB 'Stop/Limit ', 0c0H, 0fbH
	DB	0bfH, 0ebH, 00H				; `string'
CONST	ENDS
;	COMDAT ??_C@_09OFBFFOPH@?A?V?$LJ?$KO?5?C?k?$LM?R@
CONST	SEGMENT
??_C@_09OFBFFOPH@?A?V?$LJ?$KO?5?C?k?$LM?R@ DB 0c1H, 0d6H, 0b9H, 0aeH, ' ', 0c3H
	DB	0ebH, 0bcH, 0d2H, 00H			; `string'
CONST	ENDS
;	COMDAT ??_C@_09HJOOGAIP@?A?V?$LJ?$KO?5?A?$KE?A?$KE@
CONST	SEGMENT
??_C@_09HJOOGAIP@?A?V?$LJ?$KO?5?A?$KE?A?$KE@ DB 0c1H, 0d6H, 0b9H, 0aeH, ' '
	DB	0c1H, 0a4H, 0c1H, 0a4H, 00H			; `string'
CONST	ENDS
;	COMDAT ??_C@_01HIHLOKLC@1@
CONST	SEGMENT
??_C@_01HIHLOKLC@1@ DB '1', 00H				; `string'
CONST	ENDS
;	COMDAT ??_C@_0M@IBDOPGAL@?$LN?C?$MA?e?$LA?$KB?5?$LI?E?$LM?v@
CONST	SEGMENT
??_C@_0M@IBDOPGAL@?$LN?C?$MA?e?$LA?$KB?5?$LI?E?$LM?v@ DB 0bdH, 0c3H, 0c0H
	DB	0e5H, 0b0H, 0a1H, ' ', 0b8H, 0c5H, 0bcH, 0f6H, 00H ; `string'
CONST	ENDS
;	COMDAT ??_C@_0M@FFLLNBEC@?$LN?C?$MA?e?$LA?$KB?5?$LI?E?$LF?$LF@
CONST	SEGMENT
??_C@_0M@FFLLNBEC@?$LN?C?$MA?e?$LA?$KB?5?$LI?E?$LF?$LF@ DB 0bdH, 0c3H, 0c0H
	DB	0e5H, 0b0H, 0a1H, ' ', 0b8H, 0c5H, 0b5H, 0b5H, 00H ; `string'
CONST	ENDS
;	COMDAT ??_C@_0O@CCHMAJJG@?$LP?$KK?A?v?A?$KE?$LA?$KB?5?$LI?E?$LM?v@
CONST	SEGMENT
??_C@_0O@CCHMAJJG@?$LP?$KK?A?v?A?$KE?$LA?$KB?5?$LI?E?$LM?v@ DB 0bfH, 0aaH
	DB	0c1H, 0f6H, 0c1H, 0a4H, 0b0H, 0a1H, ' ', 0b8H, 0c5H, 0bcH, 0f6H
	DB	00H						; `string'
CONST	ENDS
;	COMDAT ??_C@_0O@PGPJCONP@?$LP?$KK?A?v?A?$KE?$LA?$KB?5?$LI?E?$LF?$LF@
CONST	SEGMENT
??_C@_0O@PGPJCONP@?$LP?$KK?A?v?A?$KE?$LA?$KB?5?$LI?E?$LF?$LF@ DB 0bfH, 0aaH
	DB	0c1H, 0f6H, 0c1H, 0a4H, 0b0H, 0a1H, ' ', 0b8H, 0c5H, 0b5H, 0b5H
	DB	00H						; `string'
CONST	ENDS
;	COMDAT ??_C@_0M@NPGIKBFK@?A?v?A?$KE?$LA?$KB?5?$LI?E?$LM?v@
CONST	SEGMENT
??_C@_0M@NPGIKBFK@?A?v?A?$KE?$LA?$KB?5?$LI?E?$LM?v@ DB 0c1H, 0f6H, 0c1H, 0a4H
	DB	0b0H, 0a1H, ' ', 0b8H, 0c5H, 0bcH, 0f6H, 00H	; `string'
CONST	ENDS
;	COMDAT ??_C@_0M@LONIGBD@?A?v?A?$KE?$LA?$KB?5?$LI?E?$LF?$LF@
CONST	SEGMENT
??_C@_0M@LONIGBD@?A?v?A?$KE?$LA?$KB?5?$LI?E?$LF?$LF@ DB 0c1H, 0f6H, 0c1H, 0a4H
	DB	0b0H, 0a1H, ' ', 0b8H, 0c5H, 0b5H, 0b5H, 00H	; `string'
CONST	ENDS
;	COMDAT ??_C@_01CLKCMJKC@?5@
CONST	SEGMENT
??_C@_01CLKCMJKC@?5@ DB ' ', 00H			; `string'
CONST	ENDS
;	COMDAT ??_C@_07EEGHAAJM@?$CF?$CF?4?$CFdlf@
CONST	SEGMENT
??_C@_07EEGHAAJM@?$CF?$CF?4?$CFdlf@ DB '%%.%dlf', 00H	; `string'
CONST	ENDS
;	COMDAT ??_C@_01LFCBOECM@?4@
CONST	SEGMENT
??_C@_01LFCBOECM@?4@ DB '.', 00H			; `string'
CONST	ENDS
;	COMDAT __CT??_R0PAX@84
xdata$x	SEGMENT
__CT??_R0PAX@84 DD 01H
	DD	FLAT:??_R0PAX@8
	DD	00H
	DD	0ffffffffH
	ORG $+4
	DD	04H
	DD	00H
xdata$x	ENDS
;	COMDAT ??_R0PAX@8
data$r	SEGMENT
??_R0PAX@8 DD	FLAT:??_7type_info@@6B@			; void * `RTTI Type Descriptor'
	DD	00H
	DB	'.PAX', 00H
data$r	ENDS
;	COMDAT __CT??_R0PAUIUnknown@@@848
xdata$x	SEGMENT
__CT??_R0PAUIUnknown@@@848 DD 01H
	DD	FLAT:??_R0PAUIUnknown@@@8
	DD	08H
	DD	0ffffffffH
	DD	00H
	DD	04H
	DD	00H
xdata$x	ENDS
;	COMDAT ??_R0PAUIUnknown@@@8
data$r	SEGMENT
??_R0PAUIUnknown@@@8 DD FLAT:??_7type_info@@6B@		; IUnknown * `RTTI Type Descriptor'
	DD	00H
	DB	'.PAUIUnknown@@', 00H
data$r	ENDS
;	COMDAT __CT??_R0PAUIChartAddIn003531@@@848
xdata$x	SEGMENT
__CT??_R0PAUIChartAddIn003531@@@848 DD 01H
	DD	FLAT:??_R0PAUIChartAddIn003531@@@8
	DD	08H
	DD	0ffffffffH
	DD	00H
	DD	04H
	DD	00H
xdata$x	ENDS
;	COMDAT ??_R0PAUIChartAddIn003531@@@8
data$r	SEGMENT
??_R0PAUIChartAddIn003531@@@8 DD FLAT:??_7type_info@@6B@ ; IChartAddIn003531 * `RTTI Type Descriptor'
	DD	00H
	DB	'.PAUIChartAddIn003531@@', 00H
data$r	ENDS
;	COMDAT __CT??_R0PAVCObject@@@84
xdata$x	SEGMENT
__CT??_R0PAVCObject@@@84 DD 01H
	DD	FLAT:??_R0PAVCObject@@@8
	DD	00H
	DD	0ffffffffH
	ORG $+4
	DD	04H
	DD	00H
xdata$x	ENDS
;	COMDAT ??_R0PAVCObject@@@8
data$r	SEGMENT
??_R0PAVCObject@@@8 DD FLAT:??_7type_info@@6B@		; CObject * `RTTI Type Descriptor'
	DD	00H
	DB	'.PAVCObject@@', 00H
data$r	ENDS
;	COMDAT __CT??_R0PAVCIWUnknown@@@84
xdata$x	SEGMENT
__CT??_R0PAVCIWUnknown@@@84 DD 01H
	DD	FLAT:??_R0PAVCIWUnknown@@@8
	DD	00H
	DD	0ffffffffH
	ORG $+4
	DD	04H
	DD	00H
xdata$x	ENDS
;	COMDAT ??_R0PAVCIWUnknown@@@8
data$r	SEGMENT
??_R0PAVCIWUnknown@@@8 DD FLAT:??_7type_info@@6B@	; CIWUnknown * `RTTI Type Descriptor'
	DD	00H
	DB	'.PAVCIWUnknown@@', 00H
data$r	ENDS
;	COMDAT __CT??_R0PAVCChartAddInBase003531@@@84
xdata$x	SEGMENT
__CT??_R0PAVCChartAddInBase003531@@@84 DD 01H
	DD	FLAT:??_R0PAVCChartAddInBase003531@@@8
	DD	00H
	DD	0ffffffffH
	ORG $+4
	DD	04H
	DD	00H
xdata$x	ENDS
;	COMDAT ??_R0PAVCChartAddInBase003531@@@8
data$r	SEGMENT
??_R0PAVCChartAddInBase003531@@@8 DD FLAT:??_7type_info@@6B@ ; CChartAddInBase003531 * `RTTI Type Descriptor'
	DD	00H
	DB	'.PAVCChartAddInBase003531@@', 00H
data$r	ENDS
;	COMDAT __CT??_R0PAVCOrderLineAddInImp@@@84
xdata$x	SEGMENT
__CT??_R0PAVCOrderLineAddInImp@@@84 DD 01H
	DD	FLAT:??_R0PAVCOrderLineAddInImp@@@8
	DD	00H
	DD	0ffffffffH
	ORG $+4
	DD	04H
	DD	00H
xdata$x	ENDS
;	COMDAT ??_R0PAVCOrderLineAddInImp@@@8
data$r	SEGMENT
??_R0PAVCOrderLineAddInImp@@@8 DD FLAT:??_7type_info@@6B@ ; COrderLineAddInImp * `RTTI Type Descriptor'
	DD	00H
	DB	'.PAVCOrderLineAddInImp@@', 00H
data$r	ENDS
;	COMDAT __CTA7PAVCOrderLineAddInImp@@
xdata$x	SEGMENT
__CTA7PAVCOrderLineAddInImp@@ DD 07H
	DD	FLAT:__CT??_R0PAVCOrderLineAddInImp@@@84
	DD	FLAT:__CT??_R0PAVCChartAddInBase003531@@@84
	DD	FLAT:__CT??_R0PAVCIWUnknown@@@84
	DD	FLAT:__CT??_R0PAVCObject@@@84
	DD	FLAT:__CT??_R0PAUIChartAddIn003531@@@848
	DD	FLAT:__CT??_R0PAUIUnknown@@@848
	DD	FLAT:__CT??_R0PAX@84
xdata$x	ENDS
;	COMDAT __TI7PAVCOrderLineAddInImp@@
xdata$x	SEGMENT
__TI7PAVCOrderLineAddInImp@@ DD 00H
	DD	00H
	DD	00H
	DD	FLAT:__CTA7PAVCOrderLineAddInImp@@
xdata$x	ENDS
;	COMDAT ??_C@_07MGCPDNLD@DEFAULT@
CONST	SEGMENT
??_C@_07MGCPDNLD@DEFAULT@ DB 'DEFAULT', 00H		; `string'
CONST	ENDS
;	COMDAT ??_C@_0EH@LGJDLFBO@?A?V?$LJ?$KO?$LJ?x?H?$KD?5?3?5?$DM?$CFs?$DO?5?$AN?6?$LM?v?$LH?$KO?5?5?5?5?5?5?5?3?5@
CONST	SEGMENT
??_C@_0EH@LGJDLFBO@?A?V?$LJ?$KO?$LJ?x?H?$KD?5?3?5?$DM?$CFs?$DO?5?$AN?6?$LM?v?$LH?$KO?5?5?5?5?5?5?5?3?5@ DB 0c1H
	DB	0d6H, 0b9H, 0aeH, 0b9H, 0f8H, 0c8H, 0a3H, ' : <%s> ', 0dH, 0aH
	DB	0bcH, 0f6H, 0b7H, 0aeH, '       : %ld ', 0dH, 0aH, 0c8H, 0afH, 0c0H
	DB	0b2H, '       : %s ', 0dH, 0aH, 0bdH, 0c3H, 0b0H, 0a3H, '     '
	DB	'  : %s', 00H				; `string'
CONST	ENDS
;	COMDAT ??_C@_0EO@FPIPCAHD@?F?w?A?v?$LM?G?$LJ?x?H?$KD?3?5?$DM?$CFs?$DO?5?$AN?6?$LM?v?$LH?$KO?5?5?5?5?5?5?5?5@
CONST	SEGMENT
??_C@_0EO@FPIPCAHD@?F?w?A?v?$LM?G?$LJ?x?H?$KD?3?5?$DM?$CFs?$DO?5?$AN?6?$LM?v?$LH?$KO?5?5?5?5?5?5?5?5@ DB 0c6H
	DB	0f7H, 0c1H, 0f6H, 0bcH, 0c7H, 0b9H, 0f8H, 0c8H, 0a3H, ': <%s> '
	DB	0dH, 0aH, 0bcH, 0f6H, 0b7H, 0aeH, '         : %ld ', 0dH, 0aH, 0c8H
	DB	0afH, 0c0H, 0b2H, '         : %s ', 0dH, 0aH, 0bdH, 0c3H, 0b0H
	DB	0a3H, '         : %s', 00H			; `string'
CONST	ENDS
;	COMDAT ??_C@_0BE@NKANEIMB@?$DMLimit?$DO?5?$AN?6?$LA?$KB?$LA?$NN?5?3?5?$CFs@
CONST	SEGMENT
??_C@_0BE@NKANEIMB@?$DMLimit?$DO?5?$AN?6?$LA?$KB?$LA?$NN?5?3?5?$CFs@ DB '<'
	DB	'Limit> ', 0dH, 0aH, 0b0H, 0a1H, 0b0H, 0ddH, ' : %s', 00H ; `string'
CONST	ENDS
;	COMDAT ??_C@_0BD@JAHIENFA@?$DMStop?$DO?5?$AN?6?$LA?$KB?$LA?$NN?5?3?5?$CFs@
CONST	SEGMENT
??_C@_0BD@JAHIENFA@?$DMStop?$DO?5?$AN?6?$LA?$KB?$LA?$NN?5?3?5?$CFs@ DB '<'
	DB	'Stop> ', 0dH, 0aH, 0b0H, 0a1H, 0b0H, 0ddH, ' : %s', 00H ; `string'
CONST	ENDS
;	COMDAT ??_C@_01GBGANLPD@0@
CONST	SEGMENT
??_C@_01GBGANLPD@0@ DB '0', 00H				; `string'
CONST	ENDS
;	COMDAT ??_C@_0BI@HONDCDJJ@?$LJ?L?C?$LM?$LA?a?$DM?$CFs?$DO?0?5?$DM?$CFld?$DO?0?5?$DM?$CFs?$DO@
CONST	SEGMENT
??_C@_0BI@HONDCDJJ@?$LJ?L?C?$LM?$LA?a?$DM?$CFs?$DO?0?5?$DM?$CFld?$DO?0?5?$DM?$CFs?$DO@ DB 0b9H
	DB	0ccH, 0c3H, 0bcH, 0b0H, 0e1H, '<%s>, <%ld>, <%s>', 00H ; `string'
CONST	ENDS
;	COMDAT ??_C@_0BI@IPLBKFJF@?$LJ?L?C?$LL?$LL?j?$DM?$CFs?$DO?0?5?$DM?$CFld?$DO?0?5?$DM?$CFs?$DO@
CONST	SEGMENT
??_C@_0BI@IPLBKFJF@?$LJ?L?C?$LL?$LL?j?$DM?$CFs?$DO?0?5?$DM?$CFld?$DO?0?5?$DM?$CFs?$DO@ DB 0b9H
	DB	0ccH, 0c3H, 0bbH, 0bbH, 0eaH, '<%s>, <%ld>, <%s>', 00H ; `string'
CONST	ENDS
;	COMDAT ??_C@_0BH@IIKNGHIO@Limit?$DM?$CFs?$DO?0?5?$DM?$CFld?$DO?0?5?$DM?$CFs?$DO@
CONST	SEGMENT
??_C@_0BH@IIKNGHIO@Limit?$DM?$CFs?$DO?0?5?$DM?$CFld?$DO?0?5?$DM?$CFs?$DO@ DB 'L'
	DB	'imit<%s>, <%ld>, <%s>', 00H			; `string'
CONST	ENDS
;	COMDAT ??_C@_0BG@HNPHDGJO@Stop?$DM?$CFs?$DO?0?5?$DM?$CFld?$DO?0?5?$DM?$CFs?$DO@
CONST	SEGMENT
??_C@_0BG@HNPHDGJO@Stop?$DM?$CFs?$DO?0?5?$DM?$CFld?$DO?0?5?$DM?$CFs?$DO@ DB 'S'
	DB	'top<%s>, <%ld>, <%s>', 00H			; `string'
CONST	ENDS
;	COMDAT ??_C@_03DLDNIBIK@?$CFlf@
CONST	SEGMENT
??_C@_03DLDNIBIK@?$CFlf@ DB '%lf', 00H			; `string'
CONST	ENDS
;	COMDAT ??_C@_03OJJIDIBL@082@
CONST	SEGMENT
??_C@_03OJJIDIBL@082@ DB '082', 00H			; `string'
CONST	ENDS
;	COMDAT ??_C@_03NLKOFKJJ@080@
CONST	SEGMENT
??_C@_03NLKOFKJJ@080@ DB '080', 00H			; `string'
CONST	ENDS
;	COMDAT ??_C@_04CNODDAF@?$LI?E?$LF?$LF@
CONST	SEGMENT
??_C@_04CNODDAF@?$LI?E?$LF?$LF@ DB 0b8H, 0c5H, 0b5H, 0b5H, 00H ; `string'
CONST	ENDS
;	COMDAT ??_C@_03MCLFGLNI@081@
CONST	SEGMENT
??_C@_03MCLFGLNI@081@ DB '081', 00H			; `string'
CONST	ENDS
;	COMDAT ??_C@_04NGFLBEEM@?$LI?E?$LM?v@
CONST	SEGMENT
??_C@_04NGFLBEEM@?$LI?E?$LM?v@ DB 0b8H, 0c5H, 0bcH, 0f6H, 00H ; `string'
CONST	ENDS
;	COMDAT ??_C@_03BDAKGON@079@
CONST	SEGMENT
??_C@_03BDAKGON@079@ DB '079', 00H			; `string'
CONST	ENDS
;	COMDAT ??_7COrderLineAddInImp@@6BIChartAddIn003531@@@
CONST	SEGMENT
??_7COrderLineAddInImp@@6BIChartAddIn003531@@@ DD FLAT:??_R4COrderLineAddInImp@@6BIChartAddIn003531@@@ ; COrderLineAddInImp::`vftable'
	DD	FLAT:?QueryInterface@CChartAddInBase003531@@O7AGJABU_GUID@@PAPAX@Z
	DD	FLAT:?AddRef@CChartAddInBase003531@@O7AGKXZ
	DD	FLAT:?Release@CChartAddInBase003531@@O7AGKXZ
	DD	FLAT:??_ECOrderLineAddInImp@@W7AEPAXI@Z
	DD	FLAT:?HasFullManager@CChartAddInBase003531@@MAEHXZ
	DD	FLAT:?GetAddInCustomInterface@CChartAddInBase003531@@MAEPAUIUnknown@@XZ
	DD	FLAT:?InvokeAddIn@COrderLineAddInImp@@MAEHHJ@Z
	DD	FLAT:?InvokeAddInStr@COrderLineAddInImp@@MAEHPBD0@Z
	DD	FLAT:?OnOcxDestroyWindow@CChartAddInBase003531@@MAEXXZ
	DD	FLAT:?ChangeChartMode@CChartAddInBase003531@@MAEXW4CHART_MODE@CChartInfo@@@Z
	DD	FLAT:?RegisterEventMap@CChartAddInBase003531@@UAEHH@Z
	DD	FLAT:?UnregisterEventMap@CChartAddInBase003531@@UAEHXZ
	DD	FLAT:?OnGSharedDataChange@CChartAddInBase003531@@MAEXPBD0H@Z
	DD	FLAT:?OnLSharedDataChange@CChartAddInBase003531@@MAEXPBD0@Z
	DD	FLAT:?OnResetChart@COrderLineAddInImp@@MAEXXZ
	DD	FLAT:?OnDrawBeforeGraph@COrderLineAddInImp@@MAEXPAUHDC__@@@Z
	DD	FLAT:?OnDrawAfterGraph@COrderLineAddInImp@@MAEXPAUHDC__@@@Z
	DD	FLAT:?OnUpdatePacketData@COrderLineAddInImp@@MAEXH@Z
	DD	FLAT:?OnPacketDataMultiItem@CChartAddInBase003531@@MAEXPBD0H@Z
	DD	FLAT:?OnTimer@CChartAddInBase003531@@MAEXI@Z
	DD	FLAT:?OnCaptureChanged@CChartAddInBase003531@@MAEXPAUHWND__@@QAUHBITMAP__@@@Z
	DD	FLAT:?OnResetMainBlock@CChartAddInBase003531@@MAEXXZ
	DD	FLAT:?OnUserIndiatorConditionLoaded@CChartAddInBase003531@@MAEXXZ
	DD	FLAT:?OnChartItemChanged@CChartAddInBase003531@@MAEXXZ
	DD	FLAT:?OnGraphDataChanged@CChartAddInBase003531@@MAEXXZ
	DD	FLAT:?OnBlockRemoved@CChartAddInBase003531@@MAEXHH@Z
	DD	FLAT:?OnGraphAdded@CChartAddInBase003531@@MAEXPBD0@Z
	DD	FLAT:?OnManualRealData@CChartAddInBase003531@@MAEXPBDNH@Z
	DD	FLAT:?OnContextMenu@CChartAddInBase003531@@MAEXPAUHWND__@@AAUtagPOINT@@@Z
	DD	FLAT:?OnGraphDeleted@CChartAddInBase003531@@MAEXPBD0@Z
	DD	FLAT:?OnPacketTruncated@CChartAddInBase003531@@MAEXH@Z
	DD	FLAT:?OnBlockChanged@CChartAddInBase003531@@MAEXW4BLOCKBEHAVIOR@CBlockBaseData@@HHHH@Z
	DD	FLAT:?OnToolCommand@COrderLineAddInImp@@MAEXHH@Z
	DD	FLAT:?OnRealData@COrderLineAddInImp@@MAEXPBDN0@Z
	DD	FLAT:?OnIndexedRealData@CChartAddInBase003531@@MAEXPBDHN@Z
	DD	FLAT:?OnRealPacketEnd@CChartAddInBase003531@@MAEXPBD@Z
	DD	FLAT:?OnLoadEnvironment@CChartAddInBase003531@@MAEXPAUIPropertyMap@@@Z
	DD	FLAT:?OnSaveEnvironment@CChartAddInBase003531@@MAEXPAUIPropertyMap@@@Z
	DD	FLAT:?DrawCursor@COrderLineAddInImp@@MAE?AUtagRECT@@PAUHDC__@@@Z
	DD	FLAT:?OnRecalculationComplete@CChartAddInBase003531@@MAEXXZ
	DD	FLAT:?OnPreRealData@CChartAddInBase003531@@MAEHPBDAAN0H@Z
	DD	FLAT:?OnPreIndexedRealData@CChartAddInBase003531@@MAEHPBDHAANH@Z
	DD	FLAT:?OnPreRealPacketEnd@CChartAddInBase003531@@MAEHPBDH@Z
	DD	FLAT:?OnPreNMTRClock@CChartAddInBase003531@@MAEHAA_J@Z
	DD	FLAT:?OnCmdMsg@CChartAddInBase003531@@MAEHIHPAUICmdUI003531@@@Z
	DD	FLAT:?OnAddInMsg@CChartAddInBase003531@@MAEHPBDJ@Z
	DD	FLAT:?OnAddInToolCommand@CChartAddInBase003531@@MAEHAAJW4EAICommandType@@JJ@Z
	DD	FLAT:?OnAddInToolCommand@CChartAddInBase003531@@MAEHAAJW4EAICommandType@@J@Z
	DD	FLAT:?OnAddInToolCommand@CChartAddInBase003531@@MAEHAAJW4EAICommandType@@PBDPAVCObject@@@Z
	DD	FLAT:?OnAddInToolCommand@CChartAddInBase003531@@MAEHAAJW4EAICommandType@@PBD@Z
	DD	FLAT:?OnAddInToolCommand@CChartAddInBase003531@@MAEHAAJW4EAICommandType@@PAUIGraphInfo003531@@@Z
	DD	FLAT:?OnAddInToolCommand@CChartAddInBase003531@@MAEHAAJW4EAICommandType@@@Z
	DD	FLAT:?OnAddInToolCommand@CChartAddInBase003531@@MAEHW4EAICommandType@@JJJJJJJJJ@Z
	DD	FLAT:?OnAddInToolCommand@CChartAddInBase003531@@MAEHW4EAICommandType@@JJ@Z
	DD	FLAT:?OnAddInToolCommand@CChartAddInBase003531@@MAEHW4EAICommandType@@JPBD11@Z
	DD	FLAT:?OnAddInToolCommand@CChartAddInBase003531@@MAEHW4EAICommandType@@JPBD@Z
	DD	FLAT:?OnAddInToolCommand@CChartAddInBase003531@@MAEHW4EAICommandType@@J@Z
	DD	FLAT:?OnAddInToolCommand@CChartAddInBase003531@@MAEHW4EAICommandType@@PBUIAddInDllBase@@@Z
	DD	FLAT:?OnAddInToolCommand@CChartAddInBase003531@@MAEHW4EAICommandType@@PBDJ@Z
	DD	FLAT:?OnAddInToolCommand@CChartAddInBase003531@@MAEHW4EAICommandType@@PBD1@Z
	DD	FLAT:?OnAddInToolCommand@CChartAddInBase003531@@MAEHW4EAICommandType@@PBD@Z
	DD	FLAT:?OnAddInToolCommand@CChartAddInBase003531@@MAEHW4EAICommandType@@PAUHDC__@@IAAUtagPOINT@@K@Z
	DD	FLAT:?OnAddInToolCommand@CChartAddInBase003531@@MAEHW4EAICommandType@@@Z
	DD	FLAT:?OnKeyDown@CChartAddInBase003531@@MAEHIII@Z
	DD	FLAT:?OnKeyUp@CChartAddInBase003531@@MAEHIII@Z
	DD	FLAT:?OnMouseWheel@CChartAddInBase003531@@MAEHIFUtagPOINT@@K@Z
	DD	FLAT:?OnMouseMove@COrderLineAddInImp@@MAEHPAUHDC__@@IAAUtagPOINT@@KQAUHBITMAP__@@@Z
	DD	FLAT:?OnLButtonDown@COrderLineAddInImp@@MAEHPAUHDC__@@IAAUtagPOINT@@K@Z
	DD	FLAT:?OnLButtonUp@COrderLineAddInImp@@MAEHPAUHDC__@@IAAUtagPOINT@@K@Z
	DD	FLAT:?OnLButtonDblClk@COrderLineAddInImp@@MAEHPAUHDC__@@IAAUtagPOINT@@K@Z
	DD	FLAT:?OnRButtonDown@CChartAddInBase003531@@MAEHPAUHDC__@@IAAUtagPOINT@@K@Z
	DD	FLAT:?OnRButtonUp@COrderLineAddInImp@@MAEHPAUHDC__@@IAAUtagPOINT@@K@Z
	DD	FLAT:?OnRButtonDblClk@CChartAddInBase003531@@MAEHPAUHDC__@@IAAUtagPOINT@@K@Z
CONST	ENDS
;	COMDAT ??_7COrderLineAddInImp@@6BCIWUnknown@@@
CONST	SEGMENT
??_7COrderLineAddInImp@@6BCIWUnknown@@@ DD FLAT:??_R4COrderLineAddInImp@@6BCIWUnknown@@@ ; COrderLineAddInImp::`vftable'
	DD	FLAT:?GetRuntimeClass@CObject@@UBEPAUCRuntimeClass@@XZ
	DD	FLAT:??_ECOrderLineAddInImp@@UAEPAXI@Z
	DD	FLAT:?Serialize@CObject@@UAEXAAVCArchive@@@Z
	DD	FLAT:?AssertValid@CObject@@UBEXXZ
	DD	FLAT:?Dump@CObject@@UBEXAAVCDumpContext@@@Z
	DD	FLAT:?AddRef@CChartAddInBase003531@@MAGKXZ
	DD	FLAT:?Release@CChartAddInBase003531@@MAGKXZ
	DD	FLAT:?QueryInterface@CChartAddInBase003531@@MAGJABU_GUID@@PAPAX@Z
	DD	FLAT:?PostConstruct@CIWUnknown@@MAEXXZ
	DD	FLAT:?PreDestructX@CIWUnknown@@MAEXXZ
	DD	FLAT:?PreDestruct@CIWUnknown@@MAEXXZ
	DD	FLAT:?GetRegisteredEventMap@COrderLineAddInImp@@MBEPBW4EAddInEventType@IChartAddIn003531@@XZ
	DD	FLAT:?AfeterOnOcxDestroyWindow@CChartAddInBase003531@@MAEXXZ
CONST	ENDS
;	COMDAT ??_7?$CArray@PAVCCommentItem@@PAV1@@@6B@
CONST	SEGMENT
??_7?$CArray@PAVCCommentItem@@PAV1@@@6B@ DD FLAT:??_R4?$CArray@PAVCCommentItem@@PAV1@@@6B@ ; CArray<CCommentItem *,CCommentItem *>::`vftable'
	DD	FLAT:?GetRuntimeClass@CObject@@UBEPAUCRuntimeClass@@XZ
	DD	FLAT:??_E?$CArray@PAVCCommentItem@@PAV1@@@UAEPAXI@Z
	DD	FLAT:?Serialize@?$CArray@PAVCCommentItem@@PAV1@@@UAEXAAVCArchive@@@Z
	DD	FLAT:?AssertValid@CObject@@UBEXXZ
	DD	FLAT:?Dump@CObject@@UBEXAAVCDumpContext@@@Z
CONST	ENDS
;	COMDAT ??_7COrderLine@@6B@
CONST	SEGMENT
??_7COrderLine@@6B@ DD FLAT:??_R4COrderLine@@6B@	; COrderLine::`vftable'
	DD	FLAT:??_ECOrderLine@@UAEPAXI@Z
CONST	ENDS
;	COMDAT ??_R1A@?0A@EA@CMenu@@8
rdata$r	SEGMENT
??_R1A@?0A@EA@CMenu@@8 DD FLAT:??_R0?AVCMenu@@@8	; CMenu::`RTTI Base Class Descriptor at (0,-1,0,64)'
	DD	01H
	DD	00H
	DD	0ffffffffH
	DD	00H
	DD	040H
	DD	FLAT:??_R3CMenu@@8
rdata$r	ENDS
;	COMDAT ??_R2CMenu@@8
rdata$r	SEGMENT
??_R2CMenu@@8 DD FLAT:??_R1A@?0A@EA@CMenu@@8		; CMenu::`RTTI Base Class Array'
	DD	FLAT:??_R1A@?0A@EA@CObject@@8
rdata$r	ENDS
;	COMDAT ??_R3CMenu@@8
rdata$r	SEGMENT
??_R3CMenu@@8 DD 00H					; CMenu::`RTTI Class Hierarchy Descriptor'
	DD	00H
	DD	02H
	DD	FLAT:??_R2CMenu@@8
rdata$r	ENDS
;	COMDAT ??_R0?AVCMenu@@@8
data$rs	SEGMENT
??_R0?AVCMenu@@@8 DD FLAT:??_7type_info@@6B@		; CMenu `RTTI Type Descriptor'
	DD	00H
	DB	'.?AVCMenu@@', 00H
data$rs	ENDS
;	COMDAT ??_R4CMenu@@6B@
rdata$r	SEGMENT
??_R4CMenu@@6B@ DD 00H					; CMenu::`RTTI Complete Object Locator'
	DD	00H
	DD	00H
	DD	FLAT:??_R0?AVCMenu@@@8
	DD	FLAT:??_R3CMenu@@8
rdata$r	ENDS
;	COMDAT ??_R1A@?0A@EA@CFont@@8
rdata$r	SEGMENT
??_R1A@?0A@EA@CFont@@8 DD FLAT:??_R0?AVCFont@@@8	; CFont::`RTTI Base Class Descriptor at (0,-1,0,64)'
	DD	02H
	DD	00H
	DD	0ffffffffH
	DD	00H
	DD	040H
	DD	FLAT:??_R3CFont@@8
rdata$r	ENDS
;	COMDAT ??_R2CFont@@8
rdata$r	SEGMENT
??_R2CFont@@8 DD FLAT:??_R1A@?0A@EA@CFont@@8		; CFont::`RTTI Base Class Array'
	DD	FLAT:??_R1A@?0A@EA@CGdiObject@@8
	DD	FLAT:??_R1A@?0A@EA@CObject@@8
rdata$r	ENDS
;	COMDAT ??_R3CFont@@8
rdata$r	SEGMENT
??_R3CFont@@8 DD 00H					; CFont::`RTTI Class Hierarchy Descriptor'
	DD	00H
	DD	03H
	DD	FLAT:??_R2CFont@@8
rdata$r	ENDS
;	COMDAT ??_R0?AVCFont@@@8
data$rs	SEGMENT
??_R0?AVCFont@@@8 DD FLAT:??_7type_info@@6B@		; CFont `RTTI Type Descriptor'
	DD	00H
	DB	'.?AVCFont@@', 00H
data$rs	ENDS
;	COMDAT ??_R4CFont@@6B@
rdata$r	SEGMENT
??_R4CFont@@6B@ DD 00H					; CFont::`RTTI Complete Object Locator'
	DD	00H
	DD	00H
	DD	FLAT:??_R0?AVCFont@@@8
	DD	FLAT:??_R3CFont@@8
rdata$r	ENDS
;	COMDAT ??_R1A@?0A@EA@CBrush@@8
rdata$r	SEGMENT
??_R1A@?0A@EA@CBrush@@8 DD FLAT:??_R0?AVCBrush@@@8	; CBrush::`RTTI Base Class Descriptor at (0,-1,0,64)'
	DD	02H
	DD	00H
	DD	0ffffffffH
	DD	00H
	DD	040H
	DD	FLAT:??_R3CBrush@@8
rdata$r	ENDS
;	COMDAT ??_R2CBrush@@8
rdata$r	SEGMENT
??_R2CBrush@@8 DD FLAT:??_R1A@?0A@EA@CBrush@@8		; CBrush::`RTTI Base Class Array'
	DD	FLAT:??_R1A@?0A@EA@CGdiObject@@8
	DD	FLAT:??_R1A@?0A@EA@CObject@@8
rdata$r	ENDS
;	COMDAT ??_R3CBrush@@8
rdata$r	SEGMENT
??_R3CBrush@@8 DD 00H					; CBrush::`RTTI Class Hierarchy Descriptor'
	DD	00H
	DD	03H
	DD	FLAT:??_R2CBrush@@8
rdata$r	ENDS
;	COMDAT ??_R0?AVCBrush@@@8
data$rs	SEGMENT
??_R0?AVCBrush@@@8 DD FLAT:??_7type_info@@6B@		; CBrush `RTTI Type Descriptor'
	DD	00H
	DB	'.?AVCBrush@@', 00H
data$rs	ENDS
;	COMDAT ??_R4CBrush@@6B@
rdata$r	SEGMENT
??_R4CBrush@@6B@ DD 00H					; CBrush::`RTTI Complete Object Locator'
	DD	00H
	DD	00H
	DD	FLAT:??_R0?AVCBrush@@@8
	DD	FLAT:??_R3CBrush@@8
rdata$r	ENDS
;	COMDAT ??_R1A@?0A@EA@CPen@@8
rdata$r	SEGMENT
??_R1A@?0A@EA@CPen@@8 DD FLAT:??_R0?AVCPen@@@8		; CPen::`RTTI Base Class Descriptor at (0,-1,0,64)'
	DD	02H
	DD	00H
	DD	0ffffffffH
	DD	00H
	DD	040H
	DD	FLAT:??_R3CPen@@8
rdata$r	ENDS
;	COMDAT ??_R2CPen@@8
rdata$r	SEGMENT
??_R2CPen@@8 DD	FLAT:??_R1A@?0A@EA@CPen@@8		; CPen::`RTTI Base Class Array'
	DD	FLAT:??_R1A@?0A@EA@CGdiObject@@8
	DD	FLAT:??_R1A@?0A@EA@CObject@@8
rdata$r	ENDS
;	COMDAT ??_R3CPen@@8
rdata$r	SEGMENT
??_R3CPen@@8 DD	00H					; CPen::`RTTI Class Hierarchy Descriptor'
	DD	00H
	DD	03H
	DD	FLAT:??_R2CPen@@8
rdata$r	ENDS
;	COMDAT ??_R0?AVCPen@@@8
data$rs	SEGMENT
??_R0?AVCPen@@@8 DD FLAT:??_7type_info@@6B@		; CPen `RTTI Type Descriptor'
	DD	00H
	DB	'.?AVCPen@@', 00H
data$rs	ENDS
;	COMDAT ??_R4CPen@@6B@
rdata$r	SEGMENT
??_R4CPen@@6B@ DD 00H					; CPen::`RTTI Complete Object Locator'
	DD	00H
	DD	00H
	DD	FLAT:??_R0?AVCPen@@@8
	DD	FLAT:??_R3CPen@@8
rdata$r	ENDS
;	COMDAT ??_R1A@?0A@EA@CGdiObject@@8
rdata$r	SEGMENT
??_R1A@?0A@EA@CGdiObject@@8 DD FLAT:??_R0?AVCGdiObject@@@8 ; CGdiObject::`RTTI Base Class Descriptor at (0,-1,0,64)'
	DD	01H
	DD	00H
	DD	0ffffffffH
	DD	00H
	DD	040H
	DD	FLAT:??_R3CGdiObject@@8
rdata$r	ENDS
;	COMDAT ??_R2CGdiObject@@8
rdata$r	SEGMENT
??_R2CGdiObject@@8 DD FLAT:??_R1A@?0A@EA@CGdiObject@@8	; CGdiObject::`RTTI Base Class Array'
	DD	FLAT:??_R1A@?0A@EA@CObject@@8
rdata$r	ENDS
;	COMDAT ??_R3CGdiObject@@8
rdata$r	SEGMENT
??_R3CGdiObject@@8 DD 00H				; CGdiObject::`RTTI Class Hierarchy Descriptor'
	DD	00H
	DD	02H
	DD	FLAT:??_R2CGdiObject@@8
rdata$r	ENDS
;	COMDAT ??_R0?AVCGdiObject@@@8
data$rs	SEGMENT
??_R0?AVCGdiObject@@@8 DD FLAT:??_7type_info@@6B@	; CGdiObject `RTTI Type Descriptor'
	DD	00H
	DB	'.?AVCGdiObject@@', 00H
data$rs	ENDS
;	COMDAT ??_R4CGdiObject@@6B@
rdata$r	SEGMENT
??_R4CGdiObject@@6B@ DD 00H				; CGdiObject::`RTTI Complete Object Locator'
	DD	00H
	DD	00H
	DD	FLAT:??_R0?AVCGdiObject@@@8
	DD	FLAT:??_R3CGdiObject@@8
rdata$r	ENDS
;	COMDAT ??_R1A@?0A@EA@IUnknown@@8
rdata$r	SEGMENT
??_R1A@?0A@EA@IUnknown@@8 DD FLAT:??_R0?AUIUnknown@@@8	; IUnknown::`RTTI Base Class Descriptor at (0,-1,0,64)'
	DD	00H
	DD	00H
	DD	0ffffffffH
	DD	00H
	DD	040H
	DD	FLAT:??_R3IUnknown@@8
rdata$r	ENDS
;	COMDAT ??_R2IUnknown@@8
rdata$r	SEGMENT
??_R2IUnknown@@8 DD FLAT:??_R1A@?0A@EA@IUnknown@@8	; IUnknown::`RTTI Base Class Array'
rdata$r	ENDS
;	COMDAT ??_R3IUnknown@@8
rdata$r	SEGMENT
??_R3IUnknown@@8 DD 00H					; IUnknown::`RTTI Class Hierarchy Descriptor'
	DD	00H
	DD	01H
	DD	FLAT:??_R2IUnknown@@8
rdata$r	ENDS
;	COMDAT ??_R0?AUIUnknown@@@8
data$rs	SEGMENT
??_R0?AUIUnknown@@@8 DD FLAT:??_7type_info@@6B@		; IUnknown `RTTI Type Descriptor'
	DD	00H
	DB	'.?AUIUnknown@@', 00H
data$rs	ENDS
;	COMDAT ??_R1A@?0A@EA@CObject@@8
rdata$r	SEGMENT
??_R1A@?0A@EA@CObject@@8 DD FLAT:??_R0?AVCObject@@@8	; CObject::`RTTI Base Class Descriptor at (0,-1,0,64)'
	DD	00H
	DD	00H
	DD	0ffffffffH
	DD	00H
	DD	040H
	DD	FLAT:??_R3CObject@@8
rdata$r	ENDS
;	COMDAT ??_R2CObject@@8
rdata$r	SEGMENT
??_R2CObject@@8 DD FLAT:??_R1A@?0A@EA@CObject@@8	; CObject::`RTTI Base Class Array'
rdata$r	ENDS
;	COMDAT ??_R3CObject@@8
rdata$r	SEGMENT
??_R3CObject@@8 DD 00H					; CObject::`RTTI Class Hierarchy Descriptor'
	DD	00H
	DD	01H
	DD	FLAT:??_R2CObject@@8
rdata$r	ENDS
;	COMDAT ??_R0?AVCObject@@@8
data$rs	SEGMENT
??_R0?AVCObject@@@8 DD FLAT:??_7type_info@@6B@		; CObject `RTTI Type Descriptor'
	DD	00H
	DB	'.?AVCObject@@', 00H
data$rs	ENDS
;	COMDAT ??_C@_0N@OMEMOKLE@?$CFTs?5?$CI?$CFTs?3?$CFd?$CJ@
CONST	SEGMENT
??_C@_0N@OMEMOKLE@?$CFTs?5?$CI?$CFTs?3?$CFd?$CJ@ DB '%Ts (%Ts:%d)', 00H ; `string'
CONST	ENDS
;	COMDAT ??_C@_0BB@HBOOMJBF@?$CFTs?5?$CI?$CFTs?3?$CFd?$CJ?6?$CFTs@
CONST	SEGMENT
??_C@_0BB@HBOOMJBF@?$CFTs?5?$CI?$CFTs?3?$CFd?$CJ?6?$CFTs@ DB '%Ts (%Ts:%d'
	DB	')', 0aH, '%Ts', 00H				; `string'
CONST	ENDS
;	COMDAT ??_C@_0BP@OIEOKIDM@Exception?5thrown?5in?5destructor@
CONST	SEGMENT
??_C@_0BP@OIEOKIDM@Exception?5thrown?5in?5destructor@ DB 'Exception throw'
	DB	'n in destructor', 00H			; `string'
CONST	ENDS
;	COMDAT ??_C@_0HD@JJCHHHNK@C?3?2Program?5Files?5?$CIx86?$CJ?2Microsof@
CONST	SEGMENT
??_C@_0HD@JJCHHHNK@C?3?2Program?5Files?5?$CIx86?$CJ?2Microsof@ DB 'C:\Pro'
	DB	'gram Files (x86)\Microsoft Visual Studio\2019\Community\VC\To'
	DB	'ols\MSVC\14.29.30133\atlmfc\include\afxwin1.inl', 00H ; `string'
CONST	ENDS
;	COMDAT ??_7CMenu@@6B@
CONST	SEGMENT
??_7CMenu@@6B@ DD FLAT:??_R4CMenu@@6B@			; CMenu::`vftable'
	DD	FLAT:?GetRuntimeClass@CMenu@@UBEPAUCRuntimeClass@@XZ
	DD	FLAT:??_ECMenu@@UAEPAXI@Z
	DD	FLAT:?Serialize@CObject@@UAEXAAVCArchive@@@Z
	DD	FLAT:?AssertValid@CObject@@UBEXXZ
	DD	FLAT:?Dump@CObject@@UBEXAAVCDumpContext@@@Z
	DD	FLAT:?DrawItem@CMenu@@UAEXPAUtagDRAWITEMSTRUCT@@@Z
	DD	FLAT:?MeasureItem@CMenu@@UAEXPAUtagMEASUREITEMSTRUCT@@@Z
CONST	ENDS
;	COMDAT ??_7CFont@@6B@
CONST	SEGMENT
??_7CFont@@6B@ DD FLAT:??_R4CFont@@6B@			; CFont::`vftable'
	DD	FLAT:?GetRuntimeClass@CFont@@UBEPAUCRuntimeClass@@XZ
	DD	FLAT:??_ECFont@@UAEPAXI@Z
	DD	FLAT:?Serialize@CObject@@UAEXAAVCArchive@@@Z
	DD	FLAT:?AssertValid@CObject@@UBEXXZ
	DD	FLAT:?Dump@CObject@@UBEXAAVCDumpContext@@@Z
CONST	ENDS
;	COMDAT ??_7CBrush@@6B@
CONST	SEGMENT
??_7CBrush@@6B@ DD FLAT:??_R4CBrush@@6B@		; CBrush::`vftable'
	DD	FLAT:?GetRuntimeClass@CBrush@@UBEPAUCRuntimeClass@@XZ
	DD	FLAT:??_ECBrush@@UAEPAXI@Z
	DD	FLAT:?Serialize@CObject@@UAEXAAVCArchive@@@Z
	DD	FLAT:?AssertValid@CObject@@UBEXXZ
	DD	FLAT:?Dump@CObject@@UBEXAAVCDumpContext@@@Z
CONST	ENDS
;	COMDAT ??_7CPen@@6B@
CONST	SEGMENT
??_7CPen@@6B@ DD FLAT:??_R4CPen@@6B@			; CPen::`vftable'
	DD	FLAT:?GetRuntimeClass@CPen@@UBEPAUCRuntimeClass@@XZ
	DD	FLAT:??_ECPen@@UAEPAXI@Z
	DD	FLAT:?Serialize@CObject@@UAEXAAVCArchive@@@Z
	DD	FLAT:?AssertValid@CObject@@UBEXXZ
	DD	FLAT:?Dump@CObject@@UBEXAAVCDumpContext@@@Z
CONST	ENDS
;	COMDAT ??_7CGdiObject@@6B@
CONST	SEGMENT
??_7CGdiObject@@6B@ DD FLAT:??_R4CGdiObject@@6B@	; CGdiObject::`vftable'
	DD	FLAT:?GetRuntimeClass@CGdiObject@@UBEPAUCRuntimeClass@@XZ
	DD	FLAT:??_ECGdiObject@@UAEPAXI@Z
	DD	FLAT:?Serialize@CObject@@UAEXAAVCArchive@@@Z
	DD	FLAT:?AssertValid@CObject@@UBEXXZ
	DD	FLAT:?Dump@CObject@@UBEXAAVCDumpContext@@@Z
CONST	ENDS
;	COMDAT ??_C@_00CNPNBAHC@@
CONST	SEGMENT
??_C@_00CNPNBAHC@@ DB 00H				; `string'
CONST	ENDS
;	COMDAT ??_C@_02DPKJAMEF@?$CFd@
CONST	SEGMENT
??_C@_02DPKJAMEF@?$CFd@ DB '%d', 00H			; `string'
CONST	ENDS
;	COMDAT ??_R0PAVCException@@@8
data$r	SEGMENT
??_R0PAVCException@@@8 DD FLAT:??_7type_info@@6B@	; CException * `RTTI Type Descriptor'
	DD	00H
	DB	'.PAVCException@@', 00H
data$r	ENDS
;	COMDAT xdata$x
xdata$x	SEGMENT
__ehfuncinfo$??1ILPCSTR003531@@QAE@XZ DD 019930522H
	DD	00H
	DD	00H
	DD	2 DUP(00H)
	DD	2 DUP(00H)
	DD	00H
	DD	05H
xdata$x	ENDS
;	COMDAT xdata$x
xdata$x	SEGMENT
__ehfuncinfo$??1CMultiLanguageResourceSetter@@QAE@XZ DD 019930522H
	DD	00H
	DD	00H
	DD	2 DUP(00H)
	DD	2 DUP(00H)
	DD	00H
	DD	05H
xdata$x	ENDS
;	COMDAT xdata$x
xdata$x	SEGMENT
__unwindtable$??_GCOrderLineAddInImp@@UAEPAXI@Z DD 0ffffffffH
	DD	FLAT:___std_terminate
__ehfuncinfo$??_GCOrderLineAddInImp@@UAEPAXI@Z DD 019930522H
	DD	01H
	DD	FLAT:__unwindtable$??_GCOrderLineAddInImp@@UAEPAXI@Z
	DD	2 DUP(00H)
	DD	2 DUP(00H)
	DD	00H
	DD	05H
xdata$x	ENDS
;	COMDAT xdata$x
xdata$x	SEGMENT
__ehfuncinfo$?OnRButtonUp@COrderLineAddInImp@@MAEHPAUHDC__@@IAAUtagPOINT@@K@Z DD 019930522H
	DD	028H
	DD	FLAT:__unwindtable$?OnRButtonUp@COrderLineAddInImp@@MAEHPAUHDC__@@IAAUtagPOINT@@K@Z
	DD	2 DUP(00H)
	DD	2 DUP(00H)
	DD	00H
	DD	01H
__unwindtable$?OnRButtonUp@COrderLineAddInImp@@MAEHPAUHDC__@@IAAUtagPOINT@@K@Z DD 0ffffffffH
	DD	FLAT:__unwindfunclet$?OnRButtonUp@COrderLineAddInImp@@MAEHPAUHDC__@@IAAUtagPOINT@@K@Z$0
	DD	00H
	DD	FLAT:__unwindfunclet$?OnRButtonUp@COrderLineAddInImp@@MAEHPAUHDC__@@IAAUtagPOINT@@K@Z$1
	DD	00H
	DD	00H
	DD	01H
	DD	FLAT:__unwindfunclet$?OnRButtonUp@COrderLineAddInImp@@MAEHPAUHDC__@@IAAUtagPOINT@@K@Z$2
	DD	03H
	DD	FLAT:__unwindfunclet$?OnRButtonUp@COrderLineAddInImp@@MAEHPAUHDC__@@IAAUtagPOINT@@K@Z$3
	DD	04H
	DD	FLAT:__unwindfunclet$?OnRButtonUp@COrderLineAddInImp@@MAEHPAUHDC__@@IAAUtagPOINT@@K@Z$4
	DD	04H
	DD	FLAT:__unwindfunclet$?OnRButtonUp@COrderLineAddInImp@@MAEHPAUHDC__@@IAAUtagPOINT@@K@Z$5
	DD	06H
	DD	FLAT:__unwindfunclet$?OnRButtonUp@COrderLineAddInImp@@MAEHPAUHDC__@@IAAUtagPOINT@@K@Z$6
	DD	07H
	DD	FLAT:__unwindfunclet$?OnRButtonUp@COrderLineAddInImp@@MAEHPAUHDC__@@IAAUtagPOINT@@K@Z$7
	DD	08H
	DD	FLAT:__unwindfunclet$?OnRButtonUp@COrderLineAddInImp@@MAEHPAUHDC__@@IAAUtagPOINT@@K@Z$8
	DD	00H
	DD	FLAT:___std_terminate
	DD	01H
	DD	FLAT:__unwindfunclet$?OnRButtonUp@COrderLineAddInImp@@MAEHPAUHDC__@@IAAUtagPOINT@@K@Z$10
	DD	0bH
	DD	FLAT:__unwindfunclet$?OnRButtonUp@COrderLineAddInImp@@MAEHPAUHDC__@@IAAUtagPOINT@@K@Z$11
	DD	0cH
	DD	FLAT:__unwindfunclet$?OnRButtonUp@COrderLineAddInImp@@MAEHPAUHDC__@@IAAUtagPOINT@@K@Z$12
	DD	0cH
	DD	FLAT:__unwindfunclet$?OnRButtonUp@COrderLineAddInImp@@MAEHPAUHDC__@@IAAUtagPOINT@@K@Z$13
	DD	0eH
	DD	FLAT:__unwindfunclet$?OnRButtonUp@COrderLineAddInImp@@MAEHPAUHDC__@@IAAUtagPOINT@@K@Z$14
	DD	0fH
	DD	FLAT:__unwindfunclet$?OnRButtonUp@COrderLineAddInImp@@MAEHPAUHDC__@@IAAUtagPOINT@@K@Z$15
	DD	010H
	DD	FLAT:__unwindfunclet$?OnRButtonUp@COrderLineAddInImp@@MAEHPAUHDC__@@IAAUtagPOINT@@K@Z$16
	DD	01H
	DD	FLAT:__unwindfunclet$?OnRButtonUp@COrderLineAddInImp@@MAEHPAUHDC__@@IAAUtagPOINT@@K@Z$18
	DD	012H
	DD	FLAT:__unwindfunclet$?OnRButtonUp@COrderLineAddInImp@@MAEHPAUHDC__@@IAAUtagPOINT@@K@Z$19
	DD	01H
	DD	FLAT:__unwindfunclet$?OnRButtonUp@COrderLineAddInImp@@MAEHPAUHDC__@@IAAUtagPOINT@@K@Z$21
	DD	014H
	DD	FLAT:__unwindfunclet$?OnRButtonUp@COrderLineAddInImp@@MAEHPAUHDC__@@IAAUtagPOINT@@K@Z$22
	DD	00H
	DD	FLAT:___std_terminate
	DD	00H
	DD	FLAT:__unwindfunclet$?OnRButtonUp@COrderLineAddInImp@@MAEHPAUHDC__@@IAAUtagPOINT@@K@Z$24
	DD	017H
	DD	FLAT:__unwindfunclet$?OnRButtonUp@COrderLineAddInImp@@MAEHPAUHDC__@@IAAUtagPOINT@@K@Z$25
	DD	018H
	DD	FLAT:__unwindfunclet$?OnRButtonUp@COrderLineAddInImp@@MAEHPAUHDC__@@IAAUtagPOINT@@K@Z$26
	DD	017H
	DD	FLAT:__unwindfunclet$?OnRButtonUp@COrderLineAddInImp@@MAEHPAUHDC__@@IAAUtagPOINT@@K@Z$28
	DD	01aH
	DD	FLAT:__unwindfunclet$?OnRButtonUp@COrderLineAddInImp@@MAEHPAUHDC__@@IAAUtagPOINT@@K@Z$29
	DD	017H
	DD	FLAT:__unwindfunclet$?OnRButtonUp@COrderLineAddInImp@@MAEHPAUHDC__@@IAAUtagPOINT@@K@Z$31
	DD	01cH
	DD	FLAT:__unwindfunclet$?OnRButtonUp@COrderLineAddInImp@@MAEHPAUHDC__@@IAAUtagPOINT@@K@Z$32
	DD	017H
	DD	FLAT:__unwindfunclet$?OnRButtonUp@COrderLineAddInImp@@MAEHPAUHDC__@@IAAUtagPOINT@@K@Z$34
	DD	01eH
	DD	FLAT:__unwindfunclet$?OnRButtonUp@COrderLineAddInImp@@MAEHPAUHDC__@@IAAUtagPOINT@@K@Z$35
	DD	017H
	DD	FLAT:__unwindfunclet$?OnRButtonUp@COrderLineAddInImp@@MAEHPAUHDC__@@IAAUtagPOINT@@K@Z$37
	DD	020H
	DD	FLAT:__unwindfunclet$?OnRButtonUp@COrderLineAddInImp@@MAEHPAUHDC__@@IAAUtagPOINT@@K@Z$38
	DD	017H
	DD	FLAT:__unwindfunclet$?OnRButtonUp@COrderLineAddInImp@@MAEHPAUHDC__@@IAAUtagPOINT@@K@Z$40
	DD	022H
	DD	FLAT:__unwindfunclet$?OnRButtonUp@COrderLineAddInImp@@MAEHPAUHDC__@@IAAUtagPOINT@@K@Z$41
	DD	017H
	DD	FLAT:__unwindfunclet$?OnRButtonUp@COrderLineAddInImp@@MAEHPAUHDC__@@IAAUtagPOINT@@K@Z$43
	DD	024H
	DD	FLAT:__unwindfunclet$?OnRButtonUp@COrderLineAddInImp@@MAEHPAUHDC__@@IAAUtagPOINT@@K@Z$44
	DD	00H
	DD	FLAT:___std_terminate
	DD	0ffffffffH
	DD	FLAT:___std_terminate
xdata$x	ENDS
;	COMDAT xdata$x
xdata$x	SEGMENT
__ehfuncinfo$?OnLButtonDblClk@COrderLineAddInImp@@MAEHPAUHDC__@@IAAUtagPOINT@@K@Z DD 019930522H
	DD	09H
	DD	FLAT:__unwindtable$?OnLButtonDblClk@COrderLineAddInImp@@MAEHPAUHDC__@@IAAUtagPOINT@@K@Z
	DD	2 DUP(00H)
	DD	2 DUP(00H)
	DD	00H
	DD	01H
__unwindtable$?OnLButtonDblClk@COrderLineAddInImp@@MAEHPAUHDC__@@IAAUtagPOINT@@K@Z DD 0ffffffffH
	DD	FLAT:__unwindfunclet$?OnLButtonDblClk@COrderLineAddInImp@@MAEHPAUHDC__@@IAAUtagPOINT@@K@Z$0
	DD	00H
	DD	FLAT:__unwindfunclet$?OnLButtonDblClk@COrderLineAddInImp@@MAEHPAUHDC__@@IAAUtagPOINT@@K@Z$1
	DD	01H
	DD	FLAT:__unwindfunclet$?OnLButtonDblClk@COrderLineAddInImp@@MAEHPAUHDC__@@IAAUtagPOINT@@K@Z$2
	DD	02H
	DD	FLAT:__unwindfunclet$?OnLButtonDblClk@COrderLineAddInImp@@MAEHPAUHDC__@@IAAUtagPOINT@@K@Z$3
	DD	02H
	DD	FLAT:__unwindfunclet$?OnLButtonDblClk@COrderLineAddInImp@@MAEHPAUHDC__@@IAAUtagPOINT@@K@Z$4
	DD	04H
	DD	FLAT:__unwindfunclet$?OnLButtonDblClk@COrderLineAddInImp@@MAEHPAUHDC__@@IAAUtagPOINT@@K@Z$5
	DD	05H
	DD	FLAT:__unwindfunclet$?OnLButtonDblClk@COrderLineAddInImp@@MAEHPAUHDC__@@IAAUtagPOINT@@K@Z$6
	DD	06H
	DD	FLAT:__unwindfunclet$?OnLButtonDblClk@COrderLineAddInImp@@MAEHPAUHDC__@@IAAUtagPOINT@@K@Z$7
	DD	0ffffffffH
	DD	FLAT:___std_terminate
xdata$x	ENDS
;	COMDAT xdata$x
xdata$x	SEGMENT
__unwindtable$?OnLButtonDown@COrderLineAddInImp@@MAEHPAUHDC__@@IAAUtagPOINT@@K@Z DD 0ffffffffH
	DD	FLAT:__unwindfunclet$?OnLButtonDown@COrderLineAddInImp@@MAEHPAUHDC__@@IAAUtagPOINT@@K@Z$0
	DD	0ffffffffH
	DD	FLAT:___std_terminate
__ehfuncinfo$?OnLButtonDown@COrderLineAddInImp@@MAEHPAUHDC__@@IAAUtagPOINT@@K@Z DD 019930522H
	DD	02H
	DD	FLAT:__unwindtable$?OnLButtonDown@COrderLineAddInImp@@MAEHPAUHDC__@@IAAUtagPOINT@@K@Z
	DD	2 DUP(00H)
	DD	2 DUP(00H)
	DD	00H
	DD	01H
xdata$x	ENDS
;	COMDAT xdata$x
xdata$x	SEGMENT
__unwindtable$?OnMouseMove@COrderLineAddInImp@@MAEHPAUHDC__@@IAAUtagPOINT@@KQAUHBITMAP__@@@Z DD 0ffffffffH
	DD	FLAT:__unwindfunclet$?OnMouseMove@COrderLineAddInImp@@MAEHPAUHDC__@@IAAUtagPOINT@@KQAUHBITMAP__@@@Z$0
	DD	00H
	DD	FLAT:__unwindfunclet$?OnMouseMove@COrderLineAddInImp@@MAEHPAUHDC__@@IAAUtagPOINT@@KQAUHBITMAP__@@@Z$2
	DD	00H
	DD	FLAT:__unwindfunclet$?OnMouseMove@COrderLineAddInImp@@MAEHPAUHDC__@@IAAUtagPOINT@@KQAUHBITMAP__@@@Z$1
	DD	0ffffffffH
	DD	FLAT:___std_terminate
__ehfuncinfo$?OnMouseMove@COrderLineAddInImp@@MAEHPAUHDC__@@IAAUtagPOINT@@KQAUHBITMAP__@@@Z DD 019930522H
	DD	04H
	DD	FLAT:__unwindtable$?OnMouseMove@COrderLineAddInImp@@MAEHPAUHDC__@@IAAUtagPOINT@@KQAUHBITMAP__@@@Z
	DD	2 DUP(00H)
	DD	2 DUP(00H)
	DD	00H
	DD	01H
xdata$x	ENDS
;	COMDAT xdata$x
xdata$x	SEGMENT
__catchsym$?OnDrawAfterGraph@COrderLineAddInImp@@MAEXPAUHDC__@@@Z$10 DD 00H
	DD	FLAT:??_R0PAVCException@@@8
	DD	00H
	DD	FLAT:__catch$?OnDrawAfterGraph@COrderLineAddInImp@@MAEXPAUHDC__@@@Z$0
__tryblocktable$?OnDrawAfterGraph@COrderLineAddInImp@@MAEXPAUHDC__@@@Z DD 06H
	DD	07H
	DD	08H
	DD	01H
	DD	FLAT:__catchsym$?OnDrawAfterGraph@COrderLineAddInImp@@MAEXPAUHDC__@@@Z$10
__ehfuncinfo$?OnDrawAfterGraph@COrderLineAddInImp@@MAEXPAUHDC__@@@Z DD 019930522H
	DD	09H
	DD	FLAT:__unwindtable$?OnDrawAfterGraph@COrderLineAddInImp@@MAEXPAUHDC__@@@Z
	DD	01H
	DD	FLAT:__tryblocktable$?OnDrawAfterGraph@COrderLineAddInImp@@MAEXPAUHDC__@@@Z
	DD	2 DUP(00H)
	DD	00H
	DD	01H
__unwindtable$?OnDrawAfterGraph@COrderLineAddInImp@@MAEXPAUHDC__@@@Z DD 0ffffffffH
	DD	FLAT:__unwindfunclet$?OnDrawAfterGraph@COrderLineAddInImp@@MAEXPAUHDC__@@@Z$5
	DD	0ffffffffH
	DD	FLAT:___std_terminate
	DD	0ffffffffH
	DD	FLAT:___std_terminate
	DD	0ffffffffH
	DD	FLAT:___std_terminate
	DD	0ffffffffH
	DD	FLAT:__unwindfunclet$?OnDrawAfterGraph@COrderLineAddInImp@@MAEXPAUHDC__@@@Z$2
	DD	04H
	DD	FLAT:__unwindfunclet$?OnDrawAfterGraph@COrderLineAddInImp@@MAEXPAUHDC__@@@Z$3
	DD	04H
	DD	00H
	DD	06H
	DD	FLAT:__unwindfunclet$?OnDrawAfterGraph@COrderLineAddInImp@@MAEXPAUHDC__@@@Z$4
	DD	04H
	DD	00H
xdata$x	ENDS
;	COMDAT xdata$x
xdata$x	SEGMENT
__unwindtable$?GetGraphVScaleRegion@COrderLineAddInImp@@IAEHXZ DD 0ffffffffH
	DD	FLAT:__unwindfunclet$?GetGraphVScaleRegion@COrderLineAddInImp@@IAEHXZ$0
	DD	0ffffffffH
	DD	FLAT:___std_terminate
__ehfuncinfo$?GetGraphVScaleRegion@COrderLineAddInImp@@IAEHXZ DD 019930522H
	DD	02H
	DD	FLAT:__unwindtable$?GetGraphVScaleRegion@COrderLineAddInImp@@IAEHXZ
	DD	2 DUP(00H)
	DD	2 DUP(00H)
	DD	00H
	DD	01H
xdata$x	ENDS
;	COMDAT xdata$x
xdata$x	SEGMENT
__unwindtable$?GetGraphBlockRegion@COrderLineAddInImp@@IAEHXZ DD 0ffffffffH
	DD	FLAT:__unwindfunclet$?GetGraphBlockRegion@COrderLineAddInImp@@IAEHXZ$0
	DD	0ffffffffH
	DD	FLAT:___std_terminate
__ehfuncinfo$?GetGraphBlockRegion@COrderLineAddInImp@@IAEHXZ DD 019930522H
	DD	02H
	DD	FLAT:__unwindtable$?GetGraphBlockRegion@COrderLineAddInImp@@IAEHXZ
	DD	2 DUP(00H)
	DD	2 DUP(00H)
	DD	00H
	DD	01H
xdata$x	ENDS
;	COMDAT xdata$x
xdata$x	SEGMENT
__ehfuncinfo$?GetIndexFromValue@COrderLineAddInImp@@QAEHV?$CStringT@DV?$StrTraitMFC_DLL@DV?$ChTraitsCRT@D@ATL@@@@@ATL@@AAJ@Z DD 019930522H
	DD	0bH
	DD	FLAT:__unwindtable$?GetIndexFromValue@COrderLineAddInImp@@QAEHV?$CStringT@DV?$StrTraitMFC_DLL@DV?$ChTraitsCRT@D@ATL@@@@@ATL@@AAJ@Z
	DD	2 DUP(00H)
	DD	2 DUP(00H)
	DD	00H
	DD	01H
__unwindtable$?GetIndexFromValue@COrderLineAddInImp@@QAEHV?$CStringT@DV?$StrTraitMFC_DLL@DV?$ChTraitsCRT@D@ATL@@@@@ATL@@AAJ@Z DD 0ffffffffH
	DD	FLAT:__unwindfunclet$?GetIndexFromValue@COrderLineAddInImp@@QAEHV?$CStringT@DV?$StrTraitMFC_DLL@DV?$ChTraitsCRT@D@ATL@@@@@ATL@@AAJ@Z$0
	DD	00H
	DD	FLAT:__unwindfunclet$?GetIndexFromValue@COrderLineAddInImp@@QAEHV?$CStringT@DV?$StrTraitMFC_DLL@DV?$ChTraitsCRT@D@ATL@@@@@ATL@@AAJ@Z$1
	DD	01H
	DD	FLAT:__unwindfunclet$?GetIndexFromValue@COrderLineAddInImp@@QAEHV?$CStringT@DV?$StrTraitMFC_DLL@DV?$ChTraitsCRT@D@ATL@@@@@ATL@@AAJ@Z$2
	DD	02H
	DD	FLAT:__unwindfunclet$?GetIndexFromValue@COrderLineAddInImp@@QAEHV?$CStringT@DV?$StrTraitMFC_DLL@DV?$ChTraitsCRT@D@ATL@@@@@ATL@@AAJ@Z$3
	DD	03H
	DD	FLAT:__unwindfunclet$?GetIndexFromValue@COrderLineAddInImp@@QAEHV?$CStringT@DV?$StrTraitMFC_DLL@DV?$ChTraitsCRT@D@ATL@@@@@ATL@@AAJ@Z$4
	DD	03H
	DD	FLAT:__unwindfunclet$?GetIndexFromValue@COrderLineAddInImp@@QAEHV?$CStringT@DV?$StrTraitMFC_DLL@DV?$ChTraitsCRT@D@ATL@@@@@ATL@@AAJ@Z$5
	DD	03H
	DD	FLAT:__unwindfunclet$?GetIndexFromValue@COrderLineAddInImp@@QAEHV?$CStringT@DV?$StrTraitMFC_DLL@DV?$ChTraitsCRT@D@ATL@@@@@ATL@@AAJ@Z$6
	DD	03H
	DD	FLAT:__unwindfunclet$?GetIndexFromValue@COrderLineAddInImp@@QAEHV?$CStringT@DV?$StrTraitMFC_DLL@DV?$ChTraitsCRT@D@ATL@@@@@ATL@@AAJ@Z$7
	DD	03H
	DD	FLAT:__unwindfunclet$?GetIndexFromValue@COrderLineAddInImp@@QAEHV?$CStringT@DV?$StrTraitMFC_DLL@DV?$ChTraitsCRT@D@ATL@@@@@ATL@@AAJ@Z$8
	DD	03H
	DD	FLAT:__unwindfunclet$?GetIndexFromValue@COrderLineAddInImp@@QAEHV?$CStringT@DV?$StrTraitMFC_DLL@DV?$ChTraitsCRT@D@ATL@@@@@ATL@@AAJ@Z$9
	DD	01H
	DD	FLAT:___std_terminate
xdata$x	ENDS
;	COMDAT xdata$x
xdata$x	SEGMENT
__unwindtable$?SetCommentStatusOnMouseMove@COrderLineAddInImp@@QAEHVCPoint@@@Z DD 0ffffffffH
	DD	FLAT:__unwindfunclet$?SetCommentStatusOnMouseMove@COrderLineAddInImp@@QAEHVCPoint@@@Z$0
__ehfuncinfo$?SetCommentStatusOnMouseMove@COrderLineAddInImp@@QAEHVCPoint@@@Z DD 019930522H
	DD	01H
	DD	FLAT:__unwindtable$?SetCommentStatusOnMouseMove@COrderLineAddInImp@@QAEHVCPoint@@@Z
	DD	2 DUP(00H)
	DD	2 DUP(00H)
	DD	00H
	DD	01H
xdata$x	ENDS
;	COMDAT xdata$x
xdata$x	SEGMENT
__ehfuncinfo$?SetCommentData@COrderLineAddInImp@@QAEXPAUFX_CHE_STRUCT@@@Z DD 019930522H
	DD	08H
	DD	FLAT:__unwindtable$?SetCommentData@COrderLineAddInImp@@QAEXPAUFX_CHE_STRUCT@@@Z
	DD	2 DUP(00H)
	DD	2 DUP(00H)
	DD	00H
	DD	01H
__unwindtable$?SetCommentData@COrderLineAddInImp@@QAEXPAUFX_CHE_STRUCT@@@Z DD 0ffffffffH
	DD	FLAT:__unwindfunclet$?SetCommentData@COrderLineAddInImp@@QAEXPAUFX_CHE_STRUCT@@@Z$0
	DD	00H
	DD	FLAT:__unwindfunclet$?SetCommentData@COrderLineAddInImp@@QAEXPAUFX_CHE_STRUCT@@@Z$1
	DD	01H
	DD	FLAT:__unwindfunclet$?SetCommentData@COrderLineAddInImp@@QAEXPAUFX_CHE_STRUCT@@@Z$2
	DD	02H
	DD	FLAT:__unwindfunclet$?SetCommentData@COrderLineAddInImp@@QAEXPAUFX_CHE_STRUCT@@@Z$3
	DD	03H
	DD	FLAT:__unwindfunclet$?SetCommentData@COrderLineAddInImp@@QAEXPAUFX_CHE_STRUCT@@@Z$4
	DD	04H
	DD	FLAT:__unwindfunclet$?SetCommentData@COrderLineAddInImp@@QAEXPAUFX_CHE_STRUCT@@@Z$5
	DD	05H
	DD	FLAT:__unwindfunclet$?SetCommentData@COrderLineAddInImp@@QAEXPAUFX_CHE_STRUCT@@@Z$6
	DD	06H
	DD	FLAT:__unwindfunclet$?SetCommentData@COrderLineAddInImp@@QAEXPAUFX_CHE_STRUCT@@@Z$8
xdata$x	ENDS
;	COMDAT xdata$x
xdata$x	SEGMENT
__unwindtable$?SetLineStatusOnMouseMove@COrderLineAddInImp@@QAEHVCPoint@@@Z DD 0ffffffffH
	DD	FLAT:__unwindfunclet$?SetLineStatusOnMouseMove@COrderLineAddInImp@@QAEHVCPoint@@@Z$0
	DD	0ffffffffH
	DD	FLAT:__unwindfunclet$?SetLineStatusOnMouseMove@COrderLineAddInImp@@QAEHVCPoint@@@Z$1
	DD	0ffffffffH
	DD	FLAT:__unwindfunclet$?SetLineStatusOnMouseMove@COrderLineAddInImp@@QAEHVCPoint@@@Z$2
__ehfuncinfo$?SetLineStatusOnMouseMove@COrderLineAddInImp@@QAEHVCPoint@@@Z DD 019930522H
	DD	03H
	DD	FLAT:__unwindtable$?SetLineStatusOnMouseMove@COrderLineAddInImp@@QAEHVCPoint@@@Z
	DD	2 DUP(00H)
	DD	2 DUP(00H)
	DD	00H
	DD	01H
xdata$x	ENDS
;	COMDAT xdata$x
xdata$x	SEGMENT
__unwindtable$?IsPointInLine@COrderLineAddInImp@@QAEHPAVCObList@@VCPoint@@@Z DD 0ffffffffH
	DD	FLAT:__unwindfunclet$?IsPointInLine@COrderLineAddInImp@@QAEHPAVCObList@@VCPoint@@@Z$0
	DD	0ffffffffH
	DD	FLAT:___std_terminate
__ehfuncinfo$?IsPointInLine@COrderLineAddInImp@@QAEHPAVCObList@@VCPoint@@@Z DD 019930522H
	DD	02H
	DD	FLAT:__unwindtable$?IsPointInLine@COrderLineAddInImp@@QAEHPAVCObList@@VCPoint@@@Z
	DD	2 DUP(00H)
	DD	2 DUP(00H)
	DD	00H
	DD	01H
xdata$x	ENDS
;	COMDAT xdata$x
xdata$x	SEGMENT
__ehfuncinfo$?FindandSet@COrderLineAddInImp@@QAEHPAUFX_CHE_STRUCT@@HAAV?$CStringT@DV?$StrTraitMFC_DLL@DV?$ChTraitsCRT@D@ATL@@@@@ATL@@@Z DD 019930522H
	DD	020H
	DD	FLAT:__unwindtable$?FindandSet@COrderLineAddInImp@@QAEHPAUFX_CHE_STRUCT@@HAAV?$CStringT@DV?$StrTraitMFC_DLL@DV?$ChTraitsCRT@D@ATL@@@@@ATL@@@Z
	DD	2 DUP(00H)
	DD	2 DUP(00H)
	DD	00H
	DD	01H
__unwindtable$?FindandSet@COrderLineAddInImp@@QAEHPAUFX_CHE_STRUCT@@HAAV?$CStringT@DV?$StrTraitMFC_DLL@DV?$ChTraitsCRT@D@ATL@@@@@ATL@@@Z DD 0ffffffffH
	DD	FLAT:__unwindfunclet$?FindandSet@COrderLineAddInImp@@QAEHPAUFX_CHE_STRUCT@@HAAV?$CStringT@DV?$StrTraitMFC_DLL@DV?$ChTraitsCRT@D@ATL@@@@@ATL@@@Z$0
	DD	00H
	DD	FLAT:__unwindfunclet$?FindandSet@COrderLineAddInImp@@QAEHPAUFX_CHE_STRUCT@@HAAV?$CStringT@DV?$StrTraitMFC_DLL@DV?$ChTraitsCRT@D@ATL@@@@@ATL@@@Z$1
	DD	01H
	DD	FLAT:__unwindfunclet$?FindandSet@COrderLineAddInImp@@QAEHPAUFX_CHE_STRUCT@@HAAV?$CStringT@DV?$StrTraitMFC_DLL@DV?$ChTraitsCRT@D@ATL@@@@@ATL@@@Z$2
	DD	02H
	DD	FLAT:__unwindfunclet$?FindandSet@COrderLineAddInImp@@QAEHPAUFX_CHE_STRUCT@@HAAV?$CStringT@DV?$StrTraitMFC_DLL@DV?$ChTraitsCRT@D@ATL@@@@@ATL@@@Z$3
	DD	03H
	DD	FLAT:__unwindfunclet$?FindandSet@COrderLineAddInImp@@QAEHPAUFX_CHE_STRUCT@@HAAV?$CStringT@DV?$StrTraitMFC_DLL@DV?$ChTraitsCRT@D@ATL@@@@@ATL@@@Z$4
	DD	04H
	DD	FLAT:__unwindfunclet$?FindandSet@COrderLineAddInImp@@QAEHPAUFX_CHE_STRUCT@@HAAV?$CStringT@DV?$StrTraitMFC_DLL@DV?$ChTraitsCRT@D@ATL@@@@@ATL@@@Z$5
	DD	04H
	DD	FLAT:__unwindfunclet$?FindandSet@COrderLineAddInImp@@QAEHPAUFX_CHE_STRUCT@@HAAV?$CStringT@DV?$StrTraitMFC_DLL@DV?$ChTraitsCRT@D@ATL@@@@@ATL@@@Z$6
	DD	04H
	DD	FLAT:__unwindfunclet$?FindandSet@COrderLineAddInImp@@QAEHPAUFX_CHE_STRUCT@@HAAV?$CStringT@DV?$StrTraitMFC_DLL@DV?$ChTraitsCRT@D@ATL@@@@@ATL@@@Z$7
	DD	04H
	DD	FLAT:__unwindfunclet$?FindandSet@COrderLineAddInImp@@QAEHPAUFX_CHE_STRUCT@@HAAV?$CStringT@DV?$StrTraitMFC_DLL@DV?$ChTraitsCRT@D@ATL@@@@@ATL@@@Z$8
	DD	08H
	DD	FLAT:__unwindfunclet$?FindandSet@COrderLineAddInImp@@QAEHPAUFX_CHE_STRUCT@@HAAV?$CStringT@DV?$StrTraitMFC_DLL@DV?$ChTraitsCRT@D@ATL@@@@@ATL@@@Z$9
	DD	09H
	DD	FLAT:__unwindfunclet$?FindandSet@COrderLineAddInImp@@QAEHPAUFX_CHE_STRUCT@@HAAV?$CStringT@DV?$StrTraitMFC_DLL@DV?$ChTraitsCRT@D@ATL@@@@@ATL@@@Z$10
	DD	09H
	DD	FLAT:__unwindfunclet$?FindandSet@COrderLineAddInImp@@QAEHPAUFX_CHE_STRUCT@@HAAV?$CStringT@DV?$StrTraitMFC_DLL@DV?$ChTraitsCRT@D@ATL@@@@@ATL@@@Z$11
	DD	09H
	DD	FLAT:__unwindfunclet$?FindandSet@COrderLineAddInImp@@QAEHPAUFX_CHE_STRUCT@@HAAV?$CStringT@DV?$StrTraitMFC_DLL@DV?$ChTraitsCRT@D@ATL@@@@@ATL@@@Z$12
	DD	0cH
	DD	FLAT:__unwindfunclet$?FindandSet@COrderLineAddInImp@@QAEHPAUFX_CHE_STRUCT@@HAAV?$CStringT@DV?$StrTraitMFC_DLL@DV?$ChTraitsCRT@D@ATL@@@@@ATL@@@Z$13
	DD	0dH
	DD	FLAT:__unwindfunclet$?FindandSet@COrderLineAddInImp@@QAEHPAUFX_CHE_STRUCT@@HAAV?$CStringT@DV?$StrTraitMFC_DLL@DV?$ChTraitsCRT@D@ATL@@@@@ATL@@@Z$14
	DD	0eH
	DD	FLAT:__unwindfunclet$?FindandSet@COrderLineAddInImp@@QAEHPAUFX_CHE_STRUCT@@HAAV?$CStringT@DV?$StrTraitMFC_DLL@DV?$ChTraitsCRT@D@ATL@@@@@ATL@@@Z$15
	DD	0fH
	DD	FLAT:__unwindfunclet$?FindandSet@COrderLineAddInImp@@QAEHPAUFX_CHE_STRUCT@@HAAV?$CStringT@DV?$StrTraitMFC_DLL@DV?$ChTraitsCRT@D@ATL@@@@@ATL@@@Z$16
	DD	010H
	DD	FLAT:__unwindfunclet$?FindandSet@COrderLineAddInImp@@QAEHPAUFX_CHE_STRUCT@@HAAV?$CStringT@DV?$StrTraitMFC_DLL@DV?$ChTraitsCRT@D@ATL@@@@@ATL@@@Z$17
	DD	011H
	DD	FLAT:__unwindfunclet$?FindandSet@COrderLineAddInImp@@QAEHPAUFX_CHE_STRUCT@@HAAV?$CStringT@DV?$StrTraitMFC_DLL@DV?$ChTraitsCRT@D@ATL@@@@@ATL@@@Z$18
	DD	0cH
	DD	FLAT:__unwindfunclet$?FindandSet@COrderLineAddInImp@@QAEHPAUFX_CHE_STRUCT@@HAAV?$CStringT@DV?$StrTraitMFC_DLL@DV?$ChTraitsCRT@D@ATL@@@@@ATL@@@Z$19
	DD	013H
	DD	FLAT:__unwindfunclet$?FindandSet@COrderLineAddInImp@@QAEHPAUFX_CHE_STRUCT@@HAAV?$CStringT@DV?$StrTraitMFC_DLL@DV?$ChTraitsCRT@D@ATL@@@@@ATL@@@Z$20
	DD	014H
	DD	FLAT:__unwindfunclet$?FindandSet@COrderLineAddInImp@@QAEHPAUFX_CHE_STRUCT@@HAAV?$CStringT@DV?$StrTraitMFC_DLL@DV?$ChTraitsCRT@D@ATL@@@@@ATL@@@Z$21
	DD	0cH
	DD	FLAT:__unwindfunclet$?FindandSet@COrderLineAddInImp@@QAEHPAUFX_CHE_STRUCT@@HAAV?$CStringT@DV?$StrTraitMFC_DLL@DV?$ChTraitsCRT@D@ATL@@@@@ATL@@@Z$22
	DD	016H
	DD	FLAT:__unwindfunclet$?FindandSet@COrderLineAddInImp@@QAEHPAUFX_CHE_STRUCT@@HAAV?$CStringT@DV?$StrTraitMFC_DLL@DV?$ChTraitsCRT@D@ATL@@@@@ATL@@@Z$23
	DD	017H
	DD	FLAT:__unwindfunclet$?FindandSet@COrderLineAddInImp@@QAEHPAUFX_CHE_STRUCT@@HAAV?$CStringT@DV?$StrTraitMFC_DLL@DV?$ChTraitsCRT@D@ATL@@@@@ATL@@@Z$24
	DD	018H
	DD	FLAT:__unwindfunclet$?FindandSet@COrderLineAddInImp@@QAEHPAUFX_CHE_STRUCT@@HAAV?$CStringT@DV?$StrTraitMFC_DLL@DV?$ChTraitsCRT@D@ATL@@@@@ATL@@@Z$25
	DD	019H
	DD	FLAT:__unwindfunclet$?FindandSet@COrderLineAddInImp@@QAEHPAUFX_CHE_STRUCT@@HAAV?$CStringT@DV?$StrTraitMFC_DLL@DV?$ChTraitsCRT@D@ATL@@@@@ATL@@@Z$26
	DD	01aH
	DD	FLAT:__unwindfunclet$?FindandSet@COrderLineAddInImp@@QAEHPAUFX_CHE_STRUCT@@HAAV?$CStringT@DV?$StrTraitMFC_DLL@DV?$ChTraitsCRT@D@ATL@@@@@ATL@@@Z$27
	DD	0cH
	DD	FLAT:__unwindfunclet$?FindandSet@COrderLineAddInImp@@QAEHPAUFX_CHE_STRUCT@@HAAV?$CStringT@DV?$StrTraitMFC_DLL@DV?$ChTraitsCRT@D@ATL@@@@@ATL@@@Z$28
	DD	01cH
	DD	FLAT:__unwindfunclet$?FindandSet@COrderLineAddInImp@@QAEHPAUFX_CHE_STRUCT@@HAAV?$CStringT@DV?$StrTraitMFC_DLL@DV?$ChTraitsCRT@D@ATL@@@@@ATL@@@Z$29
	DD	01dH
	DD	FLAT:__unwindfunclet$?FindandSet@COrderLineAddInImp@@QAEHPAUFX_CHE_STRUCT@@HAAV?$CStringT@DV?$StrTraitMFC_DLL@DV?$ChTraitsCRT@D@ATL@@@@@ATL@@@Z$30
	DD	0cH
	DD	FLAT:__unwindfunclet$?FindandSet@COrderLineAddInImp@@QAEHPAUFX_CHE_STRUCT@@HAAV?$CStringT@DV?$StrTraitMFC_DLL@DV?$ChTraitsCRT@D@ATL@@@@@ATL@@@Z$31
xdata$x	ENDS
;	COMDAT xdata$x
xdata$x	SEGMENT
__unwindtable$?DrawHorzText@COrderLineAddInImp@@QAEXPAUHDC__@@VCPoint@@@Z DD 0ffffffffH
	DD	FLAT:__unwindfunclet$?DrawHorzText@COrderLineAddInImp@@QAEXPAUHDC__@@VCPoint@@@Z$0
	DD	00H
	DD	FLAT:__unwindfunclet$?DrawHorzText@COrderLineAddInImp@@QAEXPAUHDC__@@VCPoint@@@Z$1
	DD	01H
	DD	FLAT:__unwindfunclet$?DrawHorzText@COrderLineAddInImp@@QAEXPAUHDC__@@VCPoint@@@Z$2
	DD	00H
	DD	FLAT:___std_terminate
__ehfuncinfo$?DrawHorzText@COrderLineAddInImp@@QAEXPAUHDC__@@VCPoint@@@Z DD 019930522H
	DD	04H
	DD	FLAT:__unwindtable$?DrawHorzText@COrderLineAddInImp@@QAEXPAUHDC__@@VCPoint@@@Z
	DD	2 DUP(00H)
	DD	2 DUP(00H)
	DD	00H
	DD	01H
xdata$x	ENDS
;	COMDAT xdata$x
xdata$x	SEGMENT
__ehfuncinfo$?DrawVertText@COrderLineAddInImp@@QAEXPAUHDC__@@VCPoint@@@Z DD 019930522H
	DD	06H
	DD	FLAT:__unwindtable$?DrawVertText@COrderLineAddInImp@@QAEXPAUHDC__@@VCPoint@@@Z
	DD	2 DUP(00H)
	DD	2 DUP(00H)
	DD	00H
	DD	01H
__unwindtable$?DrawVertText@COrderLineAddInImp@@QAEXPAUHDC__@@VCPoint@@@Z DD 0ffffffffH
	DD	FLAT:__unwindfunclet$?DrawVertText@COrderLineAddInImp@@QAEXPAUHDC__@@VCPoint@@@Z$0
	DD	00H
	DD	FLAT:__unwindfunclet$?DrawVertText@COrderLineAddInImp@@QAEXPAUHDC__@@VCPoint@@@Z$1
	DD	01H
	DD	FLAT:__unwindfunclet$?DrawVertText@COrderLineAddInImp@@QAEXPAUHDC__@@VCPoint@@@Z$2
	DD	01H
	DD	FLAT:__unwindfunclet$?DrawVertText@COrderLineAddInImp@@QAEXPAUHDC__@@VCPoint@@@Z$3
	DD	03H
	DD	FLAT:__unwindfunclet$?DrawVertText@COrderLineAddInImp@@QAEXPAUHDC__@@VCPoint@@@Z$4
	DD	00H
	DD	FLAT:___std_terminate
xdata$x	ENDS
;	COMDAT xdata$x
xdata$x	SEGMENT
__ehfuncinfo$?SetOrderInfomation@COrderLineAddInImp@@QAEXVCPoint@@@Z DD 019930522H
	DD	0aH
	DD	FLAT:__unwindtable$?SetOrderInfomation@COrderLineAddInImp@@QAEXVCPoint@@@Z
	DD	2 DUP(00H)
	DD	2 DUP(00H)
	DD	00H
	DD	01H
__unwindtable$?SetOrderInfomation@COrderLineAddInImp@@QAEXVCPoint@@@Z DD 0ffffffffH
	DD	FLAT:__unwindfunclet$?SetOrderInfomation@COrderLineAddInImp@@QAEXVCPoint@@@Z$0
	DD	00H
	DD	FLAT:__unwindfunclet$?SetOrderInfomation@COrderLineAddInImp@@QAEXVCPoint@@@Z$1
	DD	01H
	DD	FLAT:__unwindfunclet$?SetOrderInfomation@COrderLineAddInImp@@QAEXVCPoint@@@Z$2
	DD	01H
	DD	FLAT:__unwindfunclet$?SetOrderInfomation@COrderLineAddInImp@@QAEXVCPoint@@@Z$3
	DD	03H
	DD	FLAT:__unwindfunclet$?SetOrderInfomation@COrderLineAddInImp@@QAEXVCPoint@@@Z$4
	DD	04H
	DD	FLAT:__unwindfunclet$?SetOrderInfomation@COrderLineAddInImp@@QAEXVCPoint@@@Z$5
	DD	05H
	DD	FLAT:__unwindfunclet$?SetOrderInfomation@COrderLineAddInImp@@QAEXVCPoint@@@Z$6
	DD	04H
	DD	FLAT:__unwindfunclet$?SetOrderInfomation@COrderLineAddInImp@@QAEXVCPoint@@@Z$8
	DD	07H
	DD	FLAT:__unwindfunclet$?SetOrderInfomation@COrderLineAddInImp@@QAEXVCPoint@@@Z$9
	DD	00H
	DD	FLAT:___std_terminate
xdata$x	ENDS
;	COMDAT xdata$x
xdata$x	SEGMENT
__ehfuncinfo$?SetData@COrderLineAddInImp@@QAEXPAVCOrderLine@@PAUFX_CHE_STRUCT@@HH@Z DD 019930522H
	DD	01fH
	DD	FLAT:__unwindtable$?SetData@COrderLineAddInImp@@QAEXPAVCOrderLine@@PAUFX_CHE_STRUCT@@HH@Z
	DD	2 DUP(00H)
	DD	2 DUP(00H)
	DD	00H
	DD	01H
__unwindtable$?SetData@COrderLineAddInImp@@QAEXPAVCOrderLine@@PAUFX_CHE_STRUCT@@HH@Z DD 0ffffffffH
	DD	FLAT:__unwindfunclet$?SetData@COrderLineAddInImp@@QAEXPAVCOrderLine@@PAUFX_CHE_STRUCT@@HH@Z$0
	DD	00H
	DD	FLAT:__unwindfunclet$?SetData@COrderLineAddInImp@@QAEXPAVCOrderLine@@PAUFX_CHE_STRUCT@@HH@Z$1
	DD	01H
	DD	FLAT:__unwindfunclet$?SetData@COrderLineAddInImp@@QAEXPAVCOrderLine@@PAUFX_CHE_STRUCT@@HH@Z$2
	DD	02H
	DD	FLAT:__unwindfunclet$?SetData@COrderLineAddInImp@@QAEXPAVCOrderLine@@PAUFX_CHE_STRUCT@@HH@Z$3
	DD	03H
	DD	FLAT:__unwindfunclet$?SetData@COrderLineAddInImp@@QAEXPAVCOrderLine@@PAUFX_CHE_STRUCT@@HH@Z$4
	DD	04H
	DD	FLAT:__unwindfunclet$?SetData@COrderLineAddInImp@@QAEXPAVCOrderLine@@PAUFX_CHE_STRUCT@@HH@Z$5
	DD	05H
	DD	FLAT:__unwindfunclet$?SetData@COrderLineAddInImp@@QAEXPAVCOrderLine@@PAUFX_CHE_STRUCT@@HH@Z$6
	DD	06H
	DD	FLAT:__unwindfunclet$?SetData@COrderLineAddInImp@@QAEXPAVCOrderLine@@PAUFX_CHE_STRUCT@@HH@Z$7
	DD	07H
	DD	FLAT:__unwindfunclet$?SetData@COrderLineAddInImp@@QAEXPAVCOrderLine@@PAUFX_CHE_STRUCT@@HH@Z$8
	DD	02H
	DD	FLAT:__unwindfunclet$?SetData@COrderLineAddInImp@@QAEXPAVCOrderLine@@PAUFX_CHE_STRUCT@@HH@Z$9
	DD	09H
	DD	FLAT:__unwindfunclet$?SetData@COrderLineAddInImp@@QAEXPAVCOrderLine@@PAUFX_CHE_STRUCT@@HH@Z$10
	DD	0aH
	DD	FLAT:__unwindfunclet$?SetData@COrderLineAddInImp@@QAEXPAVCOrderLine@@PAUFX_CHE_STRUCT@@HH@Z$11
	DD	02H
	DD	FLAT:__unwindfunclet$?SetData@COrderLineAddInImp@@QAEXPAVCOrderLine@@PAUFX_CHE_STRUCT@@HH@Z$12
	DD	0cH
	DD	FLAT:__unwindfunclet$?SetData@COrderLineAddInImp@@QAEXPAVCOrderLine@@PAUFX_CHE_STRUCT@@HH@Z$13
	DD	0dH
	DD	FLAT:__unwindfunclet$?SetData@COrderLineAddInImp@@QAEXPAVCOrderLine@@PAUFX_CHE_STRUCT@@HH@Z$14
	DD	0eH
	DD	FLAT:__unwindfunclet$?SetData@COrderLineAddInImp@@QAEXPAVCOrderLine@@PAUFX_CHE_STRUCT@@HH@Z$15
	DD	0fH
	DD	FLAT:__unwindfunclet$?SetData@COrderLineAddInImp@@QAEXPAVCOrderLine@@PAUFX_CHE_STRUCT@@HH@Z$16
	DD	010H
	DD	FLAT:__unwindfunclet$?SetData@COrderLineAddInImp@@QAEXPAVCOrderLine@@PAUFX_CHE_STRUCT@@HH@Z$17
	DD	02H
	DD	FLAT:__unwindfunclet$?SetData@COrderLineAddInImp@@QAEXPAVCOrderLine@@PAUFX_CHE_STRUCT@@HH@Z$18
	DD	012H
	DD	FLAT:__unwindfunclet$?SetData@COrderLineAddInImp@@QAEXPAVCOrderLine@@PAUFX_CHE_STRUCT@@HH@Z$19
	DD	013H
	DD	FLAT:__unwindfunclet$?SetData@COrderLineAddInImp@@QAEXPAVCOrderLine@@PAUFX_CHE_STRUCT@@HH@Z$20
	DD	02H
	DD	FLAT:__unwindfunclet$?SetData@COrderLineAddInImp@@QAEXPAVCOrderLine@@PAUFX_CHE_STRUCT@@HH@Z$21
	DD	015H
	DD	FLAT:__unwindfunclet$?SetData@COrderLineAddInImp@@QAEXPAVCOrderLine@@PAUFX_CHE_STRUCT@@HH@Z$22
	DD	016H
	DD	FLAT:__unwindfunclet$?SetData@COrderLineAddInImp@@QAEXPAVCOrderLine@@PAUFX_CHE_STRUCT@@HH@Z$23
	DD	015H
	DD	FLAT:__unwindfunclet$?SetData@COrderLineAddInImp@@QAEXPAVCOrderLine@@PAUFX_CHE_STRUCT@@HH@Z$24
	DD	015H
	DD	FLAT:__unwindfunclet$?SetData@COrderLineAddInImp@@QAEXPAVCOrderLine@@PAUFX_CHE_STRUCT@@HH@Z$25
	DD	019H
	DD	FLAT:__unwindfunclet$?SetData@COrderLineAddInImp@@QAEXPAVCOrderLine@@PAUFX_CHE_STRUCT@@HH@Z$26
	DD	015H
	DD	FLAT:__unwindfunclet$?SetData@COrderLineAddInImp@@QAEXPAVCOrderLine@@PAUFX_CHE_STRUCT@@HH@Z$27
	DD	015H
	DD	FLAT:___std_terminate
	DD	015H
	DD	FLAT:___std_terminate
	DD	015H
	DD	FLAT:___std_terminate
xdata$x	ENDS
;	COMDAT xdata$x
xdata$x	SEGMENT
__unwindtable$?CheckIsLineInScreen@COrderLineAddInImp@@QAEXPAVCOrderLine@@@Z DD 0ffffffffH
	DD	FLAT:__unwindfunclet$?CheckIsLineInScreen@COrderLineAddInImp@@QAEXPAVCOrderLine@@@Z$0
	DD	0ffffffffH
	DD	FLAT:___std_terminate
__ehfuncinfo$?CheckIsLineInScreen@COrderLineAddInImp@@QAEXPAVCOrderLine@@@Z DD 019930522H
	DD	02H
	DD	FLAT:__unwindtable$?CheckIsLineInScreen@COrderLineAddInImp@@QAEXPAVCOrderLine@@@Z
	DD	2 DUP(00H)
	DD	2 DUP(00H)
	DD	00H
	DD	01H
xdata$x	ENDS
;	COMDAT xdata$x
xdata$x	SEGMENT
__unwindtable$?AddPendingPosition@COrderLineAddInImp@@QAEXPAUFX_CHE_STRUCT@@H@Z DD 0ffffffffH
	DD	FLAT:__unwindfunclet$?AddPendingPosition@COrderLineAddInImp@@QAEXPAUFX_CHE_STRUCT@@H@Z$0
__ehfuncinfo$?AddPendingPosition@COrderLineAddInImp@@QAEXPAUFX_CHE_STRUCT@@H@Z DD 019930522H
	DD	01H
	DD	FLAT:__unwindtable$?AddPendingPosition@COrderLineAddInImp@@QAEXPAUFX_CHE_STRUCT@@H@Z
	DD	2 DUP(00H)
	DD	2 DUP(00H)
	DD	00H
	DD	01H
xdata$x	ENDS
;	COMDAT xdata$x
xdata$x	SEGMENT
__unwindtable$?AddOpenPosition@COrderLineAddInImp@@QAEXPAUFX_CHE_STRUCT@@H@Z DD 0ffffffffH
	DD	FLAT:__unwindfunclet$?AddOpenPosition@COrderLineAddInImp@@QAEXPAUFX_CHE_STRUCT@@H@Z$0
__ehfuncinfo$?AddOpenPosition@COrderLineAddInImp@@QAEXPAUFX_CHE_STRUCT@@H@Z DD 019930522H
	DD	01H
	DD	FLAT:__unwindtable$?AddOpenPosition@COrderLineAddInImp@@QAEXPAUFX_CHE_STRUCT@@H@Z
	DD	2 DUP(00H)
	DD	2 DUP(00H)
	DD	00H
	DD	01H
xdata$x	ENDS
;	COMDAT xdata$x
xdata$x	SEGMENT
__unwindtable$?CheckTypeAndSet@COrderLineAddInImp@@QAEHPAUFX_CHE_STRUCT@@H@Z DD 0ffffffffH
	DD	FLAT:__unwindfunclet$?CheckTypeAndSet@COrderLineAddInImp@@QAEHPAUFX_CHE_STRUCT@@H@Z$0
__ehfuncinfo$?CheckTypeAndSet@COrderLineAddInImp@@QAEHPAUFX_CHE_STRUCT@@H@Z DD 019930522H
	DD	01H
	DD	FLAT:__unwindtable$?CheckTypeAndSet@COrderLineAddInImp@@QAEHPAUFX_CHE_STRUCT@@H@Z
	DD	2 DUP(00H)
	DD	2 DUP(00H)
	DD	00H
	DD	01H
xdata$x	ENDS
;	COMDAT xdata$x
xdata$x	SEGMENT
__unwindtable$?SetPendingPosition@COrderLineAddInImp@@QAEXPAUFX_CHE_STRUCT@@@Z DD 0ffffffffH
	DD	FLAT:__unwindfunclet$?SetPendingPosition@COrderLineAddInImp@@QAEXPAUFX_CHE_STRUCT@@@Z$0
	DD	00H
	DD	FLAT:__unwindfunclet$?SetPendingPosition@COrderLineAddInImp@@QAEXPAUFX_CHE_STRUCT@@@Z$1
	DD	01H
	DD	FLAT:__unwindfunclet$?SetPendingPosition@COrderLineAddInImp@@QAEXPAUFX_CHE_STRUCT@@@Z$2
	DD	02H
	DD	FLAT:__unwindfunclet$?SetPendingPosition@COrderLineAddInImp@@QAEXPAUFX_CHE_STRUCT@@@Z$3
__ehfuncinfo$?SetPendingPosition@COrderLineAddInImp@@QAEXPAUFX_CHE_STRUCT@@@Z DD 019930522H
	DD	04H
	DD	FLAT:__unwindtable$?SetPendingPosition@COrderLineAddInImp@@QAEXPAUFX_CHE_STRUCT@@@Z
	DD	2 DUP(00H)
	DD	2 DUP(00H)
	DD	00H
	DD	01H
xdata$x	ENDS
;	COMDAT xdata$x
xdata$x	SEGMENT
__unwindtable$?SetOpenPosition@COrderLineAddInImp@@QAEXPAUFX_CHE_STRUCT@@@Z DD 0ffffffffH
	DD	FLAT:__unwindfunclet$?SetOpenPosition@COrderLineAddInImp@@QAEXPAUFX_CHE_STRUCT@@@Z$0
	DD	00H
	DD	FLAT:__unwindfunclet$?SetOpenPosition@COrderLineAddInImp@@QAEXPAUFX_CHE_STRUCT@@@Z$1
	DD	01H
	DD	FLAT:__unwindfunclet$?SetOpenPosition@COrderLineAddInImp@@QAEXPAUFX_CHE_STRUCT@@@Z$2
	DD	02H
	DD	FLAT:__unwindfunclet$?SetOpenPosition@COrderLineAddInImp@@QAEXPAUFX_CHE_STRUCT@@@Z$3
__ehfuncinfo$?SetOpenPosition@COrderLineAddInImp@@QAEXPAUFX_CHE_STRUCT@@@Z DD 019930522H
	DD	04H
	DD	FLAT:__unwindtable$?SetOpenPosition@COrderLineAddInImp@@QAEXPAUFX_CHE_STRUCT@@@Z
	DD	2 DUP(00H)
	DD	2 DUP(00H)
	DD	00H
	DD	01H
xdata$x	ENDS
;	COMDAT xdata$x
xdata$x	SEGMENT
__unwindtable$?SetMouseCursor@COrderLineAddInImp@@QAEXH@Z DD 0ffffffffH
	DD	FLAT:__unwindfunclet$?SetMouseCursor@COrderLineAddInImp@@QAEXH@Z$0
	DD	0ffffffffH
	DD	FLAT:___std_terminate
__ehfuncinfo$?SetMouseCursor@COrderLineAddInImp@@QAEXH@Z DD 019930522H
	DD	02H
	DD	FLAT:__unwindtable$?SetMouseCursor@COrderLineAddInImp@@QAEXH@Z
	DD	2 DUP(00H)
	DD	2 DUP(00H)
	DD	00H
	DD	01H
xdata$x	ENDS
;	COMDAT xdata$x
xdata$x	SEGMENT
__ehfuncinfo$??1COrderLineAddInImp@@UAE@XZ DD 019930522H
	DD	00H
	DD	00H
	DD	2 DUP(00H)
	DD	2 DUP(00H)
	DD	00H
	DD	05H
xdata$x	ENDS
;	COMDAT xdata$x
xdata$x	SEGMENT
__unwindtable$??0COrderLineAddInImp@@QAE@PAUIChartOCX003531@@PAUIAddInDllBase@@@Z DD 0ffffffffH
	DD	FLAT:__unwindfunclet$??0COrderLineAddInImp@@QAE@PAUIChartOCX003531@@PAUIAddInDllBase@@@Z$0
	DD	00H
	DD	FLAT:__unwindfunclet$??0COrderLineAddInImp@@QAE@PAUIChartOCX003531@@PAUIAddInDllBase@@@Z$1
	DD	01H
	DD	FLAT:__unwindfunclet$??0COrderLineAddInImp@@QAE@PAUIChartOCX003531@@PAUIAddInDllBase@@@Z$2
	DD	02H
	DD	FLAT:__unwindfunclet$??0COrderLineAddInImp@@QAE@PAUIChartOCX003531@@PAUIAddInDllBase@@@Z$3
__ehfuncinfo$??0COrderLineAddInImp@@QAE@PAUIChartOCX003531@@PAUIAddInDllBase@@@Z DD 019930522H
	DD	04H
	DD	FLAT:__unwindtable$??0COrderLineAddInImp@@QAE@PAUIChartOCX003531@@PAUIAddInDllBase@@@Z
	DD	2 DUP(00H)
	DD	2 DUP(00H)
	DD	00H
	DD	01H
xdata$x	ENDS
;	COMDAT xdata$x
xdata$x	SEGMENT
__ehfuncinfo$?GetToolTipText@COrderLine@@QAE?AV?$CStringT@DV?$StrTraitMFC_DLL@DV?$ChTraitsCRT@D@ATL@@@@@ATL@@XZ DD 019930522H
	DD	05H
	DD	FLAT:__unwindtable$?GetToolTipText@COrderLine@@QAE?AV?$CStringT@DV?$StrTraitMFC_DLL@DV?$ChTraitsCRT@D@ATL@@@@@ATL@@XZ
	DD	2 DUP(00H)
	DD	2 DUP(00H)
	DD	00H
	DD	01H
__unwindtable$?GetToolTipText@COrderLine@@QAE?AV?$CStringT@DV?$StrTraitMFC_DLL@DV?$ChTraitsCRT@D@ATL@@@@@ATL@@XZ DD 0ffffffffH
	DD	FLAT:__unwindfunclet$?GetToolTipText@COrderLine@@QAE?AV?$CStringT@DV?$StrTraitMFC_DLL@DV?$ChTraitsCRT@D@ATL@@@@@ATL@@XZ$0
	DD	00H
	DD	FLAT:__unwindfunclet$?GetToolTipText@COrderLine@@QAE?AV?$CStringT@DV?$StrTraitMFC_DLL@DV?$ChTraitsCRT@D@ATL@@@@@ATL@@XZ$1
	DD	01H
	DD	FLAT:__unwindfunclet$?GetToolTipText@COrderLine@@QAE?AV?$CStringT@DV?$StrTraitMFC_DLL@DV?$ChTraitsCRT@D@ATL@@@@@ATL@@XZ$2
	DD	02H
	DD	FLAT:__unwindfunclet$?GetToolTipText@COrderLine@@QAE?AV?$CStringT@DV?$StrTraitMFC_DLL@DV?$ChTraitsCRT@D@ATL@@@@@ATL@@XZ$3
	DD	03H
	DD	FLAT:__unwindfunclet$?GetToolTipText@COrderLine@@QAE?AV?$CStringT@DV?$StrTraitMFC_DLL@DV?$ChTraitsCRT@D@ATL@@@@@ATL@@XZ$4
xdata$x	ENDS
;	COMDAT xdata$x
xdata$x	SEGMENT
__unwindtable$?DrawOrderText@COrderLine@@QAEXPAVCDC@@@Z DD 0ffffffffH
	DD	FLAT:__unwindfunclet$?DrawOrderText@COrderLine@@QAEXPAVCDC@@@Z$0
	DD	00H
	DD	FLAT:__unwindfunclet$?DrawOrderText@COrderLine@@QAEXPAVCDC@@@Z$1
	DD	01H
	DD	FLAT:__unwindfunclet$?DrawOrderText@COrderLine@@QAEXPAVCDC@@@Z$2
__ehfuncinfo$?DrawOrderText@COrderLine@@QAEXPAVCDC@@@Z DD 019930522H
	DD	03H
	DD	FLAT:__unwindtable$?DrawOrderText@COrderLine@@QAEXPAVCDC@@@Z
	DD	2 DUP(00H)
	DD	2 DUP(00H)
	DD	00H
	DD	01H
xdata$x	ENDS
;	COMDAT xdata$x
xdata$x	SEGMENT
__ehfuncinfo$?Draw@COrderLine@@QAEXPAVCDC@@@Z DD 019930522H
	DD	05H
	DD	FLAT:__unwindtable$?Draw@COrderLine@@QAEXPAVCDC@@@Z
	DD	2 DUP(00H)
	DD	2 DUP(00H)
	DD	00H
	DD	01H
__unwindtable$?Draw@COrderLine@@QAEXPAVCDC@@@Z DD 0ffffffffH
	DD	FLAT:__unwindfunclet$?Draw@COrderLine@@QAEXPAVCDC@@@Z$0
	DD	00H
	DD	FLAT:__unwindfunclet$?Draw@COrderLine@@QAEXPAVCDC@@@Z$1
	DD	01H
	DD	FLAT:__unwindfunclet$?Draw@COrderLine@@QAEXPAVCDC@@@Z$2
	DD	02H
	DD	FLAT:__unwindfunclet$?Draw@COrderLine@@QAEXPAVCDC@@@Z$3
	DD	03H
	DD	FLAT:__unwindfunclet$?Draw@COrderLine@@QAEXPAVCDC@@@Z$4
xdata$x	ENDS
;	COMDAT xdata$x
xdata$x	SEGMENT
__ehfuncinfo$??0COrderLine@@QAE@XZ DD 019930522H
	DD	0bH
	DD	FLAT:__unwindtable$??0COrderLine@@QAE@XZ
	DD	2 DUP(00H)
	DD	2 DUP(00H)
	DD	00H
	DD	01H
__unwindtable$??0COrderLine@@QAE@XZ DD 0ffffffffH
	DD	FLAT:__unwindfunclet$??0COrderLine@@QAE@XZ$0
	DD	00H
	DD	FLAT:__unwindfunclet$??0COrderLine@@QAE@XZ$1
	DD	01H
	DD	FLAT:__unwindfunclet$??0COrderLine@@QAE@XZ$2
	DD	02H
	DD	FLAT:__unwindfunclet$??0COrderLine@@QAE@XZ$3
	DD	03H
	DD	FLAT:__unwindfunclet$??0COrderLine@@QAE@XZ$4
	DD	04H
	DD	FLAT:__unwindfunclet$??0COrderLine@@QAE@XZ$5
	DD	05H
	DD	FLAT:__unwindfunclet$??0COrderLine@@QAE@XZ$6
	DD	06H
	DD	FLAT:__unwindfunclet$??0COrderLine@@QAE@XZ$7
	DD	07H
	DD	FLAT:__unwindfunclet$??0COrderLine@@QAE@XZ$8
	DD	08H
	DD	FLAT:__unwindfunclet$??0COrderLine@@QAE@XZ$9
	DD	09H
	DD	FLAT:__unwindfunclet$??0COrderLine@@QAE@XZ$10
xdata$x	ENDS
;	COMDAT xdata$x
xdata$x	SEGMENT
__unwindtable$??_GCMenu@@UAEPAXI@Z DD 0ffffffffH
	DD	FLAT:___std_terminate
__ehfuncinfo$??_GCMenu@@UAEPAXI@Z DD 019930522H
	DD	01H
	DD	FLAT:__unwindtable$??_GCMenu@@UAEPAXI@Z
	DD	2 DUP(00H)
	DD	2 DUP(00H)
	DD	00H
	DD	05H
xdata$x	ENDS
;	COMDAT xdata$x
xdata$x	SEGMENT
__ehfuncinfo$??1CMenu@@UAE@XZ DD 019930522H
	DD	00H
	DD	00H
	DD	2 DUP(00H)
	DD	2 DUP(00H)
	DD	00H
	DD	05H
xdata$x	ENDS
;	COMDAT xdata$x
xdata$x	SEGMENT
__catchsym$??1CGdiObject@@UAE@XZ$3 DD 00H
	DD	FLAT:??_R0PAVCException@@@8
	DD	0fffffde4H
	DD	FLAT:__catch$??1CGdiObject@@UAE@XZ$0
__tryblocktable$??1CGdiObject@@UAE@XZ DD 00H
	DD	00H
	DD	02H
	DD	01H
	DD	FLAT:__catchsym$??1CGdiObject@@UAE@XZ$3
__unwindtable$??1CGdiObject@@UAE@XZ DD 0ffffffffH
	DD	00H
	DD	0ffffffffH
	DD	00H
	DD	01H
	DD	FLAT:__unwindfunclet$??1CGdiObject@@UAE@XZ$2
__ehfuncinfo$??1CGdiObject@@UAE@XZ DD 019930522H
	DD	03H
	DD	FLAT:__unwindtable$??1CGdiObject@@UAE@XZ
	DD	01H
	DD	FLAT:__tryblocktable$??1CGdiObject@@UAE@XZ
	DD	2 DUP(00H)
	DD	00H
	DD	05H
xdata$x	ENDS
CRT$XCU	SEGMENT
??m_strAddInItemName$initializer$@COrderLineAddInImp@@2P6AXXZA@@3P6AXXZA DD FLAT:??__E?m_strAddInItemName@COrderLineAddInImp@@2V?$CStringT@DV?$StrTraitMFC_DLL@DV?$ChTraitsCRT@D@ATL@@@@@ATL@@A@@YAXXZ ; ??m_strAddInItemName$initializer$@COrderLineAddInImp@@2P6AXXZA@@3P6AXXZA
CRT$XCU	ENDS
; Function compile flags: /Odsp
;	COMDAT ??_ECOrderLineAddInImp@@W7AEPAXI@Z
_TEXT	SEGMENT
??_ECOrderLineAddInImp@@W7AEPAXI@Z PROC			; [thunk]:COrderLineAddInImp::`vector deleting destructor', COMDAT
  00000	83 e9 08	 sub	 ecx, 8
  00003	e9 00 00 00 00	 jmp	 ??_ECOrderLineAddInImp@@UAEPAXI@Z
??_ECOrderLineAddInImp@@W7AEPAXI@Z ENDP			; [thunk]:COrderLineAddInImp::`vector deleting destructor'
_TEXT	ENDS
; Function compile flags: /Odsp
;	COMDAT ?Release@CChartAddInBase003531@@O7AGKXZ
_TEXT	SEGMENT
?Release@CChartAddInBase003531@@O7AGKXZ PROC		; [thunk]:CChartAddInBase003531::Release`adjustor{8}', COMDAT
  00000	83 6c 24 04 08	 sub	 DWORD PTR [esp+4], 8
  00005	e9 00 00 00 00	 jmp	 ?Release@CChartAddInBase003531@@MAGKXZ ; CChartAddInBase003531::Release
?Release@CChartAddInBase003531@@O7AGKXZ ENDP		; [thunk]:CChartAddInBase003531::Release`adjustor{8}'
_TEXT	ENDS
; Function compile flags: /Odsp
;	COMDAT ?AddRef@CChartAddInBase003531@@O7AGKXZ
_TEXT	SEGMENT
?AddRef@CChartAddInBase003531@@O7AGKXZ PROC		; [thunk]:CChartAddInBase003531::AddRef`adjustor{8}', COMDAT
  00000	83 6c 24 04 08	 sub	 DWORD PTR [esp+4], 8
  00005	e9 00 00 00 00	 jmp	 ?AddRef@CChartAddInBase003531@@MAGKXZ ; CChartAddInBase003531::AddRef
?AddRef@CChartAddInBase003531@@O7AGKXZ ENDP		; [thunk]:CChartAddInBase003531::AddRef`adjustor{8}'
_TEXT	ENDS
; Function compile flags: /Odsp
;	COMDAT ?QueryInterface@CChartAddInBase003531@@O7AGJABU_GUID@@PAPAX@Z
_TEXT	SEGMENT
?QueryInterface@CChartAddInBase003531@@O7AGJABU_GUID@@PAPAX@Z PROC ; [thunk]:CChartAddInBase003531::QueryInterface`adjustor{8}', COMDAT
  00000	83 6c 24 04 08	 sub	 DWORD PTR [esp+4], 8
  00005	e9 00 00 00 00	 jmp	 ?QueryInterface@CChartAddInBase003531@@MAGJABU_GUID@@PAPAX@Z ; CChartAddInBase003531::QueryInterface
?QueryInterface@CChartAddInBase003531@@O7AGJABU_GUID@@PAPAX@Z ENDP ; [thunk]:CChartAddInBase003531::QueryInterface`adjustor{8}'
_TEXT	ENDS
; Function compile flags: /Ogtp
; File C:\Program Files (x86)\Microsoft Visual Studio\2019\Community\VC\Tools\MSVC\14.29.30133\atlmfc\include\afxtempl.h
; File C:\Program Files (x86)\Microsoft Visual Studio\2019\Community\VC\Tools\MSVC\14.29.30133\atlmfc\include\afx.inl
; File C:\Program Files (x86)\Microsoft Visual Studio\2019\Community\VC\Tools\MSVC\14.29.30133\atlmfc\include\afxtempl.h
; File C:\Program Files (x86)\Microsoft Visual Studio\2019\Community\VC\Tools\MSVC\14.29.30133\atlmfc\include\afx.inl
; File C:\Program Files (x86)\Microsoft Visual Studio\2019\Community\VC\Tools\MSVC\14.29.30133\atlmfc\include\afxtempl.h
; File C:\Program Files (x86)\Microsoft Visual Studio\2019\Community\VC\Tools\MSVC\14.29.30133\atlmfc\include\afx.inl
; File C:\Program Files (x86)\Microsoft Visual Studio\2019\Community\VC\Tools\MSVC\14.29.30133\atlmfc\include\afxtempl.h
;	COMDAT ??$SerializeElements@PAVCCommentItem@@@@YGXAAVCArchive@@PAPAVCCommentItem@@H@Z
_TEXT	SEGMENT
_ar$ = 8						; size = 4
_pElements$ = 12					; size = 4
_nCount$ = 16						; size = 4
??$SerializeElements@PAVCCommentItem@@@@YGXAAVCArchive@@PAPAVCCommentItem@@H@Z PROC ; SerializeElements<CCommentItem *>, COMDAT

; 67   : {

  00000	55		 push	 ebp
  00001	8b ec		 mov	 ebp, esp

; 68   : 	ENSURE(nCount == 0 || pElements != NULL);

  00003	8b 4d 0c	 mov	 ecx, DWORD PTR _pElements$[ebp]
  00006	53		 push	 ebx
  00007	56		 push	 esi
  00008	8b 75 10	 mov	 esi, DWORD PTR _nCount$[ebp]
  0000b	57		 push	 edi
  0000c	85 f6		 test	 esi, esi
  0000e	74 08		 je	 SHORT $LN2@SerializeE
  00010	85 c9		 test	 ecx, ecx
  00012	0f 84 89 00 00
	00		 je	 $LN34@SerializeE
$LN2@SerializeE:
; File C:\Program Files (x86)\Microsoft Visual Studio\2019\Community\VC\Tools\MSVC\14.29.30133\atlmfc\include\afx.inl

; 212  : 	{ return (m_nMode & CArchive::load) == 0; }

  00018	8b 55 08	 mov	 edx, DWORD PTR _ar$[ebp]
  0001b	8b 42 18	 mov	 eax, DWORD PTR [edx+24]
  0001e	f7 d0		 not	 eax
  00020	a8 01		 test	 al, 1
; File C:\Program Files (x86)\Microsoft Visual Studio\2019\Community\VC\Tools\MSVC\14.29.30133\atlmfc\include\afxtempl.h

; 73   : 	if (ar.IsStoring())

  00022	74 3c		 je	 SHORT $LN10@SerializeE

; 74   : 	{
; 75   : 		TYPE* pData;
; 76   : 		UINT_PTR nElementsLeft;
; 77   : 
; 78   : 		nElementsLeft = nCount;
; 79   : 		pData = pElements;
; 80   : 		while( nElementsLeft > 0 )

  00024	85 f6		 test	 esi, esi
  00026	74 31		 je	 SHORT $LN8@SerializeE
  00028	0f 1f 84 00 00
	00 00 00	 npad	 8
$LL5@SerializeE:

; 81   : 		{
; 82   : 			UINT nElementsToWrite;
; 83   : 
; 84   : 			nElementsToWrite = UINT(__min(nElementsLeft, INT_MAX/sizeof(TYPE)));

  00030	bb ff ff ff 1f	 mov	 ebx, 536870911		; 1fffffffH
  00035	3b f3		 cmp	 esi, ebx
  00037	0f 42 de	 cmovb	 ebx, esi

; 85   : 			ar.Write(pData, nElementsToWrite*sizeof(TYPE));

  0003a	8d 3c 9d 00 00
	00 00		 lea	 edi, DWORD PTR [ebx*4]
  00041	57		 push	 edi
  00042	51		 push	 ecx
  00043	8b ca		 mov	 ecx, edx
  00045	e8 00 00 00 00	 call	 ?Write@CArchive@@QAEXPBXI@Z ; CArchive::Write

; 86   : 			nElementsLeft -= nElementsToWrite;
; 87   : 			pData += nElementsToWrite;

  0004a	8b 4d 0c	 mov	 ecx, DWORD PTR _pElements$[ebp]
  0004d	8b 55 08	 mov	 edx, DWORD PTR _ar$[ebp]
  00050	03 cf		 add	 ecx, edi
  00052	89 4d 0c	 mov	 DWORD PTR _pElements$[ebp], ecx
  00055	2b f3		 sub	 esi, ebx
  00057	75 d7		 jne	 SHORT $LL5@SerializeE
$LN8@SerializeE:
  00059	5f		 pop	 edi

; 105  : 		}
; 106  : 	}
; 107  : }

  0005a	5e		 pop	 esi
  0005b	5b		 pop	 ebx
  0005c	5d		 pop	 ebp
  0005d	c2 0c 00	 ret	 12			; 0000000cH
$LN10@SerializeE:

; 97   : 		while( nElementsLeft > 0 )

  00060	85 f6		 test	 esi, esi
  00062	74 f5		 je	 SHORT $LN8@SerializeE
$LL7@SerializeE:

; 98   : 		{
; 99   : 			UINT nElementsToRead;
; 100  : 
; 101  : 			nElementsToRead = UINT(__min(nElementsLeft, INT_MAX/sizeof(TYPE)));

  00064	bf ff ff ff 1f	 mov	 edi, 536870911		; 1fffffffH
  00069	3b f7		 cmp	 esi, edi
  0006b	0f 42 fe	 cmovb	 edi, esi

; 102  : 			ar.EnsureRead(pData, nElementsToRead*sizeof(TYPE));

  0006e	8d 1c bd 00 00
	00 00		 lea	 ebx, DWORD PTR [edi*4]
; File C:\Program Files (x86)\Microsoft Visual Studio\2019\Community\VC\Tools\MSVC\14.29.30133\atlmfc\include\afx.inl

; 399  : 	UINT nRead=Read(lpBuf, nCount);

  00075	53		 push	 ebx
  00076	51		 push	 ecx
  00077	8b ca		 mov	 ecx, edx
  00079	e8 00 00 00 00	 call	 ?Read@CArchive@@QAEIPAXI@Z ; CArchive::Read

; 400  : 	if(nRead!=nCount)

  0007e	3b c3		 cmp	 eax, ebx
  00080	75 16		 jne	 SHORT $LN23@SerializeE
; File C:\Program Files (x86)\Microsoft Visual Studio\2019\Community\VC\Tools\MSVC\14.29.30133\atlmfc\include\afxtempl.h

; 97   : 		while( nElementsLeft > 0 )

  00082	8b 4d 0c	 mov	 ecx, DWORD PTR _pElements$[ebp]
  00085	8b 55 08	 mov	 edx, DWORD PTR _ar$[ebp]

; 103  : 			nElementsLeft -= nElementsToRead;
; 104  : 			pData += nElementsToRead;

  00088	03 cb		 add	 ecx, ebx
  0008a	89 4d 0c	 mov	 DWORD PTR _pElements$[ebp], ecx
  0008d	2b f7		 sub	 esi, edi
  0008f	75 d3		 jne	 SHORT $LL7@SerializeE

; 105  : 		}
; 106  : 	}
; 107  : }

  00091	5f		 pop	 edi
  00092	5e		 pop	 esi
  00093	5b		 pop	 ebx
  00094	5d		 pop	 ebp
  00095	c2 0c 00	 ret	 12			; 0000000cH
$LN23@SerializeE:
; File C:\Program Files (x86)\Microsoft Visual Studio\2019\Community\VC\Tools\MSVC\14.29.30133\atlmfc\include\afx.inl

; 402  : 		AfxThrowArchiveException(CArchiveException::endOfFile);

  00098	6a 00		 push	 0
  0009a	6a 03		 push	 3
  0009c	e8 00 00 00 00	 call	 ?AfxThrowArchiveException@@YGXHPBD@Z ; AfxThrowArchiveException
$LN34@SerializeE:
; File C:\Program Files (x86)\Microsoft Visual Studio\2019\Community\VC\Tools\MSVC\14.29.30133\atlmfc\include\afxtempl.h

; 68   : 	ENSURE(nCount == 0 || pElements != NULL);

  000a1	e8 00 00 00 00	 call	 ?AfxThrowInvalidArgException@@YGXXZ ; AfxThrowInvalidArgException
$LN32@SerializeE:
  000a6	cc		 int	 3
??$SerializeElements@PAVCCommentItem@@@@YGXAAVCArchive@@PAPAVCCommentItem@@H@Z ENDP ; SerializeElements<CCommentItem *>
_TEXT	ENDS
; Function compile flags: /Ogtp
;	COMDAT ??__F?m_strAddInItemName@COrderLineAddInImp@@2V?$CStringT@DV?$StrTraitMFC_DLL@DV?$ChTraitsCRT@D@ATL@@@@@ATL@@A@@YAXXZ
text$yd	SEGMENT
??__F?m_strAddInItemName@COrderLineAddInImp@@2V?$CStringT@DV?$StrTraitMFC_DLL@DV?$ChTraitsCRT@D@ATL@@@@@ATL@@A@@YAXXZ PROC ; `dynamic atexit destructor for 'COrderLineAddInImp::m_strAddInItemName'', COMDAT
  00000	b9 00 00 00 00	 mov	 ecx, OFFSET ?m_strAddInItemName@COrderLineAddInImp@@2V?$CStringT@DV?$StrTraitMFC_DLL@DV?$ChTraitsCRT@D@ATL@@@@@ATL@@A ; COrderLineAddInImp::m_strAddInItemName
  00005	ff 25 00 00 00
	00		 jmp	 DWORD PTR __imp_??1?$CStringT@DV?$StrTraitMFC_DLL@DV?$ChTraitsCRT@D@ATL@@@@@ATL@@QAE@XZ
??__F?m_strAddInItemName@COrderLineAddInImp@@2V?$CStringT@DV?$StrTraitMFC_DLL@DV?$ChTraitsCRT@D@ATL@@@@@ATL@@A@@YAXXZ ENDP ; `dynamic atexit destructor for 'COrderLineAddInImp::m_strAddInItemName''
text$yd	ENDS
; Function compile flags: /Ogtp
; File D:\git\src\IBK\IBK_DRFN\ProjSrc\SrcChartEx\ChartAddIn\ChartOutsideCustomAddIn\ChartOutsideCustomAddIn\OrderLineAddinImp.cpp
;	COMDAT ??__E?m_strAddInItemName@COrderLineAddInImp@@2V?$CStringT@DV?$StrTraitMFC_DLL@DV?$ChTraitsCRT@D@ATL@@@@@ATL@@A@@YAXXZ
text$di	SEGMENT
??__E?m_strAddInItemName@COrderLineAddInImp@@2V?$CStringT@DV?$StrTraitMFC_DLL@DV?$ChTraitsCRT@D@ATL@@@@@ATL@@A@@YAXXZ PROC ; `dynamic initializer for 'COrderLineAddInImp::m_strAddInItemName'', COMDAT

; 586  : CString COrderLineAddInImp::m_strAddInItemName = "ORDER_LINE";

  00000	68 00 00 00 00	 push	 OFFSET ??_C@_0L@ELKNJAAE@ORDER_LINE@
  00005	b9 00 00 00 00	 mov	 ecx, OFFSET ?m_strAddInItemName@COrderLineAddInImp@@2V?$CStringT@DV?$StrTraitMFC_DLL@DV?$ChTraitsCRT@D@ATL@@@@@ATL@@A ; COrderLineAddInImp::m_strAddInItemName
  0000a	ff 15 00 00 00
	00		 call	 DWORD PTR __imp_??0?$CStringT@DV?$StrTraitMFC_DLL@DV?$ChTraitsCRT@D@ATL@@@@@ATL@@QAE@PBD@Z
  00010	68 00 00 00 00	 push	 OFFSET ??__F?m_strAddInItemName@COrderLineAddInImp@@2V?$CStringT@DV?$StrTraitMFC_DLL@DV?$ChTraitsCRT@D@ATL@@@@@ATL@@A@@YAXXZ ; `dynamic atexit destructor for 'COrderLineAddInImp::m_strAddInItemName''
  00015	e8 00 00 00 00	 call	 _atexit
  0001a	59		 pop	 ecx
  0001b	c3		 ret	 0
??__E?m_strAddInItemName@COrderLineAddInImp@@2V?$CStringT@DV?$StrTraitMFC_DLL@DV?$ChTraitsCRT@D@ATL@@@@@ATL@@A@@YAXXZ ENDP ; `dynamic initializer for 'COrderLineAddInImp::m_strAddInItemName''
text$di	ENDS
; Function compile flags: /Ogtp
; File D:\git\src\IBK\IBK_DRFN\ProjSrc\SrcChartEx\ChartAddIn\ChartOutsideCustomAddIn\Include_AddIn\I003531\_IString.h
;	COMDAT ??1ILPCSTR003531@@QAE@XZ
_TEXT	SEGMENT
__$EHRec$ = -12						; size = 12
??1ILPCSTR003531@@QAE@XZ PROC				; ILPCSTR003531::~ILPCSTR003531, COMDAT
; _this$ = ecx

; 44   : 	{

  00000	55		 push	 ebp
  00001	8b ec		 mov	 ebp, esp
  00003	6a ff		 push	 -1
  00005	68 00 00 00 00	 push	 __ehhandler$??1ILPCSTR003531@@QAE@XZ
  0000a	64 a1 00 00 00
	00		 mov	 eax, DWORD PTR fs:0
  00010	50		 push	 eax
  00011	56		 push	 esi
  00012	a1 00 00 00 00	 mov	 eax, DWORD PTR ___security_cookie
  00017	33 c5		 xor	 eax, ebp
  00019	50		 push	 eax
  0001a	8d 45 f4	 lea	 eax, DWORD PTR __$EHRec$[ebp]
  0001d	64 a3 00 00 00
	00		 mov	 DWORD PTR fs:0, eax
  00023	8b f1		 mov	 esi, ecx

; 45   : 		if( m_pIStrData)

  00025	8b 4e 04	 mov	 ecx, DWORD PTR [esi+4]
  00028	85 c9		 test	 ecx, ecx
  0002a	74 13		 je	 SHORT $LN2@ILPCSTR003

; 46   : 		{
; 47   : 			m_pIStrData->Release();

  0002c	8b 01		 mov	 eax, DWORD PTR [ecx]
  0002e	51		 push	 ecx
  0002f	ff 50 08	 call	 DWORD PTR [eax+8]

; 48   : 			m_pIStrData = NULL;

  00032	c7 46 04 00 00
	00 00		 mov	 DWORD PTR [esi+4], 0

; 49   : 			m_szData = NULL;

  00039	c7 06 00 00 00
	00		 mov	 DWORD PTR [esi], 0
$LN2@ILPCSTR003:

; 50   : 		}
; 51   : 	}

  0003f	8b 4d f4	 mov	 ecx, DWORD PTR __$EHRec$[ebp]
  00042	64 89 0d 00 00
	00 00		 mov	 DWORD PTR fs:0, ecx
  00049	59		 pop	 ecx
  0004a	5e		 pop	 esi
  0004b	8b e5		 mov	 esp, ebp
  0004d	5d		 pop	 ebp
  0004e	c3		 ret	 0
  0004f	cc		 int	 3
  00050	cc		 int	 3
  00051	cc		 int	 3
  00052	cc		 int	 3
  00053	cc		 int	 3
_TEXT	ENDS
;	COMDAT text$x
text$x	SEGMENT
__ehhandler$??1ILPCSTR003531@@QAE@XZ:
  00000	90		 npad	 1
  00001	90		 npad	 1
  00002	8b 54 24 08	 mov	 edx, DWORD PTR [esp+8]
  00006	8d 42 0c	 lea	 eax, DWORD PTR [edx+12]
  00009	8b 4a f8	 mov	 ecx, DWORD PTR [edx-8]
  0000c	33 c8		 xor	 ecx, eax
  0000e	e8 00 00 00 00	 call	 @__security_check_cookie@4
  00013	b8 00 00 00 00	 mov	 eax, OFFSET __ehfuncinfo$??1ILPCSTR003531@@QAE@XZ
  00018	e9 00 00 00 00	 jmp	 ___CxxFrameHandler3
text$x	ENDS
??1ILPCSTR003531@@QAE@XZ ENDP				; ILPCSTR003531::~ILPCSTR003531
; Function compile flags: /Ogtp
; File D:\git\src\IBK\IBK_DRFN\ProjSrc\SrcChartEx\ChartAddIn\ChartOutsideCustomAddIn\Include_Chart\MessageDefine.h
;	COMDAT ??__ERMS_ANALYSIS_FUNC@@YAXXZ
text$di	SEGMENT
??__ERMS_ANALYSIS_FUNC@@YAXXZ PROC			; `dynamic initializer for 'RMS_ANALYSIS_FUNC'', COMDAT

; 5    : const UINT RMS_ANALYSIS_FUNC = ::RegisterWindowMessage(_T("RMS_ANALYSIS_FUNC"));

  00000	68 00 00 00 00	 push	 OFFSET ??_C@_0BC@MMPGLPDH@RMS_ANALYSIS_FUNC@
  00005	ff 15 00 00 00
	00		 call	 DWORD PTR __imp__RegisterWindowMessageA@4
  0000b	a3 00 00 00 00	 mov	 DWORD PTR ?RMS_ANALYSIS_FUNC@@3IB, eax
  00010	c3		 ret	 0
??__ERMS_ANALYSIS_FUNC@@YAXXZ ENDP			; `dynamic initializer for 'RMS_ANALYSIS_FUNC''
text$di	ENDS
; Function compile flags: /Ogtp
; File D:\git\src\IBK\IBK_DRFN\ProjSrc\SrcChartEx\ChartAddIn\ChartOutsideCustomAddIn\Include_Chart\Dll_Load\IMetaTable.h
; File C:\Program Files (x86)\Microsoft Visual Studio\2019\Community\VC\Tools\MSVC\14.29.30133\atlmfc\include\afxwin1.inl
; File D:\git\src\IBK\IBK_DRFN\ProjSrc\SrcChartEx\ChartAddIn\ChartOutsideCustomAddIn\Include_Chart\Dll_Load\IMetaTable.h
;	COMDAT ??1CMultiLanguageResourceSetter@@QAE@XZ
_TEXT	SEGMENT
__$EHRec$ = -12						; size = 12
??1CMultiLanguageResourceSetter@@QAE@XZ PROC		; CMultiLanguageResourceSetter::~CMultiLanguageResourceSetter, COMDAT
; _this$ = ecx

; 1042 : 	{

  00000	55		 push	 ebp
  00001	8b ec		 mov	 ebp, esp
  00003	6a ff		 push	 -1
  00005	68 00 00 00 00	 push	 __ehhandler$??1CMultiLanguageResourceSetter@@QAE@XZ
  0000a	64 a1 00 00 00
	00		 mov	 eax, DWORD PTR fs:0
  00010	50		 push	 eax
  00011	56		 push	 esi
  00012	a1 00 00 00 00	 mov	 eax, DWORD PTR ___security_cookie
  00017	33 c5		 xor	 eax, ebp
  00019	50		 push	 eax
  0001a	8d 45 f4	 lea	 eax, DWORD PTR __$EHRec$[ebp]
  0001d	64 a3 00 00 00
	00		 mov	 DWORD PTR fs:0, eax

; 1043 : 		AfxSetResourceHandle( m_hInstance);

  00023	8b 31		 mov	 esi, DWORD PTR [ecx]
; File C:\Program Files (x86)\Microsoft Visual Studio\2019\Community\VC\Tools\MSVC\14.29.30133\atlmfc\include\afxwin1.inl

; 27   : 	{ ASSERT(hInstResource != NULL); afxCurrentResourceHandle = hInstResource; }

  00025	e8 00 00 00 00	 call	 ?AfxGetModuleState@@YGPAVAFX_MODULE_STATE@@XZ ; AfxGetModuleState
  0002a	89 70 0c	 mov	 DWORD PTR [eax+12], esi
; File D:\git\src\IBK\IBK_DRFN\ProjSrc\SrcChartEx\ChartAddIn\ChartOutsideCustomAddIn\Include_Chart\Dll_Load\IMetaTable.h

; 1044 : 	}

  0002d	8b 4d f4	 mov	 ecx, DWORD PTR __$EHRec$[ebp]
  00030	64 89 0d 00 00
	00 00		 mov	 DWORD PTR fs:0, ecx
  00037	59		 pop	 ecx
  00038	5e		 pop	 esi
  00039	8b e5		 mov	 esp, ebp
  0003b	5d		 pop	 ebp
  0003c	c3		 ret	 0
  0003d	cc		 int	 3
  0003e	cc		 int	 3
  0003f	cc		 int	 3
  00040	cc		 int	 3
  00041	cc		 int	 3
_TEXT	ENDS
;	COMDAT text$x
text$x	SEGMENT
__ehhandler$??1CMultiLanguageResourceSetter@@QAE@XZ:
  00000	90		 npad	 1
  00001	90		 npad	 1
  00002	8b 54 24 08	 mov	 edx, DWORD PTR [esp+8]
  00006	8d 42 0c	 lea	 eax, DWORD PTR [edx+12]
  00009	8b 4a f8	 mov	 ecx, DWORD PTR [edx-8]
  0000c	33 c8		 xor	 ecx, eax
  0000e	e8 00 00 00 00	 call	 @__security_check_cookie@4
  00013	b8 00 00 00 00	 mov	 eax, OFFSET __ehfuncinfo$??1CMultiLanguageResourceSetter@@QAE@XZ
  00018	e9 00 00 00 00	 jmp	 ___CxxFrameHandler3
text$x	ENDS
??1CMultiLanguageResourceSetter@@QAE@XZ ENDP		; CMultiLanguageResourceSetter::~CMultiLanguageResourceSetter
; Function compile flags: /Ogtp
; File D:\git\src\IBK\IBK_DRFN\ProjSrc\SrcChartEx\ChartAddIn\ChartOutsideCustomAddIn\ChartOutsideCustomAddIn\OrderLineAddinImp.cpp
; File C:\Program Files (x86)\Microsoft Visual Studio\2019\Community\VC\Tools\MSVC\14.29.30133\atlmfc\include\afxwin1.inl
; File C:\Program Files (x86)\Microsoft Visual Studio\2019\Community\VC\Tools\MSVC\14.29.30133\atlmfc\include\afxtempl.h
; File D:\git\src\IBK\IBK_DRFN\ProjSrc\SrcChartEx\ChartAddIn\ChartOutsideCustomAddIn\ChartOutsideCustomAddIn\OrderLineAddinImp.cpp
; File C:\Program Files (x86)\Microsoft Visual Studio\2019\Community\VC\Tools\MSVC\14.29.30133\atlmfc\include\afx.inl
;	COMDAT ??_GCOrderLineAddInImp@@UAEPAXI@Z
_TEXT	SEGMENT
__$EHRec$ = -12						; size = 12
___flags$ = 8						; size = 4
??_GCOrderLineAddInImp@@UAEPAXI@Z PROC			; COrderLineAddInImp::`scalar deleting destructor', COMDAT
; _this$ = ecx
  00000	55		 push	 ebp
  00001	8b ec		 mov	 ebp, esp
  00003	6a ff		 push	 -1
  00005	68 00 00 00 00	 push	 __ehhandler$??_GCOrderLineAddInImp@@UAEPAXI@Z
  0000a	64 a1 00 00 00
	00		 mov	 eax, DWORD PTR fs:0
  00010	50		 push	 eax
  00011	56		 push	 esi
  00012	a1 00 00 00 00	 mov	 eax, DWORD PTR ___security_cookie
  00017	33 c5		 xor	 eax, ebp
  00019	50		 push	 eax
  0001a	8d 45 f4	 lea	 eax, DWORD PTR __$EHRec$[ebp]
  0001d	64 a3 00 00 00
	00		 mov	 DWORD PTR fs:0, eax
  00023	8b f1		 mov	 esi, ecx
; File D:\git\src\IBK\IBK_DRFN\ProjSrc\SrcChartEx\ChartAddIn\ChartOutsideCustomAddIn\ChartOutsideCustomAddIn\OrderLineAddinImp.cpp

; 572  : {

  00025	c7 45 fc 00 00
	00 00		 mov	 DWORD PTR __$EHRec$[ebp+8], 0
  0002c	c7 06 00 00 00
	00		 mov	 DWORD PTR [esi], OFFSET ??_7COrderLineAddInImp@@6BCIWUnknown@@@
  00032	c7 46 08 00 00
	00 00		 mov	 DWORD PTR [esi+8], OFFSET ??_7COrderLineAddInImp@@6BIChartAddIn003531@@@

; 573  : /*	POSITION pos = m_OrderLineList.GetHeadPosition();
; 574  : 	while (pos)
; 575  : 	{
; 576  : 		COrderLine* pLineOrder = (COrderLine*)m_OrderLineList.GetNext(pos);
; 577  : 		delete pLineOrder;
; 578  : 		pLineOrder = NULL;
; 579  : 	}
; 580  : 	m_OrderLineList.RemoveAll();*/
; 581  : 	SetRemove_OrderLine();

  00039	e8 00 00 00 00	 call	 ?SetRemove_OrderLine@COrderLineAddInImp@@IAEXXZ ; COrderLineAddInImp::SetRemove_OrderLine

; 582  : 	SetRemove_CommentData();

  0003e	8b ce		 mov	 ecx, esi
  00040	e8 00 00 00 00	 call	 ?SetRemove_CommentData@COrderLineAddInImp@@QAEXXZ ; COrderLineAddInImp::SetRemove_CommentData

; 583  : }

  00045	8d 8e 24 02 00
	00		 lea	 ecx, DWORD PTR [esi+548]
; File C:\Program Files (x86)\Microsoft Visual Studio\2019\Community\VC\Tools\MSVC\14.29.30133\atlmfc\include\afxwin1.inl

; 155  : 	{ }

  0004b	c7 01 00 00 00
	00		 mov	 DWORD PTR [ecx], OFFSET ??_7CFont@@6B@
  00051	e8 00 00 00 00	 call	 ??1CGdiObject@@UAE@XZ	; CGdiObject::~CGdiObject
; File C:\Program Files (x86)\Microsoft Visual Studio\2019\Community\VC\Tools\MSVC\14.29.30133\atlmfc\include\afxtempl.h

; 358  : 	if (m_pData != NULL)

  00056	8b 86 14 02 00
	00		 mov	 eax, DWORD PTR [esi+532]
  0005c	c7 86 10 02 00
	00 00 00 00 00	 mov	 DWORD PTR [esi+528], OFFSET ??_7?$CArray@PAVCCommentItem@@PAV1@@@6B@
  00066	85 c0		 test	 eax, eax
  00068	74 13		 je	 SHORT $LN17@scalar

; 359  : 	{
; 360  : 		for( int i = 0; i < m_nSize; i++ )

  0006a	83 be 18 02 00
	00 00		 cmp	 DWORD PTR [esi+536], 0
  00071	0f 4f c0	 cmovg	 eax, eax

; 361  : 			(m_pData + i)->~TYPE();
; 362  : 		delete[] (BYTE*)m_pData;

  00074	50		 push	 eax
  00075	e8 00 00 00 00	 call	 ??_V@YAXPAX@Z		; operator delete[]
  0007a	83 c4 04	 add	 esp, 4
$LN17@scalar:
; File D:\git\src\IBK\IBK_DRFN\ProjSrc\SrcChartEx\ChartAddIn\ChartOutsideCustomAddIn\ChartOutsideCustomAddIn\OrderLineAddinImp.cpp

; 583  : }

  0007d	8d 8e b0 01 00
	00		 lea	 ecx, DWORD PTR [esi+432]
  00083	ff 15 00 00 00
	00		 call	 DWORD PTR __imp_??1?$CStringT@DV?$StrTraitMFC_DLL@DV?$ChTraitsCRT@D@ATL@@@@@ATL@@QAE@XZ
  00089	8d 8e 10 01 00
	00		 lea	 ecx, DWORD PTR [esi+272]
  0008f	e8 00 00 00 00	 call	 ??1CToolTipCtrl@@UAE@XZ	; CToolTipCtrl::~CToolTipCtrl
  00094	8d 4e 7c	 lea	 ecx, DWORD PTR [esi+124]
  00097	e8 00 00 00 00	 call	 ??1CObList@@UAE@XZ	; CObList::~CObList
  0009c	8d 4e 60	 lea	 ecx, DWORD PTR [esi+96]
  0009f	e8 00 00 00 00	 call	 ??1CObList@@UAE@XZ	; CObList::~CObList
  000a4	8d 4e 44	 lea	 ecx, DWORD PTR [esi+68]
  000a7	e8 00 00 00 00	 call	 ??1CObList@@UAE@XZ	; CObList::~CObList
  000ac	8b ce		 mov	 ecx, esi
  000ae	e8 00 00 00 00	 call	 ??1CChartAddInBase003531@@MAE@XZ ; CChartAddInBase003531::~CChartAddInBase003531
  000b3	8b 45 08	 mov	 eax, DWORD PTR ___flags$[ebp]
  000b6	a8 01		 test	 al, 1
  000b8	74 2f		 je	 SHORT $LN26@scalar
  000ba	a8 04		 test	 al, 4
  000bc	75 1d		 jne	 SHORT $LN3@scalar
; File C:\Program Files (x86)\Microsoft Visual Studio\2019\Community\VC\Tools\MSVC\14.29.30133\atlmfc\include\afx.inl

; 112  : 	{ ::operator delete(p); }

  000be	56		 push	 esi
  000bf	e8 00 00 00 00	 call	 ??3@YAXPAX@Z		; operator delete
  000c4	83 c4 04	 add	 esp, 4
  000c7	8b c6		 mov	 eax, esi
  000c9	8b 4d f4	 mov	 ecx, DWORD PTR __$EHRec$[ebp]
  000cc	64 89 0d 00 00
	00 00		 mov	 DWORD PTR fs:0, ecx
  000d3	59		 pop	 ecx
  000d4	5e		 pop	 esi
  000d5	8b e5		 mov	 esp, ebp
  000d7	5d		 pop	 ebp
  000d8	c2 04 00	 ret	 4
$LN3@scalar:
  000db	68 30 02 00 00	 push	 560			; 00000230H
  000e0	56		 push	 esi
  000e1	e8 00 00 00 00	 call	 ?__global_delete@@YAXPAXI@Z ; __global_delete
  000e6	83 c4 08	 add	 esp, 8
$LN26@scalar:
  000e9	8b c6		 mov	 eax, esi
  000eb	8b 4d f4	 mov	 ecx, DWORD PTR __$EHRec$[ebp]
  000ee	64 89 0d 00 00
	00 00		 mov	 DWORD PTR fs:0, ecx
  000f5	59		 pop	 ecx
  000f6	5e		 pop	 esi
  000f7	8b e5		 mov	 esp, ebp
  000f9	5d		 pop	 ebp
  000fa	c2 04 00	 ret	 4
  000fd	cc		 int	 3
  000fe	cc		 int	 3
  000ff	cc		 int	 3
  00100	cc		 int	 3
  00101	cc		 int	 3
_TEXT	ENDS
;	COMDAT text$x
text$x	SEGMENT
__ehhandler$??_GCOrderLineAddInImp@@UAEPAXI@Z:
  00000	90		 npad	 1
  00001	90		 npad	 1
  00002	8b 54 24 08	 mov	 edx, DWORD PTR [esp+8]
  00006	8d 42 0c	 lea	 eax, DWORD PTR [edx+12]
  00009	8b 4a f8	 mov	 ecx, DWORD PTR [edx-8]
  0000c	33 c8		 xor	 ecx, eax
  0000e	e8 00 00 00 00	 call	 @__security_check_cookie@4
  00013	b8 00 00 00 00	 mov	 eax, OFFSET __ehfuncinfo$??_GCOrderLineAddInImp@@UAEPAXI@Z
  00018	e9 00 00 00 00	 jmp	 ___CxxFrameHandler3
text$x	ENDS
??_GCOrderLineAddInImp@@UAEPAXI@Z ENDP			; COrderLineAddInImp::`scalar deleting destructor'
; Function compile flags: /Ogtp
; File D:\git\src\IBK\IBK_DRFN\ProjSrc\SrcChartEx\ChartAddIn\ChartOutsideCustomAddIn\ChartOutsideCustomAddIn\OrderLineAddinImp.cpp
; File C:\Program Files (x86)\Microsoft Visual Studio\2019\Community\VC\Tools\MSVC\14.29.30133\atlmfc\include\afxtempl.h
; File D:\git\src\IBK\IBK_DRFN\ProjSrc\SrcChartEx\ChartAddIn\ChartOutsideCustomAddIn\ChartOutsideCustomAddIn\OrderLineAddinImp.cpp
; File C:\Program Files (x86)\Microsoft Visual Studio\2019\Community\VC\Tools\MSVC\14.29.30133\atlmfc\include\afxtempl.h
; File D:\git\src\IBK\IBK_DRFN\ProjSrc\SrcChartEx\ChartAddIn\ChartOutsideCustomAddIn\ChartOutsideCustomAddIn\OrderLineAddinImp.cpp
; File C:\Program Files (x86)\Microsoft Visual Studio\2019\Community\VC\Tools\MSVC\14.29.30133\atlmfc\include\afxtempl.h
; File D:\git\src\IBK\IBK_DRFN\ProjSrc\SrcChartEx\ChartAddIn\ChartOutsideCustomAddIn\ChartOutsideCustomAddIn\OrderLineAddinImp.cpp
; File C:\Program Files (x86)\Microsoft Visual Studio\2019\Community\VC\Tools\MSVC\14.29.30133\atlmfc\include\afxtempl.h
; File D:\git\src\IBK\IBK_DRFN\ProjSrc\SrcChartEx\ChartAddIn\ChartOutsideCustomAddIn\ChartOutsideCustomAddIn\OrderLineAddinImp.cpp
;	COMDAT ?InvokeAddIn@COrderLineAddInImp@@MAEHHJ@Z
_TEXT	SEGMENT
_this$1$ = -4						; size = 4
_nIndex$1$ = 8						; size = 4
_p_nCommandType$ = 8					; size = 4
_p_lData$ = 12						; size = 4
?InvokeAddIn@COrderLineAddInImp@@MAEHHJ@Z PROC		; COrderLineAddInImp::InvokeAddIn, COMDAT
; _this$ = ecx

; 2423 : {

  00000	55		 push	 ebp
  00001	8b ec		 mov	 ebp, esp
  00003	51		 push	 ecx

; 2424 : 	if(p_nCommandType == 5)

  00004	8b 45 08	 mov	 eax, DWORD PTR _p_nCommandType$[ebp]
  00007	8b d1		 mov	 edx, ecx
  00009	89 55 fc	 mov	 DWORD PTR _this$1$[ebp], edx
  0000c	53		 push	 ebx
  0000d	8b 5d 0c	 mov	 ebx, DWORD PTR _p_lData$[ebp]
  00010	56		 push	 esi
  00011	83 f8 05	 cmp	 eax, 5
  00014	0f 84 b2 00 00
	00		 je	 $LN16@InvokeAddI

; 2425 : 	{
; 2426 : 	}
; 2427 : 	else if(!p_lData) return FALSE;	

  0001a	85 db		 test	 ebx, ebx
  0001c	75 0a		 jne	 SHORT $LN13@InvokeAddI
  0001e	5e		 pop	 esi
  0001f	33 c0		 xor	 eax, eax

; 2492 : }

  00021	5b		 pop	 ebx
  00022	8b e5		 mov	 esp, ebp
  00024	5d		 pop	 ebp
  00025	c2 08 00	 ret	 8
$LN13@InvokeAddI:

; 2428 : 
; 2429 : 	if(p_nCommandType == 1)			// ADD OPEN_POSITION after Seach... 

  00028	83 f8 01	 cmp	 eax, 1
  0002b	75 5b		 jne	 SHORT $LN14@InvokeAddI

; 2430 : 	{
; 2431 : 	 	CArray<FX_CHE_STRUCT*, FX_CHE_STRUCT*>* arrOrderList = (CArray<FX_CHE_STRUCT*, FX_CHE_STRUCT*>*)p_lData;
; 2432 : 		for(int nIndex = 0; nIndex < arrOrderList->GetSize(); nIndex++)

  0002d	8b 43 08	 mov	 eax, DWORD PTR [ebx+8]
  00030	33 c9		 xor	 ecx, ecx
  00032	89 4d 08	 mov	 DWORD PTR _nIndex$1$[ebp], ecx
  00035	85 c0		 test	 eax, eax
  00037	7e 42		 jle	 SHORT $LN9@InvokeAddI
  00039	57		 push	 edi
  0003a	66 0f 1f 44 00
	00		 npad	 6
$LL4@InvokeAddI:
; File C:\Program Files (x86)\Microsoft Visual Studio\2019\Community\VC\Tools\MSVC\14.29.30133\atlmfc\include\afxtempl.h

; 288  : 	if(nIndex >= 0 && nIndex < m_nSize)

  00040	85 c9		 test	 ecx, ecx
  00042	0f 88 37 01 00
	00		 js	 $LN36@InvokeAddI
  00048	3b c8		 cmp	 ecx, eax
  0004a	0f 8d 2f 01 00
	00		 jge	 $LN36@InvokeAddI
; File D:\git\src\IBK\IBK_DRFN\ProjSrc\SrcChartEx\ChartAddIn\ChartOutsideCustomAddIn\ChartOutsideCustomAddIn\OrderLineAddinImp.cpp

; 2435 : 			SetOpenPosition(pDataPosition);

  00050	8b 43 04	 mov	 eax, DWORD PTR [ebx+4]
  00053	8d 7a f8	 lea	 edi, DWORD PTR [edx-8]
  00056	8b 34 88	 mov	 esi, DWORD PTR [eax+ecx*4]
  00059	8b cf		 mov	 ecx, edi
  0005b	56		 push	 esi
  0005c	e8 00 00 00 00	 call	 ?SetOpenPosition@COrderLineAddInImp@@QAEXPAUFX_CHE_STRUCT@@@Z ; COrderLineAddInImp::SetOpenPosition

; 2436 : 			SetCommentData(pDataPosition);

  00061	56		 push	 esi
  00062	8b cf		 mov	 ecx, edi
  00064	e8 00 00 00 00	 call	 ?SetCommentData@COrderLineAddInImp@@QAEXPAUFX_CHE_STRUCT@@@Z ; COrderLineAddInImp::SetCommentData
  00069	8b 4d 08	 mov	 ecx, DWORD PTR _nIndex$1$[ebp]
  0006c	8b 43 08	 mov	 eax, DWORD PTR [ebx+8]
  0006f	41		 inc	 ecx
  00070	8b 55 fc	 mov	 edx, DWORD PTR _this$1$[ebp]
  00073	89 4d 08	 mov	 DWORD PTR _nIndex$1$[ebp], ecx
  00076	3b c8		 cmp	 ecx, eax
  00078	7c c6		 jl	 SHORT $LL4@InvokeAddI

; 2430 : 	{
; 2431 : 	 	CArray<FX_CHE_STRUCT*, FX_CHE_STRUCT*>* arrOrderList = (CArray<FX_CHE_STRUCT*, FX_CHE_STRUCT*>*)p_lData;
; 2432 : 		for(int nIndex = 0; nIndex < arrOrderList->GetSize(); nIndex++)

  0007a	5f		 pop	 edi
$LN9@InvokeAddI:
  0007b	5e		 pop	 esi

; 2488 : 		}		
; 2489 : 	}
; 2490 : 
; 2491 : 	return TRUE;

  0007c	b8 01 00 00 00	 mov	 eax, 1

; 2492 : }

  00081	5b		 pop	 ebx
  00082	8b e5		 mov	 esp, ebp
  00084	5d		 pop	 ebp
  00085	c2 08 00	 ret	 8
$LN14@InvokeAddI:

; 2437 : 		}
; 2438 : 	}
; 2439 : 	else if(p_nCommandType == 2)	// ADD PENDING_ORDER after Seach.... 

  00088	83 f8 02	 cmp	 eax, 2
  0008b	75 3f		 jne	 SHORT $LN16@InvokeAddI

; 2440 : 	{
; 2441 : 		CArray<FX_CHE_STRUCT*, FX_CHE_STRUCT*>* arrOrderList = (CArray<FX_CHE_STRUCT*, FX_CHE_STRUCT*>*)p_lData;
; 2442 : 		for(int nIndex = 0; nIndex < arrOrderList->GetSize(); nIndex++)

  0008d	8b 43 08	 mov	 eax, DWORD PTR [ebx+8]
  00090	33 f6		 xor	 esi, esi
  00092	85 c0		 test	 eax, eax
  00094	7e e5		 jle	 SHORT $LN9@InvokeAddI
$LL7@InvokeAddI:
; File C:\Program Files (x86)\Microsoft Visual Studio\2019\Community\VC\Tools\MSVC\14.29.30133\atlmfc\include\afxtempl.h

; 288  : 	if(nIndex >= 0 && nIndex < m_nSize)

  00096	85 f6		 test	 esi, esi
  00098	0f 88 e1 00 00
	00		 js	 $LN36@InvokeAddI
  0009e	3b f0		 cmp	 esi, eax
  000a0	0f 8d d9 00 00
	00		 jge	 $LN36@InvokeAddI
; File D:\git\src\IBK\IBK_DRFN\ProjSrc\SrcChartEx\ChartAddIn\ChartOutsideCustomAddIn\ChartOutsideCustomAddIn\OrderLineAddinImp.cpp

; 2445 : 			SetPendingPosition(pDataPosition);	

  000a6	8b 43 04	 mov	 eax, DWORD PTR [ebx+4]
  000a9	8d 4a f8	 lea	 ecx, DWORD PTR [edx-8]
  000ac	ff 34 b0	 push	 DWORD PTR [eax+esi*4]
  000af	e8 00 00 00 00	 call	 ?SetPendingPosition@COrderLineAddInImp@@QAEXPAUFX_CHE_STRUCT@@@Z ; COrderLineAddInImp::SetPendingPosition
  000b4	8b 43 08	 mov	 eax, DWORD PTR [ebx+8]
  000b7	46		 inc	 esi
  000b8	8b 55 fc	 mov	 edx, DWORD PTR _this$1$[ebp]
  000bb	3b f0		 cmp	 esi, eax
  000bd	7c d7		 jl	 SHORT $LL7@InvokeAddI

; 2488 : 		}		
; 2489 : 	}
; 2490 : 
; 2491 : 	return TRUE;

  000bf	5e		 pop	 esi
  000c0	b8 01 00 00 00	 mov	 eax, 1

; 2492 : }

  000c5	5b		 pop	 ebx
  000c6	8b e5		 mov	 esp, ebp
  000c8	5d		 pop	 ebp
  000c9	c2 08 00	 ret	 8
$LN16@InvokeAddI:

; 2446 : 		}		
; 2447 : 	}
; 2448 : 	else if(p_nCommandType == 3)	// ADD OPEN_POSITION   

  000cc	83 f8 03	 cmp	 eax, 3
  000cf	75 24		 jne	 SHORT $LN18@InvokeAddI

; 2449 : 	{
; 2450 : 		FX_CHE_STRUCT* pDataPosition = (FX_CHE_STRUCT*)p_lData;
; 2451 : 		if(pDataPosition)

  000d1	85 db		 test	 ebx, ebx
  000d3	74 a6		 je	 SHORT $LN9@InvokeAddI

; 2452 : 		{
; 2453 : 			SetOpenPosition(pDataPosition);

  000d5	8d 72 f8	 lea	 esi, DWORD PTR [edx-8]
  000d8	53		 push	 ebx
  000d9	8b ce		 mov	 ecx, esi
  000db	e8 00 00 00 00	 call	 ?SetOpenPosition@COrderLineAddInImp@@QAEXPAUFX_CHE_STRUCT@@@Z ; COrderLineAddInImp::SetOpenPosition

; 2454 : 			SetCommentData(pDataPosition);

  000e0	53		 push	 ebx
  000e1	8b ce		 mov	 ecx, esi
  000e3	e8 00 00 00 00	 call	 ?SetCommentData@COrderLineAddInImp@@QAEXPAUFX_CHE_STRUCT@@@Z ; COrderLineAddInImp::SetCommentData
  000e8	5e		 pop	 esi

; 2488 : 		}		
; 2489 : 	}
; 2490 : 
; 2491 : 	return TRUE;

  000e9	b8 01 00 00 00	 mov	 eax, 1

; 2492 : }

  000ee	5b		 pop	 ebx
  000ef	8b e5		 mov	 esp, ebp
  000f1	5d		 pop	 ebp
  000f2	c2 08 00	 ret	 8
$LN18@InvokeAddI:

; 2455 : 		}
; 2456 : //		for(int nIndex = LINE_BASE; nIndex <= LINE_LIMIT; nIndex++)
; 2457 : // 		{		
; 2458 : // 			if(CheckTypeAndSet(pDataPosition, nIndex))
; 2459 : // 				AddOpenPosition(pDataPosition, nIndex);	
; 2460 : // 		}
; 2461 : 	}
; 2462 : 	else if(p_nCommandType == 4)	// ADD PENDING_ORDER   

  000f5	83 f8 04	 cmp	 eax, 4
  000f8	75 1e		 jne	 SHORT $LN21@InvokeAddI

; 2463 : 	{
; 2464 : 		FX_CHE_STRUCT* pDataPosition = (FX_CHE_STRUCT*)p_lData;
; 2465 : 		if(pDataPosition)

  000fa	85 db		 test	 ebx, ebx
  000fc	0f 84 79 ff ff
	ff		 je	 $LN9@InvokeAddI

; 2466 : 		{
; 2467 : 			SetPendingPosition(pDataPosition);	

  00102	53		 push	 ebx
  00103	8d 4a f8	 lea	 ecx, DWORD PTR [edx-8]
  00106	e8 00 00 00 00	 call	 ?SetPendingPosition@COrderLineAddInImp@@QAEXPAUFX_CHE_STRUCT@@@Z ; COrderLineAddInImp::SetPendingPosition
  0010b	5e		 pop	 esi

; 2488 : 		}		
; 2489 : 	}
; 2490 : 
; 2491 : 	return TRUE;

  0010c	b8 01 00 00 00	 mov	 eax, 1

; 2492 : }

  00111	5b		 pop	 ebx
  00112	8b e5		 mov	 esp, ebp
  00114	5d		 pop	 ebp
  00115	c2 08 00	 ret	 8
$LN21@InvokeAddI:

; 2468 : 		}
; 2469 : //		for(int nIndex = LINE_BASE; nIndex <= LINE_LIMIT; nIndex++)
; 2470 : //		{
; 2471 : //			if(CheckTypeAndSet(pDataPosition, nIndex))
; 2472 : //				AddPendingPosition(pDataPosition, nIndex);	
; 2473 : //		}
; 2474 : 	}
; 2475 : 	else if(p_nCommandType == 5)	// reset

  00118	83 f8 05	 cmp	 eax, 5
  0011b	75 1e		 jne	 SHORT $LN24@InvokeAddI

; 2476 : 	{
; 2477 : 		SetRemove_OrderLine();

  0011d	8d 72 f8	 lea	 esi, DWORD PTR [edx-8]
  00120	8b ce		 mov	 ecx, esi
  00122	e8 00 00 00 00	 call	 ?SetRemove_OrderLine@COrderLineAddInImp@@IAEXXZ ; COrderLineAddInImp::SetRemove_OrderLine

; 2478 : 		SetRemove_CommentData();

  00127	8b ce		 mov	 ecx, esi
  00129	e8 00 00 00 00	 call	 ?SetRemove_CommentData@COrderLineAddInImp@@QAEXXZ ; COrderLineAddInImp::SetRemove_CommentData
  0012e	5e		 pop	 esi

; 2488 : 		}		
; 2489 : 	}
; 2490 : 
; 2491 : 	return TRUE;

  0012f	b8 01 00 00 00	 mov	 eax, 1

; 2492 : }

  00134	5b		 pop	 ebx
  00135	8b e5		 mov	 esp, ebp
  00137	5d		 pop	 ebp
  00138	c2 08 00	 ret	 8
$LN24@InvokeAddI:

; 2479 : 	}
; 2480 : 	else if(p_nCommandType == 6)	// ADD PENDING_ORDER after Seach.... 

  0013b	83 f8 06	 cmp	 eax, 6
  0013e	0f 85 37 ff ff
	ff		 jne	 $LN9@InvokeAddI

; 2481 : 	{
; 2482 : 		CArray<FX_CHE_STRUCT*, FX_CHE_STRUCT*>* arrOrderList = (CArray<FX_CHE_STRUCT*, FX_CHE_STRUCT*>*)p_lData;
; 2483 : 		for(int nIndex = 0; nIndex < arrOrderList->GetSize(); nIndex++)

  00144	8b 43 08	 mov	 eax, DWORD PTR [ebx+8]
  00147	33 f6		 xor	 esi, esi
  00149	85 c0		 test	 eax, eax
  0014b	0f 8e 2a ff ff
	ff		 jle	 $LN9@InvokeAddI
$LL10@InvokeAddI:
; File C:\Program Files (x86)\Microsoft Visual Studio\2019\Community\VC\Tools\MSVC\14.29.30133\atlmfc\include\afxtempl.h

; 288  : 	if(nIndex >= 0 && nIndex < m_nSize)

  00151	85 f6		 test	 esi, esi
  00153	78 2a		 js	 SHORT $LN36@InvokeAddI
  00155	3b f0		 cmp	 esi, eax
  00157	7d 26		 jge	 SHORT $LN36@InvokeAddI
; File D:\git\src\IBK\IBK_DRFN\ProjSrc\SrcChartEx\ChartAddIn\ChartOutsideCustomAddIn\ChartOutsideCustomAddIn\OrderLineAddinImp.cpp

; 2487 : 				SetCommentData(pDataPosition);

  00159	8b 43 04	 mov	 eax, DWORD PTR [ebx+4]
  0015c	8d 4a f8	 lea	 ecx, DWORD PTR [edx-8]
  0015f	ff 34 b0	 push	 DWORD PTR [eax+esi*4]
  00162	e8 00 00 00 00	 call	 ?SetCommentData@COrderLineAddInImp@@QAEXPAUFX_CHE_STRUCT@@@Z ; COrderLineAddInImp::SetCommentData
  00167	8b 43 08	 mov	 eax, DWORD PTR [ebx+8]
  0016a	46		 inc	 esi
  0016b	8b 55 fc	 mov	 edx, DWORD PTR _this$1$[ebp]
  0016e	3b f0		 cmp	 esi, eax
  00170	7c df		 jl	 SHORT $LL10@InvokeAddI

; 2488 : 		}		
; 2489 : 	}
; 2490 : 
; 2491 : 	return TRUE;

  00172	5e		 pop	 esi
  00173	b8 01 00 00 00	 mov	 eax, 1

; 2492 : }

  00178	5b		 pop	 ebx
  00179	8b e5		 mov	 esp, ebp
  0017b	5d		 pop	 ebp
  0017c	c2 08 00	 ret	 8
$LN36@InvokeAddI:
; File C:\Program Files (x86)\Microsoft Visual Studio\2019\Community\VC\Tools\MSVC\14.29.30133\atlmfc\include\afxtempl.h

; 290  : 	AfxThrowInvalidArgException();

  0017f	e8 00 00 00 00	 call	 ?AfxThrowInvalidArgException@@YGXXZ ; AfxThrowInvalidArgException
$LN50@InvokeAddI:
  00184	cc		 int	 3
?InvokeAddIn@COrderLineAddInImp@@MAEHHJ@Z ENDP		; COrderLineAddInImp::InvokeAddIn
_TEXT	ENDS
; Function compile flags: /Ogtp
; File D:\git\src\IBK\IBK_DRFN\ProjSrc\SrcChartEx\ChartAddIn\ChartOutsideCustomAddIn\ChartOutsideCustomAddIn\OrderLineAddinImp.cpp
;	COMDAT ?OnUpdatePacketData@COrderLineAddInImp@@MAEXH@Z
_TEXT	SEGMENT
_p_bTrUpdate$ = 8					; size = 4
?OnUpdatePacketData@COrderLineAddInImp@@MAEXH@Z PROC	; COrderLineAddInImp::OnUpdatePacketData, COMDAT
; _this$ = ecx

; 1786 : }

  00000	c2 04 00	 ret	 4
?OnUpdatePacketData@COrderLineAddInImp@@MAEXH@Z ENDP	; COrderLineAddInImp::OnUpdatePacketData
_TEXT	ENDS
; Function compile flags: /Ogtp
; File D:\git\src\IBK\IBK_DRFN\ProjSrc\SrcChartEx\ChartAddIn\ChartOutsideCustomAddIn\ChartOutsideCustomAddIn\OrderLineAddinImp.cpp
;	COMDAT ?OnRealData@COrderLineAddInImp@@MAEXPBDN0@Z
_TEXT	SEGMENT
_p_szPacketName$ = 8					; size = 4
_p_dData$ = 12						; size = 8
_p_szRQ$ = 20						; size = 4
?OnRealData@COrderLineAddInImp@@MAEXPBDN0@Z PROC	; COrderLineAddInImp::OnRealData, COMDAT
; _this$ = ecx

; 1790 : 	
; 1791 : }

  00000	c2 10 00	 ret	 16			; 00000010H
?OnRealData@COrderLineAddInImp@@MAEXPBDN0@Z ENDP	; COrderLineAddInImp::OnRealData
_TEXT	ENDS
; Function compile flags: /Ogtp
; File D:\git\src\IBK\IBK_DRFN\ProjSrc\SrcChartEx\ChartAddIn\ChartOutsideCustomAddIn\ChartOutsideCustomAddIn\OrderLineAddinImp.cpp
;	COMDAT ?OnToolCommand@COrderLineAddInImp@@MAEXHH@Z
_TEXT	SEGMENT
_p_nToolType$ = 8					; size = 4
_p_nCmdOption$ = 12					; size = 4
?OnToolCommand@COrderLineAddInImp@@MAEXHH@Z PROC	; COrderLineAddInImp::OnToolCommand, COMDAT
; _this$ = ecx

; 1660 : 	CToolOptionInfo::TOOLOPTION eToolOption = (CToolOptionInfo::TOOLOPTION)p_nToolType;
; 1661 : 
; 1662 : 
; 1663 : //	if( eToolOption == CToolOptionInfo::T_DRAG_X_ZOOM || eToolOption == CToolOptionInfo::T_DRAG_Y_ZOOM )
; 1664 : //		m_bRun = FALSE;
; 1665 : //	else if( eToolOption == CToolOptionInfo::T_TOOL_SELECTION)
; 1666 : //	{
; 1667 : //		m_bRun = FALSE;
; 1668 : //		return;
; 1669 : //	}
; 1670 : //	else
; 1671 : 		return;
; 1672 : 
; 1673 : //	m_pIChartOCX->OnToolStateChanged( CToolOptionInfo::T_DRAG_Y_ZOOM, m_bRun);
; 1674 : 	
; 1675 : }

  00000	c2 08 00	 ret	 8
?OnToolCommand@COrderLineAddInImp@@MAEXHH@Z ENDP	; COrderLineAddInImp::OnToolCommand
_TEXT	ENDS
; Function compile flags: /Ogtp
; File D:\git\src\IBK\IBK_DRFN\ProjSrc\SrcChartEx\ChartAddIn\ChartOutsideCustomAddIn\ChartOutsideCustomAddIn\OrderLineAddinImp.cpp
; File D:\git\src\IBK\IBK_DRFN\ProjSrc\SrcChartEx\ChartAddIn\ChartOutsideCustomAddIn\Include_AddIn\I003531\_IString.h
; File D:\git\src\IBK\IBK_DRFN\ProjSrc\SrcChartEx\ChartAddIn\ChartOutsideCustomAddIn\ChartOutsideCustomAddIn\OrderLineAddinImp.cpp
; File D:\git\src\IBK\IBK_DRFN\ProjSrc\SrcChartEx\ChartAddIn\ChartOutsideCustomAddIn\Include_AddIn\I003531\_IString.h
; File D:\git\src\IBK\IBK_DRFN\ProjSrc\SrcChartEx\ChartAddIn\ChartOutsideCustomAddIn\ChartOutsideCustomAddIn\OrderLineAddinImp.cpp
; File C:\Program Files (x86)\Microsoft Visual Studio\2019\Community\VC\Tools\MSVC\14.29.30133\atlmfc\include\atltypes.h
; File D:\git\src\IBK\IBK_DRFN\ProjSrc\SrcChartEx\ChartAddIn\ChartOutsideCustomAddIn\ChartOutsideCustomAddIn\OrderLineAddinImp.cpp
; File C:\Program Files (x86)\Microsoft Visual Studio\2019\Community\VC\Tools\MSVC\14.29.30133\atlmfc\include\atltypes.h
; File D:\git\src\IBK\IBK_DRFN\ProjSrc\SrcChartEx\ChartAddIn\ChartOutsideCustomAddIn\ChartOutsideCustomAddIn\OrderLineAddinImp.cpp
; File C:\Program Files (x86)\Microsoft Visual Studio\2019\Community\VC\Tools\MSVC\14.29.30133\atlmfc\include\atltypes.h
; File D:\git\src\IBK\IBK_DRFN\ProjSrc\SrcChartEx\ChartAddIn\ChartOutsideCustomAddIn\ChartOutsideCustomAddIn\OrderLineAddinImp.cpp
; File C:\Program Files (x86)\Microsoft Visual Studio\2019\Community\VC\Tools\MSVC\14.29.30133\atlmfc\include\atltypes.h
; File D:\git\src\IBK\IBK_DRFN\ProjSrc\SrcChartEx\ChartAddIn\ChartOutsideCustomAddIn\ChartOutsideCustomAddIn\OrderLineAddinImp.cpp
; File C:\Program Files (x86)\Microsoft Visual Studio\2019\Community\VC\Tools\MSVC\14.29.30133\atlmfc\include\atltypes.h
; File D:\git\src\IBK\IBK_DRFN\ProjSrc\SrcChartEx\ChartAddIn\ChartOutsideCustomAddIn\ChartOutsideCustomAddIn\OrderLineAddinImp.cpp
; File C:\Program Files (x86)\Microsoft Visual Studio\2019\Community\VC\Tools\MSVC\14.29.30133\atlmfc\include\atltypes.h
; File D:\git\src\IBK\IBK_DRFN\ProjSrc\SrcChartEx\ChartAddIn\ChartOutsideCustomAddIn\ChartOutsideCustomAddIn\OrderLineAddinImp.cpp
; File C:\Program Files (x86)\Microsoft Visual Studio\2019\Community\VC\Tools\MSVC\14.29.30133\atlmfc\include\atltypes.h
; File D:\git\src\IBK\IBK_DRFN\ProjSrc\SrcChartEx\ChartAddIn\ChartOutsideCustomAddIn\ChartOutsideCustomAddIn\OrderLineAddinImp.cpp
; File C:\Program Files (x86)\Microsoft Visual Studio\2019\Community\VC\Tools\MSVC\14.29.30133\atlmfc\include\atltypes.h
; File D:\git\src\IBK\IBK_DRFN\ProjSrc\SrcChartEx\ChartAddIn\ChartOutsideCustomAddIn\ChartOutsideCustomAddIn\OrderLineAddinImp.cpp
; File C:\Program Files (x86)\Microsoft Visual Studio\2019\Community\VC\Tools\MSVC\14.29.30133\atlmfc\include\atltypes.h
; File D:\git\src\IBK\IBK_DRFN\ProjSrc\SrcChartEx\ChartAddIn\ChartOutsideCustomAddIn\ChartOutsideCustomAddIn\OrderLineAddinImp.cpp
; File C:\Program Files (x86)\Microsoft Visual Studio\2019\Community\VC\Tools\MSVC\14.29.30133\atlmfc\include\atltypes.h
; File D:\git\src\IBK\IBK_DRFN\ProjSrc\SrcChartEx\ChartAddIn\ChartOutsideCustomAddIn\ChartOutsideCustomAddIn\OrderLineAddinImp.cpp
; File C:\Program Files (x86)\Microsoft Visual Studio\2019\Community\VC\Tools\MSVC\14.29.30133\atlmfc\include\atltypes.h
; File D:\git\src\IBK\IBK_DRFN\ProjSrc\SrcChartEx\ChartAddIn\ChartOutsideCustomAddIn\ChartOutsideCustomAddIn\OrderLineAddinImp.cpp
; File C:\Program Files (x86)\Microsoft Visual Studio\2019\Community\VC\Tools\MSVC\14.29.30133\atlmfc\include\atltypes.h
; File D:\git\src\IBK\IBK_DRFN\ProjSrc\SrcChartEx\ChartAddIn\ChartOutsideCustomAddIn\ChartOutsideCustomAddIn\OrderLineAddinImp.cpp
; File C:\Program Files (x86)\Microsoft Visual Studio\2019\Community\VC\Tools\MSVC\14.29.30133\atlmfc\include\atltypes.h
; File D:\git\src\IBK\IBK_DRFN\ProjSrc\SrcChartEx\ChartAddIn\ChartOutsideCustomAddIn\ChartOutsideCustomAddIn\OrderLineAddinImp.cpp
; File C:\Program Files (x86)\Microsoft Visual Studio\2019\Community\VC\Tools\MSVC\14.29.30133\atlmfc\include\atltypes.h
; File D:\git\src\IBK\IBK_DRFN\ProjSrc\SrcChartEx\ChartAddIn\ChartOutsideCustomAddIn\ChartOutsideCustomAddIn\OrderLineAddinImp.cpp
; File C:\Program Files (x86)\Microsoft Visual Studio\2019\Community\VC\Tools\MSVC\14.29.30133\atlmfc\include\atltypes.h
; File D:\git\src\IBK\IBK_DRFN\ProjSrc\SrcChartEx\ChartAddIn\ChartOutsideCustomAddIn\ChartOutsideCustomAddIn\OrderLineAddinImp.cpp
; File C:\Program Files (x86)\Microsoft Visual Studio\2019\Community\VC\Tools\MSVC\14.29.30133\atlmfc\include\atltypes.h
; File D:\git\src\IBK\IBK_DRFN\ProjSrc\SrcChartEx\ChartAddIn\ChartOutsideCustomAddIn\ChartOutsideCustomAddIn\OrderLineAddinImp.cpp
; File C:\Program Files (x86)\Microsoft Visual Studio\2019\Community\VC\Tools\MSVC\14.29.30133\atlmfc\include\atltypes.h
; File D:\git\src\IBK\IBK_DRFN\ProjSrc\SrcChartEx\ChartAddIn\ChartOutsideCustomAddIn\ChartOutsideCustomAddIn\OrderLineAddinImp.cpp
; File C:\Program Files (x86)\Microsoft Visual Studio\2019\Community\VC\Tools\MSVC\14.29.30133\atlmfc\include\atltypes.h
; File D:\git\src\IBK\IBK_DRFN\ProjSrc\SrcChartEx\ChartAddIn\ChartOutsideCustomAddIn\ChartOutsideCustomAddIn\OrderLineAddinImp.cpp
; File C:\Program Files (x86)\Microsoft Visual Studio\2019\Community\VC\Tools\MSVC\14.29.30133\atlmfc\include\atltypes.h
; File D:\git\src\IBK\IBK_DRFN\ProjSrc\SrcChartEx\ChartAddIn\ChartOutsideCustomAddIn\ChartOutsideCustomAddIn\OrderLineAddinImp.cpp
; File C:\Program Files (x86)\Microsoft Visual Studio\2019\Community\VC\Tools\MSVC\14.29.30133\atlmfc\include\atltypes.h
; File D:\git\src\IBK\IBK_DRFN\ProjSrc\SrcChartEx\ChartAddIn\ChartOutsideCustomAddIn\ChartOutsideCustomAddIn\OrderLineAddinImp.cpp
; File C:\Program Files (x86)\Microsoft Visual Studio\2019\Community\VC\Tools\MSVC\14.29.30133\atlmfc\include\atltypes.h
; File D:\git\src\IBK\IBK_DRFN\ProjSrc\SrcChartEx\ChartAddIn\ChartOutsideCustomAddIn\ChartOutsideCustomAddIn\OrderLineAddinImp.cpp
; File C:\Program Files (x86)\Microsoft Visual Studio\2019\Community\VC\Tools\MSVC\14.29.30133\atlmfc\include\atltypes.h
; File D:\git\src\IBK\IBK_DRFN\ProjSrc\SrcChartEx\ChartAddIn\ChartOutsideCustomAddIn\ChartOutsideCustomAddIn\OrderLineAddinImp.cpp
; File C:\Program Files (x86)\Microsoft Visual Studio\2019\Community\VC\Tools\MSVC\14.29.30133\atlmfc\include\atltypes.h
; File D:\git\src\IBK\IBK_DRFN\ProjSrc\SrcChartEx\ChartAddIn\ChartOutsideCustomAddIn\ChartOutsideCustomAddIn\OrderLineAddinImp.cpp
; File C:\Program Files (x86)\Microsoft Visual Studio\2019\Community\VC\Tools\MSVC\14.29.30133\atlmfc\include\atltypes.h
; File D:\git\src\IBK\IBK_DRFN\ProjSrc\SrcChartEx\ChartAddIn\ChartOutsideCustomAddIn\ChartOutsideCustomAddIn\OrderLineAddinImp.cpp
; File C:\Program Files (x86)\Microsoft Visual Studio\2019\Community\VC\Tools\MSVC\14.29.30133\atlmfc\include\atltypes.h
; File D:\git\src\IBK\IBK_DRFN\ProjSrc\SrcChartEx\ChartAddIn\ChartOutsideCustomAddIn\ChartOutsideCustomAddIn\OrderLineAddinImp.cpp
; File C:\Program Files (x86)\Microsoft Visual Studio\2019\Community\VC\Tools\MSVC\14.29.30133\atlmfc\include\afxwin1.inl
; File D:\git\src\IBK\IBK_DRFN\ProjSrc\SrcChartEx\ChartAddIn\ChartOutsideCustomAddIn\ChartOutsideCustomAddIn\OrderLineAddinImp.cpp
; File C:\Program Files (x86)\Microsoft Visual Studio\2019\Community\VC\Tools\MSVC\14.29.30133\atlmfc\include\afxwin1.inl
; File D:\git\src\IBK\IBK_DRFN\ProjSrc\SrcChartEx\ChartAddIn\ChartOutsideCustomAddIn\ChartOutsideCustomAddIn\OrderLineAddinImp.cpp
; File C:\Program Files (x86)\Microsoft Visual Studio\2019\Community\VC\Tools\MSVC\14.29.30133\atlmfc\include\atltypes.h
; File C:\Program Files (x86)\Microsoft Visual Studio\2019\Community\VC\Tools\MSVC\14.29.30133\atlmfc\include\afxwin1.inl
; File D:\git\src\IBK\IBK_DRFN\ProjSrc\SrcChartEx\ChartAddIn\ChartOutsideCustomAddIn\ChartOutsideCustomAddIn\OrderLineAddinImp.cpp
; File C:\Program Files (x86)\Microsoft Visual Studio\2019\Community\VC\Tools\MSVC\14.29.30133\atlmfc\include\atltypes.h
; File D:\git\src\IBK\IBK_DRFN\ProjSrc\SrcChartEx\ChartAddIn\ChartOutsideCustomAddIn\ChartOutsideCustomAddIn\OrderLineAddinImp.cpp
; File C:\Program Files (x86)\Microsoft Visual Studio\2019\Community\VC\Tools\MSVC\14.29.30133\atlmfc\include\atltypes.h
; File C:\Program Files (x86)\Microsoft Visual Studio\2019\Community\VC\Tools\MSVC\14.29.30133\atlmfc\include\afxwin2.inl
; File D:\git\src\IBK\IBK_DRFN\ProjSrc\SrcChartEx\ChartAddIn\ChartOutsideCustomAddIn\ChartOutsideCustomAddIn\OrderLineAddinImp.cpp
; File C:\Program Files (x86)\Microsoft Visual Studio\2019\Community\VC\Tools\MSVC\14.29.30133\atlmfc\include\atlsimpstr.h
; File D:\git\src\IBK\IBK_DRFN\ProjSrc\SrcChartEx\ChartAddIn\ChartOutsideCustomAddIn\ChartOutsideCustomAddIn\OrderLineAddinImp.cpp
; File C:\Program Files (x86)\Microsoft Visual Studio\2019\Community\VC\Tools\MSVC\14.29.30133\atlmfc\include\atlsimpstr.h
; File D:\git\src\IBK\IBK_DRFN\ProjSrc\SrcChartEx\ChartAddIn\ChartOutsideCustomAddIn\ChartOutsideCustomAddIn\OrderLineAddinImp.cpp
; File C:\Program Files (x86)\Microsoft Visual Studio\2019\Community\VC\Tools\MSVC\14.29.30133\atlmfc\include\atlsimpstr.h
; File D:\git\src\IBK\IBK_DRFN\ProjSrc\SrcChartEx\ChartAddIn\ChartOutsideCustomAddIn\ChartOutsideCustomAddIn\OrderLineAddinImp.cpp
; File C:\Program Files (x86)\Microsoft Visual Studio\2019\Community\VC\Tools\MSVC\14.29.30133\atlmfc\include\atlsimpstr.h
; File D:\git\src\IBK\IBK_DRFN\ProjSrc\SrcChartEx\ChartAddIn\ChartOutsideCustomAddIn\ChartOutsideCustomAddIn\OrderLineAddinImp.cpp
; File C:\Program Files (x86)\Microsoft Visual Studio\2019\Community\VC\Tools\MSVC\14.29.30133\atlmfc\include\atlsimpstr.h
; File D:\git\src\IBK\IBK_DRFN\ProjSrc\SrcChartEx\ChartAddIn\ChartOutsideCustomAddIn\ChartOutsideCustomAddIn\OrderLineAddinImp.cpp
; File C:\Program Files (x86)\Microsoft Visual Studio\2019\Community\VC\Tools\MSVC\14.29.30133\atlmfc\include\atlsimpstr.h
; File D:\git\src\IBK\IBK_DRFN\ProjSrc\SrcChartEx\ChartAddIn\ChartOutsideCustomAddIn\ChartOutsideCustomAddIn\OrderLineAddinImp.cpp
; File C:\Program Files (x86)\Microsoft Visual Studio\2019\Community\VC\Tools\MSVC\14.29.30133\atlmfc\include\atlsimpstr.h
; File D:\git\src\IBK\IBK_DRFN\ProjSrc\SrcChartEx\ChartAddIn\ChartOutsideCustomAddIn\ChartOutsideCustomAddIn\OrderLineAddinImp.cpp
; File C:\Program Files (x86)\Microsoft Visual Studio\2019\Community\VC\Tools\MSVC\14.29.30133\atlmfc\include\afxwin1.inl
; File D:\git\src\IBK\IBK_DRFN\ProjSrc\SrcChartEx\ChartAddIn\ChartOutsideCustomAddIn\ChartOutsideCustomAddIn\OrderLineAddinImp.cpp
; File C:\Program Files (x86)\Microsoft Visual Studio\2019\Community\VC\Tools\MSVC\14.29.30133\atlmfc\include\afxwin1.inl
; File C:\Program Files (x86)\Microsoft Visual Studio\2019\Community\VC\Tools\MSVC\14.29.30133\atlmfc\include\atltypes.h
; File D:\git\src\IBK\IBK_DRFN\ProjSrc\SrcChartEx\ChartAddIn\ChartOutsideCustomAddIn\ChartOutsideCustomAddIn\OrderLineAddinImp.cpp
; File C:\Program Files (x86)\Microsoft Visual Studio\2019\Community\VC\Tools\MSVC\14.29.30133\atlmfc\include\atltypes.h
; File C:\Program Files (x86)\Microsoft Visual Studio\2019\Community\VC\Tools\MSVC\14.29.30133\atlmfc\include\afxwin2.inl
; File D:\git\src\IBK\IBK_DRFN\ProjSrc\SrcChartEx\ChartAddIn\ChartOutsideCustomAddIn\ChartOutsideCustomAddIn\OrderLineAddinImp.cpp
; File D:\git\src\IBK\IBK_DRFN\ProjSrc\SrcChartEx\ChartAddIn\ChartOutsideCustomAddIn\Include_AddIn\I003531\_IString.h
; File D:\git\src\IBK\IBK_DRFN\ProjSrc\SrcChartEx\ChartAddIn\ChartOutsideCustomAddIn\ChartOutsideCustomAddIn\OrderLineAddinImp.cpp
; File C:\Program Files (x86)\Microsoft Visual Studio\2019\Community\VC\Tools\MSVC\14.29.30133\atlmfc\include\atlsimpstr.h
; File D:\git\src\IBK\IBK_DRFN\ProjSrc\SrcChartEx\ChartAddIn\ChartOutsideCustomAddIn\ChartOutsideCustomAddIn\OrderLineAddinImp.cpp
; File C:\Program Files (x86)\Microsoft Visual Studio\2019\Community\VC\Tools\MSVC\14.29.30133\atlmfc\include\atlsimpstr.h
; File D:\git\src\IBK\IBK_DRFN\ProjSrc\SrcChartEx\ChartAddIn\ChartOutsideCustomAddIn\ChartOutsideCustomAddIn\OrderLineAddinImp.cpp
; File C:\Program Files (x86)\Microsoft Visual Studio\2019\Community\VC\Tools\MSVC\14.29.30133\atlmfc\include\atlsimpstr.h
; File D:\git\src\IBK\IBK_DRFN\ProjSrc\SrcChartEx\ChartAddIn\ChartOutsideCustomAddIn\ChartOutsideCustomAddIn\OrderLineAddinImp.cpp
; File C:\Program Files (x86)\Microsoft Visual Studio\2019\Community\VC\Tools\MSVC\14.29.30133\atlmfc\include\atlsimpstr.h
; File D:\git\src\IBK\IBK_DRFN\ProjSrc\SrcChartEx\ChartAddIn\ChartOutsideCustomAddIn\ChartOutsideCustomAddIn\OrderLineAddinImp.cpp
; File C:\Program Files (x86)\Microsoft Visual Studio\2019\Community\VC\Tools\MSVC\14.29.30133\atlmfc\include\afxwin1.inl
; File D:\git\src\IBK\IBK_DRFN\ProjSrc\SrcChartEx\ChartAddIn\ChartOutsideCustomAddIn\ChartOutsideCustomAddIn\OrderLineAddinImp.cpp
; File C:\Program Files (x86)\Microsoft Visual Studio\2019\Community\VC\Tools\MSVC\14.29.30133\atlmfc\include\afxwin1.inl
; File D:\git\src\IBK\IBK_DRFN\ProjSrc\SrcChartEx\ChartAddIn\ChartOutsideCustomAddIn\ChartOutsideCustomAddIn\OrderLineAddinImp.cpp
; File D:\git\src\IBK\IBK_DRFN\ProjSrc\SrcChartEx\ChartAddIn\ChartOutsideCustomAddIn\Include_AddIn\I003531\_IString.h
; File D:\git\src\IBK\IBK_DRFN\ProjSrc\SrcChartEx\ChartAddIn\ChartOutsideCustomAddIn\ChartOutsideCustomAddIn\OrderLineAddinImp.cpp
; File C:\Program Files (x86)\Microsoft Visual Studio\2019\Community\VC\Tools\MSVC\14.29.30133\atlmfc\include\atlsimpstr.h
; File D:\git\src\IBK\IBK_DRFN\ProjSrc\SrcChartEx\ChartAddIn\ChartOutsideCustomAddIn\ChartOutsideCustomAddIn\OrderLineAddinImp.cpp
; File C:\Program Files (x86)\Microsoft Visual Studio\2019\Community\VC\Tools\MSVC\14.29.30133\atlmfc\include\atlsimpstr.h
; File D:\git\src\IBK\IBK_DRFN\ProjSrc\SrcChartEx\ChartAddIn\ChartOutsideCustomAddIn\ChartOutsideCustomAddIn\OrderLineAddinImp.cpp
; File C:\Program Files (x86)\Microsoft Visual Studio\2019\Community\VC\Tools\MSVC\14.29.30133\atlmfc\include\atlsimpstr.h
; File D:\git\src\IBK\IBK_DRFN\ProjSrc\SrcChartEx\ChartAddIn\ChartOutsideCustomAddIn\ChartOutsideCustomAddIn\OrderLineAddinImp.cpp
; File C:\Program Files (x86)\Microsoft Visual Studio\2019\Community\VC\Tools\MSVC\14.29.30133\atlmfc\include\atlsimpstr.h
; File D:\git\src\IBK\IBK_DRFN\ProjSrc\SrcChartEx\ChartAddIn\ChartOutsideCustomAddIn\ChartOutsideCustomAddIn\OrderLineAddinImp.cpp
; File C:\Program Files (x86)\Microsoft Visual Studio\2019\Community\VC\Tools\MSVC\14.29.30133\atlmfc\include\afxwin1.inl
; File D:\git\src\IBK\IBK_DRFN\ProjSrc\SrcChartEx\ChartAddIn\ChartOutsideCustomAddIn\Include_AddIn\I003531\_IString.h
; File D:\git\src\IBK\IBK_DRFN\ProjSrc\SrcChartEx\ChartAddIn\ChartOutsideCustomAddIn\ChartOutsideCustomAddIn\OrderLineAddinImp.cpp
;	COMDAT ?OnRButtonUp@COrderLineAddInImp@@MAEHPAUHDC__@@IAAUtagPOINT@@K@Z
_TEXT	SEGMENT
_eMinMaxType$ = -128					; size = 4
_nG$ = -124						; size = 4
_szGraphName$ = -120					; size = 8
_nR$ = -112						; size = 4
_nC$ = -108						; size = 4
_ptPop$2 = -104						; size = 8
_nV$ = -96						; size = 4
_szIStr$3 = -92						; size = 8
_szIStr$4 = -92						; size = 8
$T5 = -84						; size = 4
$T6 = -84						; size = 4
$T7 = -84						; size = 4
$T8 = -84						; size = 4
_ptPop$9 = -80						; size = 8
_menu$10 = -80						; size = 8
_menu$11 = -72						; size = 8
_dYValue$ = -72						; size = 8
$T12 = -68						; size = 4
$T13 = -68						; size = 4
$T14 = -68						; size = 4
_strType$15 = -64					; size = 4
_strType$16 = -64					; size = 4
$T17 = -60						; size = 4
_pIBlock$1$ = -60					; size = 4
$T18 = -60						; size = 4
$T19 = -60						; size = 4
$T20 = -60						; size = 4
$T21 = -60						; size = 4
$T22 = -60						; size = 4
$T23 = -60						; size = 4
$T24 = -60						; size = 4
_strFormat$25 = -60					; size = 4
_strValue$26 = -60					; size = 4
$T27 = -56						; size = 4
_point$GSCopy$1$ = -56					; size = 4
_strValue$28 = -56					; size = 4
_strFormat$29 = -56					; size = 4
$T30 = -52						; size = 4
$T31 = -52						; size = 4
$T32 = -52						; size = 4
$T33 = -52						; size = 4
$T34 = -52						; size = 4
$T35 = -52						; size = 4
$T36 = -52						; size = 4
$T37 = -52						; size = 4
$T38 = -52						; size = 4
$T39 = -52						; size = 4
_rctNoFrameAndMargin$ = -48				; size = 16
$T40 = -32						; size = 16
_dEntry$41 = -24					; size = 8
_dEntry$42 = -24					; size = 8
__$ArrayPad$ = -16					; size = 4
__$EHRec$ = -12						; size = 12
_p_hDC$ = 8						; size = 4
_nFlags$ = 12						; size = 4
_point$ = 16						; size = 4
_p_dwMouseActionID$ = 20				; size = 4
?OnRButtonUp@COrderLineAddInImp@@MAEHPAUHDC__@@IAAUtagPOINT@@K@Z PROC ; COrderLineAddInImp::OnRButtonUp, COMDAT
; _this$ = ecx

; 1338 : {

  00000	55		 push	 ebp
  00001	8b ec		 mov	 ebp, esp
  00003	6a ff		 push	 -1
  00005	68 00 00 00 00	 push	 __ehhandler$?OnRButtonUp@COrderLineAddInImp@@MAEHPAUHDC__@@IAAUtagPOINT@@K@Z
  0000a	64 a1 00 00 00
	00		 mov	 eax, DWORD PTR fs:0
  00010	50		 push	 eax
  00011	83 ec 74	 sub	 esp, 116		; 00000074H
  00014	a1 00 00 00 00	 mov	 eax, DWORD PTR ___security_cookie
  00019	33 c5		 xor	 eax, ebp
  0001b	89 45 f0	 mov	 DWORD PTR __$ArrayPad$[ebp], eax
  0001e	53		 push	 ebx
  0001f	56		 push	 esi
  00020	57		 push	 edi
  00021	50		 push	 eax
  00022	8d 45 f4	 lea	 eax, DWORD PTR __$EHRec$[ebp]
  00025	64 a3 00 00 00
	00		 mov	 DWORD PTR fs:0, eax
  0002b	8b d9		 mov	 ebx, ecx

; 1339 : //	m_bRun = !m_bRun;
; 1340 : //	m_pIChartOCX->RunToolCommand( CToolOptionInfo::T_TOOL_SELECTION, 1);
; 1341 : 
; 1342 : //	m_pIChartOCX->OnOrderInfomationChanged(0.0, 0, 0, "");
; 1343 : 
; 1344 : 	// 1.       .
; 1345 : 	if(!m_bRun)		return FALSE;

  0002d	83 bb 98 00 00
	00 00		 cmp	 DWORD PTR [ebx+152], 0
  00034	8b 45 10	 mov	 eax, DWORD PTR _point$[ebp]
  00037	89 45 c8	 mov	 DWORD PTR _point$GSCopy$1$[ebp], eax
  0003a	0f 84 09 0b 00
	00		 je	 $LN8@OnRButtonU

; 1346 : 
; 1347 : 	// 2. Check Empty Chart!
; 1348 : 	if( !m_pIChartOCX->IsUseToolScrollBar() || m_pIChartOCX->IsOnSpecialChart() || m_pIChartManager->IsEmpty())

  00040	8b 4b 04	 mov	 ecx, DWORD PTR [ebx+4]
  00043	8b 01		 mov	 eax, DWORD PTR [ecx]
  00045	ff 90 b0 00 00
	00		 call	 DWORD PTR [eax+176]
  0004b	85 c0		 test	 eax, eax
  0004d	0f 84 f6 0a 00
	00		 je	 $LN8@OnRButtonU
  00053	8b 4b 04	 mov	 ecx, DWORD PTR [ebx+4]
  00056	8b 01		 mov	 eax, DWORD PTR [ecx]
  00058	ff 90 84 00 00
	00		 call	 DWORD PTR [eax+132]
  0005e	85 c0		 test	 eax, eax
  00060	0f 85 e3 0a 00
	00		 jne	 $LN8@OnRButtonU
  00066	8b 4b 1c	 mov	 ecx, DWORD PTR [ebx+28]
  00069	8b 01		 mov	 eax, DWORD PTR [ecx]
  0006b	ff 50 2c	 call	 DWORD PTR [eax+44]
  0006e	85 c0		 test	 eax, eax
  00070	0f 85 d3 0a 00
	00		 jne	 $LN8@OnRButtonU

; 1353 : 	ILPCSTR szGraphName = m_pIChartManager->FindFirstIndicator( _MTEXT( C2_PRICE_CHART), nR, nC, nV, nG, "DEFAULT");

  00076	8b 4b 1c	 mov	 ecx, DWORD PTR [ebx+28]
  00079	8d 45 84	 lea	 eax, DWORD PTR _nG$[ebp]
  0007c	68 00 00 00 00	 push	 OFFSET ??_C@_07MGCPDNLD@DEFAULT@
  00081	50		 push	 eax
  00082	8d 45 a0	 lea	 eax, DWORD PTR _nV$[ebp]
  00085	8b 11		 mov	 edx, DWORD PTR [ecx]
  00087	50		 push	 eax
  00088	8d 45 94	 lea	 eax, DWORD PTR _nC$[ebp]
  0008b	50		 push	 eax
  0008c	8d 45 90	 lea	 eax, DWORD PTR _nR$[ebp]
  0008f	50		 push	 eax
  00090	a1 54 00 00 00	 mov	 eax, DWORD PTR ?g_iMetaTable@@3VIMetaTable@@A+84
  00095	ff b0 28 03 00
	00		 push	 DWORD PTR [eax+808]
  0009b	ff 52 70	 call	 DWORD PTR [edx+112]
; File D:\git\src\IBK\IBK_DRFN\ProjSrc\SrcChartEx\ChartAddIn\ChartOutsideCustomAddIn\Include_AddIn\I003531\_IString.h

; 39   : 		m_pIStrData = p_pIString;	// Do not AddRef(). Because It must be Return Value.

  0009e	89 45 8c	 mov	 DWORD PTR _szGraphName$[ebp+4], eax

; 40   : 		if( m_pIStrData) m_szData = m_pIStrData->GetData();

  000a1	85 c0		 test	 eax, eax
  000a3	74 09		 je	 SHORT $LN106@OnRButtonU
  000a5	8b 10		 mov	 edx, DWORD PTR [eax]
  000a7	8b c8		 mov	 ecx, eax
  000a9	ff 52 10	 call	 DWORD PTR [edx+16]
  000ac	eb 02		 jmp	 SHORT $LN289@OnRButtonU
$LN106@OnRButtonU:

; 41   : 		else m_szData = NULL;

  000ae	33 c0		 xor	 eax, eax
$LN289@OnRButtonU:
; File D:\git\src\IBK\IBK_DRFN\ProjSrc\SrcChartEx\ChartAddIn\ChartOutsideCustomAddIn\ChartOutsideCustomAddIn\OrderLineAddinImp.cpp

; 1353 : 	ILPCSTR szGraphName = m_pIChartManager->FindFirstIndicator( _MTEXT( C2_PRICE_CHART), nR, nC, nV, nG, "DEFAULT");

  000b0	89 45 88	 mov	 DWORD PTR _szGraphName$[ebp], eax
  000b3	c7 45 fc 00 00
	00 00		 mov	 DWORD PTR __$EHRec$[ebp+8], 0
; File D:\git\src\IBK\IBK_DRFN\ProjSrc\SrcChartEx\ChartAddIn\ChartOutsideCustomAddIn\Include_AddIn\I003531\_IString.h

; 57   : 		if( !m_szData) return TRUE;

  000ba	85 c0		 test	 eax, eax
  000bc	0f 84 6d 0a 00
	00		 je	 $LN14@OnRButtonU
; File D:\git\src\IBK\IBK_DRFN\ProjSrc\SrcChartEx\ChartAddIn\ChartOutsideCustomAddIn\ChartOutsideCustomAddIn\OrderLineAddinImp.cpp

; 1354 : 	if( szGraphName.IsEmpty()) return FALSE;

  000c2	80 38 00	 cmp	 BYTE PTR [eax], 0
  000c5	0f 84 64 0a 00
	00		 je	 $LN14@OnRButtonU

; 1355 : 
; 1356 : 	// 4. Block  .
; 1357 : 	IBlock *pIBlock = NULL;
; 1358 : 	pIBlock = m_pIChartManager->GetBlock( nR, nC );

  000cb	8b 4b 1c	 mov	 ecx, DWORD PTR [ebx+28]
  000ce	ff 75 94	 push	 DWORD PTR _nC$[ebp]
  000d1	ff 75 90	 push	 DWORD PTR _nR$[ebp]
  000d4	8b 01		 mov	 eax, DWORD PTR [ecx]
  000d6	ff 50 38	 call	 DWORD PTR [eax+56]
  000d9	8b f8		 mov	 edi, eax
  000db	89 7d c4	 mov	 DWORD PTR _pIBlock$1$[ebp], edi

; 1359 : 	if( !pIBlock )

  000de	85 ff		 test	 edi, edi
  000e0	0f 84 49 0a 00
	00		 je	 $LN14@OnRButtonU

; 1364 : 	pIBlock->GetGraphRegions(m_rctGraphRegion, rctNoFrameAndMargin);

  000e6	0f 57 c0	 xorps	 xmm0, xmm0
  000e9	8d 45 d0	 lea	 eax, DWORD PTR _rctNoFrameAndMargin$[ebp]
; File C:\Program Files (x86)\Microsoft Visual Studio\2019\Community\VC\Tools\MSVC\14.29.30133\atlmfc\include\atltypes.h

; 528  : 	left = 0;

  000ec	0f 11 45 d0	 movups	 XMMWORD PTR _rctNoFrameAndMargin$[ebp], xmm0
; File D:\git\src\IBK\IBK_DRFN\ProjSrc\SrcChartEx\ChartAddIn\ChartOutsideCustomAddIn\ChartOutsideCustomAddIn\OrderLineAddinImp.cpp

; 1364 : 	pIBlock->GetGraphRegions(m_rctGraphRegion, rctNoFrameAndMargin);

  000f0	8b 17		 mov	 edx, DWORD PTR [edi]
  000f2	8d b3 ac 00 00
	00		 lea	 esi, DWORD PTR [ebx+172]
  000f8	50		 push	 eax
  000f9	56		 push	 esi
  000fa	8b cf		 mov	 ecx, edi
  000fc	ff 52 10	 call	 DWORD PTR [edx+16]
; File C:\Program Files (x86)\Microsoft Visual Studio\2019\Community\VC\Tools\MSVC\14.29.30133\atlmfc\include\atltypes.h

; 638  : 	return ::IsRectEmpty(this);

  000ff	56		 push	 esi
  00100	ff 15 00 00 00
	00		 call	 DWORD PTR __imp__IsRectEmpty@4
; File D:\git\src\IBK\IBK_DRFN\ProjSrc\SrcChartEx\ChartAddIn\ChartOutsideCustomAddIn\ChartOutsideCustomAddIn\OrderLineAddinImp.cpp

; 1365 : 	if( m_rctGraphRegion.IsRectEmpty() )

  00106	85 c0		 test	 eax, eax
  00108	0f 85 21 0a 00
	00		 jne	 $LN14@OnRButtonU

; 1369 : 	m_rctGraphDrawingRegion = pIBlock->GetGraphDrwingRegion();

  0010e	8b 07		 mov	 eax, DWORD PTR [edi]
  00110	8d 4d e0	 lea	 ecx, DWORD PTR $T40[ebp]
  00113	6a 00		 push	 0
  00115	51		 push	 ecx
  00116	8b cf		 mov	 ecx, edi
  00118	ff 50 1c	 call	 DWORD PTR [eax+28]
; File C:\Program Files (x86)\Microsoft Visual Studio\2019\Community\VC\Tools\MSVC\14.29.30133\atlmfc\include\atltypes.h

; 765  : 	::CopyRect(this, &srcRect);

  0011b	50		 push	 eax
; File D:\git\src\IBK\IBK_DRFN\ProjSrc\SrcChartEx\ChartAddIn\ChartOutsideCustomAddIn\ChartOutsideCustomAddIn\OrderLineAddinImp.cpp

; 1369 : 	m_rctGraphDrawingRegion = pIBlock->GetGraphDrwingRegion();

  0011c	8d b3 bc 00 00
	00		 lea	 esi, DWORD PTR [ebx+188]
; File C:\Program Files (x86)\Microsoft Visual Studio\2019\Community\VC\Tools\MSVC\14.29.30133\atlmfc\include\atltypes.h

; 765  : 	::CopyRect(this, &srcRect);

  00122	56		 push	 esi
  00123	ff 15 00 00 00
	00		 call	 DWORD PTR __imp__CopyRect@8

; 638  : 	return ::IsRectEmpty(this);

  00129	56		 push	 esi
  0012a	ff 15 00 00 00
	00		 call	 DWORD PTR __imp__IsRectEmpty@4
; File D:\git\src\IBK\IBK_DRFN\ProjSrc\SrcChartEx\ChartAddIn\ChartOutsideCustomAddIn\ChartOutsideCustomAddIn\OrderLineAddinImp.cpp

; 1370 : 	if( m_rctGraphDrawingRegion.IsRectEmpty() )

  00130	85 c0		 test	 eax, eax
  00132	0f 85 f7 09 00
	00		 jne	 $LN14@OnRButtonU

; 1371 : 		return FALSE;
; 1372 : 
; 1373 : 	// 7.  Block Log/  .
; 1374 : 	m_bLog = pIBlock->IsLogScale();

  00138	8b 07		 mov	 eax, DWORD PTR [edi]
  0013a	8b cf		 mov	 ecx, edi
  0013c	ff 50 24	 call	 DWORD PTR [eax+36]

; 1375 : 	m_bReverse = pIBlock->IsVScaleInvert( nV);

  0013f	ff 75 a0	 push	 DWORD PTR _nV$[ebp]
  00142	89 83 90 00 00
	00		 mov	 DWORD PTR [ebx+144], eax
  00148	8b cf		 mov	 ecx, edi
  0014a	8b 07		 mov	 eax, DWORD PTR [edi]
  0014c	ff 50 58	 call	 DWORD PTR [eax+88]

; 1376 : 	
; 1377 : 
; 1378 : 	CScaleBaseData::VERTMINMAXTYPE eMinMaxType;
; 1379 : 	pIBlock->GetVScaleMinMaxSetting( nV, m_bIsLock, eMinMaxType, m_dViewMin, m_dViewMax);	

  0014f	8b 4d c4	 mov	 ecx, DWORD PTR _pIBlock$1$[ebp]
  00152	8d bb f8 00 00
	00		 lea	 edi, DWORD PTR [ebx+248]
  00158	57		 push	 edi
  00159	89 83 94 00 00
	00		 mov	 DWORD PTR [ebx+148], eax
  0015f	8d b3 f0 00 00
	00		 lea	 esi, DWORD PTR [ebx+240]
  00165	56		 push	 esi
  00166	8b 11		 mov	 edx, DWORD PTR [ecx]
  00168	8d 45 80	 lea	 eax, DWORD PTR _eMinMaxType$[ebp]
  0016b	50		 push	 eax
  0016c	8d 83 a0 00 00
	00		 lea	 eax, DWORD PTR [ebx+160]
  00172	50		 push	 eax
  00173	ff 75 a0	 push	 DWORD PTR _nV$[ebp]
  00176	ff 52 50	 call	 DWORD PTR [edx+80]

; 1380 : 	
; 1381 : 	
; 1382 : 	double dYValue;
; 1383 : 	dYValue = m_pIChartOCX->ConvertYPositionToData( point.y, m_rctGraphDrawingRegion.top, m_rctGraphDrawingRegion.bottom, m_dViewMax, m_dViewMin, m_bLog, m_bReverse);

  00179	ff b3 94 00 00
	00		 push	 DWORD PTR [ebx+148]
  0017f	f2 0f 10 06	 movsd	 xmm0, QWORD PTR [esi]
  00183	ff b3 90 00 00
	00		 push	 DWORD PTR [ebx+144]
  00189	8b 4b 04	 mov	 ecx, DWORD PTR [ebx+4]
  0018c	83 ec 10	 sub	 esp, 16			; 00000010H
  0018f	8b 01		 mov	 eax, DWORD PTR [ecx]
  00191	f2 0f 11 44 24
	08		 movsd	 QWORD PTR [esp+8], xmm0
  00197	f2 0f 10 07	 movsd	 xmm0, QWORD PTR [edi]
  0019b	8b 7d c8	 mov	 edi, DWORD PTR _point$GSCopy$1$[ebp]
  0019e	8b 80 30 01 00
	00		 mov	 eax, DWORD PTR [eax+304]
  001a4	f2 0f 11 04 24	 movsd	 QWORD PTR [esp], xmm0
  001a9	ff b3 c8 00 00
	00		 push	 DWORD PTR [ebx+200]
  001af	ff b3 c0 00 00
	00		 push	 DWORD PTR [ebx+192]
  001b5	ff 77 04	 push	 DWORD PTR [edi+4]
  001b8	ff d0		 call	 eax

; 1384 : 	m_nSelecteYValue = point.y;

  001ba	8b 47 04	 mov	 eax, DWORD PTR [edi+4]
  001bd	dd 5d b8	 fstp	 QWORD PTR _dYValue$[ebp]
  001c0	89 83 00 01 00
	00		 mov	 DWORD PTR [ebx+256], eax

; 1385 : 
; 1386 : 	
; 1387 : //	BOOL bDoOrder = FALSE;	
; 1388 : 	
; 1389 : 	if(m_nSelecteYValue < m_rctGraphRegion.top || m_nSelecteYValue > m_rctGraphRegion.bottom)

  001c6	3b 83 b0 00 00
	00		 cmp	 eax, DWORD PTR [ebx+176]
  001cc	0f 8c 5d 09 00
	00		 jl	 $LN14@OnRButtonU
  001d2	3b 83 b8 00 00
	00		 cmp	 eax, DWORD PTR [ebx+184]
  001d8	0f 8f 51 09 00
	00		 jg	 $LN14@OnRButtonU

; 1394 : 	if(!FindLineAndSelect(&m_OrderLineList, point))

  001de	83 ec 08	 sub	 esp, 8
  001e1	c7 43 38 00 00
	00 00		 mov	 DWORD PTR [ebx+56], 0
  001e8	8b 0f		 mov	 ecx, DWORD PTR [edi]
  001ea	8b c4		 mov	 eax, esp
  001ec	8b 57 04	 mov	 edx, DWORD PTR [edi+4]
; File C:\Program Files (x86)\Microsoft Visual Studio\2019\Community\VC\Tools\MSVC\14.29.30133\atlmfc\include\atltypes.h

; 414  : 	*(POINT*)this = initPt;

  001ef	89 08		 mov	 DWORD PTR [eax], ecx
; File D:\git\src\IBK\IBK_DRFN\ProjSrc\SrcChartEx\ChartAddIn\ChartOutsideCustomAddIn\ChartOutsideCustomAddIn\OrderLineAddinImp.cpp

; 1394 : 	if(!FindLineAndSelect(&m_OrderLineList, point))

  001f1	8d 4b f8	 lea	 ecx, DWORD PTR [ebx-8]
; File C:\Program Files (x86)\Microsoft Visual Studio\2019\Community\VC\Tools\MSVC\14.29.30133\atlmfc\include\atltypes.h

; 414  : 	*(POINT*)this = initPt;

  001f4	89 50 04	 mov	 DWORD PTR [eax+4], edx
; File D:\git\src\IBK\IBK_DRFN\ProjSrc\SrcChartEx\ChartAddIn\ChartOutsideCustomAddIn\ChartOutsideCustomAddIn\OrderLineAddinImp.cpp

; 1394 : 	if(!FindLineAndSelect(&m_OrderLineList, point))

  001f7	8d 43 3c	 lea	 eax, DWORD PTR [ebx+60]
  001fa	50		 push	 eax
  001fb	e8 00 00 00 00	 call	 ?FindLineAndSelect@COrderLineAddInImp@@IAEHPAVCObList@@VCPoint@@@Z ; COrderLineAddInImp::FindLineAndSelect
  00200	85 c0		 test	 eax, eax
  00202	75 3a		 jne	 SHORT $LN16@OnRButtonU

; 1395 : 		if(!FindLineAndSelect(&m_OrderLineStopList, point))

  00204	8b 0f		 mov	 ecx, DWORD PTR [edi]
  00206	83 ec 08	 sub	 esp, 8
  00209	8b 57 04	 mov	 edx, DWORD PTR [edi+4]
  0020c	8b c4		 mov	 eax, esp
; File C:\Program Files (x86)\Microsoft Visual Studio\2019\Community\VC\Tools\MSVC\14.29.30133\atlmfc\include\atltypes.h

; 414  : 	*(POINT*)this = initPt;

  0020e	89 08		 mov	 DWORD PTR [eax], ecx
; File D:\git\src\IBK\IBK_DRFN\ProjSrc\SrcChartEx\ChartAddIn\ChartOutsideCustomAddIn\ChartOutsideCustomAddIn\OrderLineAddinImp.cpp

; 1395 : 		if(!FindLineAndSelect(&m_OrderLineStopList, point))

  00210	8d 4b f8	 lea	 ecx, DWORD PTR [ebx-8]
; File C:\Program Files (x86)\Microsoft Visual Studio\2019\Community\VC\Tools\MSVC\14.29.30133\atlmfc\include\atltypes.h

; 414  : 	*(POINT*)this = initPt;

  00213	89 50 04	 mov	 DWORD PTR [eax+4], edx
; File D:\git\src\IBK\IBK_DRFN\ProjSrc\SrcChartEx\ChartAddIn\ChartOutsideCustomAddIn\ChartOutsideCustomAddIn\OrderLineAddinImp.cpp

; 1395 : 		if(!FindLineAndSelect(&m_OrderLineStopList, point))

  00216	8d 43 58	 lea	 eax, DWORD PTR [ebx+88]
  00219	50		 push	 eax
  0021a	e8 00 00 00 00	 call	 ?FindLineAndSelect@COrderLineAddInImp@@IAEHPAVCObList@@VCPoint@@@Z ; COrderLineAddInImp::FindLineAndSelect
  0021f	85 c0		 test	 eax, eax
  00221	75 1b		 jne	 SHORT $LN16@OnRButtonU

; 1396 : 			FindLineAndSelect(&m_OrderLineLimitList, point);

  00223	8b 0f		 mov	 ecx, DWORD PTR [edi]
  00225	83 ec 08	 sub	 esp, 8
  00228	8b 57 04	 mov	 edx, DWORD PTR [edi+4]
  0022b	8b c4		 mov	 eax, esp
; File C:\Program Files (x86)\Microsoft Visual Studio\2019\Community\VC\Tools\MSVC\14.29.30133\atlmfc\include\atltypes.h

; 414  : 	*(POINT*)this = initPt;

  0022d	89 08		 mov	 DWORD PTR [eax], ecx
; File D:\git\src\IBK\IBK_DRFN\ProjSrc\SrcChartEx\ChartAddIn\ChartOutsideCustomAddIn\ChartOutsideCustomAddIn\OrderLineAddinImp.cpp

; 1396 : 			FindLineAndSelect(&m_OrderLineLimitList, point);

  0022f	8d 4b f8	 lea	 ecx, DWORD PTR [ebx-8]
; File C:\Program Files (x86)\Microsoft Visual Studio\2019\Community\VC\Tools\MSVC\14.29.30133\atlmfc\include\atltypes.h

; 414  : 	*(POINT*)this = initPt;

  00232	89 50 04	 mov	 DWORD PTR [eax+4], edx
; File D:\git\src\IBK\IBK_DRFN\ProjSrc\SrcChartEx\ChartAddIn\ChartOutsideCustomAddIn\ChartOutsideCustomAddIn\OrderLineAddinImp.cpp

; 1396 : 			FindLineAndSelect(&m_OrderLineLimitList, point);

  00235	8d 43 74	 lea	 eax, DWORD PTR [ebx+116]
  00238	50		 push	 eax
  00239	e8 00 00 00 00	 call	 ?FindLineAndSelect@COrderLineAddInImp@@IAEHPAVCObList@@VCPoint@@@Z ; COrderLineAddInImp::FindLineAndSelect
$LN16@OnRButtonU:
; File C:\Program Files (x86)\Microsoft Visual Studio\2019\Community\VC\Tools\MSVC\14.29.30133\atlmfc\include\atltypes.h

; 648  : 	return ::PtInRect(this, point);

  0023e	ff 77 04	 push	 DWORD PTR [edi+4]
  00241	8b 35 00 00 00
	00		 mov	 esi, DWORD PTR __imp__PtInRect@12
; File D:\git\src\IBK\IBK_DRFN\ProjSrc\SrcChartEx\ChartAddIn\ChartOutsideCustomAddIn\ChartOutsideCustomAddIn\OrderLineAddinImp.cpp

; 1400 : 						|| (!m_pSelectedOrderLine && m_rctGraphRegion.PtInRect( point)) )//  

  00247	8d 83 cc 00 00
	00		 lea	 eax, DWORD PTR [ebx+204]
; File C:\Program Files (x86)\Microsoft Visual Studio\2019\Community\VC\Tools\MSVC\14.29.30133\atlmfc\include\atltypes.h

; 648  : 	return ::PtInRect(this, point);

  0024d	ff 37		 push	 DWORD PTR [edi]
  0024f	50		 push	 eax
  00250	ff d6		 call	 esi
; File D:\git\src\IBK\IBK_DRFN\ProjSrc\SrcChartEx\ChartAddIn\ChartOutsideCustomAddIn\ChartOutsideCustomAddIn\OrderLineAddinImp.cpp

; 1400 : 						|| (!m_pSelectedOrderLine && m_rctGraphRegion.PtInRect( point)) )//  

  00252	85 c0		 test	 eax, eax
  00254	0f 85 80 04 00
	00		 jne	 $LN19@OnRButtonU
; File C:\Program Files (x86)\Microsoft Visual Studio\2019\Community\VC\Tools\MSVC\14.29.30133\atlmfc\include\atltypes.h

; 648  : 	return ::PtInRect(this, point);

  0025a	ff 77 04	 push	 DWORD PTR [edi+4]
; File D:\git\src\IBK\IBK_DRFN\ProjSrc\SrcChartEx\ChartAddIn\ChartOutsideCustomAddIn\ChartOutsideCustomAddIn\OrderLineAddinImp.cpp

; 1400 : 						|| (!m_pSelectedOrderLine && m_rctGraphRegion.PtInRect( point)) )//  

  0025d	8d 83 dc 00 00
	00		 lea	 eax, DWORD PTR [ebx+220]
; File C:\Program Files (x86)\Microsoft Visual Studio\2019\Community\VC\Tools\MSVC\14.29.30133\atlmfc\include\atltypes.h

; 648  : 	return ::PtInRect(this, point);

  00263	ff 37		 push	 DWORD PTR [edi]
  00265	50		 push	 eax
  00266	ff d6		 call	 esi
; File D:\git\src\IBK\IBK_DRFN\ProjSrc\SrcChartEx\ChartAddIn\ChartOutsideCustomAddIn\ChartOutsideCustomAddIn\OrderLineAddinImp.cpp

; 1400 : 						|| (!m_pSelectedOrderLine && m_rctGraphRegion.PtInRect( point)) )//  

  00268	85 c0		 test	 eax, eax
  0026a	0f 85 6a 04 00
	00		 jne	 $LN19@OnRButtonU
  00270	39 43 38	 cmp	 DWORD PTR [ebx+56], eax
  00273	75 16		 jne	 SHORT $LN283@OnRButtonU
; File C:\Program Files (x86)\Microsoft Visual Studio\2019\Community\VC\Tools\MSVC\14.29.30133\atlmfc\include\atltypes.h

; 648  : 	return ::PtInRect(this, point);

  00275	ff 77 04	 push	 DWORD PTR [edi+4]
  00278	8d 83 ac 00 00
	00		 lea	 eax, DWORD PTR [ebx+172]
  0027e	ff 37		 push	 DWORD PTR [edi]
  00280	50		 push	 eax
  00281	ff d6		 call	 esi
; File D:\git\src\IBK\IBK_DRFN\ProjSrc\SrcChartEx\ChartAddIn\ChartOutsideCustomAddIn\ChartOutsideCustomAddIn\OrderLineAddinImp.cpp

; 1400 : 						|| (!m_pSelectedOrderLine && m_rctGraphRegion.PtInRect( point)) )//  

  00283	85 c0		 test	 eax, eax
  00285	0f 85 4f 04 00
	00		 jne	 $LN19@OnRButtonU
$LN283@OnRButtonU:
; File C:\Program Files (x86)\Microsoft Visual Studio\2019\Community\VC\Tools\MSVC\14.29.30133\atlmfc\include\atltypes.h

; 648  : 	return ::PtInRect(this, point);

  0028b	ff 77 04	 push	 DWORD PTR [edi+4]
  0028e	8d 83 ac 00 00
	00		 lea	 eax, DWORD PTR [ebx+172]
  00294	ff 37		 push	 DWORD PTR [edi]
  00296	50		 push	 eax
  00297	ff d6		 call	 esi
; File D:\git\src\IBK\IBK_DRFN\ProjSrc\SrcChartEx\ChartAddIn\ChartOutsideCustomAddIn\ChartOutsideCustomAddIn\OrderLineAddinImp.cpp

; 1494 : 		if( m_rctGraphRegion.PtInRect( point) ) //  

  00299	85 c0		 test	 eax, eax
  0029b	0f 84 8e 08 00
	00		 je	 $LN14@OnRButtonU

; 1497 : 			if(!FindLineAndSelect(&m_OrderLineList, point))

  002a1	83 ec 08	 sub	 esp, 8
  002a4	c7 43 38 00 00
	00 00		 mov	 DWORD PTR [ebx+56], 0
  002ab	8b 0f		 mov	 ecx, DWORD PTR [edi]
  002ad	8b c4		 mov	 eax, esp
  002af	8b 57 04	 mov	 edx, DWORD PTR [edi+4]
; File C:\Program Files (x86)\Microsoft Visual Studio\2019\Community\VC\Tools\MSVC\14.29.30133\atlmfc\include\atltypes.h

; 414  : 	*(POINT*)this = initPt;

  002b2	89 08		 mov	 DWORD PTR [eax], ecx
; File D:\git\src\IBK\IBK_DRFN\ProjSrc\SrcChartEx\ChartAddIn\ChartOutsideCustomAddIn\ChartOutsideCustomAddIn\OrderLineAddinImp.cpp

; 1497 : 			if(!FindLineAndSelect(&m_OrderLineList, point))

  002b4	8d 4b f8	 lea	 ecx, DWORD PTR [ebx-8]
; File C:\Program Files (x86)\Microsoft Visual Studio\2019\Community\VC\Tools\MSVC\14.29.30133\atlmfc\include\atltypes.h

; 414  : 	*(POINT*)this = initPt;

  002b7	89 50 04	 mov	 DWORD PTR [eax+4], edx
; File D:\git\src\IBK\IBK_DRFN\ProjSrc\SrcChartEx\ChartAddIn\ChartOutsideCustomAddIn\ChartOutsideCustomAddIn\OrderLineAddinImp.cpp

; 1497 : 			if(!FindLineAndSelect(&m_OrderLineList, point))

  002ba	8d 43 3c	 lea	 eax, DWORD PTR [ebx+60]
  002bd	50		 push	 eax
  002be	e8 00 00 00 00	 call	 ?FindLineAndSelect@COrderLineAddInImp@@IAEHPAVCObList@@VCPoint@@@Z ; COrderLineAddInImp::FindLineAndSelect
  002c3	85 c0		 test	 eax, eax
  002c5	75 3a		 jne	 SHORT $LN30@OnRButtonU

; 1498 : 				if(!FindLineAndSelect(&m_OrderLineStopList, point))

  002c7	8b 0f		 mov	 ecx, DWORD PTR [edi]
  002c9	83 ec 08	 sub	 esp, 8
  002cc	8b 57 04	 mov	 edx, DWORD PTR [edi+4]
  002cf	8b c4		 mov	 eax, esp
; File C:\Program Files (x86)\Microsoft Visual Studio\2019\Community\VC\Tools\MSVC\14.29.30133\atlmfc\include\atltypes.h

; 414  : 	*(POINT*)this = initPt;

  002d1	89 08		 mov	 DWORD PTR [eax], ecx
; File D:\git\src\IBK\IBK_DRFN\ProjSrc\SrcChartEx\ChartAddIn\ChartOutsideCustomAddIn\ChartOutsideCustomAddIn\OrderLineAddinImp.cpp

; 1498 : 				if(!FindLineAndSelect(&m_OrderLineStopList, point))

  002d3	8d 4b f8	 lea	 ecx, DWORD PTR [ebx-8]
; File C:\Program Files (x86)\Microsoft Visual Studio\2019\Community\VC\Tools\MSVC\14.29.30133\atlmfc\include\atltypes.h

; 414  : 	*(POINT*)this = initPt;

  002d6	89 50 04	 mov	 DWORD PTR [eax+4], edx
; File D:\git\src\IBK\IBK_DRFN\ProjSrc\SrcChartEx\ChartAddIn\ChartOutsideCustomAddIn\ChartOutsideCustomAddIn\OrderLineAddinImp.cpp

; 1498 : 				if(!FindLineAndSelect(&m_OrderLineStopList, point))

  002d9	8d 43 58	 lea	 eax, DWORD PTR [ebx+88]
  002dc	50		 push	 eax
  002dd	e8 00 00 00 00	 call	 ?FindLineAndSelect@COrderLineAddInImp@@IAEHPAVCObList@@VCPoint@@@Z ; COrderLineAddInImp::FindLineAndSelect
  002e2	85 c0		 test	 eax, eax
  002e4	75 1b		 jne	 SHORT $LN30@OnRButtonU

; 1499 : 					FindLineAndSelect(&m_OrderLineLimitList, point);

  002e6	8b 17		 mov	 edx, DWORD PTR [edi]
  002e8	8d 4b f8	 lea	 ecx, DWORD PTR [ebx-8]
  002eb	8b 77 04	 mov	 esi, DWORD PTR [edi+4]
  002ee	83 ec 08	 sub	 esp, 8
  002f1	8b c4		 mov	 eax, esp
; File C:\Program Files (x86)\Microsoft Visual Studio\2019\Community\VC\Tools\MSVC\14.29.30133\atlmfc\include\atltypes.h

; 414  : 	*(POINT*)this = initPt;

  002f3	89 10		 mov	 DWORD PTR [eax], edx
  002f5	89 70 04	 mov	 DWORD PTR [eax+4], esi
; File D:\git\src\IBK\IBK_DRFN\ProjSrc\SrcChartEx\ChartAddIn\ChartOutsideCustomAddIn\ChartOutsideCustomAddIn\OrderLineAddinImp.cpp

; 1499 : 					FindLineAndSelect(&m_OrderLineLimitList, point);

  002f8	8d 43 74	 lea	 eax, DWORD PTR [ebx+116]
  002fb	50		 push	 eax
  002fc	e8 00 00 00 00	 call	 ?FindLineAndSelect@COrderLineAddInImp@@IAEHPAVCObList@@VCPoint@@@Z ; COrderLineAddInImp::FindLineAndSelect
$LN30@OnRButtonU:

; 1500 : // 			COrderLine* pOrderLine_Find = NULL;
; 1501 : // 			POSITION pos = m_OrderLineList.GetHeadPosition();
; 1502 : // 			BOOL bOnLine = FALSE;
; 1503 : // 			while(pos)
; 1504 : // 			{
; 1505 : // 				pOrderLine_Find = (COrderLine*)m_OrderLineList.GetNext(pos);
; 1506 : // 				if(pOrderLine_Find && pOrderLine_Find->IsInRegion(point))
; 1507 : // 				{
; 1508 : // 					bOnLine = TRUE;
; 1509 : // 					m_pSelectedOrderLine = pOrderLine_Find;			
; 1510 : // 
; 1511 : // 					if(m_pSelectedOrderLine)
; 1512 : // 						m_pSelectedOrderLine->m_bSelected = FALSE;
; 1513 : // 					POSITION posCur = m_OrderLineList.Find((CObject*)m_pSelectedOrderLine);
; 1514 : // 					m_OrderLineList.RemoveAt(posCur);
; 1515 : // 					m_OrderLineList.AddTail((CObject*)m_pSelectedOrderLine);
; 1516 : // 					m_pSelectedOrderLine->m_bSelected = TRUE;				
; 1517 : // 					break;
; 1518 : // 				}
; 1519 : // 			}			
; 1520 : 			
; 1521 : 			if(!m_pSelectedOrderLine)

  00301	8b 73 38	 mov	 esi, DWORD PTR [ebx+56]
  00304	85 f6		 test	 esi, esi
  00306	75 0a		 jne	 SHORT $LN31@OnRButtonU

; 1522 : 				return TRUE;

  00308	be 01 00 00 00	 mov	 esi, 1
  0030d	e9 1f 08 00 00	 jmp	 $LN104@OnRButtonU
$LN31@OnRButtonU:
; File C:\Program Files (x86)\Microsoft Visual Studio\2019\Community\VC\Tools\MSVC\14.29.30133\atlmfc\include\atltypes.h

; 414  : 	*(POINT*)this = initPt;

  00312	8b 4f 04	 mov	 ecx, DWORD PTR [edi+4]
  00315	8b 07		 mov	 eax, DWORD PTR [edi]

; 648  : 	return ::PtInRect(this, point);

  00317	51		 push	 ecx
  00318	50		 push	 eax

; 414  : 	*(POINT*)this = initPt;

  00319	89 45 c8	 mov	 DWORD PTR $T27[ebp], eax
; File D:\git\src\IBK\IBK_DRFN\ProjSrc\SrcChartEx\ChartAddIn\ChartOutsideCustomAddIn\ChartOutsideCustomAddIn\OrderLineAddinImp.cpp

; 444  : 	if(m_rctTable.PtInRect(pt))

  0031c	8d 86 50 01 00
	00		 lea	 eax, DWORD PTR [esi+336]
; File C:\Program Files (x86)\Microsoft Visual Studio\2019\Community\VC\Tools\MSVC\14.29.30133\atlmfc\include\atltypes.h

; 648  : 	return ::PtInRect(this, point);

  00322	50		 push	 eax

; 414  : 	*(POINT*)this = initPt;

  00323	89 4d c4	 mov	 DWORD PTR $T17[ebp], ecx

; 648  : 	return ::PtInRect(this, point);

  00326	ff 15 00 00 00
	00		 call	 DWORD PTR __imp__PtInRect@12
; File D:\git\src\IBK\IBK_DRFN\ProjSrc\SrcChartEx\ChartAddIn\ChartOutsideCustomAddIn\ChartOutsideCustomAddIn\OrderLineAddinImp.cpp

; 444  : 	if(m_rctTable.PtInRect(pt))

  0032c	85 c0		 test	 eax, eax
  0032e	74 0c		 je	 SHORT $LN206@OnRButtonU

; 519  : 		m_nCurClickedPos = CLICKEDPOS_TABLE;

  00330	c7 86 e4 01 00
	00 02 00 00 00	 mov	 DWORD PTR [esi+484], 2
  0033a	eb 1f		 jmp	 SHORT $LN208@OnRButtonU
$LN206@OnRButtonU:
; File C:\Program Files (x86)\Microsoft Visual Studio\2019\Community\VC\Tools\MSVC\14.29.30133\atlmfc\include\atltypes.h

; 648  : 	return ::PtInRect(this, point);

  0033c	ff 75 c4	 push	 DWORD PTR $T17[ebp]
; File D:\git\src\IBK\IBK_DRFN\ProjSrc\SrcChartEx\ChartAddIn\ChartOutsideCustomAddIn\ChartOutsideCustomAddIn\OrderLineAddinImp.cpp

; 437  : 	if(m_rctLine.PtInRect(pt))

  0033f	8d 86 40 01 00
	00		 lea	 eax, DWORD PTR [esi+320]
; File C:\Program Files (x86)\Microsoft Visual Studio\2019\Community\VC\Tools\MSVC\14.29.30133\atlmfc\include\atltypes.h

; 648  : 	return ::PtInRect(this, point);

  00345	ff 75 c8	 push	 DWORD PTR $T27[ebp]
  00348	50		 push	 eax
  00349	ff 15 00 00 00
	00		 call	 DWORD PTR __imp__PtInRect@12
; File D:\git\src\IBK\IBK_DRFN\ProjSrc\SrcChartEx\ChartAddIn\ChartOutsideCustomAddIn\ChartOutsideCustomAddIn\OrderLineAddinImp.cpp

; 437  : 	if(m_rctLine.PtInRect(pt))

  0034f	f7 d8		 neg	 eax
  00351	1b c0		 sbb	 eax, eax
  00353	f7 d8		 neg	 eax
  00355	89 86 e4 01 00
	00		 mov	 DWORD PTR [esi+484], eax
$LN208@OnRButtonU:

; 1523 : 
; 1524 : 			m_pSelectedOrderLine->MouseRButtonUp(point);
; 1525 : 	
; 1526 : 			if(m_pSelectedOrderLine->m_nCurClickedPos == CLICKEDPOS_TABLE || m_pSelectedOrderLine->m_nCurClickedPos == CLICKEDPOS_ORDERLINE)

  0035b	8b 43 38	 mov	 eax, DWORD PTR [ebx+56]
  0035e	8b 80 e4 01 00
	00		 mov	 eax, DWORD PTR [eax+484]
  00364	83 f8 02	 cmp	 eax, 2
  00367	74 09		 je	 SHORT $LN33@OnRButtonU
  00369	83 f8 01	 cmp	 eax, 1
  0036c	0f 85 bd 07 00
	00		 jne	 $LN14@OnRButtonU
$LN33@OnRButtonU:
; File C:\Program Files (x86)\Microsoft Visual Studio\2019\Community\VC\Tools\MSVC\14.29.30133\atlmfc\include\afxwin1.inl

; 903  : 	{ m_hMenu = NULL; }

  00372	c7 45 b8 00 00
	00 00		 mov	 DWORD PTR _menu$11[ebp], OFFSET ??_7CMenu@@6B@
  00379	c7 45 bc 00 00
	00 00		 mov	 DWORD PTR _menu$11[ebp+4], 0
; File D:\git\src\IBK\IBK_DRFN\ProjSrc\SrcChartEx\ChartAddIn\ChartOutsideCustomAddIn\ChartOutsideCustomAddIn\OrderLineAddinImp.cpp

; 1528 : 				CMenu	menu;

  00380	c6 45 fc 17	 mov	 BYTE PTR __$EHRec$[ebp+8], 23 ; 00000017H
; File C:\Program Files (x86)\Microsoft Visual Studio\2019\Community\VC\Tools\MSVC\14.29.30133\atlmfc\include\afxwin1.inl

; 909  : 	{ return Attach(::CreatePopupMenu()); }

  00384	ff 15 00 00 00
	00		 call	 DWORD PTR __imp__CreatePopupMenu@0
  0038a	50		 push	 eax
  0038b	8d 4d b8	 lea	 ecx, DWORD PTR _menu$11[ebp]
  0038e	e8 00 00 00 00	 call	 ?Attach@CMenu@@QAEHPAUHMENU__@@@Z ; CMenu::Attach
; File D:\git\src\IBK\IBK_DRFN\ProjSrc\SrcChartEx\ChartAddIn\ChartOutsideCustomAddIn\ChartOutsideCustomAddIn\OrderLineAddinImp.cpp

; 1533 : 				if( m_pSelectedOrderLine->m_IsStop || m_pSelectedOrderLine->m_IsLimit)

  00393	8b 43 38	 mov	 eax, DWORD PTR [ebx+56]
  00396	83 b8 bc 01 00
	00 00		 cmp	 DWORD PTR [eax+444], 0
  0039d	75 3f		 jne	 SHORT $LN36@OnRButtonU
  0039f	83 b8 c0 01 00
	00 00		 cmp	 DWORD PTR [eax+448], 0
  003a6	75 36		 jne	 SHORT $LN36@OnRButtonU

; 1536 : 					{
; 1537 : 						menu.AppendMenu(MF_STRING, nID, " "); 
; 1538 : 						menu.AppendMenu(MF_STRING, nID+1, " "); 
; 1539 : //						menu.AppendMenu(MF_STRING, nID+2, "Stop/Limit "); 	
; 1540 : //						menu.AppendMenu(MF_STRING, nID+3, "Stop/Limit "); 
; 1541 : 					}
; 1542 : 					else                             //
; 1543 : 					{
; 1544 : 						menu.AppendMenu(MF_STRING, nID+5, "Stop/Limit "); 	
; 1545 : 						menu.AppendMenu(MF_STRING, nID+6, "Stop/Limit "); 
; 1546 : 					}
; 1547 : 				}
; 1548 : 				else
; 1549 : 				{								
; 1550 : 					if(	!m_pSelectedOrderLine->m_bCon)  //

  003a8	83 b8 b8 01 00
	00 00		 cmp	 DWORD PTR [eax+440], 0
  003af	8b 35 00 00 00
	00		 mov	 esi, DWORD PTR __imp__AppendMenuA@16
  003b5	75 17		 jne	 SHORT $LN39@OnRButtonU
$LN292@OnRButtonU:
; File C:\Program Files (x86)\Microsoft Visual Studio\2019\Community\VC\Tools\MSVC\14.29.30133\atlmfc\include\atltypes.h

; 414  : 	*(POINT*)this = initPt;

  003b7	68 00 00 00 00	 push	 OFFSET ??_C@_09HJOOGAIP@?A?V?$LJ?$KO?5?A?$KE?A?$KE@
  003bc	6a 66		 push	 102			; 00000066H
  003be	6a 00		 push	 0
  003c0	ff 75 bc	 push	 DWORD PTR _menu$11[ebp+4]
  003c3	ff d6		 call	 esi
  003c5	68 00 00 00 00	 push	 OFFSET ??_C@_09OFBFFOPH@?A?V?$LJ?$KO?5?C?k?$LM?R@
  003ca	6a 67		 push	 103			; 00000067H
  003cc	eb 34		 jmp	 SHORT $LN290@OnRButtonU
$LN39@OnRButtonU:
; File C:\Program Files (x86)\Microsoft Visual Studio\2019\Community\VC\Tools\MSVC\14.29.30133\atlmfc\include\afxwin1.inl

; 924  : 	{ ASSERT(::IsMenu(m_hMenu)); return ::AppendMenu(m_hMenu, nFlags, nIDNewItem, lpszNewItem); }

  003ce	68 00 00 00 00	 push	 OFFSET ??_C@_09DMMIPLCL@?A?V?$LJ?$KO?5?C?$LL?$LL?j@
  003d3	6a 6a		 push	 106			; 0000006aH
  003d5	6a 00		 push	 0
  003d7	ff 75 bc	 push	 DWORD PTR _menu$11[ebp+4]
  003da	ff d6		 call	 esi
  003dc	eb 0f		 jmp	 SHORT $LN291@OnRButtonU
$LN36@OnRButtonU:
; File D:\git\src\IBK\IBK_DRFN\ProjSrc\SrcChartEx\ChartAddIn\ChartOutsideCustomAddIn\ChartOutsideCustomAddIn\OrderLineAddinImp.cpp

; 1535 : 					if(!m_pSelectedOrderLine->m_bCon) //

  003de	83 b8 b8 01 00
	00 00		 cmp	 DWORD PTR [eax+440], 0
  003e5	8b 35 00 00 00
	00		 mov	 esi, DWORD PTR __imp__AppendMenuA@16
  003eb	74 ca		 je	 SHORT $LN292@OnRButtonU
$LN291@OnRButtonU:
; File C:\Program Files (x86)\Microsoft Visual Studio\2019\Community\VC\Tools\MSVC\14.29.30133\atlmfc\include\atltypes.h

; 414  : 	*(POINT*)this = initPt;

  003ed	68 00 00 00 00	 push	 OFFSET ??_C@_0BA@DDLEBGKJ@Stop?1Limit?5?$MA?$PL?$LP?k@
  003f2	6a 6b		 push	 107			; 0000006bH
  003f4	6a 00		 push	 0
  003f6	ff 75 bc	 push	 DWORD PTR _menu$11[ebp+4]
  003f9	ff d6		 call	 esi
  003fb	68 00 00 00 00	 push	 OFFSET ??_C@_0BA@CIMPAIAF@Stop?1Limit?5?C?k?$LM?R@
  00400	6a 6c		 push	 108			; 0000006cH
$LN290@OnRButtonU:
  00402	6a 00		 push	 0
  00404	ff 75 bc	 push	 DWORD PTR _menu$11[ebp+4]
  00407	ff d6		 call	 esi
  00409	8b 07		 mov	 eax, DWORD PTR [edi]
  0040b	8b 4f 04	 mov	 ecx, DWORD PTR [edi+4]
  0040e	89 45 b0	 mov	 DWORD PTR _ptPop$9[ebp], eax
; File D:\git\src\IBK\IBK_DRFN\ProjSrc\SrcChartEx\ChartAddIn\ChartOutsideCustomAddIn\ChartOutsideCustomAddIn\OrderLineAddinImp.cpp

; 1568 : 				ClientToScreen(m_pChartCWnd->GetSafeHwnd(), &ptPop);

  00411	8b 43 08	 mov	 eax, DWORD PTR [ebx+8]
; File C:\Program Files (x86)\Microsoft Visual Studio\2019\Community\VC\Tools\MSVC\14.29.30133\atlmfc\include\atltypes.h

; 414  : 	*(POINT*)this = initPt;

  00414	89 4d b4	 mov	 DWORD PTR _ptPop$9[ebp+4], ecx
; File C:\Program Files (x86)\Microsoft Visual Studio\2019\Community\VC\Tools\MSVC\14.29.30133\atlmfc\include\afxwin2.inl

; 25   : 	{ return this == NULL ? NULL : m_hWnd; }

  00417	85 c0		 test	 eax, eax
  00419	74 03		 je	 SHORT $LN250@OnRButtonU
$LN249@OnRButtonU:
  0041b	8b 40 20	 mov	 eax, DWORD PTR [eax+32]
$LN250@OnRButtonU:
; File D:\git\src\IBK\IBK_DRFN\ProjSrc\SrcChartEx\ChartAddIn\ChartOutsideCustomAddIn\ChartOutsideCustomAddIn\OrderLineAddinImp.cpp

; 1568 : 				ClientToScreen(m_pChartCWnd->GetSafeHwnd(), &ptPop);

  0041e	8d 4d b0	 lea	 ecx, DWORD PTR _ptPop$9[ebp]
  00421	51		 push	 ecx
  00422	50		 push	 eax
  00423	ff 15 00 00 00
	00		 call	 DWORD PTR __imp__ClientToScreen@8

; 1569 : 				int nRet = menu.TrackPopupMenu(flags, ptPop.x, ptPop.y, m_pChartCWnd);

  00429	6a 00		 push	 0
  0042b	ff 73 08	 push	 DWORD PTR [ebx+8]
  0042e	8d 4d b8	 lea	 ecx, DWORD PTR _menu$11[ebp]
  00431	ff 75 b4	 push	 DWORD PTR _ptPop$9[ebp+4]
  00434	ff 75 b0	 push	 DWORD PTR _ptPop$9[ebp]
  00437	68 82 01 00 00	 push	 386			; 00000182H
  0043c	e8 00 00 00 00	 call	 ?TrackPopupMenu@CMenu@@QAEHIHHPAVCWnd@@PBUtagRECT@@@Z ; CMenu::TrackPopupMenu

; 1570 : 				menu.DestroyMenu();				

  00441	8d 4d b8	 lea	 ecx, DWORD PTR _menu$11[ebp]
  00444	8b f0		 mov	 esi, eax
  00446	e8 00 00 00 00	 call	 ?DestroyMenu@CMenu@@QAEHXZ ; CMenu::DestroyMenu

; 1571 : 
; 1572 : 				switch(nRet) 

  0044b	83 c6 9a	 add	 esi, -102		; ffffff9aH
  0044e	83 fe 06	 cmp	 esi, 6
  00451	0f 87 70 02 00
	00		 ja	 $LN49@OnRButtonU
  00457	ff 24 b5 00 00
	00 00		 jmp	 DWORD PTR $LN286@OnRButtonU[esi*4]
$LN42@OnRButtonU:

; 1576 : 						m_pIChartOCX->OnOrderInfomationChanged(m_pSelectedOrderLine->m_dOrderPrice, (int)m_pSelectedOrderLine->m_dAmount, ORDERTYPE_CHANGE, 

  0045e	8b 43 38	 mov	 eax, DWORD PTR [ebx+56]
  00461	51		 push	 ecx
  00462	05 cc 01 00 00	 add	 eax, 460		; 000001ccH
  00467	89 65 cc	 mov	 DWORD PTR $T36[ebp], esp
  0046a	8b cc		 mov	 ecx, esp
  0046c	50		 push	 eax
  0046d	ff 15 00 00 00
	00		 call	 DWORD PTR __imp_??0?$CStringT@DV?$StrTraitMFC_DLL@DV?$ChTraitsCRT@D@ATL@@@@@ATL@@QAE@ABV01@@Z
  00473	8b 43 38	 mov	 eax, DWORD PTR [ebx+56]
  00476	51		 push	 ecx
  00477	05 c8 01 00 00	 add	 eax, 456		; 000001c8H
  0047c	89 65 c4	 mov	 DWORD PTR $T24[ebp], esp
  0047f	8b cc		 mov	 ecx, esp
  00481	c6 45 fc 18	 mov	 BYTE PTR __$EHRec$[ebp+8], 24 ; 00000018H
  00485	50		 push	 eax
  00486	ff 15 00 00 00
	00		 call	 DWORD PTR __imp_??0?$CStringT@DV?$StrTraitMFC_DLL@DV?$ChTraitsCRT@D@ATL@@@@@ATL@@QAE@ABV01@@Z
  0048c	8b 43 38	 mov	 eax, DWORD PTR [ebx+56]
  0048f	51		 push	 ecx
  00490	05 c4 01 00 00	 add	 eax, 452		; 000001c4H
  00495	c6 45 fc 19	 mov	 BYTE PTR __$EHRec$[ebp+8], 25 ; 00000019H
  00499	8b cc		 mov	 ecx, esp
  0049b	50		 push	 eax
  0049c	ff 15 00 00 00
	00		 call	 DWORD PTR __imp_??0?$CStringT@DV?$StrTraitMFC_DLL@DV?$ChTraitsCRT@D@ATL@@@@@ATL@@QAE@ABV01@@Z
; File C:\Program Files (x86)\Microsoft Visual Studio\2019\Community\VC\Tools\MSVC\14.29.30133\atlmfc\include\atlsimpstr.h

; 377  : 		return( m_pszData );

  004a2	8b 4b 38	 mov	 ecx, DWORD PTR [ebx+56]
; File D:\git\src\IBK\IBK_DRFN\ProjSrc\SrcChartEx\ChartAddIn\ChartOutsideCustomAddIn\ChartOutsideCustomAddIn\OrderLineAddinImp.cpp

; 1576 : 						m_pIChartOCX->OnOrderInfomationChanged(m_pSelectedOrderLine->m_dOrderPrice, (int)m_pSelectedOrderLine->m_dAmount, ORDERTYPE_CHANGE, 

  004a5	ff b1 a0 01 00
	00		 push	 DWORD PTR [ecx+416]
  004ab	6a 02		 push	 2

; 1577 : 													m_pSelectedOrderLine->m_strOrderID,  m_pSelectedOrderLine->m_strCustItem1,
; 1578 : 													m_pSelectedOrderLine->m_strCustItem2, m_pSelectedOrderLine->m_strCustItem3);
; 1579 : 						break;

  004ad	e9 f0 01 00 00	 jmp	 $LN293@OnRButtonU
$LN43@OnRButtonU:

; 1583 : 						m_pIChartOCX->OnOrderInfomationChanged(m_pSelectedOrderLine->m_dOrderPrice, (int)m_pSelectedOrderLine->m_dAmount, ORDERTYPE_CANCEL, 

  004b2	8b 43 38	 mov	 eax, DWORD PTR [ebx+56]
  004b5	51		 push	 ecx
  004b6	05 cc 01 00 00	 add	 eax, 460		; 000001ccH
  004bb	89 65 cc	 mov	 DWORD PTR $T35[ebp], esp
  004be	8b cc		 mov	 ecx, esp
  004c0	50		 push	 eax
  004c1	ff 15 00 00 00
	00		 call	 DWORD PTR __imp_??0?$CStringT@DV?$StrTraitMFC_DLL@DV?$ChTraitsCRT@D@ATL@@@@@ATL@@QAE@ABV01@@Z
  004c7	8b 43 38	 mov	 eax, DWORD PTR [ebx+56]
  004ca	51		 push	 ecx
  004cb	05 c8 01 00 00	 add	 eax, 456		; 000001c8H
  004d0	89 65 c4	 mov	 DWORD PTR $T23[ebp], esp
  004d3	8b cc		 mov	 ecx, esp
  004d5	c6 45 fc 1a	 mov	 BYTE PTR __$EHRec$[ebp+8], 26 ; 0000001aH
  004d9	50		 push	 eax
  004da	ff 15 00 00 00
	00		 call	 DWORD PTR __imp_??0?$CStringT@DV?$StrTraitMFC_DLL@DV?$ChTraitsCRT@D@ATL@@@@@ATL@@QAE@ABV01@@Z
  004e0	8b 43 38	 mov	 eax, DWORD PTR [ebx+56]
  004e3	51		 push	 ecx
  004e4	05 c4 01 00 00	 add	 eax, 452		; 000001c4H
  004e9	c6 45 fc 1b	 mov	 BYTE PTR __$EHRec$[ebp+8], 27 ; 0000001bH
  004ed	8b cc		 mov	 ecx, esp
  004ef	50		 push	 eax
  004f0	ff 15 00 00 00
	00		 call	 DWORD PTR __imp_??0?$CStringT@DV?$StrTraitMFC_DLL@DV?$ChTraitsCRT@D@ATL@@@@@ATL@@QAE@ABV01@@Z
; File C:\Program Files (x86)\Microsoft Visual Studio\2019\Community\VC\Tools\MSVC\14.29.30133\atlmfc\include\atlsimpstr.h

; 377  : 		return( m_pszData );

  004f6	8b 4b 38	 mov	 ecx, DWORD PTR [ebx+56]
; File D:\git\src\IBK\IBK_DRFN\ProjSrc\SrcChartEx\ChartAddIn\ChartOutsideCustomAddIn\ChartOutsideCustomAddIn\OrderLineAddinImp.cpp

; 1583 : 						m_pIChartOCX->OnOrderInfomationChanged(m_pSelectedOrderLine->m_dOrderPrice, (int)m_pSelectedOrderLine->m_dAmount, ORDERTYPE_CANCEL, 

  004f9	ff b1 a0 01 00
	00		 push	 DWORD PTR [ecx+416]
  004ff	6a 03		 push	 3

; 1584 : 													m_pSelectedOrderLine->m_strOrderID,  m_pSelectedOrderLine->m_strCustItem1,
; 1585 : 													m_pSelectedOrderLine->m_strCustItem2, m_pSelectedOrderLine->m_strCustItem3);
; 1586 : 						break;

  00501	e9 9c 01 00 00	 jmp	 $LN293@OnRButtonU
$LN44@OnRButtonU:

; 1590 : 						m_pIChartOCX->OnOrderInfomationChanged(m_pSelectedOrderLine->m_dOrderPrice, (int)m_pSelectedOrderLine->m_dAmount, ORDERTYPE_STOP, 

  00506	8b 43 38	 mov	 eax, DWORD PTR [ebx+56]
  00509	51		 push	 ecx
  0050a	05 cc 01 00 00	 add	 eax, 460		; 000001ccH
  0050f	89 65 cc	 mov	 DWORD PTR $T34[ebp], esp
  00512	8b cc		 mov	 ecx, esp
  00514	50		 push	 eax
  00515	ff 15 00 00 00
	00		 call	 DWORD PTR __imp_??0?$CStringT@DV?$StrTraitMFC_DLL@DV?$ChTraitsCRT@D@ATL@@@@@ATL@@QAE@ABV01@@Z
  0051b	8b 43 38	 mov	 eax, DWORD PTR [ebx+56]
  0051e	51		 push	 ecx
  0051f	05 c8 01 00 00	 add	 eax, 456		; 000001c8H
  00524	89 65 c4	 mov	 DWORD PTR $T22[ebp], esp
  00527	8b cc		 mov	 ecx, esp
  00529	c6 45 fc 1c	 mov	 BYTE PTR __$EHRec$[ebp+8], 28 ; 0000001cH
  0052d	50		 push	 eax
  0052e	ff 15 00 00 00
	00		 call	 DWORD PTR __imp_??0?$CStringT@DV?$StrTraitMFC_DLL@DV?$ChTraitsCRT@D@ATL@@@@@ATL@@QAE@ABV01@@Z
  00534	8b 43 38	 mov	 eax, DWORD PTR [ebx+56]
  00537	51		 push	 ecx
  00538	05 c4 01 00 00	 add	 eax, 452		; 000001c4H
  0053d	c6 45 fc 1d	 mov	 BYTE PTR __$EHRec$[ebp+8], 29 ; 0000001dH
  00541	8b cc		 mov	 ecx, esp
  00543	50		 push	 eax
  00544	ff 15 00 00 00
	00		 call	 DWORD PTR __imp_??0?$CStringT@DV?$StrTraitMFC_DLL@DV?$ChTraitsCRT@D@ATL@@@@@ATL@@QAE@ABV01@@Z
; File C:\Program Files (x86)\Microsoft Visual Studio\2019\Community\VC\Tools\MSVC\14.29.30133\atlmfc\include\atlsimpstr.h

; 377  : 		return( m_pszData );

  0054a	8b 4b 38	 mov	 ecx, DWORD PTR [ebx+56]
; File D:\git\src\IBK\IBK_DRFN\ProjSrc\SrcChartEx\ChartAddIn\ChartOutsideCustomAddIn\ChartOutsideCustomAddIn\OrderLineAddinImp.cpp

; 1590 : 						m_pIChartOCX->OnOrderInfomationChanged(m_pSelectedOrderLine->m_dOrderPrice, (int)m_pSelectedOrderLine->m_dAmount, ORDERTYPE_STOP, 

  0054d	ff b1 a0 01 00
	00		 push	 DWORD PTR [ecx+416]
  00553	6a 04		 push	 4

; 1591 : 													m_pSelectedOrderLine->m_strOrderID,  m_pSelectedOrderLine->m_strCustItem1,
; 1592 : 													m_pSelectedOrderLine->m_strCustItem2, m_pSelectedOrderLine->m_strCustItem3);
; 1593 : 						break;

  00555	e9 48 01 00 00	 jmp	 $LN293@OnRButtonU
$LN45@OnRButtonU:

; 1597 : 						m_pIChartOCX->OnOrderInfomationChanged(m_pSelectedOrderLine->m_dOrderPrice, (int)m_pSelectedOrderLine->m_dAmount, ORDERTYPE_LIMIT, 

  0055a	8b 43 38	 mov	 eax, DWORD PTR [ebx+56]
  0055d	51		 push	 ecx
  0055e	05 cc 01 00 00	 add	 eax, 460		; 000001ccH
  00563	89 65 cc	 mov	 DWORD PTR $T33[ebp], esp
  00566	8b cc		 mov	 ecx, esp
  00568	50		 push	 eax
  00569	ff 15 00 00 00
	00		 call	 DWORD PTR __imp_??0?$CStringT@DV?$StrTraitMFC_DLL@DV?$ChTraitsCRT@D@ATL@@@@@ATL@@QAE@ABV01@@Z
  0056f	8b 43 38	 mov	 eax, DWORD PTR [ebx+56]
  00572	51		 push	 ecx
  00573	05 c8 01 00 00	 add	 eax, 456		; 000001c8H
  00578	89 65 c4	 mov	 DWORD PTR $T21[ebp], esp
  0057b	8b cc		 mov	 ecx, esp
  0057d	c6 45 fc 1e	 mov	 BYTE PTR __$EHRec$[ebp+8], 30 ; 0000001eH
  00581	50		 push	 eax
  00582	ff 15 00 00 00
	00		 call	 DWORD PTR __imp_??0?$CStringT@DV?$StrTraitMFC_DLL@DV?$ChTraitsCRT@D@ATL@@@@@ATL@@QAE@ABV01@@Z
  00588	8b 43 38	 mov	 eax, DWORD PTR [ebx+56]
  0058b	51		 push	 ecx
  0058c	05 c4 01 00 00	 add	 eax, 452		; 000001c4H
  00591	c6 45 fc 1f	 mov	 BYTE PTR __$EHRec$[ebp+8], 31 ; 0000001fH
  00595	8b cc		 mov	 ecx, esp
  00597	50		 push	 eax
  00598	ff 15 00 00 00
	00		 call	 DWORD PTR __imp_??0?$CStringT@DV?$StrTraitMFC_DLL@DV?$ChTraitsCRT@D@ATL@@@@@ATL@@QAE@ABV01@@Z
; File C:\Program Files (x86)\Microsoft Visual Studio\2019\Community\VC\Tools\MSVC\14.29.30133\atlmfc\include\atlsimpstr.h

; 377  : 		return( m_pszData );

  0059e	8b 4b 38	 mov	 ecx, DWORD PTR [ebx+56]
; File D:\git\src\IBK\IBK_DRFN\ProjSrc\SrcChartEx\ChartAddIn\ChartOutsideCustomAddIn\ChartOutsideCustomAddIn\OrderLineAddinImp.cpp

; 1597 : 						m_pIChartOCX->OnOrderInfomationChanged(m_pSelectedOrderLine->m_dOrderPrice, (int)m_pSelectedOrderLine->m_dAmount, ORDERTYPE_LIMIT, 

  005a1	ff b1 a0 01 00
	00		 push	 DWORD PTR [ecx+416]
  005a7	6a 05		 push	 5

; 1598 : 													m_pSelectedOrderLine->m_strOrderID, m_pSelectedOrderLine->m_strCustItem1,
; 1599 : 													m_pSelectedOrderLine->m_strCustItem2, m_pSelectedOrderLine->m_strCustItem3);
; 1600 : 						break;

  005a9	e9 f4 00 00 00	 jmp	 $LN293@OnRButtonU
$LN46@OnRButtonU:

; 1604 : 						m_pIChartOCX->OnOrderInfomationChanged(m_pSelectedOrderLine->m_dOrderPrice, (int)m_pSelectedOrderLine->m_dAmount, ORDERTYPE_CLEAR, 

  005ae	8b 43 38	 mov	 eax, DWORD PTR [ebx+56]
  005b1	51		 push	 ecx
  005b2	05 cc 01 00 00	 add	 eax, 460		; 000001ccH
  005b7	89 65 cc	 mov	 DWORD PTR $T32[ebp], esp
  005ba	8b cc		 mov	 ecx, esp
  005bc	50		 push	 eax
  005bd	ff 15 00 00 00
	00		 call	 DWORD PTR __imp_??0?$CStringT@DV?$StrTraitMFC_DLL@DV?$ChTraitsCRT@D@ATL@@@@@ATL@@QAE@ABV01@@Z
  005c3	8b 43 38	 mov	 eax, DWORD PTR [ebx+56]
  005c6	51		 push	 ecx
  005c7	05 a4 01 00 00	 add	 eax, 420		; 000001a4H
  005cc	89 65 c4	 mov	 DWORD PTR $T20[ebp], esp
  005cf	8b cc		 mov	 ecx, esp
  005d1	c6 45 fc 20	 mov	 BYTE PTR __$EHRec$[ebp+8], 32 ; 00000020H
  005d5	50		 push	 eax
  005d6	ff 15 00 00 00
	00		 call	 DWORD PTR __imp_??0?$CStringT@DV?$StrTraitMFC_DLL@DV?$ChTraitsCRT@D@ATL@@@@@ATL@@QAE@ABV01@@Z
  005dc	8b 43 38	 mov	 eax, DWORD PTR [ebx+56]
  005df	51		 push	 ecx
  005e0	05 c4 01 00 00	 add	 eax, 452		; 000001c4H
  005e5	c6 45 fc 21	 mov	 BYTE PTR __$EHRec$[ebp+8], 33 ; 00000021H
  005e9	8b cc		 mov	 ecx, esp
  005eb	50		 push	 eax
  005ec	ff 15 00 00 00
	00		 call	 DWORD PTR __imp_??0?$CStringT@DV?$StrTraitMFC_DLL@DV?$ChTraitsCRT@D@ATL@@@@@ATL@@QAE@ABV01@@Z
; File C:\Program Files (x86)\Microsoft Visual Studio\2019\Community\VC\Tools\MSVC\14.29.30133\atlmfc\include\atlsimpstr.h

; 377  : 		return( m_pszData );

  005f2	8b 4b 38	 mov	 ecx, DWORD PTR [ebx+56]
; File D:\git\src\IBK\IBK_DRFN\ProjSrc\SrcChartEx\ChartAddIn\ChartOutsideCustomAddIn\ChartOutsideCustomAddIn\OrderLineAddinImp.cpp

; 1604 : 						m_pIChartOCX->OnOrderInfomationChanged(m_pSelectedOrderLine->m_dOrderPrice, (int)m_pSelectedOrderLine->m_dAmount, ORDERTYPE_CLEAR, 

  005f5	ff b1 a0 01 00
	00		 push	 DWORD PTR [ecx+416]
  005fb	6a 06		 push	 6

; 1605 : 							m_pSelectedOrderLine->m_strOrderID, m_pSelectedOrderLine->m_strCustItem1,
; 1606 : 							m_pSelectedOrderLine->m_strPositionID, m_pSelectedOrderLine->m_strCustItem3);
; 1607 : 						break;

  005fd	e9 a0 00 00 00	 jmp	 $LN293@OnRButtonU
$LN47@OnRButtonU:

; 1611 : 						m_pIChartOCX->OnOrderInfomationChanged(m_pSelectedOrderLine->m_dOrderPrice, (int)m_pSelectedOrderLine->m_dAmount, ORDERTYPE_CON_STOP, 

  00602	8b 43 38	 mov	 eax, DWORD PTR [ebx+56]
  00605	51		 push	 ecx
  00606	05 cc 01 00 00	 add	 eax, 460		; 000001ccH
  0060b	89 65 cc	 mov	 DWORD PTR $T31[ebp], esp
  0060e	8b cc		 mov	 ecx, esp
  00610	50		 push	 eax
  00611	ff 15 00 00 00
	00		 call	 DWORD PTR __imp_??0?$CStringT@DV?$StrTraitMFC_DLL@DV?$ChTraitsCRT@D@ATL@@@@@ATL@@QAE@ABV01@@Z
  00617	8b 43 38	 mov	 eax, DWORD PTR [ebx+56]
  0061a	51		 push	 ecx
  0061b	05 a4 01 00 00	 add	 eax, 420		; 000001a4H
  00620	89 65 c4	 mov	 DWORD PTR $T19[ebp], esp
  00623	8b cc		 mov	 ecx, esp
  00625	c6 45 fc 22	 mov	 BYTE PTR __$EHRec$[ebp+8], 34 ; 00000022H
  00629	50		 push	 eax
  0062a	ff 15 00 00 00
	00		 call	 DWORD PTR __imp_??0?$CStringT@DV?$StrTraitMFC_DLL@DV?$ChTraitsCRT@D@ATL@@@@@ATL@@QAE@ABV01@@Z
  00630	8b 43 38	 mov	 eax, DWORD PTR [ebx+56]
  00633	51		 push	 ecx
  00634	05 c4 01 00 00	 add	 eax, 452		; 000001c4H
  00639	c6 45 fc 23	 mov	 BYTE PTR __$EHRec$[ebp+8], 35 ; 00000023H
  0063d	8b cc		 mov	 ecx, esp
  0063f	50		 push	 eax
  00640	ff 15 00 00 00
	00		 call	 DWORD PTR __imp_??0?$CStringT@DV?$StrTraitMFC_DLL@DV?$ChTraitsCRT@D@ATL@@@@@ATL@@QAE@ABV01@@Z
; File C:\Program Files (x86)\Microsoft Visual Studio\2019\Community\VC\Tools\MSVC\14.29.30133\atlmfc\include\atlsimpstr.h

; 377  : 		return( m_pszData );

  00646	8b 4b 38	 mov	 ecx, DWORD PTR [ebx+56]
; File D:\git\src\IBK\IBK_DRFN\ProjSrc\SrcChartEx\ChartAddIn\ChartOutsideCustomAddIn\ChartOutsideCustomAddIn\OrderLineAddinImp.cpp

; 1611 : 						m_pIChartOCX->OnOrderInfomationChanged(m_pSelectedOrderLine->m_dOrderPrice, (int)m_pSelectedOrderLine->m_dAmount, ORDERTYPE_CON_STOP, 

  00649	ff b1 a0 01 00
	00		 push	 DWORD PTR [ecx+416]
  0064f	6a 07		 push	 7

; 1612 : 							m_pSelectedOrderLine->m_strOrderID, m_pSelectedOrderLine->m_strCustItem1,
; 1613 : 							m_pSelectedOrderLine->m_strPositionID, m_pSelectedOrderLine->m_strCustItem3);
; 1614 : 						break;

  00651	eb 4f		 jmp	 SHORT $LN293@OnRButtonU
$LN48@OnRButtonU:

; 1618 : 						m_pIChartOCX->OnOrderInfomationChanged(m_pSelectedOrderLine->m_dOrderPrice, (int)m_pSelectedOrderLine->m_dAmount, ORDERTYPE_CON_LIMIT, 

  00653	8b 43 38	 mov	 eax, DWORD PTR [ebx+56]
  00656	51		 push	 ecx
  00657	05 cc 01 00 00	 add	 eax, 460		; 000001ccH
  0065c	89 65 cc	 mov	 DWORD PTR $T30[ebp], esp
  0065f	8b cc		 mov	 ecx, esp
  00661	50		 push	 eax
  00662	ff 15 00 00 00
	00		 call	 DWORD PTR __imp_??0?$CStringT@DV?$StrTraitMFC_DLL@DV?$ChTraitsCRT@D@ATL@@@@@ATL@@QAE@ABV01@@Z
  00668	8b 43 38	 mov	 eax, DWORD PTR [ebx+56]
  0066b	51		 push	 ecx
  0066c	05 a4 01 00 00	 add	 eax, 420		; 000001a4H
  00671	89 65 c4	 mov	 DWORD PTR $T18[ebp], esp
  00674	8b cc		 mov	 ecx, esp
  00676	c6 45 fc 24	 mov	 BYTE PTR __$EHRec$[ebp+8], 36 ; 00000024H
  0067a	50		 push	 eax
  0067b	ff 15 00 00 00
	00		 call	 DWORD PTR __imp_??0?$CStringT@DV?$StrTraitMFC_DLL@DV?$ChTraitsCRT@D@ATL@@@@@ATL@@QAE@ABV01@@Z
  00681	8b 43 38	 mov	 eax, DWORD PTR [ebx+56]
  00684	51		 push	 ecx
  00685	05 c4 01 00 00	 add	 eax, 452		; 000001c4H
  0068a	c6 45 fc 25	 mov	 BYTE PTR __$EHRec$[ebp+8], 37 ; 00000025H
  0068e	8b cc		 mov	 ecx, esp
  00690	50		 push	 eax
  00691	ff 15 00 00 00
	00		 call	 DWORD PTR __imp_??0?$CStringT@DV?$StrTraitMFC_DLL@DV?$ChTraitsCRT@D@ATL@@@@@ATL@@QAE@ABV01@@Z
; File C:\Program Files (x86)\Microsoft Visual Studio\2019\Community\VC\Tools\MSVC\14.29.30133\atlmfc\include\atlsimpstr.h

; 377  : 		return( m_pszData );

  00697	8b 4b 38	 mov	 ecx, DWORD PTR [ebx+56]
; File D:\git\src\IBK\IBK_DRFN\ProjSrc\SrcChartEx\ChartAddIn\ChartOutsideCustomAddIn\ChartOutsideCustomAddIn\OrderLineAddinImp.cpp

; 1618 : 						m_pIChartOCX->OnOrderInfomationChanged(m_pSelectedOrderLine->m_dOrderPrice, (int)m_pSelectedOrderLine->m_dAmount, ORDERTYPE_CON_LIMIT, 

  0069a	ff b1 a0 01 00
	00		 push	 DWORD PTR [ecx+416]
  006a0	6a 08		 push	 8
$LN293@OnRButtonU:
; File C:\Program Files (x86)\Microsoft Visual Studio\2019\Community\VC\Tools\MSVC\14.29.30133\atlmfc\include\afxwin1.inl

; 905  : 	{ DestroyMenu(); }

  006a2	8b 43 04	 mov	 eax, DWORD PTR [ebx+4]
  006a5	f2 0f 10 41 50	 movsd	 xmm0, QWORD PTR [ecx+80]
  006aa	8b 10		 mov	 edx, DWORD PTR [eax]
  006ac	f2 0f 2c 41 40	 cvttsd2si eax, QWORD PTR [ecx+64]
  006b1	c6 45 fc 17	 mov	 BYTE PTR __$EHRec$[ebp+8], 23 ; 00000017H
  006b5	8b 4b 04	 mov	 ecx, DWORD PTR [ebx+4]
  006b8	50		 push	 eax
  006b9	83 ec 08	 sub	 esp, 8
  006bc	f2 0f 11 04 24	 movsd	 QWORD PTR [esp], xmm0
  006c1	ff 92 64 02 00
	00		 call	 DWORD PTR [edx+612]
$LN49@OnRButtonU:
  006c7	c6 45 fc 26	 mov	 BYTE PTR __$EHRec$[ebp+8], 38 ; 00000026H
  006cb	8d 4d b8	 lea	 ecx, DWORD PTR _menu$11[ebp]
  006ce	c7 45 b8 00 00
	00 00		 mov	 DWORD PTR _menu$11[ebp], OFFSET ??_7CMenu@@6B@
  006d5	e9 50 04 00 00	 jmp	 $LN294@OnRButtonU
$LN19@OnRButtonU:

; 903  : 	{ m_hMenu = NULL; }

  006da	c7 45 b0 00 00
	00 00		 mov	 DWORD PTR _menu$10[ebp], OFFSET ??_7CMenu@@6B@
  006e1	c7 45 b4 00 00
	00 00		 mov	 DWORD PTR _menu$10[ebp+4], 0
; File D:\git\src\IBK\IBK_DRFN\ProjSrc\SrcChartEx\ChartAddIn\ChartOutsideCustomAddIn\ChartOutsideCustomAddIn\OrderLineAddinImp.cpp

; 1402 : 		CMenu	menu;

  006e8	c6 45 fc 01	 mov	 BYTE PTR __$EHRec$[ebp+8], 1
; File C:\Program Files (x86)\Microsoft Visual Studio\2019\Community\VC\Tools\MSVC\14.29.30133\atlmfc\include\afxwin1.inl

; 909  : 	{ return Attach(::CreatePopupMenu()); }

  006ec	ff 15 00 00 00
	00		 call	 DWORD PTR __imp__CreatePopupMenu@0
  006f2	50		 push	 eax
  006f3	8d 4d b0	 lea	 ecx, DWORD PTR _menu$10[ebp]
  006f6	e8 00 00 00 00	 call	 ?Attach@CMenu@@QAEHPAUHMENU__@@@Z ; CMenu::Attach

; 924  : 	{ ASSERT(::IsMenu(m_hMenu)); return ::AppendMenu(m_hMenu, nFlags, nIDNewItem, lpszNewItem); }

  006fb	8b 35 00 00 00
	00		 mov	 esi, DWORD PTR __imp__AppendMenuA@16
  00701	68 00 00 00 00	 push	 OFFSET ??_C@_0M@LONIGBD@?A?v?A?$KE?$LA?$KB?5?$LI?E?$LF?$LF@
  00706	6a 64		 push	 100			; 00000064H
  00708	6a 00		 push	 0
  0070a	ff 75 b4	 push	 DWORD PTR _menu$10[ebp+4]
  0070d	ff d6		 call	 esi
  0070f	68 00 00 00 00	 push	 OFFSET ??_C@_0M@NPGIKBFK@?A?v?A?$KE?$LA?$KB?5?$LI?E?$LM?v@
  00714	6a 65		 push	 101			; 00000065H
  00716	6a 00		 push	 0
  00718	ff 75 b4	 push	 DWORD PTR _menu$10[ebp+4]
  0071b	ff d6		 call	 esi
  0071d	68 00 00 00 00	 push	 OFFSET ??_C@_0O@PGPJCONP@?$LP?$KK?A?v?A?$KE?$LA?$KB?5?$LI?E?$LF?$LF@
  00722	6a 66		 push	 102			; 00000066H
  00724	6a 00		 push	 0
  00726	ff 75 b4	 push	 DWORD PTR _menu$10[ebp+4]
  00729	ff d6		 call	 esi
  0072b	68 00 00 00 00	 push	 OFFSET ??_C@_0O@CCHMAJJG@?$LP?$KK?A?v?A?$KE?$LA?$KB?5?$LI?E?$LM?v@
  00730	6a 67		 push	 103			; 00000067H
  00732	6a 00		 push	 0
  00734	ff 75 b4	 push	 DWORD PTR _menu$10[ebp+4]
  00737	ff d6		 call	 esi
  00739	68 00 00 00 00	 push	 OFFSET ??_C@_0M@FFLLNBEC@?$LN?C?$MA?e?$LA?$KB?5?$LI?E?$LF?$LF@
  0073e	6a 68		 push	 104			; 00000068H
  00740	6a 00		 push	 0
  00742	ff 75 b4	 push	 DWORD PTR _menu$10[ebp+4]
  00745	ff d6		 call	 esi
  00747	68 00 00 00 00	 push	 OFFSET ??_C@_0M@IBDOPGAL@?$LN?C?$MA?e?$LA?$KB?5?$LI?E?$LM?v@
  0074c	6a 69		 push	 105			; 00000069H
  0074e	6a 00		 push	 0
  00750	ff 75 b4	 push	 DWORD PTR _menu$10[ebp+4]
  00753	ff d6		 call	 esi
; File C:\Program Files (x86)\Microsoft Visual Studio\2019\Community\VC\Tools\MSVC\14.29.30133\atlmfc\include\atltypes.h

; 414  : 	*(POINT*)this = initPt;

  00755	8b 07		 mov	 eax, DWORD PTR [edi]
  00757	8b 4f 04	 mov	 ecx, DWORD PTR [edi+4]
  0075a	89 45 98	 mov	 DWORD PTR _ptPop$2[ebp], eax
; File D:\git\src\IBK\IBK_DRFN\ProjSrc\SrcChartEx\ChartAddIn\ChartOutsideCustomAddIn\ChartOutsideCustomAddIn\OrderLineAddinImp.cpp

; 1424 : 		ClientToScreen(m_pChartCWnd->GetSafeHwnd(), &ptPop);

  0075d	8b 43 08	 mov	 eax, DWORD PTR [ebx+8]
; File C:\Program Files (x86)\Microsoft Visual Studio\2019\Community\VC\Tools\MSVC\14.29.30133\atlmfc\include\atltypes.h

; 414  : 	*(POINT*)this = initPt;

  00760	89 4d 9c	 mov	 DWORD PTR _ptPop$2[ebp+4], ecx
; File C:\Program Files (x86)\Microsoft Visual Studio\2019\Community\VC\Tools\MSVC\14.29.30133\atlmfc\include\afxwin2.inl

; 25   : 	{ return this == NULL ? NULL : m_hWnd; }

  00763	85 c0		 test	 eax, eax
  00765	74 03		 je	 SHORT $LN153@OnRButtonU
$LN152@OnRButtonU:
  00767	8b 40 20	 mov	 eax, DWORD PTR [eax+32]
$LN153@OnRButtonU:
; File D:\git\src\IBK\IBK_DRFN\ProjSrc\SrcChartEx\ChartAddIn\ChartOutsideCustomAddIn\ChartOutsideCustomAddIn\OrderLineAddinImp.cpp

; 1424 : 		ClientToScreen(m_pChartCWnd->GetSafeHwnd(), &ptPop);

  0076a	8d 4d 98	 lea	 ecx, DWORD PTR _ptPop$2[ebp]
  0076d	51		 push	 ecx
  0076e	50		 push	 eax
  0076f	ff 15 00 00 00
	00		 call	 DWORD PTR __imp__ClientToScreen@8

; 1425 : //		int nRet = menu.TrackPopupMenu(flags, point.x + 115, point.y + 260, m_pChartCWnd);
; 1426 : 		int nRet = menu.TrackPopupMenu(flags, ptPop.x, ptPop.y, m_pChartCWnd);

  00775	6a 00		 push	 0
  00777	ff 73 08	 push	 DWORD PTR [ebx+8]
  0077a	8d 4d b0	 lea	 ecx, DWORD PTR _menu$10[ebp]
  0077d	ff 75 9c	 push	 DWORD PTR _ptPop$2[ebp+4]
  00780	ff 75 98	 push	 DWORD PTR _ptPop$2[ebp]
  00783	68 82 01 00 00	 push	 386			; 00000182H
  00788	e8 00 00 00 00	 call	 ?TrackPopupMenu@CMenu@@QAEHIHHPAVCWnd@@PBUtagRECT@@@Z ; CMenu::TrackPopupMenu

; 1427 : 
; 1428 : //		double d = floor( (dYValue*10)+0.5) / 10);
; 1429 : 		menu.DestroyMenu();

  0078d	8d 4d b0	 lea	 ecx, DWORD PTR _menu$10[ebp]
  00790	8b f8		 mov	 edi, eax
  00792	e8 00 00 00 00	 call	 ?DestroyMenu@CMenu@@QAEHXZ ; CMenu::DestroyMenu

; 1430 : 
; 1431 : 		switch(nRet) 

  00797	8d 4f 9c	 lea	 ecx, DWORD PTR [edi-100]
  0079a	83 f9 05	 cmp	 ecx, 5
  0079d	0f 87 79 03 00
	00		 ja	 $LN2@OnRButtonU
  007a3	ff 24 8d 00 00
	00 00		 jmp	 DWORD PTR $LN287@OnRButtonU[ecx*4]
$LN20@OnRButtonU:

; 1432 : 		{		
; 1433 : 		case 100:		//  
; 1434 : 		case 101:		//  
; 1435 : 			{
; 1436 : 				IPacket *pIPacket = m_pIDefaultPacketManager->GetPacket( _MTEXT( C0_CLOSE ));

  007aa	8b 4b 18	 mov	 ecx, DWORD PTR [ebx+24]
  007ad	a1 54 00 00 00	 mov	 eax, DWORD PTR ?g_iMetaTable@@3VIMetaTable@@A+84
  007b2	8b 11		 mov	 edx, DWORD PTR [ecx]
  007b4	ff 70 14	 push	 DWORD PTR [eax+20]
  007b7	ff 52 10	 call	 DWORD PTR [edx+16]
  007ba	8b f0		 mov	 esi, eax

; 1437 : 				if( !pIPacket) return FALSE;

  007bc	85 f6		 test	 esi, esi
  007be	0f 84 75 01 00
	00		 je	 $LN102@OnRButtonU

; 1438 : 				
; 1439 : 				CString strType;

  007c4	8d 4d c0	 lea	 ecx, DWORD PTR _strType$16[ebp]
  007c7	ff 15 00 00 00
	00		 call	 DWORD PTR __imp_??0?$CStringT@DV?$StrTraitMFC_DLL@DV?$ChTraitsCRT@D@ATL@@@@@ATL@@QAE@XZ

; 1440 : 				ILPCSTR szIStr = pIPacket->GetType();

  007cd	8b 16		 mov	 edx, DWORD PTR [esi]
  007cf	8b ce		 mov	 ecx, esi
  007d1	6a 01		 push	 1
  007d3	c6 45 fc 03	 mov	 BYTE PTR __$EHRec$[ebp+8], 3
  007d7	ff 52 1c	 call	 DWORD PTR [edx+28]
; File D:\git\src\IBK\IBK_DRFN\ProjSrc\SrcChartEx\ChartAddIn\ChartOutsideCustomAddIn\Include_AddIn\I003531\_IString.h

; 39   : 		m_pIStrData = p_pIString;	// Do not AddRef(). Because It must be Return Value.

  007da	89 45 a8	 mov	 DWORD PTR _szIStr$4[ebp+4], eax

; 40   : 		if( m_pIStrData) m_szData = m_pIStrData->GetData();

  007dd	85 c0		 test	 eax, eax
  007df	74 09		 je	 SHORT $LN158@OnRButtonU
  007e1	8b 10		 mov	 edx, DWORD PTR [eax]
  007e3	8b c8		 mov	 ecx, eax
  007e5	ff 52 10	 call	 DWORD PTR [edx+16]
  007e8	eb 02		 jmp	 SHORT $LN295@OnRButtonU
$LN158@OnRButtonU:

; 41   : 		else m_szData = NULL;

  007ea	33 c0		 xor	 eax, eax
$LN295@OnRButtonU:
; File D:\git\src\IBK\IBK_DRFN\ProjSrc\SrcChartEx\ChartAddIn\ChartOutsideCustomAddIn\ChartOutsideCustomAddIn\OrderLineAddinImp.cpp

; 1440 : 				ILPCSTR szIStr = pIPacket->GetType();

  007ec	89 45 a4	 mov	 DWORD PTR _szIStr$4[ebp], eax

; 1441 : 				strType = (LPCTSTR)szIStr;

  007ef	50		 push	 eax
  007f0	8d 4d c0	 lea	 ecx, DWORD PTR _strType$16[ebp]
  007f3	c6 45 fc 04	 mov	 BYTE PTR __$EHRec$[ebp+8], 4
  007f7	ff 15 00 00 00
	00		 call	 DWORD PTR __imp_??4?$CStringT@DV?$StrTraitMFC_DLL@DV?$ChTraitsCRT@D@ATL@@@@@ATL@@QAEAAV01@PBD@Z

; 1443 : 				int nFindIndex = strType.Find(".") + 1;

  007fd	6a 00		 push	 0
  007ff	68 00 00 00 00	 push	 OFFSET ??_C@_01LFCBOECM@?4@
  00804	8d 4d c0	 lea	 ecx, DWORD PTR _strType$16[ebp]
  00807	ff 15 00 00 00
	00		 call	 DWORD PTR __imp_?Find@?$CStringT@DV?$StrTraitMFC_DLL@DV?$ChTraitsCRT@D@ATL@@@@@ATL@@QBEHPBDH@Z
; File C:\Program Files (x86)\Microsoft Visual Studio\2019\Community\VC\Tools\MSVC\14.29.30133\atlmfc\include\atlsimpstr.h

; 519  : 		return( GetData()->nDataLength );

  0080d	8b 4d c0	 mov	 ecx, DWORD PTR _strType$16[ebp]
; File D:\git\src\IBK\IBK_DRFN\ProjSrc\SrcChartEx\ChartAddIn\ChartOutsideCustomAddIn\ChartOutsideCustomAddIn\OrderLineAddinImp.cpp

; 1443 : 				int nFindIndex = strType.Find(".") + 1;

  00810	40		 inc	 eax
; File C:\Program Files (x86)\Microsoft Visual Studio\2019\Community\VC\Tools\MSVC\14.29.30133\atlmfc\include\atlsimpstr.h

; 519  : 		return( GetData()->nDataLength );

  00811	8b 49 f4	 mov	 ecx, DWORD PTR [ecx-12]
; File D:\git\src\IBK\IBK_DRFN\ProjSrc\SrcChartEx\ChartAddIn\ChartOutsideCustomAddIn\ChartOutsideCustomAddIn\OrderLineAddinImp.cpp

; 1444 : 				strType = strType.Mid(nFindIndex, strType.GetLength() - nFindIndex + 1);

  00814	2b c8		 sub	 ecx, eax
  00816	41		 inc	 ecx
  00817	51		 push	 ecx
  00818	50		 push	 eax
  00819	8d 45 cc	 lea	 eax, DWORD PTR $T39[ebp]
  0081c	50		 push	 eax
  0081d	8d 4d c0	 lea	 ecx, DWORD PTR _strType$16[ebp]
  00820	ff 15 00 00 00
	00		 call	 DWORD PTR __imp_?Mid@?$CStringT@DV?$StrTraitMFC_DLL@DV?$ChTraitsCRT@D@ATL@@@@@ATL@@QBE?AV12@HH@Z
  00826	50		 push	 eax
  00827	8d 4d c0	 lea	 ecx, DWORD PTR _strType$16[ebp]
  0082a	c6 45 fc 05	 mov	 BYTE PTR __$EHRec$[ebp+8], 5
  0082e	ff 15 00 00 00
	00		 call	 DWORD PTR __imp_??4?$CStringT@DV?$StrTraitMFC_DLL@DV?$ChTraitsCRT@D@ATL@@@@@ATL@@QAEAAV01@ABV01@@Z
  00834	8d 4d cc	 lea	 ecx, DWORD PTR $T39[ebp]
  00837	ff 15 00 00 00
	00		 call	 DWORD PTR __imp_??1?$CStringT@DV?$StrTraitMFC_DLL@DV?$ChTraitsCRT@D@ATL@@@@@ATL@@QAE@XZ
; File C:\Program Files (x86)\Microsoft Visual Studio\2019\Community\VC\Tools\MSVC\14.29.30133\atlmfc\include\atlsimpstr.h

; 519  : 		return( GetData()->nDataLength );

  0083d	8b 45 c0	 mov	 eax, DWORD PTR _strType$16[ebp]
; File D:\git\src\IBK\IBK_DRFN\ProjSrc\SrcChartEx\ChartAddIn\ChartOutsideCustomAddIn\ChartOutsideCustomAddIn\OrderLineAddinImp.cpp

; 1447 : 				CString strValue;

  00840	8d 4d c4	 lea	 ecx, DWORD PTR _strValue$26[ebp]
; File C:\Program Files (x86)\Microsoft Visual Studio\2019\Community\VC\Tools\MSVC\14.29.30133\atlmfc\include\atlsimpstr.h

; 519  : 		return( GetData()->nDataLength );

  00843	8b 70 f4	 mov	 esi, DWORD PTR [eax-12]
; File D:\git\src\IBK\IBK_DRFN\ProjSrc\SrcChartEx\ChartAddIn\ChartOutsideCustomAddIn\ChartOutsideCustomAddIn\OrderLineAddinImp.cpp

; 1447 : 				CString strValue;

  00846	ff 15 00 00 00
	00		 call	 DWORD PTR __imp_??0?$CStringT@DV?$StrTraitMFC_DLL@DV?$ChTraitsCRT@D@ATL@@@@@ATL@@QAE@XZ

; 1448 : 				CString strFormat;

  0084c	8d 4d c8	 lea	 ecx, DWORD PTR _strFormat$29[ebp]
  0084f	ff 15 00 00 00
	00		 call	 DWORD PTR __imp_??0?$CStringT@DV?$StrTraitMFC_DLL@DV?$ChTraitsCRT@D@ATL@@@@@ATL@@QAE@XZ

; 1449 : 				strFormat.Format("%%.%dlf", nTypeLength);

  00855	56		 push	 esi
  00856	8b 35 00 00 00
	00		 mov	 esi, DWORD PTR __imp_?Format@?$CStringT@DV?$StrTraitMFC_DLL@DV?$ChTraitsCRT@D@ATL@@@@@ATL@@QAAXPBDZZ
  0085c	8d 45 c8	 lea	 eax, DWORD PTR _strFormat$29[ebp]
  0085f	68 00 00 00 00	 push	 OFFSET ??_C@_07EEGHAAJM@?$CF?$CF?4?$CFdlf@
  00864	50		 push	 eax
  00865	c6 45 fc 07	 mov	 BYTE PTR __$EHRec$[ebp+8], 7
  00869	ff d6		 call	 esi

; 1450 : 				strValue.Format(strFormat, dYValue);

  0086b	f2 0f 10 45 b8	 movsd	 xmm0, QWORD PTR _dYValue$[ebp]
  00870	8d 45 c4	 lea	 eax, DWORD PTR _strValue$26[ebp]
  00873	83 c4 04	 add	 esp, 4
  00876	f2 0f 11 04 24	 movsd	 QWORD PTR [esp], xmm0
  0087b	ff 75 c8	 push	 DWORD PTR _strFormat$29[ebp]
  0087e	50		 push	 eax
  0087f	ff d6		 call	 esi

; 1451 : 				double dEntry = atof(strValue);

  00881	ff 75 c4	 push	 DWORD PTR _strValue$26[ebp]
  00884	ff 15 00 00 00
	00		 call	 DWORD PTR __imp__atof

; 1452 : 			//	dEntry = floor( (dEntry*pow(10, nTypeLength)+0.5) / pow(10, nTypeLength));
; 1453 : 				m_pIChartOCX->OnOrderInfomationChanged(dEntry, 1, ORDERTYPE_ENTRY, "", nRet==100 ? "0" : "1", "", "");

  0088a	83 c4 10	 add	 esp, 16			; 00000010H
  0088d	8b cc		 mov	 ecx, esp
  0088f	89 65 cc	 mov	 DWORD PTR $T38[ebp], esp
  00892	dd 5d e8	 fstp	 QWORD PTR _dEntry$42[ebp]
  00895	68 00 00 00 00	 push	 OFFSET ??_C@_00CNPNBAHC@@
  0089a	ff 15 00 00 00
	00		 call	 DWORD PTR __imp_??0?$CStringT@DV?$StrTraitMFC_DLL@DV?$ChTraitsCRT@D@ATL@@@@@ATL@@QAE@PBD@Z
  008a0	51		 push	 ecx
  008a1	8b cc		 mov	 ecx, esp
  008a3	89 65 ac	 mov	 DWORD PTR $T8[ebp], esp
  008a6	68 00 00 00 00	 push	 OFFSET ??_C@_00CNPNBAHC@@
  008ab	c6 45 fc 08	 mov	 BYTE PTR __$EHRec$[ebp+8], 8
  008af	ff 15 00 00 00
	00		 call	 DWORD PTR __imp_??0?$CStringT@DV?$StrTraitMFC_DLL@DV?$ChTraitsCRT@D@ATL@@@@@ATL@@QAE@PBD@Z
  008b5	51		 push	 ecx
  008b6	ba 00 00 00 00	 mov	 edx, OFFSET ??_C@_01HIHLOKLC@1@
  008bb	c6 45 fc 09	 mov	 BYTE PTR __$EHRec$[ebp+8], 9
  008bf	83 ff 64	 cmp	 edi, 100		; 00000064H
  008c2	b8 00 00 00 00	 mov	 eax, OFFSET ??_C@_01GBGANLPD@0@
  008c7	8b cc		 mov	 ecx, esp
  008c9	0f 45 c2	 cmovne	 eax, edx
  008cc	50		 push	 eax
  008cd	ff 15 00 00 00
	00		 call	 DWORD PTR __imp_??0?$CStringT@DV?$StrTraitMFC_DLL@DV?$ChTraitsCRT@D@ATL@@@@@ATL@@QAE@PBD@Z
  008d3	8b 43 04	 mov	 eax, DWORD PTR [ebx+4]
  008d6	68 00 00 00 00	 push	 OFFSET ??_C@_00CNPNBAHC@@
  008db	6a 01		 push	 1
  008dd	6a 01		 push	 1
  008df	8b 00		 mov	 eax, DWORD PTR [eax]
  008e1	83 ec 08	 sub	 esp, 8
  008e4	f2 0f 10 45 e8	 movsd	 xmm0, QWORD PTR _dEntry$42[ebp]
  008e9	c6 45 fc 07	 mov	 BYTE PTR __$EHRec$[ebp+8], 7
  008ed	8b 4b 04	 mov	 ecx, DWORD PTR [ebx+4]
  008f0	f2 0f 11 04 24	 movsd	 QWORD PTR [esp], xmm0
  008f5	ff 90 64 02 00
	00		 call	 DWORD PTR [eax+612]

; 1454 : 				break;	

  008fb	8d 4d c8	 lea	 ecx, DWORD PTR _strFormat$29[ebp]
  008fe	ff 15 00 00 00
	00		 call	 DWORD PTR __imp_??1?$CStringT@DV?$StrTraitMFC_DLL@DV?$ChTraitsCRT@D@ATL@@@@@ATL@@QAE@XZ
  00904	8d 4d c4	 lea	 ecx, DWORD PTR _strValue$26[ebp]
$LN298@OnRButtonU:
; File C:\Program Files (x86)\Microsoft Visual Studio\2019\Community\VC\Tools\MSVC\14.29.30133\atlmfc\include\afxwin1.inl

; 905  : 	{ DestroyMenu(); }

  00907	ff 15 00 00 00
	00		 call	 DWORD PTR __imp_??1?$CStringT@DV?$StrTraitMFC_DLL@DV?$ChTraitsCRT@D@ATL@@@@@ATL@@QAE@XZ
  0090d	8d 4d a4	 lea	 ecx, DWORD PTR _szIStr$4[ebp]
  00910	e8 00 00 00 00	 call	 ??1ILPCSTR003531@@QAE@XZ ; ILPCSTR003531::~ILPCSTR003531
  00915	8d 4d c0	 lea	 ecx, DWORD PTR _strType$16[ebp]
  00918	ff 15 00 00 00
	00		 call	 DWORD PTR __imp_??1?$CStringT@DV?$StrTraitMFC_DLL@DV?$ChTraitsCRT@D@ATL@@@@@ATL@@QAE@XZ
  0091e	e9 f9 01 00 00	 jmp	 $LN2@OnRButtonU
$LN23@OnRButtonU:
; File D:\git\src\IBK\IBK_DRFN\ProjSrc\SrcChartEx\ChartAddIn\ChartOutsideCustomAddIn\ChartOutsideCustomAddIn\OrderLineAddinImp.cpp

; 1459 : 				IPacket *pIPacket = m_pIDefaultPacketManager->GetPacket( _MTEXT( C0_CLOSE ));

  00923	8b 4b 18	 mov	 ecx, DWORD PTR [ebx+24]
  00926	a1 54 00 00 00	 mov	 eax, DWORD PTR ?g_iMetaTable@@3VIMetaTable@@A+84
  0092b	8b 11		 mov	 edx, DWORD PTR [ecx]
  0092d	ff 70 14	 push	 DWORD PTR [eax+20]
  00930	ff 52 10	 call	 DWORD PTR [edx+16]
  00933	8b f0		 mov	 esi, eax

; 1460 : 				if( !pIPacket) return FALSE;

  00935	85 f6		 test	 esi, esi
  00937	75 09		 jne	 SHORT $LN25@OnRButtonU
$LN102@OnRButtonU:
; File C:\Program Files (x86)\Microsoft Visual Studio\2019\Community\VC\Tools\MSVC\14.29.30133\atlmfc\include\afxwin1.inl

; 905  : 	{ DestroyMenu(); }

  00939	c6 45 fc 0a	 mov	 BYTE PTR __$EHRec$[ebp+8], 10 ; 0000000aH
  0093d	e9 de 01 00 00	 jmp	 $LN299@OnRButtonU
$LN25@OnRButtonU:
; File D:\git\src\IBK\IBK_DRFN\ProjSrc\SrcChartEx\ChartAddIn\ChartOutsideCustomAddIn\ChartOutsideCustomAddIn\OrderLineAddinImp.cpp

; 1462 : 				CString strType;

  00942	8d 4d c0	 lea	 ecx, DWORD PTR _strType$15[ebp]
  00945	ff 15 00 00 00
	00		 call	 DWORD PTR __imp_??0?$CStringT@DV?$StrTraitMFC_DLL@DV?$ChTraitsCRT@D@ATL@@@@@ATL@@QAE@XZ

; 1463 : 				ILPCSTR szIStr = pIPacket->GetType();

  0094b	8b 06		 mov	 eax, DWORD PTR [esi]
  0094d	8b ce		 mov	 ecx, esi
  0094f	6a 01		 push	 1
  00951	c6 45 fc 0b	 mov	 BYTE PTR __$EHRec$[ebp+8], 11 ; 0000000bH
  00955	ff 50 1c	 call	 DWORD PTR [eax+28]
; File D:\git\src\IBK\IBK_DRFN\ProjSrc\SrcChartEx\ChartAddIn\ChartOutsideCustomAddIn\Include_AddIn\I003531\_IString.h

; 39   : 		m_pIStrData = p_pIString;	// Do not AddRef(). Because It must be Return Value.

  00958	89 45 a8	 mov	 DWORD PTR _szIStr$3[ebp+4], eax

; 40   : 		if( m_pIStrData) m_szData = m_pIStrData->GetData();

  0095b	85 c0		 test	 eax, eax
  0095d	74 09		 je	 SHORT $LN177@OnRButtonU
  0095f	8b 10		 mov	 edx, DWORD PTR [eax]
  00961	8b c8		 mov	 ecx, eax
  00963	ff 52 10	 call	 DWORD PTR [edx+16]
  00966	eb 02		 jmp	 SHORT $LN296@OnRButtonU
$LN177@OnRButtonU:

; 41   : 		else m_szData = NULL;

  00968	33 c0		 xor	 eax, eax
$LN296@OnRButtonU:
; File D:\git\src\IBK\IBK_DRFN\ProjSrc\SrcChartEx\ChartAddIn\ChartOutsideCustomAddIn\ChartOutsideCustomAddIn\OrderLineAddinImp.cpp

; 1463 : 				ILPCSTR szIStr = pIPacket->GetType();

  0096a	89 45 a4	 mov	 DWORD PTR _szIStr$3[ebp], eax

; 1464 : 				strType = (LPCTSTR)szIStr;

  0096d	50		 push	 eax
  0096e	8d 4d c0	 lea	 ecx, DWORD PTR _strType$15[ebp]
  00971	c6 45 fc 0c	 mov	 BYTE PTR __$EHRec$[ebp+8], 12 ; 0000000cH
  00975	ff 15 00 00 00
	00		 call	 DWORD PTR __imp_??4?$CStringT@DV?$StrTraitMFC_DLL@DV?$ChTraitsCRT@D@ATL@@@@@ATL@@QAEAAV01@PBD@Z

; 1466 : 				int nFindIndex = strType.Find(".") + 1;

  0097b	6a 00		 push	 0
  0097d	68 00 00 00 00	 push	 OFFSET ??_C@_01LFCBOECM@?4@
  00982	8d 4d c0	 lea	 ecx, DWORD PTR _strType$15[ebp]
  00985	ff 15 00 00 00
	00		 call	 DWORD PTR __imp_?Find@?$CStringT@DV?$StrTraitMFC_DLL@DV?$ChTraitsCRT@D@ATL@@@@@ATL@@QBEHPBDH@Z
; File C:\Program Files (x86)\Microsoft Visual Studio\2019\Community\VC\Tools\MSVC\14.29.30133\atlmfc\include\atlsimpstr.h

; 519  : 		return( GetData()->nDataLength );

  0098b	8b 4d c0	 mov	 ecx, DWORD PTR _strType$15[ebp]
; File D:\git\src\IBK\IBK_DRFN\ProjSrc\SrcChartEx\ChartAddIn\ChartOutsideCustomAddIn\ChartOutsideCustomAddIn\OrderLineAddinImp.cpp

; 1466 : 				int nFindIndex = strType.Find(".") + 1;

  0098e	40		 inc	 eax
; File C:\Program Files (x86)\Microsoft Visual Studio\2019\Community\VC\Tools\MSVC\14.29.30133\atlmfc\include\atlsimpstr.h

; 519  : 		return( GetData()->nDataLength );

  0098f	8b 49 f4	 mov	 ecx, DWORD PTR [ecx-12]
; File D:\git\src\IBK\IBK_DRFN\ProjSrc\SrcChartEx\ChartAddIn\ChartOutsideCustomAddIn\ChartOutsideCustomAddIn\OrderLineAddinImp.cpp

; 1467 : 				strType = strType.Mid(nFindIndex, strType.GetLength() - nFindIndex + 1);

  00992	2b c8		 sub	 ecx, eax
  00994	41		 inc	 ecx
  00995	51		 push	 ecx
  00996	50		 push	 eax
  00997	8d 45 cc	 lea	 eax, DWORD PTR $T37[ebp]
  0099a	50		 push	 eax
  0099b	8d 4d c0	 lea	 ecx, DWORD PTR _strType$15[ebp]
  0099e	ff 15 00 00 00
	00		 call	 DWORD PTR __imp_?Mid@?$CStringT@DV?$StrTraitMFC_DLL@DV?$ChTraitsCRT@D@ATL@@@@@ATL@@QBE?AV12@HH@Z
  009a4	50		 push	 eax
  009a5	8d 4d c0	 lea	 ecx, DWORD PTR _strType$15[ebp]
  009a8	c6 45 fc 0d	 mov	 BYTE PTR __$EHRec$[ebp+8], 13 ; 0000000dH
  009ac	ff 15 00 00 00
	00		 call	 DWORD PTR __imp_??4?$CStringT@DV?$StrTraitMFC_DLL@DV?$ChTraitsCRT@D@ATL@@@@@ATL@@QAEAAV01@ABV01@@Z
  009b2	8d 4d cc	 lea	 ecx, DWORD PTR $T37[ebp]
  009b5	ff 15 00 00 00
	00		 call	 DWORD PTR __imp_??1?$CStringT@DV?$StrTraitMFC_DLL@DV?$ChTraitsCRT@D@ATL@@@@@ATL@@QAE@XZ
; File C:\Program Files (x86)\Microsoft Visual Studio\2019\Community\VC\Tools\MSVC\14.29.30133\atlmfc\include\atlsimpstr.h

; 519  : 		return( GetData()->nDataLength );

  009bb	8b 45 c0	 mov	 eax, DWORD PTR _strType$15[ebp]
; File D:\git\src\IBK\IBK_DRFN\ProjSrc\SrcChartEx\ChartAddIn\ChartOutsideCustomAddIn\ChartOutsideCustomAddIn\OrderLineAddinImp.cpp

; 1470 : 				CString strValue;

  009be	8d 4d c8	 lea	 ecx, DWORD PTR _strValue$28[ebp]
; File C:\Program Files (x86)\Microsoft Visual Studio\2019\Community\VC\Tools\MSVC\14.29.30133\atlmfc\include\atlsimpstr.h

; 519  : 		return( GetData()->nDataLength );

  009c1	8b 70 f4	 mov	 esi, DWORD PTR [eax-12]
; File D:\git\src\IBK\IBK_DRFN\ProjSrc\SrcChartEx\ChartAddIn\ChartOutsideCustomAddIn\ChartOutsideCustomAddIn\OrderLineAddinImp.cpp

; 1470 : 				CString strValue;

  009c4	ff 15 00 00 00
	00		 call	 DWORD PTR __imp_??0?$CStringT@DV?$StrTraitMFC_DLL@DV?$ChTraitsCRT@D@ATL@@@@@ATL@@QAE@XZ

; 1471 : 				CString strFormat;

  009ca	8d 4d c4	 lea	 ecx, DWORD PTR _strFormat$25[ebp]
  009cd	ff 15 00 00 00
	00		 call	 DWORD PTR __imp_??0?$CStringT@DV?$StrTraitMFC_DLL@DV?$ChTraitsCRT@D@ATL@@@@@ATL@@QAE@XZ

; 1472 : 				strFormat.Format("%%.%dlf", nTypeLength);

  009d3	56		 push	 esi
  009d4	8b 35 00 00 00
	00		 mov	 esi, DWORD PTR __imp_?Format@?$CStringT@DV?$StrTraitMFC_DLL@DV?$ChTraitsCRT@D@ATL@@@@@ATL@@QAAXPBDZZ
  009da	8d 45 c4	 lea	 eax, DWORD PTR _strFormat$25[ebp]
  009dd	68 00 00 00 00	 push	 OFFSET ??_C@_07EEGHAAJM@?$CF?$CF?4?$CFdlf@
  009e2	50		 push	 eax
  009e3	c6 45 fc 0f	 mov	 BYTE PTR __$EHRec$[ebp+8], 15 ; 0000000fH
  009e7	ff d6		 call	 esi

; 1473 : 				strValue.Format(strFormat, dYValue);

  009e9	f2 0f 10 45 b8	 movsd	 xmm0, QWORD PTR _dYValue$[ebp]
  009ee	8d 45 c8	 lea	 eax, DWORD PTR _strValue$28[ebp]
  009f1	83 c4 04	 add	 esp, 4
  009f4	f2 0f 11 04 24	 movsd	 QWORD PTR [esp], xmm0
  009f9	ff 75 c4	 push	 DWORD PTR _strFormat$25[ebp]
  009fc	50		 push	 eax
  009fd	ff d6		 call	 esi

; 1474 : 				double dEntry = atof(strValue);

  009ff	ff 75 c8	 push	 DWORD PTR _strValue$28[ebp]
  00a02	ff 15 00 00 00
	00		 call	 DWORD PTR __imp__atof

; 1475 : 			//	dEntry = floor( (dEntry*pow(10, nTypeLength)+0.5) / pow(10, nTypeLength));
; 1476 : 				m_pIChartOCX->OnOrderInfomationChanged(dEntry, 1, ORDERTYPE_CROSS_ENTRY, "", nRet==102 ? "0" : "1", "", "");

  00a08	83 c4 10	 add	 esp, 16			; 00000010H
  00a0b	8b cc		 mov	 ecx, esp
  00a0d	89 65 bc	 mov	 DWORD PTR $T14[ebp], esp
  00a10	dd 5d e8	 fstp	 QWORD PTR _dEntry$41[ebp]
  00a13	68 00 00 00 00	 push	 OFFSET ??_C@_00CNPNBAHC@@
  00a18	ff 15 00 00 00
	00		 call	 DWORD PTR __imp_??0?$CStringT@DV?$StrTraitMFC_DLL@DV?$ChTraitsCRT@D@ATL@@@@@ATL@@QAE@PBD@Z
  00a1e	51		 push	 ecx
  00a1f	8b cc		 mov	 ecx, esp
  00a21	89 65 ac	 mov	 DWORD PTR $T7[ebp], esp
  00a24	68 00 00 00 00	 push	 OFFSET ??_C@_00CNPNBAHC@@
  00a29	c6 45 fc 10	 mov	 BYTE PTR __$EHRec$[ebp+8], 16 ; 00000010H
  00a2d	ff 15 00 00 00
	00		 call	 DWORD PTR __imp_??0?$CStringT@DV?$StrTraitMFC_DLL@DV?$ChTraitsCRT@D@ATL@@@@@ATL@@QAE@PBD@Z
  00a33	51		 push	 ecx
  00a34	ba 00 00 00 00	 mov	 edx, OFFSET ??_C@_01HIHLOKLC@1@
  00a39	c6 45 fc 11	 mov	 BYTE PTR __$EHRec$[ebp+8], 17 ; 00000011H
  00a3d	83 ff 66	 cmp	 edi, 102		; 00000066H
  00a40	b8 00 00 00 00	 mov	 eax, OFFSET ??_C@_01GBGANLPD@0@
  00a45	8b cc		 mov	 ecx, esp
  00a47	0f 45 c2	 cmovne	 eax, edx
  00a4a	50		 push	 eax
  00a4b	ff 15 00 00 00
	00		 call	 DWORD PTR __imp_??0?$CStringT@DV?$StrTraitMFC_DLL@DV?$ChTraitsCRT@D@ATL@@@@@ATL@@QAE@PBD@Z
  00a51	8b 43 04	 mov	 eax, DWORD PTR [ebx+4]
  00a54	68 00 00 00 00	 push	 OFFSET ??_C@_00CNPNBAHC@@
  00a59	6a 0d		 push	 13			; 0000000dH
  00a5b	6a 01		 push	 1
  00a5d	8b 00		 mov	 eax, DWORD PTR [eax]
  00a5f	83 ec 08	 sub	 esp, 8
  00a62	f2 0f 10 45 e8	 movsd	 xmm0, QWORD PTR _dEntry$41[ebp]
  00a67	c6 45 fc 0f	 mov	 BYTE PTR __$EHRec$[ebp+8], 15 ; 0000000fH
  00a6b	8b 4b 04	 mov	 ecx, DWORD PTR [ebx+4]
  00a6e	f2 0f 11 04 24	 movsd	 QWORD PTR [esp], xmm0
  00a73	ff 90 64 02 00
	00		 call	 DWORD PTR [eax+612]

; 1477 : 				break;

  00a79	8d 4d c4	 lea	 ecx, DWORD PTR _strFormat$25[ebp]
  00a7c	ff 15 00 00 00
	00		 call	 DWORD PTR __imp_??1?$CStringT@DV?$StrTraitMFC_DLL@DV?$ChTraitsCRT@D@ATL@@@@@ATL@@QAE@XZ
  00a82	8d 4d c8	 lea	 ecx, DWORD PTR _strValue$28[ebp]
  00a85	e9 7d fe ff ff	 jmp	 $LN298@OnRButtonU
$LN26@OnRButtonU:

; 1478 : 			}
; 1479 : 		case 104:		//  
; 1480 : 			{						
; 1481 : 				m_pIChartOCX->OnOrderInfomationChanged(0, 1, ORDERTYPE_MARKET, "", "0", "", "");

  00a8a	51		 push	 ecx
  00a8b	8b cc		 mov	 ecx, esp
  00a8d	89 65 bc	 mov	 DWORD PTR $T13[ebp], esp
  00a90	68 00 00 00 00	 push	 OFFSET ??_C@_00CNPNBAHC@@
  00a95	ff 15 00 00 00
	00		 call	 DWORD PTR __imp_??0?$CStringT@DV?$StrTraitMFC_DLL@DV?$ChTraitsCRT@D@ATL@@@@@ATL@@QAE@PBD@Z
  00a9b	51		 push	 ecx
  00a9c	8b cc		 mov	 ecx, esp
  00a9e	89 65 ac	 mov	 DWORD PTR $T6[ebp], esp
  00aa1	68 00 00 00 00	 push	 OFFSET ??_C@_00CNPNBAHC@@
  00aa6	c6 45 fc 12	 mov	 BYTE PTR __$EHRec$[ebp+8], 18 ; 00000012H
  00aaa	ff 15 00 00 00
	00		 call	 DWORD PTR __imp_??0?$CStringT@DV?$StrTraitMFC_DLL@DV?$ChTraitsCRT@D@ATL@@@@@ATL@@QAE@PBD@Z
  00ab0	51		 push	 ecx
  00ab1	8b cc		 mov	 ecx, esp
  00ab3	c6 45 fc 13	 mov	 BYTE PTR __$EHRec$[ebp+8], 19 ; 00000013H
  00ab7	68 00 00 00 00	 push	 OFFSET ??_C@_01GBGANLPD@0@

; 1482 : 				break;

  00abc	eb 32		 jmp	 SHORT $LN297@OnRButtonU
$LN27@OnRButtonU:

; 1483 : 			}
; 1484 : 		case 105:		//  
; 1485 : 			{						
; 1486 : 				m_pIChartOCX->OnOrderInfomationChanged(0, 1, ORDERTYPE_MARKET, "", "1", "", "");

  00abe	51		 push	 ecx
  00abf	8b cc		 mov	 ecx, esp
  00ac1	89 65 bc	 mov	 DWORD PTR $T12[ebp], esp
  00ac4	68 00 00 00 00	 push	 OFFSET ??_C@_00CNPNBAHC@@
  00ac9	ff 15 00 00 00
	00		 call	 DWORD PTR __imp_??0?$CStringT@DV?$StrTraitMFC_DLL@DV?$ChTraitsCRT@D@ATL@@@@@ATL@@QAE@PBD@Z
  00acf	51		 push	 ecx
  00ad0	8b cc		 mov	 ecx, esp
  00ad2	89 65 ac	 mov	 DWORD PTR $T5[ebp], esp
  00ad5	68 00 00 00 00	 push	 OFFSET ??_C@_00CNPNBAHC@@
  00ada	c6 45 fc 14	 mov	 BYTE PTR __$EHRec$[ebp+8], 20 ; 00000014H
  00ade	ff 15 00 00 00
	00		 call	 DWORD PTR __imp_??0?$CStringT@DV?$StrTraitMFC_DLL@DV?$ChTraitsCRT@D@ATL@@@@@ATL@@QAE@PBD@Z
  00ae4	51		 push	 ecx
  00ae5	8b cc		 mov	 ecx, esp
  00ae7	c6 45 fc 15	 mov	 BYTE PTR __$EHRec$[ebp+8], 21 ; 00000015H
  00aeb	68 00 00 00 00	 push	 OFFSET ??_C@_01HIHLOKLC@1@
$LN297@OnRButtonU:
; File C:\Program Files (x86)\Microsoft Visual Studio\2019\Community\VC\Tools\MSVC\14.29.30133\atlmfc\include\afxwin1.inl

; 905  : 	{ DestroyMenu(); }

  00af0	ff 15 00 00 00
	00		 call	 DWORD PTR __imp_??0?$CStringT@DV?$StrTraitMFC_DLL@DV?$ChTraitsCRT@D@ATL@@@@@ATL@@QAE@PBD@Z
  00af6	8b 43 04	 mov	 eax, DWORD PTR [ebx+4]
  00af9	0f 57 c0	 xorps	 xmm0, xmm0
  00afc	68 00 00 00 00	 push	 OFFSET ??_C@_00CNPNBAHC@@
  00b01	6a 00		 push	 0
  00b03	6a 01		 push	 1
  00b05	8b 00		 mov	 eax, DWORD PTR [eax]
  00b07	83 ec 08	 sub	 esp, 8
  00b0a	c6 45 fc 01	 mov	 BYTE PTR __$EHRec$[ebp+8], 1
  00b0e	8b 4b 04	 mov	 ecx, DWORD PTR [ebx+4]
  00b11	f2 0f 11 04 24	 movsd	 QWORD PTR [esp], xmm0
  00b16	ff 90 64 02 00
	00		 call	 DWORD PTR [eax+612]
$LN2@OnRButtonU:
  00b1c	c6 45 fc 16	 mov	 BYTE PTR __$EHRec$[ebp+8], 22 ; 00000016H
$LN299@OnRButtonU:
; File D:\git\src\IBK\IBK_DRFN\ProjSrc\SrcChartEx\ChartAddIn\ChartOutsideCustomAddIn\Include_AddIn\I003531\_IString.h

; 44   : 	{

  00b20	8d 4d b0	 lea	 ecx, DWORD PTR _menu$10[ebp]
  00b23	c7 45 b0 00 00
	00 00		 mov	 DWORD PTR _menu$10[ebp], OFFSET ??_7CMenu@@6B@
$LN294@OnRButtonU:
  00b2a	e8 00 00 00 00	 call	 ?DestroyMenu@CMenu@@QAEHXZ ; CMenu::DestroyMenu
$LN14@OnRButtonU:
  00b2f	33 f6		 xor	 esi, esi
$LN104@OnRButtonU:

; 45   : 		if( m_pIStrData)

  00b31	8b 45 8c	 mov	 eax, DWORD PTR _szGraphName$[ebp+4]
  00b34	c7 45 fc 27 00
	00 00		 mov	 DWORD PTR __$EHRec$[ebp+8], 39 ; 00000027H
  00b3b	85 c0		 test	 eax, eax
  00b3d	74 06		 je	 SHORT $LN269@OnRButtonU

; 46   : 		{
; 47   : 			m_pIStrData->Release();

  00b3f	8b 08		 mov	 ecx, DWORD PTR [eax]
  00b41	50		 push	 eax
  00b42	ff 51 08	 call	 DWORD PTR [ecx+8]
$LN269@OnRButtonU:
; File D:\git\src\IBK\IBK_DRFN\ProjSrc\SrcChartEx\ChartAddIn\ChartOutsideCustomAddIn\ChartOutsideCustomAddIn\OrderLineAddinImp.cpp

; 1630 : 	return FALSE;

  00b45	8b c6		 mov	 eax, esi
  00b47	eb 02		 jmp	 SHORT $LN1@OnRButtonU
$LN8@OnRButtonU:

; 1349 : 		return FALSE;

  00b49	33 c0		 xor	 eax, eax
$LN1@OnRButtonU:

; 1631 : }

  00b4b	8b 4d f4	 mov	 ecx, DWORD PTR __$EHRec$[ebp]
  00b4e	64 89 0d 00 00
	00 00		 mov	 DWORD PTR fs:0, ecx
  00b55	59		 pop	 ecx
  00b56	5f		 pop	 edi
  00b57	5e		 pop	 esi
  00b58	5b		 pop	 ebx
  00b59	8b 4d f0	 mov	 ecx, DWORD PTR __$ArrayPad$[ebp]
  00b5c	33 cd		 xor	 ecx, ebp
  00b5e	e8 00 00 00 00	 call	 @__security_check_cookie@4
  00b63	8b e5		 mov	 esp, ebp
  00b65	5d		 pop	 ebp
  00b66	c2 10 00	 ret	 16			; 00000010H
  00b69	0f 1f 00	 npad	 3
$LN286@OnRButtonU:
  00b6c	00 00 00 00	 DD	 $LN42@OnRButtonU
  00b70	00 00 00 00	 DD	 $LN43@OnRButtonU
  00b74	00 00 00 00	 DD	 $LN44@OnRButtonU
  00b78	00 00 00 00	 DD	 $LN45@OnRButtonU
  00b7c	00 00 00 00	 DD	 $LN46@OnRButtonU
  00b80	00 00 00 00	 DD	 $LN47@OnRButtonU
  00b84	00 00 00 00	 DD	 $LN48@OnRButtonU
$LN287@OnRButtonU:
  00b88	00 00 00 00	 DD	 $LN20@OnRButtonU
  00b8c	00 00 00 00	 DD	 $LN20@OnRButtonU
  00b90	00 00 00 00	 DD	 $LN23@OnRButtonU
  00b94	00 00 00 00	 DD	 $LN23@OnRButtonU
  00b98	00 00 00 00	 DD	 $LN26@OnRButtonU
  00b9c	00 00 00 00	 DD	 $LN27@OnRButtonU
_TEXT	ENDS
;	COMDAT text$x
text$x	SEGMENT
__unwindfunclet$?OnRButtonUp@COrderLineAddInImp@@MAEHPAUHDC__@@IAAUtagPOINT@@K@Z$0:
  00000	8d 4d 88	 lea	 ecx, DWORD PTR _szGraphName$[ebp]
  00003	e9 00 00 00 00	 jmp	 ??1ILPCSTR003531@@QAE@XZ ; ILPCSTR003531::~ILPCSTR003531
__unwindfunclet$?OnRButtonUp@COrderLineAddInImp@@MAEHPAUHDC__@@IAAUtagPOINT@@K@Z$24:
  00008	8d 4d b8	 lea	 ecx, DWORD PTR _menu$11[ebp]
  0000b	e9 00 00 00 00	 jmp	 ??1CMenu@@UAE@XZ	; CMenu::~CMenu
__unwindfunclet$?OnRButtonUp@COrderLineAddInImp@@MAEHPAUHDC__@@IAAUtagPOINT@@K@Z$25:
  00010	8b 4d cc	 mov	 ecx, DWORD PTR $T36[ebp]
  00013	ff 25 00 00 00
	00		 jmp	 DWORD PTR __imp_??1?$CStringT@DV?$StrTraitMFC_DLL@DV?$ChTraitsCRT@D@ATL@@@@@ATL@@QAE@XZ
__unwindfunclet$?OnRButtonUp@COrderLineAddInImp@@MAEHPAUHDC__@@IAAUtagPOINT@@K@Z$26:
  00019	8b 4d c4	 mov	 ecx, DWORD PTR $T24[ebp]
  0001c	ff 25 00 00 00
	00		 jmp	 DWORD PTR __imp_??1?$CStringT@DV?$StrTraitMFC_DLL@DV?$ChTraitsCRT@D@ATL@@@@@ATL@@QAE@XZ
__unwindfunclet$?OnRButtonUp@COrderLineAddInImp@@MAEHPAUHDC__@@IAAUtagPOINT@@K@Z$28:
  00022	8b 4d cc	 mov	 ecx, DWORD PTR $T35[ebp]
  00025	ff 25 00 00 00
	00		 jmp	 DWORD PTR __imp_??1?$CStringT@DV?$StrTraitMFC_DLL@DV?$ChTraitsCRT@D@ATL@@@@@ATL@@QAE@XZ
__unwindfunclet$?OnRButtonUp@COrderLineAddInImp@@MAEHPAUHDC__@@IAAUtagPOINT@@K@Z$29:
  0002b	8b 4d c4	 mov	 ecx, DWORD PTR $T23[ebp]
  0002e	ff 25 00 00 00
	00		 jmp	 DWORD PTR __imp_??1?$CStringT@DV?$StrTraitMFC_DLL@DV?$ChTraitsCRT@D@ATL@@@@@ATL@@QAE@XZ
__unwindfunclet$?OnRButtonUp@COrderLineAddInImp@@MAEHPAUHDC__@@IAAUtagPOINT@@K@Z$31:
  00034	8b 4d cc	 mov	 ecx, DWORD PTR $T34[ebp]
  00037	ff 25 00 00 00
	00		 jmp	 DWORD PTR __imp_??1?$CStringT@DV?$StrTraitMFC_DLL@DV?$ChTraitsCRT@D@ATL@@@@@ATL@@QAE@XZ
__unwindfunclet$?OnRButtonUp@COrderLineAddInImp@@MAEHPAUHDC__@@IAAUtagPOINT@@K@Z$32:
  0003d	8b 4d c4	 mov	 ecx, DWORD PTR $T22[ebp]
  00040	ff 25 00 00 00
	00		 jmp	 DWORD PTR __imp_??1?$CStringT@DV?$StrTraitMFC_DLL@DV?$ChTraitsCRT@D@ATL@@@@@ATL@@QAE@XZ
__unwindfunclet$?OnRButtonUp@COrderLineAddInImp@@MAEHPAUHDC__@@IAAUtagPOINT@@K@Z$34:
  00046	8b 4d cc	 mov	 ecx, DWORD PTR $T33[ebp]
  00049	ff 25 00 00 00
	00		 jmp	 DWORD PTR __imp_??1?$CStringT@DV?$StrTraitMFC_DLL@DV?$ChTraitsCRT@D@ATL@@@@@ATL@@QAE@XZ
__unwindfunclet$?OnRButtonUp@COrderLineAddInImp@@MAEHPAUHDC__@@IAAUtagPOINT@@K@Z$35:
  0004f	8b 4d c4	 mov	 ecx, DWORD PTR $T21[ebp]
  00052	ff 25 00 00 00
	00		 jmp	 DWORD PTR __imp_??1?$CStringT@DV?$StrTraitMFC_DLL@DV?$ChTraitsCRT@D@ATL@@@@@ATL@@QAE@XZ
__unwindfunclet$?OnRButtonUp@COrderLineAddInImp@@MAEHPAUHDC__@@IAAUtagPOINT@@K@Z$37:
  00058	8b 4d cc	 mov	 ecx, DWORD PTR $T32[ebp]
  0005b	ff 25 00 00 00
	00		 jmp	 DWORD PTR __imp_??1?$CStringT@DV?$StrTraitMFC_DLL@DV?$ChTraitsCRT@D@ATL@@@@@ATL@@QAE@XZ
__unwindfunclet$?OnRButtonUp@COrderLineAddInImp@@MAEHPAUHDC__@@IAAUtagPOINT@@K@Z$38:
  00061	8b 4d c4	 mov	 ecx, DWORD PTR $T20[ebp]
  00064	ff 25 00 00 00
	00		 jmp	 DWORD PTR __imp_??1?$CStringT@DV?$StrTraitMFC_DLL@DV?$ChTraitsCRT@D@ATL@@@@@ATL@@QAE@XZ
__unwindfunclet$?OnRButtonUp@COrderLineAddInImp@@MAEHPAUHDC__@@IAAUtagPOINT@@K@Z$40:
  0006a	8b 4d cc	 mov	 ecx, DWORD PTR $T31[ebp]
  0006d	ff 25 00 00 00
	00		 jmp	 DWORD PTR __imp_??1?$CStringT@DV?$StrTraitMFC_DLL@DV?$ChTraitsCRT@D@ATL@@@@@ATL@@QAE@XZ
__unwindfunclet$?OnRButtonUp@COrderLineAddInImp@@MAEHPAUHDC__@@IAAUtagPOINT@@K@Z$41:
  00073	8b 4d c4	 mov	 ecx, DWORD PTR $T19[ebp]
  00076	ff 25 00 00 00
	00		 jmp	 DWORD PTR __imp_??1?$CStringT@DV?$StrTraitMFC_DLL@DV?$ChTraitsCRT@D@ATL@@@@@ATL@@QAE@XZ
__unwindfunclet$?OnRButtonUp@COrderLineAddInImp@@MAEHPAUHDC__@@IAAUtagPOINT@@K@Z$43:
  0007c	8b 4d cc	 mov	 ecx, DWORD PTR $T30[ebp]
  0007f	ff 25 00 00 00
	00		 jmp	 DWORD PTR __imp_??1?$CStringT@DV?$StrTraitMFC_DLL@DV?$ChTraitsCRT@D@ATL@@@@@ATL@@QAE@XZ
__unwindfunclet$?OnRButtonUp@COrderLineAddInImp@@MAEHPAUHDC__@@IAAUtagPOINT@@K@Z$44:
  00085	8b 4d c4	 mov	 ecx, DWORD PTR $T18[ebp]
  00088	ff 25 00 00 00
	00		 jmp	 DWORD PTR __imp_??1?$CStringT@DV?$StrTraitMFC_DLL@DV?$ChTraitsCRT@D@ATL@@@@@ATL@@QAE@XZ
__unwindfunclet$?OnRButtonUp@COrderLineAddInImp@@MAEHPAUHDC__@@IAAUtagPOINT@@K@Z$1:
  0008e	8d 4d b0	 lea	 ecx, DWORD PTR _menu$10[ebp]
  00091	e9 00 00 00 00	 jmp	 ??1CMenu@@UAE@XZ	; CMenu::~CMenu
__unwindfunclet$?OnRButtonUp@COrderLineAddInImp@@MAEHPAUHDC__@@IAAUtagPOINT@@K@Z$2:
  00096	8d 4d c0	 lea	 ecx, DWORD PTR _strType$16[ebp]
  00099	ff 25 00 00 00
	00		 jmp	 DWORD PTR __imp_??1?$CStringT@DV?$StrTraitMFC_DLL@DV?$ChTraitsCRT@D@ATL@@@@@ATL@@QAE@XZ
__unwindfunclet$?OnRButtonUp@COrderLineAddInImp@@MAEHPAUHDC__@@IAAUtagPOINT@@K@Z$3:
  0009f	8d 4d a4	 lea	 ecx, DWORD PTR _szIStr$4[ebp]
  000a2	e9 00 00 00 00	 jmp	 ??1ILPCSTR003531@@QAE@XZ ; ILPCSTR003531::~ILPCSTR003531
__unwindfunclet$?OnRButtonUp@COrderLineAddInImp@@MAEHPAUHDC__@@IAAUtagPOINT@@K@Z$4:
  000a7	8d 4d cc	 lea	 ecx, DWORD PTR $T39[ebp]
  000aa	ff 25 00 00 00
	00		 jmp	 DWORD PTR __imp_??1?$CStringT@DV?$StrTraitMFC_DLL@DV?$ChTraitsCRT@D@ATL@@@@@ATL@@QAE@XZ
__unwindfunclet$?OnRButtonUp@COrderLineAddInImp@@MAEHPAUHDC__@@IAAUtagPOINT@@K@Z$5:
  000b0	8d 4d c4	 lea	 ecx, DWORD PTR _strValue$26[ebp]
  000b3	ff 25 00 00 00
	00		 jmp	 DWORD PTR __imp_??1?$CStringT@DV?$StrTraitMFC_DLL@DV?$ChTraitsCRT@D@ATL@@@@@ATL@@QAE@XZ
__unwindfunclet$?OnRButtonUp@COrderLineAddInImp@@MAEHPAUHDC__@@IAAUtagPOINT@@K@Z$6:
  000b9	8d 4d c8	 lea	 ecx, DWORD PTR _strFormat$29[ebp]
  000bc	ff 25 00 00 00
	00		 jmp	 DWORD PTR __imp_??1?$CStringT@DV?$StrTraitMFC_DLL@DV?$ChTraitsCRT@D@ATL@@@@@ATL@@QAE@XZ
__unwindfunclet$?OnRButtonUp@COrderLineAddInImp@@MAEHPAUHDC__@@IAAUtagPOINT@@K@Z$7:
  000c2	8b 4d cc	 mov	 ecx, DWORD PTR $T38[ebp]
  000c5	ff 25 00 00 00
	00		 jmp	 DWORD PTR __imp_??1?$CStringT@DV?$StrTraitMFC_DLL@DV?$ChTraitsCRT@D@ATL@@@@@ATL@@QAE@XZ
__unwindfunclet$?OnRButtonUp@COrderLineAddInImp@@MAEHPAUHDC__@@IAAUtagPOINT@@K@Z$8:
  000cb	8b 4d ac	 mov	 ecx, DWORD PTR $T8[ebp]
  000ce	ff 25 00 00 00
	00		 jmp	 DWORD PTR __imp_??1?$CStringT@DV?$StrTraitMFC_DLL@DV?$ChTraitsCRT@D@ATL@@@@@ATL@@QAE@XZ
__unwindfunclet$?OnRButtonUp@COrderLineAddInImp@@MAEHPAUHDC__@@IAAUtagPOINT@@K@Z$10:
  000d4	8d 4d c0	 lea	 ecx, DWORD PTR _strType$15[ebp]
  000d7	ff 25 00 00 00
	00		 jmp	 DWORD PTR __imp_??1?$CStringT@DV?$StrTraitMFC_DLL@DV?$ChTraitsCRT@D@ATL@@@@@ATL@@QAE@XZ
__unwindfunclet$?OnRButtonUp@COrderLineAddInImp@@MAEHPAUHDC__@@IAAUtagPOINT@@K@Z$11:
  000dd	8d 4d a4	 lea	 ecx, DWORD PTR _szIStr$3[ebp]
  000e0	e9 00 00 00 00	 jmp	 ??1ILPCSTR003531@@QAE@XZ ; ILPCSTR003531::~ILPCSTR003531
__unwindfunclet$?OnRButtonUp@COrderLineAddInImp@@MAEHPAUHDC__@@IAAUtagPOINT@@K@Z$12:
  000e5	8d 4d cc	 lea	 ecx, DWORD PTR $T37[ebp]
  000e8	ff 25 00 00 00
	00		 jmp	 DWORD PTR __imp_??1?$CStringT@DV?$StrTraitMFC_DLL@DV?$ChTraitsCRT@D@ATL@@@@@ATL@@QAE@XZ
__unwindfunclet$?OnRButtonUp@COrderLineAddInImp@@MAEHPAUHDC__@@IAAUtagPOINT@@K@Z$13:
  000ee	8d 4d c8	 lea	 ecx, DWORD PTR _strValue$28[ebp]
  000f1	ff 25 00 00 00
	00		 jmp	 DWORD PTR __imp_??1?$CStringT@DV?$StrTraitMFC_DLL@DV?$ChTraitsCRT@D@ATL@@@@@ATL@@QAE@XZ
__unwindfunclet$?OnRButtonUp@COrderLineAddInImp@@MAEHPAUHDC__@@IAAUtagPOINT@@K@Z$14:
  000f7	8d 4d c4	 lea	 ecx, DWORD PTR _strFormat$25[ebp]
  000fa	ff 25 00 00 00
	00		 jmp	 DWORD PTR __imp_??1?$CStringT@DV?$StrTraitMFC_DLL@DV?$ChTraitsCRT@D@ATL@@@@@ATL@@QAE@XZ
__unwindfunclet$?OnRButtonUp@COrderLineAddInImp@@MAEHPAUHDC__@@IAAUtagPOINT@@K@Z$15:
  00100	8b 4d bc	 mov	 ecx, DWORD PTR $T14[ebp]
  00103	ff 25 00 00 00
	00		 jmp	 DWORD PTR __imp_??1?$CStringT@DV?$StrTraitMFC_DLL@DV?$ChTraitsCRT@D@ATL@@@@@ATL@@QAE@XZ
__unwindfunclet$?OnRButtonUp@COrderLineAddInImp@@MAEHPAUHDC__@@IAAUtagPOINT@@K@Z$16:
  00109	8b 4d ac	 mov	 ecx, DWORD PTR $T7[ebp]
  0010c	ff 25 00 00 00
	00		 jmp	 DWORD PTR __imp_??1?$CStringT@DV?$StrTraitMFC_DLL@DV?$ChTraitsCRT@D@ATL@@@@@ATL@@QAE@XZ
__unwindfunclet$?OnRButtonUp@COrderLineAddInImp@@MAEHPAUHDC__@@IAAUtagPOINT@@K@Z$18:
  00112	8b 4d bc	 mov	 ecx, DWORD PTR $T13[ebp]
  00115	ff 25 00 00 00
	00		 jmp	 DWORD PTR __imp_??1?$CStringT@DV?$StrTraitMFC_DLL@DV?$ChTraitsCRT@D@ATL@@@@@ATL@@QAE@XZ
__unwindfunclet$?OnRButtonUp@COrderLineAddInImp@@MAEHPAUHDC__@@IAAUtagPOINT@@K@Z$19:
  0011b	8b 4d ac	 mov	 ecx, DWORD PTR $T6[ebp]
  0011e	ff 25 00 00 00
	00		 jmp	 DWORD PTR __imp_??1?$CStringT@DV?$StrTraitMFC_DLL@DV?$ChTraitsCRT@D@ATL@@@@@ATL@@QAE@XZ
__unwindfunclet$?OnRButtonUp@COrderLineAddInImp@@MAEHPAUHDC__@@IAAUtagPOINT@@K@Z$21:
  00124	8b 4d bc	 mov	 ecx, DWORD PTR $T12[ebp]
  00127	ff 25 00 00 00
	00		 jmp	 DWORD PTR __imp_??1?$CStringT@DV?$StrTraitMFC_DLL@DV?$ChTraitsCRT@D@ATL@@@@@ATL@@QAE@XZ
__unwindfunclet$?OnRButtonUp@COrderLineAddInImp@@MAEHPAUHDC__@@IAAUtagPOINT@@K@Z$22:
  0012d	8b 4d ac	 mov	 ecx, DWORD PTR $T5[ebp]
  00130	ff 25 00 00 00
	00		 jmp	 DWORD PTR __imp_??1?$CStringT@DV?$StrTraitMFC_DLL@DV?$ChTraitsCRT@D@ATL@@@@@ATL@@QAE@XZ
  00136	cc		 int	 3
  00137	cc		 int	 3
  00138	cc		 int	 3
  00139	cc		 int	 3
  0013a	cc		 int	 3
__ehhandler$?OnRButtonUp@COrderLineAddInImp@@MAEHPAUHDC__@@IAAUtagPOINT@@K@Z:
  0013b	90		 npad	 1
  0013c	90		 npad	 1
  0013d	8b 54 24 08	 mov	 edx, DWORD PTR [esp+8]
  00141	8d 42 0c	 lea	 eax, DWORD PTR [edx+12]
  00144	8b 8a 7c ff ff
	ff		 mov	 ecx, DWORD PTR [edx-132]
  0014a	33 c8		 xor	 ecx, eax
  0014c	e8 00 00 00 00	 call	 @__security_check_cookie@4
  00151	8b 4a fc	 mov	 ecx, DWORD PTR [edx-4]
  00154	33 c8		 xor	 ecx, eax
  00156	e8 00 00 00 00	 call	 @__security_check_cookie@4
  0015b	b8 00 00 00 00	 mov	 eax, OFFSET __ehfuncinfo$?OnRButtonUp@COrderLineAddInImp@@MAEHPAUHDC__@@IAAUtagPOINT@@K@Z
  00160	e9 00 00 00 00	 jmp	 ___CxxFrameHandler3
text$x	ENDS
?OnRButtonUp@COrderLineAddInImp@@MAEHPAUHDC__@@IAAUtagPOINT@@K@Z ENDP ; COrderLineAddInImp::OnRButtonUp
; Function compile flags: /Ogtp
; File D:\git\src\IBK\IBK_DRFN\ProjSrc\SrcChartEx\ChartAddIn\ChartOutsideCustomAddIn\ChartOutsideCustomAddIn\OrderLineAddinImp.cpp
; File D:\git\src\IBK\IBK_DRFN\ProjSrc\SrcChartEx\ChartAddIn\ChartOutsideCustomAddIn\Include_AddIn\I003531\_IString.h
; File D:\git\src\IBK\IBK_DRFN\ProjSrc\SrcChartEx\ChartAddIn\ChartOutsideCustomAddIn\ChartOutsideCustomAddIn\OrderLineAddinImp.cpp
; File D:\git\src\IBK\IBK_DRFN\ProjSrc\SrcChartEx\ChartAddIn\ChartOutsideCustomAddIn\Include_AddIn\I003531\_IString.h
; File D:\git\src\IBK\IBK_DRFN\ProjSrc\SrcChartEx\ChartAddIn\ChartOutsideCustomAddIn\ChartOutsideCustomAddIn\OrderLineAddinImp.cpp
; File C:\Program Files (x86)\Microsoft Visual Studio\2019\Community\VC\Tools\MSVC\14.29.30133\atlmfc\include\atltypes.h
