 COMPARECHART

 Timestamp is 641272df (Thu Mar 16 10:37:35 2023)

 Preferred load address is 10000000

 Start         Length     Name                   Class
 0001:00000000 00004d60H .text$di                CODE
 0001:00004d60 00099160H .text$mn                CODE
 0001:0009dec0 0000ee70H .text$x                 CODE
 0001:000acd30 000008dcH .text$yd                CODE
 0002:00000000 00000d5cH .idata$5                DATA
 0002:00000d5c 00000008H .00cfg                  DATA
 0002:00000d64 00000004H .CRT$XCA                DATA
 0002:00000d68 00000008H .CRT$XCL                DATA
 0002:00000d70 000008b8H .CRT$XCU                DATA
 0002:00001628 00000004H .CRT$XCZ                DATA
 0002:0000162c 00000004H .CRT$XIA                DATA
 0002:00001630 00000004H .CRT$XIC                DATA
 0002:00001634 00000004H .CRT$XIZ                DATA
 0002:00001638 00000004H .CRT$XLA                DATA
 0002:0000163c 00000004H .CRT$XLZ                DATA
 0002:00001640 00000004H .CRT$XPA                DATA
 0002:00001644 00000004H .CRT$XPZ                DATA
 0002:00001648 00000004H .CRT$XTA                DATA
 0002:0000164c 00000004H .CRT$XTZ                DATA
 0002:00001650 00000000H .gfids$y                DATA
 0002:00001650 00011930H .rdata                  DATA
 0002:00012f80 00000004H .rdata$CastGuardVftablesA DATA
 0002:00012f84 00000004H .rdata$CastGuardVftablesC DATA
 0002:00012f88 00000018H .rdata$T                DATA
 0002:00012fa0 000036e8H .rdata$r                DATA
 0002:00016688 00000c50H .rdata$sxdata           DATA
 0002:000172d8 00000040H .rdata$voltmd           DATA
 0002:00017318 00000434H .rdata$zzzdbg           DATA
 0002:0001774c 00000004H .rtc$IAA                DATA
 0002:00017750 00000004H .rtc$IZZ                DATA
 0002:00017754 00000004H .rtc$TAA                DATA
 0002:00017758 00000004H .rtc$TZZ                DATA
 0002:0001775c 00000004H .tls                    DATA
 0002:00017760 00000004H .tls$                   DATA
 0002:00017764 00000004H .tls$ZZZ                DATA
 0002:00017768 0000c114H .xdata$x                DATA
 0002:0002387c 00000004H ATL$__a                 DATA
 0002:00023880 00000010H ATL$__z                 DATA
 0002:00023890 0000014cH .edata                  DATA
 0002:000239dc 00000190H .idata$2                DATA
 0002:00023b6c 00000014H .idata$3                DATA
 0002:00023b80 00000d5cH .idata$4                DATA
 0002:000248dc 00001408H .idata$6                DATA
 0003:00000000 00000b5cH .data                   DATA
 0003:00000b5c 00000084H .data$r                 DATA
 0003:00000be0 00001620H .data$rs                DATA
 0003:00002200 00000fd0H .bss                    DATA
 0004:00000000 00000420H .rsrc$01                DATA
 0004:00000420 00001790H .rsrc$02                DATA

  Address         Publics by Value              Rva+Base       Lib:Object

 0000:00000000       ___hybrid_code_map_count   00000000     <absolute>
 0000:00000000       ___guard_longjmp_count     00000000     <absolute>
 0000:00000000       ___guard_longjmp_table     00000000     <absolute>
 0000:00000000       ___guard_fids_count        00000000     <absolute>
 0000:00000000       ___hybrid_auxiliary_iat    00000000     <absolute>
 0000:00000000       ___AbsoluteZero            00000000     <absolute>
 0000:00000000       ___enclave_config          00000000     <absolute>
 0000:00000000       ___x64_code_ranges_to_entry_points 00000000     <absolute>
 0000:00000000       ___hybrid_code_map         00000000     <absolute>
 0000:00000000       ___guard_fids_table        00000000     <absolute>
 0000:00000000       ___guard_eh_cont_count     00000000     <absolute>
 0000:00000000       ___x64_code_ranges_to_entry_points_count 00000000     <absolute>
 0000:00000000       ___dynamic_value_reloc_table 00000000     <absolute>
 0000:00000000       ___guard_iat_count         00000000     <absolute>
 0000:00000000       ___arm64x_native_entrypoint 00000000     <absolute>
 0000:00000000       ___hybrid_auxiliary_iat_copy 00000000     <absolute>
 0000:00000000       ___arm64x_extra_rfe_table  00000000     <absolute>
 0000:00000000       ___arm64x_redirection_metadata 00000000     <absolute>
 0000:00000000       ___guard_iat_table         00000000     <absolute>
 0000:00000000       ___arm64x_extra_rfe_table_size 00000000     <absolute>
 0000:00000000       ___arm64x_redirection_metadata_count 00000000     <absolute>
 0000:00000000       ___guard_check_icall_a64n_fptr 00000000     <absolute>
 0000:00000000       ___guard_eh_cont_table     00000000     <absolute>
 0000:0000002c       __tls_array                0000002c     <absolute>
 0000:00000100       ___guard_flags             00000100     <absolute>
 0000:00000314       ___safe_se_handler_count   00000314     <absolute>
 0000:00000000       ___ImageBase               10000000     <linker-defined>
 0001:00004d60       ??0CCodeCtrl@@QAE@PAVCWnd@@@Z 10005d60 f   CodeCtrl.obj
 0001:00004e80       ??0CWinixCodeCtrl@@QAE@PAVCWnd@@@Z 10005e80 f   CodeCtrl.obj
 0001:00004ef0       ??0_bstr_t@@QAE@ABV_variant_t@@@Z 10005ef0 f i CodeCtrl.obj
 0001:000050c0       ??0_bstr_t@@QAE@PBD@Z      100060c0 f i CodeCtrl.obj
 0001:00005150       ??1?$CComQIPtr@UIDispatch@@$1?_GUID_00020400_0000_0000_c000_000000000046@@3U__s_GUID@@B@ATL@@QAE@XZ 10006150 f i CodeCtrl.obj
 0001:000051a0       ??1CBitmap@@UAE@XZ         100061a0 f i CodeCtrl.obj
 0001:000051b0       ??1CCodeCtrl@@UAE@XZ       100061b0 f   CodeCtrl.obj
 0001:00005250       ??1CGdiObject@@UAE@XZ      10006250 f i CodeCtrl.obj
 0001:00005360       ??1CObject@@UAE@XZ         10006360 f i CodeCtrl.obj
 0001:00005370       ??1CWinixCodeCtrl@@UAE@XZ  10006370 f   CodeCtrl.obj
 0001:00005400       ??1_bstr_t@@QAE@XZ         10006400 f i CodeCtrl.obj
 0001:00005460       ??1_param@@QAE@XZ          10006460 f i CodeCtrl.obj
 0001:00005480       ??1_variant_t@@QAE@XZ      10006480 f i CodeCtrl.obj
 0001:00005490       ??1stringdispid@CComTypeInfoHolder@ATL@@QAE@XZ 10006490 f i CodeCtrl.obj
 0001:000054a0       ??B_bstr_t@@QBEPBDXZ       100064a0 f i CodeCtrl.obj
 0001:000054c0       ??HATL@@YA?AV?$CStringT@DV?$StrTraitMFC_DLL@DV?$ChTraitsCRT@D@ATL@@@@@0@ABV10@PBD@Z 100064c0 f i CodeCtrl.obj
 0001:00005560       ??_Estringdispid@CComTypeInfoHolder@ATL@@QAEPAXI@Z 10006560 f i CodeCtrl.obj
 0001:00005610       ??_ECBitmap@@UAEPAXI@Z     10006610 f i CodeCtrl.obj
 0001:00005610       ??_GCBitmap@@UAEPAXI@Z     10006610 f i CodeCtrl.obj
 0001:00005650       ??_ECCodeCtrl@@UAEPAXI@Z   10006650 f i CodeCtrl.obj
 0001:00005650       ??_GCCodeCtrl@@UAEPAXI@Z   10006650 f i CodeCtrl.obj
 0001:00005720       ??_ECEdit@@UAEPAXI@Z       10006720 f i CodeCtrl.obj
 0001:00005720       ??_GCEdit@@UAEPAXI@Z       10006720 f i CodeCtrl.obj
 0001:00005760       ??_GCGdiObject@@UAEPAXI@Z  10006760 f i CodeCtrl.obj
 0001:00005760       ??_ECGdiObject@@UAEPAXI@Z  10006760 f i CodeCtrl.obj
 0001:000057a0       ??_GCWinixCodeCtrl@@UAEPAXI@Z 100067a0 f i CodeCtrl.obj
 0001:000057a0       ??_ECWinixCodeCtrl@@UAEPAXI@Z 100067a0 f i CodeCtrl.obj
 0001:000057e0       ?AssertValid@CObject@@UBEXXZ 100067e0 f i CodeCtrl.obj
 0001:000057f0       ?BeginModalState@CWnd@@UAEXXZ 100067f0 f i CodeCtrl.obj
 0001:00005800       ?CCodeCtrl_SetUnit@@YAIPAX@Z 10006800 f   CodeCtrl.obj
 0001:000059b0       ?CreateCodeCtrl@CWinixCodeCtrl@@QAEHPAVCWnd@@00VCRect@@I@Z 100069b0 f   CodeCtrl.obj
 0001:00005a00       ?DoDataExchange@CWnd@@MAEXPAVCDataExchange@@@Z 10006a00 f i CodeCtrl.obj
 0001:00005a10       ?Dump@CObject@@UBEXAAVCDumpContext@@@Z 10006a10 f i CodeCtrl.obj
 0001:00005a20       ?EndModalState@CWnd@@UAEXXZ 10006a20 f i CodeCtrl.obj
 0001:00005a30       ?GetCode@CCodeCtrl@@UAE?AV?$CStringT@DV?$StrTraitMFC_DLL@DV?$ChTraitsCRT@D@ATL@@@@@ATL@@XZ 10006a30 f   CodeCtrl.obj
 0001:00005a70       ?GetCode@CWinixCodeCtrl@@QAE?AV?$CStringT@DV?$StrTraitMFC_DLL@DV?$ChTraitsCRT@D@ATL@@@@@ATL@@XZ 10006a70 f   CodeCtrl.obj
 0001:00005ab0       ?GetCtrlProperty@CWinixCodeCtrl@@QAE?AV?$CStringT@DV?$StrTraitMFC_DLL@DV?$ChTraitsCRT@D@ATL@@@@@ATL@@PBD@Z 10006ab0 f   CodeCtrl.obj
 0001:00005c20       ?GetMessageMap@CCodeCtrl@@MBEPBUAFX_MSGMAP@@XZ 10006c20 f   CodeCtrl.obj
 0001:00005c30       ?GetMessageMap@CWinixCodeCtrl@@MBEPBUAFX_MSGMAP@@XZ 10006c30 f   CodeCtrl.obj
 0001:00005c40       ?GetName@CWinixCodeCtrl@@QAE?AV?$CStringT@DV?$StrTraitMFC_DLL@DV?$ChTraitsCRT@D@ATL@@@@@ATL@@XZ 10006c40 f   CodeCtrl.obj
 0001:00005d80       ?GetThisMessageMap@CCodeCtrl@@KGPBUAFX_MSGMAP@@XZ 10006d80 f   CodeCtrl.obj
 0001:00005d90       ?GetThisMessageMap@CWinixCodeCtrl@@KGPBUAFX_MSGMAP@@XZ 10006d90 f   CodeCtrl.obj
 0001:00005da0       ?OnBtnCodeDlg@CCodeCtrl@@IAEXXZ 10006da0 f   CodeCtrl.obj
 0001:00005db0       ?OnCommand@CWinixCodeCtrl@@MAEHIJ@Z 10006db0 f   CodeCtrl.obj
 0001:00005e00       ?OnCreate@CCodeCtrl@@IAEHPAUtagCREATESTRUCTA@@@Z 10006e00 f   CodeCtrl.obj
 0001:00005e20       ?OnCreate@CWinixCodeCtrl@@IAEHPAUtagCREATESTRUCTA@@@Z 10006e20 f   CodeCtrl.obj
 0001:00005fc0       ?OnSelendokCodeCtrl@CCodeCtrl@@IAEXXZ 10006fc0 f   CodeCtrl.obj
 0001:00005fe0       ?OnSize@CCodeCtrl@@IAEXIHH@Z 10006fe0 f   CodeCtrl.obj
 0001:00006060       ?OnSize@CWinixCodeCtrl@@IAEXIHH@Z 10007060 f   CodeCtrl.obj
 0001:000060e0       ?OnUser@CWinixCodeCtrl@@IAEJIJ@Z 100070e0 f   CodeCtrl.obj
 0001:000061b0       ?Serialize@CObject@@UAEXAAVCArchive@@@Z 100071b0 f i CodeCtrl.obj
 0001:000061c0       ?SetCode@CCodeCtrl@@UAE_NV?$CStringT@DV?$StrTraitMFC_DLL@DV?$ChTraitsCRT@D@ATL@@@@@ATL@@_N@Z 100071c0 f   CodeCtrl.obj
 0001:000062a0       ?SetCode@CWinixCodeCtrl@@QAE_NV?$CStringT@DV?$StrTraitMFC_DLL@DV?$ChTraitsCRT@D@ATL@@@@@ATL@@_N1@Z 100072a0 f   CodeCtrl.obj
 0001:00006320       ?SetColor@CWinixCodeCtrl@@QAE_NKK@Z 10007320 f   CodeCtrl.obj
 0001:00006360       ?SetCtrlProperty@CWinixCodeCtrl@@QAEXV_bstr_t@@AAV_variant_t@@@Z 10007360 f   CodeCtrl.obj
 0001:000064d0       ?SetFixUnit@CCodeCtrl@@QAEXH@Z 100074d0 f   CodeCtrl.obj
 0001:000064f0       ?SetFixUnit@CCodeCtrl@@QAEXV?$CStringT@DV?$StrTraitMFC_DLL@DV?$ChTraitsCRT@D@ATL@@@@@ATL@@@Z 100074f0 f   CodeCtrl.obj
 0001:00006570       ?SetFocus@CWinixCodeCtrl@@QAE_NXZ 10007570 f   CodeCtrl.obj
 0001:00006590       ?SetFont@CWinixCodeCtrl@@QAE_NPAVCFont@@@Z 10007590 f   CodeCtrl.obj
 0001:000065d0       ?SetHistory@CCodeCtrl@@UAE_NPBD0@Z 100075d0 f   CodeCtrl.obj
 0001:00006640       ?SetRootPath@CCodeCtrl@@UAEXPBD@Z 10007640 f i CodeCtrl.obj
 0001:00006650       ?SetUnit@CCodeCtrl@@UAE_NH@Z 10007650 f   CodeCtrl.obj
 0001:000068a0       ?SetUnit@CCodeCtrl@@UAE_NV?$CStringT@DV?$StrTraitMFC_DLL@DV?$ChTraitsCRT@D@ATL@@@@@ATL@@@Z 100078a0 f   CodeCtrl.obj
 0001:00006a50       ?SetUnit@CWinixCodeCtrl@@QAE_NH@Z 10007a50 f   CodeCtrl.obj
 0001:00006af0       ?SetUnitEx@CCodeCtrl@@QAE_NV?$CStringT@DV?$StrTraitMFC_DLL@DV?$ChTraitsCRT@D@ATL@@@@@ATL@@@Z 10007af0 f   CodeCtrl.obj
 0001:00006c60       ?UseCodeDlg@CCodeCtrl@@UAEXH@Z 10007c60 f i CodeCtrl.obj
 0001:00006c70       ?_AtlInitializeCriticalSectionEx@ATL@@YAHPAU_RTL_CRITICAL_SECTION@@KK@Z 10007c70 f i CodeCtrl.obj
 0001:00006c90       ?_AtlRaiseException@ATL@@YAXKK@Z 10007c90 f i CodeCtrl.obj
 0001:00006cb0       ?_DoCreateCodeDlgBtn@CCodeCtrl@@IAEHXZ 10007cb0 f   CodeCtrl.obj
 0001:00006f50       ?__empty_global_delete@@YAXPAX@Z 10007f50 f i CodeCtrl.obj
 0001:00006f60       ?__global_delete@@YAXPAXI@Z 10007f60 f i CodeCtrl.obj
 0001:00006f60       ?__empty_global_delete@@YAXPAXI@Z 10007f60 f i CodeCtrl.obj
 0001:00006f70       ??3CObject@@SGXPAX@Z       10007f70 f i DRChartOcx.obj
 0001:00006f90       ??_GCDRChartOcx@@UAEPAXI@Z 10007f90 f i DRChartOcx.obj
 0001:00006f90       ??_ECDRChartOcx@@UAEPAXI@Z 10007f90 f i DRChartOcx.obj
 0001:00006fd0       ?AddChartAllBlock@CDRChartOcx@@QAEHPBD@Z 10007fd0 f   DRChartOcx.obj
 0001:00007000       ?AddChartBlock@CDRChartOcx@@QAEHPBD@Z 10008000 f   DRChartOcx.obj
 0001:00007030       ?AddChartItem@CDRChartOcx@@QAE?AV?$CStringT@DV?$StrTraitMFC_DLL@DV?$ChTraitsCRT@D@ATL@@@@@ATL@@PBD0H@Z 10008030 f   DRChartOcx.obj
 0001:000070b0       ?AddChartItemRQ@CDRChartOcx@@QAEHPBD00@Z 100080b0 f   DRChartOcx.obj
 0001:000070e0       ?AddGraph@CDRChartOcx@@QAEXFFFPBDHHH@Z 100080e0 f   DRChartOcx.obj
 0001:00007120       ?AddHorizontalLine@CDRChartOcx@@QAEJPBDKFN@Z 10008120 f   DRChartOcx.obj
 0001:00007160       ?AddOrRemoveChart@CDRChartOcx@@QAEHPBD@Z 10008160 f   DRChartOcx.obj
 0001:00007190       ?AddPacket@CDRChartOcx@@QAEXPBD@Z 10008190 f   DRChartOcx.obj
 0001:000071c0       ?AddPacketRQ@CDRChartOcx@@QAEXPBD0@Z 100081c0 f   DRChartOcx.obj
 0001:000071f0       ?AddPairItem@CDRChartOcx@@QAE?AV?$CStringT@DV?$StrTraitMFC_DLL@DV?$ChTraitsCRT@D@ATL@@@@@ATL@@PBD0H@Z 100081f0 f   DRChartOcx.obj
 0001:00007270       ?AddRealItem@CDRChartOcx@@QAEHPBD@Z 10008270 f   DRChartOcx.obj
 0001:000072a0       ?AddRealItemWithSeparator@CDRChartOcx@@QAEHPBD0@Z 100082a0 f   DRChartOcx.obj
 0001:000072d0       ?AddandDeleteIndicator@CDRChartOcx@@QAEXPBD@Z 100082d0 f   DRChartOcx.obj
 0001:00007300       ?ChangeAllFunctionName@CDRChartOcx@@QAEHPBD0H@Z 10008300 f   DRChartOcx.obj
 0001:00007330       ?ChangeBlockType@CDRChartOcx@@QAEHFFF@Z 10008330 f   DRChartOcx.obj
 0001:00007370       ?ChangeChart@CDRChartOcx@@QAEFFFPBD0000FK@Z 10008370 f   DRChartOcx.obj
 0001:000073c0       ?ChangeChartItem@CDRChartOcx@@QAEHPBDF0000FFFH@Z 100083c0 f   DRChartOcx.obj
 0001:00007410       ?ChangeFunctionName@CDRChartOcx@@QAEHPBD00@Z 10008410 f   DRChartOcx.obj
 0001:00007440       ?ChangeGraphColor@CDRChartOcx@@QAEHPBD0@Z 10008440 f   DRChartOcx.obj
 0001:00007470       ?ChangeGraphDatas@CDRChartOcx@@QAEHFFFFPBD0000FFFH@Z 10008470 f   DRChartOcx.obj
 0001:000074d0       ?ChangeGraphDrawingData@CDRChartOcx@@QAEHPBDHHHHF@Z 100084d0 f   DRChartOcx.obj
 0001:00007510       ?ChangeGraphPropertyAtOnce@CDRChartOcx@@QAEXPBD00FFF0FFF@Z 10008510 f   DRChartOcx.obj
 0001:00007560       ?ChangeGraphTitle2@CDRChartOcx@@QAEHPBD0@Z 10008560 f   DRChartOcx.obj
 0001:00007590       ?ChangeGraphTitle@CDRChartOcx@@QAEHFFFPBD@Z 10008590 f   DRChartOcx.obj
 0001:000075d0       ?ChangeGraphType@CDRChartOcx@@QAEHPBD000H@Z 100085d0 f   DRChartOcx.obj
 0001:00007610       ?ChangeHorzScalePosition@CDRChartOcx@@QAEHFFF@Z 10008610 f   DRChartOcx.obj
 0001:00007650       ?ChangeIndicatorPacketName@CDRChartOcx@@QAEHPBDF0@Z 10008650 f   DRChartOcx.obj
 0001:00007680       ?ChangePacketType@CDRChartOcx@@QAEHPBD0@Z 10008680 f   DRChartOcx.obj
 0001:000076b0       ?ChangePacketTypeRQ@CDRChartOcx@@QAEHPBD00@Z 100086b0 f   DRChartOcx.obj
 0001:000076e0       ?ChangePriceGraphDrawingData@CDRChartOcx@@QAEHHHHHFF@Z 100086e0 f   DRChartOcx.obj
 0001:00007720       ?ChangeVertScaleMinMaxType@CDRChartOcx@@QAEXFFFFNN@Z 10008720 f   DRChartOcx.obj
 0001:00007770       ?ChangeVertScalePosition@CDRChartOcx@@QAEHFFFF@Z 10008770 f   DRChartOcx.obj
 0001:000077b0       ?ClearChartData@CDRChartOcx@@QAEFF@Z 100087b0 f   DRChartOcx.obj
 0001:000077e0       ?ClearPacketData@CDRChartOcx@@QAEHPBDH@Z 100087e0 f   DRChartOcx.obj
 0001:00007810       ?ClearTimeMark@CDRChartOcx@@QAEXXZ 10008810 f   DRChartOcx.obj
 0001:00007830       ?Create@CDRChartOcx@@UAEHPBD0KABUtagRECT@@PAVCWnd@@IPAUCCreateContext@@@Z 10008830 f i DRChartOcx.obj
 0001:00007860       ?CreateObject@CDRChartOcx@@SGPAVCObject@@XZ 10008860 f   DRChartOcx.obj
 0001:000078e0       ?DeleteAllHorizontalLine@CDRChartOcx@@QAEXXZ 100088e0 f   DRChartOcx.obj
 0001:00007900       ?DeleteHorizontalLine@CDRChartOcx@@QAEXJ@Z 10008900 f   DRChartOcx.obj
 0001:00007930       ?EmptyChart2@CDRChartOcx@@QAEHPBDHH@Z 10008930 f   DRChartOcx.obj
 0001:00007960       ?EmptyChart3@CDRChartOcx@@QAEHPBDHHF@Z 10008960 f   DRChartOcx.obj
 0001:000079a0       ?EmptyChart@CDRChartOcx@@QAEHHH@Z 100089a0 f   DRChartOcx.obj
 0001:000079d0       ?EnableBoundMark@CDRChartOcx@@QAEXH@Z 100089d0 f   DRChartOcx.obj
 0001:00007a00       ?EnableReceivingTimeShare@CDRChartOcx@@QAEXH@Z 10008a00 f   DRChartOcx.obj
 0001:00007a30       ?ExportToExcel@CDRChartOcx@@QAEXXZ 10008a30 f   DRChartOcx.obj
 0001:00007a50       ?FindRQ@CDRChartOcx@@QAEHPBD@Z 10008a50 f   DRChartOcx.obj
 0001:00007a80       ?GetAddInCustomInterface@CDRChartOcx@@QAEPAUIUnknown@@PBD@Z 10008a80 f   DRChartOcx.obj
 0001:00007ab0       ?GetAllProperties2@CDRChartOcx@@QAEJJ@Z 10008ab0 f   DRChartOcx.obj
 0001:00007ae0       ?GetAllProperties3@CDRChartOcx@@QAEJJ@Z 10008ae0 f   DRChartOcx.obj
 0001:00007b10       ?GetBAddGraphMenuShow@CDRChartOcx@@QAEHXZ 10008b10 f   DRChartOcx.obj
 0001:00007b30       ?GetBBlockMoveDelete@CDRChartOcx@@QAEHXZ 10008b30 f   DRChartOcx.obj
 0001:00007b50       ?GetBControlBlockSize@CDRChartOcx@@QAEHXZ 10008b50 f   DRChartOcx.obj
 0001:00007b70       ?GetBDoesUseSkinColor@CDRChartOcx@@QAEHXZ 10008b70 f   DRChartOcx.obj
 0001:00007b90       ?GetBEnableIndicatorCalculation@CDRChartOcx@@QAEHXZ 10008b90 f   DRChartOcx.obj
 0001:00007bb0       ?GetBFireRealEvent@CDRChartOcx@@QAEHXZ 10008bb0 f   DRChartOcx.obj
 0001:00007bd0       ?GetBFreezedPageState@CDRChartOcx@@QAEHXZ 10008bd0 f   DRChartOcx.obj
 0001:00007bf0       ?GetBGraphDragDrop@CDRChartOcx@@QAEHXZ 10008bf0 f   DRChartOcx.obj
 0001:00007c10       ?GetBHide@CDRChartOcx@@QAEHXZ 10008c10 f   DRChartOcx.obj
 0001:00007c30       ?GetBHideAllTitle@CDRChartOcx@@QAEHXZ 10008c30 f   DRChartOcx.obj
 0001:00007c50       ?GetBIsInput@CDRChartOcx@@QAEHXZ 10008c50 f   DRChartOcx.obj
 0001:00007c70       ?GetBIsMapDefault@CDRChartOcx@@QAEHXZ 10008c70 f   DRChartOcx.obj
 0001:00007c90       ?GetBNormalizedMinuteTimeRule@CDRChartOcx@@QAEHXZ 10008c90 f   DRChartOcx.obj
 0001:00007cb0       ?GetBOcxAreaNumericalInquiry@CDRChartOcx@@QAEHXZ 10008cb0 f   DRChartOcx.obj
 0001:00007cd0       ?GetBOnePageDataCountInTRCount@CDRChartOcx@@QAEHXZ 10008cd0 f   DRChartOcx.obj
 0001:00007cf0       ?GetBRedrawAfterUpdatedAllPackets@CDRChartOcx@@QAEHXZ 10008cf0 f   DRChartOcx.obj
 0001:00007d10       ?GetBSelectGraph@CDRChartOcx@@QAEHXZ 10008d10 f   DRChartOcx.obj
 0001:00007d30       ?GetBSelectTitle@CDRChartOcx@@QAEHXZ 10008d30 f   DRChartOcx.obj
 0001:00007d50       ?GetBShowPriceMinMaxText@CDRChartOcx@@QAEHXZ 10008d50 f   DRChartOcx.obj
 0001:00007d70       ?GetBShowPriceRateInquiry@CDRChartOcx@@QAEHXZ 10008d70 f   DRChartOcx.obj
 0001:00007d90       ?GetBShowWarningMessageBox@CDRChartOcx@@QAEHXZ 10008d90 f   DRChartOcx.obj
 0001:00007db0       ?GetBUseConditiontoTitle@CDRChartOcx@@QAEHXZ 10008db0 f   DRChartOcx.obj
 0001:00007dd0       ?GetBUseDatatoTitle@CDRChartOcx@@QAEHXZ 10008dd0 f   DRChartOcx.obj
 0001:00007df0       ?GetBUseGapRevision@CDRChartOcx@@QAEHXZ 10008df0 f   DRChartOcx.obj
 0001:00007e10       ?GetBUseInquiryDlgWhenUseCrossLine@CDRChartOcx@@QAEHXZ 10008e10 f   DRChartOcx.obj
 0001:00007e30       ?GetBUseRealData@CDRChartOcx@@QAEHXZ 10008e30 f   DRChartOcx.obj
 0001:00007e50       ?GetBUseScaleRButtonMenu@CDRChartOcx@@QAEHXZ 10008e50 f   DRChartOcx.obj
 0001:00007e70       ?GetBUseShortKey@CDRChartOcx@@QAEHXZ 10008e70 f   DRChartOcx.obj
 0001:00007e90       ?GetBWholeView@CDRChartOcx@@QAEHXZ 10008e90 f   DRChartOcx.obj
 0001:00007eb0       ?GetBase@CDRChartOcx@@QAEJPBD@Z 10008eb0 f   DRChartOcx.obj
 0001:00007ee0       ?GetBasePropIf@CDRChartOcx@@QAEJXZ 10008ee0 f   DRChartOcx.obj
 0001:00007f10       ?GetBoundMarkFlag@CDRChartOcx@@QAEHXZ 10008f10 f   DRChartOcx.obj
 0001:00007f40       ?GetClrAnalysisTool@CDRChartOcx@@QAEKXZ 10008f40 f   DRChartOcx.obj
 0001:00007f60       ?GetClrBackBorder@CDRChartOcx@@QAEKXZ 10008f60 f   DRChartOcx.obj
 0001:00007f80       ?GetClrBackground@CDRChartOcx@@QAEKXZ 10008f80 f   DRChartOcx.obj
 0001:00007fa0       ?GetClrBlock@CDRChartOcx@@QAEKXZ 10008fa0 f   DRChartOcx.obj
 0001:00007fc0       ?GetClrBlockBorder@CDRChartOcx@@QAEKXZ 10008fc0 f   DRChartOcx.obj
 0001:00007fe0       ?GetClrGraphBase1@CDRChartOcx@@QAEKXZ 10008fe0 f   DRChartOcx.obj
 0001:00008000       ?GetClrGraphBase2@CDRChartOcx@@QAEKXZ 10009000 f   DRChartOcx.obj
 0001:00008020       ?GetClrGraphBase3@CDRChartOcx@@QAEKXZ 10009020 f   DRChartOcx.obj
 0001:00008040       ?GetClrGraphBase4@CDRChartOcx@@QAEKXZ 10009040 f   DRChartOcx.obj
 0001:00008060       ?GetClrGraphBase5@CDRChartOcx@@QAEKXZ 10009060 f   DRChartOcx.obj
 0001:00008080       ?GetClrGraphBase6@CDRChartOcx@@QAEKXZ 10009080 f   DRChartOcx.obj
 0001:000080a0       ?GetClrInquiryWindow@CDRChartOcx@@QAEKXZ 100090a0 f   DRChartOcx.obj
 0001:000080c0       ?GetClrLattice@CDRChartOcx@@QAEKXZ 100090c0 f   DRChartOcx.obj
 0001:000080e0       ?GetClrScaleLine2@CDRChartOcx@@QAEKXZ 100090e0 f   DRChartOcx.obj
 0001:00008100       ?GetClrScaleLine@CDRChartOcx@@QAEKXZ 10009100 f   DRChartOcx.obj
 0001:00008120       ?GetClrScaleText@CDRChartOcx@@QAEKXZ 10009120 f   DRChartOcx.obj
 0001:00008140       ?GetColumnBlockCount@CDRChartOcx@@QAEFXZ 10009140 f   DRChartOcx.obj
 0001:00008170       ?GetCurrentPriceChartType@CDRChartOcx@@QAEFXZ 10009170 f   DRChartOcx.obj
 0001:000081a0       ?GetCustomFont@CDRChartOcx@@QAE?AV?$CStringT@DV?$StrTraitMFC_DLL@DV?$ChTraitsCRT@D@ATL@@@@@ATL@@XZ 100091a0 f   DRChartOcx.obj
 0001:00008210       ?GetData@CDRChartOcx@@QAE?AV?$CStringT@DV?$StrTraitMFC_DLL@DV?$ChTraitsCRT@D@ATL@@@@@ATL@@PBDF@Z 10009210 f   DRChartOcx.obj
 0001:00008290       ?GetDataCount@CDRChartOcx@@QAEFXZ 10009290 f   DRChartOcx.obj
 0001:000082c0       ?GetEnableHorizontalLineInNIDLG@CDRChartOcx@@QAEHXZ 100092c0 f   DRChartOcx.obj
 0001:000082e0       ?GetEnabled@CDRChartOcx@@QAEHXZ 100092e0 f   DRChartOcx.obj
 0001:00008300       ?GetGraphHide4@CDRChartOcx@@QAEHPBDF@Z 10009300 f   DRChartOcx.obj
 0001:00008330       ?GetGraphPacketName@CDRChartOcx@@QAE?AV?$CStringT@DV?$StrTraitMFC_DLL@DV?$ChTraitsCRT@D@ATL@@@@@ATL@@FFPBD@Z 10009330 f   DRChartOcx.obj
 0001:000083c0       ?GetGraphPropertyAtOnce@CDRChartOcx@@QAE?AV?$CStringT@DV?$StrTraitMFC_DLL@DV?$ChTraitsCRT@D@ATL@@@@@ATL@@PBD0@Z 100093c0 f   DRChartOcx.obj
 0001:00008440       ?GetHWnd@CDRChartOcx@@QAEIXZ 10009440 f   DRChartOcx.obj
 0001:00008460       ?GetHeadAndTailData@CDRChartOcx@@QAEHPBDPAN1@Z 10009460 f   DRChartOcx.obj
 0001:00008490       ?GetHorzScalePosition@CDRChartOcx@@QAEFFF@Z 10009490 f   DRChartOcx.obj
 0001:000084c0       ?GetIndicatorNameList@CDRChartOcx@@QAE?AV?$CStringT@DV?$StrTraitMFC_DLL@DV?$ChTraitsCRT@D@ATL@@@@@ATL@@PBD@Z 100094c0 f   DRChartOcx.obj
 0001:00008540       ?GetIsShowInneerToolBar@CDRChartOcx@@QAEHXZ 10009540 f   DRChartOcx.obj
 0001:00008560       ?GetListViewerData@CDRChartOcx@@QAEXPAPA_W0000PAHPAJ@Z 10009560 f   DRChartOcx.obj
 0001:000085a0       ?GetLogScale@CDRChartOcx@@QAEHPBD@Z 100095a0 f   DRChartOcx.obj
 0001:000085d0       ?GetMax@CDRChartOcx@@QAENPBD@Z 100095d0 f   DRChartOcx.obj
 0001:00008600       ?GetMin@CDRChartOcx@@QAENPBD@Z 10009600 f   DRChartOcx.obj
 0001:00008630       ?GetNBlockBorderThickness@CDRChartOcx@@QAEJXZ 10009630 f   DRChartOcx.obj
 0001:00008650       ?GetNBlockColumnCount@CDRChartOcx@@QAEJXZ 10009650 f   DRChartOcx.obj
 0001:00008670       ?GetNBlockCompart@CDRChartOcx@@QAEJXZ 10009670 f   DRChartOcx.obj
 0001:00008690       ?GetNBlockGap@CDRChartOcx@@QAEJXZ 10009690 f   DRChartOcx.obj
 0001:000086b0       ?GetNBlockRowCount@CDRChartOcx@@QAEJXZ 100096b0 f   DRChartOcx.obj
 0001:000086d0       ?GetNBlockType@CDRChartOcx@@QAEJXZ 100096d0 f   DRChartOcx.obj
 0001:000086f0       ?GetNBongCountMargin@CDRChartOcx@@QAEFXZ 100096f0 f   DRChartOcx.obj
 0001:00008710       ?GetNBorderType@CDRChartOcx@@QAEJXZ 10009710 f   DRChartOcx.obj
 0001:00008730       ?GetNBottomMargin@CDRChartOcx@@QAEJXZ 10009730 f   DRChartOcx.obj
 0001:00008750       ?GetNChartMode@CDRChartOcx@@QAEFXZ 10009750 f   DRChartOcx.obj
 0001:00008770       ?GetNColumnDoubleSizeBlock@CDRChartOcx@@QAEJXZ 10009770 f   DRChartOcx.obj
 0001:00008790       ?GetNCurrentDrawCount@CDRChartOcx@@QAEJXZ 10009790 f   DRChartOcx.obj
 0001:000087b0       ?GetNFullDataCount@CDRChartOcx@@QAEJXZ 100097b0 f   DRChartOcx.obj
 0001:000087d0       ?GetNGraphRButtonType@CDRChartOcx@@QAEFXZ 100097d0 f   DRChartOcx.obj
 0001:000087f0       ?GetNHoldingPacketSize@CDRChartOcx@@QAEFXZ 100097f0 f   DRChartOcx.obj
 0001:00008810       ?GetNHorzGap@CDRChartOcx@@QAEFXZ 10009810 f   DRChartOcx.obj
 0001:00008830       ?GetNInquiryType@CDRChartOcx@@QAEFXZ 10009830 f   DRChartOcx.obj
 0001:00008850       ?GetNLanguageID@CDRChartOcx@@QAEFXZ 10009850 f   DRChartOcx.obj
 0001:00008870       ?GetNLeftMargin@CDRChartOcx@@QAEJXZ 10009870 f   DRChartOcx.obj
 0001:00008890       ?GetNMarginBorderType@CDRChartOcx@@QAEFXZ 10009890 f   DRChartOcx.obj
 0001:000088b0       ?GetNMinDataCountOnOnePage@CDRChartOcx@@QAEFXZ 100098b0 f   DRChartOcx.obj
 0001:000088d0       ?GetNNumericalInquiryOption@CDRChartOcx@@QAEJXZ 100098d0 f   DRChartOcx.obj
 0001:000088f0       ?GetNOnePageDataCount@CDRChartOcx@@QAEJXZ 100098f0 f   DRChartOcx.obj
 0001:00008910       ?GetNPacketCountDataSize@CDRChartOcx@@QAEFXZ 10009910 f   DRChartOcx.obj
 0001:00008930       ?GetNRButtonMenuType@CDRChartOcx@@QAEFXZ 10009930 f   DRChartOcx.obj
 0001:00008950       ?GetNRealTimeTruncationType@CDRChartOcx@@QAEFXZ 10009950 f   DRChartOcx.obj
 0001:00008970       ?GetNRightMargin@CDRChartOcx@@QAEJXZ 10009970 f   DRChartOcx.obj
 0001:00008990       ?GetNRowDoubleSizeBlock@CDRChartOcx@@QAEJXZ 10009990 f   DRChartOcx.obj
 0001:000089b0       ?GetNScaleLineType@CDRChartOcx@@QAEJXZ 100099b0 f   DRChartOcx.obj
 0001:000089d0       ?GetNTopMargin@CDRChartOcx@@QAEJXZ 100099d0 f   DRChartOcx.obj
 0001:000089f0       ?GetNUseInquiryWithCrossline@CDRChartOcx@@QAEFXZ 100099f0 f   DRChartOcx.obj
 0001:00008a10       ?GetNUserBlockAddCount@CDRChartOcx@@QAEJXZ 10009a10 f   DRChartOcx.obj
 0001:00008a30       ?GetNVertGap@CDRChartOcx@@QAEFXZ 10009a30 f   DRChartOcx.obj
 0001:00008a50       ?GetOnRunningOneChart@CDRChartOcx@@QAEHXZ 10009a50 f   DRChartOcx.obj
 0001:00008a70       ?GetOnePageDataCount@CDRChartOcx@@QAEJXZ 10009a70 f   DRChartOcx.obj
 0001:00008a90       ?GetPacketCount@CDRChartOcx@@QAEJPBD@Z 10009a90 f   DRChartOcx.obj
 0001:00008ac0       ?GetPacketData2@CDRChartOcx@@QAE?AV?$CStringT@DV?$StrTraitMFC_DLL@DV?$ChTraitsCRT@D@ATL@@@@@ATL@@PBDFH@Z 10009ac0 f   DRChartOcx.obj
 0001:00008b40       ?GetPacketIndex@CDRChartOcx@@QAEFPBDN@Z 10009b40 f   DRChartOcx.obj
 0001:00008b80       ?GetPacketNearIndex@CDRChartOcx@@QAEFPBDN@Z 10009b80 f   DRChartOcx.obj
 0001:00008bc0       ?GetPacketOption@CDRChartOcx@@QAE?AV?$CStringT@DV?$StrTraitMFC_DLL@DV?$ChTraitsCRT@D@ATL@@@@@ATL@@XZ 10009bc0 f   DRChartOcx.obj
 0001:00008c40       ?GetPacketTypeFromKrxCmeCode@CDRChartOcx@@QAE?AV?$CStringT@DV?$StrTraitMFC_DLL@DV?$ChTraitsCRT@D@ATL@@@@@ATL@@PBD@Z 10009c40 f   DRChartOcx.obj
 0001:00008cc0       ?GetRealSettingInfo@CDRChartOcx@@QAE?AV?$CStringT@DV?$StrTraitMFC_DLL@DV?$ChTraitsCRT@D@ATL@@@@@ATL@@XZ 10009cc0 f   DRChartOcx.obj
 0001:00008d40       ?GetRowBlockCount@CDRChartOcx@@QAEFXZ 10009d40 f   DRChartOcx.obj
 0001:00008d70       ?GetRowOfGraphWithRQ@CDRChartOcx@@QAEFPBD0@Z 10009d70 f   DRChartOcx.obj
 0001:00008da0       ?GetRuntimeClass@CDRChartOcx@@UBEPAUCRuntimeClass@@XZ 10009da0 f   DRChartOcx.obj
 0001:00008db0       ?GetSelectedSubGraphData@CDRChartOcx@@QAE?AV?$CStringT@DV?$StrTraitMFC_DLL@DV?$ChTraitsCRT@D@ATL@@@@@ATL@@FF@Z 10009db0 f   DRChartOcx.obj
 0001:00008e30       ?GetStartEndDateOnView@CDRChartOcx@@QAEHPAN0@Z 10009e30 f   DRChartOcx.obj
 0001:00008e60       ?GetStartPeriodOfPacket@CDRChartOcx@@QAEJPBD@Z 10009e60 f   DRChartOcx.obj
 0001:00008e90       ?GetStrAddInLoadList@CDRChartOcx@@QAE?AV?$CStringT@DV?$StrTraitMFC_DLL@DV?$ChTraitsCRT@D@ATL@@@@@ATL@@XZ 10009e90 f   DRChartOcx.obj
 0001:00008f00       ?GetStrBlockRegion@CDRChartOcx@@QAE?AV?$CStringT@DV?$StrTraitMFC_DLL@DV?$ChTraitsCRT@D@ATL@@@@@ATL@@XZ 10009f00 f   DRChartOcx.obj
 0001:00008f70       ?GetStrChartList@CDRChartOcx@@QAE?AV?$CStringT@DV?$StrTraitMFC_DLL@DV?$ChTraitsCRT@D@ATL@@@@@ATL@@XZ 10009f70 f   DRChartOcx.obj
 0001:00008fe0       ?GetStrGlobalSharedList@CDRChartOcx@@QAE?AV?$CStringT@DV?$StrTraitMFC_DLL@DV?$ChTraitsCRT@D@ATL@@@@@ATL@@XZ 10009fe0 f   DRChartOcx.obj
 0001:00009050       ?GetStrLocalSharedList@CDRChartOcx@@QAE?AV?$CStringT@DV?$StrTraitMFC_DLL@DV?$ChTraitsCRT@D@ATL@@@@@ATL@@XZ 1000a050 f   DRChartOcx.obj
 0001:000090c0       ?GetStrMapIndicatorInfo@CDRChartOcx@@QAE?AV?$CStringT@DV?$StrTraitMFC_DLL@DV?$ChTraitsCRT@D@ATL@@@@@ATL@@XZ 1000a0c0 f   DRChartOcx.obj
 0001:00009130       ?GetStrMapName@CDRChartOcx@@QAE?AV?$CStringT@DV?$StrTraitMFC_DLL@DV?$ChTraitsCRT@D@ATL@@@@@ATL@@XZ 1000a130 f   DRChartOcx.obj
 0001:000091a0       ?GetStrPacketOption@CDRChartOcx@@QAE?AV?$CStringT@DV?$StrTraitMFC_DLL@DV?$ChTraitsCRT@D@ATL@@@@@ATL@@XZ 1000a1a0 f   DRChartOcx.obj
 0001:00009210       ?GetStrPagePathWithPrefix@CDRChartOcx@@QAE?AV?$CStringT@DV?$StrTraitMFC_DLL@DV?$ChTraitsCRT@D@ATL@@@@@ATL@@XZ 1000a210 f   DRChartOcx.obj
 0001:00009280       ?GetStrRealList@CDRChartOcx@@QAE?AV?$CStringT@DV?$StrTraitMFC_DLL@DV?$ChTraitsCRT@D@ATL@@@@@ATL@@XZ 1000a280 f   DRChartOcx.obj
 0001:000092f0       ?GetStrStartDateOfData@CDRChartOcx@@QAE?AV?$CStringT@DV?$StrTraitMFC_DLL@DV?$ChTraitsCRT@D@ATL@@@@@ATL@@XZ 1000a2f0 f   DRChartOcx.obj
 0001:00009360       ?GetStrToolbarOption@CDRChartOcx@@QAE?AV?$CStringT@DV?$StrTraitMFC_DLL@DV?$ChTraitsCRT@D@ATL@@@@@ATL@@XZ 1000a360 f   DRChartOcx.obj
 0001:000093d0       ?GetStrUserEnvironmentFileName@CDRChartOcx@@QAE?AV?$CStringT@DV?$StrTraitMFC_DLL@DV?$ChTraitsCRT@D@ATL@@@@@ATL@@XZ 1000a3d0 f   DRChartOcx.obj
 0001:00009440       ?GetStrUserIndicatorListFileName@CDRChartOcx@@QAE?AV?$CStringT@DV?$StrTraitMFC_DLL@DV?$ChTraitsCRT@D@ATL@@@@@ATL@@XZ 1000a440 f   DRChartOcx.obj
 0001:000094b0       ?GetStrUserSeriesListFileName@CDRChartOcx@@QAE?AV?$CStringT@DV?$StrTraitMFC_DLL@DV?$ChTraitsCRT@D@ATL@@@@@ATL@@XZ 1000a4b0 f   DRChartOcx.obj
 0001:00009520       ?GetSzBasePacketName@CDRChartOcx@@QAE?AV?$CStringT@DV?$StrTraitMFC_DLL@DV?$ChTraitsCRT@D@ATL@@@@@ATL@@XZ 1000a520 f   DRChartOcx.obj
 0001:00009590       ?GetThisClass@CDRChartOcx@@SGPAUCRuntimeClass@@XZ 1000a590 f   DRChartOcx.obj
 0001:000095a0       ?GetVertScaleGroupCount@CDRChartOcx@@QAEJFF@Z 1000a5a0 f   DRChartOcx.obj
 0001:000095d0       ?GetVertScalePosition@CDRChartOcx@@QAEFFFF@Z 1000a5d0 f   DRChartOcx.obj
 0001:00009610       ?HasGraph@CDRChartOcx@@QAEHPBD@Z 1000a610 f   DRChartOcx.obj
 0001:00009640       ?HasGraphInSpecialBack@CDRChartOcx@@QAEHPBD@Z 1000a640 f   DRChartOcx.obj
 0001:00009670       ?HasIndicator@CDRChartOcx@@QAEHPBD@Z 1000a670 f   DRChartOcx.obj
 0001:000096a0       ?HasIndicatorInSpecialBack@CDRChartOcx@@QAEHPBD@Z 1000a6a0 f   DRChartOcx.obj
 0001:000096d0       ?HasIndicatorWithRQ@CDRChartOcx@@QAEHPBD0@Z 1000a6d0 f   DRChartOcx.obj
 0001:00009700       ?InitStaticIndiCond@CDRChartOcx@@QAEXPBD@Z 1000a700 f   DRChartOcx.obj
 0001:00009730       ?InvokeAddIn@CDRChartOcx@@QAEHPBDFJ@Z 1000a730 f   DRChartOcx.obj
 0001:00009760       ?InvokeAddInStr@CDRChartOcx@@QAEHPBD00@Z 1000a760 f   DRChartOcx.obj
 0001:00009790       ?JoinAllGraph@CDRChartOcx@@QAEHH@Z 1000a790 f   DRChartOcx.obj
 0001:000097c0       ?JoinandDevisionforCompareChart@CDRChartOcx@@QAEHJJH@Z 1000a7c0 f   DRChartOcx.obj
 0001:000097f0       ?LoadAddIn@CDRChartOcx@@QAEHPBD@Z 1000a7f0 f   DRChartOcx.obj
 0001:00009820       ?LoadAddInWithOverExclusive@CDRChartOcx@@QAEHPBD@Z 1000a820 f   DRChartOcx.obj
 0001:00009850       ?LockWindowUpdate@CDRChartOcx@@QAEHXZ 1000a850 f   DRChartOcx.obj
 0001:00009880       ?MakeSaveShortKey@CDRChartOcx@@QAEXPBDF@Z 1000a880 f   DRChartOcx.obj
 0001:000098b0       ?OpenFileOfEnvAndIndi@CDRChartOcx@@QAEHPBD0H@Z 1000a8b0 f   DRChartOcx.obj
 0001:000098e0       ?OpenFromFile@CDRChartOcx@@QAEHPBDH@Z 1000a8e0 f   DRChartOcx.obj
 0001:00009910       ?OpenFromPage@CDRChartOcx@@QAEXPBDHFF@Z 1000a910 f   DRChartOcx.obj
 0001:00009940       ?PartitionAllGraph@CDRChartOcx@@QAEHXZ 1000a940 f   DRChartOcx.obj
 0001:00009970       ?PrintChatImage@CDRChartOcx@@QAEXXZ 1000a970 f   DRChartOcx.obj
 0001:00009990       ?ReCalculateAllGraphs@CDRChartOcx@@QAEXXZ 1000a990 f   DRChartOcx.obj
 0001:000099b0       ?RemoveAllGraphOfRQ@CDRChartOcx@@QAEXPBD@Z 1000a9b0 f   DRChartOcx.obj
 0001:000099e0       ?RemoveBlock@CDRChartOcx@@QAEHFF@Z 1000a9e0 f   DRChartOcx.obj
 0001:00009a10       ?RemoveBlockWithIndex@CDRChartOcx@@QAEHFF@Z 1000aa10 f   DRChartOcx.obj
 0001:00009a40       ?RemoveChart@CDRChartOcx@@QAEHPBD@Z 1000aa40 f   DRChartOcx.obj
 0001:00009a70       ?RemoveGraph@CDRChartOcx@@QAEHFFPBD@Z 1000aa70 f   DRChartOcx.obj
 0001:00009ab0       ?RemoveGraphRQ@CDRChartOcx@@QAEHPBD0@Z 1000aab0 f   DRChartOcx.obj
 0001:00009ae0       ?RemoveGraph_Title@CDRChartOcx@@QAEHFFPBDHH@Z 1000aae0 f   DRChartOcx.obj
 0001:00009b20       ?RemovePacket@CDRChartOcx@@QAEJPBD@Z 1000ab20 f   DRChartOcx.obj
 0001:00009b50       ?RemoveRealItem@CDRChartOcx@@QAEXPBD@Z 1000ab50 f   DRChartOcx.obj
 0001:00009b80       ?RemoveRealItemWithSeparator@CDRChartOcx@@QAEXPBD0@Z 1000ab80 f   DRChartOcx.obj
 0001:00009bb0       ?ResetChart@CDRChartOcx@@QAEHXZ 1000abb0 f   DRChartOcx.obj
 0001:00009be0       ?ResetChartCfgWith@CDRChartOcx@@QAEXF@Z 1000abe0 f   DRChartOcx.obj
 0001:00009c10       ?ResetRealListString@CDRChartOcx@@QAEHPBDH@Z 1000ac10 f   DRChartOcx.obj
 0001:00009c40       ?RestorMax@CDRChartOcx@@QAEHPBD@Z 1000ac40 f   DRChartOcx.obj
 0001:00009c70       ?RestoreMin@CDRChartOcx@@QAEHPBD@Z 1000ac70 f   DRChartOcx.obj
 0001:00009ca0       ?RestoreMinMax@CDRChartOcx@@QAEHPBD@Z 1000aca0 f   DRChartOcx.obj
 0001:00009cd0       ?RunEnvironmentDlg@CDRChartOcx@@QAEXF@Z 1000acd0 f   DRChartOcx.obj
 0001:00009d00       ?RunToolFunction@CDRChartOcx@@QAEHFF@Z 1000ad00 f   DRChartOcx.obj
 0001:00009d30       ?SaveToPage@CDRChartOcx@@QAEXPBDHFF@Z 1000ad30 f   DRChartOcx.obj
 0001:00009d60       ?SaveandApplyGraphStyle@CDRChartOcx@@QAEXFF@Z 1000ad60 f   DRChartOcx.obj
 0001:00009d90       ?SaveandOpenFromAnalToolFile@CDRChartOcx@@QAEHPBD0HH@Z 1000ad90 f   DRChartOcx.obj
 0001:00009dd0       ?SaveandOpenFromFile@CDRChartOcx@@QAEHPBD0HH@Z 1000add0 f   DRChartOcx.obj
 0001:00009e00       ?SaveandOpenFromFileWithMSave@CDRChartOcx@@QAEHPBD0HH@Z 1000ae00 f   DRChartOcx.obj
 0001:00009e40       ?ScrollToDataOfEnd@CDRChartOcx@@QAEHN@Z 1000ae40 f   DRChartOcx.obj
 0001:00009e80       ?SetAllGraphHide@CDRChartOcx@@QAEXFFF@Z 1000ae80 f   DRChartOcx.obj
 0001:00009eb0       ?SetAllGraphsHide@CDRChartOcx@@QAEXFFH@Z 1000aeb0 f   DRChartOcx.obj
 0001:00009ee0       ?SetAllLogScale@CDRChartOcx@@QAEXH@Z 1000aee0 f   DRChartOcx.obj
 0001:00009f10       ?SetAllProperties2@CDRChartOcx@@QAEHJ@Z 1000af10 f   DRChartOcx.obj
 0001:00009f40       ?SetAllProperties3@CDRChartOcx@@QAEJJ@Z 1000af40 f   DRChartOcx.obj
 0001:00009f70       ?SetAllPropertiesFromFile@CDRChartOcx@@QAEHPBD0@Z 1000af70 f   DRChartOcx.obj
 0001:00009fa0       ?SetAvgUnitPrice@CDRChartOcx@@QAEXN@Z 1000afa0 f   DRChartOcx.obj
 0001:00009fd0       ?SetBAddGraphMenuShow@CDRChartOcx@@QAEXH@Z 1000afd0 f   DRChartOcx.obj
 0001:00009ff0       ?SetBBlockMoveDelete@CDRChartOcx@@QAEXH@Z 1000aff0 f   DRChartOcx.obj
 0001:0000a010       ?SetBControlBlockSize@CDRChartOcx@@QAEXH@Z 1000b010 f   DRChartOcx.obj
 0001:0000a030       ?SetBDoesUseSkinColor@CDRChartOcx@@QAEXH@Z 1000b030 f   DRChartOcx.obj
 0001:0000a050       ?SetBEnableIndicatorCalculation@CDRChartOcx@@QAEXH@Z 1000b050 f   DRChartOcx.obj
 0001:0000a070       ?SetBFireRealEvent@CDRChartOcx@@QAEXH@Z 1000b070 f   DRChartOcx.obj
 0001:0000a090       ?SetBFreezedPageState@CDRChartOcx@@QAEXH@Z 1000b090 f   DRChartOcx.obj
 0001:0000a0b0       ?SetBGraphDragDrop@CDRChartOcx@@QAEXH@Z 1000b0b0 f   DRChartOcx.obj
 0001:0000a0d0       ?SetBHide@CDRChartOcx@@QAEXH@Z 1000b0d0 f   DRChartOcx.obj
 0001:0000a0f0       ?SetBHideAllTitle@CDRChartOcx@@QAEXH@Z 1000b0f0 f   DRChartOcx.obj
 0001:0000a110       ?SetBIsInput@CDRChartOcx@@QAEXH@Z 1000b110 f   DRChartOcx.obj
 0001:0000a130       ?SetBIsMapDefault@CDRChartOcx@@QAEXH@Z 1000b130 f   DRChartOcx.obj
 0001:0000a150       ?SetBNormalizedMinuteTimeRule@CDRChartOcx@@QAEXH@Z 1000b150 f   DRChartOcx.obj
 0001:0000a170       ?SetBOcxAreaNumericalInquiry@CDRChartOcx@@QAEXH@Z 1000b170 f   DRChartOcx.obj
 0001:0000a190       ?SetBOnePageDataCountInTRCount@CDRChartOcx@@QAEXH@Z 1000b190 f   DRChartOcx.obj
 0001:0000a1b0       ?SetBRedrawAfterUpdatedAllPackets@CDRChartOcx@@QAEXH@Z 1000b1b0 f   DRChartOcx.obj
 0001:0000a1d0       ?SetBSelectGraph@CDRChartOcx@@QAEXH@Z 1000b1d0 f   DRChartOcx.obj
 0001:0000a1f0       ?SetBSelectTitle@CDRChartOcx@@QAEXH@Z 1000b1f0 f   DRChartOcx.obj
 0001:0000a210       ?SetBShowPriceMinMaxText@CDRChartOcx@@QAEXH@Z 1000b210 f   DRChartOcx.obj
 0001:0000a230       ?SetBShowPriceRateInquiry@CDRChartOcx@@QAEXH@Z 1000b230 f   DRChartOcx.obj
 0001:0000a250       ?SetBShowWarningMessageBox@CDRChartOcx@@QAEXH@Z 1000b250 f   DRChartOcx.obj
 0001:0000a270       ?SetBUseConditiontoTitle@CDRChartOcx@@QAEXH@Z 1000b270 f   DRChartOcx.obj
 0001:0000a290       ?SetBUseDatatoTitle@CDRChartOcx@@QAEXH@Z 1000b290 f   DRChartOcx.obj
 0001:0000a2b0       ?SetBUseGapRevision@CDRChartOcx@@QAEXH@Z 1000b2b0 f   DRChartOcx.obj
 0001:0000a2d0       ?SetBUseInquiryDlgWhenUseCrossLine@CDRChartOcx@@QAEXH@Z 1000b2d0 f   DRChartOcx.obj
 0001:0000a2f0       ?SetBUseRealData@CDRChartOcx@@QAEXH@Z 1000b2f0 f   DRChartOcx.obj
 0001:0000a310       ?SetBUseScaleRButtonMenu@CDRChartOcx@@QAEXH@Z 1000b310 f   DRChartOcx.obj
 0001:0000a330       ?SetBUseShortKey@CDRChartOcx@@QAEXH@Z 1000b330 f   DRChartOcx.obj
 0001:0000a350       ?SetBWholeView@CDRChartOcx@@QAEXH@Z 1000b350 f   DRChartOcx.obj
 0001:0000a370       ?SetBackgroundColors@CDRChartOcx@@QAEXKK@Z 1000b370 f   DRChartOcx.obj
 0001:0000a3a0       ?SetBaseDesk@CDRChartOcx@@QAEXJ@Z 1000b3a0 f   DRChartOcx.obj
 0001:0000a3c0       ?SetBinTrDoubleData@CDRChartOcx@@QAEHPBDJPAN@Z 1000b3c0 f   DRChartOcx.obj
 0001:0000a3f0       ?SetBinTrEnd@CDRChartOcx@@QAEHXZ 1000b3f0 f   DRChartOcx.obj
 0001:0000a420       ?SetBinTrHelpMsg@CDRChartOcx@@QAEHPBD@Z 1000b420 f   DRChartOcx.obj
 0001:0000a450       ?SetBinTrStringData@CDRChartOcx@@QAEHPBDJJ@Z 1000b450 f   DRChartOcx.obj
 0001:0000a480       ?SetBongCountMargin@CDRChartOcx@@QAEXF@Z 1000b480 f   DRChartOcx.obj
 0001:0000a4b0       ?SetChartAllInfo@CDRChartOcx@@QAEXXZ 1000b4b0 f   DRChartOcx.obj
 0001:0000a4d0       ?SetChartData@CDRChartOcx@@QAEFJFF@Z 1000b4d0 f   DRChartOcx.obj
 0001:0000a500       ?SetChartDataFromFile@CDRChartOcx@@QAEFPBDF@Z 1000b500 f   DRChartOcx.obj
 0001:0000a530       ?SetChartDataStr@CDRChartOcx@@QAEFPBDFF@Z 1000b530 f   DRChartOcx.obj
 0001:0000a560       ?SetClrAnalysisTool@CDRChartOcx@@QAEXK@Z 1000b560 f   DRChartOcx.obj
 0001:0000a580       ?SetClrBackBorder@CDRChartOcx@@QAEXK@Z 1000b580 f   DRChartOcx.obj
 0001:0000a5a0       ?SetClrBackground@CDRChartOcx@@QAEXK@Z 1000b5a0 f   DRChartOcx.obj
 0001:0000a5c0       ?SetClrBlock@CDRChartOcx@@QAEXK@Z 1000b5c0 f   DRChartOcx.obj
 0001:0000a5e0       ?SetClrBlockBorder@CDRChartOcx@@QAEXK@Z 1000b5e0 f   DRChartOcx.obj
 0001:0000a600       ?SetClrGraphBase1@CDRChartOcx@@QAEXK@Z 1000b600 f   DRChartOcx.obj
 0001:0000a620       ?SetClrGraphBase2@CDRChartOcx@@QAEXK@Z 1000b620 f   DRChartOcx.obj
 0001:0000a640       ?SetClrGraphBase3@CDRChartOcx@@QAEXK@Z 1000b640 f   DRChartOcx.obj
 0001:0000a660       ?SetClrGraphBase4@CDRChartOcx@@QAEXK@Z 1000b660 f   DRChartOcx.obj
 0001:0000a680       ?SetClrGraphBase5@CDRChartOcx@@QAEXK@Z 1000b680 f   DRChartOcx.obj
 0001:0000a6a0       ?SetClrGraphBase6@CDRChartOcx@@QAEXK@Z 1000b6a0 f   DRChartOcx.obj
 0001:0000a6c0       ?SetClrInquiryWindow@CDRChartOcx@@QAEXK@Z 1000b6c0 f   DRChartOcx.obj
 0001:0000a6e0       ?SetClrLattice@CDRChartOcx@@QAEXK@Z 1000b6e0 f   DRChartOcx.obj
 0001:0000a700       ?SetClrScaleLine2@CDRChartOcx@@QAEXK@Z 1000b700 f   DRChartOcx.obj
 0001:0000a720       ?SetClrScaleLine@CDRChartOcx@@QAEXK@Z 1000b720 f   DRChartOcx.obj
 0001:0000a740       ?SetClrScaleText@CDRChartOcx@@QAEXK@Z 1000b740 f   DRChartOcx.obj
 0001:0000a760       ?SetContainerDllInfo@CDRChartOcx@@QAEXJF@Z 1000b760 f   DRChartOcx.obj
 0001:0000a790       ?SetCurrentRQ@CDRChartOcx@@QAEXPBD@Z 1000b790 f   DRChartOcx.obj
 0001:0000a7c0       ?SetCustomFont@CDRChartOcx@@QAEXPBD@Z 1000b7c0 f   DRChartOcx.obj
 0001:0000a7e0       ?SetDataIndexByDate@CDRChartOcx@@QAEXPBD0@Z 1000b7e0 f   DRChartOcx.obj
 0001:0000a810       ?SetDataRegionInBlock@CDRChartOcx@@QAEXF@Z 1000b810 f   DRChartOcx.obj
 0001:0000a840       ?SetDoubleSizeBlock@CDRChartOcx@@QAEXFF@Z 1000b840 f   DRChartOcx.obj
 0001:0000a870       ?SetDragModeType@CDRChartOcx@@QAEXF@Z 1000b870 f   DRChartOcx.obj
 0001:0000a8a0       ?SetDrawBaseLine@CDRChartOcx@@QAEXH@Z 1000b8a0 f   DRChartOcx.obj
 0001:0000a8d0       ?SetDrawVerticalBox@CDRChartOcx@@QAEXNPBDH@Z 1000b8d0 f   DRChartOcx.obj
 0001:0000a910       ?SetDrdsAdvise@CDRChartOcx@@QAEHH@Z 1000b910 f   DRChartOcx.obj
 0001:0000a940       ?SetEmptyChart@CDRChartOcx@@QAEXXZ 1000b940 f   DRChartOcx.obj
 0001:0000a960       ?SetEnableHorizontalLineInNIDLG@CDRChartOcx@@QAEXH@Z 1000b960 f   DRChartOcx.obj
 0001:0000a980       ?SetEnabled@CDRChartOcx@@QAEXH@Z 1000b980 f   DRChartOcx.obj
 0001:0000a9a0       ?SetEncUserID@CDRChartOcx@@QAEXPBD@Z 1000b9a0 f   DRChartOcx.obj
 0001:0000a9d0       ?SetFutureScaleVisible@CDRChartOcx@@QAEXJ@Z 1000b9d0 f   DRChartOcx.obj
 0001:0000aa00       ?SetGraphColor@CDRChartOcx@@QAEHFFFFFPBD@Z 1000ba00 f   DRChartOcx.obj
 0001:0000aa50       ?SetGraphColorWithRQ@CDRChartOcx@@QAEHPBD00@Z 1000ba50 f   DRChartOcx.obj
 0001:0000aa80       ?SetGraphHide2@CDRChartOcx@@QAEHFFFFFH@Z 1000ba80 f   DRChartOcx.obj
 0001:0000aad0       ?SetGraphHide3@CDRChartOcx@@QAEHPBDH@Z 1000bad0 f   DRChartOcx.obj
 0001:0000ab00       ?SetGraphHide4@CDRChartOcx@@QAEHPBDFH@Z 1000bb00 f   DRChartOcx.obj
 0001:0000ab30       ?SetGraphHide@CDRChartOcx@@QAEFFFPBDH@Z 1000bb30 f   DRChartOcx.obj
 0001:0000ab70       ?SetGraphTitle@CDRChartOcx@@QAEHPBDF0H@Z 1000bb70 f   DRChartOcx.obj
 0001:0000abb0       ?SetHWnd@CDRChartOcx@@QAEXI@Z 1000bbb0 f   DRChartOcx.obj
 0001:0000abd0       ?SetHelpMessageRealDataRate@CDRChartOcx@@QAEHPBDH@Z 1000bbd0 f   DRChartOcx.obj
 0001:0000ac00       ?SetHorizontalScaleHeight@CDRChartOcx@@QAEXJ@Z 1000bc00 f   DRChartOcx.obj
 0001:0000ac30       ?SetHorzScaleData@CDRChartOcx@@QAEHFFPBD@Z 1000bc30 f   DRChartOcx.obj
 0001:0000ac70       ?SetHtsPath@CDRChartOcx@@QAEXPBD@Z 1000bc70 f   DRChartOcx.obj
 0001:0000aca0       ?SetIndicatorCondition@CDRChartOcx@@QAEHPBDFFNH@Z 1000bca0 f   DRChartOcx.obj
 0001:0000acf0       ?SetIsShowInneerToolBar@CDRChartOcx@@QAEXH@Z 1000bcf0 f   DRChartOcx.obj
 0001:0000ad10       ?SetItemCode@CDRChartOcx@@QAEXPBD00@Z 1000bd10 f   DRChartOcx.obj
 0001:0000ad40       ?SetItemInfo@CDRChartOcx@@QAEXPBD0@Z 1000bd40 f   DRChartOcx.obj
 0001:0000ad70       ?SetLogScale@CDRChartOcx@@QAEHPBDH@Z 1000bd70 f   DRChartOcx.obj
 0001:0000ada0       ?SetMapDefaultInCurrent@CDRChartOcx@@QAEHH@Z 1000bda0 f   DRChartOcx.obj
 0001:0000add0       ?SetMax@CDRChartOcx@@QAEHPBDN@Z 1000bdd0 f   DRChartOcx.obj
 0001:0000ae10       ?SetMin@CDRChartOcx@@QAEHPBDN@Z 1000be10 f   DRChartOcx.obj
 0001:0000ae50       ?SetMinMax@CDRChartOcx@@QAEHPBDNN@Z 1000be50 f   DRChartOcx.obj
 0001:0000ae90       ?SetMultiItemMode@CDRChartOcx@@QAEXH@Z 1000be90 f   DRChartOcx.obj
 0001:0000aec0       ?SetNBlockBorderThickness@CDRChartOcx@@QAEXJ@Z 1000bec0 f   DRChartOcx.obj
 0001:0000aee0       ?SetNBlockColumnCount@CDRChartOcx@@QAEXJ@Z 1000bee0 f   DRChartOcx.obj
 0001:0000af00       ?SetNBlockCompart@CDRChartOcx@@QAEXJ@Z 1000bf00 f   DRChartOcx.obj
 0001:0000af20       ?SetNBlockGap@CDRChartOcx@@QAEXJ@Z 1000bf20 f   DRChartOcx.obj
 0001:0000af40       ?SetNBlockRowCount@CDRChartOcx@@QAEXJ@Z 1000bf40 f   DRChartOcx.obj
 0001:0000af60       ?SetNBlockType@CDRChartOcx@@QAEXJ@Z 1000bf60 f   DRChartOcx.obj
 0001:0000af80       ?SetNBongCountMargin@CDRChartOcx@@QAEXF@Z 1000bf80 f   DRChartOcx.obj
 0001:0000afa0       ?SetNBorderType@CDRChartOcx@@QAEXJ@Z 1000bfa0 f   DRChartOcx.obj
 0001:0000afc0       ?SetNBottomMargin@CDRChartOcx@@QAEXJ@Z 1000bfc0 f   DRChartOcx.obj
 0001:0000afe0       ?SetNChartMode@CDRChartOcx@@QAEXF@Z 1000bfe0 f   DRChartOcx.obj
 0001:0000b000       ?SetNColumnDoubleSizeBlock@CDRChartOcx@@QAEXJ@Z 1000c000 f   DRChartOcx.obj
 0001:0000b020       ?SetNCurrentDrawCount@CDRChartOcx@@QAEXJ@Z 1000c020 f   DRChartOcx.obj
 0001:0000b040       ?SetNFullDataCount@CDRChartOcx@@QAEXJ@Z 1000c040 f   DRChartOcx.obj
 0001:0000b060       ?SetNGraphRButtonType@CDRChartOcx@@QAEXF@Z 1000c060 f   DRChartOcx.obj
 0001:0000b080       ?SetNHoldingPacketSize@CDRChartOcx@@QAEXF@Z 1000c080 f   DRChartOcx.obj
 0001:0000b0a0       ?SetNHorzGap@CDRChartOcx@@QAEXF@Z 1000c0a0 f   DRChartOcx.obj
 0001:0000b0c0       ?SetNInquiryType@CDRChartOcx@@QAEXF@Z 1000c0c0 f   DRChartOcx.obj
 0001:0000b0e0       ?SetNLanguageID@CDRChartOcx@@QAEXF@Z 1000c0e0 f   DRChartOcx.obj
 0001:0000b100       ?SetNLeftMargin@CDRChartOcx@@QAEXJ@Z 1000c100 f   DRChartOcx.obj
 0001:0000b120       ?SetNMarginBorderType@CDRChartOcx@@QAEXF@Z 1000c120 f   DRChartOcx.obj
 0001:0000b140       ?SetNMinDataCountOnOnePage@CDRChartOcx@@QAEXF@Z 1000c140 f   DRChartOcx.obj
 0001:0000b160       ?SetNNumericalInquiryOption@CDRChartOcx@@QAEXJ@Z 1000c160 f   DRChartOcx.obj
 0001:0000b180       ?SetNOnePageDataCount@CDRChartOcx@@QAEXJ@Z 1000c180 f   DRChartOcx.obj
 0001:0000b1a0       ?SetNPacketCountDataSize@CDRChartOcx@@QAEXF@Z 1000c1a0 f   DRChartOcx.obj
 0001:0000b1c0       ?SetNRButtonMenuType@CDRChartOcx@@QAEXF@Z 1000c1c0 f   DRChartOcx.obj
 0001:0000b1e0       ?SetNRealTimeTruncationType@CDRChartOcx@@QAEXF@Z 1000c1e0 f   DRChartOcx.obj
 0001:0000b200       ?SetNRightMargin@CDRChartOcx@@QAEXJ@Z 1000c200 f   DRChartOcx.obj
 0001:0000b220       ?SetNRowDoubleSizeBlock@CDRChartOcx@@QAEXJ@Z 1000c220 f   DRChartOcx.obj
 0001:0000b240       ?SetNScaleLineType@CDRChartOcx@@QAEXJ@Z 1000c240 f   DRChartOcx.obj
 0001:0000b260       ?SetNTopMargin@CDRChartOcx@@QAEXJ@Z 1000c260 f   DRChartOcx.obj
 0001:0000b280       ?SetNUseInquiryWithCrossline@CDRChartOcx@@QAEXF@Z 1000c280 f   DRChartOcx.obj
 0001:0000b2a0       ?SetNUserBlockAddCount@CDRChartOcx@@QAEXJ@Z 1000c2a0 f   DRChartOcx.obj
 0001:0000b2c0       ?SetNVertGap@CDRChartOcx@@QAEXF@Z 1000c2c0 f   DRChartOcx.obj
 0001:0000b2e0       ?SetOnRunningOneChart@CDRChartOcx@@QAEXH@Z 1000c2e0 f   DRChartOcx.obj
 0001:0000b300       ?SetOnePageDataCount2@CDRChartOcx@@QAEXJH@Z 1000c300 f   DRChartOcx.obj
 0001:0000b330       ?SetOnePageDataCount@CDRChartOcx@@QAEXJ@Z 1000c330 f   DRChartOcx.obj
 0001:0000b350       ?SetOnePageDataCountInTRCount@CDRChartOcx@@QAEXHH@Z 1000c350 f   DRChartOcx.obj
 0001:0000b380       ?SetOutsideCommonInterface@CDRChartOcx@@QAEXJ@Z 1000c380 f   DRChartOcx.obj
 0001:0000b3b0       ?SetPacketAutoScaleType@CDRChartOcx@@QAEXPBDH@Z 1000c3b0 f   DRChartOcx.obj
 0001:0000b3e0       ?SetPacketData2@CDRChartOcx@@QAEHPBD00FH@Z 1000c3e0 f   DRChartOcx.obj
 0001:0000b420       ?SetPacketData@CDRChartOcx@@QAEHPBDJJH@Z 1000c420 f   DRChartOcx.obj
 0001:0000b460       ?SetPacketDataInAdditionPacket@CDRChartOcx@@QAEHPBDJJH@Z 1000c460 f   DRChartOcx.obj
 0001:0000b4a0       ?SetPacketDataInIndex@CDRChartOcx@@QAEHPBDF0H@Z 1000c4a0 f   DRChartOcx.obj
 0001:0000b4e0       ?SetPacketDataRQ@CDRChartOcx@@QAEHPBD0JJH@Z 1000c4e0 f   DRChartOcx.obj
 0001:0000b520       ?SetPacketHelpMessage@CDRChartOcx@@QAEHPBDH@Z 1000c520 f   DRChartOcx.obj
 0001:0000b550       ?SetPacketOption@CDRChartOcx@@QAEXPBD@Z 1000c550 f   DRChartOcx.obj
 0001:0000b580       ?SetPacketTypeWithAutoScale@CDRChartOcx@@QAEHPBD0H@Z 1000c580 f   DRChartOcx.obj
 0001:0000b5b0       ?SetRealData@CDRChartOcx@@QAEXPBDNF@Z 1000c5b0 f   DRChartOcx.obj
 0001:0000b5f0       ?SetRealDataCode@CDRChartOcx@@QAEXPBD0NF@Z 1000c5f0 f   DRChartOcx.obj
 0001:0000b630       ?SetResetTotalCountWhileDraw@CDRChartOcx@@QAEXH@Z 1000c630 f   DRChartOcx.obj
 0001:0000b660       ?SetRunTimeMode@CDRChartOcx@@QAEXH@Z 1000c660 f   DRChartOcx.obj
 0001:0000b690       ?SetStartEndDateOfView@CDRChartOcx@@QAEHNN@Z 1000c690 f   DRChartOcx.obj
 0001:0000b6d0       ?SetStartPeriodOfPacket@CDRChartOcx@@QAEHPBDJJ@Z 1000c6d0 f   DRChartOcx.obj
 0001:0000b700       ?SetStopLossPrice@CDRChartOcx@@QAEHHNHN@Z 1000c700 f   DRChartOcx.obj
 0001:0000b750       ?SetStrAddInLoadList@CDRChartOcx@@QAEXPBD@Z 1000c750 f   DRChartOcx.obj
 0001:0000b770       ?SetStrBlockRegion@CDRChartOcx@@QAEXPBD@Z 1000c770 f   DRChartOcx.obj
 0001:0000b790       ?SetStrChartList@CDRChartOcx@@QAEXPBD@Z 1000c790 f   DRChartOcx.obj
 0001:0000b7b0       ?SetStrGlobalSharedList@CDRChartOcx@@QAEXPBD@Z 1000c7b0 f   DRChartOcx.obj
 0001:0000b7d0       ?SetStrLocalSharedList@CDRChartOcx@@QAEXPBD@Z 1000c7d0 f   DRChartOcx.obj
 0001:0000b7f0       ?SetStrMapIndicatorInfo@CDRChartOcx@@QAEXPBD@Z 1000c7f0 f   DRChartOcx.obj
 0001:0000b810       ?SetStrMapName@CDRChartOcx@@QAEXPBD@Z 1000c810 f   DRChartOcx.obj
 0001:0000b830       ?SetStrPacketOption@CDRChartOcx@@QAEXPBD@Z 1000c830 f   DRChartOcx.obj
 0001:0000b850       ?SetStrPagePathWithPrefix@CDRChartOcx@@QAEXPBD@Z 1000c850 f   DRChartOcx.obj
 0001:0000b870       ?SetStrRealList@CDRChartOcx@@QAEXPBD@Z 1000c870 f   DRChartOcx.obj
 0001:0000b890       ?SetStrStartDateOfData@CDRChartOcx@@QAEXPBD@Z 1000c890 f   DRChartOcx.obj
 0001:0000b8b0       ?SetStrToolbarOption@CDRChartOcx@@QAEXPBD@Z 1000c8b0 f   DRChartOcx.obj
 0001:0000b8d0       ?SetStrUserEnvironmentFileName@CDRChartOcx@@QAEXPBD@Z 1000c8d0 f   DRChartOcx.obj
 0001:0000b8f0       ?SetStrUserIndicatorListFileName@CDRChartOcx@@QAEXPBD@Z 1000c8f0 f   DRChartOcx.obj
 0001:0000b910       ?SetStrUserSeriesListFileName@CDRChartOcx@@QAEXPBD@Z 1000c910 f   DRChartOcx.obj
 0001:0000b930       ?SetSubIndicatorCondition@CDRChartOcx@@QAEHPBDFFFNH@Z 1000c930 f   DRChartOcx.obj
 0001:0000b980       ?SetSyncPacketData@CDRChartOcx@@QAEXPBD@Z 1000c980 f   DRChartOcx.obj
 0001:0000b9b0       ?SetSzBasePacketName@CDRChartOcx@@QAEXPBD@Z 1000c9b0 f   DRChartOcx.obj
 0001:0000b9d0       ?SetTimeMark@CDRChartOcx@@QAEXPBDH@Z 1000c9d0 f   DRChartOcx.obj
 0001:0000ba00       ?SetUseSTExtData@CDRChartOcx@@QAEXPBD@Z 1000ca00 f   DRChartOcx.obj
 0001:0000ba30       ?SetVertScaleData@CDRChartOcx@@QAEHFFFPBD@Z 1000ca30 f   DRChartOcx.obj
 0001:0000ba70       ?SetVertScaleLogType@CDRChartOcx@@QAEHFFH@Z 1000ca70 f   DRChartOcx.obj
 0001:0000bab0       ?SetVertScaleType@CDRChartOcx@@QAEXFFFFN@Z 1000cab0 f   DRChartOcx.obj
 0001:0000bb00       ?ShiftPacket@CDRChartOcx@@QAEHPBDJ@Z 1000cb00 f   DRChartOcx.obj
 0001:0000bb30       ?ShowAnalysisToolText@CDRChartOcx@@QAEXHHHHHHH@Z 1000cb30 f   DRChartOcx.obj
 0001:0000bb70       ?ShowBaseText@CDRChartOcx@@QAEXH@Z 1000cb70 f   DRChartOcx.obj
 0001:0000bba0       ?ShowEnvironmentDlg@CDRChartOcx@@QAEXXZ 1000cba0 f   DRChartOcx.obj
 0001:0000bbc0       ?ShowGraphDataDrawingData@CDRChartOcx@@QAEHPBD0HF@Z 1000cbc0 f   DRChartOcx.obj
 0001:0000bc00       ?ShowIndicator@CDRChartOcx@@QAEXPBDHH@Z 1000cc00 f   DRChartOcx.obj
 0001:0000bc30       ?ShowIndicatorConfigDlg@CDRChartOcx@@QAEXXZ 1000cc30 f   DRChartOcx.obj
 0001:0000bc50       ?ShowIndicatorConfigDlgWithName@CDRChartOcx@@QAEHPBD@Z 1000cc50 f   DRChartOcx.obj
 0001:0000bc80       ?ShowInnerToolBar@CDRChartOcx@@QAEXH@Z 1000cc80 f   DRChartOcx.obj
 0001:0000bcb0       ?ShowSelEnvironmentDlg@CDRChartOcx@@QAEXF@Z 1000ccb0 f   DRChartOcx.obj
 0001:0000bce0       ?UnloadAddIn@CDRChartOcx@@QAEHPBD@Z 1000cce0 f   DRChartOcx.obj
 0001:0000bd10       ?UnlockWindowUpdate@CDRChartOcx@@QAEXXZ 1000cd10 f   DRChartOcx.obj
 0001:0000bd30       ?UpdateHorizontalLine@CDRChartOcx@@QAEXJPBDKFN@Z 1000cd30 f   DRChartOcx.obj
 0001:0000bd70       ?UseDummyPacketData@CDRChartOcx@@QAEXH@Z 1000cd70 f   DRChartOcx.obj
 0001:0000bda0       ?ZoomTo@CDRChartOcx@@QAEHJH@Z 1000cda0 f   DRChartOcx.obj
 0001:0000bdd0       ?ZoomToWithRightFix@CDRChartOcx@@QAEFFH@Z 1000cdd0 f   DRChartOcx.obj
 0001:0000be00       ?_GetBaseClass@CDRChartOcx@@KGPAUCRuntimeClass@@XZ 1000ce00 f   DRChartOcx.obj
 0001:0000be10       ?testGetPacketdatasize@CDRChartOcx@@QAEFPBD@Z 1000ce10 f   DRChartOcx.obj
 0001:0000be40       ?testLoadAnalysisTools@CDRChartOcx@@QAEXFF@Z 1000ce40 f   DRChartOcx.obj
 0001:0000be70       ??$SerializeElements@H@@YGXAAVCArchive@@PAHH@Z 1000ce70 f i BCMenu.obj
 0001:0000bf20       ??$SerializeElements@PAVBCMenu@@@@YGXAAVCArchive@@PAPAVBCMenu@@H@Z 1000cf20 f i BCMenu.obj
 0001:0000bfd0       ??0?$CArray@HAAH@@QAE@XZ   1000cfd0 f i BCMenu.obj
 0001:0000c000       ??0?$CArray@HH@@QAE@XZ     1000d000 f i BCMenu.obj
 0001:0000c030       ??0?$CArray@PAVBCMenu@@PAV1@@@QAE@XZ 1000d030 f i BCMenu.obj
 0001:0000c060       ??0BCMenu@@QAE@XZ          1000d060 f   BCMenu.obj
 0001:0000c130       ??1?$CArray@HAAH@@UAE@XZ   1000d130 f i BCMenu.obj
 0001:0000c150       ??1?$CArray@HH@@UAE@XZ     1000d150 f i BCMenu.obj
 0001:0000c170       ??1?$CArray@PAVBCMenu@@PAV1@@@UAE@XZ 1000d170 f i BCMenu.obj
 0001:0000c190       ??1?$CTypedPtrArray@VCPtrArray@@PAVBCMenu@@@@UAE@XZ 1000d190 f i BCMenu.obj
 0001:0000c1a0       ??1?$CTypedPtrArray@VCPtrArray@@PAVBCMenuData@@@@UAE@XZ 1000d1a0 f i BCMenu.obj
 0001:0000c1b0       ??1BCMenu@@UAE@XZ          1000d1b0 f   BCMenu.obj
 0001:0000c220       ??1BCMenuData@@QAE@XZ      1000d220 f   BCMenu.obj
 0001:0000c240       ??1CBrush@@UAE@XZ          1000d240 f i BCMenu.obj
 0001:0000c250       ??1CFont@@UAE@XZ           1000d250 f i BCMenu.obj
 0001:0000c260       ??1CMenu@@UAE@XZ           1000d260 f i BCMenu.obj
 0001:0000c2b0       ??1CPen@@UAE@XZ            1000d2b0 f i BCMenu.obj
 0001:0000c2c0       ??_G?$CArray@HAAH@@UAEPAXI@Z 1000d2c0 f i BCMenu.obj
 0001:0000c2c0       ??_E?$CArray@HAAH@@UAEPAXI@Z 1000d2c0 f i BCMenu.obj
 0001:0000c310       ??_G?$CArray@HH@@UAEPAXI@Z 1000d310 f i BCMenu.obj
 0001:0000c310       ??_E?$CArray@HH@@UAEPAXI@Z 1000d310 f i BCMenu.obj
 0001:0000c360       ??_E?$CArray@PAVBCMenu@@PAV1@@@UAEPAXI@Z 1000d360 f i BCMenu.obj
 0001:0000c360       ??_G?$CArray@PAVBCMenu@@PAV1@@@UAEPAXI@Z 1000d360 f i BCMenu.obj
 0001:0000c3b0       ??_G?$CTypedPtrArray@VCPtrArray@@PAUHMENU__@@@@UAEPAXI@Z 1000d3b0 f i BCMenu.obj
 0001:0000c3b0       ??_E?$CTypedPtrArray@VCPtrArray@@PAUHMENU__@@@@UAEPAXI@Z 1000d3b0 f i BCMenu.obj
 0001:0000c3f0       ??_E?$CTypedPtrArray@VCPtrArray@@PAVBCMenu@@@@UAEPAXI@Z 1000d3f0 f i BCMenu.obj
 0001:0000c3f0       ??_G?$CTypedPtrArray@VCPtrArray@@PAVBCMenu@@@@UAEPAXI@Z 1000d3f0 f i BCMenu.obj
 0001:0000c430       ??_E?$CTypedPtrArray@VCPtrArray@@PAVBCMenuData@@@@UAEPAXI@Z 1000d430 f i BCMenu.obj
 0001:0000c430       ??_G?$CTypedPtrArray@VCPtrArray@@PAVBCMenuData@@@@UAEPAXI@Z 1000d430 f i BCMenu.obj
 0001:0000c470       ??_EBCMenu@@UAEPAXI@Z      1000d470 f i BCMenu.obj
 0001:0000c470       ??_GBCMenu@@UAEPAXI@Z      1000d470 f i BCMenu.obj
 0001:0000c520       ??_GBCMenuMemDC@@UAEPAXI@Z 1000d520 f i BCMenu.obj
 0001:0000c520       ??_EBCMenuMemDC@@UAEPAXI@Z 1000d520 f i BCMenu.obj
 0001:0000c610       ??_ECBrush@@UAEPAXI@Z      1000d610 f i BCMenu.obj
 0001:0000c610       ??_GCBrush@@UAEPAXI@Z      1000d610 f i BCMenu.obj
 0001:0000c650       ??_ECFont@@UAEPAXI@Z       1000d650 f i BCMenu.obj
 0001:0000c650       ??_GCFont@@UAEPAXI@Z       1000d650 f i BCMenu.obj
 0001:0000c690       ??_ECMenu@@UAEPAXI@Z       1000d690 f i BCMenu.obj
 0001:0000c690       ??_GCMenu@@UAEPAXI@Z       1000d690 f i BCMenu.obj
 0001:0000c720       ??_ECPen@@UAEPAXI@Z        1000d720 f i BCMenu.obj
 0001:0000c720       ??_GCPen@@UAEPAXI@Z        1000d720 f i BCMenu.obj
 0001:0000c760       ?AddBitmapToImageList@BCMenu@@QAEHPAVCImageList@@I@Z 1000d760 f   BCMenu.obj
 0001:0000cb00       ?AddFromToolBar@BCMenu@@QAEXPAVCToolBar@@H@Z 1000db00 f   BCMenu.obj
 0001:0000cd00       ?AddToGlobalImageList@BCMenu@@IAEHPAVCImageList@@HH@Z 1000dd00 f   BCMenu.obj
 0001:0000d180       ?AfxCrtErrorCheck@@YAHH@Z  1000e180 f i BCMenu.obj
 0001:0000d210       ?AfxGetMainWnd@@YGPAVCWnd@@XZ 1000e210 f i BCMenu.obj
 0001:0000d230       ?AppendMenuA@BCMenu@@QAEHIIPBDH@Z 1000e230 f   BCMenu.obj
 0001:0000d2c0       ?AppendMenuA@BCMenu@@QAEHIIPBDPAVCBitmap@@@Z 1000e2c0 f   BCMenu.obj
 0001:0000d3f0       ?AppendMenuA@BCMenu@@QAEHIIPBDPAVCImageList@@H@Z 1000e3f0 f   BCMenu.obj
 0001:0000d490       ?AppendMenuW@BCMenu@@QAEHIIPA_WH@Z 1000e490 f   BCMenu.obj
 0001:0000d4b0       ?AppendMenuW@BCMenu@@QAEHIIPA_WPAVCBitmap@@@Z 1000e4b0 f   BCMenu.obj
 0001:0000d590       ?AppendMenuW@BCMenu@@QAEHIIPA_WPAVCImageList@@H@Z 1000e590 f   BCMenu.obj
 0001:0000d5b0       ?AppendODMenuA@BCMenu@@QAEHPBDIIH@Z 1000e5b0 f   BCMenu.obj
 0001:0000d640       ?AppendODMenuA@BCMenu@@QAEHPBDIIPAVCImageList@@H@Z 1000e640 f   BCMenu.obj
 0001:0000d6e0       ?AppendODMenuW@BCMenu@@QAEHPA_WIIH@Z 1000e6e0 f   BCMenu.obj
 0001:0000d8b0       ?AppendODMenuW@BCMenu@@QAEHPA_WIIPAVCImageList@@H@Z 1000e8b0 f   BCMenu.obj
 0001:0000dc00       ?AppendODPopupMenuA@BCMenu@@QAEPAV1@PBD@Z 1000ec00 f   BCMenu.obj
 0001:0000dd10       ?AppendODPopupMenuW@BCMenu@@QAEPAV1@PA_W@Z 1000ed10 f   BCMenu.obj
 0001:0000ddb0       ?CanDraw3DImageList@BCMenu@@IAEHH@Z 1000edb0 f   BCMenu.obj
 0001:0000de10       ?ColorBitmap@BCMenu@@IAEXPAVCDC@@AAVCBitmap@@VCSize@@2KKH@Z 1000ee10 f   BCMenu.obj
 0001:0000e060       ?DarkenColor@BCMenu@@SAKKN@Z 1000f060 f   BCMenu.obj
 0001:0000e100       ?DeleteMenu@BCMenu@@QAEHII@Z 1000f100 f   BCMenu.obj
 0001:0000e420       ?DeleteMenu@BCMenu@@QAEHPADW4BC_Seperator@@@Z 1000f420 f   BCMenu.obj
 0001:0000e500       ?DeleteMenu@BCMenu@@QAEHPA_WW4BC_Seperator@@@Z 1000f500 f   BCMenu.obj
 0001:0000e580       ?DeleteMenuList@BCMenu@@IAEXXZ 1000f580 f   BCMenu.obj
 0001:0000e5e0       ?DestroyMenu@BCMenu@@UAEHXZ 1000f5e0 f   BCMenu.obj
 0001:0000e760       ?DitherBlt2@BCMenu@@IAEXPAVCDC@@HHHHAAVCBitmap@@HHK@Z 1000f760 f   BCMenu.obj
 0001:0000ea70       ?DitherBlt3@BCMenu@@IAEXPAVCDC@@HHHHAAVCBitmap@@K@Z 1000fa70 f   BCMenu.obj
 0001:0000eb40       ?DitherBlt@BCMenu@@IAEXPAUHDC__@@HHHHPAUHBITMAP__@@HHK@Z 1000fb40 f   BCMenu.obj
 0001:0000ed40       ?Draw3DCheckmark@BCMenu@@IAEHPAVCDC@@ABVCRect@@HPAUHBITMAP__@@@Z 1000fd40 f   BCMenu.obj
 0001:0000ee90       ?DrawCheckMark@BCMenu@@IAEXPAVCDC@@HHKH@Z 1000fe90 f   BCMenu.obj
 0001:0000f030       ?DrawItem@BCMenu@@UAEXPAUtagDRAWITEMSTRUCT@@@Z 10010030 f   BCMenu.obj
 0001:0000f0a0       ?DrawItem_Win9xNT2000@BCMenu@@IAEXPAUtagDRAWITEMSTRUCT@@@Z 100100a0 f   BCMenu.obj
 0001:0000fd60       ?DrawItem_WinXP@BCMenu@@IAEXPAUtagDRAWITEMSTRUCT@@@Z 10010d60 f   BCMenu.obj
 0001:00010fe0       ?DrawRadioDot@BCMenu@@IAEXPAVCDC@@HHK@Z 10011fe0 f   BCMenu.obj
 0001:000110e0       ?DrawTextA@CDC@@UAEHPBDHPAUtagRECT@@I@Z 100120e0 f i BCMenu.obj
 0001:00011100       ?DrawTextExA@CDC@@UAEHPADHPAUtagRECT@@IPAUtagDRAWTEXTPARAMS@@@Z 10012100 f i BCMenu.obj
 0001:00011120       ?DrawXPCheckmark@BCMenu@@IAEHPAVCDC@@ABVCRect@@PAUHBITMAP__@@AAKH@Z 10012120 f   BCMenu.obj
 0001:00011260       ?Escape@CDC@@UAEHHHPBDPAX@Z 10012260 f i BCMenu.obj
 0001:00011280       ?ExtTextOutA@CDC@@UAEHHHIPBUtagRECT@@PBDIPAH@Z 10012280 f i BCMenu.obj
 0001:000112b0       ?FindAnotherMenuOption@BCMenu@@IAEPAV1@HAAHAAV?$CArray@PAVBCMenu@@PAV1@@@AAV?$CArray@HAAH@@@Z 100122b0 f   BCMenu.obj
 0001:00011390       ?FindKeyboardShortcut@BCMenu@@SAJIIPAVCMenu@@@Z 10012390 f   BCMenu.obj
 0001:00011500       ?FindMenuItem@BCMenu@@IAEPAVBCMenuData@@I@Z 10012500 f   BCMenu.obj
 0001:00011570       ?FindMenuList@BCMenu@@IAEPAVBCMenuData@@I@Z 10012570 f   BCMenu.obj
 0001:000115d0       ?FindMenuOption@BCMenu@@IAEPAV1@HAAH@Z 100125d0 f   BCMenu.obj
 0001:00011670       ?FindMenuOption@BCMenu@@IAEPAVBCMenuData@@PA_W@Z 10012670 f   BCMenu.obj
 0001:00011770       ?GetAt@?$CTypedPtrArray@VCPtrArray@@PAVBCMenuData@@@@QBEPAVBCMenuData@@H@Z 10012770 f i BCMenu.obj
 0001:00011790       ?GetBitmapFromImageList@BCMenu@@IAEHPAVCDC@@PAVCImageList@@HAAVCBitmap@@@Z 10012790 f   BCMenu.obj
 0001:000118d0       ?GetDisableOldStyle@BCMenu@@QAEHXZ 100128d0 f   BCMenu.obj
 0001:000118e0       ?GetDisabledBitmap@BCMenu@@IAEXAAVCBitmap@@K@Z 100128e0 f   BCMenu.obj
 0001:00011b20       ?GetFadedBitmap@BCMenu@@IAEXAAVCBitmap@@@Z 10012b20 f   BCMenu.obj
 0001:00011db0       ?GetMenuDrawMode@BCMenu@@SAHXZ 10012db0 f   BCMenu.obj
 0001:00011dd0       ?GetMenuPosition@BCMenu@@QAEHPAD@Z 10012dd0 f   BCMenu.obj
 0001:00011e60       ?GetMenuPosition@BCMenu@@QAEHPA_W@Z 10012e60 f   BCMenu.obj
 0001:00011f30       ?GetMenuStart@BCMenu@@IAEHXZ 10012f30 f   BCMenu.obj
 0001:000120b0       ?GetMenuText@BCMenu@@QAEHIAAV?$CStringT@DV?$StrTraitMFC_DLL@DV?$ChTraitsCRT@D@ATL@@@@@ATL@@I@Z 100130b0 f   BCMenu.obj
 0001:00012170       ?GetRuntimeClass@BCMenu@@UBEPAUCRuntimeClass@@XZ 10013170 f   BCMenu.obj
 0001:00012180       ?GetSelectDisableMode@BCMenu@@SAHXZ 10013180 f   BCMenu.obj
 0001:000121b0       ?GetShadowBitmap@BCMenu@@IAEXAAVCBitmap@@@Z 100131b0 f   BCMenu.obj
 0001:000123c0       ?GetString@BCMenuData@@QAE?AV?$CStringT@DV?$StrTraitMFC_DLL@DV?$ChTraitsCRT@D@ATL@@@@@ATL@@XZ 100133c0 f   BCMenu.obj
 0001:000124a0       ?GetSubBCMenu@BCMenu@@QAEPAV1@PAD@Z 100134a0 f   BCMenu.obj
 0001:00012550       ?GetSubBCMenu@BCMenu@@QAEPAV1@PA_W@Z 10013550 f   BCMenu.obj
 0001:00012590       ?GetSubMenu@BCMenu@@QAEPAVCMenu@@H@Z 10013590 f   BCMenu.obj
 0001:000125b0       ?GetSubMenu@BCMenu@@QAEPAVCMenu@@PBD@Z 100135b0 f   BCMenu.obj
 0001:00012660       ?GetThisClass@BCMenu@@SGPAUCRuntimeClass@@XZ 10013660 f   BCMenu.obj
 0001:00012670       ?GetTransparentBitmap@BCMenu@@IAEXAAVCBitmap@@@Z 10013670 f   BCMenu.obj
 0001:00012860       ?GlobalImageListOffset@BCMenu@@IAEHH@Z 10013860 f   BCMenu.obj
 0001:000128b0       ?GrayStringA@CDC@@UAEHPAVCBrush@@P6GHPAUHDC__@@JH@ZJHHHHH@Z 100138b0 f i BCMenu.obj
 0001:000128e0       ?ImageListDuplicate@BCMenu@@IAEHPAVCImageList@@H0@Z 100138e0 f   BCMenu.obj
 0001:00012b10       ?InitializeMenuList@BCMenu@@IAEXH@Z 10013b10 f   BCMenu.obj
 0001:00012b50       ?InsertMenuA@BCMenu@@QAEHIIIPBDH@Z 10013b50 f   BCMenu.obj
 0001:00012bf0       ?InsertMenuA@BCMenu@@QAEHIIIPBDPAVCBitmap@@@Z 10013bf0 f   BCMenu.obj
 0001:00012d30       ?InsertMenuA@BCMenu@@QAEHIIIPBDPAVCImageList@@H@Z 10013d30 f   BCMenu.obj
 0001:00012dd0       ?InsertMenuW@BCMenu@@QAEHIIIPA_WH@Z 10013dd0 f   BCMenu.obj
 0001:00012df0       ?InsertMenuW@BCMenu@@QAEHIIIPA_WPAVCBitmap@@@Z 10013df0 f   BCMenu.obj
 0001:00012ed0       ?InsertMenuW@BCMenu@@QAEHIIIPA_WPAVCImageList@@H@Z 10013ed0 f   BCMenu.obj
 0001:00012ef0       ?InsertODMenuA@BCMenu@@QAEHIPBDIIH@Z 10013ef0 f   BCMenu.obj
 0001:00012f90       ?InsertODMenuA@BCMenu@@QAEHIPBDIIPAVCImageList@@H@Z 10013f90 f   BCMenu.obj
 0001:00013030       ?InsertODMenuW@BCMenu@@QAEHIPA_WIIH@Z 10014030 f   BCMenu.obj
 0001:000132a0       ?InsertODMenuW@BCMenu@@QAEHIPA_WIIPAVCImageList@@H@Z 100142a0 f   BCMenu.obj
 0001:00013420       ?InsertSpaces@BCMenu@@IAEXXZ 10014420 f   BCMenu.obj
 0001:00013910       ?IsLunaMenuStyle@BCMenu@@KAHXZ 10014910 f   BCMenu.obj
 0001:00013940       ?IsMenu@BCMenu@@SAHPAUHMENU__@@@Z 10014940 f   BCMenu.obj
 0001:00013990       ?IsMenu@BCMenu@@SAHPAVCMenu@@@Z 10014990 f   BCMenu.obj
 0001:000139e0       ?IsNewShell@BCMenu@@KAHXZ  100149e0 f   BCMenu.obj
 0001:000139f0       ?IsShellType@@YA?AW4Win32Type@@XZ 100149f0 f   BCMenu.obj
 0001:00013b10       ?IsWinXPLuna@BCMenu@@KAHXZ 10014b10 f   BCMenu.obj
 0001:00013c50       ?IsWindowsClassicTheme@BCMenu@@KAHXZ 10014c50 f   BCMenu.obj
 0001:00013d70       ?LightenColor@BCMenu@@SAKKN@Z 10014d70 f   BCMenu.obj
 0001:00013e30       ?LoadCheckmarkBitmap@BCMenu@@QAEXHH@Z 10014e30 f   BCMenu.obj
 0001:00013f20       ?LoadFromToolBar@BCMenu@@QAEHIIAAH@Z 10014f20 f   BCMenu.obj
 0001:00014000       ?LoadMenuA@BCMenu@@UAEHH@Z 10015000 f   BCMenu.obj
 0001:00014010       ?LoadMenuA@BCMenu@@UAEHPBD@Z 10015010 f   BCMenu.obj
 0001:00014520       ?LoadSysColorBitmap@BCMenu@@SAPAUHBITMAP__@@H@Z 10015520 f   BCMenu.obj
 0001:000145a0       ?LoadToolbar@BCMenu@@QAEHI@Z 100155a0 f   BCMenu.obj
 0001:00014720       ?LoadToolbars@BCMenu@@QAEHPBIH@Z 10015720 f   BCMenu.obj
 0001:000148f0       ?MeasureItem@BCMenu@@UAEXPAUtagMEASUREITEMSTRUCT@@@Z 100158f0 f   BCMenu.obj
 0001:00014c40       ?ModifyODMenuA@BCMenu@@QAEHPBD0H@Z 10015c40 f   BCMenu.obj
 0001:00014e90       ?ModifyODMenuA@BCMenu@@QAEHPBDIH@Z 10015e90 f   BCMenu.obj
 0001:00014f20       ?ModifyODMenuA@BCMenu@@QAEHPBDIKKHPAVCSize@@@Z 10015f20 f   BCMenu.obj
 0001:000150c0       ?ModifyODMenuA@BCMenu@@QAEHPBDIPAVCBitmap@@@Z 100160c0 f   BCMenu.obj
 0001:00015150       ?ModifyODMenuA@BCMenu@@QAEHPBDIPAVCImageList@@H@Z 10016150 f   BCMenu.obj
 0001:000151e0       ?ModifyODMenuW@BCMenu@@QAEHPA_W0H@Z 100161e0 f   BCMenu.obj
 0001:00015310       ?ModifyODMenuW@BCMenu@@QAEHPA_WIH@Z 10016310 f   BCMenu.obj
 0001:00015640       ?ModifyODMenuW@BCMenu@@QAEHPA_WIKKHPAVCSize@@@Z 10016640 f   BCMenu.obj
 0001:00015730       ?ModifyODMenuW@BCMenu@@QAEHPA_WIPAVCBitmap@@@Z 10016730 f   BCMenu.obj
 0001:00015800       ?ModifyODMenuW@BCMenu@@QAEHPA_WIPAVCImageList@@H@Z 10016800 f   BCMenu.obj
 0001:00015a90       ?NewODMenu@BCMenu@@IAEPAVBCMenuData@@IIIV?$CStringT@DV?$StrTraitMFC_DLL@DV?$ChTraitsCRT@D@ATL@@@@@ATL@@@Z 10016a90 f   BCMenu.obj
 0001:00015b70       ?NumBitmapColors@BCMenu@@KAGPAUtagBITMAPINFOHEADER@@@Z 10016b70 f   BCMenu.obj
 0001:00015bb0       ?PtVisible@CDC@@UBEHHH@Z   10016bb0 f i BCMenu.obj
 0001:00015bd0       ?RectVisible@CDC@@UBEHPBUtagRECT@@@Z 10016bd0 f i BCMenu.obj
 0001:00015bf0       ?RemoveAt@?$CArray@HH@@QAEXHH@Z 10016bf0 f i BCMenu.obj
 0001:00015c90       ?RemoveMenu@BCMenu@@QAEHII@Z 10016c90 f   BCMenu.obj
 0001:00015f20       ?RemoveMenu@BCMenu@@QAEHPADW4BC_Seperator@@@Z 10016f20 f   BCMenu.obj
 0001:00016000       ?RemoveMenu@BCMenu@@QAEHPA_WW4BC_Seperator@@@Z 10017000 f   BCMenu.obj
 0001:00016080       ?RemoveTopLevelOwnerDraw@BCMenu@@IAEXXZ 10017080 f   BCMenu.obj
 0001:000161c0       ?Serialize@?$CArray@HAAH@@UAEXAAVCArchive@@@Z 100171c0 f i BCMenu.obj
 0001:00016210       ?Serialize@?$CArray@HH@@UAEXAAVCArchive@@@Z 10017210 f i BCMenu.obj
 0001:00016260       ?Serialize@?$CArray@PAVBCMenu@@PAV1@@@UAEXAAVCArchive@@@Z 10017260 f i BCMenu.obj
 0001:00016340       ?SetAnsiString@BCMenuData@@QAEXPBD@Z 10017340 f   BCMenu.obj
 0001:00016440       ?SetAtGrow@?$CArray@HAAH@@QAEXHAAH@Z 10017440 f i BCMenu.obj
 0001:00016480       ?SetAtGrow@?$CArray@HH@@QAEXHH@Z 10017480 f i BCMenu.obj
 0001:000164c0       ?SetAtGrow@?$CArray@PAVBCMenu@@PAV1@@@QAEXHPAVBCMenu@@@Z 100174c0 f i BCMenu.obj
 0001:00016500       ?SetBitmapBackground@BCMenu@@QAEXK@Z 10017500 f   BCMenu.obj
 0001:00016520       ?SetDisableOldStyle@BCMenu@@QAEXXZ 10017520 f   BCMenu.obj
 0001:00016530       ?SetIconSize@BCMenu@@SAXHH@Z 10017530 f   BCMenu.obj
 0001:00016550       ?SetMenuText@BCMenu@@QAEHIV?$CStringT@DV?$StrTraitMFC_DLL@DV?$ChTraitsCRT@D@ATL@@@@@ATL@@I@Z 10017550 f   BCMenu.obj
 0001:00016610       ?SetSize@?$CArray@HAAH@@QAEXHH@Z 10017610 f i BCMenu.obj
 0001:000167f0       ?SetSize@?$CArray@HH@@QAEXHH@Z 100177f0 f i BCMenu.obj
 0001:000169d0       ?SetSize@?$CArray@PAVBCMenu@@PAV1@@@QAEXHH@Z 100179d0 f i BCMenu.obj
 0001:00016bb0       ?SetWideString@BCMenuData@@QAEXPB_W@Z 10017bb0 f   BCMenu.obj
 0001:00016c30       ?SynchronizeMenu@BCMenu@@IAEXXZ 10017c30 f   BCMenu.obj
 0001:00016ef0       ?TabbedTextOutA@CDC@@UAE?AVCSize@@HHPBDHHPAHH@Z 10017ef0 f i BCMenu.obj
 0001:00016f30       ?TextOutA@CDC@@UAEHHHPBDH@Z 10017f30 f i BCMenu.obj
 0001:00016f50       ?UnSetBitmapBackground@BCMenu@@QAEXXZ 10017f50 f   BCMenu.obj
 0001:00016f60       ?UnSetDisableOldStyle@BCMenu@@QAEXXZ 10017f60 f   BCMenu.obj
 0001:00016f70       ?UpdateMenu@BCMenu@@SAXPAVCMenu@@@Z 10017f70 f   BCMenu.obj
 0001:00016fa0       ?_GetBaseClass@BCMenu@@KGPAUCRuntimeClass@@XZ 10017fa0 f   BCMenu.obj
 0001:00016fb0       ??1CRgn@@UAE@XZ            10017fb0 f i Conversion.obj
 0001:00016fd0       ??HATL@@YA?AV?$CStringT@DV?$StrTraitMFC_DLL@DV?$ChTraitsCRT@D@ATL@@@@@0@ABV10@0@Z 10017fd0 f i Conversion.obj
 0001:00017050       ??HATL@@YA?AV?$CStringT@DV?$StrTraitMFC_DLL@DV?$ChTraitsCRT@D@ATL@@@@@0@DABV10@@Z 10018050 f i Conversion.obj
 0001:000170d0       ??_ECRgn@@UAEPAXI@Z        100180d0 f i Conversion.obj
 0001:000170d0       ??_GCRgn@@UAEPAXI@Z        100180d0 f i Conversion.obj
 0001:00017110       ?AbsoluteToRelative_X@CDataConversion@@SAHABVCRect@@HABN1@Z 10018110 f   Conversion.obj
 0001:00017180       ?AbsoluteToRelative_X@CDataConversion@@SAHABVCRect@@HH@Z 10018180 f   Conversion.obj
 0001:000171d0       ?AbsoluteToRelative_Y@CDataConversion@@SANABVCRect@@HABN1@Z 100181d0 f   Conversion.obj
 0001:00017270       ?Bool2Str@CDataConversion@@SA?AV?$CStringT@DV?$StrTraitMFC_DLL@DV?$ChTraitsCRT@D@ATL@@@@@ATL@@H@Z 10018270 f   Conversion.obj
 0001:000172e0       ?CalcDateFormat@CDataConversion@@SAHHHABV?$CStringT@DV?$StrTraitMFC_DLL@DV?$ChTraitsCRT@D@ATL@@@@@ATL@@HH@Z 100182e0 f   Conversion.obj
 0001:00017650       ?CalcTimeFormat@CDataConversion@@CAHABV?$CStringT@DV?$StrTraitMFC_DLL@DV?$ChTraitsCRT@D@ATL@@@@@ATL@@00_N1@Z 10018650 f   Conversion.obj
 0001:000176b0       ?CalcTimeFormat@CDataConversion@@SAHHHABV?$CStringT@DV?$StrTraitMFC_DLL@DV?$ChTraitsCRT@D@ATL@@@@@ATL@@_N@Z 100186b0 f   Conversion.obj
 0001:00017770       ?CalcTimeFormat_Future@CDataConversion@@CAHABV?$CStringT@DV?$StrTraitMFC_DLL@DV?$ChTraitsCRT@D@ATL@@@@@ATL@@00_N@Z 10018770 f   Conversion.obj
 0001:00017900       ?CalcTimeFormat_Past@CDataConversion@@CAHABV?$CStringT@DV?$StrTraitMFC_DLL@DV?$ChTraitsCRT@D@ATL@@@@@ATL@@00_N@Z 10018900 f   Conversion.obj
 0001:00017940       ?CalcTimeFormatforCharge@CDataConversion@@SAHHHABV?$CStringT@DV?$StrTraitMFC_DLL@DV?$ChTraitsCRT@D@ATL@@@@@ATL@@H_N@Z 10018940 f   Conversion.obj
 0001:00017a80       ?ChagneUprightData_Day@CDataConversion@@CAXAAH00@Z 10018a80 f   Conversion.obj
 0001:00017b10       ?ChagneUprightData_YearAndMonth@CDataConversion@@CAXAAH0@Z 10018b10 f   Conversion.obj
 0001:00017b80       ?DoubleToString@CDataConversion@@SA?AV?$CStringT@DV?$StrTraitMFC_DLL@DV?$ChTraitsCRT@D@ATL@@@@@ATL@@ABN@Z 10018b80 f   Conversion.obj
 0001:00017c60       ?DoubleToString@CDataConversion@@SA?AV?$CStringT@DV?$StrTraitMFC_DLL@DV?$ChTraitsCRT@D@ATL@@@@@ATL@@ABNH@Z 10018c60 f   Conversion.obj
 0001:00017e20       ?FindIndex@CDataConversion@@SAHABV?$CStringT@DV?$StrTraitMFC_DLL@DV?$ChTraitsCRT@D@ATL@@@@@ATL@@0H@Z 10018e20 f   Conversion.obj
 0001:00017e70       ?GetAdditionDataInFormat@CDataConversion@@CA?AV?$CStringT@DV?$StrTraitMFC_DLL@DV?$ChTraitsCRT@D@ATL@@@@@ATL@@HHABV23@H@Z 10018e70 f   Conversion.obj
 0001:000180c0       ?GetAllTime@CDataConversion@@CA_NHHABV?$CStringT@DV?$StrTraitMFC_DLL@DV?$ChTraitsCRT@D@ATL@@@@@ATL@@AAH1111@Z 100190c0 f   Conversion.obj
 0001:00018110       ?GetAllTime@CDataConversion@@CA_NHHHHHAAH0AA_N@Z 10019110 f   Conversion.obj
 0001:00018170       ?GetAllTime_DatePart@CDataConversion@@CA_NHHABV?$CStringT@DV?$StrTraitMFC_DLL@DV?$ChTraitsCRT@D@ATL@@@@@ATL@@AAH1@Z 10019170 f   Conversion.obj
 0001:000181b0       ?GetAllTime_Hour@CDataConversion@@CA_NHHABV?$CStringT@DV?$StrTraitMFC_DLL@DV?$ChTraitsCRT@D@ATL@@@@@ATL@@AAH1AA_N@Z 100191b0 f   Conversion.obj
 0001:00018240       ?GetAllTime_Minute@CDataConversion@@CA_NHHABV?$CStringT@DV?$StrTraitMFC_DLL@DV?$ChTraitsCRT@D@ATL@@@@@ATL@@AAH1AA_N@Z 10019240 f   Conversion.obj
 0001:000183b0       ?GetAllTime_Second@CDataConversion@@CA_NHHABV?$CStringT@DV?$StrTraitMFC_DLL@DV?$ChTraitsCRT@D@ATL@@@@@ATL@@AAH1AA_N@Z 100193b0 f   Conversion.obj
 0001:00018420       ?GetAllTime_TimePart@CDataConversion@@CA_NHHABV?$CStringT@DV?$StrTraitMFC_DLL@DV?$ChTraitsCRT@D@ATL@@@@@ATL@@AAH111@Z 10019420 f   Conversion.obj
 0001:00018680       ?GetChangeFormat_NumCharUnit@CDataConversion@@SA?AV?$CStringT@DV?$StrTraitMFC_DLL@DV?$ChTraitsCRT@D@ATL@@@@@ATL@@ABV23@@Z 10019680 f   Conversion.obj
 0001:00018820       ?GetChangingPosition@CDataConversion@@CAHHHABN00@Z 10019820 f   Conversion.obj
 0001:00018880       ?GetChangingPosition@CDataConversion@@CAHHHABN_N@Z 10019880 f   Conversion.obj
 0001:000188f0       ?GetCompartType@CDataConversion@@SA?AV?$CStringT@DV?$StrTraitMFC_DLL@DV?$ChTraitsCRT@D@ATL@@@@@ATL@@ABV23@00@Z 100198f0 f   Conversion.obj
 0001:00018a00       ?GetComplementColor@CDataConversion@@SAKK@Z 10019a00 f   Conversion.obj
 0001:00018bc0       ?GetDataInLimit@CDataConversion@@CAXHAAH0@Z 10019bc0 f   Conversion.obj
 0001:00018be0       ?GetDataType@CDataConversion@@SANV?$CStringT@DV?$StrTraitMFC_DLL@DV?$ChTraitsCRT@D@ATL@@@@@ATL@@@Z 10019be0 f   Conversion.obj
 0001:00018c80       ?GetDecimalDownCount@CDataConversion@@SAHABV?$CStringT@DV?$StrTraitMFC_DLL@DV?$ChTraitsCRT@D@ATL@@@@@ATL@@_N@Z 10019c80 f   Conversion.obj
 0001:00018e00       ?GetHorizontalPoint@CDataConversion@@SA?AVCPoint@@ABVCRect@@HABN111@Z 10019e00 f   Conversion.obj
 0001:00018f00       ?GetHorizontalPoint_X@CDataConversion@@SAHABVCRect@@ABN11@Z 10019f00 f   Conversion.obj
 0001:00018f90       ?GetHourTime_Future@CDataConversion@@CAXHH_NAAH1@Z 10019f90 f   Conversion.obj
 0001:00018ff0       ?GetLeftToTrimDataIndex@CDataConversion@@SA?AV?$CStringT@DV?$StrTraitMFC_DLL@DV?$ChTraitsCRT@D@ATL@@@@@ATL@@ABV23@0H_N@Z 10019ff0 f   Conversion.obj
 0001:00019040       ?GetMidToTrimDataEndIndex@CDataConversion@@SA?AV?$CStringT@DV?$StrTraitMFC_DLL@DV?$ChTraitsCRT@D@ATL@@@@@ATL@@ABV23@0H_N1@Z 1001a040 f   Conversion.obj
 0001:00019160       ?GetMidToTrimDataIndex@CDataConversion@@SA?AV?$CStringT@DV?$StrTraitMFC_DLL@DV?$ChTraitsCRT@D@ATL@@@@@ATL@@ABV23@00H_N@Z 1001a160 f   Conversion.obj
 0001:00019200       ?GetMidToTrimDataIndex@CDataConversion@@SA?AV?$CStringT@DV?$StrTraitMFC_DLL@DV?$ChTraitsCRT@D@ATL@@@@@ATL@@ABV23@0H_N@Z 1001a200 f   Conversion.obj
 0001:00019310       ?GetMidToTrimDataStartIndex@CDataConversion@@SA?AV?$CStringT@DV?$StrTraitMFC_DLL@DV?$ChTraitsCRT@D@ATL@@@@@ATL@@ABV23@0H_N1@Z 1001a310 f   Conversion.obj
 0001:000193b0       ?GetMonthFullDay@CDataConversion@@CAHHHH@Z 1001a3b0 f   Conversion.obj
 0001:00019400       ?GetPacketDataIndex_Date@CDataConversion@@SAHABVCRect@@ABVCPoint@@HH@Z 1001a400 f   Conversion.obj
 0001:00019460       ?GetRealDailyInTimeFormat@CDataConversion@@CAHHABV?$CStringT@DV?$StrTraitMFC_DLL@DV?$ChTraitsCRT@D@ATL@@@@@ATL@@@Z 1001a460 f   Conversion.obj
 0001:000195f0       ?GetRealDailyInTimeFormat@CDataConversion@@CA_NHAAH00@Z 1001a5f0 f   Conversion.obj
 0001:00019660       ?GetRealWidth@CDataConversion@@SANABNH@Z 1001a660 f   Conversion.obj
 0001:000196a0       ?GetSpecialTime@CDataConversion@@SA_NABV?$CStringT@DV?$StrTraitMFC_DLL@DV?$ChTraitsCRT@D@ATL@@@@@ATL@@0AAV23@@Z 1001a6a0 f   Conversion.obj
 0001:00019770       ?GetStringData@CDataConversion@@SA?AV?$CStringT@DV?$StrTraitMFC_DLL@DV?$ChTraitsCRT@D@ATL@@@@@ATL@@AAV23@ABV23@1_N@Z 1001a770 f   Conversion.obj
 0001:00019870       ?GetStringData@CDataConversion@@SA?AV?$CStringT@DV?$StrTraitMFC_DLL@DV?$ChTraitsCRT@D@ATL@@@@@ATL@@AAV23@ABV23@H@Z 1001a870 f   Conversion.obj
 0001:000199b0       ?GetStringData@CDataConversion@@SA?AV?$CStringT@DV?$StrTraitMFC_DLL@DV?$ChTraitsCRT@D@ATL@@@@@ATL@@AAV23@ABV23@_N@Z 1001a9b0 f   Conversion.obj
 0001:00019af0       ?GetStringDataCount@CDataConversion@@SAHABV?$CStringT@DV?$StrTraitMFC_DLL@DV?$ChTraitsCRT@D@ATL@@@@@ATL@@0@Z 1001aaf0 f   Conversion.obj
 0001:00019bb0       ?GetStringFormatTrans@CDataConversion@@SA?AV?$CStringT@DV?$StrTraitMFC_DLL@DV?$ChTraitsCRT@D@ATL@@@@@ATL@@ABV23@000@Z 1001abb0 f   Conversion.obj
 0001:00019d30       ?GetStringFormatTrans@CDataConversion@@SA?AV?$CStringT@DV?$StrTraitMFC_DLL@DV?$ChTraitsCRT@D@ATL@@@@@ATL@@ABV23@0@Z 1001ad30 f   Conversion.obj
 0001:0001a150       ?GetStringFormatTransCutoff@CDataConversion@@SAHABN0AAV?$CStringT@DV?$StrTraitMFC_DLL@DV?$ChTraitsCRT@D@ATL@@@@@ATL@@1@Z 1001b150 f   Conversion.obj
 0001:0001a1c0       ?GetStringFormatTransCutoff@CDataConversion@@SAHABNABV?$CStringT@DV?$StrTraitMFC_DLL@DV?$ChTraitsCRT@D@ATL@@@@@ATL@@AAV23@2@Z 1001b1c0 f   Conversion.obj
 0001:0001a710       ?GetStringFormatbyCompart@CDataConversion@@SA?AV?$CStringT@DV?$StrTraitMFC_DLL@DV?$ChTraitsCRT@D@ATL@@@@@ATL@@ABV23@AAV23@001@Z 1001b710 f   Conversion.obj
 0001:0001aae0       ?GetStringThousandFormat@CDataConversion@@SA?AV?$CStringT@DV?$StrTraitMFC_DLL@DV?$ChTraitsCRT@D@ATL@@@@@ATL@@ABN0@Z 1001bae0 f   Conversion.obj
 0001:0001ad50       ?GetStringThousandFormat@CDataConversion@@SA?AV?$CStringT@DV?$StrTraitMFC_DLL@DV?$ChTraitsCRT@D@ATL@@@@@ATL@@ABV23@@Z 1001bd50 f   Conversion.obj
 0001:0001b040       ?GetTimeData@CDataConversion@@CA_NABV?$CStringT@DV?$StrTraitMFC_DLL@DV?$ChTraitsCRT@D@ATL@@@@@ATL@@000HAAH1@Z 1001c040 f   Conversion.obj
 0001:0001b120       ?GetTimeData@CDataConversion@@CA_NABV?$CStringT@DV?$StrTraitMFC_DLL@DV?$ChTraitsCRT@D@ATL@@@@@ATL@@00AAH1111111@Z 1001c120 f   Conversion.obj
 0001:0001b300       ?GetTimeInFormat@CDataConversion@@CAHABV?$CStringT@DV?$StrTraitMFC_DLL@DV?$ChTraitsCRT@D@ATL@@@@@ATL@@HHHH@Z 1001c300 f   Conversion.obj
 0001:0001b4a0       ?GetVerticalPoint@CDataConversion@@SA?AVCPoint@@ABVCRect@@ABN11111@Z 1001c4a0 f   Conversion.obj
 0001:0001b590       ?GetVerticalPoint@CDataConversion@@SA?AVCPoint@@ABVCRect@@HABN111_N@Z 1001c590 f   Conversion.obj
 0001:0001b680       ?GetVerticalPointBox@CDataConversion@@SA?AVCPoint@@ABVCRect@@HABN111_N@Z 1001c680 f   Conversion.obj
 0001:0001b770       ?InsertString@CDataConversion@@SA?AV?$CStringT@DV?$StrTraitMFC_DLL@DV?$ChTraitsCRT@D@ATL@@@@@ATL@@ABV23@0HH@Z 1001c770 f   Conversion.obj
 0001:0001b8a0       ?IntToString@CDataConversion@@SA?AV?$CStringT@DV?$StrTraitMFC_DLL@DV?$ChTraitsCRT@D@ATL@@@@@ATL@@H@Z 1001c8a0 f   Conversion.obj
 0001:0001b910       ?IntToString@CDataConversion@@SA?AV?$CStringT@DV?$StrTraitMFC_DLL@DV?$ChTraitsCRT@D@ATL@@@@@ATL@@HH@Z 1001c910 f   Conversion.obj
 0001:0001bab0       ?InvertGraphDataPt@CDataConversion@@SAHABVCRect@@H@Z 1001cab0 f   Conversion.obj
 0001:0001bae0       ?IsCalUprightData@CDataConversion@@CA_NHHH@Z 1001cae0 f   Conversion.obj
 0001:0001bb40       ?IsCalcTimeFormatforCharge@CDataConversion@@CA_NHHABV?$CStringT@DV?$StrTraitMFC_DLL@DV?$ChTraitsCRT@D@ATL@@@@@ATL@@H@Z 1001cb40 f   Conversion.obj
 0001:0001bc30       ?IsPluse@CDataConversion@@CA_NABV?$CStringT@DV?$StrTraitMFC_DLL@DV?$ChTraitsCRT@D@ATL@@@@@ATL@@@Z 1001cc30 f   Conversion.obj
 0001:0001bc80       ?NormalNumberString@CDataConversion@@SA?AV?$CStringT@DV?$StrTraitMFC_DLL@DV?$ChTraitsCRT@D@ATL@@@@@ATL@@ABV23@@Z 1001cc80 f   Conversion.obj
 0001:0001bd40       ?OnPickoutDaily@CDataConversion@@CA_NHABV?$CStringT@DV?$StrTraitMFC_DLL@DV?$ChTraitsCRT@D@ATL@@@@@ATL@@AAH11@Z 1001cd40 f   Conversion.obj
 0001:0001be80       ?OnPickoutDate@CDataConversion@@CA_NHABV?$CStringT@DV?$StrTraitMFC_DLL@DV?$ChTraitsCRT@D@ATL@@@@@ATL@@HAAH11@Z 1001ce80 f   Conversion.obj
 0001:0001c160       ?OnPickoutMonthly@CDataConversion@@CA_NHABV?$CStringT@DV?$StrTraitMFC_DLL@DV?$ChTraitsCRT@D@ATL@@@@@ATL@@AAH11@Z 1001d160 f   Conversion.obj
 0001:0001c1f0       ?OnPickoutTime@CDataConversion@@CA_NHHABV?$CStringT@DV?$StrTraitMFC_DLL@DV?$ChTraitsCRT@D@ATL@@@@@ATL@@HAAH1111@Z 1001d1f0 f   Conversion.obj
 0001:0001c440       ?OnPickoutWeekley@CDataConversion@@CA_NHABV?$CStringT@DV?$StrTraitMFC_DLL@DV?$ChTraitsCRT@D@ATL@@@@@ATL@@AAH11@Z 1001d440 f   Conversion.obj
 0001:0001c530       ?RGB2Str@CDataConversion@@SA?AV?$CStringT@DV?$StrTraitMFC_DLL@DV?$ChTraitsCRT@D@ATL@@@@@ATL@@K@Z 1001d530 f   Conversion.obj
 0001:0001c5c0       ?RelativeToAbsolute@CDataConversion@@SA?AVCPoint@@ABVCRect@@HHABN1H1@Z 1001d5c0 f   Conversion.obj
 0001:0001c840       ?RelativeToAbsoluteInDisplayIndex@CDataConversion@@CA?AVCPoint@@ABVCRect@@ABN11H1@Z 1001d840 f   Conversion.obj
 0001:0001c920       ?RelativeToAbsoluteInDisplayIndex_X@CDataConversion@@CAHABVCRect@@ABNH_N@Z 1001d920 f   Conversion.obj
 0001:0001c9a0       ?RelativeToAbsoluteInDisplayIndex_Y@CDataConversion@@CAHABVCRect@@ABN11@Z 1001d9a0 f   Conversion.obj
 0001:0001ca10       ?RelativeToAbsoluteOutDisplayIndex@CDataConversion@@CA?AVCPoint@@ABVCRect@@ABN111HHH1@Z 1001da10 f   Conversion.obj
 0001:0001cb60       ?RelativeToAbsoluteOutDisplayIndex_X@CDataConversion@@CAHABVCRect@@ABNHHH@Z 1001db60 f   Conversion.obj
 0001:0001cbd0       ?RelativeToAbsoluteOutDisplayIndex_Y@CDataConversion@@CAHABVCRect@@ABN111@Z 1001dbd0 f   Conversion.obj
 0001:0001cca0       ?RelativeToAbsolute_X@CDataConversion@@SAHABVCRect@@HHH_N@Z 1001dca0 f   Conversion.obj
 0001:0001cd60       ?RelativeToAbsolute_Y@CDataConversion@@SAHABVCRect@@ABN11@Z 1001dd60 f   Conversion.obj
 0001:0001cdc0       ?SelectClipRegion@CDataConversion@@SAXPAVCDC@@@Z 1001ddc0 f   Conversion.obj
 0001:0001cdd0       ?SelectClipRegion@CDataConversion@@SAXPAVCDC@@ABVCRect@@@Z 1001ddd0 f   Conversion.obj
 0001:0001ce60       ?Str2RGB@CDataConversion@@SAKABV?$CStringT@DV?$StrTraitMFC_DLL@DV?$ChTraitsCRT@D@ATL@@@@@ATL@@@Z 1001de60 f   Conversion.obj
 0001:0001cf00       ?atob@CDataConversion@@SA_NH@Z 1001df00 f   Conversion.obj
 0001:0001cf10       ?atob@CDataConversion@@SA_NPBD@Z 1001df10 f   Conversion.obj
 0001:0001cf30       ?atod@CDataConversion@@SANM@Z 1001df30 f   Conversion.obj
 0001:0001cf80       ___local_stdio_printf_options 1001df80 f i Conversion.obj
 0001:0001cf90       ___local_stdio_scanf_options 1001df90 f i Conversion.obj
 0001:0001cfa0       _sprintf                   1001dfa0 f i Conversion.obj
 0001:0001cff0       _sscanf                    1001dff0 f i Conversion.obj
 0001:0001d020       ?Angle@CMath@@SANABN@Z     1001e020 f   DataMath.obj
 0001:0001d0a0       ?Center@CMath@@SAHHH@Z     1001e0a0 f   DataMath.obj
 0001:0001d0f0       ?Distance@CMath@@SANABVCPoint@@0@Z 1001e0f0 f   DataMath.obj
 0001:0001d180       ?Divide10@CMath@@SANABNH@Z 1001e180 f   DataMath.obj
 0001:0001d200       ?Exp@CMath@@SANABN@Z       1001e200 f   DataMath.obj
 0001:0001d260       ?Floor@CMath@@SAHHH@Z      1001e260 f   DataMath.obj
 0001:0001d2d0       ?Floor@CMath@@SANABNH@Z    1001e2d0 f   DataMath.obj
 0001:0001d350       ?Log@CMath@@SANABN@Z       1001e350 f   DataMath.obj
 0001:0001d3b0       ?Modulus@CMath@@SANABN0@Z  1001e3b0 f   DataMath.obj
 0001:0001d400       ?NumberCount@CMath@@SAHH@Z 1001e400 f   DataMath.obj
 0001:0001d470       ?Power@CMath@@SAHHH@Z      1001e470 f   DataMath.obj
 0001:0001d4b0       ?Round@CMath@@SAHHH@Z      1001e4b0 f   DataMath.obj
 0001:0001d530       ?Round@CMath@@SAHN@Z       1001e530 f   DataMath.obj
 0001:0001d560       ?Round@CMath@@SANABNH@Z    1001e560 f   DataMath.obj
 0001:0001d610       ?Round_Double@CMath@@SANABN@Z 1001e610 f   DataMath.obj
 0001:0001d640       ?TanD@CMath@@SANABN@Z      1001e640 f   DataMath.obj
 0001:0001d700       ?TanI@CMath@@SAHH@Z        1001e700 f   DataMath.obj
 0001:0001d7b0       ??0CRealChartData@@QAE@XZ  1001e7b0 f   RealChartData.obj
 0001:0001d7c0       ??1CRealChartData@@UAE@XZ  1001e7c0 f   RealChartData.obj
 0001:0001d7d0       ??_ECRealChartData@@UAEPAXI@Z 1001e7d0 f i RealChartData.obj
 0001:0001d7d0       ??_GCRealChartData@@UAEPAXI@Z 1001e7d0 f i RealChartData.obj
 0001:0001d800       ??$SerializeElements@VCRowViewData@@@@YGXAAVCArchive@@PAVCRowViewData@@H@Z 1001e800 f i ViewData.obj
 0001:0001d8a0       ??$SerializeElements@VCSubGraphViewData@@@@YGXAAVCArchive@@PAVCSubGraphViewData@@H@Z 1001e8a0 f i ViewData.obj
 0001:0001d940       ??0?$CList@VCRowViewData@@AAV1@@@QAE@H@Z 1001e940 f i ViewData.obj
 0001:0001d980       ??0?$CList@VCSubGraphViewData@@AAV1@@@QAE@H@Z 1001e980 f i ViewData.obj
 0001:0001d9c0       ??0CColumnViewData@@QAE@ABV0@@Z 1001e9c0 f   ViewData.obj
 0001:0001daa0       ??0CColumnViewData@@QAE@XZ 1001eaa0 f   ViewData.obj
 0001:0001dae0       ??0CRowViewData@@QAE@ABV0@@Z 1001eae0 f   ViewData.obj
 0001:0001db90       ??0CRowViewData@@QAE@XZ    1001eb90 f   ViewData.obj
 0001:0001dc20       ??0CSubGraphViewData@@QAE@W4GRAPHTYPE@CGraphBaseData@@ABVCGraphStyle@@ABV?$CStringT@DV?$StrTraitMFC_DLL@DV?$ChTraitsCRT@D@ATL@@@@@ATL@@2@Z 1001ec20 f   ViewData.obj
 0001:0001dc90       ??0CSubGraphViewData@@QAE@XZ 1001ec90 f   ViewData.obj
 0001:0001dd00       ??1?$CList@VCRowViewData@@AAV1@@@UAE@XZ 1001ed00 f i ViewData.obj
 0001:0001dd50       ??1?$CList@VCSubGraphViewData@@AAV1@@@UAE@XZ 1001ed50 f i ViewData.obj
 0001:0001dda0       ??1CColumnViewData@@QAE@XZ 1001eda0 f i ViewData.obj
 0001:0001ddf0       ??1CRowViewData@@QAE@XZ    1001edf0 f i ViewData.obj
 0001:0001de50       ??1CSubGraphViewData@@QAE@XZ 1001ee50 f i ViewData.obj
 0001:0001de70       ??1CSubGraphViewDataList@@QAE@XZ 1001ee70 f i ViewData.obj
 0001:0001dec0       ??4CColumnViewData@@QAEAAV0@ABV0@@Z 1001eec0 f   ViewData.obj
 0001:0001df70       ??4CRowViewData@@QAEAAV0@ABV0@@Z 1001ef70 f   ViewData.obj
 0001:0001e000       ??4CSubGraphViewData@@QAEAAV0@ABV0@@Z 1001f000 f   ViewData.obj
 0001:0001e0b0       ??4CSubGraphViewDataList@@QAEAAV0@ABV0@@Z 1001f0b0 f   ViewData.obj
 0001:0001e190       ??_G?$CList@VCRowViewData@@AAV1@@@UAEPAXI@Z 1001f190 f i ViewData.obj
 0001:0001e190       ??_E?$CList@VCRowViewData@@AAV1@@@UAEPAXI@Z 1001f190 f i ViewData.obj
 0001:0001e220       ??_G?$CList@VCSubGraphViewData@@AAV1@@@UAEPAXI@Z 1001f220 f i ViewData.obj
 0001:0001e220       ??_E?$CList@VCSubGraphViewData@@AAV1@@@UAEPAXI@Z 1001f220 f i ViewData.obj
 0001:0001e2b0       ?AddTail@?$CList@VCColumnViewData@@AAV1@@@QAEPAU__POSITION@@AAVCColumnViewData@@@Z 1001f2b0 f i ViewData.obj
 0001:0001e370       ?AddTail@?$CList@VCRowViewData@@AAV1@@@QAEPAU__POSITION@@AAVCRowViewData@@@Z 1001f370 f i ViewData.obj
 0001:0001e410       ?AddTail@?$CList@VCSubGraphViewData@@AAV1@@@QAEPAU__POSITION@@AAVCSubGraphViewData@@@Z 1001f410 f i ViewData.obj
 0001:0001e570       ?AddTail@CColumnViewData@@QAEXVCRowViewData@@@Z 1001f570 f   ViewData.obj
 0001:0001e5e0       ?AddTail@CSubGraphViewDataList@@QAEXVCSubGraphViewData@@@Z 1001f5e0 f   ViewData.obj
 0001:0001e640       ?AddTail@CViewData@@QAEXVCColumnViewData@@@Z 1001f640 f   ViewData.obj
 0001:0001e6a0       ?FindIndex@?$CList@VCColumnViewData@@AAV1@@@QBEPAU__POSITION@@H@Z 1001f6a0 f i ViewData.obj
 0001:0001e6d0       ?FindIndex@?$CList@VCRowViewData@@AAV1@@@QBEPAU__POSITION@@H@Z 1001f6d0 f i ViewData.obj
 0001:0001e700       ?FindIndex@?$CList@VCSubGraphViewData@@AAV1@@@QBEPAU__POSITION@@H@Z 1001f700 f i ViewData.obj
 0001:0001e730       ?GetAt@CColumnViewData@@QAEAAVCRowViewData@@H@Z 1001f730 f   ViewData.obj
 0001:0001e760       ?GetAt@CColumnViewData@@QAE_NHAAVCRowViewData@@@Z 1001f760 f   ViewData.obj
 0001:0001e7b0       ?GetAt@CColumnViewData@@QBE?AVCRowViewData@@H@Z 1001f7b0 f   ViewData.obj
 0001:0001e870       ?GetAt@CSubGraphViewDataList@@QAEAAVCSubGraphViewData@@H@Z 1001f870 f   ViewData.obj
 0001:0001e8a0       ?GetAt@CSubGraphViewDataList@@QBE?AVCSubGraphViewData@@H@Z 1001f8a0 f   ViewData.obj
 0001:0001e930       ?GetAt@CViewData@@QAEAAVCColumnViewData@@H@Z 1001f930 f   ViewData.obj
 0001:0001e960       ?GetAt@CViewData@@QAEAAVCRowViewData@@HH@Z 1001f960 f   ViewData.obj
 0001:0001e9b0       ?GetAt@CViewData@@QAE_NHAAVCColumnViewData@@@Z 1001f9b0 f   ViewData.obj
 0001:0001e9f0       ?GetAt@CViewData@@QAE_NHHAAVCRowViewData@@@Z 1001f9f0 f   ViewData.obj
 0001:0001eb30       ?GetAt@CViewData@@QBE?AVCColumnViewData@@H@Z 1001fb30 f   ViewData.obj
 0001:0001eb80       ?GetColumnViewDataCount@CViewData@@QBEHXZ 1001fb80 f   ViewData.obj
 0001:0001eb90       ?GetColumnViewDataList@CViewData@@QAEAAV?$CList@VCColumnViewData@@AAV1@@@XZ 1001fb90 f   ViewData.obj
 0001:0001eba0       ?GetCount@CColumnViewData@@QBEHXZ 1001fba0 f   ViewData.obj
 0001:0001ebb0       ?GetCount@CSubGraphViewDataList@@QBEHXZ 1001fbb0 f   ViewData.obj
 0001:0001ebc0       ?GetDrawingGraphRegion@CRowViewData@@QBE?AVCRect@@XZ 1001fbc0 f   ViewData.obj
 0001:0001ebe0       ?GetGraphRegion@CRowViewData@@QBE?AVCRect@@XZ 1001fbe0 f   ViewData.obj
 0001:0001ebf0       ?GetGraphStyle@CSubGraphViewData@@QBE?AVCGraphStyle@@XZ 1001fbf0 f   ViewData.obj
 0001:0001ec00       ?GetGraphType@CSubGraphViewData@@QBE?AW4GRAPHTYPE@CGraphBaseData@@XZ 1001fc00 f   ViewData.obj
 0001:0001ec10       ?GetHeadPosition@CSubGraphViewDataList@@QBEPAU__POSITION@@XZ 1001fc10 f   ViewData.obj
 0001:0001ec20       ?GetHorzScaleName@CRowViewData@@QBE?AV?$CStringT@DV?$StrTraitMFC_DLL@DV?$ChTraitsCRT@D@ATL@@@@@ATL@@XZ 1001fc20 f   ViewData.obj
 0001:0001ec40       ?GetNext@CSubGraphViewDataList@@QAEAAVCSubGraphViewData@@AAPAU__POSITION@@@Z 1001fc40 f   ViewData.obj
 0001:0001ec60       ?GetPacketNames@CSubGraphViewData@@QBE?AV?$CStringT@DV?$StrTraitMFC_DLL@DV?$ChTraitsCRT@D@ATL@@@@@ATL@@XZ 1001fc60 f   ViewData.obj
 0001:0001ec80       ?GetRowViewDataCount@CViewData@@QBEHH@Z 1001fc80 f   ViewData.obj
 0001:0001ed20       ?GetRowViewDataList@CColumnViewData@@QBEABV?$CList@VCRowViewData@@AAV1@@@XZ 1001fd20 f   ViewData.obj
 0001:0001ed30       ?GetSubGraphViewData@CRowViewData@@QAEAAVCSubGraphViewData@@H@Z 1001fd30 f   ViewData.obj
 0001:0001ed60       ?GetSubGraphViewDataCount@CRowViewData@@QBEHXZ 1001fd60 f   ViewData.obj
 0001:0001ed70       ?GetSubGraphViewDataList@CRowViewData@@QAEAAVCSubGraphViewDataList@@XZ 1001fd70 f   ViewData.obj
 0001:0001ed80       ?GetSubGraphViewDataList@CRowViewData@@QBEABVCSubGraphViewDataList@@XZ 1001fd80 f   ViewData.obj
 0001:0001ed90       ?GetSubGraphViewDataList@CSubGraphViewDataList@@QAEAAV?$CList@VCSubGraphViewData@@AAV1@@@XZ 1001fd90 f   ViewData.obj
 0001:0001eda0       ?GetSubGraphViewDataList@CSubGraphViewDataList@@QBEABV?$CList@VCSubGraphViewData@@AAV1@@@XZ 1001fda0 f   ViewData.obj
 0001:0001edb0       ?GetTitle@CSubGraphViewData@@QBE?AV?$CStringT@DV?$StrTraitMFC_DLL@DV?$ChTraitsCRT@D@ATL@@@@@ATL@@XZ 1001fdb0 f   ViewData.obj
 0001:0001edd0       ?NewNode@?$CList@VCColumnViewData@@AAV1@@@IAEPAUCNode@1@PAU21@0@Z 1001fdd0 f i ViewData.obj
 0001:0001ee70       ?NewNode@?$CList@VCRowViewData@@AAV1@@@IAEPAUCNode@1@PAU21@0@Z 1001fe70 f i ViewData.obj
 0001:0001ef50       ?NewNode@?$CList@VCSubGraphViewData@@AAV1@@@IAEPAUCNode@1@PAU21@0@Z 1001ff50 f i ViewData.obj
 0001:0001f020       ?RemoveAll@?$CList@VCColumnViewData@@AAV1@@@QAEXXZ 10020020 f i ViewData.obj
 0001:0001f0c0       ?RemoveAll@?$CList@VCRowViewData@@AAV1@@@QAEXXZ 100200c0 f i ViewData.obj
 0001:0001f160       ?RemoveAll@?$CList@VCSubGraphViewData@@AAV1@@@QAEXXZ 10020160 f i ViewData.obj
 0001:0001f1c0       ?RemoveAll@CColumnViewData@@QAEXXZ 100201c0 f   ViewData.obj
 0001:0001f1d0       ?RemoveAll@CRowViewData@@QAEXXZ 100201d0 f   ViewData.obj
 0001:0001f1e0       ?RemoveAll@CSubGraphViewDataList@@QAEXXZ 100201e0 f   ViewData.obj
 0001:0001f1f0       ?RemoveAll@CViewData@@QAEXXZ 100201f0 f   ViewData.obj
 0001:0001f200       ?Serialize@?$CList@VCRowViewData@@AAV1@@@UAEXAAVCArchive@@@Z 10020200 f i ViewData.obj
 0001:0001f400       ?Serialize@?$CList@VCSubGraphViewData@@AAV1@@@UAEXAAVCArchive@@@Z 10020400 f i ViewData.obj
 0001:0001f5f0       ?SetHorzScaleName@CRowViewData@@QAEXABV?$CStringT@DV?$StrTraitMFC_DLL@DV?$ChTraitsCRT@D@ATL@@@@@ATL@@@Z 100205f0 f   ViewData.obj
 0001:0001f600       ?SetRegion@CRowViewData@@QAEXABVCRect@@0@Z 10020600 f   ViewData.obj
 0001:0001f620       ??0CHogaData@@QAE@XZ       10020620 f   HogaData.obj
 0001:0001f6b0       ??1CHogaData@@UAE@XZ       100206b0 f   HogaData.obj
 0001:0001f6c0       ??_GCHogaData@@UAEPAXI@Z   100206c0 f i HogaData.obj
 0001:0001f6c0       ??_ECHogaData@@UAEPAXI@Z   100206c0 f i HogaData.obj
 0001:0001f710       ??1CRegKey@ATL@@QAE@XZ     10020710 f i Util.obj
 0001:0001f730       ?AddDashToAccount@CUtil@@QAEXPBDAAV?$CStringT@DV?$StrTraitMFC_DLL@DV?$ChTraitsCRT@D@ATL@@@@@ATL@@@Z 10020730 f   Util.obj
 0001:0001f7b0       ?AdjustMask@CUtil@@QAE?AV?$CStringT@DV?$StrTraitMFC_DLL@DV?$ChTraitsCRT@D@ATL@@@@@ATL@@V23@0@Z 100207b0 f   Util.obj
 0001:0001fb70       ?AdjustMask@CUtil@@QAE?AV?$CStringT@DV?$StrTraitMFC_DLL@DV?$ChTraitsCRT@D@ATL@@@@@ATL@@V23@H@Z 10020b70 f   Util.obj
 0001:0001fc20       ?GetComma@CUtil@@QAE?AV?$CStringT@DV?$StrTraitMFC_DLL@DV?$ChTraitsCRT@D@ATL@@@@@ATL@@PBD@Z 10020c20 f   Util.obj
 0001:0001fff0       ?GetHogaTick@CUtil@@QAEHHH@Z 10020ff0 f   Util.obj
 0001:000200b0       ?GetMakeText@CUtil@@QAE?AV?$CStringT@DV?$StrTraitMFC_DLL@DV?$ChTraitsCRT@D@ATL@@@@@ATL@@DH@Z 100210b0 f   Util.obj
 0001:00020130       ?GetNumber@CUtil@@QAE?AV?$CStringT@DV?$StrTraitMFC_DLL@DV?$ChTraitsCRT@D@ATL@@@@@ATL@@PBD@Z 10021130 f   Util.obj
 0001:000201f0       ?GetOnlyNumber@CUtil@@QAE?AV?$CStringT@DV?$StrTraitMFC_DLL@DV?$ChTraitsCRT@D@ATL@@@@@ATL@@PBD@Z 100211f0 f   Util.obj
 0001:00020280       ?GetPre_N_NextHoga@CUtil@@QAEXHJPAJ0@Z 10021280 f   Util.obj
 0001:00020490       ?GetPriceUnit@CUtil@@QAE?AV?$CStringT@DV?$StrTraitMFC_DLL@DV?$ChTraitsCRT@D@ATL@@@@@ATL@@PBD@Z 10021490 f   Util.obj
 0001:00020720       ?GetPriceUnitMan@CUtil@@QAE?AV?$CStringT@DV?$StrTraitMFC_DLL@DV?$ChTraitsCRT@D@ATL@@@@@ATL@@PBD@Z 10021720 f   Util.obj
 0001:00020890       ?GetRegKey@CUtil@@QAEHPBD0AAV?$CStringT@DV?$StrTraitMFC_DLL@DV?$ChTraitsCRT@D@ATL@@@@@ATL@@@Z 10021890 f   Util.obj
 0001:000209d0       ?GetRuntimeClass@CUtil@@UBEPAUCRuntimeClass@@XZ 100219d0 f   Util.obj
 0001:000209e0       ?GetSignSimbol@CUtil@@QAE?AV?$CStringT@DV?$StrTraitMFC_DLL@DV?$ChTraitsCRT@D@ATL@@@@@ATL@@H@Z 100219e0 f   Util.obj
 0001:00020a80       ?GetString@CUtil@@QAEHAAV?$CStringT@DV?$StrTraitMFC_DLL@DV?$ChTraitsCRT@D@ATL@@@@@ATL@@0D@Z 10021a80 f   Util.obj
 0001:00020b40       ?GetThisClass@CUtil@@SGPAUCRuntimeClass@@XZ 10021b40 f   Util.obj
 0001:00020b50       ?GetVolUnit@CUtil@@QAE?AV?$CStringT@DV?$StrTraitMFC_DLL@DV?$ChTraitsCRT@D@ATL@@@@@ATL@@PBD@Z 10021b50 f   Util.obj
 0001:00020e10       ?GetWord@CUtil@@QAEXPAD0D@Z 10021e10 f   Util.obj
 0001:00020e70       ?IsNumber@CUtil@@QAEHI@Z   10021e70 f   Util.obj
 0001:00020e90       ?IsOnlyNumber@CUtil@@QAEHPBD@Z 10021e90 f   Util.obj
 0001:00020ed0       ?IsSign@CUtil@@QAEHPBD@Z   10021ed0 f   Util.obj
 0001:00020ef0       ?Remove@CUtil@@QAEHAAV?$CStringT@DV?$StrTraitMFC_DLL@DV?$ChTraitsCRT@D@ATL@@@@@ATL@@DH@Z 10021ef0 f   Util.obj
 0001:00021080       ?RemoveAll@CUtil@@QAEHAAV?$CStringT@DV?$StrTraitMFC_DLL@DV?$ChTraitsCRT@D@ATL@@@@@ATL@@D@Z 10022080 f   Util.obj
 0001:00021140       ?RemoveChar@CUtil@@QAE?AV?$CStringT@DV?$StrTraitMFC_DLL@DV?$ChTraitsCRT@D@ATL@@@@@ATL@@PBDD@Z 10022140 f   Util.obj
 0001:000211c0       ?RemoveCharAll@CUtil@@QAEXAAV?$CStringT@DV?$StrTraitMFC_DLL@DV?$ChTraitsCRT@D@ATL@@@@@ATL@@D@Z 100221c0 f   Util.obj
 0001:00021240       ?RemoveFront@CUtil@@QAEPADPBDD@Z 10022240 f   Util.obj
 0001:000212a0       ?SetLengthString@CUtil@@QAE?AV?$CStringT@DV?$StrTraitMFC_DLL@DV?$ChTraitsCRT@D@ATL@@@@@ATL@@PBDH@Z 100222a0 f   Util.obj
 0001:00021310       ?TrimRight@CUtil@@QAEXPAD@Z 10022310 f   Util.obj
 0001:00021370       ?ValidNumber@CUtil@@QAEHPBD@Z 10022370 f   Util.obj
 0001:000214e0       ?_GetBaseClass@CUtil@@KGPAUCRuntimeClass@@XZ 100224e0 f   Util.obj
 0001:000214f0       ??0CILButton@@QAE@XZ       100224f0 f   ILButton.obj
 0001:000215f0       ??1CILButton@@UAE@XZ       100225f0 f   ILButton.obj
 0001:00021680       ??_GCButton@@UAEPAXI@Z     10022680 f i ILButton.obj
 0001:00021680       ??_ECButton@@UAEPAXI@Z     10022680 f i ILButton.obj
 0001:000216c0       ??_GCILButton@@UAEPAXI@Z   100226c0 f i ILButton.obj
 0001:000216c0       ??_ECILButton@@UAEPAXI@Z   100226c0 f i ILButton.obj
 0001:00021790       ?DrawItem@CILButton@@UAEXPAUtagDRAWITEMSTRUCT@@@Z 10022790 f   ILButton.obj
 0001:00021990       ?FP_vSetImage@CILButton@@QAEXPAVCImageList@@HHHV?$CStringT@DV?$StrTraitMFC_DLL@DV?$ChTraitsCRT@D@ATL@@@@@ATL@@HHH@Z 10022990 f   ILButton.obj
 0001:00021a40       ?FP_vSetToolTipText@CILButton@@QAEXV?$CStringT@DV?$StrTraitMFC_DLL@DV?$ChTraitsCRT@D@ATL@@@@@ATL@@@Z 10022a40 f   ILButton.obj
 0001:00021af0       ?GetBtnTitle@CILButton@@QAE?AV?$CStringT@DV?$StrTraitMFC_DLL@DV?$ChTraitsCRT@D@ATL@@@@@ATL@@XZ 10022af0 f   ILButton.obj
 0001:00021b10       ?GetCheck@CILButton@@QAEHXZ 10022b10 f   ILButton.obj
 0001:00021b20       ?GetMessageMap@CILButton@@MBEPBUAFX_MSGMAP@@XZ 10022b20 f   ILButton.obj
 0001:00021b30       ?GetThisMessageMap@CILButton@@KGPBUAFX_MSGMAP@@XZ 10022b30 f   ILButton.obj
 0001:00021b40       ?OnCreate@CILButton@@IAEHPAUtagCREATESTRUCTA@@@Z 10022b40 f   ILButton.obj
 0001:00021bf0       ?OnDestroy@CILButton@@IAEXXZ 10022bf0 f   ILButton.obj
 0001:00021c10       ?OnEraseBkgnd@CILButton@@IAEHPAVCDC@@@Z 10022c10 f   ILButton.obj
 0001:00021c20       ?OnLButtonDown@CILButton@@IAEXIVCPoint@@@Z 10022c20 f   ILButton.obj
 0001:00021c40       ?OnLButtonUp@CILButton@@IAEXIVCPoint@@@Z 10022c40 f   ILButton.obj
 0001:00021cc0       ?OnMouseMove@CILButton@@IAEXIVCPoint@@@Z 10022cc0 f   ILButton.obj
 0001:00021d80       ?OnNcLButtonUp@CILButton@@IAEXIVCPoint@@@Z 10022d80 f   ILButton.obj
 0001:00021d90       ?OnTimer@CILButton@@IAEXI@Z 10022d90 f   ILButton.obj
 0001:00021e40       ?PreSubclassWindow@CILButton@@MAEXXZ 10022e40 f   ILButton.obj
 0001:00021e60       ?RelayEvent@CILButton@@QAEXIIJ@Z 10022e60 f   ILButton.obj
 0001:00021ec0       ?SetBtnTitle@CILButton@@QAEXV?$CStringT@DV?$StrTraitMFC_DLL@DV?$ChTraitsCRT@D@ATL@@@@@ATL@@@Z 10022ec0 f   ILButton.obj
 0001:00021f30       ?SetCheck@CILButton@@QAEXH@Z 10022f30 f   ILButton.obj
 0001:00021f50       ??0CPoint@@QAE@XZ          10022f50 f i PowLabel.obj
 0001:00021f60       ??0CPowLabel@@QAE@XZ       10022f60 f   PowLabel.obj
 0001:00022160       ??1CPowLabel@@UAE@XZ       10023160 f   PowLabel.obj
 0001:00022210       ??_ECPowLabel@@UAEPAXI@Z   10023210 f i PowLabel.obj
 0001:00022210       ??_GCPowLabel@@UAEPAXI@Z   10023210 f i PowLabel.obj
 0001:000222f0       ??_GCStatic@@UAEPAXI@Z     100232f0 f i PowLabel.obj
 0001:000222f0       ??_ECStatic@@UAEPAXI@Z     100232f0 f i PowLabel.obj
 0001:00022330       ??_H@YGXPAXIIP6EPAX0@Z@Z   10023330 f i PowLabel.obj
 0001:00022360       ?DrawGradientFill@CPowLabel@@IAEXPAVCDC@@PAVCRect@@KKH@Z 10023360 f   PowLabel.obj
 0001:00022530       ?FlashBackground@CPowLabel@@UAEAAV1@H@Z 10023530 f   PowLabel.obj
 0001:00022590       ?FlashText@CPowLabel@@UAEAAV1@H@Z 10023590 f   PowLabel.obj
 0001:00022600       ?GetMessageMap@CPowLabel@@MBEPBUAFX_MSGMAP@@XZ 10023600 f   PowLabel.obj
 0001:00022610       ?GetText@CPowLabel@@UBEXAAV?$CStringT@DV?$StrTraitMFC_DLL@DV?$ChTraitsCRT@D@ATL@@@@@ATL@@@Z 10023610 f   PowLabel.obj
 0001:00022630       ?GetThisMessageMap@CPowLabel@@KGPBUAFX_MSGMAP@@XZ 10023630 f   PowLabel.obj
 0001:00022640       ?LoadLibHandCursor@CPowLabel@@QAEXXZ 10023640 f   PowLabel.obj
 0001:00022700       ?OnDraw@CPowLabel@@QAEXPAVCDC@@@Z 10023700 f   PowLabel.obj
 0001:00022c60       ?OnEraseBkgnd@CPowLabel@@IAEHPAVCDC@@@Z 10023c60 f   PowLabel.obj
 0001:00022c70       ?OnLButtonUp@CPowLabel@@IAEXIVCPoint@@@Z 10023c70 f   PowLabel.obj
 0001:00022cd0       ?OnMouseMove@CPowLabel@@IAEXIVCPoint@@@Z 10023cd0 f   PowLabel.obj
 0001:00022d00       ?OnPaint@CPowLabel@@IAEXXZ 10023d00 f   PowLabel.obj
 0001:00022d70       ?OnSetCursor@CPowLabel@@IAEHPAVCWnd@@II@Z 10023d70 f   PowLabel.obj
 0001:00022da0       ?OnSysColorChange@CPowLabel@@IAEXXZ 10023da0 f   PowLabel.obj
 0001:00022de0       ?OnTimer@CPowLabel@@IAEXI@Z 10023de0 f   PowLabel.obj
 0001:00022e10       ?PreCreateWindow@CPowLabel@@MAEHAAUtagCREATESTRUCTA@@@Z 10023e10 f   PowLabel.obj
 0001:00022e20       ?PreSubclassWindow@CPowLabel@@MAEXXZ 10023e20 f   PowLabel.obj
 0001:00022e80       ?ReconstructFont@CPowLabel@@IAEXXZ 10023e80 f   PowLabel.obj
 0001:00022eb0       ?RedrawLabel@CPowLabel@@QAEXPAVCDC@@@Z 10023eb0 f   PowLabel.obj
 0001:00022f50       ?SetBkColor@CPowLabel@@UAEAAV1@KKW4BackFillMode@1@@Z 10023f50 f   PowLabel.obj
 0001:00022fe0       ?SetBorder@CPowLabel@@UAEAAV1@H@Z 10023fe0 f   PowLabel.obj
 0001:00023020       ?SetBorderColor@CPowLabel@@UAEAAV1@KH@Z 10024020 f   PowLabel.obj
 0001:00023050       ?SetFont3D@CPowLabel@@UAEAAV1@HW4Type3D@1@@Z 10024050 f   PowLabel.obj
 0001:00023080       ?SetFontBold@CPowLabel@@UAEAAV1@H@Z 10024080 f   PowLabel.obj
 0001:000230e0       ?SetFontItalic@CPowLabel@@UAEAAV1@H@Z 100240e0 f   PowLabel.obj
 0001:00023130       ?SetFontName@CPowLabel@@UAEAAV1@ABV?$CStringT@DV?$StrTraitMFC_DLL@DV?$ChTraitsCRT@D@ATL@@@@@ATL@@E@Z 10024130 f   PowLabel.obj
 0001:000231a0       ?SetFontSize@CPowLabel@@UAEAAV1@H@Z 100241a0 f   PowLabel.obj
 0001:00023280       ?SetFontUnderline@CPowLabel@@UAEAAV1@H@Z 10024280 f   PowLabel.obj
 0001:000232d0       ?SetLink@CPowLabel@@UAEAAV1@HH@Z 100242d0 f   PowLabel.obj
 0001:00023320       ?SetLinkCursor@CPowLabel@@UAEAAV1@PAUHICON__@@@Z 10024320 f   PowLabel.obj
 0001:00023340       ?SetRotationAngle@CPowLabel@@UAEAAV1@IH@Z 10024340 f   PowLabel.obj
 0001:000233a0       ?SetSunken@CPowLabel@@UAEAAV1@H@Z 100243a0 f   PowLabel.obj
 0001:000233e0       ?SetText3DHiliteColor@CPowLabel@@UAEAAV1@K@Z 100243e0 f   PowLabel.obj
 0001:00023400       ?SetText@CPowLabel@@UAEAAV1@ABV?$CStringT@DV?$StrTraitMFC_DLL@DV?$ChTraitsCRT@D@ATL@@@@@ATL@@@Z 10024400 f   PowLabel.obj
 0001:00023430       ?SetTextColor@CPowLabel@@UAEAAV1@K@Z 10024430 f   PowLabel.obj
 0001:00023460       ?SetTransparent@CPowLabel@@UAEAAV1@H@Z 10024460 f   PowLabel.obj
 0001:00023490       ?SignDraw@CPowLabel@@QAEHPAVCWnd@@H@Z 10024490 f   PowLabel.obj
 0001:00023940       ?UpdateSurface@CPowLabel@@IAEXXZ 10024940 f   PowLabel.obj
 0001:00023a40       ?Convert_EWs3@CChartRealConverter@@SAHPBDAAVCRealData_Common@@@Z 10024a40 f   ChartRealConverter.obj
 0001:00023c90       ?Convert_FFC0@CChartRealConverter@@SAHPBDAAVCRealData_Common@@@Z 10024c90 f   ChartRealConverter.obj
 0001:00023ee0       ?Convert_FOJS@CChartRealConverter@@SAHPBDAAVCRealData_Common@@@Z 10024ee0 f   ChartRealConverter.obj
 0001:00024260       ?Convert_GTFJ@CChartRealConverter@@SAHPBDAAVCRealData_Common@@@Z 10025260 f   ChartRealConverter.obj
 0001:000245e0       ?Convert_HWFJ@CChartRealConverter@@SAHPBDAAVCRealData_Common@@@Z 100255e0 f   ChartRealConverter.obj
 0001:00024960       ?Convert_IXIJ@CChartRealConverter@@SAHPBDAAVCRealData_Common@@@Z 10025960 f   ChartRealConverter.obj
 0001:00024bb0       ?Convert_JFC0@CChartRealConverter@@SAHPBDAAVCRealData_Common@@@Z 10025bb0 f   ChartRealConverter.obj
 0001:00024e30       ?Convert_JOC0@CChartRealConverter@@SAHPBDAAVCRealData_Common@@@Z 10025e30 f   ChartRealConverter.obj
 0001:000250b0       ?Convert_KXS3@CChartRealConverter@@SAHPBDAAVCRealData_Common@@@Z 100260b0 f   ChartRealConverter.obj
 0001:00025320       ?Convert_KXYS@CChartRealConverter@@SAHPBDAAVCRealData_Common@@@Z 10026320 f   ChartRealConverter.obj
 0001:000254e0       ?Convert_OOC0@CChartRealConverter@@SAHPBDAAVCRealData_Common@@@Z 100264e0 f   ChartRealConverter.obj
 0001:00025730       ??0IMetaTable@@QAE@XZ      10026730 f   IMetaTable.obj
 0001:000257d0       ??1IMetaTable@@UAE@XZ      100267d0 f   IMetaTable.obj
 0001:00025880       ??1PDLL@@QAE@XZ            10026880 f i IMetaTable.obj
 0001:00025910       ??_E?$CTypedPtrMap@VCMapPtrToPtr@@PAXPAX@@UAEPAXI@Z 10026910 f i IMetaTable.obj
 0001:00025910       ??_G?$CTypedPtrMap@VCMapPtrToPtr@@PAXPAX@@UAEPAXI@Z 10026910 f i IMetaTable.obj
 0001:00025950       ??_GCMapStringToWord@@UAEPAXI@Z 10026950 f i IMetaTable.obj
 0001:00025950       ??_ECMapStringToWord@@UAEPAXI@Z 10026950 f i IMetaTable.obj
 0001:00025990       ??_EIMetaTable@@UAEPAXI@Z  10026990 f i IMetaTable.obj
 0001:00025990       ??_GIMetaTable@@UAEPAXI@Z  10026990 f i IMetaTable.obj
 0001:000259c0       ?CanNotMultipleAddedOnMultipleSameNameIndicator@IMetaTable@@QAEHPBD@Z 100269c0 f   IMetaTable.obj
 0001:00025a20       ?ComServerFromProgID@CProgIDInfo@@SAJPBDAAV?$CStringT@DV?$StrTraitMFC_DLL@DV?$ChTraitsCRT@D@ATL@@@@@ATL@@@Z 10026a20 f i IMetaTable.obj
 0001:00025c30       ?GetDir_DrfnRoot@@YAXAAV?$CStringT@DV?$StrTraitMFC_DLL@DV?$ChTraitsCRT@D@ATL@@@@@ATL@@@Z 10026c30 f i IMetaTable.obj
 0001:00025d60       ?GetIndicatorID@IMetaTable@@QAEHPBD@Z 10026d60 f i IMetaTable.obj
 0001:00025dc0       ?GetIndicatorName@IMetaTable@@QAEPBDH@Z 10026dc0 f   IMetaTable.obj
 0001:00025df0       ?GetLanguageText@IMetaTable@@QAEPBDPAUHWND__@@W4E_CODEPAGE@1@PBDH@Z 10026df0 f   IMetaTable.obj
 0001:00025e60       ?GetLanguageTextDirectly@IMetaTable@@QAEPBDW4E_CODEPAGE@1@W4E_LANGUAGEID@1@PBD@Z 10026e60 f   IMetaTable.obj
 0001:00025ed0       ?GetMetaText@IMetaTable@@QAEPBDPAUHWND__@@W4E_CODEPAGE@1@PBDH@Z 10026ed0 f   IMetaTable.obj
 0001:00025f40       ?GetMetaTextDirectly@IMetaTable@@QAEPBDW4E_CODEPAGE@1@W4E_LANGUAGEID@1@PBD@Z 10026f40 f   IMetaTable.obj
 0001:00025fa0       ?GetMetaTextForScript@IMetaTable@@QAEPBDPAUHWND__@@W4E_CODEPAGE@1@PBDH@Z 10026fa0 f   IMetaTable.obj
 0001:00026010       ?GetMetaTextFromOther@IMetaTable@@QAEPBDPAUHWND__@@W4E_CODEPAGE@1@PBDH@Z 10027010 f   IMetaTable.obj
 0001:00026080       ?GetMultipleLanguageText@IMetaTable@@QAE?AV?$CStringT@DV?$StrTraitMFC_DLL@DV?$ChTraitsCRT@D@ATL@@@@@ATL@@PAUHWND__@@V23@1HH@Z 10027080 f   IMetaTable.obj
 0001:000262f0       ?GetMultipleMetaText@IMetaTable@@QAE?AV?$CStringT@DV?$StrTraitMFC_DLL@DV?$ChTraitsCRT@D@ATL@@@@@ATL@@PAUHWND__@@V23@1HH@Z 100272f0 f   IMetaTable.obj
 0001:00026560       ?GetMultipleMetaTextForScript@IMetaTable@@QAE?AV?$CStringT@DV?$StrTraitMFC_DLL@DV?$ChTraitsCRT@D@ATL@@@@@ATL@@PAUHWND__@@V23@1HH@Z 10027560 f   IMetaTable.obj
 0001:000267d0       ?GetMultipleMetaTextFromOther@IMetaTable@@QAE?AV?$CStringT@DV?$StrTraitMFC_DLL@DV?$ChTraitsCRT@D@ATL@@@@@ATL@@PAUHWND__@@V23@1HH@Z 100277d0 f   IMetaTable.obj
 0001:00026a40       ?Initialize@PDLL@@UAE_NF@Z 10027a40 f i IMetaTable.obj
 0001:00026a70       ?IsChartType@IMetaTable@@QAEHPBD@Z 10027a70 f   IMetaTable.obj
 0001:00026c80       ?IsConditionTitle@IMetaTable@@QAE_NABV?$CStringT@DV?$StrTraitMFC_DLL@DV?$ChTraitsCRT@D@ATL@@@@@ATL@@@Z 10027c80 f   IMetaTable.obj
 0001:00026cf0       ?IsDataTitle@IMetaTable@@QAE_NABV?$CStringT@DV?$StrTraitMFC_DLL@DV?$ChTraitsCRT@D@ATL@@@@@ATL@@@Z 10027cf0 f   IMetaTable.obj
 0001:00026da0       ?IsDrawGroup_PAndF@IMetaTable@@QAE_NABV?$CStringT@DV?$StrTraitMFC_DLL@DV?$ChTraitsCRT@D@ATL@@@@@ATL@@@Z 10027da0 f   IMetaTable.obj
 0001:00026dd0       ?IsDrawGroup_VolumeType@IMetaTable@@QAE_NABV?$CStringT@DV?$StrTraitMFC_DLL@DV?$ChTraitsCRT@D@ATL@@@@@ATL@@@Z 10027dd0 f   IMetaTable.obj
 0001:00026e00       ?IsIndicatorInThisMode@IMetaTable@@QAEHPBDW4CHART_MODE@CChartInfo@@@Z 10027e00 f   IMetaTable.obj
 0001:00026f20       ?IsNoXScale_SpecialGroup@IMetaTable@@QAE_NABV?$CStringT@DV?$StrTraitMFC_DLL@DV?$ChTraitsCRT@D@ATL@@@@@ATL@@@Z 10027f20 f   IMetaTable.obj
 0001:00026f40       ?IsNoneZoomChart@IMetaTable@@QAE_NPBD@Z 10027f40 f   IMetaTable.obj
 0001:00026f70       ?IsPriceChartType@IMetaTable@@QAEHPBD@Z 10027f70 f   IMetaTable.obj
 0001:00027130       ?IsSTIndexIndicator@IMetaTable@@QAEHH@Z 10028130 f   IMetaTable.obj
 0001:000271d0       ?IsScaleGroup_InverseLine@IMetaTable@@QAE_NABV?$CStringT@DV?$StrTraitMFC_DLL@DV?$ChTraitsCRT@D@ATL@@@@@ATL@@@Z 100281d0 f   IMetaTable.obj
 0001:000271f0       ?IsScaleGroup_MinusPercent@IMetaTable@@QAE_NABV?$CStringT@DV?$StrTraitMFC_DLL@DV?$ChTraitsCRT@D@ATL@@@@@ATL@@@Z 100281f0 f   IMetaTable.obj
 0001:00027220       ?IsScaleGroup_PlusPercent@IMetaTable@@QAE_NABV?$CStringT@DV?$StrTraitMFC_DLL@DV?$ChTraitsCRT@D@ATL@@@@@ATL@@@Z 10028220 f   IMetaTable.obj
 0001:000272b0       ?IsScaleGroup_Price@IMetaTable@@QAE_NABV?$CStringT@DV?$StrTraitMFC_DLL@DV?$ChTraitsCRT@D@ATL@@@@@ATL@@@Z 100282b0 f   IMetaTable.obj
 0001:00027360       ?IsScaleGroup_PriceNoVertScale@IMetaTable@@QAE_NABV?$CStringT@DV?$StrTraitMFC_DLL@DV?$ChTraitsCRT@D@ATL@@@@@ATL@@@Z 10028360 f   IMetaTable.obj
 0001:00027390       ?IsScaleGroup_Volume@IMetaTable@@QAE_NABV?$CStringT@DV?$StrTraitMFC_DLL@DV?$ChTraitsCRT@D@ATL@@@@@ATL@@@Z 10028390 f   IMetaTable.obj
 0001:000273c0       ?IsSpecialGroupGraph@IMetaTable@@QAE_NPBD@Z 100283c0 f   IMetaTable.obj
 0001:00027400       ?IsSpecialTime@IMetaTable@@QAEHH@Z 10028400 f   IMetaTable.obj
 0001:000275d0       ?IsTitleAndCondition@IMetaTable@@QAE_NABV?$CStringT@DV?$StrTraitMFC_DLL@DV?$ChTraitsCRT@D@ATL@@@@@ATL@@@Z 100285d0 f   IMetaTable.obj
 0001:00027600       ?IsTitleIncludeCondition@IMetaTable@@QAE_NABV?$CStringT@DV?$StrTraitMFC_DLL@DV?$ChTraitsCRT@D@ATL@@@@@ATL@@@Z 10028600 f   IMetaTable.obj
 0001:00027630       ?IsTitleOnlyCondition@IMetaTable@@QAE_NABV?$CStringT@DV?$StrTraitMFC_DLL@DV?$ChTraitsCRT@D@ATL@@@@@ATL@@@Z 10028630 f   IMetaTable.obj
 0001:00027660       ?IsTitleOrCondition@IMetaTable@@QAE_NABV?$CStringT@DV?$StrTraitMFC_DLL@DV?$ChTraitsCRT@D@ATL@@@@@ATL@@@Z 10028660 f   IMetaTable.obj
 0001:00027670       ?IsViewVertMinMax_EndPacket@IMetaTable@@QAE_NABV?$CStringT@DV?$StrTraitMFC_DLL@DV?$ChTraitsCRT@D@ATL@@@@@ATL@@@Z 10028670 f   IMetaTable.obj
 0001:000276a0       ?IsVolumeForSale@IMetaTable@@QAEHABV?$CStringT@DV?$StrTraitMFC_DLL@DV?$ChTraitsCRT@D@ATL@@@@@ATL@@@Z 100286a0 f   IMetaTable.obj
 0001:000276d0       ?LoadMetaTable@IMetaTable@@QAEXXZ 100286d0 f   IMetaTable.obj
 0001:000279d0       ?SetDllName@PDLL@@QAE_NPBD@Z 100289d0 f i IMetaTable.obj
 0001:00027a40       ?StringCLSIDFromProgID@CProgIDInfo@@SAJPBDAAV?$CStringT@DV?$StrTraitMFC_DLL@DV?$ChTraitsCRT@D@ATL@@@@@ATL@@@Z 10028a40 f i IMetaTable.obj
 0001:00027bb0       ?Uninitialize@PDLL@@UAEXXZ 10028bb0 f i IMetaTable.obj
 0001:00027c00       ??0CChartToolBtn@@QAE@XZ   10028c00 f   ChartToolBtn.obj
 0001:00027df0       ??1CChartToolBtn@@UAE@XZ   10028df0 f   ChartToolBtn.obj
 0001:00027e60       ??_ECChartToolBtn@@UAEPAXI@Z 10028e60 f i ChartToolBtn.obj
 0001:00027e60       ??_GCChartToolBtn@@UAEPAXI@Z 10028e60 f i ChartToolBtn.obj
 0001:00027f20       ?CalcRect@CChartToolBtn@@QAEXVCPoint@@V?$CStringT@DV?$StrTraitMFC_DLL@DV?$ChTraitsCRT@D@ATL@@@@@ATL@@AAVCRect@@@Z 10028f20 f   ChartToolBtn.obj
 0001:00027fc0       ?CalcText@CChartToolBtn@@QAEXPAVCPoint@@PAD@Z 10028fc0 f   ChartToolBtn.obj
 0001:00028030       ?CreateBtn@CChartToolBtn@@QAE?AVCPoint@@PAVCWnd@@PAVCFont@@V2@H@Z 10029030 f   ChartToolBtn.obj
 0001:00028170       ?CreateBtn@CChartToolBtn@@QAEHPAVCWnd@@PAVCFont@@H@Z 10029170 f   ChartToolBtn.obj
 0001:00028210       ?DeleteBtn@CChartToolBtn@@QAEXXZ 10029210 f   ChartToolBtn.obj
 0001:00028230       ?DrawBMP@CChartToolBtn@@QAEXPAVCDC@@@Z 10029230 f   ChartToolBtn.obj
 0001:000283a0       ?DrawBackBmp@CChartToolBtn@@QAEXPAVCDC@@@Z 100293a0 f   ChartToolBtn.obj
 0001:00028520       ?DrawBackImageList@CChartToolBtn@@QAEXPAVCDC@@@Z 10029520 f   ChartToolBtn.obj
 0001:00028620       ?DrawGradation@CChartToolBtn@@QAEXPAVCDC@@@Z 10029620 f   ChartToolBtn.obj
 0001:00028630       ?DrawRound@CChartToolBtn@@QAEXPAVCDC@@@Z 10029630 f   ChartToolBtn.obj
 0001:00028a50       ?GetHeight@CChartToolBtn@@QAEHXZ 10029a50 f   ChartToolBtn.obj
 0001:00028a60       ?GetMessageMap@CChartToolBtn@@MBEPBUAFX_MSGMAP@@XZ 10029a60 f   ChartToolBtn.obj
 0001:00028a70       ?GetThisMessageMap@CChartToolBtn@@KGPBUAFX_MSGMAP@@XZ 10029a70 f   ChartToolBtn.obj
 0001:00028a80       ?OnLButtonDown@CChartToolBtn@@IAEXIVCPoint@@@Z 10029a80 f   ChartToolBtn.obj
 0001:00028af0       ?OnLButtonUp@CChartToolBtn@@IAEXIVCPoint@@@Z 10029af0 f   ChartToolBtn.obj
 0001:00028c60       ?OnMouseMove@CChartToolBtn@@IAEXIVCPoint@@@Z 10029c60 f   ChartToolBtn.obj
 0001:00028c70       ?OnPaint@CChartToolBtn@@IAEXXZ 10029c70 f   ChartToolBtn.obj
 0001:00028db0       ?ReleaseBtn@CChartToolBtn@@QAEXXZ 10029db0 f   ChartToolBtn.obj
 0001:00028df0       ?Replace@CChartToolBtn@@QAE?AVCPoint@@V2@@Z 10029df0 f   ChartToolBtn.obj
 0001:00028e90       ?ReplaceSize@CChartToolBtn@@QAE?AVCPoint@@V2@H@Z 10029e90 f   ChartToolBtn.obj
 0001:00028f30       ?SetToggle@CChartToolBtn@@QAEXHH@Z 10029f30 f   ChartToolBtn.obj
 0001:00028f50       ?SetValueBtn@CChartToolBtn@@QAEXHHHPAVCSize@@0PAVCBitmap@@11@Z 10029f50 f   ChartToolBtn.obj
 0001:00029010       ?SetValueBtn@CChartToolBtn@@QAEXW4TOOLOPTION@CToolOptionInfo@@HPAVCBitmap@@11@Z 1002a010 f   ChartToolBtn.obj
 0001:00029050       ?SetValueBtn@CChartToolBtn@@QAEXW4TOOLOPTION@CToolOptionInfo@@HPAVCImageList@@HHH@Z 1002a050 f   ChartToolBtn.obj
 0001:000290a0       ??0CFileBitmap@@QAE@XZ     1002a0a0 f   FileBitmap.obj
 0001:000290d0       ??1CFileBitmap@@UAE@XZ     1002a0d0 f   FileBitmap.obj
 0001:00029110       ??_ECFileBitmap@@UAEPAXI@Z 1002a110 f i FileBitmap.obj
 0001:00029110       ??_GCFileBitmap@@UAEPAXI@Z 1002a110 f i FileBitmap.obj
 0001:00029180       ?ClearAll@CFileBitmap@@QAEXXZ 1002a180 f   FileBitmap.obj
 0001:000291a0       ?LoadBMP@CFileBitmap@@QAEHPBD@Z 1002a1a0 f   FileBitmap.obj
 0001:00029290       ?LoadBMP@CFileBitmap@@QAEHPBDPAPAX@Z 1002a290 f   FileBitmap.obj
 0001:00029380       ?LoadBMPImage@CFileBitmap@@QAEHPBD@Z 1002a380 f   FileBitmap.obj
 0001:000294e0       ?LoadBMPImage@CFileBitmap@@QAEHPBDAAVCBitmap@@@Z 1002a4e0 f   FileBitmap.obj
 0001:00029640       ??$SerializeElements@PAVCChartItemData@@@@YGXAAVCArchive@@PAPAVCChartItemData@@H@Z 1002a640 f i ChartItem.obj
 0001:000296f0       ??0?$CArray@PAVCChartItemData@@PAV1@@@QAE@XZ 1002a6f0 f i ChartItem.obj
 0001:00029720       ??0CChartItem@@QAE@XZ      1002a720 f   ChartItem.obj
 0001:00029d20       ??0_ST_CHARTITEM_REALDATA@@QAE@XZ 1002ad20 f i ChartItem.obj
 0001:00029d70       ??1?$CArray@PAVCChartItemData@@PAV1@@@UAE@XZ 1002ad70 f i ChartItem.obj
 0001:00029d90       ??1CChartItem@@UAE@XZ      1002ad90 f   ChartItem.obj
 0001:0002a100       ??1CDRChartOcx@@UAE@XZ     1002b100 f i ChartItem.obj
 0001:0002a110       ??1CXIBaseDesk@CChartItem@@QAE@XZ 1002b110 f i ChartItem.obj
 0001:0002a170       ??_E?$CArray@PAVCChartItemData@@PAV1@@@UAEPAXI@Z 1002b170 f i ChartItem.obj
 0001:0002a170       ??_G?$CArray@PAVCChartItemData@@PAV1@@@UAEPAXI@Z 1002b170 f i ChartItem.obj
 0001:0002a1c0       ??_ECChartItem@@UAEPAXI@Z  1002b1c0 f i ChartItem.obj
 0001:0002a1c0       ??_GCChartItem@@UAEPAXI@Z  1002b1c0 f i ChartItem.obj
 0001:0002a200       ??_G_ST_CHARTITEM_REALDATA@@QAEPAXI@Z 1002b200 f i ChartItem.obj
 0001:0002a270       ?AddChartBlock@CChartItem@@QAEHPBD@Z 1002b270 f   ChartItem.obj
 0001:0002a310       ?AddChartItem@CChartItem@@QAEXPAVCChartItemData@@PBD1D1JJH@Z 1002b310 f   ChartItem.obj
 0001:0002a540       ?AddInEvent_FromChart@CChartItem@@QAEHPBD@Z 1002b540 f   ChartItem.obj
 0001:0002a550       ?Add_OverLappedCnt@CChartItem@@QAEXXZ 1002b550 f   ChartItem.obj
 0001:0002a640       ?AtlThrowImpl@ATL@@YGXJ@Z  1002b640 f i ChartItem.obj
 0001:0002a660       ?BuildChart@CChartItem@@AAEHXZ 1002b660 f   ChartItem.obj
 0001:0002b0b0       ?CallCommand@CBaseDesk@@UAEXPBD@Z 1002c0b0 f i ChartItem.obj
 0001:0002b0c0       ?CallCommand@CXIBaseDesk@CChartItem@@UAEXPBD@Z 1002c0c0 f   ChartItem.obj
 0001:0002b0d0       ?ClearData@CChartItem@@QAEHXZ 1002c0d0 f   ChartItem.obj
 0001:0002b2d0       ?ClearDataExceptPrimaryData@CChartItem@@QAEHXZ 1002c2d0 f   ChartItem.obj
 0001:0002b3c0       ?Create@CChartItem@@QAEHPAVCWnd@@PAUtagRECT@@HJJPBDH@Z 1002c3c0 f   ChartItem.obj
 0001:0002b5b0       ?DestoryItemData@CChartItem@@AAEHXZ 1002c5b0 f   ChartItem.obj
 0001:0002b6b0       ?DestroyWindow@CChartItem@@UAEHXZ 1002c6b0 f   ChartItem.obj
 0001:0002b990       ?DrawTitle@CChartItem@@QAEXVCRect@@PAVCDC@@PAVCFont@@2K@Z 1002c990 f   ChartItem.obj
 0001:0002bd60       ?EnableRequestMoreButton@CChartItem@@QAEXH@Z 1002cd60 f   ChartItem.obj
 0001:0002bd70       ?FP_nGetCtrlPos@CBaseDesk2@@UAEJXZ 1002cd70 f i ChartItem.obj
 0001:0002bd80       ?FP_nGetCtrlPos@CXIBaseDesk@CChartItem@@UAEJXZ 1002cd80 f   ChartItem.obj
 0001:0002bd90       ?FP_nGetDataInt@CXIBaseDesk@CChartItem@@UAEHH@Z 1002cd90 f   ChartItem.obj
 0001:0002bda0       ?FP_sGetMyVBName@CXIBaseDesk@CChartItem@@UAEPBDPAUHWND__@@@Z 1002cda0 f   ChartItem.obj
 0001:0002bdb0       ?FP_vAdviseDebug@CXIBaseDesk@CChartItem@@UAEHPBDI@Z 1002cdb0 f   ChartItem.obj
 0001:0002bdc0       ?FP_vResizeCtrl@CBaseDesk2@@UAEXXZ 1002cdc0 f i ChartItem.obj
 0001:0002bdd0       ?FP_vResizeCtrl@CXIBaseDesk@CChartItem@@UAEXXZ 1002cdd0 f   ChartItem.obj
 0001:0002bde0       ?FP_vSendDebug@CXIBaseDesk@CChartItem@@UAEXPBD00@Z 1002cde0 f   ChartItem.obj
 0001:0002bdf0       ?FP_vUnadviseDebug@CXIBaseDesk@CChartItem@@UAEXPBDI@Z 1002cdf0 f   ChartItem.obj
 0001:0002be00       ?FindChartItemDataForQuery@CChartItem@@QAEPAVCChartItemData@@XZ 1002ce00 f   ChartItem.obj
 0001:0002be60       ?FindSelectChartByItemCode@CChartItem@@QAEHPBDH@Z 1002ce60 f   ChartItem.obj
 0001:0002bfa0       ?GetAddGraphMode@CChartMng@@QAEHXZ 1002cfa0 f i ChartItem.obj
 0001:0002bfd0       ?GetBasePath@CBaseDesk@@UAEPBDXZ 1002cfd0 f i ChartItem.obj
 0001:0002bfe0       ?GetBasePath@CXIBaseDesk@CChartItem@@UAEPBDXZ 1002cfe0 f   ChartItem.obj
 0001:0002c0c0       ?GetChartItemDataNew@CChartItem@@AAEPAVCChartItemData@@V?$CStringT@DV?$StrTraitMFC_DLL@DV?$ChTraitsCRT@D@ATL@@@@@ATL@@PBDHH@Z 1002d0c0 f   ChartItem.obj
 0001:0002c480       ?GetCntForRequest@CChartItem@@QAEJXZ 1002d480 f   ChartItem.obj
 0001:0002c4a0       ?GetCtrlHwnd@CBaseDesk@@UAEPAUHWND__@@PBD@Z 1002d4a0 f i ChartItem.obj
 0001:0002c4b0       ?GetCtrlHwnd@CXIBaseDesk@CChartItem@@UAEPAUHWND__@@PBD@Z 1002d4b0 f   ChartItem.obj
 0001:0002c4c0       ?GetCtrlUnknown@CBaseDesk@@UAEPAUIUnknown@@PBD@Z 1002d4c0 f i ChartItem.obj
 0001:0002c4d0       ?GetCtrlUnknown@CXIBaseDesk@CChartItem@@UAEPAUIUnknown@@PBD@Z 1002d4d0 f   ChartItem.obj
 0001:0002c4e0       ?GetDataCode@CChartItem@@QAE?AV?$CStringT@DV?$StrTraitMFC_DLL@DV?$ChTraitsCRT@D@ATL@@@@@ATL@@H@Z 1002d4e0 f   ChartItem.obj
 0001:0002c530       ?GetDataTRCode@CChartItem@@QAE?AV?$CStringT@DV?$StrTraitMFC_DLL@DV?$ChTraitsCRT@D@ATL@@@@@ATL@@H@Z 1002d530 f   ChartItem.obj
 0001:0002c580       ?GetDayNumber@CChartItem@@QAE?AV?$CStringT@DV?$StrTraitMFC_DLL@DV?$ChTraitsCRT@D@ATL@@@@@ATL@@XZ 1002d580 f   ChartItem.obj
 0001:0002c5a0       ?GetDeskHwnd@CBaseDesk@@UAEPAUHWND__@@XZ 1002d5a0 f i ChartItem.obj
 0001:0002c5b0       ?GetDeskHwnd@CXIBaseDesk@CChartItem@@UAEPAUHWND__@@XZ 1002d5b0 f   ChartItem.obj
 0001:0002c5c0       ?GetDeskInfo@CBaseDesk2@@UAEJPBD@Z 1002d5c0 f i ChartItem.obj
 0001:0002c5d0       ?GetDeskInfo@CXIBaseDesk@CChartItem@@UAEJPBD@Z 1002d5d0 f   ChartItem.obj
 0001:0002c5e0       ?GetEndDate@CChartItem@@QAE?AV?$CStringT@DV?$StrTraitMFC_DLL@DV?$ChTraitsCRT@D@ATL@@@@@ATL@@XZ 1002d5e0 f   ChartItem.obj
 0001:0002c600       ?GetEndDateRequested@CChartItem@@QAE?AV?$CStringT@DV?$StrTraitMFC_DLL@DV?$ChTraitsCRT@D@ATL@@@@@ATL@@XZ 1002d600 f   ChartItem.obj
 0001:0002c620       ?GetFrameInfo@CBaseDesk2@@UAEJPBD@Z 1002d620 f i ChartItem.obj
 0001:0002c630       ?GetFrameInfo@CXIBaseDesk@CChartItem@@UAEJPBD@Z 1002d630 f   ChartItem.obj
 0001:0002c640       ?GetHourNumber@CChartItem@@QAE?AV?$CStringT@DV?$StrTraitMFC_DLL@DV?$ChTraitsCRT@D@ATL@@@@@ATL@@XZ 1002d640 f   ChartItem.obj
 0001:0002c660       ?GetLSharedData@CBaseDesk@@UAEPAXXZ 1002d660 f i ChartItem.obj
 0001:0002c670       ?GetLSharedData@CXIBaseDesk@CChartItem@@UAEPAXXZ 1002d670 f   ChartItem.obj
 0001:0002c680       ?GetLastHistoryCode@CChartItem@@QAE?AV?$CStringT@DV?$StrTraitMFC_DLL@DV?$ChTraitsCRT@D@ATL@@@@@ATL@@H@Z 1002d680 f   ChartItem.obj
 0001:0002c820       ?GetLoadedQueryData@CChartItem@@QAE?AV?$CStringT@DV?$StrTraitMFC_DLL@DV?$ChTraitsCRT@D@ATL@@@@@ATL@@XZ 1002d820 f   ChartItem.obj
 0001:0002ca30       ?GetMainInfo@CBaseDesk2@@UAEJPBD@Z 1002da30 f i ChartItem.obj
 0001:0002ca40       ?GetMainInfo@CXIBaseDesk@CChartItem@@UAEJPBD@Z 1002da40 f   ChartItem.obj
 0001:0002ca50       ?GetMarketType@CChartItem@@QAEHV?$CStringT@DV?$StrTraitMFC_DLL@DV?$ChTraitsCRT@D@ATL@@@@@ATL@@@Z 1002da50 f   ChartItem.obj
 0001:0002cad0       ?GetMinNumber@CChartItem@@QAE?AV?$CStringT@DV?$StrTraitMFC_DLL@DV?$ChTraitsCRT@D@ATL@@@@@ATL@@XZ 1002dad0 f   ChartItem.obj
 0001:0002caf0       ?GetNextKey@CChartItem@@QAEPBDH@Z 1002daf0 f   ChartItem.obj
 0001:0002cb30       ?GetPosChartItemData@CChartItem@@AAEJV?$CStringT@DV?$StrTraitMFC_DLL@DV?$ChTraitsCRT@D@ATL@@@@@ATL@@PBD@Z 1002db30 f   ChartItem.obj
 0001:0002cc60       ?GetPrimaryChartItemData@CChartItem@@QAEPAVCChartItemData@@XZ 1002dc60 f   ChartItem.obj
 0001:0002cc80       ?GetQueryData@CChartItem@@QAE?AV?$CStringT@DV?$StrTraitMFC_DLL@DV?$ChTraitsCRT@D@ATL@@@@@ATL@@H@Z 1002dc80 f   ChartItem.obj
 0001:0002d010       ?GetQueryDataForGuideLine@CChartItem@@QAE?AV?$CStringT@DV?$StrTraitMFC_DLL@DV?$ChTraitsCRT@D@ATL@@@@@ATL@@PBVCUIntArray@@@Z 1002e010 f   ChartItem.obj
 0001:0002d270       ?GetQueryOpt@CChartItem@@QAE?AV?$CStringT@DV?$StrTraitMFC_DLL@DV?$ChTraitsCRT@D@ATL@@@@@ATL@@XZ 1002e270 f   ChartItem.obj
 0001:0002d310       ?GetRQCount@CChartItem@@QAEHXZ 1002e310 f   ChartItem.obj
 0001:0002d320       ?GetSelChart@CChartItem@@QAEHPBDAAPAU_ST_SELCHART@@@Z 1002e320 f   ChartItem.obj
 0001:0002d3a0       ?GetSharedInterface@CBaseDesk@@UAEPAXXZ 1002e3a0 f i ChartItem.obj
 0001:0002d3b0       ?GetSharedInterface@CXIBaseDesk@CChartItem@@UAEPAXXZ 1002e3b0 f   ChartItem.obj
 0001:0002d3c0       ?GetSignalImageIndex_FromSignalDegree@CChartItem@@QAEHHH@Z 1002e3c0 f   ChartItem.obj
 0001:0002d4e0       ?GetTempOnePageDataCount@CChartItem@@QAEJXZ 1002e4e0 f   ChartItem.obj
 0001:0002d500       ?GetTickMinDayNumber@CChartItem@@QAE?AV?$CStringT@DV?$StrTraitMFC_DLL@DV?$ChTraitsCRT@D@ATL@@@@@ATL@@H@Z 1002e500 f   ChartItem.obj
 0001:0002d5d0       ?GetTickNumber@CChartItem@@QAE?AV?$CStringT@DV?$StrTraitMFC_DLL@DV?$ChTraitsCRT@D@ATL@@@@@ATL@@XZ 1002e5d0 f   ChartItem.obj
 0001:0002d5f0       ?GetTrCodeForQuery@CChartItem@@QAE?AV?$CStringT@DV?$StrTraitMFC_DLL@DV?$ChTraitsCRT@D@ATL@@@@@ATL@@XZ 1002e5f0 f   ChartItem.obj
 0001:0002d630       ?GetType@CChartItem@@QAEDXZ 1002e630 f   ChartItem.obj
 0001:0002d650       ?GetTypeRequested@CChartItem@@QAEDXZ 1002e650 f   ChartItem.obj
 0001:0002d660       ?GetUnknown@CBaseDesk@@UAEPAUIDispatch@@XZ 1002e660 f i ChartItem.obj
 0001:0002d670       ?GetUnknown@CXIBaseDesk@CChartItem@@UAEPAUIDispatch@@XZ 1002e670 f   ChartItem.obj
 0001:0002d680       ?GetUseRevisedValue@CChartItem@@QAEHXZ 1002e680 f   ChartItem.obj
 0001:0002d690       ?GetUserColor@CBaseDesk2@@UAEKFPBDF@Z 1002e690 f i ChartItem.obj
 0001:0002d6a0       ?GetUserColor@CXIBaseDesk@CChartItem@@UAEKFPBDF@Z 1002e6a0 f   ChartItem.obj
 0001:0002d6b0       ?GetUserInfo@CBaseDesk2@@UAEJPBD@Z 1002e6b0 f i ChartItem.obj
 0001:0002d6c0       ?GetUserInfo@CXIBaseDesk@CChartItem@@UAEJPBD@Z 1002e6c0 f   ChartItem.obj
 0001:0002d6d0       ?HasChartItemData@CChartItem@@QAEHPBDV?$CStringT@DV?$StrTraitMFC_DLL@DV?$ChTraitsCRT@D@ATL@@@@@ATL@@HH@Z 1002e6d0 f   ChartItem.obj
 0001:0002d790       ?HasGraph@CChartItem@@QAEHPBD@Z 1002e790 f   ChartItem.obj
 0001:0002d850       ?HideInnerToolBar@CChartItem@@QAEXH@Z 1002e850 f   ChartItem.obj
 0001:0002d870       ?HideScale@CChartItem@@QAEXH@Z 1002e870 f   ChartItem.obj
 0001:0002d8c0       ?InitChartItem_FromExtToolBar@CChartItem@@QAEXXZ 1002e8c0 f   ChartItem.obj
 0001:0002d8d0       ?InitShareManager@CChartItem@@QAEXXZ 1002e8d0 f   ChartItem.obj
 0001:0002d8e0       ?Init_ChartCfgInfo@CChartItem@@QAEXXZ 1002e8e0 f   ChartItem.obj
 0001:0002d910       ?Init_OverLapped@CChartItem@@QAEXXZ 1002e910 f   ChartItem.obj
 0001:0002d930       ?InvalidateType@CChartItem@@QAEXXZ 1002e930 f   ChartItem.obj
 0001:0002da40       ?InvokeAddInPattern@CChartItem@@QAEHPBDFJ@Z 1002ea40 f   ChartItem.obj
 0001:0002db30       ?InvokeAddInPeriod@CChartItem@@QAEHPBDFJ@Z 1002eb30 f   ChartItem.obj
 0001:0002db70       ?InvokeAddInSTIndex@CChartItem@@QAEHPBDFJ@Z 1002eb70 f   ChartItem.obj
 0001:0002dbd0       ?InvokeEvent2@CBaseDesk@@UAEHPBD00@Z 1002ebd0 f i ChartItem.obj
 0001:0002dbe0       ?InvokeEvent2@CXIBaseDesk@CChartItem@@UAEHPBD00@Z 1002ebe0 f   ChartItem.obj
 0001:0002dbf0       ?InvokeEvent@CBaseDesk@@UAEHPAUHWND__@@PBD1@Z 1002ebf0 f i ChartItem.obj
 0001:0002dc00       ?InvokeEvent@CXIBaseDesk@CChartItem@@UAEHPAUHWND__@@PBD1@Z 1002ec00 f   ChartItem.obj
 0001:0002dc70       ?IsAddMode@CChartItem@@QAEHXZ 1002ec70 f   ChartItem.obj
 0001:0002dcc0       ?IsAvailibleCode@CChartItem@@QAEHPBD@Z 1002ecc0 f   ChartItem.obj
 0001:0002dcd0       ?IsPrimaryChartItemData@CChartItem@@QAEHPAVCChartItemData@@@Z 1002ecd0 f   ChartItem.obj
 0001:0002dd00       ?LoadChartInfo@CChartItem@@QAEHPBDHH@Z 1002ed00 f   ChartItem.obj
 0001:0002ee90       ?LoadChartSetting@CChartItem@@QAEHPBD@Z 1002fe90 f   ChartItem.obj
 0001:0002f020       ?LoadRQInfo@CChartItem@@QAEXPBD0@Z 10030020 f   ChartItem.obj
 0001:0002f410       ?LoadTickMinDayInfo@CChartItem@@QAEXV?$CStringT@DV?$StrTraitMFC_DLL@DV?$ChTraitsCRT@D@ATL@@@@@ATL@@@Z 10030410 f   ChartItem.obj
 0001:0002f870       ?OnDeleteChartItem@CChartItem@@QAEXPBDAAPAU_ST_SELCHART@@@Z 10030870 f   ChartItem.obj
 0001:0002f950       ?OnSelectChartItem@CChartItem@@QAEXPAU_ST_SELCHART@@H@Z 10030950 f   ChartItem.obj
 0001:0002fa40       ?OpenSignalMapScr@CChartItem@@QAEXXZ 10030a40 f   ChartItem.obj
 0001:0002fa50       ?PrintChart@CChartItem@@QAEXXZ 10030a50 f   ChartItem.obj
 0001:0002fa60       ?PtInRectJongmokTitle@CChartItem@@QBEHUtagPOINT@@@Z 10030a60 f   ChartItem.obj
 0001:0002fa80       ?ReceiveInitalChartData@CChartItem@@QAEJPAXJ@Z 10030a80 f   ChartItem.obj
 0001:00030870       ?ReceiveLoadingChartData@CChartItem@@QAEJPAXJ@Z 10031870 f   ChartItem.obj
 0001:00030d70       ?RemoveAt@?$CArray@PAVCChartItemData@@PAV1@@@QAEXHH@Z 10031d70 f i ChartItem.obj
 0001:00030e10       ?RemoveChartItemData@CChartItem@@QAEHPBDV?$CStringT@DV?$StrTraitMFC_DLL@DV?$ChTraitsCRT@D@ATL@@@@@ATL@@@Z 10031e10 f   ChartItem.obj
 0001:00030f90       ?RemoveGraphTitle@CChartItem@@QAEHHHV?$CStringT@DV?$StrTraitMFC_DLL@DV?$ChTraitsCRT@D@ATL@@@@@ATL@@0H@Z 10031f90 f   ChartItem.obj
 0001:00031000       ?ResetChart@CChartItem@@QAEHXZ 10032000 f   ChartItem.obj
 0001:00031100       ?ResetChartCfgWith@CChartItem@@QAEXF@Z 10032100 f   ChartItem.obj
 0001:00031140       ?ResetData@CChartItem@@AAEXXZ 10032140 f   ChartItem.obj
 0001:000314a0       ?ResetOCX@CChartItem@@QAEXH@Z 100324a0 f   ChartItem.obj
 0001:00031590       ?ResetRQ@CChartItem@@QAEXXZ 10032590 f   ChartItem.obj
 0001:000315b0       ?SaveChartInfo@CChartItem@@QAEHPBDH@Z 100325b0 f   ChartItem.obj
 0001:00031c80       ?SaveChartSetting@CChartItem@@QAEHPBD@Z 10032c80 f   ChartItem.obj
 0001:00031d90       ?SaveRQInfo@CChartItem@@QAEXPBD0@Z 10032d90 f   ChartItem.obj
 0001:00031f00       ?SaveRQInfo@CChartItem@@QAEXPBD0H@Z 10032f00 f   ChartItem.obj
 0001:00032060       ?SaveandOpenFromFile@CChartItem@@QAEHPBD0HH@Z 10033060 f   ChartItem.obj
 0001:00032350       ?SendKey@CBaseDesk@@UAEHPAUHWND__@@IHH@Z 10033350 f i ChartItem.obj
 0001:00032360       ?SendKey@CXIBaseDesk@CChartItem@@UAEHPAUHWND__@@IHH@Z 10033360 f   ChartItem.obj
 0001:00032370       ?SendMessageToInvoke@CChartItem@@QAEHFJJ@Z 10033370 f   ChartItem.obj
 0001:00032430       ?Serialize@?$CArray@PAVCChartItemData@@PAV1@@@UAEXAAVCArchive@@@Z 10033430 f i ChartItem.obj
 0001:00032510       ?SetAllProperties@CChartItem@@AAEHH@Z 10033510 f   ChartItem.obj
 0001:000325c0       ?SetAtGrow@?$CArray@PAVCChartItemData@@PAV1@@@QAEXHPAVCChartItemData@@@Z 100335c0 f i ChartItem.obj
 0001:00032600       ?SetAutoSaveToOutside@CChartItem@@QAEX_N@Z 10033600 f   ChartItem.obj
 0001:00032610       ?SetBNormalizedMinuteTimeRule@CChartItem@@QAEXH@Z 10033610 f   ChartItem.obj
 0001:00032660       ?SetButton@CChartItem@@QAEXQAUtagRECT@@@Z 10033660 f   ChartItem.obj
 0001:000327d0       ?SetChartConfigInfo@CChartItem@@QAEXAAUCHART_CONFIG_INFO@@@Z 100337d0 f   ChartItem.obj
 0001:00032820       ?SetChartNumericValue@CChartItem@@QAEXH@Z 10033820 f   ChartItem.obj
 0001:00032890       ?SetChartRequestType@CChartItem@@QAEXD@Z 10033890 f   ChartItem.obj
 0001:000328a0       ?SetChart_NumericValueType@CChartItem@@QAEXH@Z 100338a0 f   ChartItem.obj
 0001:000328c0       ?SetCntForRequest@CChartItem@@QAEXI@Z 100338c0 f   ChartItem.obj
 0001:00032910       ?SetCodeForQuery@CChartItem@@QAEXPBDV?$CStringT@DV?$StrTraitMFC_DLL@DV?$ChTraitsCRT@D@ATL@@@@@ATL@@H@Z 10033910 f   ChartItem.obj
 0001:000329c0       ?SetCompareChartType@CChartItem@@QAEXD@Z 100339c0 f   ChartItem.obj
 0001:00032a50       ?SetDayNumber@CChartItem@@QAEXV?$CStringT@DV?$StrTraitMFC_DLL@DV?$ChTraitsCRT@D@ATL@@@@@ATL@@@Z 10033a50 f   ChartItem.obj
 0001:00032ae0       ?SetDrdsAdvise@CChartItem@@AAEHJ@Z 10033ae0 f   ChartItem.obj
 0001:00032cc0       ?SetEndDate@CChartItem@@QAEXPBD@Z 10033cc0 f   ChartItem.obj
 0001:00032dc0       ?SetEndDateRequested@CChartItem@@QAEXPBD@Z 10033dc0 f   ChartItem.obj
 0001:00032ee0       ?SetExcelData@CChartItem@@QAEXXZ 10033ee0 f   ChartItem.obj
 0001:00032ef0       ?SetHourNumber@CChartItem@@QAEXV?$CStringT@DV?$StrTraitMFC_DLL@DV?$ChTraitsCRT@D@ATL@@@@@ATL@@@Z 10033ef0 f   ChartItem.obj
 0001:00032f90       ?SetInit@CChartItem@@QAEXJJPBDH@Z 10033f90 f   ChartItem.obj
 0001:000331a0       ?SetMapMessage@CBaseDesk2@@UAEXJPBD@Z 100341a0 f i ChartItem.obj
 0001:000331b0       ?SetMapMessage@CXIBaseDesk@CChartItem@@UAEXJPBD@Z 100341b0 f   ChartItem.obj
 0001:000331c0       ?SetMinNumber@CChartItem@@QAEXV?$CStringT@DV?$StrTraitMFC_DLL@DV?$ChTraitsCRT@D@ATL@@@@@ATL@@@Z 100341c0 f   ChartItem.obj
 0001:00033250       ?SetNew_BNormalizedMinuteTimeRule@CChartItem@@QAEXH@Z 10034250 f   ChartItem.obj
 0001:00033270       ?SetNew_OnePageDataCount@CChartItem@@QAEXH@Z 10034270 f   ChartItem.obj
 0001:00033280       ?SetNext@CChartItem@@QAEXH@Z 10034280 f   ChartItem.obj
 0001:000332a0       ?SetOldChartCode@CChartItem@@QAEXV?$CStringT@DV?$StrTraitMFC_DLL@DV?$ChTraitsCRT@D@ATL@@@@@ATL@@@Z 100342a0 f   ChartItem.obj
 0001:00033300       ?SetPacketData@CChartItem@@QAEHPBDJJH@Z 10034300 f   ChartItem.obj
 0001:00033490       ?SetRealPriceData@CChartItem@@QAEXPAXJ@Z 10034490 f   ChartItem.obj
 0001:00033ba0       ?SetRealPriceDataFluct@CChartItem@@QAEXPAXJ@Z 10034ba0 f   ChartItem.obj
 0001:00034220       ?SetRowNCol@CChartItem@@QAEXJJ@Z 10035220 f   ChartItem.obj
 0001:00034250       ?SetSaveAllCount@CChartItem@@QAEXH@Z 10035250 f   ChartItem.obj
 0001:00034260       ?SetSignalData@CChartItem@@QAEXV?$CStringT@DV?$StrTraitMFC_DLL@DV?$ChTraitsCRT@D@ATL@@@@@ATL@@PAEH@Z 10035260 f   ChartItem.obj
 0001:00034270       ?SetSize@?$CArray@PAVCChartItemData@@PAV1@@@QAEXHH@Z 10035270 f i ChartItem.obj
 0001:00034450       ?SetTickMinDayNumber@CChartItem@@QAEXI@Z 10035450 f   ChartItem.obj
 0001:00034550       ?SetTickNumber@CChartItem@@QAEXV?$CStringT@DV?$StrTraitMFC_DLL@DV?$ChTraitsCRT@D@ATL@@@@@ATL@@@Z 10035550 f   ChartItem.obj
 0001:000345e0       ?SetType@CChartItem@@QAEXD@Z 100355e0 f   ChartItem.obj
 0001:00034ad0       ?SetUseLogValue@CChartItem@@QAEXH@Z 10035ad0 f   ChartItem.obj
 0001:00034af0       ?SetUseRevisedValue@CChartItem@@QAEXH@Z 10035af0 f   ChartItem.obj
 0001:00034b40       ?ShowLock@CChartItem@@QAEXH@Z 10035b40 f   ChartItem.obj
 0001:00034b50       ?fnChartFluct@CChartItem@@QAEXH@Z 10035b50 f   ChartItem.obj
 0001:000353a0       ??0CChartItemData@@QAE@PAVCChartItem@@V?$CStringT@DV?$StrTraitMFC_DLL@DV?$ChTraitsCRT@D@ATL@@@@@ATL@@@Z 100363a0 f   ChartItemData.obj
 0001:00035570       ??1CChartItemData@@UAE@XZ  10036570 f   ChartItemData.obj
 0001:00035730       ??_ECChartItemData@@UAEPAXI@Z 10036730 f i ChartItemData.obj
 0001:00035730       ??_GCChartItemData@@UAEPAXI@Z 10036730 f i ChartItemData.obj
 0001:00035760       ?AddGraphPriceChart2NewItem@CChartItemData@@QAEXAAH0H@Z 10036760 f   ChartItemData.obj
 0001:000357d0       ?AddGraphPriceChart@CChartItemData@@QAEXXZ 100367d0 f   ChartItemData.obj
 0001:00035830       ?AddGraphPriceChart_Overlapp@CChartItemData@@QAEXAAH0H@Z 10036830 f   ChartItemData.obj
 0001:00035880       ?AddLoadedPacket@CChartItemData@@QAEHPBDPAU_ST_SELCHART@@@Z 10036880 f   ChartItemData.obj
 0001:00036920       ?AddPacketAndGraph2@CChartItemData@@QAEHHHH@Z 10037920 f   ChartItemData.obj
 0001:00037b70       ?AddPacketAndGraph@CChartItemData@@QAEHH@Z 10038b70 f   ChartItemData.obj
 0001:00039290       ?AddPacketAndGraphAnal@CChartItemData@@QAEHXZ 1003a290 f   ChartItemData.obj
 0001:000392a0       ?AddRealItem@CChartItemData@@QAEXXZ 1003a2a0 f   ChartItemData.obj
 0001:000397d0       ?ChangePacketNameArray@CChartItemData@@QAEXPBD@Z 1003a7d0 f   ChartItemData.obj
 0001:00039840       ?ClearChartItemData@CChartItemData@@QAEHXZ 1003a840 f   ChartItemData.obj
 0001:000399b0       ?ClearData@CChartItemData@@QAEXXZ 1003a9b0 f   ChartItemData.obj
 0001:000399c0       ?GetChartItemDataTitle@CChartItemData@@QAE?AV?$CStringT@DV?$StrTraitMFC_DLL@DV?$ChTraitsCRT@D@ATL@@@@@ATL@@J@Z 1003a9c0 f   ChartItemData.obj
 0001:00039a10       ?GetCntChartItemDataTitle@CChartItemData@@QAEJXZ 1003aa10 f   ChartItemData.obj
 0001:00039a20       ?GetCntForQuery@CChartItemData@@QAEJH@Z 1003aa20 f   ChartItemData.obj
 0001:00039a40       ?GetData@CChartItemData@@QAEJXZ 1003aa40 f   ChartItemData.obj
 0001:00039af0       ?GetLTrCode@CChartItemData@@QAEJXZ 1003aaf0 f   ChartItemData.obj
 0001:00039b00       ?GetMarketQueryData_ChartItemData@CChartItemData@@QAE?AV?$CStringT@DV?$StrTraitMFC_DLL@DV?$ChTraitsCRT@D@ATL@@@@@ATL@@HI@Z 1003ab00 f   ChartItemData.obj
 0001:00039b60       ?GetMaximumRequestCnt@CChartItemData@@QAEJXZ 1003ab60 f   ChartItemData.obj
 0001:00039be0       ?GetPacketName@CChartItemData@@QAE?AV?$CStringT@DV?$StrTraitMFC_DLL@DV?$ChTraitsCRT@D@ATL@@@@@ATL@@XZ 1003abe0 f   ChartItemData.obj
 0001:00039cc0       ?GetPstrPacketName@CChartItemData@@QAEPAV?$CStringT@DV?$StrTraitMFC_DLL@DV?$ChTraitsCRT@D@ATL@@@@@ATL@@JJPAV23@0@Z 1003acc0 f   ChartItemData.obj
 0001:00039e10       ?GetQueryData@CChartItemData@@QAE?AV?$CStringT@DV?$StrTraitMFC_DLL@DV?$ChTraitsCRT@D@ATL@@@@@ATL@@HPAU_ST_SELCHART@@@Z 1003ae10 f   ChartItemData.obj
 0001:00039fd0       ?GetQueryDataMarket@CChartItemData@@QAE?AV?$CStringT@DV?$StrTraitMFC_DLL@DV?$ChTraitsCRT@D@ATL@@@@@ATL@@HH@Z 1003afd0 f   ChartItemData.obj
 0001:0003a3e0       ?GetQueryData_KB_d1013@CChartItemData@@QAE?AV?$CStringT@DV?$StrTraitMFC_DLL@DV?$ChTraitsCRT@D@ATL@@@@@ATL@@HPAU_ST_SELCHART@@@Z 1003b3e0 f   ChartItemData.obj
 0001:0003a770       ?GetQueryData_KB_p0602@CChartItemData@@QAE?AV?$CStringT@DV?$StrTraitMFC_DLL@DV?$ChTraitsCRT@D@ATL@@@@@ATL@@HPAU_ST_SELCHART@@@Z 1003b770 f   ChartItemData.obj
 0001:0003aa60       ?GetQueryData_KB_p0603@CChartItemData@@QAE?AV?$CStringT@DV?$StrTraitMFC_DLL@DV?$ChTraitsCRT@D@ATL@@@@@ATL@@HPAU_ST_SELCHART@@@Z 1003ba60 f   ChartItemData.obj
 0001:0003ad50       ?GetQueryData_KB_p0604@CChartItemData@@QAE?AV?$CStringT@DV?$StrTraitMFC_DLL@DV?$ChTraitsCRT@D@ATL@@@@@ATL@@HPAU_ST_SELCHART@@@Z 1003bd50 f   ChartItemData.obj
 0001:0003b030       ?GetQueryData_KB_p0606@CChartItemData@@QAE?AV?$CStringT@DV?$StrTraitMFC_DLL@DV?$ChTraitsCRT@D@ATL@@@@@ATL@@HPAU_ST_SELCHART@@@Z 1003c030 f   ChartItemData.obj
 0001:0003b360       ?GetTrCode@CChartItemData@@QAE?AV?$CStringT@DV?$StrTraitMFC_DLL@DV?$ChTraitsCRT@D@ATL@@@@@ATL@@XZ 1003c360 f   ChartItemData.obj
 0001:0003b380       ?Init@CChartItemData@@QAEXPAVCChartItem@@V?$CStringT@DV?$StrTraitMFC_DLL@DV?$ChTraitsCRT@D@ATL@@@@@ATL@@@Z 1003c380 f   ChartItemData.obj
 0001:0003b4d0       ?IsFilled@CChartItemData@@QAEHXZ 1003c4d0 f   ChartItemData.obj
 0001:0003b4e0       ?MakeChartData@CChartItemData@@QAEHPAXJPAU_ST_SELCHART@@@Z 1003c4e0 f   ChartItemData.obj
 0001:0003b5c0       ?MakeChartDataELW@CChartItemData@@QAEHPAXJPAU_ST_SELCHART@@@Z 1003c5c0 f   ChartItemData.obj
 0001:0003b840       ?MakeChartData_KB_d1013@CChartItemData@@QAEHPAXJPAU_ST_SELCHART@@@Z 1003c840 f   ChartItemData.obj
 0001:0003bab0       ?MakeChartData_KB_p0602@CChartItemData@@QAEHPAXJPAU_ST_SELCHART@@@Z 1003cab0 f   ChartItemData.obj
 0001:0003bd10       ?MakeChartData_KB_p0603@CChartItemData@@QAEHPAXJPAU_ST_SELCHART@@@Z 1003cd10 f   ChartItemData.obj
 0001:0003c040       ?MakeChartData_KB_p0604@CChartItemData@@QAEHPAXJPAU_ST_SELCHART@@@Z 1003d040 f   ChartItemData.obj
 0001:0003c2a0       ?MakeChartData_KB_p0606@CChartItemData@@QAEHPAXJPAU_ST_SELCHART@@@Z 1003d2a0 f   ChartItemData.obj
 0001:0003c500       ?MakeGraphOption@CChartItemData@@SA?AV?$CStringT@DV?$StrTraitMFC_DLL@DV?$ChTraitsCRT@D@ATL@@@@@ATL@@PBD0AAVCStringArray@@0JKKKKKKHHJJH@Z 1003d500 f   ChartItemData.obj
 0001:0003c7b0       ?MakePacketOption@CChartItemData@@SA?AV?$CStringT@DV?$StrTraitMFC_DLL@DV?$ChTraitsCRT@D@ATL@@@@@ATL@@PBDJ0HHHH@Z 1003d7b0 f   ChartItemData.obj
 0001:0003ca40       ?OnSelectChartItem@CChartItemData@@QAEXPAU_ST_SELCHART@@@Z 1003da40 f   ChartItemData.obj
 0001:0003cae0       ?OverLapping_MakePacketOption@CChartItemData@@SA?AV?$CStringT@DV?$StrTraitMFC_DLL@DV?$ChTraitsCRT@D@ATL@@@@@ATL@@PBDJ0HHHH@Z 1003dae0 f   ChartItemData.obj
 0001:0003cc40       ?ProcRequestCntAfterQuery@CChartItemData@@QAEHJ@Z 1003dc40 f   ChartItemData.obj
 0001:0003cd10       ?RemoveData@CChartItemData@@QAEHXZ 1003dd10 f   ChartItemData.obj
 0001:0003ce50       ?RemovePacketAndGraph@CChartItemData@@QAEHXZ 1003de50 f   ChartItemData.obj
 0001:0003cf50       ?RemoveRealItem@CChartItemData@@QAEXXZ 1003df50 f   ChartItemData.obj
 0001:0003d000       ?SetChartNumericValue@CChartItemData@@QAEXH@Z 1003e000 f   ChartItemData.obj
 0001:0003d130       ?SetCodeForQuery@CChartItemData@@QAEXPBDH@Z 1003e130 f   ChartItemData.obj
 0001:0003d160       ?SetLoadedPacketData@CChartItemData@@QAEHPBDPAU_ST_SELCHART@@@Z 1003e160 f   ChartItemData.obj
 0001:0003d1e0       ?SetPacketData@CChartItemData@@QAEHH@Z 1003e1e0 f   ChartItemData.obj
 0001:0003d3b0       ?SetPacketDataInAdditionPacket@CChartItemData@@QAEHH@Z 1003e3b0 f   ChartItemData.obj
 0001:0003d590       ?SetTRCode@CChartItemData@@QAEXPBD@Z 1003e590 f   ChartItemData.obj
 0001:0003d620       ??0CChartMng@@QAE@XZ       1003e620 f   ChartMng.obj
 0001:0003d930       ??0__STHIGHLIGHTCHARTINFO@@QAE@XZ 1003e930 f i ChartMng.obj
 0001:0003d940       ??1CChartMng@@UAE@XZ       1003e940 f   ChartMng.obj
 0001:0003da10       ??1STINPUTCODEDATA2@@QAE@XZ 1003ea10 f i ChartMng.obj
 0001:0003da20       ??1STSHAREDDATA@@QAE@XZ    1003ea20 f i ChartMng.obj
 0001:0003da40       ??1__STHIGHLIGHTCHARTINFO@@QAE@XZ 1003ea40 f i ChartMng.obj
 0001:0003da50       ??1stSend2Server@@QAE@XZ   1003ea50 f i ChartMng.obj
 0001:0003da60       ??_GCChartMng@@UAEPAXI@Z   1003ea60 f i ChartMng.obj
 0001:0003da60       ??_ECChartMng@@UAEPAXI@Z   1003ea60 f i ChartMng.obj
 0001:0003db60       ?AddMarketData@CChartMng@@AAEHV?$CStringT@DV?$StrTraitMFC_DLL@DV?$ChTraitsCRT@D@ATL@@@@@ATL@@H@Z 1003eb60 f   ChartMng.obj
 0001:0003db80       ?AddRealCodeList@CChartMng@@QAEXPBD@Z 1003eb80 f   ChartMng.obj
 0001:0003dba0       ?AddRealCodes@CChartMng@@QAEXXZ 1003eba0 f   ChartMng.obj
 0001:0003dbc0       ?AddTail@?$CList@U__STHIGHLIGHTCHARTINFO@@U1@@@QAEPAU__POSITION@@U__STHIGHLIGHTCHARTINFO@@@Z 1003ebc0 f i ChartMng.obj
 0001:0003dca0       ?AddUpjongData@CChartMng@@AAEHV?$CStringT@DV?$StrTraitMFC_DLL@DV?$ChTraitsCRT@D@ATL@@@@@ATL@@@Z 1003eca0 f   ChartMng.obj
 0001:0003de10       ?ApplySyncEnv_OnlyOne@CChartMng@@QAEXXZ 1003ee10 f   ChartMng.obj
 0001:0003e120       ?Create@CChartMng@@QAEHABUtagRECT@@PAVCWnd@@PBD2IJ@Z 1003f120 f   ChartMng.obj
 0001:0003e180       ?ExtendChart@CChartMng@@AAEXH@Z 1003f180 f   ChartMng.obj
 0001:0003e410       ?FindSelectChartByItemCode@CChartMng@@QAEHPBDH@Z 1003f410 f   ChartMng.obj
 0001:0003e450       ?GetAutoSaveToOutside@CChartMng@@QAE_NAA_N@Z 1003f450 f   ChartMng.obj
 0001:0003e4a0       ?GetChartAllCode@CChartMng@@QAEXAAVCStringArray@@@Z 1003f4a0 f   ChartMng.obj
 0001:0003e600       ?GetCurSelChartItemJMName@CChartMng@@QAE?AV?$CStringT@DV?$StrTraitMFC_DLL@DV?$ChTraitsCRT@D@ATL@@@@@ATL@@XZ 1003f600 f   ChartMng.obj
 0001:0003e660       ?GetImaginaryCandleToOutside@CChartMng@@QAE_NAA_N@Z 1003f660 f   ChartMng.obj
 0001:0003e6b0       ?GetIndicatorNameList@CChartMng@@AAE?AV?$CStringT@DV?$StrTraitMFC_DLL@DV?$ChTraitsCRT@D@ATL@@@@@ATL@@PBD@Z 1003f6b0 f   ChartMng.obj
 0001:0003e710       ?GetIndicatorNameListIntoArray@CChartMng@@QAEXPAVCStringArray@@PBD@Z 1003f710 f   ChartMng.obj
 0001:0003e720       ?GetIndicatorNameListIntoComboBox@CChartMng@@QAEXAAVCComboBox@@PBD@Z 1003f720 f   ChartMng.obj
 0001:0003e730       ?GetIndicatorNameListIntoListCtrl@CChartMng@@QAEXAAVCXListCtrl@@PBD@Z 1003f730 f   ChartMng.obj
 0001:0003e740       ?GetIndicatorNameListIntoTreeCtrl@CChartMng@@QAEXAAVCTreeCtrl@@@Z 1003f740 f   ChartMng.obj
 0001:0003e750       ?GetJongMokNameByCode@CChartMng@@QAE?AV?$CStringT@DV?$StrTraitMFC_DLL@DV?$ChTraitsCRT@D@ATL@@@@@ATL@@PBD0@Z 1003f750 f   ChartMng.obj
 0001:0003e780       ?GetJongmokCodes@CChartMng@@AAEXPAVCStringList@@PAV?$CList@U__STHIGHLIGHTCHARTINFO@@U1@@@@Z 1003f780 f   ChartMng.obj
 0001:0003e930       ?GetMessageMap@CChartMng@@MBEPBUAFX_MSGMAP@@XZ 1003f930 f   ChartMng.obj
 0001:0003e940       ?GetRQCount@CChartMng@@QAEHXZ 1003f940 f   ChartMng.obj
 0001:0003e980       ?GetRectOfChart@CChartMng@@QAE?AVCRect@@HHH@Z 1003f980 f   ChartMng.obj
 0001:0003eb40       ?GetSafeHwnd@CWnd@@QBEPAUHWND__@@XZ 1003fb40 f i ChartMng.obj
 0001:0003eb50       ?GetShowExRightDividendToOutside@CChartMng@@QAE_NAA_N@Z 1003fb50 f   ChartMng.obj
 0001:0003eba0       ?GetShowHighLowBoundToOutside@CChartMng@@QAE_NAA_N@Z 1003fba0 f   ChartMng.obj
 0001:0003ebf0       ?GetStartEndDateAtChartMng@CChartMng@@QAEXAAN0@Z 1003fbf0 f   ChartMng.obj
 0001:0003ec40       ?GetThisMessageMap@CChartMng@@KGPBUAFX_MSGMAP@@XZ 1003fc40 f   ChartMng.obj
 0001:0003ec50       ?GetTimeLinkageToOutside@CChartMng@@QAE_NAA_N@Z 1003fc50 f   ChartMng.obj
 0001:0003eca0       ?GetpChartItemSelected@CChartMng@@QAEPAVCChartItem@@XZ 1003fca0 f   ChartMng.obj
 0001:0003ecd0       ?HeadInLoop@CChartMng@@AAEHXZ 1003fcd0 f   ChartMng.obj
 0001:0003f5e0       ?InitInLoop@CChartMng@@AAEXXZ 100405e0 f   ChartMng.obj
 0001:0003f670       ?InputCodeFromInputBar@CChartMng@@AAEHPAVCCodeDataFromInputBar@@H@Z 10040670 f   ChartMng.obj
 0001:0003fc20       ?InsertChart@CChartMng@@QAEHXZ 10040c20 f   ChartMng.obj
 0001:0003fc60       ?IsAdvisingCodeOf@CChartMng@@QAEHPBD@Z 10040c60 f   ChartMng.obj
 0001:0003fd40       ?LoadChart@CChartMng@@AAEXPAVCPoint@@@Z 10040d40 f   ChartMng.obj
 0001:00040110       ?LoadChart@CChartMng@@QAEHV?$CStringT@DV?$StrTraitMFC_DLL@DV?$ChTraitsCRT@D@ATL@@@@@ATL@@@Z 10041110 f   ChartMng.obj
 0001:000402a0       ?LoadDWMMChart@CChartMng@@AAEHH@Z 100412a0 f   ChartMng.obj
 0001:000405f0       ?LoadSaveChart@CChartMng@@AAEXPAVCPoint@@@Z 100415f0 f   ChartMng.obj
 0001:00040b10       ?MoveCharts@CChartMng@@QAEXXZ 10041b10 f   ChartMng.obj
 0001:00040cb0       ?NewNode@?$CList@U__STHIGHLIGHTCHARTINFO@@U1@@@IAEPAUCNode@1@PAU21@0@Z 10041cb0 f i ChartMng.obj
 0001:00040d30       ?OnAllCodeScdClear@CChartMng@@QAEXXZ 10041d30 f   ChartMng.obj
 0001:00040e50       ?OnAllCodeUnAdvise@CChartMng@@QAEXXZ 10041e50 f   ChartMng.obj
 0001:00040f70       ?OnChartMngCodeAdvise@CChartMng@@QAEXPAVCChartItem@@H@Z 10041f70 f   ChartMng.obj
 0001:00040fe0       ?OnChartMngCodeScdClear@CChartMng@@QAEXPAVCChartItem@@H@Z 10041fe0 f   ChartMng.obj
 0001:00041160       ?OnChartMngCodeUnAdvise@CChartMng@@QAEXPAVCChartItem@@H@Z 10042160 f   ChartMng.obj
 0001:000412e0       ?OnCmdMsg@CChartMng@@UAEHIHPAXPAUAFX_CMDHANDLERINFO@@@Z 100422e0 f   ChartMng.obj
 0001:00041420       ?OnCreate@CChartMng@@IAEHPAUtagCREATESTRUCTA@@@Z 10042420 f   ChartMng.obj
 0001:00041500       ?OnDestroy@CChartMng@@IAEXXZ 10042500 f   ChartMng.obj
 0001:000417b0       ?OnEventMessage@CChartMng@@IAEJIJ@Z 100427b0 f   ChartMng.obj
 0001:000422f0       ?OnGetUserID@CChartMng@@IAEJIJ@Z 100432f0 f   ChartMng.obj
 0001:00042380       ?OnLButtonDblClk@CChartMng@@IAEXIVCPoint@@@Z 10043380 f   ChartMng.obj
 0001:00042460       ?OnLButtonDown@CChartMng@@IAEXIVCPoint@@@Z 10043460 f   ChartMng.obj
 0001:00042660       ?OnLButtonUp@CChartMng@@IAEXIVCPoint@@@Z 10043660 f   ChartMng.obj
 0001:00042780       ?OnMouseMove@CChartMng@@IAEXIVCPoint@@@Z 10043780 f   ChartMng.obj
 0001:00042840       ?OnPaint@CChartMng@@IAEXXZ 10043840 f   ChartMng.obj
 0001:00042ab0       ?OnRButtonUp@CChartMng@@IAEXIVCPoint@@@Z 10043ab0 f   ChartMng.obj
 0001:00042ce0       ?OnRmsgSelChartCode@CChartMng@@IAEJIJ@Z 10043ce0 f   ChartMng.obj
 0001:00042d20       ?OnSize@CChartMng@@IAEXIHH@Z 10043d20 f   ChartMng.obj
 0001:00042d40       ?OnTimer@CChartMng@@IAEXI@Z 10043d40 f   ChartMng.obj
 0001:00042d80       ?PaintTitle@CChartMng@@AAEXHHPAVCChartItem@@PAVCPaintDC@@@Z 10043d80 f   ChartMng.obj
 0001:00042eb0       ?PostInLoop@CChartMng@@AAEHXZ 10043eb0 f   ChartMng.obj
 0001:00042ef0       ?PreTranslateMessage@CChartMng@@UAEHPAUtagMSG@@@Z 10043ef0 f   ChartMng.obj
 0001:00042f60       ?Rearrange@CChartMng@@AAEHJH@Z 10043f60 f   ChartMng.obj
 0001:00043500       ?ReplaceChart@CChartMng@@AAEHJJJJ@Z 10044500 f   ChartMng.obj
 0001:00043650       ?RequestAVGForGuideLine@CChartMng@@AAEXH@Z 10044650 f   ChartMng.obj
 0001:00043660       ?RequestChartData@CChartMng@@QAEHH@Z 10044660 f   ChartMng.obj
 0001:000438a0       ?ResetChart@CChartMng@@AAEJXZ 100448a0 f   ChartMng.obj
 0001:00043960       ?ResetChartAll@CChartMng@@AAEXXZ 10044960 f   ChartMng.obj
 0001:00043ce0       ?ResetOCX@CChartMng@@AAEXXZ 10044ce0 f   ChartMng.obj
 0001:00043d20       ?RevisedPriceFlag@CChartMng@@QAEHXZ 10044d20 f   ChartMng.obj
 0001:00043d60       ?SaveChart@CChartMng@@AAEXPAVCPoint@@@Z 10044d60 f   ChartMng.obj
 0001:00043d70       ?SaveChart@CChartMng@@QAEXV?$CStringT@DV?$StrTraitMFC_DLL@DV?$ChTraitsCRT@D@ATL@@@@@ATL@@@Z 10044d70 f   ChartMng.obj
 0001:00043f10       ?SelectEmptyPos@CChartMng@@QAEHXZ 10044f10 f   ChartMng.obj
 0001:000440b0       ?SelectNextPos@CChartMng@@QAEHXZ 100450b0 f   ChartMng.obj
 0001:000440f0       ?SendInitChartData@CChartMng@@QAEXHH@Z 100450f0 f   ChartMng.obj
 0001:00044100       ?SetAddMode@CChartMng@@QAEXH@Z 10045100 f   ChartMng.obj
 0001:00044110       ?SetAutoSaveToOutside@CChartMng@@QAEX_N@Z 10045110 f   ChartMng.obj
 0001:00044150       ?SetBaseDesk@CChartMng@@QAEXJ@Z 10045150 f   ChartMng.obj
 0001:000442a0       ?SetChartLineType@CChartItem@@QAEXV?$CStringT@DV?$StrTraitMFC_DLL@DV?$ChTraitsCRT@D@ATL@@@@@ATL@@@Z 100452a0 f i ChartMng.obj
 0001:00044300       ?SetChartSelected@CChartMng@@QAEXVCPoint@@HH@Z 10045300 f   ChartMng.obj
 0001:00044440       ?SetEnableBoundMarkAll@CChartMng@@AAEXH@Z 10045440 f   ChartMng.obj
 0001:000444b0       ?SetEnableBoundMarkOnlyOne@CChartMng@@QAEXH@Z 100454b0 f   ChartMng.obj
 0001:00044520       ?SetEndData@CChartMng@@QAEXPBD@Z 10045520 f   ChartMng.obj
 0001:00044580       ?SetFocusToJMEdit_At_LoadEnd@CChartMng@@QAEXXZ 10045580 f   ChartMng.obj
 0001:00044630       ?SetJCodesNext@CChartMng@@AAEHXZ 10045630 f   ChartMng.obj
 0001:00044710       ?SetMarketType@CChartMng@@QAEXH@Z 10045710 f   ChartMng.obj
 0001:00044720       ?SetMatrix@CChartMng@@AAEHJJ@Z 10045720 f   ChartMng.obj
 0001:00044780       ?SetMultiCodes@CChartMng@@QAEXV?$CStringT@DV?$StrTraitMFC_DLL@DV?$ChTraitsCRT@D@ATL@@@@@ATL@@@Z 10045780 f   ChartMng.obj
 0001:00044950       ?SetParentCompareChartClassPointer@CChartMng@@QAEXJ@Z 10045950 f   ChartMng.obj
 0001:00044960       ?SetPriceLog@CChartMng@@QAEXH@Z 10045960 f   ChartMng.obj
 0001:00044990       ?SetRealFPriceData@CChartMng@@QAEXPADH@Z 10045990 f   ChartMng.obj
 0001:000449a0       ?SetRealHPriceData@CChartMng@@QAEXPADH@Z 100459a0 f   ChartMng.obj
 0001:000449b0       ?SetRealJPriceData@CChartMng@@QAEXPAX@Z 100459b0 f   ChartMng.obj
 0001:00044ac0       ?SetRealOPriceData@CChartMng@@QAEXPADH@Z 10045ac0 f   ChartMng.obj
 0001:00044ad0       ?SetRealUPriceData@CChartMng@@QAEXPADH@Z 10045ad0 f   ChartMng.obj
 0001:00044ae0       ?SetSelChangeChart@CChartMng@@QAEXH@Z 10045ae0 f   ChartMng.obj
 0001:00044af0       ?SetSendJongData@CChartMng@@AAEXPBDD0@Z 10045af0 f   ChartMng.obj
 0001:00044b00       ?SetShowExRightOnlyOne@CChartMng@@QAEXH@Z 10045b00 f   ChartMng.obj
 0001:00044b50       ?SetTimeMark@CChartMng@@QAEXPBDH@Z 10045b50 f   ChartMng.obj
 0001:00044bc0       ?SetTimeShareAll@CChartMng@@AAEXH@Z 10045bc0 f   ChartMng.obj
 0001:00044c30       ?SetTimeShareOnlyOne@CChartMng@@QAEXH@Z 10045c30 f   ChartMng.obj
 0001:00044ca0       ?SetType@CChartMng@@AAEHDJ@Z 10045ca0 f   ChartMng.obj
 0001:00044db0       ?SetType_NoRequest@CChartMng@@AAEXDJ@Z 10045db0 f   ChartMng.obj
 0001:00044df0       ?ShowInnerToolbar@CChartMng@@AAEHXZ 10045df0 f   ChartMng.obj
 0001:00044f90       ?ShowScale@CChartMng@@AAEHXZ 10045f90 f   ChartMng.obj
 0001:00045130       ?TailInLoop@CChartMng@@AAEHXZ 10046130 f   ChartMng.obj
 0001:00045180       ?UnhighlightJCode@CChartMng@@QAEXPAVCChartItem@@@Z 10046180 f   ChartMng.obj
 0001:000452a0       ?UpdateIndex@CChartMng@@AAEHXZ 100462a0 f   ChartMng.obj
 0001:000454c0       ?UpdateNumericChartValue@CChartMng@@AAEHHH@Z 100464c0 f   ChartMng.obj
 0001:00045520       ?UpdateRevisedValue@CChartMng@@AAEHHH@Z 10046520 f   ChartMng.obj
 0001:000455e0       ?UpdateShowingFackedCandle@CChartMng@@AAEHHH@Z 100465e0 f   ChartMng.obj
 0001:000456a0       ?UpdateShowingFacked_JustOneChart@CChartMng@@QAEHHH@Z 100466a0 f   ChartMng.obj
 0001:00045740       ?WindowProc@CChartMng@@MAEJIIJ@Z 10046740 f   ChartMng.obj
 0001:000475e0       ?fnMenuLoad@CChartMng@@QAEHHH@Z 100485e0 f   ChartMng.obj
 0001:00047690       ??$SerializeElements@PAVCDlgCompSubItem@@@@YGXAAVCArchive@@PAPAVCDlgCompSubItem@@H@Z 10048690 f i CodeDataFromInputBar.obj
 0001:00047740       ??0?$CList@PAVCDlgCompSubItem@@PAV1@@@QAE@H@Z 10048740 f i CodeDataFromInputBar.obj
 0001:00047780       ??0CCodeDataFromInputBar@@QAE@XZ 10048780 f   CodeDataFromInputBar.obj
 0001:000477f0       ??0CShareInputData@@QAE@XZ 100487f0 f   CodeDataFromInputBar.obj
 0001:00047870       ??1?$CList@PAVCDlgCompSubItem@@PAV1@@@UAE@XZ 10048870 f i CodeDataFromInputBar.obj
 0001:000478e0       ??1CCodeDataFromInputBar@@UAE@XZ 100488e0 f   CodeDataFromInputBar.obj
 0001:00047900       ??_G?$CList@PAVCDlgCompSubItem@@PAV1@@@UAEPAXI@Z 10048900 f i CodeDataFromInputBar.obj
 0001:00047900       ??_E?$CList@PAVCDlgCompSubItem@@PAV1@@@UAEPAXI@Z 10048900 f i CodeDataFromInputBar.obj
 0001:000479b0       ??_GCCodeDataFromInputBar@@UAEPAXI@Z 100489b0 f i CodeDataFromInputBar.obj
 0001:000479b0       ??_ECCodeDataFromInputBar@@UAEPAXI@Z 100489b0 f i CodeDataFromInputBar.obj
 0001:000479f0       ?AddTail@?$CList@PAVCDlgCompGroupData@@PAV1@@@QAEPAU__POSITION@@PAVCDlgCompGroupData@@@Z 100489f0 f i CodeDataFromInputBar.obj
 0001:00047a80       ?AddTail@?$CList@PAVCDlgCompSubItem@@PAV1@@@QAEPAU__POSITION@@PAVCDlgCompSubItem@@@Z 10048a80 f i CodeDataFromInputBar.obj
 0001:00047b10       ?ClearAll@CDlgCompDataHandle@@UAGXJ@Z 10048b10 f   CodeDataFromInputBar.obj
 0001:00047b20       ?ClearGroupList@CDlgCompDataHandle@@UAGXJ@Z 10048b20 f   CodeDataFromInputBar.obj
 0001:00047c60       ?CopyGroupList@CDlgCompDataHandle@@UAGHJJ@Z 10048c60 f   CodeDataFromInputBar.obj
 0001:00047e10       ?DoCheckFirst@CDlgCompDataHandle@@UAGXXZ 10048e10 f   CodeDataFromInputBar.obj
 0001:00047f80       ?LoadData@CDlgCompDataHandle@@UAGXJ@Z 10048f80 f   CodeDataFromInputBar.obj
 0001:00048460       ?NewNode@?$CList@PAVCDlgCompGroupData@@PAV1@@@IAEPAUCNode@1@PAU21@0@Z 10049460 f i CodeDataFromInputBar.obj
 0001:000484d0       ?NewNode@?$CList@PAVCDlgCompSubItem@@PAV1@@@IAEPAUCNode@1@PAU21@0@Z 100494d0 f i CodeDataFromInputBar.obj
 0001:00048540       ?ReInit@CShareInputData@@QAEXXZ 10049540 f   CodeDataFromInputBar.obj
 0001:00048590       ?RemoveAll@?$CList@PAVCDlgCompGroupData@@PAV1@@@QAEXXZ 10049590 f i CodeDataFromInputBar.obj
 0001:000485c0       ?RemoveAll@?$CList@PAVCDlgCompSubItem@@PAV1@@@QAEXXZ 100495c0 f i CodeDataFromInputBar.obj
 0001:000485f0       ?SaveData@CDlgCompDataHandle@@UAGXJ@Z 100495f0 f   CodeDataFromInputBar.obj
 0001:00048930       ?SaveSelCodeInfo@CDlgCompDataHandle@@UAGXJ@Z 10049930 f   CodeDataFromInputBar.obj
 0001:00048990       ?SaveSelGroup@CDlgCompDataHandle@@UAGXJ@Z 10049990 f   CodeDataFromInputBar.obj
 0001:000489d0       ?SaveShowGroupInfo@CDlgCompDataHandle@@UAGXJ@Z 100499d0 f   CodeDataFromInputBar.obj
 0001:00048a60       ?SaveTimeUse@CDlgCompDataHandle@@UAGXJ@Z 10049a60 f   CodeDataFromInputBar.obj
 0001:00048ad0       ?Serialize@?$CList@PAVCDlgCompSubItem@@PAV1@@@UAEXAAVCArchive@@@Z 10049ad0 f i CodeDataFromInputBar.obj
 0001:00048c60       ??0CCompareChartApp@@QAE@XZ 10049c60 f   CompareChart.obj
 0001:00048c80       ??_GCCompareChartApp@@UAEPAXI@Z 10049c80 f i CompareChart.obj
 0001:00048c80       ??_ECCompareChartApp@@UAEPAXI@Z 10049c80 f i CompareChart.obj
 0001:00048cc0       ?GetApplicationRecoveryParameter@CWinApp@@UAEPAXXZ 10049cc0 f i CompareChart.obj
 0001:00048cd0       ?GetApplicationRecoveryPingInterval@CWinApp@@UAEKXZ 10049cd0 f i CompareChart.obj
 0001:00048ce0       ?GetApplicationRestartFlags@CWinApp@@UAEKXZ 10049ce0 f i CompareChart.obj
 0001:00048cf0       ?GetMessageMap@CCompareChartApp@@MBEPBUAFX_MSGMAP@@XZ 10049cf0 f   CompareChart.obj
 0001:00048d00       ?GetThisMessageMap@CCompareChartApp@@KGPBUAFX_MSGMAP@@XZ 10049d00 f   CompareChart.obj
 0001:00048d10       ?InitInstance@CCompareChartApp@@UAEHXZ 10049d10 f   CompareChart.obj
 0001:00048d30       ?ReopenPreviousFilesAtRestart@CWinApp@@UBEHXZ 10049d30 f i CompareChart.obj
 0001:00048d40       ?RestoreAutosavedFilesAtRestart@CWinApp@@UBEHXZ 10049d40 f i CompareChart.obj
 0001:00048d50       ?SupportsApplicationRecovery@CWinApp@@UBEHXZ 10049d50 f i CompareChart.obj
 0001:00048d60       ?SupportsAutosaveAtInterval@CWinApp@@UBEHXZ 10049d60 f i CompareChart.obj
 0001:00048d70       ?SupportsAutosaveAtRestart@CWinApp@@UBEHXZ 10049d70 f i CompareChart.obj
 0001:00048d80       ?SupportsRestartManager@CWinApp@@UBEHXZ 10049d80 f i CompareChart.obj
 0001:00048d90       ?_AfxInitManaged@@YAHXZ    10049d90 f i CompareChart.obj
 0001:00048da0       ?fnFormResize@@YGJPAXHH@Z  10049da0 f   CompareChart.obj
 0001:00048dd0       ?fnFuncCall@@YGJPAXPBD1AAUtagVARIANT@@@Z 10049dd0 f   CompareChart.obj
 0001:00049000       ?fnInit@@YGJPAUSTODINIT_IN@@PAUSTODINIT_OUT@@@Z 1004a000 f   CompareChart.obj
 0001:00049120       ?fnLoad@@YGJPAUSTODCREATEINFO_IN@@PAUSTODCREATEINFO_OUT@@@Z 1004a120 f   CompareChart.obj
 0001:00049250       ?fnUnLoad@@YGJPAX@Z        1004a250 f   CompareChart.obj
 0001:00049280       _CREATE_CHARTSCREEN        1004a280 f   CompareChart.obj
 0001:00049430       _DESTROY_CHARTSCREEN       1004a430 f   CompareChart.obj
 0001:00049450       _DROPKEY_TRADING           1004a450 f   CompareChart.obj
 0001:00049480       _DllCanUnloadNow@0         1004a480 f   CompareChart.obj
 0001:000494b0       _DllGetClassObject@12      1004a4b0 f   CompareChart.obj
 0001:000494f0       _DllRegisterServer@0       1004a4f0 f   CompareChart.obj
 0001:00049520       _SETKEYCODE_TRADING        1004a520 f   CompareChart.obj
 0001:00049550       ??0CEditUsr@@QAE@XZ        1004a550 f   EditUsr.obj
 0001:00049570       ??1CEditUsr@@UAE@XZ        1004a570 f   EditUsr.obj
 0001:00049580       ??_GCEditUsr@@UAEPAXI@Z    1004a580 f i EditUsr.obj
 0001:00049580       ??_ECEditUsr@@UAEPAXI@Z    1004a580 f i EditUsr.obj
 0001:000495d0       ?GetMessageMap@CEditUsr@@MBEPBUAFX_MSGMAP@@XZ 1004a5d0 f   EditUsr.obj
 0001:000495e0       ?GetThisMessageMap@CEditUsr@@KGPBUAFX_MSGMAP@@XZ 1004a5e0 f   EditUsr.obj
 0001:000495f0       ?WindowProc@CEditUsr@@MAEJIIJ@Z 1004a5f0 f   EditUsr.obj
 0001:00049670       ??0CBarFolder@CGfxOutBarCtrl@@QAE@PBDK@Z 1004a670 f   GfxOutBarCtrl.obj
 0001:00049710       ??0CBarItem@CGfxOutBarCtrl@@QAE@PBDHK@Z 1004a710 f   GfxOutBarCtrl.obj
 0001:00049760       ??0CGfxOutBarCtrl@@QAE@XZ  1004a760 f   GfxOutBarCtrl.obj
 0001:00049a50       ??1CBarFolder@CGfxOutBarCtrl@@UAE@XZ 1004aa50 f   GfxOutBarCtrl.obj
 0001:00049af0       ??1CBarItem@CGfxOutBarCtrl@@UAE@XZ 1004aaf0 f   GfxOutBarCtrl.obj
 0001:00049b10       ??1CGfxOutBarCtrl@@UAE@XZ  1004ab10 f   GfxOutBarCtrl.obj
 0001:00049b40       ??_GCBarFolder@CGfxOutBarCtrl@@UAEPAXI@Z 1004ab40 f i GfxOutBarCtrl.obj
 0001:00049b40       ??_ECBarFolder@CGfxOutBarCtrl@@UAEPAXI@Z 1004ab40 f i GfxOutBarCtrl.obj
 0001:00049c00       ??_GCBarItem@CGfxOutBarCtrl@@UAEPAXI@Z 1004ac00 f i GfxOutBarCtrl.obj
 0001:00049c00       ??_ECBarItem@CGfxOutBarCtrl@@UAEPAXI@Z 1004ac00 f i GfxOutBarCtrl.obj
 0001:00049c40       ??_ECGfxOutBarCtrl@@UAEPAXI@Z 1004ac40 f i GfxOutBarCtrl.obj
 0001:00049c40       ??_GCGfxOutBarCtrl@@UAEPAXI@Z 1004ac40 f i GfxOutBarCtrl.obj
 0001:00049ca0       ?AddFolder@CGfxOutBarCtrl@@QAEHPBDK@Z 1004aca0 f   GfxOutBarCtrl.obj
 0001:00049d70       ?AddFolderBar@CGfxOutBarCtrl@@QAEHPBDPAVCWnd@@K@Z 1004ad70 f   GfxOutBarCtrl.obj
 0001:00049e50       ?AnimateFolderScroll@CGfxOutBarCtrl@@QAEXHH@Z 1004ae50 f   GfxOutBarCtrl.obj
 0001:0004a5b0       ?CleanUp@CBarFolder@CGfxOutBarCtrl@@QAEXXZ 1004b5b0 f   GfxOutBarCtrl.obj
 0001:0004a610       ?Create@CGfxOutBarCtrl@@QAEHKABUtagRECT@@PAVCWnd@@IK@Z 1004b610 f   GfxOutBarCtrl.obj
 0001:0004a660       ?CreateObject@CGfxOutBarCtrl@@SGPAVCObject@@XZ 1004b660 f   GfxOutBarCtrl.obj
 0001:0004a6d0       ?DeleteAllFolder@CGfxOutBarCtrl@@QAEXXZ 1004b6d0 f   GfxOutBarCtrl.obj
 0001:0004a730       ?DrawAnimItem@CGfxOutBarCtrl@@QAEXHHH@Z 1004b730 f   GfxOutBarCtrl.obj
 0001:0004a9f0       ?DrawDragArrow@CGfxOutBarCtrl@@QAEXPAVCDC@@HH@Z 1004b9f0 f   GfxOutBarCtrl.obj
 0001:0004ad80       ?DrawFolder@CGfxOutBarCtrl@@IAEXPAVCDC@@HVCRect@@_N@Z 1004bd80 f   GfxOutBarCtrl.obj
 0001:0004b470       ?DrawItem@CGfxOutBarCtrl@@QAEXPAVCDC@@HVCRect@@H_N@Z 1004c470 f   GfxOutBarCtrl.obj
 0001:0004b750       ?GetCountPerPage@CGfxOutBarCtrl@@QBEHXZ 1004c750 f   GfxOutBarCtrl.obj
 0001:0004b760       ?GetDragItemRect@CGfxOutBarCtrl@@QAEHHAAVCRect@@@Z 1004c760 f   GfxOutBarCtrl.obj
 0001:0004b8e0       ?GetFlag@CGfxOutBarCtrl@@QBEKXZ 1004c8e0 f   GfxOutBarCtrl.obj
 0001:0004b8f0       ?GetFolderChild@CGfxOutBarCtrl@@QAEPAVCWnd@@H@Z 1004c8f0 f   GfxOutBarCtrl.obj
 0001:0004b940       ?GetFolderCount@CGfxOutBarCtrl@@QBEHXZ 1004c940 f   GfxOutBarCtrl.obj
 0001:0004b950       ?GetFolderData@CGfxOutBarCtrl@@QAEKH@Z 1004c950 f   GfxOutBarCtrl.obj
 0001:0004b990       ?GetFolderImageList@CGfxOutBarCtrl@@QBEPAVCImageList@@H_N@Z 1004c990 f   GfxOutBarCtrl.obj
 0001:0004b9e0       ?GetFolderRect@CGfxOutBarCtrl@@QBE_NHAAVCRect@@@Z 1004c9e0 f   GfxOutBarCtrl.obj
 0001:0004bad0       ?GetIconRect@CGfxOutBarCtrl@@QAEXHHAAVCRect@@@Z 1004cad0 f   GfxOutBarCtrl.obj
 0001:0004bd00       ?GetImageList@CGfxOutBarCtrl@@QAEPAVCImageList@@PAV2@H@Z 1004cd00 f   GfxOutBarCtrl.obj
 0001:0004bd30       ?GetInsideRect@CGfxOutBarCtrl@@QBEXAAVCRect@@@Z 1004cd30 f   GfxOutBarCtrl.obj
 0001:0004bd80       ?GetItemCount@CBarFolder@CGfxOutBarCtrl@@QAEHXZ 1004cd80 f   GfxOutBarCtrl.obj
 0001:0004bd90       ?GetItemCount@CGfxOutBarCtrl@@QBEHXZ 1004cd90 f   GfxOutBarCtrl.obj
 0001:0004bdc0       ?GetItemData@CGfxOutBarCtrl@@QBEKH@Z 1004cdc0 f   GfxOutBarCtrl.obj
 0001:0004be10       ?GetItemImage@CGfxOutBarCtrl@@QBEHH@Z 1004ce10 f   GfxOutBarCtrl.obj
 0001:0004be60       ?GetItemRect@CGfxOutBarCtrl@@QAEXHHAAVCRect@@@Z 1004ce60 f   GfxOutBarCtrl.obj
 0001:0004bfa0       ?GetItemSize@CGfxOutBarCtrl@@QAE?AVCSize@@HHH@Z 1004cfa0 f   GfxOutBarCtrl.obj
 0001:0004c210       ?GetItemText@CGfxOutBarCtrl@@QAE?AV?$CStringT@DV?$StrTraitMFC_DLL@DV?$ChTraitsCRT@D@ATL@@@@@ATL@@H@Z 1004d210 f   GfxOutBarCtrl.obj
 0001:0004c2b0       ?GetLabelRect@CGfxOutBarCtrl@@QAEXHHAAVCRect@@@Z 1004d2b0 f   GfxOutBarCtrl.obj
 0001:0004c480       ?GetMessageMap@CGfxOutBarCtrl@@MBEPBUAFX_MSGMAP@@XZ 1004d480 f   GfxOutBarCtrl.obj
 0001:0004c490       ?GetRuntimeClass@CGfxOutBarCtrl@@UBEPAUCRuntimeClass@@XZ 1004d490 f   GfxOutBarCtrl.obj
 0001:0004c4a0       ?GetSelFolder@CGfxOutBarCtrl@@QBEHXZ 1004d4a0 f   GfxOutBarCtrl.obj
 0001:0004c4b0       ?GetThisClass@CGfxOutBarCtrl@@SGPAUCRuntimeClass@@XZ 1004d4b0 f   GfxOutBarCtrl.obj
 0001:0004c4c0       ?GetThisMessageMap@CGfxOutBarCtrl@@KGPBUAFX_MSGMAP@@XZ 1004d4c0 f   GfxOutBarCtrl.obj
 0001:0004c4d0       ?GetVisibleRange@CGfxOutBarCtrl@@QAEXHAAH0@Z 1004d4d0 f   GfxOutBarCtrl.obj
 0001:0004c5d0       ?HighlightFolder@CGfxOutBarCtrl@@QAEXH@Z 1004d5d0 f   GfxOutBarCtrl.obj
 0001:0004c7e0       ?HighlightItem@CGfxOutBarCtrl@@QAEXH_N@Z 1004d7e0 f   GfxOutBarCtrl.obj
 0001:0004ca50       ?HitTestEx@CGfxOutBarCtrl@@QAEHABVCPoint@@AAH@Z 1004da50 f   GfxOutBarCtrl.obj
 0001:0004cd00       ?InsertItem@CBarFolder@CGfxOutBarCtrl@@QAEHHPBDHK@Z 1004dd00 f   GfxOutBarCtrl.obj
 0001:0004cde0       ?InsertItem@CGfxOutBarCtrl@@QAEHHHPBDHK@Z 1004dde0 f   GfxOutBarCtrl.obj
 0001:0004cee0       ?IsSmallIconView@CGfxOutBarCtrl@@QBE_NXZ 1004dee0 f   GfxOutBarCtrl.obj
 0001:0004cef0       ?IsValidItem@CGfxOutBarCtrl@@QBE_NH@Z 1004def0 f   GfxOutBarCtrl.obj
 0001:0004cf30       ?ModifyFlag@CGfxOutBarCtrl@@QAEXABK0I@Z 1004df30 f   GfxOutBarCtrl.obj
 0001:0004cfa0       ?OnCreate@CGfxOutBarCtrl@@IAEHPAUtagCREATESTRUCTA@@@Z 1004dfa0 f   GfxOutBarCtrl.obj
 0001:0004d050       ?OnDestroy@CGfxOutBarCtrl@@IAEXXZ 1004e050 f   GfxOutBarCtrl.obj
 0001:0004d0e0       ?OnEraseBkgnd@CGfxOutBarCtrl@@IAEHPAVCDC@@@Z 1004e0e0 f   GfxOutBarCtrl.obj
 0001:0004d0f0       ?OnGfxLargeicon@CGfxOutBarCtrl@@IAEXXZ 1004e0f0 f   GfxOutBarCtrl.obj
 0001:0004d190       ?OnGfxRemoveitem@CGfxOutBarCtrl@@IAEXXZ 1004e190 f   GfxOutBarCtrl.obj
 0001:0004d2d0       ?OnGfxSmallicon@CGfxOutBarCtrl@@IAEXXZ 1004e2d0 f   GfxOutBarCtrl.obj
 0001:0004d370       ?OnLButtonDblClk@CGfxOutBarCtrl@@IAEXIVCPoint@@@Z 1004e370 f   GfxOutBarCtrl.obj
 0001:0004de70       ?OnLButtonDown@CGfxOutBarCtrl@@IAEXIVCPoint@@@Z 1004ee70 f   GfxOutBarCtrl.obj
 0001:0004e900       ?OnMouseMove@CGfxOutBarCtrl@@IAEXIVCPoint@@@Z 1004f900 f   GfxOutBarCtrl.obj
 0001:0004e910       ?OnPaint@CGfxOutBarCtrl@@IAEXXZ 1004f910 f   GfxOutBarCtrl.obj
 0001:0004edb0       ?OnRButtonDown@CWnd@@IAEXIVCPoint@@@Z 1004fdb0 f i GfxOutBarCtrl.obj
 0001:0004edc0       ?OnSetCursor@CGfxOutBarCtrl@@IAEHPAVCWnd@@II@Z 1004fdc0 f   GfxOutBarCtrl.obj
 0001:0004ee30       ?OnSize@CGfxOutBarCtrl@@IAEXIHH@Z 1004fe30 f   GfxOutBarCtrl.obj
 0001:0004ef10       ?OnTimer@CGfxOutBarCtrl@@IAEXI@Z 1004ff10 f   GfxOutBarCtrl.obj
 0001:0004f050       ?OnUpdateGfxLargeicon@CGfxOutBarCtrl@@IAEXPAVCCmdUI@@@Z 10050050 f   GfxOutBarCtrl.obj
 0001:0004f070       ?OnUpdateGfxRemoveitem@CGfxOutBarCtrl@@IAEXPAVCCmdUI@@@Z 10050070 f   GfxOutBarCtrl.obj
 0001:0004f080       ?OnUpdateGfxRenameitem@CGfxOutBarCtrl@@IAEXPAVCCmdUI@@@Z 10050080 f   GfxOutBarCtrl.obj
 0001:0004f090       ?OnUpdateGfxSmallicon@CGfxOutBarCtrl@@IAEXPAVCCmdUI@@@Z 10050090 f   GfxOutBarCtrl.obj
 0001:0004f0b0       ?PaintItems@CGfxOutBarCtrl@@QAEXPAVCDC@@HVCRect@@@Z 100500b0 f   GfxOutBarCtrl.obj
 0001:0004f1f0       ?RemoveFolder@CGfxOutBarCtrl@@QAEXH@Z 100501f0 f   GfxOutBarCtrl.obj
 0001:0004f270       ?RemoveItem@CGfxOutBarCtrl@@QAEXH@Z 10050270 f   GfxOutBarCtrl.obj
 0001:0004f340       ?SetAnimSelHighlight@CGfxOutBarCtrl@@QAEXH@Z 10050340 f   GfxOutBarCtrl.obj
 0001:0004f380       ?SetBackColor@CGfxOutBarCtrl@@QAEXHKKKK@Z 10050380 f   GfxOutBarCtrl.obj
 0001:0004f3b0       ?SetFolderImageList@CGfxOutBarCtrl@@QAEPAVCImageList@@HPAV2@H@Z 100503b0 f   GfxOutBarCtrl.obj
 0001:0004f410       ?SetFolderImageList@CGfxOutBarCtrl@@QAEXPAVCImageList@@HHH@Z 10050410 f   GfxOutBarCtrl.obj
 0001:0004f440       ?SetFolderText@CGfxOutBarCtrl@@QAEXHPBD@Z 10050440 f   GfxOutBarCtrl.obj
 0001:0004f4a0       ?SetImageList@CGfxOutBarCtrl@@QAEPAVCImageList@@PAV2@H@Z 100504a0 f   GfxOutBarCtrl.obj
 0001:0004f4f0       ?SetItemData@CGfxOutBarCtrl@@QAEXHK@Z 100504f0 f   GfxOutBarCtrl.obj
 0001:0004f530       ?SetItemImage@CGfxOutBarCtrl@@QAEXHH@Z 10050530 f   GfxOutBarCtrl.obj
 0001:0004f570       ?SetItemText@CGfxOutBarCtrl@@QAEXHPBD@Z 10050570 f   GfxOutBarCtrl.obj
 0001:0004f5e0       ?SetSelFolder@CGfxOutBarCtrl@@QAEXH@Z 100505e0 f   GfxOutBarCtrl.obj
 0001:0004f770       ?SetSmallIconView@CGfxOutBarCtrl@@QAEX_N@Z 10050770 f   GfxOutBarCtrl.obj
 0001:0004f810       ?_GetBaseClass@CGfxOutBarCtrl@@KGPAUCRuntimeClass@@XZ 10050810 f   GfxOutBarCtrl.obj
 0001:0004f820       ??0CNsyButtonListCtrl@@QAE@XZ 10050820 f   NsyButtonListCtrl.obj
 0001:0004f8e0       ??1CNsyButtonListCtrl@@UAE@XZ 100508e0 f   NsyButtonListCtrl.obj
 0001:0004f920       ??_ECNsyButtonListCtrl@@UAEPAXI@Z 10050920 f i NsyButtonListCtrl.obj
 0001:0004f920       ??_GCNsyButtonListCtrl@@UAEPAXI@Z 10050920 f i NsyButtonListCtrl.obj
 0001:0004f990       ?ClearArrayBtnWnd@CNsyButtonListCtrl@@QAEXXZ 10050990 f   NsyButtonListCtrl.obj
 0001:0004fa10       ?DeleteChartData@CNsyButtonListCtrl@@QAEXH@Z 10050a10 f   NsyButtonListCtrl.obj
 0001:0004fa20       ?DeleteOneItem@CNsyButtonListCtrl@@QAEXXZ 10050a20 f   NsyButtonListCtrl.obj
 0001:0004fba0       ?DeleteSelectItem@CNsyButtonListCtrl@@QAEXH@Z 10050ba0 f   NsyButtonListCtrl.obj
 0001:0004fce0       ?GetMessageMap@CNsyButtonListCtrl@@MBEPBUAFX_MSGMAP@@XZ 10050ce0 f   NsyButtonListCtrl.obj
 0001:0004fcf0       ?GetThisMessageMap@CNsyButtonListCtrl@@KGPBUAFX_MSGMAP@@XZ 10050cf0 f   NsyButtonListCtrl.obj
 0001:0004fd00       ?Init@CNsyButtonListCtrl@@QAEXXZ 10050d00 f   NsyButtonListCtrl.obj
 0001:0004fea0       ?Init_CompareChart@CNsyButtonListCtrl@@QAEXXZ 10050ea0 f   NsyButtonListCtrl.obj
 0001:0004ffd0       ?OnDestroy@CNsyButtonListCtrl@@IAEXXZ 10050fd0 f   NsyButtonListCtrl.obj
 0001:0004ffe0       ?OnSize@CNsyButtonListCtrl@@IAEXIHH@Z 10050fe0 f   NsyButtonListCtrl.obj
 0001:000500c0       ?RemoveOnlyList@CNsyButtonListCtrl@@QAEXH@Z 100510c0 f   NsyButtonListCtrl.obj
 0001:000500e0       ?SendToChartRemoveGraph@CNsyButtonListCtrl@@QAEXH@Z 100510e0 f   NsyButtonListCtrl.obj
 0001:00050280       ?SetItemButton@CNsyButtonListCtrl@@QAEXHV?$CStringT@DV?$StrTraitMFC_DLL@DV?$ChTraitsCRT@D@ATL@@@@@ATL@@H@Z 10051280 f   NsyButtonListCtrl.obj
 0001:00050510       ?SetItemButtonVisible@CNsyButtonListCtrl@@QAEXHH@Z 10051510 f   NsyButtonListCtrl.obj
 0001:00050570       ?WindowProc@CNsyButtonListCtrl@@MAEJIIJ@Z 10051570 f   NsyButtonListCtrl.obj
 0001:00050740       ??0CPopUpMenu@@QAE@XZ      10051740 f   PopupMenu.obj
 0001:00050830       ??1CPopUpMenu@@UAE@XZ      10051830 f   PopupMenu.obj
 0001:000508c0       ??_GCPopUpMenu@@UAEPAXI@Z  100518c0 f i PopupMenu.obj
 0001:000508c0       ??_ECPopUpMenu@@UAEPAXI@Z  100518c0 f i PopupMenu.obj
 0001:00050990       ?AddBmpCool@CPopUpMenu@@QAEXH@Z 10051990 f   PopupMenu.obj
 0001:000509d0       ?AddBmpHot@CPopUpMenu@@QAEXH@Z 100519d0 f   PopupMenu.obj
 0001:00050a10       ?DrawItem@CPopUpMenu@@UAEXPAUtagDRAWITEMSTRUCT@@@Z 10051a10 f   PopupMenu.obj
 0001:00050c50       ?MeasureItem@CPopUpMenu@@UAEXPAUtagMEASUREITEMSTRUCT@@@Z 10051c50 f   PopupMenu.obj
 0001:00050c80       ??0CRGBButton@@QAE@XZ      10051c80 f   RGBButton.obj
 0001:00050d30       ??1CRGBButton@@UAE@XZ      10051d30 f   RGBButton.obj
 0001:00050d60       ??_ECRGBButton@@UAEPAXI@Z  10051d60 f i RGBButton.obj
 0001:00050d60       ??_GCRGBButton@@UAEPAXI@Z  10051d60 f i RGBButton.obj
 0001:00050dc0       ?DrawButtonRect@CRGBButton@@QAEXPAVCDC@@VCRect@@I@Z 10051dc0 f   RGBButton.obj
 0001:00050ef0       ?DrawButtonText@CRGBButton@@QAEXPAVCDC@@VCRect@@I@Z 10051ef0 f   RGBButton.obj
 0001:00050f90       ?DrawItem@CRGBButton@@UAEXPAUtagDRAWITEMSTRUCT@@@Z 10051f90 f   RGBButton.obj
 0001:000511a0       ?GetMessageMap@CRGBButton@@MBEPBUAFX_MSGMAP@@XZ 100521a0 f   RGBButton.obj
 0001:000511b0       ?GetThisMessageMap@CRGBButton@@KGPBUAFX_MSGMAP@@XZ 100521b0 f   RGBButton.obj
 0001:000511c0       ?InitToolTip@CRGBButton@@QAEXXZ 100521c0 f   RGBButton.obj
 0001:00051210       ?OnMouseMove@CRGBButton@@IAEXIVCPoint@@@Z 10052210 f   RGBButton.obj
 0001:00051260       ?PreSubclassWindow@CRGBButton@@MAEXXZ 10052260 f   RGBButton.obj
 0001:00051280       ?PreTranslateMessage@CRGBButton@@UAEHPAUtagMSG@@@Z 10052280 f   RGBButton.obj
 0001:00051290       ?SetBackGroundColor@CRGBButton@@QAEXKK@Z 10052290 f   RGBButton.obj
 0001:000512b0       ?SetBorderColor@CRGBButton@@QAEXK@Z 100522b0 f   RGBButton.obj
 0001:000512c0       ?SetButtonText@CRGBButton@@QAEXPBD@Z 100522c0 f   RGBButton.obj
 0001:000512d0       ?SetTextColor@CRGBButton@@QAEXK@Z 100522d0 f   RGBButton.obj
 0001:000512e0       ?SetTooltipText@CRGBButton@@QAEXHH@Z 100522e0 f   RGBButton.obj
 0001:00051410       ?SetTooltipText@CRGBButton@@QAEXPBDH@Z 10052410 f   RGBButton.obj
 0001:000514f0       ??0CRscDlg@@QAE@IPAVCWnd@@@Z 100524f0 f   RscDlg.obj
 0001:00051540       ??_ECRscDlg@@UAEPAXI@Z     10052540 f i RscDlg.obj
 0001:00051540       ??_GCRscDlg@@UAEPAXI@Z     10052540 f i RscDlg.obj
 0001:00051590       ?ChangeSkinColor@CRscDlg@@UAEXK@Z 10052590 f   RscDlg.obj
 0001:000515e0       ?Create@CDialog@@UAEHIPAVCWnd@@@Z 100525e0 f i RscDlg.obj
 0001:000515f0       ?Create@CRscDlg@@UAEHIPAVCWnd@@@Z 100525f0 f   RscDlg.obj
 0001:00051630       ?DoDataExchange@CRscDlg@@MAEXPAVCDataExchange@@@Z 10052630 f   RscDlg.obj
 0001:00051640       ?DoModal@CRscDlg@@UAEHXZ   10052640 f   RscDlg.obj
 0001:00051680       ?GetMessageMap@CRscDlg@@MBEPBUAFX_MSGMAP@@XZ 10052680 f   RscDlg.obj
 0001:00051690       ?GetThisMessageMap@CRscDlg@@KGPBUAFX_MSGMAP@@XZ 10052690 f   RscDlg.obj
 0001:000516a0       ?OnCtlColor@CRscDlg@@IAEPAUHBRUSH__@@PAVCDC@@PAVCWnd@@I@Z 100526a0 f   RscDlg.obj
 0001:00051700       ?OnDestroy@CRscDlg@@IAEXXZ 10052700 f   RscDlg.obj
 0001:00051720       ?OnEraseBkgnd@CRscDlg@@IAEHPAVCDC@@@Z 10052720 f   RscDlg.obj
 0001:00051770       ?OnInitDialog@CRscDlg@@MAEHXZ 10052770 f   RscDlg.obj
 0001:000517a0       ?SetBkColor@CRscDlg@@UAEXK@Z 100527a0 f i RscDlg.obj
 0001:000517b0       ??$CompareElements@PAXPAX@@YGHPBQAX0@Z 100527b0 f i TreeCtrlEx.obj
 0001:000517e0       ??$SerializeElements@PAX@@YGXAAVCArchive@@PAPAXH@Z 100527e0 f i TreeCtrlEx.obj
 0001:00051890       ??$SerializeElements@UColor_Font@CTreeCtrlEx@@@@YGXAAVCArchive@@PAUColor_Font@CTreeCtrlEx@@H@Z 10052890 f i TreeCtrlEx.obj
 0001:00051930       ??0?$CMap@PAXPAXUColor_Font@CTreeCtrlEx@@AAU12@@@QAE@H@Z 10052930 f i TreeCtrlEx.obj
 0001:00051970       ??0CTreeCtrlEx@@QAE@XZ     10052970 f   TreeCtrlEx.obj
 0001:000519e0       ??1?$CMap@PAXPAXUColor_Font@CTreeCtrlEx@@AAU12@@@UAE@XZ 100529e0 f i TreeCtrlEx.obj
 0001:00051a60       ??1CTreeCtrlEx@@UAE@XZ     10052a60 f   TreeCtrlEx.obj
 0001:00051b00       ??A?$CMap@PAXPAXUColor_Font@CTreeCtrlEx@@AAU12@@@QAEAAUColor_Font@CTreeCtrlEx@@PAX@Z 10052b00 f i TreeCtrlEx.obj
 0001:00051c10       ??_E?$CMap@PAXPAXUColor_Font@CTreeCtrlEx@@AAU12@@@UAEPAXI@Z 10052c10 f i TreeCtrlEx.obj
 0001:00051c10       ??_G?$CMap@PAXPAXUColor_Font@CTreeCtrlEx@@AAU12@@@UAEPAXI@Z 10052c10 f i TreeCtrlEx.obj
 0001:00051cd0       ??_GCTreeCtrl@@UAEPAXI@Z   10052cd0 f i TreeCtrlEx.obj
 0001:00051cd0       ??_ECTreeCtrl@@UAEPAXI@Z   10052cd0 f i TreeCtrlEx.obj
 0001:00051d10       ??_ECTreeCtrlEx@@UAEPAXI@Z 10052d10 f i TreeCtrlEx.obj
 0001:00051d10       ??_GCTreeCtrlEx@@UAEPAXI@Z 10052d10 f i TreeCtrlEx.obj
 0001:00051df0       ?GetAssocAt@?$CMap@PAXPAXUColor_Font@CTreeCtrlEx@@AAU12@@@IBEPAVCAssoc@1@PAXAAI1@Z 10052df0 f i TreeCtrlEx.obj
 0001:00051e60       ?GetItemBold@CTreeCtrlEx@@QAEHPAU_TREEITEM@@@Z 10052e60 f   TreeCtrlEx.obj
 0001:00051e80       ?GetItemColor@CTreeCtrlEx@@QAEKPAU_TREEITEM@@@Z 10052e80 f   TreeCtrlEx.obj
 0001:00051ed0       ?GetItemFont@CTreeCtrlEx@@QAEHPAU_TREEITEM@@PAUtagLOGFONTA@@@Z 10052ed0 f   TreeCtrlEx.obj
 0001:00051f60       ?GetMessageMap@CTreeCtrlEx@@MBEPBUAFX_MSGMAP@@XZ 10052f60 f   TreeCtrlEx.obj
 0001:00051f70       ?GetRuntimeClass@CTreeCtrlEx@@UBEPAUCRuntimeClass@@XZ 10052f70 f   TreeCtrlEx.obj
 0001:00051f80       ?GetThisClass@CTreeCtrlEx@@SGPAUCRuntimeClass@@XZ 10052f80 f   TreeCtrlEx.obj
 0001:00051f90       ?GetThisMessageMap@CTreeCtrlEx@@KGPBUAFX_MSGMAP@@XZ 10052f90 f   TreeCtrlEx.obj
 0001:00051fa0       ?InitHashTable@?$CMap@PAXPAXUColor_Font@CTreeCtrlEx@@AAU12@@@QAEXIH@Z 10052fa0 f i TreeCtrlEx.obj
 0001:00052010       ?Lookup@?$CMap@PAXPAXUColor_Font@CTreeCtrlEx@@AAU12@@@QBEHPAXAAUColor_Font@CTreeCtrlEx@@@Z 10053010 f i TreeCtrlEx.obj
 0001:00052060       ?NewAssoc@?$CMap@PAXPAXUColor_Font@CTreeCtrlEx@@AAU12@@@IAEPAVCAssoc@1@PAX@Z 10053060 f i TreeCtrlEx.obj
 0001:000520e0       ?OnPaint@CTreeCtrlEx@@IAEXXZ 100530e0 f   TreeCtrlEx.obj
 0001:000526a0       ?RemoveAll@?$CMap@PAXPAXUColor_Font@CTreeCtrlEx@@AAU12@@@QAEXXZ 100536a0 f i TreeCtrlEx.obj
 0001:000526e0       ?Serialize@?$CMap@PAXPAXUColor_Font@CTreeCtrlEx@@AAU12@@@UAEXAAVCArchive@@@Z 100536e0 f i TreeCtrlEx.obj
 0001:00052a30       ?SetItemBold@CTreeCtrlEx@@QAEXPAU_TREEITEM@@H@Z 10053a30 f   TreeCtrlEx.obj
 0001:00052a60       ?SetItemColor@CTreeCtrlEx@@QAEXPAU_TREEITEM@@K@Z 10053a60 f   TreeCtrlEx.obj
 0001:00052b00       ?SetItemFont@CTreeCtrlEx@@QAEXPAU_TREEITEM@@AAUtagLOGFONTA@@@Z 10053b00 f   TreeCtrlEx.obj
 0001:00052bb0       ?_GetBaseClass@CTreeCtrlEx@@KGPAUCRuntimeClass@@XZ 10053bb0 f   TreeCtrlEx.obj
 0001:00052bc0       ??0CTrTreeCtrl@@QAE@XZ     10053bc0 f   TrTreeCtrl.obj
 0001:00052c00       ??1CTrTreeCtrl@@UAE@XZ     10053c00 f   TrTreeCtrl.obj
 0001:00052c10       ??_ECTrTreeCtrl@@UAEPAXI@Z 10053c10 f i TrTreeCtrl.obj
 0001:00052c10       ??_GCTrTreeCtrl@@UAEPAXI@Z 10053c10 f i TrTreeCtrl.obj
 0001:00052c60       ?Create@CTrTreeCtrl@@QAEHKABUtagRECT@@PAVCWnd@@I@Z 10053c60 f   TrTreeCtrl.obj
 0001:00052cb0       ?GetMessageMap@CTrTreeCtrl@@MBEPBUAFX_MSGMAP@@XZ 10053cb0 f   TrTreeCtrl.obj
 0001:00052cc0       ?GetThisMessageMap@CTrTreeCtrl@@KGPBUAFX_MSGMAP@@XZ 10053cc0 f   TrTreeCtrl.obj
 0001:00052cd0       ?GetTrString@CTrTreeCtrl@@QAE?AV?$CStringT@DV?$StrTraitMFC_DLL@DV?$ChTraitsCRT@D@ATL@@@@@ATL@@V23@@Z 10053cd0 f   TrTreeCtrl.obj
 0001:00052da0       ?OnBegindrag@CTrTreeCtrl@@IAEXPAUtagNMHDR@@PAJ@Z 10053da0 f   TrTreeCtrl.obj
 0001:00052dd0       ?OnClick@CTrTreeCtrl@@IAEXPAUtagNMHDR@@PAJ@Z 10053dd0 f   TrTreeCtrl.obj
 0001:00052e40       ?OnDblclk@CTrTreeCtrl@@IAEXPAUtagNMHDR@@PAJ@Z 10053e40 f   TrTreeCtrl.obj
 0001:00052f00       ?OnLButtonDown@CTrTreeCtrl@@IAEXIVCPoint@@@Z 10053f00 f   TrTreeCtrl.obj
 0001:00052f40       ?OnLButtonUp@CTrTreeCtrl@@IAEXIVCPoint@@@Z 10053f40 f   TrTreeCtrl.obj
 0001:00053140       ?OnMouseMove@CTrTreeCtrl@@IAEXIVCPoint@@@Z 10054140 f   TrTreeCtrl.obj
 0001:000531c0       ?OnRButtonDown@CTrTreeCtrl@@IAEXIVCPoint@@@Z 100541c0 f   TrTreeCtrl.obj
 0001:00053290       ?OnSelchanged@CTrTreeCtrl@@IAEXPAUtagNMHDR@@PAJ@Z 10054290 f   TrTreeCtrl.obj
 0001:00053340       ??$SerializeElements@PAU__MASTERCODE@@@@YGXAAVCArchive@@PAPAU__MASTERCODE@@H@Z 10054340 f i VirtualListCtrl.obj
 0001:000533f0       ??0?$CArray@PAU__MASTERCODE@@PAU1@@@QAE@XZ 100543f0 f i VirtualListCtrl.obj
 0001:00053420       ??0CVirtualListCtrl@@QAE@XZ 10054420 f   VirtualListCtrl.obj
 0001:000535f0       ??0__MASTERCODE@@QAE@XZ    100545f0 f i VirtualListCtrl.obj
 0001:00053610       ??1?$CArray@PAU__MASTERCODE@@PAU1@@@UAE@XZ 10054610 f i VirtualListCtrl.obj
 0001:00053630       ??1CSortStringArray@@UAE@XZ 10054630 f i VirtualListCtrl.obj
 0001:00053640       ??1CVirtualListCtrl@@UAE@XZ 10054640 f   VirtualListCtrl.obj
 0001:00053720       ??1__MASTERCODE@@QAE@XZ    10054720 f i VirtualListCtrl.obj
 0001:00053740       ??_E__MASTERCODE@@QAEPAXI@Z 10054740 f i VirtualListCtrl.obj
 0001:00053800       ??_E?$CArray@PAU__MASTERCODE@@PAU1@@@UAEPAXI@Z 10054800 f i VirtualListCtrl.obj
 0001:00053800       ??_G?$CArray@PAU__MASTERCODE@@PAU1@@@UAEPAXI@Z 10054800 f i VirtualListCtrl.obj
 0001:00053850       ??_GCListCtrl@@UAEPAXI@Z   10054850 f i VirtualListCtrl.obj
 0001:00053850       ??_ECListCtrl@@UAEPAXI@Z   10054850 f i VirtualListCtrl.obj
 0001:00053890       ??_GCSortStringArray@@UAEPAXI@Z 10054890 f i VirtualListCtrl.obj
 0001:00053890       ??_ECSortStringArray@@UAEPAXI@Z 10054890 f i VirtualListCtrl.obj
 0001:000538d0       ??_ECVirtualListCtrl@@UAEPAXI@Z 100548d0 f i VirtualListCtrl.obj
 0001:000538d0       ??_GCVirtualListCtrl@@UAEPAXI@Z 100548d0 f i VirtualListCtrl.obj
 0001:000539e0       ?ChangeCode@CVirtualListCtrl@@QAEXV?$CStringT@DV?$StrTraitMFC_DLL@DV?$ChTraitsCRT@D@ATL@@@@@ATL@@@Z 100549e0 f   VirtualListCtrl.obj
 0001:00053d90       ?Compare@@YAHPBX0@Z        10054d90 f   VirtualListCtrl.obj
 0001:00053eb0       ?FindItemByString@CVirtualListCtrl@@QAEHHV?$CStringT@DV?$StrTraitMFC_DLL@DV?$ChTraitsCRT@D@ATL@@@@@ATL@@@Z 10054eb0 f   VirtualListCtrl.obj
 0001:00053fc0       ?GetMessageMap@CVirtualListCtrl@@MBEPBUAFX_MSGMAP@@XZ 10054fc0 f   VirtualListCtrl.obj
 0001:00053fd0       ?GetThisMessageMap@CVirtualListCtrl@@KGPBUAFX_MSGMAP@@XZ 10054fd0 f   VirtualListCtrl.obj
 0001:00053fe0       ?Init_ListCtrl@CVirtualListCtrl@@QAEXXZ 10054fe0 f   VirtualListCtrl.obj
 0001:000540d0       ?LoadCodeList@CVirtualListCtrl@@QAEXH@Z 100550d0 f   VirtualListCtrl.obj
 0001:000541a0       ?Load_GwanSim_CodeList@CVirtualListCtrl@@QAEXPAVCStringArray@@@Z 100551a0 f   VirtualListCtrl.obj
 0001:000541b0       ?OnColumnclick@CVirtualListCtrl@@IAEXPAUtagNMHDR@@PAJ@Z 100551b0 f   VirtualListCtrl.obj
 0001:00054210       ?OnDblclk@CVirtualListCtrl@@IAEXPAUtagNMHDR@@PAJ@Z 10055210 f   VirtualListCtrl.obj
 0001:000543a0       ?OnDestroy@CVirtualListCtrl@@IAEXXZ 100553a0 f   VirtualListCtrl.obj
 0001:00054480       ?OnGetdispinfo@CVirtualListCtrl@@IAEXPAUtagNMHDR@@PAJ@Z 10055480 f   VirtualListCtrl.obj
 0001:00054570       ?OnItemchanged@CVirtualListCtrl@@IAEXPAUtagNMHDR@@PAJ@Z 10055570 f   VirtualListCtrl.obj
 0001:000546e0       ?OnSize@CVirtualListCtrl@@IAEXIHH@Z 100556e0 f   VirtualListCtrl.obj
 0001:00054750       ?PreTranslateMessage@CVirtualListCtrl@@UAEHPAUtagMSG@@@Z 10055750 f   VirtualListCtrl.obj
 0001:00054760       ?Serialize@?$CArray@PAU__MASTERCODE@@PAU1@@@UAEXAAVCArchive@@@Z 10055760 f i VirtualListCtrl.obj
 0001:00054840       ?SetAtGrow@?$CArray@PAU__MASTERCODE@@PAU1@@@QAEXHPAU__MASTERCODE@@@Z 10055840 f i VirtualListCtrl.obj
 0001:00054880       ?SetMasterArray@CVirtualListCtrl@@QAEXXZ 10055880 f   VirtualListCtrl.obj
 0001:000548e0       ?SetRowHeight@CVirtualListCtrl@@QAEXF@Z 100558e0 f   VirtualListCtrl.obj
 0001:00054930       ?SetSize@?$CArray@PAU__MASTERCODE@@PAU1@@@QAEXHH@Z 10055930 f i VirtualListCtrl.obj
 0001:00054af0       ?SetTopIndex@CVirtualListCtrl@@QAEXH@Z 10055af0 f   VirtualListCtrl.obj
 0001:00054be0       ?SortArray@@YAXAAV?$CArray@PAU__MASTERCODE@@PAU1@@@@Z 10055be0 f   VirtualListCtrl.obj
 0001:00054e40       ??0CXComboList@@QAE@PAVCWnd@@@Z 10055e40 f   XComboList.obj
 0001:00054ee0       ??1CXComboList@@UAE@XZ     10055ee0 f   XComboList.obj
 0001:00054f10       ??_ECListBox@@UAEPAXI@Z    10055f10 f i XComboList.obj
 0001:00054f10       ??_GCListBox@@UAEPAXI@Z    10055f10 f i XComboList.obj
 0001:00054f50       ??_GCScrollBar@@UAEPAXI@Z  10055f50 f i XComboList.obj
 0001:00054f50       ??_ECScrollBar@@UAEPAXI@Z  10055f50 f i XComboList.obj
 0001:00054f90       ??_ECXComboList@@UAEPAXI@Z 10055f90 f i XComboList.obj
 0001:00054f90       ??_GCXComboList@@UAEPAXI@Z 10055f90 f i XComboList.obj
 0001:00054ff0       ?GetMessageMap@CXComboList@@MBEPBUAFX_MSGMAP@@XZ 10055ff0 f   XComboList.obj
 0001:00055000       ?GetScrollBarCtrl@CXComboList@@UAEPAVCScrollBar@@H@Z 10056000 f   XComboList.obj
 0001:00055010       ?GetThisMessageMap@CXComboList@@KGPBUAFX_MSGMAP@@XZ 10056010 f   XComboList.obj
 0001:00055020       ?OnCreate@CXComboList@@IAEHPAUtagCREATESTRUCTA@@@Z 10056020 f   XComboList.obj
 0001:00055100       ?OnDestroy@CXComboList@@IAEXXZ 10056100 f   XComboList.obj
 0001:00055140       ?OnKillFocus@CXComboList@@IAEXPAVCWnd@@@Z 10056140 f   XComboList.obj
 0001:00055180       ?OnLButtonDown@CXComboList@@IAEXIVCPoint@@@Z 10056180 f   XComboList.obj
 0001:000551b0       ?OnTimer@CXComboList@@IAEXI@Z 100561b0 f   XComboList.obj
 0001:00055260       ?OnVScroll@CXComboList@@IAEXIIPAVCScrollBar@@@Z 10056260 f   XComboList.obj
 0001:00055370       ?PreTranslateMessage@CXComboList@@UAEHPAUtagMSG@@@Z 10056370 f   XComboList.obj
 0001:00055610       ?SendRegisteredMessage@CXComboList@@IAEXIIJ@Z 10056610 f   XComboList.obj
 0001:00055640       ?SetActive@CXComboList@@QAEXH@Z 10056640 f   XComboList.obj
 0001:00055850       ??0CXEdit@@QAE@XZ          10056850 f   XEdit.obj
 0001:00055870       ??1CXEdit@@UAE@XZ          10056870 f   XEdit.obj
 0001:00055880       ??_GCXEdit@@UAEPAXI@Z      10056880 f i XEdit.obj
 0001:00055880       ??_ECXEdit@@UAEPAXI@Z      10056880 f i XEdit.obj
 0001:000558d0       ?GetMessageMap@CXEdit@@MBEPBUAFX_MSGMAP@@XZ 100568d0 f   XEdit.obj
 0001:000558e0       ?GetThisMessageMap@CXEdit@@KGPBUAFX_MSGMAP@@XZ 100568e0 f   XEdit.obj
 0001:000558f0       ?OnKeyDown@CXEdit@@IAEXIII@Z 100568f0 f   XEdit.obj
 0001:000559d0       ??0CXHeaderCtrl@@QAE@XZ    100569d0 f   XHeaderCtrl.obj
 0001:00055ab0       ??1CMemDC@@UAE@XZ          10056ab0 f i XHeaderCtrl.obj
 0001:00055b80       ??1CXHeaderCtrl@@UAE@XZ    10056b80 f   XHeaderCtrl.obj
 0001:00055bb0       ??_ECHeaderCtrl@@UAEPAXI@Z 10056bb0 f i XHeaderCtrl.obj
 0001:00055bb0       ??_GCHeaderCtrl@@UAEPAXI@Z 10056bb0 f i XHeaderCtrl.obj
 0001:00055bf0       ??_ECMemDC@@UAEPAXI@Z      10056bf0 f i XHeaderCtrl.obj
 0001:00055bf0       ??_GCMemDC@@UAEPAXI@Z      10056bf0 f i XHeaderCtrl.obj
 0001:00055c30       ??_ECXHeaderCtrl@@UAEPAXI@Z 10056c30 f i XHeaderCtrl.obj
 0001:00055c30       ??_GCXHeaderCtrl@@UAEPAXI@Z 10056c30 f i XHeaderCtrl.obj
 0001:00055c90       ?CreateObject@CXHeaderCtrl@@SGPAVCObject@@XZ 10056c90 f   XHeaderCtrl.obj
 0001:00055dd0       ?DrawBitmap@CXHeaderCtrl@@IAEHPAVCDC@@VCRect@@PAU_HD_ITEMA@@PAVCBitmap@@PAUtagBITMAP@@H@Z 10056dd0 f   XHeaderCtrl.obj
 0001:00055f10       ?DrawCtrl@CXHeaderCtrl@@IAEXPAVCDC@@@Z 10056f10 f   XHeaderCtrl.obj
 0001:00056500       ?DrawImage@CXHeaderCtrl@@IAEHPAVCDC@@VCRect@@PAU_HD_ITEMA@@H@Z 10057500 f   XHeaderCtrl.obj
 0001:00056620       ?DrawItem@CXHeaderCtrl@@UAEXPAUtagDRAWITEMSTRUCT@@@Z 10057620 f   XHeaderCtrl.obj
 0001:00056630       ?DrawItem@CXHeaderCtrl@@UAEXPAVCDC@@VCRect@@PAU_HD_ITEMA@@@Z 10057630 f   XHeaderCtrl.obj
 0001:00056920       ?DrawTextA@CXHeaderCtrl@@IAEHPAVCDC@@VCRect@@PAU_HD_ITEMA@@@Z 10057920 f   XHeaderCtrl.obj
 0001:000569e0       ?GetMessageMap@CXHeaderCtrl@@MBEPBUAFX_MSGMAP@@XZ 100579e0 f   XHeaderCtrl.obj
 0001:000569f0       ?GetRuntimeClass@CXHeaderCtrl@@UBEPAUCRuntimeClass@@XZ 100579f0 f   XHeaderCtrl.obj
 0001:00056a00       ?GetThisClass@CXHeaderCtrl@@SGPAUCRuntimeClass@@XZ 10057a00 f   XHeaderCtrl.obj
 0001:00056a10       ?GetThisMessageMap@CXHeaderCtrl@@KGPBUAFX_MSGMAP@@XZ 10057a10 f   XHeaderCtrl.obj
 0001:00056a20       ?ModifyProperty@CXHeaderCtrl@@QAEHIJ@Z 10057a20 f   XHeaderCtrl.obj
 0001:00056aa0       ?OnCreate@CXHeaderCtrl@@IAEHPAUtagCREATESTRUCTA@@@Z 10057aa0 f   XHeaderCtrl.obj
 0001:00056b50       ?OnDeleteItem@CXHeaderCtrl@@IAEJIJ@Z 10057b50 f   XHeaderCtrl.obj
 0001:00056b60       ?OnDestroy@CXHeaderCtrl@@IAEXXZ 10057b60 f   XHeaderCtrl.obj
 0001:00056b80       ?OnEraseBkgnd@CXHeaderCtrl@@IAEHPAVCDC@@@Z 10057b80 f   XHeaderCtrl.obj
 0001:00056b90       ?OnInsertItem@CXHeaderCtrl@@IAEJIJ@Z 10057b90 f   XHeaderCtrl.obj
 0001:00056ba0       ?OnLayout@CXHeaderCtrl@@IAEJIJ@Z 10057ba0 f   XHeaderCtrl.obj
 0001:00056be0       ?OnPaint@CXHeaderCtrl@@IAEXXZ 10057be0 f   XHeaderCtrl.obj
 0001:00056d50       ?OnSetImageList@CXHeaderCtrl@@IAEJIJ@Z 10057d50 f   XHeaderCtrl.obj
 0001:00056db0       ?OnSysColorChange@CXHeaderCtrl@@IAEXXZ 10057db0 f   XHeaderCtrl.obj
 0001:00056df0       ?SetSortImage@CXHeaderCtrl@@QAEXHH@Z 10057df0 f   XHeaderCtrl.obj
 0001:00056e10       ?_GetBaseClass@CXHeaderCtrl@@KGPAUCRuntimeClass@@XZ 10057e10 f   XHeaderCtrl.obj
 0001:00056e20       ??0CXListCtrl@@QAE@XZ      10057e20 f   XListCtrl.obj
 0001:00057000       ??0XLISTCTRLDATA@@QAE@XZ   10058000 f i XListCtrl.obj
 0001:00057100       ??1CXListCtrl@@UAE@XZ      10058100 f   XListCtrl.obj
 0001:00057180       ??1XLISTCTRLDATA@@QAE@XZ   10058180 f i XListCtrl.obj
 0001:00057196       ??_9CXListCtrl@@$BBHE@AE   10058196 f i XListCtrl.obj
 0001:000571a0       ??_EXLISTCTRLDATA@@QAEPAXI@Z 100581a0 f i XListCtrl.obj
 0001:00057260       ??_ECXListCtrl@@UAEPAXI@Z  10058260 f i XListCtrl.obj
 0001:00057260       ??_GCXListCtrl@@UAEPAXI@Z  10058260 f i XListCtrl.obj
 0001:00057310       ?CountCheckedItems@CXListCtrl@@QAEHH@Z 10058310 f   XListCtrl.obj
 0001:000573b0       ?DeleteAllItems@CXListCtrl@@QAEHXZ 100583b0 f   XListCtrl.obj
 0001:00057490       ?DeleteAllToolTips@CXListCtrl@@QAEXXZ 10058490 f   XListCtrl.obj
 0001:00057530       ?DeleteItem@CXListCtrl@@QAEHH@Z 10058530 f   XListCtrl.obj
 0001:00057580       ?DeleteProgress@CXListCtrl@@QAEXHH@Z 10058580 f   XListCtrl.obj
 0001:00057600       ?DrawCheckbox@CXListCtrl@@IAEXHHPAVCDC@@KKAAVCRect@@PAUXLISTCTRLDATA@@@Z 10058600 f   XListCtrl.obj
 0001:000578a0       ?DrawImage@CXListCtrl@@IAEHHHPAVCDC@@KKVCRect@@PAUXLISTCTRLDATA@@@Z 100588a0 f   XListCtrl.obj
 0001:00057a40       ?DrawProgress@CXListCtrl@@IAEXHHPAVCDC@@KKAAVCRect@@PAUXLISTCTRLDATA@@@Z 10058a40 f   XListCtrl.obj
 0001:00057df0       ?DrawTextA@CXListCtrl@@IAEXHHPAVCDC@@KKAAVCRect@@PAUXLISTCTRLDATA@@@Z 10058df0 f   XListCtrl.obj
 0001:00057fd0       ?GetBold@CXListCtrl@@QAEHHH@Z 10058fd0 f   XListCtrl.obj
 0001:00058030       ?GetCheckbox@CXListCtrl@@QAEHHH@Z 10059030 f   XListCtrl.obj
 0001:00058090       ?GetColumns@CXListCtrl@@QAEHXZ 10059090 f   XListCtrl.obj
 0001:000580b0       ?GetComboText@CXListCtrl@@QAE?AV?$CStringT@DV?$StrTraitMFC_DLL@DV?$ChTraitsCRT@D@ATL@@@@@ATL@@HH@Z 100590b0 f   XListCtrl.obj
 0001:000581b0       ?GetCurSel@CXListCtrl@@QAEHXZ 100591b0 f   XListCtrl.obj
 0001:000581f0       ?GetDrawColors@CXListCtrl@@MAEXHHAAK0@Z 100591f0 f   XListCtrl.obj
 0001:00058320       ?GetEnabled@CXListCtrl@@QAEHH@Z 10059320 f   XListCtrl.obj
 0001:00058350       ?GetHeaderCheckedState@CXListCtrl@@QAEHH@Z 10059350 f   XListCtrl.obj
 0001:000583b0       ?GetItemData@CXListCtrl@@QAEKH@Z 100593b0 f   XListCtrl.obj
 0001:00058400       ?GetItemListCtrlData@CXListCtrl@@QAEPAUXLISTCTRLDATA@@H@Z 10059400 f   XListCtrl.obj
 0001:00058430       ?GetItemToolTipText@CXListCtrl@@QAE?AV?$CStringT@DV?$StrTraitMFC_DLL@DV?$ChTraitsCRT@D@ATL@@@@@ATL@@HH@Z 10059430 f   XListCtrl.obj
 0001:00058510       ?GetMessageMap@CXListCtrl@@MBEPBUAFX_MSGMAP@@XZ 10059510 f   XListCtrl.obj
 0001:00058520       ?GetSubItemRect@CXListCtrl@@QAEHHHHAAVCRect@@@Z 10059520 f   XListCtrl.obj
 0001:000585e0       ?GetThisMessageMap@CXListCtrl@@KGPBUAFX_MSGMAP@@XZ 100595e0 f   XListCtrl.obj
 0001:000585f0       ?InsertItem@CXListCtrl@@QAEHHPBD@Z 100595f0 f   XListCtrl.obj
 0001:00058750       ?InsertItem@CXListCtrl@@QAEHHPBDKK@Z 10059750 f   XListCtrl.obj
 0001:000588a0       ?OnClick@CXListCtrl@@IAEHPAUtagNMHDR@@PAJ@Z 100598a0 f   XListCtrl.obj
 0001:000588c0       ?OnColumnClick@CXListCtrl@@IAEHPAUtagNMHDR@@PAJ@Z 100598c0 f   XListCtrl.obj
 0001:00058a30       ?OnCreate@CXListCtrl@@IAEHPAUtagCREATESTRUCTA@@@Z 10059a30 f   XListCtrl.obj
 0001:00058a50       ?OnCustomDraw@CXListCtrl@@IAEXPAUtagNMHDR@@PAJ@Z 10059a50 f   XListCtrl.obj
 0001:00058d70       ?OnDblclk@CXListCtrl@@IAEHPAUtagNMHDR@@PAJ@Z 10059d70 f   XListCtrl.obj
 0001:00058f50       ?OnDestroy@CXListCtrl@@IAEXXZ 10059f50 f   XListCtrl.obj
 0001:00059040       ?OnEditReturn@CXListCtrl@@IAEJIJ@Z 1005a040 f   XListCtrl.obj
 0001:00059130       ?OnEraseBkgnd@CXListCtrl@@IAEHPAVCDC@@@Z 1005a130 f   XListCtrl.obj
 0001:00059280       ?OnLButtonDown@CXListCtrl@@IAEXIVCPoint@@@Z 1005a280 f   XListCtrl.obj
 0001:00059500       ?OnPaint@CXListCtrl@@IAEXXZ 1005a500 f   XListCtrl.obj
 0001:00059760       ?OnRButtonDown@CXListCtrl@@IAEXIVCPoint@@@Z 1005a760 f   XListCtrl.obj
 0001:000599e0       ?OnSysColorChange@CXListCtrl@@IAEXXZ 1005a9e0 f   XListCtrl.obj
 0001:00059a80       ?OnToolHitTest@CXListCtrl@@UBEHVCPoint@@PAUtagTOOLINFOA@@@Z 1005aa80 f   XListCtrl.obj
 0001:00059b20       ?OnToolTipText@CXListCtrl@@MAEHIPAUtagNMHDR@@PAJ@Z 1005ab20 f   XListCtrl.obj
 0001:00059c90       ?PreSubclassWindow@CXListCtrl@@UAEXXZ 1005ac90 f   XListCtrl.obj
 0001:00059ca0       ?SetBold@CXListCtrl@@QAEHHHH@Z 1005aca0 f   XListCtrl.obj
 0001:00059d10       ?SetCheckbox@CXListCtrl@@QAEHHHHH@Z 1005ad10 f   XListCtrl.obj
 0001:00059de0       ?SetComboBox@CXListCtrl@@QAEHHHHPAVCStringArray@@HH@Z 1005ade0 f   XListCtrl.obj
 0001:00059f40       ?SetCurSel@CXListCtrl@@QAEHHH@Z 1005af40 f   XListCtrl.obj
 0001:00059f70       ?SetEditBox@CXListCtrl@@QAEHHHH@Z 1005af70 f   XListCtrl.obj
 0001:00059ff0       ?SetEnabled@CXListCtrl@@QAEHHH@Z 1005aff0 f   XListCtrl.obj
 0001:0005a080       ?SetHeaderCheckedState@CXListCtrl@@QAEHHH@Z 1005b080 f   XListCtrl.obj
 0001:0005a0f0       ?SetItem@CXListCtrl@@QAEHPBUtagLVITEMA@@@Z 1005b0f0 f   XListCtrl.obj
 0001:0005a170       ?SetItemData@CXListCtrl@@QAEHHK@Z 1005b170 f   XListCtrl.obj
 0001:0005a1b0       ?SetItemImage@CXListCtrl@@QAEHHHH@Z 1005b1b0 f   XListCtrl.obj
 0001:0005a230       ?SetItemText@CXListCtrl@@QAEHHHPBD@Z 1005b230 f   XListCtrl.obj
 0001:0005a290       ?SetItemText@CXListCtrl@@QAEHHHPBDKKH@Z 1005b290 f   XListCtrl.obj
 0001:0005a330       ?SetItemToolTipText@CXListCtrl@@QAEHHHPBD@Z 1005b330 f   XListCtrl.obj
 0001:0005a3b0       ?SetProgress@CXListCtrl@@QAEHHHHPBD@Z 1005b3b0 f   XListCtrl.obj
 0001:0005a460       ?SetRowHeight@CXListCtrl@@QAEXF@Z 1005b460 f   XListCtrl.obj
 0001:0005a4b0       ?SetSortImage@CXListCtrl@@QAEXHH@Z 1005b4b0 f   XListCtrl.obj
 0001:0005a500       ?SubclassHeaderControl@CXListCtrl@@IAEXXZ 1005b500 f   XListCtrl.obj
 0001:0005a570       ?UpdateProgress@CXListCtrl@@QAEXHHH@Z 1005b570 f   XListCtrl.obj
 0001:0005a5e0       ?UpdateSubItem@CXListCtrl@@QAEXHH@Z 1005b5e0 f   XListCtrl.obj
 0001:0005a660       ??0CxSkinButton@@QAE@XZ    1005b660 f   xSkinButton.obj
 0001:0005a770       ??1CxSkinButton@@UAE@XZ    1005b770 f   xSkinButton.obj
 0001:0005a810       ??_GCxSkinButton@@UAEPAXI@Z 1005b810 f i xSkinButton.obj
 0001:0005a810       ??_ECxSkinButton@@UAEPAXI@Z 1005b810 f i xSkinButton.obj
 0001:0005a8e0       ?CreateRgnFromBitmap@CxSkinButton@@IAEPAUHRGN__@@PAUHBITMAP__@@K@Z 1005b8e0 f   xSkinButton.obj
 0001:0005ab90       ?DrawBitmap@CxSkinButton@@IAEXPAVCDC@@PAUHBITMAP__@@UtagRECT@@H@Z 1005bb90 f   xSkinButton.obj
 0001:0005afb0       ?DrawItem@CxSkinButton@@UAEXPAUtagDRAWITEMSTRUCT@@@Z 1005bfb0 f   xSkinButton.obj
 0001:0005b340       ?FillWithBitmap@CxSkinButton@@IAEXPAVCDC@@PAUHBITMAP__@@UtagRECT@@@Z 1005c340 f   xSkinButton.obj
 0001:0005b470       ?GetBitmapHeight@CxSkinButton@@IAEHPAUHBITMAP__@@@Z 1005c470 f   xSkinButton.obj
 0001:0005b490       ?GetBitmapWidth@CxSkinButton@@IAEHPAUHBITMAP__@@@Z 1005c490 f   xSkinButton.obj
 0001:0005b4b0       ?GetMessageMap@CxSkinButton@@MBEPBUAFX_MSGMAP@@XZ 1005c4b0 f   xSkinButton.obj
 0001:0005b4c0       ?GetThisMessageMap@CxSkinButton@@KGPBUAFX_MSGMAP@@XZ 1005c4c0 f   xSkinButton.obj
 0001:0005b4d0       ?OnBMGetCheck@CxSkinButton@@IAEJIJ@Z 1005c4d0 f   xSkinButton.obj
 0001:0005b4e0       ?OnBMSetCheck@CxSkinButton@@IAEJIJ@Z 1005c4e0 f   xSkinButton.obj
 0001:0005b590       ?OnClicked@CxSkinButton@@IAEHXZ 1005c590 f   xSkinButton.obj
 0001:0005b5b0       ?OnEraseBkgnd@CxSkinButton@@IAEHPAVCDC@@@Z 1005c5b0 f   xSkinButton.obj
 0001:0005b5c0       ?OnKeyDown@CxSkinButton@@IAEXIII@Z 1005c5c0 f   xSkinButton.obj
 0001:0005b620       ?OnKillFocus@CxSkinButton@@IAEXPAVCWnd@@@Z 1005c620 f   xSkinButton.obj
 0001:0005b650       ?OnLButtonDblClk@CxSkinButton@@IAEXIVCPoint@@@Z 1005c650 f   xSkinButton.obj
 0001:0005b680       ?OnLButtonDown@CxSkinButton@@IAEXIVCPoint@@@Z 1005c680 f   xSkinButton.obj
 0001:0005b730       ?OnLButtonUp@CxSkinButton@@IAEXIVCPoint@@@Z 1005c730 f   xSkinButton.obj
 0001:0005b820       ?OnMouseLeave@CxSkinButton@@IAEJIJ@Z 1005c820 f   xSkinButton.obj
 0001:0005b840       ?OnMouseMove@CxSkinButton@@IAEXIVCPoint@@@Z 1005c840 f   xSkinButton.obj
 0001:0005b960       ?OnRadioInfo@CxSkinButton@@IAEJIJ@Z 1005c960 f   xSkinButton.obj
 0001:0005b990       ?PreSubclassWindow@CxSkinButton@@MAEXXZ 1005c990 f   xSkinButton.obj
 0001:0005b9f0       ?RelayEvent@CxSkinButton@@IAEXIIJ@Z 1005c9f0 f   xSkinButton.obj
 0001:0005ba50       ?SetSkin@CxSkinButton@@QAEXIIIIIIFFF@Z 1005ca50 f   xSkinButton.obj
 0001:0005bc80       ?SetSkin@CxSkinButton@@QAEXV?$CStringT@DV?$StrTraitMFC_DLL@DV?$ChTraitsCRT@D@ATL@@@@@ATL@@00000FFF@Z 1005cc80 f   xSkinButton.obj
 0001:0005bf20       ?SetTextColor@CxSkinButton@@QAEKK@Z 1005cf20 f   xSkinButton.obj
 0001:0005bf40       ?SetToolTipText@CxSkinButton@@QAEXV?$CStringT@DV?$StrTraitMFC_DLL@DV?$ChTraitsCRT@D@ATL@@@@@ATL@@@Z 1005cf40 f   xSkinButton.obj
 0001:0005bff0       ??0CDataWindowDlg@@QAE@PAVCWnd@@@Z 1005cff0 f   DataWindowDlg.obj
 0001:0005c0a0       ??1CRscDlg@@UAE@XZ         1005d0a0 f i DataWindowDlg.obj
 0001:0005c0c0       ??_GCDataWindowDlg@@UAEPAXI@Z 1005d0c0 f i DataWindowDlg.obj
 0001:0005c0c0       ??_ECDataWindowDlg@@UAEPAXI@Z 1005d0c0 f i DataWindowDlg.obj
 0001:0005c120       ?CreateDataWindow@CDataWindowDlg@@QAE_NXZ 1005d120 f   DataWindowDlg.obj
 0001:0005c1f0       ?DoDataExchange@CDataWindowDlg@@MAEXPAVCDataExchange@@@Z 1005d1f0 f   DataWindowDlg.obj
 0001:0005c220       ?GetMessageMap@CDataWindowDlg@@MBEPBUAFX_MSGMAP@@XZ 1005d220 f   DataWindowDlg.obj
 0001:0005c230       ?GetThisMessageMap@CDataWindowDlg@@KGPBUAFX_MSGMAP@@XZ 1005d230 f   DataWindowDlg.obj
 0001:0005c240       ?OnCancel@CDataWindowDlg@@MAEXXZ 1005d240 f   DataWindowDlg.obj
 0001:0005c250       ?OnOK@CDataWindowDlg@@MAEXXZ 1005d250 f   DataWindowDlg.obj
 0001:0005c260       ?OnSize@CDataWindowDlg@@IAEXIHH@Z 1005d260 f   DataWindowDlg.obj
 0001:0005c2f0       ?PreTranslateMessage@CDataWindowDlg@@UAEHPAUtagMSG@@@Z 1005d2f0 f   DataWindowDlg.obj
 0001:0005c360       ?SetDataWindowData@CDataWindowDlg@@QAEXPAV?$CList@V?$CStringT@DV?$StrTraitMFC_DLL@DV?$ChTraitsCRT@D@ATL@@@@@ATL@@AAV12@@@@Z 1005d360 f   DataWindowDlg.obj
 0001:0005c6d0       ?SetHeaderCtrl@CDataWindowDlg@@AAEXAAV?$CStringT@DV?$StrTraitMFC_DLL@DV?$ChTraitsCRT@D@ATL@@@@@ATL@@@Z 1005d6d0 f   DataWindowDlg.obj
 0001:0005c890       ?SetListCtrlData@CDataWindowDlg@@AAEXAAV?$CStringT@DV?$StrTraitMFC_DLL@DV?$ChTraitsCRT@D@ATL@@@@@ATL@@H@Z 1005d890 f   DataWindowDlg.obj
 0001:0005c940       ??0CDlgItemMaxCount@@QAE@HAAHPAVCWnd@@@Z 1005d940 f   DlgItemMaxCount.obj
 0001:0005c980       ??_ECDlgItemMaxCount@@UAEPAXI@Z 1005d980 f i DlgItemMaxCount.obj
 0001:0005c980       ??_GCDlgItemMaxCount@@UAEPAXI@Z 1005d980 f i DlgItemMaxCount.obj
 0001:0005c9c0       ?DoDataExchange@CDlgItemMaxCount@@MAEXPAVCDataExchange@@@Z 1005d9c0 f   DlgItemMaxCount.obj
 0001:0005c9d0       ?GetMessageMap@CDlgItemMaxCount@@MBEPBUAFX_MSGMAP@@XZ 1005d9d0 f   DlgItemMaxCount.obj
 0001:0005c9e0       ?GetThisMessageMap@CDlgItemMaxCount@@KGPBUAFX_MSGMAP@@XZ 1005d9e0 f   DlgItemMaxCount.obj
 0001:0005c9f0       ?OnBtnModify@CDlgItemMaxCount@@IAEXXZ 1005d9f0 f   DlgItemMaxCount.obj
 0001:0005ca10       ?OnInitDialog@CDlgItemMaxCount@@MAEHXZ 1005da10 f   DlgItemMaxCount.obj
 0001:0005ca90       ?OnOK@CDlgItemMaxCount@@MAEXXZ 1005da90 f   DlgItemMaxCount.obj
 0001:0005cab0       ??0CExtInputBarDlg@@QAE@PAVCWnd@@@Z 1005dab0 f   ExtInputBarDlg.obj
 0001:0005ce70       ??0CTime@ATL@@QAE@HHHHHHH@Z 1005de70 f i ExtInputBarDlg.obj
 0001:0005cf20       ??1CExtInputBarDlg@@UAE@XZ 1005df20 f i ExtInputBarDlg.obj
 0001:0005d0c0       ??_ECDateTimeCtrl@@UAEPAXI@Z 1005e0c0 f i ExtInputBarDlg.obj
 0001:0005d0c0       ??_GCDateTimeCtrl@@UAEPAXI@Z 1005e0c0 f i ExtInputBarDlg.obj
 0001:0005d100       ??_GCExtInputBarDlg@@UAEPAXI@Z 1005e100 f i ExtInputBarDlg.obj
 0001:0005d100       ??_ECExtInputBarDlg@@UAEPAXI@Z 1005e100 f i ExtInputBarDlg.obj
 0001:0005d140       ?ChangeButtonColor@CExtInputBarDlg@@QAEXXZ 1005e140 f   ExtInputBarDlg.obj
 0001:0005d150       ?ChangeStatusDateControl@CExtInputBarDlg@@QAEXH@Z 1005e150 f   ExtInputBarDlg.obj
 0001:0005d1d0       ?DoDataExchange@CExtInputBarDlg@@MAEXPAVCDataExchange@@@Z 1005e1d0 f   ExtInputBarDlg.obj
 0001:0005d3b0       ?EnableQueryOpt@CExtInputBarDlg@@QAEXH@Z 1005e3b0 f   ExtInputBarDlg.obj
 0001:0005d3c0       ?EnableWindowExtBar@CExtInputBarDlg@@QAEXH@Z 1005e3c0 f   ExtInputBarDlg.obj
 0001:0005d3d0       ?Format@CTime@ATL@@QBE?AV?$CStringT@DV?$StrTraitMFC_DLL@DV?$ChTraitsCRT@D@ATL@@@@@2@PBD@Z 1005e3d0 f i ExtInputBarDlg.obj
 0001:0005d470       ?GetMessageMap@CExtInputBarDlg@@MBEPBUAFX_MSGMAP@@XZ 1005e470 f   ExtInputBarDlg.obj
 0001:0005d480       ?GetQueryOpt@CExtInputBarDlg@@QAEHXZ 1005e480 f   ExtInputBarDlg.obj
 0001:0005d4a0       ?GetThisMessageMap@CExtInputBarDlg@@KGPBUAFX_MSGMAP@@XZ 1005e4a0 f   ExtInputBarDlg.obj
 0001:0005d4b0       ?InitChartMulitItem@CExtInputBarDlg@@QAEXPAU_ST_SELCHART@@@Z 1005e4b0 f   ExtInputBarDlg.obj
 0001:0005d550       ?OnBtSub2@CExtInputBarDlg@@IAEXXZ 1005e550 f   ExtInputBarDlg.obj
 0001:0005d5b0       ?OnBtetcmenu@CExtInputBarDlg@@IAEXXZ 1005e5b0 f   ExtInputBarDlg.obj
 0001:0005d5d0       ?OnBtexnext@CExtInputBarDlg@@IAEXXZ 1005e5d0 f   ExtInputBarDlg.obj
 0001:0005d5f0       ?OnBtexprev@CExtInputBarDlg@@IAEXXZ 1005e5f0 f   ExtInputBarDlg.obj
 0001:0005d610       ?OnBthist@CExtInputBarDlg@@IAEXXZ 1005e610 f   ExtInputBarDlg.obj
 0001:0005d640       ?OnBtindex@CExtInputBarDlg@@IAEXXZ 1005e640 f   ExtInputBarDlg.obj
 0001:0005d650       ?OnBtinitial@CExtInputBarDlg@@IAEXXZ 1005e650 f   ExtInputBarDlg.obj
 0001:0005d730       ?OnBtinitsplit@CExtInputBarDlg@@IAEXXZ 1005e730 f   ExtInputBarDlg.obj
 0001:0005d760       ?OnBtload@CExtInputBarDlg@@IAEXXZ 1005e760 f   ExtInputBarDlg.obj
 0001:0005d7d0       ?OnBtnAnalizePeriod@CExtInputBarDlg@@IAEXXZ 1005e7d0 f   ExtInputBarDlg.obj
 0001:0005d800       ?OnBtnChangeunit@CExtInputBarDlg@@IAEXXZ 1005e800 f   ExtInputBarDlg.obj
 0001:0005d880       ?OnBtnEdate@CExtInputBarDlg@@IAEXXZ 1005e880 f   ExtInputBarDlg.obj
 0001:0005dbb0       ?OnBtnPeriod@CExtInputBarDlg@@IAEXXZ 1005ebb0 f   ExtInputBarDlg.obj
 0001:0005dbc0       ?OnBtnSdate@CExtInputBarDlg@@IAEXXZ 1005ebc0 f   ExtInputBarDlg.obj
 0001:0005de00       ?OnBtprint@CExtInputBarDlg@@IAEXXZ 1005ee00 f   ExtInputBarDlg.obj
 0001:0005de30       ?OnBtsave@CExtInputBarDlg@@IAEXXZ 1005ee30 f   ExtInputBarDlg.obj
 0001:0005dea0       ?OnBtsetenvir@CExtInputBarDlg@@IAEXXZ 1005eea0 f   ExtInputBarDlg.obj
 0001:0005ded0       ?OnBtshowmatrix@CExtInputBarDlg@@IAEXXZ 1005eed0 f   ExtInputBarDlg.obj
 0001:0005dee0       ?OnBtst@CExtInputBarDlg@@IAEXXZ 1005eee0 f   ExtInputBarDlg.obj
 0001:0005df10       ?OnChkEndsave@CExtInputBarDlg@@IAEXXZ 1005ef10 f   ExtInputBarDlg.obj
 0001:0005df40       ?OnChkQueryOpt@CExtInputBarDlg@@IAEXXZ 1005ef40 f   ExtInputBarDlg.obj
 0001:0005df70       ?OnChkRevised@CExtInputBarDlg@@IAEXXZ 1005ef70 f   ExtInputBarDlg.obj
 0001:0005dfb0       ?OnChkfixperiod@CExtInputBarDlg@@IAEXXZ 1005efb0 f   ExtInputBarDlg.obj
 0001:0005e0b0       ?OnChkshowscale@CExtInputBarDlg@@IAEXXZ 1005f0b0 f   ExtInputBarDlg.obj
 0001:0005e0f0       ?OnCloseupDatetimepicker1@CExtInputBarDlg@@IAEXPAUtagNMHDR@@PAJ@Z 1005f0f0 f   ExtInputBarDlg.obj
 0001:0005e1a0       ?OnDatetimechangeDatetimepicker1@CExtInputBarDlg@@IAEXXZ 1005f1a0 f   ExtInputBarDlg.obj
 0001:0005e320       ?OnDestroy@CExtInputBarDlg@@IAEXXZ 1005f320 f   ExtInputBarDlg.obj
 0001:0005e4d0       ?OnInitDialog@CExtInputBarDlg@@MAEHXZ 1005f4d0 f   ExtInputBarDlg.obj
 0001:0005ed50       ?OnLButtonDown@CExtInputBarDlg@@IAEXIVCPoint@@@Z 1005fd50 f   ExtInputBarDlg.obj
 0001:0005ed60       ?OpenMap@CExtInputBarDlg@@QAEJPBD@Z 1005fd60 f   ExtInputBarDlg.obj
 0001:0005ed70       ?PreTranslateMessage@CExtInputBarDlg@@UAEHPAUtagMSG@@@Z 1005fd70 f   ExtInputBarDlg.obj
 0001:0005ede0       ?SetCheckRevised@CExtInputBarDlg@@QAEXH@Z 1005fde0 f   ExtInputBarDlg.obj
 0001:0005ee00       ?SetExt@CExtInputBarDlg@@AAEXH@Z 1005fe00 f   ExtInputBarDlg.obj
 0001:0005f5c0       ?SetMarketType@CExtInputBarDlg@@QAEXH@Z 100605c0 f   ExtInputBarDlg.obj
 0001:0005f610       ?WindowProc@CExtInputBarDlg@@MAEJIIJ@Z 10060610 f   ExtInputBarDlg.obj
 0001:0005ff90       ??0CMessageWindow@@QAE@XZ  10060f90 f   MsgWnd.obj
 0001:000600c0       ??1CMessageWindow@@UAE@XZ  100610c0 f   MsgWnd.obj
 0001:00060190       ??_ECComboBox@@UAEPAXI@Z   10061190 f i MsgWnd.obj
 0001:00060190       ??_GCComboBox@@UAEPAXI@Z   10061190 f i MsgWnd.obj
 0001:000601d0       ??_ECMessageWindow@@UAEPAXI@Z 100611d0 f i MsgWnd.obj
 0001:000601d0       ??_GCMessageWindow@@UAEPAXI@Z 100611d0 f i MsgWnd.obj
 0001:000602d0       ?AddMessage@CMessageWindow@@QAEXPADI@Z 100612d0 f   MsgWnd.obj
 0001:00060460       ?CheckMaxLines@CMessageWindow@@QAEXXZ 10061460 f   MsgWnd.obj
 0001:000604b0       ?CreateMessageWnd@CMessageWindow@@QAEHPAVCWnd@@@Z 100614b0 f   MsgWnd.obj
 0001:00060530       ?DelMessage@CMessageWindow@@QAEXXZ 10061530 f   MsgWnd.obj
 0001:00060560       ?GetMessageA@CMessageWindow@@QAEHAAV?$CStringT@DV?$StrTraitMFC_DLL@DV?$ChTraitsCRT@D@ATL@@@@@ATL@@@Z 10061560 f   MsgWnd.obj
 0001:000605b0       ?GetMessageMap@CMessageWindow@@MBEPBUAFX_MSGMAP@@XZ 100615b0 f   MsgWnd.obj
 0001:000605c0       ?GetThisMessageMap@CMessageWindow@@KGPBUAFX_MSGMAP@@XZ 100615c0 f   MsgWnd.obj
 0001:000605d0       ?GetWndHeight@CMessageWindow@@QAEHXZ 100615d0 f   MsgWnd.obj
 0001:000605e0       ?MoveMessageWnd@CMessageWindow@@QAEXVCRect@@@Z 100615e0 f   MsgWnd.obj
 0001:00060660       ?OnClickedButton@CMessageWindow@@IAEXI@Z 10061660 f   MsgWnd.obj
 0001:000606d0       ?OnCreate@CMessageWindow@@IAEHPAUtagCREATESTRUCTA@@@Z 100616d0 f   MsgWnd.obj
 0001:00060800       ?OnEraseBkgnd@CMessageWindow@@IAEHPAVCDC@@@Z 10061800 f   MsgWnd.obj
 0001:00060850       ?ResizeMessageWnd@CMessageWindow@@QAEXIHH@Z 10061850 f   MsgWnd.obj
 0001:00060910       ?SetConfigFile@CMessageWindow@@QAEXPBD@Z 10061910 f   MsgWnd.obj
 0001:00060950       ??0CParser@@QAE@XZ         10061950 f   Parser.obj
 0001:00060960       ??1CParser@@UAE@XZ         10061960 f   Parser.obj
 0001:00060970       ??_GCParser@@UAEPAXI@Z     10061970 f i Parser.obj
 0001:00060970       ??_ECParser@@UAEPAXI@Z     10061970 f i Parser.obj
 0001:000609a0       ?GetString@CParser@@SA?AV?$CStringT@DV?$StrTraitMFC_DLL@DV?$ChTraitsCRT@D@ATL@@@@@ATL@@AAV23@D@Z 100619a0 f   Parser.obj
 0001:00060ae0       ??$SerializeElements@PAVCHistory@@@@YGXAAVCArchive@@PAPAVCHistory@@H@Z 10061ae0 f i InputBarDlg.obj
 0001:00060b90       ??0?$CList@PAVCHistory@@PAV1@@@QAE@H@Z 10061b90 f i InputBarDlg.obj
 0001:00060bd0       ??0CInputBarDlg@@QAE@PAVCWnd@@@Z 10061bd0 f   InputBarDlg.obj
 0001:00061170       ??1?$CList@PAVCHistory@@PAV1@@@UAE@XZ 10062170 f i InputBarDlg.obj
 0001:000611e0       ??1CInputBarDlg@@UAE@XZ    100621e0 f i InputBarDlg.obj
 0001:00061520       ??_E?$CList@PAVCHistory@@PAV1@@@UAEPAXI@Z 10062520 f i InputBarDlg.obj
 0001:00061520       ??_G?$CList@PAVCHistory@@PAV1@@@UAEPAXI@Z 10062520 f i InputBarDlg.obj
 0001:000615d0       ??_GCInputBarDlg@@UAEPAXI@Z 100625d0 f i InputBarDlg.obj
 0001:000615d0       ??_ECInputBarDlg@@UAEPAXI@Z 100625d0 f i InputBarDlg.obj
 0001:00061610       ??_GCSpinButtonCtrl@@UAEPAXI@Z 10062610 f i InputBarDlg.obj
 0001:00061610       ??_ECSpinButtonCtrl@@UAEPAXI@Z 10062610 f i InputBarDlg.obj
 0001:00061650       ?AddHistoryInfoListJongmok@CInputBarDlg@@IAEHV?$CStringT@DV?$StrTraitMFC_DLL@DV?$ChTraitsCRT@D@ATL@@@@@ATL@@0H@Z 10062650 f   InputBarDlg.obj
 0001:00061830       ?AddHistoryInfoListUpjong@CInputBarDlg@@IAEHV?$CStringT@DV?$StrTraitMFC_DLL@DV?$ChTraitsCRT@D@ATL@@@@@ATL@@0H@Z 10062830 f   InputBarDlg.obj
 0001:000619e0       ?AddTail@?$CList@PAVCHistory@@PAV1@@@QAEPAU__POSITION@@PAVCHistory@@@Z 100629e0 f i InputBarDlg.obj
 0001:00061a70       ?ChangeButtonColor@CInputBarDlg@@QAEXXZ 10062a70 f   InputBarDlg.obj
 0001:00061a80       ?ChangeEditCode@CInputBarDlg@@IAEHHH@Z 10062a80 f   InputBarDlg.obj
 0001:00061a90       ?ChangeMarket@CInputBarDlg@@QAEHIHH@Z 10062a90 f   InputBarDlg.obj
 0001:00061e70       ?ChangeSkinColor@CInputBarDlg@@UAEXK@Z 10062e70 f   InputBarDlg.obj
 0001:00061ee0       ?ConfirmDlgSetupData@CInputBarDlg@@QAEXXZ 10062ee0 f   InputBarDlg.obj
 0001:00062090       ?ConfirmLineType@CInputBarDlg@@QAEXXZ 10063090 f   InputBarDlg.obj
 0001:000620e0       ?CurrentTrError@CInputBarDlg@@QAEXXZ 100630e0 f   InputBarDlg.obj
 0001:00062100       ?DoDataExchange@CInputBarDlg@@MAEXPAVCDataExchange@@@Z 10063100 f   InputBarDlg.obj
 0001:000622d0       ?EnableRequestMoreButton@CInputBarDlg@@QAEXH@Z 100632d0 f   InputBarDlg.obj
 0001:000622f0       ?Enable_PeriodControl@CInputBarDlg@@QAEXH@Z 100632f0 f   InputBarDlg.obj
 0001:00062330       ?FindIndex@?$CList@PAVCDlgCompGroupData@@PAV1@@@QBEPAU__POSITION@@H@Z 10063330 f i InputBarDlg.obj
 0001:00062360       ?FindIndex@?$CList@PAVCDlgCompSubItem@@PAV1@@@QBEPAU__POSITION@@H@Z 10063360 f i InputBarDlg.obj
 0001:00062390       ?FrameMenuInsert@CInputBarDlg@@QAEPAUHWND__@@PAVCMenu@@0@Z 10063390 f   InputBarDlg.obj
 0001:00062520       ?FrameMenuShow@CInputBarDlg@@QAEXAAVCPoint@@@Z 10063520 f   InputBarDlg.obj
 0001:00062650       ?FreeNode@?$CList@PAVCHistory@@PAV1@@@IAEXPAUCNode@1@@Z 10063650 f i InputBarDlg.obj
 0001:000626a0       ?GetAllCount@CInputBarDlg@@QAEHXZ 100636a0 f   InputBarDlg.obj
 0001:00062720       ?GetBitFromCodeInfoJongmok@CInputBarDlg@@IAEJXZ 10063720 f   InputBarDlg.obj
 0001:000627b0       ?GetBitFromCodeInfoUpjong@CInputBarDlg@@IAEJXZ 100637b0 f   InputBarDlg.obj
 0001:00062840       ?GetChartViewType@CInputBarDlg@@QAEHAAVCStringList@@@Z 10063840 f   InputBarDlg.obj
 0001:00062910       ?GetCodeNameAndGubun@CInputBarDlg@@IAE?AV?$CStringT@DV?$StrTraitMFC_DLL@DV?$ChTraitsCRT@D@ATL@@@@@ATL@@V23@@Z 10063910 f   InputBarDlg.obj
 0001:00062b60       ?GetCount@CComboBox@@QBEHXZ 10063b60 f i InputBarDlg.obj
 0001:00062b80       ?GetCurrentCode@CInputBarDlg@@QAE?AV?$CStringT@DV?$StrTraitMFC_DLL@DV?$ChTraitsCRT@D@ATL@@@@@ATL@@XZ 10063b80 f   InputBarDlg.obj
 0001:00062ba0       ?GetCurrentMode@CInputBarDlg@@QAEHHH@Z 10063ba0 f   InputBarDlg.obj
 0001:00062c10       ?GetEndDate@CInputBarDlg@@IAEJXZ 10063c10 f   InputBarDlg.obj
 0001:00062c80       ?GetFirstGroupSelCode@CInputBarDlg@@QAEPBDXZ 10063c80 f   InputBarDlg.obj
 0001:00062cb0       ?GetJongMokNameByCode@CInputBarDlg@@QAE?AV?$CStringT@DV?$StrTraitMFC_DLL@DV?$ChTraitsCRT@D@ATL@@@@@ATL@@V23@PBD@Z 10063cb0 f   InputBarDlg.obj
 0001:00062dc0       ?GetLastHistoryCode@CInputBarDlg@@QAE?AV?$CStringT@DV?$StrTraitMFC_DLL@DV?$ChTraitsCRT@D@ATL@@@@@ATL@@H@Z 10063dc0 f   InputBarDlg.obj
 0001:00062f70       ?GetMarketTypeFromTRCode@CInputBarDlg@@QAEHPBD@Z 10063f70 f   InputBarDlg.obj
 0001:00062fc0       ?GetMessageMap@CInputBarDlg@@MBEPBUAFX_MSGMAP@@XZ 10063fc0 f   InputBarDlg.obj
 0001:00062fd0       ?GetRequestList@CInputBarDlg@@QAEXXZ 10063fd0 f   InputBarDlg.obj
 0001:00063030       ?GetThisMessageMap@CInputBarDlg@@KGPBUAFX_MSGMAP@@XZ 10064030 f   InputBarDlg.obj
 0001:00063040       ?GetTypeNumber@CInputBarDlg@@QAEJXZ 10064040 f   InputBarDlg.obj
 0001:000630d0       ?HideLeftBarBtn@CInputBarDlg@@QAEXH@Z 100640d0 f   InputBarDlg.obj
 0001:000630e0       ?Init@CInputBarDlg@@MAEXXZ 100640e0 f   InputBarDlg.obj
 0001:000637f0       ?InitBaseInfo@CInputBarDlg@@QAEXPAVCBaseDesk2@@H@Z 100647f0 f   InputBarDlg.obj
 0001:00063810       ?InitChartMulitItem@CInputBarDlg@@QAEXPAU_ST_SELCHART@@@Z 10064810 f   InputBarDlg.obj
 0001:00063b60       ?InitUpjongCodeCombo@CInputBarDlg@@QAEXI@Z 10064b60 f   InputBarDlg.obj
 0001:00063b70       ?Init_Controls@CInputBarDlg@@QAEXXZ 10064b70 f   InputBarDlg.obj
 0001:00063d80       ?IsCodeExist@CInputBarDlg@@QAEHPBD@Z 10064d80 f   InputBarDlg.obj
 0001:00063dd0       ?LoadInfoFutureList@CInputBarDlg@@IAEHXZ 10064dd0 f   InputBarDlg.obj
 0001:00063de0       ?LoadIniValue@CInputBarDlg@@MAEXXZ 10064de0 f   InputBarDlg.obj
 0001:00063e10       ?LoadValue@CInputBarDlg@@IAEXXZ 10064e10 f   InputBarDlg.obj
 0001:00063e20       ?NewNode@?$CList@PAVCHistory@@PAV1@@@IAEPAUCNode@1@PAU21@0@Z 10064e20 f i InputBarDlg.obj
 0001:00063e90       ?OnBtinc@CInputBarDlg@@IAEXXZ 10064e90 f   InputBarDlg.obj
 0001:00063ef0       ?OnBtinitial2@CInputBarDlg@@IAEXXZ 10064ef0 f   InputBarDlg.obj
 0001:00063f20       ?OnBtleft@CInputBarDlg@@IAEXXZ 10064f20 f   InputBarDlg.obj
 0001:00063fd0       ?OnBtnRetry@CInputBarDlg@@IAEXXZ 10064fd0 f   InputBarDlg.obj
 0001:00064020       ?OnBtrequestdatmore@CInputBarDlg@@IAEXXZ 10065020 f   InputBarDlg.obj
 0001:00064140       ?OnBtresetperiod@CInputBarDlg@@IAEXXZ 10065140 f   InputBarDlg.obj
 0001:00064150       ?OnBtright@CInputBarDlg@@IAEXXZ 10065150 f   InputBarDlg.obj
 0001:00064200       ?OnBtsetenvir@CInputBarDlg@@IAEXXZ 10065200 f   InputBarDlg.obj
 0001:00064230       ?OnCancel@CInputBarDlg@@MAEXXZ 10065230 f i InputBarDlg.obj
 0001:00064240       ?OnChangeEditperiod@CInputBarDlg@@IAEXXZ 10065240 f   InputBarDlg.obj
 0001:00064250       ?OnChkDivChart@CInputBarDlg@@IAEXXZ 10065250 f   InputBarDlg.obj
 0001:00064330       ?OnChkNujukOvrlppdChart@CInputBarDlg@@IAEXXZ 10065330 f   InputBarDlg.obj
 0001:00064540       ?OnChkNujukOvrlppdChartA@CInputBarDlg@@IAEXXZ 10065540 f   InputBarDlg.obj
 0001:00064630       ?OnChkNujukOvrlppdChartB@CInputBarDlg@@IAEXXZ 10065630 f   InputBarDlg.obj
 0001:00064710       ?OnChkNujukOvrlppdChartC@CInputBarDlg@@IAEXXZ 10065710 f   InputBarDlg.obj
 0001:000647f0       ?OnChkOvrlppdChart@CInputBarDlg@@IAEXXZ 100657f0 f   InputBarDlg.obj
 0001:000648d0       ?OnChkQueryOp@CInputBarDlg@@IAEXXZ 100658d0 f   InputBarDlg.obj
 0001:00064930       ?OnChkRevised@CInputBarDlg@@IAEXXZ 10065930 f   InputBarDlg.obj
 0001:00064960       ?OnChkday@CInputBarDlg@@IAEXXZ 10065960 f   InputBarDlg.obj
 0001:00064b10       ?OnChkminute@CInputBarDlg@@IAEXXZ 10065b10 f   InputBarDlg.obj
 0001:00064c20       ?OnChkmonth@CInputBarDlg@@IAEXXZ 10065c20 f   InputBarDlg.obj
 0001:00064d20       ?OnChksec@CInputBarDlg@@IAEXXZ 10065d20 f   InputBarDlg.obj
 0001:00064d30       ?OnChkshowscale2@CInputBarDlg@@IAEXXZ 10065d30 f   InputBarDlg.obj
 0001:00064d40       ?OnChktick@CInputBarDlg@@IAEXXZ 10065d40 f   InputBarDlg.obj
 0001:00064d50       ?OnChkweek@CInputBarDlg@@IAEXXZ 10065d50 f   InputBarDlg.obj
 0001:00064e50       ?OnCommand@CInputBarDlg@@MAEHIJ@Z 10065e50 f   InputBarDlg.obj
 0001:00064e60       ?OnDeltaposSpinPeriod@CInputBarDlg@@IAEXPAUtagNMHDR@@PAJ@Z 10065e60 f   InputBarDlg.obj
 0001:00064f40       ?OnDeltaposSpinzoomvalue@CInputBarDlg@@IAEXPAUtagNMHDR@@PAJ@Z 10065f40 f   InputBarDlg.obj
 0001:00065090       ?OnDestroy@CInputBarDlg@@IAEXXZ 10066090 f   InputBarDlg.obj
 0001:00065240       ?OnEnSetfocusEditFocus@CInputBarDlg@@QAEXXZ 10066240 f   InputBarDlg.obj
 0001:00065250       ?OnFromCodeList@CInputBarDlg@@IAEJIJ@Z 10066250 f   InputBarDlg.obj
 0001:00065400       ?OnInitDialog@CInputBarDlg@@MAEHXZ 10066400 f   InputBarDlg.obj
 0001:00065550       ?OnOK@CInputBarDlg@@MAEXXZ 10066550 f i InputBarDlg.obj
 0001:00065560       ?OnPaint@CInputBarDlg@@IAEXXZ 10066560 f   InputBarDlg.obj
 0001:00065570       ?OnRButtonUp@CInputBarDlg@@IAEXIVCPoint@@@Z 10066570 f   InputBarDlg.obj
 0001:00065660       ?OnSelBasedlgPopuplistctrl@CInputBarDlg@@IAEJIJ@Z 10066660 f   InputBarDlg.obj
 0001:00065820       ?OnSelchangeCblinetype@CInputBarDlg@@IAEXXZ 10066820 f   InputBarDlg.obj
 0001:00065870       ?OnSelchangeCbmarket@CInputBarDlg@@IAEXXZ 10066870 f   InputBarDlg.obj
 0001:00065970       ?OnSelchangeCmbType@CInputBarDlg@@IAEXXZ 10066970 f   InputBarDlg.obj
 0001:000659a0       ?OnSelchangeCodeInput@CInputBarDlg@@IAEXXZ 100669a0 f   InputBarDlg.obj
 0001:000659b0       ?OnSelendokCmbCharttype@CInputBarDlg@@IAEXXZ 100669b0 f   InputBarDlg.obj
 0001:00065a50       ?OnSetfocusEditperiod@CInputBarDlg@@IAEXXZ 10066a50 f   InputBarDlg.obj
 0001:00065a60       ?OnSize@CInputBarDlg@@IAEXIHH@Z 10066a60 f   InputBarDlg.obj
 0001:00065a70       ?OnTimer@CInputBarDlg@@IAEXI@Z 10066a70 f   InputBarDlg.obj
 0001:00065d00       ?PreTranslateMessage@CInputBarDlg@@UAEHPAUtagMSG@@@Z 10066d00 f   InputBarDlg.obj
 0001:00066080       ?RemoveAll@?$CList@PAVCHistory@@PAV1@@@QAEXXZ 10067080 f i InputBarDlg.obj
 0001:000660b0       ?RemoveAt@?$CList@PAVCHistory@@PAV1@@@QAEXPAU__POSITION@@@Z 100670b0 f i InputBarDlg.obj
 0001:00066120       ?RemoveHead@?$CList@PAVCHistory@@PAV1@@@QAEPAVCHistory@@XZ 10067120 f i InputBarDlg.obj
 0001:00066190       ?RemoveHistoryInfo@CInputBarDlg@@IAEXXZ 10067190 f   InputBarDlg.obj
 0001:00066310       ?RequestStep2All@CInputBarDlg@@QAEXXZ 10067310 f   InputBarDlg.obj
 0001:00066360       ?RequestStepAll@CInputBarDlg@@QAEXXZ 10067360 f   InputBarDlg.obj
 0001:000663b0       ?RequestTR@CInputBarDlg@@QAEXXZ 100673b0 f   InputBarDlg.obj
 0001:00066450       ?ResetUnitValue@CInputBarDlg@@QAEXH@Z 10067450 f   InputBarDlg.obj
 0001:000664a0       ?SaveChartType_IniFile@CInputBarDlg@@QAEXH@Z 100674a0 f   InputBarDlg.obj
 0001:00066600       ?SaveIniValue@CInputBarDlg@@MAEXXZ 10067600 f   InputBarDlg.obj
 0001:000667a0       ?SaveInputPeriod@CInputBarDlg@@QAEXXZ 100677a0 f   InputBarDlg.obj
 0001:00066880       ?SaveValue@CInputBarDlg@@QAEXXZ 10067880 f   InputBarDlg.obj
 0001:00066890       ?SendNextTR@CInputBarDlg@@QAEXXZ 10067890 f   InputBarDlg.obj
 0001:00066900       ?SendTR@CInputBarDlg@@QAEXPBD@Z 10067900 f   InputBarDlg.obj
 0001:00066930       ?Serialize@?$CList@PAVCHistory@@PAV1@@@UAEXAAVCArchive@@@Z 10067930 f i InputBarDlg.obj
 0001:00066ac0       ?SetAllPosition@CInputBarDlg@@QAEXH@Z 10067ac0 f   InputBarDlg.obj
 0001:00066bc0       ?SetChTypeBtn@CInputBarDlg@@QAEXD@Z 10067bc0 f   InputBarDlg.obj
 0001:00066cf0       ?SetCheckRevised@CInputBarDlg@@QAEXH@Z 10067cf0 f   InputBarDlg.obj
 0001:00066d10       ?SetCodeDragAndDrop@CInputBarDlg@@QAEHV?$CStringT@DV?$StrTraitMFC_DLL@DV?$ChTraitsCRT@D@ATL@@@@@ATL@@H@Z 10067d10 f   InputBarDlg.obj
 0001:00066e80       ?SetCodeInit@CInputBarDlg@@QAEXXZ 10067e80 f   InputBarDlg.obj
 0001:00066f40       ?SetCompareChartItemMode@CInputBarDlg@@QAEXXZ 10067f40 f   InputBarDlg.obj
 0001:00067060       ?SetCompareChartType@CInputBarDlg@@QAEXXZ 10068060 f   InputBarDlg.obj
 0001:00067160       ?SetCurCodeNameToControl@CInputBarDlg@@QAEXV?$CStringT@DV?$StrTraitMFC_DLL@DV?$ChTraitsCRT@D@ATL@@@@@ATL@@@Z 10068160 f   InputBarDlg.obj
 0001:000672d0       ?SetCurrentCode@CInputBarDlg@@QAEXV?$CStringT@DV?$StrTraitMFC_DLL@DV?$ChTraitsCRT@D@ATL@@@@@ATL@@@Z 100682d0 f   InputBarDlg.obj
 0001:00067330       ?SetEditZoomValue@CInputBarDlg@@QAEXV?$CStringT@DV?$StrTraitMFC_DLL@DV?$ChTraitsCRT@D@ATL@@@@@ATL@@@Z 10068330 f   InputBarDlg.obj
 0001:00067450       ?SetExt@CInputBarDlg@@IAEXH@Z 10068450 f   InputBarDlg.obj
 0001:00067930       ?SetFocusCodeInput@CInputBarDlg@@QAEXXZ 10068930 f   InputBarDlg.obj
 0001:00067940       ?SetKeyCodeChange@CInputBarDlg@@QAEXIJ@Z 10068940 f   InputBarDlg.obj
 0001:00067ce0       ?SetLastHistoryCode@CInputBarDlg@@QAEXXZ 10068ce0 f   InputBarDlg.obj
 0001:00067e60       ?SetLeftBarType@CInputBarDlg@@QAEXI@Z 10068e60 f   InputBarDlg.obj
 0001:00067f20       ?SetMenuStyle@CInputBarDlg@@QAEXXZ 10068f20 f   InputBarDlg.obj
 0001:00067f30       ?SetMode@CInputBarDlg@@QAEXH@Z 10068f30 f   InputBarDlg.obj
 0001:00067f80       ?SetMultiTotalCount@CInputBarDlg@@QAEXH@Z 10068f80 f   InputBarDlg.obj
 0001:00068000       ?SetPeriodType@CInputBarDlg@@QAEXH@Z 10069000 f   InputBarDlg.obj
 0001:00068010       ?SetShareInputData@CInputBarDlg@@QAEXXZ 10069010 f   InputBarDlg.obj
 0001:00068270       ?SetType@CInputBarDlg@@MAEXH@Z 10069270 f   InputBarDlg.obj
 0001:00068280       ?SetViewCount@CInputBarDlg@@QAEXJ@Z 10069280 f   InputBarDlg.obj
 0001:000682a0       ?ShowScreen1Menu@CInputBarDlg@@QAEXAAVCPoint@@H@Z 100692a0 f   InputBarDlg.obj
 0001:000682b0       ?Test001@CInputBarDlg@@QAEXXZ 100692b0 f   InputBarDlg.obj
 0001:000683c0       ?Test002@CInputBarDlg@@QAEXXZ 100693c0 f   InputBarDlg.obj
 0001:000684e0       ?Test004@CInputBarDlg@@QAEXDH@Z 100694e0 f   InputBarDlg.obj
 0001:00068530       ?WindowProc@CInputBarDlg@@MAEJIIJ@Z 10069530 f   InputBarDlg.obj
 0001:00068fe0       ?_DoChkDivChart@CInputBarDlg@@QAEXXZ 10069fe0 f   InputBarDlg.obj
 0001:00069080       ?fnFluctTimerNextCode@CInputBarDlg@@QAEXAAV?$CStringT@DV?$StrTraitMFC_DLL@DV?$ChTraitsCRT@D@ATL@@@@@ATL@@0@Z 1006a080 f   InputBarDlg.obj
 0001:00069180       ?fnFluctTimerNextCodeSend@CInputBarDlg@@QAEXH@Z 1006a180 f   InputBarDlg.obj
 0001:00069350       ?fnFluctTimerStart@CInputBarDlg@@QAEXH@Z 1006a350 f   InputBarDlg.obj
 0001:00069370       ?fnInitAfter@CInputBarDlg@@QAEXXZ 1006a370 f   InputBarDlg.obj
 0001:000694f0       ?fnReLoadstDlgCompData@CInputBarDlg@@QAEXXZ 1006a4f0 f   InputBarDlg.obj
 0001:000695e0       ?fnSetUserSetting@CInputBarDlg@@QAEXPBD@Z 1006a5e0 f   InputBarDlg.obj
 0001:00069630       ??0CLeftBarDlg@@QAE@PAVCWnd@@@Z 1006a630 f   LeftBarDlg.obj
 0001:00069720       ??1CUsrAddListDlg@@UAE@XZ  1006a720 f i LeftBarDlg.obj
 0001:000697a0       ??_ECLeftBarDlg@@UAEPAXI@Z 1006a7a0 f i LeftBarDlg.obj
 0001:000697a0       ??_GCLeftBarDlg@@UAEPAXI@Z 1006a7a0 f i LeftBarDlg.obj
 0001:00069840       ?ChangeSkinColor@CLeftBarDlg@@UAEXK@Z 1006a840 f   LeftBarDlg.obj
 0001:00069880       ?DoDataExchange@CLeftBarDlg@@MAEXPAVCDataExchange@@@Z 1006a880 f   LeftBarDlg.obj
 0001:000698b0       ?EnableWindow@CLeftBarDlg@@QAEHH@Z 1006a8b0 f   LeftBarDlg.obj
 0001:000698d0       ?GetCodeMasterArray@CLeftBarDlg@@QAEJJAAVCStringArray@@0@Z 1006a8d0 f   LeftBarDlg.obj
 0001:000698e0       ?GetCurItemName@CLeftBarDlg@@QAE?AV?$CStringT@DV?$StrTraitMFC_DLL@DV?$ChTraitsCRT@D@ATL@@@@@ATL@@XZ 1006a8e0 f   LeftBarDlg.obj
 0001:00069900       ?GetEnableWindow@CLeftBarDlg@@QAEHXZ 1006a900 f   LeftBarDlg.obj
 0001:00069910       ?GetIndicatorNameListIntoComboBox@CLeftBarDlg@@QAEXAAVCComboBox@@PBD@Z 1006a910 f   LeftBarDlg.obj
 0001:00069930       ?GetIndicatorNameListIntoListCtrl@CLeftBarDlg@@QAEXAAVCXListCtrl@@PBD@Z 1006a930 f   LeftBarDlg.obj
 0001:00069950       ?GetIndicatorNameListIntoTreeCtrl@CLeftBarDlg@@QAEXAAVCTreeCtrl@@@Z 1006a950 f   LeftBarDlg.obj
 0001:00069970       ?GetMessageMap@CLeftBarDlg@@MBEPBUAFX_MSGMAP@@XZ 1006a970 f   LeftBarDlg.obj
 0001:00069980       ?GetPacketFromOutSide@CLeftBarDlg@@QAE?AV?$CStringT@DV?$StrTraitMFC_DLL@DV?$ChTraitsCRT@D@ATL@@@@@ATL@@XZ 1006a980 f   LeftBarDlg.obj
 0001:000699a0       ?GetThisMessageMap@CLeftBarDlg@@KGPBUAFX_MSGMAP@@XZ 1006a9a0 f   LeftBarDlg.obj
 0001:000699b0       ?GetViewHandleForWndMapView@@YAXAAPAUHWND__@@AAH@Z 1006a9b0 f   LeftBarDlg.obj
 0001:00069a80       ?IsAdvisingCodeOf@CLeftBarDlg@@QAEHPBD@Z 1006aa80 f   LeftBarDlg.obj
 0001:00069aa0       ?OnBthidechart@CLeftBarDlg@@IAEXXZ 1006aaa0 f   LeftBarDlg.obj
 0001:00069ac0       ?OnDestroy@CLeftBarDlg@@IAEXXZ 1006aac0 f   LeftBarDlg.obj
 0001:00069ad0       ?OnInitDialog@CLeftBarDlg@@MAEHXZ 1006aad0 f   LeftBarDlg.obj
 0001:00069c20       ?OnPaint@CLeftBarDlg@@IAEXXZ 1006ac20 f   LeftBarDlg.obj
 0001:00069c30       ?OnSelchangeTab@CLeftBarDlg@@IAEXPAUtagNMHDR@@PAJ@Z 1006ac30 f   LeftBarDlg.obj
 0001:00069c80       ?OnSize@CLeftBarDlg@@IAEXIHH@Z 1006ac80 f   LeftBarDlg.obj
 0001:00069db0       ?OnTimer@CLeftBarDlg@@IAEXI@Z 1006adb0 f   LeftBarDlg.obj
 0001:00069dc0       ?PreTranslateMessage@CLeftBarDlg@@UAEHPAUtagMSG@@@Z 1006adc0 f   LeftBarDlg.obj
 0001:00069e20       ?ReceiveData@CLeftBarDlg@@QAEJPAUHWND__@@PBD11PAXJ@Z 1006ae20 f   LeftBarDlg.obj
 0001:00069e80       ?SetConfig@CLeftBarDlg@@QAEXH@Z 1006ae80 f   LeftBarDlg.obj
 0001:00069eb0       ?SetPacketFromOutSide@CLeftBarDlg@@QAEXV?$CStringT@DV?$StrTraitMFC_DLL@DV?$ChTraitsCRT@D@ATL@@@@@ATL@@@Z 1006aeb0 f   LeftBarDlg.obj
 0001:00069f60       ?SetRealPriceData@CLeftBarDlg@@QAEXPADH@Z 1006af60 f   LeftBarDlg.obj
 0001:00069f70       ?WindowProc@CLeftBarDlg@@MAEJIIJ@Z 1006af70 f   LeftBarDlg.obj
 0001:0006a200       ?CompareAndCStringSwap@CSortStringArray@@AAEHH@Z 1006b200 f   SortStringArray.obj
 0001:0006a310       ?Sort@CSortStringArray@@QAEXXZ 1006b310 f   SortStringArray.obj
 0001:0006a470       ?Allocate@CAtlStringMgr@ATL@@UAEPAUCStringData@2@HH@Z 1006b470 f i StdAfx.obj
 0001:0006a4e0       ?Free@CAtlStringMgr@ATL@@UAEXPAUCStringData@2@@Z 1006b4e0 f i StdAfx.obj
 0001:0006a4f0       ?Reallocate@CAtlStringMgr@ATL@@UAEPAUCStringData@2@PAU32@HH@Z 1006b4f0 f i StdAfx.obj
 0001:0006a550       ?GetNilString@CAtlStringMgr@ATL@@UAEPAUCStringData@2@XZ 1006b550 f i StdAfx.obj
 0001:0006a560       ?Clone@CAtlStringMgr@ATL@@UAEPAUIAtlStringMgr@2@XZ 1006b560 f i StdAfx.obj
 0001:0006a570       ??_ECAtlStringMgr@ATL@@UAEPAXI@Z 1006b570 f i StdAfx.obj
 0001:0006a570       ??_GCAtlStringMgr@ATL@@UAEPAXI@Z 1006b570 f i StdAfx.obj
 0001:0006a5a0       ?Allocate@CWin32Heap@ATL@@UAEPAXI@Z 1006b5a0 f i StdAfx.obj
 0001:0006a5c0       ?Free@CWin32Heap@ATL@@UAEXPAX@Z 1006b5c0 f i StdAfx.obj
 0001:0006a5e0       ?Reallocate@CWin32Heap@ATL@@UAEPAXPAXI@Z 1006b5e0 f i StdAfx.obj
 0001:0006a620       ?GetSize@CWin32Heap@ATL@@UAEIPAX@Z 1006b620 f i StdAfx.obj
 0001:0006a640       ??_ECWin32Heap@ATL@@UAEPAXI@Z 1006b640 f i StdAfx.obj
 0001:0006a640       ??_GCWin32Heap@ATL@@UAEPAXI@Z 1006b640 f i StdAfx.obj
 0001:0006a680       ??1CAtlStringMgr@ATL@@UAE@XZ 1006b680 f i StdAfx.obj
 0001:0006a690       ??1CWin32Heap@ATL@@UAE@XZ  1006b690 f i StdAfx.obj
 0001:0006a6b0       ?EnsureLinked@CAtlStringMgrStaticInitializer@ATLImplementationDetails@ATL@@QAEPAXXZ 1006b6b0 f i StdAfx.obj
 0001:0006a6c0       ?SetOpenMapData@CStdDialog@@IAEXPBDF@Z 1006b6c0 f   StdDialog.obj
 0001:0006a6d0       ??$SerializeElements@J@@YGXAAVCArchive@@PAJH@Z 1006b6d0 f i StdDialog.obj
 0001:0006a780       ??$SerializeElements@P6AXXZ@@YGXAAVCArchive@@PAP6AXXZH@Z 1006b780 f i StdDialog.obj
 0001:0006a830       ??$SerializeElements@PAUHWND__@@@@YGXAAVCArchive@@PAPAUHWND__@@H@Z 1006b830 f i StdDialog.obj
 0001:0006a8e0       ??$SerializeElements@PAVCDlgCompGroupData@@@@YGXAAVCArchive@@PAPAVCDlgCompGroupData@@H@Z 1006b8e0 f i StdDialog.obj
 0001:0006a990       ??$SerializeElements@USTTRINFO@@@@YGXAAVCArchive@@PAUSTTRINFO@@H@Z 1006b990 f i StdDialog.obj
 0001:0006aa30       ??$SerializeElements@UST_GSHAREDFORMAT@@@@YGXAAVCArchive@@PAUST_GSHAREDFORMAT@@H@Z 1006ba30 f i StdDialog.obj
 0001:0006aae0       ??$SerializeElements@UST_LSHAREDFORMAT@@@@YGXAAVCArchive@@PAUST_LSHAREDFORMAT@@H@Z 1006bae0 f i StdDialog.obj
 0001:0006ab90       ??0?$CArray@USTTRINFO@@U1@@@QAE@XZ 1006bb90 f i StdDialog.obj
 0001:0006abc0       ??0?$CList@JJ@@QAE@H@Z     1006bbc0 f i StdDialog.obj
 0001:0006ac00       ??0?$CList@PAVCDlgCompGroupData@@PAV1@@@QAE@H@Z 1006bc00 f i StdDialog.obj
 0001:0006ac40       ??0CStdDialog@@QAE@PAVCWnd@@@Z 1006bc40 f   StdDialog.obj
 0001:0006b280       ??0STDRDSINFO@CStdDialog@@QAE@XZ 1006c280 f i StdDialog.obj
 0001:0006b2a0       ??0STTRINFO@@QAE@ABU0@@Z   1006c2a0 f i StdDialog.obj
 0001:0006b2e0       ??0ST_GSHAREDFORMAT@@QAE@XZ 1006c2e0 f i StdDialog.obj
 0001:0006b300       ??0ST_LSHAREDFORMAT@@QAE@XZ 1006c300 f i StdDialog.obj
 0001:0006b320       ??1?$CArray@PAUHWND__@@PAU1@@@UAE@XZ 1006c320 f i StdDialog.obj
 0001:0006b340       ??1?$CArray@USTTRINFO@@U1@@@UAE@XZ 1006c340 f i StdDialog.obj
 0001:0006b390       ??1?$CList@JJ@@UAE@XZ      1006c390 f i StdDialog.obj
 0001:0006b400       ??1?$CList@P6AXXZP6AXXZ@@UAE@XZ 1006c400 f i StdDialog.obj
 0001:0006b470       ??1?$CList@PAVCDlgCompGroupData@@PAV1@@@UAE@XZ 1006c470 f i StdDialog.obj
 0001:0006b4e0       ??1?$CList@UST_GSHAREDFORMAT@@U1@@@UAE@XZ 1006c4e0 f i StdDialog.obj
 0001:0006b570       ??1?$CList@UST_LSHAREDFORMAT@@U1@@@UAE@XZ 1006c570 f i StdDialog.obj
 0001:0006b600       ??1CDlgCompDataHandle@@QAE@XZ 1006c600 f i StdDialog.obj
 0001:0006b610       ??1CExOCXDLL@@UAE@XZ       1006c610 f i StdDialog.obj
 0001:0006b730       ??1CStdDialog@@UAE@XZ      1006c730 f i StdDialog.obj
 0001:0006b990       ??1STDRDSINFO@CStdDialog@@QAE@XZ 1006c990 f i StdDialog.obj
 0001:0006b9b0       ??1STDlgCompData@@QAE@XZ   1006c9b0 f i StdDialog.obj
 0001:0006ba40       ??1STINPUTCODEDATA@@QAE@XZ 1006ca40 f i StdDialog.obj
 0001:0006ba60       ??1STTRINFO@@QAE@XZ        1006ca60 f i StdDialog.obj
 0001:0006ba70       ??1ST_GSHAREDFORMAT@@QAE@XZ 1006ca70 f i StdDialog.obj
 0001:0006ba90       ??1ST_LSHAREDFORMAT@@QAE@XZ 1006ca90 f i StdDialog.obj
 0001:0006bab0       ??1stReceiveFromServer@@QAE@XZ 1006cab0 f i StdDialog.obj
 0001:0006bab6       ??_ECStdDialog@@WKI@AEPAXI@Z 1006cab6 f i StdDialog.obj
 0001:0006bad0       ??_G?$CArray@PAUHWND__@@PAU1@@@UAEPAXI@Z 1006cad0 f i StdDialog.obj
 0001:0006bad0       ??_E?$CArray@PAUHWND__@@PAU1@@@UAEPAXI@Z 1006cad0 f i StdDialog.obj
 0001:0006bb20       ??_G?$CArray@USTTRINFO@@U1@@@UAEPAXI@Z 1006cb20 f i StdDialog.obj
 0001:0006bb20       ??_E?$CArray@USTTRINFO@@U1@@@UAEPAXI@Z 1006cb20 f i StdDialog.obj
 0001:0006bb60       ??_E?$CList@JJ@@UAEPAXI@Z  1006cb60 f i StdDialog.obj
 0001:0006bb60       ??_G?$CList@JJ@@UAEPAXI@Z  1006cb60 f i StdDialog.obj
 0001:0006bc10       ??_E?$CList@P6AXXZP6AXXZ@@UAEPAXI@Z 1006cc10 f i StdDialog.obj
 0001:0006bc10       ??_G?$CList@P6AXXZP6AXXZ@@UAEPAXI@Z 1006cc10 f i StdDialog.obj
 0001:0006bcc0       ??_G?$CList@PAVCDlgCompGroupData@@PAV1@@@UAEPAXI@Z 1006ccc0 f i StdDialog.obj
 0001:0006bcc0       ??_E?$CList@PAVCDlgCompGroupData@@PAV1@@@UAEPAXI@Z 1006ccc0 f i StdDialog.obj
 0001:0006bd70       ??_E?$CList@UST_GSHAREDFORMAT@@U1@@@UAEPAXI@Z 1006cd70 f i StdDialog.obj
 0001:0006bd70       ??_G?$CList@UST_GSHAREDFORMAT@@U1@@@UAEPAXI@Z 1006cd70 f i StdDialog.obj
 0001:0006bdb0       ??_G?$CList@UST_LSHAREDFORMAT@@U1@@@UAEPAXI@Z 1006cdb0 f i StdDialog.obj
 0001:0006bdb0       ??_E?$CList@UST_LSHAREDFORMAT@@U1@@@UAEPAXI@Z 1006cdb0 f i StdDialog.obj
 0001:0006bdf0       ??_GCDragNDrop@@QAEPAXI@Z  1006cdf0 f i StdDialog.obj
 0001:0006be60       ??_GCStdDialog@@UAEPAXI@Z  1006ce60 f i StdDialog.obj
 0001:0006be60       ??_ECStdDialog@@UAEPAXI@Z  1006ce60 f i StdDialog.obj
 0001:0006bea0       ?Add@?$CArray@USTTRINFO@@U1@@@QAEHUSTTRINFO@@@Z 1006cea0 f i StdDialog.obj
 0001:0006bf70       ?AddRealCodeList@CStdDialog@@QAEXPBD@Z 1006cf70 f   StdDialog.obj
 0001:0006bf80       ?AddRealCodes@CStdDialog@@QAEXV?$CStringT@DV?$StrTraitMFC_DLL@DV?$ChTraitsCRT@D@ATL@@@@@ATL@@PAV?$CList@UST_CODEDATA@@U1@@@@Z 1006cf80 f   StdDialog.obj
 0001:0006bf90       ?AddRealCodes@CStdDialog@@QAEXXZ 1006cf90 f   StdDialog.obj
 0001:0006bfa0       ?AddTail@?$CList@JJ@@QAEPAU__POSITION@@J@Z 1006cfa0 f i StdDialog.obj
 0001:0006c030       ?AddTail@?$CList@P6AXXZP6AXXZ@@QAEPAU__POSITION@@P6AXXZ@Z 1006d030 f i StdDialog.obj
 0001:0006c0c0       ?AddTail@?$CList@UST_GSHAREDFORMAT@@U1@@@QAEPAU__POSITION@@UST_GSHAREDFORMAT@@@Z 1006d0c0 f i StdDialog.obj
 0001:0006c1d0       ?AddTail@?$CList@UST_LSHAREDFORMAT@@U1@@@QAEPAU__POSITION@@UST_LSHAREDFORMAT@@@Z 1006d1d0 f i StdDialog.obj
 0001:0006c3b0       ?AllCodeUnAdvise@CStdDialog@@QAEXXZ 1006d3b0 f   StdDialog.obj
 0001:0006c470       ?ChangeCode@CStdDialog@@QAEXPBDHH@Z 1006d470 f   StdDialog.obj
 0001:0006c520       ?ChangeMarket@CStdDialog@@QAEXIHH@Z 1006d520 f   StdDialog.obj
 0001:0006c540       ?ChangeMiniStockMode@CStdDialog@@QAEXH@Z 1006d540 f   StdDialog.obj
 0001:0006c860       ?ChangeSharedData@CStdDialog@@IAEJV?$CStringT@DV?$StrTraitMFC_DLL@DV?$ChTraitsCRT@D@ATL@@@@@ATL@@PAEHH@Z 1006d860 f   StdDialog.obj
 0001:0006c880       ?ChangeSkinColor@CStdDialog@@QAEXK@Z 1006d880 f   StdDialog.obj
 0001:0006c8d0       ?ChangeStockMode@CStdDialog@@QAEXH@Z 1006d8d0 f   StdDialog.obj
 0001:0006ca60       ?ChangeUpjongMode@CStdDialog@@QAEXI@Z 1006da60 f   StdDialog.obj
 0001:0006ca80       ?ChangedChartItem@CStdDialog@@QAEHXZ 1006da80 f   StdDialog.obj
 0001:0006ca90       ?ColorTableChanged@CExDialog@@UAEXXZ 1006da90 f i StdDialog.obj
 0001:0006caa0       ?ConvertKoscomData@CStdDialog@@QAEXPBDPAXJ0@Z 1006daa0 f   StdDialog.obj
 0001:0006ccc0       ?CreateDataWindow@CStdDialog@@QAEXXZ 1006dcc0 f   StdDialog.obj
 0001:0006cd50       ?DeleteAllImageList@CStdDialog@@QAEXXZ 1006dd50 f   StdDialog.obj
 0001:0006cde0       ?DeleteToLeftBar@CStdDialog@@QAEXPBD@Z 1006dde0 f   StdDialog.obj
 0001:0006ce10       ?DemoReceiveData@CStdDialog@@QAEJJPBD00PAXJ@Z 1006de10 f   StdDialog.obj
 0001:0006d280       ?DestroyDataWindow@CStdDialog@@QAEXXZ 1006e280 f   StdDialog.obj
 0001:0006d2c0       ?DoCheckMin@CStdDialog@@AAEXHPBDAAV?$CStringT@DV?$StrTraitMFC_DLL@DV?$ChTraitsCRT@D@ATL@@@@@ATL@@@Z 1006e2c0 f   StdDialog.obj
 0001:0006d3b0       ?DoDataExchange@CStdDialog@@MAEXPAVCDataExchange@@@Z 1006e3b0 f   StdDialog.obj
 0001:0006d3d0       ?EnableQueryOpt@CStdDialog@@QAEXH@Z 1006e3d0 f   StdDialog.obj
 0001:0006d3f0       ?EnableRequestMoreButton@CStdDialog@@QAEXH@Z 1006e3f0 f   StdDialog.obj
 0001:0006d410       ?EnableWindowAll@CStdDialog@@AAEXH@Z 1006e410 f   StdDialog.obj
 0001:0006d520       ?FileDelete@CStdDialog@@QAEXXZ 1006e520 f   StdDialog.obj
 0001:0006d8e0       ?FormLoad@CStdDialog@@UAEXXZ 1006e8e0 f   StdDialog.obj
 0001:0006e260       ?FreeNode@?$CList@JJ@@IAEXPAUCNode@1@@Z 1006f260 f i StdDialog.obj
 0001:0006e2b0       ?GetAccountInfo@CStdDialog@@QAE?AV?$CStringT@DV?$StrTraitMFC_DLL@DV?$ChTraitsCRT@D@ATL@@@@@ATL@@XZ 1006f2b0 f   StdDialog.obj
 0001:0006e2d0       ?GetAutoSaveToOutside@CMChartInterface@@MAE_NAA_N@Z 1006f2d0 f i StdDialog.obj
 0001:0006e2e0       ?GetAutoSaveToOutside@CStdDialog@@UAE_NAA_N@Z 1006f2e0 f   StdDialog.obj
 0001:0006e2f0       ?GetBkgrndColor@CStdDialog@@QAEKXZ 1006f2f0 f   StdDialog.obj
 0001:0006e310       ?GetCodeNameAndGubun@CStdDialog@@QAE?AV?$CStringT@DV?$StrTraitMFC_DLL@DV?$ChTraitsCRT@D@ATL@@@@@ATL@@HV23@@Z 1006f310 f   StdDialog.obj
 0001:0006e510       ?GetDispatchMap@CStdDialog@@MBEPBUAFX_DISPMAP@@XZ 1006f510 f   StdDialog.obj
 0001:0006e520       ?GetDotPosition@CStdDialog@@QAEGAAV?$CStringT@DV?$StrTraitMFC_DLL@DV?$ChTraitsCRT@D@ATL@@@@@ATL@@@Z 1006f520 f   StdDialog.obj
 0001:0006e5f0       ?GetELWIndexCode@CStdDialog@@QAEXV?$CStringT@DV?$StrTraitMFC_DLL@DV?$ChTraitsCRT@D@ATL@@@@@ATL@@AAV23@1@Z 1006f5f0 f   StdDialog.obj
 0001:0006e670       ?GetFirstCode@CStdDialog@@QAEXAAV?$CStringT@DV?$StrTraitMFC_DLL@DV?$ChTraitsCRT@D@ATL@@@@@ATL@@@Z 1006f670 f   StdDialog.obj
 0001:0006e6b0       ?GetImaginaryCandleToOutside@CMChartInterface@@MAE_NAA_N@Z 1006f6b0 f i StdDialog.obj
 0001:0006e6c0       ?GetImaginaryCandleToOutside@CStdDialog@@UAE_NAA_N@Z 1006f6c0 f   StdDialog.obj
 0001:0006e6d0       ?GetInputBarInput@CStdDialog@@QAEHXZ 1006f6d0 f   StdDialog.obj
 0001:0006e6e0       ?GetInquiryDataWindowMoveTypeToOutside@CMChartInterface@@MAE_NAAH@Z 1006f6e0 f i StdDialog.obj
 0001:0006e6f0       ?GetInquiryDataWindowTypeToOutside@CMChartInterface@@MAE_NAAH@Z 1006f6f0 f i StdDialog.obj
 0001:0006e700       ?GetInterfaceMap@CStdDialog@@MBEPBUAFX_INTERFACEMAP@@XZ 1006f700 f   StdDialog.obj
 0001:0006e710       ?GetItemNameFromItemCode@CStdDialog@@QAE?AV?$CStringT@DV?$StrTraitMFC_DLL@DV?$ChTraitsCRT@D@ATL@@@@@ATL@@V23@H@Z 1006f710 f   StdDialog.obj
 0001:0006e7d0       ?GetJongMokNameByCode@CStdDialog@@QAE?AV?$CStringT@DV?$StrTraitMFC_DLL@DV?$ChTraitsCRT@D@ATL@@@@@ATL@@PBD0@Z 1006f7d0 f   StdDialog.obj
 0001:0006e820       ?GetMainPath@COutsideCommonInterface@@MBEPBDXZ 1006f820 f i StdDialog.obj
 0001:0006e830       ?GetMainPath@CStdDialog@@QAEPBDXZ 1006f830 f   StdDialog.obj
 0001:0006e840       ?GetMapID@CStdDialog@@QAE?AV?$CStringT@DV?$StrTraitMFC_DLL@DV?$ChTraitsCRT@D@ATL@@@@@ATL@@XZ 1006f840 f   StdDialog.obj
 0001:0006e860       ?GetMarketTypeFromCode@CStdDialog@@QAEHV?$CStringT@DV?$StrTraitMFC_DLL@DV?$ChTraitsCRT@D@ATL@@@@@ATL@@AAH@Z 1006f860 f   StdDialog.obj
 0001:0006e900       ?GetMessageMap@CStdDialog@@MBEPBUAFX_MSGMAP@@XZ 1006f900 f   StdDialog.obj
 0001:0006e910       ?GetRect@CStdDialog@@AAE?AVCRect@@IH@Z 1006f910 f   StdDialog.obj
 0001:0006ee10       ?GetRequestList@CStdDialog@@QAEHPAVCStringList@@0@Z 1006fe10 f   StdDialog.obj
 0001:0006eec0       ?GetRevisedPriceFlag@CMChartInterface061115@@MAEHXZ 1006fec0 f i StdDialog.obj
 0001:0006eed0       ?GetRevisedPriceFlag@CStdDialog@@UAEHXZ 1006fed0 f   StdDialog.obj
 0001:0006eee0       ?GetRightMarginToOutside@CMChartInterface@@MAE_NAAH@Z 1006fee0 f i StdDialog.obj
 0001:0006eef0       ?GetSCDData@CStdDialog@@QAEHV?$CStringT@DV?$StrTraitMFC_DLL@DV?$ChTraitsCRT@D@ATL@@@@@ATL@@AAV23@@Z 1006fef0 f   StdDialog.obj
 0001:0006ef60       ?GetSCDDataFromBosomsg@CStdDialog@@QAEXV?$CStringT@DV?$StrTraitMFC_DLL@DV?$ChTraitsCRT@D@ATL@@@@@ATL@@0PBD@Z 1006ff60 f   StdDialog.obj
 0001:0006f0d0       ?GetShowControlLineTextToOutside@CMChartInterface@@MAE_NAA_N@Z 100700d0 f i StdDialog.obj
 0001:0006f0e0       ?GetShowCrossLineToOutside@CMChartInterface@@MAE_NAA_N@Z 100700e0 f i StdDialog.obj
 0001:0006f0f0       ?GetShowCurrentPriceToOutside@CMChartInterface@@MAE_NAAH@Z 100700f0 f i StdDialog.obj
 0001:0006f100       ?GetShowExRightDividendToOutside@CMChartInterface@@MAE_NAA_N@Z 10070100 f i StdDialog.obj
 0001:0006f110       ?GetShowExRightDividendToOutside@CStdDialog@@UAE_NAA_N@Z 10070110 f   StdDialog.obj
 0001:0006f120       ?GetShowHighLowBoundToOutside@CMChartInterface@@MAE_NAA_N@Z 10070120 f i StdDialog.obj
 0001:0006f130       ?GetShowHighLowBoundToOutside@CStdDialog@@UAE_NAA_N@Z 10070130 f   StdDialog.obj
 0001:0006f140       ?GetShowIndicatorValueToOutside@CMChartInterface@@MAE_NAA_N@Z 10070140 f i StdDialog.obj
 0001:0006f150       ?GetShowIndicatorVariableToOutside@CMChartInterface@@MAE_NAA_N@Z 10070150 f i StdDialog.obj
 0001:0006f160       ?GetShowPriceLineLeftTextToOutside@CMChartInterface@@MAE_NAA_N@Z 10070160 f i StdDialog.obj
 0001:0006f170       ?GetShowPriceLineRightTextToOutside@CMChartInterface@@MAE_NAA_N@Z 10070170 f i StdDialog.obj
 0001:0006f180       ?GetShowQuadrisectionLineTextToOutside@CMChartInterface@@MAE_NAA_N@Z 10070180 f i StdDialog.obj
 0001:0006f190       ?GetShowTimeLineTextToOutside@CMChartInterface@@MAE_NAA_N@Z 10070190 f i StdDialog.obj
 0001:0006f1a0       ?GetShowTrendLineTextToOutside@CMChartInterface@@MAE_NAA_N@Z 100701a0 f i StdDialog.obj
 0001:0006f1b0       ?GetShowTrendLineValueToOutside@CMChartInterface@@MAE_NAAH@Z 100701b0 f i StdDialog.obj
 0001:0006f1c0       ?GetShowTrisectionLineTextToOutside@CMChartInterface@@MAE_NAA_N@Z 100701c0 f i StdDialog.obj
 0001:0006f1d0       ?GetStartEndDateAtStdDialog@CStdDialog@@QAEXAAN0@Z 100701d0 f   StdDialog.obj
 0001:0006f1f0       ?GetStatusEnable@CStdDialog@@QAEHXZ 100701f0 f   StdDialog.obj
 0001:0006f200       ?GetThisDispatchMap@CStdDialog@@KGPBUAFX_DISPMAP@@XZ 10070200 f   StdDialog.obj
 0001:0006f210       ?GetThisInterfaceMap@CStdDialog@@KGPBUAFX_INTERFACEMAP@@XZ 10070210 f   StdDialog.obj
 0001:0006f220       ?GetThisMessageMap@CStdDialog@@KGPBUAFX_MSGMAP@@XZ 10070220 f   StdDialog.obj
 0001:0006f230       ?GetTimeLinkageToOutside@CMChartInterface@@MAE_NAA_N@Z 10070230 f i StdDialog.obj
 0001:0006f240       ?GetTimeLinkageToOutside@CStdDialog@@UAE_NAA_N@Z 10070240 f   StdDialog.obj
 0001:0006f250       ?GetTimeSyncFlag@CStdDialog@@QAEHXZ 10070250 f   StdDialog.obj
 0001:0006f260       ?GetTrendLineColorToOutside@CMChartInterface@@MAE_NAAK@Z 10070260 f i StdDialog.obj
 0001:0006f270       ?GetUseGapRevisionToOutside@CMChartInterface@@MAE_NAA_N@Z 10070270 f i StdDialog.obj
 0001:0006f280       ?GetUserID@COutsideCommonInterface@@MBEPBDXZ 10070280 f i StdDialog.obj
 0001:0006f290       ?GetUserID@CStdDialog@@QAEPBDXZ 10070290 f   StdDialog.obj
 0001:0006f2a0       ?GetWidthOfLeftBar@CStdDialog@@QAEHXZ 100702a0 f   StdDialog.obj
 0001:0006f2b0       ?GetYScalePositionToOutside@CMChartInterface@@MAE_NAAH@Z 100702b0 f i StdDialog.obj
 0001:0006f2c0       ?GridColumnExtend@CStdDialog@@QAEXXZ 100702c0 f   StdDialog.obj
 0001:0006f440       ?HideChart@CStdDialog@@QAEHXZ 10070440 f   StdDialog.obj
 0001:0006f5a0       ?InitChartBySystemTrading@CStdDialog@@QAEXPBD@Z 100705a0 f   StdDialog.obj
 0001:0006f9b0       ?InitDrds@CStdDialog@@QAEXXZ 100709b0 f   StdDialog.obj
 0001:0006fbc0       ?InitImageList@CStdDialog@@QAEXXZ 10070bc0 f   StdDialog.obj
 0001:00070250       ?InitialBtnClick@CStdDialog@@QAEXXZ 10071250 f   StdDialog.obj
 0001:00070270       ?InputCodeFromOutSide@CStdDialog@@QAEXV?$CStringT@DV?$StrTraitMFC_DLL@DV?$ChTraitsCRT@D@ATL@@@@@ATL@@@Z 10071270 f   StdDialog.obj
 0001:000702e0       ?IsActiveDataWindow@CMChartInterface@@MAE_NXZ 100712e0 f i StdDialog.obj
 0001:000702f0       ?IsActiveDataWindow@CStdDialog@@UAE_NXZ 100712f0 f   StdDialog.obj
 0001:00070300       ?IsChartHide@CStdDialog@@QAEHXZ 10071300 f   StdDialog.obj
 0001:00070310       ?IsContinueFutCode@CStdDialog@@QAEHAAV?$CStringT@DV?$StrTraitMFC_DLL@DV?$ChTraitsCRT@D@ATL@@@@@ATL@@@Z 10071310 f   StdDialog.obj
 0001:00070410       ?IsLoad_MarketChart@COutsideCommonInterface@@MBE_NXZ 10071410 f i StdDialog.obj
 0001:00070420       ?IsOutsideInterfaceType@CMChartInterface061115@@MBE?AW4TYPE_OCIF@COutsideCommonInterface@@XZ 10071420 f i StdDialog.obj
 0001:00070430       ?IsOutsideInterfaceType@CMChartInterface@@MBE?AW4TYPE_OCIF@COutsideCommonInterface@@XZ 10071430 f i StdDialog.obj
 0001:00070440       ?IsOutsideInterfaceType@COutsideCommonInterface@@MBE?AW4TYPE_OCIF@1@XZ 10071440 f i StdDialog.obj
 0001:00070450       ?IsSameItemCodeName@CStdDialog@@QAEHPBD@Z 10071450 f   StdDialog.obj
 0001:00070490       ?MakeChartData@CStdDialog@@QAE?AV?$CStringT@DV?$StrTraitMFC_DLL@DV?$ChTraitsCRT@D@ATL@@@@@ATL@@PAXAAHHHHNH@Z 10071490 f   StdDialog.obj
 0001:00070eb0       ?MakeChartData@CStdDialog@@QAE?AV?$CStringT@DV?$StrTraitMFC_DLL@DV?$ChTraitsCRT@D@ATL@@@@@ATL@@PAXHAAHHHHNH@Z 10071eb0 f   StdDialog.obj
 0001:00070ed0       ?MakeDrdsConnectAdviseFromCode@CStdDialog@@QAEHHH@Z 10071ed0 f   StdDialog.obj
 0001:00070f90       ?MakeDrdsUnConnectUnAdviseFromCode@CStdDialog@@QAEHHH@Z 10071f90 f   StdDialog.obj
 0001:00071060       ?MoveWindow@CWnd@@QAEXPBUtagRECT@@H@Z 10072060 f i StdDialog.obj
 0001:00071090       ?NewNode@?$CList@JJ@@IAEPAUCNode@1@PAU21@0@Z 10072090 f i StdDialog.obj
 0001:00071100       ?NewNode@?$CList@P6AXXZP6AXXZ@@IAEPAUCNode@1@PAU21@0@Z 10072100 f i StdDialog.obj
 0001:00071170       ?NewNode@?$CList@UST_GSHAREDFORMAT@@U1@@@IAEPAUCNode@1@PAU21@0@Z 10072170 f i StdDialog.obj
 0001:000711f0       ?NewNode@?$CList@UST_LSHAREDFORMAT@@U1@@@IAEPAUCNode@1@PAU21@0@Z 100721f0 f i StdDialog.obj
 0001:00071270       ?NofityNewDataReceive@CStdDialog@@QAEXXZ 10072270 f   StdDialog.obj
 0001:00071280       ?OnByPass_ExportToolOption@CStdDialog@@IAEJIJ@Z 10072280 f   StdDialog.obj
 0001:000713e0       ?OnCancel@CExOCXDLL@@MAEXXZ 100723e0 f i StdDialog.obj
 0001:000713f0       ?OnChangeSkinColor@CStdDialog@@IAEJIJ@Z 100723f0 f   StdDialog.obj
 0001:00071460       ?OnChartEnvSetupOk@CMChartInterface@@MAE_NXZ 10072460 f i StdDialog.obj
 0001:00071470       ?OnChartEnvSetupOk@CStdDialog@@UAE_NXZ 10072470 f   StdDialog.obj
 0001:00071480       ?OnCodeAdvise@CStdDialog@@QAEXV?$CStringT@DV?$StrTraitMFC_DLL@DV?$ChTraitsCRT@D@ATL@@@@@ATL@@H@Z 10072480 f   StdDialog.obj
 0001:000715f0       ?OnCodeScdClear@CStdDialog@@QAEXV?$CStringT@DV?$StrTraitMFC_DLL@DV?$ChTraitsCRT@D@ATL@@@@@ATL@@H@Z 100725f0 f   StdDialog.obj
 0001:00071650       ?OnCodeUnAdvise@CStdDialog@@QAEXV?$CStringT@DV?$StrTraitMFC_DLL@DV?$ChTraitsCRT@D@ATL@@@@@ATL@@H@Z 10072650 f   StdDialog.obj
 0001:000717c0       ?OnDeleteChartItem@CStdDialog@@QAEXPBD@Z 100727c0 f   StdDialog.obj
 0001:00071960       ?OnDestroy@CStdDialog@@IAEXXZ 10072960 f   StdDialog.obj
 0001:00071c10       ?OnDragEnd@CStdDialog@@IAEJIJ@Z 10072c10 f   StdDialog.obj
 0001:00071f50       ?OnDragStart@CStdDialog@@IAEJIJ@Z 10072f50 f   StdDialog.obj
 0001:00071fd0       ?OnDropData@CStdDialog@@IAEJIJ@Z 10072fd0 f   StdDialog.obj
 0001:00071fe0       ?OnEraseBkgnd@CStdDialog@@IAEHPAVCDC@@@Z 10072fe0 f   StdDialog.obj
 0001:00071ff0       ?OnGSharedDataChange@CStdDialog@@MAEXPBD0H@Z 10072ff0 f   StdDialog.obj
 0001:000720b0       ?OnGetSkinColor@CStdDialog@@IAEJIJ@Z 100730b0 f   StdDialog.obj
 0001:000721a0       ?OnIndicatorAddOrRemoved@CMChartInterface061115@@MAEHPBDH@Z 100731a0 f i StdDialog.obj
 0001:000721b0       ?OnIndicatorAddOrRemoved@CStdDialog@@UAEHPBDH@Z 100731b0 f   StdDialog.obj
 0001:000721c0       ?OnInitDialog@CStdDialog@@MAEHXZ 100731c0 f   StdDialog.obj
 0001:00072880       ?OnLButtonDown@CStdDialog@@IAEXIVCPoint@@@Z 10073880 f   StdDialog.obj
 0001:00072890       ?OnOK@CExOCXDLL@@MAEXXZ    10073890 f i StdDialog.obj
 0001:000728a0       ?OnOrderInfomationChanged@CMChartInterface061115@@MAEHNHHPBD000@Z 100738a0 f i StdDialog.obj
 0001:000728b0       ?OnPaint@CStdDialog@@IAEXXZ 100738b0 f   StdDialog.obj
 0001:00072940       ?OnSelectChartItem@CStdDialog@@QAEXPAU_ST_SELCHART@@@Z 10073940 f   StdDialog.obj
 0001:00072950       ?OnSetCursor@CStdDialog@@IAEHPAVCWnd@@II@Z 10073950 f   StdDialog.obj
 0001:00072990       ?OnSize@CStdDialog@@IAEXIHH@Z 10073990 f   StdDialog.obj
 0001:000729c0       ?OnTimer@CStdDialog@@IAEXI@Z 100739c0 f   StdDialog.obj
 0001:00072af0       ?OnToolStateChanged@CMChartInterface061115@@MAEHW4TOOLOPTION@CToolOptionInfo@@H@Z 10073af0 f i StdDialog.obj
 0001:00072b00       ?OnToolStateChanged@CStdDialog@@UAEHW4TOOLOPTION@CToolOptionInfo@@H@Z 10073b00 f   StdDialog.obj
 0001:00072b10       ?OnUserInfo@CStdDialog@@IAEJIJ@Z 10073b10 f   StdDialog.obj
 0001:00072b40       ?OnUserZoomChanged@CMChartInterface061115@@MAEHH@Z 10073b40 f i StdDialog.obj
 0001:00072b50       ?OnUserZoomChanged@CStdDialog@@UAEHH@Z 10073b50 f   StdDialog.obj
 0001:00072b70       ?OnWmSplitterMoved@CStdDialog@@IAEJIJ@Z 10073b70 f   StdDialog.obj
 0001:00072c00       ?Parser@@YA?AV?$CStringT@DV?$StrTraitMFC_DLL@DV?$ChTraitsCRT@D@ATL@@@@@ATL@@PBDPAH@Z 10073c00 f   StdDialog.obj
 0001:00072cf0       ?Platform_Initialize@CStdDialog@@MAEXJJJPAVCStringList@@@Z 10073cf0 f   StdDialog.obj
 0001:00072d00       ?Platform_OnSize@CStdDialog@@MAEXIHH@Z 10073d00 f   StdDialog.obj
 0001:00072d10       ?Platform_PreTranslateMessage@CStdDialog@@MAEJPAUtagMSG@@@Z 10073d10 f   StdDialog.obj
 0001:00072d30       ?Platform_WindowProc@CStdDialog@@MAEJIIJAAH@Z 10073d30 f   StdDialog.obj
 0001:00072d40       ?PreTranslateMessage@CStdDialog@@UAEHPAUtagMSG@@@Z 10073d40 f   StdDialog.obj
 0001:00072e10       ?ReceiveData@CStdDialog@@UAEJJPBD00PAXJ@Z 10073e10 f   StdDialog.obj
 0001:00073450       ?ReceiveMessage@CStdDialog@@UAEJJPBD00@Z 10074450 f   StdDialog.obj
 0001:00073570       ?ReceiveNoticeData@IPartnerSite@@UAGJPBDJ@Z 10074570 f i StdDialog.obj
 0001:00073580       ?ReceiveRealData@CStdDialog@@UAEJGPBDPAX@Z 10074580 f   StdDialog.obj
 0001:00073590       ?RecieveError@CStdDialog@@QAEJHPBD@Z 10074590 f   StdDialog.obj
 0001:000735b0       ?RemoveAll@?$CList@JJ@@QAEXXZ 100745b0 f i StdDialog.obj
 0001:000735e0       ?RemoveAll@?$CList@P6AXXZP6AXXZ@@QAEXXZ 100745e0 f i StdDialog.obj
 0001:00073610       ?RemoveAll@?$CList@UST_GSHAREDFORMAT@@U1@@@QAEXXZ 10074610 f i StdDialog.obj
 0001:00073670       ?RemoveAll@?$CList@UST_LSHAREDFORMAT@@U1@@@QAEXXZ 10074670 f i StdDialog.obj
 0001:000736d0       ?RemoveAt@?$CArray@USTTRINFO@@U1@@@QAEXHH@Z 100746d0 f i StdDialog.obj
 0001:000737c0       ?RemoveGraph@CStdDialog@@QAEHHHV?$CStringT@DV?$StrTraitMFC_DLL@DV?$ChTraitsCRT@D@ATL@@@@@ATL@@0@Z 100747c0 f   StdDialog.obj
 0001:00073880       ?RemoveGraph_Title@CStdDialog@@QAEHHHV?$CStringT@DV?$StrTraitMFC_DLL@DV?$ChTraitsCRT@D@ATL@@@@@ATL@@0H@Z 10074880 f   StdDialog.obj
 0001:00073930       ?RemoveHead@?$CList@JJ@@QAEJXZ 10074930 f i StdDialog.obj
 0001:000739a0       ?RemoveRealCodes@CStdDialog@@QAEXPAV?$CList@UST_CODEDATA@@U1@@@V?$CStringT@DV?$StrTraitMFC_DLL@DV?$ChTraitsCRT@D@ATL@@@@@ATL@@@Z 100749a0 f   StdDialog.obj
 0001:000739b0       ?RequestTRFormCode@CStdDialog@@QAEHPBDH@Z 100749b0 f   StdDialog.obj
 0001:00073aa0       ?RequestTRPacket@COutsideCommonInterface@@MAEXFQBDF_N@Z 10074aa0 f i StdDialog.obj
 0001:00073ab0       ?Request_Disconnect_StockRealHogaData@CStdDialog@@QAEXV?$CStringT@DV?$StrTraitMFC_DLL@DV?$ChTraitsCRT@D@ATL@@@@@ATL@@@Z 10074ab0 f   StdDialog.obj
 0001:00073ac0       ?Request_StockRealHogaData@CStdDialog@@QAEXV?$CStringT@DV?$StrTraitMFC_DLL@DV?$ChTraitsCRT@D@ATL@@@@@ATL@@@Z 10074ac0 f   StdDialog.obj
 0001:00073b40       ?ResetChartAll@CStdDialog@@QAEXXZ 10074b40 f   StdDialog.obj
 0001:00073b50       ?Resize@CStdDialog@@QAEXXZ 10074b50 f   StdDialog.obj
 0001:00073f50       ?Send2HanHwa_09501@CStdDialog@@QAEXPAXHPAVCWnd@@V?$CStringT@DV?$StrTraitMFC_DLL@DV?$ChTraitsCRT@D@ATL@@@@@ATL@@@Z 10074f50 f   StdDialog.obj
 0001:00073fd0       ?Send2HanHwa_IFCond@CStdDialog@@QAEXPAXHPAVCWnd@@V?$CStringT@DV?$StrTraitMFC_DLL@DV?$ChTraitsCRT@D@ATL@@@@@ATL@@@Z 10074fd0 f   StdDialog.obj
 0001:00074050       ?Send2Server@CStdDialog@@AAEHPBD0HHH@Z 10075050 f   StdDialog.obj
 0001:00074310       ?SendFutureReal@CStdDialog@@QAEXPAD@Z 10075310 f   StdDialog.obj
 0001:00074320       ?SendHogaNCodeToSpeedJumun@CStdDialog@@QAEXV?$CStringT@DV?$StrTraitMFC_DLL@DV?$ChTraitsCRT@D@ATL@@@@@ATL@@0@Z 10075320 f   StdDialog.obj
 0001:00074380       ?SendMessage2StatusBar@CStdDialog@@QAEXHPBDH@Z 10075380 f   StdDialog.obj
 0001:00074410       ?SendOptionReal@CStdDialog@@QAEXPAD@Z 10075410 f   StdDialog.obj
 0001:00074420       ?SendStockReal@CStdDialog@@QAEXPAD@Z 10075420 f   StdDialog.obj
 0001:00074430       ?SendToChartMngCode@CStdDialog@@QAEXPBD@Z 10075430 f   StdDialog.obj
 0001:000744e0       ?SendUpjongReal@CStdDialog@@QAEXPAD@Z 100754e0 f   StdDialog.obj
 0001:000744f0       ?Serialize@?$CArray@PAUHWND__@@PAU1@@@UAEXAAVCArchive@@@Z 100754f0 f i StdDialog.obj
 0001:000745d0       ?Serialize@?$CArray@USTTRINFO@@U1@@@UAEXAAVCArchive@@@Z 100755d0 f i StdDialog.obj
 0001:000746b0       ?Serialize@?$CList@JJ@@UAEXAAVCArchive@@@Z 100756b0 f i StdDialog.obj
 0001:00074840       ?Serialize@?$CList@P6AXXZP6AXXZ@@UAEXAAVCArchive@@@Z 10075840 f i StdDialog.obj
 0001:00074a50       ?Serialize@?$CList@PAVCDlgCompGroupData@@PAV1@@@UAEXAAVCArchive@@@Z 10075a50 f i StdDialog.obj
 0001:00074c60       ?Serialize@?$CList@UST_GSHAREDFORMAT@@U1@@@UAEXAAVCArchive@@@Z 10075c60 f i StdDialog.obj
 0001:00074f50       ?Serialize@?$CList@UST_LSHAREDFORMAT@@U1@@@UAEXAAVCArchive@@@Z 10075f50 f i StdDialog.obj
 0001:00075240       ?SetAtGrow@?$CArray@USTTRINFO@@U1@@@QAEXHUSTTRINFO@@@Z 10076240 f i StdDialog.obj
 0001:000752d0       ?SetAutoSaveToOutside@CMChartInterface@@MAE_N_N@Z 100762d0 f i StdDialog.obj
 0001:000752e0       ?SetAutoSaveToOutside@CStdDialog@@UAE_N_N@Z 100762e0 f   StdDialog.obj
 0001:00075300       ?SetChartBySystemTrading@CStdDialog@@QAEXH@Z 10076300 f   StdDialog.obj
 0001:000755d0       ?SetComma@@YA?AV?$CStringT@DV?$StrTraitMFC_DLL@DV?$ChTraitsCRT@D@ATL@@@@@ATL@@V12@H@Z 100765d0 f   StdDialog.obj
 0001:00075830       ?SetDataWindowData@CMChartInterface@@MAEXPAV?$CList@V?$CStringT@DV?$StrTraitMFC_DLL@DV?$ChTraitsCRT@D@ATL@@@@@ATL@@AAV12@@@@Z 10076830 f i StdDialog.obj
 0001:00075840       ?SetDataWindowData@CStdDialog@@UAEXPAV?$CList@V?$CStringT@DV?$StrTraitMFC_DLL@DV?$ChTraitsCRT@D@ATL@@@@@ATL@@AAV12@@@@Z 10076840 f   StdDialog.obj
 0001:00075850       ?SetGraphHide3@CStdDialog@@QAEXV?$CStringT@DV?$StrTraitMFC_DLL@DV?$ChTraitsCRT@D@ATL@@@@@ATL@@0H@Z 10076850 f   StdDialog.obj
 0001:000758c0       ?SetImaginaryCandleAndGapRevisionToOutside@CMChartInterface@@MAE_N_N0@Z 100768c0 f i StdDialog.obj
 0001:000758d0       ?SetImaginaryCandleToOutside@CStdDialog@@QAE_N_N@Z 100768d0 f   StdDialog.obj
 0001:00075930       ?SetInitInfo@CStdDialog@@QAEXXZ 10076930 f   StdDialog.obj
 0001:00075b10       ?SetInquiryDataWindowMoveTypeToOutside@CMChartInterface@@MAE_NH@Z 10076b10 f i StdDialog.obj
 0001:00075b20       ?SetInquiryDataWindowTypeToOutside@CMChartInterface@@MAE_NH@Z 10076b20 f i StdDialog.obj
 0001:00075b30       ?SetJongListNext@CStdDialog@@QAEXXZ 10076b30 f   StdDialog.obj
 0001:00075b40       ?SetJongListPrev@CStdDialog@@QAEXXZ 10076b40 f   StdDialog.obj
 0001:00075b50       ?SetLeftBarType@CStdDialog@@QAEXI@Z 10076b50 f   StdDialog.obj
 0001:00075f00       ?SetOneClickHide@CStdDialog@@QAEXH@Z 10076f00 f   StdDialog.obj
 0001:00076260       ?SetPriceLog@CMChartInterface@@MAE_N_N@Z 10077260 f i StdDialog.obj
 0001:00076270       ?SetPriceLog@CStdDialog@@UAE_N_N@Z 10077270 f   StdDialog.obj
 0001:00076290       ?SetRealInfo@COutsideCommonInterface@@MAEXPAXPAUHWND__@@IPAD22@Z 10077290 f i StdDialog.obj
 0001:000762a0       ?SetRealInfo@CStdDialog@@UAEXPAXPAUHWND__@@IPAD22@Z 100772a0 f   StdDialog.obj
 0001:00076300       ?SetRevisedPriceFlag@CMChartInterface061115@@MAEHH@Z 10077300 f i StdDialog.obj
 0001:00076310       ?SetRevisedPriceFlag@CStdDialog@@UAEHH@Z 10077310 f   StdDialog.obj
 0001:00076340       ?SetRightMarginToOutside@CMChartInterface@@MAE_NH@Z 10077340 f i StdDialog.obj
 0001:00076350       ?SetShowControlLineTextToOutside@CMChartInterface@@MAE_N_N@Z 10077350 f i StdDialog.obj
 0001:00076360       ?SetShowCrossLineToOutside@CMChartInterface@@MAE_N_N@Z 10077360 f i StdDialog.obj
 0001:00076370       ?SetShowCurrentPriceToOutside@CMChartInterface@@MAE_NH@Z 10077370 f i StdDialog.obj
 0001:00076380       ?SetShowExRightDividendToOutside@CMChartInterface@@MAE_N_N@Z 10077380 f i StdDialog.obj
 0001:00076390       ?SetShowExRightDividendToOutside@CStdDialog@@UAE_N_N@Z 10077390 f   StdDialog.obj
 0001:000763e0       ?SetShowExtInputBarDlg@CStdDialog@@QAEXH@Z 100773e0 f   StdDialog.obj
 0001:00076400       ?SetShowHighLowBoundToOutside@CMChartInterface@@MAE_N_N@Z 10077400 f i StdDialog.obj
 0001:00076410       ?SetShowHighLowBoundToOutside@CStdDialog@@UAE_N_N@Z 10077410 f   StdDialog.obj
 0001:00076430       ?SetShowIndicatorValueToOutside@CMChartInterface@@MAE_N_N@Z 10077430 f i StdDialog.obj
 0001:00076440       ?SetShowIndicatorVariableToOutside@CMChartInterface@@MAE_N_N@Z 10077440 f i StdDialog.obj
 0001:00076450       ?SetShowPriceLineLeftTextToOutside@CMChartInterface@@MAE_N_N@Z 10077450 f i StdDialog.obj
 0001:00076460       ?SetShowPriceLineRightTextToOutside@CMChartInterface@@MAE_N_N@Z 10077460 f i StdDialog.obj
 0001:00076470       ?SetShowQuadrisectionLineTextToOutside@CMChartInterface@@MAE_N_N@Z 10077470 f i StdDialog.obj
 0001:00076480       ?SetShowTimeLineTextToOutside@CMChartInterface@@MAE_N_N@Z 10077480 f i StdDialog.obj
 0001:00076490       ?SetShowTrendLineTextToOutside@CMChartInterface@@MAE_N_N@Z 10077490 f i StdDialog.obj
 0001:000764a0       ?SetShowTrendLineValueToOutside@CMChartInterface@@MAE_NH@Z 100774a0 f i StdDialog.obj
 0001:000764b0       ?SetShowTrisectionLineTextToOutside@CMChartInterface@@MAE_N_N@Z 100774b0 f i StdDialog.obj
 0001:000764c0       ?SetSize@?$CArray@PAUHWND__@@PAU1@@@QAEXHH@Z 100774c0 f i StdDialog.obj
 0001:000766a0       ?SetSize@?$CArray@USTTRINFO@@U1@@@QAEXHH@Z 100776a0 f i StdDialog.obj
 0001:00076960       ?SetSmallView@CStdDialog@@QAEXH@Z 10077960 f   StdDialog.obj
 0001:000769d0       ?SetTimeLinkageToOutside@CMChartInterface@@MAE_N_N@Z 100779d0 f i StdDialog.obj
 0001:000769e0       ?SetTimeLinkageToOutside@CStdDialog@@UAE_N_N@Z 100779e0 f   StdDialog.obj
 0001:00076a00       ?SetTimeSyncFlag@CStdDialog@@QAEXH@Z 10077a00 f   StdDialog.obj
 0001:00076a10       ?SetTrendLineColorToOutside@CMChartInterface@@MAE_NK@Z 10077a10 f i StdDialog.obj
 0001:00076a20       ?SetYScalePositionToOutside@CMChartInterface@@MAE_NH@Z 10077a20 f i StdDialog.obj
 0001:00076a30       ?SetupChartUtil@CStdDialog@@QAEHXZ 10077a30 f   StdDialog.obj
 0001:00076b00       ?ShowDataListView@CStdDialog@@QAEXHVCRect@@@Z 10077b00 f   StdDialog.obj
 0001:00076c30       ?StatusChange@CStdDialog@@UAEJH@Z 10077c30 f   StdDialog.obj
 0001:00076ca0       ?TrackPopupMenu@CStdDialog@@IAEHXZ 10077ca0 f   StdDialog.obj
 0001:00076cc0       ?UnSetRealInfo@COutsideCommonInterface@@MAEXPAXPAUHWND__@@IPAD22@Z 10077cc0 f i StdDialog.obj
 0001:00076cd0       ?UnSetRealInfo@CStdDialog@@UAEXPAXPAUHWND__@@IPAD22@Z 10077cd0 f   StdDialog.obj
 0001:00076ce0       ?WindowProc@CStdDialog@@MAEJIIJ@Z 10077ce0 f   StdDialog.obj
 0001:000778c0       ?_DoCheckDaultDataFile@CStdDialog@@QAEXPBD0@Z 100788c0 f   StdDialog.obj
 0001:00077a80       ?_DoCheckRecentFuture@CStdDialog@@QAEXPBD@Z 10078a80 f   StdDialog.obj
 0001:00077b70       ?_DoCopyDefaultToUser@CStdDialog@@QAEXPBD@Z 10078b70 f   StdDialog.obj
 0001:00077d00       ?DoSetPartnerSite@CStdDialog@@QAEXPAUIPartnerManager@@@Z 10078d00 f   StdDialogPartnerSite.obj
 0001:00077d40       ?ReceiveOnUser@CPartnerSite@CStdDialog@@UAGJIJ@Z 10078d40 f   StdDialogPartnerSite.obj
 0001:00077d50       ?RecieveFidData@CPartnerSite@CStdDialog@@UAGJJPBD00PAXJ@Z 10078d50 f   StdDialogPartnerSite.obj
 0001:00077d80       ?RecieveKeyData@CPartnerSite@CStdDialog@@UAGJHPBD@Z 10078d80 f   StdDialogPartnerSite.obj
 0001:00077e70       ?RecieveRealData@CPartnerSite@CStdDialog@@UAGJJJ@Z 10078e70 f   StdDialogPartnerSite.obj
 0001:00077eb0       ?RecieveRealDataEx@CPartnerSite@CStdDialog@@UAGJJPBDJ@Z 10078eb0 f   StdDialogPartnerSite.obj
 0001:00077ec0       ?RecieveTRData@CPartnerSite@CStdDialog@@UAGJJPBD00PAXJ@Z 10078ec0 f   StdDialogPartnerSite.obj
 0001:00077f10       ??$SerializeElements@U_codeinfo@@@@YGXAAVCArchive@@PAU_codeinfo@@H@Z 10078f10 f i TabCodeSearchFO.obj
 0001:00077fb0       ??0?$CList@U_codeinfo@@AAU1@@@QAE@H@Z 10078fb0 f i TabCodeSearchFO.obj
 0001:00077ff0       ??0CTabCodeSearchFO@@QAE@PAVCWnd@@@Z 10078ff0 f   TabCodeSearchFO.obj
 0001:000781c0       ??0_codeinfo@@QAE@XZ       100791c0 f i TabCodeSearchFO.obj
 0001:000781f0       ??1?$CList@U_codeinfo@@AAU1@@@UAE@XZ 100791f0 f i TabCodeSearchFO.obj
 0001:00078260       ??1_GV_ITEM@@QAE@XZ        10079260 f i TabCodeSearchFO.obj
 0001:00078270       ??_E?$CList@U_codeinfo@@AAU1@@@UAEPAXI@Z 10079270 f i TabCodeSearchFO.obj
 0001:00078270       ??_G?$CList@U_codeinfo@@AAU1@@@UAEPAXI@Z 10079270 f i TabCodeSearchFO.obj
 0001:00078320       ??_GCTabCodeSearchFO@@UAEPAXI@Z 10079320 f i TabCodeSearchFO.obj
 0001:00078320       ??_ECTabCodeSearchFO@@UAEPAXI@Z 10079320 f i TabCodeSearchFO.obj
 0001:00078460       ?AddTail@?$CList@U_codeinfo@@AAU1@@@QAEPAU__POSITION@@AAU_codeinfo@@@Z 10079460 f i TabCodeSearchFO.obj
 0001:00078510       ?ChangeGridRowCol@CTabCodeSearchFO@@QAEXXZ 10079510 f   TabCodeSearchFO.obj
 0001:000785b0       ?CompareFileName@@YAHPBX0@Z 100795b0 f   TabCodeSearchFO.obj
 0001:000786e0       ?DoDataExchange@CTabCodeSearchFO@@MAEXPAVCDataExchange@@@Z 100796e0 f   TabCodeSearchFO.obj
 0001:00078750       ?GetCodeInfo@CTabCodeSearchFO@@QAEHHAAH0AAV?$CStringT@DV?$StrTraitMFC_DLL@DV?$ChTraitsCRT@D@ATL@@@@@ATL@@@Z 10079750 f   TabCodeSearchFO.obj
 0001:00078890       ?GetGridExercise@CTabCodeSearchFO@@QAEHH@Z 10079890 f   TabCodeSearchFO.obj
 0001:000788c0       ?GetGridRow@CTabCodeSearchFO@@QAEHH@Z 100798c0 f   TabCodeSearchFO.obj
 0001:00078910       ?GetInsertGridDataText@CTabCodeSearchFO@@QAE?AV?$CStringT@DV?$StrTraitMFC_DLL@DV?$ChTraitsCRT@D@ATL@@@@@ATL@@HH@Z 10079910 f   TabCodeSearchFO.obj
 0001:000789e0       ?GetMessageMap@CTabCodeSearchFO@@MBEPBUAFX_MSGMAP@@XZ 100799e0 f   TabCodeSearchFO.obj
 0001:000789f0       ?GetRealExercise@CTabCodeSearchFO@@QAEJH@Z 100799f0 f   TabCodeSearchFO.obj
 0001:00078a20       ?GetRectOfCtrl@CTabCodeSearchFO@@UAE?AVCRect@@HH@Z 10079a20 f   TabCodeSearchFO.obj
 0001:00078a90       ?GetThisMessageMap@CTabCodeSearchFO@@KGPBUAFX_MSGMAP@@XZ 10079a90 f   TabCodeSearchFO.obj
 0001:00078aa0       ?InitGrid@CTabCodeSearchFO@@QAEXXZ 10079aa0 f   TabCodeSearchFO.obj
 0001:00078c80       ?InitGridRowCol@CTabCodeSearchFO@@QAEXXZ 10079c80 f   TabCodeSearchFO.obj
 0001:00078d20       ?InitMasterData@CTabCodeSearchFO@@QAEHXZ 10079d20 f   TabCodeSearchFO.obj
 0001:000799f0       ?InsertGridData@CTabCodeSearchFO@@QAEXXZ 1007a9f0 f   TabCodeSearchFO.obj
 0001:00079bc0       ?InsertMasterData@CTabCodeSearchFO@@QAEXH@Z 1007abc0 f   TabCodeSearchFO.obj
 0001:00079ee0       ?NewNode@?$CList@U_codeinfo@@AAU1@@@IAEPAUCNode@1@PAU21@0@Z 1007aee0 f i TabCodeSearchFO.obj
 0001:00079f70       ?OnClickRadioKospi200@CTabCodeSearchFO@@IAEXXZ 1007af70 f   TabCodeSearchFO.obj
 0001:00079fc0       ?OnClickRadioMiniKospi@CTabCodeSearchFO@@IAEXXZ 1007afc0 f   TabCodeSearchFO.obj
 0001:0007a010       ?OnClickRadioWeeklyKospi@CTabCodeSearchFO@@IAEXXZ 1007b010 f   TabCodeSearchFO.obj
 0001:0007a060       ?OnCtlColor@CTabCodeSearchFO@@IAEPAUHBRUSH__@@PAVCDC@@PAVCWnd@@I@Z 1007b060 f   TabCodeSearchFO.obj
 0001:0007a0b0       ?OnDblclkListFuture@CTabCodeSearchFO@@IAEXXZ 1007b0b0 f   TabCodeSearchFO.obj
 0001:0007a320       ?OnDestroy@CTabCodeSearchFO@@IAEXXZ 1007b320 f   TabCodeSearchFO.obj
 0001:0007a370       ?OnEditchangeComboMonth@CTabCodeSearchFO@@IAEXXZ 1007b370 f   TabCodeSearchFO.obj
 0001:0007a3a0       ?OnInitDialog@CTabCodeSearchFO@@MAEHXZ 1007b3a0 f   TabCodeSearchFO.obj
 0001:0007a4b0       ?OnSelchangeComboMonth@CTabCodeSearchFO@@IAEXXZ 1007b4b0 f   TabCodeSearchFO.obj
 0001:0007a4f0       ?OnSelchangeListFuture@CTabCodeSearchFO@@IAEXXZ 1007b4f0 f   TabCodeSearchFO.obj
 0001:0007a700       ?OnSize@CTabCodeSearchFO@@IAEXIHH@Z 1007b700 f   TabCodeSearchFO.obj
 0001:0007a740       ?RecalcLayout@CTabCodeSearchFO@@QAEXXZ 1007b740 f   TabCodeSearchFO.obj
 0001:0007a770       ?ReceiveData@CTabDlg@@UAEXPAUHWND__@@PBD11PAXJ@Z 1007b770 f i TabCodeSearchFO.obj
 0001:0007a780       ?ReceiveDataFromOutSide@CTabDlg@@UAEXXZ 1007b780 f i TabCodeSearchFO.obj
 0001:0007a790       ?RemoveAll@?$CList@U_codeinfo@@AAU1@@@QAEXXZ 1007b790 f i TabCodeSearchFO.obj
 0001:0007a7c0       ?Serialize@?$CList@U_codeinfo@@AAU1@@@UAEXAAVCArchive@@@Z 1007b7c0 f i TabCodeSearchFO.obj
 0001:0007a990       ?SetCodeFromOutSide@CTabDlg@@UAEXPBD@Z 1007b990 f i TabCodeSearchFO.obj
 0001:0007a9a0       ?SetRealPriceData@CTabDlg@@UAEXPAX@Z 1007b9a0 f i TabCodeSearchFO.obj
 0001:0007a9b0       ?SortFileName@@YAXAAVCStringArray@@@Z 1007b9b0 f   TabCodeSearchFO.obj
 0001:0007a9d0       ?UpdateHogaData@CTabCodeSearchFO@@QAEXHHNKH@Z 1007b9d0 f   TabCodeSearchFO.obj
 0001:0007aa80       ?WindowProc@CTabCodeSearchFO@@MAEJIIJ@Z 1007ba80 f   TabCodeSearchFO.obj
 0001:0007afc0       ??0CTabDlg@@QAE@IPAVCWnd@@@Z 1007bfc0 f   TabDlg.obj
 0001:0007b010       ??1CTabDlg@@UAE@XZ         1007c010 f   TabDlg.obj
 0001:0007b040       ??_ECTabDlg@@UAEPAXI@Z     1007c040 f i TabDlg.obj
 0001:0007b040       ??_GCTabDlg@@UAEPAXI@Z     1007c040 f i TabDlg.obj
 0001:0007b0a0       ?DoDataExchange@CTabDlg@@MAEXPAVCDataExchange@@@Z 1007c0a0 f   TabDlg.obj
 0001:0007b0b0       ?GetMessageMap@CTabDlg@@MBEPBUAFX_MSGMAP@@XZ 1007c0b0 f   TabDlg.obj
 0001:0007b0c0       ?GetRectOfCtrl@CTabDlg@@MAE?AVCRect@@HH@Z 1007c0c0 f i TabDlg.obj
 0001:0007b0f0       ?GetThisMessageMap@CTabDlg@@KGPBUAFX_MSGMAP@@XZ 1007c0f0 f   TabDlg.obj
 0001:0007b100       ?OnDestroy@CTabDlg@@IAEXXZ 1007c100 f   TabDlg.obj
 0001:0007b120       ?OnInitDialog@CTabDlg@@MAEHXZ 1007c120 f   TabDlg.obj
 0001:0007b160       ?PreTranslateMessage@CTabDlg@@UAEHPAUtagMSG@@@Z 1007c160 f   TabDlg.obj
 0001:0007b1c0       ?RecalcLayoutCtrl@CTabDlg@@IAEXAAVCWnd@@H@Z 1007c1c0 f   TabDlg.obj
 0001:0007b230       ??0CTabDlgCreator@@QAE@XZ  1007c230 f   TabDlgCreator.obj
 0001:0007b260       ??1CTabDlgCreator@@UAE@XZ  1007c260 f   TabDlgCreator.obj
 0001:0007b270       ??_ECTabDlgCreator@@UAEPAXI@Z 1007c270 f i TabDlgCreator.obj
 0001:0007b270       ??_GCTabDlgCreator@@UAEPAXI@Z 1007c270 f i TabDlgCreator.obj
 0001:0007b2a0       ?CreateTabDlg@CTabDlgCreator@@QAEPAVCTabDlg@@I@Z 1007c2a0 f   TabDlgCreator.obj
 0001:0007b500       ?GetCaptionOfTabDlg@CTabDlgCreator@@QAEXIPAD@Z 1007c500 f   TabDlgCreator.obj
 0001:0007b580       ?GetCntOfTabDlg@CTabDlgCreator@@QAEHXZ 1007c580 f   TabDlgCreator.obj
 0001:0007b590       ?Init@CTabDlgCreator@@QAEXPAVCWnd@@PAVCLeftBarDlg@@PAVCTabCtrl@@0PAX@Z 1007c590 f   TabDlgCreator.obj
 0001:0007b5c0       ??0CTabELWDlg@@QAE@PAVCWnd@@@Z 1007c5c0 f   TabELWDlg.obj
 0001:0007b6d0       ??1CCodeTypeA@@QAE@XZ      1007c6d0 f i TabELWDlg.obj
 0001:0007b6f0       ??1CInputCodeListEx@@QAE@XZ 1007c6f0 f i TabELWDlg.obj
 0001:0007b710       ??_GCTabELWDlg@@UAEPAXI@Z  1007c710 f i TabELWDlg.obj
 0001:0007b710       ??_ECTabELWDlg@@UAEPAXI@Z  1007c710 f i TabELWDlg.obj
 0001:0007b790       ?Convert2@CCodeTypeA@@UAEXPAD@Z 1007c790 f i TabELWDlg.obj
 0001:0007b800       ?Convert2@CCodeTypeBase@@UAEXPAD@Z 1007c800 f i TabELWDlg.obj
 0001:0007b810       ?Convert@CCodeTypeA@@UAEXPAD@Z 1007c810 f i TabELWDlg.obj
 0001:0007b890       ?Convert@CCodeTypeBase@@UAEXPAD@Z 1007c890 f i TabELWDlg.obj
 0001:0007b8a0       ?ConvertOneClickData@CCodeTypeA@@UAEXPAD@Z 1007c8a0 f i TabELWDlg.obj
 0001:0007b8b0       ?ConvertOneClickData@CCodeTypeBase@@UAEXPAD@Z 1007c8b0 f i TabELWDlg.obj
 0001:0007b960       ?DoDataExchange@CTabELWDlg@@MAEXPAVCDataExchange@@@Z 1007c960 f   TabELWDlg.obj
 0001:0007b9c0       ?GetMessageMap@CTabELWDlg@@MBEPBUAFX_MSGMAP@@XZ 1007c9c0 f   TabELWDlg.obj
 0001:0007b9d0       ?GetThisMessageMap@CTabELWDlg@@KGPBUAFX_MSGMAP@@XZ 1007c9d0 f   TabELWDlg.obj
 0001:0007b9e0       ?InitTreeSearch@CTabELWDlg@@QAEXXZ 1007c9e0 f   TabELWDlg.obj
 0001:0007bb80       ?OnBtnAdd@CTabELWDlg@@IAEXXZ 1007cb80 f   TabELWDlg.obj
 0001:0007bcd0       ?OnDestroy@CTabELWDlg@@IAEXXZ 1007ccd0 f   TabELWDlg.obj
 0001:0007bd00       ?OnInitDialog@CTabELWDlg@@MAEHXZ 1007cd00 f   TabELWDlg.obj
 0001:0007c000       ?OnSelchangedTreesearch@CTabELWDlg@@IAEXPAUtagNMHDR@@PAJ@Z 1007d000 f   TabELWDlg.obj
 0001:0007c0e0       ?OnSize@CTabELWDlg@@IAEXIHH@Z 1007d0e0 f   TabELWDlg.obj
 0001:0007c1e0       ?PreTranslateMessage@CTabELWDlg@@UAEHPAUtagMSG@@@Z 1007d1e0 f   TabELWDlg.obj
 0001:0007c220       ?ReceiveData@CTLMCallback@CTabELWDlg@@EAGXHDJHPAX@Z 1007d220 f   TabELWDlg.obj
 0001:0007c380       ?WindowProc@CTabELWDlg@@MAEJIIJ@Z 1007d380 f   TabELWDlg.obj
 0001:0007c440       ?fnRemovelistStockCode@CTabELWDlg@@QAEXXZ 1007d440 f   TabELWDlg.obj
 0001:0007c4e0       ??0CTabForeignDlg@@QAE@PAVCWnd@@@Z 1007d4e0 f   TabForeignDlg.obj
 0001:0007c5f0       ??_ECTabForeignDlg@@UAEPAXI@Z 1007d5f0 f i TabForeignDlg.obj
 0001:0007c5f0       ??_GCTabForeignDlg@@UAEPAXI@Z 1007d5f0 f i TabForeignDlg.obj
 0001:0007c670       ?AdviseGwansim@CTabForeignDlg@@QAEXXZ 1007d670 f   TabForeignDlg.obj
 0001:0007c680       ?DataMonitorCallbackProc@CTabForeignDlg@@SGXPBDJJJJ@Z 1007d680 f   TabForeignDlg.obj
 0001:0007c6e0       ?DoDataExchange@CTabForeignDlg@@MAEXPAVCDataExchange@@@Z 1007d6e0 f   TabForeignDlg.obj
 0001:0007c740       ?GetMessageMap@CTabForeignDlg@@MBEPBUAFX_MSGMAP@@XZ 1007d740 f   TabForeignDlg.obj
 0001:0007c750       ?GetThisMessageMap@CTabForeignDlg@@KGPBUAFX_MSGMAP@@XZ 1007d750 f   TabForeignDlg.obj
 0001:0007c760       ?InitTreeSearch@CTabForeignDlg@@QAEXXZ 1007d760 f   TabForeignDlg.obj
 0001:0007c8e0       ?OnBtnAdd@CTabForeignDlg@@IAEXXZ 1007d8e0 f   TabForeignDlg.obj
 0001:0007ca30       ?OnDestroy@CTabForeignDlg@@IAEXXZ 1007da30 f   TabForeignDlg.obj
 0001:0007ca80       ?OnInitDialog@CTabForeignDlg@@MAEHXZ 1007da80 f   TabForeignDlg.obj
 0001:0007ce40       ?OnSelchangeCodeInput@CTabForeignDlg@@IAEXXZ 1007de40 f   TabForeignDlg.obj
 0001:0007ce50       ?OnSelchangedTreesearch@CTabForeignDlg@@IAEXPAUtagNMHDR@@PAJ@Z 1007de50 f   TabForeignDlg.obj
 0001:0007cf30       ?OnSize@CTabForeignDlg@@IAEXIHH@Z 1007df30 f   TabForeignDlg.obj
 0001:0007d040       ?PreTranslateMessage@CTabForeignDlg@@UAEHPAUtagMSG@@@Z 1007e040 f   TabForeignDlg.obj
 0001:0007d080       ?ReceiveData@CTLMCallback@CTabForeignDlg@@EAGXHDJHPAX@Z 1007e080 f   TabForeignDlg.obj
 0001:0007d1e0       ?ReloadGwansim@CTabForeignDlg@@QAEXXZ 1007e1e0 f   TabForeignDlg.obj
 0001:0007d1f0       ?SetCodeFromOutSide@CTabForeignDlg@@UAEXPBD@Z 1007e1f0 f   TabForeignDlg.obj
 0001:0007d250       ?UnAdviseGwansim@CTabForeignDlg@@QAEXXZ 1007e250 f   TabForeignDlg.obj
 0001:0007d260       ?WindowProc@CTabForeignDlg@@MAEJIIJ@Z 1007e260 f   TabForeignDlg.obj
 0001:0007d390       ?fnRemovelistStockCode@CTabForeignDlg@@QAEXXZ 1007e390 f   TabForeignDlg.obj
 0001:0007d430       ??$SerializeElements@PAVCItemLongData@@@@YGXAAVCArchive@@PAPAVCItemLongData@@H@Z 1007e430 f i TabStockDlg.obj
 0001:0007d4e0       ??0?$CList@PAVCItemLongData@@PAV1@@@QAE@H@Z 1007e4e0 f i TabStockDlg.obj
 0001:0007d520       ??0CTabStockDlg@@QAE@PAVCWnd@@@Z 1007e520 f   TabStockDlg.obj
 0001:0007d680       ??1?$CList@PAVCItemLongData@@PAV1@@@UAE@XZ 1007e680 f i TabStockDlg.obj
 0001:0007d6f0       ??_G?$CList@PAVCItemLongData@@PAV1@@@UAEPAXI@Z 1007e6f0 f i TabStockDlg.obj
 0001:0007d6f0       ??_E?$CList@PAVCItemLongData@@PAV1@@@UAEPAXI@Z 1007e6f0 f i TabStockDlg.obj
 0001:0007d7a0       ??_GCTabStockDlg@@UAEPAXI@Z 1007e7a0 f i TabStockDlg.obj
 0001:0007d7a0       ??_ECTabStockDlg@@UAEPAXI@Z 1007e7a0 f i TabStockDlg.obj
 0001:0007d8b0       ?AddTail@?$CList@PAVCItemLongData@@PAV1@@@QAEPAU__POSITION@@PAVCItemLongData@@@Z 1007e8b0 f i TabStockDlg.obj
 0001:0007d940       ?AdviseGwansim@CTabStockDlg@@QAEXXZ 1007e940 f   TabStockDlg.obj
 0001:0007da40       ?DoDataExchange@CTabStockDlg@@MAEXPAVCDataExchange@@@Z 1007ea40 f   TabStockDlg.obj
 0001:0007daa0       ?GetMessageMap@CTabStockDlg@@MBEPBUAFX_MSGMAP@@XZ 1007eaa0 f   TabStockDlg.obj
 0001:0007dab0       ?GetThisMessageMap@CTabStockDlg@@KGPBUAFX_MSGMAP@@XZ 1007eab0 f   TabStockDlg.obj
 0001:0007dac0       ?InitTreeSearch@CTabStockDlg@@QAEXXZ 1007eac0 f   TabStockDlg.obj
 0001:0007dcc0       ?NewNode@?$CList@PAVCItemLongData@@PAV1@@@IAEPAUCNode@1@PAU21@0@Z 1007ecc0 f i TabStockDlg.obj
 0001:0007dd30       ?OnBtnAdd@CTabStockDlg@@IAEXXZ 1007ed30 f   TabStockDlg.obj
 0001:0007de60       ?OnDestroy@CTabStockDlg@@IAEXXZ 1007ee60 f   TabStockDlg.obj
 0001:0007ded0       ?OnInitDialog@CTabStockDlg@@MAEHXZ 1007eed0 f   TabStockDlg.obj
 0001:0007e260       ?OnSelchangeCodeInput@CTabStockDlg@@IAEXXZ 1007f260 f   TabStockDlg.obj
 0001:0007e270       ?OnSelchangedTreesearch@CTabStockDlg@@IAEXPAUtagNMHDR@@PAJ@Z 1007f270 f   TabStockDlg.obj
 0001:0007e400       ?OnSize@CTabStockDlg@@IAEXIHH@Z 1007f400 f   TabStockDlg.obj
 0001:0007e510       ?PreTranslateMessage@CTabStockDlg@@UAEHPAUtagMSG@@@Z 1007f510 f   TabStockDlg.obj
 0001:0007e550       ?ReceiveData@CTLMCallback@CTabStockDlg@@UAGXHDJHPAX@Z 1007f550 f   TabStockDlg.obj
 0001:0007e6b0       ?RemoveAll@?$CList@PAVCItemLongData@@PAV1@@@QAEXXZ 1007f6b0 f i TabStockDlg.obj
 0001:0007e6e0       ?Serialize@?$CList@PAVCItemLongData@@PAV1@@@UAEXAAVCArchive@@@Z 1007f6e0 f i TabStockDlg.obj
 0001:0007e8f0       ?SetCodeFromOutSide@CTabStockDlg@@UAEXPBD@Z 1007f8f0 f   TabStockDlg.obj
 0001:0007e940       ?UnAdviseGwansim@CTabStockDlg@@QAEXXZ 1007f940 f   TabStockDlg.obj
 0001:0007e960       ?WindowProc@CTabStockDlg@@MAEJIIJ@Z 1007f960 f   TabStockDlg.obj
 0001:0007eaa0       ?fnRemovelistStockCode@CTabStockDlg@@QAEXXZ 1007faa0 f   TabStockDlg.obj
 0001:0007eb40       ??$SerializeElements@VCCodeTypeA@@@@YGXAAVCArchive@@PAVCCodeTypeA@@H@Z 1007fb40 f i TabStockDlgWinix.obj
 0001:0007ebe0       ??0?$CList@VCCodeTypeA@@V1@@@QAE@H@Z 1007fbe0 f i TabStockDlgWinix.obj
 0001:0007ec20       ??0CCodeTypeA@@QAE@XZ      1007fc20 f i TabStockDlgWinix.obj
 0001:0007ec50       ??1?$CList@VCCodeTypeA@@V1@@@UAE@XZ 1007fc50 f i TabStockDlgWinix.obj
 0001:0007ece0       ??1CINT_GROUP_ST@@QAE@XZ   1007fce0 f i TabStockDlgWinix.obj
 0001:0007ed10       ??1CINT_ITEM_ST@@QAE@XZ    1007fd10 f i TabStockDlgWinix.obj
 0001:0007ed60       ??_E?$CList@VCCodeTypeA@@V1@@@UAEPAXI@Z 1007fd60 f i TabStockDlgWinix.obj
 0001:0007ed60       ??_G?$CList@VCCodeTypeA@@V1@@@UAEPAXI@Z 1007fd60 f i TabStockDlgWinix.obj
 0001:0007eda0       ?AddTail@?$CList@VCCodeTypeA@@V1@@@QAEPAU__POSITION@@VCCodeTypeA@@@Z 1007fda0 f i TabStockDlgWinix.obj
 0001:0007eeb0       ?DoClearItemLongDataList@CTabStockDlg@@QAEXXZ 1007feb0 f   TabStockDlgWinix.obj
 0001:0007ef60       ?DoDeleteTreeItem@CTabStockDlg@@QAEXPAVCTreeCtrl@@PAU_TREEITEM@@@Z 1007ff60 f   TabStockDlgWinix.obj
 0001:0007f030       ?FindTreeItem@CTabStockDlg@@QAEPAU_TREEITEM@@PBD@Z 10080030 f   TabStockDlgWinix.obj
 0001:0007f150       ?NewNode@?$CList@VCCodeTypeA@@V1@@@IAEPAUCNode@1@PAU21@0@Z 10080150 f i TabStockDlgWinix.obj
 0001:0007f1e0       ?OnWinixNotifyGroup@CTabStockDlg@@QAEJIJ@Z 100801e0 f   TabStockDlgWinix.obj
 0001:0007f4b0       ?OnWinixNotifyGroupList@CTabStockDlg@@QAEJIJ@Z 100804b0 f   TabStockDlgWinix.obj
 0001:0007f4c0       ?OnWinixNotifyLoad@CTabStockDlg@@QAEJIJ@Z 100804c0 f   TabStockDlgWinix.obj
 0001:0007f4d0       ?OnWinixNotifySave@CTabStockDlg@@QAEJIJ@Z 100804d0 f   TabStockDlgWinix.obj
 0001:0007fa60       ?OnWinixNotifySaveCode@CTabStockDlg@@QAEJIJ@Z 10080a60 f   TabStockDlgWinix.obj
 0001:0007fa70       ?RemoveAll@?$CList@VCCodeTypeA@@V1@@@QAEXXZ 10080a70 f i TabStockDlgWinix.obj
 0001:0007fad0       ?Serialize@?$CList@VCCodeTypeA@@V1@@@UAEXAAVCArchive@@@Z 10080ad0 f i TabStockDlgWinix.obj
 0001:0007fd00       ??0CTabUpJongDlg@@QAE@PAVCWnd@@@Z 10080d00 f   TabUpJongDlg.obj
 0001:0007fdb0       ??_GCTabUpJongDlg@@UAEPAXI@Z 10080db0 f i TabUpJongDlg.obj
 0001:0007fdb0       ??_ECTabUpJongDlg@@UAEPAXI@Z 10080db0 f i TabUpJongDlg.obj
 0001:0007fe40       ?DoDataExchange@CTabUpJongDlg@@MAEXPAVCDataExchange@@@Z 10080e40 f   TabUpJongDlg.obj
 0001:0007fea0       ?GetMessageMap@CTabUpJongDlg@@MBEPBUAFX_MSGMAP@@XZ 10080ea0 f   TabUpJongDlg.obj
 0001:0007feb0       ?GetThisMessageMap@CTabUpJongDlg@@KGPBUAFX_MSGMAP@@XZ 10080eb0 f   TabUpJongDlg.obj
 0001:0007fec0       ?InitBaseInfo@CTabUpJongDlg@@QAEXH@Z 10080ec0 f   TabUpJongDlg.obj
 0001:0007fee0       ?OnChkK200@CTabUpJongDlg@@IAEXXZ 10080ee0 f   TabUpJongDlg.obj
 0001:00080120       ?OnChkKosdaq@CTabUpJongDlg@@IAEXXZ 10081120 f   TabUpJongDlg.obj
 0001:00080360       ?OnChkKospi@CTabUpJongDlg@@IAEXXZ 10081360 f   TabUpJongDlg.obj
 0001:000805a0       ?OnDestroy@CTabUpJongDlg@@IAEXXZ 100815a0 f   TabUpJongDlg.obj
 0001:000805b0       ?OnInitDialog@CTabUpJongDlg@@MAEHXZ 100815b0 f   TabUpJongDlg.obj
 0001:00080740       ?OnSize@CTabUpJongDlg@@IAEXIHH@Z 10081740 f   TabUpJongDlg.obj
 0001:000807e0       ?PreTranslateMessage@CTabUpJongDlg@@UAEHPAUtagMSG@@@Z 100817e0 f   TabUpJongDlg.obj
 0001:00080820       ?SetKeyCodeChange@CTabUpJongDlg@@QAEXIJ@Z 10081820 f   TabUpJongDlg.obj
 0001:000808a0       ?WindowProc@CTabUpJongDlg@@MAEJIIJ@Z 100818a0 f   TabUpJongDlg.obj
 0001:00080910       ?fnRemovelistStockCode@CTabUpJongDlg@@IAEXXZ 10081910 f   TabUpJongDlg.obj
 0001:000809b0       ??0CUsrAddListDlg@@QAE@PAVCWnd@@@Z 100819b0 f   UsrAddListDlg.obj
 0001:00080ab0       ??1CDlgItemMaxCount@@UAE@XZ 10081ab0 f i UsrAddListDlg.obj
 0001:00080ac0       ??_ECUsrAddListDlg@@UAEPAXI@Z 10081ac0 f i UsrAddListDlg.obj
 0001:00080ac0       ??_GCUsrAddListDlg@@UAEPAXI@Z 10081ac0 f i UsrAddListDlg.obj
 0001:00080b70       ?AddELWIndexCode@CUsrAddListDlg@@QAEXXZ 10081b70 f   UsrAddListDlg.obj
 0001:00080d20       ?AddItem@CUsrAddListDlg@@QAEXXZ 10081d20 f   UsrAddListDlg.obj
 0001:00080fc0       ?ChangeSkinColor@CUsrAddListDlg@@UAEXK@Z 10081fc0 f   UsrAddListDlg.obj
 0001:00080fe0       ?DelItem@CUsrAddListDlg@@QAEXPBD@Z 10081fe0 f   UsrAddListDlg.obj
 0001:000810e0       ?DoDataExchange@CUsrAddListDlg@@MAEXPAVCDataExchange@@@Z 100820e0 f   UsrAddListDlg.obj
 0001:00081140       ?GetMessageMap@CUsrAddListDlg@@MBEPBUAFX_MSGMAP@@XZ 10082140 f   UsrAddListDlg.obj
 0001:00081150       ?GetRequestList@CUsrAddListDlg@@QAEHAAVCStringList@@0@Z 10082150 f   UsrAddListDlg.obj
 0001:00081290       ?GetThisMessageMap@CUsrAddListDlg@@KGPBUAFX_MSGMAP@@XZ 10082290 f   UsrAddListDlg.obj
 0001:000812a0       ?OnBtnAdd@CUsrAddListDlg@@IAEXXZ 100822a0 f   UsrAddListDlg.obj
 0001:000812d0       ?OnBtnDel@CUsrAddListDlg@@IAEXXZ 100822d0 f   UsrAddListDlg.obj
 0001:000812e0       ?OnBtnDelItem@CUsrAddListDlg@@QAEXPBD@Z 100822e0 f   UsrAddListDlg.obj
 0001:000813e0       ?OnBtnInit@CUsrAddListDlg@@IAEXXZ 100823e0 f   UsrAddListDlg.obj
 0001:000813f0       ?OnDestroy@CUsrAddListDlg@@IAEXXZ 100823f0 f   UsrAddListDlg.obj
 0001:00081410       ?OnInitDialog@CUsrAddListDlg@@MAEHXZ 10082410 f   UsrAddListDlg.obj
 0001:000814f0       ?OnPaint@CUsrAddListDlg@@IAEXXZ 100824f0 f   UsrAddListDlg.obj
 0001:00081580       ?OnRecvMsg_CheckBoxStates_From_XListCtrl@CUsrAddListDlg@@IAEJIJ@Z 10082580 f   UsrAddListDlg.obj
 0001:000816f0       ?OnRecvMsg_DBClick_From_XListCtrl@CUsrAddListDlg@@IAEJIJ@Z 100826f0 f   UsrAddListDlg.obj
 0001:00081790       ?OnSize@CUsrAddListDlg@@IAEXIHH@Z 10082790 f   UsrAddListDlg.obj
 0001:00081830       ?PreTranslateMessage@CUsrAddListDlg@@UAEHPAUtagMSG@@@Z 10082830 f   UsrAddListDlg.obj
 0001:00081870       ?Re_Request_TRData@CUsrAddListDlg@@QAEXXZ 10082870 f   UsrAddListDlg.obj
 0001:000819f0       ?SetRootPath@CUsrAddListDlg@@QAEXV?$CStringT@DV?$StrTraitMFC_DLL@DV?$ChTraitsCRT@D@ATL@@@@@ATL@@@Z 100829f0 f   UsrAddListDlg.obj
 0001:00081a00       ?WindowProc@CUsrAddListDlg@@MAEJIIJ@Z 10082a00 f   UsrAddListDlg.obj
 0001:00081fa0       ??$CompareElements@V?$CStringT@DV?$StrTraitMFC_DLL@DV?$ChTraitsCRT@D@ATL@@@@@ATL@@PBD@@YGHPBV?$CStringT@DV?$StrTraitMFC_DLL@DV?$ChTraitsCRT@D@ATL@@@@@ATL@@PBQBD@Z 10082fa0 f i XListCtrlJongData.obj
 0001:00081fd0       ??$SerializeElements@PAVCJongDataInListCtrl@@@@YGXAAVCArchive@@PAPAVCJongDataInListCtrl@@H@Z 10082fd0 f i XListCtrlJongData.obj
 0001:00082080       ??0?$CMap@V?$CStringT@DV?$StrTraitMFC_DLL@DV?$ChTraitsCRT@D@ATL@@@@@ATL@@PBDPAVCJongDataInListCtrl@@PAV3@@@QAE@H@Z 10083080 f i XListCtrlJongData.obj
 0001:000820c0       ??0CXListCtrlJongData@@QAE@XZ 100830c0 f   XListCtrlJongData.obj
 0001:000822f0       ??1?$CMap@V?$CStringT@DV?$StrTraitMFC_DLL@DV?$ChTraitsCRT@D@ATL@@@@@ATL@@PBDPAVCJongDataInListCtrl@@PAV3@@@UAE@XZ 100832f0 f i XListCtrlJongData.obj
 0001:00082340       ??1CXListCtrlJongData@@UAE@XZ 10083340 f   XListCtrlJongData.obj
 0001:00082410       ??A?$CMap@V?$CStringT@DV?$StrTraitMFC_DLL@DV?$ChTraitsCRT@D@ATL@@@@@ATL@@PBDPAVCJongDataInListCtrl@@PAV3@@@QAEAAPAVCJongDataInListCtrl@@PBD@Z 10083410 f i XListCtrlJongData.obj
 0001:00082520       ??_G?$CMap@V?$CStringT@DV?$StrTraitMFC_DLL@DV?$ChTraitsCRT@D@ATL@@@@@ATL@@PBDPAVCJongDataInListCtrl@@PAV3@@@UAEPAXI@Z 10083520 f i XListCtrlJongData.obj
 0001:00082520       ??_E?$CMap@V?$CStringT@DV?$StrTraitMFC_DLL@DV?$ChTraitsCRT@D@ATL@@@@@ATL@@PBDPAVCJongDataInListCtrl@@PAV3@@@UAEPAXI@Z 10083520 f i XListCtrlJongData.obj
 0001:000825b0       ??_ECXListCtrlJongData@@UAEPAXI@Z 100835b0 f i XListCtrlJongData.obj
 0001:000825b0       ??_GCXListCtrlJongData@@UAEPAXI@Z 100835b0 f i XListCtrlJongData.obj
 0001:000826c0       ?CheckJongmokCode@CXListCtrlJongData@@QAEXHPBD@Z 100836c0 f   XListCtrlJongData.obj
 0001:00082750       ?CheckJongmokCode@CXListCtrlJongData@@QAEXPAVCStringList@@0@Z 10083750 f   XListCtrlJongData.obj
 0001:00082940       ?CheckJongmokCode@CXListCtrlJongData@@QAEXPAVCStringList@@@Z 10083940 f   XListCtrlJongData.obj
 0001:00082af0       ?CompareByIndex@@YAHPBX0@Z 10083af0 f   XListCtrlJongData.obj
 0001:00082b10       ?FindCode@CXListCtrlJongData@@QAEHPBD@Z 10083b10 f   XListCtrlJongData.obj
 0001:00082bb0       ?FreeAssoc@?$CMap@V?$CStringT@DV?$StrTraitMFC_DLL@DV?$ChTraitsCRT@D@ATL@@@@@ATL@@PBDPAVCJongDataInListCtrl@@PAV3@@@IAEXPAVCAssoc@1@@Z 10083bb0 f i XListCtrlJongData.obj
 0001:00082be0       ?GetAssocAt@?$CMap@V?$CStringT@DV?$StrTraitMFC_DLL@DV?$ChTraitsCRT@D@ATL@@@@@ATL@@PBDPAVCJongDataInListCtrl@@PAV3@@@IBEPAVCAssoc@1@PBDAAI1@Z 10083be0 f i XListCtrlJongData.obj
 0001:00082c40       ?GetCheckByJongmokCode@CXListCtrlJongData@@QAEHPBD@Z 10083c40 f   XListCtrlJongData.obj
 0001:00082d00       ?GetCheckedCodes@CXListCtrlJongData@@QAE?AV?$CStringT@DV?$StrTraitMFC_DLL@DV?$ChTraitsCRT@D@ATL@@@@@ATL@@XZ 10083d00 f   XListCtrlJongData.obj
 0001:00082de0       ?GetCodeData@CXListCtrlJongData@@QAEXHAAV?$CStringT@DV?$StrTraitMFC_DLL@DV?$ChTraitsCRT@D@ATL@@@@@ATL@@000AAD@Z 10083de0 f   XListCtrlJongData.obj
 0001:00082f00       ?GetCodeSelected@CXListCtrlJongData@@QAE?AV?$CStringT@DV?$StrTraitMFC_DLL@DV?$ChTraitsCRT@D@ATL@@@@@ATL@@H@Z 10083f00 f   XListCtrlJongData.obj
 0001:00082f60       ?GetCommentAboutHighlight@CXListCtrlJongData@@QAE?AV?$CStringT@DV?$StrTraitMFC_DLL@DV?$ChTraitsCRT@D@ATL@@@@@ATL@@XZ 10083f60 f   XListCtrlJongData.obj
 0001:00083030       ?GetDrawColors@CXListCtrlJongData@@UAEXHHAAK0@Z 10084030 f   XListCtrlJongData.obj
 0001:000830e0       ?GetJongData@CXListCtrlJongData@@AAE?AV?$CStringT@DV?$StrTraitMFC_DLL@DV?$ChTraitsCRT@D@ATL@@@@@ATL@@HH@Z 100840e0 f   XListCtrlJongData.obj
 0001:00083140       ?GetListOfChecked@CXListCtrlJongData@@QAEXPAVCStringList@@@Z 10084140 f   XListCtrlJongData.obj
 0001:00083260       ?GetMessageMap@CXListCtrlJongData@@MBEPBUAFX_MSGMAP@@XZ 10084260 f   XListCtrlJongData.obj
 0001:00083270       ?GetNextAssoc@?$CMap@V?$CStringT@DV?$StrTraitMFC_DLL@DV?$ChTraitsCRT@D@ATL@@@@@ATL@@PBDPAVCJongDataInListCtrl@@PAV3@@@QBEXAAPAU__POSITION@@AAV?$CStringT@DV?$StrTraitMFC_DLL@DV?$ChTraitsCRT@D@ATL@@@@@ATL@@AAPAVCJongDataInListCtrl@@@Z 10084270 f i XListCtrlJongData.obj
 0001:00083300       ?GetPosOfHighLighted@CXListCtrlJongData@@AAEHPAJ0@Z 10084300 f   XListCtrlJongData.obj
 0001:00083430       ?GetSelectedCodes@CXListCtrlJongData@@QAE?AV?$CStringT@DV?$StrTraitMFC_DLL@DV?$ChTraitsCRT@D@ATL@@@@@ATL@@XZ 10084430 f   XListCtrlJongData.obj
 0001:00083510       ?GetThisMessageMap@CXListCtrlJongData@@KGPBUAFX_MSGMAP@@XZ 10084510 f   XListCtrlJongData.obj
 0001:00083520       ?GetTimeSelected@CXListCtrlJongData@@QAE?AV?$CStringT@DV?$StrTraitMFC_DLL@DV?$ChTraitsCRT@D@ATL@@@@@ATL@@H@Z 10084520 f   XListCtrlJongData.obj
 0001:000835d0       ?Init@CXListCtrlJongData@@QAEXPAVCLeftBarDlg@@H@Z 100845d0 f   XListCtrlJongData.obj
 0001:000836a0       ?InitColumns@CXListCtrlJongData@@AAEXXZ 100846a0 f   XListCtrlJongData.obj
 0001:00083860       ?InitHashTable@?$CMap@V?$CStringT@DV?$StrTraitMFC_DLL@DV?$ChTraitsCRT@D@ATL@@@@@ATL@@PBDPAVCJongDataInListCtrl@@PAV3@@@QAEXIH@Z 10084860 f i XListCtrlJongData.obj
 0001:000838d0       ?InitSortIndex@CXListCtrlJongData@@QAEXXZ 100848d0 f   XListCtrlJongData.obj
 0001:00083900       ?InsertCodeData@CXListCtrlJongData@@QAEXPBD0V?$CStringT@DV?$StrTraitMFC_DLL@DV?$ChTraitsCRT@D@ATL@@@@@ATL@@111DH@Z 10084900 f   XListCtrlJongData.obj
 0001:00083f30       ?InsertCodeDataLighted@CXListCtrlJongData@@AAEXPAVCJongDataInListCtrl@@H@Z 10084f30 f   XListCtrlJongData.obj
 0001:00084070       ?Lookup@?$CMap@V?$CStringT@DV?$StrTraitMFC_DLL@DV?$ChTraitsCRT@D@ATL@@@@@ATL@@PBDPAVCJongDataInListCtrl@@PAV3@@@QBEHPBDAAPAVCJongDataInListCtrl@@@Z 10085070 f i XListCtrlJongData.obj
 0001:000840b0       ?NewAssoc@?$CMap@V?$CStringT@DV?$StrTraitMFC_DLL@DV?$ChTraitsCRT@D@ATL@@@@@ATL@@PBDPAVCJongDataInListCtrl@@PAV3@@@IAEPAVCAssoc@1@PBD@Z 100850b0 f i XListCtrlJongData.obj
 0001:00084130       ?OnColumnClick@CXListCtrlJongData@@IAEHPAUtagNMHDR@@PAJ@Z 10085130 f   XListCtrlJongData.obj
 0001:000841a0       ?OnDestroy@CXListCtrlJongData@@IAEXXZ 100851a0 f   XListCtrlJongData.obj
 0001:00084280       ?OnKeyUp@CXListCtrlJongData@@IAEXIII@Z 10085280 f   XListCtrlJongData.obj
 0001:000843b0       ?RemoveAll@?$CMap@V?$CStringT@DV?$StrTraitMFC_DLL@DV?$ChTraitsCRT@D@ATL@@@@@ATL@@PBDPAVCJongDataInListCtrl@@PAV3@@@QAEXXZ 100853b0 f i XListCtrlJongData.obj
 0001:00084420       ?RemoveAll@CXListCtrlJongData@@QAEHXZ 10085420 f   XListCtrlJongData.obj
 0001:000844f0       ?RemoveCode@CXListCtrlJongData@@QAEXPBD@Z 100854f0 f   XListCtrlJongData.obj
 0001:00084620       ?RemoveKey@?$CMap@V?$CStringT@DV?$StrTraitMFC_DLL@DV?$ChTraitsCRT@D@ATL@@@@@ATL@@PBDPAVCJongDataInListCtrl@@PAV3@@@QAEHPBD@Z 10085620 f i XListCtrlJongData.obj
 0001:000846b0       ?RemoveNoUpdateItem@CXListCtrlJongData@@QAEXXZ 100856b0 f   XListCtrlJongData.obj
 0001:00084860       ?ReplaceIndex@CXListCtrlJongData@@AAEXHH@Z 10085860 f   XListCtrlJongData.obj
 0001:000848b0       ?Serialize@?$CMap@V?$CStringT@DV?$StrTraitMFC_DLL@DV?$ChTraitsCRT@D@ATL@@@@@ATL@@PBDPAVCJongDataInListCtrl@@PAV3@@@UAEXAAVCArchive@@@Z 100858b0 f i XListCtrlJongData.obj
 0001:00084c70       ?SetAlarmColor@CXListCtrlJongData@@QAEXH@Z 10085c70 f   XListCtrlJongData.obj
 0001:00084c80       ?SetAlarmPeriod@CXListCtrlJongData@@QAEXJJ@Z 10085c80 f   XListCtrlJongData.obj
 0001:00084cb0       ?SetAlarmSound@CXListCtrlJongData@@QAEXHPBD@Z 10085cb0 f   XListCtrlJongData.obj
 0001:00084ce0       ?SetAt@?$CMap@V?$CStringT@DV?$StrTraitMFC_DLL@DV?$ChTraitsCRT@D@ATL@@@@@ATL@@PBDPAVCJongDataInListCtrl@@PAV3@@@QAEXPBDPAVCJongDataInListCtrl@@@Z 10085ce0 f i XListCtrlJongData.obj
 0001:00084df0       ?SetConfig@CXListCtrlJongData@@AAEXH@Z 10085df0 f   XListCtrlJongData.obj
 0001:000850c0       ?SetCursorNext@CXListCtrlJongData@@QAEXH@Z 100860c0 f   XListCtrlJongData.obj
 0001:00085220       ?SetCursorPrev@CXListCtrlJongData@@QAEXH@Z 10086220 f   XListCtrlJongData.obj
 0001:00085360       ?SortColumns@CXListCtrlJongData@@AAEXHH@Z 10086360 f   XListCtrlJongData.obj
 0001:000859d0       ?UnHighlightByJongmokCode@CXListCtrlJongData@@QAEXPBD@Z 100869d0 f   XListCtrlJongData.obj
 0001:00085ad0       ?UpdateCheck@CXListCtrlJongData@@QAEXHPAVCWnd@@@Z 10086ad0 f   XListCtrlJongData.obj
 0001:00085b30       ?UpdateCodeData@CXListCtrlJongData@@QAEHPBD0V?$CStringT@DV?$StrTraitMFC_DLL@DV?$ChTraitsCRT@D@ATL@@@@@ATL@@111DH@Z 10086b30 f   XListCtrlJongData.obj
 0001:00085f70       ??0CXTabCtrl@@QAE@XZ       10086f70 f   XTabCtrl.obj
 0001:000860c0       ??1CXTabCtrl@@UAE@XZ       100870c0 f   XTabCtrl.obj
 0001:000860e0       ??_GCXTabCtrl@@UAEPAXI@Z   100870e0 f i XTabCtrl.obj
 0001:000860e0       ??_ECXTabCtrl@@UAEPAXI@Z   100870e0 f i XTabCtrl.obj
 0001:00086130       ?ChangeSkinColor@CXTabCtrl@@QAEXXZ 10087130 f   XTabCtrl.obj
 0001:000861b0       ?DeleteCurrentDlg@CXTabCtrl@@AAEXXZ 100871b0 f   XTabCtrl.obj
 0001:000861e0       ?GetMessageMap@CXTabCtrl@@MBEPBUAFX_MSGMAP@@XZ 100871e0 f   XTabCtrl.obj
 0001:000861f0       ?GetThisMessageMap@CXTabCtrl@@KGPBUAFX_MSGMAP@@XZ 100871f0 f   XTabCtrl.obj
 0001:00086200       ?Init@CXTabCtrl@@QAEXPAVCWnd@@0HPAX@Z 10087200 f   XTabCtrl.obj
 0001:000862c0       ?OnDestroy@CXTabCtrl@@IAEXXZ 100872c0 f   XTabCtrl.obj
 0001:00086320       ?OnSelchange@CXTabCtrl@@IAEXPAUtagNMHDR@@PAJ@Z 10087320 f   XTabCtrl.obj
 0001:00086360       ?OnSelchanging@CXTabCtrl@@IAEXPAUtagNMHDR@@PAJ@Z 10087360 f   XTabCtrl.obj
 0001:000863b0       ?OnSize@CXTabCtrl@@IAEXIHH@Z 100873b0 f   XTabCtrl.obj
 0001:000864a0       ?OnTimer@CXTabCtrl@@IAEXI@Z 100874a0 f   XTabCtrl.obj
 0001:00086560       ?PreSubclassWindow@CXTabCtrl@@MAEXXZ 10087560 f   XTabCtrl.obj
 0001:00086580       ?SetTopLeftCorner@CXTabCtrl@@QAEXVCPoint@@@Z 10087580 f   XTabCtrl.obj
 0001:000865a0       ?ShowTab@CXTabCtrl@@QAEXH@Z 100875a0 f   XTabCtrl.obj
 0001:000867e0       ?WindowProc@CXTabCtrl@@MAEJIIJ@Z 100877e0 f   XTabCtrl.obj
 0001:00086860       ??$SerializeElements@UControlInfo@@@@YGXAAVCArchive@@PAUControlInfo@@H@Z 10087860 f i xySplitterWnd.obj
 0001:00086900       ??0?$CArray@UControlInfo@@AAU1@@@QAE@XZ 10087900 f i xySplitterWnd.obj
 0001:00086930       ??0CxSplitterWnd@@QAE@XZ   10087930 f   xySplitterWnd.obj
 0001:00086a30       ??0CySplitterWnd@@QAE@XZ   10087a30 f   xySplitterWnd.obj
 0001:00086b10       ??1?$CArray@UControlInfo@@AAU1@@@UAE@XZ 10087b10 f i xySplitterWnd.obj
 0001:00086b30       ??1CxSplitterWnd@@UAE@XZ   10087b30 f   xySplitterWnd.obj
 0001:00086bb0       ??1CySplitterWnd@@UAE@XZ   10087bb0 f   xySplitterWnd.obj
 0001:00086c20       ??_E?$CArray@UControlInfo@@AAU1@@@UAEPAXI@Z 10087c20 f i xySplitterWnd.obj
 0001:00086c20       ??_G?$CArray@UControlInfo@@AAU1@@@UAEPAXI@Z 10087c20 f i xySplitterWnd.obj
 0001:00086c70       ??_GCxSplitterWnd@@UAEPAXI@Z 10087c70 f i xySplitterWnd.obj
 0001:00086c70       ??_ECxSplitterWnd@@UAEPAXI@Z 10087c70 f i xySplitterWnd.obj
 0001:00086d20       ??_ECySplitterWnd@@UAEPAXI@Z 10087d20 f i xySplitterWnd.obj
 0001:00086d20       ??_GCySplitterWnd@@UAEPAXI@Z 10087d20 f i xySplitterWnd.obj
 0001:00086dc0       ?AttachAsAboveCtrl@CySplitterWnd@@QAE_NHH_N@Z 10087dc0 f   xySplitterWnd.obj
 0001:00086e50       ?AttachAsAboveCtrl@CySplitterWnd@@QAE_NH_N@Z 10087e50 f   xySplitterWnd.obj
 0001:00086f10       ?AttachAsAboveCtrl@CySplitterWnd@@QAE_NPAVCWnd@@H_N@Z 10087f10 f   xySplitterWnd.obj
 0001:00086f80       ?AttachAsAboveCtrl@CySplitterWnd@@QAE_NPAVCWnd@@_N@Z 10087f80 f   xySplitterWnd.obj
 0001:00087030       ?AttachAsBelowCtrl@CySplitterWnd@@QAE_NHH_N@Z 10088030 f   xySplitterWnd.obj
 0001:000870c0       ?AttachAsBelowCtrl@CySplitterWnd@@QAE_NH_N@Z 100880c0 f   xySplitterWnd.obj
 0001:00087180       ?AttachAsBelowCtrl@CySplitterWnd@@QAE_NPAVCWnd@@H_N@Z 10088180 f   xySplitterWnd.obj
 0001:000871f0       ?AttachAsBelowCtrl@CySplitterWnd@@QAE_NPAVCWnd@@_N@Z 100881f0 f   xySplitterWnd.obj
 0001:000872a0       ?AttachAsLeftCtrl@CxSplitterWnd@@QAE_NHH_N@Z 100882a0 f   xySplitterWnd.obj
 0001:00087330       ?AttachAsLeftCtrl@CxSplitterWnd@@QAE_NH_N@Z 10088330 f   xySplitterWnd.obj
 0001:000873f0       ?AttachAsLeftCtrl@CxSplitterWnd@@QAE_NPAVCWnd@@H_N@Z 100883f0 f   xySplitterWnd.obj
 0001:00087460       ?AttachAsLeftCtrl@CxSplitterWnd@@QAE_NPAVCWnd@@_N@Z 10088460 f   xySplitterWnd.obj
 0001:00087510       ?AttachAsRightCtrl@CxSplitterWnd@@QAE_NHH_N@Z 10088510 f   xySplitterWnd.obj
 0001:000875a0       ?AttachAsRightCtrl@CxSplitterWnd@@QAE_NH_N@Z 100885a0 f   xySplitterWnd.obj
 0001:00087660       ?AttachAsRightCtrl@CxSplitterWnd@@QAE_NPAVCWnd@@H_N@Z 10088660 f   xySplitterWnd.obj
 0001:000876d0       ?AttachAsRightCtrl@CxSplitterWnd@@QAE_NPAVCWnd@@_N@Z 100886d0 f   xySplitterWnd.obj
 0001:00087780       ?AttachToParent@CxSplitterWnd@@QAE_NKK@Z 10088780 f   xySplitterWnd.obj
 0001:00087840       ?AttachToParent@CySplitterWnd@@QAE_NKK@Z 10088840 f   xySplitterWnd.obj
 0001:00087900       ?BindWithControl@CxSplitterWnd@@QAE_NPAVCWnd@@K@Z 10088900 f   xySplitterWnd.obj
 0001:00087970       ?BindWithControl@CySplitterWnd@@QAE_NPAVCWnd@@K@Z 10088970 f   xySplitterWnd.obj
 0001:000879c0       ?CreateInWnd@CxSplitterWnd@@QAE_NPAVCWnd@@KPAUtagRECT@@@Z 100889c0 f   xySplitterWnd.obj
 0001:00087a00       ?CreateInWnd@CySplitterWnd@@QAE_NPAVCWnd@@KPAUtagRECT@@@Z 10088a00 f   xySplitterWnd.obj
 0001:00087a40       ?DetachAllCtrls@CxSplitterWnd@@QAE_NXZ 10088a40 f   xySplitterWnd.obj
 0001:00087ac0       ?DetachAllCtrls@CySplitterWnd@@QAE_NXZ 10088ac0 f   xySplitterWnd.obj
 0001:00087b40       ?GetMessageMap@CxSplitterWnd@@MBEPBUAFX_MSGMAP@@XZ 10088b40 f   xySplitterWnd.obj
 0001:00087b50       ?GetMessageMap@CySplitterWnd@@MBEPBUAFX_MSGMAP@@XZ 10088b50 f   xySplitterWnd.obj
 0001:00087b60       ?GetMouseClipRect@CxSplitterWnd@@IAE_NPAUtagRECT@@VCPoint@@@Z 10088b60 f   xySplitterWnd.obj
 0001:00087d10       ?GetMouseClipRect@CySplitterWnd@@IAE_NPAUtagRECT@@VCPoint@@@Z 10088d10 f   xySplitterWnd.obj
 0001:00087ec0       ?GetThisMessageMap@CxSplitterWnd@@KGPBUAFX_MSGMAP@@XZ 10088ec0 f   xySplitterWnd.obj
 0001:00087ed0       ?GetThisMessageMap@CySplitterWnd@@KGPBUAFX_MSGMAP@@XZ 10088ed0 f   xySplitterWnd.obj
 0001:00087ee0       ?OnCreate@CxSplitterWnd@@IAEHPAUtagCREATESTRUCTA@@@Z 10088ee0 f   xySplitterWnd.obj
 0001:00087f70       ?OnDestroy@CxSplitterWnd@@IAEXXZ 10088f70 f   xySplitterWnd.obj
 0001:00087f90       ?OnLButtonDown@CxSplitterWnd@@IAEXIVCPoint@@@Z 10088f90 f   xySplitterWnd.obj
 0001:000881f0       ?OnLButtonDown@CySplitterWnd@@IAEXIVCPoint@@@Z 100891f0 f   xySplitterWnd.obj
 0001:00088410       ?OnPaint@CxSplitterWnd@@IAEXXZ 10089410 f   xySplitterWnd.obj
 0001:00088580       ?OnSetCursor@CxSplitterWnd@@IAEHPAVCWnd@@II@Z 10089580 f   xySplitterWnd.obj
 0001:000885b0       ?OnSetCursor@CySplitterWnd@@IAEHPAVCWnd@@II@Z 100895b0 f   xySplitterWnd.obj
 0001:000885e0       ?RecalcLayout@CxSplitterWnd@@QAEXXZ 100895e0 f   xySplitterWnd.obj
 0001:00088a30       ?RecalcLayout@CySplitterWnd@@QAEXXZ 10089a30 f   xySplitterWnd.obj
 0001:00088e90       ?Serialize@?$CArray@UControlInfo@@AAU1@@@UAEXAAVCArchive@@@Z 10089e90 f i xySplitterWnd.obj
 0001:00088f70       ?SetAtGrow@?$CArray@UControlInfo@@AAU1@@@QAEXHAAUControlInfo@@@Z 10089f70 f i xySplitterWnd.obj
 0001:00088fb0       ?SetMinHeight@CySplitterWnd@@QAEXHH@Z 10089fb0 f   xySplitterWnd.obj
 0001:00088fd0       ?SetMinWidth@CxSplitterWnd@@QAEXHH@Z 10089fd0 f   xySplitterWnd.obj
 0001:00088ff0       ?SetSize@?$CArray@UControlInfo@@AAU1@@@QAEXHH@Z 10089ff0 f i xySplitterWnd.obj
 0001:00089260       ?Unbind@CxSplitterWnd@@QAEXXZ 1008a260 f   xySplitterWnd.obj
 0001:000892f0       ?Unbind@CySplitterWnd@@QAEXXZ 1008a2f0 f   xySplitterWnd.obj
 0001:0008937b       _PlaySoundA@12             1008a37b f   Winmm:WINMM.dll
 0001:00089390       ?AddSharedNameToServer@CGSharedCli@CExOCXDLL@@QAEHXZ 1008a390 f   ExControl:CtrlGlobalSharedData.obj
 0001:000893b0       ?Advise@CGSharedCli@CExOCXDLL@@QAEHPBDPAVCGlobalSharedClient@@@Z 1008a3b0 f   ExControl:CtrlGlobalSharedData.obj
 0001:000893d0       ?CallCheckSharedData@CGSharedCli@CExOCXDLL@@QAEXPBD@Z 1008a3d0 f   ExControl:CtrlGlobalSharedData.obj
 0001:000894f0       ?ChangedData@CGSharedCli@CExOCXDLL@@UAEHPBD0@Z 1008a4f0 f   ExControl:CtrlGlobalSharedData.obj
 0001:000896b0       ?FindShareData@CGSharedCli@CExOCXDLL@@QAEPAU__POSITION@@PBD@Z 1008a6b0 f   ExControl:CtrlGlobalSharedData.obj
 0001:000897e0       ?GetData2@CGSharedCli@CExOCXDLL@@QAEPBDPBD@Z 1008a7e0 f   ExControl:CtrlGlobalSharedData.obj
 0001:00089800       ?GetData@CGSharedCli@CExOCXDLL@@QAEHPBDAAV?$CStringT@DV?$StrTraitMFC_DLL@DV?$ChTraitsCRT@D@ATL@@@@@ATL@@@Z 1008a800 f   ExControl:CtrlGlobalSharedData.obj
 0001:00089820       ?IniStartGShareData@CGSharedCli@CExOCXDLL@@QAEXXZ 1008a820 f   ExControl:CtrlGlobalSharedData.obj
 0001:00089940       ?MakeList@CGSharedCli@CExOCXDLL@@QAEXV?$CStringT@DV?$StrTraitMFC_DLL@DV?$ChTraitsCRT@D@ATL@@@@@ATL@@@Z 1008a940 f   ExControl:CtrlGlobalSharedData.obj
 0001:00089b50       ?RemoveSharedNameToServer@CGSharedCli@CExOCXDLL@@QAEHXZ 1008ab50 f   ExControl:CtrlGlobalSharedData.obj
 0001:00089b70       ?SetData@CGSharedCli@CExOCXDLL@@QAEHPBD0@Z 1008ab70 f   ExControl:CtrlGlobalSharedData.obj
 0001:00089ba0       ?UnAdvise@CGSharedCli@CExOCXDLL@@QAEHPBDPAVCGlobalSharedClient@@@Z 1008aba0 f   ExControl:CtrlGlobalSharedData.obj
 0001:00089bc0       ??0?$CArray@PAUHWND__@@PAU1@@@QAE@XZ 1008abc0 f i ExControl:ExOCXDLL.obj
 0001:00089bf0       ??0?$CList@UST_GSHAREDFORMAT@@U1@@@QAE@H@Z 1008abf0 f i ExControl:ExOCXDLL.obj
 0001:00089c30       ??0?$CList@UST_LSHAREDFORMAT@@U1@@@QAE@H@Z 1008ac30 f i ExControl:ExOCXDLL.obj
 0001:00089c70       ??0CExOCXDLL@@QAE@IPAVCWnd@@@Z 1008ac70 f   ExControl:ExOCXDLL.obj
 0001:00089e50       ??0CExOCXDLL@@QAE@XZ       1008ae50 f   ExControl:ExOCXDLL.obj
 0001:0008a020       ??0CGSharedCli@CExOCXDLL@@QAE@XZ 1008b020 f i ExControl:ExOCXDLL.obj
 0001:0008a0c0       ??1CExDialog@@UAE@XZ       1008b0c0 f i ExControl:ExOCXDLL.obj
 0001:0008a160       ??1CGSharedCli@CExOCXDLL@@QAE@XZ 1008b160 f i ExControl:ExOCXDLL.obj
 0001:0008a175       ??_ECExOCXDLL@@WKI@AEPAXI@Z 1008b175 f i ExControl:ExOCXDLL.obj
 0001:0008a180       ??_ECExOCXDLL@@UAEPAXI@Z   1008b180 f i ExControl:ExOCXDLL.obj
 0001:0008a180       ??_GCExOCXDLL@@UAEPAXI@Z   1008b180 f i ExControl:ExOCXDLL.obj
 0001:0008a240       ?AddTabStopHandle@CExOCXDLL@@QAAHPAUHWND__@@0ZZ 1008b240 f   ExControl:ExOCXDLL.obj
 0001:0008a2b0       ?ChangeFrameSize@CExOCXDLL@@QAEXIFF@Z 1008b2b0 f   ExControl:ExOCXDLL.obj
 0001:0008a300       ?ChangedData@CGlobalSharedClient@@UAEHPBD0@Z 1008b300 f i ExControl:ExOCXDLL.obj
 0001:0008a310       ?ClearTabStopHandle@CExOCXDLL@@QAEXXZ 1008b310 f   ExControl:ExOCXDLL.obj
 0001:0008a350       ?CreateObject@CExOCXDLL@@SGPAVCObject@@XZ 1008b350 f   ExControl:ExOCXDLL.obj
 0001:0008a550       ?DoFullWindowSize@CExOCXDLL@@QAEXXZ 1008b550 f   ExControl:ExOCXDLL.obj
 0001:0008a5b0       ?ExMessageBox@CExOCXDLL@@QAEHPBD0I@Z 1008b5b0 f   ExControl:ExOCXDLL.obj
 0001:0008a690       ?FormLoad@CExOCXDLL@@UAEXXZ 1008b690 f   ExControl:ExOCXDLL.obj
 0001:0008a6a0       ?FormLoadCompleted@CExOCXDLL@@UAEXXZ 1008b6a0 f   ExControl:ExOCXDLL.obj
 0001:0008a6b0       ?GetCodeName@CExOCXDLL@@QAE?AV?$CStringT@DV?$StrTraitMFC_DLL@DV?$ChTraitsCRT@D@ATL@@@@@ATL@@PBD@Z 1008b6b0 f   ExControl:ExOCXDLL.obj
 0001:0008a7f0       ?GetData@CBaseCtrlPackIn@@UAEHPADH@Z 1008b7f0 f i ExControl:ExOCXDLL.obj
 0001:0008a800       ?GetMessageMap@CExOCXDLL@@MBEPBUAFX_MSGMAP@@XZ 1008b800 f   ExControl:ExOCXDLL.obj
 0001:0008a810       ?GetOpenMapData@CExOCXDLL@@QAEJAAV?$CStringT@DV?$StrTraitMFC_DLL@DV?$ChTraitsCRT@D@ATL@@@@@ATL@@@Z 1008b810 f   ExControl:ExOCXDLL.obj
 0001:0008a8c0       ?GetParameter1@CExOCXDLL@@QAE?AV?$CStringT@DV?$StrTraitMFC_DLL@DV?$ChTraitsCRT@D@ATL@@@@@ATL@@PBD@Z 1008b8c0 f   ExControl:ExOCXDLL.obj
 0001:0008a950       ?GetParameter2@CExOCXDLL@@QAE?AV?$CStringT@DV?$StrTraitMFC_DLL@DV?$ChTraitsCRT@D@ATL@@@@@ATL@@PBD@Z 1008b950 f   ExControl:ExOCXDLL.obj
 0001:0008a9e0       ?GetParameter3@CExOCXDLL@@QAE?AV?$CStringT@DV?$StrTraitMFC_DLL@DV?$ChTraitsCRT@D@ATL@@@@@ATL@@PBD@Z 1008b9e0 f   ExControl:ExOCXDLL.obj
 0001:0008aa70       ?GetRuntimeClass@CExOCXDLL@@UBEPAUCRuntimeClass@@XZ 1008ba70 f   ExControl:ExOCXDLL.obj
 0001:0008aa80       ?GetThisClass@CExOCXDLL@@SGPAUCRuntimeClass@@XZ 1008ba80 f   ExControl:ExOCXDLL.obj
 0001:0008aa90       ?GetThisMessageMap@CExOCXDLL@@KGPBUAFX_MSGMAP@@XZ 1008ba90 f   ExControl:ExOCXDLL.obj
 0001:0008aaa0       ?GotoNextWindowFocus@CExOCXDLL@@IAEHIH@Z 1008baa0 f   ExControl:ExOCXDLL.obj
 0001:0008ab10       ?ListupControlHandle@CExOCXDLL@@IAEXPAVCWnd@@@Z 1008bb10 f   ExControl:ExOCXDLL.obj
 0001:0008abe0       ?OnDestroy@CExOCXDLL@@IAEXXZ 1008bbe0 f   ExControl:ExOCXDLL.obj
 0001:0008ace0       ?OnGSharedDataChange@CExOCXDLL@@MAEXPBD0H@Z 1008bce0 f   ExControl:ExOCXDLL.obj
 0001:0008acf0       ?OnInitDialog@CExOCXDLL@@MAEHXZ 1008bcf0 f   ExControl:ExOCXDLL.obj
 0001:0008ad00       ?OnLShareChanged@CExOCXDLL@@IAEJIJ@Z 1008bd00 f   ExControl:ExOCXDLL.obj
 0001:0008add0       ?OnLSharedDataChange@CExOCXDLL@@MAEXPBD0H@Z 1008bdd0 f   ExControl:ExOCXDLL.obj
 0001:0008ade0       ?OnSetFocus@CExOCXDLL@@IAEXPAVCWnd@@@Z 1008bde0 f   ExControl:ExOCXDLL.obj
 0001:0008aeb0       ?Packet_GetData@CExOCXDLL@@MAEHPADH@Z 1008beb0 f   ExControl:ExOCXDLL.obj
 0001:0008aec0       ?Packet_GetPackDataSize@CExOCXDLL@@MAEHPAD@Z 1008bec0 f   ExControl:ExOCXDLL.obj
 0001:0008aed0       ?Packet_SetData2@CExOCXDLL@@MAEHPADH@Z 1008bed0 f   ExControl:ExOCXDLL.obj
 0001:0008aee0       ?Packet_SetData3@CExOCXDLL@@MAEHPADH@Z 1008bee0 f   ExControl:ExOCXDLL.obj
 0001:0008aef0       ?Packet_SetData999@CExOCXDLL@@MAEHHPADH@Z 1008bef0 f   ExControl:ExOCXDLL.obj
 0001:0008af00       ?Packet_SetData@CExOCXDLL@@MAEHPADH@Z 1008bf00 f   ExControl:ExOCXDLL.obj
 0001:0008af10       ?Platform_GetBase@CExOCXDLL@@MAEJPBD@Z 1008bf10 f   ExControl:ExOCXDLL.obj
 0001:0008af60       ?Platform_GetKey@CExOCXDLL@@MAEJPBD@Z 1008bf60 f   ExControl:ExOCXDLL.obj
 0001:0008af70       ?Platform_GetState@CExOCXDLL@@MAEJHJJ@Z 1008bf70 f   ExControl:ExOCXDLL.obj
 0001:0008af80       ?Platform_Initialize@CExOCXDLL@@MAEXJJJPAVCStringList@@@Z 1008bf80 f   ExControl:ExOCXDLL.obj
 0001:0008b1c0       ?Platform_OnSize@CExOCXDLL@@MAEXIHH@Z 1008c1c0 f   ExControl:ExOCXDLL.obj
 0001:0008b1e0       ?Platform_PreTranslateMessage@CExOCXDLL@@MAEJPAUtagMSG@@@Z 1008c1e0 f   ExControl:ExOCXDLL.obj
 0001:0008b1f0       ?Platform_SetKey@CExOCXDLL@@MAEXPBDJ@Z 1008c1f0 f   ExControl:ExOCXDLL.obj
 0001:0008b200       ?Platform_SetProperty@CExOCXDLL@@MAEXPAUSTDATAITEM@@H@Z 1008c200 f   ExControl:ExOCXDLL.obj
 0001:0008b210       ?Platform_SetState@CExOCXDLL@@MAEJHJJ@Z 1008c210 f   ExControl:ExOCXDLL.obj
 0001:0008b220       ?Platform_WindowProc@CExOCXDLL@@MAEJIIJAAH@Z 1008c220 f   ExControl:ExOCXDLL.obj
 0001:0008b280       ?PreTranslateMessage@CExOCXDLL@@UAEHPAUtagMSG@@@Z 1008c280 f   ExControl:ExOCXDLL.obj
 0001:0008b4d0       ?ReceiveData@CExDialog@@UAEJJPBD00PAXJ@Z 1008c4d0 f i ExControl:ExOCXDLL.obj
 0001:0008b4e0       ?ReceiveMessage@CExDialog@@UAEJJPBD00@Z 1008c4e0 f i ExControl:ExOCXDLL.obj
 0001:0008b4f0       ?ReceiveRealData@CExDialog@@UAEJGPBDPAX@Z 1008c4f0 f i ExControl:ExOCXDLL.obj
 0001:0008b500       ?RemoveParameter1@CExOCXDLL@@QAEXXZ 1008c500 f   ExControl:ExOCXDLL.obj
 0001:0008b530       ?RemoveParameter2@CExOCXDLL@@QAEXXZ 1008c530 f   ExControl:ExOCXDLL.obj
 0001:0008b560       ?RemoveParameter3@CExOCXDLL@@QAEXXZ 1008c560 f   ExControl:ExOCXDLL.obj
 0001:0008b590       ?SendMessageString@CExOCXDLL@@QAEXPBD@Z 1008c590 f   ExControl:ExOCXDLL.obj
 0001:0008b5b0       ?SetAtGrow@?$CArray@PAUHWND__@@PAU1@@@QAEXHPAUHWND__@@@Z 1008c5b0 f i ExControl:ExOCXDLL.obj
 0001:0008b5f0       ?SetOpenMapData@CExOCXDLL@@QAEXPBD@Z 1008c5f0 f   ExControl:ExOCXDLL.obj
 0001:0008b6a0       ?SetParameters1@CExOCXDLL@@QAEXV?$CStringT@DV?$StrTraitMFC_DLL@DV?$ChTraitsCRT@D@ATL@@@@@ATL@@@Z 1008c6a0 f   ExControl:ExOCXDLL.obj
 0001:0008b7d0       ?SetParameters2@CExOCXDLL@@QAEXV?$CStringT@DV?$StrTraitMFC_DLL@DV?$ChTraitsCRT@D@ATL@@@@@ATL@@@Z 1008c7d0 f   ExControl:ExOCXDLL.obj
 0001:0008b900       ?SetParameters3@CExOCXDLL@@QAEXV?$CStringT@DV?$StrTraitMFC_DLL@DV?$ChTraitsCRT@D@ATL@@@@@ATL@@@Z 1008c900 f   ExControl:ExOCXDLL.obj
 0001:0008ba30       ?SetPermanentHandle@CExOCXDLL@@QAEXPAVCWnd@@@Z 1008ca30 f   ExControl:ExOCXDLL.obj
 0001:0008ba60       ?SetSize@?$CArray@PAXPAX@@QAEXHH@Z 1008ca60 f i ExControl:ExOCXDLL.obj
 0001:0008bc20       ?StatusChange@CExDialog@@UAEJH@Z 1008cc20 f i ExControl:ExOCXDLL.obj
 0001:0008bc30       ?_GetBaseClass@CExOCXDLL@@KGPAUCRuntimeClass@@XZ 1008cc30 f   ExControl:ExOCXDLL.obj
 0001:0008bc40       ??0CExEdit@@QAE@H@Z        1008cc40 f   ExControl:ExEdit.obj
 0001:0008bce0       ??0CLoaderEdit@@QAE@PAXH@Z 1008cce0 f i ExControl:ExEdit.obj
 0001:0008bf90       ??1CExEdit@@UAE@XZ         1008cf90 f   ExControl:ExEdit.obj
 0001:0008bfc0       ??1CExLoadLib@@QAE@XZ      1008cfc0 f i ExControl:ExEdit.obj
 0001:0008bfe0       ??1CLoaderEdit@@UAE@XZ     1008cfe0 f i ExControl:ExEdit.obj
 0001:0008c060       ??_GCExEdit@@UAEPAXI@Z     1008d060 f i ExControl:ExEdit.obj
 0001:0008c060       ??_ECExEdit@@UAEPAXI@Z     1008d060 f i ExControl:ExEdit.obj
 0001:0008c0c0       ??_GCLoaderEdit@@UAEPAXI@Z 1008d0c0 f i ExControl:ExEdit.obj
 0001:0008c0c0       ??_ECLoaderEdit@@UAEPAXI@Z 1008d0c0 f i ExControl:ExEdit.obj
 0001:0008c160       ?ActionControl@CExEdit@@QAEJPAX@Z 1008d160 f   ExControl:ExEdit.obj
 0001:0008c190       ?GetMessageMap@CExEdit@@MBEPBUAFX_MSGMAP@@XZ 1008d190 f   ExControl:ExEdit.obj
 0001:0008c1a0       ?GetRuntimeClass@CExEdit@@UBEPAUCRuntimeClass@@XZ 1008d1a0 f   ExControl:ExEdit.obj
 0001:0008c1b0       ?GetThisClass@CExEdit@@SGPAUCRuntimeClass@@XZ 1008d1b0 f   ExControl:ExEdit.obj
 0001:0008c1c0       ?GetThisMessageMap@CExEdit@@KGPBUAFX_MSGMAP@@XZ 1008d1c0 f   ExControl:ExEdit.obj
 0001:0008c1d0       ?LoadProcAddress@CExLoadLib@@UAEHXZ 1008d1d0 f i ExControl:ExEdit.obj
 0001:0008c1e0       ?LoadProcAddress@CLoaderEdit@@UAEHXZ 1008d1e0 f i ExControl:ExEdit.obj
 0001:0008c270       ?OnChar@CExEdit@@IAEXIII@Z 1008d270 f   ExControl:ExEdit.obj
 0001:0008c2a0       ?OnPaint@CExEdit@@IAEXXZ   1008d2a0 f   ExControl:ExEdit.obj
 0001:0008c2d0       ?PreSubclassWindow@CExEdit@@MAEXXZ 1008d2d0 f   ExControl:ExEdit.obj
 0001:0008c2f0       ?PreTranslateMessage@CExEdit@@UAEHPAUtagMSG@@@Z 1008d2f0 f   ExControl:ExEdit.obj
 0001:0008c300       ?UseNumericType@CExEdit@@QAEXH@Z 1008d300 f   ExControl:ExEdit.obj
 0001:0008c330       ?_GetBaseClass@CExEdit@@KGPAUCRuntimeClass@@XZ 1008d330 f   ExControl:ExEdit.obj
 0001:0008c340       ??0CExComboBox@@QAE@H@Z    1008d340 f   ExControl:ExComboBox.obj
 0001:0008c3e0       ??0CLoaderComboBox@@QAE@PAXH@Z 1008d3e0 f i ExControl:ExComboBox.obj
 0001:0008c6d0       ??1CExComboBox@@UAE@XZ     1008d6d0 f   ExControl:ExComboBox.obj
 0001:0008c700       ??1CLoaderComboBox@@UAE@XZ 1008d700 f i ExControl:ExComboBox.obj
 0001:0008c780       ??_ECExComboBox@@UAEPAXI@Z 1008d780 f i ExControl:ExComboBox.obj
 0001:0008c780       ??_GCExComboBox@@UAEPAXI@Z 1008d780 f i ExControl:ExComboBox.obj
 0001:0008c7e0       ??_ECLoaderComboBox@@UAEPAXI@Z 1008d7e0 f i ExControl:ExComboBox.obj
 0001:0008c7e0       ??_GCLoaderComboBox@@UAEPAXI@Z 1008d7e0 f i ExControl:ExComboBox.obj
 0001:0008c880       ?CreateObject@CExComboBox@@SGPAVCObject@@XZ 1008d880 f   ExControl:ExComboBox.obj
 0001:0008c940       ?DrawItem@CExComboBox@@UAEXPAUtagDRAWITEMSTRUCT@@@Z 1008d940 f   ExControl:ExComboBox.obj
 0001:0008c970       ?GetMessageMap@CExComboBox@@MBEPBUAFX_MSGMAP@@XZ 1008d970 f   ExControl:ExComboBox.obj
 0001:0008c980       ?GetRuntimeClass@CExComboBox@@UBEPAUCRuntimeClass@@XZ 1008d980 f   ExControl:ExComboBox.obj
 0001:0008c990       ?GetThisClass@CExComboBox@@SGPAUCRuntimeClass@@XZ 1008d990 f   ExControl:ExComboBox.obj
 0001:0008c9a0       ?GetThisMessageMap@CExComboBox@@KGPBUAFX_MSGMAP@@XZ 1008d9a0 f   ExControl:ExComboBox.obj
 0001:0008c9b0       ?LoadProcAddress@CLoaderComboBox@@UAEHXZ 1008d9b0 f i ExControl:ExComboBox.obj
 0001:0008ca80       ?OnLButtonDown@CExComboBox@@IAEXIVCPoint@@@Z 1008da80 f   ExControl:ExComboBox.obj
 0001:0008cab0       ?OnLButtonUp@CExComboBox@@IAEXIVCPoint@@@Z 1008dab0 f   ExControl:ExComboBox.obj
 0001:0008cae0       ?OnMouseMove@CExComboBox@@IAEXIVCPoint@@@Z 1008dae0 f   ExControl:ExComboBox.obj
 0001:0008cb10       ?OnPaint@CExComboBox@@IAEXXZ 1008db10 f   ExControl:ExComboBox.obj
 0001:0008cb40       ?OnTimer@CExComboBox@@IAEXI@Z 1008db40 f   ExControl:ExComboBox.obj
 0001:0008cb70       ?PreSubclassWindow@CExComboBox@@MAEXXZ 1008db70 f   ExControl:ExComboBox.obj
 0001:0008cb90       ?_GetBaseClass@CExComboBox@@KGPAUCRuntimeClass@@XZ 1008db90 f   ExControl:ExComboBox.obj
 0001:0008cba0       ??$SerializeElements@PAVCExItem@@@@YGXAAVCArchive@@PAPAVCExItem@@H@Z 1008dba0 f i ExControl:ExResize.obj
 0001:0008cc50       ??0?$CArray@PAVCExItem@@AAPAV1@@@QAE@XZ 1008dc50 f i ExControl:ExResize.obj
 0001:0008cc80       ??0CExItem@@QAE@PAVCWnd@@ABVCExResizeRect@@AAVCRect@@H@Z 1008dc80 f   ExControl:ExResize.obj
 0001:0008ccf0       ??0CExResize@@QAE@PAVCWnd@@I@Z 1008dcf0 f   ExControl:ExResize.obj
 0001:0008ce20       ??0CExSizeIcon@@QAE@XZ     1008de20 f   ExControl:ExResize.obj
 0001:0008ce70       ??1?$CArray@PAVCExItem@@AAPAV1@@@UAE@XZ 1008de70 f i ExControl:ExResize.obj
 0001:0008ce90       ??1CExItem@@UAE@XZ         1008de90 f   ExControl:ExResize.obj
 0001:0008cf00       ??1CExResize@@UAE@XZ       1008df00 f   ExControl:ExResize.obj
 0001:0008cf90       ??_G?$CArray@PAVCExItem@@AAPAV1@@@UAEPAXI@Z 1008df90 f i ExControl:ExResize.obj
 0001:0008cf90       ??_E?$CArray@PAVCExItem@@AAPAV1@@@UAEPAXI@Z 1008df90 f i ExControl:ExResize.obj
 0001:0008cfe0       ??_GCExItem@@UAEPAXI@Z     1008dfe0 f i ExControl:ExResize.obj
 0001:0008cfe0       ??_ECExItem@@UAEPAXI@Z     1008dfe0 f i ExControl:ExResize.obj
 0001:0008d060       ??_GCExResize@@UAEPAXI@Z   1008e060 f i ExControl:ExResize.obj
 0001:0008d060       ??_ECExResize@@UAEPAXI@Z   1008e060 f i ExControl:ExResize.obj
 0001:0008d110       ??_ECExSizeIcon@@UAEPAXI@Z 1008e110 f i ExControl:ExResize.obj
 0001:0008d110       ??_GCExSizeIcon@@UAEPAXI@Z 1008e110 f i ExControl:ExResize.obj
 0001:0008d160       ?AutoLoadPlacement@CExResize@@QAEXPBD@Z 1008e160 f   ExControl:ExResize.obj
 0001:0008d1e0       ?Defer@CExResize@@IAEHAAPAXPAVCExItem@@HH@Z 1008e1e0 f   ExControl:ExResize.obj
 0001:0008d3e0       ?GetMessageMap@CExSizeIcon@@MBEPBUAFX_MSGMAP@@XZ 1008e3e0 f   ExControl:ExResize.obj
 0001:0008d3f0       ?GetMinMaxInfo@CExResize@@IAEXPAUtagMINMAXINFO@@@Z 1008e3f0 f   ExControl:ExResize.obj
 0001:0008d460       ?GetThisMessageMap@CExSizeIcon@@KGPBUAFX_MSGMAP@@XZ 1008e460 f   ExControl:ExResize.obj
 0001:0008d470       ?Init@CExResize@@IAEXXZ    1008e470 f   ExControl:ExResize.obj
 0001:0008d5c0       ?LoadPlacement@CExResize@@QAEXPBD@Z 1008e5c0 f   ExControl:ExResize.obj
 0001:0008d630       ?OnCreate@CExSizeIcon@@IAEHPAUtagCREATESTRUCTA@@@Z 1008e630 f   ExControl:ExResize.obj
 0001:0008d690       ?OnLButtonDown@CExSizeIcon@@IAEXIVCPoint@@@Z 1008e690 f   ExControl:ExResize.obj
 0001:0008d6f0       ?OnMouseMove@CExSizeIcon@@IAEXIVCPoint@@@Z 1008e6f0 f   ExControl:ExResize.obj
 0001:0008d720       ?OnSetCursor@CExSizeIcon@@IAEHPAVCWnd@@II@Z 1008e720 f   ExControl:ExResize.obj
 0001:0008d740       ?RemoveAllControls@CExResize@@IAEXXZ 1008e740 f   ExControl:ExResize.obj
 0001:0008d7b0       ?RemoveAt@?$CArray@PAVCExItem@@AAPAV1@@@QAEXHH@Z 1008e7b0 f i ExControl:ExResize.obj
 0001:0008d850       ?RemoveResize@CExResize@@IAEHI@Z 1008e850 f   ExControl:ExResize.obj
 0001:0008d950       ?Reset@CExResize@@IAEXXZ   1008e950 f   ExControl:ExResize.obj
 0001:0008d9a0       ?SavePlacement@CExResize@@QAEXPBD@Z 1008e9a0 f   ExControl:ExResize.obj
 0001:0008d9f0       ?Serialize@?$CArray@PAVCExItem@@AAPAV1@@@UAEXAAVCArchive@@@Z 1008e9f0 f i ExControl:ExResize.obj
 0001:0008dad0       ?SetAtGrow@?$CArray@PAVCExItem@@AAPAV1@@@QAEXHAAPAVCExItem@@@Z 1008ead0 f i ExControl:ExResize.obj
 0001:0008db10       ?SetFlag@CExResize@@IAEXW4EFlags@1@@Z 1008eb10 f   ExControl:ExResize.obj
 0001:0008db30       ?SetResize@CExResize@@IAEXPAVCWnd@@ABVCExResizeRect@@VCRect@@@Z 1008eb30 f   ExControl:ExResize.obj
 0001:0008dbd0       ?SetResize@CExResize@@QAEXIQAUHWND__@@ABUEX_RESIZERECT@@@Z 1008ebd0 f   ExControl:ExResize.obj
 0001:0008de80       ?SetResize@CExResize@@QAEXQAUEX_SIZING@@@Z 1008ee80 f   ExControl:ExResize.obj
 0001:0008de90       ?SetSize@?$CArray@PAVCExItem@@AAPAV1@@@QAEXHH@Z 1008ee90 f i ExControl:ExResize.obj
 0001:0008e070       ?Size@CExResize@@IAEXXZ    1008f070 f   ExControl:ExResize.obj
 0001:0008e1e0       ??$CompareElements@P6AXXZP6AXXZ@@YGHPBQ6AXXZ0@Z 1008f1e0 f i ExControl:ExDialog.obj
 0001:0008e210       ??0?$CList@P6AXXZP6AXXZ@@QAE@H@Z 1008f210 f i ExControl:ExDialog.obj
 0001:0008e250       ??0CExDialog@@QAE@IPAVCWnd@@I@Z 1008f250 f   ExControl:ExDialog.obj
 0001:0008e3a0       ??0CExDialog@@QAE@XZ       1008f3a0 f   ExControl:ExDialog.obj
 0001:0008e4d0       ??0CPCTrMngHelper@@QAE@XZ  1008f4d0 f i ExControl:ExDialog.obj
 0001:0008e780       ??1CLoadLib@@QAE@XZ        1008f780 f i ExControl:ExDialog.obj
 0001:0008e7dd       ??_ECExDialog@@WKI@AEPAXI@Z 1008f7dd f i ExControl:ExDialog.obj
 0001:0008e7f0       ??_GCExDialog@@UAEPAXI@Z   1008f7f0 f i ExControl:ExDialog.obj
 0001:0008e7f0       ??_ECExDialog@@UAEPAXI@Z   1008f7f0 f i ExControl:ExDialog.obj
 0001:0008e8d0       ?ColorTableChanged@CMyISkinColorSite@CExDialog@@UAGXXZ 1008f8d0 f i ExControl:ExDialog.obj
 0001:0008e910       ?CreateObject@CExDialog@@SGPAVCObject@@XZ 1008f910 f   ExControl:ExDialog.obj
 0001:0008ea70       ?Find@?$CList@P6AXXZP6AXXZ@@QBEPAU__POSITION@@P6AXXZPAU2@@Z 1008fa70 f i ExControl:ExDialog.obj
 0001:0008eab0       ?FreeNode@?$CList@P6AXXZP6AXXZ@@IAEXPAUCNode@1@@Z 1008fab0 f i ExControl:ExDialog.obj
 0001:0008eb00       ?GetMessageMap@CExDialog@@MBEPBUAFX_MSGMAP@@XZ 1008fb00 f   ExControl:ExDialog.obj
 0001:0008eb10       ?GetRuntimeClass@CExDialog@@UBEPAUCRuntimeClass@@XZ 1008fb10 f   ExControl:ExDialog.obj
 0001:0008eb20       ?GetThisClass@CExDialog@@SGPAUCRuntimeClass@@XZ 1008fb20 f   ExControl:ExDialog.obj
 0001:0008eb30       ?GetThisMessageMap@CExDialog@@KGPBUAFX_MSGMAP@@XZ 1008fb30 f   ExControl:ExDialog.obj
 0001:0008eb40       ?LoadProcAddress@CLoadLib@@UAEHXZ 1008fb40 f i ExControl:ExDialog.obj
 0001:0008eb50       ?LoadProcAddress@CPCTrMngHelper@@UAEHXZ 1008fb50 f i ExControl:ExDialog.obj
 0001:0008ebc0       ?NotifyToCtrlColorTableChanged@CExDialog@@IAEXXZ 1008fbc0 f   ExControl:ExDialog.obj
 0001:0008ebe0       ?OnCtlColor@CExDialog@@IAEPAUHBRUSH__@@PAVCDC@@PAVCWnd@@I@Z 1008fbe0 f   ExControl:ExDialog.obj
 0001:0008ec60       ?OnDestroy@CExDialog@@IAEXXZ 1008fc60 f   ExControl:ExDialog.obj
 0001:0008ed90       ?OnEraseBkgnd@CExDialog@@IAEHPAVCDC@@@Z 1008fd90 f   ExControl:ExDialog.obj
 0001:0008ee10       ?OnGetMinMaxInfo@CExDialog@@IAEXPAUtagMINMAXINFO@@@Z 1008fe10 f   ExControl:ExDialog.obj
 0001:0008ee20       ?OnInitDialog@CExDialog@@MAEHXZ 1008fe20 f   ExControl:ExDialog.obj
 0001:0008ef70       ?OnSize@CExDialog@@IAEXIHH@Z 1008ff70 f   ExControl:ExDialog.obj
 0001:0008ef90       ?ReceiveData@CMyITrCommSite@CExDialog@@UAGJJPBD00PAXJ@Z 1008ff90 f i ExControl:ExDialog.obj
 0001:0008efe0       ?ReceiveMessage@CMyITrCommSite@CExDialog@@UAGJJPBD00@Z 1008ffe0 f i ExControl:ExDialog.obj
 0001:0008f010       ?ReceiveRealData@CMyITrCommSite@CExDialog@@UAGJGPBDPAX@Z 10090010 f i ExControl:ExDialog.obj
 0001:0008f060       ?RemoveAt@?$CList@P6AXXZP6AXXZ@@QAEXPAU__POSITION@@@Z 10090060 f i ExControl:ExDialog.obj
 0001:0008f0d0       ?RemoveChangeSkinNotifyFunction@CExDialog@@QAEXPAU__POSITION@@@Z 100900d0 f   ExControl:ExDialog.obj
 0001:0008f170       ?SetBaseInterface@CExDialog@@QAEXI@Z 10090170 f   ExControl:ExDialog.obj
 0001:0008f260       ?SetChangeSkinNotifyFunction@CExDialog@@QAEPAU__POSITION@@P6AXXZ@Z 10090260 f   ExControl:ExDialog.obj
 0001:0008f2b0       ?StatusChange@CMyITrCommSite@CExDialog@@UAGJH@Z 100902b0 f i ExControl:ExDialog.obj
 0001:0008f2d0       ?_GetBaseClass@CExDialog@@KGPAUCRuntimeClass@@XZ 100902d0 f   ExControl:ExDialog.obj
 0001:0008f2e0       ??0CExTreeCtrl@@QAE@XZ     100902e0 f   ExControl:ExTreeCtrl.obj
 0001:0008f300       ??1CExTreeCtrl@@UAE@XZ     10090300 f   ExControl:ExTreeCtrl.obj
 0001:0008f310       ??_GCExTreeCtrl@@UAEPAXI@Z 10090310 f i ExControl:ExTreeCtrl.obj
 0001:0008f310       ??_ECExTreeCtrl@@UAEPAXI@Z 10090310 f i ExControl:ExTreeCtrl.obj
 0001:0008f360       ?GetMessageMap@CExTreeCtrl@@MBEPBUAFX_MSGMAP@@XZ 10090360 f   ExControl:ExTreeCtrl.obj
 0001:0008f370       ?GetThisMessageMap@CExTreeCtrl@@KGPBUAFX_MSGMAP@@XZ 10090370 f   ExControl:ExTreeCtrl.obj
 0001:0008f380       ??0CExCodeInput@@QAE@XZ    10090380 f   ExControl:ExCodeInput.obj
 0001:0008f420       ??0CLoaderCodeInput@@QAE@PAXPBD@Z 10090420 f i ExControl:ExCodeInput.obj
 0001:0008f730       ??1CExCodeInput@@UAE@XZ    10090730 f   ExControl:ExCodeInput.obj
 0001:0008f7b0       ??1CLoaderCodeInput@@UAE@XZ 100907b0 f i ExControl:ExCodeInput.obj
 0001:0008f830       ??1CX2000BaseDesk@CExCodeInput@@QAE@XZ 10090830 f i ExControl:ExCodeInput.obj
 0001:0008f890       ??_GCExCodeInput@@UAEPAXI@Z 10090890 f i ExControl:ExCodeInput.obj
 0001:0008f890       ??_ECExCodeInput@@UAEPAXI@Z 10090890 f i ExControl:ExCodeInput.obj
 0001:0008f920       ??_ECLoaderCodeInput@@UAEPAXI@Z 10090920 f i ExControl:ExCodeInput.obj
 0001:0008f920       ??_GCLoaderCodeInput@@UAEPAXI@Z 10090920 f i ExControl:ExCodeInput.obj
 0001:0008f9c0       ?CallCommand@CX2000BaseDesk@CExCodeInput@@UAEXPBD@Z 100909c0 f   ExControl:ExCodeInput.obj
 0001:0008f9d0       ?FP_nGetCtrlPos@CX2000BaseDesk@CExCodeInput@@UAEJXZ 100909d0 f   ExControl:ExCodeInput.obj
 0001:0008f9e0       ?FP_sGetMyVBName@CX2000BaseDesk@CExCodeInput@@UAEPBDPAUHWND__@@@Z 100909e0 f   ExControl:ExCodeInput.obj
 0001:0008f9f0       ?FP_vAdviseDebug@CX2000BaseDesk@CExCodeInput@@UAEHPBDI@Z 100909f0 f   ExControl:ExCodeInput.obj
 0001:0008fa00       ?FP_vResizeCtrl@CX2000BaseDesk@CExCodeInput@@UAEXXZ 10090a00 f   ExControl:ExCodeInput.obj
 0001:0008fa10       ?FP_vSendDebug@CX2000BaseDesk@CExCodeInput@@UAEXPBD00@Z 10090a10 f   ExControl:ExCodeInput.obj
 0001:0008fa20       ?FP_vUnadviseDebug@CX2000BaseDesk@CExCodeInput@@UAEXPBDI@Z 10090a20 f   ExControl:ExCodeInput.obj
 0001:0008fa30       ?GetBase@CExCodeInput@@QAEJPBD@Z 10090a30 f   ExControl:ExCodeInput.obj
 0001:0008fa60       ?GetBasePath@CX2000BaseDesk@CExCodeInput@@UAEPBDXZ 10090a60 f   ExControl:ExCodeInput.obj
 0001:0008fa80       ?GetClientRect@CExCodeInput@@QAEXPAUtagRECT@@@Z 10090a80 f   ExControl:ExCodeInput.obj
 0001:0008fab0       ?GetCtrlHwnd@CX2000BaseDesk@CExCodeInput@@UAEPAUHWND__@@PBD@Z 10090ab0 f   ExControl:ExCodeInput.obj
 0001:0008fac0       ?GetCtrlUnknown@CX2000BaseDesk@CExCodeInput@@UAEPAUIUnknown@@PBD@Z 10090ac0 f   ExControl:ExCodeInput.obj
 0001:0008fad0       ?GetDataText@CExCodeInput@@QAE?AV?$CStringT@DV?$StrTraitMFC_DLL@DV?$ChTraitsCRT@D@ATL@@@@@ATL@@XZ 10090ad0 f   ExControl:ExCodeInput.obj
 0001:0008fb50       ?GetDeskHwnd@CX2000BaseDesk@CExCodeInput@@UAEPAUHWND__@@XZ 10090b50 f   ExControl:ExCodeInput.obj
 0001:0008fb60       ?GetDeskInfo@CX2000BaseDesk@CExCodeInput@@UAEJPBD@Z 10090b60 f   ExControl:ExCodeInput.obj
 0001:0008fb70       ?GetEnabled@CExCodeInput@@QAEHXZ 10090b70 f   ExControl:ExCodeInput.obj
 0001:0008fb90       ?GetFrameInfo@CX2000BaseDesk@CExCodeInput@@UAEJPBD@Z 10090b90 f   ExControl:ExCodeInput.obj
 0001:0008fba0       ?GetGubunFromCode@CExCodeInput@@QAEFPBD@Z 10090ba0 f   ExControl:ExCodeInput.obj
 0001:0008fbd0       ?GetHWnd@CExCodeInput@@QAEIXZ 10090bd0 f   ExControl:ExCodeInput.obj
 0001:0008fbf0       ?GetLSharedData@CX2000BaseDesk@CExCodeInput@@UAEPAXXZ 10090bf0 f   ExControl:ExCodeInput.obj
 0001:0008fc00       ?GetMainInfo@CX2000BaseDesk@CExCodeInput@@UAEJPBD@Z 10090c00 f   ExControl:ExCodeInput.obj
 0001:0008fc10       ?GetSafeHwnd@CExCodeInput@@QAEPAUHWND__@@XZ 10090c10 f   ExControl:ExCodeInput.obj
 0001:0008fc30       ?GetSharedInterface@CX2000BaseDesk@CExCodeInput@@UAEPAXXZ 10090c30 f   ExControl:ExCodeInput.obj
 0001:0008fc40       ?GetUnknown@CX2000BaseDesk@CExCodeInput@@UAEPAUIDispatch@@XZ 10090c40 f   ExControl:ExCodeInput.obj
 0001:0008fc50       ?GetUserColor@CX2000BaseDesk@CExCodeInput@@UAEKFPBDF@Z 10090c50 f   ExControl:ExCodeInput.obj
 0001:0008fc60       ?GetUserInfo@CX2000BaseDesk@CExCodeInput@@UAEJPBD@Z 10090c60 f   ExControl:ExCodeInput.obj
 0001:0008fc70       ?GetWindowRect@CExCodeInput@@QAEXPAUtagRECT@@@Z 10090c70 f   ExControl:ExCodeInput.obj
 0001:0008fca0       ?InitCodeInput@CExCodeInput@@QAEHPAVCDialog@@AAVCRect@@IIPAVCBaseDesk2@@@Z 10090ca0 f   ExControl:ExCodeInput.obj
 0001:0008fd80       ?InitCodeInput@CExCodeInput@@QAEHPAVCDialog@@AAVCRect@@IPAPBDHPAVCBaseDesk2@@@Z 10090d80 f   ExControl:ExCodeInput.obj
 0001:0008fec0       ?InitCodeInput@CExCodeInput@@QAEHPAVCDialog@@AAVCRect@@IPAVCStringList@@PAVCBaseDesk2@@@Z 10090ec0 f   ExControl:ExCodeInput.obj
 0001:0008ffa0       ?InitCodeInput@CExCodeInput@@QAEHPAVCDialog@@AAVCRect@@IPBDPAVCBaseDesk2@@@Z 10090fa0 f   ExControl:ExCodeInput.obj
 0001:000900e0       ?InitCodeInput@CExCodeInput@@QAEHPAVCDialog@@IIPAVCBaseDesk2@@@Z 100910e0 f   ExControl:ExCodeInput.obj
 0001:00090200       ?InitCodeInput@CExCodeInput@@QAEHPAVCDialog@@IPAPBDHPAVCBaseDesk2@@@Z 10091200 f   ExControl:ExCodeInput.obj
 0001:000903a0       ?InitCodeInput@CExCodeInput@@QAEHPAVCDialog@@IPAVCStringList@@PAVCBaseDesk2@@@Z 100913a0 f   ExControl:ExCodeInput.obj
 0001:000904c0       ?InitCodeInput@CExCodeInput@@QAEHPAVCDialog@@IPBDPAVCBaseDesk2@@@Z 100914c0 f   ExControl:ExCodeInput.obj
 0001:00090650       ?InvokeEvent2@CX2000BaseDesk@CExCodeInput@@UAEHPBD00@Z 10091650 f   ExControl:ExCodeInput.obj
 0001:00090670       ?InvokeEvent@CExCodeInput@@UAEHPBD0@Z 10091670 f   ExControl:ExCodeInput.obj
 0001:000906d0       ?InvokeEvent@CX2000BaseDesk@CExCodeInput@@UAEHPAUHWND__@@PBD1@Z 100916d0 f   ExControl:ExCodeInput.obj
 0001:000906f0       ?LoadProcAddress@CLoaderCodeInput@@UAEHXZ 100916f0 f i ExControl:ExCodeInput.obj
 0001:00090880       ?MoveWindow@CExCodeInput@@QAEXHHHHH@Z 10091880 f   ExControl:ExCodeInput.obj
 0001:000908b0       ?MoveWindow@CExCodeInput@@QAEXPBUtagRECT@@H@Z 100918b0 f   ExControl:ExCodeInput.obj
 0001:000908e0       ?SendKey@CX2000BaseDesk@CExCodeInput@@UAEHPAUHWND__@@IHH@Z 100918e0 f   ExControl:ExCodeInput.obj
 0001:000908f0       ?SetCurSel@CExCodeInput@@QAEXF@Z 100918f0 f   ExControl:ExCodeInput.obj
 0001:00090920       ?SetDataText2@CExCodeInput@@QAEXPBD@Z 10091920 f   ExControl:ExCodeInput.obj
 0001:00090950       ?SetDataText@CExCodeInput@@QAEXPBD@Z 10091950 f   ExControl:ExCodeInput.obj
 0001:00090980       ?SetEnabled@CExCodeInput@@QAEXH@Z 10091980 f   ExControl:ExCodeInput.obj
 0001:000909b0       ?SetFocus@CExCodeInput@@QAEXXZ 100919b0 f   ExControl:ExCodeInput.obj
 0001:000909d0       ?SetMapMessage@CX2000BaseDesk@CExCodeInput@@UAEXJPBD@Z 100919d0 f   ExControl:ExCodeInput.obj
 0001:000909e0       ?SetMyBaseDesk2@CExCodeInput@@IAEXPAVCBaseDesk2@@@Z 100919e0 f   ExControl:ExCodeInput.obj
 0001:00090a10       ?SetWindowPos@CExCodeInput@@QAEHPBVCWnd@@HHHHI@Z 10091a10 f   ExControl:ExCodeInput.obj
 0001:00090a50       ?ShowWindow@CExCodeInput@@QAEHH@Z 10091a50 f   ExControl:ExCodeInput.obj
 0001:00090a80       ??0CExTabCtrl@@QAE@H@Z     10091a80 f   ExControl:ExTabCtrl.obj
 0001:00090b20       ??0CLoaderTabCtrl@@QAE@PAXH@Z 10091b20 f i ExControl:ExTabCtrl.obj
 0001:00090e80       ??1CExTabCtrl@@UAE@XZ      10091e80 f   ExControl:ExTabCtrl.obj
 0001:00090eb0       ??1CLoaderTabCtrl@@UAE@XZ  10091eb0 f i ExControl:ExTabCtrl.obj
 0001:00090f30       ??_ECExTabCtrl@@UAEPAXI@Z  10091f30 f i ExControl:ExTabCtrl.obj
 0001:00090f30       ??_GCExTabCtrl@@UAEPAXI@Z  10091f30 f i ExControl:ExTabCtrl.obj
 0001:00090f90       ??_GCLoaderTabCtrl@@UAEPAXI@Z 10091f90 f i ExControl:ExTabCtrl.obj
 0001:00090f90       ??_ECLoaderTabCtrl@@UAEPAXI@Z 10091f90 f i ExControl:ExTabCtrl.obj
 0001:00091030       ??_GCTabCtrl@@UAEPAXI@Z    10092030 f i ExControl:ExTabCtrl.obj
 0001:00091030       ??_ECTabCtrl@@UAEPAXI@Z    10092030 f i ExControl:ExTabCtrl.obj
 0001:00091070       ?AddChildControl@CExTabCtrl@@QAEXPAVCWnd@@@Z 10092070 f   ExControl:ExTabCtrl.obj
 0001:000910a0       ?DrawItem@CExTabCtrl@@MAEXPAUtagDRAWITEMSTRUCT@@@Z 100920a0 f   ExControl:ExTabCtrl.obj
 0001:000910d0       ?GetMessageMap@CExTabCtrl@@MBEPBUAFX_MSGMAP@@XZ 100920d0 f   ExControl:ExTabCtrl.obj
 0001:000910e0       ?GetThisMessageMap@CExTabCtrl@@KGPBUAFX_MSGMAP@@XZ 100920e0 f   ExControl:ExTabCtrl.obj
 0001:000910f0       ?InsertItem@CExTabCtrl@@QAEXHPADHI@Z 100920f0 f   ExControl:ExTabCtrl.obj
 0001:00091120       ?InsertItem@CExTabCtrl@@QAEXHPADI@Z 10092120 f   ExControl:ExTabCtrl.obj
 0001:00091150       ?InsertItem@CExTabCtrl@@QAEXHPAUtagTCITEMA@@I@Z 10092150 f   ExControl:ExTabCtrl.obj
 0001:00091180       ?LoadProcAddress@CLoaderTabCtrl@@UAEHXZ 10092180 f i ExControl:ExTabCtrl.obj
 0001:00091320       ?OnEraseBkgnd@CExTabCtrl@@IAEHPAVCDC@@@Z 10092320 f   ExControl:ExTabCtrl.obj
 0001:00091350       ?OnHScroll@CExTabCtrl@@IAEXIIPAVCScrollBar@@@Z 10092350 f   ExControl:ExTabCtrl.obj
 0001:00091380       ?OnKillFocus@CExTabCtrl@@IAEXPAVCWnd@@@Z 10092380 f   ExControl:ExTabCtrl.obj
 0001:000913b0       ?OnMouseLeave@CExTabCtrl@@IAEJIJ@Z 100923b0 f   ExControl:ExTabCtrl.obj
 0001:000913e0       ?OnMouseMove@CExTabCtrl@@IAEXIVCPoint@@@Z 100923e0 f   ExControl:ExTabCtrl.obj
 0001:00091410       ?OnPaint@CExTabCtrl@@IAEXXZ 10092410 f   ExControl:ExTabCtrl.obj
 0001:00091490       ?OnSelchange@CExTabCtrl@@IAEHPAUtagNMHDR@@PAJ@Z 10092490 f   ExControl:ExTabCtrl.obj
 0001:000914d0       ?OnSelchanging@CExTabCtrl@@IAEHPAUtagNMHDR@@PAJ@Z 100924d0 f   ExControl:ExTabCtrl.obj
 0001:00091510       ?OnSetFocus@CExTabCtrl@@IAEXPAVCWnd@@@Z 10092510 f   ExControl:ExTabCtrl.obj
 0001:00091540       ?OnSize@CExTabCtrl@@IAEXIHH@Z 10092540 f   ExControl:ExTabCtrl.obj
 0001:00091570       ?PreSubclassWindow@CExTabCtrl@@MAEXXZ 10092570 f   ExControl:ExTabCtrl.obj
 0001:00091590       ?RemoveChildControl@CExTabCtrl@@QAEXPAVCWnd@@@Z 10092590 f   ExControl:ExTabCtrl.obj
 0001:000915c0       ?SetSTTabColor@CExTabCtrl@@QAEXJ@Z 100925c0 f   ExControl:ExTabCtrl.obj
 0001:000915f0       ?SetTabColor@CExTabCtrl@@QAEXKKK@Z 100925f0 f   ExControl:ExTabCtrl.obj
 0001:00091620       ?WindowProc@CExTabCtrl@@MAEJIIJ@Z 10092620 f   ExControl:ExTabCtrl.obj
 0001:00091660       ?Serialize@?$CArray@PAXPAX@@UAEXAAVCArchive@@@Z 10092660 f i ExControl:StdAfx.obj
 0001:00091740       ??_E?$CArray@PAXPAX@@UAEPAXI@Z 10092740 f i ExControl:StdAfx.obj
 0001:00091740       ??_G?$CArray@PAXPAX@@UAEPAXI@Z 10092740 f i ExControl:StdAfx.obj
 0001:00091790       ??0?$CArray@PAXPAX@@QAE@XZ 10092790 f i ExControl:StdAfx.obj
 0001:000917c0       ??1?$CArray@PAXPAX@@UAE@XZ 100927c0 f i ExControl:StdAfx.obj
 0001:000917e0       ?CompareParamter@@YAHPADV?$CStringT@DV?$StrTraitMFC_DLL@DV?$ChTraitsCRT@D@ATL@@@@@ATL@@@Z 100927e0 f   ExControl:StdAfx.obj
 0001:000918a0       ?CreateObject@?$CThreadLocal@VAFX_MODULE_THREAD_STATE@@@@SGPAVCNoTrackObject@@XZ 100928a0 f i ExControl:StdAfx.obj
 0001:00091910       ?GetParamterValue@@YAXPBDAAV?$CStringT@DV?$StrTraitMFC_DLL@DV?$ChTraitsCRT@D@ATL@@@@@ATL@@V12@@Z 10092910 f   ExControl:StdAfx.obj
 0001:00091a00       ?RemovePermanentHandle@@YAXPAX@Z 10092a00 f   ExControl:StdAfx.obj
 0001:00091a40       ?SetAtGrow@?$CArray@PAXPAX@@QAEXHPAX@Z 10092a40 f i ExControl:StdAfx.obj
 0001:00091a80       ?SetPermanentHandle@@YAXPAXPAVCObject@@@Z 10092a80 f   ExControl:StdAfx.obj
 0001:00091b50       ?AddRef@XPlatformObj@CExOCXDLL@@UAGKXZ 10092b50 f   ExControl:CtlInterpace.obj
 0001:00091b60       ?AddRef@XWndObj@CExOCXDLL@@UAGKXZ 10092b60 f   ExControl:CtlInterpace.obj
 0001:00091b70       ?OnSize@XWndObj@CExOCXDLL@@UAGXIHH@Z 10092b70 f   ExControl:CtlInterpace.obj
 0001:00091ba0       ?PFGetBase@XPlatformObj@CExOCXDLL@@UAGJPBD@Z 10092ba0 f   ExControl:CtlInterpace.obj
 0001:00091bc0       ?PFGetKey@XPlatformObj@CExOCXDLL@@UAGJPBD@Z 10092bc0 f   ExControl:CtlInterpace.obj
 0001:00091be0       ?PFGetState@XPlatformObj@CExOCXDLL@@UAGJHJJ@Z 10092be0 f   ExControl:CtlInterpace.obj
 0001:00091c10       ?PFInitialize@XPlatformObj@CExOCXDLL@@UAGXJJJPAVCStringList@@@Z 10092c10 f   ExControl:CtlInterpace.obj
 0001:00091c40       ?PFPreTranslateMessage@XPlatformObj@CExOCXDLL@@UAGJPAUtagMSG@@@Z 10092c40 f   ExControl:CtlInterpace.obj
 0001:00091c60       ?PFSetKey@XPlatformObj@CExOCXDLL@@UAGXPBDJ@Z 10092c60 f   ExControl:CtlInterpace.obj
 0001:00091c80       ?PFSetProperty@XPlatformObj@CExOCXDLL@@UAGXPAUSTDATAITEM@@H@Z 10092c80 f   ExControl:CtlInterpace.obj
 0001:00091ca0       ?PFSetState@XPlatformObj@CExOCXDLL@@UAGJHJJ@Z 10092ca0 f   ExControl:CtlInterpace.obj
 0001:00091cd0       ?PFWindowProc@XPlatformObj@CExOCXDLL@@UAGJIIJAAH@Z 10092cd0 f   ExControl:CtlInterpace.obj
 0001:00091d00       ?QueryInterface@XPlatformObj@CExOCXDLL@@UAGJABU_GUID@@PAPAX@Z 10092d00 f   ExControl:CtlInterpace.obj
 0001:00091d10       ?QueryInterface@XWndObj@CExOCXDLL@@UAGJABU_GUID@@PAPAX@Z 10092d10 f   ExControl:CtlInterpace.obj
 0001:00091d20       ?Release@XPlatformObj@CExOCXDLL@@UAGKXZ 10092d20 f   ExControl:CtlInterpace.obj
 0001:00091d30       ?Release@XWndObj@CExOCXDLL@@UAGKXZ 10092d30 f   ExControl:CtlInterpace.obj
 0001:00091d40       ??0CImplPackOut@CExOCXDLL@@QAE@XZ 10092d40 f   ExControl:CtlPackInOut.obj
 0001:00091d50       ?GetData@CImplPackIn@CExOCXDLL@@UAEHPADH@Z 10092d50 f   ExControl:CtlPackInOut.obj
 0001:00091d70       ?GetPackDataSize@CBaseCtrlPackOut@@UAEHPAD@Z 10092d70 f i ExControl:CtlPackInOut.obj
 0001:00091d80       ?GetPackDataSize@CImplPackOut@CExOCXDLL@@UAEHPAD@Z 10092d80 f   ExControl:CtlPackInOut.obj
 0001:00091da0       ?SetData2@CBaseCtrlPackOut@@UAEHPADH@Z 10092da0 f i ExControl:CtlPackInOut.obj
 0001:00091db0       ?SetData2@CImplPackOut@CExOCXDLL@@UAEHPADH@Z 10092db0 f   ExControl:CtlPackInOut.obj
 0001:00091dd0       ?SetData3@CBaseCtrlPackOut@@UAEHPADH@Z 10092dd0 f i ExControl:CtlPackInOut.obj
 0001:00091de0       ?SetData3@CImplPackOut@CExOCXDLL@@UAEHPADH@Z 10092de0 f   ExControl:CtlPackInOut.obj
 0001:00091e00       ?SetData999@CBaseCtrlPackOut@@UAEHHPADH@Z 10092e00 f i ExControl:CtlPackInOut.obj
 0001:00091e10       ?SetData999@CImplPackOut@CExOCXDLL@@UAEHHPADH@Z 10092e10 f   ExControl:CtlPackInOut.obj
 0001:00091e30       ?SetData@CBaseCtrlPackOut@@UAEHPADH@Z 10092e30 f i ExControl:CtlPackInOut.obj
 0001:00091e40       ?SetData@CImplPackOut@CExOCXDLL@@UAEHPADH@Z 10092e40 f   ExControl:CtlPackInOut.obj
 0001:00091e60       ?ChangedLShareData@CExOCXDLL@@QAEHPBD0@Z 10092e60 f   ExControl:CtlSharedData.obj
 0001:00091e90       ?InitGet@CExOCXDLL@@QAEHPBD@Z 10092e90 f   ExControl:CtlSharedData.obj
 0001:00091ea0       ?InitLSharedData@CExOCXDLL@@QAEHXZ 10092ea0 f   ExControl:CtlSharedData.obj
 0001:00092150       ?InitSet@CExOCXDLL@@QAEHXZ 10093150 f   ExControl:CtlSharedData.obj
 0001:00092160       ?InitStart@CExOCXDLL@@QAEHPBDAAV?$CStringT@DV?$StrTraitMFC_DLL@DV?$ChTraitsCRT@D@ATL@@@@@ATL@@@Z 10093160 f   ExControl:CtlSharedData.obj
 0001:000921b0       ?ParedShareDataChange@CExOCXDLL@@QAEHPBD0@Z 100931b0 f   ExControl:CtlSharedData.obj
 0001:00092330       ??0CExResizeRect@@QAE@MMMM@Z 10093330 f   ExControl:ExResizeRect.obj
 0001:00092360       ??0CExResizeRect@@QAE@XZ   10093360 f   ExControl:ExResizeRect.obj
 0001:00092370       ??4CExResizeRect@@QAEAAV0@ABUEX_RESIZERECT@@@Z 10093370 f   ExControl:ExResizeRect.obj
 0001:000923a0       ??4CExResizeRect@@QAEAAV0@ABUtagRECT@@@Z 100933a0 f   ExControl:ExResizeRect.obj
 0001:000923e0       ??ICExResizeRect@@QAE?AV0@ABUEX_RESIZERECT@@@Z 100933e0 f   ExControl:ExResizeRect.obj
 0001:00092460       ??YCExResizeRect@@QAEAAV0@ABUEX_RESIZERECT@@@Z 10093460 f   ExControl:ExResizeRect.obj
 0001:000924b0       ??0CExStatic@@QAE@H@Z      100934b0 f   ExControl:ExStatic.obj
 0001:00092550       ??0CLoaderStatic@@QAE@PAXH@Z 10093550 f i ExControl:ExStatic.obj
 0001:00092860       ??1CExStatic@@UAE@XZ       10093860 f   ExControl:ExStatic.obj
 0001:00092910       ??_ECExStatic@@UAEPAXI@Z   10093910 f i ExControl:ExStatic.obj
 0001:00092910       ??_GCExStatic@@UAEPAXI@Z   10093910 f i ExControl:ExStatic.obj
 0001:000929e0       ?ActionControl@CExStatic@@QAEJPAX@Z 100939e0 f   ExControl:ExStatic.obj
 0001:00092a10       ?CreateObject@CExStatic@@SGPAVCObject@@XZ 10093a10 f   ExControl:ExStatic.obj
 0001:00092ad0       ?GetMessageMap@CExStatic@@MBEPBUAFX_MSGMAP@@XZ 10093ad0 f   ExControl:ExStatic.obj
 0001:00092ae0       ?GetRuntimeClass@CExStatic@@UBEPAUCRuntimeClass@@XZ 10093ae0 f   ExControl:ExStatic.obj
 0001:00092af0       ?GetThisClass@CExStatic@@SGPAUCRuntimeClass@@XZ 10093af0 f   ExControl:ExStatic.obj
 0001:00092b00       ?GetThisMessageMap@CExStatic@@KGPBUAFX_MSGMAP@@XZ 10093b00 f   ExControl:ExStatic.obj
 0001:00092b10       ?GetWindowTextA@CExStatic@@QAEXAAV?$CStringT@DV?$StrTraitMFC_DLL@DV?$ChTraitsCRT@D@ATL@@@@@ATL@@@Z 10093b10 f   ExControl:ExStatic.obj
 0001:00092b40       ?LoadProcAddress@CLoaderStatic@@UAEHXZ 10093b40 f i ExControl:ExStatic.obj
 0001:00092c60       ?OnEraseBkgnd@CExStatic@@IAEHPAVCDC@@@Z 10093c60 f   ExControl:ExStatic.obj
 0001:00092c90       ?OnPaint@CExStatic@@IAEXXZ 10093c90 f   ExControl:ExStatic.obj
 0001:00092d10       ?PreSubclassWindow@CExStatic@@MAEXXZ 10093d10 f   ExControl:ExStatic.obj
 0001:00092d30       ?SetIconImage@CExStatic@@QAEHVCSize@@PAUHICON__@@I@Z 10093d30 f   ExControl:ExStatic.obj
 0001:00092d70       ?SetSkinIndex@CExStatic@@QAEHIII@Z 10093d70 f   ExControl:ExStatic.obj
 0001:00092de0       ?SetSkinString@CExStatic@@QAEHPBD00@Z 10093de0 f   ExControl:ExStatic.obj
 0001:00092e50       ?SetStaticColor@CExStatic@@QAEHKKK@Z 10093e50 f   ExControl:ExStatic.obj
 0001:00092e90       ?SetText@CExStatic@@QAEXPBD@Z 10093e90 f   ExControl:ExStatic.obj
 0001:00092ec0       ?WindowProc@CExStatic@@MAEJIIJ@Z 10093ec0 f   ExControl:ExStatic.obj
 0001:00092f00       ?_GetBaseClass@CExStatic@@KGPAUCRuntimeClass@@XZ 10093f00 f   ExControl:ExStatic.obj
 0001:00092f10       ??0CExCheckBox@@QAE@H@Z    10093f10 f   ExControl:ExCheckBox.obj
 0001:00092fb0       ??0CLoaderCheckBoxButton@@QAE@PAXH@Z 10093fb0 f i ExControl:ExCheckBox.obj
 0001:00093260       ??1CExCheckBox@@UAE@XZ     10094260 f   ExControl:ExCheckBox.obj
 0001:00093290       ??1CLoaderCheckBoxButton@@UAE@XZ 10094290 f i ExControl:ExCheckBox.obj
 0001:00093310       ??_GCExCheckBox@@UAEPAXI@Z 10094310 f i ExControl:ExCheckBox.obj
 0001:00093310       ??_ECExCheckBox@@UAEPAXI@Z 10094310 f i ExControl:ExCheckBox.obj
 0001:00093370       ??_ECLoaderCheckBoxButton@@UAEPAXI@Z 10094370 f i ExControl:ExCheckBox.obj
 0001:00093370       ??_GCLoaderCheckBoxButton@@UAEPAXI@Z 10094370 f i ExControl:ExCheckBox.obj
 0001:00093410       ?CreateObject@CExCheckBox@@SGPAVCObject@@XZ 10094410 f   ExControl:ExCheckBox.obj
 0001:000934d0       ?CtlColor@CExCheckBox@@IAEPAUHBRUSH__@@PAVCDC@@I@Z 100944d0 f   ExControl:ExCheckBox.obj
 0001:00093500       ?GetMessageMap@CExCheckBox@@MBEPBUAFX_MSGMAP@@XZ 10094500 f   ExControl:ExCheckBox.obj
 0001:00093510       ?GetRuntimeClass@CExCheckBox@@UBEPAUCRuntimeClass@@XZ 10094510 f   ExControl:ExCheckBox.obj
 0001:00093520       ?GetThisClass@CExCheckBox@@SGPAUCRuntimeClass@@XZ 10094520 f   ExControl:ExCheckBox.obj
 0001:00093530       ?GetThisMessageMap@CExCheckBox@@KGPBUAFX_MSGMAP@@XZ 10094530 f   ExControl:ExCheckBox.obj
 0001:00093540       ?LoadProcAddress@CLoaderCheckBoxButton@@UAEHXZ 10094540 f i ExControl:ExCheckBox.obj
 0001:000935e0       ?SetColor@CExCheckBox@@QAEXKK@Z 100945e0 f   ExControl:ExCheckBox.obj
 0001:00093610       ?SetSkinIndex@CExCheckBox@@QAEXII@Z 10094610 f   ExControl:ExCheckBox.obj
 0001:00093640       ?SetSkinString@CExCheckBox@@QAEXPBD0@Z 10094640 f   ExControl:ExCheckBox.obj
 0001:00093670       ?_GetBaseClass@CExCheckBox@@KGPAUCRuntimeClass@@XZ 10094670 f   ExControl:ExCheckBox.obj
 0001:00093680       ??0CExGridCtrl@@QAE@HHHH@Z 10094680 f   ExGridLib:ExGridCtrl.obj
 0001:00093820       ??0CLoaderGridCtrl@@QAE@PAXPBD@Z 10094820 f i ExGridLib:ExGridCtrl.obj
 0001:000945f0       ??1CExGridCtrl@@UAE@XZ     100955f0 f   ExGridLib:ExGridCtrl.obj
 0001:00094680       ??1CLoaderGridCtrl@@UAE@XZ 10095680 f i ExGridLib:ExGridCtrl.obj
 0001:000946f0       ??_9CExGridCtrl@@$BBIM@AE  100956f0 f i ExGridLib:ExGridCtrl.obj
 0001:000946f8       ??_9CExGridCtrl@@$BBJA@AE  100956f8 f i ExGridLib:ExGridCtrl.obj
 0001:00094700       ??_9CExGridCtrl@@$BBJE@AE  10095700 f i ExGridLib:ExGridCtrl.obj
 0001:00094708       ??_9CExGridCtrl@@$BBJI@AE  10095708 f i ExGridLib:ExGridCtrl.obj
 0001:00094710       ??_ECExGridCtrl@@UAEPAXI@Z 10095710 f i ExGridLib:ExGridCtrl.obj
 0001:00094710       ??_GCExGridCtrl@@UAEPAXI@Z 10095710 f i ExGridLib:ExGridCtrl.obj
 0001:000947e0       ??_ECLoaderGridCtrl@@UAEPAXI@Z 100957e0 f i ExGridLib:ExGridCtrl.obj
 0001:000947e0       ??_GCLoaderGridCtrl@@UAEPAXI@Z 100957e0 f i ExGridLib:ExGridCtrl.obj
 0001:00094870       ?ActionControl@CExGridCtrl@@QAEJPAX@Z 10095870 f   ExGridLib:ExGridCtrl.obj
 0001:000948a0       ?AutoFill@CExGridCtrl@@QAEXXZ 100958a0 f   ExGridLib:ExGridCtrl.obj
 0001:000948c0       ?AutoSize@CExGridCtrl@@QAEXI@Z 100958c0 f   ExGridLib:ExGridCtrl.obj
 0001:000948f0       ?AutoSizeColumn@CExGridCtrl@@QAEHHIH@Z 100958f0 f   ExGridLib:ExGridCtrl.obj
 0001:00094920       ?AutoSizeColumns@CExGridCtrl@@QAEXI@Z 10095920 f   ExGridLib:ExGridCtrl.obj
 0001:00094950       ?AutoSizeRow@CExGridCtrl@@QAEHHH@Z 10095950 f   ExGridLib:ExGridCtrl.obj
 0001:00094980       ?AutoSizeRows@CExGridCtrl@@QAEXXZ 10095980 f   ExGridLib:ExGridCtrl.obj
 0001:000949a0       ?ClearCells@CExGridCtrl@@QAEXVCCellRange@@@Z 100959a0 f   ExGridLib:ExGridCtrl.obj
 0001:000949d0       ?CopyTextFromGrid@CExGridCtrl@@UAEPAVCOleDataSource@@XZ 100959d0 f   ExGridLib:ExGridCtrl.obj
 0001:000949f0       ?Create@CExGridCtrl@@QAEHAAUtagRECT@@PAVCWnd@@IK@Z 100959f0 f   ExGridLib:ExGridCtrl.obj
 0001:00094aa0       ?CreateCell@CExGridCtrl@@MAEPAVCGridCellBase@@HH@Z 10095aa0 f   ExGridLib:ExGridCtrl.obj
 0001:00094ad0       ?CreateDragImage@CExGridCtrl@@MAEPAVCImageList@@PAVCPoint@@@Z 10095ad0 f   ExGridLib:ExGridCtrl.obj
 0001:00094b00       ?CreateObject@CExGridCtrl@@SGPAVCObject@@XZ 10095b00 f   ExGridLib:ExGridCtrl.obj
 0001:00094cc0       ?CutSelectedText@CExGridCtrl@@UAEXXZ 10095cc0 f   ExGridLib:ExGridCtrl.obj
 0001:00094ce0       ?DeleteAllItems@CExGridCtrl@@QAEHXZ 10095ce0 f   ExGridLib:ExGridCtrl.obj
 0001:00094d00       ?DeleteColumn@CExGridCtrl@@QAEHH@Z 10095d00 f   ExGridLib:ExGridCtrl.obj
 0001:00094d30       ?DeleteNonFixedRows@CExGridCtrl@@QAEHXZ 10095d30 f   ExGridLib:ExGridCtrl.obj
 0001:00094d50       ?DeleteRow@CExGridCtrl@@QAEHH@Z 10095d50 f   ExGridLib:ExGridCtrl.obj
 0001:00094d80       ?DestroyCell@CExGridCtrl@@MAEXHH@Z 10095d80 f   ExGridLib:ExGridCtrl.obj
 0001:00094db0       ?EnableColumnHide@CExGridCtrl@@QAEXH@Z 10095db0 f   ExGridLib:ExGridCtrl.obj
 0001:00094de0       ?EnableDragAndDrop@CExGridCtrl@@QAEXH@Z 10095de0 f   ExGridLib:ExGridCtrl.obj
 0001:00094e10       ?EnableHiddenColUnhide@CExGridCtrl@@QAEXH@Z 10095e10 f   ExGridLib:ExGridCtrl.obj
 0001:00094e40       ?EnableHiddenRowUnhide@CExGridCtrl@@QAEXH@Z 10095e40 f   ExGridLib:ExGridCtrl.obj
 0001:00094e70       ?EnableRowHide@CExGridCtrl@@QAEXH@Z 10095e70 f   ExGridLib:ExGridCtrl.obj
 0001:00094ea0       ?EnableScrollBars@CExGridCtrl@@IAEXHH@Z 10095ea0 f   ExGridLib:ExGridCtrl.obj
 0001:00094ed0       ?EnableSelection@CExGridCtrl@@QAEXH@Z 10095ed0 f   ExGridLib:ExGridCtrl.obj
 0001:00094f00       ?EnableTitleTips@CExGridCtrl@@QAEXH@Z 10095f00 f   ExGridLib:ExGridCtrl.obj
 0001:00094f30       ?EndEditing@CExGridCtrl@@MAEXXZ 10095f30 f   ExGridLib:ExGridCtrl.obj
 0001:00094f50       ?EnsureVisible@CExGridCtrl@@QAEXAAVCCellID@@@Z 10095f50 f   ExGridLib:ExGridCtrl.obj
 0001:00094f80       ?EnsureVisible@CExGridCtrl@@QAEXHH@Z 10095f80 f   ExGridLib:ExGridCtrl.obj
 0001:00094fb0       ?EraseBkgnd@CExGridCtrl@@IAEXPAVCDC@@@Z 10095fb0 f   ExGridLib:ExGridCtrl.obj
 0001:00094fe0       ?ExpandColumnsToFit@CExGridCtrl@@QAEXH@Z 10095fe0 f   ExGridLib:ExGridCtrl.obj
 0001:00095010       ?ExpandLastColumn@CExGridCtrl@@QAEXXZ 10096010 f   ExGridLib:ExGridCtrl.obj
 0001:00095030       ?ExpandRowsToFit@CExGridCtrl@@QAEXH@Z 10096030 f   ExGridLib:ExGridCtrl.obj
 0001:00095060       ?ExpandToFit@CExGridCtrl@@QAEXH@Z 10096060 f   ExGridLib:ExGridCtrl.obj
 0001:00095090       ?GetAutoSizeStyle@CExGridCtrl@@QAEHXZ 10096090 f   ExGridLib:ExGridCtrl.obj
 0001:000950b0       ?GetBkColor@CExGridCtrl@@QAEKXZ 100960b0 f   ExGridLib:ExGridCtrl.obj
 0001:000950d0       ?GetCallbackFunc@CExGridCtrl@@QAEP6GHPAUtagGV_DISPINFO@@J@ZXZ 100960d0 f   ExGridLib:ExGridCtrl.obj
 0001:000950f0       ?GetCell@CExGridCtrl@@QAEPAVCGridCellBase@@HH@Z 100960f0 f   ExGridLib:ExGridCtrl.obj
 0001:00095120       ?GetCellFromPt@CExGridCtrl@@QAE?AVCCellID@@VCPoint@@H@Z 10096120 f   ExGridLib:ExGridCtrl.obj
 0001:00095180       ?GetCellOrigin@CExGridCtrl@@QAEHAAVCCellID@@PAUtagPOINT@@@Z 10096180 f   ExGridLib:ExGridCtrl.obj
 0001:000951b0       ?GetCellOrigin@CExGridCtrl@@QAEHHHPAUtagPOINT@@@Z 100961b0 f   ExGridLib:ExGridCtrl.obj
 0001:000951e0       ?GetCellRange@CExGridCtrl@@QAE?AVCCellRange@@XZ 100961e0 f   ExGridLib:ExGridCtrl.obj
 0001:00095240       ?GetCellRangeRect@CExGridCtrl@@IAEHAAVCCellRange@@PAUtagRECT@@@Z 10096240 f   ExGridLib:ExGridCtrl.obj
 0001:00095270       ?GetCellRect@CExGridCtrl@@QAEHAAVCCellID@@PAUtagRECT@@@Z 10096270 f   ExGridLib:ExGridCtrl.obj
 0001:000952a0       ?GetCellRect@CExGridCtrl@@QAEHHHPAUtagRECT@@@Z 100962a0 f   ExGridLib:ExGridCtrl.obj
 0001:000952d0       ?GetColumnCount@CExGridCtrl@@QAEHXZ 100962d0 f   ExGridLib:ExGridCtrl.obj
 0001:000952f0       ?GetColumnHide@CExGridCtrl@@QAEHXZ 100962f0 f   ExGridLib:ExGridCtrl.obj
 0001:00095310       ?GetColumnResize@CExGridCtrl@@QAEHXZ 10096310 f   ExGridLib:ExGridCtrl.obj
 0001:00095330       ?GetColumnWidth@CExGridCtrl@@QAEHH@Z 10096330 f   ExGridLib:ExGridCtrl.obj
 0001:00095360       ?GetDefCellHeight@CExGridCtrl@@QAEHXZ 10096360 f   ExGridLib:ExGridCtrl.obj
 0001:00095380       ?GetDefCellMargin@CExGridCtrl@@QAEHXZ 10096380 f   ExGridLib:ExGridCtrl.obj
 0001:000953a0       ?GetDefCellWidth@CExGridCtrl@@QAEHXZ 100963a0 f   ExGridLib:ExGridCtrl.obj
 0001:000953c0       ?GetDefaultCell@CExGridCtrl@@QAEPAVCGridCellBase@@HH@Z 100963c0 f   ExGridLib:ExGridCtrl.obj
 0001:000953f0       ?GetDoubleBuffering@CExGridCtrl@@QAEHXZ 100963f0 f   ExGridLib:ExGridCtrl.obj
 0001:00095410       ?GetDragAndDrop@CExGridCtrl@@QAEHXZ 10096410 f   ExGridLib:ExGridCtrl.obj
 0001:00095430       ?GetFixedBkColor@CExGridCtrl@@QAEKXZ 10096430 f   ExGridLib:ExGridCtrl.obj
 0001:00095450       ?GetFixedColumnCount@CExGridCtrl@@QAEHXZ 10096450 f   ExGridLib:ExGridCtrl.obj
 0001:00095470       ?GetFixedColumnSelection@CExGridCtrl@@QAEHXZ 10096470 f   ExGridLib:ExGridCtrl.obj
 0001:00095490       ?GetFixedColumnWidth@CExGridCtrl@@QAEHXZ 10096490 f   ExGridLib:ExGridCtrl.obj
 0001:000954b0       ?GetFixedGridLineColor_Dark@CExGridCtrl@@QAEKXZ 100964b0 f   ExGridLib:ExGridCtrl.obj
 0001:000954d0       ?GetFixedGridLineColor_Light@CExGridCtrl@@QAEKXZ 100964d0 f   ExGridLib:ExGridCtrl.obj
 0001:000954f0       ?GetFixedRowCount@CExGridCtrl@@QAEHXZ 100964f0 f   ExGridLib:ExGridCtrl.obj
 0001:00095510       ?GetFixedRowHeight@CExGridCtrl@@QAEHXZ 10096510 f   ExGridLib:ExGridCtrl.obj
 0001:00095530       ?GetFixedRowSelection@CExGridCtrl@@QAEHXZ 10096530 f   ExGridLib:ExGridCtrl.obj
 0001:00095550       ?GetFixedRowSelectionHighlight@CExGridCtrl@@QAEHXZ 10096550 f   ExGridLib:ExGridCtrl.obj
 0001:00095570       ?GetFixedTextColor@CExGridCtrl@@QAEKXZ 10096570 f   ExGridLib:ExGridCtrl.obj
 0001:00095590       ?GetFocusCell@CExGridCtrl@@QAE?AVCCellID@@XZ 10096590 f   ExGridLib:ExGridCtrl.obj
 0001:000955e0       ?GetFrameFocusCell@CExGridCtrl@@QAEHXZ 100965e0 f   ExGridLib:ExGridCtrl.obj
 0001:00095600       ?GetGridBkColor@CExGridCtrl@@QAEKXZ 10096600 f   ExGridLib:ExGridCtrl.obj
 0001:00095620       ?GetGridColor@CExGridCtrl@@QAEKXZ 10096620 f   ExGridLib:ExGridCtrl.obj
 0001:00095640       ?GetGridLineColor@CExGridCtrl@@QAEKXZ 10096640 f   ExGridLib:ExGridCtrl.obj
 0001:00095660       ?GetGridLines@CExGridCtrl@@QAEHXZ 10096660 f   ExGridLib:ExGridCtrl.obj
 0001:00095680       ?GetHandleTabKey@CExGridCtrl@@QAEHXZ 10096680 f   ExGridLib:ExGridCtrl.obj
 0001:000956a0       ?GetHeaderSort@CExGridCtrl@@QAEHXZ 100966a0 f   ExGridLib:ExGridCtrl.obj
 0001:000956c0       ?GetHiddenColUnhide@CExGridCtrl@@QAEHXZ 100966c0 f   ExGridLib:ExGridCtrl.obj
 0001:000956e0       ?GetHiddenRowUnhide@CExGridCtrl@@QAEHXZ 100966e0 f   ExGridLib:ExGridCtrl.obj
 0001:00095700       ?GetHighlightColor@CExGridCtrl@@QAEKXZ 10096700 f   ExGridLib:ExGridCtrl.obj
 0001:00095720       ?GetHighlightTextColor@CExGridCtrl@@QAEKXZ 10096720 f   ExGridLib:ExGridCtrl.obj
 0001:00095740       ?GetImageList@CExGridCtrl@@QAEPAVCImageList@@XZ 10096740 f   ExGridLib:ExGridCtrl.obj
 0001:00095760       ?GetItem@CExGridCtrl@@QAEHPAU_GV_ITEM@@@Z 10096760 f   ExGridLib:ExGridCtrl.obj
 0001:00095790       ?GetItemBkColour@CExGridCtrl@@QAEKHH@Z 10096790 f   ExGridLib:ExGridCtrl.obj
 0001:000957c0       ?GetItemData@CExGridCtrl@@QAEJHH@Z 100967c0 f   ExGridLib:ExGridCtrl.obj
 0001:000957f0       ?GetItemFgColour@CExGridCtrl@@QAEKHH@Z 100967f0 f   ExGridLib:ExGridCtrl.obj
 0001:00095820       ?GetItemFont@CExGridCtrl@@QAEPAUtagLOGFONTA@@HH@Z 10096820 f   ExGridLib:ExGridCtrl.obj
 0001:00095850       ?GetItemFormat@CExGridCtrl@@QAEIHH@Z 10096850 f   ExGridLib:ExGridCtrl.obj
 0001:00095880       ?GetItemImage@CExGridCtrl@@QAEHHH@Z 10096880 f   ExGridLib:ExGridCtrl.obj
 0001:000958b0       ?GetItemState@CExGridCtrl@@QAEIHH@Z 100968b0 f   ExGridLib:ExGridCtrl.obj
 0001:000958e0       ?GetItemText@CExGridCtrl@@QAE?AV?$CStringT@DV?$StrTraitMFC_DLL@DV?$ChTraitsCRT@D@ATL@@@@@ATL@@HH@Z 100968e0 f   ExGridLib:ExGridCtrl.obj
 0001:00095970       ?GetListMode@CExGridCtrl@@QAEHXZ 10096970 f   ExGridLib:ExGridCtrl.obj
 0001:00095990       ?GetMessageMap@CExGridCtrl@@MBEPBUAFX_MSGMAP@@XZ 10096990 f   ExGridLib:ExGridCtrl.obj
 0001:000959a0       ?GetModified@CExGridCtrl@@QAEHHH@Z 100969a0 f   ExGridLib:ExGridCtrl.obj
 0001:000959d0       ?GetMouseMode@CExGridCtrl@@IAEHXZ 100969d0 f   ExGridLib:ExGridCtrl.obj
 0001:000959f0       ?GetMouseScrollLines@CExGridCtrl@@QAEIXZ 100969f0 f   ExGridLib:ExGridCtrl.obj
 0001:00095a10       ?GetNextItem@CExGridCtrl@@QAE?AVCCellID@@AAV2@H@Z 10096a10 f   ExGridLib:ExGridCtrl.obj
 0001:00095a70       ?GetPointClicked@CExGridCtrl@@IAE?AVCPoint@@HHAAV2@@Z 10096a70 f   ExGridLib:ExGridCtrl.obj
 0001:00095ad0       ?GetRowCount@CExGridCtrl@@QAEHXZ 10096ad0 f   ExGridLib:ExGridCtrl.obj
 0001:00095af0       ?GetRowHeight@CExGridCtrl@@QAEHH@Z 10096af0 f   ExGridLib:ExGridCtrl.obj
 0001:00095b20       ?GetRowHide@CExGridCtrl@@QAEHXZ 10096b20 f   ExGridLib:ExGridCtrl.obj
 0001:00095b40       ?GetRowResize@CExGridCtrl@@QAEHXZ 10096b40 f   ExGridLib:ExGridCtrl.obj
 0001:00095b60       ?GetRuntimeClass@CExGridCtrl@@UBEPAUCRuntimeClass@@XZ 10096b60 f   ExGridLib:ExGridCtrl.obj
 0001:00095b70       ?GetScrollPos32@CExGridCtrl@@IAEHHH@Z 10096b70 f   ExGridLib:ExGridCtrl.obj
 0001:00095ba0       ?GetSelectedCellRange@CExGridCtrl@@QAE?AVCCellRange@@XZ 10096ba0 f   ExGridLib:ExGridCtrl.obj
 0001:00095c00       ?GetSelectedCount@CExGridCtrl@@QAEHXZ 10096c00 f   ExGridLib:ExGridCtrl.obj
 0001:00095c20       ?GetSingleColSelection@CExGridCtrl@@QAEHXZ 10096c20 f   ExGridLib:ExGridCtrl.obj
 0001:00095c50       ?GetSingleRowSelection@CExGridCtrl@@QAEHXZ 10096c50 f   ExGridLib:ExGridCtrl.obj
 0001:00095c80       ?GetSortAscending@CExGridCtrl@@QAEHXZ 10096c80 f   ExGridLib:ExGridCtrl.obj
 0001:00095cb0       ?GetSortColumn@CExGridCtrl@@QAEHXZ 10096cb0 f   ExGridLib:ExGridCtrl.obj
 0001:00095cd0       ?GetTextBkColor@CExGridCtrl@@QAEKXZ 10096cd0 f   ExGridLib:ExGridCtrl.obj
 0001:00095cf0       ?GetTextColor@CExGridCtrl@@QAEKXZ 10096cf0 f   ExGridLib:ExGridCtrl.obj
 0001:00095d10       ?GetTextExtent@CExGridCtrl@@QAE?AVCSize@@HHPBD@Z 10096d10 f   ExGridLib:ExGridCtrl.obj
 0001:00095d70       ?GetTextRect@CExGridCtrl@@QAEHAAVCCellID@@PAUtagRECT@@@Z 10096d70 f   ExGridLib:ExGridCtrl.obj
 0001:00095da0       ?GetTextRect@CExGridCtrl@@QAEHHHPAUtagRECT@@@Z 10096da0 f   ExGridLib:ExGridCtrl.obj
 0001:00095dd0       ?GetThisClass@CExGridCtrl@@SGPAUCRuntimeClass@@XZ 10096dd0 f   ExGridLib:ExGridCtrl.obj
 0001:00095de0       ?GetThisMessageMap@CExGridCtrl@@KGPBUAFX_MSGMAP@@XZ 10096de0 f   ExGridLib:ExGridCtrl.obj
 0001:00095df0       ?GetTitleTipBackClr@CExGridCtrl@@QAEKXZ 10096df0 f   ExGridLib:ExGridCtrl.obj
 0001:00095e10       ?GetTitleTipTextClr@CExGridCtrl@@QAEKXZ 10096e10 f   ExGridLib:ExGridCtrl.obj
 0001:00095e30       ?GetTitleTips@CExGridCtrl@@QAEHXZ 10096e30 f   ExGridLib:ExGridCtrl.obj
 0001:00095e50       ?GetTopleftNonFixedCell@CExGridCtrl@@IAE?AVCCellID@@H@Z 10096e50 f   ExGridLib:ExGridCtrl.obj
 0001:00095ea0       ?GetTrackFocusCell@CExGridCtrl@@QAEHXZ 10096ea0 f   ExGridLib:ExGridCtrl.obj
 0001:00095ec0       ?GetUnobstructedNonFixedCellRange@CExGridCtrl@@IAE?AVCCellRange@@H@Z 10096ec0 f   ExGridLib:ExGridCtrl.obj
 0001:00095f20       ?GetUseFocusRect@CExGridCtrl@@QAEHXZ 10096f20 f   ExGridLib:ExGridCtrl.obj
 0001:00095f40       ?GetUseHighlightText@CExGridCtrl@@QAEHXZ 10096f40 f   ExGridLib:ExGridCtrl.obj
 0001:00095f60       ?GetVirtualHeight@CExGridCtrl@@QAEJXZ 10096f60 f   ExGridLib:ExGridCtrl.obj
 0001:00095f80       ?GetVirtualMode@CExGridCtrl@@QAEHXZ 10096f80 f   ExGridLib:ExGridCtrl.obj
 0001:00095fa0       ?GetVirtualWidth@CExGridCtrl@@QAEJXZ 10096fa0 f   ExGridLib:ExGridCtrl.obj
 0001:00095fc0       ?GetVisibleNonFixedCellRange@CExGridCtrl@@IAE?AVCCellRange@@PAUtagRECT@@H@Z 10096fc0 f   ExGridLib:ExGridCtrl.obj
 0001:00096020       ?Initialise@CExGridCtrl@@IAEHXZ 10097020 f   ExGridLib:ExGridCtrl.obj
 0001:00096040       ?InsertColumn@CExGridCtrl@@QAEHPBDIH@Z 10097040 f   ExGridLib:ExGridCtrl.obj
 0001:00096080       ?InsertRow@CExGridCtrl@@QAEHPBDH@Z 10097080 f   ExGridLib:ExGridCtrl.obj
 0001:000960b0       ?InvalidateCellRect@CExGridCtrl@@IAEHAAVCCellID@@@Z 100970b0 f   ExGridLib:ExGridCtrl.obj
 0001:000960e0       ?InvalidateCellRect@CExGridCtrl@@IAEHAAVCCellRange@@@Z 100970e0 f   ExGridLib:ExGridCtrl.obj
 0001:00096110       ?InvalidateCellRect@CExGridCtrl@@IAEHHH@Z 10097110 f   ExGridLib:ExGridCtrl.obj
 0001:00096140       ?IsCellEditable@CExGridCtrl@@QAEHAAVCCellID@@@Z 10097140 f   ExGridLib:ExGridCtrl.obj
 0001:00096170       ?IsCellEditable@CExGridCtrl@@QAEHHH@Z 10097170 f   ExGridLib:ExGridCtrl.obj
 0001:000961a0       ?IsCellFixed@CExGridCtrl@@QAEHHH@Z 100971a0 f   ExGridLib:ExGridCtrl.obj
 0001:000961d0       ?IsCellSelected@CExGridCtrl@@QAEHAAVCCellID@@@Z 100971d0 f   ExGridLib:ExGridCtrl.obj
 0001:00096200       ?IsCellSelected@CExGridCtrl@@QAEHHH@Z 10097200 f   ExGridLib:ExGridCtrl.obj
 0001:00096230       ?IsCellVisible@CExGridCtrl@@QAEHHH@Z 10097230 f   ExGridLib:ExGridCtrl.obj
 0001:00096260       ?IsCellVisible@CExGridCtrl@@QAEHVCCellID@@@Z 10097260 f   ExGridLib:ExGridCtrl.obj
 0001:00096290       ?IsDefaultReadOnly@CExGridCtrl@@QAEHXZ 10097290 f   ExGridLib:ExGridCtrl.obj
 0001:000962b0       ?IsEditable@CExGridCtrl@@QAEHXZ 100972b0 f   ExGridLib:ExGridCtrl.obj
 0001:000962d0       ?IsItemEditing@CExGridCtrl@@QAEHHH@Z 100972d0 f   ExGridLib:ExGridCtrl.obj
 0001:00096300       ?IsSelectable@CExGridCtrl@@QAEHXZ 10097300 f   ExGridLib:ExGridCtrl.obj
 0001:00096320       ?IsValid@CExGridCtrl@@QAEHAAVCCellID@@@Z 10097320 f   ExGridLib:ExGridCtrl.obj
 0001:00096350       ?IsValid@CExGridCtrl@@QAEHAAVCCellRange@@@Z 10097350 f   ExGridLib:ExGridCtrl.obj
 0001:00096380       ?IsValid@CExGridCtrl@@QAEHHH@Z 10097380 f   ExGridLib:ExGridCtrl.obj
 0001:000963b0       ?IsVisibleHScroll@CExGridCtrl@@IAEHXZ 100973b0 f   ExGridLib:ExGridCtrl.obj
 0001:000963d0       ?IsVisibleVScroll@CExGridCtrl@@IAEHXZ 100973d0 f   ExGridLib:ExGridCtrl.obj
 0001:000963f0       ?Load@CExGridCtrl@@QAEHPBDD@Z 100973f0 f   ExGridLib:ExGridCtrl.obj
 0001:00096420       ?LoadProcAddress@CLoaderGridCtrl@@UAEHXZ 10097420 f i ExGridLib:ExGridCtrl.obj
 0001:000976b0       ?MouseOverColumnResizeArea@CExGridCtrl@@IAEHAAVCPoint@@@Z 100986b0 f   ExGridLib:ExGridCtrl.obj
 0001:000976e0       ?MouseOverRowResizeArea@CExGridCtrl@@IAEHAAVCPoint@@@Z 100986e0 f   ExGridLib:ExGridCtrl.obj
 0001:00097710       ?OnBeginDrag@CExGridCtrl@@UAEXXZ 10098710 f   ExGridLib:ExGridCtrl.obj
 0001:00097730       ?OnCaptureChanged@CExGridCtrl@@IAEXPAVCWnd@@@Z 10098730 f   ExGridLib:ExGridCtrl.obj
 0001:00097760       ?OnChar@CExGridCtrl@@IAEXIII@Z 10098760 f   ExGridLib:ExGridCtrl.obj
 0001:00097790       ?OnContextMenu@CExGridCtrl@@IAEXPAVCWnd@@VCPoint@@@Z 10098790 f   ExGridLib:ExGridCtrl.obj
 0001:000977c0       ?OnDragEnter@CExGridCtrl@@UAEKPAVCOleDataObject@@KVCPoint@@@Z 100987c0 f   ExGridLib:ExGridCtrl.obj
 0001:00097800       ?OnDragLeave@CExGridCtrl@@UAEXXZ 10098800 f   ExGridLib:ExGridCtrl.obj
 0001:00097820       ?OnDragOver@CExGridCtrl@@UAEKPAVCOleDataObject@@KVCPoint@@@Z 10098820 f   ExGridLib:ExGridCtrl.obj
 0001:00097860       ?OnDraw@CExGridCtrl@@MAEXPAVCDC@@@Z 10098860 f   ExGridLib:ExGridCtrl.obj
 0001:00097890       ?OnDrop@CExGridCtrl@@UAEHPAVCOleDataObject@@KVCPoint@@@Z 10098890 f   ExGridLib:ExGridCtrl.obj
 0001:000978d0       ?OnEditCell@CExGridCtrl@@MAEXHHVCPoint@@I@Z 100988d0 f   ExGridLib:ExGridCtrl.obj
 0001:00097900       ?OnEditCopy@CExGridCtrl@@UAEXXZ 10098900 f   ExGridLib:ExGridCtrl.obj
 0001:00097920       ?OnEditCut@CExGridCtrl@@UAEXXZ 10098920 f   ExGridLib:ExGridCtrl.obj
 0001:00097940       ?OnEditPaste@CExGridCtrl@@UAEXXZ 10098940 f   ExGridLib:ExGridCtrl.obj
 0001:00097960       ?OnEditSelectAll@CExGridCtrl@@UAEXXZ 10098960 f   ExGridLib:ExGridCtrl.obj
 0001:00097980       ?OnEndEditCell@CExGridCtrl@@MAEXHHV?$CStringT@DV?$StrTraitMFC_DLL@DV?$ChTraitsCRT@D@ATL@@@@@ATL@@@Z 10098980 f   ExGridLib:ExGridCtrl.obj
 0001:00097a20       ?OnEndInPlaceEdit@CExGridCtrl@@IAEXPAUtagNMHDR@@PAJ@Z 10098a20 f   ExGridLib:ExGridCtrl.obj
 0001:00097a50       ?OnEraseBkgnd@CExGridCtrl@@IAEHPAVCDC@@@Z 10098a50 f   ExGridLib:ExGridCtrl.obj
 0001:00097a80       ?OnFixedColumnClick@CExGridCtrl@@MAEXAAVCCellID@@@Z 10098a80 f   ExGridLib:ExGridCtrl.obj
 0001:00097ab0       ?OnFixedRowClick@CExGridCtrl@@MAEXAAVCCellID@@@Z 10098ab0 f   ExGridLib:ExGridCtrl.obj
 0001:00097ae0       ?OnGetDlgCode@CExGridCtrl@@IAEIXZ 10098ae0 f   ExGridLib:ExGridCtrl.obj
 0001:00097b00       ?OnGetFont@CExGridCtrl@@IAEJIJ@Z 10098b00 f   ExGridLib:ExGridCtrl.obj
 0001:00097b30       ?OnHScroll@CExGridCtrl@@IAEXIIPAVCScrollBar@@@Z 10098b30 f   ExGridLib:ExGridCtrl.obj
 0001:00097b60       ?OnImeChar@CExGridCtrl@@IAEJIJ@Z 10098b60 f   ExGridLib:ExGridCtrl.obj
 0001:00097b90       ?OnKeyDown@CExGridCtrl@@IAEXIII@Z 10098b90 f   ExGridLib:ExGridCtrl.obj
 0001:00097bc0       ?OnKeyUp@CExGridCtrl@@IAEXIII@Z 10098bc0 f   ExGridLib:ExGridCtrl.obj
 0001:00097bf0       ?OnLButtonDblClk@CExGridCtrl@@IAEXIVCPoint@@@Z 10098bf0 f   ExGridLib:ExGridCtrl.obj
 0001:00097c20       ?OnLButtonDown@CExGridCtrl@@IAEXIVCPoint@@@Z 10098c20 f   ExGridLib:ExGridCtrl.obj
 0001:00097c50       ?OnLButtonUp@CExGridCtrl@@IAEXIVCPoint@@@Z 10098c50 f   ExGridLib:ExGridCtrl.obj
 0001:00097c80       ?OnMouseMove@CExGridCtrl@@IAEXIVCPoint@@@Z 10098c80 f   ExGridLib:ExGridCtrl.obj
 0001:00097cb0       ?OnMouseWheel@CExGridCtrl@@IAEHIFVCPoint@@@Z 10098cb0 f   ExGridLib:ExGridCtrl.obj
 0001:00097cf0       ?OnPaint@CExGridCtrl@@IAEXXZ 10098cf0 f   ExGridLib:ExGridCtrl.obj
 0001:00097d10       ?OnRButtonDown@CExGridCtrl@@IAEXIVCPoint@@@Z 10098d10 f   ExGridLib:ExGridCtrl.obj
 0001:00097d40       ?OnRButtonUp@CExGridCtrl@@IAEXIVCPoint@@@Z 10098d40 f   ExGridLib:ExGridCtrl.obj
 0001:00097d70       ?OnSelecting@CExGridCtrl@@IAEXAAVCCellID@@@Z 10098d70 f   ExGridLib:ExGridCtrl.obj
 0001:00097da0       ?OnSetCursor@CExGridCtrl@@IAEHPAVCWnd@@II@Z 10098da0 f   ExGridLib:ExGridCtrl.obj
 0001:00097dd0       ?OnSetFont@CExGridCtrl@@IAEJIJ@Z 10098dd0 f   ExGridLib:ExGridCtrl.obj
 0001:00097e00       ?OnSettingChange@CExGridCtrl@@IAEXIPBD@Z 10098e00 f   ExGridLib:ExGridCtrl.obj
 0001:00097e30       ?OnSize@CExGridCtrl@@IAEXIHH@Z 10098e30 f   ExGridLib:ExGridCtrl.obj
 0001:00097e60       ?OnSysColorChange@CExGridCtrl@@IAEXXZ 10098e60 f   ExGridLib:ExGridCtrl.obj
 0001:00097e80       ?OnSysKeyDown@CExGridCtrl@@IAEXIII@Z 10098e80 f   ExGridLib:ExGridCtrl.obj
 0001:00097eb0       ?OnTimer@CExGridCtrl@@IAEXI@Z 10098eb0 f   ExGridLib:ExGridCtrl.obj
 0001:00097ee0       ?OnUpdateEditCopy@CExGridCtrl@@IAEXPAVCCmdUI@@@Z 10098ee0 f   ExGridLib:ExGridCtrl.obj
 0001:00097f10       ?OnUpdateEditCut@CExGridCtrl@@IAEXPAVCCmdUI@@@Z 10098f10 f   ExGridLib:ExGridCtrl.obj
 0001:00097f40       ?OnUpdateEditPaste@CExGridCtrl@@IAEXPAVCCmdUI@@@Z 10098f40 f   ExGridLib:ExGridCtrl.obj
 0001:00097f70       ?OnUpdateEditSelectAll@CExGridCtrl@@IAEXPAVCCmdUI@@@Z 10098f70 f   ExGridLib:ExGridCtrl.obj
 0001:00097fa0       ?OnVScroll@CExGridCtrl@@IAEXIIPAVCScrollBar@@@Z 10098fa0 f   ExGridLib:ExGridCtrl.obj
 0001:00097fd0       ?PasteTextToGrid@CExGridCtrl@@UAEHVCCellID@@PAVCOleDataObject@@H@Z 10098fd0 f   ExGridLib:ExGridCtrl.obj
 0001:00098010       ?PreSubclassWindow@CExGridCtrl@@MAEXXZ 10099010 f   ExGridLib:ExGridCtrl.obj
 0001:00098030       ?RedrawCell@CExGridCtrl@@QAEHAAVCCellID@@PAVCDC@@@Z 10099030 f   ExGridLib:ExGridCtrl.obj
 0001:00098060       ?RedrawCell@CExGridCtrl@@QAEHHHPAVCDC@@@Z 10099060 f   ExGridLib:ExGridCtrl.obj
 0001:00098090       ?RedrawColumn@CExGridCtrl@@QAEHH@Z 10099090 f   ExGridLib:ExGridCtrl.obj
 0001:000980c0       ?RedrawRow@CExGridCtrl@@QAEHH@Z 100990c0 f   ExGridLib:ExGridCtrl.obj
 0001:000980f0       ?Refresh@CExGridCtrl@@QAEXXZ 100990f0 f   ExGridLib:ExGridCtrl.obj
 0001:00098110       ?RegisterWindowClass@CExGridCtrl@@IAEHXZ 10099110 f   ExGridLib:ExGridCtrl.obj
 0001:00098130       ?ResetScrollBars@CExGridCtrl@@IAEXXZ 10099130 f   ExGridLib:ExGridCtrl.obj
 0001:00098150       ?ResetSelectedRange@CExGridCtrl@@IAEXXZ 10099150 f   ExGridLib:ExGridCtrl.obj
 0001:00098170       ?Save@CExGridCtrl@@QAEHPBDD@Z 10099170 f   ExGridLib:ExGridCtrl.obj
 0001:000981a0       ?SelectAllCells@CExGridCtrl@@IAEXXZ 100991a0 f   ExGridLib:ExGridCtrl.obj
 0001:000981c0       ?SelectCells@CExGridCtrl@@IAEXVCCellID@@HH@Z 100991c0 f   ExGridLib:ExGridCtrl.obj
 0001:000981f0       ?SelectColumns@CExGridCtrl@@IAEXVCCellID@@HH@Z 100991f0 f   ExGridLib:ExGridCtrl.obj
 0001:00098220       ?SelectRows@CExGridCtrl@@IAEXVCCellID@@HH@Z 10099220 f   ExGridLib:ExGridCtrl.obj
 0001:00098250       ?SendCacheHintToParent@CExGridCtrl@@IAEJAAVCCellRange@@@Z 10099250 f   ExGridLib:ExGridCtrl.obj
 0001:00098280       ?SendDisplayRequestToParent@CExGridCtrl@@IAEJPAUtagGV_DISPINFO@@@Z 10099280 f   ExGridLib:ExGridCtrl.obj
 0001:000982b0       ?SendMessageToParent@CExGridCtrl@@IAEJHHH@Z 100992b0 f   ExGridLib:ExGridCtrl.obj
 0001:000982e0       ?SetAutoSizeStyle@CExGridCtrl@@QAEXH@Z 100992e0 f   ExGridLib:ExGridCtrl.obj
 0001:00098310       ?SetBkColor@CExGridCtrl@@QAEXK@Z 10099310 f   ExGridLib:ExGridCtrl.obj
 0001:00098340       ?SetCallbackFunc@CExGridCtrl@@QAEXP6GHPAUtagGV_DISPINFO@@J@ZJ@Z 10099340 f   ExGridLib:ExGridCtrl.obj
 0001:00098370       ?SetCell@CExGridCtrl@@IAEHHHPAVCGridCellBase@@@Z 10099370 f   ExGridLib:ExGridCtrl.obj
 0001:000983a0       ?SetCellType@CExGridCtrl@@QAEHHHPAUCRuntimeClass@@@Z 100993a0 f   ExGridLib:ExGridCtrl.obj
 0001:000983d0       ?SetColumnCount@CExGridCtrl@@QAEHH@Z 100993d0 f   ExGridLib:ExGridCtrl.obj
 0001:00098400       ?SetColumnResize@CExGridCtrl@@QAEXH@Z 10099400 f   ExGridLib:ExGridCtrl.obj
 0001:00098430       ?SetColumnWidth@CExGridCtrl@@QAEHHH@Z 10099430 f   ExGridLib:ExGridCtrl.obj
 0001:00098460       ?SetCompareFunction@CExGridCtrl@@QAEXP6GHJJJ@Z@Z 10099460 f   ExGridLib:ExGridCtrl.obj
 0001:00098490       ?SetDefCellHeight@CExGridCtrl@@QAEXH@Z 10099490 f   ExGridLib:ExGridCtrl.obj
 0001:000984c0       ?SetDefCellMargin@CExGridCtrl@@QAEXH@Z 100994c0 f   ExGridLib:ExGridCtrl.obj
 0001:000984f0       ?SetDefCellWidth@CExGridCtrl@@QAEXH@Z 100994f0 f   ExGridLib:ExGridCtrl.obj
 0001:00098520       ?SetDefaultCellType@CExGridCtrl@@QAEHPAUCRuntimeClass@@@Z 10099520 f   ExGridLib:ExGridCtrl.obj
 0001:00098550       ?SetDefaultReadOnly@CExGridCtrl@@QAEXH@Z 10099550 f   ExGridLib:ExGridCtrl.obj
 0001:00098580       ?SetDoubleBuffering@CExGridCtrl@@QAEXH@Z 10099580 f   ExGridLib:ExGridCtrl.obj
 0001:000985b0       ?SetDrawFixedLine@CExGridCtrl@@QAEXH@Z 100995b0 f   ExGridLib:ExGridCtrl.obj
 0001:000985e0       ?SetEditable@CExGridCtrl@@QAEXH@Z 100995e0 f   ExGridLib:ExGridCtrl.obj
 0001:00098610       ?SetFixedBkColor@CExGridCtrl@@QAEXK@Z 10099610 f   ExGridLib:ExGridCtrl.obj
 0001:00098640       ?SetFixedColumnCount@CExGridCtrl@@QAEHH@Z 10099640 f   ExGridLib:ExGridCtrl.obj
 0001:00098670       ?SetFixedColumnSelection@CExGridCtrl@@QAEXH@Z 10099670 f   ExGridLib:ExGridCtrl.obj
 0001:000986a0       ?SetFixedGridLineColor_Dark@CExGridCtrl@@QAEXK@Z 100996a0 f   ExGridLib:ExGridCtrl.obj
 0001:000986d0       ?SetFixedGridLineColor_Light@CExGridCtrl@@QAEXK@Z 100996d0 f   ExGridLib:ExGridCtrl.obj
 0001:00098700       ?SetFixedRowCount@CExGridCtrl@@QAEHH@Z 10099700 f   ExGridLib:ExGridCtrl.obj
 0001:00098730       ?SetFixedRowSelection@CExGridCtrl@@QAEXH@Z 10099730 f   ExGridLib:ExGridCtrl.obj
 0001:00098760       ?SetFixedRowSelectionHighlight@CExGridCtrl@@QAEXH@Z 10099760 f   ExGridLib:ExGridCtrl.obj
 0001:00098790       ?SetFixedTextColor@CExGridCtrl@@QAEXK@Z 10099790 f   ExGridLib:ExGridCtrl.obj
 0001:000987c0       ?SetFocusCell@CExGridCtrl@@QAE?AVCCellID@@HH@Z 100997c0 f   ExGridLib:ExGridCtrl.obj
 0001:00098820       ?SetFocusCell@CExGridCtrl@@QAE?AVCCellID@@V2@@Z 10099820 f   ExGridLib:ExGridCtrl.obj
 0001:00098880       ?SetFrameFocusCell@CExGridCtrl@@QAEXH@Z 10099880 f   ExGridLib:ExGridCtrl.obj
 0001:000988b0       ?SetGridBkColor@CExGridCtrl@@QAEXK@Z 100998b0 f   ExGridLib:ExGridCtrl.obj
 0001:000988e0       ?SetGridColor@CExGridCtrl@@QAEXK@Z 100998e0 f   ExGridLib:ExGridCtrl.obj
 0001:00098910       ?SetGridLineColor@CExGridCtrl@@QAEXK@Z 10099910 f   ExGridLib:ExGridCtrl.obj
 0001:00098940       ?SetGridLines@CExGridCtrl@@QAEXH@Z 10099940 f   ExGridLib:ExGridCtrl.obj
 0001:00098970       ?SetGridScrollBarVisible@CExGridCtrl@@QAEXHH@Z 10099970 f   ExGridLib:ExGridCtrl.obj
 0001:000989a0       ?SetHandleTabKey@CExGridCtrl@@QAEXH@Z 100999a0 f   ExGridLib:ExGridCtrl.obj
 0001:000989d0       ?SetHeaderSort@CExGridCtrl@@QAEXH@Z 100999d0 f   ExGridLib:ExGridCtrl.obj
 0001:00098a00       ?SetHighlightColor@CExGridCtrl@@QAEXK@Z 10099a00 f   ExGridLib:ExGridCtrl.obj
 0001:00098a30       ?SetHighlightTextColor@CExGridCtrl@@QAEXK@Z 10099a30 f   ExGridLib:ExGridCtrl.obj
 0001:00098a60       ?SetImageList@CExGridCtrl@@QAEXPAVCImageList@@@Z 10099a60 f   ExGridLib:ExGridCtrl.obj
 0001:00098a90       ?SetItem@CExGridCtrl@@QAEHPAU_GV_ITEM@@@Z 10099a90 f   ExGridLib:ExGridCtrl.obj
 0001:00098ac0       ?SetItemBkColour@CExGridCtrl@@QAEHHHK@Z 10099ac0 f   ExGridLib:ExGridCtrl.obj
 0001:00098af0       ?SetItemData@CExGridCtrl@@QAEHHHJ@Z 10099af0 f   ExGridLib:ExGridCtrl.obj
 0001:00098b20       ?SetItemFgColour@CExGridCtrl@@QAEHHHK@Z 10099b20 f   ExGridLib:ExGridCtrl.obj
 0001:00098b50       ?SetItemFont@CExGridCtrl@@QAEHHHPAUtagLOGFONTA@@@Z 10099b50 f   ExGridLib:ExGridCtrl.obj
 0001:00098b80       ?SetItemFormat@CExGridCtrl@@QAEHHHI@Z 10099b80 f   ExGridLib:ExGridCtrl.obj
 0001:00098bb0       ?SetItemImage@CExGridCtrl@@QAEHHHH@Z 10099bb0 f   ExGridLib:ExGridCtrl.obj
 0001:00098be0       ?SetItemState@CExGridCtrl@@QAEHHHI@Z 10099be0 f   ExGridLib:ExGridCtrl.obj
 0001:00098c10       ?SetItemText@CExGridCtrl@@QAEHHHPBD@Z 10099c10 f   ExGridLib:ExGridCtrl.obj
 0001:00098c40       ?SetItemTextFmt@CExGridCtrl@@QAAHHHPBDZZ 10099c40 f   ExGridLib:ExGridCtrl.obj
 0001:00098c50       ?SetItemTextFmtID@CExGridCtrl@@QAAHHHIZZ 10099c50 f   ExGridLib:ExGridCtrl.obj
 0001:00098c60       ?SetListMode@CExGridCtrl@@QAEXH@Z 10099c60 f   ExGridLib:ExGridCtrl.obj
 0001:00098c90       ?SetModified@CExGridCtrl@@QAEXHHH@Z 10099c90 f   ExGridLib:ExGridCtrl.obj
 0001:00098cc0       ?SetMouseMode@CExGridCtrl@@IAEHH@Z 10099cc0 f   ExGridLib:ExGridCtrl.obj
 0001:00098cf0       ?SetRedraw@CExGridCtrl@@QAEXHH@Z 10099cf0 f   ExGridLib:ExGridCtrl.obj
 0001:00098d20       ?SetRowCount@CExGridCtrl@@QAEHH@Z 10099d20 f   ExGridLib:ExGridCtrl.obj
 0001:00098d50       ?SetRowHeight@CExGridCtrl@@QAEHHH@Z 10099d50 f   ExGridLib:ExGridCtrl.obj
 0001:00098d80       ?SetRowResize@CExGridCtrl@@QAEXH@Z 10099d80 f   ExGridLib:ExGridCtrl.obj
 0001:00098db0       ?SetScrollPos32@CExGridCtrl@@IAEHHHH@Z 10099db0 f   ExGridLib:ExGridCtrl.obj
 0001:00098de0       ?SetSelectedRange@CExGridCtrl@@QAEXAAVCCellRange@@HH@Z 10099de0 f   ExGridLib:ExGridCtrl.obj
 0001:00098e10       ?SetSelectedRange@CExGridCtrl@@QAEXHHHHHH@Z 10099e10 f   ExGridLib:ExGridCtrl.obj
 0001:00098e50       ?SetSingleColSelection@CExGridCtrl@@QAEXH@Z 10099e50 f   ExGridLib:ExGridCtrl.obj
 0001:00098e80       ?SetSingleRowSelection@CExGridCtrl@@QAEXH@Z 10099e80 f   ExGridLib:ExGridCtrl.obj
 0001:00098eb0       ?SetSortAscending@CExGridCtrl@@QAEXH@Z 10099eb0 f   ExGridLib:ExGridCtrl.obj
 0001:00098ee0       ?SetSortColumn@CExGridCtrl@@QAEXH@Z 10099ee0 f   ExGridLib:ExGridCtrl.obj
 0001:00098f10       ?SetTextBkColor@CExGridCtrl@@QAEXK@Z 10099f10 f   ExGridLib:ExGridCtrl.obj
 0001:00098f40       ?SetTextColor@CExGridCtrl@@QAEXK@Z 10099f40 f   ExGridLib:ExGridCtrl.obj
 0001:00098f70       ?SetTitleTipBackClr@CExGridCtrl@@QAEXK@Z 10099f70 f   ExGridLib:ExGridCtrl.obj
 0001:00098fa0       ?SetTitleTipTextClr@CExGridCtrl@@QAEXK@Z 10099fa0 f   ExGridLib:ExGridCtrl.obj
 0001:00098fd0       ?SetTrackFocusCell@CExGridCtrl@@QAEXH@Z 10099fd0 f   ExGridLib:ExGridCtrl.obj
 0001:00099000       ?SetUseFocusRect@CExGridCtrl@@QAEXH@Z 1009a000 f   ExGridLib:ExGridCtrl.obj
 0001:00099030       ?SetUseHighlightText@CExGridCtrl@@QAEXH@Z 1009a030 f   ExGridLib:ExGridCtrl.obj
 0001:00099060       ?SetVirtualMode@CExGridCtrl@@QAEXH@Z 1009a060 f   ExGridLib:ExGridCtrl.obj
 0001:00099090       ?SetupDefaultCells@CExGridCtrl@@IAEXXZ 1009a090 f   ExGridLib:ExGridCtrl.obj
 0001:000990b0       ?SortItems@CExGridCtrl@@IAEHP6GHJJJ@ZHHJHH@Z 1009a0b0 f   ExGridLib:ExGridCtrl.obj
 0001:000990f0       ?SortItems@CExGridCtrl@@QAEHHHJ@Z 1009a0f0 f   ExGridLib:ExGridCtrl.obj
 0001:00099120       ?SortItems@CExGridCtrl@@QAEHP6GHJJJ@ZHHJ@Z 1009a120 f   ExGridLib:ExGridCtrl.obj
 0001:00099160       ?SortTextItems@CExGridCtrl@@IAEHHHHH@Z 1009a160 f   ExGridLib:ExGridCtrl.obj
 0001:000991a0       ?SortTextItems@CExGridCtrl@@QAEHHHJ@Z 1009a1a0 f   ExGridLib:ExGridCtrl.obj
 0001:000991d0       ?ValidateAndModifyCellContents@CExGridCtrl@@IAEXHHPBD@Z 1009a1d0 f   ExGridLib:ExGridCtrl.obj
 0001:00099200       ?ValidateEdit@CExGridCtrl@@MAEHHHPBD@Z 1009a200 f   ExGridLib:ExGridCtrl.obj
 0001:00099230       ?WindowProc@CExGridCtrl@@MAEJIIJ@Z 1009a230 f   ExGridLib:ExGridCtrl.obj
 0001:00099260       ?_GetBaseClass@CExGridCtrl@@KGPAUCRuntimeClass@@XZ 1009a260 f   ExGridLib:ExGridCtrl.obj
 0001:00099265       ??2@YAPAXI@Z               1009a265 f   mfc140:mfc140.dll
 0001:0009926b       ??3@YAXPAX@Z               1009a26b f   mfc140:mfc140.dll
 0001:00099271       ??_V@YAXPAX@Z              1009a271 f   mfc140:mfc140.dll
 0001:00099277       ?Concatenate@?$CSimpleStringT@D$00@ATL@@KAXAAV12@PBDH1H@Z 1009a277 f   mfc140:mfc140.dll
 0001:0009927d       ??0?$CStringT@DV?$StrTraitMFC_DLL@DV?$ChTraitsCRT@D@ATL@@@@@ATL@@QAE@XZ 1009a27d f   mfc140:mfc140.dll
 0001:00099283       ??0?$CStringT@DV?$StrTraitMFC_DLL@DV?$ChTraitsCRT@D@ATL@@@@@ATL@@QAE@PAUIAtlStringMgr@1@@Z 1009a283 f   mfc140:mfc140.dll
 0001:00099289       ??0?$CStringT@DV?$StrTraitMFC_DLL@DV?$ChTraitsCRT@D@ATL@@@@@ATL@@QAE@ABV01@@Z 1009a289 f   mfc140:mfc140.dll
 0001:0009928f       ??0?$CStringT@DV?$StrTraitMFC_DLL@DV?$ChTraitsCRT@D@ATL@@@@@ATL@@QAE@PBD@Z 1009a28f f   mfc140:mfc140.dll
 0001:00099295       ??1?$CStringT@DV?$StrTraitMFC_DLL@DV?$ChTraitsCRT@D@ATL@@@@@ATL@@QAE@XZ 1009a295 f   mfc140:mfc140.dll
 0001:0009929b       ??4?$CStringT@DV?$StrTraitMFC_DLL@DV?$ChTraitsCRT@D@ATL@@@@@ATL@@QAEAAV01@ABV01@@Z 1009a29b f   mfc140:mfc140.dll
 0001:000992a1       ??4?$CStringT@DV?$StrTraitMFC_DLL@DV?$ChTraitsCRT@D@ATL@@@@@ATL@@QAEAAV01@PBD@Z 1009a2a1 f   mfc140:mfc140.dll
 0001:000992a7       ?GetManager@?$CStringT@DV?$StrTraitMFC_DLL@DV?$ChTraitsCRT@D@ATL@@@@@ATL@@QBEPAUIAtlStringMgr@2@XZ 1009a2a7 f   mfc140:mfc140.dll
 0001:000992ad       ?Compare@?$CStringT@DV?$StrTraitMFC_DLL@DV?$ChTraitsCRT@D@ATL@@@@@ATL@@QBEHPBD@Z 1009a2ad f   mfc140:mfc140.dll
 0001:000992b3       ?CompareNoCase@?$CStringT@DV?$StrTraitMFC_DLL@DV?$ChTraitsCRT@D@ATL@@@@@ATL@@QBEHPBD@Z 1009a2b3 f   mfc140:mfc140.dll
 0001:000992b9       ?Format@?$CStringT@DV?$StrTraitMFC_DLL@DV?$ChTraitsCRT@D@ATL@@@@@ATL@@QAAXPBDZZ 1009a2b9 f   mfc140:mfc140.dll
 0001:000992bf       ?GetRuntimeClass@CGdiObject@@UBEPAUCRuntimeClass@@XZ 1009a2bf f   mfc140:mfc140.dll
 0001:000992c5       ?Attach@CGdiObject@@QAEHPAX@Z 1009a2c5 f   mfc140:mfc140.dll
 0001:000992cb       ?DeleteObject@CGdiObject@@QAEHXZ 1009a2cb f   mfc140:mfc140.dll
 0001:000992d1       ?GetRuntimeClass@CBitmap@@UBEPAUCRuntimeClass@@XZ 1009a2d1 f   mfc140:mfc140.dll
 0001:000992d7       ??0CImageList@@QAE@XZ      1009a2d7 f   mfc140:mfc140.dll
 0001:000992dd       ?Create@CImageList@@QAEHHHIHH@Z 1009a2dd f   mfc140:mfc140.dll
 0001:000992e3       ?DeleteImageList@CImageList@@QAEHXZ 1009a2e3 f   mfc140:mfc140.dll
 0001:000992e9       ??1CImageList@@UAE@XZ      1009a2e9 f   mfc140:mfc140.dll
 0001:000992ef       ?GetIDispatch@CCmdTarget@@QAEPAUIDispatch@@H@Z 1009a2ef f   mfc140:mfc140.dll
 0001:000992f5       ?OnCmdMsg@CCmdTarget@@UAEHIHPAXPAUAFX_CMDHANDLERINFO@@@Z 1009a2f5 f   mfc140:mfc140.dll
 0001:000992fb       ?IsInvokeAllowed@CCmdTarget@@UAEHJ@Z 1009a2fb f   mfc140:mfc140.dll
 0001:00099301       ?GetDispatchIID@CCmdTarget@@UAEHPAU_GUID@@@Z 1009a301 f   mfc140:mfc140.dll
 0001:00099307       ?GetTypeInfoCount@CCmdTarget@@UAEIXZ 1009a307 f   mfc140:mfc140.dll
 0001:0009930d       ?GetTypeLibCache@CCmdTarget@@UAEPAVCTypeLibCache@@XZ 1009a30d f   mfc140:mfc140.dll
 0001:00099313       ?GetTypeLib@CCmdTarget@@UAEJKPAPAUITypeLib@@@Z 1009a313 f   mfc140:mfc140.dll
 0001:00099319       ?GetCommandMap@CCmdTarget@@MBEPBUAFX_OLECMDMAP@@XZ 1009a319 f   mfc140:mfc140.dll
 0001:0009931f       ?GetDispatchMap@CCmdTarget@@MBEPBUAFX_DISPMAP@@XZ 1009a31f f   mfc140:mfc140.dll
 0001:00099325       ?GetConnectionMap@CCmdTarget@@MBEPBUAFX_CONNECTIONMAP@@XZ 1009a325 f   mfc140:mfc140.dll
 0001:0009932b       ?GetEventSinkMap@CCmdTarget@@MBEPBUAFX_EVENTSINKMAP@@XZ 1009a32b f   mfc140:mfc140.dll
 0001:00099331       ?OnCreateAggregates@CCmdTarget@@UAEHXZ 1009a331 f   mfc140:mfc140.dll
 0001:00099337       ?GetInterfaceHook@CCmdTarget@@UAEPAUIUnknown@@PBX@Z 1009a337 f   mfc140:mfc140.dll
 0001:0009933d       ?GetExtraConnectionPoints@CCmdTarget@@MAEHPAVCPtrArray@@@Z 1009a33d f   mfc140:mfc140.dll
 0001:00099343       ?GetConnectionHook@CCmdTarget@@MAEPAUIConnectionPoint@@ABU_GUID@@@Z 1009a343 f   mfc140:mfc140.dll
 0001:00099349       ?GetRuntimeClass@CWnd@@UBEPAUCRuntimeClass@@XZ 1009a349 f   mfc140:mfc140.dll
 0001:0009934f       ??0CWnd@@QAE@XZ            1009a34f f   mfc140:mfc140.dll
 0001:00099355       ?PreSubclassWindow@CWnd@@UAEXXZ 1009a355 f   mfc140:mfc140.dll
 0001:0009935b       ?Create@CWnd@@UAEHPBD0KABUtagRECT@@PAV1@IPAUCCreateContext@@@Z 1009a35b f   mfc140:mfc140.dll
 0001:00099361       ?CreateEx@CWnd@@UAEHKPBD0KHHHHPAUHWND__@@PAUHMENU__@@PAX@Z 1009a361 f   mfc140:mfc140.dll
 0001:00099367       ?CreateEx@CWnd@@UAEHKPBD0KABUtagRECT@@PAV1@IPAX@Z 1009a367 f   mfc140:mfc140.dll
 0001:0009936d       ?DestroyWindow@CWnd@@UAEHXZ 1009a36d f   mfc140:mfc140.dll
 0001:00099373       ?PreCreateWindow@CWnd@@UAEHAAUtagCREATESTRUCTA@@@Z 1009a373 f   mfc140:mfc140.dll
 0001:00099379       ?CalcWindowRect@CWnd@@UAEXPAUtagRECT@@I@Z 1009a379 f   mfc140:mfc140.dll
 0001:0009937f       ?GetMenu@CWnd@@UBEPAVCMenu@@XZ 1009a37f f   mfc140:mfc140.dll
 0001:00099385       ?SetMenu@CWnd@@UAEHPAVCMenu@@@Z 1009a385 f   mfc140:mfc140.dll
 0001:0009938b       ?MoveWindow@CWnd@@QAEXHHHHH@Z 1009a38b f   mfc140:mfc140.dll
 0001:00099391       ?SetWindowPos@CWnd@@QAEHPBV1@HHHHI@Z 1009a391 f   mfc140:mfc140.dll
 0001:00099397       ?ShowWindow@CWnd@@QAEHH@Z  1009a397 f   mfc140:mfc140.dll
 0001:0009939d       ?OnToolHitTest@CWnd@@UBEHVCPoint@@PAUtagTOOLINFOA@@@Z 1009a39d f   mfc140:mfc140.dll
 0001:000993a3       ?SetFocus@CWnd@@QAEPAV1@XZ 1009a3a3 f   mfc140:mfc140.dll
 0001:000993a9       ?GetScrollBarCtrl@CWnd@@UBEPAVCScrollBar@@H@Z 1009a3a9 f   mfc140:mfc140.dll
 0001:000993af       ?WinHelpA@CWnd@@UAEXKI@Z   1009a3af f   mfc140:mfc140.dll
 0001:000993b5       ?HtmlHelpA@CWnd@@UAEXKI@Z  1009a3b5 f   mfc140:mfc140.dll
 0001:000993bb       ?WinHelpInternal@CWnd@@UAEXKI@Z 1009a3bb f   mfc140:mfc140.dll
 0001:000993c1       ?ContinueModal@CWnd@@UAEHXZ 1009a3c1 f   mfc140:mfc140.dll
 0001:000993c7       ?EndModalLoop@CWnd@@UAEXH@Z 1009a3c7 f   mfc140:mfc140.dll
 0001:000993cd       ?OnDrawIconicThumbnailOrLivePreview@CWnd@@UAEXAAVCDC@@VCRect@@VCSize@@HAAH@Z 1009a3cd f   mfc140:mfc140.dll
 0001:000993d3       ?GetInterfaceMap@CWnd@@MBEPBUAFX_INTERFACEMAP@@XZ 1009a3d3 f   mfc140:mfc140.dll
 0001:000993d9       ?EnsureStdObj@CWnd@@UAEJXZ 1009a3d9 f   mfc140:mfc140.dll
 0001:000993df       ?get_accParent@CWnd@@UAEJPAPAUIDispatch@@@Z 1009a3df f   mfc140:mfc140.dll
 0001:000993e5       ?get_accChildCount@CWnd@@UAEJPAJ@Z 1009a3e5 f   mfc140:mfc140.dll
 0001:000993eb       ?get_accChild@CWnd@@UAEJUtagVARIANT@@PAPAUIDispatch@@@Z 1009a3eb f   mfc140:mfc140.dll
 0001:000993f1       ?get_accName@CWnd@@UAEJUtagVARIANT@@PAPA_W@Z 1009a3f1 f   mfc140:mfc140.dll
 0001:000993f7       ?get_accValue@CWnd@@UAEJUtagVARIANT@@PAPA_W@Z 1009a3f7 f   mfc140:mfc140.dll
 0001:000993fd       ?get_accDescription@CWnd@@UAEJUtagVARIANT@@PAPA_W@Z 1009a3fd f   mfc140:mfc140.dll
 0001:00099403       ?get_accRole@CWnd@@UAEJUtagVARIANT@@PAU2@@Z 1009a403 f   mfc140:mfc140.dll
 0001:00099409       ?get_accState@CWnd@@UAEJUtagVARIANT@@PAU2@@Z 1009a409 f   mfc140:mfc140.dll
 0001:0009940f       ?get_accHelp@CWnd@@UAEJUtagVARIANT@@PAPA_W@Z 1009a40f f   mfc140:mfc140.dll
 0001:00099415       ?get_accHelpTopic@CWnd@@UAEJPAPA_WUtagVARIANT@@PAJ@Z 1009a415 f   mfc140:mfc140.dll
 0001:0009941b       ?get_accKeyboardShortcut@CWnd@@UAEJUtagVARIANT@@PAPA_W@Z 1009a41b f   mfc140:mfc140.dll
 0001:00099421       ?get_accFocus@CWnd@@UAEJPAUtagVARIANT@@@Z 1009a421 f   mfc140:mfc140.dll
 0001:00099427       ?get_accSelection@CWnd@@UAEJPAUtagVARIANT@@@Z 1009a427 f   mfc140:mfc140.dll
 0001:0009942d       ?get_accDefaultAction@CWnd@@UAEJUtagVARIANT@@PAPA_W@Z 1009a42d f   mfc140:mfc140.dll
 0001:00099433       ?accSelect@CWnd@@UAEJJUtagVARIANT@@@Z 1009a433 f   mfc140:mfc140.dll
 0001:00099439       ?accLocation@CWnd@@UAEJPAJ000UtagVARIANT@@@Z 1009a439 f   mfc140:mfc140.dll
 0001:0009943f       ?accNavigate@CWnd@@UAEJJUtagVARIANT@@PAU2@@Z 1009a43f f   mfc140:mfc140.dll
 0001:00099445       ?accHitTest@CWnd@@UAEJJJPAUtagVARIANT@@@Z 1009a445 f   mfc140:mfc140.dll
 0001:0009944b       ?accDoDefaultAction@CWnd@@UAEJUtagVARIANT@@@Z 1009a44b f   mfc140:mfc140.dll
 0001:00099451       ?put_accName@CWnd@@UAEJUtagVARIANT@@PA_W@Z 1009a451 f   mfc140:mfc140.dll
 0001:00099457       ?put_accValue@CWnd@@UAEJUtagVARIANT@@PA_W@Z 1009a457 f   mfc140:mfc140.dll
 0001:0009945d       ?SetProxy@CWnd@@UAEJPAUIAccessibleProxy@@@Z 1009a45d f   mfc140:mfc140.dll
 0001:00099463       ?CreateAccessibleProxy@CWnd@@UAEJIJPAJ@Z 1009a463 f   mfc140:mfc140.dll
 0001:00099469       ?OnCommand@CWnd@@MAEHIJ@Z  1009a469 f   mfc140:mfc140.dll
 0001:0009946f       ?OnNotify@CWnd@@MAEHIJPAJ@Z 1009a46f f   mfc140:mfc140.dll
 0001:00099475       ?GetSuperWndProcAddr@CWnd@@MAEPAP6GJPAUHWND__@@IIJ@ZXZ 1009a475 f   mfc140:mfc140.dll
 0001:0009947b       ?PreTranslateMessage@CWnd@@UAEHPAUtagMSG@@@Z 1009a47b f   mfc140:mfc140.dll
 0001:00099481       ?OnAmbientProperty@CWnd@@UAEHPAVCOleControlSite@@JPAUtagVARIANT@@@Z 1009a481 f   mfc140:mfc140.dll
 0001:00099487       ?WindowProc@CWnd@@MAEJIIJ@Z 1009a487 f   mfc140:mfc140.dll
 0001:0009948d       ?OnWndMsg@CWnd@@MAEHIIJPAJ@Z 1009a48d f   mfc140:mfc140.dll
 0001:00099493       ?Default@CWnd@@IAEJXZ      1009a493 f   mfc140:mfc140.dll
 0001:00099499       ?DefWindowProcA@CWnd@@MAEJIIJ@Z 1009a499 f   mfc140:mfc140.dll
 0001:0009949f       ?PostNcDestroy@CWnd@@MAEXXZ 1009a49f f   mfc140:mfc140.dll
 0001:000994a5       ?OnChildNotify@CWnd@@MAEHIIJPAJ@Z 1009a4a5 f   mfc140:mfc140.dll
 0001:000994ab       ?OnTouchInputs@CWnd@@MAEHIPAUtagTOUCHINPUT@@@Z 1009a4ab f   mfc140:mfc140.dll
 0001:000994b1       ?OnTouchInput@CWnd@@MAEHVCPoint@@HHPAUtagTOUCHINPUT@@@Z 1009a4b1 f   mfc140:mfc140.dll
 0001:000994b7       ?GetGestureStatus@CWnd@@MAEKVCPoint@@@Z 1009a4b7 f   mfc140:mfc140.dll
 0001:000994bd       ?OnGestureZoom@CWnd@@MAEHVCPoint@@J@Z 1009a4bd f   mfc140:mfc140.dll
 0001:000994c3       ?OnGesturePan@CWnd@@MAEHVCPoint@@0@Z 1009a4c3 f   mfc140:mfc140.dll
 0001:000994c9       ?OnGestureRotate@CWnd@@MAEHVCPoint@@N@Z 1009a4c9 f   mfc140:mfc140.dll
 0001:000994cf       ?OnGestureTwoFingerTap@CWnd@@MAEHVCPoint@@@Z 1009a4cf f   mfc140:mfc140.dll
 0001:000994d5       ?OnGesturePressAndTap@CWnd@@MAEHVCPoint@@J@Z 1009a4d5 f   mfc140:mfc140.dll
 0001:000994db       ?ResizeDynamicLayout@CWnd@@MAEXXZ 1009a4db f   mfc140:mfc140.dll
 0001:000994e1       ??1CWnd@@UAE@XZ            1009a4e1 f   mfc140:mfc140.dll
 0001:000994e7       ?CheckAutoCenter@CWnd@@UAEHXZ 1009a4e7 f   mfc140:mfc140.dll
 0001:000994ed       ?IsFrameWnd@CWnd@@UBEHXZ   1009a4ed f   mfc140:mfc140.dll
 0001:000994f3       ?OnFinalRelease@CWnd@@UAEXXZ 1009a4f3 f   mfc140:mfc140.dll
 0001:000994f9       ?CreateControlContainer@CWnd@@MAEHPAPAVCOleControlContainer@@@Z 1009a4f9 f   mfc140:mfc140.dll
 0001:000994ff       ?CreateControlSite@CWnd@@MAEHPAVCOleControlContainer@@PAPAVCOleControlSite@@IABU_GUID@@@Z 1009a4ff f   mfc140:mfc140.dll
 0001:00099505       ?SetOccDialogInfo@CWnd@@MAEHPAU_AFX_OCC_DIALOG_INFO@@@Z 1009a505 f   mfc140:mfc140.dll
 0001:0009950b       ?GetOccDialogInfo@CWnd@@MAEPAU_AFX_OCC_DIALOG_INFO@@XZ 1009a50b f   mfc140:mfc140.dll
 0001:00099511       ?GetThisMessageMap@CWnd@@KGPBUAFX_MSGMAP@@XZ 1009a511 f   mfc140:mfc140.dll
 0001:00099517       ?GetMessageMap@CWnd@@MBEPBUAFX_MSGMAP@@XZ 1009a517 f   mfc140:mfc140.dll
 0001:0009951d       ?GetRuntimeClass@CEdit@@UBEPAUCRuntimeClass@@XZ 1009a51d f   mfc140:mfc140.dll
 0001:00099523       ??1CEdit@@UAE@XZ           1009a523 f   mfc140:mfc140.dll
 0001:00099529       ?AfxMessageBox@@YGHPBDII@Z 1009a529 f   mfc140:mfc140.dll
 0001:0009952f       ?GetThisClass@CWnd@@SGPAUCRuntimeClass@@XZ 1009a52f f   mfc140:mfc140.dll
 0001:00099535       ?CreateControl@CWnd@@QAEHABU_GUID@@PBDKABUtagRECT@@PAV1@IPAVCFile@@HPA_W@Z 1009a535 f   mfc140:mfc140.dll
 0001:0009953b       ?InvokeHelper@CWnd@@QAAXJGGPAXPBEZZ 1009a53b f   mfc140:mfc140.dll
 0001:00099541       ?SetProperty@CWnd@@QAAXJGZZ 1009a541 f   mfc140:mfc140.dll
 0001:00099547       ?GetProperty@CWnd@@QBEXJGPAX@Z 1009a547 f   mfc140:mfc140.dll
 0001:0009954d       ??_U@YAPAXI@Z              1009a54d f   mfc140:mfc140.dll
 0001:00099553       ?AfxThrowMemoryException@@YGXXZ 1009a553 f   mfc140:mfc140.dll
 0001:00099559       ?AfxThrowInvalidArgException@@YGXXZ 1009a559 f   mfc140:mfc140.dll
 0001:0009955f       ?AfxThrowArchiveException@@YGXHPBD@Z 1009a55f f   mfc140:mfc140.dll
 0001:00099565       ?GetRuntimeClass@CObject@@UBEPAUCRuntimeClass@@XZ 1009a565 f   mfc140:mfc140.dll
 0001:0009956b       ?IsKindOf@CObject@@QBEHPBUCRuntimeClass@@@Z 1009a56b f   mfc140:mfc140.dll
 0001:00099571       ?Empty@?$CSimpleStringT@D$00@ATL@@QAEXXZ 1009a571 f   mfc140:mfc140.dll
 0001:00099577       ?SetAt@?$CSimpleStringT@D$00@ATL@@QAEXHD@Z 1009a577 f   mfc140:mfc140.dll
 0001:0009957d       ??0?$CStringT@DV?$StrTraitMFC_DLL@DV?$ChTraitsCRT@D@ATL@@@@@ATL@@QAE@PB_W@Z 1009a57d f   mfc140:mfc140.dll
 0001:00099583       ??0?$CStringT@DV?$StrTraitMFC_DLL@DV?$ChTraitsCRT@D@ATL@@@@@ATL@@QAE@DH@Z 1009a583 f   mfc140:mfc140.dll
 0001:00099589       ??Y?$CStringT@DV?$StrTraitMFC_DLL@DV?$ChTraitsCRT@D@ATL@@@@@ATL@@QAEAAV01@ABV?$CSimpleStringT@D$00@1@@Z 1009a589 f   mfc140:mfc140.dll
 0001:0009958f       ??Y?$CStringT@DV?$StrTraitMFC_DLL@DV?$ChTraitsCRT@D@ATL@@@@@ATL@@QAEAAV01@PBD@Z 1009a58f f   mfc140:mfc140.dll
 0001:00099595       ??Y?$CStringT@DV?$StrTraitMFC_DLL@DV?$ChTraitsCRT@D@ATL@@@@@ATL@@QAEAAV01@D@Z 1009a595 f   mfc140:mfc140.dll
 0001:0009959b       ?Find@?$CStringT@DV?$StrTraitMFC_DLL@DV?$ChTraitsCRT@D@ATL@@@@@ATL@@QBEHDH@Z 1009a59b f   mfc140:mfc140.dll
 0001:000995a1       ?Find@?$CStringT@DV?$StrTraitMFC_DLL@DV?$ChTraitsCRT@D@ATL@@@@@ATL@@QBEHPBDH@Z 1009a5a1 f   mfc140:mfc140.dll
 0001:000995a7       ?ReverseFind@?$CStringT@DV?$StrTraitMFC_DLL@DV?$ChTraitsCRT@D@ATL@@@@@ATL@@QBEHD@Z 1009a5a7 f   mfc140:mfc140.dll
 0001:000995ad       ?MakeLower@?$CStringT@DV?$StrTraitMFC_DLL@DV?$ChTraitsCRT@D@ATL@@@@@ATL@@QAEAAV12@XZ 1009a5ad f   mfc140:mfc140.dll
 0001:000995b3       ?Mid@?$CStringT@DV?$StrTraitMFC_DLL@DV?$ChTraitsCRT@D@ATL@@@@@ATL@@QBE?AV12@H@Z 1009a5b3 f   mfc140:mfc140.dll
 0001:000995b9       ?Left@?$CStringT@DV?$StrTraitMFC_DLL@DV?$ChTraitsCRT@D@ATL@@@@@ATL@@QBE?AV12@H@Z 1009a5b9 f   mfc140:mfc140.dll
 0001:000995bf       ?Read@CArchive@@QAEIPAXI@Z 1009a5bf f   mfc140:mfc140.dll
 0001:000995c5       ?Write@CArchive@@QAEXPBXI@Z 1009a5c5 f   mfc140:mfc140.dll
 0001:000995cb       ?ReadCount@CArchive@@QAEKXZ 1009a5cb f   mfc140:mfc140.dll
 0001:000995d1       ?WriteCount@CArchive@@QAEXK@Z 1009a5d1 f   mfc140:mfc140.dll
 0001:000995d7       ?GetRuntimeClass@CPtrArray@@UBEPAUCRuntimeClass@@XZ 1009a5d7 f   mfc140:mfc140.dll
 0001:000995dd       ??0CPtrArray@@QAE@XZ       1009a5dd f   mfc140:mfc140.dll
 0001:000995e3       ?SetSize@CPtrArray@@QAEXHH@Z 1009a5e3 f   mfc140:mfc140.dll
 0001:000995e9       ?SetAtGrow@CPtrArray@@QAEXHPAX@Z 1009a5e9 f   mfc140:mfc140.dll
 0001:000995ef       ?Append@CPtrArray@@QAEHABV1@@Z 1009a5ef f   mfc140:mfc140.dll
 0001:000995f5       ?InsertAt@CPtrArray@@QAEXHPAXH@Z 1009a5f5 f   mfc140:mfc140.dll
 0001:000995fb       ?RemoveAt@CPtrArray@@QAEXHH@Z 1009a5fb f   mfc140:mfc140.dll
 0001:00099601       ??1CPtrArray@@UAE@XZ       1009a601 f   mfc140:mfc140.dll
 0001:00099607       ?Detach@CGdiObject@@QAEPAXXZ 1009a607 f   mfc140:mfc140.dll
 0001:0009960d       ?GetRuntimeClass@CPen@@UBEPAUCRuntimeClass@@XZ 1009a60d f   mfc140:mfc140.dll
 0001:00099613       ??0CPen@@QAE@HHK@Z         1009a613 f   mfc140:mfc140.dll
 0001:00099619       ?GetRuntimeClass@CBrush@@UBEPAUCRuntimeClass@@XZ 1009a619 f   mfc140:mfc140.dll
 0001:0009961f       ?GetRuntimeClass@CFont@@UBEPAUCRuntimeClass@@XZ 1009a61f f   mfc140:mfc140.dll
 0001:00099625       ?GetRuntimeClass@CDC@@UBEPAUCRuntimeClass@@XZ 1009a625 f   mfc140:mfc140.dll
 0001:0009962b       ?FromHandle@CDC@@SGPAV1@PAUHDC__@@@Z 1009a62b f   mfc140:mfc140.dll
 0001:00099631       ?Attach@CDC@@QAEHPAUHDC__@@@Z 1009a631 f   mfc140:mfc140.dll
 0001:00099637       ?SetAttribDC@CDC@@UAEXPAUHDC__@@@Z 1009a637 f   mfc140:mfc140.dll
 0001:0009963d       ?SetOutputDC@CDC@@UAEXPAUHDC__@@@Z 1009a63d f   mfc140:mfc140.dll
 0001:00099643       ?ReleaseAttribDC@CDC@@UAEXXZ 1009a643 f   mfc140:mfc140.dll
 0001:00099649       ?ReleaseOutputDC@CDC@@UAEXXZ 1009a649 f   mfc140:mfc140.dll
 0001:0009964f       ??0CDC@@QAE@XZ             1009a64f f   mfc140:mfc140.dll
 0001:00099655       ?DeleteDC@CDC@@QAEHXZ      1009a655 f   mfc140:mfc140.dll
 0001:0009965b       ?SaveDC@CDC@@UAEHXZ        1009a65b f   mfc140:mfc140.dll
 0001:00099661       ?RestoreDC@CDC@@UAEHH@Z    1009a661 f   mfc140:mfc140.dll
 0001:00099667       ?SelectStockObject@CDC@@UAEPAVCGdiObject@@H@Z 1009a667 f   mfc140:mfc140.dll
 0001:0009966d       ?SelectObject@CDC@@QAEPAVCPen@@PAV2@@Z 1009a66d f   mfc140:mfc140.dll
 0001:00099673       ?SelectObject@CDC@@QAEPAVCBrush@@PAV2@@Z 1009a673 f   mfc140:mfc140.dll
 0001:00099679       ?SelectObject@CDC@@UAEPAVCFont@@PAV2@@Z 1009a679 f   mfc140:mfc140.dll
 0001:0009967f       ?SetBkColor@CDC@@UAEKK@Z   1009a67f f   mfc140:mfc140.dll
 0001:00099685       ?SetBkMode@CDC@@QAEHH@Z    1009a685 f   mfc140:mfc140.dll
 0001:0009968b       ?SetTextColor@CDC@@UAEKK@Z 1009a68b f   mfc140:mfc140.dll
 0001:00099691       ?SetMapMode@CDC@@UAEHH@Z   1009a691 f   mfc140:mfc140.dll
 0001:00099697       ?SetViewportOrg@CDC@@UAE?AVCPoint@@HH@Z 1009a697 f   mfc140:mfc140.dll
 0001:0009969d       ?OffsetViewportOrg@CDC@@UAE?AVCPoint@@HH@Z 1009a69d f   mfc140:mfc140.dll
 0001:000996a3       ?SetViewportExt@CDC@@UAE?AVCSize@@HH@Z 1009a6a3 f   mfc140:mfc140.dll
 0001:000996a9       ?ScaleViewportExt@CDC@@UAE?AVCSize@@HHHH@Z 1009a6a9 f   mfc140:mfc140.dll
 0001:000996af       ?SetWindowOrg@CDC@@QAE?AVCPoint@@HH@Z 1009a6af f   mfc140:mfc140.dll
 0001:000996b5       ?SetWindowExt@CDC@@UAE?AVCSize@@HH@Z 1009a6b5 f   mfc140:mfc140.dll
 0001:000996bb       ?ScaleWindowExt@CDC@@UAE?AVCSize@@HHHH@Z 1009a6bb f   mfc140:mfc140.dll
 0001:000996c1       ?GetClipBox@CDC@@UBEHPAUtagRECT@@@Z 1009a6c1 f   mfc140:mfc140.dll
 0001:000996c7       ?MoveTo@CDC@@QAE?AVCPoint@@HH@Z 1009a6c7 f   mfc140:mfc140.dll
 0001:000996cd       ?LineTo@CDC@@QAEHHH@Z      1009a6cd f   mfc140:mfc140.dll
 0001:000996d3       ?FillSolidRect@CDC@@QAEXPBUtagRECT@@K@Z 1009a6d3 f   mfc140:mfc140.dll
 0001:000996d9       ?FillSolidRect@CDC@@QAEXHHHHK@Z 1009a6d9 f   mfc140:mfc140.dll
 0001:000996df       ?Draw3dRect@CDC@@QAEXPBUtagRECT@@KK@Z 1009a6df f   mfc140:mfc140.dll
 0001:000996e5       ??1CDC@@UAE@XZ             1009a6e5 f   mfc140:mfc140.dll
 0001:000996eb       ?SelectGdiObject@CDC@@KGPAVCGdiObject@@PAUHDC__@@PAX@Z 1009a6eb f   mfc140:mfc140.dll
 0001:000996f1       ?GetThisClass@CMenu@@SGPAUCRuntimeClass@@XZ 1009a6f1 f   mfc140:mfc140.dll
 0001:000996f7       ?GetRuntimeClass@CMenu@@UBEPAUCRuntimeClass@@XZ 1009a6f7 f   mfc140:mfc140.dll
 0001:000996fd       ?DestroyMenu@CMenu@@QAEHXZ 1009a6fd f   mfc140:mfc140.dll
 0001:00099703       ?FromHandle@CMenu@@SGPAV1@PAUHMENU__@@@Z 1009a703 f   mfc140:mfc140.dll
 0001:00099709       ?Attach@CMenu@@QAEHPAUHMENU__@@@Z 1009a709 f   mfc140:mfc140.dll
 0001:0009970f       ?GetMenuStringA@CMenu@@QBEHIAAV?$CStringT@DV?$StrTraitMFC_DLL@DV?$ChTraitsCRT@D@ATL@@@@@ATL@@I@Z 1009a70f f   mfc140:mfc140.dll
 0001:00099715       ?DrawItem@CMenu@@UAEXPAUtagDRAWITEMSTRUCT@@@Z 1009a715 f   mfc140:mfc140.dll
 0001:0009971b       ?MeasureItem@CMenu@@UAEXPAUtagMEASUREITEMSTRUCT@@@Z 1009a71b f   mfc140:mfc140.dll
 0001:00099721       ?FromHandle@CWnd@@SGPAV1@PAUHWND__@@@Z 1009a721 f   mfc140:mfc140.dll
 0001:00099727       ?AfxGetThread@@YGPAVCWinThread@@XZ 1009a727 f   mfc140:mfc140.dll
 0001:0009972d       ?AfxFindResourceHandle@@YGPAUHINSTANCE__@@PBD0@Z 1009a72d f   mfc140:mfc140.dll
 0001:00099733       ?AfxLoadSysColorBitmap@@YGPAUHBITMAP__@@PAUHINSTANCE__@@PAUHRSRC__@@H@Z 1009a733 f   mfc140:mfc140.dll
 0001:00099739       ??0CToolBar@@QAE@XZ        1009a739 f   mfc140:mfc140.dll
 0001:0009973f       ?Create@CToolBar@@UAEHPAVCWnd@@KI@Z 1009a73f f   mfc140:mfc140.dll
 0001:00099745       ?LoadToolBar@CToolBar@@QAEHPBD@Z 1009a745 f   mfc140:mfc140.dll
 0001:0009974b       ?CommandToIndex@CToolBar@@QBEHI@Z 1009a74b f   mfc140:mfc140.dll
 0001:00099751       ?GetItemID@CToolBar@@QBEIH@Z 1009a751 f   mfc140:mfc140.dll
 0001:00099757       ?GetButtonInfo@CToolBar@@QBEXHAAI0AAH@Z 1009a757 f   mfc140:mfc140.dll
 0001:0009975d       ??1CToolBar@@UAE@XZ        1009a75d f   mfc140:mfc140.dll
 0001:00099763       ??A?$CSimpleStringT@D$00@ATL@@QBEDH@Z 1009a763 f   mfc140:mfc140.dll
 0001:00099769       ?Delete@?$CStringT@DV?$StrTraitMFC_DLL@DV?$ChTraitsCRT@D@ATL@@@@@ATL@@QAEHHH@Z 1009a769 f   mfc140:mfc140.dll
 0001:0009976f       ?Replace@?$CStringT@DV?$StrTraitMFC_DLL@DV?$ChTraitsCRT@D@ATL@@@@@ATL@@QAEHPBD0@Z 1009a76f f   mfc140:mfc140.dll
 0001:00099775       ?Remove@?$CStringT@DV?$StrTraitMFC_DLL@DV?$ChTraitsCRT@D@ATL@@@@@ATL@@QAEHD@Z 1009a775 f   mfc140:mfc140.dll
 0001:0009977b       ?TrimRight@?$CStringT@DV?$StrTraitMFC_DLL@DV?$ChTraitsCRT@D@ATL@@@@@ATL@@QAEAAV12@XZ 1009a77b f   mfc140:mfc140.dll
 0001:00099781       ?TrimLeft@?$CStringT@DV?$StrTraitMFC_DLL@DV?$ChTraitsCRT@D@ATL@@@@@ATL@@QAEAAV12@XZ 1009a781 f   mfc140:mfc140.dll
 0001:00099787       ?TrimRight@?$CStringT@DV?$StrTraitMFC_DLL@DV?$ChTraitsCRT@D@ATL@@@@@ATL@@QAEAAV12@PBD@Z 1009a787 f   mfc140:mfc140.dll
 0001:0009978d       ?TrimLeft@?$CStringT@DV?$StrTraitMFC_DLL@DV?$ChTraitsCRT@D@ATL@@@@@ATL@@QAEAAV12@D@Z 1009a78d f   mfc140:mfc140.dll
 0001:00099793       ?Mid@?$CStringT@DV?$StrTraitMFC_DLL@DV?$ChTraitsCRT@D@ATL@@@@@ATL@@QBE?AV12@HH@Z 1009a793 f   mfc140:mfc140.dll
 0001:00099799       ?Right@?$CStringT@DV?$StrTraitMFC_DLL@DV?$ChTraitsCRT@D@ATL@@@@@ATL@@QBE?AV12@H@Z 1009a799 f   mfc140:mfc140.dll
 0001:0009979f       ?GetRuntimeClass@CRgn@@UBEPAUCRuntimeClass@@XZ 1009a79f f   mfc140:mfc140.dll
 0001:000997a5       ?SelectClipRgn@CDC@@QAEHPAVCRgn@@@Z 1009a7a5 f   mfc140:mfc140.dll
 0001:000997ab       ?Create@CPlex@@SGPAU1@AAPAU1@II@Z 1009a7ab f   mfc140:mfc140.dll
 0001:000997b1       ?FreeDataChain@CPlex@@QAEXXZ 1009a7b1 f   mfc140:mfc140.dll
 0001:000997b7       ?AfxThrowOleException@@YGXJ@Z 1009a7b7 f   mfc140:mfc140.dll
 0001:000997bd       ?GetThisClass@CObject@@SGPAUCRuntimeClass@@XZ 1009a7bd f   mfc140:mfc140.dll
 0001:000997c3       ?GetBuffer@?$CSimpleStringT@D$00@ATL@@QAEPADH@Z 1009a7c3 f   mfc140:mfc140.dll
 0001:000997c9       ?ReleaseBuffer@?$CSimpleStringT@D$00@ATL@@QAEXH@Z 1009a7c9 f   mfc140:mfc140.dll
 0001:000997cf       ?Insert@?$CStringT@DV?$StrTraitMFC_DLL@DV?$ChTraitsCRT@D@ATL@@@@@ATL@@QAEHHPBD@Z 1009a7cf f   mfc140:mfc140.dll
 0001:000997d5       ?MakeReverse@?$CStringT@DV?$StrTraitMFC_DLL@DV?$ChTraitsCRT@D@ATL@@@@@ATL@@QAEAAV12@XZ 1009a7d5 f   mfc140:mfc140.dll
 0001:000997db       ?ModifyStyle@CWnd@@QAEHKKI@Z 1009a7db f   mfc140:mfc140.dll
 0001:000997e1       ?OnDestroy@CWnd@@IAEXXZ    1009a7e1 f   mfc140:mfc140.dll
 0001:000997e7       ?GetRuntimeClass@CButton@@UBEPAUCRuntimeClass@@XZ 1009a7e7 f   mfc140:mfc140.dll
 0001:000997ed       ?Create@CButton@@UAEHPBDKABUtagRECT@@PAVCWnd@@I@Z 1009a7ed f   mfc140:mfc140.dll
 0001:000997f3       ?DrawItem@CButton@@UAEXPAUtagDRAWITEMSTRUCT@@@Z 1009a7f3 f   mfc140:mfc140.dll
 0001:000997f9       ??1CButton@@UAE@XZ         1009a7f9 f   mfc140:mfc140.dll
 0001:000997ff       ?OnChildNotify@CButton@@MAEHIIJPAJ@Z 1009a7ff f   mfc140:mfc140.dll
 0001:00099805       ??0CToolTipCtrl@@QAE@XZ    1009a805 f   mfc140:mfc140.dll
 0001:0009980b       ?AddTool@CToolTipCtrl@@QAEHPAVCWnd@@PBDPBUtagRECT@@I@Z 1009a80b f   mfc140:mfc140.dll
 0001:00099811       ?UpdateTipText@CToolTipCtrl@@QAEXPBDPAVCWnd@@I@Z 1009a811 f   mfc140:mfc140.dll
 0001:00099817       ??1CToolTipCtrl@@UAE@XZ    1009a817 f   mfc140:mfc140.dll
 0001:0009981d       ?FromHandle@CGdiObject@@SGPAV1@PAX@Z 1009a81d f   mfc140:mfc140.dll
 0001:00099823       ??0CBrush@@QAE@K@Z         1009a823 f   mfc140:mfc140.dll
 0001:00099829       ?CreatePointFont@CFont@@QAEHHPBDPAVCDC@@@Z 1009a829 f   mfc140:mfc140.dll
 0001:0009982f       ?SetTextAlign@CDC@@QAEII@Z 1009a82f f   mfc140:mfc140.dll
 0001:00099835       ??0CPaintDC@@QAE@PAVCWnd@@@Z 1009a835 f   mfc140:mfc140.dll
 0001:0009983b       ??1CPaintDC@@UAE@XZ        1009a83b f   mfc140:mfc140.dll
 0001:00099841       ??0CClientDC@@QAE@PAVCWnd@@@Z 1009a841 f   mfc140:mfc140.dll
 0001:00099847       ??1CClientDC@@UAE@XZ       1009a847 f   mfc140:mfc140.dll
 0001:0009984d       ?GetStyle@CWnd@@QBEKXZ     1009a84d f   mfc140:mfc140.dll
 0001:00099853       ?ModifyStyleEx@CWnd@@QAEHKKI@Z 1009a853 f   mfc140:mfc140.dll
 0001:00099859       ?GetDlgCtrlID@CWnd@@QBEHXZ 1009a859 f   mfc140:mfc140.dll
 0001:0009985f       ?GetWindowTextA@CWnd@@QBEXAAV?$CStringT@DV?$StrTraitMFC_DLL@DV?$ChTraitsCRT@D@ATL@@@@@ATL@@@Z 1009a85f f   mfc140:mfc140.dll
 0001:00099865       ?ScreenToClient@CWnd@@QBEXPAUtagRECT@@@Z 1009a865 f   mfc140:mfc140.dll
 0001:0009986b       ?GetRuntimeClass@CStatic@@UBEPAUCRuntimeClass@@XZ 1009a86b f   mfc140:mfc140.dll
 0001:00099871       ?Create@CStatic@@UAEHPBDKABUtagRECT@@PAVCWnd@@I@Z 1009a871 f   mfc140:mfc140.dll
 0001:00099877       ?DrawItem@CStatic@@UAEXPAUtagDRAWITEMSTRUCT@@@Z 1009a877 f   mfc140:mfc140.dll
 0001:0009987d       ??1CStatic@@UAE@XZ         1009a87d f   mfc140:mfc140.dll
 0001:00099883       ?OnChildNotify@CStatic@@MAEHIIJPAJ@Z 1009a883 f   mfc140:mfc140.dll
 0001:00099889       ?GetBufferSetLength@?$CSimpleStringT@D$00@ATL@@QAEPADH@Z 1009a889 f   mfc140:mfc140.dll
 0001:0009988f       ?SpanIncluding@?$CStringT@DV?$StrTraitMFC_DLL@DV?$ChTraitsCRT@D@ATL@@@@@ATL@@QBE?AV12@PBD@Z 1009a88f f   mfc140:mfc140.dll
 0001:00099895       ?SpanExcluding@?$CStringT@DV?$StrTraitMFC_DLL@DV?$ChTraitsCRT@D@ATL@@@@@ATL@@QBE?AV12@PBD@Z 1009a895 f   mfc140:mfc140.dll
 0001:0009989b       ?GetRuntimeClass@CMapPtrToPtr@@UBEPAUCRuntimeClass@@XZ 1009a89b f   mfc140:mfc140.dll
 0001:000998a1       ??0CMapPtrToPtr@@QAE@H@Z   1009a8a1 f   mfc140:mfc140.dll
 0001:000998a7       ?Lookup@CMapPtrToPtr@@QBEHPAXAAPAX@Z 1009a8a7 f   mfc140:mfc140.dll
 0001:000998ad       ??ACMapPtrToPtr@@QAEAAPAXPAX@Z 1009a8ad f   mfc140:mfc140.dll
 0001:000998b3       ??1CMapPtrToPtr@@UAE@XZ    1009a8b3 f   mfc140:mfc140.dll
 0001:000998b9       ?GetRuntimeClass@CMapStringToPtr@@UBEPAUCRuntimeClass@@XZ 1009a8b9 f   mfc140:mfc140.dll
 0001:000998bf       ??0CMapStringToPtr@@QAE@H@Z 1009a8bf f   mfc140:mfc140.dll
 0001:000998c5       ?Lookup@CMapStringToPtr@@QBEHPBDAAPAX@Z 1009a8c5 f   mfc140:mfc140.dll
 0001:000998cb       ??ACMapStringToPtr@@QAEAAPAXPBD@Z 1009a8cb f   mfc140:mfc140.dll
 0001:000998d1       ??1CMapStringToPtr@@UAE@XZ 1009a8d1 f   mfc140:mfc140.dll
 0001:000998d7       ??0CFile@@QAE@XZ           1009a8d7 f   mfc140:mfc140.dll
 0001:000998dd       ?Open@CFile@@UAEHPBDIPAVCFileException@@@Z 1009a8dd f   mfc140:mfc140.dll
 0001:000998e3       ?GetLength@CFile@@UBE_KXZ  1009a8e3 f   mfc140:mfc140.dll
 0001:000998e9       ?Read@CFile@@UAEIPAXI@Z    1009a8e9 f   mfc140:mfc140.dll
 0001:000998ef       ??1CFile@@UAE@XZ           1009a8ef f   mfc140:mfc140.dll
 0001:000998f5       ?GetAt@?$CSimpleStringT@D$00@ATL@@QBEDH@Z 1009a8f5 f   mfc140:mfc140.dll
 0001:000998fb       ?TrimRight@?$CStringT@DV?$StrTraitMFC_DLL@DV?$ChTraitsCRT@D@ATL@@@@@ATL@@QAEAAV12@D@Z 1009a8fb f   mfc140:mfc140.dll
 0001:00099901       ??0CFileFind@@QAE@XZ       1009a901 f   mfc140:mfc140.dll
 0001:00099907       ??1CFileFind@@UAE@XZ       1009a907 f   mfc140:mfc140.dll
 0001:0009990d       ?FindFile@CFileFind@@UAEHPBDK@Z 1009a90d f   mfc140:mfc140.dll
 0001:00099913       ??0CStringArray@@QAE@XZ    1009a913 f   mfc140:mfc140.dll
 0001:00099919       ?SetSize@CStringArray@@QAEXHH@Z 1009a919 f   mfc140:mfc140.dll
 0001:0009991f       ??1CStringArray@@UAE@XZ    1009a91f f   mfc140:mfc140.dll
 0001:00099925       ??0CStringList@@QAE@H@Z    1009a925 f   mfc140:mfc140.dll
 0001:0009992b       ?AddTail@CStringList@@QAEPAU__POSITION@@PBD@Z 1009a92b f   mfc140:mfc140.dll
 0001:00099931       ?RemoveAll@CStringList@@QAEXXZ 1009a931 f   mfc140:mfc140.dll
 0001:00099937       ??1CStringList@@UAE@XZ     1009a937 f   mfc140:mfc140.dll
 0001:0009993d       ?RemoveKey@CMapStringToPtr@@QAEHPBD@Z 1009a93d f   mfc140:mfc140.dll
 0001:00099943       ?RemoveAll@CMapStringToPtr@@QAEXXZ 1009a943 f   mfc140:mfc140.dll
 0001:00099949       ?GetNextAssoc@CMapStringToPtr@@QBEXAAPAU__POSITION@@AAV?$CStringT@DV?$StrTraitMFC_DLL@DV?$ChTraitsCRT@D@ATL@@@@@ATL@@AAPAX@Z 1009a949 f   mfc140:mfc140.dll
 0001:0009994f       ?AfxExtractSubString@@YGHAAV?$CStringT@DV?$StrTraitMFC_DLL@DV?$ChTraitsCRT@D@ATL@@@@@ATL@@PBDHD@Z 1009a94f f   mfc140:mfc140.dll
 0001:00099955       ?SetAtGrow@CStringArray@@QAEXHPBD@Z 1009a955 f   mfc140:mfc140.dll
 0001:0009995b       ?SetAtGrow@CStringArray@@QAEXHABV?$CStringT@DV?$StrTraitMFC_DLL@DV?$ChTraitsCRT@D@ATL@@@@@ATL@@@Z 1009a95b f   mfc140:mfc140.dll
 0001:00099961       ?GetFilePath@CFileFind@@UBE?AV?$CStringT@DV?$StrTraitMFC_DLL@DV?$ChTraitsCRT@D@ATL@@@@@ATL@@XZ 1009a961 f   mfc140:mfc140.dll
 0001:00099967       ?FindNextFileA@CFileFind@@UAEHXZ 1009a967 f   mfc140:mfc140.dll
 0001:0009996d       ?AddTail@CStringList@@QAEPAU__POSITION@@ABV?$CStringT@DV?$StrTraitMFC_DLL@DV?$ChTraitsCRT@D@ATL@@@@@ATL@@@Z 1009a96d f   mfc140:mfc140.dll
 0001:00099973       ?Find@CStringList@@QBEPAU__POSITION@@PBDPAU2@@Z 1009a973 f   mfc140:mfc140.dll
 0001:00099979       ?TrackPopupMenu@CMenu@@QAEHIHHPAVCWnd@@PBUtagRECT@@@Z 1009a979 f   mfc140:mfc140.dll
 0001:0009997f       ?GetDlgItem@CWnd@@QBEPAV1@H@Z 1009a97f f   mfc140:mfc140.dll
 0001:00099985       ?MessageBoxA@CWnd@@QAEHPBD0I@Z 1009a985 f   mfc140:mfc140.dll
 0001:0009998b       ??0AFX_MAINTAIN_STATE2@@QAE@PAVAFX_MODULE_STATE@@@Z 1009a98b f   mfc140:mfc140.dll
 0001:00099991       ??1AFX_MAINTAIN_STATE2@@QAE@XZ 1009a991 f   mfc140:mfc140.dll
 0001:00099997       ?OnFinalRelease@CCmdTarget@@UAEXXZ 1009a997 f   mfc140:mfc140.dll
 0001:0009999d       ?GetInterfaceMap@CCmdTarget@@MBEPBUAFX_INTERFACEMAP@@XZ 1009a99d f   mfc140:mfc140.dll
 0001:000999a3       ?PreTranslateMessage@CWinThread@@UAEHPAUtagMSG@@@Z 1009a9a3 f   mfc140:mfc140.dll
 0001:000999a9       ?PumpMessage@CWinThread@@UAEHXZ 1009a9a9 f   mfc140:mfc140.dll
 0001:000999af       ?IsIdleMessage@CWinThread@@UAEHPAUtagMSG@@@Z 1009a9af f   mfc140:mfc140.dll
 0001:000999b5       ?ProcessMessageFilter@CWinThread@@UAEHHPAUtagMSG@@@Z 1009a9b5 f   mfc140:mfc140.dll
 0001:000999bb       ?GetMainWnd@CWinThread@@UAEPAVCWnd@@XZ 1009a9bb f   mfc140:mfc140.dll
 0001:000999c1       ?Delete@CWinThread@@UAEXXZ 1009a9c1 f   mfc140:mfc140.dll
 0001:000999c7       ?GetRuntimeClass@CWinApp@@UBEPAUCRuntimeClass@@XZ 1009a9c7 f   mfc140:mfc140.dll
 0001:000999cd       ??0CWinApp@@QAE@PBD@Z      1009a9cd f   mfc140:mfc140.dll
 0001:000999d3       ?GetProfileIntA@CWinApp@@UAEIPBD0H@Z 1009a9d3 f   mfc140:mfc140.dll
 0001:000999d9       ?WriteProfileInt@CWinApp@@UAEHPBD0H@Z 1009a9d9 f   mfc140:mfc140.dll
 0001:000999df       ?GetProfileStringA@CWinApp@@UAE?AV?$CStringT@DV?$StrTraitMFC_DLL@DV?$ChTraitsCRT@D@ATL@@@@@ATL@@PBD00@Z 1009a9df f   mfc140:mfc140.dll
 0001:000999e5       ?WriteProfileStringA@CWinApp@@UAEHPBD00@Z 1009a9e5 f   mfc140:mfc140.dll
 0001:000999eb       ?GetProfileBinary@CWinApp@@UAEHPBD0PAPAEPAI@Z 1009a9eb f   mfc140:mfc140.dll
 0001:000999f1       ?WriteProfileBinary@CWinApp@@UAEHPBD0PAEI@Z 1009a9f1 f   mfc140:mfc140.dll
 0001:000999f7       ?InitLibId@CWinApp@@UAEXXZ 1009a9f7 f   mfc140:mfc140.dll
 0001:000999fd       ?Register@CWinApp@@UAEHXZ  1009a9fd f   mfc140:mfc140.dll
 0001:00099a03       ?Unregister@CWinApp@@UAEHXZ 1009aa03 f   mfc140:mfc140.dll
 0001:00099a09       ?OpenDocumentFile@CWinApp@@UAEPAVCDocument@@PBD@Z 1009aa09 f   mfc140:mfc140.dll
 0001:00099a0f       ?OpenDocumentFile@CWinApp@@UAEPAVCDocument@@PBDH@Z 1009aa0f f   mfc140:mfc140.dll
 0001:00099a15       ?AddToRecentFileList@CWinApp@@UAEXPBD@Z 1009aa15 f   mfc140:mfc140.dll
 0001:00099a1b       ?InitApplication@CWinApp@@UAEHXZ 1009aa1b f   mfc140:mfc140.dll
 0001:00099a21       ?SaveAllModified@CWinApp@@UAEHXZ 1009aa21 f   mfc140:mfc140.dll
 0001:00099a27       ?DoMessageBox@CWinApp@@UAEHPBDII@Z 1009aa27 f   mfc140:mfc140.dll
 0001:00099a2d       ?DoWaitCursor@CWinApp@@UAEXH@Z 1009aa2d f   mfc140:mfc140.dll
 0001:00099a33       ?OnDDECommand@CWinApp@@UAEHPAD@Z 1009aa33 f   mfc140:mfc140.dll
 0001:00099a39       ?WinHelpA@CWinApp@@UAEXKI@Z 1009aa39 f   mfc140:mfc140.dll
 0001:00099a3f       ?HtmlHelpA@CWinApp@@UAEXKI@Z 1009aa3f f   mfc140:mfc140.dll
 0001:00099a45       ?WinHelpInternal@CWinApp@@UAEXKI@Z 1009aa45 f   mfc140:mfc140.dll
 0001:00099a4b       ?RegisterWithRestartManager@CWinApp@@UAEJHABV?$CStringT@DV?$StrTraitMFC_DLL@DV?$ChTraitsCRT@D@ATL@@@@@ATL@@@Z 1009aa4b f   mfc140:mfc140.dll
 0001:00099a51       ?RegisterWithRestartManager@CWinApp@@UAEJPB_WKP6GKPAX@Z1KK@Z 1009aa51 f   mfc140:mfc140.dll
 0001:00099a57       ?ApplicationRecoveryCallback@CWinApp@@UAEKPAX@Z 1009aa57 f   mfc140:mfc140.dll
 0001:00099a5d       ?GetDataRecoveryHandler@CWinApp@@UAEPAVCDataRecoveryHandler@@XZ 1009aa5d f   mfc140:mfc140.dll
 0001:00099a63       ?IsTaskbarInteractionEnabled@CWinApp@@UAEHXZ 1009aa63 f   mfc140:mfc140.dll
 0001:00099a69       ?ExitInstance@CWinApp@@UAEHXZ 1009aa69 f   mfc140:mfc140.dll
 0001:00099a6f       ?RestartInstance@CWinApp@@UAEHXZ 1009aa6f f   mfc140:mfc140.dll
 0001:00099a75       ?Run@CWinApp@@UAEHXZ       1009aa75 f   mfc140:mfc140.dll
 0001:00099a7b       ?OnIdle@CWinApp@@UAEHJ@Z   1009aa7b f   mfc140:mfc140.dll
 0001:00099a81       ?ProcessWndProcException@CWinApp@@UAEJPAVCException@@PBUtagMSG@@@Z 1009aa81 f   mfc140:mfc140.dll
 0001:00099a87       ?LoadAppLangResourceDLL@CWinApp@@UAEPAUHINSTANCE__@@XZ 1009aa87 f   mfc140:mfc140.dll
 0001:00099a8d       ??1CWinApp@@UAE@XZ         1009aa8d f   mfc140:mfc140.dll
 0001:00099a93       ?GetThisMessageMap@CWinApp@@KGPBUAFX_MSGMAP@@XZ 1009aa93 f   mfc140:mfc140.dll
 0001:00099a99       ?LoadSysPolicies@CWinApp@@UAEHXZ 1009aa99 f   mfc140:mfc140.dll
 0001:00099a9f       ?RegisterAll@COleObjectFactory@@SGHXZ 1009aa9f f   mfc140:mfc140.dll
 0001:00099aa5       ?UpdateRegistryAll@COleObjectFactory@@SGHH@Z 1009aaa5 f   mfc140:mfc140.dll
 0001:00099aab       ?AfxDllGetClassObject@@YGJABU_GUID@@0PAPAX@Z 1009aaab f   mfc140:mfc140.dll
 0001:00099ab1       ?AfxDllCanUnloadNow@@YGJXZ 1009aab1 f   mfc140:mfc140.dll
 0001:00099ab7       ?AfxGetModuleState@@YGPAVAFX_MODULE_STATE@@XZ 1009aab7 f   mfc140:mfc140.dll
 0001:00099abd       ?ExcludeClipRect@CDC@@QAEHPBUtagRECT@@@Z 1009aabd f   mfc140:mfc140.dll
 0001:00099ac3       ?AfxLockTempMaps@@YGXXZ    1009aac3 f   mfc140:mfc140.dll
 0001:00099ac9       ?AfxUnlockTempMaps@@YGHH@Z 1009aac9 f   mfc140:mfc140.dll
 0001:00099acf       ?FromHandle@CImageList@@SGPAV1@PAU_IMAGELIST@@@Z 1009aacf f   mfc140:mfc140.dll
 0001:00099ad5       ?EnableWindow@CWnd@@QAEHH@Z 1009aad5 f   mfc140:mfc140.dll
 0001:00099adb       ?GetRuntimeClass@CListCtrl@@UBEPAUCRuntimeClass@@XZ 1009aadb f   mfc140:mfc140.dll
 0001:00099ae1       ?GetItemText@CListCtrl@@QBE?AV?$CStringT@DV?$StrTraitMFC_DLL@DV?$ChTraitsCRT@D@ATL@@@@@ATL@@HH@Z 1009aae1 f   mfc140:mfc140.dll
 0001:00099ae7       ?GetHeaderCtrl@CListCtrl@@QBEPAVCHeaderCtrl@@XZ 1009aae7 f   mfc140:mfc140.dll
 0001:00099aed       ?DrawItem@CListCtrl@@UAEXPAUtagDRAWITEMSTRUCT@@@Z 1009aaed f   mfc140:mfc140.dll
 0001:00099af3       ?OnChildNotify@CListCtrl@@MAEHIIJPAJ@Z 1009aaf3 f   mfc140:mfc140.dll
 0001:00099af9       ?LoadStringA@?$CStringT@DV?$StrTraitMFC_DLL@DV?$ChTraitsCRT@D@ATL@@@@@ATL@@QAEHI@Z 1009aaf9 f   mfc140:mfc140.dll
 0001:00099aff       ?OnCtlColor@CWnd@@IAEPAUHBRUSH__@@PAVCDC@@PAV1@I@Z 1009aaff f   mfc140:mfc140.dll
 0001:00099b05       ?GetRuntimeClass@CDialog@@UBEPAUCRuntimeClass@@XZ 1009ab05 f   mfc140:mfc140.dll
 0001:00099b0b       ?Create@CDialog@@UAEHPBDPAVCWnd@@@Z 1009ab0b f   mfc140:mfc140.dll
 0001:00099b11       ?CreateIndirect@CDialog@@UAEHPBUDLGTEMPLATE@@PAVCWnd@@PAX@Z 1009ab11 f   mfc140:mfc140.dll
 0001:00099b17       ?CreateIndirect@CDialog@@UAEHPAXPAVCWnd@@@Z 1009ab17 f   mfc140:mfc140.dll
 0001:00099b1d       ??0CDialog@@QAE@IPAVCWnd@@@Z 1009ab1d f   mfc140:mfc140.dll
 0001:00099b23       ?DoModal@CDialog@@UAEHXZ   1009ab23 f   mfc140:mfc140.dll
 0001:00099b29       ?OnInitDialog@CDialog@@UAEHXZ 1009ab29 f   mfc140:mfc140.dll
 0001:00099b2f       ?OnSetFont@CDialog@@UAEXPAVCFont@@@Z 1009ab2f f   mfc140:mfc140.dll
 0001:00099b35       ?OnOK@CDialog@@MAEXXZ      1009ab35 f   mfc140:mfc140.dll
 0001:00099b3b       ?OnCancel@CDialog@@MAEXXZ  1009ab3b f   mfc140:mfc140.dll
 0001:00099b41       ??1CDialog@@UAE@XZ         1009ab41 f   mfc140:mfc140.dll
 0001:00099b47       ?PreTranslateMessage@CDialog@@UAEHPAUtagMSG@@@Z 1009ab47 f   mfc140:mfc140.dll
 0001:00099b4d       ?OnCmdMsg@CDialog@@UAEHIHPAXPAUAFX_CMDHANDLERINFO@@@Z 1009ab4d f   mfc140:mfc140.dll
 0001:00099b53       ?CheckAutoCenter@CDialog@@UAEHXZ 1009ab53 f   mfc140:mfc140.dll
 0001:00099b59       ?SetOccDialogInfo@CDialog@@MAEHPAU_AFX_OCC_DIALOG_INFO@@@Z 1009ab59 f   mfc140:mfc140.dll
 0001:00099b5f       ?GetOccDialogInfo@CDialog@@MAEPAU_AFX_OCC_DIALOG_INFO@@XZ 1009ab5f f   mfc140:mfc140.dll
 0001:00099b65       ?PreInitDialog@CDialog@@MAEXXZ 1009ab65 f   mfc140:mfc140.dll
 0001:00099b6b       ?GetThisMessageMap@CDialog@@KGPBUAFX_MSGMAP@@XZ 1009ab6b f   mfc140:mfc140.dll
 0001:00099b71       ?GetThisClass@CTreeCtrl@@SGPAUCRuntimeClass@@XZ 1009ab71 f   mfc140:mfc140.dll
 0001:00099b77       ?GetRuntimeClass@CTreeCtrl@@UBEPAUCRuntimeClass@@XZ 1009ab77 f   mfc140:mfc140.dll
 0001:00099b7d       ?GetItemRect@CTreeCtrl@@QBEHPAU_TREEITEM@@PAUtagRECT@@H@Z 1009ab7d f   mfc140:mfc140.dll
 0001:00099b83       ?GetItemText@CTreeCtrl@@QBE?AV?$CStringT@DV?$StrTraitMFC_DLL@DV?$ChTraitsCRT@D@ATL@@@@@ATL@@PAU_TREEITEM@@@Z 1009ab83 f   mfc140:mfc140.dll
 0001:00099b89       ?GetItemState@CTreeCtrl@@QBEIPAU_TREEITEM@@I@Z 1009ab89 f   mfc140:mfc140.dll
 0001:00099b8f       ?SetItem@CTreeCtrl@@QAEHPAU_TREEITEM@@IPBDHHIIJ@Z 1009ab8f f   mfc140:mfc140.dll
 0001:00099b95       ??1CTreeCtrl@@UAE@XZ       1009ab95 f   mfc140:mfc140.dll
 0001:00099b9b       ?GetThisMessageMap@CTreeCtrl@@KGPBUAFX_MSGMAP@@XZ 1009ab9b f   mfc140:mfc140.dll
 0001:00099ba1       ?GetMessageMap@CTreeCtrl@@MBEPBUAFX_MSGMAP@@XZ 1009aba1 f   mfc140:mfc140.dll
 0001:00099ba7       ?Create@CTreeCtrl@@QAEHKABUtagRECT@@PAVCWnd@@I@Z 1009aba7 f   mfc140:mfc140.dll
 0001:00099bad       ?GetItemData@CTreeCtrl@@QBEKPAU_TREEITEM@@@Z 1009abad f   mfc140:mfc140.dll
 0001:00099bb3       ?ItemHasChildren@CTreeCtrl@@QBEHPAU_TREEITEM@@@Z 1009abb3 f   mfc140:mfc140.dll
 0001:00099bb9       ?HitTest@CTreeCtrl@@QBEPAU_TREEITEM@@VCPoint@@PAI@Z 1009abb9 f   mfc140:mfc140.dll
 0001:00099bbf       ?CollateNoCase@?$CStringT@DV?$StrTraitMFC_DLL@DV?$ChTraitsCRT@D@ATL@@@@@ATL@@QBEHPBD@Z 1009abbf f   mfc140:mfc140.dll
 0001:00099bc5       ?GetRuntimeClass@CStringArray@@UBEPAUCRuntimeClass@@XZ 1009abc5 f   mfc140:mfc140.dll
 0001:00099bcb       ?Serialize@CStringArray@@UAEXAAVCArchive@@@Z 1009abcb f   mfc140:mfc140.dll
 0001:00099bd1       ?GetScrollPos@CWnd@@QBEHH@Z 1009abd1 f   mfc140:mfc140.dll
 0001:00099bd7       ?GetScrollInfo@CWnd@@QAEHHPAUtagSCROLLINFO@@I@Z 1009abd7 f   mfc140:mfc140.dll
 0001:00099bdd       ?SetItemState@CListCtrl@@QAEHHII@Z 1009abdd f   mfc140:mfc140.dll
 0001:00099be3       ?InsertColumn@CListCtrl@@QAEHHPBDHHH@Z 1009abe3 f   mfc140:mfc140.dll
 0001:00099be9       ??1CListCtrl@@UAE@XZ       1009abe9 f   mfc140:mfc140.dll
 0001:00099bef       ?GetThisMessageMap@CListCtrl@@KGPBUAFX_MSGMAP@@XZ 1009abef f   mfc140:mfc140.dll
 0001:00099bf5       ?GetMessageMap@CListCtrl@@MBEPBUAFX_MSGMAP@@XZ 1009abf5 f   mfc140:mfc140.dll
 0001:00099bfb       ??4?$CStringT@DV?$StrTraitMFC_DLL@DV?$ChTraitsCRT@D@ATL@@@@@ATL@@QAEAAV01@D@Z 1009abfb f   mfc140:mfc140.dll
 0001:00099c01       ?GetCurrentMessage@CWnd@@KGPBUtagMSG@@XZ 1009ac01 f   mfc140:mfc140.dll
 0001:00099c07       ?SetScrollInfo@CWnd@@QAEHHPAUtagSCROLLINFO@@H@Z 1009ac07 f   mfc140:mfc140.dll
 0001:00099c0d       ?GetRuntimeClass@CListBox@@UBEPAUCRuntimeClass@@XZ 1009ac0d f   mfc140:mfc140.dll
 0001:00099c13       ?Create@CListBox@@UAEHKABUtagRECT@@PAVCWnd@@I@Z 1009ac13 f   mfc140:mfc140.dll
 0001:00099c19       ?ItemFromPoint@CListBox@@QBEIVCPoint@@AAH@Z 1009ac19 f   mfc140:mfc140.dll
 0001:00099c1f       ?DrawItem@CListBox@@UAEXPAUtagDRAWITEMSTRUCT@@@Z 1009ac1f f   mfc140:mfc140.dll
 0001:00099c25       ?MeasureItem@CListBox@@UAEXPAUtagMEASUREITEMSTRUCT@@@Z 1009ac25 f   mfc140:mfc140.dll
 0001:00099c2b       ?CompareItem@CListBox@@UAEHPAUtagCOMPAREITEMSTRUCT@@@Z 1009ac2b f   mfc140:mfc140.dll
 0001:00099c31       ?DeleteItem@CListBox@@UAEXPAUtagDELETEITEMSTRUCT@@@Z 1009ac31 f   mfc140:mfc140.dll
 0001:00099c37       ?VKeyToItem@CListBox@@UAEHII@Z 1009ac37 f   mfc140:mfc140.dll
 0001:00099c3d       ?CharToItem@CListBox@@UAEHII@Z 1009ac3d f   mfc140:mfc140.dll
 0001:00099c43       ??1CListBox@@UAE@XZ        1009ac43 f   mfc140:mfc140.dll
 0001:00099c49       ?OnChildNotify@CListBox@@MAEHIIJPAJ@Z 1009ac49 f   mfc140:mfc140.dll
 0001:00099c4f       ?GetRuntimeClass@CScrollBar@@UBEPAUCRuntimeClass@@XZ 1009ac4f f   mfc140:mfc140.dll
 0001:00099c55       ?Create@CScrollBar@@UAEHKABUtagRECT@@PAVCWnd@@I@Z 1009ac55 f   mfc140:mfc140.dll
 0001:00099c5b       ??1CScrollBar@@UAE@XZ      1009ac5b f   mfc140:mfc140.dll
 0001:00099c61       ?DrawIndirect@CImageList@@QAEHPAVCDC@@HUtagPOINT@@UtagSIZE@@1IKKKKKK@Z 1009ac61 f   mfc140:mfc140.dll
 0001:00099c67       ?OnSysColorChange@CWnd@@IAEXXZ 1009ac67 f   mfc140:mfc140.dll
 0001:00099c6d       ?GetThisClass@CHeaderCtrl@@SGPAUCRuntimeClass@@XZ 1009ac6d f   mfc140:mfc140.dll
 0001:00099c73       ?GetRuntimeClass@CHeaderCtrl@@UBEPAUCRuntimeClass@@XZ 1009ac73 f   mfc140:mfc140.dll
 0001:00099c79       ?Create@CHeaderCtrl@@UAEHKABUtagRECT@@PAVCWnd@@I@Z 1009ac79 f   mfc140:mfc140.dll
 0001:00099c7f       ?CreateEx@CHeaderCtrl@@UAEHKKABUtagRECT@@PAVCWnd@@I@Z 1009ac7f f   mfc140:mfc140.dll
 0001:00099c85       ?DrawItem@CHeaderCtrl@@UAEXPAUtagDRAWITEMSTRUCT@@@Z 1009ac85 f   mfc140:mfc140.dll
 0001:00099c8b       ??1CHeaderCtrl@@UAE@XZ     1009ac8b f   mfc140:mfc140.dll
 0001:00099c91       ?OnChildNotify@CHeaderCtrl@@MAEHIIJPAJ@Z 1009ac91 f   mfc140:mfc140.dll
 0001:00099c97       ?SubclassWindow@CWnd@@QAEHPAUHWND__@@@Z 1009ac97 f   mfc140:mfc140.dll
 0001:00099c9d       ?SetWindowTextA@CWnd@@QAEXPBD@Z 1009ac9d f   mfc140:mfc140.dll
 0001:00099ca3       ?Create@CEdit@@QAEHKABUtagRECT@@PAVCWnd@@I@Z 1009aca3 f   mfc140:mfc140.dll
 0001:00099ca9       ?GetItemRect@CListCtrl@@QBEHHPAUtagRECT@@I@Z 1009aca9 f   mfc140:mfc140.dll
 0001:00099caf       ?SetItemText@CListCtrl@@QAEHHHPBD@Z 1009acaf f   mfc140:mfc140.dll
 0001:00099cb5       ?GetSubItemRect@CListCtrl@@QBEHHHHAAVCRect@@@Z 1009acb5 f   mfc140:mfc140.dll
 0001:00099cbb       ?InsertItem@CListCtrl@@QAEHIHPBDIIHJ@Z 1009acbb f   mfc140:mfc140.dll
 0001:00099cc1       ?DDX_Control@@YGXPAVCDataExchange@@HAAVCWnd@@@Z 1009acc1 f   mfc140:mfc140.dll
 0001:00099cc7       ?SetDlgItemTextA@CWnd@@QAEXHPBD@Z 1009acc7 f   mfc140:mfc140.dll
 0001:00099ccd       ?DDX_Check@@YGXPAVCDataExchange@@HAAH@Z 1009accd f   mfc140:mfc140.dll
 0001:00099cd3       ?IsWindowEnabled@CWnd@@QBEHXZ 1009acd3 f   mfc140:mfc140.dll
 0001:00099cd9       ?UpdateData@CWnd@@QAEHH@Z  1009acd9 f   mfc140:mfc140.dll
 0001:00099cdf       ?GetRuntimeClass@CDateTimeCtrl@@UBEPAUCRuntimeClass@@XZ 1009acdf f   mfc140:mfc140.dll
 0001:00099ce5       ?Create@CDateTimeCtrl@@UAEHKABUtagRECT@@PAVCWnd@@I@Z 1009ace5 f   mfc140:mfc140.dll
 0001:00099ceb       ?SetTime@CDateTimeCtrl@@QAEHPBVCTime@ATL@@@Z 1009aceb f   mfc140:mfc140.dll
 0001:00099cf1       ?GetTime@CDateTimeCtrl@@QBEKAAVCTime@ATL@@@Z 1009acf1 f   mfc140:mfc140.dll
 0001:00099cf7       ??1CDateTimeCtrl@@UAE@XZ   1009acf7 f   mfc140:mfc140.dll
 0001:00099cfd       ??0CDWordArray@@QAE@XZ     1009acfd f   mfc140:mfc140.dll
 0001:00099d03       ?SetSize@CDWordArray@@QAEXHH@Z 1009ad03 f   mfc140:mfc140.dll
 0001:00099d09       ?SetAtGrow@CDWordArray@@QAEXHK@Z 1009ad09 f   mfc140:mfc140.dll
 0001:00099d0f       ?InsertAt@CDWordArray@@QAEXHKH@Z 1009ad0f f   mfc140:mfc140.dll
 0001:00099d15       ?RemoveAt@CDWordArray@@QAEXHH@Z 1009ad15 f   mfc140:mfc140.dll
 0001:00099d1b       ??1CDWordArray@@UAE@XZ     1009ad1b f   mfc140:mfc140.dll
 0001:00099d21       ?GetRuntimeClass@CComboBox@@UBEPAUCRuntimeClass@@XZ 1009ad21 f   mfc140:mfc140.dll
 0001:00099d27       ?Create@CComboBox@@UAEHKABUtagRECT@@PAVCWnd@@I@Z 1009ad27 f   mfc140:mfc140.dll
 0001:00099d2d       ?GetLBText@CComboBox@@QBEXHAAV?$CStringT@DV?$StrTraitMFC_DLL@DV?$ChTraitsCRT@D@ATL@@@@@ATL@@@Z 1009ad2d f   mfc140:mfc140.dll
 0001:00099d33       ?DrawItem@CComboBox@@UAEXPAUtagDRAWITEMSTRUCT@@@Z 1009ad33 f   mfc140:mfc140.dll
 0001:00099d39       ?MeasureItem@CComboBox@@UAEXPAUtagMEASUREITEMSTRUCT@@@Z 1009ad39 f   mfc140:mfc140.dll
 0001:00099d3f       ?CompareItem@CComboBox@@UAEHPAUtagCOMPAREITEMSTRUCT@@@Z 1009ad3f f   mfc140:mfc140.dll
 0001:00099d45       ?DeleteItem@CComboBox@@UAEXPAUtagDELETEITEMSTRUCT@@@Z 1009ad45 f   mfc140:mfc140.dll
 0001:00099d4b       ??1CComboBox@@UAE@XZ       1009ad4b f   mfc140:mfc140.dll
 0001:00099d51       ?OnChildNotify@CComboBox@@MAEHIIJPAJ@Z 1009ad51 f   mfc140:mfc140.dll
 0001:00099d57       ?Insert@?$CStringT@DV?$StrTraitMFC_DLL@DV?$ChTraitsCRT@D@ATL@@@@@ATL@@QAEHHD@Z 1009ad57 f   mfc140:mfc140.dll
 0001:00099d5d       ?RemoveHead@CStringList@@QAE?AV?$CStringT@DV?$StrTraitMFC_DLL@DV?$ChTraitsCRT@D@ATL@@@@@ATL@@XZ 1009ad5d f   mfc140:mfc140.dll
 0001:00099d63       ?CheckDlgButton@CWnd@@QAEXHI@Z 1009ad63 f   mfc140:mfc140.dll
 0001:00099d69       ?GetDlgItemTextA@CWnd@@QBEHHAAV?$CStringT@DV?$StrTraitMFC_DLL@DV?$ChTraitsCRT@D@ATL@@@@@ATL@@@Z 1009ad69 f   mfc140:mfc140.dll
 0001:00099d6f       ?IsDlgButtonChecked@CWnd@@QBEIH@Z 1009ad6f f   mfc140:mfc140.dll
 0001:00099d75       ?OnPaint@CDialog@@IAEXXZ   1009ad75 f   mfc140:mfc140.dll
 0001:00099d7b       ?GetRuntimeClass@CSpinButtonCtrl@@UBEPAUCRuntimeClass@@XZ 1009ad7b f   mfc140:mfc140.dll
 0001:00099d81       ?Create@CSpinButtonCtrl@@UAEHKABUtagRECT@@PAVCWnd@@I@Z 1009ad81 f   mfc140:mfc140.dll
 0001:00099d87       ?CreateEx@CSpinButtonCtrl@@UAEHKKABUtagRECT@@PAVCWnd@@I@Z 1009ad87 f   mfc140:mfc140.dll
 0001:00099d8d       ??1CSpinButtonCtrl@@UAE@XZ 1009ad8d f   mfc140:mfc140.dll
 0001:00099d93       ??0?$CStringT@DV?$StrTraitMFC_DLL@DV?$ChTraitsCRT@D@ATL@@@@@ATL@@QAE@PBDH@Z 1009ad93 f   mfc140:mfc140.dll
 0001:00099d99       ??0CPtrList@@QAE@H@Z       1009ad99 f   mfc140:mfc140.dll
 0001:00099d9f       ??1CPtrList@@UAE@XZ        1009ad9f f   mfc140:mfc140.dll
 0001:00099da5       ??0CMapStringToString@@QAE@H@Z 1009ada5 f   mfc140:mfc140.dll
 0001:00099dab       ?Lookup@CMapStringToString@@QBEHPBDAAV?$CStringT@DV?$StrTraitMFC_DLL@DV?$ChTraitsCRT@D@ATL@@@@@ATL@@@Z 1009adab f   mfc140:mfc140.dll
 0001:00099db1       ??ACMapStringToString@@QAEAAV?$CStringT@DV?$StrTraitMFC_DLL@DV?$ChTraitsCRT@D@ATL@@@@@ATL@@PBD@Z 1009adb1 f   mfc140:mfc140.dll
 0001:00099db7       ?RemoveKey@CMapStringToString@@QAEHPBD@Z 1009adb7 f   mfc140:mfc140.dll
 0001:00099dbd       ??1CMapStringToString@@UAE@XZ 1009adbd f   mfc140:mfc140.dll
 0001:00099dc3       ?EnableAutomation@CCmdTarget@@QAEXXZ 1009adc3 f   mfc140:mfc140.dll
 0001:00099dc9       ?GetThisDispatchMap@CCmdTarget@@KGPBUAFX_DISPMAP@@XZ 1009adc9 f   mfc140:mfc140.dll
 0001:00099dcf       ?GetThisInterfaceMap@CWnd@@KGPBUAFX_INTERFACEMAP@@XZ 1009adcf f   mfc140:mfc140.dll
 0001:00099dd5       ?AfxEnableControlContainer@@YAXPAVCOccManager@@@Z 1009add5 f   mfc140:mfc140.dll
 0001:00099ddb       ?Delete@CException@@QAEXXZ 1009addb f   mfc140:mfc140.dll
 0001:00099de1       ?MakeUpper@?$CStringT@DV?$StrTraitMFC_DLL@DV?$ChTraitsCRT@D@ATL@@@@@ATL@@QAEAAV12@XZ 1009ade1 f   mfc140:mfc140.dll
 0001:00099de7       ?Copy@CStringArray@@QAEXABV1@@Z 1009ade7 f   mfc140:mfc140.dll
 0001:00099ded       ?InsertItem@CTreeCtrl@@QAEPAU_TREEITEM@@IPBDHHIIJPAU2@1@Z 1009aded f   mfc140:mfc140.dll
 0001:00099df3       ?GetCheck@CListCtrl@@QBEHH@Z 1009adf3 f   mfc140:mfc140.dll
 0001:00099df9       ??0CUIntArray@@QAE@XZ      1009adf9 f   mfc140:mfc140.dll
 0001:00099dff       ?SetAtGrow@CUIntArray@@QAEXHI@Z 1009adff f   mfc140:mfc140.dll
 0001:00099e05       ??1CUIntArray@@UAE@XZ      1009ae05 f   mfc140:mfc140.dll
 0001:00099e0b       ?RemoveAt@CStringList@@QAEXPAU__POSITION@@@Z 1009ae0b f   mfc140:mfc140.dll
 0001:00099e11       ??$SerializeElements@V?$CStringT@DV?$StrTraitMFC_DLL@DV?$ChTraitsCRT@D@ATL@@@@@ATL@@@@YGXAAVCArchive@@PAV?$CStringT@DV?$StrTraitMFC_DLL@DV?$ChTraitsCRT@D@ATL@@@@@ATL@@H@Z 1009ae11 f   mfc140:mfc140.dll
 0001:00099e17       ??$HashKey@PBD@@YGIPBD@Z   1009ae17 f   mfc140:mfc140.dll
 0001:00099e1d       ?GetItemText@CListCtrl@@QBEHHHPADH@Z 1009ae1d f   mfc140:mfc140.dll
 0001:00099e23       ?ClientToScreen@CWnd@@QBEXPAUtagRECT@@@Z 1009ae23 f   mfc140:mfc140.dll
 0001:00099e29       ?GetRuntimeClass@CTabCtrl@@UBEPAUCRuntimeClass@@XZ 1009ae29 f   mfc140:mfc140.dll
 0001:00099e2f       ?Create@CTabCtrl@@UAEHKABUtagRECT@@PAVCWnd@@I@Z 1009ae2f f   mfc140:mfc140.dll
 0001:00099e35       ?CreateEx@CTabCtrl@@UAEHKKABUtagRECT@@PAVCWnd@@I@Z 1009ae35 f   mfc140:mfc140.dll
 0001:00099e3b       ?OnChildNotify@CTabCtrl@@MAEHIIJPAJ@Z 1009ae3b f   mfc140:mfc140.dll
 0001:00099e41       ?OnDestroy@CTabCtrl@@IAEXXZ 1009ae41 f   mfc140:mfc140.dll
 0001:00099e47       ?DrawDragRect@CDC@@QAEXPBUtagRECT@@UtagSIZE@@01PAVCBrush@@2@Z 1009ae47 f   mfc140:mfc140.dll
 0001:00099e4d       ?UnsubclassWindow@CWnd@@QAEPAUHWND__@@XZ 1009ae4d f   mfc140:mfc140.dll
 0001:00099e53       ?RemoveAll@CMapStringToString@@QAEXXZ 1009ae53 f   mfc140:mfc140.dll
 0001:00099e59       ?GetThisClass@CDialog@@SGPAUCRuntimeClass@@XZ 1009ae59 f   mfc140:mfc140.dll
 0001:00099e5f       ?GetThisClass@CFrameWnd@@SGPAUCRuntimeClass@@XZ 1009ae5f f   mfc140:mfc140.dll
 0001:00099e65       ?GetThisClass@CEdit@@SGPAUCRuntimeClass@@XZ 1009ae65 f   mfc140:mfc140.dll
 0001:00099e6b       ?GetThisClass@CComboBox@@SGPAUCRuntimeClass@@XZ 1009ae6b f   mfc140:mfc140.dll
 0001:00099e71       ?FromHandlePermanent@CWnd@@SGPAV1@PAUHWND__@@@Z 1009ae71 f   mfc140:mfc140.dll
 0001:00099e77       ?Attach@CWnd@@QAEHPAUHWND__@@@Z 1009ae77 f   mfc140:mfc140.dll
 0001:00099e7d       ?Detach@CWnd@@QAEPAUHWND__@@XZ 1009ae7d f   mfc140:mfc140.dll
 0001:00099e83       ?GetWindowPlacement@CWnd@@QBEHPAUtagWINDOWPLACEMENT@@@Z 1009ae83 f   mfc140:mfc140.dll
 0001:00099e89       ?SetWindowPlacement@CWnd@@QAEHPBUtagWINDOWPLACEMENT@@@Z 1009ae89 f   mfc140:mfc140.dll
 0001:00099e8f       ?ModifyStyleEx@CWnd@@SGHPAUHWND__@@KKI@Z 1009ae8f f   mfc140:mfc140.dll
 0001:00099e95       ?EnableToolTips@CWnd@@QAEHH@Z 1009ae95 f   mfc140:mfc140.dll
 0001:00099e9b       ??0CDialog@@QAE@XZ         1009ae9b f   mfc140:mfc140.dll
 0001:00099ea1       ?AfxLoadLibrary@@YGPAUHINSTANCE__@@PBD@Z 1009aea1 f   mfc140:mfc140.dll
 0001:00099ea7       ?AfxFreeLibrary@@YGHPAUHINSTANCE__@@@Z 1009aea7 f   mfc140:mfc140.dll
 0001:00099ead       ?DrawItem@CTabCtrl@@UAEXPAUtagDRAWITEMSTRUCT@@@Z 1009aead f   mfc140:mfc140.dll
 0001:00099eb3       ??1CTabCtrl@@UAE@XZ        1009aeb3 f   mfc140:mfc140.dll
 0001:00099eb9       ?GetThisMessageMap@CTabCtrl@@KGPBUAFX_MSGMAP@@XZ 1009aeb9 f   mfc140:mfc140.dll
 0001:00099ebf       ?GetMessageMap@CTabCtrl@@MBEPBUAFX_MSGMAP@@XZ 1009aebf f   mfc140:mfc140.dll
 0001:00099ec5       ?RemoveKey@CMapPtrToPtr@@QAEHPAX@Z 1009aec5 f   mfc140:mfc140.dll
 0001:00099ecb       ??2CNoTrackObject@@SGPAXI@Z 1009aecb f   mfc140:mfc140.dll
 0001:00099ed1       ??3CNoTrackObject@@SGXPAX@Z 1009aed1 f   mfc140:mfc140.dll
 0001:00099ed7       ?GetData@CThreadLocalObject@@QAEPAVCNoTrackObject@@P6GPAV2@XZ@Z 1009aed7 f   mfc140:mfc140.dll
 0001:00099edd       ??0AFX_MODULE_THREAD_STATE@@QAE@XZ 1009aedd f   mfc140:mfc140.dll
 0001:00099ee3       ?AfxGetAppModuleState@@YGPAVAFX_MODULE_STATE@@XZ 1009aee3 f   mfc140:mfc140.dll
 0001:00099ee9       ?GetThisClass@CStatic@@SGPAUCRuntimeClass@@XZ 1009aee9 f   mfc140:mfc140.dll
 0001:00099eef       ?GetThisClass@CButton@@SGPAUCRuntimeClass@@XZ 1009aeef f   mfc140:mfc140.dll
 0001:00099ef5       ?FlushClipboard@COleDataSource@@SGXXZ 1009aef5 f   mfc140:mfc140.dll
 0001:00099efb       ?GetClipboardOwner@COleDataSource@@SGPAV1@XZ 1009aefb f   mfc140:mfc140.dll
 0001:00099f01       ??$AtlAdd@H@ATL@@YAJPAHHH@Z 1009af01 f i mfcs140:nolib.obj
 0001:00099f27       ??$AtlAdd@I@ATL@@YAJPAIII@Z 1009af27 f i mfcs140:nolib.obj
 0001:00099f4a       ??$AtlAdd@K@ATL@@YAJPAKKK@Z 1009af4a f i mfcs140:nolib.obj
 0001:00099f6d       ??$AtlAlignUp@H@ATL@@YGHHK@Z 1009af6d f i mfcs140:nolib.obj
 0001:00099f81       ??$AtlMultiply@I@ATL@@YAJPAIII@Z 1009af81 f i mfcs140:nolib.obj
 0001:00099fa3       ??$AtlMultiply@K@ATL@@YAJPAKKK@Z 1009afa3 f i mfcs140:nolib.obj
 0001:00099fc5       ??0?$CSimpleArray@GV?$CSimpleArrayEqualHelper@G@ATL@@@ATL@@QAE@XZ 1009afc5 f i mfcs140:nolib.obj
 0001:00099fd2       ??0?$CTraceCategoryEx@$00$0A@@ATL@@QAE@PBD@Z 1009afd2 f i mfcs140:nolib.obj
 0001:00099fd7       ??0?$CTraceCategoryEx@$01$0A@@ATL@@QAE@PBD@Z 1009afd7 f i mfcs140:nolib.obj
 0001:00099fdc       ??0?$CTraceCategoryEx@$03$0A@@ATL@@QAE@PBD@Z 1009afdc f i mfcs140:nolib.obj
 0001:00099fe1       ??0?$CTraceCategoryEx@$07$0A@@ATL@@QAE@PBD@Z 1009afe1 f i mfcs140:nolib.obj
 0001:00099fe6       ??0?$CTraceCategoryEx@$0BA@$0A@@ATL@@QAE@PBD@Z 1009afe6 f i mfcs140:nolib.obj
 0001:00099feb       ??0?$CTraceCategoryEx@$0BAA@$0A@@ATL@@QAE@PBD@Z 1009afeb f i mfcs140:nolib.obj
 0001:00099ff0       ??0?$CTraceCategoryEx@$0BAAA@$0A@@ATL@@QAE@PBD@Z 1009aff0 f i mfcs140:nolib.obj
 0001:00099ff5       ??0?$CTraceCategoryEx@$0BAAAA@$0A@@ATL@@QAE@PBD@Z 1009aff5 f i mfcs140:nolib.obj
 0001:00099ffa       ??0?$CTraceCategoryEx@$0BAAAAA@$0A@@ATL@@QAE@PBD@Z 1009affa f i mfcs140:nolib.obj
 0001:00099fff       ??0?$CTraceCategoryEx@$0CA@$0A@@ATL@@QAE@PBD@Z 1009afff f i mfcs140:nolib.obj
 0001:0009a004       ??0?$CTraceCategoryEx@$0CAA@$0A@@ATL@@QAE@PBD@Z 1009b004 f i mfcs140:nolib.obj
 0001:0009a009       ??0?$CTraceCategoryEx@$0CAAA@$0A@@ATL@@QAE@PBD@Z 1009b009 f i mfcs140:nolib.obj
 0001:0009a00e       ??0?$CTraceCategoryEx@$0CAAAA@$0A@@ATL@@QAE@PBD@Z 1009b00e f i mfcs140:nolib.obj
 0001:0009a013       ??0?$CTraceCategoryEx@$0CAAAAA@$0A@@ATL@@QAE@PBD@Z 1009b013 f i mfcs140:nolib.obj
 0001:0009a018       ??0?$CTraceCategoryEx@$0EA@$0A@@ATL@@QAE@PBD@Z 1009b018 f i mfcs140:nolib.obj
 0001:0009a01d       ??0?$CTraceCategoryEx@$0EAA@$0A@@ATL@@QAE@PBD@Z 1009b01d f i mfcs140:nolib.obj
 0001:0009a022       ??0?$CTraceCategoryEx@$0EAAA@$0A@@ATL@@QAE@PBD@Z 1009b022 f i mfcs140:nolib.obj
 0001:0009a027       ??0?$CTraceCategoryEx@$0EAAAA@$0A@@ATL@@QAE@PBD@Z 1009b027 f i mfcs140:nolib.obj
 0001:0009a02c       ??0?$CTraceCategoryEx@$0EAAAAA@$0A@@ATL@@QAE@PBD@Z 1009b02c f i mfcs140:nolib.obj
 0001:0009a031       ??0?$CTraceCategoryEx@$0IA@$0A@@ATL@@QAE@PBD@Z 1009b031 f i mfcs140:nolib.obj
 0001:0009a036       ??0?$CTraceCategoryEx@$0IAA@$0A@@ATL@@QAE@PBD@Z 1009b036 f i mfcs140:nolib.obj
 0001:0009a03b       ??0?$CTraceCategoryEx@$0IAAA@$0A@@ATL@@QAE@PBD@Z 1009b03b f i mfcs140:nolib.obj
 0001:0009a040       ??0?$CTraceCategoryEx@$0IAAAA@$0A@@ATL@@QAE@PBD@Z 1009b040 f i mfcs140:nolib.obj
 0001:0009a045       ??0CAtlComModule@ATL@@QAE@XZ 1009b045 f i mfcs140:nolib.obj
 0001:0009a084       ??0CAtlStringMgr@ATL@@QAE@PAUIAtlMemMgr@1@@Z 1009b084 f i mfcs140:nolib.obj
 0001:0009a0b0       ??0CAtlStringMgrStaticInitializer@ATLImplementationDetails@ATL@@QAE@XZ 1009b0b0 f i mfcs140:nolib.obj
 0001:0009a0bc       ??0CAtlWinModule@ATL@@QAE@XZ 1009b0bc f i mfcs140:nolib.obj
 0001:0009a0ea       ??0CComCriticalSection@ATL@@QAE@XZ 1009b0ea f i mfcs140:nolib.obj
 0001:0009a0fe       ??0CNilStringData@ATL@@QAE@XZ 1009b0fe f i mfcs140:nolib.obj
 0001:0009a115       ??0CWin32Heap@ATL@@QAE@PAX@Z 1009b115 f i mfcs140:nolib.obj
 0001:0009a12e       ??0_ATL_COM_MODULE70@ATL@@QAE@XZ 1009b12e f i mfcs140:nolib.obj
 0001:0009a145       ??0_ATL_WIN_MODULE70@ATL@@QAE@XZ 1009b145 f i mfcs140:nolib.obj
 0001:0009a170       ??1?$CSimpleArray@GV?$CSimpleArrayEqualHelper@G@ATL@@@ATL@@QAE@XZ 1009b170 f i mfcs140:nolib.obj
 0001:0009a175       ??1CAtlComModule@ATL@@QAE@XZ 1009b175 f i mfcs140:nolib.obj
 0001:0009a1ae       ??1CAtlWinModule@ATL@@QAE@XZ 1009b1ae f i mfcs140:nolib.obj
 0001:0009a1c6       ??1CComBSTR@ATL@@QAE@XZ    1009b1c6 f i mfcs140:nolib.obj
 0001:0009a1cf       ??1CComCriticalSection@ATL@@QAE@XZ 1009b1cf f i mfcs140:nolib.obj
 0001:0009a1d2       ??1_ATL_COM_MODULE70@ATL@@QAE@XZ 1009b1d2 f i mfcs140:nolib.obj
 0001:0009a1d5       ??1_ATL_WIN_MODULE70@ATL@@QAE@XZ 1009b1d5 f i mfcs140:nolib.obj
 0001:0009a1dd       ??A?$CSimpleArray@GV?$CSimpleArrayEqualHelper@G@ATL@@@ATL@@QAEAAGH@Z 1009b1dd f i mfcs140:nolib.obj
 0001:0009a202       ?AddRef@CStringData@ATL@@QAEXXZ 1009b202 f i mfcs140:nolib.obj
 0001:0009a207       ?AtlWinModuleInit@ATL@@YGJPAU_ATL_WIN_MODULE70@1@@Z 1009b207 f i mfcs140:nolib.obj
 0001:0009a22d       ?AtlWinModuleTerm@ATL@@YGJPAU_ATL_WIN_MODULE70@1@PAUHINSTANCE__@@@Z 1009b22d f i mfcs140:nolib.obj
 0001:0009a28f       ?GetInstance@CAtlStringMgr@ATL@@SAPAUIAtlStringMgr@2@XZ 1009b28f f i mfcs140:nolib.obj
 0001:0009a2f9       ?GetModuleInstance@CAtlBaseModule@ATL@@QAEPAUHINSTANCE__@@XZ 1009b2f9 f i mfcs140:nolib.obj
 0001:0009a2fd       ?GetSize@?$CSimpleArray@GV?$CSimpleArrayEqualHelper@G@ATL@@@ATL@@QBEHXZ 1009b2fd f i mfcs140:nolib.obj
 0001:0009a301       ?Init@CComCriticalSection@ATL@@QAEJXZ 1009b301 f i mfcs140:nolib.obj
 0001:0009a329       ?RemoveAll@?$CSimpleArray@GV?$CSimpleArrayEqualHelper@G@ATL@@@ATL@@QAEXXZ 1009b329 f i mfcs140:nolib.obj
 0001:0009a347       ?SetManager@CNilStringData@ATL@@QAEXPAUIAtlStringMgr@2@@Z 1009b347 f i mfcs140:nolib.obj
 0001:0009a353       ?Term@CAtlComModule@ATL@@QAEXXZ 1009b353 f i mfcs140:nolib.obj
 0001:0009a3b2       ?Term@CAtlWinModule@ATL@@QAEXXZ 1009b3b2 f i mfcs140:nolib.obj
 0001:0009a3bf       ?Term@CComCriticalSection@ATL@@QAEJXZ 1009b3bf f i mfcs140:nolib.obj
 0001:0009a3c9       _HRESULT_FROM_WIN32        1009b3c9 f i mfcs140:nolib.obj
 0001:0009a3dd       _IsolationAwareActivateActCtx@8 1009b3dd f i mfcs140:nolib.obj
 0001:0009a420       _IsolationAwareCreateActCtxW@4 1009b420 f i mfcs140:nolib.obj
 0001:0009a465       _IsolationAwareDeactivateActCtx@8 1009b465 f i mfcs140:nolib.obj
 0001:0009a4a8       _IsolationAwareFindActCtxSectionStringW@20 1009b4a8 f i mfcs140:nolib.obj
 0001:0009a4f4       _IsolationAwarePrivatenPgViNgRzlnPgpgk@4 1009b4f4 f i mfcs140:nolib.obj
 0001:0009a56f       _IsolationAwarePrivatezltRgCebPnQQeRff@12 1009b56f f i mfcs140:nolib.obj
 0001:0009a5ad       _IsolationAwarePrivatezltRgzbQhYRuNaQYRJ@4 1009b5ad f i mfcs140:nolib.obj
 0001:0009a5b7       _IsolationAwarePrivatezltRgzbQhYRuNaQYRn@4 1009b5b7 f i mfcs140:nolib.obj
 0001:0009a5c1       _IsolationAwareQueryActCtxW@28 1009b5c1 f i mfcs140:nolib.obj
 0001:0009a613       _IsolationAwareUnregisterClassA@8 1009b613 f i mfcs140:nolib.obj
 0001:0009a6bd       _WinbaseIsolationAwarePrivatetRgCebPnQQeRff_xReaRYQP_QYY@4 1009b6bd f i mfcs140:nolib.obj
 0001:0009a6d6       _WinbaseIsolationAwarePrivatetRgzlnPgpgk@0 1009b6d6 f i mfcs140:nolib.obj
 0001:0009a8a2       _RawDllMain@12             1009b8a2 f   mfcs140:dllmodul.obj
 0001:0009a8f5       ??0_AFX_DLL_MODULE_STATE@@QAE@XZ 1009b8f5 f i mfcs140:dllmodul.obj
 0001:0009a91d       ??1_AFX_DLL_MODULE_STATE@@UAE@XZ 1009b91d f i mfcs140:dllmodul.obj
 0001:0009a922       ??_E_AFX_DLL_MODULE_STATE@@UAEPAXI@Z 1009b922 f i mfcs140:dllmodul.obj
 0001:0009a922       ??_G_AFX_DLL_MODULE_STATE@@UAEPAXI@Z 1009b922 f i mfcs140:dllmodul.obj
 0001:0009a955       ?AfxGetStaticModuleState@@YGPAVAFX_MODULE_STATE@@XZ 1009b955 f   mfcs140:dllmodul.obj
 0001:0009a95b       ?AfxWndProcDllStatic@@YGJPAUHWND__@@IIJ@Z 1009b95b f   mfcs140:dllmodul.obj
 0001:0009a9a2       _DllMain@12                1009b9a2 f   mfcs140:dllmodul.obj
 0001:0009a9eb       _InternalDllMain@12        1009b9eb f   mfcs140:dllmodul.obj
 0001:0009ab71       ??2CObject@@SGPAXI@Z       1009bb71 f i mfcs140:dllmodulx.obj
 0001:0009ab81       ?AfxGetApp@@YGPAVCWinApp@@XZ 1009bb81 f i mfcs140:dllmodulx.obj
 0001:0009ab8a       __AfxDllModulHelper        1009bb8a f   mfcs140:dllmodulx.obj
 0001:0009abd7       ??_M@YGXPAXIHP6EX0@Z@Z     1009bbd7 f   msvcrt:ehvecdtr.obj
 0001:0009abdc       ??_M@YGXPAXIIP6EX0@Z@Z     1009bbdc f   msvcrt:ehvecdtr.obj
 0001:0009ac90       ?__ArrayUnwind@@YGXPAXIIP6EX0@Z@Z 1009bc90 f   msvcrt:ehvecdtr.obj
 0001:0009ad20       ??3@YAXPAXI@Z              1009bd20 f   msvcrt:delete_scalar_size.obj
 0001:0009ad2e       ??_V@YAXPAXI@Z             1009bd2e f   msvcrt:delete_array_size.obj
 0001:0009ad3c       ?configure_argv@__scrt_narrow_argv_policy@@SAHXZ 1009bd3c f i msvcrt:utility.obj
 0001:0009ad8d       ?initialize_environment@__scrt_narrow_environment_policy@@SAHXZ 1009bd8d f i msvcrt:utility.obj
 0001:0009adc6       _NtCurrentTeb              1009bdc6 f i msvcrt:utility.obj
 0001:0009adcd       ___scrt_acquire_startup_lock 1009bdcd f   msvcrt:utility.obj
 0001:0009adff       ___scrt_dllmain_after_initialize_c 1009bdff f   msvcrt:utility.obj
 0001:0009ae2a       ___scrt_dllmain_before_initialize_c 1009be2a f   msvcrt:utility.obj
 0001:0009ae38       ___scrt_dllmain_crt_thread_attach 1009be38 f   msvcrt:utility.obj
 0001:0009ae57       ___scrt_dllmain_crt_thread_detach 1009be57 f   msvcrt:utility.obj
 0001:0009ae64       ___scrt_dllmain_exception_filter 1009be64 f   msvcrt:utility.obj
 0001:0009ae98       ___scrt_dllmain_uninitialize_c 1009be98 f   msvcrt:utility.obj
 0001:0009aebb       ___scrt_dllmain_uninitialize_critical 1009bebb f   msvcrt:utility.obj
 0001:0009aec8       ___scrt_initialize_crt     1009bec8 f   msvcrt:utility.obj
 0001:0009af01       ___scrt_initialize_onexit_tables 1009bf01 f   msvcrt:utility.obj
 0001:0009af88       ___scrt_is_nonwritable_in_current_image 1009bf88 f   msvcrt:utility.obj
 0001:0009b01c       ___scrt_release_startup_lock 1009c01c f   msvcrt:utility.obj
 0001:0009b039       ___scrt_uninitialize_crt   1009c039 f   msvcrt:utility.obj
 0001:0009b061       __onexit                   1009c061 f   msvcrt:utility.obj
 0001:0009b08e       _at_quick_exit             1009c08e f   msvcrt:utility.obj
 0001:0009b0b1       _atexit                    1009c0b1 f   msvcrt:utility.obj
 0001:0009b0c6       @__security_check_cookie@4 1009c0c6 f   msvcrt:secchk.obj
 0001:0009b0d4       ??1type_info@@UAE@XZ       1009c0d4 f   msvcrt:std_type_info_static.obj
 0001:0009b0db       ??_Gtype_info@@UAEPAXI@Z   1009c0db f i msvcrt:std_type_info_static.obj
 0001:0009b0db       ??_Etype_info@@UAEPAXI@Z   1009c0db f i msvcrt:std_type_info_static.obj
 0001:0009b100       __alloca_probe_16          1009c100 f   msvcrt:alloca16.obj
 0001:0009b116       __alloca_probe_8           1009c116     msvcrt:alloca16.obj
 0001:0009b12c       ??_L@YGXPAXIHP6EX0@Z1@Z    1009c12c f   msvcrt:ehvecctr.obj
 0001:0009b131       ??_L@YGXPAXIIP6EX0@Z1@Z    1009c131 f   msvcrt:ehvecctr.obj
 0001:0009b26a       __Init_thread_abort        1009c26a f   msvcrt:thread_safe_statics.obj
 0001:0009b28e       __Init_thread_footer       1009c28e f   msvcrt:thread_safe_statics.obj
 0001:0009b2d8       __Init_thread_header       1009c2d8 f   msvcrt:thread_safe_statics.obj
 0001:0009b32a       __Init_thread_lock         1009c32a f   msvcrt:thread_safe_statics.obj
 0001:0009b336       __Init_thread_notify       1009c336 f   msvcrt:thread_safe_statics.obj
 0001:0009b36c       __Init_thread_unlock       1009c36c f   msvcrt:thread_safe_statics.obj
 0001:0009b378       __Init_thread_wait         1009c378 f   msvcrt:thread_safe_statics.obj
 0001:0009b706       __CRT_INIT@12              1009c706 f   msvcrt:dll_dllmain.obj
 0001:0009b70f       __DllMainCRTStartup@12     1009c70f f   msvcrt:dll_dllmain.obj
 0001:0009b732       __EH_epilog3               1009c732 f   msvcrt:ehprolg3.obj
 0001:0009b746       __EH_epilog3_GS            1009c746 f   msvcrt:ehprolg3.obj
 0001:0009b755       __EH_epilog3_catch_GS      1009c755 f   msvcrt:ehprolg3.obj
 0001:0009b764       __EH_prolog3               1009c764 f   msvcrt:ehprolg3.obj
 0001:0009b797       __EH_prolog3_GS            1009c797 f   msvcrt:ehprolg3.obj
 0001:0009b7cd       __EH_prolog3_catch         1009c7cd f   msvcrt:ehprolg3.obj
 0001:0009b803       __EH_prolog3_catch_GS      1009c803 f   msvcrt:ehprolg3.obj
 0001:0009b840       __SEH_prolog4              1009c840 f   msvcrt:sehprolg4.obj
 0001:0009b890       __SEH_epilog4              1009c890 f   msvcrt:sehprolg4.obj
 0001:0009b8b0       __SEH_prolog4_GS           1009c8b0 f   msvcrt:sehprolg4gs.obj
 0001:0009b900       __SEH_epilog4_GS           1009c900 f   msvcrt:sehprolg4gs.obj
 0001:0009b90f       __except_handler4          1009c90f f   msvcrt:chandler4gs.obj
 0001:0009b93e       @_guard_check_icall_nop@4  1009c93e f i msvcrt:guard_support.obj
 0001:0009b941       _ReadNoFence               1009c941 f i msvcrt:guard_support.obj
 0001:0009b94b       _ReadPointerNoFence        1009c94b f i msvcrt:guard_support.obj
 0001:0009b955       ___castguard_check_failure_debugbreak 1009c955 f i msvcrt:guard_support.obj
 0001:0009b970       ___castguard_check_failure_fastfail 1009c970 f i msvcrt:guard_support.obj
 0001:0009b98f       ___castguard_check_failure_nop 1009c98f f i msvcrt:guard_support.obj
 0001:0009b992       ___castguard_check_failure_os_handled 1009c992 f i msvcrt:guard_support.obj
 0001:0009b9e6       ___castguard_slow_path_check_debugbreak 1009c9e6 f i msvcrt:guard_support.obj
 0001:0009ba13       ___castguard_slow_path_check_fastfail 1009ca13 f i msvcrt:guard_support.obj
 0001:0009ba44       ___castguard_slow_path_check_nop 1009ca44 f i msvcrt:guard_support.obj
 0001:0009ba47       ___castguard_slow_path_check_os_handled 1009ca47 f i msvcrt:guard_support.obj
 0001:0009baad       __guard_icall_checks_enforced 1009caad f i msvcrt:guard_support.obj
 0001:0009babf       ___isa_available_init      1009cabf f   msvcrt:cpu_disp.obj
 0001:0009bc90       __get_startup_argv_mode    1009cc90 f   msvcrt:argv_mode.obj
 0001:0009bc94       ___scrt_is_ucrt_dll_in_use 1009cc94 f   msvcrt:ucrt_detection.obj
 0001:0009bca0       ___scrt_fastfail           1009cca0 f   msvcrt:utility_desktop.obj
 0001:0009bdbb       ___scrt_get_show_window_mode 1009cdbb f   msvcrt:utility_desktop.obj
 0001:0009bdec       ___scrt_initialize_mta     1009cdec f   msvcrt:utility_desktop.obj
 0001:0009bdf1       ___scrt_initialize_winrt   1009cdf1 f   msvcrt:utility_desktop.obj
 0001:0009bdf4       ___scrt_is_managed_app     1009cdf4 f   msvcrt:utility_desktop.obj
 0001:0009be37       ___scrt_set_unhandled_exception_filter 1009ce37 f   msvcrt:utility_desktop.obj
 0001:0009be43       ___scrt_exe_initialize_mta 1009ce43 f   msvcrt:utility_desktop.obj
 0001:0009be43       ___scrt_stub_for_initialize_mta 1009ce43 f   msvcrt:utility_desktop.obj
 0001:0009be46       ___scrt_unhandled_exception_filter@4 1009ce46 f   msvcrt:utility_desktop.obj
 0001:0009be9c       __crt_debugger_hook        1009ce9c f   msvcrt:utility_desktop.obj
 0001:0009bea4       ___raise_securityfailure   1009cea4 f   msvcrt:gs_report.obj
 0001:0009becc       ___report_gsfailure        1009cecc f   msvcrt:gs_report.obj
 0001:0009bfc6       ___report_rangecheckfailure 1009cfc6 f   msvcrt:gs_report.obj
 0001:0009bfd3       ___report_securityfailure  1009cfd3 f   msvcrt:gs_report.obj
 0001:0009c0a2       ___report_securityfailureEx 1009d0a2 f   msvcrt:gs_report.obj
 0001:0009c1c0       __alloca_probe             1009d1c0 f   msvcrt:chkstk.obj
 0001:0009c1c0       __chkstk                   1009d1c0 f   msvcrt:chkstk.obj
 0001:0009c238       ___security_init_cookie    1009d238 f   msvcrt:gs_support.obj
 0001:0009c283       ?__scrt_initialize_type_info@@YAXXZ 1009d283 f   msvcrt:tncleanup.obj
 0001:0009c28f       ?__scrt_uninitialize_type_info@@YAXXZ 1009d28f f   msvcrt:tncleanup.obj
 0001:0009c29b       ___scrt_initialize_default_local_stdio_options 1009d29b f   msvcrt:default_local_stdio_options.obj
 0001:0009c2b8       ___scrt_get_dyn_tls_init_callback 1009d2b8 f   msvcrt:dyn_tls_init.obj
 0001:0009c2be       __RTC_Initialize           1009d2be f   msvcrt:initsect.obj
 0001:0009c2ea       __RTC_Terminate            1009d2ea f   msvcrt:initsect.obj
 0001:0009c316       _RaiseException@16         1009d316 f   kernel32:KERNEL32.dll
 0001:0009c31c       _GetLastError@0            1009d31c f   kernel32:KERNEL32.dll
 0001:0009c322       _InitializeCriticalSectionEx@12 1009d322 f   kernel32:KERNEL32.dll
 0001:0009c328       _DeleteCriticalSection@4   1009d328 f   kernel32:KERNEL32.dll
 0001:0009c32e       _FreeLibrary@4             1009d32e f   kernel32:KERNEL32.dll
 0001:0009c334       _GetProcAddress@8          1009d334 f   kernel32:KERNEL32.dll
 0001:0009c33a       _LoadLibraryA@4            1009d33a f   kernel32:KERNEL32.dll
 0001:0009c340       _GetVersion@0              1009d340 f   kernel32:KERNEL32.dll
 0001:0009c346       _GetVersionExA@4           1009d346 f   kernel32:KERNEL32.dll
 0001:0009c34c       _LoadResource@8            1009d34c f   kernel32:KERNEL32.dll
 0001:0009c352       _LockResource@4            1009d352 f   kernel32:KERNEL32.dll
 0001:0009c358       _lstrcmpiA@8               1009d358 f   kernel32:KERNEL32.dll
 0001:0009c35e       _lstrlenA@4                1009d35e f   kernel32:KERNEL32.dll
 0001:0009c364       _FindResourceA@12          1009d364 f   kernel32:KERNEL32.dll
 0001:0009c36a       _MultiByteToWideChar@24    1009d36a f   kernel32:KERNEL32.dll
 0001:0009c370       _WideCharToMultiByte@32    1009d370 f   kernel32:KERNEL32.dll
 0001:0009c376       _GetCPInfo@8               1009d376 f   kernel32:KERNEL32.dll
 0001:0009c37c       _GetSystemTime@4           1009d37c f   kernel32:KERNEL32.dll
 0001:0009c382       _GetModuleHandleA@4        1009d382 f   kernel32:KERNEL32.dll
 0001:0009c388       _GetWindowsDirectoryA@8    1009d388 f   kernel32:KERNEL32.dll
 0001:0009c38e       _GetLongPathNameA@12       1009d38e f   kernel32:KERNEL32.dll
 0001:0009c394       _GetModuleFileNameA@12     1009d394 f   kernel32:KERNEL32.dll
 0001:0009c39a       _GetPrivateProfileStringA@24 1009d39a f   kernel32:KERNEL32.dll
 0001:0009c3a0       _GlobalAlloc@8             1009d3a0 f   kernel32:KERNEL32.dll
 0001:0009c3a6       _GlobalFree@4              1009d3a6 f   kernel32:KERNEL32.dll
 0001:0009c3ac       _GetEnvironmentVariableA@12 1009d3ac f   kernel32:KERNEL32.dll
 0001:0009c3b2       _OutputDebugStringA@4      1009d3b2 f   kernel32:KERNEL32.dll
 0001:0009c3b8       _lstrcmpA@8                1009d3b8 f   kernel32:KERNEL32.dll
 0001:0009c3be       _GetPrivateProfileIntA@16  1009d3be f   kernel32:KERNEL32.dll
 0001:0009c3c4       _WritePrivateProfileStringA@16 1009d3c4 f   kernel32:KERNEL32.dll
 0001:0009c3ca       _DeleteFileA@4             1009d3ca f   kernel32:KERNEL32.dll
 0001:0009c3d0       _lstrcpyA@8                1009d3d0 f   kernel32:KERNEL32.dll
 0001:0009c3d6       _Sleep@4                   1009d3d6 f   kernel32:KERNEL32.dll
 0001:0009c3dc       _lstrcpynA@12              1009d3dc f   kernel32:KERNEL32.dll
 0001:0009c3e2       _DecodePointer@4           1009d3e2 f   kernel32:KERNEL32.dll
 0001:0009c3e8       _HeapDestroy@4             1009d3e8 f   kernel32:KERNEL32.dll
 0001:0009c3ee       _HeapAlloc@12              1009d3ee f   kernel32:KERNEL32.dll
 0001:0009c3f4       _HeapReAlloc@16            1009d3f4 f   kernel32:KERNEL32.dll
 0001:0009c3fa       _HeapFree@12               1009d3fa f   kernel32:KERNEL32.dll
 0001:0009c400       _HeapSize@12               1009d400 f   kernel32:KERNEL32.dll
 0001:0009c406       _GetProcessHeap@0          1009d406 f   kernel32:KERNEL32.dll
 0001:0009c40c       _CopyFileA@12              1009d40c f   kernel32:KERNEL32.dll
 0001:0009c412       _SetLastError@4            1009d412 f   kernel32:KERNEL32.dll
 0001:0009c418       _InitializeCriticalSectionAndSpinCount@8 1009d418 f   kernel32:KERNEL32.dll
 0001:0009c41e       _GetModuleFileNameW@12     1009d41e f   kernel32:KERNEL32.dll
 0001:0009c424       _GetModuleHandleW@4        1009d424 f   kernel32:KERNEL32.dll
 0001:0009c42a       _LoadLibraryW@4            1009d42a f   kernel32:KERNEL32.dll
 0001:0009c430       _LocalAlloc@8              1009d430 f   kernel32:KERNEL32.dll
 0001:0009c436       _LocalFree@4               1009d436 f   kernel32:KERNEL32.dll
 0001:0009c43c       _CloseHandle@4             1009d43c f   kernel32:KERNEL32.dll
 0001:0009c442       _EnterCriticalSection@4    1009d442 f   kernel32:KERNEL32.dll
 0001:0009c448       _LeaveCriticalSection@4    1009d448 f   kernel32:KERNEL32.dll
 0001:0009c44e       _SetEvent@4                1009d44e f   kernel32:KERNEL32.dll
 0001:0009c454       _ResetEvent@4              1009d454 f   kernel32:KERNEL32.dll
 0001:0009c45a       _WaitForSingleObjectEx@12  1009d45a f   kernel32:KERNEL32.dll
 0001:0009c460       _CreateEventW@16           1009d460 f   kernel32:KERNEL32.dll
 0001:0009c466       _IsProcessorFeaturePresent@4 1009d466 f   kernel32:KERNEL32.dll
 0001:0009c46c       _IsDebuggerPresent@0       1009d46c f   kernel32:KERNEL32.dll
 0001:0009c472       _UnhandledExceptionFilter@4 1009d472 f   kernel32:KERNEL32.dll
 0001:0009c478       _SetUnhandledExceptionFilter@4 1009d478 f   kernel32:KERNEL32.dll
 0001:0009c47e       _GetStartupInfoW@4         1009d47e f   kernel32:KERNEL32.dll
 0001:0009c484       _GetCurrentProcess@0       1009d484 f   kernel32:KERNEL32.dll
 0001:0009c48a       _TerminateProcess@8        1009d48a f   kernel32:KERNEL32.dll
 0001:0009c490       _QueryPerformanceCounter@4 1009d490 f   kernel32:KERNEL32.dll
 0001:0009c496       _GetCurrentProcessId@0     1009d496 f   kernel32:KERNEL32.dll
 0001:0009c49c       _GetCurrentThreadId@0      1009d49c f   kernel32:KERNEL32.dll
 0001:0009c4a2       _GetSystemTimeAsFileTime@4 1009d4a2 f   kernel32:KERNEL32.dll
 0001:0009c4a8       _InitializeSListHead@4     1009d4a8 f   kernel32:KERNEL32.dll
 0001:0009c4ae       _RegisterWindowMessageA@4  1009d4ae f   user32:USER32.dll
 0001:0009c4b4       _SendMessageA@16           1009d4b4 f   user32:USER32.dll
 0001:0009c4ba       _UnregisterClassA@8        1009d4ba f   user32:USER32.dll
 0001:0009c4c0       _IsWindow@4                1009d4c0 f   user32:USER32.dll
 0001:0009c4c6       _EnableWindow@8            1009d4c6 f   user32:USER32.dll
 0001:0009c4cc       _GetClientRect@8           1009d4cc f   user32:USER32.dll
 0001:0009c4d2       _LoadImageA@24             1009d4d2 f   user32:USER32.dll
 0001:0009c4d8       _DrawEdge@16               1009d4d8 f   user32:USER32.dll
 0001:0009c4de       _GetSystemMetrics@4        1009d4de f   user32:USER32.dll
 0001:0009c4e4       _GetMenuState@12           1009d4e4 f   user32:USER32.dll
 0001:0009c4ea       _CreateMenu@0              1009d4ea f   user32:USER32.dll
 0001:0009c4f0       _CreatePopupMenu@0         1009d4f0 f   user32:USER32.dll
 0001:0009c4f6       _GetSubMenu@8              1009d4f6 f   user32:USER32.dll
 0001:0009c4fc       _GetMenuItemID@8           1009d4fc f   user32:USER32.dll
 0001:0009c502       _GetMenuItemCount@4        1009d502 f   user32:USER32.dll
 0001:0009c508       _InsertMenuA@20            1009d508 f   user32:USER32.dll
 0001:0009c50e       _AppendMenuA@16            1009d50e f   user32:USER32.dll
 0001:0009c514       _ModifyMenuA@20            1009d514 f   user32:USER32.dll
 0001:0009c51a       _RemoveMenu@12             1009d51a f   user32:USER32.dll
 0001:0009c520       _DeleteMenu@12             1009d520 f   user32:USER32.dll
 0001:0009c526       _GetMenuItemInfoA@16       1009d526 f   user32:USER32.dll
 0001:0009c52c       _DrawTextA@20              1009d52c f   user32:USER32.dll
 0001:0009c532       _DrawTextExA@24            1009d532 f   user32:USER32.dll
 0001:0009c538       _GrayStringA@36            1009d538 f   user32:USER32.dll
 0001:0009c53e       _TabbedTextOutA@32         1009d53e f   user32:USER32.dll
 0001:0009c544       _GetDC@4                   1009d544 f   user32:USER32.dll
 0001:0009c54a       _ReleaseDC@8               1009d54a f   user32:USER32.dll
 0001:0009c550       _GetSysColor@4             1009d550 f   user32:USER32.dll
 0001:0009c556       _GetSysColorBrush@4        1009d556 f   user32:USER32.dll
 0001:0009c55c       _FillRect@12               1009d55c f   user32:USER32.dll
 0001:0009c562       _SetRect@20                1009d562 f   user32:USER32.dll
 0001:0009c568       _CopyRect@8                1009d568 f   user32:USER32.dll
 0001:0009c56e       _GetDesktopWindow@0        1009d56e f   user32:USER32.dll
 0001:0009c574       _LoadBitmapW@8             1009d574 f   user32:USER32.dll
 0001:0009c57a       _DestroyIcon@4             1009d57a f   user32:USER32.dll
 0001:0009c580       _DrawIconEx@36             1009d580 f   user32:USER32.dll
 0001:0009c586       _SystemParametersInfoA@16  1009d586 f   user32:USER32.dll
 0001:0009c58c       _GetCapture@0              1009d58c f   user32:USER32.dll
 0001:0009c592       _SetTimer@16               1009d592 f   user32:USER32.dll
 0001:0009c598       _KillTimer@8               1009d598 f   user32:USER32.dll
 0001:0009c59e       _InvalidateRect@12         1009d59e f   user32:USER32.dll
 0001:0009c5a4       _GetCursorPos@4            1009d5a4 f   user32:USER32.dll
 0001:0009c5aa       _MapWindowPoints@16        1009d5aa f   user32:USER32.dll
 0001:0009c5b0       _WindowFromPoint@8         1009d5b0 f   user32:USER32.dll
 0001:0009c5b6       _PtInRect@12               1009d5b6 f   user32:USER32.dll
 0001:0009c5bc       _UpdateWindow@4            1009d5bc f   user32:USER32.dll
 0001:0009c5c2       _GetWindowRect@8           1009d5c2 f   user32:USER32.dll
 0001:0009c5c8       _SetCursor@4               1009d5c8 f   user32:USER32.dll
 0001:0009c5ce       _OffsetRect@12             1009d5ce f   user32:USER32.dll
 0001:0009c5d4       _GetParent@4               1009d5d4 f   user32:USER32.dll
 0001:0009c5da       _LoadCursorA@8             1009d5da f   user32:USER32.dll
 0001:0009c5e0       _DestroyCursor@4           1009d5e0 f   user32:USER32.dll
 0001:0009c5e6       _CopyIcon@4                1009d5e6 f   user32:USER32.dll
 0001:0009c5ec       _SetCapture@4              1009d5ec f   user32:USER32.dll
 0001:0009c5f2       _ReleaseCapture@0          1009d5f2 f   user32:USER32.dll
 0001:0009c5f8       _ClientToScreen@8          1009d5f8 f   user32:USER32.dll
 0001:0009c5fe       _InflateRect@12            1009d5fe f   user32:USER32.dll
 0001:0009c604       _SetRectEmpty@4            1009d604 f   user32:USER32.dll
 0001:0009c60a       _UnionRect@12              1009d60a f   user32:USER32.dll
 0001:0009c610       _PostMessageA@16           1009d610 f   user32:USER32.dll
 0001:0009c616       _GetAsyncKeyState@4        1009d616 f   user32:USER32.dll
 0001:0009c61c       _SetMenuDefaultItem@12     1009d61c f   user32:USER32.dll
 0001:0009c622       _ScreenToClient@8          1009d622 f   user32:USER32.dll
 0001:0009c628       _IsRectEmpty@4             1009d628 f   user32:USER32.dll
 0001:0009c62e       _DrawFrameControl@16       1009d62e f   user32:USER32.dll
 0001:0009c634       _GetMessageA@16            1009d634 f   user32:USER32.dll
 0001:0009c63a       _DispatchMessageA@4        1009d63a f   user32:USER32.dll
 0001:0009c640       _GetMessagePos@0           1009d640 f   user32:USER32.dll
 0001:0009c646       _IsChild@8                 1009d646 f   user32:USER32.dll
 0001:0009c64c       _GetFocus@0                1009d64c f   user32:USER32.dll
 0001:0009c652       _GetCursor@0               1009d652 f   user32:USER32.dll
 0001:0009c658       _LoadCursorW@8             1009d658 f   user32:USER32.dll
 0001:0009c65e       _FrameRect@12              1009d65e f   user32:USER32.dll
 0001:0009c664       _GetWindowLongA@8          1009d664 f   user32:USER32.dll
 0001:0009c66a       _BringWindowToTop@4        1009d66a f   user32:USER32.dll
 0001:0009c670       _SetScrollPos@16           1009d670 f   user32:USER32.dll
 0001:0009c676       _GetNextDlgGroupItem@12    1009d676 f   user32:USER32.dll
 0001:0009c67c       _SetWindowRgn@12           1009d67c f   user32:USER32.dll
 0001:0009c682       _DrawFocusRect@8           1009d682 f   user32:USER32.dll
 0001:0009c688       _GetWindow@8               1009d688 f   user32:USER32.dll
 0001:0009c68e       _SetFocus@4                1009d68e f   user32:USER32.dll
 0001:0009c694       _GetKeyState@4             1009d694 f   user32:USER32.dll
 0001:0009c69a       _EqualRect@8               1009d69a f   user32:USER32.dll
 0001:0009c6a0       _SetParent@8               1009d6a0 f   user32:USER32.dll
 0001:0009c6a6       _ClipCursor@4              1009d6a6 f   user32:USER32.dll
 0001:0009c6ac       _SetWindowLongA@12         1009d6ac f   user32:USER32.dll
 0001:0009c6b2       _IsWindowVisible@4         1009d6b2 f   user32:USER32.dll
 0001:0009c6b8       _IsWindowEnabled@4         1009d6b8 f   user32:USER32.dll
 0001:0009c6be       _GetWindowTextA@12         1009d6be f   user32:USER32.dll
 0001:0009c6c4       _BeginDeferWindowPos@4     1009d6c4 f   user32:USER32.dll
 0001:0009c6ca       _DeferWindowPos@32         1009d6ca f   user32:USER32.dll
 0001:0009c6d0       _EndDeferWindowPos@4       1009d6d0 f   user32:USER32.dll
 0001:0009c6d6       _GetClassNameA@12          1009d6d6 f   user32:USER32.dll
 0001:0009c6dc       _BitBlt@36                 1009d6dc f   gdi32:GDI32.dll
 0001:0009c6e2       _CreateCompatibleBitmap@12 1009d6e2 f   gdi32:GDI32.dll
 0001:0009c6e8       _CreateCompatibleDC@4      1009d6e8 f   gdi32:GDI32.dll
 0001:0009c6ee       _CreateFontIndirectA@4     1009d6ee f   gdi32:GDI32.dll
 0001:0009c6f4       _CreateHatchBrush@8        1009d6f4 f   gdi32:GDI32.dll
 0001:0009c6fa       _CreatePen@12              1009d6fa f   gdi32:GDI32.dll
 0001:0009c700       _CreateSolidBrush@4        1009d700 f   gdi32:GDI32.dll
 0001:0009c706       _DeleteDC@4                1009d706 f   gdi32:GDI32.dll
 0001:0009c70c       _DeleteObject@4            1009d70c f   gdi32:GDI32.dll
 0001:0009c712       _Ellipse@20                1009d712 f   gdi32:GDI32.dll
 0001:0009c718       _Escape@20                 1009d718 f   gdi32:GDI32.dll
 0001:0009c71e       _GetBkMode@4               1009d71e f   gdi32:GDI32.dll
 0001:0009c724       _GetDeviceCaps@8           1009d724 f   gdi32:GDI32.dll
 0001:0009c72a       _GetPixel@12               1009d72a f   gdi32:GDI32.dll
 0001:0009c730       _GetTextExtentPoint32A@16  1009d730 f   gdi32:GDI32.dll
 0001:0009c736       _GetTextExtentPoint32W@16  1009d736 f   gdi32:GDI32.dll
 0001:0009c73c       _PatBlt@24                 1009d73c f   gdi32:GDI32.dll
 0001:0009c742       _PtVisible@12              1009d742 f   gdi32:GDI32.dll
 0001:0009c748       _RectVisible@8             1009d748 f   gdi32:GDI32.dll
 0001:0009c74e       _Rectangle@20              1009d74e f   gdi32:GDI32.dll
 0001:0009c754       _SelectObject@8            1009d754 f   gdi32:GDI32.dll
 0001:0009c75a       _SetPixel@16               1009d75a f   gdi32:GDI32.dll
 0001:0009c760       _CreateDIBSection@24       1009d760 f   gdi32:GDI32.dll
 0001:0009c766       _GetObjectA@12             1009d766 f   gdi32:GDI32.dll
 0001:0009c76c       _TextOutA@20               1009d76c f   gdi32:GDI32.dll
 0001:0009c772       _ExtTextOutA@32            1009d772 f   gdi32:GDI32.dll
 0001:0009c778       _CreateRectRgn@16          1009d778 f   gdi32:GDI32.dll
 0001:0009c77e       _GetBkColor@4              1009d77e f   gdi32:GDI32.dll
 0001:0009c784       _GetTextMetricsA@8         1009d784 f   gdi32:GDI32.dll
 0001:0009c78a       _FillRgn@12                1009d78a f   gdi32:GDI32.dll
 0001:0009c790       _GetViewportOrgEx@8        1009d790 f   gdi32:GDI32.dll
 0001:0009c796       _CreatePolygonRgn@12       1009d796 f   gdi32:GDI32.dll
 0001:0009c79c       _SetViewportOrgEx@16       1009d79c f   gdi32:GDI32.dll
 0001:0009c7a2       _StretchBlt@44             1009d7a2 f   gdi32:GDI32.dll
 0001:0009c7a8       _CreateDIBitmap@24         1009d7a8 f   gdi32:GDI32.dll
 0001:0009c7ae       _CreateRectRgnIndirect@4   1009d7ae f   gdi32:GDI32.dll
 0001:0009c7b4       _RoundRect@28              1009d7b4 f   gdi32:GDI32.dll
 0001:0009c7ba       _GetCurrentObject@8        1009d7ba f   gdi32:GDI32.dll
 0001:0009c7c0       _CombineRgn@16             1009d7c0 f   gdi32:GDI32.dll
 0001:0009c7c6       _SelectClipRgn@8           1009d7c6 f   gdi32:GDI32.dll
 0001:0009c7cc       _RegCloseKey@4             1009d7cc f   advapi32:ADVAPI32.dll
 0001:0009c7d2       _RegOpenKeyExA@20          1009d7d2 f   advapi32:ADVAPI32.dll
 0001:0009c7d8       _RegQueryValueExA@24       1009d7d8 f   advapi32:ADVAPI32.dll
 0001:0009c7de       _ImageList_AddMasked@12    1009d7de f   comctl32:COMCTL32.dll
 0001:0009c7e4       _ImageList_GetImageCount@4 1009d7e4 f   comctl32:COMCTL32.dll
 0001:0009c7ea       _ImageList_ReplaceIcon@12  1009d7ea f   comctl32:COMCTL32.dll
 0001:0009c7f0       _ImageList_Draw@24         1009d7f0 f   comctl32:COMCTL32.dll
 0001:0009c7f6       _ImageList_GetIcon@12      1009d7f6 f   comctl32:COMCTL32.dll
 0001:0009c7fc       _ImageList_GetIconSize@12  1009d7fc f   comctl32:COMCTL32.dll
 0001:0009c802       _ImageList_GetImageInfo@12 1009d802 f   comctl32:COMCTL32.dll
 0001:0009c808       __TrackMouseEvent@4        1009d808 f   comctl32:COMCTL32.dll
 0001:0009c80e       _ImageList_SetBkColor@8    1009d80e f   comctl32:COMCTL32.dll
 0001:0009c814       _ImageList_GetBkColor@4    1009d814 f   comctl32:COMCTL32.dll
 0001:0009c81a       ??$?2PAUHINSTANCE__@@@Wrapper@?$CSimpleArray@PAUHINSTANCE__@@V?$CSimpleArrayEqualHelper@PAUHINSTANCE__@@@ATL@@@ATL@@SAPAXIPAPAUHINSTANCE__@@@Z 1009d81a f i atls:atlbase.obj
 0001:0009c822       ??0?$CComCritSecLock@VCComCriticalSection@ATL@@@ATL@@QAE@AAVCComCriticalSection@1@_N@Z 1009d822 f i atls:atlbase.obj
 0001:0009c849       ??0?$CSimpleArray@PAUHINSTANCE__@@V?$CSimpleArrayEqualHelper@PAUHINSTANCE__@@@ATL@@@ATL@@QAE@XZ 1009d849 f i atls:atlbase.obj
 0001:0009c856       ??0CAtlBaseModule@ATL@@QAE@XZ 1009d856 f   atls:atlbase.obj
 0001:0009c8a9       ??0Wrapper@?$CSimpleArray@PAUHINSTANCE__@@V?$CSimpleArrayEqualHelper@PAUHINSTANCE__@@@ATL@@@ATL@@QAE@ABQAUHINSTANCE__@@@Z 1009d8a9 f i atls:atlbase.obj
 0001:0009c8b9       ??0_ATL_BASE_MODULE70@ATL@@QAE@XZ 1009d8b9 f i atls:atlbase.obj
 0001:0009c8dc       ??1?$CComCritSecLock@VCComCriticalSection@ATL@@@ATL@@QAE@XZ 1009d8dc f i atls:atlbase.obj
 0001:0009c8f3       ??1?$CSimpleArray@PAUHINSTANCE__@@V?$CSimpleArrayEqualHelper@PAUHINSTANCE__@@@ATL@@@ATL@@QAE@XZ 1009d8f3 f i atls:atlbase.obj
 0001:0009c8f8       ??1CAtlBaseModule@ATL@@QAE@XZ 1009d8f8 f   atls:atlbase.obj
 0001:0009c90e       ??1_ATL_BASE_MODULE70@ATL@@QAE@XZ 1009d90e f i atls:atlbase.obj
 0001:0009c916       ??A?$CSimpleArray@PAUHINSTANCE__@@V?$CSimpleArrayEqualHelper@PAUHINSTANCE__@@@ATL@@@ATL@@QAEAAPAUHINSTANCE__@@H@Z 1009d916 f i atls:atlbase.obj
 0001:0009c93b       ?Add@?$CSimpleArray@PAUHINSTANCE__@@V?$CSimpleArrayEqualHelper@PAUHINSTANCE__@@@ATL@@@ATL@@QAEHABQAUHINSTANCE__@@@Z 1009d93b f i atls:atlbase.obj
 0001:0009c9bd       ?AddResourceInstance@CAtlBaseModule@ATL@@QAE_NPAUHINSTANCE__@@@Z 1009d9bd f   atls:atlbase.obj
 0001:0009c9f0       ?AtlCrtErrorCheck@ATL@@YAHH@Z 1009d9f0 f i atls:atlbase.obj
 0001:0009ca2b       ?GetHInstanceAt@CAtlBaseModule@ATL@@QAEPAUHINSTANCE__@@H@Z 1009da2b f   atls:atlbase.obj
 0001:0009ca70       ?GetSize@?$CSimpleArray@PAUHINSTANCE__@@V?$CSimpleArrayEqualHelper@PAUHINSTANCE__@@@ATL@@@ATL@@QBEHXZ 1009da70 f i atls:atlbase.obj
 0001:0009ca74       ?InternalSetAtIndex@?$CSimpleArray@PAUHINSTANCE__@@V?$CSimpleArrayEqualHelper@PAUHINSTANCE__@@@ATL@@@ATL@@QAEXHABQAUHINSTANCE__@@@Z 1009da74 f i atls:atlbase.obj
 0001:0009ca8e       ?Lock@?$CComCritSecLock@VCComCriticalSection@ATL@@@ATL@@QAEJXZ 1009da8e f i atls:atlbase.obj
 0001:0009caa1       ?Lock@CComCriticalSection@ATL@@QAEJXZ 1009daa1 f i atls:atlbase.obj
 0001:0009caab       ?RemoveAll@?$CSimpleArray@PAUHINSTANCE__@@V?$CSimpleArrayEqualHelper@PAUHINSTANCE__@@@ATL@@@ATL@@QAEXXZ 1009daab f i atls:atlbase.obj
 0001:0009cac8       ?RemoveAt@?$CSimpleArray@PAUHINSTANCE__@@V?$CSimpleArrayEqualHelper@PAUHINSTANCE__@@@ATL@@@ATL@@QAEHH@Z 1009dac8 f i atls:atlbase.obj
 0001:0009cb16       ?RemoveResourceInstance@CAtlBaseModule@ATL@@QAE_NPAUHINSTANCE__@@@Z 1009db16 f   atls:atlbase.obj
 0001:0009cb73       ?Unlock@?$CComCritSecLock@VCComCriticalSection@ATL@@@ATL@@QAEXXZ 1009db73 f i atls:atlbase.obj
 0001:0009cb84       ?Unlock@CComCriticalSection@ATL@@QAEJXZ 1009db84 f i atls:atlbase.obj
 0001:0009cb8e       ?memmove_s@Checked@ATL@@YAXPAXIPBXI@Z 1009db8e f i atls:atlbase.obj
 0001:0009cc2b       ??0?$CTraceCategoryEx@$00$0A@@ATL@@QAE@PB_W@Z 1009dc2b f i atls:stdafx.obj
 0001:0009cc30       ??0?$CTraceCategoryEx@$01$0A@@ATL@@QAE@PB_W@Z 1009dc30 f i atls:stdafx.obj
 0001:0009cc35       ??0?$CTraceCategoryEx@$03$0A@@ATL@@QAE@PB_W@Z 1009dc35 f i atls:stdafx.obj
 0001:0009cc3a       ??0?$CTraceCategoryEx@$07$0A@@ATL@@QAE@PB_W@Z 1009dc3a f i atls:stdafx.obj
 0001:0009cc3f       ??0?$CTraceCategoryEx@$0BA@$0A@@ATL@@QAE@PB_W@Z 1009dc3f f i atls:stdafx.obj
 0001:0009cc44       ??0?$CTraceCategoryEx@$0BAA@$0A@@ATL@@QAE@PB_W@Z 1009dc44 f i atls:stdafx.obj
 0001:0009cc49       ??0?$CTraceCategoryEx@$0BAAA@$0A@@ATL@@QAE@PB_W@Z 1009dc49 f i atls:stdafx.obj
 0001:0009cc4e       ??0?$CTraceCategoryEx@$0BAAAA@$0A@@ATL@@QAE@PB_W@Z 1009dc4e f i atls:stdafx.obj
 0001:0009cc53       ??0?$CTraceCategoryEx@$0BAAAAA@$0A@@ATL@@QAE@PB_W@Z 1009dc53 f i atls:stdafx.obj
 0001:0009cc58       ??0?$CTraceCategoryEx@$0CA@$0A@@ATL@@QAE@PB_W@Z 1009dc58 f i atls:stdafx.obj
 0001:0009cc5d       ??0?$CTraceCategoryEx@$0CAA@$0A@@ATL@@QAE@PB_W@Z 1009dc5d f i atls:stdafx.obj
 0001:0009cc62       ??0?$CTraceCategoryEx@$0CAAA@$0A@@ATL@@QAE@PB_W@Z 1009dc62 f i atls:stdafx.obj
 0001:0009cc67       ??0?$CTraceCategoryEx@$0CAAAA@$0A@@ATL@@QAE@PB_W@Z 1009dc67 f i atls:stdafx.obj
 0001:0009cc6c       ??0?$CTraceCategoryEx@$0CAAAAA@$0A@@ATL@@QAE@PB_W@Z 1009dc6c f i atls:stdafx.obj
 0001:0009cc71       ??0?$CTraceCategoryEx@$0EA@$0A@@ATL@@QAE@PB_W@Z 1009dc71 f i atls:stdafx.obj
 0001:0009cc76       ??0?$CTraceCategoryEx@$0EAA@$0A@@ATL@@QAE@PB_W@Z 1009dc76 f i atls:stdafx.obj
 0001:0009cc7b       ??0?$CTraceCategoryEx@$0EAAA@$0A@@ATL@@QAE@PB_W@Z 1009dc7b f i atls:stdafx.obj
 0001:0009cc80       ??0?$CTraceCategoryEx@$0EAAAA@$0A@@ATL@@QAE@PB_W@Z 1009dc80 f i atls:stdafx.obj
 0001:0009cc85       ??0?$CTraceCategoryEx@$0EAAAAA@$0A@@ATL@@QAE@PB_W@Z 1009dc85 f i atls:stdafx.obj
 0001:0009cc8a       ??0?$CTraceCategoryEx@$0IA@$0A@@ATL@@QAE@PB_W@Z 1009dc8a f i atls:stdafx.obj
 0001:0009cc8f       ??0?$CTraceCategoryEx@$0IAA@$0A@@ATL@@QAE@PB_W@Z 1009dc8f f i atls:stdafx.obj
 0001:0009cc94       ??0?$CTraceCategoryEx@$0IAAA@$0A@@ATL@@QAE@PB_W@Z 1009dc94 f i atls:stdafx.obj
 0001:0009cc99       ??0?$CTraceCategoryEx@$0IAAAA@$0A@@ATL@@QAE@PB_W@Z 1009dc99 f i atls:stdafx.obj
 0001:0009cc9e       ??_I@YGXPAXIIP6EX0@Z@Z     1009dc9e f i atls:stdafx.obj
 0001:0009ccd1       _StringFromCLSID@8         1009dcd1 f   ole32:ole32.dll
 0001:0009ccd7       _CLSIDFromProgID@8         1009dcd7 f   ole32:ole32.dll
 0001:0009ccdd       _CoTaskMemFree@4           1009dcdd f   ole32:ole32.dll
 0001:0009cce3       _SysAllocString@4          1009dce3 f   oleaut32:OLEAUT32.dll
 0001:0009cce9       _SysFreeString@4           1009dce9 f   oleaut32:OLEAUT32.dll
 0001:0009ccef       _VariantInit@4             1009dcef f   oleaut32:OLEAUT32.dll
 0001:0009ccf5       _VariantClear@4            1009dcf5 f   oleaut32:OLEAUT32.dll
 0001:0009ccfb       _VariantChangeType@16      1009dcfb f   oleaut32:OLEAUT32.dll
 0001:0009cd10       ?_com_dispatch_method@@YAJPAUIDispatch@@JGGPAXPB_WZZ 1009dd10 f   comsuppw:comsupp.obj
 0001:0009cd60       ?_com_dispatch_propget@@YGJPAUIDispatch@@JGPAX@Z 1009dd60 f   comsuppw:comsupp.obj
 0001:0009cd80       ?_com_dispatch_propput@@YAJPAUIDispatch@@JGZZ 1009dd80 f   comsuppw:comsupp.obj
 0001:0009cdf0       ?_com_issue_error@@YGXJ@Z  1009ddf0 f   comsuppw:comsupp.obj
 0001:0009ce10       ?_com_issue_errorex@@YGXJPAUIUnknown@@ABU_GUID@@@Z 1009de10 f   comsuppw:comsupp.obj
 0001:0009ceb0       ?_set_com_error_handler@@YGXP6GXJPAUIErrorInfo@@@Z@Z 1009deb0 f   comsuppw:comsupp.obj
 0001:0009cec0       ??0_variant_t@@QAE@JG@Z    1009dec0 f i comsuppw:comutil.obj
 0001:0009cf40       ?ConvertBSTRToString@_com_util@@YGPADPA_W@Z 1009df40 f   comsuppw:comutil.obj
 0001:0009d060       ?ConvertStringToBSTR@_com_util@@YGPA_WPBD@Z 1009e060 f   comsuppw:comutil.obj
 0001:0009d1f0       ?HRESULT_FROM_WIN32@@YGJK@Z 1009e1f0 f i comsuppw:comutil.obj
 0001:0009d210       ??0_com_error@@QAE@ABV0@@Z 1009e210 f i comsuppw:comraise.obj
 0001:0009d250       ??0_com_error@@QAE@JPAUIErrorInfo@@_N@Z 1009e250 f i comsuppw:comraise.obj
 0001:0009d2a0       ??1_com_error@@UAE@XZ      1009e2a0 f i comsuppw:comraise.obj
 0001:0009d2e0       ??_G_com_error@@UAEPAXI@Z  1009e2e0 f i comsuppw:comraise.obj
 0001:0009d2e0       ??_E_com_error@@UAEPAXI@Z  1009e2e0 f i comsuppw:comraise.obj
 0001:0009d330       ?_com_raise_error@@YGXJPAUIErrorInfo@@@Z 1009e330 f   comsuppw:comraise.obj
 0001:0009d360       ?_com_dispatch_raw_method@@YAJPAUIDispatch@@JGGPAXPB_WZZ 1009e360 f   comsuppw:invkprxy.obj
 0001:0009d3a0       ?_com_dispatch_raw_propget@@YGJPAUIDispatch@@JGPAX@Z 1009e3a0 f   comsuppw:invkprxy.obj
 0001:0009d3c0       ?_com_dispatch_raw_propput@@YAJPAUIDispatch@@JGZZ 1009e3c0 f   comsuppw:invkprxy.obj
 0001:0009d420       ?_com_invoke_helper@@YAJPAUIDispatch@@JGGPAXPB_WPADPAPAUIErrorInfo@@@Z 1009e420 f   comsuppw:invkprxy.obj
 0001:0009d9b0       ?WCodeToHRESULT@_com_error@@SGJG@Z 1009e9b0 f i comsuppw:invkerr.obj
 0001:0009d9e0       ?_com_handle_excepinfo@@YGJAAUtagEXCEPINFO@@PAPAUIErrorInfo@@@Z 1009e9e0 f   comsuppw:invkerr.obj
 0001:0009db38       ___std_terminate           1009eb38 f   vcruntime:VCRUNTIME140.dll
 0001:0009db3e       ___CxxFrameHandler3        1009eb3e f   vcruntime:VCRUNTIME140.dll
 0001:0009db44       ___RTDynamicCast           1009eb44 f   vcruntime:VCRUNTIME140.dll
 0001:0009db4a       _memcpy                    1009eb4a f   vcruntime:VCRUNTIME140.dll
 0001:0009db50       _memmove                   1009eb50 f   vcruntime:VCRUNTIME140.dll
 0001:0009db56       _memset                    1009eb56 f   vcruntime:VCRUNTIME140.dll
 0001:0009db5c       _strrchr                   1009eb5c f   vcruntime:VCRUNTIME140.dll
 0001:0009db62       ___current_exception       1009eb62 f   vcruntime:VCRUNTIME140.dll
 0001:0009db68       ___current_exception_context 1009eb68 f   vcruntime:VCRUNTIME140.dll
 0001:0009db6e       __except_handler4_common   1009eb6e f   vcruntime:VCRUNTIME140.dll
 0001:0009db74       ___std_type_info_destroy_list 1009eb74 f   vcruntime:VCRUNTIME140.dll
 0001:0009db7a       __CxxThrowException@8      1009eb7a f   vcruntime:VCRUNTIME140.dll
 0001:0009db80       _free                      1009eb80 f   ucrt:api-ms-win-crt-heap-l1-1-0.dll
 0001:0009db86       __invalid_parameter_noinfo 1009eb86 f   ucrt:api-ms-win-crt-runtime-l1-1-0.dll
 0001:0009db8c       __errno                    1009eb8c f   ucrt:api-ms-win-crt-runtime-l1-1-0.dll
 0001:0009db92       _malloc                    1009eb92 f   ucrt:api-ms-win-crt-heap-l1-1-0.dll
 0001:0009db98       _isdigit                   1009eb98 f   ucrt:api-ms-win-crt-string-l1-1-0.dll
 0001:0009db9e       ___stdio_common_vsprintf   1009eb9e f   ucrt:api-ms-win-crt-stdio-l1-1-0.dll
 0001:0009dba4       ___stdio_common_vsscanf    1009eba4 f   ucrt:api-ms-win-crt-stdio-l1-1-0.dll
 0001:0009dbaa       _atof                      1009ebaa f   ucrt:api-ms-win-crt-convert-l1-1-0.dll
 0001:0009dbb0       _atoi                      1009ebb0 f   ucrt:api-ms-win-crt-convert-l1-1-0.dll
 0001:0009dbb6       __libm_sse2_atan_precise   1009ebb6 f   ucrt:api-ms-win-crt-math-l1-1-0.dll
 0001:0009dbbc       __libm_sse2_exp_precise    1009ebbc f   ucrt:api-ms-win-crt-math-l1-1-0.dll
 0001:0009dbc2       __libm_sse2_log_precise    1009ebc2 f   ucrt:api-ms-win-crt-math-l1-1-0.dll
 0001:0009dbc8       __libm_sse2_pow_precise    1009ebc8 f   ucrt:api-ms-win-crt-math-l1-1-0.dll
 0001:0009dbce       __libm_sse2_sqrt_precise   1009ebce f   ucrt:api-ms-win-crt-math-l1-1-0.dll
 0001:0009dbd4       __libm_sse2_tan_precise    1009ebd4 f   ucrt:api-ms-win-crt-math-l1-1-0.dll
 0001:0009dbda       _floor                     1009ebda f   ucrt:api-ms-win-crt-math-l1-1-0.dll
 0001:0009dbe0       _isspace                   1009ebe0 f   ucrt:api-ms-win-crt-string-l1-1-0.dll
 0001:0009dbe6       _atol                      1009ebe6 f   ucrt:api-ms-win-crt-convert-l1-1-0.dll
 0001:0009dbec       __localtime64_s            1009ebec f   ucrt:api-ms-win-crt-time-l1-1-0.dll
 0001:0009dbf2       _strftime                  1009ebf2 f   ucrt:api-ms-win-crt-time-l1-1-0.dll
 0001:0009dbf8       __time64                   1009ebf8 f   ucrt:api-ms-win-crt-time-l1-1-0.dll
 0001:0009dbfe       __mbslen                   1009ebfe f   ucrt:api-ms-win-crt-multibyte-l1-1-0.dll
 0001:0009dc04       _qsort                     1009ec04 f   ucrt:api-ms-win-crt-utility-l1-1-0.dll
 0001:0009dc0a       __mktime64                 1009ec0a f   ucrt:api-ms-win-crt-time-l1-1-0.dll
 0001:0009dc10       __access                   1009ec10 f   ucrt:api-ms-win-crt-filesystem-l1-1-0.dll
 0001:0009dc16       __mkdir                    1009ec16 f   ucrt:api-ms-win-crt-filesystem-l1-1-0.dll
 0001:0009dc1c       _strncmp                   1009ec1c f   ucrt:api-ms-win-crt-string-l1-1-0.dll
 0001:0009dc22       _strncpy                   1009ec22 f   ucrt:api-ms-win-crt-string-l1-1-0.dll
 0001:0009dc28       __mbsnbicmp                1009ec28 f   ucrt:api-ms-win-crt-multibyte-l1-1-0.dll
 0001:0009dc2e       __mbsicmp                  1009ec2e f   ucrt:api-ms-win-crt-multibyte-l1-1-0.dll
 0001:0009dc34       _terminate                 1009ec34 f   ucrt:api-ms-win-crt-runtime-l1-1-0.dll
 0001:0009dc3a       __seh_filter_dll           1009ec3a f   ucrt:api-ms-win-crt-runtime-l1-1-0.dll
 0001:0009dc40       __configure_narrow_argv    1009ec40 f   ucrt:api-ms-win-crt-runtime-l1-1-0.dll
 0001:0009dc46       __initialize_narrow_environment 1009ec46 f   ucrt:api-ms-win-crt-runtime-l1-1-0.dll
 0001:0009dc4c       __initialize_onexit_table  1009ec4c f   ucrt:api-ms-win-crt-runtime-l1-1-0.dll
 0001:0009dc52       __register_onexit_function 1009ec52 f   ucrt:api-ms-win-crt-runtime-l1-1-0.dll
 0001:0009dc58       __execute_onexit_table     1009ec58 f   ucrt:api-ms-win-crt-runtime-l1-1-0.dll
 0001:0009dc5e       __crt_atexit               1009ec5e f   ucrt:api-ms-win-crt-runtime-l1-1-0.dll
 0001:0009dc64       __crt_at_quick_exit        1009ec64 f   ucrt:api-ms-win-crt-runtime-l1-1-0.dll
 0001:0009dc6a       __cexit                    1009ec6a f   ucrt:api-ms-win-crt-runtime-l1-1-0.dll
 0001:0009dc70       __initterm                 1009ec70 f   ucrt:api-ms-win-crt-runtime-l1-1-0.dll
 0001:0009dc76       __initterm_e               1009ec76 f   ucrt:api-ms-win-crt-runtime-l1-1-0.dll
 0001:0009dc7c       __recalloc                 1009ec7c f   ucrt:api-ms-win-crt-heap-l1-1-0.dll
 0001:0009dc82       ??0AFX_MODULE_STATE@@QAE@HP6GJPAUHWND__@@IIJ@ZKH@Z 1009ec82 f   mfc140:mfc140.dll
 0001:0009dc88       ??1AFX_MODULE_STATE@@UAE@XZ 1009ec88 f   mfc140:mfc140.dll
 0001:0009dc8e       ?AfxSetModuleState@@YGPAVAFX_MODULE_STATE@@PAV1@@Z 1009ec8e f   mfc140:mfc140.dll
 0001:0009dc94       ?AfxWinInit@@YGHPAUHINSTANCE__@@0PADH@Z 1009ec94 f   mfc140:mfc140.dll
 0001:0009dc9a       ?AfxWndProc@@YGJPAUHWND__@@IIJ@Z 1009ec9a f   mfc140:mfc140.dll
 0001:0009dca0       ?AfxTermThread@@YGXPAUHINSTANCE__@@@Z 1009eca0 f   mfc140:mfc140.dll
 0001:0009dca6       ?AfxWinTerm@@YGXXZ         1009eca6 f   mfc140:mfc140.dll
 0001:0009dcac       ??0CDynLinkLibrary@@QAE@AAUAFX_EXTENSION_MODULE@@H@Z 1009ecac f   mfc140:mfc140.dll
 0001:0009dcb2       ?AfxInitExtensionModule@@YGHAAUAFX_EXTENSION_MODULE@@PAUHINSTANCE__@@@Z 1009ecb2 f   mfc140:mfc140.dll
 0001:0009dcb8       ?AfxTermExtensionModule@@YGXAAUAFX_EXTENSION_MODULE@@H@Z 1009ecb8 f   mfc140:mfc140.dll
 0001:0009dcbe       ?AfxCoreInitModule@@YGXXZ  1009ecbe f   mfc140:mfc140.dll
 0001:0009dcc4       ??0CDynLinkLibrary@@QAE@PAUHINSTANCE__@@0@Z 1009ecc4 f   mfc140:mfc140.dll
 0001:0009dcca       __RawDllMainProxy@12       1009ecca f   mfcs140:rawdllmainproxy.obj
 0001:0009de15       _OutputDebugStringW@4      1009ee15 f   kernel32:KERNEL32.dll
 0001:0009de1b       _GetErrorInfo@8            1009ee1b f   oleaut32:OLEAUT32.dll
 0001:0009de21       _SetErrorInfo@8            1009ee21 f   oleaut32:OLEAUT32.dll
 0001:0009de27       _CreateErrorInfo@4         1009ee27 f   oleaut32:OLEAUT32.dll
 0001:0009de2d       ___acrt_initialize         1009ee2d f   msvcrt:ucrt_stubs.obj
 0001:0009de2d       ___scrt_stub_for_acrt_initialize 1009ee2d f   msvcrt:ucrt_stubs.obj
 0001:0009de2d       ___vcrt_initialize         1009ee2d f   msvcrt:ucrt_stubs.obj
 0001:0009de30       ___vcrt_thread_attach      1009ee30 f   msvcrt:ucrt_stubs.obj
 0001:0009de30       ___scrt_stub_for_acrt_thread_attach 1009ee30 f   msvcrt:ucrt_stubs.obj
 0001:0009de30       ___acrt_thread_attach      1009ee30 f   msvcrt:ucrt_stubs.obj
 0001:0009de33       ___scrt_stub_for_acrt_thread_detach 1009ee33 f   msvcrt:ucrt_stubs.obj
 0001:0009de33       ___acrt_thread_detach      1009ee33 f   msvcrt:ucrt_stubs.obj
 0001:0009de33       ___vcrt_thread_detach      1009ee33 f   msvcrt:ucrt_stubs.obj
 0001:0009de36       ___vcrt_uninitialize       1009ee36 f   msvcrt:ucrt_stubs.obj
 0001:0009de36       ___scrt_stub_for_acrt_uninitialize 1009ee36 f   msvcrt:ucrt_stubs.obj
 0001:0009de36       ___acrt_uninitialize       1009ee36 f   msvcrt:ucrt_stubs.obj
 0001:0009de39       ___vcrt_uninitialize_critical 1009ee39 f   msvcrt:ucrt_stubs.obj
 0001:0009de39       ___scrt_stub_for_acrt_uninitialize_critical 1009ee39 f   msvcrt:ucrt_stubs.obj
 0001:0009de39       ___acrt_uninitialize_critical 1009ee39 f   msvcrt:ucrt_stubs.obj
 0001:0009de3c       __is_c_termination_complete 1009ee3c f   msvcrt:ucrt_stubs.obj
 0001:0009de3c       ___scrt_stub_for_is_c_termination_complete 1009ee3c f   msvcrt:ucrt_stubs.obj
 0001:0009de3f       __filter_x86_sse2_floating_point_exception 1009ee3f f   msvcrt:x86_exception_filter.obj
 0001:0009de3f       __filter_x86_sse2_floating_point_exception_default 1009ee3f f   msvcrt:x86_exception_filter.obj
 0001:000ad080       ??__FstrHeap@?1??GetInstance@CAtlStringMgr@ATL@@SAPAUIAtlStringMgr@2@XZ@YAXXZ 100ae080 f i StdAfx.obj
 0001:000ad0b0       ??__FstrMgr@?1??GetInstance@CAtlStringMgr@ATL@@SAPAUIAtlStringMgr@2@XZ@YAXXZ 100ae0b0 f i StdAfx.obj
 0002:00000000       __imp__RegCloseKey@4       100af000     advapi32:ADVAPI32.dll
 0002:00000004       __imp__RegQueryValueExA@24 100af004     advapi32:ADVAPI32.dll
 0002:00000008       __imp__RegOpenKeyExA@20    100af008     advapi32:ADVAPI32.dll
 0002:0000000c       \177ADVAPI32_NULL_THUNK_DATA 100af00c     advapi32:ADVAPI32.dll
 0002:00000010       __imp__ImageList_GetImageCount@4 100af010     comctl32:COMCTL32.dll
 0002:00000014       __imp__ImageList_ReplaceIcon@12 100af014     comctl32:COMCTL32.dll
 0002:00000018       __imp__ImageList_Draw@24   100af018     comctl32:COMCTL32.dll
 0002:0000001c       __imp__ImageList_GetIcon@12 100af01c     comctl32:COMCTL32.dll
 0002:00000020       __imp__ImageList_GetIconSize@12 100af020     comctl32:COMCTL32.dll
 0002:00000024       __imp__ImageList_GetImageInfo@12 100af024     comctl32:COMCTL32.dll
 0002:00000028       __imp___TrackMouseEvent@4  100af028     comctl32:COMCTL32.dll
 0002:0000002c       __imp__ImageList_SetBkColor@8 100af02c     comctl32:COMCTL32.dll
 0002:00000030       __imp__ImageList_GetBkColor@4 100af030     comctl32:COMCTL32.dll
 0002:00000034       __imp__ImageList_AddMasked@12 100af034     comctl32:COMCTL32.dll
 0002:00000038       \177COMCTL32_NULL_THUNK_DATA 100af038     comctl32:COMCTL32.dll
 0002:0000003c       __imp__PatBlt@24           100af03c     gdi32:GDI32.dll
 0002:00000040       __imp__PtVisible@12        100af040     gdi32:GDI32.dll
 0002:00000044       __imp__RectVisible@8       100af044     gdi32:GDI32.dll
 0002:00000048       __imp__GetTextExtentPoint32A@16 100af048     gdi32:GDI32.dll
 0002:0000004c       __imp__SelectObject@8      100af04c     gdi32:GDI32.dll
 0002:00000050       __imp__SetPixel@16         100af050     gdi32:GDI32.dll
 0002:00000054       __imp__CreateDIBSection@24 100af054     gdi32:GDI32.dll
 0002:00000058       __imp__GetObjectA@12       100af058     gdi32:GDI32.dll
 0002:0000005c       __imp__GetTextExtentPoint32W@16 100af05c     gdi32:GDI32.dll
 0002:00000060       __imp__GetPixel@12         100af060     gdi32:GDI32.dll
 0002:00000064       __imp__GetDeviceCaps@8     100af064     gdi32:GDI32.dll
 0002:00000068       __imp__Escape@20           100af068     gdi32:GDI32.dll
 0002:0000006c       __imp__Ellipse@20          100af06c     gdi32:GDI32.dll
 0002:00000070       __imp__DeleteObject@4      100af070     gdi32:GDI32.dll
 0002:00000074       __imp__DeleteDC@4          100af074     gdi32:GDI32.dll
 0002:00000078       __imp__CreateSolidBrush@4  100af078     gdi32:GDI32.dll
 0002:0000007c       __imp__CreatePen@12        100af07c     gdi32:GDI32.dll
 0002:00000080       __imp__CreateHatchBrush@8  100af080     gdi32:GDI32.dll
 0002:00000084       __imp__CreateCompatibleDC@4 100af084     gdi32:GDI32.dll
 0002:00000088       __imp__CreateFontIndirectA@4 100af088     gdi32:GDI32.dll
 0002:0000008c       __imp__CreateCompatibleBitmap@12 100af08c     gdi32:GDI32.dll
 0002:00000090       __imp__Rectangle@20        100af090     gdi32:GDI32.dll
 0002:00000094       __imp__GetBkMode@4         100af094     gdi32:GDI32.dll
 0002:00000098       __imp__TextOutA@20         100af098     gdi32:GDI32.dll
 0002:0000009c       __imp__SelectClipRgn@8     100af09c     gdi32:GDI32.dll
 0002:000000a0       __imp__CombineRgn@16       100af0a0     gdi32:GDI32.dll
 0002:000000a4       __imp__GetCurrentObject@8  100af0a4     gdi32:GDI32.dll
 0002:000000a8       __imp__RoundRect@28        100af0a8     gdi32:GDI32.dll
 0002:000000ac       __imp__CreateRectRgnIndirect@4 100af0ac     gdi32:GDI32.dll
 0002:000000b0       __imp__CreateDIBitmap@24   100af0b0     gdi32:GDI32.dll
 0002:000000b4       __imp__StretchBlt@44       100af0b4     gdi32:GDI32.dll
 0002:000000b8       __imp__SetViewportOrgEx@16 100af0b8     gdi32:GDI32.dll
 0002:000000bc       __imp__CreatePolygonRgn@12 100af0bc     gdi32:GDI32.dll
 0002:000000c0       __imp__GetViewportOrgEx@8  100af0c0     gdi32:GDI32.dll
 0002:000000c4       __imp__FillRgn@12          100af0c4     gdi32:GDI32.dll
 0002:000000c8       __imp__GetTextMetricsA@8   100af0c8     gdi32:GDI32.dll
 0002:000000cc       __imp__GetBkColor@4        100af0cc     gdi32:GDI32.dll
 0002:000000d0       __imp__CreateRectRgn@16    100af0d0     gdi32:GDI32.dll
 0002:000000d4       __imp__ExtTextOutA@32      100af0d4     gdi32:GDI32.dll
 0002:000000d8       __imp__BitBlt@36           100af0d8     gdi32:GDI32.dll
 0002:000000dc       \177GDI32_NULL_THUNK_DATA  100af0dc     gdi32:GDI32.dll
 0002:000000e0       __imp__TerminateProcess@8  100af0e0     kernel32:KERNEL32.dll
 0002:000000e4       __imp__QueryPerformanceCounter@4 100af0e4     kernel32:KERNEL32.dll
 0002:000000e8       __imp__GetCurrentProcessId@0 100af0e8     kernel32:KERNEL32.dll
 0002:000000ec       __imp__GetCurrentThreadId@0 100af0ec     kernel32:KERNEL32.dll
 0002:000000f0       __imp__MultiByteToWideChar@24 100af0f0     kernel32:KERNEL32.dll
 0002:000000f4       __imp__FindResourceA@12    100af0f4     kernel32:KERNEL32.dll
 0002:000000f8       __imp__lstrlenA@4          100af0f8     kernel32:KERNEL32.dll
 0002:000000fc       __imp__lstrcmpiA@8         100af0fc     kernel32:KERNEL32.dll
 0002:00000100       __imp__LockResource@4      100af100     kernel32:KERNEL32.dll
 0002:00000104       __imp__LoadResource@8      100af104     kernel32:KERNEL32.dll
 0002:00000108       __imp__GetCurrentProcess@0 100af108     kernel32:KERNEL32.dll
 0002:0000010c       __imp__RaiseException@16   100af10c     kernel32:KERNEL32.dll
 0002:00000110       __imp__GetVersion@0        100af110     kernel32:KERNEL32.dll
 0002:00000114       __imp__LoadLibraryA@4      100af114     kernel32:KERNEL32.dll
 0002:00000118       __imp__GetProcAddress@8    100af118     kernel32:KERNEL32.dll
 0002:0000011c       __imp__FreeLibrary@4       100af11c     kernel32:KERNEL32.dll
 0002:00000120       __imp__DeleteCriticalSection@4 100af120     kernel32:KERNEL32.dll
 0002:00000124       __imp__InitializeCriticalSectionEx@12 100af124     kernel32:KERNEL32.dll
 0002:00000128       __imp__GetLastError@0      100af128     kernel32:KERNEL32.dll
 0002:0000012c       __imp__OutputDebugStringW@4 100af12c     kernel32:KERNEL32.dll
 0002:00000130       __imp__GetSystemTimeAsFileTime@4 100af130     kernel32:KERNEL32.dll
 0002:00000134       __imp__InitializeSListHead@4 100af134     kernel32:KERNEL32.dll
 0002:00000138       __imp__GetVersionExA@4     100af138     kernel32:KERNEL32.dll
 0002:0000013c       __imp__WideCharToMultiByte@32 100af13c     kernel32:KERNEL32.dll
 0002:00000140       __imp__GetCPInfo@8         100af140     kernel32:KERNEL32.dll
 0002:00000144       __imp__GetSystemTime@4     100af144     kernel32:KERNEL32.dll
 0002:00000148       __imp__GetModuleHandleA@4  100af148     kernel32:KERNEL32.dll
 0002:0000014c       __imp__GetWindowsDirectoryA@8 100af14c     kernel32:KERNEL32.dll
 0002:00000150       __imp__GetLongPathNameA@12 100af150     kernel32:KERNEL32.dll
 0002:00000154       __imp__GetModuleFileNameA@12 100af154     kernel32:KERNEL32.dll
 0002:00000158       __imp__GetPrivateProfileStringA@24 100af158     kernel32:KERNEL32.dll
 0002:0000015c       __imp__GlobalAlloc@8       100af15c     kernel32:KERNEL32.dll
 0002:00000160       __imp__GlobalFree@4        100af160     kernel32:KERNEL32.dll
 0002:00000164       __imp__GetEnvironmentVariableA@12 100af164     kernel32:KERNEL32.dll
 0002:00000168       __imp__OutputDebugStringA@4 100af168     kernel32:KERNEL32.dll
 0002:0000016c       __imp__lstrcmpA@8          100af16c     kernel32:KERNEL32.dll
 0002:00000170       __imp__GetPrivateProfileIntA@16 100af170     kernel32:KERNEL32.dll
 0002:00000174       __imp__WritePrivateProfileStringA@16 100af174     kernel32:KERNEL32.dll
 0002:00000178       __imp__DeleteFileA@4       100af178     kernel32:KERNEL32.dll
 0002:0000017c       __imp__lstrcpyA@8          100af17c     kernel32:KERNEL32.dll
 0002:00000180       __imp__Sleep@4             100af180     kernel32:KERNEL32.dll
 0002:00000184       __imp__lstrcpynA@12        100af184     kernel32:KERNEL32.dll
 0002:00000188       __imp__DecodePointer@4     100af188     kernel32:KERNEL32.dll
 0002:0000018c       __imp__HeapDestroy@4       100af18c     kernel32:KERNEL32.dll
 0002:00000190       __imp__HeapAlloc@12        100af190     kernel32:KERNEL32.dll
 0002:00000194       __imp__HeapReAlloc@16      100af194     kernel32:KERNEL32.dll
 0002:00000198       __imp__HeapFree@12         100af198     kernel32:KERNEL32.dll
 0002:0000019c       __imp__HeapSize@12         100af19c     kernel32:KERNEL32.dll
 0002:000001a0       __imp__GetProcessHeap@0    100af1a0     kernel32:KERNEL32.dll
 0002:000001a4       __imp__CopyFileA@12        100af1a4     kernel32:KERNEL32.dll
 0002:000001a8       __imp__SetLastError@4      100af1a8     kernel32:KERNEL32.dll
 0002:000001ac       __imp__InitializeCriticalSectionAndSpinCount@8 100af1ac     kernel32:KERNEL32.dll
 0002:000001b0       __imp__GetModuleFileNameW@12 100af1b0     kernel32:KERNEL32.dll
 0002:000001b4       __imp__GetModuleHandleW@4  100af1b4     kernel32:KERNEL32.dll
 0002:000001b8       __imp__LoadLibraryW@4      100af1b8     kernel32:KERNEL32.dll
 0002:000001bc       __imp__LocalAlloc@8        100af1bc     kernel32:KERNEL32.dll
 0002:000001c0       __imp__LocalFree@4         100af1c0     kernel32:KERNEL32.dll
 0002:000001c4       __imp__CloseHandle@4       100af1c4     kernel32:KERNEL32.dll
 0002:000001c8       __imp__EnterCriticalSection@4 100af1c8     kernel32:KERNEL32.dll
 0002:000001cc       __imp__LeaveCriticalSection@4 100af1cc     kernel32:KERNEL32.dll
 0002:000001d0       __imp__SetEvent@4          100af1d0     kernel32:KERNEL32.dll
 0002:000001d4       __imp__ResetEvent@4        100af1d4     kernel32:KERNEL32.dll
 0002:000001d8       __imp__WaitForSingleObjectEx@12 100af1d8     kernel32:KERNEL32.dll
 0002:000001dc       __imp__CreateEventW@16     100af1dc     kernel32:KERNEL32.dll
 0002:000001e0       __imp__IsProcessorFeaturePresent@4 100af1e0     kernel32:KERNEL32.dll
 0002:000001e4       __imp__GetStartupInfoW@4   100af1e4     kernel32:KERNEL32.dll
 0002:000001e8       __imp__IsDebuggerPresent@0 100af1e8     kernel32:KERNEL32.dll
 0002:000001ec       __imp__UnhandledExceptionFilter@4 100af1ec     kernel32:KERNEL32.dll
 0002:000001f0       __imp__SetUnhandledExceptionFilter@4 100af1f0     kernel32:KERNEL32.dll
 0002:000001f4       \177KERNEL32_NULL_THUNK_DATA 100af1f4     kernel32:KERNEL32.dll
 0002:000001f8       __imp__SysAllocString@4    100af1f8     oleaut32:OLEAUT32.dll
 0002:000001fc       __imp__SysFreeString@4     100af1fc     oleaut32:OLEAUT32.dll
 0002:00000200       __imp__VariantInit@4       100af200     oleaut32:OLEAUT32.dll
 0002:00000204       __imp__VariantClear@4      100af204     oleaut32:OLEAUT32.dll
 0002:00000208       __imp__VariantChangeType@16 100af208     oleaut32:OLEAUT32.dll
 0002:0000020c       __imp__GetErrorInfo@8      100af20c     oleaut32:OLEAUT32.dll
 0002:00000210       __imp__SetErrorInfo@8      100af210     oleaut32:OLEAUT32.dll
 0002:00000214       __imp__CreateErrorInfo@4   100af214     oleaut32:OLEAUT32.dll
 0002:00000218       \177OLEAUT32_NULL_THUNK_DATA 100af218     oleaut32:OLEAUT32.dll
 0002:0000021c       __imp__GetCapture@0        100af21c     user32:USER32.dll
 0002:00000220       __imp__SystemParametersInfoA@16 100af220     user32:USER32.dll
 0002:00000224       __imp__DrawIconEx@36       100af224     user32:USER32.dll
 0002:00000228       __imp__DestroyIcon@4       100af228     user32:USER32.dll
 0002:0000022c       __imp__LoadBitmapW@8       100af22c     user32:USER32.dll
 0002:00000230       __imp__GetDesktopWindow@0  100af230     user32:USER32.dll
 0002:00000234       __imp__CopyRect@8          100af234     user32:USER32.dll
 0002:00000238       __imp__SetRect@20          100af238     user32:USER32.dll
 0002:0000023c       __imp__FillRect@12         100af23c     user32:USER32.dll
 0002:00000240       __imp__GetSysColorBrush@4  100af240     user32:USER32.dll
 0002:00000244       __imp__GetSysColor@4       100af244     user32:USER32.dll
 0002:00000248       __imp__ReleaseDC@8         100af248     user32:USER32.dll
 0002:0000024c       __imp__GetDC@4             100af24c     user32:USER32.dll
 0002:00000250       __imp__TabbedTextOutA@32   100af250     user32:USER32.dll
 0002:00000254       __imp__GrayStringA@36      100af254     user32:USER32.dll
 0002:00000258       __imp__DrawTextExA@24      100af258     user32:USER32.dll
 0002:0000025c       __imp__DrawTextA@20        100af25c     user32:USER32.dll
 0002:00000260       __imp__GetMenuItemInfoA@16 100af260     user32:USER32.dll
 0002:00000264       __imp__DeleteMenu@12       100af264     user32:USER32.dll
 0002:00000268       __imp__RemoveMenu@12       100af268     user32:USER32.dll
 0002:0000026c       __imp__ModifyMenuA@20      100af26c     user32:USER32.dll
 0002:00000270       __imp__AppendMenuA@16      100af270     user32:USER32.dll
 0002:00000274       __imp__InsertMenuA@20      100af274     user32:USER32.dll
 0002:00000278       __imp__GetMenuItemCount@4  100af278     user32:USER32.dll
 0002:0000027c       __imp__GetMenuItemID@8     100af27c     user32:USER32.dll
 0002:00000280       __imp__GetSubMenu@8        100af280     user32:USER32.dll
 0002:00000284       __imp__CreatePopupMenu@0   100af284     user32:USER32.dll
 0002:00000288       __imp__CreateMenu@0        100af288     user32:USER32.dll
 0002:0000028c       __imp__GetMenuState@12     100af28c     user32:USER32.dll
 0002:00000290       __imp__GetSystemMetrics@4  100af290     user32:USER32.dll
 0002:00000294       __imp__DrawEdge@16         100af294     user32:USER32.dll
 0002:00000298       __imp__LoadImageA@24       100af298     user32:USER32.dll
 0002:0000029c       __imp__GetClientRect@8     100af29c     user32:USER32.dll
 0002:000002a0       __imp__EnableWindow@8      100af2a0     user32:USER32.dll
 0002:000002a4       __imp__IsWindow@4          100af2a4     user32:USER32.dll
 0002:000002a8       __imp__UnregisterClassA@8  100af2a8     user32:USER32.dll
 0002:000002ac       __imp__SendMessageA@16     100af2ac     user32:USER32.dll
 0002:000002b0       __imp__RegisterWindowMessageA@4 100af2b0     user32:USER32.dll
 0002:000002b4       __imp__KillTimer@8         100af2b4     user32:USER32.dll
 0002:000002b8       __imp__InvalidateRect@12   100af2b8     user32:USER32.dll
 0002:000002bc       __imp__GetCursorPos@4      100af2bc     user32:USER32.dll
 0002:000002c0       __imp__MapWindowPoints@16  100af2c0     user32:USER32.dll
 0002:000002c4       __imp__WindowFromPoint@8   100af2c4     user32:USER32.dll
 0002:000002c8       __imp__PtInRect@12         100af2c8     user32:USER32.dll
 0002:000002cc       __imp__UpdateWindow@4      100af2cc     user32:USER32.dll
 0002:000002d0       __imp__GetWindowRect@8     100af2d0     user32:USER32.dll
 0002:000002d4       __imp__SetCursor@4         100af2d4     user32:USER32.dll
 0002:000002d8       __imp__OffsetRect@12       100af2d8     user32:USER32.dll
 0002:000002dc       __imp__GetParent@4         100af2dc     user32:USER32.dll
 0002:000002e0       __imp__LoadCursorA@8       100af2e0     user32:USER32.dll
 0002:000002e4       __imp__CopyIcon@4          100af2e4     user32:USER32.dll
 0002:000002e8       __imp__SetCapture@4        100af2e8     user32:USER32.dll
 0002:000002ec       __imp__ReleaseCapture@0    100af2ec     user32:USER32.dll
 0002:000002f0       __imp__ClientToScreen@8    100af2f0     user32:USER32.dll
 0002:000002f4       __imp__InflateRect@12      100af2f4     user32:USER32.dll
 0002:000002f8       __imp__SetRectEmpty@4      100af2f8     user32:USER32.dll
 0002:000002fc       __imp__UnionRect@12        100af2fc     user32:USER32.dll
 0002:00000300       __imp__PostMessageA@16     100af300     user32:USER32.dll
 0002:00000304       __imp__GetAsyncKeyState@4  100af304     user32:USER32.dll
 0002:00000308       __imp__SetMenuDefaultItem@12 100af308     user32:USER32.dll
 0002:0000030c       __imp__ScreenToClient@8    100af30c     user32:USER32.dll
 0002:00000310       __imp__IsRectEmpty@4       100af310     user32:USER32.dll
 0002:00000314       __imp__DrawFrameControl@16 100af314     user32:USER32.dll
 0002:00000318       __imp__GetMessageA@16      100af318     user32:USER32.dll
 0002:0000031c       __imp__DispatchMessageA@4  100af31c     user32:USER32.dll
 0002:00000320       __imp__GetMessagePos@0     100af320     user32:USER32.dll
 0002:00000324       __imp__IsChild@8           100af324     user32:USER32.dll
 0002:00000328       __imp__GetFocus@0          100af328     user32:USER32.dll
 0002:0000032c       __imp__GetCursor@0         100af32c     user32:USER32.dll
 0002:00000330       __imp__LoadCursorW@8       100af330     user32:USER32.dll
 0002:00000334       __imp__FrameRect@12        100af334     user32:USER32.dll
 0002:00000338       __imp__GetWindowLongA@8    100af338     user32:USER32.dll
 0002:0000033c       __imp__BringWindowToTop@4  100af33c     user32:USER32.dll
 0002:00000340       __imp__SetScrollPos@16     100af340     user32:USER32.dll
 0002:00000344       __imp__GetNextDlgGroupItem@12 100af344     user32:USER32.dll
 0002:00000348       __imp__SetWindowRgn@12     100af348     user32:USER32.dll
 0002:0000034c       __imp__DrawFocusRect@8     100af34c     user32:USER32.dll
 0002:00000350       __imp__GetWindow@8         100af350     user32:USER32.dll
 0002:00000354       __imp__SetFocus@4          100af354     user32:USER32.dll
 0002:00000358       __imp__GetKeyState@4       100af358     user32:USER32.dll
 0002:0000035c       __imp__EqualRect@8         100af35c     user32:USER32.dll
 0002:00000360       __imp__SetParent@8         100af360     user32:USER32.dll
 0002:00000364       __imp__ClipCursor@4        100af364     user32:USER32.dll
 0002:00000368       __imp__SetWindowLongA@12   100af368     user32:USER32.dll
 0002:0000036c       __imp__IsWindowVisible@4   100af36c     user32:USER32.dll
 0002:00000370       __imp__IsWindowEnabled@4   100af370     user32:USER32.dll
 0002:00000374       __imp__GetWindowTextA@12   100af374     user32:USER32.dll
 0002:00000378       __imp__BeginDeferWindowPos@4 100af378     user32:USER32.dll
 0002:0000037c       __imp__DeferWindowPos@32   100af37c     user32:USER32.dll
 0002:00000380       __imp__EndDeferWindowPos@4 100af380     user32:USER32.dll
 0002:00000384       __imp__GetClassNameA@12    100af384     user32:USER32.dll
 0002:00000388       __imp__SetTimer@16         100af388     user32:USER32.dll
 0002:0000038c       __imp__DestroyCursor@4     100af38c     user32:USER32.dll
 0002:00000390       \177USER32_NULL_THUNK_DATA 100af390     user32:USER32.dll
 0002:00000394       __imp____CxxFrameHandler3  100af394     vcruntime:VCRUNTIME140.dll
 0002:00000398       __imp____RTDynamicCast     100af398     vcruntime:VCRUNTIME140.dll
 0002:0000039c       __imp__memcpy              100af39c     vcruntime:VCRUNTIME140.dll
 0002:000003a0       __imp__memmove             100af3a0     vcruntime:VCRUNTIME140.dll
 0002:000003a4       __imp__memset              100af3a4     vcruntime:VCRUNTIME140.dll
 0002:000003a8       __imp____std_terminate     100af3a8     vcruntime:VCRUNTIME140.dll
 0002:000003ac       __imp____current_exception 100af3ac     vcruntime:VCRUNTIME140.dll
 0002:000003b0       __imp____current_exception_context 100af3b0     vcruntime:VCRUNTIME140.dll
 0002:000003b4       __imp___except_handler4_common 100af3b4     vcruntime:VCRUNTIME140.dll
 0002:000003b8       __imp____std_type_info_destroy_list 100af3b8     vcruntime:VCRUNTIME140.dll
 0002:000003bc       __imp___CxxThrowException@8 100af3bc     vcruntime:VCRUNTIME140.dll
 0002:000003c0       __imp__strrchr             100af3c0     vcruntime:VCRUNTIME140.dll
 0002:000003c4       \177VCRUNTIME140_NULL_THUNK_DATA 100af3c4     vcruntime:VCRUNTIME140.dll
 0002:000003c8       __imp__PlaySoundA@12       100af3c8     Winmm:WINMM.dll
 0002:000003cc       \177WINMM_NULL_THUNK_DATA  100af3cc     Winmm:WINMM.dll
 0002:000003d0       __imp__atoi                100af3d0     ucrt:api-ms-win-crt-convert-l1-1-0.dll
 0002:000003d4       __imp__atol                100af3d4     ucrt:api-ms-win-crt-convert-l1-1-0.dll
 0002:000003d8       __imp__atof                100af3d8     ucrt:api-ms-win-crt-convert-l1-1-0.dll
 0002:000003dc       \177api-ms-win-crt-convert-l1-1-0_NULL_THUNK_DATA 100af3dc     ucrt:api-ms-win-crt-convert-l1-1-0.dll
 0002:000003e0       __imp___access             100af3e0     ucrt:api-ms-win-crt-filesystem-l1-1-0.dll
 0002:000003e4       __imp___mkdir              100af3e4     ucrt:api-ms-win-crt-filesystem-l1-1-0.dll
 0002:000003e8       \177api-ms-win-crt-filesystem-l1-1-0_NULL_THUNK_DATA 100af3e8     ucrt:api-ms-win-crt-filesystem-l1-1-0.dll
 0002:000003ec       __imp___recalloc           100af3ec     ucrt:api-ms-win-crt-heap-l1-1-0.dll
 0002:000003f0       __imp__free                100af3f0     ucrt:api-ms-win-crt-heap-l1-1-0.dll
 0002:000003f4       __imp__malloc              100af3f4     ucrt:api-ms-win-crt-heap-l1-1-0.dll
 0002:000003f8       \177api-ms-win-crt-heap-l1-1-0_NULL_THUNK_DATA 100af3f8     ucrt:api-ms-win-crt-heap-l1-1-0.dll
 0002:000003fc       __imp___libm_sse2_atan_precise 100af3fc     ucrt:api-ms-win-crt-math-l1-1-0.dll
 0002:00000400       __imp___libm_sse2_exp_precise 100af400     ucrt:api-ms-win-crt-math-l1-1-0.dll
 0002:00000404       __imp___libm_sse2_log_precise 100af404     ucrt:api-ms-win-crt-math-l1-1-0.dll
 0002:00000408       __imp___libm_sse2_pow_precise 100af408     ucrt:api-ms-win-crt-math-l1-1-0.dll
 0002:0000040c       __imp___libm_sse2_sqrt_precise 100af40c     ucrt:api-ms-win-crt-math-l1-1-0.dll
 0002:00000410       __imp___libm_sse2_tan_precise 100af410     ucrt:api-ms-win-crt-math-l1-1-0.dll
 0002:00000414       __imp__floor               100af414     ucrt:api-ms-win-crt-math-l1-1-0.dll
 0002:00000418       \177api-ms-win-crt-math-l1-1-0_NULL_THUNK_DATA 100af418     ucrt:api-ms-win-crt-math-l1-1-0.dll
 0002:0000041c       __imp___mbslen             100af41c     ucrt:api-ms-win-crt-multibyte-l1-1-0.dll
 0002:00000420       __imp___mbsnbicmp          100af420     ucrt:api-ms-win-crt-multibyte-l1-1-0.dll
 0002:00000424       __imp___mbsicmp            100af424     ucrt:api-ms-win-crt-multibyte-l1-1-0.dll
 0002:00000428       \177api-ms-win-crt-multibyte-l1-1-0_NULL_THUNK_DATA 100af428     ucrt:api-ms-win-crt-multibyte-l1-1-0.dll
 0002:0000042c       __imp___invalid_parameter_noinfo 100af42c     ucrt:api-ms-win-crt-runtime-l1-1-0.dll
 0002:00000430       __imp___errno              100af430     ucrt:api-ms-win-crt-runtime-l1-1-0.dll
 0002:00000434       __imp___initterm           100af434     ucrt:api-ms-win-crt-runtime-l1-1-0.dll
 0002:00000438       __imp___initterm_e         100af438     ucrt:api-ms-win-crt-runtime-l1-1-0.dll
 0002:0000043c       __imp__terminate           100af43c     ucrt:api-ms-win-crt-runtime-l1-1-0.dll
 0002:00000440       __imp___cexit              100af440     ucrt:api-ms-win-crt-runtime-l1-1-0.dll
 0002:00000444       __imp___seh_filter_dll     100af444     ucrt:api-ms-win-crt-runtime-l1-1-0.dll
 0002:00000448       __imp___crt_at_quick_exit  100af448     ucrt:api-ms-win-crt-runtime-l1-1-0.dll
 0002:0000044c       __imp___crt_atexit         100af44c     ucrt:api-ms-win-crt-runtime-l1-1-0.dll
 0002:00000450       __imp___execute_onexit_table 100af450     ucrt:api-ms-win-crt-runtime-l1-1-0.dll
 0002:00000454       __imp___configure_narrow_argv 100af454     ucrt:api-ms-win-crt-runtime-l1-1-0.dll
 0002:00000458       __imp___register_onexit_function 100af458     ucrt:api-ms-win-crt-runtime-l1-1-0.dll
 0002:0000045c       __imp___initialize_narrow_environment 100af45c     ucrt:api-ms-win-crt-runtime-l1-1-0.dll
 0002:00000460       __imp___initialize_onexit_table 100af460     ucrt:api-ms-win-crt-runtime-l1-1-0.dll
 0002:00000464       \177api-ms-win-crt-runtime-l1-1-0_NULL_THUNK_DATA 100af464     ucrt:api-ms-win-crt-runtime-l1-1-0.dll
 0002:00000468       __imp____stdio_common_vsprintf 100af468     ucrt:api-ms-win-crt-stdio-l1-1-0.dll
 0002:0000046c       __imp____stdio_common_vsscanf 100af46c     ucrt:api-ms-win-crt-stdio-l1-1-0.dll
 0002:00000470       \177api-ms-win-crt-stdio-l1-1-0_NULL_THUNK_DATA 100af470     ucrt:api-ms-win-crt-stdio-l1-1-0.dll
 0002:00000474       __imp__strncmp             100af474     ucrt:api-ms-win-crt-string-l1-1-0.dll
 0002:00000478       __imp__strncpy             100af478     ucrt:api-ms-win-crt-string-l1-1-0.dll
 0002:0000047c       __imp__isdigit             100af47c     ucrt:api-ms-win-crt-string-l1-1-0.dll
 0002:00000480       __imp__isspace             100af480     ucrt:api-ms-win-crt-string-l1-1-0.dll
 0002:00000484       \177api-ms-win-crt-string-l1-1-0_NULL_THUNK_DATA 100af484     ucrt:api-ms-win-crt-string-l1-1-0.dll
 0002:00000488       __imp___mktime64           100af488     ucrt:api-ms-win-crt-time-l1-1-0.dll
 0002:0000048c       __imp__strftime            100af48c     ucrt:api-ms-win-crt-time-l1-1-0.dll
 0002:00000490       __imp___time64             100af490     ucrt:api-ms-win-crt-time-l1-1-0.dll
 0002:00000494       __imp___localtime64_s      100af494     ucrt:api-ms-win-crt-time-l1-1-0.dll
 0002:00000498       \177api-ms-win-crt-time-l1-1-0_NULL_THUNK_DATA 100af498     ucrt:api-ms-win-crt-time-l1-1-0.dll
 0002:0000049c       __imp__qsort               100af49c     ucrt:api-ms-win-crt-utility-l1-1-0.dll
 0002:000004a0       \177api-ms-win-crt-utility-l1-1-0_NULL_THUNK_DATA 100af4a0     ucrt:api-ms-win-crt-utility-l1-1-0.dll
 0002:000004a4       __imp_?AfxExtractSubString@@YGHAAV?$CStringT@DV?$StrTraitMFC_DLL@DV?$ChTraitsCRT@D@ATL@@@@@ATL@@PBDHD@Z 100af4a4     mfc140:mfc140.dll
 0002:000004a8       __imp_?wndBottom@CWnd@@2V1@B 100af4a8     mfc140:mfc140.dll
 0002:000004ac       __imp_?SetAtGrow@CStringArray@@QAEXHPBD@Z 100af4ac     mfc140:mfc140.dll
 0002:000004b0       __imp_?SetAtGrow@CStringArray@@QAEXHABV?$CStringT@DV?$StrTraitMFC_DLL@DV?$ChTraitsCRT@D@ATL@@@@@ATL@@@Z 100af4b0     mfc140:mfc140.dll
 0002:000004b4       __imp_?GetFilePath@CFileFind@@UBE?AV?$CStringT@DV?$StrTraitMFC_DLL@DV?$ChTraitsCRT@D@ATL@@@@@ATL@@XZ 100af4b4     mfc140:mfc140.dll
 0002:000004b8       __imp_?FindNextFileA@CFileFind@@UAEHXZ 100af4b8     mfc140:mfc140.dll
 0002:000004bc       __imp_?AddTail@CStringList@@QAEPAU__POSITION@@ABV?$CStringT@DV?$StrTraitMFC_DLL@DV?$ChTraitsCRT@D@ATL@@@@@ATL@@@Z 100af4bc     mfc140:mfc140.dll
 0002:000004c0       __imp_?Find@CStringList@@QBEPAU__POSITION@@PBDPAU2@@Z 100af4c0     mfc140:mfc140.dll
 0002:000004c4       __imp_?TrackPopupMenu@CMenu@@QAEHIHHPAVCWnd@@PBUtagRECT@@@Z 100af4c4     mfc140:mfc140.dll
 0002:000004c8       __imp_?GetDlgItem@CWnd@@QBEPAV1@H@Z 100af4c8     mfc140:mfc140.dll
 0002:000004cc       __imp_?MessageBoxA@CWnd@@QAEHPBD0I@Z 100af4cc     mfc140:mfc140.dll
 0002:000004d0       __imp_??0AFX_MAINTAIN_STATE2@@QAE@PAVAFX_MODULE_STATE@@@Z 100af4d0     mfc140:mfc140.dll
 0002:000004d4       __imp_??1AFX_MAINTAIN_STATE2@@QAE@XZ 100af4d4     mfc140:mfc140.dll
 0002:000004d8       __imp_?OnFinalRelease@CCmdTarget@@UAEXXZ 100af4d8     mfc140:mfc140.dll
 0002:000004dc       __imp_?GetInterfaceMap@CCmdTarget@@MBEPBUAFX_INTERFACEMAP@@XZ 100af4dc     mfc140:mfc140.dll
 0002:000004e0       __imp_?PreTranslateMessage@CWinThread@@UAEHPAUtagMSG@@@Z 100af4e0     mfc140:mfc140.dll
 0002:000004e4       __imp_?PumpMessage@CWinThread@@UAEHXZ 100af4e4     mfc140:mfc140.dll
 0002:000004e8       __imp_?IsIdleMessage@CWinThread@@UAEHPAUtagMSG@@@Z 100af4e8     mfc140:mfc140.dll
 0002:000004ec       __imp_?ProcessMessageFilter@CWinThread@@UAEHHPAUtagMSG@@@Z 100af4ec     mfc140:mfc140.dll
 0002:000004f0       __imp_?GetMainWnd@CWinThread@@UAEPAVCWnd@@XZ 100af4f0     mfc140:mfc140.dll
 0002:000004f4       __imp_?Delete@CWinThread@@UAEXXZ 100af4f4     mfc140:mfc140.dll
 0002:000004f8       __imp_?GetRuntimeClass@CWinApp@@UBEPAUCRuntimeClass@@XZ 100af4f8     mfc140:mfc140.dll
 0002:000004fc       __imp_??0CWinApp@@QAE@PBD@Z 100af4fc     mfc140:mfc140.dll
 0002:00000500       __imp_?GetProfileIntA@CWinApp@@UAEIPBD0H@Z 100af500     mfc140:mfc140.dll
 0002:00000504       __imp_?WriteProfileInt@CWinApp@@UAEHPBD0H@Z 100af504     mfc140:mfc140.dll
 0002:00000508       __imp_?GetProfileStringA@CWinApp@@UAE?AV?$CStringT@DV?$StrTraitMFC_DLL@DV?$ChTraitsCRT@D@ATL@@@@@ATL@@PBD00@Z 100af508     mfc140:mfc140.dll
 0002:0000050c       __imp_?WriteProfileStringA@CWinApp@@UAEHPBD00@Z 100af50c     mfc140:mfc140.dll
 0002:00000510       __imp_?GetProfileBinary@CWinApp@@UAEHPBD0PAPAEPAI@Z 100af510     mfc140:mfc140.dll
 0002:00000514       __imp_?WriteProfileBinary@CWinApp@@UAEHPBD0PAEI@Z 100af514     mfc140:mfc140.dll
 0002:00000518       __imp_?InitLibId@CWinApp@@UAEXXZ 100af518     mfc140:mfc140.dll
 0002:0000051c       __imp_?Register@CWinApp@@UAEHXZ 100af51c     mfc140:mfc140.dll
 0002:00000520       __imp_?Unregister@CWinApp@@UAEHXZ 100af520     mfc140:mfc140.dll
 0002:00000524       __imp_?OpenDocumentFile@CWinApp@@UAEPAVCDocument@@PBD@Z 100af524     mfc140:mfc140.dll
 0002:00000528       __imp_?OpenDocumentFile@CWinApp@@UAEPAVCDocument@@PBDH@Z 100af528     mfc140:mfc140.dll
 0002:0000052c       __imp_?AddToRecentFileList@CWinApp@@UAEXPBD@Z 100af52c     mfc140:mfc140.dll
 0002:00000530       __imp_?InitApplication@CWinApp@@UAEHXZ 100af530     mfc140:mfc140.dll
 0002:00000534       __imp_?SaveAllModified@CWinApp@@UAEHXZ 100af534     mfc140:mfc140.dll
 0002:00000538       __imp_?DoMessageBox@CWinApp@@UAEHPBDII@Z 100af538     mfc140:mfc140.dll
 0002:0000053c       __imp_?DoWaitCursor@CWinApp@@UAEXH@Z 100af53c     mfc140:mfc140.dll
 0002:00000540       __imp_?OnDDECommand@CWinApp@@UAEHPAD@Z 100af540     mfc140:mfc140.dll
 0002:00000544       __imp_?WinHelpA@CWinApp@@UAEXKI@Z 100af544     mfc140:mfc140.dll
 0002:00000548       __imp_?HtmlHelpA@CWinApp@@UAEXKI@Z 100af548     mfc140:mfc140.dll
 0002:0000054c       __imp_?WinHelpInternal@CWinApp@@UAEXKI@Z 100af54c     mfc140:mfc140.dll
 0002:00000550       __imp_?RegisterWithRestartManager@CWinApp@@UAEJHABV?$CStringT@DV?$StrTraitMFC_DLL@DV?$ChTraitsCRT@D@ATL@@@@@ATL@@@Z 100af550     mfc140:mfc140.dll
 0002:00000554       __imp_?RegisterWithRestartManager@CWinApp@@UAEJPB_WKP6GKPAX@Z1KK@Z 100af554     mfc140:mfc140.dll
 0002:00000558       __imp_?ApplicationRecoveryCallback@CWinApp@@UAEKPAX@Z 100af558     mfc140:mfc140.dll
 0002:0000055c       __imp_?GetDataRecoveryHandler@CWinApp@@UAEPAVCDataRecoveryHandler@@XZ 100af55c     mfc140:mfc140.dll
 0002:00000560       __imp_?IsTaskbarInteractionEnabled@CWinApp@@UAEHXZ 100af560     mfc140:mfc140.dll
 0002:00000564       __imp_?ExitInstance@CWinApp@@UAEHXZ 100af564     mfc140:mfc140.dll
 0002:00000568       __imp_?RestartInstance@CWinApp@@UAEHXZ 100af568     mfc140:mfc140.dll
 0002:0000056c       __imp_?Run@CWinApp@@UAEHXZ 100af56c     mfc140:mfc140.dll
 0002:00000570       __imp_?OnIdle@CWinApp@@UAEHJ@Z 100af570     mfc140:mfc140.dll
 0002:00000574       __imp_?ProcessWndProcException@CWinApp@@UAEJPAVCException@@PBUtagMSG@@@Z 100af574     mfc140:mfc140.dll
 0002:00000578       __imp_?LoadAppLangResourceDLL@CWinApp@@UAEPAUHINSTANCE__@@XZ 100af578     mfc140:mfc140.dll
 0002:0000057c       __imp_??1CWinApp@@UAE@XZ   100af57c     mfc140:mfc140.dll
 0002:00000580       __imp_?GetThisMessageMap@CWinApp@@KGPBUAFX_MSGMAP@@XZ 100af580     mfc140:mfc140.dll
 0002:00000584       __imp_?LoadSysPolicies@CWinApp@@UAEHXZ 100af584     mfc140:mfc140.dll
 0002:00000588       __imp_?RegisterAll@COleObjectFactory@@SGHXZ 100af588     mfc140:mfc140.dll
 0002:0000058c       __imp_?UpdateRegistryAll@COleObjectFactory@@SGHH@Z 100af58c     mfc140:mfc140.dll
 0002:00000590       __imp_?AfxDllGetClassObject@@YGJABU_GUID@@0PAPAX@Z 100af590     mfc140:mfc140.dll
 0002:00000594       __imp_?AfxDllCanUnloadNow@@YGJXZ 100af594     mfc140:mfc140.dll
 0002:00000598       __imp_?AfxGetModuleState@@YGPAVAFX_MODULE_STATE@@XZ 100af598     mfc140:mfc140.dll
 0002:0000059c       __imp_?ExcludeClipRect@CDC@@QAEHPBUtagRECT@@@Z 100af59c     mfc140:mfc140.dll
 0002:000005a0       __imp_?AfxLockTempMaps@@YGXXZ 100af5a0     mfc140:mfc140.dll
 0002:000005a4       __imp_?AfxUnlockTempMaps@@YGHH@Z 100af5a4     mfc140:mfc140.dll
 0002:000005a8       __imp_?FromHandle@CImageList@@SGPAV1@PAU_IMAGELIST@@@Z 100af5a8     mfc140:mfc140.dll
 0002:000005ac       __imp_?EnableWindow@CWnd@@QAEHH@Z 100af5ac     mfc140:mfc140.dll
 0002:000005b0       __imp_?GetRuntimeClass@CListCtrl@@UBEPAUCRuntimeClass@@XZ 100af5b0     mfc140:mfc140.dll
 0002:000005b4       __imp_?GetItemText@CListCtrl@@QBE?AV?$CStringT@DV?$StrTraitMFC_DLL@DV?$ChTraitsCRT@D@ATL@@@@@ATL@@HH@Z 100af5b4     mfc140:mfc140.dll
 0002:000005b8       __imp_?GetHeaderCtrl@CListCtrl@@QBEPAVCHeaderCtrl@@XZ 100af5b8     mfc140:mfc140.dll
 0002:000005bc       __imp_?DrawItem@CListCtrl@@UAEXPAUtagDRAWITEMSTRUCT@@@Z 100af5bc     mfc140:mfc140.dll
 0002:000005c0       __imp_?OnChildNotify@CListCtrl@@MAEHIIJPAJ@Z 100af5c0     mfc140:mfc140.dll
 0002:000005c4       __imp_?LoadStringA@?$CStringT@DV?$StrTraitMFC_DLL@DV?$ChTraitsCRT@D@ATL@@@@@ATL@@QAEHI@Z 100af5c4     mfc140:mfc140.dll
 0002:000005c8       __imp_?OnCtlColor@CWnd@@IAEPAUHBRUSH__@@PAVCDC@@PAV1@I@Z 100af5c8     mfc140:mfc140.dll
 0002:000005cc       __imp_?GetRuntimeClass@CDialog@@UBEPAUCRuntimeClass@@XZ 100af5cc     mfc140:mfc140.dll
 0002:000005d0       __imp_?Create@CDialog@@UAEHPBDPAVCWnd@@@Z 100af5d0     mfc140:mfc140.dll
 0002:000005d4       __imp_?CreateIndirect@CDialog@@UAEHPBUDLGTEMPLATE@@PAVCWnd@@PAX@Z 100af5d4     mfc140:mfc140.dll
 0002:000005d8       __imp_?CreateIndirect@CDialog@@UAEHPAXPAVCWnd@@@Z 100af5d8     mfc140:mfc140.dll
 0002:000005dc       __imp_??0CDialog@@QAE@IPAVCWnd@@@Z 100af5dc     mfc140:mfc140.dll
 0002:000005e0       __imp_?DoModal@CDialog@@UAEHXZ 100af5e0     mfc140:mfc140.dll
 0002:000005e4       __imp_?OnInitDialog@CDialog@@UAEHXZ 100af5e4     mfc140:mfc140.dll
 0002:000005e8       __imp_?OnSetFont@CDialog@@UAEXPAVCFont@@@Z 100af5e8     mfc140:mfc140.dll
 0002:000005ec       __imp_?OnOK@CDialog@@MAEXXZ 100af5ec     mfc140:mfc140.dll
 0002:000005f0       __imp_?OnCancel@CDialog@@MAEXXZ 100af5f0     mfc140:mfc140.dll
 0002:000005f4       __imp_??1CDialog@@UAE@XZ   100af5f4     mfc140:mfc140.dll
 0002:000005f8       __imp_?PreTranslateMessage@CDialog@@UAEHPAUtagMSG@@@Z 100af5f8     mfc140:mfc140.dll
 0002:000005fc       __imp_?OnCmdMsg@CDialog@@UAEHIHPAXPAUAFX_CMDHANDLERINFO@@@Z 100af5fc     mfc140:mfc140.dll
 0002:00000600       __imp_?CheckAutoCenter@CDialog@@UAEHXZ 100af600     mfc140:mfc140.dll
 0002:00000604       __imp_?SetOccDialogInfo@CDialog@@MAEHPAU_AFX_OCC_DIALOG_INFO@@@Z 100af604     mfc140:mfc140.dll
 0002:00000608       __imp_?GetOccDialogInfo@CDialog@@MAEPAU_AFX_OCC_DIALOG_INFO@@XZ 100af608     mfc140:mfc140.dll
 0002:0000060c       __imp_?PreInitDialog@CDialog@@MAEXXZ 100af60c     mfc140:mfc140.dll
 0002:00000610       __imp_?GetThisMessageMap@CDialog@@KGPBUAFX_MSGMAP@@XZ 100af610     mfc140:mfc140.dll
 0002:00000614       __imp_?GetThisClass@CTreeCtrl@@SGPAUCRuntimeClass@@XZ 100af614     mfc140:mfc140.dll
 0002:00000618       __imp_?GetRuntimeClass@CTreeCtrl@@UBEPAUCRuntimeClass@@XZ 100af618     mfc140:mfc140.dll
 0002:0000061c       __imp_?GetItemRect@CTreeCtrl@@QBEHPAU_TREEITEM@@PAUtagRECT@@H@Z 100af61c     mfc140:mfc140.dll
 0002:00000620       __imp_?GetItemText@CTreeCtrl@@QBE?AV?$CStringT@DV?$StrTraitMFC_DLL@DV?$ChTraitsCRT@D@ATL@@@@@ATL@@PAU_TREEITEM@@@Z 100af620     mfc140:mfc140.dll
 0002:00000624       __imp_?GetItemState@CTreeCtrl@@QBEIPAU_TREEITEM@@I@Z 100af624     mfc140:mfc140.dll
 0002:00000628       __imp_?SetItem@CTreeCtrl@@QAEHPAU_TREEITEM@@IPBDHHIIJ@Z 100af628     mfc140:mfc140.dll
 0002:0000062c       __imp_??1CTreeCtrl@@UAE@XZ 100af62c     mfc140:mfc140.dll
 0002:00000630       __imp_?GetThisMessageMap@CTreeCtrl@@KGPBUAFX_MSGMAP@@XZ 100af630     mfc140:mfc140.dll
 0002:00000634       __imp_?GetMessageMap@CTreeCtrl@@MBEPBUAFX_MSGMAP@@XZ 100af634     mfc140:mfc140.dll
 0002:00000638       __imp_?Create@CTreeCtrl@@QAEHKABUtagRECT@@PAVCWnd@@I@Z 100af638     mfc140:mfc140.dll
 0002:0000063c       __imp_?GetItemData@CTreeCtrl@@QBEKPAU_TREEITEM@@@Z 100af63c     mfc140:mfc140.dll
 0002:00000640       __imp_?ItemHasChildren@CTreeCtrl@@QBEHPAU_TREEITEM@@@Z 100af640     mfc140:mfc140.dll
 0002:00000644       __imp_?HitTest@CTreeCtrl@@QBEPAU_TREEITEM@@VCPoint@@PAI@Z 100af644     mfc140:mfc140.dll
 0002:00000648       __imp_?CollateNoCase@?$CStringT@DV?$StrTraitMFC_DLL@DV?$ChTraitsCRT@D@ATL@@@@@ATL@@QBEHPBD@Z 100af648     mfc140:mfc140.dll
 0002:0000064c       __imp_?GetRuntimeClass@CStringArray@@UBEPAUCRuntimeClass@@XZ 100af64c     mfc140:mfc140.dll
 0002:00000650       __imp_?Serialize@CStringArray@@UAEXAAVCArchive@@@Z 100af650     mfc140:mfc140.dll
 0002:00000654       __imp_?GetScrollPos@CWnd@@QBEHH@Z 100af654     mfc140:mfc140.dll
 0002:00000658       __imp_?GetScrollInfo@CWnd@@QAEHHPAUtagSCROLLINFO@@I@Z 100af658     mfc140:mfc140.dll
 0002:0000065c       __imp_?SetItemState@CListCtrl@@QAEHHII@Z 100af65c     mfc140:mfc140.dll
 0002:00000660       __imp_?InsertColumn@CListCtrl@@QAEHHPBDHHH@Z 100af660     mfc140:mfc140.dll
 0002:00000664       __imp_??1CListCtrl@@UAE@XZ 100af664     mfc140:mfc140.dll
 0002:00000668       __imp_?GetThisMessageMap@CListCtrl@@KGPBUAFX_MSGMAP@@XZ 100af668     mfc140:mfc140.dll
 0002:0000066c       __imp_?GetMessageMap@CListCtrl@@MBEPBUAFX_MSGMAP@@XZ 100af66c     mfc140:mfc140.dll
 0002:00000670       __imp_??4?$CStringT@DV?$StrTraitMFC_DLL@DV?$ChTraitsCRT@D@ATL@@@@@ATL@@QAEAAV01@D@Z 100af670     mfc140:mfc140.dll
 0002:00000674       __imp_?GetCurrentMessage@CWnd@@KGPBUtagMSG@@XZ 100af674     mfc140:mfc140.dll
 0002:00000678       __imp_?SetScrollInfo@CWnd@@QAEHHPAUtagSCROLLINFO@@H@Z 100af678     mfc140:mfc140.dll
 0002:0000067c       __imp_?GetRuntimeClass@CListBox@@UBEPAUCRuntimeClass@@XZ 100af67c     mfc140:mfc140.dll
 0002:00000680       __imp_?Create@CListBox@@UAEHKABUtagRECT@@PAVCWnd@@I@Z 100af680     mfc140:mfc140.dll
 0002:00000684       __imp_?ItemFromPoint@CListBox@@QBEIVCPoint@@AAH@Z 100af684     mfc140:mfc140.dll
 0002:00000688       __imp_?DrawItem@CListBox@@UAEXPAUtagDRAWITEMSTRUCT@@@Z 100af688     mfc140:mfc140.dll
 0002:0000068c       __imp_?MeasureItem@CListBox@@UAEXPAUtagMEASUREITEMSTRUCT@@@Z 100af68c     mfc140:mfc140.dll
 0002:00000690       __imp_?CompareItem@CListBox@@UAEHPAUtagCOMPAREITEMSTRUCT@@@Z 100af690     mfc140:mfc140.dll
 0002:00000694       __imp_?DeleteItem@CListBox@@UAEXPAUtagDELETEITEMSTRUCT@@@Z 100af694     mfc140:mfc140.dll
 0002:00000698       __imp_?VKeyToItem@CListBox@@UAEHII@Z 100af698     mfc140:mfc140.dll
 0002:0000069c       __imp_?CharToItem@CListBox@@UAEHII@Z 100af69c     mfc140:mfc140.dll
 0002:000006a0       __imp_??1CListBox@@UAE@XZ  100af6a0     mfc140:mfc140.dll
 0002:000006a4       __imp_?OnChildNotify@CListBox@@MAEHIIJPAJ@Z 100af6a4     mfc140:mfc140.dll
 0002:000006a8       __imp_?GetRuntimeClass@CScrollBar@@UBEPAUCRuntimeClass@@XZ 100af6a8     mfc140:mfc140.dll
 0002:000006ac       __imp_??0CToolTipCtrl@@QAE@XZ 100af6ac     mfc140:mfc140.dll
 0002:000006b0       __imp_??1CScrollBar@@UAE@XZ 100af6b0     mfc140:mfc140.dll
