 HWSTRATEGYANALYSIS

 Timestamp is 641272d7 (Thu Mar 16 10:37:27 2023)

 Preferred load address is 10000000

 Start         Length     Name                   Class
 0001:00000000 000016d0H .text$di                CODE
 0001:000016d0 00032010H .text$mn                CODE
 0001:000336e0 000042f0H .text$x                 CODE
 0001:000379d0 00000483H .text$yd                CODE
 0002:00000000 00000a60H .idata$5                DATA
 0002:00000a60 00000008H .00cfg                  DATA
 0002:00000a68 00000004H .CRT$XCA                DATA
 0002:00000a6c 00000004H .CRT$XCL                DATA
 0002:00000a70 00000268H .CRT$XCU                DATA
 0002:00000cd8 00000004H .CRT$XCZ                DATA
 0002:00000cdc 00000004H .CRT$XIA                DATA
 0002:00000ce0 00000004H .CRT$XIC                DATA
 0002:00000ce4 00000004H .CRT$XIZ                DATA
 0002:00000ce8 00000004H .CRT$XLA                DATA
 0002:00000cec 00000004H .CRT$XLZ                DATA
 0002:00000cf0 00000004H .CRT$XPA                DATA
 0002:00000cf4 00000004H .CRT$XPZ                DATA
 0002:00000cf8 00000004H .CRT$XTA                DATA
 0002:00000cfc 00000004H .CRT$XTZ                DATA
 0002:00000d00 00000000H .gfids$y                DATA
 0002:00000d00 00009800H .rdata                  DATA
 0002:0000a500 00000004H .rdata$CastGuardVftablesA DATA
 0002:0000a504 00000004H .rdata$CastGuardVftablesC DATA
 0002:0000a508 00000018H .rdata$T                DATA
 0002:0000a520 00001ab4H .rdata$r                DATA
 0002:0000bfd4 00000314H .rdata$sxdata           DATA
 0002:0000c2e8 00000038H .rdata$voltmd           DATA
 0002:0000c320 00000440H .rdata$zzzdbg           DATA
 0002:0000c760 00000004H .rtc$IAA                DATA
 0002:0000c764 00000004H .rtc$IZZ                DATA
 0002:0000c768 00000004H .rtc$TAA                DATA
 0002:0000c76c 00000004H .rtc$TZZ                DATA
 0002:0000c770 00000004H .tls                    DATA
 0002:0000c774 00000004H .tls$                   DATA
 0002:0000c778 00000008H .tls$ZZZ                DATA
 0002:0000c780 00003794H .xdata$x                DATA
 0002:0000ff14 00000004H ATL$__a                 DATA
 0002:0000ff18 00000008H ATL$__z                 DATA
 0002:0000ff20 000000f0H .edata                  DATA
 0002:00010010 00000154H .idata$2                DATA
 0002:00010164 00000014H .idata$3                DATA
 0002:00010178 00000a60H .idata$4                DATA
 0002:00010bd8 00000f1cH .idata$6                DATA
 0003:00000000 000001f4H .data                   DATA
 0003:000001f4 00000084H .data$r                 DATA
 0003:00000278 000009e0H .data$rs                DATA
 0003:00000c58 00000808H .bss                    DATA
 0004:00000000 000002e0H .rsrc$01                DATA
 0004:000002e0 00003e38H .rsrc$02                DATA

  Address         Publics by Value              Rva+Base       Lib:Object

 0000:00000000       ___guard_fids_table        00000000     <absolute>
 0000:00000000       ___x64_code_ranges_to_entry_points 00000000     <absolute>
 0000:00000000       ___guard_iat_table         00000000     <absolute>
 0000:00000000       ___hybrid_code_map_count   00000000     <absolute>
 0000:00000000       ___arm64x_extra_rfe_table  00000000     <absolute>
 0000:00000000       ___arm64x_extra_rfe_table_size 00000000     <absolute>
 0000:00000000       ___guard_fids_count        00000000     <absolute>
 0000:00000000       ___guard_eh_cont_table     00000000     <absolute>
 0000:00000000       ___AbsoluteZero            00000000     <absolute>
 0000:00000000       ___dynamic_value_reloc_table 00000000     <absolute>
 0000:00000000       ___hybrid_auxiliary_iat    00000000     <absolute>
 0000:00000000       ___guard_check_icall_a64n_fptr 00000000     <absolute>
 0000:00000000       ___arm64x_redirection_metadata_count 00000000     <absolute>
 0000:00000000       ___hybrid_auxiliary_iat_copy 00000000     <absolute>
 0000:00000000       ___guard_longjmp_table     00000000     <absolute>
 0000:00000000       ___enclave_config          00000000     <absolute>
 0000:00000000       ___arm64x_redirection_metadata 00000000     <absolute>
 0000:00000000       ___guard_iat_count         00000000     <absolute>
 0000:00000000       ___guard_longjmp_count     00000000     <absolute>
 0000:00000000       ___hybrid_code_map         00000000     <absolute>
 0000:00000000       ___x64_code_ranges_to_entry_points_count 00000000     <absolute>
 0000:00000000       ___guard_eh_cont_count     00000000     <absolute>
 0000:00000000       ___arm64x_native_entrypoint 00000000     <absolute>
 0000:0000002c       __tls_array                0000002c     <absolute>
 0000:000000c5       ___safe_se_handler_count   000000c5     <absolute>
 0000:00000100       ___guard_flags             00000100     <absolute>
 0000:00000000       ___ImageBase               10000000     <linker-defined>
 0001:000016d0       ??0CStrategyLoader@@QAE@XZ 100026d0 f   StrategyLoader.obj
 0001:00001ad0       ??1CStrategyLoader@@UAE@XZ 10002ad0 f   StrategyLoader.obj
 0001:00001b10       ??_ECStrategyLoader@@UAEPAXI@Z 10002b10 f i StrategyLoader.obj
 0001:00001b10       ??_GCStrategyLoader@@UAEPAXI@Z 10002b10 f i StrategyLoader.obj
 0001:00001b60       ?ComServerFromProgID@CProgIDInfo@@SAJPBDAAV?$CStringT@DV?$StrTraitMFC_DLL@DV?$ChTraitsCRT@D@ATL@@@@@ATL@@@Z 10002b60 f i StrategyLoader.obj
 0001:00001d70       ?GetStrategyItem@CStrategyLoader@@QAEPAVCIStrategyItem0001@@XZ 10002d70 f   StrategyLoader.obj
 0001:00001d80       ?LoadStrategyManager@CStrategyLoader@@AAEHXZ 10002d80 f   StrategyLoader.obj
 0001:00001eb0       ?StringCLSIDFromProgID@CProgIDInfo@@SAJPBDAAV?$CStringT@DV?$StrTraitMFC_DLL@DV?$ChTraitsCRT@D@ATL@@@@@ATL@@@Z 10002eb0 f i StrategyLoader.obj
 0001:00002020       ?UnloadStrategyManager@CStrategyLoader@@AAEHXZ 10003020 f   StrategyLoader.obj
 0001:00002050       ?__empty_global_delete@@YAXPAX@Z 10003050 f i StrategyLoader.obj
 0001:00002060       ?__empty_global_delete@@YAXPAXI@Z 10003060 f i StrategyLoader.obj
 0001:00002060       ?__global_delete@@YAXPAXI@Z 10003060 f i StrategyLoader.obj
 0001:00002070       ___local_stdio_scanf_options 10003070 f i StrategyLoader.obj
 0001:00002080       _sscanf                    10003080 f i StrategyLoader.obj
 0001:000020b0       ?AddCustom@CAxes@@QAEJH@Z  100030b0 f   axes.obj
 0001:000020e0       ?GetBottom@CAxes@@QAE?AVCAxis@@XZ 100030e0 f   axes.obj
 0001:00002110       ?GetCustom@CAxes@@QAE?AVCAxis@@J@Z 10003110 f   axes.obj
 0001:00002150       ?GetCustomCount@CAxes@@QAEJXZ 10003150 f   axes.obj
 0001:00002170       ?GetDepth@CAxes@@QAE?AVCAxis@@XZ 10003170 f   axes.obj
 0001:000021a0       ?GetDepthTop@CAxes@@QAE?AVCAxis@@XZ 100031a0 f   axes.obj
 0001:000021e0       ?GetDrawAxesBeforeSeries@CAxes@@QAEHXZ 100031e0 f   axes.obj
 0001:00002200       ?GetFastCalc@CAxes@@QAEHXZ 10003200 f   axes.obj
 0001:00002230       ?GetLeft@CAxes@@QAE?AVCAxis@@XZ 10003230 f   axes.obj
 0001:00002260       ?GetRight@CAxes@@QAE?AVCAxis@@XZ 10003260 f   axes.obj
 0001:00002290       ?GetTop@CAxes@@QAE?AVCAxis@@XZ 10003290 f   axes.obj
 0001:000022c0       ?GetVisible@CAxes@@QAEHXZ  100032c0 f   axes.obj
 0001:000022e0       ?RemoveAllCustom@CAxes@@QAEXXZ 100032e0 f   axes.obj
 0001:00002300       ?RemoveCustom@CAxes@@QAEXJ@Z 10003300 f   axes.obj
 0001:00002320       ?SetDrawAxesBeforeSeries@CAxes@@QAEXH@Z 10003320 f   axes.obj
 0001:00002340       ?SetFastCalc@CAxes@@QAEXH@Z 10003340 f   axes.obj
 0001:00002370       ?SetIsometric@CAxes@@QAEXJJ@Z 10003370 f   axes.obj
 0001:000023a0       ?SetVisible@CAxes@@QAEXH@Z 100033a0 f   axes.obj
 0001:000023c0       ?AdjustMaxMin@CAxis@@QAEXXZ 100033c0 f   axis.obj
 0001:000023e0       ?CalcIncrement@CAxis@@QAENXZ 100033e0 f   axis.obj
 0001:00002410       ?CalcPosPoint@CAxis@@QAENJ@Z 10003410 f   axis.obj
 0001:00002440       ?CalcXPosValue@CAxis@@QAEJN@Z 10003440 f   axis.obj
 0001:00002470       ?CalcXSizeValue@CAxis@@QAEJN@Z 10003470 f   axis.obj
 0001:000024a0       ?CalcYPosValue@CAxis@@QAEJN@Z 100034a0 f   axis.obj
 0001:000024d0       ?CalcYSizeValue@CAxis@@QAEJN@Z 100034d0 f   axis.obj
 0001:00002500       ?Clicked@CAxis@@QAEHJJ@Z   10003500 f   axis.obj
 0001:00002530       ?GetAutomatic@CAxis@@QAEHXZ 10003530 f   axis.obj
 0001:00002550       ?GetAutomaticMaximum@CAxis@@QAEHXZ 10003550 f   axis.obj
 0001:00002570       ?GetAutomaticMinimum@CAxis@@QAEHXZ 10003570 f   axis.obj
 0001:00002590       ?GetAxisType@CAxis@@QAEJXZ 10003590 f   axis.obj
 0001:000025b0       ?GetEndPosition@CAxis@@QAENXZ 100035b0 f   axis.obj
 0001:000025e0       ?GetExactDateTime@CAxis@@QAEHXZ 100035e0 f   axis.obj
 0001:00002600       ?GetGridCentered@CAxis@@QAEHXZ 10003600 f   axis.obj
 0001:00002620       ?GetGridZPosition@CAxis@@QAENXZ 10003620 f   axis.obj
 0001:00002650       ?GetIncrement@CAxis@@QAENXZ 10003650 f   axis.obj
 0001:00002680       ?GetIndex@CAxis@@QAEJXZ    10003680 f   axis.obj
 0001:000026b0       ?GetInverted@CAxis@@QAEHXZ 100036b0 f   axis.obj
 0001:000026d0       ?GetLogarithmic@CAxis@@QAEHXZ 100036d0 f   axis.obj
 0001:000026f0       ?GetLogarithmicBase@CAxis@@QAENXZ 100036f0 f   axis.obj
 0001:00002720       ?GetMaximum@CAxis@@QAENXZ  10003720 f   axis.obj
 0001:00002750       ?GetMaximumOffset@CAxis@@QAEJXZ 10003750 f   axis.obj
 0001:00002780       ?GetMinimum@CAxis@@QAENXZ  10003780 f   axis.obj
 0001:000027b0       ?GetMinimumOffset@CAxis@@QAEJXZ 100037b0 f   axis.obj
 0001:000027e0       ?GetMinorTickCount@CAxis@@QAEJXZ 100037e0 f   axis.obj
 0001:00002800       ?GetMinorTickLength@CAxis@@QAEJXZ 10003800 f   axis.obj
 0001:00002820       ?GetOtherside@CAxis@@QAEHXZ 10003820 f   axis.obj
 0001:00002840       ?GetPosition@CAxis@@QAEJXZ 10003840 f   axis.obj
 0001:00002860       ?GetPositionPercent@CAxis@@QAENXZ 10003860 f   axis.obj
 0001:00002890       ?GetPositionUnits@CAxis@@QAEJXZ 10003890 f   axis.obj
 0001:000028c0       ?GetStartPosition@CAxis@@QAENXZ 100038c0 f   axis.obj
 0001:000028f0       ?GetTickInnerLength@CAxis@@QAEJXZ 100038f0 f   axis.obj
 0001:00002910       ?GetTickLength@CAxis@@QAEJXZ 10003910 f   axis.obj
 0001:00002930       ?GetVisible@CAxis@@QAEHXZ  10003930 f   axis.obj
 0001:00002950       ?GetZPosition@CAxis@@QAENXZ 10003950 f   axis.obj
 0001:00002980       ?IsDateTime@CAxis@@QAEHXZ  10003980 f   axis.obj
 0001:000029a0       ?MaxVisibleSeriesValue@CAxis@@QAENHJ@Z 100039a0 f   axis.obj
 0001:000029d0       ?MaxXValue@CAxis@@QAENXZ   100039d0 f   axis.obj
 0001:00002a00       ?MaxYValue@CAxis@@QAENXZ   10003a00 f   axis.obj
 0001:00002a30       ?MinVisibleSeriesValue@CAxis@@QAENHJ@Z 10003a30 f   axis.obj
 0001:00002a60       ?MinXValue@CAxis@@QAENXZ   10003a60 f   axis.obj
 0001:00002a90       ?MinYValue@CAxis@@QAENXZ   10003a90 f   axis.obj
 0001:00002ac0       ?Scroll@CAxis@@QAEXNH@Z    10003ac0 f   axis.obj
 0001:00002af0       ?SetAutomatic@CAxis@@QAEXH@Z 10003af0 f   axis.obj
 0001:00002b10       ?SetAutomaticMaximum@CAxis@@QAEXH@Z 10003b10 f   axis.obj
 0001:00002b30       ?SetAutomaticMinimum@CAxis@@QAEXH@Z 10003b30 f   axis.obj
 0001:00002b50       ?SetEndPosition@CAxis@@QAEXN@Z 10003b50 f   axis.obj
 0001:00002b80       ?SetExactDateTime@CAxis@@QAEXH@Z 10003b80 f   axis.obj
 0001:00002ba0       ?SetGridCentered@CAxis@@QAEXH@Z 10003ba0 f   axis.obj
 0001:00002bc0       ?SetGridZPosition@CAxis@@QAEXN@Z 10003bc0 f   axis.obj
 0001:00002bf0       ?SetIncrement@CAxis@@QAEXN@Z 10003bf0 f   axis.obj
 0001:00002c20       ?SetInverted@CAxis@@QAEXH@Z 10003c20 f   axis.obj
 0001:00002c40       ?SetLogarithmic@CAxis@@QAEXH@Z 10003c40 f   axis.obj
 0001:00002c60       ?SetLogarithmicBase@CAxis@@QAEXN@Z 10003c60 f   axis.obj
 0001:00002c90       ?SetMaximum@CAxis@@QAEXN@Z 10003c90 f   axis.obj
 0001:00002cc0       ?SetMaximumOffset@CAxis@@QAEXJ@Z 10003cc0 f   axis.obj
 0001:00002cf0       ?SetMinMax@CAxis@@QAEXNN@Z 10003cf0 f   axis.obj
 0001:00002d30       ?SetMinimum@CAxis@@QAEXN@Z 10003d30 f   axis.obj
 0001:00002d60       ?SetMinimumOffset@CAxis@@QAEXJ@Z 10003d60 f   axis.obj
 0001:00002d90       ?SetMinorTickCount@CAxis@@QAEXJ@Z 10003d90 f   axis.obj
 0001:00002db0       ?SetMinorTickLength@CAxis@@QAEXJ@Z 10003db0 f   axis.obj
 0001:00002dd0       ?SetOtherside@CAxis@@QAEXH@Z 10003dd0 f   axis.obj
 0001:00002df0       ?SetPositionPercent@CAxis@@QAEXN@Z 10003df0 f   axis.obj
 0001:00002e20       ?SetPositionUnits@CAxis@@QAEXJ@Z 10003e20 f   axis.obj
 0001:00002e50       ?SetStartPosition@CAxis@@QAEXN@Z 10003e50 f   axis.obj
 0001:00002e80       ?SetTickInnerLength@CAxis@@QAEXJ@Z 10003e80 f   axis.obj
 0001:00002ea0       ?SetTickLength@CAxis@@QAEXJ@Z 10003ea0 f   axis.obj
 0001:00002ec0       ?SetVisible@CAxis@@QAEXH@Z 10003ec0 f   axis.obj
 0001:00002ee0       ?SetZPosition@CAxis@@QAEXN@Z 10003ee0 f   axis.obj
 0001:00002f10       ??3CObject@@SGXPAX@Z       10003f10 f i mschart1.obj
 0001:00002f30       ??_ECMschart1@@UAEPAXI@Z   10003f30 f i mschart1.obj
 0001:00002f30       ??_GCMschart1@@UAEPAXI@Z   10003f30 f i mschart1.obj
 0001:00002f70       ?AssertValid@CObject@@UBEXXZ 10003f70 f i mschart1.obj
 0001:00002f80       ?BeginModalState@CWnd@@UAEXXZ 10003f80 f i mschart1.obj
 0001:00002f90       ?Create@CMschart1@@UAEHPBD0KABUtagRECT@@PAVCWnd@@IPAUCCreateContext@@@Z 10003f90 f i mschart1.obj
 0001:00002fc0       ?CreateObject@CMschart1@@SGPAVCObject@@XZ 10003fc0 f   mschart1.obj
 0001:00003040       ?DoDataExchange@CWnd@@MAEXPAVCDataExchange@@@Z 10004040 f i mschart1.obj
 0001:00003050       ?Dump@CObject@@UBEXAAVCDumpContext@@@Z 10004050 f i mschart1.obj
 0001:00003060       ?EndModalState@CWnd@@UAEXXZ 10004060 f i mschart1.obj
 0001:00003070       ?GetRuntimeClass@CMschart1@@UBEPAUCRuntimeClass@@XZ 10004070 f   mschart1.obj
 0001:00003080       ?GetThisClass@CMschart1@@SGPAUCRuntimeClass@@XZ 10004080 f   mschart1.obj
 0001:00003090       ?Serialize@CObject@@UAEXAAVCArchive@@@Z 10004090 f i mschart1.obj
 0001:000030a0       ?_GetBaseClass@CMschart1@@KGPAUCRuntimeClass@@XZ 100040a0 f   mschart1.obj
 0001:000030b0       ?AddXY@CSeries@@QAEJNNPBDK@Z 100040b0 f   series.obj
 0001:000030f0       ?Clear@CSeries@@QAEXXZ     100040f0 f   series.obj
 0001:00003110       ??_ECTChart@@UAEPAXI@Z     10004110 f i tchart.obj
 0001:00003110       ??_GCTChart@@UAEPAXI@Z     10004110 f i tchart.obj
 0001:00003150       ?AboutBox@CTChart@@QAEXXZ  10004150 f   tchart.obj
 0001:00003170       ?AddSeries@CTChart@@QAEJJ@Z 10004170 f   tchart.obj
 0001:000031a0       ?ApplyCustomPalette@CTChart@@QAEXABUtagVARIANT@@@Z 100041a0 f   tchart.obj
 0001:000031d0       ?ApplyPalette@CTChart@@QAEXJ@Z 100041d0 f   tchart.obj
 0001:00003200       ?ChangeSeriesType@CTChart@@QAEXJJ@Z 10004200 f   tchart.obj
 0001:00003230       ?ChartRect@CTChart@@QAEXJJJJ@Z 10004230 f   tchart.obj
 0001:00003260       ?ClearChart@CTChart@@QAEXXZ 10004260 f   tchart.obj
 0001:00003280       ?CloneSeries@CTChart@@QAEJJ@Z 10004280 f   tchart.obj
 0001:000032b0       ?Create@CTChart@@UAEHPBD0KABUtagRECT@@PAVCWnd@@IPAUCCreateContext@@@Z 100042b0 f i tchart.obj
 0001:000032e0       ?CreateObject@CTChart@@SGPAVCObject@@XZ 100042e0 f   tchart.obj
 0001:00003360       ?Draw@CTChart@@QAEXJJJJJ@Z 10004360 f   tchart.obj
 0001:00003390       ?EditOneSeries@CTChart@@QAEXJ@Z 10004390 f   tchart.obj
 0001:000033b0       ?ExchangeSeries@CTChart@@QAEXJJ@Z 100043b0 f   tchart.obj
 0001:000033e0       ?GetAutoRepaint@CTChart@@QAEHXZ 100043e0 f   tchart.obj
 0001:00003400       ?GetAxis@CTChart@@QAE?AVCAxes@@XZ 10004400 f   tchart.obj
 0001:00003430       ?GetChartLink@CTChart@@QAEJXZ 10004430 f   tchart.obj
 0001:00003450       ?GetClipPoints@CTChart@@QAEHXZ 10004450 f   tchart.obj
 0001:00003470       ?GetCursor@CTChart@@QAEFXZ 10004470 f   tchart.obj
 0001:000034a0       ?GetDateTimeStep@CTChart@@QAENJ@Z 100044a0 f   tchart.obj
 0001:000034d0       ?GetDragCursor@CTChart@@QAEFXZ 100044d0 f   tchart.obj
 0001:00003500       ?GetDragMode@CTChart@@QAEJXZ 10004500 f   tchart.obj
 0001:00003520       ?GetEnabled@CTChart@@QAEHXZ 10004520 f   tchart.obj
 0001:00003540       ?GetFreeSeriesColor@CTChart@@QAEKH@Z 10004540 f   tchart.obj
 0001:00003570       ?GetHeight@CTChart@@QAEJXZ 10004570 f   tchart.obj
 0001:00003590       ?GetLabelsSeries@CTChart@@QAE?AVCSeries@@J@Z 10004590 f   tchart.obj
 0001:000035d0       ?GetLeft@CTChart@@QAEJXZ   100045d0 f   tchart.obj
 0001:000035f0       ?GetRuntimeClass@CTChart@@UBEPAUCRuntimeClass@@XZ 100045f0 f   tchart.obj
 0001:00003600       ?GetSeriesCount@CTChart@@QAEJXZ 10004600 f   tchart.obj
 0001:00003620       ?GetThisClass@CTChart@@SGPAUCRuntimeClass@@XZ 10004620 f   tchart.obj
 0001:00003630       ?GetTimerEnabled@CTChart@@QAEHXZ 10004630 f   tchart.obj
 0001:00003650       ?GetTimerInterval@CTChart@@QAEJXZ 10004650 f   tchart.obj
 0001:00003670       ?GetTop@CTChart@@QAEJXZ    10004670 f   tchart.obj
 0001:00003690       ?GetVisible@CTChart@@QAEHXZ 10004690 f   tchart.obj
 0001:000036b0       ?GetWidth@CTChart@@QAEJXZ  100046b0 f   tchart.obj
 0001:000036d0       ?IsFreeSeriesColor@CTChart@@QAEHKH@Z 100046d0 f   tchart.obj
 0001:00003700       ?RefreshData@CTChart@@QAEXXZ 10004700 f   tchart.obj
 0001:00003720       ?RemoveAllSeries@CTChart@@QAEXXZ 10004720 f   tchart.obj
 0001:00003740       ?RemoveSeries@CTChart@@QAEXJ@Z 10004740 f   tchart.obj
 0001:00003760       ?Repaint@CTChart@@QAEXXZ   10004760 f   tchart.obj
 0001:00003780       ?Series@CTChart@@QAE?AVCSeries@@J@Z 10004780 f   tchart.obj
 0001:000037c0       ?SeriesTitleLegend@CTChart@@QAE?AV?$CStringT@DV?$StrTraitMFC_DLL@DV?$ChTraitsCRT@D@ATL@@@@@ATL@@J@Z 100047c0 f   tchart.obj
 0001:00003840       ?SetAutoRepaint@CTChart@@QAEXH@Z 10004840 f   tchart.obj
 0001:00003860       ?SetClipPoints@CTChart@@QAEXH@Z 10004860 f   tchart.obj
 0001:00003880       ?SetCursor@CTChart@@QAEXF@Z 10004880 f   tchart.obj
 0001:000038b0       ?SetDragCursor@CTChart@@QAEXF@Z 100048b0 f   tchart.obj
 0001:000038e0       ?SetDragMode@CTChart@@QAEXJ@Z 100048e0 f   tchart.obj
 0001:00003900       ?SetEnabled@CTChart@@QAEXH@Z 10004900 f   tchart.obj
 0001:00003920       ?SetHeight@CTChart@@QAEXJ@Z 10004920 f   tchart.obj
 0001:00003940       ?SetLeft@CTChart@@QAEXJ@Z  10004940 f   tchart.obj
 0001:00003960       ?SetTheme@CTChart@@QAEXJJ@Z 10004960 f   tchart.obj
 0001:00003990       ?SetTimerEnabled@CTChart@@QAEXH@Z 10004990 f   tchart.obj
 0001:000039b0       ?SetTimerInterval@CTChart@@QAEXJ@Z 100049b0 f   tchart.obj
 0001:000039d0       ?SetTop@CTChart@@QAEXJ@Z   100049d0 f   tchart.obj
 0001:000039f0       ?SetVisible@CTChart@@QAEXH@Z 100049f0 f   tchart.obj
 0001:00003a10       ?SetWidth@CTChart@@QAEXJ@Z 10004a10 f   tchart.obj
 0001:00003a30       ?ShowEditor@CTChart@@QAEXJ@Z 10004a30 f   tchart.obj
 0001:00003a50       ?ShowThemesEditor@CTChart@@QAEXXZ 10004a50 f   tchart.obj
 0001:00003a70       ?StopMouse@CTChart@@QAEXXZ 10004a70 f   tchart.obj
 0001:00003a90       ?_GetBaseClass@CTChart@@KGPAUCRuntimeClass@@XZ 10004a90 f   tchart.obj
 0001:00003aa0       ??0CXDateTime@@QAE@XZ      10004aa0 f   XDateTime.obj
 0001:00003ac0       ??1CXDateTime@@UAE@XZ      10004ac0 f   XDateTime.obj
 0001:00003ad0       ??_GCDateTimeCtrl@@UAEPAXI@Z 10004ad0 f i XDateTime.obj
 0001:00003ad0       ??_ECDateTimeCtrl@@UAEPAXI@Z 10004ad0 f i XDateTime.obj
 0001:00003b10       ??_GCXDateTime@@UAEPAXI@Z  10004b10 f i XDateTime.obj
 0001:00003b10       ??_ECXDateTime@@UAEPAXI@Z  10004b10 f i XDateTime.obj
 0001:00003b60       ?GetMessageMap@CXDateTime@@MBEPBUAFX_MSGMAP@@XZ 10004b60 f   XDateTime.obj
 0001:00003b70       ?GetThisMessageMap@CXDateTime@@KGPBUAFX_MSGMAP@@XZ 10004b70 f   XDateTime.obj
 0001:00003b80       ?OnKeyDown@CXDateTime@@IAEXIII@Z 10004b80 f   XDateTime.obj
 0001:00003bc0       ??0CXEdit@@QAE@XZ          10004bc0 f   XEdit.obj
 0001:00003be0       ??1CXEdit@@UAE@XZ          10004be0 f   XEdit.obj
 0001:00003bf0       ??_GCEdit@@UAEPAXI@Z       10004bf0 f i XEdit.obj
 0001:00003bf0       ??_ECEdit@@UAEPAXI@Z       10004bf0 f i XEdit.obj
 0001:00003c30       ??_ECXEdit@@UAEPAXI@Z      10004c30 f i XEdit.obj
 0001:00003c30       ??_GCXEdit@@UAEPAXI@Z      10004c30 f i XEdit.obj
 0001:00003c80       ?GetMessageMap@CXEdit@@MBEPBUAFX_MSGMAP@@XZ 10004c80 f   XEdit.obj
 0001:00003c90       ?GetThisMessageMap@CXEdit@@KGPBUAFX_MSGMAP@@XZ 10004c90 f   XEdit.obj
 0001:00003ca0       ?OnKeyDown@CXEdit@@IAEXIII@Z 10004ca0 f   XEdit.obj
 0001:00003d80       ??0CXHeaderCtrl@@QAE@XZ    10004d80 f   XHeaderCtrl.obj
 0001:00003e50       ??1CBitmap@@UAE@XZ         10004e50 f i XHeaderCtrl.obj
 0001:00003e60       ??1CGdiObject@@UAE@XZ      10004e60 f i XHeaderCtrl.obj
 0001:00003f70       ??1CMemDC@@UAE@XZ          10004f70 f i XHeaderCtrl.obj
 0001:00004030       ??1CObject@@UAE@XZ         10005030 f i XHeaderCtrl.obj
 0001:00004040       ??1CPen@@UAE@XZ            10005040 f i XHeaderCtrl.obj
 0001:00004050       ??1CXHeaderCtrl@@UAE@XZ    10005050 f   XHeaderCtrl.obj
 0001:00004060       ??_GCBitmap@@UAEPAXI@Z     10005060 f i XHeaderCtrl.obj
 0001:00004060       ??_ECBitmap@@UAEPAXI@Z     10005060 f i XHeaderCtrl.obj
 0001:000040a0       ??_GCGdiObject@@UAEPAXI@Z  100050a0 f i XHeaderCtrl.obj
 0001:000040a0       ??_ECGdiObject@@UAEPAXI@Z  100050a0 f i XHeaderCtrl.obj
 0001:000040e0       ??_ECHeaderCtrl@@UAEPAXI@Z 100050e0 f i XHeaderCtrl.obj
 0001:000040e0       ??_GCHeaderCtrl@@UAEPAXI@Z 100050e0 f i XHeaderCtrl.obj
 0001:00004120       ??_GCMemDC@@UAEPAXI@Z      10005120 f i XHeaderCtrl.obj
 0001:00004120       ??_ECMemDC@@UAEPAXI@Z      10005120 f i XHeaderCtrl.obj
 0001:00004160       ??_ECPen@@UAEPAXI@Z        10005160 f i XHeaderCtrl.obj
 0001:00004160       ??_GCPen@@UAEPAXI@Z        10005160 f i XHeaderCtrl.obj
 0001:000041a0       ??_GCXHeaderCtrl@@UAEPAXI@Z 100051a0 f i XHeaderCtrl.obj
 0001:000041a0       ??_ECXHeaderCtrl@@UAEPAXI@Z 100051a0 f i XHeaderCtrl.obj
 0001:000041f0       ?CreateObject@CXHeaderCtrl@@SGPAVCObject@@XZ 100051f0 f   XHeaderCtrl.obj
 0001:00004310       ?DrawBitmap@CXHeaderCtrl@@IAEHPAVCDC@@VCRect@@PAU_HD_ITEMA@@PAVCBitmap@@PAUtagBITMAP@@H@Z 10005310 f   XHeaderCtrl.obj
 0001:00004450       ?DrawCtrl@CXHeaderCtrl@@IAEXPAVCDC@@@Z 10005450 f   XHeaderCtrl.obj
 0001:000049c0       ?DrawImage@CXHeaderCtrl@@IAEHPAVCDC@@VCRect@@PAU_HD_ITEMA@@H@Z 100059c0 f   XHeaderCtrl.obj
 0001:00004ae0       ?DrawItem@CXHeaderCtrl@@UAEXPAUtagDRAWITEMSTRUCT@@@Z 10005ae0 f   XHeaderCtrl.obj
 0001:00004af0       ?DrawItem@CXHeaderCtrl@@UAEXPAVCDC@@VCRect@@PAU_HD_ITEMA@@@Z 10005af0 f   XHeaderCtrl.obj
 0001:00004dc0       ?DrawTextA@CDC@@UAEHPBDHPAUtagRECT@@I@Z 10005dc0 f i XHeaderCtrl.obj
 0001:00004de0       ?DrawTextA@CXHeaderCtrl@@IAEHPAVCDC@@VCRect@@PAU_HD_ITEMA@@@Z 10005de0 f   XHeaderCtrl.obj
 0001:00004e80       ?DrawTextExA@CDC@@UAEHPADHPAUtagRECT@@IPAUtagDRAWTEXTPARAMS@@@Z 10005e80 f i XHeaderCtrl.obj
 0001:00004ea0       ?Escape@CDC@@UAEHHHPBDPAX@Z 10005ea0 f i XHeaderCtrl.obj
 0001:00004ec0       ?ExtTextOutA@CDC@@UAEHHHIPBUtagRECT@@PBDIPAH@Z 10005ec0 f i XHeaderCtrl.obj
 0001:00004ef0       ?GetMessageMap@CXHeaderCtrl@@MBEPBUAFX_MSGMAP@@XZ 10005ef0 f   XHeaderCtrl.obj
 0001:00004f00       ?GetRuntimeClass@CXHeaderCtrl@@UBEPAUCRuntimeClass@@XZ 10005f00 f   XHeaderCtrl.obj
 0001:00004f10       ?GetThisClass@CXHeaderCtrl@@SGPAUCRuntimeClass@@XZ 10005f10 f   XHeaderCtrl.obj
 0001:00004f20       ?GetThisMessageMap@CXHeaderCtrl@@KGPBUAFX_MSGMAP@@XZ 10005f20 f   XHeaderCtrl.obj
 0001:00004f30       ?GrayStringA@CDC@@UAEHPAVCBrush@@P6GHPAUHDC__@@JH@ZJHHHHH@Z 10005f30 f i XHeaderCtrl.obj
 0001:00004f60       ?ModifyProperty@CXHeaderCtrl@@QAEHIJ@Z 10005f60 f   XHeaderCtrl.obj
 0001:00004fe0       ?OnDeleteItem@CXHeaderCtrl@@IAEJIJ@Z 10005fe0 f   XHeaderCtrl.obj
 0001:00004ff0       ?OnEraseBkgnd@CXHeaderCtrl@@IAEHPAVCDC@@@Z 10005ff0 f   XHeaderCtrl.obj
 0001:00005000       ?OnInsertItem@CXHeaderCtrl@@IAEJIJ@Z 10006000 f   XHeaderCtrl.obj
 0001:00005010       ?OnLayout@CXHeaderCtrl@@IAEJIJ@Z 10006010 f   XHeaderCtrl.obj
 0001:00005050       ?OnPaint@CXHeaderCtrl@@IAEXXZ 10006050 f   XHeaderCtrl.obj
 0001:000051c0       ?OnSetImageList@CXHeaderCtrl@@IAEJIJ@Z 100061c0 f   XHeaderCtrl.obj
 0001:00005220       ?OnSysColorChange@CXHeaderCtrl@@IAEXXZ 10006220 f   XHeaderCtrl.obj
 0001:00005260       ?PtVisible@CDC@@UBEHHH@Z   10006260 f i XHeaderCtrl.obj
 0001:00005280       ?RectVisible@CDC@@UBEHPBUtagRECT@@@Z 10006280 f i XHeaderCtrl.obj
 0001:000052a0       ?SetSortImage@CXHeaderCtrl@@QAEXHH@Z 100062a0 f   XHeaderCtrl.obj
 0001:000052c0       ?TabbedTextOutA@CDC@@UAE?AVCSize@@HHPBDHHPAHH@Z 100062c0 f i XHeaderCtrl.obj
 0001:00005300       ?TextOutA@CDC@@UAEHHHPBDH@Z 10006300 f i XHeaderCtrl.obj
 0001:00005320       ?_GetBaseClass@CXHeaderCtrl@@KGPAUCRuntimeClass@@XZ 10006320 f   XHeaderCtrl.obj
 0001:00005330       ??0CXListCtrl@@QAE@XZ      10006330 f   XListCtrl.obj
 0001:00005510       ??0XLISTCTRLDATA@@QAE@XZ   10006510 f i XListCtrl.obj
 0001:00005610       ??1CFont@@UAE@XZ           10006610 f i XListCtrl.obj
 0001:00005620       ??1CRgn@@UAE@XZ            10006620 f i XListCtrl.obj
 0001:00005630       ??1CXListCtrl@@UAE@XZ      10006630 f   XListCtrl.obj
 0001:000056b0       ??1XLISTCTRLDATA@@QAE@XZ   100066b0 f i XListCtrl.obj
 0001:000056c6       ??_9CXListCtrl@@$BBHE@AE   100066c6 f i XListCtrl.obj
 0001:000056d0       ??_EXLISTCTRLDATA@@QAEPAXI@Z 100066d0 f i XListCtrl.obj
 0001:00005790       ??_GCFont@@UAEPAXI@Z       10006790 f i XListCtrl.obj
 0001:00005790       ??_ECFont@@UAEPAXI@Z       10006790 f i XListCtrl.obj
 0001:000057d0       ??_ECListCtrl@@UAEPAXI@Z   100067d0 f i XListCtrl.obj
 0001:000057d0       ??_GCListCtrl@@UAEPAXI@Z   100067d0 f i XListCtrl.obj
 0001:00005810       ??_ECRgn@@UAEPAXI@Z        10006810 f i XListCtrl.obj
 0001:00005810       ??_GCRgn@@UAEPAXI@Z        10006810 f i XListCtrl.obj
 0001:00005850       ??_GCXListCtrl@@UAEPAXI@Z  10006850 f i XListCtrl.obj
 0001:00005850       ??_ECXListCtrl@@UAEPAXI@Z  10006850 f i XListCtrl.obj
 0001:00005900       ?AtlThrowImpl@ATL@@YGXJ@Z  10006900 f i XListCtrl.obj
 0001:00005920       ?CountCheckedItems@CXListCtrl@@QAEHH@Z 10006920 f   XListCtrl.obj
 0001:000059c0       ?DeleteAllItems@CXListCtrl@@QAEHXZ 100069c0 f   XListCtrl.obj
 0001:00005aa0       ?DeleteAllToolTips@CXListCtrl@@QAEXXZ 10006aa0 f   XListCtrl.obj
 0001:00005b40       ?DeleteItem@CXListCtrl@@QAEHH@Z 10006b40 f   XListCtrl.obj
 0001:00005b90       ?DeleteProgress@CXListCtrl@@QAEXHH@Z 10006b90 f   XListCtrl.obj
 0001:00005c10       ?DrawCheckbox@CXListCtrl@@IAEXHHPAVCDC@@KKAAVCRect@@PAUXLISTCTRLDATA@@@Z 10006c10 f   XListCtrl.obj
 0001:00005eb0       ?DrawImage@CXListCtrl@@IAEHHHPAVCDC@@KKVCRect@@PAUXLISTCTRLDATA@@@Z 10006eb0 f   XListCtrl.obj
 0001:00006050       ?DrawProgress@CXListCtrl@@IAEXHHPAVCDC@@KKAAVCRect@@PAUXLISTCTRLDATA@@@Z 10007050 f   XListCtrl.obj
 0001:00006400       ?DrawTextA@CXListCtrl@@IAEXHHPAVCDC@@KKAAVCRect@@PAUXLISTCTRLDATA@@@Z 10007400 f   XListCtrl.obj
 0001:000065e0       ?GetBold@CXListCtrl@@QAEHHH@Z 100075e0 f   XListCtrl.obj
 0001:00006640       ?GetCheckbox@CXListCtrl@@QAEHHH@Z 10007640 f   XListCtrl.obj
 0001:000066a0       ?GetColumns@CXListCtrl@@QAEHXZ 100076a0 f   XListCtrl.obj
 0001:000066c0       ?GetComboText@CXListCtrl@@QAE?AV?$CStringT@DV?$StrTraitMFC_DLL@DV?$ChTraitsCRT@D@ATL@@@@@ATL@@HH@Z 100076c0 f   XListCtrl.obj
 0001:000067c0       ?GetCurSel@CXListCtrl@@QAEHXZ 100077c0 f   XListCtrl.obj
 0001:00006800       ?GetDrawColors@CXListCtrl@@MAEXHHAAK0@Z 10007800 f   XListCtrl.obj
 0001:00006930       ?GetEnabled@CXListCtrl@@QAEHH@Z 10007930 f   XListCtrl.obj
 0001:00006960       ?GetHeaderCheckedState@CXListCtrl@@QAEHH@Z 10007960 f   XListCtrl.obj
 0001:000069c0       ?GetItemData@CXListCtrl@@QAEKH@Z 100079c0 f   XListCtrl.obj
 0001:00006a10       ?GetItemListCtrlData@CXListCtrl@@QAEPAUXLISTCTRLDATA@@H@Z 10007a10 f   XListCtrl.obj
 0001:00006a40       ?GetItemToolTipText@CXListCtrl@@QAE?AV?$CStringT@DV?$StrTraitMFC_DLL@DV?$ChTraitsCRT@D@ATL@@@@@ATL@@HH@Z 10007a40 f   XListCtrl.obj
 0001:00006b20       ?GetMessageMap@CXListCtrl@@MBEPBUAFX_MSGMAP@@XZ 10007b20 f   XListCtrl.obj
 0001:00006b30       ?GetSubItemRect@CXListCtrl@@QAEHHHHAAVCRect@@@Z 10007b30 f   XListCtrl.obj
 0001:00006bf0       ?GetThisMessageMap@CXListCtrl@@KGPBUAFX_MSGMAP@@XZ 10007bf0 f   XListCtrl.obj
 0001:00006c00       ?InsertItem@CXListCtrl@@QAEHHPBD@Z 10007c00 f   XListCtrl.obj
 0001:00006d60       ?InsertItem@CXListCtrl@@QAEHHPBDKK@Z 10007d60 f   XListCtrl.obj
 0001:00006eb0       ?OnClick@CXListCtrl@@IAEHPAUtagNMHDR@@PAJ@Z 10007eb0 f   XListCtrl.obj
 0001:00006ed0       ?OnColumnClick@CXListCtrl@@IAEHPAUtagNMHDR@@PAJ@Z 10007ed0 f   XListCtrl.obj
 0001:00007040       ?OnCreate@CXListCtrl@@IAEHPAUtagCREATESTRUCTA@@@Z 10008040 f   XListCtrl.obj
 0001:00007060       ?OnCustomDraw@CXListCtrl@@IAEXPAUtagNMHDR@@PAJ@Z 10008060 f   XListCtrl.obj
 0001:00007380       ?OnDblclk@CXListCtrl@@IAEHPAUtagNMHDR@@PAJ@Z 10008380 f   XListCtrl.obj
 0001:00007560       ?OnDestroy@CXListCtrl@@IAEXXZ 10008560 f   XListCtrl.obj
 0001:00007650       ?OnEditReturn@CXListCtrl@@IAEJIJ@Z 10008650 f   XListCtrl.obj
 0001:00007740       ?OnEraseBkgnd@CXListCtrl@@IAEHPAVCDC@@@Z 10008740 f   XListCtrl.obj
 0001:00007890       ?OnLButtonDown@CXListCtrl@@IAEXIVCPoint@@@Z 10008890 f   XListCtrl.obj
 0001:00007b10       ?OnPaint@CXListCtrl@@IAEXXZ 10008b10 f   XListCtrl.obj
 0001:00007d70       ?OnRButtonDown@CXListCtrl@@IAEXIVCPoint@@@Z 10008d70 f   XListCtrl.obj
 0001:00007ff0       ?OnSysColorChange@CXListCtrl@@IAEXXZ 10008ff0 f   XListCtrl.obj
 0001:00008090       ?OnToolHitTest@CXListCtrl@@UBEHVCPoint@@PAUtagTOOLINFOA@@@Z 10009090 f   XListCtrl.obj
 0001:00008130       ?OnToolTipText@CXListCtrl@@MAEHIPAUtagNMHDR@@PAJ@Z 10009130 f   XListCtrl.obj
 0001:000082a0       ?PreSubclassWindow@CXListCtrl@@UAEXXZ 100092a0 f   XListCtrl.obj
 0001:000082b0       ?SetBold@CXListCtrl@@QAEHHHH@Z 100092b0 f   XListCtrl.obj
 0001:00008320       ?SetCheckbox@CXListCtrl@@QAEHHHHH@Z 10009320 f   XListCtrl.obj
 0001:000083f0       ?SetComboBox@CXListCtrl@@QAEHHHHPAVCStringArray@@HH@Z 100093f0 f   XListCtrl.obj
 0001:00008550       ?SetCurSel@CXListCtrl@@QAEHHH@Z 10009550 f   XListCtrl.obj
 0001:00008580       ?SetEditBox@CXListCtrl@@QAEHHHH@Z 10009580 f   XListCtrl.obj
 0001:00008600       ?SetEnabled@CXListCtrl@@QAEHHH@Z 10009600 f   XListCtrl.obj
 0001:00008690       ?SetHeaderCheckedState@CXListCtrl@@QAEHHH@Z 10009690 f   XListCtrl.obj
 0001:00008700       ?SetItem@CXListCtrl@@QAEHPBUtagLVITEMA@@@Z 10009700 f   XListCtrl.obj
 0001:00008780       ?SetItemData@CXListCtrl@@QAEHHK@Z 10009780 f   XListCtrl.obj
 0001:000087c0       ?SetItemImage@CXListCtrl@@QAEHHHH@Z 100097c0 f   XListCtrl.obj
 0001:00008840       ?SetItemText@CXListCtrl@@QAEHHHPBD@Z 10009840 f   XListCtrl.obj
 0001:000088a0       ?SetItemText@CXListCtrl@@QAEHHHPBDKKH@Z 100098a0 f   XListCtrl.obj
 0001:00008940       ?SetItemToolTipText@CXListCtrl@@QAEHHHPBD@Z 10009940 f   XListCtrl.obj
 0001:000089c0       ?SetProgress@CXListCtrl@@QAEHHHHPBD@Z 100099c0 f   XListCtrl.obj
 0001:00008a70       ?SetRowHeight@CXListCtrl@@QAEXF@Z 10009a70 f   XListCtrl.obj
 0001:00008ac0       ?SetSortImage@CXListCtrl@@QAEXHH@Z 10009ac0 f   XListCtrl.obj
 0001:00008b10       ?SubclassHeaderControl@CXListCtrl@@IAEXXZ 10009b10 f   XListCtrl.obj
 0001:00008b80       ?UpdateProgress@CXListCtrl@@QAEXHHH@Z 10009b80 f   XListCtrl.obj
 0001:00008bf0       ?UpdateSubItem@CXListCtrl@@QAEXHH@Z 10009bf0 f   XListCtrl.obj
 0001:00008c70       ??$SerializeElements@H@@YGXAAVCArchive@@PAHH@Z 10009c70 f i XTabCtrl.obj
 0001:00008d20       ??0?$CArray@HH@@QAE@XZ     10009d20 f i XTabCtrl.obj
 0001:00008d50       ??0CXTabCtrl@@QAE@XZ       10009d50 f   XTabCtrl.obj
 0001:00008e80       ??1?$CArray@HH@@UAE@XZ     10009e80 f i XTabCtrl.obj
 0001:00008ea0       ??1CXTabCtrl@@UAE@XZ       10009ea0 f   XTabCtrl.obj
 0001:00008f40       ??_E?$CArray@HH@@UAEPAXI@Z 10009f40 f i XTabCtrl.obj
 0001:00008f40       ??_G?$CArray@HH@@UAEPAXI@Z 10009f40 f i XTabCtrl.obj
 0001:00008f90       ??_ECTabCtrl@@UAEPAXI@Z    10009f90 f i XTabCtrl.obj
 0001:00008f90       ??_GCTabCtrl@@UAEPAXI@Z    10009f90 f i XTabCtrl.obj
 0001:00008fd0       ??_GCXTabCtrl@@UAEPAXI@Z   10009fd0 f i XTabCtrl.obj
 0001:00008fd0       ??_ECXTabCtrl@@UAEPAXI@Z   10009fd0 f i XTabCtrl.obj
 0001:000090b0       ?AddTab@CXTabCtrl@@QAEXPAVCWnd@@PADH@Z 1000a0b0 f   XTabCtrl.obj
 0001:00009190       ?AfxCrtErrorCheck@@YAHH@Z  1000a190 f i XTabCtrl.obj
 0001:00009220       ?ChangeTab@CXTabCtrl@@QAEXHPAVCWnd@@PADH@Z 1000a220 f   XTabCtrl.obj
 0001:000092e0       ?DeleteAllTabs@CXTabCtrl@@QAEXXZ 1000a2e0 f   XTabCtrl.obj
 0001:00009330       ?DeleteTab@CXTabCtrl@@QAEXH@Z 1000a330 f   XTabCtrl.obj
 0001:000093d0       ?DrawGradientTab@CXTabCtrl@@QAEXPAVCDC@@VCRect@@@Z 1000a3d0 f   XTabCtrl.obj
 0001:00009580       ?DrawItem@CXTabCtrl@@MAEXPAUtagDRAWITEMSTRUCT@@@Z 1000a580 f   XTabCtrl.obj
 0001:00009b70       ?DrawLine@CXTabCtrl@@QAEXVCPoint@@0PAVCDC@@K@Z 1000ab70 f   XTabCtrl.obj
 0001:00009c30       ?EnableTab@CXTabCtrl@@QAEXHH@Z 1000ac30 f   XTabCtrl.obj
 0001:00009cb0       ?GetMessageMap@CXTabCtrl@@MBEPBUAFX_MSGMAP@@XZ 1000acb0 f   XTabCtrl.obj
 0001:00009cc0       ?GetThisMessageMap@CXTabCtrl@@KGPBUAFX_MSGMAP@@XZ 1000acc0 f   XTabCtrl.obj
 0001:00009cd0       ?IsTabEnabled@CXTabCtrl@@QAEHH@Z 1000acd0 f   XTabCtrl.obj
 0001:00009d00       ?OnEraseBkgnd@CXTabCtrl@@IAEHPAVCDC@@@Z 1000ad00 f   XTabCtrl.obj
 0001:00009d60       ?OnLButtonDown@CXTabCtrl@@IAEXIVCPoint@@@Z 1000ad60 f   XTabCtrl.obj
 0001:00009da0       ?OnLButtonUp@CXTabCtrl@@IAEXIVCPoint@@@Z 1000ada0 f   XTabCtrl.obj
 0001:00009de0       ?OnMouseMove@CXTabCtrl@@IAEXIVCPoint@@@Z 1000ade0 f   XTabCtrl.obj
 0001:00009e30       ?OnPaint@CXTabCtrl@@IAEXXZ 1000ae30 f   XTabCtrl.obj
 0001:0000a0f0       ?OnSelchange@CXTabCtrl@@IAEHPAUtagNMHDR@@PAJ@Z 1000b0f0 f   XTabCtrl.obj
 0001:0000a200       ?OnSelchanging@CXTabCtrl@@IAEHPAUtagNMHDR@@PAJ@Z 1000b200 f   XTabCtrl.obj
 0001:0000a240       ?OnSize@CXTabCtrl@@IAEXIHH@Z 1000b240 f   XTabCtrl.obj
 0001:0000a2c0       ?OnTimer@CXTabCtrl@@IAEXI@Z 1000b2c0 f   XTabCtrl.obj
 0001:0000a370       ?PreSubclassWindow@CXTabCtrl@@MAEXXZ 1000b370 f   XTabCtrl.obj
 0001:0000a390       ?RemoveAt@?$CArray@HH@@QAEXHH@Z 1000b390 f i XTabCtrl.obj
 0001:0000a430       ?SelectNextTab@CXTabCtrl@@QAEHH@Z 1000b430 f   XTabCtrl.obj
 0001:0000a4d0       ?SelectTab@CXTabCtrl@@QAEHH@Z 1000b4d0 f   XTabCtrl.obj
 0001:0000a600       ?SelectTabByName@CXTabCtrl@@QAEHPBD@Z 1000b600 f   XTabCtrl.obj
 0001:0000a6e0       ?Serialize@?$CArray@HH@@UAEXAAVCArchive@@@Z 1000b6e0 f i XTabCtrl.obj
 0001:0000a7c0       ?SetAtGrow@?$CArray@HH@@QAEXHH@Z 1000b7c0 f i XTabCtrl.obj
 0001:0000a800       ?SetDisabledColor@CXTabCtrl@@QAEXK@Z 1000b800 f   XTabCtrl.obj
 0001:0000a820       ?SetMouseOverColor@CXTabCtrl@@QAEXK@Z 1000b820 f   XTabCtrl.obj
 0001:0000a840       ?SetNormalColor@CXTabCtrl@@QAEXKKK@Z 1000b840 f   XTabCtrl.obj
 0001:0000a870       ?SetPrevSelect@CXTabCtrl@@QAEXXZ 1000b870 f   XTabCtrl.obj
 0001:0000a8c0       ?SetSelectedColor@CXTabCtrl@@QAEXKK@Z 1000b8c0 f   XTabCtrl.obj
 0001:0000a8e0       ?SetSize@?$CArray@HH@@QAEXHH@Z 1000b8e0 f i XTabCtrl.obj
 0001:0000aac0       ?SetTopLeftCorner@CXTabCtrl@@QAEXVCPoint@@@Z 1000bac0 f   XTabCtrl.obj
 0001:0000aae0       ??$SerializeElements@UST_DATAINDEX@@@@YGXAAVCArchive@@PAUST_DATAINDEX@@H@Z 1000bae0 f i DlgAnalysis.obj
 0001:0000ab80       ??0?$CArray@UST_DATAINDEX@@U1@@@QAE@XZ 1000bb80 f i DlgAnalysis.obj
 0001:0000abb0       ??0CDlgAnalysis@@QAE@PAVCWnd@@@Z 1000bbb0 f   DlgAnalysis.obj
 0001:0000ad80       ??0ST_DATAINDEX@@QAE@ABU0@@Z 1000bd80 f i DlgAnalysis.obj
 0001:0000ae40       ??1?$CArray@UST_DATAINDEX@@U1@@@UAE@XZ 1000be40 f i DlgAnalysis.obj
 0001:0000aed0       ??1CBrush@@UAE@XZ          1000bed0 f i DlgAnalysis.obj
 0001:0000aee0       ??1CEscDialog@@UAE@XZ      1000bee0 f i DlgAnalysis.obj
 0001:0000aef0       ??1ST_DATAINDEX@@QAE@XZ    1000bef0 f i DlgAnalysis.obj
 0001:0000af30       ??4ST_DATAINDEX@@QAEAAU0@ABU0@@Z 1000bf30 f i DlgAnalysis.obj
 0001:0000afa0       ??HATL@@YA?AV?$CStringT@DV?$StrTraitMFC_DLL@DV?$ChTraitsCRT@D@ATL@@@@@0@ABV10@PBD@Z 1000bfa0 f i DlgAnalysis.obj
 0001:0000b040       ??_G?$CArray@UST_DATAINDEX@@U1@@@UAEPAXI@Z 1000c040 f i DlgAnalysis.obj
 0001:0000b040       ??_E?$CArray@UST_DATAINDEX@@U1@@@UAEPAXI@Z 1000c040 f i DlgAnalysis.obj
 0001:0000b080       ??_GCBrush@@UAEPAXI@Z      1000c080 f i DlgAnalysis.obj
 0001:0000b080       ??_ECBrush@@UAEPAXI@Z      1000c080 f i DlgAnalysis.obj
 0001:0000b0c0       ??_ECDlgAnalysis@@UAEPAXI@Z 1000c0c0 f i DlgAnalysis.obj
 0001:0000b0c0       ??_GCDlgAnalysis@@UAEPAXI@Z 1000c0c0 f i DlgAnalysis.obj
 0001:0000b1b0       ??_ECEscDialog@@UAEPAXI@Z  1000c1b0 f i DlgAnalysis.obj
 0001:0000b1b0       ??_GCEscDialog@@UAEPAXI@Z  1000c1b0 f i DlgAnalysis.obj
 0001:0000b1f0       ?Add@?$CArray@UST_DATAINDEX@@U1@@@QAEHUST_DATAINDEX@@@Z 1000c1f0 f i DlgAnalysis.obj
 0001:0000b2f0       ?Create@CDialog@@UAEHIPAVCWnd@@@Z 1000c2f0 f i DlgAnalysis.obj
 0001:0000b300       ?DoDataExchange@CDlgAnalysis@@MAEXPAVCDataExchange@@@Z 1000c300 f   DlgAnalysis.obj
 0001:0000b310       ?FormInit@CDlgAnalysis@@QAEXXZ 1000c310 f   DlgAnalysis.obj
 0001:0000b320       ?FormLoad@CDlgAnalysis@@QAEXXZ 1000c320 f   DlgAnalysis.obj
 0001:0000b330       ?GetMessageMap@CDlgAnalysis@@MBEPBUAFX_MSGMAP@@XZ 1000c330 f   DlgAnalysis.obj
 0001:0000b340       ?GetRect@CDlgAnalysis@@QAE?AVCRect@@H@Z 1000c340 f   DlgAnalysis.obj
 0001:0000b380       ?GetThisMessageMap@CDlgAnalysis@@KGPBUAFX_MSGMAP@@XZ 1000c380 f   DlgAnalysis.obj
 0001:0000b390       ?InitSTLoad@CDlgAnalysis@@QAEXXZ 1000c390 f   DlgAnalysis.obj
 0001:0000b5d0       ?InsertDateGubun@CDlgAnalysis@@QAEXAAV?$CStringT@DV?$StrTraitMFC_DLL@DV?$ChTraitsCRT@D@ATL@@@@@ATL@@@Z 1000c5d0 f   DlgAnalysis.obj
 0001:0000b600       ?InsertGubun@CDlgAnalysis@@QAEHAAV?$CStringT@DV?$StrTraitMFC_DLL@DV?$ChTraitsCRT@D@ATL@@@@@ATL@@H@Z 1000c600 f   DlgAnalysis.obj
 0001:0000b760       ?InsertHourGubun@CDlgAnalysis@@QAEXAAV?$CStringT@DV?$StrTraitMFC_DLL@DV?$ChTraitsCRT@D@ATL@@@@@ATL@@@Z 1000c760 f   DlgAnalysis.obj
 0001:0000b7b0       ?InsertMinuteGubun@CDlgAnalysis@@QAEXAAV?$CStringT@DV?$StrTraitMFC_DLL@DV?$ChTraitsCRT@D@ATL@@@@@ATL@@H@Z 1000c7b0 f   DlgAnalysis.obj
 0001:0000b830       ?InsertMonthGubun@CDlgAnalysis@@QAEXAAV?$CStringT@DV?$StrTraitMFC_DLL@DV?$ChTraitsCRT@D@ATL@@@@@ATL@@@Z 1000c830 f   DlgAnalysis.obj
 0001:0000b850       ?InsertTimeGubun@CDlgAnalysis@@QAEXAAV?$CStringT@DV?$StrTraitMFC_DLL@DV?$ChTraitsCRT@D@ATL@@@@@ATL@@@Z 1000c850 f   DlgAnalysis.obj
 0001:0000b8a0       ?OnCancel@CDlgAnalysis@@MAEXXZ 1000c8a0 f   DlgAnalysis.obj
 0001:0000b8b0       ?OnCtlColor@CDlgAnalysis@@QAEPAUHBRUSH__@@PAVCDC@@PAVCWnd@@I@Z 1000c8b0 f   DlgAnalysis.obj
 0001:0000b900       ?OnDestroy@CDlgAnalysis@@IAEXXZ 1000c900 f   DlgAnalysis.obj
 0001:0000b990       ?OnGetDllSize@CDlgAnalysis@@IAEJIJ@Z 1000c990 f   DlgAnalysis.obj
 0001:0000b9b0       ?OnInitDialog@CDlgAnalysis@@MAEHXZ 1000c9b0 f   DlgAnalysis.obj
 0001:0000bbf0       ?OnSTDataManagerMessagge@CDlgAnalysis@@IAEJIJ@Z 1000cbf0 f   DlgAnalysis.obj
 0001:0000c610       ?OnShowWindow@CDlgAnalysis@@QAEXHI@Z 1000d610 f   DlgAnalysis.obj
 0001:0000c620       ?OnTimer@CDlgAnalysis@@QAEXI@Z 1000d620 f   DlgAnalysis.obj
 0001:0000c670       ?PreTranslateMessage@CEscDialog@@MAEHPAUtagMSG@@@Z 1000d670 f i DlgAnalysis.obj
 0001:0000c6e0       ?Result@CDlgAnalysis@@QAEXXZ 1000d6e0 f   DlgAnalysis.obj
 0001:0000c7e0       ?Serialize@?$CArray@UST_DATAINDEX@@U1@@@UAEXAAVCArchive@@@Z 1000d7e0 f i DlgAnalysis.obj
 0001:0000c8c0       ?SetAtGrow@?$CArray@UST_DATAINDEX@@U1@@@QAEXHUST_DATAINDEX@@@Z 1000d8c0 f i DlgAnalysis.obj
 0001:0000c970       ?SetCalculateData@CDlgAnalysis@@QAEXH@Z 1000d970 f   DlgAnalysis.obj
 0001:0000ca60       ?SetSize@?$CArray@UST_DATAINDEX@@U1@@@QAEXHH@Z 1000da60 f i DlgAnalysis.obj
 0001:0000ce50       ?WriteDebug@CDlgAnalysis@@QAEXV?$CStringT@DV?$StrTraitMFC_DLL@DV?$ChTraitsCRT@D@ATL@@@@@ATL@@@Z 1000de50 f   DlgAnalysis.obj
 0001:0000cee0       ___local_stdio_printf_options 1000dee0 f i DlgAnalysis.obj
 0001:0000cef0       _fprintf                   1000def0 f i DlgAnalysis.obj
 0001:0000cf20       ??0CDlgInterface@@QAE@IPAVCWnd@@@Z 1000df20 f   DlgInterface.obj
 0001:0000cf60       ??_ECDlgInterface@@UAEPAXI@Z 1000df60 f i DlgInterface.obj
 0001:0000cf60       ??_GCDlgInterface@@UAEPAXI@Z 1000df60 f i DlgInterface.obj
 0001:0000cfa0       ?DoDataExchange@CDlgInterface@@MAEXPAVCDataExchange@@@Z 1000dfa0 f   DlgInterface.obj
 0001:0000cfb0       ?GetComma@CDlgInterface@@SA?AV?$CStringT@DV?$StrTraitMFC_DLL@DV?$ChTraitsCRT@D@ATL@@@@@ATL@@PBD@Z 1000dfb0 f   DlgInterface.obj
 0001:0000d270       ?GetMessageMap@CDlgInterface@@MBEPBUAFX_MSGMAP@@XZ 1000e270 f   DlgInterface.obj
 0001:0000d280       ?GetNumber@CDlgInterface@@SA?AV?$CStringT@DV?$StrTraitMFC_DLL@DV?$ChTraitsCRT@D@ATL@@@@@ATL@@PBD@Z 1000e280 f   DlgInterface.obj
 0001:0000d340       ?GetThisMessageMap@CDlgInterface@@KGPBUAFX_MSGMAP@@XZ 1000e340 f   DlgInterface.obj
 0001:0000d350       ?GuganBtnUpdate@CDlgInterface@@UAEXXZ 1000e350 f i DlgInterface.obj
 0001:0000d360       ?ParsingComma@CDlgInterface@@QAE?AV?$CStringT@DV?$StrTraitMFC_DLL@DV?$ChTraitsCRT@D@ATL@@@@@ATL@@V23@@Z 1000e360 f   DlgInterface.obj
 0001:0000d3e0       ?SetChartFocus@CDlgInterface@@UAEXH@Z 1000e3e0 f i DlgInterface.obj
 0001:0000d3f0       ?UpdateDlg@CDlgInterface@@UAEXXZ 1000e3f0 f i DlgInterface.obj
 0001:0000d400       ??0CDlgWait@@QAE@PAVCWnd@@@Z 1000e400 f   DlgWait.obj
 0001:0000d4b0       ??1CDlgWait@@UAE@XZ        1000e4b0 f   DlgWait.obj
 0001:0000d530       ??_ECDlgWait@@UAEPAXI@Z    1000e530 f i DlgWait.obj
 0001:0000d530       ??_GCDlgWait@@UAEPAXI@Z    1000e530 f i DlgWait.obj
 0001:0000d5e0       ?DoDataExchange@CDlgWait@@MAEXPAVCDataExchange@@@Z 1000e5e0 f   DlgWait.obj
 0001:0000d600       ?GetMessageMap@CDlgWait@@MBEPBUAFX_MSGMAP@@XZ 1000e600 f   DlgWait.obj
 0001:0000d610       ?GetRuntimeClass@CDlgWait@@UBEPAUCRuntimeClass@@XZ 1000e610 f   DlgWait.obj
 0001:0000d620       ?GetThisClass@CDlgWait@@SGPAUCRuntimeClass@@XZ 1000e620 f   DlgWait.obj
 0001:0000d630       ?GetThisMessageMap@CDlgWait@@KGPBUAFX_MSGMAP@@XZ 1000e630 f   DlgWait.obj
 0001:0000d640       ?OnCtlColor@CDlgWait@@QAEPAUHBRUSH__@@PAVCDC@@PAVCWnd@@I@Z 1000e640 f   DlgWait.obj
 0001:0000d690       ?_GetBaseClass@CDlgWait@@KGPAUCRuntimeClass@@XZ 1000e690 f   DlgWait.obj
 0001:0000d6a0       ??0CGridCell@@QAE@XZ       1000e6a0 f   GridCell.obj
 0001:0000d770       ??0CGridDefaultCell@@QAE@XZ 1000e770 f   GridCell.obj
 0001:0000d980       ??1CGridCell@@UAE@XZ       1000e980 f   GridCell.obj
 0001:0000d9b0       ??1CGridDefaultCell@@UAE@XZ 1000e9b0 f   GridCell.obj
 0001:0000da30       ??4CGridCell@@QAEXABV0@@Z  1000ea30 f   GridCell.obj
 0001:0000da50       ??_GCGridCell@@UAEPAXI@Z   1000ea50 f i GridCell.obj
 0001:0000da50       ??_ECGridCell@@UAEPAXI@Z   1000ea50 f i GridCell.obj
 0001:0000dab0       ??_ECGridDefaultCell@@UAEPAXI@Z 1000eab0 f i GridCell.obj
 0001:0000dab0       ??_GCGridDefaultCell@@UAEPAXI@Z 1000eab0 f i GridCell.obj
 0001:0000db60       ?CreateObject@CGridCell@@SGPAVCObject@@XZ 1000eb60 f   GridCell.obj
 0001:0000dbd0       ?CreateObject@CGridDefaultCell@@SGPAVCObject@@XZ 1000ebd0 f   GridCell.obj
 0001:0000dc40       ?Edit@CGridCell@@UAEHHHVCRect@@VCPoint@@II@Z 1000ec40 f   GridCell.obj
 0001:0000dd50       ?EndEdit@CGridCell@@UAEXXZ 1000ed50 f   GridCell.obj
 0001:0000dd60       ?GetBackClr@CGridCell@@UBEKXZ 1000ed60 f i GridCell.obj
 0001:0000dd70       ?GetData@CGridCell@@UBEJXZ 1000ed70 f i GridCell.obj
 0001:0000dd80       ?GetEditWnd@CGridCell@@UBEPAVCWnd@@XZ 1000ed80 f i GridCell.obj
 0001:0000dd90       ?GetFont@CGridCell@@UBEPAUtagLOGFONTA@@XZ 1000ed90 f   GridCell.obj
 0001:0000ddb0       ?GetFont@CGridDefaultCell@@UBEPAUtagLOGFONTA@@XZ 1000edb0 f   GridCell.obj
 0001:0000ddc0       ?GetFontObject@CGridCell@@UBEPAVCFont@@XZ 1000edc0 f   GridCell.obj
 0001:0000de50       ?GetFontObject@CGridDefaultCell@@UBEPAVCFont@@XZ 1000ee50 f   GridCell.obj
 0001:0000de60       ?GetFormat@CGridCell@@UBEKXZ 1000ee60 f   GridCell.obj
 0001:0000de80       ?GetGrid@CGridCell@@UBEPAVCGridCtrl@@XZ 1000ee80 f i GridCell.obj
 0001:0000de90       ?GetHeight@CGridDefaultCell@@UBEHXZ 1000ee90 f i GridCell.obj
 0001:0000dea0       ?GetImage@CGridCell@@UBEHXZ 1000eea0 f i GridCell.obj
 0001:0000deb0       ?GetMargin@CGridCell@@UBEIXZ 1000eeb0 f   GridCell.obj
 0001:0000ded0       ?GetRuntimeClass@CGridCell@@UBEPAUCRuntimeClass@@XZ 1000eed0 f   GridCell.obj
 0001:0000dee0       ?GetRuntimeClass@CGridDefaultCell@@UBEPAUCRuntimeClass@@XZ 1000eee0 f   GridCell.obj
 0001:0000def0       ?GetState@CGridCellBase@@UBEKXZ 1000eef0 f i GridCell.obj
 0001:0000df00       ?GetState@CGridDefaultCell@@UBEKXZ 1000ef00 f i GridCell.obj
 0001:0000df10       ?GetStyle@CGridDefaultCell@@UBEKXZ 1000ef10 f i GridCell.obj
 0001:0000df20       ?GetText@CGridCell@@UBEPBDXZ 1000ef20 f i GridCell.obj
 0001:0000df30       ?GetTextClr@CGridCell@@UBEKXZ 1000ef30 f i GridCell.obj
 0001:0000df40       ?GetThisClass@CGridCell@@SGPAUCRuntimeClass@@XZ 1000ef40 f   GridCell.obj
 0001:0000df50       ?GetThisClass@CGridDefaultCell@@SGPAUCRuntimeClass@@XZ 1000ef50 f   GridCell.obj
 0001:0000df60       ?GetTipText@CGridCellBase@@UBEPBDXZ 1000ef60 f i GridCell.obj
 0001:0000df70       ?GetTipTextRect@CGridCellBase@@UAEHPAUtagRECT@@@Z 1000ef70 f i GridCell.obj
 0001:0000df80       ?GetWidth@CGridDefaultCell@@UBEHXZ 1000ef80 f i GridCell.obj
 0001:0000df90       ?IsDefaultFont@CGridCell@@UBEHXZ 1000ef90 f i GridCell.obj
 0001:0000dfa0       ?IsDropHighlighted@CGridCellBase@@UBEHXZ 1000efa0 f i GridCell.obj
 0001:0000dfb0       ?IsEditing@CGridCell@@UBEHXZ 1000efb0 f i GridCell.obj
 0001:0000dfc0       ?IsFixed@CGridCellBase@@UBEHXZ 1000efc0 f i GridCell.obj
 0001:0000dfd0       ?IsFixedCol@CGridCellBase@@UBEHXZ 1000efd0 f i GridCell.obj
 0001:0000dfe0       ?IsFixedRow@CGridCellBase@@UBEHXZ 1000efe0 f i GridCell.obj
 0001:0000dff0       ?IsFocused@CGridCellBase@@UBEHXZ 1000eff0 f i GridCell.obj
 0001:0000e000       ?IsModified@CGridCellBase@@UBEHXZ 1000f000 f i GridCell.obj
 0001:0000e010       ?IsReadOnly@CGridCellBase@@UBEHXZ 1000f010 f i GridCell.obj
 0001:0000e020       ?IsSelected@CGridCellBase@@UBEHXZ 1000f020 f i GridCell.obj
 0001:0000e030       ?OnEndEdit@CGridCell@@MAEXXZ 1000f030 f   GridCell.obj
 0001:0000e040       ?Reset@CGridCell@@UAEXXZ   1000f040 f   GridCell.obj
 0001:0000e0b0       ?SetBackClr@CGridCell@@UAEXK@Z 1000f0b0 f i GridCell.obj
 0001:0000e0c0       ?SetCoords@CGridCell@@UAEXHH@Z 1000f0c0 f i GridCell.obj
 0001:0000e0d0       ?SetCoords@CGridDefaultCell@@UAEXHH@Z 1000f0d0 f i GridCell.obj
 0001:0000e0e0       ?SetData@CGridCell@@UAEXJ@Z 1000f0e0 f i GridCell.obj
 0001:0000e0f0       ?SetData@CGridDefaultCell@@UAEXJ@Z 1000f0f0 f i GridCell.obj
 0001:0000e100       ?SetFont@CGridCell@@UAEXPBUtagLOGFONTA@@@Z 1000f100 f   GridCell.obj
 0001:0000e170       ?SetFont@CGridDefaultCell@@UAEXPBUtagLOGFONTA@@@Z 1000f170 f   GridCell.obj
 0001:0000e290       ?SetFormat@CGridCell@@UAEXK@Z 1000f290 f i GridCell.obj
 0001:0000e2a0       ?SetGrid@CGridCell@@UAEXPAVCGridCtrl@@@Z 1000f2a0 f i GridCell.obj
 0001:0000e2b0       ?SetHeight@CGridDefaultCell@@UAEXH@Z 1000f2b0 f i GridCell.obj
 0001:0000e2c0       ?SetImage@CGridCell@@UAEXH@Z 1000f2c0 f i GridCell.obj
 0001:0000e2d0       ?SetMargin@CGridCell@@UAEXI@Z 1000f2d0 f i GridCell.obj
 0001:0000e2e0       ?SetState@CGridCellBase@@UAEXK@Z 1000f2e0 f i GridCell.obj
 0001:0000e2f0       ?SetState@CGridDefaultCell@@UAEXK@Z 1000f2f0 f i GridCell.obj
 0001:0000e300       ?SetStyle@CGridDefaultCell@@UAEXK@Z 1000f300 f i GridCell.obj
 0001:0000e310       ?SetText@CGridCell@@UAEXPBD@Z 1000f310 f i GridCell.obj
 0001:0000e320       ?SetTextClr@CGridCell@@UAEXK@Z 1000f320 f i GridCell.obj
 0001:0000e330       ?SetWidth@CGridDefaultCell@@UAEXH@Z 1000f330 f i GridCell.obj
 0001:0000e340       ?_GetBaseClass@CGridCell@@KGPAUCRuntimeClass@@XZ 1000f340 f   GridCell.obj
 0001:0000e350       ?_GetBaseClass@CGridDefaultCell@@KGPAUCRuntimeClass@@XZ 1000f350 f   GridCell.obj
 0001:0000e360       ??0CGridCellBase@@QAE@XZ   1000f360 f   GridCellBase.obj
 0001:0000e370       ??1AFX_EXCEPTION_LINK@@QAE@XZ 1000f370 f i GridCellBase.obj
 0001:0000e3b0       ??1CGridCellBase@@UAE@XZ   1000f3b0 f   GridCellBase.obj
 0001:0000e3c0       ??1_GV_ITEM@@QAE@XZ        1000f3c0 f i GridCellBase.obj
 0001:0000e3d0       ??4CGridCellBase@@UAEXABV0@@Z 1000f3d0 f   GridCellBase.obj
 0001:0000e490       ??_GCGridCellBase@@UAEPAXI@Z 1000f490 f i GridCellBase.obj
 0001:0000e490       ??_ECGridCellBase@@UAEPAXI@Z 1000f490 f i GridCellBase.obj
 0001:0000e4d0       ?Draw@CGridCellBase@@UAEHPAVCDC@@HHVCRect@@H@Z 1000f4d0 f   GridCellBase.obj
 0001:0000ecf0       ?Edit@CGridCellBase@@UAEHHHVCRect@@VCPoint@@II@Z 1000fcf0 f i GridCellBase.obj
 0001:0000ed00       ?EndEdit@CGridCellBase@@UAEXXZ 1000fd00 f i GridCellBase.obj
 0001:0000ed10       ?GetCellExtent@CGridCellBase@@UAE?AVCSize@@PAVCDC@@@Z 1000fd10 f   GridCellBase.obj
 0001:0000edf0       ?GetCurrentPen@CDC@@QBEPAVCPen@@XZ 1000fdf0 f i GridCellBase.obj
 0001:0000ee10       ?GetDefaultCell@CGridCellBase@@UBEPAV1@XZ 1000fe10 f   GridCellBase.obj
 0001:0000ee70       ?GetRuntimeClass@CGridCellBase@@UBEPAUCRuntimeClass@@XZ 1000fe70 f   GridCellBase.obj
 0001:0000ee80       ?GetTextExtent@CDC@@QBE?AVCSize@@ABV?$CStringT@DV?$StrTraitMFC_DLL@DV?$ChTraitsCRT@D@ATL@@@@@ATL@@@Z 1000fe80 f i GridCellBase.obj
 0001:0000eeb0       ?GetTextExtent@CGridCellBase@@UAE?AVCSize@@PBDPAVCDC@@@Z 1000feb0 f   GridCellBase.obj
 0001:0000f1c0       ?GetTextRect@CGridCellBase@@UAEHPAUtagRECT@@@Z 100101c0 f   GridCellBase.obj
 0001:0000f250       ?GetThisClass@CGridCellBase@@SGPAUCRuntimeClass@@XZ 10010250 f   GridCellBase.obj
 0001:0000f260       ?OnClick@CGridCellBase@@MAEXVCPoint@@@Z 10010260 f   GridCellBase.obj
 0001:0000f270       ?OnClickDown@CGridCellBase@@MAEXVCPoint@@@Z 10010270 f   GridCellBase.obj
 0001:0000f280       ?OnDblClick@CGridCellBase@@MAEXVCPoint@@@Z 10010280 f   GridCellBase.obj
 0001:0000f290       ?OnEndEdit@CGridCellBase@@MAEXXZ 10010290 f   GridCellBase.obj
 0001:0000f2a0       ?OnMouseEnter@CGridCellBase@@MAEXXZ 100102a0 f   GridCellBase.obj
 0001:0000f2b0       ?OnMouseLeave@CGridCellBase@@MAEXXZ 100102b0 f   GridCellBase.obj
 0001:0000f2c0       ?OnMouseOver@CGridCellBase@@MAEXXZ 100102c0 f   GridCellBase.obj
 0001:0000f2d0       ?OnRClick@CGridCellBase@@MAEXVCPoint@@@Z 100102d0 f   GridCellBase.obj
 0001:0000f2e0       ?OnSetCursor@CGridCellBase@@MAEHXZ 100102e0 f   GridCellBase.obj
 0001:0000f300       ?PrintCell@CGridCellBase@@UAEHPAVCDC@@HHVCRect@@@Z 10010300 f   GridCellBase.obj
 0001:0000f780       ?Reset@CGridCellBase@@UAEXXZ 10010780 f   GridCellBase.obj
 0001:0000f790       ?SendMessageToParent@CGridCellBase@@QAEJHHH@Z 10010790 f   GridCellBase.obj
 0001:0000f7b0       ?ValidateEdit@CGridCellBase@@UAEHPBD@Z 100107b0 f   GridCellBase.obj
 0001:0000f7c0       ?_GetBaseClass@CGridCellBase@@KGPAUCRuntimeClass@@XZ 100107c0 f   GridCellBase.obj
 0001:0000f7d0       ??$CompareElements@KK@@YGHPBK0@Z 100107d0 f i GridCtrl.obj
 0001:0000f800       ??$SerializeElements@K@@YGXAAVCArchive@@PAKH@Z 10010800 f i GridCtrl.obj
 0001:0000f8b0       ??$SerializeElements@VCCellID@@@@YGXAAVCArchive@@PAVCCellID@@H@Z 100108b0 f i GridCtrl.obj
 0001:0000f960       ??0?$CMap@KKVCCellID@@AAV1@@@QAE@H@Z 10010960 f i GridCtrl.obj
 0001:0000f9a0       ??0CGridCtrl@@QAE@HHHH@Z   100109a0 f   GridCtrl.obj
 0001:00010090       ??1?$CMap@KKVCCellID@@AAV1@@@UAE@XZ 10011090 f i GridCtrl.obj
 0001:00010110       ??1?$CTypedPtrArray@VCObArray@@PAV?$CTypedPtrArray@VCObArray@@PAVCGridCellBase@@@@@@UAE@XZ 10011110 f i GridCtrl.obj
 0001:00010120       ??1CCommonDialog@@UAE@XZ   10011120 f i GridCtrl.obj
 0001:00010130       ??1CException@@UAE@XZ      10011130 f i GridCtrl.obj
 0001:00010140       ??1CFileException@@UAE@XZ  10011140 f i GridCtrl.obj
 0001:00010150       ??1CGridCtrl@@UAE@XZ       10011150 f   GridCtrl.obj
 0001:00010310       ??1COleDataObject@@QAE@XZ  10011310 f i GridCtrl.obj
 0001:00010350       ??1CPrintDialog@@UAE@XZ    10011350 f i GridCtrl.obj
 0001:00010360       ??1CWaitCursor@@QAE@XZ     10011360 f i GridCtrl.obj
 0001:00010470       ??8CCellID@@QBEHABV0@@Z    10011470 f i GridCtrl.obj
 0001:000104a0       ??9CCellID@@QBEHABV0@@Z    100114a0 f i GridCtrl.obj
 0001:000104d0       ??A?$CMap@KKVCCellID@@AAV1@@@QAEAAVCCellID@@K@Z 100114d0 f i GridCtrl.obj
 0001:000105f0       ??A?$CTypedPtrArray@VCObArray@@PAV?$CTypedPtrArray@VCObArray@@PAVCGridCellBase@@@@@@QAEAAPAV?$CTypedPtrArray@VCObArray@@PAVCGridCellBase@@@@H@Z 100115f0 f i GridCtrl.obj
 0001:0001060f       ??_9CGridCtrl@@$BBIM@AE    1001160f f i GridCtrl.obj
 0001:00010617       ??_9CGridCtrl@@$BBJA@AE    10011617 f i GridCtrl.obj
 0001:0001061f       ??_9CGridCtrl@@$BBJE@AE    1001161f f i GridCtrl.obj
 0001:00010627       ??_9CGridCtrl@@$BBJI@AE    10011627 f i GridCtrl.obj
 0001:00010630       ??_FCCellID@@QAEXXZ        10011630 f i GridCtrl.obj
 0001:00010640       ??_G?$CMap@KKVCCellID@@AAV1@@@UAEPAXI@Z 10011640 f i GridCtrl.obj
 0001:00010640       ??_E?$CMap@KKVCCellID@@AAV1@@@UAEPAXI@Z 10011640 f i GridCtrl.obj
 0001:00010700       ??_E?$CTypedPtrArray@VCObArray@@PAV?$CTypedPtrArray@VCObArray@@PAVCGridCellBase@@@@@@UAEPAXI@Z 10011700 f i GridCtrl.obj
 0001:00010700       ??_G?$CTypedPtrArray@VCObArray@@PAV?$CTypedPtrArray@VCObArray@@PAVCGridCellBase@@@@@@UAEPAXI@Z 10011700 f i GridCtrl.obj
 0001:00010740       ??_E?$CTypedPtrArray@VCObArray@@PAVCGridCellBase@@@@UAEPAXI@Z 10011740 f i GridCtrl.obj
 0001:00010740       ??_G?$CTypedPtrArray@VCObArray@@PAVCGridCellBase@@@@UAEPAXI@Z 10011740 f i GridCtrl.obj
 0001:00010780       ??_GCCommonDialog@@UAEPAXI@Z 10011780 f i GridCtrl.obj
 0001:00010780       ??_ECCommonDialog@@UAEPAXI@Z 10011780 f i GridCtrl.obj
 0001:000107d0       ??_ECFileException@@UAEPAXI@Z 100117d0 f i GridCtrl.obj
 0001:000107d0       ??_GCFileException@@UAEPAXI@Z 100117d0 f i GridCtrl.obj
 0001:00010820       ??_ECGridCtrl@@UAEPAXI@Z   10011820 f i GridCtrl.obj
 0001:00010820       ??_GCGridCtrl@@UAEPAXI@Z   10011820 f i GridCtrl.obj
 0001:00010860       ??_H@YGXPAXIIP6EPAX0@Z@Z   10011860 f i GridCtrl.obj
 0001:00010890       ?AutoFill@CGridCtrl@@QAEXXZ 10011890 f   GridCtrl.obj
 0001:00010980       ?AutoSize@CGridCtrl@@QAEXI@Z 10011980 f   GridCtrl.obj
 0001:00010bc0       ?AutoSizeColumn@CGridCtrl@@QAEHHIH@Z 10011bc0 f   GridCtrl.obj
 0001:00010d40       ?AutoSizeColumns@CGridCtrl@@QAEXI@Z 10011d40 f   GridCtrl.obj
 0001:00010da0       ?AutoSizeRow@CGridCtrl@@QAEHHH@Z 10011da0 f   GridCtrl.obj
 0001:00010ee0       ?AutoSizeRows@CGridCtrl@@QAEXXZ 10011ee0 f   GridCtrl.obj
 0001:00010f30       ?ClearCells@CGridCtrl@@QAEXVCCellRange@@@Z 10011f30 f   GridCtrl.obj
 0001:00010fd0       ?CopyTextFromGrid@CGridCtrl@@UAEPAVCOleDataSource@@XZ 10011fd0 f   GridCtrl.obj
 0001:00011240       ?Create@CGridCtrl@@QAEHABUtagRECT@@PAVCWnd@@IK@Z 10012240 f   GridCtrl.obj
 0001:000113b0       ?CreateCell@CGridCtrl@@MAEPAVCGridCellBase@@HH@Z 100123b0 f   GridCtrl.obj
 0001:00011460       ?CreateDragImage@CGridCtrl@@MAEPAVCImageList@@PAVCPoint@@@Z 10012460 f   GridCtrl.obj
 0001:00011680       ?CreateObject@CGridCtrl@@SGPAVCObject@@XZ 10012680 f   GridCtrl.obj
 0001:000116f0       ?CutSelectedText@CGridCtrl@@UAEXXZ 100126f0 f   GridCtrl.obj
 0001:00011770       ?DeleteAllItems@CGridCtrl@@QAEHXZ 10012770 f   GridCtrl.obj
 0001:00011880       ?DeleteColumn@CGridCtrl@@QAEHH@Z 10012880 f   GridCtrl.obj
 0001:00011980       ?DeleteNonFixedRows@CGridCtrl@@QAEHXZ 10012980 f   GridCtrl.obj
 0001:00011ab0       ?DeleteRow@CGridCtrl@@QAEHH@Z 10012ab0 f   GridCtrl.obj
 0001:00011bb0       ?DestroyCell@CGridCtrl@@MAEXHH@Z 10012bb0 f   GridCtrl.obj
 0001:00011bf0       ?EnableScrollBars@CGridCtrl@@IAEXHH@Z 10012bf0 f   GridCtrl.obj
 0001:00011ca0       ?EndEditing@CGridCtrl@@MAEXXZ 10012ca0 f   GridCtrl.obj
 0001:00011ce0       ?EnsureVisible@CGridCtrl@@QAEXHH@Z 10012ce0 f   GridCtrl.obj
 0001:00011f90       ?EraseBkgnd@CGridCtrl@@IAEXPAVCDC@@@Z 10012f90 f   GridCtrl.obj
 0001:00012230       ?ExpandColumnsToFit@CGridCtrl@@QAEXH@Z 10013230 f   GridCtrl.obj
 0001:00012440       ?ExpandLastColumn@CGridCtrl@@QAEXXZ 10013440 f   GridCtrl.obj
 0001:00012530       ?ExpandRowsToFit@CGridCtrl@@QAEXH@Z 10013530 f   GridCtrl.obj
 0001:00012740       ?ExpandToFit@CGridCtrl@@QAEXH@Z 10013740 f   GridCtrl.obj
 0001:00012790       ?Format@COleDateTime@ATL@@QBE?AV?$CStringT@DV?$StrTraitMFC_DLL@DV?$ChTraitsCRT@D@ATL@@@@@2@PBD@Z 10013790 f i GridCtrl.obj
 0001:00012930       ?FreeAssoc@?$CMap@KKVCCellID@@AAV1@@@IAEXPAVCAssoc@1@@Z 10013930 f i GridCtrl.obj
 0001:00012990       ?GetAssocAt@?$CMap@KKVCCellID@@AAV1@@@IBEPAVCAssoc@1@KAAI0@Z 10013990 f i GridCtrl.obj
 0001:00012a00       ?GetCell@CGridCtrl@@QBEPAVCGridCellBase@@HH@Z 10013a00 f i GridCtrl.obj
 0001:00012df0       ?GetCellFromPt@CGridCtrl@@QAE?AVCCellID@@VCPoint@@H@Z 10013df0 f   GridCtrl.obj
 0001:00012fd0       ?GetCellOrigin@CGridCtrl@@QAEHABVCCellID@@PAUtagPOINT@@@Z 10013fd0 f   GridCtrl.obj
 0001:00012ff0       ?GetCellOrigin@CGridCtrl@@QAEHHHPAUtagPOINT@@@Z 10013ff0 f   GridCtrl.obj
 0001:00013220       ?GetCellRange@CGridCtrl@@QBE?AVCCellRange@@XZ 10014220 f   GridCtrl.obj
 0001:00013250       ?GetCellRangeRect@CGridCtrl@@IAEHABVCCellRange@@PAUtagRECT@@@Z 10014250 f   GridCtrl.obj
 0001:00013350       ?GetCellRect@CGridCtrl@@QAEHABVCCellID@@PAUtagRECT@@@Z 10014350 f   GridCtrl.obj
 0001:00013370       ?GetCellRect@CGridCtrl@@QAEHHHPAUtagRECT@@@Z 10014370 f   GridCtrl.obj
 0001:00013420       ?GetColumnWidth@CGridCtrl@@QBEHH@Z 10014420 f   GridCtrl.obj
 0001:00013460       ?GetDefaultCell@CGridCtrl@@QBEPAVCGridCellBase@@HH@Z 10014460 f i GridCtrl.obj
 0001:000134a0       ?GetFixedColumnWidth@CGridCtrl@@QBEHXZ 100144a0 f   GridCtrl.obj
 0001:000134f0       ?GetFixedRowHeight@CGridCtrl@@QBEHXZ 100144f0 f   GridCtrl.obj
 0001:00013540       ?GetItem@CGridCtrl@@QAEHPAU_GV_ITEM@@@Z 10014540 f   GridCtrl.obj
 0001:000136c0       ?GetItemBkColour@CGridCtrl@@QBEKHH@Z 100146c0 f   GridCtrl.obj
 0001:000136f0       ?GetItemData@CGridCtrl@@QBEJHH@Z 100146f0 f   GridCtrl.obj
 0001:00013720       ?GetItemFgColour@CGridCtrl@@QBEKHH@Z 10014720 f   GridCtrl.obj
 0001:00013750       ?GetItemFont@CGridCtrl@@QAEPBUtagLOGFONTA@@HH@Z 10014750 f   GridCtrl.obj
 0001:000137c0       ?GetItemFormat@CGridCtrl@@QBEIHH@Z 100147c0 f   GridCtrl.obj
 0001:000137f0       ?GetItemImage@CGridCtrl@@QBEHHH@Z 100147f0 f   GridCtrl.obj
 0001:00013820       ?GetItemState@CGridCtrl@@QBEIHH@Z 10014820 f   GridCtrl.obj
 0001:00013850       ?GetItemText@CGridCtrl@@QBE?AV?$CStringT@DV?$StrTraitMFC_DLL@DV?$ChTraitsCRT@D@ATL@@@@@ATL@@HH@Z 10014850 f   GridCtrl.obj
 0001:000138b0       ?GetMessageMap@CGridCtrl@@MBEPBUAFX_MSGMAP@@XZ 100148b0 f   GridCtrl.obj
 0001:000138c0       ?GetModified@CGridCtrl@@QAEHHH@Z 100148c0 f   GridCtrl.obj
 0001:00013910       ?GetMouseScrollLines@@YAIXZ 10014910 f   GridCtrl.obj
 0001:00013a10       ?GetNextAssoc@?$CMap@KKVCCellID@@AAV1@@@QBEXAAPAU__POSITION@@AAKAAVCCellID@@@Z 10014a10 f i GridCtrl.obj
 0001:00013aa0       ?GetNextItem@CGridCtrl@@QBE?AVCCellID@@AAV2@H@Z 10014aa0 f   GridCtrl.obj
 0001:00013e00       ?GetPointClicked@CGridCtrl@@IAE?AVCPoint@@HHABV2@@Z 10014e00 f   GridCtrl.obj
 0001:00013e60       ?GetPrintMarginInfo@CGridCtrl@@QAEXAAH000000@Z 10014e60 f   GridCtrl.obj
 0001:00013ec0       ?GetRowHeight@CGridCtrl@@QBEHH@Z 10014ec0 f   GridCtrl.obj
 0001:00013f00       ?GetRuntimeClass@CGridCtrl@@UBEPAUCRuntimeClass@@XZ 10014f00 f   GridCtrl.obj
 0001:00013f10       ?GetScrollPos32@CGridCtrl@@IAEHHH@Z 10014f10 f   GridCtrl.obj
 0001:00013f90       ?GetSelectedCellRange@CGridCtrl@@QBE?AVCCellRange@@XZ 10014f90 f   GridCtrl.obj
 0001:00014050       ?GetTextExtent@CGridCtrl@@QAE?AVCSize@@HHPBD@Z 10015050 f   GridCtrl.obj
 0001:00014090       ?GetTextRect@CGridCtrl@@QAEHABVCCellID@@PAUtagRECT@@@Z 10015090 f   GridCtrl.obj
 0001:000140f0       ?GetTextRect@CGridCtrl@@QAEHHHPAUtagRECT@@@Z 100150f0 f   GridCtrl.obj
 0001:00014140       ?GetThisClass@CGridCtrl@@SGPAUCRuntimeClass@@XZ 10015140 f   GridCtrl.obj
 0001:00014150       ?GetThisMessageMap@CGridCtrl@@KGPBUAFX_MSGMAP@@XZ 10015150 f   GridCtrl.obj
 0001:00014160       ?GetTopleftNonFixedCell@CGridCtrl@@IAE?AVCCellID@@H@Z 10015160 f   GridCtrl.obj
 0001:00014270       ?GetUnobstructedNonFixedCellRange@CGridCtrl@@IAE?AVCCellRange@@H@Z 10015270 f   GridCtrl.obj
 0001:000143d0       ?GetVirtualHeight@CGridCtrl@@QBEJXZ 100153d0 f   GridCtrl.obj
 0001:00014410       ?GetVirtualWidth@CGridCtrl@@QBEJXZ 10015410 f   GridCtrl.obj
 0001:00014450       ?GetVisibleNonFixedCellRange@CGridCtrl@@IAE?AVCCellRange@@PAUtagRECT@@H@Z 10015450 f   GridCtrl.obj
 0001:000145d0       ?InitHashTable@?$CMap@KKVCCellID@@AAV1@@@QAEXIH@Z 100155d0 f i GridCtrl.obj
 0001:00014640       ?Initialise@CGridCtrl@@IAEHXZ 10015640 f   GridCtrl.obj
 0001:00014740       ?InsertColumn@CGridCtrl@@QAEHPBDIH@Z 10015740 f   GridCtrl.obj
 0001:00014a80       ?InsertRow@CGridCtrl@@QAEHPBDH@Z 10015a80 f   GridCtrl.obj
 0001:00014da0       ?InvalidateCellRect@CGridCtrl@@IAEHABVCCellID@@@Z 10015da0 f   GridCtrl.obj
 0001:00014dc0       ?InvalidateCellRect@CGridCtrl@@IAEHABVCCellRange@@@Z 10015dc0 f   GridCtrl.obj
 0001:00014f30       ?InvalidateCellRect@CGridCtrl@@IAEHHH@Z 10015f30 f   GridCtrl.obj
 0001:00014ff0       ?IsCellEditable@CGridCtrl@@QBEHAAVCCellID@@@Z 10015ff0 f   GridCtrl.obj
 0001:00015030       ?IsCellEditable@CGridCtrl@@QBEHHH@Z 10016030 f   GridCtrl.obj
 0001:00015070       ?IsCellFixed@CGridCtrl@@QAEHHH@Z 10016070 f   GridCtrl.obj
 0001:000150a0       ?IsCellSelected@CGridCtrl@@QBEHAAVCCellID@@@Z 100160a0 f   GridCtrl.obj
 0001:000150c0       ?IsCellSelected@CGridCtrl@@QBEHHH@Z 100160c0 f   GridCtrl.obj
 0001:00015140       ?IsCellVisible@CGridCtrl@@QAEHHH@Z 10016140 f   GridCtrl.obj
 0001:00015340       ?IsCellVisible@CGridCtrl@@QAEHVCCellID@@@Z 10016340 f   GridCtrl.obj
 0001:00015360       ?IsItemEditing@CGridCtrl@@QAEHHH@Z 10016360 f   GridCtrl.obj
 0001:00015390       ?IsValid@CGridCtrl@@QBEHABVCCellID@@@Z 10016390 f   GridCtrl.obj
 0001:000153d0       ?IsValid@CGridCtrl@@QBEHABVCCellRange@@@Z 100163d0 f   GridCtrl.obj
 0001:00015420       ?IsValid@CGridCtrl@@QBEHHH@Z 10016420 f   GridCtrl.obj
 0001:00015450       ?Load@CGridCtrl@@QAEHPBDD@Z 10016450 f   GridCtrl.obj
 0001:000157e0       ?Lookup@?$CMap@KKVCCellID@@AAV1@@@QBEHKAAVCCellID@@@Z 100167e0 f i GridCtrl.obj
 0001:00015820       ?MouseOverColumnResizeArea@CGridCtrl@@IAEHAAVCPoint@@@Z 10016820 f   GridCtrl.obj
 0001:000158e0       ?MouseOverRowResizeArea@CGridCtrl@@IAEHAAVCPoint@@@Z 100168e0 f   GridCtrl.obj
 0001:000159a0       ?NewAssoc@?$CMap@KKVCCellID@@AAV1@@@IAEPAVCAssoc@1@K@Z 100169a0 f i GridCtrl.obj
 0001:00015a30       ?OnBeginDrag@CGridCtrl@@UAEXXZ 10016a30 f   GridCtrl.obj
 0001:00015ac0       ?OnBeginPrinting@CGridCtrl@@UAEXPAVCDC@@PAUCPrintInfo@@@Z 10016ac0 f   GridCtrl.obj
 0001:00015e80       ?OnCaptureChanged@CGridCtrl@@IAEXPAVCWnd@@@Z 10016e80 f   GridCtrl.obj
 0001:00015ee0       ?OnChar@CGridCtrl@@IAEXIII@Z 10016ee0 f   GridCtrl.obj
 0001:00015f40       ?OnDragEnter@CGridCtrl@@UAEKPAVCOleDataObject@@KVCPoint@@@Z 10016f40 f   GridCtrl.obj
 0001:00016010       ?OnDragLeave@CGridCtrl@@UAEXXZ 10017010 f   GridCtrl.obj
 0001:00016080       ?OnDragOver@CGridCtrl@@UAEKPAVCOleDataObject@@KVCPoint@@@Z 10017080 f   GridCtrl.obj
 0001:000161f0       ?OnDraw@CGridCtrl@@MAEXPAVCDC@@@Z 100171f0 f   GridCtrl.obj
 0001:000168b0       ?OnDrop@CGridCtrl@@UAEHPAVCOleDataObject@@KVCPoint@@@Z 100178b0 f   GridCtrl.obj
 0001:00016930       ?OnEditCell@CGridCtrl@@MAEXHHVCPoint@@I@Z 10017930 f   GridCtrl.obj
 0001:00016a10       ?OnEditCopy@CGridCtrl@@UAEXXZ 10017a10 f   GridCtrl.obj
 0001:00016a30       ?OnEditCut@CGridCtrl@@UAEXXZ 10017a30 f   GridCtrl.obj
 0001:00016a60       ?OnEditPaste@CGridCtrl@@UAEXXZ 10017a60 f   GridCtrl.obj
 0001:00016bf0       ?OnEditSelectAll@CGridCtrl@@UAEXXZ 10017bf0 f   GridCtrl.obj
 0001:00016c50       ?OnEndEditCell@CGridCtrl@@MAEXHHV?$CStringT@DV?$StrTraitMFC_DLL@DV?$ChTraitsCRT@D@ATL@@@@@ATL@@@Z 10017c50 f   GridCtrl.obj
 0001:00016db0       ?OnEndInPlaceEdit@CGridCtrl@@IAEXPAUtagNMHDR@@PAJ@Z 10017db0 f   GridCtrl.obj
 0001:00016e70       ?OnEndPrinting@CGridCtrl@@UAEXPAVCDC@@PAUCPrintInfo@@@Z 10017e70 f   GridCtrl.obj
 0001:00016e80       ?OnEraseBkgnd@CGridCtrl@@IAEHPAVCDC@@@Z 10017e80 f   GridCtrl.obj
 0001:00016e90       ?OnFixedColumnClick@CGridCtrl@@MAEXAAVCCellID@@@Z 10017e90 f   GridCtrl.obj
 0001:00016f00       ?OnFixedRowClick@CGridCtrl@@MAEXAAVCCellID@@@Z 10017f00 f   GridCtrl.obj
 0001:00017000       ?OnGetDlgCode@CGridCtrl@@IAEIXZ 10018000 f   GridCtrl.obj
 0001:00017030       ?OnGetFont@CGridCtrl@@IAEJIJ@Z 10018030 f   GridCtrl.obj
 0001:00017050       ?OnHScroll@CGridCtrl@@IAEXIIPAVCScrollBar@@@Z 10018050 f   GridCtrl.obj
 0001:00017310       ?OnImeChar@CGridCtrl@@IAEJIJ@Z 10018310 f   GridCtrl.obj
 0001:00017360       ?OnKeyDown@CGridCtrl@@IAEXIII@Z 10018360 f   GridCtrl.obj
 0001:00017c00       ?OnKeyUp@CGridCtrl@@IAEXIII@Z 10018c00 f   GridCtrl.obj
 0001:00017c10       ?OnLButtonDblClk@CGridCtrl@@IAEXIVCPoint@@@Z 10018c10 f   GridCtrl.obj
 0001:00017f00       ?OnLButtonDown@CGridCtrl@@IAEXIVCPoint@@@Z 10018f00 f   GridCtrl.obj
 0001:00018740       ?OnLButtonUp@CGridCtrl@@IAEXIVCPoint@@@Z 10019740 f   GridCtrl.obj
 0001:00018bd0       ?OnMouseMove@CGridCtrl@@IAEXIVCPoint@@@Z 10019bd0 f   GridCtrl.obj
 0001:00019020       ?OnMouseWheel@CGridCtrl@@IAEHIFVCPoint@@@Z 1001a020 f   GridCtrl.obj
 0001:00019120       ?OnPaint@CGridCtrl@@IAEXXZ 1001a120 f   GridCtrl.obj
 0001:000192b0       ?OnPrint@CGridCtrl@@UAEXPAVCDC@@PAUCPrintInfo@@@Z 1001a2b0 f   GridCtrl.obj
 0001:000198a0       ?OnRButtonDown@CGridCtrl@@IAEXIVCPoint@@@Z 1001a8a0 f   GridCtrl.obj
 0001:000198c0       ?OnRButtonUp@CGridCtrl@@IAEXIVCPoint@@@Z 1001a8c0 f   GridCtrl.obj
 0001:000199c0       ?OnSelecting@CGridCtrl@@IAEXABVCCellID@@@Z 1001a9c0 f   GridCtrl.obj
 0001:00019aa0       ?OnSetCursor@CGridCtrl@@IAEHPAVCWnd@@II@Z 1001aaa0 f   GridCtrl.obj
 0001:00019b90       ?OnSetFont@CGridCtrl@@IAEJIJ@Z 1001ab90 f   GridCtrl.obj
 0001:00019c40       ?OnSettingChange@CGridCtrl@@IAEXIPBD@Z 1001ac40 f   GridCtrl.obj
 0001:00019df0       ?OnSize@CGridCtrl@@IAEXIHH@Z 1001adf0 f   GridCtrl.obj
 0001:00019e50       ?OnSysColorChange@CGridCtrl@@IAEXXZ 1001ae50 f   GridCtrl.obj
 0001:00019fe0       ?OnSysKeyDown@CGridCtrl@@IAEXIII@Z 1001afe0 f   GridCtrl.obj
 0001:00019ff0       ?OnTimer@CGridCtrl@@IAEXI@Z 1001aff0 f   GridCtrl.obj
 0001:0001a170       ?OnUpdateEditCopy@CGridCtrl@@IAEXPAVCCmdUI@@@Z 1001b170 f   GridCtrl.obj
 0001:0001a190       ?OnUpdateEditCut@CGridCtrl@@IAEXPAVCCmdUI@@@Z 1001b190 f   GridCtrl.obj
 0001:0001a1c0       ?OnUpdateEditPaste@CGridCtrl@@IAEXPAVCCmdUI@@@Z 1001b1c0 f   GridCtrl.obj
 0001:0001a230       ?OnUpdateEditSelectAll@CGridCtrl@@IAEXPAVCCmdUI@@@Z 1001b230 f   GridCtrl.obj
 0001:0001a250       ?OnVScroll@CGridCtrl@@IAEXIIPAVCScrollBar@@@Z 1001b250 f   GridCtrl.obj
 0001:0001a510       ?PasteTextToGrid@CGridCtrl@@UAEHVCCellID@@PAVCOleDataObject@@H@Z 1001b510 f   GridCtrl.obj
 0001:0001aa90       ?PreSubclassWindow@CGridCtrl@@MAEXXZ 1001ba90 f   GridCtrl.obj
 0001:0001ab90       ?Print@CGridCtrl@@QAEXPAVCPrintDialog@@@Z 1001bb90 f   GridCtrl.obj
 0001:0001adf0       ?PrintColumnHeadings@CGridCtrl@@MAEXPAVCDC@@PAUCPrintInfo@@@Z 1001bdf0 f   GridCtrl.obj
 0001:0001af10       ?PrintFixedRowCells@CGridCtrl@@MAEXHHAAHAAVCRect@@PAVCDC@@0@Z 1001bf10 f   GridCtrl.obj
 0001:0001b0a0       ?PrintFooter@CGridCtrl@@MAEXPAVCDC@@PAUCPrintInfo@@@Z 1001c0a0 f   GridCtrl.obj
 0001:0001b3d0       ?PrintHeader@CGridCtrl@@MAEXPAVCDC@@PAUCPrintInfo@@@Z 1001c3d0 f   GridCtrl.obj
 0001:0001b5a0       ?PrintRowButtons@CGridCtrl@@MAEXPAVCDC@@PAUCPrintInfo@@@Z 1001c5a0 f   GridCtrl.obj
 0001:0001b7c0       ?RedrawCell@CGridCtrl@@QAEHABVCCellID@@PAVCDC@@@Z 1001c7c0 f   GridCtrl.obj
 0001:0001b7e0       ?RedrawCell@CGridCtrl@@QAEHHHPAVCDC@@@Z 1001c7e0 f   GridCtrl.obj
 0001:0001ba10       ?RedrawColumn@CGridCtrl@@QAEHH@Z 1001ca10 f   GridCtrl.obj
 0001:0001bca0       ?RedrawRow@CGridCtrl@@QAEHH@Z 1001cca0 f   GridCtrl.obj
 0001:0001bf30       ?Refresh@CGridCtrl@@QAEXXZ 1001cf30 f   GridCtrl.obj
 0001:0001bf50       ?RegisterWindowClass@CGridCtrl@@IAEHXZ 1001cf50 f   GridCtrl.obj
 0001:0001bff0       ?RemoveAll@?$CMap@KKVCCellID@@AAV1@@@QAEXXZ 1001cff0 f i GridCtrl.obj
 0001:0001c030       ?RemoveKey@?$CMap@KKVCCellID@@AAV1@@@QAEHK@Z 1001d030 f i GridCtrl.obj
 0001:0001c0f0       ?ResetScrollBars@CGridCtrl@@IAEXXZ 1001d0f0 f   GridCtrl.obj
 0001:0001c380       ?ResetSelectedRange@CGridCtrl@@IAEXXZ 1001d380 f   GridCtrl.obj
 0001:0001c400       ?Save@CGridCtrl@@QAEHPBDD@Z 1001d400 f   GridCtrl.obj
 0001:0001c620       ?SelectAllCells@CGridCtrl@@IAEXXZ 1001d620 f   GridCtrl.obj
 0001:0001c650       ?SelectCells@CGridCtrl@@IAEXVCCellID@@HH@Z 1001d650 f   GridCtrl.obj
 0001:0001c6d0       ?SelectColumns@CGridCtrl@@IAEXVCCellID@@HH@Z 1001d6d0 f   GridCtrl.obj
 0001:0001c750       ?SelectRows@CGridCtrl@@IAEXVCCellID@@HH@Z 1001d750 f   GridCtrl.obj
 0001:0001c7e0       ?SendCacheHintToParent@CGridCtrl@@IBEJABVCCellRange@@@Z 1001d7e0 f   GridCtrl.obj
 0001:0001c890       ?SendDisplayRequestToParent@CGridCtrl@@IBEJPAUtagGV_DISPINFO@@@Z 1001d890 f   GridCtrl.obj
 0001:0001c910       ?SendMessageToParent@CGridCtrl@@IBEJHHH@Z 1001d910 f   GridCtrl.obj
 0001:0001c9a0       ?Serialize@?$CMap@KKVCCellID@@AAV1@@@UAEXAAVCArchive@@@Z 1001d9a0 f i GridCtrl.obj
 0001:0001cde0       ?SetAt@?$CMap@KKVCCellID@@AAV1@@@QAEXKAAVCCellID@@@Z 1001dde0 f i GridCtrl.obj
 0001:0001cf10       ?SetAt@?$CTypedPtrArray@VCObArray@@PAVCGridCellBase@@@@QAEXHPAVCGridCellBase@@@Z 1001df10 f i GridCtrl.obj
 0001:0001cf40       ?SetCell@CGridCtrl@@IAEHHHPAVCGridCellBase@@@Z 1001df40 f i GridCtrl.obj
 0001:0001cfb0       ?SetCellType@CGridCtrl@@QAEHHHPAUCRuntimeClass@@@Z 1001dfb0 f   GridCtrl.obj
 0001:0001d070       ?SetColumnCount@CGridCtrl@@QAEHH@Z 1001e070 f   GridCtrl.obj
 0001:0001d380       ?SetColumnWidth@CGridCtrl@@QAEHHH@Z 1001e380 f   GridCtrl.obj
 0001:0001d3d0       ?SetCompareFunction@CGridCtrl@@QAEXP6GHJJJ@Z@Z 1001e3d0 f   GridCtrl.obj
 0001:0001d3e0       ?SetDefaultCellType@CGridCtrl@@QAEHPAUCRuntimeClass@@@Z 1001e3e0 f   GridCtrl.obj
 0001:0001d420       ?SetFixedColumnCount@CGridCtrl@@QAEHH@Z 1001e420 f   GridCtrl.obj
 0001:0001d670       ?SetFixedRowCount@CGridCtrl@@QAEHH@Z 1001e670 f   GridCtrl.obj
 0001:0001d890       ?SetFocusCell@CGridCtrl@@QAE?AVCCellID@@HH@Z 1001e890 f   GridCtrl.obj
 0001:0001d8b0       ?SetFocusCell@CGridCtrl@@QAE?AVCCellID@@V2@@Z 1001e8b0 f   GridCtrl.obj
 0001:0001daf0       ?SetGridLines@CGridCtrl@@QAEXH@Z 1001eaf0 f   GridCtrl.obj
 0001:0001db20       ?SetItem@CGridCtrl@@QAEHPBU_GV_ITEM@@@Z 1001eb20 f   GridCtrl.obj
 0001:0001dc20       ?SetItemBkColour@CGridCtrl@@QAEHHHK@Z 1001ec20 f   GridCtrl.obj
 0001:0001dc60       ?SetItemData@CGridCtrl@@QAEHHHJ@Z 1001ec60 f   GridCtrl.obj
 0001:0001dcb0       ?SetItemFgColour@CGridCtrl@@QAEHHHK@Z 1001ecb0 f   GridCtrl.obj
 0001:0001dcf0       ?SetItemFont@CGridCtrl@@QAEHHHPBUtagLOGFONTA@@@Z 1001ecf0 f   GridCtrl.obj
 0001:0001dd30       ?SetItemFormat@CGridCtrl@@QAEHHHI@Z 1001ed30 f   GridCtrl.obj
 0001:0001dd70       ?SetItemImage@CGridCtrl@@QAEHHHH@Z 1001ed70 f   GridCtrl.obj
 0001:0001ddc0       ?SetItemState@CGridCtrl@@QAEHHHI@Z 1001edc0 f   GridCtrl.obj
 0001:0001de80       ?SetItemText@CGridCtrl@@QAEHHHPBD@Z 1001ee80 f   GridCtrl.obj
 0001:0001ded0       ?SetItemText@CGridCtrl@@QAEHHHPBDK@Z 1001eed0 f   GridCtrl.obj
 0001:0001df30       ?SetItemTextFmt@CGridCtrl@@QAAHHHPBDZZ 1001ef30 f   GridCtrl.obj
 0001:0001dff0       ?SetItemTextFmtID@CGridCtrl@@QAAHHHIZZ 1001eff0 f   GridCtrl.obj
 0001:0001e0d0       ?SetListMode@CGridCtrl@@QAEXH@Z 1001f0d0 f   GridCtrl.obj
 0001:0001e130       ?SetModified@CGridCtrl@@QAEXHHH@Z 1001f130 f   GridCtrl.obj
 0001:0001e230       ?SetPrintMarginInfo@CGridCtrl@@QAEXHHHHHHH@Z 1001f230 f   GridCtrl.obj
 0001:0001e2a0       ?SetRedraw@CGridCtrl@@QAEXHH@Z 1001f2a0 f   GridCtrl.obj
 0001:0001e2f0       ?SetRowCount@CGridCtrl@@QAEHH@Z 1001f2f0 f   GridCtrl.obj
 0001:0001e640       ?SetRowHeight@CGridCtrl@@QAEHHH@Z 1001f640 f   GridCtrl.obj
 0001:0001e690       ?SetScrollPos32@CGridCtrl@@IAEHHHH@Z 1001f690 f   GridCtrl.obj
 0001:0001e6e0       ?SetSelectedRange@CGridCtrl@@QAEXABVCCellRange@@HH@Z 1001f6e0 f   GridCtrl.obj
 0001:0001e700       ?SetSelectedRange@CGridCtrl@@QAEXHHHHHH@Z 1001f700 f   GridCtrl.obj
 0001:0001f170       ?SetSortColumn@CGridCtrl@@QAEXH@Z 10020170 f   GridCtrl.obj
 0001:0001f1b0       ?SetVirtualMode@CGridCtrl@@QAEXH@Z 100201b0 f   GridCtrl.obj
 0001:0001f200       ?SetupDefaultCells@CGridCtrl@@IAEXXZ 10020200 f   GridCtrl.obj
 0001:0001f2f0       ?SortItems@CGridCtrl@@IAEHP6GHJJJ@ZHHJHH@Z 100202f0 f   GridCtrl.obj
 0001:0001f5e0       ?SortItems@CGridCtrl@@QAEHHHJ@Z 100205e0 f   GridCtrl.obj
 0001:0001f670       ?SortItems@CGridCtrl@@QAEHP6GHJJJ@ZHHJ@Z 10020670 f   GridCtrl.obj
 0001:0001f6f0       ?SortTextItems@CGridCtrl@@QAEHHHJ@Z 100206f0 f   GridCtrl.obj
 0001:0001f710       ?ValidateAndModifyCellContents@CGridCtrl@@IAEXHHPBD@Z 10020710 f   GridCtrl.obj
 0001:0001f810       ?ValidateEdit@CGridCtrl@@MAEHHHPBD@Z 10020810 f   GridCtrl.obj
 0001:0001f840       ?_GetBaseClass@CGridCtrl@@KGPAUCRuntimeClass@@XZ 10020840 f   GridCtrl.obj
 0001:0001f850       ?pfnCellNumericCompare@CGridCtrl@@SGHJJJ@Z 10020850 f   GridCtrl.obj
 0001:0001f8b0       ?pfnCellTextCompare@CGridCtrl@@SGHJJJ@Z 100208b0 f   GridCtrl.obj
 0001:0001f8f0       ??0CGridDropTarget@@QAE@XZ 100208f0 f   GridDropTarget.obj
 0001:0001f920       ??1CGridDropTarget@@UAE@XZ 10020920 f   GridDropTarget.obj
 0001:0001f930       ??_GCGridDropTarget@@UAEPAXI@Z 10020930 f i GridDropTarget.obj
 0001:0001f930       ??_ECGridDropTarget@@UAEPAXI@Z 10020930 f i GridDropTarget.obj
 0001:0001f970       ?GetMessageMap@CGridDropTarget@@MBEPBUAFX_MSGMAP@@XZ 10020970 f   GridDropTarget.obj
 0001:0001f980       ?GetThisMessageMap@CGridDropTarget@@KGPBUAFX_MSGMAP@@XZ 10020980 f   GridDropTarget.obj
 0001:0001f990       ?OnDragEnter@CGridDropTarget@@UAEKPAVCWnd@@PAVCOleDataObject@@KVCPoint@@@Z 10020990 f   GridDropTarget.obj
 0001:0001f9d0       ?OnDragLeave@CGridDropTarget@@UAEXPAVCWnd@@@Z 100209d0 f   GridDropTarget.obj
 0001:0001fa00       ?OnDragOver@CGridDropTarget@@UAEKPAVCWnd@@PAVCOleDataObject@@KVCPoint@@@Z 10020a00 f   GridDropTarget.obj
 0001:0001fa40       ?OnDragScroll@CGridDropTarget@@UAEKPAVCWnd@@KVCPoint@@@Z 10020a40 f   GridDropTarget.obj
 0001:0001fa80       ?OnDrop@CGridDropTarget@@UAEHPAVCWnd@@PAVCOleDataObject@@KVCPoint@@@Z 10020a80 f   GridDropTarget.obj
 0001:0001fac0       ?Register@CGridDropTarget@@QAEHPAVCGridCtrl@@@Z 10020ac0 f   GridDropTarget.obj
 0001:0001fb30       ?Revoke@CGridDropTarget@@UAEXXZ 10020b30 f   GridDropTarget.obj
 0001:0001fb40       ??0CInPlaceEdit@@QAE@PAVCWnd@@AAVCRect@@KIHHV?$CStringT@DV?$StrTraitMFC_DLL@DV?$ChTraitsCRT@D@ATL@@@@@ATL@@I@Z 10020b40 f   InPlaceEdit.obj
 0001:0001fd90       ??1CInPlaceEdit@@UAE@XZ    10020d90 f   InPlaceEdit.obj
 0001:0001fdb0       ??1tagGV_DISPINFO@@QAE@XZ  10020db0 f i InPlaceEdit.obj
 0001:0001fdc0       ??_GCInPlaceEdit@@UAEPAXI@Z 10020dc0 f i InPlaceEdit.obj
 0001:0001fdc0       ??_ECInPlaceEdit@@UAEPAXI@Z 10020dc0 f i InPlaceEdit.obj
 0001:0001fe10       ?EndEdit@CInPlaceEdit@@QAEXXZ 10020e10 f   InPlaceEdit.obj
 0001:0001ff70       ?GetMessageMap@CInPlaceEdit@@MBEPBUAFX_MSGMAP@@XZ 10020f70 f   InPlaceEdit.obj
 0001:0001ff80       ?GetThisMessageMap@CInPlaceEdit@@KGPBUAFX_MSGMAP@@XZ 10020f80 f   InPlaceEdit.obj
 0001:0001ff90       ?OnChar@CInPlaceEdit@@IAEXIII@Z 10020f90 f   InPlaceEdit.obj
 0001:00020130       ?OnCreate@CWnd@@IAEHPAUtagCREATESTRUCTA@@@Z 10021130 f i InPlaceEdit.obj
 0001:00020140       ?OnGetDlgCode@CInPlaceEdit@@IAEIXZ 10021140 f   InPlaceEdit.obj
 0001:00020150       ?OnKeyDown@CInPlaceEdit@@IAEXIII@Z 10021150 f   InPlaceEdit.obj
 0001:000201c0       ?OnKillFocus@CInPlaceEdit@@IAEXPAVCWnd@@@Z 100211c0 f   InPlaceEdit.obj
 0001:00020320       ?PostNcDestroy@CInPlaceEdit@@MAEXXZ 10021320 f   InPlaceEdit.obj
 0001:00020340       ?PreTranslateMessage@CInPlaceEdit@@UAEHPAUtagMSG@@@Z 10021340 f   InPlaceEdit.obj
 0001:00020370       ??0CTitleTip@@QAE@XZ       10021370 f   TitleTip.obj
 0001:000204c0       ??1CTitleTip@@UAE@XZ       100214c0 f   TitleTip.obj
 0001:000204d0       ??_GCTitleTip@@UAEPAXI@Z   100214d0 f i TitleTip.obj
 0001:000204d0       ??_ECTitleTip@@UAEPAXI@Z   100214d0 f i TitleTip.obj
 0001:00020520       ?Create@CTitleTip@@UAEHPAVCWnd@@@Z 10021520 f   TitleTip.obj
 0001:00020580       ?DestroyWindow@CTitleTip@@UAEHXZ 10021580 f   TitleTip.obj
 0001:00020590       ?GetMessageMap@CTitleTip@@MBEPBUAFX_MSGMAP@@XZ 10021590 f   TitleTip.obj
 0001:000205a0       ?GetThisMessageMap@CTitleTip@@KGPBUAFX_MSGMAP@@XZ 100215a0 f   TitleTip.obj
 0001:000205b0       ?Hide@CTitleTip@@QAEXXZ    100215b0 f   TitleTip.obj
 0001:00020600       ?OnMouseMove@CTitleTip@@IAEXIVCPoint@@@Z 10021600 f   TitleTip.obj
 0001:00020710       ?PreTranslateMessage@CTitleTip@@UAEHPAUtagMSG@@@Z 10021710 f   TitleTip.obj
 0001:00020980       ?Show@CTitleTip@@QAEXVCRect@@PBDHPAUtagRECT@@PBUtagLOGFONTA@@KK@Z 10021980 f   TitleTip.obj
 0001:00020cf0       _ExtRawDllMain@12          10021cf0 f   HWStrategyAnalysis.obj
 0001:00020d30       ??1STMNG_ITEMINFO@@QAE@XZ  10021d30 f i HWStrategyAnalysis.obj
 0001:00020ef0       ?fnFuncCall@@YGJPAXPBD1AAUtagVARIANT@@@Z 10021ef0 f   HWStrategyAnalysis.obj
 0001:00020f60       ?fnInit@@YGJPAUSTODINIT_IN@@PAUSTODINIT_OUT@@PAX@Z 10021f60 f   HWStrategyAnalysis.obj
 0001:00021300       ?fnLoad@@YGJPAUSTODCREATEINFO_IN@@PAUSTODCREATEINFO_OUT@@@Z 10022300 f   HWStrategyAnalysis.obj
 0001:000213c0       ?fnUnLoad@@YGJPAX@Z        100223c0 f   HWStrategyAnalysis.obj
 0001:000213f0       _CREATE_TRADING            100223f0 f   HWStrategyAnalysis.obj
 0001:00021490       _CREATE_TRADING_EX         10022490 f   HWStrategyAnalysis.obj
 0001:00021530       _DESTROY_TRADING           10022530 f   HWStrategyAnalysis.obj
 0001:00021550       _DllMain@12                10022550 f   HWStrategyAnalysis.obj
 0001:000215b0       _SA_ApplyChart             100225b0 f   HWStrategyAnalysis.obj
 0001:00021680       ??$SerializeElements@PAVCDlgInterface@@@@YGXAAVCArchive@@PAPAVCDlgInterface@@H@Z 10022680 f i InfoRight.obj
 0001:00021730       ??0?$CArray@PAVCDlgInterface@@PAV1@@@QAE@XZ 10022730 f i InfoRight.obj
 0001:00021760       ??0CInfoRight@@QAE@PAVCWnd@@@Z 10022760 f   InfoRight.obj
 0001:00021a00       ??1?$CArray@PAVCDlgInterface@@PAV1@@@UAE@XZ 10022a00 f i InfoRight.obj
 0001:00021a20       ??_G?$CArray@PAVCDlgInterface@@PAV1@@@UAEPAXI@Z 10022a20 f i InfoRight.obj
 0001:00021a20       ??_E?$CArray@PAVCDlgInterface@@PAV1@@@UAEPAXI@Z 10022a20 f i InfoRight.obj
 0001:00021a70       ??_GCButton@@UAEPAXI@Z     10022a70 f i InfoRight.obj
 0001:00021a70       ??_ECButton@@UAEPAXI@Z     10022a70 f i InfoRight.obj
 0001:00021ab0       ??_ECInfoRight@@UAEPAXI@Z  10022ab0 f i InfoRight.obj
 0001:00021ab0       ??_GCInfoRight@@UAEPAXI@Z  10022ab0 f i InfoRight.obj
 0001:00021c10       ?AllUpdateDlg@CInfoRight@@QAEXXZ 10022c10 f   InfoRight.obj
 0001:00021c50       ?ApplyST@CInfoRight@@QAEXXZ 10022c50 f   InfoRight.obj
 0001:00021c60       ?DoDataExchange@CInfoRight@@MAEXPAVCDataExchange@@@Z 10022c60 f   InfoRight.obj
 0001:00021d90       ?DrawGraph@CInfoRight@@QAEXXZ 10022d90 f   InfoRight.obj
 0001:00021e10       ?GetEventSinkMap@CInfoRight@@MBEPBUAFX_EVENTSINKMAP@@XZ 10022e10 f   InfoRight.obj
 0001:00021e20       ?GetMessageMap@CInfoRight@@MBEPBUAFX_MSGMAP@@XZ 10022e20 f   InfoRight.obj
 0001:00021e30       ?GetThisEventSinkMap@CInfoRight@@KGPBUAFX_EVENTSINKMAP@@XZ 10022e30 f   InfoRight.obj
 0001:00021e40       ?GetThisMessageMap@CInfoRight@@KGPBUAFX_MSGMAP@@XZ 10022e40 f   InfoRight.obj
 0001:00021e50       ?InitCodeGubun@CInfoRight@@QAEXH@Z 10022e50 f   InfoRight.obj
 0001:00021ea0       ?InitHeader@CInfoRight@@QAEXXZ 10022ea0 f   InfoRight.obj
 0001:00021eb0       ?InitTab@CInfoRight@@QAEXXZ 10022eb0 f   InfoRight.obj
 0001:00022480       ?OnBtnExportExcel@CInfoRight@@IAEXXZ 10023480 f   InfoRight.obj
 0001:00022490       ?OnBtnResult@CInfoRight@@IAEXXZ 10023490 f   InfoRight.obj
 0001:000224a0       ?OnBtnShow@CInfoRight@@IAEXXZ 100234a0 f   InfoRight.obj
 0001:000224c0       ?OnBtnShowall@CInfoRight@@IAEXXZ 100234c0 f   InfoRight.obj
 0001:00022620       ?OnCbnSelchangeComboDivide@CInfoRight@@QAEXXZ 10023620 f   InfoRight.obj
 0001:00022680       ?OnCtlColor@CInfoRight@@IAEPAUHBRUSH__@@PAVCDC@@PAVCWnd@@I@Z 10023680 f   InfoRight.obj
 0001:000226d0       ?OnDestroy@CInfoRight@@IAEXXZ 100236d0 f   InfoRight.obj
 0001:00022770       ?OnInitDialog@CInfoRight@@MAEHXZ 10023770 f   InfoRight.obj
 0001:00022850       ?OnNMClickTab1@CInfoRight@@QAEXPAUtagNMHDR@@PAJ@Z 10023850 f   InfoRight.obj
 0001:00022880       ?RefreshWebView@CInfoRight@@QAEXXZ 10023880 f   InfoRight.obj
 0001:000228b0       ?Serialize@?$CArray@PAVCDlgInterface@@PAV1@@@UAEXAAVCArchive@@@Z 100238b0 f i InfoRight.obj
 0001:00022990       ?SetAtGrow@?$CArray@PAVCDlgInterface@@PAV1@@@QAEXHPAVCDlgInterface@@@Z 10023990 f i InfoRight.obj
 0001:000229d0       ?SetFocusIndex@CInfoRight@@QAEXH@Z 100239d0 f   InfoRight.obj
 0001:00022a20       ?SetLeftInfo@CInfoRight@@QAEXPAVCInputLeft@@@Z 10023a20 f   InfoRight.obj
 0001:00022a30       ?SetParentsRect@CInfoRight@@QAEXVCRect@@@Z 10023a30 f   InfoRight.obj
 0001:00022a50       ?SetRefresh@CInfoRight@@QAEXH@Z 10023a50 f   InfoRight.obj
 0001:00022b70       ?SetSize@?$CArray@PAVCDlgInterface@@PAV1@@@QAEXHH@Z 10023b70 f i InfoRight.obj
 0001:00022d50       ?THREAD_MAKEHTMLResult@@YAIPAX@Z 10023d50 f   InfoRight.obj
 0001:00022d60       ?THREAD_MAKEHTMLStep@@YAIPAX@Z 10023d60 f   InfoRight.obj
 0001:00022d70       ?THREAD_MAKEHTMLTrade@@YAIPAX@Z 10023d70 f   InfoRight.obj
 0001:00022d80       ?Allocate@CAtlStringMgr@ATL@@UAEPAUCStringData@2@HH@Z 10023d80 f i StdAfx.obj
 0001:00022df0       ?Free@CAtlStringMgr@ATL@@UAEXPAUCStringData@2@@Z 10023df0 f i StdAfx.obj
 0001:00022e00       ?Reallocate@CAtlStringMgr@ATL@@UAEPAUCStringData@2@PAU32@HH@Z 10023e00 f i StdAfx.obj
 0001:00022e60       ?GetNilString@CAtlStringMgr@ATL@@UAEPAUCStringData@2@XZ 10023e60 f i StdAfx.obj
 0001:00022e70       ?Clone@CAtlStringMgr@ATL@@UAEPAUIAtlStringMgr@2@XZ 10023e70 f i StdAfx.obj
 0001:00022e80       ??_GCAtlStringMgr@ATL@@UAEPAXI@Z 10023e80 f i StdAfx.obj
 0001:00022e80       ??_ECAtlStringMgr@ATL@@UAEPAXI@Z 10023e80 f i StdAfx.obj
 0001:00022eb0       ?_AfxInitManaged@@YAHXZ    10023eb0 f i StdAfx.obj
 0001:00022ec0       ?Allocate@CWin32Heap@ATL@@UAEPAXI@Z 10023ec0 f i StdAfx.obj
 0001:00022ee0       ?Free@CWin32Heap@ATL@@UAEXPAX@Z 10023ee0 f i StdAfx.obj
 0001:00022f00       ?Reallocate@CWin32Heap@ATL@@UAEPAXPAXI@Z 10023f00 f i StdAfx.obj
 0001:00022f40       ?GetSize@CWin32Heap@ATL@@UAEIPAX@Z 10023f40 f i StdAfx.obj
 0001:00022f60       ??_ECWin32Heap@ATL@@UAEPAXI@Z 10023f60 f i StdAfx.obj
 0001:00022f60       ??_GCWin32Heap@ATL@@UAEPAXI@Z 10023f60 f i StdAfx.obj
 0001:00022fa0       ??1CAtlStringMgr@ATL@@UAE@XZ 10023fa0 f i StdAfx.obj
 0001:00022fb0       ??1CWin32Heap@ATL@@UAE@XZ  10023fb0 f i StdAfx.obj
 0001:00022fd0       ?EnsureLinked@CAtlStringMgrStaticInitializer@ATLImplementationDetails@ATL@@QAEPAXXZ 10023fd0 f i StdAfx.obj
 0001:00022fe0       ?_AtlInitializeCriticalSectionEx@ATL@@YAHPAU_RTL_CRITICAL_SECTION@@KK@Z 10023fe0 f i StdAfx.obj
 0001:00023000       ?_AtlRaiseException@ATL@@YAXKK@Z 10024000 f i StdAfx.obj
 0001:00023020       ??0CTabAnalChart@@QAE@PAVCWnd@@@Z 10024020 f   TabAnalChart.obj
 0001:00023050       ??_GCTabAnalChart@@UAEPAXI@Z 10024050 f i TabAnalChart.obj
 0001:00023050       ??_ECTabAnalChart@@UAEPAXI@Z 10024050 f i TabAnalChart.obj
 0001:00023090       ?DoDataExchange@CTabAnalChart@@MAEXPAVCDataExchange@@@Z 10024090 f   TabAnalChart.obj
 0001:000230a0       ?GetMessageMap@CTabAnalChart@@MBEPBUAFX_MSGMAP@@XZ 100240a0 f   TabAnalChart.obj
 0001:000230b0       ?GetThisMessageMap@CTabAnalChart@@KGPBUAFX_MSGMAP@@XZ 100240b0 f   TabAnalChart.obj
 0001:000230c0       ?OnInitDialog@CTabAnalChart@@MAEHXZ 100240c0 f   TabAnalChart.obj
 0001:000230d0       ?OnSelectDataIndex@CTabAnalChart@@IAEJIJ@Z 100240d0 f   TabAnalChart.obj
 0001:000230e0       ?OnSize@CTabAnalChart@@IAEXIHH@Z 100240e0 f   TabAnalChart.obj
 0001:000230f0       ?OnUpdateDataIndex@CTabAnalChart@@IAEJIJ@Z 100240f0 f   TabAnalChart.obj
 0001:00023100       ?SetChartFocus@CTabAnalChart@@UAEXH@Z 10024100 f   TabAnalChart.obj
 0001:00023110       ?UpdateDlg@CTabAnalChart@@UAEXXZ 10024110 f   TabAnalChart.obj
 0001:00023120       ??0CTabSoonikChart@@QAE@PAVCWnd@@@Z 10024120 f   TabEarnChart.obj
 0001:000231e0       ??1CDlgInterface@@UAE@XZ   100241e0 f i TabEarnChart.obj
 0001:000231f0       ??1CMschart1@@UAE@XZ       100241f0 f i TabEarnChart.obj
 0001:00023200       ??1CSeries@@QAE@XZ         10024200 f i TabEarnChart.obj
 0001:00023250       ??1CTChart@@UAE@XZ         10024250 f i TabEarnChart.obj
 0001:00023260       ??1CTabSoonikChart@@UAE@XZ 10024260 f   TabEarnChart.obj
 0001:000232e0       ??_ECTabSoonikChart@@UAEPAXI@Z 100242e0 f i TabEarnChart.obj
 0001:000232e0       ??_GCTabSoonikChart@@UAEPAXI@Z 100242e0 f i TabEarnChart.obj
 0001:00023390       ?DoDataExchange@CTabSoonikChart@@MAEXPAVCDataExchange@@@Z 10024390 f   TabEarnChart.obj
 0001:000233d0       ?GetMessageMap@CTabSoonikChart@@MBEPBUAFX_MSGMAP@@XZ 100243d0 f   TabEarnChart.obj
 0001:000233e0       ?GetThisMessageMap@CTabSoonikChart@@KGPBUAFX_MSGMAP@@XZ 100243e0 f   TabEarnChart.obj
 0001:000233f0       ?OnBnClickedRadio1@CTabSoonikChart@@IAEXXZ 100243f0 f   TabEarnChart.obj
 0001:00023410       ?OnBnClickedRadio2@CTabSoonikChart@@IAEXXZ 10024410 f   TabEarnChart.obj
 0001:00023430       ?OnCancel@CTabSoonikChart@@MAEXXZ 10024430 f   TabEarnChart.obj
 0001:00023440       ?OnCtlColor@CTabSoonikChart@@IAEPAUHBRUSH__@@PAVCDC@@PAVCWnd@@I@Z 10024440 f   TabEarnChart.obj
 0001:00023480       ?OnInitDialog@CTabSoonikChart@@MAEHXZ 10024480 f   TabEarnChart.obj
 0001:000234f0       ?OnOK@CTabSoonikChart@@MAEXXZ 100244f0 f   TabEarnChart.obj
 0001:00023500       ?PrepareShow@CTabSoonikChart@@QAEXH@Z 10024500 f   TabEarnChart.obj
 0001:000235a0       ?ShowData1Chart@CTabSoonikChart@@QAEXJ@Z 100245a0 f   TabEarnChart.obj
 0001:000236d0       ?ShowData2Chart@CTabSoonikChart@@QAEXAAVCStringArray@@H@Z 100246d0 f   TabEarnChart.obj
 0001:00023850       ??0CTabResult@@QAE@PAVCWnd@@@Z 10024850 f   TabResult.obj
 0001:00023980       ??1COleVariant@@QAE@XZ     10024980 f i TabResult.obj
 0001:00023990       ??HATL@@YA?AV?$CStringT@DV?$StrTraitMFC_DLL@DV?$ChTraitsCRT@D@ATL@@@@@0@ABV10@0@Z 10024990 f i TabResult.obj
 0001:00023a10       ??_GCStatic@@UAEPAXI@Z     10024a10 f i TabResult.obj
 0001:00023a10       ??_ECStatic@@UAEPAXI@Z     10024a10 f i TabResult.obj
 0001:00023a50       ??_ECTabResult@@UAEPAXI@Z  10024a50 f i TabResult.obj
 0001:00023a50       ??_GCTabResult@@UAEPAXI@Z  10024a50 f i TabResult.obj
 0001:00023b70       ?DoDataExchange@CTabResult@@MAEXPAVCDataExchange@@@Z 10024b70 f   TabResult.obj
 0001:00023b80       ?GetAt@?$CArray@UST_DATAINDEX@@U1@@@QAEAAUST_DATAINDEX@@H@Z 10024b80 f i TabResult.obj
 0001:00023ba0       ?GetMessageMap@CTabResult@@MBEPBUAFX_MSGMAP@@XZ 10024ba0 f   TabResult.obj
 0001:00023bb0       ?GetThisMessageMap@CTabResult@@KGPBUAFX_MSGMAP@@XZ 10024bb0 f   TabResult.obj
 0001:00023bc0       ?InitGrid@CTabResult@@QAEXXZ 10024bc0 f   TabResult.obj
 0001:00023fd0       ?InitHtml@CTabResult@@QAEXXZ 10024fd0 f   TabResult.obj
 0001:00024110       ?InitPasingData@CTabResult@@QAEXXZ 10025110 f   TabResult.obj
 0001:00024120       ?InsertData2HtmlString@CTabResult@@QAEXFAAV?$CStringT@DV?$StrTraitMFC_DLL@DV?$ChTraitsCRT@D@ATL@@@@@ATL@@PAVCIStrategyItem0001@@@Z 10025120 f   TabResult.obj
 0001:00024490       ?MakeHtmlFile@CTabResult@@QAEXXZ 10025490 f   TabResult.obj
 0001:000247c0       ?OnCtlColor@CTabResult@@QAEPAUHBRUSH__@@PAVCDC@@PAVCWnd@@I@Z 100257c0 f   TabResult.obj
 0001:00024800       ?OnDestroy@CTabResult@@IAEXXZ 10025800 f   TabResult.obj
 0001:00024810       ?OnInitDialog@CTabResult@@MAEHXZ 10025810 f   TabResult.obj
 0001:00024840       ?OpenWebView@CTabResult@@QAEXV?$CStringT@DV?$StrTraitMFC_DLL@DV?$ChTraitsCRT@D@ATL@@@@@ATL@@@Z 10025840 f   TabResult.obj
 0001:00024920       ?ParsingstrHtml2@CTabResult@@QAEHAAV?$CStringT@DV?$StrTraitMFC_DLL@DV?$ChTraitsCRT@D@ATL@@@@@ATL@@@Z 10025920 f   TabResult.obj
 0001:00024ad0       ?ParsingstrHtml@CTabResult@@QAE?AV?$CStringT@DV?$StrTraitMFC_DLL@DV?$ChTraitsCRT@D@ATL@@@@@ATL@@V23@@Z 10025ad0 f   TabResult.obj
 0001:00024b30       ?SetDataSpreadGrid@CTabResult@@QAEXXZ 10025b30 f   TabResult.obj
 0001:00025510       ??$SerializeElements@N@@YGXAAVCArchive@@PANH@Z 10026510 f i TabSonikChart.obj
 0001:000255c0       ??0?$CArray@NN@@QAE@XZ     100265c0 f i TabSonikChart.obj
 0001:000255f0       ??0CTabSonikChart@@QAE@PAVCWnd@@@Z 100265f0 f   TabSonikChart.obj
 0001:00025710       ??1?$CArray@NN@@UAE@XZ     10026710 f i TabSonikChart.obj
 0001:00025730       ??1CTabSonikChart@@UAE@XZ  10026730 f   TabSonikChart.obj
 0001:000257f0       ??_E?$CArray@NN@@UAEPAXI@Z 100267f0 f i TabSonikChart.obj
 0001:000257f0       ??_G?$CArray@NN@@UAEPAXI@Z 100267f0 f i TabSonikChart.obj
 0001:00025840       ??_GCTabSonikChart@@UAEPAXI@Z 10026840 f i TabSonikChart.obj
 0001:00025840       ??_ECTabSonikChart@@UAEPAXI@Z 10026840 f i TabSonikChart.obj
 0001:00025930       ?CountData@CTabSonikChart@@QAEXPAHAAH0H1@Z 10026930 f   TabSonikChart.obj
 0001:00025a70       ?DisplayData2Chart@CTabSonikChart@@QAEXPAHHH@Z 10026a70 f   TabSonikChart.obj
 0001:00025d20       ?DoDataExchange@CTabSonikChart@@MAEXPAVCDataExchange@@@Z 10026d20 f   TabSonikChart.obj
 0001:00025db0       ?GetMessageMap@CTabSonikChart@@MBEPBUAFX_MSGMAP@@XZ 10026db0 f   TabSonikChart.obj
 0001:00025dc0       ?GetThisMessageMap@CTabSonikChart@@KGPBUAFX_MSGMAP@@XZ 10026dc0 f   TabSonikChart.obj
 0001:00025dd0       ?MyChartCompare@@YAHPBX0@Z 10026dd0 f   TabSonikChart.obj
 0001:00025df0       ?OnCancel@CTabSonikChart@@MAEXXZ 10026df0 f   TabSonikChart.obj
 0001:00025e00       ?OnCtlColor@CTabSonikChart@@IAEPAUHBRUSH__@@PAVCDC@@PAVCWnd@@I@Z 10026e00 f   TabSonikChart.obj
 0001:00025e40       ?OnInitDialog@CTabSonikChart@@MAEHXZ 10026e40 f   TabSonikChart.obj
 0001:00025e50       ?OnKillfocusEdtWidth@CTabSonikChart@@IAEXXZ 10026e50 f   TabSonikChart.obj
 0001:00025e60       ?OnOK@CTabSonikChart@@MAEXXZ 10026e60 f   TabSonikChart.obj
 0001:00025f20       ?RoundToUnit@CTabSonikChart@@QAEHH@Z 10026f20 f   TabSonikChart.obj
 0001:00025f90       ?Serialize@?$CArray@NN@@UAEXAAVCArchive@@@Z 10026f90 f i TabSonikChart.obj
 0001:00026070       ?SetSize@?$CArray@NN@@QAEXHH@Z 10027070 f i TabSonikChart.obj
 0001:00026230       ?ShowData1Chart@CTabSonikChart@@QAEXJ@Z 10027230 f   TabSonikChart.obj
 0001:000263b0       ?SortData@CTabSonikChart@@QAEHPAHH@Z 100273b0 f   TabSonikChart.obj
 0001:000263d0       ??0CTabStep@@QAE@PAVCWnd@@@Z 100273d0 f   TabStep.obj
 0001:00026480       ??_GCTabStep@@UAEPAXI@Z    10027480 f i TabStep.obj
 0001:00026480       ??_ECTabStep@@UAEPAXI@Z    10027480 f i TabStep.obj
 0001:000264f0       ?DoDataExchange@CTabStep@@MAEXPAVCDataExchange@@@Z 100274f0 f   TabStep.obj
 0001:00026500       ?GetMessageMap@CTabStep@@MBEPBUAFX_MSGMAP@@XZ 10027500 f   TabStep.obj
 0001:00026510       ?GetThisMessageMap@CTabStep@@KGPBUAFX_MSGMAP@@XZ 10027510 f   TabStep.obj
 0001:00026520       ?InitGrid@CTabStep@@QAEXXZ 10027520 f   TabStep.obj
 0001:00026790       ?InitHtml@CTabStep@@QAEXXZ 10027790 f   TabStep.obj
 0001:000268f0       ?MakeHtmlFile@CTabStep@@QAEXXZ 100278f0 f   TabStep.obj
 0001:00026900       ?OnDestroy@CTabStep@@IAEXXZ 10027900 f   TabStep.obj
 0001:00026920       ?OnInitDialog@CTabStep@@MAEHXZ 10027920 f   TabStep.obj
 0001:00026940       ?OpenWebView@CTabStep@@QAEXV?$CStringT@DV?$StrTraitMFC_DLL@DV?$ChTraitsCRT@D@ATL@@@@@ATL@@@Z 10027940 f   TabStep.obj
 0001:00026970       ?ParsingstrHtml@CTabStep@@QAE?AV?$CStringT@DV?$StrTraitMFC_DLL@DV?$ChTraitsCRT@D@ATL@@@@@ATL@@V23@@Z 10027970 f   TabStep.obj
 0001:00027ab0       ?SetDataSpreadGrid@CTabStep@@QAEXXZ 10028ab0 f   TabStep.obj
 0001:00028040       ??0CTabTrade@@QAE@PAVCWnd@@@Z 10029040 f   TabTrade.obj
 0001:000280d0       ??_GCTabTrade@@UAEPAXI@Z   100290d0 f i TabTrade.obj
 0001:000280d0       ??_ECTabTrade@@UAEPAXI@Z   100290d0 f i TabTrade.obj
 0001:00028130       ?DoDataExchange@CTabTrade@@MAEXPAVCDataExchange@@@Z 10029130 f   TabTrade.obj
 0001:00028140       ?GetMessageMap@CTabTrade@@MBEPBUAFX_MSGMAP@@XZ 10029140 f   TabTrade.obj
 0001:00028150       ?GetStrValue@CTabTrade@@QAE?AV?$CStringT@DV?$StrTraitMFC_DLL@DV?$ChTraitsCRT@D@ATL@@@@@ATL@@PAUHKEY__@@V23@11@Z 10029150 f   TabTrade.obj
 0001:00028270       ?GetThisMessageMap@CTabTrade@@KGPBUAFX_MSGMAP@@XZ 10029270 f   TabTrade.obj
 0001:00028280       ?InitGrid@CTabTrade@@QAEXXZ 10029280 f   TabTrade.obj
 0001:00028490       ?InitHtml@CTabTrade@@QAEXXZ 10029490 f   TabTrade.obj
 0001:000285e0       ?MakeHtmlFile@CTabTrade@@QAEXXZ 100295e0 f   TabTrade.obj
 0001:000288a0       ?OnDestroy@CTabTrade@@IAEXXZ 100298a0 f   TabTrade.obj
 0001:000288c0       ?OnInitDialog@CTabTrade@@MAEHXZ 100298c0 f   TabTrade.obj
 0001:000288e0       ?OpenWebView@CTabTrade@@QAEXV?$CStringT@DV?$StrTraitMFC_DLL@DV?$ChTraitsCRT@D@ATL@@@@@ATL@@@Z 100298e0 f   TabTrade.obj
 0001:000288f0       ?ParsingstrHtml@CTabTrade@@QAE?AV?$CStringT@DV?$StrTraitMFC_DLL@DV?$ChTraitsCRT@D@ATL@@@@@ATL@@V23@@Z 100298f0 f   TabTrade.obj
 0001:000294a0       ?SetAtGrow@?$CArray@NN@@QAEXHN@Z 1002a4a0 f i TabTrade.obj
 0001:000294e0       ?SetDataSpreadGrid@CTabTrade@@QAEXXZ 1002a4e0 f   TabTrade.obj
 0001:00029be0       ?SetDataToExcel@CTabTrade@@QAEXXZ 1002abe0 f   TabTrade.obj
 0001:0002a6a0       ??0CExStatic@@QAE@H@Z      1002b6a0 f   ExControl:ExStatic.obj
 0001:0002a740       ??0CLoaderStatic@@QAE@PAXH@Z 1002b740 f i ExControl:ExStatic.obj
 0001:0002aa50       ??1CExLoadLib@@QAE@XZ      1002ba50 f i ExControl:ExStatic.obj
 0001:0002aa70       ??1CExStatic@@UAE@XZ       1002ba70 f   ExControl:ExStatic.obj
 0001:0002ab20       ??_GCExStatic@@UAEPAXI@Z   1002bb20 f i ExControl:ExStatic.obj
 0001:0002ab20       ??_ECExStatic@@UAEPAXI@Z   1002bb20 f i ExControl:ExStatic.obj
 0001:0002abf0       ?ActionControl@CExStatic@@QAEJPAX@Z 1002bbf0 f   ExControl:ExStatic.obj
 0001:0002ac20       ?CreateObject@CExStatic@@SGPAVCObject@@XZ 1002bc20 f   ExControl:ExStatic.obj
 0001:0002ace0       ?GetMessageMap@CExStatic@@MBEPBUAFX_MSGMAP@@XZ 1002bce0 f   ExControl:ExStatic.obj
 0001:0002acf0       ?GetRuntimeClass@CExStatic@@UBEPAUCRuntimeClass@@XZ 1002bcf0 f   ExControl:ExStatic.obj
 0001:0002ad00       ?GetThisClass@CExStatic@@SGPAUCRuntimeClass@@XZ 1002bd00 f   ExControl:ExStatic.obj
 0001:0002ad10       ?GetThisMessageMap@CExStatic@@KGPBUAFX_MSGMAP@@XZ 1002bd10 f   ExControl:ExStatic.obj
 0001:0002ad20       ?GetWindowTextA@CExStatic@@QAEXAAV?$CStringT@DV?$StrTraitMFC_DLL@DV?$ChTraitsCRT@D@ATL@@@@@ATL@@@Z 1002bd20 f   ExControl:ExStatic.obj
 0001:0002ad50       ?LoadProcAddress@CExLoadLib@@UAEHXZ 1002bd50 f i ExControl:ExStatic.obj
 0001:0002ad60       ?LoadProcAddress@CLoaderStatic@@UAEHXZ 1002bd60 f i ExControl:ExStatic.obj
 0001:0002ae80       ?OnEraseBkgnd@CExStatic@@IAEHPAVCDC@@@Z 1002be80 f   ExControl:ExStatic.obj
 0001:0002aeb0       ?OnPaint@CExStatic@@IAEXXZ 1002beb0 f   ExControl:ExStatic.obj
 0001:0002af30       ?PreSubclassWindow@CExStatic@@MAEXXZ 1002bf30 f   ExControl:ExStatic.obj
 0001:0002af50       ?SetIconImage@CExStatic@@QAEHVCSize@@PAUHICON__@@I@Z 1002bf50 f   ExControl:ExStatic.obj
 0001:0002af90       ?SetSkinIndex@CExStatic@@QAEHIII@Z 1002bf90 f   ExControl:ExStatic.obj
 0001:0002b000       ?SetSkinString@CExStatic@@QAEHPBD00@Z 1002c000 f   ExControl:ExStatic.obj
 0001:0002b070       ?SetStaticColor@CExStatic@@QAEHKKK@Z 1002c070 f   ExControl:ExStatic.obj
 0001:0002b0b0       ?SetText@CExStatic@@QAEXPBD@Z 1002c0b0 f   ExControl:ExStatic.obj
 0001:0002b0e0       ?WindowProc@CExStatic@@MAEJIIJ@Z 1002c0e0 f   ExControl:ExStatic.obj
 0001:0002b120       ?_GetBaseClass@CExStatic@@KGPAUCRuntimeClass@@XZ 1002c120 f   ExControl:ExStatic.obj
 0001:0002b130       _sprintf                   1002c130 f i ExControl:ExStatic.obj
 0001:0002b170       ??0CExDrawButton@@QAE@H@Z  1002c170 f   ExControl:ExDrawButton.obj
 0001:0002b200       ??0CLoaderDrawButton@@QAE@PAXH@Z 1002c200 f i ExControl:ExDrawButton.obj
 0001:0002b520       ??1CExDrawButton@@UAE@XZ   1002c520 f   ExControl:ExDrawButton.obj
 0001:0002b5d0       ??_GCExDrawButton@@UAEPAXI@Z 1002c5d0 f i ExControl:ExDrawButton.obj
 0001:0002b5d0       ??_ECExDrawButton@@UAEPAXI@Z 1002c5d0 f i ExControl:ExDrawButton.obj
 0001:0002b6a0       ?ActionControl@CExDrawButton@@QAEJPAX@Z 1002c6a0 f   ExControl:ExDrawButton.obj
 0001:0002b6d0       ?AddToggleGroup@CExDrawButton@@QAAXPAV1@ZZ 1002c6d0 f   ExControl:ExDrawButton.obj
 0001:0002b740       ?DrawItem@CExDrawButton@@UAEXPAUtagDRAWITEMSTRUCT@@@Z 1002c740 f   ExControl:ExDrawButton.obj
 0001:0002b770       ?GetMessageMap@CExDrawButton@@MBEPBUAFX_MSGMAP@@XZ 1002c770 f   ExControl:ExDrawButton.obj
 0001:0002b780       ?GetText@CExDrawButton@@QAEPBDXZ 1002c780 f   ExControl:ExDrawButton.obj
 0001:0002b7b0       ?GetThisMessageMap@CExDrawButton@@KGPBUAFX_MSGMAP@@XZ 1002c7b0 f   ExControl:ExDrawButton.obj
 0001:0002b7c0       ?GetToggleState@CExDrawButton@@UAEHXZ 1002c7c0 f   ExControl:ExDrawButton.obj
 0001:0002b800       ?LoadProcAddress@CLoaderDrawButton@@UAEHXZ 1002c800 f i ExControl:ExDrawButton.obj
 0001:0002b8d0       ?OnClicked@CExDrawButton@@IAEHXZ 1002c8d0 f   ExControl:ExDrawButton.obj
 0001:0002b910       ?OnDestroy@CExDrawButton@@IAEXXZ 1002c910 f   ExControl:ExDrawButton.obj
 0001:0002b920       ?PreSubclassWindow@CExDrawButton@@MAEXXZ 1002c920 f   ExControl:ExDrawButton.obj
 0001:0002b950       ?ReleasePushed@CExDrawButton@@UAEXXZ 1002c950 f   ExControl:ExDrawButton.obj
 0001:0002b990       ?SetButtonColor@CExDrawButton@@QAEHI@Z 1002c990 f   ExControl:ExDrawButton.obj
 0001:0002b9c0       ?SetIconImage@CExDrawButton@@QAEHVCSize@@PAUHICON__@@1I@Z 1002c9c0 f   ExControl:ExDrawButton.obj
 0001:0002ba00       ?SetText@CExDrawButton@@QAEXPBD@Z 1002ca00 f   ExControl:ExDrawButton.obj
 0001:0002ba30       ?SetToggleState@CExDrawButton@@UAEXH@Z 1002ca30 f   ExControl:ExDrawButton.obj
 0001:0002ba80       ?UseToggleMode@CExDrawButton@@UAEXH@Z 1002ca80 f   ExControl:ExDrawButton.obj
 0001:0002bad0       ??0CExComboBox@@QAE@H@Z    1002cad0 f   ExControl:ExComboBox.obj
 0001:0002bb70       ??0CLoaderComboBox@@QAE@PAXH@Z 1002cb70 f i ExControl:ExComboBox.obj
 0001:0002be60       ??1CExComboBox@@UAE@XZ     1002ce60 f   ExControl:ExComboBox.obj
 0001:0002be90       ??1CLoaderComboBox@@UAE@XZ 1002ce90 f i ExControl:ExComboBox.obj
 0001:0002bf10       ??_GCComboBox@@UAEPAXI@Z   1002cf10 f i ExControl:ExComboBox.obj
 0001:0002bf10       ??_ECComboBox@@UAEPAXI@Z   1002cf10 f i ExControl:ExComboBox.obj
 0001:0002bf50       ??_GCExComboBox@@UAEPAXI@Z 1002cf50 f i ExControl:ExComboBox.obj
 0001:0002bf50       ??_ECExComboBox@@UAEPAXI@Z 1002cf50 f i ExControl:ExComboBox.obj
 0001:0002bfc0       ??_GCLoaderComboBox@@UAEPAXI@Z 1002cfc0 f i ExControl:ExComboBox.obj
 0001:0002bfc0       ??_ECLoaderComboBox@@UAEPAXI@Z 1002cfc0 f i ExControl:ExComboBox.obj
 0001:0002c060       ?CreateObject@CExComboBox@@SGPAVCObject@@XZ 1002d060 f   ExControl:ExComboBox.obj
 0001:0002c120       ?DrawItem@CExComboBox@@UAEXPAUtagDRAWITEMSTRUCT@@@Z 1002d120 f   ExControl:ExComboBox.obj
 0001:0002c150       ?GetMessageMap@CExComboBox@@MBEPBUAFX_MSGMAP@@XZ 1002d150 f   ExControl:ExComboBox.obj
 0001:0002c160       ?GetRuntimeClass@CExComboBox@@UBEPAUCRuntimeClass@@XZ 1002d160 f   ExControl:ExComboBox.obj
 0001:0002c170       ?GetThisClass@CExComboBox@@SGPAUCRuntimeClass@@XZ 1002d170 f   ExControl:ExComboBox.obj
 0001:0002c180       ?GetThisMessageMap@CExComboBox@@KGPBUAFX_MSGMAP@@XZ 1002d180 f   ExControl:ExComboBox.obj
 0001:0002c190       ?LoadProcAddress@CLoaderComboBox@@UAEHXZ 1002d190 f i ExControl:ExComboBox.obj
 0001:0002c260       ?OnLButtonDown@CExComboBox@@IAEXIVCPoint@@@Z 1002d260 f   ExControl:ExComboBox.obj
 0001:0002c290       ?OnLButtonUp@CExComboBox@@IAEXIVCPoint@@@Z 1002d290 f   ExControl:ExComboBox.obj
 0001:0002c2c0       ?OnMouseMove@CExComboBox@@IAEXIVCPoint@@@Z 1002d2c0 f   ExControl:ExComboBox.obj
 0001:0002c2f0       ?OnPaint@CExComboBox@@IAEXXZ 1002d2f0 f   ExControl:ExComboBox.obj
 0001:0002c320       ?OnTimer@CExComboBox@@IAEXI@Z 1002d320 f   ExControl:ExComboBox.obj
 0001:0002c350       ?PreSubclassWindow@CExComboBox@@MAEXXZ 1002d350 f   ExControl:ExComboBox.obj
 0001:0002c370       ?_GetBaseClass@CExComboBox@@KGPAUCRuntimeClass@@XZ 1002d370 f   ExControl:ExComboBox.obj
 0001:0002c380       ??$CompareElements@P6AXXZP6AXXZ@@YGHPBQ6AXXZ0@Z 1002d380 f i ExControl:ExDialog.obj
 0001:0002c3b0       ??$SerializeElements@P6AXXZ@@YGXAAVCArchive@@PAP6AXXZH@Z 1002d3b0 f i ExControl:ExDialog.obj
 0001:0002c460       ??0?$CList@P6AXXZP6AXXZ@@QAE@H@Z 1002d460 f i ExControl:ExDialog.obj
 0001:0002c4a0       ??0CExDialog@@QAE@IPAVCWnd@@I@Z 1002d4a0 f   ExControl:ExDialog.obj
 0001:0002c5f0       ??0CExDialog@@QAE@XZ       1002d5f0 f   ExControl:ExDialog.obj
 0001:0002c720       ??0CPCTrMngHelper@@QAE@XZ  1002d720 f i ExControl:ExDialog.obj
 0001:0002c9d0       ??1?$CList@P6AXXZP6AXXZ@@UAE@XZ 1002d9d0 f i ExControl:ExDialog.obj
 0001:0002ca40       ??1CLoadLib@@QAE@XZ        1002da40 f i ExControl:ExDialog.obj
 0001:0002ca9d       ??_ECExDialog@@WKI@AEPAXI@Z 1002da9d f i ExControl:ExDialog.obj
 0001:0002cab0       ??_E?$CList@P6AXXZP6AXXZ@@UAEPAXI@Z 1002dab0 f i ExControl:ExDialog.obj
 0001:0002cab0       ??_G?$CList@P6AXXZP6AXXZ@@UAEPAXI@Z 1002dab0 f i ExControl:ExDialog.obj
 0001:0002cb60       ??_ECExDialog@@UAEPAXI@Z   1002db60 f i ExControl:ExDialog.obj
 0001:0002cb60       ??_GCExDialog@@UAEPAXI@Z   1002db60 f i ExControl:ExDialog.obj
 0001:0002cc40       ?AddTail@?$CList@P6AXXZP6AXXZ@@QAEPAU__POSITION@@P6AXXZ@Z 1002dc40 f i ExControl:ExDialog.obj
 0001:0002ccd0       ?ColorTableChanged@CExDialog@@UAEXXZ 1002dcd0 f i ExControl:ExDialog.obj
 0001:0002cce0       ?ColorTableChanged@CMyISkinColorSite@CExDialog@@UAGXXZ 1002dce0 f i ExControl:ExDialog.obj
 0001:0002cd20       ?CreateObject@CExDialog@@SGPAVCObject@@XZ 1002dd20 f   ExControl:ExDialog.obj
 0001:0002ce80       ?Find@?$CList@P6AXXZP6AXXZ@@QBEPAU__POSITION@@P6AXXZPAU2@@Z 1002de80 f i ExControl:ExDialog.obj
 0001:0002cec0       ?FreeNode@?$CList@P6AXXZP6AXXZ@@IAEXPAUCNode@1@@Z 1002dec0 f i ExControl:ExDialog.obj
 0001:0002cf10       ?GetMessageMap@CExDialog@@MBEPBUAFX_MSGMAP@@XZ 1002df10 f   ExControl:ExDialog.obj
 0001:0002cf20       ?GetRuntimeClass@CExDialog@@UBEPAUCRuntimeClass@@XZ 1002df20 f   ExControl:ExDialog.obj
 0001:0002cf30       ?GetThisClass@CExDialog@@SGPAUCRuntimeClass@@XZ 1002df30 f   ExControl:ExDialog.obj
 0001:0002cf40       ?GetThisMessageMap@CExDialog@@KGPBUAFX_MSGMAP@@XZ 1002df40 f   ExControl:ExDialog.obj
 0001:0002cf50       ?LoadProcAddress@CLoadLib@@UAEHXZ 1002df50 f i ExControl:ExDialog.obj
 0001:0002cf60       ?LoadProcAddress@CPCTrMngHelper@@UAEHXZ 1002df60 f i ExControl:ExDialog.obj
 0001:0002cfd0       ?NewNode@?$CList@P6AXXZP6AXXZ@@IAEPAUCNode@1@PAU21@0@Z 1002dfd0 f i ExControl:ExDialog.obj
 0001:0002d040       ?NotifyToCtrlColorTableChanged@CExDialog@@IAEXXZ 1002e040 f   ExControl:ExDialog.obj
 0001:0002d060       ?OnCtlColor@CExDialog@@IAEPAUHBRUSH__@@PAVCDC@@PAVCWnd@@I@Z 1002e060 f   ExControl:ExDialog.obj
 0001:0002d0e0       ?OnDestroy@CExDialog@@IAEXXZ 1002e0e0 f   ExControl:ExDialog.obj
 0001:0002d210       ?OnEraseBkgnd@CExDialog@@IAEHPAVCDC@@@Z 1002e210 f   ExControl:ExDialog.obj
 0001:0002d290       ?OnGetMinMaxInfo@CExDialog@@IAEXPAUtagMINMAXINFO@@@Z 1002e290 f   ExControl:ExDialog.obj
 0001:0002d2a0       ?OnInitDialog@CExDialog@@MAEHXZ 1002e2a0 f   ExControl:ExDialog.obj
 0001:0002d3f0       ?OnSize@CExDialog@@IAEXIHH@Z 1002e3f0 f   ExControl:ExDialog.obj
 0001:0002d410       ?ReceiveData@CExDialog@@UAEJJPBD00PAXJ@Z 1002e410 f i ExControl:ExDialog.obj
 0001:0002d420       ?ReceiveData@CMyITrCommSite@CExDialog@@UAGJJPBD00PAXJ@Z 1002e420 f i ExControl:ExDialog.obj
 0001:0002d470       ?ReceiveMessage@CExDialog@@UAEJJPBD00@Z 1002e470 f i ExControl:ExDialog.obj
 0001:0002d480       ?ReceiveMessage@CMyITrCommSite@CExDialog@@UAGJJPBD00@Z 1002e480 f i ExControl:ExDialog.obj
 0001:0002d4b0       ?ReceiveRealData@CExDialog@@UAEJGPBDPAX@Z 1002e4b0 f i ExControl:ExDialog.obj
 0001:0002d4c0       ?ReceiveRealData@CMyITrCommSite@CExDialog@@UAGJGPBDPAX@Z 1002e4c0 f i ExControl:ExDialog.obj
 0001:0002d510       ?RemoveAll@?$CList@P6AXXZP6AXXZ@@QAEXXZ 1002e510 f i ExControl:ExDialog.obj
 0001:0002d540       ?RemoveAt@?$CList@P6AXXZP6AXXZ@@QAEXPAU__POSITION@@@Z 1002e540 f i ExControl:ExDialog.obj
 0001:0002d5b0       ?RemoveChangeSkinNotifyFunction@CExDialog@@QAEXPAU__POSITION@@@Z 1002e5b0 f   ExControl:ExDialog.obj
 0001:0002d650       ?Serialize@?$CList@P6AXXZP6AXXZ@@UAEXAAVCArchive@@@Z 1002e650 f i ExControl:ExDialog.obj
 0001:0002d7e0       ?SetBaseInterface@CExDialog@@QAEXI@Z 1002e7e0 f   ExControl:ExDialog.obj
 0001:0002d8d0       ?SetChangeSkinNotifyFunction@CExDialog@@QAEPAU__POSITION@@P6AXXZ@Z 1002e8d0 f   ExControl:ExDialog.obj
 0001:0002d920       ?StatusChange@CExDialog@@UAEJH@Z 1002e920 f i ExControl:ExDialog.obj
 0001:0002d930       ?StatusChange@CMyITrCommSite@CExDialog@@UAGJH@Z 1002e930 f i ExControl:ExDialog.obj
 0001:0002d950       ?_GetBaseClass@CExDialog@@KGPAUCRuntimeClass@@XZ 1002e950 f   ExControl:ExDialog.obj
 0001:0002d960       ?Serialize@?$CArray@PAXPAX@@UAEXAAVCArchive@@@Z 1002e960 f i ExControl:StdAfx.obj
 0001:0002da40       ??_G?$CArray@PAXPAX@@UAEPAXI@Z 1002ea40 f i ExControl:StdAfx.obj
 0001:0002da40       ??_E?$CArray@PAXPAX@@UAEPAXI@Z 1002ea40 f i ExControl:StdAfx.obj
 0001:0002da90       ??$SerializeElements@PAX@@YGXAAVCArchive@@PAPAXH@Z 1002ea90 f i ExControl:StdAfx.obj
 0001:0002db40       ??0?$CArray@PAXPAX@@QAE@XZ 1002eb40 f i ExControl:StdAfx.obj
 0001:0002db70       ??1?$CArray@PAXPAX@@UAE@XZ 1002eb70 f i ExControl:StdAfx.obj
 0001:0002db90       ?CompareParamter@@YAHPADV?$CStringT@DV?$StrTraitMFC_DLL@DV?$ChTraitsCRT@D@ATL@@@@@ATL@@@Z 1002eb90 f   ExControl:StdAfx.obj
 0001:0002dc50       ?CreateObject@?$CThreadLocal@VAFX_MODULE_THREAD_STATE@@@@SGPAVCNoTrackObject@@XZ 1002ec50 f i ExControl:StdAfx.obj
 0001:0002dcc0       ?GetParamterValue@@YAXPBDAAV?$CStringT@DV?$StrTraitMFC_DLL@DV?$ChTraitsCRT@D@ATL@@@@@ATL@@V12@@Z 1002ecc0 f   ExControl:StdAfx.obj
 0001:0002ddb0       ?RemovePermanentHandle@@YAXPAX@Z 1002edb0 f   ExControl:StdAfx.obj
 0001:0002ddf0       ?SetAtGrow@?$CArray@PAXPAX@@QAEXHPAX@Z 1002edf0 f i ExControl:StdAfx.obj
 0001:0002de30       ?SetPermanentHandle@@YAXPAXPAVCObject@@@Z 1002ee30 f   ExControl:StdAfx.obj
 0001:0002df00       ?SetSize@?$CArray@PAXPAX@@QAEXHH@Z 1002ef00 f i ExControl:StdAfx.obj
 0001:0002e0e0       ??0CExButton@@QAE@XZ       1002f0e0 f   ExControl:ExButton.obj
 0001:0002e110       ??1CExButton@@UAE@XZ       1002f110 f   ExControl:ExButton.obj
 0001:0002e120       ??_GCExButton@@UAEPAXI@Z   1002f120 f i ExControl:ExButton.obj
 0001:0002e120       ??_ECExButton@@UAEPAXI@Z   1002f120 f i ExControl:ExButton.obj
 0001:0002e170       ?DrawItem@CExButton@@UAEXPAUtagDRAWITEMSTRUCT@@@Z 1002f170 f   ExControl:ExButton.obj
 0001:0002e180       ?GetMessageMap@CExButton@@MBEPBUAFX_MSGMAP@@XZ 1002f180 f   ExControl:ExButton.obj
 0001:0002e190       ?GetThisMessageMap@CExButton@@KGPBUAFX_MSGMAP@@XZ 1002f190 f   ExControl:ExButton.obj
 0001:0002e1a0       ?PreSubclassWindow@CExButton@@MAEXXZ 1002f1a0 f   ExControl:ExButton.obj
 0001:0002e1d0       ??$SerializeElements@PAVCExItem@@@@YGXAAVCArchive@@PAPAVCExItem@@H@Z 1002f1d0 f i ExControl:ExResize.obj
 0001:0002e280       ??0?$CArray@PAVCExItem@@AAPAV1@@@QAE@XZ 1002f280 f i ExControl:ExResize.obj
 0001:0002e2b0       ??0CExItem@@QAE@PAVCWnd@@ABVCExResizeRect@@AAVCRect@@H@Z 1002f2b0 f   ExControl:ExResize.obj
 0001:0002e320       ??0CExResize@@QAE@PAVCWnd@@I@Z 1002f320 f   ExControl:ExResize.obj
 0001:0002e450       ??0CExSizeIcon@@QAE@XZ     1002f450 f   ExControl:ExResize.obj
 0001:0002e4a0       ??1?$CArray@PAVCExItem@@AAPAV1@@@UAE@XZ 1002f4a0 f i ExControl:ExResize.obj
 0001:0002e4c0       ??1CExItem@@UAE@XZ         1002f4c0 f   ExControl:ExResize.obj
 0001:0002e530       ??1CExResize@@UAE@XZ       1002f530 f   ExControl:ExResize.obj
 0001:0002e5c0       ??_G?$CArray@PAVCExItem@@AAPAV1@@@UAEPAXI@Z 1002f5c0 f i ExControl:ExResize.obj
 0001:0002e5c0       ??_E?$CArray@PAVCExItem@@AAPAV1@@@UAEPAXI@Z 1002f5c0 f i ExControl:ExResize.obj
 0001:0002e610       ??_ECExItem@@UAEPAXI@Z     1002f610 f i ExControl:ExResize.obj
 0001:0002e610       ??_GCExItem@@UAEPAXI@Z     1002f610 f i ExControl:ExResize.obj
 0001:0002e690       ??_ECExResize@@UAEPAXI@Z   1002f690 f i ExControl:ExResize.obj
 0001:0002e690       ??_GCExResize@@UAEPAXI@Z   1002f690 f i ExControl:ExResize.obj
 0001:0002e740       ??_GCExSizeIcon@@UAEPAXI@Z 1002f740 f i ExControl:ExResize.obj
 0001:0002e740       ??_ECExSizeIcon@@UAEPAXI@Z 1002f740 f i ExControl:ExResize.obj
 0001:0002e790       ?AutoLoadPlacement@CExResize@@QAEXPBD@Z 1002f790 f   ExControl:ExResize.obj
 0001:0002e810       ?Defer@CExResize@@IAEHAAPAXPAVCExItem@@HH@Z 1002f810 f   ExControl:ExResize.obj
 0001:0002ea10       ?GetMessageMap@CExSizeIcon@@MBEPBUAFX_MSGMAP@@XZ 1002fa10 f   ExControl:ExResize.obj
 0001:0002ea20       ?GetMinMaxInfo@CExResize@@IAEXPAUtagMINMAXINFO@@@Z 1002fa20 f   ExControl:ExResize.obj
 0001:0002ea90       ?GetThisMessageMap@CExSizeIcon@@KGPBUAFX_MSGMAP@@XZ 1002fa90 f   ExControl:ExResize.obj
 0001:0002eaa0       ?Init@CExResize@@IAEXXZ    1002faa0 f   ExControl:ExResize.obj
 0001:0002ebf0       ?LoadPlacement@CExResize@@QAEXPBD@Z 1002fbf0 f   ExControl:ExResize.obj
 0001:0002ec60       ?OnCreate@CExSizeIcon@@IAEHPAUtagCREATESTRUCTA@@@Z 1002fc60 f   ExControl:ExResize.obj
 0001:0002ecc0       ?OnLButtonDown@CExSizeIcon@@IAEXIVCPoint@@@Z 1002fcc0 f   ExControl:ExResize.obj
 0001:0002ed20       ?OnMouseMove@CExSizeIcon@@IAEXIVCPoint@@@Z 1002fd20 f   ExControl:ExResize.obj
 0001:0002ed50       ?OnSetCursor@CExSizeIcon@@IAEHPAVCWnd@@II@Z 1002fd50 f   ExControl:ExResize.obj
 0001:0002ed70       ?RemoveAllControls@CExResize@@IAEXXZ 1002fd70 f   ExControl:ExResize.obj
 0001:0002ede0       ?RemoveAt@?$CArray@PAVCExItem@@AAPAV1@@@QAEXHH@Z 1002fde0 f i ExControl:ExResize.obj
 0001:0002ee80       ?RemoveResize@CExResize@@IAEHI@Z 1002fe80 f   ExControl:ExResize.obj
 0001:0002ef80       ?Reset@CExResize@@IAEXXZ   1002ff80 f   ExControl:ExResize.obj
 0001:0002efe0       ?SavePlacement@CExResize@@QAEXPBD@Z 1002ffe0 f   ExControl:ExResize.obj
 0001:0002f030       ?Serialize@?$CArray@PAVCExItem@@AAPAV1@@@UAEXAAVCArchive@@@Z 10030030 f i ExControl:ExResize.obj
 0001:0002f110       ?SetAtGrow@?$CArray@PAVCExItem@@AAPAV1@@@QAEXHAAPAVCExItem@@@Z 10030110 f i ExControl:ExResize.obj
 0001:0002f150       ?SetFlag@CExResize@@IAEXW4EFlags@1@@Z 10030150 f   ExControl:ExResize.obj
 0001:0002f170       ?SetResize@CExResize@@IAEXPAVCWnd@@ABVCExResizeRect@@VCRect@@@Z 10030170 f   ExControl:ExResize.obj
 0001:0002f210       ?SetResize@CExResize@@QAEXIQAUHWND__@@ABUEX_RESIZERECT@@@Z 10030210 f   ExControl:ExResize.obj
 0001:0002f4c0       ?SetResize@CExResize@@QAEXQAUEX_SIZING@@@Z 100304c0 f   ExControl:ExResize.obj
 0001:0002f4d0       ?SetSize@?$CArray@PAVCExItem@@AAPAV1@@@QAEXHH@Z 100304d0 f i ExControl:ExResize.obj
 0001:0002f6b0       ?Size@CExResize@@IAEXXZ    100306b0 f   ExControl:ExResize.obj
 0001:0002f820       ??0CExCheckBox@@QAE@H@Z    10030820 f   ExControl:ExCheckBox.obj
 0001:0002f8c0       ??0CLoaderCheckBoxButton@@QAE@PAXH@Z 100308c0 f i ExControl:ExCheckBox.obj
 0001:0002fb70       ??1CExCheckBox@@UAE@XZ     10030b70 f   ExControl:ExCheckBox.obj
 0001:0002fba0       ??1CLoaderCheckBoxButton@@UAE@XZ 10030ba0 f i ExControl:ExCheckBox.obj
 0001:0002fc20       ??_ECExCheckBox@@UAEPAXI@Z 10030c20 f i ExControl:ExCheckBox.obj
 0001:0002fc20       ??_GCExCheckBox@@UAEPAXI@Z 10030c20 f i ExControl:ExCheckBox.obj
 0001:0002fc80       ??_GCLoaderCheckBoxButton@@UAEPAXI@Z 10030c80 f i ExControl:ExCheckBox.obj
 0001:0002fc80       ??_ECLoaderCheckBoxButton@@UAEPAXI@Z 10030c80 f i ExControl:ExCheckBox.obj
 0001:0002fd20       ?CreateObject@CExCheckBox@@SGPAVCObject@@XZ 10030d20 f   ExControl:ExCheckBox.obj
 0001:0002fde0       ?CtlColor@CExCheckBox@@IAEPAUHBRUSH__@@PAVCDC@@I@Z 10030de0 f   ExControl:ExCheckBox.obj
 0001:0002fe10       ?GetMessageMap@CExCheckBox@@MBEPBUAFX_MSGMAP@@XZ 10030e10 f   ExControl:ExCheckBox.obj
 0001:0002fe20       ?GetRuntimeClass@CExCheckBox@@UBEPAUCRuntimeClass@@XZ 10030e20 f   ExControl:ExCheckBox.obj
 0001:0002fe30       ?GetThisClass@CExCheckBox@@SGPAUCRuntimeClass@@XZ 10030e30 f   ExControl:ExCheckBox.obj
 0001:0002fe40       ?GetThisMessageMap@CExCheckBox@@KGPBUAFX_MSGMAP@@XZ 10030e40 f   ExControl:ExCheckBox.obj
 0001:0002fe50       ?LoadProcAddress@CLoaderCheckBoxButton@@UAEHXZ 10030e50 f i ExControl:ExCheckBox.obj
 0001:0002fef0       ?SetColor@CExCheckBox@@QAEXKK@Z 10030ef0 f   ExControl:ExCheckBox.obj
 0001:0002ff20       ?SetSkinIndex@CExCheckBox@@QAEXII@Z 10030f20 f   ExControl:ExCheckBox.obj
 0001:0002ff50       ?SetSkinString@CExCheckBox@@QAEXPBD0@Z 10030f50 f   ExControl:ExCheckBox.obj
 0001:0002ff80       ?_GetBaseClass@CExCheckBox@@KGPAUCRuntimeClass@@XZ 10030f80 f   ExControl:ExCheckBox.obj
 0001:0002ff90       ??0CExResizeRect@@QAE@MMMM@Z 10030f90 f   ExControl:ExResizeRect.obj
 0001:0002ffc0       ??0CExResizeRect@@QAE@XZ   10030fc0 f   ExControl:ExResizeRect.obj
 0001:0002ffd0       ??4CExResizeRect@@QAEAAV0@ABUEX_RESIZERECT@@@Z 10030fd0 f   ExControl:ExResizeRect.obj
 0001:00030000       ??4CExResizeRect@@QAEAAV0@ABUtagRECT@@@Z 10031000 f   ExControl:ExResizeRect.obj
 0001:00030040       ??ICExResizeRect@@QAE?AV0@ABUEX_RESIZERECT@@@Z 10031040 f   ExControl:ExResizeRect.obj
 0001:000300c0       ??YCExResizeRect@@QAEAAV0@ABUEX_RESIZERECT@@@Z 100310c0 f   ExControl:ExResizeRect.obj
 0001:00030105       ?GetBuffer@?$CSimpleStringT@D$00@ATL@@QAEPADH@Z 10031105 f   mfc140:mfc140.dll
 0001:0003010b       ?GetBufferSetLength@?$CSimpleStringT@D$00@ATL@@QAEPADH@Z 1003110b f   mfc140:mfc140.dll
 0001:00030111       ?ReleaseBuffer@?$CSimpleStringT@D$00@ATL@@QAEXH@Z 10031111 f   mfc140:mfc140.dll
 0001:00030117       ?Concatenate@?$CSimpleStringT@D$00@ATL@@KAXAAV12@PBDH1H@Z 10031117 f   mfc140:mfc140.dll
 0001:0003011d       ??0?$CStringT@DV?$StrTraitMFC_DLL@DV?$ChTraitsCRT@D@ATL@@@@@ATL@@QAE@XZ 1003111d f   mfc140:mfc140.dll
 0001:00030123       ??0?$CStringT@DV?$StrTraitMFC_DLL@DV?$ChTraitsCRT@D@ATL@@@@@ATL@@QAE@PAUIAtlStringMgr@1@@Z 10031123 f   mfc140:mfc140.dll
 0001:00030129       ??0?$CStringT@DV?$StrTraitMFC_DLL@DV?$ChTraitsCRT@D@ATL@@@@@ATL@@QAE@PBD@Z 10031129 f   mfc140:mfc140.dll
 0001:0003012f       ??1?$CStringT@DV?$StrTraitMFC_DLL@DV?$ChTraitsCRT@D@ATL@@@@@ATL@@QAE@XZ 1003112f f   mfc140:mfc140.dll
 0001:00030135       ??4?$CStringT@DV?$StrTraitMFC_DLL@DV?$ChTraitsCRT@D@ATL@@@@@ATL@@QAEAAV01@ABV01@@Z 10031135 f   mfc140:mfc140.dll
 0001:0003013b       ??4?$CStringT@DV?$StrTraitMFC_DLL@DV?$ChTraitsCRT@D@ATL@@@@@ATL@@QAEAAV01@PBD@Z 1003113b f   mfc140:mfc140.dll
 0001:00030141       ?GetManager@?$CStringT@DV?$StrTraitMFC_DLL@DV?$ChTraitsCRT@D@ATL@@@@@ATL@@QBEPAUIAtlStringMgr@2@XZ 10031141 f   mfc140:mfc140.dll
 0001:00030147       ?ReverseFind@?$CStringT@DV?$StrTraitMFC_DLL@DV?$ChTraitsCRT@D@ATL@@@@@ATL@@QBEHD@Z 10031147 f   mfc140:mfc140.dll
 0001:0003014d       ?Left@?$CStringT@DV?$StrTraitMFC_DLL@DV?$ChTraitsCRT@D@ATL@@@@@ATL@@QBE?AV12@H@Z 1003114d f   mfc140:mfc140.dll
 0001:00030153       ?Format@?$CStringT@DV?$StrTraitMFC_DLL@DV?$ChTraitsCRT@D@ATL@@@@@ATL@@QAAXPBDZZ 10031153 f   mfc140:mfc140.dll
 0001:00030159       ?AfxMessageBox@@YGHPBDII@Z 10031159 f   mfc140:mfc140.dll
 0001:0003015f       ??3@YAXPAX@Z               1003115f f   mfc140:mfc140.dll
 0001:00030165       ??0COleDispatchDriver@@QAE@PAUIDispatch@@H@Z 10031165 f   mfc140:mfc140.dll
 0001:0003016b       ?ReleaseDispatch@COleDispatchDriver@@QAEXXZ 1003116b f   mfc140:mfc140.dll
 0001:00030171       ?InvokeHelper@COleDispatchDriver@@QAAXJGGPAXPBEZZ 10031171 f   mfc140:mfc140.dll
 0001:00030177       ??2@YAPAXI@Z               10031177 f   mfc140:mfc140.dll
 0001:0003017d       ?OnCmdMsg@CCmdTarget@@UAEHIHPAXPAUAFX_CMDHANDLERINFO@@@Z 1003117d f   mfc140:mfc140.dll
 0001:00030183       ?IsInvokeAllowed@CCmdTarget@@UAEHJ@Z 10031183 f   mfc140:mfc140.dll
 0001:00030189       ?GetDispatchIID@CCmdTarget@@UAEHPAU_GUID@@@Z 10031189 f   mfc140:mfc140.dll
 0001:0003018f       ?GetTypeInfoCount@CCmdTarget@@UAEIXZ 1003118f f   mfc140:mfc140.dll
 0001:00030195       ?GetTypeLibCache@CCmdTarget@@UAEPAVCTypeLibCache@@XZ 10031195 f   mfc140:mfc140.dll
 0001:0003019b       ?GetTypeLib@CCmdTarget@@UAEJKPAPAUITypeLib@@@Z 1003119b f   mfc140:mfc140.dll
 0001:000301a1       ?GetCommandMap@CCmdTarget@@MBEPBUAFX_OLECMDMAP@@XZ 100311a1 f   mfc140:mfc140.dll
 0001:000301a7       ?GetDispatchMap@CCmdTarget@@MBEPBUAFX_DISPMAP@@XZ 100311a7 f   mfc140:mfc140.dll
 0001:000301ad       ?GetConnectionMap@CCmdTarget@@MBEPBUAFX_CONNECTIONMAP@@XZ 100311ad f   mfc140:mfc140.dll
 0001:000301b3       ?GetEventSinkMap@CCmdTarget@@MBEPBUAFX_EVENTSINKMAP@@XZ 100311b3 f   mfc140:mfc140.dll
 0001:000301b9       ?OnCreateAggregates@CCmdTarget@@UAEHXZ 100311b9 f   mfc140:mfc140.dll
 0001:000301bf       ?GetInterfaceHook@CCmdTarget@@UAEPAUIUnknown@@PBX@Z 100311bf f   mfc140:mfc140.dll
 0001:000301c5       ?GetExtraConnectionPoints@CCmdTarget@@MAEHPAVCPtrArray@@@Z 100311c5 f   mfc140:mfc140.dll
 0001:000301cb       ?GetConnectionHook@CCmdTarget@@MAEPAUIConnectionPoint@@ABU_GUID@@@Z 100311cb f   mfc140:mfc140.dll
 0001:000301d1       ?GetThisClass@CWnd@@SGPAUCRuntimeClass@@XZ 100311d1 f   mfc140:mfc140.dll
 0001:000301d7       ??0CWnd@@QAE@XZ            100311d7 f   mfc140:mfc140.dll
 0001:000301dd       ?PreSubclassWindow@CWnd@@UAEXXZ 100311dd f   mfc140:mfc140.dll
 0001:000301e3       ?CreateEx@CWnd@@UAEHKPBD0KHHHHPAUHWND__@@PAUHMENU__@@PAX@Z 100311e3 f   mfc140:mfc140.dll
 0001:000301e9       ?CreateEx@CWnd@@UAEHKPBD0KABUtagRECT@@PAV1@IPAX@Z 100311e9 f   mfc140:mfc140.dll
 0001:000301ef       ?CreateControl@CWnd@@QAEHABU_GUID@@PBDKABUtagRECT@@PAV1@IPAVCFile@@HPA_W@Z 100311ef f   mfc140:mfc140.dll
 0001:000301f5       ?DestroyWindow@CWnd@@UAEHXZ 100311f5 f   mfc140:mfc140.dll
 0001:000301fb       ?PreCreateWindow@CWnd@@UAEHAAUtagCREATESTRUCTA@@@Z 100311fb f   mfc140:mfc140.dll
 0001:00030201       ?CalcWindowRect@CWnd@@UAEXPAUtagRECT@@I@Z 10031201 f   mfc140:mfc140.dll
 0001:00030207       ?GetMenu@CWnd@@UBEPAVCMenu@@XZ 10031207 f   mfc140:mfc140.dll
 0001:0003020d       ?SetMenu@CWnd@@UAEHPAVCMenu@@@Z 1003120d f   mfc140:mfc140.dll
 0001:00030213       ?OnToolHitTest@CWnd@@UBEHVCPoint@@PAUtagTOOLINFOA@@@Z 10031213 f   mfc140:mfc140.dll
 0001:00030219       ?GetScrollBarCtrl@CWnd@@UBEPAVCScrollBar@@H@Z 10031219 f   mfc140:mfc140.dll
 0001:0003021f       ?WinHelpA@CWnd@@UAEXKI@Z   1003121f f   mfc140:mfc140.dll
 0001:00030225       ?HtmlHelpA@CWnd@@UAEXKI@Z  10031225 f   mfc140:mfc140.dll
 0001:0003022b       ?WinHelpInternal@CWnd@@UAEXKI@Z 1003122b f   mfc140:mfc140.dll
 0001:00030231       ?ContinueModal@CWnd@@UAEHXZ 10031231 f   mfc140:mfc140.dll
 0001:00030237       ?EndModalLoop@CWnd@@UAEXH@Z 10031237 f   mfc140:mfc140.dll
 0001:0003023d       ?OnDrawIconicThumbnailOrLivePreview@CWnd@@UAEXAAVCDC@@VCRect@@VCSize@@HAAH@Z 1003123d f   mfc140:mfc140.dll
 0001:00030243       ?GetInterfaceMap@CWnd@@MBEPBUAFX_INTERFACEMAP@@XZ 10031243 f   mfc140:mfc140.dll
 0001:00030249       ?EnsureStdObj@CWnd@@UAEJXZ 10031249 f   mfc140:mfc140.dll
 0001:0003024f       ?get_accParent@CWnd@@UAEJPAPAUIDispatch@@@Z 1003124f f   mfc140:mfc140.dll
 0001:00030255       ?get_accChildCount@CWnd@@UAEJPAJ@Z 10031255 f   mfc140:mfc140.dll
 0001:0003025b       ?get_accChild@CWnd@@UAEJUtagVARIANT@@PAPAUIDispatch@@@Z 1003125b f   mfc140:mfc140.dll
 0001:00030261       ?get_accName@CWnd@@UAEJUtagVARIANT@@PAPA_W@Z 10031261 f   mfc140:mfc140.dll
 0001:00030267       ?get_accValue@CWnd@@UAEJUtagVARIANT@@PAPA_W@Z 10031267 f   mfc140:mfc140.dll
 0001:0003026d       ?get_accDescription@CWnd@@UAEJUtagVARIANT@@PAPA_W@Z 1003126d f   mfc140:mfc140.dll
 0001:00030273       ?get_accRole@CWnd@@UAEJUtagVARIANT@@PAU2@@Z 10031273 f   mfc140:mfc140.dll
 0001:00030279       ?get_accState@CWnd@@UAEJUtagVARIANT@@PAU2@@Z 10031279 f   mfc140:mfc140.dll
 0001:0003027f       ?get_accHelp@CWnd@@UAEJUtagVARIANT@@PAPA_W@Z 1003127f f   mfc140:mfc140.dll
 0001:00030285       ?get_accHelpTopic@CWnd@@UAEJPAPA_WUtagVARIANT@@PAJ@Z 10031285 f   mfc140:mfc140.dll
 0001:0003028b       ?get_accKeyboardShortcut@CWnd@@UAEJUtagVARIANT@@PAPA_W@Z 1003128b f   mfc140:mfc140.dll
 0001:00030291       ?get_accFocus@CWnd@@UAEJPAUtagVARIANT@@@Z 10031291 f   mfc140:mfc140.dll
 0001:00030297       ?get_accSelection@CWnd@@UAEJPAUtagVARIANT@@@Z 10031297 f   mfc140:mfc140.dll
 0001:0003029d       ?get_accDefaultAction@CWnd@@UAEJUtagVARIANT@@PAPA_W@Z 1003129d f   mfc140:mfc140.dll
 0001:000302a3       ?accSelect@CWnd@@UAEJJUtagVARIANT@@@Z 100312a3 f   mfc140:mfc140.dll
 0001:000302a9       ?accLocation@CWnd@@UAEJPAJ000UtagVARIANT@@@Z 100312a9 f   mfc140:mfc140.dll
 0001:000302af       ?accNavigate@CWnd@@UAEJJUtagVARIANT@@PAU2@@Z 100312af f   mfc140:mfc140.dll
 0001:000302b5       ?accHitTest@CWnd@@UAEJJJPAUtagVARIANT@@@Z 100312b5 f   mfc140:mfc140.dll
 0001:000302bb       ?accDoDefaultAction@CWnd@@UAEJUtagVARIANT@@@Z 100312bb f   mfc140:mfc140.dll
 0001:000302c1       ?put_accName@CWnd@@UAEJUtagVARIANT@@PA_W@Z 100312c1 f   mfc140:mfc140.dll
 0001:000302c7       ?put_accValue@CWnd@@UAEJUtagVARIANT@@PA_W@Z 100312c7 f   mfc140:mfc140.dll
 0001:000302cd       ?SetProxy@CWnd@@UAEJPAUIAccessibleProxy@@@Z 100312cd f   mfc140:mfc140.dll
 0001:000302d3       ?CreateAccessibleProxy@CWnd@@UAEJIJPAJ@Z 100312d3 f   mfc140:mfc140.dll
 0001:000302d9       ?OnCommand@CWnd@@MAEHIJ@Z  100312d9 f   mfc140:mfc140.dll
 0001:000302df       ?OnNotify@CWnd@@MAEHIJPAJ@Z 100312df f   mfc140:mfc140.dll
 0001:000302e5       ?GetSuperWndProcAddr@CWnd@@MAEPAP6GJPAUHWND__@@IIJ@ZXZ 100312e5 f   mfc140:mfc140.dll
 0001:000302eb       ?PreTranslateMessage@CWnd@@UAEHPAUtagMSG@@@Z 100312eb f   mfc140:mfc140.dll
 0001:000302f1       ?OnAmbientProperty@CWnd@@UAEHPAVCOleControlSite@@JPAUtagVARIANT@@@Z 100312f1 f   mfc140:mfc140.dll
 0001:000302f7       ?WindowProc@CWnd@@MAEJIIJ@Z 100312f7 f   mfc140:mfc140.dll
 0001:000302fd       ?OnWndMsg@CWnd@@MAEHIIJPAJ@Z 100312fd f   mfc140:mfc140.dll
 0001:00030303       ?DefWindowProcA@CWnd@@MAEJIIJ@Z 10031303 f   mfc140:mfc140.dll
 0001:00030309       ?PostNcDestroy@CWnd@@MAEXXZ 10031309 f   mfc140:mfc140.dll
 0001:0003030f       ?OnChildNotify@CWnd@@MAEHIIJPAJ@Z 1003130f f   mfc140:mfc140.dll
 0001:00030315       ?OnTouchInputs@CWnd@@MAEHIPAUtagTOUCHINPUT@@@Z 10031315 f   mfc140:mfc140.dll
 0001:0003031b       ?OnTouchInput@CWnd@@MAEHVCPoint@@HHPAUtagTOUCHINPUT@@@Z 1003131b f   mfc140:mfc140.dll
 0001:00030321       ?GetGestureStatus@CWnd@@MAEKVCPoint@@@Z 10031321 f   mfc140:mfc140.dll
 0001:00030327       ?OnGestureZoom@CWnd@@MAEHVCPoint@@J@Z 10031327 f   mfc140:mfc140.dll
 0001:0003032d       ?OnGesturePan@CWnd@@MAEHVCPoint@@0@Z 1003132d f   mfc140:mfc140.dll
 0001:00030333       ?OnGestureRotate@CWnd@@MAEHVCPoint@@N@Z 10031333 f   mfc140:mfc140.dll
 0001:00030339       ?OnGestureTwoFingerTap@CWnd@@MAEHVCPoint@@@Z 10031339 f   mfc140:mfc140.dll
 0001:0003033f       ?OnGesturePressAndTap@CWnd@@MAEHVCPoint@@J@Z 1003133f f   mfc140:mfc140.dll
 0001:00030345       ?ResizeDynamicLayout@CWnd@@MAEXXZ 10031345 f   mfc140:mfc140.dll
 0001:0003034b       ??1CWnd@@UAE@XZ            1003134b f   mfc140:mfc140.dll
 0001:00030351       ?CheckAutoCenter@CWnd@@UAEHXZ 10031351 f   mfc140:mfc140.dll
 0001:00030357       ?IsFrameWnd@CWnd@@UBEHXZ   10031357 f   mfc140:mfc140.dll
 0001:0003035d       ?OnFinalRelease@CWnd@@UAEXXZ 1003135d f   mfc140:mfc140.dll
 0001:00030363       ?CreateControlContainer@CWnd@@MAEHPAPAVCOleControlContainer@@@Z 10031363 f   mfc140:mfc140.dll
 0001:00030369       ?CreateControlSite@CWnd@@MAEHPAVCOleControlContainer@@PAPAVCOleControlSite@@IABU_GUID@@@Z 10031369 f   mfc140:mfc140.dll
 0001:0003036f       ?SetOccDialogInfo@CWnd@@MAEHPAU_AFX_OCC_DIALOG_INFO@@@Z 1003136f f   mfc140:mfc140.dll
 0001:00030375       ?GetOccDialogInfo@CWnd@@MAEPAU_AFX_OCC_DIALOG_INFO@@XZ 10031375 f   mfc140:mfc140.dll
 0001:0003037b       ?GetMessageMap@CWnd@@MBEPBUAFX_MSGMAP@@XZ 1003137b f   mfc140:mfc140.dll
 0001:00030381       ?InvokeHelper@CWnd@@QAAXJGGPAXPBEZZ 10031381 f   mfc140:mfc140.dll
 0001:00030387       ?FromHandle@CWnd@@SGPAV1@PAUHWND__@@@Z 10031387 f   mfc140:mfc140.dll
 0001:0003038d       ?Create@CWnd@@UAEHPBD0KABUtagRECT@@PAV1@IPAUCCreateContext@@@Z 1003138d f   mfc140:mfc140.dll
 0001:00030393       ?Default@CWnd@@IAEJXZ      10031393 f   mfc140:mfc140.dll
 0001:00030399       ?GetThisMessageMap@CWnd@@KGPBUAFX_MSGMAP@@XZ 10031399 f   mfc140:mfc140.dll
 0001:0003039f       ?GetRuntimeClass@CDateTimeCtrl@@UBEPAUCRuntimeClass@@XZ 1003139f f   mfc140:mfc140.dll
 0001:000303a5       ?Create@CDateTimeCtrl@@UAEHKABUtagRECT@@PAVCWnd@@I@Z 100313a5 f   mfc140:mfc140.dll
 0001:000303ab       ??1CDateTimeCtrl@@UAE@XZ   100313ab f   mfc140:mfc140.dll
 0001:000303b1       ?GetWindowTextA@CWnd@@QBEXAAV?$CStringT@DV?$StrTraitMFC_DLL@DV?$ChTraitsCRT@D@ATL@@@@@ATL@@@Z 100313b1 f   mfc140:mfc140.dll
 0001:000303b7       ?GetRuntimeClass@CEdit@@UBEPAUCRuntimeClass@@XZ 100313b7 f   mfc140:mfc140.dll
 0001:000303bd       ??1CEdit@@UAE@XZ           100313bd f   mfc140:mfc140.dll
 0001:000303c3       ?GetRuntimeClass@CGdiObject@@UBEPAUCRuntimeClass@@XZ 100313c3 f   mfc140:mfc140.dll
 0001:000303c9       ?FromHandle@CGdiObject@@SGPAV1@PAX@Z 100313c9 f   mfc140:mfc140.dll
 0001:000303cf       ?Attach@CGdiObject@@QAEHPAX@Z 100313cf f   mfc140:mfc140.dll
 0001:000303d5       ?DeleteObject@CGdiObject@@QAEHXZ 100313d5 f   mfc140:mfc140.dll
 0001:000303db       ?GetRuntimeClass@CPen@@UBEPAUCRuntimeClass@@XZ 100313db f   mfc140:mfc140.dll
 0001:000303e1       ??0CPen@@QAE@HHK@Z         100313e1 f   mfc140:mfc140.dll
 0001:000303e7       ?GetRuntimeClass@CBitmap@@UBEPAUCRuntimeClass@@XZ 100313e7 f   mfc140:mfc140.dll
 0001:000303ed       ?GetRuntimeClass@CDC@@UBEPAUCRuntimeClass@@XZ 100313ed f   mfc140:mfc140.dll
 0001:000303f3       ?Attach@CDC@@QAEHPAUHDC__@@@Z 100313f3 f   mfc140:mfc140.dll
 0001:000303f9       ?SetAttribDC@CDC@@UAEXPAUHDC__@@@Z 100313f9 f   mfc140:mfc140.dll
 0001:000303ff       ?SetOutputDC@CDC@@UAEXPAUHDC__@@@Z 100313ff f   mfc140:mfc140.dll
 0001:00030405       ?ReleaseAttribDC@CDC@@UAEXXZ 10031405 f   mfc140:mfc140.dll
 0001:0003040b       ?ReleaseOutputDC@CDC@@UAEXXZ 1003140b f   mfc140:mfc140.dll
 0001:00030411       ??0CDC@@QAE@XZ             10031411 f   mfc140:mfc140.dll
 0001:00030417       ?SaveDC@CDC@@UAEHXZ        10031417 f   mfc140:mfc140.dll
 0001:0003041d       ?RestoreDC@CDC@@UAEHH@Z    1003141d f   mfc140:mfc140.dll
 0001:00030423       ?SelectStockObject@CDC@@UAEPAVCGdiObject@@H@Z 10031423 f   mfc140:mfc140.dll
 0001:00030429       ?SelectObject@CDC@@QAEPAVCPen@@PAV2@@Z 10031429 f   mfc140:mfc140.dll
 0001:0003042f       ?SelectObject@CDC@@UAEPAVCFont@@PAV2@@Z 1003142f f   mfc140:mfc140.dll
 0001:00030435       ?SetBkColor@CDC@@UAEKK@Z   10031435 f   mfc140:mfc140.dll
 0001:0003043b       ?SetTextColor@CDC@@UAEKK@Z 1003143b f   mfc140:mfc140.dll
 0001:00030441       ?SetMapMode@CDC@@UAEHH@Z   10031441 f   mfc140:mfc140.dll
 0001:00030447       ?SetViewportOrg@CDC@@UAE?AVCPoint@@HH@Z 10031447 f   mfc140:mfc140.dll
 0001:0003044d       ?OffsetViewportOrg@CDC@@UAE?AVCPoint@@HH@Z 1003144d f   mfc140:mfc140.dll
 0001:00030453       ?SetViewportExt@CDC@@UAE?AVCSize@@HH@Z 10031453 f   mfc140:mfc140.dll
 0001:00030459       ?ScaleViewportExt@CDC@@UAE?AVCSize@@HHHH@Z 10031459 f   mfc140:mfc140.dll
 0001:0003045f       ?SetWindowOrg@CDC@@QAE?AVCPoint@@HH@Z 1003145f f   mfc140:mfc140.dll
 0001:00030465       ?SetWindowExt@CDC@@UAE?AVCSize@@HH@Z 10031465 f   mfc140:mfc140.dll
 0001:0003046b       ?ScaleWindowExt@CDC@@UAE?AVCSize@@HHHH@Z 1003146b f   mfc140:mfc140.dll
 0001:00030471       ?GetClipBox@CDC@@UBEHPAUtagRECT@@@Z 10031471 f   mfc140:mfc140.dll
 0001:00030477       ?MoveTo@CDC@@QAE?AVCPoint@@HH@Z 10031477 f   mfc140:mfc140.dll
 0001:0003047d       ?LineTo@CDC@@QAEHHH@Z      1003147d f   mfc140:mfc140.dll
 0001:00030483       ?FillSolidRect@CDC@@QAEXPBUtagRECT@@K@Z 10031483 f   mfc140:mfc140.dll
 0001:00030489       ?Draw3dRect@CDC@@QAEXPBUtagRECT@@KK@Z 10031489 f   mfc140:mfc140.dll
 0001:0003048f       ??1CDC@@UAE@XZ             1003148f f   mfc140:mfc140.dll
 0001:00030495       ?SelectGdiObject@CDC@@KGPAVCGdiObject@@PAUHDC__@@PAX@Z 10031495 f   mfc140:mfc140.dll
 0001:0003049b       ??0CPaintDC@@QAE@PAVCWnd@@@Z 1003149b f   mfc140:mfc140.dll
 0001:000304a1       ??1CPaintDC@@UAE@XZ        100314a1 f   mfc140:mfc140.dll
 0001:000304a7       ?FromHandle@CImageList@@SGPAV1@PAU_IMAGELIST@@@Z 100314a7 f   mfc140:mfc140.dll
 0001:000304ad       ?DrawIndirect@CImageList@@QAEHPAVCDC@@HUtagPOINT@@UtagSIZE@@1IKKKKKK@Z 100314ad f   mfc140:mfc140.dll
 0001:000304b3       ?GetDlgCtrlID@CWnd@@QBEHXZ 100314b3 f   mfc140:mfc140.dll
 0001:000304b9       ?OnSysColorChange@CWnd@@IAEXXZ 100314b9 f   mfc140:mfc140.dll
 0001:000304bf       ?GetThisClass@CHeaderCtrl@@SGPAUCRuntimeClass@@XZ 100314bf f   mfc140:mfc140.dll
 0001:000304c5       ?GetRuntimeClass@CHeaderCtrl@@UBEPAUCRuntimeClass@@XZ 100314c5 f   mfc140:mfc140.dll
 0001:000304cb       ?Create@CHeaderCtrl@@UAEHKABUtagRECT@@PAVCWnd@@I@Z 100314cb f   mfc140:mfc140.dll
 0001:000304d1       ?CreateEx@CHeaderCtrl@@UAEHKKABUtagRECT@@PAVCWnd@@I@Z 100314d1 f   mfc140:mfc140.dll
 0001:000304d7       ?DrawItem@CHeaderCtrl@@UAEXPAUtagDRAWITEMSTRUCT@@@Z 100314d7 f   mfc140:mfc140.dll
 0001:000304dd       ??1CHeaderCtrl@@UAE@XZ     100314dd f   mfc140:mfc140.dll
 0001:000304e3       ?OnChildNotify@CHeaderCtrl@@MAEHIIJPAJ@Z 100314e3 f   mfc140:mfc140.dll
 0001:000304e9       ??_U@YAPAXI@Z              100314e9 f   mfc140:mfc140.dll
 0001:000304ef       ?AfxThrowMemoryException@@YGXXZ 100314ef f   mfc140:mfc140.dll
 0001:000304f5       ?AfxThrowInvalidArgException@@YGXXZ 100314f5 f   mfc140:mfc140.dll
 0001:000304fb       ?AfxThrowOleException@@YGXJ@Z 100314fb f   mfc140:mfc140.dll
 0001:00030501       ??0?$CStringT@DV?$StrTraitMFC_DLL@DV?$ChTraitsCRT@D@ATL@@@@@ATL@@QAE@ABV01@@Z 10031501 f   mfc140:mfc140.dll
 0001:00030507       ?Compare@?$CStringT@DV?$StrTraitMFC_DLL@DV?$ChTraitsCRT@D@ATL@@@@@ATL@@QBEHPBD@Z 10031507 f   mfc140:mfc140.dll
 0001:0003050d       ??0CPtrArray@@QAE@XZ       1003150d f   mfc140:mfc140.dll
 0001:00030513       ?SetSize@CPtrArray@@QAEXHH@Z 10031513 f   mfc140:mfc140.dll
 0001:00030519       ?InsertAt@CPtrArray@@QAEXHPAXH@Z 10031519 f   mfc140:mfc140.dll
 0001:0003051f       ??1CPtrArray@@UAE@XZ       1003151f f   mfc140:mfc140.dll
 0001:00030525       ?GetRuntimeClass@CFont@@UBEPAUCRuntimeClass@@XZ 10031525 f   mfc140:mfc140.dll
 0001:0003052b       ?CreatePointFont@CFont@@QAEHHPBDPAVCDC@@@Z 1003152b f   mfc140:mfc140.dll
 0001:00030531       ?GetRuntimeClass@CRgn@@UBEPAUCRuntimeClass@@XZ 10031531 f   mfc140:mfc140.dll
 0001:00030537       ?FromHandle@CDC@@SGPAV1@PAUHDC__@@@Z 10031537 f   mfc140:mfc140.dll
 0001:0003053d       ?SetBkMode@CDC@@QAEHH@Z    1003153d f   mfc140:mfc140.dll
 0001:00030543       ?SelectClipRgn@CDC@@QAEHPAVCRgn@@@Z 10031543 f   mfc140:mfc140.dll
 0001:00030549       ??0CClientDC@@QAE@PAVCWnd@@@Z 10031549 f   mfc140:mfc140.dll
 0001:0003054f       ??1CClientDC@@UAE@XZ       1003154f f   mfc140:mfc140.dll
 0001:00030555       ??0CImageList@@QAE@XZ      10031555 f   mfc140:mfc140.dll
 0001:0003055b       ?Create@CImageList@@QAEHHHIHH@Z 1003155b f   mfc140:mfc140.dll
 0001:00030561       ??1CImageList@@UAE@XZ      10031561 f   mfc140:mfc140.dll
 0001:00030567       ?GetCurrentMessage@CWnd@@KGPBUtagMSG@@XZ 10031567 f   mfc140:mfc140.dll
 0001:0003056d       ?GetStyle@CWnd@@QBEKXZ     1003156d f   mfc140:mfc140.dll
 0001:00030573       ?SubclassWindow@CWnd@@QAEHPAUHWND__@@@Z 10031573 f   mfc140:mfc140.dll
 0001:00030579       ?GetDlgItem@CWnd@@QBEPAV1@H@Z 10031579 f   mfc140:mfc140.dll
 0001:0003057f       ?SetWindowTextA@CWnd@@QAEXPBD@Z 1003157f f   mfc140:mfc140.dll
 0001:00030585       ?SetFocus@CWnd@@QAEPAV1@XZ 10031585 f   mfc140:mfc140.dll
 0001:0003058b       ?GetScrollPos@CWnd@@QBEHH@Z 1003158b f   mfc140:mfc140.dll
 0001:00030591       ?OnDestroy@CWnd@@IAEXXZ    10031591 f   mfc140:mfc140.dll
 0001:00030597       ?Create@CEdit@@QAEHKABUtagRECT@@PAVCWnd@@I@Z 10031597 f   mfc140:mfc140.dll
 0001:0003059d       ?GetRuntimeClass@CListCtrl@@UBEPAUCRuntimeClass@@XZ 1003159d f   mfc140:mfc140.dll
 0001:000305a3       ?GetItemRect@CListCtrl@@QBEHHPAUtagRECT@@I@Z 100315a3 f   mfc140:mfc140.dll
 0001:000305a9       ?SetItemState@CListCtrl@@QAEHHII@Z 100315a9 f   mfc140:mfc140.dll
 0001:000305af       ?GetItemText@CListCtrl@@QBE?AV?$CStringT@DV?$StrTraitMFC_DLL@DV?$ChTraitsCRT@D@ATL@@@@@ATL@@HH@Z 100315af f   mfc140:mfc140.dll
 0001:000305b5       ?SetItemText@CListCtrl@@QAEHHHPBD@Z 100315b5 f   mfc140:mfc140.dll
 0001:000305bb       ?GetHeaderCtrl@CListCtrl@@QBEPAVCHeaderCtrl@@XZ 100315bb f   mfc140:mfc140.dll
 0001:000305c1       ?GetSubItemRect@CListCtrl@@QBEHHHHAAVCRect@@@Z 100315c1 f   mfc140:mfc140.dll
 0001:000305c7       ?DrawItem@CListCtrl@@UAEXPAUtagDRAWITEMSTRUCT@@@Z 100315c7 f   mfc140:mfc140.dll
 0001:000305cd       ?InsertItem@CListCtrl@@QAEHIHPBDIIHJ@Z 100315cd f   mfc140:mfc140.dll
 0001:000305d3       ??1CListCtrl@@UAE@XZ       100315d3 f   mfc140:mfc140.dll
 0001:000305d9       ?OnChildNotify@CListCtrl@@MAEHIIJPAJ@Z 100315d9 f   mfc140:mfc140.dll
 0001:000305df       ?GetThisMessageMap@CListCtrl@@KGPBUAFX_MSGMAP@@XZ 100315df f   mfc140:mfc140.dll
 0001:000305e5       ?GetMessageMap@CListCtrl@@MBEPBUAFX_MSGMAP@@XZ 100315e5 f   mfc140:mfc140.dll
 0001:000305eb       ??_V@YAXPAX@Z              100315eb f   mfc140:mfc140.dll
 0001:000305f1       ?AfxThrowArchiveException@@YGXHPBD@Z 100315f1 f   mfc140:mfc140.dll
 0001:000305f7       ?GetRuntimeClass@CObject@@UBEPAUCRuntimeClass@@XZ 100315f7 f   mfc140:mfc140.dll
 0001:000305fd       ?Read@CArchive@@QAEIPAXI@Z 100315fd f   mfc140:mfc140.dll
 0001:00030603       ?Write@CArchive@@QAEXPBXI@Z 10031603 f   mfc140:mfc140.dll
 0001:00030609       ?ReadCount@CArchive@@QAEKXZ 10031609 f   mfc140:mfc140.dll
 0001:0003060f       ?WriteCount@CArchive@@QAEXK@Z 1003160f f   mfc140:mfc140.dll
 0001:00030615       ?ModifyStyle@CWnd@@QAEHKKI@Z 10031615 f   mfc140:mfc140.dll
 0001:0003061b       ?SetWindowPos@CWnd@@QAEHPBV1@HHHHI@Z 1003161b f   mfc140:mfc140.dll
 0001:00030621       ?ClientToScreen@CWnd@@QBEXPAUtagRECT@@@Z 10031621 f   mfc140:mfc140.dll
 0001:00030627       ?ShowWindow@CWnd@@QAEHH@Z  10031627 f   mfc140:mfc140.dll
 0001:0003062d       ?GetRuntimeClass@CTabCtrl@@UBEPAUCRuntimeClass@@XZ 1003162d f   mfc140:mfc140.dll
 0001:00030633       ?Create@CTabCtrl@@UAEHKABUtagRECT@@PAVCWnd@@I@Z 10031633 f   mfc140:mfc140.dll
 0001:00030639       ?CreateEx@CTabCtrl@@UAEHKKABUtagRECT@@PAVCWnd@@I@Z 10031639 f   mfc140:mfc140.dll
 0001:0003063f       ?DrawItem@CTabCtrl@@UAEXPAUtagDRAWITEMSTRUCT@@@Z 1003163f f   mfc140:mfc140.dll
 0001:00030645       ??1CTabCtrl@@UAE@XZ        10031645 f   mfc140:mfc140.dll
 0001:0003064b       ?OnChildNotify@CTabCtrl@@MAEHIIJPAJ@Z 1003164b f   mfc140:mfc140.dll
 0001:00030651       ?GetThisMessageMap@CTabCtrl@@KGPBUAFX_MSGMAP@@XZ 10031651 f   mfc140:mfc140.dll
 0001:00030657       ?GetMessageMap@CTabCtrl@@MBEPBUAFX_MSGMAP@@XZ 10031657 f   mfc140:mfc140.dll
 0001:0003065d       ?Insert@?$CStringT@DV?$StrTraitMFC_DLL@DV?$ChTraitsCRT@D@ATL@@@@@ATL@@QAEHHD@Z 1003165d f   mfc140:mfc140.dll
 0001:00030663       ?Insert@?$CStringT@DV?$StrTraitMFC_DLL@DV?$ChTraitsCRT@D@ATL@@@@@ATL@@QAEHHPBD@Z 10031663 f   mfc140:mfc140.dll
 0001:00030669       ?Find@?$CStringT@DV?$StrTraitMFC_DLL@DV?$ChTraitsCRT@D@ATL@@@@@ATL@@QBEHDH@Z 10031669 f   mfc140:mfc140.dll
 0001:0003066f       ?Mid@?$CStringT@DV?$StrTraitMFC_DLL@DV?$ChTraitsCRT@D@ATL@@@@@ATL@@QBE?AV12@H@Z 1003166f f   mfc140:mfc140.dll
 0001:00030675       ??0CStringArray@@QAE@XZ    10031675 f   mfc140:mfc140.dll
 0001:0003067b       ?SetSize@CStringArray@@QAEXHH@Z 1003167b f   mfc140:mfc140.dll
 0001:00030681       ?SetAtGrow@CStringArray@@QAEXHABV?$CStringT@DV?$StrTraitMFC_DLL@DV?$ChTraitsCRT@D@ATL@@@@@ATL@@@Z 10031681 f   mfc140:mfc140.dll
 0001:00030687       ??1CStringArray@@UAE@XZ    10031687 f   mfc140:mfc140.dll
 0001:0003068d       ?AfxGetModuleState@@YGPAVAFX_MODULE_STATE@@XZ 1003168d f   mfc140:mfc140.dll
 0001:00030693       ?GetRuntimeClass@CBrush@@UBEPAUCRuntimeClass@@XZ 10031693 f   mfc140:mfc140.dll
 0001:00030699       ?EnableAutomation@CCmdTarget@@QAEXXZ 10031699 f   mfc140:mfc140.dll
 0001:0003069f       ?CenterWindow@CWnd@@QAEXPAV1@@Z 1003169f f   mfc140:mfc140.dll
 0001:000306a5       ?OnCtlColor@CWnd@@IAEPAUHBRUSH__@@PAVCDC@@PAV1@I@Z 100316a5 f   mfc140:mfc140.dll
 0001:000306ab       ?GetRuntimeClass@CDialog@@UBEPAUCRuntimeClass@@XZ 100316ab f   mfc140:mfc140.dll
 0001:000306b1       ?Create@CDialog@@UAEHPBDPAVCWnd@@@Z 100316b1 f   mfc140:mfc140.dll
 0001:000306b7       ?CreateIndirect@CDialog@@UAEHPBUDLGTEMPLATE@@PAVCWnd@@PAX@Z 100316b7 f   mfc140:mfc140.dll
 0001:000306bd       ?CreateIndirect@CDialog@@UAEHPAXPAVCWnd@@@Z 100316bd f   mfc140:mfc140.dll
 0001:000306c3       ??0CDialog@@QAE@IPAVCWnd@@@Z 100316c3 f   mfc140:mfc140.dll
 0001:000306c9       ?DoModal@CDialog@@UAEHXZ   100316c9 f   mfc140:mfc140.dll
 0001:000306cf       ?OnInitDialog@CDialog@@UAEHXZ 100316cf f   mfc140:mfc140.dll
 0001:000306d5       ?OnSetFont@CDialog@@UAEXPAVCFont@@@Z 100316d5 f   mfc140:mfc140.dll
 0001:000306db       ?OnOK@CDialog@@MAEXXZ      100316db f   mfc140:mfc140.dll
 0001:000306e1       ?OnCancel@CDialog@@MAEXXZ  100316e1 f   mfc140:mfc140.dll
 0001:000306e7       ??1CDialog@@UAE@XZ         100316e7 f   mfc140:mfc140.dll
 0001:000306ed       ?PreTranslateMessage@CDialog@@UAEHPAUtagMSG@@@Z 100316ed f   mfc140:mfc140.dll
 0001:000306f3       ?OnCmdMsg@CDialog@@UAEHIHPAXPAUAFX_CMDHANDLERINFO@@@Z 100316f3 f   mfc140:mfc140.dll
 0001:000306f9       ?CheckAutoCenter@CDialog@@UAEHXZ 100316f9 f   mfc140:mfc140.dll
 0001:000306ff       ?SetOccDialogInfo@CDialog@@MAEHPAU_AFX_OCC_DIALOG_INFO@@@Z 100316ff f   mfc140:mfc140.dll
 0001:00030705       ?GetOccDialogInfo@CDialog@@MAEPAU_AFX_OCC_DIALOG_INFO@@XZ 10031705 f   mfc140:mfc140.dll
 0001:0003070b       ?PreInitDialog@CDialog@@MAEXXZ 1003170b f   mfc140:mfc140.dll
 0001:00030711       ?GetThisMessageMap@CDialog@@KGPBUAFX_MSGMAP@@XZ 10031711 f   mfc140:mfc140.dll
 0001:00030717       ?GetMessageMap@CDialog@@MBEPBUAFX_MSGMAP@@XZ 10031717 f   mfc140:mfc140.dll
 0001:0003071d       ?AfxEnableControlContainer@@YAXPAVCOccManager@@@Z 1003171d f   mfc140:mfc140.dll
 0001:00030723       ??A?$CSimpleStringT@D$00@ATL@@QBEDH@Z 10031723 f   mfc140:mfc140.dll
 0001:00030729       ?Empty@?$CSimpleStringT@D$00@ATL@@QAEXXZ 10031729 f   mfc140:mfc140.dll
 0001:0003072f       ??Y?$CStringT@DV?$StrTraitMFC_DLL@DV?$ChTraitsCRT@D@ATL@@@@@ATL@@QAEAAV01@ABV?$CSimpleStringT@D$00@1@@Z 1003172f f   mfc140:mfc140.dll
 0001:00030735       ??Y?$CStringT@DV?$StrTraitMFC_DLL@DV?$ChTraitsCRT@D@ATL@@@@@ATL@@QAEAAV01@D@Z 10031735 f   mfc140:mfc140.dll
 0001:0003073b       ?Delete@?$CStringT@DV?$StrTraitMFC_DLL@DV?$ChTraitsCRT@D@ATL@@@@@ATL@@QAEHHH@Z 1003173b f   mfc140:mfc140.dll
 0001:00030741       ?Find@?$CStringT@DV?$StrTraitMFC_DLL@DV?$ChTraitsCRT@D@ATL@@@@@ATL@@QBEHPBDH@Z 10031741 f   mfc140:mfc140.dll
 0001:00030747       ?MakeReverse@?$CStringT@DV?$StrTraitMFC_DLL@DV?$ChTraitsCRT@D@ATL@@@@@ATL@@QAEAAV12@XZ 10031747 f   mfc140:mfc140.dll
 0001:0003074d       ?TrimRight@?$CStringT@DV?$StrTraitMFC_DLL@DV?$ChTraitsCRT@D@ATL@@@@@ATL@@QAEAAV12@XZ 1003174d f   mfc140:mfc140.dll
 0001:00030753       ?TrimLeft@?$CStringT@DV?$StrTraitMFC_DLL@DV?$ChTraitsCRT@D@ATL@@@@@ATL@@QAEAAV12@XZ 10031753 f   mfc140:mfc140.dll
 0001:00030759       ?Mid@?$CStringT@DV?$StrTraitMFC_DLL@DV?$ChTraitsCRT@D@ATL@@@@@ATL@@QBE?AV12@HH@Z 10031759 f   mfc140:mfc140.dll
 0001:0003075f       ?DDX_Control@@YGXPAVCDataExchange@@HAAVCWnd@@@Z 1003175f f   mfc140:mfc140.dll
 0001:00030765       ?GetThisClass@CDialog@@SGPAUCRuntimeClass@@XZ 10031765 f   mfc140:mfc140.dll
 0001:0003076b       ?GetThisClass@CObject@@SGPAUCRuntimeClass@@XZ 1003176b f   mfc140:mfc140.dll
 0001:00030771       ?AfxTryCleanup@@YGXXZ      10031771 f   mfc140:mfc140.dll
 0001:00030777       ??0AFX_EXCEPTION_LINK@@QAE@XZ 10031777 f   mfc140:mfc140.dll
 0001:0003077d       ??0CBrush@@QAE@K@Z         1003177d f   mfc140:mfc140.dll
 0001:00030783       ?CreateObject@CRuntimeClass@@QAEPAVCObject@@XZ 10031783 f   mfc140:mfc140.dll
 0001:00030789       ?IsDerivedFrom@CRuntimeClass@@QBEHPBU1@@Z 10031789 f   mfc140:mfc140.dll
 0001:0003078f       ?IsKindOf@CObject@@QBEHPBUCRuntimeClass@@@Z 1003178f f   mfc140:mfc140.dll
 0001:00030795       ??0CException@@QAE@XZ      10031795 f   mfc140:mfc140.dll
 0001:0003079b       ?GetErrorMessage@CException@@UAEHPADIPAI@Z 1003179b f   mfc140:mfc140.dll
 0001:000307a1       ?ReportError@CException@@UAEHII@Z 100317a1 f   mfc140:mfc140.dll
 0001:000307a7       ?LockBuffer@?$CSimpleStringT@D$00@ATL@@QAEPADXZ 100317a7 f   mfc140:mfc140.dll
 0001:000307ad       ?UnlockBuffer@?$CSimpleStringT@D$00@ATL@@QAEXXZ 100317ad f   mfc140:mfc140.dll
 0001:000307b3       ??0?$CStringT@DV?$StrTraitMFC_DLL@DV?$ChTraitsCRT@D@ATL@@@@@ATL@@QAE@DH@Z 100317b3 f   mfc140:mfc140.dll
 0001:000307b9       ??Y?$CStringT@DV?$StrTraitMFC_DLL@DV?$ChTraitsCRT@D@ATL@@@@@ATL@@QAEAAV01@PBD@Z 100317b9 f   mfc140:mfc140.dll
 0001:000307bf       ?FindOneOf@?$CStringT@DV?$StrTraitMFC_DLL@DV?$ChTraitsCRT@D@ATL@@@@@ATL@@QBEHPBD@Z 100317bf f   mfc140:mfc140.dll
 0001:000307c5       ?FormatV@?$CStringT@DV?$StrTraitMFC_DLL@DV?$ChTraitsCRT@D@ATL@@@@@ATL@@QAEXPBDPAD@Z 100317c5 f   mfc140:mfc140.dll
 0001:000307cb       ?LoadStringA@?$CStringT@DV?$StrTraitMFC_DLL@DV?$ChTraitsCRT@D@ATL@@@@@ATL@@QAEHI@Z 100317cb f   mfc140:mfc140.dll
 0001:000307d1       ?GetRuntimeClass@CFileException@@UBEPAUCRuntimeClass@@XZ 100317d1 f   mfc140:mfc140.dll
 0001:000307d7       ?GetErrorMessage@CFileException@@UBEHPADIPAI@Z 100317d7 f   mfc140:mfc140.dll
 0001:000307dd       ??0CStdioFile@@QAE@XZ      100317dd f   mfc140:mfc140.dll
 0001:000307e3       ?WriteString@CStdioFile@@UAEXPBD@Z 100317e3 f   mfc140:mfc140.dll
 0001:000307e9       ?ReadString@CStdioFile@@UAEPADPADI@Z 100317e9 f   mfc140:mfc140.dll
 0001:000307ef       ??1CStdioFile@@UAE@XZ      100317ef f   mfc140:mfc140.dll
 0001:000307f5       ?Open@CStdioFile@@UAEHPBDIPAVCFileException@@@Z 100317f5 f   mfc140:mfc140.dll
 0001:000307fb       ?Close@CStdioFile@@UAEXXZ  100317fb f   mfc140:mfc140.dll
 0001:00030801       ??0CMemFile@@QAE@PAEII@Z   10031801 f   mfc140:mfc140.dll
 0001:00030807       ??1CMemFile@@UAE@XZ        10031807 f   mfc140:mfc140.dll
 0001:0003080d       ?Read@CMemFile@@UAEIPAXI@Z 1003180d f   mfc140:mfc140.dll
 0001:00030813       ?Write@CMemFile@@UAEXPBXI@Z 10031813 f   mfc140:mfc140.dll
 0001:00030819       ?GetLength@CMemFile@@UBE_KXZ 10031819 f   mfc140:mfc140.dll
 0001:0003081f       ??0CUIntArray@@QAE@XZ      1003181f f   mfc140:mfc140.dll
 0001:00030825       ?SetSize@CUIntArray@@QAEXHH@Z 10031825 f   mfc140:mfc140.dll
 0001:0003082b       ?SetAtGrow@CUIntArray@@QAEXHI@Z 1003182b f   mfc140:mfc140.dll
 0001:00030831       ?InsertAt@CUIntArray@@QAEXHIH@Z 10031831 f   mfc140:mfc140.dll
 0001:00030837       ?RemoveAt@CUIntArray@@QAEXHH@Z 10031837 f   mfc140:mfc140.dll
 0001:0003083d       ??1CUIntArray@@UAE@XZ      1003183d f   mfc140:mfc140.dll
 0001:00030843       ?GetRuntimeClass@CObArray@@UBEPAUCRuntimeClass@@XZ 10031843 f   mfc140:mfc140.dll
 0001:00030849       ??0CObArray@@QAE@XZ        10031849 f   mfc140:mfc140.dll
 0001:0003084f       ?SetSize@CObArray@@QAEXHH@Z 1003184f f   mfc140:mfc140.dll
 0001:00030855       ?SetAtGrow@CObArray@@QAEXHPAVCObject@@@Z 10031855 f   mfc140:mfc140.dll
 0001:0003085b       ?InsertAt@CObArray@@QAEXHPAVCObject@@H@Z 1003185b f   mfc140:mfc140.dll
 0001:00030861       ?RemoveAt@CObArray@@QAEXHH@Z 10031861 f   mfc140:mfc140.dll
 0001:00030867       ??1CObArray@@UAE@XZ        10031867 f   mfc140:mfc140.dll
 0001:0003086d       ?Serialize@CObArray@@UAEXAAVCArchive@@@Z 1003186d f   mfc140:mfc140.dll
 0001:00030873       ?AfxGetThreadState@@YGPAV_AFX_THREAD_STATE@@XZ 10031873 f   mfc140:mfc140.dll
 0001:00030879       ?Create@CPlex@@SGPAU1@AAPAU1@II@Z 10031879 f   mfc140:mfc140.dll
 0001:0003087f       ?FreeDataChain@CPlex@@QAEXXZ 1003187f f   mfc140:mfc140.dll
 0001:00030885       ?AfxThrowResourceException@@YGXXZ 10031885 f   mfc140:mfc140.dll
 0001:0003088b       ?Detach@CDC@@QAEPAUHDC__@@XZ 1003188b f   mfc140:mfc140.dll
 0001:00030891       ?OffsetWindowOrg@CDC@@QAE?AVCPoint@@HH@Z 10031891 f   mfc140:mfc140.dll
 0001:00030897       ?BeginWaitCursor@CCmdTarget@@QAEXXZ 10031897 f   mfc140:mfc140.dll
 0001:0003089d       ?EndWaitCursor@CCmdTarget@@QAEXXZ 1003189d f   mfc140:mfc140.dll
 0001:000308a3       ?ModifyStyleEx@CWnd@@QAEHKKI@Z 100318a3 f   mfc140:mfc140.dll
 0001:000308a9       ?MoveWindow@CWnd@@QAEXHHHHH@Z 100318a9 f   mfc140:mfc140.dll
 0001:000308af       ?ScreenToClient@CWnd@@QBEXPAUtagRECT@@@Z 100318af f   mfc140:mfc140.dll
 0001:000308b5       ?EnableScrollBarCtrl@CWnd@@QAEXHH@Z 100318b5 f   mfc140:mfc140.dll
 0001:000308bb       ?SetScrollInfo@CWnd@@QAEHHPAUtagSCROLLINFO@@H@Z 100318bb f   mfc140:mfc140.dll
 0001:000308c1       ?GetScrollInfo@CWnd@@QAEHHPAUtagSCROLLINFO@@I@Z 100318c1 f   mfc140:mfc140.dll
 0001:000308c7       ?OnSettingChange@CWnd@@IAEXIPBD@Z 100318c7 f   mfc140:mfc140.dll
 0001:000308cd       ?AfxRegisterClass@@YGHPAUtagWNDCLASSA@@@Z 100318cd f   mfc140:mfc140.dll
 0001:000308d3       ?GetThisClass@CEdit@@SGPAUCRuntimeClass@@XZ 100318d3 f   mfc140:mfc140.dll
 0001:000308d9       ?GetRuntimeClass@CCommonDialog@@UBEPAUCRuntimeClass@@XZ 100318d9 f   mfc140:mfc140.dll
 0001:000308df       ?OnOK@CCommonDialog@@MAEXXZ 100318df f   mfc140:mfc140.dll
 0001:000308e5       ?OnCancel@CCommonDialog@@MAEXXZ 100318e5 f   mfc140:mfc140.dll
 0001:000308eb       ?GetMessageMap@CCommonDialog@@MBEPBUAFX_MSGMAP@@XZ 100318eb f   mfc140:mfc140.dll
 0001:000308f1       ??0CPrintDialog@@QAE@HKPAVCWnd@@@Z 100318f1 f   mfc140:mfc140.dll
 0001:000308f7       ?DoModal@CPrintDialog@@UAEHXZ 100318f7 f   mfc140:mfc140.dll
 0001:000308fd       ??0CPrintInfo@@QAE@XZ      100318fd f   mfc140:mfc140.dll
 0001:00030903       ??1CPrintInfo@@QAE@XZ      10031903 f   mfc140:mfc140.dll
 0001:00030909       ?AfxOleInit@@YGHXZ         10031909 f   mfc140:mfc140.dll
 0001:0003090f       ??0COleDataObject@@QAE@XZ  1003190f f   mfc140:mfc140.dll
 0001:00030915       ?Release@COleDataObject@@QAEXXZ 10031915 f   mfc140:mfc140.dll
 0001:0003091b       ?AttachClipboard@COleDataObject@@QAEHXZ 1003191b f   mfc140:mfc140.dll
 0001:00030921       ?GetGlobalData@COleDataObject@@QAEPAXGPAUtagFORMATETC@@@Z 10031921 f   mfc140:mfc140.dll
 0001:00030927       ?IsDataAvailable@COleDataObject@@QAEHGPAUtagFORMATETC@@@Z 10031927 f   mfc140:mfc140.dll
 0001:0003092d       ??0COleDataSource@@QAE@XZ  1003192d f   mfc140:mfc140.dll
 0001:00030933       ?CacheGlobalData@COleDataSource@@QAEXGPAXPAUtagFORMATETC@@@Z 10031933 f   mfc140:mfc140.dll
 0001:00030939       ?DoDragDrop@COleDataSource@@QAEKKPBUtagRECT@@PAVCOleDropSource@@@Z 10031939 f   mfc140:mfc140.dll
 0001:0003093f       ?SetClipboard@COleDataSource@@QAEXXZ 1003193f f   mfc140:mfc140.dll
 0001:00030945       ?FlushClipboard@COleDataSource@@SGXXZ 10031945 f   mfc140:mfc140.dll
 0001:0003094b       ?GetClipboardOwner@COleDataSource@@SGPAV1@XZ 1003194b f   mfc140:mfc140.dll
 0001:00030951       ??0CSharedFile@@QAE@II@Z   10031951 f   mfc140:mfc140.dll
 0001:00030957       ?Detach@CSharedFile@@QAEPAXXZ 10031957 f   mfc140:mfc140.dll
 0001:0003095d       ??1CSharedFile@@UAE@XZ     1003195d f   mfc140:mfc140.dll
 0001:00030963       ?GetRuntimeClass@CCmdTarget@@UBEPAUCRuntimeClass@@XZ 10031963 f   mfc140:mfc140.dll
 0001:00030969       ?OnFinalRelease@CCmdTarget@@UAEXXZ 10031969 f   mfc140:mfc140.dll
 0001:0003096f       ?GetThisMessageMap@CCmdTarget@@KGPBUAFX_MSGMAP@@XZ 1003196f f   mfc140:mfc140.dll
 0001:00030975       ??0COleDropTarget@@QAE@XZ  10031975 f   mfc140:mfc140.dll
 0001:0003097b       ?Register@COleDropTarget@@QAEHPAVCWnd@@@Z 1003197b f   mfc140:mfc140.dll
 0001:00030981       ?Revoke@COleDropTarget@@UAEXXZ 10031981 f   mfc140:mfc140.dll
 0001:00030987       ?OnDropEx@COleDropTarget@@UAEKPAVCWnd@@PAVCOleDataObject@@KKVCPoint@@@Z 10031987 f   mfc140:mfc140.dll
 0001:0003098d       ??1COleDropTarget@@UAE@XZ  1003198d f   mfc140:mfc140.dll
 0001:00030993       ?GetInterfaceMap@COleDropTarget@@MBEPBUAFX_INTERFACEMAP@@XZ 10031993 f   mfc140:mfc140.dll
 0001:00030999       ??0CWindowDC@@QAE@PAVCWnd@@@Z 10031999 f   mfc140:mfc140.dll
 0001:0003099f       ??1CWindowDC@@UAE@XZ       1003199f f   mfc140:mfc140.dll
 0001:000309a5       ?SelectObject@CDC@@QAEPAVCBrush@@PAV2@@Z 100319a5 f   mfc140:mfc140.dll
 0001:000309ab       ?GetRuntimeClass@CWnd@@UBEPAUCRuntimeClass@@XZ 100319ab f   mfc140:mfc140.dll
 0001:000309b1       ?AfxInitRichEdit@@YGHXZ    100319b1 f   mfc140:mfc140.dll
 0001:000309b7       ??0CDynLinkLibrary@@QAE@AAUAFX_EXTENSION_MODULE@@H@Z 100319b7 f   mfc140:mfc140.dll
 0001:000309bd       ?AfxInitExtensionModule@@YGHAAUAFX_EXTENSION_MODULE@@PAUHINSTANCE__@@@Z 100319bd f   mfc140:mfc140.dll
 0001:000309c3       ?AfxTermExtensionModule@@YGXAAUAFX_EXTENSION_MODULE@@H@Z 100319c3 f   mfc140:mfc140.dll
 0001:000309c9       ?GetThisEventSinkMap@CCmdTarget@@KGPBUAFX_EVENTSINKMAP@@XZ 100319c9 f   mfc140:mfc140.dll
 0001:000309cf       ?GetRuntimeClass@CButton@@UBEPAUCRuntimeClass@@XZ 100319cf f   mfc140:mfc140.dll
 0001:000309d5       ?Create@CButton@@UAEHPBDKABUtagRECT@@PAVCWnd@@I@Z 100319d5 f   mfc140:mfc140.dll
 0001:000309db       ?DrawItem@CButton@@UAEXPAUtagDRAWITEMSTRUCT@@@Z 100319db f   mfc140:mfc140.dll
 0001:000309e1       ??1CButton@@UAE@XZ         100319e1 f   mfc140:mfc140.dll
 0001:000309e7       ?OnChildNotify@CButton@@MAEHIIJPAJ@Z 100319e7 f   mfc140:mfc140.dll
 0001:000309ed       ?Remove@?$CStringT@DV?$StrTraitMFC_DLL@DV?$ChTraitsCRT@D@ATL@@@@@ATL@@QAEHD@Z 100319ed f   mfc140:mfc140.dll
 0001:000309f3       ?EnableWindow@CWnd@@QAEHH@Z 100319f3 f   mfc140:mfc140.dll
 0001:000309f9       ?CheckRadioButton@CWnd@@QAEXHHH@Z 100319f9 f   mfc140:mfc140.dll
 0001:000309ff       ?Replace@?$CStringT@DV?$StrTraitMFC_DLL@DV?$ChTraitsCRT@D@ATL@@@@@ATL@@QAEHPBD0@Z 100319ff f   mfc140:mfc140.dll
 0001:00030a05       ??0CFile@@QAE@XZ           10031a05 f   mfc140:mfc140.dll
 0001:00030a0b       ?Open@CFile@@UAEHPBDIPAVCFileException@@@Z 10031a0b f   mfc140:mfc140.dll
 0001:00030a11       ?Read@CFile@@UAEIPAXI@Z    10031a11 f   mfc140:mfc140.dll
 0001:00030a17       ?Close@CFile@@UAEXXZ       10031a17 f   mfc140:mfc140.dll
 0001:00030a1d       ??1CFile@@UAE@XZ           10031a1d f   mfc140:mfc140.dll
 0001:00030a23       ?ReadString@CStdioFile@@UAEHAAV?$CStringT@DV?$StrTraitMFC_DLL@DV?$ChTraitsCRT@D@ATL@@@@@ATL@@@Z 10031a23 f   mfc140:mfc140.dll
 0001:00030a29       ?GetRuntimeClass@CStatic@@UBEPAUCRuntimeClass@@XZ 10031a29 f   mfc140:mfc140.dll
 0001:00030a2f       ?Create@CStatic@@UAEHPBDKABUtagRECT@@PAVCWnd@@I@Z 10031a2f f   mfc140:mfc140.dll
 0001:00030a35       ?DrawItem@CStatic@@UAEXPAUtagDRAWITEMSTRUCT@@@Z 10031a35 f   mfc140:mfc140.dll
 0001:00030a3b       ??1CStatic@@UAE@XZ         10031a3b f   mfc140:mfc140.dll
 0001:00030a41       ?OnChildNotify@CStatic@@MAEHIIJPAJ@Z 10031a41 f   mfc140:mfc140.dll
 0001:00030a47       ??4COleVariant@@QAEABV0@QBD@Z 10031a47 f   mfc140:mfc140.dll
 0001:00030a4d       ?AfxVariantInit@@YGXPAUtagVARIANT@@@Z 10031a4d f   mfc140:mfc140.dll
 0001:00030a53       ?DDX_Text@@YGXPAVCDataExchange@@HAAH@Z 10031a53 f   mfc140:mfc140.dll
 0001:00030a59       ?DDV_MinMaxInt@@YGXPAVCDataExchange@@HHH@Z 10031a59 f   mfc140:mfc140.dll
 0001:00030a5f       ?SetDlgItemTextA@CWnd@@QAEXHPBD@Z 10031a5f f   mfc140:mfc140.dll
 0001:00030a65       ?UpdateData@CWnd@@QAEHH@Z  10031a65 f   mfc140:mfc140.dll
 0001:00030a6b       ??0?$CStringT@DV?$StrTraitMFC_DLL@DV?$ChTraitsCRT@D@ATL@@@@@ATL@@QAE@PBE@Z 10031a6b f   mfc140:mfc140.dll
 0001:00030a71       ?MakeLower@?$CStringT@DV?$StrTraitMFC_DLL@DV?$ChTraitsCRT@D@ATL@@@@@ATL@@QAEAAV12@XZ 10031a71 f   mfc140:mfc140.dll
 0001:00030a77       ?Right@?$CStringT@DV?$StrTraitMFC_DLL@DV?$ChTraitsCRT@D@ATL@@@@@ATL@@QBE?AV12@H@Z 10031a77 f   mfc140:mfc140.dll
 0001:00030a7d       ?Write@CFile@@UAEXPBXI@Z   10031a7d f   mfc140:mfc140.dll
 0001:00030a83       ?GetThisClass@CStatic@@SGPAUCRuntimeClass@@XZ 10031a83 f   mfc140:mfc140.dll
 0001:00030a89       ?GetThisClass@CComboBox@@SGPAUCRuntimeClass@@XZ 10031a89 f   mfc140:mfc140.dll
 0001:00030a8f       ?GetRuntimeClass@CComboBox@@UBEPAUCRuntimeClass@@XZ 10031a8f f   mfc140:mfc140.dll
 0001:00030a95       ?Create@CComboBox@@UAEHKABUtagRECT@@PAVCWnd@@I@Z 10031a95 f   mfc140:mfc140.dll
 0001:00030a9b       ?DrawItem@CComboBox@@UAEXPAUtagDRAWITEMSTRUCT@@@Z 10031a9b f   mfc140:mfc140.dll
 0001:00030aa1       ?MeasureItem@CComboBox@@UAEXPAUtagMEASUREITEMSTRUCT@@@Z 10031aa1 f   mfc140:mfc140.dll
 0001:00030aa7       ?CompareItem@CComboBox@@UAEHPAUtagCOMPAREITEMSTRUCT@@@Z 10031aa7 f   mfc140:mfc140.dll
 0001:00030aad       ?DeleteItem@CComboBox@@UAEXPAUtagDELETEITEMSTRUCT@@@Z 10031aad f   mfc140:mfc140.dll
 0001:00030ab3       ??1CComboBox@@UAE@XZ       10031ab3 f   mfc140:mfc140.dll
 0001:00030ab9       ?OnChildNotify@CComboBox@@MAEHIIJPAJ@Z 10031ab9 f   mfc140:mfc140.dll
 0001:00030abf       ??0AFX_MAINTAIN_STATE2@@QAE@PAVAFX_MODULE_STATE@@@Z 10031abf f   mfc140:mfc140.dll
 0001:00030ac5       ??1AFX_MAINTAIN_STATE2@@QAE@XZ 10031ac5 f   mfc140:mfc140.dll
 0001:00030acb       ?EnableToolTips@CWnd@@QAEHH@Z 10031acb f   mfc140:mfc140.dll
 0001:00030ad1       ??0CDialog@@QAE@XZ         10031ad1 f   mfc140:mfc140.dll
 0001:00030ad7       ?AfxLoadLibrary@@YGPAUHINSTANCE__@@PBD@Z 10031ad7 f   mfc140:mfc140.dll
 0001:00030add       ?AfxFreeLibrary@@YGHPAUHINSTANCE__@@@Z 10031add f   mfc140:mfc140.dll
 0001:00030ae3       ?CompareNoCase@?$CStringT@DV?$StrTraitMFC_DLL@DV?$ChTraitsCRT@D@ATL@@@@@ATL@@QBEHPBD@Z 10031ae3 f   mfc140:mfc140.dll
 0001:00030ae9       ??ACMapPtrToPtr@@QAEAAPAXPAX@Z 10031ae9 f   mfc140:mfc140.dll
 0001:00030aef       ?RemoveKey@CMapPtrToPtr@@QAEHPAX@Z 10031aef f   mfc140:mfc140.dll
 0001:00030af5       ??2CNoTrackObject@@SGPAXI@Z 10031af5 f   mfc140:mfc140.dll
 0001:00030afb       ??3CNoTrackObject@@SGXPAX@Z 10031afb f   mfc140:mfc140.dll
 0001:00030b01       ?GetData@CThreadLocalObject@@QAEPAVCNoTrackObject@@P6GPAV2@XZ@Z 10031b01 f   mfc140:mfc140.dll
 0001:00030b07       ??0AFX_MODULE_THREAD_STATE@@QAE@XZ 10031b07 f   mfc140:mfc140.dll
 0001:00030b0d       ?AfxGetAppModuleState@@YGPAVAFX_MODULE_STATE@@XZ 10031b0d f   mfc140:mfc140.dll
 0001:00030b13       ?AfxExtractSubString@@YGHAAV?$CStringT@DV?$StrTraitMFC_DLL@DV?$ChTraitsCRT@D@ATL@@@@@ATL@@PBDHD@Z 10031b13 f   mfc140:mfc140.dll
 0001:00030b19       ?FromHandlePermanent@CWnd@@SGPAV1@PAUHWND__@@@Z 10031b19 f   mfc140:mfc140.dll
 0001:00030b1f       ?Attach@CWnd@@QAEHPAUHWND__@@@Z 10031b1f f   mfc140:mfc140.dll
 0001:00030b25       ?Detach@CWnd@@QAEPAUHWND__@@XZ 10031b25 f   mfc140:mfc140.dll
 0001:00030b2b       ?GetWindowPlacement@CWnd@@QBEHPAUtagWINDOWPLACEMENT@@@Z 10031b2b f   mfc140:mfc140.dll
 0001:00030b31       ?SetWindowPlacement@CWnd@@QAEHPBUtagWINDOWPLACEMENT@@@Z 10031b31 f   mfc140:mfc140.dll
 0001:00030b37       ?ModifyStyleEx@CWnd@@SGHPAUHWND__@@KKI@Z 10031b37 f   mfc140:mfc140.dll
 0001:00030b3d       ?GetThisClass@CButton@@SGPAUCRuntimeClass@@XZ 10031b3d f   mfc140:mfc140.dll
 0001:00030b43       ??$AtlAdd@H@ATL@@YAJPAHHH@Z 10031b43 f i mfcs140:nolib.obj
 0001:00030b69       ??$AtlAdd@I@ATL@@YAJPAIII@Z 10031b69 f i mfcs140:nolib.obj
 0001:00030b8c       ??$AtlAdd@K@ATL@@YAJPAKKK@Z 10031b8c f i mfcs140:nolib.obj
 0001:00030baf       ??$AtlAlignUp@H@ATL@@YGHHK@Z 10031baf f i mfcs140:nolib.obj
 0001:00030bc3       ??$AtlMultiply@I@ATL@@YAJPAIII@Z 10031bc3 f i mfcs140:nolib.obj
 0001:00030be5       ??$AtlMultiply@K@ATL@@YAJPAKKK@Z 10031be5 f i mfcs140:nolib.obj
 0001:00030c07       ??0?$CSimpleArray@GV?$CSimpleArrayEqualHelper@G@ATL@@@ATL@@QAE@XZ 10031c07 f i mfcs140:nolib.obj
 0001:00030c14       ??0?$CTraceCategoryEx@$00$0A@@ATL@@QAE@PBD@Z 10031c14 f i mfcs140:nolib.obj
 0001:00030c19       ??0?$CTraceCategoryEx@$01$0A@@ATL@@QAE@PBD@Z 10031c19 f i mfcs140:nolib.obj
 0001:00030c1e       ??0?$CTraceCategoryEx@$03$0A@@ATL@@QAE@PBD@Z 10031c1e f i mfcs140:nolib.obj
 0001:00030c23       ??0?$CTraceCategoryEx@$07$0A@@ATL@@QAE@PBD@Z 10031c23 f i mfcs140:nolib.obj
 0001:00030c28       ??0?$CTraceCategoryEx@$0BA@$0A@@ATL@@QAE@PBD@Z 10031c28 f i mfcs140:nolib.obj
 0001:00030c2d       ??0?$CTraceCategoryEx@$0BAA@$0A@@ATL@@QAE@PBD@Z 10031c2d f i mfcs140:nolib.obj
 0001:00030c32       ??0?$CTraceCategoryEx@$0BAAA@$0A@@ATL@@QAE@PBD@Z 10031c32 f i mfcs140:nolib.obj
 0001:00030c37       ??0?$CTraceCategoryEx@$0BAAAA@$0A@@ATL@@QAE@PBD@Z 10031c37 f i mfcs140:nolib.obj
 0001:00030c3c       ??0?$CTraceCategoryEx@$0BAAAAA@$0A@@ATL@@QAE@PBD@Z 10031c3c f i mfcs140:nolib.obj
 0001:00030c41       ??0?$CTraceCategoryEx@$0CA@$0A@@ATL@@QAE@PBD@Z 10031c41 f i mfcs140:nolib.obj
 0001:00030c46       ??0?$CTraceCategoryEx@$0CAA@$0A@@ATL@@QAE@PBD@Z 10031c46 f i mfcs140:nolib.obj
 0001:00030c4b       ??0?$CTraceCategoryEx@$0CAAA@$0A@@ATL@@QAE@PBD@Z 10031c4b f i mfcs140:nolib.obj
 0001:00030c50       ??0?$CTraceCategoryEx@$0CAAAA@$0A@@ATL@@QAE@PBD@Z 10031c50 f i mfcs140:nolib.obj
 0001:00030c55       ??0?$CTraceCategoryEx@$0CAAAAA@$0A@@ATL@@QAE@PBD@Z 10031c55 f i mfcs140:nolib.obj
 0001:00030c5a       ??0?$CTraceCategoryEx@$0EA@$0A@@ATL@@QAE@PBD@Z 10031c5a f i mfcs140:nolib.obj
 0001:00030c5f       ??0?$CTraceCategoryEx@$0EAA@$0A@@ATL@@QAE@PBD@Z 10031c5f f i mfcs140:nolib.obj
 0001:00030c64       ??0?$CTraceCategoryEx@$0EAAA@$0A@@ATL@@QAE@PBD@Z 10031c64 f i mfcs140:nolib.obj
 0001:00030c69       ??0?$CTraceCategoryEx@$0EAAAA@$0A@@ATL@@QAE@PBD@Z 10031c69 f i mfcs140:nolib.obj
 0001:00030c6e       ??0?$CTraceCategoryEx@$0EAAAAA@$0A@@ATL@@QAE@PBD@Z 10031c6e f i mfcs140:nolib.obj
 0001:00030c73       ??0?$CTraceCategoryEx@$0IA@$0A@@ATL@@QAE@PBD@Z 10031c73 f i mfcs140:nolib.obj
 0001:00030c78       ??0?$CTraceCategoryEx@$0IAA@$0A@@ATL@@QAE@PBD@Z 10031c78 f i mfcs140:nolib.obj
 0001:00030c7d       ??0?$CTraceCategoryEx@$0IAAA@$0A@@ATL@@QAE@PBD@Z 10031c7d f i mfcs140:nolib.obj
 0001:00030c82       ??0?$CTraceCategoryEx@$0IAAAA@$0A@@ATL@@QAE@PBD@Z 10031c82 f i mfcs140:nolib.obj
 0001:00030c87       ??0CAtlComModule@ATL@@QAE@XZ 10031c87 f i mfcs140:nolib.obj
 0001:00030cc6       ??0CAtlStringMgr@ATL@@QAE@PAUIAtlMemMgr@1@@Z 10031cc6 f i mfcs140:nolib.obj
 0001:00030cf2       ??0CAtlStringMgrStaticInitializer@ATLImplementationDetails@ATL@@QAE@XZ 10031cf2 f i mfcs140:nolib.obj
 0001:00030cfe       ??0CAtlWinModule@ATL@@QAE@XZ 10031cfe f i mfcs140:nolib.obj
 0001:00030d2c       ??0CComCriticalSection@ATL@@QAE@XZ 10031d2c f i mfcs140:nolib.obj
 0001:00030d40       ??0CNilStringData@ATL@@QAE@XZ 10031d40 f i mfcs140:nolib.obj
 0001:00030d57       ??0CWin32Heap@ATL@@QAE@PAX@Z 10031d57 f i mfcs140:nolib.obj
 0001:00030d70       ??0_ATL_COM_MODULE70@ATL@@QAE@XZ 10031d70 f i mfcs140:nolib.obj
 0001:00030d87       ??0_ATL_WIN_MODULE70@ATL@@QAE@XZ 10031d87 f i mfcs140:nolib.obj
 0001:00030db2       ??1?$CSimpleArray@GV?$CSimpleArrayEqualHelper@G@ATL@@@ATL@@QAE@XZ 10031db2 f i mfcs140:nolib.obj
 0001:00030db7       ??1CAtlComModule@ATL@@QAE@XZ 10031db7 f i mfcs140:nolib.obj
 0001:00030df0       ??1CAtlWinModule@ATL@@QAE@XZ 10031df0 f i mfcs140:nolib.obj
 0001:00030e08       ??1CComBSTR@ATL@@QAE@XZ    10031e08 f i mfcs140:nolib.obj
 0001:00030e11       ??1CComCriticalSection@ATL@@QAE@XZ 10031e11 f i mfcs140:nolib.obj
 0001:00030e14       ??1_ATL_COM_MODULE70@ATL@@QAE@XZ 10031e14 f i mfcs140:nolib.obj
 0001:00030e17       ??1_ATL_WIN_MODULE70@ATL@@QAE@XZ 10031e17 f i mfcs140:nolib.obj
 0001:00030e1f       ??1stringdispid@CComTypeInfoHolder@ATL@@QAE@XZ 10031e1f f i mfcs140:nolib.obj
 0001:00030e28       ??A?$CSimpleArray@GV?$CSimpleArrayEqualHelper@G@ATL@@@ATL@@QAEAAGH@Z 10031e28 f i mfcs140:nolib.obj
 0001:00030e4d       ??_Estringdispid@CComTypeInfoHolder@ATL@@QAEPAXI@Z 10031e4d f i mfcs140:nolib.obj
 0001:00030ed8       ?AddRef@CStringData@ATL@@QAEXXZ 10031ed8 f i mfcs140:nolib.obj
 0001:00030edd       ?AtlWinModuleInit@ATL@@YGJPAU_ATL_WIN_MODULE70@1@@Z 10031edd f i mfcs140:nolib.obj
 0001:00030f03       ?AtlWinModuleTerm@ATL@@YGJPAU_ATL_WIN_MODULE70@1@PAUHINSTANCE__@@@Z 10031f03 f i mfcs140:nolib.obj
 0001:00030f65       ?GetInstance@CAtlStringMgr@ATL@@SAPAUIAtlStringMgr@2@XZ 10031f65 f i mfcs140:nolib.obj
 0001:00030fcf       ?GetModuleInstance@CAtlBaseModule@ATL@@QAEPAUHINSTANCE__@@XZ 10031fcf f i mfcs140:nolib.obj
 0001:00030fd3       ?GetSize@?$CSimpleArray@GV?$CSimpleArrayEqualHelper@G@ATL@@@ATL@@QBEHXZ 10031fd3 f i mfcs140:nolib.obj
 0001:00030fd7       ?Init@CComCriticalSection@ATL@@QAEJXZ 10031fd7 f i mfcs140:nolib.obj
 0001:00030fff       ?RemoveAll@?$CSimpleArray@GV?$CSimpleArrayEqualHelper@G@ATL@@@ATL@@QAEXXZ 10031fff f i mfcs140:nolib.obj
 0001:0003101d       ?SetManager@CNilStringData@ATL@@QAEXPAUIAtlStringMgr@2@@Z 1003201d f i mfcs140:nolib.obj
 0001:00031029       ?Term@CAtlComModule@ATL@@QAEXXZ 10032029 f i mfcs140:nolib.obj
 0001:00031088       ?Term@CAtlWinModule@ATL@@QAEXXZ 10032088 f i mfcs140:nolib.obj
 0001:00031095       ?Term@CComCriticalSection@ATL@@QAEJXZ 10032095 f i mfcs140:nolib.obj
 0001:0003109f       _HRESULT_FROM_WIN32        1003209f f i mfcs140:nolib.obj
 0001:000310b3       _IsolationAwareActivateActCtx@8 100320b3 f i mfcs140:nolib.obj
 0001:000310f6       _IsolationAwareCreateActCtxW@4 100320f6 f i mfcs140:nolib.obj
 0001:0003113b       _IsolationAwareDeactivateActCtx@8 1003213b f i mfcs140:nolib.obj
 0001:0003117e       _IsolationAwareFindActCtxSectionStringW@20 1003217e f i mfcs140:nolib.obj
 0001:000311ca       _IsolationAwarePrivatenPgViNgRzlnPgpgk@4 100321ca f i mfcs140:nolib.obj
 0001:00031245       _IsolationAwarePrivatezltRgCebPnQQeRff@12 10032245 f i mfcs140:nolib.obj
 0001:00031283       _IsolationAwarePrivatezltRgzbQhYRuNaQYRJ@4 10032283 f i mfcs140:nolib.obj
 0001:0003128d       _IsolationAwarePrivatezltRgzbQhYRuNaQYRn@4 1003228d f i mfcs140:nolib.obj
 0001:00031297       _IsolationAwareQueryActCtxW@28 10032297 f i mfcs140:nolib.obj
 0001:000312e9       _IsolationAwareUnregisterClassA@8 100322e9 f i mfcs140:nolib.obj
 0001:00031393       _WinbaseIsolationAwarePrivatetRgCebPnQQeRff_xReaRYQP_QYY@4 10032393 f i mfcs140:nolib.obj
 0001:000313ac       _WinbaseIsolationAwarePrivatetRgzlnPgpgk@0 100323ac f i mfcs140:nolib.obj
 0001:00031578       ??3@YAXPAXI@Z              10032578 f   msvcrt:delete_scalar_size.obj
 0001:00031586       ?configure_argv@__scrt_narrow_argv_policy@@SAHXZ 10032586 f i msvcrt:utility.obj
 0001:000315d7       ?initialize_environment@__scrt_narrow_environment_policy@@SAHXZ 100325d7 f i msvcrt:utility.obj
 0001:00031610       _NtCurrentTeb              10032610 f i msvcrt:utility.obj
 0001:00031617       ___scrt_acquire_startup_lock 10032617 f   msvcrt:utility.obj
 0001:00031649       ___scrt_dllmain_after_initialize_c 10032649 f   msvcrt:utility.obj
 0001:00031674       ___scrt_dllmain_before_initialize_c 10032674 f   msvcrt:utility.obj
 0001:00031682       ___scrt_dllmain_crt_thread_attach 10032682 f   msvcrt:utility.obj
 0001:000316a1       ___scrt_dllmain_crt_thread_detach 100326a1 f   msvcrt:utility.obj
 0001:000316ae       ___scrt_dllmain_exception_filter 100326ae f   msvcrt:utility.obj
 0001:000316e2       ___scrt_dllmain_uninitialize_c 100326e2 f   msvcrt:utility.obj
 0001:00031705       ___scrt_dllmain_uninitialize_critical 10032705 f   msvcrt:utility.obj
 0001:00031712       ___scrt_initialize_crt     10032712 f   msvcrt:utility.obj
 0001:0003174b       ___scrt_initialize_onexit_tables 1003274b f   msvcrt:utility.obj
 0001:000317d2       ___scrt_is_nonwritable_in_current_image 100327d2 f   msvcrt:utility.obj
 0001:00031866       ___scrt_release_startup_lock 10032866 f   msvcrt:utility.obj
 0001:00031883       ___scrt_uninitialize_crt   10032883 f   msvcrt:utility.obj
 0001:000318ab       __onexit                   100328ab f   msvcrt:utility.obj
 0001:000318d8       _at_quick_exit             100328d8 f   msvcrt:utility.obj
 0001:000318fb       _atexit                    100328fb f   msvcrt:utility.obj
 0001:00031910       @__security_check_cookie@4 10032910 f   msvcrt:secchk.obj
 0001:00031920       __alloca_probe_16          10032920 f   msvcrt:alloca16.obj
 0001:00031936       __alloca_probe_8           10032936     msvcrt:alloca16.obj
 0001:0003194c       ??1type_info@@UAE@XZ       1003294c f   msvcrt:std_type_info_static.obj
 0001:00031953       ??_Etype_info@@UAEPAXI@Z   10032953 f i msvcrt:std_type_info_static.obj
 0001:00031953       ??_Gtype_info@@UAEPAXI@Z   10032953 f i msvcrt:std_type_info_static.obj
 0001:00031976       ??_L@YGXPAXIHP6EX0@Z1@Z    10032976 f   msvcrt:ehvecctr.obj
 0001:0003197b       ??_L@YGXPAXIIP6EX0@Z1@Z    1003297b f   msvcrt:ehvecctr.obj
 0001:000319ef       ??_M@YGXPAXIHP6EX0@Z@Z     100329ef f   msvcrt:ehvecdtr.obj
 0001:000319f4       ??_M@YGXPAXIIP6EX0@Z@Z     100329f4 f   msvcrt:ehvecdtr.obj
 0001:00031aa8       ?__ArrayUnwind@@YGXPAXIIP6EX0@Z@Z 10032aa8 f   msvcrt:ehvecdtr.obj
 0001:00031b38       ??_V@YAXPAXI@Z             10032b38 f   msvcrt:delete_array_size.obj
 0001:00031c0b       __Init_thread_abort        10032c0b f   msvcrt:thread_safe_statics.obj
 0001:00031c2f       __Init_thread_footer       10032c2f f   msvcrt:thread_safe_statics.obj
 0001:00031c79       __Init_thread_header       10032c79 f   msvcrt:thread_safe_statics.obj
 0001:00031ccb       __Init_thread_lock         10032ccb f   msvcrt:thread_safe_statics.obj
 0001:00031cd7       __Init_thread_notify       10032cd7 f   msvcrt:thread_safe_statics.obj
 0001:00031d0d       __Init_thread_unlock       10032d0d f   msvcrt:thread_safe_statics.obj
 0001:00031d19       __Init_thread_wait         10032d19 f   msvcrt:thread_safe_statics.obj
 0001:000320a7       __CRT_INIT@12              100330a7 f   msvcrt:dll_dllmain.obj
 0001:000320b0       __DllMainCRTStartup@12     100330b0 f   msvcrt:dll_dllmain.obj
 0001:000320d3       __EH_epilog3               100330d3 f   msvcrt:ehprolg3.obj
 0001:000320e7       __EH_epilog3_GS            100330e7 f   msvcrt:ehprolg3.obj
 0001:000320f6       __EH_epilog3_catch_GS      100330f6 f   msvcrt:ehprolg3.obj
 0001:00032105       __EH_prolog3               10033105 f   msvcrt:ehprolg3.obj
 0001:00032138       __EH_prolog3_GS            10033138 f   msvcrt:ehprolg3.obj
 0001:0003216e       __EH_prolog3_catch         1003316e f   msvcrt:ehprolg3.obj
 0001:000321a4       __EH_prolog3_catch_GS      100331a4 f   msvcrt:ehprolg3.obj
 0001:000321e0       __SEH_prolog4              100331e0 f   msvcrt:sehprolg4.obj
 0001:00032230       __SEH_epilog4              10033230 f   msvcrt:sehprolg4.obj
 0001:00032250       __SEH_prolog4_GS           10033250 f   msvcrt:sehprolg4gs.obj
 0001:000322a0       __SEH_epilog4_GS           100332a0 f   msvcrt:sehprolg4gs.obj
 0001:000322af       __except_handler4          100332af f   msvcrt:chandler4gs.obj
 0001:000322de       @_guard_check_icall_nop@4  100332de f i msvcrt:guard_support.obj
 0001:000322e1       _ReadNoFence               100332e1 f i msvcrt:guard_support.obj
 0001:000322eb       _ReadPointerNoFence        100332eb f i msvcrt:guard_support.obj
 0001:000322f5       ___castguard_check_failure_debugbreak 100332f5 f i msvcrt:guard_support.obj
 0001:00032310       ___castguard_check_failure_fastfail 10033310 f i msvcrt:guard_support.obj
 0001:0003232f       ___castguard_check_failure_nop 1003332f f i msvcrt:guard_support.obj
 0001:00032332       ___castguard_check_failure_os_handled 10033332 f i msvcrt:guard_support.obj
 0001:00032386       ___castguard_slow_path_check_debugbreak 10033386 f i msvcrt:guard_support.obj
 0001:000323b3       ___castguard_slow_path_check_fastfail 100333b3 f i msvcrt:guard_support.obj
 0001:000323e4       ___castguard_slow_path_check_nop 100333e4 f i msvcrt:guard_support.obj
 0001:000323e7       ___castguard_slow_path_check_os_handled 100333e7 f i msvcrt:guard_support.obj
 0001:0003244d       __guard_icall_checks_enforced 1003344d f i msvcrt:guard_support.obj
 0001:0003245f       ___isa_available_init      1003345f f   msvcrt:cpu_disp.obj
 0001:00032630       __get_startup_argv_mode    10033630 f   msvcrt:argv_mode.obj
 0001:00032634       ___scrt_is_ucrt_dll_in_use 10033634 f   msvcrt:ucrt_detection.obj
 0001:00032640       ___scrt_fastfail           10033640 f   msvcrt:utility_desktop.obj
 0001:0003275b       ___scrt_get_show_window_mode 1003375b f   msvcrt:utility_desktop.obj
 0001:0003278c       ___scrt_initialize_mta     1003378c f   msvcrt:utility_desktop.obj
 0001:00032791       ___scrt_initialize_winrt   10033791 f   msvcrt:utility_desktop.obj
 0001:00032794       ___scrt_is_managed_app     10033794 f   msvcrt:utility_desktop.obj
 0001:000327d7       ___scrt_set_unhandled_exception_filter 100337d7 f   msvcrt:utility_desktop.obj
 0001:000327e3       ___scrt_exe_initialize_mta 100337e3 f   msvcrt:utility_desktop.obj
 0001:000327e3       ___scrt_stub_for_initialize_mta 100337e3 f   msvcrt:utility_desktop.obj
 0001:000327e6       ___scrt_unhandled_exception_filter@4 100337e6 f   msvcrt:utility_desktop.obj
 0001:0003283c       __crt_debugger_hook        1003383c f   msvcrt:utility_desktop.obj
 0001:00032844       ___raise_securityfailure   10033844 f   msvcrt:gs_report.obj
 0001:0003286c       ___report_gsfailure        1003386c f   msvcrt:gs_report.obj
 0001:00032966       ___report_rangecheckfailure 10033966 f   msvcrt:gs_report.obj
 0001:00032972       ___report_securityfailure  10033972 f   msvcrt:gs_report.obj
 0001:00032a41       ___report_securityfailureEx 10033a41 f   msvcrt:gs_report.obj
 0001:00032b60       __chkstk                   10033b60 f   msvcrt:chkstk.obj
 0001:00032b60       __alloca_probe             10033b60 f   msvcrt:chkstk.obj
 0001:00032bd8       ___security_init_cookie    10033bd8 f   msvcrt:gs_support.obj
 0001:00032c23       ?__scrt_initialize_type_info@@YAXXZ 10033c23 f   msvcrt:tncleanup.obj
 0001:00032c2f       ?__scrt_uninitialize_type_info@@YAXXZ 10033c2f f   msvcrt:tncleanup.obj
 0001:00032c3b       ___scrt_initialize_default_local_stdio_options 10033c3b f   msvcrt:default_local_stdio_options.obj
 0001:00032c58       ___scrt_get_dyn_tls_init_callback 10033c58 f   msvcrt:dyn_tls_init.obj
 0001:00032c5e       __RTC_Initialize           10033c5e f   msvcrt:initsect.obj
 0001:00032c8a       __RTC_Terminate            10033c8a f   msvcrt:initsect.obj
 0001:00032cb6       _GetEnvironmentVariableA@12 10033cb6 f   kernel32:KERNEL32.dll
 0001:00032cbc       _SetCurrentDirectoryA@4    10033cbc f   kernel32:KERNEL32.dll
 0001:00032cc2       _GetCurrentDirectoryA@8    10033cc2 f   kernel32:KERNEL32.dll
 0001:00032cc8       _GetLongPathNameA@12       10033cc8 f   kernel32:KERNEL32.dll
 0001:00032cce       _FreeLibrary@4             10033cce f   kernel32:KERNEL32.dll
 0001:00032cd4       _GetModuleHandleA@4        10033cd4 f   kernel32:KERNEL32.dll
 0001:00032cda       _GetProcAddress@8          10033cda f   kernel32:KERNEL32.dll
 0001:00032ce0       _LoadLibraryA@4            10033ce0 f   kernel32:KERNEL32.dll
 0001:00032ce6       _GetPrivateProfileStringA@24 10033ce6 f   kernel32:KERNEL32.dll
 0001:00032cec       _MultiByteToWideChar@24    10033cec f   kernel32:KERNEL32.dll
 0001:00032cf2       _WideCharToMultiByte@32    10033cf2 f   kernel32:KERNEL32.dll
 0001:00032cf8       _lstrcpynA@12              10033cf8 f   kernel32:KERNEL32.dll
 0001:00032cfe       _GetSystemTime@4           10033cfe f   kernel32:KERNEL32.dll
 0001:00032d04       _GetVersionExA@4           10033d04 f   kernel32:KERNEL32.dll
 0001:00032d0a       _GlobalReAlloc@12          10033d0a f   kernel32:KERNEL32.dll
 0001:00032d10       _GlobalSize@4              10033d10 f   kernel32:KERNEL32.dll
 0001:00032d16       _GlobalUnlock@4            10033d16 f   kernel32:KERNEL32.dll
 0001:00032d1c       _GlobalLock@4              10033d1c f   kernel32:KERNEL32.dll
 0001:00032d22       _MulDiv@12                 10033d22 f   kernel32:KERNEL32.dll
 0001:00032d28       _GetTickCount@0            10033d28 f   kernel32:KERNEL32.dll
 0001:00032d2e       _DecodePointer@4           10033d2e f   kernel32:KERNEL32.dll
 0001:00032d34       _RaiseException@16         10033d34 f   kernel32:KERNEL32.dll
 0001:00032d3a       _GetLastError@0            10033d3a f   kernel32:KERNEL32.dll
 0001:00032d40       _HeapDestroy@4             10033d40 f   kernel32:KERNEL32.dll
 0001:00032d46       _HeapAlloc@12              10033d46 f   kernel32:KERNEL32.dll
 0001:00032d4c       _HeapReAlloc@16            10033d4c f   kernel32:KERNEL32.dll
 0001:00032d52       _HeapFree@12               10033d52 f   kernel32:KERNEL32.dll
 0001:00032d58       _HeapSize@12               10033d58 f   kernel32:KERNEL32.dll
 0001:00032d5e       _GetProcessHeap@0          10033d5e f   kernel32:KERNEL32.dll
 0001:00032d64       _InitializeCriticalSectionEx@12 10033d64 f   kernel32:KERNEL32.dll
 0001:00032d6a       _DeleteCriticalSection@4   10033d6a f   kernel32:KERNEL32.dll
 0001:00032d70       _SetFileAttributesA@8      10033d70 f   kernel32:KERNEL32.dll
 0001:00032d76       _CreateDirectoryA@8        10033d76 f   kernel32:KERNEL32.dll
 0001:00032d7c       _WinExec@8                 10033d7c f   kernel32:KERNEL32.dll
 0001:00032d82       _GetModuleFileNameA@12     10033d82 f   kernel32:KERNEL32.dll
 0001:00032d88       _OutputDebugStringA@4      10033d88 f   kernel32:KERNEL32.dll
 0001:00032d8e       _SetLastError@4            10033d8e f   kernel32:KERNEL32.dll
 0001:00032d94       _InitializeCriticalSectionAndSpinCount@8 10033d94 f   kernel32:KERNEL32.dll
 0001:00032d9a       _GetModuleFileNameW@12     10033d9a f   kernel32:KERNEL32.dll
 0001:00032da0       _GetModuleHandleW@4        10033da0 f   kernel32:KERNEL32.dll
 0001:00032da6       _LoadLibraryW@4            10033da6 f   kernel32:KERNEL32.dll
 0001:00032dac       _CloseHandle@4             10033dac f   kernel32:KERNEL32.dll
 0001:00032db2       _EnterCriticalSection@4    10033db2 f   kernel32:KERNEL32.dll
 0001:00032db8       _LeaveCriticalSection@4    10033db8 f   kernel32:KERNEL32.dll
 0001:00032dbe       _SetEvent@4                10033dbe f   kernel32:KERNEL32.dll
 0001:00032dc4       _ResetEvent@4              10033dc4 f   kernel32:KERNEL32.dll
 0001:00032dca       _WaitForSingleObjectEx@12  10033dca f   kernel32:KERNEL32.dll
 0001:00032dd0       _CreateEventW@16           10033dd0 f   kernel32:KERNEL32.dll
 0001:00032dd6       _IsProcessorFeaturePresent@4 10033dd6 f   kernel32:KERNEL32.dll
 0001:00032ddc       _IsDebuggerPresent@0       10033ddc f   kernel32:KERNEL32.dll
 0001:00032de2       _UnhandledExceptionFilter@4 10033de2 f   kernel32:KERNEL32.dll
 0001:00032de8       _SetUnhandledExceptionFilter@4 10033de8 f   kernel32:KERNEL32.dll
 0001:00032dee       _GetStartupInfoW@4         10033dee f   kernel32:KERNEL32.dll
 0001:00032df4       _GetCurrentProcess@0       10033df4 f   kernel32:KERNEL32.dll
 0001:00032dfa       _TerminateProcess@8        10033dfa f   kernel32:KERNEL32.dll
 0001:00032e00       _QueryPerformanceCounter@4 10033e00 f   kernel32:KERNEL32.dll
 0001:00032e06       _GetCurrentProcessId@0     10033e06 f   kernel32:KERNEL32.dll
 0001:00032e0c       _GetCurrentThreadId@0      10033e0c f   kernel32:KERNEL32.dll
 0001:00032e12       _GetSystemTimeAsFileTime@4 10033e12 f   kernel32:KERNEL32.dll
 0001:00032e18       _InitializeSListHead@4     10033e18 f   kernel32:KERNEL32.dll
 0001:00032e1e       _RegisterWindowMessageA@4  10033e1e f   user32:USER32.dll
 0001:00032e24       _EnableWindow@8            10033e24 f   user32:USER32.dll
 0001:00032e2a       _SendMessageA@16           10033e2a f   user32:USER32.dll
 0001:00032e30       _GetParent@4               10033e30 f   user32:USER32.dll
 0001:00032e36       _GetSystemMetrics@4        10033e36 f   user32:USER32.dll
 0001:00032e3c       _DrawTextA@20              10033e3c f   user32:USER32.dll
 0001:00032e42       _DrawTextExA@24            10033e42 f   user32:USER32.dll
 0001:00032e48       _GrayStringA@36            10033e48 f   user32:USER32.dll
 0001:00032e4e       _TabbedTextOutA@32         10033e4e f   user32:USER32.dll
 0001:00032e54       _InvalidateRect@12         10033e54 f   user32:USER32.dll
 0001:00032e5a       _GetClientRect@8           10033e5a f   user32:USER32.dll
 0001:00032e60       _GetSysColor@4             10033e60 f   user32:USER32.dll
 0001:00032e66       _InflateRect@12            10033e66 f   user32:USER32.dll
 0001:00032e6c       _DrawEdge@16               10033e6c f   user32:USER32.dll
 0001:00032e72       _IsWindow@4                10033e72 f   user32:USER32.dll
 0001:00032e78       _GetFocus@0                10033e78 f   user32:USER32.dll
 0001:00032e7e       _UpdateWindow@4            10033e7e f   user32:USER32.dll
 0001:00032e84       _ScreenToClient@8          10033e84 f   user32:USER32.dll
 0001:00032e8a       _PtInRect@12               10033e8a f   user32:USER32.dll
 0001:00032e90       _SetCapture@4              10033e90 f   user32:USER32.dll
 0001:00032e96       _SetTimer@16               10033e96 f   user32:USER32.dll
 0001:00032e9c       _KillTimer@8               10033e9c f   user32:USER32.dll
 0001:00032ea2       _GetWindowRect@8           10033ea2 f   user32:USER32.dll
 0001:00032ea8       _GetCursorPos@4            10033ea8 f   user32:USER32.dll
 0001:00032eae       _ClientToScreen@8          10033eae f   user32:USER32.dll
 0001:00032eb4       _SetRect@20                10033eb4 f   user32:USER32.dll
 0001:00032eba       _CopyRect@8                10033eba f   user32:USER32.dll
 0001:00032ec0       _OffsetRect@12             10033ec0 f   user32:USER32.dll
 0001:00032ec6       _PostMessageA@16           10033ec6 f   user32:USER32.dll
 0001:00032ecc       _GetKeyState@4             10033ecc f   user32:USER32.dll
 0001:00032ed2       _GetDC@4                   10033ed2 f   user32:USER32.dll
 0001:00032ed8       _ReleaseDC@8               10033ed8 f   user32:USER32.dll
 0001:00032ede       _SystemParametersInfoA@16  10033ede f   user32:USER32.dll
 0001:00032ee4       _SetCursor@4               10033ee4 f   user32:USER32.dll
 0001:00032eea       _FillRect@12               10033eea f   user32:USER32.dll
 0001:00032ef0       _FrameRect@12              10033ef0 f   user32:USER32.dll
 0001:00032ef6       _LoadCursorA@8             10033ef6 f   user32:USER32.dll
 0001:00032efc       _GetMessagePos@0           10033efc f   user32:USER32.dll
 0001:00032f02       _DefWindowProcA@16         10033f02 f   user32:USER32.dll
 0001:00032f08       _GetClassInfoA@12          10033f08 f   user32:USER32.dll
 0001:00032f0e       _IsClipboardFormatAvailable@4 10033f0e f   user32:USER32.dll
 0001:00032f14       _GetCapture@0              10033f14 f   user32:USER32.dll
 0001:00032f1a       _ReleaseCapture@0          10033f1a f   user32:USER32.dll
 0001:00032f20       _ClipCursor@4              10033f20 f   user32:USER32.dll
 0001:00032f26       _InvertRect@8              10033f26 f   user32:USER32.dll
 0001:00032f2c       _IntersectRect@12          10033f2c f   user32:USER32.dll
 0001:00032f32       _GetDoubleClickTime@0      10033f32 f   user32:USER32.dll
 0001:00032f38       _IsWindowVisible@4         10033f38 f   user32:USER32.dll
 0001:00032f3e       _WindowFromPoint@8         10033f3e f   user32:USER32.dll
 0001:00032f44       _IsRectEmpty@4             10033f44 f   user32:USER32.dll
 0001:00032f4a       _UnregisterClassA@8        10033f4a f   user32:USER32.dll
 0001:00032f50       _ShowScrollBar@12          10033f50 f   user32:USER32.dll
 0001:00032f56       _GetWindowLongA@8          10033f56 f   user32:USER32.dll
 0001:00032f5c       _BeginDeferWindowPos@4     10033f5c f   user32:USER32.dll
 0001:00032f62       _DeferWindowPos@32         10033f62 f   user32:USER32.dll
 0001:00032f68       _EndDeferWindowPos@4       10033f68 f   user32:USER32.dll
 0001:00032f6e       _GetCursor@0               10033f6e f   user32:USER32.dll
 0001:00032f74       _GetClassNameA@12          10033f74 f   user32:USER32.dll
 0001:00032f7a       _LoadBitmapW@8             10033f7a f   user32:USER32.dll
 0001:00032f80       _BitBlt@36                 10033f80 f   gdi32:GDI32.dll
 0001:00032f86       _CreateCompatibleBitmap@12 10033f86 f   gdi32:GDI32.dll
 0001:00032f8c       _CreateCompatibleDC@4      10033f8c f   gdi32:GDI32.dll
 0001:00032f92       _Escape@20                 10033f92 f   gdi32:GDI32.dll
 0001:00032f98       _GetBkColor@4              10033f98 f   gdi32:GDI32.dll
 0001:00032f9e       _GetCurrentObject@8        10033f9e f   gdi32:GDI32.dll
 0001:00032fa4       _GetTextExtentPoint32A@16  10033fa4 f   gdi32:GDI32.dll
 0001:00032faa       _PtVisible@12              10033faa f   gdi32:GDI32.dll
 0001:00032fb0       _RectVisible@8             10033fb0 f   gdi32:GDI32.dll
 0001:00032fb6       _GetObjectA@12             10033fb6 f   gdi32:GDI32.dll
 0001:00032fbc       _TextOutA@20               10033fbc f   gdi32:GDI32.dll
 0001:00032fc2       _ExtTextOutA@32            10033fc2 f   gdi32:GDI32.dll
 0001:00032fc8       _CreateFontIndirectA@4     10033fc8 f   gdi32:GDI32.dll
 0001:00032fce       _CreateRectRgn@16          10033fce f   gdi32:GDI32.dll
 0001:00032fd4       _DeleteObject@4            10033fd4 f   gdi32:GDI32.dll
 0001:00032fda       _SelectObject@8            10033fda f   gdi32:GDI32.dll
 0001:00032fe0       _CreateDCA@16              10033fe0 f   gdi32:GDI32.dll
 0001:00032fe6       _CreatePen@12              10033fe6 f   gdi32:GDI32.dll
 0001:00032fec       _CreateSolidBrush@4        10033fec f   gdi32:GDI32.dll
 0001:00032ff2       _GetDeviceCaps@8           10033ff2 f   gdi32:GDI32.dll
 0001:00032ff8       _CreateFontA@56            10033ff8 f   gdi32:GDI32.dll
 0001:00032ffe       _StartDocA@8               10033ffe f   gdi32:GDI32.dll
 0001:00033004       _EndDoc@4                  10034004 f   gdi32:GDI32.dll
 0001:0003300a       _StartPage@4               1003400a f   gdi32:GDI32.dll
 0001:00033010       _EndPage@4                 10034010 f   gdi32:GDI32.dll
 0001:00033016       _AbortDoc@4                10034016 f   gdi32:GDI32.dll
 0001:0003301c       _PatBlt@24                 1003401c f   gdi32:GDI32.dll
 0001:00033022       _GetTextMetricsA@8         10034022 f   gdi32:GDI32.dll
 0001:00033028       _RegCloseKey@4             10034028 f   advapi32:ADVAPI32.dll
 0001:0003302e       _RegOpenKeyExA@20          1003402e f   advapi32:ADVAPI32.dll
 0001:00033034       _RegQueryValueExA@24       10034034 f   advapi32:ADVAPI32.dll
 0001:0003303a       _RegOpenKeyA@12            1003403a f   advapi32:ADVAPI32.dll
 0001:00033040       _ImageList_SetBkColor@8    10034040 f   comctl32:COMCTL32.dll
 0001:00033046       _ImageList_GetBkColor@4    10034046 f   comctl32:COMCTL32.dll
 0001:0003304c       _ImageList_GetImageInfo@12 1003404c f   comctl32:COMCTL32.dll
 0001:00033052       _ImageList_Draw@24         10034052 f   comctl32:COMCTL32.dll
 0001:00033058       _ImageList_AddMasked@12    10034058 f   comctl32:COMCTL32.dll
 0001:0003305e       ??$?2PAUHINSTANCE__@@@Wrapper@?$CSimpleArray@PAUHINSTANCE__@@V?$CSimpleArrayEqualHelper@PAUHINSTANCE__@@@ATL@@@ATL@@SAPAXIPAPAUHINSTANCE__@@@Z 1003405e f i atls:atlbase.obj
 0001:00033066       ??0?$CComCritSecLock@VCComCriticalSection@ATL@@@ATL@@QAE@AAVCComCriticalSection@1@_N@Z 10034066 f i atls:atlbase.obj
 0001:0003308d       ??0?$CSimpleArray@PAUHINSTANCE__@@V?$CSimpleArrayEqualHelper@PAUHINSTANCE__@@@ATL@@@ATL@@QAE@XZ 1003408d f i atls:atlbase.obj
 0001:0003309a       ??0CAtlBaseModule@ATL@@QAE@XZ 1003409a f   atls:atlbase.obj
 0001:000330ed       ??0Wrapper@?$CSimpleArray@PAUHINSTANCE__@@V?$CSimpleArrayEqualHelper@PAUHINSTANCE__@@@ATL@@@ATL@@QAE@ABQAUHINSTANCE__@@@Z 100340ed f i atls:atlbase.obj
 0001:000330fd       ??0_ATL_BASE_MODULE70@ATL@@QAE@XZ 100340fd f i atls:atlbase.obj
 0001:00033120       ??1?$CComCritSecLock@VCComCriticalSection@ATL@@@ATL@@QAE@XZ 10034120 f i atls:atlbase.obj
 0001:00033137       ??1?$CSimpleArray@PAUHINSTANCE__@@V?$CSimpleArrayEqualHelper@PAUHINSTANCE__@@@ATL@@@ATL@@QAE@XZ 10034137 f i atls:atlbase.obj
 0001:0003313c       ??1CAtlBaseModule@ATL@@QAE@XZ 1003413c f   atls:atlbase.obj
 0001:00033152       ??1_ATL_BASE_MODULE70@ATL@@QAE@XZ 10034152 f i atls:atlbase.obj
 0001:0003315a       ??A?$CSimpleArray@PAUHINSTANCE__@@V?$CSimpleArrayEqualHelper@PAUHINSTANCE__@@@ATL@@@ATL@@QAEAAPAUHINSTANCE__@@H@Z 1003415a f i atls:atlbase.obj
 0001:0003317f       ?Add@?$CSimpleArray@PAUHINSTANCE__@@V?$CSimpleArrayEqualHelper@PAUHINSTANCE__@@@ATL@@@ATL@@QAEHABQAUHINSTANCE__@@@Z 1003417f f i atls:atlbase.obj
 0001:00033201       ?AddResourceInstance@CAtlBaseModule@ATL@@QAE_NPAUHINSTANCE__@@@Z 10034201 f   atls:atlbase.obj
 0001:00033234       ?AtlCrtErrorCheck@ATL@@YAHH@Z 10034234 f i atls:atlbase.obj
 0001:0003326f       ?GetHInstanceAt@CAtlBaseModule@ATL@@QAEPAUHINSTANCE__@@H@Z 1003426f f   atls:atlbase.obj
 0001:000332b4       ?GetSize@?$CSimpleArray@PAUHINSTANCE__@@V?$CSimpleArrayEqualHelper@PAUHINSTANCE__@@@ATL@@@ATL@@QBEHXZ 100342b4 f i atls:atlbase.obj
 0001:000332b8       ?InternalSetAtIndex@?$CSimpleArray@PAUHINSTANCE__@@V?$CSimpleArrayEqualHelper@PAUHINSTANCE__@@@ATL@@@ATL@@QAEXHABQAUHINSTANCE__@@@Z 100342b8 f i atls:atlbase.obj
 0001:000332d2       ?Lock@?$CComCritSecLock@VCComCriticalSection@ATL@@@ATL@@QAEJXZ 100342d2 f i atls:atlbase.obj
 0001:000332e5       ?Lock@CComCriticalSection@ATL@@QAEJXZ 100342e5 f i atls:atlbase.obj
 0001:000332ef       ?RemoveAll@?$CSimpleArray@PAUHINSTANCE__@@V?$CSimpleArrayEqualHelper@PAUHINSTANCE__@@@ATL@@@ATL@@QAEXXZ 100342ef f i atls:atlbase.obj
 0001:0003330c       ?RemoveAt@?$CSimpleArray@PAUHINSTANCE__@@V?$CSimpleArrayEqualHelper@PAUHINSTANCE__@@@ATL@@@ATL@@QAEHH@Z 1003430c f i atls:atlbase.obj
 0001:0003335a       ?RemoveResourceInstance@CAtlBaseModule@ATL@@QAE_NPAUHINSTANCE__@@@Z 1003435a f   atls:atlbase.obj
 0001:000333b7       ?Unlock@?$CComCritSecLock@VCComCriticalSection@ATL@@@ATL@@QAEXXZ 100343b7 f i atls:atlbase.obj
 0001:000333c8       ?Unlock@CComCriticalSection@ATL@@QAEJXZ 100343c8 f i atls:atlbase.obj
 0001:000333d2       ?memmove_s@Checked@ATL@@YAXPAXIPBXI@Z 100343d2 f i atls:atlbase.obj
 0001:0003346f       ??0?$CTraceCategoryEx@$00$0A@@ATL@@QAE@PB_W@Z 1003446f f i atls:stdafx.obj
 0001:00033474       ??0?$CTraceCategoryEx@$01$0A@@ATL@@QAE@PB_W@Z 10034474 f i atls:stdafx.obj
 0001:00033479       ??0?$CTraceCategoryEx@$03$0A@@ATL@@QAE@PB_W@Z 10034479 f i atls:stdafx.obj
 0001:0003347e       ??0?$CTraceCategoryEx@$07$0A@@ATL@@QAE@PB_W@Z 1003447e f i atls:stdafx.obj
 0001:00033483       ??0?$CTraceCategoryEx@$0BA@$0A@@ATL@@QAE@PB_W@Z 10034483 f i atls:stdafx.obj
 0001:00033488       ??0?$CTraceCategoryEx@$0BAA@$0A@@ATL@@QAE@PB_W@Z 10034488 f i atls:stdafx.obj
 0001:0003348d       ??0?$CTraceCategoryEx@$0BAAA@$0A@@ATL@@QAE@PB_W@Z 1003448d f i atls:stdafx.obj
 0001:00033492       ??0?$CTraceCategoryEx@$0BAAAA@$0A@@ATL@@QAE@PB_W@Z 10034492 f i atls:stdafx.obj
 0001:00033497       ??0?$CTraceCategoryEx@$0BAAAAA@$0A@@ATL@@QAE@PB_W@Z 10034497 f i atls:stdafx.obj
 0001:0003349c       ??0?$CTraceCategoryEx@$0CA@$0A@@ATL@@QAE@PB_W@Z 1003449c f i atls:stdafx.obj
 0001:000334a1       ??0?$CTraceCategoryEx@$0CAA@$0A@@ATL@@QAE@PB_W@Z 100344a1 f i atls:stdafx.obj
 0001:000334a6       ??0?$CTraceCategoryEx@$0CAAA@$0A@@ATL@@QAE@PB_W@Z 100344a6 f i atls:stdafx.obj
 0001:000334ab       ??0?$CTraceCategoryEx@$0CAAAA@$0A@@ATL@@QAE@PB_W@Z 100344ab f i atls:stdafx.obj
 0001:000334b0       ??0?$CTraceCategoryEx@$0CAAAAA@$0A@@ATL@@QAE@PB_W@Z 100344b0 f i atls:stdafx.obj
 0001:000334b5       ??0?$CTraceCategoryEx@$0EA@$0A@@ATL@@QAE@PB_W@Z 100344b5 f i atls:stdafx.obj
 0001:000334ba       ??0?$CTraceCategoryEx@$0EAA@$0A@@ATL@@QAE@PB_W@Z 100344ba f i atls:stdafx.obj
 0001:000334bf       ??0?$CTraceCategoryEx@$0EAAA@$0A@@ATL@@QAE@PB_W@Z 100344bf f i atls:stdafx.obj
 0001:000334c4       ??0?$CTraceCategoryEx@$0EAAAA@$0A@@ATL@@QAE@PB_W@Z 100344c4 f i atls:stdafx.obj
 0001:000334c9       ??0?$CTraceCategoryEx@$0EAAAAA@$0A@@ATL@@QAE@PB_W@Z 100344c9 f i atls:stdafx.obj
 0001:000334ce       ??0?$CTraceCategoryEx@$0IA@$0A@@ATL@@QAE@PB_W@Z 100344ce f i atls:stdafx.obj
 0001:000334d3       ??0?$CTraceCategoryEx@$0IAA@$0A@@ATL@@QAE@PB_W@Z 100344d3 f i atls:stdafx.obj
 0001:000334d8       ??0?$CTraceCategoryEx@$0IAAA@$0A@@ATL@@QAE@PB_W@Z 100344d8 f i atls:stdafx.obj
 0001:000334dd       ??0?$CTraceCategoryEx@$0IAAAA@$0A@@ATL@@QAE@PB_W@Z 100344dd f i atls:stdafx.obj
 0001:000334e2       ??_I@YGXPAXIIP6EX0@Z@Z     100344e2 f i atls:stdafx.obj
 0001:00033515       _StringFromCLSID@8         10034515 f   ole32:ole32.dll
 0001:0003351b       _CLSIDFromProgID@8         1003451b f   ole32:ole32.dll
 0001:00033521       _CoTaskMemFree@4           10034521 f   ole32:ole32.dll
 0001:00033527       _SystemTimeToVariantTime@8 10034527 f   oleaut32:OLEAUT32.dll
 0001:0003352d       _VariantTimeToSystemTime@12 1003452d f   oleaut32:OLEAUT32.dll
 0001:00033533       _VarUdateFromDate@16       10034533 f   oleaut32:OLEAUT32.dll
 0001:00033539       _VariantClear@4            10034539 f   oleaut32:OLEAUT32.dll
 0001:0003353f       _SysFreeString@4           1003453f f   oleaut32:OLEAUT32.dll
 0001:00033545       _strrchr                   10034545 f   vcruntime:VCRUNTIME140.dll
 0001:0003354b       ___CxxFrameHandler3        1003454b f   vcruntime:VCRUNTIME140.dll
 0001:00033551       _memset                    10034551 f   vcruntime:VCRUNTIME140.dll
 0001:00033557       ___std_terminate           10034557 f   vcruntime:VCRUNTIME140.dll
 0001:0003355d       _memcpy                    1003455d f   vcruntime:VCRUNTIME140.dll
 0001:00033563       _memmove                   10034563 f   vcruntime:VCRUNTIME140.dll
 0001:00033569       __purecall                 10034569 f   vcruntime:VCRUNTIME140.dll
 0001:0003356f       ___current_exception       1003456f f   vcruntime:VCRUNTIME140.dll
 0001:00033575       ___current_exception_context 10034575 f   vcruntime:VCRUNTIME140.dll
 0001:0003357b       __except_handler4_common   1003457b f   vcruntime:VCRUNTIME140.dll
 0001:00033581       ___std_type_info_destroy_list 10034581 f   vcruntime:VCRUNTIME140.dll
 0001:00033587       ___stdio_common_vsscanf    10034587 f   ucrt:api-ms-win-crt-stdio-l1-1-0.dll
 0001:0003358d       __invalid_parameter_noinfo 1003458d f   ucrt:api-ms-win-crt-runtime-l1-1-0.dll
 0001:00033593       __errno                    10034593 f   ucrt:api-ms-win-crt-runtime-l1-1-0.dll
 0001:00033599       _fclose                    10034599 f   ucrt:api-ms-win-crt-stdio-l1-1-0.dll
 0001:0003359f       _fopen                     1003459f f   ucrt:api-ms-win-crt-stdio-l1-1-0.dll
 0001:000335a5       ___stdio_common_vfprintf   100345a5 f   ucrt:api-ms-win-crt-stdio-l1-1-0.dll
 0001:000335ab       _atof                      100345ab f   ucrt:api-ms-win-crt-convert-l1-1-0.dll
 0001:000335b1       __mbscmp                   100345b1 f   ucrt:api-ms-win-crt-multibyte-l1-1-0.dll
 0001:000335b7       _atol                      100345b7 f   ucrt:api-ms-win-crt-convert-l1-1-0.dll
 0001:000335bd       _strtoul                   100345bd f   ucrt:api-ms-win-crt-convert-l1-1-0.dll
 0001:000335c3       __localtime64_s            100345c3 f   ucrt:api-ms-win-crt-time-l1-1-0.dll
 0001:000335c9       _strftime                  100345c9 f   ucrt:api-ms-win-crt-time-l1-1-0.dll
 0001:000335cf       __time64                   100345cf f   ucrt:api-ms-win-crt-time-l1-1-0.dll
 0001:000335d5       _free                      100345d5 f   ucrt:api-ms-win-crt-heap-l1-1-0.dll
 0001:000335db       _atoi                      100345db f   ucrt:api-ms-win-crt-convert-l1-1-0.dll
 0001:000335e1       _qsort                     100345e1 f   ucrt:api-ms-win-crt-utility-l1-1-0.dll
 0001:000335e7       _ceil                      100345e7 f   ucrt:api-ms-win-crt-math-l1-1-0.dll
 0001:000335ed       _floor                     100345ed f   ucrt:api-ms-win-crt-math-l1-1-0.dll
 0001:000335f3       ___stdio_common_vsprintf   100345f3 f   ucrt:api-ms-win-crt-stdio-l1-1-0.dll
 0001:000335f9       __mbsicmp                  100345f9 f   ucrt:api-ms-win-crt-multibyte-l1-1-0.dll
 0001:000335ff       __seh_filter_dll           100345ff f   ucrt:api-ms-win-crt-runtime-l1-1-0.dll
 0001:00033605       __configure_narrow_argv    10034605 f   ucrt:api-ms-win-crt-runtime-l1-1-0.dll
 0001:0003360b       __initialize_narrow_environment 1003460b f   ucrt:api-ms-win-crt-runtime-l1-1-0.dll
 0001:00033611       __initialize_onexit_table  10034611 f   ucrt:api-ms-win-crt-runtime-l1-1-0.dll
 0001:00033617       __register_onexit_function 10034617 f   ucrt:api-ms-win-crt-runtime-l1-1-0.dll
 0001:0003361d       __execute_onexit_table     1003461d f   ucrt:api-ms-win-crt-runtime-l1-1-0.dll
 0001:00033623       __crt_atexit               10034623 f   ucrt:api-ms-win-crt-runtime-l1-1-0.dll
 0001:00033629       __crt_at_quick_exit        10034629 f   ucrt:api-ms-win-crt-runtime-l1-1-0.dll
 0001:0003362f       __cexit                    1003462f f   ucrt:api-ms-win-crt-runtime-l1-1-0.dll
 0001:00033635       _terminate                 10034635 f   ucrt:api-ms-win-crt-runtime-l1-1-0.dll
 0001:0003363b       __initterm                 1003463b f   ucrt:api-ms-win-crt-runtime-l1-1-0.dll
 0001:00033641       __initterm_e               10034641 f   ucrt:api-ms-win-crt-runtime-l1-1-0.dll
 0001:00033647       __recalloc                 10034647 f   ucrt:api-ms-win-crt-heap-l1-1-0.dll
 0001:0003364d       _OutputDebugStringW@4      1003464d f   kernel32:KERNEL32.dll
 0001:00033653       ___vcrt_initialize         10034653 f   msvcrt:ucrt_stubs.obj
 0001:00033653       ___scrt_stub_for_acrt_initialize 10034653 f   msvcrt:ucrt_stubs.obj
 0001:00033653       ___acrt_initialize         10034653 f   msvcrt:ucrt_stubs.obj
 0001:00033656       ___scrt_stub_for_acrt_thread_attach 10034656 f   msvcrt:ucrt_stubs.obj
 0001:00033656       ___vcrt_thread_attach      10034656 f   msvcrt:ucrt_stubs.obj
 0001:00033656       ___acrt_thread_attach      10034656 f   msvcrt:ucrt_stubs.obj
 0001:00033659       ___scrt_stub_for_acrt_thread_detach 10034659 f   msvcrt:ucrt_stubs.obj
 0001:00033659       ___vcrt_thread_detach      10034659 f   msvcrt:ucrt_stubs.obj
 0001:00033659       ___acrt_thread_detach      10034659 f   msvcrt:ucrt_stubs.obj
 0001:0003365c       ___acrt_uninitialize       1003465c f   msvcrt:ucrt_stubs.obj
 0001:0003365c       ___scrt_stub_for_acrt_uninitialize 1003465c f   msvcrt:ucrt_stubs.obj
 0001:0003365c       ___vcrt_uninitialize       1003465c f   msvcrt:ucrt_stubs.obj
 0001:0003365f       ___vcrt_uninitialize_critical 1003465f f   msvcrt:ucrt_stubs.obj
 0001:0003365f       ___acrt_uninitialize_critical 1003465f f   msvcrt:ucrt_stubs.obj
 0001:0003365f       ___scrt_stub_for_acrt_uninitialize_critical 1003465f f   msvcrt:ucrt_stubs.obj
 0001:00033662       __is_c_termination_complete 10034662 f   msvcrt:ucrt_stubs.obj
 0001:00033662       ___scrt_stub_for_is_c_termination_complete 10034662 f   msvcrt:ucrt_stubs.obj
 0001:00033665       __filter_x86_sse2_floating_point_exception 10034665 f   msvcrt:x86_exception_filter.obj
 0001:00033665       __filter_x86_sse2_floating_point_exception_default 10034665 f   msvcrt:x86_exception_filter.obj
 0001:00037a00       ??__Fcell@?6??GetCell@CGridCtrl@@QBEPAVCGridCellBase@@HH@Z@YAXXZ 10038a00 f i GridCtrl.obj
 0001:00037a10       ??__Fgvdi@?6??GetCell@CGridCtrl@@QBEPAVCGridCellBase@@HH@Z@YAXXZ 10038a10 f i GridCtrl.obj
 0001:00037bc0       ??__FstrHeap@?1??GetInstance@CAtlStringMgr@ATL@@SAPAUIAtlStringMgr@2@XZ@YAXXZ 10038bc0 f i StdAfx.obj
 0001:00037bf0       ??__FstrMgr@?1??GetInstance@CAtlStringMgr@ATL@@SAPAUIAtlStringMgr@2@XZ@YAXXZ 10038bf0 f i StdAfx.obj
 0002:00000000       __imp__RegQueryValueExA@24 10039000     advapi32:ADVAPI32.dll
 0002:00000004       __imp__RegOpenKeyExA@20    10039004     advapi32:ADVAPI32.dll
 0002:00000008       __imp__RegOpenKeyA@12      10039008     advapi32:ADVAPI32.dll
 0002:0000000c       __imp__RegCloseKey@4       1003900c     advapi32:ADVAPI32.dll
 0002:00000010       \177ADVAPI32_NULL_THUNK_DATA 10039010     advapi32:ADVAPI32.dll
 0002:00000014       __imp__ImageList_GetBkColor@4 10039014     comctl32:COMCTL32.dll
 0002:00000018       __imp__ImageList_GetImageInfo@12 10039018     comctl32:COMCTL32.dll
 0002:0000001c       __imp__ImageList_Draw@24   1003901c     comctl32:COMCTL32.dll
 0002:00000020       __imp__ImageList_AddMasked@12 10039020     comctl32:COMCTL32.dll
 0002:00000024       __imp__ImageList_SetBkColor@8 10039024     comctl32:COMCTL32.dll
 0002:00000028       \177COMCTL32_NULL_THUNK_DATA 10039028     comctl32:COMCTL32.dll
 0002:0000002c       __imp__ExtTextOutA@32      1003902c     gdi32:GDI32.dll
 0002:00000030       __imp__CreateFontIndirectA@4 10039030     gdi32:GDI32.dll
 0002:00000034       __imp__CreateRectRgn@16    10039034     gdi32:GDI32.dll
 0002:00000038       __imp__DeleteObject@4      10039038     gdi32:GDI32.dll
 0002:0000003c       __imp__SelectObject@8      1003903c     gdi32:GDI32.dll
 0002:00000040       __imp__GetObjectA@12       10039040     gdi32:GDI32.dll
 0002:00000044       __imp__Escape@20           10039044     gdi32:GDI32.dll
 0002:00000048       __imp__CreateSolidBrush@4  10039048     gdi32:GDI32.dll
 0002:0000004c       __imp__GetDeviceCaps@8     1003904c     gdi32:GDI32.dll
 0002:00000050       __imp__CreateFontA@56      10039050     gdi32:GDI32.dll
 0002:00000054       __imp__StartDocA@8         10039054     gdi32:GDI32.dll
 0002:00000058       __imp__EndDoc@4            10039058     gdi32:GDI32.dll
 0002:0000005c       __imp__TextOutA@20         1003905c     gdi32:GDI32.dll
 0002:00000060       __imp__RectVisible@8       10039060     gdi32:GDI32.dll
 0002:00000064       __imp__PtVisible@12        10039064     gdi32:GDI32.dll
 0002:00000068       __imp__GetTextExtentPoint32A@16 10039068     gdi32:GDI32.dll
 0002:0000006c       __imp__GetCurrentObject@8  1003906c     gdi32:GDI32.dll
 0002:00000070       __imp__CreateDCA@16        10039070     gdi32:GDI32.dll
 0002:00000074       __imp__GetBkColor@4        10039074     gdi32:GDI32.dll
 0002:00000078       __imp__CreateCompatibleDC@4 10039078     gdi32:GDI32.dll
 0002:0000007c       __imp__BitBlt@36           1003907c     gdi32:GDI32.dll
 0002:00000080       __imp__CreateCompatibleBitmap@12 10039080     gdi32:GDI32.dll
 0002:00000084       __imp__CreatePen@12        10039084     gdi32:GDI32.dll
 0002:00000088       __imp__StartPage@4         10039088     gdi32:GDI32.dll
 0002:0000008c       __imp__GetTextMetricsA@8   1003908c     gdi32:GDI32.dll
 0002:00000090       __imp__PatBlt@24           10039090     gdi32:GDI32.dll
 0002:00000094       __imp__AbortDoc@4          10039094     gdi32:GDI32.dll
 0002:00000098       __imp__EndPage@4           10039098     gdi32:GDI32.dll
 0002:0000009c       \177GDI32_NULL_THUNK_DATA  1003909c     gdi32:GDI32.dll
 0002:000000a0       __imp__GetLastError@0      100390a0     kernel32:KERNEL32.dll
 0002:000000a4       __imp__RaiseException@16   100390a4     kernel32:KERNEL32.dll
 0002:000000a8       __imp__DecodePointer@4     100390a8     kernel32:KERNEL32.dll
 0002:000000ac       __imp__GetTickCount@0      100390ac     kernel32:KERNEL32.dll
 0002:000000b0       __imp__MulDiv@12           100390b0     kernel32:KERNEL32.dll
 0002:000000b4       __imp__GlobalLock@4        100390b4     kernel32:KERNEL32.dll
 0002:000000b8       __imp__GlobalUnlock@4      100390b8     kernel32:KERNEL32.dll
 0002:000000bc       __imp__GlobalSize@4        100390bc     kernel32:KERNEL32.dll
 0002:000000c0       __imp__GlobalReAlloc@12    100390c0     kernel32:KERNEL32.dll
 0002:000000c4       __imp__GetVersionExA@4     100390c4     kernel32:KERNEL32.dll
 0002:000000c8       __imp__GetSystemTime@4     100390c8     kernel32:KERNEL32.dll
 0002:000000cc       __imp__lstrcpynA@12        100390cc     kernel32:KERNEL32.dll
 0002:000000d0       __imp__WideCharToMultiByte@32 100390d0     kernel32:KERNEL32.dll
 0002:000000d4       __imp__MultiByteToWideChar@24 100390d4     kernel32:KERNEL32.dll
 0002:000000d8       __imp__GetPrivateProfileStringA@24 100390d8     kernel32:KERNEL32.dll
 0002:000000dc       __imp__LoadLibraryA@4      100390dc     kernel32:KERNEL32.dll
 0002:000000e0       __imp__GetProcAddress@8    100390e0     kernel32:KERNEL32.dll
 0002:000000e4       __imp__GetModuleHandleA@4  100390e4     kernel32:KERNEL32.dll
 0002:000000e8       __imp__FreeLibrary@4       100390e8     kernel32:KERNEL32.dll
 0002:000000ec       __imp__GetLongPathNameA@12 100390ec     kernel32:KERNEL32.dll
 0002:000000f0       __imp__GetCurrentDirectoryA@8 100390f0     kernel32:KERNEL32.dll
 0002:000000f4       __imp__SetCurrentDirectoryA@4 100390f4     kernel32:KERNEL32.dll
 0002:000000f8       __imp__OutputDebugStringW@4 100390f8     kernel32:KERNEL32.dll
 0002:000000fc       __imp__HeapDestroy@4       100390fc     kernel32:KERNEL32.dll
 0002:00000100       __imp__HeapAlloc@12        10039100     kernel32:KERNEL32.dll
 0002:00000104       __imp__HeapReAlloc@16      10039104     kernel32:KERNEL32.dll
 0002:00000108       __imp__HeapFree@12         10039108     kernel32:KERNEL32.dll
 0002:0000010c       __imp__HeapSize@12         1003910c     kernel32:KERNEL32.dll
 0002:00000110       __imp__GetProcessHeap@0    10039110     kernel32:KERNEL32.dll
 0002:00000114       __imp__InitializeCriticalSectionEx@12 10039114     kernel32:KERNEL32.dll
 0002:00000118       __imp__DeleteCriticalSection@4 10039118     kernel32:KERNEL32.dll
 0002:0000011c       __imp__SetFileAttributesA@8 1003911c     kernel32:KERNEL32.dll
 0002:00000120       __imp__CreateDirectoryA@8  10039120     kernel32:KERNEL32.dll
 0002:00000124       __imp__WinExec@8           10039124     kernel32:KERNEL32.dll
 0002:00000128       __imp__GetModuleFileNameA@12 10039128     kernel32:KERNEL32.dll
 0002:0000012c       __imp__OutputDebugStringA@4 1003912c     kernel32:KERNEL32.dll
 0002:00000130       __imp__SetLastError@4      10039130     kernel32:KERNEL32.dll
 0002:00000134       __imp__InitializeCriticalSectionAndSpinCount@8 10039134     kernel32:KERNEL32.dll
 0002:00000138       __imp__GetModuleFileNameW@12 10039138     kernel32:KERNEL32.dll
 0002:0000013c       __imp__GetModuleHandleW@4  1003913c     kernel32:KERNEL32.dll
 0002:00000140       __imp__LoadLibraryW@4      10039140     kernel32:KERNEL32.dll
 0002:00000144       __imp__CloseHandle@4       10039144     kernel32:KERNEL32.dll
 0002:00000148       __imp__EnterCriticalSection@4 10039148     kernel32:KERNEL32.dll
 0002:0000014c       __imp__LeaveCriticalSection@4 1003914c     kernel32:KERNEL32.dll
 0002:00000150       __imp__SetEvent@4          10039150     kernel32:KERNEL32.dll
 0002:00000154       __imp__ResetEvent@4        10039154     kernel32:KERNEL32.dll
 0002:00000158       __imp__WaitForSingleObjectEx@12 10039158     kernel32:KERNEL32.dll
 0002:0000015c       __imp__CreateEventW@16     1003915c     kernel32:KERNEL32.dll
 0002:00000160       __imp__IsProcessorFeaturePresent@4 10039160     kernel32:KERNEL32.dll
 0002:00000164       __imp__IsDebuggerPresent@0 10039164     kernel32:KERNEL32.dll
 0002:00000168       __imp__UnhandledExceptionFilter@4 10039168     kernel32:KERNEL32.dll
 0002:0000016c       __imp__SetUnhandledExceptionFilter@4 1003916c     kernel32:KERNEL32.dll
 0002:00000170       __imp__GetEnvironmentVariableA@12 10039170     kernel32:KERNEL32.dll
 0002:00000174       __imp__GetStartupInfoW@4   10039174     kernel32:KERNEL32.dll
 0002:00000178       __imp__GetCurrentProcess@0 10039178     kernel32:KERNEL32.dll
 0002:0000017c       __imp__TerminateProcess@8  1003917c     kernel32:KERNEL32.dll
 0002:00000180       __imp__QueryPerformanceCounter@4 10039180     kernel32:KERNEL32.dll
 0002:00000184       __imp__GetCurrentProcessId@0 10039184     kernel32:KERNEL32.dll
 0002:00000188       __imp__GetCurrentThreadId@0 10039188     kernel32:KERNEL32.dll
 0002:0000018c       __imp__GetSystemTimeAsFileTime@4 1003918c     kernel32:KERNEL32.dll
 0002:00000190       __imp__InitializeSListHead@4 10039190     kernel32:KERNEL32.dll
 0002:00000194       \177KERNEL32_NULL_THUNK_DATA 10039194     kernel32:KERNEL32.dll
 0002:00000198       __imp__VariantTimeToSystemTime@12 10039198     oleaut32:OLEAUT32.dll
 0002:0000019c       __imp__SystemTimeToVariantTime@8 1003919c     oleaut32:OLEAUT32.dll
 0002:000001a0       __imp__VariantClear@4      100391a0     oleaut32:OLEAUT32.dll
 0002:000001a4       __imp__VarUdateFromDate@16 100391a4     oleaut32:OLEAUT32.dll
 0002:000001a8       __imp__SysFreeString@4     100391a8     oleaut32:OLEAUT32.dll
 0002:000001ac       \177OLEAUT32_NULL_THUNK_DATA 100391ac     oleaut32:OLEAUT32.dll
 0002:000001b0       __imp__IsWindow@4          100391b0     user32:USER32.dll
 0002:000001b4       __imp__DrawEdge@16         100391b4     user32:USER32.dll
 0002:000001b8       __imp__InflateRect@12      100391b8     user32:USER32.dll
 0002:000001bc       __imp__GetSysColor@4       100391bc     user32:USER32.dll
 0002:000001c0       __imp__GetClientRect@8     100391c0     user32:USER32.dll
 0002:000001c4       __imp__InvalidateRect@12   100391c4     user32:USER32.dll
 0002:000001c8       __imp__TabbedTextOutA@32   100391c8     user32:USER32.dll
 0002:000001cc       __imp__GrayStringA@36      100391cc     user32:USER32.dll
 0002:000001d0       __imp__DrawTextExA@24      100391d0     user32:USER32.dll
 0002:000001d4       __imp__DrawTextA@20        100391d4     user32:USER32.dll
 0002:000001d8       __imp__GetSystemMetrics@4  100391d8     user32:USER32.dll
 0002:000001dc       __imp__GetParent@4         100391dc     user32:USER32.dll
 0002:000001e0       __imp__SendMessageA@16     100391e0     user32:USER32.dll
 0002:000001e4       __imp__EnableWindow@8      100391e4     user32:USER32.dll
 0002:000001e8       __imp__RegisterWindowMessageA@4 100391e8     user32:USER32.dll
 0002:000001ec       __imp__UpdateWindow@4      100391ec     user32:USER32.dll
 0002:000001f0       __imp__GetWindowRect@8     100391f0     user32:USER32.dll
 0002:000001f4       __imp__GetCursorPos@4      100391f4     user32:USER32.dll
 0002:000001f8       __imp__ClientToScreen@8    100391f8     user32:USER32.dll
 0002:000001fc       __imp__SetRect@20          100391fc     user32:USER32.dll
 0002:00000200       __imp__CopyRect@8          10039200     user32:USER32.dll
 0002:00000204       __imp__OffsetRect@12       10039204     user32:USER32.dll
 0002:00000208       __imp__PostMessageA@16     10039208     user32:USER32.dll
 0002:0000020c       __imp__GetKeyState@4       1003920c     user32:USER32.dll
 0002:00000210       __imp__ReleaseDC@8         10039210     user32:USER32.dll
 0002:00000214       __imp__ScreenToClient@8    10039214     user32:USER32.dll
 0002:00000218       __imp__SetCursor@4         10039218     user32:USER32.dll
 0002:0000021c       __imp__FillRect@12         1003921c     user32:USER32.dll
 0002:00000220       __imp__FrameRect@12        10039220     user32:USER32.dll
 0002:00000224       __imp__LoadCursorA@8       10039224     user32:USER32.dll
 0002:00000228       __imp__GetMessagePos@0     10039228     user32:USER32.dll
 0002:0000022c       __imp__DefWindowProcA@16   1003922c     user32:USER32.dll
 0002:00000230       __imp__GetClassInfoA@12    10039230     user32:USER32.dll
 0002:00000234       __imp__IsClipboardFormatAvailable@4 10039234     user32:USER32.dll
 0002:00000238       __imp__GetCapture@0        10039238     user32:USER32.dll
 0002:0000023c       __imp__ReleaseCapture@0    1003923c     user32:USER32.dll
 0002:00000240       __imp__ClipCursor@4        10039240     user32:USER32.dll
 0002:00000244       __imp__InvertRect@8        10039244     user32:USER32.dll
 0002:00000248       __imp__IntersectRect@12    10039248     user32:USER32.dll
 0002:0000024c       __imp__GetDoubleClickTime@0 1003924c     user32:USER32.dll
 0002:00000250       __imp__IsWindowVisible@4   10039250     user32:USER32.dll
 0002:00000254       __imp__WindowFromPoint@8   10039254     user32:USER32.dll
 0002:00000258       __imp__IsRectEmpty@4       10039258     user32:USER32.dll
 0002:0000025c       __imp__UnregisterClassA@8  1003925c     user32:USER32.dll
 0002:00000260       __imp__ShowScrollBar@12    10039260     user32:USER32.dll
 0002:00000264       __imp__GetWindowLongA@8    10039264     user32:USER32.dll
 0002:00000268       __imp__BeginDeferWindowPos@4 10039268     user32:USER32.dll
 0002:0000026c       __imp__DeferWindowPos@32   1003926c     user32:USER32.dll
 0002:00000270       __imp__EndDeferWindowPos@4 10039270     user32:USER32.dll
 0002:00000274       __imp__GetCursor@0         10039274     user32:USER32.dll
 0002:00000278       __imp__GetClassNameA@12    10039278     user32:USER32.dll
 0002:0000027c       __imp__LoadBitmapW@8       1003927c     user32:USER32.dll
 0002:00000280       __imp__GetFocus@0          10039280     user32:USER32.dll
 0002:00000284       __imp__PtInRect@12         10039284     user32:USER32.dll
 0002:00000288       __imp__SetCapture@4        10039288     user32:USER32.dll
 0002:0000028c       __imp__SetTimer@16         1003928c     user32:USER32.dll
 0002:00000290       __imp__SystemParametersInfoA@16 10039290     user32:USER32.dll
 0002:00000294       __imp__KillTimer@8         10039294     user32:USER32.dll
 0002:00000298       __imp__GetDC@4             10039298     user32:USER32.dll
 0002:0000029c       \177USER32_NULL_THUNK_DATA 1003929c     user32:USER32.dll
 0002:000002a0       __imp____CxxFrameHandler3  100392a0     vcruntime:VCRUNTIME140.dll
 0002:000002a4       __imp__memset              100392a4     vcruntime:VCRUNTIME140.dll
 0002:000002a8       __imp____std_terminate     100392a8     vcruntime:VCRUNTIME140.dll
 0002:000002ac       __imp__memcpy              100392ac     vcruntime:VCRUNTIME140.dll
 0002:000002b0       __imp__memmove             100392b0     vcruntime:VCRUNTIME140.dll
 0002:000002b4       __imp___purecall           100392b4     vcruntime:VCRUNTIME140.dll
 0002:000002b8       __imp____current_exception 100392b8     vcruntime:VCRUNTIME140.dll
 0002:000002bc       __imp__strrchr             100392bc     vcruntime:VCRUNTIME140.dll
 0002:000002c0       __imp___except_handler4_common 100392c0     vcruntime:VCRUNTIME140.dll
 0002:000002c4       __imp____std_type_info_destroy_list 100392c4     vcruntime:VCRUNTIME140.dll
 0002:000002c8       __imp____current_exception_context 100392c8     vcruntime:VCRUNTIME140.dll
 0002:000002cc       \177VCRUNTIME140_NULL_THUNK_DATA 100392cc     vcruntime:VCRUNTIME140.dll
 0002:000002d0       __imp__strtoul             100392d0     ucrt:api-ms-win-crt-convert-l1-1-0.dll
 0002:000002d4       __imp__atoi                100392d4     ucrt:api-ms-win-crt-convert-l1-1-0.dll
 0002:000002d8       __imp__atol                100392d8     ucrt:api-ms-win-crt-convert-l1-1-0.dll
 0002:000002dc       __imp__atof                100392dc     ucrt:api-ms-win-crt-convert-l1-1-0.dll
 0002:000002e0       \177api-ms-win-crt-convert-l1-1-0_NULL_THUNK_DATA 100392e0     ucrt:api-ms-win-crt-convert-l1-1-0.dll
 0002:000002e4       __imp___recalloc           100392e4     ucrt:api-ms-win-crt-heap-l1-1-0.dll
 0002:000002e8       __imp__free                100392e8     ucrt:api-ms-win-crt-heap-l1-1-0.dll
 0002:000002ec       \177api-ms-win-crt-heap-l1-1-0_NULL_THUNK_DATA 100392ec     ucrt:api-ms-win-crt-heap-l1-1-0.dll
 0002:000002f0       __imp__floor               100392f0     ucrt:api-ms-win-crt-math-l1-1-0.dll
 0002:000002f4       __imp__ceil                100392f4     ucrt:api-ms-win-crt-math-l1-1-0.dll
 0002:000002f8       \177api-ms-win-crt-math-l1-1-0_NULL_THUNK_DATA 100392f8     ucrt:api-ms-win-crt-math-l1-1-0.dll
 0002:000002fc       __imp___mbscmp             100392fc     ucrt:api-ms-win-crt-multibyte-l1-1-0.dll
 0002:00000300       __imp___mbsicmp            10039300     ucrt:api-ms-win-crt-multibyte-l1-1-0.dll
 0002:00000304       \177api-ms-win-crt-multibyte-l1-1-0_NULL_THUNK_DATA 10039304     ucrt:api-ms-win-crt-multibyte-l1-1-0.dll
 0002:00000308       __imp___register_onexit_function 10039308     ucrt:api-ms-win-crt-runtime-l1-1-0.dll
 0002:0000030c       __imp___initialize_onexit_table 1003930c     ucrt:api-ms-win-crt-runtime-l1-1-0.dll
 0002:00000310       __imp___initialize_narrow_environment 10039310     ucrt:api-ms-win-crt-runtime-l1-1-0.dll
 0002:00000314       __imp___configure_narrow_argv 10039314     ucrt:api-ms-win-crt-runtime-l1-1-0.dll
 0002:00000318       __imp___seh_filter_dll     10039318     ucrt:api-ms-win-crt-runtime-l1-1-0.dll
 0002:0000031c       __imp___crt_atexit         1003931c     ucrt:api-ms-win-crt-runtime-l1-1-0.dll
 0002:00000320       __imp___initterm_e         10039320     ucrt:api-ms-win-crt-runtime-l1-1-0.dll
 0002:00000324       __imp___crt_at_quick_exit  10039324     ucrt:api-ms-win-crt-runtime-l1-1-0.dll
 0002:00000328       __imp___cexit              10039328     ucrt:api-ms-win-crt-runtime-l1-1-0.dll
 0002:0000032c       __imp__terminate           1003932c     ucrt:api-ms-win-crt-runtime-l1-1-0.dll
 0002:00000330       __imp___initterm           10039330     ucrt:api-ms-win-crt-runtime-l1-1-0.dll
 0002:00000334       __imp___execute_onexit_table 10039334     ucrt:api-ms-win-crt-runtime-l1-1-0.dll
 0002:00000338       __imp___invalid_parameter_noinfo 10039338     ucrt:api-ms-win-crt-runtime-l1-1-0.dll
 0002:0000033c       __imp___errno              1003933c     ucrt:api-ms-win-crt-runtime-l1-1-0.dll
 0002:00000340       \177api-ms-win-crt-runtime-l1-1-0_NULL_THUNK_DATA 10039340     ucrt:api-ms-win-crt-runtime-l1-1-0.dll
 0002:00000344       __imp____stdio_common_vsscanf 10039344     ucrt:api-ms-win-crt-stdio-l1-1-0.dll
 0002:00000348       __imp____stdio_common_vfprintf 10039348     ucrt:api-ms-win-crt-stdio-l1-1-0.dll
 0002:0000034c       __imp____stdio_common_vsprintf 1003934c     ucrt:api-ms-win-crt-stdio-l1-1-0.dll
 0002:00000350       __imp__fopen               10039350     ucrt:api-ms-win-crt-stdio-l1-1-0.dll
 0002:00000354       __imp__fclose              10039354     ucrt:api-ms-win-crt-stdio-l1-1-0.dll
 0002:00000358       \177api-ms-win-crt-stdio-l1-1-0_NULL_THUNK_DATA 10039358     ucrt:api-ms-win-crt-stdio-l1-1-0.dll
 0002:0000035c       __imp__strftime            1003935c     ucrt:api-ms-win-crt-time-l1-1-0.dll
 0002:00000360       __imp___localtime64_s      10039360     ucrt:api-ms-win-crt-time-l1-1-0.dll
 0002:00000364       __imp___time64             10039364     ucrt:api-ms-win-crt-time-l1-1-0.dll
 0002:00000368       \177api-ms-win-crt-time-l1-1-0_NULL_THUNK_DATA 10039368     ucrt:api-ms-win-crt-time-l1-1-0.dll
 0002:0000036c       __imp__qsort               1003936c     ucrt:api-ms-win-crt-utility-l1-1-0.dll
 0002:00000370       \177api-ms-win-crt-utility-l1-1-0_NULL_THUNK_DATA 10039370     ucrt:api-ms-win-crt-utility-l1-1-0.dll
 0002:00000374       __imp_?Create@CTabCtrl@@UAEHKABUtagRECT@@PAVCWnd@@I@Z 10039374     mfc140:mfc140.dll
 0002:00000378       __imp_?CreateEx@CTabCtrl@@UAEHKKABUtagRECT@@PAVCWnd@@I@Z 10039378     mfc140:mfc140.dll
 0002:0000037c       __imp_?DrawItem@CTabCtrl@@UAEXPAUtagDRAWITEMSTRUCT@@@Z 1003937c     mfc140:mfc140.dll
 0002:00000380       __imp_??1CTabCtrl@@UAE@XZ  10039380     mfc140:mfc140.dll
 0002:00000384       __imp_?OnChildNotify@CTabCtrl@@MAEHIIJPAJ@Z 10039384     mfc140:mfc140.dll
 0002:00000388       __imp_?GetThisMessageMap@CTabCtrl@@KGPBUAFX_MSGMAP@@XZ 10039388     mfc140:mfc140.dll
 0002:0000038c       __imp_?GetMessageMap@CTabCtrl@@MBEPBUAFX_MSGMAP@@XZ 1003938c     mfc140:mfc140.dll
 0002:00000390       __imp_?Insert@?$CStringT@DV?$StrTraitMFC_DLL@DV?$ChTraitsCRT@D@ATL@@@@@ATL@@QAEHHD@Z 10039390     mfc140:mfc140.dll
 0002:00000394       __imp_?Insert@?$CStringT@DV?$StrTraitMFC_DLL@DV?$ChTraitsCRT@D@ATL@@@@@ATL@@QAEHHPBD@Z 10039394     mfc140:mfc140.dll
 0002:00000398       __imp_?Find@?$CStringT@DV?$StrTraitMFC_DLL@DV?$ChTraitsCRT@D@ATL@@@@@ATL@@QBEHDH@Z 10039398     mfc140:mfc140.dll
 0002:0000039c       __imp_?Mid@?$CStringT@DV?$StrTraitMFC_DLL@DV?$ChTraitsCRT@D@ATL@@@@@ATL@@QBE?AV12@H@Z 1003939c     mfc140:mfc140.dll
 0002:000003a0       __imp_??0CStringArray@@QAE@XZ 100393a0     mfc140:mfc140.dll
 0002:000003a4       __imp_?SetSize@CStringArray@@QAEXHH@Z 100393a4     mfc140:mfc140.dll
 0002:000003a8       __imp_?SetAtGrow@CStringArray@@QAEXHABV?$CStringT@DV?$StrTraitMFC_DLL@DV?$ChTraitsCRT@D@ATL@@@@@ATL@@@Z 100393a8     mfc140:mfc140.dll
 0002:000003ac       __imp_??1CStringArray@@UAE@XZ 100393ac     mfc140:mfc140.dll
 0002:000003b0       __imp_?AfxGetModuleState@@YGPAVAFX_MODULE_STATE@@XZ 100393b0     mfc140:mfc140.dll
 0002:000003b4       __imp_?GetRuntimeClass@CBrush@@UBEPAUCRuntimeClass@@XZ 100393b4     mfc140:mfc140.dll
 0002:000003b8       __imp_?EnableAutomation@CCmdTarget@@QAEXXZ 100393b8     mfc140:mfc140.dll
 0002:000003bc       __imp_?CenterWindow@CWnd@@QAEXPAV1@@Z 100393bc     mfc140:mfc140.dll
 0002:000003c0       __imp_?OnCtlColor@CWnd@@IAEPAUHBRUSH__@@PAVCDC@@PAV1@I@Z 100393c0     mfc140:mfc140.dll
 0002:000003c4       __imp_?GetRuntimeClass@CDialog@@UBEPAUCRuntimeClass@@XZ 100393c4     mfc140:mfc140.dll
 0002:000003c8       __imp_?Create@CDialog@@UAEHPBDPAVCWnd@@@Z 100393c8     mfc140:mfc140.dll
 0002:000003cc       __imp_?CreateIndirect@CDialog@@UAEHPBUDLGTEMPLATE@@PAVCWnd@@PAX@Z 100393cc     mfc140:mfc140.dll
 0002:000003d0       __imp_?CreateIndirect@CDialog@@UAEHPAXPAVCWnd@@@Z 100393d0     mfc140:mfc140.dll
 0002:000003d4       __imp_??0CDialog@@QAE@IPAVCWnd@@@Z 100393d4     mfc140:mfc140.dll
 0002:000003d8       __imp_?DoModal@CDialog@@UAEHXZ 100393d8     mfc140:mfc140.dll
 0002:000003dc       __imp_?OnInitDialog@CDialog@@UAEHXZ 100393dc     mfc140:mfc140.dll
 0002:000003e0       __imp_?OnSetFont@CDialog@@UAEXPAVCFont@@@Z 100393e0     mfc140:mfc140.dll
 0002:000003e4       __imp_?OnOK@CDialog@@MAEXXZ 100393e4     mfc140:mfc140.dll
 0002:000003e8       __imp_?OnCancel@CDialog@@MAEXXZ 100393e8     mfc140:mfc140.dll
 0002:000003ec       __imp_??1CDialog@@UAE@XZ   100393ec     mfc140:mfc140.dll
 0002:000003f0       __imp_?PreTranslateMessage@CDialog@@UAEHPAUtagMSG@@@Z 100393f0     mfc140:mfc140.dll
 0002:000003f4       __imp_?OnCmdMsg@CDialog@@UAEHIHPAXPAUAFX_CMDHANDLERINFO@@@Z 100393f4     mfc140:mfc140.dll
 0002:000003f8       __imp_?CheckAutoCenter@CDialog@@UAEHXZ 100393f8     mfc140:mfc140.dll
 0002:000003fc       __imp_?SetOccDialogInfo@CDialog@@MAEHPAU_AFX_OCC_DIALOG_INFO@@@Z 100393fc     mfc140:mfc140.dll
 0002:00000400       __imp_?GetOccDialogInfo@CDialog@@MAEPAU_AFX_OCC_DIALOG_INFO@@XZ 10039400     mfc140:mfc140.dll
 0002:00000404       __imp_?PreInitDialog@CDialog@@MAEXXZ 10039404     mfc140:mfc140.dll
 0002:00000408       __imp_?GetThisMessageMap@CDialog@@KGPBUAFX_MSGMAP@@XZ 10039408     mfc140:mfc140.dll
 0002:0000040c       __imp_?GetMessageMap@CDialog@@MBEPBUAFX_MSGMAP@@XZ 1003940c     mfc140:mfc140.dll
 0002:00000410       __imp_?AfxEnableControlContainer@@YAXPAVCOccManager@@@Z 10039410     mfc140:mfc140.dll
 0002:00000414       __imp_??A?$CSimpleStringT@D$00@ATL@@QBEDH@Z 10039414     mfc140:mfc140.dll
 0002:00000418       __imp_?Empty@?$CSimpleStringT@D$00@ATL@@QAEXXZ 10039418     mfc140:mfc140.dll
 0002:0000041c       __imp_??Y?$CStringT@DV?$StrTraitMFC_DLL@DV?$ChTraitsCRT@D@ATL@@@@@ATL@@QAEAAV01@ABV?$CSimpleStringT@D$00@1@@Z 1003941c     mfc140:mfc140.dll
 0002:00000420       __imp_??Y?$CStringT@DV?$StrTraitMFC_DLL@DV?$ChTraitsCRT@D@ATL@@@@@ATL@@QAEAAV01@D@Z 10039420     mfc140:mfc140.dll
 0002:00000424       __imp_?Delete@?$CStringT@DV?$StrTraitMFC_DLL@DV?$ChTraitsCRT@D@ATL@@@@@ATL@@QAEHHH@Z 10039424     mfc140:mfc140.dll
 0002:00000428       __imp_?Find@?$CStringT@DV?$StrTraitMFC_DLL@DV?$ChTraitsCRT@D@ATL@@@@@ATL@@QBEHPBDH@Z 10039428     mfc140:mfc140.dll
 0002:0000042c       __imp_?MakeReverse@?$CStringT@DV?$StrTraitMFC_DLL@DV?$ChTraitsCRT@D@ATL@@@@@ATL@@QAEAAV12@XZ 1003942c     mfc140:mfc140.dll
 0002:00000430       __imp_?TrimRight@?$CStringT@DV?$StrTraitMFC_DLL@DV?$ChTraitsCRT@D@ATL@@@@@ATL@@QAEAAV12@XZ 10039430     mfc140:mfc140.dll
 0002:00000434       __imp_?TrimLeft@?$CStringT@DV?$StrTraitMFC_DLL@DV?$ChTraitsCRT@D@ATL@@@@@ATL@@QAEAAV12@XZ 10039434     mfc140:mfc140.dll
 0002:00000438       __imp_?Mid@?$CStringT@DV?$StrTraitMFC_DLL@DV?$ChTraitsCRT@D@ATL@@@@@ATL@@QBE?AV12@HH@Z 10039438     mfc140:mfc140.dll
 0002:0000043c       __imp_?DDX_Control@@YGXPAVCDataExchange@@HAAVCWnd@@@Z 1003943c     mfc140:mfc140.dll
 0002:00000440       __imp_?GetThisClass@CDialog@@SGPAUCRuntimeClass@@XZ 10039440     mfc140:mfc140.dll
 0002:00000444       __imp_?GetThisClass@CObject@@SGPAUCRuntimeClass@@XZ 10039444     mfc140:mfc140.dll
 0002:00000448       __imp_?AfxTryCleanup@@YGXXZ 10039448     mfc140:mfc140.dll
 0002:0000044c       __imp_??0AFX_EXCEPTION_LINK@@QAE@XZ 1003944c     mfc140:mfc140.dll
 0002:00000450       __imp_??0CBrush@@QAE@K@Z   10039450     mfc140:mfc140.dll
 0002:00000454       __imp_?CreateObject@CRuntimeClass@@QAEPAVCObject@@XZ 10039454     mfc140:mfc140.dll
 0002:00000458       __imp_?IsDerivedFrom@CRuntimeClass@@QBEHPBU1@@Z 10039458     mfc140:mfc140.dll
 0002:0000045c       __imp_?IsKindOf@CObject@@QBEHPBUCRuntimeClass@@@Z 1003945c     mfc140:mfc140.dll
 0002:00000460       __imp_??0CException@@QAE@XZ 10039460     mfc140:mfc140.dll
 0002:00000464       __imp_?GetErrorMessage@CException@@UAEHPADIPAI@Z 10039464     mfc140:mfc140.dll
 0002:00000468       __imp_?ReportError@CException@@UAEHII@Z 10039468     mfc140:mfc140.dll
 0002:0000046c       __imp_?LockBuffer@?$CSimpleStringT@D$00@ATL@@QAEPADXZ 1003946c     mfc140:mfc140.dll
 0002:00000470       __imp_?UnlockBuffer@?$CSimpleStringT@D$00@ATL@@QAEXXZ 10039470     mfc140:mfc140.dll
 0002:00000474       __imp_??0?$CStringT@DV?$StrTraitMFC_DLL@DV?$ChTraitsCRT@D@ATL@@@@@ATL@@QAE@DH@Z 10039474     mfc140:mfc140.dll
 0002:00000478       __imp_??Y?$CStringT@DV?$StrTraitMFC_DLL@DV?$ChTraitsCRT@D@ATL@@@@@ATL@@QAEAAV01@PBD@Z 10039478     mfc140:mfc140.dll
 0002:0000047c       __imp_?FindOneOf@?$CStringT@DV?$StrTraitMFC_DLL@DV?$ChTraitsCRT@D@ATL@@@@@ATL@@QBEHPBD@Z 1003947c     mfc140:mfc140.dll
 0002:00000480       __imp_?FormatV@?$CStringT@DV?$StrTraitMFC_DLL@DV?$ChTraitsCRT@D@ATL@@@@@ATL@@QAEXPBDPAD@Z 10039480     mfc140:mfc140.dll
 0002:00000484       __imp_?LoadStringA@?$CStringT@DV?$StrTraitMFC_DLL@DV?$ChTraitsCRT@D@ATL@@@@@ATL@@QAEHI@Z 10039484     mfc140:mfc140.dll
 0002:00000488       __imp_?GetRuntimeClass@CFileException@@UBEPAUCRuntimeClass@@XZ 10039488     mfc140:mfc140.dll
 0002:0000048c       __imp_?GetErrorMessage@CFileException@@UBEHPADIPAI@Z 1003948c     mfc140:mfc140.dll
 0002:00000490       __imp_??0CStdioFile@@QAE@XZ 10039490     mfc140:mfc140.dll
 0002:00000494       __imp_?WriteString@CStdioFile@@UAEXPBD@Z 10039494     mfc140:mfc140.dll
 0002:00000498       __imp_?ReadString@CStdioFile@@UAEPADPADI@Z 10039498     mfc140:mfc140.dll
 0002:0000049c       __imp_??1CStdioFile@@UAE@XZ 1003949c     mfc140:mfc140.dll
 0002:000004a0       __imp_?Open@CStdioFile@@UAEHPBDIPAVCFileException@@@Z 100394a0     mfc140:mfc140.dll
 0002:000004a4       __imp_?Close@CStdioFile@@UAEXXZ 100394a4     mfc140:mfc140.dll
 0002:000004a8       __imp_??0CMemFile@@QAE@PAEII@Z 100394a8     mfc140:mfc140.dll
 0002:000004ac       __imp_??1CMemFile@@UAE@XZ  100394ac     mfc140:mfc140.dll
 0002:000004b0       __imp_?Read@CMemFile@@UAEIPAXI@Z 100394b0     mfc140:mfc140.dll
 0002:000004b4       __imp_?Write@CMemFile@@UAEXPBXI@Z 100394b4     mfc140:mfc140.dll
 0002:000004b8       __imp_?GetLength@CMemFile@@UBE_KXZ 100394b8     mfc140:mfc140.dll
 0002:000004bc       __imp_??0CUIntArray@@QAE@XZ 100394bc     mfc140:mfc140.dll
 0002:000004c0       __imp_?SetSize@CUIntArray@@QAEXHH@Z 100394c0     mfc140:mfc140.dll
 0002:000004c4       __imp_?SetAtGrow@CUIntArray@@QAEXHI@Z 100394c4     mfc140:mfc140.dll
 0002:000004c8       __imp_?InsertAt@CUIntArray@@QAEXHIH@Z 100394c8     mfc140:mfc140.dll
 0002:000004cc       __imp_?RemoveAt@CUIntArray@@QAEXHH@Z 100394cc     mfc140:mfc140.dll
 0002:000004d0       __imp_??1CUIntArray@@UAE@XZ 100394d0     mfc140:mfc140.dll
 0002:000004d4       __imp_?GetRuntimeClass@CObArray@@UBEPAUCRuntimeClass@@XZ 100394d4     mfc140:mfc140.dll
 0002:000004d8       __imp_??0CObArray@@QAE@XZ  100394d8     mfc140:mfc140.dll
 0002:000004dc       __imp_?SetSize@CObArray@@QAEXHH@Z 100394dc     mfc140:mfc140.dll
 0002:000004e0       __imp_?SetAtGrow@CObArray@@QAEXHPAVCObject@@@Z 100394e0     mfc140:mfc140.dll
 0002:000004e4       __imp_?InsertAt@CObArray@@QAEXHPAVCObject@@H@Z 100394e4     mfc140:mfc140.dll
 0002:000004e8       __imp_?RemoveAt@CObArray@@QAEXHH@Z 100394e8     mfc140:mfc140.dll
 0002:000004ec       __imp_??1CObArray@@UAE@XZ  100394ec     mfc140:mfc140.dll
 0002:000004f0       __imp_?Serialize@CObArray@@UAEXAAVCArchive@@@Z 100394f0     mfc140:mfc140.dll
 0002:000004f4       __imp_?AfxGetThreadState@@YGPAV_AFX_THREAD_STATE@@XZ 100394f4     mfc140:mfc140.dll
 0002:000004f8       __imp_?Create@CPlex@@SGPAU1@AAPAU1@II@Z 100394f8     mfc140:mfc140.dll
 0002:000004fc       __imp_?FreeDataChain@CPlex@@QAEXXZ 100394fc     mfc140:mfc140.dll
 0002:00000500       __imp_?AfxThrowResourceException@@YGXXZ 10039500     mfc140:mfc140.dll
 0002:00000504       __imp_?Detach@CDC@@QAEPAUHDC__@@XZ 10039504     mfc140:mfc140.dll
 0002:00000508       __imp_?OffsetWindowOrg@CDC@@QAE?AVCPoint@@HH@Z 10039508     mfc140:mfc140.dll
 0002:0000050c       __imp_?BeginWaitCursor@CCmdTarget@@QAEXXZ 1003950c     mfc140:mfc140.dll
 0002:00000510       __imp_?EndWaitCursor@CCmdTarget@@QAEXXZ 10039510     mfc140:mfc140.dll
 0002:00000514       __imp_?ModifyStyleEx@CWnd@@QAEHKKI@Z 10039514     mfc140:mfc140.dll
 0002:00000518       __imp_?MoveWindow@CWnd@@QAEXHHHHH@Z 10039518     mfc140:mfc140.dll
 0002:0000051c       __imp_?ScreenToClient@CWnd@@QBEXPAUtagRECT@@@Z 1003951c     mfc140:mfc140.dll
 0002:00000520       __imp_?EnableScrollBarCtrl@CWnd@@QAEXHH@Z 10039520     mfc140:mfc140.dll
 0002:00000524       __imp_??0CImageList@@QAE@XZ 10039524     mfc140:mfc140.dll
 0002:00000528       __imp_?GetScrollInfo@CWnd@@QAEHHPAUtagSCROLLINFO@@I@Z 10039528     mfc140:mfc140.dll
 0002:0000052c       __imp_?OnSettingChange@CWnd@@IAEXIPBD@Z 1003952c     mfc140:mfc140.dll
 0002:00000530       __imp_?AfxRegisterClass@@YGHPAUtagWNDCLASSA@@@Z 10039530     mfc140:mfc140.dll
 0002:00000534       __imp_?GetThisClass@CEdit@@SGPAUCRuntimeClass@@XZ 10039534     mfc140:mfc140.dll
 0002:00000538       __imp_?GetRuntimeClass@CCommonDialog@@UBEPAUCRuntimeClass@@XZ 10039538     mfc140:mfc140.dll
 0002:0000053c       __imp_?OnOK@CCommonDialog@@MAEXXZ 1003953c     mfc140:mfc140.dll
 0002:00000540       __imp_?OnCancel@CCommonDialog@@MAEXXZ 10039540     mfc140:mfc140.dll
 0002:00000544       __imp_?GetMessageMap@CCommonDialog@@MBEPBUAFX_MSGMAP@@XZ 10039544     mfc140:mfc140.dll
 0002:00000548       __imp_??0CPrintDialog@@QAE@HKPAVCWnd@@@Z 10039548     mfc140:mfc140.dll
 0002:0000054c       __imp_?DoModal@CPrintDialog@@UAEHXZ 1003954c     mfc140:mfc140.dll
 0002:00000550       __imp_??0CPrintInfo@@QAE@XZ 10039550     mfc140:mfc140.dll
 0002:00000554       __imp_??1CPrintInfo@@QAE@XZ 10039554     mfc140:mfc140.dll
 0002:00000558       __imp_?AfxOleInit@@YGHXZ   10039558     mfc140:mfc140.dll
 0002:0000055c       __imp_??0COleDataObject@@QAE@XZ 1003955c     mfc140:mfc140.dll
 0002:00000560       __imp_?Release@COleDataObject@@QAEXXZ 10039560     mfc140:mfc140.dll
 0002:00000564       __imp_?AttachClipboard@COleDataObject@@QAEHXZ 10039564     mfc140:mfc140.dll
 0002:00000568       __imp_?GetGlobalData@COleDataObject@@QAEPAXGPAUtagFORMATETC@@@Z 10039568     mfc140:mfc140.dll
 0002:0000056c       __imp_?IsDataAvailable@COleDataObject@@QAEHGPAUtagFORMATETC@@@Z 1003956c     mfc140:mfc140.dll
 0002:00000570       __imp_??0COleDataSource@@QAE@XZ 10039570     mfc140:mfc140.dll
 0002:00000574       __imp_?CacheGlobalData@COleDataSource@@QAEXGPAXPAUtagFORMATETC@@@Z 10039574     mfc140:mfc140.dll
 0002:00000578       __imp_?DoDragDrop@COleDataSource@@QAEKKPBUtagRECT@@PAVCOleDropSource@@@Z 10039578     mfc140:mfc140.dll
 0002:0000057c       __imp_?SetClipboard@COleDataSource@@QAEXXZ 1003957c     mfc140:mfc140.dll
 0002:00000580       __imp_?FlushClipboard@COleDataSource@@SGXXZ 10039580     mfc140:mfc140.dll
 0002:00000584       __imp_?GetClipboardOwner@COleDataSource@@SGPAV1@XZ 10039584     mfc140:mfc140.dll
 0002:00000588       __imp_??0CSharedFile@@QAE@II@Z 10039588     mfc140:mfc140.dll
 0002:0000058c       __imp_?Detach@CSharedFile@@QAEPAXXZ 1003958c     mfc140:mfc140.dll
 0002:00000590       __imp_??1CSharedFile@@UAE@XZ 10039590     mfc140:mfc140.dll
 0002:00000594       __imp_?GetRuntimeClass@CCmdTarget@@UBEPAUCRuntimeClass@@XZ 10039594     mfc140:mfc140.dll
 0002:00000598       __imp_?OnFinalRelease@CCmdTarget@@UAEXXZ 10039598     mfc140:mfc140.dll
 0002:0000059c       __imp_?GetThisMessageMap@CCmdTarget@@KGPBUAFX_MSGMAP@@XZ 1003959c     mfc140:mfc140.dll
 0002:000005a0       __imp_??0COleDropTarget@@QAE@XZ 100395a0     mfc140:mfc140.dll
 0002:000005a4       __imp_?Register@COleDropTarget@@QAEHPAVCWnd@@@Z 100395a4     mfc140:mfc140.dll
 0002:000005a8       __imp_?Revoke@COleDropTarget@@UAEXXZ 100395a8     mfc140:mfc140.dll
 0002:000005ac       __imp_?OnDropEx@COleDropTarget@@UAEKPAVCWnd@@PAVCOleDataObject@@KKVCPoint@@@Z 100395ac     mfc140:mfc140.dll
 0002:000005b0       __imp_??1COleDropTarget@@UAE@XZ 100395b0     mfc140:mfc140.dll
 0002:000005b4       __imp_?GetInterfaceMap@COleDropTarget@@MBEPBUAFX_INTERFACEMAP@@XZ 100395b4     mfc140:mfc140.dll
 0002:000005b8       __imp_??0CWindowDC@@QAE@PAVCWnd@@@Z 100395b8     mfc140:mfc140.dll
 0002:000005bc       __imp_??1CWindowDC@@UAE@XZ 100395bc     mfc140:mfc140.dll
 0002:000005c0       __imp_?SelectObject@CDC@@QAEPAVCBrush@@PAV2@@Z 100395c0     mfc140:mfc140.dll
 0002:000005c4       __imp_?GetRuntimeClass@CWnd@@UBEPAUCRuntimeClass@@XZ 100395c4     mfc140:mfc140.dll
 0002:000005c8       __imp_?wndTop@CWnd@@2V1@B  100395c8     mfc140:mfc140.dll
 0002:000005cc       __imp_?AfxInitRichEdit@@YGHXZ 100395cc     mfc140:mfc140.dll
 0002:000005d0       __imp_??0CDynLinkLibrary@@QAE@AAUAFX_EXTENSION_MODULE@@H@Z 100395d0     mfc140:mfc140.dll
 0002:000005d4       __imp_?AfxInitExtensionModule@@YGHAAUAFX_EXTENSION_MODULE@@PAUHINSTANCE__@@@Z 100395d4     mfc140:mfc140.dll
 0002:000005d8       __imp_?AfxTermExtensionModule@@YGXAAUAFX_EXTENSION_MODULE@@H@Z 100395d8     mfc140:mfc140.dll
 0002:000005dc       __imp_?GetThisEventSinkMap@CCmdTarget@@KGPBUAFX_EVENTSINKMAP@@XZ 100395dc     mfc140:mfc140.dll
 0002:000005e0       __imp_?GetRuntimeClass@CButton@@UBEPAUCRuntimeClass@@XZ 100395e0     mfc140:mfc140.dll
 0002:000005e4       __imp_?Create@CButton@@UAEHPBDKABUtagRECT@@PAVCWnd@@I@Z 100395e4     mfc140:mfc140.dll
 0002:000005e8       __imp_?DrawItem@CButton@@UAEXPAUtagDRAWITEMSTRUCT@@@Z 100395e8     mfc140:mfc140.dll
 0002:000005ec       __imp_??1CButton@@UAE@XZ   100395ec     mfc140:mfc140.dll
 0002:000005f0       __imp_?OnChildNotify@CButton@@MAEHIIJPAJ@Z 100395f0     mfc140:mfc140.dll
 0002:000005f4       __imp_?Remove@?$CStringT@DV?$StrTraitMFC_DLL@DV?$ChTraitsCRT@D@ATL@@@@@ATL@@QAEHD@Z 100395f4     mfc140:mfc140.dll
 0002:000005f8       __imp_?EnableWindow@CWnd@@QAEHH@Z 100395f8     mfc140:mfc140.dll
 0002:000005fc       __imp_?CheckRadioButton@CWnd@@QAEXHHH@Z 100395fc     mfc140:mfc140.dll
 0002:00000600       __imp_?Replace@?$CStringT@DV?$StrTraitMFC_DLL@DV?$ChTraitsCRT@D@ATL@@@@@ATL@@QAEHPBD0@Z 10039600     mfc140:mfc140.dll
 0002:00000604       __imp_??0CFile@@QAE@XZ     10039604     mfc140:mfc140.dll
 0002:00000608       __imp_?Open@CFile@@UAEHPBDIPAVCFileException@@@Z 10039608     mfc140:mfc140.dll
 0002:0000060c       __imp_?Read@CFile@@UAEIPAXI@Z 1003960c     mfc140:mfc140.dll
 0002:00000610       __imp_?Close@CFile@@UAEXXZ 10039610     mfc140:mfc140.dll
 0002:00000614       __imp_??1CFile@@UAE@XZ     10039614     mfc140:mfc140.dll
 0002:00000618       __imp_?ReadString@CStdioFile@@UAEHAAV?$CStringT@DV?$StrTraitMFC_DLL@DV?$ChTraitsCRT@D@ATL@@@@@ATL@@@Z 10039618     mfc140:mfc140.dll
 0002:0000061c       __imp_?GetRuntimeClass@CStatic@@UBEPAUCRuntimeClass@@XZ 1003961c     mfc140:mfc140.dll
 0002:00000620       __imp_?Create@CStatic@@UAEHPBDKABUtagRECT@@PAVCWnd@@I@Z 10039620     mfc140:mfc140.dll
 0002:00000624       __imp_?DrawItem@CStatic@@UAEXPAUtagDRAWITEMSTRUCT@@@Z 10039624     mfc140:mfc140.dll
 0002:00000628       __imp_??1CStatic@@UAE@XZ   10039628     mfc140:mfc140.dll
 0002:0000062c       __imp_?OnChildNotify@CStatic@@MAEHIIJPAJ@Z 1003962c     mfc140:mfc140.dll
 0002:00000630       __imp_??4COleVariant@@QAEABV0@QBD@Z 10039630     mfc140:mfc140.dll
 0002:00000634       __imp_?AfxVariantInit@@YGXPAUtagVARIANT@@@Z 10039634     mfc140:mfc140.dll
 0002:00000638       __imp_?DDX_Text@@YGXPAVCDataExchange@@HAAH@Z 10039638     mfc140:mfc140.dll
 0002:0000063c       __imp_?DDV_MinMaxInt@@YGXPAVCDataExchange@@HHH@Z 1003963c     mfc140:mfc140.dll
 0002:00000640       __imp_?SetDlgItemTextA@CWnd@@QAEXHPBD@Z 10039640     mfc140:mfc140.dll
 0002:00000644       __imp_?UpdateData@CWnd@@QAEHH@Z 10039644     mfc140:mfc140.dll
 0002:00000648       __imp_??0?$CStringT@DV?$StrTraitMFC_DLL@DV?$ChTraitsCRT@D@ATL@@@@@ATL@@QAE@PBE@Z 10039648     mfc140:mfc140.dll
 0002:0000064c       __imp_?MakeLower@?$CStringT@DV?$StrTraitMFC_DLL@DV?$ChTraitsCRT@D@ATL@@@@@ATL@@QAEAAV12@XZ 1003964c     mfc140:mfc140.dll
 0002:00000650       __imp_?Right@?$CStringT@DV?$StrTraitMFC_DLL@DV?$ChTraitsCRT@D@ATL@@@@@ATL@@QBE?AV12@H@Z 10039650     mfc140:mfc140.dll
 0002:00000654       __imp_?Write@CFile@@UAEXPBXI@Z 10039654     mfc140:mfc140.dll
 0002:00000658       __imp_?GetThisClass@CStatic@@SGPAUCRuntimeClass@@XZ 10039658     mfc140:mfc140.dll
 0002:0000065c       __imp_?GetThisClass@CComboBox@@SGPAUCRuntimeClass@@XZ 1003965c     mfc140:mfc140.dll
 0002:00000660       __imp_?GetRuntimeClass@CComboBox@@UBEPAUCRuntimeClass@@XZ 10039660     mfc140:mfc140.dll
 0002:00000664       __imp_?Create@CComboBox@@UAEHKABUtagRECT@@PAVCWnd@@I@Z 10039664     mfc140:mfc140.dll
 0002:00000668       __imp_?DrawItem@CComboBox@@UAEXPAUtagDRAWITEMSTRUCT@@@Z 10039668     mfc140:mfc140.dll
 0002:0000066c       __imp_?MeasureItem@CComboBox@@UAEXPAUtagMEASUREITEMSTRUCT@@@Z 1003966c     mfc140:mfc140.dll
 0002:00000670       __imp_?CompareItem@CComboBox@@UAEHPAUtagCOMPAREITEMSTRUCT@@@Z 10039670     mfc140:mfc140.dll
 0002:00000674       __imp_?DeleteItem@CComboBox@@UAEXPAUtagDELETEITEMSTRUCT@@@Z 10039674     mfc140:mfc140.dll
 0002:00000678       __imp_??1CComboBox@@UAE@XZ 10039678     mfc140:mfc140.dll
 0002:0000067c       __imp_?OnChildNotify@CComboBox@@MAEHIIJPAJ@Z 1003967c     mfc140:mfc140.dll
 0002:00000680       __imp_??0AFX_MAINTAIN_STATE2@@QAE@PAVAFX_MODULE_STATE@@@Z 10039680     mfc140:mfc140.dll
 0002:00000684       __imp_??1AFX_MAINTAIN_STATE2@@QAE@XZ 10039684     mfc140:mfc140.dll
 0002:00000688       __imp_?EnableToolTips@CWnd@@QAEHH@Z 10039688     mfc140:mfc140.dll
 0002:0000068c       __imp_??0CDialog@@QAE@XZ   1003968c     mfc140:mfc140.dll
 0002:00000690       __imp_?ReadCount@CArchive@@QAEKXZ 10039690     mfc140:mfc140.dll
 0002:00000694       __imp_?AfxFreeLibrary@@YGHPAUHINSTANCE__@@@Z 10039694     mfc140:mfc140.dll
 0002:00000698       __imp_?CompareNoCase@?$CStringT@DV?$StrTraitMFC_DLL@DV?$ChTraitsCRT@D@ATL@@@@@ATL@@QBEHPBD@Z 10039698     mfc140:mfc140.dll
 0002:0000069c       __imp_??ACMapPtrToPtr@@QAEAAPAXPAX@Z 1003969c     mfc140:mfc140.dll
 0002:000006a0       __imp_?RemoveKey@CMapPtrToPtr@@QAEHPAX@Z 100396a0     mfc140:mfc140.dll
 0002:000006a4       __imp_?ShowWindow@CWnd@@QAEHH@Z 100396a4     mfc140:mfc140.dll
 0002:000006a8       __imp_??3CNoTrackObject@@SGXPAX@Z 100396a8     mfc140:mfc140.dll
 0002:000006ac       __imp_?GetData@CThreadLocalObject@@QAEPAVCNoTrackObject@@P6GPAV2@XZ@Z 100396ac     mfc140:mfc140.dll
 0002:000006b0       __imp_??0AFX_MODULE_THREAD_STATE@@QAE@XZ 100396b0     mfc140:mfc140.dll
 0002:000006b4       __imp_?AfxGetAppModuleState@@YGPAVAFX_MODULE_STATE@@XZ 100396b4     mfc140:mfc140.dll
 0002:000006b8       __imp_?AfxExtractSubString@@YGHAAV?$CStringT@DV?$StrTraitMFC_DLL@DV?$ChTraitsCRT@D@ATL@@@@@ATL@@PBDHD@Z 100396b8     mfc140:mfc140.dll
 0002:000006bc       __imp_?FromHandlePermanent@CWnd@@SGPAV1@PAUHWND__@@@Z 100396bc     mfc140:mfc140.dll
 0002:000006c0       __imp_?Attach@CWnd@@QAEHPAUHWND__@@@Z 100396c0     mfc140:mfc140.dll
 0002:000006c4       __imp_?Detach@CWnd@@QAEPAUHWND__@@XZ 100396c4     mfc140:mfc140.dll
 0002:000006c8       __imp_?GetWindowPlacement@CWnd@@QBEHPAUtagWINDOWPLACEMENT@@@Z 100396c8     mfc140:mfc140.dll
 0002:000006cc       __imp_?SetWindowPlacement@CWnd@@QAEHPBUtagWINDOWPLACEMENT@@@Z 100396cc     mfc140:mfc140.dll
 0002:000006d0       __imp_?ModifyStyleEx@CWnd@@SGHPAUHWND__@@KKI@Z 100396d0     mfc140:mfc140.dll
 0002:000006d4       __imp_?GetThisClass@CButton@@SGPAUCRuntimeClass@@XZ 100396d4     mfc140:mfc140.dll
 0002:000006d8       __imp_?Write@CArchive@@QAEXPBXI@Z 100396d8     mfc140:mfc140.dll
 0002:000006dc       __imp_??1CClientDC@@UAE@XZ 100396dc     mfc140:mfc140.dll
 0002:000006e0       __imp_??0CClientDC@@QAE@PAVCWnd@@@Z 100396e0     mfc140:mfc140.dll
 0002:000006e4       __imp_?SelectClipRgn@CDC@@QAEHPAVCRgn@@@Z 100396e4     mfc140:mfc140.dll
 0002:000006e8       __imp_?SetBkMode@CDC@@QAEHH@Z 100396e8     mfc140:mfc140.dll
 0002:000006ec       __imp_?FromHandle@CDC@@SGPAV1@PAUHDC__@@@Z 100396ec     mfc140:mfc140.dll
 0002:000006f0       __imp_?GetRuntimeClass@CRgn@@UBEPAUCRuntimeClass@@XZ 100396f0     mfc140:mfc140.dll
 0002:000006f4       __imp_?CreatePointFont@CFont@@QAEHHPBDPAVCDC@@@Z 100396f4     mfc140:mfc140.dll
 0002:000006f8       __imp_?GetRuntimeClass@CFont@@UBEPAUCRuntimeClass@@XZ 100396f8     mfc140:mfc140.dll
 0002:000006fc       __imp_??1CPtrArray@@UAE@XZ 100396fc     mfc140:mfc140.dll
 0002:00000700       __imp_?InsertAt@CPtrArray@@QAEXHPAXH@Z 10039700     mfc140:mfc140.dll
 0002:00000704       __imp_?SetSize@CPtrArray@@QAEXHH@Z 10039704     mfc140:mfc140.dll
 0002:00000708       __imp_??0CPtrArray@@QAE@XZ 10039708     mfc140:mfc140.dll
 0002:0000070c       __imp_?Compare@?$CStringT@DV?$StrTraitMFC_DLL@DV?$ChTraitsCRT@D@ATL@@@@@ATL@@QBEHPBD@Z 1003970c     mfc140:mfc140.dll
 0002:00000710       __imp_??0?$CStringT@DV?$StrTraitMFC_DLL@DV?$ChTraitsCRT@D@ATL@@@@@ATL@@QAE@ABV01@@Z 10039710     mfc140:mfc140.dll
 0002:00000714       __imp_?AfxThrowOleException@@YGXJ@Z 10039714     mfc140:mfc140.dll
 0002:00000718       __imp_?AfxThrowInvalidArgException@@YGXXZ 10039718     mfc140:mfc140.dll
 0002:0000071c       __imp_?AfxThrowMemoryException@@YGXXZ 1003971c     mfc140:mfc140.dll
 0002:00000720       __imp_??_U@YAPAXI@Z        10039720     mfc140:mfc140.dll
 0002:00000724       __imp_?OnChildNotify@CHeaderCtrl@@MAEHIIJPAJ@Z 10039724     mfc140:mfc140.dll
 0002:00000728       __imp_??1CHeaderCtrl@@UAE@XZ 10039728     mfc140:mfc140.dll
 0002:0000072c       __imp_?DrawItem@CHeaderCtrl@@UAEXPAUtagDRAWITEMSTRUCT@@@Z 1003972c     mfc140:mfc140.dll
 0002:00000730       __imp_?CreateEx@CHeaderCtrl@@UAEHKKABUtagRECT@@PAVCWnd@@I@Z 10039730     mfc140:mfc140.dll
 0002:00000734       __imp_?Create@CHeaderCtrl@@UAEHKABUtagRECT@@PAVCWnd@@I@Z 10039734     mfc140:mfc140.dll
 0002:00000738       __imp_?GetRuntimeClass@CHeaderCtrl@@UBEPAUCRuntimeClass@@XZ 10039738     mfc140:mfc140.dll
 0002:0000073c       __imp_?GetThisClass@CHeaderCtrl@@SGPAUCRuntimeClass@@XZ 1003973c     mfc140:mfc140.dll
 0002:00000740       __imp_?OnSysColorChange@CWnd@@IAEXXZ 10039740     mfc140:mfc140.dll
 0002:00000744       __imp_?GetDlgCtrlID@CWnd@@QBEHXZ 10039744     mfc140:mfc140.dll
 0002:00000748       __imp_?DrawIndirect@CImageList@@QAEHPAVCDC@@HUtagPOINT@@UtagSIZE@@1IKKKKKK@Z 10039748     mfc140:mfc140.dll
 0002:0000074c       __imp_?FromHandle@CImageList@@SGPAV1@PAU_IMAGELIST@@@Z 1003974c     mfc140:mfc140.dll
 0002:00000750       __imp_??1CPaintDC@@UAE@XZ  10039750     mfc140:mfc140.dll
 0002:00000754       __imp_??0CPaintDC@@QAE@PAVCWnd@@@Z 10039754     mfc140:mfc140.dll
 0002:00000758       __imp_?SelectGdiObject@CDC@@KGPAVCGdiObject@@PAUHDC__@@PAX@Z 10039758     mfc140:mfc140.dll
 0002:0000075c       __imp_??1CDC@@UAE@XZ       1003975c     mfc140:mfc140.dll
 0002:00000760       __imp_?Draw3dRect@CDC@@QAEXPBUtagRECT@@KK@Z 10039760     mfc140:mfc140.dll
 0002:00000764       __imp_?FillSolidRect@CDC@@QAEXPBUtagRECT@@K@Z 10039764     mfc140:mfc140.dll
 0002:00000768       __imp_?LineTo@CDC@@QAEHHH@Z 10039768     mfc140:mfc140.dll
 0002:0000076c       __imp_?MoveTo@CDC@@QAE?AVCPoint@@HH@Z 1003976c     mfc140:mfc140.dll
 0002:00000770       __imp_?GetClipBox@CDC@@UBEHPAUtagRECT@@@Z 10039770     mfc140:mfc140.dll
 0002:00000774       __imp_?ScaleWindowExt@CDC@@UAE?AVCSize@@HHHH@Z 10039774     mfc140:mfc140.dll
 0002:00000778       __imp_?SetWindowExt@CDC@@UAE?AVCSize@@HH@Z 10039778     mfc140:mfc140.dll
 0002:0000077c       __imp_?SetWindowOrg@CDC@@QAE?AVCPoint@@HH@Z 1003977c     mfc140:mfc140.dll
 0002:00000780       __imp_?ScaleViewportExt@CDC@@UAE?AVCSize@@HHHH@Z 10039780     mfc140:mfc140.dll
 0002:00000784       __imp_?SetViewportExt@CDC@@UAE?AVCSize@@HH@Z 10039784     mfc140:mfc140.dll
 0002:00000788       __imp_?OffsetViewportOrg@CDC@@UAE?AVCPoint@@HH@Z 10039788     mfc140:mfc140.dll
 0002:0000078c       __imp_?SetViewportOrg@CDC@@UAE?AVCPoint@@HH@Z 1003978c     mfc140:mfc140.dll
 0002:00000790       __imp_?SetMapMode@CDC@@UAEHH@Z 10039790     mfc140:mfc140.dll
 0002:00000794       __imp_?SetTextColor@CDC@@UAEKK@Z 10039794     mfc140:mfc140.dll
 0002:00000798       __imp_?SetBkColor@CDC@@UAEKK@Z 10039798     mfc140:mfc140.dll
 0002:0000079c       __imp_?SelectObject@CDC@@UAEPAVCFont@@PAV2@@Z 1003979c     mfc140:mfc140.dll
 0002:000007a0       __imp_?SelectObject@CDC@@QAEPAVCPen@@PAV2@@Z 100397a0     mfc140:mfc140.dll
 0002:000007a4       __imp_?SelectStockObject@CDC@@UAEPAVCGdiObject@@H@Z 100397a4     mfc140:mfc140.dll
 0002:000007a8       __imp_?RestoreDC@CDC@@UAEHH@Z 100397a8     mfc140:mfc140.dll
 0002:000007ac       __imp_?SaveDC@CDC@@UAEHXZ  100397ac     mfc140:mfc140.dll
 0002:000007b0       __imp_??0CDC@@QAE@XZ       100397b0     mfc140:mfc140.dll
 0002:000007b4       __imp_?ReleaseOutputDC@CDC@@UAEXXZ 100397b4     mfc140:mfc140.dll
 0002:000007b8       __imp_?ReleaseAttribDC@CDC@@UAEXXZ 100397b8     mfc140:mfc140.dll
 0002:000007bc       __imp_?SetOutputDC@CDC@@UAEXPAUHDC__@@@Z 100397bc     mfc140:mfc140.dll
 0002:000007c0       __imp_?SetAttribDC@CDC@@UAEXPAUHDC__@@@Z 100397c0     mfc140:mfc140.dll
 0002:000007c4       __imp_?Attach@CDC@@QAEHPAUHDC__@@@Z 100397c4     mfc140:mfc140.dll
 0002:000007c8       __imp_?GetRuntimeClass@CDC@@UBEPAUCRuntimeClass@@XZ 100397c8     mfc140:mfc140.dll
 0002:000007cc       __imp_?GetRuntimeClass@CBitmap@@UBEPAUCRuntimeClass@@XZ 100397cc     mfc140:mfc140.dll
 0002:000007d0       __imp_??0CPen@@QAE@HHK@Z   100397d0     mfc140:mfc140.dll
 0002:000007d4       __imp_?GetRuntimeClass@CPen@@UBEPAUCRuntimeClass@@XZ 100397d4     mfc140:mfc140.dll
 0002:000007d8       __imp_?DeleteObject@CGdiObject@@QAEHXZ 100397d8     mfc140:mfc140.dll
 0002:000007dc       __imp_?Attach@CGdiObject@@QAEHPAX@Z 100397dc     mfc140:mfc140.dll
 0002:000007e0       __imp_?FromHandle@CGdiObject@@SGPAV1@PAX@Z 100397e0     mfc140:mfc140.dll
 0002:000007e4       __imp_?GetRuntimeClass@CGdiObject@@UBEPAUCRuntimeClass@@XZ 100397e4     mfc140:mfc140.dll
 0002:000007e8       __imp_??1CEdit@@UAE@XZ     100397e8     mfc140:mfc140.dll
 0002:000007ec       __imp_?GetRuntimeClass@CEdit@@UBEPAUCRuntimeClass@@XZ 100397ec     mfc140:mfc140.dll
 0002:000007f0       __imp_?GetWindowTextA@CWnd@@QBEXAAV?$CStringT@DV?$StrTraitMFC_DLL@DV?$ChTraitsCRT@D@ATL@@@@@ATL@@@Z 100397f0     mfc140:mfc140.dll
 0002:000007f4       __imp_??1CDateTimeCtrl@@UAE@XZ 100397f4     mfc140:mfc140.dll
 0002:000007f8       __imp_?Create@CDateTimeCtrl@@UAEHKABUtagRECT@@PAVCWnd@@I@Z 100397f8     mfc140:mfc140.dll
 0002:000007fc       __imp_?GetRuntimeClass@CDateTimeCtrl@@UBEPAUCRuntimeClass@@XZ 100397fc     mfc140:mfc140.dll
 0002:00000800       __imp_?GetThisMessageMap@CWnd@@KGPBUAFX_MSGMAP@@XZ 10039800     mfc140:mfc140.dll
 0002:00000804       __imp_?Default@CWnd@@IAEJXZ 10039804     mfc140:mfc140.dll
 0002:00000808       __imp_?Create@CWnd@@UAEHPBD0KABUtagRECT@@PAV1@IPAUCCreateContext@@@Z 10039808     mfc140:mfc140.dll
 0002:0000080c       __imp_?FromHandle@CWnd@@SGPAV1@PAUHWND__@@@Z 1003980c     mfc140:mfc140.dll
 0002:00000810       __imp_?InvokeHelper@CWnd@@QAAXJGGPAXPBEZZ 10039810     mfc140:mfc140.dll
 0002:00000814       __imp_?GetMessageMap@CWnd@@MBEPBUAFX_MSGMAP@@XZ 10039814     mfc140:mfc140.dll
 0002:00000818       __imp_?GetOccDialogInfo@CWnd@@MAEPAU_AFX_OCC_DIALOG_INFO@@XZ 10039818     mfc140:mfc140.dll
 0002:0000081c       __imp_?SetOccDialogInfo@CWnd@@MAEHPAU_AFX_OCC_DIALOG_INFO@@@Z 1003981c     mfc140:mfc140.dll
 0002:00000820       __imp_?CreateControlSite@CWnd@@MAEHPAVCOleControlContainer@@PAPAVCOleControlSite@@IABU_GUID@@@Z 10039820     mfc140:mfc140.dll
 0002:00000824       __imp_?CreateControlContainer@CWnd@@MAEHPAPAVCOleControlContainer@@@Z 10039824     mfc140:mfc140.dll
 0002:00000828       __imp_?OnFinalRelease@CWnd@@UAEXXZ 10039828     mfc140:mfc140.dll
 0002:0000082c       __imp_?IsFrameWnd@CWnd@@UBEHXZ 1003982c     mfc140:mfc140.dll
 0002:00000830       __imp_?CheckAutoCenter@CWnd@@UAEHXZ 10039830     mfc140:mfc140.dll
 0002:00000834       __imp_??1CWnd@@UAE@XZ      10039834     mfc140:mfc140.dll
 0002:00000838       __imp_?ResizeDynamicLayout@CWnd@@MAEXXZ 10039838     mfc140:mfc140.dll
 0002:0000083c       __imp_?OnGesturePressAndTap@CWnd@@MAEHVCPoint@@J@Z 1003983c     mfc140:mfc140.dll
 0002:00000840       __imp_?OnGestureTwoFingerTap@CWnd@@MAEHVCPoint@@@Z 10039840     mfc140:mfc140.dll
 0002:00000844       __imp_?OnGestureRotate@CWnd@@MAEHVCPoint@@N@Z 10039844     mfc140:mfc140.dll
 0002:00000848       __imp_?OnGesturePan@CWnd@@MAEHVCPoint@@0@Z 10039848     mfc140:mfc140.dll
 0002:0000084c       __imp_?OnGestureZoom@CWnd@@MAEHVCPoint@@J@Z 1003984c     mfc140:mfc140.dll
 0002:00000850       __imp_?GetGestureStatus@CWnd@@MAEKVCPoint@@@Z 10039850     mfc140:mfc140.dll
 0002:00000854       __imp_?OnTouchInput@CWnd@@MAEHVCPoint@@HHPAUtagTOUCHINPUT@@@Z 10039854     mfc140:mfc140.dll
 0002:00000858       __imp_?OnTouchInputs@CWnd@@MAEHIPAUtagTOUCHINPUT@@@Z 10039858     mfc140:mfc140.dll
 0002:0000085c       __imp_?OnChildNotify@CWnd@@MAEHIIJPAJ@Z 1003985c     mfc140:mfc140.dll
 0002:00000860       __imp_?PostNcDestroy@CWnd@@MAEXXZ 10039860     mfc140:mfc140.dll
 0002:00000864       __imp_?DefWindowProcA@CWnd@@MAEJIIJ@Z 10039864     mfc140:mfc140.dll
 0002:00000868       __imp_?OnWndMsg@CWnd@@MAEHIIJPAJ@Z 10039868     mfc140:mfc140.dll
 0002:0000086c       __imp_?WindowProc@CWnd@@MAEJIIJ@Z 1003986c     mfc140:mfc140.dll
 0002:00000870       __imp_?OnAmbientProperty@CWnd@@UAEHPAVCOleControlSite@@JPAUtagVARIANT@@@Z 10039870     mfc140:mfc140.dll
 0002:00000874       __imp_?PreTranslateMessage@CWnd@@UAEHPAUtagMSG@@@Z 10039874     mfc140:mfc140.dll
 0002:00000878       __imp_?GetSuperWndProcAddr@CWnd@@MAEPAP6GJPAUHWND__@@IIJ@ZXZ 10039878     mfc140:mfc140.dll
 0002:0000087c       __imp_?OnNotify@CWnd@@MAEHIJPAJ@Z 1003987c     mfc140:mfc140.dll
 0002:00000880       __imp_?OnCommand@CWnd@@MAEHIJ@Z 10039880     mfc140:mfc140.dll
 0002:00000884       __imp_?CreateAccessibleProxy@CWnd@@UAEJIJPAJ@Z 10039884     mfc140:mfc140.dll
 0002:00000888       __imp_?SetProxy@CWnd@@UAEJPAUIAccessibleProxy@@@Z 10039888     mfc140:mfc140.dll
 0002:0000088c       __imp_?put_accValue@CWnd@@UAEJUtagVARIANT@@PA_W@Z 1003988c     mfc140:mfc140.dll
 0002:00000890       __imp_?put_accName@CWnd@@UAEJUtagVARIANT@@PA_W@Z 10039890     mfc140:mfc140.dll
 0002:00000894       __imp_?accDoDefaultAction@CWnd@@UAEJUtagVARIANT@@@Z 10039894     mfc140:mfc140.dll
 0002:00000898       __imp_?accHitTest@CWnd@@UAEJJJPAUtagVARIANT@@@Z 10039898     mfc140:mfc140.dll
 0002:0000089c       __imp_?accNavigate@CWnd@@UAEJJUtagVARIANT@@PAU2@@Z 1003989c     mfc140:mfc140.dll
 0002:000008a0       __imp_?accLocation@CWnd@@UAEJPAJ000UtagVARIANT@@@Z 100398a0     mfc140:mfc140.dll
 0002:000008a4       __imp_?accSelect@CWnd@@UAEJJUtagVARIANT@@@Z 100398a4     mfc140:mfc140.dll
 0002:000008a8       __imp_?get_accDefaultAction@CWnd@@UAEJUtagVARIANT@@PAPA_W@Z 100398a8     mfc140:mfc140.dll
 0002:000008ac       __imp_?get_accSelection@CWnd@@UAEJPAUtagVARIANT@@@Z 100398ac     mfc140:mfc140.dll
 0002:000008b0       __imp_?get_accFocus@CWnd@@UAEJPAUtagVARIANT@@@Z 100398b0     mfc140:mfc140.dll
 0002:000008b4       __imp_?get_accKeyboardShortcut@CWnd@@UAEJUtagVARIANT@@PAPA_W@Z 100398b4     mfc140:mfc140.dll
 0002:000008b8       __imp_?get_accHelpTopic@CWnd@@UAEJPAPA_WUtagVARIANT@@PAJ@Z 100398b8     mfc140:mfc140.dll
 0002:000008bc       __imp_?get_accHelp@CWnd@@UAEJUtagVARIANT@@PAPA_W@Z 100398bc     mfc140:mfc140.dll
 0002:000008c0       __imp_?get_accState@CWnd@@UAEJUtagVARIANT@@PAU2@@Z 100398c0     mfc140:mfc140.dll
 0002:000008c4       __imp_?get_accRole@CWnd@@UAEJUtagVARIANT@@PAU2@@Z 100398c4     mfc140:mfc140.dll
 0002:000008c8       __imp_?get_accDescription@CWnd@@UAEJUtagVARIANT@@PAPA_W@Z 100398c8     mfc140:mfc140.dll
 0002:000008cc       __imp_?get_accValue@CWnd@@UAEJUtagVARIANT@@PAPA_W@Z 100398cc     mfc140:mfc140.dll
 0002:000008d0       __imp_?get_accName@CWnd@@UAEJUtagVARIANT@@PAPA_W@Z 100398d0     mfc140:mfc140.dll
 0002:000008d4       __imp_?get_accChild@CWnd@@UAEJUtagVARIANT@@PAPAUIDispatch@@@Z 100398d4     mfc140:mfc140.dll
 0002:000008d8       __imp_?get_accChildCount@CWnd@@UAEJPAJ@Z 100398d8     mfc140:mfc140.dll
 0002:000008dc       __imp_?get_accParent@CWnd@@UAEJPAPAUIDispatch@@@Z 100398dc     mfc140:mfc140.dll
 0002:000008e0       __imp_?EnsureStdObj@CWnd@@UAEJXZ 100398e0     mfc140:mfc140.dll
 0002:000008e4       __imp_?GetInterfaceMap@CWnd@@MBEPBUAFX_INTERFACEMAP@@XZ 100398e4     mfc140:mfc140.dll
 0002:000008e8       __imp_?OnDrawIconicThumbnailOrLivePreview@CWnd@@UAEXAAVCDC@@VCRect@@VCSize@@HAAH@Z 100398e8     mfc140:mfc140.dll
 0002:000008ec       __imp_?EndModalLoop@CWnd@@UAEXH@Z 100398ec     mfc140:mfc140.dll
 0002:000008f0       __imp_?ContinueModal@CWnd@@UAEHXZ 100398f0     mfc140:mfc140.dll
 0002:000008f4       __imp_?WinHelpInternal@CWnd@@UAEXKI@Z 100398f4     mfc140:mfc140.dll
 0002:000008f8       __imp_?HtmlHelpA@CWnd@@UAEXKI@Z 100398f8     mfc140:mfc140.dll
 0002:000008fc       __imp_?WinHelpA@CWnd@@UAEXKI@Z 100398fc     mfc140:mfc140.dll
 0002:00000900       __imp_?GetScrollBarCtrl@CWnd@@UBEPAVCScrollBar@@H@Z 10039900     mfc140:mfc140.dll
 0002:00000904       __imp_?OnToolHitTest@CWnd@@UBEHVCPoint@@PAUtagTOOLINFOA@@@Z 10039904     mfc140:mfc140.dll
 0002:00000908       __imp_?SetMenu@CWnd@@UAEHPAVCMenu@@@Z 10039908     mfc140:mfc140.dll
 0002:0000090c       __imp_?GetMenu@CWnd@@UBEPAVCMenu@@XZ 1003990c     mfc140:mfc140.dll
 0002:00000910       __imp_?CalcWindowRect@CWnd@@UAEXPAUtagRECT@@I@Z 10039910     mfc140:mfc140.dll
 0002:00000914       __imp_?PreCreateWindow@CWnd@@UAEHAAUtagCREATESTRUCTA@@@Z 10039914     mfc140:mfc140.dll
 0002:00000918       __imp_?DestroyWindow@CWnd@@UAEHXZ 10039918     mfc140:mfc140.dll
 0002:0000091c       __imp_?CreateControl@CWnd@@QAEHABU_GUID@@PBDKABUtagRECT@@PAV1@IPAVCFile@@HPA_W@Z 1003991c     mfc140:mfc140.dll
 0002:00000920       __imp_?CreateEx@CWnd@@UAEHKPBD0KABUtagRECT@@PAV1@IPAX@Z 10039920     mfc140:mfc140.dll
 0002:00000924       __imp_?CreateEx@CWnd@@UAEHKPBD0KHHHHPAUHWND__@@PAUHMENU__@@PAX@Z 10039924     mfc140:mfc140.dll
 0002:00000928       __imp_?PreSubclassWindow@CWnd@@UAEXXZ 10039928     mfc140:mfc140.dll
 0002:0000092c       __imp_??0CWnd@@QAE@XZ      1003992c     mfc140:mfc140.dll
 0002:00000930       __imp_?GetThisClass@CWnd@@SGPAUCRuntimeClass@@XZ 10039930     mfc140:mfc140.dll
 0002:00000934       __imp_?GetConnectionHook@CCmdTarget@@MAEPAUIConnectionPoint@@ABU_GUID@@@Z 10039934     mfc140:mfc140.dll
 0002:00000938       __imp_?GetExtraConnectionPoints@CCmdTarget@@MAEHPAVCPtrArray@@@Z 10039938     mfc140:mfc140.dll
 0002:0000093c       __imp_?GetInterfaceHook@CCmdTarget@@UAEPAUIUnknown@@PBX@Z 1003993c     mfc140:mfc140.dll
 0002:00000940       __imp_?OnCreateAggregates@CCmdTarget@@UAEHXZ 10039940     mfc140:mfc140.dll
 0002:00000944       __imp_?GetEventSinkMap@CCmdTarget@@MBEPBUAFX_EVENTSINKMAP@@XZ 10039944     mfc140:mfc140.dll
 0002:00000948       __imp_?GetConnectionMap@CCmdTarget@@MBEPBUAFX_CONNECTIONMAP@@XZ 10039948     mfc140:mfc140.dll
 0002:0000094c       __imp_?GetDispatchMap@CCmdTarget@@MBEPBUAFX_DISPMAP@@XZ 1003994c     mfc140:mfc140.dll
 0002:00000950       __imp_?GetCommandMap@CCmdTarget@@MBEPBUAFX_OLECMDMAP@@XZ 10039950     mfc140:mfc140.dll
 0002:00000954       __imp_?GetTypeLib@CCmdTarget@@UAEJKPAPAUITypeLib@@@Z 10039954     mfc140:mfc140.dll
 0002:00000958       __imp_?GetTypeLibCache@CCmdTarget@@UAEPAVCTypeLibCache@@XZ 10039958     mfc140:mfc140.dll
 0002:0000095c       __imp_?GetTypeInfoCount@CCmdTarget@@UAEIXZ 1003995c     mfc140:mfc140.dll
 0002:00000960       __imp_?GetRuntimeClass@CTabCtrl@@UBEPAUCRuntimeClass@@XZ 10039960     mfc140:mfc140.dll
 0002:00000964       __imp_?Read@CArchive@@QAEIPAXI@Z 10039964     mfc140:mfc140.dll
 0002:00000968       __imp_?ClientToScreen@CWnd@@QBEXPAUtagRECT@@@Z 10039968     mfc140:mfc140.dll
 0002:0000096c       __imp_?GetRuntimeClass@CObject@@UBEPAUCRuntimeClass@@XZ 1003996c     mfc140:mfc140.dll
 0002:00000970       __imp_?GetDispatchIID@CCmdTarget@@UAEHPAU_GUID@@@Z 10039970     mfc140:mfc140.dll
 0002:00000974       __imp_?IsInvokeAllowed@CCmdTarget@@UAEHJ@Z 10039974     mfc140:mfc140.dll
 0002:00000978       __imp_?OnCmdMsg@CCmdTarget@@UAEHIHPAXPAUAFX_CMDHANDLERINFO@@@Z 10039978     mfc140:mfc140.dll
 0002:0000097c       __imp_??2@YAPAXI@Z         1003997c     mfc140:mfc140.dll
 0002:00000980       __imp_?InvokeHelper@COleDispatchDriver@@QAAXJGGPAXPBEZZ 10039980     mfc140:mfc140.dll
 0002:00000984       __imp_?ReleaseDispatch@COleDispatchDriver@@QAEXXZ 10039984     mfc140:mfc140.dll
 0002:00000988       __imp_??0COleDispatchDriver@@QAE@PAUIDispatch@@H@Z 10039988     mfc140:mfc140.dll
 0002:0000098c       __imp_??3@YAXPAX@Z         1003998c     mfc140:mfc140.dll
 0002:00000990       __imp_?AfxMessageBox@@YGHPBDII@Z 10039990     mfc140:mfc140.dll
 0002:00000994       __imp_?Format@?$CStringT@DV?$StrTraitMFC_DLL@DV?$ChTraitsCRT@D@ATL@@@@@ATL@@QAAXPBDZZ 10039994     mfc140:mfc140.dll
 0002:00000998       __imp_?Left@?$CStringT@DV?$StrTraitMFC_DLL@DV?$ChTraitsCRT@D@ATL@@@@@ATL@@QBE?AV12@H@Z 10039998     mfc140:mfc140.dll
 0002:0000099c       __imp_?ReverseFind@?$CStringT@DV?$StrTraitMFC_DLL@DV?$ChTraitsCRT@D@ATL@@@@@ATL@@QBEHD@Z 1003999c     mfc140:mfc140.dll
 0002:000009a0       __imp_?GetManager@?$CStringT@DV?$StrTraitMFC_DLL@DV?$ChTraitsCRT@D@ATL@@@@@ATL@@QBEPAUIAtlStringMgr@2@XZ 100399a0     mfc140:mfc140.dll
 0002:000009a4       __imp_??4?$CStringT@DV?$StrTraitMFC_DLL@DV?$ChTraitsCRT@D@ATL@@@@@ATL@@QAEAAV01@PBD@Z 100399a4     mfc140:mfc140.dll
 0002:000009a8       __imp_??4?$CStringT@DV?$StrTraitMFC_DLL@DV?$ChTraitsCRT@D@ATL@@@@@ATL@@QAEAAV01@ABV01@@Z 100399a8     mfc140:mfc140.dll
 0002:000009ac       __imp_??1?$CStringT@DV?$StrTraitMFC_DLL@DV?$ChTraitsCRT@D@ATL@@@@@ATL@@QAE@XZ 100399ac     mfc140:mfc140.dll
 0002:000009b0       __imp_??0?$CStringT@DV?$StrTraitMFC_DLL@DV?$ChTraitsCRT@D@ATL@@@@@ATL@@QAE@PBD@Z 100399b0     mfc140:mfc140.dll
 0002:000009b4       __imp_??0?$CStringT@DV?$StrTraitMFC_DLL@DV?$ChTraitsCRT@D@ATL@@@@@ATL@@QAE@PAUIAtlStringMgr@1@@Z 100399b4     mfc140:mfc140.dll
 0002:000009b8       __imp_?AfxThrowArchiveException@@YGXHPBD@Z 100399b8     mfc140:mfc140.dll
 0002:000009bc       __imp_??_V@YAXPAX@Z        100399bc     mfc140:mfc140.dll
 0002:000009c0       __imp_?GetMessageMap@CListCtrl@@MBEPBUAFX_MSGMAP@@XZ 100399c0     mfc140:mfc140.dll
 0002:000009c4       __imp_?GetThisMessageMap@CListCtrl@@KGPBUAFX_MSGMAP@@XZ 100399c4     mfc140:mfc140.dll
 0002:000009c8       __imp_?OnChildNotify@CListCtrl@@MAEHIIJPAJ@Z 100399c8     mfc140:mfc140.dll
 0002:000009cc       __imp_??1CListCtrl@@UAE@XZ 100399cc     mfc140:mfc140.dll
 0002:000009d0       __imp_??0?$CStringT@DV?$StrTraitMFC_DLL@DV?$ChTraitsCRT@D@ATL@@@@@ATL@@QAE@XZ 100399d0     mfc140:mfc140.dll
 0002:000009d4       __imp_?InsertItem@CListCtrl@@QAEHIHPBDIIHJ@Z 100399d4     mfc140:mfc140.dll
 0002:000009d8       __imp_?Concatenate@?$CSimpleStringT@D$00@ATL@@KAXAAV12@PBDH1H@Z 100399d8     mfc140:mfc140.dll
 0002:000009dc       __imp_?ReleaseBuffer@?$CSimpleStringT@D$00@ATL@@QAEXH@Z 100399dc     mfc140:mfc140.dll
 0002:000009e0       __imp_?SetWindowPos@CWnd@@QAEHPBV1@HHHHI@Z 100399e0     mfc140:mfc140.dll
 0002:000009e4       __imp_?ModifyStyle@CWnd@@QAEHKKI@Z 100399e4     mfc140:mfc140.dll
 0002:000009e8       __imp_??2CNoTrackObject@@SGPAXI@Z 100399e8     mfc140:mfc140.dll
 0002:000009ec       __imp_?DrawItem@CListCtrl@@UAEXPAUtagDRAWITEMSTRUCT@@@Z 100399ec     mfc140:mfc140.dll
 0002:000009f0       __imp_?GetBufferSetLength@?$CSimpleStringT@D$00@ATL@@QAEPADH@Z 100399f0     mfc140:mfc140.dll
 0002:000009f4       __imp_?WriteCount@CArchive@@QAEXK@Z 100399f4     mfc140:mfc140.dll
 0002:000009f8       __imp_?GetSubItemRect@CListCtrl@@QBEHHHHAAVCRect@@@Z 100399f8     mfc140:mfc140.dll
 0002:000009fc       __imp_?GetHeaderCtrl@CListCtrl@@QBEPAVCHeaderCtrl@@XZ 100399fc     mfc140:mfc140.dll
 0002:00000a00       __imp_?SetItemText@CListCtrl@@QAEHHHPBD@Z 10039a00     mfc140:mfc140.dll
 0002:00000a04       __imp_?GetItemText@CListCtrl@@QBE?AV?$CStringT@DV?$StrTraitMFC_DLL@DV?$ChTraitsCRT@D@ATL@@@@@ATL@@HH@Z 10039a04     mfc140:mfc140.dll
 0002:00000a08       __imp_?SetItemState@CListCtrl@@QAEHHII@Z 10039a08     mfc140:mfc140.dll
 0002:00000a0c       __imp_?GetItemRect@CListCtrl@@QBEHHPAUtagRECT@@I@Z 10039a0c     mfc140:mfc140.dll
 0002:00000a10       __imp_?GetRuntimeClass@CListCtrl@@UBEPAUCRuntimeClass@@XZ 10039a10     mfc140:mfc140.dll
 0002:00000a14       __imp_?Create@CEdit@@QAEHKABUtagRECT@@PAVCWnd@@I@Z 10039a14     mfc140:mfc140.dll
 0002:00000a18       __imp_?OnDestroy@CWnd@@IAEXXZ 10039a18     mfc140:mfc140.dll
 0002:00000a1c       __imp_?GetScrollPos@CWnd@@QBEHH@Z 10039a1c     mfc140:mfc140.dll
 0002:00000a20       __imp_?SetFocus@CWnd@@QAEPAV1@XZ 10039a20     mfc140:mfc140.dll
 0002:00000a24       __imp_?SetWindowTextA@CWnd@@QAEXPBD@Z 10039a24     mfc140:mfc140.dll
 0002:00000a28       __imp_?GetDlgItem@CWnd@@QBEPAV1@H@Z 10039a28     mfc140:mfc140.dll
 0002:00000a2c       __imp_?SubclassWindow@CWnd@@QAEHPAUHWND__@@@Z 10039a2c     mfc140:mfc140.dll
 0002:00000a30       __imp_?GetStyle@CWnd@@QBEKXZ 10039a30     mfc140:mfc140.dll
 0002:00000a34       __imp_?GetCurrentMessage@CWnd@@KGPBUtagMSG@@XZ 10039a34     mfc140:mfc140.dll
 0002:00000a38       __imp_??1CImageList@@UAE@XZ 10039a38     mfc140:mfc140.dll
 0002:00000a3c       __imp_?AfxLoadLibrary@@YGPAUHINSTANCE__@@PBD@Z 10039a3c     mfc140:mfc140.dll
 0002:00000a40       __imp_?Create@CImageList@@QAEHHHIHH@Z 10039a40     mfc140:mfc140.dll
 0002:00000a44       __imp_?SetScrollInfo@CWnd@@QAEHHPAUtagSCROLLINFO@@H@Z 10039a44     mfc140:mfc140.dll
 0002:00000a48       __imp_?GetBuffer@?$CSimpleStringT@D$00@ATL@@QAEPADH@Z 10039a48     mfc140:mfc140.dll
 0002:00000a4c       \177mfc140_NULL_THUNK_DATA 10039a4c     mfc140:mfc140.dll
 0002:00000a50       __imp__StringFromCLSID@8   10039a50     ole32:ole32.dll
 0002:00000a54       __imp__CLSIDFromProgID@8   10039a54     ole32:ole32.dll
 0002:00000a58       __imp__CoTaskMemFree@4     10039a58     ole32:ole32.dll
 0002:00000a5c       \177ole32_NULL_THUNK_DATA  10039a5c     ole32:ole32.dll
 0002:00000a60       ___guard_check_icall_fptr  10039a60     msvcrt:guard_support.obj
 0002:00000a64       ___guard_xfg_check_icall_fptr 10039a64     msvcrt:guard_support.obj
 0002:00000a68       ___xc_a                    10039a68     msvcrt:initializers.obj
 0002:00000cd8       ___xc_z                    10039cd8     msvcrt:initializers.obj
 0002:00000cdc       ___xi_a                    10039cdc     msvcrt:initializers.obj
 0002:00000ce4       ___xi_z                    10039ce4     msvcrt:initializers.obj
 0002:00000ce8       ___xl_a                    10039ce8     msvcrt:tlssup.obj
 0002:00000cec       ___xl_z                    10039cec     msvcrt:tlssup.obj
 0002:00000cf0       ___xp_a                    10039cf0     msvcrt:initializers.obj
 0002:00000cf4       ___xp_z                    10039cf4     msvcrt:initializers.obj
 0002:00000cf8       ___xt_a                    10039cf8     msvcrt:initializers.obj
 0002:00000cfc       ___xt_z                    10039cfc     msvcrt:initializers.obj
 0002:00000d00       ??_C@_0P@BKKCOCLK@RMSG_INTERFACE@ 10039d00     StrategyLoader.obj
 0002:00000d10       ??_C@_0BB@GOOPDKI@RMSG_GETPCTRDATA@ 10039d10     StrategyLoader.obj
 0002:00000d24       ??_C@_0BB@JPACFCL@RMSG_SETPCTRDATA@ 10039d24     StrategyLoader.obj
 0002:00000d38       ??_C@_06JHNIBAJK@CLSID?2@  10039d38     StrategyLoader.obj
 0002:00000d44       ??_7CStrategyLoader@@6B@   10039d44     StrategyLoader.obj
 0002:00000d48       ??_C@_0BA@CCGIMEPP@?2InprocServer32@ 10039d48     StrategyLoader.obj
 0002:00000d58       ??_C@_0P@IKCDKIKH@?2LocalServer32@ 10039d58     StrategyLoader.obj
 0002:00000d68       ??_C@_0M@CBBNGGHM@PcTrMng?4dll@ 10039d68     StrategyLoader.obj
 0002:00000d74       ??_C@_06NDLAHCHE@?$CFs?$CF08X@ 10039d74     StrategyLoader.obj
 0002:00000d7c       ??_C@_02EMFKHFLK@?$CFX@    10039d7c     StrategyLoader.obj
 0002:00000d80       ??_C@_0BD@CMCCCNBF@HANAROIGATEMANAGER@ 10039d80     StrategyLoader.obj
 0002:00000d94       ??_C@_0BN@KNJCMBJP@DataPath?$LI?$KG?5?$LO?r?$MA?$LL?5?$LM?v?5?$LO?x?$LN?$MA?$LE?O?$LE?Y?4@ 10039d94     StrategyLoader.obj
 0002:00000db4       ??_C@_0BD@PNOKNCJO@ChartMetaTable?4dat@ 10039db4     StrategyLoader.obj
 0002:00000dc8       ??_C@_01KICIPPFI@?2@       10039dc8     StrategyLoader.obj
 0002:00000dcc       ??_C@_0O@OMPLGAKB@Prog?5ID?5Error@ 10039dcc     StrategyLoader.obj
 0002:00000ddc       ??_C@_06FBGBHGJE@ProgID@   10039ddc     StrategyLoader.obj
 0002:00000de4       ??_C@_0O@GDACOMFO@Chart?5Version@ 10039de4     StrategyLoader.obj
 0002:00000df4       ??_C@_0P@KDDALGJC@IsDebugVersion@ 10039df4     StrategyLoader.obj
 0002:00000e04       ??_C@_0BE@DBKBGFJM@StrategyManager?4dll@ 10039e04     StrategyLoader.obj
 0002:00000e18       ??_C@_0BJ@EBHLMJOA@?$CFs?$MA?$LL?5Load?G?R?5?$LM?v?5?$LO?x?$LN?$MA?$LE?O?$LE?Y?4@ 10039e18     StrategyLoader.obj
 0002:00000e34       ??_C@_0BC@GBIBEELI@fnGetStrategyItem@ 10039e34     StrategyLoader.obj
 0002:00000e48       ??_C@_0CL@JIIGDICO@?$CFs?$LP?$KB?$LM?$KN?5fnGetStrategyItem?5?C?$KD?$MA?$LL?5?$LM@ 10039e48     StrategyLoader.obj
 0002:00000e74       ?classCMschart1@CMschart1@@2UCRuntimeClass@@B 10039e74     mschart1.obj
 0002:00000e94       ??_7CMschart1@@6B@         10039e94     mschart1.obj
 0002:00001000       ?clsid@?1??GetClsid@CMschart1@@QAEABU_GUID@@XZ@4U3@B 1003a000     mschart1.obj
 0002:00001010       ??_C@_09MKMCHDJC@CMschart1@ 1003a010     mschart1.obj
 0002:0000101c       ?classCTChart@CTChart@@2UCRuntimeClass@@B 1003a01c     tchart.obj
 0002:0000103c       ??_7CTChart@@6B@           1003a03c     tchart.obj
 0002:000011a8       ?clsid@?1??GetClsid@CTChart@@QAEABU_GUID@@XZ@4U3@B 1003a1a8     tchart.obj
 0002:000011b8       ??_C@_07FFGHPMNI@CTChart@  1003a1b8     tchart.obj
 0002:000011c0       ??_C@_0BG@NFBLAAIP@WM_DATETIME_VK_RETURN@ 1003a1c0     XDateTime.obj
 0002:000011d8       ??_C@_0BG@EPCGMFLG@WM_DATETIME_VK_ESCAPE@ 1003a1d8     XDateTime.obj
 0002:000011f4       ??_7CDateTimeCtrl@@6B@     1003a1f4     XDateTime.obj
 0002:00001368       ??_7CXDateTime@@6B@        1003a368     XDateTime.obj
 0002:00001510       ??_C@_0BD@LPKGMEPL@WM_XEDIT_VK_RETURN@ 1003a510     XEdit.obj
 0002:00001524       ??_C@_0BD@CFJLABMC@WM_XEDIT_VK_ESCAPE@ 1003a524     XEdit.obj
 0002:0000153c       ??_7CEdit@@6B@             1003a53c     XEdit.obj
 0002:000016ac       ??_7CXEdit@@6B@            1003a6ac     XEdit.obj
 0002:00001854       ??_7CGdiObject@@6B@        1003a854     XHeaderCtrl.obj
 0002:0000186c       ??_7CPen@@6B@              1003a86c     XHeaderCtrl.obj
 0002:00001884       ??_7CBitmap@@6B@           1003a884     XHeaderCtrl.obj
 0002:00001898       ??_C@_0HD@JJCHHHNK@C?3?2Program?5Files?5?$CIx86?$CJ?2Microsof@ 1003a898     XHeaderCtrl.obj
 0002:0000190c       ??_C@_0BP@OIEOKIDM@Exception?5thrown?5in?5destructor@ 1003a90c     XHeaderCtrl.obj
 0002:0000192c       ??_C@_0BB@HBOOMJBF@?$CFTs?5?$CI?$CFTs?3?$CFd?$CJ?6?$CFTs@ 1003a92c     XHeaderCtrl.obj
 0002:00001940       ??_C@_0N@OMEMOKLE@?$CFTs?5?$CI?$CFTs?3?$CFd?$CJ@ 1003a940     XHeaderCtrl.obj
 0002:00001954       ??_7CHeaderCtrl@@6B@       1003a954     XHeaderCtrl.obj
 0002:00001ad0       ??_7CMemDC@@6B@            1003aad0     XHeaderCtrl.obj
 0002:00001b50       ?classCXHeaderCtrl@CXHeaderCtrl@@2UCRuntimeClass@@B 1003ab50     XHeaderCtrl.obj
 0002:00001b70       ??_7CXHeaderCtrl@@6B@      1003ab70     XHeaderCtrl.obj
 0002:00001cec       ??_C@_0N@HEBACGJN@CXHeaderCtrl@ 1003acec     XHeaderCtrl.obj
 0002:00001de0       ??_C@_0BN@EIACCKJ@WM_XLISTCTRL_COMBO_SELECTION@ 1003ade0     XListCtrl.obj
 0002:00001e00       ??_C@_0BO@GDHDGILD@WM_XLISTCTRL_CHECKBOX_CLICKED@ 1003ae00     XListCtrl.obj
 0002:00001e20       ??_C@_0BJ@EGNIFBLF@WM_XLISTCTRL_EDIT_RETURN@ 1003ae20     XListCtrl.obj
 0002:00001e3c       ??_C@_02DPKJAMEF@?$CFd@    1003ae3c     XListCtrl.obj
 0002:00001e3f       ??_C@_00CNPNBAHC@@         1003ae3f     XListCtrl.obj
 0002:00001e44       ??_7CFont@@6B@             1003ae44     XListCtrl.obj
 0002:00001e5c       ??_7CRgn@@6B@              1003ae5c     XListCtrl.obj
 0002:00001e74       ??_7CListCtrl@@6B@         1003ae74     XListCtrl.obj
 0002:00001fe8       ??_7CXListCtrl@@6B@        1003afe8     XListCtrl.obj
 0002:000022d0       ??_C@_08EMGABEEF@MS?5Serif@ 1003b2d0     XListCtrl.obj
 0002:000022dc       ??_C@_04FCMNJMCO@?$CFd?$CF?$CF@ 1003b2dc     XListCtrl.obj
 0002:000022e4       ??_C@_03MKCEMJLP@esc@      1003b2e4     XListCtrl.obj
 0002:000022ec       ??_7CTabCtrl@@6B@          1003b2ec     XTabCtrl.obj
 0002:00002468       ??_7?$CArray@HH@@6B@       1003b468     XTabCtrl.obj
 0002:00002480       ??_7CXTabCtrl@@6B@         1003b480     XTabCtrl.obj
 0002:000026f0       ??_C@_01CLKCMJKC@?5@       1003b6f0     XTabCtrl.obj
 0002:000026f4       ??_C@_0BA@DEABJHGB@RMSG_GETDLLSIZE@ 1003b6f4     DlgAnalysis.obj
 0002:00002704       ??_C@_0BA@CKCOCACI@RMSG_SETDLLSIZE@ 1003b704     DlgAnalysis.obj
 0002:00002714       ??_C@_0BO@DBLNBLBD@RMSG_STDATAMANAGER_RESULTDATA@ 1003b714     DlgAnalysis.obj
 0002:00002734       ??_C@_0BE@FJPKENOB@RMSG_GETSIGNAL_REAL@ 1003b734     DlgAnalysis.obj
 0002:00002748       ??_C@_0BB@CNOFPEHG@RMSG_SETQUERYOPT@ 1003b748     DlgAnalysis.obj
 0002:0000275c       ??_C@_0P@KHFCBIOH@RMSG_CHARTMAIN@ 1003b75c     DlgAnalysis.obj
 0002:0000276c       ??_C@_0BC@MMPGLPDH@RMS_ANALYSIS_FUNC@ 1003b76c     DlgAnalysis.obj
 0002:00002780       ??_C@_0BA@HKNFENJL@RMSG_GET_USERID@ 1003b780     DlgAnalysis.obj
 0002:00002790       ??_C@_0BG@CNPAHNGG@RMSG_CHANGE_SKINCOLOR@ 1003b790     DlgAnalysis.obj
 0002:000027a8       ??_C@_0BD@FLDNDDHK@RMSG_GET_SKINCOLOR@ 1003b7a8     DlgAnalysis.obj
 0002:000027bc       ??_C@_0BJ@JLKHIBIK@RMSG_CHANGEVERTSCALETYPE@ 1003b7bc     DlgAnalysis.obj
 0002:000027d8       ??_C@_0BG@LNLCJKPF@RMSG_CHANGE_CROSSLINE@ 1003b7d8     DlgAnalysis.obj
 0002:000027f0       ??_C@_0BH@IFDMIMBP@RMSG_ADD_PLATFORM_MENU@ 1003b7f0     DlgAnalysis.obj
 0002:00002808       ??_C@_0BJ@OGNAJHHI@RMSG_SETINITIALCHARTDATA@ 1003b808     DlgAnalysis.obj
 0002:00002824       ??_C@_0N@IIOKMIEH@RMSG_GETINFO@ 1003b824     DlgAnalysis.obj
 0002:00002834       ??_C@_0N@HABLPHJG@RMSG_SETINFO@ 1003b834     DlgAnalysis.obj
 0002:00002848       ??_7CBrush@@6B@            1003b848     DlgAnalysis.obj
 0002:00002860       ??_7CEscDialog@@6B@        1003b860     DlgAnalysis.obj
 0002:000029f8       ??_7?$CArray@UST_DATAINDEX@@U1@@@6B@ 1003b9f8     DlgAnalysis.obj
 0002:00002a10       ??_7CDlgAnalysis@@6B@      1003ba10     DlgAnalysis.obj
 0002:00002c58       ??_C@_0CJ@JEPCLFOC@?A?$LO?$LI?q?$LI?m?$MA?L?$LD?$KK?5?$MA?$PM?$LH?$KL?$LI?m?$MA?L?5?$LM?$LB?E?C?$LF?G?A?v?5?$LO?J@ 1003bc58     DlgAnalysis.obj
 0002:00002c84       ??_C@_0L@FEICBMFP@?2STData?2SD@ 1003bc84     DlgAnalysis.obj
 0002:00002c90       ??_C@_04MHOBIAIL@?$MA?$PM?C?$LM@ 1003bc90     DlgAnalysis.obj
 0002:00002c98       ??_C@_01NBENCBCI@?$CK@     1003bc98     DlgAnalysis.obj
 0002:00002c9c       ??_C@_04GEFJINEE@?$CF?42f@ 1003bc9c     DlgAnalysis.obj
 0002:00002ca4       ??_C@_04GHNNFJCK@?$CF?40f@ 1003bca4     DlgAnalysis.obj
 0002:00002cac       ??_C@_08LFHKPNLG@?$LE?$KJ?$MA?$PL?3?$CFs?5@ 1003bcac     DlgAnalysis.obj
 0002:00002cb8       ??_C@_0BC@CBMEJKFM@?$LN?B?$LH?$PM?3?$CFs?5?$LI?E?$LI?E?$LM?v?3?$CFs@ 1003bcb8     DlgAnalysis.obj
 0002:00002ccc       ??_C@_03CCGKKFHG@a?$CLt@   1003bccc     DlgAnalysis.obj
 0002:00002cd0       ??_C@_0BF@BHAIFGLJ@c?3?2Logs?2?$LM?$LK?$LA?z?$LK?P?$LM?$KO?4txt@ 1003bcd0     DlgAnalysis.obj
 0002:00002ce8       ??_C@_0BB@DJEEEOLH@?$FL?$CF02d?3?$CF02d?3?$CF02d?$FN@ 1003bce8     DlgAnalysis.obj
 0002:00002cfc       ??_C@_05MGFEFMAH@?$FL?$CFs?$FN?6@ 1003bcfc     DlgAnalysis.obj
 0002:00002d04       ??_C@_06ODLOODK@?$CGnbsp?$DL@ 1003bd04     DlgAnalysis.obj
 0002:00002d0c       ??_C@_01JLIPDDHJ@?3@       1003bd0c     DlgAnalysis.obj
 0002:00002d10       ??_C@_07BBHKEGCN@?2STDATA@ 1003bd10     DlgAnalysis.obj
 0002:00002d18       __real@0000000000000000    1003bd18     DlgAnalysis.obj
 0002:00002d20       __real@3fe0000000000000    1003bd20     DlgAnalysis.obj
 0002:00002d28       __real@3ff0000000000000    1003bd28     DlgAnalysis.obj
 0002:00002d34       ??_7CDlgInterface@@6B@     1003bd34     DlgInterface.obj
 0002:00002ef4       ??_C@_01IHBHIGKO@?0@       1003bef4     DlgInterface.obj
 0002:00002ef8       ??_C@_01GBGANLPD@0@        1003bef8     DlgInterface.obj
 0002:00002efc       ??_C@_01LFCBOECM@?4@       1003befc     DlgInterface.obj
 0002:00002f00       ?classCDlgWait@CDlgWait@@2UCRuntimeClass@@B 1003bf00     DlgWait.obj
 0002:00002f20       ??_7CDlgWait@@6B@          1003bf20     DlgWait.obj
 0002:000030b4       ??_C@_08PCFMOBH@CDlgWait@  1003c0b4     DlgWait.obj
 0002:000030f8       ?classCGridCell@CGridCell@@2UCRuntimeClass@@B 1003c0f8     GridCell.obj
 0002:00003118       ??_7CGridCell@@6B@         1003c118     GridCell.obj
 0002:00003208       ?classCGridDefaultCell@CGridDefaultCell@@2UCRuntimeClass@@B 1003c208     GridCell.obj
 0002:00003228       ??_7CGridDefaultCell@@6B@  1003c228     GridCell.obj
 0002:00003330       ??_C@_09CLBLKEDE@CGridCell@ 1003c330     GridCell.obj
 0002:0000333c       ??_C@_0BB@IPGMAHPB@CGridDefaultCell@ 1003c33c     GridCell.obj
 0002:00003350       ??_C@_0P@PLKEPLKE@?5XXXXXXXXXXXX?5@ 1003c350     GridCell.obj
 0002:00003360       ??_C@_01PLPBNMEI@M@        1003c360     GridCellBase.obj
 0002:00003364       ?classCGridCellBase@CGridCellBase@@2UCRuntimeClass@@B 1003c364     GridCellBase.obj
 0002:00003384       ??_7CGridCellBase@@6B@     1003c384     GridCellBase.obj
 0002:00003474       ??_C@_0O@ELCGHKDE@CGridCellBase@ 1003c474     GridCellBase.obj
 0002:00003488       __real@3fbc28f5c28f5c29    1003c488     GridCellBase.obj
 0002:00003490       __real@3fd3333333333333    1003c490     GridCellBase.obj
 0002:00003498       __real@3fe2e147ae147ae1    1003c498     GridCellBase.obj
 0002:000034a0       ?szInvalidDateTime@ATL@@3QBDB 1003c4a0     GridCtrl.obj
 0002:000034a4       ??_C@_0BB@KEKMKJPM@Invalid?5DateTime@ 1003c4a4     GridCtrl.obj
 0002:000034bc       ??_7CFileException@@6B@    1003c4bc     GridCtrl.obj
 0002:000034e0       ??_C@_0HD@BPLDAFHE@C?3?2Program?5Files?5?$CIx86?$CJ?2Microsof@ 1003c4e0     GridCtrl.obj
 0002:00003558       ??_7CCommonDialog@@6B@     1003c558     GridCtrl.obj
 0002:000036ec       ?classCGridCtrl@CGridCtrl@@2UCRuntimeClass@@B 1003c6ec     GridCtrl.obj
 0002:0000370c       ??_7?$CTypedPtrArray@VCObArray@@PAV?$CTypedPtrArray@VCObArray@@PAVCGridCellBase@@@@@@6B@ 1003c70c     GridCtrl.obj
 0002:00003724       ??_7?$CMap@KKVCCellID@@AAV1@@@6B@ 1003c724     GridCtrl.obj
 0002:0000373c       ??_7CGridCtrl@@6B@         1003c73c     GridCtrl.obj
 0002:00003924       ??_7?$CTypedPtrArray@VCObArray@@PAVCGridCellBase@@@@6B@ 1003c924     GridCtrl.obj
 0002:00003938       ??_C@_09NFAGBKLE@CGridCtrl@ 1003c938     GridCtrl.obj
 0002:00003944       ??_C@_0BG@JHCMIEAA@Control?5Panel?2Desktop@ 1003c944     GridCtrl.obj
 0002:0000395c       ??_C@_0BB@LOOBGJFE@WheelScrollLines@ 1003c95c     GridCtrl.obj
 0002:00003970       ??_C@_0FE@POPCFEBD@OLE?5initialization?5failed?4?5Make@ 1003c970     GridCtrl.obj
 0002:000039c4       ??_C@_0M@NNGINBBP@MFCGridCtrl@ 1003c9c4     GridCtrl.obj
 0002:00003cd8       ??_C@_01GPOEFGEJ@?7@       1003ccd8     GridCtrl.obj
 0002:00003cdc       ??_C@_02PCIJFNDE@?$AN?6@   1003ccdc     GridCtrl.obj
 0002:00003ce0       ??_C@_01EEMJAFIK@?6@       1003cce0     GridCtrl.obj
 0002:00003ce4       ??_C@_02DGFOHGMM@?7?0@     1003cce4     GridCtrl.obj
 0002:00003ce8       ??_C@_05MPFIAJAP@Arial@    1003cce8     GridCtrl.obj
 0002:00003cf0       ??_C@_0DG@NFHEFIGB@abcdefghijklmnopqrstuvwxyzABCDE@ 1003ccf0     GridCtrl.obj
 0002:00003d28       ??_C@_0O@MLLBBIJG@Page?5?$CFd?5of?5?$CFd@ 1003cd28     GridCtrl.obj
 0002:00003d38       ??_C@_02HAOIJKIC@?$CFc@    1003cd38     GridCtrl.obj
 0002:00003d3c       ??_C@_0BJ@IAHDJGPJ@Unable?5to?5save?5grid?5list@ 1003cd3c     GridCtrl.obj
 0002:00003d58       ??_C@_0BJ@MOONOAPJ@Unable?5to?5load?5grid?5data@ 1003cd58     GridCtrl.obj
 0002:00003d80       __xmm@ffffffff000000000000000000000000 1003cd80     GridCtrl.obj
 0002:00003d90       __xmm@ffffffffffffffffffffffffffffffff 1003cd90     GridCtrl.obj
 0002:00003da4       ??_7CGridDropTarget@@6B@   1003cda4     GridDropTarget.obj
 0002:00003e3c       ??_7CInPlaceEdit@@6B@      1003ce3c     InPlaceEdit.obj
 0002:00004040       ??_C@_02KNHHEEKP@?5?5@     1003d040     InPlaceEdit.obj
 0002:00004048       ??_7CTitleTip@@6B@         1003d048     TitleTip.obj
 0002:000041b8       ??_C@_09EIMMPIGK@ZTitleTip@ 1003d1b8     TitleTip.obj
 0002:000041fc       __pRawDllMain              1003d1fc     HWStrategyAnalysis.obj
 0002:00004200       ??_C@_0P@IDMAJEGN@HANAROPCTRMAIN@ 1003d200     HWStrategyAnalysis.obj
 0002:00004210       ??_C@_03IDLCJCBF@?4st@     1003d210     HWStrategyAnalysis.obj
 0002:00004214       ??_C@_03COHLPAFH@?4ST@     1003d214     HWStrategyAnalysis.obj
 0002:00004218       ??_C@_0DO@BJELONFP@?$MA?$PM?$LH?$KL?$MA?$LL?5?$LM?$LB?E?C?G?O?A?v?5?$LO?J?$LO?R?$LN?$MA?$LE?O?$LE?Y?4?5?$LF?$PL?$LG@ 1003d218     HWStrategyAnalysis.obj
 0002:00004258       ??_C@_0N@HJAMCNAE@SetFrameInfo@ 1003d258     HWStrategyAnalysis.obj
 0002:00004268       ??_C@_05PGKDIPIO@chart@    1003d268     HWStrategyAnalysis.obj
 0002:00004270       __xmm@000001900000012c0000000000000000 1003d270     HWStrategyAnalysis.obj
 0002:00004280       ?_eventsinkEntries@CInfoRight@@0QBUAFX_EVENTSINKMAP_ENTRY@@B 1003d280     InfoRight.obj
 0002:000042ac       ??_7CButton@@6B@           1003d2ac     InfoRight.obj
 0002:00004420       ?eventsinkMap@CInfoRight@@1UAFX_EVENTSINKMAP@@B 1003d420     InfoRight.obj
 0002:00004430       ??_7?$CArray@PAVCDlgInterface@@PAV1@@@6B@ 1003d430     InfoRight.obj
 0002:00004448       ??_7CInfoRight@@6B@        1003d448     InfoRight.obj
 0002:00004690       ??_C@_0BG@CHJJKIAP@ChartSTIndexAddIn?4dll@ 1003d690     InfoRight.obj
 0002:000046a8       ??_C@_06MFMMLLPC@?$LB?$LM?$LI?$LC?C?$LM@ 1003d6a8     InfoRight.obj
 0002:000046b0       ??_C@_08OEAPFIFH@?$LM?$LK?$LA?z?$LK?P?$LM?$KO@ 1003d6b0     InfoRight.obj
 0002:000046bc       ??_C@_08BKLNNJGI@?$MA?$PM?A?x?$LK?P?$LM?$KO@ 1003d6bc     InfoRight.obj
 0002:000046c8       ??_C@_08INENBIFG@?$LI?E?$LI?E?$LD?$LL?$LP?$KK@ 1003d6c8     InfoRight.obj
 0002:000046d4       ??_C@_0L@CPJPEJFL@?$LM?v?$MA?M?$LH?$PM?B?w?F?$KO@ 1003d6d4     InfoRight.obj
 0002:000046e0       ??_C@_0N@HEBKHCBM@?$LM?U?$MA?M?$LK?P?F?w?B?w?F?$KO@ 1003d6e0     InfoRight.obj
 0002:000046f0       __xmm@00000190000000000000000000000000 1003d6f0     InfoRight.obj
 0002:00004700       ??_C@_0P@LNEGBOLO@atlTraceSnapin@ 1003d700     StdAfx.obj
 0002:00004710       ??_C@_0BA@MCBFIDIC@atlTraceNotImpl@ 1003d710     StdAfx.obj
 0002:00004720       ??_C@_0BD@PJPCCAKP@atlTraceAllocation@ 1003d720     StdAfx.obj
 0002:00004734       ??_C@_0BC@PGMFNIFA@atlTraceException@ 1003d734     StdAfx.obj
 0002:00004748       ??_C@_0N@BNNILHBE@atlTraceTime@ 1003d748     StdAfx.obj
 0002:00004758       ??_C@_0O@MEOJAOKK@atlTraceCache@ 1003d758     StdAfx.obj
 0002:00004768       ??_C@_0BA@IDBKCKK@atlTraceStencil@ 1003d768     StdAfx.obj
 0002:00004778       ??_C@_0P@MBNHGHMI@atlTraceString@ 1003d778     StdAfx.obj
 0002:00004788       ??_C@_0M@IOBBMAHG@atlTraceMap@ 1003d788     StdAfx.obj
 0002:00004794       ??_C@_0N@FEAAACHD@atlTraceUtil@ 1003d794     StdAfx.obj
 0002:000047a4       ??_C@_0BB@DNJDADMG@atlTraceSecurity@ 1003d7a4     StdAfx.obj
 0002:000047b8       ??_C@_0N@KLPNCFEE@atlTraceSync@ 1003d7b8     StdAfx.obj
 0002:000047c8       ??_C@_0O@KHOBHOBJ@atlTraceISAPI@ 1003d7c8     StdAfx.obj
 0002:000047d6       ?chDirSep@ATL@@3DB         1003d7d6     StdAfx.obj
 0002:000047d7       ?chRightBracket@ATL@@3DB   1003d7d7     StdAfx.obj
 0002:000047d8       ?chLeftBracket@ATL@@3DB    1003d7d8     StdAfx.obj
 0002:000047d9       ?chQuote@ATL@@3DB          1003d7d9     StdAfx.obj
 0002:000047da       ?chEquals@ATL@@3DB         1003d7da     StdAfx.obj
 0002:000047dc       ?szStringVal@ATL@@3QBDB    1003d7dc     StdAfx.obj
 0002:000047e0       ??_C@_01CPLAODJH@S@        1003d7e0     StdAfx.obj
 0002:000047e4       ?multiszStringVal@ATL@@3QBDB 1003d7e4     StdAfx.obj
 0002:000047e8       ?szDwordVal@ATL@@3QBDB     1003d7e8     StdAfx.obj
 0002:000047ec       ??_C@_01CKDDGHAB@D@        1003d7ec     StdAfx.obj
 0002:000047f0       ?szBinaryVal@ATL@@3QBDB    1003d7f0     StdAfx.obj
 0002:000047f4       ??_C@_01HMGJMAIH@B@        1003d7f4     StdAfx.obj
 0002:000047f8       ?szValToken@ATL@@3QBDB     1003d7f8     StdAfx.obj
 0002:000047fc       ??_C@_03LAIAPFCB@Val@      1003d7fc     StdAfx.obj
 0002:00004800       ?szForceRemove@ATL@@3QBDB  1003d800     StdAfx.obj
 0002:00004804       ??_C@_0M@DBGDLGLL@ForceRemove@ 1003d804     StdAfx.obj
 0002:00004810       ?szNoRemove@ATL@@3QBDB     1003d810     StdAfx.obj
 0002:00004814       ??_C@_08KAAPDIAN@NoRemove@ 1003d814     StdAfx.obj
 0002:00004820       ?szDelete@ATL@@3QBDB       1003d820     StdAfx.obj
 0002:00004824       ??_C@_06JBKGCNBB@Delete@   1003d824     StdAfx.obj
 0002:0000482c       _CLSID_Registrar           1003d82c     StdAfx.obj
 0002:0000483c       _IID_IRegistrar            1003d83c     StdAfx.obj
 0002:0000484c       _IID_IDocHostUIHandlerDispatch 1003d84c     StdAfx.obj
 0002:00004860       ??_7CAtlStringMgr@ATL@@6B@ 1003d860     StdAfx.obj
 0002:00004878       _IID_IAxWinHostWindow      1003d878     StdAfx.obj
 0002:00004888       _IID_IAxWinHostWindowLic   1003d888     StdAfx.obj
 0002:00004898       _IID_IAxWinAmbientDispatch 1003d898     StdAfx.obj
 0002:000048a8       _IID_IAxWinAmbientDispatchEx 1003d8a8     StdAfx.obj
 0002:000048b8       _IID_IInternalConnection   1003d8b8     StdAfx.obj
 0002:000048c8       ?szInvalidDateTimeSpan@ATL@@3QBDB 1003d8c8     StdAfx.obj
 0002:000048cc       ??_C@_0BF@GPPHKJFN@Invalid?5DateTimeSpan@ 1003d8cc     StdAfx.obj
 0002:000048e4       ?CLSID_WinFormsControl@@3U_GUID@@B 1003d8e4     StdAfx.obj
 0002:000048f4       _c_DwmMaxQueuedBuffers     1003d8f4     StdAfx.obj
 0002:000048f8       _c_DwmMaxMonitors          1003d8f8     StdAfx.obj
 0002:000048fc       _c_DwmMaxAdapters          1003d8fc     StdAfx.obj
 0002:00004900       _LIBID_ATLLib              1003d900     StdAfx.obj
 0002:00004914       ??_7CWin32Heap@ATL@@6B@    1003d914     StdAfx.obj
 0002:00004928       ??_C@_0BK@FBLMOCPF@RMSG_FORMINITIALCOMPLETED@ 1003d928     StdAfx.obj
 0002:00004944       ??_C@_0BF@JNMMFBNP@RMSG_EVENT_CODEINPUT@ 1003d944     StdAfx.obj
 0002:0000495c       ??_C@_0BF@LEGBOMJF@RMSG_EVENT_ACCTINPUT@ 1003d95c     StdAfx.obj
 0002:00004974       ??_C@_0BF@FABJBMLM@RMSG_EVENT_SPININPUT@ 1003d974     StdAfx.obj
 0002:0000498c       ??_C@_0BC@PGMEIMOI@RMSG_EVENT_SIGNAL@ 1003d98c     StdAfx.obj
 0002:000049a0       ??_C@_0BF@FPLDPAEH@RMSG_FORMSTATECHANGE@ 1003d9a0     StdAfx.obj
 0002:000049b8       ??_C@_0N@IMGBDGND@RMSG_TABSTOP@ 1003d9b8     StdAfx.obj
 0002:000049c8       ??_C@_0BC@MMIGKJED@RMSG_LBTNDBLCLICK@ 1003d9c8     StdAfx.obj
 0002:000049dc       ??_C@_0O@DGNCFOOP@RMSG_LBTNDOWN@ 1003d9dc     StdAfx.obj
 0002:000049ec       ??_C@_0BC@EMMLKNDL@RMSG_ENDSCROLLPOS@ 1003d9ec     StdAfx.obj
 0002:00004a00       ??_C@_0BE@IEJDDJPC@RMSG_LSHAREDCHANGED@ 1003da00     StdAfx.obj
 0002:00004a14       ??_C@_0BA@MKMIKKJB@atlTraceGeneral@ 1003da14     StdAfx.obj
 0002:00004a24       ??_C@_0M@DGPFJEBB@atlTraceCOM@ 1003da24     StdAfx.obj
 0002:00004a30       ??_C@_0L@LHELAKBP@atlTraceQI@ 1003da30     StdAfx.obj
 0002:00004a3c       ??_C@_0BC@MALHFBAO@atlTraceRegistrar@ 1003da3c     StdAfx.obj
 0002:00004a50       ??_C@_0BB@ILPPDKFL@atlTraceRefcount@ 1003da50     StdAfx.obj
 0002:00004a64       ??_C@_0BC@DGHHNKDC@atlTraceWindowing@ 1003da64     StdAfx.obj
 0002:00004a78       ??_C@_0BB@GHKJKKIE@atlTraceControls@ 1003da78     StdAfx.obj
 0002:00004a8c       ??_C@_0BA@DKOAAGGM@atlTraceHosting@ 1003da8c     StdAfx.obj
 0002:00004a9c       ??_C@_0BB@BEBMGMDO@atlTraceDBClient@ 1003da9c     StdAfx.obj
 0002:00004ab0       ??_C@_0BD@KOADKDIA@atlTraceDBProvider@ 1003dab0     StdAfx.obj
 0002:00004ac4       ??_C@_0BG@ILOCDJNC@RMSG_UPDATE_DATAINDEX@ 1003dac4     TabAnalChart.obj
 0002:00004adc       ??_C@_0BG@DIEECPNP@RMSG_SELECT_DATAINDEX@ 1003dadc     TabAnalChart.obj
 0002:00004af8       ??_7CTabAnalChart@@6B@     1003daf8     TabAnalChart.obj
 0002:00004d04       ??_7CTabSoonikChart@@6B@   1003dd04     TabEarnChart.obj
 0002:00004f14       ??_7CStatic@@6B@           1003df14     TabResult.obj
 0002:0000508c       ??_7CTabResult@@6B@        1003e08c     TabResult.obj
 0002:00005280       ??_C@_0O@MEHDIMKH@?2?$LM?$LK?$LA?z?$LK?P?$LM?$KO?4htm@ 1003e280     TabResult.obj
 0002:00005290       ??_C@_0BJ@EJHFGNNM@Do?5Not?5Create?5Html?5File?4@ 1003e290     TabResult.obj
 0002:000052ac       ??_C@_02JINPPBEP@No@       1003e2ac     TabResult.obj
 0002:000052b0       ??_C@_0L@FJFCOKJ@?$LE?$KJ?$MA?$PL?$LM?v?$MA?M?$LH?$PM@ 1003e2b0     TabResult.obj
 0002:000052bc       ??_C@_06GNECPJOA@?C?Q?$LM?U?$MA?M@ 1003e2bc     TabResult.obj
 0002:000052c4       ??_C@_0O@KHPIEGBI@?C?Q?$MA?L?$MA?M?1?C?Q?$LM?U?$LN?G@ 1003e2c4     TabResult.obj
 0002:000052d4       ??_C@_0N@NJFCNOGE@?$LA?G?$LK?$LA?F?r?$LB?U?$LM?U?$MA?M@ 1003e2d4     TabResult.obj
 0002:000052e4       ??_C@_06KFFIADGF@?C?Q?A?x?$MA?T@ 1003e2e4     TabResult.obj
 0002:000052ec       ??_C@_08OPDCDADA@?C?Q?$LI?E?$LI?E?$LM?v@ 1003e2ec     TabResult.obj
 0002:000052f8       ??_C@_0O@CIHDHIEL@?$MA?L?$MA?M?$LM?v?1?$LM?U?$LN?G?$LM?v@ 1003e2f8     TabResult.obj
 0002:00005308       ??_C@_0L@OFFEDCHL@?$LB?b?$LA?$KD?$LF?n?$LG?t?$LH?$PM@ 1003e308     TabResult.obj
 0002:00005314       ??_C@_0P@HMJADPNA@?$MA?$PM?$LH?$KL?C?J?$LA?z?$LM?v?$MA?M?$LH?$PM@ 1003e314     TabResult.obj
 0002:00005324       ??_C@_06OEJMNFOB@?C?Q?$LK?$MA?$LM?v@ 1003e324     TabResult.obj
 0002:0000532c       ??_C@_0L@IJLGNGBO@?$LB?b?$LA?$KD?B?$PM?$LP?$KJ?$MA?$LC@ 1003e32c     TabResult.obj
 0002:00005338       ??_C@_0N@PDNPFNDD@?F?r?$LB?U?$LI?E?$LI?E?$LK?$MA?$LM?v@ 1003e338     TabResult.obj
 0002:00005348       ??_C@_0P@JJNKLJJO@?$LA?G?$LK?$LA?F?r?$LB?U?$LM?v?$MA?M?$LH?$PM@ 1003e348     TabResult.obj
 0002:00005358       ??_C@_06HMHBOMDL@?C?Q?$MA?L?$MA?M@ 1003e358     TabResult.obj
 0002:00005360       ??_C@_0N@JDICKLCG@?$LA?G?$LK?$LA?C?V?$LE?k?$MA?L?$MA?M@ 1003e360     TabResult.obj
 0002:00005370       ??_C@_0N@MIGBMLLP@?$LA?G?$LK?$LA?F?r?$LB?U?$MA?L?$MA?M@ 1003e370     TabResult.obj
 0002:00005380       ??_C@_0BB@NJCLLDAP@?$LJ?L?C?$LL?$LL?j?F?w?G?T?C?Q?C?$LL?$LL?j@ 1003e380     TabResult.obj
 0002:00005394       ??_C@_0L@LDAPEPIM@?$MA?L?$MA?M?$LI?E?$LI?E?$LM?v@ 1003e394     TabResult.obj
 0002:000053a0       ??_C@_0BB@CGAEBIGF@?$MA?L?$MA?M?$LI?E?$LI?E?$MA?$LC?$CI?$LN?B?$LH?$PM?$CJ@ 1003e3a0     TabResult.obj
 0002:000053b4       ??_C@_0P@KPEIILEB@?C?V?$LE?k?$LP?$KM?$LM?S?$MA?L?$MA?M?$LM?v@ 1003e3b4     TabResult.obj
 0002:000053c4       ??_C@_0N@OAECDKHI@?C?V?$LE?k?$LP?$KM?$LM?S?$MA?L?$MA?M@ 1003e3c4     TabResult.obj
 0002:000053d4       ??_C@_0N@KFPHCLNL@?$MA?L?$MA?M?$LI?E?$LI?E?$LK?$MA?$LM?v@ 1003e3d4     TabResult.obj
 0002:000053e4       ??_C@_0N@FOGALCGL@?A?x?$MA?T?$LL?s?E?B?$LK?$MA?$LM?v@ 1003e3e4     TabResult.obj
 0002:000053f4       ??_C@_0BB@KLAEHKOB@?$MA?L?$MA?M?$LI?E?$LI?E?F?r?$LB?U?$LK?$MA?$LM?v@ 1003e3f4     TabResult.obj
 0002:00005408       ??_C@_0BB@NADIPDBG@?G?v?$MA?g?F?w?A?v?$LM?G?$LM?v?$MA?M?$LH?$PM@ 1003e408     TabResult.obj
 0002:0000541c       ??_C@_06MLIEOKGJ@?C?Q?$LM?U?$LN?G@ 1003e41c     TabResult.obj
 0002:00005424       ??_C@_0N@CEHHKNHE@?$LA?G?$LK?$LA?C?V?$LE?k?$LM?U?$LN?G@ 1003e424     TabResult.obj
 0002:00005434       ??_C@_0N@HPJEMNON@?$LA?G?$LK?$LA?F?r?$LB?U?$LM?U?$LN?G@ 1003e434     TabResult.obj
 0002:00005444       ??_C@_0L@MKABNNA@?$LM?U?$LN?G?$LI?E?$LI?E?$LM?v@ 1003e444     TabResult.obj
 0002:00005450       ??_C@_0BB@DDLIPNDD@?$LM?U?$LN?G?$LI?E?$LI?E?$MA?$LC?$CI?F?P?$MA?$LC?$CJ@ 1003e450     TabResult.obj
 0002:00005464       ??_C@_0P@MOKGKGFH@?C?V?$LE?k?$LP?$KM?$LM?S?$LM?U?$LN?G?$LM?v@ 1003e464     TabResult.obj
 0002:00005474       ??_C@_0N@FHLHDMCK@?C?V?$LE?k?$LP?$KM?$LM?S?$LM?U?$LN?G@ 1003e474     TabResult.obj
 0002:00005484       ??_C@_0N@DGJMLGPE@?$LM?U?$LN?G?$LI?E?$LI?E?$LK?$MA?$LM?v@ 1003e484     TabResult.obj
 0002:00005494       ??_C@_0N@NCPIAFBM@?C?$LL?$LL?j?$LL?s?E?B?$LK?$MA?$LM?v@ 1003e494     TabResult.obj
 0002:000054a4       ??_C@_0BB@EJJBJOLI@?$LM?U?$LN?G?$LI?E?$LI?E?F?r?$LB?U?$LK?$MA?$LM?v@ 1003e4a4     TabResult.obj
 0002:000054b8       ??_C@_04OKGDLNCL@NONE@     1003e4b8     TabResult.obj
 0002:000054c0       ??_C@_08BPEOHGCP@?$LI?E?$LM?v?A?x?$MA?T@ 1003e4c0     TabResult.obj
 0002:000054cc       ??_C@_08OJBKHDEB@?$LI?E?$LF?$LF?C?$LL?$LL?j@ 1003e4cc     TabResult.obj
 0002:000054d8       ??_C@_08DBKELDO@?$LI?E?$LF?$LF?A?x?$MA?T@ 1003e4d8     TabResult.obj
 0002:000054e4       ??_C@_08PFEOEOFA@?$LI?E?$LM?v?C?$LL?$LL?j@ 1003e4e4     TabResult.obj
 0002:000054f0       ??_C@_0P@DHMEDIHM@?5?$FL?$CFs?$FN?5?$CFs?5?5?$HO?5?$CFs@ 1003e4f0     TabResult.obj
 0002:00005500       ??_C@_05BEBFNOMM@?5?$CF?42f@ 1003e500     TabResult.obj
 0002:00005508       ??_C@_01FGNFDNOH@?$CF@     1003e508     TabResult.obj
 0002:0000550c       ??_C@_0BF@PNNIFJFE@?2?$LK?$LI?$LA?m?$LM?$KN?9?$LM?$LK?$LA?z?$LK?P?$LM?$KO?4htm@ 1003e50c     TabResult.obj
 0002:00005524       ??_C@_0CI@CCGFODKP@Do?5Not?5Create?5?$LK?$LI?$LA?m?$LM?$KN?9?$LM?$LK?$LA?z?$LK?P?$LM?$KO?4h@ 1003e524     TabResult.obj
 0002:0000554c       ??_C@_0O@NLCHHJFD@color?$DN?$CCwhite?$CC@ 1003e54c     TabResult.obj
 0002:0000555c       ??_C@_0N@BFBGFLNJ@?5?$CFs?5?$CFs?5?5?$HO?5?$CFs@ 1003e55c     TabResult.obj
 0002:0000556c       ??_C@_06NBGJEFCJ@?$CF?42f?$CF?$CF@ 1003e56c     TabResult.obj
 0002:00005574       ??_C@_0BG@BGDHEHIP@?2?$LK?$LI?$LA?m?$LM?$KN?9?$LM?$LK?$LA?z?$LK?P?$LM?$KO2?4htm@ 1003e574     TabResult.obj
 0002:0000558c       ??_C@_0CJ@CCHBIPPA@Do?5Not?5Create?5?$LK?$LI?$LA?m?$LM?$KN?9?$LM?$LK?$LA?z?$LK?P?$LM?$KO2?4@ 1003e58c     TabResult.obj
 0002:000055bc       ??_7CTabSonikChart@@6B@    1003e5bc     TabSonikChart.obj
 0002:000057b4       ??_7?$CArray@NN@@6B@       1003e7b4     TabSonikChart.obj
 0002:000057c8       ??_C@_0BM@OKGIDDHL@nAllCount?5?C?J?$LA?z?5?9?5?$LP?$KB?$LH?$KP?$LF?$KF?$MA?L?E?M@ 1003e7c8     TabSonikChart.obj
 0002:000057e8       __real@4059000000000000    1003e7e8     TabSonikChart.obj
 0002:000057f0       ??_C@_01HIHLOKLC@1@        1003e7f0     TabStep.obj
 0002:000057f8       ??_7CTabStep@@6B@          1003e7f8     TabStep.obj
 0002:000059d0       ??_C@_04IFENPBOK@?$LB?$LI?$LK?P@ 1003e9d0     TabStep.obj
 0002:000059d8       ??_C@_01FDFGLJHB@2@        1003e9d8     TabStep.obj
 0002:000059dc       ??_C@_01EKENIIDA@3@        1003e9dc     TabStep.obj
 0002:000059e0       ??_C@_01FAMBOPH@4@         1003e9e0     TabStep.obj
 0002:000059e4       ??_C@_01BMBHCPLG@5@        1003e9e4     TabStep.obj
 0002:000059e8       ??_C@_01DHDKHMHF@6@        1003e9e8     TabStep.obj
 0002:000059ec       ??_C@_01COCBENDE@7@        1003e9ec     TabStep.obj
 0002:000059f0       ??_C@_01KJLJFBPL@8@        1003e9f0     TabStep.obj
 0002:000059f4       ??_C@_01LAKCGALK@9@        1003e9f4     TabStep.obj
 0002:000059f8       ??_C@_02PKFBJPLJ@10@       1003e9f8     TabStep.obj
 0002:000059fc       ??_C@_08MKACKNJD@?C?V?$LE?k?$MA?L?$MA?M@ 1003e9fc     TabStep.obj
 0002:00005a08       ??_C@_08HNPHKLMB@?C?V?$LE?k?$LM?U?$LN?G@ 1003ea08     TabStep.obj
 0002:00005a14       ??_C@_04CHDNLKJE@APR0@     1003ea14     TabStep.obj
 0002:00005a1c       ??_C@_04MMBMFOAA@AAP0@     1003ea1c     TabStep.obj
 0002:00005a24       ??_C@_04JGHGJOCP@TLP0@     1003ea24     TabStep.obj
 0002:00005a2c       ??_C@_04JEBCKJMK@TPF0@     1003ea2c     TabStep.obj
 0002:00005a34       ??_C@_04JFPCEKEB@TLR0@     1003ea34     TabStep.obj
 0002:00005a3c       ??_C@_04ENCEJID@TTT0@      1003ea3c     TabStep.obj
 0002:00005a44       ??_C@_04PJOCFMDJ@MPF0@     1003ea44     TabStep.obj
 0002:00005a4c       ??_C@_04PJMANFIF@MLS0@     1003ea4c     TabStep.obj
 0002:00005a54       ??_C@_04OIPKAFML@TER0@     1003ea54     TabStep.obj
 0002:00005a5c       ??_C@_04NNOCBGIG@TCI0@     1003ea5c     TabStep.obj
 0002:00005a64       ??_C@_04BFGDGPCF@TTN0@     1003ea64     TabStep.obj
 0002:00005a6c       ??_C@_04HFEOLGJF@PLN0@     1003ea6c     TabStep.obj
 0002:00005a74       ??_C@_04GIAIKLEI@PSR0@     1003ea74     TabStep.obj
 0002:00005a7c       ??_C@_04DFGHDJLP@SOR0@     1003ea7c     TabStep.obj
 0002:00005a84       ??_C@_04HKLNAEKG@PPR0@     1003ea84     TabStep.obj
 0002:00005a8c       ??_C@_04DOCGILNF@APR1@     1003ea8c     TabStep.obj
 0002:00005a94       ??_C@_04NFAHGPEB@AAP1@     1003ea94     TabStep.obj
 0002:00005a9c       ??_C@_04IPGNKPGO@TLP1@     1003ea9c     TabStep.obj
 0002:00005aa4       ??_C@_04INAJJIIL@TPF1@     1003eaa4     TabStep.obj
 0002:00005aac       ??_C@_04IMOJHLAA@TLR1@     1003eaac     TabStep.obj
 0002:00005ab4       ??_C@_04BNMJHIMC@TTT1@     1003eab4     TabStep.obj
 0002:00005abc       ??_C@_04OAPJGNHI@MPF1@     1003eabc     TabStep.obj
 0002:00005ac4       ??_C@_04OANLOEME@MLS1@     1003eac4     TabStep.obj
 0002:00005acc       ??_C@_04PBOBDEIK@TER1@     1003eacc     TabStep.obj
 0002:00005ad4       ??_C@_04MEPJCHMH@TCI1@     1003ead4     TabStep.obj
 0002:00005adc       ??_C@_04MHIFOGE@TTN1@      1003eadc     TabStep.obj
 0002:00005ae4       ??_C@_04GMFFIHNE@PLN1@     1003eae4     TabStep.obj
 0002:00005aec       ??_C@_04HBBDJKAJ@PSR1@     1003eaec     TabStep.obj
 0002:00005af4       ??_C@_04CMHMAIPO@SOR1@     1003eaf4     TabStep.obj
 0002:00005afc       ??_C@_04GDKGDFOH@PPR1@     1003eafc     TabStep.obj
 0002:00005b04       ??_C@_04BFALNIBG@APR2@     1003eb04     TabStep.obj
 0002:00005b0c       ??_C@_04POCKDMIC@AAP2@     1003eb0c     TabStep.obj
 0002:00005b14       ??_C@_04KEEAPMKN@TLP2@     1003eb14     TabStep.obj
 0002:00005b1c       ??_C@_04KGCEMLEI@TPF2@     1003eb1c     TabStep.obj
 0002:00005b24       ??_C@_04KHMECIMD@TLR2@     1003eb24     TabStep.obj
 0002:00005b2c       ??_C@_04DGOECLAB@TTT2@     1003eb2c     TabStep.obj
 0002:00005b34       ??_C@_04MLNEDOLL@MPF2@     1003eb34     TabStep.obj
 0002:00005b3c       ??_C@_04MLPGLHAH@MLS2@     1003eb3c     TabStep.obj
 0002:00005b44       ??_C@_04NKMMGHEJ@TER2@     1003eb44     TabStep.obj
 0002:00005b4c       ??_C@_04OPNEHEAE@TCI2@     1003eb4c     TabStep.obj
 0002:00005b54       ??_C@_04CHFFANKH@TTN2@     1003eb54     TabStep.obj
 0002:00005b5c       ??_C@_04EHHINEBH@PLN2@     1003eb5c     TabStep.obj
 0002:00005b64       ??_C@_04FKDOMJMK@PSR2@     1003eb64     TabStep.obj
 0002:00005b6c       ??_C@_04HFBFLDN@SOR2@      1003eb6c     TabStep.obj
 0002:00005b74       ??_C@_04EIILGGCE@PPR2@     1003eb74     TabStep.obj
 0002:00005b7c       ??_C@_04MBAOJFH@APR3@      1003eb7c     TabStep.obj
 0002:00005b84       ??_C@_04OHDBANMD@AAP3@     1003eb84     TabStep.obj
 0002:00005b8c       ??_C@_04LNFLMNOM@TLP3@     1003eb8c     TabStep.obj
 0002:00005b94       ??_C@_04LPDPPKAJ@TPF3@     1003eb94     TabStep.obj
 0002:00005b9c       ??_C@_04LONPBJIC@TLR3@     1003eb9c     TabStep.obj
 0002:00005ba4       ??_C@_04CPPPBKEA@TTT3@     1003eba4     TabStep.obj
 0002:00005bac       ??_C@_04NCMPAPPK@MPF3@     1003ebac     TabStep.obj
 0002:00005bb4       ??_C@_04NCONIGEG@MLS3@     1003ebb4     TabStep.obj
 0002:00005bbc       ??_C@_04MDNHFGAI@TER3@     1003ebbc     TabStep.obj
 0002:00005bc4       ??_C@_04PGMPEFEF@TCI3@     1003ebc4     TabStep.obj
 0002:00005bcc       ??_C@_04DOEODMOG@TTN3@     1003ebcc     TabStep.obj
 0002:00005bd4       ??_C@_04FOGDOFFG@PLN3@     1003ebd4     TabStep.obj
 0002:00005bdc       ??_C@_04EDCFPIIL@PSR3@     1003ebdc     TabStep.obj
 0002:00005be4       ??_C@_04BOEKGKHM@SOR3@     1003ebe4     TabStep.obj
 0002:00005bec       ??_C@_04FBJAFHGF@PPR3@     1003ebec     TabStep.obj
 0002:00005bf4       ??_C@_04EDFBHPJA@APR4@     1003ebf4     TabStep.obj
 0002:00005bfc       ??_C@_04KIHAJLAE@AAP4@     1003ebfc     TabStep.obj
 0002:00005c04       ??_C@_04PCBKFLCL@TLP4@     1003ec04     TabStep.obj
 0002:00005c0c       ??_C@_04PAHOGMMO@TPF4@     1003ec0c     TabStep.obj
 0002:00005c14       ??_C@_04PBJOIPEF@TLR4@     1003ec14     TabStep.obj
 0002:00005c1c       ??_C@_04GALOIMIH@TTT4@     1003ec1c     TabStep.obj
 0002:00005c24       ??_C@_04JNIOJJDN@MPF4@     1003ec24     TabStep.obj
 0002:00005c2c       ??_C@_04JNKMBAIB@MLS4@     1003ec2c     TabStep.obj
 0002:00005c34       ??_C@_04IMJGMAMP@TER4@     1003ec34     TabStep.obj
 0002:00005c3c       ??_C@_04LJIONDIC@TCI4@     1003ec3c     TabStep.obj
 0002:00005c44       ??_C@_04HBAPKKCB@TTN4@     1003ec44     TabStep.obj
 0002:00005c4c       ??_C@_04BBCCHDJB@PLN4@     1003ec4c     TabStep.obj
 0002:00005c54       ??_C@_04MGEGOEM@PSR4@      1003ec54     TabStep.obj
 0002:00005c5c       ??_C@_04FBALPMLL@SOR4@     1003ec5c     TabStep.obj
 0002:00005c64       ??_C@_04BONBMBKC@PPR4@     1003ec64     TabStep.obj
 0002:00005c6c       ??_C@_04FKEKEONB@APR5@     1003ec6c     TabStep.obj
 0002:00005c74       ??_C@_04LBGLKKEF@AAP5@     1003ec74     TabStep.obj
 0002:00005c7c       ??_C@_04OLABGKGK@TLP5@     1003ec7c     TabStep.obj
 0002:00005c84       ??_C@_04OJGFFNIP@TPF5@     1003ec84     TabStep.obj
 0002:00005c8c       ??_C@_04OIIFLOAE@TLR5@     1003ec8c     TabStep.obj
 0002:00005c94       ??_C@_04HJKFLNMG@TTT5@     1003ec94     TabStep.obj
 0002:00005c9c       ??_C@_04IEJFKIHM@MPF5@     1003ec9c     TabStep.obj
 0002:00005ca4       ??_C@_04IELHCBMA@MLS5@     1003eca4     TabStep.obj
 0002:00005cac       ??_C@_04JFINPBIO@TER5@     1003ecac     TabStep.obj
 0002:00005cb4       ??_C@_04KAJFOCMD@TCI5@     1003ecb4     TabStep.obj
 0002:00005cbc       ??_C@_04GIBEJLGA@TTN5@     1003ecbc     TabStep.obj
 0002:00005cc4       ??_C@_04IDJECNA@PLN5@      1003ecc4     TabStep.obj
 0002:00005ccc       ??_C@_04BFHPFPAN@PSR5@     1003eccc     TabStep.obj
 0002:00005cd4       ??_C@_04EIBAMNPK@SOR5@     1003ecd4     TabStep.obj
 0002:00005cdc       ??_C@_04HMKPAOD@PPR5@      1003ecdc     TabStep.obj
 0002:00005ce4       ??_C@_04HBGHBNBC@APR6@     1003ece4     TabStep.obj
 0002:00005cec       ??_C@_04JKEGPJIG@AAP6@     1003ecec     TabStep.obj
 0002:00005cf4       ??_C@_04MACMDJKJ@TLP6@     1003ecf4     TabStep.obj
 0002:00005cfc       ??_C@_04MCEIAOEM@TPF6@     1003ecfc     TabStep.obj
 0002:00005d04       ??_C@_04MDKIONMH@TLR6@     1003ed04     TabStep.obj
 0002:00005d0c       ??_C@_04FCIIOOAF@TTT6@     1003ed0c     TabStep.obj
 0002:00005d14       ??_C@_04KPLIPLLP@MPF6@     1003ed14     TabStep.obj
 0002:00005d1c       ??_C@_04KPJKHCAD@MLS6@     1003ed1c     TabStep.obj
 0002:00005d24       ??_C@_04LOKAKCEN@TER6@     1003ed24     TabStep.obj
 0002:00005d2c       ??_C@_04ILLILBAA@TCI6@     1003ed2c     TabStep.obj
 0002:00005d34       ??_C@_04EDDJMIKD@TTN6@     1003ed34     TabStep.obj
 0002:00005d3c       ??_C@_04CDBEBBBD@PLN6@     1003ed3c     TabStep.obj
 0002:00005d44       ??_C@_04DOFCAMMO@PSR6@     1003ed44     TabStep.obj
 0002:00005d4c       ??_C@_04GDDNJODJ@SOR6@     1003ed4c     TabStep.obj
 0002:00005d54       ??_C@_04CMOHKDCA@PPR6@     1003ed54     TabStep.obj
 0002:00005d5c       ??_C@_04GIHMCMFD@APR7@     1003ed5c     TabStep.obj
 0002:00005d64       ??_C@_04IDFNMIMH@AAP7@     1003ed64     TabStep.obj
 0002:00005d6c       ??_C@_04NJDHAIOI@TLP7@     1003ed6c     TabStep.obj
 0002:00005d74       ??_C@_04NLFDDPAN@TPF7@     1003ed74     TabStep.obj
 0002:00005d7c       ??_C@_04NKLDNMIG@TLR7@     1003ed7c     TabStep.obj
 0002:00005d84       ??_C@_04ELJDNPEE@TTT7@     1003ed84     TabStep.obj
 0002:00005d8c       ??_C@_04LGKDMKPO@MPF7@     1003ed8c     TabStep.obj
 0002:00005d94       ??_C@_04LGIBEDEC@MLS7@     1003ed94     TabStep.obj
 0002:00005d9c       ??_C@_04KHLLJDAM@TER7@     1003ed9c     TabStep.obj
 0002:00005da4       ??_C@_04JCKDIAEB@TCI7@     1003eda4     TabStep.obj
 0002:00005dac       ??_C@_04FKCCPJOC@TTN7@     1003edac     TabStep.obj
 0002:00005db4       ??_C@_04DKAPCAFC@PLN7@     1003edb4     TabStep.obj
 0002:00005dbc       ??_C@_04CHEJDNIP@PSR7@     1003edbc     TabStep.obj
 0002:00005dc4       ??_C@_04HKCGKPHI@SOR7@     1003edc4     TabStep.obj
 0002:00005dcc       ??_C@_04DFPMJCGB@PPR7@     1003edcc     TabStep.obj
 0002:00005dd4       ??_C@_04OPOEDAJM@APR8@     1003edd4     TabStep.obj
 0002:00005ddc       ??_C@_04EMFNEAI@AAP8@      1003eddc     TabStep.obj
 0002:00005de4       ??_C@_04FOKPBECH@TLP8@     1003ede4     TabStep.obj
 0002:00005dec       ??_C@_04FMMLCDMC@TPF8@     1003edec     TabStep.obj
 0002:00005df4       ??_C@_04FNCLMAEJ@TLR8@     1003edf4     TabStep.obj
 0002:00005dfc       ??_C@_04MMALMDIL@TTT8@     1003edfc     TabStep.obj
 0002:00005e04       ??_C@_04DBDLNGDB@MPF8@     1003ee04     TabStep.obj
 0002:00005e0c       ??_C@_04DBBJFPIN@MLS8@     1003ee0c     TabStep.obj
 0002:00005e14       ??_C@_04CACDIPMD@TER8@     1003ee14     TabStep.obj
 0002:00005e1c       ??_C@_04BFDLJMIO@TCI8@     1003ee1c     TabStep.obj
 0002:00005e24       ??_C@_04NNLKOFCN@TTN8@     1003ee24     TabStep.obj
 0002:00005e2c       ??_C@_04LNJHDMJN@PLN8@     1003ee2c     TabStep.obj
 0002:00005e34       ??_C@_04KANBCBEA@PSR8@     1003ee34     TabStep.obj
 0002:00005e3c       ??_C@_04PNLOLDLH@SOR8@     1003ee3c     TabStep.obj
 0002:00005e44       ??_C@_04LCGEIOKO@PPR8@     1003ee44     TabStep.obj
 0002:00005e4c       ??_C@_04PGPPABNN@APR9@     1003ee4c     TabStep.obj
 0002:00005e54       ??_C@_04BNNOOFEJ@AAP9@     1003ee54     TabStep.obj
 0002:00005e5c       ??_C@_04EHLECFGG@TLP9@     1003ee5c     TabStep.obj
 0002:00005e64       ??_C@_04EFNABCID@TPF9@     1003ee64     TabStep.obj
 0002:00005e6c       ??_C@_04EEDAPBAI@TLR9@     1003ee6c     TabStep.obj
 0002:00005e74       ??_C@_04NFBAPCMK@TTT9@     1003ee74     TabStep.obj
 0002:00005e7c       ??_C@_04CICAOHHA@MPF9@     1003ee7c     TabStep.obj
 0002:00005e84       ??_C@_04CIACGOMM@MLS9@     1003ee84     TabStep.obj
 0002:00005e8c       ??_C@_04DJDILOIC@TER9@     1003ee8c     TabStep.obj
 0002:00005e94       ??_C@_04MCAKNMP@TCI9@      1003ee94     TabStep.obj
 0002:00005e9c       ??_C@_04MEKBNEGM@TTN9@     1003ee9c     TabStep.obj
 0002:00005ea4       ??_C@_04KEIMANNM@PLN9@     1003eea4     TabStep.obj
 0002:00005eac       ??_C@_04LJMKBAAB@PSR9@     1003eeac     TabStep.obj
 0002:00005eb4       ??_C@_04OEKFICPG@SOR9@     1003eeb4     TabStep.obj
 0002:00005ebc       ??_C@_04KLHPLPOP@PPR9@     1003eebc     TabStep.obj
 0002:00005ec4       ??_C@_06DPLPBNAH@APRTen@   1003eec4     TabStep.obj
 0002:00005ecc       ??_C@_06INPFJPFJ@AAPTen@   1003eecc     TabStep.obj
 0002:00005ed4       ??_C@_06EINDPOO@TLPTen@    1003eed4     TabStep.obj
 0002:00005edc       ??_C@_06JPDJJPCM@TPFTen@   1003eedc     TabStep.obj
 0002:00005ee4       ??_C@_06HOENGMIO@TLRTen@   1003eee4     TabStep.obj
 0002:00005eec       ??_C@_06BOIIBJNI@TTTTen@   1003eeec     TabStep.obj
 0002:00005ef4       ??_C@_06GNHPEGDB@MPFTen@   1003eef4     TabStep.obj
 0002:00005efc       ??_C@_06LBGLJMCD@MLSTen@   1003eefc     TabStep.obj
 0002:00005f04       ??_C@_06FJECDNEG@TERTen@   1003ef04     TabStep.obj
 0002:00005f0c       ??_C@_06JICLHIMI@TCITen@   1003ef0c     TabStep.obj
 0002:00005f14       ??_C@_06DENIJGPL@TTNTen@   1003ef14     TabStep.obj
 0002:00005f1c       ??_C@_06CPBCDCBO@PLNTen@   1003ef1c     TabStep.obj
 0002:00005f24       ??_C@_06HIICPIND@PSRTen@   1003ef24     TabStep.obj
 0002:00005f2c       ??_C@_06DNHOCAKO@SORTen@   1003ef2c     TabStep.obj
 0002:00005f34       ??_C@_06POBGIKHN@PPRTen@   1003ef34     TabStep.obj
 0002:00005f3c       ??_C@_01JOAMLHOP@?9@       1003ef3c     TabStep.obj
 0002:00005f40       ??_C@_0M@JHFKGMBK@?5Color?$DNBLUE@ 1003ef40     TabStep.obj
 0002:00005f4c       ??_C@_0BF@DJJBNDDF@?2?$LK?$LI?$LA?m?$LM?$KN?9?$MA?$PM?A?x?$LK?P?$LM?$KO?4htm@ 1003ef4c     TabStep.obj
 0002:00005f68       ??_7CTabTrade@@6B@         1003ef68     TabTrade.obj
 0002:00006140       ??_C@_02NFLNFON@NO@        1003f140     TabTrade.obj
 0002:00006144       ??_C@_06PKEOGNHM@?F?w?A?v?$LM?G@ 1003f144     TabTrade.obj
 0002:0000614c       ??_C@_08CBGNLCNF@?$LI?E?$LI?E?$LN?C?A?$KB@ 1003f14c     TabTrade.obj
 0002:00006158       ??_C@_04CNAFDLNE@?$LA?$KB?$LA?$NN@ 1003f158     TabTrade.obj
 0002:00006160       ??_C@_04LPHCNNHO@?$LM?v?$LH?$KO@ 1003f160     TabTrade.obj
 0002:00006168       ??_C@_0O@HDDPIDH@?A?x?$MA?T?1?C?$LL?$LL?j?$LB?$NN?$LO?W@ 1003f168     TabTrade.obj
 0002:00006178       ??_C@_08JEHIPFIE@?$LA?G?$LK?$LA?$LM?U?$MA?M@ 1003f178     TabTrade.obj
 0002:00006184       ??_C@_08CBHCGDML@?$LE?$KJ?$MA?$PL?$LM?U?$MA?M@ 1003f184     TabTrade.obj
 0002:00006190       ??_C@_0L@GLBIPOBI@?$LA?G?$LK?$LA?$LM?v?$MA?M?$LH?$PM@ 1003f190     TabTrade.obj
 0002:0000619c       ??_C@_04GLKKDPHH@?$CF2?4f@ 1003f19c     TabTrade.obj
 0002:000061a4       ??_C@_03JALODAI@?$CFld@    1003f1a4     TabTrade.obj
 0002:000061a8       ??_C@_0O@PKHEJCHJ@?2?$LI?E?$LI?E?$LD?$LL?$LP?$KK?4htm@ 1003f1a8     TabTrade.obj
 0002:000061b8       ??_C@_03CHBJLALM@Num@      1003f1b8     TabTrade.obj
 0002:000061bc       ??_C@_08GCJNLIKG@Position@ 1003f1bc     TabTrade.obj
 0002:000061c8       ??_C@_04FMEGDJGD@Date@     1003f1c8     TabTrade.obj
 0002:000061d0       ??_C@_05NFJELHBG@Price@    1003f1d0     TabTrade.obj
 0002:000061d8       ??_C@_06HKBMKICC@Amount@   1003f1d8     TabTrade.obj
 0002:000061e0       ??_C@_05HKHPEFOF@Entry@    1003f1e0     TabTrade.obj
 0002:000061e8       ??_C@_0M@HHGFFDDN@ProfitAccum@ 1003f1e8     TabTrade.obj
 0002:000061f4       ??_C@_07KJPGDMCN@NuAccum@  1003f1f4     TabTrade.obj
 0002:000061fc       ??_C@_07LPBACJGH@GunRate@  1003f1fc     TabTrade.obj
 0002:00006204       ??_C@_09MIDHKLJD@NuJukRate@ 1003f204     TabTrade.obj
 0002:00006210       ??_C@_0EII@IBMGMDDP@?$DMtr?5Align?$DN?$CCRight?$CC?$DO?$DMtd?5width?$DN?$CC39@ 1003f210     TabTrade.obj
 0002:00006698       ??_C@_03EICDNICE@?$CF?4f@  1003f698     TabTrade.obj
 0002:0000669c       ??_C@_06JGAACDGM@?$CCblue?$CC@ 1003f69c     TabTrade.obj
 0002:000066a4       ??_C@_05NIFAGJNM@?$CCFC1?$CC@ 1003f6a4     TabTrade.obj
 0002:000066ac       ??_C@_05GDNPGLCD@?$CCred?$CC@ 1003f6ac     TabTrade.obj
 0002:000066b4       ??_C@_06IDGDLJAM@?$CCFC?$CFd?$CC@ 1003f6b4     TabTrade.obj
 0002:000066bc       ??_C@_07CMGALDKB@?$CCblack?$CC@ 1003f6bc     TabTrade.obj
 0002:000066c4       ??_C@_0L@PPJEJMEG@?$DM?$CB?9?9ADD?9?9?$DO@ 1003f6c4     TabTrade.obj
 0002:000066d0       ??_C@_0BF@MDNPEHIK@?2?$LK?$LI?$LA?m?$LM?$KN?9?$LI?E?$LI?E?$LD?$LL?$LP?$KK?4htm@ 1003f6d0     TabTrade.obj
 0002:000066e8       ??_C@_0BH@CEJMFNEP@Do?5Not?5Open?5Html?5File?4@ 1003f6e8     TabTrade.obj
 0002:00006700       ??_C@_05BPGNDIAE@Black@    1003f700     TabTrade.obj
 0002:00006708       ??_C@_05PMAELIEO@white@    1003f708     TabTrade.obj
 0002:00006710       ??_C@_07OEMLJILH@C?3?2Temp@ 1003f710     TabTrade.obj
 0002:00006718       ??_C@_0DA@ONNIMDHG@?$CFs?2?$LI?E?$LI?E?$LD?$LL?$LP?$KK_?$CFs_?$CFs_?$CF04d?$CF02d?$CF02d_@ 1003f718     TabTrade.obj
 0002:00006748       ??_C@_0BN@JCCJDGAM@Excel?4csv?2shell?2open?2command@ 1003f748     TabTrade.obj
 0002:00006768       ??_C@_09KIHNACBF@excel?4exe@ 1003f768     TabTrade.obj
 0002:00006774       ??_C@_01BJJEKLCA@?$CC@     1003f774     TabTrade.obj
 0002:00006778       ??_C@_0FF@FDGFPFGO@NO?7?F?w?A?v?$LM?G?7?$LI?E?$LI?E?$LN?C?A?$KB?7?$LA?$KB?$LA?$NN?7?$LM?v?$LH?$KO?7?A?x@ 1003f778     TabTrade.obj
 0002:000067d0       ??_C@_02JPEBCGCN@?5?$CC@   1003f7d0     TabTrade.obj
 0002:000067d4       ??_C@_0DB@BNCNLKDN@?$MA?L?5?F?D?$MA?O?$MA?$LK?5?$CC?$CFs?$CC?$LG?s?$LE?B?5?F?D?$MA?O?$LI?m?$MA?$LI?$LH?N?5?$MA@ 1003f7d4     TabTrade.obj
 0002:00006808       ?classCExStatic@CExStatic@@2UCRuntimeClass@@B 1003f808     ExControl:ExStatic.obj
 0002:00006828       ??_7CExStatic@@6B@         1003f828     ExControl:ExStatic.obj
 0002:000069a0       ??_7CExLoadLib@@6B@        1003f9a0     ExControl:ExStatic.obj
 0002:000069a4       ??_C@_0CD@INEDAMEN@DLL?$FL?$CFs?$FN?$MA?$LL?5Load?G?R?5?$LM?v?5?$LO?x?$LN?$MA?$LE?O?$LE?Y?4?5?$FL@ 1003f9a4     ExControl:ExStatic.obj
 0002:000069c8       ??_C@_04OHDBDCPJ@?2Dev@    1003f9c8     ExControl:ExStatic.obj
 0002:000069d0       ??_C@_05BMGBEOOC@?$CFs?2?$CFs@ 1003f9d0     ExControl:ExStatic.obj
 0002:000069d8       ??_C@_0BB@JBDOCKKP@Ex_ActionControl@ 1003f9d8     ExControl:ExStatic.obj
 0002:000069ec       ??_C@_0L@DJFMIDOF@Ex_SetText@ 1003f9ec     ExControl:ExStatic.obj
 0002:000069f8       ??_C@_0L@CNADMACE@Ex_SetIcon@ 1003f9f8     ExControl:ExStatic.obj
 0002:00006a04       ??_C@_0BJ@LGMPMCJG@Ex_GetSkinNotifyFunction@ 1003fa04     ExControl:ExStatic.obj
 0002:00006a24       ??_7CLoaderStatic@@6B@     1003fa24     ExControl:ExStatic.obj
 0002:00006a28       ??_C@_0N@NNONGLJJ@ExStatic?4dll@ 1003fa28     ExControl:ExStatic.obj
 0002:00006a38       ??_C@_0O@DEOANDAM@Ex_InitStatic@ 1003fa38     ExControl:ExStatic.obj
 0002:00006a48       ??_C@_0P@OEPCPIIJ@Ex_InitStatic2@ 1003fa48     ExControl:ExStatic.obj
 0002:00006a58       ??_C@_0O@BEEKLAGE@Ex_ExitStatic@ 1003fa58     ExControl:ExStatic.obj
 0002:00006a68       ??_C@_0N@DOLDDOOH@Ex_SetStatic@ 1003fa68     ExControl:ExStatic.obj
 0002:00006a78       ??_C@_0BC@LBABIIOF@Ex_SetStaticColor@ 1003fa78     ExControl:ExStatic.obj
 0002:00006a8c       ??_C@_0BD@BLCFKIKC@Ex_SetStaticString@ 1003fa8c     ExControl:ExStatic.obj
 0002:00006aa0       ??_C@_0BC@BPDGMHIA@Ex_SetStaticIndex@ 1003faa0     ExControl:ExStatic.obj
 0002:00006ab4       ??_C@_0L@LHMOODNH@Ex_OnPaint@ 1003fab4     ExControl:ExStatic.obj
 0002:00006ac0       ??_C@_0BL@HHIDDIBI@Ex_PreSubclassWindow_Statc@ 1003fac0     ExControl:ExStatic.obj
 0002:00006adc       ??_C@_0BF@LLIPHMGO@Ex_WindowProc_Static@ 1003fadc     ExControl:ExStatic.obj
 0002:00006af4       ??_C@_0BH@BGNOKNMP@Ex_OnEraseBkgnd_Static@ 1003faf4     ExControl:ExStatic.obj
 0002:00006b0c       ??_C@_0BI@JJEKMNNP@Ex_GetWindowText_Static@ 1003fb0c     ExControl:ExStatic.obj
 0002:00006b24       ??_C@_09EJBPPKEH@CExStatic@ 1003fb24     ExControl:ExStatic.obj
 0002:00006b84       ??_7CExDrawButton@@6B@     1003fb84     ExControl:ExDrawButton.obj
 0002:00006d0c       ??_7CLoaderDrawButton@@6B@ 1003fd0c     ExControl:ExDrawButton.obj
 0002:00006d10       ??_C@_0N@GEEODKHG@ExButton?4dll@ 1003fd10     ExControl:ExDrawButton.obj
 0002:00006d20       ??_C@_0BC@PGEAKCHE@Ex_InitDrawButton@ 1003fd20     ExControl:ExDrawButton.obj
 0002:00006d34       ??_C@_0BD@LKOOKBPG@Ex_InitDrawButton2@ 1003fd34     ExControl:ExDrawButton.obj
 0002:00006d48       ??_C@_0O@HJMOOLG@Ex_ExitButton@ 1003fd48     ExControl:ExDrawButton.obj
 0002:00006d58       ??_C@_0BB@CHEHMADH@Ex_SetDrawButton@ 1003fd58     ExControl:ExDrawButton.obj
 0002:00006d6c       ??_C@_0BC@BNIJDNAL@Ex_DrawItemButton@ 1003fd6c     ExControl:ExDrawButton.obj
 0002:00006d80       ??_C@_0CA@IAIBPFKD@Ex_PreSubclassWindow_DrawButton@ 1003fd80     ExControl:ExDrawButton.obj
 0002:00006da0       ??_C@_0BG@EAFAMFDC@Ex_GetText_DrawButton@ 1003fda0     ExControl:ExDrawButton.obj
 0002:00006db8       ??_C@_0BM@HBHBHJMC@Ex_UseToggleMode_DrawButton@ 1003fdb8     ExControl:ExDrawButton.obj
 0002:00006dd4       ??_C@_0BN@KABDCPCN@Ex_GetToggleState_DrawButton@ 1003fdd4     ExControl:ExDrawButton.obj
 0002:00006df4       ??_C@_0BN@CANFOCIL@Ex_SetToggleState_DrawButton@ 1003fdf4     ExControl:ExDrawButton.obj
 0002:00006e14       ??_C@_0BM@KGOCHHHE@Ex_ReleasePushed_DrawButton@ 1003fe14     ExControl:ExDrawButton.obj
 0002:00006e30       ??_C@_0BI@HIINLFG@Ex_OnClicked_DrawButton@ 1003fe30     ExControl:ExDrawButton.obj
 0002:00006e48       ??_C@_0BN@KLLBCGDD@Ex_AddToggleGroup_DrawButton@ 1003fe48     ExControl:ExDrawButton.obj
 0002:00006ea4       ??_7CComboBox@@6B@         1003fea4     ExControl:ExComboBox.obj
 0002:00007024       ?classCExComboBox@CExComboBox@@2UCRuntimeClass@@B 10040024     ExControl:ExComboBox.obj
 0002:00007044       ??_7CExComboBox@@6B@       10040044     ExControl:ExComboBox.obj
 0002:000071c8       ??_7CLoaderComboBox@@6B@   100401c8     ExControl:ExComboBox.obj
 0002:000071d0       ??_C@_0P@CMGIEKGI@ExComboBox?4dll@ 100401d0     ExControl:ExComboBox.obj
 0002:000071e0       ??_C@_0BA@BPPCFOGE@Ex_InitComboBox@ 100401e0     ExControl:ExComboBox.obj
 0002:000071f0       ??_C@_0BB@KHLAADGO@Ex_InitComboBox2@ 100401f0     ExControl:ExComboBox.obj
 0002:00007204       ??_C@_0BA@GGGNKPID@Ex_ExitComboBox@ 10040204     ExControl:ExComboBox.obj
 0002:00007214       ??_C@_0BO@LOKFHKHE@Ex_PreSubclassWindow_ComboBox@ 10040214     ExControl:ExComboBox.obj
 0002:00007234       ??_C@_0BF@LKLLAOJN@Ex_DrawItem_ComboBox@ 10040234     ExControl:ExComboBox.obj
 0002:0000724c       ??_C@_0BE@GBFABFME@Ex_OnPaint_ComboBox@ 1004024c     ExControl:ExComboBox.obj
 0002:00007260       ??_C@_0BI@GLCEGIOC@Ex_OnMouseMove_ComboBox@ 10040260     ExControl:ExComboBox.obj
 0002:00007278       ??_C@_0BK@HFDECPLM@Ex_OnLButtonDown_ComboBox@ 10040278     ExControl:ExComboBox.obj
 0002:00007294       ??_C@_0BI@FDNJCHMC@Ex_OnLButtonUp_ComboBox@ 10040294     ExControl:ExComboBox.obj
 0002:000072ac       ??_C@_0BE@IBOLGKEK@Ex_OnTimer_ComboBox@ 100402ac     ExControl:ExComboBox.obj
 0002:000072c0       ??_C@_0M@EOMNCNDJ@CExComboBox@ 100402c0     ExControl:ExComboBox.obj
 0002:0000736c       ??_7CLoadLib@@6B@          1004036c     ExControl:ExDialog.obj
 0002:00007370       ??_C@_0BO@HDGMHKJP@DLL?$FL?$CFs?$FN?$MA?$LL?5Load?G?R?5?$LM?v?5?$LO?x?$LN?$MA?$LE?O?$LE?Y?4@ 10040370     ExControl:ExDialog.obj
 0002:00007394       ??_7CPCTrMngHelper@@6B@    10040394     ExControl:ExDialog.obj
 0002:00007398       ??_C@_0BB@FBHMIJGH@?2dev?2PcTrMng?4dll@ 10040398     ExControl:ExDialog.obj
 0002:000073ac       ??_C@_0N@HGGCPMBP@GetInferface@ 100403ac     ExControl:ExDialog.obj
 0002:000073bc       ??_C@_0M@FLDHGJOE@GetPCTrData@ 100403bc     ExControl:ExDialog.obj
 0002:000073c8       ??_C@_0M@FECJLPGH@SetPCTrData@ 100403c8     ExControl:ExDialog.obj
 0002:000073d4       ??_C@_0BA@IJJLANBJ@NotifyPCTrState@ 100403d4     ExControl:ExDialog.obj
 0002:000073e4       ?classCExDialog@CExDialog@@2UCRuntimeClass@@B 100403e4     ExControl:ExDialog.obj
 0002:00007404       ??_7?$CList@P6AXXZP6AXXZ@@6B@ 10040404     ExControl:ExDialog.obj
 0002:0000741c       ??_7CMyITrCommSite@CExDialog@@6B@ 1004041c     ExControl:ExDialog.obj
 0002:00007430       ??_7CMyISkinColorSite@CExDialog@@6B@ 10040430     ExControl:ExDialog.obj
 0002:00007438       ??_7CExDialog@@6BCDialog@@@ 10040438     ExControl:ExDialog.obj
 0002:000075e4       ??_7CExDialog@@6BCExResize@@@ 100405e4     ExControl:ExDialog.obj
 0002:000075e8       ??_C@_09KBGCIPIE@CExDialog@ 100405e8     ExControl:ExDialog.obj
 0002:00007694       ??_7?$CArray@PAXPAX@@6B@   10040694     ExControl:StdAfx.obj
 0002:000076a8       ??_C@_0BN@HFGHFFIN@SetPermanentHandle?5?$CF08X?$DN?$CF0X?6@ 100406a8     ExControl:StdAfx.obj
 0002:000076cc       ??_7CExButton@@6B@         100406cc     ExControl:ExButton.obj
 0002:00007864       ??_7CExSizeIcon@@6B@       10040864     ExControl:ExResize.obj
 0002:000079dc       ??_7CExItem@@6B@           100409dc     ExControl:ExResize.obj
 0002:000079e4       ??_7?$CArray@PAVCExItem@@AAPAV1@@@6B@ 100409e4     ExControl:ExResize.obj
 0002:000079fc       ??_7CExResize@@6B@         100409fc     ExControl:ExResize.obj
 0002:00007a00       ??_C@_06LKBCGDFD@Button@   10040a00     ExControl:ExResize.obj
 0002:00007a08       ??_C@_0BA@IPFOHKAG@WindowPlacement@ 10040a08     ExControl:ExResize.obj
 0002:00007aa0       __xmm@00000010000000100000000000000000 10040aa0     ExControl:ExResize.obj
 0002:00007ab0       ?classCExCheckBox@CExCheckBox@@2UCRuntimeClass@@B 10040ab0     ExControl:ExCheckBox.obj
 0002:00007ad0       ??_7CExCheckBox@@6B@       10040ad0     ExControl:ExCheckBox.obj
 0002:00007c48       ??_7CLoaderCheckBoxButton@@6B@ 10040c48     ExControl:ExCheckBox.obj
 0002:00007c50       ??_C@_0BA@BIAEGMHP@Ex_InitCheckBox@ 10040c50     ExControl:ExCheckBox.obj
 0002:00007c60       ??_C@_0BB@CNNCDMLA@Ex_InitCheckBox2@ 10040c60     ExControl:ExCheckBox.obj
 0002:00007c74       ??_C@_0BF@JDDNDGED@Ex_SetColor_CheckBox@ 10040c74     ExControl:ExCheckBox.obj
 0002:00007c8c       ??_C@_0BK@JMABOJDB@Ex_SetSkinString_CheckBox@ 10040c8c     ExControl:ExCheckBox.obj
 0002:00007ca8       ??_C@_0BJ@GMGMCKEO@Ex_SetSkinIndex_CheckBox@ 10040ca8     ExControl:ExCheckBox.obj
 0002:00007cc4       ??_C@_0BF@LIFNJJLE@Ex_CtlColor_CheckBox@ 10040cc4     ExControl:ExCheckBox.obj
 0002:00007cdc       ??_C@_0M@EJDLBPCC@CExCheckBox@ 10040cdc     ExControl:ExCheckBox.obj
 0002:00007d20       __pAtlLcidToLocaleNameTable 10040d20     mfcs140:nolib.obj
 0002:00008440       ??_C@_15EMKDOKLE@?$AAa?$AAr@ 10041440     mfcs140:nolib.obj
 0002:00008448       ??_C@_15KNPADPLH@?$AAb?$AAg@ 10041448     mfcs140:nolib.obj
 0002:00008450       ??_C@_15EDMHLDMO@?$AAc?$AAa@ 10041450     mfcs140:nolib.obj
 0002:00008458       ??_C@_1O@BPEAJADD@?$AAz?$AAh?$AA?9?$AAC?$AAH?$AAS@ 10041458     mfcs140:nolib.obj
 0002:00008468       ??_C@_15LJNHCMNK@?$AAc?$AAs@ 10041468     mfcs140:nolib.obj
 0002:00008470       ??_C@_15FOMCIDHG@?$AAd?$AAa@ 10041470     mfcs140:nolib.obj
 0002:00008478       ??_C@_15NBKABECB@?$AAd?$AAe@ 10041478     mfcs140:nolib.obj
 0002:00008480       ??_C@_15GHPEIIAO@?$AAe?$AAl@ 10041480     mfcs140:nolib.obj
 0002:00008488       ??_C@_15MNPNEAIF@?$AAe?$AAn@ 10041488     mfcs140:nolib.obj
 0002:00008490       ??_C@_15GPIOMPMH@?$AAe?$AAs@ 10041490     mfcs140:nolib.obj
 0002:00008498       ??_C@_15NGLOAKJC@?$AAf?$AAi@ 10041498     mfcs140:nolib.obj
 0002:000084a0       ??_C@_15FBKGNKAM@?$AAf?$AAr@ 100414a0     mfcs140:nolib.obj
 0002:000084a8       ??_C@_15KGGCNEFK@?$AAh?$AAe@ 100414a8     mfcs140:nolib.obj
 0002:000084b0       ??_C@_15PGHLIDMF@?$AAh?$AAu@ 100414b0     mfcs140:nolib.obj
 0002:000084b8       ??_C@_15BIEMAPLM@?$AAi?$AAs@ 100414b8     mfcs140:nolib.obj
 0002:000084c0       ??_C@_15IFJLDHAF@?$AAi?$AAt@ 100414c0     mfcs140:nolib.obj
 0002:000084c8       ??_C@_15GEMIOCAG@?$AAj?$AAa@ 100414c8     mfcs140:nolib.obj
 0002:000084d0       ??_C@_15EPELEGJA@?$AAk?$AAo@ 100414d0     mfcs140:nolib.obj
 0002:000084d8       ??_C@_15NDDHIMN@?$AAn?$AAl@ 100414d8     mfcs140:nolib.obj
 0002:000084e0       ??_C@_15BPIGNHCD@?$AAn?$AAo@ 100414e0     mfcs140:nolib.obj
 0002:000084e8       ??_C@_15DEOPBLCG@?$AAp?$AAl@ 100414e8     mfcs140:nolib.obj
 0002:000084f0       ??_C@_15KBECGEFG@?$AAp?$AAt@ 100414f0     mfcs140:nolib.obj
 0002:000084f8       ??_C@_15GLJCBFMD@?$AAr?$AAo@ 100414f8     mfcs140:nolib.obj
 0002:00008500       ??_C@_15FEDGKCDI@?$AAr?$AAu@ 10041500     mfcs140:nolib.obj
 0002:00008508       ??_C@_15GLKMLLHM@?$AAh?$AAr@ 10041508     mfcs140:nolib.obj
 0002:00008510       ??_C@_15CPKMFBDB@?$AAs?$AAk@ 10041510     mfcs140:nolib.obj
 0002:00008518       ??_C@_15BAAIOGMK@?$AAs?$AAq@ 10041518     mfcs140:nolib.obj
 0002:00008520       ??_C@_15INNPNOHD@?$AAs?$AAv@ 10041520     mfcs140:nolib.obj
 0002:00008528       ??_C@_15CABMMOGH@?$AAt?$AAh@ 10041528     mfcs140:nolib.obj
 0002:00008530       ??_C@_15BPLIHJJM@?$AAt?$AAr@ 10041530     mfcs140:nolib.obj
 0002:00008538       ??_C@_15NEOEKKDJ@?$AAu?$AAr@ 10041538     mfcs140:nolib.obj
 0002:00008540       ??_C@_15NFICGAJK@?$AAi?$AAd@ 10041540     mfcs140:nolib.obj
 0002:00008548       ??_C@_15PJPFLCCM@?$AAu?$AAk@ 10041548     mfcs140:nolib.obj
 0002:00008550       ??_C@_15HPJPHDM@?$AAb?$AAe@ 10041550     mfcs140:nolib.obj
 0002:00008558       ??_C@_15LCHLGJII@?$AAs?$AAl@ 10041558     mfcs140:nolib.obj
 0002:00008560       ??_C@_15PCFJPHHO@?$AAe?$AAt@ 10041560     mfcs140:nolib.obj
 0002:00008568       ??_C@_15HPFPGODN@?$AAl?$AAv@ 10041568     mfcs140:nolib.obj
 0002:00008570       ??_C@_15NFFGKGLG@?$AAl?$AAt@ 10041570     mfcs140:nolib.obj
 0002:00008578       ??_C@_15BDAKCCHN@?$AAf?$AAa@ 10041578     mfcs140:nolib.obj
 0002:00008580       ??_C@_15NFGIAIAJ@?$AAv?$AAi@ 10041580     mfcs140:nolib.obj
 0002:00008588       ??_C@_15LMKNDMHN@?$AAh?$AAy@ 10041588     mfcs140:nolib.obj
 0002:00008590       ??_C@_15IJBHMCFL@?$AAa?$AAz@ 10041590     mfcs140:nolib.obj
 0002:00008598       ??_C@_15EKOFJABL@?$AAe?$AAu@ 10041598     mfcs140:nolib.obj
 0002:000085a0       ??_C@_15BGHADCNK@?$AAm?$AAk@ 100415a0     mfcs140:nolib.obj
 0002:000085a8       ??_C@_15JDNICKHM@?$AAa?$AAf@ 100415a8     mfcs140:nolib.obj
 0002:000085b0       ??_C@_15KPJEDBKD@?$AAk?$AAa@ 100415b0     mfcs140:nolib.obj
 0002:000085b8       ??_C@_15PDNFFFEO@?$AAf?$AAo@ 100415b8     mfcs140:nolib.obj
 0002:000085c0       ??_C@_15OMLEGLOC@?$AAh?$AAi@ 100415c0     mfcs140:nolib.obj
 0002:000085c8       ??_C@_15IDNNENKK@?$AAm?$AAs@ 100415c8     mfcs140:nolib.obj
 0002:000085d0       ??_C@_15MACJNBMH@?$AAk?$AAk@ 100415d0     mfcs140:nolib.obj
 0002:000085d8       ??_C@_15DKDJEOND@?$AAk?$AAy@ 100415d8     mfcs140:nolib.obj
 0002:000085e0       ??_C@_15DFGDLJBG@?$AAs?$AAw@ 100415e0     mfcs140:nolib.obj
 0002:000085e8       ??_C@_15BBFAICNG@?$AAu?$AAz@ 100415e8     mfcs140:nolib.obj
 0002:000085f0       ??_C@_15DKNDCGEA@?$AAt?$AAt@ 100415f0     mfcs140:nolib.obj
 0002:000085f8       ??_C@_15MGIFMDPL@?$AAp?$AAa@ 100415f8     mfcs140:nolib.obj
 0002:00008600       ??_C@_15HCNDBBA@?$AAg?$AAu@ 10041600     mfcs140:nolib.obj
 0002:00008608       ??_C@_15FNBEIBON@?$AAt?$AAa@ 10041608     mfcs140:nolib.obj
 0002:00008610       ??_C@_15NCHGBGLK@?$AAt?$AAe@ 10041610     mfcs140:nolib.obj
 0002:00008618       ??_C@_15PHPHCBPF@?$AAk?$AAn@ 10041618     mfcs140:nolib.obj
 0002:00008620       ??_C@_15DLGBCKMP@?$AAm?$AAr@ 10041620     mfcs140:nolib.obj
 0002:00008628       ??_C@_15EABBLBFF@?$AAs?$AAa@ 10041628     mfcs140:nolib.obj
 0002:00008630       ??_C@_15CBKOMCOI@?$AAm?$AAn@ 10041630     mfcs140:nolib.obj
 0002:00008638       ??_C@_15CKDMCJAF@?$AAg?$AAl@ 10041638     mfcs140:nolib.obj
 0002:00008640       ??_C@_17CNJFBPG@?$AAk?$AAo?$AAk@ 10041640     mfcs140:nolib.obj
 0002:00008648       ??_C@_17FFBJICPL@?$AAs?$AAy?$AAr@ 10041648     mfcs140:nolib.obj
 0002:00008650       ??_C@_17KPNDCPAF@?$AAd?$AAi?$AAv@ 10041650     mfcs140:nolib.obj
 0002:00008658       ??_C@_11LOCGONAA@@         10041658     mfcs140:nolib.obj
 0002:0000865c       ??_C@_1M@OKAHONE@?$AAa?$AAr?$AA?9?$AAS?$AAA@ 1004165c     mfcs140:nolib.obj
 0002:00008668       ??_C@_1M@FFFIGIGK@?$AAb?$AAg?$AA?9?$AAB?$AAG@ 10041668     mfcs140:nolib.obj
 0002:00008674       ??_C@_1M@BJNKEDC@?$AAc?$AAa?$AA?9?$AAE?$AAS@ 10041674     mfcs140:nolib.obj
 0002:00008680       ??_C@_1M@CLNBBOPM@?$AAz?$AAh?$AA?9?$AAT?$AAW@ 10041680     mfcs140:nolib.obj
 0002:0000868c       ??_C@_1M@IJJHFJHA@?$AAc?$AAs?$AA?9?$AAC?$AAZ@ 1004168c     mfcs140:nolib.obj
 0002:00008698       ??_C@_1M@CLPEOBGI@?$AAd?$AAa?$AA?9?$AAD?$AAK@ 10041698     mfcs140:nolib.obj
 0002:000086a4       ??_C@_1M@MCMADGCB@?$AAd?$AAe?$AA?9?$AAD?$AAE@ 100416a4     mfcs140:nolib.obj
 0002:000086b0       ??_C@_1M@OOCKEMAM@?$AAe?$AAl?$AA?9?$AAG?$AAR@ 100416b0     mfcs140:nolib.obj
 0002:000086bc       ??_C@_1M@BMHNFIME@?$AAe?$AAn?$AA?9?$AAU?$AAS@ 100416bc     mfcs140:nolib.obj
 0002:000086c8       ??_C@_1M@DDNJFGID@?$AAf?$AAi?$AA?9?$AAF?$AAI@ 100416c8     mfcs140:nolib.obj
 0002:000086d4       ??_C@_1M@GLIPPMAC@?$AAf?$AAr?$AA?9?$AAF?$AAR@ 100416d4     mfcs140:nolib.obj
 0002:000086e0       ??_C@_1M@GFMCHPE@?$AAh?$AAe?$AA?9?$AAI?$AAL@ 100416e0     mfcs140:nolib.obj
 0002:000086ec       ??_C@_1M@MHLPGNKM@?$AAh?$AAu?$AA?9?$AAH?$AAU@ 100416ec     mfcs140:nolib.obj
 0002:000086f8       ??_C@_1M@LPDDNNPN@?$AAi?$AAs?$AA?9?$AAI?$AAS@ 100416f8     mfcs140:nolib.obj
 0002:00008704       ??_C@_1M@MADIPODN@?$AAi?$AAt?$AA?9?$AAI?$AAT@ 10041704     mfcs140:nolib.obj
 0002:00008710       ??_C@_1M@HPNHIDJI@?$AAj?$AAa?$AA?9?$AAJ?$AAP@ 10041710     mfcs140:nolib.obj
 0002:0000871c       ??_C@_1M@JLOOOEGK@?$AAk?$AAo?$AA?9?$AAK?$AAR@ 1004171c     mfcs140:nolib.obj
 0002:00008728       ??_C@_1M@IHBJJGG@?$AAn?$AAl?$AA?9?$AAN?$AAL@ 10041728     mfcs140:nolib.obj
 0002:00008734       ??_C@_1M@EANAGDL@?$AAn?$AAb?$AA?9?$AAN?$AAO@ 10041734     mfcs140:nolib.obj
 0002:00008740       ??_C@_1M@NEIEMEGP@?$AAp?$AAl?$AA?9?$AAP?$AAL@ 10041740     mfcs140:nolib.obj
 0002:0000874c       ??_C@_1M@BOCFIGEP@?$AAp?$AAt?$AA?9?$AAB?$AAR@ 1004174c     mfcs140:nolib.obj
 0002:00008758       ??_C@_1M@IMPFOPBG@?$AAr?$AAo?$AA?9?$AAR?$AAO@ 10041758     mfcs140:nolib.obj
 0002:00008764       ??_C@_1M@IDNNEJMM@?$AAr?$AAu?$AA?9?$AAR?$AAU@ 10041764     mfcs140:nolib.obj
 0002:00008770       ??_C@_1M@LILEEOGM@?$AAh?$AAr?$AA?9?$AAH?$AAR@ 10041770     mfcs140:nolib.obj
 0002:0000877c       ??_C@_1M@FKIFEHPB@?$AAs?$AAk?$AA?9?$AAS?$AAK@ 1004177c     mfcs140:nolib.obj
 0002:00008788       ??_C@_1M@LJMAMNPJ@?$AAs?$AAq?$AA?9?$AAA?$AAL@ 10041788     mfcs140:nolib.obj
 0002:00008794       ??_C@_1M@GIAKDKJK@?$AAs?$AAv?$AA?9?$AAS?$AAE@ 10041794     mfcs140:nolib.obj
 0002:000087a0       ??_C@_1M@MKJKIKCL@?$AAt?$AAh?$AA?9?$AAT?$AAH@ 100417a0     mfcs140:nolib.obj
 0002:000087ac       ??_C@_1M@MFLCCMPB@?$AAt?$AAr?$AA?9?$AAT?$AAR@ 100417ac     mfcs140:nolib.obj
 0002:000087b8       ??_C@_1M@OIJHDKJN@?$AAu?$AAr?$AA?9?$AAP?$AAK@ 100417b8     mfcs140:nolib.obj
 0002:000087c4       ??_C@_1M@LHIPCIEK@?$AAi?$AAd?$AA?9?$AAI?$AAD@ 100417c4     mfcs140:nolib.obj
 0002:000087d0       ??_C@_1M@MFMOBGI@?$AAu?$AAk?$AA?9?$AAU?$AAA@ 100417d0     mfcs140:nolib.obj
 0002:000087dc       ??_C@_1M@OBGLJIPL@?$AAb?$AAe?$AA?9?$AAB?$AAY@ 100417dc     mfcs140:nolib.obj
 0002:000087e8       ??_C@_1M@BCFAJEAD@?$AAs?$AAl?$AA?9?$AAS?$AAI@ 100417e8     mfcs140:nolib.obj
 0002:000087f4       ??_C@_1M@FKFFEDDN@?$AAe?$AAt?$AA?9?$AAE?$AAE@ 100417f4     mfcs140:nolib.obj
 0002:00008800       ??_C@_1M@KGKKAACI@?$AAl?$AAv?$AA?9?$AAL?$AAV@ 10041800     mfcs140:nolib.obj
 0002:0000880c       ??_C@_1M@IFGBIJO@?$AAl?$AAt?$AA?9?$AAL?$AAT@ 1004180c     mfcs140:nolib.obj
 0002:00008818       ??_C@_1M@FGEAHEDM@?$AAf?$AAa?$AA?9?$AAI?$AAR@ 10041818     mfcs140:nolib.obj
 0002:00008824       ??_C@_1M@KBMAIBFN@?$AAv?$AAi?$AA?9?$AAV?$AAN@ 10041824     mfcs140:nolib.obj
 0002:00008830       ??_C@_1M@GPCBKDJK@?$AAh?$AAy?$AA?9?$AAA?$AAM@ 10041830     mfcs140:nolib.obj
 0002:0000883c       ??_C@_1BG@BECMDDJB@?$AAa?$AAz?$AA?9?$AAA?$AAZ?$AA?9?$AAL?$AAa?$AAt?$AAn@ 1004183c     mfcs140:nolib.obj
 0002:00008854       ??_C@_1M@MAOFCAEA@?$AAe?$AAu?$AA?9?$AAE?$AAS@ 10041854     mfcs140:nolib.obj
 0002:00008860       ??_C@_1M@IGHABKPI@?$AAm?$AAk?$AA?9?$AAM?$AAK@ 10041860     mfcs140:nolib.obj
 0002:0000886c       ??_C@_1M@IAIGNEJG@?$AAt?$AAn?$AA?9?$AAZ?$AAA@ 1004186c     mfcs140:nolib.obj
 0002:00008878       ??_C@_1M@IIJCOJFA@?$AAx?$AAh?$AA?9?$AAZ?$AAA@ 10041878     mfcs140:nolib.obj
 0002:00008884       ??_C@_1M@LGPJHNJH@?$AAz?$AAu?$AA?9?$AAZ?$AAA@ 10041884     mfcs140:nolib.obj
 0002:00008890       ??_C@_1M@HOKAOIO@?$AAa?$AAf?$AA?9?$AAZ?$AAA@ 10041890     mfcs140:nolib.obj
 0002:0000889c       ??_C@_1M@DPCLHLIE@?$AAk?$AAa?$AA?9?$AAG?$AAE@ 1004189c     mfcs140:nolib.obj
 0002:000088a8       ??_C@_1M@BLKMHJBI@?$AAf?$AAo?$AA?9?$AAF?$AAO@ 100418a8     mfcs140:nolib.obj
 0002:000088b4       ??_C@_1M@LGGJAPPB@?$AAh?$AAi?$AA?9?$AAI?$AAN@ 100418b4     mfcs140:nolib.obj
 0002:000088c0       ??_C@_1M@FIKPIHFE@?$AAm?$AAt?$AA?9?$AAM?$AAT@ 100418c0     mfcs140:nolib.obj
 0002:000088cc       ??_C@_1M@HEGGPBFA@?$AAs?$AAe?$AA?9?$AAN?$AAO@ 100418cc     mfcs140:nolib.obj
 0002:000088d8       ??_C@_1M@EIBJEEPA@?$AAm?$AAs?$AA?9?$AAM?$AAY@ 100418d8     mfcs140:nolib.obj
 0002:000088e4       ??_C@_1M@FHLBGMPP@?$AAk?$AAk?$AA?9?$AAK?$AAZ@ 100418e4     mfcs140:nolib.obj
 0002:000088f0       ??_C@_1M@NGJJLCGI@?$AAk?$AAy?$AA?9?$AAK?$AAG@ 100418f0     mfcs140:nolib.obj
 0002:000088fc       ??_C@_1M@GIENNBFC@?$AAs?$AAw?$AA?9?$AAK?$AAE@ 100418fc     mfcs140:nolib.obj
 0002:00008908       ??_C@_1BG@NDGMJIMJ@?$AAu?$AAz?$AA?9?$AAU?$AAZ?$AA?9?$AAL?$AAa?$AAt?$AAn@ 10041908     mfcs140:nolib.obj
 0002:00008920       ??_C@_1M@IDCCIHBC@?$AAt?$AAt?$AA?9?$AAR?$AAU@ 10041920     mfcs140:nolib.obj
 0002:0000892c       ??_C@_1M@LOICPMOJ@?$AAb?$AAn?$AA?9?$AAI?$AAN@ 1004192c     mfcs140:nolib.obj
 0002:00008938       ??_C@_1M@KPKKNEAH@?$AAp?$AAa?$AA?9?$AAI?$AAN@ 10041938     mfcs140:nolib.obj
 0002:00008944       ??_C@_1M@PJGPPBOG@?$AAg?$AAu?$AA?9?$AAI?$AAN@ 10041944     mfcs140:nolib.obj
 0002:00008950       ??_C@_1M@KMKMOPHI@?$AAt?$AAa?$AA?9?$AAI?$AAN@ 10041950     mfcs140:nolib.obj
 0002:0000895c       ??_C@_1M@KFEHEPAC@?$AAt?$AAe?$AA?9?$AAI?$AAN@ 1004195c     mfcs140:nolib.obj
 0002:00008968       ??_C@_1M@CDCLMGHI@?$AAk?$AAn?$AA?9?$AAI?$AAN@ 10041968     mfcs140:nolib.obj
 0002:00008974       ??_C@_1M@MIODLDKF@?$AAm?$AAl?$AA?9?$AAI?$AAN@ 10041974     mfcs140:nolib.obj
 0002:00008980       ??_C@_1M@PBIEACPO@?$AAm?$AAr?$AA?9?$AAI?$AAN@ 10041980     mfcs140:nolib.obj
 0002:0000898c       ??_C@_1M@NIDEAGPH@?$AAs?$AAa?$AA?9?$AAI?$AAN@ 1004198c     mfcs140:nolib.obj
 0002:00008998       ??_C@_1M@FHIHCBIO@?$AAm?$AAn?$AA?9?$AAM?$AAN@ 10041998     mfcs140:nolib.obj
 0002:000089a4       ??_C@_1M@JAIJPENP@?$AAc?$AAy?$AA?9?$AAG?$AAB@ 100419a4     mfcs140:nolib.obj
 0002:000089b0       ??_C@_1M@PHGFBEPN@?$AAg?$AAl?$AA?9?$AAE?$AAS@ 100419b0     mfcs140:nolib.obj
 0002:000089bc       ??_C@_1O@KPIPDNCP@?$AAk?$AAo?$AAk?$AA?9?$AAI?$AAN@ 100419bc     mfcs140:nolib.obj
 0002:000089cc       ??_C@_1O@KNHJLDJA@?$AAs?$AAy?$AAr?$AA?9?$AAS?$AAY@ 100419cc     mfcs140:nolib.obj
 0002:000089dc       ??_C@_1O@MKEKBLAH@?$AAd?$AAi?$AAv?$AA?9?$AAM?$AAV@ 100419dc     mfcs140:nolib.obj
 0002:000089ec       ??_C@_1O@OHDCKDDF@?$AAq?$AAu?$AAz?$AA?9?$AAB?$AAO@ 100419ec     mfcs140:nolib.obj
 0002:000089fc       ??_C@_1M@LEPJNLFD@?$AAn?$AAs?$AA?9?$AAZ?$AAA@ 100419fc     mfcs140:nolib.obj
 0002:00008a08       ??_C@_1M@OMLEIIJB@?$AAm?$AAi?$AA?9?$AAN?$AAZ@ 10041a08     mfcs140:nolib.obj
 0002:00008a14       ??_C@_1M@PMPEAILG@?$AAa?$AAr?$AA?9?$AAI?$AAQ@ 10041a14     mfcs140:nolib.obj
 0002:00008a20       ??_C@_1M@BIBDDEMK@?$AAz?$AAh?$AA?9?$AAC?$AAN@ 10041a20     mfcs140:nolib.obj
 0002:00008a2c       ??_C@_1M@CNKPNOEE@?$AAd?$AAe?$AA?9?$AAC?$AAH@ 10041a2c     mfcs140:nolib.obj
 0002:00008a38       ??_C@_1M@LKMGMLKO@?$AAe?$AAn?$AA?9?$AAG?$AAB@ 10041a38     mfcs140:nolib.obj
 0002:00008a44       ??_C@_1M@PGKJFFGL@?$AAe?$AAs?$AA?9?$AAM?$AAX@ 10041a44     mfcs140:nolib.obj
 0002:00008a50       ??_C@_1M@DNNANBDC@?$AAf?$AAr?$AA?9?$AAB?$AAE@ 10041a50     mfcs140:nolib.obj
 0002:00008a5c       ??_C@_1M@HLGMDFHM@?$AAi?$AAt?$AA?9?$AAC?$AAH@ 10041a5c     mfcs140:nolib.obj
 0002:00008a68       ??_C@_1M@CLLBGJH@?$AAn?$AAl?$AA?9?$AAB?$AAE@ 10041a68     mfcs140:nolib.obj
 0002:00008a74       ??_C@_1M@BODBOGLF@?$AAn?$AAn?$AA?9?$AAN?$AAO@ 10041a74     mfcs140:nolib.obj
 0002:00008a80       ??_C@_1M@HFFAHKAD@?$AAp?$AAt?$AA?9?$AAP?$AAT@ 10041a80     mfcs140:nolib.obj
 0002:00008a8c       ??_C@_1BG@LNOAKHIE@?$AAs?$AAr?$AA?9?$AAS?$AAP?$AA?9?$AAL?$AAa?$AAt?$AAn@ 10041a8c     mfcs140:nolib.obj
 0002:00008aa4       ??_C@_1M@HBMHBGAK@?$AAs?$AAv?$AA?9?$AAF?$AAI@ 10041aa4     mfcs140:nolib.obj
 0002:00008ab0       ??_C@_1BG@DGCJGJBE@?$AAa?$AAz?$AA?9?$AAA?$AAZ?$AA?9?$AAC?$AAy?$AAr?$AAl@ 10041ab0     mfcs140:nolib.obj
 0002:00008ac8       ??_C@_1M@KEJDAAHB@?$AAs?$AAe?$AA?9?$AAS?$AAE@ 10041ac8     mfcs140:nolib.obj
 0002:00008ad4       ??_C@_1M@HEIBJJAD@?$AAm?$AAs?$AA?9?$AAB?$AAN@ 10041ad4     mfcs140:nolib.obj
 0002:00008ae0       ??_C@_1BG@PBGJMCEM@?$AAu?$AAz?$AA?9?$AAU?$AAZ?$AA?9?$AAC?$AAy?$AAr?$AAl@ 10041ae0     mfcs140:nolib.obj
 0002:00008af8       ??_C@_1O@LAOBCMDF@?$AAq?$AAu?$AAz?$AA?9?$AAE?$AAC@ 10041af8     mfcs140:nolib.obj
 0002:00008b08       ??_C@_1M@POEEMAIO@?$AAa?$AAr?$AA?9?$AAE?$AAG@ 10041b08     mfcs140:nolib.obj
 0002:00008b14       ??_C@_1M@EFAKDEDL@?$AAz?$AAh?$AA?9?$AAH?$AAK@ 10041b14     mfcs140:nolib.obj
 0002:00008b20       ??_C@_1M@HKKIJHGI@?$AAd?$AAe?$AA?9?$AAA?$AAT@ 10041b20     mfcs140:nolib.obj
 0002:00008b2c       ??_C@_1M@KBFBEHJF@?$AAe?$AAn?$AA?9?$AAA?$AAU@ 10041b2c     mfcs140:nolib.obj
 0002:00008b38       ??_C@_1M@MNPLFAAH@?$AAe?$AAs?$AA?9?$AAE?$AAS@ 10041b38     mfcs140:nolib.obj
 0002:00008b44       ??_C@_1M@HJOOJFMA@?$AAf?$AAr?$AA?9?$AAC?$AAA@ 10041b44     mfcs140:nolib.obj
 0002:00008b50       ??_C@_1BG@JPOFPNAB@?$AAs?$AAr?$AA?9?$AAS?$AAP?$AA?9?$AAC?$AAy?$AAr?$AAl@ 10041b50     mfcs140:nolib.obj
 0002:00008b68       ??_C@_1M@LNFOCMOB@?$AAs?$AAe?$AA?9?$AAF?$AAI@ 10041b68     mfcs140:nolib.obj
 0002:00008b74       ??_C@_1O@MGJBOAMB@?$AAq?$AAu?$AAz?$AA?9?$AAP?$AAE@ 10041b74     mfcs140:nolib.obj
 0002:00008b84       ??_C@_1M@GJINLBOK@?$AAa?$AAr?$AA?9?$AAL?$AAY@ 10041b84     mfcs140:nolib.obj
 0002:00008b90       ??_C@_1M@GGMNHJNL@?$AAz?$AAh?$AA?9?$AAS?$AAG@ 10041b90     mfcs140:nolib.obj
 0002:00008b9c       ??_C@_1M@HOIKODND@?$AAd?$AAe?$AA?9?$AAL?$AAU@ 10041b9c     mfcs140:nolib.obj
 0002:00008ba8       ??_C@_1M@DDOCCGFG@?$AAe?$AAn?$AA?9?$AAC?$AAA@ 10041ba8     mfcs140:nolib.obj
 0002:00008bb4       ??_C@_1M@BNOEMJLF@?$AAe?$AAs?$AA?9?$AAG?$AAT@ 10041bb4     mfcs140:nolib.obj
 0002:00008bc0       ??_C@_1M@EOGNKEK@?$AAf?$AAr?$AA?9?$AAC?$AAH@ 10041bc0     mfcs140:nolib.obj
 0002:00008bcc       ??_C@_1M@FLIDJFHL@?$AAh?$AAr?$AA?9?$AAB?$AAA@ 10041bcc     mfcs140:nolib.obj
 0002:00008bd8       ??_C@_1O@FMCELNAJ@?$AAs?$AAm?$AAj?$AA?9?$AAN?$AAO@ 10041bd8     mfcs140:nolib.obj
 0002:00008be8       ??_C@_1M@JHGLJMGJ@?$AAa?$AAr?$AA?9?$AAD?$AAZ@ 10041be8     mfcs140:nolib.obj
 0002:00008bf4       ??_C@_1M@JKKFDCNP@?$AAz?$AAh?$AA?9?$AAM?$AAO@ 10041bf4     mfcs140:nolib.obj
 0002:00008c00       ??_C@_1M@GEEFALPE@?$AAd?$AAe?$AA?9?$AAL?$AAI@ 10041c00     mfcs140:nolib.obj
 0002:00008c0c       ??_C@_1M@IGEOFBG@?$AAe?$AAn?$AA?9?$AAN?$AAZ@ 10041c0c     mfcs140:nolib.obj
 0002:00008c18       ??_C@_1M@KDBONEHP@?$AAe?$AAs?$AA?9?$AAC?$AAR@ 10041c18     mfcs140:nolib.obj
 0002:00008c24       ??_C@_1M@FHMDOHNN@?$AAf?$AAr?$AA?9?$AAL?$AAU@ 10041c24     mfcs140:nolib.obj
 0002:00008c30       ??_C@_1BG@NFKKMAFG@?$AAb?$AAs?$AA?9?$AAB?$AAA?$AA?9?$AAL?$AAa?$AAt?$AAn@ 10041c30     mfcs140:nolib.obj
 0002:00008c48       ??_C@_1O@IMNBEMCI@?$AAs?$AAm?$AAj?$AA?9?$AAS?$AAE@ 10041c48     mfcs140:nolib.obj
 0002:00008c58       ??_C@_1M@DHHMBNDP@?$AAa?$AAr?$AA?9?$AAM?$AAA@ 10041c58     mfcs140:nolib.obj
 0002:00008c64       ??_C@_1M@BNBLJCGH@?$AAe?$AAn?$AA?9?$AAI?$AAE@ 10041c64     mfcs140:nolib.obj
 0002:00008c70       ??_C@_1M@GEPAFMDL@?$AAe?$AAs?$AA?9?$AAP?$AAA@ 10041c70     mfcs140:nolib.obj
 0002:00008c7c       ??_C@_1M@OJONDMDL@?$AAf?$AAr?$AA?9?$AAM?$AAC@ 10041c7c     mfcs140:nolib.obj
 0002:00008c88       ??_C@_1BG@OBCNFJB@?$AAs?$AAr?$AA?9?$AAB?$AAA?$AA?9?$AAL?$AAa?$AAt?$AAn@ 10041c88     mfcs140:nolib.obj
 0002:00008ca0       ??_C@_1O@KEMEEGPO@?$AAs?$AAm?$AAa?$AA?9?$AAN?$AAO@ 10041ca0     mfcs140:nolib.obj
 0002:00008cb0       ??_C@_1M@ELMGFODK@?$AAa?$AAr?$AA?9?$AAT?$AAN@ 10041cb0     mfcs140:nolib.obj
 0002:00008cbc       ??_C@_1M@BHDLHFAF@?$AAe?$AAn?$AA?9?$AAZ?$AAA@ 10041cbc     mfcs140:nolib.obj
 0002:00008cc8       ??_C@_1M@BMGIGLIF@?$AAe?$AAs?$AA?9?$AAD?$AAO@ 10041cc8     mfcs140:nolib.obj
 0002:00008cd4       ??_C@_1BG@CMBHIPBE@?$AAs?$AAr?$AA?9?$AAB?$AAA?$AA?9?$AAC?$AAy?$AAr?$AAl@ 10041cd4     mfcs140:nolib.obj
 0002:00008cec       ??_C@_1O@HEDBLHNP@?$AAs?$AAm?$AAa?$AA?9?$AAS?$AAE@ 10041cec     mfcs140:nolib.obj
 0002:00008cfc       ??_C@_1M@DAGCADIM@?$AAa?$AAr?$AA?9?$AAO?$AAM@ 10041cfc     mfcs140:nolib.obj
 0002:00008d08       ??_C@_1M@FODLMICG@?$AAe?$AAn?$AA?9?$AAJ?$AAM@ 10041d08     mfcs140:nolib.obj
 0002:00008d14       ??_C@_1M@DNMLCIHB@?$AAe?$AAs?$AA?9?$AAV?$AAE@ 10041d14     mfcs140:nolib.obj
 0002:00008d20       ??_C@_1O@EOKHMKJK@?$AAs?$AAm?$AAs?$AA?9?$AAF?$AAI@ 10041d20     mfcs140:nolib.obj
 0002:00008d30       ??_C@_1M@CAFJMKOF@?$AAa?$AAr?$AA?9?$AAY?$AAE@ 10041d30     mfcs140:nolib.obj
 0002:00008d3c       ??_C@_1M@CBFHIJLI@?$AAe?$AAn?$AA?9?$AAC?$AAB@ 10041d3c     mfcs140:nolib.obj
 0002:00008d48       ??_C@_1M@BGNFLDN@?$AAe?$AAs?$AA?9?$AAC?$AAO@ 10041d48     mfcs140:nolib.obj
 0002:00008d54       ??_C@_1O@JMPHMAMC@?$AAs?$AAm?$AAn?$AA?9?$AAF?$AAI@ 10041d54     mfcs140:nolib.obj
 0002:00008d64       ??_C@_1M@JLANABKE@?$AAa?$AAr?$AA?9?$AAS?$AAY@ 10041d64     mfcs140:nolib.obj
 0002:00008d70       ??_C@_1M@HPKGCFGN@?$AAe?$AAn?$AA?9?$AAB?$AAZ@ 10041d70     mfcs140:nolib.obj
 0002:00008d7c       ??_C@_1M@OLJCMLGM@?$AAe?$AAs?$AA?9?$AAP?$AAE@ 10041d7c     mfcs140:nolib.obj
 0002:00008d88       ??_C@_1M@MKKGFKLE@?$AAa?$AAr?$AA?9?$AAJ?$AAO@ 10041d88     mfcs140:nolib.obj
 0002:00008d94       ??_C@_1M@EKPGLDNI@?$AAe?$AAn?$AA?9?$AAT?$AAT@ 10041d94     mfcs140:nolib.obj
 0002:00008da0       ??_C@_1M@OONGHFHE@?$AAe?$AAs?$AA?9?$AAA?$AAR@ 10041da0     mfcs140:nolib.obj
 0002:00008dac       ??_C@_1M@OOJFGBHE@?$AAa?$AAr?$AA?9?$AAL?$AAB@ 10041dac     mfcs140:nolib.obj
 0002:00008db8       ??_C@_1M@GCEJHNEG@?$AAe?$AAn?$AA?9?$AAZ?$AAW@ 10041db8     mfcs140:nolib.obj
 0002:00008dc4       ??_C@_1M@JNOCAHJI@?$AAe?$AAs?$AA?9?$AAE?$AAC@ 10041dc4     mfcs140:nolib.obj
 0002:00008dd0       ??_C@_1M@JEFHPGGB@?$AAa?$AAr?$AA?9?$AAK?$AAW@ 10041dd0     mfcs140:nolib.obj
 0002:00008ddc       ??_C@_1M@MLKIBJOJ@?$AAe?$AAn?$AA?9?$AAP?$AAH@ 10041ddc     mfcs140:nolib.obj
 0002:00008de8       ??_C@_1M@BDNIPEND@?$AAe?$AAs?$AA?9?$AAC?$AAL@ 10041de8     mfcs140:nolib.obj
 0002:00008df4       ??_C@_1M@MPNMEKBD@?$AAa?$AAr?$AA?9?$AAA?$AAE@ 10041df4     mfcs140:nolib.obj
 0002:00008e00       ??_C@_1M@KBJALCPI@?$AAe?$AAs?$AA?9?$AAU?$AAY@ 10041e00     mfcs140:nolib.obj
 0002:00008e0c       ??_C@_1M@LLCCOAGA@?$AAa?$AAr?$AA?9?$AAB?$AAH@ 10041e0c     mfcs140:nolib.obj
 0002:00008e18       ??_C@_1M@PBFNCDEL@?$AAe?$AAs?$AA?9?$AAP?$AAY@ 10041e18     mfcs140:nolib.obj
 0002:00008e24       ??_C@_1M@EDGINPNP@?$AAa?$AAr?$AA?9?$AAQ?$AAA@ 10041e24     mfcs140:nolib.obj
 0002:00008e30       ??_C@_1M@MKDBIIJI@?$AAe?$AAs?$AA?9?$AAB?$AAO@ 10041e30     mfcs140:nolib.obj
 0002:00008e3c       ??_C@_1M@CPKKEBLD@?$AAe?$AAs?$AA?9?$AAS?$AAV@ 10041e3c     mfcs140:nolib.obj
 0002:00008e48       ??_C@_1M@NDBGMMJL@?$AAe?$AAs?$AA?9?$AAH?$AAN@ 10041e48     mfcs140:nolib.obj
 0002:00008e54       ??_C@_1M@JIJIBHDP@?$AAe?$AAs?$AA?9?$AAN?$AAI@ 10041e54     mfcs140:nolib.obj
 0002:00008e60       ??_C@_1M@CGFMKEEK@?$AAe?$AAs?$AA?9?$AAP?$AAR@ 10041e60     mfcs140:nolib.obj
 0002:00008e6c       ??_C@_1O@ICJHKIIK@?$AAz?$AAh?$AA?9?$AAC?$AAH?$AAT@ 10041e6c     mfcs140:nolib.obj
 0002:00008e7c       ??_C@_15CLNEJCE@?$AAs?$AAr@ 10041e7c     mfcs140:nolib.obj
 0002:00008e88       __pAtlLocaleNameToIndexTable 10041e88     mfcs140:nolib.obj
 0002:000095a8       ??_C@_1M@KAHEKEIG@?$AAa?$AAf?$AA?9?$AAz?$AAa@ 100425a8     mfcs140:nolib.obj
 0002:000095b4       ??_C@_1M@GIECOABL@?$AAa?$AAr?$AA?9?$AAa?$AAe@ 100425b4     mfcs140:nolib.obj
 0002:000095c0       ??_C@_1M@BMLMEKGI@?$AAa?$AAr?$AA?9?$AAb?$AAh@ 100425c0     mfcs140:nolib.obj
 0002:000095cc       ??_C@_1M@DAPFDGGB@?$AAa?$AAr?$AA?9?$AAd?$AAz@ 100425cc     mfcs140:nolib.obj
 0002:000095d8       ??_C@_1M@FJNKGKIG@?$AAa?$AAr?$AA?9?$AAe?$AAg@ 100425d8     mfcs140:nolib.obj
 0002:000095e4       ??_C@_1M@FLGKKCLO@?$AAa?$AAr?$AA?9?$AAi?$AAq@ 100425e4     mfcs140:nolib.obj
 0002:000095f0       ??_C@_1M@GNDIPALM@?$AAa?$AAr?$AA?9?$AAj?$AAo@ 100425f0     mfcs140:nolib.obj
 0002:000095fc       ??_C@_1M@DDMJFMGJ@?$AAa?$AAr?$AA?9?$AAk?$AAw@ 100425fc     mfcs140:nolib.obj
 0002:00009608       ??_C@_1M@EJALMLHM@?$AAa?$AAr?$AA?9?$AAl?$AAb@ 10042608     mfcs140:nolib.obj
 0002:00009614       ??_C@_1M@MOBDBLOC@?$AAa?$AAr?$AA?9?$AAl?$AAy@ 10042614     mfcs140:nolib.obj
 0002:00009620       ??_C@_1M@JAOCLHDH@?$AAa?$AAr?$AA?9?$AAm?$AAa@ 10042620     mfcs140:nolib.obj
 0002:0000962c       ??_C@_1M@JHPMKJIE@?$AAa?$AAr?$AA?9?$AAo?$AAm@ 1004262c     mfcs140:nolib.obj
 0002:00009638       ??_C@_1M@OEPGHFNH@?$AAa?$AAr?$AA?9?$AAq?$AAa@ 10042638     mfcs140:nolib.obj
 0002:00009644       ??_C@_1M@KJDONENM@?$AAa?$AAr?$AA?9?$AAs?$AAa@ 10042644     mfcs140:nolib.obj
 0002:00009650       ??_C@_1M@DMJDKLKM@?$AAa?$AAr?$AA?9?$AAs?$AAy@ 10042650     mfcs140:nolib.obj
 0002:0000965c       ??_C@_1M@OMFIPEDC@?$AAa?$AAr?$AA?9?$AAt?$AAn@ 1004265c     mfcs140:nolib.obj
 0002:00009668       ??_C@_1M@IHMHGAON@?$AAa?$AAr?$AA?9?$AAy?$AAe@ 10042668     mfcs140:nolib.obj
 0002:00009674       ??_C@_1BG@KDCPGJGB@?$AAa?$AAz?$AA?9?$AAa?$AAz?$AA?9?$AAc?$AAy?$AAr?$AAl@ 10042674     mfcs140:nolib.obj
 0002:0000968c       ??_C@_1BG@IBCKDDOE@?$AAa?$AAz?$AA?9?$AAa?$AAz?$AA?9?$AAl?$AAa?$AAt?$AAn@ 1004268c     mfcs140:nolib.obj
 0002:000096a4       ??_C@_1M@EGPFDCPD@?$AAb?$AAe?$AA?9?$AAb?$AAy@ 100426a4     mfcs140:nolib.obj
 0002:000096b0       ??_C@_1M@PCMGMCGC@?$AAb?$AAg?$AA?9?$AAb?$AAg@ 100426b0     mfcs140:nolib.obj
 0002:000096bc       ??_C@_1M@BJBMFGOB@?$AAb?$AAn?$AA?9?$AAi?$AAn@ 100426bc     mfcs140:nolib.obj
 0002:000096c8       ??_C@_1BG@EAKMMACD@?$AAb?$AAs?$AA?9?$AAb?$AAa?$AA?9?$AAl?$AAa?$AAt?$AAn@ 100426c8     mfcs140:nolib.obj
 0002:000096e0       ??_C@_1M@KGADAODK@?$AAc?$AAa?$AA?9?$AAe?$AAs@ 100426e0     mfcs140:nolib.obj
 0002:000096ec       ??_C@_1M@COAJPDHI@?$AAc?$AAs?$AA?9?$AAc?$AAz@ 100426ec     mfcs140:nolib.obj
 0002:000096f8       ??_C@_1M@DHBHFONH@?$AAc?$AAy?$AA?9?$AAg?$AAb@ 100426f8     mfcs140:nolib.obj
 0002:00009704       ??_C@_1M@IMGKELGA@?$AAd?$AAa?$AA?9?$AAd?$AAk@ 10042704     mfcs140:nolib.obj
 0002:00009710       ??_C@_1M@NNDGDNGA@?$AAd?$AAe?$AA?9?$AAa?$AAt@ 10042710     mfcs140:nolib.obj
 0002:0000971c       ??_C@_1M@IKDBHEEM@?$AAd?$AAe?$AA?9?$AAc?$AAh@ 1004271c     mfcs140:nolib.obj
 0002:00009728       ??_C@_1M@GFFOJMCJ@?$AAd?$AAe?$AA?9?$AAd?$AAe@ 10042728     mfcs140:nolib.obj
 0002:00009734       ??_C@_1M@MDNLKBPM@?$AAd?$AAe?$AA?9?$AAl?$AAi@ 10042734     mfcs140:nolib.obj
 0002:00009740       ??_C@_1M@NJBEEJNL@?$AAd?$AAe?$AA?9?$AAl?$AAu@ 10042740     mfcs140:nolib.obj
 0002:0000974c       ??_C@_1O@GNNELBAP@?$AAd?$AAi?$AAv?$AA?9?$AAm?$AAv@ 1004274c     mfcs140:nolib.obj
 0002:0000975c       ??_C@_1M@EJLEOGAE@?$AAe?$AAl?$AA?9?$AAg?$AAr@ 1004275c     mfcs140:nolib.obj
 0002:00009768       ??_C@_1M@GMPONJN@?$AAe?$AAn?$AA?9?$AAa?$AAu@ 10042768     mfcs140:nolib.obj
 0002:00009774       ??_C@_1M@NIDIIPGF@?$AAe?$AAn?$AA?9?$AAb?$AAz@ 10042774     mfcs140:nolib.obj
 0002:00009780       ??_C@_1M@JEHMIMFO@?$AAe?$AAn?$AA?9?$AAc?$AAa@ 10042780     mfcs140:nolib.obj
 0002:0000978c       ??_C@_1M@IGMJCDLA@?$AAe?$AAn?$AA?9?$AAc?$AAb@ 1004278c     mfcs140:nolib.obj
 0002:00009798       ??_C@_1M@BNFIGBKG@?$AAe?$AAn?$AA?9?$AAg?$AAb@ 10042798     mfcs140:nolib.obj
 0002:000097a4       ??_C@_1M@LKIFDIGP@?$AAe?$AAn?$AA?9?$AAi?$AAe@ 100427a4     mfcs140:nolib.obj
 0002:000097b0       ??_C@_1M@PJKFGCCO@?$AAe?$AAn?$AA?9?$AAj?$AAm@ 100427b0     mfcs140:nolib.obj
 0002:000097bc       ??_C@_1M@KPPKEPBO@?$AAe?$AAn?$AA?9?$AAn?$AAz@ 100427bc     mfcs140:nolib.obj
 0002:000097c8       ??_C@_1M@GMDGLDOB@?$AAe?$AAn?$AA?9?$AAp?$AAh@ 100427c8     mfcs140:nolib.obj
 0002:000097d4       ??_C@_1M@ONGIBJNA@?$AAe?$AAn?$AA?9?$AAt?$AAt@ 100427d4     mfcs140:nolib.obj
 0002:000097e0       ??_C@_1M@LLODPCMM@?$AAe?$AAn?$AA?9?$AAu?$AAs@ 100427e0     mfcs140:nolib.obj
 0002:000097ec       ??_C@_1M@LAKFNPAN@?$AAe?$AAn?$AA?9?$AAz?$AAa@ 100427ec     mfcs140:nolib.obj
 0002:000097f8       ??_C@_1M@MFNHNHEO@?$AAe?$AAn?$AA?9?$AAz?$AAw@ 100427f8     mfcs140:nolib.obj
 0002:00009804       ??_C@_1M@EJEINPHM@?$AAe?$AAs?$AA?9?$AAa?$AAr@ 10042804     mfcs140:nolib.obj
 0002:00009810       ??_C@_1M@GNKPCCJA@?$AAe?$AAs?$AA?9?$AAb?$AAo@ 10042810     mfcs140:nolib.obj
 0002:0000981c       ??_C@_1M@LEEGFONL@?$AAe?$AAs?$AA?9?$AAc?$AAl@ 1004281c     mfcs140:nolib.obj
 0002:00009828       ??_C@_1M@KGPDPBDF@?$AAe?$AAs?$AA?9?$AAc?$AAo@ 10042828     mfcs140:nolib.obj
 0002:00009834       ??_C@_1M@EIAHOHH@?$AAe?$AAs?$AA?9?$AAc?$AAr@ 10042834     mfcs140:nolib.obj
 0002:00009840       ??_C@_1M@LLPGMBIN@?$AAe?$AAs?$AA?9?$AAd?$AAo@ 10042840     mfcs140:nolib.obj
 0002:0000984c       ??_C@_1M@DKHMKNJA@?$AAe?$AAs?$AA?9?$AAe?$AAc@ 1004284c     mfcs140:nolib.obj
 0002:00009858       ??_C@_1M@GKGFPKAP@?$AAe?$AAs?$AA?9?$AAe?$AAs@ 10042858     mfcs140:nolib.obj
 0002:00009864       ??_C@_1M@LKHKGDLN@?$AAe?$AAs?$AA?9?$AAg?$AAt@ 10042864     mfcs140:nolib.obj
 0002:00009870       ??_C@_1M@HEIIGGJD@?$AAe?$AAs?$AA?9?$AAh?$AAn@ 10042870     mfcs140:nolib.obj
 0002:0000987c       ??_C@_1M@FBDHPPGD@?$AAe?$AAs?$AA?9?$AAm?$AAx@ 1004287c     mfcs140:nolib.obj
 0002:00009888       ??_C@_1M@DPAGLNDH@?$AAe?$AAs?$AA?9?$AAn?$AAi@ 10042888     mfcs140:nolib.obj
 0002:00009894       ??_C@_1M@MDGOPGDD@?$AAe?$AAs?$AA?9?$AAp?$AAa@ 10042894     mfcs140:nolib.obj
 0002:000098a0       ??_C@_1M@EMAMGBGE@?$AAe?$AAs?$AA?9?$AAp?$AAe@ 100428a0     mfcs140:nolib.obj
 0002:000098ac       ??_C@_1M@IBMCAOEC@?$AAe?$AAs?$AA?9?$AAp?$AAr@ 100428ac     mfcs140:nolib.obj
 0002:000098b8       ??_C@_1M@FGMDIJED@?$AAe?$AAs?$AA?9?$AAp?$AAy@ 100428b8     mfcs140:nolib.obj
 0002:000098c4       ??_C@_1M@IIDEOLLL@?$AAe?$AAs?$AA?9?$AAs?$AAv@ 100428c4     mfcs140:nolib.obj
 0002:000098d0       ??_C@_1M@GAOBIPA@?$AAe?$AAs?$AA?9?$AAu?$AAy@ 100428d0     mfcs140:nolib.obj
 0002:000098dc       ??_C@_1M@JKFFICHJ@?$AAe?$AAs?$AA?9?$AAv?$AAe@ 100428dc     mfcs140:nolib.obj
 0002:000098e8       ??_C@_1M@PNMLOJDF@?$AAe?$AAt?$AA?9?$AAe?$AAe@ 100428e8     mfcs140:nolib.obj
 0002:000098f4       ??_C@_1M@GHHLIKEI@?$AAe?$AAu?$AA?9?$AAe?$AAs@ 100428f4     mfcs140:nolib.obj
 0002:00009900       ??_C@_1M@PBNONODE@?$AAf?$AAa?$AA?9?$AAi?$AAr@ 10042900     mfcs140:nolib.obj
 0002:0000990c       ??_C@_1M@JEEHPMIL@?$AAf?$AAi?$AA?9?$AAf?$AAi@ 1004290c     mfcs140:nolib.obj
 0002:00009918       ??_C@_1M@LMDCNDBA@?$AAf?$AAo?$AA?9?$AAf?$AAo@ 10042918     mfcs140:nolib.obj
 0002:00009924       ??_C@_1M@JKEOHLDK@?$AAf?$AAr?$AA?9?$AAb?$AAe@ 10042924     mfcs140:nolib.obj
 0002:00009930       ??_C@_1M@NOHADPMI@?$AAf?$AAr?$AA?9?$AAc?$AAa@ 10042930     mfcs140:nolib.obj
 0002:0000993c       ??_C@_1M@KDHIHAEC@?$AAf?$AAr?$AA?9?$AAc?$AAh@ 1004293c     mfcs140:nolib.obj
 0002:00009948       ??_C@_1M@MMBBFGAK@?$AAf?$AAr?$AA?9?$AAf?$AAr@ 10042948     mfcs140:nolib.obj
 0002:00009954       ??_C@_1M@PAFNENNF@?$AAf?$AAr?$AA?9?$AAl?$AAu@ 10042954     mfcs140:nolib.obj
 0002:00009960       ??_C@_1M@EOHDJGDD@?$AAf?$AAr?$AA?9?$AAm?$AAc@ 10042960     mfcs140:nolib.obj
 0002:0000996c       ??_C@_1M@FAPLLOPF@?$AAg?$AAl?$AA?9?$AAe?$AAs@ 1004296c     mfcs140:nolib.obj
 0002:00009978       ??_C@_1M@FOPBFLOO@?$AAg?$AAu?$AA?9?$AAi?$AAn@ 10042978     mfcs140:nolib.obj
 0002:00009984       ??_C@_1M@KBMCINPM@?$AAh?$AAe?$AA?9?$AAi?$AAl@ 10042984     mfcs140:nolib.obj
 0002:00009990       ??_C@_1M@BBPHKFPJ@?$AAh?$AAi?$AA?9?$AAi?$AAn@ 10042990     mfcs140:nolib.obj
 0002:0000999c       ??_C@_1M@PMBNDPHD@?$AAh?$AAr?$AA?9?$AAb?$AAa@ 1004299c     mfcs140:nolib.obj
 0002:000099a8       ??_C@_1M@BPCKOEGE@?$AAh?$AAr?$AA?9?$AAh?$AAr@ 100429a8     mfcs140:nolib.obj
 0002:000099b4       ??_C@_1M@GACBMHKE@?$AAh?$AAu?$AA?9?$AAh?$AAu@ 100429b4     mfcs140:nolib.obj
 0002:000099c0       ??_C@_1M@MILPAJJC@?$AAh?$AAy?$AA?9?$AAa?$AAm@ 100429c0     mfcs140:nolib.obj
 0002:000099cc       ??_C@_1M@BABBICEC@?$AAi?$AAd?$AA?9?$AAi?$AAd@ 100429cc     mfcs140:nolib.obj
 0002:000099d8       ??_C@_1M@BIKNHHPF@?$AAi?$AAs?$AA?9?$AAi?$AAs@ 100429d8     mfcs140:nolib.obj
 0002:000099e4       ??_C@_1M@NMPCJPHE@?$AAi?$AAt?$AA?9?$AAc?$AAh@ 100429e4     mfcs140:nolib.obj
 0002:000099f0       ??_C@_1M@GHKGFEDF@?$AAi?$AAt?$AA?9?$AAi?$AAt@ 100429f0     mfcs140:nolib.obj
 0002:000099fc       ??_C@_1M@NIEJCJJA@?$AAj?$AAa?$AA?9?$AAj?$AAp@ 100429fc     mfcs140:nolib.obj
 0002:00009a08       ??_C@_1M@JILFNBIM@?$AAk?$AAa?$AA?9?$AAg?$AAe@ 10042a08     mfcs140:nolib.obj
 0002:00009a14       ??_C@_1M@PACPMGPH@?$AAk?$AAk?$AA?9?$AAk?$AAz@ 10042a14     mfcs140:nolib.obj
 0002:00009a20       ??_C@_1M@IELFGMHA@?$AAk?$AAn?$AA?9?$AAi?$AAn@ 10042a20     mfcs140:nolib.obj
 0002:00009a2c       ??_C@_1O@IBBJHCH@?$AAk?$AAo?$AAk?$AA?9?$AAi?$AAn@ 10042a2c     mfcs140:nolib.obj
 0002:00009a3c       ??_C@_1M@DMHAEOGC@?$AAk?$AAo?$AA?9?$AAk?$AAr@ 10042a3c     mfcs140:nolib.obj
 0002:00009a48       ??_C@_1M@HBAHBIGA@?$AAk?$AAy?$AA?9?$AAk?$AAg@ 10042a48     mfcs140:nolib.obj
 0002:00009a54       ??_C@_1M@KPMILCJG@?$AAl?$AAt?$AA?9?$AAl?$AAt@ 10042a54     mfcs140:nolib.obj
 0002:00009a60       ??_C@_1M@BDEKKCA@?$AAl?$AAv?$AA?9?$AAl?$AAv@ 10042a60     mfcs140:nolib.obj
 0002:00009a6c       ??_C@_1M@ELCKCCJJ@?$AAm?$AAi?$AA?9?$AAn?$AAz@ 10042a6c     mfcs140:nolib.obj
 0002:00009a78       ??_C@_1M@CBOOLAPA@?$AAm?$AAk?$AA?9?$AAm?$AAk@ 10042a78     mfcs140:nolib.obj
 0002:00009a84       ??_C@_1M@GPHNBJKN@?$AAm?$AAl?$AA?9?$AAi?$AAn@ 10042a84     mfcs140:nolib.obj
 0002:00009a90       ??_C@_1M@PABJILIG@?$AAm?$AAn?$AA?9?$AAm?$AAn@ 10042a90     mfcs140:nolib.obj
 0002:00009a9c       ??_C@_1M@FGBKKIPG@?$AAm?$AAr?$AA?9?$AAi?$AAn@ 10042a9c     mfcs140:nolib.obj
 0002:00009aa8       ??_C@_1M@NDBPDDAL@?$AAm?$AAs?$AA?9?$AAb?$AAn@ 10042aa8     mfcs140:nolib.obj
 0002:00009ab4       ??_C@_1M@OPIHOOPI@?$AAm?$AAs?$AA?9?$AAm?$AAy@ 10042ab4     mfcs140:nolib.obj
 0002:00009ac0       ??_C@_1M@PPDBCNFM@?$AAm?$AAt?$AA?9?$AAm?$AAt@ 10042ac0     mfcs140:nolib.obj
 0002:00009acc       ??_C@_1M@KDJDKMDD@?$AAn?$AAb?$AA?9?$AAn?$AAo@ 10042acc     mfcs140:nolib.obj
 0002:00009ad8       ??_C@_1M@KFCFLMJP@?$AAn?$AAl?$AA?9?$AAb?$AAe@ 10042ad8     mfcs140:nolib.obj
 0002:00009ae4       ??_C@_1M@KPOPDDGO@?$AAn?$AAl?$AA?9?$AAn?$AAl@ 10042ae4     mfcs140:nolib.obj
 0002:00009af0       ??_C@_1M@LJKPEMLN@?$AAn?$AAn?$AA?9?$AAn?$AAo@ 10042af0     mfcs140:nolib.obj
 0002:00009afc       ??_C@_1M@BDGHHBFL@?$AAn?$AAs?$AA?9?$AAz?$AAa@ 10042afc     mfcs140:nolib.obj
 0002:00009b08       ??_C@_1M@IDEHOAP@?$AAp?$AAa?$AA?9?$AAi?$AAn@ 10042b08     mfcs140:nolib.obj
 0002:00009b14       ??_C@_1M@HDBKGOGH@?$AAp?$AAl?$AA?9?$AAp?$AAl@ 10042b14     mfcs140:nolib.obj
 0002:00009b20       ??_C@_1M@LJLLCMEH@?$AAp?$AAt?$AA?9?$AAb?$AAr@ 10042b20     mfcs140:nolib.obj
 0002:00009b2c       ??_C@_1M@NCMONAAL@?$AAp?$AAt?$AA?9?$AAp?$AAt@ 10042b2c     mfcs140:nolib.obj
 0002:00009b38       ??_C@_1O@EAKMAJDN@?$AAq?$AAu?$AAz?$AA?9?$AAb?$AAo@ 10042b38     mfcs140:nolib.obj
 0002:00009b48       ??_C@_1O@BHHPIGDN@?$AAq?$AAu?$AAz?$AA?9?$AAe?$AAc@ 10042b48     mfcs140:nolib.obj
 0002:00009b58       ??_C@_1O@GBAPEKMJ@?$AAq?$AAu?$AAz?$AA?9?$AAp?$AAe@ 10042b58     mfcs140:nolib.obj
 0002:00009b68       ??_C@_1M@CLGLEFBO@?$AAr?$AAo?$AA?9?$AAr?$AAo@ 10042b68     mfcs140:nolib.obj
 0002:00009b74       ??_C@_1M@CEEDODME@?$AAr?$AAu?$AA?9?$AAr?$AAu@ 10042b74     mfcs140:nolib.obj
 0002:00009b80       ??_C@_1M@HPKKKMPP@?$AAs?$AAa?$AA?9?$AAi?$AAn@ 10042b80     mfcs140:nolib.obj
 0002:00009b8c       ??_C@_1M@BKMAIGOJ@?$AAs?$AAe?$AA?9?$AAf?$AAi@ 10042b8c     mfcs140:nolib.obj
 0002:00009b98       ??_C@_1M@NDPIFLFI@?$AAs?$AAe?$AA?9?$AAn?$AAo@ 10042b98     mfcs140:nolib.obj
 0002:00009ba4       ??_C@_1M@DANKKHJ@?$AAs?$AAe?$AA?9?$AAs?$AAe@ 10042ba4     mfcs140:nolib.obj
 0002:00009bb0       ??_C@_1M@PNBLONPJ@?$AAs?$AAk?$AA?9?$AAs?$AAk@ 10042bb0     mfcs140:nolib.obj
 0002:00009bbc       ??_C@_1M@LFMODOAL@?$AAs?$AAl?$AA?9?$AAs?$AAi@ 10042bbc     mfcs140:nolib.obj
 0002:00009bc8       ??_C@_1O@DFKOMPG@?$AAs?$AAm?$AAa?$AA?9?$AAn?$AAo@ 10042bc8     mfcs140:nolib.obj
 0002:00009bd8       ??_C@_1O@NDKPBNNH@?$AAs?$AAm?$AAa?$AA?9?$AAs?$AAe@ 10042bd8     mfcs140:nolib.obj
 0002:00009be8       ??_C@_1O@PLLKBHAB@?$AAs?$AAm?$AAj?$AA?9?$AAn?$AAo@ 10042be8     mfcs140:nolib.obj
 0002:00009bf8       ??_C@_1O@CLEPOGCA@?$AAs?$AAm?$AAj?$AA?9?$AAs?$AAe@ 10042bf8     mfcs140:nolib.obj
 0002:00009c08       ??_C@_1O@DLGJGKMK@?$AAs?$AAm?$AAn?$AA?9?$AAf?$AAi@ 10042c08     mfcs140:nolib.obj
 0002:00009c18       ??_C@_1O@OJDJGAJC@?$AAs?$AAm?$AAs?$AA?9?$AAf?$AAi@ 10042c18     mfcs140:nolib.obj
 0002:00009c28       ??_C@_1M@BOFOGHPB@?$AAs?$AAq?$AA?9?$AAa?$AAl@ 10042c28     mfcs140:nolib.obj
 0002:00009c34       ??_C@_1BG@LJBBIPGB@?$AAs?$AAr?$AA?9?$AAb?$AAa?$AA?9?$AAc?$AAy?$AAr?$AAl@ 10042c34     mfcs140:nolib.obj
 0002:00009c4c       ??_C@_1BG@JLBENFOE@?$AAs?$AAr?$AA?9?$AAb?$AAa?$AA?9?$AAl?$AAa?$AAt?$AAn@ 10042c4c     mfcs140:nolib.obj
 0002:00009c64       ??_C@_1BG@KODPNHE@?$AAs?$AAr?$AA?9?$AAs?$AAp?$AA?9?$AAc?$AAy?$AAr?$AAl@ 10042c64     mfcs140:nolib.obj
 0002:00009c7c       ??_C@_1BG@CIOGKHPB@?$AAs?$AAr?$AA?9?$AAs?$AAp?$AA?9?$AAl?$AAa?$AAt?$AAn@ 10042c7c     mfcs140:nolib.obj
 0002:00009c94       ??_C@_1M@NGFJLMAC@?$AAs?$AAv?$AA?9?$AAf?$AAi@ 10042c94     mfcs140:nolib.obj
 0002:00009ca0       ??_C@_1M@MPJEJAJC@?$AAs?$AAv?$AA?9?$AAs?$AAe@ 10042ca0     mfcs140:nolib.obj
 0002:00009cac       ??_C@_1M@MPNDHLFK@?$AAs?$AAw?$AA?9?$AAk?$AAe@ 10042cac     mfcs140:nolib.obj
 0002:00009cb8       ??_C@_1O@KOHBJJI@?$AAs?$AAy?$AAr?$AA?9?$AAs?$AAy@ 10042cb8     mfcs140:nolib.obj
 0002:00009cc8       ??_C@_1M@LDCEFHA@?$AAt?$AAa?$AA?9?$AAi?$AAn@ 10042cc8     mfcs140:nolib.obj
 0002:00009cd4       ??_C@_1M@CNJOFAK@?$AAt?$AAe?$AA?9?$AAi?$AAn@ 10042cd4     mfcs140:nolib.obj
 0002:00009ce0       ??_C@_1M@GNAECACD@?$AAt?$AAh?$AA?9?$AAt?$AAh@ 10042ce0     mfcs140:nolib.obj
 0002:00009cec       ??_C@_1M@CHBIHOJO@?$AAt?$AAn?$AA?9?$AAz?$AAa@ 10042cec     mfcs140:nolib.obj
 0002:00009cf8       ??_C@_1M@GCCMIGPJ@?$AAt?$AAr?$AA?9?$AAt?$AAr@ 10042cf8     mfcs140:nolib.obj
 0002:00009d04       ??_C@_1M@CELMCNBK@?$AAt?$AAt?$AA?9?$AAr?$AAu@ 10042d04     mfcs140:nolib.obj
 0002:00009d10       ??_C@_1M@KLMCELGA@?$AAu?$AAk?$AA?9?$AAu?$AAa@ 10042d10     mfcs140:nolib.obj
 0002:00009d1c       ??_C@_1M@EPAJJAJF@?$AAu?$AAr?$AA?9?$AAp?$AAk@ 10042d1c     mfcs140:nolib.obj
 0002:00009d28       ??_C@_1BG@GEGPMCDJ@?$AAu?$AAz?$AA?9?$AAu?$AAz?$AA?9?$AAc?$AAy?$AAr?$AAl@ 10042d28     mfcs140:nolib.obj
 0002:00009d40       ??_C@_1BG@EGGKJILM@?$AAu?$AAz?$AA?9?$AAu?$AAz?$AA?9?$AAl?$AAa?$AAt?$AAn@ 10042d40     mfcs140:nolib.obj
 0002:00009d58       ??_C@_1M@GFOCLFF@?$AAv?$AAi?$AA?9?$AAv?$AAn@ 10042d58     mfcs140:nolib.obj
 0002:00009d64       ??_C@_1M@CPAMEDFI@?$AAx?$AAh?$AA?9?$AAz?$AAa@ 10042d64     mfcs140:nolib.obj
 0002:00009d70       ??_C@_1O@EBKIFIGN@?$AAz?$AAh?$AA?9?$AAc?$AAh?$AAs@ 10042d70     mfcs140:nolib.obj
 0002:00009d80       ??_C@_1O@NMHPGANE@?$AAz?$AAh?$AA?9?$AAc?$AAh?$AAt@ 10042d80     mfcs140:nolib.obj
 0002:00009d90       ??_C@_1M@LPINJOMC@?$AAz?$AAh?$AA?9?$AAc?$AAn@ 10042d90     mfcs140:nolib.obj
 0002:00009d9c       ??_C@_1M@OCJEJODD@?$AAz?$AAh?$AA?9?$AAh?$AAk@ 10042d9c     mfcs140:nolib.obj
 0002:00009da8       ??_C@_1M@DNDLJINH@?$AAz?$AAh?$AA?9?$AAm?$AAo@ 10042da8     mfcs140:nolib.obj
 0002:00009db4       ??_C@_1M@MBFDNDND@?$AAz?$AAh?$AA?9?$AAs?$AAg@ 10042db4     mfcs140:nolib.obj
 0002:00009dc0       ??_C@_1M@IMEPLEPE@?$AAz?$AAh?$AA?9?$AAt?$AAw@ 10042dc0     mfcs140:nolib.obj
 0002:00009dcc       ??_C@_1M@BBGHNHJP@?$AAz?$AAu?$AA?9?$AAz?$AAa@ 10042dcc     mfcs140:nolib.obj
 0002:00009dd8       ??_C@_0O@JKAFBCMB@CreateActCtxW@ 10042dd8     mfcs140:nolib.obj
 0002:00009de8       ??_C@_0P@CECBPMJL@ActivateActCtx@ 10042de8     mfcs140:nolib.obj
 0002:00009df8       ??_C@_0BB@NPIOCCPF@DeactivateActCtx@ 10042df8     mfcs140:nolib.obj
 0002:00009e0c       ??_C@_0BJ@MGNMALIC@FindActCtxSectionStringW@ 10042e0c     mfcs140:nolib.obj
 0002:00009e28       ??_C@_0N@IMINIHMJ@QueryActCtxW@ 10042e28     mfcs140:nolib.obj
 0002:00009e38       ??_C@_0BD@GIGEJCNH@GetModuleHandleExW@ 10042e38     mfcs140:nolib.obj
 0002:00009e4c       ??_C@_1BK@BFMCNHEO@?$AAC?$AAo?$AAm?$AAc?$AAt?$AAl?$AA3?$AA2?$AA?4?$AAd?$AAl?$AAl@ 10042e4c     mfcs140:nolib.obj
 0002:00009e68       ?debugString@?4??IsolationAwarePrivatenPgViNgRzlnPgpgk@@9@4@4QBDB 10042e68     mfcs140:nolib.obj
 0002:00009ea4       ?c@?1??WinbaseIsolationAwarePrivatetRgCebPnQQeRff_xReaRYQP_QYY@@9@4@4UIsolationAwarePrivate_pBAFGnAG_zBqHyr_vAsB@@B 10042ea4     mfcs140:nolib.obj
 0002:00009eb4       ??_C@_1BK@EJBALEBG@?$AAK?$AAe?$AAr?$AAn?$AAe?$AAl?$AA3?$AA2?$AA?4?$AAd?$AAl?$AAl@ 10042eb4     mfcs140:nolib.obj
 0002:00009ed0       ??_C@_0N@HAOHNMDE@Kernel32?4dll@ 10042ed0     mfcs140:nolib.obj
 0002:00009ee4       ??_7type_info@@6B@         10042ee4     msvcrt:std_type_info_static.obj
 0002:00009ee8       ??_C@_1EC@JIJBPKFM@?$AAa?$AAp?$AAi?$AA?9?$AAm?$AAs?$AA?9?$AAw?$AAi?$AAn?$AA?9?$AAc?$AAo?$AAr?$AAe@ 10042ee8     msvcrt:thread_safe_statics.obj
 0002:00009f2c       ??_C@_1BK@MGMFAEKH@?$AAk?$AAe?$AAr?$AAn?$AAe?$AAl?$AA3?$AA2?$AA?4?$AAd?$AAl?$AAl@ 10042f2c     msvcrt:thread_safe_statics.obj
 0002:00009f48       ??_C@_0BJ@JEBJOJFJ@SleepConditionVariableCS@ 10042f48     msvcrt:thread_safe_statics.obj
 0002:00009f64       ??_C@_0BJ@PGPPEPCC@WakeAllConditionVariable@ 10042f64     msvcrt:thread_safe_statics.obj
 0002:00009f80       __pDefaultRawDllMain       10042f80     msvcrt:dll_dllmain.obj
 0002:00009f8c       _GUID_ATLVer30             10042f8c     atls:atlbase.obj
 0002:00009f9c       _GUID_ATLVer70             10042f9c     atls:atlbase.obj
 0002:00009fac       _GUID_ATLVer100            10042fac     atls:atlbase.obj
 0002:00009fbc       _GUID_ATLVer110            10042fbc     atls:atlbase.obj
 0002:00009fd0       ??_C@_1IC@ONKHOIDK@?$AAE?$AAR?$AAR?$AAO?$AAR?$AA?5?$AA?3?$AA?5?$AAU?$AAn?$AAa?$AAb?$AAl?$AAe?$AA?5@ 10042fd0     atls:atlbase.obj
 0002:0000a054       ??_C@_1CA@ONGMEOAB@?$AAa?$AAt?$AAl?$AAT?$AAr?$AAa?$AAc?$AAe?$AAG?$AAe?$AAn?$AAe?$AAr?$AAa?$AAl@ 10043054     atls:stdafx.obj
 0002:0000a074       ??_C@_1BI@MAFGHOEE@?$AAa?$AAt?$AAl?$AAT?$AAr?$AAa?$AAc?$AAe?$AAC?$AAO?$AAM@ 10043074     atls:stdafx.obj
 0002:0000a08c       ??_C@_1BG@FPLJJEMF@?$AAa?$AAt?$AAl?$AAT?$AAr?$AAa?$AAc?$AAe?$AAQ?$AAI@ 1004308c     atls:stdafx.obj
 0002:0000a0a4       ??_C@_1CE@NIAEAIDK@?$AAa?$AAt?$AAl?$AAT?$AAr?$AAa?$AAc?$AAe?$AAR?$AAe?$AAg?$AAi?$AAs?$AAt?$AAr@ 100430a4     atls:stdafx.obj
 0002:0000a0c8       ??_C@_1CC@BNHGJFNK@?$AAa?$AAt?$AAl?$AAT?$AAr?$AAa?$AAc?$AAe?$AAR?$AAe?$AAf?$AAc?$AAo?$AAu?$AAn@ 100430c8     atls:stdafx.obj
 0002:0000a0ec       ??_C@_1CE@NAJDPMNB@?$AAa?$AAt?$AAl?$AAT?$AAr?$AAa?$AAc?$AAe?$AAW?$AAi?$AAn?$AAd?$AAo?$AAw?$AAi@ 100430ec     atls:stdafx.obj
 0002:0000a110       ??_C@_1CC@IMNJGBED@?$AAa?$AAt?$AAl?$AAT?$AAr?$AAa?$AAc?$AAe?$AAC?$AAo?$AAn?$AAt?$AAr?$AAo?$AAl@ 10043110     atls:stdafx.obj
 0002:0000a134       ??_C@_1CA@OMOMONMN@?$AAa?$AAt?$AAl?$AAT?$AAr?$AAa?$AAc?$AAe?$AAH?$AAo?$AAs?$AAt?$AAi?$AAn?$AAg@ 10043134     atls:stdafx.obj
 0002:0000a154       ??_C@_1CC@JNJJDOOH@?$AAa?$AAt?$AAl?$AAT?$AAr?$AAa?$AAc?$AAe?$AAD?$AAB?$AAC?$AAl?$AAi?$AAe?$AAn@ 10043154     atls:stdafx.obj
 0002:0000a178       ??_C@_1CG@MNMMIOOI@?$AAa?$AAt?$AAl?$AAT?$AAr?$AAa?$AAc?$AAe?$AAD?$AAB?$AAP?$AAr?$AAo?$AAv?$AAi@ 10043178     atls:stdafx.obj
 0002:0000a1a0       ??_C@_1BO@EFPHNHHN@?$AAa?$AAt?$AAl?$AAT?$AAr?$AAa?$AAc?$AAe?$AAS?$AAn?$AAa?$AAp?$AAi?$AAn@ 100431a0     atls:stdafx.obj
 0002:0000a1c0       ??_C@_1CA@DMHPIODO@?$AAa?$AAt?$AAl?$AAT?$AAr?$AAa?$AAc?$AAe?$AAN?$AAo?$AAt?$AAI?$AAm?$AAp?$AAl@ 100431c0     atls:stdafx.obj
 0002:0000a1e0       ??_C@_1CG@KFEEMCDH@?$AAa?$AAt?$AAl?$AAT?$AAr?$AAa?$AAc?$AAe?$AAA?$AAl?$AAl?$AAo?$AAc?$AAa?$AAt@ 100431e0     atls:stdafx.obj
 0002:0000a208       ??_C@_1CE@IMMADNAP@?$AAa?$AAt?$AAl?$AAT?$AAr?$AAa?$AAc?$AAe?$AAE?$AAx?$AAc?$AAe?$AAp?$AAt?$AAi@ 10043208     atls:stdafx.obj
 0002:0000a22c       ??_C@_1BK@NCJHOFCL@?$AAa?$AAt?$AAl?$AAT?$AAr?$AAa?$AAc?$AAe?$AAT?$AAi?$AAm?$AAe@ 1004322c     atls:stdafx.obj
 0002:0000a248       ??_C@_1BM@GIKLHLFD@?$AAa?$AAt?$AAl?$AAT?$AAr?$AAa?$AAc?$AAe?$AAC?$AAa?$AAc?$AAh?$AAe@ 10043248     atls:stdafx.obj
 0002:0000a264       ??_C@_1CA@PBPHANCD@?$AAa?$AAt?$AAl?$AAT?$AAr?$AAa?$AAc?$AAe?$AAS?$AAt?$AAe?$AAn?$AAc?$AAi?$AAl@ 10043264     atls:stdafx.obj
 0002:0000a284       ??_C@_1BO@GMLILNDJ@?$AAa?$AAt?$AAl?$AAT?$AAr?$AAa?$AAc?$AAe?$AAS?$AAt?$AAr?$AAi?$AAn?$AAg@ 10043284     atls:stdafx.obj
 0002:0000a2a4       ??_C@_1BI@OKDLCIEM@?$AAa?$AAt?$AAl?$AAT?$AAr?$AAa?$AAc?$AAe?$AAM?$AAa?$AAp@ 100432a4     atls:stdafx.obj
 0002:0000a2bc       ??_C@_1BK@DMHCKHHD@?$AAa?$AAt?$AAl?$AAT?$AAr?$AAa?$AAc?$AAe?$AAU?$AAt?$AAi?$AAl@ 100432bc     atls:stdafx.obj
 0002:0000a2d8       ??_C@_1CC@DMMBNCFG@?$AAa?$AAt?$AAl?$AAT?$AAr?$AAa?$AAc?$AAe?$AAS?$AAe?$AAc?$AAu?$AAr?$AAi?$AAt@ 100432d8     atls:stdafx.obj
 0002:0000a2fc       ??_C@_1BK@OPAPOCAL@?$AAa?$AAt?$AAl?$AAT?$AAr?$AAa?$AAc?$AAe?$AAS?$AAy?$AAn?$AAc@ 100432fc     atls:stdafx.obj
 0002:0000a318       ??_C@_1BM@FHAEDBFK@?$AAa?$AAt?$AAl?$AAT?$AAr?$AAa?$AAc?$AAe?$AAI?$AAS?$AAA?$AAP?$AAI@ 10043318     atls:stdafx.obj
 0002:0000a334       ?chDirSep@ATL@@3_WB        10043334     atls:stdafx.obj
 0002:0000a338       ?chRightBracket@ATL@@3_WB  10043338     atls:stdafx.obj
 0002:0000a33c       ?chLeftBracket@ATL@@3_WB   1004333c     atls:stdafx.obj
 0002:0000a340       ?chQuote@ATL@@3_WB         10043340     atls:stdafx.obj
 0002:0000a344       ?chEquals@ATL@@3_WB        10043344     atls:stdafx.obj
 0002:0000a348       ?szStringVal@ATL@@3QB_WB   10043348     atls:stdafx.obj
 0002:0000a34c       ??_C@_13HADIAKP@?$AAS@     1004334c     atls:stdafx.obj
 0002:0000a350       ?multiszStringVal@ATL@@3QB_WB 10043350     atls:stdafx.obj
 0002:0000a354       ??_C@_13LHMFKAAD@?$AAM@    10043354     atls:stdafx.obj
 0002:0000a358       ?szDwordVal@ATL@@3QB_WB    10043358     atls:stdafx.obj
 0002:0000a35c       ??_C@_13MKMNOPIJ@?$AAD@    1004335c     atls:stdafx.obj
 0002:0000a360       ?szBinaryVal@ATL@@3QB_WB   10043360     atls:stdafx.obj
 0002:0000a364       ??_C@_13OPKGLAFF@?$AAB@    10043364     atls:stdafx.obj
 0002:0000a368       ?szValToken@ATL@@3QB_WB    10043368     atls:stdafx.obj
 0002:0000a36c       ??_C@_17LLMMEOJD@?$AAV?$AAa?$AAl@ 1004336c     atls:stdafx.obj
 0002:0000a374       ?szForceRemove@ATL@@3QB_WB 10043374     atls:stdafx.obj
 0002:0000a378       ??_C@_1BI@JFAIJMHL@?$AAF?$AAo?$AAr?$AAc?$AAe?$AAR?$AAe?$AAm?$AAo?$AAv?$AAe@ 10043378     atls:stdafx.obj
 0002:0000a390       ?szNoRemove@ATL@@3QB_WB    10043390     atls:stdafx.obj
 0002:0000a394       ??_C@_1BC@GCKHIPE@?$AAN?$AAo?$AAR?$AAe?$AAm?$AAo?$AAv?$AAe@ 10043394     atls:stdafx.obj
 0002:0000a3a8       ?szDelete@ATL@@3QB_WB      100433a8     atls:stdafx.obj
 0002:0000a3ac       ??_C@_1O@JDLOHAN@?$AAD?$AAe?$AAl?$AAe?$AAt?$AAe@ 100433ac     atls:stdafx.obj
 0002:0000a410       __load_config_used         10043410     msvcrt:loadcfg.obj
 0002:0000a500       ___CastGuardVftablesStart  10043500     msvcrt:guard_support.obj
 0002:0000a504       ___CastGuardVftablesEnd    10043504     msvcrt:guard_support.obj
 0002:0000a508       __tls_used                 10043508     msvcrt:tlssup.obj
 0002:0000a520       ??_R4CStrategyLoader@@6B@  10043520     StrategyLoader.obj
 0002:0000a534       ??_R3CStrategyLoader@@8    10043534     StrategyLoader.obj
 0002:0000a544       ??_R2CStrategyLoader@@8    10043544     StrategyLoader.obj
 0002:0000a54c       ??_R1A@?0A@EA@CStrategyLoader@@8 1004354c     StrategyLoader.obj
 0002:0000a568       ??_R3CObject@@8            10043568     mschart1.obj
 0002:0000a578       ??_R2CObject@@8            10043578     mschart1.obj
 0002:0000a580       ??_R1A@?0A@EA@CObject@@8   10043580     mschart1.obj
 0002:0000a59c       ??_R1A@?0A@EA@CWnd@@8      1004359c     mschart1.obj
 0002:0000a5b8       ??_R3CWnd@@8               100435b8     mschart1.obj
 0002:0000a5c8       ??_R2CWnd@@8               100435c8     mschart1.obj
 0002:0000a5d8       ??_R1A@?0A@EA@CCmdTarget@@8 100435d8     mschart1.obj
 0002:0000a5f4       ??_R3CCmdTarget@@8         100435f4     mschart1.obj
 0002:0000a604       ??_R2CCmdTarget@@8         10043604     mschart1.obj
 0002:0000a610       ??_R4CMschart1@@6B@        10043610     mschart1.obj
 0002:0000a624       ??_R3CMschart1@@8          10043624     mschart1.obj
 0002:0000a634       ??_R2CMschart1@@8          10043634     mschart1.obj
 0002:0000a648       ??_R1A@?0A@EA@CMschart1@@8 10043648     mschart1.obj
 0002:0000a664       ??_R4CTChart@@6B@          10043664     tchart.obj
 0002:0000a678       ??_R3CTChart@@8            10043678     tchart.obj
 0002:0000a688       ??_R2CTChart@@8            10043688     tchart.obj
 0002:0000a69c       ??_R1A@?0A@EA@CTChart@@8   1004369c     tchart.obj
 0002:0000a6b8       ??_R4CDateTimeCtrl@@6B@    100436b8     XDateTime.obj
 0002:0000a6cc       ??_R3CDateTimeCtrl@@8      100436cc     XDateTime.obj
 0002:0000a6dc       ??_R2CDateTimeCtrl@@8      100436dc     XDateTime.obj
 0002:0000a6f0       ??_R1A@?0A@EA@CDateTimeCtrl@@8 100436f0     XDateTime.obj
 0002:0000a70c       ??_R4CXDateTime@@6B@       1004370c     XDateTime.obj
 0002:0000a720       ??_R3CXDateTime@@8         10043720     XDateTime.obj
 0002:0000a730       ??_R2CXDateTime@@8         10043730     XDateTime.obj
 0002:0000a748       ??_R1A@?0A@EA@CXDateTime@@8 10043748     XDateTime.obj
 0002:0000a764       ??_R4CEdit@@6B@            10043764     XEdit.obj
 0002:0000a778       ??_R3CEdit@@8              10043778     XEdit.obj
 0002:0000a788       ??_R2CEdit@@8              10043788     XEdit.obj
 0002:0000a79c       ??_R1A@?0A@EA@CEdit@@8     1004379c     XEdit.obj
 0002:0000a7b8       ??_R4CXEdit@@6B@           100437b8     XEdit.obj
 0002:0000a7cc       ??_R3CXEdit@@8             100437cc     XEdit.obj
 0002:0000a7dc       ??_R2CXEdit@@8             100437dc     XEdit.obj
 0002:0000a7f4       ??_R1A@?0A@EA@CXEdit@@8    100437f4     XEdit.obj
 0002:0000a810       ??_R4CGdiObject@@6B@       10043810     XHeaderCtrl.obj
 0002:0000a824       ??_R3CGdiObject@@8         10043824     XHeaderCtrl.obj
 0002:0000a834       ??_R2CGdiObject@@8         10043834     XHeaderCtrl.obj
 0002:0000a840       ??_R1A@?0A@EA@CGdiObject@@8 10043840     XHeaderCtrl.obj
 0002:0000a85c       ??_R4CPen@@6B@             1004385c     XHeaderCtrl.obj
 0002:0000a870       ??_R3CPen@@8               10043870     XHeaderCtrl.obj
 0002:0000a880       ??_R2CPen@@8               10043880     XHeaderCtrl.obj
 0002:0000a890       ??_R1A@?0A@EA@CPen@@8      10043890     XHeaderCtrl.obj
 0002:0000a8ac       ??_R4CBitmap@@6B@          100438ac     XHeaderCtrl.obj
 0002:0000a8c0       ??_R3CBitmap@@8            100438c0     XHeaderCtrl.obj
 0002:0000a8d0       ??_R2CBitmap@@8            100438d0     XHeaderCtrl.obj
 0002:0000a8e0       ??_R1A@?0A@EA@CBitmap@@8   100438e0     XHeaderCtrl.obj
 0002:0000a8fc       ??_R4CHeaderCtrl@@6B@      100438fc     XHeaderCtrl.obj
 0002:0000a910       ??_R3CHeaderCtrl@@8        10043910     XHeaderCtrl.obj
 0002:0000a920       ??_R2CHeaderCtrl@@8        10043920     XHeaderCtrl.obj
 0002:0000a934       ??_R1A@?0A@EA@CHeaderCtrl@@8 10043934     XHeaderCtrl.obj
 0002:0000a950       ??_R4CMemDC@@6B@           10043950     XHeaderCtrl.obj
 0002:0000a964       ??_R3CMemDC@@8             10043964     XHeaderCtrl.obj
 0002:0000a974       ??_R2CMemDC@@8             10043974     XHeaderCtrl.obj
 0002:0000a984       ??_R1A@?0A@EA@CMemDC@@8    10043984     XHeaderCtrl.obj
 0002:0000a9a0       ??_R1A@?0A@EA@CDC@@8       100439a0     XHeaderCtrl.obj
 0002:0000a9bc       ??_R3CDC@@8                100439bc     XHeaderCtrl.obj
 0002:0000a9cc       ??_R2CDC@@8                100439cc     XHeaderCtrl.obj
 0002:0000a9d8       ??_R4CXHeaderCtrl@@6B@     100439d8     XHeaderCtrl.obj
 0002:0000a9ec       ??_R3CXHeaderCtrl@@8       100439ec     XHeaderCtrl.obj
 0002:0000a9fc       ??_R2CXHeaderCtrl@@8       100439fc     XHeaderCtrl.obj
 0002:0000aa14       ??_R1A@?0A@EA@CXHeaderCtrl@@8 10043a14     XHeaderCtrl.obj
 0002:0000aa30       ??_R4CFont@@6B@            10043a30     XListCtrl.obj
 0002:0000aa44       ??_R3CFont@@8              10043a44     XListCtrl.obj
 0002:0000aa54       ??_R2CFont@@8              10043a54     XListCtrl.obj
 0002:0000aa64       ??_R1A@?0A@EA@CFont@@8     10043a64     XListCtrl.obj
 0002:0000aa80       ??_R4CRgn@@6B@             10043a80     XListCtrl.obj
 0002:0000aa94       ??_R3CRgn@@8               10043a94     XListCtrl.obj
 0002:0000aaa4       ??_R2CRgn@@8               10043aa4     XListCtrl.obj
 0002:0000aab4       ??_R1A@?0A@EA@CRgn@@8      10043ab4     XListCtrl.obj
 0002:0000aad0       ??_R4CListCtrl@@6B@        10043ad0     XListCtrl.obj
 0002:0000aae4       ??_R3CListCtrl@@8          10043ae4     XListCtrl.obj
 0002:0000aaf4       ??_R2CListCtrl@@8          10043af4     XListCtrl.obj
 0002:0000ab08       ??_R1A@?0A@EA@CListCtrl@@8 10043b08     XListCtrl.obj
 0002:0000ab24       ??_R4CXListCtrl@@6B@       10043b24     XListCtrl.obj
 0002:0000ab38       ??_R3CXListCtrl@@8         10043b38     XListCtrl.obj
 0002:0000ab48       ??_R2CXListCtrl@@8         10043b48     XListCtrl.obj
 0002:0000ab60       ??_R1A@?0A@EA@CXListCtrl@@8 10043b60     XListCtrl.obj
 0002:0000ab7c       ??_R4CTabCtrl@@6B@         10043b7c     XTabCtrl.obj
 0002:0000ab90       ??_R3CTabCtrl@@8           10043b90     XTabCtrl.obj
 0002:0000aba0       ??_R2CTabCtrl@@8           10043ba0     XTabCtrl.obj
 0002:0000abb4       ??_R1A@?0A@EA@CTabCtrl@@8  10043bb4     XTabCtrl.obj
 0002:0000abd0       ??_R4CXTabCtrl@@6B@        10043bd0     XTabCtrl.obj
 0002:0000abe4       ??_R3CXTabCtrl@@8          10043be4     XTabCtrl.obj
 0002:0000abf4       ??_R2CXTabCtrl@@8          10043bf4     XTabCtrl.obj
 0002:0000ac0c       ??_R1A@?0A@EA@CXTabCtrl@@8 10043c0c     XTabCtrl.obj
 0002:0000ac28       ??_R4?$CArray@HH@@6B@      10043c28     XTabCtrl.obj
 0002:0000ac3c       ??_R3?$CArray@HH@@8        10043c3c     XTabCtrl.obj
 0002:0000ac4c       ??_R2?$CArray@HH@@8        10043c4c     XTabCtrl.obj
 0002:0000ac58       ??_R1A@?0A@EA@?$CArray@HH@@8 10043c58     XTabCtrl.obj
 0002:0000ac74       ??_R4CBrush@@6B@           10043c74     DlgAnalysis.obj
 0002:0000ac88       ??_R3CBrush@@8             10043c88     DlgAnalysis.obj
 0002:0000ac98       ??_R2CBrush@@8             10043c98     DlgAnalysis.obj
 0002:0000aca8       ??_R1A@?0A@EA@CBrush@@8    10043ca8     DlgAnalysis.obj
 0002:0000acc4       ??_R1A@?0A@EA@CDialog@@8   10043cc4     DlgAnalysis.obj
 0002:0000ace0       ??_R3CDialog@@8            10043ce0     DlgAnalysis.obj
 0002:0000acf0       ??_R2CDialog@@8            10043cf0     DlgAnalysis.obj
 0002:0000ad04       ??_R4CEscDialog@@6B@       10043d04     DlgAnalysis.obj
 0002:0000ad18       ??_R3CEscDialog@@8         10043d18     DlgAnalysis.obj
 0002:0000ad28       ??_R2CEscDialog@@8         10043d28     DlgAnalysis.obj
 0002:0000ad40       ??_R1A@?0A@EA@CEscDialog@@8 10043d40     DlgAnalysis.obj
 0002:0000ad5c       ??_R4CDlgAnalysis@@6B@     10043d5c     DlgAnalysis.obj
 0002:0000ad70       ??_R3CDlgAnalysis@@8       10043d70     DlgAnalysis.obj
 0002:0000ad80       ??_R2CDlgAnalysis@@8       10043d80     DlgAnalysis.obj
 0002:0000ad9c       ??_R1A@?0A@EA@CDlgAnalysis@@8 10043d9c     DlgAnalysis.obj
 0002:0000adb8       ??_R4?$CArray@UST_DATAINDEX@@U1@@@6B@ 10043db8     DlgAnalysis.obj
 0002:0000adcc       ??_R3?$CArray@UST_DATAINDEX@@U1@@@8 10043dcc     DlgAnalysis.obj
 0002:0000addc       ??_R2?$CArray@UST_DATAINDEX@@U1@@@8 10043ddc     DlgAnalysis.obj
 0002:0000ade8       ??_R1A@?0A@EA@?$CArray@UST_DATAINDEX@@U1@@@8 10043de8     DlgAnalysis.obj
 0002:0000ae04       ??_R4CDlgInterface@@6B@    10043e04     DlgInterface.obj
 0002:0000ae18       ??_R3CDlgInterface@@8      10043e18     DlgInterface.obj
 0002:0000ae28       ??_R2CDlgInterface@@8      10043e28     DlgInterface.obj
 0002:0000ae44       ??_R1A@?0A@EA@CDlgInterface@@8 10043e44     DlgInterface.obj
 0002:0000ae60       ??_R4CDlgWait@@6B@         10043e60     DlgWait.obj
 0002:0000ae74       ??_R3CDlgWait@@8           10043e74     DlgWait.obj
 0002:0000ae84       ??_R2CDlgWait@@8           10043e84     DlgWait.obj
 0002:0000ae9c       ??_R1A@?0A@EA@CDlgWait@@8  10043e9c     DlgWait.obj
 0002:0000aeb8       ??_R4CGridCell@@6B@        10043eb8     GridCell.obj
 0002:0000aecc       ??_R3CGridCell@@8          10043ecc     GridCell.obj
 0002:0000aedc       ??_R2CGridCell@@8          10043edc     GridCell.obj
 0002:0000aeec       ??_R1A@?0A@EA@CGridCell@@8 10043eec     GridCell.obj
 0002:0000af08       ??_R1A@?0A@EA@CGridCellBase@@8 10043f08     GridCell.obj
 0002:0000af24       ??_R3CGridCellBase@@8      10043f24     GridCell.obj
 0002:0000af34       ??_R2CGridCellBase@@8      10043f34     GridCell.obj
 0002:0000af40       ??_R4CGridDefaultCell@@6B@ 10043f40     GridCell.obj
 0002:0000af54       ??_R3CGridDefaultCell@@8   10043f54     GridCell.obj
 0002:0000af64       ??_R2CGridDefaultCell@@8   10043f64     GridCell.obj
 0002:0000af78       ??_R1A@?0A@EA@CGridDefaultCell@@8 10043f78     GridCell.obj
 0002:0000af94       ??_R4CGridCellBase@@6B@    10043f94     GridCellBase.obj
 0002:0000afa8       ??_R3CException@@8         10043fa8     GridCtrl.obj
 0002:0000afb8       ??_R2CException@@8         10043fb8     GridCtrl.obj
 0002:0000afc4       ??_R1A@?0A@EA@CException@@8 10043fc4     GridCtrl.obj
 0002:0000afe0       ??_R4CFileException@@6B@   10043fe0     GridCtrl.obj
 0002:0000aff4       ??_R3CFileException@@8     10043ff4     GridCtrl.obj
 0002:0000b004       ??_R2CFileException@@8     10044004     GridCtrl.obj
 0002:0000b014       ??_R1A@?0A@EA@CFileException@@8 10044014     GridCtrl.obj
 0002:0000b030       ??_R4CCommonDialog@@6B@    10044030     GridCtrl.obj
 0002:0000b044       ??_R3CCommonDialog@@8      10044044     GridCtrl.obj
 0002:0000b054       ??_R2CCommonDialog@@8      10044054     GridCtrl.obj
 0002:0000b06c       ??_R1A@?0A@EA@CCommonDialog@@8 1004406c     GridCtrl.obj
 0002:0000b088       ??_R4?$CMap@KKVCCellID@@AAV1@@@6B@ 10044088     GridCtrl.obj
 0002:0000b09c       ??_R3?$CMap@KKVCCellID@@AAV1@@@8 1004409c     GridCtrl.obj
 0002:0000b0ac       ??_R2?$CMap@KKVCCellID@@AAV1@@@8 100440ac     GridCtrl.obj
 0002:0000b0b8       ??_R1A@?0A@EA@?$CMap@KKVCCellID@@AAV1@@@8 100440b8     GridCtrl.obj
 0002:0000b0d4       ??_R4CGridCtrl@@6B@        100440d4     GridCtrl.obj
 0002:0000b0e8       ??_R3CGridCtrl@@8          100440e8     GridCtrl.obj
 0002:0000b0f8       ??_R2CGridCtrl@@8          100440f8     GridCtrl.obj
 0002:0000b10c       ??_R1A@?0A@EA@CGridCtrl@@8 1004410c     GridCtrl.obj
 0002:0000b128       ??_R4?$CTypedPtrArray@VCObArray@@PAVCGridCellBase@@@@6B@ 10044128     GridCtrl.obj
 0002:0000b13c       ??_R3?$CTypedPtrArray@VCObArray@@PAVCGridCellBase@@@@8 1004413c     GridCtrl.obj
 0002:0000b14c       ??_R2?$CTypedPtrArray@VCObArray@@PAVCGridCellBase@@@@8 1004414c     GridCtrl.obj
 0002:0000b15c       ??_R1A@?0A@EA@?$CTypedPtrArray@VCObArray@@PAVCGridCellBase@@@@8 1004415c     GridCtrl.obj
 0002:0000b178       ??_R1A@?0A@EA@CObArray@@8  10044178     GridCtrl.obj
 0002:0000b194       ??_R3CObArray@@8           10044194     GridCtrl.obj
 0002:0000b1a4       ??_R2CObArray@@8           100441a4     GridCtrl.obj
 0002:0000b1b0       ??_R4?$CTypedPtrArray@VCObArray@@PAV?$CTypedPtrArray@VCObArray@@PAVCGridCellBase@@@@@@6B@ 100441b0     GridCtrl.obj
 0002:0000b1c4       ??_R3?$CTypedPtrArray@VCObArray@@PAV?$CTypedPtrArray@VCObArray@@PAVCGridCellBase@@@@@@8 100441c4     GridCtrl.obj
 0002:0000b1d4       ??_R2?$CTypedPtrArray@VCObArray@@PAV?$CTypedPtrArray@VCObArray@@PAVCGridCellBase@@@@@@8 100441d4     GridCtrl.obj
 0002:0000b1e4       ??_R1A@?0A@EA@?$CTypedPtrArray@VCObArray@@PAV?$CTypedPtrArray@VCObArray@@PAVCGridCellBase@@@@@@8 100441e4     GridCtrl.obj
 0002:0000b200       ??_R4CGridDropTarget@@6B@  10044200     GridDropTarget.obj
 0002:0000b214       ??_R3CGridDropTarget@@8    10044214     GridDropTarget.obj
 0002:0000b224       ??_R2CGridDropTarget@@8    10044224     GridDropTarget.obj
 0002:0000b238       ??_R1A@?0A@EA@CGridDropTarget@@8 10044238     GridDropTarget.obj
 0002:0000b254       ??_R1A@?0A@EA@COleDropTarget@@8 10044254     GridDropTarget.obj
 0002:0000b270       ??_R3COleDropTarget@@8     10044270     GridDropTarget.obj
 0002:0000b280       ??_R2COleDropTarget@@8     10044280     GridDropTarget.obj
 0002:0000b290       ??_R4CInPlaceEdit@@6B@     10044290     InPlaceEdit.obj
 0002:0000b2a4       ??_R3CInPlaceEdit@@8       100442a4     InPlaceEdit.obj
 0002:0000b2b4       ??_R2CInPlaceEdit@@8       100442b4     InPlaceEdit.obj
 0002:0000b2cc       ??_R1A@?0A@EA@CInPlaceEdit@@8 100442cc     InPlaceEdit.obj
 0002:0000b2e8       ??_R4CTitleTip@@6B@        100442e8     TitleTip.obj
 0002:0000b2fc       ??_R3CTitleTip@@8          100442fc     TitleTip.obj
 0002:0000b30c       ??_R2CTitleTip@@8          1004430c     TitleTip.obj
 0002:0000b320       ??_R1A@?0A@EA@CTitleTip@@8 10044320     TitleTip.obj
 0002:0000b33c       ??_R4CButton@@6B@          1004433c     InfoRight.obj
 0002:0000b350       ??_R3CButton@@8            10044350     InfoRight.obj
 0002:0000b360       ??_R2CButton@@8            10044360     InfoRight.obj
 0002:0000b374       ??_R1A@?0A@EA@CButton@@8   10044374     InfoRight.obj
 0002:0000b390       ??_R4CInfoRight@@6B@       10044390     InfoRight.obj
 0002:0000b3a4       ??_R3CInfoRight@@8         100443a4     InfoRight.obj
 0002:0000b3b4       ??_R2CInfoRight@@8         100443b4     InfoRight.obj
 0002:0000b3d0       ??_R1A@?0A@EA@CInfoRight@@8 100443d0     InfoRight.obj
 0002:0000b3ec       ??_R4?$CArray@PAVCDlgInterface@@PAV1@@@6B@ 100443ec     InfoRight.obj
 0002:0000b400       ??_R3?$CArray@PAVCDlgInterface@@PAV1@@@8 10044400     InfoRight.obj
 0002:0000b410       ??_R2?$CArray@PAVCDlgInterface@@PAV1@@@8 10044410     InfoRight.obj
 0002:0000b41c       ??_R1A@?0A@EA@?$CArray@PAVCDlgInterface@@PAV1@@@8 1004441c     InfoRight.obj
 0002:0000b438       ??_R4CWin32Heap@ATL@@6B@   10044438     StdAfx.obj
 0002:0000b44c       ??_R3CWin32Heap@ATL@@8     1004444c     StdAfx.obj
 0002:0000b45c       ??_R2CWin32Heap@ATL@@8     1004445c     StdAfx.obj
 0002:0000b468       ??_R1A@?0A@EA@CWin32Heap@ATL@@8 10044468     StdAfx.obj
 0002:0000b484       ??_R1A@?0A@EA@IAtlMemMgr@ATL@@8 10044484     StdAfx.obj
 0002:0000b4a0       ??_R3IAtlMemMgr@ATL@@8     100444a0     StdAfx.obj
 0002:0000b4b0       ??_R2IAtlMemMgr@ATL@@8     100444b0     StdAfx.obj
 0002:0000b4b8       ??_R1A@?0A@EA@IAtlStringMgr@ATL@@8 100444b8     StdAfx.obj
 0002:0000b4d4       ??_R3IAtlStringMgr@ATL@@8  100444d4     StdAfx.obj
 0002:0000b4e4       ??_R2IAtlStringMgr@ATL@@8  100444e4     StdAfx.obj
 0002:0000b4ec       ??_R4CAtlStringMgr@ATL@@6B@ 100444ec     StdAfx.obj
 0002:0000b500       ??_R3CAtlStringMgr@ATL@@8  10044500     StdAfx.obj
 0002:0000b510       ??_R2CAtlStringMgr@ATL@@8  10044510     StdAfx.obj
 0002:0000b51c       ??_R1A@?0A@EA@CAtlStringMgr@ATL@@8 1004451c     StdAfx.obj
 0002:0000b538       ??_R4CTabAnalChart@@6B@    10044538     TabAnalChart.obj
 0002:0000b54c       ??_R3CTabAnalChart@@8      1004454c     TabAnalChart.obj
 0002:0000b55c       ??_R2CTabAnalChart@@8      1004455c     TabAnalChart.obj
 0002:0000b57c       ??_R1A@?0A@EA@CTabAnalChart@@8 1004457c     TabAnalChart.obj
 0002:0000b598       ??_R4CTabSoonikChart@@6B@  10044598     TabEarnChart.obj
 0002:0000b5ac       ??_R3CTabSoonikChart@@8    100445ac     TabEarnChart.obj
 0002:0000b5bc       ??_R2CTabSoonikChart@@8    100445bc     TabEarnChart.obj
 0002:0000b5dc       ??_R1A@?0A@EA@CTabSoonikChart@@8 100445dc     TabEarnChart.obj
 0002:0000b5f8       ??_R4CStatic@@6B@          100445f8     TabResult.obj
 0002:0000b60c       ??_R3CStatic@@8            1004460c     TabResult.obj
 0002:0000b61c       ??_R2CStatic@@8            1004461c     TabResult.obj
 0002:0000b630       ??_R1A@?0A@EA@CStatic@@8   10044630     TabResult.obj
 0002:0000b64c       ??_R4CTabResult@@6B@       1004464c     TabResult.obj
 0002:0000b660       ??_R3CTabResult@@8         10044660     TabResult.obj
 0002:0000b670       ??_R2CTabResult@@8         10044670     TabResult.obj
 0002:0000b690       ??_R1A@?0A@EA@CTabResult@@8 10044690     TabResult.obj
 0002:0000b6ac       ??_R4?$CArray@NN@@6B@      100446ac     TabSonikChart.obj
 0002:0000b6c0       ??_R3?$CArray@NN@@8        100446c0     TabSonikChart.obj
 0002:0000b6d0       ??_R2?$CArray@NN@@8        100446d0     TabSonikChart.obj
 0002:0000b6dc       ??_R1A@?0A@EA@?$CArray@NN@@8 100446dc     TabSonikChart.obj
 0002:0000b6f8       ??_R4CTabSonikChart@@6B@   100446f8     TabSonikChart.obj
 0002:0000b70c       ??_R3CTabSonikChart@@8     1004470c     TabSonikChart.obj
 0002:0000b71c       ??_R2CTabSonikChart@@8     1004471c     TabSonikChart.obj
 0002:0000b73c       ??_R1A@?0A@EA@CTabSonikChart@@8 1004473c     TabSonikChart.obj
 0002:0000b758       ??_R4CTabStep@@6B@         10044758     TabStep.obj
 0002:0000b76c       ??_R3CTabStep@@8           1004476c     TabStep.obj
 0002:0000b77c       ??_R2CTabStep@@8           1004477c     TabStep.obj
 0002:0000b79c       ??_R1A@?0A@EA@CTabStep@@8  1004479c     TabStep.obj
 0002:0000b7b8       ??_R4CTabTrade@@6B@        100447b8     TabTrade.obj
 0002:0000b7cc       ??_R3CTabTrade@@8          100447cc     TabTrade.obj
 0002:0000b7dc       ??_R2CTabTrade@@8          100447dc     TabTrade.obj
 0002:0000b7fc       ??_R1A@?0A@EA@CTabTrade@@8 100447fc     TabTrade.obj
 0002:0000b818       ??_R4CLoaderStatic@@6B@    10044818     ExControl:ExStatic.obj
 0002:0000b82c       ??_R3CLoaderStatic@@8      1004482c     ExControl:ExStatic.obj
 0002:0000b83c       ??_R2CLoaderStatic@@8      1004483c     ExControl:ExStatic.obj
 0002:0000b848       ??_R1A@?0A@EA@CLoaderStatic@@8 10044848     ExControl:ExStatic.obj
 0002:0000b864       ??_R1A@?0A@EA@CExLoadLib@@8 10044864     ExControl:ExStatic.obj
 0002:0000b880       ??_R3CExLoadLib@@8         10044880     ExControl:ExStatic.obj
 0002:0000b890       ??_R2CExLoadLib@@8         10044890     ExControl:ExStatic.obj
 0002:0000b898       ??_R4CExStatic@@6B@        10044898     ExControl:ExStatic.obj
 0002:0000b8ac       ??_R3CExStatic@@8          100448ac     ExControl:ExStatic.obj
 0002:0000b8bc       ??_R2CExStatic@@8          100448bc     ExControl:ExStatic.obj
 0002:0000b8d4       ??_R1A@?0A@EA@CExStatic@@8 100448d4     ExControl:ExStatic.obj
 0002:0000b8f0       ??_R4CExLoadLib@@6B@       100448f0     ExControl:ExStatic.obj
 0002:0000b904       ??_R4CLoaderDrawButton@@6B@ 10044904     ExControl:ExDrawButton.obj
 0002:0000b918       ??_R3CLoaderDrawButton@@8  10044918     ExControl:ExDrawButton.obj
 0002:0000b928       ??_R2CLoaderDrawButton@@8  10044928     ExControl:ExDrawButton.obj
 0002:0000b934       ??_R1A@?0A@EA@CLoaderDrawButton@@8 10044934     ExControl:ExDrawButton.obj
 0002:0000b950       ??_R4CExDrawButton@@6B@    10044950     ExControl:ExDrawButton.obj
 0002:0000b964       ??_R3CExDrawButton@@8      10044964     ExControl:ExDrawButton.obj
 0002:0000b974       ??_R2CExDrawButton@@8      10044974     ExControl:ExDrawButton.obj
 0002:0000b990       ??_R1A@?0A@EA@CExDrawButton@@8 10044990     ExControl:ExDrawButton.obj
 0002:0000b9ac       ??_R1A@?0A@EA@CExButton@@8 100449ac     ExControl:ExDrawButton.obj
 0002:0000b9c8       ??_R3CExButton@@8          100449c8     ExControl:ExDrawButton.obj
 0002:0000b9d8       ??_R2CExButton@@8          100449d8     ExControl:ExDrawButton.obj
 0002:0000b9f0       ??_R4CComboBox@@6B@        100449f0     ExControl:ExComboBox.obj
 0002:0000ba04       ??_R3CComboBox@@8          10044a04     ExControl:ExComboBox.obj
 0002:0000ba14       ??_R2CComboBox@@8          10044a14     ExControl:ExComboBox.obj
 0002:0000ba28       ??_R1A@?0A@EA@CComboBox@@8 10044a28     ExControl:ExComboBox.obj
 0002:0000ba44       ??_R4CLoaderComboBox@@6B@  10044a44     ExControl:ExComboBox.obj
 0002:0000ba58       ??_R3CLoaderComboBox@@8    10044a58     ExControl:ExComboBox.obj
 0002:0000ba68       ??_R2CLoaderComboBox@@8    10044a68     ExControl:ExComboBox.obj
 0002:0000ba74       ??_R1A@?0A@EA@CLoaderComboBox@@8 10044a74     ExControl:ExComboBox.obj
 0002:0000ba90       ??_R4CExComboBox@@6B@      10044a90     ExControl:ExComboBox.obj
 0002:0000baa4       ??_R3CExComboBox@@8        10044aa4     ExControl:ExComboBox.obj
 0002:0000bab4       ??_R2CExComboBox@@8        10044ab4     ExControl:ExComboBox.obj
 0002:0000bacc       ??_R1A@?0A@EA@CExComboBox@@8 10044acc     ExControl:ExComboBox.obj
 0002:0000bae8       ??_R3ITrCommSite@@8        10044ae8     ExControl:ExDialog.obj
 0002:0000baf8       ??_R2ITrCommSite@@8        10044af8     ExControl:ExDialog.obj
 0002:0000bb00       ??_R1A@?0A@EA@ITrCommSite@@8 10044b00     ExControl:ExDialog.obj
 0002:0000bb1c       ??_R3ISkinColorSite@@8     10044b1c     ExControl:ExDialog.obj
 0002:0000bb2c       ??_R2ISkinColorSite@@8     10044b2c     ExControl:ExDialog.obj
 0002:0000bb34       ??_R1A@?0A@EA@ISkinColorSite@@8 10044b34     ExControl:ExDialog.obj
 0002:0000bb50       ??_R4CLoadLib@@6B@         10044b50     ExControl:ExDialog.obj
 0002:0000bb64       ??_R3CLoadLib@@8           10044b64     ExControl:ExDialog.obj
 0002:0000bb74       ??_R2CLoadLib@@8           10044b74     ExControl:ExDialog.obj
 0002:0000bb7c       ??_R1A@?0A@EA@CLoadLib@@8  10044b7c     ExControl:ExDialog.obj
 0002:0000bb98       ??_R4CPCTrMngHelper@@6B@   10044b98     ExControl:ExDialog.obj
 0002:0000bbac       ??_R3CPCTrMngHelper@@8     10044bac     ExControl:ExDialog.obj
 0002:0000bbbc       ??_R2CPCTrMngHelper@@8     10044bbc     ExControl:ExDialog.obj
 0002:0000bbc8       ??_R1A@?0A@EA@CPCTrMngHelper@@8 10044bc8     ExControl:ExDialog.obj
 0002:0000bbe4       ??_R4CExDialog@@6BCDialog@@@ 10044be4     ExControl:ExDialog.obj
 0002:0000bbf8       ??_R3CExDialog@@8          10044bf8     ExControl:ExDialog.obj
 0002:0000bc08       ??_R2CExDialog@@8          10044c08     ExControl:ExDialog.obj
 0002:0000bc24       ??_R1A@?0A@EA@CExDialog@@8 10044c24     ExControl:ExDialog.obj
 0002:0000bc40       ??_R1KI@?0A@EA@CExResize@@8 10044c40     ExControl:ExDialog.obj
 0002:0000bc5c       ??_R3CExResize@@8          10044c5c     ExControl:ExDialog.obj
 0002:0000bc6c       ??_R2CExResize@@8          10044c6c     ExControl:ExDialog.obj
 0002:0000bc74       ??_R1A@?0A@EA@CExResize@@8 10044c74     ExControl:ExDialog.obj
 0002:0000bc90       ??_R4CExDialog@@6BCExResize@@@ 10044c90     ExControl:ExDialog.obj
 0002:0000bca4       ??_R4?$CList@P6AXXZP6AXXZ@@6B@ 10044ca4     ExControl:ExDialog.obj
 0002:0000bcb8       ??_R3?$CList@P6AXXZP6AXXZ@@8 10044cb8     ExControl:ExDialog.obj
 0002:0000bcc8       ??_R2?$CList@P6AXXZP6AXXZ@@8 10044cc8     ExControl:ExDialog.obj
 0002:0000bcd4       ??_R1A@?0A@EA@?$CList@P6AXXZP6AXXZ@@8 10044cd4     ExControl:ExDialog.obj
 0002:0000bcf0       ??_R4CMyITrCommSite@CExDialog@@6B@ 10044cf0     ExControl:ExDialog.obj
 0002:0000bd04       ??_R3CMyITrCommSite@CExDialog@@8 10044d04     ExControl:ExDialog.obj
 0002:0000bd14       ??_R2CMyITrCommSite@CExDialog@@8 10044d14     ExControl:ExDialog.obj
 0002:0000bd20       ??_R1A@?0A@EA@CMyITrCommSite@CExDialog@@8 10044d20     ExControl:ExDialog.obj
 0002:0000bd3c       ??_R4CMyISkinColorSite@CExDialog@@6B@ 10044d3c     ExControl:ExDialog.obj
 0002:0000bd50       ??_R3CMyISkinColorSite@CExDialog@@8 10044d50     ExControl:ExDialog.obj
 0002:0000bd60       ??_R2CMyISkinColorSite@CExDialog@@8 10044d60     ExControl:ExDialog.obj
 0002:0000bd6c       ??_R1A@?0A@EA@CMyISkinColorSite@CExDialog@@8 10044d6c     ExControl:ExDialog.obj
 0002:0000bd88       ??_R4?$CArray@PAXPAX@@6B@  10044d88     ExControl:StdAfx.obj
 0002:0000bd9c       ??_R3?$CArray@PAXPAX@@8    10044d9c     ExControl:StdAfx.obj
 0002:0000bdac       ??_R2?$CArray@PAXPAX@@8    10044dac     ExControl:StdAfx.obj
 0002:0000bdb8       ??_R1A@?0A@EA@?$CArray@PAXPAX@@8 10044db8     ExControl:StdAfx.obj
 0002:0000bdd4       ??_R4CExButton@@6B@        10044dd4     ExControl:ExButton.obj
 0002:0000bde8       ??_R4CExSizeIcon@@6B@      10044de8     ExControl:ExResize.obj
 0002:0000bdfc       ??_R3CExSizeIcon@@8        10044dfc     ExControl:ExResize.obj
 0002:0000be0c       ??_R2CExSizeIcon@@8        10044e0c     ExControl:ExResize.obj
 0002:0000be24       ??_R1A@?0A@EA@CExSizeIcon@@8 10044e24     ExControl:ExResize.obj
 0002:0000be40       ??_R4CExItem@@6B@          10044e40     ExControl:ExResize.obj
 0002:0000be54       ??_R3CExItem@@8            10044e54     ExControl:ExResize.obj
 0002:0000be64       ??_R2CExItem@@8            10044e64     ExControl:ExResize.obj
 0002:0000be6c       ??_R1A@?0A@EA@CExItem@@8   10044e6c     ExControl:ExResize.obj
 0002:0000be88       ??_R4CExResize@@6B@        10044e88     ExControl:ExResize.obj
 0002:0000be9c       ??_R4?$CArray@PAVCExItem@@AAPAV1@@@6B@ 10044e9c     ExControl:ExResize.obj
 0002:0000beb0       ??_R3?$CArray@PAVCExItem@@AAPAV1@@@8 10044eb0     ExControl:ExResize.obj
 0002:0000bec0       ??_R2?$CArray@PAVCExItem@@AAPAV1@@@8 10044ec0     ExControl:ExResize.obj
 0002:0000becc       ??_R1A@?0A@EA@?$CArray@PAVCExItem@@AAPAV1@@@8 10044ecc     ExControl:ExResize.obj
 0002:0000bee8       ??_R4CLoaderCheckBoxButton@@6B@ 10044ee8     ExControl:ExCheckBox.obj
 0002:0000befc       ??_R3CLoaderCheckBoxButton@@8 10044efc     ExControl:ExCheckBox.obj
 0002:0000bf0c       ??_R2CLoaderCheckBoxButton@@8 10044f0c     ExControl:ExCheckBox.obj
 0002:0000bf18       ??_R1A@?0A@EA@CLoaderCheckBoxButton@@8 10044f18     ExControl:ExCheckBox.obj
 0002:0000bf34       ??_R4CExCheckBox@@6B@      10044f34     ExControl:ExCheckBox.obj
 0002:0000bf48       ??_R3CExCheckBox@@8        10044f48     ExControl:ExCheckBox.obj
 0002:0000bf58       ??_R2CExCheckBox@@8        10044f58     ExControl:ExCheckBox.obj
 0002:0000bf70       ??_R1A@?0A@EA@CExCheckBox@@8 10044f70     ExControl:ExCheckBox.obj
 0002:0000bf8c       ??_R4type_info@@6B@        10044f8c     msvcrt:std_type_info_static.obj
 0002:0000bfa0       ??_R3type_info@@8          10044fa0     msvcrt:std_type_info_static.obj
 0002:0000bfb0       ??_R2type_info@@8          10044fb0     msvcrt:std_type_info_static.obj
 0002:0000bfb8       ??_R1A@?0A@EA@type_info@@8 10044fb8     msvcrt:std_type_info_static.obj
 0002:0000bfd4       ___safe_se_handler_table   10044fd4     <linker-defined>
 0002:0000c2e8       ___volatile_metadata       100452e8     <linker-defined>
 0002:0000c760       ___rtc_iaa                 10045760     msvcrt:initsect.obj
 0002:0000c764       ___rtc_izz                 10045764     msvcrt:initsect.obj
 0002:0000c768       ___rtc_taa                 10045768     msvcrt:initsect.obj
 0002:0000c76c       ___rtc_tzz                 1004576c     msvcrt:initsect.obj
 0002:0000c770       __tls_start                10045770     msvcrt:tlssup.obj
 0002:0000c774       __Init_thread_epoch        10045774     msvcrt:thread_safe_statics.obj
 0002:0000c778       __tls_end                  10045778     msvcrt:tlssup.obj
 0002:0000ff14       ___pobjMapEntryFirst       10048f14     StdAfx.obj
 0002:0000ff18       ___pobjMapEntryLast        10048f18     StdAfx.obj
 0002:00010010       __IMPORT_DESCRIPTOR_mfc140 10049010     mfc140:mfc140.dll
 0002:00010024       __IMPORT_DESCRIPTOR_KERNEL32 10049024     kernel32:KERNEL32.dll
 0002:00010038       __IMPORT_DESCRIPTOR_USER32 10049038     user32:USER32.dll
 0002:0001004c       __IMPORT_DESCRIPTOR_GDI32  1004904c     gdi32:GDI32.dll
 0002:00010060       __IMPORT_DESCRIPTOR_ADVAPI32 10049060     advapi32:ADVAPI32.dll
 0002:00010074       __IMPORT_DESCRIPTOR_COMCTL32 10049074     comctl32:COMCTL32.dll
 0002:00010088       __IMPORT_DESCRIPTOR_ole32  10049088     ole32:ole32.dll
 0002:0001009c       __IMPORT_DESCRIPTOR_OLEAUT32 1004909c     oleaut32:OLEAUT32.dll
 0002:000100b0       __IMPORT_DESCRIPTOR_VCRUNTIME140 100490b0     vcruntime:VCRUNTIME140.dll
 0002:000100c4       __IMPORT_DESCRIPTOR_api-ms-win-crt-stdio-l1-1-0 100490c4     ucrt:api-ms-win-crt-stdio-l1-1-0.dll
 0002:000100d8       __IMPORT_DESCRIPTOR_api-ms-win-crt-runtime-l1-1-0 100490d8     ucrt:api-ms-win-crt-runtime-l1-1-0.dll
 0002:000100ec       __IMPORT_DESCRIPTOR_api-ms-win-crt-convert-l1-1-0 100490ec     ucrt:api-ms-win-crt-convert-l1-1-0.dll
 0002:00010100       __IMPORT_DESCRIPTOR_api-ms-win-crt-multibyte-l1-1-0 10049100     ucrt:api-ms-win-crt-multibyte-l1-1-0.dll
 0002:00010114       __IMPORT_DESCRIPTOR_api-ms-win-crt-time-l1-1-0 10049114     ucrt:api-ms-win-crt-time-l1-1-0.dll
 0002:00010128       __IMPORT_DESCRIPTOR_api-ms-win-crt-heap-l1-1-0 10049128     ucrt:api-ms-win-crt-heap-l1-1-0.dll
 0002:0001013c       __IMPORT_DESCRIPTOR_api-ms-win-crt-utility-l1-1-0 1004913c     ucrt:api-ms-win-crt-utility-l1-1-0.dll
 0002:00010150       __IMPORT_DESCRIPTOR_api-ms-win-crt-math-l1-1-0 10049150     ucrt:api-ms-win-crt-math-l1-1-0.dll
 0002:00010164       __NULL_IMPORT_DESCRIPTOR   10049164     mfc140:mfc140.dll
 0003:0000013c       ?_eventsinkEntryCount@CInfoRight@@0IA 1004b13c     InfoRight.obj
 0003:00000140       __pIncludeInitManaged      1004b140     StdAfx.obj
 0003:00000144       ?_AtlComModule@ATL@@3VCAtlComModule@1@A 1004b144     StdAfx.obj
 0003:0000016c       ?_AtlWinModule@ATL@@3VCAtlWinModule@1@A 1004b16c     StdAfx.obj
 0003:00000198       ?parms@?1??put_ColumnCount@CMschart1@@QAEXF@Z@4PAEA 1004b198     TabEarnChart.obj
 0003:0000019c       ?parms@?1??put_Data@CMschart1@@QAEXPBD@Z@4PAEA 1004b19c     TabEarnChart.obj
 0003:000001a0       ?parms@?1??put_Row@CMschart1@@QAEXF@Z@4PAEA 1004b1a0     TabEarnChart.obj
 0003:000001a4       ?parms@?1??put_RowCount@CMschart1@@QAEXF@Z@4PAEA 1004b1a4     TabEarnChart.obj
 0003:000001a8       ?parms@?1??put_RowLabel@CMschart1@@QAEXPBD@Z@4PAEA 1004b1a8     TabEarnChart.obj
 0003:000001ac       ?parms@?1??put_AllowSelections@CMschart1@@QAEXH@Z@4PAEA 1004b1ac     TabEarnChart.obj
 0003:000001b0       ?m_arPermanentHandle@@3V?$CArray@PAXPAX@@A 1004b1b0     ExControl:StdAfx.obj
 0003:000001c4       _WinbaseIsolationAwarePrivateT_UnPgpgk 1004b1c4     mfcs140:nolib.obj
 0003:000001c8       ___scrt_native_dllmain_reason 1004b1c8     msvcrt:utility.obj
 0003:000001d0       ___security_cookie_complement 1004b1d0     msvcrt:gs_cookie.obj
 0003:000001d4       ___security_cookie         1004b1d4     msvcrt:gs_cookie.obj
 0003:000001d8       __fltused                  1004b1d8     msvcrt:fltused.obj
 0003:000001dc       __Init_global_epoch        1004b1dc     msvcrt:thread_safe_statics.obj
 0003:000001e0       ___isa_enabled             1004b1e0     msvcrt:cpu_disp.obj
 0003:000001f0       ___scrt_ucrt_dll_is_in_use 1004b1f0     msvcrt:ucrt_stubs.obj
 0003:000001f4       ??_R0PAVCException@@@8     1004b1f4     XHeaderCtrl.obj
 0003:00000210       ??_R0PAVCResourceException@@@8 1004b210     GridCellBase.obj
 0003:00000234       ??_R0PAVCMemoryException@@@8 1004b234     GridCtrl.obj
 0003:00000254       ??_R0PAVCFileException@@@8 1004b254     GridCtrl.obj
 0003:00000278       ??_R0?AVCStrategyLoader@@@8 1004b278     StrategyLoader.obj
 0003:00000298       ??_R0?AVCObject@@@8        1004b298     mschart1.obj
 0003:000002b0       ??_R0?AVCWnd@@@8           1004b2b0     mschart1.obj
 0003:000002c4       ??_R0?AVCCmdTarget@@@8     1004b2c4     mschart1.obj
 0003:000002e0       ??_R0?AVCMschart1@@@8      1004b2e0     mschart1.obj
 0003:000002f8       ??_R0?AVCTChart@@@8        1004b2f8     tchart.obj
 0003:00000310       ??_R0?AVCDateTimeCtrl@@@8  1004b310     XDateTime.obj
 0003:0000032c       ??_R0?AVCXDateTime@@@8     1004b32c     XDateTime.obj
 0003:00000348       ??_R0?AVCEdit@@@8          1004b348     XEdit.obj
 0003:0000035c       ??_R0?AVCXEdit@@@8         1004b35c     XEdit.obj
 0003:00000374       ??_R0?AVCGdiObject@@@8     1004b374     XHeaderCtrl.obj
 0003:00000390       ??_R0?AVCPen@@@8           1004b390     XHeaderCtrl.obj
 0003:000003a4       ??_R0?AVCBitmap@@@8        1004b3a4     XHeaderCtrl.obj
 0003:000003bc       ??_R0?AVCHeaderCtrl@@@8    1004b3bc     XHeaderCtrl.obj
 0003:000003d8       ??_R0?AVCMemDC@@@8         1004b3d8     XHeaderCtrl.obj
 0003:000003f0       ??_R0?AVCDC@@@8            1004b3f0     XHeaderCtrl.obj
 0003:00000404       ??_R0?AVCXHeaderCtrl@@@8   1004b404     XHeaderCtrl.obj
 0003:00000420       ??_R0?AVCFont@@@8          1004b420     XListCtrl.obj
 0003:00000434       ??_R0?AVCRgn@@@8           1004b434     XListCtrl.obj
 0003:00000448       ??_R0?AVCListCtrl@@@8      1004b448     XListCtrl.obj
 0003:00000460       ??_R0?AVCXListCtrl@@@8     1004b460     XListCtrl.obj
 0003:0000047c       ??_R0?AVCTabCtrl@@@8       1004b47c     XTabCtrl.obj
 0003:00000494       ??_R0?AVCXTabCtrl@@@8      1004b494     XTabCtrl.obj
 0003:000004ac       ??_R0?AV?$CArray@HH@@@8    1004b4ac     XTabCtrl.obj
 0003:000004c8       ??_R0?AVCBrush@@@8         1004b4c8     DlgAnalysis.obj
 0003:000004e0       ??_R0?AVCDialog@@@8        1004b4e0     DlgAnalysis.obj
 0003:000004f8       ??_R0?AVCEscDialog@@@8     1004b4f8     DlgAnalysis.obj
 0003:00000514       ??_R0?AVCDlgAnalysis@@@8   1004b514     DlgAnalysis.obj
 0003:00000530       ??_R0?AV?$CArray@UST_DATAINDEX@@U1@@@@8 1004b530     DlgAnalysis.obj
 0003:0000055c       ??_R0?AVCDlgInterface@@@8  1004b55c     DlgInterface.obj
 0003:00000578       ??_R0?AVCDlgWait@@@8       1004b578     DlgWait.obj
 0003:00000590       ??_R0?AVCGridCell@@@8      1004b590     GridCell.obj
 0003:000005a8       ??_R0?AVCGridCellBase@@@8  1004b5a8     GridCell.obj
 0003:000005c4       ??_R0?AVCGridDefaultCell@@@8 1004b5c4     GridCell.obj
 0003:000005e4       ??_R0?AVCException@@@8     1004b5e4     GridCtrl.obj
 0003:00000600       ??_R0?AVCFileException@@@8 1004b600     GridCtrl.obj
 0003:00000620       ??_R0?AVCCommonDialog@@@8  1004b620     GridCtrl.obj
 0003:0000063c       ??_R0?AV?$CMap@KKVCCellID@@AAV1@@@@8 1004b63c     GridCtrl.obj
 0003:00000664       ??_R0?AVCGridCtrl@@@8      1004b664     GridCtrl.obj
 0003:0000067c       ??_R0?AV?$CTypedPtrArray@VCObArray@@PAVCGridCellBase@@@@@8 1004b67c     GridCtrl.obj
 0003:000006bc       ??_R0?AVCObArray@@@8       1004b6bc     GridCtrl.obj
 0003:000006d8       ??_R0?AV?$CTypedPtrArray@VCObArray@@PAV?$CTypedPtrArray@VCObArray@@PAVCGridCellBase@@@@@@@8 1004b6d8     GridCtrl.obj
 0003:00000738       ??_R0?AVCGridDropTarget@@@8 1004b738     GridDropTarget.obj
 0003:00000758       ??_R0?AVCOleDropTarget@@@8 1004b758     GridDropTarget.obj
 0003:00000778       ??_R0?AVCInPlaceEdit@@@8   1004b778     InPlaceEdit.obj
 0003:00000794       ??_R0?AVCTitleTip@@@8      1004b794     TitleTip.obj
 0003:000007ac       ??_R0?AVCButton@@@8        1004b7ac     InfoRight.obj
 0003:000007c4       ??_R0?AVCInfoRight@@@8     1004b7c4     InfoRight.obj
 0003:000007e0       ??_R0?AV?$CArray@PAVCDlgInterface@@PAV1@@@@8 1004b7e0     InfoRight.obj
 0003:00000810       ??_R0?AVCWin32Heap@ATL@@@8 1004b810     StdAfx.obj
 0003:00000830       ??_R0?AUIAtlMemMgr@ATL@@@8 1004b830     StdAfx.obj
 0003:00000850       ??_R0?AUIAtlStringMgr@ATL@@@8 1004b850     StdAfx.obj
 0003:00000870       ??_R0?AVCAtlStringMgr@ATL@@@8 1004b870     StdAfx.obj
 0003:00000890       ??_R0?AVCTabAnalChart@@@8  1004b890     TabAnalChart.obj
 0003:000008ac       ??_R0?AVCTabSoonikChart@@@8 1004b8ac     TabEarnChart.obj
 0003:000008cc       ??_R0?AVCStatic@@@8        1004b8cc     TabResult.obj
 0003:000008e4       ??_R0?AVCTabResult@@@8     1004b8e4     TabResult.obj
 0003:00000900       ??_R0?AV?$CArray@NN@@@8    1004b900     TabSonikChart.obj
 0003:0000091c       ??_R0?AVCTabSonikChart@@@8 1004b91c     TabSonikChart.obj
 0003:0000093c       ??_R0?AVCTabStep@@@8       1004b93c     TabStep.obj
 0003:00000954       ??_R0?AVCTabTrade@@@8      1004b954     TabTrade.obj
 0003:0000096c       ??_R0?AVCLoaderStatic@@@8  1004b96c     ExControl:ExStatic.obj
 0003:00000988       ??_R0?AVCExLoadLib@@@8     1004b988     ExControl:ExStatic.obj
 0003:000009a4       ??_R0?AVCExStatic@@@8      1004b9a4     ExControl:ExStatic.obj
 0003:000009bc       ??_R0?AVCLoaderDrawButton@@@8 1004b9bc     ExControl:ExDrawButton.obj
 0003:000009dc       ??_R0?AVCExDrawButton@@@8  1004b9dc     ExControl:ExDrawButton.obj
 0003:000009f8       ??_R0?AVCExButton@@@8      1004b9f8     ExControl:ExDrawButton.obj
 0003:00000a10       ??_R0?AVCComboBox@@@8      1004ba10     ExControl:ExComboBox.obj
 0003:00000a28       ??_R0?AVCLoaderComboBox@@@8 1004ba28     ExControl:ExComboBox.obj
 0003:00000a48       ??_R0?AVCExComboBox@@@8    1004ba48     ExControl:ExComboBox.obj
 0003:00000a64       ??_R0?AUITrCommSite@@@8    1004ba64     ExControl:ExDialog.obj
 0003:00000a80       ??_R0?AUISkinColorSite@@@8 1004ba80     ExControl:ExDialog.obj
 0003:00000aa0       ??_R0?AVCLoadLib@@@8       1004baa0     ExControl:ExDialog.obj
 0003:00000ab8       ??_R0?AVCPCTrMngHelper@@@8 1004bab8     ExControl:ExDialog.obj
 0003:00000ad8       ??_R0?AVCExDialog@@@8      1004bad8     ExControl:ExDialog.obj
 0003:00000af0       ??_R0?AVCExResize@@@8      1004baf0     ExControl:ExDialog.obj
 0003:00000b08       ??_R0?AV?$CList@P6AXXZP6AXXZ@@@8 1004bb08     ExControl:ExDialog.obj
 0003:00000b2c       ??_R0?AVCMyITrCommSite@CExDialog@@@8 1004bb2c     ExControl:ExDialog.obj
 0003:00000b54       ??_R0?AVCMyISkinColorSite@CExDialog@@@8 1004bb54     ExControl:ExDialog.obj
 0003:00000b80       ??_R0?AV?$CArray@PAXPAX@@@8 1004bb80     ExControl:StdAfx.obj
 0003:00000ba0       ??_R0?AVCExSizeIcon@@@8    1004bba0     ExControl:ExResize.obj
 0003:00000bbc       ??_R0?AVCExItem@@@8        1004bbbc     ExControl:ExResize.obj
 0003:00000bd4       ??_R0?AV?$CArray@PAVCExItem@@AAPAV1@@@@8 1004bbd4     ExControl:ExResize.obj
 0003:00000c00       ??_R0?AVCLoaderCheckBoxButton@@@8 1004bc00     ExControl:ExCheckBox.obj
 0003:00000c24       ??_R0?AVCExCheckBox@@@8    1004bc24     ExControl:ExCheckBox.obj
 0003:00000c40       ??_R0?AVtype_info@@@8      1004bc40     msvcrt:std_type_info_static.obj
 0003:00000c58       ?m_bIsDebugVersion@CStrategyLoader@@1HA 1004bc58     StrategyLoader.obj
 0003:00000c68       ?m_strChartOcxFolder@CStrategyLoader@@1V?$CStringT@DV?$StrTraitMFC_DLL@DV?$ChTraitsCRT@D@ATL@@@@@ATL@@A 1004bc68     StrategyLoader.obj
 0003:00000c70       ?_OptionsStorage@?1??__local_stdio_scanf_options@@9@4_KA 1004bc70     StrategyLoader.obj
 0003:00000c78       ?WM_DATETIME_VK_RETURN@@3IA 1004bc78     XDateTime.obj
 0003:00000c7c       ?WM_DATETIME_VK_ESCAPE@@3IA 1004bc7c     XDateTime.obj
 0003:00000c80       ?WM_XEDIT_VK_RETURN@@3IA   1004bc80     XEdit.obj
 0003:00000c84       ?WM_XEDIT_VK_ESCAPE@@3IA   1004bc84     XEdit.obj
 0003:00000c88       ?WM_XLISTCTRL_COMBO_SELECTION@@3IA 1004bc88     XListCtrl.obj
 0003:00000c8c       ?WM_XLISTCTRL_CHECKBOX_CLICKED@@3IA 1004bc8c     XListCtrl.obj
 0003:00000c90       ?WM_XLISTCTRL_EDIT_RETURN@@3IA 1004bc90     XListCtrl.obj
 0003:00000c98       ?_OptionsStorage@?1??__local_stdio_printf_options@@9@4_KA 1004bc98     DlgAnalysis.obj
 0003:00000cf0       ?gvdi@?6??GetCell@CGridCtrl@@QBEPAVCGridCellBase@@HH@Z@4UtagGV_DISPINFO@@A 1004bcf0     GridCtrl.obj
 0003:00000d64       ?$TSS0@?6??GetCell@CGridCtrl@@QBEPAVCGridCellBase@@HH@Z@4HA 1004bd64     GridCtrl.obj
 0003:00000d68       ?cell@?6??GetCell@CGridCtrl@@QBEPAVCGridCellBase@@HH@Z@4VCGridCell@@A 1004bd68     GridCtrl.obj
 0003:00000da0       ?$TSS1@?6??GetCell@CGridCtrl@@QBEPAVCGridCellBase@@HH@Z@4HA 1004bda0     GridCtrl.obj
 0003:00000db4       __afxForceEXTDLL           1004bdb4     HWStrategyAnalysis.obj
 0003:00000e4c       ___@@_PchSym_@00@UtrgUhixUrypUrypPwiumUKxwwiumRxhUPlyqUsdhgizgvtbzmzobhrhUhgwzucOlyq@4B2008FD98C1DD4 1004be4c     StdAfx.obj
 0003:00000e50       ?strHeap@?1??GetInstance@CAtlStringMgr@ATL@@SAPAUIAtlStringMgr@3@XZ@4VCWin32Heap@3@A 1004be50     StdAfx.obj
 0003:00000e5c       ?$TSS0@?1??GetInstance@CAtlStringMgr@ATL@@SAPAUIAtlStringMgr@3@XZ@4HA 1004be5c     StdAfx.obj
 0003:00000e60       ?strMgr@?1??GetInstance@CAtlStringMgr@ATL@@SAPAUIAtlStringMgr@3@XZ@4V23@A 1004be60     StdAfx.obj
 0003:00000e7c       ?$TSS1@?1??GetInstance@CAtlStringMgr@ATL@@SAPAUIAtlStringMgr@3@XZ@4HA 1004be7c     StdAfx.obj
 0003:00000e80       ?m_bInitFailed@CAtlBaseModule@ATL@@2_NA 1004be80     StdAfx.obj
 0003:00000e84       ?_pPerfRegFunc@ATL@@3P6AJPAUHINSTANCE__@@@ZA 1004be84     StdAfx.obj
 0003:00000e88       ?_pPerfUnRegFunc@ATL@@3P6AJXZA 1004be88     StdAfx.obj
 0003:00000e8c       ?_AtlRegisterPerUser@ATL@@3_NA 1004be8c     StdAfx.obj
 0003:00000e90       ?_pAtlModule@ATL@@3PAVCAtlModule@1@A 1004be90     StdAfx.obj
 0003:00000e94       ?_pModule@ATL@@3PAVCComModule@1@A 1004be94     StdAfx.obj
 0003:00000e98       ?_pAtlAutoThreadModule@ATL@@3PAUIAtlAutoThreadModule@1@A 1004be98     StdAfx.obj
 0003:00000e9c       ?atlTraceGeneral@ATL@@3V?$CTraceCategoryEx@$00$0A@@1@A 1004be9c     StdAfx.obj
 0003:00000ea0       ?atlTraceCOM@ATL@@3V?$CTraceCategoryEx@$01$0A@@1@A 1004bea0     StdAfx.obj
 0003:00000ea4       ?atlTraceQI@ATL@@3V?$CTraceCategoryEx@$03$0A@@1@A 1004bea4     StdAfx.obj
 0003:00000ea8       ?atlTraceRegistrar@ATL@@3V?$CTraceCategoryEx@$07$0A@@1@A 1004bea8     StdAfx.obj
 0003:00000eac       ?atlTraceRefcount@ATL@@3V?$CTraceCategoryEx@$0BA@$0A@@1@A 1004beac     StdAfx.obj
 0003:00000eb0       ?atlTraceWindowing@ATL@@3V?$CTraceCategoryEx@$0CA@$0A@@1@A 1004beb0     StdAfx.obj
 0003:00000eb4       ?atlTraceControls@ATL@@3V?$CTraceCategoryEx@$0EA@$0A@@1@A 1004beb4     StdAfx.obj
 0003:00000eb8       ?atlTraceHosting@ATL@@3V?$CTraceCategoryEx@$0IA@$0A@@1@A 1004beb8     StdAfx.obj
 0003:00000ebc       ?atlTraceDBClient@ATL@@3V?$CTraceCategoryEx@$0BAA@$0A@@1@A 1004bebc     StdAfx.obj
 0003:00000ec0       ?atlTraceDBProvider@ATL@@3V?$CTraceCategoryEx@$0CAA@$0A@@1@A 1004bec0     StdAfx.obj
 0003:00000ec4       ?atlTraceSnapin@ATL@@3V?$CTraceCategoryEx@$0EAA@$0A@@1@A 1004bec4     StdAfx.obj
 0003:00000ec8       ?atlTraceNotImpl@ATL@@3V?$CTraceCategoryEx@$0IAA@$0A@@1@A 1004bec8     StdAfx.obj
 0003:00000ecc       ?atlTraceAllocation@ATL@@3V?$CTraceCategoryEx@$0BAAA@$0A@@1@A 1004becc     StdAfx.obj
 0003:00000ed0       ?atlTraceException@ATL@@3V?$CTraceCategoryEx@$0CAAA@$0A@@1@A 1004bed0     StdAfx.obj
 0003:00000ed4       ?atlTraceTime@ATL@@3V?$CTraceCategoryEx@$0EAAA@$0A@@1@A 1004bed4     StdAfx.obj
 0003:00000ed8       ?atlTraceCache@ATL@@3V?$CTraceCategoryEx@$0IAAA@$0A@@1@A 1004bed8     StdAfx.obj
 0003:00000edc       ?atlTraceStencil@ATL@@3V?$CTraceCategoryEx@$0BAAAA@$0A@@1@A 1004bedc     StdAfx.obj
 0003:00000ee0       ?atlTraceString@ATL@@3V?$CTraceCategoryEx@$0CAAAA@$0A@@1@A 1004bee0     StdAfx.obj
 0003:00000ee4       ?atlTraceMap@ATL@@3V?$CTraceCategoryEx@$0EAAAA@$0A@@1@A 1004bee4     StdAfx.obj
 0003:00000ee8       ?atlTraceUtil@ATL@@3V?$CTraceCategoryEx@$0IAAAA@$0A@@1@A 1004bee8     StdAfx.obj
 0003:00000eec       ?atlTraceSecurity@ATL@@3V?$CTraceCategoryEx@$0BAAAAA@$0A@@1@A 1004beec     StdAfx.obj
 0003:00000ef0       ?atlTraceSync@ATL@@3V?$CTraceCategoryEx@$0CAAAAA@$0A@@1@A 1004bef0     StdAfx.obj
 0003:00000ef4       ?atlTraceISAPI@ATL@@3V?$CTraceCategoryEx@$0EAAAAA@$0A@@1@A 1004bef4     StdAfx.obj
 0003:00000ef8       ?isInitialized@CAtlStringMgr@ATL@@0_NA 1004bef8     StdAfx.obj
 0003:00000ef9       ?InitializeCAtlStringMgr@ATLImplementationDetails@ATL@@3UCAtlStringMgrStaticInitializer@12@A 1004bef9     StdAfx.obj
 0003:00001014       ___@@_PchSym_@00@UtrgUhixUrypUrypPwiumUKxwwiumRxhUPlyqUvcxlmgiloUhgwzucOlyq@4B2008FD98C1DD4 1004c014     ExControl:StdAfx.obj
 0003:0000105c       _IsolationAwarePrivateT_SqbjaYRiRY 1004c05c     mfcs140:nolib.obj
 0003:00001060       _IsolationAwarePrivateT_SAbnPgpgk 1004c060     mfcs140:nolib.obj
 0003:00001064       _WinbaseIsolationAwarePrivateT_SpeRNgRQnPgpgk 1004c064     mfcs140:nolib.obj
 0003:00001068       _WinbaseIsolationAwarePrivateT_SpYRNahcpNYYRQ 1004c068     mfcs140:nolib.obj
 0003:0000106c       __afxForceEXCLUDE          1004c06c     mfcs140:nolib.obj
 0003:00001070       ?s_pfn@?1??IsolationAwareCreateActCtxW@@9@4@4P6GPAXPBUtagACTCTXW@@@ZA 1004c070     mfcs140:nolib.obj
 0003:00001074       ?s_pfn@?1??IsolationAwareActivateActCtx@@9@8@4P6GHPAXPAK@ZA 1004c074     mfcs140:nolib.obj
 0003:00001078       ?s_pfn@?1??IsolationAwareDeactivateActCtx@@9@8@4P6GHKK@ZA 1004c078     mfcs140:nolib.obj
 0003:0000107c       ?s_pfn@?1??IsolationAwareFindActCtxSectionStringW@@9@20@4P6GHKPBU_GUID@@KPB_WPAUtagACTCTX_SECTION_KEYED_DATA@@@ZA 1004c07c     mfcs140:nolib.obj
 0003:00001080       ?s_pfn@?1??IsolationAwareQueryActCtxW@@9@28@4P6GHKPAX0K0KPAK@ZA 1004c080     mfcs140:nolib.obj
 0003:00001084       ?m@?1??WinbaseIsolationAwarePrivatetRgCebPnQQeRff_xReaRYQP_QYY@@9@4@4UIsolationAwarePrivate_zHGnoyr_zBqHyr_vAsB@@A 1004c084     mfcs140:nolib.obj
 0003:00001088       ??_B?1??GetInstance@CAtlStringMgr@ATL@@SAPAUIAtlStringMgr@2@XZ@51 1004c088     mfcs140:nolib.obj
 0003:0000108c       __afxForceSTDAFX           1004c08c     mfcs140:stdafx.obj
 0003:00001090       ___scrt_current_native_startup_state 1004c090     msvcrt:utility.obj
 0003:00001094       ___scrt_native_startup_lock 1004c094     msvcrt:utility.obj
 0003:000010dc       __tls_index                1004c0dc     msvcrt:tlssup.obj
 0003:000010e4       ___castguard_check_failure_os_handled_fptr 1004c0e4     msvcrt:guard_support.obj
 0003:000010e8       ___isa_available           1004c0e8     msvcrt:cpu_disp.obj
 0003:000010ec       ___favor                   1004c0ec     msvcrt:cpu_disp.obj
 0003:000010f0       ___scrt_debugger_hook_flag 1004c0f0     msvcrt:utility_desktop.obj
 0003:00001418       ?__type_info_root_node@@3U__type_info_node@@A 1004c418     msvcrt:tncleanup.obj
 0003:00001420       ?_AtlBaseModule@ATL@@3VCAtlBaseModule@1@A 1004c420     atls:atlbase.obj
 0003:00001458       ___@@_PchSym_@00@UzUPdlipUBUhUrmgvinvwrzgvUexgllohUzgohOmzgrevkilqPBACIAJCBDBUlyqiUcIGUhgwzucOlyq@4B2008FD98C1DD4 1004c458     atls:stdafx.obj
 0003:0000145c       ___dyn_tls_init_callback   1004c45c     <common>

 entry point at        0001:000320b0

 Static symbols

 0000:fffa7000       .debug$S                   10000000     HWSTRATEGYANALYSIS.exp
 0002:fffc7000       __catchsym$??1CGdiObject@@UAE@XZ$3 10000000     DlgAnalysis.obj
 0001:fffff000       __unwindfunclet$??1CGdiObject@@UAE@XZ$2 10000000 f   DlgAnalysis.obj
 0002:fffc7000       __catchsym$??1CGdiObject@@UAE@XZ$3 10000000     DlgWait.obj
 0001:fffff000       __unwindfunclet$??1CGdiObject@@UAE@XZ$2 10000000 f   DlgWait.obj
 0002:fffc7000       __catchsym$??1CGdiObject@@UAE@XZ$3 10000000     GridCell.obj
 0001:fffff000       __unwindfunclet$??1CGdiObject@@UAE@XZ$2 10000000 f   GridCell.obj
 0002:fffc7000       __catchsym$??1CGdiObject@@UAE@XZ$3 10000000     GridCellBase.obj
 0001:fffff000       __unwindfunclet$??1CGdiObject@@UAE@XZ$2 10000000 f   GridCellBase.obj
 0002:fffc7000       __catchsym$??1CGdiObject@@UAE@XZ$3 10000000     GridCtrl.obj
 0002:fffc7000       __ehfuncinfo$??1AFX_EXCEPTION_LINK@@QAE@XZ 10000000     GridCtrl.obj
 0002:fffc7000       __ehfuncinfo$??1CMemDC@@UAE@XZ 10000000     GridCtrl.obj
 0001:fffff000       __ehhandler$??1AFX_EXCEPTION_LINK@@QAE@XZ 10000000 f   GridCtrl.obj
 0001:fffff000       __ehhandler$??1CMemDC@@UAE@XZ 10000000 f   GridCtrl.obj
 0001:fffff000       __unwindfunclet$??1CGdiObject@@UAE@XZ$2 10000000 f   GridCtrl.obj
 0002:fffc7000       __catchsym$??1CGdiObject@@UAE@XZ$3 10000000     InfoRight.obj
 0001:fffff000       __unwindfunclet$??1CGdiObject@@UAE@XZ$2 10000000 f   InfoRight.obj
 0002:fffc7000       __catchsym$??1CGdiObject@@UAE@XZ$3 10000000     TabEarnChart.obj
 0001:fffff000       __unwindfunclet$??1CGdiObject@@UAE@XZ$2 10000000 f   TabEarnChart.obj
 0002:fffc7000       __catchsym$??1CGdiObject@@UAE@XZ$3 10000000     TabResult.obj
 0001:fffff000       __unwindfunclet$??1CGdiObject@@UAE@XZ$2 10000000 f   TabResult.obj
 0002:fffc7000       __catchsym$??1CGdiObject@@UAE@XZ$3 10000000     TabSonikChart.obj
 0001:fffff000       __ehhandler$??1CSeries@@QAE@XZ 10000000 f   TabSonikChart.obj
 0001:fffff000       __unwindfunclet$??1CGdiObject@@UAE@XZ$2 10000000 f   TabSonikChart.obj
 0002:fffc7000       __unwindtable$??1CSeries@@QAE@XZ 10000000     TabSonikChart.obj
 0002:fffc7000       __catchsym$??1CGdiObject@@UAE@XZ$3 10000000     TitleTip.obj
 0001:fffff000       __unwindfunclet$??1CGdiObject@@UAE@XZ$2 10000000 f   TitleTip.obj
 0002:fffc7000       __catchsym$??1CGdiObject@@UAE@XZ$3 10000000     XListCtrl.obj
 0001:fffff000       __unwindfunclet$??1CGdiObject@@UAE@XZ$2 10000000 f   XListCtrl.obj
 0002:fffc7000       __catchsym$??1CGdiObject@@UAE@XZ$3 10000000     XTabCtrl.obj
 0001:fffff000       __unwindfunclet$??1CGdiObject@@UAE@XZ$2 10000000 f   XTabCtrl.obj
 0002:fffc7000       __catchsym$??1CGdiObject@@UAE@XZ$3 10000000     ExControl:ExResize.obj
 0001:fffff000       __unwindfunclet$??1CGdiObject@@UAE@XZ$2 10000000 f   ExControl:ExResize.obj
 0002:fffc7000       ??isInitialized$initializer$@CAtlStringMgr@ATL@@0P6AXXZA@@3P6AXXZA 10000000     ExControl:StdAfx.obj
 0002:fffc7000       ?InitializeCAtlStringMgr$initializer$@ATLImplementationDetails@ATL@@3P6AXXZA 10000000     ExControl:StdAfx.obj
 0002:fffc7000       ?_AtlComModule$initializer$@ATL@@3P6AXXZA 10000000     ExControl:StdAfx.obj
 0002:fffc7000       ?_AtlWinModule$initializer$@ATL@@3P6AXXZA 10000000     ExControl:StdAfx.obj
 0002:fffc7000       __guard_fids_??__E_AtlBaseModule@ATL@@YAXXZ 10000000     atls:atlbase.obj
 0002:fffc7000       __guard_fids__             10000000     atls:atlbase.obj
 0000:fffa7000       .debug$S                   10000000     mfc140:mfc140.dll
 0000:fffa7000       .debug$S                   10000000     mfc140:mfc140.dll
 0000:fffa7000       .debug$S                   10000000     mfc140:mfc140.dll
 0000:fffa7000       .debug$S                   10000000     mfc140:mfc140.dll
 0000:fffa7000       .debug$S                   10000000     mfc140:mfc140.dll
 0000:fffa7000       .debug$S                   10000000     mfc140:mfc140.dll
 0000:fffa7000       .debug$S                   10000000     mfc140:mfc140.dll
 0000:fffa7000       .debug$S                   10000000     mfc140:mfc140.dll
 0000:fffa7000       .debug$S                   10000000     mfc140:mfc140.dll
 0000:fffa7000       .debug$S                   10000000     mfc140:mfc140.dll
 0000:fffa7000       .debug$S                   10000000     mfc140:mfc140.dll
 0000:fffa7000       .debug$S                   10000000     mfc140:mfc140.dll
 0000:fffa7000       .debug$S                   10000000     mfc140:mfc140.dll
 0000:fffa7000       .debug$S                   10000000     mfc140:mfc140.dll
 0000:fffa7000       .debug$S                   10000000     mfc140:mfc140.dll
 0000:fffa7000       .debug$S                   10000000     mfc140:mfc140.dll
 0000:fffa7000       .debug$S                   10000000     mfc140:mfc140.dll
 0000:fffa7000       .debug$S                   10000000     mfc140:mfc140.dll
 0000:fffa7000       .debug$S                   10000000     mfc140:mfc140.dll
 0000:fffa7000       .debug$S                   10000000     mfc140:mfc140.dll
 0000:fffa7000       .debug$S                   10000000     mfc140:mfc140.dll
 0000:fffa7000       .debug$S                   10000000     mfc140:mfc140.dll
 0000:fffa7000       .debug$S                   10000000     mfc140:mfc140.dll
 0000:fffa7000       .debug$S                   10000000     mfc140:mfc140.dll
 0000:fffa7000       .debug$S                   10000000     mfc140:mfc140.dll
 0000:fffa7000       .debug$S                   10000000     mfc140:mfc140.dll
 0000:fffa7000       .debug$S                   10000000     mfc140:mfc140.dll
 0000:fffa7000       .debug$S                   10000000     mfc140:mfc140.dll
 0000:fffa7000       .debug$S                   10000000     mfc140:mfc140.dll
 0000:fffa7000       .debug$S                   10000000     mfc140:mfc140.dll
 0000:fffa7000       .debug$S                   10000000     mfc140:mfc140.dll
 0000:fffa7000       .debug$S                   10000000     mfc140:mfc140.dll
 0000:fffa7000       .debug$S                   10000000     mfc140:mfc140.dll
 0000:fffa7000       .debug$S                   10000000     mfc140:mfc140.dll
 0000:fffa7000       .debug$S                   10000000     mfc140:mfc140.dll
 0000:fffa7000       .debug$S                   10000000     mfc140:mfc140.dll
 0000:fffa7000       .debug$S                   10000000     mfc140:mfc140.dll
 0000:fffa7000       .debug$S                   10000000     mfc140:mfc140.dll
 0000:fffa7000       .debug$S                   10000000     mfc140:mfc140.dll
 0000:fffa7000       .debug$S                   10000000     mfc140:mfc140.dll
 0000:fffa7000       .debug$S                   10000000     mfc140:mfc140.dll
 0000:fffa7000       .debug$S                   10000000     mfc140:mfc140.dll
 0000:fffa7000       .debug$S                   10000000     mfc140:mfc140.dll
 0000:fffa7000       .debug$S                   10000000     mfc140:mfc140.dll
 0000:fffa7000       .debug$S                   10000000     mfc140:mfc140.dll
 0000:fffa7000       .debug$S                   10000000     mfc140:mfc140.dll
 0000:fffa7000       .debug$S                   10000000     mfc140:mfc140.dll
 0000:fffa7000       .debug$S                   10000000     mfc140:mfc140.dll
 0000:fffa7000       .debug$S                   10000000     mfc140:mfc140.dll
 0000:fffa7000       .debug$S                   10000000     mfc140:mfc140.dll
 0000:fffa7000       .debug$S                   10000000     mfc140:mfc140.dll
 0000:fffa7000       .debug$S                   10000000     mfc140:mfc140.dll
 0000:fffa7000       .debug$S                   10000000     mfc140:mfc140.dll
 0000:fffa7000       .debug$S                   10000000     mfc140:mfc140.dll
 0000:fffa7000       .debug$S                   10000000     mfc140:mfc140.dll
 0000:fffa7000       .debug$S                   10000000     mfc140:mfc140.dll
 0000:fffa7000       .debug$S                   10000000     mfc140:mfc140.dll
 0000:fffa7000       .debug$S                   10000000     mfc140:mfc140.dll
 0000:fffa7000       .debug$S                   10000000     mfc140:mfc140.dll
 0000:fffa7000       .debug$S                   10000000     mfc140:mfc140.dll
 0000:fffa7000       .debug$S                   10000000     mfc140:mfc140.dll
 0000:fffa7000       .debug$S                   10000000     mfc140:mfc140.dll
 0000:fffa7000       .debug$S                   10000000     mfc140:mfc140.dll
 0000:fffa7000       .debug$S                   10000000     mfc140:mfc140.dll
 0000:fffa7000       .debug$S                   10000000     mfc140:mfc140.dll
 0000:fffa7000       .debug$S                   10000000     mfc140:mfc140.dll
 0000:fffa7000       .debug$S                   10000000     mfc140:mfc140.dll
 0000:fffa7000       .debug$S                   10000000     mfc140:mfc140.dll
 0000:fffa7000       .debug$S                   10000000     mfc140:mfc140.dll
 0000:fffa7000       .debug$S                   10000000     mfc140:mfc140.dll
 0000:fffa7000       .debug$S                   10000000     mfc140:mfc140.dll
 0000:fffa7000       .debug$S                   10000000     mfc140:mfc140.dll
 0000:fffa7000       .debug$S                   10000000     mfc140:mfc140.dll
 0000:fffa7000       .debug$S                   10000000     mfc140:mfc140.dll
 0000:fffa7000       .debug$S                   10000000     mfc140:mfc140.dll
 0000:fffa7000       .debug$S                   10000000     mfc140:mfc140.dll
 0000:fffa7000       .debug$S                   10000000     mfc140:mfc140.dll
 0000:fffa7000       .debug$S                   10000000     mfc140:mfc140.dll
 0000:fffa7000       .debug$S                   10000000     mfc140:mfc140.dll
 0000:fffa7000       .debug$S                   10000000     mfc140:mfc140.dll
 0000:fffa7000       .debug$S                   10000000     mfc140:mfc140.dll
 0000:fffa7000       .debug$S                   10000000     mfc140:mfc140.dll
 0000:fffa7000       .debug$S                   10000000     mfc140:mfc140.dll
 0000:fffa7000       .debug$S                   10000000     mfc140:mfc140.dll
 0000:fffa7000       .debug$S                   10000000     mfc140:mfc140.dll
 0000:fffa7000       .debug$S                   10000000     mfc140:mfc140.dll
 0000:fffa7000       .debug$S                   10000000     mfc140:mfc140.dll
 0000:fffa7000       .debug$S                   10000000     mfc140:mfc140.dll
 0000:fffa7000       .debug$S                   10000000     mfc140:mfc140.dll
 0000:fffa7000       .debug$S                   10000000     mfc140:mfc140.dll
 0000:fffa7000       .debug$S                   10000000     mfc140:mfc140.dll
 0000:fffa7000       .debug$S                   10000000     mfc140:mfc140.dll
 0000:fffa7000       .debug$S                   10000000     mfc140:mfc140.dll
 0000:fffa7000       .debug$S                   10000000     mfc140:mfc140.dll
 0000:fffa7000       .debug$S                   10000000     mfc140:mfc140.dll
 0000:fffa7000       .debug$S                   10000000     mfc140:mfc140.dll
 0000:fffa7000       .debug$S                   10000000     mfc140:mfc140.dll
 0000:fffa7000       .debug$S                   10000000     mfc140:mfc140.dll
 0000:fffa7000       .debug$S                   10000000     mfc140:mfc140.dll
 0000:fffa7000       .debug$S                   10000000     mfc140:mfc140.dll
 0000:fffa7000       .debug$S                   10000000     mfc140:mfc140.dll
 0000:fffa7000       .debug$S                   10000000     mfc140:mfc140.dll
 0000:fffa7000       .debug$S                   10000000     mfc140:mfc140.dll
 0000:fffa7000       .debug$S                   10000000     mfc140:mfc140.dll
 0000:fffa7000       .debug$S                   10000000     mfc140:mfc140.dll
 0000:fffa7000       .debug$S                   10000000     mfc140:mfc140.dll
 0000:fffa7000       .debug$S                   10000000     mfc140:mfc140.dll
 0000:fffa7000       .debug$S                   10000000     mfc140:mfc140.dll
 0000:fffa7000       .debug$S                   10000000     mfc140:mfc140.dll
 0000:fffa7000       .debug$S                   10000000     mfc140:mfc140.dll
 0000:fffa7000       .debug$S                   10000000     mfc140:mfc140.dll
 0000:fffa7000       .debug$S                   10000000     mfc140:mfc140.dll
 0000:fffa7000       .debug$S                   10000000     mfc140:mfc140.dll
 0000:fffa7000       .debug$S                   10000000     mfc140:mfc140.dll
 0000:fffa7000       .debug$S                   10000000     mfc140:mfc140.dll
 0000:fffa7000       .debug$S                   10000000     mfc140:mfc140.dll
 0000:fffa7000       .debug$S                   10000000     mfc140:mfc140.dll
 0000:fffa7000       .debug$S                   10000000     mfc140:mfc140.dll
 0000:fffa7000       .debug$S                   10000000     mfc140:mfc140.dll
 0000:fffa7000       .debug$S                   10000000     mfc140:mfc140.dll
 0000:fffa7000       .debug$S                   10000000     mfc140:mfc140.dll
 0000:fffa7000       .debug$S                   10000000     mfc140:mfc140.dll
 0000:fffa7000       .debug$S                   10000000     mfc140:mfc140.dll
 0000:fffa7000       .debug$S                   10000000     mfc140:mfc140.dll
 0000:fffa7000       .debug$S                   10000000     mfc140:mfc140.dll
 0000:fffa7000       .debug$S                   10000000     mfc140:mfc140.dll
 0000:fffa7000       .debug$S                   10000000     mfc140:mfc140.dll
 0000:fffa7000       .debug$S                   10000000     mfc140:mfc140.dll
 0000:fffa7000       .debug$S                   10000000     mfc140:mfc140.dll
 0000:fffa7000       .debug$S                   10000000     mfc140:mfc140.dll
 0000:fffa7000       .debug$S                   10000000     mfc140:mfc140.dll
 0000:fffa7000       .debug$S                   10000000     mfc140:mfc140.dll
 0000:fffa7000       .debug$S                   10000000     mfc140:mfc140.dll
 0000:fffa7000       .debug$S                   10000000     mfc140:mfc140.dll
 0000:fffa7000       .debug$S                   10000000     mfc140:mfc140.dll
 0000:fffa7000       .debug$S                   10000000     mfc140:mfc140.dll
 0000:fffa7000       .debug$S                   10000000     mfc140:mfc140.dll
 0000:fffa7000       .debug$S                   10000000     mfc140:mfc140.dll
 0000:fffa7000       .debug$S                   10000000     mfc140:mfc140.dll
 0000:fffa7000       .debug$S                   10000000     mfc140:mfc140.dll
 0000:fffa7000       .debug$S                   10000000     mfc140:mfc140.dll
 0000:fffa7000       .debug$S                   10000000     mfc140:mfc140.dll
 0000:fffa7000       .debug$S                   10000000     mfc140:mfc140.dll
 0000:fffa7000       .debug$S                   10000000     mfc140:mfc140.dll
 0000:fffa7000       .debug$S                   10000000     mfc140:mfc140.dll
 0000:fffa7000       .debug$S                   10000000     mfc140:mfc140.dll
 0000:fffa7000       .debug$S                   10000000     mfc140:mfc140.dll
 0000:fffa7000       .debug$S                   10000000     mfc140:mfc140.dll
 0000:fffa7000       .debug$S                   10000000     mfc140:mfc140.dll
 0000:fffa7000       .debug$S                   10000000     mfc140:mfc140.dll
 0000:fffa7000       .debug$S                   10000000     mfc140:mfc140.dll
 0000:fffa7000       .debug$S                   10000000     mfc140:mfc140.dll
 0000:fffa7000       .debug$S                   10000000     mfc140:mfc140.dll
 0000:fffa7000       .debug$S                   10000000     mfc140:mfc140.dll
 0000:fffa7000       .debug$S                   10000000     mfc140:mfc140.dll
 0000:fffa7000       .debug$S                   10000000     mfc140:mfc140.dll
 0000:fffa7000       .debug$S                   10000000     mfc140:mfc140.dll
 0000:fffa7000       .debug$S                   10000000     mfc140:mfc140.dll
 0000:fffa7000       .debug$S                   10000000     mfc140:mfc140.dll
 0000:fffa7000       .debug$S                   10000000     mfc140:mfc140.dll
 0000:fffa7000       .debug$S                   10000000     mfc140:mfc140.dll
 0000:fffa7000       .debug$S                   10000000     mfc140:mfc140.dll
 0000:fffa7000       .debug$S                   10000000     mfc140:mfc140.dll
 0000:fffa7000       .debug$S                   10000000     mfc140:mfc140.dll
 0000:fffa7000       .debug$S                   10000000     mfc140:mfc140.dll
 0000:fffa7000       .debug$S                   10000000     mfc140:mfc140.dll
 0000:fffa7000       .debug$S                   10000000     mfc140:mfc140.dll
 0000:fffa7000       .debug$S                   10000000     mfc140:mfc140.dll
 0000:fffa7000       .debug$S                   10000000     mfc140:mfc140.dll
 0000:fffa7000       .debug$S                   10000000     mfc140:mfc140.dll
 0000:fffa7000       .debug$S                   10000000     mfc140:mfc140.dll
 0000:fffa7000       .debug$S                   10000000     mfc140:mfc140.dll
 0000:fffa7000       .debug$S                   10000000     mfc140:mfc140.dll
 0000:fffa7000       .debug$S                   10000000     mfc140:mfc140.dll
 0000:fffa7000       .debug$S                   10000000     mfc140:mfc140.dll
 0000:fffa7000       .debug$S                   10000000     mfc140:mfc140.dll
 0000:fffa7000       .debug$S                   10000000     mfc140:mfc140.dll
 0000:fffa7000       .debug$S                   10000000     mfc140:mfc140.dll
 0000:fffa7000       .debug$S                   10000000     mfc140:mfc140.dll
 0000:fffa7000       .debug$S                   10000000     mfc140:mfc140.dll
 0000:fffa7000       .debug$S                   10000000     mfc140:mfc140.dll
 0000:fffa7000       .debug$S                   10000000     mfc140:mfc140.dll
 0000:fffa7000       .debug$S                   10000000     mfc140:mfc140.dll
 0000:fffa7000       .debug$S                   10000000     mfc140:mfc140.dll
 0000:fffa7000       .debug$S                   10000000     mfc140:mfc140.dll
 0000:fffa7000       .debug$S                   10000000     mfc140:mfc140.dll
 0000:fffa7000       .debug$S                   10000000     mfc140:mfc140.dll
 0000:fffa7000       .debug$S                   10000000     mfc140:mfc140.dll
 0000:fffa7000       .debug$S                   10000000     mfc140:mfc140.dll
 0000:fffa7000       .debug$S                   10000000     mfc140:mfc140.dll
 0000:fffa7000       .debug$S                   10000000     mfc140:mfc140.dll
 0000:fffa7000       .debug$S                   10000000     mfc140:mfc140.dll
 0000:fffa7000       .debug$S                   10000000     mfc140:mfc140.dll
 0000:fffa7000       .debug$S                   10000000     mfc140:mfc140.dll
 0000:fffa7000       .debug$S                   10000000     mfc140:mfc140.dll
 0000:fffa7000       .debug$S                   10000000     mfc140:mfc140.dll
 0000:fffa7000       .debug$S                   10000000     mfc140:mfc140.dll
 0000:fffa7000       .debug$S                   10000000     mfc140:mfc140.dll
 0000:fffa7000       .debug$S                   10000000     mfc140:mfc140.dll
 0000:fffa7000       .debug$S                   10000000     mfc140:mfc140.dll
 0000:fffa7000       .debug$S                   10000000     mfc140:mfc140.dll
 0000:fffa7000       .debug$S                   10000000     mfc140:mfc140.dll
 0000:fffa7000       .debug$S                   10000000     mfc140:mfc140.dll
 0000:fffa7000       .debug$S                   10000000     mfc140:mfc140.dll
 0000:fffa7000       .debug$S                   10000000     mfc140:mfc140.dll
 0000:fffa7000       .debug$S                   10000000     mfc140:mfc140.dll
 0000:fffa7000       .debug$S                   10000000     mfc140:mfc140.dll
 0000:fffa7000       .debug$S                   10000000     mfc140:mfc140.dll
 0000:fffa7000       .debug$S                   10000000     mfc140:mfc140.dll
 0000:fffa7000       .debug$S                   10000000     mfc140:mfc140.dll
 0000:fffa7000       .debug$S                   10000000     mfc140:mfc140.dll
 0000:fffa7000       .debug$S                   10000000     mfc140:mfc140.dll
 0000:fffa7000       .debug$S                   10000000     mfc140:mfc140.dll
 0000:fffa7000       .debug$S                   10000000     mfc140:mfc140.dll
 0000:fffa7000       .debug$S                   10000000     mfc140:mfc140.dll
 0000:fffa7000       .debug$S                   10000000     mfc140:mfc140.dll
 0000:fffa7000       .debug$S                   10000000     mfc140:mfc140.dll
 0000:fffa7000       .debug$S                   10000000     mfc140:mfc140.dll
 0000:fffa7000       .debug$S                   10000000     mfc140:mfc140.dll
 0000:fffa7000       .debug$S                   10000000     mfc140:mfc140.dll
 0000:fffa7000       .debug$S                   10000000     mfc140:mfc140.dll
 0000:fffa7000       .debug$S                   10000000     mfc140:mfc140.dll
 0000:fffa7000       .debug$S                   10000000     mfc140:mfc140.dll
 0000:fffa7000       .debug$S                   10000000     mfc140:mfc140.dll
 0000:fffa7000       .debug$S                   10000000     mfc140:mfc140.dll
 0000:fffa7000       .debug$S                   10000000     mfc140:mfc140.dll
 0000:fffa7000       .debug$S                   10000000     mfc140:mfc140.dll
 0000:fffa7000       .debug$S                   10000000     mfc140:mfc140.dll
 0000:fffa7000       .debug$S                   10000000     mfc140:mfc140.dll
 0000:fffa7000       .debug$S                   10000000     mfc140:mfc140.dll
 0000:fffa7000       .debug$S                   10000000     mfc140:mfc140.dll
 0000:fffa7000       .debug$S                   10000000     mfc140:mfc140.dll
 0000:fffa7000       .debug$S                   10000000     mfc140:mfc140.dll
 0000:fffa7000       .debug$S                   10000000     mfc140:mfc140.dll
 0000:fffa7000       .debug$S                   10000000     mfc140:mfc140.dll
 0000:fffa7000       .debug$S                   10000000     mfc140:mfc140.dll
 0000:fffa7000       .debug$S                   10000000     mfc140:mfc140.dll
 0000:fffa7000       .debug$S                   10000000     mfc140:mfc140.dll
 0000:fffa7000       .debug$S                   10000000     mfc140:mfc140.dll
 0000:fffa7000       .debug$S                   10000000     mfc140:mfc140.dll
 0000:fffa7000       .debug$S                   10000000     mfc140:mfc140.dll
 0000:fffa7000       .debug$S                   10000000     mfc140:mfc140.dll
 0000:fffa7000       .debug$S                   10000000     mfc140:mfc140.dll
 0000:fffa7000       .debug$S                   10000000     mfc140:mfc140.dll
 0000:fffa7000       .debug$S                   10000000     mfc140:mfc140.dll
 0000:fffa7000       .debug$S                   10000000     mfc140:mfc140.dll
 0000:fffa7000       .debug$S                   10000000     mfc140:mfc140.dll
 0000:fffa7000       .debug$S                   10000000     mfc140:mfc140.dll
 0000:fffa7000       .debug$S                   10000000     mfc140:mfc140.dll
 0000:fffa7000       .debug$S                   10000000     mfc140:mfc140.dll
 0000:fffa7000       .debug$S                   10000000     mfc140:mfc140.dll
 0000:fffa7000       .debug$S                   10000000     mfc140:mfc140.dll
 0000:fffa7000       .debug$S                   10000000     mfc140:mfc140.dll
 0000:fffa7000       .debug$S                   10000000     mfc140:mfc140.dll
 0000:fffa7000       .debug$S                   10000000     mfc140:mfc140.dll
 0000:fffa7000       .debug$S                   10000000     mfc140:mfc140.dll
 0000:fffa7000       .debug$S                   10000000     mfc140:mfc140.dll
 0000:fffa7000       .debug$S                   10000000     mfc140:mfc140.dll
 0000:fffa7000       .debug$S                   10000000     mfc140:mfc140.dll
 0000:fffa7000       .debug$S                   10000000     mfc140:mfc140.dll
 0000:fffa7000       .debug$S                   10000000     mfc140:mfc140.dll
 0000:fffa7000       .debug$S                   10000000     mfc140:mfc140.dll
 0000:fffa7000       .debug$S                   10000000     mfc140:mfc140.dll
 0000:fffa7000       .debug$S                   10000000     mfc140:mfc140.dll
 0000:fffa7000       .debug$S                   10000000     mfc140:mfc140.dll
 0000:fffa7000       .debug$S                   10000000     mfc140:mfc140.dll
 0000:fffa7000       .debug$S                   10000000     mfc140:mfc140.dll
 0000:fffa7000       .debug$S                   10000000     mfc140:mfc140.dll
 0000:fffa7000       .debug$S                   10000000     mfc140:mfc140.dll
 0000:fffa7000       .debug$S                   10000000     mfc140:mfc140.dll
 0000:fffa7000       .debug$S                   10000000     mfc140:mfc140.dll
 0000:fffa7000       .debug$S                   10000000     mfc140:mfc140.dll
 0000:fffa7000       .debug$S                   10000000     mfc140:mfc140.dll
 0000:fffa7000       .debug$S                   10000000     mfc140:mfc140.dll
 0000:fffa7000       .debug$S                   10000000     mfc140:mfc140.dll
 0000:fffa7000       .debug$S                   10000000     mfc140:mfc140.dll
 0000:fffa7000       .debug$S                   10000000     mfc140:mfc140.dll
 0000:fffa7000       .debug$S                   10000000     mfc140:mfc140.dll
 0000:fffa7000       .debug$S                   10000000     mfc140:mfc140.dll
 0000:fffa7000       .debug$S                   10000000     mfc140:mfc140.dll
 0000:fffa7000       .debug$S                   10000000     mfc140:mfc140.dll
 0000:fffa7000       .debug$S                   10000000     mfc140:mfc140.dll
 0000:fffa7000       .debug$S                   10000000     mfc140:mfc140.dll
 0000:fffa7000       .debug$S                   10000000     mfc140:mfc140.dll
 0000:fffa7000       .debug$S                   10000000     mfc140:mfc140.dll
 0000:fffa7000       .debug$S                   10000000     mfc140:mfc140.dll
 0000:fffa7000       .debug$S                   10000000     mfc140:mfc140.dll
 0000:fffa7000       .debug$S                   10000000     mfc140:mfc140.dll
 0000:fffa7000       .debug$S                   10000000     mfc140:mfc140.dll
 0000:fffa7000       .debug$S                   10000000     mfc140:mfc140.dll
 0000:fffa7000       .debug$S                   10000000     mfc140:mfc140.dll
 0000:fffa7000       .debug$S                   10000000     mfc140:mfc140.dll
 0000:fffa7000       .debug$S                   10000000     mfc140:mfc140.dll
 0000:fffa7000       .debug$S                   10000000     mfc140:mfc140.dll
 0000:fffa7000       .debug$S                   10000000     mfc140:mfc140.dll
 0000:fffa7000       .debug$S                   10000000     mfc140:mfc140.dll
 0000:fffa7000       .debug$S                   10000000     mfc140:mfc140.dll
 0000:fffa7000       .debug$S                   10000000     mfc140:mfc140.dll
 0000:fffa7000       .debug$S                   10000000     mfc140:mfc140.dll
 0000:fffa7000       .debug$S                   10000000     mfc140:mfc140.dll
 0000:fffa7000       .debug$S                   10000000     mfc140:mfc140.dll
 0000:fffa7000       .debug$S                   10000000     mfc140:mfc140.dll
 0000:fffa7000       .debug$S                   10000000     mfc140:mfc140.dll
 0000:fffa7000       .debug$S                   10000000     mfc140:mfc140.dll
 0000:fffa7000       .debug$S                   10000000     mfc140:mfc140.dll
 0000:fffa7000       .debug$S                   10000000     mfc140:mfc140.dll
 0000:fffa7000       .debug$S                   10000000     mfc140:mfc140.dll
 0000:fffa7000       .debug$S                   10000000     mfc140:mfc140.dll
 0000:fffa7000       .debug$S                   10000000     mfc140:mfc140.dll
 0000:fffa7000       .debug$S                   10000000     mfc140:mfc140.dll
 0000:fffa7000       .debug$S                   10000000     mfc140:mfc140.dll
 0000:fffa7000       .debug$S                   10000000     mfc140:mfc140.dll
 0000:fffa7000       .debug$S                   10000000     mfc140:mfc140.dll
 0000:fffa7000       .debug$S                   10000000     mfc140:mfc140.dll
 0000:fffa7000       .debug$S                   10000000     mfc140:mfc140.dll
 0000:fffa7000       .debug$S                   10000000     mfc140:mfc140.dll
 0000:fffa7000       .debug$S                   10000000     mfc140:mfc140.dll
 0000:fffa7000       .debug$S                   10000000     mfc140:mfc140.dll
 0000:fffa7000       .debug$S                   10000000     mfc140:mfc140.dll
 0000:fffa7000       .debug$S                   10000000     mfc140:mfc140.dll
 0000:fffa7000       .debug$S                   10000000     mfc140:mfc140.dll
 0000:fffa7000       .debug$S                   10000000     mfc140:mfc140.dll
 0000:fffa7000       .debug$S                   10000000     mfc140:mfc140.dll
 0000:fffa7000       .debug$S                   10000000     mfc140:mfc140.dll
 0000:fffa7000       .debug$S                   10000000     mfc140:mfc140.dll
 0000:fffa7000       .debug$S                   10000000     mfc140:mfc140.dll
 0000:fffa7000       .debug$S                   10000000     mfc140:mfc140.dll
 0000:fffa7000       .debug$S                   10000000     mfc140:mfc140.dll
 0000:fffa7000       .debug$S                   10000000     mfc140:mfc140.dll
 0000:fffa7000       .debug$S                   10000000     mfc140:mfc140.dll
 0000:fffa7000       .debug$S                   10000000     mfc140:mfc140.dll
 0000:fffa7000       .debug$S                   10000000     mfc140:mfc140.dll
 0000:fffa7000       .debug$S                   10000000     mfc140:mfc140.dll
 0000:fffa7000       .debug$S                   10000000     mfc140:mfc140.dll
 0000:fffa7000       .debug$S                   10000000     mfc140:mfc140.dll
 0000:fffa7000       .debug$S                   10000000     mfc140:mfc140.dll
 0000:fffa7000       .debug$S                   10000000     mfc140:mfc140.dll
 0000:fffa7000       .debug$S                   10000000     mfc140:mfc140.dll
 0000:fffa7000       .debug$S                   10000000     mfc140:mfc140.dll
 0000:fffa7000       .debug$S                   10000000     mfc140:mfc140.dll
 0000:fffa7000       .debug$S                   10000000     mfc140:mfc140.dll
 0000:fffa7000       .debug$S                   10000000     mfc140:mfc140.dll
 0000:fffa7000       .debug$S                   10000000     mfc140:mfc140.dll
 0000:fffa7000       .debug$S                   10000000     mfc140:mfc140.dll
 0000:fffa7000       .debug$S                   10000000     mfc140:mfc140.dll
 0000:fffa7000       .debug$S                   10000000     mfc140:mfc140.dll
 0000:fffa7000       .debug$S                   10000000     mfc140:mfc140.dll
 0000:fffa7000       .debug$S                   10000000     mfc140:mfc140.dll
 0000:fffa7000       .debug$S                   10000000     mfc140:mfc140.dll
 0000:fffa7000       .debug$S                   10000000     mfc140:mfc140.dll
 0000:fffa7000       .debug$S                   10000000     mfc140:mfc140.dll
 0000:fffa7000       .debug$S                   10000000     mfc140:mfc140.dll
 0000:fffa7000       .debug$S                   10000000     mfc140:mfc140.dll
 0000:fffa7000       .debug$S                   10000000     mfc140:mfc140.dll
 0000:fffa7000       .debug$S                   10000000     mfc140:mfc140.dll
 0000:fffa7000       .debug$S                   10000000     mfc140:mfc140.dll
 0000:fffa7000       .debug$S                   10000000     mfc140:mfc140.dll
 0000:fffa7000       .debug$S                   10000000     mfc140:mfc140.dll
 0000:fffa7000       .debug$S                   10000000     mfc140:mfc140.dll
 0000:fffa7000       .debug$S                   10000000     mfc140:mfc140.dll
 0000:fffa7000       .debug$S                   10000000     mfc140:mfc140.dll
 0000:fffa7000       .debug$S                   10000000     mfc140:mfc140.dll
 0000:fffa7000       .debug$S                   10000000     mfc140:mfc140.dll
 0000:fffa7000       .debug$S                   10000000     mfc140:mfc140.dll
 0000:fffa7000       .debug$S                   10000000     mfc140:mfc140.dll
 0000:fffa7000       .debug$S                   10000000     mfc140:mfc140.dll
 0000:fffa7000       .debug$S                   10000000     mfc140:mfc140.dll
 0000:fffa7000       .debug$S                   10000000     mfc140:mfc140.dll
 0000:fffa7000       .debug$S                   10000000     mfc140:mfc140.dll
 0000:fffa7000       .debug$S                   10000000     mfc140:mfc140.dll
 0000:fffa7000       .debug$S                   10000000     mfc140:mfc140.dll
 0000:fffa7000       .debug$S                   10000000     mfc140:mfc140.dll
 0000:fffa7000       .debug$S                   10000000     mfc140:mfc140.dll
 0000:fffa7000       .debug$S                   10000000     mfc140:mfc140.dll
 0000:fffa7000       .debug$S                   10000000     mfc140:mfc140.dll
 0000:fffa7000       .debug$S                   10000000     mfc140:mfc140.dll
 0000:fffa7000       .debug$S                   10000000     mfc140:mfc140.dll
 0000:fffa7000       .debug$S                   10000000     mfc140:mfc140.dll
 0000:fffa7000       .debug$S                   10000000     mfc140:mfc140.dll
 0000:fffa7000       .debug$S                   10000000     mfc140:mfc140.dll
 0000:fffa7000       .debug$S                   10000000     mfc140:mfc140.dll
 0000:fffa7000       .debug$S                   10000000     mfc140:mfc140.dll
 0000:fffa7000       .debug$S                   10000000     mfc140:mfc140.dll
 0000:fffa7000       .debug$S                   10000000     mfc140:mfc140.dll
 0000:fffa7000       .debug$S                   10000000     mfc140:mfc140.dll
 0000:fffa7000       .debug$S                   10000000     mfc140:mfc140.dll
 0000:fffa7000       .debug$S                   10000000     mfc140:mfc140.dll
 0000:fffa7000       .debug$S                   10000000     mfc140:mfc140.dll
 0000:fffa7000       .debug$S                   10000000     mfc140:mfc140.dll
 0000:fffa7000       .debug$S                   10000000     mfc140:mfc140.dll
 0000:fffa7000       .debug$S                   10000000     mfc140:mfc140.dll
 0000:fffa7000       .debug$S                   10000000     mfc140:mfc140.dll
 0000:fffa7000       .debug$S                   10000000     mfc140:mfc140.dll
 0000:fffa7000       .debug$S                   10000000     mfc140:mfc140.dll
 0000:fffa7000       .debug$S                   10000000     mfc140:mfc140.dll
 0000:fffa7000       .debug$S                   10000000     mfc140:mfc140.dll
 0000:fffa7000       .debug$S                   10000000     mfc140:mfc140.dll
 0000:fffa7000       .debug$S                   10000000     mfc140:mfc140.dll
 0000:fffa7000       .debug$S                   10000000     mfc140:mfc140.dll
 0000:fffa7000       .debug$S                   10000000     mfc140:mfc140.dll
 0000:fffa7000       .debug$S                   10000000     mfc140:mfc140.dll
 0000:fffa7000       .debug$S                   10000000     mfc140:mfc140.dll
 0000:fffa7000       .debug$S                   10000000     mfc140:mfc140.dll
 0000:fffa7000       .debug$S                   10000000     mfc140:mfc140.dll
 0000:fffa7000       .debug$S                   10000000     mfc140:mfc140.dll
 0000:fffa7000       .debug$S                   10000000     mfc140:mfc140.dll
 0000:fffa7000       .debug$S                   10000000     mfc140:mfc140.dll
 0000:fffa7000       .debug$S                   10000000     mfc140:mfc140.dll
 0000:fffa7000       .debug$S                   10000000     mfc140:mfc140.dll
 0000:fffa7000       .debug$S                   10000000     mfc140:mfc140.dll
 0000:fffa7000       .debug$S                   10000000     mfc140:mfc140.dll
 0000:fffa7000       .debug$S                   10000000     mfc140:mfc140.dll
 0000:fffa7000       .debug$S                   10000000     mfc140:mfc140.dll
 0000:fffa7000       .debug$S                   10000000     mfc140:mfc140.dll
 0000:fffa7000       .debug$S                   10000000     mfc140:mfc140.dll
 0000:fffa7000       .debug$S                   10000000     mfc140:mfc140.dll
 0000:fffa7000       .debug$S                   10000000     mfc140:mfc140.dll
 0000:fffa7000       .debug$S                   10000000     mfc140:mfc140.dll
 0000:fffa7000       .debug$S                   10000000     mfc140:mfc140.dll
 0000:fffa7000       .debug$S                   10000000     mfc140:mfc140.dll
 0000:fffa7000       .debug$S                   10000000     mfc140:mfc140.dll
 0000:fffa7000       .debug$S                   10000000     mfc140:mfc140.dll
 0000:fffa7000       .debug$S                   10000000     mfc140:mfc140.dll
 0000:fffa7000       .debug$S                   10000000     mfc140:mfc140.dll
 0000:fffa7000       .debug$S                   10000000     mfc140:mfc140.dll
 0000:fffa7000       .debug$S                   10000000     mfc140:mfc140.dll
 0000:fffa7000       .debug$S                   10000000     mfc140:mfc140.dll
 0000:fffa7000       .debug$S                   10000000     mfc140:mfc140.dll
 0000:fffa7000       .debug$S                   10000000     mfc140:mfc140.dll
 0000:fffa7000       .debug$S                   10000000     mfc140:mfc140.dll
 0000:fffa7000       .debug$S                   10000000     mfc140:mfc140.dll
 0000:fffa7000       .debug$S                   10000000     mfc140:mfc140.dll
 0000:fffa7000       .debug$S                   10000000     mfc140:mfc140.dll
 0000:fffa7000       .debug$S                   10000000     mfc140:mfc140.dll
 0000:fffa7000       .debug$S                   10000000     mfc140:mfc140.dll
 0000:fffa7000       .debug$S                   10000000     mfc140:mfc140.dll
 0000:fffa7000       .debug$S                   10000000     mfc140:mfc140.dll
 0000:fffa7000       .debug$S                   10000000     mfc140:mfc140.dll
 0002:fffc7000       ??isInitialized$initializer$@CAtlStringMgr@ATL@@0P6AXXZA@@3P6AXXZA 10000000     mfcs140:nolib.obj
 0002:fffc7000       ?InitializeCAtlStringMgr$initializer$@ATLImplementationDetails@ATL@@3P6AXXZA 10000000     mfcs140:nolib.obj
 0002:fffc7000       ?_AtlComModule$initializer$@ATL@@3P6AXXZA 10000000     mfcs140:nolib.obj
 0002:fffc7000       ?_AtlWinModule$initializer$@ATL@@3P6AXXZA 10000000     mfcs140:nolib.obj
 0002:fffc7000       __guard_fids_??_Estringdispid@CComTypeInfoHolder@ATL@@QAEPAXI@Z 10000000     mfcs140:nolib.obj
 0002:fffc7000       __guard_fids_??__E_AtlComModule@ATL@@YAXXZ 10000000     mfcs140:nolib.obj
 0002:fffc7000       __guard_fids_??__E_AtlWinModule@ATL@@YAXXZ 10000000     mfcs140:nolib.obj
 0002:fffc7000       __guard_fids_?GetInstance@CAtlStringMgr@ATL@@SAPAUIAtlStringMgr@2@XZ 10000000     mfcs140:nolib.obj
 0002:fffc7000       __guard_fids__             10000000     mfcs140:nolib.obj
 0002:fffc7000       __guard_fids__             10000000     mfcs140:nolib.obj
 0002:fffc7000       __guard_fids__             10000000     mfcs140:nolib.obj
 0002:fffc7000       __guard_fids__             10000000     mfcs140:nolib.obj
 0002:fffc7000       __guard_fids__             10000000     mfcs140:nolib.obj
 0002:fffc7000       __guard_fids__             10000000     mfcs140:nolib.obj
 0002:fffc7000       __guard_fids__             10000000     mfcs140:nolib.obj
 0002:fffc7000       __guard_fids__             10000000     mfcs140:nolib.obj
 0002:fffc7000       __guard_fids__             10000000     mfcs140:nolib.obj
 0002:fffc7000       ??isInitialized$initializer$@CAtlStringMgr@ATL@@0P6AXXZA@@3P6AXXZA 10000000     mfcs140:stdafx.obj
 0002:fffc7000       ?InitializeCAtlStringMgr$initializer$@ATLImplementationDetails@ATL@@3P6AXXZA 10000000     mfcs140:stdafx.obj
 0002:fffc7000       ?_AtlComModule$initializer$@ATL@@3P6AXXZA 10000000     mfcs140:stdafx.obj
 0002:fffc7000       ?_AtlWinModule$initializer$@ATL@@3P6AXXZA 10000000     mfcs140:stdafx.obj
 0002:fffc7000       __ehfuncinfo$??1CAtlComModule@ATL@@QAE@XZ 10000000     mfcs140:stdafx.obj
 0002:fffc7000       __ehfuncinfo$??_Estringdispid@CComTypeInfoHolder@ATL@@QAEPAXI@Z 10000000     mfcs140:stdafx.obj
 0001:fffff000       __ehhandler$??1CAtlComModule@ATL@@QAE@XZ 10000000 f   mfcs140:stdafx.obj
 0001:fffff000       __ehhandler$??_Estringdispid@CComTypeInfoHolder@ATL@@QAEPAXI@Z 10000000 f   mfcs140:stdafx.obj
 0002:fffc7000       __guard_fids_??_Estringdispid@CComTypeInfoHolder@ATL@@QAEPAXI@Z 10000000     mfcs140:stdafx.obj
 0002:fffc7000       __guard_fids_??__E_AtlComModule@ATL@@YAXXZ 10000000     mfcs140:stdafx.obj
 0002:fffc7000       __guard_fids_??__E_AtlWinModule@ATL@@YAXXZ 10000000     mfcs140:stdafx.obj
 0002:fffc7000       __guard_fids_?GetInstance@CAtlStringMgr@ATL@@SAPAUIAtlStringMgr@2@XZ 10000000     mfcs140:stdafx.obj
 0002:fffc7000       __guard_fids__             10000000     mfcs140:stdafx.obj
 0002:fffc7000       __guard_fids__             10000000     mfcs140:stdafx.obj
 0002:fffc7000       __guard_fids__             10000000     mfcs140:stdafx.obj
 0002:fffc7000       __guard_fids__             10000000     mfcs140:stdafx.obj
 0002:fffc7000       __guard_fids__             10000000     mfcs140:stdafx.obj
 0002:fffc7000       __guard_fids__             10000000     mfcs140:stdafx.obj
 0002:fffc7000       __guard_fids__             10000000     mfcs140:stdafx.obj
 0002:fffc7000       __guard_fids__             10000000     mfcs140:stdafx.obj
 0002:fffc7000       __guard_fids__             10000000     mfcs140:stdafx.obj
 0002:fffc7000       __sehtable$_IsolationAwareUnregisterClassA@8 10000000     mfcs140:stdafx.obj
 0002:fffc7000       __sehtable$_WinbaseIsolationAwarePrivatetRgzlnPgpgk@0 10000000     mfcs140:stdafx.obj
 0002:fffc7000       __guard_fids___except_handler4 10000000     msvcrt:chandler4gs.obj
 0002:fffc7000       __guard_fids_?dllmain_dispatch@@YAHQAUHINSTANCE__@@KQAX@Z 10000000     msvcrt:dll_dllmain.obj
 0002:fffc7000       __guard_fids__             10000000     msvcrt:guard_support.obj
 0002:fffc7000       __guard_fids__             10000000     msvcrt:guard_support.obj
 0002:fffc7000       __guard_fids___guard_icall_checks_enforced 10000000     msvcrt:guard_support.obj
 0002:fffc7000       __guard_fids__             10000000     msvcrt:std_type_info_static.obj
 0002:fffc7000       __guard_fids_?__scrt_initialize_thread_safe_statics@@YAHXZ 10000000     msvcrt:thread_safe_statics.obj
 0002:fffc7000       __guard_fids__             10000000     msvcrt:thread_safe_statics.obj
 0002:fffc7000       __guard_fids____scrt_set_unhandled_exception_filter 10000000     msvcrt:utility_desktop.obj
 0000:fffa7000       .debug$S                   10000000     vcruntime:VCRUNTIME140.dll
 0000:fffa7000       .debug$S                   10000000     vcruntime:VCRUNTIME140.dll
 0000:fffa7000       .debug$S                   10000000     vcruntime:VCRUNTIME140.dll
 0000:fffa7000       .debug$S                   10000000     vcruntime:VCRUNTIME140.dll
 0000:fffa7000       .debug$S                   10000000     vcruntime:VCRUNTIME140.dll
 0000:fffa7000       .debug$S                   10000000     vcruntime:VCRUNTIME140.dll
 0000:fffa7000       .debug$S                   10000000     vcruntime:VCRUNTIME140.dll
 0000:fffa7000       .debug$S                   10000000     vcruntime:VCRUNTIME140.dll
 0000:fffa7000       .debug$S                   10000000     vcruntime:VCRUNTIME140.dll
 0000:fffa7000       .debug$S                   10000000     vcruntime:VCRUNTIME140.dll
 0000:fffa7000       .debug$S                   10000000     vcruntime:VCRUNTIME140.dll
 0000:fffa7000       .debug$S                   10000000     ucrt:api-ms-win-crt-convert-l1-1-0.dll
 0000:fffa7000       .debug$S                   10000000     ucrt:api-ms-win-crt-convert-l1-1-0.dll
 0000:fffa7000       .debug$S                   10000000     ucrt:api-ms-win-crt-convert-l1-1-0.dll
 0000:fffa7000       .debug$S                   10000000     ucrt:api-ms-win-crt-convert-l1-1-0.dll
 0000:fffa7000       .debug$S                   10000000     ucrt:api-ms-win-crt-heap-l1-1-0.dll
 0000:fffa7000       .debug$S                   10000000     ucrt:api-ms-win-crt-heap-l1-1-0.dll
 0000:fffa7000       .debug$S                   10000000     ucrt:api-ms-win-crt-math-l1-1-0.dll
 0000:fffa7000       .debug$S                   10000000     ucrt:api-ms-win-crt-math-l1-1-0.dll
 0000:fffa7000       .debug$S                   10000000     ucrt:api-ms-win-crt-multibyte-l1-1-0.dll
 0000:fffa7000       .debug$S                   10000000     ucrt:api-ms-win-crt-multibyte-l1-1-0.dll
 0000:fffa7000       .debug$S                   10000000     ucrt:api-ms-win-crt-runtime-l1-1-0.dll
 0000:fffa7000       .debug$S                   10000000     ucrt:api-ms-win-crt-runtime-l1-1-0.dll
 0000:fffa7000       .debug$S                   10000000     ucrt:api-ms-win-crt-runtime-l1-1-0.dll
 0000:fffa7000       .debug$S                   10000000     ucrt:api-ms-win-crt-runtime-l1-1-0.dll
 0000:fffa7000       .debug$S                   10000000     ucrt:api-ms-win-crt-runtime-l1-1-0.dll
 0000:fffa7000       .debug$S                   10000000     ucrt:api-ms-win-crt-runtime-l1-1-0.dll
 0000:fffa7000       .debug$S                   10000000     ucrt:api-ms-win-crt-runtime-l1-1-0.dll
 0000:fffa7000       .debug$S                   10000000     ucrt:api-ms-win-crt-runtime-l1-1-0.dll
 0000:fffa7000       .debug$S                   10000000     ucrt:api-ms-win-crt-runtime-l1-1-0.dll
 0000:fffa7000       .debug$S                   10000000     ucrt:api-ms-win-crt-runtime-l1-1-0.dll
 0000:fffa7000       .debug$S                   10000000     ucrt:api-ms-win-crt-runtime-l1-1-0.dll
 0000:fffa7000       .debug$S                   10000000     ucrt:api-ms-win-crt-runtime-l1-1-0.dll
 0000:fffa7000       .debug$S                   10000000     ucrt:api-ms-win-crt-runtime-l1-1-0.dll
 0000:fffa7000       .debug$S                   10000000     ucrt:api-ms-win-crt-runtime-l1-1-0.dll
 0000:fffa7000       .debug$S                   10000000     ucrt:api-ms-win-crt-stdio-l1-1-0.dll
 0000:fffa7000       .debug$S                   10000000     ucrt:api-ms-win-crt-stdio-l1-1-0.dll
 0000:fffa7000       .debug$S                   10000000     ucrt:api-ms-win-crt-stdio-l1-1-0.dll
 0000:fffa7000       .debug$S                   10000000     ucrt:api-ms-win-crt-stdio-l1-1-0.dll
 0000:fffa7000       .debug$S                   10000000     ucrt:api-ms-win-crt-stdio-l1-1-0.dll
 0000:fffa7000       .debug$S                   10000000     ucrt:api-ms-win-crt-time-l1-1-0.dll
 0000:fffa7000       .debug$S                   10000000     ucrt:api-ms-win-crt-time-l1-1-0.dll
 0000:fffa7000       .debug$S                   10000000     ucrt:api-ms-win-crt-time-l1-1-0.dll
 0000:fffa7000       .debug$S                   10000000     ucrt:api-ms-win-crt-utility-l1-1-0.dll
 0000:fffa7000       .debug$S                   10000000     advapi32:ADVAPI32.dll
 0000:fffa7000       .debug$S                   10000000     advapi32:ADVAPI32.dll
 0000:fffa7000       .debug$S                   10000000     advapi32:ADVAPI32.dll
 0000:fffa7000       .debug$S                   10000000     advapi32:ADVAPI32.dll
 0000:fffa7000       .debug$S                   10000000     comctl32:COMCTL32.dll
 0000:fffa7000       .debug$S                   10000000     comctl32:COMCTL32.dll
 0000:fffa7000       .debug$S                   10000000     comctl32:COMCTL32.dll
 0000:fffa7000       .debug$S                   10000000     comctl32:COMCTL32.dll
 0000:fffa7000       .debug$S                   10000000     comctl32:COMCTL32.dll
 0000:fffa7000       .debug$S                   10000000     gdi32:GDI32.dll
 0000:fffa7000       .debug$S                   10000000     gdi32:GDI32.dll
 0000:fffa7000       .debug$S                   10000000     gdi32:GDI32.dll
 0000:fffa7000       .debug$S                   10000000     gdi32:GDI32.dll
 0000:fffa7000       .debug$S                   10000000     gdi32:GDI32.dll
 0000:fffa7000       .debug$S                   10000000     gdi32:GDI32.dll
 0000:fffa7000       .debug$S                   10000000     gdi32:GDI32.dll
 0000:fffa7000       .debug$S                   10000000     gdi32:GDI32.dll
 0000:fffa7000       .debug$S                   10000000     gdi32:GDI32.dll
 0000:fffa7000       .debug$S                   10000000     gdi32:GDI32.dll
 0000:fffa7000       .debug$S                   10000000     gdi32:GDI32.dll
 0000:fffa7000       .debug$S                   10000000     gdi32:GDI32.dll
 0000:fffa7000       .debug$S                   10000000     gdi32:GDI32.dll
 0000:fffa7000       .debug$S                   10000000     gdi32:GDI32.dll
 0000:fffa7000       .debug$S                   10000000     gdi32:GDI32.dll
 0000:fffa7000       .debug$S                   10000000     gdi32:GDI32.dll
 0000:fffa7000       .debug$S                   10000000     gdi32:GDI32.dll
 0000:fffa7000       .debug$S                   10000000     gdi32:GDI32.dll
 0000:fffa7000       .debug$S                   10000000     gdi32:GDI32.dll
 0000:fffa7000       .debug$S                   10000000     gdi32:GDI32.dll
 0000:fffa7000       .debug$S                   10000000     gdi32:GDI32.dll
 0000:fffa7000       .debug$S                   10000000     gdi32:GDI32.dll
 0000:fffa7000       .debug$S                   10000000     gdi32:GDI32.dll
 0000:fffa7000       .debug$S                   10000000     gdi32:GDI32.dll
 0000:fffa7000       .debug$S                   10000000     gdi32:GDI32.dll
 0000:fffa7000       .debug$S                   10000000     gdi32:GDI32.dll
 0000:fffa7000       .debug$S                   10000000     gdi32:GDI32.dll
 0000:fffa7000       .debug$S                   10000000     gdi32:GDI32.dll
 0000:fffa7000       .debug$S                   10000000     kernel32:KERNEL32.dll
 0000:fffa7000       .debug$S                   10000000     kernel32:KERNEL32.dll
 0000:fffa7000       .debug$S                   10000000     kernel32:KERNEL32.dll
 0000:fffa7000       .debug$S                   10000000     kernel32:KERNEL32.dll
 0000:fffa7000       .debug$S                   10000000     kernel32:KERNEL32.dll
 0000:fffa7000       .debug$S                   10000000     kernel32:KERNEL32.dll
 0000:fffa7000       .debug$S                   10000000     kernel32:KERNEL32.dll
 0000:fffa7000       .debug$S                   10000000     kernel32:KERNEL32.dll
 0000:fffa7000       .debug$S                   10000000     kernel32:KERNEL32.dll
 0000:fffa7000       .debug$S                   10000000     kernel32:KERNEL32.dll
 0000:fffa7000       .debug$S                   10000000     kernel32:KERNEL32.dll
 0000:fffa7000       .debug$S                   10000000     kernel32:KERNEL32.dll
 0000:fffa7000       .debug$S                   10000000     kernel32:KERNEL32.dll
 0000:fffa7000       .debug$S                   10000000     kernel32:KERNEL32.dll
 0000:fffa7000       .debug$S                   10000000     kernel32:KERNEL32.dll
 0000:fffa7000       .debug$S                   10000000     kernel32:KERNEL32.dll
 0000:fffa7000       .debug$S                   10000000     kernel32:KERNEL32.dll
 0000:fffa7000       .debug$S                   10000000     kernel32:KERNEL32.dll
 0000:fffa7000       .debug$S                   10000000     kernel32:KERNEL32.dll
 0000:fffa7000       .debug$S                   10000000     kernel32:KERNEL32.dll
 0000:fffa7000       .debug$S                   10000000     kernel32:KERNEL32.dll
 0000:fffa7000       .debug$S                   10000000     kernel32:KERNEL32.dll
 0000:fffa7000       .debug$S                   10000000     kernel32:KERNEL32.dll
 0000:fffa7000       .debug$S                   10000000     kernel32:KERNEL32.dll
 0000:fffa7000       .debug$S                   10000000     kernel32:KERNEL32.dll
 0000:fffa7000       .debug$S                   10000000     kernel32:KERNEL32.dll
 0000:fffa7000       .debug$S                   10000000     kernel32:KERNEL32.dll
 0000:fffa7000       .debug$S                   10000000     kernel32:KERNEL32.dll
 0000:fffa7000       .debug$S                   10000000     kernel32:KERNEL32.dll
 0000:fffa7000       .debug$S                   10000000     kernel32:KERNEL32.dll
 0000:fffa7000       .debug$S                   10000000     kernel32:KERNEL32.dll
 0000:fffa7000       .debug$S                   10000000     kernel32:KERNEL32.dll
 0000:fffa7000       .debug$S                   10000000     kernel32:KERNEL32.dll
 0000:fffa7000       .debug$S                   10000000     kernel32:KERNEL32.dll
 0000:fffa7000       .debug$S                   10000000     kernel32:KERNEL32.dll
 0000:fffa7000       .debug$S                   10000000     kernel32:KERNEL32.dll
 0000:fffa7000       .debug$S                   10000000     kernel32:KERNEL32.dll
 0000:fffa7000       .debug$S                   10000000     kernel32:KERNEL32.dll
 0000:fffa7000       .debug$S                   10000000     kernel32:KERNEL32.dll
 0000:fffa7000       .debug$S                   10000000     kernel32:KERNEL32.dll
 0000:fffa7000       .debug$S                   10000000     kernel32:KERNEL32.dll
 0000:fffa7000       .debug$S                   10000000     kernel32:KERNEL32.dll
 0000:fffa7000       .debug$S                   10000000     kernel32:KERNEL32.dll
 0000:fffa7000       .debug$S                   10000000     kernel32:KERNEL32.dll
 0000:fffa7000       .debug$S                   10000000     kernel32:KERNEL32.dll
 0000:fffa7000       .debug$S                   10000000     kernel32:KERNEL32.dll
 0000:fffa7000       .debug$S                   10000000     kernel32:KERNEL32.dll
 0000:fffa7000       .debug$S                   10000000     kernel32:KERNEL32.dll
 0000:fffa7000       .debug$S                   10000000     kernel32:KERNEL32.dll
 0000:fffa7000       .debug$S                   10000000     kernel32:KERNEL32.dll
 0000:fffa7000       .debug$S                   10000000     kernel32:KERNEL32.dll
 0000:fffa7000       .debug$S                   10000000     kernel32:KERNEL32.dll
 0000:fffa7000       .debug$S                   10000000     kernel32:KERNEL32.dll
 0000:fffa7000       .debug$S                   10000000     kernel32:KERNEL32.dll
 0000:fffa7000       .debug$S                   10000000     kernel32:KERNEL32.dll
 0000:fffa7000       .debug$S                   10000000     kernel32:KERNEL32.dll
 0000:fffa7000       .debug$S                   10000000     kernel32:KERNEL32.dll
 0000:fffa7000       .debug$S                   10000000     kernel32:KERNEL32.dll
 0000:fffa7000       .debug$S                   10000000     kernel32:KERNEL32.dll
 0000:fffa7000       .debug$S                   10000000     kernel32:KERNEL32.dll
 0000:fffa7000       .debug$S                   10000000     kernel32:KERNEL32.dll
 0000:fffa7000       .debug$S                   10000000     ole32:ole32.dll
 0000:fffa7000       .debug$S                   10000000     ole32:ole32.dll
 0000:fffa7000       .debug$S                   10000000     ole32:ole32.dll
 0000:fffa7000       .debug$S                   10000000     oleaut32:OLEAUT32.dll
 0000:fffa7000       .debug$S                   10000000     oleaut32:OLEAUT32.dll
 0000:fffa7000       .debug$S                   10000000     oleaut32:OLEAUT32.dll
 0000:fffa7000       .debug$S                   10000000     oleaut32:OLEAUT32.dll
 0000:fffa7000       .debug$S                   10000000     oleaut32:OLEAUT32.dll
 0000:fffa7000       .debug$S                   10000000     user32:USER32.dll
 0000:fffa7000       .debug$S                   10000000     user32:USER32.dll
 0000:fffa7000       .debug$S                   10000000     user32:USER32.dll
 0000:fffa7000       .debug$S                   10000000     user32:USER32.dll
 0000:fffa7000       .debug$S                   10000000     user32:USER32.dll
 0000:fffa7000       .debug$S                   10000000     user32:USER32.dll
 0000:fffa7000       .debug$S                   10000000     user32:USER32.dll
 0000:fffa7000       .debug$S                   10000000     user32:USER32.dll
 0000:fffa7000       .debug$S                   10000000     user32:USER32.dll
 0000:fffa7000       .debug$S                   10000000     user32:USER32.dll
 0000:fffa7000       .debug$S                   10000000     user32:USER32.dll
 0000:fffa7000       .debug$S                   10000000     user32:USER32.dll
 0000:fffa7000       .debug$S                   10000000     user32:USER32.dll
 0000:fffa7000       .debug$S                   10000000     user32:USER32.dll
 0000:fffa7000       .debug$S                   10000000     user32:USER32.dll
 0000:fffa7000       .debug$S                   10000000     user32:USER32.dll
 0000:fffa7000       .debug$S                   10000000     user32:USER32.dll
 0000:fffa7000       .debug$S                   10000000     user32:USER32.dll
 0000:fffa7000       .debug$S                   10000000     user32:USER32.dll
 0000:fffa7000       .debug$S                   10000000     user32:USER32.dll
 0000:fffa7000       .debug$S                   10000000     user32:USER32.dll
 0000:fffa7000       .debug$S                   10000000     user32:USER32.dll
 0000:fffa7000       .debug$S                   10000000     user32:USER32.dll
 0000:fffa7000       .debug$S                   10000000     user32:USER32.dll
 0000:fffa7000       .debug$S                   10000000     user32:USER32.dll
 0000:fffa7000       .debug$S                   10000000     user32:USER32.dll
 0000:fffa7000       .debug$S                   10000000     user32:USER32.dll
 0000:fffa7000       .debug$S                   10000000     user32:USER32.dll
 0000:fffa7000       .debug$S                   10000000     user32:USER32.dll
 0000:fffa7000       .debug$S                   10000000     user32:USER32.dll
 0000:fffa7000       .debug$S                   10000000     user32:USER32.dll
 0000:fffa7000       .debug$S                   10000000     user32:USER32.dll
 0000:fffa7000       .debug$S                   10000000     user32:USER32.dll
 0000:fffa7000       .debug$S                   10000000     user32:USER32.dll
 0000:fffa7000       .debug$S                   10000000     user32:USER32.dll
 0000:fffa7000       .debug$S                   10000000     user32:USER32.dll
 0000:fffa7000       .debug$S                   10000000     user32:USER32.dll
 0000:fffa7000       .debug$S                   10000000     user32:USER32.dll
 0000:fffa7000       .debug$S                   10000000     user32:USER32.dll
 0000:fffa7000       .debug$S                   10000000     user32:USER32.dll
 0000:fffa7000       .debug$S                   10000000     user32:USER32.dll
 0000:fffa7000       .debug$S                   10000000     user32:USER32.dll
 0000:fffa7000       .debug$S                   10000000     user32:USER32.dll
 0000:fffa7000       .debug$S                   10000000     user32:USER32.dll
 0000:fffa7000       .debug$S                   10000000     user32:USER32.dll
 0000:fffa7000       .debug$S                   10000000     user32:USER32.dll
 0000:fffa7000       .debug$S                   10000000     user32:USER32.dll
 0000:fffa7000       .debug$S                   10000000     user32:USER32.dll
 0000:fffa7000       .debug$S                   10000000     user32:USER32.dll
 0000:fffa7000       .debug$S                   10000000     user32:USER32.dll
 0000:fffa7000       .debug$S                   10000000     user32:USER32.dll
 0000:fffa7000       .debug$S                   10000000     user32:USER32.dll
 0000:fffa7000       .debug$S                   10000000     user32:USER32.dll
 0000:fffa7000       .debug$S                   10000000     user32:USER32.dll
 0000:fffa7000       .debug$S                   10000000     user32:USER32.dll
 0000:fffa7000       .debug$S                   10000000     user32:USER32.dll
 0000:fffa7000       .debug$S                   10000000     user32:USER32.dll
 0000:fffa7000       .debug$S                   10000000     user32:USER32.dll
 0000:fffa7000       .debug$S                   10000000     user32:USER32.dll
 0002:fffc7008       __ehfuncinfo$??1CSeries@@QAE@XZ 10000008     TabSonikChart.obj
 0002:fffc7010       __tryblocktable$??1CGdiObject@@UAE@XZ 10000010     DlgAnalysis.obj
 0002:fffc7010       __tryblocktable$??1CGdiObject@@UAE@XZ 10000010     DlgWait.obj
 0002:fffc7010       __tryblocktable$??1CGdiObject@@UAE@XZ 10000010     GridCell.obj
 0002:fffc7010       __tryblocktable$??1CGdiObject@@UAE@XZ 10000010     GridCellBase.obj
 0002:fffc7010       __tryblocktable$??1CGdiObject@@UAE@XZ 10000010     GridCtrl.obj
 0002:fffc7010       __tryblocktable$??1CGdiObject@@UAE@XZ 10000010     InfoRight.obj
 0002:fffc7010       __tryblocktable$??1CGdiObject@@UAE@XZ 10000010     TabEarnChart.obj
 0002:fffc7010       __tryblocktable$??1CGdiObject@@UAE@XZ 10000010     TabResult.obj
 0002:fffc7010       __tryblocktable$??1CGdiObject@@UAE@XZ 10000010     TabSonikChart.obj
 0002:fffc7010       __tryblocktable$??1CGdiObject@@UAE@XZ 10000010     TitleTip.obj
 0002:fffc7010       __tryblocktable$??1CGdiObject@@UAE@XZ 10000010     XListCtrl.obj
 0002:fffc7010       __tryblocktable$??1CGdiObject@@UAE@XZ 10000010     XTabCtrl.obj
 0002:fffc7010       __tryblocktable$??1CGdiObject@@UAE@XZ 10000010     ExControl:ExResize.obj
 0001:fffff011       __ehhandler$??1CGdiObject@@UAE@XZ 10000011 f   DlgAnalysis.obj
 0001:fffff011       __ehhandler$??1CGdiObject@@UAE@XZ 10000011 f   DlgWait.obj
 0001:fffff011       __ehhandler$??1CGdiObject@@UAE@XZ 10000011 f   GridCell.obj
 0001:fffff011       __ehhandler$??1CGdiObject@@UAE@XZ 10000011 f   GridCellBase.obj
 0001:fffff011       __ehhandler$??1CGdiObject@@UAE@XZ 10000011 f   GridCtrl.obj
 0001:fffff011       __ehhandler$??1CGdiObject@@UAE@XZ 10000011 f   InfoRight.obj
 0001:fffff011       __ehhandler$??1CGdiObject@@UAE@XZ 10000011 f   TabEarnChart.obj
 0001:fffff011       __ehhandler$??1CGdiObject@@UAE@XZ 10000011 f   TabResult.obj
 0001:fffff011       __ehhandler$??1CGdiObject@@UAE@XZ 10000011 f   TabSonikChart.obj
 0001:fffff011       __ehhandler$??1CGdiObject@@UAE@XZ 10000011 f   TitleTip.obj
 0001:fffff011       __ehhandler$??1CGdiObject@@UAE@XZ 10000011 f   XListCtrl.obj
 0001:fffff011       __ehhandler$??1CGdiObject@@UAE@XZ 10000011 f   XTabCtrl.obj
 0001:fffff011       __ehhandler$??1CGdiObject@@UAE@XZ 10000011 f   ExControl:ExResize.obj
 0002:fffc7024       __unwindtable$??1CGdiObject@@UAE@XZ 10000024     DlgAnalysis.obj
 0002:fffc7024       __unwindtable$??1CGdiObject@@UAE@XZ 10000024     DlgWait.obj
 0002:fffc7024       __unwindtable$??1CGdiObject@@UAE@XZ 10000024     GridCell.obj
 0002:fffc7024       __unwindtable$??1CGdiObject@@UAE@XZ 10000024     GridCellBase.obj
 0002:fffc7024       __unwindtable$??1CGdiObject@@UAE@XZ 10000024     GridCtrl.obj
 0002:fffc7024       __unwindtable$??1CGdiObject@@UAE@XZ 10000024     InfoRight.obj
 0002:fffc7024       __unwindtable$??1CGdiObject@@UAE@XZ 10000024     TabEarnChart.obj
 0002:fffc7024       __unwindtable$??1CGdiObject@@UAE@XZ 10000024     TabResult.obj
 0002:fffc7024       __unwindtable$??1CGdiObject@@UAE@XZ 10000024     TabSonikChart.obj
 0002:fffc7024       __unwindtable$??1CGdiObject@@UAE@XZ 10000024     TitleTip.obj
 0002:fffc7024       __unwindtable$??1CGdiObject@@UAE@XZ 10000024     XListCtrl.obj
 0002:fffc7024       __unwindtable$??1CGdiObject@@UAE@XZ 10000024     XTabCtrl.obj
 0002:fffc7024       __unwindtable$??1CGdiObject@@UAE@XZ 10000024     ExControl:ExResize.obj
 0001:fffff028       $LN12                      10000028     DlgAnalysis.obj
 0001:fffff028       $LN12                      10000028     InfoRight.obj
 0001:fffff028       $LN12                      10000028     TabTrade.obj
 0001:fffff028       $LN12                      10000028     ExControl:ExResize.obj
 0001:fffff028       $LN12                      10000028     ExControl:StdAfx.obj
 0001:fffff038       $LN11                      10000038     DlgAnalysis.obj
 0001:fffff038       $LN11                      10000038     InfoRight.obj
 0001:fffff038       $LN11                      10000038     TabTrade.obj
 0001:fffff038       $LN11                      10000038     ExControl:ExResize.obj
 0001:fffff038       $LN11                      10000038     ExControl:StdAfx.obj
 0002:fffc703c       __ehfuncinfo$??1CGdiObject@@UAE@XZ 1000003c     DlgAnalysis.obj
 0002:fffc703c       __ehfuncinfo$??1CGdiObject@@UAE@XZ 1000003c     DlgWait.obj
 0002:fffc703c       __ehfuncinfo$??1CGdiObject@@UAE@XZ 1000003c     GridCell.obj
 0002:fffc703c       __ehfuncinfo$??1CGdiObject@@UAE@XZ 1000003c     GridCellBase.obj
 0002:fffc703c       __ehfuncinfo$??1CGdiObject@@UAE@XZ 1000003c     GridCtrl.obj
 0002:fffc703c       __ehfuncinfo$??1CGdiObject@@UAE@XZ 1000003c     InfoRight.obj
 0002:fffc703c       __ehfuncinfo$??1CGdiObject@@UAE@XZ 1000003c     TabEarnChart.obj
 0002:fffc703c       __ehfuncinfo$??1CGdiObject@@UAE@XZ 1000003c     TabResult.obj
 0002:fffc703c       __ehfuncinfo$??1CGdiObject@@UAE@XZ 1000003c     TabSonikChart.obj
 0002:fffc703c       __ehfuncinfo$??1CGdiObject@@UAE@XZ 1000003c     TitleTip.obj
 0002:fffc703c       __ehfuncinfo$??1CGdiObject@@UAE@XZ 1000003c     XListCtrl.obj
 0002:fffc703c       __ehfuncinfo$??1CGdiObject@@UAE@XZ 1000003c     XTabCtrl.obj
 0002:fffc703c       __ehfuncinfo$??1CGdiObject@@UAE@XZ 1000003c     ExControl:ExResize.obj
 0001:fffff05f       __catch$??1CGdiObject@@UAE@XZ$0 1000005f f   DlgAnalysis.obj
 0001:fffff05f       __catch$??1CGdiObject@@UAE@XZ$0 1000005f f   DlgWait.obj
 0001:fffff05f       __catch$??1CGdiObject@@UAE@XZ$0 1000005f f   GridCell.obj
 0001:fffff05f       __catch$??1CGdiObject@@UAE@XZ$0 1000005f f   GridCellBase.obj
 0001:fffff05f       __catch$??1CGdiObject@@UAE@XZ$0 1000005f f   GridCtrl.obj
 0001:fffff05f       __catch$??1CGdiObject@@UAE@XZ$0 1000005f f   InfoRight.obj
 0001:fffff05f       __catch$??1CGdiObject@@UAE@XZ$0 1000005f f   TabEarnChart.obj
 0001:fffff05f       __catch$??1CGdiObject@@UAE@XZ$0 1000005f f   TabResult.obj
 0001:fffff05f       __catch$??1CGdiObject@@UAE@XZ$0 1000005f f   TabSonikChart.obj
 0001:fffff05f       __catch$??1CGdiObject@@UAE@XZ$0 1000005f f   TitleTip.obj
 0001:fffff05f       __catch$??1CGdiObject@@UAE@XZ$0 1000005f f   XListCtrl.obj
 0001:fffff05f       __catch$??1CGdiObject@@UAE@XZ$0 1000005f f   XTabCtrl.obj
 0001:fffff05f       __catch$??1CGdiObject@@UAE@XZ$0 1000005f f   ExControl:ExResize.obj
 0001:00000000       ??__E?m_strChartOcxFolder@CStrategyLoader@@1V?$CStringT@DV?$StrTraitMFC_DLL@DV?$ChTraitsCRT@D@ATL@@@@@ATL@@A@@YAXXZ 10001000 f   StrategyLoader.obj
 0001:00000020       ??__ERMSG_GETPCTRDATA@@YAXXZ 10001020 f   StrategyLoader.obj
 0001:00000040       ??__ERMSG_INTERFACE@@YAXXZ 10001040 f   StrategyLoader.obj
 0001:00000060       ??__ERMSG_SETPCTRDATA@@YAXXZ 10001060 f   StrategyLoader.obj
 0001:00000080       ??__EWM_DATETIME_VK_ESCAPE@@YAXXZ 10001080 f   XDateTime.obj
 0001:000000a0       ??__EWM_DATETIME_VK_RETURN@@YAXXZ 100010a0 f   XDateTime.obj
 0001:000000c0       ??__EWM_XEDIT_VK_ESCAPE@@YAXXZ 100010c0 f   XEdit.obj
 0001:000000e0       ??__EWM_XEDIT_VK_RETURN@@YAXXZ 100010e0 f   XEdit.obj
 0001:00000100       ??__EWM_XLISTCTRL_CHECKBOX_CLICKED@@YAXXZ 10001100 f   XListCtrl.obj
 0001:00000120       ??__EWM_XLISTCTRL_COMBO_SELECTION@@YAXXZ 10001120 f   XListCtrl.obj
 0001:00000140       ??__EWM_XLISTCTRL_EDIT_RETURN@@YAXXZ 10001140 f   XListCtrl.obj
 0001:00000160       ??__ERMSG_ADD_PLATFORM_MENU@@YAXXZ 10001160 f   DlgAnalysis.obj
 0001:00000180       ??__ERMSG_CHANGEVERTSCALETYPE@@YAXXZ 10001180 f   DlgAnalysis.obj
 0001:000001a0       ??__ERMSG_CHANGE_CROSSLINE@@YAXXZ 100011a0 f   DlgAnalysis.obj
 0001:000001c0       ??__ERMSG_CHANGE_SKINCOLOR@@YAXXZ 100011c0 f   DlgAnalysis.obj
 0001:000001e0       ??__ERMSG_CHARTMAIN@@YAXXZ 100011e0 f   DlgAnalysis.obj
 0001:00000200       ??__ERMSG_GETDLLSIZE@@YAXXZ 10001200 f   DlgAnalysis.obj
 0001:00000220       ??__ERMSG_GETINFO@@YAXXZ   10001220 f   DlgAnalysis.obj
 0001:00000240       ??__ERMSG_GETPCTRDATA@@YAXXZ 10001240 f   DlgAnalysis.obj
 0001:00000260       ??__ERMSG_GETSIGNAL_REAL@@YAXXZ 10001260 f   DlgAnalysis.obj
 0001:00000280       ??__ERMSG_GET_SKINCOLOR@@YAXXZ 10001280 f   DlgAnalysis.obj
 0001:000002a0       ??__ERMSG_GET_USERID@@YAXXZ 100012a0 f   DlgAnalysis.obj
 0001:000002c0       ??__ERMSG_INTERFACE@@YAXXZ 100012c0 f   DlgAnalysis.obj
 0001:000002e0       ??__ERMSG_SETDLLSIZE@@YAXXZ 100012e0 f   DlgAnalysis.obj
 0001:00000300       ??__ERMSG_SETINFO@@YAXXZ   10001300 f   DlgAnalysis.obj
 0001:00000320       ??__ERMSG_SETINITIALCHARTDATA@@YAXXZ 10001320 f   DlgAnalysis.obj
 0001:00000340       ??__ERMSG_SETPCTRDATA@@YAXXZ 10001340 f   DlgAnalysis.obj
 0001:00000360       ??__ERMSG_SETQUERYOPT@@YAXXZ 10001360 f   DlgAnalysis.obj
 0001:00000380       ??__ERMSG_STDATAMANAGER_RESULTDATA@@YAXXZ 10001380 f   DlgAnalysis.obj
 0001:000003a0       ??__ERMS_ANALYSIS_FUNC@@YAXXZ 100013a0 f   DlgAnalysis.obj
 0001:000003c0       ??__ERMSG_ADD_PLATFORM_MENU@@YAXXZ 100013c0 f   HWStrategyAnalysis.obj
 0001:000003e0       ??__ERMSG_CHANGEVERTSCALETYPE@@YAXXZ 100013e0 f   HWStrategyAnalysis.obj
 0001:00000400       ??__ERMSG_CHANGE_CROSSLINE@@YAXXZ 10001400 f   HWStrategyAnalysis.obj
 0001:00000420       ??__ERMSG_CHANGE_SKINCOLOR@@YAXXZ 10001420 f   HWStrategyAnalysis.obj
 0001:00000440       ??__ERMSG_CHARTMAIN@@YAXXZ 10001440 f   HWStrategyAnalysis.obj
 0001:00000460       ??__ERMSG_GETINFO@@YAXXZ   10001460 f   HWStrategyAnalysis.obj
 0001:00000480       ??__ERMSG_GETPCTRDATA@@YAXXZ 10001480 f   HWStrategyAnalysis.obj
 0001:000004a0       ??__ERMSG_GETSIGNAL_REAL@@YAXXZ 100014a0 f   HWStrategyAnalysis.obj
 0001:000004c0       ??__ERMSG_GET_SKINCOLOR@@YAXXZ 100014c0 f   HWStrategyAnalysis.obj
 0001:000004e0       ??__ERMSG_GET_USERID@@YAXXZ 100014e0 f   HWStrategyAnalysis.obj
 0001:00000500       ??__ERMSG_INTERFACE@@YAXXZ 10001500 f   HWStrategyAnalysis.obj
 0001:00000520       ??__ERMSG_SETINFO@@YAXXZ   10001520 f   HWStrategyAnalysis.obj
 0001:00000540       ??__ERMSG_SETINITIALCHARTDATA@@YAXXZ 10001540 f   HWStrategyAnalysis.obj
 0001:00000560       ??__ERMSG_SETPCTRDATA@@YAXXZ 10001560 f   HWStrategyAnalysis.obj
 0001:00000580       ??__ERMSG_SETQUERYOPT@@YAXXZ 10001580 f   HWStrategyAnalysis.obj
 0001:000005a0       ??__ERMS_ANALYSIS_FUNC@@YAXXZ 100015a0 f   HWStrategyAnalysis.obj
 0001:000005c0       ??__ERMSG_ADD_PLATFORM_MENU@@YAXXZ 100015c0 f   InfoRight.obj
 0001:000005e0       ??__ERMSG_CHANGEVERTSCALETYPE@@YAXXZ 100015e0 f   InfoRight.obj
 0001:00000600       ??__ERMSG_CHANGE_CROSSLINE@@YAXXZ 10001600 f   InfoRight.obj
 0001:00000620       ??__ERMSG_CHANGE_SKINCOLOR@@YAXXZ 10001620 f   InfoRight.obj
 0001:00000640       ??__ERMSG_CHARTMAIN@@YAXXZ 10001640 f   InfoRight.obj
 0001:00000660       ??__ERMSG_GETINFO@@YAXXZ   10001660 f   InfoRight.obj
 0001:00000680       ??__ERMSG_GETPCTRDATA@@YAXXZ 10001680 f   InfoRight.obj
 0001:000006a0       ??__ERMSG_GETSIGNAL_REAL@@YAXXZ 100016a0 f   InfoRight.obj
 0001:000006c0       ??__ERMSG_GET_SKINCOLOR@@YAXXZ 100016c0 f   InfoRight.obj
 0001:000006e0       ??__ERMSG_GET_USERID@@YAXXZ 100016e0 f   InfoRight.obj
 0001:00000700       ??__ERMSG_INTERFACE@@YAXXZ 10001700 f   InfoRight.obj
 0001:00000720       ??__ERMSG_SETINFO@@YAXXZ   10001720 f   InfoRight.obj
 0001:00000740       ??__ERMSG_SETINITIALCHARTDATA@@YAXXZ 10001740 f   InfoRight.obj
 0001:00000760       ??__ERMSG_SETPCTRDATA@@YAXXZ 10001760 f   InfoRight.obj
 0001:00000780       ??__ERMSG_SETQUERYOPT@@YAXXZ 10001780 f   InfoRight.obj
 0001:000007a0       ??__ERMS_ANALYSIS_FUNC@@YAXXZ 100017a0 f   InfoRight.obj
 0001:000007c0       ??__E?isInitialized@CAtlStringMgr@ATL@@0_NA@@YAXXZ 100017c0 f   StdAfx.obj
 0001:000007e0       ??__EInitializeCAtlStringMgr@ATLImplementationDetails@ATL@@YAXXZ 100017e0 f   StdAfx.obj
 0001:000008d0       ??__ERMSG_ENDSCROLLPOS@@YAXXZ 100018d0 f   StdAfx.obj
 0001:000008f0       ??__ERMSG_EVENT_ACCTINPUT@@YAXXZ 100018f0 f   StdAfx.obj
 0001:00000910       ??__ERMSG_EVENT_CODEINPUT@@YAXXZ 10001910 f   StdAfx.obj
 0001:00000930       ??__ERMSG_EVENT_SIGNAL@@YAXXZ 10001930 f   StdAfx.obj
 0001:00000950       ??__ERMSG_EVENT_SPININPUT@@YAXXZ 10001950 f   StdAfx.obj
 0001:00000970       ??__ERMSG_FORMINITIALCOMPLETED@@YAXXZ 10001970 f   StdAfx.obj
 0001:00000990       ??__ERMSG_FORMSTATECHANGE@@YAXXZ 10001990 f   StdAfx.obj
 0001:000009b0       ??__ERMSG_LBTNDBLCLICK@@YAXXZ 100019b0 f   StdAfx.obj
 0001:000009d0       ??__ERMSG_LBTNDOWN@@YAXXZ  100019d0 f   StdAfx.obj
 0001:000009f0       ??__ERMSG_LSHAREDCHANGED@@YAXXZ 100019f0 f   StdAfx.obj
 0001:00000a10       ??__ERMSG_TABSTOP@@YAXXZ   10001a10 f   StdAfx.obj
 0001:00000a30       ??__E_AtlComModule@ATL@@YAXXZ 10001a30 f   StdAfx.obj
 0001:00000a90       ??__E_AtlWinModule@ATL@@YAXXZ 10001a90 f   StdAfx.obj
 0001:00000ae0       ??__ERMSG_SELECT_DATAINDEX@@YAXXZ 10001ae0 f   TabAnalChart.obj
 0001:00000b00       ??__ERMSG_UPDATE_DATAINDEX@@YAXXZ 10001b00 f   TabAnalChart.obj
 0001:00000b20       ??__ERMSG_ADD_PLATFORM_MENU@@YAXXZ 10001b20 f   TabResult.obj
 0001:00000b40       ??__ERMSG_CHANGEVERTSCALETYPE@@YAXXZ 10001b40 f   TabResult.obj
 0001:00000b60       ??__ERMSG_CHANGE_CROSSLINE@@YAXXZ 10001b60 f   TabResult.obj
 0001:00000b80       ??__ERMSG_CHANGE_SKINCOLOR@@YAXXZ 10001b80 f   TabResult.obj
 0001:00000ba0       ??__ERMSG_CHARTMAIN@@YAXXZ 10001ba0 f   TabResult.obj
 0001:00000bc0       ??__ERMSG_GETINFO@@YAXXZ   10001bc0 f   TabResult.obj
 0001:00000be0       ??__ERMSG_GETPCTRDATA@@YAXXZ 10001be0 f   TabResult.obj
 0001:00000c00       ??__ERMSG_GETSIGNAL_REAL@@YAXXZ 10001c00 f   TabResult.obj
 0001:00000c20       ??__ERMSG_GET_SKINCOLOR@@YAXXZ 10001c20 f   TabResult.obj
 0001:00000c40       ??__ERMSG_GET_USERID@@YAXXZ 10001c40 f   TabResult.obj
 0001:00000c60       ??__ERMSG_INTERFACE@@YAXXZ 10001c60 f   TabResult.obj
 0001:00000c80       ??__ERMSG_SETINFO@@YAXXZ   10001c80 f   TabResult.obj
 0001:00000ca0       ??__ERMSG_SETINITIALCHARTDATA@@YAXXZ 10001ca0 f   TabResult.obj
 0001:00000cc0       ??__ERMSG_SETPCTRDATA@@YAXXZ 10001cc0 f   TabResult.obj
 0001:00000ce0       ??__ERMSG_SETQUERYOPT@@YAXXZ 10001ce0 f   TabResult.obj
 0001:00000d00       ??__ERMS_ANALYSIS_FUNC@@YAXXZ 10001d00 f   TabResult.obj
 0001:00000d20       ??__ERMSG_ADD_PLATFORM_MENU@@YAXXZ 10001d20 f   TabStep.obj
 0001:00000d40       ??__ERMSG_CHANGEVERTSCALETYPE@@YAXXZ 10001d40 f   TabStep.obj
 0001:00000d60       ??__ERMSG_CHANGE_CROSSLINE@@YAXXZ 10001d60 f   TabStep.obj
 0001:00000d80       ??__ERMSG_CHANGE_SKINCOLOR@@YAXXZ 10001d80 f   TabStep.obj
 0001:00000da0       ??__ERMSG_CHARTMAIN@@YAXXZ 10001da0 f   TabStep.obj
 0001:00000dc0       ??__ERMSG_GETINFO@@YAXXZ   10001dc0 f   TabStep.obj
 0001:00000de0       ??__ERMSG_GETPCTRDATA@@YAXXZ 10001de0 f   TabStep.obj
 0001:00000e00       ??__ERMSG_GETSIGNAL_REAL@@YAXXZ 10001e00 f   TabStep.obj
 0001:00000e20       ??__ERMSG_GET_SKINCOLOR@@YAXXZ 10001e20 f   TabStep.obj
 0001:00000e40       ??__ERMSG_GET_USERID@@YAXXZ 10001e40 f   TabStep.obj
 0001:00000e60       ??__ERMSG_INTERFACE@@YAXXZ 10001e60 f   TabStep.obj
 0001:00000e80       ??__ERMSG_SETINFO@@YAXXZ   10001e80 f   TabStep.obj
 0001:00000ea0       ??__ERMSG_SETINITIALCHARTDATA@@YAXXZ 10001ea0 f   TabStep.obj
 0001:00000ec0       ??__ERMSG_SETPCTRDATA@@YAXXZ 10001ec0 f   TabStep.obj
 0001:00000ee0       ??__ERMSG_SETQUERYOPT@@YAXXZ 10001ee0 f   TabStep.obj
 0001:00000f00       ??__ERMS_ANALYSIS_FUNC@@YAXXZ 10001f00 f   TabStep.obj
 0001:00000f20       ??__ERMSG_ADD_PLATFORM_MENU@@YAXXZ 10001f20 f   TabTrade.obj
 0001:00000f40       ??__ERMSG_CHANGEVERTSCALETYPE@@YAXXZ 10001f40 f   TabTrade.obj
 0001:00000f60       ??__ERMSG_CHANGE_CROSSLINE@@YAXXZ 10001f60 f   TabTrade.obj
 0001:00000f80       ??__ERMSG_CHANGE_SKINCOLOR@@YAXXZ 10001f80 f   TabTrade.obj
 0001:00000fa0       ??__ERMSG_CHARTMAIN@@YAXXZ 10001fa0 f   TabTrade.obj
 0001:00000fc0       ??__ERMSG_GETINFO@@YAXXZ   10001fc0 f   TabTrade.obj
 0001:00000fe0       ??__ERMSG_GETPCTRDATA@@YAXXZ 10001fe0 f   TabTrade.obj
 0001:00001000       ??__ERMSG_GETSIGNAL_REAL@@YAXXZ 10002000 f   TabTrade.obj
 0001:00001020       ??__ERMSG_GET_SKINCOLOR@@YAXXZ 10002020 f   TabTrade.obj
 0001:00001040       ??__ERMSG_GET_USERID@@YAXXZ 10002040 f   TabTrade.obj
 0001:00001060       ??__ERMSG_INTERFACE@@YAXXZ 10002060 f   TabTrade.obj
 0001:00001080       ??__ERMSG_SETINFO@@YAXXZ   10002080 f   TabTrade.obj
 0001:000010a0       ??__ERMSG_SETINITIALCHARTDATA@@YAXXZ 100020a0 f   TabTrade.obj
 0001:000010c0       ??__ERMSG_SETPCTRDATA@@YAXXZ 100020c0 f   TabTrade.obj
 0001:000010e0       ??__ERMSG_SETQUERYOPT@@YAXXZ 100020e0 f   TabTrade.obj
 0001:00001100       ??__ERMS_ANALYSIS_FUNC@@YAXXZ 10002100 f   TabTrade.obj
 0001:00001120       ??__ERMSG_GETPCTRDATA@@YAXXZ 10002120 f   ExControl:ExStatic.obj
 0001:00001140       ??__ERMSG_INTERFACE@@YAXXZ 10002140 f   ExControl:ExStatic.obj
 0001:00001160       ??__ERMSG_SETPCTRDATA@@YAXXZ 10002160 f   ExControl:ExStatic.obj
 0001:00001180       ??__ERMSG_GETPCTRDATA@@YAXXZ 10002180 f   ExControl:ExDrawButton.obj
 0001:000011a0       ??__ERMSG_INTERFACE@@YAXXZ 100021a0 f   ExControl:ExDrawButton.obj
 0001:000011c0       ??__ERMSG_SETPCTRDATA@@YAXXZ 100021c0 f   ExControl:ExDrawButton.obj
 0001:000011e0       ??__ERMSG_GETPCTRDATA@@YAXXZ 100021e0 f   ExControl:ExDialog.obj
 0001:00001200       ??__ERMSG_INTERFACE@@YAXXZ 10002200 f   ExControl:ExDialog.obj
 0001:00001220       ??__ERMSG_SETPCTRDATA@@YAXXZ 10002220 f   ExControl:ExDialog.obj
 0001:00001240       ??__E?isInitialized@CAtlStringMgr@ATL@@0_NA@@YAXXZ 10002240 f   ExControl:StdAfx.obj
 0001:00001260       ??__EInitializeCAtlStringMgr@ATLImplementationDetails@ATL@@YAXXZ 10002260 f   ExControl:StdAfx.obj
 0001:00001350       ??__ERMSG_ENDSCROLLPOS@@YAXXZ 10002350 f   ExControl:StdAfx.obj
 0001:00001370       ??__ERMSG_EVENT_ACCTINPUT@@YAXXZ 10002370 f   ExControl:StdAfx.obj
 0001:00001390       ??__ERMSG_EVENT_CODEINPUT@@YAXXZ 10002390 f   ExControl:StdAfx.obj
 0001:000013b0       ??__ERMSG_EVENT_SIGNAL@@YAXXZ 100023b0 f   ExControl:StdAfx.obj
 0001:000013d0       ??__ERMSG_EVENT_SPININPUT@@YAXXZ 100023d0 f   ExControl:StdAfx.obj
 0001:000013f0       ??__ERMSG_FORMINITIALCOMPLETED@@YAXXZ 100023f0 f   ExControl:StdAfx.obj
 0001:00001410       ??__ERMSG_FORMSTATECHANGE@@YAXXZ 10002410 f   ExControl:StdAfx.obj
 0001:00001430       ??__ERMSG_GETPCTRDATA@@YAXXZ 10002430 f   ExControl:StdAfx.obj
 0001:00001450       ??__ERMSG_INTERFACE@@YAXXZ 10002450 f   ExControl:StdAfx.obj
 0001:00001470       ??__ERMSG_LBTNDBLCLICK@@YAXXZ 10002470 f   ExControl:StdAfx.obj
 0001:00001490       ??__ERMSG_LBTNDOWN@@YAXXZ  10002490 f   ExControl:StdAfx.obj
 0001:000014b0       ??__ERMSG_LSHAREDCHANGED@@YAXXZ 100024b0 f   ExControl:StdAfx.obj
 0001:000014d0       ??__ERMSG_SETPCTRDATA@@YAXXZ 100024d0 f   ExControl:StdAfx.obj
 0001:000014f0       ??__ERMSG_TABSTOP@@YAXXZ   100024f0 f   ExControl:StdAfx.obj
 0001:00001510       ??__E_AtlComModule@ATL@@YAXXZ 10002510 f   ExControl:StdAfx.obj
 0001:00001570       ??__E_AtlWinModule@ATL@@YAXXZ 10002570 f   ExControl:StdAfx.obj
 0001:000015c0       ??__Em_arPermanentHandle@@YAXXZ 100025c0 f   ExControl:StdAfx.obj
 0001:000015d0       ??__ERMSG_GETPCTRDATA@@YAXXZ 100025d0 f   ExControl:ExButton.obj
 0001:000015f0       ??__ERMSG_INTERFACE@@YAXXZ 100025f0 f   ExControl:ExButton.obj
 0001:00001610       ??__ERMSG_SETPCTRDATA@@YAXXZ 10002610 f   ExControl:ExButton.obj
 0001:00001621       ??__E?isInitialized@CAtlStringMgr@ATL@@0_NA@@YAXXZ 10002621 f   mfcs140:nolib.obj
 0001:00001635       ??__EInitializeCAtlStringMgr@ATLImplementationDetails@ATL@@YAXXZ 10002635 f   mfcs140:nolib.obj
 0001:0000163a       ??__E_AtlComModule@ATL@@YAXXZ 1000263a f   mfcs140:nolib.obj
 0001:00001650       ??__E_AtlWinModule@ATL@@YAXXZ 10002650 f   mfcs140:nolib.obj
 0001:00001666       ??__E?isInitialized@CAtlStringMgr@ATL@@0_NA@@YAXXZ 10002666 f   mfcs140:stdafx.obj
 0001:0000167a       ??__EInitializeCAtlStringMgr@ATLImplementationDetails@ATL@@YAXXZ 1000267a f   mfcs140:stdafx.obj
 0001:0000167f       ??__E_AtlComModule@ATL@@YAXXZ 1000267f f   mfcs140:stdafx.obj
 0001:00001695       ??__E_AtlWinModule@ATL@@YAXXZ 10002695 f   mfcs140:stdafx.obj
 0001:000016ab       ??__E_AtlBaseModule@ATL@@YAXXZ 100026ab f   atls:atlbase.obj
 0001:00003ebf       __catch$??1CGdiObject@@UAE@XZ$0 10004ebf f i XHeaderCtrl.obj
 0001:00004fc8       $LN12                      10005fc8     XHeaderCtrl.obj
 0001:000091b8       $LN12                      1000a1b8     XTabCtrl.obj
 0001:000091c8       $LN11                      1000a1c8     XTabCtrl.obj
 0001:0000b740       $LN44                      1000c740     DlgAnalysis.obj
 0001:0000e6fd       __catch$?Draw@CGridCellBase@@UAEHPAVCDC@@HHVCRect@@H@Z$0 1000f6fd f   GridCellBase.obj
 0001:0000e799       __catch$?Draw@CGridCellBase@@UAEHPAVCDC@@HHVCRect@@H@Z$2 1000f799 f   GridCellBase.obj
 0001:000103c1       __catch$??1CWaitCursor@@QAE@XZ$0 100113c1 f i GridCtrl.obj
 0001:00011370       __catch$?Create@CGridCtrl@@QAEHABUtagRECT@@PAVCWnd@@IK@Z$0 10012370 f   GridCtrl.obj
 0001:00014a34       __catch$?InsertColumn@CGridCtrl@@QAEHPBDIH@Z$0 10015a34 f   GridCtrl.obj
 0001:00014d62       __catch$?InsertRow@CGridCtrl@@QAEHPBDH@Z$0 10015d62 f   GridCtrl.obj
 0001:00015762       __catch$?Load@CGridCtrl@@QAEHPBDD@Z$0 10016762 f   GridCtrl.obj
 0001:00016e40       $LN23                      10017e40     GridCtrl.obj
 0001:00016e48       $LN22                      10017e48     GridCtrl.obj
 0001:000172f0       $LN119                     100182f0     GridCtrl.obj
 0001:00017b7c       $LN373                     10018b7c     GridCtrl.obj
 0001:00017b90       $LN372                     10018b90     GridCtrl.obj
 0001:00017bbc       $LN375                     10018bbc     GridCtrl.obj
 0001:00017bd4       $LN374                     10018bd4     GridCtrl.obj
 0001:00018ff4       $LN114                     10019ff4     GridCtrl.obj
 0001:00019008       $LN113                     1001a008     GridCtrl.obj
 0001:00019a84       $LN28                      1001aa84     GridCtrl.obj
 0001:0001a4f0       $LN121                     1001b4f0     GridCtrl.obj
 0001:0001c5bf       __catch$?Save@CGridCtrl@@QAEHPBDD@Z$0 1001d5bf f   GridCtrl.obj
 0001:0001d270       __catch$?SetColumnCount@CGridCtrl@@QAEHH@Z$0 1001e270 f   GridCtrl.obj
 0001:0001e5ba       __catch$?SetRowCount@CGridCtrl@@QAEHH@Z$0 1001f5ba f   GridCtrl.obj
 0001:0001fd50       $LN64                      10020d50     InPlaceEdit.obj
 0001:0001fd60       $LN63                      10020d60     InPlaceEdit.obj
 0001:00020d50       ?AfxGetPctrData@@YGJH@Z    10021d50 f   HWStrategyAnalysis.obj
 0001:00020e20       ?AfxGetPctrInterface@@YGJH@Z 10021e20 f   HWStrategyAnalysis.obj
 0001:00024468       $LN40                      10025468     TabResult.obj
 0001:0002447c       $LN41                      1002547c     TabResult.obj
 0001:00025468       $LN295                     10026468     TabResult.obj
 0001:0002547c       $LN296                     1002647c     TabResult.obj
 0001:00027fe0       $LN149                     10028fe0     TabStep.obj
 0001:00028020       $LN148                     10029020     TabStep.obj
 0001:0002948c       $LN377                     1002a48c     TabTrade.obj
 0001:00029bc8       $LN158                     1002abc8     TabTrade.obj
 0001:0002a680       $LN158                     1002b680     TabTrade.obj
 0001:00031593       ?find_pe_section@@YAPAU_IMAGE_SECTION_HEADER@@QAEI@Z 10032593 f   msvcrt:utility.obj
 0001:000315dc       ?is_potentially_valid_image_base@@YA_NQAX@Z 100325dc f   msvcrt:utility.obj
 0001:00031920       $$000000                   10032920     msvcrt:alloca16.obj
 0001:00031936       alloca_8                   10032936     msvcrt:alloca16.obj
 0001:00031a79       ?ArrayUnwindFilter@@YAHPAU_EXCEPTION_POINTERS@@@Z 10032a79 f   msvcrt:ehvecdtr.obj
 0001:00031b46       ?__scrt_initialize_thread_safe_statics@@YAHXZ 10032b46 f   msvcrt:thread_safe_statics.obj
 0001:00031b6d       ?__scrt_initialize_thread_safe_statics_platform_specific@@YAXXZ 10032b6d f   msvcrt:thread_safe_statics.obj
 0001:00031bef       ?__scrt_uninitialize_thread_safe_statics@@YAXXZ 10032bef f   msvcrt:thread_safe_statics.obj
 0001:00031d67       ?dllmain_crt_dispatch@@YGHQAUHINSTANCE__@@KQAX@Z 10032d67 f   msvcrt:dll_dllmain.obj
 0001:00031dba       ?dllmain_crt_process_attach@@YAHQAUHINSTANCE__@@QAX@Z 10032dba f   msvcrt:dll_dllmain.obj
 0001:00031ec1       ?dllmain_crt_process_detach@@YAH_N@Z 10032ec1 f   msvcrt:dll_dllmain.obj
 0001:00031f71       ?dllmain_dispatch@@YAHQAUHINSTANCE__@@KQAX@Z 10032f71 f   msvcrt:dll_dllmain.obj
 0001:0003207c       ?dllmain_raw@@YGHQAUHINSTANCE__@@KQAX@Z 1003307c f   msvcrt:dll_dllmain.obj
 0001:000321e0       $$000000                   100331e0     msvcrt:sehprolg4.obj
 0001:00032230       $$000000                   10033230     msvcrt:sehprolg4.obj
 0001:00032250       $$000000                   10033250     msvcrt:sehprolg4gs.obj
 0001:000322a0       $$000000                   100332a0     msvcrt:sehprolg4gs.obj
 0001:0003236b       ___castguard_compat_check  1003336b f   msvcrt:guard_support.obj
 0001:00032433       ___castguard_slow_path_compat_check 10033433 f   msvcrt:guard_support.obj
 0001:00032b60       $$000000                   10033b60     msvcrt:chkstk.obj
 0001:00032b74       cs10                       10033b74     msvcrt:chkstk.obj
 0001:00032b82       cs20                       10033b82     msvcrt:chkstk.obj
 0001:00032b8b       ___get_entropy             10033b8b f   msvcrt:gs_support.obj
 0001:00033423       _memmove_s                 10034423 f   atls:atlbase.obj
 0001:000336e0       __unwindfunclet$??0CStrategyLoader@@QAE@XZ$0 100346e0 f   StrategyLoader.obj
 0001:000336ef       __unwindfunclet$??0CStrategyLoader@@QAE@XZ$1 100346ef f   StrategyLoader.obj
 0001:000336fb       __unwindfunclet$??0CStrategyLoader@@QAE@XZ$2 100346fb f   StrategyLoader.obj
 0001:00033707       __unwindfunclet$??0CStrategyLoader@@QAE@XZ$7 10034707 f   StrategyLoader.obj
 0001:0003372a       __unwindfunclet$??0CStrategyLoader@@QAE@XZ$8 1003472a f   StrategyLoader.obj
 0001:0003374d       __unwindfunclet$??0CStrategyLoader@@QAE@XZ$5 1003474d f   StrategyLoader.obj
 0001:00033759       __unwindfunclet$??0CStrategyLoader@@QAE@XZ$6 10034759 f   StrategyLoader.obj
 0001:00033765       __unwindfunclet$??0CStrategyLoader@@QAE@XZ$9 10034765 f   StrategyLoader.obj
 0001:00033776       __ehhandler$??0CStrategyLoader@@QAE@XZ 10034776 f   StrategyLoader.obj
 0001:000337a0       __unwindfunclet$?ComServerFromProgID@CProgIDInfo@@SAJPBDAAV?$CStringT@DV?$StrTraitMFC_DLL@DV?$ChTraitsCRT@D@ATL@@@@@ATL@@@Z$0 100347a0 f   StrategyLoader.obj
 0001:000337a9       __unwindfunclet$?ComServerFromProgID@CProgIDInfo@@SAJPBDAAV?$CStringT@DV?$StrTraitMFC_DLL@DV?$ChTraitsCRT@D@ATL@@@@@ATL@@@Z$1 100347a9 f   StrategyLoader.obj
 0001:000337b2       __unwindfunclet$?ComServerFromProgID@CProgIDInfo@@SAJPBDAAV?$CStringT@DV?$StrTraitMFC_DLL@DV?$ChTraitsCRT@D@ATL@@@@@ATL@@@Z$2 100347b2 f   StrategyLoader.obj
 0001:000337c0       __ehhandler$?ComServerFromProgID@CProgIDInfo@@SAJPBDAAV?$CStringT@DV?$StrTraitMFC_DLL@DV?$ChTraitsCRT@D@ATL@@@@@ATL@@@Z 100347c0 f   StrategyLoader.obj
 0001:000337e0       __unwindfunclet$?LoadStrategyManager@CStrategyLoader@@AAEHXZ$0 100347e0 f   StrategyLoader.obj
 0001:000337f1       __ehhandler$?LoadStrategyManager@CStrategyLoader@@AAEHXZ 100347f1 f   StrategyLoader.obj
 0001:00033820       __unwindfunclet$?CreateObject@CMschart1@@SGPAVCObject@@XZ$0 10034820 f   mschart1.obj
 0001:0003382f       __ehhandler$?CreateObject@CMschart1@@SGPAVCObject@@XZ 1003482f f   mschart1.obj
 0001:00033850       __unwindfunclet$?CreateObject@CTChart@@SGPAVCObject@@XZ$0 10034850 f   tchart.obj
 0001:0003385f       __ehhandler$?CreateObject@CTChart@@SGPAVCObject@@XZ 1003485f f   tchart.obj
 0001:00033880       __unwindfunclet$?SeriesTitleLegend@CTChart@@QAE?AV?$CStringT@DV?$StrTraitMFC_DLL@DV?$ChTraitsCRT@D@ATL@@@@@ATL@@J@Z$0 10034880 f   tchart.obj
 0001:0003389f       __ehhandler$?SeriesTitleLegend@CTChart@@QAE?AV?$CStringT@DV?$StrTraitMFC_DLL@DV?$ChTraitsCRT@D@ATL@@@@@ATL@@J@Z 1003489f f   tchart.obj
 0001:000338c0       __unwindfunclet$?OnKeyDown@CXEdit@@IAEXIII@Z$0 100348c0 f   XEdit.obj
 0001:000338ce       __ehhandler$?OnKeyDown@CXEdit@@IAEXIII@Z 100348ce f   XEdit.obj
 0001:000338f0       __unwindfunclet$??1CGdiObject@@UAE@XZ$2 100348f0 f   XHeaderCtrl.obj
 0001:00033901       __ehhandler$??1CGdiObject@@UAE@XZ 10034901 f   XHeaderCtrl.obj
 0001:00033930       __ehhandler$??1CMemDC@@UAE@XZ 10034930 f   XHeaderCtrl.obj
 0001:00033950       __unwindfunclet$?CreateObject@CXHeaderCtrl@@SGPAVCObject@@XZ$0 10034950 f   XHeaderCtrl.obj
 0001:0003395f       __ehhandler$?CreateObject@CXHeaderCtrl@@SGPAVCObject@@XZ 1003495f f   XHeaderCtrl.obj
 0001:00033980       __unwindfunclet$?DrawBitmap@CXHeaderCtrl@@IAEHPAVCDC@@VCRect@@PAU_HD_ITEMA@@PAVCBitmap@@PAUtagBITMAP@@H@Z$0 10034980 f   XHeaderCtrl.obj
 0001:0003398d       __ehhandler$?DrawBitmap@CXHeaderCtrl@@IAEHPAVCDC@@VCRect@@PAU_HD_ITEMA@@PAVCBitmap@@PAUtagBITMAP@@H@Z 1003498d f   XHeaderCtrl.obj
 0001:000339b0       __unwindfunclet$?DrawCtrl@CXHeaderCtrl@@IAEXPAVCDC@@@Z$0 100349b0 f   XHeaderCtrl.obj
 0001:000339bb       __unwindfunclet$?DrawCtrl@CXHeaderCtrl@@IAEXPAVCDC@@@Z$1 100349bb f   XHeaderCtrl.obj
 0001:000339c6       __unwindfunclet$?DrawCtrl@CXHeaderCtrl@@IAEXPAVCDC@@@Z$2 100349c6 f   XHeaderCtrl.obj
 0001:000339d1       __unwindfunclet$?DrawCtrl@CXHeaderCtrl@@IAEXPAVCDC@@@Z$3 100349d1 f   XHeaderCtrl.obj
 0001:000339e1       __ehhandler$?DrawCtrl@CXHeaderCtrl@@IAEXPAVCDC@@@Z 100349e1 f   XHeaderCtrl.obj
 0001:00033a10       __unwindfunclet$?DrawItem@CXHeaderCtrl@@UAEXPAVCDC@@VCRect@@PAU_HD_ITEMA@@@Z$0 10034a10 f   XHeaderCtrl.obj
 0001:00033a1d       __ehhandler$?DrawItem@CXHeaderCtrl@@UAEXPAVCDC@@VCRect@@PAU_HD_ITEMA@@@Z 10034a1d f   XHeaderCtrl.obj
 0001:00033a40       __unwindfunclet$?OnPaint@CXHeaderCtrl@@IAEXXZ$0 10034a40 f   XHeaderCtrl.obj
 0001:00033a4b       __unwindfunclet$?OnPaint@CXHeaderCtrl@@IAEXXZ$2 10034a4b f   XHeaderCtrl.obj
 0001:00033a53       __unwindfunclet$?OnPaint@CXHeaderCtrl@@IAEXXZ$3 10034a53 f   XHeaderCtrl.obj
 0001:00033a5b       __unwindfunclet$?OnPaint@CXHeaderCtrl@@IAEXXZ$1 10034a5b f   XHeaderCtrl.obj
 0001:00033a68       __ehhandler$?OnPaint@CXHeaderCtrl@@IAEXXZ 10034a68 f   XHeaderCtrl.obj
 0001:00033aa0       __unwindfunclet$??0CXListCtrl@@QAE@XZ$0 10034aa0 f   XListCtrl.obj
 0001:00033aa8       __unwindfunclet$??0CXListCtrl@@QAE@XZ$1 10034aa8 f   XListCtrl.obj
 0001:00033ab6       __unwindfunclet$??0CXListCtrl@@QAE@XZ$2 10034ab6 f   XListCtrl.obj
 0001:00033ac4       __unwindfunclet$??0CXListCtrl@@QAE@XZ$3 10034ac4 f   XListCtrl.obj
 0001:00033ad2       __unwindfunclet$??0CXListCtrl@@QAE@XZ$4 10034ad2 f   XListCtrl.obj
 0001:00033ae0       __unwindfunclet$??0CXListCtrl@@QAE@XZ$5 10034ae0 f   XListCtrl.obj
 0001:00033aef       __unwindfunclet$??0CXListCtrl@@QAE@XZ$6 10034aef f   XListCtrl.obj
 0001:00033b03       __ehhandler$??0CXListCtrl@@QAE@XZ 10034b03 f   XListCtrl.obj
 0001:00033b20       __unwindfunclet$??0XLISTCTRLDATA@@QAE@XZ$0 10034b20 f   XListCtrl.obj
 0001:00033b2c       __unwindfunclet$??0XLISTCTRLDATA@@QAE@XZ$1 10034b2c f   XListCtrl.obj
 0001:00033b3d       __ehhandler$??0XLISTCTRLDATA@@QAE@XZ 10034b3d f   XListCtrl.obj
 0001:00033b60       __ehhandler$??_EXLISTCTRLDATA@@QAEPAXI@Z 10034b60 f   XListCtrl.obj
 0001:00033b80       __ehhandler$?DeleteAllItems@CXListCtrl@@QAEHXZ 10034b80 f   XListCtrl.obj
 0001:00033ba0       __unwindfunclet$?DrawCheckbox@CXListCtrl@@IAEXHHPAVCDC@@KKAAVCRect@@PAUXLISTCTRLDATA@@@Z$0 10034ba0 f   XListCtrl.obj
 0001:00033ba9       __unwindfunclet$?DrawCheckbox@CXListCtrl@@IAEXHHPAVCDC@@KKAAVCRect@@PAUXLISTCTRLDATA@@@Z$1 10034ba9 f   XListCtrl.obj
 0001:00033bb2       __unwindfunclet$?DrawCheckbox@CXListCtrl@@IAEXHHPAVCDC@@KKAAVCRect@@PAUXLISTCTRLDATA@@@Z$2 10034bb2 f   XListCtrl.obj
 0001:00033bba       __unwindfunclet$?DrawCheckbox@CXListCtrl@@IAEXHHPAVCDC@@KKAAVCRect@@PAUXLISTCTRLDATA@@@Z$3 10034bba f   XListCtrl.obj
 0001:00033bc7       __ehhandler$?DrawCheckbox@CXListCtrl@@IAEXHHPAVCDC@@KKAAVCRect@@PAUXLISTCTRLDATA@@@Z 10034bc7 f   XListCtrl.obj
 0001:00033bf0       __unwindfunclet$?DrawProgress@CXListCtrl@@IAEXHHPAVCDC@@KKAAVCRect@@PAUXLISTCTRLDATA@@@Z$0 10034bf0 f   XListCtrl.obj
 0001:00033bf8       __unwindfunclet$?DrawProgress@CXListCtrl@@IAEXHHPAVCDC@@KKAAVCRect@@PAUXLISTCTRLDATA@@@Z$1 10034bf8 f   XListCtrl.obj
 0001:00033c00       __unwindfunclet$?DrawProgress@CXListCtrl@@IAEXHHPAVCDC@@KKAAVCRect@@PAUXLISTCTRLDATA@@@Z$2 10034c00 f   XListCtrl.obj
 0001:00033c09       __unwindfunclet$?DrawProgress@CXListCtrl@@IAEXHHPAVCDC@@KKAAVCRect@@PAUXLISTCTRLDATA@@@Z$3 10034c09 f   XListCtrl.obj
 0001:00033c12       __unwindfunclet$?DrawProgress@CXListCtrl@@IAEXHHPAVCDC@@KKAAVCRect@@PAUXLISTCTRLDATA@@@Z$4 10034c12 f   XListCtrl.obj
 0001:00033c1f       __ehhandler$?DrawProgress@CXListCtrl@@IAEXHHPAVCDC@@KKAAVCRect@@PAUXLISTCTRLDATA@@@Z 10034c1f f   XListCtrl.obj
 0001:00033c50       __unwindfunclet$?DrawTextA@CXListCtrl@@IAEXHHPAVCDC@@KKAAVCRect@@PAUXLISTCTRLDATA@@@Z$0 10034c50 f   XListCtrl.obj
 0001:00033c59       __unwindfunclet$?DrawTextA@CXListCtrl@@IAEXHHPAVCDC@@KKAAVCRect@@PAUXLISTCTRLDATA@@@Z$1 10034c59 f   XListCtrl.obj
