 HWStrategyConfigureWizard

 Timestamp is 641272d6 (Thu Mar 16 10:37:26 2023)

 Preferred load address is 10000000

 Start         Length     Name                   Class
 0001:00000000 00001130H .text$di                CODE
 0001:00001130 0003a3f0H .text$mn                CODE
 0001:0003b520 00004940H .text$x                 CODE
 0001:0003fe60 000004b3H .text$yd                CODE
 0002:00000000 00000ac0H .idata$5                DATA
 0002:00000ac0 00000008H .00cfg                  DATA
 0002:00000ac8 00000004H .CRT$XCA                DATA
 0002:00000acc 00000004H .CRT$XCL                DATA
 0002:00000ad0 000001b4H .CRT$XCU                DATA
 0002:00000c84 00000004H .CRT$XCZ                DATA
 0002:00000c88 00000004H .CRT$XIA                DATA
 0002:00000c8c 00000004H .CRT$XIC                DATA
 0002:00000c90 00000004H .CRT$XIZ                DATA
 0002:00000c94 00000004H .CRT$XLA                DATA
 0002:00000c98 00000004H .CRT$XLZ                DATA
 0002:00000c9c 00000004H .CRT$XPA                DATA
 0002:00000ca0 00000004H .CRT$XPZ                DATA
 0002:00000ca4 00000004H .CRT$XTA                DATA
 0002:00000ca8 00000008H .CRT$XTZ                DATA
 0002:00000cac 00000000H .gfids$y                DATA
 0002:00000cb0 00008e90H .rdata                  DATA
 0002:00009b40 00000004H .rdata$CastGuardVftablesA DATA
 0002:00009b44 00000004H .rdata$CastGuardVftablesC DATA
 0002:00009b48 00000018H .rdata$T                DATA
 0002:00009b60 000019c8H .rdata$r                DATA
 0002:0000b528 000003d8H .rdata$sxdata           DATA
 0002:0000b900 00000038H .rdata$voltmd           DATA
 0002:0000b938 00000450H .rdata$zzzdbg           DATA
 0002:0000bd88 00000004H .rtc$IAA                DATA
 0002:0000bd8c 00000004H .rtc$IZZ                DATA
 0002:0000bd90 00000004H .rtc$TAA                DATA
 0002:0000bd94 00000004H .rtc$TZZ                DATA
 0002:0000bd98 00000004H .tls                    DATA
 0002:0000bd9c 00000004H .tls$                   DATA
 0002:0000bda0 00000008H .tls$ZZZ                DATA
 0002:0000bda8 00003d7cH .xdata$x                DATA
 0002:0000fb24 00000004H ATL$__a                 DATA
 0002:0000fb28 00000008H ATL$__z                 DATA
 0002:0000fb30 0000016cH .edata                  DATA
 0002:0000fc9c 00000154H .idata$2                DATA
 0002:0000fdf0 00000014H .idata$3                DATA
 0002:0000fe04 00000ac0H .idata$4                DATA
 0002:000108c4 00000f98H .idata$6                DATA
 0003:00000000 00000098H .data                   DATA
 0003:00000098 00000080H .data$r                 DATA
 0003:00000118 000009e0H .data$rs                DATA
 0003:00000af8 00000750H .bss                    DATA
 0004:00000000 00000420H .rsrc$01                DATA
 0004:00000420 00001570H .rsrc$02                DATA

  Address         Publics by Value              Rva+Base       Lib:Object

 0000:00000000       ___guard_check_icall_a64n_fptr 00000000     <absolute>
 0000:00000000       ___arm64x_extra_rfe_table_size 00000000     <absolute>
 0000:00000000       ___guard_longjmp_table     00000000     <absolute>
 0000:00000000       ___x64_code_ranges_to_entry_points_count 00000000     <absolute>
 0000:00000000       ___dynamic_value_reloc_table 00000000     <absolute>
 0000:00000000       ___arm64x_redirection_metadata 00000000     <absolute>
 0000:00000000       ___AbsoluteZero            00000000     <absolute>
 0000:00000000       ___guard_longjmp_count     00000000     <absolute>
 0000:00000000       ___enclave_config          00000000     <absolute>
 0000:00000000       ___guard_iat_count         00000000     <absolute>
 0000:00000000       ___guard_fids_count        00000000     <absolute>
 0000:00000000       ___x64_code_ranges_to_entry_points 00000000     <absolute>
 0000:00000000       ___arm64x_redirection_metadata_count 00000000     <absolute>
 0000:00000000       ___hybrid_code_map_count   00000000     <absolute>
 0000:00000000       ___hybrid_auxiliary_iat    00000000     <absolute>
 0000:00000000       ___guard_fids_table        00000000     <absolute>
 0000:00000000       ___guard_eh_cont_table     00000000     <absolute>
 0000:00000000       ___hybrid_code_map         00000000     <absolute>
 0000:00000000       ___arm64x_native_entrypoint 00000000     <absolute>
 0000:00000000       ___arm64x_extra_rfe_table  00000000     <absolute>
 0000:00000000       ___guard_iat_table         00000000     <absolute>
 0000:00000000       ___guard_eh_cont_count     00000000     <absolute>
 0000:00000000       ___hybrid_auxiliary_iat_copy 00000000     <absolute>
 0000:0000002c       __tls_array                0000002c     <absolute>
 0000:000000f6       ___safe_se_handler_count   000000f6     <absolute>
 0000:00000100       ___guard_flags             00000100     <absolute>
 0000:00000000       ___ImageBase               10000000     <linker-defined>
 0001:00001130       ??0CDllSTLoader@@QAE@XZ    10002130 f   DllSTLoader.obj
 0001:000011a0       ??1CDllSTLoader@@UAE@XZ    100021a0 f   DllSTLoader.obj
 0001:00001200       ??_GCDllSTLoader@@UAEPAXI@Z 10002200 f i DllSTLoader.obj
 0001:00001200       ??_ECDllSTLoader@@UAEPAXI@Z 10002200 f i DllSTLoader.obj
 0001:00001280       ?Command@CDllSTLoader@@QAEJPBD0@Z 10002280 f   DllSTLoader.obj
 0001:000012b0       ?Execute@CDllSTLoader@@QAEJPBD@Z 100022b0 f   DllSTLoader.obj
 0001:000012e0       ?GetInput@CDllSTLoader@@QAE?AV?$CStringT@DV?$StrTraitMFC_DLL@DV?$ChTraitsCRT@D@ATL@@@@@ATL@@J@Z 100022e0 f   DllSTLoader.obj
 0001:00001360       ?Load@CDllSTLoader@@QAEJPBDPAUHWND__@@J0H0J@Z 10002360 f   DllSTLoader.obj
 0001:000013b0       ?LoadDLL@CDllSTLoader@@AAEHPBD@Z 100023b0 f   DllSTLoader.obj
 0001:00001570       ?Pause@CDllSTLoader@@QAEJXZ 10002570 f   DllSTLoader.obj
 0001:00001590       ?Stop@CDllSTLoader@@QAEJXZ 10002590 f   DllSTLoader.obj
 0001:000015b0       ?Unload@CDllSTLoader@@QAEJXZ 100025b0 f   DllSTLoader.obj
 0001:00001650       ?UnloadDLL@CDllSTLoader@@AAEHXZ 10002650 f   DllSTLoader.obj
 0001:000016b0       ?Update@CDllSTLoader@@QAEJJH@Z 100026b0 f   DllSTLoader.obj
 0001:000016e0       ?__empty_global_delete@@YAXPAX@Z 100026e0 f i DllSTLoader.obj
 0001:000016f0       ?__global_delete@@YAXPAXI@Z 100026f0 f i DllSTLoader.obj
 0001:000016f0       ?__empty_global_delete@@YAXPAXI@Z 100026f0 f i DllSTLoader.obj
 0001:00001700       ??0CBarFolder@CSTGfxOutBarCtrl@@QAE@PBDK@Z 10002700 f   STGfxOutBarCtrl.obj
 0001:000017a0       ??0CBarItem@CSTGfxOutBarCtrl@@QAE@PBDHK@Z 100027a0 f   STGfxOutBarCtrl.obj
 0001:000017f0       ??0CImpl_IGfxOutBarCtrl@@QAE@XZ 100027f0 f   STGfxOutBarCtrl.obj
 0001:00001810       ??0CSTGfxOutBarCtrl@@QAE@XZ 10002810 f   STGfxOutBarCtrl.obj
 0001:00001a60       ??1CBarFolder@CSTGfxOutBarCtrl@@UAE@XZ 10002a60 f   STGfxOutBarCtrl.obj
 0001:00001b00       ??1CBarItem@CSTGfxOutBarCtrl@@UAE@XZ 10002b00 f   STGfxOutBarCtrl.obj
 0001:00001b20       ??1CBitmap@@UAE@XZ         10002b20 f i STGfxOutBarCtrl.obj
 0001:00001b30       ??1CFont@@UAE@XZ           10002b30 f i STGfxOutBarCtrl.obj
 0001:00001b40       ??1CGdiObject@@UAE@XZ      10002b40 f i STGfxOutBarCtrl.obj
 0001:00001c50       ??1CObject@@UAE@XZ         10002c50 f i STGfxOutBarCtrl.obj
 0001:00001c60       ??1CPen@@UAE@XZ            10002c60 f i STGfxOutBarCtrl.obj
 0001:00001c70       ??1CRgn@@UAE@XZ            10002c70 f i STGfxOutBarCtrl.obj
 0001:00001c80       ??1CSTGfxOutBarCtrl@@UAE@XZ 10002c80 f   STGfxOutBarCtrl.obj
 0001:00001d40       ??3CObject@@SGXPAX@Z       10002d40 f i STGfxOutBarCtrl.obj
 0001:00001d60       ??_ECBarFolder@CSTGfxOutBarCtrl@@UAEPAXI@Z 10002d60 f i STGfxOutBarCtrl.obj
 0001:00001d60       ??_GCBarFolder@CSTGfxOutBarCtrl@@UAEPAXI@Z 10002d60 f i STGfxOutBarCtrl.obj
 0001:00001e20       ??_ECBarItem@CSTGfxOutBarCtrl@@UAEPAXI@Z 10002e20 f i STGfxOutBarCtrl.obj
 0001:00001e20       ??_GCBarItem@CSTGfxOutBarCtrl@@UAEPAXI@Z 10002e20 f i STGfxOutBarCtrl.obj
 0001:00001e60       ??_GCBitmap@@UAEPAXI@Z     10002e60 f i STGfxOutBarCtrl.obj
 0001:00001e60       ??_ECBitmap@@UAEPAXI@Z     10002e60 f i STGfxOutBarCtrl.obj
 0001:00001ea0       ??_GCFont@@UAEPAXI@Z       10002ea0 f i STGfxOutBarCtrl.obj
 0001:00001ea0       ??_ECFont@@UAEPAXI@Z       10002ea0 f i STGfxOutBarCtrl.obj
 0001:00001ee0       ??_GCGdiObject@@UAEPAXI@Z  10002ee0 f i STGfxOutBarCtrl.obj
 0001:00001ee0       ??_ECGdiObject@@UAEPAXI@Z  10002ee0 f i STGfxOutBarCtrl.obj
 0001:00001f20       ??_ECPen@@UAEPAXI@Z        10002f20 f i STGfxOutBarCtrl.obj
 0001:00001f20       ??_GCPen@@UAEPAXI@Z        10002f20 f i STGfxOutBarCtrl.obj
 0001:00001f60       ??_GCRgn@@UAEPAXI@Z        10002f60 f i STGfxOutBarCtrl.obj
 0001:00001f60       ??_ECRgn@@UAEPAXI@Z        10002f60 f i STGfxOutBarCtrl.obj
 0001:00001fa0       ??_GCSTGfxOutBarCtrl@@UAEPAXI@Z 10002fa0 f i STGfxOutBarCtrl.obj
 0001:00001fa0       ??_ECSTGfxOutBarCtrl@@UAEPAXI@Z 10002fa0 f i STGfxOutBarCtrl.obj
 0001:00001fe0       ?AddFolder@CSTGfxOutBarCtrl@@QAEHPBDK@Z 10002fe0 f   STGfxOutBarCtrl.obj
 0001:000020b0       ?AddFolderBar@CImpl_IGfxOutBarCtrl@@UAGHPBDPAVCWnd@@@Z 100030b0 f   STGfxOutBarCtrl.obj
 0001:00002140       ?AddFolderBar@CSTGfxOutBarCtrl@@QAEHPBDPAVCWnd@@K@Z 10003140 f   STGfxOutBarCtrl.obj
 0001:00002220       ?AnimateFolderScroll@CSTGfxOutBarCtrl@@QAEXHH@Z 10003220 f   STGfxOutBarCtrl.obj
 0001:00002940       ?AssertValid@CObject@@UBEXXZ 10003940 f i STGfxOutBarCtrl.obj
 0001:00002950       ?BeginModalState@CWnd@@UAEXXZ 10003950 f i STGfxOutBarCtrl.obj
 0001:00002960       ?Create@CSTGfxOutBarCtrl@@QAEHKABUtagRECT@@PAVCWnd@@IK@Z 10003960 f   STGfxOutBarCtrl.obj
 0001:00002990       ?CreateObject@CSTGfxOutBarCtrl@@SGPAVCObject@@XZ 10003990 f   STGfxOutBarCtrl.obj
 0001:00002a00       ?CreateOutBar@CImpl_IGfxOutBarCtrl@@UAGHKABUtagRECT@@PAVCWnd@@IK@Z 10003a00 f   STGfxOutBarCtrl.obj
 0001:00002a40       ?DeleteAllFolder@CSTGfxOutBarCtrl@@QAEXXZ 10003a40 f   STGfxOutBarCtrl.obj
 0001:00002aa0       ?DoDataExchange@CWnd@@MAEXPAVCDataExchange@@@Z 10003aa0 f i STGfxOutBarCtrl.obj
 0001:00002ab0       ?DrawAnimItem@CSTGfxOutBarCtrl@@QAEXHHH@Z 10003ab0 f   STGfxOutBarCtrl.obj
 0001:00002d40       ?DrawDragArrow@CSTGfxOutBarCtrl@@QAEXPAVCDC@@HH@Z 10003d40 f   STGfxOutBarCtrl.obj
 0001:000030d0       ?DrawFolder@CSTGfxOutBarCtrl@@IAEXPAVCDC@@HVCRect@@_N@Z 100040d0 f   STGfxOutBarCtrl.obj
 0001:00003840       ?DrawItem@CSTGfxOutBarCtrl@@QAEXPAVCDC@@HVCRect@@H_N@Z 10004840 f   STGfxOutBarCtrl.obj
 0001:00003b20       ?DrawTextA@CDC@@UAEHPBDHPAUtagRECT@@I@Z 10004b20 f i STGfxOutBarCtrl.obj
 0001:00003b40       ?Dump@CObject@@UBEXAAVCDumpContext@@@Z 10004b40 f i STGfxOutBarCtrl.obj
 0001:00003b50       ?EndModalState@CWnd@@UAEXXZ 10004b50 f i STGfxOutBarCtrl.obj
 0001:00003b60       ?GetCountPerPage@CSTGfxOutBarCtrl@@QBEHXZ 10004b60 f   STGfxOutBarCtrl.obj
 0001:00003b70       ?GetCoutBarCtrl@CImpl_IGfxOutBarCtrl@@UAGPAVCWnd@@XZ 10004b70 f   STGfxOutBarCtrl.obj
 0001:00003b80       ?GetDragItemRect@CSTGfxOutBarCtrl@@QAEHHAAVCRect@@@Z 10004b80 f   STGfxOutBarCtrl.obj
 0001:00003d10       ?GetFlag@CSTGfxOutBarCtrl@@QBEKXZ 10004d10 f   STGfxOutBarCtrl.obj
 0001:00003d20       ?GetFolderChild@CSTGfxOutBarCtrl@@QAEPAVCWnd@@H@Z 10004d20 f   STGfxOutBarCtrl.obj
 0001:00003d60       ?GetFolderCount@CSTGfxOutBarCtrl@@QBEHXZ 10004d60 f   STGfxOutBarCtrl.obj
 0001:00003d70       ?GetFolderData@CSTGfxOutBarCtrl@@QAEKH@Z 10004d70 f   STGfxOutBarCtrl.obj
 0001:00003db0       ?GetFolderImageList@CSTGfxOutBarCtrl@@QBEPAVCImageList@@H_N@Z 10004db0 f   STGfxOutBarCtrl.obj
 0001:00003e00       ?GetFolderRect@CSTGfxOutBarCtrl@@QBE_NHAAVCRect@@@Z 10004e00 f   STGfxOutBarCtrl.obj
 0001:00003f00       ?GetIconRect@CSTGfxOutBarCtrl@@QAEXHHAAVCRect@@@Z 10004f00 f   STGfxOutBarCtrl.obj
 0001:00004110       ?GetImageList@CSTGfxOutBarCtrl@@QAEPAVCImageList@@H@Z 10005110 f   STGfxOutBarCtrl.obj
 0001:00004140       ?GetInsideRect@CSTGfxOutBarCtrl@@QBEXAAVCRect@@@Z 10005140 f   STGfxOutBarCtrl.obj
 0001:000041b0       ?GetItemCount@CBarFolder@CSTGfxOutBarCtrl@@QAEHXZ 100051b0 f   STGfxOutBarCtrl.obj
 0001:000041c0       ?GetItemCount@CSTGfxOutBarCtrl@@QBEHXZ 100051c0 f   STGfxOutBarCtrl.obj
 0001:000041f0       ?GetItemData@CSTGfxOutBarCtrl@@QBEKH@Z 100051f0 f   STGfxOutBarCtrl.obj
 0001:00004240       ?GetItemImage@CSTGfxOutBarCtrl@@QBEHH@Z 10005240 f   STGfxOutBarCtrl.obj
 0001:00004290       ?GetItemRect@CSTGfxOutBarCtrl@@QAEXHHAAVCRect@@@Z 10005290 f   STGfxOutBarCtrl.obj
 0001:000043b0       ?GetItemSize@CSTGfxOutBarCtrl@@QAE?AVCSize@@HHH@Z 100053b0 f   STGfxOutBarCtrl.obj
 0001:00004620       ?GetItemText@CSTGfxOutBarCtrl@@QAE?AV?$CStringT@DV?$StrTraitMFC_DLL@DV?$ChTraitsCRT@D@ATL@@@@@ATL@@H@Z 10005620 f   STGfxOutBarCtrl.obj
 0001:000046c0       ?GetLabelRect@CSTGfxOutBarCtrl@@QAEXHHAAVCRect@@@Z 100056c0 f   STGfxOutBarCtrl.obj
 0001:00004870       ?GetMessageMap@CSTGfxOutBarCtrl@@MBEPBUAFX_MSGMAP@@XZ 10005870 f   STGfxOutBarCtrl.obj
 0001:00004880       ?GetRuntimeClass@CSTGfxOutBarCtrl@@UBEPAUCRuntimeClass@@XZ 10005880 f   STGfxOutBarCtrl.obj
 0001:00004890       ?GetSelFolder@CSTGfxOutBarCtrl@@QBEHXZ 10005890 f   STGfxOutBarCtrl.obj
 0001:000048a0       ?GetThisClass@CSTGfxOutBarCtrl@@SGPAUCRuntimeClass@@XZ 100058a0 f   STGfxOutBarCtrl.obj
 0001:000048b0       ?GetThisMessageMap@CSTGfxOutBarCtrl@@KGPBUAFX_MSGMAP@@XZ 100058b0 f   STGfxOutBarCtrl.obj
 0001:000048c0       ?GetVisibleRange@CSTGfxOutBarCtrl@@QAEXHAAH0@Z 100058c0 f   STGfxOutBarCtrl.obj
 0001:00004990       ?HighlightFolder@CSTGfxOutBarCtrl@@QAEXH@Z 10005990 f   STGfxOutBarCtrl.obj
 0001:00004ba0       ?HighlightItem@CSTGfxOutBarCtrl@@QAEXH_N@Z 10005ba0 f   STGfxOutBarCtrl.obj
 0001:00004de0       ?HitTestEx@CSTGfxOutBarCtrl@@QAEHABVCPoint@@AAH@Z 10005de0 f   STGfxOutBarCtrl.obj
 0001:00005000       ?InsertItem@CBarFolder@CSTGfxOutBarCtrl@@QAEHHPBDHK@Z 10006000 f   STGfxOutBarCtrl.obj
 0001:000050e0       ?InsertItem@CSTGfxOutBarCtrl@@QAEHHHPBDHK@Z 100060e0 f   STGfxOutBarCtrl.obj
 0001:000051e0       ?IsSmallIconView@CSTGfxOutBarCtrl@@QBE_NXZ 100061e0 f   STGfxOutBarCtrl.obj
 0001:000051f0       ?IsValidItem@CSTGfxOutBarCtrl@@QBE_NH@Z 100061f0 f   STGfxOutBarCtrl.obj
 0001:00005230       ?ModifyFlag@CSTGfxOutBarCtrl@@QAEXABK0I@Z 10006230 f   STGfxOutBarCtrl.obj
 0001:000052a0       ?OnCommand@CSTGfxOutBarCtrl@@MAEHIJ@Z 100062a0 f   STGfxOutBarCtrl.obj
 0001:00005340       ?OnCreate@CSTGfxOutBarCtrl@@IAEHPAUtagCREATESTRUCTA@@@Z 10006340 f   STGfxOutBarCtrl.obj
 0001:000053f0       ?OnDestroy@CSTGfxOutBarCtrl@@IAEXXZ 100063f0 f   STGfxOutBarCtrl.obj
 0001:00005410       ?OnEraseBkgnd@CSTGfxOutBarCtrl@@IAEHPAVCDC@@@Z 10006410 f   STGfxOutBarCtrl.obj
 0001:00005420       ?OnLButtonDown@CSTGfxOutBarCtrl@@IAEXIVCPoint@@@Z 10006420 f   STGfxOutBarCtrl.obj
 0001:00005e40       ?OnMouseMove@CSTGfxOutBarCtrl@@IAEXIVCPoint@@@Z 10006e40 f   STGfxOutBarCtrl.obj
 0001:00005e50       ?OnPaint@CSTGfxOutBarCtrl@@IAEXXZ 10006e50 f   STGfxOutBarCtrl.obj
 0001:00006400       ?OnRButtonDown@CSTGfxOutBarCtrl@@IAEXIVCPoint@@@Z 10007400 f   STGfxOutBarCtrl.obj
 0001:00006410       ?OnSetCursor@CSTGfxOutBarCtrl@@IAEHPAVCWnd@@II@Z 10007410 f   STGfxOutBarCtrl.obj
 0001:00006480       ?OnSize@CSTGfxOutBarCtrl@@IAEXIHH@Z 10007480 f   STGfxOutBarCtrl.obj
 0001:00006530       ?OnTimer@CSTGfxOutBarCtrl@@IAEXI@Z 10007530 f   STGfxOutBarCtrl.obj
 0001:00006670       ?PaintItems@CSTGfxOutBarCtrl@@QAEXPAVCDC@@HVCRect@@@Z 10007670 f   STGfxOutBarCtrl.obj
 0001:000067c0       ?RemoveFolder@CSTGfxOutBarCtrl@@QAEXH@Z 100077c0 f   STGfxOutBarCtrl.obj
 0001:00006840       ?RemoveItem@CSTGfxOutBarCtrl@@QAEXH@Z 10007840 f   STGfxOutBarCtrl.obj
 0001:000068e0       ?Serialize@CObject@@UAEXAAVCArchive@@@Z 100078e0 f i STGfxOutBarCtrl.obj
 0001:000068f0       ?SetAnimSelHighlight@CSTGfxOutBarCtrl@@QAEXH@Z 100078f0 f   STGfxOutBarCtrl.obj
 0001:00006930       ?SetFolderImageList@CImpl_IGfxOutBarCtrl@@UAGXPAVCImageList@@HHH@Z 10007930 f   STGfxOutBarCtrl.obj
 0001:00006960       ?SetFolderImageList@CSTGfxOutBarCtrl@@QAEPAVCImageList@@HPAV2@H@Z 10007960 f   STGfxOutBarCtrl.obj
 0001:000069c0       ?SetFolderImageList@CSTGfxOutBarCtrl@@QAEXPAVCImageList@@HHH@Z 100079c0 f   STGfxOutBarCtrl.obj
 0001:000069f0       ?SetFolderText@CSTGfxOutBarCtrl@@QAEXHPBD@Z 100079f0 f   STGfxOutBarCtrl.obj
 0001:00006a50       ?SetImageList@CImpl_IGfxOutBarCtrl@@UAGPAVCImageList@@PAV2@H@Z 10007a50 f   STGfxOutBarCtrl.obj
 0001:00006aa0       ?SetImageList@CSTGfxOutBarCtrl@@QAEPAVCImageList@@PAV2@H@Z 10007aa0 f   STGfxOutBarCtrl.obj
 0001:00006af0       ?SetItemData@CSTGfxOutBarCtrl@@QAEXHK@Z 10007af0 f   STGfxOutBarCtrl.obj
 0001:00006b30       ?SetItemImage@CSTGfxOutBarCtrl@@QAEXHH@Z 10007b30 f   STGfxOutBarCtrl.obj
 0001:00006b70       ?SetItemText@CSTGfxOutBarCtrl@@QAEXHPBD@Z 10007b70 f   STGfxOutBarCtrl.obj
 0001:00006be0       ?SetSelFolder@CImpl_IGfxOutBarCtrl@@UAGXH@Z 10007be0 f   STGfxOutBarCtrl.obj
 0001:00006c00       ?SetSelFolder@CSTGfxOutBarCtrl@@QAEXH@Z 10007c00 f   STGfxOutBarCtrl.obj
 0001:00006d50       ?SetSmallIconView@CSTGfxOutBarCtrl@@QAEX_N@Z 10007d50 f   STGfxOutBarCtrl.obj
 0001:00006dd0       ?Setcr3dFace@CImpl_IGfxOutBarCtrl@@UAGXK@Z 10007dd0 f   STGfxOutBarCtrl.obj
 0001:00006df0       ?Setcr3dUnFace@CImpl_IGfxOutBarCtrl@@UAGXK@Z 10007df0 f   STGfxOutBarCtrl.obj
 0001:00006e10       ?_GetBaseClass@CSTGfxOutBarCtrl@@KGPAUCRuntimeClass@@XZ 10007e10 f   STGfxOutBarCtrl.obj
 0001:00006e20       ??0CSTListCtrl@@QAE@XZ     10007e20 f   STListCtrl.obj
 0001:00006ed0       ??1CMenu@@UAE@XZ           10007ed0 f i STListCtrl.obj
 0001:00006f20       ??1CSTListCtrl@@UAE@XZ     10007f20 f   STListCtrl.obj
 0001:00006fc0       ??1STMNG_ITEMINFO@@QAE@XZ  10007fc0 f i STListCtrl.obj
 0001:00006fe0       ??_ECListCtrl@@UAEPAXI@Z   10007fe0 f i STListCtrl.obj
 0001:00006fe0       ??_GCListCtrl@@UAEPAXI@Z   10007fe0 f i STListCtrl.obj
 0001:00007020       ??_GCMenu@@UAEPAXI@Z       10008020 f i STListCtrl.obj
 0001:00007020       ??_ECMenu@@UAEPAXI@Z       10008020 f i STListCtrl.obj
 0001:000070b0       ??_ECSTListCtrl@@UAEPAXI@Z 100080b0 f i STListCtrl.obj
 0001:000070b0       ??_GCSTListCtrl@@UAEPAXI@Z 100080b0 f i STListCtrl.obj
 0001:00007180       ?GetMessageMap@CSTListCtrl@@MBEPBUAFX_MSGMAP@@XZ 10008180 f   STListCtrl.obj
 0001:00007190       ?GetOwner@CWnd@@QBEPAV1@XZ 10008190 f i STListCtrl.obj
 0001:000071b0       ?GetRuntimeClass@CSTListCtrl@@UBEPAUCRuntimeClass@@XZ 100081b0 f   STListCtrl.obj
 0001:000071c0       ?GetThisClass@CSTListCtrl@@SGPAUCRuntimeClass@@XZ 100081c0 f   STListCtrl.obj
 0001:000071d0       ?GetThisMessageMap@CSTListCtrl@@KGPBUAFX_MSGMAP@@XZ 100081d0 f   STListCtrl.obj
 0001:000071e0       ?GetUserSetting@CSTListCtrl@@QAEHHH@Z 100081e0 f   STListCtrl.obj
 0001:00007240       ?InitFont@CSTListCtrl@@QAEXH@Z 10008240 f   STListCtrl.obj
 0001:000073b0       ?OnCustomDraw@CSTListCtrl@@QAEXPAUtagNMHDR@@PAJ@Z 100083b0 f   STListCtrl.obj
 0001:000073f0       ?OnNMClk@CSTListCtrl@@QAEXPAUtagNMHDR@@PAJ@Z 100083f0 f   STListCtrl.obj
 0001:00007560       ?OnNMDblclk@CSTListCtrl@@QAEXPAUtagNMHDR@@PAJ@Z 10008560 f   STListCtrl.obj
 0001:00007760       ?OnNMRclick@CSTListCtrl@@QAEXPAUtagNMHDR@@PAJ@Z 10008760 f   STListCtrl.obj
 0001:00007b40       ?SetUserSetting@CSTListCtrl@@QAEXHHH@Z 10008b40 f   STListCtrl.obj
 0001:00007b90       ?_GetBaseClass@CSTListCtrl@@KGPAUCRuntimeClass@@XZ 10008b90 f   STListCtrl.obj
 0001:00007ba0       ___local_stdio_scanf_options 10008ba0 f i STListCtrl.obj
 0001:00007bb0       _sscanf                    10008bb0 f i STListCtrl.obj
 0001:00007be0       ??0CSTBasicTree@@QAE@XZ    10008be0 f   STTreeCtrl.obj
 0001:00007c30       ??0CSTExtTree@@QAE@XZ      10008c30 f   STTreeCtrl.obj
 0001:00007c80       ??0CSTTreeCtrl@@QAE@XZ     10008c80 f   STTreeCtrl.obj
 0001:00007cd0       ??1CSTBasicTree@@UAE@XZ    10008cd0 f   STTreeCtrl.obj
 0001:00007d00       ??1CSTExtTree@@UAE@XZ      10008d00 f   STTreeCtrl.obj
 0001:00007d30       ??1CSTTreeCtrl@@UAE@XZ     10008d30 f   STTreeCtrl.obj
 0001:00007d60       ??1STMNG_ITEMINFO_EX1@@QAE@XZ 10008d60 f i STTreeCtrl.obj
 0001:00007d80       ??_GCSTBasicTree@@UAEPAXI@Z 10008d80 f i STTreeCtrl.obj
 0001:00007d80       ??_ECSTBasicTree@@UAEPAXI@Z 10008d80 f i STTreeCtrl.obj
 0001:00007de0       ??_GCSTExtTree@@UAEPAXI@Z  10008de0 f i STTreeCtrl.obj
 0001:00007de0       ??_ECSTExtTree@@UAEPAXI@Z  10008de0 f i STTreeCtrl.obj
 0001:00007e40       ??_GCSTTreeCtrl@@UAEPAXI@Z 10008e40 f i STTreeCtrl.obj
 0001:00007e40       ??_ECSTTreeCtrl@@UAEPAXI@Z 10008e40 f i STTreeCtrl.obj
 0001:00007ea0       ??_ECTreeCtrl@@UAEPAXI@Z   10008ea0 f i STTreeCtrl.obj
 0001:00007ea0       ??_GCTreeCtrl@@UAEPAXI@Z   10008ea0 f i STTreeCtrl.obj
 0001:00007ee0       ?AddSTItem@CSTTreeCtrl@@UAEHPBD0@Z 10008ee0 f   STTreeCtrl.obj
 0001:00007fb0       ?Create@CSTTreeCtrl@@QAEHKABUtagRECT@@PAVCWnd@@I@Z 10008fb0 f   STTreeCtrl.obj
 0001:00008010       ?DeleteAllItemData@CSTTreeCtrl@@UAEXPAU_TREEITEM@@@Z 10009010 f   STTreeCtrl.obj
 0001:00008090       ?DeleteInfo@CSTTreeCtrl@@UAEXPAUSTTREEBASE_INFO@@@Z 10009090 f   STTreeCtrl.obj
 0001:000080e0       ?DeleteSTItem@CSTTreeCtrl@@UAEHPBD0@Z 100090e0 f   STTreeCtrl.obj
 0001:00008150       ?GetMessageMap@CSTBasicTree@@MBEPBUAFX_MSGMAP@@XZ 10009150 f   STTreeCtrl.obj
 0001:00008160       ?GetMessageMap@CSTExtTree@@MBEPBUAFX_MSGMAP@@XZ 10009160 f   STTreeCtrl.obj
 0001:00008170       ?GetMessageMap@CSTTreeCtrl@@MBEPBUAFX_MSGMAP@@XZ 10009170 f   STTreeCtrl.obj
 0001:00008180       ?GetSTFolderList@CLoadSTFile@@SAHPBDAAVCStringArray@@@Z 10009180 f i STTreeCtrl.obj
 0001:000082d0       ?GetThisMessageMap@CSTBasicTree@@KGPBUAFX_MSGMAP@@XZ 100092d0 f   STTreeCtrl.obj
 0001:000082e0       ?GetThisMessageMap@CSTExtTree@@KGPBUAFX_MSGMAP@@XZ 100092e0 f   STTreeCtrl.obj
 0001:000082f0       ?GetThisMessageMap@CSTTreeCtrl@@KGPBUAFX_MSGMAP@@XZ 100092f0 f   STTreeCtrl.obj
 0001:00008300       ?LoadSTFolderList@CSTTreeCtrl@@UAEXPAU_TREEITEM@@PBDPAUSTTREEFOLDER_INFO@@H@Z 10009300 f   STTreeCtrl.obj
 0001:000086c0       ?LoadSTTree@CSTBasicTree@@UAEXXZ 100096c0 f   STTreeCtrl.obj
 0001:000088e0       ?LoadSTTree@CSTExtTree@@UAEXXZ 100098e0 f   STTreeCtrl.obj
 0001:00008c70       ?OnCreate@CSTTreeCtrl@@IAEHPAUtagCREATESTRUCTA@@@Z 10009c70 f   STTreeCtrl.obj
 0001:00008d60       ?OnDblclk@CSTTreeCtrl@@IAEXPAUtagNMHDR@@PAJ@Z 10009d60 f   STTreeCtrl.obj
 0001:00008ef0       ?OnDestroy@CSTTreeCtrl@@IAEXXZ 10009ef0 f   STTreeCtrl.obj
 0001:00008f30       ?OnLButtonDown@CSTTreeCtrl@@IAEXIVCPoint@@@Z 10009f30 f   STTreeCtrl.obj
 0001:000090f0       ?SearchFolderItem@CSTTreeCtrl@@UAEPAU_TREEITEM@@PBD@Z 1000a0f0 f   STTreeCtrl.obj
 0001:000091c0       ?SearchItem@CSTTreeCtrl@@UAEPAU_TREEITEM@@PAU2@PBD@Z 1000a1c0 f   STTreeCtrl.obj
 0001:000092d0       ___local_stdio_printf_options 1000a2d0 f i STTreeCtrl.obj
 0001:000092e0       _sprintf                   1000a2e0 f i STTreeCtrl.obj
 0001:00009320       ??$SerializeElements@PAUSTFILEITEM@@@@YGXAAVCArchive@@PAPAUSTFILEITEM@@H@Z 1000a320 f i _STLoadmanager.obj
 0001:000093d0       ??0?$CList@PAUSTFILEITEM@@PAU1@@@QAE@H@Z 1000a3d0 f i _STLoadmanager.obj
 0001:00009410       ??0CSTLoadManager@@QAE@XZ  1000a410 f   _STLoadmanager.obj
 0001:00009490       ??1?$CList@PAUSTFILEITEM@@PAU1@@@UAE@XZ 1000a490 f i _STLoadmanager.obj
 0001:00009500       ??_E?$CList@PAUSTFILEITEM@@PAU1@@@UAEPAXI@Z 1000a500 f i _STLoadmanager.obj
 0001:00009500       ??_G?$CList@PAUSTFILEITEM@@PAU1@@@UAEPAXI@Z 1000a500 f i _STLoadmanager.obj
 0001:000095b0       ?AddFolder@CSTLoadManager@@IAEXPBD0@Z 1000a5b0 f   _STLoadmanager.obj
 0001:00009780       ?AddSTFile@CSTLoadManager@@IAEXPBD0@Z 1000a780 f   _STLoadmanager.obj
 0001:00009a50       ?AddTail@?$CList@PAUSTFILEITEM@@PAU1@@@QAEPAU__POSITION@@PAUSTFILEITEM@@@Z 1000aa50 f i _STLoadmanager.obj
 0001:00009ae0       ?AddTail@?$CList@PAUSTMNG_ITEMINFO@@PAU1@@@QAEPAU__POSITION@@PAUSTMNG_ITEMINFO@@@Z 1000aae0 f i _STLoadmanager.obj
 0001:00009c40       ?DeleteSTFile@CSTLoadManager@@QAEXHV?$CStringT@DV?$StrTraitMFC_DLL@DV?$ChTraitsCRT@D@ATL@@@@@ATL@@@Z 1000ac40 f   _STLoadmanager.obj
 0001:00009d80       ?DirectorySearch@CSTLoadManager@@IAEHPBD0H@Z 1000ad80 f   _STLoadmanager.obj
 0001:0000a0b0       ?GetFolderIndexFromFolderName@CSTLoadManager@@IAEHV?$CStringT@DV?$StrTraitMFC_DLL@DV?$ChTraitsCRT@D@ATL@@@@@ATL@@@Z 1000b0b0 f   _STLoadmanager.obj
 0001:0000a140       ?GetFolderName@CSTLoadManager@@IAEXV?$CStringT@DV?$StrTraitMFC_DLL@DV?$ChTraitsCRT@D@ATL@@@@@ATL@@AAV23@@Z 1000b140 f   _STLoadmanager.obj
 0001:0000a1d0       ?GetFolderST@CSTLoadManager@@UAGHK@Z 1000b1d0 f   _STLoadmanager.obj
 0001:0000a2e0       ?GetItemST@CSTLoadManager@@UAGHK@Z 1000b2e0 f   _STLoadmanager.obj
 0001:0000a430       ?GetRunSTItemInfo@CSTLoadManager@@QAEHV?$CStringT@DV?$StrTraitMFC_DLL@DV?$ChTraitsCRT@D@ATL@@@@@ATL@@AAUSTMNG_ITEMINFO@@@Z 1000b430 f   _STLoadmanager.obj
 0001:0000a5e0       ?GetSTFileList@CSTLoadManager@@KAHPBDAAVCStringArray@@@Z 1000b5e0 f   _STLoadmanager.obj
 0001:0000a7b0       ?GetSTFileList@CSTLoadManager@@KAHPBDHPAV?$CList@PAUSTFILEITEM@@PAU1@@@@Z 1000b7b0 f   _STLoadmanager.obj
 0001:0000add0       ?GetSelectedItem@CSTLoadManager@@QAEHAAUSTMNG_ITEMINFO@@@Z 1000bdd0 f   _STLoadmanager.obj
 0001:0000af10       ?Init@CSTLoadManager@@UAGXHV?$CStringT@DV?$StrTraitMFC_DLL@DV?$ChTraitsCRT@D@ATL@@@@@ATL@@PAVCImageList@@@Z 1000bf10 f   _STLoadmanager.obj
 0001:0000af60       ?IsSTTypeToLoad@CSTLoadManager@@IAEHAAV?$CStringT@DV?$StrTraitMFC_DLL@DV?$ChTraitsCRT@D@ATL@@@@@ATL@@0@Z 1000bf60 f   _STLoadmanager.obj
 0001:0000b060       ?LoadST2@CSTLoadManager@@UAGXPAVCWnd@@PAVCStringArray@@KHH@Z 1000c060 f   _STLoadmanager.obj
 0001:0000b0e0       ?LoadST@CSTLoadManager@@UAGXPAVCWnd@@PAVCStringArray@@KH@Z 1000c0e0 f   _STLoadmanager.obj
 0001:0000b140       ?LoadSTFolderList@CSTLoadManager@@IAEXPBD0H@Z 1000c140 f   _STLoadmanager.obj
 0001:0000b2c0       ?LoadSTList@CSTLoadManager@@IAEXH@Z 1000c2c0 f   _STLoadmanager.obj
 0001:0000b3d0       ?LoadSTListFromSTIndex@CSTLoadManager@@IAEXHH@Z 1000c3d0 f   _STLoadmanager.obj
 0001:0000be60       ?NewNode@?$CList@PAUSTFILEITEM@@PAU1@@@IAEPAUCNode@1@PAU21@0@Z 1000ce60 f i _STLoadmanager.obj
 0001:0000bed0       ?NewNode@?$CList@PAUSTMNG_ITEMINFO@@PAU1@@@IAEPAUCNode@1@PAU21@0@Z 1000ced0 f i _STLoadmanager.obj
 0001:0000bf40       ?RemoveAll@?$CList@PAUSTFILEITEM@@PAU1@@@QAEXXZ 1000cf40 f i _STLoadmanager.obj
 0001:0000bf70       ?SearchST@CSTLoadManager@@UAGHV?$CStringT@DV?$StrTraitMFC_DLL@DV?$ChTraitsCRT@D@ATL@@@@@ATL@@AAVCStringArray@@@Z 1000cf70 f   _STLoadmanager.obj
 0001:0000c0a0       ?Serialize@?$CList@PAUSTFILEITEM@@PAU1@@@UAEXAAVCArchive@@@Z 1000d0a0 f i _STLoadmanager.obj
 0001:0000c230       ?SetSelectedItem@CSTLoadManager@@UAGXHH@Z 1000d230 f   _STLoadmanager.obj
 0001:0000c290       ?SetSelectedItem@CSTLoadManager@@UAGXPAUSTMNG_ITEMINFO@@@Z 1000d290 f   _STLoadmanager.obj
 0001:0000c3d0       ?SetUseBoldFont@CSTLoadManager@@UAGXH@Z 1000d3d0 f i _STLoadmanager.obj
 0001:0000c3e0       ?UnloadST@CSTLoadManager@@UAGHXZ 1000d3e0 f   _STLoadmanager.obj
 0001:0000c440       ?UpdateST@CSTLoadManager@@UAGHHV?$CStringT@DV?$StrTraitMFC_DLL@DV?$ChTraitsCRT@D@ATL@@@@@ATL@@@Z 1000d440 f   _STLoadmanager.obj
 0001:0000c6a0       ??0CXEdit@@QAE@XZ          1000d6a0 f   XEdit.obj
 0001:0000c6d0       ??1CXEdit@@UAE@XZ          1000d6d0 f   XEdit.obj
 0001:0000c6e0       ??_ECEdit@@UAEPAXI@Z       1000d6e0 f i XEdit.obj
 0001:0000c6e0       ??_GCEdit@@UAEPAXI@Z       1000d6e0 f i XEdit.obj
 0001:0000c720       ??_GCXEdit@@UAEPAXI@Z      1000d720 f i XEdit.obj
 0001:0000c720       ??_ECXEdit@@UAEPAXI@Z      1000d720 f i XEdit.obj
 0001:0000c770       ?GetMessageMap@CXEdit@@MBEPBUAFX_MSGMAP@@XZ 1000d770 f   XEdit.obj
 0001:0000c780       ?GetThisMessageMap@CXEdit@@KGPBUAFX_MSGMAP@@XZ 1000d780 f   XEdit.obj
 0001:0000c790       ?OnChar@CXEdit@@IAEXIII@Z  1000d790 f   XEdit.obj
 0001:0000ca60       ?OnKeyDown@CXEdit@@IAEXIII@Z 1000da60 f   XEdit.obj
 0001:0000cb40       ??0CXHeaderCtrl@@QAE@XZ    1000db40 f   XHeaderCtrl.obj
 0001:0000cc10       ??1CMemDC@@UAE@XZ          1000dc10 f i XHeaderCtrl.obj
 0001:0000ccd0       ??1CXHeaderCtrl@@UAE@XZ    1000dcd0 f   XHeaderCtrl.obj
 0001:0000cce0       ??_GCHeaderCtrl@@UAEPAXI@Z 1000dce0 f i XHeaderCtrl.obj
 0001:0000cce0       ??_ECHeaderCtrl@@UAEPAXI@Z 1000dce0 f i XHeaderCtrl.obj
 0001:0000cd20       ??_ECMemDC@@UAEPAXI@Z      1000dd20 f i XHeaderCtrl.obj
 0001:0000cd20       ??_GCMemDC@@UAEPAXI@Z      1000dd20 f i XHeaderCtrl.obj
 0001:0000cd60       ??_ECXHeaderCtrl@@UAEPAXI@Z 1000dd60 f i XHeaderCtrl.obj
 0001:0000cd60       ??_GCXHeaderCtrl@@UAEPAXI@Z 1000dd60 f i XHeaderCtrl.obj
 0001:0000cdb0       ?CreateObject@CXHeaderCtrl@@SGPAVCObject@@XZ 1000ddb0 f   XHeaderCtrl.obj
 0001:0000ced0       ?DrawBitmap@CXHeaderCtrl@@IAEHPAVCDC@@VCRect@@PAU_HD_ITEMA@@PAVCBitmap@@PAUtagBITMAP@@H@Z 1000ded0 f   XHeaderCtrl.obj
 0001:0000d010       ?DrawCtrl@CXHeaderCtrl@@IAEXPAVCDC@@@Z 1000e010 f   XHeaderCtrl.obj
 0001:0000d580       ?DrawImage@CXHeaderCtrl@@IAEHPAVCDC@@VCRect@@PAU_HD_ITEMA@@H@Z 1000e580 f   XHeaderCtrl.obj
 0001:0000d6a0       ?DrawItem@CXHeaderCtrl@@UAEXPAUtagDRAWITEMSTRUCT@@@Z 1000e6a0 f   XHeaderCtrl.obj
 0001:0000d6b0       ?DrawItem@CXHeaderCtrl@@UAEXPAVCDC@@VCRect@@PAU_HD_ITEMA@@@Z 1000e6b0 f   XHeaderCtrl.obj
 0001:0000d980       ?DrawTextA@CXHeaderCtrl@@IAEHPAVCDC@@VCRect@@PAU_HD_ITEMA@@@Z 1000e980 f   XHeaderCtrl.obj
 0001:0000da20       ?DrawTextExA@CDC@@UAEHPADHPAUtagRECT@@IPAUtagDRAWTEXTPARAMS@@@Z 1000ea20 f i XHeaderCtrl.obj
 0001:0000da40       ?Escape@CDC@@UAEHHHPBDPAX@Z 1000ea40 f i XHeaderCtrl.obj
 0001:0000da60       ?ExtTextOutA@CDC@@UAEHHHIPBUtagRECT@@PBDIPAH@Z 1000ea60 f i XHeaderCtrl.obj
 0001:0000da90       ?GetMessageMap@CXHeaderCtrl@@MBEPBUAFX_MSGMAP@@XZ 1000ea90 f   XHeaderCtrl.obj
 0001:0000daa0       ?GetRuntimeClass@CXHeaderCtrl@@UBEPAUCRuntimeClass@@XZ 1000eaa0 f   XHeaderCtrl.obj
 0001:0000dab0       ?GetThisClass@CXHeaderCtrl@@SGPAUCRuntimeClass@@XZ 1000eab0 f   XHeaderCtrl.obj
 0001:0000dac0       ?GetThisMessageMap@CXHeaderCtrl@@KGPBUAFX_MSGMAP@@XZ 1000eac0 f   XHeaderCtrl.obj
 0001:0000dad0       ?GrayStringA@CDC@@UAEHPAVCBrush@@P6GHPAUHDC__@@JH@ZJHHHHH@Z 1000ead0 f i XHeaderCtrl.obj
 0001:0000db00       ?ModifyProperty@CXHeaderCtrl@@QAEHIJ@Z 1000eb00 f   XHeaderCtrl.obj
 0001:0000db80       ?OnDeleteItem@CXHeaderCtrl@@IAEJIJ@Z 1000eb80 f   XHeaderCtrl.obj
 0001:0000db90       ?OnEraseBkgnd@CXHeaderCtrl@@IAEHPAVCDC@@@Z 1000eb90 f   XHeaderCtrl.obj
 0001:0000dba0       ?OnInsertItem@CXHeaderCtrl@@IAEJIJ@Z 1000eba0 f   XHeaderCtrl.obj
 0001:0000dbb0       ?OnLayout@CXHeaderCtrl@@IAEJIJ@Z 1000ebb0 f   XHeaderCtrl.obj
 0001:0000dbf0       ?OnPaint@CXHeaderCtrl@@IAEXXZ 1000ebf0 f   XHeaderCtrl.obj
 0001:0000dd60       ?OnSetImageList@CXHeaderCtrl@@IAEJIJ@Z 1000ed60 f   XHeaderCtrl.obj
 0001:0000ddc0       ?OnSysColorChange@CXHeaderCtrl@@IAEXXZ 1000edc0 f   XHeaderCtrl.obj
 0001:0000de00       ?PtVisible@CDC@@UBEHHH@Z   1000ee00 f i XHeaderCtrl.obj
 0001:0000de20       ?RectVisible@CDC@@UBEHPBUtagRECT@@@Z 1000ee20 f i XHeaderCtrl.obj
 0001:0000de40       ?SetSortImage@CXHeaderCtrl@@QAEXHH@Z 1000ee40 f   XHeaderCtrl.obj
 0001:0000de60       ?TabbedTextOutA@CDC@@UAE?AVCSize@@HHPBDHHPAHH@Z 1000ee60 f i XHeaderCtrl.obj
 0001:0000dea0       ?TextOutA@CDC@@UAEHHHPBDH@Z 1000eea0 f i XHeaderCtrl.obj
 0001:0000dec0       ?_GetBaseClass@CXHeaderCtrl@@KGPAUCRuntimeClass@@XZ 1000eec0 f   XHeaderCtrl.obj
 0001:0000ded0       ??0CXListCtrl@@QAE@XZ      1000eed0 f   XListCtrl.obj
 0001:0000e010       ??0XLISTCTRLDATA@@QAE@XZ   1000f010 f i XListCtrl.obj
 0001:0000e0f0       ??1CXListCtrl@@UAE@XZ      1000f0f0 f   XListCtrl.obj
 0001:0000e140       ??1XLISTCTRLDATA@@QAE@XZ   1000f140 f i XListCtrl.obj
 0001:0000e150       ??_EXLISTCTRLDATA@@QAEPAXI@Z 1000f150 f i XListCtrl.obj
 0001:0000e200       ??_ECXListCtrl@@UAEPAXI@Z  1000f200 f i XListCtrl.obj
 0001:0000e200       ??_GCXListCtrl@@UAEPAXI@Z  1000f200 f i XListCtrl.obj
 0001:0000e280       ?CountCheckedItems@CXListCtrl@@QAEHH@Z 1000f280 f   XListCtrl.obj
 0001:0000e310       ?DeleteAllItems@CXListCtrl@@QAEHXZ 1000f310 f   XListCtrl.obj
 0001:0000e3f0       ?DeleteItem@CXListCtrl@@QAEHH@Z 1000f3f0 f   XListCtrl.obj
 0001:0000e460       ?DeleteProgress@CXListCtrl@@QAEXHH@Z 1000f460 f   XListCtrl.obj
 0001:0000e4e0       ?DrawCheckbox@CXListCtrl@@IAEXHHPAVCDC@@KKAAVCRect@@PAUXLISTCTRLDATA@@@Z 1000f4e0 f   XListCtrl.obj
 0001:0000e780       ?DrawImage@CXListCtrl@@IAEHHHPAVCDC@@KKVCRect@@PAUXLISTCTRLDATA@@@Z 1000f780 f   XListCtrl.obj
 0001:0000e920       ?DrawProgress@CXListCtrl@@IAEXHHPAVCDC@@KKAAVCRect@@PAUXLISTCTRLDATA@@@Z 1000f920 f   XListCtrl.obj
 0001:0000ecd0       ?DrawTextA@CXListCtrl@@IAEXHHPAVCDC@@KKAAVCRect@@PAUXLISTCTRLDATA@@@Z 1000fcd0 f   XListCtrl.obj
 0001:0000eeb0       ?GetBold@CXListCtrl@@QAEHHH@Z 1000feb0 f   XListCtrl.obj
 0001:0000ef30       ?GetCheckbox@CXListCtrl@@QAEHHH@Z 1000ff30 f   XListCtrl.obj
 0001:0000efb0       ?GetColumns@CXListCtrl@@QAEHXZ 1000ffb0 f   XListCtrl.obj
 0001:0000efd0       ?GetComboText@CXListCtrl@@QAE?AV?$CStringT@DV?$StrTraitMFC_DLL@DV?$ChTraitsCRT@D@ATL@@@@@ATL@@HH@Z 1000ffd0 f   XListCtrl.obj
 0001:0000f0d0       ?GetCurSel@CXListCtrl@@QAEHXZ 100100d0 f   XListCtrl.obj
 0001:0000f110       ?GetDrawColors@CXListCtrl@@MAEXHHAAK0@Z 10010110 f   XListCtrl.obj
 0001:0000f240       ?GetEnabled@CXListCtrl@@QAEHH@Z 10010240 f   XListCtrl.obj
 0001:0000f280       ?GetHeaderCheckedState@CXListCtrl@@QAEHH@Z 10010280 f   XListCtrl.obj
 0001:0000f2e0       ?GetItemCount@CListCtrl@@QBEHXZ 100102e0 f i XListCtrl.obj
 0001:0000f300       ?GetItemData@CXListCtrl@@QAEKH@Z 10010300 f   XListCtrl.obj
 0001:0000f350       ?GetMessageMap@CXListCtrl@@MBEPBUAFX_MSGMAP@@XZ 10010350 f   XListCtrl.obj
 0001:0000f360       ?GetSubItemRect@CXListCtrl@@QAEHHHHAAVCRect@@@Z 10010360 f   XListCtrl.obj
 0001:0000f430       ?GetThisMessageMap@CXListCtrl@@KGPBUAFX_MSGMAP@@XZ 10010430 f   XListCtrl.obj
 0001:0000f440       ?InsertItem@CXListCtrl@@QAEHHPBD@Z 10010440 f   XListCtrl.obj
 0001:0000f580       ?InsertItem@CXListCtrl@@QAEHHPBDKK@Z 10010580 f   XListCtrl.obj
 0001:0000f6b0       ?InsertItem@CXListCtrl@@QAEHPBUtagLVITEMA@@@Z 100106b0 f   XListCtrl.obj
 0001:0000f7e0       ?OnClick@CXListCtrl@@IAEHPAUtagNMHDR@@PAJ@Z 100107e0 f   XListCtrl.obj
 0001:0000f850       ?OnColumnClick@CXListCtrl@@IAEHPAUtagNMHDR@@PAJ@Z 10010850 f   XListCtrl.obj
 0001:0000f960       ?OnCreate@CXListCtrl@@IAEHPAUtagCREATESTRUCTA@@@Z 10010960 f   XListCtrl.obj
 0001:0000f9b0       ?OnCustomDraw@CXListCtrl@@IAEXPAUtagNMHDR@@PAJ@Z 100109b0 f   XListCtrl.obj
 0001:0000fca0       ?OnDblclk@CXListCtrl@@IAEHPAUtagNMHDR@@PAJ@Z 10010ca0 f   XListCtrl.obj
 0001:0000ff60       ?OnDestroy@CXListCtrl@@IAEXXZ 10010f60 f   XListCtrl.obj
 0001:00010030       ?OnEditEscape@CXListCtrl@@IAEJIJ@Z 10011030 f   XListCtrl.obj
 0001:000100f0       ?OnEditReturn@CXListCtrl@@IAEJIJ@Z 100110f0 f   XListCtrl.obj
 0001:000101a0       ?OnLButtonDown@CXListCtrl@@IAEXIVCPoint@@@Z 100111a0 f   XListCtrl.obj
 0001:000103d0       ?OnPaint@CXListCtrl@@IAEXXZ 100113d0 f   XListCtrl.obj
 0001:000103e0       ?OnSysColorChange@CXListCtrl@@IAEXXZ 100113e0 f   XListCtrl.obj
 0001:00010480       ?PreSubclassWindow@CXListCtrl@@UAEXXZ 10011480 f   XListCtrl.obj
 0001:000104c0       ?PreTranslateMessage@CXListCtrl@@UAEHPAUtagMSG@@@Z 100114c0 f   XListCtrl.obj
 0001:000105a0       ?SetBold@CXListCtrl@@QAEHHHH@Z 100115a0 f   XListCtrl.obj
 0001:00010630       ?SetCheckbox@CXListCtrl@@QAEHHHH@Z 10011630 f   XListCtrl.obj
 0001:00010700       ?SetComboBox@CXListCtrl@@QAEHHHHPAVCStringArray@@HH@Z 10011700 f   XListCtrl.obj
 0001:00010860       ?SetCurSel@CXListCtrl@@QAEHHH@Z 10011860 f   XListCtrl.obj
 0001:00010890       ?SetEditBox@CXListCtrl@@QAEHHHH@Z 10011890 f   XListCtrl.obj
 0001:00010920       ?SetEnabled@CXListCtrl@@QAEHHH@Z 10011920 f   XListCtrl.obj
 0001:000109c0       ?SetHeaderCheckedState@CXListCtrl@@QAEHHH@Z 100119c0 f   XListCtrl.obj
 0001:00010a30       ?SetItem@CXListCtrl@@QAEHPBUtagLVITEMA@@@Z 10011a30 f   XListCtrl.obj
 0001:00010aa0       ?SetItemData@CXListCtrl@@QAEHHK@Z 10011aa0 f   XListCtrl.obj
 0001:00010af0       ?SetItemImage@CXListCtrl@@QAEHHHH@Z 10011af0 f   XListCtrl.obj
 0001:00010b80       ?SetItemText@CXListCtrl@@QAEHHHPBD@Z 10011b80 f   XListCtrl.obj
 0001:00010c00       ?SetItemText@CXListCtrl@@QAEHHHPBDKK@Z 10011c00 f   XListCtrl.obj
 0001:00010cd0       ?SetProgress@CXListCtrl@@QAEHHHHPBD@Z 10011cd0 f   XListCtrl.obj
 0001:00010d80       ?SetSortImage@CXListCtrl@@QAEXHH@Z 10011d80 f   XListCtrl.obj
 0001:00010dd0       ?SubclassHeaderControl@CXListCtrl@@IAEXXZ 10011dd0 f   XListCtrl.obj
 0001:00010e00       ?UnpressEditBox@CXListCtrl@@QAEXXZ 10011e00 f   XListCtrl.obj
 0001:00010e60       ?UpdateProgress@CXListCtrl@@QAEXHHH@Z 10011e60 f   XListCtrl.obj
 0001:00010ee0       ?UpdateSubItem@CXListCtrl@@QAEXHH@Z 10011ee0 f   XListCtrl.obj
 0001:00010f80       ??0CBitmapItemComboBox@@QAE@XZ 10011f80 f   BitmapItemComboBox.obj
 0001:00010fb0       ??1CBitmapItemComboBox@@UAE@XZ 10011fb0 f   BitmapItemComboBox.obj
 0001:00010fe0       ??1CBrush@@UAE@XZ          10011fe0 f i BitmapItemComboBox.obj
 0001:00011000       ??_ECBitmapItemComboBox@@UAEPAXI@Z 10012000 f i BitmapItemComboBox.obj
 0001:00011000       ??_GCBitmapItemComboBox@@UAEPAXI@Z 10012000 f i BitmapItemComboBox.obj
 0001:00011060       ??_GCBrush@@UAEPAXI@Z      10012060 f i BitmapItemComboBox.obj
 0001:00011060       ??_ECBrush@@UAEPAXI@Z      10012060 f i BitmapItemComboBox.obj
 0001:000110a0       ??_ECComboBox@@UAEPAXI@Z   100120a0 f i BitmapItemComboBox.obj
 0001:000110a0       ??_GCComboBox@@UAEPAXI@Z   100120a0 f i BitmapItemComboBox.obj
 0001:000110e0       ?DrawItem@CBitmapItemComboBox@@UAEXPAUtagDRAWITEMSTRUCT@@@Z 100120e0 f   BitmapItemComboBox.obj
 0001:00011270       ?GetMessageMap@CBitmapItemComboBox@@MBEPBUAFX_MSGMAP@@XZ 10012270 f   BitmapItemComboBox.obj
 0001:00011280       ?GetThisMessageMap@CBitmapItemComboBox@@KGPBUAFX_MSGMAP@@XZ 10012280 f   BitmapItemComboBox.obj
 0001:00011290       ?MeasureItem@CBitmapItemComboBox@@UAEXPAUtagMEASUREITEMSTRUCT@@@Z 10012290 f   BitmapItemComboBox.obj
 0001:000112b0       ??0CColorButton@@QAE@XZ    100122b0 f   ColorButton.obj
 0001:00011330       ??1CColorButton@@UAE@XZ    10012330 f   ColorButton.obj
 0001:00011350       ??_ECButton@@UAEPAXI@Z     10012350 f i ColorButton.obj
 0001:00011350       ??_GCButton@@UAEPAXI@Z     10012350 f i ColorButton.obj
 0001:00011390       ??_GCColorButton@@UAEPAXI@Z 10012390 f i ColorButton.obj
 0001:00011390       ??_ECColorButton@@UAEPAXI@Z 10012390 f i ColorButton.obj
 0001:000113e0       ?DrawItem@CColorButton@@UAEXPAUtagDRAWITEMSTRUCT@@@Z 100123e0 f   ColorButton.obj
 0001:00011500       ?EnableWindow@CColorButton@@QAEHH@Z 10012500 f   ColorButton.obj
 0001:00011520       ?GetBtnText@CColorButton@@QAE?AV?$CStringT@DV?$StrTraitMFC_DLL@DV?$ChTraitsCRT@D@ATL@@@@@ATL@@XZ 10012520 f   ColorButton.obj
 0001:00011540       ?GetMessageMap@CColorButton@@MBEPBUAFX_MSGMAP@@XZ 10012540 f   ColorButton.obj
 0001:00011550       ?GetThisMessageMap@CColorButton@@KGPBUAFX_MSGMAP@@XZ 10012550 f   ColorButton.obj
 0001:00011560       ?SetBtnText@CColorButton@@QAEXPBD@Z 10012560 f   ColorButton.obj
 0001:00011580       ?SetColor@CColorButton@@QAEXABK@Z 10012580 f   ColorButton.obj
 0001:000115a0       ??0CColoredStatic@@QAE@XZ  100125a0 f   ColoredStatic.obj
 0001:00011610       ??1CColoredStatic@@UAE@XZ  10012610 f   ColoredStatic.obj
 0001:00011640       ??_GCColoredStatic@@UAEPAXI@Z 10012640 f i ColoredStatic.obj
 0001:00011640       ??_ECColoredStatic@@UAEPAXI@Z 10012640 f i ColoredStatic.obj
 0001:000116a0       ??_ECStatic@@UAEPAXI@Z     100126a0 f i ColoredStatic.obj
 0001:000116a0       ??_GCStatic@@UAEPAXI@Z     100126a0 f i ColoredStatic.obj
 0001:000116e0       ?GetMessageMap@CColoredStatic@@MBEPBUAFX_MSGMAP@@XZ 100126e0 f   ColoredStatic.obj
 0001:000116f0       ?GetThisMessageMap@CColoredStatic@@KGPBUAFX_MSGMAP@@XZ 100126f0 f   ColoredStatic.obj
 0001:00011700       ?GetWindowTextA@CColoredStatic@@QAE?AV?$CStringT@DV?$StrTraitMFC_DLL@DV?$ChTraitsCRT@D@ATL@@@@@ATL@@XZ 10012700 f   ColoredStatic.obj
 0001:00011720       ?OnDestroy@CColoredStatic@@IAEXXZ 10012720 f   ColoredStatic.obj
 0001:00011740       ?OnPaint@CColoredStatic@@IAEXXZ 10012740 f   ColoredStatic.obj
 0001:00011870       ?SetBkColor@CColoredStatic@@QAEXHK@Z 10012870 f   ColoredStatic.obj
 0001:00011890       ?SetBorder@CColoredStatic@@QAEXHK@Z 10012890 f   ColoredStatic.obj
 0001:000118c0       ?SetWindowTextA@CColoredStatic@@QAEXPBD@Z 100128c0 f   ColoredStatic.obj
 0001:000118f0       ??$SerializeElements@VCElementInLogic@@@@YGXAAVCArchive@@PAVCElementInLogic@@H@Z 100128f0 f i LogicEditCtrl.obj
 0001:000119a0       ??0?$CArray@VCElementInLogic@@AAV1@@@QAE@XZ 100129a0 f i LogicEditCtrl.obj
 0001:000119d0       ??0CLogicEditCtrl@@QAE@XZ  100129d0 f   LogicEditCtrl.obj
 0001:00011af0       ??1?$CArray@VCElementInLogic@@AAV1@@@UAE@XZ 10012af0 f i LogicEditCtrl.obj
 0001:00011b40       ??1CElementInLogic@@QAE@XZ 10012b40 f i LogicEditCtrl.obj
 0001:00011b50       ??1CLogicEditCtrl@@UAE@XZ  10012b50 f   LogicEditCtrl.obj
 0001:00011bd0       ??_E?$CArray@VCElementInLogic@@AAV1@@@UAEPAXI@Z 10012bd0 f i LogicEditCtrl.obj
 0001:00011bd0       ??_G?$CArray@VCElementInLogic@@AAV1@@@UAEPAXI@Z 10012bd0 f i LogicEditCtrl.obj
 0001:00011c10       ??_GCLogicEditCtrl@@UAEPAXI@Z 10012c10 f i LogicEditCtrl.obj
 0001:00011c10       ??_ECLogicEditCtrl@@UAEPAXI@Z 10012c10 f i LogicEditCtrl.obj
 0001:00011cc0       ??_GCRichEditCtrl@@UAEPAXI@Z 10012cc0 f i LogicEditCtrl.obj
 0001:00011cc0       ??_ECRichEditCtrl@@UAEPAXI@Z 10012cc0 f i LogicEditCtrl.obj
 0001:00011d00       ?AddElement@CLogicEditCtrl@@QAEXD@Z 10012d00 f   LogicEditCtrl.obj
 0001:00011e40       ?AfxCrtErrorCheck@@YAHH@Z  10012e40 f i LogicEditCtrl.obj
 0001:00011ed0       ?ChangeElement@CLogicEditCtrl@@QAEXH@Z 10012ed0 f   LogicEditCtrl.obj
 0001:00012040       ?ChangeOperation@CLogicEditCtrl@@QAEXPBD@Z 10013040 f   LogicEditCtrl.obj
 0001:000121b0       ?DeleteAllElement@CLogicEditCtrl@@QAEXXZ 100131b0 f   LogicEditCtrl.obj
 0001:00012270       ?DeleteElement@CLogicEditCtrl@@QAEXD@Z 10013270 f   LogicEditCtrl.obj
 0001:00012500       ?GetLogic@CLogicEditCtrl@@QAE?AV?$CStringT@DV?$StrTraitMFC_DLL@DV?$ChTraitsCRT@D@ATL@@@@@ATL@@XZ 10013500 f   LogicEditCtrl.obj
 0001:000126a0       ?GetMessageMap@CLogicEditCtrl@@MBEPBUAFX_MSGMAP@@XZ 100136a0 f   LogicEditCtrl.obj
 0001:000126b0       ?GetThisMessageMap@CLogicEditCtrl@@KGPBUAFX_MSGMAP@@XZ 100136b0 f   LogicEditCtrl.obj
 0001:000126c0       ?InsertAt@?$CArray@VCElementInLogic@@AAV1@@@QAEXHAAVCElementInLogic@@H@Z 100136c0 f i LogicEditCtrl.obj
 0001:00012890       ?OnLButtonDown@CLogicEditCtrl@@IAEXIVCPoint@@@Z 10013890 f   LogicEditCtrl.obj
 0001:000128d0       ?OnLButtonUp@CLogicEditCtrl@@IAEXIVCPoint@@@Z 100138d0 f   LogicEditCtrl.obj
 0001:00012c00       ?Parenthesize@CLogicEditCtrl@@QAEXXZ 10013c00 f   LogicEditCtrl.obj
 0001:00012e80       ?PreTranslateMessage@CLogicEditCtrl@@UAEHPAUtagMSG@@@Z 10013e80 f   LogicEditCtrl.obj
 0001:00012ea0       ?RemoveAt@?$CArray@VCElementInLogic@@AAV1@@@QAEXHH@Z 10013ea0 f i LogicEditCtrl.obj
 0001:00012f80       ?Serialize@?$CArray@VCElementInLogic@@AAV1@@@UAEXAAVCArchive@@@Z 10013f80 f i LogicEditCtrl.obj
 0001:00013060       ?SetAtGrow@?$CArray@VCElementInLogic@@AAV1@@@QAEXHAAVCElementInLogic@@@Z 10014060 f i LogicEditCtrl.obj
 0001:000130c0       ?SetLogic@CLogicEditCtrl@@QAEXPBD@Z 100140c0 f   LogicEditCtrl.obj
 0001:00013380       ?SetSize@?$CArray@VCElementInLogic@@AAV1@@@QAEXHH@Z 10014380 f i LogicEditCtrl.obj
 0001:00013760       ?SwapElement@CLogicEditCtrl@@QAEXDD@Z 10014760 f   LogicEditCtrl.obj
 0001:00013a30       ?Unparenthesize@CLogicEditCtrl@@QAEXXZ 10014a30 f   LogicEditCtrl.obj
 0001:00013c30       ?UpdateLogic@CLogicEditCtrl@@AAEXXZ 10014c30 f   LogicEditCtrl.obj
 0001:00014300       ??0CxSkinButton@@QAE@XZ    10015300 f   xSkinButton.obj
 0001:00014410       ??1CxSkinButton@@UAE@XZ    10015410 f   xSkinButton.obj
 0001:000144b0       ??_GCxSkinButton@@UAEPAXI@Z 100154b0 f i xSkinButton.obj
 0001:000144b0       ??_ECxSkinButton@@UAEPAXI@Z 100154b0 f i xSkinButton.obj
 0001:00014580       ?CreateRgnFromBitmap@CxSkinButton@@IAEPAUHRGN__@@PAUHBITMAP__@@K@Z 10015580 f   xSkinButton.obj
 0001:00014830       ?DrawBitmap@CxSkinButton@@IAEXPAVCDC@@PAUHBITMAP__@@UtagRECT@@H@Z 10015830 f   xSkinButton.obj
 0001:00014c50       ?DrawItem@CxSkinButton@@UAEXPAUtagDRAWITEMSTRUCT@@@Z 10015c50 f   xSkinButton.obj
 0001:00014fe0       ?FillWithBitmap@CxSkinButton@@IAEXPAVCDC@@PAUHBITMAP__@@UtagRECT@@@Z 10015fe0 f   xSkinButton.obj
 0001:00015110       ?GetBitmapHeight@CxSkinButton@@IAEHPAUHBITMAP__@@@Z 10016110 f   xSkinButton.obj
 0001:00015130       ?GetBitmapWidth@CxSkinButton@@IAEHPAUHBITMAP__@@@Z 10016130 f   xSkinButton.obj
 0001:00015150       ?GetMessageMap@CxSkinButton@@MBEPBUAFX_MSGMAP@@XZ 10016150 f   xSkinButton.obj
 0001:00015160       ?GetThisMessageMap@CxSkinButton@@KGPBUAFX_MSGMAP@@XZ 10016160 f   xSkinButton.obj
 0001:00015170       ?OnBMGetCheck@CxSkinButton@@IAEJIJ@Z 10016170 f   xSkinButton.obj
 0001:00015180       ?OnBMSetCheck@CxSkinButton@@IAEJIJ@Z 10016180 f   xSkinButton.obj
 0001:00015230       ?OnClicked@CxSkinButton@@IAEHXZ 10016230 f   xSkinButton.obj
 0001:00015250       ?OnEraseBkgnd@CxSkinButton@@IAEHPAVCDC@@@Z 10016250 f   xSkinButton.obj
 0001:00015260       ?OnKeyDown@CxSkinButton@@IAEXIII@Z 10016260 f   xSkinButton.obj
 0001:000152c0       ?OnKillFocus@CxSkinButton@@IAEXPAVCWnd@@@Z 100162c0 f   xSkinButton.obj
 0001:000152f0       ?OnLButtonDblClk@CxSkinButton@@IAEXIVCPoint@@@Z 100162f0 f   xSkinButton.obj
 0001:00015320       ?OnLButtonDown@CxSkinButton@@IAEXIVCPoint@@@Z 10016320 f   xSkinButton.obj
 0001:000153d0       ?OnLButtonUp@CxSkinButton@@IAEXIVCPoint@@@Z 100163d0 f   xSkinButton.obj
 0001:000154c0       ?OnMouseLeave@CxSkinButton@@IAEJIJ@Z 100164c0 f   xSkinButton.obj
 0001:000154e0       ?OnMouseMove@CxSkinButton@@IAEXIVCPoint@@@Z 100164e0 f   xSkinButton.obj
 0001:00015600       ?OnRadioInfo@CxSkinButton@@IAEJIJ@Z 10016600 f   xSkinButton.obj
 0001:00015630       ?PreSubclassWindow@CxSkinButton@@MAEXXZ 10016630 f   xSkinButton.obj
 0001:00015690       ?RelayEvent@CxSkinButton@@IAEXIIJ@Z 10016690 f   xSkinButton.obj
 0001:000156f0       ?SetSkin@CxSkinButton@@QAEXIIIIIIFFF@Z 100166f0 f   xSkinButton.obj
 0001:00015920       ?SetSkin@CxSkinButton@@QAEXV?$CStringT@DV?$StrTraitMFC_DLL@DV?$ChTraitsCRT@D@ATL@@@@@ATL@@00000FFF@Z 10016920 f   xSkinButton.obj
 0001:00015bc0       ?SetTextColor@CxSkinButton@@QAEKK@Z 10016bc0 f   xSkinButton.obj
 0001:00015be0       ?SetToolTipText@CxSkinButton@@QAEXV?$CStringT@DV?$StrTraitMFC_DLL@DV?$ChTraitsCRT@D@ATL@@@@@ATL@@@Z 10016be0 f   xSkinButton.obj
 0001:00015c90       ??$SerializeElements@H@@YGXAAVCArchive@@PAHH@Z 10016c90 f i XTabCtrl.obj
 0001:00015d40       ??0?$CArray@HH@@QAE@XZ     10016d40 f i XTabCtrl.obj
 0001:00015d70       ??0CXTabCtrl@@QAE@XZ       10016d70 f   XTabCtrl.obj
 0001:00015ea0       ??1?$CArray@HH@@UAE@XZ     10016ea0 f i XTabCtrl.obj
 0001:00015ec0       ??1CXTabCtrl@@UAE@XZ       10016ec0 f   XTabCtrl.obj
 0001:00015f60       ??_E?$CArray@HH@@UAEPAXI@Z 10016f60 f i XTabCtrl.obj
 0001:00015f60       ??_G?$CArray@HH@@UAEPAXI@Z 10016f60 f i XTabCtrl.obj
 0001:00015fb0       ??_GCTabCtrl@@UAEPAXI@Z    10016fb0 f i XTabCtrl.obj
 0001:00015fb0       ??_ECTabCtrl@@UAEPAXI@Z    10016fb0 f i XTabCtrl.obj
 0001:00015ff0       ??_GCXTabCtrl@@UAEPAXI@Z   10016ff0 f i XTabCtrl.obj
 0001:00015ff0       ??_ECXTabCtrl@@UAEPAXI@Z   10016ff0 f i XTabCtrl.obj
 0001:000160d0       ?AddTab@CXTabCtrl@@QAEXPAVCWnd@@PADH@Z 100170d0 f   XTabCtrl.obj
 0001:000161d0       ?ChangeTab@CXTabCtrl@@QAEXHPAVCWnd@@PADH@Z 100171d0 f   XTabCtrl.obj
 0001:00016290       ?DeleteAllTabs@CXTabCtrl@@QAEXXZ 10017290 f   XTabCtrl.obj
 0001:000162e0       ?DeleteTab@CXTabCtrl@@QAEXH@Z 100172e0 f   XTabCtrl.obj
 0001:00016380       ?DrawGradientTab@CXTabCtrl@@QAEXPAVCDC@@VCRect@@@Z 10017380 f   XTabCtrl.obj
 0001:00016530       ?DrawItem@CXTabCtrl@@MAEXPAUtagDRAWITEMSTRUCT@@@Z 10017530 f   XTabCtrl.obj
 0001:00016b20       ?DrawLine@CXTabCtrl@@QAEXVCPoint@@0PAVCDC@@K@Z 10017b20 f   XTabCtrl.obj
 0001:00016be0       ?EnableTab@CXTabCtrl@@QAEXHH@Z 10017be0 f   XTabCtrl.obj
 0001:00016c60       ?GetMessageMap@CXTabCtrl@@MBEPBUAFX_MSGMAP@@XZ 10017c60 f   XTabCtrl.obj
 0001:00016c70       ?GetThisMessageMap@CXTabCtrl@@KGPBUAFX_MSGMAP@@XZ 10017c70 f   XTabCtrl.obj
 0001:00016c80       ?IsTabEnabled@CXTabCtrl@@QAEHH@Z 10017c80 f   XTabCtrl.obj
 0001:00016cb0       ?OnEraseBkgnd@CXTabCtrl@@IAEHPAVCDC@@@Z 10017cb0 f   XTabCtrl.obj
 0001:00016d10       ?OnLButtonDown@CXTabCtrl@@IAEXIVCPoint@@@Z 10017d10 f   XTabCtrl.obj
 0001:00016d50       ?OnLButtonUp@CXTabCtrl@@IAEXIVCPoint@@@Z 10017d50 f   XTabCtrl.obj
 0001:00016d90       ?OnMouseMove@CXTabCtrl@@IAEXIVCPoint@@@Z 10017d90 f   XTabCtrl.obj
 0001:00016de0       ?OnPaint@CXTabCtrl@@IAEXXZ 10017de0 f   XTabCtrl.obj
 0001:000170a0       ?OnSelchange@CXTabCtrl@@IAEHPAUtagNMHDR@@PAJ@Z 100180a0 f   XTabCtrl.obj
 0001:000171e0       ?OnSelchanging@CXTabCtrl@@IAEHPAUtagNMHDR@@PAJ@Z 100181e0 f   XTabCtrl.obj
 0001:00017220       ?OnSize@CXTabCtrl@@IAEXIHH@Z 10018220 f   XTabCtrl.obj
 0001:000172a0       ?OnTimer@CXTabCtrl@@IAEXI@Z 100182a0 f   XTabCtrl.obj
 0001:00017350       ?PreSubclassWindow@CXTabCtrl@@MAEXXZ 10018350 f   XTabCtrl.obj
 0001:00017370       ?RemoveAt@?$CArray@HH@@QAEXHH@Z 10018370 f i XTabCtrl.obj
 0001:00017410       ?SelectNextTab@CXTabCtrl@@QAEHH@Z 10018410 f   XTabCtrl.obj
 0001:000174b0       ?SelectTab@CXTabCtrl@@QAEHH@Z 100184b0 f   XTabCtrl.obj
 0001:000175e0       ?SelectTabByName@CXTabCtrl@@QAEHPBD@Z 100185e0 f   XTabCtrl.obj
 0001:000176c0       ?Serialize@?$CArray@HH@@UAEXAAVCArchive@@@Z 100186c0 f i XTabCtrl.obj
 0001:000177a0       ?SetAtGrow@?$CArray@HH@@QAEXHH@Z 100187a0 f i XTabCtrl.obj
 0001:000177e0       ?SetDisabledColor@CXTabCtrl@@QAEXK@Z 100187e0 f   XTabCtrl.obj
 0001:00017800       ?SetMouseOverColor@CXTabCtrl@@QAEXK@Z 10018800 f   XTabCtrl.obj
 0001:00017820       ?SetNormalColor@CXTabCtrl@@QAEXKKK@Z 10018820 f   XTabCtrl.obj
 0001:00017850       ?SetPrevSelect@CXTabCtrl@@QAEXXZ 10018850 f   XTabCtrl.obj
 0001:000178a0       ?SetSelectedColor@CXTabCtrl@@QAEXKK@Z 100188a0 f   XTabCtrl.obj
 0001:000178c0       ?SetSize@?$CArray@HH@@QAEXHH@Z 100188c0 f i XTabCtrl.obj
 0001:00017aa0       ?SetTopLeftCorner@CXTabCtrl@@QAEXVCPoint@@@Z 10018aa0 f   XTabCtrl.obj
 0001:00017ac0       ??$SerializeElements@UControlInfo@@@@YGXAAVCArchive@@PAUControlInfo@@H@Z 10018ac0 f i xySplitterWnd.obj
 0001:00017b60       ??0?$CArray@UControlInfo@@AAU1@@@QAE@XZ 10018b60 f i xySplitterWnd.obj
 0001:00017b90       ??0CxSplitterWnd@@QAE@XZ   10018b90 f   xySplitterWnd.obj
 0001:00017c90       ??0CySplitterWnd@@QAE@XZ   10018c90 f   xySplitterWnd.obj
 0001:00017d70       ??1?$CArray@UControlInfo@@AAU1@@@UAE@XZ 10018d70 f i xySplitterWnd.obj
 0001:00017d90       ??1CxSplitterWnd@@UAE@XZ   10018d90 f   xySplitterWnd.obj
 0001:00017e10       ??1CySplitterWnd@@UAE@XZ   10018e10 f   xySplitterWnd.obj
 0001:00017e80       ??_G?$CArray@UControlInfo@@AAU1@@@UAEPAXI@Z 10018e80 f i xySplitterWnd.obj
 0001:00017e80       ??_E?$CArray@UControlInfo@@AAU1@@@UAEPAXI@Z 10018e80 f i xySplitterWnd.obj
 0001:00017ed0       ??_ECxSplitterWnd@@UAEPAXI@Z 10018ed0 f i xySplitterWnd.obj
 0001:00017ed0       ??_GCxSplitterWnd@@UAEPAXI@Z 10018ed0 f i xySplitterWnd.obj
 0001:00017f80       ??_GCySplitterWnd@@UAEPAXI@Z 10018f80 f i xySplitterWnd.obj
 0001:00017f80       ??_ECySplitterWnd@@UAEPAXI@Z 10018f80 f i xySplitterWnd.obj
 0001:00018020       ?AttachAsAboveCtrl@CySplitterWnd@@QAE_NHH_N@Z 10019020 f   xySplitterWnd.obj
 0001:000180b0       ?AttachAsAboveCtrl@CySplitterWnd@@QAE_NH_N@Z 100190b0 f   xySplitterWnd.obj
 0001:00018170       ?AttachAsAboveCtrl@CySplitterWnd@@QAE_NPAVCWnd@@H_N@Z 10019170 f   xySplitterWnd.obj
 0001:000181e0       ?AttachAsAboveCtrl@CySplitterWnd@@QAE_NPAVCWnd@@_N@Z 100191e0 f   xySplitterWnd.obj
 0001:00018290       ?AttachAsBelowCtrl@CySplitterWnd@@QAE_NHH_N@Z 10019290 f   xySplitterWnd.obj
 0001:00018320       ?AttachAsBelowCtrl@CySplitterWnd@@QAE_NH_N@Z 10019320 f   xySplitterWnd.obj
 0001:000183e0       ?AttachAsBelowCtrl@CySplitterWnd@@QAE_NPAVCWnd@@H_N@Z 100193e0 f   xySplitterWnd.obj
 0001:00018450       ?AttachAsBelowCtrl@CySplitterWnd@@QAE_NPAVCWnd@@_N@Z 10019450 f   xySplitterWnd.obj
 0001:00018500       ?AttachAsLeftCtrl@CxSplitterWnd@@QAE_NHH_N@Z 10019500 f   xySplitterWnd.obj
 0001:00018590       ?AttachAsLeftCtrl@CxSplitterWnd@@QAE_NH_N@Z 10019590 f   xySplitterWnd.obj
 0001:00018650       ?AttachAsLeftCtrl@CxSplitterWnd@@QAE_NPAVCWnd@@H_N@Z 10019650 f   xySplitterWnd.obj
 0001:000186c0       ?AttachAsLeftCtrl@CxSplitterWnd@@QAE_NPAVCWnd@@_N@Z 100196c0 f   xySplitterWnd.obj
 0001:00018770       ?AttachAsRightCtrl@CxSplitterWnd@@QAE_NHH_N@Z 10019770 f   xySplitterWnd.obj
 0001:00018800       ?AttachAsRightCtrl@CxSplitterWnd@@QAE_NH_N@Z 10019800 f   xySplitterWnd.obj
 0001:000188c0       ?AttachAsRightCtrl@CxSplitterWnd@@QAE_NPAVCWnd@@H_N@Z 100198c0 f   xySplitterWnd.obj
 0001:00018930       ?AttachAsRightCtrl@CxSplitterWnd@@QAE_NPAVCWnd@@_N@Z 10019930 f   xySplitterWnd.obj
 0001:000189e0       ?AttachToParent@CxSplitterWnd@@QAE_NKK@Z 100199e0 f   xySplitterWnd.obj
 0001:00018aa0       ?AttachToParent@CySplitterWnd@@QAE_NKK@Z 10019aa0 f   xySplitterWnd.obj
 0001:00018b60       ?BindWithControl@CxSplitterWnd@@QAE_NPAVCWnd@@K@Z 10019b60 f   xySplitterWnd.obj
 0001:00018bd0       ?BindWithControl@CySplitterWnd@@QAE_NPAVCWnd@@K@Z 10019bd0 f   xySplitterWnd.obj
 0001:00018c20       ?CreateInWnd@CxSplitterWnd@@QAE_NPAVCWnd@@KPAUtagRECT@@@Z 10019c20 f   xySplitterWnd.obj
 0001:00018c60       ?CreateInWnd@CySplitterWnd@@QAE_NPAVCWnd@@KPAUtagRECT@@@Z 10019c60 f   xySplitterWnd.obj
 0001:00018ca0       ?DetachAllCtrls@CxSplitterWnd@@QAE_NXZ 10019ca0 f   xySplitterWnd.obj
 0001:00018d20       ?DetachAllCtrls@CySplitterWnd@@QAE_NXZ 10019d20 f   xySplitterWnd.obj
 0001:00018da0       ?GetMessageMap@CxSplitterWnd@@MBEPBUAFX_MSGMAP@@XZ 10019da0 f   xySplitterWnd.obj
 0001:00018db0       ?GetMessageMap@CySplitterWnd@@MBEPBUAFX_MSGMAP@@XZ 10019db0 f   xySplitterWnd.obj
 0001:00018dc0       ?GetMouseClipRect@CxSplitterWnd@@IAE_NPAUtagRECT@@VCPoint@@@Z 10019dc0 f   xySplitterWnd.obj
 0001:00018f70       ?GetMouseClipRect@CySplitterWnd@@IAE_NPAUtagRECT@@VCPoint@@@Z 10019f70 f   xySplitterWnd.obj
 0001:00019120       ?GetThisMessageMap@CxSplitterWnd@@KGPBUAFX_MSGMAP@@XZ 1001a120 f   xySplitterWnd.obj
 0001:00019130       ?GetThisMessageMap@CySplitterWnd@@KGPBUAFX_MSGMAP@@XZ 1001a130 f   xySplitterWnd.obj
 0001:00019140       ?OnCreate@CxSplitterWnd@@IAEHPAUtagCREATESTRUCTA@@@Z 1001a140 f   xySplitterWnd.obj
 0001:000191d0       ?OnDestroy@CxSplitterWnd@@IAEXXZ 1001a1d0 f   xySplitterWnd.obj
 0001:000191f0       ?OnLButtonDown@CxSplitterWnd@@IAEXIVCPoint@@@Z 1001a1f0 f   xySplitterWnd.obj
 0001:00019450       ?OnLButtonDown@CySplitterWnd@@IAEXIVCPoint@@@Z 1001a450 f   xySplitterWnd.obj
 0001:00019670       ?OnSetCursor@CxSplitterWnd@@IAEHPAVCWnd@@II@Z 1001a670 f   xySplitterWnd.obj
 0001:000196a0       ?OnSetCursor@CySplitterWnd@@IAEHPAVCWnd@@II@Z 1001a6a0 f   xySplitterWnd.obj
 0001:000196d0       ?RecalcLayout@CxSplitterWnd@@QAEXXZ 1001a6d0 f   xySplitterWnd.obj
 0001:00019b20       ?RecalcLayout@CySplitterWnd@@QAEXXZ 1001ab20 f   xySplitterWnd.obj
 0001:00019f80       ?Serialize@?$CArray@UControlInfo@@AAU1@@@UAEXAAVCArchive@@@Z 1001af80 f i xySplitterWnd.obj
 0001:0001a060       ?SetAtGrow@?$CArray@UControlInfo@@AAU1@@@QAEXHAAUControlInfo@@@Z 1001b060 f i xySplitterWnd.obj
 0001:0001a0a0       ?SetMinHeight@CySplitterWnd@@QAEXHH@Z 1001b0a0 f   xySplitterWnd.obj
 0001:0001a0c0       ?SetMinWidth@CxSplitterWnd@@QAEXHH@Z 1001b0c0 f   xySplitterWnd.obj
 0001:0001a0e0       ?SetSize@?$CArray@UControlInfo@@AAU1@@@QAEXHH@Z 1001b0e0 f i xySplitterWnd.obj
 0001:0001a350       ?Unbind@CxSplitterWnd@@QAEXXZ 1001b350 f   xySplitterWnd.obj
 0001:0001a3e0       ?Unbind@CySplitterWnd@@QAEXXZ 1001b3e0 f   xySplitterWnd.obj
 0001:0001a470       ??0CDlgStrategyConfigure@@QAE@PAVCWnd@@@Z 1001b470 f   DlgStrategyConfigure.obj
 0001:0001a560       ??1CDlgStrategyList@@UAE@XZ 1001b560 f i DlgStrategyConfigure.obj
 0001:0001a740       ??1STLISTITEMDATA@@QAE@XZ  1001b740 f i DlgStrategyConfigure.obj
 0001:0001a750       ??_GCDlgStrategyConfigure@@UAEPAXI@Z 1001b750 f i DlgStrategyConfigure.obj
 0001:0001a750       ??_ECDlgStrategyConfigure@@UAEPAXI@Z 1001b750 f i DlgStrategyConfigure.obj
 0001:0001a7f0       ??_H@YGXPAXIIP6EPAX0@Z@Z   1001b7f0 f i DlgStrategyConfigure.obj
 0001:0001a820       ?CopyBaseScriptFile@CDlgStrategyConfigure@@QAEFXZ 1001b820 f   DlgStrategyConfigure.obj
 0001:0001aa80       ?Create@CDialog@@UAEHIPAVCWnd@@@Z 1001ba80 f i DlgStrategyConfigure.obj
 0001:0001aa90       ?DataMonitorCallbackProc@CDlgStrategyConfigure@@KGXPBDJJJJ@Z 1001ba90 f   DlgStrategyConfigure.obj
 0001:0001ab30       ?DoDataExchange@CDlgStrategyConfigure@@MAEXPAVCDataExchange@@@Z 1001bb30 f   DlgStrategyConfigure.obj
 0001:0001ab40       ?FormLoad@CDlgStrategyConfigure@@QAEXXZ 1001bb40 f   DlgStrategyConfigure.obj
 0001:0001ab60       ?GetMessageMap@CDlgStrategyConfigure@@MBEPBUAFX_MSGMAP@@XZ 1001bb60 f   DlgStrategyConfigure.obj
 0001:0001ab70       ?GetOutBarColor@CDlgStrategyConfigure@@QAEJAAK0@Z 1001bb70 f   DlgStrategyConfigure.obj
 0001:0001aba0       ?GetRect@CDlgStrategyConfigure@@IAE?AVCRect@@H@Z 1001bba0 f   DlgStrategyConfigure.obj
 0001:0001ac10       ?GetThisMessageMap@CDlgStrategyConfigure@@KGPBUAFX_MSGMAP@@XZ 1001bc10 f   DlgStrategyConfigure.obj
 0001:0001ac20       ?InitLoad@CDlgStrategyConfigure@@IAEXXZ 1001bc20 f   DlgStrategyConfigure.obj
 0001:0001ad40       ?IsSTSelected@CDlgStrategyConfigure@@QAEHXZ 1001bd40 f   DlgStrategyConfigure.obj
 0001:0001ad80       ?LoadEditor@CDlgStrategyConfigure@@QAEXV?$CStringT@DV?$StrTraitMFC_DLL@DV?$ChTraitsCRT@D@ATL@@@@@ATL@@@Z 1001bd80 f   DlgStrategyConfigure.obj
 0001:0001b040       ?OnDestroy@CDlgStrategyConfigure@@IAEXXZ 1001c040 f   DlgStrategyConfigure.obj
 0001:0001b080       ?OnGetDllSize@CDlgStrategyConfigure@@IAEJIJ@Z 1001c080 f   DlgStrategyConfigure.obj
 0001:0001b0a0       ?OnInitDialog@CDlgStrategyConfigure@@MAEHXZ 1001c0a0 f   DlgStrategyConfigure.obj
 0001:0001b360       ?OnSize@CDlgStrategyConfigure@@IAEXIHH@Z 1001c360 f   DlgStrategyConfigure.obj
 0001:0001b380       ?PreTranslateMessage@CDlgStrategyConfigure@@UAEHPAUtagMSG@@@Z 1001c380 f   DlgStrategyConfigure.obj
 0001:0001b400       ?Resize@CDlgStrategyConfigure@@IAEXHH@Z 1001c400 f   DlgStrategyConfigure.obj
 0001:0001b4c0       ?RunST@CDlgStrategyConfigure@@QAEHHAAV?$CStringT@DV?$StrTraitMFC_DLL@DV?$ChTraitsCRT@D@ATL@@@@@ATL@@@Z 1001c4c0 f   DlgStrategyConfigure.obj
 0001:0001b750       ?SelectSTItem@CDlgStrategyConfigure@@QAEXV?$CStringT@DV?$StrTraitMFC_DLL@DV?$ChTraitsCRT@D@ATL@@@@@ATL@@0@Z 1001c750 f   DlgStrategyConfigure.obj
 0001:0001b8f0       ?UpdateSTList@CDlgStrategyConfigure@@QAEXHV?$CStringT@DV?$StrTraitMFC_DLL@DV?$ChTraitsCRT@D@ATL@@@@@ATL@@@Z 1001c8f0 f   DlgStrategyConfigure.obj
 0001:0001b960       ??0CDlgStrategyList@@QAE@PAVCWnd@@@Z 1001c960 f   DlgStrategyList.obj
 0001:0001bc70       ??1_GV_ITEM@@QAE@XZ        1001cc70 f i DlgStrategyList.obj
 0001:0001bc80       ??HATL@@YA?AV?$CStringT@DV?$StrTraitMFC_DLL@DV?$ChTraitsCRT@D@ATL@@@@@0@ABV10@PBD@Z 1001cc80 f i DlgStrategyList.obj
 0001:0001bd20       ??_GCDlgStrategyList@@UAEPAXI@Z 1001cd20 f i DlgStrategyList.obj
 0001:0001bd20       ??_ECDlgStrategyList@@UAEPAXI@Z 1001cd20 f i DlgStrategyList.obj
 0001:0001bd60       ?AddRowData@CDlgStrategyList@@IAEHV?$CStringT@DV?$StrTraitMFC_DLL@DV?$ChTraitsCRT@D@ATL@@@@@ATL@@PBDHH@Z 1001cd60 f   DlgStrategyList.obj
 0001:0001bf30       ?CheckFileSave@CDlgStrategyList@@IAEHHAAV?$CStringT@DV?$StrTraitMFC_DLL@DV?$ChTraitsCRT@D@ATL@@@@@ATL@@@Z 1001cf30 f   DlgStrategyList.obj
 0001:0001c000       ?DeleteAllItem@CDlgStrategyList@@IAEHXZ 1001d000 f   DlgStrategyList.obj
 0001:0001c040       ?DoDataExchange@CDlgStrategyList@@MAEXPAVCDataExchange@@@Z 1001d040 f   DlgStrategyList.obj
 0001:0001c1e0       ?GetGridSTRowCount@CDlgStrategyList@@QAEHXZ 1001d1e0 f   DlgStrategyList.obj
 0001:0001c200       ?GetMessageMap@CDlgStrategyList@@MBEPBUAFX_MSGMAP@@XZ 1001d200 f   DlgStrategyList.obj
 0001:0001c210       ?GetNewSTPosNo@CDlgStrategyList@@IAEHXZ 1001d210 f   DlgStrategyList.obj
 0001:0001c270       ?GetRect@CDlgStrategyList@@IAE?AVCRect@@H@Z 1001d270 f   DlgStrategyList.obj
 0001:0001c5c0       ?GetThisMessageMap@CDlgStrategyList@@KGPBUAFX_MSGMAP@@XZ 1001d5c0 f   DlgStrategyList.obj
 0001:0001c5d0       ?InitColumn@CDlgStrategyList@@IAEXXZ 1001d5d0 f   DlgStrategyList.obj
 0001:0001c720       ?InitGrid@CDlgStrategyList@@IAEXXZ 1001d720 f   DlgStrategyList.obj
 0001:0001c9a0       ?InitSTOption@CDlgStrategyList@@QAEXXZ 1001d9a0 f   DlgStrategyList.obj
 0001:0001c9d0       ?InputModify@CDlgStrategyList@@IAEXHAAV?$CStringT@DV?$StrTraitMFC_DLL@DV?$ChTraitsCRT@D@ATL@@@@@ATL@@@Z 1001d9d0 f   DlgStrategyList.obj
 0001:0001ce60       ?LoadST@CDlgStrategyList@@IAEXJ@Z 1001de60 f   DlgStrategyList.obj
 0001:0001d5e0       ?NotifySTChangeState@CDlgStrategyList@@QAEXHPBD@Z 1001e5e0 f   DlgStrategyList.obj
 0001:0001d6d0       ?OnBnClickedBtnSystemtrading@CDlgStrategyList@@QAEXXZ 1001e6d0 f   DlgStrategyList.obj
 0001:0001d740       ?OnBnClickedButtonSaveconfig@CDlgStrategyList@@QAEXXZ 1001e740 f   DlgStrategyList.obj
 0001:0001d900       ?OnBnClickedSTClose@CDlgStrategyList@@IAEXXZ 1001e900 f   DlgStrategyList.obj
 0001:0001d940       ?OnBnClickedSTConfigDlg@CDlgStrategyList@@IAEXXZ 1001e940 f   DlgStrategyList.obj
 0001:0001da70       ?OnBnClickedSTRun@CDlgStrategyList@@IAEXXZ 1001ea70 f   DlgStrategyList.obj
 0001:0001dc10       ?OnBtSave@CDlgStrategyList@@IAEXXZ 1001ec10 f   DlgStrategyList.obj
 0001:0001de80       ?OnBtnAnd@CDlgStrategyList@@IAEXXZ 1001ee80 f   DlgStrategyList.obj
 0001:0001dea0       ?OnBtnDelete@CDlgStrategyList@@IAEXXZ 1001eea0 f   DlgStrategyList.obj
 0001:0001df00       ?OnBtnDown@CDlgStrategyList@@IAEXXZ 1001ef00 f   DlgStrategyList.obj
 0001:0001e160       ?OnBtnEdit@CDlgStrategyList@@IAEXXZ 1001f160 f   DlgStrategyList.obj
 0001:0001e190       ?OnBtnInit@CDlgStrategyList@@IAEXXZ 1001f190 f   DlgStrategyList.obj
 0001:0001e270       ?OnBtnNext@CDlgStrategyList@@IAEXXZ 1001f270 f   DlgStrategyList.obj
 0001:0001e290       ?OnBtnNot@CDlgStrategyList@@IAEXXZ 1001f290 f   DlgStrategyList.obj
 0001:0001e2b0       ?OnBtnOr@CDlgStrategyList@@IAEXXZ 1001f2b0 f   DlgStrategyList.obj
 0001:0001e2d0       ?OnBtnParenthesis@CDlgStrategyList@@IAEXXZ 1001f2d0 f   DlgStrategyList.obj
 0001:0001e2f0       ?OnBtnSTDelete@CDlgStrategyList@@IAEXXZ 1001f2f0 f   DlgStrategyList.obj
 0001:0001e4a0       ?OnBtnTrue@CDlgStrategyList@@IAEXXZ 1001f4a0 f   DlgStrategyList.obj
 0001:0001e4c0       ?OnBtnUp@CDlgStrategyList@@IAEXXZ 1001f4c0 f   DlgStrategyList.obj
 0001:0001e700       ?OnBtnX@CDlgStrategyList@@IAEXXZ 1001f700 f   DlgStrategyList.obj
 0001:0001e720       ?OnClickGridSTList@CDlgStrategyList@@QAEXHH@Z 1001f720 f   DlgStrategyList.obj
 0001:0001ea20       ?OnCtlColor@CDlgStrategyList@@IAEPAUHBRUSH__@@PAVCDC@@PAVCWnd@@I@Z 1001fa20 f   DlgStrategyList.obj
 0001:0001ea70       ?OnDestroy@CDlgStrategyList@@IAEXXZ 1001fa70 f   DlgStrategyList.obj
 0001:0001eae0       ?OnInitDialog@CDlgStrategyList@@MAEHXZ 1001fae0 f   DlgStrategyList.obj
 0001:0001ed60       ?OnNotify@CDlgStrategyList@@MAEHIJPAJ@Z 1001fd60 f   DlgStrategyList.obj
 0001:0001eda0       ?OnSTController@CDlgStrategyList@@IAEJIJ@Z 1001fda0 f   DlgStrategyList.obj
 0001:0001f050       ?OnSaveToUserST@CDlgStrategyList@@IAEJIJ@Z 10020050 f   DlgStrategyList.obj
 0001:0001f160       ?OnSize@CDlgStrategyList@@IAEXIHH@Z 10020160 f   DlgStrategyList.obj
 0001:0001f170       ?OnTimer@CDlgStrategyList@@IAEXI@Z 10020170 f   DlgStrategyList.obj
 0001:0001f1d0       ?OnUpdateSTSfg@CDlgStrategyList@@IAEJIJ@Z 100201d0 f   DlgStrategyList.obj
 0001:0001f2d0       ?PreTranslateMessage@CDlgStrategyList@@UAEHPAUtagMSG@@@Z 100202d0 f   DlgStrategyList.obj
 0001:0001f380       ?ResizeAll@CDlgStrategyList@@QAEXXZ 10020380 f   DlgStrategyList.obj
 0001:0001f470       ?SaveRunTempFile@CDlgStrategyList@@IAEHXZ 10020470 f   DlgStrategyList.obj
 0001:0001f5e0       ?SaveST@CDlgStrategyList@@IAEXPBDH@Z 100205e0 f   DlgStrategyList.obj
 0001:0001fa90       ?SaveVariable@CDlgStrategyList@@IAEXAAV?$CStringT@DV?$StrTraitMFC_DLL@DV?$ChTraitsCRT@D@ATL@@@@@ATL@@HPBD@Z 10020a90 f   DlgStrategyList.obj
 0001:0001fca0       ?WindowProc@CDlgStrategyList@@MAEJIIJ@Z 10020ca0 f   DlgStrategyList.obj
 0001:0001ffd0       ??0CDlgSysVarOption@@QAE@PAVCWnd@@@Z 10020fd0 f   DlgSysVarOption.obj
 0001:00020080       ??1CColorDialog@@UAE@XZ    10021080 f i DlgSysVarOption.obj
 0001:00020090       ??1CCommonDialog@@UAE@XZ   10021090 f i DlgSysVarOption.obj
 0001:000200a0       ??_GCCommonDialog@@UAEPAXI@Z 100210a0 f i DlgSysVarOption.obj
 0001:000200a0       ??_ECCommonDialog@@UAEPAXI@Z 100210a0 f i DlgSysVarOption.obj
 0001:000200f0       ??_ECDlgSysVarOption@@UAEPAXI@Z 100210f0 f i DlgSysVarOption.obj
 0001:000200f0       ??_GCDlgSysVarOption@@UAEPAXI@Z 100210f0 f i DlgSysVarOption.obj
 0001:00020170       ?DoApplyInputParam@CDlgSysVarOption@@QAEXXZ 10021170 f   DlgSysVarOption.obj
 0001:00020690       ?DoBtnClr@CDlgSysVarOption@@QAEXAAVCColorButton@@@Z 10021690 f   DlgSysVarOption.obj
 0001:00020730       ?DoDataExchange@CDlgSysVarOption@@MAEXPAVCDataExchange@@@Z 10021730 f   DlgSysVarOption.obj
 0001:00020780       ?DoLoadVarList@CDlgSysVarOption@@QAEXPBD@Z 10021780 f   DlgSysVarOption.obj
 0001:00020940       ?GetMessageMap@CDlgSysVarOption@@MBEPBUAFX_MSGMAP@@XZ 10021940 f   DlgSysVarOption.obj
 0001:00020950       ?GetThisMessageMap@CDlgSysVarOption@@KGPBUAFX_MSGMAP@@XZ 10021950 f   DlgSysVarOption.obj
 0001:00020960       ?InitColumn@CDlgSysVarOption@@QAEXXZ 10021960 f   DlgSysVarOption.obj
 0001:00020ab0       ?OnBnClickedOk@CDlgSysVarOption@@QAEXXZ 10021ab0 f   DlgSysVarOption.obj
 0001:00020c20       ?OnBtClrBear@CDlgSysVarOption@@IAEXXZ 10021c20 f   DlgSysVarOption.obj
 0001:00020c30       ?OnBtClrBull@CDlgSysVarOption@@IAEXXZ 10021c30 f   DlgSysVarOption.obj
 0001:00020c40       ?OnInitDialog@CDlgSysVarOption@@MAEHXZ 10021c40 f   DlgSysVarOption.obj
 0001:00020d90       ?SetParam@CDlgSysVarOption@@QAEXPAVCStringList@@J@Z 10021d90 f   DlgSysVarOption.obj
 0001:00020da0       ??0CDlgTimeSelector@@QAE@PAVCWnd@@@Z 10021da0 f   DlgTimeSelector.obj
 0001:00020e70       ??_ECDlgTimeSelector@@UAEPAXI@Z 10021e70 f i DlgTimeSelector.obj
 0001:00020e70       ??_GCDlgTimeSelector@@UAEPAXI@Z 10021e70 f i DlgTimeSelector.obj
 0001:00020ee0       ?DoDataExchange@CDlgTimeSelector@@MAEXPAVCDataExchange@@@Z 10021ee0 f   DlgTimeSelector.obj
 0001:00020f70       ?GetMessageMap@CDlgTimeSelector@@MBEPBUAFX_MSGMAP@@XZ 10021f70 f   DlgTimeSelector.obj
 0001:00020f80       ?GetThisMessageMap@CDlgTimeSelector@@KGPBUAFX_MSGMAP@@XZ 10021f80 f   DlgTimeSelector.obj
 0001:00020f90       ?OnCtlColor@CDlgTimeSelector@@IAEPAUHBRUSH__@@PAVCDC@@PAVCWnd@@I@Z 10021f90 f   DlgTimeSelector.obj
 0001:00020fe0       ?OnDestroy@CDlgTimeSelector@@IAEXXZ 10021fe0 f   DlgTimeSelector.obj
 0001:00021000       ?OnInitDialog@CDlgTimeSelector@@MAEHXZ 10022000 f   DlgTimeSelector.obj
 0001:00021030       ?OnOK@CDlgTimeSelector@@MAEXXZ 10022030 f   DlgTimeSelector.obj
 0001:00021060       ?OnRadioDay@CDlgTimeSelector@@IAEXXZ 10022060 f   DlgTimeSelector.obj
 0001:00021080       ?OnRadioMinute@CDlgTimeSelector@@IAEXXZ 10022080 f   DlgTimeSelector.obj
 0001:000211d0       ?OnRadioTick@CDlgTimeSelector@@IAEXXZ 100221d0 f   DlgTimeSelector.obj
 0001:000211f0       ?UpdateData@CDlgTimeSelector@@QAEHH@Z 100221f0 f   DlgTimeSelector.obj
 0001:00021350       ??0CGridCell@@QAE@XZ       10022350 f   GridCell.obj
 0001:00021420       ??0CGridDefaultCell@@QAE@XZ 10022420 f   GridCell.obj
 0001:00021630       ??1CGridCell@@UAE@XZ       10022630 f   GridCell.obj
 0001:00021660       ??1CGridDefaultCell@@UAE@XZ 10022660 f   GridCell.obj
 0001:000216e0       ??4CGridCell@@QAEXABV0@@Z  100226e0 f   GridCell.obj
 0001:00021700       ??_ECGridCell@@UAEPAXI@Z   10022700 f i GridCell.obj
 0001:00021700       ??_GCGridCell@@UAEPAXI@Z   10022700 f i GridCell.obj
 0001:00021760       ??_ECGridDefaultCell@@UAEPAXI@Z 10022760 f i GridCell.obj
 0001:00021760       ??_GCGridDefaultCell@@UAEPAXI@Z 10022760 f i GridCell.obj
 0001:00021810       ?CreateObject@CGridCell@@SGPAVCObject@@XZ 10022810 f   GridCell.obj
 0001:00021880       ?CreateObject@CGridDefaultCell@@SGPAVCObject@@XZ 10022880 f   GridCell.obj
 0001:000218f0       ?Edit@CGridCell@@UAEHHHVCRect@@VCPoint@@II@Z 100228f0 f   GridCell.obj
 0001:00021a00       ?EndEdit@CGridCell@@UAEXXZ 10022a00 f   GridCell.obj
 0001:00021a10       ?GetBackClr@CGridCell@@UBEKXZ 10022a10 f i GridCell.obj
 0001:00021a20       ?GetData@CGridCell@@UBEJXZ 10022a20 f i GridCell.obj
 0001:00021a30       ?GetEditWnd@CGridCell@@UBEPAVCWnd@@XZ 10022a30 f i GridCell.obj
 0001:00021a40       ?GetFont@CGridCell@@UBEPAUtagLOGFONTA@@XZ 10022a40 f   GridCell.obj
 0001:00021a60       ?GetFont@CGridDefaultCell@@UBEPAUtagLOGFONTA@@XZ 10022a60 f   GridCell.obj
 0001:00021a70       ?GetFontObject@CGridCell@@UBEPAVCFont@@XZ 10022a70 f   GridCell.obj
 0001:00021b00       ?GetFontObject@CGridDefaultCell@@UBEPAVCFont@@XZ 10022b00 f   GridCell.obj
 0001:00021b10       ?GetFormat@CGridCell@@UBEKXZ 10022b10 f   GridCell.obj
 0001:00021b30       ?GetGrid@CGridCell@@UBEPAVCGridCtrl@@XZ 10022b30 f i GridCell.obj
 0001:00021b40       ?GetHeight@CGridDefaultCell@@UBEHXZ 10022b40 f i GridCell.obj
 0001:00021b50       ?GetImage@CGridCell@@UBEHXZ 10022b50 f i GridCell.obj
 0001:00021b60       ?GetMargin@CGridCell@@UBEIXZ 10022b60 f   GridCell.obj
 0001:00021b80       ?GetRuntimeClass@CGridCell@@UBEPAUCRuntimeClass@@XZ 10022b80 f   GridCell.obj
 0001:00021b90       ?GetRuntimeClass@CGridDefaultCell@@UBEPAUCRuntimeClass@@XZ 10022b90 f   GridCell.obj
 0001:00021ba0       ?GetState@CGridCellBase@@UBEKXZ 10022ba0 f i GridCell.obj
 0001:00021bb0       ?GetState@CGridDefaultCell@@UBEKXZ 10022bb0 f i GridCell.obj
 0001:00021bc0       ?GetStyle@CGridDefaultCell@@UBEKXZ 10022bc0 f i GridCell.obj
 0001:00021bd0       ?GetText@CGridCell@@UBEPBDXZ 10022bd0 f i GridCell.obj
 0001:00021be0       ?GetTextClr@CGridCell@@UBEKXZ 10022be0 f i GridCell.obj
 0001:00021bf0       ?GetThisClass@CGridCell@@SGPAUCRuntimeClass@@XZ 10022bf0 f   GridCell.obj
 0001:00021c00       ?GetThisClass@CGridDefaultCell@@SGPAUCRuntimeClass@@XZ 10022c00 f   GridCell.obj
 0001:00021c10       ?GetTipText@CGridCellBase@@UBEPBDXZ 10022c10 f i GridCell.obj
 0001:00021c20       ?GetTipTextRect@CGridCellBase@@UAEHPAUtagRECT@@@Z 10022c20 f i GridCell.obj
 0001:00021c30       ?GetWidth@CGridDefaultCell@@UBEHXZ 10022c30 f i GridCell.obj
 0001:00021c40       ?IsDefaultFont@CGridCell@@UBEHXZ 10022c40 f i GridCell.obj
 0001:00021c50       ?IsDropHighlighted@CGridCellBase@@UBEHXZ 10022c50 f i GridCell.obj
 0001:00021c60       ?IsEditing@CGridCell@@UBEHXZ 10022c60 f i GridCell.obj
 0001:00021c70       ?IsFixed@CGridCellBase@@UBEHXZ 10022c70 f i GridCell.obj
 0001:00021c80       ?IsFixedCol@CGridCellBase@@UBEHXZ 10022c80 f i GridCell.obj
 0001:00021c90       ?IsFixedRow@CGridCellBase@@UBEHXZ 10022c90 f i GridCell.obj
 0001:00021ca0       ?IsFocused@CGridCellBase@@UBEHXZ 10022ca0 f i GridCell.obj
 0001:00021cb0       ?IsModified@CGridCellBase@@UBEHXZ 10022cb0 f i GridCell.obj
 0001:00021cc0       ?IsReadOnly@CGridCellBase@@UBEHXZ 10022cc0 f i GridCell.obj
 0001:00021cd0       ?IsSelected@CGridCellBase@@UBEHXZ 10022cd0 f i GridCell.obj
 0001:00021ce0       ?OnEndEdit@CGridCell@@MAEXXZ 10022ce0 f   GridCell.obj
 0001:00021cf0       ?Reset@CGridCell@@UAEXXZ   10022cf0 f   GridCell.obj
 0001:00021d60       ?SetBackClr@CGridCell@@UAEXK@Z 10022d60 f i GridCell.obj
 0001:00021d70       ?SetCoords@CGridCell@@UAEXHH@Z 10022d70 f i GridCell.obj
 0001:00021d80       ?SetCoords@CGridDefaultCell@@UAEXHH@Z 10022d80 f i GridCell.obj
 0001:00021d90       ?SetData@CGridCell@@UAEXJ@Z 10022d90 f i GridCell.obj
 0001:00021da0       ?SetData@CGridDefaultCell@@UAEXJ@Z 10022da0 f i GridCell.obj
 0001:00021db0       ?SetFont@CGridCell@@UAEXPBUtagLOGFONTA@@@Z 10022db0 f   GridCell.obj
 0001:00021e20       ?SetFont@CGridDefaultCell@@UAEXPBUtagLOGFONTA@@@Z 10022e20 f   GridCell.obj
 0001:00021f40       ?SetFormat@CGridCell@@UAEXK@Z 10022f40 f i GridCell.obj
 0001:00021f50       ?SetGrid@CGridCell@@UAEXPAVCGridCtrl@@@Z 10022f50 f i GridCell.obj
 0001:00021f60       ?SetHeight@CGridDefaultCell@@UAEXH@Z 10022f60 f i GridCell.obj
 0001:00021f70       ?SetImage@CGridCell@@UAEXH@Z 10022f70 f i GridCell.obj
 0001:00021f80       ?SetMargin@CGridCell@@UAEXI@Z 10022f80 f i GridCell.obj
 0001:00021f90       ?SetState@CGridCellBase@@UAEXK@Z 10022f90 f i GridCell.obj
 0001:00021fa0       ?SetState@CGridDefaultCell@@UAEXK@Z 10022fa0 f i GridCell.obj
 0001:00021fb0       ?SetStyle@CGridDefaultCell@@UAEXK@Z 10022fb0 f i GridCell.obj
 0001:00021fc0       ?SetText@CGridCell@@UAEXPBD@Z 10022fc0 f i GridCell.obj
 0001:00021fd0       ?SetTextClr@CGridCell@@UAEXK@Z 10022fd0 f i GridCell.obj
 0001:00021fe0       ?SetWidth@CGridDefaultCell@@UAEXH@Z 10022fe0 f i GridCell.obj
 0001:00021ff0       ?_GetBaseClass@CGridCell@@KGPAUCRuntimeClass@@XZ 10022ff0 f   GridCell.obj
 0001:00022000       ?_GetBaseClass@CGridDefaultCell@@KGPAUCRuntimeClass@@XZ 10023000 f   GridCell.obj
 0001:00022010       ??0CGridCellBase@@QAE@XZ   10023010 f   GridCellBase.obj
 0001:00022020       ??1AFX_EXCEPTION_LINK@@QAE@XZ 10023020 f i GridCellBase.obj
 0001:00022060       ??1CGridCellBase@@UAE@XZ   10023060 f   GridCellBase.obj
 0001:00022070       ??4CGridCellBase@@UAEXABV0@@Z 10023070 f   GridCellBase.obj
 0001:00022130       ??_GCGridCellBase@@UAEPAXI@Z 10023130 f i GridCellBase.obj
 0001:00022130       ??_ECGridCellBase@@UAEPAXI@Z 10023130 f i GridCellBase.obj
 0001:00022170       ?Draw@CGridCellBase@@UAEHPAVCDC@@HHVCRect@@H@Z 10023170 f   GridCellBase.obj
 0001:00022940       ?Edit@CGridCellBase@@UAEHHHVCRect@@VCPoint@@II@Z 10023940 f i GridCellBase.obj
 0001:00022950       ?EndEdit@CGridCellBase@@UAEXXZ 10023950 f i GridCellBase.obj
 0001:00022960       ?GetCellExtent@CGridCellBase@@UAE?AVCSize@@PAVCDC@@@Z 10023960 f   GridCellBase.obj
 0001:00022a40       ?GetCurrentPen@CDC@@QBEPAVCPen@@XZ 10023a40 f i GridCellBase.obj
 0001:00022a60       ?GetDefaultCell@CGridCellBase@@UBEPAV1@XZ 10023a60 f   GridCellBase.obj
 0001:00022ac0       ?GetRuntimeClass@CGridCellBase@@UBEPAUCRuntimeClass@@XZ 10023ac0 f   GridCellBase.obj
 0001:00022ad0       ?GetTextExtent@CDC@@QBE?AVCSize@@ABV?$CStringT@DV?$StrTraitMFC_DLL@DV?$ChTraitsCRT@D@ATL@@@@@ATL@@@Z 10023ad0 f i GridCellBase.obj
 0001:00022b00       ?GetTextExtent@CGridCellBase@@UAE?AVCSize@@PBDPAVCDC@@@Z 10023b00 f   GridCellBase.obj
 0001:00022e10       ?GetTextRect@CGridCellBase@@UAEHPAUtagRECT@@@Z 10023e10 f   GridCellBase.obj
 0001:00022ea0       ?GetThisClass@CGridCellBase@@SGPAUCRuntimeClass@@XZ 10023ea0 f   GridCellBase.obj
 0001:00022eb0       ?OnClick@CGridCellBase@@MAEXVCPoint@@@Z 10023eb0 f   GridCellBase.obj
 0001:00022ec0       ?OnClickDown@CGridCellBase@@MAEXVCPoint@@@Z 10023ec0 f   GridCellBase.obj
 0001:00022ed0       ?OnDblClick@CGridCellBase@@MAEXVCPoint@@@Z 10023ed0 f   GridCellBase.obj
 0001:00022ee0       ?OnEndEdit@CGridCellBase@@MAEXXZ 10023ee0 f   GridCellBase.obj
 0001:00022ef0       ?OnMouseEnter@CGridCellBase@@MAEXXZ 10023ef0 f   GridCellBase.obj
 0001:00022f00       ?OnMouseLeave@CGridCellBase@@MAEXXZ 10023f00 f   GridCellBase.obj
 0001:00022f10       ?OnMouseOver@CGridCellBase@@MAEXXZ 10023f10 f   GridCellBase.obj
 0001:00022f20       ?OnRClick@CGridCellBase@@MAEXVCPoint@@@Z 10023f20 f   GridCellBase.obj
 0001:00022f30       ?OnSetCursor@CGridCellBase@@MAEHXZ 10023f30 f   GridCellBase.obj
 0001:00022f50       ?PrintCell@CGridCellBase@@UAEHPAVCDC@@HHVCRect@@@Z 10023f50 f   GridCellBase.obj
 0001:000233d0       ?Reset@CGridCellBase@@UAEXXZ 100243d0 f   GridCellBase.obj
 0001:000233e0       ?SendMessageToParent@CGridCellBase@@QAEJHHH@Z 100243e0 f   GridCellBase.obj
 0001:00023400       ?ValidateEdit@CGridCellBase@@UAEHPBD@Z 10024400 f   GridCellBase.obj
 0001:00023410       ?_GetBaseClass@CGridCellBase@@KGPAUCRuntimeClass@@XZ 10024410 f   GridCellBase.obj
 0001:00023420       ??$CompareElements@KK@@YGHPBK0@Z 10024420 f i GridCtrl.obj
 0001:00023450       ??$SerializeElements@K@@YGXAAVCArchive@@PAKH@Z 10024450 f i GridCtrl.obj
 0001:00023500       ??$SerializeElements@VCCellID@@@@YGXAAVCArchive@@PAVCCellID@@H@Z 10024500 f i GridCtrl.obj
 0001:000235b0       ??0?$CMap@KKVCCellID@@AAV1@@@QAE@H@Z 100245b0 f i GridCtrl.obj
 0001:000235f0       ??0CGridCtrl@@QAE@HHHH@Z   100245f0 f   GridCtrl.obj
 0001:00023cf0       ??1?$CMap@KKVCCellID@@AAV1@@@UAE@XZ 10024cf0 f i GridCtrl.obj
 0001:00023d70       ??1?$CTypedPtrArray@VCObArray@@PAV?$CTypedPtrArray@VCObArray@@PAVCGridCellBase@@@@@@UAE@XZ 10024d70 f i GridCtrl.obj
 0001:00023d80       ??1CException@@UAE@XZ      10024d80 f i GridCtrl.obj
 0001:00023d90       ??1CFileException@@UAE@XZ  10024d90 f i GridCtrl.obj
 0001:00023da0       ??1CGridCtrl@@UAE@XZ       10024da0 f   GridCtrl.obj
 0001:00023f60       ??1COleDataObject@@QAE@XZ  10024f60 f i GridCtrl.obj
 0001:00023fa0       ??1CPrintDialog@@UAE@XZ    10024fa0 f i GridCtrl.obj
 0001:00023fb0       ??1CWaitCursor@@QAE@XZ     10024fb0 f i GridCtrl.obj
 0001:000240c0       ??8CCellID@@QBEHABV0@@Z    100250c0 f i GridCtrl.obj
 0001:000240f0       ??9CCellID@@QBEHABV0@@Z    100250f0 f i GridCtrl.obj
 0001:00024120       ??A?$CMap@KKVCCellID@@AAV1@@@QAEAAVCCellID@@K@Z 10025120 f i GridCtrl.obj
 0001:00024240       ??A?$CTypedPtrArray@VCObArray@@PAV?$CTypedPtrArray@VCObArray@@PAVCGridCellBase@@@@@@QAEAAPAV?$CTypedPtrArray@VCObArray@@PAVCGridCellBase@@@@H@Z 10025240 f i GridCtrl.obj
 0001:0002425f       ??_9CGridCtrl@@$BBIM@AE    1002525f f i GridCtrl.obj
 0001:00024267       ??_9CGridCtrl@@$BBJA@AE    10025267 f i GridCtrl.obj
 0001:0002426f       ??_9CGridCtrl@@$BBJE@AE    1002526f f i GridCtrl.obj
 0001:00024277       ??_9CGridCtrl@@$BBJI@AE    10025277 f i GridCtrl.obj
 0001:00024280       ??_FCCellID@@QAEXXZ        10025280 f i GridCtrl.obj
 0001:00024290       ??_E?$CMap@KKVCCellID@@AAV1@@@UAEPAXI@Z 10025290 f i GridCtrl.obj
 0001:00024290       ??_G?$CMap@KKVCCellID@@AAV1@@@UAEPAXI@Z 10025290 f i GridCtrl.obj
 0001:00024350       ??_G?$CTypedPtrArray@VCObArray@@PAV?$CTypedPtrArray@VCObArray@@PAVCGridCellBase@@@@@@UAEPAXI@Z 10025350 f i GridCtrl.obj
 0001:00024350       ??_E?$CTypedPtrArray@VCObArray@@PAV?$CTypedPtrArray@VCObArray@@PAVCGridCellBase@@@@@@UAEPAXI@Z 10025350 f i GridCtrl.obj
 0001:00024390       ??_E?$CTypedPtrArray@VCObArray@@PAVCGridCellBase@@@@UAEPAXI@Z 10025390 f i GridCtrl.obj
 0001:00024390       ??_G?$CTypedPtrArray@VCObArray@@PAVCGridCellBase@@@@UAEPAXI@Z 10025390 f i GridCtrl.obj
 0001:000243d0       ??_GCFileException@@UAEPAXI@Z 100253d0 f i GridCtrl.obj
 0001:000243d0       ??_ECFileException@@UAEPAXI@Z 100253d0 f i GridCtrl.obj
 0001:00024420       ??_GCGridCtrl@@UAEPAXI@Z   10025420 f i GridCtrl.obj
 0001:00024420       ??_ECGridCtrl@@UAEPAXI@Z   10025420 f i GridCtrl.obj
 0001:00024460       ?AtlThrowImpl@ATL@@YGXJ@Z  10025460 f i GridCtrl.obj
 0001:00024480       ?AutoFill@CGridCtrl@@QAEXXZ 10025480 f   GridCtrl.obj
 0001:00024570       ?AutoSize@CGridCtrl@@QAEXI@Z 10025570 f   GridCtrl.obj
 0001:000247b0       ?AutoSizeColumn@CGridCtrl@@QAEHHIH@Z 100257b0 f   GridCtrl.obj
 0001:00024930       ?AutoSizeColumns@CGridCtrl@@QAEXI@Z 10025930 f   GridCtrl.obj
 0001:00024990       ?AutoSizeRow@CGridCtrl@@QAEHHH@Z 10025990 f   GridCtrl.obj
 0001:00024ad0       ?AutoSizeRows@CGridCtrl@@QAEXXZ 10025ad0 f   GridCtrl.obj
 0001:00024b20       ?ClearCells@CGridCtrl@@QAEXVCCellRange@@@Z 10025b20 f   GridCtrl.obj
 0001:00024bc0       ?CopyTextFromGrid@CGridCtrl@@UAEPAVCOleDataSource@@XZ 10025bc0 f   GridCtrl.obj
 0001:00024e30       ?Create@CGridCtrl@@QAEHABUtagRECT@@PAVCWnd@@IK@Z 10025e30 f   GridCtrl.obj
 0001:00024fa0       ?CreateCell@CGridCtrl@@MAEPAVCGridCellBase@@HH@Z 10025fa0 f   GridCtrl.obj
 0001:00025050       ?CreateDragImage@CGridCtrl@@MAEPAVCImageList@@PAVCPoint@@@Z 10026050 f   GridCtrl.obj
 0001:00025270       ?CreateObject@CGridCtrl@@SGPAVCObject@@XZ 10026270 f   GridCtrl.obj
 0001:000252e0       ?CutSelectedText@CGridCtrl@@UAEXXZ 100262e0 f   GridCtrl.obj
 0001:00025360       ?DeleteAllItems@CGridCtrl@@QAEHXZ 10026360 f   GridCtrl.obj
 0001:00025470       ?DeleteColumn@CGridCtrl@@QAEHH@Z 10026470 f   GridCtrl.obj
 0001:00025570       ?DeleteNonFixedRows@CGridCtrl@@QAEHXZ 10026570 f   GridCtrl.obj
 0001:000256a0       ?DeleteRow@CGridCtrl@@QAEHH@Z 100266a0 f   GridCtrl.obj
 0001:000257a0       ?DestroyCell@CGridCtrl@@MAEXHH@Z 100267a0 f   GridCtrl.obj
 0001:000257e0       ?EnableScrollBars@CGridCtrl@@IAEXHH@Z 100267e0 f   GridCtrl.obj
 0001:00025890       ?EndEditing@CGridCtrl@@MAEXXZ 10026890 f   GridCtrl.obj
 0001:000258d0       ?EnsureVisible@CGridCtrl@@QAEXHH@Z 100268d0 f   GridCtrl.obj
 0001:00025b80       ?EraseBkgnd@CGridCtrl@@IAEXPAVCDC@@@Z 10026b80 f   GridCtrl.obj
 0001:00025e20       ?ExpandColumnsToFit@CGridCtrl@@QAEXH@Z 10026e20 f   GridCtrl.obj
 0001:00026030       ?ExpandLastColumn@CGridCtrl@@QAEXXZ 10027030 f   GridCtrl.obj
 0001:00026120       ?ExpandRowsToFit@CGridCtrl@@QAEXH@Z 10027120 f   GridCtrl.obj
 0001:00026330       ?ExpandToFit@CGridCtrl@@QAEXH@Z 10027330 f   GridCtrl.obj
 0001:00026380       ?Format@COleDateTime@ATL@@QBE?AV?$CStringT@DV?$StrTraitMFC_DLL@DV?$ChTraitsCRT@D@ATL@@@@@2@PBD@Z 10027380 f i GridCtrl.obj
 0001:00026520       ?FreeAssoc@?$CMap@KKVCCellID@@AAV1@@@IAEXPAVCAssoc@1@@Z 10027520 f i GridCtrl.obj
 0001:00026580       ?GetAssocAt@?$CMap@KKVCCellID@@AAV1@@@IBEPAVCAssoc@1@KAAI0@Z 10027580 f i GridCtrl.obj
 0001:000265f0       ?GetCell@CGridCtrl@@QBEPAVCGridCellBase@@HH@Z 100275f0 f i GridCtrl.obj
 0001:000269e0       ?GetCellFromPt@CGridCtrl@@QAE?AVCCellID@@VCPoint@@H@Z 100279e0 f   GridCtrl.obj
 0001:00026bc0       ?GetCellOrigin@CGridCtrl@@QAEHABVCCellID@@PAUtagPOINT@@@Z 10027bc0 f   GridCtrl.obj
 0001:00026be0       ?GetCellOrigin@CGridCtrl@@QAEHHHPAUtagPOINT@@@Z 10027be0 f   GridCtrl.obj
 0001:00026e10       ?GetCellRange@CGridCtrl@@QBE?AVCCellRange@@XZ 10027e10 f   GridCtrl.obj
 0001:00026e40       ?GetCellRangeRect@CGridCtrl@@IAEHABVCCellRange@@PAUtagRECT@@@Z 10027e40 f   GridCtrl.obj
 0001:00026f40       ?GetCellRect@CGridCtrl@@QAEHABVCCellID@@PAUtagRECT@@@Z 10027f40 f   GridCtrl.obj
 0001:00026f60       ?GetCellRect@CGridCtrl@@QAEHHHPAUtagRECT@@@Z 10027f60 f   GridCtrl.obj
 0001:00027010       ?GetColumnWidth@CGridCtrl@@QBEHH@Z 10028010 f   GridCtrl.obj
 0001:00027050       ?GetDefaultCell@CGridCtrl@@QBEPAVCGridCellBase@@HH@Z 10028050 f i GridCtrl.obj
 0001:00027090       ?GetFixedColumnWidth@CGridCtrl@@QBEHXZ 10028090 f   GridCtrl.obj
 0001:000270e0       ?GetFixedRowHeight@CGridCtrl@@QBEHXZ 100280e0 f   GridCtrl.obj
 0001:00027130       ?GetItem@CGridCtrl@@QAEHPAU_GV_ITEM@@@Z 10028130 f   GridCtrl.obj
 0001:000272b0       ?GetItemBkColour@CGridCtrl@@QBEKHH@Z 100282b0 f   GridCtrl.obj
 0001:000272e0       ?GetItemData@CGridCtrl@@QBEJHH@Z 100282e0 f   GridCtrl.obj
 0001:00027310       ?GetItemFgColour@CGridCtrl@@QBEKHH@Z 10028310 f   GridCtrl.obj
 0001:00027340       ?GetItemFont@CGridCtrl@@QAEPBUtagLOGFONTA@@HH@Z 10028340 f   GridCtrl.obj
 0001:000273b0       ?GetItemFormat@CGridCtrl@@QBEIHH@Z 100283b0 f   GridCtrl.obj
 0001:000273e0       ?GetItemImage@CGridCtrl@@QBEHHH@Z 100283e0 f   GridCtrl.obj
 0001:00027410       ?GetItemState@CGridCtrl@@QBEIHH@Z 10028410 f   GridCtrl.obj
 0001:00027440       ?GetItemText@CGridCtrl@@QBE?AV?$CStringT@DV?$StrTraitMFC_DLL@DV?$ChTraitsCRT@D@ATL@@@@@ATL@@HH@Z 10028440 f   GridCtrl.obj
 0001:000274a0       ?GetMessageMap@CGridCtrl@@MBEPBUAFX_MSGMAP@@XZ 100284a0 f   GridCtrl.obj
 0001:000274b0       ?GetModified@CGridCtrl@@QAEHHH@Z 100284b0 f   GridCtrl.obj
 0001:00027500       ?GetMouseScrollLines@@YAIXZ 10028500 f   GridCtrl.obj
 0001:00027600       ?GetNextAssoc@?$CMap@KKVCCellID@@AAV1@@@QBEXAAPAU__POSITION@@AAKAAVCCellID@@@Z 10028600 f i GridCtrl.obj
 0001:00027690       ?GetNextItem@CGridCtrl@@QBE?AVCCellID@@AAV2@H@Z 10028690 f   GridCtrl.obj
 0001:000279f0       ?GetPointClicked@CGridCtrl@@IAE?AVCPoint@@HHABV2@@Z 100289f0 f   GridCtrl.obj
 0001:00027a50       ?GetPrintMarginInfo@CGridCtrl@@QAEXAAH000000@Z 10028a50 f   GridCtrl.obj
 0001:00027ab0       ?GetRowHeight@CGridCtrl@@QBEHH@Z 10028ab0 f   GridCtrl.obj
 0001:00027af0       ?GetRuntimeClass@CGridCtrl@@UBEPAUCRuntimeClass@@XZ 10028af0 f   GridCtrl.obj
 0001:00027b00       ?GetScrollPos32@CGridCtrl@@IAEHHH@Z 10028b00 f   GridCtrl.obj
 0001:00027b80       ?GetSelectedCellRange@CGridCtrl@@QBE?AVCCellRange@@XZ 10028b80 f   GridCtrl.obj
 0001:00027c40       ?GetTextExtent@CGridCtrl@@QAE?AVCSize@@HHPBD@Z 10028c40 f   GridCtrl.obj
 0001:00027c80       ?GetTextRect@CGridCtrl@@QAEHABVCCellID@@PAUtagRECT@@@Z 10028c80 f   GridCtrl.obj
 0001:00027ce0       ?GetTextRect@CGridCtrl@@QAEHHHPAUtagRECT@@@Z 10028ce0 f   GridCtrl.obj
 0001:00027d30       ?GetThisClass@CGridCtrl@@SGPAUCRuntimeClass@@XZ 10028d30 f   GridCtrl.obj
 0001:00027d40       ?GetThisMessageMap@CGridCtrl@@KGPBUAFX_MSGMAP@@XZ 10028d40 f   GridCtrl.obj
 0001:00027d50       ?GetTopleftNonFixedCell@CGridCtrl@@IAE?AVCCellID@@H@Z 10028d50 f   GridCtrl.obj
 0001:00027e60       ?GetUnobstructedNonFixedCellRange@CGridCtrl@@IAE?AVCCellRange@@H@Z 10028e60 f   GridCtrl.obj
 0001:00027fc0       ?GetVirtualHeight@CGridCtrl@@QBEJXZ 10028fc0 f   GridCtrl.obj
 0001:00028000       ?GetVirtualWidth@CGridCtrl@@QBEJXZ 10029000 f   GridCtrl.obj
 0001:00028040       ?GetVisibleNonFixedCellRange@CGridCtrl@@IAE?AVCCellRange@@PAUtagRECT@@H@Z 10029040 f   GridCtrl.obj
 0001:000281c0       ?InitHashTable@?$CMap@KKVCCellID@@AAV1@@@QAEXIH@Z 100291c0 f i GridCtrl.obj
 0001:00028230       ?Initialise@CGridCtrl@@IAEHXZ 10029230 f   GridCtrl.obj
 0001:00028330       ?InsertColumn@CGridCtrl@@QAEHPBDIH@Z 10029330 f   GridCtrl.obj
 0001:00028670       ?InsertRow@CGridCtrl@@QAEHPBDH@Z 10029670 f   GridCtrl.obj
 0001:00028990       ?InvalidateCellRect@CGridCtrl@@IAEHABVCCellID@@@Z 10029990 f   GridCtrl.obj
 0001:000289b0       ?InvalidateCellRect@CGridCtrl@@IAEHABVCCellRange@@@Z 100299b0 f   GridCtrl.obj
 0001:00028b20       ?InvalidateCellRect@CGridCtrl@@IAEHHH@Z 10029b20 f   GridCtrl.obj
 0001:00028be0       ?IsCellEditable@CGridCtrl@@QBEHAAVCCellID@@@Z 10029be0 f   GridCtrl.obj
 0001:00028c20       ?IsCellEditable@CGridCtrl@@QBEHHH@Z 10029c20 f   GridCtrl.obj
 0001:00028c60       ?IsCellFixed@CGridCtrl@@QAEHHH@Z 10029c60 f   GridCtrl.obj
 0001:00028c90       ?IsCellSelected@CGridCtrl@@QBEHAAVCCellID@@@Z 10029c90 f   GridCtrl.obj
 0001:00028cb0       ?IsCellSelected@CGridCtrl@@QBEHHH@Z 10029cb0 f   GridCtrl.obj
 0001:00028d30       ?IsCellVisible@CGridCtrl@@QAEHHH@Z 10029d30 f   GridCtrl.obj
 0001:00028f30       ?IsCellVisible@CGridCtrl@@QAEHVCCellID@@@Z 10029f30 f   GridCtrl.obj
 0001:00028f50       ?IsItemEditing@CGridCtrl@@QAEHHH@Z 10029f50 f   GridCtrl.obj
 0001:00028f80       ?IsValid@CGridCtrl@@QBEHABVCCellID@@@Z 10029f80 f   GridCtrl.obj
 0001:00028fc0       ?IsValid@CGridCtrl@@QBEHABVCCellRange@@@Z 10029fc0 f   GridCtrl.obj
 0001:00029010       ?IsValid@CGridCtrl@@QBEHHH@Z 1002a010 f   GridCtrl.obj
 0001:00029040       ?Load@CGridCtrl@@QAEHPBDD@Z 1002a040 f   GridCtrl.obj
 0001:000293d0       ?Lookup@?$CMap@KKVCCellID@@AAV1@@@QBEHKAAVCCellID@@@Z 1002a3d0 f i GridCtrl.obj
 0001:00029410       ?MouseOverColumnResizeArea@CGridCtrl@@IAEHAAVCPoint@@@Z 1002a410 f   GridCtrl.obj
 0001:000294d0       ?MouseOverRowResizeArea@CGridCtrl@@IAEHAAVCPoint@@@Z 1002a4d0 f   GridCtrl.obj
 0001:00029590       ?NewAssoc@?$CMap@KKVCCellID@@AAV1@@@IAEPAVCAssoc@1@K@Z 1002a590 f i GridCtrl.obj
 0001:00029620       ?OnBeginDrag@CGridCtrl@@UAEXXZ 1002a620 f   GridCtrl.obj
 0001:000296b0       ?OnBeginPrinting@CGridCtrl@@UAEXPAVCDC@@PAUCPrintInfo@@@Z 1002a6b0 f   GridCtrl.obj
 0001:00029a70       ?OnCaptureChanged@CGridCtrl@@IAEXPAVCWnd@@@Z 1002aa70 f   GridCtrl.obj
 0001:00029ad0       ?OnChar@CGridCtrl@@IAEXIII@Z 1002aad0 f   GridCtrl.obj
 0001:00029b30       ?OnDragEnter@CGridCtrl@@UAEKPAVCOleDataObject@@KVCPoint@@@Z 1002ab30 f   GridCtrl.obj
 0001:00029c00       ?OnDragLeave@CGridCtrl@@UAEXXZ 1002ac00 f   GridCtrl.obj
 0001:00029c70       ?OnDragOver@CGridCtrl@@UAEKPAVCOleDataObject@@KVCPoint@@@Z 1002ac70 f   GridCtrl.obj
 0001:00029de0       ?OnDraw@CGridCtrl@@MAEXPAVCDC@@@Z 1002ade0 f   GridCtrl.obj
 0001:0002a4a0       ?OnDrop@CGridCtrl@@UAEHPAVCOleDataObject@@KVCPoint@@@Z 1002b4a0 f   GridCtrl.obj
 0001:0002a520       ?OnEditCell@CGridCtrl@@MAEXHHVCPoint@@I@Z 1002b520 f   GridCtrl.obj
 0001:0002a600       ?OnEditCopy@CGridCtrl@@UAEXXZ 1002b600 f   GridCtrl.obj
 0001:0002a620       ?OnEditCut@CGridCtrl@@UAEXXZ 1002b620 f   GridCtrl.obj
 0001:0002a650       ?OnEditPaste@CGridCtrl@@UAEXXZ 1002b650 f   GridCtrl.obj
 0001:0002a7e0       ?OnEditSelectAll@CGridCtrl@@UAEXXZ 1002b7e0 f   GridCtrl.obj
 0001:0002a840       ?OnEndEditCell@CGridCtrl@@MAEXHHV?$CStringT@DV?$StrTraitMFC_DLL@DV?$ChTraitsCRT@D@ATL@@@@@ATL@@@Z 1002b840 f   GridCtrl.obj
 0001:0002a9a0       ?OnEndInPlaceEdit@CGridCtrl@@IAEXPAUtagNMHDR@@PAJ@Z 1002b9a0 f   GridCtrl.obj
 0001:0002aa60       ?OnEndPrinting@CGridCtrl@@UAEXPAVCDC@@PAUCPrintInfo@@@Z 1002ba60 f   GridCtrl.obj
 0001:0002aa70       ?OnEraseBkgnd@CGridCtrl@@IAEHPAVCDC@@@Z 1002ba70 f   GridCtrl.obj
 0001:0002aa80       ?OnFixedColumnClick@CGridCtrl@@MAEXAAVCCellID@@@Z 1002ba80 f   GridCtrl.obj
 0001:0002aaf0       ?OnFixedRowClick@CGridCtrl@@MAEXAAVCCellID@@@Z 1002baf0 f   GridCtrl.obj
 0001:0002abf0       ?OnGetDlgCode@CGridCtrl@@IAEIXZ 1002bbf0 f   GridCtrl.obj
 0001:0002ac20       ?OnGetFont@CGridCtrl@@IAEJIJ@Z 1002bc20 f   GridCtrl.obj
 0001:0002ac40       ?OnHScroll@CGridCtrl@@IAEXIIPAVCScrollBar@@@Z 1002bc40 f   GridCtrl.obj
 0001:0002af00       ?OnImeChar@CGridCtrl@@IAEJIJ@Z 1002bf00 f   GridCtrl.obj
 0001:0002af50       ?OnKeyDown@CGridCtrl@@IAEXIII@Z 1002bf50 f   GridCtrl.obj
 0001:0002b7f0       ?OnKeyUp@CGridCtrl@@IAEXIII@Z 1002c7f0 f   GridCtrl.obj
 0001:0002b800       ?OnLButtonDblClk@CGridCtrl@@IAEXIVCPoint@@@Z 1002c800 f   GridCtrl.obj
 0001:0002baf0       ?OnLButtonDown@CGridCtrl@@IAEXIVCPoint@@@Z 1002caf0 f   GridCtrl.obj
 0001:0002c330       ?OnLButtonUp@CGridCtrl@@IAEXIVCPoint@@@Z 1002d330 f   GridCtrl.obj
 0001:0002c7c0       ?OnMouseMove@CGridCtrl@@IAEXIVCPoint@@@Z 1002d7c0 f   GridCtrl.obj
 0001:0002cc10       ?OnMouseWheel@CGridCtrl@@IAEHIFVCPoint@@@Z 1002dc10 f   GridCtrl.obj
 0001:0002cd10       ?OnPaint@CGridCtrl@@IAEXXZ 1002dd10 f   GridCtrl.obj
 0001:0002cea0       ?OnPrint@CGridCtrl@@UAEXPAVCDC@@PAUCPrintInfo@@@Z 1002dea0 f   GridCtrl.obj
 0001:0002d490       ?OnRButtonDown@CGridCtrl@@IAEXIVCPoint@@@Z 1002e490 f   GridCtrl.obj
 0001:0002d4b0       ?OnRButtonUp@CGridCtrl@@IAEXIVCPoint@@@Z 1002e4b0 f   GridCtrl.obj
 0001:0002d5b0       ?OnSelecting@CGridCtrl@@IAEXABVCCellID@@@Z 1002e5b0 f   GridCtrl.obj
 0001:0002d690       ?OnSetCursor@CGridCtrl@@IAEHPAVCWnd@@II@Z 1002e690 f   GridCtrl.obj
 0001:0002d780       ?OnSetFont@CGridCtrl@@IAEJIJ@Z 1002e780 f   GridCtrl.obj
 0001:0002d830       ?OnSettingChange@CGridCtrl@@IAEXIPBD@Z 1002e830 f   GridCtrl.obj
 0001:0002d9e0       ?OnSize@CGridCtrl@@IAEXIHH@Z 1002e9e0 f   GridCtrl.obj
 0001:0002da40       ?OnSysColorChange@CGridCtrl@@IAEXXZ 1002ea40 f   GridCtrl.obj
 0001:0002dbd0       ?OnSysKeyDown@CGridCtrl@@IAEXIII@Z 1002ebd0 f   GridCtrl.obj
 0001:0002dbe0       ?OnTimer@CGridCtrl@@IAEXI@Z 1002ebe0 f   GridCtrl.obj
 0001:0002dd60       ?OnUpdateEditCopy@CGridCtrl@@IAEXPAVCCmdUI@@@Z 1002ed60 f   GridCtrl.obj
 0001:0002dd80       ?OnUpdateEditCut@CGridCtrl@@IAEXPAVCCmdUI@@@Z 1002ed80 f   GridCtrl.obj
 0001:0002ddb0       ?OnUpdateEditPaste@CGridCtrl@@IAEXPAVCCmdUI@@@Z 1002edb0 f   GridCtrl.obj
 0001:0002de20       ?OnUpdateEditSelectAll@CGridCtrl@@IAEXPAVCCmdUI@@@Z 1002ee20 f   GridCtrl.obj
 0001:0002de40       ?OnVScroll@CGridCtrl@@IAEXIIPAVCScrollBar@@@Z 1002ee40 f   GridCtrl.obj
 0001:0002e100       ?PasteTextToGrid@CGridCtrl@@UAEHVCCellID@@PAVCOleDataObject@@H@Z 1002f100 f   GridCtrl.obj
 0001:0002e680       ?PreSubclassWindow@CGridCtrl@@MAEXXZ 1002f680 f   GridCtrl.obj
 0001:0002e780       ?Print@CGridCtrl@@QAEXPAVCPrintDialog@@@Z 1002f780 f   GridCtrl.obj
 0001:0002e9e0       ?PrintColumnHeadings@CGridCtrl@@MAEXPAVCDC@@PAUCPrintInfo@@@Z 1002f9e0 f   GridCtrl.obj
 0001:0002eb00       ?PrintFixedRowCells@CGridCtrl@@MAEXHHAAHAAVCRect@@PAVCDC@@0@Z 1002fb00 f   GridCtrl.obj
 0001:0002ec90       ?PrintFooter@CGridCtrl@@MAEXPAVCDC@@PAUCPrintInfo@@@Z 1002fc90 f   GridCtrl.obj
 0001:0002efd0       ?PrintHeader@CGridCtrl@@MAEXPAVCDC@@PAUCPrintInfo@@@Z 1002ffd0 f   GridCtrl.obj
 0001:0002f1a0       ?PrintRowButtons@CGridCtrl@@MAEXPAVCDC@@PAUCPrintInfo@@@Z 100301a0 f   GridCtrl.obj
 0001:0002f3c0       ?RedrawCell@CGridCtrl@@QAEHABVCCellID@@PAVCDC@@@Z 100303c0 f   GridCtrl.obj
 0001:0002f3e0       ?RedrawCell@CGridCtrl@@QAEHHHPAVCDC@@@Z 100303e0 f   GridCtrl.obj
 0001:0002f610       ?RedrawColumn@CGridCtrl@@QAEHH@Z 10030610 f   GridCtrl.obj
 0001:0002f8a0       ?RedrawRow@CGridCtrl@@QAEHH@Z 100308a0 f   GridCtrl.obj
 0001:0002fb30       ?Refresh@CGridCtrl@@QAEXXZ 10030b30 f   GridCtrl.obj
 0001:0002fb50       ?RegisterWindowClass@CGridCtrl@@IAEHXZ 10030b50 f   GridCtrl.obj
 0001:0002fc00       ?RemoveAll@?$CMap@KKVCCellID@@AAV1@@@QAEXXZ 10030c00 f i GridCtrl.obj
 0001:0002fc40       ?RemoveKey@?$CMap@KKVCCellID@@AAV1@@@QAEHK@Z 10030c40 f i GridCtrl.obj
 0001:0002fd00       ?ResetScrollBars@CGridCtrl@@IAEXXZ 10030d00 f   GridCtrl.obj
 0001:0002ff90       ?ResetSelectedRange@CGridCtrl@@IAEXXZ 10030f90 f   GridCtrl.obj
 0001:00030010       ?Save@CGridCtrl@@QAEHPBDD@Z 10031010 f   GridCtrl.obj
 0001:00030230       ?SelectAllCells@CGridCtrl@@IAEXXZ 10031230 f   GridCtrl.obj
 0001:00030260       ?SelectCells@CGridCtrl@@IAEXVCCellID@@HH@Z 10031260 f   GridCtrl.obj
 0001:000302e0       ?SelectColumns@CGridCtrl@@IAEXVCCellID@@HH@Z 100312e0 f   GridCtrl.obj
 0001:00030360       ?SelectRows@CGridCtrl@@IAEXVCCellID@@HH@Z 10031360 f   GridCtrl.obj
 0001:000303f0       ?SendCacheHintToParent@CGridCtrl@@IBEJABVCCellRange@@@Z 100313f0 f   GridCtrl.obj
 0001:000304a0       ?SendDisplayRequestToParent@CGridCtrl@@IBEJPAUtagGV_DISPINFO@@@Z 100314a0 f   GridCtrl.obj
 0001:00030520       ?SendMessageToParent@CGridCtrl@@IBEJHHH@Z 10031520 f   GridCtrl.obj
 0001:000305b0       ?Serialize@?$CMap@KKVCCellID@@AAV1@@@UAEXAAVCArchive@@@Z 100315b0 f i GridCtrl.obj
 0001:000309f0       ?SetAt@?$CMap@KKVCCellID@@AAV1@@@QAEXKAAVCCellID@@@Z 100319f0 f i GridCtrl.obj
 0001:00030b20       ?SetAt@?$CTypedPtrArray@VCObArray@@PAVCGridCellBase@@@@QAEXHPAVCGridCellBase@@@Z 10031b20 f i GridCtrl.obj
 0001:00030b50       ?SetCell@CGridCtrl@@IAEHHHPAVCGridCellBase@@@Z 10031b50 f i GridCtrl.obj
 0001:00030bc0       ?SetCellType@CGridCtrl@@QAEHHHPAUCRuntimeClass@@@Z 10031bc0 f   GridCtrl.obj
 0001:00030c80       ?SetColumnCount@CGridCtrl@@QAEHH@Z 10031c80 f   GridCtrl.obj
 0001:00030f90       ?SetColumnWidth@CGridCtrl@@QAEHHH@Z 10031f90 f   GridCtrl.obj
 0001:00030fe0       ?SetCompareFunction@CGridCtrl@@QAEXP6GHJJJ@Z@Z 10031fe0 f   GridCtrl.obj
 0001:00030ff0       ?SetDefaultCellType@CGridCtrl@@QAEHPAUCRuntimeClass@@@Z 10031ff0 f   GridCtrl.obj
 0001:00031030       ?SetFixedColumnCount@CGridCtrl@@QAEHH@Z 10032030 f   GridCtrl.obj
 0001:00031280       ?SetFixedRowCount@CGridCtrl@@QAEHH@Z 10032280 f   GridCtrl.obj
 0001:000314a0       ?SetFocusCell@CGridCtrl@@QAE?AVCCellID@@HH@Z 100324a0 f   GridCtrl.obj
 0001:000314c0       ?SetFocusCell@CGridCtrl@@QAE?AVCCellID@@V2@@Z 100324c0 f   GridCtrl.obj
 0001:00031700       ?SetGridLines@CGridCtrl@@QAEXH@Z 10032700 f   GridCtrl.obj
 0001:00031730       ?SetItem@CGridCtrl@@QAEHPBU_GV_ITEM@@@Z 10032730 f   GridCtrl.obj
 0001:00031830       ?SetItemBkColour@CGridCtrl@@QAEHHHK@Z 10032830 f   GridCtrl.obj
 0001:00031870       ?SetItemData@CGridCtrl@@QAEHHHJ@Z 10032870 f   GridCtrl.obj
 0001:000318c0       ?SetItemFgColour@CGridCtrl@@QAEHHHK@Z 100328c0 f   GridCtrl.obj
 0001:00031900       ?SetItemFont@CGridCtrl@@QAEHHHPBUtagLOGFONTA@@@Z 10032900 f   GridCtrl.obj
 0001:00031940       ?SetItemFormat@CGridCtrl@@QAEHHHI@Z 10032940 f   GridCtrl.obj
 0001:00031980       ?SetItemImage@CGridCtrl@@QAEHHHH@Z 10032980 f   GridCtrl.obj
 0001:000319d0       ?SetItemState@CGridCtrl@@QAEHHHI@Z 100329d0 f   GridCtrl.obj
 0001:00031a90       ?SetItemText@CGridCtrl@@QAEHHHPBD@Z 10032a90 f   GridCtrl.obj
 0001:00031ae0       ?SetItemTextFmt@CGridCtrl@@QAAHHHPBDZZ 10032ae0 f   GridCtrl.obj
 0001:00031ba0       ?SetItemTextFmtID@CGridCtrl@@QAAHHHIZZ 10032ba0 f   GridCtrl.obj
 0001:00031c80       ?SetListMode@CGridCtrl@@QAEXH@Z 10032c80 f   GridCtrl.obj
 0001:00031ce0       ?SetModified@CGridCtrl@@QAEXHHH@Z 10032ce0 f   GridCtrl.obj
 0001:00031de0       ?SetPrintMarginInfo@CGridCtrl@@QAEXHHHHHHH@Z 10032de0 f   GridCtrl.obj
 0001:00031e50       ?SetRedraw@CGridCtrl@@QAEXHH@Z 10032e50 f   GridCtrl.obj
 0001:00031ea0       ?SetRowCount@CGridCtrl@@QAEHH@Z 10032ea0 f   GridCtrl.obj
 0001:000321f0       ?SetRowHeight@CGridCtrl@@QAEHHH@Z 100331f0 f   GridCtrl.obj
 0001:00032240       ?SetScrollPos32@CGridCtrl@@IAEHHHH@Z 10033240 f   GridCtrl.obj
 0001:00032290       ?SetSelectedRange@CGridCtrl@@QAEXABVCCellRange@@HH@Z 10033290 f   GridCtrl.obj
 0001:000322b0       ?SetSelectedRange@CGridCtrl@@QAEXHHHHHH@Z 100332b0 f   GridCtrl.obj
 0001:00032d20       ?SetSortColumn@CGridCtrl@@QAEXH@Z 10033d20 f   GridCtrl.obj
 0001:00032d60       ?SetVirtualMode@CGridCtrl@@QAEXH@Z 10033d60 f   GridCtrl.obj
 0001:00032db0       ?SetupDefaultCells@CGridCtrl@@IAEXXZ 10033db0 f   GridCtrl.obj
 0001:00032ea0       ?SortItems@CGridCtrl@@IAEHP6GHJJJ@ZHHJHH@Z 10033ea0 f   GridCtrl.obj
 0001:00033190       ?SortItems@CGridCtrl@@QAEHHHJ@Z 10034190 f   GridCtrl.obj
 0001:00033220       ?SortItems@CGridCtrl@@QAEHP6GHJJJ@ZHHJ@Z 10034220 f   GridCtrl.obj
 0001:000332a0       ?SortTextItems@CGridCtrl@@QAEHHHJ@Z 100342a0 f   GridCtrl.obj
 0001:000332c0       ?ValidateAndModifyCellContents@CGridCtrl@@IAEXHHPBD@Z 100342c0 f   GridCtrl.obj
 0001:000333c0       ?ValidateEdit@CGridCtrl@@MAEHHHPBD@Z 100343c0 f   GridCtrl.obj
 0001:000333f0       ?_GetBaseClass@CGridCtrl@@KGPAUCRuntimeClass@@XZ 100343f0 f   GridCtrl.obj
 0001:00033400       ?pfnCellNumericCompare@CGridCtrl@@SGHJJJ@Z 10034400 f   GridCtrl.obj
 0001:00033460       ?pfnCellTextCompare@CGridCtrl@@SGHJJJ@Z 10034460 f   GridCtrl.obj
 0001:000334a0       ??0CGridDropTarget@@QAE@XZ 100344a0 f   GridDropTarget.obj
 0001:000334d0       ??1CGridDropTarget@@UAE@XZ 100344d0 f   GridDropTarget.obj
 0001:000334e0       ??_ECGridDropTarget@@UAEPAXI@Z 100344e0 f i GridDropTarget.obj
 0001:000334e0       ??_GCGridDropTarget@@UAEPAXI@Z 100344e0 f i GridDropTarget.obj
 0001:00033520       ?GetMessageMap@CGridDropTarget@@MBEPBUAFX_MSGMAP@@XZ 10034520 f   GridDropTarget.obj
 0001:00033530       ?GetThisMessageMap@CGridDropTarget@@KGPBUAFX_MSGMAP@@XZ 10034530 f   GridDropTarget.obj
 0001:00033540       ?OnDragEnter@CGridDropTarget@@UAEKPAVCWnd@@PAVCOleDataObject@@KVCPoint@@@Z 10034540 f   GridDropTarget.obj
 0001:00033580       ?OnDragLeave@CGridDropTarget@@UAEXPAVCWnd@@@Z 10034580 f   GridDropTarget.obj
 0001:000335b0       ?OnDragOver@CGridDropTarget@@UAEKPAVCWnd@@PAVCOleDataObject@@KVCPoint@@@Z 100345b0 f   GridDropTarget.obj
 0001:000335f0       ?OnDragScroll@CGridDropTarget@@UAEKPAVCWnd@@KVCPoint@@@Z 100345f0 f   GridDropTarget.obj
 0001:00033630       ?OnDrop@CGridDropTarget@@UAEHPAVCWnd@@PAVCOleDataObject@@KVCPoint@@@Z 10034630 f   GridDropTarget.obj
 0001:00033670       ?Register@CGridDropTarget@@QAEHPAVCGridCtrl@@@Z 10034670 f   GridDropTarget.obj
 0001:000336e0       ?Revoke@CGridDropTarget@@UAEXXZ 100346e0 f   GridDropTarget.obj
 0001:000336f0       ??0CInPlaceEdit@@QAE@PAVCWnd@@AAVCRect@@KIHHV?$CStringT@DV?$StrTraitMFC_DLL@DV?$ChTraitsCRT@D@ATL@@@@@ATL@@I@Z 100346f0 f   InPlaceEdit.obj
 0001:00033940       ??1CInPlaceEdit@@UAE@XZ    10034940 f   InPlaceEdit.obj
 0001:00033960       ??1tagGV_DISPINFO@@QAE@XZ  10034960 f i InPlaceEdit.obj
 0001:00033970       ??_ECInPlaceEdit@@UAEPAXI@Z 10034970 f i InPlaceEdit.obj
 0001:00033970       ??_GCInPlaceEdit@@UAEPAXI@Z 10034970 f i InPlaceEdit.obj
 0001:000339c0       ?EndEdit@CInPlaceEdit@@QAEXXZ 100349c0 f   InPlaceEdit.obj
 0001:00033b20       ?GetMessageMap@CInPlaceEdit@@MBEPBUAFX_MSGMAP@@XZ 10034b20 f   InPlaceEdit.obj
 0001:00033b30       ?GetThisMessageMap@CInPlaceEdit@@KGPBUAFX_MSGMAP@@XZ 10034b30 f   InPlaceEdit.obj
 0001:00033b40       ?OnChar@CInPlaceEdit@@IAEXIII@Z 10034b40 f   InPlaceEdit.obj
 0001:00033ce0       ?OnCreate@CWnd@@IAEHPAUtagCREATESTRUCTA@@@Z 10034ce0 f i InPlaceEdit.obj
 0001:00033cf0       ?OnGetDlgCode@CInPlaceEdit@@IAEIXZ 10034cf0 f   InPlaceEdit.obj
 0001:00033d00       ?OnKeyDown@CInPlaceEdit@@IAEXIII@Z 10034d00 f   InPlaceEdit.obj
 0001:00033d70       ?OnKillFocus@CInPlaceEdit@@IAEXPAVCWnd@@@Z 10034d70 f   InPlaceEdit.obj
 0001:00033ed0       ?PostNcDestroy@CInPlaceEdit@@MAEXXZ 10034ed0 f   InPlaceEdit.obj
 0001:00033ef0       ?PreTranslateMessage@CInPlaceEdit@@UAEHPAUtagMSG@@@Z 10034ef0 f   InPlaceEdit.obj
 0001:00033f20       ??0CTitleTip@@QAE@XZ       10034f20 f   TitleTip.obj
 0001:00034070       ??1CTitleTip@@UAE@XZ       10035070 f   TitleTip.obj
 0001:00034080       ??_ECTitleTip@@UAEPAXI@Z   10035080 f i TitleTip.obj
 0001:00034080       ??_GCTitleTip@@UAEPAXI@Z   10035080 f i TitleTip.obj
 0001:000340d0       ?Create@CTitleTip@@UAEHPAVCWnd@@@Z 100350d0 f   TitleTip.obj
 0001:00034130       ?DestroyWindow@CTitleTip@@UAEHXZ 10035130 f   TitleTip.obj
 0001:00034140       ?GetMessageMap@CTitleTip@@MBEPBUAFX_MSGMAP@@XZ 10035140 f   TitleTip.obj
 0001:00034150       ?GetThisMessageMap@CTitleTip@@KGPBUAFX_MSGMAP@@XZ 10035150 f   TitleTip.obj
 0001:00034160       ?Hide@CTitleTip@@QAEXXZ    10035160 f   TitleTip.obj
 0001:000341b0       ?OnMouseMove@CTitleTip@@IAEXIVCPoint@@@Z 100351b0 f   TitleTip.obj
 0001:000342c0       ?PreTranslateMessage@CTitleTip@@UAEHPAUtagMSG@@@Z 100352c0 f   TitleTip.obj
 0001:00034530       ?Show@CTitleTip@@QAEXVCRect@@PBDHPAUtagRECT@@PBUtagLOGFONTA@@KK@Z 10035530 f   TitleTip.obj
 0001:000348a0       _ExtRawDllMain@12          100358a0 f   HWStrategyConfigureWizard.obj
 0001:000349b0       ?Dtos@@YA?AV?$CStringT@DV?$StrTraitMFC_DLL@DV?$ChTraitsCRT@D@ATL@@@@@ATL@@N@Z 100359b0 f   HWStrategyConfigureWizard.obj
 0001:00034a60       ?Parser@@YA?AV?$CStringT@DV?$StrTraitMFC_DLL@DV?$ChTraitsCRT@D@ATL@@@@@ATL@@PBDPAH@Z 10035a60 f   HWStrategyConfigureWizard.obj
 0001:00034b50       ?fnFuncCall@@YGJPAXPBD1AAUtagVARIANT@@@Z 10035b50 f   HWStrategyConfigureWizard.obj
 0001:00034b60       ?fnInit@@YGJPAUSTODINIT_IN@@PAUSTODINIT_OUT@@PAX@Z 10035b60 f   HWStrategyConfigureWizard.obj
 0001:00034bd0       ?fnLoad@@YGJPAUSTODCREATEINFO_IN@@PAUSTODCREATEINFO_OUT@@@Z 10035bd0 f   HWStrategyConfigureWizard.obj
 0001:00034dd0       ?fnUnLoad@@YGJPAX@Z        10035dd0 f   HWStrategyConfigureWizard.obj
 0001:00034e00       _CREATE_TRADING            10035e00 f   HWStrategyConfigureWizard.obj
 0001:00034eb0       _CREATE_TRADING_EX         10035eb0 f   HWStrategyConfigureWizard.obj
 0001:00034f60       _DESTROY_TRADING           10035f60 f   HWStrategyConfigureWizard.obj
 0001:00034f80       _DllMain@12                10035f80 f   HWStrategyConfigureWizard.obj
 0001:00034fe0       _DoModal_DlgSysVarOption   10035fe0 f   HWStrategyConfigureWizard.obj
 0001:00035080       _SCW_DeleteInterfaceOfStrategy 10036080 f   HWStrategyConfigureWizard.obj
 0001:000350c0       _SCW_GetInterfaceOfStrategy 100360c0 f   HWStrategyConfigureWizard.obj
 0001:000350f0       _SCW_IGfxOutBarCtrl        100360f0 f   HWStrategyConfigureWizard.obj
 0001:00035140       ??0COutLookBarDlg@@QAE@PAVCWnd@@@Z 10036140 f   OutLookBarDlg.obj
 0001:00035290       ??1COutLookBarDlg@@UAE@XZ  10036290 f   OutLookBarDlg.obj
 0001:00035360       ??_ECOutLookBarDlg@@UAEPAXI@Z 10036360 f i OutLookBarDlg.obj
 0001:00035360       ??_GCOutLookBarDlg@@UAEPAXI@Z 10036360 f i OutLookBarDlg.obj
 0001:00035460       ?DoDataExchange@COutLookBarDlg@@MAEXPAVCDataExchange@@@Z 10036460 f   OutLookBarDlg.obj
 0001:000354a0       ?GetMessageMap@COutLookBarDlg@@MBEPBUAFX_MSGMAP@@XZ 100364a0 f   OutLookBarDlg.obj
 0001:000354b0       ?GetRect@COutLookBarDlg@@QAE?AVCRect@@H@Z 100364b0 f   OutLookBarDlg.obj
 0001:00035500       ?GetRuntimeClass@COutLookBarDlg@@UBEPAUCRuntimeClass@@XZ 10036500 f   OutLookBarDlg.obj
 0001:00035510       ?GetSTPathSelected@COutLookBarDlg@@QAE?AV?$CStringT@DV?$StrTraitMFC_DLL@DV?$ChTraitsCRT@D@ATL@@@@@ATL@@AAV23@@Z 10036510 f   OutLookBarDlg.obj
 0001:00035550       ?GetThisClass@COutLookBarDlg@@SGPAUCRuntimeClass@@XZ 10036550 f   OutLookBarDlg.obj
 0001:00035560       ?GetThisMessageMap@COutLookBarDlg@@KGPBUAFX_MSGMAP@@XZ 10036560 f   OutLookBarDlg.obj
 0001:00035570       ?IsUserFolder@COutLookBarDlg@@QAEHH@Z 10036570 f   OutLookBarDlg.obj
 0001:00035590       ?LoadSTList@COutLookBarDlg@@QAEXXZ 10036590 f   OutLookBarDlg.obj
 0001:00035660       ?OnBnClickedBtnFindst@COutLookBarDlg@@QAEXXZ 10036660 f   OutLookBarDlg.obj
 0001:000357d0       ?OnBnClickedBtnNextst@COutLookBarDlg@@QAEXXZ 100367d0 f   OutLookBarDlg.obj
 0001:000358c0       ?OnCtlColor@COutLookBarDlg@@IAEPAUHBRUSH__@@PAVCDC@@PAVCWnd@@I@Z 100368c0 f   OutLookBarDlg.obj
 0001:00035910       ?OnDestroy@COutLookBarDlg@@IAEXXZ 10036910 f   OutLookBarDlg.obj
 0001:00035960       ?OnInitDialog@COutLookBarDlg@@MAEHXZ 10036960 f   OutLookBarDlg.obj
 0001:00035cd0       ?OnSize@COutLookBarDlg@@IAEXIHH@Z 10036cd0 f   OutLookBarDlg.obj
 0001:00035d50       ?PreTranslateMessage@COutLookBarDlg@@MAEHPAUtagMSG@@@Z 10036d50 f   OutLookBarDlg.obj
 0001:00035de0       ?Resize@COutLookBarDlg@@QAEXXZ 10036de0 f   OutLookBarDlg.obj
 0001:00035e60       ?SetSTParent@COutLookBarDlg@@QAEXPAVCWnd@@@Z 10036e60 f   OutLookBarDlg.obj
 0001:00035e70       ?UpdateSTList@COutLookBarDlg@@QAEXHV?$CStringT@DV?$StrTraitMFC_DLL@DV?$ChTraitsCRT@D@ATL@@@@@ATL@@@Z 10036e70 f   OutLookBarDlg.obj
 0001:00035f30       ?WindowProc@COutLookBarDlg@@MAEJIIJ@Z 10036f30 f   OutLookBarDlg.obj
 0001:00036080       ?_GetBaseClass@COutLookBarDlg@@KGPAUCRuntimeClass@@XZ 10037080 f   OutLookBarDlg.obj
 0001:00036090       ??0CSDItemInfo@@QAE@XZ     10037090 f   SDItemInfo.obj
 0001:00036140       ??1CSDItemInfo@@UAE@XZ     10037140 f   SDItemInfo.obj
 0001:00036180       ??_ECSDItemInfo@@UAEPAXI@Z 10037180 f i SDItemInfo.obj
 0001:00036180       ??_GCSDItemInfo@@UAEPAXI@Z 10037180 f i SDItemInfo.obj
 0001:000361d0       ?SetNewSDItemInfo@CSDItemInfo@@QAEHPAUHWND__@@0PAVCDrMLib_CDBMgr@@PBDH22H@Z 100371d0 f   SDItemInfo.obj
 0001:00036380       ?UpdateData@CSDItemInfo@@QAEHXZ 10037380 f   SDItemInfo.obj
 0001:00036390       ?Allocate@CAtlStringMgr@ATL@@UAEPAUCStringData@2@HH@Z 10037390 f i StdAfx.obj
 0001:00036400       ?Free@CAtlStringMgr@ATL@@UAEXPAUCStringData@2@@Z 10037400 f i StdAfx.obj
 0001:00036410       ?Reallocate@CAtlStringMgr@ATL@@UAEPAUCStringData@2@PAU32@HH@Z 10037410 f i StdAfx.obj
 0001:00036470       ?GetNilString@CAtlStringMgr@ATL@@UAEPAUCStringData@2@XZ 10037470 f i StdAfx.obj
 0001:00036480       ?Clone@CAtlStringMgr@ATL@@UAEPAUIAtlStringMgr@2@XZ 10037480 f i StdAfx.obj
 0001:00036490       ??_ECAtlStringMgr@ATL@@UAEPAXI@Z 10037490 f i StdAfx.obj
 0001:00036490       ??_GCAtlStringMgr@ATL@@UAEPAXI@Z 10037490 f i StdAfx.obj
 0001:000364c0       ?_AfxInitManaged@@YAHXZ    100374c0 f i StdAfx.obj
 0001:000364d0       ?Allocate@CWin32Heap@ATL@@UAEPAXI@Z 100374d0 f i StdAfx.obj
 0001:000364f0       ?Free@CWin32Heap@ATL@@UAEXPAX@Z 100374f0 f i StdAfx.obj
 0001:00036510       ?Reallocate@CWin32Heap@ATL@@UAEPAXPAXI@Z 10037510 f i StdAfx.obj
 0001:00036550       ?GetSize@CWin32Heap@ATL@@UAEIPAX@Z 10037550 f i StdAfx.obj
 0001:00036570       ??_GCWin32Heap@ATL@@UAEPAXI@Z 10037570 f i StdAfx.obj
 0001:00036570       ??_ECWin32Heap@ATL@@UAEPAXI@Z 10037570 f i StdAfx.obj
 0001:000365b0       ??1CAtlStringMgr@ATL@@UAE@XZ 100375b0 f i StdAfx.obj
 0001:000365c0       ??1CWin32Heap@ATL@@UAE@XZ  100375c0 f i StdAfx.obj
 0001:000365e0       ?EnsureLinked@CAtlStringMgrStaticInitializer@ATLImplementationDetails@ATL@@QAEPAXXZ 100375e0 f i StdAfx.obj
 0001:000365f0       ?_AtlInitializeCriticalSectionEx@ATL@@YAHPAU_RTL_CRITICAL_SECTION@@KK@Z 100375f0 f i StdAfx.obj
 0001:00036610       ?_AtlRaiseException@ATL@@YAXKK@Z 10037610 f i StdAfx.obj
 0001:00036630       ??0CExDrawButton@@QAE@H@Z  10037630 f   ExControl:ExDrawButton.obj
 0001:000366c0       ??0CLoaderDrawButton@@QAE@PAXH@Z 100376c0 f i ExControl:ExDrawButton.obj
 0001:000369e0       ??1CExDrawButton@@UAE@XZ   100379e0 f   ExControl:ExDrawButton.obj
 0001:00036a90       ??1CExLoadLib@@QAE@XZ      10037a90 f i ExControl:ExDrawButton.obj
 0001:00036ab0       ??_ECExDrawButton@@UAEPAXI@Z 10037ab0 f i ExControl:ExDrawButton.obj
 0001:00036ab0       ??_GCExDrawButton@@UAEPAXI@Z 10037ab0 f i ExControl:ExDrawButton.obj
 0001:00036b80       ?ActionControl@CExDrawButton@@QAEJPAX@Z 10037b80 f   ExControl:ExDrawButton.obj
 0001:00036bb0       ?AddToggleGroup@CExDrawButton@@QAAXPAV1@ZZ 10037bb0 f   ExControl:ExDrawButton.obj
 0001:00036c20       ?DrawItem@CExDrawButton@@UAEXPAUtagDRAWITEMSTRUCT@@@Z 10037c20 f   ExControl:ExDrawButton.obj
 0001:00036c50       ?GetMessageMap@CExDrawButton@@MBEPBUAFX_MSGMAP@@XZ 10037c50 f   ExControl:ExDrawButton.obj
 0001:00036c60       ?GetText@CExDrawButton@@QAEPBDXZ 10037c60 f   ExControl:ExDrawButton.obj
 0001:00036c90       ?GetThisMessageMap@CExDrawButton@@KGPBUAFX_MSGMAP@@XZ 10037c90 f   ExControl:ExDrawButton.obj
 0001:00036ca0       ?GetToggleState@CExDrawButton@@UAEHXZ 10037ca0 f   ExControl:ExDrawButton.obj
 0001:00036ce0       ?LoadProcAddress@CExLoadLib@@UAEHXZ 10037ce0 f i ExControl:ExDrawButton.obj
 0001:00036cf0       ?LoadProcAddress@CLoaderDrawButton@@UAEHXZ 10037cf0 f i ExControl:ExDrawButton.obj
 0001:00036dc0       ?OnClicked@CExDrawButton@@IAEHXZ 10037dc0 f   ExControl:ExDrawButton.obj
 0001:00036e00       ?OnDestroy@CExDrawButton@@IAEXXZ 10037e00 f   ExControl:ExDrawButton.obj
 0001:00036e10       ?PreSubclassWindow@CExDrawButton@@MAEXXZ 10037e10 f   ExControl:ExDrawButton.obj
 0001:00036e40       ?ReleasePushed@CExDrawButton@@UAEXXZ 10037e40 f   ExControl:ExDrawButton.obj
 0001:00036e80       ?SetButtonColor@CExDrawButton@@QAEHI@Z 10037e80 f   ExControl:ExDrawButton.obj
 0001:00036eb0       ?SetIconImage@CExDrawButton@@QAEHVCSize@@PAUHICON__@@1I@Z 10037eb0 f   ExControl:ExDrawButton.obj
 0001:00036ef0       ?SetText@CExDrawButton@@QAEXPBD@Z 10037ef0 f   ExControl:ExDrawButton.obj
 0001:00036f20       ?SetToggleState@CExDrawButton@@UAEXH@Z 10037f20 f   ExControl:ExDrawButton.obj
 0001:00036f70       ?UseToggleMode@CExDrawButton@@UAEXH@Z 10037f70 f   ExControl:ExDrawButton.obj
 0001:00036fd0       ??0CExEdit@@QAE@H@Z        10037fd0 f   ExControl:ExEdit.obj
 0001:00037070       ??0CLoaderEdit@@QAE@PAXH@Z 10038070 f i ExControl:ExEdit.obj
 0001:00037320       ??1CExEdit@@UAE@XZ         10038320 f   ExControl:ExEdit.obj
 0001:00037350       ??1CLoaderEdit@@UAE@XZ     10038350 f i ExControl:ExEdit.obj
 0001:000373d0       ??_ECExEdit@@UAEPAXI@Z     100383d0 f i ExControl:ExEdit.obj
 0001:000373d0       ??_GCExEdit@@UAEPAXI@Z     100383d0 f i ExControl:ExEdit.obj
 0001:00037430       ??_ECLoaderEdit@@UAEPAXI@Z 10038430 f i ExControl:ExEdit.obj
 0001:00037430       ??_GCLoaderEdit@@UAEPAXI@Z 10038430 f i ExControl:ExEdit.obj
 0001:000374d0       ?ActionControl@CExEdit@@QAEJPAX@Z 100384d0 f   ExControl:ExEdit.obj
 0001:00037500       ?GetMessageMap@CExEdit@@MBEPBUAFX_MSGMAP@@XZ 10038500 f   ExControl:ExEdit.obj
 0001:00037510       ?GetRuntimeClass@CExEdit@@UBEPAUCRuntimeClass@@XZ 10038510 f   ExControl:ExEdit.obj
 0001:00037520       ?GetThisClass@CExEdit@@SGPAUCRuntimeClass@@XZ 10038520 f   ExControl:ExEdit.obj
 0001:00037530       ?GetThisMessageMap@CExEdit@@KGPBUAFX_MSGMAP@@XZ 10038530 f   ExControl:ExEdit.obj
 0001:00037540       ?LoadProcAddress@CLoaderEdit@@UAEHXZ 10038540 f i ExControl:ExEdit.obj
 0001:000375d0       ?OnChar@CExEdit@@IAEXIII@Z 100385d0 f   ExControl:ExEdit.obj
 0001:00037600       ?OnPaint@CExEdit@@IAEXXZ   10038600 f   ExControl:ExEdit.obj
 0001:00037630       ?PreSubclassWindow@CExEdit@@MAEXXZ 10038630 f   ExControl:ExEdit.obj
 0001:00037650       ?PreTranslateMessage@CExEdit@@UAEHPAUtagMSG@@@Z 10038650 f   ExControl:ExEdit.obj
 0001:00037660       ?UseNumericType@CExEdit@@QAEXH@Z 10038660 f   ExControl:ExEdit.obj
 0001:00037690       ?_GetBaseClass@CExEdit@@KGPAUCRuntimeClass@@XZ 10038690 f   ExControl:ExEdit.obj
 0001:000376a0       ??0CExButton@@QAE@XZ       100386a0 f   ExControl:ExButton.obj
 0001:000376d0       ??1CExButton@@UAE@XZ       100386d0 f   ExControl:ExButton.obj
 0001:000376e0       ??_ECExButton@@UAEPAXI@Z   100386e0 f i ExControl:ExButton.obj
 0001:000376e0       ??_GCExButton@@UAEPAXI@Z   100386e0 f i ExControl:ExButton.obj
 0001:00037730       ?DrawItem@CExButton@@UAEXPAUtagDRAWITEMSTRUCT@@@Z 10038730 f   ExControl:ExButton.obj
 0001:00037740       ?GetMessageMap@CExButton@@MBEPBUAFX_MSGMAP@@XZ 10038740 f   ExControl:ExButton.obj
 0001:00037750       ?GetThisMessageMap@CExButton@@KGPBUAFX_MSGMAP@@XZ 10038750 f   ExControl:ExButton.obj
 0001:00037760       ?PreSubclassWindow@CExButton@@MAEXXZ 10038760 f   ExControl:ExButton.obj
 0001:00037790       ?Serialize@?$CArray@PAXPAX@@UAEXAAVCArchive@@@Z 10038790 f i ExControl:StdAfx.obj
 0001:00037870       ??_E?$CArray@PAXPAX@@UAEPAXI@Z 10038870 f i ExControl:StdAfx.obj
 0001:00037870       ??_G?$CArray@PAXPAX@@UAEPAXI@Z 10038870 f i ExControl:StdAfx.obj
 0001:000378c0       ??$SerializeElements@PAX@@YGXAAVCArchive@@PAPAXH@Z 100388c0 f i ExControl:StdAfx.obj
 0001:00037970       ??0?$CArray@PAXPAX@@QAE@XZ 10038970 f i ExControl:StdAfx.obj
 0001:000379a0       ??1?$CArray@PAXPAX@@UAE@XZ 100389a0 f i ExControl:StdAfx.obj
 0001:000379c0       ?CompareParamter@@YAHPADV?$CStringT@DV?$StrTraitMFC_DLL@DV?$ChTraitsCRT@D@ATL@@@@@ATL@@@Z 100389c0 f   ExControl:StdAfx.obj
 0001:00037a80       ?CreateObject@?$CThreadLocal@VAFX_MODULE_THREAD_STATE@@@@SGPAVCNoTrackObject@@XZ 10038a80 f i ExControl:StdAfx.obj
 0001:00037af0       ?GetParamterValue@@YAXPBDAAV?$CStringT@DV?$StrTraitMFC_DLL@DV?$ChTraitsCRT@D@ATL@@@@@ATL@@V12@@Z 10038af0 f   ExControl:StdAfx.obj
 0001:00037be0       ?RemovePermanentHandle@@YAXPAX@Z 10038be0 f   ExControl:StdAfx.obj
 0001:00037c20       ?SetAtGrow@?$CArray@PAXPAX@@QAEXHPAX@Z 10038c20 f i ExControl:StdAfx.obj
 0001:00037c60       ?SetPermanentHandle@@YAXPAXPAVCObject@@@Z 10038c60 f   ExControl:StdAfx.obj
 0001:00037d30       ?SetSize@?$CArray@PAXPAX@@QAEXHH@Z 10038d30 f i ExControl:StdAfx.obj
 0001:00037f0c       ??0?$CStringT@DV?$StrTraitMFC_DLL@DV?$ChTraitsCRT@D@ATL@@@@@ATL@@QAE@XZ 10038f0c f   mfc140:mfc140.dll
 0001:00037f12       ??0?$CStringT@DV?$StrTraitMFC_DLL@DV?$ChTraitsCRT@D@ATL@@@@@ATL@@QAE@ABV01@@Z 10038f12 f   mfc140:mfc140.dll
 0001:00037f18       ??0?$CStringT@DV?$StrTraitMFC_DLL@DV?$ChTraitsCRT@D@ATL@@@@@ATL@@QAE@PBD@Z 10038f18 f   mfc140:mfc140.dll
 0001:00037f1e       ??1?$CStringT@DV?$StrTraitMFC_DLL@DV?$ChTraitsCRT@D@ATL@@@@@ATL@@QAE@XZ 10038f1e f   mfc140:mfc140.dll
 0001:00037f24       ??4?$CStringT@DV?$StrTraitMFC_DLL@DV?$ChTraitsCRT@D@ATL@@@@@ATL@@QAEAAV01@PBD@Z 10038f24 f   mfc140:mfc140.dll
 0001:00037f2a       ?Format@?$CStringT@DV?$StrTraitMFC_DLL@DV?$ChTraitsCRT@D@ATL@@@@@ATL@@QAAXPBDZZ 10038f2a f   mfc140:mfc140.dll
 0001:00037f30       ?AfxMessageBox@@YGHPBDII@Z 10038f30 f   mfc140:mfc140.dll
 0001:00037f36       ??3@YAXPAX@Z               10038f36 f   mfc140:mfc140.dll
 0001:00037f3c       ??2@YAPAXI@Z               10038f3c f   mfc140:mfc140.dll
 0001:00037f42       ??_U@YAPAXI@Z              10038f42 f   mfc140:mfc140.dll
 0001:00037f48       ??_V@YAXPAX@Z              10038f48 f   mfc140:mfc140.dll
 0001:00037f4e       ?AfxThrowInvalidArgException@@YGXXZ 10038f4e f   mfc140:mfc140.dll
 0001:00037f54       ??0CPtrArray@@QAE@XZ       10038f54 f   mfc140:mfc140.dll
 0001:00037f5a       ?SetSize@CPtrArray@@QAEXHH@Z 10038f5a f   mfc140:mfc140.dll
 0001:00037f60       ?SetAtGrow@CPtrArray@@QAEXHPAX@Z 10038f60 f   mfc140:mfc140.dll
 0001:00037f66       ?InsertAt@CPtrArray@@QAEXHPAXH@Z 10038f66 f   mfc140:mfc140.dll
 0001:00037f6c       ?RemoveAt@CPtrArray@@QAEXHH@Z 10038f6c f   mfc140:mfc140.dll
 0001:00037f72       ??1CPtrArray@@UAE@XZ       10038f72 f   mfc140:mfc140.dll
 0001:00037f78       ?GetRuntimeClass@CGdiObject@@UBEPAUCRuntimeClass@@XZ 10038f78 f   mfc140:mfc140.dll
 0001:00037f7e       ?Attach@CGdiObject@@QAEHPAX@Z 10038f7e f   mfc140:mfc140.dll
 0001:00037f84       ?DeleteObject@CGdiObject@@QAEHXZ 10038f84 f   mfc140:mfc140.dll
 0001:00037f8a       ?GetRuntimeClass@CPen@@UBEPAUCRuntimeClass@@XZ 10038f8a f   mfc140:mfc140.dll
 0001:00037f90       ??0CPen@@QAE@HHK@Z         10038f90 f   mfc140:mfc140.dll
 0001:00037f96       ?GetRuntimeClass@CFont@@UBEPAUCRuntimeClass@@XZ 10038f96 f   mfc140:mfc140.dll
 0001:00037f9c       ?GetRuntimeClass@CBitmap@@UBEPAUCRuntimeClass@@XZ 10038f9c f   mfc140:mfc140.dll
 0001:00037fa2       ?GetRuntimeClass@CRgn@@UBEPAUCRuntimeClass@@XZ 10038fa2 f   mfc140:mfc140.dll
 0001:00037fa8       ?Attach@CDC@@QAEHPAUHDC__@@@Z 10038fa8 f   mfc140:mfc140.dll
 0001:00037fae       ??0CDC@@QAE@XZ             10038fae f   mfc140:mfc140.dll
 0001:00037fb4       ?SaveDC@CDC@@UAEHXZ        10038fb4 f   mfc140:mfc140.dll
 0001:00037fba       ?RestoreDC@CDC@@UAEHH@Z    10038fba f   mfc140:mfc140.dll
 0001:00037fc0       ?SelectObject@CDC@@QAEPAVCPen@@PAV2@@Z 10038fc0 f   mfc140:mfc140.dll
 0001:00037fc6       ?SelectObject@CDC@@UAEPAVCFont@@PAV2@@Z 10038fc6 f   mfc140:mfc140.dll
 0001:00037fcc       ?SetBkMode@CDC@@QAEHH@Z    10038fcc f   mfc140:mfc140.dll
 0001:00037fd2       ?SetTextColor@CDC@@UAEKK@Z 10038fd2 f   mfc140:mfc140.dll
 0001:00037fd8       ?SelectClipRgn@CDC@@QAEHPAVCRgn@@@Z 10038fd8 f   mfc140:mfc140.dll
 0001:00037fde       ?ExcludeClipRect@CDC@@QAEHPBUtagRECT@@@Z 10038fde f   mfc140:mfc140.dll
 0001:00037fe4       ?MoveTo@CDC@@QAE?AVCPoint@@HH@Z 10038fe4 f   mfc140:mfc140.dll
 0001:00037fea       ?LineTo@CDC@@QAEHHH@Z      10038fea f   mfc140:mfc140.dll
 0001:00037ff0       ?FillSolidRect@CDC@@QAEXPBUtagRECT@@K@Z 10038ff0 f   mfc140:mfc140.dll
 0001:00037ff6       ?Draw3dRect@CDC@@QAEXPBUtagRECT@@KK@Z 10038ff6 f   mfc140:mfc140.dll
 0001:00037ffe       ??1CDC@@UAE@XZ             10038ffe f   mfc140:mfc140.dll
 0001:00038004       ?SelectGdiObject@CDC@@KGPAVCGdiObject@@PAUHDC__@@PAX@Z 10039004 f   mfc140:mfc140.dll
 0001:0003800a       ??0CPaintDC@@QAE@PAVCWnd@@@Z 1003900a f   mfc140:mfc140.dll
 0001:00038010       ??1CPaintDC@@UAE@XZ        10039010 f   mfc140:mfc140.dll
 0001:00038016       ??0CClientDC@@QAE@PAVCWnd@@@Z 10039016 f   mfc140:mfc140.dll
 0001:0003801c       ??1CClientDC@@UAE@XZ       1003901c f   mfc140:mfc140.dll
 0001:00038022       ?OnCmdMsg@CCmdTarget@@UAEHIHPAXPAUAFX_CMDHANDLERINFO@@@Z 10039022 f   mfc140:mfc140.dll
 0001:00038028       ?IsInvokeAllowed@CCmdTarget@@UAEHJ@Z 10039028 f   mfc140:mfc140.dll
 0001:0003802e       ?GetDispatchIID@CCmdTarget@@UAEHPAU_GUID@@@Z 1003902e f   mfc140:mfc140.dll
 0001:00038034       ?GetTypeInfoCount@CCmdTarget@@UAEIXZ 10039034 f   mfc140:mfc140.dll
 0001:0003803a       ?GetTypeLibCache@CCmdTarget@@UAEPAVCTypeLibCache@@XZ 1003903a f   mfc140:mfc140.dll
 0001:00038040       ?GetTypeLib@CCmdTarget@@UAEJKPAPAUITypeLib@@@Z 10039040 f   mfc140:mfc140.dll
 0001:00038046       ?GetCommandMap@CCmdTarget@@MBEPBUAFX_OLECMDMAP@@XZ 10039046 f   mfc140:mfc140.dll
 0001:0003804c       ?GetDispatchMap@CCmdTarget@@MBEPBUAFX_DISPMAP@@XZ 1003904c f   mfc140:mfc140.dll
 0001:00038052       ?GetConnectionMap@CCmdTarget@@MBEPBUAFX_CONNECTIONMAP@@XZ 10039052 f   mfc140:mfc140.dll
 0001:00038058       ?GetEventSinkMap@CCmdTarget@@MBEPBUAFX_EVENTSINKMAP@@XZ 10039058 f   mfc140:mfc140.dll
 0001:0003805e       ?OnCreateAggregates@CCmdTarget@@UAEHXZ 1003905e f   mfc140:mfc140.dll
 0001:00038064       ?GetInterfaceHook@CCmdTarget@@UAEPAUIUnknown@@PBX@Z 10039064 f   mfc140:mfc140.dll
 0001:0003806a       ?GetExtraConnectionPoints@CCmdTarget@@MAEHPAVCPtrArray@@@Z 1003906a f   mfc140:mfc140.dll
 0001:00038070       ?GetConnectionHook@CCmdTarget@@MAEPAUIConnectionPoint@@ABU_GUID@@@Z 10039070 f   mfc140:mfc140.dll
 0001:00038076       ?GetThisClass@CWnd@@SGPAUCRuntimeClass@@XZ 10039076 f   mfc140:mfc140.dll
 0001:0003807c       ??0CWnd@@QAE@XZ            1003907c f   mfc140:mfc140.dll
 0001:00038082       ?FromHandle@CWnd@@SGPAV1@PAUHWND__@@@Z 10039082 f   mfc140:mfc140.dll
 0001:00038088       ?PreSubclassWindow@CWnd@@UAEXXZ 10039088 f   mfc140:mfc140.dll
 0001:0003808e       ?Create@CWnd@@UAEHPBD0KABUtagRECT@@PAV1@IPAUCCreateContext@@@Z 1003908e f   mfc140:mfc140.dll
 0001:00038094       ?CreateEx@CWnd@@UAEHKPBD0KHHHHPAUHWND__@@PAUHMENU__@@PAX@Z 10039094 f   mfc140:mfc140.dll
 0001:0003809a       ?CreateEx@CWnd@@UAEHKPBD0KABUtagRECT@@PAV1@IPAX@Z 1003909a f   mfc140:mfc140.dll
 0001:000380a0       ?DestroyWindow@CWnd@@UAEHXZ 100390a0 f   mfc140:mfc140.dll
 0001:000380a6       ?PreCreateWindow@CWnd@@UAEHAAUtagCREATESTRUCTA@@@Z 100390a6 f   mfc140:mfc140.dll
 0001:000380ac       ?CalcWindowRect@CWnd@@UAEXPAUtagRECT@@I@Z 100390ac f   mfc140:mfc140.dll
 0001:000380b2       ?GetMenu@CWnd@@UBEPAVCMenu@@XZ 100390b2 f   mfc140:mfc140.dll
 0001:000380b8       ?SetMenu@CWnd@@UAEHPAVCMenu@@@Z 100390b8 f   mfc140:mfc140.dll
 0001:000380be       ?MoveWindow@CWnd@@QAEXHHHHH@Z 100390be f   mfc140:mfc140.dll
 0001:000380c4       ?SetWindowPos@CWnd@@QAEHPBV1@HHHHI@Z 100390c4 f   mfc140:mfc140.dll
 0001:000380ca       ?ShowWindow@CWnd@@QAEHH@Z  100390ca f   mfc140:mfc140.dll
 0001:000380d0       ?OnToolHitTest@CWnd@@UBEHVCPoint@@PAUtagTOOLINFOA@@@Z 100390d0 f   mfc140:mfc140.dll
 0001:000380d6       ?SetFocus@CWnd@@QAEPAV1@XZ 100390d6 f   mfc140:mfc140.dll
 0001:000380dc       ?GetScrollBarCtrl@CWnd@@UBEPAVCScrollBar@@H@Z 100390dc f   mfc140:mfc140.dll
 0001:000380e2       ?WinHelpA@CWnd@@UAEXKI@Z   100390e2 f   mfc140:mfc140.dll
 0001:000380e8       ?HtmlHelpA@CWnd@@UAEXKI@Z  100390e8 f   mfc140:mfc140.dll
 0001:000380ee       ?WinHelpInternal@CWnd@@UAEXKI@Z 100390ee f   mfc140:mfc140.dll
 0001:000380f4       ?ContinueModal@CWnd@@UAEHXZ 100390f4 f   mfc140:mfc140.dll
 0001:000380fa       ?EndModalLoop@CWnd@@UAEXH@Z 100390fa f   mfc140:mfc140.dll
 0001:00038100       ?OnDrawIconicThumbnailOrLivePreview@CWnd@@UAEXAAVCDC@@VCRect@@VCSize@@HAAH@Z 10039100 f   mfc140:mfc140.dll
 0001:00038106       ?GetInterfaceMap@CWnd@@MBEPBUAFX_INTERFACEMAP@@XZ 10039106 f   mfc140:mfc140.dll
 0001:0003810c       ?EnsureStdObj@CWnd@@UAEJXZ 1003910c f   mfc140:mfc140.dll
 0001:00038112       ?get_accParent@CWnd@@UAEJPAPAUIDispatch@@@Z 10039112 f   mfc140:mfc140.dll
 0001:00038118       ?get_accChildCount@CWnd@@UAEJPAJ@Z 10039118 f   mfc140:mfc140.dll
 0001:0003811e       ?get_accChild@CWnd@@UAEJUtagVARIANT@@PAPAUIDispatch@@@Z 1003911e f   mfc140:mfc140.dll
 0001:00038124       ?get_accName@CWnd@@UAEJUtagVARIANT@@PAPA_W@Z 10039124 f   mfc140:mfc140.dll
 0001:0003812a       ?get_accValue@CWnd@@UAEJUtagVARIANT@@PAPA_W@Z 1003912a f   mfc140:mfc140.dll
 0001:00038130       ?get_accDescription@CWnd@@UAEJUtagVARIANT@@PAPA_W@Z 10039130 f   mfc140:mfc140.dll
 0001:00038136       ?get_accRole@CWnd@@UAEJUtagVARIANT@@PAU2@@Z 10039136 f   mfc140:mfc140.dll
 0001:0003813c       ?get_accState@CWnd@@UAEJUtagVARIANT@@PAU2@@Z 1003913c f   mfc140:mfc140.dll
 0001:00038142       ?get_accHelp@CWnd@@UAEJUtagVARIANT@@PAPA_W@Z 10039142 f   mfc140:mfc140.dll
 0001:00038148       ?get_accHelpTopic@CWnd@@UAEJPAPA_WUtagVARIANT@@PAJ@Z 10039148 f   mfc140:mfc140.dll
 0001:0003814e       ?get_accKeyboardShortcut@CWnd@@UAEJUtagVARIANT@@PAPA_W@Z 1003914e f   mfc140:mfc140.dll
 0001:00038154       ?get_accFocus@CWnd@@UAEJPAUtagVARIANT@@@Z 10039154 f   mfc140:mfc140.dll
 0001:0003815a       ?get_accSelection@CWnd@@UAEJPAUtagVARIANT@@@Z 1003915a f   mfc140:mfc140.dll
 0001:00038160       ?get_accDefaultAction@CWnd@@UAEJUtagVARIANT@@PAPA_W@Z 10039160 f   mfc140:mfc140.dll
 0001:00038166       ?accSelect@CWnd@@UAEJJUtagVARIANT@@@Z 10039166 f   mfc140:mfc140.dll
 0001:0003816c       ?accLocation@CWnd@@UAEJPAJ000UtagVARIANT@@@Z 1003916c f   mfc140:mfc140.dll
 0001:00038172       ?accNavigate@CWnd@@UAEJJUtagVARIANT@@PAU2@@Z 10039172 f   mfc140:mfc140.dll
 0001:00038178       ?accHitTest@CWnd@@UAEJJJPAUtagVARIANT@@@Z 10039178 f   mfc140:mfc140.dll
 0001:0003817e       ?accDoDefaultAction@CWnd@@UAEJUtagVARIANT@@@Z 1003917e f   mfc140:mfc140.dll
 0001:00038184       ?put_accName@CWnd@@UAEJUtagVARIANT@@PA_W@Z 10039184 f   mfc140:mfc140.dll
 0001:0003818a       ?put_accValue@CWnd@@UAEJUtagVARIANT@@PA_W@Z 1003918a f   mfc140:mfc140.dll
 0001:00038190       ?SetProxy@CWnd@@UAEJPAUIAccessibleProxy@@@Z 10039190 f   mfc140:mfc140.dll
 0001:00038196       ?CreateAccessibleProxy@CWnd@@UAEJIJPAJ@Z 10039196 f   mfc140:mfc140.dll
 0001:0003819c       ?OnCommand@CWnd@@MAEHIJ@Z  1003919c f   mfc140:mfc140.dll
 0001:000381a2       ?OnNotify@CWnd@@MAEHIJPAJ@Z 100391a2 f   mfc140:mfc140.dll
 0001:000381a8       ?OnDestroy@CWnd@@IAEXXZ    100391a8 f   mfc140:mfc140.dll
 0001:000381ae       ?GetSuperWndProcAddr@CWnd@@MAEPAP6GJPAUHWND__@@IIJ@ZXZ 100391ae f   mfc140:mfc140.dll
 0001:000381b4       ?PreTranslateMessage@CWnd@@UAEHPAUtagMSG@@@Z 100391b4 f   mfc140:mfc140.dll
 0001:000381ba       ?OnAmbientProperty@CWnd@@UAEHPAVCOleControlSite@@JPAUtagVARIANT@@@Z 100391ba f   mfc140:mfc140.dll
 0001:000381c0       ?WindowProc@CWnd@@MAEJIIJ@Z 100391c0 f   mfc140:mfc140.dll
 0001:000381c6       ?OnWndMsg@CWnd@@MAEHIIJPAJ@Z 100391c6 f   mfc140:mfc140.dll
 0001:000381cc       ?Default@CWnd@@IAEJXZ      100391cc f   mfc140:mfc140.dll
 0001:000381d2       ?DefWindowProcA@CWnd@@MAEJIIJ@Z 100391d2 f   mfc140:mfc140.dll
 0001:000381d8       ?PostNcDestroy@CWnd@@MAEXXZ 100391d8 f   mfc140:mfc140.dll
 0001:000381de       ?OnChildNotify@CWnd@@MAEHIIJPAJ@Z 100391de f   mfc140:mfc140.dll
 0001:000381e4       ?OnTouchInputs@CWnd@@MAEHIPAUtagTOUCHINPUT@@@Z 100391e4 f   mfc140:mfc140.dll
 0001:000381ea       ?OnTouchInput@CWnd@@MAEHVCPoint@@HHPAUtagTOUCHINPUT@@@Z 100391ea f   mfc140:mfc140.dll
 0001:000381f0       ?GetGestureStatus@CWnd@@MAEKVCPoint@@@Z 100391f0 f   mfc140:mfc140.dll
 0001:000381f6       ?OnGestureZoom@CWnd@@MAEHVCPoint@@J@Z 100391f6 f   mfc140:mfc140.dll
 0001:000381fc       ?OnGesturePan@CWnd@@MAEHVCPoint@@0@Z 100391fc f   mfc140:mfc140.dll
 0001:00038202       ?OnGestureRotate@CWnd@@MAEHVCPoint@@N@Z 10039202 f   mfc140:mfc140.dll
 0001:00038208       ?OnGestureTwoFingerTap@CWnd@@MAEHVCPoint@@@Z 10039208 f   mfc140:mfc140.dll
 0001:0003820e       ?OnGesturePressAndTap@CWnd@@MAEHVCPoint@@J@Z 1003920e f   mfc140:mfc140.dll
 0001:00038214       ?ResizeDynamicLayout@CWnd@@MAEXXZ 10039214 f   mfc140:mfc140.dll
 0001:0003821a       ??1CWnd@@UAE@XZ            1003921a f   mfc140:mfc140.dll
 0001:00038220       ?CheckAutoCenter@CWnd@@UAEHXZ 10039220 f   mfc140:mfc140.dll
 0001:00038226       ?IsFrameWnd@CWnd@@UBEHXZ   10039226 f   mfc140:mfc140.dll
 0001:0003822c       ?OnFinalRelease@CWnd@@UAEXXZ 1003922c f   mfc140:mfc140.dll
 0001:00038232       ?CreateControlContainer@CWnd@@MAEHPAPAVCOleControlContainer@@@Z 10039232 f   mfc140:mfc140.dll
 0001:00038238       ?CreateControlSite@CWnd@@MAEHPAVCOleControlContainer@@PAPAVCOleControlSite@@IABU_GUID@@@Z 10039238 f   mfc140:mfc140.dll
 0001:0003823e       ?SetOccDialogInfo@CWnd@@MAEHPAU_AFX_OCC_DIALOG_INFO@@@Z 1003923e f   mfc140:mfc140.dll
 0001:00038244       ?GetOccDialogInfo@CWnd@@MAEPAU_AFX_OCC_DIALOG_INFO@@XZ 10039244 f   mfc140:mfc140.dll
 0001:0003824a       ?GetThisMessageMap@CWnd@@KGPBUAFX_MSGMAP@@XZ 1003924a f   mfc140:mfc140.dll
 0001:00038250       ?AfxLockTempMaps@@YGXXZ    10039250 f   mfc140:mfc140.dll
 0001:00038256       ?AfxUnlockTempMaps@@YGHH@Z 10039256 f   mfc140:mfc140.dll
 0001:0003825c       ??4?$CStringT@DV?$StrTraitMFC_DLL@DV?$ChTraitsCRT@D@ATL@@@@@ATL@@QAEAAV01@ABV01@@Z 1003925c f   mfc140:mfc140.dll
 0001:00038262       ?Compare@?$CStringT@DV?$StrTraitMFC_DLL@DV?$ChTraitsCRT@D@ATL@@@@@ATL@@QBEHPBD@Z 10039262 f   mfc140:mfc140.dll
 0001:00038268       ??0CDWordArray@@QAE@XZ     10039268 f   mfc140:mfc140.dll
 0001:0003826e       ?SetSize@CDWordArray@@QAEXHH@Z 1003926e f   mfc140:mfc140.dll
 0001:00038274       ??1CDWordArray@@UAE@XZ     10039274 f   mfc140:mfc140.dll
 0001:0003827a       ?GetRuntimeClass@CMenu@@UBEPAUCRuntimeClass@@XZ 1003927a f   mfc140:mfc140.dll
 0001:00038280       ?DestroyMenu@CMenu@@QAEHXZ 10039280 f   mfc140:mfc140.dll
 0001:00038286       ?Attach@CMenu@@QAEHPAUHMENU__@@@Z 10039286 f   mfc140:mfc140.dll
 0001:0003828c       ?TrackPopupMenu@CMenu@@QAEHIHHPAVCWnd@@PBUtagRECT@@@Z 1003928c f   mfc140:mfc140.dll
 0001:00038292       ?DrawItem@CMenu@@UAEXPAUtagDRAWITEMSTRUCT@@@Z 10039292 f   mfc140:mfc140.dll
 0001:00038298       ?MeasureItem@CMenu@@UAEXPAUtagMEASUREITEMSTRUCT@@@Z 10039298 f   mfc140:mfc140.dll
 0001:0003829e       ?GetThisClass@CListCtrl@@SGPAUCRuntimeClass@@XZ 1003929e f   mfc140:mfc140.dll
 0001:000382a4       ?GetRuntimeClass@CListCtrl@@UBEPAUCRuntimeClass@@XZ 100392a4 f   mfc140:mfc140.dll
 0001:000382aa       ?GetItemText@CListCtrl@@QBE?AV?$CStringT@DV?$StrTraitMFC_DLL@DV?$ChTraitsCRT@D@ATL@@@@@ATL@@HH@Z 100392aa f   mfc140:mfc140.dll
 0001:000382b0       ?GetItemData@CListCtrl@@QBEKH@Z 100392b0 f   mfc140:mfc140.dll
 0001:000382b6       ?DrawItem@CListCtrl@@UAEXPAUtagDRAWITEMSTRUCT@@@Z 100392b6 f   mfc140:mfc140.dll
 0001:000382bc       ??1CListCtrl@@UAE@XZ       100392bc f   mfc140:mfc140.dll
 0001:000382c2       ?OnChildNotify@CListCtrl@@MAEHIIJPAJ@Z 100392c2 f   mfc140:mfc140.dll
 0001:000382c8       ?GetThisMessageMap@CListCtrl@@KGPBUAFX_MSGMAP@@XZ 100392c8 f   mfc140:mfc140.dll
 0001:000382ce       ?GetMessageMap@CListCtrl@@MBEPBUAFX_MSGMAP@@XZ 100392ce f   mfc140:mfc140.dll
 0001:000382d4       ??A?$CSimpleStringT@D$00@ATL@@QBEDH@Z 100392d4 f   mfc140:mfc140.dll
 0001:000382da       ??Y?$CStringT@DV?$StrTraitMFC_DLL@DV?$ChTraitsCRT@D@ATL@@@@@ATL@@QAEAAV01@PBD@Z 100392da f   mfc140:mfc140.dll
 0001:000382e0       ?CompareNoCase@?$CStringT@DV?$StrTraitMFC_DLL@DV?$ChTraitsCRT@D@ATL@@@@@ATL@@QBEHPBD@Z 100392e0 f   mfc140:mfc140.dll
 0001:000382e6       ?Find@?$CStringT@DV?$StrTraitMFC_DLL@DV?$ChTraitsCRT@D@ATL@@@@@ATL@@QBEHPBDH@Z 100392e6 f   mfc140:mfc140.dll
 0001:000382ec       ?Left@?$CStringT@DV?$StrTraitMFC_DLL@DV?$ChTraitsCRT@D@ATL@@@@@ATL@@QBE?AV12@H@Z 100392ec f   mfc140:mfc140.dll
 0001:000382f2       ??0CFileFind@@QAE@XZ       100392f2 f   mfc140:mfc140.dll
 0001:000382f8       ??1CFileFind@@UAE@XZ       100392f8 f   mfc140:mfc140.dll
 0001:000382fe       ?GetFileName@CFileFind@@UBE?AV?$CStringT@DV?$StrTraitMFC_DLL@DV?$ChTraitsCRT@D@ATL@@@@@ATL@@XZ 100392fe f   mfc140:mfc140.dll
 0001:00038304       ?IsDots@CFileFind@@UBEHXZ  10039304 f   mfc140:mfc140.dll
 0001:0003830a       ?FindFile@CFileFind@@UAEHPBDK@Z 1003930a f   mfc140:mfc140.dll
 0001:00038310       ?FindNextFileA@CFileFind@@UAEHXZ 10039310 f   mfc140:mfc140.dll
 0001:00038316       ??0CStringArray@@QAE@XZ    10039316 f   mfc140:mfc140.dll
 0001:0003831c       ?SetSize@CStringArray@@QAEXHH@Z 1003931c f   mfc140:mfc140.dll
 0001:00038322       ?SetAtGrow@CStringArray@@QAEXHABV?$CStringT@DV?$StrTraitMFC_DLL@DV?$ChTraitsCRT@D@ATL@@@@@ATL@@@Z 10039322 f   mfc140:mfc140.dll
 0001:00038328       ??1CStringArray@@UAE@XZ    10039328 f   mfc140:mfc140.dll
 0001:0003832e       ?ModifyStyleEx@CWnd@@QAEHKKI@Z 1003932e f   mfc140:mfc140.dll
 0001:00038334       ?GetRuntimeClass@CTreeCtrl@@UBEPAUCRuntimeClass@@XZ 10039334 f   mfc140:mfc140.dll
 0001:0003833a       ?Create@CTreeCtrl@@QAEHKABUtagRECT@@PAVCWnd@@I@Z 1003933a f   mfc140:mfc140.dll
 0001:00038340       ?GetItemText@CTreeCtrl@@QBE?AV?$CStringT@DV?$StrTraitMFC_DLL@DV?$ChTraitsCRT@D@ATL@@@@@ATL@@PAU_TREEITEM@@@Z 10039340 f   mfc140:mfc140.dll
 0001:00038346       ?GetItemData@CTreeCtrl@@QBEKPAU_TREEITEM@@@Z 10039346 f   mfc140:mfc140.dll
 0001:0003834c       ?SetItem@CTreeCtrl@@QAEHPAU_TREEITEM@@IPBDHHIIJ@Z 1003934c f   mfc140:mfc140.dll
 0001:00038352       ?ItemHasChildren@CTreeCtrl@@QBEHPAU_TREEITEM@@@Z 10039352 f   mfc140:mfc140.dll
 0001:00038358       ?InsertItem@CTreeCtrl@@QAEPAU_TREEITEM@@IPBDHHIIJPAU2@1@Z 10039358 f   mfc140:mfc140.dll
 0001:0003835e       ?HitTest@CTreeCtrl@@QBEPAU_TREEITEM@@VCPoint@@PAI@Z 1003935e f   mfc140:mfc140.dll
 0001:00038364       ??1CTreeCtrl@@UAE@XZ       10039364 f   mfc140:mfc140.dll
 0001:0003836a       ?OnDestroy@CTreeCtrl@@QAEXXZ 1003936a f   mfc140:mfc140.dll
 0001:00038370       ?GetThisMessageMap@CTreeCtrl@@KGPBUAFX_MSGMAP@@XZ 10039370 f   mfc140:mfc140.dll
 0001:00038376       ?GetMessageMap@CTreeCtrl@@MBEPBUAFX_MSGMAP@@XZ 10039376 f   mfc140:mfc140.dll
 0001:0003837c       ?AfxThrowArchiveException@@YGXHPBD@Z 1003937c f   mfc140:mfc140.dll
 0001:00038382       ?GetRuntimeClass@CObject@@UBEPAUCRuntimeClass@@XZ 10039382 f   mfc140:mfc140.dll
 0001:00038388       ?Empty@?$CSimpleStringT@D$00@ATL@@QAEXXZ 10039388 f   mfc140:mfc140.dll
 0001:0003838e       ?Concatenate@?$CSimpleStringT@D$00@ATL@@KAXAAV12@PBDH1H@Z 1003938e f   mfc140:mfc140.dll
 0001:00038394       ??0?$CStringT@DV?$StrTraitMFC_DLL@DV?$ChTraitsCRT@D@ATL@@@@@ATL@@QAE@PAUIAtlStringMgr@1@@Z 10039394 f   mfc140:mfc140.dll
 0001:0003839a       ?GetManager@?$CStringT@DV?$StrTraitMFC_DLL@DV?$ChTraitsCRT@D@ATL@@@@@ATL@@QBEPAUIAtlStringMgr@2@XZ 1003939a f   mfc140:mfc140.dll
 0001:000383a0       ?Delete@?$CStringT@DV?$StrTraitMFC_DLL@DV?$ChTraitsCRT@D@ATL@@@@@ATL@@QAEHHH@Z 100393a0 f   mfc140:mfc140.dll
 0001:000383a6       ?Find@?$CStringT@DV?$StrTraitMFC_DLL@DV?$ChTraitsCRT@D@ATL@@@@@ATL@@QBEHDH@Z 100393a6 f   mfc140:mfc140.dll
 0001:000383ac       ?ReverseFind@?$CStringT@DV?$StrTraitMFC_DLL@DV?$ChTraitsCRT@D@ATL@@@@@ATL@@QBEHD@Z 100393ac f   mfc140:mfc140.dll
 0001:000383b2       ?MakeUpper@?$CStringT@DV?$StrTraitMFC_DLL@DV?$ChTraitsCRT@D@ATL@@@@@ATL@@QAEAAV12@XZ 100393b2 f   mfc140:mfc140.dll
 0001:000383b8       ?Mid@?$CStringT@DV?$StrTraitMFC_DLL@DV?$ChTraitsCRT@D@ATL@@@@@ATL@@QBE?AV12@H@Z 100393b8 f   mfc140:mfc140.dll
 0001:000383be       ?Mid@?$CStringT@DV?$StrTraitMFC_DLL@DV?$ChTraitsCRT@D@ATL@@@@@ATL@@QBE?AV12@HH@Z 100393be f   mfc140:mfc140.dll
 0001:000383c4       ?Read@CArchive@@QAEIPAXI@Z 100393c4 f   mfc140:mfc140.dll
 0001:000383ca       ?Write@CArchive@@QAEXPBXI@Z 100393ca f   mfc140:mfc140.dll
 0001:000383d0       ?ReadCount@CArchive@@QAEKXZ 100393d0 f   mfc140:mfc140.dll
 0001:000383d6       ?WriteCount@CArchive@@QAEXK@Z 100393d6 f   mfc140:mfc140.dll
 0001:000383dc       ?Create@CPlex@@SGPAU1@AAPAU1@II@Z 100393dc f   mfc140:mfc140.dll
 0001:000383e2       ?FreeDataChain@CPlex@@QAEXXZ 100393e2 f   mfc140:mfc140.dll
 0001:000383e8       ?FromHandle@CImageList@@SGPAV1@PAU_IMAGELIST@@@Z 100393e8 f   mfc140:mfc140.dll
 0001:000383ee       ?Create@CListCtrl@@QAEHKABUtagRECT@@PAVCWnd@@I@Z 100393ee f   mfc140:mfc140.dll
 0001:000383f4       ?SetItem@CListCtrl@@QAEHHHIPBDHIIJ@Z 100393f4 f   mfc140:mfc140.dll
 0001:000383fa       ?SetItemState@CListCtrl@@QAEHHII@Z 100393fa f   mfc140:mfc140.dll
 0001:00038400       ?InsertColumn@CListCtrl@@QAEHHPBDHHH@Z 10039400 f   mfc140:mfc140.dll
 0001:00038406       ?InsertItem@CListCtrl@@QAEHIHPBDIIHJ@Z 10039406 f   mfc140:mfc140.dll
 0001:0003840c       ??0?$CStringT@DV?$StrTraitMFC_DLL@DV?$ChTraitsCRT@D@ATL@@@@@ATL@@QAE@DH@Z 1003940c f   mfc140:mfc140.dll
 0001:00038412       ?GetStyle@CWnd@@QBEKXZ     10039412 f   mfc140:mfc140.dll
 0001:00038418       ?SetWindowTextA@CWnd@@QAEXPBD@Z 10039418 f   mfc140:mfc140.dll
 0001:0003841e       ?GetWindowTextA@CWnd@@QBEXAAV?$CStringT@DV?$StrTraitMFC_DLL@DV?$ChTraitsCRT@D@ATL@@@@@ATL@@@Z 1003941e f   mfc140:mfc140.dll
 0001:00038424       ?GetMessageMap@CWnd@@MBEPBUAFX_MSGMAP@@XZ 10039424 f   mfc140:mfc140.dll
 0001:0003842a       ?GetRuntimeClass@CEdit@@UBEPAUCRuntimeClass@@XZ 1003942a f   mfc140:mfc140.dll
 0001:00038430       ??1CEdit@@UAE@XZ           10039430 f   mfc140:mfc140.dll
 0001:00038436       ?FromHandle@CGdiObject@@SGPAV1@PAX@Z 10039436 f   mfc140:mfc140.dll
 0001:0003843c       ?GetRuntimeClass@CDC@@UBEPAUCRuntimeClass@@XZ 1003943c f   mfc140:mfc140.dll
 0001:00038442       ?SetAttribDC@CDC@@UAEXPAUHDC__@@@Z 10039442 f   mfc140:mfc140.dll
 0001:00038448       ?SetOutputDC@CDC@@UAEXPAUHDC__@@@Z 10039448 f   mfc140:mfc140.dll
 0001:0003844e       ?ReleaseAttribDC@CDC@@UAEXXZ 1003944e f   mfc140:mfc140.dll
 0001:00038454       ?ReleaseOutputDC@CDC@@UAEXXZ 10039454 f   mfc140:mfc140.dll
 0001:0003845a       ?SelectStockObject@CDC@@UAEPAVCGdiObject@@H@Z 1003945a f   mfc140:mfc140.dll
 0001:00038460       ?SetBkColor@CDC@@UAEKK@Z   10039460 f   mfc140:mfc140.dll
 0001:00038466       ?SetMapMode@CDC@@UAEHH@Z   10039466 f   mfc140:mfc140.dll
 0001:0003846c       ?SetViewportOrg@CDC@@UAE?AVCPoint@@HH@Z 1003946c f   mfc140:mfc140.dll
 0001:00038472       ?OffsetViewportOrg@CDC@@UAE?AVCPoint@@HH@Z 10039472 f   mfc140:mfc140.dll
 0001:00038478       ?SetViewportExt@CDC@@UAE?AVCSize@@HH@Z 10039478 f   mfc140:mfc140.dll
 0001:0003847e       ?ScaleViewportExt@CDC@@UAE?AVCSize@@HHHH@Z 1003947e f   mfc140:mfc140.dll
 0001:00038484       ?SetWindowOrg@CDC@@QAE?AVCPoint@@HH@Z 10039484 f   mfc140:mfc140.dll
 0001:0003848a       ?SetWindowExt@CDC@@UAE?AVCSize@@HH@Z 1003948a f   mfc140:mfc140.dll
 0001:00038490       ?ScaleWindowExt@CDC@@UAE?AVCSize@@HHHH@Z 10039490 f   mfc140:mfc140.dll
 0001:00038496       ?GetClipBox@CDC@@UBEHPAUtagRECT@@@Z 10039496 f   mfc140:mfc140.dll
 0001:0003849c       ?DrawIndirect@CImageList@@QAEHPAVCDC@@HUtagPOINT@@UtagSIZE@@1IKKKKKK@Z 1003949c f   mfc140:mfc140.dll
 0001:000384a2       ?GetDlgCtrlID@CWnd@@QBEHXZ 100394a2 f   mfc140:mfc140.dll
 0001:000384a8       ?OnSysColorChange@CWnd@@IAEXXZ 100394a8 f   mfc140:mfc140.dll
 0001:000384ae       ?GetThisClass@CHeaderCtrl@@SGPAUCRuntimeClass@@XZ 100394ae f   mfc140:mfc140.dll
 0001:000384b4       ?GetRuntimeClass@CHeaderCtrl@@UBEPAUCRuntimeClass@@XZ 100394b4 f   mfc140:mfc140.dll
 0001:000384ba       ?Create@CHeaderCtrl@@UAEHKABUtagRECT@@PAVCWnd@@I@Z 100394ba f   mfc140:mfc140.dll
 0001:000384c0       ?CreateEx@CHeaderCtrl@@UAEHKKABUtagRECT@@PAVCWnd@@I@Z 100394c0 f   mfc140:mfc140.dll
 0001:000384c6       ?DrawItem@CHeaderCtrl@@UAEXPAUtagDRAWITEMSTRUCT@@@Z 100394c6 f   mfc140:mfc140.dll
 0001:000384cc       ??1CHeaderCtrl@@UAE@XZ     100394cc f   mfc140:mfc140.dll
 0001:000384d2       ?OnChildNotify@CHeaderCtrl@@MAEHIIJPAJ@Z 100394d2 f   mfc140:mfc140.dll
 0001:000384d8       ?FromHandle@CDC@@SGPAV1@PAUHDC__@@@Z 100394d8 f   mfc140:mfc140.dll
 0001:000384de       ??0CImageList@@QAE@XZ      100394de f   mfc140:mfc140.dll
 0001:000384e4       ??1CImageList@@UAE@XZ      100394e4 f   mfc140:mfc140.dll
 0001:000384ea       ?SubclassWindow@CWnd@@QAEHPAUHWND__@@@Z 100394ea f   mfc140:mfc140.dll
 0001:000384f0       ?Create@CEdit@@QAEHKABUtagRECT@@PAVCWnd@@I@Z 100394f0 f   mfc140:mfc140.dll
 0001:000384f6       ?GetItemRect@CListCtrl@@QBEHHPAUtagRECT@@I@Z 100394f6 f   mfc140:mfc140.dll
 0001:000384fc       ?SetItemText@CListCtrl@@QAEHHHPBD@Z 100394fc f   mfc140:mfc140.dll
 0001:00038502       ?GetHeaderCtrl@CListCtrl@@QBEPAVCHeaderCtrl@@XZ 10039502 f   mfc140:mfc140.dll
 0001:00038508       ?GetSubItemRect@CListCtrl@@QBEHHHHAAVCRect@@@Z 10039508 f   mfc140:mfc140.dll
 0001:0003850e       ?GetRuntimeClass@CBrush@@UBEPAUCRuntimeClass@@XZ 1003950e f   mfc140:mfc140.dll
 0001:00038514       ??0CBrush@@QAE@K@Z         10039514 f   mfc140:mfc140.dll
 0001:0003851a       ?GetRuntimeClass@CComboBox@@UBEPAUCRuntimeClass@@XZ 1003951a f   mfc140:mfc140.dll
 0001:00038520       ?Create@CComboBox@@UAEHKABUtagRECT@@PAVCWnd@@I@Z 10039520 f   mfc140:mfc140.dll
 0001:00038526       ?DrawItem@CComboBox@@UAEXPAUtagDRAWITEMSTRUCT@@@Z 10039526 f   mfc140:mfc140.dll
 0001:0003852c       ?MeasureItem@CComboBox@@UAEXPAUtagMEASUREITEMSTRUCT@@@Z 1003952c f   mfc140:mfc140.dll
 0001:00038532       ?CompareItem@CComboBox@@UAEHPAUtagCOMPAREITEMSTRUCT@@@Z 10039532 f   mfc140:mfc140.dll
 0001:00038538       ?DeleteItem@CComboBox@@UAEXPAUtagDELETEITEMSTRUCT@@@Z 10039538 f   mfc140:mfc140.dll
 0001:0003853e       ??1CComboBox@@UAE@XZ       1003953e f   mfc140:mfc140.dll
 0001:00038544       ?OnChildNotify@CComboBox@@MAEHIIJPAJ@Z 10039544 f   mfc140:mfc140.dll
 0001:0003854a       ?SelectObject@CDC@@QAEPAVCBrush@@PAV2@@Z 1003954a f   mfc140:mfc140.dll
 0001:00038550       ?EnableWindow@CWnd@@QAEHH@Z 10039550 f   mfc140:mfc140.dll
 0001:00038556       ?GetRuntimeClass@CButton@@UBEPAUCRuntimeClass@@XZ 10039556 f   mfc140:mfc140.dll
 0001:0003855c       ?Create@CButton@@UAEHPBDKABUtagRECT@@PAVCWnd@@I@Z 1003955c f   mfc140:mfc140.dll
 0001:00038562       ?DrawItem@CButton@@UAEXPAUtagDRAWITEMSTRUCT@@@Z 10039562 f   mfc140:mfc140.dll
 0001:00038568       ??1CButton@@UAE@XZ         10039568 f   mfc140:mfc140.dll
 0001:0003856e       ?OnChildNotify@CButton@@MAEHIIJPAJ@Z 1003956e f   mfc140:mfc140.dll
 0001:00038574       ?GetRuntimeClass@CStatic@@UBEPAUCRuntimeClass@@XZ 10039574 f   mfc140:mfc140.dll
 0001:0003857a       ?Create@CStatic@@UAEHPBDKABUtagRECT@@PAVCWnd@@I@Z 1003957a f   mfc140:mfc140.dll
 0001:00038580       ?DrawItem@CStatic@@UAEXPAUtagDRAWITEMSTRUCT@@@Z 10039580 f   mfc140:mfc140.dll
 0001:00038586       ??1CStatic@@UAE@XZ         10039586 f   mfc140:mfc140.dll
 0001:0003858c       ?OnChildNotify@CStatic@@MAEHIIJPAJ@Z 1003958c f   mfc140:mfc140.dll
 0001:00038592       ?AfxThrowMemoryException@@YGXXZ 10039592 f   mfc140:mfc140.dll
 0001:00038598       ??4?$CStringT@DV?$StrTraitMFC_DLL@DV?$ChTraitsCRT@D@ATL@@@@@ATL@@QAEAAV01@D@Z 10039598 f   mfc140:mfc140.dll
 0001:0003859e       ??Y?$CStringT@DV?$StrTraitMFC_DLL@DV?$ChTraitsCRT@D@ATL@@@@@ATL@@QAEAAV01@ABV?$CSimpleStringT@D$00@1@@Z 1003959e f   mfc140:mfc140.dll
 0001:000385a4       ??0CUIntArray@@QAE@XZ      100395a4 f   mfc140:mfc140.dll
 0001:000385aa       ?SetAtGrow@CUIntArray@@QAEXHI@Z 100395aa f   mfc140:mfc140.dll
 0001:000385b0       ?RemoveAt@CUIntArray@@QAEXHH@Z 100395b0 f   mfc140:mfc140.dll
 0001:000385b6       ??1CUIntArray@@UAE@XZ      100395b6 f   mfc140:mfc140.dll
 0001:000385bc       ?MessageBoxA@CWnd@@QAEHPBD0I@Z 100395bc f   mfc140:mfc140.dll
 0001:000385c2       ?GetRuntimeClass@CRichEditCtrl@@UBEPAUCRuntimeClass@@XZ 100395c2 f   mfc140:mfc140.dll
 0001:000385c8       ?GetSel@CRichEditCtrl@@QBEXAAJ0@Z 100395c8 f   mfc140:mfc140.dll
 0001:000385ce       ?SetSel@CRichEditCtrl@@QAEXJJ@Z 100395ce f   mfc140:mfc140.dll
 0001:000385d4       ?SetSelectionCharFormat@CRichEditCtrl@@QAEHAAU_charformat@@@Z 100395d4 f   mfc140:mfc140.dll
 0001:000385da       ??1CRichEditCtrl@@UAE@XZ   100395da f   mfc140:mfc140.dll
 0001:000385e0       ?DeleteDC@CDC@@QAEHXZ      100395e0 f   mfc140:mfc140.dll
 0001:000385e6       ?ModifyStyle@CWnd@@QAEHKKI@Z 100395e6 f   mfc140:mfc140.dll
 0001:000385ec       ?AfxFindResourceHandle@@YGPAUHINSTANCE__@@PBD0@Z 100395ec f   mfc140:mfc140.dll
 0001:000385f2       ??0CToolTipCtrl@@QAE@XZ    100395f2 f   mfc140:mfc140.dll
 0001:000385f8       ?AddTool@CToolTipCtrl@@QAEHPAVCWnd@@PBDPBUtagRECT@@I@Z 100395f8 f   mfc140:mfc140.dll
 0001:000385fe       ?UpdateTipText@CToolTipCtrl@@QAEXPBDPAVCWnd@@I@Z 100395fe f   mfc140:mfc140.dll
 0001:00038604       ??1CToolTipCtrl@@UAE@XZ    10039604 f   mfc140:mfc140.dll
 0001:0003860a       ?ClientToScreen@CWnd@@QBEXPAUtagRECT@@@Z 1003960a f   mfc140:mfc140.dll
 0001:00038610       ?GetRuntimeClass@CTabCtrl@@UBEPAUCRuntimeClass@@XZ 10039610 f   mfc140:mfc140.dll
 0001:00038616       ?Create@CTabCtrl@@UAEHKABUtagRECT@@PAVCWnd@@I@Z 10039616 f   mfc140:mfc140.dll
 0001:0003861c       ?CreateEx@CTabCtrl@@UAEHKKABUtagRECT@@PAVCWnd@@I@Z 1003961c f   mfc140:mfc140.dll
 0001:00038622       ?DrawItem@CTabCtrl@@UAEXPAUtagDRAWITEMSTRUCT@@@Z 10039622 f   mfc140:mfc140.dll
 0001:00038628       ??1CTabCtrl@@UAE@XZ        10039628 f   mfc140:mfc140.dll
 0001:0003862e       ?OnChildNotify@CTabCtrl@@MAEHIIJPAJ@Z 1003962e f   mfc140:mfc140.dll
 0001:00038634       ?GetThisMessageMap@CTabCtrl@@KGPBUAFX_MSGMAP@@XZ 10039634 f   mfc140:mfc140.dll
 0001:0003863a       ?GetMessageMap@CTabCtrl@@MBEPBUAFX_MSGMAP@@XZ 1003963a f   mfc140:mfc140.dll
 0001:00038640       ?SetAtGrow@CDWordArray@@QAEXHK@Z 10039640 f   mfc140:mfc140.dll
 0001:00038646       ?AfxGetModuleState@@YGPAVAFX_MODULE_STATE@@XZ 10039646 f   mfc140:mfc140.dll
 0001:0003864c       ?DrawDragRect@CDC@@QAEXPBUtagRECT@@UtagSIZE@@01PAVCBrush@@2@Z 1003964c f   mfc140:mfc140.dll
 0001:00038652       ?GetRuntimeClass@CWnd@@UBEPAUCRuntimeClass@@XZ 10039652 f   mfc140:mfc140.dll
 0001:00038658       ?UnsubclassWindow@CWnd@@QAEPAUHWND__@@XZ 10039658 f   mfc140:mfc140.dll
 0001:0003865e       ?GetDlgItem@CWnd@@QBEPAV1@H@Z 1003965e f   mfc140:mfc140.dll
 0001:00038664       ?ScreenToClient@CWnd@@QBEXPAUtagRECT@@@Z 10039664 f   mfc140:mfc140.dll
 0001:0003866a       ?TrimRight@?$CStringT@DV?$StrTraitMFC_DLL@DV?$ChTraitsCRT@D@ATL@@@@@ATL@@QAEAAV12@XZ 1003966a f   mfc140:mfc140.dll
 0001:00038670       ?GetParentFrame@CWnd@@QBEPAVCFrameWnd@@XZ 10039670 f   mfc140:mfc140.dll
 0001:00038676       ?GetRuntimeClass@CDialog@@UBEPAUCRuntimeClass@@XZ 10039676 f   mfc140:mfc140.dll
 0001:0003867c       ?Create@CDialog@@UAEHPBDPAVCWnd@@@Z 1003967c f   mfc140:mfc140.dll
 0001:00038682       ?CreateIndirect@CDialog@@UAEHPBUDLGTEMPLATE@@PAVCWnd@@PAX@Z 10039682 f   mfc140:mfc140.dll
 0001:00038688       ?CreateIndirect@CDialog@@UAEHPAXPAVCWnd@@@Z 10039688 f   mfc140:mfc140.dll
 0001:0003868e       ??0CDialog@@QAE@IPAVCWnd@@@Z 1003968e f   mfc140:mfc140.dll
 0001:00038694       ?DoModal@CDialog@@UAEHXZ   10039694 f   mfc140:mfc140.dll
 0001:0003869a       ?OnInitDialog@CDialog@@UAEHXZ 1003969a f   mfc140:mfc140.dll
 0001:000386a0       ?OnSetFont@CDialog@@UAEXPAVCFont@@@Z 100396a0 f   mfc140:mfc140.dll
 0001:000386a6       ?OnOK@CDialog@@MAEXXZ      100396a6 f   mfc140:mfc140.dll
 0001:000386ac       ?OnCancel@CDialog@@MAEXXZ  100396ac f   mfc140:mfc140.dll
 0001:000386b2       ??1CDialog@@UAE@XZ         100396b2 f   mfc140:mfc140.dll
 0001:000386b8       ?PreTranslateMessage@CDialog@@UAEHPAUtagMSG@@@Z 100396b8 f   mfc140:mfc140.dll
 0001:000386be       ?OnCmdMsg@CDialog@@UAEHIHPAXPAUAFX_CMDHANDLERINFO@@@Z 100396be f   mfc140:mfc140.dll
 0001:000386c4       ?CheckAutoCenter@CDialog@@UAEHXZ 100396c4 f   mfc140:mfc140.dll
 0001:000386ca       ?SetOccDialogInfo@CDialog@@MAEHPAU_AFX_OCC_DIALOG_INFO@@@Z 100396ca f   mfc140:mfc140.dll
 0001:000386d0       ?GetOccDialogInfo@CDialog@@MAEPAU_AFX_OCC_DIALOG_INFO@@XZ 100396d0 f   mfc140:mfc140.dll
 0001:000386d6       ?PreInitDialog@CDialog@@MAEXXZ 100396d6 f   mfc140:mfc140.dll
 0001:000386dc       ?GetThisMessageMap@CDialog@@KGPBUAFX_MSGMAP@@XZ 100396dc f   mfc140:mfc140.dll
 0001:000386e2       ?Remove@?$CStringT@DV?$StrTraitMFC_DLL@DV?$ChTraitsCRT@D@ATL@@@@@ATL@@QAEHD@Z 100396e2 f   mfc140:mfc140.dll
 0001:000386e8       ?Right@?$CStringT@DV?$StrTraitMFC_DLL@DV?$ChTraitsCRT@D@ATL@@@@@ATL@@QBE?AV12@H@Z 100396e8 f   mfc140:mfc140.dll
 0001:000386ee       ?DDX_Control@@YGXPAVCDataExchange@@HAAVCWnd@@@Z 100396ee f   mfc140:mfc140.dll
 0001:000386f4       ?GetDlgItemTextA@CWnd@@QBEHHAAV?$CStringT@DV?$StrTraitMFC_DLL@DV?$ChTraitsCRT@D@ATL@@@@@ATL@@@Z 100396f4 f   mfc140:mfc140.dll
 0001:000386fa       ?SetDlgItemTextA@CWnd@@QAEXHPBD@Z 100396fa f   mfc140:mfc140.dll
 0001:00038700       ?OnCtlColor@CWnd@@IAEPAUHBRUSH__@@PAVCDC@@PAV1@I@Z 10039700 f   mfc140:mfc140.dll
 0001:00038706       ?GetRuntimeClass@CCommonDialog@@UBEPAUCRuntimeClass@@XZ 10039706 f   mfc140:mfc140.dll
 0001:0003870c       ?OnOK@CCommonDialog@@MAEXXZ 1003970c f   mfc140:mfc140.dll
 0001:00038712       ?OnCancel@CCommonDialog@@MAEXXZ 10039712 f   mfc140:mfc140.dll
 0001:00038718       ?GetMessageMap@CCommonDialog@@MBEPBUAFX_MSGMAP@@XZ 10039718 f   mfc140:mfc140.dll
 0001:0003871e       ??0CColorDialog@@QAE@KKPAVCWnd@@@Z 1003971e f   mfc140:mfc140.dll
 0001:00038724       ?DoModal@CColorDialog@@UAEHXZ 10039724 f   mfc140:mfc140.dll
 0001:0003872a       ?DDX_Text@@YGXPAVCDataExchange@@HAAH@Z 1003972a f   mfc140:mfc140.dll
 0001:00038730       ?DDV_MinMaxInt@@YGXPAVCDataExchange@@HHH@Z 10039730 f   mfc140:mfc140.dll
 0001:00038736       ?UpdateData@CWnd@@QAEHH@Z  10039736 f   mfc140:mfc140.dll
 0001:0003873c       ?GetThisClass@CObject@@SGPAUCRuntimeClass@@XZ 1003973c f   mfc140:mfc140.dll
 0001:00038742       ?AfxTryCleanup@@YGXXZ      10039742 f   mfc140:mfc140.dll
 0001:00038748       ??0AFX_EXCEPTION_LINK@@QAE@XZ 10039748 f   mfc140:mfc140.dll
 0001:0003874e       ?Draw3dRect@CDC@@QAEXHHHHKK@Z 1003974e f   mfc140:mfc140.dll
 0001:00038754       ?CreateObject@CRuntimeClass@@QAEPAVCObject@@XZ 10039754 f   mfc140:mfc140.dll
 0001:0003875a       ?IsDerivedFrom@CRuntimeClass@@QBEHPBU1@@Z 1003975a f   mfc140:mfc140.dll
 0001:00038760       ?AfxThrowOleException@@YGXJ@Z 10039760 f   mfc140:mfc140.dll
 0001:00038766       ?IsKindOf@CObject@@QBEHPBUCRuntimeClass@@@Z 10039766 f   mfc140:mfc140.dll
 0001:0003876c       ??0CException@@QAE@XZ      1003976c f   mfc140:mfc140.dll
 0001:00038772       ?GetErrorMessage@CException@@UAEHPADIPAI@Z 10039772 f   mfc140:mfc140.dll
 0001:00038778       ?ReportError@CException@@UAEHII@Z 10039778 f   mfc140:mfc140.dll
 0001:0003877e       ?GetBuffer@?$CSimpleStringT@D$00@ATL@@QAEPADH@Z 1003977e f   mfc140:mfc140.dll
 0001:00038784       ?GetBufferSetLength@?$CSimpleStringT@D$00@ATL@@QAEPADH@Z 10039784 f   mfc140:mfc140.dll
 0001:0003878a       ?LockBuffer@?$CSimpleStringT@D$00@ATL@@QAEPADXZ 1003978a f   mfc140:mfc140.dll
 0001:00038790       ?UnlockBuffer@?$CSimpleStringT@D$00@ATL@@QAEXXZ 10039790 f   mfc140:mfc140.dll
 0001:00038796       ?ReleaseBuffer@?$CSimpleStringT@D$00@ATL@@QAEXH@Z 10039796 f   mfc140:mfc140.dll
 0001:0003879c       ?FindOneOf@?$CStringT@DV?$StrTraitMFC_DLL@DV?$ChTraitsCRT@D@ATL@@@@@ATL@@QBEHPBD@Z 1003979c f   mfc140:mfc140.dll
 0001:000387a2       ?TrimLeft@?$CStringT@DV?$StrTraitMFC_DLL@DV?$ChTraitsCRT@D@ATL@@@@@ATL@@QAEAAV12@XZ 100397a2 f   mfc140:mfc140.dll
 0001:000387a8       ?FormatV@?$CStringT@DV?$StrTraitMFC_DLL@DV?$ChTraitsCRT@D@ATL@@@@@ATL@@QAEXPBDPAD@Z 100397a8 f   mfc140:mfc140.dll
 0001:000387ae       ?LoadStringA@?$CStringT@DV?$StrTraitMFC_DLL@DV?$ChTraitsCRT@D@ATL@@@@@ATL@@QAEHI@Z 100397ae f   mfc140:mfc140.dll
 0001:000387b4       ?GetRuntimeClass@CFileException@@UBEPAUCRuntimeClass@@XZ 100397b4 f   mfc140:mfc140.dll
 0001:000387ba       ?GetErrorMessage@CFileException@@UBEHPADIPAI@Z 100397ba f   mfc140:mfc140.dll
 0001:000387c0       ??0CStdioFile@@QAE@XZ      100397c0 f   mfc140:mfc140.dll
 0001:000387c6       ?WriteString@CStdioFile@@UAEXPBD@Z 100397c6 f   mfc140:mfc140.dll
 0001:000387cc       ?ReadString@CStdioFile@@UAEPADPADI@Z 100397cc f   mfc140:mfc140.dll
 0001:000387d2       ??1CStdioFile@@UAE@XZ      100397d2 f   mfc140:mfc140.dll
 0001:000387d8       ?Open@CStdioFile@@UAEHPBDIPAVCFileException@@@Z 100397d8 f   mfc140:mfc140.dll
 0001:000387de       ?Close@CStdioFile@@UAEXXZ  100397de f   mfc140:mfc140.dll
 0001:000387e4       ??0CMemFile@@QAE@PAEII@Z   100397e4 f   mfc140:mfc140.dll
 0001:000387ea       ??1CMemFile@@UAE@XZ        100397ea f   mfc140:mfc140.dll
 0001:000387f0       ?Read@CMemFile@@UAEIPAXI@Z 100397f0 f   mfc140:mfc140.dll
 0001:000387f6       ?Write@CMemFile@@UAEXPBXI@Z 100397f6 f   mfc140:mfc140.dll
 0001:000387fc       ?GetLength@CMemFile@@UBE_KXZ 100397fc f   mfc140:mfc140.dll
 0001:00038802       ?SetSize@CUIntArray@@QAEXHH@Z 10039802 f   mfc140:mfc140.dll
 0001:00038808       ?InsertAt@CUIntArray@@QAEXHIH@Z 10039808 f   mfc140:mfc140.dll
 0001:0003880e       ?GetRuntimeClass@CObArray@@UBEPAUCRuntimeClass@@XZ 1003980e f   mfc140:mfc140.dll
 0001:00038814       ??0CObArray@@QAE@XZ        10039814 f   mfc140:mfc140.dll
 0001:0003881a       ?SetSize@CObArray@@QAEXHH@Z 1003981a f   mfc140:mfc140.dll
 0001:00038820       ?SetAtGrow@CObArray@@QAEXHPAVCObject@@@Z 10039820 f   mfc140:mfc140.dll
 0001:00038826       ?InsertAt@CObArray@@QAEXHPAVCObject@@H@Z 10039826 f   mfc140:mfc140.dll
 0001:0003882c       ?RemoveAt@CObArray@@QAEXHH@Z 1003982c f   mfc140:mfc140.dll
 0001:00038832       ??1CObArray@@UAE@XZ        10039832 f   mfc140:mfc140.dll
 0001:00038838       ?Serialize@CObArray@@UAEXAAVCArchive@@@Z 10039838 f   mfc140:mfc140.dll
 0001:0003883e       ?AfxGetThreadState@@YGPAV_AFX_THREAD_STATE@@XZ 1003983e f   mfc140:mfc140.dll
 0001:00038844       ?AfxThrowResourceException@@YGXXZ 10039844 f   mfc140:mfc140.dll
 0001:0003884a       ?Detach@CDC@@QAEPAUHDC__@@XZ 1003984a f   mfc140:mfc140.dll
 0001:00038850       ?OffsetWindowOrg@CDC@@QAE?AVCPoint@@HH@Z 10039850 f   mfc140:mfc140.dll
 0001:00038856       ?Create@CImageList@@QAEHHHIHH@Z 10039856 f   mfc140:mfc140.dll
 0001:0003885c       ?BeginWaitCursor@CCmdTarget@@QAEXXZ 1003985c f   mfc140:mfc140.dll
 0001:00038862       ?EndWaitCursor@CCmdTarget@@QAEXXZ 10039862 f   mfc140:mfc140.dll
 0001:00038868       ?GetScrollPos@CWnd@@QBEHH@Z 10039868 f   mfc140:mfc140.dll
 0001:0003886e       ?EnableScrollBarCtrl@CWnd@@QAEXHH@Z 1003986e f   mfc140:mfc140.dll
 0001:00038874       ?SetScrollInfo@CWnd@@QAEHHPAUtagSCROLLINFO@@H@Z 10039874 f   mfc140:mfc140.dll
 0001:0003887a       ?GetScrollInfo@CWnd@@QAEHHPAUtagSCROLLINFO@@I@Z 1003987a f   mfc140:mfc140.dll
 0001:00038880       ?OnSettingChange@CWnd@@IAEXIPBD@Z 10039880 f   mfc140:mfc140.dll
 0001:00038886       ?AfxRegisterClass@@YGHPAUtagWNDCLASSA@@@Z 10039886 f   mfc140:mfc140.dll
 0001:0003888c       ?GetThisClass@CEdit@@SGPAUCRuntimeClass@@XZ 1003988c f   mfc140:mfc140.dll
 0001:00038892       ??0CPrintDialog@@QAE@HKPAVCWnd@@@Z 10039892 f   mfc140:mfc140.dll
 0001:00038898       ?DoModal@CPrintDialog@@UAEHXZ 10039898 f   mfc140:mfc140.dll
 0001:0003889e       ??0CPrintInfo@@QAE@XZ      1003989e f   mfc140:mfc140.dll
 0001:000388a4       ??1CPrintInfo@@QAE@XZ      100398a4 f   mfc140:mfc140.dll
 0001:000388aa       ?AfxOleInit@@YGHXZ         100398aa f   mfc140:mfc140.dll
 0001:000388b0       ??0COleDataObject@@QAE@XZ  100398b0 f   mfc140:mfc140.dll
 0001:000388b6       ?Release@COleDataObject@@QAEXXZ 100398b6 f   mfc140:mfc140.dll
 0001:000388bc       ?AttachClipboard@COleDataObject@@QAEHXZ 100398bc f   mfc140:mfc140.dll
 0001:000388c2       ?GetGlobalData@COleDataObject@@QAEPAXGPAUtagFORMATETC@@@Z 100398c2 f   mfc140:mfc140.dll
 0001:000388c8       ?IsDataAvailable@COleDataObject@@QAEHGPAUtagFORMATETC@@@Z 100398c8 f   mfc140:mfc140.dll
 0001:000388ce       ??0COleDataSource@@QAE@XZ  100398ce f   mfc140:mfc140.dll
 0001:000388d4       ?CacheGlobalData@COleDataSource@@QAEXGPAXPAUtagFORMATETC@@@Z 100398d4 f   mfc140:mfc140.dll
 0001:000388da       ?DoDragDrop@COleDataSource@@QAEKKPBUtagRECT@@PAVCOleDropSource@@@Z 100398da f   mfc140:mfc140.dll
 0001:000388e0       ?SetClipboard@COleDataSource@@QAEXXZ 100398e0 f   mfc140:mfc140.dll
 0001:000388e6       ?FlushClipboard@COleDataSource@@SGXXZ 100398e6 f   mfc140:mfc140.dll
 0001:000388ec       ?GetClipboardOwner@COleDataSource@@SGPAV1@XZ 100398ec f   mfc140:mfc140.dll
 0001:000388f2       ??0CSharedFile@@QAE@II@Z   100398f2 f   mfc140:mfc140.dll
 0001:000388f8       ?Detach@CSharedFile@@QAEPAXXZ 100398f8 f   mfc140:mfc140.dll
 0001:000388fe       ??1CSharedFile@@UAE@XZ     100398fe f   mfc140:mfc140.dll
 0001:00038904       ?GetRuntimeClass@CCmdTarget@@UBEPAUCRuntimeClass@@XZ 10039904 f   mfc140:mfc140.dll
 0001:0003890a       ?OnFinalRelease@CCmdTarget@@UAEXXZ 1003990a f   mfc140:mfc140.dll
 0001:00038910       ?GetThisMessageMap@CCmdTarget@@KGPBUAFX_MSGMAP@@XZ 10039910 f   mfc140:mfc140.dll
 0001:00038916       ??0COleDropTarget@@QAE@XZ  10039916 f   mfc140:mfc140.dll
 0001:0003891c       ?Register@COleDropTarget@@QAEHPAVCWnd@@@Z 1003991c f   mfc140:mfc140.dll
 0001:00038922       ?Revoke@COleDropTarget@@UAEXXZ 10039922 f   mfc140:mfc140.dll
 0001:00038928       ?OnDropEx@COleDropTarget@@UAEKPAVCWnd@@PAVCOleDataObject@@KKVCPoint@@@Z 10039928 f   mfc140:mfc140.dll
 0001:0003892e       ??1COleDropTarget@@UAE@XZ  1003992e f   mfc140:mfc140.dll
 0001:00038934       ?GetInterfaceMap@COleDropTarget@@MBEPBUAFX_INTERFACEMAP@@XZ 10039934 f   mfc140:mfc140.dll
 0001:0003893a       ??0CWindowDC@@QAE@PAVCWnd@@@Z 1003993a f   mfc140:mfc140.dll
 0001:00038940       ??1CWindowDC@@UAE@XZ       10039940 f   mfc140:mfc140.dll
 0001:00038946       ?TrimRight@?$CStringT@DV?$StrTraitMFC_DLL@DV?$ChTraitsCRT@D@ATL@@@@@ATL@@QAEAAV12@D@Z 10039946 f   mfc140:mfc140.dll
 0001:0003894c       ?AfxInitRichEdit@@YGHXZ    1003994c f   mfc140:mfc140.dll
 0001:00038952       ??0CDynLinkLibrary@@QAE@AAUAFX_EXTENSION_MODULE@@H@Z 10039952 f   mfc140:mfc140.dll
 0001:00038958       ?AfxInitExtensionModule@@YGHAAUAFX_EXTENSION_MODULE@@PAUHINSTANCE__@@@Z 10039958 f   mfc140:mfc140.dll
 0001:0003895e       ?AfxTermExtensionModule@@YGXAAUAFX_EXTENSION_MODULE@@H@Z 1003995e f   mfc140:mfc140.dll
 0001:00038964       ?DeleteImageList@CImageList@@QAEHXZ 10039964 f   mfc140:mfc140.dll
 0001:0003896a       ?GetThisClass@CDialog@@SGPAUCRuntimeClass@@XZ 1003996a f   mfc140:mfc140.dll
 0001:00038970       ?GetStatus@CFile@@SGHPBDAAUCFileStatus@@PAVCAtlTransactionManager@ATL@@@Z 10039970 f   mfc140:mfc140.dll
 0001:00038976       ?Replace@?$CStringT@DV?$StrTraitMFC_DLL@DV?$ChTraitsCRT@D@ATL@@@@@ATL@@QAEHPBD0@Z 10039976 f   mfc140:mfc140.dll
 0001:0003897c       ??ACMapPtrToPtr@@QAEAAPAXPAX@Z 1003997c f   mfc140:mfc140.dll
 0001:00038982       ?RemoveKey@CMapPtrToPtr@@QAEHPAX@Z 10039982 f   mfc140:mfc140.dll
 0001:00038988       ??2CNoTrackObject@@SGPAXI@Z 10039988 f   mfc140:mfc140.dll
 0001:0003898e       ??3CNoTrackObject@@SGXPAX@Z 1003998e f   mfc140:mfc140.dll
 0001:00038994       ?GetData@CThreadLocalObject@@QAEPAVCNoTrackObject@@P6GPAV2@XZ@Z 10039994 f   mfc140:mfc140.dll
 0001:0003899a       ??0AFX_MODULE_THREAD_STATE@@QAE@XZ 1003999a f   mfc140:mfc140.dll
 0001:000389a0       ?AfxGetAppModuleState@@YGPAVAFX_MODULE_STATE@@XZ 100399a0 f   mfc140:mfc140.dll
 0001:000389a6       ?AfxExtractSubString@@YGHAAV?$CStringT@DV?$StrTraitMFC_DLL@DV?$ChTraitsCRT@D@ATL@@@@@ATL@@PBDHD@Z 100399a6 f   mfc140:mfc140.dll
 0001:000389ac       ??$AtlAdd@H@ATL@@YAJPAHHH@Z 100399ac f i mfcs140:nolib.obj
 0001:000389d2       ??$AtlAdd@I@ATL@@YAJPAIII@Z 100399d2 f i mfcs140:nolib.obj
 0001:000389f5       ??$AtlAdd@K@ATL@@YAJPAKKK@Z 100399f5 f i mfcs140:nolib.obj
 0001:00038a18       ??$AtlAlignUp@H@ATL@@YGHHK@Z 10039a18 f i mfcs140:nolib.obj
 0001:00038a2c       ??$AtlMultiply@I@ATL@@YAJPAIII@Z 10039a2c f i mfcs140:nolib.obj
 0001:00038a4e       ??$AtlMultiply@K@ATL@@YAJPAKKK@Z 10039a4e f i mfcs140:nolib.obj
 0001:00038a70       ??0?$CSimpleArray@GV?$CSimpleArrayEqualHelper@G@ATL@@@ATL@@QAE@XZ 10039a70 f i mfcs140:nolib.obj
 0001:00038a7d       ??0?$CTraceCategoryEx@$00$0A@@ATL@@QAE@PBD@Z 10039a7d f i mfcs140:nolib.obj
 0001:00038a82       ??0?$CTraceCategoryEx@$01$0A@@ATL@@QAE@PBD@Z 10039a82 f i mfcs140:nolib.obj
 0001:00038a87       ??0?$CTraceCategoryEx@$03$0A@@ATL@@QAE@PBD@Z 10039a87 f i mfcs140:nolib.obj
 0001:00038a8c       ??0?$CTraceCategoryEx@$07$0A@@ATL@@QAE@PBD@Z 10039a8c f i mfcs140:nolib.obj
 0001:00038a91       ??0?$CTraceCategoryEx@$0BA@$0A@@ATL@@QAE@PBD@Z 10039a91 f i mfcs140:nolib.obj
 0001:00038a96       ??0?$CTraceCategoryEx@$0BAA@$0A@@ATL@@QAE@PBD@Z 10039a96 f i mfcs140:nolib.obj
 0001:00038a9b       ??0?$CTraceCategoryEx@$0BAAA@$0A@@ATL@@QAE@PBD@Z 10039a9b f i mfcs140:nolib.obj
 0001:00038aa0       ??0?$CTraceCategoryEx@$0BAAAA@$0A@@ATL@@QAE@PBD@Z 10039aa0 f i mfcs140:nolib.obj
 0001:00038aa5       ??0?$CTraceCategoryEx@$0BAAAAA@$0A@@ATL@@QAE@PBD@Z 10039aa5 f i mfcs140:nolib.obj
 0001:00038aaa       ??0?$CTraceCategoryEx@$0CA@$0A@@ATL@@QAE@PBD@Z 10039aaa f i mfcs140:nolib.obj
 0001:00038aaf       ??0?$CTraceCategoryEx@$0CAA@$0A@@ATL@@QAE@PBD@Z 10039aaf f i mfcs140:nolib.obj
 0001:00038ab4       ??0?$CTraceCategoryEx@$0CAAA@$0A@@ATL@@QAE@PBD@Z 10039ab4 f i mfcs140:nolib.obj
 0001:00038ab9       ??0?$CTraceCategoryEx@$0CAAAA@$0A@@ATL@@QAE@PBD@Z 10039ab9 f i mfcs140:nolib.obj
 0001:00038abe       ??0?$CTraceCategoryEx@$0CAAAAA@$0A@@ATL@@QAE@PBD@Z 10039abe f i mfcs140:nolib.obj
 0001:00038ac3       ??0?$CTraceCategoryEx@$0EA@$0A@@ATL@@QAE@PBD@Z 10039ac3 f i mfcs140:nolib.obj
 0001:00038ac8       ??0?$CTraceCategoryEx@$0EAA@$0A@@ATL@@QAE@PBD@Z 10039ac8 f i mfcs140:nolib.obj
 0001:00038acd       ??0?$CTraceCategoryEx@$0EAAA@$0A@@ATL@@QAE@PBD@Z 10039acd f i mfcs140:nolib.obj
 0001:00038ad2       ??0?$CTraceCategoryEx@$0EAAAA@$0A@@ATL@@QAE@PBD@Z 10039ad2 f i mfcs140:nolib.obj
 0001:00038ad7       ??0?$CTraceCategoryEx@$0EAAAAA@$0A@@ATL@@QAE@PBD@Z 10039ad7 f i mfcs140:nolib.obj
 0001:00038adc       ??0?$CTraceCategoryEx@$0IA@$0A@@ATL@@QAE@PBD@Z 10039adc f i mfcs140:nolib.obj
 0001:00038ae1       ??0?$CTraceCategoryEx@$0IAA@$0A@@ATL@@QAE@PBD@Z 10039ae1 f i mfcs140:nolib.obj
 0001:00038ae6       ??0?$CTraceCategoryEx@$0IAAA@$0A@@ATL@@QAE@PBD@Z 10039ae6 f i mfcs140:nolib.obj
 0001:00038aeb       ??0?$CTraceCategoryEx@$0IAAAA@$0A@@ATL@@QAE@PBD@Z 10039aeb f i mfcs140:nolib.obj
 0001:00038af0       ??0CAtlComModule@ATL@@QAE@XZ 10039af0 f i mfcs140:nolib.obj
 0001:00038b2f       ??0CAtlStringMgr@ATL@@QAE@PAUIAtlMemMgr@1@@Z 10039b2f f i mfcs140:nolib.obj
 0001:00038b5b       ??0CAtlStringMgrStaticInitializer@ATLImplementationDetails@ATL@@QAE@XZ 10039b5b f i mfcs140:nolib.obj
 0001:00038b67       ??0CAtlWinModule@ATL@@QAE@XZ 10039b67 f i mfcs140:nolib.obj
 0001:00038b95       ??0CComCriticalSection@ATL@@QAE@XZ 10039b95 f i mfcs140:nolib.obj
 0001:00038ba9       ??0CNilStringData@ATL@@QAE@XZ 10039ba9 f i mfcs140:nolib.obj
 0001:00038bc0       ??0CWin32Heap@ATL@@QAE@PAX@Z 10039bc0 f i mfcs140:nolib.obj
 0001:00038bd9       ??0_ATL_COM_MODULE70@ATL@@QAE@XZ 10039bd9 f i mfcs140:nolib.obj
 0001:00038bf0       ??0_ATL_WIN_MODULE70@ATL@@QAE@XZ 10039bf0 f i mfcs140:nolib.obj
 0001:00038c1b       ??1?$CSimpleArray@GV?$CSimpleArrayEqualHelper@G@ATL@@@ATL@@QAE@XZ 10039c1b f i mfcs140:nolib.obj
 0001:00038c20       ??1CAtlComModule@ATL@@QAE@XZ 10039c20 f i mfcs140:nolib.obj
 0001:00038c59       ??1CAtlWinModule@ATL@@QAE@XZ 10039c59 f i mfcs140:nolib.obj
 0001:00038c71       ??1CComBSTR@ATL@@QAE@XZ    10039c71 f i mfcs140:nolib.obj
 0001:00038c7a       ??1CComCriticalSection@ATL@@QAE@XZ 10039c7a f i mfcs140:nolib.obj
 0001:00038c7d       ??1_ATL_COM_MODULE70@ATL@@QAE@XZ 10039c7d f i mfcs140:nolib.obj
 0001:00038c80       ??1_ATL_WIN_MODULE70@ATL@@QAE@XZ 10039c80 f i mfcs140:nolib.obj
 0001:00038c88       ??1stringdispid@CComTypeInfoHolder@ATL@@QAE@XZ 10039c88 f i mfcs140:nolib.obj
 0001:00038c91       ??A?$CSimpleArray@GV?$CSimpleArrayEqualHelper@G@ATL@@@ATL@@QAEAAGH@Z 10039c91 f i mfcs140:nolib.obj
 0001:00038cb6       ??_Estringdispid@CComTypeInfoHolder@ATL@@QAEPAXI@Z 10039cb6 f i mfcs140:nolib.obj
 0001:00038d41       ?AddRef@CStringData@ATL@@QAEXXZ 10039d41 f i mfcs140:nolib.obj
 0001:00038d46       ?AtlWinModuleInit@ATL@@YGJPAU_ATL_WIN_MODULE70@1@@Z 10039d46 f i mfcs140:nolib.obj
 0001:00038d6c       ?AtlWinModuleTerm@ATL@@YGJPAU_ATL_WIN_MODULE70@1@PAUHINSTANCE__@@@Z 10039d6c f i mfcs140:nolib.obj
 0001:00038dce       ?GetInstance@CAtlStringMgr@ATL@@SAPAUIAtlStringMgr@2@XZ 10039dce f i mfcs140:nolib.obj
 0001:00038e38       ?GetModuleInstance@CAtlBaseModule@ATL@@QAEPAUHINSTANCE__@@XZ 10039e38 f i mfcs140:nolib.obj
 0001:00038e3c       ?GetSize@?$CSimpleArray@GV?$CSimpleArrayEqualHelper@G@ATL@@@ATL@@QBEHXZ 10039e3c f i mfcs140:nolib.obj
 0001:00038e40       ?Init@CComCriticalSection@ATL@@QAEJXZ 10039e40 f i mfcs140:nolib.obj
 0001:00038e68       ?RemoveAll@?$CSimpleArray@GV?$CSimpleArrayEqualHelper@G@ATL@@@ATL@@QAEXXZ 10039e68 f i mfcs140:nolib.obj
 0001:00038e86       ?SetManager@CNilStringData@ATL@@QAEXPAUIAtlStringMgr@2@@Z 10039e86 f i mfcs140:nolib.obj
 0001:00038e92       ?Term@CAtlComModule@ATL@@QAEXXZ 10039e92 f i mfcs140:nolib.obj
 0001:00038ef1       ?Term@CAtlWinModule@ATL@@QAEXXZ 10039ef1 f i mfcs140:nolib.obj
 0001:00038efe       ?Term@CComCriticalSection@ATL@@QAEJXZ 10039efe f i mfcs140:nolib.obj
 0001:00038f08       _HRESULT_FROM_WIN32        10039f08 f i mfcs140:nolib.obj
 0001:00038f1c       _IsolationAwareActivateActCtx@8 10039f1c f i mfcs140:nolib.obj
 0001:00038f5f       _IsolationAwareCreateActCtxW@4 10039f5f f i mfcs140:nolib.obj
 0001:00038fa4       _IsolationAwareDeactivateActCtx@8 10039fa4 f i mfcs140:nolib.obj
 0001:00038fe7       _IsolationAwareFindActCtxSectionStringW@20 10039fe7 f i mfcs140:nolib.obj
 0001:00039033       _IsolationAwarePrivatenPgViNgRzlnPgpgk@4 1003a033 f i mfcs140:nolib.obj
 0001:000390ae       _IsolationAwarePrivatezltRgCebPnQQeRff@12 1003a0ae f i mfcs140:nolib.obj
 0001:000390ec       _IsolationAwarePrivatezltRgzbQhYRuNaQYRJ@4 1003a0ec f i mfcs140:nolib.obj
 0001:000390f6       _IsolationAwarePrivatezltRgzbQhYRuNaQYRn@4 1003a0f6 f i mfcs140:nolib.obj
 0001:00039100       _IsolationAwareQueryActCtxW@28 1003a100 f i mfcs140:nolib.obj
 0001:00039152       _IsolationAwareUnregisterClassA@8 1003a152 f i mfcs140:nolib.obj
 0001:000391fc       _WinbaseIsolationAwarePrivatetRgCebPnQQeRff_xReaRYQP_QYY@4 1003a1fc f i mfcs140:nolib.obj
 0001:00039215       _WinbaseIsolationAwarePrivatetRgzlnPgpgk@0 1003a215 f i mfcs140:nolib.obj
 0001:000393e1       ??3@YAXPAXI@Z              1003a3e1 f   msvcrt:delete_scalar_size.obj
 0001:000393ef       @__security_check_cookie@4 1003a3ef f   msvcrt:secchk.obj
 0001:000393fd       ??1type_info@@UAE@XZ       1003a3fd f   msvcrt:std_type_info_static.obj
 0001:00039404       ??_Gtype_info@@UAEPAXI@Z   1003a404 f i msvcrt:std_type_info_static.obj
 0001:00039404       ??_Etype_info@@UAEPAXI@Z   1003a404 f i msvcrt:std_type_info_static.obj
 0001:00039427       ??_L@YGXPAXIHP6EX0@Z1@Z    1003a427 f   msvcrt:ehvecctr.obj
 0001:0003942c       ??_L@YGXPAXIIP6EX0@Z1@Z    1003a42c f   msvcrt:ehvecctr.obj
 0001:000394a0       ??_M@YGXPAXIHP6EX0@Z@Z     1003a4a0 f   msvcrt:ehvecdtr.obj
 0001:000394a5       ??_M@YGXPAXIIP6EX0@Z@Z     1003a4a5 f   msvcrt:ehvecdtr.obj
 0001:00039559       ?__ArrayUnwind@@YGXPAXIIP6EX0@Z@Z 1003a559 f   msvcrt:ehvecdtr.obj
 0001:000395e9       ??_V@YAXPAXI@Z             1003a5e9 f   msvcrt:delete_array_size.obj
 0001:000395f7       ?configure_argv@__scrt_narrow_argv_policy@@SAHXZ 1003a5f7 f i msvcrt:utility.obj
 0001:00039648       ?initialize_environment@__scrt_narrow_environment_policy@@SAHXZ 1003a648 f i msvcrt:utility.obj
 0001:00039681       _NtCurrentTeb              1003a681 f i msvcrt:utility.obj
 0001:00039688       ___scrt_acquire_startup_lock 1003a688 f   msvcrt:utility.obj
 0001:000396ba       ___scrt_dllmain_after_initialize_c 1003a6ba f   msvcrt:utility.obj
 0001:000396e5       ___scrt_dllmain_before_initialize_c 1003a6e5 f   msvcrt:utility.obj
 0001:000396f3       ___scrt_dllmain_crt_thread_attach 1003a6f3 f   msvcrt:utility.obj
 0001:00039712       ___scrt_dllmain_crt_thread_detach 1003a712 f   msvcrt:utility.obj
 0001:0003971f       ___scrt_dllmain_exception_filter 1003a71f f   msvcrt:utility.obj
 0001:00039753       ___scrt_dllmain_uninitialize_c 1003a753 f   msvcrt:utility.obj
 0001:00039776       ___scrt_dllmain_uninitialize_critical 1003a776 f   msvcrt:utility.obj
 0001:00039783       ___scrt_initialize_crt     1003a783 f   msvcrt:utility.obj
 0001:000397bc       ___scrt_initialize_onexit_tables 1003a7bc f   msvcrt:utility.obj
 0001:00039843       ___scrt_is_nonwritable_in_current_image 1003a843 f   msvcrt:utility.obj
 0001:000398d7       ___scrt_release_startup_lock 1003a8d7 f   msvcrt:utility.obj
 0001:000398f4       ___scrt_uninitialize_crt   1003a8f4 f   msvcrt:utility.obj
 0001:0003991c       __onexit                   1003a91c f   msvcrt:utility.obj
 0001:00039949       _at_quick_exit             1003a949 f   msvcrt:utility.obj
 0001:0003996c       _atexit                    1003a96c f   msvcrt:utility.obj
 0001:00039a46       __Init_thread_abort        1003aa46 f   msvcrt:thread_safe_statics.obj
 0001:00039a6a       __Init_thread_footer       1003aa6a f   msvcrt:thread_safe_statics.obj
 0001:00039ab4       __Init_thread_header       1003aab4 f   msvcrt:thread_safe_statics.obj
 0001:00039b06       __Init_thread_lock         1003ab06 f   msvcrt:thread_safe_statics.obj
 0001:00039b12       __Init_thread_notify       1003ab12 f   msvcrt:thread_safe_statics.obj
 0001:00039b48       __Init_thread_unlock       1003ab48 f   msvcrt:thread_safe_statics.obj
 0001:00039b54       __Init_thread_wait         1003ab54 f   msvcrt:thread_safe_statics.obj
 0001:00039ee2       __CRT_INIT@12              1003aee2 f   msvcrt:dll_dllmain.obj
 0001:00039eeb       __DllMainCRTStartup@12     1003aeeb f   msvcrt:dll_dllmain.obj
 0001:00039f0e       __EH_epilog3               1003af0e f   msvcrt:ehprolg3.obj
 0001:00039f22       __EH_epilog3_GS            1003af22 f   msvcrt:ehprolg3.obj
 0001:00039f31       __EH_epilog3_catch_GS      1003af31 f   msvcrt:ehprolg3.obj
 0001:00039f40       __EH_prolog3               1003af40 f   msvcrt:ehprolg3.obj
 0001:00039f73       __EH_prolog3_GS            1003af73 f   msvcrt:ehprolg3.obj
 0001:00039fa9       __EH_prolog3_catch         1003afa9 f   msvcrt:ehprolg3.obj
 0001:00039fdf       __EH_prolog3_catch_GS      1003afdf f   msvcrt:ehprolg3.obj
 0001:0003a020       __SEH_prolog4              1003b020 f   msvcrt:sehprolg4.obj
 0001:0003a070       __SEH_epilog4              1003b070 f   msvcrt:sehprolg4.obj
 0001:0003a090       __SEH_prolog4_GS           1003b090 f   msvcrt:sehprolg4gs.obj
 0001:0003a0e0       __SEH_epilog4_GS           1003b0e0 f   msvcrt:sehprolg4gs.obj
 0001:0003a0ef       __except_handler4          1003b0ef f   msvcrt:chandler4gs.obj
 0001:0003a11e       @_guard_check_icall_nop@4  1003b11e f i msvcrt:guard_support.obj
 0001:0003a121       _ReadNoFence               1003b121 f i msvcrt:guard_support.obj
 0001:0003a12b       _ReadPointerNoFence        1003b12b f i msvcrt:guard_support.obj
 0001:0003a135       ___castguard_check_failure_debugbreak 1003b135 f i msvcrt:guard_support.obj
 0001:0003a150       ___castguard_check_failure_fastfail 1003b150 f i msvcrt:guard_support.obj
 0001:0003a16f       ___castguard_check_failure_nop 1003b16f f i msvcrt:guard_support.obj
 0001:0003a172       ___castguard_check_failure_os_handled 1003b172 f i msvcrt:guard_support.obj
 0001:0003a1c6       ___castguard_slow_path_check_debugbreak 1003b1c6 f i msvcrt:guard_support.obj
 0001:0003a1f3       ___castguard_slow_path_check_fastfail 1003b1f3 f i msvcrt:guard_support.obj
 0001:0003a224       ___castguard_slow_path_check_nop 1003b224 f i msvcrt:guard_support.obj
 0001:0003a227       ___castguard_slow_path_check_os_handled 1003b227 f i msvcrt:guard_support.obj
 0001:0003a28d       __guard_icall_checks_enforced 1003b28d f i msvcrt:guard_support.obj
 0001:0003a29f       ___raise_securityfailure   1003b29f f   msvcrt:gs_report.obj
 0001:0003a2c7       ___report_gsfailure        1003b2c7 f   msvcrt:gs_report.obj
 0001:0003a3c1       ___report_rangecheckfailure 1003b3c1 f   msvcrt:gs_report.obj
 0001:0003a3cd       ___report_securityfailure  1003b3cd f   msvcrt:gs_report.obj
 0001:0003a49c       ___report_securityfailureEx 1003b49c f   msvcrt:gs_report.obj
 0001:0003a5b1       ___isa_available_init      1003b5b1 f   msvcrt:cpu_disp.obj
 0001:0003a782       __get_startup_argv_mode    1003b782 f   msvcrt:argv_mode.obj
 0001:0003a786       ___scrt_is_ucrt_dll_in_use 1003b786 f   msvcrt:ucrt_detection.obj
 0001:0003a792       ___scrt_fastfail           1003b792 f   msvcrt:utility_desktop.obj
 0001:0003a8ad       ___scrt_get_show_window_mode 1003b8ad f   msvcrt:utility_desktop.obj
 0001:0003a8de       ___scrt_initialize_mta     1003b8de f   msvcrt:utility_desktop.obj
 0001:0003a8e3       ___scrt_initialize_winrt   1003b8e3 f   msvcrt:utility_desktop.obj
 0001:0003a8e6       ___scrt_is_managed_app     1003b8e6 f   msvcrt:utility_desktop.obj
 0001:0003a929       ___scrt_set_unhandled_exception_filter 1003b929 f   msvcrt:utility_desktop.obj
 0001:0003a935       ___scrt_exe_initialize_mta 1003b935 f   msvcrt:utility_desktop.obj
 0001:0003a935       ___scrt_stub_for_initialize_mta 1003b935 f   msvcrt:utility_desktop.obj
 0001:0003a938       ___scrt_unhandled_exception_filter@4 1003b938 f   msvcrt:utility_desktop.obj
 0001:0003a98e       __crt_debugger_hook        1003b98e f   msvcrt:utility_desktop.obj
 0001:0003a9e3       ___security_init_cookie    1003b9e3 f   msvcrt:gs_support.obj
 0001:0003aa2e       ?__scrt_initialize_type_info@@YAXXZ 1003ba2e f   msvcrt:tncleanup.obj
 0001:0003aa3a       ?__scrt_uninitialize_type_info@@YAXXZ 1003ba3a f   msvcrt:tncleanup.obj
 0001:0003aa46       ___scrt_initialize_default_local_stdio_options 1003ba46 f   msvcrt:default_local_stdio_options.obj
 0001:0003aa63       ___scrt_get_dyn_tls_init_callback 1003ba63 f   msvcrt:dyn_tls_init.obj
 0001:0003aa69       __RTC_Initialize           1003ba69 f   msvcrt:initsect.obj
 0001:0003aa95       __RTC_Terminate            1003ba95 f   msvcrt:initsect.obj
 0001:0003aac1       _GetLastError@0            1003bac1 f   kernel32:KERNEL32.dll
 0001:0003aac7       _FreeLibrary@4             1003bac7 f   kernel32:KERNEL32.dll
 0001:0003aacd       _GetProcAddress@8          1003bacd f   kernel32:KERNEL32.dll
 0001:0003aad3       _LoadLibraryA@4            1003bad3 f   kernel32:KERNEL32.dll
 0001:0003aad9       _Sleep@4                   1003bad9 f   kernel32:KERNEL32.dll
 0001:0003aadf       _lstrcpyA@8                1003badf f   kernel32:KERNEL32.dll
 0001:0003aae5       _lstrlenA@4                1003bae5 f   kernel32:KERNEL32.dll
 0001:0003aaeb       _GetEnvironmentVariableA@12 1003baeb f   kernel32:KERNEL32.dll
 0001:0003aaf1       _DeleteFileA@4             1003baf1 f   kernel32:KERNEL32.dll
 0001:0003aaf7       _GetModuleHandleA@4        1003baf7 f   kernel32:KERNEL32.dll
 0001:0003aafd       _GetPrivateProfileIntA@16  1003bafd f   kernel32:KERNEL32.dll
 0001:0003ab03       _GetPrivateProfileStringA@24 1003bb03 f   kernel32:KERNEL32.dll
 0001:0003ab09       _CopyFileA@12              1003bb09 f   kernel32:KERNEL32.dll
 0001:0003ab0f       _WritePrivateProfileStringA@16 1003bb0f f   kernel32:KERNEL32.dll
 0001:0003ab15       _GetVersionExA@4           1003bb15 f   kernel32:KERNEL32.dll
 0001:0003ab1b       _GlobalReAlloc@12          1003bb1b f   kernel32:KERNEL32.dll
 0001:0003ab21       _GlobalSize@4              1003bb21 f   kernel32:KERNEL32.dll
 0001:0003ab27       _GlobalUnlock@4            1003bb27 f   kernel32:KERNEL32.dll
 0001:0003ab2d       _GlobalLock@4              1003bb2d f   kernel32:KERNEL32.dll
 0001:0003ab33       _MulDiv@12                 1003bb33 f   kernel32:KERNEL32.dll
 0001:0003ab39       _GetTickCount@0            1003bb39 f   kernel32:KERNEL32.dll
 0001:0003ab3f       _DecodePointer@4           1003bb3f f   kernel32:KERNEL32.dll
 0001:0003ab45       _RaiseException@16         1003bb45 f   kernel32:KERNEL32.dll
 0001:0003ab4b       _HeapDestroy@4             1003bb4b f   kernel32:KERNEL32.dll
 0001:0003ab51       _HeapAlloc@12              1003bb51 f   kernel32:KERNEL32.dll
 0001:0003ab57       _HeapReAlloc@16            1003bb57 f   kernel32:KERNEL32.dll
 0001:0003ab5d       _HeapFree@12               1003bb5d f   kernel32:KERNEL32.dll
 0001:0003ab63       _HeapSize@12               1003bb63 f   kernel32:KERNEL32.dll
 0001:0003ab69       _GetProcessHeap@0          1003bb69 f   kernel32:KERNEL32.dll
 0001:0003ab6f       _InitializeCriticalSectionEx@12 1003bb6f f   kernel32:KERNEL32.dll
 0001:0003ab75       _DeleteCriticalSection@4   1003bb75 f   kernel32:KERNEL32.dll
 0001:0003ab7b       _GetModuleFileNameA@12     1003bb7b f   kernel32:KERNEL32.dll
 0001:0003ab81       _OutputDebugStringA@4      1003bb81 f   kernel32:KERNEL32.dll
 0001:0003ab87       _SetLastError@4            1003bb87 f   kernel32:KERNEL32.dll
 0001:0003ab8d       _InitializeCriticalSectionAndSpinCount@8 1003bb8d f   kernel32:KERNEL32.dll
 0001:0003ab93       _GetModuleFileNameW@12     1003bb93 f   kernel32:KERNEL32.dll
 0001:0003ab99       _GetModuleHandleW@4        1003bb99 f   kernel32:KERNEL32.dll
 0001:0003ab9f       _LoadLibraryW@4            1003bb9f f   kernel32:KERNEL32.dll
 0001:0003aba5       _CloseHandle@4             1003bba5 f   kernel32:KERNEL32.dll
 0001:0003abab       _EnterCriticalSection@4    1003bbab f   kernel32:KERNEL32.dll
 0001:0003abb1       _LeaveCriticalSection@4    1003bbb1 f   kernel32:KERNEL32.dll
 0001:0003abb7       _SetEvent@4                1003bbb7 f   kernel32:KERNEL32.dll
 0001:0003abbd       _ResetEvent@4              1003bbbd f   kernel32:KERNEL32.dll
 0001:0003abc3       _WaitForSingleObjectEx@12  1003bbc3 f   kernel32:KERNEL32.dll
 0001:0003abc9       _CreateEventW@16           1003bbc9 f   kernel32:KERNEL32.dll
 0001:0003abcf       _UnhandledExceptionFilter@4 1003bbcf f   kernel32:KERNEL32.dll
 0001:0003abd5       _SetUnhandledExceptionFilter@4 1003bbd5 f   kernel32:KERNEL32.dll
 0001:0003abdb       _GetCurrentProcess@0       1003bbdb f   kernel32:KERNEL32.dll
 0001:0003abe1       _TerminateProcess@8        1003bbe1 f   kernel32:KERNEL32.dll
 0001:0003abe7       _IsProcessorFeaturePresent@4 1003bbe7 f   kernel32:KERNEL32.dll
 0001:0003abed       _IsDebuggerPresent@0       1003bbed f   kernel32:KERNEL32.dll
 0001:0003abf3       _GetStartupInfoW@4         1003bbf3 f   kernel32:KERNEL32.dll
 0001:0003abf9       _QueryPerformanceCounter@4 1003bbf9 f   kernel32:KERNEL32.dll
 0001:0003abff       _GetCurrentProcessId@0     1003bbff f   kernel32:KERNEL32.dll
 0001:0003ac05       _GetCurrentThreadId@0      1003bc05 f   kernel32:KERNEL32.dll
 0001:0003ac0b       _GetSystemTimeAsFileTime@4 1003bc0b f   kernel32:KERNEL32.dll
 0001:0003ac11       _InitializeSListHead@4     1003bc11 f   kernel32:KERNEL32.dll
 0001:0003ac17       _DrawFrameControl@16       1003bc17 f   user32:USER32.dll
 0001:0003ac1d       _GetMessageA@16            1003bc1d f   user32:USER32.dll
 0001:0003ac23       _DispatchMessageA@4        1003bc23 f   user32:USER32.dll
 0001:0003ac29       _GetMessagePos@0           1003bc29 f   user32:USER32.dll
 0001:0003ac2f       _SendMessageA@16           1003bc2f f   user32:USER32.dll
 0001:0003ac35       _IsChild@8                 1003bc35 f   user32:USER32.dll
 0001:0003ac3b       _GetFocus@0                1003bc3b f   user32:USER32.dll
 0001:0003ac41       _GetCapture@0              1003bc41 f   user32:USER32.dll
 0001:0003ac47       _SetCapture@4              1003bc47 f   user32:USER32.dll
 0001:0003ac4d       _ReleaseCapture@0          1003bc4d f   user32:USER32.dll
 0001:0003ac53       _SetTimer@16               1003bc53 f   user32:USER32.dll
 0001:0003ac59       _KillTimer@8               1003bc59 f   user32:USER32.dll
 0001:0003ac5f       _EnableWindow@8            1003bc5f f   user32:USER32.dll
 0001:0003ac65       _GetSystemMetrics@4        1003bc65 f   user32:USER32.dll
 0001:0003ac6b       _DrawTextA@20              1003bc6b f   user32:USER32.dll
 0001:0003ac71       _UpdateWindow@4            1003bc71 f   user32:USER32.dll
 0001:0003ac77       _InvalidateRect@12         1003bc77 f   user32:USER32.dll
 0001:0003ac7d       _GetClientRect@8           1003bc7d f   user32:USER32.dll
 0001:0003ac83       _SetCursor@4               1003bc83 f   user32:USER32.dll
 0001:0003ac89       _GetCursor@0               1003bc89 f   user32:USER32.dll
 0001:0003ac8f       _ScreenToClient@8          1003bc8f f   user32:USER32.dll
 0001:0003ac95       _GetSysColor@4             1003bc95 f   user32:USER32.dll
 0001:0003ac9b       _SetRect@20                1003bc9b f   user32:USER32.dll
 0001:0003aca1       _CopyRect@8                1003bca1 f   user32:USER32.dll
 0001:0003aca7       _InflateRect@12            1003bca7 f   user32:USER32.dll
 0001:0003acad       _OffsetRect@12             1003bcad f   user32:USER32.dll
 0001:0003acb3       _PtInRect@12               1003bcb3 f   user32:USER32.dll
 0001:0003acb9       _GetParent@4               1003bcb9 f   user32:USER32.dll
 0001:0003acbf       _RegisterWindowMessageA@4  1003bcbf f   user32:USER32.dll
 0001:0003acc5       _CreatePopupMenu@0         1003bcc5 f   user32:USER32.dll
 0001:0003accb       _AppendMenuA@16            1003bccb f   user32:USER32.dll
 0001:0003acd1       _GetCursorPos@4            1003bcd1 f   user32:USER32.dll
 0001:0003acd7       _DrawTextExA@24            1003bcd7 f   user32:USER32.dll
 0001:0003acdd       _GrayStringA@36            1003bcdd f   user32:USER32.dll
 0001:0003ace3       _TabbedTextOutA@32         1003bce3 f   user32:USER32.dll
 0001:0003ace9       _DrawEdge@16               1003bce9 f   user32:USER32.dll
 0001:0003acef       _IsWindow@4                1003bcef f   user32:USER32.dll
 0001:0003acf5       _FrameRect@12              1003bcf5 f   user32:USER32.dll
 0001:0003acfb       _HideCaret@4               1003bcfb f   user32:USER32.dll
 0001:0003ad01       _PostMessageA@16           1003bd01 f   user32:USER32.dll
 0001:0003ad07       _GetNextDlgGroupItem@12    1003bd07 f   user32:USER32.dll
 0001:0003ad0d       _GetDC@4                   1003bd0d f   user32:USER32.dll
 0001:0003ad13       _SetWindowRgn@12           1003bd13 f   user32:USER32.dll
 0001:0003ad19       _ClientToScreen@8          1003bd19 f   user32:USER32.dll
 0001:0003ad1f       _WindowFromPoint@8         1003bd1f f   user32:USER32.dll
 0001:0003ad25       _DrawFocusRect@8           1003bd25 f   user32:USER32.dll
 0001:0003ad2b       _GetWindowLongA@8          1003bd2b f   user32:USER32.dll
 0001:0003ad31       _LoadBitmapW@8             1003bd31 f   user32:USER32.dll
 0001:0003ad37       _LoadImageA@24             1003bd37 f   user32:USER32.dll
 0001:0003ad3d       _GetWindowRect@8           1003bd3d f   user32:USER32.dll
 0001:0003ad43       _ReleaseDC@8               1003bd43 f   user32:USER32.dll
 0001:0003ad49       _ClipCursor@4              1003bd49 f   user32:USER32.dll
 0001:0003ad4f       _SetWindowLongA@12         1003bd4f f   user32:USER32.dll
 0001:0003ad55       _LoadCursorA@8             1003bd55 f   user32:USER32.dll
 0001:0003ad5b       _wsprintfA                 1003bd5b f   user32:USER32.dll
 0001:0003ad61       _GetKeyState@4             1003bd61 f   user32:USER32.dll
 0001:0003ad67       _SetForegroundWindow@4     1003bd67 f   user32:USER32.dll
 0001:0003ad6d       _FindWindowA@8             1003bd6d f   user32:USER32.dll
 0001:0003ad73       _SystemParametersInfoA@16  1003bd73 f   user32:USER32.dll
 0001:0003ad79       _FillRect@12               1003bd79 f   user32:USER32.dll
 0001:0003ad7f       _DefWindowProcA@16         1003bd7f f   user32:USER32.dll
 0001:0003ad85       _GetClassInfoA@12          1003bd85 f   user32:USER32.dll
 0001:0003ad8b       _IsClipboardFormatAvailable@4 1003bd8b f   user32:USER32.dll
 0001:0003ad91       _InvertRect@8              1003bd91 f   user32:USER32.dll
 0001:0003ad97       _IntersectRect@12          1003bd97 f   user32:USER32.dll
 0001:0003ad9d       _GetDoubleClickTime@0      1003bd9d f   user32:USER32.dll
 0001:0003ada3       _IsWindowVisible@4         1003bda3 f   user32:USER32.dll
 0001:0003ada9       _IsRectEmpty@4             1003bda9 f   user32:USER32.dll
 0001:0003adaf       _UnregisterClassA@8        1003bdaf f   user32:USER32.dll
 0001:0003adb5       _BitBlt@36                 1003bdb5 f   gdi32:GDI32.dll
 0001:0003adbb       _CreateCompatibleBitmap@12 1003bdbb f   gdi32:GDI32.dll
 0001:0003adc1       _CreateCompatibleDC@4      1003bdc1 f   gdi32:GDI32.dll
 0001:0003adc7       _CreateFontIndirectA@4     1003bdc7 f   gdi32:GDI32.dll
 0001:0003adcd       _CreateRectRgnIndirect@4   1003bdcd f   gdi32:GDI32.dll
 0001:0003add3       _GetTextExtentPoint32A@16  1003bdd3 f   gdi32:GDI32.dll
 0001:0003add9       _GetObjectA@12             1003bdd9 f   gdi32:GDI32.dll
 0001:0003addf       _DeleteObject@4            1003bddf f   gdi32:GDI32.dll
 0001:0003ade5       _Escape@20                 1003bde5 f   gdi32:GDI32.dll
 0001:0003adeb       _GetBkColor@4              1003bdeb f   gdi32:GDI32.dll
 0001:0003adf1       _GetCurrentObject@8        1003bdf1 f   gdi32:GDI32.dll
 0001:0003adf7       _PtVisible@12              1003bdf7 f   gdi32:GDI32.dll
 0001:0003adfd       _RectVisible@8             1003bdfd f   gdi32:GDI32.dll
 0001:0003ae03       _TextOutA@20               1003be03 f   gdi32:GDI32.dll
 0001:0003ae09       _ExtTextOutA@32            1003be09 f   gdi32:GDI32.dll
 0001:0003ae0f       _CreateRectRgn@16          1003be0f f   gdi32:GDI32.dll
 0001:0003ae15       _Rectangle@20              1003be15 f   gdi32:GDI32.dll
 0001:0003ae1b       _SetBkColor@8              1003be1b f   gdi32:GDI32.dll
 0001:0003ae21       _SetTextColor@8            1003be21 f   gdi32:GDI32.dll
 0001:0003ae27       _CreateSolidBrush@4        1003be27 f   gdi32:GDI32.dll
 0001:0003ae2d       _SelectObject@8            1003be2d f   gdi32:GDI32.dll
 0001:0003ae33       _CombineRgn@16             1003be33 f   gdi32:GDI32.dll
 0001:0003ae39       _DeleteDC@4                1003be39 f   gdi32:GDI32.dll
 0001:0003ae3f       _GetPixel@12               1003be3f f   gdi32:GDI32.dll
 0001:0003ae45       _SelectClipRgn@8           1003be45 f   gdi32:GDI32.dll
 0001:0003ae4b       _StretchBlt@44             1003be4b f   gdi32:GDI32.dll
 0001:0003ae51       _CreateDCA@16              1003be51 f   gdi32:GDI32.dll
 0001:0003ae57       _CreatePen@12              1003be57 f   gdi32:GDI32.dll
 0001:0003ae5d       _GetDeviceCaps@8           1003be5d f   gdi32:GDI32.dll
 0001:0003ae63       _CreateFontA@56            1003be63 f   gdi32:GDI32.dll
 0001:0003ae69       _StartDocA@8               1003be69 f   gdi32:GDI32.dll
 0001:0003ae6f       _EndDoc@4                  1003be6f f   gdi32:GDI32.dll
 0001:0003ae75       _StartPage@4               1003be75 f   gdi32:GDI32.dll
 0001:0003ae7b       _EndPage@4                 1003be7b f   gdi32:GDI32.dll
 0001:0003ae81       _AbortDoc@4                1003be81 f   gdi32:GDI32.dll
 0001:0003ae87       _PatBlt@24                 1003be87 f   gdi32:GDI32.dll
 0001:0003ae8d       _GetTextMetricsA@8         1003be8d f   gdi32:GDI32.dll
 0001:0003ae93       _RegCloseKey@4             1003be93 f   advapi32:ADVAPI32.dll
 0001:0003ae99       _RegOpenKeyExA@20          1003be99 f   advapi32:ADVAPI32.dll
 0001:0003ae9f       _RegQueryValueExA@24       1003be9f f   advapi32:ADVAPI32.dll
 0001:0003aea5       _ShellExecuteA@24          1003bea5 f   shell32:SHELL32.dll
 0001:0003aeab       _ImageList_Draw@24         1003beab f   comctl32:COMCTL32.dll
 0001:0003aeb1       _ImageList_GetImageInfo@12 1003beb1 f   comctl32:COMCTL32.dll
 0001:0003aeb7       _ImageList_SetBkColor@8    1003beb7 f   comctl32:COMCTL32.dll
 0001:0003aebd       _ImageList_GetBkColor@4    1003bebd f   comctl32:COMCTL32.dll
 0001:0003aec3       __TrackMouseEvent@4        1003bec3 f   comctl32:COMCTL32.dll
 0001:0003aec9       _ImageList_AddMasked@12    1003bec9 f   comctl32:COMCTL32.dll
 0001:0003aecf       ??$?2PAUHINSTANCE__@@@Wrapper@?$CSimpleArray@PAUHINSTANCE__@@V?$CSimpleArrayEqualHelper@PAUHINSTANCE__@@@ATL@@@ATL@@SAPAXIPAPAUHINSTANCE__@@@Z 1003becf f i atls:atlbase.obj
 0001:0003aed7       ??0?$CComCritSecLock@VCComCriticalSection@ATL@@@ATL@@QAE@AAVCComCriticalSection@1@_N@Z 1003bed7 f i atls:atlbase.obj
 0001:0003aefe       ??0?$CSimpleArray@PAUHINSTANCE__@@V?$CSimpleArrayEqualHelper@PAUHINSTANCE__@@@ATL@@@ATL@@QAE@XZ 1003befe f i atls:atlbase.obj
 0001:0003af0b       ??0CAtlBaseModule@ATL@@QAE@XZ 1003bf0b f   atls:atlbase.obj
 0001:0003af5e       ??0Wrapper@?$CSimpleArray@PAUHINSTANCE__@@V?$CSimpleArrayEqualHelper@PAUHINSTANCE__@@@ATL@@@ATL@@QAE@ABQAUHINSTANCE__@@@Z 1003bf5e f i atls:atlbase.obj
 0001:0003af6e       ??0_ATL_BASE_MODULE70@ATL@@QAE@XZ 1003bf6e f i atls:atlbase.obj
 0001:0003af91       ??1?$CComCritSecLock@VCComCriticalSection@ATL@@@ATL@@QAE@XZ 1003bf91 f i atls:atlbase.obj
 0001:0003afa8       ??1?$CSimpleArray@PAUHINSTANCE__@@V?$CSimpleArrayEqualHelper@PAUHINSTANCE__@@@ATL@@@ATL@@QAE@XZ 1003bfa8 f i atls:atlbase.obj
 0001:0003afad       ??1CAtlBaseModule@ATL@@QAE@XZ 1003bfad f   atls:atlbase.obj
 0001:0003afc3       ??1_ATL_BASE_MODULE70@ATL@@QAE@XZ 1003bfc3 f i atls:atlbase.obj
 0001:0003afcb       ??A?$CSimpleArray@PAUHINSTANCE__@@V?$CSimpleArrayEqualHelper@PAUHINSTANCE__@@@ATL@@@ATL@@QAEAAPAUHINSTANCE__@@H@Z 1003bfcb f i atls:atlbase.obj
 0001:0003aff0       ?Add@?$CSimpleArray@PAUHINSTANCE__@@V?$CSimpleArrayEqualHelper@PAUHINSTANCE__@@@ATL@@@ATL@@QAEHABQAUHINSTANCE__@@@Z 1003bff0 f i atls:atlbase.obj
 0001:0003b072       ?AddResourceInstance@CAtlBaseModule@ATL@@QAE_NPAUHINSTANCE__@@@Z 1003c072 f   atls:atlbase.obj
 0001:0003b0a5       ?AtlCrtErrorCheck@ATL@@YAHH@Z 1003c0a5 f i atls:atlbase.obj
 0001:0003b0e0       ?GetHInstanceAt@CAtlBaseModule@ATL@@QAEPAUHINSTANCE__@@H@Z 1003c0e0 f   atls:atlbase.obj
 0001:0003b125       ?GetSize@?$CSimpleArray@PAUHINSTANCE__@@V?$CSimpleArrayEqualHelper@PAUHINSTANCE__@@@ATL@@@ATL@@QBEHXZ 1003c125 f i atls:atlbase.obj
 0001:0003b129       ?InternalSetAtIndex@?$CSimpleArray@PAUHINSTANCE__@@V?$CSimpleArrayEqualHelper@PAUHINSTANCE__@@@ATL@@@ATL@@QAEXHABQAUHINSTANCE__@@@Z 1003c129 f i atls:atlbase.obj
 0001:0003b143       ?Lock@?$CComCritSecLock@VCComCriticalSection@ATL@@@ATL@@QAEJXZ 1003c143 f i atls:atlbase.obj
 0001:0003b156       ?Lock@CComCriticalSection@ATL@@QAEJXZ 1003c156 f i atls:atlbase.obj
 0001:0003b160       ?RemoveAll@?$CSimpleArray@PAUHINSTANCE__@@V?$CSimpleArrayEqualHelper@PAUHINSTANCE__@@@ATL@@@ATL@@QAEXXZ 1003c160 f i atls:atlbase.obj
 0001:0003b17d       ?RemoveAt@?$CSimpleArray@PAUHINSTANCE__@@V?$CSimpleArrayEqualHelper@PAUHINSTANCE__@@@ATL@@@ATL@@QAEHH@Z 1003c17d f i atls:atlbase.obj
 0001:0003b1cb       ?RemoveResourceInstance@CAtlBaseModule@ATL@@QAE_NPAUHINSTANCE__@@@Z 1003c1cb f   atls:atlbase.obj
 0001:0003b228       ?Unlock@?$CComCritSecLock@VCComCriticalSection@ATL@@@ATL@@QAEXXZ 1003c228 f i atls:atlbase.obj
 0001:0003b239       ?Unlock@CComCriticalSection@ATL@@QAEJXZ 1003c239 f i atls:atlbase.obj
 0001:0003b243       ?memmove_s@Checked@ATL@@YAXPAXIPBXI@Z 1003c243 f i atls:atlbase.obj
 0001:0003b2e0       ??0?$CTraceCategoryEx@$00$0A@@ATL@@QAE@PB_W@Z 1003c2e0 f i atls:stdafx.obj
 0001:0003b2e5       ??0?$CTraceCategoryEx@$01$0A@@ATL@@QAE@PB_W@Z 1003c2e5 f i atls:stdafx.obj
 0001:0003b2ea       ??0?$CTraceCategoryEx@$03$0A@@ATL@@QAE@PB_W@Z 1003c2ea f i atls:stdafx.obj
 0001:0003b2ef       ??0?$CTraceCategoryEx@$07$0A@@ATL@@QAE@PB_W@Z 1003c2ef f i atls:stdafx.obj
 0001:0003b2f4       ??0?$CTraceCategoryEx@$0BA@$0A@@ATL@@QAE@PB_W@Z 1003c2f4 f i atls:stdafx.obj
 0001:0003b2f9       ??0?$CTraceCategoryEx@$0BAA@$0A@@ATL@@QAE@PB_W@Z 1003c2f9 f i atls:stdafx.obj
 0001:0003b2fe       ??0?$CTraceCategoryEx@$0BAAA@$0A@@ATL@@QAE@PB_W@Z 1003c2fe f i atls:stdafx.obj
 0001:0003b303       ??0?$CTraceCategoryEx@$0BAAAA@$0A@@ATL@@QAE@PB_W@Z 1003c303 f i atls:stdafx.obj
 0001:0003b308       ??0?$CTraceCategoryEx@$0BAAAAA@$0A@@ATL@@QAE@PB_W@Z 1003c308 f i atls:stdafx.obj
 0001:0003b30d       ??0?$CTraceCategoryEx@$0CA@$0A@@ATL@@QAE@PB_W@Z 1003c30d f i atls:stdafx.obj
 0001:0003b312       ??0?$CTraceCategoryEx@$0CAA@$0A@@ATL@@QAE@PB_W@Z 1003c312 f i atls:stdafx.obj
 0001:0003b317       ??0?$CTraceCategoryEx@$0CAAA@$0A@@ATL@@QAE@PB_W@Z 1003c317 f i atls:stdafx.obj
 0001:0003b31c       ??0?$CTraceCategoryEx@$0CAAAA@$0A@@ATL@@QAE@PB_W@Z 1003c31c f i atls:stdafx.obj
 0001:0003b321       ??0?$CTraceCategoryEx@$0CAAAAA@$0A@@ATL@@QAE@PB_W@Z 1003c321 f i atls:stdafx.obj
 0001:0003b326       ??0?$CTraceCategoryEx@$0EA@$0A@@ATL@@QAE@PB_W@Z 1003c326 f i atls:stdafx.obj
 0001:0003b32b       ??0?$CTraceCategoryEx@$0EAA@$0A@@ATL@@QAE@PB_W@Z 1003c32b f i atls:stdafx.obj
 0001:0003b330       ??0?$CTraceCategoryEx@$0EAAA@$0A@@ATL@@QAE@PB_W@Z 1003c330 f i atls:stdafx.obj
 0001:0003b335       ??0?$CTraceCategoryEx@$0EAAAA@$0A@@ATL@@QAE@PB_W@Z 1003c335 f i atls:stdafx.obj
 0001:0003b33a       ??0?$CTraceCategoryEx@$0EAAAAA@$0A@@ATL@@QAE@PB_W@Z 1003c33a f i atls:stdafx.obj
 0001:0003b33f       ??0?$CTraceCategoryEx@$0IA@$0A@@ATL@@QAE@PB_W@Z 1003c33f f i atls:stdafx.obj
 0001:0003b344       ??0?$CTraceCategoryEx@$0IAA@$0A@@ATL@@QAE@PB_W@Z 1003c344 f i atls:stdafx.obj
 0001:0003b349       ??0?$CTraceCategoryEx@$0IAAA@$0A@@ATL@@QAE@PB_W@Z 1003c349 f i atls:stdafx.obj
 0001:0003b34e       ??0?$CTraceCategoryEx@$0IAAAA@$0A@@ATL@@QAE@PB_W@Z 1003c34e f i atls:stdafx.obj
 0001:0003b353       ??_I@YGXPAXIIP6EX0@Z@Z     1003c353 f i atls:stdafx.obj
 0001:0003b386       _SystemTimeToVariantTime@8 1003c386 f   oleaut32:OLEAUT32.dll
 0001:0003b38c       _VariantTimeToSystemTime@12 1003c38c f   oleaut32:OLEAUT32.dll
 0001:0003b392       _VarUdateFromDate@16       1003c392 f   oleaut32:OLEAUT32.dll
 0001:0003b398       _SysFreeString@4           1003c398 f   oleaut32:OLEAUT32.dll
 0001:0003b39e       ___std_terminate           1003c39e f   vcruntime:VCRUNTIME140.dll
 0001:0003b3a4       ___CxxFrameHandler3        1003c3a4 f   vcruntime:VCRUNTIME140.dll
 0001:0003b3aa       __purecall                 1003c3aa f   vcruntime:VCRUNTIME140.dll
 0001:0003b3b0       _memset                    1003c3b0 f   vcruntime:VCRUNTIME140.dll
 0001:0003b3b6       _memcpy                    1003c3b6 f   vcruntime:VCRUNTIME140.dll
 0001:0003b3bc       _memmove                   1003c3bc f   vcruntime:VCRUNTIME140.dll
 0001:0003b3c2       ___current_exception       1003c3c2 f   vcruntime:VCRUNTIME140.dll
 0001:0003b3c8       ___current_exception_context 1003c3c8 f   vcruntime:VCRUNTIME140.dll
 0001:0003b3ce       __except_handler4_common   1003c3ce f   vcruntime:VCRUNTIME140.dll
 0001:0003b3d4       ___std_type_info_destroy_list 1003c3d4 f   vcruntime:VCRUNTIME140.dll
 0001:0003b3da       ___stdio_common_vsscanf    1003c3da f   ucrt:api-ms-win-crt-stdio-l1-1-0.dll
 0001:0003b3e0       __strupr                   1003c3e0 f   ucrt:api-ms-win-crt-string-l1-1-0.dll
 0001:0003b3e6       ___stdio_common_vsprintf   1003c3e6 f   ucrt:api-ms-win-crt-stdio-l1-1-0.dll
 0001:0003b3ec       _atoi                      1003c3ec f   ucrt:api-ms-win-crt-convert-l1-1-0.dll
 0001:0003b3f2       _atol                      1003c3f2 f   ucrt:api-ms-win-crt-convert-l1-1-0.dll
 0001:0003b3f8       __invalid_parameter_noinfo 1003c3f8 f   ucrt:api-ms-win-crt-runtime-l1-1-0.dll
 0001:0003b3fe       __errno                    1003c3fe f   ucrt:api-ms-win-crt-runtime-l1-1-0.dll
 0001:0003b404       __mkdir                    1003c404 f   ucrt:api-ms-win-crt-filesystem-l1-1-0.dll
 0001:0003b40a       __access                   1003c40a f   ucrt:api-ms-win-crt-filesystem-l1-1-0.dll
 0001:0003b410       __mbscmp                   1003c410 f   ucrt:api-ms-win-crt-multibyte-l1-1-0.dll
 0001:0003b416       _strtoul                   1003c416 f   ucrt:api-ms-win-crt-convert-l1-1-0.dll
 0001:0003b41c       __localtime64_s            1003c41c f   ucrt:api-ms-win-crt-time-l1-1-0.dll
 0001:0003b422       _strftime                  1003c422 f   ucrt:api-ms-win-crt-time-l1-1-0.dll
 0001:0003b428       __time64                   1003c428 f   ucrt:api-ms-win-crt-time-l1-1-0.dll
 0001:0003b42e       _free                      1003c42e f   ucrt:api-ms-win-crt-heap-l1-1-0.dll
 0001:0003b434       _terminate                 1003c434 f   ucrt:api-ms-win-crt-runtime-l1-1-0.dll
 0001:0003b43a       __seh_filter_dll           1003c43a f   ucrt:api-ms-win-crt-runtime-l1-1-0.dll
 0001:0003b440       __configure_narrow_argv    1003c440 f   ucrt:api-ms-win-crt-runtime-l1-1-0.dll
 0001:0003b446       __initialize_narrow_environment 1003c446 f   ucrt:api-ms-win-crt-runtime-l1-1-0.dll
 0001:0003b44c       __initialize_onexit_table  1003c44c f   ucrt:api-ms-win-crt-runtime-l1-1-0.dll
 0001:0003b452       __register_onexit_function 1003c452 f   ucrt:api-ms-win-crt-runtime-l1-1-0.dll
 0001:0003b458       __execute_onexit_table     1003c458 f   ucrt:api-ms-win-crt-runtime-l1-1-0.dll
 0001:0003b45e       __crt_atexit               1003c45e f   ucrt:api-ms-win-crt-runtime-l1-1-0.dll
 0001:0003b464       __crt_at_quick_exit        1003c464 f   ucrt:api-ms-win-crt-runtime-l1-1-0.dll
 0001:0003b46a       __cexit                    1003c46a f   ucrt:api-ms-win-crt-runtime-l1-1-0.dll
 0001:0003b470       __initterm                 1003c470 f   ucrt:api-ms-win-crt-runtime-l1-1-0.dll
 0001:0003b476       __initterm_e               1003c476 f   ucrt:api-ms-win-crt-runtime-l1-1-0.dll
 0001:0003b47c       __recalloc                 1003c47c f   ucrt:api-ms-win-crt-heap-l1-1-0.dll
 0001:0003b482       __chmod                    1003c482 f   ucrt:api-ms-win-crt-filesystem-l1-1-0.dll
 0001:0003b488       _OutputDebugStringW@4      1003c488 f   kernel32:KERNEL32.dll
 0001:0003b48e       ___scrt_stub_for_acrt_initialize 1003c48e f   msvcrt:ucrt_stubs.obj
 0001:0003b48e       ___acrt_initialize         1003c48e f   msvcrt:ucrt_stubs.obj
 0001:0003b48e       ___vcrt_initialize         1003c48e f   msvcrt:ucrt_stubs.obj
 0001:0003b491       ___vcrt_thread_attach      1003c491 f   msvcrt:ucrt_stubs.obj
 0001:0003b491       ___acrt_thread_attach      1003c491 f   msvcrt:ucrt_stubs.obj
 0001:0003b491       ___scrt_stub_for_acrt_thread_attach 1003c491 f   msvcrt:ucrt_stubs.obj
 0001:0003b494       ___scrt_stub_for_acrt_thread_detach 1003c494 f   msvcrt:ucrt_stubs.obj
 0001:0003b494       ___vcrt_thread_detach      1003c494 f   msvcrt:ucrt_stubs.obj
 0001:0003b494       ___acrt_thread_detach      1003c494 f   msvcrt:ucrt_stubs.obj
 0001:0003b497       ___scrt_stub_for_acrt_uninitialize 1003c497 f   msvcrt:ucrt_stubs.obj
 0001:0003b497       ___vcrt_uninitialize       1003c497 f   msvcrt:ucrt_stubs.obj
 0001:0003b497       ___acrt_uninitialize       1003c497 f   msvcrt:ucrt_stubs.obj
 0001:0003b49a       ___acrt_uninitialize_critical 1003c49a f   msvcrt:ucrt_stubs.obj
 0001:0003b49a       ___vcrt_uninitialize_critical 1003c49a f   msvcrt:ucrt_stubs.obj
 0001:0003b49a       ___scrt_stub_for_acrt_uninitialize_critical 1003c49a f   msvcrt:ucrt_stubs.obj
 0001:0003b49d       __is_c_termination_complete 1003c49d f   msvcrt:ucrt_stubs.obj
 0001:0003b49d       ___scrt_stub_for_is_c_termination_complete 1003c49d f   msvcrt:ucrt_stubs.obj
 0001:0003b4a0       __filter_x86_sse2_floating_point_exception 1003c4a0 f   msvcrt:x86_exception_filter.obj
 0001:0003b4a0       __filter_x86_sse2_floating_point_exception_default 1003c4a0 f   msvcrt:x86_exception_filter.obj
 0001:0003fe80       ??__Fcell@?6??GetCell@CGridCtrl@@QBEPAVCGridCellBase@@HH@Z@YAXXZ 10040e80 f i GridCtrl.obj
 0001:0003fe90       ??__Fgvdi@?6??GetCell@CGridCtrl@@QBEPAVCGridCellBase@@HH@Z@YAXXZ 10040e90 f i GridCtrl.obj
 0001:00040080       ??__FstrHeap@?1??GetInstance@CAtlStringMgr@ATL@@SAPAUIAtlStringMgr@2@XZ@YAXXZ 10041080 f i StdAfx.obj
 0001:000400b0       ??__FstrMgr@?1??GetInstance@CAtlStringMgr@ATL@@SAPAUIAtlStringMgr@2@XZ@YAXXZ 100410b0 f i StdAfx.obj
 0002:00000000       __imp__RegCloseKey@4       10042000     advapi32:ADVAPI32.dll
 0002:00000004       __imp__RegQueryValueExA@24 10042004     advapi32:ADVAPI32.dll
 0002:00000008       __imp__RegOpenKeyExA@20    10042008     advapi32:ADVAPI32.dll
 0002:0000000c       \177ADVAPI32_NULL_THUNK_DATA 1004200c     advapi32:ADVAPI32.dll
 0002:00000010       __imp__ImageList_Draw@24   10042010     comctl32:COMCTL32.dll
 0002:00000014       __imp__ImageList_GetBkColor@4 10042014     comctl32:COMCTL32.dll
 0002:00000018       __imp___TrackMouseEvent@4  10042018     comctl32:COMCTL32.dll
 0002:0000001c       __imp__ImageList_GetImageInfo@12 1004201c     comctl32:COMCTL32.dll
 0002:00000020       __imp__ImageList_SetBkColor@8 10042020     comctl32:COMCTL32.dll
 0002:00000024       __imp__ImageList_AddMasked@12 10042024     comctl32:COMCTL32.dll
 0002:00000028       \177COMCTL32_NULL_THUNK_DATA 10042028     comctl32:COMCTL32.dll
 0002:0000002c       __imp__RectVisible@8       1004202c     gdi32:GDI32.dll
 0002:00000030       __imp__TextOutA@20         10042030     gdi32:GDI32.dll
 0002:00000034       __imp__ExtTextOutA@32      10042034     gdi32:GDI32.dll
 0002:00000038       __imp__CreateRectRgn@16    10042038     gdi32:GDI32.dll
 0002:0000003c       __imp__Rectangle@20        1004203c     gdi32:GDI32.dll
 0002:00000040       __imp__SetBkColor@8        10042040     gdi32:GDI32.dll
 0002:00000044       __imp__SetTextColor@8      10042044     gdi32:GDI32.dll
 0002:00000048       __imp__CreateSolidBrush@4  10042048     gdi32:GDI32.dll
 0002:0000004c       __imp__SelectObject@8      1004204c     gdi32:GDI32.dll
 0002:00000050       __imp__CombineRgn@16       10042050     gdi32:GDI32.dll
 0002:00000054       __imp__DeleteDC@4          10042054     gdi32:GDI32.dll
 0002:00000058       __imp__GetPixel@12         10042058     gdi32:GDI32.dll
 0002:0000005c       __imp__PtVisible@12        1004205c     gdi32:GDI32.dll
 0002:00000060       __imp__StretchBlt@44       10042060     gdi32:GDI32.dll
 0002:00000064       __imp__CreateDCA@16        10042064     gdi32:GDI32.dll
 0002:00000068       __imp__CreatePen@12        10042068     gdi32:GDI32.dll
 0002:0000006c       __imp__GetDeviceCaps@8     1004206c     gdi32:GDI32.dll
 0002:00000070       __imp__CreateFontA@56      10042070     gdi32:GDI32.dll
 0002:00000074       __imp__StartDocA@8         10042074     gdi32:GDI32.dll
 0002:00000078       __imp__EndDoc@4            10042078     gdi32:GDI32.dll
 0002:0000007c       __imp__StartPage@4         1004207c     gdi32:GDI32.dll
 0002:00000080       __imp__EndPage@4           10042080     gdi32:GDI32.dll
 0002:00000084       __imp__AbortDoc@4          10042084     gdi32:GDI32.dll
 0002:00000088       __imp__PatBlt@24           10042088     gdi32:GDI32.dll
 0002:0000008c       __imp__GetTextMetricsA@8   1004208c     gdi32:GDI32.dll
 0002:00000090       __imp__GetBkColor@4        10042090     gdi32:GDI32.dll
 0002:00000094       __imp__Escape@20           10042094     gdi32:GDI32.dll
 0002:00000098       __imp__DeleteObject@4      10042098     gdi32:GDI32.dll
 0002:0000009c       __imp__GetObjectA@12       1004209c     gdi32:GDI32.dll
 0002:000000a0       __imp__GetTextExtentPoint32A@16 100420a0     gdi32:GDI32.dll
 0002:000000a4       __imp__CreateRectRgnIndirect@4 100420a4     gdi32:GDI32.dll
 0002:000000a8       __imp__CreateFontIndirectA@4 100420a8     gdi32:GDI32.dll
 0002:000000ac       __imp__CreateCompatibleDC@4 100420ac     gdi32:GDI32.dll
 0002:000000b0       __imp__CreateCompatibleBitmap@12 100420b0     gdi32:GDI32.dll
 0002:000000b4       __imp__SelectClipRgn@8     100420b4     gdi32:GDI32.dll
 0002:000000b8       __imp__GetCurrentObject@8  100420b8     gdi32:GDI32.dll
 0002:000000bc       __imp__BitBlt@36           100420bc     gdi32:GDI32.dll
 0002:000000c0       \177GDI32_NULL_THUNK_DATA  100420c0     gdi32:GDI32.dll
 0002:000000c4       __imp__IsDebuggerPresent@0 100420c4     kernel32:KERNEL32.dll
 0002:000000c8       __imp__GetStartupInfoW@4   100420c8     kernel32:KERNEL32.dll
 0002:000000cc       __imp__TerminateProcess@8  100420cc     kernel32:KERNEL32.dll
 0002:000000d0       __imp__UnhandledExceptionFilter@4 100420d0     kernel32:KERNEL32.dll
 0002:000000d4       __imp__CreateEventW@16     100420d4     kernel32:KERNEL32.dll
 0002:000000d8       __imp__WaitForSingleObjectEx@12 100420d8     kernel32:KERNEL32.dll
 0002:000000dc       __imp__ResetEvent@4        100420dc     kernel32:KERNEL32.dll
 0002:000000e0       __imp__SetEvent@4          100420e0     kernel32:KERNEL32.dll
 0002:000000e4       __imp__LeaveCriticalSection@4 100420e4     kernel32:KERNEL32.dll
 0002:000000e8       __imp__EnterCriticalSection@4 100420e8     kernel32:KERNEL32.dll
 0002:000000ec       __imp__GetCurrentProcessId@0 100420ec     kernel32:KERNEL32.dll
 0002:000000f0       __imp__GetCurrentThreadId@0 100420f0     kernel32:KERNEL32.dll
 0002:000000f4       __imp__CloseHandle@4       100420f4     kernel32:KERNEL32.dll
 0002:000000f8       __imp__LoadLibraryW@4      100420f8     kernel32:KERNEL32.dll
 0002:000000fc       __imp__GetModuleHandleW@4  100420fc     kernel32:KERNEL32.dll
 0002:00000100       __imp__GetModuleFileNameW@12 10042100     kernel32:KERNEL32.dll
 0002:00000104       __imp__IsProcessorFeaturePresent@4 10042104     kernel32:KERNEL32.dll
 0002:00000108       __imp__InitializeCriticalSectionAndSpinCount@8 10042108     kernel32:KERNEL32.dll
 0002:0000010c       __imp__SetLastError@4      1004210c     kernel32:KERNEL32.dll
 0002:00000110       __imp__OutputDebugStringA@4 10042110     kernel32:KERNEL32.dll
 0002:00000114       __imp__GetModuleFileNameA@12 10042114     kernel32:KERNEL32.dll
 0002:00000118       __imp__DeleteCriticalSection@4 10042118     kernel32:KERNEL32.dll
 0002:0000011c       __imp__InitializeCriticalSectionEx@12 1004211c     kernel32:KERNEL32.dll
 0002:00000120       __imp__GetProcessHeap@0    10042120     kernel32:KERNEL32.dll
 0002:00000124       __imp__HeapSize@12         10042124     kernel32:KERNEL32.dll
 0002:00000128       __imp__HeapFree@12         10042128     kernel32:KERNEL32.dll
 0002:0000012c       __imp__HeapReAlloc@16      1004212c     kernel32:KERNEL32.dll
 0002:00000130       __imp__HeapAlloc@12        10042130     kernel32:KERNEL32.dll
 0002:00000134       __imp__HeapDestroy@4       10042134     kernel32:KERNEL32.dll
 0002:00000138       __imp__RaiseException@16   10042138     kernel32:KERNEL32.dll
 0002:0000013c       __imp__DecodePointer@4     1004213c     kernel32:KERNEL32.dll
 0002:00000140       __imp__GetTickCount@0      10042140     kernel32:KERNEL32.dll
 0002:00000144       __imp__MulDiv@12           10042144     kernel32:KERNEL32.dll
 0002:00000148       __imp__GlobalLock@4        10042148     kernel32:KERNEL32.dll
 0002:0000014c       __imp__GlobalUnlock@4      1004214c     kernel32:KERNEL32.dll
 0002:00000150       __imp__GlobalSize@4        10042150     kernel32:KERNEL32.dll
 0002:00000154       __imp__GlobalReAlloc@12    10042154     kernel32:KERNEL32.dll
 0002:00000158       __imp__GetVersionExA@4     10042158     kernel32:KERNEL32.dll
 0002:0000015c       __imp__WritePrivateProfileStringA@16 1004215c     kernel32:KERNEL32.dll
 0002:00000160       __imp__CopyFileA@12        10042160     kernel32:KERNEL32.dll
 0002:00000164       __imp__GetPrivateProfileStringA@24 10042164     kernel32:KERNEL32.dll
 0002:00000168       __imp__GetPrivateProfileIntA@16 10042168     kernel32:KERNEL32.dll
 0002:0000016c       __imp__GetModuleHandleA@4  1004216c     kernel32:KERNEL32.dll
 0002:00000170       __imp__OutputDebugStringW@4 10042170     kernel32:KERNEL32.dll
 0002:00000174       __imp__DeleteFileA@4       10042174     kernel32:KERNEL32.dll
 0002:00000178       __imp__GetEnvironmentVariableA@12 10042178     kernel32:KERNEL32.dll
 0002:0000017c       __imp__lstrlenA@4          1004217c     kernel32:KERNEL32.dll
 0002:00000180       __imp__lstrcpyA@8          10042180     kernel32:KERNEL32.dll
 0002:00000184       __imp__Sleep@4             10042184     kernel32:KERNEL32.dll
 0002:00000188       __imp__LoadLibraryA@4      10042188     kernel32:KERNEL32.dll
 0002:0000018c       __imp__GetProcAddress@8    1004218c     kernel32:KERNEL32.dll
 0002:00000190       __imp__FreeLibrary@4       10042190     kernel32:KERNEL32.dll
 0002:00000194       __imp__GetLastError@0      10042194     kernel32:KERNEL32.dll
 0002:00000198       __imp__QueryPerformanceCounter@4 10042198     kernel32:KERNEL32.dll
 0002:0000019c       __imp__SetUnhandledExceptionFilter@4 1004219c     kernel32:KERNEL32.dll
 0002:000001a0       __imp__GetSystemTimeAsFileTime@4 100421a0     kernel32:KERNEL32.dll
 0002:000001a4       __imp__InitializeSListHead@4 100421a4     kernel32:KERNEL32.dll
 0002:000001a8       __imp__GetCurrentProcess@0 100421a8     kernel32:KERNEL32.dll
 0002:000001ac       \177KERNEL32_NULL_THUNK_DATA 100421ac     kernel32:KERNEL32.dll
 0002:000001b0       __imp__VariantTimeToSystemTime@12 100421b0     oleaut32:OLEAUT32.dll
 0002:000001b4       __imp__SystemTimeToVariantTime@8 100421b4     oleaut32:OLEAUT32.dll
 0002:000001b8       __imp__VarUdateFromDate@16 100421b8     oleaut32:OLEAUT32.dll
 0002:000001bc       __imp__SysFreeString@4     100421bc     oleaut32:OLEAUT32.dll
 0002:000001c0       \177OLEAUT32_NULL_THUNK_DATA 100421c0     oleaut32:OLEAUT32.dll
 0002:000001c4       __imp__ShellExecuteA@24    100421c4     shell32:SHELL32.dll
 0002:000001c8       \177SHELL32_NULL_THUNK_DATA 100421c8     shell32:SHELL32.dll
 0002:000001cc       __imp__FindWindowA@8       100421cc     user32:USER32.dll
 0002:000001d0       __imp__SetForegroundWindow@4 100421d0     user32:USER32.dll
 0002:000001d4       __imp__GetKeyState@4       100421d4     user32:USER32.dll
 0002:000001d8       __imp__wsprintfA           100421d8     user32:USER32.dll
 0002:000001dc       __imp__LoadCursorA@8       100421dc     user32:USER32.dll
 0002:000001e0       __imp__SetWindowLongA@12   100421e0     user32:USER32.dll
 0002:000001e4       __imp__ClipCursor@4        100421e4     user32:USER32.dll
 0002:000001e8       __imp__ReleaseDC@8         100421e8     user32:USER32.dll
 0002:000001ec       __imp__GetWindowRect@8     100421ec     user32:USER32.dll
 0002:000001f0       __imp__LoadImageA@24       100421f0     user32:USER32.dll
 0002:000001f4       __imp__LoadBitmapW@8       100421f4     user32:USER32.dll
 0002:000001f8       __imp__GetWindowLongA@8    100421f8     user32:USER32.dll
 0002:000001fc       __imp__DrawFocusRect@8     100421fc     user32:USER32.dll
 0002:00000200       __imp__WindowFromPoint@8   10042200     user32:USER32.dll
 0002:00000204       __imp__ClientToScreen@8    10042204     user32:USER32.dll
 0002:00000208       __imp__SetWindowRgn@12     10042208     user32:USER32.dll
 0002:0000020c       __imp__GetDC@4             1004220c     user32:USER32.dll
 0002:00000210       __imp__GetNextDlgGroupItem@12 10042210     user32:USER32.dll
 0002:00000214       __imp__PostMessageA@16     10042214     user32:USER32.dll
 0002:00000218       __imp__HideCaret@4         10042218     user32:USER32.dll
 0002:0000021c       __imp__FrameRect@12        1004221c     user32:USER32.dll
 0002:00000220       __imp__IsWindow@4          10042220     user32:USER32.dll
 0002:00000224       __imp__DrawEdge@16         10042224     user32:USER32.dll
 0002:00000228       __imp__TabbedTextOutA@32   10042228     user32:USER32.dll
 0002:0000022c       __imp__GrayStringA@36      1004222c     user32:USER32.dll
 0002:00000230       __imp__DrawTextExA@24      10042230     user32:USER32.dll
 0002:00000234       __imp__GetCursorPos@4      10042234     user32:USER32.dll
 0002:00000238       __imp__AppendMenuA@16      10042238     user32:USER32.dll
 0002:0000023c       __imp__CreatePopupMenu@0   1004223c     user32:USER32.dll
 0002:00000240       __imp__DefWindowProcA@16   10042240     user32:USER32.dll
 0002:00000244       __imp__SystemParametersInfoA@16 10042244     user32:USER32.dll
 0002:00000248       __imp__PtInRect@12         10042248     user32:USER32.dll
 0002:0000024c       __imp__OffsetRect@12       1004224c     user32:USER32.dll
 0002:00000250       __imp__InflateRect@12      10042250     user32:USER32.dll
 0002:00000254       __imp__CopyRect@8          10042254     user32:USER32.dll
 0002:00000258       __imp__SetRect@20          10042258     user32:USER32.dll
 0002:0000025c       __imp__GetSysColor@4       1004225c     user32:USER32.dll
 0002:00000260       __imp__ScreenToClient@8    10042260     user32:USER32.dll
 0002:00000264       __imp__GetCursor@0         10042264     user32:USER32.dll
 0002:00000268       __imp__SetCursor@4         10042268     user32:USER32.dll
 0002:0000026c       __imp__GetClientRect@8     1004226c     user32:USER32.dll
 0002:00000270       __imp__InvalidateRect@12   10042270     user32:USER32.dll
 0002:00000274       __imp__UpdateWindow@4      10042274     user32:USER32.dll
 0002:00000278       __imp__DrawTextA@20        10042278     user32:USER32.dll
 0002:0000027c       __imp__GetSystemMetrics@4  1004227c     user32:USER32.dll
 0002:00000280       __imp__EnableWindow@8      10042280     user32:USER32.dll
 0002:00000284       __imp__KillTimer@8         10042284     user32:USER32.dll
 0002:00000288       __imp__SetTimer@16         10042288     user32:USER32.dll
 0002:0000028c       __imp__ReleaseCapture@0    1004228c     user32:USER32.dll
 0002:00000290       __imp__SetCapture@4        10042290     user32:USER32.dll
 0002:00000294       __imp__GetCapture@0        10042294     user32:USER32.dll
 0002:00000298       __imp__GetFocus@0          10042298     user32:USER32.dll
 0002:0000029c       __imp__IsChild@8           1004229c     user32:USER32.dll
 0002:000002a0       __imp__SendMessageA@16     100422a0     user32:USER32.dll
 0002:000002a4       __imp__GetMessagePos@0     100422a4     user32:USER32.dll
 0002:000002a8       __imp__DispatchMessageA@4  100422a8     user32:USER32.dll
 0002:000002ac       __imp__GetMessageA@16      100422ac     user32:USER32.dll
 0002:000002b0       __imp__DrawFrameControl@16 100422b0     user32:USER32.dll
 0002:000002b4       __imp__GetClassInfoA@12    100422b4     user32:USER32.dll
 0002:000002b8       __imp__IsRectEmpty@4       100422b8     user32:USER32.dll
 0002:000002bc       __imp__UnregisterClassA@8  100422bc     user32:USER32.dll
 0002:000002c0       __imp__GetParent@4         100422c0     user32:USER32.dll
 0002:000002c4       __imp__FillRect@12         100422c4     user32:USER32.dll
 0002:000002c8       __imp__IsClipboardFormatAvailable@4 100422c8     user32:USER32.dll
 0002:000002cc       __imp__InvertRect@8        100422cc     user32:USER32.dll
 0002:000002d0       __imp__IntersectRect@12    100422d0     user32:USER32.dll
 0002:000002d4       __imp__GetDoubleClickTime@0 100422d4     user32:USER32.dll
 0002:000002d8       __imp__RegisterWindowMessageA@4 100422d8     user32:USER32.dll
 0002:000002dc       __imp__IsWindowVisible@4   100422dc     user32:USER32.dll
 0002:000002e0       \177USER32_NULL_THUNK_DATA 100422e0     user32:USER32.dll
 0002:000002e4       __imp____std_terminate     100422e4     vcruntime:VCRUNTIME140.dll
 0002:000002e8       __imp____CxxFrameHandler3  100422e8     vcruntime:VCRUNTIME140.dll
 0002:000002ec       __imp___purecall           100422ec     vcruntime:VCRUNTIME140.dll
 0002:000002f0       __imp__memset              100422f0     vcruntime:VCRUNTIME140.dll
 0002:000002f4       __imp__memcpy              100422f4     vcruntime:VCRUNTIME140.dll
 0002:000002f8       __imp__memmove             100422f8     vcruntime:VCRUNTIME140.dll
 0002:000002fc       __imp____current_exception 100422fc     vcruntime:VCRUNTIME140.dll
 0002:00000300       __imp____current_exception_context 10042300     vcruntime:VCRUNTIME140.dll
 0002:00000304       __imp___except_handler4_common 10042304     vcruntime:VCRUNTIME140.dll
 0002:00000308       __imp____std_type_info_destroy_list 10042308     vcruntime:VCRUNTIME140.dll
 0002:0000030c       \177VCRUNTIME140_NULL_THUNK_DATA 1004230c     vcruntime:VCRUNTIME140.dll
 0002:00000310       __imp__atoi                10042310     ucrt:api-ms-win-crt-convert-l1-1-0.dll
 0002:00000314       __imp__atol                10042314     ucrt:api-ms-win-crt-convert-l1-1-0.dll
 0002:00000318       __imp__strtoul             10042318     ucrt:api-ms-win-crt-convert-l1-1-0.dll
 0002:0000031c       \177api-ms-win-crt-convert-l1-1-0_NULL_THUNK_DATA 1004231c     ucrt:api-ms-win-crt-convert-l1-1-0.dll
 0002:00000320       __imp___mkdir              10042320     ucrt:api-ms-win-crt-filesystem-l1-1-0.dll
 0002:00000324       __imp___access             10042324     ucrt:api-ms-win-crt-filesystem-l1-1-0.dll
 0002:00000328       __imp___chmod              10042328     ucrt:api-ms-win-crt-filesystem-l1-1-0.dll
 0002:00000328       __imp__chmod               10042328     ucrt:api-ms-win-crt-filesystem-l1-1-0.dll
 0002:0000032c       \177api-ms-win-crt-filesystem-l1-1-0_NULL_THUNK_DATA 1004232c     ucrt:api-ms-win-crt-filesystem-l1-1-0.dll
 0002:00000330       __imp___recalloc           10042330     ucrt:api-ms-win-crt-heap-l1-1-0.dll
 0002:00000334       __imp__free                10042334     ucrt:api-ms-win-crt-heap-l1-1-0.dll
 0002:00000338       \177api-ms-win-crt-heap-l1-1-0_NULL_THUNK_DATA 10042338     ucrt:api-ms-win-crt-heap-l1-1-0.dll
 0002:0000033c       __imp___mbscmp             1004233c     ucrt:api-ms-win-crt-multibyte-l1-1-0.dll
 0002:00000340       \177api-ms-win-crt-multibyte-l1-1-0_NULL_THUNK_DATA 10042340     ucrt:api-ms-win-crt-multibyte-l1-1-0.dll
 0002:00000344       __imp___invalid_parameter_noinfo 10042344     ucrt:api-ms-win-crt-runtime-l1-1-0.dll
 0002:00000348       __imp___errno              10042348     ucrt:api-ms-win-crt-runtime-l1-1-0.dll
 0002:0000034c       __imp__terminate           1004234c     ucrt:api-ms-win-crt-runtime-l1-1-0.dll
 0002:00000350       __imp___seh_filter_dll     10042350     ucrt:api-ms-win-crt-runtime-l1-1-0.dll
 0002:00000354       __imp___configure_narrow_argv 10042354     ucrt:api-ms-win-crt-runtime-l1-1-0.dll
 0002:00000358       __imp___initialize_narrow_environment 10042358     ucrt:api-ms-win-crt-runtime-l1-1-0.dll
 0002:0000035c       __imp___initialize_onexit_table 1004235c     ucrt:api-ms-win-crt-runtime-l1-1-0.dll
 0002:00000360       __imp___register_onexit_function 10042360     ucrt:api-ms-win-crt-runtime-l1-1-0.dll
 0002:00000364       __imp___execute_onexit_table 10042364     ucrt:api-ms-win-crt-runtime-l1-1-0.dll
 0002:00000368       __imp___crt_atexit         10042368     ucrt:api-ms-win-crt-runtime-l1-1-0.dll
 0002:0000036c       __imp___crt_at_quick_exit  1004236c     ucrt:api-ms-win-crt-runtime-l1-1-0.dll
 0002:00000370       __imp___cexit              10042370     ucrt:api-ms-win-crt-runtime-l1-1-0.dll
 0002:00000374       __imp___initterm           10042374     ucrt:api-ms-win-crt-runtime-l1-1-0.dll
 0002:00000378       __imp___initterm_e         10042378     ucrt:api-ms-win-crt-runtime-l1-1-0.dll
 0002:0000037c       \177api-ms-win-crt-runtime-l1-1-0_NULL_THUNK_DATA 1004237c     ucrt:api-ms-win-crt-runtime-l1-1-0.dll
 0002:00000380       __imp____stdio_common_vsprintf 10042380     ucrt:api-ms-win-crt-stdio-l1-1-0.dll
 0002:00000384       __imp____stdio_common_vsscanf 10042384     ucrt:api-ms-win-crt-stdio-l1-1-0.dll
 0002:00000388       \177api-ms-win-crt-stdio-l1-1-0_NULL_THUNK_DATA 10042388     ucrt:api-ms-win-crt-stdio-l1-1-0.dll
 0002:0000038c       __imp___strupr             1004238c     ucrt:api-ms-win-crt-string-l1-1-0.dll
 0002:00000390       \177api-ms-win-crt-string-l1-1-0_NULL_THUNK_DATA 10042390     ucrt:api-ms-win-crt-string-l1-1-0.dll
 0002:00000394       __imp___localtime64_s      10042394     ucrt:api-ms-win-crt-time-l1-1-0.dll
 0002:00000398       __imp___time64             10042398     ucrt:api-ms-win-crt-time-l1-1-0.dll
 0002:0000039c       __imp__strftime            1004239c     ucrt:api-ms-win-crt-time-l1-1-0.dll
 0002:000003a0       \177api-ms-win-crt-time-l1-1-0_NULL_THUNK_DATA 100423a0     ucrt:api-ms-win-crt-time-l1-1-0.dll
 0002:000003a4       __imp_?SetWindowOrg@CDC@@QAE?AVCPoint@@HH@Z 100423a4     mfc140:mfc140.dll
 0002:000003a8       __imp_?SetWindowExt@CDC@@UAE?AVCSize@@HH@Z 100423a8     mfc140:mfc140.dll
 0002:000003ac       __imp_?ScaleWindowExt@CDC@@UAE?AVCSize@@HHHH@Z 100423ac     mfc140:mfc140.dll
 0002:000003b0       __imp_?GetClipBox@CDC@@UBEHPAUtagRECT@@@Z 100423b0     mfc140:mfc140.dll
 0002:000003b4       __imp_?DrawIndirect@CImageList@@QAEHPAVCDC@@HUtagPOINT@@UtagSIZE@@1IKKKKKK@Z 100423b4     mfc140:mfc140.dll
 0002:000003b8       __imp_?GetDlgCtrlID@CWnd@@QBEHXZ 100423b8     mfc140:mfc140.dll
 0002:000003bc       __imp_?OnSysColorChange@CWnd@@IAEXXZ 100423bc     mfc140:mfc140.dll
 0002:000003c0       __imp_?GetThisClass@CHeaderCtrl@@SGPAUCRuntimeClass@@XZ 100423c0     mfc140:mfc140.dll
 0002:000003c4       __imp_?GetRuntimeClass@CHeaderCtrl@@UBEPAUCRuntimeClass@@XZ 100423c4     mfc140:mfc140.dll
 0002:000003c8       __imp_?Create@CHeaderCtrl@@UAEHKABUtagRECT@@PAVCWnd@@I@Z 100423c8     mfc140:mfc140.dll
 0002:000003cc       __imp_?CreateEx@CHeaderCtrl@@UAEHKKABUtagRECT@@PAVCWnd@@I@Z 100423cc     mfc140:mfc140.dll
 0002:000003d0       __imp_?DrawItem@CHeaderCtrl@@UAEXPAUtagDRAWITEMSTRUCT@@@Z 100423d0     mfc140:mfc140.dll
 0002:000003d4       __imp_??1CHeaderCtrl@@UAE@XZ 100423d4     mfc140:mfc140.dll
 0002:000003d8       __imp_?OnChildNotify@CHeaderCtrl@@MAEHIIJPAJ@Z 100423d8     mfc140:mfc140.dll
 0002:000003dc       __imp_?FromHandle@CDC@@SGPAV1@PAUHDC__@@@Z 100423dc     mfc140:mfc140.dll
 0002:000003e0       __imp_??0CImageList@@QAE@XZ 100423e0     mfc140:mfc140.dll
 0002:000003e4       __imp_??1CImageList@@UAE@XZ 100423e4     mfc140:mfc140.dll
 0002:000003e8       __imp_?SubclassWindow@CWnd@@QAEHPAUHWND__@@@Z 100423e8     mfc140:mfc140.dll
 0002:000003ec       __imp_?Create@CEdit@@QAEHKABUtagRECT@@PAVCWnd@@I@Z 100423ec     mfc140:mfc140.dll
 0002:000003f0       __imp_?GetItemRect@CListCtrl@@QBEHHPAUtagRECT@@I@Z 100423f0     mfc140:mfc140.dll
 0002:000003f4       __imp_?SetItemText@CListCtrl@@QAEHHHPBD@Z 100423f4     mfc140:mfc140.dll
 0002:000003f8       __imp_?GetHeaderCtrl@CListCtrl@@QBEPAVCHeaderCtrl@@XZ 100423f8     mfc140:mfc140.dll
 0002:000003fc       __imp_?GetSubItemRect@CListCtrl@@QBEHHHHAAVCRect@@@Z 100423fc     mfc140:mfc140.dll
 0002:00000400       __imp_?GetRuntimeClass@CBrush@@UBEPAUCRuntimeClass@@XZ 10042400     mfc140:mfc140.dll
 0002:00000404       __imp_??0CBrush@@QAE@K@Z   10042404     mfc140:mfc140.dll
 0002:00000408       __imp_?GetRuntimeClass@CComboBox@@UBEPAUCRuntimeClass@@XZ 10042408     mfc140:mfc140.dll
 0002:0000040c       __imp_?Create@CComboBox@@UAEHKABUtagRECT@@PAVCWnd@@I@Z 1004240c     mfc140:mfc140.dll
 0002:00000410       __imp_?DrawItem@CComboBox@@UAEXPAUtagDRAWITEMSTRUCT@@@Z 10042410     mfc140:mfc140.dll
 0002:00000414       __imp_?MeasureItem@CComboBox@@UAEXPAUtagMEASUREITEMSTRUCT@@@Z 10042414     mfc140:mfc140.dll
 0002:00000418       __imp_?CompareItem@CComboBox@@UAEHPAUtagCOMPAREITEMSTRUCT@@@Z 10042418     mfc140:mfc140.dll
 0002:0000041c       __imp_?DeleteItem@CComboBox@@UAEXPAUtagDELETEITEMSTRUCT@@@Z 1004241c     mfc140:mfc140.dll
 0002:00000420       __imp_??1CComboBox@@UAE@XZ 10042420     mfc140:mfc140.dll
 0002:00000424       __imp_?OnChildNotify@CComboBox@@MAEHIIJPAJ@Z 10042424     mfc140:mfc140.dll
 0002:00000428       __imp_?SelectObject@CDC@@QAEPAVCBrush@@PAV2@@Z 10042428     mfc140:mfc140.dll
 0002:0000042c       __imp_?EnableWindow@CWnd@@QAEHH@Z 1004242c     mfc140:mfc140.dll
 0002:00000430       __imp_?GetRuntimeClass@CButton@@UBEPAUCRuntimeClass@@XZ 10042430     mfc140:mfc140.dll
 0002:00000434       __imp_?Create@CButton@@UAEHPBDKABUtagRECT@@PAVCWnd@@I@Z 10042434     mfc140:mfc140.dll
 0002:00000438       __imp_?DrawItem@CButton@@UAEXPAUtagDRAWITEMSTRUCT@@@Z 10042438     mfc140:mfc140.dll
 0002:0000043c       __imp_??1CButton@@UAE@XZ   1004243c     mfc140:mfc140.dll
 0002:00000440       __imp_?OnChildNotify@CButton@@MAEHIIJPAJ@Z 10042440     mfc140:mfc140.dll
 0002:00000444       __imp_?GetRuntimeClass@CStatic@@UBEPAUCRuntimeClass@@XZ 10042444     mfc140:mfc140.dll
 0002:00000448       __imp_?Create@CStatic@@UAEHPBDKABUtagRECT@@PAVCWnd@@I@Z 10042448     mfc140:mfc140.dll
 0002:0000044c       __imp_?DrawItem@CStatic@@UAEXPAUtagDRAWITEMSTRUCT@@@Z 1004244c     mfc140:mfc140.dll
 0002:00000450       __imp_??1CStatic@@UAE@XZ   10042450     mfc140:mfc140.dll
 0002:00000454       __imp_?OnChildNotify@CStatic@@MAEHIIJPAJ@Z 10042454     mfc140:mfc140.dll
 0002:00000458       __imp_?AfxThrowMemoryException@@YGXXZ 10042458     mfc140:mfc140.dll
 0002:0000045c       __imp_??4?$CStringT@DV?$StrTraitMFC_DLL@DV?$ChTraitsCRT@D@ATL@@@@@ATL@@QAEAAV01@D@Z 1004245c     mfc140:mfc140.dll
 0002:00000460       __imp_??Y?$CStringT@DV?$StrTraitMFC_DLL@DV?$ChTraitsCRT@D@ATL@@@@@ATL@@QAEAAV01@ABV?$CSimpleStringT@D$00@1@@Z 10042460     mfc140:mfc140.dll
 0002:00000464       __imp_??0CUIntArray@@QAE@XZ 10042464     mfc140:mfc140.dll
 0002:00000468       __imp_?SetAtGrow@CUIntArray@@QAEXHI@Z 10042468     mfc140:mfc140.dll
 0002:0000046c       __imp_?RemoveAt@CUIntArray@@QAEXHH@Z 1004246c     mfc140:mfc140.dll
 0002:00000470       __imp_??1CUIntArray@@UAE@XZ 10042470     mfc140:mfc140.dll
 0002:00000474       __imp_?MessageBoxA@CWnd@@QAEHPBD0I@Z 10042474     mfc140:mfc140.dll
 0002:00000478       __imp_?GetRuntimeClass@CRichEditCtrl@@UBEPAUCRuntimeClass@@XZ 10042478     mfc140:mfc140.dll
 0002:0000047c       __imp_?GetSel@CRichEditCtrl@@QBEXAAJ0@Z 1004247c     mfc140:mfc140.dll
 0002:00000480       __imp_?SetSel@CRichEditCtrl@@QAEXJJ@Z 10042480     mfc140:mfc140.dll
 0002:00000484       __imp_?SetSelectionCharFormat@CRichEditCtrl@@QAEHAAU_charformat@@@Z 10042484     mfc140:mfc140.dll
 0002:00000488       __imp_??1CRichEditCtrl@@UAE@XZ 10042488     mfc140:mfc140.dll
 0002:0000048c       __imp_?DeleteDC@CDC@@QAEHXZ 1004248c     mfc140:mfc140.dll
 0002:00000490       __imp_?ModifyStyle@CWnd@@QAEHKKI@Z 10042490     mfc140:mfc140.dll
 0002:00000494       __imp_?AfxFindResourceHandle@@YGPAUHINSTANCE__@@PBD0@Z 10042494     mfc140:mfc140.dll
 0002:00000498       __imp_??0CToolTipCtrl@@QAE@XZ 10042498     mfc140:mfc140.dll
 0002:0000049c       __imp_?AddTool@CToolTipCtrl@@QAEHPAVCWnd@@PBDPBUtagRECT@@I@Z 1004249c     mfc140:mfc140.dll
 0002:000004a0       __imp_?UpdateTipText@CToolTipCtrl@@QAEXPBDPAVCWnd@@I@Z 100424a0     mfc140:mfc140.dll
 0002:000004a4       __imp_??1CToolTipCtrl@@UAE@XZ 100424a4     mfc140:mfc140.dll
 0002:000004a8       __imp_?ClientToScreen@CWnd@@QBEXPAUtagRECT@@@Z 100424a8     mfc140:mfc140.dll
 0002:000004ac       __imp_?GetRuntimeClass@CTabCtrl@@UBEPAUCRuntimeClass@@XZ 100424ac     mfc140:mfc140.dll
 0002:000004b0       __imp_?Create@CTabCtrl@@UAEHKABUtagRECT@@PAVCWnd@@I@Z 100424b0     mfc140:mfc140.dll
 0002:000004b4       __imp_?CreateEx@CTabCtrl@@UAEHKKABUtagRECT@@PAVCWnd@@I@Z 100424b4     mfc140:mfc140.dll
 0002:000004b8       __imp_?DrawItem@CTabCtrl@@UAEXPAUtagDRAWITEMSTRUCT@@@Z 100424b8     mfc140:mfc140.dll
 0002:000004bc       __imp_??1CTabCtrl@@UAE@XZ  100424bc     mfc140:mfc140.dll
 0002:000004c0       __imp_?OnChildNotify@CTabCtrl@@MAEHIIJPAJ@Z 100424c0     mfc140:mfc140.dll
 0002:000004c4       __imp_?GetThisMessageMap@CTabCtrl@@KGPBUAFX_MSGMAP@@XZ 100424c4     mfc140:mfc140.dll
 0002:000004c8       __imp_?GetMessageMap@CTabCtrl@@MBEPBUAFX_MSGMAP@@XZ 100424c8     mfc140:mfc140.dll
 0002:000004cc       __imp_?SetAtGrow@CDWordArray@@QAEXHK@Z 100424cc     mfc140:mfc140.dll
 0002:000004d0       __imp_?AfxGetModuleState@@YGPAVAFX_MODULE_STATE@@XZ 100424d0     mfc140:mfc140.dll
 0002:000004d4       __imp_?DrawDragRect@CDC@@QAEXPBUtagRECT@@UtagSIZE@@01PAVCBrush@@2@Z 100424d4     mfc140:mfc140.dll
 0002:000004d8       __imp_?GetRuntimeClass@CWnd@@UBEPAUCRuntimeClass@@XZ 100424d8     mfc140:mfc140.dll
 0002:000004dc       __imp_?UnsubclassWindow@CWnd@@QAEPAUHWND__@@XZ 100424dc     mfc140:mfc140.dll
 0002:000004e0       __imp_?GetDlgItem@CWnd@@QBEPAV1@H@Z 100424e0     mfc140:mfc140.dll
 0002:000004e4       __imp_?ScreenToClient@CWnd@@QBEXPAUtagRECT@@@Z 100424e4     mfc140:mfc140.dll
 0002:000004e8       __imp_?wndTop@CWnd@@2V1@B  100424e8     mfc140:mfc140.dll
 0002:000004ec       __imp_?TrimRight@?$CStringT@DV?$StrTraitMFC_DLL@DV?$ChTraitsCRT@D@ATL@@@@@ATL@@QAEAAV12@XZ 100424ec     mfc140:mfc140.dll
 0002:000004f0       __imp_?GetParentFrame@CWnd@@QBEPAVCFrameWnd@@XZ 100424f0     mfc140:mfc140.dll
 0002:000004f4       __imp_?GetRuntimeClass@CDialog@@UBEPAUCRuntimeClass@@XZ 100424f4     mfc140:mfc140.dll
 0002:000004f8       __imp_?Create@CDialog@@UAEHPBDPAVCWnd@@@Z 100424f8     mfc140:mfc140.dll
 0002:000004fc       __imp_?CreateIndirect@CDialog@@UAEHPBUDLGTEMPLATE@@PAVCWnd@@PAX@Z 100424fc     mfc140:mfc140.dll
 0002:00000500       __imp_?CreateIndirect@CDialog@@UAEHPAXPAVCWnd@@@Z 10042500     mfc140:mfc140.dll
 0002:00000504       __imp_??0CDialog@@QAE@IPAVCWnd@@@Z 10042504     mfc140:mfc140.dll
 0002:00000508       __imp_?DoModal@CDialog@@UAEHXZ 10042508     mfc140:mfc140.dll
 0002:0000050c       __imp_?OnInitDialog@CDialog@@UAEHXZ 1004250c     mfc140:mfc140.dll
 0002:00000510       __imp_?OnSetFont@CDialog@@UAEXPAVCFont@@@Z 10042510     mfc140:mfc140.dll
 0002:00000514       __imp_?OnOK@CDialog@@MAEXXZ 10042514     mfc140:mfc140.dll
 0002:00000518       __imp_?OnCancel@CDialog@@MAEXXZ 10042518     mfc140:mfc140.dll
 0002:0000051c       __imp_??1CDialog@@UAE@XZ   1004251c     mfc140:mfc140.dll
 0002:00000520       __imp_?PreTranslateMessage@CDialog@@UAEHPAUtagMSG@@@Z 10042520     mfc140:mfc140.dll
 0002:00000524       __imp_?OnCmdMsg@CDialog@@UAEHIHPAXPAUAFX_CMDHANDLERINFO@@@Z 10042524     mfc140:mfc140.dll
 0002:00000528       __imp_?CheckAutoCenter@CDialog@@UAEHXZ 10042528     mfc140:mfc140.dll
 0002:0000052c       __imp_?SetOccDialogInfo@CDialog@@MAEHPAU_AFX_OCC_DIALOG_INFO@@@Z 1004252c     mfc140:mfc140.dll
 0002:00000530       __imp_?GetOccDialogInfo@CDialog@@MAEPAU_AFX_OCC_DIALOG_INFO@@XZ 10042530     mfc140:mfc140.dll
 0002:00000534       __imp_?PreInitDialog@CDialog@@MAEXXZ 10042534     mfc140:mfc140.dll
 0002:00000538       __imp_?GetThisMessageMap@CDialog@@KGPBUAFX_MSGMAP@@XZ 10042538     mfc140:mfc140.dll
 0002:0000053c       __imp_?Remove@?$CStringT@DV?$StrTraitMFC_DLL@DV?$ChTraitsCRT@D@ATL@@@@@ATL@@QAEHD@Z 1004253c     mfc140:mfc140.dll
 0002:00000540       __imp_?Right@?$CStringT@DV?$StrTraitMFC_DLL@DV?$ChTraitsCRT@D@ATL@@@@@ATL@@QBE?AV12@H@Z 10042540     mfc140:mfc140.dll
 0002:00000544       __imp_?DDX_Control@@YGXPAVCDataExchange@@HAAVCWnd@@@Z 10042544     mfc140:mfc140.dll
 0002:00000548       __imp_?GetDlgItemTextA@CWnd@@QBEHHAAV?$CStringT@DV?$StrTraitMFC_DLL@DV?$ChTraitsCRT@D@ATL@@@@@ATL@@@Z 10042548     mfc140:mfc140.dll
 0002:0000054c       __imp_?SetDlgItemTextA@CWnd@@QAEXHPBD@Z 1004254c     mfc140:mfc140.dll
 0002:00000550       __imp_?OnCtlColor@CWnd@@IAEPAUHBRUSH__@@PAVCDC@@PAV1@I@Z 10042550     mfc140:mfc140.dll
 0002:00000554       __imp_?GetRuntimeClass@CCommonDialog@@UBEPAUCRuntimeClass@@XZ 10042554     mfc140:mfc140.dll
 0002:00000558       __imp_?OnOK@CCommonDialog@@MAEXXZ 10042558     mfc140:mfc140.dll
 0002:0000055c       __imp_?ScaleViewportExt@CDC@@UAE?AVCSize@@HHHH@Z 1004255c     mfc140:mfc140.dll
 0002:00000560       __imp_?GetMessageMap@CCommonDialog@@MBEPBUAFX_MSGMAP@@XZ 10042560     mfc140:mfc140.dll
 0002:00000564       __imp_??0CColorDialog@@QAE@KKPAVCWnd@@@Z 10042564     mfc140:mfc140.dll
 0002:00000568       __imp_?DoModal@CColorDialog@@UAEHXZ 10042568     mfc140:mfc140.dll
 0002:0000056c       __imp_?DDX_Text@@YGXPAVCDataExchange@@HAAH@Z 1004256c     mfc140:mfc140.dll
 0002:00000570       __imp_?DDV_MinMaxInt@@YGXPAVCDataExchange@@HHH@Z 10042570     mfc140:mfc140.dll
 0002:00000574       __imp_?UpdateData@CWnd@@QAEHH@Z 10042574     mfc140:mfc140.dll
 0002:00000578       __imp_?GetThisClass@CObject@@SGPAUCRuntimeClass@@XZ 10042578     mfc140:mfc140.dll
 0002:0000057c       __imp_?AfxTryCleanup@@YGXXZ 1004257c     mfc140:mfc140.dll
 0002:00000580       __imp_??0AFX_EXCEPTION_LINK@@QAE@XZ 10042580     mfc140:mfc140.dll
 0002:00000584       __imp_?Draw3dRect@CDC@@QAEXHHHHKK@Z 10042584     mfc140:mfc140.dll
 0002:00000588       __imp_?CreateObject@CRuntimeClass@@QAEPAVCObject@@XZ 10042588     mfc140:mfc140.dll
 0002:0000058c       __imp_?IsDerivedFrom@CRuntimeClass@@QBEHPBU1@@Z 1004258c     mfc140:mfc140.dll
 0002:00000590       __imp_?AfxThrowOleException@@YGXJ@Z 10042590     mfc140:mfc140.dll
 0002:00000594       __imp_?IsKindOf@CObject@@QBEHPBUCRuntimeClass@@@Z 10042594     mfc140:mfc140.dll
 0002:00000598       __imp_??0CException@@QAE@XZ 10042598     mfc140:mfc140.dll
 0002:0000059c       __imp_?GetErrorMessage@CException@@UAEHPADIPAI@Z 1004259c     mfc140:mfc140.dll
 0002:000005a0       __imp_?ReportError@CException@@UAEHII@Z 100425a0     mfc140:mfc140.dll
 0002:000005a4       __imp_?GetBuffer@?$CSimpleStringT@D$00@ATL@@QAEPADH@Z 100425a4     mfc140:mfc140.dll
 0002:000005a8       __imp_?GetBufferSetLength@?$CSimpleStringT@D$00@ATL@@QAEPADH@Z 100425a8     mfc140:mfc140.dll
 0002:000005ac       __imp_?LockBuffer@?$CSimpleStringT@D$00@ATL@@QAEPADXZ 100425ac     mfc140:mfc140.dll
 0002:000005b0       __imp_?UnlockBuffer@?$CSimpleStringT@D$00@ATL@@QAEXXZ 100425b0     mfc140:mfc140.dll
 0002:000005b4       __imp_?ReleaseBuffer@?$CSimpleStringT@D$00@ATL@@QAEXH@Z 100425b4     mfc140:mfc140.dll
 0002:000005b8       __imp_?FindOneOf@?$CStringT@DV?$StrTraitMFC_DLL@DV?$ChTraitsCRT@D@ATL@@@@@ATL@@QBEHPBD@Z 100425b8     mfc140:mfc140.dll
 0002:000005bc       __imp_?TrimLeft@?$CStringT@DV?$StrTraitMFC_DLL@DV?$ChTraitsCRT@D@ATL@@@@@ATL@@QAEAAV12@XZ 100425bc     mfc140:mfc140.dll
 0002:000005c0       __imp_?FormatV@?$CStringT@DV?$StrTraitMFC_DLL@DV?$ChTraitsCRT@D@ATL@@@@@ATL@@QAEXPBDPAD@Z 100425c0     mfc140:mfc140.dll
 0002:000005c4       __imp_?LoadStringA@?$CStringT@DV?$StrTraitMFC_DLL@DV?$ChTraitsCRT@D@ATL@@@@@ATL@@QAEHI@Z 100425c4     mfc140:mfc140.dll
 0002:000005c8       __imp_?GetRuntimeClass@CFileException@@UBEPAUCRuntimeClass@@XZ 100425c8     mfc140:mfc140.dll
 0002:000005cc       __imp_?GetErrorMessage@CFileException@@UBEHPADIPAI@Z 100425cc     mfc140:mfc140.dll
 0002:000005d0       __imp_??0CStdioFile@@QAE@XZ 100425d0     mfc140:mfc140.dll
 0002:000005d4       __imp_?WriteString@CStdioFile@@UAEXPBD@Z 100425d4     mfc140:mfc140.dll
 0002:000005d8       __imp_?ReadString@CStdioFile@@UAEPADPADI@Z 100425d8     mfc140:mfc140.dll
 0002:000005dc       __imp_??1CStdioFile@@UAE@XZ 100425dc     mfc140:mfc140.dll
 0002:000005e0       __imp_?Open@CStdioFile@@UAEHPBDIPAVCFileException@@@Z 100425e0     mfc140:mfc140.dll
 0002:000005e4       __imp_?Close@CStdioFile@@UAEXXZ 100425e4     mfc140:mfc140.dll
 0002:000005e8       __imp_??0CMemFile@@QAE@PAEII@Z 100425e8     mfc140:mfc140.dll
 0002:000005ec       __imp_??1CMemFile@@UAE@XZ  100425ec     mfc140:mfc140.dll
 0002:000005f0       __imp_?Read@CMemFile@@UAEIPAXI@Z 100425f0     mfc140:mfc140.dll
 0002:000005f4       __imp_?Write@CMemFile@@UAEXPBXI@Z 100425f4     mfc140:mfc140.dll
 0002:000005f8       __imp_?GetLength@CMemFile@@UBE_KXZ 100425f8     mfc140:mfc140.dll
 0002:000005fc       __imp_?SetSize@CUIntArray@@QAEXHH@Z 100425fc     mfc140:mfc140.dll
 0002:00000600       __imp_?InsertAt@CUIntArray@@QAEXHIH@Z 10042600     mfc140:mfc140.dll
 0002:00000604       __imp_?GetRuntimeClass@CObArray@@UBEPAUCRuntimeClass@@XZ 10042604     mfc140:mfc140.dll
 0002:00000608       __imp_??0CObArray@@QAE@XZ  10042608     mfc140:mfc140.dll
 0002:0000060c       __imp_?SetSize@CObArray@@QAEXHH@Z 1004260c     mfc140:mfc140.dll
 0002:00000610       __imp_?SetAtGrow@CObArray@@QAEXHPAVCObject@@@Z 10042610     mfc140:mfc140.dll
 0002:00000614       __imp_?InsertAt@CObArray@@QAEXHPAVCObject@@H@Z 10042614     mfc140:mfc140.dll
 0002:00000618       __imp_?RemoveAt@CObArray@@QAEXHH@Z 10042618     mfc140:mfc140.dll
 0002:0000061c       __imp_??1CObArray@@UAE@XZ  1004261c     mfc140:mfc140.dll
 0002:00000620       __imp_?Serialize@CObArray@@UAEXAAVCArchive@@@Z 10042620     mfc140:mfc140.dll
 0002:00000624       __imp_?AfxGetThreadState@@YGPAV_AFX_THREAD_STATE@@XZ 10042624     mfc140:mfc140.dll
 0002:00000628       __imp_?AfxThrowResourceException@@YGXXZ 10042628     mfc140:mfc140.dll
 0002:0000062c       __imp_?Detach@CDC@@QAEPAUHDC__@@XZ 1004262c     mfc140:mfc140.dll
 0002:00000630       __imp_?OffsetWindowOrg@CDC@@QAE?AVCPoint@@HH@Z 10042630     mfc140:mfc140.dll
 0002:00000634       __imp_?Create@CImageList@@QAEHHHIHH@Z 10042634     mfc140:mfc140.dll
 0002:00000638       __imp_?BeginWaitCursor@CCmdTarget@@QAEXXZ 10042638     mfc140:mfc140.dll
 0002:0000063c       __imp_?EndWaitCursor@CCmdTarget@@QAEXXZ 1004263c     mfc140:mfc140.dll
 0002:00000640       __imp_?GetScrollPos@CWnd@@QBEHH@Z 10042640     mfc140:mfc140.dll
 0002:00000644       __imp_?EnableScrollBarCtrl@CWnd@@QAEXHH@Z 10042644     mfc140:mfc140.dll
 0002:00000648       __imp_?SetScrollInfo@CWnd@@QAEHHPAUtagSCROLLINFO@@H@Z 10042648     mfc140:mfc140.dll
 0002:0000064c       __imp_?GetScrollInfo@CWnd@@QAEHHPAUtagSCROLLINFO@@I@Z 1004264c     mfc140:mfc140.dll
 0002:00000650       __imp_?OnSettingChange@CWnd@@IAEXIPBD@Z 10042650     mfc140:mfc140.dll
 0002:00000654       __imp_?AfxRegisterClass@@YGHPAUtagWNDCLASSA@@@Z 10042654     mfc140:mfc140.dll
 0002:00000658       __imp_?GetThisClass@CEdit@@SGPAUCRuntimeClass@@XZ 10042658     mfc140:mfc140.dll
 0002:0000065c       __imp_??0CPrintDialog@@QAE@HKPAVCWnd@@@Z 1004265c     mfc140:mfc140.dll
 0002:00000660       __imp_?DoModal@CPrintDialog@@UAEHXZ 10042660     mfc140:mfc140.dll
 0002:00000664       __imp_??0CPrintInfo@@QAE@XZ 10042664     mfc140:mfc140.dll
 0002:00000668       __imp_??1CPrintInfo@@QAE@XZ 10042668     mfc140:mfc140.dll
 0002:0000066c       __imp_?AfxOleInit@@YGHXZ   1004266c     mfc140:mfc140.dll
 0002:00000670       __imp_??0COleDataObject@@QAE@XZ 10042670     mfc140:mfc140.dll
 0002:00000674       __imp_?Release@COleDataObject@@QAEXXZ 10042674     mfc140:mfc140.dll
 0002:00000678       __imp_?AttachClipboard@COleDataObject@@QAEHXZ 10042678     mfc140:mfc140.dll
 0002:0000067c       __imp_?GetGlobalData@COleDataObject@@QAEPAXGPAUtagFORMATETC@@@Z 1004267c     mfc140:mfc140.dll
 0002:00000680       __imp_?IsDataAvailable@COleDataObject@@QAEHGPAUtagFORMATETC@@@Z 10042680     mfc140:mfc140.dll
 0002:00000684       __imp_??0COleDataSource@@QAE@XZ 10042684     mfc140:mfc140.dll
 0002:00000688       __imp_?CacheGlobalData@COleDataSource@@QAEXGPAXPAUtagFORMATETC@@@Z 10042688     mfc140:mfc140.dll
 0002:0000068c       __imp_?DoDragDrop@COleDataSource@@QAEKKPBUtagRECT@@PAVCOleDropSource@@@Z 1004268c     mfc140:mfc140.dll
 0002:00000690       __imp_?SetClipboard@COleDataSource@@QAEXXZ 10042690     mfc140:mfc140.dll
 0002:00000694       __imp_?FlushClipboard@COleDataSource@@SGXXZ 10042694     mfc140:mfc140.dll
 0002:00000698       __imp_?GetClipboardOwner@COleDataSource@@SGPAV1@XZ 10042698     mfc140:mfc140.dll
 0002:0000069c       __imp_??0CSharedFile@@QAE@II@Z 1004269c     mfc140:mfc140.dll
 0002:000006a0       __imp_?Detach@CSharedFile@@QAEPAXXZ 100426a0     mfc140:mfc140.dll
 0002:000006a4       __imp_??1CSharedFile@@UAE@XZ 100426a4     mfc140:mfc140.dll
 0002:000006a8       __imp_?GetRuntimeClass@CCmdTarget@@UBEPAUCRuntimeClass@@XZ 100426a8     mfc140:mfc140.dll
 0002:000006ac       __imp_?OnFinalRelease@CCmdTarget@@UAEXXZ 100426ac     mfc140:mfc140.dll
 0002:000006b0       __imp_?GetThisMessageMap@CCmdTarget@@KGPBUAFX_MSGMAP@@XZ 100426b0     mfc140:mfc140.dll
 0002:000006b4       __imp_??0COleDropTarget@@QAE@XZ 100426b4     mfc140:mfc140.dll
 0002:000006b8       __imp_?Register@COleDropTarget@@QAEHPAVCWnd@@@Z 100426b8     mfc140:mfc140.dll
 0002:000006bc       __imp_?Revoke@COleDropTarget@@UAEXXZ 100426bc     mfc140:mfc140.dll
 0002:000006c0       __imp_?OnDropEx@COleDropTarget@@UAEKPAVCWnd@@PAVCOleDataObject@@KKVCPoint@@@Z 100426c0     mfc140:mfc140.dll
 0002:000006c4       __imp_??1COleDropTarget@@UAE@XZ 100426c4     mfc140:mfc140.dll
 0002:000006c8       __imp_?GetInterfaceMap@COleDropTarget@@MBEPBUAFX_INTERFACEMAP@@XZ 100426c8     mfc140:mfc140.dll
 0002:000006cc       __imp_??0CWindowDC@@QAE@PAVCWnd@@@Z 100426cc     mfc140:mfc140.dll
 0002:000006d0       __imp_??1CWindowDC@@UAE@XZ 100426d0     mfc140:mfc140.dll
 0002:000006d4       __imp_?TrimRight@?$CStringT@DV?$StrTraitMFC_DLL@DV?$ChTraitsCRT@D@ATL@@@@@ATL@@QAEAAV12@D@Z 100426d4     mfc140:mfc140.dll
 0002:000006d8       __imp_?AfxInitRichEdit@@YGHXZ 100426d8     mfc140:mfc140.dll
 0002:000006dc       __imp_??0CDynLinkLibrary@@QAE@AAUAFX_EXTENSION_MODULE@@H@Z 100426dc     mfc140:mfc140.dll
 0002:000006e0       __imp_?AfxInitExtensionModule@@YGHAAUAFX_EXTENSION_MODULE@@PAUHINSTANCE__@@@Z 100426e0     mfc140:mfc140.dll
 0002:000006e4       __imp_?AfxTermExtensionModule@@YGXAAUAFX_EXTENSION_MODULE@@H@Z 100426e4     mfc140:mfc140.dll
 0002:000006e8       __imp_?DeleteImageList@CImageList@@QAEHXZ 100426e8     mfc140:mfc140.dll
 0002:000006ec       __imp_?GetThisClass@CDialog@@SGPAUCRuntimeClass@@XZ 100426ec     mfc140:mfc140.dll
 0002:000006f0       __imp_?GetStatus@CFile@@SGHPBDAAUCFileStatus@@PAVCAtlTransactionManager@ATL@@@Z 100426f0     mfc140:mfc140.dll
 0002:000006f4       __imp_?Replace@?$CStringT@DV?$StrTraitMFC_DLL@DV?$ChTraitsCRT@D@ATL@@@@@ATL@@QAEHPBD0@Z 100426f4     mfc140:mfc140.dll
 0002:000006f8       __imp_??ACMapPtrToPtr@@QAEAAPAXPAX@Z 100426f8     mfc140:mfc140.dll
 0002:000006fc       __imp_?RemoveKey@CMapPtrToPtr@@QAEHPAX@Z 100426fc     mfc140:mfc140.dll
 0002:00000700       __imp_??2CNoTrackObject@@SGPAXI@Z 10042700     mfc140:mfc140.dll
 0002:00000704       __imp_??3CNoTrackObject@@SGXPAX@Z 10042704     mfc140:mfc140.dll
 0002:00000708       __imp_?GetData@CThreadLocalObject@@QAEPAVCNoTrackObject@@P6GPAV2@XZ@Z 10042708     mfc140:mfc140.dll
 0002:0000070c       __imp_??0AFX_MODULE_THREAD_STATE@@QAE@XZ 1004270c     mfc140:mfc140.dll
 0002:00000710       __imp_?AfxGetAppModuleState@@YGPAVAFX_MODULE_STATE@@XZ 10042710     mfc140:mfc140.dll
 0002:00000714       __imp_?AfxExtractSubString@@YGHAAV?$CStringT@DV?$StrTraitMFC_DLL@DV?$ChTraitsCRT@D@ATL@@@@@ATL@@PBDHD@Z 10042714     mfc140:mfc140.dll
 0002:00000718       __imp_?SetViewportExt@CDC@@UAE?AVCSize@@HH@Z 10042718     mfc140:mfc140.dll
 0002:0000071c       __imp_?OffsetViewportOrg@CDC@@UAE?AVCPoint@@HH@Z 1004271c     mfc140:mfc140.dll
 0002:00000720       __imp_?SetViewportOrg@CDC@@UAE?AVCPoint@@HH@Z 10042720     mfc140:mfc140.dll
 0002:00000724       __imp_?SetMapMode@CDC@@UAEHH@Z 10042724     mfc140:mfc140.dll
 0002:00000728       __imp_?SetBkColor@CDC@@UAEKK@Z 10042728     mfc140:mfc140.dll
 0002:0000072c       __imp_?SelectStockObject@CDC@@UAEPAVCGdiObject@@H@Z 1004272c     mfc140:mfc140.dll
 0002:00000730       __imp_?ReleaseOutputDC@CDC@@UAEXXZ 10042730     mfc140:mfc140.dll
 0002:00000734       __imp_?ReleaseAttribDC@CDC@@UAEXXZ 10042734     mfc140:mfc140.dll
 0002:00000738       __imp_?SetOutputDC@CDC@@UAEXPAUHDC__@@@Z 10042738     mfc140:mfc140.dll
 0002:0000073c       __imp_?SetAttribDC@CDC@@UAEXPAUHDC__@@@Z 1004273c     mfc140:mfc140.dll
 0002:00000740       __imp_?GetRuntimeClass@CDC@@UBEPAUCRuntimeClass@@XZ 10042740     mfc140:mfc140.dll
 0002:00000744       __imp_?FromHandle@CGdiObject@@SGPAV1@PAX@Z 10042744     mfc140:mfc140.dll
 0002:00000748       __imp_??1CEdit@@UAE@XZ     10042748     mfc140:mfc140.dll
 0002:0000074c       __imp_?GetRuntimeClass@CEdit@@UBEPAUCRuntimeClass@@XZ 1004274c     mfc140:mfc140.dll
 0002:00000750       __imp_?GetMessageMap@CWnd@@MBEPBUAFX_MSGMAP@@XZ 10042750     mfc140:mfc140.dll
 0002:00000754       __imp_?GetWindowTextA@CWnd@@QBEXAAV?$CStringT@DV?$StrTraitMFC_DLL@DV?$ChTraitsCRT@D@ATL@@@@@ATL@@@Z 10042754     mfc140:mfc140.dll
 0002:00000758       __imp_?SetWindowTextA@CWnd@@QAEXPBD@Z 10042758     mfc140:mfc140.dll
 0002:0000075c       __imp_?GetStyle@CWnd@@QBEKXZ 1004275c     mfc140:mfc140.dll
 0002:00000760       __imp_??0?$CStringT@DV?$StrTraitMFC_DLL@DV?$ChTraitsCRT@D@ATL@@@@@ATL@@QAE@DH@Z 10042760     mfc140:mfc140.dll
 0002:00000764       __imp_?InsertItem@CListCtrl@@QAEHIHPBDIIHJ@Z 10042764     mfc140:mfc140.dll
 0002:00000768       __imp_?InsertColumn@CListCtrl@@QAEHHPBDHHH@Z 10042768     mfc140:mfc140.dll
 0002:0000076c       __imp_?SetItemState@CListCtrl@@QAEHHII@Z 1004276c     mfc140:mfc140.dll
 0002:00000770       __imp_?SetItem@CListCtrl@@QAEHHHIPBDHIIJ@Z 10042770     mfc140:mfc140.dll
 0002:00000774       __imp_?Create@CListCtrl@@QAEHKABUtagRECT@@PAVCWnd@@I@Z 10042774     mfc140:mfc140.dll
 0002:00000778       __imp_?FromHandle@CImageList@@SGPAV1@PAU_IMAGELIST@@@Z 10042778     mfc140:mfc140.dll
 0002:0000077c       __imp_?FreeDataChain@CPlex@@QAEXXZ 1004277c     mfc140:mfc140.dll
 0002:00000780       __imp_?Create@CPlex@@SGPAU1@AAPAU1@II@Z 10042780     mfc140:mfc140.dll
 0002:00000784       __imp_?WriteCount@CArchive@@QAEXK@Z 10042784     mfc140:mfc140.dll
 0002:00000788       __imp_?ReadCount@CArchive@@QAEKXZ 10042788     mfc140:mfc140.dll
 0002:0000078c       __imp_?Write@CArchive@@QAEXPBXI@Z 1004278c     mfc140:mfc140.dll
 0002:00000790       __imp_?Read@CArchive@@QAEIPAXI@Z 10042790     mfc140:mfc140.dll
 0002:00000794       __imp_?Mid@?$CStringT@DV?$StrTraitMFC_DLL@DV?$ChTraitsCRT@D@ATL@@@@@ATL@@QBE?AV12@HH@Z 10042794     mfc140:mfc140.dll
 0002:00000798       __imp_?Mid@?$CStringT@DV?$StrTraitMFC_DLL@DV?$ChTraitsCRT@D@ATL@@@@@ATL@@QBE?AV12@H@Z 10042798     mfc140:mfc140.dll
 0002:0000079c       __imp_?MakeUpper@?$CStringT@DV?$StrTraitMFC_DLL@DV?$ChTraitsCRT@D@ATL@@@@@ATL@@QAEAAV12@XZ 1004279c     mfc140:mfc140.dll
 0002:000007a0       __imp_?ReverseFind@?$CStringT@DV?$StrTraitMFC_DLL@DV?$ChTraitsCRT@D@ATL@@@@@ATL@@QBEHD@Z 100427a0     mfc140:mfc140.dll
 0002:000007a4       __imp_?Find@?$CStringT@DV?$StrTraitMFC_DLL@DV?$ChTraitsCRT@D@ATL@@@@@ATL@@QBEHDH@Z 100427a4     mfc140:mfc140.dll
 0002:000007a8       __imp_?Delete@?$CStringT@DV?$StrTraitMFC_DLL@DV?$ChTraitsCRT@D@ATL@@@@@ATL@@QAEHHH@Z 100427a8     mfc140:mfc140.dll
 0002:000007ac       __imp_?GetManager@?$CStringT@DV?$StrTraitMFC_DLL@DV?$ChTraitsCRT@D@ATL@@@@@ATL@@QBEPAUIAtlStringMgr@2@XZ 100427ac     mfc140:mfc140.dll
 0002:000007b0       __imp_??0?$CStringT@DV?$StrTraitMFC_DLL@DV?$ChTraitsCRT@D@ATL@@@@@ATL@@QAE@PAUIAtlStringMgr@1@@Z 100427b0     mfc140:mfc140.dll
 0002:000007b4       __imp_?Concatenate@?$CSimpleStringT@D$00@ATL@@KAXAAV12@PBDH1H@Z 100427b4     mfc140:mfc140.dll
 0002:000007b8       __imp_?Empty@?$CSimpleStringT@D$00@ATL@@QAEXXZ 100427b8     mfc140:mfc140.dll
 0002:000007bc       __imp_?GetRuntimeClass@CObject@@UBEPAUCRuntimeClass@@XZ 100427bc     mfc140:mfc140.dll
 0002:000007c0       __imp_?AfxThrowArchiveException@@YGXHPBD@Z 100427c0     mfc140:mfc140.dll
 0002:000007c4       __imp_?GetMessageMap@CTreeCtrl@@MBEPBUAFX_MSGMAP@@XZ 100427c4     mfc140:mfc140.dll
 0002:000007c8       __imp_?GetThisMessageMap@CTreeCtrl@@KGPBUAFX_MSGMAP@@XZ 100427c8     mfc140:mfc140.dll
 0002:000007cc       __imp_?OnDestroy@CTreeCtrl@@QAEXXZ 100427cc     mfc140:mfc140.dll
 0002:000007d0       __imp_??1CTreeCtrl@@UAE@XZ 100427d0     mfc140:mfc140.dll
 0002:000007d4       __imp_?HitTest@CTreeCtrl@@QBEPAU_TREEITEM@@VCPoint@@PAI@Z 100427d4     mfc140:mfc140.dll
 0002:000007d8       __imp_?InsertItem@CTreeCtrl@@QAEPAU_TREEITEM@@IPBDHHIIJPAU2@1@Z 100427d8     mfc140:mfc140.dll
 0002:000007dc       __imp_?ItemHasChildren@CTreeCtrl@@QBEHPAU_TREEITEM@@@Z 100427dc     mfc140:mfc140.dll
 0002:000007e0       __imp_?SetItem@CTreeCtrl@@QAEHPAU_TREEITEM@@IPBDHHIIJ@Z 100427e0     mfc140:mfc140.dll
 0002:000007e4       __imp_?GetItemData@CTreeCtrl@@QBEKPAU_TREEITEM@@@Z 100427e4     mfc140:mfc140.dll
 0002:000007e8       __imp_?GetItemText@CTreeCtrl@@QBE?AV?$CStringT@DV?$StrTraitMFC_DLL@DV?$ChTraitsCRT@D@ATL@@@@@ATL@@PAU_TREEITEM@@@Z 100427e8     mfc140:mfc140.dll
 0002:000007ec       __imp_?Create@CTreeCtrl@@QAEHKABUtagRECT@@PAVCWnd@@I@Z 100427ec     mfc140:mfc140.dll
 0002:000007f0       __imp_?GetRuntimeClass@CTreeCtrl@@UBEPAUCRuntimeClass@@XZ 100427f0     mfc140:mfc140.dll
 0002:000007f4       __imp_?ModifyStyleEx@CWnd@@QAEHKKI@Z 100427f4     mfc140:mfc140.dll
 0002:000007f8       __imp_??1CStringArray@@UAE@XZ 100427f8     mfc140:mfc140.dll
 0002:000007fc       __imp_?SetAtGrow@CStringArray@@QAEXHABV?$CStringT@DV?$StrTraitMFC_DLL@DV?$ChTraitsCRT@D@ATL@@@@@ATL@@@Z 100427fc     mfc140:mfc140.dll
 0002:00000800       __imp_?SetSize@CStringArray@@QAEXHH@Z 10042800     mfc140:mfc140.dll
 0002:00000804       __imp_??0CStringArray@@QAE@XZ 10042804     mfc140:mfc140.dll
 0002:00000808       __imp_?FindNextFileA@CFileFind@@UAEHXZ 10042808     mfc140:mfc140.dll
 0002:0000080c       __imp_?FindFile@CFileFind@@UAEHPBDK@Z 1004280c     mfc140:mfc140.dll
 0002:00000810       __imp_?IsDots@CFileFind@@UBEHXZ 10042810     mfc140:mfc140.dll
 0002:00000814       __imp_?GetFileName@CFileFind@@UBE?AV?$CStringT@DV?$StrTraitMFC_DLL@DV?$ChTraitsCRT@D@ATL@@@@@ATL@@XZ 10042814     mfc140:mfc140.dll
 0002:00000818       __imp_??1CFileFind@@UAE@XZ 10042818     mfc140:mfc140.dll
 0002:0000081c       __imp_??0CFileFind@@QAE@XZ 1004281c     mfc140:mfc140.dll
 0002:00000820       __imp_?Left@?$CStringT@DV?$StrTraitMFC_DLL@DV?$ChTraitsCRT@D@ATL@@@@@ATL@@QBE?AV12@H@Z 10042820     mfc140:mfc140.dll
 0002:00000824       __imp_?Find@?$CStringT@DV?$StrTraitMFC_DLL@DV?$ChTraitsCRT@D@ATL@@@@@ATL@@QBEHPBDH@Z 10042824     mfc140:mfc140.dll
 0002:00000828       __imp_?CompareNoCase@?$CStringT@DV?$StrTraitMFC_DLL@DV?$ChTraitsCRT@D@ATL@@@@@ATL@@QBEHPBD@Z 10042828     mfc140:mfc140.dll
 0002:0000082c       __imp_??Y?$CStringT@DV?$StrTraitMFC_DLL@DV?$ChTraitsCRT@D@ATL@@@@@ATL@@QAEAAV01@PBD@Z 1004282c     mfc140:mfc140.dll
 0002:00000830       __imp_??A?$CSimpleStringT@D$00@ATL@@QBEDH@Z 10042830     mfc140:mfc140.dll
 0002:00000834       __imp_?GetMessageMap@CListCtrl@@MBEPBUAFX_MSGMAP@@XZ 10042834     mfc140:mfc140.dll
 0002:00000838       __imp_?GetThisMessageMap@CListCtrl@@KGPBUAFX_MSGMAP@@XZ 10042838     mfc140:mfc140.dll
 0002:0000083c       __imp_?OnChildNotify@CListCtrl@@MAEHIIJPAJ@Z 1004283c     mfc140:mfc140.dll
 0002:00000840       __imp_??1CListCtrl@@UAE@XZ 10042840     mfc140:mfc140.dll
 0002:00000844       __imp_?DrawItem@CListCtrl@@UAEXPAUtagDRAWITEMSTRUCT@@@Z 10042844     mfc140:mfc140.dll
 0002:00000848       __imp_?GetItemData@CListCtrl@@QBEKH@Z 10042848     mfc140:mfc140.dll
 0002:0000084c       __imp_?GetItemText@CListCtrl@@QBE?AV?$CStringT@DV?$StrTraitMFC_DLL@DV?$ChTraitsCRT@D@ATL@@@@@ATL@@HH@Z 1004284c     mfc140:mfc140.dll
 0002:00000850       __imp_?GetRuntimeClass@CListCtrl@@UBEPAUCRuntimeClass@@XZ 10042850     mfc140:mfc140.dll
 0002:00000854       __imp_?GetThisClass@CListCtrl@@SGPAUCRuntimeClass@@XZ 10042854     mfc140:mfc140.dll
 0002:00000858       __imp_?MeasureItem@CMenu@@UAEXPAUtagMEASUREITEMSTRUCT@@@Z 10042858     mfc140:mfc140.dll
 0002:0000085c       __imp_?DrawItem@CMenu@@UAEXPAUtagDRAWITEMSTRUCT@@@Z 1004285c     mfc140:mfc140.dll
 0002:00000860       __imp_?TrackPopupMenu@CMenu@@QAEHIHHPAVCWnd@@PBUtagRECT@@@Z 10042860     mfc140:mfc140.dll
 0002:00000864       __imp_?Attach@CMenu@@QAEHPAUHMENU__@@@Z 10042864     mfc140:mfc140.dll
 0002:00000868       __imp_?DestroyMenu@CMenu@@QAEHXZ 10042868     mfc140:mfc140.dll
 0002:0000086c       __imp_?GetRuntimeClass@CMenu@@UBEPAUCRuntimeClass@@XZ 1004286c     mfc140:mfc140.dll
 0002:00000870       __imp_??1CDWordArray@@UAE@XZ 10042870     mfc140:mfc140.dll
 0002:00000874       __imp_?SetSize@CDWordArray@@QAEXHH@Z 10042874     mfc140:mfc140.dll
 0002:00000878       __imp_??0CDWordArray@@QAE@XZ 10042878     mfc140:mfc140.dll
 0002:0000087c       __imp_?Compare@?$CStringT@DV?$StrTraitMFC_DLL@DV?$ChTraitsCRT@D@ATL@@@@@ATL@@QBEHPBD@Z 1004287c     mfc140:mfc140.dll
 0002:00000880       __imp_??4?$CStringT@DV?$StrTraitMFC_DLL@DV?$ChTraitsCRT@D@ATL@@@@@ATL@@QAEAAV01@ABV01@@Z 10042880     mfc140:mfc140.dll
 0002:00000884       __imp_?AfxUnlockTempMaps@@YGHH@Z 10042884     mfc140:mfc140.dll
 0002:00000888       __imp_?AfxLockTempMaps@@YGXXZ 10042888     mfc140:mfc140.dll
 0002:0000088c       __imp_?GetThisMessageMap@CWnd@@KGPBUAFX_MSGMAP@@XZ 1004288c     mfc140:mfc140.dll
 0002:00000890       __imp_?GetOccDialogInfo@CWnd@@MAEPAU_AFX_OCC_DIALOG_INFO@@XZ 10042890     mfc140:mfc140.dll
 0002:00000894       __imp_?SetOccDialogInfo@CWnd@@MAEHPAU_AFX_OCC_DIALOG_INFO@@@Z 10042894     mfc140:mfc140.dll
 0002:00000898       __imp_?CreateControlSite@CWnd@@MAEHPAVCOleControlContainer@@PAPAVCOleControlSite@@IABU_GUID@@@Z 10042898     mfc140:mfc140.dll
 0002:0000089c       __imp_?CreateControlContainer@CWnd@@MAEHPAPAVCOleControlContainer@@@Z 1004289c     mfc140:mfc140.dll
 0002:000008a0       __imp_?OnFinalRelease@CWnd@@UAEXXZ 100428a0     mfc140:mfc140.dll
 0002:000008a4       __imp_?IsFrameWnd@CWnd@@UBEHXZ 100428a4     mfc140:mfc140.dll
 0002:000008a8       __imp_?CheckAutoCenter@CWnd@@UAEHXZ 100428a8     mfc140:mfc140.dll
 0002:000008ac       __imp_??1CWnd@@UAE@XZ      100428ac     mfc140:mfc140.dll
 0002:000008b0       __imp_?ResizeDynamicLayout@CWnd@@MAEXXZ 100428b0     mfc140:mfc140.dll
 0002:000008b4       __imp_?OnGesturePressAndTap@CWnd@@MAEHVCPoint@@J@Z 100428b4     mfc140:mfc140.dll
 0002:000008b8       __imp_?OnGestureTwoFingerTap@CWnd@@MAEHVCPoint@@@Z 100428b8     mfc140:mfc140.dll
 0002:000008bc       __imp_?OnGestureRotate@CWnd@@MAEHVCPoint@@N@Z 100428bc     mfc140:mfc140.dll
 0002:000008c0       __imp_?OnGesturePan@CWnd@@MAEHVCPoint@@0@Z 100428c0     mfc140:mfc140.dll
 0002:000008c4       __imp_?OnGestureZoom@CWnd@@MAEHVCPoint@@J@Z 100428c4     mfc140:mfc140.dll
 0002:000008c8       __imp_?GetGestureStatus@CWnd@@MAEKVCPoint@@@Z 100428c8     mfc140:mfc140.dll
 0002:000008cc       __imp_?OnTouchInput@CWnd@@MAEHVCPoint@@HHPAUtagTOUCHINPUT@@@Z 100428cc     mfc140:mfc140.dll
 0002:000008d0       __imp_?OnTouchInputs@CWnd@@MAEHIPAUtagTOUCHINPUT@@@Z 100428d0     mfc140:mfc140.dll
 0002:000008d4       __imp_?OnChildNotify@CWnd@@MAEHIIJPAJ@Z 100428d4     mfc140:mfc140.dll
 0002:000008d8       __imp_?PostNcDestroy@CWnd@@MAEXXZ 100428d8     mfc140:mfc140.dll
 0002:000008dc       __imp_?DefWindowProcA@CWnd@@MAEJIIJ@Z 100428dc     mfc140:mfc140.dll
 0002:000008e0       __imp_?Default@CWnd@@IAEJXZ 100428e0     mfc140:mfc140.dll
 0002:000008e4       __imp_?OnWndMsg@CWnd@@MAEHIIJPAJ@Z 100428e4     mfc140:mfc140.dll
 0002:000008e8       __imp_?WindowProc@CWnd@@MAEJIIJ@Z 100428e8     mfc140:mfc140.dll
 0002:000008ec       __imp_?OnAmbientProperty@CWnd@@UAEHPAVCOleControlSite@@JPAUtagVARIANT@@@Z 100428ec     mfc140:mfc140.dll
 0002:000008f0       __imp_?PreTranslateMessage@CWnd@@UAEHPAUtagMSG@@@Z 100428f0     mfc140:mfc140.dll
 0002:000008f4       __imp_?GetSuperWndProcAddr@CWnd@@MAEPAP6GJPAUHWND__@@IIJ@ZXZ 100428f4     mfc140:mfc140.dll
 0002:000008f8       __imp_?OnDestroy@CWnd@@IAEXXZ 100428f8     mfc140:mfc140.dll
 0002:000008fc       __imp_?OnNotify@CWnd@@MAEHIJPAJ@Z 100428fc     mfc140:mfc140.dll
 0002:00000900       __imp_?OnCommand@CWnd@@MAEHIJ@Z 10042900     mfc140:mfc140.dll
 0002:00000904       __imp_?CreateAccessibleProxy@CWnd@@UAEJIJPAJ@Z 10042904     mfc140:mfc140.dll
 0002:00000908       __imp_?SetProxy@CWnd@@UAEJPAUIAccessibleProxy@@@Z 10042908     mfc140:mfc140.dll
 0002:0000090c       __imp_?put_accValue@CWnd@@UAEJUtagVARIANT@@PA_W@Z 1004290c     mfc140:mfc140.dll
 0002:00000910       __imp_?put_accName@CWnd@@UAEJUtagVARIANT@@PA_W@Z 10042910     mfc140:mfc140.dll
 0002:00000914       __imp_?accDoDefaultAction@CWnd@@UAEJUtagVARIANT@@@Z 10042914     mfc140:mfc140.dll
 0002:00000918       __imp_?accHitTest@CWnd@@UAEJJJPAUtagVARIANT@@@Z 10042918     mfc140:mfc140.dll
 0002:0000091c       __imp_?accNavigate@CWnd@@UAEJJUtagVARIANT@@PAU2@@Z 1004291c     mfc140:mfc140.dll
 0002:00000920       __imp_?accLocation@CWnd@@UAEJPAJ000UtagVARIANT@@@Z 10042920     mfc140:mfc140.dll
 0002:00000924       __imp_?accSelect@CWnd@@UAEJJUtagVARIANT@@@Z 10042924     mfc140:mfc140.dll
 0002:00000928       __imp_?get_accDefaultAction@CWnd@@UAEJUtagVARIANT@@PAPA_W@Z 10042928     mfc140:mfc140.dll
 0002:0000092c       __imp_?get_accSelection@CWnd@@UAEJPAUtagVARIANT@@@Z 1004292c     mfc140:mfc140.dll
 0002:00000930       __imp_?get_accFocus@CWnd@@UAEJPAUtagVARIANT@@@Z 10042930     mfc140:mfc140.dll
 0002:00000934       __imp_?get_accKeyboardShortcut@CWnd@@UAEJUtagVARIANT@@PAPA_W@Z 10042934     mfc140:mfc140.dll
 0002:00000938       __imp_?get_accHelpTopic@CWnd@@UAEJPAPA_WUtagVARIANT@@PAJ@Z 10042938     mfc140:mfc140.dll
 0002:0000093c       __imp_?get_accHelp@CWnd@@UAEJUtagVARIANT@@PAPA_W@Z 1004293c     mfc140:mfc140.dll
 0002:00000940       __imp_?get_accState@CWnd@@UAEJUtagVARIANT@@PAU2@@Z 10042940     mfc140:mfc140.dll
 0002:00000944       __imp_?get_accRole@CWnd@@UAEJUtagVARIANT@@PAU2@@Z 10042944     mfc140:mfc140.dll
 0002:00000948       __imp_?get_accDescription@CWnd@@UAEJUtagVARIANT@@PAPA_W@Z 10042948     mfc140:mfc140.dll
 0002:0000094c       __imp_?get_accValue@CWnd@@UAEJUtagVARIANT@@PAPA_W@Z 1004294c     mfc140:mfc140.dll
 0002:00000950       __imp_?get_accName@CWnd@@UAEJUtagVARIANT@@PAPA_W@Z 10042950     mfc140:mfc140.dll
 0002:00000954       __imp_?get_accChild@CWnd@@UAEJUtagVARIANT@@PAPAUIDispatch@@@Z 10042954     mfc140:mfc140.dll
 0002:00000958       __imp_?get_accChildCount@CWnd@@UAEJPAJ@Z 10042958     mfc140:mfc140.dll
 0002:0000095c       __imp_?get_accParent@CWnd@@UAEJPAPAUIDispatch@@@Z 1004295c     mfc140:mfc140.dll
 0002:00000960       __imp_?EnsureStdObj@CWnd@@UAEJXZ 10042960     mfc140:mfc140.dll
 0002:00000964       __imp_?GetInterfaceMap@CWnd@@MBEPBUAFX_INTERFACEMAP@@XZ 10042964     mfc140:mfc140.dll
 0002:00000968       __imp_?OnDrawIconicThumbnailOrLivePreview@CWnd@@UAEXAAVCDC@@VCRect@@VCSize@@HAAH@Z 10042968     mfc140:mfc140.dll
 0002:0000096c       __imp_?EndModalLoop@CWnd@@UAEXH@Z 1004296c     mfc140:mfc140.dll
 0002:00000970       __imp_?ContinueModal@CWnd@@UAEHXZ 10042970     mfc140:mfc140.dll
 0002:00000974       __imp_?WinHelpInternal@CWnd@@UAEXKI@Z 10042974     mfc140:mfc140.dll
 0002:00000978       __imp_?HtmlHelpA@CWnd@@UAEXKI@Z 10042978     mfc140:mfc140.dll
 0002:0000097c       __imp_?WinHelpA@CWnd@@UAEXKI@Z 1004297c     mfc140:mfc140.dll
 0002:00000980       __imp_?GetScrollBarCtrl@CWnd@@UBEPAVCScrollBar@@H@Z 10042980     mfc140:mfc140.dll
 0002:00000984       __imp_?SetFocus@CWnd@@QAEPAV1@XZ 10042984     mfc140:mfc140.dll
 0002:00000988       __imp_?OnToolHitTest@CWnd@@UBEHVCPoint@@PAUtagTOOLINFOA@@@Z 10042988     mfc140:mfc140.dll
 0002:0000098c       __imp_?ShowWindow@CWnd@@QAEHH@Z 1004298c     mfc140:mfc140.dll
 0002:00000990       __imp_?SetWindowPos@CWnd@@QAEHPBV1@HHHHI@Z 10042990     mfc140:mfc140.dll
 0002:00000994       __imp_?MoveWindow@CWnd@@QAEXHHHHH@Z 10042994     mfc140:mfc140.dll
 0002:00000998       __imp_?SetMenu@CWnd@@UAEHPAVCMenu@@@Z 10042998     mfc140:mfc140.dll
 0002:0000099c       __imp_?GetMenu@CWnd@@UBEPAVCMenu@@XZ 1004299c     mfc140:mfc140.dll
 0002:000009a0       __imp_?CalcWindowRect@CWnd@@UAEXPAUtagRECT@@I@Z 100429a0     mfc140:mfc140.dll
 0002:000009a4       __imp_?PreCreateWindow@CWnd@@UAEHAAUtagCREATESTRUCTA@@@Z 100429a4     mfc140:mfc140.dll
 0002:000009a8       __imp_?DestroyWindow@CWnd@@UAEHXZ 100429a8     mfc140:mfc140.dll
 0002:000009ac       __imp_?CreateEx@CWnd@@UAEHKPBD0KABUtagRECT@@PAV1@IPAX@Z 100429ac     mfc140:mfc140.dll
 0002:000009b0       __imp_?CreateEx@CWnd@@UAEHKPBD0KHHHHPAUHWND__@@PAUHMENU__@@PAX@Z 100429b0     mfc140:mfc140.dll
 0002:000009b4       __imp_?Create@CWnd@@UAEHPBD0KABUtagRECT@@PAV1@IPAUCCreateContext@@@Z 100429b4     mfc140:mfc140.dll
 0002:000009b8       __imp_?PreSubclassWindow@CWnd@@UAEXXZ 100429b8     mfc140:mfc140.dll
 0002:000009bc       __imp_?FromHandle@CWnd@@SGPAV1@PAUHWND__@@@Z 100429bc     mfc140:mfc140.dll
 0002:000009c0       __imp_??0CWnd@@QAE@XZ      100429c0     mfc140:mfc140.dll
 0002:000009c4       __imp_?GetThisClass@CWnd@@SGPAUCRuntimeClass@@XZ 100429c4     mfc140:mfc140.dll
 0002:000009c8       __imp_?GetConnectionHook@CCmdTarget@@MAEPAUIConnectionPoint@@ABU_GUID@@@Z 100429c8     mfc140:mfc140.dll
 0002:000009cc       __imp_?GetExtraConnectionPoints@CCmdTarget@@MAEHPAVCPtrArray@@@Z 100429cc     mfc140:mfc140.dll
 0002:000009d0       __imp_?GetInterfaceHook@CCmdTarget@@UAEPAUIUnknown@@PBX@Z 100429d0     mfc140:mfc140.dll
 0002:000009d4       __imp_?OnCreateAggregates@CCmdTarget@@UAEHXZ 100429d4     mfc140:mfc140.dll
 0002:000009d8       __imp_?GetEventSinkMap@CCmdTarget@@MBEPBUAFX_EVENTSINKMAP@@XZ 100429d8     mfc140:mfc140.dll
 0002:000009dc       __imp_?GetConnectionMap@CCmdTarget@@MBEPBUAFX_CONNECTIONMAP@@XZ 100429dc     mfc140:mfc140.dll
 0002:000009e0       __imp_?GetDispatchMap@CCmdTarget@@MBEPBUAFX_DISPMAP@@XZ 100429e0     mfc140:mfc140.dll
 0002:000009e4       __imp_?GetCommandMap@CCmdTarget@@MBEPBUAFX_OLECMDMAP@@XZ 100429e4     mfc140:mfc140.dll
 0002:000009e8       __imp_?GetTypeLib@CCmdTarget@@UAEJKPAPAUITypeLib@@@Z 100429e8     mfc140:mfc140.dll
 0002:000009ec       __imp_?GetTypeLibCache@CCmdTarget@@UAEPAVCTypeLibCache@@XZ 100429ec     mfc140:mfc140.dll
 0002:000009f0       __imp_?GetTypeInfoCount@CCmdTarget@@UAEIXZ 100429f0     mfc140:mfc140.dll
 0002:000009f4       __imp_?GetDispatchIID@CCmdTarget@@UAEHPAU_GUID@@@Z 100429f4     mfc140:mfc140.dll
 0002:000009f8       __imp_?IsInvokeAllowed@CCmdTarget@@UAEHJ@Z 100429f8     mfc140:mfc140.dll
 0002:000009fc       __imp_?OnCmdMsg@CCmdTarget@@UAEHIHPAXPAUAFX_CMDHANDLERINFO@@@Z 100429fc     mfc140:mfc140.dll
 0002:00000a00       __imp_??1CClientDC@@UAE@XZ 10042a00     mfc140:mfc140.dll
 0002:00000a04       __imp_??0CClientDC@@QAE@PAVCWnd@@@Z 10042a04     mfc140:mfc140.dll
 0002:00000a08       __imp_??1CPaintDC@@UAE@XZ  10042a08     mfc140:mfc140.dll
 0002:00000a0c       __imp_??0CPaintDC@@QAE@PAVCWnd@@@Z 10042a0c     mfc140:mfc140.dll
 0002:00000a10       __imp_?SelectGdiObject@CDC@@KGPAVCGdiObject@@PAUHDC__@@PAX@Z 10042a10     mfc140:mfc140.dll
 0002:00000a14       __imp_??1CDC@@UAE@XZ       10042a14     mfc140:mfc140.dll
 0002:00000a18       __imp_?Draw3dRect@CDC@@QAEXPBUtagRECT@@KK@Z 10042a18     mfc140:mfc140.dll
 0002:00000a1c       __imp_?FillSolidRect@CDC@@QAEXPBUtagRECT@@K@Z 10042a1c     mfc140:mfc140.dll
 0002:00000a20       __imp_?LineTo@CDC@@QAEHHH@Z 10042a20     mfc140:mfc140.dll
 0002:00000a24       __imp_?MoveTo@CDC@@QAE?AVCPoint@@HH@Z 10042a24     mfc140:mfc140.dll
 0002:00000a28       __imp_?ExcludeClipRect@CDC@@QAEHPBUtagRECT@@@Z 10042a28     mfc140:mfc140.dll
 0002:00000a2c       __imp_?SelectClipRgn@CDC@@QAEHPAVCRgn@@@Z 10042a2c     mfc140:mfc140.dll
 0002:00000a30       __imp_?SetTextColor@CDC@@UAEKK@Z 10042a30     mfc140:mfc140.dll
 0002:00000a34       __imp_?SetBkMode@CDC@@QAEHH@Z 10042a34     mfc140:mfc140.dll
 0002:00000a38       __imp_?SelectObject@CDC@@UAEPAVCFont@@PAV2@@Z 10042a38     mfc140:mfc140.dll
 0002:00000a3c       __imp_?SelectObject@CDC@@QAEPAVCPen@@PAV2@@Z 10042a3c     mfc140:mfc140.dll
 0002:00000a40       __imp_?RestoreDC@CDC@@UAEHH@Z 10042a40     mfc140:mfc140.dll
 0002:00000a44       __imp_?SaveDC@CDC@@UAEHXZ  10042a44     mfc140:mfc140.dll
 0002:00000a48       __imp_??0CDC@@QAE@XZ       10042a48     mfc140:mfc140.dll
 0002:00000a4c       __imp_?Attach@CDC@@QAEHPAUHDC__@@@Z 10042a4c     mfc140:mfc140.dll
 0002:00000a50       __imp_?GetRuntimeClass@CRgn@@UBEPAUCRuntimeClass@@XZ 10042a50     mfc140:mfc140.dll
 0002:00000a54       __imp_?GetRuntimeClass@CBitmap@@UBEPAUCRuntimeClass@@XZ 10042a54     mfc140:mfc140.dll
 0002:00000a58       __imp_?GetRuntimeClass@CFont@@UBEPAUCRuntimeClass@@XZ 10042a58     mfc140:mfc140.dll
 0002:00000a5c       __imp_??0CPen@@QAE@HHK@Z   10042a5c     mfc140:mfc140.dll
 0002:00000a60       __imp_?GetRuntimeClass@CPen@@UBEPAUCRuntimeClass@@XZ 10042a60     mfc140:mfc140.dll
 0002:00000a64       __imp_?DeleteObject@CGdiObject@@QAEHXZ 10042a64     mfc140:mfc140.dll
 0002:00000a68       __imp_?Attach@CGdiObject@@QAEHPAX@Z 10042a68     mfc140:mfc140.dll
 0002:00000a6c       __imp_?GetRuntimeClass@CGdiObject@@UBEPAUCRuntimeClass@@XZ 10042a6c     mfc140:mfc140.dll
 0002:00000a70       __imp_??1CPtrArray@@UAE@XZ 10042a70     mfc140:mfc140.dll
 0002:00000a74       __imp_?RemoveAt@CPtrArray@@QAEXHH@Z 10042a74     mfc140:mfc140.dll
 0002:00000a78       __imp_?InsertAt@CPtrArray@@QAEXHPAXH@Z 10042a78     mfc140:mfc140.dll
 0002:00000a7c       __imp_?SetAtGrow@CPtrArray@@QAEXHPAX@Z 10042a7c     mfc140:mfc140.dll
 0002:00000a80       __imp_?SetSize@CPtrArray@@QAEXHH@Z 10042a80     mfc140:mfc140.dll
 0002:00000a84       __imp_??0CPtrArray@@QAE@XZ 10042a84     mfc140:mfc140.dll
 0002:00000a88       __imp_?AfxThrowInvalidArgException@@YGXXZ 10042a88     mfc140:mfc140.dll
 0002:00000a8c       __imp_??_V@YAXPAX@Z        10042a8c     mfc140:mfc140.dll
 0002:00000a90       __imp_??_U@YAPAXI@Z        10042a90     mfc140:mfc140.dll
 0002:00000a94       __imp_??2@YAPAXI@Z         10042a94     mfc140:mfc140.dll
 0002:00000a98       __imp_??3@YAXPAX@Z         10042a98     mfc140:mfc140.dll
 0002:00000a9c       __imp_?AfxMessageBox@@YGHPBDII@Z 10042a9c     mfc140:mfc140.dll
 0002:00000aa0       __imp_?Format@?$CStringT@DV?$StrTraitMFC_DLL@DV?$ChTraitsCRT@D@ATL@@@@@ATL@@QAAXPBDZZ 10042aa0     mfc140:mfc140.dll
 0002:00000aa4       __imp_??4?$CStringT@DV?$StrTraitMFC_DLL@DV?$ChTraitsCRT@D@ATL@@@@@ATL@@QAEAAV01@PBD@Z 10042aa4     mfc140:mfc140.dll
 0002:00000aa8       __imp_??1?$CStringT@DV?$StrTraitMFC_DLL@DV?$ChTraitsCRT@D@ATL@@@@@ATL@@QAE@XZ 10042aa8     mfc140:mfc140.dll
 0002:00000aac       __imp_??0?$CStringT@DV?$StrTraitMFC_DLL@DV?$ChTraitsCRT@D@ATL@@@@@ATL@@QAE@PBD@Z 10042aac     mfc140:mfc140.dll
 0002:00000ab0       __imp_??0?$CStringT@DV?$StrTraitMFC_DLL@DV?$ChTraitsCRT@D@ATL@@@@@ATL@@QAE@ABV01@@Z 10042ab0     mfc140:mfc140.dll
 0002:00000ab4       __imp_?OnCancel@CCommonDialog@@MAEXXZ 10042ab4     mfc140:mfc140.dll
 0002:00000ab8       __imp_??0?$CStringT@DV?$StrTraitMFC_DLL@DV?$ChTraitsCRT@D@ATL@@@@@ATL@@QAE@XZ 10042ab8     mfc140:mfc140.dll
 0002:00000abc       \177mfc140_NULL_THUNK_DATA 10042abc     mfc140:mfc140.dll
 0002:00000ac0       ___guard_check_icall_fptr  10042ac0     msvcrt:guard_support.obj
 0002:00000ac4       ___guard_xfg_check_icall_fptr 10042ac4     msvcrt:guard_support.obj
 0002:00000ac8       ___xc_a                    10042ac8     msvcrt:initializers.obj
 0002:00000c84       ___xc_z                    10042c84     msvcrt:initializers.obj
 0002:00000c88       ___xi_a                    10042c88     msvcrt:initializers.obj
 0002:00000c90       ___xi_z                    10042c90     msvcrt:initializers.obj
 0002:00000c94       ___xl_a                    10042c94     msvcrt:tlssup.obj
 0002:00000c98       ___xl_z                    10042c98     msvcrt:tlssup.obj
 0002:00000c9c       ___xp_a                    10042c9c     msvcrt:initializers.obj
 0002:00000ca0       ___xp_z                    10042ca0     msvcrt:initializers.obj
 0002:00000ca4       ___xt_a                    10042ca4     msvcrt:initializers.obj
 0002:00000ca8       ___xt_z                    10042ca8     msvcrt:initializers.obj
 0002:00000cb4       ??_7CDllSTLoader@@6B@      10042cb4     DllSTLoader.obj
 0002:00000cb8       ??_C@_0BO@KOBAMCF@?$CFs?$MA?$LL?5Load?G?R?5?$LM?v?5?$LO?x?$LN?$MA?$LE?O?$LE?Y?4?$CI?$CFld?$CJ@ 10042cb8     DllSTLoader.obj
 0002:00000cd8       ??_C@_0M@BCNLAOEG@fnGetInputs@ 10042cd8     DllSTLoader.obj
 0002:00000ce4       ??_C@_0CL@EIFKDBLI@?$CFs?$LP?$KB?$LM?$KN?5fnGetInputs?G?T?$LM?v?$LI?$KG?5?C?$KD?$MA?$LL?5?$LM@ 10042ce4     DllSTLoader.obj
 0002:00000d10       ??_C@_08CJNMDFGE@fnLoadST@ 10042d10     DllSTLoader.obj
 0002:00000d1c       ??_C@_0CI@EINJOEOM@?$CFs?$LP?$KB?$LM?$KN?5fnLoadST?G?T?$LM?v?$LI?$KG?5?C?$KD?$MA?$LL?5?$LM?v?5?$LO@ 10042d1c     DllSTLoader.obj
 0002:00000d44       ??_C@_0L@LBMDNBF@fnUnloadST@ 10042d44     DllSTLoader.obj
 0002:00000d50       ??_C@_0CK@KJJCAAPE@?$CFs?$LP?$KB?$LM?$KN?5fnUnloadST?G?T?$LM?v?$LI?$KG?5?C?$KD?$MA?$LL?5?$LM?v@ 10042d50     DllSTLoader.obj
 0002:00000d7c       ??_C@_0M@LLDCMNDN@fnExecuteST@ 10042d7c     DllSTLoader.obj
 0002:00000d88       ??_C@_0CL@KBJHENCJ@?$CFs?$LP?$KB?$LM?$KN?5fnExecuteST?G?T?$LM?v?$LI?$KG?5?C?$KD?$MA?$LL?5?$LM@ 10042d88     DllSTLoader.obj
 0002:00000db4       ??_C@_08LBBAFFLC@fnStopST@ 10042db4     DllSTLoader.obj
 0002:00000dc0       ??_C@_0CI@NHCBICMH@?$CFs?$LP?$KB?$LM?$KN?5fnStopST?G?T?$LM?v?$LI?$KG?5?C?$KD?$MA?$LL?5?$LM?v?5?$LO@ 10042dc0     DllSTLoader.obj
 0002:00000de8       ??_C@_09HFICAEPK@fnPauseST@ 10042de8     DllSTLoader.obj
 0002:00000df4       ??_C@_0CK@FGAPMHCA@?$CFs?$LP?$KB?$LM?$KN?5fnPauseST?5?G?T?$LM?v?$LI?$KG?5?C?$KD?$MA?$LL?5?$LM?v@ 10042df4     DllSTLoader.obj
 0002:00000e20       ??_C@_0L@HLHEEOIM@fnUpdateST@ 10042e20     DllSTLoader.obj
 0002:00000e2c       ??_C@_0CL@OMDOJGPO@?$CFs?$LP?$KB?$LM?$KN?5fnUpdateST?5?G?T?$LM?v?$LI?$KG?5?C?$KD?$MA?$LL?5?$LM@ 10042e2c     DllSTLoader.obj
 0002:00000e58       ??_C@_0M@PHPMFKOB@fnCommandST@ 10042e58     DllSTLoader.obj
 0002:00000e64       ??_C@_0CM@CNMLDCCM@?$CFs?$LP?$KB?$LM?$KN?5fnCommandST?5?G?T?$LM?v?$LI?$KG?5?C?$KD?$MA?$LL?5@ 10042e64     DllSTLoader.obj
 0002:00000e90       ??_C@_0BI@CICMPJHD@CDllSTLoader?3?3Unload?$CI0?$CJ@ 10042e90     DllSTLoader.obj
 0002:00000ea8       ??_C@_0BJ@DNCEOOBO@CDllSTLoader?3?3Unload?$CI?91?$CJ@ 10042ea8     DllSTLoader.obj
 0002:00000ec4       ??_C@_01IPJKGB@?$CD@       10042ec4     DllSTLoader.obj
 0002:00000ecc       ??_7CGdiObject@@6B@        10042ecc     STGfxOutBarCtrl.obj
 0002:00000ee4       ??_7CPen@@6B@              10042ee4     STGfxOutBarCtrl.obj
 0002:00000efc       ??_7CFont@@6B@             10042efc     STGfxOutBarCtrl.obj
 0002:00000f14       ??_7CBitmap@@6B@           10042f14     STGfxOutBarCtrl.obj
 0002:00000f2c       ??_7CRgn@@6B@              10042f2c     STGfxOutBarCtrl.obj
 0002:00000f40       ??_C@_0HD@JJCHHHNK@C?3?2Program?5Files?5?$CIx86?$CJ?2Microsof@ 10042f40     STGfxOutBarCtrl.obj
 0002:00000fb4       ??_C@_0BP@OIEOKIDM@Exception?5thrown?5in?5destructor@ 10042fb4     STGfxOutBarCtrl.obj
 0002:00000fd4       ??_C@_0BB@HBOOMJBF@?$CFTs?5?$CI?$CFTs?3?$CFd?$CJ?6?$CFTs@ 10042fd4     STGfxOutBarCtrl.obj
 0002:00000fe8       ??_C@_0N@OMEMOKLE@?$CFTs?5?$CI?$CFTs?3?$CFd?$CJ@ 10042fe8     STGfxOutBarCtrl.obj
 0002:00000ffc       ??_7IGfxOutBarCtrl@@6B@    10042ffc     STGfxOutBarCtrl.obj
 0002:00001018       ??_7IGfxOutBarCtrl2@@6B@   10043018     STGfxOutBarCtrl.obj
 0002:00001038       ?classCSTGfxOutBarCtrl@CSTGfxOutBarCtrl@@2UCRuntimeClass@@B 10043038     STGfxOutBarCtrl.obj
 0002:00001058       ??_7CBarItem@CSTGfxOutBarCtrl@@6B@ 10043058     STGfxOutBarCtrl.obj
 0002:00001060       ??_7CBarFolder@CSTGfxOutBarCtrl@@6B@ 10043060     STGfxOutBarCtrl.obj
 0002:00001068       ??_7CSTGfxOutBarCtrl@@6B@  10043068     STGfxOutBarCtrl.obj
 0002:000011d8       ??_7CImpl_IGfxOutBarCtrl@@6B@ 100431d8     STGfxOutBarCtrl.obj
 0002:000011f8       ??_C@_0BB@OIKDPAKN@CSTGfxOutBarCtrl@ 100431f8     STGfxOutBarCtrl.obj
 0002:00001308       ??_C@_06MFMMLLPC@?$LB?$LM?$LI?$LC?C?$LM@ 10043308     STGfxOutBarCtrl.obj
 0002:00001310       __xmm@00000190000000000000000000000000 10043310     STGfxOutBarCtrl.obj
 0002:00001320       ??_C@_0BC@LAMDBJGM@RMSG_OB_ITEMCLICK@ 10043320     STListCtrl.obj
 0002:00001334       ??_C@_0BD@GFDLLOKP@RMSG_OB_ITEMDBLCLK@ 10043334     STListCtrl.obj
 0002:00001348       ??_C@_0BC@HAIAMDMN@RMSG_ISSTRUNSTATE@ 10043348     STListCtrl.obj
 0002:0000135c       ??_C@_0P@BKKCOCLK@RMSG_INTERFACE@ 1004335c     STListCtrl.obj
 0002:00001370       ??_7CMenu@@6B@             10043370     STListCtrl.obj
 0002:00001390       ??_7CListCtrl@@6B@         10043390     STListCtrl.obj
 0002:00001500       ??_C@_0M@CBBNGGHM@PcTrMng?4dll@ 10043500     STListCtrl.obj
 0002:0000150c       ??_C@_0P@IDMAJEGN@HANAROPCTRMAIN@ 1004350c     STListCtrl.obj
 0002:0000151c       ??_C@_06NDLAHCHE@?$CFs?$CF08X@ 1004351c     STListCtrl.obj
 0002:00001524       ??_C@_02EMFKHFLK@?$CFX@    10043524     STListCtrl.obj
 0002:00001528       ?classCSTListCtrl@CSTListCtrl@@2UCRuntimeClass@@B 10043528     STListCtrl.obj
 0002:00001548       ??_7CSTListCtrl@@6B@       10043548     STListCtrl.obj
 0002:000016b8       ??_C@_0M@ENHGICKC@CSTListCtrl@ 100436b8     STListCtrl.obj
 0002:00001748       ??_C@_08OIDEPACI@P_?$CFs?$CFc?$CFd@ 10043748     STListCtrl.obj
 0002:00001754       ??_C@_06GNAFJLOE@?$CFs?$CFc?$CFd@ 10043754     STListCtrl.obj
 0002:0000175c       ??_C@_04CFDBLPCI@?$LL?h?A?$KG@ 1004375c     STListCtrl.obj
 0002:00001764       ??_C@_0CC@DGBJBMGM@?A?$KG?$LA?x?$LF?H?5?$MA?$PM?$LH?$KL?$MA?$LK?5?$LL?h?A?$KG?G?R?5?$LM?v?5?$LO?x?$LN?$MA?$LE?O?$LE@ 10043764     STListCtrl.obj
 0002:00001788       ??_C@_0P@GKBMMIPA@?$LL?g?$LP?k?$MA?Z?$LE?$NM?$MA?$KH?$MA?$PM?$LH?$KL@ 10043788     STListCtrl.obj
 0002:00001798       ??_C@_0L@DLNLHHBM@?$LL?g?$LP?k?$MA?Z?A?v?G?$KF@ 10043798     STListCtrl.obj
 0002:000017a4       ??_C@_0P@EACIJNAL@?$LL?g?$LP?k?$MA?Z?$LA?$KN?$LM?$LM?$LO?$OA?$LM?$LM@ 100437a4     STListCtrl.obj
 0002:000017b4       ??_C@_0P@BCEOGAFN@?$LL?g?$LP?k?$MA?Z?A?$LG?G?U?$MA?$PM?$LH?$KL@ 100437b4     STListCtrl.obj
 0002:000017c4       ??_C@_0BJ@GJNCLGJM@?$MA?$PM?$LH?$KL?$MA?$LL?5?$LL?h?A?$KG?G?O?$LN?C?$LA?Z?$LN?$MA?$LE?O?$LB?n?$DP@ 100437c4     STListCtrl.obj
 0002:000017e0       ??_C@_08OOJOHCD@?$CFs?2?$CFs?4ST@ 100437e0     STListCtrl.obj
 0002:000017ec       ??_C@_0DI@HOHDCNPO@?B?w?F?$KO?$LL?s?$LP?$KB?5?$MA?$PM?$LH?$KL?$MA?L?5?$MA?$PL?$LP?k?$MA?L?5?$LF?G?$LO?n?5?$MA?V?$LE@ 100437ec     STListCtrl.obj
 0002:00001824       ??_C@_0BA@PIGBAOMG@STLIST_MODIFIED@ 10043824     STListCtrl.obj
 0002:00001834       ??_C@_0BG@OHIMHJEO@RMSG_STTREE_ITEMCLICK@ 10043834     STTreeCtrl.obj
 0002:0000184c       ??_C@_0BH@LAAMLACL@RMSG_STTREE_ITEMDBLCLK@ 1004384c     STTreeCtrl.obj
 0002:00001864       ??_C@_0BA@IIIKKNIB@RMSG_OPENNEWMAP@ 10043864     STTreeCtrl.obj
 0002:00001878       ??_7CTreeCtrl@@6B@         10043878     STTreeCtrl.obj
 0002:000019e4       ??_C@_05BMGBEOOC@?$CFs?2?$CFs@ 100439e4     STTreeCtrl.obj
 0002:000019ec       ??_C@_01EOFPKCAF@?$EA@     100439ec     STTreeCtrl.obj
 0002:000019f0       ??_C@_04HDOCAJNK@?$CFs?$CFs@ 100439f0     STTreeCtrl.obj
 0002:000019f8       ??_C@_0L@KDHEPLBG@?$LL?g?$LP?k?$MA?Z?$MA?$PM?$LH?$KL@ 100439f8     STTreeCtrl.obj
 0002:00001a04       ??_C@_0BF@FFBMJBNA@?2Usr?2STData?2STBasic?2@ 10043a04     STTreeCtrl.obj
 0002:00001a1c       ??_C@_06DIJPEION@?$CFs?$CFs?$CFs@ 10043a1c     STTreeCtrl.obj
 0002:00001a24       ??_C@_03EMIMMIHL@?$CK?4?$CK@ 10043a24     STTreeCtrl.obj
 0002:00001a28       ??_C@_04ECGMOPPD@?$CK?4ST@ 10043a28     STTreeCtrl.obj
 0002:00001a30       ??_C@_03COHLPAFH@?4ST@     10043a30     STTreeCtrl.obj
 0002:00001a38       ??_7CSTTreeCtrl@@6B@       10043a38     STTreeCtrl.obj
 0002:00001bc8       ??_7CSTExtTree@@6B@        10043bc8     STTreeCtrl.obj
 0002:00001d58       ??_7CSTBasicTree@@6B@      10043d58     STTreeCtrl.obj
 0002:00001f68       ??_C@_02HOKACGJH@?$EA9@    10043f68     STTreeCtrl.obj
 0002:00001f8c       ??_C@_0BA@OONIGKLF@?2Icss?2STData?2ST@ 10043f8c     STTreeCtrl.obj
 0002:00001f9c       ??_C@_0BO@EGEAEPEN@?2Usr?2STData?2ST?2?$LL?g?$LP?k?$MA?Z?$LE?$NM?$MA?$KH?$MA?$PM?$LH?$KL@ 10043f9c     STTreeCtrl.obj
 0002:00001fbc       ??_C@_0BO@DOBCOHOA@?2Usr?2STData?2ST?2?$LL?g?$LP?k?$MA?Z?A?$LG?G?U?$MA?$PM?$LH?$KL@ 10043fbc     STTreeCtrl.obj
 0002:00001ffc       ??_C@_0BF@FJEFBIMK@?2Icss?2STData?2STBasic@ 10043ffc     STTreeCtrl.obj
 0002:00002014       ??_C@_0BB@GOOPDKI@RMSG_GETPCTRDATA@ 10044014     _STLoadmanager.obj
 0002:00002028       ??_C@_02DPKJAMEF@?$CFd@    10044028     _STLoadmanager.obj
 0002:0000202b       ??_C@_00CNPNBAHC@@         1004402b     _STLoadmanager.obj
 0002:00002030       ??_7ISTLoadManager@@6B@    10044030     _STLoadmanager.obj
 0002:00002058       ??_7CSTLoadManager@@6B@    10044058     _STLoadmanager.obj
 0002:00002084       ??_C@_02DKCKIIND@?$CFs@    10044084     _STLoadmanager.obj
 0002:00002088       ??_C@_05NFGPCJDJ@?$CFd?3?$CFd@ 10044088     _STLoadmanager.obj
 0002:00002090       ??_C@_0L@LHMOIOEP@?$CFs?2?$CFs?2?$CFs?$CFs@ 10044090     _STLoadmanager.obj
 0002:0000209c       ??_C@_0BI@JGCPDNC@?$CFs?2STData?2VarOptima?4cfg@ 1004409c     _STLoadmanager.obj
 0002:000020b4       ??_C@_0M@FDALMHON@STIndex?4dat@ 100440b4     _STLoadmanager.obj
 0002:000020c0       ??_C@_04PCOPKCKE@LIST@     100440c0     _STLoadmanager.obj
 0002:000020c8       ??_C@_05IJGIMMHE@Count@    100440c8     _STLoadmanager.obj
 0002:000020d0       ??_C@_08BHLLDOMG@?$LA?$KN?$LM?$LM?$LO?$OA?$LM?$LM@ 100440d0     _STLoadmanager.obj
 0002:000020dc       ??_C@_0P@KLCPEEFK@RealFolderName@ 100440dc     _STLoadmanager.obj
 0002:000020ec       ??_C@_01KICIPPFI@?2@       100440ec     _STLoadmanager.obj
 0002:000020f0       ??_C@_07NGFJPNPN@Version@  100440f0     _STLoadmanager.obj
 0002:000020f8       ??_C@_01JKBOJNNK@?$FO@     100440f8     _STLoadmanager.obj
 0002:00002100       ??_7?$CList@PAUSTFILEITEM@@PAU1@@@6B@ 10044100     _STLoadmanager.obj
 0002:00002114       ??_C@_07MHLIEPKG@?$CFs?2?$CFs?$CFs@ 10044114     _STLoadmanager.obj
 0002:0000211c       ??_C@_0BD@LPKGMEPL@WM_XEDIT_VK_RETURN@ 1004411c     XEdit.obj
 0002:00002130       ??_C@_0BD@CFJLABMC@WM_XEDIT_VK_ESCAPE@ 10044130     XEdit.obj
 0002:00002148       ??_7CEdit@@6B@             10044148     XEdit.obj
 0002:000022b8       ??_7CXEdit@@6B@            100442b8     XEdit.obj
 0002:00002478       ??_C@_0DI@FCBICJNP@1000?5?$MA?L?$LL?s?$MA?G?5?$LA?$KK?$MA?$LK?5?$LL?g?$LP?k?G?R?5?$LM?v?5?$LO?x?$LN?$MA@ 10044478     XEdit.obj
 0002:000024b0       ??_C@_02HAOIJKIC@?$CFc@    100444b0     XEdit.obj
 0002:000024b4       ??_C@_01JLIPDDHJ@?3@       100444b4     XEdit.obj
 0002:000024bc       ??_7CHeaderCtrl@@6B@       100444bc     XHeaderCtrl.obj
 0002:00002638       ??_7CMemDC@@6B@            10044638     XHeaderCtrl.obj
 0002:000026b8       ?classCXHeaderCtrl@CXHeaderCtrl@@2UCRuntimeClass@@B 100446b8     XHeaderCtrl.obj
 0002:000026d8       ??_7CXHeaderCtrl@@6B@      100446d8     XHeaderCtrl.obj
 0002:00002854       ??_C@_0N@HEBACGJN@CXHeaderCtrl@ 10044854     XHeaderCtrl.obj
 0002:00002948       ??_C@_0BN@EIACCKJ@WM_XLISTCTRL_COMBO_SELECTION@ 10044948     XListCtrl.obj
 0002:00002968       ??_C@_0BO@GDHDGILD@WM_XLISTCTRL_CHECKBOX_CLICKED@ 10044968     XListCtrl.obj
 0002:0000298c       ??_7CXListCtrl@@6B@        1004498c     XListCtrl.obj
 0002:00002c28       ??_C@_04FCMNJMCO@?$CFd?$CF?$CF@ 10044c28     XListCtrl.obj
 0002:00002c34       ??_7CBrush@@6B@            10044c34     BitmapItemComboBox.obj
 0002:00002c4c       ??_7CComboBox@@6B@         10044c4c     BitmapItemComboBox.obj
 0002:00002dd0       ??_7CBitmapItemComboBox@@6B@ 10044dd0     BitmapItemComboBox.obj
 0002:00002f74       ??_7CButton@@6B@           10044f74     ColorButton.obj
 0002:000030ec       ??_7CColorButton@@6B@      100450ec     ColorButton.obj
 0002:00003260       ??_C@_07JBLFGBEJ@?$LL?v?5?$LM?$LD?A?$KE@ 10045260     ColorButton.obj
 0002:0000328c       ??_7CStatic@@6B@           1004528c     ColoredStatic.obj
 0002:00003404       ??_7CColoredStatic@@6B@    10045404     ColoredStatic.obj
 0002:000035cc       ??_7CRichEditCtrl@@6B@     100455cc     LogicEditCtrl.obj
 0002:0000373c       ??_7?$CArray@VCElementInLogic@@AAV1@@@6B@ 1004573c     LogicEditCtrl.obj
 0002:00003754       ??_7CLogicEditCtrl@@6B@    10045754     LogicEditCtrl.obj
 0002:00003910       ??_C@_03BOPJPIAM@and@      10045910     LogicEditCtrl.obj
 0002:00003914       ??_C@_01ODHLEDKK@?$CI@     10045914     LogicEditCtrl.obj
 0002:00003918       ??_C@_01PKGAHCOL@?$CJ@     10045918     LogicEditCtrl.obj
 0002:0000391c       ??_C@_01DCLJPIOD@?$CB@     1004591c     LogicEditCtrl.obj
 0002:00003920       ??_C@_01CLKCMJKC@?5@       10045920     LogicEditCtrl.obj
 0002:00003924       ??_C@_04CJGEDOF@next@      10045924     LogicEditCtrl.obj
 0002:0000392c       ??_C@_0CA@BKADIGHL@?$CI?5?$CJ?$LO?H?$LP?$KB?5?$CFs?$MA?$LL?5?$LL?g?$LP?k?G?R?$LM?v?5?$LO?x?$LN?$MA?$LE?O?$LE?Y?4@ 1004592c     LogicEditCtrl.obj
 0002:0000394c       ??_C@_02FODMLBIE@or@       1004594c     LogicEditCtrl.obj
 0002:00003950       ??_C@_04LLKPOCGK@?$CFd?$CFd@ 10045950     LogicEditCtrl.obj
 0002:00003960       __xmm@0000000000000000000000000000000c 10045960     LogicEditCtrl.obj
 0002:00003974       ??_7CxSkinButton@@6B@      10045974     xSkinButton.obj
 0002:00003c14       ??_7CTabCtrl@@6B@          10045c14     XTabCtrl.obj
 0002:00003d90       ??_7?$CArray@HH@@6B@       10045d90     XTabCtrl.obj
 0002:00003da8       ??_7CXTabCtrl@@6B@         10045da8     XTabCtrl.obj
 0002:0000401c       ??_7?$CArray@UControlInfo@@AAU1@@@6B@ 1004601c     xySplitterWnd.obj
 0002:00004034       ??_7CxSplitterWnd@@6B@     10046034     xySplitterWnd.obj
 0002:000041a4       ??_7CySplitterWnd@@6B@     100461a4     xySplitterWnd.obj
 0002:00004310       ??_C@_02MKAICKHL@Hi@       10046310     xySplitterWnd.obj
 0002:00004314       ??_C@_06GCFCNKMP@STATIC@   10046314     xySplitterWnd.obj
 0002:000043f0       ??_C@_0BK@FBLMOCPF@RMSG_FORMINITIALCOMPLETED@ 100463f0     DlgStrategyConfigure.obj
 0002:0000440c       ??_C@_0BF@JNMMFBNP@RMSG_EVENT_CODEINPUT@ 1004640c     DlgStrategyConfigure.obj
 0002:00004424       ??_C@_0BF@LEGBOMJF@RMSG_EVENT_ACCTINPUT@ 10046424     DlgStrategyConfigure.obj
 0002:0000443c       ??_C@_0BF@FABJBMLM@RMSG_EVENT_SPININPUT@ 1004643c     DlgStrategyConfigure.obj
 0002:00004454       ??_C@_0BC@PGMEIMOI@RMSG_EVENT_SIGNAL@ 10046454     DlgStrategyConfigure.obj
 0002:00004468       ??_C@_0BF@FPLDPAEH@RMSG_FORMSTATECHANGE@ 10046468     DlgStrategyConfigure.obj
 0002:00004480       ??_C@_0N@IMGBDGND@RMSG_TABSTOP@ 10046480     DlgStrategyConfigure.obj
 0002:00004490       ??_C@_0BC@MMIGKJED@RMSG_LBTNDBLCLICK@ 10046490     DlgStrategyConfigure.obj
 0002:000044a4       ??_C@_0O@DGNCFOOP@RMSG_LBTNDOWN@ 100464a4     DlgStrategyConfigure.obj
 0002:000044b4       ??_C@_0BC@EMMLKNDL@RMSG_ENDSCROLLPOS@ 100464b4     DlgStrategyConfigure.obj
 0002:000044c8       ??_C@_0BE@IEJDDJPC@RMSG_LSHAREDCHANGED@ 100464c8     DlgStrategyConfigure.obj
 0002:000044dc       ??_C@_0BA@DEABJHGB@RMSG_GETDLLSIZE@ 100464dc     DlgStrategyConfigure.obj
 0002:000044ec       ??_C@_0BA@CKCOCACI@RMSG_SETDLLSIZE@ 100464ec     DlgStrategyConfigure.obj
 0002:00004500       ??_7CDlgStrategyConfigure@@6B@ 10046500     DlgStrategyConfigure.obj
 0002:00004700       ??_C@_0BH@FLLLIEBF@?2dev?2SystemTrading?4exe@ 10046700     DlgStrategyConfigure.obj
 0002:00004718       ??_C@_0BG@MJHFLBP@Solomon?5SystemTrading@ 10046718     DlgStrategyConfigure.obj
 0002:00004730       ??_C@_0M@LCNKCOIE@Icss?2STData@ 10046730     DlgStrategyConfigure.obj
 0002:0000473c       ??_C@_0BD@OKKEAALJ@?$CFs?2?$CFs?2STConfig?4cfg@ 1004673c     DlgStrategyConfigure.obj
 0002:00004750       ??_C@_06NKMNEDPB@?1U?$CC?$CFs?$CC@ 10046750     DlgStrategyConfigure.obj
 0002:00004758       ??_C@_0O@IENINOAD@?1U?$CC?$CFs?$CC?5?1S?$CC?$CFs?$CC@ 10046758     DlgStrategyConfigure.obj
 0002:00004768       ??_C@_07CLDLHAAJ@?$CFs?$HM?$CF08X@ 10046768     DlgStrategyConfigure.obj
 0002:00004770       ??_C@_04PMOCAHAA@open@     10046770     DlgStrategyConfigure.obj
 0002:00004778       ??_C@_07BMIBILFB@?2STData@ 10046778     DlgStrategyConfigure.obj
 0002:00004780       ??_C@_0N@CBLONPMI@?2ScriptFiles@ 10046780     DlgStrategyConfigure.obj
 0002:00004790       ??_C@_0BD@LCMNHFGN@STData?2ScriptFiles@ 10046790     DlgStrategyConfigure.obj
 0002:000047a4       ??_C@_06JJFGCKJB@CopyNo@   100467a4     DlgStrategyConfigure.obj
 0002:000047ac       ??_C@_0BD@KNBAFGDF@?$CFs?2Icss?2?$CFs?2high?2?$CFs@ 100467ac     DlgStrategyConfigure.obj
 0002:000047c0       ??_C@_08EFGGCJLD@?$CFs?2?$CFs?2?$CFs@ 100467c0     DlgStrategyConfigure.obj
 0002:000047d0       __xmm@00000001000000000000000000000001 100467d0     DlgStrategyConfigure.obj
 0002:000047e0       ??_C@_0BF@PGCFFKKJ@RMSG_STCONFIGURENAME@ 100467e0     DlgStrategyList.obj
 0002:000047f8       ??_C@_0BK@NEGNKIAO@RMSG_STCONTROLLER_POINTER@ 100467f8     DlgStrategyList.obj
 0002:00004814       ??_C@_0BE@ODKFPHJE@RMSG_STSAVETOUSERST@ 10046814     DlgStrategyList.obj
 0002:0000482c       ??_7CDlgStrategyList@@6B@  1004682c     DlgStrategyList.obj
 0002:000049c0       ??_C@_01IHBHIGKO@?0@       100469c0     DlgStrategyList.obj
 0002:00004c58       ??_C@_04MGFIDEAB@?$MA?L?$LI?$KH@ 10046c58     DlgStrategyList.obj
 0002:00004c60       ??_C@_04JEFEGHFG@?A?$LG?$LA?G@ 10046c60     DlgStrategyList.obj
 0002:00004c68       ??_C@_04PFAGJEJF@?$LN?C?$LA?$KD@ 10046c68     DlgStrategyList.obj
 0002:00004c70       ??_C@_04BFOBCBBG@?$LM?v?A?$KE@ 10046c70     DlgStrategyList.obj
 0002:00004c78       ??_C@_04MNEJHGBL@?$CFd?$LK?P@ 10046c78     DlgStrategyList.obj
 0002:00004c80       ??_C@_04EAPBPCMF@?$CFd?F?$LN@ 10046c80     DlgStrategyList.obj
 0002:00004c88       ??_C@_02NNHDHLCM@?$MA?O@   10046c88     DlgStrategyList.obj
 0002:00004c8c       ??_C@_0L@FNFCAPPB@?2STDATA?2SD@ 10046c8c     DlgStrategyList.obj
 0002:00004c98       ??_C@_04EKOCOPPL@?F?m?A?$PN@ 10046c98     DlgStrategyList.obj
 0002:00004ca0       ??_C@_01MMEEDKFM@X@        10046ca0     DlgStrategyList.obj
 0002:00004ca4       ??_C@_04FFLLBBHL@?4SFG@    10046ca4     DlgStrategyList.obj
 0002:00004cb0       ??_C@_0FG@LKHGOMIG@?$LL?g?$LP?k?$MA?Z?$MA?$PM?$LH?$KL?$LI?$LI?$MA?L?5?$LM?$LD?A?$KE?$LK?$KP?$LA?f?$MA?L?5?$LA?$KB?$LE?I?G@ 10046cb0     DlgStrategyList.obj
 0002:00004d08       ??_C@_0BK@COPOICEF@?2STDATA?2ST?2?$LL?g?$LP?k?$MA?Z?A?$LG?G?U?$MA?$PM?$LH?$KL@ 10046d08     DlgStrategyList.obj
 0002:00004d24       ??_C@_09CBEKMPDN@?$CFs?$CFs?2?$CFs?$CFs@ 10046d24     DlgStrategyList.obj
 0002:00004d30       ??_C@_02EJEPJIDE@?$LK?P@   10046d30     DlgStrategyList.obj
 0002:00004d34       ??_C@_02MEPHBMOK@?F?$LN@   10046d34     DlgStrategyList.obj
 0002:00004d38       ??_C@_04GJEMHMEM@?4sts@    10046d38     DlgStrategyList.obj
 0002:00004d40       ??_C@_0N@GKFNKJGL@StrategyList@ 10046d40     DlgStrategyList.obj
 0002:00004d50       ??_C@_03FCCPIJGJ@Pos@      10046d50     DlgStrategyList.obj
 0002:00004d54       ??_C@_04HGGBINEM@?$CFs?$CFd@ 10046d54     DlgStrategyList.obj
 0002:00004d5c       ??_C@_07DGPCBOM@PosName@   10046d5c     DlgStrategyList.obj
 0002:00004d64       ??_C@_07KIGMOBJM@PosType@  10046d64     DlgStrategyList.obj
 0002:00004d6c       ??_C@_07OMILIGCA@PosTime@  10046d6c     DlgStrategyList.obj
 0002:00004d74       ??_C@_07OPGJHLBD@PosText@  10046d74     DlgStrategyList.obj
 0002:00004d7c       ??_C@_09FALOBHDH@LogicData@ 10046d7c     DlgStrategyList.obj
 0002:00004d88       ??_C@_0BN@HJIDJAEP@?C?V?$LE?k?5?$CFd?$LA?$LD?$LB?n?A?v?5?$LA?$KB?$LE?I?G?U?$LE?O?$LE?Y?4?$CI1?$CJ@ 10046d88     DlgStrategyList.obj
 0002:00004da8       ??_C@_01GBGANLPD@0@        10046da8     DlgStrategyList.obj
 0002:00004dac       ??_C@_0BN@HLMFCOBG@?C?V?$LE?k?5?$CFd?$LA?$LD?$LB?n?A?v?5?$LA?$KB?$LE?I?G?U?$LE?O?$LE?Y?4?$CI2?$CJ@ 10046dac     DlgStrategyList.obj
 0002:00004dcc       ??_C@_0CJ@BJKBFEL@?$LM?$LB?E?C?$LF?H?5?$MA?$PM?$LH?$KL?$MA?L?$LI?$KH?$MA?L?5?$LO?x?$LN?$MA?$LE?O?$LE?Y?4?5?H?$KO?$MA@ 10046dcc     DlgStrategyList.obj
 0002:00004df8       ??_C@_0CK@PLOMFNEF@?$MA?$PM?$LH?$KL?$LI?m?$LP?$KB?$LE?B?5?8?$EA?8?5?$LJ?$KO?$MA?Z?$LE?B?5?$LF?i?$LO?n?$LA?$KF?5?$LM?v@ 10046df8     DlgStrategyList.obj
 0002:00004e24       ??_C@_0BB@FBICNCLM@?2?$LL?g?$LP?k?$MA?Z?$LE?$NM?$MA?$KH?$MA?$PM?$LH?$KL?2@ 10046e24     DlgStrategyList.obj
 0002:00004e38       ??_C@_0BB@PJJNFPEB@?2?$LL?g?$LP?k?$MA?Z?A?$LG?G?U?$MA?$PM?$LH?$KL?2@ 10046e38     DlgStrategyList.obj
 0002:00004e4c       ??_C@_0DC@JJJMJJPP@?F?D?$MA?O?$LI?m?$MA?G?5?$LB?f?$MA?L?$LA?$KB?5?$LD?J?$LJ?$KL?5?$LB?i?$LE?O?$LE?Y?4?5?$MA?$PM@ 10046e4c     DlgStrategyList.obj
 0002:00004e80       ??_C@_0DP@JJIEBPED@?$LA?$LA?$MA?$LK?5?$MA?$PM?$LH?$KL?$LI?m?$MA?L?5?$MA?L?$LJ?L?5?A?$LI?$MA?g?G?U?$LE?O?$LE?Y?4?5@ 10046e80     DlgStrategyList.obj
 0002:00004ec0       ??_C@_0BI@GAHPEGNH@?2dev?2STConfigureDlg?4dll@ 10046ec0     DlgStrategyList.obj
 0002:00004ed8       ??_C@_0BM@DBODABJK@fnShowConfigureDlgRunMainEx@ 10046ed8     DlgStrategyList.obj
 0002:00004ef4       ??_C@_0O@OIDGLFFC@?2STData?2Temp?2@ 10046ef4     DlgStrategyList.obj
 0002:00004f04       ??_C@_08KJEDNCKC@?$CFs?$CFs?$CFs?$CFs@ 10046f04     DlgStrategyList.obj
 0002:00004f10       ??_C@_06CJEEKDIM@IMSIST@   10046f10     DlgStrategyList.obj
 0002:00004f18       ??_C@_06CPODCDOI@Signal@   10046f18     DlgStrategyList.obj
 0002:00004f20       ??_C@_08IFJCKPBE@RunJumun@ 10046f20     DlgStrategyList.obj
 0002:00004f2c       ??_C@_08DIPLEMAP@RunSetup@ 10046f2c     DlgStrategyList.obj
 0002:00004f38       ??_C@_08PHIBHFDB@RunClear@ 10046f38     DlgStrategyList.obj
 0002:00004f44       ??_C@_09IJIPICN@Variables@ 10046f44     DlgStrategyList.obj
 0002:00004f50       ??_C@_05DCDOHKAB@Input@    10046f50     DlgStrategyList.obj
 0002:00004f58       ??_C@_08JFMIELNJ@InputCnt@ 10046f58     DlgStrategyList.obj
 0002:00004f64       ??_C@_0M@MKPENJBJ@InputName?$CFd@ 10046f64     DlgStrategyList.obj
 0002:00004f70       ??_C@_06FIHLBNDD@?$LK?$KP?$LM?v?$LI?m@ 10046f70     DlgStrategyList.obj
 0002:00004f78       ??_C@_06OJFAJFEJ@?$LK?$KP?$LM?v?$LA?$KK@ 10046f78     DlgStrategyList.obj
 0002:00004f80       __xmm@0000000a00000000000000d700000005 10046f80     DlgStrategyList.obj
 0002:00004f90       __xmm@000000f0000002440000001e00000000 10046f90     DlgStrategyList.obj
 0002:00004fa4       ??_7CCommonDialog@@6B@     10046fa4     DlgSysVarOption.obj
 0002:0000513c       ??_7CDlgSysVarOption@@6B@  1004713c     DlgSysVarOption.obj
 0002:00005338       ??_C@_06NGJGOFOJ@STNAME@   10047338     DlgSysVarOption.obj
 0002:00005340       ??_C@_02FBCBEJMG@P_@       10047340     DlgSysVarOption.obj
 0002:00005344       ??_C@_07DMFMBNNG@SFGPATH@  10047344     DlgSysVarOption.obj
 0002:0000534c       ??_C@_04FIEANMAH@?4sfg@    1004734c     DlgSysVarOption.obj
 0002:00005354       ??_C@_06KPBPCKLI@STPATH@   10047354     DlgSysVarOption.obj
 0002:0000535c       ??_C@_05FKHKFDID@index@    1004735c     DlgSysVarOption.obj
 0002:00005364       ??_C@_08BENBMBBP@14476026@ 10047364     DlgSysVarOption.obj
 0002:00005370       ??_C@_07DIBCEAPN@clrBull@  10047370     DlgSysVarOption.obj
 0002:00005378       ??_C@_08IFNLLDLJ@16248787@ 10047378     DlgSysVarOption.obj
 0002:00005384       ??_C@_07LEJCLLOO@clrBear@  10047384     DlgSysVarOption.obj
 0002:0000538c       ??_C@_07JGNMLBPF@Input?$CFd@ 1004738c     DlgSysVarOption.obj
 0002:00005394       ??_C@_03JALODAI@?$CFld@    10047394     DlgSysVarOption.obj
 0002:0000539c       ??_7CDlgTimeSelector@@6B@  1004739c     DlgTimeSelector.obj
 0002:000055c8       ?classCGridCell@CGridCell@@2UCRuntimeClass@@B 100475c8     GridCell.obj
 0002:000055e8       ??_7CGridCell@@6B@         100475e8     GridCell.obj
 0002:000056d8       ?classCGridDefaultCell@CGridDefaultCell@@2UCRuntimeClass@@B 100476d8     GridCell.obj
 0002:000056f8       ??_7CGridDefaultCell@@6B@  100476f8     GridCell.obj
 0002:00005800       ??_C@_09CLBLKEDE@CGridCell@ 10047800     GridCell.obj
 0002:0000580c       ??_C@_0BB@IPGMAHPB@CGridDefaultCell@ 1004780c     GridCell.obj
 0002:00005820       ??_C@_0P@PLKEPLKE@?5XXXXXXXXXXXX?5@ 10047820     GridCell.obj
 0002:00005830       ??_C@_01PLPBNMEI@M@        10047830     GridCellBase.obj
 0002:00005834       ?classCGridCellBase@CGridCellBase@@2UCRuntimeClass@@B 10047834     GridCellBase.obj
 0002:00005854       ??_7CGridCellBase@@6B@     10047854     GridCellBase.obj
 0002:00005944       ??_C@_0O@ELCGHKDE@CGridCellBase@ 10047944     GridCellBase.obj
 0002:00005958       __real@3fbc28f5c28f5c29    10047958     GridCellBase.obj
 0002:00005960       __real@3fd3333333333333    10047960     GridCellBase.obj
 0002:00005968       __real@3fe2e147ae147ae1    10047968     GridCellBase.obj
 0002:00005970       ?szInvalidDateTime@ATL@@3QBDB 10047970     GridCtrl.obj
 0002:00005974       ??_C@_0BB@KEKMKJPM@Invalid?5DateTime@ 10047974     GridCtrl.obj
 0002:0000598c       ??_7CFileException@@6B@    1004798c     GridCtrl.obj
 0002:000059b0       ??_C@_0HD@BPLDAFHE@C?3?2Program?5Files?5?$CIx86?$CJ?2Microsof@ 100479b0     GridCtrl.obj
 0002:00005a24       ?classCGridCtrl@CGridCtrl@@2UCRuntimeClass@@B 10047a24     GridCtrl.obj
 0002:00005a44       ??_7?$CTypedPtrArray@VCObArray@@PAV?$CTypedPtrArray@VCObArray@@PAVCGridCellBase@@@@@@6B@ 10047a44     GridCtrl.obj
 0002:00005a5c       ??_7?$CMap@KKVCCellID@@AAV1@@@6B@ 10047a5c     GridCtrl.obj
 0002:00005a74       ??_7CGridCtrl@@6B@         10047a74     GridCtrl.obj
 0002:00005c5c       ??_7?$CTypedPtrArray@VCObArray@@PAVCGridCellBase@@@@6B@ 10047c5c     GridCtrl.obj
 0002:00005c70       ??_C@_09NFAGBKLE@CGridCtrl@ 10047c70     GridCtrl.obj
 0002:00005c7c       ??_C@_0BG@JHCMIEAA@Control?5Panel?2Desktop@ 10047c7c     GridCtrl.obj
 0002:00005c94       ??_C@_0BB@LOOBGJFE@WheelScrollLines@ 10047c94     GridCtrl.obj
 0002:00005ca8       ??_C@_0FE@POPCFEBD@OLE?5initialization?5failed?4?5Make@ 10047ca8     GridCtrl.obj
 0002:00005cfc       ??_C@_0M@NNGINBBP@MFCGridCtrl@ 10047cfc     GridCtrl.obj
 0002:00006010       ??_C@_01GPOEFGEJ@?7@       10048010     GridCtrl.obj
 0002:00006014       ??_C@_02PCIJFNDE@?$AN?6@   10048014     GridCtrl.obj
 0002:00006018       ??_C@_01EEMJAFIK@?6@       10048018     GridCtrl.obj
 0002:0000601c       ??_C@_02DGFOHGMM@?7?0@     1004801c     GridCtrl.obj
 0002:00006020       ??_C@_05MPFIAJAP@Arial@    10048020     GridCtrl.obj
 0002:00006028       ??_C@_0DG@NFHEFIGB@abcdefghijklmnopqrstuvwxyzABCDE@ 10048028     GridCtrl.obj
 0002:00006060       ??_C@_0O@MLLBBIJG@Page?5?$CFd?5of?5?$CFd@ 10048060     GridCtrl.obj
 0002:00006070       ??_C@_0BJ@IAHDJGPJ@Unable?5to?5save?5grid?5list@ 10048070     GridCtrl.obj
 0002:0000608c       ??_C@_0BJ@MOONOAPJ@Unable?5to?5load?5grid?5data@ 1004808c     GridCtrl.obj
 0002:000060b0       __xmm@ffffffff000000000000000000000000 100480b0     GridCtrl.obj
 0002:000060c0       __xmm@ffffffffffffffffffffffffffffffff 100480c0     GridCtrl.obj
 0002:000060d4       ??_7CGridDropTarget@@6B@   100480d4     GridDropTarget.obj
 0002:0000616c       ??_7CInPlaceEdit@@6B@      1004816c     InPlaceEdit.obj
 0002:00006370       ??_C@_02KNHHEEKP@?5?5@     10048370     InPlaceEdit.obj
 0002:00006378       ??_7CTitleTip@@6B@         10048378     TitleTip.obj
 0002:000064e8       ??_C@_09EIMMPIGK@ZTitleTip@ 100484e8     TitleTip.obj
 0002:0000652c       __pRawDllMain              1004852c     HWStrategyConfigureWizard.obj
 0002:00006530       ??_C@_02NJPGOMH@?$CFf@     10048530     HWStrategyConfigureWizard.obj
 0002:00006534       ??_C@_06BJJLJJDL@?2Image@  10048534     HWStrategyConfigureWizard.obj
 0002:0000653c       ??_C@_05PGKDIPIO@chart@    1004853c     HWStrategyConfigureWizard.obj
 0002:00006550       __xmm@000001900000015e0000000000000000 10048550     HWStrategyConfigureWizard.obj
 0002:00006560       ?classCOutLookBarDlg@COutLookBarDlg@@2UCRuntimeClass@@B 10048560     OutLookBarDlg.obj
 0002:00006580       ??_7COutLookBarDlg@@6B@    10048580     OutLookBarDlg.obj
 0002:00006714       ??_C@_0P@HKNMPGAE@COutLookBarDlg@ 10048714     OutLookBarDlg.obj
 0002:000067c0       ??_C@_0L@BHJABNKA@?2STDATA?2ST@ 100487c0     OutLookBarDlg.obj
 0002:000067cc       ??_C@_0P@LLAIGDEE@?2Image?2drchart@ 100487cc     OutLookBarDlg.obj
 0002:000067dc       ??_C@_0O@DADNAINN@?$CFs?2folder?4bmp@ 100487dc     OutLookBarDlg.obj
 0002:000067ec       ??_C@_0BD@OCOIJGGE@?$CFs?2outbar_icon?4bmp@ 100487ec     OutLookBarDlg.obj
 0002:00006800       ??_C@_0BH@PGFEHFKK@?$LA?K?$LL?v?$LI?m?$MA?$LL?5?$MA?T?$LH?B?G?O?$LN?J?$LN?C?$LP?d?4@ 10048800     OutLookBarDlg.obj
 0002:00006818       ??_C@_0CC@EHJDCDHD@?$FL?$CFs?$FN?5?$LP?$KB?5?$LE?k?G?Q?5?$LA?K?$LL?v?$LA?a?$LA?z?$LA?$KB?5?$LO?x?$LN?$MA?$LE?O?$LE@ 10048818     OutLookBarDlg.obj
 0002:0000683c       ??_C@_0BI@GFKEBOCG@?$LA?K?$LL?v?G?Q?5?$LA?a?$LA?z?$LA?$KB?5?$LO?x?$LN?$MA?$LE?O?$LE?Y?4@ 1004883c     OutLookBarDlg.obj
 0002:00006854       ??_C@_0CB@BDFGCOEN@?$LA?K?$LL?v?G?Q?5?$LA?a?$LA?z?$LI?$KG?5?$LI?p?$LF?N?5?H?$KO?$MA?N?G?$NP?$LN?$MA?$LE?O?$LE?Y@ 10048854     OutLookBarDlg.obj
 0002:00006880       __xmm@00000064000000640000000000000000 10048880     OutLookBarDlg.obj
 0002:00006894       ??_7CSDItemInfo@@6B@       10048894     SDItemInfo.obj
 0002:00006898       ??_C@_03JBIBKIDA@?$CIS?$CJ@ 10048898     SDItemInfo.obj
 0002:0000689c       ??_C@_03JFAMNEIC@?$CIU?$CJ@ 1004889c     SDItemInfo.obj
 0002:000068a0       ??_C@_03GELJOCAG@?4SD@     100488a0     SDItemInfo.obj
 0002:000068a4       ??_C@_04OFFCAMCD@Test@     100488a4     SDItemInfo.obj
 0002:000068ac       ??_C@_04KNKPIPFB@Mode@     100488ac     SDItemInfo.obj
 0002:000068b4       ??_C@_05JPPLNOIE@?$CFs?$DN?$CFs@ 100488b4     SDItemInfo.obj
 0002:000068bc       ??_C@_0P@LNEGBOLO@atlTraceSnapin@ 100488bc     StdAfx.obj
 0002:000068cc       ??_C@_0BA@MCBFIDIC@atlTraceNotImpl@ 100488cc     StdAfx.obj
 0002:000068dc       ??_C@_0BD@PJPCCAKP@atlTraceAllocation@ 100488dc     StdAfx.obj
 0002:000068f0       ??_C@_0BC@PGMFNIFA@atlTraceException@ 100488f0     StdAfx.obj
 0002:00006904       ??_C@_0N@BNNILHBE@atlTraceTime@ 10048904     StdAfx.obj
 0002:00006914       ??_C@_0O@MEOJAOKK@atlTraceCache@ 10048914     StdAfx.obj
 0002:00006924       ??_C@_0BA@IDBKCKK@atlTraceStencil@ 10048924     StdAfx.obj
 0002:00006934       ??_C@_0P@MBNHGHMI@atlTraceString@ 10048934     StdAfx.obj
 0002:00006944       ??_C@_0M@IOBBMAHG@atlTraceMap@ 10048944     StdAfx.obj
 0002:00006950       ??_C@_0N@FEAAACHD@atlTraceUtil@ 10048950     StdAfx.obj
 0002:00006960       ??_C@_0BB@DNJDADMG@atlTraceSecurity@ 10048960     StdAfx.obj
 0002:00006974       ??_C@_0N@KLPNCFEE@atlTraceSync@ 10048974     StdAfx.obj
 0002:00006984       ??_C@_0O@KHOBHOBJ@atlTraceISAPI@ 10048984     StdAfx.obj
 0002:00006992       ?chDirSep@ATL@@3DB         10048992     StdAfx.obj
 0002:00006993       ?chRightBracket@ATL@@3DB   10048993     StdAfx.obj
 0002:00006994       ?chLeftBracket@ATL@@3DB    10048994     StdAfx.obj
 0002:00006995       ?chQuote@ATL@@3DB          10048995     StdAfx.obj
 0002:00006996       ?chEquals@ATL@@3DB         10048996     StdAfx.obj
 0002:00006998       ?szStringVal@ATL@@3QBDB    10048998     StdAfx.obj
 0002:0000699c       ??_C@_01CPLAODJH@S@        1004899c     StdAfx.obj
 0002:000069a0       ?multiszStringVal@ATL@@3QBDB 100489a0     StdAfx.obj
 0002:000069a4       ?szDwordVal@ATL@@3QBDB     100489a4     StdAfx.obj
 0002:000069a8       ??_C@_01CKDDGHAB@D@        100489a8     StdAfx.obj
 0002:000069ac       ?szBinaryVal@ATL@@3QBDB    100489ac     StdAfx.obj
 0002:000069b0       ??_C@_01HMGJMAIH@B@        100489b0     StdAfx.obj
 0002:000069b4       ?szValToken@ATL@@3QBDB     100489b4     StdAfx.obj
 0002:000069b8       ??_C@_03LAIAPFCB@Val@      100489b8     StdAfx.obj
 0002:000069bc       ?szForceRemove@ATL@@3QBDB  100489bc     StdAfx.obj
 0002:000069c0       ??_C@_0M@DBGDLGLL@ForceRemove@ 100489c0     StdAfx.obj
 0002:000069cc       ?szNoRemove@ATL@@3QBDB     100489cc     StdAfx.obj
 0002:000069d0       ??_C@_08KAAPDIAN@NoRemove@ 100489d0     StdAfx.obj
 0002:000069dc       ?szDelete@ATL@@3QBDB       100489dc     StdAfx.obj
 0002:000069e0       ??_C@_06JBKGCNBB@Delete@   100489e0     StdAfx.obj
 0002:000069e8       _CLSID_Registrar           100489e8     StdAfx.obj
 0002:000069f8       _IID_IRegistrar            100489f8     StdAfx.obj
 0002:00006a08       _IID_IDocHostUIHandlerDispatch 10048a08     StdAfx.obj
 0002:00006a1c       ??_7CAtlStringMgr@ATL@@6B@ 10048a1c     StdAfx.obj
 0002:00006a34       _IID_IAxWinHostWindow      10048a34     StdAfx.obj
 0002:00006a44       _IID_IAxWinHostWindowLic   10048a44     StdAfx.obj
 0002:00006a54       _IID_IAxWinAmbientDispatch 10048a54     StdAfx.obj
 0002:00006a64       _IID_IAxWinAmbientDispatchEx 10048a64     StdAfx.obj
 0002:00006a74       _IID_IInternalConnection   10048a74     StdAfx.obj
 0002:00006a84       ?szInvalidDateTimeSpan@ATL@@3QBDB 10048a84     StdAfx.obj
 0002:00006a88       ??_C@_0BF@GPPHKJFN@Invalid?5DateTimeSpan@ 10048a88     StdAfx.obj
 0002:00006aa0       ?CLSID_WinFormsControl@@3U_GUID@@B 10048aa0     StdAfx.obj
 0002:00006ab0       _c_DwmMaxQueuedBuffers     10048ab0     StdAfx.obj
 0002:00006ab4       _c_DwmMaxMonitors          10048ab4     StdAfx.obj
 0002:00006ab8       _c_DwmMaxAdapters          10048ab8     StdAfx.obj
 0002:00006abc       _LIBID_ATLLib              10048abc     StdAfx.obj
 0002:00006ad0       ??_7CWin32Heap@ATL@@6B@    10048ad0     StdAfx.obj
 0002:00006ae4       ??_C@_0BA@MKMIKKJB@atlTraceGeneral@ 10048ae4     StdAfx.obj
 0002:00006af4       ??_C@_0M@DGPFJEBB@atlTraceCOM@ 10048af4     StdAfx.obj
 0002:00006b00       ??_C@_0L@LHELAKBP@atlTraceQI@ 10048b00     StdAfx.obj
 0002:00006b0c       ??_C@_0BC@MALHFBAO@atlTraceRegistrar@ 10048b0c     StdAfx.obj
 0002:00006b20       ??_C@_0BB@ILPPDKFL@atlTraceRefcount@ 10048b20     StdAfx.obj
 0002:00006b34       ??_C@_0BC@DGHHNKDC@atlTraceWindowing@ 10048b34     StdAfx.obj
 0002:00006b48       ??_C@_0BB@GHKJKKIE@atlTraceControls@ 10048b48     StdAfx.obj
 0002:00006b5c       ??_C@_0BA@DKOAAGGM@atlTraceHosting@ 10048b5c     StdAfx.obj
 0002:00006b6c       ??_C@_0BB@BEBMGMDO@atlTraceDBClient@ 10048b6c     StdAfx.obj
 0002:00006b80       ??_C@_0BB@JPACFCL@RMSG_SETPCTRDATA@ 10048b80     StdAfx.obj
 0002:00006b94       ??_C@_0BD@KOADKDIA@atlTraceDBProvider@ 10048b94     StdAfx.obj
 0002:00006bac       ??_7CExDrawButton@@6B@     10048bac     ExControl:ExDrawButton.obj
 0002:00006d34       ??_7CExLoadLib@@6B@        10048d34     ExControl:ExDrawButton.obj
 0002:00006d38       ??_C@_0CD@INEDAMEN@DLL?$FL?$CFs?$FN?$MA?$LL?5Load?G?R?5?$LM?v?5?$LO?x?$LN?$MA?$LE?O?$LE?Y?4?5?$FL@ 10048d38     ExControl:ExDrawButton.obj
 0002:00006d5c       ??_C@_04OHDBDCPJ@?2Dev@    10048d5c     ExControl:ExDrawButton.obj
 0002:00006d68       ??_7CLoaderDrawButton@@6B@ 10048d68     ExControl:ExDrawButton.obj
 0002:00006d6c       ??_C@_0N@GEEODKHG@ExButton?4dll@ 10048d6c     ExControl:ExDrawButton.obj
 0002:00006d7c       ??_C@_0BB@JBDOCKKP@Ex_ActionControl@ 10048d7c     ExControl:ExDrawButton.obj
 0002:00006d90       ??_C@_0BC@PGEAKCHE@Ex_InitDrawButton@ 10048d90     ExControl:ExDrawButton.obj
 0002:00006da4       ??_C@_0BD@LKOOKBPG@Ex_InitDrawButton2@ 10048da4     ExControl:ExDrawButton.obj
 0002:00006db8       ??_C@_0O@HJMOOLG@Ex_ExitButton@ 10048db8     ExControl:ExDrawButton.obj
 0002:00006dc8       ??_C@_0BB@CHEHMADH@Ex_SetDrawButton@ 10048dc8     ExControl:ExDrawButton.obj
 0002:00006ddc       ??_C@_0BC@BNIJDNAL@Ex_DrawItemButton@ 10048ddc     ExControl:ExDrawButton.obj
 0002:00006df0       ??_C@_0L@DJFMIDOF@Ex_SetText@ 10048df0     ExControl:ExDrawButton.obj
 0002:00006dfc       ??_C@_0L@CNADMACE@Ex_SetIcon@ 10048dfc     ExControl:ExDrawButton.obj
 0002:00006e08       ??_C@_0BJ@LGMPMCJG@Ex_GetSkinNotifyFunction@ 10048e08     ExControl:ExDrawButton.obj
 0002:00006e24       ??_C@_0CA@IAIBPFKD@Ex_PreSubclassWindow_DrawButton@ 10048e24     ExControl:ExDrawButton.obj
 0002:00006e44       ??_C@_0BG@EAFAMFDC@Ex_GetText_DrawButton@ 10048e44     ExControl:ExDrawButton.obj
 0002:00006e5c       ??_C@_0BM@HBHBHJMC@Ex_UseToggleMode_DrawButton@ 10048e5c     ExControl:ExDrawButton.obj
 0002:00006e78       ??_C@_0BN@KABDCPCN@Ex_GetToggleState_DrawButton@ 10048e78     ExControl:ExDrawButton.obj
 0002:00006e98       ??_C@_0BN@CANFOCIL@Ex_SetToggleState_DrawButton@ 10048e98     ExControl:ExDrawButton.obj
 0002:00006eb8       ??_C@_0BM@KGOCHHHE@Ex_ReleasePushed_DrawButton@ 10048eb8     ExControl:ExDrawButton.obj
 0002:00006ed4       ??_C@_0BI@HIINLFG@Ex_OnClicked_DrawButton@ 10048ed4     ExControl:ExDrawButton.obj
 0002:00006eec       ??_C@_0BN@KLLBCGDD@Ex_AddToggleGroup_DrawButton@ 10048eec     ExControl:ExDrawButton.obj
 0002:00006f44       ?classCExEdit@CExEdit@@2UCRuntimeClass@@B 10048f44     ExControl:ExEdit.obj
 0002:00006f64       ??_7CExEdit@@6B@           10048f64     ExControl:ExEdit.obj
 0002:000070d4       ??_7CLoaderEdit@@6B@       100490d4     ExControl:ExEdit.obj
 0002:000070dc       ??_C@_0L@NKPAHHOE@ExEdit?4dll@ 100490dc     ExControl:ExEdit.obj
 0002:000070e8       ??_C@_0M@DBNLCNAH@Ex_InitEdit@ 100490e8     ExControl:ExEdit.obj
 0002:000070f4       ??_C@_0N@HDCFBKPP@Ex_InitEdit2@ 100490f4     ExControl:ExEdit.obj
 0002:00007104       ??_C@_0M@GNDLOGLP@Ex_ExitEdit@ 10049104     ExControl:ExEdit.obj
 0002:00007110       ??_C@_0P@DIFJMIAG@Ex_OnPaintEdit@ 10049110     ExControl:ExEdit.obj
 0002:00007120       ??_C@_0BC@LHGGOIBI@Ex_UseNumericType@ 10049120     ExControl:ExEdit.obj
 0002:00007134       ??_C@_0P@EGJDFMEM@Ex_OnChar_Edit@ 10049134     ExControl:ExEdit.obj
 0002:00007144       ??_C@_07OEIPMLNK@CExEdit@  10049144     ExControl:ExEdit.obj
 0002:000071a4       ??_7CExButton@@6B@         100491a4     ExControl:ExButton.obj
 0002:0000733c       ??_7?$CArray@PAXPAX@@6B@   1004933c     ExControl:StdAfx.obj
 0002:00007350       ??_C@_0BN@HFGHFFIN@SetPermanentHandle?5?$CF08X?$DN?$CF0X?6@ 10049350     ExControl:StdAfx.obj
 0002:00007370       __pAtlLcidToLocaleNameTable 10049370     mfcs140:nolib.obj
 0002:00007a90       ??_C@_15EMKDOKLE@?$AAa?$AAr@ 10049a90     mfcs140:nolib.obj
 0002:00007a98       ??_C@_15KNPADPLH@?$AAb?$AAg@ 10049a98     mfcs140:nolib.obj
 0002:00007aa0       ??_C@_15EDMHLDMO@?$AAc?$AAa@ 10049aa0     mfcs140:nolib.obj
 0002:00007aa8       ??_C@_1O@BPEAJADD@?$AAz?$AAh?$AA?9?$AAC?$AAH?$AAS@ 10049aa8     mfcs140:nolib.obj
 0002:00007ab8       ??_C@_15LJNHCMNK@?$AAc?$AAs@ 10049ab8     mfcs140:nolib.obj
 0002:00007ac0       ??_C@_15FOMCIDHG@?$AAd?$AAa@ 10049ac0     mfcs140:nolib.obj
 0002:00007ac8       ??_C@_15NBKABECB@?$AAd?$AAe@ 10049ac8     mfcs140:nolib.obj
 0002:00007ad0       ??_C@_15GHPEIIAO@?$AAe?$AAl@ 10049ad0     mfcs140:nolib.obj
 0002:00007ad8       ??_C@_15MNPNEAIF@?$AAe?$AAn@ 10049ad8     mfcs140:nolib.obj
 0002:00007ae0       ??_C@_15GPIOMPMH@?$AAe?$AAs@ 10049ae0     mfcs140:nolib.obj
 0002:00007ae8       ??_C@_15NGLOAKJC@?$AAf?$AAi@ 10049ae8     mfcs140:nolib.obj
 0002:00007af0       ??_C@_15FBKGNKAM@?$AAf?$AAr@ 10049af0     mfcs140:nolib.obj
 0002:00007af8       ??_C@_15KGGCNEFK@?$AAh?$AAe@ 10049af8     mfcs140:nolib.obj
 0002:00007b00       ??_C@_15PGHLIDMF@?$AAh?$AAu@ 10049b00     mfcs140:nolib.obj
 0002:00007b08       ??_C@_15BIEMAPLM@?$AAi?$AAs@ 10049b08     mfcs140:nolib.obj
 0002:00007b10       ??_C@_15IFJLDHAF@?$AAi?$AAt@ 10049b10     mfcs140:nolib.obj
 0002:00007b18       ??_C@_15GEMIOCAG@?$AAj?$AAa@ 10049b18     mfcs140:nolib.obj
 0002:00007b20       ??_C@_15EPELEGJA@?$AAk?$AAo@ 10049b20     mfcs140:nolib.obj
 0002:00007b28       ??_C@_15NDDHIMN@?$AAn?$AAl@ 10049b28     mfcs140:nolib.obj
 0002:00007b30       ??_C@_15BPIGNHCD@?$AAn?$AAo@ 10049b30     mfcs140:nolib.obj
 0002:00007b38       ??_C@_15DEOPBLCG@?$AAp?$AAl@ 10049b38     mfcs140:nolib.obj
 0002:00007b40       ??_C@_15KBECGEFG@?$AAp?$AAt@ 10049b40     mfcs140:nolib.obj
 0002:00007b48       ??_C@_15GLJCBFMD@?$AAr?$AAo@ 10049b48     mfcs140:nolib.obj
 0002:00007b50       ??_C@_15FEDGKCDI@?$AAr?$AAu@ 10049b50     mfcs140:nolib.obj
 0002:00007b58       ??_C@_15GLKMLLHM@?$AAh?$AAr@ 10049b58     mfcs140:nolib.obj
 0002:00007b60       ??_C@_15CPKMFBDB@?$AAs?$AAk@ 10049b60     mfcs140:nolib.obj
 0002:00007b68       ??_C@_15BAAIOGMK@?$AAs?$AAq@ 10049b68     mfcs140:nolib.obj
 0002:00007b70       ??_C@_15INNPNOHD@?$AAs?$AAv@ 10049b70     mfcs140:nolib.obj
 0002:00007b78       ??_C@_15CABMMOGH@?$AAt?$AAh@ 10049b78     mfcs140:nolib.obj
 0002:00007b80       ??_C@_15BPLIHJJM@?$AAt?$AAr@ 10049b80     mfcs140:nolib.obj
 0002:00007b88       ??_C@_15NEOEKKDJ@?$AAu?$AAr@ 10049b88     mfcs140:nolib.obj
 0002:00007b90       ??_C@_15NFICGAJK@?$AAi?$AAd@ 10049b90     mfcs140:nolib.obj
 0002:00007b98       ??_C@_15PJPFLCCM@?$AAu?$AAk@ 10049b98     mfcs140:nolib.obj
 0002:00007ba0       ??_C@_15HPJPHDM@?$AAb?$AAe@ 10049ba0     mfcs140:nolib.obj
 0002:00007ba8       ??_C@_15LCHLGJII@?$AAs?$AAl@ 10049ba8     mfcs140:nolib.obj
 0002:00007bb0       ??_C@_15PCFJPHHO@?$AAe?$AAt@ 10049bb0     mfcs140:nolib.obj
 0002:00007bb8       ??_C@_15HPFPGODN@?$AAl?$AAv@ 10049bb8     mfcs140:nolib.obj
 0002:00007bc0       ??_C@_15NFFGKGLG@?$AAl?$AAt@ 10049bc0     mfcs140:nolib.obj
 0002:00007bc8       ??_C@_15BDAKCCHN@?$AAf?$AAa@ 10049bc8     mfcs140:nolib.obj
 0002:00007bd0       ??_C@_15NFGIAIAJ@?$AAv?$AAi@ 10049bd0     mfcs140:nolib.obj
 0002:00007bd8       ??_C@_15LMKNDMHN@?$AAh?$AAy@ 10049bd8     mfcs140:nolib.obj
 0002:00007be0       ??_C@_15IJBHMCFL@?$AAa?$AAz@ 10049be0     mfcs140:nolib.obj
 0002:00007be8       ??_C@_15EKOFJABL@?$AAe?$AAu@ 10049be8     mfcs140:nolib.obj
 0002:00007bf0       ??_C@_15BGHADCNK@?$AAm?$AAk@ 10049bf0     mfcs140:nolib.obj
 0002:00007bf8       ??_C@_15JDNICKHM@?$AAa?$AAf@ 10049bf8     mfcs140:nolib.obj
 0002:00007c00       ??_C@_15KPJEDBKD@?$AAk?$AAa@ 10049c00     mfcs140:nolib.obj
 0002:00007c08       ??_C@_15PDNFFFEO@?$AAf?$AAo@ 10049c08     mfcs140:nolib.obj
 0002:00007c10       ??_C@_15OMLEGLOC@?$AAh?$AAi@ 10049c10     mfcs140:nolib.obj
 0002:00007c18       ??_C@_15IDNNENKK@?$AAm?$AAs@ 10049c18     mfcs140:nolib.obj
 0002:00007c20       ??_C@_15MACJNBMH@?$AAk?$AAk@ 10049c20     mfcs140:nolib.obj
 0002:00007c28       ??_C@_15DKDJEOND@?$AAk?$AAy@ 10049c28     mfcs140:nolib.obj
 0002:00007c30       ??_C@_15DFGDLJBG@?$AAs?$AAw@ 10049c30     mfcs140:nolib.obj
 0002:00007c38       ??_C@_15BBFAICNG@?$AAu?$AAz@ 10049c38     mfcs140:nolib.obj
 0002:00007c40       ??_C@_15DKNDCGEA@?$AAt?$AAt@ 10049c40     mfcs140:nolib.obj
 0002:00007c48       ??_C@_15MGIFMDPL@?$AAp?$AAa@ 10049c48     mfcs140:nolib.obj
 0002:00007c50       ??_C@_15HCNDBBA@?$AAg?$AAu@ 10049c50     mfcs140:nolib.obj
 0002:00007c58       ??_C@_15FNBEIBON@?$AAt?$AAa@ 10049c58     mfcs140:nolib.obj
 0002:00007c60       ??_C@_15NCHGBGLK@?$AAt?$AAe@ 10049c60     mfcs140:nolib.obj
 0002:00007c68       ??_C@_15PHPHCBPF@?$AAk?$AAn@ 10049c68     mfcs140:nolib.obj
 0002:00007c70       ??_C@_15DLGBCKMP@?$AAm?$AAr@ 10049c70     mfcs140:nolib.obj
 0002:00007c78       ??_C@_15EABBLBFF@?$AAs?$AAa@ 10049c78     mfcs140:nolib.obj
 0002:00007c80       ??_C@_15CBKOMCOI@?$AAm?$AAn@ 10049c80     mfcs140:nolib.obj
 0002:00007c88       ??_C@_15CKDMCJAF@?$AAg?$AAl@ 10049c88     mfcs140:nolib.obj
 0002:00007c90       ??_C@_17CNJFBPG@?$AAk?$AAo?$AAk@ 10049c90     mfcs140:nolib.obj
 0002:00007c98       ??_C@_17FFBJICPL@?$AAs?$AAy?$AAr@ 10049c98     mfcs140:nolib.obj
 0002:00007ca0       ??_C@_17KPNDCPAF@?$AAd?$AAi?$AAv@ 10049ca0     mfcs140:nolib.obj
 0002:00007ca8       ??_C@_11LOCGONAA@@         10049ca8     mfcs140:nolib.obj
 0002:00007cac       ??_C@_1M@OKAHONE@?$AAa?$AAr?$AA?9?$AAS?$AAA@ 10049cac     mfcs140:nolib.obj
 0002:00007cb8       ??_C@_1M@FFFIGIGK@?$AAb?$AAg?$AA?9?$AAB?$AAG@ 10049cb8     mfcs140:nolib.obj
 0002:00007cc4       ??_C@_1M@BJNKEDC@?$AAc?$AAa?$AA?9?$AAE?$AAS@ 10049cc4     mfcs140:nolib.obj
 0002:00007cd0       ??_C@_1M@CLNBBOPM@?$AAz?$AAh?$AA?9?$AAT?$AAW@ 10049cd0     mfcs140:nolib.obj
 0002:00007cdc       ??_C@_1M@IJJHFJHA@?$AAc?$AAs?$AA?9?$AAC?$AAZ@ 10049cdc     mfcs140:nolib.obj
 0002:00007ce8       ??_C@_1M@CLPEOBGI@?$AAd?$AAa?$AA?9?$AAD?$AAK@ 10049ce8     mfcs140:nolib.obj
 0002:00007cf4       ??_C@_1M@MCMADGCB@?$AAd?$AAe?$AA?9?$AAD?$AAE@ 10049cf4     mfcs140:nolib.obj
 0002:00007d00       ??_C@_1M@OOCKEMAM@?$AAe?$AAl?$AA?9?$AAG?$AAR@ 10049d00     mfcs140:nolib.obj
 0002:00007d0c       ??_C@_1M@BMHNFIME@?$AAe?$AAn?$AA?9?$AAU?$AAS@ 10049d0c     mfcs140:nolib.obj
 0002:00007d18       ??_C@_1M@DDNJFGID@?$AAf?$AAi?$AA?9?$AAF?$AAI@ 10049d18     mfcs140:nolib.obj
 0002:00007d24       ??_C@_1M@GLIPPMAC@?$AAf?$AAr?$AA?9?$AAF?$AAR@ 10049d24     mfcs140:nolib.obj
 0002:00007d30       ??_C@_1M@GFMCHPE@?$AAh?$AAe?$AA?9?$AAI?$AAL@ 10049d30     mfcs140:nolib.obj
 0002:00007d3c       ??_C@_1M@MHLPGNKM@?$AAh?$AAu?$AA?9?$AAH?$AAU@ 10049d3c     mfcs140:nolib.obj
 0002:00007d48       ??_C@_1M@LPDDNNPN@?$AAi?$AAs?$AA?9?$AAI?$AAS@ 10049d48     mfcs140:nolib.obj
 0002:00007d54       ??_C@_1M@MADIPODN@?$AAi?$AAt?$AA?9?$AAI?$AAT@ 10049d54     mfcs140:nolib.obj
 0002:00007d60       ??_C@_1M@HPNHIDJI@?$AAj?$AAa?$AA?9?$AAJ?$AAP@ 10049d60     mfcs140:nolib.obj
 0002:00007d6c       ??_C@_1M@JLOOOEGK@?$AAk?$AAo?$AA?9?$AAK?$AAR@ 10049d6c     mfcs140:nolib.obj
 0002:00007d78       ??_C@_1M@IHBJJGG@?$AAn?$AAl?$AA?9?$AAN?$AAL@ 10049d78     mfcs140:nolib.obj
 0002:00007d84       ??_C@_1M@EANAGDL@?$AAn?$AAb?$AA?9?$AAN?$AAO@ 10049d84     mfcs140:nolib.obj
 0002:00007d90       ??_C@_1M@NEIEMEGP@?$AAp?$AAl?$AA?9?$AAP?$AAL@ 10049d90     mfcs140:nolib.obj
 0002:00007d9c       ??_C@_1M@BOCFIGEP@?$AAp?$AAt?$AA?9?$AAB?$AAR@ 10049d9c     mfcs140:nolib.obj
 0002:00007da8       ??_C@_1M@IMPFOPBG@?$AAr?$AAo?$AA?9?$AAR?$AAO@ 10049da8     mfcs140:nolib.obj
 0002:00007db4       ??_C@_1M@IDNNEJMM@?$AAr?$AAu?$AA?9?$AAR?$AAU@ 10049db4     mfcs140:nolib.obj
 0002:00007dc0       ??_C@_1M@LILEEOGM@?$AAh?$AAr?$AA?9?$AAH?$AAR@ 10049dc0     mfcs140:nolib.obj
 0002:00007dcc       ??_C@_1M@FKIFEHPB@?$AAs?$AAk?$AA?9?$AAS?$AAK@ 10049dcc     mfcs140:nolib.obj
 0002:00007dd8       ??_C@_1M@LJMAMNPJ@?$AAs?$AAq?$AA?9?$AAA?$AAL@ 10049dd8     mfcs140:nolib.obj
 0002:00007de4       ??_C@_1M@GIAKDKJK@?$AAs?$AAv?$AA?9?$AAS?$AAE@ 10049de4     mfcs140:nolib.obj
 0002:00007df0       ??_C@_1M@MKJKIKCL@?$AAt?$AAh?$AA?9?$AAT?$AAH@ 10049df0     mfcs140:nolib.obj
 0002:00007dfc       ??_C@_1M@MFLCCMPB@?$AAt?$AAr?$AA?9?$AAT?$AAR@ 10049dfc     mfcs140:nolib.obj
 0002:00007e08       ??_C@_1M@OIJHDKJN@?$AAu?$AAr?$AA?9?$AAP?$AAK@ 10049e08     mfcs140:nolib.obj
 0002:00007e14       ??_C@_1M@LHIPCIEK@?$AAi?$AAd?$AA?9?$AAI?$AAD@ 10049e14     mfcs140:nolib.obj
 0002:00007e20       ??_C@_1M@MFMOBGI@?$AAu?$AAk?$AA?9?$AAU?$AAA@ 10049e20     mfcs140:nolib.obj
 0002:00007e2c       ??_C@_1M@OBGLJIPL@?$AAb?$AAe?$AA?9?$AAB?$AAY@ 10049e2c     mfcs140:nolib.obj
 0002:00007e38       ??_C@_1M@BCFAJEAD@?$AAs?$AAl?$AA?9?$AAS?$AAI@ 10049e38     mfcs140:nolib.obj
 0002:00007e44       ??_C@_1M@FKFFEDDN@?$AAe?$AAt?$AA?9?$AAE?$AAE@ 10049e44     mfcs140:nolib.obj
 0002:00007e50       ??_C@_1M@KGKKAACI@?$AAl?$AAv?$AA?9?$AAL?$AAV@ 10049e50     mfcs140:nolib.obj
 0002:00007e5c       ??_C@_1M@IFGBIJO@?$AAl?$AAt?$AA?9?$AAL?$AAT@ 10049e5c     mfcs140:nolib.obj
 0002:00007e68       ??_C@_1M@FGEAHEDM@?$AAf?$AAa?$AA?9?$AAI?$AAR@ 10049e68     mfcs140:nolib.obj
 0002:00007e74       ??_C@_1M@KBMAIBFN@?$AAv?$AAi?$AA?9?$AAV?$AAN@ 10049e74     mfcs140:nolib.obj
 0002:00007e80       ??_C@_1M@GPCBKDJK@?$AAh?$AAy?$AA?9?$AAA?$AAM@ 10049e80     mfcs140:nolib.obj
 0002:00007e8c       ??_C@_1BG@BECMDDJB@?$AAa?$AAz?$AA?9?$AAA?$AAZ?$AA?9?$AAL?$AAa?$AAt?$AAn@ 10049e8c     mfcs140:nolib.obj
 0002:00007ea4       ??_C@_1M@MAOFCAEA@?$AAe?$AAu?$AA?9?$AAE?$AAS@ 10049ea4     mfcs140:nolib.obj
 0002:00007eb0       ??_C@_1M@IGHABKPI@?$AAm?$AAk?$AA?9?$AAM?$AAK@ 10049eb0     mfcs140:nolib.obj
 0002:00007ebc       ??_C@_1M@IAIGNEJG@?$AAt?$AAn?$AA?9?$AAZ?$AAA@ 10049ebc     mfcs140:nolib.obj
 0002:00007ec8       ??_C@_1M@IIJCOJFA@?$AAx?$AAh?$AA?9?$AAZ?$AAA@ 10049ec8     mfcs140:nolib.obj
 0002:00007ed4       ??_C@_1M@LGPJHNJH@?$AAz?$AAu?$AA?9?$AAZ?$AAA@ 10049ed4     mfcs140:nolib.obj
 0002:00007ee0       ??_C@_1M@HOKAOIO@?$AAa?$AAf?$AA?9?$AAZ?$AAA@ 10049ee0     mfcs140:nolib.obj
 0002:00007eec       ??_C@_1M@DPCLHLIE@?$AAk?$AAa?$AA?9?$AAG?$AAE@ 10049eec     mfcs140:nolib.obj
 0002:00007ef8       ??_C@_1M@BLKMHJBI@?$AAf?$AAo?$AA?9?$AAF?$AAO@ 10049ef8     mfcs140:nolib.obj
 0002:00007f04       ??_C@_1M@LGGJAPPB@?$AAh?$AAi?$AA?9?$AAI?$AAN@ 10049f04     mfcs140:nolib.obj
 0002:00007f10       ??_C@_1M@FIKPIHFE@?$AAm?$AAt?$AA?9?$AAM?$AAT@ 10049f10     mfcs140:nolib.obj
 0002:00007f1c       ??_C@_1M@HEGGPBFA@?$AAs?$AAe?$AA?9?$AAN?$AAO@ 10049f1c     mfcs140:nolib.obj
 0002:00007f28       ??_C@_1M@EIBJEEPA@?$AAm?$AAs?$AA?9?$AAM?$AAY@ 10049f28     mfcs140:nolib.obj
 0002:00007f34       ??_C@_1M@FHLBGMPP@?$AAk?$AAk?$AA?9?$AAK?$AAZ@ 10049f34     mfcs140:nolib.obj
 0002:00007f40       ??_C@_1M@NGJJLCGI@?$AAk?$AAy?$AA?9?$AAK?$AAG@ 10049f40     mfcs140:nolib.obj
 0002:00007f4c       ??_C@_1M@GIENNBFC@?$AAs?$AAw?$AA?9?$AAK?$AAE@ 10049f4c     mfcs140:nolib.obj
 0002:00007f58       ??_C@_1BG@NDGMJIMJ@?$AAu?$AAz?$AA?9?$AAU?$AAZ?$AA?9?$AAL?$AAa?$AAt?$AAn@ 10049f58     mfcs140:nolib.obj
 0002:00007f70       ??_C@_1M@IDCCIHBC@?$AAt?$AAt?$AA?9?$AAR?$AAU@ 10049f70     mfcs140:nolib.obj
 0002:00007f7c       ??_C@_1M@LOICPMOJ@?$AAb?$AAn?$AA?9?$AAI?$AAN@ 10049f7c     mfcs140:nolib.obj
 0002:00007f88       ??_C@_1M@KPKKNEAH@?$AAp?$AAa?$AA?9?$AAI?$AAN@ 10049f88     mfcs140:nolib.obj
 0002:00007f94       ??_C@_1M@PJGPPBOG@?$AAg?$AAu?$AA?9?$AAI?$AAN@ 10049f94     mfcs140:nolib.obj
 0002:00007fa0       ??_C@_1M@KMKMOPHI@?$AAt?$AAa?$AA?9?$AAI?$AAN@ 10049fa0     mfcs140:nolib.obj
 0002:00007fac       ??_C@_1M@KFEHEPAC@?$AAt?$AAe?$AA?9?$AAI?$AAN@ 10049fac     mfcs140:nolib.obj
 0002:00007fb8       ??_C@_1M@CDCLMGHI@?$AAk?$AAn?$AA?9?$AAI?$AAN@ 10049fb8     mfcs140:nolib.obj
 0002:00007fc4       ??_C@_1M@MIODLDKF@?$AAm?$AAl?$AA?9?$AAI?$AAN@ 10049fc4     mfcs140:nolib.obj
 0002:00007fd0       ??_C@_1M@PBIEACPO@?$AAm?$AAr?$AA?9?$AAI?$AAN@ 10049fd0     mfcs140:nolib.obj
 0002:00007fdc       ??_C@_1M@NIDEAGPH@?$AAs?$AAa?$AA?9?$AAI?$AAN@ 10049fdc     mfcs140:nolib.obj
 0002:00007fe8       ??_C@_1M@FHIHCBIO@?$AAm?$AAn?$AA?9?$AAM?$AAN@ 10049fe8     mfcs140:nolib.obj
 0002:00007ff4       ??_C@_1M@JAIJPENP@?$AAc?$AAy?$AA?9?$AAG?$AAB@ 10049ff4     mfcs140:nolib.obj
 0002:00008000       ??_C@_1M@PHGFBEPN@?$AAg?$AAl?$AA?9?$AAE?$AAS@ 1004a000     mfcs140:nolib.obj
 0002:0000800c       ??_C@_1O@KPIPDNCP@?$AAk?$AAo?$AAk?$AA?9?$AAI?$AAN@ 1004a00c     mfcs140:nolib.obj
 0002:0000801c       ??_C@_1O@KNHJLDJA@?$AAs?$AAy?$AAr?$AA?9?$AAS?$AAY@ 1004a01c     mfcs140:nolib.obj
 0002:0000802c       ??_C@_1O@MKEKBLAH@?$AAd?$AAi?$AAv?$AA?9?$AAM?$AAV@ 1004a02c     mfcs140:nolib.obj
 0002:0000803c       ??_C@_1O@OHDCKDDF@?$AAq?$AAu?$AAz?$AA?9?$AAB?$AAO@ 1004a03c     mfcs140:nolib.obj
 0002:0000804c       ??_C@_1M@LEPJNLFD@?$AAn?$AAs?$AA?9?$AAZ?$AAA@ 1004a04c     mfcs140:nolib.obj
 0002:00008058       ??_C@_1M@OMLEIIJB@?$AAm?$AAi?$AA?9?$AAN?$AAZ@ 1004a058     mfcs140:nolib.obj
 0002:00008064       ??_C@_1M@PMPEAILG@?$AAa?$AAr?$AA?9?$AAI?$AAQ@ 1004a064     mfcs140:nolib.obj
 0002:00008070       ??_C@_1M@BIBDDEMK@?$AAz?$AAh?$AA?9?$AAC?$AAN@ 1004a070     mfcs140:nolib.obj
 0002:0000807c       ??_C@_1M@CNKPNOEE@?$AAd?$AAe?$AA?9?$AAC?$AAH@ 1004a07c     mfcs140:nolib.obj
 0002:00008088       ??_C@_1M@LKMGMLKO@?$AAe?$AAn?$AA?9?$AAG?$AAB@ 1004a088     mfcs140:nolib.obj
 0002:00008094       ??_C@_1M@PGKJFFGL@?$AAe?$AAs?$AA?9?$AAM?$AAX@ 1004a094     mfcs140:nolib.obj
 0002:000080a0       ??_C@_1M@DNNANBDC@?$AAf?$AAr?$AA?9?$AAB?$AAE@ 1004a0a0     mfcs140:nolib.obj
 0002:000080ac       ??_C@_1M@HLGMDFHM@?$AAi?$AAt?$AA?9?$AAC?$AAH@ 1004a0ac     mfcs140:nolib.obj
 0002:000080b8       ??_C@_1M@CLLBGJH@?$AAn?$AAl?$AA?9?$AAB?$AAE@ 1004a0b8     mfcs140:nolib.obj
 0002:000080c4       ??_C@_1M@BODBOGLF@?$AAn?$AAn?$AA?9?$AAN?$AAO@ 1004a0c4     mfcs140:nolib.obj
 0002:000080d0       ??_C@_1M@HFFAHKAD@?$AAp?$AAt?$AA?9?$AAP?$AAT@ 1004a0d0     mfcs140:nolib.obj
 0002:000080dc       ??_C@_1BG@LNOAKHIE@?$AAs?$AAr?$AA?9?$AAS?$AAP?$AA?9?$AAL?$AAa?$AAt?$AAn@ 1004a0dc     mfcs140:nolib.obj
 0002:000080f4       ??_C@_1M@HBMHBGAK@?$AAs?$AAv?$AA?9?$AAF?$AAI@ 1004a0f4     mfcs140:nolib.obj
 0002:00008100       ??_C@_1BG@DGCJGJBE@?$AAa?$AAz?$AA?9?$AAA?$AAZ?$AA?9?$AAC?$AAy?$AAr?$AAl@ 1004a100     mfcs140:nolib.obj
 0002:00008118       ??_C@_1M@KEJDAAHB@?$AAs?$AAe?$AA?9?$AAS?$AAE@ 1004a118     mfcs140:nolib.obj
 0002:00008124       ??_C@_1M@HEIBJJAD@?$AAm?$AAs?$AA?9?$AAB?$AAN@ 1004a124     mfcs140:nolib.obj
 0002:00008130       ??_C@_1BG@PBGJMCEM@?$AAu?$AAz?$AA?9?$AAU?$AAZ?$AA?9?$AAC?$AAy?$AAr?$AAl@ 1004a130     mfcs140:nolib.obj
 0002:00008148       ??_C@_1O@LAOBCMDF@?$AAq?$AAu?$AAz?$AA?9?$AAE?$AAC@ 1004a148     mfcs140:nolib.obj
 0002:00008158       ??_C@_1M@POEEMAIO@?$AAa?$AAr?$AA?9?$AAE?$AAG@ 1004a158     mfcs140:nolib.obj
 0002:00008164       ??_C@_1M@EFAKDEDL@?$AAz?$AAh?$AA?9?$AAH?$AAK@ 1004a164     mfcs140:nolib.obj
 0002:00008170       ??_C@_1M@HKKIJHGI@?$AAd?$AAe?$AA?9?$AAA?$AAT@ 1004a170     mfcs140:nolib.obj
 0002:0000817c       ??_C@_1M@KBFBEHJF@?$AAe?$AAn?$AA?9?$AAA?$AAU@ 1004a17c     mfcs140:nolib.obj
 0002:00008188       ??_C@_1M@MNPLFAAH@?$AAe?$AAs?$AA?9?$AAE?$AAS@ 1004a188     mfcs140:nolib.obj
 0002:00008194       ??_C@_1M@HJOOJFMA@?$AAf?$AAr?$AA?9?$AAC?$AAA@ 1004a194     mfcs140:nolib.obj
 0002:000081a0       ??_C@_1BG@JPOFPNAB@?$AAs?$AAr?$AA?9?$AAS?$AAP?$AA?9?$AAC?$AAy?$AAr?$AAl@ 1004a1a0     mfcs140:nolib.obj
 0002:000081b8       ??_C@_1M@LNFOCMOB@?$AAs?$AAe?$AA?9?$AAF?$AAI@ 1004a1b8     mfcs140:nolib.obj
 0002:000081c4       ??_C@_1O@MGJBOAMB@?$AAq?$AAu?$AAz?$AA?9?$AAP?$AAE@ 1004a1c4     mfcs140:nolib.obj
 0002:000081d4       ??_C@_1M@GJINLBOK@?$AAa?$AAr?$AA?9?$AAL?$AAY@ 1004a1d4     mfcs140:nolib.obj
 0002:000081e0       ??_C@_1M@GGMNHJNL@?$AAz?$AAh?$AA?9?$AAS?$AAG@ 1004a1e0     mfcs140:nolib.obj
 0002:000081ec       ??_C@_1M@HOIKODND@?$AAd?$AAe?$AA?9?$AAL?$AAU@ 1004a1ec     mfcs140:nolib.obj
 0002:000081f8       ??_C@_1M@DDOCCGFG@?$AAe?$AAn?$AA?9?$AAC?$AAA@ 1004a1f8     mfcs140:nolib.obj
 0002:00008204       ??_C@_1M@BNOEMJLF@?$AAe?$AAs?$AA?9?$AAG?$AAT@ 1004a204     mfcs140:nolib.obj
 0002:00008210       ??_C@_1M@EOGNKEK@?$AAf?$AAr?$AA?9?$AAC?$AAH@ 1004a210     mfcs140:nolib.obj
 0002:0000821c       ??_C@_1M@FLIDJFHL@?$AAh?$AAr?$AA?9?$AAB?$AAA@ 1004a21c     mfcs140:nolib.obj
 0002:00008228       ??_C@_1O@FMCELNAJ@?$AAs?$AAm?$AAj?$AA?9?$AAN?$AAO@ 1004a228     mfcs140:nolib.obj
 0002:00008238       ??_C@_1M@JHGLJMGJ@?$AAa?$AAr?$AA?9?$AAD?$AAZ@ 1004a238     mfcs140:nolib.obj
 0002:00008244       ??_C@_1M@JKKFDCNP@?$AAz?$AAh?$AA?9?$AAM?$AAO@ 1004a244     mfcs140:nolib.obj
 0002:00008250       ??_C@_1M@GEEFALPE@?$AAd?$AAe?$AA?9?$AAL?$AAI@ 1004a250     mfcs140:nolib.obj
 0002:0000825c       ??_C@_1M@IGEOFBG@?$AAe?$AAn?$AA?9?$AAN?$AAZ@ 1004a25c     mfcs140:nolib.obj
 0002:00008268       ??_C@_1M@KDBONEHP@?$AAe?$AAs?$AA?9?$AAC?$AAR@ 1004a268     mfcs140:nolib.obj
 0002:00008274       ??_C@_1M@FHMDOHNN@?$AAf?$AAr?$AA?9?$AAL?$AAU@ 1004a274     mfcs140:nolib.obj
 0002:00008280       ??_C@_1BG@NFKKMAFG@?$AAb?$AAs?$AA?9?$AAB?$AAA?$AA?9?$AAL?$AAa?$AAt?$AAn@ 1004a280     mfcs140:nolib.obj
 0002:00008298       ??_C@_1O@IMNBEMCI@?$AAs?$AAm?$AAj?$AA?9?$AAS?$AAE@ 1004a298     mfcs140:nolib.obj
 0002:000082a8       ??_C@_1M@DHHMBNDP@?$AAa?$AAr?$AA?9?$AAM?$AAA@ 1004a2a8     mfcs140:nolib.obj
 0002:000082b4       ??_C@_1M@BNBLJCGH@?$AAe?$AAn?$AA?9?$AAI?$AAE@ 1004a2b4     mfcs140:nolib.obj
 0002:000082c0       ??_C@_1M@GEPAFMDL@?$AAe?$AAs?$AA?9?$AAP?$AAA@ 1004a2c0     mfcs140:nolib.obj
 0002:000082cc       ??_C@_1M@OJONDMDL@?$AAf?$AAr?$AA?9?$AAM?$AAC@ 1004a2cc     mfcs140:nolib.obj
 0002:000082d8       ??_C@_1BG@OBCNFJB@?$AAs?$AAr?$AA?9?$AAB?$AAA?$AA?9?$AAL?$AAa?$AAt?$AAn@ 1004a2d8     mfcs140:nolib.obj
 0002:000082f0       ??_C@_1O@KEMEEGPO@?$AAs?$AAm?$AAa?$AA?9?$AAN?$AAO@ 1004a2f0     mfcs140:nolib.obj
 0002:00008300       ??_C@_1M@ELMGFODK@?$AAa?$AAr?$AA?9?$AAT?$AAN@ 1004a300     mfcs140:nolib.obj
 0002:0000830c       ??_C@_1M@BHDLHFAF@?$AAe?$AAn?$AA?9?$AAZ?$AAA@ 1004a30c     mfcs140:nolib.obj
 0002:00008318       ??_C@_1M@BMGIGLIF@?$AAe?$AAs?$AA?9?$AAD?$AAO@ 1004a318     mfcs140:nolib.obj
 0002:00008324       ??_C@_1BG@CMBHIPBE@?$AAs?$AAr?$AA?9?$AAB?$AAA?$AA?9?$AAC?$AAy?$AAr?$AAl@ 1004a324     mfcs140:nolib.obj
 0002:0000833c       ??_C@_1O@HEDBLHNP@?$AAs?$AAm?$AAa?$AA?9?$AAS?$AAE@ 1004a33c     mfcs140:nolib.obj
 0002:0000834c       ??_C@_1M@DAGCADIM@?$AAa?$AAr?$AA?9?$AAO?$AAM@ 1004a34c     mfcs140:nolib.obj
 0002:00008358       ??_C@_1M@FODLMICG@?$AAe?$AAn?$AA?9?$AAJ?$AAM@ 1004a358     mfcs140:nolib.obj
 0002:00008364       ??_C@_1M@DNMLCIHB@?$AAe?$AAs?$AA?9?$AAV?$AAE@ 1004a364     mfcs140:nolib.obj
 0002:00008370       ??_C@_1O@EOKHMKJK@?$AAs?$AAm?$AAs?$AA?9?$AAF?$AAI@ 1004a370     mfcs140:nolib.obj
 0002:00008380       ??_C@_1M@CAFJMKOF@?$AAa?$AAr?$AA?9?$AAY?$AAE@ 1004a380     mfcs140:nolib.obj
 0002:0000838c       ??_C@_1M@CBFHIJLI@?$AAe?$AAn?$AA?9?$AAC?$AAB@ 1004a38c     mfcs140:nolib.obj
 0002:00008398       ??_C@_1M@BGNFLDN@?$AAe?$AAs?$AA?9?$AAC?$AAO@ 1004a398     mfcs140:nolib.obj
 0002:000083a4       ??_C@_1O@JMPHMAMC@?$AAs?$AAm?$AAn?$AA?9?$AAF?$AAI@ 1004a3a4     mfcs140:nolib.obj
 0002:000083b4       ??_C@_1M@JLANABKE@?$AAa?$AAr?$AA?9?$AAS?$AAY@ 1004a3b4     mfcs140:nolib.obj
 0002:000083c0       ??_C@_1M@HPKGCFGN@?$AAe?$AAn?$AA?9?$AAB?$AAZ@ 1004a3c0     mfcs140:nolib.obj
 0002:000083cc       ??_C@_1M@OLJCMLGM@?$AAe?$AAs?$AA?9?$AAP?$AAE@ 1004a3cc     mfcs140:nolib.obj
 0002:000083d8       ??_C@_1M@MKKGFKLE@?$AAa?$AAr?$AA?9?$AAJ?$AAO@ 1004a3d8     mfcs140:nolib.obj
 0002:000083e4       ??_C@_1M@EKPGLDNI@?$AAe?$AAn?$AA?9?$AAT?$AAT@ 1004a3e4     mfcs140:nolib.obj
 0002:000083f0       ??_C@_1M@OONGHFHE@?$AAe?$AAs?$AA?9?$AAA?$AAR@ 1004a3f0     mfcs140:nolib.obj
 0002:000083fc       ??_C@_1M@OOJFGBHE@?$AAa?$AAr?$AA?9?$AAL?$AAB@ 1004a3fc     mfcs140:nolib.obj
 0002:00008408       ??_C@_1M@GCEJHNEG@?$AAe?$AAn?$AA?9?$AAZ?$AAW@ 1004a408     mfcs140:nolib.obj
 0002:00008414       ??_C@_1M@JNOCAHJI@?$AAe?$AAs?$AA?9?$AAE?$AAC@ 1004a414     mfcs140:nolib.obj
 0002:00008420       ??_C@_1M@JEFHPGGB@?$AAa?$AAr?$AA?9?$AAK?$AAW@ 1004a420     mfcs140:nolib.obj
 0002:0000842c       ??_C@_1M@MLKIBJOJ@?$AAe?$AAn?$AA?9?$AAP?$AAH@ 1004a42c     mfcs140:nolib.obj
 0002:00008438       ??_C@_1M@BDNIPEND@?$AAe?$AAs?$AA?9?$AAC?$AAL@ 1004a438     mfcs140:nolib.obj
 0002:00008444       ??_C@_1M@MPNMEKBD@?$AAa?$AAr?$AA?9?$AAA?$AAE@ 1004a444     mfcs140:nolib.obj
 0002:00008450       ??_C@_1M@KBJALCPI@?$AAe?$AAs?$AA?9?$AAU?$AAY@ 1004a450     mfcs140:nolib.obj
 0002:0000845c       ??_C@_1M@LLCCOAGA@?$AAa?$AAr?$AA?9?$AAB?$AAH@ 1004a45c     mfcs140:nolib.obj
 0002:00008468       ??_C@_1M@PBFNCDEL@?$AAe?$AAs?$AA?9?$AAP?$AAY@ 1004a468     mfcs140:nolib.obj
 0002:00008474       ??_C@_1M@EDGINPNP@?$AAa?$AAr?$AA?9?$AAQ?$AAA@ 1004a474     mfcs140:nolib.obj
 0002:00008480       ??_C@_1M@MKDBIIJI@?$AAe?$AAs?$AA?9?$AAB?$AAO@ 1004a480     mfcs140:nolib.obj
 0002:0000848c       ??_C@_1M@CPKKEBLD@?$AAe?$AAs?$AA?9?$AAS?$AAV@ 1004a48c     mfcs140:nolib.obj
 0002:00008498       ??_C@_1M@NDBGMMJL@?$AAe?$AAs?$AA?9?$AAH?$AAN@ 1004a498     mfcs140:nolib.obj
 0002:000084a4       ??_C@_1M@JIJIBHDP@?$AAe?$AAs?$AA?9?$AAN?$AAI@ 1004a4a4     mfcs140:nolib.obj
 0002:000084b0       ??_C@_1M@CGFMKEEK@?$AAe?$AAs?$AA?9?$AAP?$AAR@ 1004a4b0     mfcs140:nolib.obj
 0002:000084bc       ??_C@_1O@ICJHKIIK@?$AAz?$AAh?$AA?9?$AAC?$AAH?$AAT@ 1004a4bc     mfcs140:nolib.obj
 0002:000084cc       ??_C@_15CLNEJCE@?$AAs?$AAr@ 1004a4cc     mfcs140:nolib.obj
 0002:000084d8       __pAtlLocaleNameToIndexTable 1004a4d8     mfcs140:nolib.obj
 0002:00008bf8       ??_C@_1M@KAHEKEIG@?$AAa?$AAf?$AA?9?$AAz?$AAa@ 1004abf8     mfcs140:nolib.obj
 0002:00008c04       ??_C@_1M@GIECOABL@?$AAa?$AAr?$AA?9?$AAa?$AAe@ 1004ac04     mfcs140:nolib.obj
 0002:00008c10       ??_C@_1M@BMLMEKGI@?$AAa?$AAr?$AA?9?$AAb?$AAh@ 1004ac10     mfcs140:nolib.obj
 0002:00008c1c       ??_C@_1M@DAPFDGGB@?$AAa?$AAr?$AA?9?$AAd?$AAz@ 1004ac1c     mfcs140:nolib.obj
 0002:00008c28       ??_C@_1M@FJNKGKIG@?$AAa?$AAr?$AA?9?$AAe?$AAg@ 1004ac28     mfcs140:nolib.obj
 0002:00008c34       ??_C@_1M@FLGKKCLO@?$AAa?$AAr?$AA?9?$AAi?$AAq@ 1004ac34     mfcs140:nolib.obj
 0002:00008c40       ??_C@_1M@GNDIPALM@?$AAa?$AAr?$AA?9?$AAj?$AAo@ 1004ac40     mfcs140:nolib.obj
 0002:00008c4c       ??_C@_1M@DDMJFMGJ@?$AAa?$AAr?$AA?9?$AAk?$AAw@ 1004ac4c     mfcs140:nolib.obj
 0002:00008c58       ??_C@_1M@EJALMLHM@?$AAa?$AAr?$AA?9?$AAl?$AAb@ 1004ac58     mfcs140:nolib.obj
 0002:00008c64       ??_C@_1M@MOBDBLOC@?$AAa?$AAr?$AA?9?$AAl?$AAy@ 1004ac64     mfcs140:nolib.obj
 0002:00008c70       ??_C@_1M@JAOCLHDH@?$AAa?$AAr?$AA?9?$AAm?$AAa@ 1004ac70     mfcs140:nolib.obj
 0002:00008c7c       ??_C@_1M@JHPMKJIE@?$AAa?$AAr?$AA?9?$AAo?$AAm@ 1004ac7c     mfcs140:nolib.obj
 0002:00008c88       ??_C@_1M@OEPGHFNH@?$AAa?$AAr?$AA?9?$AAq?$AAa@ 1004ac88     mfcs140:nolib.obj
 0002:00008c94       ??_C@_1M@KJDONENM@?$AAa?$AAr?$AA?9?$AAs?$AAa@ 1004ac94     mfcs140:nolib.obj
 0002:00008ca0       ??_C@_1M@DMJDKLKM@?$AAa?$AAr?$AA?9?$AAs?$AAy@ 1004aca0     mfcs140:nolib.obj
 0002:00008cac       ??_C@_1M@OMFIPEDC@?$AAa?$AAr?$AA?9?$AAt?$AAn@ 1004acac     mfcs140:nolib.obj
 0002:00008cb8       ??_C@_1M@IHMHGAON@?$AAa?$AAr?$AA?9?$AAy?$AAe@ 1004acb8     mfcs140:nolib.obj
 0002:00008cc4       ??_C@_1BG@KDCPGJGB@?$AAa?$AAz?$AA?9?$AAa?$AAz?$AA?9?$AAc?$AAy?$AAr?$AAl@ 1004acc4     mfcs140:nolib.obj
 0002:00008cdc       ??_C@_1BG@IBCKDDOE@?$AAa?$AAz?$AA?9?$AAa?$AAz?$AA?9?$AAl?$AAa?$AAt?$AAn@ 1004acdc     mfcs140:nolib.obj
 0002:00008cf4       ??_C@_1M@EGPFDCPD@?$AAb?$AAe?$AA?9?$AAb?$AAy@ 1004acf4     mfcs140:nolib.obj
 0002:00008d00       ??_C@_1M@PCMGMCGC@?$AAb?$AAg?$AA?9?$AAb?$AAg@ 1004ad00     mfcs140:nolib.obj
 0002:00008d0c       ??_C@_1M@BJBMFGOB@?$AAb?$AAn?$AA?9?$AAi?$AAn@ 1004ad0c     mfcs140:nolib.obj
 0002:00008d18       ??_C@_1BG@EAKMMACD@?$AAb?$AAs?$AA?9?$AAb?$AAa?$AA?9?$AAl?$AAa?$AAt?$AAn@ 1004ad18     mfcs140:nolib.obj
 0002:00008d30       ??_C@_1M@KGADAODK@?$AAc?$AAa?$AA?9?$AAe?$AAs@ 1004ad30     mfcs140:nolib.obj
 0002:00008d3c       ??_C@_1M@COAJPDHI@?$AAc?$AAs?$AA?9?$AAc?$AAz@ 1004ad3c     mfcs140:nolib.obj
 0002:00008d48       ??_C@_1M@DHBHFONH@?$AAc?$AAy?$AA?9?$AAg?$AAb@ 1004ad48     mfcs140:nolib.obj
 0002:00008d54       ??_C@_1M@IMGKELGA@?$AAd?$AAa?$AA?9?$AAd?$AAk@ 1004ad54     mfcs140:nolib.obj
 0002:00008d60       ??_C@_1M@NNDGDNGA@?$AAd?$AAe?$AA?9?$AAa?$AAt@ 1004ad60     mfcs140:nolib.obj
 0002:00008d6c       ??_C@_1M@IKDBHEEM@?$AAd?$AAe?$AA?9?$AAc?$AAh@ 1004ad6c     mfcs140:nolib.obj
 0002:00008d78       ??_C@_1M@GFFOJMCJ@?$AAd?$AAe?$AA?9?$AAd?$AAe@ 1004ad78     mfcs140:nolib.obj
 0002:00008d84       ??_C@_1M@MDNLKBPM@?$AAd?$AAe?$AA?9?$AAl?$AAi@ 1004ad84     mfcs140:nolib.obj
 0002:00008d90       ??_C@_1M@NJBEEJNL@?$AAd?$AAe?$AA?9?$AAl?$AAu@ 1004ad90     mfcs140:nolib.obj
 0002:00008d9c       ??_C@_1O@GNNELBAP@?$AAd?$AAi?$AAv?$AA?9?$AAm?$AAv@ 1004ad9c     mfcs140:nolib.obj
 0002:00008dac       ??_C@_1M@EJLEOGAE@?$AAe?$AAl?$AA?9?$AAg?$AAr@ 1004adac     mfcs140:nolib.obj
 0002:00008db8       ??_C@_1M@GMPONJN@?$AAe?$AAn?$AA?9?$AAa?$AAu@ 1004adb8     mfcs140:nolib.obj
 0002:00008dc4       ??_C@_1M@NIDIIPGF@?$AAe?$AAn?$AA?9?$AAb?$AAz@ 1004adc4     mfcs140:nolib.obj
 0002:00008dd0       ??_C@_1M@JEHMIMFO@?$AAe?$AAn?$AA?9?$AAc?$AAa@ 1004add0     mfcs140:nolib.obj
 0002:00008ddc       ??_C@_1M@IGMJCDLA@?$AAe?$AAn?$AA?9?$AAc?$AAb@ 1004addc     mfcs140:nolib.obj
 0002:00008de8       ??_C@_1M@BNFIGBKG@?$AAe?$AAn?$AA?9?$AAg?$AAb@ 1004ade8     mfcs140:nolib.obj
 0002:00008df4       ??_C@_1M@LKIFDIGP@?$AAe?$AAn?$AA?9?$AAi?$AAe@ 1004adf4     mfcs140:nolib.obj
 0002:00008e00       ??_C@_1M@PJKFGCCO@?$AAe?$AAn?$AA?9?$AAj?$AAm@ 1004ae00     mfcs140:nolib.obj
 0002:00008e0c       ??_C@_1M@KPPKEPBO@?$AAe?$AAn?$AA?9?$AAn?$AAz@ 1004ae0c     mfcs140:nolib.obj
 0002:00008e18       ??_C@_1M@GMDGLDOB@?$AAe?$AAn?$AA?9?$AAp?$AAh@ 1004ae18     mfcs140:nolib.obj
 0002:00008e24       ??_C@_1M@ONGIBJNA@?$AAe?$AAn?$AA?9?$AAt?$AAt@ 1004ae24     mfcs140:nolib.obj
 0002:00008e30       ??_C@_1M@LLODPCMM@?$AAe?$AAn?$AA?9?$AAu?$AAs@ 1004ae30     mfcs140:nolib.obj
 0002:00008e3c       ??_C@_1M@LAKFNPAN@?$AAe?$AAn?$AA?9?$AAz?$AAa@ 1004ae3c     mfcs140:nolib.obj
 0002:00008e48       ??_C@_1M@MFNHNHEO@?$AAe?$AAn?$AA?9?$AAz?$AAw@ 1004ae48     mfcs140:nolib.obj
 0002:00008e54       ??_C@_1M@EJEINPHM@?$AAe?$AAs?$AA?9?$AAa?$AAr@ 1004ae54     mfcs140:nolib.obj
 0002:00008e60       ??_C@_1M@GNKPCCJA@?$AAe?$AAs?$AA?9?$AAb?$AAo@ 1004ae60     mfcs140:nolib.obj
 0002:00008e6c       ??_C@_1M@LEEGFONL@?$AAe?$AAs?$AA?9?$AAc?$AAl@ 1004ae6c     mfcs140:nolib.obj
 0002:00008e78       ??_C@_1M@KGPDPBDF@?$AAe?$AAs?$AA?9?$AAc?$AAo@ 1004ae78     mfcs140:nolib.obj
 0002:00008e84       ??_C@_1M@EIAHOHH@?$AAe?$AAs?$AA?9?$AAc?$AAr@ 1004ae84     mfcs140:nolib.obj
 0002:00008e90       ??_C@_1M@LLPGMBIN@?$AAe?$AAs?$AA?9?$AAd?$AAo@ 1004ae90     mfcs140:nolib.obj
 0002:00008e9c       ??_C@_1M@DKHMKNJA@?$AAe?$AAs?$AA?9?$AAe?$AAc@ 1004ae9c     mfcs140:nolib.obj
 0002:00008ea8       ??_C@_1M@GKGFPKAP@?$AAe?$AAs?$AA?9?$AAe?$AAs@ 1004aea8     mfcs140:nolib.obj
 0002:00008eb4       ??_C@_1M@LKHKGDLN@?$AAe?$AAs?$AA?9?$AAg?$AAt@ 1004aeb4     mfcs140:nolib.obj
 0002:00008ec0       ??_C@_1M@HEIIGGJD@?$AAe?$AAs?$AA?9?$AAh?$AAn@ 1004aec0     mfcs140:nolib.obj
 0002:00008ecc       ??_C@_1M@FBDHPPGD@?$AAe?$AAs?$AA?9?$AAm?$AAx@ 1004aecc     mfcs140:nolib.obj
 0002:00008ed8       ??_C@_1M@DPAGLNDH@?$AAe?$AAs?$AA?9?$AAn?$AAi@ 1004aed8     mfcs140:nolib.obj
 0002:00008ee4       ??_C@_1M@MDGOPGDD@?$AAe?$AAs?$AA?9?$AAp?$AAa@ 1004aee4     mfcs140:nolib.obj
 0002:00008ef0       ??_C@_1M@EMAMGBGE@?$AAe?$AAs?$AA?9?$AAp?$AAe@ 1004aef0     mfcs140:nolib.obj
 0002:00008efc       ??_C@_1M@IBMCAOEC@?$AAe?$AAs?$AA?9?$AAp?$AAr@ 1004aefc     mfcs140:nolib.obj
 0002:00008f08       ??_C@_1M@FGMDIJED@?$AAe?$AAs?$AA?9?$AAp?$AAy@ 1004af08     mfcs140:nolib.obj
 0002:00008f14       ??_C@_1M@IIDEOLLL@?$AAe?$AAs?$AA?9?$AAs?$AAv@ 1004af14     mfcs140:nolib.obj
 0002:00008f20       ??_C@_1M@GAOBIPA@?$AAe?$AAs?$AA?9?$AAu?$AAy@ 1004af20     mfcs140:nolib.obj
 0002:00008f2c       ??_C@_1M@JKFFICHJ@?$AAe?$AAs?$AA?9?$AAv?$AAe@ 1004af2c     mfcs140:nolib.obj
 0002:00008f38       ??_C@_1M@PNMLOJDF@?$AAe?$AAt?$AA?9?$AAe?$AAe@ 1004af38     mfcs140:nolib.obj
 0002:00008f44       ??_C@_1M@GHHLIKEI@?$AAe?$AAu?$AA?9?$AAe?$AAs@ 1004af44     mfcs140:nolib.obj
 0002:00008f50       ??_C@_1M@PBNONODE@?$AAf?$AAa?$AA?9?$AAi?$AAr@ 1004af50     mfcs140:nolib.obj
 0002:00008f5c       ??_C@_1M@JEEHPMIL@?$AAf?$AAi?$AA?9?$AAf?$AAi@ 1004af5c     mfcs140:nolib.obj
 0002:00008f68       ??_C@_1M@LMDCNDBA@?$AAf?$AAo?$AA?9?$AAf?$AAo@ 1004af68     mfcs140:nolib.obj
 0002:00008f74       ??_C@_1M@JKEOHLDK@?$AAf?$AAr?$AA?9?$AAb?$AAe@ 1004af74     mfcs140:nolib.obj
 0002:00008f80       ??_C@_1M@NOHADPMI@?$AAf?$AAr?$AA?9?$AAc?$AAa@ 1004af80     mfcs140:nolib.obj
 0002:00008f8c       ??_C@_1M@KDHIHAEC@?$AAf?$AAr?$AA?9?$AAc?$AAh@ 1004af8c     mfcs140:nolib.obj
 0002:00008f98       ??_C@_1M@MMBBFGAK@?$AAf?$AAr?$AA?9?$AAf?$AAr@ 1004af98     mfcs140:nolib.obj
 0002:00008fa4       ??_C@_1M@PAFNENNF@?$AAf?$AAr?$AA?9?$AAl?$AAu@ 1004afa4     mfcs140:nolib.obj
 0002:00008fb0       ??_C@_1M@EOHDJGDD@?$AAf?$AAr?$AA?9?$AAm?$AAc@ 1004afb0     mfcs140:nolib.obj
 0002:00008fbc       ??_C@_1M@FAPLLOPF@?$AAg?$AAl?$AA?9?$AAe?$AAs@ 1004afbc     mfcs140:nolib.obj
 0002:00008fc8       ??_C@_1M@FOPBFLOO@?$AAg?$AAu?$AA?9?$AAi?$AAn@ 1004afc8     mfcs140:nolib.obj
 0002:00008fd4       ??_C@_1M@KBMCINPM@?$AAh?$AAe?$AA?9?$AAi?$AAl@ 1004afd4     mfcs140:nolib.obj
 0002:00008fe0       ??_C@_1M@BBPHKFPJ@?$AAh?$AAi?$AA?9?$AAi?$AAn@ 1004afe0     mfcs140:nolib.obj
 0002:00008fec       ??_C@_1M@PMBNDPHD@?$AAh?$AAr?$AA?9?$AAb?$AAa@ 1004afec     mfcs140:nolib.obj
 0002:00008ff8       ??_C@_1M@BPCKOEGE@?$AAh?$AAr?$AA?9?$AAh?$AAr@ 1004aff8     mfcs140:nolib.obj
 0002:00009004       ??_C@_1M@GACBMHKE@?$AAh?$AAu?$AA?9?$AAh?$AAu@ 1004b004     mfcs140:nolib.obj
 0002:00009010       ??_C@_1M@MILPAJJC@?$AAh?$AAy?$AA?9?$AAa?$AAm@ 1004b010     mfcs140:nolib.obj
 0002:0000901c       ??_C@_1M@BABBICEC@?$AAi?$AAd?$AA?9?$AAi?$AAd@ 1004b01c     mfcs140:nolib.obj
 0002:00009028       ??_C@_1M@BIKNHHPF@?$AAi?$AAs?$AA?9?$AAi?$AAs@ 1004b028     mfcs140:nolib.obj
 0002:00009034       ??_C@_1M@NMPCJPHE@?$AAi?$AAt?$AA?9?$AAc?$AAh@ 1004b034     mfcs140:nolib.obj
 0002:00009040       ??_C@_1M@GHKGFEDF@?$AAi?$AAt?$AA?9?$AAi?$AAt@ 1004b040     mfcs140:nolib.obj
 0002:0000904c       ??_C@_1M@NIEJCJJA@?$AAj?$AAa?$AA?9?$AAj?$AAp@ 1004b04c     mfcs140:nolib.obj
 0002:00009058       ??_C@_1M@JILFNBIM@?$AAk?$AAa?$AA?9?$AAg?$AAe@ 1004b058     mfcs140:nolib.obj
 0002:00009064       ??_C@_1M@PACPMGPH@?$AAk?$AAk?$AA?9?$AAk?$AAz@ 1004b064     mfcs140:nolib.obj
 0002:00009070       ??_C@_1M@IELFGMHA@?$AAk?$AAn?$AA?9?$AAi?$AAn@ 1004b070     mfcs140:nolib.obj
 0002:0000907c       ??_C@_1O@IBBJHCH@?$AAk?$AAo?$AAk?$AA?9?$AAi?$AAn@ 1004b07c     mfcs140:nolib.obj
 0002:0000908c       ??_C@_1M@DMHAEOGC@?$AAk?$AAo?$AA?9?$AAk?$AAr@ 1004b08c     mfcs140:nolib.obj
 0002:00009098       ??_C@_1M@HBAHBIGA@?$AAk?$AAy?$AA?9?$AAk?$AAg@ 1004b098     mfcs140:nolib.obj
 0002:000090a4       ??_C@_1M@KPMILCJG@?$AAl?$AAt?$AA?9?$AAl?$AAt@ 1004b0a4     mfcs140:nolib.obj
 0002:000090b0       ??_C@_1M@BDEKKCA@?$AAl?$AAv?$AA?9?$AAl?$AAv@ 1004b0b0     mfcs140:nolib.obj
 0002:000090bc       ??_C@_1M@ELCKCCJJ@?$AAm?$AAi?$AA?9?$AAn?$AAz@ 1004b0bc     mfcs140:nolib.obj
 0002:000090c8       ??_C@_1M@CBOOLAPA@?$AAm?$AAk?$AA?9?$AAm?$AAk@ 1004b0c8     mfcs140:nolib.obj
 0002:000090d4       ??_C@_1M@GPHNBJKN@?$AAm?$AAl?$AA?9?$AAi?$AAn@ 1004b0d4     mfcs140:nolib.obj
 0002:000090e0       ??_C@_1M@PABJILIG@?$AAm?$AAn?$AA?9?$AAm?$AAn@ 1004b0e0     mfcs140:nolib.obj
 0002:000090ec       ??_C@_1M@FGBKKIPG@?$AAm?$AAr?$AA?9?$AAi?$AAn@ 1004b0ec     mfcs140:nolib.obj
 0002:000090f8       ??_C@_1M@NDBPDDAL@?$AAm?$AAs?$AA?9?$AAb?$AAn@ 1004b0f8     mfcs140:nolib.obj
 0002:00009104       ??_C@_1M@OPIHOOPI@?$AAm?$AAs?$AA?9?$AAm?$AAy@ 1004b104     mfcs140:nolib.obj
 0002:00009110       ??_C@_1M@PPDBCNFM@?$AAm?$AAt?$AA?9?$AAm?$AAt@ 1004b110     mfcs140:nolib.obj
 0002:0000911c       ??_C@_1M@KDJDKMDD@?$AAn?$AAb?$AA?9?$AAn?$AAo@ 1004b11c     mfcs140:nolib.obj
 0002:00009128       ??_C@_1M@KFCFLMJP@?$AAn?$AAl?$AA?9?$AAb?$AAe@ 1004b128     mfcs140:nolib.obj
 0002:00009134       ??_C@_1M@KPOPDDGO@?$AAn?$AAl?$AA?9?$AAn?$AAl@ 1004b134     mfcs140:nolib.obj
 0002:00009140       ??_C@_1M@LJKPEMLN@?$AAn?$AAn?$AA?9?$AAn?$AAo@ 1004b140     mfcs140:nolib.obj
 0002:0000914c       ??_C@_1M@BDGHHBFL@?$AAn?$AAs?$AA?9?$AAz?$AAa@ 1004b14c     mfcs140:nolib.obj
 0002:00009158       ??_C@_1M@IDEHOAP@?$AAp?$AAa?$AA?9?$AAi?$AAn@ 1004b158     mfcs140:nolib.obj
 0002:00009164       ??_C@_1M@HDBKGOGH@?$AAp?$AAl?$AA?9?$AAp?$AAl@ 1004b164     mfcs140:nolib.obj
 0002:00009170       ??_C@_1M@LJLLCMEH@?$AAp?$AAt?$AA?9?$AAb?$AAr@ 1004b170     mfcs140:nolib.obj
 0002:0000917c       ??_C@_1M@NCMONAAL@?$AAp?$AAt?$AA?9?$AAp?$AAt@ 1004b17c     mfcs140:nolib.obj
 0002:00009188       ??_C@_1O@EAKMAJDN@?$AAq?$AAu?$AAz?$AA?9?$AAb?$AAo@ 1004b188     mfcs140:nolib.obj
 0002:00009198       ??_C@_1O@BHHPIGDN@?$AAq?$AAu?$AAz?$AA?9?$AAe?$AAc@ 1004b198     mfcs140:nolib.obj
 0002:000091a8       ??_C@_1O@GBAPEKMJ@?$AAq?$AAu?$AAz?$AA?9?$AAp?$AAe@ 1004b1a8     mfcs140:nolib.obj
 0002:000091b8       ??_C@_1M@CLGLEFBO@?$AAr?$AAo?$AA?9?$AAr?$AAo@ 1004b1b8     mfcs140:nolib.obj
 0002:000091c4       ??_C@_1M@CEEDODME@?$AAr?$AAu?$AA?9?$AAr?$AAu@ 1004b1c4     mfcs140:nolib.obj
 0002:000091d0       ??_C@_1M@HPKKKMPP@?$AAs?$AAa?$AA?9?$AAi?$AAn@ 1004b1d0     mfcs140:nolib.obj
 0002:000091dc       ??_C@_1M@BKMAIGOJ@?$AAs?$AAe?$AA?9?$AAf?$AAi@ 1004b1dc     mfcs140:nolib.obj
 0002:000091e8       ??_C@_1M@NDPIFLFI@?$AAs?$AAe?$AA?9?$AAn?$AAo@ 1004b1e8     mfcs140:nolib.obj
 0002:000091f4       ??_C@_1M@DANKKHJ@?$AAs?$AAe?$AA?9?$AAs?$AAe@ 1004b1f4     mfcs140:nolib.obj
 0002:00009200       ??_C@_1M@PNBLONPJ@?$AAs?$AAk?$AA?9?$AAs?$AAk@ 1004b200     mfcs140:nolib.obj
 0002:0000920c       ??_C@_1M@LFMODOAL@?$AAs?$AAl?$AA?9?$AAs?$AAi@ 1004b20c     mfcs140:nolib.obj
 0002:00009218       ??_C@_1O@DFKOMPG@?$AAs?$AAm?$AAa?$AA?9?$AAn?$AAo@ 1004b218     mfcs140:nolib.obj
 0002:00009228       ??_C@_1O@NDKPBNNH@?$AAs?$AAm?$AAa?$AA?9?$AAs?$AAe@ 1004b228     mfcs140:nolib.obj
 0002:00009238       ??_C@_1O@PLLKBHAB@?$AAs?$AAm?$AAj?$AA?9?$AAn?$AAo@ 1004b238     mfcs140:nolib.obj
 0002:00009248       ??_C@_1O@CLEPOGCA@?$AAs?$AAm?$AAj?$AA?9?$AAs?$AAe@ 1004b248     mfcs140:nolib.obj
 0002:00009258       ??_C@_1O@DLGJGKMK@?$AAs?$AAm?$AAn?$AA?9?$AAf?$AAi@ 1004b258     mfcs140:nolib.obj
 0002:00009268       ??_C@_1O@OJDJGAJC@?$AAs?$AAm?$AAs?$AA?9?$AAf?$AAi@ 1004b268     mfcs140:nolib.obj
 0002:00009278       ??_C@_1M@BOFOGHPB@?$AAs?$AAq?$AA?9?$AAa?$AAl@ 1004b278     mfcs140:nolib.obj
 0002:00009284       ??_C@_1BG@LJBBIPGB@?$AAs?$AAr?$AA?9?$AAb?$AAa?$AA?9?$AAc?$AAy?$AAr?$AAl@ 1004b284     mfcs140:nolib.obj
 0002:0000929c       ??_C@_1BG@JLBENFOE@?$AAs?$AAr?$AA?9?$AAb?$AAa?$AA?9?$AAl?$AAa?$AAt?$AAn@ 1004b29c     mfcs140:nolib.obj
 0002:000092b4       ??_C@_1BG@KODPNHE@?$AAs?$AAr?$AA?9?$AAs?$AAp?$AA?9?$AAc?$AAy?$AAr?$AAl@ 1004b2b4     mfcs140:nolib.obj
 0002:000092cc       ??_C@_1BG@CIOGKHPB@?$AAs?$AAr?$AA?9?$AAs?$AAp?$AA?9?$AAl?$AAa?$AAt?$AAn@ 1004b2cc     mfcs140:nolib.obj
 0002:000092e4       ??_C@_1M@NGFJLMAC@?$AAs?$AAv?$AA?9?$AAf?$AAi@ 1004b2e4     mfcs140:nolib.obj
 0002:000092f0       ??_C@_1M@MPJEJAJC@?$AAs?$AAv?$AA?9?$AAs?$AAe@ 1004b2f0     mfcs140:nolib.obj
 0002:000092fc       ??_C@_1M@MPNDHLFK@?$AAs?$AAw?$AA?9?$AAk?$AAe@ 1004b2fc     mfcs140:nolib.obj
 0002:00009308       ??_C@_1O@KOHBJJI@?$AAs?$AAy?$AAr?$AA?9?$AAs?$AAy@ 1004b308     mfcs140:nolib.obj
 0002:00009318       ??_C@_1M@LDCEFHA@?$AAt?$AAa?$AA?9?$AAi?$AAn@ 1004b318     mfcs140:nolib.obj
 0002:00009324       ??_C@_1M@CNJOFAK@?$AAt?$AAe?$AA?9?$AAi?$AAn@ 1004b324     mfcs140:nolib.obj
 0002:00009330       ??_C@_1M@GNAECACD@?$AAt?$AAh?$AA?9?$AAt?$AAh@ 1004b330     mfcs140:nolib.obj
 0002:0000933c       ??_C@_1M@CHBIHOJO@?$AAt?$AAn?$AA?9?$AAz?$AAa@ 1004b33c     mfcs140:nolib.obj
 0002:00009348       ??_C@_1M@GCCMIGPJ@?$AAt?$AAr?$AA?9?$AAt?$AAr@ 1004b348     mfcs140:nolib.obj
 0002:00009354       ??_C@_1M@CELMCNBK@?$AAt?$AAt?$AA?9?$AAr?$AAu@ 1004b354     mfcs140:nolib.obj
 0002:00009360       ??_C@_1M@KLMCELGA@?$AAu?$AAk?$AA?9?$AAu?$AAa@ 1004b360     mfcs140:nolib.obj
 0002:0000936c       ??_C@_1M@EPAJJAJF@?$AAu?$AAr?$AA?9?$AAp?$AAk@ 1004b36c     mfcs140:nolib.obj
 0002:00009378       ??_C@_1BG@GEGPMCDJ@?$AAu?$AAz?$AA?9?$AAu?$AAz?$AA?9?$AAc?$AAy?$AAr?$AAl@ 1004b378     mfcs140:nolib.obj
 0002:00009390       ??_C@_1BG@EGGKJILM@?$AAu?$AAz?$AA?9?$AAu?$AAz?$AA?9?$AAl?$AAa?$AAt?$AAn@ 1004b390     mfcs140:nolib.obj
 0002:000093a8       ??_C@_1M@GFOCLFF@?$AAv?$AAi?$AA?9?$AAv?$AAn@ 1004b3a8     mfcs140:nolib.obj
 0002:000093b4       ??_C@_1M@CPAMEDFI@?$AAx?$AAh?$AA?9?$AAz?$AAa@ 1004b3b4     mfcs140:nolib.obj
 0002:000093c0       ??_C@_1O@EBKIFIGN@?$AAz?$AAh?$AA?9?$AAc?$AAh?$AAs@ 1004b3c0     mfcs140:nolib.obj
 0002:000093d0       ??_C@_1O@NMHPGANE@?$AAz?$AAh?$AA?9?$AAc?$AAh?$AAt@ 1004b3d0     mfcs140:nolib.obj
 0002:000093e0       ??_C@_1M@LPINJOMC@?$AAz?$AAh?$AA?9?$AAc?$AAn@ 1004b3e0     mfcs140:nolib.obj
 0002:000093ec       ??_C@_1M@OCJEJODD@?$AAz?$AAh?$AA?9?$AAh?$AAk@ 1004b3ec     mfcs140:nolib.obj
 0002:000093f8       ??_C@_1M@DNDLJINH@?$AAz?$AAh?$AA?9?$AAm?$AAo@ 1004b3f8     mfcs140:nolib.obj
 0002:00009404       ??_C@_1M@MBFDNDND@?$AAz?$AAh?$AA?9?$AAs?$AAg@ 1004b404     mfcs140:nolib.obj
 0002:00009410       ??_C@_1M@IMEPLEPE@?$AAz?$AAh?$AA?9?$AAt?$AAw@ 1004b410     mfcs140:nolib.obj
 0002:0000941c       ??_C@_1M@BBGHNHJP@?$AAz?$AAu?$AA?9?$AAz?$AAa@ 1004b41c     mfcs140:nolib.obj
 0002:00009428       ??_C@_0O@JKAFBCMB@CreateActCtxW@ 1004b428     mfcs140:nolib.obj
 0002:00009438       ??_C@_0P@CECBPMJL@ActivateActCtx@ 1004b438     mfcs140:nolib.obj
 0002:00009448       ??_C@_0BB@NPIOCCPF@DeactivateActCtx@ 1004b448     mfcs140:nolib.obj
 0002:0000945c       ??_C@_0BJ@MGNMALIC@FindActCtxSectionStringW@ 1004b45c     mfcs140:nolib.obj
 0002:00009478       ??_C@_0N@IMINIHMJ@QueryActCtxW@ 1004b478     mfcs140:nolib.obj
 0002:00009488       ??_C@_0BD@GIGEJCNH@GetModuleHandleExW@ 1004b488     mfcs140:nolib.obj
 0002:0000949c       ??_C@_1BK@BFMCNHEO@?$AAC?$AAo?$AAm?$AAc?$AAt?$AAl?$AA3?$AA2?$AA?4?$AAd?$AAl?$AAl@ 1004b49c     mfcs140:nolib.obj
 0002:000094b8       ?debugString@?4??IsolationAwarePrivatenPgViNgRzlnPgpgk@@9@4@4QBDB 1004b4b8     mfcs140:nolib.obj
 0002:000094f4       ?c@?1??WinbaseIsolationAwarePrivatetRgCebPnQQeRff_xReaRYQP_QYY@@9@4@4UIsolationAwarePrivate_pBAFGnAG_zBqHyr_vAsB@@B 1004b4f4     mfcs140:nolib.obj
 0002:00009504       ??_C@_1BK@EJBALEBG@?$AAK?$AAe?$AAr?$AAn?$AAe?$AAl?$AA3?$AA2?$AA?4?$AAd?$AAl?$AAl@ 1004b504     mfcs140:nolib.obj
 0002:00009520       ??_C@_0N@HAOHNMDE@Kernel32?4dll@ 1004b520     mfcs140:nolib.obj
 0002:00009534       ??_7type_info@@6B@         1004b534     msvcrt:std_type_info_static.obj
 0002:00009538       ??_C@_1EC@JIJBPKFM@?$AAa?$AAp?$AAi?$AA?9?$AAm?$AAs?$AA?9?$AAw?$AAi?$AAn?$AA?9?$AAc?$AAo?$AAr?$AAe@ 1004b538     msvcrt:thread_safe_statics.obj
 0002:0000957c       ??_C@_1BK@MGMFAEKH@?$AAk?$AAe?$AAr?$AAn?$AAe?$AAl?$AA3?$AA2?$AA?4?$AAd?$AAl?$AAl@ 1004b57c     msvcrt:thread_safe_statics.obj
 0002:00009598       ??_C@_0BJ@JEBJOJFJ@SleepConditionVariableCS@ 1004b598     msvcrt:thread_safe_statics.obj
 0002:000095b4       ??_C@_0BJ@PGPPEPCC@WakeAllConditionVariable@ 1004b5b4     msvcrt:thread_safe_statics.obj
 0002:000095d0       __pDefaultRawDllMain       1004b5d0     msvcrt:dll_dllmain.obj
 0002:000095dc       _GUID_ATLVer30             1004b5dc     atls:atlbase.obj
 0002:000095ec       _GUID_ATLVer70             1004b5ec     atls:atlbase.obj
 0002:000095fc       _GUID_ATLVer100            1004b5fc     atls:atlbase.obj
 0002:0000960c       _GUID_ATLVer110            1004b60c     atls:atlbase.obj
 0002:00009620       ??_C@_1IC@ONKHOIDK@?$AAE?$AAR?$AAR?$AAO?$AAR?$AA?5?$AA?3?$AA?5?$AAU?$AAn?$AAa?$AAb?$AAl?$AAe?$AA?5@ 1004b620     atls:atlbase.obj
 0002:000096a4       ??_C@_1CA@ONGMEOAB@?$AAa?$AAt?$AAl?$AAT?$AAr?$AAa?$AAc?$AAe?$AAG?$AAe?$AAn?$AAe?$AAr?$AAa?$AAl@ 1004b6a4     atls:stdafx.obj
 0002:000096c4       ??_C@_1BI@MAFGHOEE@?$AAa?$AAt?$AAl?$AAT?$AAr?$AAa?$AAc?$AAe?$AAC?$AAO?$AAM@ 1004b6c4     atls:stdafx.obj
 0002:000096dc       ??_C@_1BG@FPLJJEMF@?$AAa?$AAt?$AAl?$AAT?$AAr?$AAa?$AAc?$AAe?$AAQ?$AAI@ 1004b6dc     atls:stdafx.obj
 0002:000096f4       ??_C@_1CE@NIAEAIDK@?$AAa?$AAt?$AAl?$AAT?$AAr?$AAa?$AAc?$AAe?$AAR?$AAe?$AAg?$AAi?$AAs?$AAt?$AAr@ 1004b6f4     atls:stdafx.obj
 0002:00009718       ??_C@_1CC@BNHGJFNK@?$AAa?$AAt?$AAl?$AAT?$AAr?$AAa?$AAc?$AAe?$AAR?$AAe?$AAf?$AAc?$AAo?$AAu?$AAn@ 1004b718     atls:stdafx.obj
 0002:0000973c       ??_C@_1CE@NAJDPMNB@?$AAa?$AAt?$AAl?$AAT?$AAr?$AAa?$AAc?$AAe?$AAW?$AAi?$AAn?$AAd?$AAo?$AAw?$AAi@ 1004b73c     atls:stdafx.obj
 0002:00009760       ??_C@_1CC@IMNJGBED@?$AAa?$AAt?$AAl?$AAT?$AAr?$AAa?$AAc?$AAe?$AAC?$AAo?$AAn?$AAt?$AAr?$AAo?$AAl@ 1004b760     atls:stdafx.obj
 0002:00009784       ??_C@_1CA@OMOMONMN@?$AAa?$AAt?$AAl?$AAT?$AAr?$AAa?$AAc?$AAe?$AAH?$AAo?$AAs?$AAt?$AAi?$AAn?$AAg@ 1004b784     atls:stdafx.obj
 0002:000097a4       ??_C@_1CC@JNJJDOOH@?$AAa?$AAt?$AAl?$AAT?$AAr?$AAa?$AAc?$AAe?$AAD?$AAB?$AAC?$AAl?$AAi?$AAe?$AAn@ 1004b7a4     atls:stdafx.obj
 0002:000097c8       ??_C@_1CG@MNMMIOOI@?$AAa?$AAt?$AAl?$AAT?$AAr?$AAa?$AAc?$AAe?$AAD?$AAB?$AAP?$AAr?$AAo?$AAv?$AAi@ 1004b7c8     atls:stdafx.obj
 0002:000097f0       ??_C@_1BO@EFPHNHHN@?$AAa?$AAt?$AAl?$AAT?$AAr?$AAa?$AAc?$AAe?$AAS?$AAn?$AAa?$AAp?$AAi?$AAn@ 1004b7f0     atls:stdafx.obj
 0002:00009810       ??_C@_1CA@DMHPIODO@?$AAa?$AAt?$AAl?$AAT?$AAr?$AAa?$AAc?$AAe?$AAN?$AAo?$AAt?$AAI?$AAm?$AAp?$AAl@ 1004b810     atls:stdafx.obj
 0002:00009830       ??_C@_1CG@KFEEMCDH@?$AAa?$AAt?$AAl?$AAT?$AAr?$AAa?$AAc?$AAe?$AAA?$AAl?$AAl?$AAo?$AAc?$AAa?$AAt@ 1004b830     atls:stdafx.obj
 0002:00009858       ??_C@_1CE@IMMADNAP@?$AAa?$AAt?$AAl?$AAT?$AAr?$AAa?$AAc?$AAe?$AAE?$AAx?$AAc?$AAe?$AAp?$AAt?$AAi@ 1004b858     atls:stdafx.obj
 0002:0000987c       ??_C@_1BK@NCJHOFCL@?$AAa?$AAt?$AAl?$AAT?$AAr?$AAa?$AAc?$AAe?$AAT?$AAi?$AAm?$AAe@ 1004b87c     atls:stdafx.obj
 0002:00009898       ??_C@_1BM@GIKLHLFD@?$AAa?$AAt?$AAl?$AAT?$AAr?$AAa?$AAc?$AAe?$AAC?$AAa?$AAc?$AAh?$AAe@ 1004b898     atls:stdafx.obj
 0002:000098b4       ??_C@_1CA@PBPHANCD@?$AAa?$AAt?$AAl?$AAT?$AAr?$AAa?$AAc?$AAe?$AAS?$AAt?$AAe?$AAn?$AAc?$AAi?$AAl@ 1004b8b4     atls:stdafx.obj
 0002:000098d4       ??_C@_1BO@GMLILNDJ@?$AAa?$AAt?$AAl?$AAT?$AAr?$AAa?$AAc?$AAe?$AAS?$AAt?$AAr?$AAi?$AAn?$AAg@ 1004b8d4     atls:stdafx.obj
 0002:000098f4       ??_C@_1BI@OKDLCIEM@?$AAa?$AAt?$AAl?$AAT?$AAr?$AAa?$AAc?$AAe?$AAM?$AAa?$AAp@ 1004b8f4     atls:stdafx.obj
 0002:0000990c       ??_C@_1BK@DMHCKHHD@?$AAa?$AAt?$AAl?$AAT?$AAr?$AAa?$AAc?$AAe?$AAU?$AAt?$AAi?$AAl@ 1004b90c     atls:stdafx.obj
 0002:00009928       ??_C@_1CC@DMMBNCFG@?$AAa?$AAt?$AAl?$AAT?$AAr?$AAa?$AAc?$AAe?$AAS?$AAe?$AAc?$AAu?$AAr?$AAi?$AAt@ 1004b928     atls:stdafx.obj
 0002:0000994c       ??_C@_1BK@OPAPOCAL@?$AAa?$AAt?$AAl?$AAT?$AAr?$AAa?$AAc?$AAe?$AAS?$AAy?$AAn?$AAc@ 1004b94c     atls:stdafx.obj
 0002:00009968       ??_C@_1BM@FHAEDBFK@?$AAa?$AAt?$AAl?$AAT?$AAr?$AAa?$AAc?$AAe?$AAI?$AAS?$AAA?$AAP?$AAI@ 1004b968     atls:stdafx.obj
 0002:00009984       ?chDirSep@ATL@@3_WB        1004b984     atls:stdafx.obj
 0002:00009988       ?chRightBracket@ATL@@3_WB  1004b988     atls:stdafx.obj
 0002:0000998c       ?chLeftBracket@ATL@@3_WB   1004b98c     atls:stdafx.obj
 0002:00009990       ?chQuote@ATL@@3_WB         1004b990     atls:stdafx.obj
 0002:00009994       ?chEquals@ATL@@3_WB        1004b994     atls:stdafx.obj
 0002:00009998       ?szStringVal@ATL@@3QB_WB   1004b998     atls:stdafx.obj
 0002:0000999c       ??_C@_13HADIAKP@?$AAS@     1004b99c     atls:stdafx.obj
 0002:000099a0       ?multiszStringVal@ATL@@3QB_WB 1004b9a0     atls:stdafx.obj
 0002:000099a4       ??_C@_13LHMFKAAD@?$AAM@    1004b9a4     atls:stdafx.obj
 0002:000099a8       ?szDwordVal@ATL@@3QB_WB    1004b9a8     atls:stdafx.obj
 0002:000099ac       ??_C@_13MKMNOPIJ@?$AAD@    1004b9ac     atls:stdafx.obj
 0002:000099b0       ?szBinaryVal@ATL@@3QB_WB   1004b9b0     atls:stdafx.obj
 0002:000099b4       ??_C@_13OPKGLAFF@?$AAB@    1004b9b4     atls:stdafx.obj
 0002:000099b8       ?szValToken@ATL@@3QB_WB    1004b9b8     atls:stdafx.obj
 0002:000099bc       ??_C@_17LLMMEOJD@?$AAV?$AAa?$AAl@ 1004b9bc     atls:stdafx.obj
 0002:000099c4       ?szForceRemove@ATL@@3QB_WB 1004b9c4     atls:stdafx.obj
 0002:000099c8       ??_C@_1BI@JFAIJMHL@?$AAF?$AAo?$AAr?$AAc?$AAe?$AAR?$AAe?$AAm?$AAo?$AAv?$AAe@ 1004b9c8     atls:stdafx.obj
 0002:000099e0       ?szNoRemove@ATL@@3QB_WB    1004b9e0     atls:stdafx.obj
 0002:000099e4       ??_C@_1BC@GCKHIPE@?$AAN?$AAo?$AAR?$AAe?$AAm?$AAo?$AAv?$AAe@ 1004b9e4     atls:stdafx.obj
 0002:000099f8       ?szDelete@ATL@@3QB_WB      1004b9f8     atls:stdafx.obj
 0002:000099fc       ??_C@_1O@JDLOHAN@?$AAD?$AAe?$AAl?$AAe?$AAt?$AAe@ 1004b9fc     atls:stdafx.obj
 0002:00009a60       __load_config_used         1004ba60     msvcrt:loadcfg.obj
 0002:00009b40       ___CastGuardVftablesStart  1004bb40     msvcrt:guard_support.obj
 0002:00009b44       ___CastGuardVftablesEnd    1004bb44     msvcrt:guard_support.obj
 0002:00009b48       __tls_used                 1004bb48     msvcrt:tlssup.obj
 0002:00009b60       ??_R4CDllSTLoader@@6B@     1004bb60     DllSTLoader.obj
 0002:00009b74       ??_R3CDllSTLoader@@8       1004bb74     DllSTLoader.obj
 0002:00009b84       ??_R2CDllSTLoader@@8       1004bb84     DllSTLoader.obj
 0002:00009b8c       ??_R1A@?0A@EA@CDllSTLoader@@8 1004bb8c     DllSTLoader.obj
 0002:00009ba8       ??_R3CObject@@8            1004bba8     STGfxOutBarCtrl.obj
 0002:00009bb8       ??_R2CObject@@8            1004bbb8     STGfxOutBarCtrl.obj
 0002:00009bc0       ??_R1A@?0A@EA@CObject@@8   1004bbc0     STGfxOutBarCtrl.obj
 0002:00009bdc       ??_R4CGdiObject@@6B@       1004bbdc     STGfxOutBarCtrl.obj
 0002:00009bf0       ??_R3CGdiObject@@8         1004bbf0     STGfxOutBarCtrl.obj
 0002:00009c00       ??_R2CGdiObject@@8         1004bc00     STGfxOutBarCtrl.obj
 0002:00009c0c       ??_R1A@?0A@EA@CGdiObject@@8 1004bc0c     STGfxOutBarCtrl.obj
 0002:00009c28       ??_R4CPen@@6B@             1004bc28     STGfxOutBarCtrl.obj
 0002:00009c3c       ??_R3CPen@@8               1004bc3c     STGfxOutBarCtrl.obj
 0002:00009c4c       ??_R2CPen@@8               1004bc4c     STGfxOutBarCtrl.obj
 0002:00009c5c       ??_R1A@?0A@EA@CPen@@8      1004bc5c     STGfxOutBarCtrl.obj
 0002:00009c78       ??_R4CFont@@6B@            1004bc78     STGfxOutBarCtrl.obj
 0002:00009c8c       ??_R3CFont@@8              1004bc8c     STGfxOutBarCtrl.obj
 0002:00009c9c       ??_R2CFont@@8              1004bc9c     STGfxOutBarCtrl.obj
 0002:00009cac       ??_R1A@?0A@EA@CFont@@8     1004bcac     STGfxOutBarCtrl.obj
 0002:00009cc8       ??_R4CBitmap@@6B@          1004bcc8     STGfxOutBarCtrl.obj
 0002:00009cdc       ??_R3CBitmap@@8            1004bcdc     STGfxOutBarCtrl.obj
 0002:00009cec       ??_R2CBitmap@@8            1004bcec     STGfxOutBarCtrl.obj
 0002:00009cfc       ??_R1A@?0A@EA@CBitmap@@8   1004bcfc     STGfxOutBarCtrl.obj
 0002:00009d18       ??_R4CRgn@@6B@             1004bd18     STGfxOutBarCtrl.obj
 0002:00009d2c       ??_R3CRgn@@8               1004bd2c     STGfxOutBarCtrl.obj
 0002:00009d3c       ??_R2CRgn@@8               1004bd3c     STGfxOutBarCtrl.obj
 0002:00009d4c       ??_R1A@?0A@EA@CRgn@@8      1004bd4c     STGfxOutBarCtrl.obj
 0002:00009d68       ??_R1A@?0A@EA@CWnd@@8      1004bd68     STGfxOutBarCtrl.obj
 0002:00009d84       ??_R3CWnd@@8               1004bd84     STGfxOutBarCtrl.obj
 0002:00009d94       ??_R2CWnd@@8               1004bd94     STGfxOutBarCtrl.obj
 0002:00009da4       ??_R1A@?0A@EA@CCmdTarget@@8 1004bda4     STGfxOutBarCtrl.obj
 0002:00009dc0       ??_R3CCmdTarget@@8         1004bdc0     STGfxOutBarCtrl.obj
 0002:00009dd0       ??_R2CCmdTarget@@8         1004bdd0     STGfxOutBarCtrl.obj
 0002:00009ddc       ??_R4IGfxOutBarCtrl@@6B@   1004bddc     STGfxOutBarCtrl.obj
 0002:00009df0       ??_R3IGfxOutBarCtrl@@8     1004bdf0     STGfxOutBarCtrl.obj
 0002:00009e00       ??_R2IGfxOutBarCtrl@@8     1004be00     STGfxOutBarCtrl.obj
 0002:00009e08       ??_R1A@?0A@EA@IGfxOutBarCtrl@@8 1004be08     STGfxOutBarCtrl.obj
 0002:00009e24       ??_R4IGfxOutBarCtrl2@@6B@  1004be24     STGfxOutBarCtrl.obj
 0002:00009e38       ??_R3IGfxOutBarCtrl2@@8    1004be38     STGfxOutBarCtrl.obj
 0002:00009e48       ??_R2IGfxOutBarCtrl2@@8    1004be48     STGfxOutBarCtrl.obj
 0002:00009e54       ??_R1A@?0A@EA@IGfxOutBarCtrl2@@8 1004be54     STGfxOutBarCtrl.obj
 0002:00009e70       ??_R4CSTGfxOutBarCtrl@@6B@ 1004be70     STGfxOutBarCtrl.obj
 0002:00009e84       ??_R3CSTGfxOutBarCtrl@@8   1004be84     STGfxOutBarCtrl.obj
 0002:00009e94       ??_R2CSTGfxOutBarCtrl@@8   1004be94     STGfxOutBarCtrl.obj
 0002:00009ea8       ??_R1A@?0A@EA@CSTGfxOutBarCtrl@@8 1004bea8     STGfxOutBarCtrl.obj
 0002:00009ec4       ??_R4CBarItem@CSTGfxOutBarCtrl@@6B@ 1004bec4     STGfxOutBarCtrl.obj
 0002:00009ed8       ??_R3CBarItem@CSTGfxOutBarCtrl@@8 1004bed8     STGfxOutBarCtrl.obj
 0002:00009ee8       ??_R2CBarItem@CSTGfxOutBarCtrl@@8 1004bee8     STGfxOutBarCtrl.obj
 0002:00009ef0       ??_R1A@?0A@EA@CBarItem@CSTGfxOutBarCtrl@@8 1004bef0     STGfxOutBarCtrl.obj
 0002:00009f0c       ??_R4CBarFolder@CSTGfxOutBarCtrl@@6B@ 1004bf0c     STGfxOutBarCtrl.obj
 0002:00009f20       ??_R3CBarFolder@CSTGfxOutBarCtrl@@8 1004bf20     STGfxOutBarCtrl.obj
 0002:00009f30       ??_R2CBarFolder@CSTGfxOutBarCtrl@@8 1004bf30     STGfxOutBarCtrl.obj
 0002:00009f38       ??_R1A@?0A@EA@CBarFolder@CSTGfxOutBarCtrl@@8 1004bf38     STGfxOutBarCtrl.obj
 0002:00009f54       ??_R4CImpl_IGfxOutBarCtrl@@6B@ 1004bf54     STGfxOutBarCtrl.obj
 0002:00009f68       ??_R3CImpl_IGfxOutBarCtrl@@8 1004bf68     STGfxOutBarCtrl.obj
 0002:00009f78       ??_R2CImpl_IGfxOutBarCtrl@@8 1004bf78     STGfxOutBarCtrl.obj
 0002:00009f88       ??_R1A@?0A@EA@CImpl_IGfxOutBarCtrl@@8 1004bf88     STGfxOutBarCtrl.obj
 0002:00009fa4       ??_R4CMenu@@6B@            1004bfa4     STListCtrl.obj
 0002:00009fb8       ??_R3CMenu@@8              1004bfb8     STListCtrl.obj
 0002:00009fc8       ??_R2CMenu@@8              1004bfc8     STListCtrl.obj
 0002:00009fd4       ??_R1A@?0A@EA@CMenu@@8     1004bfd4     STListCtrl.obj
 0002:00009ff0       ??_R4CListCtrl@@6B@        1004bff0     STListCtrl.obj
 0002:0000a004       ??_R3CListCtrl@@8          1004c004     STListCtrl.obj
 0002:0000a014       ??_R2CListCtrl@@8          1004c014     STListCtrl.obj
 0002:0000a028       ??_R1A@?0A@EA@CListCtrl@@8 1004c028     STListCtrl.obj
 0002:0000a044       ??_R4CSTListCtrl@@6B@      1004c044     STListCtrl.obj
 0002:0000a058       ??_R3CSTListCtrl@@8        1004c058     STListCtrl.obj
 0002:0000a068       ??_R2CSTListCtrl@@8        1004c068     STListCtrl.obj
 0002:0000a080       ??_R1A@?0A@EA@CSTListCtrl@@8 1004c080     STListCtrl.obj
 0002:0000a09c       ??_R4CTreeCtrl@@6B@        1004c09c     STTreeCtrl.obj
 0002:0000a0b0       ??_R3CTreeCtrl@@8          1004c0b0     STTreeCtrl.obj
 0002:0000a0c0       ??_R2CTreeCtrl@@8          1004c0c0     STTreeCtrl.obj
 0002:0000a0d4       ??_R1A@?0A@EA@CTreeCtrl@@8 1004c0d4     STTreeCtrl.obj
 0002:0000a0f0       ??_R4CSTTreeCtrl@@6B@      1004c0f0     STTreeCtrl.obj
 0002:0000a104       ??_R3CSTTreeCtrl@@8        1004c104     STTreeCtrl.obj
 0002:0000a114       ??_R2CSTTreeCtrl@@8        1004c114     STTreeCtrl.obj
 0002:0000a12c       ??_R1A@?0A@EA@CSTTreeCtrl@@8 1004c12c     STTreeCtrl.obj
 0002:0000a148       ??_R4CSTExtTree@@6B@       1004c148     STTreeCtrl.obj
 0002:0000a15c       ??_R3CSTExtTree@@8         1004c15c     STTreeCtrl.obj
 0002:0000a16c       ??_R2CSTExtTree@@8         1004c16c     STTreeCtrl.obj
 0002:0000a188       ??_R1A@?0A@EA@CSTExtTree@@8 1004c188     STTreeCtrl.obj
 0002:0000a1a4       ??_R4CSTBasicTree@@6B@     1004c1a4     STTreeCtrl.obj
 0002:0000a1b8       ??_R3CSTBasicTree@@8       1004c1b8     STTreeCtrl.obj
 0002:0000a1c8       ??_R2CSTBasicTree@@8       1004c1c8     STTreeCtrl.obj
 0002:0000a1e4       ??_R1A@?0A@EA@CSTBasicTree@@8 1004c1e4     STTreeCtrl.obj
 0002:0000a200       ??_R4ISTLoadManager@@6B@   1004c200     _STLoadmanager.obj
 0002:0000a214       ??_R3ISTLoadManager@@8     1004c214     _STLoadmanager.obj
 0002:0000a224       ??_R2ISTLoadManager@@8     1004c224     _STLoadmanager.obj
 0002:0000a22c       ??_R1A@?0A@EA@ISTLoadManager@@8 1004c22c     _STLoadmanager.obj
 0002:0000a248       ??_R3ISTLoadManager2@@8    1004c248     _STLoadmanager.obj
 0002:0000a258       ??_R2ISTLoadManager2@@8    1004c258     _STLoadmanager.obj
 0002:0000a264       ??_R1A@?0A@EA@ISTLoadManager2@@8 1004c264     _STLoadmanager.obj
 0002:0000a280       ??_R4?$CList@PAUSTFILEITEM@@PAU1@@@6B@ 1004c280     _STLoadmanager.obj
 0002:0000a294       ??_R3?$CList@PAUSTFILEITEM@@PAU1@@@8 1004c294     _STLoadmanager.obj
 0002:0000a2a4       ??_R2?$CList@PAUSTFILEITEM@@PAU1@@@8 1004c2a4     _STLoadmanager.obj
 0002:0000a2b0       ??_R1A@?0A@EA@?$CList@PAUSTFILEITEM@@PAU1@@@8 1004c2b0     _STLoadmanager.obj
 0002:0000a2cc       ??_R4CSTLoadManager@@6B@   1004c2cc     _STLoadmanager.obj
 0002:0000a2e0       ??_R3CSTLoadManager@@8     1004c2e0     _STLoadmanager.obj
 0002:0000a2f0       ??_R2CSTLoadManager@@8     1004c2f0     _STLoadmanager.obj
 0002:0000a300       ??_R1A@?0A@EA@CSTLoadManager@@8 1004c300     _STLoadmanager.obj
 0002:0000a31c       ??_R4CEdit@@6B@            1004c31c     XEdit.obj
 0002:0000a330       ??_R3CEdit@@8              1004c330     XEdit.obj
 0002:0000a340       ??_R2CEdit@@8              1004c340     XEdit.obj
 0002:0000a354       ??_R1A@?0A@EA@CEdit@@8     1004c354     XEdit.obj
 0002:0000a370       ??_R4CXEdit@@6B@           1004c370     XEdit.obj
 0002:0000a384       ??_R3CXEdit@@8             1004c384     XEdit.obj
 0002:0000a394       ??_R2CXEdit@@8             1004c394     XEdit.obj
 0002:0000a3ac       ??_R1A@?0A@EA@CXEdit@@8    1004c3ac     XEdit.obj
 0002:0000a3c8       ??_R4CHeaderCtrl@@6B@      1004c3c8     XHeaderCtrl.obj
 0002:0000a3dc       ??_R3CHeaderCtrl@@8        1004c3dc     XHeaderCtrl.obj
 0002:0000a3ec       ??_R2CHeaderCtrl@@8        1004c3ec     XHeaderCtrl.obj
 0002:0000a400       ??_R1A@?0A@EA@CHeaderCtrl@@8 1004c400     XHeaderCtrl.obj
 0002:0000a41c       ??_R4CMemDC@@6B@           1004c41c     XHeaderCtrl.obj
 0002:0000a430       ??_R3CMemDC@@8             1004c430     XHeaderCtrl.obj
 0002:0000a440       ??_R2CMemDC@@8             1004c440     XHeaderCtrl.obj
 0002:0000a450       ??_R1A@?0A@EA@CMemDC@@8    1004c450     XHeaderCtrl.obj
 0002:0000a46c       ??_R1A@?0A@EA@CDC@@8       1004c46c     XHeaderCtrl.obj
 0002:0000a488       ??_R3CDC@@8                1004c488     XHeaderCtrl.obj
 0002:0000a498       ??_R2CDC@@8                1004c498     XHeaderCtrl.obj
 0002:0000a4a4       ??_R4CXHeaderCtrl@@6B@     1004c4a4     XHeaderCtrl.obj
 0002:0000a4b8       ??_R3CXHeaderCtrl@@8       1004c4b8     XHeaderCtrl.obj
 0002:0000a4c8       ??_R2CXHeaderCtrl@@8       1004c4c8     XHeaderCtrl.obj
 0002:0000a4e0       ??_R1A@?0A@EA@CXHeaderCtrl@@8 1004c4e0     XHeaderCtrl.obj
 0002:0000a4fc       ??_R4CXListCtrl@@6B@       1004c4fc     XListCtrl.obj
 0002:0000a510       ??_R3CXListCtrl@@8         1004c510     XListCtrl.obj
 0002:0000a520       ??_R2CXListCtrl@@8         1004c520     XListCtrl.obj
 0002:0000a538       ??_R1A@?0A@EA@CXListCtrl@@8 1004c538     XListCtrl.obj
 0002:0000a554       ??_R4CBrush@@6B@           1004c554     BitmapItemComboBox.obj
 0002:0000a568       ??_R3CBrush@@8             1004c568     BitmapItemComboBox.obj
 0002:0000a578       ??_R2CBrush@@8             1004c578     BitmapItemComboBox.obj
 0002:0000a588       ??_R1A@?0A@EA@CBrush@@8    1004c588     BitmapItemComboBox.obj
 0002:0000a5a4       ??_R4CComboBox@@6B@        1004c5a4     BitmapItemComboBox.obj
 0002:0000a5b8       ??_R3CComboBox@@8          1004c5b8     BitmapItemComboBox.obj
 0002:0000a5c8       ??_R2CComboBox@@8          1004c5c8     BitmapItemComboBox.obj
 0002:0000a5dc       ??_R1A@?0A@EA@CComboBox@@8 1004c5dc     BitmapItemComboBox.obj
 0002:0000a5f8       ??_R4CBitmapItemComboBox@@6B@ 1004c5f8     BitmapItemComboBox.obj
 0002:0000a60c       ??_R3CBitmapItemComboBox@@8 1004c60c     BitmapItemComboBox.obj
 0002:0000a61c       ??_R2CBitmapItemComboBox@@8 1004c61c     BitmapItemComboBox.obj
 0002:0000a634       ??_R1A@?0A@EA@CBitmapItemComboBox@@8 1004c634     BitmapItemComboBox.obj
 0002:0000a650       ??_R4CButton@@6B@          1004c650     ColorButton.obj
 0002:0000a664       ??_R3CButton@@8            1004c664     ColorButton.obj
 0002:0000a674       ??_R2CButton@@8            1004c674     ColorButton.obj
 0002:0000a688       ??_R1A@?0A@EA@CButton@@8   1004c688     ColorButton.obj
 0002:0000a6a4       ??_R4CColorButton@@6B@     1004c6a4     ColorButton.obj
 0002:0000a6b8       ??_R3CColorButton@@8       1004c6b8     ColorButton.obj
 0002:0000a6c8       ??_R2CColorButton@@8       1004c6c8     ColorButton.obj
 0002:0000a6e0       ??_R1A@?0A@EA@CColorButton@@8 1004c6e0     ColorButton.obj
 0002:0000a6fc       ??_R4CStatic@@6B@          1004c6fc     ColoredStatic.obj
 0002:0000a710       ??_R3CStatic@@8            1004c710     ColoredStatic.obj
 0002:0000a720       ??_R2CStatic@@8            1004c720     ColoredStatic.obj
 0002:0000a734       ??_R1A@?0A@EA@CStatic@@8   1004c734     ColoredStatic.obj
 0002:0000a750       ??_R4CColoredStatic@@6B@   1004c750     ColoredStatic.obj
 0002:0000a764       ??_R3CColoredStatic@@8     1004c764     ColoredStatic.obj
 0002:0000a774       ??_R2CColoredStatic@@8     1004c774     ColoredStatic.obj
 0002:0000a78c       ??_R1A@?0A@EA@CColoredStatic@@8 1004c78c     ColoredStatic.obj
 0002:0000a7a8       ??_R4CRichEditCtrl@@6B@    1004c7a8     LogicEditCtrl.obj
 0002:0000a7bc       ??_R3CRichEditCtrl@@8      1004c7bc     LogicEditCtrl.obj
 0002:0000a7cc       ??_R2CRichEditCtrl@@8      1004c7cc     LogicEditCtrl.obj
 0002:0000a7e0       ??_R1A@?0A@EA@CRichEditCtrl@@8 1004c7e0     LogicEditCtrl.obj
 0002:0000a7fc       ??_R4CLogicEditCtrl@@6B@   1004c7fc     LogicEditCtrl.obj
 0002:0000a810       ??_R3CLogicEditCtrl@@8     1004c810     LogicEditCtrl.obj
 0002:0000a820       ??_R2CLogicEditCtrl@@8     1004c820     LogicEditCtrl.obj
 0002:0000a838       ??_R1A@?0A@EA@CLogicEditCtrl@@8 1004c838     LogicEditCtrl.obj
 0002:0000a854       ??_R4?$CArray@VCElementInLogic@@AAV1@@@6B@ 1004c854     LogicEditCtrl.obj
 0002:0000a868       ??_R3?$CArray@VCElementInLogic@@AAV1@@@8 1004c868     LogicEditCtrl.obj
 0002:0000a878       ??_R2?$CArray@VCElementInLogic@@AAV1@@@8 1004c878     LogicEditCtrl.obj
 0002:0000a884       ??_R1A@?0A@EA@?$CArray@VCElementInLogic@@AAV1@@@8 1004c884     LogicEditCtrl.obj
 0002:0000a8a0       ??_R4CxSkinButton@@6B@     1004c8a0     xSkinButton.obj
 0002:0000a8b4       ??_R3CxSkinButton@@8       1004c8b4     xSkinButton.obj
 0002:0000a8c4       ??_R2CxSkinButton@@8       1004c8c4     xSkinButton.obj
 0002:0000a8dc       ??_R1A@?0A@EA@CxSkinButton@@8 1004c8dc     xSkinButton.obj
 0002:0000a8f8       ??_R4CTabCtrl@@6B@         1004c8f8     XTabCtrl.obj
 0002:0000a90c       ??_R3CTabCtrl@@8           1004c90c     XTabCtrl.obj
 0002:0000a91c       ??_R2CTabCtrl@@8           1004c91c     XTabCtrl.obj
 0002:0000a930       ??_R1A@?0A@EA@CTabCtrl@@8  1004c930     XTabCtrl.obj
 0002:0000a94c       ??_R4CXTabCtrl@@6B@        1004c94c     XTabCtrl.obj
 0002:0000a960       ??_R3CXTabCtrl@@8          1004c960     XTabCtrl.obj
 0002:0000a970       ??_R2CXTabCtrl@@8          1004c970     XTabCtrl.obj
 0002:0000a988       ??_R1A@?0A@EA@CXTabCtrl@@8 1004c988     XTabCtrl.obj
 0002:0000a9a4       ??_R4?$CArray@HH@@6B@      1004c9a4     XTabCtrl.obj
 0002:0000a9b8       ??_R3?$CArray@HH@@8        1004c9b8     XTabCtrl.obj
 0002:0000a9c8       ??_R2?$CArray@HH@@8        1004c9c8     XTabCtrl.obj
 0002:0000a9d4       ??_R1A@?0A@EA@?$CArray@HH@@8 1004c9d4     XTabCtrl.obj
 0002:0000a9f0       ??_R4?$CArray@UControlInfo@@AAU1@@@6B@ 1004c9f0     xySplitterWnd.obj
 0002:0000aa04       ??_R3?$CArray@UControlInfo@@AAU1@@@8 1004ca04     xySplitterWnd.obj
 0002:0000aa14       ??_R2?$CArray@UControlInfo@@AAU1@@@8 1004ca14     xySplitterWnd.obj
 0002:0000aa20       ??_R1A@?0A@EA@?$CArray@UControlInfo@@AAU1@@@8 1004ca20     xySplitterWnd.obj
 0002:0000aa3c       ??_R4CxSplitterWnd@@6B@    1004ca3c     xySplitterWnd.obj
 0002:0000aa50       ??_R3CxSplitterWnd@@8      1004ca50     xySplitterWnd.obj
 0002:0000aa60       ??_R2CxSplitterWnd@@8      1004ca60     xySplitterWnd.obj
 0002:0000aa74       ??_R1A@?0A@EA@CxSplitterWnd@@8 1004ca74     xySplitterWnd.obj
 0002:0000aa90       ??_R4CySplitterWnd@@6B@    1004ca90     xySplitterWnd.obj
 0002:0000aaa4       ??_R3CySplitterWnd@@8      1004caa4     xySplitterWnd.obj
 0002:0000aab4       ??_R2CySplitterWnd@@8      1004cab4     xySplitterWnd.obj
 0002:0000aac8       ??_R1A@?0A@EA@CySplitterWnd@@8 1004cac8     xySplitterWnd.obj
 0002:0000aae4       ??_R1A@?0A@EA@CDialog@@8   1004cae4     DlgStrategyConfigure.obj
 0002:0000ab00       ??_R3CDialog@@8            1004cb00     DlgStrategyConfigure.obj
 0002:0000ab10       ??_R2CDialog@@8            1004cb10     DlgStrategyConfigure.obj
 0002:0000ab24       ??_R4CDlgStrategyConfigure@@6B@ 1004cb24     DlgStrategyConfigure.obj
 0002:0000ab38       ??_R3CDlgStrategyConfigure@@8 1004cb38     DlgStrategyConfigure.obj
 0002:0000ab48       ??_R2CDlgStrategyConfigure@@8 1004cb48     DlgStrategyConfigure.obj
 0002:0000ab60       ??_R1A@?0A@EA@CDlgStrategyConfigure@@8 1004cb60     DlgStrategyConfigure.obj
 0002:0000ab7c       ??_R4CDlgStrategyList@@6B@ 1004cb7c     DlgStrategyList.obj
 0002:0000ab90       ??_R3CDlgStrategyList@@8   1004cb90     DlgStrategyList.obj
 0002:0000aba0       ??_R2CDlgStrategyList@@8   1004cba0     DlgStrategyList.obj
 0002:0000abb8       ??_R1A@?0A@EA@CDlgStrategyList@@8 1004cbb8     DlgStrategyList.obj
 0002:0000abd4       ??_R4CCommonDialog@@6B@    1004cbd4     DlgSysVarOption.obj
 0002:0000abe8       ??_R3CCommonDialog@@8      1004cbe8     DlgSysVarOption.obj
 0002:0000abf8       ??_R2CCommonDialog@@8      1004cbf8     DlgSysVarOption.obj
 0002:0000ac10       ??_R1A@?0A@EA@CCommonDialog@@8 1004cc10     DlgSysVarOption.obj
 0002:0000ac2c       ??_R4CDlgSysVarOption@@6B@ 1004cc2c     DlgSysVarOption.obj
 0002:0000ac40       ??_R3CDlgSysVarOption@@8   1004cc40     DlgSysVarOption.obj
 0002:0000ac50       ??_R2CDlgSysVarOption@@8   1004cc50     DlgSysVarOption.obj
 0002:0000ac68       ??_R1A@?0A@EA@CDlgSysVarOption@@8 1004cc68     DlgSysVarOption.obj
 0002:0000ac84       ??_R4CDlgTimeSelector@@6B@ 1004cc84     DlgTimeSelector.obj
 0002:0000ac98       ??_R3CDlgTimeSelector@@8   1004cc98     DlgTimeSelector.obj
 0002:0000aca8       ??_R2CDlgTimeSelector@@8   1004cca8     DlgTimeSelector.obj
 0002:0000acc0       ??_R1A@?0A@EA@CDlgTimeSelector@@8 1004ccc0     DlgTimeSelector.obj
 0002:0000acdc       ??_R4CGridCell@@6B@        1004ccdc     GridCell.obj
 0002:0000acf0       ??_R3CGridCell@@8          1004ccf0     GridCell.obj
 0002:0000ad00       ??_R2CGridCell@@8          1004cd00     GridCell.obj
 0002:0000ad10       ??_R1A@?0A@EA@CGridCell@@8 1004cd10     GridCell.obj
 0002:0000ad2c       ??_R1A@?0A@EA@CGridCellBase@@8 1004cd2c     GridCell.obj
 0002:0000ad48       ??_R3CGridCellBase@@8      1004cd48     GridCell.obj
 0002:0000ad58       ??_R2CGridCellBase@@8      1004cd58     GridCell.obj
 0002:0000ad64       ??_R4CGridDefaultCell@@6B@ 1004cd64     GridCell.obj
 0002:0000ad78       ??_R3CGridDefaultCell@@8   1004cd78     GridCell.obj
 0002:0000ad88       ??_R2CGridDefaultCell@@8   1004cd88     GridCell.obj
 0002:0000ad9c       ??_R1A@?0A@EA@CGridDefaultCell@@8 1004cd9c     GridCell.obj
 0002:0000adb8       ??_R4CGridCellBase@@6B@    1004cdb8     GridCellBase.obj
 0002:0000adcc       ??_R3CException@@8         1004cdcc     GridCtrl.obj
 0002:0000addc       ??_R2CException@@8         1004cddc     GridCtrl.obj
 0002:0000ade8       ??_R1A@?0A@EA@CException@@8 1004cde8     GridCtrl.obj
 0002:0000ae04       ??_R4CFileException@@6B@   1004ce04     GridCtrl.obj
 0002:0000ae18       ??_R3CFileException@@8     1004ce18     GridCtrl.obj
 0002:0000ae28       ??_R2CFileException@@8     1004ce28     GridCtrl.obj
 0002:0000ae38       ??_R1A@?0A@EA@CFileException@@8 1004ce38     GridCtrl.obj
 0002:0000ae54       ??_R4CGridCtrl@@6B@        1004ce54     GridCtrl.obj
 0002:0000ae68       ??_R3CGridCtrl@@8          1004ce68     GridCtrl.obj
 0002:0000ae78       ??_R2CGridCtrl@@8          1004ce78     GridCtrl.obj
 0002:0000ae8c       ??_R1A@?0A@EA@CGridCtrl@@8 1004ce8c     GridCtrl.obj
 0002:0000aea8       ??_R4?$CTypedPtrArray@VCObArray@@PAVCGridCellBase@@@@6B@ 1004cea8     GridCtrl.obj
 0002:0000aebc       ??_R3?$CTypedPtrArray@VCObArray@@PAVCGridCellBase@@@@8 1004cebc     GridCtrl.obj
 0002:0000aecc       ??_R2?$CTypedPtrArray@VCObArray@@PAVCGridCellBase@@@@8 1004cecc     GridCtrl.obj
 0002:0000aedc       ??_R1A@?0A@EA@?$CTypedPtrArray@VCObArray@@PAVCGridCellBase@@@@8 1004cedc     GridCtrl.obj
 0002:0000aef8       ??_R1A@?0A@EA@CObArray@@8  1004cef8     GridCtrl.obj
 0002:0000af14       ??_R3CObArray@@8           1004cf14     GridCtrl.obj
 0002:0000af24       ??_R2CObArray@@8           1004cf24     GridCtrl.obj
 0002:0000af30       ??_R4?$CTypedPtrArray@VCObArray@@PAV?$CTypedPtrArray@VCObArray@@PAVCGridCellBase@@@@@@6B@ 1004cf30     GridCtrl.obj
 0002:0000af44       ??_R3?$CTypedPtrArray@VCObArray@@PAV?$CTypedPtrArray@VCObArray@@PAVCGridCellBase@@@@@@8 1004cf44     GridCtrl.obj
 0002:0000af54       ??_R2?$CTypedPtrArray@VCObArray@@PAV?$CTypedPtrArray@VCObArray@@PAVCGridCellBase@@@@@@8 1004cf54     GridCtrl.obj
 0002:0000af64       ??_R1A@?0A@EA@?$CTypedPtrArray@VCObArray@@PAV?$CTypedPtrArray@VCObArray@@PAVCGridCellBase@@@@@@8 1004cf64     GridCtrl.obj
 0002:0000af80       ??_R4?$CMap@KKVCCellID@@AAV1@@@6B@ 1004cf80     GridCtrl.obj
 0002:0000af94       ??_R3?$CMap@KKVCCellID@@AAV1@@@8 1004cf94     GridCtrl.obj
 0002:0000afa4       ??_R2?$CMap@KKVCCellID@@AAV1@@@8 1004cfa4     GridCtrl.obj
 0002:0000afb0       ??_R1A@?0A@EA@?$CMap@KKVCCellID@@AAV1@@@8 1004cfb0     GridCtrl.obj
 0002:0000afcc       ??_R4CGridDropTarget@@6B@  1004cfcc     GridDropTarget.obj
 0002:0000afe0       ??_R3CGridDropTarget@@8    1004cfe0     GridDropTarget.obj
 0002:0000aff0       ??_R2CGridDropTarget@@8    1004cff0     GridDropTarget.obj
 0002:0000b004       ??_R1A@?0A@EA@CGridDropTarget@@8 1004d004     GridDropTarget.obj
 0002:0000b020       ??_R1A@?0A@EA@COleDropTarget@@8 1004d020     GridDropTarget.obj
 0002:0000b03c       ??_R3COleDropTarget@@8     1004d03c     GridDropTarget.obj
 0002:0000b04c       ??_R2COleDropTarget@@8     1004d04c     GridDropTarget.obj
 0002:0000b05c       ??_R4CInPlaceEdit@@6B@     1004d05c     InPlaceEdit.obj
 0002:0000b070       ??_R3CInPlaceEdit@@8       1004d070     InPlaceEdit.obj
 0002:0000b080       ??_R2CInPlaceEdit@@8       1004d080     InPlaceEdit.obj
 0002:0000b098       ??_R1A@?0A@EA@CInPlaceEdit@@8 1004d098     InPlaceEdit.obj
 0002:0000b0b4       ??_R4CTitleTip@@6B@        1004d0b4     TitleTip.obj
 0002:0000b0c8       ??_R3CTitleTip@@8          1004d0c8     TitleTip.obj
 0002:0000b0d8       ??_R2CTitleTip@@8          1004d0d8     TitleTip.obj
 0002:0000b0ec       ??_R1A@?0A@EA@CTitleTip@@8 1004d0ec     TitleTip.obj
 0002:0000b108       ??_R4COutLookBarDlg@@6B@   1004d108     OutLookBarDlg.obj
 0002:0000b11c       ??_R3COutLookBarDlg@@8     1004d11c     OutLookBarDlg.obj
 0002:0000b12c       ??_R2COutLookBarDlg@@8     1004d12c     OutLookBarDlg.obj
 0002:0000b144       ??_R1A@?0A@EA@COutLookBarDlg@@8 1004d144     OutLookBarDlg.obj
 0002:0000b160       ??_R4CSDItemInfo@@6B@      1004d160     SDItemInfo.obj
 0002:0000b174       ??_R3CSDItemInfo@@8        1004d174     SDItemInfo.obj
 0002:0000b184       ??_R2CSDItemInfo@@8        1004d184     SDItemInfo.obj
 0002:0000b18c       ??_R1A@?0A@EA@CSDItemInfo@@8 1004d18c     SDItemInfo.obj
 0002:0000b1a8       ??_R4CWin32Heap@ATL@@6B@   1004d1a8     StdAfx.obj
 0002:0000b1bc       ??_R3CWin32Heap@ATL@@8     1004d1bc     StdAfx.obj
 0002:0000b1cc       ??_R2CWin32Heap@ATL@@8     1004d1cc     StdAfx.obj
 0002:0000b1d8       ??_R1A@?0A@EA@CWin32Heap@ATL@@8 1004d1d8     StdAfx.obj
 0002:0000b1f4       ??_R1A@?0A@EA@IAtlMemMgr@ATL@@8 1004d1f4     StdAfx.obj
 0002:0000b210       ??_R3IAtlMemMgr@ATL@@8     1004d210     StdAfx.obj
 0002:0000b220       ??_R2IAtlMemMgr@ATL@@8     1004d220     StdAfx.obj
 0002:0000b228       ??_R1A@?0A@EA@IAtlStringMgr@ATL@@8 1004d228     StdAfx.obj
 0002:0000b244       ??_R3IAtlStringMgr@ATL@@8  1004d244     StdAfx.obj
 0002:0000b254       ??_R2IAtlStringMgr@ATL@@8  1004d254     StdAfx.obj
 0002:0000b25c       ??_R4CAtlStringMgr@ATL@@6B@ 1004d25c     StdAfx.obj
 0002:0000b270       ??_R3CAtlStringMgr@ATL@@8  1004d270     StdAfx.obj
 0002:0000b280       ??_R2CAtlStringMgr@ATL@@8  1004d280     StdAfx.obj
 0002:0000b28c       ??_R1A@?0A@EA@CAtlStringMgr@ATL@@8 1004d28c     StdAfx.obj
 0002:0000b2a8       ??_R4CLoaderDrawButton@@6B@ 1004d2a8     ExControl:ExDrawButton.obj
 0002:0000b2bc       ??_R3CLoaderDrawButton@@8  1004d2bc     ExControl:ExDrawButton.obj
 0002:0000b2cc       ??_R2CLoaderDrawButton@@8  1004d2cc     ExControl:ExDrawButton.obj
 0002:0000b2d8       ??_R1A@?0A@EA@CLoaderDrawButton@@8 1004d2d8     ExControl:ExDrawButton.obj
 0002:0000b2f4       ??_R1A@?0A@EA@CExLoadLib@@8 1004d2f4     ExControl:ExDrawButton.obj
 0002:0000b310       ??_R3CExLoadLib@@8         1004d310     ExControl:ExDrawButton.obj
 0002:0000b320       ??_R2CExLoadLib@@8         1004d320     ExControl:ExDrawButton.obj
 0002:0000b328       ??_R4CExDrawButton@@6B@    1004d328     ExControl:ExDrawButton.obj
 0002:0000b33c       ??_R3CExDrawButton@@8      1004d33c     ExControl:ExDrawButton.obj
 0002:0000b34c       ??_R2CExDrawButton@@8      1004d34c     ExControl:ExDrawButton.obj
 0002:0000b368       ??_R1A@?0A@EA@CExDrawButton@@8 1004d368     ExControl:ExDrawButton.obj
 0002:0000b384       ??_R1A@?0A@EA@CExButton@@8 1004d384     ExControl:ExDrawButton.obj
 0002:0000b3a0       ??_R3CExButton@@8          1004d3a0     ExControl:ExDrawButton.obj
 0002:0000b3b0       ??_R2CExButton@@8          1004d3b0     ExControl:ExDrawButton.obj
 0002:0000b3c8       ??_R4CExLoadLib@@6B@       1004d3c8     ExControl:ExDrawButton.obj
 0002:0000b3dc       ??_R4CLoaderEdit@@6B@      1004d3dc     ExControl:ExEdit.obj
 0002:0000b3f0       ??_R3CLoaderEdit@@8        1004d3f0     ExControl:ExEdit.obj
 0002:0000b400       ??_R2CLoaderEdit@@8        1004d400     ExControl:ExEdit.obj
 0002:0000b40c       ??_R1A@?0A@EA@CLoaderEdit@@8 1004d40c     ExControl:ExEdit.obj
 0002:0000b428       ??_R4CExEdit@@6B@          1004d428     ExControl:ExEdit.obj
 0002:0000b43c       ??_R3CExEdit@@8            1004d43c     ExControl:ExEdit.obj
 0002:0000b44c       ??_R2CExEdit@@8            1004d44c     ExControl:ExEdit.obj
 0002:0000b464       ??_R1A@?0A@EA@CExEdit@@8   1004d464     ExControl:ExEdit.obj
 0002:0000b480       ??_R4CExButton@@6B@        1004d480     ExControl:ExButton.obj
 0002:0000b494       ??_R4?$CArray@PAXPAX@@6B@  1004d494     ExControl:StdAfx.obj
 0002:0000b4a8       ??_R3?$CArray@PAXPAX@@8    1004d4a8     ExControl:StdAfx.obj
 0002:0000b4b8       ??_R2?$CArray@PAXPAX@@8    1004d4b8     ExControl:StdAfx.obj
 0002:0000b4c4       ??_R1A@?0A@EA@?$CArray@PAXPAX@@8 1004d4c4     ExControl:StdAfx.obj
 0002:0000b4e0       ??_R4type_info@@6B@        1004d4e0     msvcrt:std_type_info_static.obj
 0002:0000b4f4       ??_R3type_info@@8          1004d4f4     msvcrt:std_type_info_static.obj
 0002:0000b504       ??_R2type_info@@8          1004d504     msvcrt:std_type_info_static.obj
 0002:0000b50c       ??_R1A@?0A@EA@type_info@@8 1004d50c     msvcrt:std_type_info_static.obj
 0002:0000b528       ___safe_se_handler_table   1004d528     <linker-defined>
 0002:0000b900       ___volatile_metadata       1004d900     <linker-defined>
 0002:0000bd88       ___rtc_iaa                 1004dd88     msvcrt:initsect.obj
 0002:0000bd8c       ___rtc_izz                 1004dd8c     msvcrt:initsect.obj
 0002:0000bd90       ___rtc_taa                 1004dd90     msvcrt:initsect.obj
 0002:0000bd94       ___rtc_tzz                 1004dd94     msvcrt:initsect.obj
 0002:0000bd98       __tls_start                1004dd98     msvcrt:tlssup.obj
 0002:0000bd9c       __Init_thread_epoch        1004dd9c     msvcrt:thread_safe_statics.obj
 0002:0000bda0       __tls_end                  1004dda0     msvcrt:tlssup.obj
 0002:0000fb24       ___pobjMapEntryFirst       10051b24     StdAfx.obj
 0002:0000fb28       ___pobjMapEntryLast        10051b28     StdAfx.obj
 0002:0000fc9c       __IMPORT_DESCRIPTOR_mfc140 10051c9c     mfc140:mfc140.dll
 0002:0000fcb0       __IMPORT_DESCRIPTOR_KERNEL32 10051cb0     kernel32:KERNEL32.dll
 0002:0000fcc4       __IMPORT_DESCRIPTOR_USER32 10051cc4     user32:USER32.dll
 0002:0000fcd8       __IMPORT_DESCRIPTOR_GDI32  10051cd8     gdi32:GDI32.dll
 0002:0000fcec       __IMPORT_DESCRIPTOR_ADVAPI32 10051cec     advapi32:ADVAPI32.dll
 0002:0000fd00       __IMPORT_DESCRIPTOR_SHELL32 10051d00     shell32:SHELL32.dll
 0002:0000fd14       __IMPORT_DESCRIPTOR_COMCTL32 10051d14     comctl32:COMCTL32.dll
 0002:0000fd28       __IMPORT_DESCRIPTOR_OLEAUT32 10051d28     oleaut32:OLEAUT32.dll
 0002:0000fd3c       __IMPORT_DESCRIPTOR_VCRUNTIME140 10051d3c     vcruntime:VCRUNTIME140.dll
 0002:0000fd50       __IMPORT_DESCRIPTOR_api-ms-win-crt-stdio-l1-1-0 10051d50     ucrt:api-ms-win-crt-stdio-l1-1-0.dll
 0002:0000fd64       __IMPORT_DESCRIPTOR_api-ms-win-crt-string-l1-1-0 10051d64     ucrt:api-ms-win-crt-string-l1-1-0.dll
 0002:0000fd78       __IMPORT_DESCRIPTOR_api-ms-win-crt-convert-l1-1-0 10051d78     ucrt:api-ms-win-crt-convert-l1-1-0.dll
 0002:0000fd8c       __IMPORT_DESCRIPTOR_api-ms-win-crt-runtime-l1-1-0 10051d8c     ucrt:api-ms-win-crt-runtime-l1-1-0.dll
 0002:0000fda0       __IMPORT_DESCRIPTOR_api-ms-win-crt-filesystem-l1-1-0 10051da0     ucrt:api-ms-win-crt-filesystem-l1-1-0.dll
 0002:0000fdb4       __IMPORT_DESCRIPTOR_api-ms-win-crt-multibyte-l1-1-0 10051db4     ucrt:api-ms-win-crt-multibyte-l1-1-0.dll
 0002:0000fdc8       __IMPORT_DESCRIPTOR_api-ms-win-crt-time-l1-1-0 10051dc8     ucrt:api-ms-win-crt-time-l1-1-0.dll
 0002:0000fddc       __IMPORT_DESCRIPTOR_api-ms-win-crt-heap-l1-1-0 10051ddc     ucrt:api-ms-win-crt-heap-l1-1-0.dll
 0002:0000fdf0       __NULL_IMPORT_DESCRIPTOR   10051df0     mfc140:mfc140.dll
 0003:00000008       __pIncludeInitManaged      10054008     StdAfx.obj
 0003:0000000c       ?_AtlComModule@ATL@@3VCAtlComModule@1@A 1005400c     StdAfx.obj
 0003:00000034       ?_AtlWinModule@ATL@@3VCAtlWinModule@1@A 10054034     StdAfx.obj
 0003:00000060       ?m_arPermanentHandle@@3V?$CArray@PAXPAX@@A 10054060     ExControl:StdAfx.obj
 0003:00000074       _WinbaseIsolationAwarePrivateT_UnPgpgk 10054074     mfcs140:nolib.obj
 0003:00000078       ___security_cookie_complement 10054078     msvcrt:gs_cookie.obj
 0003:0000007c       ___security_cookie         1005407c     msvcrt:gs_cookie.obj
 0003:00000080       __fltused                  10054080     msvcrt:fltused.obj
 0003:00000084       ___scrt_native_dllmain_reason 10054084     msvcrt:utility.obj
 0003:00000088       __Init_global_epoch        10054088     msvcrt:thread_safe_statics.obj
 0003:00000090       ___isa_enabled             10054090     msvcrt:cpu_disp.obj
 0003:00000094       ___scrt_ucrt_dll_is_in_use 10054094     msvcrt:ucrt_stubs.obj
 0003:00000098       ??_R0PAVCException@@@8     10054098     STGfxOutBarCtrl.obj
 0003:000000b4       ??_R0PAVCResourceException@@@8 100540b4     GridCellBase.obj
 0003:000000d8       ??_R0PAVCMemoryException@@@8 100540d8     GridCtrl.obj
 0003:000000f8       ??_R0PAVCFileException@@@8 100540f8     GridCtrl.obj
 0003:00000118       ??_R0?AVCDllSTLoader@@@8   10054118     DllSTLoader.obj
 0003:00000134       ??_R0?AVCObject@@@8        10054134     STGfxOutBarCtrl.obj
 0003:0000014c       ??_R0?AVCGdiObject@@@8     1005414c     STGfxOutBarCtrl.obj
 0003:00000168       ??_R0?AVCPen@@@8           10054168     STGfxOutBarCtrl.obj
 0003:0000017c       ??_R0?AVCFont@@@8          1005417c     STGfxOutBarCtrl.obj
 0003:00000190       ??_R0?AVCBitmap@@@8        10054190     STGfxOutBarCtrl.obj
 0003:000001a8       ??_R0?AVCRgn@@@8           100541a8     STGfxOutBarCtrl.obj
 0003:000001bc       ??_R0?AVCWnd@@@8           100541bc     STGfxOutBarCtrl.obj
 0003:000001d0       ??_R0?AVCCmdTarget@@@8     100541d0     STGfxOutBarCtrl.obj
 0003:000001ec       ??_R0?AUIGfxOutBarCtrl@@@8 100541ec     STGfxOutBarCtrl.obj
 0003:0000020c       ??_R0?AUIGfxOutBarCtrl2@@@8 1005420c     STGfxOutBarCtrl.obj
 0003:0000022c       ??_R0?AVCSTGfxOutBarCtrl@@@8 1005422c     STGfxOutBarCtrl.obj
 0003:0000024c       ??_R0?AVCBarItem@CSTGfxOutBarCtrl@@@8 1005424c     STGfxOutBarCtrl.obj
 0003:00000274       ??_R0?AVCBarFolder@CSTGfxOutBarCtrl@@@8 10054274     STGfxOutBarCtrl.obj
 0003:000002a0       ??_R0?AVCImpl_IGfxOutBarCtrl@@@8 100542a0     STGfxOutBarCtrl.obj
 0003:000002c4       ??_R0?AVCMenu@@@8          100542c4     STListCtrl.obj
 0003:000002d8       ??_R0?AVCListCtrl@@@8      100542d8     STListCtrl.obj
 0003:000002f0       ??_R0?AVCSTListCtrl@@@8    100542f0     STListCtrl.obj
 0003:0000030c       ??_R0?AVCTreeCtrl@@@8      1005430c     STTreeCtrl.obj
 0003:00000324       ??_R0?AVCSTTreeCtrl@@@8    10054324     STTreeCtrl.obj
 0003:00000340       ??_R0?AVCSTExtTree@@@8     10054340     STTreeCtrl.obj
 0003:0000035c       ??_R0?AVCSTBasicTree@@@8   1005435c     STTreeCtrl.obj
 0003:00000378       ??_R0?AUISTLoadManager@@@8 10054378     _STLoadmanager.obj
 0003:00000398       ??_R0?AUISTLoadManager2@@@8 10054398     _STLoadmanager.obj
 0003:000003b8       ??_R0?AV?$CList@PAUSTFILEITEM@@PAU1@@@@8 100543b8     _STLoadmanager.obj
 0003:000003e4       ??_R0?AVCSTLoadManager@@@8 100543e4     _STLoadmanager.obj
 0003:00000404       ??_R0?AVCEdit@@@8          10054404     XEdit.obj
 0003:00000418       ??_R0?AVCXEdit@@@8         10054418     XEdit.obj
 0003:00000430       ??_R0?AVCHeaderCtrl@@@8    10054430     XHeaderCtrl.obj
 0003:0000044c       ??_R0?AVCMemDC@@@8         1005444c     XHeaderCtrl.obj
 0003:00000464       ??_R0?AVCDC@@@8            10054464     XHeaderCtrl.obj
 0003:00000478       ??_R0?AVCXHeaderCtrl@@@8   10054478     XHeaderCtrl.obj
 0003:00000494       ??_R0?AVCXListCtrl@@@8     10054494     XListCtrl.obj
 0003:000004b0       ??_R0?AVCBrush@@@8         100544b0     BitmapItemComboBox.obj
 0003:000004c8       ??_R0?AVCComboBox@@@8      100544c8     BitmapItemComboBox.obj
 0003:000004e0       ??_R0?AVCBitmapItemComboBox@@@8 100544e0     BitmapItemComboBox.obj
 0003:00000504       ??_R0?AVCButton@@@8        10054504     ColorButton.obj
 0003:0000051c       ??_R0?AVCColorButton@@@8   1005451c     ColorButton.obj
 0003:00000538       ??_R0?AVCStatic@@@8        10054538     ColoredStatic.obj
 0003:00000550       ??_R0?AVCColoredStatic@@@8 10054550     ColoredStatic.obj
 0003:00000570       ??_R0?AVCRichEditCtrl@@@8  10054570     LogicEditCtrl.obj
 0003:0000058c       ??_R0?AVCLogicEditCtrl@@@8 1005458c     LogicEditCtrl.obj
 0003:000005ac       ??_R0?AV?$CArray@VCElementInLogic@@AAV1@@@@8 100545ac     LogicEditCtrl.obj
 0003:000005dc       ??_R0?AVCxSkinButton@@@8   100545dc     xSkinButton.obj
 0003:000005f8       ??_R0?AVCTabCtrl@@@8       100545f8     XTabCtrl.obj
 0003:00000610       ??_R0?AVCXTabCtrl@@@8      10054610     XTabCtrl.obj
 0003:00000628       ??_R0?AV?$CArray@HH@@@8    10054628     XTabCtrl.obj
 0003:00000644       ??_R0?AV?$CArray@UControlInfo@@AAU1@@@@8 10054644     xySplitterWnd.obj
 0003:00000670       ??_R0?AVCxSplitterWnd@@@8  10054670     xySplitterWnd.obj
 0003:0000068c       ??_R0?AVCySplitterWnd@@@8  1005468c     xySplitterWnd.obj
 0003:000006a8       ??_R0?AVCDialog@@@8        100546a8     DlgStrategyConfigure.obj
 0003:000006c0       ??_R0?AVCDlgStrategyConfigure@@@8 100546c0     DlgStrategyConfigure.obj
 0003:000006e4       ??_R0?AVCDlgStrategyList@@@8 100546e4     DlgStrategyList.obj
 0003:00000704       ??_R0?AVCCommonDialog@@@8  10054704     DlgSysVarOption.obj
 0003:00000720       ??_R0?AVCDlgSysVarOption@@@8 10054720     DlgSysVarOption.obj
 0003:00000740       ??_R0?AVCDlgTimeSelector@@@8 10054740     DlgTimeSelector.obj
 0003:00000760       ??_R0?AVCGridCell@@@8      10054760     GridCell.obj
 0003:00000778       ??_R0?AVCGridCellBase@@@8  10054778     GridCell.obj
 0003:00000794       ??_R0?AVCGridDefaultCell@@@8 10054794     GridCell.obj
 0003:000007b4       ??_R0?AVCException@@@8     100547b4     GridCtrl.obj
 0003:000007d0       ??_R0?AVCFileException@@@8 100547d0     GridCtrl.obj
 0003:000007f0       ??_R0?AVCGridCtrl@@@8      100547f0     GridCtrl.obj
 0003:00000808       ??_R0?AV?$CTypedPtrArray@VCObArray@@PAVCGridCellBase@@@@@8 10054808     GridCtrl.obj
 0003:00000848       ??_R0?AVCObArray@@@8       10054848     GridCtrl.obj
 0003:00000860       ??_R0?AV?$CTypedPtrArray@VCObArray@@PAV?$CTypedPtrArray@VCObArray@@PAVCGridCellBase@@@@@@@8 10054860     GridCtrl.obj
 0003:000008c0       ??_R0?AV?$CMap@KKVCCellID@@AAV1@@@@8 100548c0     GridCtrl.obj
 0003:000008e8       ??_R0?AVCGridDropTarget@@@8 100548e8     GridDropTarget.obj
 0003:00000908       ??_R0?AVCOleDropTarget@@@8 10054908     GridDropTarget.obj
 0003:00000928       ??_R0?AVCInPlaceEdit@@@8   10054928     InPlaceEdit.obj
 0003:00000944       ??_R0?AVCTitleTip@@@8      10054944     TitleTip.obj
 0003:0000095c       ??_R0?AVCOutLookBarDlg@@@8 1005495c     OutLookBarDlg.obj
 0003:0000097c       ??_R0?AVCSDItemInfo@@@8    1005497c     SDItemInfo.obj
 0003:00000998       ??_R0?AVCWin32Heap@ATL@@@8 10054998     StdAfx.obj
 0003:000009b8       ??_R0?AUIAtlMemMgr@ATL@@@8 100549b8     StdAfx.obj
 0003:000009d8       ??_R0?AUIAtlStringMgr@ATL@@@8 100549d8     StdAfx.obj
 0003:000009f8       ??_R0?AVCAtlStringMgr@ATL@@@8 100549f8     StdAfx.obj
 0003:00000a18       ??_R0?AVCLoaderDrawButton@@@8 10054a18     ExControl:ExDrawButton.obj
 0003:00000a38       ??_R0?AVCExLoadLib@@@8     10054a38     ExControl:ExDrawButton.obj
 0003:00000a54       ??_R0?AVCExDrawButton@@@8  10054a54     ExControl:ExDrawButton.obj
 0003:00000a70       ??_R0?AVCExButton@@@8      10054a70     ExControl:ExDrawButton.obj
 0003:00000a88       ??_R0?AVCLoaderEdit@@@8    10054a88     ExControl:ExEdit.obj
 0003:00000aa4       ??_R0?AVCExEdit@@@8        10054aa4     ExControl:ExEdit.obj
 0003:00000abc       ??_R0?AV?$CArray@PAXPAX@@@8 10054abc     ExControl:StdAfx.obj
 0003:00000adc       ??_R0?AVtype_info@@@8      10054adc     msvcrt:std_type_info_static.obj
 0003:00000b00       ?_OptionsStorage@?1??__local_stdio_scanf_options@@9@4_KA 10054b00     STListCtrl.obj
 0003:00000b18       ?_OptionsStorage@?1??__local_stdio_printf_options@@9@4_KA 10054b18     STTreeCtrl.obj
 0003:00000b30       ?WM_XEDIT_VK_RETURN@@3IA   10054b30     XEdit.obj
 0003:00000b34       ?WM_XEDIT_VK_ESCAPE@@3IA   10054b34     XEdit.obj
 0003:00000b38       ?WM_XLISTCTRL_COMBO_SELECTION@@3IA 10054b38     XListCtrl.obj
 0003:00000b3c       ?WM_XLISTCTRL_CHECKBOX_CLICKED@@3IA 10054b3c     XListCtrl.obj
 0003:00000be8       ?gvdi@?6??GetCell@CGridCtrl@@QBEPAVCGridCellBase@@HH@Z@4UtagGV_DISPINFO@@A 10054be8     GridCtrl.obj
 0003:00000c5c       ?$TSS0@?6??GetCell@CGridCtrl@@QBEPAVCGridCellBase@@HH@Z@4HA 10054c5c     GridCtrl.obj
 0003:00000c60       ?cell@?6??GetCell@CGridCtrl@@QBEPAVCGridCellBase@@HH@Z@4VCGridCell@@A 10054c60     GridCtrl.obj
 0003:00000c98       ?$TSS1@?6??GetCell@CGridCtrl@@QBEPAVCGridCellBase@@HH@Z@4HA 10054c98     GridCtrl.obj
 0003:00000cac       __afxForceEXTDLL           10054cac     HWStrategyConfigureWizard.obj
 0003:00000d2c       ___@@_PchSym_@00@UtrgUhixUrypUrypPwiumUKxwwiumRxhUPlyqUsdhgizgvtbxlmurtfivdraziwUhgwzucOlyq@4B2008FD98C1DD4 10054d2c     StdAfx.obj
 0003:00000d30       ?strHeap@?1??GetInstance@CAtlStringMgr@ATL@@SAPAUIAtlStringMgr@3@XZ@4VCWin32Heap@3@A 10054d30     StdAfx.obj
 0003:00000d3c       ?$TSS0@?1??GetInstance@CAtlStringMgr@ATL@@SAPAUIAtlStringMgr@3@XZ@4HA 10054d3c     StdAfx.obj
 0003:00000d40       ?strMgr@?1??GetInstance@CAtlStringMgr@ATL@@SAPAUIAtlStringMgr@3@XZ@4V23@A 10054d40     StdAfx.obj
 0003:00000d5c       ?$TSS1@?1??GetInstance@CAtlStringMgr@ATL@@SAPAUIAtlStringMgr@3@XZ@4HA 10054d5c     StdAfx.obj
 0003:00000d60       ?m_bInitFailed@CAtlBaseModule@ATL@@2_NA 10054d60     StdAfx.obj
 0003:00000d64       ?_pPerfRegFunc@ATL@@3P6AJPAUHINSTANCE__@@@ZA 10054d64     StdAfx.obj
 0003:00000d68       ?_pPerfUnRegFunc@ATL@@3P6AJXZA 10054d68     StdAfx.obj
 0003:00000d6c       ?_AtlRegisterPerUser@ATL@@3_NA 10054d6c     StdAfx.obj
 0003:00000d70       ?_pAtlModule@ATL@@3PAVCAtlModule@1@A 10054d70     StdAfx.obj
 0003:00000d74       ?_pModule@ATL@@3PAVCComModule@1@A 10054d74     StdAfx.obj
 0003:00000d78       ?_pAtlAutoThreadModule@ATL@@3PAUIAtlAutoThreadModule@1@A 10054d78     StdAfx.obj
 0003:00000d7c       ?atlTraceGeneral@ATL@@3V?$CTraceCategoryEx@$00$0A@@1@A 10054d7c     StdAfx.obj
 0003:00000d80       ?atlTraceCOM@ATL@@3V?$CTraceCategoryEx@$01$0A@@1@A 10054d80     StdAfx.obj
 0003:00000d84       ?atlTraceQI@ATL@@3V?$CTraceCategoryEx@$03$0A@@1@A 10054d84     StdAfx.obj
 0003:00000d88       ?atlTraceRegistrar@ATL@@3V?$CTraceCategoryEx@$07$0A@@1@A 10054d88     StdAfx.obj
 0003:00000d8c       ?atlTraceRefcount@ATL@@3V?$CTraceCategoryEx@$0BA@$0A@@1@A 10054d8c     StdAfx.obj
 0003:00000d90       ?atlTraceWindowing@ATL@@3V?$CTraceCategoryEx@$0CA@$0A@@1@A 10054d90     StdAfx.obj
 0003:00000d94       ?atlTraceControls@ATL@@3V?$CTraceCategoryEx@$0EA@$0A@@1@A 10054d94     StdAfx.obj
 0003:00000d98       ?atlTraceHosting@ATL@@3V?$CTraceCategoryEx@$0IA@$0A@@1@A 10054d98     StdAfx.obj
 0003:00000d9c       ?atlTraceDBClient@ATL@@3V?$CTraceCategoryEx@$0BAA@$0A@@1@A 10054d9c     StdAfx.obj
 0003:00000da0       ?atlTraceDBProvider@ATL@@3V?$CTraceCategoryEx@$0CAA@$0A@@1@A 10054da0     StdAfx.obj
 0003:00000da4       ?atlTraceSnapin@ATL@@3V?$CTraceCategoryEx@$0EAA@$0A@@1@A 10054da4     StdAfx.obj
 0003:00000da8       ?atlTraceNotImpl@ATL@@3V?$CTraceCategoryEx@$0IAA@$0A@@1@A 10054da8     StdAfx.obj
 0003:00000dac       ?atlTraceAllocation@ATL@@3V?$CTraceCategoryEx@$0BAAA@$0A@@1@A 10054dac     StdAfx.obj
 0003:00000db0       ?atlTraceException@ATL@@3V?$CTraceCategoryEx@$0CAAA@$0A@@1@A 10054db0     StdAfx.obj
 0003:00000db4       ?atlTraceTime@ATL@@3V?$CTraceCategoryEx@$0EAAA@$0A@@1@A 10054db4     StdAfx.obj
 0003:00000db8       ?atlTraceCache@ATL@@3V?$CTraceCategoryEx@$0IAAA@$0A@@1@A 10054db8     StdAfx.obj
 0003:00000dbc       ?atlTraceStencil@ATL@@3V?$CTraceCategoryEx@$0BAAAA@$0A@@1@A 10054dbc     StdAfx.obj
 0003:00000dc0       ?atlTraceString@ATL@@3V?$CTraceCategoryEx@$0CAAAA@$0A@@1@A 10054dc0     StdAfx.obj
 0003:00000dc4       ?atlTraceMap@ATL@@3V?$CTraceCategoryEx@$0EAAAA@$0A@@1@A 10054dc4     StdAfx.obj
 0003:00000dc8       ?atlTraceUtil@ATL@@3V?$CTraceCategoryEx@$0IAAAA@$0A@@1@A 10054dc8     StdAfx.obj
 0003:00000dcc       ?atlTraceSecurity@ATL@@3V?$CTraceCategoryEx@$0BAAAAA@$0A@@1@A 10054dcc     StdAfx.obj
 0003:00000dd0       ?atlTraceSync@ATL@@3V?$CTraceCategoryEx@$0CAAAAA@$0A@@1@A 10054dd0     StdAfx.obj
 0003:00000dd4       ?atlTraceISAPI@ATL@@3V?$CTraceCategoryEx@$0EAAAAA@$0A@@1@A 10054dd4     StdAfx.obj
 0003:00000dd8       ?isInitialized@CAtlStringMgr@ATL@@0_NA 10054dd8     StdAfx.obj
 0003:00000dd9       ?InitializeCAtlStringMgr@ATLImplementationDetails@ATL@@3UCAtlStringMgrStaticInitializer@12@A 10054dd9     StdAfx.obj
 0003:00000e0c       ___@@_PchSym_@00@UtrgUhixUrypUrypPwiumUKxwwiumRxhUPlyqUvcxlmgiloUhgwzucOlyq@4B2008FD98C1DD4 10054e0c     ExControl:StdAfx.obj
 0003:00000e48       _IsolationAwarePrivateT_SqbjaYRiRY 10054e48     mfcs140:nolib.obj
 0003:00000e4c       _IsolationAwarePrivateT_SAbnPgpgk 10054e4c     mfcs140:nolib.obj
 0003:00000e50       _WinbaseIsolationAwarePrivateT_SpeRNgRQnPgpgk 10054e50     mfcs140:nolib.obj
 0003:00000e54       _WinbaseIsolationAwarePrivateT_SpYRNahcpNYYRQ 10054e54     mfcs140:nolib.obj
 0003:00000e58       __afxForceEXCLUDE          10054e58     mfcs140:nolib.obj
 0003:00000e5c       ?s_pfn@?1??IsolationAwareCreateActCtxW@@9@4@4P6GPAXPBUtagACTCTXW@@@ZA 10054e5c     mfcs140:nolib.obj
 0003:00000e60       ?s_pfn@?1??IsolationAwareActivateActCtx@@9@8@4P6GHPAXPAK@ZA 10054e60     mfcs140:nolib.obj
 0003:00000e64       ?s_pfn@?1??IsolationAwareDeactivateActCtx@@9@8@4P6GHKK@ZA 10054e64     mfcs140:nolib.obj
 0003:00000e68       ?s_pfn@?1??IsolationAwareFindActCtxSectionStringW@@9@20@4P6GHKPBU_GUID@@KPB_WPAUtagACTCTX_SECTION_KEYED_DATA@@@ZA 10054e68     mfcs140:nolib.obj
 0003:00000e6c       ?s_pfn@?1??IsolationAwareQueryActCtxW@@9@28@4P6GHKPAX0K0KPAK@ZA 10054e6c     mfcs140:nolib.obj
 0003:00000e70       ?m@?1??WinbaseIsolationAwarePrivatetRgCebPnQQeRff_xReaRYQP_QYY@@9@4@4UIsolationAwarePrivate_zHGnoyr_zBqHyr_vAsB@@A 10054e70     mfcs140:nolib.obj
 0003:00000e74       ??_B?1??GetInstance@CAtlStringMgr@ATL@@SAPAUIAtlStringMgr@2@XZ@51 10054e74     mfcs140:nolib.obj
 0003:00000e78       __afxForceSTDAFX           10054e78     mfcs140:stdafx.obj
 0003:00000e7c       ___scrt_current_native_startup_state 10054e7c     msvcrt:utility.obj
 0003:00000e80       ___scrt_native_startup_lock 10054e80     msvcrt:utility.obj
 0003:00000ec8       __tls_index                10054ec8     msvcrt:tlssup.obj
 0003:00000ed0       ___castguard_check_failure_os_handled_fptr 10054ed0     msvcrt:guard_support.obj
 0003:000011f4       ___isa_available           100551f4     msvcrt:cpu_disp.obj
 0003:000011f8       ___favor                   100551f8     msvcrt:cpu_disp.obj
 0003:000011fc       ___scrt_debugger_hook_flag 100551fc     msvcrt:utility_desktop.obj
 0003:00001200       ?__type_info_root_node@@3U__type_info_node@@A 10055200     msvcrt:tncleanup.obj
 0003:00001208       ?_AtlBaseModule@ATL@@3VCAtlBaseModule@1@A 10055208     atls:atlbase.obj
 0003:00001240       ___@@_PchSym_@00@UzUPdlipUBUhUrmgvinvwrzgvUexgllohUzgohOmzgrevkilqPBACIAJCBDBUlyqiUcIGUhgwzucOlyq@4B2008FD98C1DD4 10055240     atls:stdafx.obj
 0003:00001244       ___dyn_tls_init_callback   10055244     <common>

 entry point at        0001:00039eeb

 Static symbols

 0000:fffa1000       .debug$S                   10000000     HWStrategyConfigureWizard.exp
 0002:fffbe000       __catchsym$??1CGdiObject@@UAE@XZ$3 10000000     BitmapItemComboBox.obj
 0001:fffff000       __unwindfunclet$??1CGdiObject@@UAE@XZ$2 10000000 f   BitmapItemComboBox.obj
 0002:fffbe000       __catchsym$??1CGdiObject@@UAE@XZ$3 10000000     ColorButton.obj
 0001:fffff000       __unwindfunclet$??1CGdiObject@@UAE@XZ$2 10000000 f   ColorButton.obj
 0002:fffbe000       __catchsym$??1CGdiObject@@UAE@XZ$3 10000000     ColoredStatic.obj
 0001:fffff000       __unwindfunclet$??1CGdiObject@@UAE@XZ$2 10000000 f   ColoredStatic.obj
 0002:fffbe000       __catchsym$??1CGdiObject@@UAE@XZ$3 10000000     DlgStrategyConfigure.obj
 0001:fffff000       __unwindfunclet$??1CGdiObject@@UAE@XZ$2 10000000 f   DlgStrategyConfigure.obj
 0002:fffbe000       __catchsym$??1CGdiObject@@UAE@XZ$3 10000000     DlgStrategyList.obj
 0001:fffff000       __unwindfunclet$??1CGdiObject@@UAE@XZ$2 10000000 f   DlgStrategyList.obj
 0002:fffbe000       __catchsym$??1CGdiObject@@UAE@XZ$3 10000000     DlgTimeSelector.obj
 0001:fffff000       __unwindfunclet$??1CGdiObject@@UAE@XZ$2 10000000 f   DlgTimeSelector.obj
 0002:fffbe000       __catchsym$??1CGdiObject@@UAE@XZ$3 10000000     GridCell.obj
 0001:fffff000       __unwindfunclet$??1CGdiObject@@UAE@XZ$2 10000000 f   GridCell.obj
 0002:fffbe000       __catchsym$??1CGdiObject@@UAE@XZ$3 10000000     GridCellBase.obj
 0001:fffff000       __unwindfunclet$??1CGdiObject@@UAE@XZ$2 10000000 f   GridCellBase.obj
 0002:fffbe000       __catchsym$??1CGdiObject@@UAE@XZ$3 10000000     GridCtrl.obj
 0002:fffbe000       __ehfuncinfo$??1AFX_EXCEPTION_LINK@@QAE@XZ 10000000     GridCtrl.obj
 0002:fffbe000       __ehfuncinfo$??1CMemDC@@UAE@XZ 10000000     GridCtrl.obj
 0001:fffff000       __ehhandler$??1AFX_EXCEPTION_LINK@@QAE@XZ 10000000 f   GridCtrl.obj
 0001:fffff000       __ehhandler$??1CMemDC@@UAE@XZ 10000000 f   GridCtrl.obj
 0001:fffff000       __unwindfunclet$??1CGdiObject@@UAE@XZ$2 10000000 f   GridCtrl.obj
 0002:fffbe000       __catchsym$??1CGdiObject@@UAE@XZ$3 10000000     LogicEditCtrl.obj
 0001:fffff000       __unwindfunclet$??1CGdiObject@@UAE@XZ$2 10000000 f   LogicEditCtrl.obj
 0002:fffbe000       __catchsym$??1CGdiObject@@UAE@XZ$3 10000000     OutLookBarDlg.obj
 0001:fffff000       __unwindfunclet$??1CGdiObject@@UAE@XZ$2 10000000 f   OutLookBarDlg.obj
 0001:fffff000       __unwindfunclet$??HATL@@YA?AV?$CStringT@DV?$StrTraitMFC_DLL@DV?$ChTraitsCRT@D@ATL@@@@@0@ABV10@PBD@Z$0 10000000 f   OutLookBarDlg.obj
 0002:fffbe000       __unwindtable$??HATL@@YA?AV?$CStringT@DV?$StrTraitMFC_DLL@DV?$ChTraitsCRT@D@ATL@@@@@0@ABV10@PBD@Z 10000000     OutLookBarDlg.obj
 0001:fffff000       __unwindfunclet$??HATL@@YA?AV?$CStringT@DV?$StrTraitMFC_DLL@DV?$ChTraitsCRT@D@ATL@@@@@0@ABV10@PBD@Z$0 10000000 f   SDItemInfo.obj
 0002:fffbe000       __unwindtable$??HATL@@YA?AV?$CStringT@DV?$StrTraitMFC_DLL@DV?$ChTraitsCRT@D@ATL@@@@@0@ABV10@PBD@Z 10000000     SDItemInfo.obj
 0002:fffbe000       __catchsym$??1CGdiObject@@UAE@XZ$3 10000000     STListCtrl.obj
 0001:fffff000       __unwindfunclet$??1CGdiObject@@UAE@XZ$2 10000000 f   STListCtrl.obj
 0002:fffbe000       __catchsym$??1CGdiObject@@UAE@XZ$3 10000000     STTreeCtrl.obj
 0001:fffff000       __unwindfunclet$??1CGdiObject@@UAE@XZ$2 10000000 f   STTreeCtrl.obj
 0002:fffbe000       __catchsym$??1CGdiObject@@UAE@XZ$3 10000000     TitleTip.obj
 0001:fffff000       __unwindfunclet$??1CGdiObject@@UAE@XZ$2 10000000 f   TitleTip.obj
 0002:fffbe000       __catchsym$??1CGdiObject@@UAE@XZ$3 10000000     XHeaderCtrl.obj
 0001:fffff000       __unwindfunclet$??1CGdiObject@@UAE@XZ$2 10000000 f   XHeaderCtrl.obj
 0002:fffbe000       __catchsym$??1CGdiObject@@UAE@XZ$3 10000000     XListCtrl.obj
 0001:fffff000       __unwindfunclet$??1CGdiObject@@UAE@XZ$2 10000000 f   XListCtrl.obj
 0002:fffbe000       __catchsym$??1CGdiObject@@UAE@XZ$3 10000000     XTabCtrl.obj
 0001:fffff000       __unwindfunclet$??1CGdiObject@@UAE@XZ$2 10000000 f   XTabCtrl.obj
 0002:fffbe000       __catchsym$??1CGdiObject@@UAE@XZ$3 10000000     xSkinButton.obj
 0001:fffff000       __unwindfunclet$??1CGdiObject@@UAE@XZ$2 10000000 f   xSkinButton.obj
 0002:fffbe000       ??isInitialized$initializer$@CAtlStringMgr@ATL@@0P6AXXZA@@3P6AXXZA 10000000     ExControl:StdAfx.obj
 0002:fffbe000       ?InitializeCAtlStringMgr$initializer$@ATLImplementationDetails@ATL@@3P6AXXZA 10000000     ExControl:StdAfx.obj
 0002:fffbe000       ?_AtlComModule$initializer$@ATL@@3P6AXXZA 10000000     ExControl:StdAfx.obj
 0002:fffbe000       ?_AtlWinModule$initializer$@ATL@@3P6AXXZA 10000000     ExControl:StdAfx.obj
 0002:fffbe000       __guard_fids_??__E_AtlBaseModule@ATL@@YAXXZ 10000000     atls:atlbase.obj
 0002:fffbe000       __guard_fids__             10000000     atls:atlbase.obj
 0000:fffa1000       .debug$S                   10000000     mfc140:mfc140.dll
 0000:fffa1000       .debug$S                   10000000     mfc140:mfc140.dll
 0000:fffa1000       .debug$S                   10000000     mfc140:mfc140.dll
 0000:fffa1000       .debug$S                   10000000     mfc140:mfc140.dll
 0000:fffa1000       .debug$S                   10000000     mfc140:mfc140.dll
 0000:fffa1000       .debug$S                   10000000     mfc140:mfc140.dll
 0000:fffa1000       .debug$S                   10000000     mfc140:mfc140.dll
 0000:fffa1000       .debug$S                   10000000     mfc140:mfc140.dll
 0000:fffa1000       .debug$S                   10000000     mfc140:mfc140.dll
 0000:fffa1000       .debug$S                   10000000     mfc140:mfc140.dll
 0000:fffa1000       .debug$S                   10000000     mfc140:mfc140.dll
 0000:fffa1000       .debug$S                   10000000     mfc140:mfc140.dll
 0000:fffa1000       .debug$S                   10000000     mfc140:mfc140.dll
 0000:fffa1000       .debug$S                   10000000     mfc140:mfc140.dll
 0000:fffa1000       .debug$S                   10000000     mfc140:mfc140.dll
 0000:fffa1000       .debug$S                   10000000     mfc140:mfc140.dll
 0000:fffa1000       .debug$S                   10000000     mfc140:mfc140.dll
 0000:fffa1000       .debug$S                   10000000     mfc140:mfc140.dll
 0000:fffa1000       .debug$S                   10000000     mfc140:mfc140.dll
 0000:fffa1000       .debug$S                   10000000     mfc140:mfc140.dll
 0000:fffa1000       .debug$S                   10000000     mfc140:mfc140.dll
 0000:fffa1000       .debug$S                   10000000     mfc140:mfc140.dll
 0000:fffa1000       .debug$S                   10000000     mfc140:mfc140.dll
 0000:fffa1000       .debug$S                   10000000     mfc140:mfc140.dll
 0000:fffa1000       .debug$S                   10000000     mfc140:mfc140.dll
 0000:fffa1000       .debug$S                   10000000     mfc140:mfc140.dll
 0000:fffa1000       .debug$S                   10000000     mfc140:mfc140.dll
 0000:fffa1000       .debug$S                   10000000     mfc140:mfc140.dll
 0000:fffa1000       .debug$S                   10000000     mfc140:mfc140.dll
 0000:fffa1000       .debug$S                   10000000     mfc140:mfc140.dll
 0000:fffa1000       .debug$S                   10000000     mfc140:mfc140.dll
 0000:fffa1000       .debug$S                   10000000     mfc140:mfc140.dll
 0000:fffa1000       .debug$S                   10000000     mfc140:mfc140.dll
 0000:fffa1000       .debug$S                   10000000     mfc140:mfc140.dll
 0000:fffa1000       .debug$S                   10000000     mfc140:mfc140.dll
 0000:fffa1000       .debug$S                   10000000     mfc140:mfc140.dll
 0000:fffa1000       .debug$S                   10000000     mfc140:mfc140.dll
 0000:fffa1000       .debug$S                   10000000     mfc140:mfc140.dll
 0000:fffa1000       .debug$S                   10000000     mfc140:mfc140.dll
 0000:fffa1000       .debug$S                   10000000     mfc140:mfc140.dll
 0000:fffa1000       .debug$S                   10000000     mfc140:mfc140.dll
 0000:fffa1000       .debug$S                   10000000     mfc140:mfc140.dll
 0000:fffa1000       .debug$S                   10000000     mfc140:mfc140.dll
 0000:fffa1000       .debug$S                   10000000     mfc140:mfc140.dll
 0000:fffa1000       .debug$S                   10000000     mfc140:mfc140.dll
 0000:fffa1000       .debug$S                   10000000     mfc140:mfc140.dll
 0000:fffa1000       .debug$S                   10000000     mfc140:mfc140.dll
 0000:fffa1000       .debug$S                   10000000     mfc140:mfc140.dll
 0000:fffa1000       .debug$S                   10000000     mfc140:mfc140.dll
 0000:fffa1000       .debug$S                   10000000     mfc140:mfc140.dll
 0000:fffa1000       .debug$S                   10000000     mfc140:mfc140.dll
 0000:fffa1000       .debug$S                   10000000     mfc140:mfc140.dll
 0000:fffa1000       .debug$S                   10000000     mfc140:mfc140.dll
 0000:fffa1000       .debug$S                   10000000     mfc140:mfc140.dll
 0000:fffa1000       .debug$S                   10000000     mfc140:mfc140.dll
 0000:fffa1000       .debug$S                   10000000     mfc140:mfc140.dll
 0000:fffa1000       .debug$S                   10000000     mfc140:mfc140.dll
 0000:fffa1000       .debug$S                   10000000     mfc140:mfc140.dll
 0000:fffa1000       .debug$S                   10000000     mfc140:mfc140.dll
 0000:fffa1000       .debug$S                   10000000     mfc140:mfc140.dll
 0000:fffa1000       .debug$S                   10000000     mfc140:mfc140.dll
 0000:fffa1000       .debug$S                   10000000     mfc140:mfc140.dll
 0000:fffa1000       .debug$S                   10000000     mfc140:mfc140.dll
 0000:fffa1000       .debug$S                   10000000     mfc140:mfc140.dll
 0000:fffa1000       .debug$S                   10000000     mfc140:mfc140.dll
 0000:fffa1000       .debug$S                   10000000     mfc140:mfc140.dll
 0000:fffa1000       .debug$S                   10000000     mfc140:mfc140.dll
 0000:fffa1000       .debug$S                   10000000     mfc140:mfc140.dll
 0000:fffa1000       .debug$S                   10000000     mfc140:mfc140.dll
 0000:fffa1000       .debug$S                   10000000     mfc140:mfc140.dll
 0000:fffa1000       .debug$S                   10000000     mfc140:mfc140.dll
 0000:fffa1000       .debug$S                   10000000     mfc140:mfc140.dll
 0000:fffa1000       .debug$S                   10000000     mfc140:mfc140.dll
 0000:fffa1000       .debug$S                   10000000     mfc140:mfc140.dll
 0000:fffa1000       .debug$S                   10000000     mfc140:mfc140.dll
 0000:fffa1000       .debug$S                   10000000     mfc140:mfc140.dll
 0000:fffa1000       .debug$S                   10000000     mfc140:mfc140.dll
 0000:fffa1000       .debug$S                   10000000     mfc140:mfc140.dll
 0000:fffa1000       .debug$S                   10000000     mfc140:mfc140.dll
 0000:fffa1000       .debug$S                   10000000     mfc140:mfc140.dll
 0000:fffa1000       .debug$S                   10000000     mfc140:mfc140.dll
 0000:fffa1000       .debug$S                   10000000     mfc140:mfc140.dll
 0000:fffa1000       .debug$S                   10000000     mfc140:mfc140.dll
 0000:fffa1000       .debug$S                   10000000     mfc140:mfc140.dll
 0000:fffa1000       .debug$S                   10000000     mfc140:mfc140.dll
 0000:fffa1000       .debug$S                   10000000     mfc140:mfc140.dll
 0000:fffa1000       .debug$S                   10000000     mfc140:mfc140.dll
 0000:fffa1000       .debug$S                   10000000     mfc140:mfc140.dll
 0000:fffa1000       .debug$S                   10000000     mfc140:mfc140.dll
 0000:fffa1000       .debug$S                   10000000     mfc140:mfc140.dll
 0000:fffa1000       .debug$S                   10000000     mfc140:mfc140.dll
 0000:fffa1000       .debug$S                   10000000     mfc140:mfc140.dll
 0000:fffa1000       .debug$S                   10000000     mfc140:mfc140.dll
 0000:fffa1000       .debug$S                   10000000     mfc140:mfc140.dll
 0000:fffa1000       .debug$S                   10000000     mfc140:mfc140.dll
 0000:fffa1000       .debug$S                   10000000     mfc140:mfc140.dll
 0000:fffa1000       .debug$S                   10000000     mfc140:mfc140.dll
 0000:fffa1000       .debug$S                   10000000     mfc140:mfc140.dll
 0000:fffa1000       .debug$S                   10000000     mfc140:mfc140.dll
 0000:fffa1000       .debug$S                   10000000     mfc140:mfc140.dll
 0000:fffa1000       .debug$S                   10000000     mfc140:mfc140.dll
 0000:fffa1000       .debug$S                   10000000     mfc140:mfc140.dll
 0000:fffa1000       .debug$S                   10000000     mfc140:mfc140.dll
 0000:fffa1000       .debug$S                   10000000     mfc140:mfc140.dll
 0000:fffa1000       .debug$S                   10000000     mfc140:mfc140.dll
 0000:fffa1000       .debug$S                   10000000     mfc140:mfc140.dll
 0000:fffa1000       .debug$S                   10000000     mfc140:mfc140.dll
 0000:fffa1000       .debug$S                   10000000     mfc140:mfc140.dll
 0000:fffa1000       .debug$S                   10000000     mfc140:mfc140.dll
 0000:fffa1000       .debug$S                   10000000     mfc140:mfc140.dll
 0000:fffa1000       .debug$S                   10000000     mfc140:mfc140.dll
 0000:fffa1000       .debug$S                   10000000     mfc140:mfc140.dll
 0000:fffa1000       .debug$S                   10000000     mfc140:mfc140.dll
 0000:fffa1000       .debug$S                   10000000     mfc140:mfc140.dll
 0000:fffa1000       .debug$S                   10000000     mfc140:mfc140.dll
 0000:fffa1000       .debug$S                   10000000     mfc140:mfc140.dll
 0000:fffa1000       .debug$S                   10000000     mfc140:mfc140.dll
 0000:fffa1000       .debug$S                   10000000     mfc140:mfc140.dll
 0000:fffa1000       .debug$S                   10000000     mfc140:mfc140.dll
 0000:fffa1000       .debug$S                   10000000     mfc140:mfc140.dll
 0000:fffa1000       .debug$S                   10000000     mfc140:mfc140.dll
 0000:fffa1000       .debug$S                   10000000     mfc140:mfc140.dll
 0000:fffa1000       .debug$S                   10000000     mfc140:mfc140.dll
 0000:fffa1000       .debug$S                   10000000     mfc140:mfc140.dll
 0000:fffa1000       .debug$S                   10000000     mfc140:mfc140.dll
 0000:fffa1000       .debug$S                   10000000     mfc140:mfc140.dll
 0000:fffa1000       .debug$S                   10000000     mfc140:mfc140.dll
 0000:fffa1000       .debug$S                   10000000     mfc140:mfc140.dll
 0000:fffa1000       .debug$S                   10000000     mfc140:mfc140.dll
 0000:fffa1000       .debug$S                   10000000     mfc140:mfc140.dll
 0000:fffa1000       .debug$S                   10000000     mfc140:mfc140.dll
 0000:fffa1000       .debug$S                   10000000     mfc140:mfc140.dll
 0000:fffa1000       .debug$S                   10000000     mfc140:mfc140.dll
 0000:fffa1000       .debug$S                   10000000     mfc140:mfc140.dll
 0000:fffa1000       .debug$S                   10000000     mfc140:mfc140.dll
 0000:fffa1000       .debug$S                   10000000     mfc140:mfc140.dll
 0000:fffa1000       .debug$S                   10000000     mfc140:mfc140.dll
 0000:fffa1000       .debug$S                   10000000     mfc140:mfc140.dll
 0000:fffa1000       .debug$S                   10000000     mfc140:mfc140.dll
 0000:fffa1000       .debug$S                   10000000     mfc140:mfc140.dll
 0000:fffa1000       .debug$S                   10000000     mfc140:mfc140.dll
 0000:fffa1000       .debug$S                   10000000     mfc140:mfc140.dll
 0000:fffa1000       .debug$S                   10000000     mfc140:mfc140.dll
 0000:fffa1000       .debug$S                   10000000     mfc140:mfc140.dll
 0000:fffa1000       .debug$S                   10000000     mfc140:mfc140.dll
 0000:fffa1000       .debug$S                   10000000     mfc140:mfc140.dll
 0000:fffa1000       .debug$S                   10000000     mfc140:mfc140.dll
 0000:fffa1000       .debug$S                   10000000     mfc140:mfc140.dll
 0000:fffa1000       .debug$S                   10000000     mfc140:mfc140.dll
 0000:fffa1000       .debug$S                   10000000     mfc140:mfc140.dll
 0000:fffa1000       .debug$S                   10000000     mfc140:mfc140.dll
 0000:fffa1000       .debug$S                   10000000     mfc140:mfc140.dll
 0000:fffa1000       .debug$S                   10000000     mfc140:mfc140.dll
 0000:fffa1000       .debug$S                   10000000     mfc140:mfc140.dll
 0000:fffa1000       .debug$S                   10000000     mfc140:mfc140.dll
 0000:fffa1000       .debug$S                   10000000     mfc140:mfc140.dll
 0000:fffa1000       .debug$S                   10000000     mfc140:mfc140.dll
 0000:fffa1000       .debug$S                   10000000     mfc140:mfc140.dll
 0000:fffa1000       .debug$S                   10000000     mfc140:mfc140.dll
 0000:fffa1000       .debug$S                   10000000     mfc140:mfc140.dll
 0000:fffa1000       .debug$S                   10000000     mfc140:mfc140.dll
 0000:fffa1000       .debug$S                   10000000     mfc140:mfc140.dll
 0000:fffa1000       .debug$S                   10000000     mfc140:mfc140.dll
 0000:fffa1000       .debug$S                   10000000     mfc140:mfc140.dll
 0000:fffa1000       .debug$S                   10000000     mfc140:mfc140.dll
 0000:fffa1000       .debug$S                   10000000     mfc140:mfc140.dll
 0000:fffa1000       .debug$S                   10000000     mfc140:mfc140.dll
 0000:fffa1000       .debug$S                   10000000     mfc140:mfc140.dll
 0000:fffa1000       .debug$S                   10000000     mfc140:mfc140.dll
 0000:fffa1000       .debug$S                   10000000     mfc140:mfc140.dll
 0000:fffa1000       .debug$S                   10000000     mfc140:mfc140.dll
 0000:fffa1000       .debug$S                   10000000     mfc140:mfc140.dll
 0000:fffa1000       .debug$S                   10000000     mfc140:mfc140.dll
 0000:fffa1000       .debug$S                   10000000     mfc140:mfc140.dll
 0000:fffa1000       .debug$S                   10000000     mfc140:mfc140.dll
 0000:fffa1000       .debug$S                   10000000     mfc140:mfc140.dll
 0000:fffa1000       .debug$S                   10000000     mfc140:mfc140.dll
 0000:fffa1000       .debug$S                   10000000     mfc140:mfc140.dll
 0000:fffa1000       .debug$S                   10000000     mfc140:mfc140.dll
 0000:fffa1000       .debug$S                   10000000     mfc140:mfc140.dll
 0000:fffa1000       .debug$S                   10000000     mfc140:mfc140.dll
 0000:fffa1000       .debug$S                   10000000     mfc140:mfc140.dll
 0000:fffa1000       .debug$S                   10000000     mfc140:mfc140.dll
 0000:fffa1000       .debug$S                   10000000     mfc140:mfc140.dll
 0000:fffa1000       .debug$S                   10000000     mfc140:mfc140.dll
 0000:fffa1000       .debug$S                   10000000     mfc140:mfc140.dll
 0000:fffa1000       .debug$S                   10000000     mfc140:mfc140.dll
 0000:fffa1000       .debug$S                   10000000     mfc140:mfc140.dll
 0000:fffa1000       .debug$S                   10000000     mfc140:mfc140.dll
 0000:fffa1000       .debug$S                   10000000     mfc140:mfc140.dll
 0000:fffa1000       .debug$S                   10000000     mfc140:mfc140.dll
 0000:fffa1000       .debug$S                   10000000     mfc140:mfc140.dll
 0000:fffa1000       .debug$S                   10000000     mfc140:mfc140.dll
 0000:fffa1000       .debug$S                   10000000     mfc140:mfc140.dll
 0000:fffa1000       .debug$S                   10000000     mfc140:mfc140.dll
 0000:fffa1000       .debug$S                   10000000     mfc140:mfc140.dll
 0000:fffa1000       .debug$S                   10000000     mfc140:mfc140.dll
 0000:fffa1000       .debug$S                   10000000     mfc140:mfc140.dll
 0000:fffa1000       .debug$S                   10000000     mfc140:mfc140.dll
 0000:fffa1000       .debug$S                   10000000     mfc140:mfc140.dll
 0000:fffa1000       .debug$S                   10000000     mfc140:mfc140.dll
 0000:fffa1000       .debug$S                   10000000     mfc140:mfc140.dll
 0000:fffa1000       .debug$S                   10000000     mfc140:mfc140.dll
 0000:fffa1000       .debug$S                   10000000     mfc140:mfc140.dll
 0000:fffa1000       .debug$S                   10000000     mfc140:mfc140.dll
 0000:fffa1000       .debug$S                   10000000     mfc140:mfc140.dll
 0000:fffa1000       .debug$S                   10000000     mfc140:mfc140.dll
 0000:fffa1000       .debug$S                   10000000     mfc140:mfc140.dll
 0000:fffa1000       .debug$S                   10000000     mfc140:mfc140.dll
 0000:fffa1000       .debug$S                   10000000     mfc140:mfc140.dll
 0000:fffa1000       .debug$S                   10000000     mfc140:mfc140.dll
 0000:fffa1000       .debug$S                   10000000     mfc140:mfc140.dll
 0000:fffa1000       .debug$S                   10000000     mfc140:mfc140.dll
 0000:fffa1000       .debug$S                   10000000     mfc140:mfc140.dll
 0000:fffa1000       .debug$S                   10000000     mfc140:mfc140.dll
 0000:fffa1000       .debug$S                   10000000     mfc140:mfc140.dll
 0000:fffa1000       .debug$S                   10000000     mfc140:mfc140.dll
 0000:fffa1000       .debug$S                   10000000     mfc140:mfc140.dll
 0000:fffa1000       .debug$S                   10000000     mfc140:mfc140.dll
 0000:fffa1000       .debug$S                   10000000     mfc140:mfc140.dll
 0000:fffa1000       .debug$S                   10000000     mfc140:mfc140.dll
 0000:fffa1000       .debug$S                   10000000     mfc140:mfc140.dll
 0000:fffa1000       .debug$S                   10000000     mfc140:mfc140.dll
 0000:fffa1000       .debug$S                   10000000     mfc140:mfc140.dll
 0000:fffa1000       .debug$S                   10000000     mfc140:mfc140.dll
 0000:fffa1000       .debug$S                   10000000     mfc140:mfc140.dll
 0000:fffa1000       .debug$S                   10000000     mfc140:mfc140.dll
 0000:fffa1000       .debug$S                   10000000     mfc140:mfc140.dll
 0000:fffa1000       .debug$S                   10000000     mfc140:mfc140.dll
 0000:fffa1000       .debug$S                   10000000     mfc140:mfc140.dll
 0000:fffa1000       .debug$S                   10000000     mfc140:mfc140.dll
 0000:fffa1000       .debug$S                   10000000     mfc140:mfc140.dll
 0000:fffa1000       .debug$S                   10000000     mfc140:mfc140.dll
 0000:fffa1000       .debug$S                   10000000     mfc140:mfc140.dll
 0000:fffa1000       .debug$S                   10000000     mfc140:mfc140.dll
 0000:fffa1000       .debug$S                   10000000     mfc140:mfc140.dll
 0000:fffa1000       .debug$S                   10000000     mfc140:mfc140.dll
 0000:fffa1000       .debug$S                   10000000     mfc140:mfc140.dll
 0000:fffa1000       .debug$S                   10000000     mfc140:mfc140.dll
 0000:fffa1000       .debug$S                   10000000     mfc140:mfc140.dll
 0000:fffa1000       .debug$S                   10000000     mfc140:mfc140.dll
 0000:fffa1000       .debug$S                   10000000     mfc140:mfc140.dll
 0000:fffa1000       .debug$S                   10000000     mfc140:mfc140.dll
 0000:fffa1000       .debug$S                   10000000     mfc140:mfc140.dll
 0000:fffa1000       .debug$S                   10000000     mfc140:mfc140.dll
 0000:fffa1000       .debug$S                   10000000     mfc140:mfc140.dll
 0000:fffa1000       .debug$S                   10000000     mfc140:mfc140.dll
 0000:fffa1000       .debug$S                   10000000     mfc140:mfc140.dll
 0000:fffa1000       .debug$S                   10000000     mfc140:mfc140.dll
 0000:fffa1000       .debug$S                   10000000     mfc140:mfc140.dll
 0000:fffa1000       .debug$S                   10000000     mfc140:mfc140.dll
 0000:fffa1000       .debug$S                   10000000     mfc140:mfc140.dll
 0000:fffa1000       .debug$S                   10000000     mfc140:mfc140.dll
 0000:fffa1000       .debug$S                   10000000     mfc140:mfc140.dll
 0000:fffa1000       .debug$S                   10000000     mfc140:mfc140.dll
 0000:fffa1000       .debug$S                   10000000     mfc140:mfc140.dll
 0000:fffa1000       .debug$S                   10000000     mfc140:mfc140.dll
 0000:fffa1000       .debug$S                   10000000     mfc140:mfc140.dll
 0000:fffa1000       .debug$S                   10000000     mfc140:mfc140.dll
 0000:fffa1000       .debug$S                   10000000     mfc140:mfc140.dll
 0000:fffa1000       .debug$S                   10000000     mfc140:mfc140.dll
 0000:fffa1000       .debug$S                   10000000     mfc140:mfc140.dll
 0000:fffa1000       .debug$S                   10000000     mfc140:mfc140.dll
 0000:fffa1000       .debug$S                   10000000     mfc140:mfc140.dll
 0000:fffa1000       .debug$S                   10000000     mfc140:mfc140.dll
 0000:fffa1000       .debug$S                   10000000     mfc140:mfc140.dll
 0000:fffa1000       .debug$S                   10000000     mfc140:mfc140.dll
 0000:fffa1000       .debug$S                   10000000     mfc140:mfc140.dll
 0000:fffa1000       .debug$S                   10000000     mfc140:mfc140.dll
 0000:fffa1000       .debug$S                   10000000     mfc140:mfc140.dll
 0000:fffa1000       .debug$S                   10000000     mfc140:mfc140.dll
 0000:fffa1000       .debug$S                   10000000     mfc140:mfc140.dll
 0000:fffa1000       .debug$S                   10000000     mfc140:mfc140.dll
 0000:fffa1000       .debug$S                   10000000     mfc140:mfc140.dll
 0000:fffa1000       .debug$S                   10000000     mfc140:mfc140.dll
 0000:fffa1000       .debug$S                   10000000     mfc140:mfc140.dll
 0000:fffa1000       .debug$S                   10000000     mfc140:mfc140.dll
 0000:fffa1000       .debug$S                   10000000     mfc140:mfc140.dll
 0000:fffa1000       .debug$S                   10000000     mfc140:mfc140.dll
 0000:fffa1000       .debug$S                   10000000     mfc140:mfc140.dll
 0000:fffa1000       .debug$S                   10000000     mfc140:mfc140.dll
 0000:fffa1000       .debug$S                   10000000     mfc140:mfc140.dll
 0000:fffa1000       .debug$S                   10000000     mfc140:mfc140.dll
 0000:fffa1000       .debug$S                   10000000     mfc140:mfc140.dll
 0000:fffa1000       .debug$S                   10000000     mfc140:mfc140.dll
 0000:fffa1000       .debug$S                   10000000     mfc140:mfc140.dll
 0000:fffa1000       .debug$S                   10000000     mfc140:mfc140.dll
 0000:fffa1000       .debug$S                   10000000     mfc140:mfc140.dll
 0000:fffa1000       .debug$S                   10000000     mfc140:mfc140.dll
 0000:fffa1000       .debug$S                   10000000     mfc140:mfc140.dll
 0000:fffa1000       .debug$S                   10000000     mfc140:mfc140.dll
 0000:fffa1000       .debug$S                   10000000     mfc140:mfc140.dll
 0000:fffa1000       .debug$S                   10000000     mfc140:mfc140.dll
 0000:fffa1000       .debug$S                   10000000     mfc140:mfc140.dll
 0000:fffa1000       .debug$S                   10000000     mfc140:mfc140.dll
 0000:fffa1000       .debug$S                   10000000     mfc140:mfc140.dll
 0000:fffa1000       .debug$S                   10000000     mfc140:mfc140.dll
 0000:fffa1000       .debug$S                   10000000     mfc140:mfc140.dll
 0000:fffa1000       .debug$S                   10000000     mfc140:mfc140.dll
 0000:fffa1000       .debug$S                   10000000     mfc140:mfc140.dll
 0000:fffa1000       .debug$S                   10000000     mfc140:mfc140.dll
 0000:fffa1000       .debug$S                   10000000     mfc140:mfc140.dll
 0000:fffa1000       .debug$S                   10000000     mfc140:mfc140.dll
 0000:fffa1000       .debug$S                   10000000     mfc140:mfc140.dll
 0000:fffa1000       .debug$S                   10000000     mfc140:mfc140.dll
 0000:fffa1000       .debug$S                   10000000     mfc140:mfc140.dll
 0000:fffa1000       .debug$S                   10000000     mfc140:mfc140.dll
 0000:fffa1000       .debug$S                   10000000     mfc140:mfc140.dll
 0000:fffa1000       .debug$S                   10000000     mfc140:mfc140.dll
 0000:fffa1000       .debug$S                   10000000     mfc140:mfc140.dll
 0000:fffa1000       .debug$S                   10000000     mfc140:mfc140.dll
 0000:fffa1000       .debug$S                   10000000     mfc140:mfc140.dll
 0000:fffa1000       .debug$S                   10000000     mfc140:mfc140.dll
 0000:fffa1000       .debug$S                   10000000     mfc140:mfc140.dll
 0000:fffa1000       .debug$S                   10000000     mfc140:mfc140.dll
 0000:fffa1000       .debug$S                   10000000     mfc140:mfc140.dll
 0000:fffa1000       .debug$S                   10000000     mfc140:mfc140.dll
 0000:fffa1000       .debug$S                   10000000     mfc140:mfc140.dll
 0000:fffa1000       .debug$S                   10000000     mfc140:mfc140.dll
 0000:fffa1000       .debug$S                   10000000     mfc140:mfc140.dll
 0000:fffa1000       .debug$S                   10000000     mfc140:mfc140.dll
 0000:fffa1000       .debug$S                   10000000     mfc140:mfc140.dll
 0000:fffa1000       .debug$S                   10000000     mfc140:mfc140.dll
 0000:fffa1000       .debug$S                   10000000     mfc140:mfc140.dll
 0000:fffa1000       .debug$S                   10000000     mfc140:mfc140.dll
 0000:fffa1000       .debug$S                   10000000     mfc140:mfc140.dll
 0000:fffa1000       .debug$S                   10000000     mfc140:mfc140.dll
 0000:fffa1000       .debug$S                   10000000     mfc140:mfc140.dll
 0000:fffa1000       .debug$S                   10000000     mfc140:mfc140.dll
 0000:fffa1000       .debug$S                   10000000     mfc140:mfc140.dll
 0000:fffa1000       .debug$S                   10000000     mfc140:mfc140.dll
 0000:fffa1000       .debug$S                   10000000     mfc140:mfc140.dll
 0000:fffa1000       .debug$S                   10000000     mfc140:mfc140.dll
 0000:fffa1000       .debug$S                   10000000     mfc140:mfc140.dll
 0000:fffa1000       .debug$S                   10000000     mfc140:mfc140.dll
 0000:fffa1000       .debug$S                   10000000     mfc140:mfc140.dll
 0000:fffa1000       .debug$S                   10000000     mfc140:mfc140.dll
 0000:fffa1000       .debug$S                   10000000     mfc140:mfc140.dll
 0000:fffa1000       .debug$S                   10000000     mfc140:mfc140.dll
 0000:fffa1000       .debug$S                   10000000     mfc140:mfc140.dll
 0000:fffa1000       .debug$S                   10000000     mfc140:mfc140.dll
 0000:fffa1000       .debug$S                   10000000     mfc140:mfc140.dll
 0000:fffa1000       .debug$S                   10000000     mfc140:mfc140.dll
 0000:fffa1000       .debug$S                   10000000     mfc140:mfc140.dll
 0000:fffa1000       .debug$S                   10000000     mfc140:mfc140.dll
 0000:fffa1000       .debug$S                   10000000     mfc140:mfc140.dll
 0000:fffa1000       .debug$S                   10000000     mfc140:mfc140.dll
 0000:fffa1000       .debug$S                   10000000     mfc140:mfc140.dll
 0000:fffa1000       .debug$S                   10000000     mfc140:mfc140.dll
 0000:fffa1000       .debug$S                   10000000     mfc140:mfc140.dll
 0000:fffa1000       .debug$S                   10000000     mfc140:mfc140.dll
 0000:fffa1000       .debug$S                   10000000     mfc140:mfc140.dll
 0000:fffa1000       .debug$S                   10000000     mfc140:mfc140.dll
 0000:fffa1000       .debug$S                   10000000     mfc140:mfc140.dll
 0000:fffa1000       .debug$S                   10000000     mfc140:mfc140.dll
 0000:fffa1000       .debug$S                   10000000     mfc140:mfc140.dll
 0000:fffa1000       .debug$S                   10000000     mfc140:mfc140.dll
 0000:fffa1000       .debug$S                   10000000     mfc140:mfc140.dll
 0000:fffa1000       .debug$S                   10000000     mfc140:mfc140.dll
 0000:fffa1000       .debug$S                   10000000     mfc140:mfc140.dll
 0000:fffa1000       .debug$S                   10000000     mfc140:mfc140.dll
 0000:fffa1000       .debug$S                   10000000     mfc140:mfc140.dll
 0000:fffa1000       .debug$S                   10000000     mfc140:mfc140.dll
 0000:fffa1000       .debug$S                   10000000     mfc140:mfc140.dll
 0000:fffa1000       .debug$S                   10000000     mfc140:mfc140.dll
 0000:fffa1000       .debug$S                   10000000     mfc140:mfc140.dll
 0000:fffa1000       .debug$S                   10000000     mfc140:mfc140.dll
 0000:fffa1000       .debug$S                   10000000     mfc140:mfc140.dll
 0000:fffa1000       .debug$S                   10000000     mfc140:mfc140.dll
 0000:fffa1000       .debug$S                   10000000     mfc140:mfc140.dll
 0000:fffa1000       .debug$S                   10000000     mfc140:mfc140.dll
 0000:fffa1000       .debug$S                   10000000     mfc140:mfc140.dll
 0000:fffa1000       .debug$S                   10000000     mfc140:mfc140.dll
 0000:fffa1000       .debug$S                   10000000     mfc140:mfc140.dll
 0000:fffa1000       .debug$S                   10000000     mfc140:mfc140.dll
 0000:fffa1000       .debug$S                   10000000     mfc140:mfc140.dll
 0000:fffa1000       .debug$S                   10000000     mfc140:mfc140.dll
 0000:fffa1000       .debug$S                   10000000     mfc140:mfc140.dll
 0000:fffa1000       .debug$S                   10000000     mfc140:mfc140.dll
 0000:fffa1000       .debug$S                   10000000     mfc140:mfc140.dll
 0000:fffa1000       .debug$S                   10000000     mfc140:mfc140.dll
 0000:fffa1000       .debug$S                   10000000     mfc140:mfc140.dll
 0000:fffa1000       .debug$S                   10000000     mfc140:mfc140.dll
 0000:fffa1000       .debug$S                   10000000     mfc140:mfc140.dll
 0000:fffa1000       .debug$S                   10000000     mfc140:mfc140.dll
 0000:fffa1000       .debug$S                   10000000     mfc140:mfc140.dll
 0000:fffa1000       .debug$S                   10000000     mfc140:mfc140.dll
 0000:fffa1000       .debug$S                   10000000     mfc140:mfc140.dll
 0000:fffa1000       .debug$S                   10000000     mfc140:mfc140.dll
 0000:fffa1000       .debug$S                   10000000     mfc140:mfc140.dll
 0000:fffa1000       .debug$S                   10000000     mfc140:mfc140.dll
 0000:fffa1000       .debug$S                   10000000     mfc140:mfc140.dll
 0000:fffa1000       .debug$S                   10000000     mfc140:mfc140.dll
 0000:fffa1000       .debug$S                   10000000     mfc140:mfc140.dll
 0000:fffa1000       .debug$S                   10000000     mfc140:mfc140.dll
 0000:fffa1000       .debug$S                   10000000     mfc140:mfc140.dll
 0000:fffa1000       .debug$S                   10000000     mfc140:mfc140.dll
 0000:fffa1000       .debug$S                   10000000     mfc140:mfc140.dll
 0000:fffa1000       .debug$S                   10000000     mfc140:mfc140.dll
 0000:fffa1000       .debug$S                   10000000     mfc140:mfc140.dll
 0000:fffa1000       .debug$S                   10000000     mfc140:mfc140.dll
 0000:fffa1000       .debug$S                   10000000     mfc140:mfc140.dll
 0000:fffa1000       .debug$S                   10000000     mfc140:mfc140.dll
 0000:fffa1000       .debug$S                   10000000     mfc140:mfc140.dll
 0000:fffa1000       .debug$S                   10000000     mfc140:mfc140.dll
 0000:fffa1000       .debug$S                   10000000     mfc140:mfc140.dll
 0000:fffa1000       .debug$S                   10000000     mfc140:mfc140.dll
 0000:fffa1000       .debug$S                   10000000     mfc140:mfc140.dll
 0000:fffa1000       .debug$S                   10000000     mfc140:mfc140.dll
 0000:fffa1000       .debug$S                   10000000     mfc140:mfc140.dll
 0000:fffa1000       .debug$S                   10000000     mfc140:mfc140.dll
 0000:fffa1000       .debug$S                   10000000     mfc140:mfc140.dll
 0000:fffa1000       .debug$S                   10000000     mfc140:mfc140.dll
 0000:fffa1000       .debug$S                   10000000     mfc140:mfc140.dll
 0000:fffa1000       .debug$S                   10000000     mfc140:mfc140.dll
 0000:fffa1000       .debug$S                   10000000     mfc140:mfc140.dll
 0000:fffa1000       .debug$S                   10000000     mfc140:mfc140.dll
 0000:fffa1000       .debug$S                   10000000     mfc140:mfc140.dll
 0000:fffa1000       .debug$S                   10000000     mfc140:mfc140.dll
 0000:fffa1000       .debug$S                   10000000     mfc140:mfc140.dll
 0000:fffa1000       .debug$S                   10000000     mfc140:mfc140.dll
 0000:fffa1000       .debug$S                   10000000     mfc140:mfc140.dll
 0000:fffa1000       .debug$S                   10000000     mfc140:mfc140.dll
 0000:fffa1000       .debug$S                   10000000     mfc140:mfc140.dll
 0000:fffa1000       .debug$S                   10000000     mfc140:mfc140.dll
 0000:fffa1000       .debug$S                   10000000     mfc140:mfc140.dll
 0000:fffa1000       .debug$S                   10000000     mfc140:mfc140.dll
 0000:fffa1000       .debug$S                   10000000     mfc140:mfc140.dll
 0000:fffa1000       .debug$S                   10000000     mfc140:mfc140.dll
 0000:fffa1000       .debug$S                   10000000     mfc140:mfc140.dll
 0000:fffa1000       .debug$S                   10000000     mfc140:mfc140.dll
 0000:fffa1000       .debug$S                   10000000     mfc140:mfc140.dll
 0000:fffa1000       .debug$S                   10000000     mfc140:mfc140.dll
 0000:fffa1000       .debug$S                   10000000     mfc140:mfc140.dll
 0000:fffa1000       .debug$S                   10000000     mfc140:mfc140.dll
 0000:fffa1000       .debug$S                   10000000     mfc140:mfc140.dll
 0000:fffa1000       .debug$S                   10000000     mfc140:mfc140.dll
 0000:fffa1000       .debug$S                   10000000     mfc140:mfc140.dll
 0000:fffa1000       .debug$S                   10000000     mfc140:mfc140.dll
 0000:fffa1000       .debug$S                   10000000     mfc140:mfc140.dll
 0000:fffa1000       .debug$S                   10000000     mfc140:mfc140.dll
 0000:fffa1000       .debug$S                   10000000     mfc140:mfc140.dll
 0000:fffa1000       .debug$S                   10000000     mfc140:mfc140.dll
 0000:fffa1000       .debug$S                   10000000     mfc140:mfc140.dll
 0000:fffa1000       .debug$S                   10000000     mfc140:mfc140.dll
 0000:fffa1000       .debug$S                   10000000     mfc140:mfc140.dll
 0000:fffa1000       .debug$S                   10000000     mfc140:mfc140.dll
 0000:fffa1000       .debug$S                   10000000     mfc140:mfc140.dll
 0000:fffa1000       .debug$S                   10000000     mfc140:mfc140.dll
 0000:fffa1000       .debug$S                   10000000     mfc140:mfc140.dll
 0000:fffa1000       .debug$S                   10000000     mfc140:mfc140.dll
 0000:fffa1000       .debug$S                   10000000     mfc140:mfc140.dll
 0000:fffa1000       .debug$S                   10000000     mfc140:mfc140.dll
 0000:fffa1000       .debug$S                   10000000     mfc140:mfc140.dll
 0002:fffbe000       ??isInitialized$initializer$@CAtlStringMgr@ATL@@0P6AXXZA@@3P6AXXZA 10000000     mfcs140:nolib.obj
 0002:fffbe000       ?InitializeCAtlStringMgr$initializer$@ATLImplementationDetails@ATL@@3P6AXXZA 10000000     mfcs140:nolib.obj
 0002:fffbe000       ?_AtlComModule$initializer$@ATL@@3P6AXXZA 10000000     mfcs140:nolib.obj
 0002:fffbe000       ?_AtlWinModule$initializer$@ATL@@3P6AXXZA 10000000     mfcs140:nolib.obj
 0002:fffbe000       __guard_fids_??_Estringdispid@CComTypeInfoHolder@ATL@@QAEPAXI@Z 10000000     mfcs140:nolib.obj
 0002:fffbe000       __guard_fids_??__E_AtlComModule@ATL@@YAXXZ 10000000     mfcs140:nolib.obj
 0002:fffbe000       __guard_fids_??__E_AtlWinModule@ATL@@YAXXZ 10000000     mfcs140:nolib.obj
 0002:fffbe000       __guard_fids_?GetInstance@CAtlStringMgr@ATL@@SAPAUIAtlStringMgr@2@XZ 10000000     mfcs140:nolib.obj
 0002:fffbe000       __guard_fids__             10000000     mfcs140:nolib.obj
 0002:fffbe000       __guard_fids__             10000000     mfcs140:nolib.obj
 0002:fffbe000       __guard_fids__             10000000     mfcs140:nolib.obj
 0002:fffbe000       __guard_fids__             10000000     mfcs140:nolib.obj
 0002:fffbe000       __guard_fids__             10000000     mfcs140:nolib.obj
 0002:fffbe000       __guard_fids__             10000000     mfcs140:nolib.obj
 0002:fffbe000       __guard_fids__             10000000     mfcs140:nolib.obj
 0002:fffbe000       __guard_fids__             10000000     mfcs140:nolib.obj
 0002:fffbe000       __guard_fids__             10000000     mfcs140:nolib.obj
 0002:fffbe000       ??isInitialized$initializer$@CAtlStringMgr@ATL@@0P6AXXZA@@3P6AXXZA 10000000     mfcs140:stdafx.obj
 0002:fffbe000       ?InitializeCAtlStringMgr$initializer$@ATLImplementationDetails@ATL@@3P6AXXZA 10000000     mfcs140:stdafx.obj
 0002:fffbe000       ?_AtlComModule$initializer$@ATL@@3P6AXXZA 10000000     mfcs140:stdafx.obj
 0002:fffbe000       ?_AtlWinModule$initializer$@ATL@@3P6AXXZA 10000000     mfcs140:stdafx.obj
 0002:fffbe000       __ehfuncinfo$??1CAtlComModule@ATL@@QAE@XZ 10000000     mfcs140:stdafx.obj
 0002:fffbe000       __ehfuncinfo$??_Estringdispid@CComTypeInfoHolder@ATL@@QAEPAXI@Z 10000000     mfcs140:stdafx.obj
 0001:fffff000       __ehhandler$??1CAtlComModule@ATL@@QAE@XZ 10000000 f   mfcs140:stdafx.obj
 0001:fffff000       __ehhandler$??_Estringdispid@CComTypeInfoHolder@ATL@@QAEPAXI@Z 10000000 f   mfcs140:stdafx.obj
 0002:fffbe000       __guard_fids_??_Estringdispid@CComTypeInfoHolder@ATL@@QAEPAXI@Z 10000000     mfcs140:stdafx.obj
 0002:fffbe000       __guard_fids_??__E_AtlComModule@ATL@@YAXXZ 10000000     mfcs140:stdafx.obj
 0002:fffbe000       __guard_fids_??__E_AtlWinModule@ATL@@YAXXZ 10000000     mfcs140:stdafx.obj
 0002:fffbe000       __guard_fids_?GetInstance@CAtlStringMgr@ATL@@SAPAUIAtlStringMgr@2@XZ 10000000     mfcs140:stdafx.obj
 0002:fffbe000       __guard_fids__             10000000     mfcs140:stdafx.obj
 0002:fffbe000       __guard_fids__             10000000     mfcs140:stdafx.obj
 0002:fffbe000       __guard_fids__             10000000     mfcs140:stdafx.obj
 0002:fffbe000       __guard_fids__             10000000     mfcs140:stdafx.obj
 0002:fffbe000       __guard_fids__             10000000     mfcs140:stdafx.obj
 0002:fffbe000       __guard_fids__             10000000     mfcs140:stdafx.obj
 0002:fffbe000       __guard_fids__             10000000     mfcs140:stdafx.obj
 0002:fffbe000       __guard_fids__             10000000     mfcs140:stdafx.obj
 0002:fffbe000       __guard_fids__             10000000     mfcs140:stdafx.obj
 0002:fffbe000       __sehtable$_IsolationAwareUnregisterClassA@8 10000000     mfcs140:stdafx.obj
 0002:fffbe000       __sehtable$_WinbaseIsolationAwarePrivatetRgzlnPgpgk@0 10000000     mfcs140:stdafx.obj
 0002:fffbe000       __guard_fids___except_handler4 10000000     msvcrt:chandler4gs.obj
 0002:fffbe000       __guard_fids_?dllmain_dispatch@@YAHQAUHINSTANCE__@@KQAX@Z 10000000     msvcrt:dll_dllmain.obj
 0002:fffbe000       __guard_fids__             10000000     msvcrt:guard_support.obj
 0002:fffbe000       __guard_fids__             10000000     msvcrt:guard_support.obj
 0002:fffbe000       __guard_fids___guard_icall_checks_enforced 10000000     msvcrt:guard_support.obj
 0002:fffbe000       __guard_fids__             10000000     msvcrt:std_type_info_static.obj
 0002:fffbe000       __guard_fids_?__scrt_initialize_thread_safe_statics@@YAHXZ 10000000     msvcrt:thread_safe_statics.obj
 0002:fffbe000       __guard_fids__             10000000     msvcrt:thread_safe_statics.obj
 0002:fffbe000       __guard_fids____scrt_set_unhandled_exception_filter 10000000     msvcrt:utility_desktop.obj
 0000:fffa1000       .debug$S                   10000000     vcruntime:VCRUNTIME140.dll
 0000:fffa1000       .debug$S                   10000000     vcruntime:VCRUNTIME140.dll
 0000:fffa1000       .debug$S                   10000000     vcruntime:VCRUNTIME140.dll
 0000:fffa1000       .debug$S                   10000000     vcruntime:VCRUNTIME140.dll
 0000:fffa1000       .debug$S                   10000000     vcruntime:VCRUNTIME140.dll
 0000:fffa1000       .debug$S                   10000000     vcruntime:VCRUNTIME140.dll
 0000:fffa1000       .debug$S                   10000000     vcruntime:VCRUNTIME140.dll
 0000:fffa1000       .debug$S                   10000000     vcruntime:VCRUNTIME140.dll
 0000:fffa1000       .debug$S                   10000000     vcruntime:VCRUNTIME140.dll
 0000:fffa1000       .debug$S                   10000000     vcruntime:VCRUNTIME140.dll
 0000:fffa1000       .debug$S                   10000000     ucrt:api-ms-win-crt-convert-l1-1-0.dll
 0000:fffa1000       .debug$S                   10000000     ucrt:api-ms-win-crt-convert-l1-1-0.dll
 0000:fffa1000       .debug$S                   10000000     ucrt:api-ms-win-crt-convert-l1-1-0.dll
 0000:fffa1000       .debug$S                   10000000     ucrt:api-ms-win-crt-filesystem-l1-1-0.dll
 0000:fffa1000       .debug$S                   10000000     ucrt:api-ms-win-crt-filesystem-l1-1-0.dll
 0000:fffa1000       .debug$S                   10000000     ucrt:api-ms-win-crt-filesystem-l1-1-0.dll
 0000:fffa1000       .debug$S                   10000000     ucrt:api-ms-win-crt-heap-l1-1-0.dll
 0000:fffa1000       .debug$S                   10000000     ucrt:api-ms-win-crt-heap-l1-1-0.dll
 0000:fffa1000       .debug$S                   10000000     ucrt:api-ms-win-crt-multibyte-l1-1-0.dll
 0000:fffa1000       .debug$S                   10000000     ucrt:api-ms-win-crt-runtime-l1-1-0.dll
 0000:fffa1000       .debug$S                   10000000     ucrt:api-ms-win-crt-runtime-l1-1-0.dll
 0000:fffa1000       .debug$S                   10000000     ucrt:api-ms-win-crt-runtime-l1-1-0.dll
 0000:fffa1000       .debug$S                   10000000     ucrt:api-ms-win-crt-runtime-l1-1-0.dll
 0000:fffa1000       .debug$S                   10000000     ucrt:api-ms-win-crt-runtime-l1-1-0.dll
 0000:fffa1000       .debug$S                   10000000     ucrt:api-ms-win-crt-runtime-l1-1-0.dll
 0000:fffa1000       .debug$S                   10000000     ucrt:api-ms-win-crt-runtime-l1-1-0.dll
 0000:fffa1000       .debug$S                   10000000     ucrt:api-ms-win-crt-runtime-l1-1-0.dll
 0000:fffa1000       .debug$S                   10000000     ucrt:api-ms-win-crt-runtime-l1-1-0.dll
 0000:fffa1000       .debug$S                   10000000     ucrt:api-ms-win-crt-runtime-l1-1-0.dll
 0000:fffa1000       .debug$S                   10000000     ucrt:api-ms-win-crt-runtime-l1-1-0.dll
 0000:fffa1000       .debug$S                   10000000     ucrt:api-ms-win-crt-runtime-l1-1-0.dll
 0000:fffa1000       .debug$S                   10000000     ucrt:api-ms-win-crt-runtime-l1-1-0.dll
 0000:fffa1000       .debug$S                   10000000     ucrt:api-ms-win-crt-runtime-l1-1-0.dll
 0000:fffa1000       .debug$S                   10000000     ucrt:api-ms-win-crt-stdio-l1-1-0.dll
 0000:fffa1000       .debug$S                   10000000     ucrt:api-ms-win-crt-stdio-l1-1-0.dll
 0000:fffa1000       .debug$S                   10000000     ucrt:api-ms-win-crt-string-l1-1-0.dll
 0000:fffa1000       .debug$S                   10000000     ucrt:api-ms-win-crt-time-l1-1-0.dll
 0000:fffa1000       .debug$S                   10000000     ucrt:api-ms-win-crt-time-l1-1-0.dll
 0000:fffa1000       .debug$S                   10000000     ucrt:api-ms-win-crt-time-l1-1-0.dll
 0000:fffa1000       .debug$S                   10000000     advapi32:ADVAPI32.dll
 0000:fffa1000       .debug$S                   10000000     advapi32:ADVAPI32.dll
 0000:fffa1000       .debug$S                   10000000     advapi32:ADVAPI32.dll
 0000:fffa1000       .debug$S                   10000000     comctl32:COMCTL32.dll
 0000:fffa1000       .debug$S                   10000000     comctl32:COMCTL32.dll
 0000:fffa1000       .debug$S                   10000000     comctl32:COMCTL32.dll
 0000:fffa1000       .debug$S                   10000000     comctl32:COMCTL32.dll
 0000:fffa1000       .debug$S                   10000000     comctl32:COMCTL32.dll
 0000:fffa1000       .debug$S                   10000000     comctl32:COMCTL32.dll
 0000:fffa1000       .debug$S                   10000000     gdi32:GDI32.dll
 0000:fffa1000       .debug$S                   10000000     gdi32:GDI32.dll
 0000:fffa1000       .debug$S                   10000000     gdi32:GDI32.dll
 0000:fffa1000       .debug$S                   10000000     gdi32:GDI32.dll
 0000:fffa1000       .debug$S                   10000000     gdi32:GDI32.dll
 0000:fffa1000       .debug$S                   10000000     gdi32:GDI32.dll
 0000:fffa1000       .debug$S                   10000000     gdi32:GDI32.dll
 0000:fffa1000       .debug$S                   10000000     gdi32:GDI32.dll
 0000:fffa1000       .debug$S                   10000000     gdi32:GDI32.dll
 0000:fffa1000       .debug$S                   10000000     gdi32:GDI32.dll
 0000:fffa1000       .debug$S                   10000000     gdi32:GDI32.dll
 0000:fffa1000       .debug$S                   10000000     gdi32:GDI32.dll
 0000:fffa1000       .debug$S                   10000000     gdi32:GDI32.dll
 0000:fffa1000       .debug$S                   10000000     gdi32:GDI32.dll
 0000:fffa1000       .debug$S                   10000000     gdi32:GDI32.dll
 0000:fffa1000       .debug$S                   10000000     gdi32:GDI32.dll
 0000:fffa1000       .debug$S                   10000000     gdi32:GDI32.dll
 0000:fffa1000       .debug$S                   10000000     gdi32:GDI32.dll
 0000:fffa1000       .debug$S                   10000000     gdi32:GDI32.dll
 0000:fffa1000       .debug$S                   10000000     gdi32:GDI32.dll
 0000:fffa1000       .debug$S                   10000000     gdi32:GDI32.dll
 0000:fffa1000       .debug$S                   10000000     gdi32:GDI32.dll
 0000:fffa1000       .debug$S                   10000000     gdi32:GDI32.dll
 0000:fffa1000       .debug$S                   10000000     gdi32:GDI32.dll
 0000:fffa1000       .debug$S                   10000000     gdi32:GDI32.dll
 0000:fffa1000       .debug$S                   10000000     gdi32:GDI32.dll
 0000:fffa1000       .debug$S                   10000000     gdi32:GDI32.dll
 0000:fffa1000       .debug$S                   10000000     gdi32:GDI32.dll
 0000:fffa1000       .debug$S                   10000000     gdi32:GDI32.dll
 0000:fffa1000       .debug$S                   10000000     gdi32:GDI32.dll
 0000:fffa1000       .debug$S                   10000000     gdi32:GDI32.dll
 0000:fffa1000       .debug$S                   10000000     gdi32:GDI32.dll
 0000:fffa1000       .debug$S                   10000000     gdi32:GDI32.dll
 0000:fffa1000       .debug$S                   10000000     gdi32:GDI32.dll
 0000:fffa1000       .debug$S                   10000000     gdi32:GDI32.dll
 0000:fffa1000       .debug$S                   10000000     gdi32:GDI32.dll
 0000:fffa1000       .debug$S                   10000000     gdi32:GDI32.dll
 0000:fffa1000       .debug$S                   10000000     kernel32:KERNEL32.dll
 0000:fffa1000       .debug$S                   10000000     kernel32:KERNEL32.dll
 0000:fffa1000       .debug$S                   10000000     kernel32:KERNEL32.dll
 0000:fffa1000       .debug$S                   10000000     kernel32:KERNEL32.dll
 0000:fffa1000       .debug$S                   10000000     kernel32:KERNEL32.dll
 0000:fffa1000       .debug$S                   10000000     kernel32:KERNEL32.dll
 0000:fffa1000       .debug$S                   10000000     kernel32:KERNEL32.dll
 0000:fffa1000       .debug$S                   10000000     kernel32:KERNEL32.dll
 0000:fffa1000       .debug$S                   10000000     kernel32:KERNEL32.dll
 0000:fffa1000       .debug$S                   10000000     kernel32:KERNEL32.dll
 0000:fffa1000       .debug$S                   10000000     kernel32:KERNEL32.dll
 0000:fffa1000       .debug$S                   10000000     kernel32:KERNEL32.dll
 0000:fffa1000       .debug$S                   10000000     kernel32:KERNEL32.dll
 0000:fffa1000       .debug$S                   10000000     kernel32:KERNEL32.dll
 0000:fffa1000       .debug$S                   10000000     kernel32:KERNEL32.dll
 0000:fffa1000       .debug$S                   10000000     kernel32:KERNEL32.dll
 0000:fffa1000       .debug$S                   10000000     kernel32:KERNEL32.dll
 0000:fffa1000       .debug$S                   10000000     kernel32:KERNEL32.dll
 0000:fffa1000       .debug$S                   10000000     kernel32:KERNEL32.dll
 0000:fffa1000       .debug$S                   10000000     kernel32:KERNEL32.dll
 0000:fffa1000       .debug$S                   10000000     kernel32:KERNEL32.dll
 0000:fffa1000       .debug$S                   10000000     kernel32:KERNEL32.dll
 0000:fffa1000       .debug$S                   10000000     kernel32:KERNEL32.dll
 0000:fffa1000       .debug$S                   10000000     kernel32:KERNEL32.dll
 0000:fffa1000       .debug$S                   10000000     kernel32:KERNEL32.dll
 0000:fffa1000       .debug$S                   10000000     kernel32:KERNEL32.dll
 0000:fffa1000       .debug$S                   10000000     kernel32:KERNEL32.dll
 0000:fffa1000       .debug$S                   10000000     kernel32:KERNEL32.dll
 0000:fffa1000       .debug$S                   10000000     kernel32:KERNEL32.dll
 0000:fffa1000       .debug$S                   10000000     kernel32:KERNEL32.dll
 0000:fffa1000       .debug$S                   10000000     kernel32:KERNEL32.dll
 0000:fffa1000       .debug$S                   10000000     kernel32:KERNEL32.dll
 0000:fffa1000       .debug$S                   10000000     kernel32:KERNEL32.dll
 0000:fffa1000       .debug$S                   10000000     kernel32:KERNEL32.dll
 0000:fffa1000       .debug$S                   10000000     kernel32:KERNEL32.dll
 0000:fffa1000       .debug$S                   10000000     kernel32:KERNEL32.dll
 0000:fffa1000       .debug$S                   10000000     kernel32:KERNEL32.dll
 0000:fffa1000       .debug$S                   10000000     kernel32:KERNEL32.dll
 0000:fffa1000       .debug$S                   10000000     kernel32:KERNEL32.dll
 0000:fffa1000       .debug$S                   10000000     kernel32:KERNEL32.dll
 0000:fffa1000       .debug$S                   10000000     kernel32:KERNEL32.dll
 0000:fffa1000       .debug$S                   10000000     kernel32:KERNEL32.dll
 0000:fffa1000       .debug$S                   10000000     kernel32:KERNEL32.dll
 0000:fffa1000       .debug$S                   10000000     kernel32:KERNEL32.dll
 0000:fffa1000       .debug$S                   10000000     kernel32:KERNEL32.dll
 0000:fffa1000       .debug$S                   10000000     kernel32:KERNEL32.dll
 0000:fffa1000       .debug$S                   10000000     kernel32:KERNEL32.dll
 0000:fffa1000       .debug$S                   10000000     kernel32:KERNEL32.dll
 0000:fffa1000       .debug$S                   10000000     kernel32:KERNEL32.dll
 0000:fffa1000       .debug$S                   10000000     kernel32:KERNEL32.dll
 0000:fffa1000       .debug$S                   10000000     kernel32:KERNEL32.dll
 0000:fffa1000       .debug$S                   10000000     kernel32:KERNEL32.dll
 0000:fffa1000       .debug$S                   10000000     kernel32:KERNEL32.dll
 0000:fffa1000       .debug$S                   10000000     kernel32:KERNEL32.dll
 0000:fffa1000       .debug$S                   10000000     kernel32:KERNEL32.dll
 0000:fffa1000       .debug$S                   10000000     kernel32:KERNEL32.dll
 0000:fffa1000       .debug$S                   10000000     kernel32:KERNEL32.dll
 0000:fffa1000       .debug$S                   10000000     kernel32:KERNEL32.dll
 0000:fffa1000       .debug$S                   10000000     oleaut32:OLEAUT32.dll
 0000:fffa1000       .debug$S                   10000000     oleaut32:OLEAUT32.dll
 0000:fffa1000       .debug$S                   10000000     oleaut32:OLEAUT32.dll
 0000:fffa1000       .debug$S                   10000000     oleaut32:OLEAUT32.dll
 0000:fffa1000       .debug$S                   10000000     shell32:SHELL32.dll
 0000:fffa1000       .debug$S                   10000000     user32:USER32.dll
 0000:fffa1000       .debug$S                   10000000     user32:USER32.dll
 0000:fffa1000       .debug$S                   10000000     user32:USER32.dll
 0000:fffa1000       .debug$S                   10000000     user32:USER32.dll
 0000:fffa1000       .debug$S                   10000000     user32:USER32.dll
 0000:fffa1000       .debug$S                   10000000     user32:USER32.dll
 0000:fffa1000       .debug$S                   10000000     user32:USER32.dll
 0000:fffa1000       .debug$S                   10000000     user32:USER32.dll
 0000:fffa1000       .debug$S                   10000000     user32:USER32.dll
 0000:fffa1000       .debug$S                   10000000     user32:USER32.dll
 0000:fffa1000       .debug$S                   10000000     user32:USER32.dll
 0000:fffa1000       .debug$S                   10000000     user32:USER32.dll
 0000:fffa1000       .debug$S                   10000000     user32:USER32.dll
 0000:fffa1000       .debug$S                   10000000     user32:USER32.dll
 0000:fffa1000       .debug$S                   10000000     user32:USER32.dll
 0000:fffa1000       .debug$S                   10000000     user32:USER32.dll
 0000:fffa1000       .debug$S                   10000000     user32:USER32.dll
 0000:fffa1000       .debug$S                   10000000     user32:USER32.dll
 0000:fffa1000       .debug$S                   10000000     user32:USER32.dll
 0000:fffa1000       .debug$S                   10000000     user32:USER32.dll
 0000:fffa1000       .debug$S                   10000000     user32:USER32.dll
 0000:fffa1000       .debug$S                   10000000     user32:USER32.dll
 0000:fffa1000       .debug$S                   10000000     user32:USER32.dll
 0000:fffa1000       .debug$S                   10000000     user32:USER32.dll
 0000:fffa1000       .debug$S                   10000000     user32:USER32.dll
 0000:fffa1000       .debug$S                   10000000     user32:USER32.dll
 0000:fffa1000       .debug$S                   10000000     user32:USER32.dll
 0000:fffa1000       .debug$S                   10000000     user32:USER32.dll
 0000:fffa1000       .debug$S                   10000000     user32:USER32.dll
 0000:fffa1000       .debug$S                   10000000     user32:USER32.dll
 0000:fffa1000       .debug$S                   10000000     user32:USER32.dll
 0000:fffa1000       .debug$S                   10000000     user32:USER32.dll
 0000:fffa1000       .debug$S                   10000000     user32:USER32.dll
 0000:fffa1000       .debug$S                   10000000     user32:USER32.dll
 0000:fffa1000       .debug$S                   10000000     user32:USER32.dll
 0000:fffa1000       .debug$S                   10000000     user32:USER32.dll
 0000:fffa1000       .debug$S                   10000000     user32:USER32.dll
 0000:fffa1000       .debug$S                   10000000     user32:USER32.dll
 0000:fffa1000       .debug$S                   10000000     user32:USER32.dll
 0000:fffa1000       .debug$S                   10000000     user32:USER32.dll
 0000:fffa1000       .debug$S                   10000000     user32:USER32.dll
 0000:fffa1000       .debug$S                   10000000     user32:USER32.dll
 0000:fffa1000       .debug$S                   10000000     user32:USER32.dll
 0000:fffa1000       .debug$S                   10000000     user32:USER32.dll
 0000:fffa1000       .debug$S                   10000000     user32:USER32.dll
 0000:fffa1000       .debug$S                   10000000     user32:USER32.dll
 0000:fffa1000       .debug$S                   10000000     user32:USER32.dll
 0000:fffa1000       .debug$S                   10000000     user32:USER32.dll
 0000:fffa1000       .debug$S                   10000000     user32:USER32.dll
 0000:fffa1000       .debug$S                   10000000     user32:USER32.dll
 0000:fffa1000       .debug$S                   10000000     user32:USER32.dll
 0000:fffa1000       .debug$S                   10000000     user32:USER32.dll
 0000:fffa1000       .debug$S                   10000000     user32:USER32.dll
 0000:fffa1000       .debug$S                   10000000     user32:USER32.dll
 0000:fffa1000       .debug$S                   10000000     user32:USER32.dll
 0000:fffa1000       .debug$S                   10000000     user32:USER32.dll
 0000:fffa1000       .debug$S                   10000000     user32:USER32.dll
 0000:fffa1000       .debug$S                   10000000     user32:USER32.dll
 0000:fffa1000       .debug$S                   10000000     user32:USER32.dll
 0000:fffa1000       .debug$S                   10000000     user32:USER32.dll
 0000:fffa1000       .debug$S                   10000000     user32:USER32.dll
 0000:fffa1000       .debug$S                   10000000     user32:USER32.dll
 0000:fffa1000       .debug$S                   10000000     user32:USER32.dll
 0000:fffa1000       .debug$S                   10000000     user32:USER32.dll
 0000:fffa1000       .debug$S                   10000000     user32:USER32.dll
 0000:fffa1000       .debug$S                   10000000     user32:USER32.dll
 0000:fffa1000       .debug$S                   10000000     user32:USER32.dll
 0000:fffa1000       .debug$S                   10000000     user32:USER32.dll
 0000:fffa1000       .debug$S                   10000000     user32:USER32.dll
 0002:fffbe008       __ehfuncinfo$??HATL@@YA?AV?$CStringT@DV?$StrTraitMFC_DLL@DV?$ChTraitsCRT@D@ATL@@@@@0@ABV10@PBD@Z 10000008     OutLookBarDlg.obj
 0002:fffbe008       __ehfuncinfo$??HATL@@YA?AV?$CStringT@DV?$StrTraitMFC_DLL@DV?$ChTraitsCRT@D@ATL@@@@@0@ABV10@PBD@Z 10000008     SDItemInfo.obj
 0002:fffbe010       __tryblocktable$??1CGdiObject@@UAE@XZ 10000010     BitmapItemComboBox.obj
 0002:fffbe010       __tryblocktable$??1CGdiObject@@UAE@XZ 10000010     ColorButton.obj
 0002:fffbe010       __tryblocktable$??1CGdiObject@@UAE@XZ 10000010     ColoredStatic.obj
 0002:fffbe010       __tryblocktable$??1CGdiObject@@UAE@XZ 10000010     DlgStrategyConfigure.obj
 0002:fffbe010       __tryblocktable$??1CGdiObject@@UAE@XZ 10000010     DlgStrategyList.obj
 0002:fffbe010       __tryblocktable$??1CGdiObject@@UAE@XZ 10000010     DlgTimeSelector.obj
 0002:fffbe010       __tryblocktable$??1CGdiObject@@UAE@XZ 10000010     GridCell.obj
 0002:fffbe010       __tryblocktable$??1CGdiObject@@UAE@XZ 10000010     GridCellBase.obj
 0002:fffbe010       __tryblocktable$??1CGdiObject@@UAE@XZ 10000010     GridCtrl.obj
 0002:fffbe010       __tryblocktable$??1CGdiObject@@UAE@XZ 10000010     LogicEditCtrl.obj
 0002:fffbe010       __tryblocktable$??1CGdiObject@@UAE@XZ 10000010     OutLookBarDlg.obj
 0002:fffbe010       __tryblocktable$??1CGdiObject@@UAE@XZ 10000010     STListCtrl.obj
 0002:fffbe010       __tryblocktable$??1CGdiObject@@UAE@XZ 10000010     STTreeCtrl.obj
 0002:fffbe010       __tryblocktable$??1CGdiObject@@UAE@XZ 10000010     TitleTip.obj
 0002:fffbe010       __tryblocktable$??1CGdiObject@@UAE@XZ 10000010     XHeaderCtrl.obj
 0002:fffbe010       __tryblocktable$??1CGdiObject@@UAE@XZ 10000010     XListCtrl.obj
 0002:fffbe010       __tryblocktable$??1CGdiObject@@UAE@XZ 10000010     XTabCtrl.obj
 0002:fffbe010       __tryblocktable$??1CGdiObject@@UAE@XZ 10000010     xSkinButton.obj
 0001:fffff011       __ehhandler$??1CGdiObject@@UAE@XZ 10000011 f   BitmapItemComboBox.obj
 0001:fffff011       __ehhandler$??1CGdiObject@@UAE@XZ 10000011 f   ColorButton.obj
 0001:fffff011       __ehhandler$??1CGdiObject@@UAE@XZ 10000011 f   ColoredStatic.obj
 0001:fffff011       __ehhandler$??1CGdiObject@@UAE@XZ 10000011 f   DlgStrategyConfigure.obj
 0001:fffff011       __ehhandler$??1CGdiObject@@UAE@XZ 10000011 f   DlgStrategyList.obj
 0001:fffff011       __ehhandler$??1CGdiObject@@UAE@XZ 10000011 f   DlgTimeSelector.obj
 0001:fffff011       __ehhandler$??1CGdiObject@@UAE@XZ 10000011 f   GridCell.obj
 0001:fffff011       __ehhandler$??1CGdiObject@@UAE@XZ 10000011 f   GridCellBase.obj
 0001:fffff011       __ehhandler$??1CGdiObject@@UAE@XZ 10000011 f   GridCtrl.obj
 0001:fffff011       __ehhandler$??1CGdiObject@@UAE@XZ 10000011 f   LogicEditCtrl.obj
 0001:fffff011       __ehhandler$??1CGdiObject@@UAE@XZ 10000011 f   OutLookBarDlg.obj
 0001:fffff011       __ehhandler$??1CGdiObject@@UAE@XZ 10000011 f   STListCtrl.obj
 0001:fffff011       __ehhandler$??1CGdiObject@@UAE@XZ 10000011 f   STTreeCtrl.obj
 0001:fffff011       __ehhandler$??1CGdiObject@@UAE@XZ 10000011 f   TitleTip.obj
 0001:fffff011       __ehhandler$??1CGdiObject@@UAE@XZ 10000011 f   XHeaderCtrl.obj
 0001:fffff011       __ehhandler$??1CGdiObject@@UAE@XZ 10000011 f   XListCtrl.obj
 0001:fffff011       __ehhandler$??1CGdiObject@@UAE@XZ 10000011 f   XTabCtrl.obj
 0001:fffff011       __ehhandler$??1CGdiObject@@UAE@XZ 10000011 f   xSkinButton.obj
 0001:fffff01f       __ehhandler$??HATL@@YA?AV?$CStringT@DV?$StrTraitMFC_DLL@DV?$ChTraitsCRT@D@ATL@@@@@0@ABV10@PBD@Z 1000001f f   OutLookBarDlg.obj
 0001:fffff01f       __ehhandler$??HATL@@YA?AV?$CStringT@DV?$StrTraitMFC_DLL@DV?$ChTraitsCRT@D@ATL@@@@@0@ABV10@PBD@Z 1000001f f   SDItemInfo.obj
 0002:fffbe024       __unwindtable$??1CGdiObject@@UAE@XZ 10000024     BitmapItemComboBox.obj
 0002:fffbe024       __unwindtable$??1CGdiObject@@UAE@XZ 10000024     ColorButton.obj
 0002:fffbe024       __unwindtable$??1CGdiObject@@UAE@XZ 10000024     ColoredStatic.obj
 0002:fffbe024       __unwindtable$??1CGdiObject@@UAE@XZ 10000024     DlgStrategyConfigure.obj
 0002:fffbe024       __unwindtable$??1CGdiObject@@UAE@XZ 10000024     DlgStrategyList.obj
 0002:fffbe024       __unwindtable$??1CGdiObject@@UAE@XZ 10000024     DlgTimeSelector.obj
 0002:fffbe024       __unwindtable$??1CGdiObject@@UAE@XZ 10000024     GridCell.obj
 0002:fffbe024       __unwindtable$??1CGdiObject@@UAE@XZ 10000024     GridCellBase.obj
 0002:fffbe024       __unwindtable$??1CGdiObject@@UAE@XZ 10000024     GridCtrl.obj
 0002:fffbe024       __unwindtable$??1CGdiObject@@UAE@XZ 10000024     LogicEditCtrl.obj
 0002:fffbe024       __unwindtable$??1CGdiObject@@UAE@XZ 10000024     OutLookBarDlg.obj
 0002:fffbe024       __unwindtable$??1CGdiObject@@UAE@XZ 10000024     STListCtrl.obj
 0002:fffbe024       __unwindtable$??1CGdiObject@@UAE@XZ 10000024     STTreeCtrl.obj
 0002:fffbe024       __unwindtable$??1CGdiObject@@UAE@XZ 10000024     TitleTip.obj
 0002:fffbe024       __unwindtable$??1CGdiObject@@UAE@XZ 10000024     XHeaderCtrl.obj
 0002:fffbe024       __unwindtable$??1CGdiObject@@UAE@XZ 10000024     XListCtrl.obj
 0002:fffbe024       __unwindtable$??1CGdiObject@@UAE@XZ 10000024     XTabCtrl.obj
 0002:fffbe024       __unwindtable$??1CGdiObject@@UAE@XZ 10000024     xSkinButton.obj
 0001:fffff028       $LN12                      10000028     XTabCtrl.obj
 0001:fffff028       $LN12                      10000028     ExControl:StdAfx.obj
 0001:fffff038       $LN11                      10000038     XTabCtrl.obj
 0001:fffff038       $LN11                      10000038     ExControl:StdAfx.obj
 0002:fffbe03c       __ehfuncinfo$??1CGdiObject@@UAE@XZ 1000003c     BitmapItemComboBox.obj
 0002:fffbe03c       __ehfuncinfo$??1CGdiObject@@UAE@XZ 1000003c     ColorButton.obj
 0002:fffbe03c       __ehfuncinfo$??1CGdiObject@@UAE@XZ 1000003c     ColoredStatic.obj
 0002:fffbe03c       __ehfuncinfo$??1CGdiObject@@UAE@XZ 1000003c     DlgStrategyConfigure.obj
 0002:fffbe03c       __ehfuncinfo$??1CGdiObject@@UAE@XZ 1000003c     DlgStrategyList.obj
 0002:fffbe03c       __ehfuncinfo$??1CGdiObject@@UAE@XZ 1000003c     DlgTimeSelector.obj
 0002:fffbe03c       __ehfuncinfo$??1CGdiObject@@UAE@XZ 1000003c     GridCell.obj
 0002:fffbe03c       __ehfuncinfo$??1CGdiObject@@UAE@XZ 1000003c     GridCellBase.obj
 0002:fffbe03c       __ehfuncinfo$??1CGdiObject@@UAE@XZ 1000003c     GridCtrl.obj
 0002:fffbe03c       __ehfuncinfo$??1CGdiObject@@UAE@XZ 1000003c     LogicEditCtrl.obj
 0002:fffbe03c       __ehfuncinfo$??1CGdiObject@@UAE@XZ 1000003c     OutLookBarDlg.obj
 0002:fffbe03c       __ehfuncinfo$??1CGdiObject@@UAE@XZ 1000003c     STListCtrl.obj
 0002:fffbe03c       __ehfuncinfo$??1CGdiObject@@UAE@XZ 1000003c     STTreeCtrl.obj
 0002:fffbe03c       __ehfuncinfo$??1CGdiObject@@UAE@XZ 1000003c     TitleTip.obj
 0002:fffbe03c       __ehfuncinfo$??1CGdiObject@@UAE@XZ 1000003c     XHeaderCtrl.obj
 0002:fffbe03c       __ehfuncinfo$??1CGdiObject@@UAE@XZ 1000003c     XListCtrl.obj
 0002:fffbe03c       __ehfuncinfo$??1CGdiObject@@UAE@XZ 1000003c     XTabCtrl.obj
 0002:fffbe03c       __ehfuncinfo$??1CGdiObject@@UAE@XZ 1000003c     xSkinButton.obj
 0001:fffff05f       __catch$??1CGdiObject@@UAE@XZ$0 1000005f f   BitmapItemComboBox.obj
 0001:fffff05f       __catch$??1CGdiObject@@UAE@XZ$0 1000005f f   ColorButton.obj
 0001:fffff05f       __catch$??1CGdiObject@@UAE@XZ$0 1000005f f   ColoredStatic.obj
 0001:fffff05f       __catch$??1CGdiObject@@UAE@XZ$0 1000005f f   DlgStrategyConfigure.obj
 0001:fffff05f       __catch$??1CGdiObject@@UAE@XZ$0 1000005f f   DlgStrategyList.obj
 0001:fffff05f       __catch$??1CGdiObject@@UAE@XZ$0 1000005f f   DlgTimeSelector.obj
 0001:fffff05f       __catch$??1CGdiObject@@UAE@XZ$0 1000005f f   GridCell.obj
 0001:fffff05f       __catch$??1CGdiObject@@UAE@XZ$0 1000005f f   GridCellBase.obj
 0001:fffff05f       __catch$??1CGdiObject@@UAE@XZ$0 1000005f f   GridCtrl.obj
 0001:fffff05f       __catch$??1CGdiObject@@UAE@XZ$0 1000005f f   LogicEditCtrl.obj
 0001:fffff05f       __catch$??1CGdiObject@@UAE@XZ$0 1000005f f   OutLookBarDlg.obj
 0001:fffff05f       __catch$??1CGdiObject@@UAE@XZ$0 1000005f f   STListCtrl.obj
 0001:fffff05f       __catch$??1CGdiObject@@UAE@XZ$0 1000005f f   STTreeCtrl.obj
 0001:fffff05f       __catch$??1CGdiObject@@UAE@XZ$0 1000005f f   TitleTip.obj
 0001:fffff05f       __catch$??1CGdiObject@@UAE@XZ$0 1000005f f   XHeaderCtrl.obj
 0001:fffff05f       __catch$??1CGdiObject@@UAE@XZ$0 1000005f f   XListCtrl.obj
 0001:fffff05f       __catch$??1CGdiObject@@UAE@XZ$0 1000005f f   XTabCtrl.obj
 0001:fffff05f       __catch$??1CGdiObject@@UAE@XZ$0 1000005f f   xSkinButton.obj
 0001:00000000       ??__ERMSG_INTERFACE@@YAXXZ 10001000 f   STListCtrl.obj
 0001:00000020       ??__ERMSG_ISSTRUNSTATE@@YAXXZ 10001020 f   STListCtrl.obj
 0001:00000040       ??__ERMSG_OB_ITEMCLICK@@YAXXZ 10001040 f   STListCtrl.obj
 0001:00000060       ??__ERMSG_OB_ITEMDBLCLK@@YAXXZ 10001060 f   STListCtrl.obj
 0001:00000080       ??__ERMSG_OPENNEWMAP@@YAXXZ 10001080 f   STTreeCtrl.obj
 0001:000000a0       ??__ERMSG_STTREE_ITEMCLICK@@YAXXZ 100010a0 f   STTreeCtrl.obj
 0001:000000c0       ??__ERMSG_STTREE_ITEMDBLCLK@@YAXXZ 100010c0 f   STTreeCtrl.obj
 0001:000000e0       ??__ERMSG_GETPCTRDATA@@YAXXZ 100010e0 f   _STLoadmanager.obj
 0001:00000100       ??__EWM_XEDIT_VK_ESCAPE@@YAXXZ 10001100 f   XEdit.obj
 0001:00000120       ??__EWM_XEDIT_VK_RETURN@@YAXXZ 10001120 f   XEdit.obj
 0001:00000140       ??__EWM_XLISTCTRL_CHECKBOX_CLICKED@@YAXXZ 10001140 f   XListCtrl.obj
 0001:00000160       ??__EWM_XLISTCTRL_COMBO_SELECTION@@YAXXZ 10001160 f   XListCtrl.obj
 0001:00000180       ??__ERMSG_ENDSCROLLPOS@@YAXXZ 10001180 f   DlgStrategyConfigure.obj
 0001:000001a0       ??__ERMSG_EVENT_ACCTINPUT@@YAXXZ 100011a0 f   DlgStrategyConfigure.obj
 0001:000001c0       ??__ERMSG_EVENT_CODEINPUT@@YAXXZ 100011c0 f   DlgStrategyConfigure.obj
 0001:000001e0       ??__ERMSG_EVENT_SIGNAL@@YAXXZ 100011e0 f   DlgStrategyConfigure.obj
 0001:00000200       ??__ERMSG_EVENT_SPININPUT@@YAXXZ 10001200 f   DlgStrategyConfigure.obj
 0001:00000220       ??__ERMSG_FORMINITIALCOMPLETED@@YAXXZ 10001220 f   DlgStrategyConfigure.obj
 0001:00000240       ??__ERMSG_FORMSTATECHANGE@@YAXXZ 10001240 f   DlgStrategyConfigure.obj
 0001:00000260       ??__ERMSG_GETDLLSIZE@@YAXXZ 10001260 f   DlgStrategyConfigure.obj
 0001:00000280       ??__ERMSG_INTERFACE@@YAXXZ 10001280 f   DlgStrategyConfigure.obj
 0001:000002a0       ??__ERMSG_LBTNDBLCLICK@@YAXXZ 100012a0 f   DlgStrategyConfigure.obj
 0001:000002c0       ??__ERMSG_LBTNDOWN@@YAXXZ  100012c0 f   DlgStrategyConfigure.obj
 0001:000002e0       ??__ERMSG_LSHAREDCHANGED@@YAXXZ 100012e0 f   DlgStrategyConfigure.obj
 0001:00000300       ??__ERMSG_SETDLLSIZE@@YAXXZ 10001300 f   DlgStrategyConfigure.obj
 0001:00000320       ??__ERMSG_TABSTOP@@YAXXZ   10001320 f   DlgStrategyConfigure.obj
 0001:00000340       ??__ERMSG_ENDSCROLLPOS@@YAXXZ 10001340 f   DlgStrategyList.obj
 0001:00000360       ??__ERMSG_EVENT_ACCTINPUT@@YAXXZ 10001360 f   DlgStrategyList.obj
 0001:00000380       ??__ERMSG_EVENT_CODEINPUT@@YAXXZ 10001380 f   DlgStrategyList.obj
 0001:000003a0       ??__ERMSG_EVENT_SIGNAL@@YAXXZ 100013a0 f   DlgStrategyList.obj
 0001:000003c0       ??__ERMSG_EVENT_SPININPUT@@YAXXZ 100013c0 f   DlgStrategyList.obj
 0001:000003e0       ??__ERMSG_FORMINITIALCOMPLETED@@YAXXZ 100013e0 f   DlgStrategyList.obj
 0001:00000400       ??__ERMSG_FORMSTATECHANGE@@YAXXZ 10001400 f   DlgStrategyList.obj
 0001:00000420       ??__ERMSG_INTERFACE@@YAXXZ 10001420 f   DlgStrategyList.obj
 0001:00000440       ??__ERMSG_LBTNDBLCLICK@@YAXXZ 10001440 f   DlgStrategyList.obj
 0001:00000460       ??__ERMSG_LBTNDOWN@@YAXXZ  10001460 f   DlgStrategyList.obj
 0001:00000480       ??__ERMSG_LSHAREDCHANGED@@YAXXZ 10001480 f   DlgStrategyList.obj
 0001:000004a0       ??__ERMSG_STCONFIGURENAME@@YAXXZ 100014a0 f   DlgStrategyList.obj
 0001:000004c0       ??__ERMSG_STCONTROLLER_POINTER@@YAXXZ 100014c0 f   DlgStrategyList.obj
 0001:000004e0       ??__ERMSG_STSAVETOUSERST@@YAXXZ 100014e0 f   DlgStrategyList.obj
 0001:00000500       ??__ERMSG_TABSTOP@@YAXXZ   10001500 f   DlgStrategyList.obj
 0001:00000520       ??__ERMSG_ENDSCROLLPOS@@YAXXZ 10001520 f   DlgTimeSelector.obj
 0001:00000540       ??__ERMSG_EVENT_ACCTINPUT@@YAXXZ 10001540 f   DlgTimeSelector.obj
 0001:00000560       ??__ERMSG_EVENT_CODEINPUT@@YAXXZ 10001560 f   DlgTimeSelector.obj
 0001:00000580       ??__ERMSG_EVENT_SIGNAL@@YAXXZ 10001580 f   DlgTimeSelector.obj
 0001:000005a0       ??__ERMSG_EVENT_SPININPUT@@YAXXZ 100015a0 f   DlgTimeSelector.obj
 0001:000005c0       ??__ERMSG_FORMINITIALCOMPLETED@@YAXXZ 100015c0 f   DlgTimeSelector.obj
 0001:000005e0       ??__ERMSG_FORMSTATECHANGE@@YAXXZ 100015e0 f   DlgTimeSelector.obj
 0001:00000600       ??__ERMSG_LBTNDBLCLICK@@YAXXZ 10001600 f   DlgTimeSelector.obj
 0001:00000620       ??__ERMSG_LBTNDOWN@@YAXXZ  10001620 f   DlgTimeSelector.obj
 0001:00000640       ??__ERMSG_LSHAREDCHANGED@@YAXXZ 10001640 f   DlgTimeSelector.obj
 0001:00000660       ??__ERMSG_TABSTOP@@YAXXZ   10001660 f   DlgTimeSelector.obj
 0001:00000680       ??__ERMSG_ENDSCROLLPOS@@YAXXZ 10001680 f   HWStrategyConfigureWizard.obj
 0001:000006a0       ??__ERMSG_EVENT_ACCTINPUT@@YAXXZ 100016a0 f   HWStrategyConfigureWizard.obj
 0001:000006c0       ??__ERMSG_EVENT_CODEINPUT@@YAXXZ 100016c0 f   HWStrategyConfigureWizard.obj
 0001:000006e0       ??__ERMSG_EVENT_SIGNAL@@YAXXZ 100016e0 f   HWStrategyConfigureWizard.obj
 0001:00000700       ??__ERMSG_EVENT_SPININPUT@@YAXXZ 10001700 f   HWStrategyConfigureWizard.obj
 0001:00000720       ??__ERMSG_FORMINITIALCOMPLETED@@YAXXZ 10001720 f   HWStrategyConfigureWizard.obj
 0001:00000740       ??__ERMSG_FORMSTATECHANGE@@YAXXZ 10001740 f   HWStrategyConfigureWizard.obj
 0001:00000760       ??__ERMSG_GETPCTRDATA@@YAXXZ 10001760 f   HWStrategyConfigureWizard.obj
 0001:00000780       ??__ERMSG_INTERFACE@@YAXXZ 10001780 f   HWStrategyConfigureWizard.obj
 0001:000007a0       ??__ERMSG_LBTNDBLCLICK@@YAXXZ 100017a0 f   HWStrategyConfigureWizard.obj
 0001:000007c0       ??__ERMSG_LBTNDOWN@@YAXXZ  100017c0 f   HWStrategyConfigureWizard.obj
 0001:000007e0       ??__ERMSG_LSHAREDCHANGED@@YAXXZ 100017e0 f   HWStrategyConfigureWizard.obj
 0001:00000800       ??__ERMSG_TABSTOP@@YAXXZ   10001800 f   HWStrategyConfigureWizard.obj
 0001:00000820       ??__ERMSG_ENDSCROLLPOS@@YAXXZ 10001820 f   OutLookBarDlg.obj
 0001:00000840       ??__ERMSG_EVENT_ACCTINPUT@@YAXXZ 10001840 f   OutLookBarDlg.obj
 0001:00000860       ??__ERMSG_EVENT_CODEINPUT@@YAXXZ 10001860 f   OutLookBarDlg.obj
 0001:00000880       ??__ERMSG_EVENT_SIGNAL@@YAXXZ 10001880 f   OutLookBarDlg.obj
 0001:000008a0       ??__ERMSG_EVENT_SPININPUT@@YAXXZ 100018a0 f   OutLookBarDlg.obj
 0001:000008c0       ??__ERMSG_FORMINITIALCOMPLETED@@YAXXZ 100018c0 f   OutLookBarDlg.obj
 0001:000008e0       ??__ERMSG_FORMSTATECHANGE@@YAXXZ 100018e0 f   OutLookBarDlg.obj
 0001:00000900       ??__ERMSG_LBTNDBLCLICK@@YAXXZ 10001900 f   OutLookBarDlg.obj
 0001:00000920       ??__ERMSG_LBTNDOWN@@YAXXZ  10001920 f   OutLookBarDlg.obj
 0001:00000940       ??__ERMSG_LSHAREDCHANGED@@YAXXZ 10001940 f   OutLookBarDlg.obj
 0001:00000960       ??__ERMSG_OB_ITEMCLICK@@YAXXZ 10001960 f   OutLookBarDlg.obj
 0001:00000980       ??__ERMSG_OB_ITEMDBLCLK@@YAXXZ 10001980 f   OutLookBarDlg.obj
 0001:000009a0       ??__ERMSG_TABSTOP@@YAXXZ   100019a0 f   OutLookBarDlg.obj
 0001:000009c0       ??__E?isInitialized@CAtlStringMgr@ATL@@0_NA@@YAXXZ 100019c0 f   StdAfx.obj
 0001:000009e0       ??__EInitializeCAtlStringMgr@ATLImplementationDetails@ATL@@YAXXZ 100019e0 f   StdAfx.obj
 0001:00000ad0       ??__ERMSG_GETPCTRDATA@@YAXXZ 10001ad0 f   StdAfx.obj
 0001:00000af0       ??__ERMSG_INTERFACE@@YAXXZ 10001af0 f   StdAfx.obj
 0001:00000b10       ??__ERMSG_SETPCTRDATA@@YAXXZ 10001b10 f   StdAfx.obj
 0001:00000b30       ??__E_AtlComModule@ATL@@YAXXZ 10001b30 f   StdAfx.obj
 0001:00000b90       ??__E_AtlWinModule@ATL@@YAXXZ 10001b90 f   StdAfx.obj
 0001:00000be0       ??__ERMSG_GETPCTRDATA@@YAXXZ 10001be0 f   ExControl:ExDrawButton.obj
 0001:00000c00       ??__ERMSG_INTERFACE@@YAXXZ 10001c00 f   ExControl:ExDrawButton.obj
 0001:00000c20       ??__ERMSG_SETPCTRDATA@@YAXXZ 10001c20 f   ExControl:ExDrawButton.obj
 0001:00000c40       ??__ERMSG_GETPCTRDATA@@YAXXZ 10001c40 f   ExControl:ExEdit.obj
 0001:00000c60       ??__ERMSG_INTERFACE@@YAXXZ 10001c60 f   ExControl:ExEdit.obj
 0001:00000c80       ??__ERMSG_SETPCTRDATA@@YAXXZ 10001c80 f   ExControl:ExEdit.obj
 0001:00000ca0       ??__ERMSG_GETPCTRDATA@@YAXXZ 10001ca0 f   ExControl:ExButton.obj
 0001:00000cc0       ??__ERMSG_INTERFACE@@YAXXZ 10001cc0 f   ExControl:ExButton.obj
 0001:00000ce0       ??__ERMSG_SETPCTRDATA@@YAXXZ 10001ce0 f   ExControl:ExButton.obj
 0001:00000d00       ??__E?isInitialized@CAtlStringMgr@ATL@@0_NA@@YAXXZ 10001d00 f   ExControl:StdAfx.obj
 0001:00000d20       ??__EInitializeCAtlStringMgr@ATLImplementationDetails@ATL@@YAXXZ 10001d20 f   ExControl:StdAfx.obj
 0001:00000e10       ??__ERMSG_ENDSCROLLPOS@@YAXXZ 10001e10 f   ExControl:StdAfx.obj
 0001:00000e30       ??__ERMSG_EVENT_ACCTINPUT@@YAXXZ 10001e30 f   ExControl:StdAfx.obj
 0001:00000e50       ??__ERMSG_EVENT_CODEINPUT@@YAXXZ 10001e50 f   ExControl:StdAfx.obj
 0001:00000e70       ??__ERMSG_EVENT_SIGNAL@@YAXXZ 10001e70 f   ExControl:StdAfx.obj
 0001:00000e90       ??__ERMSG_EVENT_SPININPUT@@YAXXZ 10001e90 f   ExControl:StdAfx.obj
 0001:00000eb0       ??__ERMSG_FORMINITIALCOMPLETED@@YAXXZ 10001eb0 f   ExControl:StdAfx.obj
 0001:00000ed0       ??__ERMSG_FORMSTATECHANGE@@YAXXZ 10001ed0 f   ExControl:StdAfx.obj
 0001:00000ef0       ??__ERMSG_GETPCTRDATA@@YAXXZ 10001ef0 f   ExControl:StdAfx.obj
 0001:00000f10       ??__ERMSG_INTERFACE@@YAXXZ 10001f10 f   ExControl:StdAfx.obj
 0001:00000f30       ??__ERMSG_LBTNDBLCLICK@@YAXXZ 10001f30 f   ExControl:StdAfx.obj
 0001:00000f50       ??__ERMSG_LBTNDOWN@@YAXXZ  10001f50 f   ExControl:StdAfx.obj
 0001:00000f70       ??__ERMSG_LSHAREDCHANGED@@YAXXZ 10001f70 f   ExControl:StdAfx.obj
 0001:00000f90       ??__ERMSG_SETPCTRDATA@@YAXXZ 10001f90 f   ExControl:StdAfx.obj
 0001:00000fb0       ??__ERMSG_TABSTOP@@YAXXZ   10001fb0 f   ExControl:StdAfx.obj
 0001:00000fd0       ??__E_AtlComModule@ATL@@YAXXZ 10001fd0 f   ExControl:StdAfx.obj
 0001:00001030       ??__E_AtlWinModule@ATL@@YAXXZ 10002030 f   ExControl:StdAfx.obj
 0001:00001080       ??__Em_arPermanentHandle@@YAXXZ 10002080 f   ExControl:StdAfx.obj
 0001:0000108c       ??__E?isInitialized@CAtlStringMgr@ATL@@0_NA@@YAXXZ 1000208c f   mfcs140:nolib.obj
 0001:000010a0       ??__EInitializeCAtlStringMgr@ATLImplementationDetails@ATL@@YAXXZ 100020a0 f   mfcs140:nolib.obj
 0001:000010a5       ??__E_AtlComModule@ATL@@YAXXZ 100020a5 f   mfcs140:nolib.obj
 0001:000010bb       ??__E_AtlWinModule@ATL@@YAXXZ 100020bb f   mfcs140:nolib.obj
 0001:000010d1       ??__E?isInitialized@CAtlStringMgr@ATL@@0_NA@@YAXXZ 100020d1 f   mfcs140:stdafx.obj
 0001:000010e5       ??__EInitializeCAtlStringMgr@ATLImplementationDetails@ATL@@YAXXZ 100020e5 f   mfcs140:stdafx.obj
 0001:000010ea       ??__E_AtlComModule@ATL@@YAXXZ 100020ea f   mfcs140:stdafx.obj
 0001:00001100       ??__E_AtlWinModule@ATL@@YAXXZ 10002100 f   mfcs140:stdafx.obj
 0001:00001116       ??__E_AtlBaseModule@ATL@@YAXXZ 10002116 f   atls:atlbase.obj
 0001:00001b9f       __catch$??1CGdiObject@@UAE@XZ$0 10002b9f f i STGfxOutBarCtrl.obj
 0001:00009b70       ?AfxGetPctrData@@YGJH@Z    1000ab70 f   _STLoadmanager.obj
 0001:0000c664       $LN53                      1000d664     _STLoadmanager.obj
 0001:0000c670       $LN52                      1000d670     _STLoadmanager.obj
 0001:0000db68       $LN12                      1000eb68     XHeaderCtrl.obj
 0001:00011e68       $LN12                      10012e68     LogicEditCtrl.obj
 0001:00011e78       $LN11                      10012e78     LogicEditCtrl.obj
 0001:0001c544       $LN53                      1001d544     DlgStrategyList.obj
 0001:0001c580       $LN52                      1001d580     DlgStrategyList.obj
 0001:0002239d       __catch$?Draw@CGridCellBase@@UAEHPAVCDC@@HHVCRect@@H@Z$0 1002339d f   GridCellBase.obj
 0001:00024011       __catch$??1CWaitCursor@@QAE@XZ$0 10025011 f i GridCtrl.obj
 0001:00024f60       __catch$?Create@CGridCtrl@@QAEHABUtagRECT@@PAVCWnd@@IK@Z$0 10025f60 f   GridCtrl.obj
 0001:00028624       __catch$?InsertColumn@CGridCtrl@@QAEHPBDIH@Z$0 10029624 f   GridCtrl.obj
 0001:00028952       __catch$?InsertRow@CGridCtrl@@QAEHPBDH@Z$0 10029952 f   GridCtrl.obj
 0001:00029352       __catch$?Load@CGridCtrl@@QAEHPBDD@Z$0 1002a352 f   GridCtrl.obj
 0001:0002aa30       $LN23                      1002ba30     GridCtrl.obj
 0001:0002aa38       $LN22                      1002ba38     GridCtrl.obj
 0001:0002aee0       $LN119                     1002bee0     GridCtrl.obj
 0001:0002b76c       $LN373                     1002c76c     GridCtrl.obj
 0001:0002b780       $LN372                     1002c780     GridCtrl.obj
 0001:0002b7ac       $LN375                     1002c7ac     GridCtrl.obj
 0001:0002b7c4       $LN374                     1002c7c4     GridCtrl.obj
 0001:0002cbe4       $LN114                     1002dbe4     GridCtrl.obj
 0001:0002cbf8       $LN113                     1002dbf8     GridCtrl.obj
 0001:0002d674       $LN28                      1002e674     GridCtrl.obj
 0001:0002e0e0       $LN121                     1002f0e0     GridCtrl.obj
 0001:000301cf       __catch$?Save@CGridCtrl@@QAEHPBDD@Z$0 100311cf f   GridCtrl.obj
 0001:00030e80       __catch$?SetColumnCount@CGridCtrl@@QAEHH@Z$0 10031e80 f   GridCtrl.obj
 0001:0003216a       __catch$?SetRowCount@CGridCtrl@@QAEHH@Z$0 1003316a f   GridCtrl.obj
 0001:00033900       $LN64                      10034900     InPlaceEdit.obj
 0001:00033910       $LN63                      10034910     InPlaceEdit.obj
 0001:000348e0       ?AfxGetPctrData@@YGJH@Z    100358e0 f   HWStrategyConfigureWizard.obj
 0001:0003952a       ?ArrayUnwindFilter@@YAHPAU_EXCEPTION_POINTERS@@@Z 1003a52a f   msvcrt:ehvecdtr.obj
 0001:00039604       ?find_pe_section@@YAPAU_IMAGE_SECTION_HEADER@@QAEI@Z 1003a604 f   msvcrt:utility.obj
 0001:0003964d       ?is_potentially_valid_image_base@@YA_NQAX@Z 1003a64d f   msvcrt:utility.obj
 0001:00039981       ?__scrt_initialize_thread_safe_statics@@YAHXZ 1003a981 f   msvcrt:thread_safe_statics.obj
 0001:000399a8       ?__scrt_initialize_thread_safe_statics_platform_specific@@YAXXZ 1003a9a8 f   msvcrt:thread_safe_statics.obj
 0001:00039a2a       ?__scrt_uninitialize_thread_safe_statics@@YAXXZ 1003aa2a f   msvcrt:thread_safe_statics.obj
 0001:00039ba2       ?dllmain_crt_dispatch@@YGHQAUHINSTANCE__@@KQAX@Z 1003aba2 f   msvcrt:dll_dllmain.obj
 0001:00039bf5       ?dllmain_crt_process_attach@@YAHQAUHINSTANCE__@@QAX@Z 1003abf5 f   msvcrt:dll_dllmain.obj
 0001:00039cfc       ?dllmain_crt_process_detach@@YAH_N@Z 1003acfc f   msvcrt:dll_dllmain.obj
 0001:00039dac       ?dllmain_dispatch@@YAHQAUHINSTANCE__@@KQAX@Z 1003adac f   msvcrt:dll_dllmain.obj
 0001:00039eb7       ?dllmain_raw@@YGHQAUHINSTANCE__@@KQAX@Z 1003aeb7 f   msvcrt:dll_dllmain.obj
 0001:0003a020       $$000000                   1003b020     msvcrt:sehprolg4.obj
 0001:0003a070       $$000000                   1003b070     msvcrt:sehprolg4.obj
 0001:0003a090       $$000000                   1003b090     msvcrt:sehprolg4gs.obj
 0001:0003a0e0       $$000000                   1003b0e0     msvcrt:sehprolg4gs.obj
 0001:0003a1ab       ___castguard_compat_check  1003b1ab f   msvcrt:guard_support.obj
 0001:0003a273       ___castguard_slow_path_compat_check 1003b273 f   msvcrt:guard_support.obj
 0001:0003a996       ___get_entropy             1003b996 f   msvcrt:gs_support.obj
 0001:0003b294       _memmove_s                 1003c294 f   atls:atlbase.obj
 0001:0003b520       __ehhandler$??1CDllSTLoader@@UAE@XZ 1003c520 f   DllSTLoader.obj
 0001:0003b540       __ehhandler$??_GCDllSTLoader@@UAEPAXI@Z 1003c540 f   DllSTLoader.obj
 0001:0003b560       __unwindfunclet$?GetInput@CDllSTLoader@@QAE?AV?$CStringT@DV?$StrTraitMFC_DLL@DV?$ChTraitsCRT@D@ATL@@@@@ATL@@J@Z$1 1003c560 f   DllSTLoader.obj
 0001:0003b56e       __ehhandler$?GetInput@CDllSTLoader@@QAE?AV?$CStringT@DV?$StrTraitMFC_DLL@DV?$ChTraitsCRT@D@ATL@@@@@ATL@@J@Z 1003c56e f   DllSTLoader.obj
 0001:0003b590       __unwindfunclet$??0CBarFolder@CSTGfxOutBarCtrl@@QAE@PBDK@Z$0 1003c590 f   STGfxOutBarCtrl.obj
 0001:0003b5a0       __ehhandler$??0CBarFolder@CSTGfxOutBarCtrl@@QAE@PBDK@Z 1003c5a0 f   STGfxOutBarCtrl.obj
 0001:0003b5c0       __unwindfunclet$??0CSTGfxOutBarCtrl@@QAE@XZ$0 1003c5c0 f   STGfxOutBarCtrl.obj
 0001:0003b5c8       __unwindfunclet$??0CSTGfxOutBarCtrl@@QAE@XZ$1 1003c5c8 f   STGfxOutBarCtrl.obj
 0001:0003b5d6       __unwindfunclet$??0CSTGfxOutBarCtrl@@QAE@XZ$2 1003c5d6 f   STGfxOutBarCtrl.obj
 0001:0003b5e4       __unwindfunclet$??0CSTGfxOutBarCtrl@@QAE@XZ$3 1003c5e4 f   STGfxOutBarCtrl.obj
 0001:0003b5f3       __ehhandler$??0CSTGfxOutBarCtrl@@QAE@XZ 1003c5f3 f   STGfxOutBarCtrl.obj
 0001:0003b610       __ehhandler$??1CBarFolder@CSTGfxOutBarCtrl@@UAE@XZ 1003c610 f   STGfxOutBarCtrl.obj
 0001:0003b630       __unwindfunclet$??1CGdiObject@@UAE@XZ$2 1003c630 f   STGfxOutBarCtrl.obj
 0001:0003b641       __ehhandler$??1CGdiObject@@UAE@XZ 1003c641 f   STGfxOutBarCtrl.obj
 0001:0003b670       __ehhandler$??1CSTGfxOutBarCtrl@@UAE@XZ 1003c670 f   STGfxOutBarCtrl.obj
 0001:0003b690       __ehhandler$??_GCBarFolder@CSTGfxOutBarCtrl@@UAEPAXI@Z 1003c690 f   STGfxOutBarCtrl.obj
 0001:0003b6b0       __unwindfunclet$?AddFolder@CSTGfxOutBarCtrl@@QAEHPBDK@Z$0 1003c6b0 f   STGfxOutBarCtrl.obj
 0001:0003b6bf       __unwindfunclet$?AddFolder@CSTGfxOutBarCtrl@@QAEHPBDK@Z$1 1003c6bf f   STGfxOutBarCtrl.obj
 0001:0003b6cf       __ehhandler$?AddFolder@CSTGfxOutBarCtrl@@QAEHPBDK@Z 1003c6cf f   STGfxOutBarCtrl.obj
 0001:0003b6f0       __unwindfunclet$?AddFolderBar@CSTGfxOutBarCtrl@@QAEHPBDPAVCWnd@@K@Z$0 1003c6f0 f   STGfxOutBarCtrl.obj
 0001:0003b6ff       __unwindfunclet$?AddFolderBar@CSTGfxOutBarCtrl@@QAEHPBDPAVCWnd@@K@Z$1 1003c6ff f   STGfxOutBarCtrl.obj
 0001:0003b70f       __ehhandler$?AddFolderBar@CSTGfxOutBarCtrl@@QAEHPBDPAVCWnd@@K@Z 1003c70f f   STGfxOutBarCtrl.obj
 0001:0003b730       __unwindfunclet$?AnimateFolderScroll@CSTGfxOutBarCtrl@@QAEXHH@Z$0 1003c730 f   STGfxOutBarCtrl.obj
 0001:0003b73b       __unwindfunclet$?AnimateFolderScroll@CSTGfxOutBarCtrl@@QAEXHH@Z$1 1003c73b f   STGfxOutBarCtrl.obj
 0001:0003b743       __unwindfunclet$?AnimateFolderScroll@CSTGfxOutBarCtrl@@QAEXHH@Z$2 1003c743 f   STGfxOutBarCtrl.obj
 0001:0003b74e       __unwindfunclet$?AnimateFolderScroll@CSTGfxOutBarCtrl@@QAEXHH@Z$3 1003c74e f   STGfxOutBarCtrl.obj
 0001:0003b75e       __ehhandler$?AnimateFolderScroll@CSTGfxOutBarCtrl@@QAEXHH@Z 1003c75e f   STGfxOutBarCtrl.obj
 0001:0003b790       __unwindfunclet$?CreateObject@CSTGfxOutBarCtrl@@SGPAVCObject@@XZ$0 1003c790 f   STGfxOutBarCtrl.obj
 0001:0003b79f       __ehhandler$?CreateObject@CSTGfxOutBarCtrl@@SGPAVCObject@@XZ 1003c79f f   STGfxOutBarCtrl.obj
 0001:0003b7c0       __unwindfunclet$?DrawAnimItem@CSTGfxOutBarCtrl@@QAEXHHH@Z$0 1003c7c0 f   STGfxOutBarCtrl.obj
 0001:0003b7d0       __ehhandler$?DrawAnimItem@CSTGfxOutBarCtrl@@QAEXHHH@Z 1003c7d0 f   STGfxOutBarCtrl.obj
 0001:0003b800       __unwindfunclet$?DrawFolder@CSTGfxOutBarCtrl@@IAEXPAVCDC@@HVCRect@@_N@Z$0 1003c800 f   STGfxOutBarCtrl.obj
 0001:0003b80b       __unwindfunclet$?DrawFolder@CSTGfxOutBarCtrl@@IAEXPAVCDC@@HVCRect@@_N@Z$1 1003c80b f   STGfxOutBarCtrl.obj
 0001:0003b817       __unwindfunclet$?DrawFolder@CSTGfxOutBarCtrl@@IAEXPAVCDC@@HVCRect@@_N@Z$2 1003c817 f   STGfxOutBarCtrl.obj
 0001:0003b823       __unwindfunclet$?DrawFolder@CSTGfxOutBarCtrl@@IAEXPAVCDC@@HVCRect@@_N@Z$3 1003c823 f   STGfxOutBarCtrl.obj
 0001:0003b82e       __unwindfunclet$?DrawFolder@CSTGfxOutBarCtrl@@IAEXPAVCDC@@HVCRect@@_N@Z$4 1003c82e f   STGfxOutBarCtrl.obj
 0001:0003b839       __unwindfunclet$?DrawFolder@CSTGfxOutBarCtrl@@IAEXPAVCDC@@HVCRect@@_N@Z$5 1003c839 f   STGfxOutBarCtrl.obj
 0001:0003b845       __unwindfunclet$?DrawFolder@CSTGfxOutBarCtrl@@IAEXPAVCDC@@HVCRect@@_N@Z$6 1003c845 f   STGfxOutBarCtrl.obj
 0001:0003b850       __unwindfunclet$?DrawFolder@CSTGfxOutBarCtrl@@IAEXPAVCDC@@HVCRect@@_N@Z$7 1003c850 f   STGfxOutBarCtrl.obj
 0001:0003b861       __ehhandler$?DrawFolder@CSTGfxOutBarCtrl@@IAEXPAVCDC@@HVCRect@@_N@Z 1003c861 f   STGfxOutBarCtrl.obj
 0001:0003b890       __unwindfunclet$?DrawItem@CSTGfxOutBarCtrl@@QAEXPAVCDC@@HVCRect@@H_N@Z$0 1003c890 f   STGfxOutBarCtrl.obj
 0001:0003b89e       __ehhandler$?DrawItem@CSTGfxOutBarCtrl@@QAEXPAVCDC@@HVCRect@@H_N@Z 1003c89e f   STGfxOutBarCtrl.obj
 0001:0003b8d0       __unwindfunclet$?GetItemSize@CSTGfxOutBarCtrl@@QAE?AVCSize@@HHH@Z$0 1003c8d0 f   STGfxOutBarCtrl.obj
 0001:0003b8dd       __ehhandler$?GetItemSize@CSTGfxOutBarCtrl@@QAE?AVCSize@@HHH@Z 1003c8dd f   STGfxOutBarCtrl.obj
 0001:0003b910       __unwindfunclet$?GetItemText@CSTGfxOutBarCtrl@@QAE?AV?$CStringT@DV?$StrTraitMFC_DLL@DV?$ChTraitsCRT@D@ATL@@@@@ATL@@H@Z$0 1003c910 f   STGfxOutBarCtrl.obj
 0001:0003b92f       __ehhandler$?GetItemText@CSTGfxOutBarCtrl@@QAE?AV?$CStringT@DV?$StrTraitMFC_DLL@DV?$ChTraitsCRT@D@ATL@@@@@ATL@@H@Z 1003c92f f   STGfxOutBarCtrl.obj
 0001:0003b950       __unwindfunclet$?HighlightFolder@CSTGfxOutBarCtrl@@QAEXH@Z$0 1003c950 f   STGfxOutBarCtrl.obj
 0001:0003b958       __unwindfunclet$?HighlightFolder@CSTGfxOutBarCtrl@@QAEXH@Z$1 1003c958 f   STGfxOutBarCtrl.obj
 0001:0003b960       __unwindfunclet$?HighlightFolder@CSTGfxOutBarCtrl@@QAEXH@Z$2 1003c960 f   STGfxOutBarCtrl.obj
 0001:0003b968       __unwindfunclet$?HighlightFolder@CSTGfxOutBarCtrl@@QAEXH@Z$3 1003c968 f   STGfxOutBarCtrl.obj
 0001:0003b970       __unwindfunclet$?HighlightFolder@CSTGfxOutBarCtrl@@QAEXH@Z$4 1003c970 f   STGfxOutBarCtrl.obj
 0001:0003b97d       __ehhandler$?HighlightFolder@CSTGfxOutBarCtrl@@QAEXH@Z 1003c97d f   STGfxOutBarCtrl.obj
 0001:0003b9b0       __unwindfunclet$?HighlightItem@CSTGfxOutBarCtrl@@QAEXH_N@Z$0 1003c9b0 f   STGfxOutBarCtrl.obj
 0001:0003b9b8       __unwindfunclet$?HighlightItem@CSTGfxOutBarCtrl@@QAEXH_N@Z$1 1003c9b8 f   STGfxOutBarCtrl.obj
 0001:0003b9c5       __ehhandler$?HighlightItem@CSTGfxOutBarCtrl@@QAEXH_N@Z 1003c9c5 f   STGfxOutBarCtrl.obj
 0001:0003b9f0       __unwindfunclet$?InsertItem@CBarFolder@CSTGfxOutBarCtrl@@QAEHHPBDHK@Z$0 1003c9f0 f   STGfxOutBarCtrl.obj
 0001:0003ba04       __ehhandler$?InsertItem@CBarFolder@CSTGfxOutBarCtrl@@QAEHHPBDHK@Z 1003ca04 f   STGfxOutBarCtrl.obj
 0001:0003ba30       __unwindfunclet$?InsertItem@CSTGfxOutBarCtrl@@QAEHHHPBDHK@Z$0 1003ca30 f   STGfxOutBarCtrl.obj
 0001:0003ba44       __ehhandler$?InsertItem@CSTGfxOutBarCtrl@@QAEHHHPBDHK@Z 1003ca44 f   STGfxOutBarCtrl.obj
 0001:0003ba70       __unwindfunclet$?OnLButtonDown@CSTGfxOutBarCtrl@@IAEXIVCPoint@@@Z$6 1003ca70 f   STGfxOutBarCtrl.obj
 0001:0003ba7b       __unwindfunclet$?OnLButtonDown@CSTGfxOutBarCtrl@@IAEXIVCPoint@@@Z$7 1003ca7b f   STGfxOutBarCtrl.obj
 0001:0003ba86       __unwindfunclet$?OnLButtonDown@CSTGfxOutBarCtrl@@IAEXIVCPoint@@@Z$8 1003ca86 f   STGfxOutBarCtrl.obj
 0001:0003ba91       __unwindfunclet$?OnLButtonDown@CSTGfxOutBarCtrl@@IAEXIVCPoint@@@Z$9 1003ca91 f   STGfxOutBarCtrl.obj
 0001:0003baa1       __ehhandler$?OnLButtonDown@CSTGfxOutBarCtrl@@IAEXIVCPoint@@@Z 1003caa1 f   STGfxOutBarCtrl.obj
 0001:0003bad0       __unwindfunclet$?OnPaint@CSTGfxOutBarCtrl@@IAEXXZ$0 1003cad0 f   STGfxOutBarCtrl.obj
 0001:0003badb       __unwindfunclet$?OnPaint@CSTGfxOutBarCtrl@@IAEXXZ$1 1003cadb f   STGfxOutBarCtrl.obj
 0001:0003bae6       __unwindfunclet$?OnPaint@CSTGfxOutBarCtrl@@IAEXXZ$2 1003cae6 f   STGfxOutBarCtrl.obj
 0001:0003baf6       __ehhandler$?OnPaint@CSTGfxOutBarCtrl@@IAEXXZ 1003caf6 f   STGfxOutBarCtrl.obj
 0001:0003bb20       __unwindfunclet$?PaintItems@CSTGfxOutBarCtrl@@QAEXPAVCDC@@HVCRect@@@Z$0 1003cb20 f   STGfxOutBarCtrl.obj
 0001:0003bb2d       __ehhandler$?PaintItems@CSTGfxOutBarCtrl@@QAEXPAVCDC@@HVCRect@@@Z 1003cb2d f   STGfxOutBarCtrl.obj
 0001:0003bb60       __unwindfunclet$??0CSTListCtrl@@QAE@XZ$0 1003cb60 f   STListCtrl.obj
 0001:0003bb68       __unwindfunclet$??0CSTListCtrl@@QAE@XZ$1 1003cb68 f   STListCtrl.obj
 0001:0003bb77       __unwindfunclet$??0CSTListCtrl@@QAE@XZ$2 1003cb77 f   STListCtrl.obj
 0001:0003bb86       __unwindfunclet$??0CSTListCtrl@@QAE@XZ$3 1003cb86 f   STListCtrl.obj
 0001:0003bb94       __unwindfunclet$??0CSTListCtrl@@QAE@XZ$4 1003cb94 f   STListCtrl.obj
 0001:0003bba8       __ehhandler$??0CSTListCtrl@@QAE@XZ 1003cba8 f   STListCtrl.obj
 0001:0003bbd0       __ehhandler$??1CMenu@@UAE@XZ 1003cbd0 f   STListCtrl.obj
 0001:0003bbf0       __ehhandler$??1CSTListCtrl@@UAE@XZ 1003cbf0 f   STListCtrl.obj
 0001:0003bc10       __ehhandler$??_GCMenu@@UAEPAXI@Z 1003cc10 f   STListCtrl.obj
 0001:0003bc30       __ehhandler$??_GCSTListCtrl@@UAEPAXI@Z 1003cc30 f   STListCtrl.obj
 0001:0003bc50       __unwindfunclet$?InitFont@CSTListCtrl@@QAEXH@Z$0 1003cc50 f   STListCtrl.obj
 0001:0003bc5d       __ehhandler$?InitFont@CSTListCtrl@@QAEXH@Z 1003cc5d f   STListCtrl.obj
 0001:0003bc80       __unwindfunclet$?OnNMClk@CSTListCtrl@@QAEXPAUtagNMHDR@@PAJ@Z$0 1003cc80 f   STListCtrl.obj
 0001:0003bc89       __unwindfunclet$?OnNMClk@CSTListCtrl@@QAEXPAUtagNMHDR@@PAJ@Z$1 1003cc89 f   STListCtrl.obj
 0001:0003bc96       __ehhandler$?OnNMClk@CSTListCtrl@@QAEXPAUtagNMHDR@@PAJ@Z 1003cc96 f   STListCtrl.obj
 0001:0003bcc0       __unwindfunclet$?OnNMDblclk@CSTListCtrl@@QAEXPAUtagNMHDR@@PAJ@Z$0 1003ccc0 f   STListCtrl.obj
 0001:0003bcc9       __unwindfunclet$?OnNMDblclk@CSTListCtrl@@QAEXPAUtagNMHDR@@PAJ@Z$1 1003ccc9 f   STListCtrl.obj
 0001:0003bcd6       __ehhandler$?OnNMDblclk@CSTListCtrl@@QAEXPAUtagNMHDR@@PAJ@Z 1003ccd6 f   STListCtrl.obj
 0001:0003bd00       __unwindfunclet$?OnNMRclick@CSTListCtrl@@QAEXPAUtagNMHDR@@PAJ@Z$0 1003cd00 f   STListCtrl.obj
 0001:0003bd08       __unwindfunclet$?OnNMRclick@CSTListCtrl@@QAEXPAUtagNMHDR@@PAJ@Z$1 1003cd08 f   STListCtrl.obj
 0001:0003bd11       __unwindfunclet$?OnNMRclick@CSTListCtrl@@QAEXPAUtagNMHDR@@PAJ@Z$2 1003cd11 f   STListCtrl.obj
 0001:0003bd19       __unwindfunclet$?OnNMRclick@CSTListCtrl@@QAEXPAUtagNMHDR@@PAJ@Z$6 1003cd19 f   STListCtrl.obj
 0001:0003bd22       __unwindfunclet$?OnNMRclick@CSTListCtrl@@QAEXPAUtagNMHDR@@PAJ@Z$3 1003cd22 f   STListCtrl.obj
 0001:0003bd2b       __unwindfunclet$?OnNMRclick@CSTListCtrl@@QAEXPAUtagNMHDR@@PAJ@Z$4 1003cd2b f   STListCtrl.obj
 0001:0003bd39       __ehhandler$?OnNMRclick@CSTListCtrl@@QAEXPAUtagNMHDR@@PAJ@Z 1003cd39 f   STListCtrl.obj
 0001:0003bd60       __unwindfunclet$?GetSTFolderList@CLoadSTFile@@SAHPBDAAVCStringArray@@@Z$0 1003cd60 f   STTreeCtrl.obj
 0001:0003bd6c       __unwindfunclet$?GetSTFolderList@CLoadSTFile@@SAHPBDAAVCStringArray@@@Z$1 1003cd6c f   STTreeCtrl.obj
 0001:0003bd77       __unwindfunclet$?GetSTFolderList@CLoadSTFile@@SAHPBDAAVCStringArray@@@Z$2 1003cd77 f   STTreeCtrl.obj
 0001:0003bd88       __ehhandler$?GetSTFolderList@CLoadSTFile@@SAHPBDAAVCStringArray@@@Z 1003cd88 f   STTreeCtrl.obj
 0001:0003bdc0       __unwindfunclet$?LoadSTFolderList@CSTTreeCtrl@@UAEXPAU_TREEITEM@@PBDPAUSTTREEFOLDER_INFO@@H@Z$0 1003cdc0 f   STTreeCtrl.obj
 0001:0003bdcb       __unwindfunclet$?LoadSTFolderList@CSTTreeCtrl@@UAEXPAU_TREEITEM@@PBDPAUSTTREEFOLDER_INFO@@H@Z$4 1003cdcb f   STTreeCtrl.obj
 0001:0003bdd7       __unwindfunclet$?LoadSTFolderList@CSTTreeCtrl@@UAEXPAU_TREEITEM@@PBDPAUSTTREEFOLDER_INFO@@H@Z$5 1003cdd7 f   STTreeCtrl.obj
 0001:0003bde2       __unwindfunclet$?LoadSTFolderList@CSTTreeCtrl@@UAEXPAU_TREEITEM@@PBDPAUSTTREEFOLDER_INFO@@H@Z$6 1003cde2 f   STTreeCtrl.obj
 0001:0003bdee       __unwindfunclet$?LoadSTFolderList@CSTTreeCtrl@@UAEXPAU_TREEITEM@@PBDPAUSTTREEFOLDER_INFO@@H@Z$7 1003cdee f   STTreeCtrl.obj
 0001:0003bdfa       __unwindfunclet$?LoadSTFolderList@CSTTreeCtrl@@UAEXPAU_TREEITEM@@PBDPAUSTTREEFOLDER_INFO@@H@Z$1 1003cdfa f   STTreeCtrl.obj
 0001:0003be06       __unwindfunclet$?LoadSTFolderList@CSTTreeCtrl@@UAEXPAU_TREEITEM@@PBDPAUSTTREEFOLDER_INFO@@H@Z$2 1003ce06 f   STTreeCtrl.obj
 0001:0003be12       __unwindfunclet$?LoadSTFolderList@CSTTreeCtrl@@UAEXPAU_TREEITEM@@PBDPAUSTTREEFOLDER_INFO@@H@Z$3 1003ce12 f   STTreeCtrl.obj
 0001:0003be23       __ehhandler$?LoadSTFolderList@CSTTreeCtrl@@UAEXPAU_TREEITEM@@PBDPAUSTTREEFOLDER_INFO@@H@Z 1003ce23 f   STTreeCtrl.obj
 0001:0003be50       __unwindfunclet$?LoadSTTree@CSTBasicTree@@UAEXXZ$0 1003ce50 f   STTreeCtrl.obj
 0001:0003be59       __unwindfunclet$?LoadSTTree@CSTBasicTree@@UAEXXZ$1 1003ce59 f   STTreeCtrl.obj
 0001:0003be66       __ehhandler$?LoadSTTree@CSTBasicTree@@UAEXXZ 1003ce66 f   STTreeCtrl.obj
 0001:0003be90       __unwindfunclet$?LoadSTTree@CSTExtTree@@UAEXXZ$0 1003ce90 f   STTreeCtrl.obj
 0001:0003be99       __unwindfunclet$?LoadSTTree@CSTExtTree@@UAEXXZ$1 1003ce99 f   STTreeCtrl.obj
 0001:0003bea6       __ehhandler$?LoadSTTree@CSTExtTree@@UAEXXZ 1003cea6 f   STTreeCtrl.obj
 0001:0003bed0       __unwindfunclet$?OnDblclk@CSTTreeCtrl@@IAEXPAUtagNMHDR@@PAJ@Z$0 1003ced0 f   STTreeCtrl.obj
 0001:0003bed8       __unwindfunclet$?OnDblclk@CSTTreeCtrl@@IAEXPAUtagNMHDR@@PAJ@Z$1 1003ced8 f   STTreeCtrl.obj
 0001:0003bee6       __ehhandler$?OnDblclk@CSTTreeCtrl@@IAEXPAUtagNMHDR@@PAJ@Z 1003cee6 f   STTreeCtrl.obj
 0001:0003bf10       __unwindfunclet$?OnLButtonDown@CSTTreeCtrl@@IAEXIVCPoint@@@Z$0 1003cf10 f   STTreeCtrl.obj
 0001:0003bf18       __unwindfunclet$?OnLButtonDown@CSTTreeCtrl@@IAEXIVCPoint@@@Z$1 1003cf18 f   STTreeCtrl.obj
 0001:0003bf26       __ehhandler$?OnLButtonDown@CSTTreeCtrl@@IAEXIVCPoint@@@Z 1003cf26 f   STTreeCtrl.obj
 0001:0003bf50       __unwindfunclet$?SearchFolderItem@CSTTreeCtrl@@UAEPAU_TREEITEM@@PBD@Z$0 1003cf50 f   STTreeCtrl.obj
 0001:0003bf59       __unwindfunclet$?SearchFolderItem@CSTTreeCtrl@@UAEPAU_TREEITEM@@PBD@Z$1 1003cf59 f   STTreeCtrl.obj
 0001:0003bf67       __ehhandler$?SearchFolderItem@CSTTreeCtrl@@UAEPAU_TREEITEM@@PBD@Z 1003cf67 f   STTreeCtrl.obj
 0001:0003bf90       __unwindfunclet$?SearchItem@CSTTreeCtrl@@UAEPAU_TREEITEM@@PAU2@PBD@Z$0 1003cf90 f   STTreeCtrl.obj
 0001:0003bf99       __unwindfunclet$?SearchItem@CSTTreeCtrl@@UAEPAU_TREEITEM@@PAU2@PBD@Z$1 1003cf99 f   STTreeCtrl.obj
 0001:0003bfa7       __ehhandler$?SearchItem@CSTTreeCtrl@@UAEPAU_TREEITEM@@PAU2@PBD@Z 1003cfa7 f   STTreeCtrl.obj
 0001:0003bfd0       __ehhandler$??1?$CList@PAUSTFILEITEM@@PAU1@@@UAE@XZ 1003cfd0 f   _STLoadmanager.obj
 0001:0003bff0       __ehhandler$??_G?$CList@PAUSTFILEITEM@@PAU1@@@UAEPAXI@Z 1003cff0 f   _STLoadmanager.obj
 0001:0003c010       __unwindfunclet$?AddFolder@CSTLoadManager@@IAEXPBD0@Z$0 1003d010 f   _STLoadmanager.obj
 0001:0003c019       __unwindfunclet$?AddFolder@CSTLoadManager@@IAEXPBD0@Z$1 1003d019 f   _STLoadmanager.obj
 0001:0003c023       __unwindfunclet$?AddFolder@CSTLoadManager@@IAEXPBD0@Z$2 1003d023 f   _STLoadmanager.obj
 0001:0003c031       __ehhandler$?AddFolder@CSTLoadManager@@IAEXPBD0@Z 1003d031 f   _STLoadmanager.obj
 0001:0003c060       __unwindfunclet$?AddSTFile@CSTLoadManager@@IAEXPBD0@Z$0 1003d060 f   _STLoadmanager.obj
 0001:0003c069       __unwindfunclet$?AddSTFile@CSTLoadManager@@IAEXPBD0@Z$1 1003d069 f   _STLoadmanager.obj
 0001:0003c072       __unwindfunclet$?AddSTFile@CSTLoadManager@@IAEXPBD0@Z$2 1003d072 f   _STLoadmanager.obj
 0001:0003c07b       __unwindfunclet$?AddSTFile@CSTLoadManager@@IAEXPBD0@Z$3 1003d07b f   _STLoadmanager.obj
 0001:0003c084       __unwindfunclet$?AddSTFile@CSTLoadManager@@IAEXPBD0@Z$4 1003d084 f   _STLoadmanager.obj
 0001:0003c08d       __unwindfunclet$?AddSTFile@CSTLoadManager@@IAEXPBD0@Z$5 1003d08d f   _STLoadmanager.obj
 0001:0003c096       __unwindfunclet$?AddSTFile@CSTLoadManager@@IAEXPBD0@Z$6 1003d096 f   _STLoadmanager.obj
 0001:0003c09f       __unwindfunclet$?AddSTFile@CSTLoadManager@@IAEXPBD0@Z$9 1003d09f f   _STLoadmanager.obj
 0001:0003c0a8       __unwindfunclet$?AddSTFile@CSTLoadManager@@IAEXPBD0@Z$10 1003d0a8 f   _STLoadmanager.obj
 0001:0003c0b1       __unwindfunclet$?AddSTFile@CSTLoadManager@@IAEXPBD0@Z$8 1003d0b1 f   _STLoadmanager.obj
 0001:0003c0bf       __ehhandler$?AddSTFile@CSTLoadManager@@IAEXPBD0@Z 1003d0bf f   _STLoadmanager.obj
 0001:0003c0e0       __unwindfunclet$?AfxGetPctrData@@YGJH@Z$0 1003d0e0 f   _STLoadmanager.obj
 0001:0003c0ee       __ehhandler$?AfxGetPctrData@@YGJH@Z 1003d0ee f   _STLoadmanager.obj
 0001:0003c120       __unwindfunclet$?DeleteSTFile@CSTLoadManager@@QAEXHV?$CStringT@DV?$StrTraitMFC_DLL@DV?$ChTraitsCRT@D@ATL@@@@@ATL@@@Z$0 1003d120 f   _STLoadmanager.obj
 0001:0003c129       __unwindfunclet$?DeleteSTFile@CSTLoadManager@@QAEXHV?$CStringT@DV?$StrTraitMFC_DLL@DV?$ChTraitsCRT@D@ATL@@@@@ATL@@@Z$1 1003d129 f   _STLoadmanager.obj
 0001:0003c132       __unwindfunclet$?DeleteSTFile@CSTLoadManager@@QAEXHV?$CStringT@DV?$StrTraitMFC_DLL@DV?$ChTraitsCRT@D@ATL@@@@@ATL@@@Z$2 1003d132 f   _STLoadmanager.obj
 0001:0003c13b       __unwindfunclet$?DeleteSTFile@CSTLoadManager@@QAEXHV?$CStringT@DV?$StrTraitMFC_DLL@DV?$ChTraitsCRT@D@ATL@@@@@ATL@@@Z$3 1003d13b f   _STLoadmanager.obj
 0001:0003c144       __unwindfunclet$?DeleteSTFile@CSTLoadManager@@QAEXHV?$CStringT@DV?$StrTraitMFC_DLL@DV?$ChTraitsCRT@D@ATL@@@@@ATL@@@Z$4 1003d144 f   _STLoadmanager.obj
 0001:0003c152       __ehhandler$?DeleteSTFile@CSTLoadManager@@QAEXHV?$CStringT@DV?$StrTraitMFC_DLL@DV?$ChTraitsCRT@D@ATL@@@@@ATL@@@Z 1003d152 f   _STLoadmanager.obj
 0001:0003c170       __unwindfunclet$?DirectorySearch@CSTLoadManager@@IAEHPBD0H@Z$0 1003d170 f   _STLoadmanager.obj
 0001:0003c17c       __unwindfunclet$?DirectorySearch@CSTLoadManager@@IAEHPBD0H@Z$1 1003d17c f   _STLoadmanager.obj
 0001:0003c187       __unwindfunclet$?DirectorySearch@CSTLoadManager@@IAEHPBD0H@Z$2 1003d187 f   _STLoadmanager.obj
 0001:0003c193       __unwindfunclet$?DirectorySearch@CSTLoadManager@@IAEHPBD0H@Z$3 1003d193 f   _STLoadmanager.obj
 0001:0003c19f       __unwindfunclet$?DirectorySearch@CSTLoadManager@@IAEHPBD0H@Z$4 1003d19f f   _STLoadmanager.obj
 0001:0003c1ab       __unwindfunclet$?DirectorySearch@CSTLoadManager@@IAEHPBD0H@Z$5 1003d1ab f   _STLoadmanager.obj
 0001:0003c1b7       __unwindfunclet$?DirectorySearch@CSTLoadManager@@IAEHPBD0H@Z$6 1003d1b7 f   _STLoadmanager.obj
 0001:0003c1c3       __unwindfunclet$?DirectorySearch@CSTLoadManager@@IAEHPBD0H@Z$7 1003d1c3 f   _STLoadmanager.obj
 0001:0003c1d4       __ehhandler$?DirectorySearch@CSTLoadManager@@IAEHPBD0H@Z 1003d1d4 f   _STLoadmanager.obj
 0001:0003c200       __unwindfunclet$?GetFolderIndexFromFolderName@CSTLoadManager@@IAEHV?$CStringT@DV?$StrTraitMFC_DLL@DV?$ChTraitsCRT@D@ATL@@@@@ATL@@@Z$0 1003d200 f   _STLoadmanager.obj
 0001:0003c20e       __ehhandler$?GetFolderIndexFromFolderName@CSTLoadManager@@IAEHV?$CStringT@DV?$StrTraitMFC_DLL@DV?$ChTraitsCRT@D@ATL@@@@@ATL@@@Z 1003d20e f   _STLoadmanager.obj
 0001:0003c230       __unwindfunclet$?GetFolderName@CSTLoadManager@@IAEXV?$CStringT@DV?$StrTraitMFC_DLL@DV?$ChTraitsCRT@D@ATL@@@@@ATL@@AAV23@@Z$0 1003d230 f   _STLoadmanager.obj
