 IndexOptimizer

 Timestamp is 641272d7 (Thu Mar 16 10:37:27 2023)

 Preferred load address is 10000000

 Start         Length     Name                   Class
 0001:00000000 00000af0H .text$di                CODE
 0001:00000af0 00030de0H .text$mn                CODE
 0001:000318d0 000037f0H .text$x                 CODE
 0001:000350c0 00000493H .text$yd                CODE
 0002:00000000 000009f0H .idata$5                DATA
 0002:000009f0 00000008H .00cfg                  DATA
 0002:000009f8 00000004H .CRT$XCA                DATA
 0002:000009fc 00000004H .CRT$XCL                DATA
 0002:00000a00 000000ecH .CRT$XCU                DATA
 0002:00000aec 00000004H .CRT$XCZ                DATA
 0002:00000af0 00000004H .CRT$XIA                DATA
 0002:00000af4 00000004H .CRT$XIC                DATA
 0002:00000af8 00000004H .CRT$XIZ                DATA
 0002:00000afc 00000004H .CRT$XLA                DATA
 0002:00000b00 00000004H .CRT$XLZ                DATA
 0002:00000b04 00000004H .CRT$XPA                DATA
 0002:00000b08 00000004H .CRT$XPZ                DATA
 0002:00000b0c 00000004H .CRT$XTA                DATA
 0002:00000b10 00000010H .CRT$XTZ                DATA
 0002:00000b14 00000000H .gfids$y                DATA
 0002:00000b20 00007e20H .rdata                  DATA
 0002:00008940 00000004H .rdata$CastGuardVftablesA DATA
 0002:00008944 00000004H .rdata$CastGuardVftablesC DATA
 0002:00008948 00000018H .rdata$T                DATA
 0002:00008960 000018acH .rdata$r                DATA
 0002:0000a20c 000002d0H .rdata$sxdata           DATA
 0002:0000a4dc 00000038H .rdata$voltmd           DATA
 0002:0000a514 00000438H .rdata$zzzdbg           DATA
 0002:0000a94c 00000004H .rtc$IAA                DATA
 0002:0000a950 00000004H .rtc$IZZ                DATA
 0002:0000a954 00000004H .rtc$TAA                DATA
 0002:0000a958 00000004H .rtc$TZZ                DATA
 0002:0000a95c 00000004H .tls                    DATA
 0002:0000a960 00000004H .tls$                   DATA
 0002:0000a964 00000004H .tls$ZZZ                DATA
 0002:0000a968 0000300cH .xdata$x                DATA
 0002:0000d974 00000004H ATL$__a                 DATA
 0002:0000d978 00000008H ATL$__z                 DATA
 0002:0000d980 000000d4H .edata                  DATA
 0002:0000da54 00000168H .idata$2                DATA
 0002:0000dbbc 00000014H .idata$3                DATA
 0002:0000dbd0 000009f0H .idata$4                DATA
 0002:0000e5c0 00000eceH .idata$6                DATA
 0003:00000000 000001c4H .data                   DATA
 0003:000001c4 00000084H .data$r                 DATA
 0003:00000248 000009e8H .data$rs                DATA
 0003:00000c30 00000688H .bss                    DATA
 0004:00000000 00000250H .rsrc$01                DATA
 0004:00000250 00003ed0H .rsrc$02                DATA

  Address         Publics by Value              Rva+Base       Lib:Object

 0000:00000000       ___guard_longjmp_table     00000000     <absolute>
 0000:00000000       ___guard_iat_table         00000000     <absolute>
 0000:00000000       ___hybrid_auxiliary_iat    00000000     <absolute>
 0000:00000000       ___dynamic_value_reloc_table 00000000     <absolute>
 0000:00000000       ___x64_code_ranges_to_entry_points_count 00000000     <absolute>
 0000:00000000       ___arm64x_redirection_metadata 00000000     <absolute>
 0000:00000000       ___arm64x_extra_rfe_table  00000000     <absolute>
 0000:00000000       ___arm64x_extra_rfe_table_size 00000000     <absolute>
 0000:00000000       ___hybrid_auxiliary_iat_copy 00000000     <absolute>
 0000:00000000       ___arm64x_redirection_metadata_count 00000000     <absolute>
 0000:00000000       ___hybrid_code_map         00000000     <absolute>
 0000:00000000       ___guard_iat_count         00000000     <absolute>
 0000:00000000       ___guard_eh_cont_table     00000000     <absolute>
 0000:00000000       ___AbsoluteZero            00000000     <absolute>
 0000:00000000       ___hybrid_code_map_count   00000000     <absolute>
 0000:00000000       ___x64_code_ranges_to_entry_points 00000000     <absolute>
 0000:00000000       ___guard_fids_table        00000000     <absolute>
 0000:00000000       ___guard_longjmp_count     00000000     <absolute>
 0000:00000000       ___guard_check_icall_a64n_fptr 00000000     <absolute>
 0000:00000000       ___enclave_config          00000000     <absolute>
 0000:00000000       ___guard_fids_count        00000000     <absolute>
 0000:00000000       ___arm64x_native_entrypoint 00000000     <absolute>
 0000:00000000       ___guard_eh_cont_count     00000000     <absolute>
 0000:0000002c       __tls_array                0000002c     <absolute>
 0000:000000b4       ___safe_se_handler_count   000000b4     <absolute>
 0000:00000100       ___guard_flags             00000100     <absolute>
 0000:00000000       ___ImageBase               10000000     <linker-defined>
 0001:00000af0       ??$SerializeElements@N@@YGXAAVCArchive@@PANH@Z 10001af0 f i DataItem.obj
 0001:00000ba0       ??0?$CArray@NN@@QAE@XZ     10001ba0 f i DataItem.obj
 0001:00000bd0       ??0CSTDataItem@@QAE@XZ     10001bd0 f   DataItem.obj
 0001:00000c80       ??1?$CArray@NN@@UAE@XZ     10001c80 f i DataItem.obj
 0001:00000ca0       ??1CIDataItem0001@@UAE@XZ  10001ca0 f i DataItem.obj
 0001:00000cb0       ??1CObject@@UAE@XZ         10001cb0 f i DataItem.obj
 0001:00000cc0       ??1CSTDataItem@@UAE@XZ     10001cc0 f   DataItem.obj
 0001:00000d10       ??_E?$CArray@NN@@UAEPAXI@Z 10001d10 f i DataItem.obj
 0001:00000d10       ??_G?$CArray@NN@@UAEPAXI@Z 10001d10 f i DataItem.obj
 0001:00000d60       ??_ECIDataItem0001@@UAEPAXI@Z 10001d60 f i DataItem.obj
 0001:00000d60       ??_GCIDataItem0001@@UAEPAXI@Z 10001d60 f i DataItem.obj
 0001:00000d90       ??_ECSTDataItem@@UAEPAXI@Z 10001d90 f i DataItem.obj
 0001:00000d90       ??_GCSTDataItem@@UAEPAXI@Z 10001d90 f i DataItem.obj
 0001:00000e00       ?AssertValid@CObject@@UBEXXZ 10001e00 f i DataItem.obj
 0001:00000e10       ?Dump@CObject@@UBEXAAVCDumpContext@@@Z 10001e10 f i DataItem.obj
 0001:00000e20       ?GetAt@CSTDataItem@@UAEHJPAN@Z 10001e20 f i DataItem.obj
 0001:00000e60       ?GetAt@CSTDataItem@@UAENJ@Z 10001e60 f i DataItem.obj
 0001:00000e90       ?GetComment@CSTDataItem@@UAE?AV?$CStringT@DV?$StrTraitMFC_DLL@DV?$ChTraitsCRT@D@ATL@@@@@ATL@@PBD@Z 10001e90 f   DataItem.obj
 0001:00000f00       ?GetDataItemName@CSTDataItem@@UAE?AV?$CStringT@DV?$StrTraitMFC_DLL@DV?$ChTraitsCRT@D@ATL@@@@@ATL@@XZ 10001f00 f   DataItem.obj
 0001:00000f40       ?GetFirstDataIndex@CSTDataItem@@UAEJXZ 10001f40 f   DataItem.obj
 0001:00000f60       ?GetSize@CSTDataItem@@UAEJXZ 10001f60 f   DataItem.obj
 0001:00000f80       ?Init@CSTDataItem@@UAEHPBDHNJPAVCIDataItem0001@@@Z 10001f80 f   DataItem.obj
 0001:00001040       ?Serialize@?$CArray@NN@@UAEXAAVCArchive@@@Z 10002040 f i DataItem.obj
 0001:00001120       ?Serialize@CObject@@UAEXAAVCArchive@@@Z 10002120 f i DataItem.obj
 0001:00001130       ?SetAt@CSTDataItem@@UAEHJN@Z 10002130 f i DataItem.obj
 0001:000011c0       ?SetComment@CSTDataItem@@UAEXPBD0@Z 100021c0 f   DataItem.obj
 0001:000011e0       ?SetSize@?$CArray@NN@@QAEXHH@Z 100021e0 f i DataItem.obj
 0001:000013a0       ?SetSize@CSTDataItem@@UAEXJ@Z 100023a0 f i DataItem.obj
 0001:000013c0       ?__empty_global_delete@@YAXPAX@Z 100023c0 f i DataItem.obj
 0001:000013d0       ?__empty_global_delete@@YAXPAXI@Z 100023d0 f i DataItem.obj
 0001:000013d0       ?__global_delete@@YAXPAXI@Z 100023d0 f i DataItem.obj
 0001:000013e0       ??0CSDataItem@@QAE@XZ      100023e0 f   SDataItem.obj
 0001:00001450       ??1CISDataItem0001@@UAE@XZ 10002450 f i SDataItem.obj
 0001:00001460       ??1CSDataItem@@UAE@XZ      10002460 f   SDataItem.obj
 0001:00001490       ??_ECISDataItem0001@@UAEPAXI@Z 10002490 f i SDataItem.obj
 0001:00001490       ??_GCISDataItem0001@@UAEPAXI@Z 10002490 f i SDataItem.obj
 0001:000014c0       ??_GCSDataItem@@UAEPAXI@Z  100024c0 f i SDataItem.obj
 0001:000014c0       ??_ECSDataItem@@UAEPAXI@Z  100024c0 f i SDataItem.obj
 0001:00001500       ?Add@CSDataItem@@UAEHPBD@Z 10002500 f i SDataItem.obj
 0001:00001520       ?GetAt@CSDataItem@@UAE?AV?$CStringT@DV?$StrTraitMFC_DLL@DV?$ChTraitsCRT@D@ATL@@@@@ATL@@J@Z 10002520 f i SDataItem.obj
 0001:00001570       ?GetAt@CSDataItem@@UAEHJPAV?$CStringT@DV?$StrTraitMFC_DLL@DV?$ChTraitsCRT@D@ATL@@@@@ATL@@@Z 10002570 f i SDataItem.obj
 0001:000015b0       ?GetDataItemName@CSDataItem@@UAE?AV?$CStringT@DV?$StrTraitMFC_DLL@DV?$ChTraitsCRT@D@ATL@@@@@ATL@@XZ 100025b0 f i SDataItem.obj
 0001:000015d0       ?GetSize@CSDataItem@@UAEJXZ 100025d0 f i SDataItem.obj
 0001:000015e0       ?GetType@CSDataItem@@UAEDXZ 100025e0 f i SDataItem.obj
 0001:000015f0       ?Init@CSDataItem@@UAEHPBD0JPAVCISDataItem0001@@@Z 100025f0 f   SDataItem.obj
 0001:00001650       ?SetAt@CSDataItem@@UAEHJPBD@Z 10002650 f i SDataItem.obj
 0001:00001690       ?SetSize@CSDataItem@@UAEXJ@Z 10002690 f   SDataItem.obj
 0001:000016b0       ?SetType@CSDataItem@@UAEXD@Z 100026b0 f i SDataItem.obj
 0001:000016c0       ??0CBarFolder@CSTGfxOutBarCtrl@@QAE@PBDK@Z 100026c0 f   STGfxOutBarCtrl.obj
 0001:00001760       ??0CBarItem@CSTGfxOutBarCtrl@@QAE@PBDHK@Z 10002760 f   STGfxOutBarCtrl.obj
 0001:000017b0       ??0CImpl_IGfxOutBarCtrl@@QAE@XZ 100027b0 f   STGfxOutBarCtrl.obj
 0001:000017d0       ??0CSTGfxOutBarCtrl@@QAE@XZ 100027d0 f   STGfxOutBarCtrl.obj
 0001:00001a20       ??1CBarFolder@CSTGfxOutBarCtrl@@UAE@XZ 10002a20 f   STGfxOutBarCtrl.obj
 0001:00001ac0       ??1CBarItem@CSTGfxOutBarCtrl@@UAE@XZ 10002ac0 f   STGfxOutBarCtrl.obj
 0001:00001ae0       ??1CBitmap@@UAE@XZ         10002ae0 f i STGfxOutBarCtrl.obj
 0001:00001af0       ??1CFont@@UAE@XZ           10002af0 f i STGfxOutBarCtrl.obj
 0001:00001b00       ??1CGdiObject@@UAE@XZ      10002b00 f i STGfxOutBarCtrl.obj
 0001:00001c10       ??1CPen@@UAE@XZ            10002c10 f i STGfxOutBarCtrl.obj
 0001:00001c20       ??1CRgn@@UAE@XZ            10002c20 f i STGfxOutBarCtrl.obj
 0001:00001c30       ??1CSTGfxOutBarCtrl@@UAE@XZ 10002c30 f   STGfxOutBarCtrl.obj
 0001:00001cf0       ??3CObject@@SGXPAX@Z       10002cf0 f i STGfxOutBarCtrl.obj
 0001:00001d10       ??_ECBarFolder@CSTGfxOutBarCtrl@@UAEPAXI@Z 10002d10 f i STGfxOutBarCtrl.obj
 0001:00001d10       ??_GCBarFolder@CSTGfxOutBarCtrl@@UAEPAXI@Z 10002d10 f i STGfxOutBarCtrl.obj
 0001:00001dd0       ??_GCBarItem@CSTGfxOutBarCtrl@@UAEPAXI@Z 10002dd0 f i STGfxOutBarCtrl.obj
 0001:00001dd0       ??_ECBarItem@CSTGfxOutBarCtrl@@UAEPAXI@Z 10002dd0 f i STGfxOutBarCtrl.obj
 0001:00001e10       ??_ECBitmap@@UAEPAXI@Z     10002e10 f i STGfxOutBarCtrl.obj
 0001:00001e10       ??_GCBitmap@@UAEPAXI@Z     10002e10 f i STGfxOutBarCtrl.obj
 0001:00001e50       ??_GCFont@@UAEPAXI@Z       10002e50 f i STGfxOutBarCtrl.obj
 0001:00001e50       ??_ECFont@@UAEPAXI@Z       10002e50 f i STGfxOutBarCtrl.obj
 0001:00001e90       ??_ECGdiObject@@UAEPAXI@Z  10002e90 f i STGfxOutBarCtrl.obj
 0001:00001e90       ??_GCGdiObject@@UAEPAXI@Z  10002e90 f i STGfxOutBarCtrl.obj
 0001:00001ed0       ??_ECPen@@UAEPAXI@Z        10002ed0 f i STGfxOutBarCtrl.obj
 0001:00001ed0       ??_GCPen@@UAEPAXI@Z        10002ed0 f i STGfxOutBarCtrl.obj
 0001:00001f10       ??_ECRgn@@UAEPAXI@Z        10002f10 f i STGfxOutBarCtrl.obj
 0001:00001f10       ??_GCRgn@@UAEPAXI@Z        10002f10 f i STGfxOutBarCtrl.obj
 0001:00001f50       ??_GCSTGfxOutBarCtrl@@UAEPAXI@Z 10002f50 f i STGfxOutBarCtrl.obj
 0001:00001f50       ??_ECSTGfxOutBarCtrl@@UAEPAXI@Z 10002f50 f i STGfxOutBarCtrl.obj
 0001:00001f90       ?AddFolder@CSTGfxOutBarCtrl@@QAEHPBDK@Z 10002f90 f   STGfxOutBarCtrl.obj
 0001:00002060       ?AddFolderBar@CImpl_IGfxOutBarCtrl@@UAGHPBDPAVCWnd@@@Z 10003060 f   STGfxOutBarCtrl.obj
 0001:000020f0       ?AddFolderBar@CSTGfxOutBarCtrl@@QAEHPBDPAVCWnd@@K@Z 100030f0 f   STGfxOutBarCtrl.obj
 0001:000021d0       ?AnimateFolderScroll@CSTGfxOutBarCtrl@@QAEXHH@Z 100031d0 f   STGfxOutBarCtrl.obj
 0001:000028f0       ?BeginModalState@CWnd@@UAEXXZ 100038f0 f i STGfxOutBarCtrl.obj
 0001:00002900       ?Create@CSTGfxOutBarCtrl@@QAEHKABUtagRECT@@PAVCWnd@@IK@Z 10003900 f   STGfxOutBarCtrl.obj
 0001:00002930       ?CreateObject@CSTGfxOutBarCtrl@@SGPAVCObject@@XZ 10003930 f   STGfxOutBarCtrl.obj
 0001:000029a0       ?CreateOutBar@CImpl_IGfxOutBarCtrl@@UAGHKABUtagRECT@@PAVCWnd@@IK@Z 100039a0 f   STGfxOutBarCtrl.obj
 0001:000029e0       ?DeleteAllFolder@CSTGfxOutBarCtrl@@QAEXXZ 100039e0 f   STGfxOutBarCtrl.obj
 0001:00002a40       ?DoDataExchange@CWnd@@MAEXPAVCDataExchange@@@Z 10003a40 f i STGfxOutBarCtrl.obj
 0001:00002a50       ?DrawAnimItem@CSTGfxOutBarCtrl@@QAEXHHH@Z 10003a50 f   STGfxOutBarCtrl.obj
 0001:00002ce0       ?DrawDragArrow@CSTGfxOutBarCtrl@@QAEXPAVCDC@@HH@Z 10003ce0 f   STGfxOutBarCtrl.obj
 0001:00003070       ?DrawFolder@CSTGfxOutBarCtrl@@IAEXPAVCDC@@HVCRect@@_N@Z 10004070 f   STGfxOutBarCtrl.obj
 0001:000037e0       ?DrawItem@CSTGfxOutBarCtrl@@QAEXPAVCDC@@HVCRect@@H_N@Z 100047e0 f   STGfxOutBarCtrl.obj
 0001:00003ac0       ?DrawTextA@CDC@@UAEHPBDHPAUtagRECT@@I@Z 10004ac0 f i STGfxOutBarCtrl.obj
 0001:00003ae0       ?EndModalState@CWnd@@UAEXXZ 10004ae0 f i STGfxOutBarCtrl.obj
 0001:00003af0       ?GetCountPerPage@CSTGfxOutBarCtrl@@QBEHXZ 10004af0 f   STGfxOutBarCtrl.obj
 0001:00003b00       ?GetCoutBarCtrl@CImpl_IGfxOutBarCtrl@@UAGPAVCWnd@@XZ 10004b00 f   STGfxOutBarCtrl.obj
 0001:00003b10       ?GetDragItemRect@CSTGfxOutBarCtrl@@QAEHHAAVCRect@@@Z 10004b10 f   STGfxOutBarCtrl.obj
 0001:00003ca0       ?GetFlag@CSTGfxOutBarCtrl@@QBEKXZ 10004ca0 f   STGfxOutBarCtrl.obj
 0001:00003cb0       ?GetFolderChild@CSTGfxOutBarCtrl@@QAEPAVCWnd@@H@Z 10004cb0 f   STGfxOutBarCtrl.obj
 0001:00003cf0       ?GetFolderCount@CSTGfxOutBarCtrl@@QBEHXZ 10004cf0 f   STGfxOutBarCtrl.obj
 0001:00003d00       ?GetFolderData@CSTGfxOutBarCtrl@@QAEKH@Z 10004d00 f   STGfxOutBarCtrl.obj
 0001:00003d40       ?GetFolderImageList@CSTGfxOutBarCtrl@@QBEPAVCImageList@@H_N@Z 10004d40 f   STGfxOutBarCtrl.obj
 0001:00003d90       ?GetFolderRect@CSTGfxOutBarCtrl@@QBE_NHAAVCRect@@@Z 10004d90 f   STGfxOutBarCtrl.obj
 0001:00003ea0       ?GetIconRect@CSTGfxOutBarCtrl@@QAEXHHAAVCRect@@@Z 10004ea0 f   STGfxOutBarCtrl.obj
 0001:000040b0       ?GetImageList@CSTGfxOutBarCtrl@@QAEPAVCImageList@@H@Z 100050b0 f   STGfxOutBarCtrl.obj
 0001:000040e0       ?GetInsideRect@CSTGfxOutBarCtrl@@QBEXAAVCRect@@@Z 100050e0 f   STGfxOutBarCtrl.obj
 0001:00004150       ?GetItemCount@CBarFolder@CSTGfxOutBarCtrl@@QAEHXZ 10005150 f   STGfxOutBarCtrl.obj
 0001:00004160       ?GetItemCount@CSTGfxOutBarCtrl@@QBEHXZ 10005160 f   STGfxOutBarCtrl.obj
 0001:00004190       ?GetItemData@CSTGfxOutBarCtrl@@QBEKH@Z 10005190 f   STGfxOutBarCtrl.obj
 0001:000041e0       ?GetItemImage@CSTGfxOutBarCtrl@@QBEHH@Z 100051e0 f   STGfxOutBarCtrl.obj
 0001:00004230       ?GetItemRect@CSTGfxOutBarCtrl@@QAEXHHAAVCRect@@@Z 10005230 f   STGfxOutBarCtrl.obj
 0001:00004350       ?GetItemSize@CSTGfxOutBarCtrl@@QAE?AVCSize@@HHH@Z 10005350 f   STGfxOutBarCtrl.obj
 0001:000045c0       ?GetItemText@CSTGfxOutBarCtrl@@QAE?AV?$CStringT@DV?$StrTraitMFC_DLL@DV?$ChTraitsCRT@D@ATL@@@@@ATL@@H@Z 100055c0 f   STGfxOutBarCtrl.obj
 0001:00004660       ?GetLabelRect@CSTGfxOutBarCtrl@@QAEXHHAAVCRect@@@Z 10005660 f   STGfxOutBarCtrl.obj
 0001:00004810       ?GetMessageMap@CSTGfxOutBarCtrl@@MBEPBUAFX_MSGMAP@@XZ 10005810 f   STGfxOutBarCtrl.obj
 0001:00004820       ?GetRuntimeClass@CSTGfxOutBarCtrl@@UBEPAUCRuntimeClass@@XZ 10005820 f   STGfxOutBarCtrl.obj
 0001:00004830       ?GetSelFolder@CSTGfxOutBarCtrl@@QBEHXZ 10005830 f   STGfxOutBarCtrl.obj
 0001:00004840       ?GetThisClass@CSTGfxOutBarCtrl@@SGPAUCRuntimeClass@@XZ 10005840 f   STGfxOutBarCtrl.obj
 0001:00004850       ?GetThisMessageMap@CSTGfxOutBarCtrl@@KGPBUAFX_MSGMAP@@XZ 10005850 f   STGfxOutBarCtrl.obj
 0001:00004860       ?GetVisibleRange@CSTGfxOutBarCtrl@@QAEXHAAH0@Z 10005860 f   STGfxOutBarCtrl.obj
 0001:00004930       ?HighlightFolder@CSTGfxOutBarCtrl@@QAEXH@Z 10005930 f   STGfxOutBarCtrl.obj
 0001:00004b40       ?HighlightItem@CSTGfxOutBarCtrl@@QAEXH_N@Z 10005b40 f   STGfxOutBarCtrl.obj
 0001:00004d80       ?HitTestEx@CSTGfxOutBarCtrl@@QAEHABVCPoint@@AAH@Z 10005d80 f   STGfxOutBarCtrl.obj
 0001:00004fa0       ?InsertItem@CBarFolder@CSTGfxOutBarCtrl@@QAEHHPBDHK@Z 10005fa0 f   STGfxOutBarCtrl.obj
 0001:00005080       ?InsertItem@CSTGfxOutBarCtrl@@QAEHHHPBDHK@Z 10006080 f   STGfxOutBarCtrl.obj
 0001:00005180       ?IsSmallIconView@CSTGfxOutBarCtrl@@QBE_NXZ 10006180 f   STGfxOutBarCtrl.obj
 0001:00005190       ?IsValidItem@CSTGfxOutBarCtrl@@QBE_NH@Z 10006190 f   STGfxOutBarCtrl.obj
 0001:000051d0       ?ModifyFlag@CSTGfxOutBarCtrl@@QAEXABK0I@Z 100061d0 f   STGfxOutBarCtrl.obj
 0001:00005240       ?OnCommand@CSTGfxOutBarCtrl@@MAEHIJ@Z 10006240 f   STGfxOutBarCtrl.obj
 0001:000052e0       ?OnCreate@CSTGfxOutBarCtrl@@IAEHPAUtagCREATESTRUCTA@@@Z 100062e0 f   STGfxOutBarCtrl.obj
 0001:00005390       ?OnDestroy@CSTGfxOutBarCtrl@@IAEXXZ 10006390 f   STGfxOutBarCtrl.obj
 0001:000053b0       ?OnEraseBkgnd@CSTGfxOutBarCtrl@@IAEHPAVCDC@@@Z 100063b0 f   STGfxOutBarCtrl.obj
 0001:000053c0       ?OnLButtonDown@CSTGfxOutBarCtrl@@IAEXIVCPoint@@@Z 100063c0 f   STGfxOutBarCtrl.obj
 0001:00005de0       ?OnMouseMove@CSTGfxOutBarCtrl@@IAEXIVCPoint@@@Z 10006de0 f   STGfxOutBarCtrl.obj
 0001:00005df0       ?OnPaint@CSTGfxOutBarCtrl@@IAEXXZ 10006df0 f   STGfxOutBarCtrl.obj
 0001:000063a0       ?OnRButtonDown@CSTGfxOutBarCtrl@@IAEXIVCPoint@@@Z 100073a0 f   STGfxOutBarCtrl.obj
 0001:000063b0       ?OnSetCursor@CSTGfxOutBarCtrl@@IAEHPAVCWnd@@II@Z 100073b0 f   STGfxOutBarCtrl.obj
 0001:00006420       ?OnSize@CSTGfxOutBarCtrl@@IAEXIHH@Z 10007420 f   STGfxOutBarCtrl.obj
 0001:000064d0       ?OnTimer@CSTGfxOutBarCtrl@@IAEXI@Z 100074d0 f   STGfxOutBarCtrl.obj
 0001:00006610       ?PaintItems@CSTGfxOutBarCtrl@@QAEXPAVCDC@@HVCRect@@@Z 10007610 f   STGfxOutBarCtrl.obj
 0001:00006760       ?RemoveFolder@CSTGfxOutBarCtrl@@QAEXH@Z 10007760 f   STGfxOutBarCtrl.obj
 0001:000067e0       ?RemoveItem@CSTGfxOutBarCtrl@@QAEXH@Z 100077e0 f   STGfxOutBarCtrl.obj
 0001:00006880       ?SetAnimSelHighlight@CSTGfxOutBarCtrl@@QAEXH@Z 10007880 f   STGfxOutBarCtrl.obj
 0001:000068c0       ?SetFolderImageList@CImpl_IGfxOutBarCtrl@@UAGXPAVCImageList@@HHH@Z 100078c0 f   STGfxOutBarCtrl.obj
 0001:000068f0       ?SetFolderImageList@CSTGfxOutBarCtrl@@QAEPAVCImageList@@HPAV2@H@Z 100078f0 f   STGfxOutBarCtrl.obj
 0001:00006950       ?SetFolderImageList@CSTGfxOutBarCtrl@@QAEXPAVCImageList@@HHH@Z 10007950 f   STGfxOutBarCtrl.obj
 0001:00006980       ?SetFolderText@CSTGfxOutBarCtrl@@QAEXHPBD@Z 10007980 f   STGfxOutBarCtrl.obj
 0001:000069e0       ?SetImageList@CImpl_IGfxOutBarCtrl@@UAGPAVCImageList@@PAV2@H@Z 100079e0 f   STGfxOutBarCtrl.obj
 0001:00006a30       ?SetImageList@CSTGfxOutBarCtrl@@QAEPAVCImageList@@PAV2@H@Z 10007a30 f   STGfxOutBarCtrl.obj
 0001:00006a80       ?SetItemData@CSTGfxOutBarCtrl@@QAEXHK@Z 10007a80 f   STGfxOutBarCtrl.obj
 0001:00006ac0       ?SetItemImage@CSTGfxOutBarCtrl@@QAEXHH@Z 10007ac0 f   STGfxOutBarCtrl.obj
 0001:00006b00       ?SetItemText@CSTGfxOutBarCtrl@@QAEXHPBD@Z 10007b00 f   STGfxOutBarCtrl.obj
 0001:00006b70       ?SetSelFolder@CImpl_IGfxOutBarCtrl@@UAGXH@Z 10007b70 f   STGfxOutBarCtrl.obj
 0001:00006b90       ?SetSelFolder@CSTGfxOutBarCtrl@@QAEXH@Z 10007b90 f   STGfxOutBarCtrl.obj
 0001:00006ce0       ?SetSmallIconView@CSTGfxOutBarCtrl@@QAEX_N@Z 10007ce0 f   STGfxOutBarCtrl.obj
 0001:00006d60       ?Setcr3dFace@CImpl_IGfxOutBarCtrl@@UAGXK@Z 10007d60 f   STGfxOutBarCtrl.obj
 0001:00006d80       ?Setcr3dUnFace@CImpl_IGfxOutBarCtrl@@UAGXK@Z 10007d80 f   STGfxOutBarCtrl.obj
 0001:00006da0       ?_GetBaseClass@CSTGfxOutBarCtrl@@KGPAUCRuntimeClass@@XZ 10007da0 f   STGfxOutBarCtrl.obj
 0001:00006db0       ??0CStrategyLoader@@QAE@XZ 10007db0 f   StrategyLoader.obj
 0001:000071b0       ??1CStrategyLoader@@UAE@XZ 100081b0 f   StrategyLoader.obj
 0001:000071f0       ??_GCStrategyLoader@@UAEPAXI@Z 100081f0 f i StrategyLoader.obj
 0001:000071f0       ??_ECStrategyLoader@@UAEPAXI@Z 100081f0 f i StrategyLoader.obj
 0001:00007240       ?ComServerFromProgID@CProgIDInfo@@SAJPBDAAV?$CStringT@DV?$StrTraitMFC_DLL@DV?$ChTraitsCRT@D@ATL@@@@@ATL@@@Z 10008240 f i StrategyLoader.obj
 0001:00007450       ?GetStrategyItem@CStrategyLoader@@QAEPAVCIStrategyItem0001@@XZ 10008450 f   StrategyLoader.obj
 0001:00007460       ?LoadStrategyManager@CStrategyLoader@@AAEHXZ 10008460 f   StrategyLoader.obj
 0001:00007590       ?StringCLSIDFromProgID@CProgIDInfo@@SAJPBDAAV?$CStringT@DV?$StrTraitMFC_DLL@DV?$ChTraitsCRT@D@ATL@@@@@ATL@@@Z 10008590 f i StrategyLoader.obj
 0001:00007700       ?UnloadStrategyManager@CStrategyLoader@@AAEHXZ 10008700 f   StrategyLoader.obj
 0001:00007730       ___local_stdio_scanf_options 10008730 f i StrategyLoader.obj
 0001:00007740       _sscanf                    10008740 f i StrategyLoader.obj
 0001:00007770       ??0CSTBasicTree@@QAE@XZ    10008770 f   STTreeCtrl.obj
 0001:000077c0       ??0CSTExtTree@@QAE@XZ      100087c0 f   STTreeCtrl.obj
 0001:00007810       ??0CSTTreeCtrl@@QAE@XZ     10008810 f   STTreeCtrl.obj
 0001:00007860       ??1CSTBasicTree@@UAE@XZ    10008860 f   STTreeCtrl.obj
 0001:00007890       ??1CSTExtTree@@UAE@XZ      10008890 f   STTreeCtrl.obj
 0001:000078c0       ??1CSTTreeCtrl@@UAE@XZ     100088c0 f   STTreeCtrl.obj
 0001:000078f0       ??1STMNG_ITEMINFO_EX1@@QAE@XZ 100088f0 f i STTreeCtrl.obj
 0001:00007910       ??_ECSTBasicTree@@UAEPAXI@Z 10008910 f i STTreeCtrl.obj
 0001:00007910       ??_GCSTBasicTree@@UAEPAXI@Z 10008910 f i STTreeCtrl.obj
 0001:00007970       ??_ECSTExtTree@@UAEPAXI@Z  10008970 f i STTreeCtrl.obj
 0001:00007970       ??_GCSTExtTree@@UAEPAXI@Z  10008970 f i STTreeCtrl.obj
 0001:000079d0       ??_GCSTTreeCtrl@@UAEPAXI@Z 100089d0 f i STTreeCtrl.obj
 0001:000079d0       ??_ECSTTreeCtrl@@UAEPAXI@Z 100089d0 f i STTreeCtrl.obj
 0001:00007a30       ??_GCTreeCtrl@@UAEPAXI@Z   10008a30 f i STTreeCtrl.obj
 0001:00007a30       ??_ECTreeCtrl@@UAEPAXI@Z   10008a30 f i STTreeCtrl.obj
 0001:00007a70       ?AddSTItem@CSTTreeCtrl@@UAEHPBD0@Z 10008a70 f   STTreeCtrl.obj
 0001:00007b40       ?Create@CSTTreeCtrl@@QAEHKABUtagRECT@@PAVCWnd@@I@Z 10008b40 f   STTreeCtrl.obj
 0001:00007ba0       ?DeleteAllItemData@CSTTreeCtrl@@UAEXPAU_TREEITEM@@@Z 10008ba0 f   STTreeCtrl.obj
 0001:00007c20       ?DeleteInfo@CSTTreeCtrl@@UAEXPAUSTTREEBASE_INFO@@@Z 10008c20 f   STTreeCtrl.obj
 0001:00007c70       ?DeleteSTItem@CSTTreeCtrl@@UAEHPBD0@Z 10008c70 f   STTreeCtrl.obj
 0001:00007ce0       ?GetMessageMap@CSTBasicTree@@MBEPBUAFX_MSGMAP@@XZ 10008ce0 f   STTreeCtrl.obj
 0001:00007cf0       ?GetMessageMap@CSTExtTree@@MBEPBUAFX_MSGMAP@@XZ 10008cf0 f   STTreeCtrl.obj
 0001:00007d00       ?GetMessageMap@CSTTreeCtrl@@MBEPBUAFX_MSGMAP@@XZ 10008d00 f   STTreeCtrl.obj
 0001:00007d10       ?GetSTFolderList@CLoadSTFile@@SAHPBDAAVCStringArray@@@Z 10008d10 f i STTreeCtrl.obj
 0001:00007e60       ?GetThisMessageMap@CSTBasicTree@@KGPBUAFX_MSGMAP@@XZ 10008e60 f   STTreeCtrl.obj
 0001:00007e70       ?GetThisMessageMap@CSTExtTree@@KGPBUAFX_MSGMAP@@XZ 10008e70 f   STTreeCtrl.obj
 0001:00007e80       ?GetThisMessageMap@CSTTreeCtrl@@KGPBUAFX_MSGMAP@@XZ 10008e80 f   STTreeCtrl.obj
 0001:00007e90       ?LoadSTFolderList@CSTTreeCtrl@@UAEXPAU_TREEITEM@@PBDPAUSTTREEFOLDER_INFO@@H@Z 10008e90 f   STTreeCtrl.obj
 0001:00008250       ?LoadSTTree@CSTBasicTree@@UAEXXZ 10009250 f   STTreeCtrl.obj
 0001:00008470       ?LoadSTTree@CSTExtTree@@UAEXXZ 10009470 f   STTreeCtrl.obj
 0001:00008800       ?OnCreate@CSTTreeCtrl@@IAEHPAUtagCREATESTRUCTA@@@Z 10009800 f   STTreeCtrl.obj
 0001:000088f0       ?OnDblclk@CSTTreeCtrl@@IAEXPAUtagNMHDR@@PAJ@Z 100098f0 f   STTreeCtrl.obj
 0001:00008a80       ?OnDestroy@CSTTreeCtrl@@IAEXXZ 10009a80 f   STTreeCtrl.obj
 0001:00008ac0       ?OnLButtonDown@CSTTreeCtrl@@IAEXIVCPoint@@@Z 10009ac0 f   STTreeCtrl.obj
 0001:00008c80       ?SearchFolderItem@CSTTreeCtrl@@UAEPAU_TREEITEM@@PBD@Z 10009c80 f   STTreeCtrl.obj
 0001:00008d50       ?SearchItem@CSTTreeCtrl@@UAEPAU_TREEITEM@@PAU2@PBD@Z 10009d50 f   STTreeCtrl.obj
 0001:00008e60       ___local_stdio_printf_options 10009e60 f i STTreeCtrl.obj
 0001:00008e70       _sprintf                   10009e70 f i STTreeCtrl.obj
 0001:00008eb0       ??_ECMschart1@@UAEPAXI@Z   10009eb0 f i mschart1.obj
 0001:00008eb0       ??_GCMschart1@@UAEPAXI@Z   10009eb0 f i mschart1.obj
 0001:00008ef0       ?Create@CMschart1@@UAEHPBD0KABUtagRECT@@PAVCWnd@@IPAUCCreateContext@@@Z 10009ef0 f i mschart1.obj
 0001:00008f20       ?CreateObject@CMschart1@@SGPAVCObject@@XZ 10009f20 f   mschart1.obj
 0001:00008fa0       ?GetRuntimeClass@CMschart1@@UBEPAUCRuntimeClass@@XZ 10009fa0 f   mschart1.obj
 0001:00008fb0       ?GetThisClass@CMschart1@@SGPAUCRuntimeClass@@XZ 10009fb0 f   mschart1.obj
 0001:00008fc0       ?_GetBaseClass@CMschart1@@KGPAUCRuntimeClass@@XZ 10009fc0 f   mschart1.obj
 0001:00008fd0       ?AddXY@CSeries@@QAEJNNPBDK@Z 10009fd0 f   series.obj
 0001:00009010       ?Clear@CSeries@@QAEXXZ     1000a010 f   series.obj
 0001:00009030       ??_GCTChart@@UAEPAXI@Z     1000a030 f i tchart.obj
 0001:00009030       ??_ECTChart@@UAEPAXI@Z     1000a030 f i tchart.obj
 0001:00009070       ?AboutBox@CTChart@@QAEXXZ  1000a070 f   tchart.obj
 0001:00009090       ?AddSeries@CTChart@@QAEJJ@Z 1000a090 f   tchart.obj
 0001:000090c0       ?ApplyCustomPalette@CTChart@@QAEXABUtagVARIANT@@@Z 1000a0c0 f   tchart.obj
 0001:000090f0       ?ApplyPalette@CTChart@@QAEXJ@Z 1000a0f0 f   tchart.obj
 0001:00009120       ?ChangeSeriesType@CTChart@@QAEXJJ@Z 1000a120 f   tchart.obj
 0001:00009150       ?ChartRect@CTChart@@QAEXJJJJ@Z 1000a150 f   tchart.obj
 0001:00009180       ?ClearChart@CTChart@@QAEXXZ 1000a180 f   tchart.obj
 0001:000091a0       ?CloneSeries@CTChart@@QAEJJ@Z 1000a1a0 f   tchart.obj
 0001:000091d0       ?Create@CTChart@@UAEHPBD0KABUtagRECT@@PAVCWnd@@IPAUCCreateContext@@@Z 1000a1d0 f i tchart.obj
 0001:00009200       ?CreateObject@CTChart@@SGPAVCObject@@XZ 1000a200 f   tchart.obj
 0001:00009280       ?Draw@CTChart@@QAEXJJJJJ@Z 1000a280 f   tchart.obj
 0001:000092b0       ?EditOneSeries@CTChart@@QAEXJ@Z 1000a2b0 f   tchart.obj
 0001:000092d0       ?ExchangeSeries@CTChart@@QAEXJJ@Z 1000a2d0 f   tchart.obj
 0001:00009300       ?GetAutoRepaint@CTChart@@QAEHXZ 1000a300 f   tchart.obj
 0001:00009320       ?GetAxis@CTChart@@QAE?AVCAxes@@XZ 1000a320 f   tchart.obj
 0001:00009350       ?GetChartLink@CTChart@@QAEJXZ 1000a350 f   tchart.obj
 0001:00009370       ?GetClipPoints@CTChart@@QAEHXZ 1000a370 f   tchart.obj
 0001:00009390       ?GetCursor@CTChart@@QAEFXZ 1000a390 f   tchart.obj
 0001:000093c0       ?GetDateTimeStep@CTChart@@QAENJ@Z 1000a3c0 f   tchart.obj
 0001:000093f0       ?GetDragCursor@CTChart@@QAEFXZ 1000a3f0 f   tchart.obj
 0001:00009420       ?GetDragMode@CTChart@@QAEJXZ 1000a420 f   tchart.obj
 0001:00009440       ?GetEnabled@CTChart@@QAEHXZ 1000a440 f   tchart.obj
 0001:00009460       ?GetFreeSeriesColor@CTChart@@QAEKH@Z 1000a460 f   tchart.obj
 0001:00009490       ?GetHeight@CTChart@@QAEJXZ 1000a490 f   tchart.obj
 0001:000094b0       ?GetLabelsSeries@CTChart@@QAE?AVCSeries@@J@Z 1000a4b0 f   tchart.obj
 0001:000094f0       ?GetLeft@CTChart@@QAEJXZ   1000a4f0 f   tchart.obj
 0001:00009510       ?GetRuntimeClass@CTChart@@UBEPAUCRuntimeClass@@XZ 1000a510 f   tchart.obj
 0001:00009520       ?GetSeriesCount@CTChart@@QAEJXZ 1000a520 f   tchart.obj
 0001:00009540       ?GetThisClass@CTChart@@SGPAUCRuntimeClass@@XZ 1000a540 f   tchart.obj
 0001:00009550       ?GetTimerEnabled@CTChart@@QAEHXZ 1000a550 f   tchart.obj
 0001:00009570       ?GetTimerInterval@CTChart@@QAEJXZ 1000a570 f   tchart.obj
 0001:00009590       ?GetTop@CTChart@@QAEJXZ    1000a590 f   tchart.obj
 0001:000095b0       ?GetVisible@CTChart@@QAEHXZ 1000a5b0 f   tchart.obj
 0001:000095d0       ?GetWidth@CTChart@@QAEJXZ  1000a5d0 f   tchart.obj
 0001:000095f0       ?IsFreeSeriesColor@CTChart@@QAEHKH@Z 1000a5f0 f   tchart.obj
 0001:00009620       ?RefreshData@CTChart@@QAEXXZ 1000a620 f   tchart.obj
 0001:00009640       ?RemoveAllSeries@CTChart@@QAEXXZ 1000a640 f   tchart.obj
 0001:00009660       ?RemoveSeries@CTChart@@QAEXJ@Z 1000a660 f   tchart.obj
 0001:00009680       ?Repaint@CTChart@@QAEXXZ   1000a680 f   tchart.obj
 0001:000096a0       ?Series@CTChart@@QAE?AVCSeries@@J@Z 1000a6a0 f   tchart.obj
 0001:000096e0       ?SeriesTitleLegend@CTChart@@QAE?AV?$CStringT@DV?$StrTraitMFC_DLL@DV?$ChTraitsCRT@D@ATL@@@@@ATL@@J@Z 1000a6e0 f   tchart.obj
 0001:00009760       ?SetAutoRepaint@CTChart@@QAEXH@Z 1000a760 f   tchart.obj
 0001:00009780       ?SetClipPoints@CTChart@@QAEXH@Z 1000a780 f   tchart.obj
 0001:000097a0       ?SetCursor@CTChart@@QAEXF@Z 1000a7a0 f   tchart.obj
 0001:000097d0       ?SetDragCursor@CTChart@@QAEXF@Z 1000a7d0 f   tchart.obj
 0001:00009800       ?SetDragMode@CTChart@@QAEXJ@Z 1000a800 f   tchart.obj
 0001:00009820       ?SetEnabled@CTChart@@QAEXH@Z 1000a820 f   tchart.obj
 0001:00009840       ?SetHeight@CTChart@@QAEXJ@Z 1000a840 f   tchart.obj
 0001:00009860       ?SetLeft@CTChart@@QAEXJ@Z  1000a860 f   tchart.obj
 0001:00009880       ?SetTheme@CTChart@@QAEXJJ@Z 1000a880 f   tchart.obj
 0001:000098b0       ?SetTimerEnabled@CTChart@@QAEXH@Z 1000a8b0 f   tchart.obj
 0001:000098d0       ?SetTimerInterval@CTChart@@QAEXJ@Z 1000a8d0 f   tchart.obj
 0001:000098f0       ?SetTop@CTChart@@QAEXJ@Z   1000a8f0 f   tchart.obj
 0001:00009910       ?SetVisible@CTChart@@QAEXH@Z 1000a910 f   tchart.obj
 0001:00009930       ?SetWidth@CTChart@@QAEXJ@Z 1000a930 f   tchart.obj
 0001:00009950       ?ShowEditor@CTChart@@QAEXJ@Z 1000a950 f   tchart.obj
 0001:00009970       ?ShowThemesEditor@CTChart@@QAEXXZ 1000a970 f   tchart.obj
 0001:00009990       ?StopMouse@CTChart@@QAEXXZ 1000a990 f   tchart.obj
 0001:000099b0       ?_GetBaseClass@CTChart@@KGPAUCRuntimeClass@@XZ 1000a9b0 f   tchart.obj
 0001:000099c0       ??$SerializeElements@H@@YGXAAVCArchive@@PAHH@Z 1000a9c0 f i XTabCtrl.obj
 0001:00009a70       ??0?$CArray@HH@@QAE@XZ     1000aa70 f i XTabCtrl.obj
 0001:00009aa0       ??0CXTabCtrl@@QAE@XZ       1000aaa0 f   XTabCtrl.obj
 0001:00009bd0       ??1?$CArray@HH@@UAE@XZ     1000abd0 f i XTabCtrl.obj
 0001:00009bf0       ??1CXTabCtrl@@UAE@XZ       1000abf0 f   XTabCtrl.obj
 0001:00009c90       ??_E?$CArray@HH@@UAEPAXI@Z 1000ac90 f i XTabCtrl.obj
 0001:00009c90       ??_G?$CArray@HH@@UAEPAXI@Z 1000ac90 f i XTabCtrl.obj
 0001:00009ce0       ??_ECTabCtrl@@UAEPAXI@Z    1000ace0 f i XTabCtrl.obj
 0001:00009ce0       ??_GCTabCtrl@@UAEPAXI@Z    1000ace0 f i XTabCtrl.obj
 0001:00009d20       ??_GCXTabCtrl@@UAEPAXI@Z   1000ad20 f i XTabCtrl.obj
 0001:00009d20       ??_ECXTabCtrl@@UAEPAXI@Z   1000ad20 f i XTabCtrl.obj
 0001:00009e00       ?AddTab@CXTabCtrl@@QAEXPAVCWnd@@PADH@Z 1000ae00 f   XTabCtrl.obj
 0001:00009ee0       ?AfxCrtErrorCheck@@YAHH@Z  1000aee0 f i XTabCtrl.obj
 0001:00009f70       ?ChangeTab@CXTabCtrl@@QAEXHPAVCWnd@@PADH@Z 1000af70 f   XTabCtrl.obj
 0001:0000a030       ?DeleteAllTabs@CXTabCtrl@@QAEXXZ 1000b030 f   XTabCtrl.obj
 0001:0000a080       ?DeleteTab@CXTabCtrl@@QAEXH@Z 1000b080 f   XTabCtrl.obj
 0001:0000a120       ?DrawGradientTab@CXTabCtrl@@QAEXPAVCDC@@VCRect@@@Z 1000b120 f   XTabCtrl.obj
 0001:0000a2d0       ?DrawItem@CXTabCtrl@@MAEXPAUtagDRAWITEMSTRUCT@@@Z 1000b2d0 f   XTabCtrl.obj
 0001:0000a8c0       ?DrawLine@CXTabCtrl@@QAEXVCPoint@@0PAVCDC@@K@Z 1000b8c0 f   XTabCtrl.obj
 0001:0000a980       ?EnableTab@CXTabCtrl@@QAEXHH@Z 1000b980 f   XTabCtrl.obj
 0001:0000aa00       ?GetMessageMap@CXTabCtrl@@MBEPBUAFX_MSGMAP@@XZ 1000ba00 f   XTabCtrl.obj
 0001:0000aa10       ?GetThisMessageMap@CXTabCtrl@@KGPBUAFX_MSGMAP@@XZ 1000ba10 f   XTabCtrl.obj
 0001:0000aa20       ?IsTabEnabled@CXTabCtrl@@QAEHH@Z 1000ba20 f   XTabCtrl.obj
 0001:0000aa50       ?OnEraseBkgnd@CXTabCtrl@@IAEHPAVCDC@@@Z 1000ba50 f   XTabCtrl.obj
 0001:0000aab0       ?OnLButtonDown@CXTabCtrl@@IAEXIVCPoint@@@Z 1000bab0 f   XTabCtrl.obj
 0001:0000aaf0       ?OnLButtonUp@CXTabCtrl@@IAEXIVCPoint@@@Z 1000baf0 f   XTabCtrl.obj
 0001:0000ab30       ?OnMouseMove@CXTabCtrl@@IAEXIVCPoint@@@Z 1000bb30 f   XTabCtrl.obj
 0001:0000ab80       ?OnPaint@CXTabCtrl@@IAEXXZ 1000bb80 f   XTabCtrl.obj
 0001:0000ae40       ?OnSelchange@CXTabCtrl@@IAEHPAUtagNMHDR@@PAJ@Z 1000be40 f   XTabCtrl.obj
 0001:0000af50       ?OnSelchanging@CXTabCtrl@@IAEHPAUtagNMHDR@@PAJ@Z 1000bf50 f   XTabCtrl.obj
 0001:0000af90       ?OnSize@CXTabCtrl@@IAEXIHH@Z 1000bf90 f   XTabCtrl.obj
 0001:0000b010       ?OnTimer@CXTabCtrl@@IAEXI@Z 1000c010 f   XTabCtrl.obj
 0001:0000b0c0       ?PreSubclassWindow@CXTabCtrl@@MAEXXZ 1000c0c0 f   XTabCtrl.obj
 0001:0000b0e0       ?RemoveAt@?$CArray@HH@@QAEXHH@Z 1000c0e0 f i XTabCtrl.obj
 0001:0000b180       ?SelectNextTab@CXTabCtrl@@QAEHH@Z 1000c180 f   XTabCtrl.obj
 0001:0000b220       ?SelectTab@CXTabCtrl@@QAEHH@Z 1000c220 f   XTabCtrl.obj
 0001:0000b350       ?SelectTabByName@CXTabCtrl@@QAEHPBD@Z 1000c350 f   XTabCtrl.obj
 0001:0000b430       ?Serialize@?$CArray@HH@@UAEXAAVCArchive@@@Z 1000c430 f i XTabCtrl.obj
 0001:0000b510       ?SetAtGrow@?$CArray@HH@@QAEXHH@Z 1000c510 f i XTabCtrl.obj
 0001:0000b550       ?SetDisabledColor@CXTabCtrl@@QAEXK@Z 1000c550 f   XTabCtrl.obj
 0001:0000b570       ?SetMouseOverColor@CXTabCtrl@@QAEXK@Z 1000c570 f   XTabCtrl.obj
 0001:0000b590       ?SetNormalColor@CXTabCtrl@@QAEXKKK@Z 1000c590 f   XTabCtrl.obj
 0001:0000b5c0       ?SetPrevSelect@CXTabCtrl@@QAEXXZ 1000c5c0 f   XTabCtrl.obj
 0001:0000b610       ?SetSelectedColor@CXTabCtrl@@QAEXKK@Z 1000c610 f   XTabCtrl.obj
 0001:0000b630       ?SetSize@?$CArray@HH@@QAEXHH@Z 1000c630 f i XTabCtrl.obj
 0001:0000b810       ?SetTopLeftCorner@CXTabCtrl@@QAEXVCPoint@@@Z 1000c810 f   XTabCtrl.obj
 0001:0000b830       ??0CDlgInterface@@QAE@IPAVCWnd@@@Z 1000c830 f   DlgInterface.obj
 0001:0000b870       ??_GCDlgInterface@@UAEPAXI@Z 1000c870 f i DlgInterface.obj
 0001:0000b870       ??_ECDlgInterface@@UAEPAXI@Z 1000c870 f i DlgInterface.obj
 0001:0000b8b0       ??_GCEscDialog@@UAEPAXI@Z  1000c8b0 f i DlgInterface.obj
 0001:0000b8b0       ??_ECEscDialog@@UAEPAXI@Z  1000c8b0 f i DlgInterface.obj
 0001:0000b8f0       ?Create@CDialog@@UAEHIPAVCWnd@@@Z 1000c8f0 f i DlgInterface.obj
 0001:0000b900       ?DoDataExchange@CDlgInterface@@MAEXPAVCDataExchange@@@Z 1000c900 f   DlgInterface.obj
 0001:0000b910       ?GetComma@CDlgInterface@@QAE?AV?$CStringT@DV?$StrTraitMFC_DLL@DV?$ChTraitsCRT@D@ATL@@@@@ATL@@PBD@Z 1000c910 f   DlgInterface.obj
 0001:0000bbd0       ?GetMessageMap@CDlgInterface@@MBEPBUAFX_MSGMAP@@XZ 1000cbd0 f   DlgInterface.obj
 0001:0000bbe0       ?GetNumber@CDlgInterface@@QAE?AV?$CStringT@DV?$StrTraitMFC_DLL@DV?$ChTraitsCRT@D@ATL@@@@@ATL@@PBD@Z 1000cbe0 f   DlgInterface.obj
 0001:0000bca0       ?GetThisMessageMap@CDlgInterface@@KGPBUAFX_MSGMAP@@XZ 1000cca0 f   DlgInterface.obj
 0001:0000bcb0       ?GuganBtnUpdate@CDlgInterface@@UAEXXZ 1000ccb0 f i DlgInterface.obj
 0001:0000bcc0       ?ParsingComma@CDlgInterface@@QAE?AV?$CStringT@DV?$StrTraitMFC_DLL@DV?$ChTraitsCRT@D@ATL@@@@@ATL@@V23@@Z 1000ccc0 f   DlgInterface.obj
 0001:0000bd40       ?PreTranslateMessage@CEscDialog@@MAEHPAUtagMSG@@@Z 1000cd40 f i DlgInterface.obj
 0001:0000bdb0       ?SetChartFocus@CDlgInterface@@UAEXH@Z 1000cdb0 f i DlgInterface.obj
 0001:0000bdc0       ?UpdateDlg@CDlgInterface@@UAEXXZ 1000cdc0 f i DlgInterface.obj
 0001:0000bdd0       ??$SerializeElements@PAUSTMNG_ITEMINFO@@@@YGXAAVCArchive@@PAPAUSTMNG_ITEMINFO@@H@Z 1000cdd0 f i DlgOptimizer.obj
 0001:0000be80       ??$SerializeElements@PAUST_VALUE@@@@YGXAAVCArchive@@PAPAUST_VALUE@@H@Z 1000ce80 f i DlgOptimizer.obj
 0001:0000bf30       ??$SerializeElements@PAVCDialog@@@@YGXAAVCArchive@@PAPAVCDialog@@H@Z 1000cf30 f i DlgOptimizer.obj
 0001:0000bfe0       ??$SerializeElements@UST_GRIDDATA@@@@YGXAAVCArchive@@PAUST_GRIDDATA@@H@Z 1000cfe0 f i DlgOptimizer.obj
 0001:0000c090       ??$SerializeElements@UST_RUNVALUE@@@@YGXAAVCArchive@@PAUST_RUNVALUE@@H@Z 1000d090 f i DlgOptimizer.obj
 0001:0000c140       ??$SerializeElements@UST_STRGRIDDATA@@@@YGXAAVCArchive@@PAUST_STRGRIDDATA@@H@Z 1000d140 f i DlgOptimizer.obj
 0001:0000c1f0       ??$SerializeElements@UST_VALUEOPTIMAZE@@@@YGXAAVCArchive@@PAUST_VALUEOPTIMAZE@@H@Z 1000d1f0 f i DlgOptimizer.obj
 0001:0000c2b0       ??0?$CArray@PAUST_VALUE@@PAU1@@@QAE@XZ 1000d2b0 f i DlgOptimizer.obj
 0001:0000c2e0       ??0?$CArray@PAVCDialog@@PAV1@@@QAE@XZ 1000d2e0 f i DlgOptimizer.obj
 0001:0000c310       ??0?$CArray@UST_GRIDDATA@@U1@@@QAE@XZ 1000d310 f i DlgOptimizer.obj
 0001:0000c340       ??0?$CArray@UST_RUNVALUE@@U1@@@QAE@XZ 1000d340 f i DlgOptimizer.obj
 0001:0000c370       ??0?$CArray@UST_STRGRIDDATA@@U1@@@QAE@XZ 1000d370 f i DlgOptimizer.obj
 0001:0000c3a0       ??0?$CArray@UST_VALUEOPTIMAZE@@U1@@@QAE@XZ 1000d3a0 f i DlgOptimizer.obj
 0001:0000c3d0       ??0?$CList@PAUSTMNG_ITEMINFO@@PAU1@@@QAE@H@Z 1000d3d0 f i DlgOptimizer.obj
 0001:0000c410       ??0CDlgOptimizer@@QAE@PAVCWnd@@@Z 1000d410 f   DlgOptimizer.obj
 0001:0000c860       ??0ST_GRIDDATA@@QAE@XZ     1000d860 f i DlgOptimizer.obj
 0001:0000c9c0       ??1?$CArray@PAUST_VALUE@@PAU1@@@UAE@XZ 1000d9c0 f i DlgOptimizer.obj
 0001:0000c9e0       ??1?$CArray@PAVCDialog@@PAV1@@@UAE@XZ 1000d9e0 f i DlgOptimizer.obj
 0001:0000ca00       ??1?$CArray@UST_GRIDDATA@@U1@@@UAE@XZ 1000da00 f i DlgOptimizer.obj
 0001:0000ca50       ??1?$CArray@UST_RUNVALUE@@U1@@@UAE@XZ 1000da50 f i DlgOptimizer.obj
 0001:0000ca70       ??1?$CArray@UST_STRGRIDDATA@@U1@@@UAE@XZ 1000da70 f i DlgOptimizer.obj
 0001:0000cac0       ??1?$CArray@UST_VALUEOPTIMAZE@@U1@@@UAE@XZ 1000dac0 f i DlgOptimizer.obj
 0001:0000cb10       ??1?$CList@PAUSTMNG_ITEMINFO@@PAU1@@@UAE@XZ 1000db10 f i DlgOptimizer.obj
 0001:0000cb80       ??1CBrush@@UAE@XZ          1000db80 f i DlgOptimizer.obj
 0001:0000cb90       ??1CDlgOptimizer@@UAE@XZ   1000db90 f i DlgOptimizer.obj
 0001:0000cde0       ??1CEscDialog@@UAE@XZ      1000dde0 f i DlgOptimizer.obj
 0001:0000cdf0       ??1ST_GRIDDATA@@QAE@XZ     1000ddf0 f i DlgOptimizer.obj
 0001:0000cf50       ??1ST_VALUEOPTIMAZE@@QAE@XZ 1000df50 f i DlgOptimizer.obj
 0001:0000cf60       ??1_GV_ITEM@@QAE@XZ        1000df60 f i DlgOptimizer.obj
 0001:0000cf70       ??HATL@@YA?AV?$CStringT@DV?$StrTraitMFC_DLL@DV?$ChTraitsCRT@D@ATL@@@@@0@ABV10@0@Z 1000df70 f i DlgOptimizer.obj
 0001:0000cff0       ??HATL@@YA?AV?$CStringT@DV?$StrTraitMFC_DLL@DV?$ChTraitsCRT@D@ATL@@@@@0@ABV10@PBD@Z 1000dff0 f i DlgOptimizer.obj
 0001:0000d090       ??_G?$CArray@PAUST_VALUE@@PAU1@@@UAEPAXI@Z 1000e090 f i DlgOptimizer.obj
 0001:0000d090       ??_E?$CArray@PAUST_VALUE@@PAU1@@@UAEPAXI@Z 1000e090 f i DlgOptimizer.obj
 0001:0000d0e0       ??_G?$CArray@PAVCDialog@@PAV1@@@UAEPAXI@Z 1000e0e0 f i DlgOptimizer.obj
 0001:0000d0e0       ??_E?$CArray@PAVCDialog@@PAV1@@@UAEPAXI@Z 1000e0e0 f i DlgOptimizer.obj
 0001:0000d130       ??_E?$CArray@UST_GRIDDATA@@U1@@@UAEPAXI@Z 1000e130 f i DlgOptimizer.obj
 0001:0000d130       ??_G?$CArray@UST_GRIDDATA@@U1@@@UAEPAXI@Z 1000e130 f i DlgOptimizer.obj
 0001:0000d170       ??_G?$CArray@UST_RUNVALUE@@U1@@@UAEPAXI@Z 1000e170 f i DlgOptimizer.obj
 0001:0000d170       ??_E?$CArray@UST_RUNVALUE@@U1@@@UAEPAXI@Z 1000e170 f i DlgOptimizer.obj
 0001:0000d1c0       ??_G?$CArray@UST_STRGRIDDATA@@U1@@@UAEPAXI@Z 1000e1c0 f i DlgOptimizer.obj
 0001:0000d1c0       ??_E?$CArray@UST_STRGRIDDATA@@U1@@@UAEPAXI@Z 1000e1c0 f i DlgOptimizer.obj
 0001:0000d200       ??_E?$CArray@UST_VALUEOPTIMAZE@@U1@@@UAEPAXI@Z 1000e200 f i DlgOptimizer.obj
 0001:0000d200       ??_G?$CArray@UST_VALUEOPTIMAZE@@U1@@@UAEPAXI@Z 1000e200 f i DlgOptimizer.obj
 0001:0000d240       ??_G?$CList@PAUSTMNG_ITEMINFO@@PAU1@@@UAEPAXI@Z 1000e240 f i DlgOptimizer.obj
 0001:0000d240       ??_E?$CList@PAUSTMNG_ITEMINFO@@PAU1@@@UAEPAXI@Z 1000e240 f i DlgOptimizer.obj
 0001:0000d2f0       ??_ECBrush@@UAEPAXI@Z      1000e2f0 f i DlgOptimizer.obj
 0001:0000d2f0       ??_GCBrush@@UAEPAXI@Z      1000e2f0 f i DlgOptimizer.obj
 0001:0000d330       ??_GCDlgOptimizer@@UAEPAXI@Z 1000e330 f i DlgOptimizer.obj
 0001:0000d330       ??_ECDlgOptimizer@@UAEPAXI@Z 1000e330 f i DlgOptimizer.obj
 0001:0000d370       ??_ECListBox@@UAEPAXI@Z    1000e370 f i DlgOptimizer.obj
 0001:0000d370       ??_GCListBox@@UAEPAXI@Z    1000e370 f i DlgOptimizer.obj
 0001:0000d3b0       ??_H@YGXPAXIIP6EPAX0@Z@Z   1000e3b0 f i DlgOptimizer.obj
 0001:0000d3e0       ?AddTail@?$CList@PAUSTMNG_ITEMINFO@@PAU1@@@QAEPAU__POSITION@@PAUSTMNG_ITEMINFO@@@Z 1000e3e0 f i DlgOptimizer.obj
 0001:0000d540       ?AutoSizeColumns@CDlgOptimizer@@QAEXXZ 1000e540 f   DlgOptimizer.obj
 0001:0000d5e0       ?CalculateSendData@CDlgOptimizer@@QAEHXZ 1000e5e0 f   DlgOptimizer.obj
 0001:0000d5f0       ?Copy@?$CArray@UST_VALUEOPTIMAZE@@U1@@@QAEXABV1@@Z 1000e5f0 f i DlgOptimizer.obj
 0001:0000d690       ?CreateTImeSetupDlg@CDlgOptimizer@@QAEXXZ 1000e690 f   DlgOptimizer.obj
 0001:0000d950       ?DestoryTImeSetupDlg@CDlgOptimizer@@QAEXXZ 1000e950 f   DlgOptimizer.obj
 0001:0000d970       ?DoDataExchange@CDlgOptimizer@@MAEXPAVCDataExchange@@@Z 1000e970 f   DlgOptimizer.obj
 0001:0000da10       ?FormInit@CDlgOptimizer@@QAEXXZ 1000ea10 f   DlgOptimizer.obj
 0001:0000da20       ?FormLoad@CDlgOptimizer@@QAEXXZ 1000ea20 f   DlgOptimizer.obj
 0001:0000da30       ?GetChartData@CSTUserData@CDlgOptimizer@@UAGHAAJ000000AAH@Z 1000ea30 f   DlgOptimizer.obj
 0001:0000dd30       ?GetCount@CListBox@@QBEHXZ 1000ed30 f i DlgOptimizer.obj
 0001:0000dd50       ?GetJMNameAndGubunFromCode@CDlgOptimizer@@QAE?AV?$CStringT@DV?$StrTraitMFC_DLL@DV?$ChTraitsCRT@D@ATL@@@@@ATL@@V23@@Z 1000ed50 f   DlgOptimizer.obj
 0001:0000ddb0       ?GetMessageMap@CDlgOptimizer@@MBEPBUAFX_MSGMAP@@XZ 1000edb0 f   DlgOptimizer.obj
 0001:0000ddc0       ?GetThisMessageMap@CDlgOptimizer@@KGPBUAFX_MSGMAP@@XZ 1000edc0 f   DlgOptimizer.obj
 0001:0000ddd0       ?HideControl@CDlgOptimizer@@QAEXXZ 1000edd0 f   DlgOptimizer.obj
 0001:0000dde0       ?InitCodeInfo@CDlgOptimizer@@QAEXXZ 1000ede0 f   DlgOptimizer.obj
 0001:0000ddf0       ?InitControls@CDlgOptimizer@@QAEXXZ 1000edf0 f   DlgOptimizer.obj
 0001:0000de30       ?InitGrid@CDlgOptimizer@@QAEXXZ 1000ee30 f   DlgOptimizer.obj
 0001:0000dfb0       ?InitSkin@CDlgOptimizer@@QAEXXZ 1000efb0 f   DlgOptimizer.obj
 0001:0000dfc0       ?InitStrategy@CDlgOptimizer@@QAEXXZ 1000efc0 f   DlgOptimizer.obj
 0001:0000dfd0       ?InitTab@CDlgOptimizer@@QAEXXZ 1000efd0 f   DlgOptimizer.obj
 0001:0000e390       ?IsCurrentChartData@CDlgOptimizer@@QAEHV?$CStringT@DV?$StrTraitMFC_DLL@DV?$ChTraitsCRT@D@ATL@@@@@ATL@@@Z 1000f390 f   DlgOptimizer.obj
 0001:0000e3b0       ?IsNumber@CDlgOptimizer@@QAEHV?$CStringT@DV?$StrTraitMFC_DLL@DV?$ChTraitsCRT@D@ATL@@@@@ATL@@H@Z 1000f3b0 f   DlgOptimizer.obj
 0001:0000e410       ?LoadOutlookBar@CDlgOptimizer@@QAEXXZ 1000f410 f   DlgOptimizer.obj
 0001:0000e670       ?LoadSTList@CDlgOptimizer@@QAEXXZ 1000f670 f   DlgOptimizer.obj
 0001:0000e8a0       ?LoadSTList_SSStyle@CDlgOptimizer@@QAEXXZ 1000f8a0 f   DlgOptimizer.obj
 0001:0000e980       ?MedoMesuComboDataParsing@CDlgOptimizer@@QAEXXZ 1000f980 f   DlgOptimizer.obj
 0001:0000e990       ?NewNode@?$CList@PAUSTMNG_ITEMINFO@@PAU1@@@IAEPAUCNode@1@PAU21@0@Z 1000f990 f i DlgOptimizer.obj
 0001:0000ea00       ?OnBnClickedBtnAddall@CDlgOptimizer@@QAEXXZ 1000fa00 f   DlgOptimizer.obj
 0001:0000eb90       ?OnBnClickedBtnAddone@CDlgOptimizer@@QAEXXZ 1000fb90 f   DlgOptimizer.obj
 0001:0000ed20       ?OnBnClickedBtnDelall@CDlgOptimizer@@QAEXXZ 1000fd20 f   DlgOptimizer.obj
 0001:0000edb0       ?OnBnClickedBtnDelone@CDlgOptimizer@@QAEXXZ 1000fdb0 f   DlgOptimizer.obj
 0001:0000ee00       ?OnBtnOpt@CDlgOptimizer@@IAEXXZ 1000fe00 f   DlgOptimizer.obj
 0001:0000f9e0       ?OnBtnStop@CDlgOptimizer@@IAEXXZ 100109e0 f   DlgOptimizer.obj
 0001:0000fa40       ?OnCtlColor@CDlgOptimizer@@IAEPAUHBRUSH__@@PAVCDC@@PAVCWnd@@I@Z 10010a40 f   DlgOptimizer.obj
 0001:0000fa90       ?OnDestroy@CDlgOptimizer@@IAEXXZ 10010a90 f   DlgOptimizer.obj
 0001:0000fc50       ?OnInitDialog@CDlgOptimizer@@MAEHXZ 10010c50 f   DlgOptimizer.obj
 0001:0000feb0       ?OnLbnDblclkListSt@CDlgOptimizer@@QAEXXZ 10010eb0 f   DlgOptimizer.obj
 0001:0000ff00       ?OnNotify@CDlgOptimizer@@MAEHIJPAJ@Z 10010f00 f   DlgOptimizer.obj
 0001:000102f0       ?OnRmsgGetDllSize@CDlgOptimizer@@IAEJIJ@Z 100112f0 f   DlgOptimizer.obj
 0001:00010310       ?OnRmsgObItemDBClk@CDlgOptimizer@@IAEJIJ@Z 10011310 f   DlgOptimizer.obj
 0001:00010520       ?OnRmsgSTTreeItemDBClk@CDlgOptimizer@@QAEJIJ@Z 10011520 f   DlgOptimizer.obj
 0001:00010530       ?OnSTDataManagerMessagge@CDlgOptimizer@@IAEJIJ@Z 10011530 f   DlgOptimizer.obj
 0001:00010d70       ?OnSetKeyCodeChange@CDlgOptimizer@@IAEJIJ@Z 10011d70 f   DlgOptimizer.obj
 0001:00010d80       ?OnTimer@CDlgOptimizer@@IAEXI@Z 10011d80 f   DlgOptimizer.obj
 0001:00010d90       ?ReSize@CDlgOptimizer@@QAEXXZ 10011d90 f   DlgOptimizer.obj
 0001:000111e0       ?RemoveAll@?$CList@PAUSTMNG_ITEMINFO@@PAU1@@@QAEXXZ 100121e0 f i DlgOptimizer.obj
 0001:00011210       ?RemoveAllControlSet@CDlgOptimizer@@QAEXXZ 10012210 f   DlgOptimizer.obj
 0001:00011220       ?SearchFileToData@CDlgOptimizer@@QAE?AV?$CStringT@DV?$StrTraitMFC_DLL@DV?$ChTraitsCRT@D@ATL@@@@@ATL@@V23@0@Z 10012220 f   DlgOptimizer.obj
 0001:00011280       ?Serialize@?$CArray@PAUST_VALUE@@PAU1@@@UAEXAAVCArchive@@@Z 10012280 f i DlgOptimizer.obj
 0001:00011360       ?Serialize@?$CArray@PAVCDialog@@PAV1@@@UAEXAAVCArchive@@@Z 10012360 f i DlgOptimizer.obj
 0001:00011440       ?Serialize@?$CArray@UST_GRIDDATA@@U1@@@UAEXAAVCArchive@@@Z 10012440 f i DlgOptimizer.obj
 0001:00011520       ?Serialize@?$CArray@UST_RUNVALUE@@U1@@@UAEXAAVCArchive@@@Z 10012520 f i DlgOptimizer.obj
 0001:00011600       ?Serialize@?$CArray@UST_STRGRIDDATA@@U1@@@UAEXAAVCArchive@@@Z 10012600 f i DlgOptimizer.obj
 0001:000116e0       ?Serialize@?$CArray@UST_VALUEOPTIMAZE@@U1@@@UAEXAAVCArchive@@@Z 100126e0 f i DlgOptimizer.obj
 0001:000117c0       ?Serialize@?$CList@PAUSTMNG_ITEMINFO@@PAU1@@@UAEXAAVCArchive@@@Z 100127c0 f i DlgOptimizer.obj
 0001:000119d0       ?SetAtGrow@?$CArray@NN@@QAEXHN@Z 100129d0 f i DlgOptimizer.obj
 0001:00011a10       ?SetAtGrow@?$CArray@PAVCDialog@@PAV1@@@QAEXHPAVCDialog@@@Z 10012a10 f i DlgOptimizer.obj
 0001:00011a50       ?SetControlState@CDlgOptimizer@@QAEXH@Z 10012a50 f   DlgOptimizer.obj
 0001:00011a60       ?SetSTMessageType@CDlgOptimizer@@QAEXF@Z 10012a60 f   DlgOptimizer.obj
 0001:00011a80       ?SetSize@?$CArray@PAUST_VALUE@@PAU1@@@QAEXHH@Z 10012a80 f i DlgOptimizer.obj
 0001:00011c60       ?SetSize@?$CArray@PAVCDialog@@PAV1@@@QAEXHH@Z 10012c60 f i DlgOptimizer.obj
 0001:00011e40       ?SetSize@?$CArray@UST_GRIDDATA@@U1@@@QAEXHH@Z 10012e40 f i DlgOptimizer.obj
 0001:00012130       ?SetSize@?$CArray@UST_RUNVALUE@@U1@@@QAEXHH@Z 10013130 f i DlgOptimizer.obj
 0001:00012320       ?SetSize@?$CArray@UST_STRGRIDDATA@@U1@@@QAEXHH@Z 10013320 f i DlgOptimizer.obj
 0001:00012630       ?SetSize@?$CArray@UST_VALUEOPTIMAZE@@U1@@@QAEXHH@Z 10013630 f i DlgOptimizer.obj
 0001:00012960       ?SpreadGridData@CDlgOptimizer@@QAEXXZ 10013960 f   DlgOptimizer.obj
 0001:00012970       ?StartOpt@CDlgOptimizer@@QAEXXZ 10013970 f   DlgOptimizer.obj
 0001:000129a0       ?StartOptThread@@YAIPAX@Z  100139a0 f   DlgOptimizer.obj
 0001:000129d0       ?UnLoadSTList@CDlgOptimizer@@QAEXXZ 100139d0 f   DlgOptimizer.obj
 0001:00012a20       ?WindowProc@CDlgOptimizer@@MAEJIIJ@Z 10013a20 f   DlgOptimizer.obj
 0001:00012a30       ??0CDlgResult@@QAE@PAVCWnd@@@Z 10013a30 f   DlgResult.obj
 0001:00012ae0       ??1ST_DATAINDEX@@QAE@XZ    10013ae0 f i DlgResult.obj
 0001:00012b20       ??_GCDlgResult@@UAEPAXI@Z  10013b20 f i DlgResult.obj
 0001:00012b20       ??_ECDlgResult@@UAEPAXI@Z  10013b20 f i DlgResult.obj
 0001:00012ba0       ?DoDataExchange@CDlgResult@@MAEXPAVCDataExchange@@@Z 10013ba0 f   DlgResult.obj
 0001:00012bb0       ?GetComma@CDlgResult@@QAE?AV?$CStringT@DV?$StrTraitMFC_DLL@DV?$ChTraitsCRT@D@ATL@@@@@ATL@@PBD@Z 10013bb0 f   DlgResult.obj
 0001:00012e70       ?GetMessageMap@CDlgResult@@MBEPBUAFX_MSGMAP@@XZ 10013e70 f   DlgResult.obj
 0001:00012e80       ?GetNumber@CDlgResult@@QAE?AV?$CStringT@DV?$StrTraitMFC_DLL@DV?$ChTraitsCRT@D@ATL@@@@@ATL@@PBD@Z 10013e80 f   DlgResult.obj
 0001:00012f40       ?GetThisMessageMap@CDlgResult@@KGPBUAFX_MSGMAP@@XZ 10013f40 f   DlgResult.obj
 0001:00012f50       ?InitGrid@CDlgResult@@QAEXXZ 10013f50 f   DlgResult.obj
 0001:00013320       ?InitHtml@CDlgResult@@QAEXXZ 10014320 f   DlgResult.obj
 0001:00013460       ?MakeHtmlFile@CDlgResult@@QAEXXZ 10014460 f   DlgResult.obj
 0001:000136e0       ?OnDestroy@CDlgResult@@IAEXXZ 100146e0 f   DlgResult.obj
 0001:000136f0       ?OnInitDialog@CDlgResult@@MAEHXZ 100146f0 f   DlgResult.obj
 0001:00013720       ?OpenWebView@CDlgResult@@QAEXV?$CStringT@DV?$StrTraitMFC_DLL@DV?$ChTraitsCRT@D@ATL@@@@@ATL@@@Z 10014720 f   DlgResult.obj
 0001:00013730       ?ParsingstrHtml@CDlgResult@@QAE?AV?$CStringT@DV?$StrTraitMFC_DLL@DV?$ChTraitsCRT@D@ATL@@@@@ATL@@V23@@Z 10014730 f   DlgResult.obj
 0001:00013dc0       ?SetDataDir@CDlgResult@@QAEXV?$CStringT@DV?$StrTraitMFC_DLL@DV?$ChTraitsCRT@D@ATL@@@@@ATL@@@Z 10014dc0 f   DlgResult.obj
 0001:00013e20       ?SetDataSpreadGrid@CDlgResult@@QAEXXZ 10014e20 f   DlgResult.obj
 0001:00014590       ?SetOptimizer@CDlgResult@@QAEXPAVCDlgOptimizer@@@Z 10015590 f   DlgResult.obj
 0001:000145a0       _printf                    100155a0 f i DlgResult.obj
 0001:000145d0       ??$SerializeElements@PAVCCFGScanInfo@@@@YGXAAVCArchive@@PAPAVCCFGScanInfo@@H@Z 100155d0 f i DlgTimeSetup.obj
 0001:00014680       ??$SerializeElements@PAVCStatic@@@@YGXAAVCArchive@@PAPAVCStatic@@H@Z 10015680 f i DlgTimeSetup.obj
 0001:00014730       ??0?$CArray@PAVCStatic@@PAV1@@@QAE@XZ 10015730 f i DlgTimeSetup.obj
 0001:00014760       ??0?$CList@PAVCCFGScanInfo@@PAV1@@@QAE@H@Z 10015760 f i DlgTimeSetup.obj
 0001:000147a0       ??0CDlgTimeSetup@@QAE@PAVCWnd@@@Z 100157a0 f   DlgTimeSetup.obj
 0001:000149e0       ??1?$CArray@PAVCStatic@@PAV1@@@UAE@XZ 100159e0 f i DlgTimeSetup.obj
 0001:00014a00       ??1?$CList@PAVCCFGScanInfo@@PAV1@@@UAE@XZ 10015a00 f i DlgTimeSetup.obj
 0001:00014a70       ??1CCFGWndCreate@@QAE@XZ   10015a70 f i DlgTimeSetup.obj
 0001:00014b00       ??1CDlgTimeSetup@@UAE@XZ   10015b00 f   DlgTimeSetup.obj
 0001:00014be0       ??_G?$CArray@PAVCStatic@@PAV1@@@UAEPAXI@Z 10015be0 f i DlgTimeSetup.obj
 0001:00014be0       ??_E?$CArray@PAVCStatic@@PAV1@@@UAEPAXI@Z 10015be0 f i DlgTimeSetup.obj
 0001:00014c30       ??_E?$CList@PAVCCFGScanInfo@@PAV1@@@UAEPAXI@Z 10015c30 f i DlgTimeSetup.obj
 0001:00014c30       ??_G?$CList@PAVCCFGScanInfo@@PAV1@@@UAEPAXI@Z 10015c30 f i DlgTimeSetup.obj
 0001:00014ce0       ??_GCDlgTimeSetup@@UAEPAXI@Z 10015ce0 f i DlgTimeSetup.obj
 0001:00014ce0       ??_ECDlgTimeSetup@@UAEPAXI@Z 10015ce0 f i DlgTimeSetup.obj
 0001:00014df0       ??_GCStatic@@UAEPAXI@Z     10015df0 f i DlgTimeSetup.obj
 0001:00014df0       ??_ECStatic@@UAEPAXI@Z     10015df0 f i DlgTimeSetup.obj
 0001:00014e30       ?AddTail@?$CList@PAVCCFGScanInfo@@PAV1@@@QAEPAU__POSITION@@PAVCCFGScanInfo@@@Z 10015e30 f i DlgTimeSetup.obj
 0001:00014ec0       ?DeleteAllItems@CCFGSectionInfo@@QAEXXZ 10015ec0 f i DlgTimeSetup.obj
 0001:00014f50       ?DoDataExchange@CDlgTimeSetup@@MAEXPAVCDataExchange@@@Z 10015f50 f   DlgTimeSetup.obj
 0001:00015030       ?GetCount@CDlgTimeSetup@@QAEHXZ 10016030 f   DlgTimeSetup.obj
 0001:00015040       ?GetInputData@CDlgTimeSetup@@QAEHPAVCCFGSectionInfo@@@Z 10016040 f   DlgTimeSetup.obj
 0001:00015170       ?GetMessageMap@CDlgTimeSetup@@MBEPBUAFX_MSGMAP@@XZ 10016170 f   DlgTimeSetup.obj
 0001:00015180       ?GetRuntimeClass@CDlgTimeSetup@@UBEPAUCRuntimeClass@@XZ 10016180 f   DlgTimeSetup.obj
 0001:00015190       ?GetThisClass@CDlgTimeSetup@@SGPAUCRuntimeClass@@XZ 10016190 f   DlgTimeSetup.obj
 0001:000151a0       ?GetThisMessageMap@CDlgTimeSetup@@KGPBUAFX_MSGMAP@@XZ 100161a0 f   DlgTimeSetup.obj
 0001:000151b0       ?LoadCFG@CDlgTimeSetup@@QAEHPBD0@Z 100161b0 f   DlgTimeSetup.obj
 0001:000151c0       ?NewNode@?$CList@PAVCCFGScanInfo@@PAV1@@@IAEPAUCNode@1@PAU21@0@Z 100161c0 f i DlgTimeSetup.obj
 0001:00015230       ?OnCtlColor@CDlgTimeSetup@@QAEPAUHBRUSH__@@PAVCDC@@PAVCWnd@@I@Z 10016230 f   DlgTimeSetup.obj
 0001:00015280       ?OnInitDialog@CDlgTimeSetup@@MAEHXZ 10016280 f   DlgTimeSetup.obj
 0001:00015390       ?ParseCFG@CDlgTimeSetup@@QAEXXZ 10016390 f   DlgTimeSetup.obj
 0001:000156a0       ?PreTranslateMessage@CDlgTimeSetup@@UAEHPAUtagMSG@@@Z 100166a0 f   DlgTimeSetup.obj
 0001:00015720       ?ReadCFG@CCFGWndCreate@@QAEHPBD0@Z 10016720 f i DlgTimeSetup.obj
 0001:00015a20       ?RemoveAll@?$CArray@UST_VALUEOPTIMAZE@@U1@@@QAEXXZ 10016a20 f i DlgTimeSetup.obj
 0001:00015a70       ?RemoveAll@?$CList@PAVCCFGScanInfo@@PAV1@@@QAEXXZ 10016a70 f i DlgTimeSetup.obj
 0001:00015aa0       ?Reset@CDlgTimeSetup@@QAEXXZ 10016aa0 f   DlgTimeSetup.obj
 0001:00015b30       ?Serialize@?$CArray@PAVCStatic@@PAV1@@@UAEXAAVCArchive@@@Z 10016b30 f i DlgTimeSetup.obj
 0001:00015c10       ?Serialize@?$CList@PAVCCFGScanInfo@@PAV1@@@UAEXAAVCArchive@@@Z 10016c10 f i DlgTimeSetup.obj
 0001:00015da0       ?SetAtGrow@?$CArray@PAVCStatic@@PAV1@@@QAEXHPAVCStatic@@@Z 10016da0 f i DlgTimeSetup.obj
 0001:00015de0       ?SetAtGrow@?$CArray@UST_VALUEOPTIMAZE@@U1@@@QAEXHUST_VALUEOPTIMAZE@@@Z 10016de0 f i DlgTimeSetup.obj
 0001:00015ea0       ?SetInputData@CDlgTimeSetup@@QAEXXZ 10016ea0 f   DlgTimeSetup.obj
 0001:00016150       ?SetSize@?$CArray@PAVCStatic@@PAV1@@@QAEXHH@Z 10017150 f i DlgTimeSetup.obj
 0001:00016330       ?_GetBaseClass@CDlgTimeSetup@@KGPAUCRuntimeClass@@XZ 10017330 f   DlgTimeSetup.obj
 0001:00016340       ??0CDlgTrade@@QAE@PAVCWnd@@@Z 10017340 f   DlgTrade.obj
 0001:000163e0       ??1CDlgInterface@@UAE@XZ   100173e0 f i DlgTrade.obj
 0001:000163f0       ??_GCDlgTrade@@UAEPAXI@Z   100173f0 f i DlgTrade.obj
 0001:000163f0       ??_ECDlgTrade@@UAEPAXI@Z   100173f0 f i DlgTrade.obj
 0001:00016450       ?DoDataExchange@CDlgTrade@@MAEXPAVCDataExchange@@@Z 10017450 f   DlgTrade.obj
 0001:00016460       ?GetMessageMap@CDlgTrade@@MBEPBUAFX_MSGMAP@@XZ 10017460 f   DlgTrade.obj
 0001:00016470       ?GetSTMessageData@CDlgTrade@@QAEXXZ 10017470 f   DlgTrade.obj
 0001:00016fc0       ?GetThisMessageMap@CDlgTrade@@KGPBUAFX_MSGMAP@@XZ 10017fc0 f   DlgTrade.obj
 0001:00016fd0       ?InitGrid@CDlgTrade@@QAEXXZ 10017fd0 f   DlgTrade.obj
 0001:000171b0       ?InitHtml@CDlgTrade@@QAEXXZ 100181b0 f   DlgTrade.obj
 0001:000172f0       ?InsertDateGubun@CDlgTrade@@QAEXAAV?$CStringT@DV?$StrTraitMFC_DLL@DV?$ChTraitsCRT@D@ATL@@@@@ATL@@@Z 100182f0 f   DlgTrade.obj
 0001:00017320       ?InsertGubun@CDlgTrade@@QAEHAAV?$CStringT@DV?$StrTraitMFC_DLL@DV?$ChTraitsCRT@D@ATL@@@@@ATL@@H@Z 10018320 f   DlgTrade.obj
 0001:00017480       ?InsertMinuteGubun@CDlgTrade@@QAEXAAV?$CStringT@DV?$StrTraitMFC_DLL@DV?$ChTraitsCRT@D@ATL@@@@@ATL@@H@Z 10018480 f   DlgTrade.obj
 0001:00017500       ?InsertMonthGubun@CDlgTrade@@QAEXAAV?$CStringT@DV?$StrTraitMFC_DLL@DV?$ChTraitsCRT@D@ATL@@@@@ATL@@@Z 10018500 f   DlgTrade.obj
 0001:00017520       ?InsertTimeGubun@CDlgTrade@@QAEXAAV?$CStringT@DV?$StrTraitMFC_DLL@DV?$ChTraitsCRT@D@ATL@@@@@ATL@@@Z 10018520 f   DlgTrade.obj
 0001:00017570       ?OnDestroy@CDlgTrade@@IAEXXZ 10018570 f   DlgTrade.obj
 0001:00017580       ?OnInitDialog@CDlgTrade@@MAEHXZ 10018580 f   DlgTrade.obj
 0001:000175a0       ?OpenWebView@CDlgTrade@@QAEXV?$CStringT@DV?$StrTraitMFC_DLL@DV?$ChTraitsCRT@D@ATL@@@@@ATL@@@Z 100185a0 f   DlgTrade.obj
 0001:000175b0       ?SelectRunData@CDlgTrade@@QAEXV?$CStringT@DV?$StrTraitMFC_DLL@DV?$ChTraitsCRT@D@ATL@@@@@ATL@@@Z 100185b0 f   DlgTrade.obj
 0001:00017620       ?SetDataDir@CDlgTrade@@QAEXV?$CStringT@DV?$StrTraitMFC_DLL@DV?$ChTraitsCRT@D@ATL@@@@@ATL@@@Z 10018620 f   DlgTrade.obj
 0001:00017680       ?SetDataSpreadGrid@CDlgTrade@@QAEXXZ 10018680 f   DlgTrade.obj
 0001:00017da0       ?SetOptimizer@CDlgTrade@@QAEXPAVCDlgOptimizer@@@Z 10018da0 f   DlgTrade.obj
 0001:00017db0       ?SetStrategyItem@CDlgTrade@@QAEXPAVCIStrategyItem0001@@@Z 10018db0 f   DlgTrade.obj
 0001:00017dc0       ??0CGridCell@@QAE@XZ       10018dc0 f   GridCell.obj
 0001:00017e90       ??0CGridDefaultCell@@QAE@XZ 10018e90 f   GridCell.obj
 0001:000180a0       ??1CGridCell@@UAE@XZ       100190a0 f   GridCell.obj
 0001:000180d0       ??1CGridDefaultCell@@UAE@XZ 100190d0 f   GridCell.obj
 0001:00018150       ??4CGridCell@@QAEXABV0@@Z  10019150 f   GridCell.obj
 0001:00018170       ??_GCGridCell@@UAEPAXI@Z   10019170 f i GridCell.obj
 0001:00018170       ??_ECGridCell@@UAEPAXI@Z   10019170 f i GridCell.obj
 0001:000181d0       ??_GCGridDefaultCell@@UAEPAXI@Z 100191d0 f i GridCell.obj
 0001:000181d0       ??_ECGridDefaultCell@@UAEPAXI@Z 100191d0 f i GridCell.obj
 0001:00018280       ?CreateObject@CGridCell@@SGPAVCObject@@XZ 10019280 f   GridCell.obj
 0001:000182f0       ?CreateObject@CGridDefaultCell@@SGPAVCObject@@XZ 100192f0 f   GridCell.obj
 0001:00018360       ?Edit@CGridCell@@UAEHHHVCRect@@VCPoint@@II@Z 10019360 f   GridCell.obj
 0001:00018480       ?EndEdit@CGridCell@@UAEXXZ 10019480 f   GridCell.obj
 0001:00018490       ?GetBackClr@CGridCell@@UBEKXZ 10019490 f i GridCell.obj
 0001:000184a0       ?GetData@CGridCell@@UBEJXZ 100194a0 f i GridCell.obj
 0001:000184b0       ?GetEditWnd@CGridCell@@UBEPAVCWnd@@XZ 100194b0 f i GridCell.obj
 0001:000184c0       ?GetFont@CGridCell@@UBEPAUtagLOGFONTA@@XZ 100194c0 f   GridCell.obj
 0001:000184e0       ?GetFont@CGridDefaultCell@@UBEPAUtagLOGFONTA@@XZ 100194e0 f   GridCell.obj
 0001:000184f0       ?GetFontObject@CGridCell@@UBEPAVCFont@@XZ 100194f0 f   GridCell.obj
 0001:00018580       ?GetFontObject@CGridDefaultCell@@UBEPAVCFont@@XZ 10019580 f   GridCell.obj
 0001:00018590       ?GetFormat@CGridCell@@UBEKXZ 10019590 f   GridCell.obj
 0001:000185b0       ?GetGrid@CGridCell@@UBEPAVCGridCtrl@@XZ 100195b0 f i GridCell.obj
 0001:000185c0       ?GetHeight@CGridDefaultCell@@UBEHXZ 100195c0 f i GridCell.obj
 0001:000185d0       ?GetImage@CGridCell@@UBEHXZ 100195d0 f i GridCell.obj
 0001:000185e0       ?GetMargin@CGridCell@@UBEIXZ 100195e0 f   GridCell.obj
 0001:00018600       ?GetRuntimeClass@CGridCell@@UBEPAUCRuntimeClass@@XZ 10019600 f   GridCell.obj
 0001:00018610       ?GetRuntimeClass@CGridDefaultCell@@UBEPAUCRuntimeClass@@XZ 10019610 f   GridCell.obj
 0001:00018620       ?GetState@CGridCellBase@@UBEKXZ 10019620 f i GridCell.obj
 0001:00018630       ?GetState@CGridDefaultCell@@UBEKXZ 10019630 f i GridCell.obj
 0001:00018640       ?GetStyle@CGridDefaultCell@@UBEKXZ 10019640 f i GridCell.obj
 0001:00018650       ?GetText@CGridCell@@UBEPBDXZ 10019650 f i GridCell.obj
 0001:00018660       ?GetTextClr@CGridCell@@UBEKXZ 10019660 f i GridCell.obj
 0001:00018670       ?GetThisClass@CGridCell@@SGPAUCRuntimeClass@@XZ 10019670 f   GridCell.obj
 0001:00018680       ?GetThisClass@CGridDefaultCell@@SGPAUCRuntimeClass@@XZ 10019680 f   GridCell.obj
 0001:00018690       ?GetTipText@CGridCellBase@@UBEPBDXZ 10019690 f i GridCell.obj
 0001:000186a0       ?GetTipTextRect@CGridCellBase@@UAEHPAUtagRECT@@@Z 100196a0 f i GridCell.obj
 0001:000186b0       ?GetWidth@CGridDefaultCell@@UBEHXZ 100196b0 f i GridCell.obj
 0001:000186c0       ?IsDefaultFont@CGridCell@@UBEHXZ 100196c0 f i GridCell.obj
 0001:000186d0       ?IsDropHighlighted@CGridCellBase@@UBEHXZ 100196d0 f i GridCell.obj
 0001:000186e0       ?IsEditing@CGridCell@@UBEHXZ 100196e0 f i GridCell.obj
 0001:000186f0       ?IsFixed@CGridCellBase@@UBEHXZ 100196f0 f i GridCell.obj
 0001:00018700       ?IsFixedCol@CGridCellBase@@UBEHXZ 10019700 f i GridCell.obj
 0001:00018710       ?IsFixedRow@CGridCellBase@@UBEHXZ 10019710 f i GridCell.obj
 0001:00018720       ?IsFocused@CGridCellBase@@UBEHXZ 10019720 f i GridCell.obj
 0001:00018730       ?IsModified@CGridCellBase@@UBEHXZ 10019730 f i GridCell.obj
 0001:00018740       ?IsReadOnly@CGridCellBase@@UBEHXZ 10019740 f i GridCell.obj
 0001:00018750       ?IsSelected@CGridCellBase@@UBEHXZ 10019750 f i GridCell.obj
 0001:00018760       ?OnEndEdit@CGridCell@@MAEXXZ 10019760 f   GridCell.obj
 0001:00018770       ?Reset@CGridCell@@UAEXXZ   10019770 f   GridCell.obj
 0001:000187e0       ?SetBackClr@CGridCell@@UAEXK@Z 100197e0 f i GridCell.obj
 0001:000187f0       ?SetCoords@CGridCell@@UAEXHH@Z 100197f0 f i GridCell.obj
 0001:00018800       ?SetCoords@CGridDefaultCell@@UAEXHH@Z 10019800 f i GridCell.obj
 0001:00018810       ?SetData@CGridCell@@UAEXJ@Z 10019810 f i GridCell.obj
 0001:00018820       ?SetData@CGridDefaultCell@@UAEXJ@Z 10019820 f i GridCell.obj
 0001:00018830       ?SetFont@CGridCell@@UAEXPBUtagLOGFONTA@@@Z 10019830 f   GridCell.obj
 0001:000188a0       ?SetFont@CGridDefaultCell@@UAEXPBUtagLOGFONTA@@@Z 100198a0 f   GridCell.obj
 0001:000189c0       ?SetFormat@CGridCell@@UAEXK@Z 100199c0 f i GridCell.obj
 0001:000189d0       ?SetGrid@CGridCell@@UAEXPAVCGridCtrl@@@Z 100199d0 f i GridCell.obj
 0001:000189e0       ?SetHeight@CGridDefaultCell@@UAEXH@Z 100199e0 f i GridCell.obj
 0001:000189f0       ?SetImage@CGridCell@@UAEXH@Z 100199f0 f i GridCell.obj
 0001:00018a00       ?SetMargin@CGridCell@@UAEXI@Z 10019a00 f i GridCell.obj
 0001:00018a10       ?SetState@CGridCellBase@@UAEXK@Z 10019a10 f i GridCell.obj
 0001:00018a20       ?SetState@CGridDefaultCell@@UAEXK@Z 10019a20 f i GridCell.obj
 0001:00018a30       ?SetStyle@CGridDefaultCell@@UAEXK@Z 10019a30 f i GridCell.obj
 0001:00018a40       ?SetText@CGridCell@@UAEXPBD@Z 10019a40 f i GridCell.obj
 0001:00018a50       ?SetTextClr@CGridCell@@UAEXK@Z 10019a50 f i GridCell.obj
 0001:00018a60       ?SetWidth@CGridDefaultCell@@UAEXH@Z 10019a60 f i GridCell.obj
 0001:00018a70       ?_GetBaseClass@CGridCell@@KGPAUCRuntimeClass@@XZ 10019a70 f   GridCell.obj
 0001:00018a80       ?_GetBaseClass@CGridDefaultCell@@KGPAUCRuntimeClass@@XZ 10019a80 f   GridCell.obj
 0001:00018a90       ??0CGridCellBase@@QAE@XZ   10019a90 f   GridCellBase.obj
 0001:00018aa0       ??1AFX_EXCEPTION_LINK@@QAE@XZ 10019aa0 f i GridCellBase.obj
 0001:00018ae0       ??1CGridCellBase@@UAE@XZ   10019ae0 f   GridCellBase.obj
 0001:00018af0       ??4CGridCellBase@@UAEXABV0@@Z 10019af0 f   GridCellBase.obj
 0001:00018bb0       ??_ECGridCellBase@@UAEPAXI@Z 10019bb0 f i GridCellBase.obj
 0001:00018bb0       ??_GCGridCellBase@@UAEPAXI@Z 10019bb0 f i GridCellBase.obj
 0001:00018bf0       ?Draw@CGridCellBase@@UAEHPAVCDC@@HHVCRect@@H@Z 10019bf0 f   GridCellBase.obj
 0001:00019400       ?Edit@CGridCellBase@@UAEHHHVCRect@@VCPoint@@II@Z 1001a400 f i GridCellBase.obj
 0001:00019410       ?EndEdit@CGridCellBase@@UAEXXZ 1001a410 f i GridCellBase.obj
 0001:00019420       ?GetCellExtent@CGridCellBase@@UAE?AVCSize@@PAVCDC@@@Z 1001a420 f   GridCellBase.obj
 0001:00019500       ?GetCurrentPen@CDC@@QBEPAVCPen@@XZ 1001a500 f i GridCellBase.obj
 0001:00019520       ?GetDefaultCell@CGridCellBase@@UBEPAV1@XZ 1001a520 f   GridCellBase.obj
 0001:00019580       ?GetRuntimeClass@CGridCellBase@@UBEPAUCRuntimeClass@@XZ 1001a580 f   GridCellBase.obj
 0001:00019590       ?GetTextExtent@CDC@@QBE?AVCSize@@ABV?$CStringT@DV?$StrTraitMFC_DLL@DV?$ChTraitsCRT@D@ATL@@@@@ATL@@@Z 1001a590 f i GridCellBase.obj
 0001:000195c0       ?GetTextExtent@CGridCellBase@@UAE?AVCSize@@PBDPAVCDC@@@Z 1001a5c0 f   GridCellBase.obj
 0001:000198d0       ?GetTextRect@CGridCellBase@@UAEHPAUtagRECT@@@Z 1001a8d0 f   GridCellBase.obj
 0001:00019960       ?GetThisClass@CGridCellBase@@SGPAUCRuntimeClass@@XZ 1001a960 f   GridCellBase.obj
 0001:00019970       ?OnClick@CGridCellBase@@MAEXVCPoint@@@Z 1001a970 f   GridCellBase.obj
 0001:00019980       ?OnClickDown@CGridCellBase@@MAEXVCPoint@@@Z 1001a980 f   GridCellBase.obj
 0001:00019990       ?OnDblClick@CGridCellBase@@MAEXVCPoint@@@Z 1001a990 f   GridCellBase.obj
 0001:000199a0       ?OnEndEdit@CGridCellBase@@MAEXXZ 1001a9a0 f   GridCellBase.obj
 0001:000199b0       ?OnMouseEnter@CGridCellBase@@MAEXXZ 1001a9b0 f   GridCellBase.obj
 0001:000199c0       ?OnMouseLeave@CGridCellBase@@MAEXXZ 1001a9c0 f   GridCellBase.obj
 0001:000199d0       ?OnMouseOver@CGridCellBase@@MAEXXZ 1001a9d0 f   GridCellBase.obj
 0001:000199e0       ?OnRClick@CGridCellBase@@MAEXVCPoint@@@Z 1001a9e0 f   GridCellBase.obj
 0001:000199f0       ?OnSetCursor@CGridCellBase@@MAEHXZ 1001a9f0 f   GridCellBase.obj
 0001:00019a10       ?PrintCell@CGridCellBase@@UAEHPAVCDC@@HHVCRect@@@Z 1001aa10 f   GridCellBase.obj
 0001:00019e90       ?Reset@CGridCellBase@@UAEXXZ 1001ae90 f   GridCellBase.obj
 0001:00019ea0       ?SendMessageToParent@CGridCellBase@@QAEJHHH@Z 1001aea0 f   GridCellBase.obj
 0001:00019ec0       ?ValidateEdit@CGridCellBase@@UAEHPBD@Z 1001aec0 f   GridCellBase.obj
 0001:00019ed0       ?_GetBaseClass@CGridCellBase@@KGPAUCRuntimeClass@@XZ 1001aed0 f   GridCellBase.obj
 0001:00019ee0       ??$CompareElements@KK@@YGHPBK0@Z 1001aee0 f i GridCtrl.obj
 0001:00019f10       ??$SerializeElements@K@@YGXAAVCArchive@@PAKH@Z 1001af10 f i GridCtrl.obj
 0001:00019fc0       ??$SerializeElements@VCCellID@@@@YGXAAVCArchive@@PAVCCellID@@H@Z 1001afc0 f i GridCtrl.obj
 0001:0001a070       ??0?$CMap@KKVCCellID@@AAV1@@@QAE@H@Z 1001b070 f i GridCtrl.obj
 0001:0001a0b0       ??0CGridCtrl@@QAE@HHHH@Z   1001b0b0 f   GridCtrl.obj
 0001:0001a7a0       ??1?$CMap@KKVCCellID@@AAV1@@@UAE@XZ 1001b7a0 f i GridCtrl.obj
 0001:0001a820       ??1?$CTypedPtrArray@VCObArray@@PAV?$CTypedPtrArray@VCObArray@@PAVCGridCellBase@@@@@@UAE@XZ 1001b820 f i GridCtrl.obj
 0001:0001a830       ??1CCommonDialog@@UAE@XZ   1001b830 f i GridCtrl.obj
 0001:0001a840       ??1CException@@UAE@XZ      1001b840 f i GridCtrl.obj
 0001:0001a850       ??1CFileException@@UAE@XZ  1001b850 f i GridCtrl.obj
 0001:0001a860       ??1CGridCtrl@@UAE@XZ       1001b860 f   GridCtrl.obj
 0001:0001aa20       ??1CMemDC@@UAE@XZ          1001ba20 f i GridCtrl.obj
 0001:0001aae0       ??1COleDataObject@@QAE@XZ  1001bae0 f i GridCtrl.obj
 0001:0001ab20       ??1CPrintDialog@@UAE@XZ    1001bb20 f i GridCtrl.obj
 0001:0001ab30       ??1CWaitCursor@@QAE@XZ     1001bb30 f i GridCtrl.obj
 0001:0001ac40       ??8CCellID@@QBEHABV0@@Z    1001bc40 f i GridCtrl.obj
 0001:0001ac70       ??9CCellID@@QBEHABV0@@Z    1001bc70 f i GridCtrl.obj
 0001:0001aca0       ??A?$CMap@KKVCCellID@@AAV1@@@QAEAAVCCellID@@K@Z 1001bca0 f i GridCtrl.obj
 0001:0001adc0       ??A?$CTypedPtrArray@VCObArray@@PAV?$CTypedPtrArray@VCObArray@@PAVCGridCellBase@@@@@@QAEAAPAV?$CTypedPtrArray@VCObArray@@PAVCGridCellBase@@@@H@Z 1001bdc0 f i GridCtrl.obj
 0001:0001addf       ??_9CGridCtrl@@$BBIM@AE    1001bddf f i GridCtrl.obj
 0001:0001ade7       ??_9CGridCtrl@@$BBJA@AE    1001bde7 f i GridCtrl.obj
 0001:0001adef       ??_9CGridCtrl@@$BBJE@AE    1001bdef f i GridCtrl.obj
 0001:0001adf7       ??_9CGridCtrl@@$BBJI@AE    1001bdf7 f i GridCtrl.obj
 0001:0001ae00       ??_FCCellID@@QAEXXZ        1001be00 f i GridCtrl.obj
 0001:0001ae10       ??_G?$CMap@KKVCCellID@@AAV1@@@UAEPAXI@Z 1001be10 f i GridCtrl.obj
 0001:0001ae10       ??_E?$CMap@KKVCCellID@@AAV1@@@UAEPAXI@Z 1001be10 f i GridCtrl.obj
 0001:0001aed0       ??_G?$CTypedPtrArray@VCObArray@@PAV?$CTypedPtrArray@VCObArray@@PAVCGridCellBase@@@@@@UAEPAXI@Z 1001bed0 f i GridCtrl.obj
 0001:0001aed0       ??_E?$CTypedPtrArray@VCObArray@@PAV?$CTypedPtrArray@VCObArray@@PAVCGridCellBase@@@@@@UAEPAXI@Z 1001bed0 f i GridCtrl.obj
 0001:0001af10       ??_E?$CTypedPtrArray@VCObArray@@PAVCGridCellBase@@@@UAEPAXI@Z 1001bf10 f i GridCtrl.obj
 0001:0001af10       ??_G?$CTypedPtrArray@VCObArray@@PAVCGridCellBase@@@@UAEPAXI@Z 1001bf10 f i GridCtrl.obj
 0001:0001af50       ??_ECCommonDialog@@UAEPAXI@Z 1001bf50 f i GridCtrl.obj
 0001:0001af50       ??_GCCommonDialog@@UAEPAXI@Z 1001bf50 f i GridCtrl.obj
 0001:0001afa0       ??_GCFileException@@UAEPAXI@Z 1001bfa0 f i GridCtrl.obj
 0001:0001afa0       ??_ECFileException@@UAEPAXI@Z 1001bfa0 f i GridCtrl.obj
 0001:0001aff0       ??_ECGridCtrl@@UAEPAXI@Z   1001bff0 f i GridCtrl.obj
 0001:0001aff0       ??_GCGridCtrl@@UAEPAXI@Z   1001bff0 f i GridCtrl.obj
 0001:0001b030       ??_GCMemDC@@UAEPAXI@Z      1001c030 f i GridCtrl.obj
 0001:0001b030       ??_ECMemDC@@UAEPAXI@Z      1001c030 f i GridCtrl.obj
 0001:0001b070       ?AtlThrowImpl@ATL@@YGXJ@Z  1001c070 f i GridCtrl.obj
 0001:0001b090       ?AutoFill@CGridCtrl@@QAEXXZ 1001c090 f   GridCtrl.obj
 0001:0001b180       ?AutoSize@CGridCtrl@@QAEXI@Z 1001c180 f   GridCtrl.obj
 0001:0001b3c0       ?AutoSizeColumn@CGridCtrl@@QAEHHIH@Z 1001c3c0 f   GridCtrl.obj
 0001:0001b540       ?AutoSizeColumns@CGridCtrl@@QAEXI@Z 1001c540 f   GridCtrl.obj
 0001:0001b5a0       ?AutoSizeRow@CGridCtrl@@QAEHHH@Z 1001c5a0 f   GridCtrl.obj
 0001:0001b6e0       ?AutoSizeRows@CGridCtrl@@QAEXXZ 1001c6e0 f   GridCtrl.obj
 0001:0001b730       ?ClearCells@CGridCtrl@@QAEXVCCellRange@@@Z 1001c730 f   GridCtrl.obj
 0001:0001b7d0       ?CopyTextFromGrid@CGridCtrl@@UAEPAVCOleDataSource@@XZ 1001c7d0 f   GridCtrl.obj
 0001:0001ba40       ?Create@CGridCtrl@@QAEHABUtagRECT@@PAVCWnd@@IK@Z 1001ca40 f   GridCtrl.obj
 0001:0001bbb0       ?CreateCell@CGridCtrl@@MAEPAVCGridCellBase@@HH@Z 1001cbb0 f   GridCtrl.obj
 0001:0001bc60       ?CreateDragImage@CGridCtrl@@MAEPAVCImageList@@PAVCPoint@@@Z 1001cc60 f   GridCtrl.obj
 0001:0001be80       ?CreateObject@CGridCtrl@@SGPAVCObject@@XZ 1001ce80 f   GridCtrl.obj
 0001:0001bef0       ?CutSelectedText@CGridCtrl@@UAEXXZ 1001cef0 f   GridCtrl.obj
 0001:0001bf70       ?DeleteAllItems@CGridCtrl@@QAEHXZ 1001cf70 f   GridCtrl.obj
 0001:0001c080       ?DeleteColumn@CGridCtrl@@QAEHH@Z 1001d080 f   GridCtrl.obj
 0001:0001c180       ?DeleteNonFixedRows@CGridCtrl@@QAEHXZ 1001d180 f   GridCtrl.obj
 0001:0001c2b0       ?DeleteRow@CGridCtrl@@QAEHH@Z 1001d2b0 f   GridCtrl.obj
 0001:0001c3b0       ?DestroyCell@CGridCtrl@@MAEXHH@Z 1001d3b0 f   GridCtrl.obj
 0001:0001c3f0       ?DrawTextExA@CDC@@UAEHPADHPAUtagRECT@@IPAUtagDRAWTEXTPARAMS@@@Z 1001d3f0 f i GridCtrl.obj
 0001:0001c410       ?EnableScrollBars@CGridCtrl@@IAEXHH@Z 1001d410 f   GridCtrl.obj
 0001:0001c4c0       ?EndEditing@CGridCtrl@@MAEXXZ 1001d4c0 f   GridCtrl.obj
 0001:0001c500       ?EnsureVisible@CGridCtrl@@QAEXHH@Z 1001d500 f   GridCtrl.obj
 0001:0001c7b0       ?EraseBkgnd@CGridCtrl@@IAEXPAVCDC@@@Z 1001d7b0 f   GridCtrl.obj
 0001:0001ca50       ?Escape@CDC@@UAEHHHPBDPAX@Z 1001da50 f i GridCtrl.obj
 0001:0001ca70       ?ExpandColumnsToFit@CGridCtrl@@QAEXH@Z 1001da70 f   GridCtrl.obj
 0001:0001cc80       ?ExpandLastColumn@CGridCtrl@@QAEXXZ 1001dc80 f   GridCtrl.obj
 0001:0001cd70       ?ExpandRowsToFit@CGridCtrl@@QAEXH@Z 1001dd70 f   GridCtrl.obj
 0001:0001cf80       ?ExpandToFit@CGridCtrl@@QAEXH@Z 1001df80 f   GridCtrl.obj
 0001:0001cfd0       ?ExtTextOutA@CDC@@UAEHHHIPBUtagRECT@@PBDIPAH@Z 1001dfd0 f i GridCtrl.obj
 0001:0001d000       ?Format@COleDateTime@ATL@@QBE?AV?$CStringT@DV?$StrTraitMFC_DLL@DV?$ChTraitsCRT@D@ATL@@@@@2@PBD@Z 1001e000 f i GridCtrl.obj
 0001:0001d1a0       ?FreeAssoc@?$CMap@KKVCCellID@@AAV1@@@IAEXPAVCAssoc@1@@Z 1001e1a0 f i GridCtrl.obj
 0001:0001d200       ?GetAssocAt@?$CMap@KKVCCellID@@AAV1@@@IBEPAVCAssoc@1@KAAI0@Z 1001e200 f i GridCtrl.obj
 0001:0001d270       ?GetCell@CGridCtrl@@QBEPAVCGridCellBase@@HH@Z 1001e270 f i GridCtrl.obj
 0001:0001d660       ?GetCellFromPt@CGridCtrl@@QAE?AVCCellID@@VCPoint@@H@Z 1001e660 f   GridCtrl.obj
 0001:0001d840       ?GetCellOrigin@CGridCtrl@@QAEHABVCCellID@@PAUtagPOINT@@@Z 1001e840 f   GridCtrl.obj
 0001:0001d860       ?GetCellOrigin@CGridCtrl@@QAEHHHPAUtagPOINT@@@Z 1001e860 f   GridCtrl.obj
 0001:0001da90       ?GetCellRange@CGridCtrl@@QBE?AVCCellRange@@XZ 1001ea90 f   GridCtrl.obj
 0001:0001dac0       ?GetCellRangeRect@CGridCtrl@@IAEHABVCCellRange@@PAUtagRECT@@@Z 1001eac0 f   GridCtrl.obj
 0001:0001dbc0       ?GetCellRect@CGridCtrl@@QAEHABVCCellID@@PAUtagRECT@@@Z 1001ebc0 f   GridCtrl.obj
 0001:0001dbe0       ?GetCellRect@CGridCtrl@@QAEHHHPAUtagRECT@@@Z 1001ebe0 f   GridCtrl.obj
 0001:0001dc90       ?GetColumnWidth@CGridCtrl@@QBEHH@Z 1001ec90 f   GridCtrl.obj
 0001:0001dcd0       ?GetDefaultCell@CGridCtrl@@QBEPAVCGridCellBase@@HH@Z 1001ecd0 f i GridCtrl.obj
 0001:0001dd10       ?GetFixedColumnWidth@CGridCtrl@@QBEHXZ 1001ed10 f   GridCtrl.obj
 0001:0001dd60       ?GetFixedRowHeight@CGridCtrl@@QBEHXZ 1001ed60 f   GridCtrl.obj
 0001:0001ddb0       ?GetItem@CGridCtrl@@QAEHPAU_GV_ITEM@@@Z 1001edb0 f   GridCtrl.obj
 0001:0001df30       ?GetItemBkColour@CGridCtrl@@QBEKHH@Z 1001ef30 f   GridCtrl.obj
 0001:0001df60       ?GetItemData@CGridCtrl@@QBEJHH@Z 1001ef60 f   GridCtrl.obj
 0001:0001df90       ?GetItemFgColour@CGridCtrl@@QBEKHH@Z 1001ef90 f   GridCtrl.obj
 0001:0001dfc0       ?GetItemFont@CGridCtrl@@QAEPBUtagLOGFONTA@@HH@Z 1001efc0 f   GridCtrl.obj
 0001:0001e030       ?GetItemFormat@CGridCtrl@@QBEIHH@Z 1001f030 f   GridCtrl.obj
 0001:0001e060       ?GetItemImage@CGridCtrl@@QBEHHH@Z 1001f060 f   GridCtrl.obj
 0001:0001e090       ?GetItemState@CGridCtrl@@QBEIHH@Z 1001f090 f   GridCtrl.obj
 0001:0001e0c0       ?GetItemText@CGridCtrl@@QBE?AV?$CStringT@DV?$StrTraitMFC_DLL@DV?$ChTraitsCRT@D@ATL@@@@@ATL@@HH@Z 1001f0c0 f   GridCtrl.obj
 0001:0001e120       ?GetMessageMap@CGridCtrl@@MBEPBUAFX_MSGMAP@@XZ 1001f120 f   GridCtrl.obj
 0001:0001e130       ?GetModified@CGridCtrl@@QAEHHH@Z 1001f130 f   GridCtrl.obj
 0001:0001e180       ?GetMouseScrollLines@@YAIXZ 1001f180 f   GridCtrl.obj
 0001:0001e280       ?GetNextAssoc@?$CMap@KKVCCellID@@AAV1@@@QBEXAAPAU__POSITION@@AAKAAVCCellID@@@Z 1001f280 f i GridCtrl.obj
 0001:0001e310       ?GetNextItem@CGridCtrl@@QBE?AVCCellID@@AAV2@H@Z 1001f310 f   GridCtrl.obj
 0001:0001e670       ?GetPointClicked@CGridCtrl@@IAE?AVCPoint@@HHABV2@@Z 1001f670 f   GridCtrl.obj
 0001:0001e6d0       ?GetPrintMarginInfo@CGridCtrl@@QAEXAAH000000@Z 1001f6d0 f   GridCtrl.obj
 0001:0001e730       ?GetRowHeight@CGridCtrl@@QBEHH@Z 1001f730 f   GridCtrl.obj
 0001:0001e770       ?GetRuntimeClass@CGridCtrl@@UBEPAUCRuntimeClass@@XZ 1001f770 f   GridCtrl.obj
 0001:0001e780       ?GetScrollPos32@CGridCtrl@@IAEHHH@Z 1001f780 f   GridCtrl.obj
 0001:0001e800       ?GetSelectedCellRange@CGridCtrl@@QBE?AVCCellRange@@XZ 1001f800 f   GridCtrl.obj
 0001:0001e8c0       ?GetTextExtent@CGridCtrl@@QAE?AVCSize@@HHPBD@Z 1001f8c0 f   GridCtrl.obj
 0001:0001e900       ?GetTextRect@CGridCtrl@@QAEHABVCCellID@@PAUtagRECT@@@Z 1001f900 f   GridCtrl.obj
 0001:0001e960       ?GetTextRect@CGridCtrl@@QAEHHHPAUtagRECT@@@Z 1001f960 f   GridCtrl.obj
 0001:0001e9b0       ?GetThisClass@CGridCtrl@@SGPAUCRuntimeClass@@XZ 1001f9b0 f   GridCtrl.obj
 0001:0001e9c0       ?GetThisMessageMap@CGridCtrl@@KGPBUAFX_MSGMAP@@XZ 1001f9c0 f   GridCtrl.obj
 0001:0001e9d0       ?GetTopleftNonFixedCell@CGridCtrl@@IAE?AVCCellID@@H@Z 1001f9d0 f   GridCtrl.obj
 0001:0001eae0       ?GetUnobstructedNonFixedCellRange@CGridCtrl@@IAE?AVCCellRange@@H@Z 1001fae0 f   GridCtrl.obj
 0001:0001ec40       ?GetVirtualHeight@CGridCtrl@@QBEJXZ 1001fc40 f   GridCtrl.obj
 0001:0001ec80       ?GetVirtualWidth@CGridCtrl@@QBEJXZ 1001fc80 f   GridCtrl.obj
 0001:0001ecc0       ?GetVisibleNonFixedCellRange@CGridCtrl@@IAE?AVCCellRange@@PAUtagRECT@@H@Z 1001fcc0 f   GridCtrl.obj
 0001:0001ee40       ?GrayStringA@CDC@@UAEHPAVCBrush@@P6GHPAUHDC__@@JH@ZJHHHHH@Z 1001fe40 f i GridCtrl.obj
 0001:0001ee70       ?InitHashTable@?$CMap@KKVCCellID@@AAV1@@@QAEXIH@Z 1001fe70 f i GridCtrl.obj
 0001:0001eee0       ?Initialise@CGridCtrl@@IAEHXZ 1001fee0 f   GridCtrl.obj
 0001:0001efe0       ?InsertColumn@CGridCtrl@@QAEHPBDIH@Z 1001ffe0 f   GridCtrl.obj
 0001:0001f320       ?InsertRow@CGridCtrl@@QAEHPBDH@Z 10020320 f   GridCtrl.obj
 0001:0001f640       ?InvalidateCellRect@CGridCtrl@@IAEHABVCCellID@@@Z 10020640 f   GridCtrl.obj
 0001:0001f660       ?InvalidateCellRect@CGridCtrl@@IAEHABVCCellRange@@@Z 10020660 f   GridCtrl.obj
 0001:0001f7d0       ?InvalidateCellRect@CGridCtrl@@IAEHHH@Z 100207d0 f   GridCtrl.obj
 0001:0001f890       ?IsCellEditable@CGridCtrl@@QBEHAAVCCellID@@@Z 10020890 f   GridCtrl.obj
 0001:0001f8d0       ?IsCellEditable@CGridCtrl@@QBEHHH@Z 100208d0 f   GridCtrl.obj
 0001:0001f910       ?IsCellFixed@CGridCtrl@@QAEHHH@Z 10020910 f   GridCtrl.obj
 0001:0001f940       ?IsCellSelected@CGridCtrl@@QBEHAAVCCellID@@@Z 10020940 f   GridCtrl.obj
 0001:0001f960       ?IsCellSelected@CGridCtrl@@QBEHHH@Z 10020960 f   GridCtrl.obj
 0001:0001f9e0       ?IsCellVisible@CGridCtrl@@QAEHHH@Z 100209e0 f   GridCtrl.obj
 0001:0001fbe0       ?IsCellVisible@CGridCtrl@@QAEHVCCellID@@@Z 10020be0 f   GridCtrl.obj
 0001:0001fc00       ?IsItemEditing@CGridCtrl@@QAEHHH@Z 10020c00 f   GridCtrl.obj
 0001:0001fc30       ?IsValid@CGridCtrl@@QBEHABVCCellID@@@Z 10020c30 f   GridCtrl.obj
 0001:0001fc70       ?IsValid@CGridCtrl@@QBEHABVCCellRange@@@Z 10020c70 f   GridCtrl.obj
 0001:0001fcc0       ?IsValid@CGridCtrl@@QBEHHH@Z 10020cc0 f   GridCtrl.obj
 0001:0001fcf0       ?Load@CGridCtrl@@QAEHPBDD@Z 10020cf0 f   GridCtrl.obj
 0001:00020080       ?Lookup@?$CMap@KKVCCellID@@AAV1@@@QBEHKAAVCCellID@@@Z 10021080 f i GridCtrl.obj
 0001:000200c0       ?MouseOverColumnResizeArea@CGridCtrl@@IAEHAAVCPoint@@@Z 100210c0 f   GridCtrl.obj
 0001:00020180       ?MouseOverRowResizeArea@CGridCtrl@@IAEHAAVCPoint@@@Z 10021180 f   GridCtrl.obj
 0001:00020240       ?NewAssoc@?$CMap@KKVCCellID@@AAV1@@@IAEPAVCAssoc@1@K@Z 10021240 f i GridCtrl.obj
 0001:000202d0       ?OnBeginDrag@CGridCtrl@@UAEXXZ 100212d0 f   GridCtrl.obj
 0001:00020360       ?OnBeginPrinting@CGridCtrl@@UAEXPAVCDC@@PAUCPrintInfo@@@Z 10021360 f   GridCtrl.obj
 0001:00020720       ?OnCaptureChanged@CGridCtrl@@IAEXPAVCWnd@@@Z 10021720 f   GridCtrl.obj
 0001:00020780       ?OnChar@CGridCtrl@@IAEXIII@Z 10021780 f   GridCtrl.obj
 0001:000207e0       ?OnDragEnter@CGridCtrl@@UAEKPAVCOleDataObject@@KVCPoint@@@Z 100217e0 f   GridCtrl.obj
 0001:000208b0       ?OnDragLeave@CGridCtrl@@UAEXXZ 100218b0 f   GridCtrl.obj
 0001:00020920       ?OnDragOver@CGridCtrl@@UAEKPAVCOleDataObject@@KVCPoint@@@Z 10021920 f   GridCtrl.obj
 0001:00020a90       ?OnDraw@CGridCtrl@@MAEXPAVCDC@@@Z 10021a90 f   GridCtrl.obj
 0001:00021150       ?OnDrop@CGridCtrl@@UAEHPAVCOleDataObject@@KVCPoint@@@Z 10022150 f   GridCtrl.obj
 0001:000211d0       ?OnEditCell@CGridCtrl@@MAEXHHVCPoint@@I@Z 100221d0 f   GridCtrl.obj
 0001:000212b0       ?OnEditCopy@CGridCtrl@@UAEXXZ 100222b0 f   GridCtrl.obj
 0001:000212d0       ?OnEditCut@CGridCtrl@@UAEXXZ 100222d0 f   GridCtrl.obj
 0001:00021300       ?OnEditPaste@CGridCtrl@@UAEXXZ 10022300 f   GridCtrl.obj
 0001:00021490       ?OnEditSelectAll@CGridCtrl@@UAEXXZ 10022490 f   GridCtrl.obj
 0001:000214f0       ?OnEndEditCell@CGridCtrl@@MAEXHHV?$CStringT@DV?$StrTraitMFC_DLL@DV?$ChTraitsCRT@D@ATL@@@@@ATL@@@Z 100224f0 f   GridCtrl.obj
 0001:00021650       ?OnEndInPlaceEdit@CGridCtrl@@IAEXPAUtagNMHDR@@PAJ@Z 10022650 f   GridCtrl.obj
 0001:00021710       ?OnEndPrinting@CGridCtrl@@UAEXPAVCDC@@PAUCPrintInfo@@@Z 10022710 f   GridCtrl.obj
 0001:00021720       ?OnEraseBkgnd@CGridCtrl@@IAEHPAVCDC@@@Z 10022720 f   GridCtrl.obj
 0001:00021730       ?OnFixedColumnClick@CGridCtrl@@MAEXAAVCCellID@@@Z 10022730 f   GridCtrl.obj
 0001:000217a0       ?OnFixedRowClick@CGridCtrl@@MAEXAAVCCellID@@@Z 100227a0 f   GridCtrl.obj
 0001:000218a0       ?OnGetDlgCode@CGridCtrl@@IAEIXZ 100228a0 f   GridCtrl.obj
 0001:000218d0       ?OnGetFont@CGridCtrl@@IAEJIJ@Z 100228d0 f   GridCtrl.obj
 0001:000218f0       ?OnHScroll@CGridCtrl@@IAEXIIPAVCScrollBar@@@Z 100228f0 f   GridCtrl.obj
 0001:00021bb0       ?OnImeChar@CGridCtrl@@IAEJIJ@Z 10022bb0 f   GridCtrl.obj
 0001:00021c00       ?OnKeyDown@CGridCtrl@@IAEXIII@Z 10022c00 f   GridCtrl.obj
 0001:000224a0       ?OnKeyUp@CGridCtrl@@IAEXIII@Z 100234a0 f   GridCtrl.obj
 0001:000224b0       ?OnLButtonDblClk@CGridCtrl@@IAEXIVCPoint@@@Z 100234b0 f   GridCtrl.obj
 0001:000227a0       ?OnLButtonDown@CGridCtrl@@IAEXIVCPoint@@@Z 100237a0 f   GridCtrl.obj
 0001:00022fe0       ?OnLButtonUp@CGridCtrl@@IAEXIVCPoint@@@Z 10023fe0 f   GridCtrl.obj
 0001:00023470       ?OnMouseMove@CGridCtrl@@IAEXIVCPoint@@@Z 10024470 f   GridCtrl.obj
 0001:000238c0       ?OnMouseWheel@CGridCtrl@@IAEHIFVCPoint@@@Z 100248c0 f   GridCtrl.obj
 0001:000239c0       ?OnPaint@CGridCtrl@@IAEXXZ 100249c0 f   GridCtrl.obj
 0001:00023b50       ?OnPrint@CGridCtrl@@UAEXPAVCDC@@PAUCPrintInfo@@@Z 10024b50 f   GridCtrl.obj
 0001:00024140       ?OnRButtonDown@CGridCtrl@@IAEXIVCPoint@@@Z 10025140 f   GridCtrl.obj
 0001:00024160       ?OnRButtonUp@CGridCtrl@@IAEXIVCPoint@@@Z 10025160 f   GridCtrl.obj
 0001:00024260       ?OnSelecting@CGridCtrl@@IAEXABVCCellID@@@Z 10025260 f   GridCtrl.obj
 0001:00024340       ?OnSetCursor@CGridCtrl@@IAEHPAVCWnd@@II@Z 10025340 f   GridCtrl.obj
 0001:00024430       ?OnSetFont@CGridCtrl@@IAEJIJ@Z 10025430 f   GridCtrl.obj
 0001:000244e0       ?OnSettingChange@CGridCtrl@@IAEXIPBD@Z 100254e0 f   GridCtrl.obj
 0001:00024690       ?OnSize@CGridCtrl@@IAEXIHH@Z 10025690 f   GridCtrl.obj
 0001:000246f0       ?OnSysColorChange@CGridCtrl@@IAEXXZ 100256f0 f   GridCtrl.obj
 0001:00024880       ?OnSysKeyDown@CGridCtrl@@IAEXIII@Z 10025880 f   GridCtrl.obj
 0001:00024890       ?OnTimer@CGridCtrl@@IAEXI@Z 10025890 f   GridCtrl.obj
 0001:00024a10       ?OnUpdateEditCopy@CGridCtrl@@IAEXPAVCCmdUI@@@Z 10025a10 f   GridCtrl.obj
 0001:00024a30       ?OnUpdateEditCut@CGridCtrl@@IAEXPAVCCmdUI@@@Z 10025a30 f   GridCtrl.obj
 0001:00024a60       ?OnUpdateEditPaste@CGridCtrl@@IAEXPAVCCmdUI@@@Z 10025a60 f   GridCtrl.obj
 0001:00024ad0       ?OnUpdateEditSelectAll@CGridCtrl@@IAEXPAVCCmdUI@@@Z 10025ad0 f   GridCtrl.obj
 0001:00024af0       ?OnVScroll@CGridCtrl@@IAEXIIPAVCScrollBar@@@Z 10025af0 f   GridCtrl.obj
 0001:00024db0       ?PasteTextToGrid@CGridCtrl@@UAEHVCCellID@@PAVCOleDataObject@@H@Z 10025db0 f   GridCtrl.obj
 0001:00025330       ?PreSubclassWindow@CGridCtrl@@MAEXXZ 10026330 f   GridCtrl.obj
 0001:00025430       ?Print@CGridCtrl@@QAEXPAVCPrintDialog@@@Z 10026430 f   GridCtrl.obj
 0001:00025690       ?PrintColumnHeadings@CGridCtrl@@MAEXPAVCDC@@PAUCPrintInfo@@@Z 10026690 f   GridCtrl.obj
 0001:000257b0       ?PrintFixedRowCells@CGridCtrl@@MAEXHHAAHAAVCRect@@PAVCDC@@0@Z 100267b0 f   GridCtrl.obj
 0001:00025940       ?PrintFooter@CGridCtrl@@MAEXPAVCDC@@PAUCPrintInfo@@@Z 10026940 f   GridCtrl.obj
 0001:00025c70       ?PrintHeader@CGridCtrl@@MAEXPAVCDC@@PAUCPrintInfo@@@Z 10026c70 f   GridCtrl.obj
 0001:00025e40       ?PrintRowButtons@CGridCtrl@@MAEXPAVCDC@@PAUCPrintInfo@@@Z 10026e40 f   GridCtrl.obj
 0001:00026060       ?PtVisible@CDC@@UBEHHH@Z   10027060 f i GridCtrl.obj
 0001:00026080       ?RectVisible@CDC@@UBEHPBUtagRECT@@@Z 10027080 f i GridCtrl.obj
 0001:000260a0       ?RedrawCell@CGridCtrl@@QAEHABVCCellID@@PAVCDC@@@Z 100270a0 f   GridCtrl.obj
 0001:000260c0       ?RedrawCell@CGridCtrl@@QAEHHHPAVCDC@@@Z 100270c0 f   GridCtrl.obj
 0001:000262f0       ?RedrawColumn@CGridCtrl@@QAEHH@Z 100272f0 f   GridCtrl.obj
 0001:00026580       ?RedrawRow@CGridCtrl@@QAEHH@Z 10027580 f   GridCtrl.obj
 0001:00026810       ?Refresh@CGridCtrl@@QAEXXZ 10027810 f   GridCtrl.obj
 0001:00026830       ?RegisterWindowClass@CGridCtrl@@IAEHXZ 10027830 f   GridCtrl.obj
 0001:000268d0       ?RemoveAll@?$CMap@KKVCCellID@@AAV1@@@QAEXXZ 100278d0 f i GridCtrl.obj
 0001:00026910       ?RemoveKey@?$CMap@KKVCCellID@@AAV1@@@QAEHK@Z 10027910 f i GridCtrl.obj
 0001:000269d0       ?ResetScrollBars@CGridCtrl@@IAEXXZ 100279d0 f   GridCtrl.obj
 0001:00026c60       ?ResetSelectedRange@CGridCtrl@@IAEXXZ 10027c60 f   GridCtrl.obj
 0001:00026ce0       ?Save@CGridCtrl@@QAEHPBDD@Z 10027ce0 f   GridCtrl.obj
 0001:00026f00       ?SelectAllCells@CGridCtrl@@IAEXXZ 10027f00 f   GridCtrl.obj
 0001:00026f30       ?SelectCells@CGridCtrl@@IAEXVCCellID@@HH@Z 10027f30 f   GridCtrl.obj
 0001:00026fb0       ?SelectColumns@CGridCtrl@@IAEXVCCellID@@HH@Z 10027fb0 f   GridCtrl.obj
 0001:00027030       ?SelectRows@CGridCtrl@@IAEXVCCellID@@HH@Z 10028030 f   GridCtrl.obj
 0001:000270c0       ?SendCacheHintToParent@CGridCtrl@@IBEJABVCCellRange@@@Z 100280c0 f   GridCtrl.obj
 0001:00027170       ?SendDisplayRequestToParent@CGridCtrl@@IBEJPAUtagGV_DISPINFO@@@Z 10028170 f   GridCtrl.obj
 0001:000271f0       ?SendMessageToParent@CGridCtrl@@IBEJHHH@Z 100281f0 f   GridCtrl.obj
 0001:00027280       ?Serialize@?$CMap@KKVCCellID@@AAV1@@@UAEXAAVCArchive@@@Z 10028280 f i GridCtrl.obj
 0001:000276c0       ?SetAt@?$CMap@KKVCCellID@@AAV1@@@QAEXKAAVCCellID@@@Z 100286c0 f i GridCtrl.obj
 0001:000277f0       ?SetAt@?$CTypedPtrArray@VCObArray@@PAVCGridCellBase@@@@QAEXHPAVCGridCellBase@@@Z 100287f0 f i GridCtrl.obj
 0001:00027820       ?SetCell@CGridCtrl@@IAEHHHPAVCGridCellBase@@@Z 10028820 f i GridCtrl.obj
 0001:00027890       ?SetCellType@CGridCtrl@@QAEHHHPAUCRuntimeClass@@@Z 10028890 f   GridCtrl.obj
 0001:00027950       ?SetColumnCount@CGridCtrl@@QAEHH@Z 10028950 f   GridCtrl.obj
 0001:00027c60       ?SetColumnWidth@CGridCtrl@@QAEHHH@Z 10028c60 f   GridCtrl.obj
 0001:00027cb0       ?SetCompareFunction@CGridCtrl@@QAEXP6GHJJJ@Z@Z 10028cb0 f   GridCtrl.obj
 0001:00027cc0       ?SetDefaultCellType@CGridCtrl@@QAEHPAUCRuntimeClass@@@Z 10028cc0 f   GridCtrl.obj
 0001:00027d00       ?SetFixedColumnCount@CGridCtrl@@QAEHH@Z 10028d00 f   GridCtrl.obj
 0001:00027f50       ?SetFixedRowCount@CGridCtrl@@QAEHH@Z 10028f50 f   GridCtrl.obj
 0001:00028170       ?SetFocusCell@CGridCtrl@@QAE?AVCCellID@@HH@Z 10029170 f   GridCtrl.obj
 0001:00028190       ?SetFocusCell@CGridCtrl@@QAE?AVCCellID@@V2@@Z 10029190 f   GridCtrl.obj
 0001:000283d0       ?SetGridLines@CGridCtrl@@QAEXH@Z 100293d0 f   GridCtrl.obj
 0001:00028400       ?SetItem@CGridCtrl@@QAEHPBU_GV_ITEM@@@Z 10029400 f   GridCtrl.obj
 0001:00028500       ?SetItemBkColour@CGridCtrl@@QAEHHHK@Z 10029500 f   GridCtrl.obj
 0001:00028540       ?SetItemData@CGridCtrl@@QAEHHHJ@Z 10029540 f   GridCtrl.obj
 0001:00028590       ?SetItemFgColour@CGridCtrl@@QAEHHHK@Z 10029590 f   GridCtrl.obj
 0001:000285d0       ?SetItemFont@CGridCtrl@@QAEHHHPBUtagLOGFONTA@@@Z 100295d0 f   GridCtrl.obj
 0001:00028610       ?SetItemFormat@CGridCtrl@@QAEHHHI@Z 10029610 f   GridCtrl.obj
 0001:00028650       ?SetItemImage@CGridCtrl@@QAEHHHH@Z 10029650 f   GridCtrl.obj
 0001:000286a0       ?SetItemState@CGridCtrl@@QAEHHHI@Z 100296a0 f   GridCtrl.obj
 0001:00028760       ?SetItemText@CGridCtrl@@QAEHHHPBD@Z 10029760 f   GridCtrl.obj
 0001:000287b0       ?SetItemText@CGridCtrl@@QAEHHHPBDK@Z 100297b0 f   GridCtrl.obj
 0001:00028810       ?SetItemTextFmt@CGridCtrl@@QAAHHHPBDZZ 10029810 f   GridCtrl.obj
 0001:000288d0       ?SetItemTextFmtID@CGridCtrl@@QAAHHHIZZ 100298d0 f   GridCtrl.obj
 0001:000289b0       ?SetListMode@CGridCtrl@@QAEXH@Z 100299b0 f   GridCtrl.obj
 0001:00028a10       ?SetModified@CGridCtrl@@QAEXHHH@Z 10029a10 f   GridCtrl.obj
 0001:00028b10       ?SetPrintMarginInfo@CGridCtrl@@QAEXHHHHHHH@Z 10029b10 f   GridCtrl.obj
 0001:00028b80       ?SetRedraw@CGridCtrl@@QAEXHH@Z 10029b80 f   GridCtrl.obj
 0001:00028bd0       ?SetRowCount@CGridCtrl@@QAEHH@Z 10029bd0 f   GridCtrl.obj
 0001:00028f20       ?SetRowHeight@CGridCtrl@@QAEHHH@Z 10029f20 f   GridCtrl.obj
 0001:00028f70       ?SetScrollPos32@CGridCtrl@@IAEHHHH@Z 10029f70 f   GridCtrl.obj
 0001:00028fc0       ?SetSelectedRange@CGridCtrl@@QAEXABVCCellRange@@HH@Z 10029fc0 f   GridCtrl.obj
 0001:00028fe0       ?SetSelectedRange@CGridCtrl@@QAEXHHHHHH@Z 10029fe0 f   GridCtrl.obj
 0001:00029a50       ?SetSortColumn@CGridCtrl@@QAEXH@Z 1002aa50 f   GridCtrl.obj
 0001:00029a90       ?SetVirtualMode@CGridCtrl@@QAEXH@Z 1002aa90 f   GridCtrl.obj
 0001:00029ae0       ?SetupDefaultCells@CGridCtrl@@IAEXXZ 1002aae0 f   GridCtrl.obj
 0001:00029bd0       ?SortItems@CGridCtrl@@IAEHP6GHJJJ@ZHHJHH@Z 1002abd0 f   GridCtrl.obj
 0001:00029ec0       ?SortItems@CGridCtrl@@QAEHHHJ@Z 1002aec0 f   GridCtrl.obj
 0001:00029f50       ?SortItems@CGridCtrl@@QAEHP6GHJJJ@ZHHJ@Z 1002af50 f   GridCtrl.obj
 0001:00029fd0       ?SortTextItems@CGridCtrl@@QAEHHHJ@Z 1002afd0 f   GridCtrl.obj
 0001:00029ff0       ?TabbedTextOutA@CDC@@UAE?AVCSize@@HHPBDHHPAHH@Z 1002aff0 f i GridCtrl.obj
 0001:0002a030       ?TextOutA@CDC@@UAEHHHPBDH@Z 1002b030 f i GridCtrl.obj
 0001:0002a050       ?ValidateAndModifyCellContents@CGridCtrl@@IAEXHHPBD@Z 1002b050 f   GridCtrl.obj
 0001:0002a150       ?ValidateEdit@CGridCtrl@@MAEHHHPBD@Z 1002b150 f   GridCtrl.obj
 0001:0002a180       ?_GetBaseClass@CGridCtrl@@KGPAUCRuntimeClass@@XZ 1002b180 f   GridCtrl.obj
 0001:0002a190       ?pfnCellNumericCompare@CGridCtrl@@SGHJJJ@Z 1002b190 f   GridCtrl.obj
 0001:0002a2b0       ?pfnCellTextCompare@CGridCtrl@@SGHJJJ@Z 1002b2b0 f   GridCtrl.obj
 0001:0002a2f0       ??0CGridDropTarget@@QAE@XZ 1002b2f0 f   GridDropTarget.obj
 0001:0002a320       ??1CGridDropTarget@@UAE@XZ 1002b320 f   GridDropTarget.obj
 0001:0002a330       ??_GCGridDropTarget@@UAEPAXI@Z 1002b330 f i GridDropTarget.obj
 0001:0002a330       ??_ECGridDropTarget@@UAEPAXI@Z 1002b330 f i GridDropTarget.obj
 0001:0002a370       ?GetMessageMap@CGridDropTarget@@MBEPBUAFX_MSGMAP@@XZ 1002b370 f   GridDropTarget.obj
 0001:0002a380       ?GetThisMessageMap@CGridDropTarget@@KGPBUAFX_MSGMAP@@XZ 1002b380 f   GridDropTarget.obj
 0001:0002a390       ?OnDragEnter@CGridDropTarget@@UAEKPAVCWnd@@PAVCOleDataObject@@KVCPoint@@@Z 1002b390 f   GridDropTarget.obj
 0001:0002a3d0       ?OnDragLeave@CGridDropTarget@@UAEXPAVCWnd@@@Z 1002b3d0 f   GridDropTarget.obj
 0001:0002a400       ?OnDragOver@CGridDropTarget@@UAEKPAVCWnd@@PAVCOleDataObject@@KVCPoint@@@Z 1002b400 f   GridDropTarget.obj
 0001:0002a440       ?OnDragScroll@CGridDropTarget@@UAEKPAVCWnd@@KVCPoint@@@Z 1002b440 f   GridDropTarget.obj
 0001:0002a480       ?OnDrop@CGridDropTarget@@UAEHPAVCWnd@@PAVCOleDataObject@@KVCPoint@@@Z 1002b480 f   GridDropTarget.obj
 0001:0002a4c0       ?Register@CGridDropTarget@@QAEHPAVCGridCtrl@@@Z 1002b4c0 f   GridDropTarget.obj
 0001:0002a530       ?Revoke@CGridDropTarget@@UAEXXZ 1002b530 f   GridDropTarget.obj
 0001:0002a540       ??0CInPlaceEdit@@QAE@PAVCWnd@@AAVCRect@@KIHHV?$CStringT@DV?$StrTraitMFC_DLL@DV?$ChTraitsCRT@D@ATL@@@@@ATL@@I@Z 1002b540 f   InPlaceEdit.obj
 0001:0002a790       ??1CInPlaceEdit@@UAE@XZ    1002b790 f   InPlaceEdit.obj
 0001:0002a7b0       ??1tagGV_DISPINFO@@QAE@XZ  1002b7b0 f i InPlaceEdit.obj
 0001:0002a7c0       ??_GCEdit@@UAEPAXI@Z       1002b7c0 f i InPlaceEdit.obj
 0001:0002a7c0       ??_ECEdit@@UAEPAXI@Z       1002b7c0 f i InPlaceEdit.obj
 0001:0002a800       ??_ECInPlaceEdit@@UAEPAXI@Z 1002b800 f i InPlaceEdit.obj
 0001:0002a800       ??_GCInPlaceEdit@@UAEPAXI@Z 1002b800 f i InPlaceEdit.obj
 0001:0002a850       ?EndEdit@CInPlaceEdit@@QAEXXZ 1002b850 f   InPlaceEdit.obj
 0001:0002a9b0       ?GetMessageMap@CInPlaceEdit@@MBEPBUAFX_MSGMAP@@XZ 1002b9b0 f   InPlaceEdit.obj
 0001:0002a9c0       ?GetThisMessageMap@CInPlaceEdit@@KGPBUAFX_MSGMAP@@XZ 1002b9c0 f   InPlaceEdit.obj
 0001:0002a9d0       ?OnChar@CInPlaceEdit@@IAEXIII@Z 1002b9d0 f   InPlaceEdit.obj
 0001:0002ab70       ?OnCreate@CWnd@@IAEHPAUtagCREATESTRUCTA@@@Z 1002bb70 f i InPlaceEdit.obj
 0001:0002ab80       ?OnGetDlgCode@CInPlaceEdit@@IAEIXZ 1002bb80 f   InPlaceEdit.obj
 0001:0002ab90       ?OnKeyDown@CInPlaceEdit@@IAEXIII@Z 1002bb90 f   InPlaceEdit.obj
 0001:0002ac00       ?OnKillFocus@CInPlaceEdit@@IAEXPAVCWnd@@@Z 1002bc00 f   InPlaceEdit.obj
 0001:0002ad60       ?PostNcDestroy@CInPlaceEdit@@MAEXXZ 1002bd60 f   InPlaceEdit.obj
 0001:0002ad80       ?PreTranslateMessage@CInPlaceEdit@@UAEHPAUtagMSG@@@Z 1002bd80 f   InPlaceEdit.obj
 0001:0002adb0       ??0CTitleTip@@QAE@XZ       1002bdb0 f   TitleTip.obj
 0001:0002af00       ??1CTitleTip@@UAE@XZ       1002bf00 f   TitleTip.obj
 0001:0002af10       ??_GCTitleTip@@UAEPAXI@Z   1002bf10 f i TitleTip.obj
 0001:0002af10       ??_ECTitleTip@@UAEPAXI@Z   1002bf10 f i TitleTip.obj
 0001:0002af60       ?Create@CTitleTip@@UAEHPAVCWnd@@@Z 1002bf60 f   TitleTip.obj
 0001:0002afc0       ?DestroyWindow@CTitleTip@@UAEHXZ 1002bfc0 f   TitleTip.obj
 0001:0002afd0       ?GetMessageMap@CTitleTip@@MBEPBUAFX_MSGMAP@@XZ 1002bfd0 f   TitleTip.obj
 0001:0002afe0       ?GetThisMessageMap@CTitleTip@@KGPBUAFX_MSGMAP@@XZ 1002bfe0 f   TitleTip.obj
 0001:0002aff0       ?Hide@CTitleTip@@QAEXXZ    1002bff0 f   TitleTip.obj
 0001:0002b040       ?OnMouseMove@CTitleTip@@IAEXIVCPoint@@@Z 1002c040 f   TitleTip.obj
 0001:0002b150       ?PreTranslateMessage@CTitleTip@@UAEHPAUtagMSG@@@Z 1002c150 f   TitleTip.obj
 0001:0002b3c0       ?Show@CTitleTip@@QAEXVCRect@@PBDHPAUtagRECT@@PBUtagLOGFONTA@@KK@Z 1002c3c0 f   TitleTip.obj
 0001:0002b730       _ExtRawDllMain@12          1002c730 f   IndexOptimizer.obj
 0001:0002b840       ?fnFuncCall@@YGJPAXPBD1AAUtagVARIANT@@@Z 1002c840 f   IndexOptimizer.obj
 0001:0002b8b0       ?fnInit@@YGJPAUSTODINIT_IN@@PAUSTODINIT_OUT@@PAXH@Z 1002c8b0 f   IndexOptimizer.obj
 0001:0002ba10       ?fnLoad@@YGJPAUSTODCREATEINFO_IN@@PAUSTODCREATEINFO_OUT@@@Z 1002ca10 f   IndexOptimizer.obj
 0001:0002bb50       ?fnUnLoad@@YGJPAX@Z        1002cb50 f   IndexOptimizer.obj
 0001:0002bb80       _CREATE_TRADING            1002cb80 f   IndexOptimizer.obj
 0001:0002bc20       _CREATE_TRADING_EX         1002cc20 f   IndexOptimizer.obj
 0001:0002bcc0       _DESTROY_TRADING           1002ccc0 f   IndexOptimizer.obj
 0001:0002bce0       _DllMain@12                1002cce0 f   IndexOptimizer.obj
 0001:0002bd40       ?Allocate@CAtlStringMgr@ATL@@UAEPAUCStringData@2@HH@Z 1002cd40 f i StdAfx.obj
 0001:0002bdb0       ?Free@CAtlStringMgr@ATL@@UAEXPAUCStringData@2@@Z 1002cdb0 f i StdAfx.obj
 0001:0002bdc0       ?Reallocate@CAtlStringMgr@ATL@@UAEPAUCStringData@2@PAU32@HH@Z 1002cdc0 f i StdAfx.obj
 0001:0002be20       ?GetNilString@CAtlStringMgr@ATL@@UAEPAUCStringData@2@XZ 1002ce20 f i StdAfx.obj
 0001:0002be30       ?Clone@CAtlStringMgr@ATL@@UAEPAUIAtlStringMgr@2@XZ 1002ce30 f i StdAfx.obj
 0001:0002be40       ??_GCAtlStringMgr@ATL@@UAEPAXI@Z 1002ce40 f i StdAfx.obj
 0001:0002be40       ??_ECAtlStringMgr@ATL@@UAEPAXI@Z 1002ce40 f i StdAfx.obj
 0001:0002be70       ?_AfxInitManaged@@YAHXZ    1002ce70 f i StdAfx.obj
 0001:0002be80       ?Allocate@CWin32Heap@ATL@@UAEPAXI@Z 1002ce80 f i StdAfx.obj
 0001:0002bea0       ?Free@CWin32Heap@ATL@@UAEXPAX@Z 1002cea0 f i StdAfx.obj
 0001:0002bec0       ?Reallocate@CWin32Heap@ATL@@UAEPAXPAXI@Z 1002cec0 f i StdAfx.obj
 0001:0002bf00       ?GetSize@CWin32Heap@ATL@@UAEIPAX@Z 1002cf00 f i StdAfx.obj
 0001:0002bf20       ??_ECWin32Heap@ATL@@UAEPAXI@Z 1002cf20 f i StdAfx.obj
 0001:0002bf20       ??_GCWin32Heap@ATL@@UAEPAXI@Z 1002cf20 f i StdAfx.obj
 0001:0002bf60       ??1CAtlStringMgr@ATL@@UAE@XZ 1002cf60 f i StdAfx.obj
 0001:0002bf70       ??1CWin32Heap@ATL@@UAE@XZ  1002cf70 f i StdAfx.obj
 0001:0002bf90       ?EnsureLinked@CAtlStringMgrStaticInitializer@ATLImplementationDetails@ATL@@QAEPAXXZ 1002cf90 f i StdAfx.obj
 0001:0002bfa0       ?_AtlInitializeCriticalSectionEx@ATL@@YAHPAU_RTL_CRITICAL_SECTION@@KK@Z 1002cfa0 f i StdAfx.obj
 0001:0002bfc0       ?_AtlRaiseException@ATL@@YAXKK@Z 1002cfc0 f i StdAfx.obj
 0001:0002bfe0       ??0CTabSoonikChart@@QAE@PAVCWnd@@@Z 1002cfe0 f   TabEarnChart.obj
 0001:0002c0a0       ??1CMschart1@@UAE@XZ       1002d0a0 f i TabEarnChart.obj
 0001:0002c0b0       ??1CSeries@@QAE@XZ         1002d0b0 f i TabEarnChart.obj
 0001:0002c100       ??1CTChart@@UAE@XZ         1002d100 f i TabEarnChart.obj
 0001:0002c110       ??1CTabSoonikChart@@UAE@XZ 1002d110 f   TabEarnChart.obj
 0001:0002c190       ??_ECTabSoonikChart@@UAEPAXI@Z 1002d190 f i TabEarnChart.obj
 0001:0002c190       ??_GCTabSoonikChart@@UAEPAXI@Z 1002d190 f i TabEarnChart.obj
 0001:0002c240       ?DoDataExchange@CTabSoonikChart@@MAEXPAVCDataExchange@@@Z 1002d240 f   TabEarnChart.obj
 0001:0002c280       ?GetMessageMap@CTabSoonikChart@@MBEPBUAFX_MSGMAP@@XZ 1002d280 f   TabEarnChart.obj
 0001:0002c290       ?GetThisMessageMap@CTabSoonikChart@@KGPBUAFX_MSGMAP@@XZ 1002d290 f   TabEarnChart.obj
 0001:0002c2a0       ?OnBnClickedRadio1@CTabSoonikChart@@IAEXXZ 1002d2a0 f   TabEarnChart.obj
 0001:0002c2c0       ?OnBnClickedRadio2@CTabSoonikChart@@IAEXXZ 1002d2c0 f   TabEarnChart.obj
 0001:0002c2e0       ?OnCancel@CTabSoonikChart@@MAEXXZ 1002d2e0 f   TabEarnChart.obj
 0001:0002c2f0       ?OnCtlColor@CTabSoonikChart@@IAEPAUHBRUSH__@@PAVCDC@@PAVCWnd@@I@Z 1002d2f0 f   TabEarnChart.obj
 0001:0002c330       ?OnInitDialog@CTabSoonikChart@@MAEHXZ 1002d330 f   TabEarnChart.obj
 0001:0002c3a0       ?OnOK@CTabSoonikChart@@MAEXXZ 1002d3a0 f   TabEarnChart.obj
 0001:0002c3b0       ?PrepareShow@CTabSoonikChart@@QAEXH@Z 1002d3b0 f   TabEarnChart.obj
 0001:0002c450       ?ShowData1Chart@CTabSoonikChart@@QAEXJ@Z 1002d450 f   TabEarnChart.obj
 0001:0002c580       ?ShowData2Chart@CTabSoonikChart@@QAEXAAVCStringArray@@H@Z 1002d580 f   TabEarnChart.obj
 0001:0002c700       ??0CTabSonikChart@@QAE@PAVCWnd@@@Z 1002d700 f   TabSonikChart.obj
 0001:0002c820       ??1CTabSonikChart@@UAE@XZ  1002d820 f   TabSonikChart.obj
 0001:0002c8e0       ??_ECTabSonikChart@@UAEPAXI@Z 1002d8e0 f i TabSonikChart.obj
 0001:0002c8e0       ??_GCTabSonikChart@@UAEPAXI@Z 1002d8e0 f i TabSonikChart.obj
 0001:0002c9d0       ?CountData@CTabSonikChart@@QAEXPAHAAH0H1@Z 1002d9d0 f   TabSonikChart.obj
 0001:0002cb10       ?DisplayData2Chart@CTabSonikChart@@QAEXPAHHH@Z 1002db10 f   TabSonikChart.obj
 0001:0002cdc0       ?DoDataExchange@CTabSonikChart@@MAEXPAVCDataExchange@@@Z 1002ddc0 f   TabSonikChart.obj
 0001:0002ce50       ?GetMessageMap@CTabSonikChart@@MBEPBUAFX_MSGMAP@@XZ 1002de50 f   TabSonikChart.obj
 0001:0002ce60       ?GetThisMessageMap@CTabSonikChart@@KGPBUAFX_MSGMAP@@XZ 1002de60 f   TabSonikChart.obj
 0001:0002ce70       ?MyChartCompare@@YAHPBX0@Z 1002de70 f   TabSonikChart.obj
 0001:0002ce90       ?OnCancel@CTabSonikChart@@MAEXXZ 1002de90 f   TabSonikChart.obj
 0001:0002cea0       ?OnCtlColor@CTabSonikChart@@IAEPAUHBRUSH__@@PAVCDC@@PAVCWnd@@I@Z 1002dea0 f   TabSonikChart.obj
 0001:0002cee0       ?OnInitDialog@CTabSonikChart@@MAEHXZ 1002dee0 f   TabSonikChart.obj
 0001:0002cef0       ?OnKillfocusEdtWidth@CTabSonikChart@@IAEXXZ 1002def0 f   TabSonikChart.obj
 0001:0002cf00       ?OnOK@CTabSonikChart@@MAEXXZ 1002df00 f   TabSonikChart.obj
 0001:0002cfc0       ?RoundToUnit@CTabSonikChart@@QAEHH@Z 1002dfc0 f   TabSonikChart.obj
 0001:0002d030       ?ShowData1Chart@CTabSonikChart@@QAEXJ@Z 1002e030 f   TabSonikChart.obj
 0001:0002d1b0       ?SortData@CTabSonikChart@@QAEHPAHH@Z 1002e1b0 f   TabSonikChart.obj
 0001:0002d1d0       ??0CExDrawButton@@QAE@H@Z  1002e1d0 f   ExControl:ExDrawButton.obj
 0001:0002d260       ??0CLoaderDrawButton@@QAE@PAXH@Z 1002e260 f i ExControl:ExDrawButton.obj
 0001:0002d580       ??1CExDrawButton@@UAE@XZ   1002e580 f   ExControl:ExDrawButton.obj
 0001:0002d630       ??1CExLoadLib@@QAE@XZ      1002e630 f i ExControl:ExDrawButton.obj
 0001:0002d650       ??_ECExDrawButton@@UAEPAXI@Z 1002e650 f i ExControl:ExDrawButton.obj
 0001:0002d650       ??_GCExDrawButton@@UAEPAXI@Z 1002e650 f i ExControl:ExDrawButton.obj
 0001:0002d720       ?ActionControl@CExDrawButton@@QAEJPAX@Z 1002e720 f   ExControl:ExDrawButton.obj
 0001:0002d750       ?AddToggleGroup@CExDrawButton@@QAAXPAV1@ZZ 1002e750 f   ExControl:ExDrawButton.obj
 0001:0002d7c0       ?DrawItem@CExDrawButton@@UAEXPAUtagDRAWITEMSTRUCT@@@Z 1002e7c0 f   ExControl:ExDrawButton.obj
 0001:0002d7f0       ?GetMessageMap@CExDrawButton@@MBEPBUAFX_MSGMAP@@XZ 1002e7f0 f   ExControl:ExDrawButton.obj
 0001:0002d800       ?GetText@CExDrawButton@@QAEPBDXZ 1002e800 f   ExControl:ExDrawButton.obj
 0001:0002d830       ?GetThisMessageMap@CExDrawButton@@KGPBUAFX_MSGMAP@@XZ 1002e830 f   ExControl:ExDrawButton.obj
 0001:0002d840       ?GetToggleState@CExDrawButton@@UAEHXZ 1002e840 f   ExControl:ExDrawButton.obj
 0001:0002d880       ?LoadProcAddress@CExLoadLib@@UAEHXZ 1002e880 f i ExControl:ExDrawButton.obj
 0001:0002d890       ?LoadProcAddress@CLoaderDrawButton@@UAEHXZ 1002e890 f i ExControl:ExDrawButton.obj
 0001:0002d960       ?OnClicked@CExDrawButton@@IAEHXZ 1002e960 f   ExControl:ExDrawButton.obj
 0001:0002d9a0       ?OnDestroy@CExDrawButton@@IAEXXZ 1002e9a0 f   ExControl:ExDrawButton.obj
 0001:0002d9b0       ?PreSubclassWindow@CExDrawButton@@MAEXXZ 1002e9b0 f   ExControl:ExDrawButton.obj
 0001:0002d9e0       ?ReleasePushed@CExDrawButton@@UAEXXZ 1002e9e0 f   ExControl:ExDrawButton.obj
 0001:0002da20       ?SetButtonColor@CExDrawButton@@QAEHI@Z 1002ea20 f   ExControl:ExDrawButton.obj
 0001:0002da50       ?SetIconImage@CExDrawButton@@QAEHVCSize@@PAUHICON__@@1I@Z 1002ea50 f   ExControl:ExDrawButton.obj
 0001:0002da90       ?SetText@CExDrawButton@@QAEXPBD@Z 1002ea90 f   ExControl:ExDrawButton.obj
 0001:0002dac0       ?SetToggleState@CExDrawButton@@UAEXH@Z 1002eac0 f   ExControl:ExDrawButton.obj
 0001:0002db10       ?UseToggleMode@CExDrawButton@@UAEXH@Z 1002eb10 f   ExControl:ExDrawButton.obj
 0001:0002db60       ??0CExButton@@QAE@XZ       1002eb60 f   ExControl:ExButton.obj
 0001:0002db90       ??1CExButton@@UAE@XZ       1002eb90 f   ExControl:ExButton.obj
 0001:0002dba0       ??_ECButton@@UAEPAXI@Z     1002eba0 f i ExControl:ExButton.obj
 0001:0002dba0       ??_GCButton@@UAEPAXI@Z     1002eba0 f i ExControl:ExButton.obj
 0001:0002dbe0       ??_GCExButton@@UAEPAXI@Z   1002ebe0 f i ExControl:ExButton.obj
 0001:0002dbe0       ??_ECExButton@@UAEPAXI@Z   1002ebe0 f i ExControl:ExButton.obj
 0001:0002dc30       ?DrawItem@CExButton@@UAEXPAUtagDRAWITEMSTRUCT@@@Z 1002ec30 f   ExControl:ExButton.obj
 0001:0002dc40       ?GetMessageMap@CExButton@@MBEPBUAFX_MSGMAP@@XZ 1002ec40 f   ExControl:ExButton.obj
 0001:0002dc50       ?GetThisMessageMap@CExButton@@KGPBUAFX_MSGMAP@@XZ 1002ec50 f   ExControl:ExButton.obj
 0001:0002dc60       ?PreSubclassWindow@CExButton@@MAEXXZ 1002ec60 f   ExControl:ExButton.obj
 0001:0002dc90       ?Serialize@?$CArray@PAXPAX@@UAEXAAVCArchive@@@Z 1002ec90 f i ExControl:StdAfx.obj
 0001:0002dd70       ??_E?$CArray@PAXPAX@@UAEPAXI@Z 1002ed70 f i ExControl:StdAfx.obj
 0001:0002dd70       ??_G?$CArray@PAXPAX@@UAEPAXI@Z 1002ed70 f i ExControl:StdAfx.obj
 0001:0002ddc0       ??$SerializeElements@PAX@@YGXAAVCArchive@@PAPAXH@Z 1002edc0 f i ExControl:StdAfx.obj
 0001:0002de70       ??0?$CArray@PAXPAX@@QAE@XZ 1002ee70 f i ExControl:StdAfx.obj
 0001:0002dea0       ??1?$CArray@PAXPAX@@UAE@XZ 1002eea0 f i ExControl:StdAfx.obj
 0001:0002dec0       ?CompareParamter@@YAHPADV?$CStringT@DV?$StrTraitMFC_DLL@DV?$ChTraitsCRT@D@ATL@@@@@ATL@@@Z 1002eec0 f   ExControl:StdAfx.obj
 0001:0002df80       ?CreateObject@?$CThreadLocal@VAFX_MODULE_THREAD_STATE@@@@SGPAVCNoTrackObject@@XZ 1002ef80 f i ExControl:StdAfx.obj
 0001:0002dff0       ?GetParamterValue@@YAXPBDAAV?$CStringT@DV?$StrTraitMFC_DLL@DV?$ChTraitsCRT@D@ATL@@@@@ATL@@V12@@Z 1002eff0 f   ExControl:StdAfx.obj
 0001:0002e0e0       ?RemovePermanentHandle@@YAXPAX@Z 1002f0e0 f   ExControl:StdAfx.obj
 0001:0002e120       ?SetAtGrow@?$CArray@PAXPAX@@QAEXHPAX@Z 1002f120 f i ExControl:StdAfx.obj
 0001:0002e160       ?SetPermanentHandle@@YAXPAXPAVCObject@@@Z 1002f160 f   ExControl:StdAfx.obj
 0001:0002e230       ?SetSize@?$CArray@PAXPAX@@QAEXHH@Z 1002f230 f i ExControl:StdAfx.obj
 0001:0002e40c       ??3@YAXPAX@Z               1002f40c f   mfc140:mfc140.dll
 0001:0002e412       ??_U@YAPAXI@Z              1002f412 f   mfc140:mfc140.dll
 0001:0002e418       ??_V@YAXPAX@Z              1002f418 f   mfc140:mfc140.dll
 0001:0002e41e       ?AfxThrowMemoryException@@YGXXZ 1002f41e f   mfc140:mfc140.dll
 0001:0002e424       ?AfxThrowInvalidArgException@@YGXXZ 1002f424 f   mfc140:mfc140.dll
 0001:0002e42a       ?AfxThrowArchiveException@@YGXHPBD@Z 1002f42a f   mfc140:mfc140.dll
 0001:0002e430       ?GetRuntimeClass@CObject@@UBEPAUCRuntimeClass@@XZ 1002f430 f   mfc140:mfc140.dll
 0001:0002e436       ??0?$CStringT@DV?$StrTraitMFC_DLL@DV?$ChTraitsCRT@D@ATL@@@@@ATL@@QAE@XZ 1002f436 f   mfc140:mfc140.dll
 0001:0002e43c       ??0?$CStringT@DV?$StrTraitMFC_DLL@DV?$ChTraitsCRT@D@ATL@@@@@ATL@@QAE@ABV01@@Z 1002f43c f   mfc140:mfc140.dll
 0001:0002e442       ??1?$CStringT@DV?$StrTraitMFC_DLL@DV?$ChTraitsCRT@D@ATL@@@@@ATL@@QAE@XZ 1002f442 f   mfc140:mfc140.dll
 0001:0002e448       ??4?$CStringT@DV?$StrTraitMFC_DLL@DV?$ChTraitsCRT@D@ATL@@@@@ATL@@QAEAAV01@PBD@Z 1002f448 f   mfc140:mfc140.dll
 0001:0002e44e       ?Read@CArchive@@QAEIPAXI@Z 1002f44e f   mfc140:mfc140.dll
 0001:0002e454       ?Write@CArchive@@QAEXPBXI@Z 1002f454 f   mfc140:mfc140.dll
 0001:0002e45a       ?ReadCount@CArchive@@QAEKXZ 1002f45a f   mfc140:mfc140.dll
 0001:0002e460       ?WriteCount@CArchive@@QAEXK@Z 1002f460 f   mfc140:mfc140.dll
 0001:0002e466       ??0CMapStringToString@@QAE@H@Z 1002f466 f   mfc140:mfc140.dll
 0001:0002e46c       ?Lookup@CMapStringToString@@QBEHPBDAAV?$CStringT@DV?$StrTraitMFC_DLL@DV?$ChTraitsCRT@D@ATL@@@@@ATL@@@Z 1002f46c f   mfc140:mfc140.dll
 0001:0002e472       ??ACMapStringToString@@QAEAAV?$CStringT@DV?$StrTraitMFC_DLL@DV?$ChTraitsCRT@D@ATL@@@@@ATL@@PBD@Z 1002f472 f   mfc140:mfc140.dll
 0001:0002e478       ??1CMapStringToString@@UAE@XZ 1002f478 f   mfc140:mfc140.dll
 0001:0002e47e       ??4?$CStringT@DV?$StrTraitMFC_DLL@DV?$ChTraitsCRT@D@ATL@@@@@ATL@@QAEAAV01@ABV01@@Z 1002f47e f   mfc140:mfc140.dll
 0001:0002e484       ??0CStringArray@@QAE@XZ    1002f484 f   mfc140:mfc140.dll
 0001:0002e48a       ?SetSize@CStringArray@@QAEXHH@Z 1002f48a f   mfc140:mfc140.dll
 0001:0002e490       ?SetAtGrow@CStringArray@@QAEXHPBD@Z 1002f490 f   mfc140:mfc140.dll
 0001:0002e496       ??1CStringArray@@UAE@XZ    1002f496 f   mfc140:mfc140.dll
 0001:0002e49c       ??2@YAPAXI@Z               1002f49c f   mfc140:mfc140.dll
 0001:0002e4a2       ??0?$CStringT@DV?$StrTraitMFC_DLL@DV?$ChTraitsCRT@D@ATL@@@@@ATL@@QAE@PBD@Z 1002f4a2 f   mfc140:mfc140.dll
 0001:0002e4a8       ?Format@?$CStringT@DV?$StrTraitMFC_DLL@DV?$ChTraitsCRT@D@ATL@@@@@ATL@@QAAXPBDZZ 1002f4a8 f   mfc140:mfc140.dll
 0001:0002e4ae       ??0CPtrArray@@QAE@XZ       1002f4ae f   mfc140:mfc140.dll
 0001:0002e4b4       ?SetSize@CPtrArray@@QAEXHH@Z 1002f4b4 f   mfc140:mfc140.dll
 0001:0002e4ba       ?SetAtGrow@CPtrArray@@QAEXHPAX@Z 1002f4ba f   mfc140:mfc140.dll
 0001:0002e4c0       ?InsertAt@CPtrArray@@QAEXHPAXH@Z 1002f4c0 f   mfc140:mfc140.dll
 0001:0002e4c6       ?RemoveAt@CPtrArray@@QAEXHH@Z 1002f4c6 f   mfc140:mfc140.dll
 0001:0002e4cc       ??1CPtrArray@@UAE@XZ       1002f4cc f   mfc140:mfc140.dll
 0001:0002e4d2       ?GetRuntimeClass@CGdiObject@@UBEPAUCRuntimeClass@@XZ 1002f4d2 f   mfc140:mfc140.dll
 0001:0002e4d8       ?Attach@CGdiObject@@QAEHPAX@Z 1002f4d8 f   mfc140:mfc140.dll
 0001:0002e4de       ?DeleteObject@CGdiObject@@QAEHXZ 1002f4de f   mfc140:mfc140.dll
 0001:0002e4e4       ?GetRuntimeClass@CPen@@UBEPAUCRuntimeClass@@XZ 1002f4e4 f   mfc140:mfc140.dll
 0001:0002e4ea       ??0CPen@@QAE@HHK@Z         1002f4ea f   mfc140:mfc140.dll
 0001:0002e4f0       ?GetRuntimeClass@CFont@@UBEPAUCRuntimeClass@@XZ 1002f4f0 f   mfc140:mfc140.dll
 0001:0002e4f6       ?GetRuntimeClass@CBitmap@@UBEPAUCRuntimeClass@@XZ 1002f4f6 f   mfc140:mfc140.dll
 0001:0002e4fc       ?GetRuntimeClass@CRgn@@UBEPAUCRuntimeClass@@XZ 1002f4fc f   mfc140:mfc140.dll
 0001:0002e502       ?Attach@CDC@@QAEHPAUHDC__@@@Z 1002f502 f   mfc140:mfc140.dll
 0001:0002e508       ??0CDC@@QAE@XZ             1002f508 f   mfc140:mfc140.dll
 0001:0002e50e       ?SaveDC@CDC@@UAEHXZ        1002f50e f   mfc140:mfc140.dll
 0001:0002e514       ?RestoreDC@CDC@@UAEHH@Z    1002f514 f   mfc140:mfc140.dll
 0001:0002e51a       ?SelectObject@CDC@@QAEPAVCPen@@PAV2@@Z 1002f51a f   mfc140:mfc140.dll
 0001:0002e520       ?SelectObject@CDC@@UAEPAVCFont@@PAV2@@Z 1002f520 f   mfc140:mfc140.dll
 0001:0002e526       ?SetBkMode@CDC@@QAEHH@Z    1002f526 f   mfc140:mfc140.dll
 0001:0002e52c       ?SetTextColor@CDC@@UAEKK@Z 1002f52c f   mfc140:mfc140.dll
 0001:0002e532       ?SelectClipRgn@CDC@@QAEHPAVCRgn@@@Z 1002f532 f   mfc140:mfc140.dll
 0001:0002e538       ?ExcludeClipRect@CDC@@QAEHPBUtagRECT@@@Z 1002f538 f   mfc140:mfc140.dll
 0001:0002e53e       ?MoveTo@CDC@@QAE?AVCPoint@@HH@Z 1002f53e f   mfc140:mfc140.dll
 0001:0002e544       ?LineTo@CDC@@QAEHHH@Z      1002f544 f   mfc140:mfc140.dll
 0001:0002e54a       ?FillSolidRect@CDC@@QAEXPBUtagRECT@@K@Z 1002f54a f   mfc140:mfc140.dll
 0001:0002e550       ?Draw3dRect@CDC@@QAEXPBUtagRECT@@KK@Z 1002f550 f   mfc140:mfc140.dll
 0001:0002e556       ??1CDC@@UAE@XZ             1002f556 f   mfc140:mfc140.dll
 0001:0002e55c       ?SelectGdiObject@CDC@@KGPAVCGdiObject@@PAUHDC__@@PAX@Z 1002f55c f   mfc140:mfc140.dll
 0001:0002e562       ??0CPaintDC@@QAE@PAVCWnd@@@Z 1002f562 f   mfc140:mfc140.dll
 0001:0002e568       ??1CPaintDC@@UAE@XZ        1002f568 f   mfc140:mfc140.dll
 0001:0002e56e       ??0CClientDC@@QAE@PAVCWnd@@@Z 1002f56e f   mfc140:mfc140.dll
 0001:0002e574       ??1CClientDC@@UAE@XZ       1002f574 f   mfc140:mfc140.dll
 0001:0002e57a       ?OnCmdMsg@CCmdTarget@@UAEHIHPAXPAUAFX_CMDHANDLERINFO@@@Z 1002f57a f   mfc140:mfc140.dll
 0001:0002e580       ?IsInvokeAllowed@CCmdTarget@@UAEHJ@Z 1002f580 f   mfc140:mfc140.dll
 0001:0002e586       ?GetDispatchIID@CCmdTarget@@UAEHPAU_GUID@@@Z 1002f586 f   mfc140:mfc140.dll
 0001:0002e58c       ?GetTypeInfoCount@CCmdTarget@@UAEIXZ 1002f58c f   mfc140:mfc140.dll
 0001:0002e592       ?GetTypeLibCache@CCmdTarget@@UAEPAVCTypeLibCache@@XZ 1002f592 f   mfc140:mfc140.dll
 0001:0002e598       ?GetTypeLib@CCmdTarget@@UAEJKPAPAUITypeLib@@@Z 1002f598 f   mfc140:mfc140.dll
 0001:0002e59e       ?GetCommandMap@CCmdTarget@@MBEPBUAFX_OLECMDMAP@@XZ 1002f59e f   mfc140:mfc140.dll
 0001:0002e5a4       ?GetDispatchMap@CCmdTarget@@MBEPBUAFX_DISPMAP@@XZ 1002f5a4 f   mfc140:mfc140.dll
 0001:0002e5aa       ?GetConnectionMap@CCmdTarget@@MBEPBUAFX_CONNECTIONMAP@@XZ 1002f5aa f   mfc140:mfc140.dll
 0001:0002e5b0       ?GetEventSinkMap@CCmdTarget@@MBEPBUAFX_EVENTSINKMAP@@XZ 1002f5b0 f   mfc140:mfc140.dll
 0001:0002e5b6       ?OnCreateAggregates@CCmdTarget@@UAEHXZ 1002f5b6 f   mfc140:mfc140.dll
 0001:0002e5bc       ?GetInterfaceHook@CCmdTarget@@UAEPAUIUnknown@@PBX@Z 1002f5bc f   mfc140:mfc140.dll
 0001:0002e5c2       ?GetExtraConnectionPoints@CCmdTarget@@MAEHPAVCPtrArray@@@Z 1002f5c2 f   mfc140:mfc140.dll
 0001:0002e5c8       ?GetConnectionHook@CCmdTarget@@MAEPAUIConnectionPoint@@ABU_GUID@@@Z 1002f5c8 f   mfc140:mfc140.dll
 0001:0002e5ce       ?GetThisClass@CWnd@@SGPAUCRuntimeClass@@XZ 1002f5ce f   mfc140:mfc140.dll
 0001:0002e5d4       ??0CWnd@@QAE@XZ            1002f5d4 f   mfc140:mfc140.dll
 0001:0002e5da       ?FromHandle@CWnd@@SGPAV1@PAUHWND__@@@Z 1002f5da f   mfc140:mfc140.dll
 0001:0002e5e0       ?PreSubclassWindow@CWnd@@UAEXXZ 1002f5e0 f   mfc140:mfc140.dll
 0001:0002e5e6       ?Create@CWnd@@UAEHPBD0KABUtagRECT@@PAV1@IPAUCCreateContext@@@Z 1002f5e6 f   mfc140:mfc140.dll
 0001:0002e5ec       ?CreateEx@CWnd@@UAEHKPBD0KHHHHPAUHWND__@@PAUHMENU__@@PAX@Z 1002f5ec f   mfc140:mfc140.dll
 0001:0002e5f2       ?CreateEx@CWnd@@UAEHKPBD0KABUtagRECT@@PAV1@IPAX@Z 1002f5f2 f   mfc140:mfc140.dll
 0001:0002e5f8       ?DestroyWindow@CWnd@@UAEHXZ 1002f5f8 f   mfc140:mfc140.dll
 0001:0002e5fe       ?PreCreateWindow@CWnd@@UAEHAAUtagCREATESTRUCTA@@@Z 1002f5fe f   mfc140:mfc140.dll
 0001:0002e604       ?CalcWindowRect@CWnd@@UAEXPAUtagRECT@@I@Z 1002f604 f   mfc140:mfc140.dll
 0001:0002e60a       ?GetMenu@CWnd@@UBEPAVCMenu@@XZ 1002f60a f   mfc140:mfc140.dll
 0001:0002e610       ?SetMenu@CWnd@@UAEHPAVCMenu@@@Z 1002f610 f   mfc140:mfc140.dll
 0001:0002e616       ?MoveWindow@CWnd@@QAEXHHHHH@Z 1002f616 f   mfc140:mfc140.dll
 0001:0002e61c       ?SetWindowPos@CWnd@@QAEHPBV1@HHHHI@Z 1002f61c f   mfc140:mfc140.dll
 0001:0002e622       ?ShowWindow@CWnd@@QAEHH@Z  1002f622 f   mfc140:mfc140.dll
 0001:0002e628       ?OnToolHitTest@CWnd@@UBEHVCPoint@@PAUtagTOOLINFOA@@@Z 1002f628 f   mfc140:mfc140.dll
 0001:0002e62e       ?SetFocus@CWnd@@QAEPAV1@XZ 1002f62e f   mfc140:mfc140.dll
 0001:0002e634       ?GetScrollBarCtrl@CWnd@@UBEPAVCScrollBar@@H@Z 1002f634 f   mfc140:mfc140.dll
 0001:0002e63a       ?WinHelpA@CWnd@@UAEXKI@Z   1002f63a f   mfc140:mfc140.dll
 0001:0002e640       ?HtmlHelpA@CWnd@@UAEXKI@Z  1002f640 f   mfc140:mfc140.dll
 0001:0002e646       ?WinHelpInternal@CWnd@@UAEXKI@Z 1002f646 f   mfc140:mfc140.dll
 0001:0002e64c       ?ContinueModal@CWnd@@UAEHXZ 1002f64c f   mfc140:mfc140.dll
 0001:0002e652       ?EndModalLoop@CWnd@@UAEXH@Z 1002f652 f   mfc140:mfc140.dll
 0001:0002e658       ?OnDrawIconicThumbnailOrLivePreview@CWnd@@UAEXAAVCDC@@VCRect@@VCSize@@HAAH@Z 1002f658 f   mfc140:mfc140.dll
 0001:0002e65e       ?GetInterfaceMap@CWnd@@MBEPBUAFX_INTERFACEMAP@@XZ 1002f65e f   mfc140:mfc140.dll
 0001:0002e664       ?EnsureStdObj@CWnd@@UAEJXZ 1002f664 f   mfc140:mfc140.dll
 0001:0002e66a       ?get_accParent@CWnd@@UAEJPAPAUIDispatch@@@Z 1002f66a f   mfc140:mfc140.dll
 0001:0002e670       ?get_accChildCount@CWnd@@UAEJPAJ@Z 1002f670 f   mfc140:mfc140.dll
 0001:0002e676       ?get_accChild@CWnd@@UAEJUtagVARIANT@@PAPAUIDispatch@@@Z 1002f676 f   mfc140:mfc140.dll
 0001:0002e67c       ?get_accName@CWnd@@UAEJUtagVARIANT@@PAPA_W@Z 1002f67c f   mfc140:mfc140.dll
 0001:0002e682       ?get_accValue@CWnd@@UAEJUtagVARIANT@@PAPA_W@Z 1002f682 f   mfc140:mfc140.dll
 0001:0002e688       ?get_accDescription@CWnd@@UAEJUtagVARIANT@@PAPA_W@Z 1002f688 f   mfc140:mfc140.dll
 0001:0002e68e       ?get_accRole@CWnd@@UAEJUtagVARIANT@@PAU2@@Z 1002f68e f   mfc140:mfc140.dll
 0001:0002e694       ?get_accState@CWnd@@UAEJUtagVARIANT@@PAU2@@Z 1002f694 f   mfc140:mfc140.dll
 0001:0002e69a       ?get_accHelp@CWnd@@UAEJUtagVARIANT@@PAPA_W@Z 1002f69a f   mfc140:mfc140.dll
 0001:0002e6a0       ?get_accHelpTopic@CWnd@@UAEJPAPA_WUtagVARIANT@@PAJ@Z 1002f6a0 f   mfc140:mfc140.dll
 0001:0002e6a6       ?get_accKeyboardShortcut@CWnd@@UAEJUtagVARIANT@@PAPA_W@Z 1002f6a6 f   mfc140:mfc140.dll
 0001:0002e6ac       ?get_accFocus@CWnd@@UAEJPAUtagVARIANT@@@Z 1002f6ac f   mfc140:mfc140.dll
 0001:0002e6b2       ?get_accSelection@CWnd@@UAEJPAUtagVARIANT@@@Z 1002f6b2 f   mfc140:mfc140.dll
 0001:0002e6b8       ?get_accDefaultAction@CWnd@@UAEJUtagVARIANT@@PAPA_W@Z 1002f6b8 f   mfc140:mfc140.dll
 0001:0002e6be       ?accSelect@CWnd@@UAEJJUtagVARIANT@@@Z 1002f6be f   mfc140:mfc140.dll
 0001:0002e6c4       ?accLocation@CWnd@@UAEJPAJ000UtagVARIANT@@@Z 1002f6c4 f   mfc140:mfc140.dll
 0001:0002e6ca       ?accNavigate@CWnd@@UAEJJUtagVARIANT@@PAU2@@Z 1002f6ca f   mfc140:mfc140.dll
 0001:0002e6d0       ?accHitTest@CWnd@@UAEJJJPAUtagVARIANT@@@Z 1002f6d0 f   mfc140:mfc140.dll
 0001:0002e6d6       ?accDoDefaultAction@CWnd@@UAEJUtagVARIANT@@@Z 1002f6d6 f   mfc140:mfc140.dll
 0001:0002e6dc       ?put_accName@CWnd@@UAEJUtagVARIANT@@PA_W@Z 1002f6dc f   mfc140:mfc140.dll
 0001:0002e6e2       ?put_accValue@CWnd@@UAEJUtagVARIANT@@PA_W@Z 1002f6e2 f   mfc140:mfc140.dll
 0001:0002e6e8       ?SetProxy@CWnd@@UAEJPAUIAccessibleProxy@@@Z 1002f6e8 f   mfc140:mfc140.dll
 0001:0002e6ee       ?CreateAccessibleProxy@CWnd@@UAEJIJPAJ@Z 1002f6ee f   mfc140:mfc140.dll
 0001:0002e6f4       ?OnCommand@CWnd@@MAEHIJ@Z  1002f6f4 f   mfc140:mfc140.dll
 0001:0002e6fa       ?OnNotify@CWnd@@MAEHIJPAJ@Z 1002f6fa f   mfc140:mfc140.dll
 0001:0002e700       ?OnDestroy@CWnd@@IAEXXZ    1002f700 f   mfc140:mfc140.dll
 0001:0002e706       ?GetSuperWndProcAddr@CWnd@@MAEPAP6GJPAUHWND__@@IIJ@ZXZ 1002f706 f   mfc140:mfc140.dll
 0001:0002e70c       ?PreTranslateMessage@CWnd@@UAEHPAUtagMSG@@@Z 1002f70c f   mfc140:mfc140.dll
 0001:0002e712       ?OnAmbientProperty@CWnd@@UAEHPAVCOleControlSite@@JPAUtagVARIANT@@@Z 1002f712 f   mfc140:mfc140.dll
 0001:0002e718       ?WindowProc@CWnd@@MAEJIIJ@Z 1002f718 f   mfc140:mfc140.dll
 0001:0002e71e       ?OnWndMsg@CWnd@@MAEHIIJPAJ@Z 1002f71e f   mfc140:mfc140.dll
 0001:0002e724       ?Default@CWnd@@IAEJXZ      1002f724 f   mfc140:mfc140.dll
 0001:0002e72a       ?DefWindowProcA@CWnd@@MAEJIIJ@Z 1002f72a f   mfc140:mfc140.dll
 0001:0002e730       ?PostNcDestroy@CWnd@@MAEXXZ 1002f730 f   mfc140:mfc140.dll
 0001:0002e736       ?OnChildNotify@CWnd@@MAEHIIJPAJ@Z 1002f736 f   mfc140:mfc140.dll
 0001:0002e73c       ?OnTouchInputs@CWnd@@MAEHIPAUtagTOUCHINPUT@@@Z 1002f73c f   mfc140:mfc140.dll
 0001:0002e742       ?OnTouchInput@CWnd@@MAEHVCPoint@@HHPAUtagTOUCHINPUT@@@Z 1002f742 f   mfc140:mfc140.dll
 0001:0002e748       ?GetGestureStatus@CWnd@@MAEKVCPoint@@@Z 1002f748 f   mfc140:mfc140.dll
 0001:0002e74e       ?OnGestureZoom@CWnd@@MAEHVCPoint@@J@Z 1002f74e f   mfc140:mfc140.dll
 0001:0002e754       ?OnGesturePan@CWnd@@MAEHVCPoint@@0@Z 1002f754 f   mfc140:mfc140.dll
 0001:0002e75a       ?OnGestureRotate@CWnd@@MAEHVCPoint@@N@Z 1002f75a f   mfc140:mfc140.dll
 0001:0002e760       ?OnGestureTwoFingerTap@CWnd@@MAEHVCPoint@@@Z 1002f760 f   mfc140:mfc140.dll
 0001:0002e766       ?OnGesturePressAndTap@CWnd@@MAEHVCPoint@@J@Z 1002f766 f   mfc140:mfc140.dll
 0001:0002e76c       ?ResizeDynamicLayout@CWnd@@MAEXXZ 1002f76c f   mfc140:mfc140.dll
 0001:0002e772       ??1CWnd@@UAE@XZ            1002f772 f   mfc140:mfc140.dll
 0001:0002e778       ?CheckAutoCenter@CWnd@@UAEHXZ 1002f778 f   mfc140:mfc140.dll
 0001:0002e77e       ?IsFrameWnd@CWnd@@UBEHXZ   1002f77e f   mfc140:mfc140.dll
 0001:0002e784       ?OnFinalRelease@CWnd@@UAEXXZ 1002f784 f   mfc140:mfc140.dll
 0001:0002e78a       ?CreateControlContainer@CWnd@@MAEHPAPAVCOleControlContainer@@@Z 1002f78a f   mfc140:mfc140.dll
 0001:0002e790       ?CreateControlSite@CWnd@@MAEHPAVCOleControlContainer@@PAPAVCOleControlSite@@IABU_GUID@@@Z 1002f790 f   mfc140:mfc140.dll
 0001:0002e796       ?SetOccDialogInfo@CWnd@@MAEHPAU_AFX_OCC_DIALOG_INFO@@@Z 1002f796 f   mfc140:mfc140.dll
 0001:0002e79c       ?GetOccDialogInfo@CWnd@@MAEPAU_AFX_OCC_DIALOG_INFO@@XZ 1002f79c f   mfc140:mfc140.dll
 0001:0002e7a2       ?GetThisMessageMap@CWnd@@KGPBUAFX_MSGMAP@@XZ 1002f7a2 f   mfc140:mfc140.dll
 0001:0002e7a8       ?AfxMessageBox@@YGHPBDII@Z 1002f7a8 f   mfc140:mfc140.dll
 0001:0002e7ae       ?AfxLockTempMaps@@YGXXZ    1002f7ae f   mfc140:mfc140.dll
 0001:0002e7b4       ?AfxUnlockTempMaps@@YGHH@Z 1002f7b4 f   mfc140:mfc140.dll
 0001:0002e7ba       ?GetBuffer@?$CSimpleStringT@D$00@ATL@@QAEPADH@Z 1002f7ba f   mfc140:mfc140.dll
 0001:0002e7c0       ?GetBufferSetLength@?$CSimpleStringT@D$00@ATL@@QAEPADH@Z 1002f7c0 f   mfc140:mfc140.dll
 0001:0002e7c6       ?ReleaseBuffer@?$CSimpleStringT@D$00@ATL@@QAEXH@Z 1002f7c6 f   mfc140:mfc140.dll
 0001:0002e7cc       ?Concatenate@?$CSimpleStringT@D$00@ATL@@KAXAAV12@PBDH1H@Z 1002f7cc f   mfc140:mfc140.dll
 0001:0002e7d2       ??0?$CStringT@DV?$StrTraitMFC_DLL@DV?$ChTraitsCRT@D@ATL@@@@@ATL@@QAE@PAUIAtlStringMgr@1@@Z 1002f7d2 f   mfc140:mfc140.dll
 0001:0002e7d8       ?GetManager@?$CStringT@DV?$StrTraitMFC_DLL@DV?$ChTraitsCRT@D@ATL@@@@@ATL@@QBEPAUIAtlStringMgr@2@XZ 1002f7d8 f   mfc140:mfc140.dll
 0001:0002e7de       ?ReverseFind@?$CStringT@DV?$StrTraitMFC_DLL@DV?$ChTraitsCRT@D@ATL@@@@@ATL@@QBEHD@Z 1002f7de f   mfc140:mfc140.dll
 0001:0002e7e4       ?Left@?$CStringT@DV?$StrTraitMFC_DLL@DV?$ChTraitsCRT@D@ATL@@@@@ATL@@QBE?AV12@H@Z 1002f7e4 f   mfc140:mfc140.dll
 0001:0002e7ea       ??A?$CSimpleStringT@D$00@ATL@@QBEDH@Z 1002f7ea f   mfc140:mfc140.dll
 0001:0002e7f0       ??Y?$CStringT@DV?$StrTraitMFC_DLL@DV?$ChTraitsCRT@D@ATL@@@@@ATL@@QAEAAV01@PBD@Z 1002f7f0 f   mfc140:mfc140.dll
 0001:0002e7f6       ?CompareNoCase@?$CStringT@DV?$StrTraitMFC_DLL@DV?$ChTraitsCRT@D@ATL@@@@@ATL@@QBEHPBD@Z 1002f7f6 f   mfc140:mfc140.dll
 0001:0002e7fc       ?Find@?$CStringT@DV?$StrTraitMFC_DLL@DV?$ChTraitsCRT@D@ATL@@@@@ATL@@QBEHPBDH@Z 1002f7fc f   mfc140:mfc140.dll
 0001:0002e802       ??0CFileFind@@QAE@XZ       1002f802 f   mfc140:mfc140.dll
 0001:0002e808       ??1CFileFind@@UAE@XZ       1002f808 f   mfc140:mfc140.dll
 0001:0002e80e       ?GetFileName@CFileFind@@UBE?AV?$CStringT@DV?$StrTraitMFC_DLL@DV?$ChTraitsCRT@D@ATL@@@@@ATL@@XZ 1002f80e f   mfc140:mfc140.dll
 0001:0002e814       ?IsDots@CFileFind@@UBEHXZ  1002f814 f   mfc140:mfc140.dll
 0001:0002e81a       ?FindFile@CFileFind@@UAEHPBDK@Z 1002f81a f   mfc140:mfc140.dll
 0001:0002e820       ?FindNextFileA@CFileFind@@UAEHXZ 1002f820 f   mfc140:mfc140.dll
 0001:0002e826       ?SetAtGrow@CStringArray@@QAEXHABV?$CStringT@DV?$StrTraitMFC_DLL@DV?$ChTraitsCRT@D@ATL@@@@@ATL@@@Z 1002f826 f   mfc140:mfc140.dll
 0001:0002e82c       ?ModifyStyleEx@CWnd@@QAEHKKI@Z 1002f82c f   mfc140:mfc140.dll
 0001:0002e832       ?GetRuntimeClass@CTreeCtrl@@UBEPAUCRuntimeClass@@XZ 1002f832 f   mfc140:mfc140.dll
 0001:0002e838       ?Create@CTreeCtrl@@QAEHKABUtagRECT@@PAVCWnd@@I@Z 1002f838 f   mfc140:mfc140.dll
 0001:0002e83e       ?GetItemText@CTreeCtrl@@QBE?AV?$CStringT@DV?$StrTraitMFC_DLL@DV?$ChTraitsCRT@D@ATL@@@@@ATL@@PAU_TREEITEM@@@Z 1002f83e f   mfc140:mfc140.dll
 0001:0002e844       ?GetItemData@CTreeCtrl@@QBEKPAU_TREEITEM@@@Z 1002f844 f   mfc140:mfc140.dll
 0001:0002e84a       ?SetItem@CTreeCtrl@@QAEHPAU_TREEITEM@@IPBDHHIIJ@Z 1002f84a f   mfc140:mfc140.dll
 0001:0002e850       ?ItemHasChildren@CTreeCtrl@@QBEHPAU_TREEITEM@@@Z 1002f850 f   mfc140:mfc140.dll
 0001:0002e856       ?InsertItem@CTreeCtrl@@QAEPAU_TREEITEM@@IPBDHHIIJPAU2@1@Z 1002f856 f   mfc140:mfc140.dll
 0001:0002e85c       ?HitTest@CTreeCtrl@@QBEPAU_TREEITEM@@VCPoint@@PAI@Z 1002f85c f   mfc140:mfc140.dll
 0001:0002e862       ??1CTreeCtrl@@UAE@XZ       1002f862 f   mfc140:mfc140.dll
 0001:0002e868       ?OnDestroy@CTreeCtrl@@QAEXXZ 1002f868 f   mfc140:mfc140.dll
 0001:0002e86e       ?GetThisMessageMap@CTreeCtrl@@KGPBUAFX_MSGMAP@@XZ 1002f86e f   mfc140:mfc140.dll
 0001:0002e874       ?GetMessageMap@CTreeCtrl@@MBEPBUAFX_MSGMAP@@XZ 1002f874 f   mfc140:mfc140.dll
 0001:0002e87a       ?CreateControl@CWnd@@QAEHABU_GUID@@PBDKABUtagRECT@@PAV1@IPAVCFile@@HPA_W@Z 1002f87a f   mfc140:mfc140.dll
 0001:0002e880       ?GetMessageMap@CWnd@@MBEPBUAFX_MSGMAP@@XZ 1002f880 f   mfc140:mfc140.dll
 0001:0002e886       ?InvokeHelper@COleDispatchDriver@@QAAXJGGPAXPBEZZ 1002f886 f   mfc140:mfc140.dll
 0001:0002e88c       ?InvokeHelper@CWnd@@QAAXJGGPAXPBEZZ 1002f88c f   mfc140:mfc140.dll
 0001:0002e892       ??0COleDispatchDriver@@QAE@PAUIDispatch@@H@Z 1002f892 f   mfc140:mfc140.dll
 0001:0002e898       ?ReleaseDispatch@COleDispatchDriver@@QAEXXZ 1002f898 f   mfc140:mfc140.dll
 0001:0002e89e       ?FromHandle@CGdiObject@@SGPAV1@PAX@Z 1002f89e f   mfc140:mfc140.dll
 0001:0002e8a4       ?FromHandle@CDC@@SGPAV1@PAUHDC__@@@Z 1002f8a4 f   mfc140:mfc140.dll
 0001:0002e8aa       ?FromHandle@CImageList@@SGPAV1@PAU_IMAGELIST@@@Z 1002f8aa f   mfc140:mfc140.dll
 0001:0002e8b0       ?ModifyStyle@CWnd@@QAEHKKI@Z 1002f8b0 f   mfc140:mfc140.dll
 0001:0002e8b6       ?GetDlgCtrlID@CWnd@@QBEHXZ 1002f8b6 f   mfc140:mfc140.dll
 0001:0002e8bc       ?ClientToScreen@CWnd@@QBEXPAUtagRECT@@@Z 1002f8bc f   mfc140:mfc140.dll
 0001:0002e8c2       ?GetRuntimeClass@CTabCtrl@@UBEPAUCRuntimeClass@@XZ 1002f8c2 f   mfc140:mfc140.dll
 0001:0002e8c8       ?Create@CTabCtrl@@UAEHKABUtagRECT@@PAVCWnd@@I@Z 1002f8c8 f   mfc140:mfc140.dll
 0001:0002e8ce       ?CreateEx@CTabCtrl@@UAEHKKABUtagRECT@@PAVCWnd@@I@Z 1002f8ce f   mfc140:mfc140.dll
 0001:0002e8d4       ?DrawItem@CTabCtrl@@UAEXPAUtagDRAWITEMSTRUCT@@@Z 1002f8d4 f   mfc140:mfc140.dll
 0001:0002e8da       ??1CTabCtrl@@UAE@XZ        1002f8da f   mfc140:mfc140.dll
 0001:0002e8e0       ?OnChildNotify@CTabCtrl@@MAEHIIJPAJ@Z 1002f8e0 f   mfc140:mfc140.dll
 0001:0002e8e6       ?GetThisMessageMap@CTabCtrl@@KGPBUAFX_MSGMAP@@XZ 1002f8e6 f   mfc140:mfc140.dll
 0001:0002e8ec       ?GetMessageMap@CTabCtrl@@MBEPBUAFX_MSGMAP@@XZ 1002f8ec f   mfc140:mfc140.dll
 0001:0002e8f2       ?Empty@?$CSimpleStringT@D$00@ATL@@QAEXXZ 1002f8f2 f   mfc140:mfc140.dll
 0001:0002e8f8       ??Y?$CStringT@DV?$StrTraitMFC_DLL@DV?$ChTraitsCRT@D@ATL@@@@@ATL@@QAEAAV01@ABV?$CSimpleStringT@D$00@1@@Z 1002f8f8 f   mfc140:mfc140.dll
 0001:0002e8fe       ??Y?$CStringT@DV?$StrTraitMFC_DLL@DV?$ChTraitsCRT@D@ATL@@@@@ATL@@QAEAAV01@D@Z 1002f8fe f   mfc140:mfc140.dll
 0001:0002e904       ?Delete@?$CStringT@DV?$StrTraitMFC_DLL@DV?$ChTraitsCRT@D@ATL@@@@@ATL@@QAEHHH@Z 1002f904 f   mfc140:mfc140.dll
 0001:0002e90a       ?Insert@?$CStringT@DV?$StrTraitMFC_DLL@DV?$ChTraitsCRT@D@ATL@@@@@ATL@@QAEHHPBD@Z 1002f90a f   mfc140:mfc140.dll
 0001:0002e910       ?MakeReverse@?$CStringT@DV?$StrTraitMFC_DLL@DV?$ChTraitsCRT@D@ATL@@@@@ATL@@QAEAAV12@XZ 1002f910 f   mfc140:mfc140.dll
 0001:0002e916       ?TrimRight@?$CStringT@DV?$StrTraitMFC_DLL@DV?$ChTraitsCRT@D@ATL@@@@@ATL@@QAEAAV12@XZ 1002f916 f   mfc140:mfc140.dll
 0001:0002e91c       ?TrimLeft@?$CStringT@DV?$StrTraitMFC_DLL@DV?$ChTraitsCRT@D@ATL@@@@@ATL@@QAEAAV12@XZ 1002f91c f   mfc140:mfc140.dll
 0001:0002e922       ?Mid@?$CStringT@DV?$StrTraitMFC_DLL@DV?$ChTraitsCRT@D@ATL@@@@@ATL@@QBE?AV12@H@Z 1002f922 f   mfc140:mfc140.dll
 0001:0002e928       ?Mid@?$CStringT@DV?$StrTraitMFC_DLL@DV?$ChTraitsCRT@D@ATL@@@@@ATL@@QBE?AV12@HH@Z 1002f928 f   mfc140:mfc140.dll
 0001:0002e92e       ?GetRuntimeClass@CDialog@@UBEPAUCRuntimeClass@@XZ 1002f92e f   mfc140:mfc140.dll
 0001:0002e934       ?Create@CDialog@@UAEHPBDPAVCWnd@@@Z 1002f934 f   mfc140:mfc140.dll
 0001:0002e93a       ?CreateIndirect@CDialog@@UAEHPBUDLGTEMPLATE@@PAVCWnd@@PAX@Z 1002f93a f   mfc140:mfc140.dll
 0001:0002e940       ?CreateIndirect@CDialog@@UAEHPAXPAVCWnd@@@Z 1002f940 f   mfc140:mfc140.dll
 0001:0002e946       ??0CDialog@@QAE@IPAVCWnd@@@Z 1002f946 f   mfc140:mfc140.dll
 0001:0002e94c       ?DoModal@CDialog@@UAEHXZ   1002f94c f   mfc140:mfc140.dll
 0001:0002e952       ?OnInitDialog@CDialog@@UAEHXZ 1002f952 f   mfc140:mfc140.dll
 0001:0002e958       ?OnSetFont@CDialog@@UAEXPAVCFont@@@Z 1002f958 f   mfc140:mfc140.dll
 0001:0002e95e       ?OnOK@CDialog@@MAEXXZ      1002f95e f   mfc140:mfc140.dll
 0001:0002e964       ?OnCancel@CDialog@@MAEXXZ  1002f964 f   mfc140:mfc140.dll
 0001:0002e96a       ??1CDialog@@UAE@XZ         1002f96a f   mfc140:mfc140.dll
 0001:0002e970       ?PreTranslateMessage@CDialog@@UAEHPAUtagMSG@@@Z 1002f970 f   mfc140:mfc140.dll
 0001:0002e976       ?OnCmdMsg@CDialog@@UAEHIHPAXPAUAFX_CMDHANDLERINFO@@@Z 1002f976 f   mfc140:mfc140.dll
 0001:0002e97c       ?CheckAutoCenter@CDialog@@UAEHXZ 1002f97c f   mfc140:mfc140.dll
 0001:0002e982       ?SetOccDialogInfo@CDialog@@MAEHPAU_AFX_OCC_DIALOG_INFO@@@Z 1002f982 f   mfc140:mfc140.dll
 0001:0002e988       ?GetOccDialogInfo@CDialog@@MAEPAU_AFX_OCC_DIALOG_INFO@@XZ 1002f988 f   mfc140:mfc140.dll
 0001:0002e98e       ?PreInitDialog@CDialog@@MAEXXZ 1002f98e f   mfc140:mfc140.dll
 0001:0002e994       ?GetThisMessageMap@CDialog@@KGPBUAFX_MSGMAP@@XZ 1002f994 f   mfc140:mfc140.dll
 0001:0002e99a       ?GetMessageMap@CDialog@@MBEPBUAFX_MSGMAP@@XZ 1002f99a f   mfc140:mfc140.dll
 0001:0002e9a0       ?GetAt@?$CSimpleStringT@D$00@ATL@@QBEDH@Z 1002f9a0 f   mfc140:mfc140.dll
 0001:0002e9a6       ?Compare@?$CStringT@DV?$StrTraitMFC_DLL@DV?$ChTraitsCRT@D@ATL@@@@@ATL@@QBEHPBD@Z 1002f9a6 f   mfc140:mfc140.dll
 0001:0002e9ac       ?Find@?$CStringT@DV?$StrTraitMFC_DLL@DV?$ChTraitsCRT@D@ATL@@@@@ATL@@QBEHDH@Z 1002f9ac f   mfc140:mfc140.dll
 0001:0002e9b2       ?Create@CPlex@@SGPAU1@AAPAU1@II@Z 1002f9b2 f   mfc140:mfc140.dll
 0001:0002e9b8       ?FreeDataChain@CPlex@@QAEXXZ 1002f9b8 f   mfc140:mfc140.dll
 0001:0002e9be       ?GetRuntimeClass@CBrush@@UBEPAUCRuntimeClass@@XZ 1002f9be f   mfc140:mfc140.dll
 0001:0002e9c4       ??0CImageList@@QAE@XZ      1002f9c4 f   mfc140:mfc140.dll
 0001:0002e9ca       ?Create@CImageList@@QAEHHHIHH@Z 1002f9ca f   mfc140:mfc140.dll
 0001:0002e9d0       ?DeleteImageList@CImageList@@QAEHXZ 1002f9d0 f   mfc140:mfc140.dll
 0001:0002e9d6       ??1CImageList@@UAE@XZ      1002f9d6 f   mfc140:mfc140.dll
 0001:0002e9dc       ?DDX_Control@@YGXPAVCDataExchange@@HAAVCWnd@@@Z 1002f9dc f   mfc140:mfc140.dll
 0001:0002e9e2       ?GetDlgItem@CWnd@@QBEPAV1@H@Z 1002f9e2 f   mfc140:mfc140.dll
 0001:0002e9e8       ?ScreenToClient@CWnd@@QBEXPAUtagRECT@@@Z 1002f9e8 f   mfc140:mfc140.dll
 0001:0002e9ee       ?GetDlgItemInt@CWnd@@QBEIHPAHH@Z 1002f9ee f   mfc140:mfc140.dll
 0001:0002e9f4       ?SetDlgItemTextA@CWnd@@QAEXHPBD@Z 1002f9f4 f   mfc140:mfc140.dll
 0001:0002e9fa       ?OnCtlColor@CWnd@@IAEPAUHBRUSH__@@PAVCDC@@PAV1@I@Z 1002f9fa f   mfc140:mfc140.dll
 0001:0002ea00       ?GetRuntimeClass@CListBox@@UBEPAUCRuntimeClass@@XZ 1002fa00 f   mfc140:mfc140.dll
 0001:0002ea06       ?Create@CListBox@@UAEHKABUtagRECT@@PAVCWnd@@I@Z 1002fa06 f   mfc140:mfc140.dll
 0001:0002ea0c       ?DrawItem@CListBox@@UAEXPAUtagDRAWITEMSTRUCT@@@Z 1002fa0c f   mfc140:mfc140.dll
 0001:0002ea12       ?MeasureItem@CListBox@@UAEXPAUtagMEASUREITEMSTRUCT@@@Z 1002fa12 f   mfc140:mfc140.dll
 0001:0002ea18       ?CompareItem@CListBox@@UAEHPAUtagCOMPAREITEMSTRUCT@@@Z 1002fa18 f   mfc140:mfc140.dll
 0001:0002ea1e       ?DeleteItem@CListBox@@UAEXPAUtagDELETEITEMSTRUCT@@@Z 1002fa1e f   mfc140:mfc140.dll
 0001:0002ea24       ?VKeyToItem@CListBox@@UAEHII@Z 1002fa24 f   mfc140:mfc140.dll
 0001:0002ea2a       ?CharToItem@CListBox@@UAEHII@Z 1002fa2a f   mfc140:mfc140.dll
 0001:0002ea30       ??1CListBox@@UAE@XZ        1002fa30 f   mfc140:mfc140.dll
 0001:0002ea36       ?OnChildNotify@CListBox@@MAEHIIJPAJ@Z 1002fa36 f   mfc140:mfc140.dll
 0001:0002ea3c       ?AfxBeginThread@@YGPAVCWinThread@@P6AIPAX@Z0HIKPAU_SECURITY_ATTRIBUTES@@@Z 1002fa3c f   mfc140:mfc140.dll
 0001:0002ea42       ?AfxEnableControlContainer@@YAXPAVCOccManager@@@Z 1002fa42 f   mfc140:mfc140.dll
 0001:0002ea48       ?Replace@?$CStringT@DV?$StrTraitMFC_DLL@DV?$ChTraitsCRT@D@ATL@@@@@ATL@@QAEHPBD0@Z 1002fa48 f   mfc140:mfc140.dll
 0001:0002ea4e       ??0CStdioFile@@QAE@XZ      1002fa4e f   mfc140:mfc140.dll
 0001:0002ea54       ?WriteString@CStdioFile@@UAEXPBD@Z 1002fa54 f   mfc140:mfc140.dll
 0001:0002ea5a       ?ReadString@CStdioFile@@UAEHAAV?$CStringT@DV?$StrTraitMFC_DLL@DV?$ChTraitsCRT@D@ATL@@@@@ATL@@@Z 1002fa5a f   mfc140:mfc140.dll
 0001:0002ea60       ??1CStdioFile@@UAE@XZ      1002fa60 f   mfc140:mfc140.dll
 0001:0002ea66       ?Open@CStdioFile@@UAEHPBDIPAVCFileException@@@Z 1002fa66 f   mfc140:mfc140.dll
 0001:0002ea6c       ?Close@CStdioFile@@UAEXXZ  1002fa6c f   mfc140:mfc140.dll
 0001:0002ea72       ?SetWindowTextA@CWnd@@QAEXPBD@Z 1002fa72 f   mfc140:mfc140.dll
 0001:0002ea78       ?GetDlgItemTextA@CWnd@@QBEHHAAV?$CStringT@DV?$StrTraitMFC_DLL@DV?$ChTraitsCRT@D@ATL@@@@@ATL@@@Z 1002fa78 f   mfc140:mfc140.dll
 0001:0002ea7e       ?GetThisClass@CDialog@@SGPAUCRuntimeClass@@XZ 1002fa7e f   mfc140:mfc140.dll
 0001:0002ea84       ?GetRuntimeClass@CStatic@@UBEPAUCRuntimeClass@@XZ 1002fa84 f   mfc140:mfc140.dll
 0001:0002ea8a       ?Create@CStatic@@UAEHPBDKABUtagRECT@@PAVCWnd@@I@Z 1002fa8a f   mfc140:mfc140.dll
 0001:0002ea90       ?DrawItem@CStatic@@UAEXPAUtagDRAWITEMSTRUCT@@@Z 1002fa90 f   mfc140:mfc140.dll
 0001:0002ea96       ??1CStatic@@UAE@XZ         1002fa96 f   mfc140:mfc140.dll
 0001:0002ea9c       ?OnChildNotify@CStatic@@MAEHIIJPAJ@Z 1002fa9c f   mfc140:mfc140.dll
 0001:0002eaa2       ?Insert@?$CStringT@DV?$StrTraitMFC_DLL@DV?$ChTraitsCRT@D@ATL@@@@@ATL@@QAEHHD@Z 1002faa2 f   mfc140:mfc140.dll
 0001:0002eaa8       ?GetThisClass@CObject@@SGPAUCRuntimeClass@@XZ 1002faa8 f   mfc140:mfc140.dll
 0001:0002eaae       ?AfxTryCleanup@@YGXXZ      1002faae f   mfc140:mfc140.dll
 0001:0002eab4       ??0AFX_EXCEPTION_LINK@@QAE@XZ 1002fab4 f   mfc140:mfc140.dll
 0001:0002eaba       ?AfxGetModuleState@@YGPAVAFX_MODULE_STATE@@XZ 1002faba f   mfc140:mfc140.dll
 0001:0002eac0       ??0CBrush@@QAE@K@Z         1002fac0 f   mfc140:mfc140.dll
 0001:0002eac6       ?CreateObject@CRuntimeClass@@QAEPAVCObject@@XZ 1002fac6 f   mfc140:mfc140.dll
 0001:0002eacc       ?IsDerivedFrom@CRuntimeClass@@QBEHPBU1@@Z 1002facc f   mfc140:mfc140.dll
 0001:0002ead2       ?AfxThrowOleException@@YGXJ@Z 1002fad2 f   mfc140:mfc140.dll
 0001:0002ead8       ?IsKindOf@CObject@@QBEHPBUCRuntimeClass@@@Z 1002fad8 f   mfc140:mfc140.dll
 0001:0002eade       ??0CException@@QAE@XZ      1002fade f   mfc140:mfc140.dll
 0001:0002eae4       ?GetErrorMessage@CException@@UAEHPADIPAI@Z 1002fae4 f   mfc140:mfc140.dll
 0001:0002eaea       ?ReportError@CException@@UAEHII@Z 1002faea f   mfc140:mfc140.dll
 0001:0002eaf0       ?LockBuffer@?$CSimpleStringT@D$00@ATL@@QAEPADXZ 1002faf0 f   mfc140:mfc140.dll
 0001:0002eaf6       ?UnlockBuffer@?$CSimpleStringT@D$00@ATL@@QAEXXZ 1002faf6 f   mfc140:mfc140.dll
 0001:0002eafc       ??0?$CStringT@DV?$StrTraitMFC_DLL@DV?$ChTraitsCRT@D@ATL@@@@@ATL@@QAE@DH@Z 1002fafc f   mfc140:mfc140.dll
 0001:0002eb02       ?Remove@?$CStringT@DV?$StrTraitMFC_DLL@DV?$ChTraitsCRT@D@ATL@@@@@ATL@@QAEHD@Z 1002fb02 f   mfc140:mfc140.dll
 0001:0002eb08       ?FindOneOf@?$CStringT@DV?$StrTraitMFC_DLL@DV?$ChTraitsCRT@D@ATL@@@@@ATL@@QBEHPBD@Z 1002fb08 f   mfc140:mfc140.dll
 0001:0002eb0e       ?FormatV@?$CStringT@DV?$StrTraitMFC_DLL@DV?$ChTraitsCRT@D@ATL@@@@@ATL@@QAEXPBDPAD@Z 1002fb0e f   mfc140:mfc140.dll
 0001:0002eb14       ?LoadStringA@?$CStringT@DV?$StrTraitMFC_DLL@DV?$ChTraitsCRT@D@ATL@@@@@ATL@@QAEHI@Z 1002fb14 f   mfc140:mfc140.dll
 0001:0002eb1a       ?GetRuntimeClass@CFileException@@UBEPAUCRuntimeClass@@XZ 1002fb1a f   mfc140:mfc140.dll
 0001:0002eb20       ?GetErrorMessage@CFileException@@UBEHPADIPAI@Z 1002fb20 f   mfc140:mfc140.dll
 0001:0002eb26       ?ReadString@CStdioFile@@UAEPADPADI@Z 1002fb26 f   mfc140:mfc140.dll
 0001:0002eb2c       ??0CMemFile@@QAE@PAEII@Z   1002fb2c f   mfc140:mfc140.dll
 0001:0002eb32       ??1CMemFile@@UAE@XZ        1002fb32 f   mfc140:mfc140.dll
 0001:0002eb38       ?Read@CMemFile@@UAEIPAXI@Z 1002fb38 f   mfc140:mfc140.dll
 0001:0002eb3e       ?Write@CMemFile@@UAEXPBXI@Z 1002fb3e f   mfc140:mfc140.dll
 0001:0002eb44       ?GetLength@CMemFile@@UBE_KXZ 1002fb44 f   mfc140:mfc140.dll
 0001:0002eb4a       ??0CUIntArray@@QAE@XZ      1002fb4a f   mfc140:mfc140.dll
 0001:0002eb50       ?SetSize@CUIntArray@@QAEXHH@Z 1002fb50 f   mfc140:mfc140.dll
 0001:0002eb56       ?SetAtGrow@CUIntArray@@QAEXHI@Z 1002fb56 f   mfc140:mfc140.dll
 0001:0002eb5c       ?InsertAt@CUIntArray@@QAEXHIH@Z 1002fb5c f   mfc140:mfc140.dll
 0001:0002eb62       ?RemoveAt@CUIntArray@@QAEXHH@Z 1002fb62 f   mfc140:mfc140.dll
 0001:0002eb68       ??1CUIntArray@@UAE@XZ      1002fb68 f   mfc140:mfc140.dll
 0001:0002eb6e       ?GetRuntimeClass@CObArray@@UBEPAUCRuntimeClass@@XZ 1002fb6e f   mfc140:mfc140.dll
 0001:0002eb74       ??0CObArray@@QAE@XZ        1002fb74 f   mfc140:mfc140.dll
 0001:0002eb7a       ?SetSize@CObArray@@QAEXHH@Z 1002fb7a f   mfc140:mfc140.dll
 0001:0002eb80       ?SetAtGrow@CObArray@@QAEXHPAVCObject@@@Z 1002fb80 f   mfc140:mfc140.dll
 0001:0002eb86       ?InsertAt@CObArray@@QAEXHPAVCObject@@H@Z 1002fb86 f   mfc140:mfc140.dll
 0001:0002eb8c       ?RemoveAt@CObArray@@QAEXHH@Z 1002fb8c f   mfc140:mfc140.dll
 0001:0002eb92       ??1CObArray@@UAE@XZ        1002fb92 f   mfc140:mfc140.dll
 0001:0002eb98       ?Serialize@CObArray@@UAEXAAVCArchive@@@Z 1002fb98 f   mfc140:mfc140.dll
 0001:0002eb9e       ?AfxGetThreadState@@YGPAV_AFX_THREAD_STATE@@XZ 1002fb9e f   mfc140:mfc140.dll
 0001:0002eba4       ?AfxThrowResourceException@@YGXXZ 1002fba4 f   mfc140:mfc140.dll
 0001:0002ebaa       ?GetRuntimeClass@CDC@@UBEPAUCRuntimeClass@@XZ 1002fbaa f   mfc140:mfc140.dll
 0001:0002ebb0       ?Detach@CDC@@QAEPAUHDC__@@XZ 1002fbb0 f   mfc140:mfc140.dll
 0001:0002ebb6       ?SetAttribDC@CDC@@UAEXPAUHDC__@@@Z 1002fbb6 f   mfc140:mfc140.dll
 0001:0002ebbc       ?SetOutputDC@CDC@@UAEXPAUHDC__@@@Z 1002fbbc f   mfc140:mfc140.dll
 0001:0002ebc2       ?ReleaseAttribDC@CDC@@UAEXXZ 1002fbc2 f   mfc140:mfc140.dll
 0001:0002ebc8       ?ReleaseOutputDC@CDC@@UAEXXZ 1002fbc8 f   mfc140:mfc140.dll
 0001:0002ebce       ?SelectStockObject@CDC@@UAEPAVCGdiObject@@H@Z 1002fbce f   mfc140:mfc140.dll
 0001:0002ebd4       ?SetBkColor@CDC@@UAEKK@Z   1002fbd4 f   mfc140:mfc140.dll
 0001:0002ebda       ?SetMapMode@CDC@@UAEHH@Z   1002fbda f   mfc140:mfc140.dll
 0001:0002ebe0       ?SetViewportOrg@CDC@@UAE?AVCPoint@@HH@Z 1002fbe0 f   mfc140:mfc140.dll
 0001:0002ebe6       ?OffsetViewportOrg@CDC@@UAE?AVCPoint@@HH@Z 1002fbe6 f   mfc140:mfc140.dll
 0001:0002ebec       ?SetViewportExt@CDC@@UAE?AVCSize@@HH@Z 1002fbec f   mfc140:mfc140.dll
 0001:0002ebf2       ?ScaleViewportExt@CDC@@UAE?AVCSize@@HHHH@Z 1002fbf2 f   mfc140:mfc140.dll
 0001:0002ebf8       ?SetWindowOrg@CDC@@QAE?AVCPoint@@HH@Z 1002fbf8 f   mfc140:mfc140.dll
 0001:0002ebfe       ?OffsetWindowOrg@CDC@@QAE?AVCPoint@@HH@Z 1002fbfe f   mfc140:mfc140.dll
 0001:0002ec04       ?SetWindowExt@CDC@@UAE?AVCSize@@HH@Z 1002fc04 f   mfc140:mfc140.dll
 0001:0002ec0a       ?ScaleWindowExt@CDC@@UAE?AVCSize@@HHHH@Z 1002fc0a f   mfc140:mfc140.dll
 0001:0002ec10       ?GetClipBox@CDC@@UBEHPAUtagRECT@@@Z 1002fc10 f   mfc140:mfc140.dll
 0001:0002ec16       ?BeginWaitCursor@CCmdTarget@@QAEXXZ 1002fc16 f   mfc140:mfc140.dll
 0001:0002ec1c       ?EndWaitCursor@CCmdTarget@@QAEXXZ 1002fc1c f   mfc140:mfc140.dll
 0001:0002ec22       ?GetWindowTextA@CWnd@@QBEXAAV?$CStringT@DV?$StrTraitMFC_DLL@DV?$ChTraitsCRT@D@ATL@@@@@ATL@@@Z 1002fc22 f   mfc140:mfc140.dll
 0001:0002ec28       ?GetScrollPos@CWnd@@QBEHH@Z 1002fc28 f   mfc140:mfc140.dll
 0001:0002ec2e       ?EnableScrollBarCtrl@CWnd@@QAEXHH@Z 1002fc2e f   mfc140:mfc140.dll
 0001:0002ec34       ?SetScrollInfo@CWnd@@QAEHHPAUtagSCROLLINFO@@H@Z 1002fc34 f   mfc140:mfc140.dll
 0001:0002ec3a       ?GetScrollInfo@CWnd@@QAEHHPAUtagSCROLLINFO@@I@Z 1002fc3a f   mfc140:mfc140.dll
 0001:0002ec40       ?OnSysColorChange@CWnd@@IAEXXZ 1002fc40 f   mfc140:mfc140.dll
 0001:0002ec46       ?OnSettingChange@CWnd@@IAEXIPBD@Z 1002fc46 f   mfc140:mfc140.dll
 0001:0002ec4c       ?AfxRegisterClass@@YGHPAUtagWNDCLASSA@@@Z 1002fc4c f   mfc140:mfc140.dll
 0001:0002ec52       ?GetThisClass@CEdit@@SGPAUCRuntimeClass@@XZ 1002fc52 f   mfc140:mfc140.dll
 0001:0002ec58       ?GetRuntimeClass@CCommonDialog@@UBEPAUCRuntimeClass@@XZ 1002fc58 f   mfc140:mfc140.dll
 0001:0002ec5e       ?OnOK@CCommonDialog@@MAEXXZ 1002fc5e f   mfc140:mfc140.dll
 0001:0002ec64       ?OnCancel@CCommonDialog@@MAEXXZ 1002fc64 f   mfc140:mfc140.dll
 0001:0002ec6a       ?GetMessageMap@CCommonDialog@@MBEPBUAFX_MSGMAP@@XZ 1002fc6a f   mfc140:mfc140.dll
 0001:0002ec70       ??0CPrintDialog@@QAE@HKPAVCWnd@@@Z 1002fc70 f   mfc140:mfc140.dll
 0001:0002ec76       ?DoModal@CPrintDialog@@UAEHXZ 1002fc76 f   mfc140:mfc140.dll
 0001:0002ec7c       ??0CPrintInfo@@QAE@XZ      1002fc7c f   mfc140:mfc140.dll
 0001:0002ec82       ??1CPrintInfo@@QAE@XZ      1002fc82 f   mfc140:mfc140.dll
 0001:0002ec88       ?AfxOleInit@@YGHXZ         1002fc88 f   mfc140:mfc140.dll
 0001:0002ec8e       ??0COleDataObject@@QAE@XZ  1002fc8e f   mfc140:mfc140.dll
 0001:0002ec94       ?Release@COleDataObject@@QAEXXZ 1002fc94 f   mfc140:mfc140.dll
 0001:0002ec9a       ?AttachClipboard@COleDataObject@@QAEHXZ 1002fc9a f   mfc140:mfc140.dll
 0001:0002eca0       ?GetGlobalData@COleDataObject@@QAEPAXGPAUtagFORMATETC@@@Z 1002fca0 f   mfc140:mfc140.dll
 0001:0002eca6       ?IsDataAvailable@COleDataObject@@QAEHGPAUtagFORMATETC@@@Z 1002fca6 f   mfc140:mfc140.dll
 0001:0002ecac       ??0COleDataSource@@QAE@XZ  1002fcac f   mfc140:mfc140.dll
 0001:0002ecb2       ?CacheGlobalData@COleDataSource@@QAEXGPAXPAUtagFORMATETC@@@Z 1002fcb2 f   mfc140:mfc140.dll
 0001:0002ecb8       ?DoDragDrop@COleDataSource@@QAEKKPBUtagRECT@@PAVCOleDropSource@@@Z 1002fcb8 f   mfc140:mfc140.dll
 0001:0002ecbe       ?SetClipboard@COleDataSource@@QAEXXZ 1002fcbe f   mfc140:mfc140.dll
 0001:0002ecc4       ?FlushClipboard@COleDataSource@@SGXXZ 1002fcc4 f   mfc140:mfc140.dll
 0001:0002ecca       ?GetClipboardOwner@COleDataSource@@SGPAV1@XZ 1002fcca f   mfc140:mfc140.dll
 0001:0002ecd0       ??0CSharedFile@@QAE@II@Z   1002fcd0 f   mfc140:mfc140.dll
 0001:0002ecd6       ?Detach@CSharedFile@@QAEPAXXZ 1002fcd6 f   mfc140:mfc140.dll
 0001:0002ecdc       ??1CSharedFile@@UAE@XZ     1002fcdc f   mfc140:mfc140.dll
 0001:0002ece2       ?GetRuntimeClass@CCmdTarget@@UBEPAUCRuntimeClass@@XZ 1002fce2 f   mfc140:mfc140.dll
 0001:0002ece8       ?OnFinalRelease@CCmdTarget@@UAEXXZ 1002fce8 f   mfc140:mfc140.dll
 0001:0002ecee       ?GetThisMessageMap@CCmdTarget@@KGPBUAFX_MSGMAP@@XZ 1002fcee f   mfc140:mfc140.dll
 0001:0002ecf4       ??0COleDropTarget@@QAE@XZ  1002fcf4 f   mfc140:mfc140.dll
 0001:0002ecfa       ?Register@COleDropTarget@@QAEHPAVCWnd@@@Z 1002fcfa f   mfc140:mfc140.dll
 0001:0002ed00       ?Revoke@COleDropTarget@@UAEXXZ 1002fd00 f   mfc140:mfc140.dll
 0001:0002ed06       ?OnDropEx@COleDropTarget@@UAEKPAVCWnd@@PAVCOleDataObject@@KKVCPoint@@@Z 1002fd06 f   mfc140:mfc140.dll
 0001:0002ed0c       ??1COleDropTarget@@UAE@XZ  1002fd0c f   mfc140:mfc140.dll
 0001:0002ed12       ?GetInterfaceMap@COleDropTarget@@MBEPBUAFX_INTERFACEMAP@@XZ 1002fd12 f   mfc140:mfc140.dll
 0001:0002ed18       ??0CWindowDC@@QAE@PAVCWnd@@@Z 1002fd18 f   mfc140:mfc140.dll
 0001:0002ed1e       ??1CWindowDC@@UAE@XZ       1002fd1e f   mfc140:mfc140.dll
 0001:0002ed24       ?GetRuntimeClass@CEdit@@UBEPAUCRuntimeClass@@XZ 1002fd24 f   mfc140:mfc140.dll
 0001:0002ed2a       ?Create@CEdit@@QAEHKABUtagRECT@@PAVCWnd@@I@Z 1002fd2a f   mfc140:mfc140.dll
 0001:0002ed30       ??1CEdit@@UAE@XZ           1002fd30 f   mfc140:mfc140.dll
 0001:0002ed36       ?SelectObject@CDC@@QAEPAVCBrush@@PAV2@@Z 1002fd36 f   mfc140:mfc140.dll
 0001:0002ed3c       ?GetRuntimeClass@CWnd@@UBEPAUCRuntimeClass@@XZ 1002fd3c f   mfc140:mfc140.dll
 0001:0002ed42       ?AfxInitRichEdit@@YGHXZ    1002fd42 f   mfc140:mfc140.dll
 0001:0002ed48       ??0CDynLinkLibrary@@QAE@AAUAFX_EXTENSION_MODULE@@H@Z 1002fd48 f   mfc140:mfc140.dll
 0001:0002ed4e       ?AfxInitExtensionModule@@YGHAAUAFX_EXTENSION_MODULE@@PAUHINSTANCE__@@@Z 1002fd4e f   mfc140:mfc140.dll
 0001:0002ed54       ?AfxTermExtensionModule@@YGXAAUAFX_EXTENSION_MODULE@@H@Z 1002fd54 f   mfc140:mfc140.dll
 0001:0002ed5a       ?EnableWindow@CWnd@@QAEHH@Z 1002fd5a f   mfc140:mfc140.dll
 0001:0002ed60       ?CheckRadioButton@CWnd@@QAEXHHH@Z 1002fd60 f   mfc140:mfc140.dll
 0001:0002ed66       ?DDX_Text@@YGXPAVCDataExchange@@HAAH@Z 1002fd66 f   mfc140:mfc140.dll
 0001:0002ed6c       ?DDV_MinMaxInt@@YGXPAVCDataExchange@@HHH@Z 1002fd6c f   mfc140:mfc140.dll
 0001:0002ed72       ?UpdateData@CWnd@@QAEHH@Z  1002fd72 f   mfc140:mfc140.dll
 0001:0002ed78       ?GetRuntimeClass@CButton@@UBEPAUCRuntimeClass@@XZ 1002fd78 f   mfc140:mfc140.dll
 0001:0002ed7e       ?Create@CButton@@UAEHPBDKABUtagRECT@@PAVCWnd@@I@Z 1002fd7e f   mfc140:mfc140.dll
 0001:0002ed84       ?OnChildNotify@CButton@@MAEHIIJPAJ@Z 1002fd84 f   mfc140:mfc140.dll
 0001:0002ed8a       ?GetStyle@CWnd@@QBEKXZ     1002fd8a f   mfc140:mfc140.dll
 0001:0002ed90       ?DrawItem@CButton@@UAEXPAUtagDRAWITEMSTRUCT@@@Z 1002fd90 f   mfc140:mfc140.dll
 0001:0002ed96       ??1CButton@@UAE@XZ         1002fd96 f   mfc140:mfc140.dll
 0001:0002ed9c       ??ACMapPtrToPtr@@QAEAAPAXPAX@Z 1002fd9c f   mfc140:mfc140.dll
 0001:0002eda2       ?RemoveKey@CMapPtrToPtr@@QAEHPAX@Z 1002fda2 f   mfc140:mfc140.dll
 0001:0002eda8       ??2CNoTrackObject@@SGPAXI@Z 1002fda8 f   mfc140:mfc140.dll
 0001:0002edae       ??3CNoTrackObject@@SGXPAX@Z 1002fdae f   mfc140:mfc140.dll
 0001:0002edb4       ?GetData@CThreadLocalObject@@QAEPAVCNoTrackObject@@P6GPAV2@XZ@Z 1002fdb4 f   mfc140:mfc140.dll
 0001:0002edba       ??0AFX_MODULE_THREAD_STATE@@QAE@XZ 1002fdba f   mfc140:mfc140.dll
 0001:0002edc0       ?AfxGetAppModuleState@@YGPAVAFX_MODULE_STATE@@XZ 1002fdc0 f   mfc140:mfc140.dll
 0001:0002edc6       ?AfxExtractSubString@@YGHAAV?$CStringT@DV?$StrTraitMFC_DLL@DV?$ChTraitsCRT@D@ATL@@@@@ATL@@PBDHD@Z 1002fdc6 f   mfc140:mfc140.dll
 0001:0002edcc       ??$AtlAdd@H@ATL@@YAJPAHHH@Z 1002fdcc f i mfcs140:nolib.obj
 0001:0002edf2       ??$AtlAdd@I@ATL@@YAJPAIII@Z 1002fdf2 f i mfcs140:nolib.obj
 0001:0002ee15       ??$AtlAdd@K@ATL@@YAJPAKKK@Z 1002fe15 f i mfcs140:nolib.obj
 0001:0002ee38       ??$AtlAlignUp@H@ATL@@YGHHK@Z 1002fe38 f i mfcs140:nolib.obj
 0001:0002ee4c       ??$AtlMultiply@I@ATL@@YAJPAIII@Z 1002fe4c f i mfcs140:nolib.obj
 0001:0002ee6e       ??$AtlMultiply@K@ATL@@YAJPAKKK@Z 1002fe6e f i mfcs140:nolib.obj
 0001:0002ee90       ??0?$CSimpleArray@GV?$CSimpleArrayEqualHelper@G@ATL@@@ATL@@QAE@XZ 1002fe90 f i mfcs140:nolib.obj
 0001:0002ee9d       ??0?$CTraceCategoryEx@$00$0A@@ATL@@QAE@PBD@Z 1002fe9d f i mfcs140:nolib.obj
 0001:0002eea2       ??0?$CTraceCategoryEx@$01$0A@@ATL@@QAE@PBD@Z 1002fea2 f i mfcs140:nolib.obj
 0001:0002eea7       ??0?$CTraceCategoryEx@$03$0A@@ATL@@QAE@PBD@Z 1002fea7 f i mfcs140:nolib.obj
 0001:0002eeac       ??0?$CTraceCategoryEx@$07$0A@@ATL@@QAE@PBD@Z 1002feac f i mfcs140:nolib.obj
 0001:0002eeb1       ??0?$CTraceCategoryEx@$0BA@$0A@@ATL@@QAE@PBD@Z 1002feb1 f i mfcs140:nolib.obj
 0001:0002eeb6       ??0?$CTraceCategoryEx@$0BAA@$0A@@ATL@@QAE@PBD@Z 1002feb6 f i mfcs140:nolib.obj
 0001:0002eebb       ??0?$CTraceCategoryEx@$0BAAA@$0A@@ATL@@QAE@PBD@Z 1002febb f i mfcs140:nolib.obj
 0001:0002eec0       ??0?$CTraceCategoryEx@$0BAAAA@$0A@@ATL@@QAE@PBD@Z 1002fec0 f i mfcs140:nolib.obj
 0001:0002eec5       ??0?$CTraceCategoryEx@$0BAAAAA@$0A@@ATL@@QAE@PBD@Z 1002fec5 f i mfcs140:nolib.obj
 0001:0002eeca       ??0?$CTraceCategoryEx@$0CA@$0A@@ATL@@QAE@PBD@Z 1002feca f i mfcs140:nolib.obj
 0001:0002eecf       ??0?$CTraceCategoryEx@$0CAA@$0A@@ATL@@QAE@PBD@Z 1002fecf f i mfcs140:nolib.obj
 0001:0002eed4       ??0?$CTraceCategoryEx@$0CAAA@$0A@@ATL@@QAE@PBD@Z 1002fed4 f i mfcs140:nolib.obj
 0001:0002eed9       ??0?$CTraceCategoryEx@$0CAAAA@$0A@@ATL@@QAE@PBD@Z 1002fed9 f i mfcs140:nolib.obj
 0001:0002eede       ??0?$CTraceCategoryEx@$0CAAAAA@$0A@@ATL@@QAE@PBD@Z 1002fede f i mfcs140:nolib.obj
 0001:0002eee3       ??0?$CTraceCategoryEx@$0EA@$0A@@ATL@@QAE@PBD@Z 1002fee3 f i mfcs140:nolib.obj
 0001:0002eee8       ??0?$CTraceCategoryEx@$0EAA@$0A@@ATL@@QAE@PBD@Z 1002fee8 f i mfcs140:nolib.obj
 0001:0002eeed       ??0?$CTraceCategoryEx@$0EAAA@$0A@@ATL@@QAE@PBD@Z 1002feed f i mfcs140:nolib.obj
 0001:0002eef2       ??0?$CTraceCategoryEx@$0EAAAA@$0A@@ATL@@QAE@PBD@Z 1002fef2 f i mfcs140:nolib.obj
 0001:0002eef7       ??0?$CTraceCategoryEx@$0EAAAAA@$0A@@ATL@@QAE@PBD@Z 1002fef7 f i mfcs140:nolib.obj
 0001:0002eefc       ??0?$CTraceCategoryEx@$0IA@$0A@@ATL@@QAE@PBD@Z 1002fefc f i mfcs140:nolib.obj
 0001:0002ef01       ??0?$CTraceCategoryEx@$0IAA@$0A@@ATL@@QAE@PBD@Z 1002ff01 f i mfcs140:nolib.obj
 0001:0002ef06       ??0?$CTraceCategoryEx@$0IAAA@$0A@@ATL@@QAE@PBD@Z 1002ff06 f i mfcs140:nolib.obj
 0001:0002ef0b       ??0?$CTraceCategoryEx@$0IAAAA@$0A@@ATL@@QAE@PBD@Z 1002ff0b f i mfcs140:nolib.obj
 0001:0002ef10       ??0CAtlComModule@ATL@@QAE@XZ 1002ff10 f i mfcs140:nolib.obj
 0001:0002ef4f       ??0CAtlStringMgr@ATL@@QAE@PAUIAtlMemMgr@1@@Z 1002ff4f f i mfcs140:nolib.obj
 0001:0002ef7b       ??0CAtlStringMgrStaticInitializer@ATLImplementationDetails@ATL@@QAE@XZ 1002ff7b f i mfcs140:nolib.obj
 0001:0002ef87       ??0CAtlWinModule@ATL@@QAE@XZ 1002ff87 f i mfcs140:nolib.obj
 0001:0002efb5       ??0CComCriticalSection@ATL@@QAE@XZ 1002ffb5 f i mfcs140:nolib.obj
 0001:0002efc9       ??0CNilStringData@ATL@@QAE@XZ 1002ffc9 f i mfcs140:nolib.obj
 0001:0002efe0       ??0CWin32Heap@ATL@@QAE@PAX@Z 1002ffe0 f i mfcs140:nolib.obj
 0001:0002eff9       ??0_ATL_COM_MODULE70@ATL@@QAE@XZ 1002fff9 f i mfcs140:nolib.obj
 0001:0002f010       ??0_ATL_WIN_MODULE70@ATL@@QAE@XZ 10030010 f i mfcs140:nolib.obj
 0001:0002f03b       ??1?$CSimpleArray@GV?$CSimpleArrayEqualHelper@G@ATL@@@ATL@@QAE@XZ 1003003b f i mfcs140:nolib.obj
 0001:0002f040       ??1CAtlComModule@ATL@@QAE@XZ 10030040 f i mfcs140:nolib.obj
 0001:0002f079       ??1CAtlWinModule@ATL@@QAE@XZ 10030079 f i mfcs140:nolib.obj
 0001:0002f091       ??1CComBSTR@ATL@@QAE@XZ    10030091 f i mfcs140:nolib.obj
 0001:0002f09a       ??1CComCriticalSection@ATL@@QAE@XZ 1003009a f i mfcs140:nolib.obj
 0001:0002f09d       ??1_ATL_COM_MODULE70@ATL@@QAE@XZ 1003009d f i mfcs140:nolib.obj
 0001:0002f0a0       ??1_ATL_WIN_MODULE70@ATL@@QAE@XZ 100300a0 f i mfcs140:nolib.obj
 0001:0002f0a8       ??1stringdispid@CComTypeInfoHolder@ATL@@QAE@XZ 100300a8 f i mfcs140:nolib.obj
 0001:0002f0b1       ??A?$CSimpleArray@GV?$CSimpleArrayEqualHelper@G@ATL@@@ATL@@QAEAAGH@Z 100300b1 f i mfcs140:nolib.obj
 0001:0002f0d6       ??_Estringdispid@CComTypeInfoHolder@ATL@@QAEPAXI@Z 100300d6 f i mfcs140:nolib.obj
 0001:0002f161       ?AddRef@CStringData@ATL@@QAEXXZ 10030161 f i mfcs140:nolib.obj
 0001:0002f166       ?AtlWinModuleInit@ATL@@YGJPAU_ATL_WIN_MODULE70@1@@Z 10030166 f i mfcs140:nolib.obj
 0001:0002f18c       ?AtlWinModuleTerm@ATL@@YGJPAU_ATL_WIN_MODULE70@1@PAUHINSTANCE__@@@Z 1003018c f i mfcs140:nolib.obj
 0001:0002f1ee       ?GetInstance@CAtlStringMgr@ATL@@SAPAUIAtlStringMgr@2@XZ 100301ee f i mfcs140:nolib.obj
 0001:0002f258       ?GetModuleInstance@CAtlBaseModule@ATL@@QAEPAUHINSTANCE__@@XZ 10030258 f i mfcs140:nolib.obj
 0001:0002f25c       ?GetSize@?$CSimpleArray@GV?$CSimpleArrayEqualHelper@G@ATL@@@ATL@@QBEHXZ 1003025c f i mfcs140:nolib.obj
 0001:0002f260       ?Init@CComCriticalSection@ATL@@QAEJXZ 10030260 f i mfcs140:nolib.obj
 0001:0002f288       ?RemoveAll@?$CSimpleArray@GV?$CSimpleArrayEqualHelper@G@ATL@@@ATL@@QAEXXZ 10030288 f i mfcs140:nolib.obj
 0001:0002f2a6       ?SetManager@CNilStringData@ATL@@QAEXPAUIAtlStringMgr@2@@Z 100302a6 f i mfcs140:nolib.obj
 0001:0002f2b2       ?Term@CAtlComModule@ATL@@QAEXXZ 100302b2 f i mfcs140:nolib.obj
 0001:0002f311       ?Term@CAtlWinModule@ATL@@QAEXXZ 10030311 f i mfcs140:nolib.obj
 0001:0002f31e       ?Term@CComCriticalSection@ATL@@QAEJXZ 1003031e f i mfcs140:nolib.obj
 0001:0002f328       _HRESULT_FROM_WIN32        10030328 f i mfcs140:nolib.obj
 0001:0002f33c       _IsolationAwareActivateActCtx@8 1003033c f i mfcs140:nolib.obj
 0001:0002f37f       _IsolationAwareCreateActCtxW@4 1003037f f i mfcs140:nolib.obj
 0001:0002f3c4       _IsolationAwareDeactivateActCtx@8 100303c4 f i mfcs140:nolib.obj
 0001:0002f407       _IsolationAwareFindActCtxSectionStringW@20 10030407 f i mfcs140:nolib.obj
 0001:0002f453       _IsolationAwarePrivatenPgViNgRzlnPgpgk@4 10030453 f i mfcs140:nolib.obj
 0001:0002f4ce       _IsolationAwarePrivatezltRgCebPnQQeRff@12 100304ce f i mfcs140:nolib.obj
 0001:0002f50c       _IsolationAwarePrivatezltRgzbQhYRuNaQYRJ@4 1003050c f i mfcs140:nolib.obj
 0001:0002f516       _IsolationAwarePrivatezltRgzbQhYRuNaQYRn@4 10030516 f i mfcs140:nolib.obj
 0001:0002f520       _IsolationAwareQueryActCtxW@28 10030520 f i mfcs140:nolib.obj
 0001:0002f572       _IsolationAwareUnregisterClassA@8 10030572 f i mfcs140:nolib.obj
 0001:0002f61c       _WinbaseIsolationAwarePrivatetRgCebPnQQeRff_xReaRYQP_QYY@4 1003061c f i mfcs140:nolib.obj
 0001:0002f635       _WinbaseIsolationAwarePrivatetRgzlnPgpgk@0 10030635 f i mfcs140:nolib.obj
 0001:0002f801       ??3@YAXPAXI@Z              10030801 f   msvcrt:delete_scalar_size.obj
 0001:0002f80f       @__security_check_cookie@4 1003080f f   msvcrt:secchk.obj
 0001:0002f81d       ??1type_info@@UAE@XZ       1003081d f   msvcrt:std_type_info_static.obj
 0001:0002f824       ??_Etype_info@@UAEPAXI@Z   10030824 f i msvcrt:std_type_info_static.obj
 0001:0002f824       ??_Gtype_info@@UAEPAXI@Z   10030824 f i msvcrt:std_type_info_static.obj
 0001:0002f847       ?configure_argv@__scrt_narrow_argv_policy@@SAHXZ 10030847 f i msvcrt:utility.obj
 0001:0002f898       ?initialize_environment@__scrt_narrow_environment_policy@@SAHXZ 10030898 f i msvcrt:utility.obj
 0001:0002f8d1       _NtCurrentTeb              100308d1 f i msvcrt:utility.obj
 0001:0002f8d8       ___scrt_acquire_startup_lock 100308d8 f   msvcrt:utility.obj
 0001:0002f90a       ___scrt_dllmain_after_initialize_c 1003090a f   msvcrt:utility.obj
 0001:0002f935       ___scrt_dllmain_before_initialize_c 10030935 f   msvcrt:utility.obj
 0001:0002f943       ___scrt_dllmain_crt_thread_attach 10030943 f   msvcrt:utility.obj
 0001:0002f962       ___scrt_dllmain_crt_thread_detach 10030962 f   msvcrt:utility.obj
 0001:0002f96f       ___scrt_dllmain_exception_filter 1003096f f   msvcrt:utility.obj
 0001:0002f9a3       ___scrt_dllmain_uninitialize_c 100309a3 f   msvcrt:utility.obj
 0001:0002f9c6       ___scrt_dllmain_uninitialize_critical 100309c6 f   msvcrt:utility.obj
 0001:0002f9d3       ___scrt_initialize_crt     100309d3 f   msvcrt:utility.obj
 0001:0002fa0c       ___scrt_initialize_onexit_tables 10030a0c f   msvcrt:utility.obj
 0001:0002fa93       ___scrt_is_nonwritable_in_current_image 10030a93 f   msvcrt:utility.obj
 0001:0002fb27       ___scrt_release_startup_lock 10030b27 f   msvcrt:utility.obj
 0001:0002fb44       ___scrt_uninitialize_crt   10030b44 f   msvcrt:utility.obj
 0001:0002fb6c       __onexit                   10030b6c f   msvcrt:utility.obj
 0001:0002fb99       _at_quick_exit             10030b99 f   msvcrt:utility.obj
 0001:0002fbbc       _atexit                    10030bbc f   msvcrt:utility.obj
 0001:0002fbe0       __alloca_probe_16          10030be0 f   msvcrt:alloca16.obj
 0001:0002fbf6       __alloca_probe_8           10030bf6     msvcrt:alloca16.obj
 0001:0002fc0c       ??_M@YGXPAXIHP6EX0@Z@Z     10030c0c f   msvcrt:ehvecdtr.obj
 0001:0002fc11       ??_M@YGXPAXIIP6EX0@Z@Z     10030c11 f   msvcrt:ehvecdtr.obj
 0001:0002fcc5       ?__ArrayUnwind@@YGXPAXIIP6EX0@Z@Z 10030cc5 f   msvcrt:ehvecdtr.obj
 0001:0002fe1a       __Init_thread_abort        10030e1a f   msvcrt:thread_safe_statics.obj
 0001:0002fe3e       __Init_thread_footer       10030e3e f   msvcrt:thread_safe_statics.obj
 0001:0002fe88       __Init_thread_header       10030e88 f   msvcrt:thread_safe_statics.obj
 0001:0002feda       __Init_thread_lock         10030eda f   msvcrt:thread_safe_statics.obj
 0001:0002fee6       __Init_thread_notify       10030ee6 f   msvcrt:thread_safe_statics.obj
 0001:0002ff1c       __Init_thread_unlock       10030f1c f   msvcrt:thread_safe_statics.obj
 0001:0002ff28       __Init_thread_wait         10030f28 f   msvcrt:thread_safe_statics.obj
 0001:000302b6       __CRT_INIT@12              100312b6 f   msvcrt:dll_dllmain.obj
 0001:000302bf       __DllMainCRTStartup@12     100312bf f   msvcrt:dll_dllmain.obj
 0001:000302e2       ??_V@YAXPAXI@Z             100312e2 f   msvcrt:delete_array_size.obj
 0001:000302f0       __EH_epilog3               100312f0 f   msvcrt:ehprolg3.obj
 0001:00030304       __EH_epilog3_GS            10031304 f   msvcrt:ehprolg3.obj
 0001:00030313       __EH_epilog3_catch_GS      10031313 f   msvcrt:ehprolg3.obj
 0001:00030322       __EH_prolog3               10031322 f   msvcrt:ehprolg3.obj
 0001:00030355       __EH_prolog3_GS            10031355 f   msvcrt:ehprolg3.obj
 0001:0003038b       __EH_prolog3_catch         1003138b f   msvcrt:ehprolg3.obj
 0001:000303c1       __EH_prolog3_catch_GS      100313c1 f   msvcrt:ehprolg3.obj
 0001:00030400       __SEH_prolog4              10031400 f   msvcrt:sehprolg4.obj
 0001:00030450       __SEH_epilog4              10031450 f   msvcrt:sehprolg4.obj
 0001:00030470       __SEH_prolog4_GS           10031470 f   msvcrt:sehprolg4gs.obj
 0001:000304c0       __SEH_epilog4_GS           100314c0 f   msvcrt:sehprolg4gs.obj
 0001:000304cf       __except_handler4          100314cf f   msvcrt:chandler4gs.obj
 0001:000304fe       @_guard_check_icall_nop@4  100314fe f i msvcrt:guard_support.obj
 0001:00030501       _ReadNoFence               10031501 f i msvcrt:guard_support.obj
 0001:0003050b       _ReadPointerNoFence        1003150b f i msvcrt:guard_support.obj
 0001:00030515       ___castguard_check_failure_debugbreak 10031515 f i msvcrt:guard_support.obj
 0001:00030530       ___castguard_check_failure_fastfail 10031530 f i msvcrt:guard_support.obj
 0001:0003054f       ___castguard_check_failure_nop 1003154f f i msvcrt:guard_support.obj
 0001:00030552       ___castguard_check_failure_os_handled 10031552 f i msvcrt:guard_support.obj
 0001:000305a6       ___castguard_slow_path_check_debugbreak 100315a6 f i msvcrt:guard_support.obj
 0001:000305d3       ___castguard_slow_path_check_fastfail 100315d3 f i msvcrt:guard_support.obj
 0001:00030604       ___castguard_slow_path_check_nop 10031604 f i msvcrt:guard_support.obj
 0001:00030607       ___castguard_slow_path_check_os_handled 10031607 f i msvcrt:guard_support.obj
 0001:0003066d       __guard_icall_checks_enforced 1003166d f i msvcrt:guard_support.obj
 0001:0003067f       ___raise_securityfailure   1003167f f   msvcrt:gs_report.obj
 0001:000306a7       ___report_gsfailure        100316a7 f   msvcrt:gs_report.obj
 0001:000307a1       ___report_rangecheckfailure 100317a1 f   msvcrt:gs_report.obj
 0001:000307ad       ___report_securityfailure  100317ad f   msvcrt:gs_report.obj
 0001:0003087c       ___report_securityfailureEx 1003187c f   msvcrt:gs_report.obj
 0001:00030991       ___isa_available_init      10031991 f   msvcrt:cpu_disp.obj
 0001:00030b62       __get_startup_argv_mode    10031b62 f   msvcrt:argv_mode.obj
 0001:00030b66       ___scrt_is_ucrt_dll_in_use 10031b66 f   msvcrt:ucrt_detection.obj
 0001:00030b72       ___scrt_fastfail           10031b72 f   msvcrt:utility_desktop.obj
 0001:00030c8d       ___scrt_get_show_window_mode 10031c8d f   msvcrt:utility_desktop.obj
 0001:00030cbe       ___scrt_initialize_mta     10031cbe f   msvcrt:utility_desktop.obj
 0001:00030cc3       ___scrt_initialize_winrt   10031cc3 f   msvcrt:utility_desktop.obj
 0001:00030cc6       ___scrt_is_managed_app     10031cc6 f   msvcrt:utility_desktop.obj
 0001:00030d09       ___scrt_set_unhandled_exception_filter 10031d09 f   msvcrt:utility_desktop.obj
 0001:00030d15       ___scrt_stub_for_initialize_mta 10031d15 f   msvcrt:utility_desktop.obj
 0001:00030d15       ___scrt_exe_initialize_mta 10031d15 f   msvcrt:utility_desktop.obj
 0001:00030d18       ___scrt_unhandled_exception_filter@4 10031d18 f   msvcrt:utility_desktop.obj
 0001:00030d6e       __crt_debugger_hook        10031d6e f   msvcrt:utility_desktop.obj
 0001:00030d80       __alloca_probe             10031d80 f   msvcrt:chkstk.obj
 0001:00030d80       __chkstk                   10031d80 f   msvcrt:chkstk.obj
 0001:00030df8       ___security_init_cookie    10031df8 f   msvcrt:gs_support.obj
 0001:00030e43       ?__scrt_initialize_type_info@@YAXXZ 10031e43 f   msvcrt:tncleanup.obj
 0001:00030e4f       ?__scrt_uninitialize_type_info@@YAXXZ 10031e4f f   msvcrt:tncleanup.obj
 0001:00030e5b       ___scrt_initialize_default_local_stdio_options 10031e5b f   msvcrt:default_local_stdio_options.obj
 0001:00030e78       ___scrt_get_dyn_tls_init_callback 10031e78 f   msvcrt:dyn_tls_init.obj
 0001:00030e7e       __RTC_Initialize           10031e7e f   msvcrt:initsect.obj
 0001:00030eaa       __RTC_Terminate            10031eaa f   msvcrt:initsect.obj
 0001:00030ed6       _Sleep@4                   10031ed6 f   kernel32:KERNEL32.dll
 0001:00030edc       _lstrcpyA@8                10031edc f   kernel32:KERNEL32.dll
 0001:00030ee2       _lstrlenA@4                10031ee2 f   kernel32:KERNEL32.dll
 0001:00030ee8       _GetEnvironmentVariableA@12 10031ee8 f   kernel32:KERNEL32.dll
 0001:00030eee       _SetCurrentDirectoryA@4    10031eee f   kernel32:KERNEL32.dll
 0001:00030ef4       _GetCurrentDirectoryA@8    10031ef4 f   kernel32:KERNEL32.dll
 0001:00030efa       _GetLongPathNameA@12       10031efa f   kernel32:KERNEL32.dll
 0001:00030f00       _FreeLibrary@4             10031f00 f   kernel32:KERNEL32.dll
 0001:00030f06       _GetModuleHandleA@4        10031f06 f   kernel32:KERNEL32.dll
 0001:00030f0c       _GetProcAddress@8          10031f0c f   kernel32:KERNEL32.dll
 0001:00030f12       _LoadLibraryA@4            10031f12 f   kernel32:KERNEL32.dll
 0001:00030f18       _GetPrivateProfileStringA@24 10031f18 f   kernel32:KERNEL32.dll
 0001:00030f1e       _MultiByteToWideChar@24    10031f1e f   kernel32:KERNEL32.dll
 0001:00030f24       _WideCharToMultiByte@32    10031f24 f   kernel32:KERNEL32.dll
 0001:00030f2a       _SetFileAttributesA@8      10031f2a f   kernel32:KERNEL32.dll
 0001:00030f30       _GetPrivateProfileIntA@16  10031f30 f   kernel32:KERNEL32.dll
 0001:00030f36       _GetVersionExA@4           10031f36 f   kernel32:KERNEL32.dll
 0001:00030f3c       _GlobalReAlloc@12          10031f3c f   kernel32:KERNEL32.dll
 0001:00030f42       _GlobalSize@4              10031f42 f   kernel32:KERNEL32.dll
 0001:00030f48       _GlobalUnlock@4            10031f48 f   kernel32:KERNEL32.dll
 0001:00030f4e       _GlobalLock@4              10031f4e f   kernel32:KERNEL32.dll
 0001:00030f54       _MulDiv@12                 10031f54 f   kernel32:KERNEL32.dll
 0001:00030f5a       _GetTickCount@0            10031f5a f   kernel32:KERNEL32.dll
 0001:00030f60       _DecodePointer@4           10031f60 f   kernel32:KERNEL32.dll
 0001:00030f66       _RaiseException@16         10031f66 f   kernel32:KERNEL32.dll
 0001:00030f6c       _GetLastError@0            10031f6c f   kernel32:KERNEL32.dll
 0001:00030f72       _HeapDestroy@4             10031f72 f   kernel32:KERNEL32.dll
 0001:00030f78       _HeapAlloc@12              10031f78 f   kernel32:KERNEL32.dll
 0001:00030f7e       _HeapReAlloc@16            10031f7e f   kernel32:KERNEL32.dll
 0001:00030f84       _HeapFree@12               10031f84 f   kernel32:KERNEL32.dll
 0001:00030f8a       _HeapSize@12               10031f8a f   kernel32:KERNEL32.dll
 0001:00030f90       _GetProcessHeap@0          10031f90 f   kernel32:KERNEL32.dll
 0001:00030f96       _InitializeCriticalSectionEx@12 10031f96 f   kernel32:KERNEL32.dll
 0001:00030f9c       _DeleteCriticalSection@4   10031f9c f   kernel32:KERNEL32.dll
 0001:00030fa2       _GetModuleFileNameA@12     10031fa2 f   kernel32:KERNEL32.dll
 0001:00030fa8       _OutputDebugStringA@4      10031fa8 f   kernel32:KERNEL32.dll
 0001:00030fae       _SetLastError@4            10031fae f   kernel32:KERNEL32.dll
 0001:00030fb4       _InitializeCriticalSectionAndSpinCount@8 10031fb4 f   kernel32:KERNEL32.dll
 0001:00030fba       _GetModuleFileNameW@12     10031fba f   kernel32:KERNEL32.dll
 0001:00030fc0       _GetModuleHandleW@4        10031fc0 f   kernel32:KERNEL32.dll
 0001:00030fc6       _LoadLibraryW@4            10031fc6 f   kernel32:KERNEL32.dll
 0001:00030fcc       _CloseHandle@4             10031fcc f   kernel32:KERNEL32.dll
 0001:00030fd2       _EnterCriticalSection@4    10031fd2 f   kernel32:KERNEL32.dll
 0001:00030fd8       _LeaveCriticalSection@4    10031fd8 f   kernel32:KERNEL32.dll
 0001:00030fde       _SetEvent@4                10031fde f   kernel32:KERNEL32.dll
 0001:00030fe4       _ResetEvent@4              10031fe4 f   kernel32:KERNEL32.dll
 0001:00030fea       _WaitForSingleObjectEx@12  10031fea f   kernel32:KERNEL32.dll
 0001:00030ff0       _CreateEventW@16           10031ff0 f   kernel32:KERNEL32.dll
 0001:00030ff6       _UnhandledExceptionFilter@4 10031ff6 f   kernel32:KERNEL32.dll
 0001:00030ffe       _SetUnhandledExceptionFilter@4 10031ffe f   kernel32:KERNEL32.dll
 0001:00031004       _GetCurrentProcess@0       10032004 f   kernel32:KERNEL32.dll
 0001:0003100a       _TerminateProcess@8        1003200a f   kernel32:KERNEL32.dll
 0001:00031010       _IsProcessorFeaturePresent@4 10032010 f   kernel32:KERNEL32.dll
 0001:00031016       _IsDebuggerPresent@0       10032016 f   kernel32:KERNEL32.dll
 0001:0003101c       _GetStartupInfoW@4         1003201c f   kernel32:KERNEL32.dll
 0001:00031022       _QueryPerformanceCounter@4 10032022 f   kernel32:KERNEL32.dll
 0001:00031028       _GetCurrentProcessId@0     10032028 f   kernel32:KERNEL32.dll
 0001:0003102e       _GetCurrentThreadId@0      1003202e f   kernel32:KERNEL32.dll
 0001:00031034       _GetSystemTimeAsFileTime@4 10032034 f   kernel32:KERNEL32.dll
 0001:0003103a       _InitializeSListHead@4     1003203a f   kernel32:KERNEL32.dll
 0001:00031040       _DrawFrameControl@16       10032040 f   user32:USER32.dll
 0001:00031046       _GetMessageA@16            10032046 f   user32:USER32.dll
 0001:0003104c       _DispatchMessageA@4        1003204c f   user32:USER32.dll
 0001:00031052       _GetMessagePos@0           10032052 f   user32:USER32.dll
 0001:00031058       _SendMessageA@16           10032058 f   user32:USER32.dll
 0001:0003105e       _IsChild@8                 1003205e f   user32:USER32.dll
 0001:00031064       _GetFocus@0                10032064 f   user32:USER32.dll
 0001:0003106a       _GetCapture@0              1003206a f   user32:USER32.dll
 0001:00031070       _SetCapture@4              10032070 f   user32:USER32.dll
 0001:00031076       _ReleaseCapture@0          10032076 f   user32:USER32.dll
 0001:0003107c       _SetTimer@16               1003207c f   user32:USER32.dll
 0001:00031082       _KillTimer@8               10032082 f   user32:USER32.dll
 0001:00031088       _EnableWindow@8            10032088 f   user32:USER32.dll
 0001:0003108e       _GetSystemMetrics@4        1003208e f   user32:USER32.dll
 0001:00031094       _DrawTextA@20              10032094 f   user32:USER32.dll
 0001:0003109a       _UpdateWindow@4            1003209a f   user32:USER32.dll
 0001:000310a0       _InvalidateRect@12         100320a0 f   user32:USER32.dll
 0001:000310a6       _GetClientRect@8           100320a6 f   user32:USER32.dll
 0001:000310ac       _SetCursor@4               100320ac f   user32:USER32.dll
 0001:000310b2       _GetCursor@0               100320b2 f   user32:USER32.dll
 0001:000310b8       _ScreenToClient@8          100320b8 f   user32:USER32.dll
 0001:000310be       _GetSysColor@4             100320be f   user32:USER32.dll
 0001:000310c4       _SetRect@20                100320c4 f   user32:USER32.dll
 0001:000310ca       _CopyRect@8                100320ca f   user32:USER32.dll
 0001:000310d0       _InflateRect@12            100320d0 f   user32:USER32.dll
 0001:000310d6       _OffsetRect@12             100320d6 f   user32:USER32.dll
 0001:000310dc       _PtInRect@12               100320dc f   user32:USER32.dll
 0001:000310e2       _GetParent@4               100320e2 f   user32:USER32.dll
 0001:000310e8       _RegisterWindowMessageA@4  100320e8 f   user32:USER32.dll
 0001:000310ee       _GetWindowRect@8           100320ee f   user32:USER32.dll
 0001:000310f4       _GetCursorPos@4            100320f4 f   user32:USER32.dll
 0001:000310fa       _ClientToScreen@8          100320fa f   user32:USER32.dll
 0001:00031100       _GetKeyState@4             10032100 f   user32:USER32.dll
 0001:00031106       _LoadImageA@24             10032106 f   user32:USER32.dll
 0001:0003110c       _ShowScrollBar@12          1003210c f   user32:USER32.dll
 0001:00031112       _GetDC@4                   10032112 f   user32:USER32.dll
 0001:00031118       _ReleaseDC@8               10032118 f   user32:USER32.dll
 0001:0003111e       _SystemParametersInfoA@16  1003211e f   user32:USER32.dll
 0001:00031124       _DrawEdge@16               10032124 f   user32:USER32.dll
 0001:0003112a       _FillRect@12               1003212a f   user32:USER32.dll
 0001:00031130       _FrameRect@12              10032130 f   user32:USER32.dll
 0001:00031136       _LoadCursorA@8             10032136 f   user32:USER32.dll
 0001:0003113c       _PostMessageA@16           1003213c f   user32:USER32.dll
 0001:00031142       _DefWindowProcA@16         10032142 f   user32:USER32.dll
 0001:00031148       _GetClassInfoA@12          10032148 f   user32:USER32.dll
 0001:0003114e       _IsWindow@4                1003214e f   user32:USER32.dll
 0001:00031154       _IsClipboardFormatAvailable@4 10032154 f   user32:USER32.dll
 0001:0003115a       _DrawTextExA@24            1003215a f   user32:USER32.dll
 0001:00031160       _GrayStringA@36            10032160 f   user32:USER32.dll
 0001:00031166       _TabbedTextOutA@32         10032166 f   user32:USER32.dll
 0001:0003116c       _ClipCursor@4              1003216c f   user32:USER32.dll
 0001:00031172       _InvertRect@8              10032172 f   user32:USER32.dll
 0001:00031178       _IntersectRect@12          10032178 f   user32:USER32.dll
 0001:0003117e       _GetDoubleClickTime@0      1003217e f   user32:USER32.dll
 0001:00031184       _IsWindowVisible@4         10032184 f   user32:USER32.dll
 0001:0003118a       _WindowFromPoint@8         1003218a f   user32:USER32.dll
 0001:00031190       _IsRectEmpty@4             10032190 f   user32:USER32.dll
 0001:00031196       _UnregisterClassA@8        10032196 f   user32:USER32.dll
 0001:0003119c       _BitBlt@36                 1003219c f   gdi32:GDI32.dll
 0001:000311a2       _CreateCompatibleBitmap@12 100321a2 f   gdi32:GDI32.dll
 0001:000311a8       _CreateCompatibleDC@4      100321a8 f   gdi32:GDI32.dll
 0001:000311ae       _CreateFontIndirectA@4     100321ae f   gdi32:GDI32.dll
 0001:000311b4       _CreateRectRgnIndirect@4   100321b4 f   gdi32:GDI32.dll
 0001:000311ba       _GetTextExtentPoint32A@16  100321ba f   gdi32:GDI32.dll
 0001:000311c0       _GetObjectA@12             100321c0 f   gdi32:GDI32.dll
 0001:000311c6       _DeleteObject@4            100321c6 f   gdi32:GDI32.dll
 0001:000311cc       _CreateDCA@16              100321cc f   gdi32:GDI32.dll
 0001:000311d2       _CreatePen@12              100321d2 f   gdi32:GDI32.dll
 0001:000311d8       _CreateSolidBrush@4        100321d8 f   gdi32:GDI32.dll
 0001:000311de       _GetCurrentObject@8        100321de f   gdi32:GDI32.dll
 0001:000311e4       _GetDeviceCaps@8           100321e4 f   gdi32:GDI32.dll
 0001:000311ea       _CreateFontA@56            100321ea f   gdi32:GDI32.dll
 0001:000311f0       _Escape@20                 100321f0 f   gdi32:GDI32.dll
 0001:000311f6       _GetBkColor@4              100321f6 f   gdi32:GDI32.dll
 0001:000311fc       _PtVisible@12              100321fc f   gdi32:GDI32.dll
 0001:00031202       _RectVisible@8             10032202 f   gdi32:GDI32.dll
 0001:00031208       _StartDocA@8               10032208 f   gdi32:GDI32.dll
 0001:0003120e       _EndDoc@4                  1003220e f   gdi32:GDI32.dll
 0001:00031214       _StartPage@4               10032214 f   gdi32:GDI32.dll
 0001:0003121a       _EndPage@4                 1003221a f   gdi32:GDI32.dll
 0001:00031220       _AbortDoc@4                10032220 f   gdi32:GDI32.dll
 0001:00031226       _TextOutA@20               10032226 f   gdi32:GDI32.dll
 0001:0003122c       _ExtTextOutA@32            1003222c f   gdi32:GDI32.dll
 0001:00031232       _PatBlt@24                 10032232 f   gdi32:GDI32.dll
 0001:00031238       _GetTextMetricsA@8         10032238 f   gdi32:GDI32.dll
 0001:0003123e       _RegCloseKey@4             1003223e f   advapi32:ADVAPI32.dll
 0001:00031244       _RegOpenKeyExA@20          10032244 f   advapi32:ADVAPI32.dll
 0001:0003124a       _RegQueryValueExA@24       1003224a f   advapi32:ADVAPI32.dll
 0001:00031250       _ImageList_Draw@24         10032250 f   comctl32:COMCTL32.dll
 0001:00031256       _ImageList_GetImageInfo@12 10032256 f   comctl32:COMCTL32.dll
 0001:0003125c       _ImageList_AddMasked@12    1003225c f   comctl32:COMCTL32.dll
 0001:00031262       ??$?2PAUHINSTANCE__@@@Wrapper@?$CSimpleArray@PAUHINSTANCE__@@V?$CSimpleArrayEqualHelper@PAUHINSTANCE__@@@ATL@@@ATL@@SAPAXIPAPAUHINSTANCE__@@@Z 10032262 f i atls:atlbase.obj
 0001:0003126a       ??0?$CComCritSecLock@VCComCriticalSection@ATL@@@ATL@@QAE@AAVCComCriticalSection@1@_N@Z 1003226a f i atls:atlbase.obj
 0001:00031291       ??0?$CSimpleArray@PAUHINSTANCE__@@V?$CSimpleArrayEqualHelper@PAUHINSTANCE__@@@ATL@@@ATL@@QAE@XZ 10032291 f i atls:atlbase.obj
 0001:0003129e       ??0CAtlBaseModule@ATL@@QAE@XZ 1003229e f   atls:atlbase.obj
 0001:000312f1       ??0Wrapper@?$CSimpleArray@PAUHINSTANCE__@@V?$CSimpleArrayEqualHelper@PAUHINSTANCE__@@@ATL@@@ATL@@QAE@ABQAUHINSTANCE__@@@Z 100322f1 f i atls:atlbase.obj
 0001:00031301       ??0_ATL_BASE_MODULE70@ATL@@QAE@XZ 10032301 f i atls:atlbase.obj
 0001:00031324       ??1?$CComCritSecLock@VCComCriticalSection@ATL@@@ATL@@QAE@XZ 10032324 f i atls:atlbase.obj
 0001:0003133b       ??1?$CSimpleArray@PAUHINSTANCE__@@V?$CSimpleArrayEqualHelper@PAUHINSTANCE__@@@ATL@@@ATL@@QAE@XZ 1003233b f i atls:atlbase.obj
 0001:00031340       ??1CAtlBaseModule@ATL@@QAE@XZ 10032340 f   atls:atlbase.obj
 0001:00031356       ??1_ATL_BASE_MODULE70@ATL@@QAE@XZ 10032356 f i atls:atlbase.obj
 0001:0003135e       ??A?$CSimpleArray@PAUHINSTANCE__@@V?$CSimpleArrayEqualHelper@PAUHINSTANCE__@@@ATL@@@ATL@@QAEAAPAUHINSTANCE__@@H@Z 1003235e f i atls:atlbase.obj
 0001:00031383       ?Add@?$CSimpleArray@PAUHINSTANCE__@@V?$CSimpleArrayEqualHelper@PAUHINSTANCE__@@@ATL@@@ATL@@QAEHABQAUHINSTANCE__@@@Z 10032383 f i atls:atlbase.obj
 0001:00031405       ?AddResourceInstance@CAtlBaseModule@ATL@@QAE_NPAUHINSTANCE__@@@Z 10032405 f   atls:atlbase.obj
 0001:00031438       ?AtlCrtErrorCheck@ATL@@YAHH@Z 10032438 f i atls:atlbase.obj
 0001:00031473       ?GetHInstanceAt@CAtlBaseModule@ATL@@QAEPAUHINSTANCE__@@H@Z 10032473 f   atls:atlbase.obj
 0001:000314b8       ?GetSize@?$CSimpleArray@PAUHINSTANCE__@@V?$CSimpleArrayEqualHelper@PAUHINSTANCE__@@@ATL@@@ATL@@QBEHXZ 100324b8 f i atls:atlbase.obj
 0001:000314bc       ?InternalSetAtIndex@?$CSimpleArray@PAUHINSTANCE__@@V?$CSimpleArrayEqualHelper@PAUHINSTANCE__@@@ATL@@@ATL@@QAEXHABQAUHINSTANCE__@@@Z 100324bc f i atls:atlbase.obj
 0001:000314d6       ?Lock@?$CComCritSecLock@VCComCriticalSection@ATL@@@ATL@@QAEJXZ 100324d6 f i atls:atlbase.obj
 0001:000314e9       ?Lock@CComCriticalSection@ATL@@QAEJXZ 100324e9 f i atls:atlbase.obj
 0001:000314f3       ?RemoveAll@?$CSimpleArray@PAUHINSTANCE__@@V?$CSimpleArrayEqualHelper@PAUHINSTANCE__@@@ATL@@@ATL@@QAEXXZ 100324f3 f i atls:atlbase.obj
 0001:00031510       ?RemoveAt@?$CSimpleArray@PAUHINSTANCE__@@V?$CSimpleArrayEqualHelper@PAUHINSTANCE__@@@ATL@@@ATL@@QAEHH@Z 10032510 f i atls:atlbase.obj
 0001:0003155e       ?RemoveResourceInstance@CAtlBaseModule@ATL@@QAE_NPAUHINSTANCE__@@@Z 1003255e f   atls:atlbase.obj
 0001:000315bb       ?Unlock@?$CComCritSecLock@VCComCriticalSection@ATL@@@ATL@@QAEXXZ 100325bb f i atls:atlbase.obj
 0001:000315cc       ?Unlock@CComCriticalSection@ATL@@QAEJXZ 100325cc f i atls:atlbase.obj
 0001:000315d6       ?memmove_s@Checked@ATL@@YAXPAXIPBXI@Z 100325d6 f i atls:atlbase.obj
 0001:00031673       ??0?$CTraceCategoryEx@$00$0A@@ATL@@QAE@PB_W@Z 10032673 f i atls:stdafx.obj
 0001:00031678       ??0?$CTraceCategoryEx@$01$0A@@ATL@@QAE@PB_W@Z 10032678 f i atls:stdafx.obj
 0001:0003167d       ??0?$CTraceCategoryEx@$03$0A@@ATL@@QAE@PB_W@Z 1003267d f i atls:stdafx.obj
 0001:00031682       ??0?$CTraceCategoryEx@$07$0A@@ATL@@QAE@PB_W@Z 10032682 f i atls:stdafx.obj
 0001:00031687       ??0?$CTraceCategoryEx@$0BA@$0A@@ATL@@QAE@PB_W@Z 10032687 f i atls:stdafx.obj
 0001:0003168c       ??0?$CTraceCategoryEx@$0BAA@$0A@@ATL@@QAE@PB_W@Z 1003268c f i atls:stdafx.obj
 0001:00031691       ??0?$CTraceCategoryEx@$0BAAA@$0A@@ATL@@QAE@PB_W@Z 10032691 f i atls:stdafx.obj
 0001:00031696       ??0?$CTraceCategoryEx@$0BAAAA@$0A@@ATL@@QAE@PB_W@Z 10032696 f i atls:stdafx.obj
 0001:0003169b       ??0?$CTraceCategoryEx@$0BAAAAA@$0A@@ATL@@QAE@PB_W@Z 1003269b f i atls:stdafx.obj
 0001:000316a0       ??0?$CTraceCategoryEx@$0CA@$0A@@ATL@@QAE@PB_W@Z 100326a0 f i atls:stdafx.obj
 0001:000316a5       ??0?$CTraceCategoryEx@$0CAA@$0A@@ATL@@QAE@PB_W@Z 100326a5 f i atls:stdafx.obj
 0001:000316aa       ??0?$CTraceCategoryEx@$0CAAA@$0A@@ATL@@QAE@PB_W@Z 100326aa f i atls:stdafx.obj
 0001:000316af       ??0?$CTraceCategoryEx@$0CAAAA@$0A@@ATL@@QAE@PB_W@Z 100326af f i atls:stdafx.obj
 0001:000316b4       ??0?$CTraceCategoryEx@$0CAAAAA@$0A@@ATL@@QAE@PB_W@Z 100326b4 f i atls:stdafx.obj
 0001:000316b9       ??0?$CTraceCategoryEx@$0EA@$0A@@ATL@@QAE@PB_W@Z 100326b9 f i atls:stdafx.obj
 0001:000316be       ??0?$CTraceCategoryEx@$0EAA@$0A@@ATL@@QAE@PB_W@Z 100326be f i atls:stdafx.obj
 0001:000316c3       ??0?$CTraceCategoryEx@$0EAAA@$0A@@ATL@@QAE@PB_W@Z 100326c3 f i atls:stdafx.obj
 0001:000316c8       ??0?$CTraceCategoryEx@$0EAAAA@$0A@@ATL@@QAE@PB_W@Z 100326c8 f i atls:stdafx.obj
 0001:000316cd       ??0?$CTraceCategoryEx@$0EAAAAA@$0A@@ATL@@QAE@PB_W@Z 100326cd f i atls:stdafx.obj
 0001:000316d2       ??0?$CTraceCategoryEx@$0IA@$0A@@ATL@@QAE@PB_W@Z 100326d2 f i atls:stdafx.obj
 0001:000316d7       ??0?$CTraceCategoryEx@$0IAA@$0A@@ATL@@QAE@PB_W@Z 100326d7 f i atls:stdafx.obj
 0001:000316dc       ??0?$CTraceCategoryEx@$0IAAA@$0A@@ATL@@QAE@PB_W@Z 100326dc f i atls:stdafx.obj
 0001:000316e1       ??0?$CTraceCategoryEx@$0IAAAA@$0A@@ATL@@QAE@PB_W@Z 100326e1 f i atls:stdafx.obj
 0001:000316e6       ??_I@YGXPAXIIP6EX0@Z@Z     100326e6 f i atls:stdafx.obj
 0001:00031719       _StringFromCLSID@8         10032719 f   ole32:ole32.dll
 0001:0003171f       _CLSIDFromProgID@8         1003271f f   ole32:ole32.dll
 0001:00031725       _CoTaskMemFree@4           10032725 f   ole32:ole32.dll
 0001:0003172b       _SystemTimeToVariantTime@8 1003272b f   oleaut32:OLEAUT32.dll
 0001:00031731       _VariantTimeToSystemTime@12 10032731 f   oleaut32:OLEAUT32.dll
 0001:00031737       _VarUdateFromDate@16       10032737 f   oleaut32:OLEAUT32.dll
 0001:0003173d       _SysFreeString@4           1003273d f   oleaut32:OLEAUT32.dll
 0001:00031743       __purecall                 10032743 f   vcruntime:VCRUNTIME140.dll
 0001:00031749       ___CxxFrameHandler3        10032749 f   vcruntime:VCRUNTIME140.dll
 0001:0003174f       _memcpy                    1003274f f   vcruntime:VCRUNTIME140.dll
 0001:00031755       _memset                    10032755 f   vcruntime:VCRUNTIME140.dll
 0001:0003175b       ___std_terminate           1003275b f   vcruntime:VCRUNTIME140.dll
 0001:00031761       _strrchr                   10032761 f   vcruntime:VCRUNTIME140.dll
 0001:00031767       _memmove                   10032767 f   vcruntime:VCRUNTIME140.dll
 0001:0003176d       ___current_exception       1003276d f   vcruntime:VCRUNTIME140.dll
 0001:00031773       ___current_exception_context 10032773 f   vcruntime:VCRUNTIME140.dll
 0001:00031779       __except_handler4_common   10032779 f   vcruntime:VCRUNTIME140.dll
 0001:0003177f       ___std_type_info_destroy_list 1003277f f   vcruntime:VCRUNTIME140.dll
 0001:00031785       __invalid_parameter_noinfo 10032785 f   ucrt:api-ms-win-crt-runtime-l1-1-0.dll
 0001:0003178b       __errno                    1003278b f   ucrt:api-ms-win-crt-runtime-l1-1-0.dll
 0001:00031791       ___stdio_common_vsscanf    10032791 f   ucrt:api-ms-win-crt-stdio-l1-1-0.dll
 0001:00031797       __strupr                   10032797 f   ucrt:api-ms-win-crt-string-l1-1-0.dll
 0001:0003179d       ___stdio_common_vsprintf   1003279d f   ucrt:api-ms-win-crt-stdio-l1-1-0.dll
 0001:000317a3       _atof                      100327a3 f   ucrt:api-ms-win-crt-convert-l1-1-0.dll
 0001:000317a9       _atoi                      100327a9 f   ucrt:api-ms-win-crt-convert-l1-1-0.dll
 0001:000317af       ___acrt_iob_func           100327af f   ucrt:api-ms-win-crt-stdio-l1-1-0.dll
 0001:000317b5       ___stdio_common_vfprintf   100327b5 f   ucrt:api-ms-win-crt-stdio-l1-1-0.dll
 0001:000317bb       __mbscmp                   100327bb f   ucrt:api-ms-win-crt-multibyte-l1-1-0.dll
 0001:000317c1       _strtoul                   100327c1 f   ucrt:api-ms-win-crt-convert-l1-1-0.dll
 0001:000317c7       __localtime64_s            100327c7 f   ucrt:api-ms-win-crt-time-l1-1-0.dll
 0001:000317cd       _strftime                  100327cd f   ucrt:api-ms-win-crt-time-l1-1-0.dll
 0001:000317d3       __time64                   100327d3 f   ucrt:api-ms-win-crt-time-l1-1-0.dll
 0001:000317d9       _free                      100327d9 f   ucrt:api-ms-win-crt-heap-l1-1-0.dll
 0001:000317df       _qsort                     100327df f   ucrt:api-ms-win-crt-utility-l1-1-0.dll
 0001:000317e5       _ceil                      100327e5 f   ucrt:api-ms-win-crt-math-l1-1-0.dll
 0001:000317eb       _floor                     100327eb f   ucrt:api-ms-win-crt-math-l1-1-0.dll
 0001:000317f1       __seh_filter_dll           100327f1 f   ucrt:api-ms-win-crt-runtime-l1-1-0.dll
 0001:000317f7       __configure_narrow_argv    100327f7 f   ucrt:api-ms-win-crt-runtime-l1-1-0.dll
 0001:000317fd       __initialize_narrow_environment 100327fd f   ucrt:api-ms-win-crt-runtime-l1-1-0.dll
 0001:00031803       __initialize_onexit_table  10032803 f   ucrt:api-ms-win-crt-runtime-l1-1-0.dll
 0001:00031809       __register_onexit_function 10032809 f   ucrt:api-ms-win-crt-runtime-l1-1-0.dll
 0001:0003180f       __execute_onexit_table     1003280f f   ucrt:api-ms-win-crt-runtime-l1-1-0.dll
 0001:00031815       __crt_atexit               10032815 f   ucrt:api-ms-win-crt-runtime-l1-1-0.dll
 0001:0003181b       __crt_at_quick_exit        1003281b f   ucrt:api-ms-win-crt-runtime-l1-1-0.dll
 0001:00031821       __cexit                    10032821 f   ucrt:api-ms-win-crt-runtime-l1-1-0.dll
 0001:00031827       _terminate                 10032827 f   ucrt:api-ms-win-crt-runtime-l1-1-0.dll
 0001:0003182d       __initterm                 1003282d f   ucrt:api-ms-win-crt-runtime-l1-1-0.dll
 0001:00031833       __initterm_e               10032833 f   ucrt:api-ms-win-crt-runtime-l1-1-0.dll
 0001:00031839       __recalloc                 10032839 f   ucrt:api-ms-win-crt-heap-l1-1-0.dll
 0001:0003183f       _OutputDebugStringW@4      1003283f f   kernel32:KERNEL32.dll
 0001:00031845       ___scrt_stub_for_acrt_initialize 10032845 f   msvcrt:ucrt_stubs.obj
 0001:00031845       ___acrt_initialize         10032845 f   msvcrt:ucrt_stubs.obj
 0001:00031845       ___vcrt_initialize         10032845 f   msvcrt:ucrt_stubs.obj
 0001:00031848       ___scrt_stub_for_acrt_thread_attach 10032848 f   msvcrt:ucrt_stubs.obj
 0001:00031848       ___vcrt_thread_attach      10032848 f   msvcrt:ucrt_stubs.obj
 0001:00031848       ___acrt_thread_attach      10032848 f   msvcrt:ucrt_stubs.obj
 0001:0003184b       ___scrt_stub_for_acrt_thread_detach 1003284b f   msvcrt:ucrt_stubs.obj
 0001:0003184b       ___acrt_thread_detach      1003284b f   msvcrt:ucrt_stubs.obj
 0001:0003184b       ___vcrt_thread_detach      1003284b f   msvcrt:ucrt_stubs.obj
 0001:0003184e       ___acrt_uninitialize       1003284e f   msvcrt:ucrt_stubs.obj
 0001:0003184e       ___scrt_stub_for_acrt_uninitialize 1003284e f   msvcrt:ucrt_stubs.obj
 0001:0003184e       ___vcrt_uninitialize       1003284e f   msvcrt:ucrt_stubs.obj
 0001:00031851       ___scrt_stub_for_acrt_uninitialize_critical 10032851 f   msvcrt:ucrt_stubs.obj
 0001:00031851       ___vcrt_uninitialize_critical 10032851 f   msvcrt:ucrt_stubs.obj
 0001:00031851       ___acrt_uninitialize_critical 10032851 f   msvcrt:ucrt_stubs.obj
 0001:00031854       __is_c_termination_complete 10032854 f   msvcrt:ucrt_stubs.obj
 0001:00031854       ___scrt_stub_for_is_c_termination_complete 10032854 f   msvcrt:ucrt_stubs.obj
 0001:00031857       __filter_x86_sse2_floating_point_exception_default 10032857 f   msvcrt:x86_exception_filter.obj
 0001:00031857       __filter_x86_sse2_floating_point_exception 10032857 f   msvcrt:x86_exception_filter.obj
 0001:00035100       ??__Fcell@?6??GetCell@CGridCtrl@@QBEPAVCGridCellBase@@HH@Z@YAXXZ 10036100 f i GridCtrl.obj
 0001:00035110       ??__Fgvdi@?6??GetCell@CGridCtrl@@QBEPAVCGridCellBase@@HH@Z@YAXXZ 10036110 f i GridCtrl.obj
 0001:000352c0       ??__FstrHeap@?1??GetInstance@CAtlStringMgr@ATL@@SAPAUIAtlStringMgr@2@XZ@YAXXZ 100362c0 f i StdAfx.obj
 0001:000352f0       ??__FstrMgr@?1??GetInstance@CAtlStringMgr@ATL@@SAPAUIAtlStringMgr@2@XZ@YAXXZ 100362f0 f i StdAfx.obj
 0002:00000000       __imp__RegCloseKey@4       10037000     advapi32:ADVAPI32.dll
 0002:00000004       __imp__RegQueryValueExA@24 10037004     advapi32:ADVAPI32.dll
 0002:00000008       __imp__RegOpenKeyExA@20    10037008     advapi32:ADVAPI32.dll
 0002:0000000c       \177ADVAPI32_NULL_THUNK_DATA 1003700c     advapi32:ADVAPI32.dll
 0002:00000010       __imp__ImageList_GetImageInfo@12 10037010     comctl32:COMCTL32.dll
 0002:00000014       __imp__ImageList_AddMasked@12 10037014     comctl32:COMCTL32.dll
 0002:00000018       __imp__ImageList_Draw@24   10037018     comctl32:COMCTL32.dll
 0002:0000001c       \177COMCTL32_NULL_THUNK_DATA 1003701c     comctl32:COMCTL32.dll
 0002:00000020       __imp__CreateDCA@16        10037020     gdi32:GDI32.dll
 0002:00000024       __imp__CreatePen@12        10037024     gdi32:GDI32.dll
 0002:00000028       __imp__CreateSolidBrush@4  10037028     gdi32:GDI32.dll
 0002:0000002c       __imp__GetCurrentObject@8  1003702c     gdi32:GDI32.dll
 0002:00000030       __imp__GetDeviceCaps@8     10037030     gdi32:GDI32.dll
 0002:00000034       __imp__CreateFontA@56      10037034     gdi32:GDI32.dll
 0002:00000038       __imp__GetObjectA@12       10037038     gdi32:GDI32.dll
 0002:0000003c       __imp__GetBkColor@4        1003703c     gdi32:GDI32.dll
 0002:00000040       __imp__PtVisible@12        10037040     gdi32:GDI32.dll
 0002:00000044       __imp__RectVisible@8       10037044     gdi32:GDI32.dll
 0002:00000048       __imp__StartDocA@8         10037048     gdi32:GDI32.dll
 0002:0000004c       __imp__EndDoc@4            1003704c     gdi32:GDI32.dll
 0002:00000050       __imp__StartPage@4         10037050     gdi32:GDI32.dll
 0002:00000054       __imp__DeleteObject@4      10037054     gdi32:GDI32.dll
 0002:00000058       __imp__GetTextExtentPoint32A@16 10037058     gdi32:GDI32.dll
 0002:0000005c       __imp__CreateRectRgnIndirect@4 1003705c     gdi32:GDI32.dll
 0002:00000060       __imp__CreateCompatibleDC@4 10037060     gdi32:GDI32.dll
 0002:00000064       __imp__CreateFontIndirectA@4 10037064     gdi32:GDI32.dll
 0002:00000068       __imp__CreateCompatibleBitmap@12 10037068     gdi32:GDI32.dll
 0002:0000006c       __imp__Escape@20           1003706c     gdi32:GDI32.dll
 0002:00000070       __imp__BitBlt@36           10037070     gdi32:GDI32.dll
 0002:00000074       __imp__EndPage@4           10037074     gdi32:GDI32.dll
 0002:00000078       __imp__GetTextMetricsA@8   10037078     gdi32:GDI32.dll
 0002:0000007c       __imp__PatBlt@24           1003707c     gdi32:GDI32.dll
 0002:00000080       __imp__ExtTextOutA@32      10037080     gdi32:GDI32.dll
 0002:00000084       __imp__TextOutA@20         10037084     gdi32:GDI32.dll
 0002:00000088       __imp__AbortDoc@4          10037088     gdi32:GDI32.dll
 0002:0000008c       \177GDI32_NULL_THUNK_DATA  1003708c     gdi32:GDI32.dll
 0002:00000090       __imp__GlobalLock@4        10037090     kernel32:KERNEL32.dll
 0002:00000094       __imp__GlobalUnlock@4      10037094     kernel32:KERNEL32.dll
 0002:00000098       __imp__GlobalSize@4        10037098     kernel32:KERNEL32.dll
 0002:0000009c       __imp__GlobalReAlloc@12    1003709c     kernel32:KERNEL32.dll
 0002:000000a0       __imp__GetVersionExA@4     100370a0     kernel32:KERNEL32.dll
 0002:000000a4       __imp__GetPrivateProfileIntA@16 100370a4     kernel32:KERNEL32.dll
 0002:000000a8       __imp__SetFileAttributesA@8 100370a8     kernel32:KERNEL32.dll
 0002:000000ac       __imp__WideCharToMultiByte@32 100370ac     kernel32:KERNEL32.dll
 0002:000000b0       __imp__MultiByteToWideChar@24 100370b0     kernel32:KERNEL32.dll
 0002:000000b4       __imp__GetPrivateProfileStringA@24 100370b4     kernel32:KERNEL32.dll
 0002:000000b8       __imp__LoadLibraryA@4      100370b8     kernel32:KERNEL32.dll
 0002:000000bc       __imp__GetProcAddress@8    100370bc     kernel32:KERNEL32.dll
 0002:000000c0       __imp__GetModuleHandleA@4  100370c0     kernel32:KERNEL32.dll
 0002:000000c4       __imp__FreeLibrary@4       100370c4     kernel32:KERNEL32.dll
 0002:000000c8       __imp__GetLongPathNameA@12 100370c8     kernel32:KERNEL32.dll
 0002:000000cc       __imp__GetCurrentDirectoryA@8 100370cc     kernel32:KERNEL32.dll
 0002:000000d0       __imp__SetCurrentDirectoryA@4 100370d0     kernel32:KERNEL32.dll
 0002:000000d4       __imp__GetEnvironmentVariableA@12 100370d4     kernel32:KERNEL32.dll
 0002:000000d8       __imp__lstrlenA@4          100370d8     kernel32:KERNEL32.dll
 0002:000000dc       __imp__lstrcpyA@8          100370dc     kernel32:KERNEL32.dll
 0002:000000e0       __imp__OutputDebugStringW@4 100370e0     kernel32:KERNEL32.dll
 0002:000000e4       __imp__MulDiv@12           100370e4     kernel32:KERNEL32.dll
 0002:000000e8       __imp__GetTickCount@0      100370e8     kernel32:KERNEL32.dll
 0002:000000ec       __imp__DecodePointer@4     100370ec     kernel32:KERNEL32.dll
 0002:000000f0       __imp__RaiseException@16   100370f0     kernel32:KERNEL32.dll
 0002:000000f4       __imp__GetLastError@0      100370f4     kernel32:KERNEL32.dll
 0002:000000f8       __imp__HeapDestroy@4       100370f8     kernel32:KERNEL32.dll
 0002:000000fc       __imp__HeapAlloc@12        100370fc     kernel32:KERNEL32.dll
 0002:00000100       __imp__HeapReAlloc@16      10037100     kernel32:KERNEL32.dll
 0002:00000104       __imp__HeapFree@12         10037104     kernel32:KERNEL32.dll
 0002:00000108       __imp__HeapSize@12         10037108     kernel32:KERNEL32.dll
 0002:0000010c       __imp__GetProcessHeap@0    1003710c     kernel32:KERNEL32.dll
 0002:00000110       __imp__InitializeCriticalSectionEx@12 10037110     kernel32:KERNEL32.dll
 0002:00000114       __imp__DeleteCriticalSection@4 10037114     kernel32:KERNEL32.dll
 0002:00000118       __imp__GetModuleFileNameA@12 10037118     kernel32:KERNEL32.dll
 0002:0000011c       __imp__OutputDebugStringA@4 1003711c     kernel32:KERNEL32.dll
 0002:00000120       __imp__SetLastError@4      10037120     kernel32:KERNEL32.dll
 0002:00000124       __imp__InitializeCriticalSectionAndSpinCount@8 10037124     kernel32:KERNEL32.dll
 0002:00000128       __imp__GetModuleFileNameW@12 10037128     kernel32:KERNEL32.dll
 0002:0000012c       __imp__GetModuleHandleW@4  1003712c     kernel32:KERNEL32.dll
 0002:00000130       __imp__LoadLibraryW@4      10037130     kernel32:KERNEL32.dll
 0002:00000134       __imp__CloseHandle@4       10037134     kernel32:KERNEL32.dll
 0002:00000138       __imp__EnterCriticalSection@4 10037138     kernel32:KERNEL32.dll
 0002:0000013c       __imp__LeaveCriticalSection@4 1003713c     kernel32:KERNEL32.dll
 0002:00000140       __imp__SetEvent@4          10037140     kernel32:KERNEL32.dll
 0002:00000144       __imp__ResetEvent@4        10037144     kernel32:KERNEL32.dll
 0002:00000148       __imp__WaitForSingleObjectEx@12 10037148     kernel32:KERNEL32.dll
 0002:0000014c       __imp__CreateEventW@16     1003714c     kernel32:KERNEL32.dll
 0002:00000150       __imp__UnhandledExceptionFilter@4 10037150     kernel32:KERNEL32.dll
 0002:00000154       __imp__SetUnhandledExceptionFilter@4 10037154     kernel32:KERNEL32.dll
 0002:00000158       __imp__GetCurrentProcess@0 10037158     kernel32:KERNEL32.dll
 0002:0000015c       __imp__TerminateProcess@8  1003715c     kernel32:KERNEL32.dll
 0002:00000160       __imp__Sleep@4             10037160     kernel32:KERNEL32.dll
 0002:00000164       __imp__IsProcessorFeaturePresent@4 10037164     kernel32:KERNEL32.dll
 0002:00000168       __imp__IsDebuggerPresent@0 10037168     kernel32:KERNEL32.dll
 0002:0000016c       __imp__GetStartupInfoW@4   1003716c     kernel32:KERNEL32.dll
 0002:00000170       __imp__QueryPerformanceCounter@4 10037170     kernel32:KERNEL32.dll
 0002:00000174       __imp__GetCurrentProcessId@0 10037174     kernel32:KERNEL32.dll
 0002:00000178       __imp__GetCurrentThreadId@0 10037178     kernel32:KERNEL32.dll
 0002:0000017c       __imp__GetSystemTimeAsFileTime@4 1003717c     kernel32:KERNEL32.dll
 0002:00000180       __imp__InitializeSListHead@4 10037180     kernel32:KERNEL32.dll
 0002:00000184       \177KERNEL32_NULL_THUNK_DATA 10037184     kernel32:KERNEL32.dll
 0002:00000188       __imp__SystemTimeToVariantTime@8 10037188     oleaut32:OLEAUT32.dll
 0002:0000018c       __imp__VarUdateFromDate@16 1003718c     oleaut32:OLEAUT32.dll
 0002:00000190       __imp__VariantTimeToSystemTime@12 10037190     oleaut32:OLEAUT32.dll
 0002:00000194       __imp__SysFreeString@4     10037194     oleaut32:OLEAUT32.dll
 0002:00000198       \177OLEAUT32_NULL_THUNK_DATA 10037198     oleaut32:OLEAUT32.dll
 0002:0000019c       __imp__EnableWindow@8      1003719c     user32:USER32.dll
 0002:000001a0       __imp__KillTimer@8         100371a0     user32:USER32.dll
 0002:000001a4       __imp__SetTimer@16         100371a4     user32:USER32.dll
 0002:000001a8       __imp__ReleaseCapture@0    100371a8     user32:USER32.dll
 0002:000001ac       __imp__SetCapture@4        100371ac     user32:USER32.dll
 0002:000001b0       __imp__GetCapture@0        100371b0     user32:USER32.dll
 0002:000001b4       __imp__GetFocus@0          100371b4     user32:USER32.dll
 0002:000001b8       __imp__IsChild@8           100371b8     user32:USER32.dll
 0002:000001bc       __imp__SendMessageA@16     100371bc     user32:USER32.dll
 0002:000001c0       __imp__GetMessagePos@0     100371c0     user32:USER32.dll
 0002:000001c4       __imp__DispatchMessageA@4  100371c4     user32:USER32.dll
 0002:000001c8       __imp__GetMessageA@16      100371c8     user32:USER32.dll
 0002:000001cc       __imp__DrawFrameControl@16 100371cc     user32:USER32.dll
 0002:000001d0       __imp__DrawTextA@20        100371d0     user32:USER32.dll
 0002:000001d4       __imp__GetCursor@0         100371d4     user32:USER32.dll
 0002:000001d8       __imp__ScreenToClient@8    100371d8     user32:USER32.dll
 0002:000001dc       __imp__GetSysColor@4       100371dc     user32:USER32.dll
 0002:000001e0       __imp__SetRect@20          100371e0     user32:USER32.dll
 0002:000001e4       __imp__CopyRect@8          100371e4     user32:USER32.dll
 0002:000001e8       __imp__InflateRect@12      100371e8     user32:USER32.dll
 0002:000001ec       __imp__OffsetRect@12       100371ec     user32:USER32.dll
 0002:000001f0       __imp__PtInRect@12         100371f0     user32:USER32.dll
 0002:000001f4       __imp__RegisterWindowMessageA@4 100371f4     user32:USER32.dll
 0002:000001f8       __imp__GetWindowRect@8     100371f8     user32:USER32.dll
 0002:000001fc       __imp__GetCursorPos@4      100371fc     user32:USER32.dll
 0002:00000200       __imp__UpdateWindow@4      10037200     user32:USER32.dll
 0002:00000204       __imp__GetKeyState@4       10037204     user32:USER32.dll
 0002:00000208       __imp__LoadImageA@24       10037208     user32:USER32.dll
 0002:0000020c       __imp__ShowScrollBar@12    1003720c     user32:USER32.dll
 0002:00000210       __imp__GetDC@4             10037210     user32:USER32.dll
 0002:00000214       __imp__ReleaseDC@8         10037214     user32:USER32.dll
 0002:00000218       __imp__SystemParametersInfoA@16 10037218     user32:USER32.dll
 0002:0000021c       __imp__DrawEdge@16         1003721c     user32:USER32.dll
 0002:00000220       __imp__FillRect@12         10037220     user32:USER32.dll
 0002:00000224       __imp__FrameRect@12        10037224     user32:USER32.dll
 0002:00000228       __imp__LoadCursorA@8       10037228     user32:USER32.dll
 0002:0000022c       __imp__PostMessageA@16     1003722c     user32:USER32.dll
 0002:00000230       __imp__DefWindowProcA@16   10037230     user32:USER32.dll
 0002:00000234       __imp__GetClassInfoA@12    10037234     user32:USER32.dll
 0002:00000238       __imp__IsWindow@4          10037238     user32:USER32.dll
 0002:0000023c       __imp__IsClipboardFormatAvailable@4 1003723c     user32:USER32.dll
 0002:00000240       __imp__DrawTextExA@24      10037240     user32:USER32.dll
 0002:00000244       __imp__GrayStringA@36      10037244     user32:USER32.dll
 0002:00000248       __imp__TabbedTextOutA@32   10037248     user32:USER32.dll
 0002:0000024c       __imp__ClipCursor@4        1003724c     user32:USER32.dll
 0002:00000250       __imp__InvertRect@8        10037250     user32:USER32.dll
 0002:00000254       __imp__IntersectRect@12    10037254     user32:USER32.dll
 0002:00000258       __imp__GetDoubleClickTime@0 10037258     user32:USER32.dll
 0002:0000025c       __imp__IsWindowVisible@4   1003725c     user32:USER32.dll
 0002:00000260       __imp__WindowFromPoint@8   10037260     user32:USER32.dll
 0002:00000264       __imp__IsRectEmpty@4       10037264     user32:USER32.dll
 0002:00000268       __imp__UnregisterClassA@8  10037268     user32:USER32.dll
 0002:0000026c       __imp__GetSystemMetrics@4  1003726c     user32:USER32.dll
 0002:00000270       __imp__InvalidateRect@12   10037270     user32:USER32.dll
 0002:00000274       __imp__GetClientRect@8     10037274     user32:USER32.dll
 0002:00000278       __imp__ClientToScreen@8    10037278     user32:USER32.dll
 0002:0000027c       __imp__SetCursor@4         1003727c     user32:USER32.dll
 0002:00000280       __imp__GetParent@4         10037280     user32:USER32.dll
 0002:00000284       \177USER32_NULL_THUNK_DATA 10037284     user32:USER32.dll
 0002:00000288       __imp____CxxFrameHandler3  10037288     vcruntime:VCRUNTIME140.dll
 0002:0000028c       __imp__memcpy              1003728c     vcruntime:VCRUNTIME140.dll
 0002:00000290       __imp__memset              10037290     vcruntime:VCRUNTIME140.dll
 0002:00000294       __imp____std_terminate     10037294     vcruntime:VCRUNTIME140.dll
 0002:00000298       __imp__strrchr             10037298     vcruntime:VCRUNTIME140.dll
 0002:0000029c       __imp__memmove             1003729c     vcruntime:VCRUNTIME140.dll
 0002:000002a0       __imp___purecall           100372a0     vcruntime:VCRUNTIME140.dll
 0002:000002a4       __imp____current_exception_context 100372a4     vcruntime:VCRUNTIME140.dll
 0002:000002a8       __imp___except_handler4_common 100372a8     vcruntime:VCRUNTIME140.dll
 0002:000002ac       __imp____std_type_info_destroy_list 100372ac     vcruntime:VCRUNTIME140.dll
 0002:000002b0       __imp____current_exception 100372b0     vcruntime:VCRUNTIME140.dll
 0002:000002b4       \177VCRUNTIME140_NULL_THUNK_DATA 100372b4     vcruntime:VCRUNTIME140.dll
 0002:000002b8       __imp__strtoul             100372b8     ucrt:api-ms-win-crt-convert-l1-1-0.dll
 0002:000002bc       __imp__atoi                100372bc     ucrt:api-ms-win-crt-convert-l1-1-0.dll
 0002:000002c0       __imp__atof                100372c0     ucrt:api-ms-win-crt-convert-l1-1-0.dll
 0002:000002c4       \177api-ms-win-crt-convert-l1-1-0_NULL_THUNK_DATA 100372c4     ucrt:api-ms-win-crt-convert-l1-1-0.dll
 0002:000002c8       __imp___recalloc           100372c8     ucrt:api-ms-win-crt-heap-l1-1-0.dll
 0002:000002cc       __imp__free                100372cc     ucrt:api-ms-win-crt-heap-l1-1-0.dll
 0002:000002d0       \177api-ms-win-crt-heap-l1-1-0_NULL_THUNK_DATA 100372d0     ucrt:api-ms-win-crt-heap-l1-1-0.dll
 0002:000002d4       __imp__floor               100372d4     ucrt:api-ms-win-crt-math-l1-1-0.dll
 0002:000002d8       __imp__ceil                100372d8     ucrt:api-ms-win-crt-math-l1-1-0.dll
 0002:000002dc       \177api-ms-win-crt-math-l1-1-0_NULL_THUNK_DATA 100372dc     ucrt:api-ms-win-crt-math-l1-1-0.dll
 0002:000002e0       __imp___mbscmp             100372e0     ucrt:api-ms-win-crt-multibyte-l1-1-0.dll
 0002:000002e4       \177api-ms-win-crt-multibyte-l1-1-0_NULL_THUNK_DATA 100372e4     ucrt:api-ms-win-crt-multibyte-l1-1-0.dll
 0002:000002e8       __imp___crt_atexit         100372e8     ucrt:api-ms-win-crt-runtime-l1-1-0.dll
 0002:000002ec       __imp___execute_onexit_table 100372ec     ucrt:api-ms-win-crt-runtime-l1-1-0.dll
 0002:000002f0       __imp___crt_at_quick_exit  100372f0     ucrt:api-ms-win-crt-runtime-l1-1-0.dll
 0002:000002f4       __imp___initialize_onexit_table 100372f4     ucrt:api-ms-win-crt-runtime-l1-1-0.dll
 0002:000002f8       __imp___initialize_narrow_environment 100372f8     ucrt:api-ms-win-crt-runtime-l1-1-0.dll
 0002:000002fc       __imp___configure_narrow_argv 100372fc     ucrt:api-ms-win-crt-runtime-l1-1-0.dll
 0002:00000300       __imp___seh_filter_dll     10037300     ucrt:api-ms-win-crt-runtime-l1-1-0.dll
 0002:00000304       __imp___cexit              10037304     ucrt:api-ms-win-crt-runtime-l1-1-0.dll
 0002:00000308       __imp__terminate           10037308     ucrt:api-ms-win-crt-runtime-l1-1-0.dll
 0002:0000030c       __imp___initterm           1003730c     ucrt:api-ms-win-crt-runtime-l1-1-0.dll
 0002:00000310       __imp___initterm_e         10037310     ucrt:api-ms-win-crt-runtime-l1-1-0.dll
 0002:00000314       __imp___register_onexit_function 10037314     ucrt:api-ms-win-crt-runtime-l1-1-0.dll
 0002:00000318       __imp___invalid_parameter_noinfo 10037318     ucrt:api-ms-win-crt-runtime-l1-1-0.dll
 0002:0000031c       __imp___errno              1003731c     ucrt:api-ms-win-crt-runtime-l1-1-0.dll
 0002:00000320       \177api-ms-win-crt-runtime-l1-1-0_NULL_THUNK_DATA 10037320     ucrt:api-ms-win-crt-runtime-l1-1-0.dll
 0002:00000324       __imp____stdio_common_vsprintf 10037324     ucrt:api-ms-win-crt-stdio-l1-1-0.dll
 0002:00000328       __imp____acrt_iob_func     10037328     ucrt:api-ms-win-crt-stdio-l1-1-0.dll
 0002:0000032c       __imp____stdio_common_vfprintf 1003732c     ucrt:api-ms-win-crt-stdio-l1-1-0.dll
 0002:00000330       __imp____stdio_common_vsscanf 10037330     ucrt:api-ms-win-crt-stdio-l1-1-0.dll
 0002:00000334       \177api-ms-win-crt-stdio-l1-1-0_NULL_THUNK_DATA 10037334     ucrt:api-ms-win-crt-stdio-l1-1-0.dll
 0002:00000338       __imp___strupr             10037338     ucrt:api-ms-win-crt-string-l1-1-0.dll
 0002:0000033c       \177api-ms-win-crt-string-l1-1-0_NULL_THUNK_DATA 1003733c     ucrt:api-ms-win-crt-string-l1-1-0.dll
 0002:00000340       __imp__strftime            10037340     ucrt:api-ms-win-crt-time-l1-1-0.dll
 0002:00000344       __imp___localtime64_s      10037344     ucrt:api-ms-win-crt-time-l1-1-0.dll
 0002:00000348       __imp___time64             10037348     ucrt:api-ms-win-crt-time-l1-1-0.dll
 0002:0000034c       \177api-ms-win-crt-time-l1-1-0_NULL_THUNK_DATA 1003734c     ucrt:api-ms-win-crt-time-l1-1-0.dll
 0002:00000350       __imp__qsort               10037350     ucrt:api-ms-win-crt-utility-l1-1-0.dll
 0002:00000354       \177api-ms-win-crt-utility-l1-1-0_NULL_THUNK_DATA 10037354     ucrt:api-ms-win-crt-utility-l1-1-0.dll
 0002:00000358       __imp_?MakeReverse@?$CStringT@DV?$StrTraitMFC_DLL@DV?$ChTraitsCRT@D@ATL@@@@@ATL@@QAEAAV12@XZ 10037358     mfc140:mfc140.dll
 0002:0000035c       __imp_?TrimRight@?$CStringT@DV?$StrTraitMFC_DLL@DV?$ChTraitsCRT@D@ATL@@@@@ATL@@QAEAAV12@XZ 1003735c     mfc140:mfc140.dll
 0002:00000360       __imp_?TrimLeft@?$CStringT@DV?$StrTraitMFC_DLL@DV?$ChTraitsCRT@D@ATL@@@@@ATL@@QAEAAV12@XZ 10037360     mfc140:mfc140.dll
 0002:00000364       __imp_?Mid@?$CStringT@DV?$StrTraitMFC_DLL@DV?$ChTraitsCRT@D@ATL@@@@@ATL@@QBE?AV12@H@Z 10037364     mfc140:mfc140.dll
 0002:00000368       __imp_?Mid@?$CStringT@DV?$StrTraitMFC_DLL@DV?$ChTraitsCRT@D@ATL@@@@@ATL@@QBE?AV12@HH@Z 10037368     mfc140:mfc140.dll
 0002:0000036c       __imp_?GetRuntimeClass@CDialog@@UBEPAUCRuntimeClass@@XZ 1003736c     mfc140:mfc140.dll
 0002:00000370       __imp_?Create@CDialog@@UAEHPBDPAVCWnd@@@Z 10037370     mfc140:mfc140.dll
 0002:00000374       __imp_?CreateIndirect@CDialog@@UAEHPBUDLGTEMPLATE@@PAVCWnd@@PAX@Z 10037374     mfc140:mfc140.dll
 0002:00000378       __imp_?CreateIndirect@CDialog@@UAEHPAXPAVCWnd@@@Z 10037378     mfc140:mfc140.dll
 0002:0000037c       __imp_??0CDialog@@QAE@IPAVCWnd@@@Z 1003737c     mfc140:mfc140.dll
 0002:00000380       __imp_?DoModal@CDialog@@UAEHXZ 10037380     mfc140:mfc140.dll
 0002:00000384       __imp_?OnInitDialog@CDialog@@UAEHXZ 10037384     mfc140:mfc140.dll
 0002:00000388       __imp_?OnSetFont@CDialog@@UAEXPAVCFont@@@Z 10037388     mfc140:mfc140.dll
 0002:0000038c       __imp_?OnOK@CDialog@@MAEXXZ 1003738c     mfc140:mfc140.dll
 0002:00000390       __imp_?OnCancel@CDialog@@MAEXXZ 10037390     mfc140:mfc140.dll
 0002:00000394       __imp_??1CDialog@@UAE@XZ   10037394     mfc140:mfc140.dll
 0002:00000398       __imp_?PreTranslateMessage@CDialog@@UAEHPAUtagMSG@@@Z 10037398     mfc140:mfc140.dll
 0002:0000039c       __imp_?OnCmdMsg@CDialog@@UAEHIHPAXPAUAFX_CMDHANDLERINFO@@@Z 1003739c     mfc140:mfc140.dll
 0002:000003a0       __imp_?CheckAutoCenter@CDialog@@UAEHXZ 100373a0     mfc140:mfc140.dll
 0002:000003a4       __imp_?SetOccDialogInfo@CDialog@@MAEHPAU_AFX_OCC_DIALOG_INFO@@@Z 100373a4     mfc140:mfc140.dll
 0002:000003a8       __imp_?GetOccDialogInfo@CDialog@@MAEPAU_AFX_OCC_DIALOG_INFO@@XZ 100373a8     mfc140:mfc140.dll
 0002:000003ac       __imp_?PreInitDialog@CDialog@@MAEXXZ 100373ac     mfc140:mfc140.dll
 0002:000003b0       __imp_?GetThisMessageMap@CDialog@@KGPBUAFX_MSGMAP@@XZ 100373b0     mfc140:mfc140.dll
 0002:000003b4       __imp_?GetMessageMap@CDialog@@MBEPBUAFX_MSGMAP@@XZ 100373b4     mfc140:mfc140.dll
 0002:000003b8       __imp_?GetAt@?$CSimpleStringT@D$00@ATL@@QBEDH@Z 100373b8     mfc140:mfc140.dll
 0002:000003bc       __imp_?Compare@?$CStringT@DV?$StrTraitMFC_DLL@DV?$ChTraitsCRT@D@ATL@@@@@ATL@@QBEHPBD@Z 100373bc     mfc140:mfc140.dll
 0002:000003c0       __imp_?Find@?$CStringT@DV?$StrTraitMFC_DLL@DV?$ChTraitsCRT@D@ATL@@@@@ATL@@QBEHDH@Z 100373c0     mfc140:mfc140.dll
 0002:000003c4       __imp_?Create@CPlex@@SGPAU1@AAPAU1@II@Z 100373c4     mfc140:mfc140.dll
 0002:000003c8       __imp_?FreeDataChain@CPlex@@QAEXXZ 100373c8     mfc140:mfc140.dll
 0002:000003cc       __imp_?GetRuntimeClass@CBrush@@UBEPAUCRuntimeClass@@XZ 100373cc     mfc140:mfc140.dll
 0002:000003d0       __imp_??0CImageList@@QAE@XZ 100373d0     mfc140:mfc140.dll
 0002:000003d4       __imp_?Create@CImageList@@QAEHHHIHH@Z 100373d4     mfc140:mfc140.dll
 0002:000003d8       __imp_?DeleteImageList@CImageList@@QAEHXZ 100373d8     mfc140:mfc140.dll
 0002:000003dc       __imp_??1CImageList@@UAE@XZ 100373dc     mfc140:mfc140.dll
 0002:000003e0       __imp_?DDX_Control@@YGXPAVCDataExchange@@HAAVCWnd@@@Z 100373e0     mfc140:mfc140.dll
 0002:000003e4       __imp_?GetDlgItem@CWnd@@QBEPAV1@H@Z 100373e4     mfc140:mfc140.dll
 0002:000003e8       __imp_?ScreenToClient@CWnd@@QBEXPAUtagRECT@@@Z 100373e8     mfc140:mfc140.dll
 0002:000003ec       __imp_?GetDlgItemInt@CWnd@@QBEIHPAHH@Z 100373ec     mfc140:mfc140.dll
 0002:000003f0       __imp_?SetDlgItemTextA@CWnd@@QAEXHPBD@Z 100373f0     mfc140:mfc140.dll
 0002:000003f4       __imp_?OnCtlColor@CWnd@@IAEPAUHBRUSH__@@PAVCDC@@PAV1@I@Z 100373f4     mfc140:mfc140.dll
 0002:000003f8       __imp_?GetRuntimeClass@CListBox@@UBEPAUCRuntimeClass@@XZ 100373f8     mfc140:mfc140.dll
 0002:000003fc       __imp_?Create@CListBox@@UAEHKABUtagRECT@@PAVCWnd@@I@Z 100373fc     mfc140:mfc140.dll
 0002:00000400       __imp_?DrawItem@CListBox@@UAEXPAUtagDRAWITEMSTRUCT@@@Z 10037400     mfc140:mfc140.dll
 0002:00000404       __imp_?MeasureItem@CListBox@@UAEXPAUtagMEASUREITEMSTRUCT@@@Z 10037404     mfc140:mfc140.dll
 0002:00000408       __imp_?CompareItem@CListBox@@UAEHPAUtagCOMPAREITEMSTRUCT@@@Z 10037408     mfc140:mfc140.dll
 0002:0000040c       __imp_?DeleteItem@CListBox@@UAEXPAUtagDELETEITEMSTRUCT@@@Z 1003740c     mfc140:mfc140.dll
 0002:00000410       __imp_?VKeyToItem@CListBox@@UAEHII@Z 10037410     mfc140:mfc140.dll
 0002:00000414       __imp_?CharToItem@CListBox@@UAEHII@Z 10037414     mfc140:mfc140.dll
 0002:00000418       __imp_??1CListBox@@UAE@XZ  10037418     mfc140:mfc140.dll
 0002:0000041c       __imp_?OnChildNotify@CListBox@@MAEHIIJPAJ@Z 1003741c     mfc140:mfc140.dll
 0002:00000420       __imp_?AfxBeginThread@@YGPAVCWinThread@@P6AIPAX@Z0HIKPAU_SECURITY_ATTRIBUTES@@@Z 10037420     mfc140:mfc140.dll
 0002:00000424       __imp_?AfxEnableControlContainer@@YAXPAVCOccManager@@@Z 10037424     mfc140:mfc140.dll
 0002:00000428       __imp_?Replace@?$CStringT@DV?$StrTraitMFC_DLL@DV?$ChTraitsCRT@D@ATL@@@@@ATL@@QAEHPBD0@Z 10037428     mfc140:mfc140.dll
 0002:0000042c       __imp_??0CStdioFile@@QAE@XZ 1003742c     mfc140:mfc140.dll
 0002:00000430       __imp_?WriteString@CStdioFile@@UAEXPBD@Z 10037430     mfc140:mfc140.dll
 0002:00000434       __imp_?ReadString@CStdioFile@@UAEHAAV?$CStringT@DV?$StrTraitMFC_DLL@DV?$ChTraitsCRT@D@ATL@@@@@ATL@@@Z 10037434     mfc140:mfc140.dll
 0002:00000438       __imp_??1CStdioFile@@UAE@XZ 10037438     mfc140:mfc140.dll
 0002:0000043c       __imp_?Open@CStdioFile@@UAEHPBDIPAVCFileException@@@Z 1003743c     mfc140:mfc140.dll
 0002:00000440       __imp_?Close@CStdioFile@@UAEXXZ 10037440     mfc140:mfc140.dll
 0002:00000444       __imp_?SetWindowTextA@CWnd@@QAEXPBD@Z 10037444     mfc140:mfc140.dll
 0002:00000448       __imp_?GetDlgItemTextA@CWnd@@QBEHHAAV?$CStringT@DV?$StrTraitMFC_DLL@DV?$ChTraitsCRT@D@ATL@@@@@ATL@@@Z 10037448     mfc140:mfc140.dll
 0002:0000044c       __imp_?GetThisClass@CDialog@@SGPAUCRuntimeClass@@XZ 1003744c     mfc140:mfc140.dll
 0002:00000450       __imp_?GetRuntimeClass@CStatic@@UBEPAUCRuntimeClass@@XZ 10037450     mfc140:mfc140.dll
 0002:00000454       __imp_?Create@CStatic@@UAEHPBDKABUtagRECT@@PAVCWnd@@I@Z 10037454     mfc140:mfc140.dll
 0002:00000458       __imp_?DrawItem@CStatic@@UAEXPAUtagDRAWITEMSTRUCT@@@Z 10037458     mfc140:mfc140.dll
 0002:0000045c       __imp_??1CStatic@@UAE@XZ   1003745c     mfc140:mfc140.dll
 0002:00000460       __imp_?OnChildNotify@CStatic@@MAEHIIJPAJ@Z 10037460     mfc140:mfc140.dll
 0002:00000464       __imp_?Insert@?$CStringT@DV?$StrTraitMFC_DLL@DV?$ChTraitsCRT@D@ATL@@@@@ATL@@QAEHHD@Z 10037464     mfc140:mfc140.dll
 0002:00000468       __imp_?GetThisClass@CObject@@SGPAUCRuntimeClass@@XZ 10037468     mfc140:mfc140.dll
 0002:0000046c       __imp_?AfxTryCleanup@@YGXXZ 1003746c     mfc140:mfc140.dll
 0002:00000470       __imp_??0AFX_EXCEPTION_LINK@@QAE@XZ 10037470     mfc140:mfc140.dll
 0002:00000474       __imp_?AfxGetModuleState@@YGPAVAFX_MODULE_STATE@@XZ 10037474     mfc140:mfc140.dll
 0002:00000478       __imp_??0CBrush@@QAE@K@Z   10037478     mfc140:mfc140.dll
 0002:0000047c       __imp_?CreateObject@CRuntimeClass@@QAEPAVCObject@@XZ 1003747c     mfc140:mfc140.dll
 0002:00000480       __imp_?IsDerivedFrom@CRuntimeClass@@QBEHPBU1@@Z 10037480     mfc140:mfc140.dll
 0002:00000484       __imp_?AfxThrowOleException@@YGXJ@Z 10037484     mfc140:mfc140.dll
 0002:00000488       __imp_?IsKindOf@CObject@@QBEHPBUCRuntimeClass@@@Z 10037488     mfc140:mfc140.dll
 0002:0000048c       __imp_??0CException@@QAE@XZ 1003748c     mfc140:mfc140.dll
 0002:00000490       __imp_?GetErrorMessage@CException@@UAEHPADIPAI@Z 10037490     mfc140:mfc140.dll
 0002:00000494       __imp_?ReportError@CException@@UAEHII@Z 10037494     mfc140:mfc140.dll
 0002:00000498       __imp_?LockBuffer@?$CSimpleStringT@D$00@ATL@@QAEPADXZ 10037498     mfc140:mfc140.dll
 0002:0000049c       __imp_?UnlockBuffer@?$CSimpleStringT@D$00@ATL@@QAEXXZ 1003749c     mfc140:mfc140.dll
 0002:000004a0       __imp_??0?$CStringT@DV?$StrTraitMFC_DLL@DV?$ChTraitsCRT@D@ATL@@@@@ATL@@QAE@DH@Z 100374a0     mfc140:mfc140.dll
 0002:000004a4       __imp_?Remove@?$CStringT@DV?$StrTraitMFC_DLL@DV?$ChTraitsCRT@D@ATL@@@@@ATL@@QAEHD@Z 100374a4     mfc140:mfc140.dll
 0002:000004a8       __imp_?FindOneOf@?$CStringT@DV?$StrTraitMFC_DLL@DV?$ChTraitsCRT@D@ATL@@@@@ATL@@QBEHPBD@Z 100374a8     mfc140:mfc140.dll
 0002:000004ac       __imp_?FormatV@?$CStringT@DV?$StrTraitMFC_DLL@DV?$ChTraitsCRT@D@ATL@@@@@ATL@@QAEXPBDPAD@Z 100374ac     mfc140:mfc140.dll
 0002:000004b0       __imp_?LoadStringA@?$CStringT@DV?$StrTraitMFC_DLL@DV?$ChTraitsCRT@D@ATL@@@@@ATL@@QAEHI@Z 100374b0     mfc140:mfc140.dll
 0002:000004b4       __imp_?GetRuntimeClass@CFileException@@UBEPAUCRuntimeClass@@XZ 100374b4     mfc140:mfc140.dll
 0002:000004b8       __imp_?GetErrorMessage@CFileException@@UBEHPADIPAI@Z 100374b8     mfc140:mfc140.dll
 0002:000004bc       __imp_?ReadString@CStdioFile@@UAEPADPADI@Z 100374bc     mfc140:mfc140.dll
 0002:000004c0       __imp_??0CMemFile@@QAE@PAEII@Z 100374c0     mfc140:mfc140.dll
 0002:000004c4       __imp_??1CMemFile@@UAE@XZ  100374c4     mfc140:mfc140.dll
 0002:000004c8       __imp_?Read@CMemFile@@UAEIPAXI@Z 100374c8     mfc140:mfc140.dll
 0002:000004cc       __imp_?Write@CMemFile@@UAEXPBXI@Z 100374cc     mfc140:mfc140.dll
 0002:000004d0       __imp_?GetLength@CMemFile@@UBE_KXZ 100374d0     mfc140:mfc140.dll
 0002:000004d4       __imp_??0CUIntArray@@QAE@XZ 100374d4     mfc140:mfc140.dll
 0002:000004d8       __imp_?SetSize@CUIntArray@@QAEXHH@Z 100374d8     mfc140:mfc140.dll
 0002:000004dc       __imp_?SetAtGrow@CUIntArray@@QAEXHI@Z 100374dc     mfc140:mfc140.dll
 0002:000004e0       __imp_?InsertAt@CUIntArray@@QAEXHIH@Z 100374e0     mfc140:mfc140.dll
 0002:000004e4       __imp_?RemoveAt@CUIntArray@@QAEXHH@Z 100374e4     mfc140:mfc140.dll
 0002:000004e8       __imp_??1CUIntArray@@UAE@XZ 100374e8     mfc140:mfc140.dll
 0002:000004ec       __imp_?GetRuntimeClass@CTreeCtrl@@UBEPAUCRuntimeClass@@XZ 100374ec     mfc140:mfc140.dll
 0002:000004f0       __imp_??0CObArray@@QAE@XZ  100374f0     mfc140:mfc140.dll
 0002:000004f4       __imp_?SetSize@CObArray@@QAEXHH@Z 100374f4     mfc140:mfc140.dll
 0002:000004f8       __imp_?SetAtGrow@CObArray@@QAEXHPAVCObject@@@Z 100374f8     mfc140:mfc140.dll
 0002:000004fc       __imp_?InsertAt@CObArray@@QAEXHPAVCObject@@H@Z 100374fc     mfc140:mfc140.dll
 0002:00000500       __imp_?RemoveAt@CObArray@@QAEXHH@Z 10037500     mfc140:mfc140.dll
 0002:00000504       __imp_??1CObArray@@UAE@XZ  10037504     mfc140:mfc140.dll
 0002:00000508       __imp_?Serialize@CObArray@@UAEXAAVCArchive@@@Z 10037508     mfc140:mfc140.dll
 0002:0000050c       __imp_?AfxGetThreadState@@YGPAV_AFX_THREAD_STATE@@XZ 1003750c     mfc140:mfc140.dll
 0002:00000510       __imp_?AfxThrowResourceException@@YGXXZ 10037510     mfc140:mfc140.dll
 0002:00000514       __imp_?GetRuntimeClass@CDC@@UBEPAUCRuntimeClass@@XZ 10037514     mfc140:mfc140.dll
 0002:00000518       __imp_?Detach@CDC@@QAEPAUHDC__@@XZ 10037518     mfc140:mfc140.dll
 0002:0000051c       __imp_?SetAttribDC@CDC@@UAEXPAUHDC__@@@Z 1003751c     mfc140:mfc140.dll
 0002:00000520       __imp_?SetOutputDC@CDC@@UAEXPAUHDC__@@@Z 10037520     mfc140:mfc140.dll
 0002:00000524       __imp_?ReleaseAttribDC@CDC@@UAEXXZ 10037524     mfc140:mfc140.dll
 0002:00000528       __imp_?ReleaseOutputDC@CDC@@UAEXXZ 10037528     mfc140:mfc140.dll
 0002:0000052c       __imp_?SelectStockObject@CDC@@UAEPAVCGdiObject@@H@Z 1003752c     mfc140:mfc140.dll
 0002:00000530       __imp_?SetBkColor@CDC@@UAEKK@Z 10037530     mfc140:mfc140.dll
 0002:00000534       __imp_?SetMapMode@CDC@@UAEHH@Z 10037534     mfc140:mfc140.dll
 0002:00000538       __imp_?SetViewportOrg@CDC@@UAE?AVCPoint@@HH@Z 10037538     mfc140:mfc140.dll
 0002:0000053c       __imp_?OffsetViewportOrg@CDC@@UAE?AVCPoint@@HH@Z 1003753c     mfc140:mfc140.dll
 0002:00000540       __imp_?SetViewportExt@CDC@@UAE?AVCSize@@HH@Z 10037540     mfc140:mfc140.dll
 0002:00000544       __imp_?ScaleViewportExt@CDC@@UAE?AVCSize@@HHHH@Z 10037544     mfc140:mfc140.dll
 0002:00000548       __imp_?SetWindowOrg@CDC@@QAE?AVCPoint@@HH@Z 10037548     mfc140:mfc140.dll
 0002:0000054c       __imp_?OffsetWindowOrg@CDC@@QAE?AVCPoint@@HH@Z 1003754c     mfc140:mfc140.dll
 0002:00000550       __imp_?SetWindowExt@CDC@@UAE?AVCSize@@HH@Z 10037550     mfc140:mfc140.dll
 0002:00000554       __imp_?ScaleWindowExt@CDC@@UAE?AVCSize@@HHHH@Z 10037554     mfc140:mfc140.dll
 0002:00000558       __imp_?GetClipBox@CDC@@UBEHPAUtagRECT@@@Z 10037558     mfc140:mfc140.dll
 0002:0000055c       __imp_?BeginWaitCursor@CCmdTarget@@QAEXXZ 1003755c     mfc140:mfc140.dll
 0002:00000560       __imp_?EndWaitCursor@CCmdTarget@@QAEXXZ 10037560     mfc140:mfc140.dll
 0002:00000564       __imp_?GetWindowTextA@CWnd@@QBEXAAV?$CStringT@DV?$StrTraitMFC_DLL@DV?$ChTraitsCRT@D@ATL@@@@@ATL@@@Z 10037564     mfc140:mfc140.dll
 0002:00000568       __imp_?GetScrollPos@CWnd@@QBEHH@Z 10037568     mfc140:mfc140.dll
 0002:0000056c       __imp_?EnableScrollBarCtrl@CWnd@@QAEXHH@Z 1003756c     mfc140:mfc140.dll
 0002:00000570       __imp_?SetScrollInfo@CWnd@@QAEHHPAUtagSCROLLINFO@@H@Z 10037570     mfc140:mfc140.dll
 0002:00000574       __imp_?GetScrollInfo@CWnd@@QAEHHPAUtagSCROLLINFO@@I@Z 10037574     mfc140:mfc140.dll
 0002:00000578       __imp_?OnSysColorChange@CWnd@@IAEXXZ 10037578     mfc140:mfc140.dll
 0002:0000057c       __imp_?OnSettingChange@CWnd@@IAEXIPBD@Z 1003757c     mfc140:mfc140.dll
 0002:00000580       __imp_?AfxRegisterClass@@YGHPAUtagWNDCLASSA@@@Z 10037580     mfc140:mfc140.dll
 0002:00000584       __imp_?GetThisClass@CEdit@@SGPAUCRuntimeClass@@XZ 10037584     mfc140:mfc140.dll
 0002:00000588       __imp_?GetRuntimeClass@CCommonDialog@@UBEPAUCRuntimeClass@@XZ 10037588     mfc140:mfc140.dll
 0002:0000058c       __imp_?OnOK@CCommonDialog@@MAEXXZ 1003758c     mfc140:mfc140.dll
 0002:00000590       __imp_?OnCancel@CCommonDialog@@MAEXXZ 10037590     mfc140:mfc140.dll
 0002:00000594       __imp_?GetMessageMap@CCommonDialog@@MBEPBUAFX_MSGMAP@@XZ 10037594     mfc140:mfc140.dll
 0002:00000598       __imp_??0CPrintDialog@@QAE@HKPAVCWnd@@@Z 10037598     mfc140:mfc140.dll
 0002:0000059c       __imp_?DoModal@CPrintDialog@@UAEHXZ 1003759c     mfc140:mfc140.dll
 0002:000005a0       __imp_??0CPrintInfo@@QAE@XZ 100375a0     mfc140:mfc140.dll
 0002:000005a4       __imp_??1CPrintInfo@@QAE@XZ 100375a4     mfc140:mfc140.dll
 0002:000005a8       __imp_?AfxOleInit@@YGHXZ   100375a8     mfc140:mfc140.dll
 0002:000005ac       __imp_??0COleDataObject@@QAE@XZ 100375ac     mfc140:mfc140.dll
 0002:000005b0       __imp_?Release@COleDataObject@@QAEXXZ 100375b0     mfc140:mfc140.dll
 0002:000005b4       __imp_?AttachClipboard@COleDataObject@@QAEHXZ 100375b4     mfc140:mfc140.dll
 0002:000005b8       __imp_?GetGlobalData@COleDataObject@@QAEPAXGPAUtagFORMATETC@@@Z 100375b8     mfc140:mfc140.dll
 0002:000005bc       __imp_?IsDataAvailable@COleDataObject@@QAEHGPAUtagFORMATETC@@@Z 100375bc     mfc140:mfc140.dll
 0002:000005c0       __imp_??0COleDataSource@@QAE@XZ 100375c0     mfc140:mfc140.dll
 0002:000005c4       __imp_?CacheGlobalData@COleDataSource@@QAEXGPAXPAUtagFORMATETC@@@Z 100375c4     mfc140:mfc140.dll
 0002:000005c8       __imp_?DoDragDrop@COleDataSource@@QAEKKPBUtagRECT@@PAVCOleDropSource@@@Z 100375c8     mfc140:mfc140.dll
 0002:000005cc       __imp_?SetClipboard@COleDataSource@@QAEXXZ 100375cc     mfc140:mfc140.dll
 0002:000005d0       __imp_?FlushClipboard@COleDataSource@@SGXXZ 100375d0     mfc140:mfc140.dll
 0002:000005d4       __imp_?GetClipboardOwner@COleDataSource@@SGPAV1@XZ 100375d4     mfc140:mfc140.dll
 0002:000005d8       __imp_??0CSharedFile@@QAE@II@Z 100375d8     mfc140:mfc140.dll
 0002:000005dc       __imp_?Detach@CSharedFile@@QAEPAXXZ 100375dc     mfc140:mfc140.dll
 0002:000005e0       __imp_??1CSharedFile@@UAE@XZ 100375e0     mfc140:mfc140.dll
 0002:000005e4       __imp_?GetRuntimeClass@CCmdTarget@@UBEPAUCRuntimeClass@@XZ 100375e4     mfc140:mfc140.dll
 0002:000005e8       __imp_?OnFinalRelease@CCmdTarget@@UAEXXZ 100375e8     mfc140:mfc140.dll
 0002:000005ec       __imp_?GetThisMessageMap@CCmdTarget@@KGPBUAFX_MSGMAP@@XZ 100375ec     mfc140:mfc140.dll
 0002:000005f0       __imp_??0COleDropTarget@@QAE@XZ 100375f0     mfc140:mfc140.dll
 0002:000005f4       __imp_?Register@COleDropTarget@@QAEHPAVCWnd@@@Z 100375f4     mfc140:mfc140.dll
 0002:000005f8       __imp_?Revoke@COleDropTarget@@UAEXXZ 100375f8     mfc140:mfc140.dll
 0002:000005fc       __imp_?OnDropEx@COleDropTarget@@UAEKPAVCWnd@@PAVCOleDataObject@@KKVCPoint@@@Z 100375fc     mfc140:mfc140.dll
 0002:00000600       __imp_??1COleDropTarget@@UAE@XZ 10037600     mfc140:mfc140.dll
 0002:00000604       __imp_?GetInterfaceMap@COleDropTarget@@MBEPBUAFX_INTERFACEMAP@@XZ 10037604     mfc140:mfc140.dll
 0002:00000608       __imp_??0CWindowDC@@QAE@PAVCWnd@@@Z 10037608     mfc140:mfc140.dll
 0002:0000060c       __imp_??1CWindowDC@@UAE@XZ 1003760c     mfc140:mfc140.dll
 0002:00000610       __imp_?GetRuntimeClass@CEdit@@UBEPAUCRuntimeClass@@XZ 10037610     mfc140:mfc140.dll
 0002:00000614       __imp_?Create@CEdit@@QAEHKABUtagRECT@@PAVCWnd@@I@Z 10037614     mfc140:mfc140.dll
 0002:00000618       __imp_??1CEdit@@UAE@XZ     10037618     mfc140:mfc140.dll
 0002:0000061c       __imp_?SelectObject@CDC@@QAEPAVCBrush@@PAV2@@Z 1003761c     mfc140:mfc140.dll
 0002:00000620       __imp_?GetRuntimeClass@CWnd@@UBEPAUCRuntimeClass@@XZ 10037620     mfc140:mfc140.dll
 0002:00000624       __imp_?wndTop@CWnd@@2V1@B  10037624     mfc140:mfc140.dll
 0002:00000628       __imp_?AfxInitRichEdit@@YGHXZ 10037628     mfc140:mfc140.dll
 0002:0000062c       __imp_??0CDynLinkLibrary@@QAE@AAUAFX_EXTENSION_MODULE@@H@Z 1003762c     mfc140:mfc140.dll
 0002:00000630       __imp_?AfxInitExtensionModule@@YGHAAUAFX_EXTENSION_MODULE@@PAUHINSTANCE__@@@Z 10037630     mfc140:mfc140.dll
 0002:00000634       __imp_?AfxTermExtensionModule@@YGXAAUAFX_EXTENSION_MODULE@@H@Z 10037634     mfc140:mfc140.dll
 0002:00000638       __imp_?EnableWindow@CWnd@@QAEHH@Z 10037638     mfc140:mfc140.dll
 0002:0000063c       __imp_?CheckRadioButton@CWnd@@QAEXHHH@Z 1003763c     mfc140:mfc140.dll
 0002:00000640       __imp_?DDX_Text@@YGXPAVCDataExchange@@HAAH@Z 10037640     mfc140:mfc140.dll
 0002:00000644       __imp_?DDV_MinMaxInt@@YGXPAVCDataExchange@@HHH@Z 10037644     mfc140:mfc140.dll
 0002:00000648       __imp_?UpdateData@CWnd@@QAEHH@Z 10037648     mfc140:mfc140.dll
 0002:0000064c       __imp_?GetThisMessageMap@CTabCtrl@@KGPBUAFX_MSGMAP@@XZ 1003764c     mfc140:mfc140.dll
 0002:00000650       __imp_?Create@CButton@@UAEHPBDKABUtagRECT@@PAVCWnd@@I@Z 10037650     mfc140:mfc140.dll
 0002:00000654       __imp_?OnChildNotify@CButton@@MAEHIIJPAJ@Z 10037654     mfc140:mfc140.dll
 0002:00000658       __imp_?GetStyle@CWnd@@QBEKXZ 10037658     mfc140:mfc140.dll
 0002:0000065c       __imp_?DrawItem@CButton@@UAEXPAUtagDRAWITEMSTRUCT@@@Z 1003765c     mfc140:mfc140.dll
 0002:00000660       __imp_?Delete@?$CStringT@DV?$StrTraitMFC_DLL@DV?$ChTraitsCRT@D@ATL@@@@@ATL@@QAEHHH@Z 10037660     mfc140:mfc140.dll
 0002:00000664       __imp_??ACMapPtrToPtr@@QAEAAPAXPAX@Z 10037664     mfc140:mfc140.dll
 0002:00000668       __imp_?RemoveKey@CMapPtrToPtr@@QAEHPAX@Z 10037668     mfc140:mfc140.dll
 0002:0000066c       __imp_??2CNoTrackObject@@SGPAXI@Z 1003766c     mfc140:mfc140.dll
 0002:00000670       __imp_??3CNoTrackObject@@SGXPAX@Z 10037670     mfc140:mfc140.dll
 0002:00000674       __imp_?GetData@CThreadLocalObject@@QAEPAVCNoTrackObject@@P6GPAV2@XZ@Z 10037674     mfc140:mfc140.dll
 0002:00000678       __imp_??0AFX_MODULE_THREAD_STATE@@QAE@XZ 10037678     mfc140:mfc140.dll
 0002:0000067c       __imp_?AfxGetAppModuleState@@YGPAVAFX_MODULE_STATE@@XZ 1003767c     mfc140:mfc140.dll
 0002:00000680       __imp_?AfxExtractSubString@@YGHAAV?$CStringT@DV?$StrTraitMFC_DLL@DV?$ChTraitsCRT@D@ATL@@@@@ATL@@PBDHD@Z 10037680     mfc140:mfc140.dll
 0002:00000684       __imp_?OnChildNotify@CTabCtrl@@MAEHIIJPAJ@Z 10037684     mfc140:mfc140.dll
 0002:00000688       __imp_?ModifyStyleEx@CWnd@@QAEHKKI@Z 10037688     mfc140:mfc140.dll
 0002:0000068c       __imp_?SetAtGrow@CStringArray@@QAEXHABV?$CStringT@DV?$StrTraitMFC_DLL@DV?$ChTraitsCRT@D@ATL@@@@@ATL@@@Z 1003768c     mfc140:mfc140.dll
 0002:00000690       __imp_?FindNextFileA@CFileFind@@UAEHXZ 10037690     mfc140:mfc140.dll
 0002:00000694       __imp_?FindFile@CFileFind@@UAEHPBDK@Z 10037694     mfc140:mfc140.dll
 0002:00000698       __imp_?IsDots@CFileFind@@UBEHXZ 10037698     mfc140:mfc140.dll
 0002:0000069c       __imp_?GetFileName@CFileFind@@UBE?AV?$CStringT@DV?$StrTraitMFC_DLL@DV?$ChTraitsCRT@D@ATL@@@@@ATL@@XZ 1003769c     mfc140:mfc140.dll
 0002:000006a0       __imp_??1CFileFind@@UAE@XZ 100376a0     mfc140:mfc140.dll
 0002:000006a4       __imp_??0CFileFind@@QAE@XZ 100376a4     mfc140:mfc140.dll
 0002:000006a8       __imp_?Find@?$CStringT@DV?$StrTraitMFC_DLL@DV?$ChTraitsCRT@D@ATL@@@@@ATL@@QBEHPBDH@Z 100376a8     mfc140:mfc140.dll
 0002:000006ac       __imp_?CompareNoCase@?$CStringT@DV?$StrTraitMFC_DLL@DV?$ChTraitsCRT@D@ATL@@@@@ATL@@QBEHPBD@Z 100376ac     mfc140:mfc140.dll
 0002:000006b0       __imp_??Y?$CStringT@DV?$StrTraitMFC_DLL@DV?$ChTraitsCRT@D@ATL@@@@@ATL@@QAEAAV01@PBD@Z 100376b0     mfc140:mfc140.dll
 0002:000006b4       __imp_??A?$CSimpleStringT@D$00@ATL@@QBEDH@Z 100376b4     mfc140:mfc140.dll
 0002:000006b8       __imp_?Left@?$CStringT@DV?$StrTraitMFC_DLL@DV?$ChTraitsCRT@D@ATL@@@@@ATL@@QBE?AV12@H@Z 100376b8     mfc140:mfc140.dll
 0002:000006bc       __imp_?ReverseFind@?$CStringT@DV?$StrTraitMFC_DLL@DV?$ChTraitsCRT@D@ATL@@@@@ATL@@QBEHD@Z 100376bc     mfc140:mfc140.dll
 0002:000006c0       __imp_?GetManager@?$CStringT@DV?$StrTraitMFC_DLL@DV?$ChTraitsCRT@D@ATL@@@@@ATL@@QBEPAUIAtlStringMgr@2@XZ 100376c0     mfc140:mfc140.dll
 0002:000006c4       __imp_??0?$CStringT@DV?$StrTraitMFC_DLL@DV?$ChTraitsCRT@D@ATL@@@@@ATL@@QAE@PAUIAtlStringMgr@1@@Z 100376c4     mfc140:mfc140.dll
 0002:000006c8       __imp_?Concatenate@?$CSimpleStringT@D$00@ATL@@KAXAAV12@PBDH1H@Z 100376c8     mfc140:mfc140.dll
 0002:000006cc       __imp_?ReleaseBuffer@?$CSimpleStringT@D$00@ATL@@QAEXH@Z 100376cc     mfc140:mfc140.dll
 0002:000006d0       __imp_?GetBufferSetLength@?$CSimpleStringT@D$00@ATL@@QAEPADH@Z 100376d0     mfc140:mfc140.dll
 0002:000006d4       __imp_?GetBuffer@?$CSimpleStringT@D$00@ATL@@QAEPADH@Z 100376d4     mfc140:mfc140.dll
 0002:000006d8       __imp_?AfxUnlockTempMaps@@YGHH@Z 100376d8     mfc140:mfc140.dll
 0002:000006dc       __imp_?AfxLockTempMaps@@YGXXZ 100376dc     mfc140:mfc140.dll
 0002:000006e0       __imp_?AfxMessageBox@@YGHPBDII@Z 100376e0     mfc140:mfc140.dll
 0002:000006e4       __imp_?GetThisMessageMap@CWnd@@KGPBUAFX_MSGMAP@@XZ 100376e4     mfc140:mfc140.dll
 0002:000006e8       __imp_?GetOccDialogInfo@CWnd@@MAEPAU_AFX_OCC_DIALOG_INFO@@XZ 100376e8     mfc140:mfc140.dll
 0002:000006ec       __imp_?SetOccDialogInfo@CWnd@@MAEHPAU_AFX_OCC_DIALOG_INFO@@@Z 100376ec     mfc140:mfc140.dll
 0002:000006f0       __imp_?CreateControlSite@CWnd@@MAEHPAVCOleControlContainer@@PAPAVCOleControlSite@@IABU_GUID@@@Z 100376f0     mfc140:mfc140.dll
 0002:000006f4       __imp_?CreateControlContainer@CWnd@@MAEHPAPAVCOleControlContainer@@@Z 100376f4     mfc140:mfc140.dll
 0002:000006f8       __imp_?OnFinalRelease@CWnd@@UAEXXZ 100376f8     mfc140:mfc140.dll
 0002:000006fc       __imp_?IsFrameWnd@CWnd@@UBEHXZ 100376fc     mfc140:mfc140.dll
 0002:00000700       __imp_?CheckAutoCenter@CWnd@@UAEHXZ 10037700     mfc140:mfc140.dll
 0002:00000704       __imp_??1CWnd@@UAE@XZ      10037704     mfc140:mfc140.dll
 0002:00000708       __imp_?ResizeDynamicLayout@CWnd@@MAEXXZ 10037708     mfc140:mfc140.dll
 0002:0000070c       __imp_?OnGesturePressAndTap@CWnd@@MAEHVCPoint@@J@Z 1003770c     mfc140:mfc140.dll
 0002:00000710       __imp_?OnGestureTwoFingerTap@CWnd@@MAEHVCPoint@@@Z 10037710     mfc140:mfc140.dll
 0002:00000714       __imp_?OnGestureRotate@CWnd@@MAEHVCPoint@@N@Z 10037714     mfc140:mfc140.dll
 0002:00000718       __imp_?OnGesturePan@CWnd@@MAEHVCPoint@@0@Z 10037718     mfc140:mfc140.dll
 0002:0000071c       __imp_?OnGestureZoom@CWnd@@MAEHVCPoint@@J@Z 1003771c     mfc140:mfc140.dll
 0002:00000720       __imp_?GetGestureStatus@CWnd@@MAEKVCPoint@@@Z 10037720     mfc140:mfc140.dll
 0002:00000724       __imp_?OnTouchInput@CWnd@@MAEHVCPoint@@HHPAUtagTOUCHINPUT@@@Z 10037724     mfc140:mfc140.dll
 0002:00000728       __imp_?OnTouchInputs@CWnd@@MAEHIPAUtagTOUCHINPUT@@@Z 10037728     mfc140:mfc140.dll
 0002:0000072c       __imp_?OnChildNotify@CWnd@@MAEHIIJPAJ@Z 1003772c     mfc140:mfc140.dll
 0002:00000730       __imp_?PostNcDestroy@CWnd@@MAEXXZ 10037730     mfc140:mfc140.dll
 0002:00000734       __imp_?DefWindowProcA@CWnd@@MAEJIIJ@Z 10037734     mfc140:mfc140.dll
 0002:00000738       __imp_?Default@CWnd@@IAEJXZ 10037738     mfc140:mfc140.dll
 0002:0000073c       __imp_?OnWndMsg@CWnd@@MAEHIIJPAJ@Z 1003773c     mfc140:mfc140.dll
 0002:00000740       __imp_?WindowProc@CWnd@@MAEJIIJ@Z 10037740     mfc140:mfc140.dll
 0002:00000744       __imp_?OnAmbientProperty@CWnd@@UAEHPAVCOleControlSite@@JPAUtagVARIANT@@@Z 10037744     mfc140:mfc140.dll
 0002:00000748       __imp_?PreTranslateMessage@CWnd@@UAEHPAUtagMSG@@@Z 10037748     mfc140:mfc140.dll
 0002:0000074c       __imp_?GetSuperWndProcAddr@CWnd@@MAEPAP6GJPAUHWND__@@IIJ@ZXZ 1003774c     mfc140:mfc140.dll
 0002:00000750       __imp_?OnDestroy@CWnd@@IAEXXZ 10037750     mfc140:mfc140.dll
 0002:00000754       __imp_?OnNotify@CWnd@@MAEHIJPAJ@Z 10037754     mfc140:mfc140.dll
 0002:00000758       __imp_?OnCommand@CWnd@@MAEHIJ@Z 10037758     mfc140:mfc140.dll
 0002:0000075c       __imp_?CreateAccessibleProxy@CWnd@@UAEJIJPAJ@Z 1003775c     mfc140:mfc140.dll
 0002:00000760       __imp_?SetProxy@CWnd@@UAEJPAUIAccessibleProxy@@@Z 10037760     mfc140:mfc140.dll
 0002:00000764       __imp_?put_accValue@CWnd@@UAEJUtagVARIANT@@PA_W@Z 10037764     mfc140:mfc140.dll
 0002:00000768       __imp_?put_accName@CWnd@@UAEJUtagVARIANT@@PA_W@Z 10037768     mfc140:mfc140.dll
 0002:0000076c       __imp_?accDoDefaultAction@CWnd@@UAEJUtagVARIANT@@@Z 1003776c     mfc140:mfc140.dll
 0002:00000770       __imp_?accHitTest@CWnd@@UAEJJJPAUtagVARIANT@@@Z 10037770     mfc140:mfc140.dll
 0002:00000774       __imp_?accNavigate@CWnd@@UAEJJUtagVARIANT@@PAU2@@Z 10037774     mfc140:mfc140.dll
 0002:00000778       __imp_?accLocation@CWnd@@UAEJPAJ000UtagVARIANT@@@Z 10037778     mfc140:mfc140.dll
 0002:0000077c       __imp_?accSelect@CWnd@@UAEJJUtagVARIANT@@@Z 1003777c     mfc140:mfc140.dll
 0002:00000780       __imp_?get_accDefaultAction@CWnd@@UAEJUtagVARIANT@@PAPA_W@Z 10037780     mfc140:mfc140.dll
 0002:00000784       __imp_?get_accSelection@CWnd@@UAEJPAUtagVARIANT@@@Z 10037784     mfc140:mfc140.dll
 0002:00000788       __imp_?get_accFocus@CWnd@@UAEJPAUtagVARIANT@@@Z 10037788     mfc140:mfc140.dll
 0002:0000078c       __imp_?get_accKeyboardShortcut@CWnd@@UAEJUtagVARIANT@@PAPA_W@Z 1003778c     mfc140:mfc140.dll
 0002:00000790       __imp_?get_accHelpTopic@CWnd@@UAEJPAPA_WUtagVARIANT@@PAJ@Z 10037790     mfc140:mfc140.dll
 0002:00000794       __imp_?get_accHelp@CWnd@@UAEJUtagVARIANT@@PAPA_W@Z 10037794     mfc140:mfc140.dll
 0002:00000798       __imp_?get_accState@CWnd@@UAEJUtagVARIANT@@PAU2@@Z 10037798     mfc140:mfc140.dll
 0002:0000079c       __imp_?get_accRole@CWnd@@UAEJUtagVARIANT@@PAU2@@Z 1003779c     mfc140:mfc140.dll
 0002:000007a0       __imp_?get_accDescription@CWnd@@UAEJUtagVARIANT@@PAPA_W@Z 100377a0     mfc140:mfc140.dll
 0002:000007a4       __imp_?get_accValue@CWnd@@UAEJUtagVARIANT@@PAPA_W@Z 100377a4     mfc140:mfc140.dll
 0002:000007a8       __imp_?get_accName@CWnd@@UAEJUtagVARIANT@@PAPA_W@Z 100377a8     mfc140:mfc140.dll
 0002:000007ac       __imp_?get_accChild@CWnd@@UAEJUtagVARIANT@@PAPAUIDispatch@@@Z 100377ac     mfc140:mfc140.dll
 0002:000007b0       __imp_?get_accChildCount@CWnd@@UAEJPAJ@Z 100377b0     mfc140:mfc140.dll
 0002:000007b4       __imp_?get_accParent@CWnd@@UAEJPAPAUIDispatch@@@Z 100377b4     mfc140:mfc140.dll
 0002:000007b8       __imp_?EnsureStdObj@CWnd@@UAEJXZ 100377b8     mfc140:mfc140.dll
 0002:000007bc       __imp_?GetInterfaceMap@CWnd@@MBEPBUAFX_INTERFACEMAP@@XZ 100377bc     mfc140:mfc140.dll
 0002:000007c0       __imp_?OnDrawIconicThumbnailOrLivePreview@CWnd@@UAEXAAVCDC@@VCRect@@VCSize@@HAAH@Z 100377c0     mfc140:mfc140.dll
 0002:000007c4       __imp_?EndModalLoop@CWnd@@UAEXH@Z 100377c4     mfc140:mfc140.dll
 0002:000007c8       __imp_?ContinueModal@CWnd@@UAEHXZ 100377c8     mfc140:mfc140.dll
 0002:000007cc       __imp_?WinHelpInternal@CWnd@@UAEXKI@Z 100377cc     mfc140:mfc140.dll
 0002:000007d0       __imp_?HtmlHelpA@CWnd@@UAEXKI@Z 100377d0     mfc140:mfc140.dll
 0002:000007d4       __imp_?WinHelpA@CWnd@@UAEXKI@Z 100377d4     mfc140:mfc140.dll
 0002:000007d8       __imp_?GetScrollBarCtrl@CWnd@@UBEPAVCScrollBar@@H@Z 100377d8     mfc140:mfc140.dll
 0002:000007dc       __imp_?SetFocus@CWnd@@QAEPAV1@XZ 100377dc     mfc140:mfc140.dll
 0002:000007e0       __imp_?OnToolHitTest@CWnd@@UBEHVCPoint@@PAUtagTOOLINFOA@@@Z 100377e0     mfc140:mfc140.dll
 0002:000007e4       __imp_?ShowWindow@CWnd@@QAEHH@Z 100377e4     mfc140:mfc140.dll
 0002:000007e8       __imp_?SetWindowPos@CWnd@@QAEHPBV1@HHHHI@Z 100377e8     mfc140:mfc140.dll
 0002:000007ec       __imp_?MoveWindow@CWnd@@QAEXHHHHH@Z 100377ec     mfc140:mfc140.dll
 0002:000007f0       __imp_?SetMenu@CWnd@@UAEHPAVCMenu@@@Z 100377f0     mfc140:mfc140.dll
 0002:000007f4       __imp_?GetMenu@CWnd@@UBEPAVCMenu@@XZ 100377f4     mfc140:mfc140.dll
 0002:000007f8       __imp_?CalcWindowRect@CWnd@@UAEXPAUtagRECT@@I@Z 100377f8     mfc140:mfc140.dll
 0002:000007fc       __imp_?PreCreateWindow@CWnd@@UAEHAAUtagCREATESTRUCTA@@@Z 100377fc     mfc140:mfc140.dll
 0002:00000800       __imp_?DestroyWindow@CWnd@@UAEHXZ 10037800     mfc140:mfc140.dll
 0002:00000804       __imp_?CreateEx@CWnd@@UAEHKPBD0KABUtagRECT@@PAV1@IPAX@Z 10037804     mfc140:mfc140.dll
 0002:00000808       __imp_?CreateEx@CWnd@@UAEHKPBD0KHHHHPAUHWND__@@PAUHMENU__@@PAX@Z 10037808     mfc140:mfc140.dll
 0002:0000080c       __imp_?Create@CWnd@@UAEHPBD0KABUtagRECT@@PAV1@IPAUCCreateContext@@@Z 1003780c     mfc140:mfc140.dll
 0002:00000810       __imp_?PreSubclassWindow@CWnd@@UAEXXZ 10037810     mfc140:mfc140.dll
 0002:00000814       __imp_?FromHandle@CWnd@@SGPAV1@PAUHWND__@@@Z 10037814     mfc140:mfc140.dll
 0002:00000818       __imp_??0CWnd@@QAE@XZ      10037818     mfc140:mfc140.dll
 0002:0000081c       __imp_?GetThisClass@CWnd@@SGPAUCRuntimeClass@@XZ 1003781c     mfc140:mfc140.dll
 0002:00000820       __imp_?GetConnectionHook@CCmdTarget@@MAEPAUIConnectionPoint@@ABU_GUID@@@Z 10037820     mfc140:mfc140.dll
 0002:00000824       __imp_?GetExtraConnectionPoints@CCmdTarget@@MAEHPAVCPtrArray@@@Z 10037824     mfc140:mfc140.dll
 0002:00000828       __imp_?GetInterfaceHook@CCmdTarget@@UAEPAUIUnknown@@PBX@Z 10037828     mfc140:mfc140.dll
 0002:0000082c       __imp_?OnCreateAggregates@CCmdTarget@@UAEHXZ 1003782c     mfc140:mfc140.dll
 0002:00000830       __imp_?GetEventSinkMap@CCmdTarget@@MBEPBUAFX_EVENTSINKMAP@@XZ 10037830     mfc140:mfc140.dll
 0002:00000834       __imp_?GetConnectionMap@CCmdTarget@@MBEPBUAFX_CONNECTIONMAP@@XZ 10037834     mfc140:mfc140.dll
 0002:00000838       __imp_?GetDispatchMap@CCmdTarget@@MBEPBUAFX_DISPMAP@@XZ 10037838     mfc140:mfc140.dll
 0002:0000083c       __imp_?GetCommandMap@CCmdTarget@@MBEPBUAFX_OLECMDMAP@@XZ 1003783c     mfc140:mfc140.dll
 0002:00000840       __imp_?GetTypeLib@CCmdTarget@@UAEJKPAPAUITypeLib@@@Z 10037840     mfc140:mfc140.dll
 0002:00000844       __imp_?GetTypeLibCache@CCmdTarget@@UAEPAVCTypeLibCache@@XZ 10037844     mfc140:mfc140.dll
 0002:00000848       __imp_?GetTypeInfoCount@CCmdTarget@@UAEIXZ 10037848     mfc140:mfc140.dll
 0002:0000084c       __imp_?GetDispatchIID@CCmdTarget@@UAEHPAU_GUID@@@Z 1003784c     mfc140:mfc140.dll
 0002:00000850       __imp_?IsInvokeAllowed@CCmdTarget@@UAEHJ@Z 10037850     mfc140:mfc140.dll
 0002:00000854       __imp_?OnCmdMsg@CCmdTarget@@UAEHIHPAXPAUAFX_CMDHANDLERINFO@@@Z 10037854     mfc140:mfc140.dll
 0002:00000858       __imp_??1CClientDC@@UAE@XZ 10037858     mfc140:mfc140.dll
 0002:0000085c       __imp_??0CClientDC@@QAE@PAVCWnd@@@Z 1003785c     mfc140:mfc140.dll
 0002:00000860       __imp_??1CPaintDC@@UAE@XZ  10037860     mfc140:mfc140.dll
 0002:00000864       __imp_??0CPaintDC@@QAE@PAVCWnd@@@Z 10037864     mfc140:mfc140.dll
 0002:00000868       __imp_?SelectGdiObject@CDC@@KGPAVCGdiObject@@PAUHDC__@@PAX@Z 10037868     mfc140:mfc140.dll
 0002:0000086c       __imp_??1CDC@@UAE@XZ       1003786c     mfc140:mfc140.dll
 0002:00000870       __imp_?Draw3dRect@CDC@@QAEXPBUtagRECT@@KK@Z 10037870     mfc140:mfc140.dll
 0002:00000874       __imp_?FillSolidRect@CDC@@QAEXPBUtagRECT@@K@Z 10037874     mfc140:mfc140.dll
 0002:00000878       __imp_?LineTo@CDC@@QAEHHH@Z 10037878     mfc140:mfc140.dll
 0002:0000087c       __imp_?MoveTo@CDC@@QAE?AVCPoint@@HH@Z 1003787c     mfc140:mfc140.dll
 0002:00000880       __imp_?ExcludeClipRect@CDC@@QAEHPBUtagRECT@@@Z 10037880     mfc140:mfc140.dll
 0002:00000884       __imp_?SelectClipRgn@CDC@@QAEHPAVCRgn@@@Z 10037884     mfc140:mfc140.dll
 0002:00000888       __imp_?SetTextColor@CDC@@UAEKK@Z 10037888     mfc140:mfc140.dll
 0002:0000088c       __imp_?SetBkMode@CDC@@QAEHH@Z 1003788c     mfc140:mfc140.dll
 0002:00000890       __imp_?SelectObject@CDC@@UAEPAVCFont@@PAV2@@Z 10037890     mfc140:mfc140.dll
 0002:00000894       __imp_?SelectObject@CDC@@QAEPAVCPen@@PAV2@@Z 10037894     mfc140:mfc140.dll
 0002:00000898       __imp_?RestoreDC@CDC@@UAEHH@Z 10037898     mfc140:mfc140.dll
 0002:0000089c       __imp_?SaveDC@CDC@@UAEHXZ  1003789c     mfc140:mfc140.dll
 0002:000008a0       __imp_??0CDC@@QAE@XZ       100378a0     mfc140:mfc140.dll
 0002:000008a4       __imp_?Attach@CDC@@QAEHPAUHDC__@@@Z 100378a4     mfc140:mfc140.dll
 0002:000008a8       __imp_?GetRuntimeClass@CRgn@@UBEPAUCRuntimeClass@@XZ 100378a8     mfc140:mfc140.dll
 0002:000008ac       __imp_?GetRuntimeClass@CBitmap@@UBEPAUCRuntimeClass@@XZ 100378ac     mfc140:mfc140.dll
 0002:000008b0       __imp_?GetRuntimeClass@CFont@@UBEPAUCRuntimeClass@@XZ 100378b0     mfc140:mfc140.dll
 0002:000008b4       __imp_??0CPen@@QAE@HHK@Z   100378b4     mfc140:mfc140.dll
 0002:000008b8       __imp_?GetRuntimeClass@CPen@@UBEPAUCRuntimeClass@@XZ 100378b8     mfc140:mfc140.dll
 0002:000008bc       __imp_?DeleteObject@CGdiObject@@QAEHXZ 100378bc     mfc140:mfc140.dll
 0002:000008c0       __imp_?Attach@CGdiObject@@QAEHPAX@Z 100378c0     mfc140:mfc140.dll
 0002:000008c4       __imp_?GetRuntimeClass@CGdiObject@@UBEPAUCRuntimeClass@@XZ 100378c4     mfc140:mfc140.dll
 0002:000008c8       __imp_??1CPtrArray@@UAE@XZ 100378c8     mfc140:mfc140.dll
 0002:000008cc       __imp_?RemoveAt@CPtrArray@@QAEXHH@Z 100378cc     mfc140:mfc140.dll
 0002:000008d0       __imp_?InsertAt@CPtrArray@@QAEXHPAXH@Z 100378d0     mfc140:mfc140.dll
 0002:000008d4       __imp_?SetAtGrow@CPtrArray@@QAEXHPAX@Z 100378d4     mfc140:mfc140.dll
 0002:000008d8       __imp_?SetSize@CPtrArray@@QAEXHH@Z 100378d8     mfc140:mfc140.dll
 0002:000008dc       __imp_??0CPtrArray@@QAE@XZ 100378dc     mfc140:mfc140.dll
 0002:000008e0       __imp_?Format@?$CStringT@DV?$StrTraitMFC_DLL@DV?$ChTraitsCRT@D@ATL@@@@@ATL@@QAAXPBDZZ 100378e0     mfc140:mfc140.dll
 0002:000008e4       __imp_??0?$CStringT@DV?$StrTraitMFC_DLL@DV?$ChTraitsCRT@D@ATL@@@@@ATL@@QAE@PBD@Z 100378e4     mfc140:mfc140.dll
 0002:000008e8       __imp_??2@YAPAXI@Z         100378e8     mfc140:mfc140.dll
 0002:000008ec       __imp_??1CStringArray@@UAE@XZ 100378ec     mfc140:mfc140.dll
 0002:000008f0       __imp_?SetAtGrow@CStringArray@@QAEXHPBD@Z 100378f0     mfc140:mfc140.dll
 0002:000008f4       __imp_?SetSize@CStringArray@@QAEXHH@Z 100378f4     mfc140:mfc140.dll
 0002:000008f8       __imp_?Insert@?$CStringT@DV?$StrTraitMFC_DLL@DV?$ChTraitsCRT@D@ATL@@@@@ATL@@QAEHHPBD@Z 100378f8     mfc140:mfc140.dll
 0002:000008fc       __imp_??1CTabCtrl@@UAE@XZ  100378fc     mfc140:mfc140.dll
 0002:00000900       __imp_??Y?$CStringT@DV?$StrTraitMFC_DLL@DV?$ChTraitsCRT@D@ATL@@@@@ATL@@QAEAAV01@D@Z 10037900     mfc140:mfc140.dll
 0002:00000904       __imp_?DrawItem@CTabCtrl@@UAEXPAUtagDRAWITEMSTRUCT@@@Z 10037904     mfc140:mfc140.dll
 0002:00000908       __imp_??0CStringArray@@QAE@XZ 10037908     mfc140:mfc140.dll
 0002:0000090c       __imp_??4?$CStringT@DV?$StrTraitMFC_DLL@DV?$ChTraitsCRT@D@ATL@@@@@ATL@@QAEAAV01@ABV01@@Z 1003790c     mfc140:mfc140.dll
 0002:00000910       __imp_??1CMapStringToString@@UAE@XZ 10037910     mfc140:mfc140.dll
 0002:00000914       __imp_??ACMapStringToString@@QAEAAV?$CStringT@DV?$StrTraitMFC_DLL@DV?$ChTraitsCRT@D@ATL@@@@@ATL@@PBD@Z 10037914     mfc140:mfc140.dll
 0002:00000918       __imp_?Lookup@CMapStringToString@@QBEHPBDAAV?$CStringT@DV?$StrTraitMFC_DLL@DV?$ChTraitsCRT@D@ATL@@@@@ATL@@@Z 10037918     mfc140:mfc140.dll
 0002:0000091c       __imp_??0CMapStringToString@@QAE@H@Z 1003791c     mfc140:mfc140.dll
 0002:00000920       __imp_?WriteCount@CArchive@@QAEXK@Z 10037920     mfc140:mfc140.dll
 0002:00000924       __imp_?ReadCount@CArchive@@QAEKXZ 10037924     mfc140:mfc140.dll
 0002:00000928       __imp_?Write@CArchive@@QAEXPBXI@Z 10037928     mfc140:mfc140.dll
 0002:0000092c       __imp_?Read@CArchive@@QAEIPAXI@Z 1003792c     mfc140:mfc140.dll
 0002:00000930       __imp_??4?$CStringT@DV?$StrTraitMFC_DLL@DV?$ChTraitsCRT@D@ATL@@@@@ATL@@QAEAAV01@PBD@Z 10037930     mfc140:mfc140.dll
 0002:00000934       __imp_??1?$CStringT@DV?$StrTraitMFC_DLL@DV?$ChTraitsCRT@D@ATL@@@@@ATL@@QAE@XZ 10037934     mfc140:mfc140.dll
 0002:00000938       __imp_??0?$CStringT@DV?$StrTraitMFC_DLL@DV?$ChTraitsCRT@D@ATL@@@@@ATL@@QAE@ABV01@@Z 10037938     mfc140:mfc140.dll
 0002:0000093c       __imp_??0?$CStringT@DV?$StrTraitMFC_DLL@DV?$ChTraitsCRT@D@ATL@@@@@ATL@@QAE@XZ 1003793c     mfc140:mfc140.dll
 0002:00000940       __imp_?GetRuntimeClass@CObject@@UBEPAUCRuntimeClass@@XZ 10037940     mfc140:mfc140.dll
 0002:00000944       __imp_?AfxThrowArchiveException@@YGXHPBD@Z 10037944     mfc140:mfc140.dll
 0002:00000948       __imp_?AfxThrowInvalidArgException@@YGXXZ 10037948     mfc140:mfc140.dll
 0002:0000094c       __imp_?CreateEx@CTabCtrl@@UAEHKKABUtagRECT@@PAVCWnd@@I@Z 1003794c     mfc140:mfc140.dll
 0002:00000950       __imp_?Create@CTabCtrl@@UAEHKABUtagRECT@@PAVCWnd@@I@Z 10037950     mfc140:mfc140.dll
 0002:00000954       __imp_?GetRuntimeClass@CTabCtrl@@UBEPAUCRuntimeClass@@XZ 10037954     mfc140:mfc140.dll
 0002:00000958       __imp_?ClientToScreen@CWnd@@QBEXPAUtagRECT@@@Z 10037958     mfc140:mfc140.dll
 0002:0000095c       __imp_?GetDlgCtrlID@CWnd@@QBEHXZ 1003795c     mfc140:mfc140.dll
 0002:00000960       __imp_?AfxThrowMemoryException@@YGXXZ 10037960     mfc140:mfc140.dll
 0002:00000964       __imp_??_V@YAXPAX@Z        10037964     mfc140:mfc140.dll
 0002:00000968       __imp_?ModifyStyle@CWnd@@QAEHKKI@Z 10037968     mfc140:mfc140.dll
 0002:0000096c       __imp_?FromHandle@CImageList@@SGPAV1@PAU_IMAGELIST@@@Z 1003796c     mfc140:mfc140.dll
 0002:00000970       __imp_?FromHandle@CDC@@SGPAV1@PAUHDC__@@@Z 10037970     mfc140:mfc140.dll
 0002:00000974       __imp_??_U@YAPAXI@Z        10037974     mfc140:mfc140.dll
 0002:00000978       __imp_??Y?$CStringT@DV?$StrTraitMFC_DLL@DV?$ChTraitsCRT@D@ATL@@@@@ATL@@QAEAAV01@ABV?$CSimpleStringT@D$00@1@@Z 10037978     mfc140:mfc140.dll
 0002:0000097c       __imp_?Empty@?$CSimpleStringT@D$00@ATL@@QAEXXZ 1003797c     mfc140:mfc140.dll
 0002:00000980       __imp_??1CButton@@UAE@XZ   10037980     mfc140:mfc140.dll
 0002:00000984       __imp_?FromHandle@CGdiObject@@SGPAV1@PAX@Z 10037984     mfc140:mfc140.dll
 0002:00000988       __imp_?GetMessageMap@CTabCtrl@@MBEPBUAFX_MSGMAP@@XZ 10037988     mfc140:mfc140.dll
 0002:0000098c       __imp_?ReleaseDispatch@COleDispatchDriver@@QAEXXZ 1003798c     mfc140:mfc140.dll
 0002:00000990       __imp_??0COleDispatchDriver@@QAE@PAUIDispatch@@H@Z 10037990     mfc140:mfc140.dll
 0002:00000994       __imp_?InvokeHelper@CWnd@@QAAXJGGPAXPBEZZ 10037994     mfc140:mfc140.dll
 0002:00000998       __imp_?InvokeHelper@COleDispatchDriver@@QAAXJGGPAXPBEZZ 10037998     mfc140:mfc140.dll
 0002:0000099c       __imp_?GetMessageMap@CWnd@@MBEPBUAFX_MSGMAP@@XZ 1003799c     mfc140:mfc140.dll
 0002:000009a0       __imp_?CreateControl@CWnd@@QAEHABU_GUID@@PBDKABUtagRECT@@PAV1@IPAVCFile@@HPA_W@Z 100379a0     mfc140:mfc140.dll
 0002:000009a4       __imp_?GetMessageMap@CTreeCtrl@@MBEPBUAFX_MSGMAP@@XZ 100379a4     mfc140:mfc140.dll
 0002:000009a8       __imp_?GetThisMessageMap@CTreeCtrl@@KGPBUAFX_MSGMAP@@XZ 100379a8     mfc140:mfc140.dll
 0002:000009ac       __imp_?OnDestroy@CTreeCtrl@@QAEXXZ 100379ac     mfc140:mfc140.dll
 0002:000009b0       __imp_??1CTreeCtrl@@UAE@XZ 100379b0     mfc140:mfc140.dll
 0002:000009b4       __imp_?HitTest@CTreeCtrl@@QBEPAU_TREEITEM@@VCPoint@@PAI@Z 100379b4     mfc140:mfc140.dll
 0002:000009b8       __imp_?InsertItem@CTreeCtrl@@QAEPAU_TREEITEM@@IPBDHHIIJPAU2@1@Z 100379b8     mfc140:mfc140.dll
 0002:000009bc       __imp_?ItemHasChildren@CTreeCtrl@@QBEHPAU_TREEITEM@@@Z 100379bc     mfc140:mfc140.dll
 0002:000009c0       __imp_?SetItem@CTreeCtrl@@QAEHPAU_TREEITEM@@IPBDHHIIJ@Z 100379c0     mfc140:mfc140.dll
 0002:000009c4       __imp_?GetItemData@CTreeCtrl@@QBEKPAU_TREEITEM@@@Z 100379c4     mfc140:mfc140.dll
 0002:000009c8       __imp_?GetItemText@CTreeCtrl@@QBE?AV?$CStringT@DV?$StrTraitMFC_DLL@DV?$ChTraitsCRT@D@ATL@@@@@ATL@@PAU_TREEITEM@@@Z 100379c8     mfc140:mfc140.dll
 0002:000009cc       __imp_?GetRuntimeClass@CButton@@UBEPAUCRuntimeClass@@XZ 100379cc     mfc140:mfc140.dll
 0002:000009d0       __imp_?Create@CTreeCtrl@@QAEHKABUtagRECT@@PAVCWnd@@I@Z 100379d0     mfc140:mfc140.dll
 0002:000009d4       __imp_?GetRuntimeClass@CObArray@@UBEPAUCRuntimeClass@@XZ 100379d4     mfc140:mfc140.dll
 0002:000009d8       __imp_??3@YAXPAX@Z         100379d8     mfc140:mfc140.dll
 0002:000009dc       \177mfc140_NULL_THUNK_DATA 100379dc     mfc140:mfc140.dll
 0002:000009e0       __imp__StringFromCLSID@8   100379e0     ole32:ole32.dll
 0002:000009e4       __imp__CLSIDFromProgID@8   100379e4     ole32:ole32.dll
 0002:000009e8       __imp__CoTaskMemFree@4     100379e8     ole32:ole32.dll
 0002:000009ec       \177ole32_NULL_THUNK_DATA  100379ec     ole32:ole32.dll
 0002:000009f0       ___guard_check_icall_fptr  100379f0     msvcrt:guard_support.obj
 0002:000009f4       ___guard_xfg_check_icall_fptr 100379f4     msvcrt:guard_support.obj
 0002:000009f8       ___xc_a                    100379f8     msvcrt:initializers.obj
 0002:00000aec       ___xc_z                    10037aec     msvcrt:initializers.obj
 0002:00000af0       ___xi_a                    10037af0     msvcrt:initializers.obj
 0002:00000af8       ___xi_z                    10037af8     msvcrt:initializers.obj
 0002:00000afc       ___xl_a                    10037afc     msvcrt:tlssup.obj
 0002:00000b00       ___xl_z                    10037b00     msvcrt:tlssup.obj
 0002:00000b04       ___xp_a                    10037b04     msvcrt:initializers.obj
 0002:00000b08       ___xp_z                    10037b08     msvcrt:initializers.obj
 0002:00000b0c       ___xt_a                    10037b0c     msvcrt:initializers.obj
 0002:00000b10       ___xt_z                    10037b10     msvcrt:initializers.obj
 0002:00000b24       ??_7CIDataItem0001@@6B@    10037b24     DataItem.obj
 0002:00000b54       ??_7?$CArray@NN@@6B@       10037b54     DataItem.obj
 0002:00000b6c       ??_7CSTDataItem@@6B@       10037b6c     DataItem.obj
 0002:00000b98       __real@7ff0000000000000    10037b98     DataItem.obj
 0002:00000ba0       __real@fff0000000000000    10037ba0     DataItem.obj
 0002:00000bac       ??_7CISDataItem0001@@6B@   10037bac     SDataItem.obj
 0002:00000bdc       ??_7CSDataItem@@6B@        10037bdc     SDataItem.obj
 0002:00000c0c       ??_7CGdiObject@@6B@        10037c0c     STGfxOutBarCtrl.obj
 0002:00000c24       ??_7CPen@@6B@              10037c24     STGfxOutBarCtrl.obj
 0002:00000c3c       ??_7CFont@@6B@             10037c3c     STGfxOutBarCtrl.obj
 0002:00000c54       ??_7CBitmap@@6B@           10037c54     STGfxOutBarCtrl.obj
 0002:00000c6c       ??_7CRgn@@6B@              10037c6c     STGfxOutBarCtrl.obj
 0002:00000c80       ??_C@_0HD@JJCHHHNK@C?3?2Program?5Files?5?$CIx86?$CJ?2Microsof@ 10037c80     STGfxOutBarCtrl.obj
 0002:00000cf4       ??_C@_0BP@OIEOKIDM@Exception?5thrown?5in?5destructor@ 10037cf4     STGfxOutBarCtrl.obj
 0002:00000d14       ??_C@_0BB@HBOOMJBF@?$CFTs?5?$CI?$CFTs?3?$CFd?$CJ?6?$CFTs@ 10037d14     STGfxOutBarCtrl.obj
 0002:00000d28       ??_C@_0N@OMEMOKLE@?$CFTs?5?$CI?$CFTs?3?$CFd?$CJ@ 10037d28     STGfxOutBarCtrl.obj
 0002:00000d3c       ??_7IGfxOutBarCtrl@@6B@    10037d3c     STGfxOutBarCtrl.obj
 0002:00000d58       ??_7IGfxOutBarCtrl2@@6B@   10037d58     STGfxOutBarCtrl.obj
 0002:00000d78       ?classCSTGfxOutBarCtrl@CSTGfxOutBarCtrl@@2UCRuntimeClass@@B 10037d78     STGfxOutBarCtrl.obj
 0002:00000d98       ??_7CBarItem@CSTGfxOutBarCtrl@@6B@ 10037d98     STGfxOutBarCtrl.obj
 0002:00000da0       ??_7CBarFolder@CSTGfxOutBarCtrl@@6B@ 10037da0     STGfxOutBarCtrl.obj
 0002:00000da8       ??_7CSTGfxOutBarCtrl@@6B@  10037da8     STGfxOutBarCtrl.obj
 0002:00000f18       ??_7CImpl_IGfxOutBarCtrl@@6B@ 10037f18     STGfxOutBarCtrl.obj
 0002:00000f38       ??_C@_0BB@OIKDPAKN@CSTGfxOutBarCtrl@ 10037f38     STGfxOutBarCtrl.obj
 0002:00001048       ??_C@_06MFMMLLPC@?$LB?$LM?$LI?$LC?C?$LM@ 10038048     STGfxOutBarCtrl.obj
 0002:00001050       __xmm@00000190000000000000000000000000 10038050     STGfxOutBarCtrl.obj
 0002:00001060       ??_C@_06JHNIBAJK@CLSID?2@  10038060     StrategyLoader.obj
 0002:0000106c       ??_7CStrategyLoader@@6B@   1003806c     StrategyLoader.obj
 0002:00001070       ??_C@_0M@CBBNGGHM@PcTrMng?4dll@ 10038070     StrategyLoader.obj
 0002:0000107c       ??_C@_06NDLAHCHE@?$CFs?$CF08X@ 1003807c     StrategyLoader.obj
 0002:00001084       ??_C@_02EMFKHFLK@?$CFX@    10038084     StrategyLoader.obj
 0002:00001088       ??_C@_0BA@CCGIMEPP@?2InprocServer32@ 10038088     StrategyLoader.obj
 0002:00001098       ??_C@_0P@IKCDKIKH@?2LocalServer32@ 10038098     StrategyLoader.obj
 0002:000010a8       ??_C@_0BD@CMCCCNBF@HANAROIGATEMANAGER@ 100380a8     StrategyLoader.obj
 0002:000010bc       ??_C@_0BN@KNJCMBJP@DataPath?$LI?$KG?5?$LO?r?$MA?$LL?5?$LM?v?5?$LO?x?$LN?$MA?$LE?O?$LE?Y?4@ 100380bc     StrategyLoader.obj
 0002:000010dc       ??_C@_0BD@PNOKNCJO@ChartMetaTable?4dat@ 100380dc     StrategyLoader.obj
 0002:000010f0       ??_C@_01KICIPPFI@?2@       100380f0     StrategyLoader.obj
 0002:000010f4       ??_C@_0O@OMPLGAKB@Prog?5ID?5Error@ 100380f4     StrategyLoader.obj
 0002:00001104       ??_C@_06FBGBHGJE@ProgID@   10038104     StrategyLoader.obj
 0002:0000110c       ??_C@_0O@GDACOMFO@Chart?5Version@ 1003810c     StrategyLoader.obj
 0002:0000111c       ??_C@_0P@KDDALGJC@IsDebugVersion@ 1003811c     StrategyLoader.obj
 0002:0000112c       ??_C@_0BE@DBKBGFJM@StrategyManager?4dll@ 1003812c     StrategyLoader.obj
 0002:00001140       ??_C@_0BJ@EBHLMJOA@?$CFs?$MA?$LL?5Load?G?R?5?$LM?v?5?$LO?x?$LN?$MA?$LE?O?$LE?Y?4@ 10038140     StrategyLoader.obj
 0002:0000115c       ??_C@_0BC@GBIBEELI@fnGetStrategyItem@ 1003815c     StrategyLoader.obj
 0002:00001170       ??_C@_0CL@JIIGDICO@?$CFs?$LP?$KB?$LM?$KN?5fnGetStrategyItem?5?C?$KD?$MA?$LL?5?$LM@ 10038170     StrategyLoader.obj
 0002:0000119c       ??_C@_0BG@OHIMHJEO@RMSG_STTREE_ITEMCLICK@ 1003819c     STTreeCtrl.obj
 0002:000011b4       ??_C@_0BH@LAAMLACL@RMSG_STTREE_ITEMDBLCLK@ 100381b4     STTreeCtrl.obj
 0002:000011cc       ??_C@_0BA@IIIKKNIB@RMSG_OPENNEWMAP@ 100381cc     STTreeCtrl.obj
 0002:000011e0       ??_7CTreeCtrl@@6B@         100381e0     STTreeCtrl.obj
 0002:0000134c       ??_C@_05BMGBEOOC@?$CFs?2?$CFs@ 1003834c     STTreeCtrl.obj
 0002:00001354       ??_C@_01EOFPKCAF@?$EA@     10038354     STTreeCtrl.obj
 0002:00001358       ??_C@_04HDOCAJNK@?$CFs?$CFs@ 10038358     STTreeCtrl.obj
 0002:00001360       ??_C@_0L@KDHEPLBG@?$LL?g?$LP?k?$MA?Z?$MA?$PM?$LH?$KL@ 10038360     STTreeCtrl.obj
 0002:0000136c       ??_C@_0BF@FFBMJBNA@?2Usr?2STData?2STBasic?2@ 1003836c     STTreeCtrl.obj
 0002:00001384       ??_C@_06DIJPEION@?$CFs?$CFs?$CFs@ 10038384     STTreeCtrl.obj
 0002:0000138c       ??_C@_03EMIMMIHL@?$CK?4?$CK@ 1003838c     STTreeCtrl.obj
 0002:00001390       ??_C@_04ECGMOPPD@?$CK?4ST@ 10038390     STTreeCtrl.obj
 0002:00001398       ??_C@_03COHLPAFH@?4ST@     10038398     STTreeCtrl.obj
 0002:000013a0       ??_7CSTTreeCtrl@@6B@       100383a0     STTreeCtrl.obj
 0002:00001530       ??_7CSTExtTree@@6B@        10038530     STTreeCtrl.obj
 0002:000016c0       ??_7CSTBasicTree@@6B@      100386c0     STTreeCtrl.obj
 0002:000018d0       ??_C@_02HOKACGJH@?$EA9@    100388d0     STTreeCtrl.obj
 0002:000018f4       ??_C@_0BA@OONIGKLF@?2Icss?2STData?2ST@ 100388f4     STTreeCtrl.obj
 0002:00001904       ??_C@_0BO@EGEAEPEN@?2Usr?2STData?2ST?2?$LL?g?$LP?k?$MA?Z?$LE?$NM?$MA?$KH?$MA?$PM?$LH?$KL@ 10038904     STTreeCtrl.obj
 0002:00001924       ??_C@_0P@GKBMMIPA@?$LL?g?$LP?k?$MA?Z?$LE?$NM?$MA?$KH?$MA?$PM?$LH?$KL@ 10038924     STTreeCtrl.obj
 0002:00001934       ??_C@_0BO@DOBCOHOA@?2Usr?2STData?2ST?2?$LL?g?$LP?k?$MA?Z?A?$LG?G?U?$MA?$PM?$LH?$KL@ 10038934     STTreeCtrl.obj
 0002:00001954       ??_C@_0P@BCEOGAFN@?$LL?g?$LP?k?$MA?Z?A?$LG?G?U?$MA?$PM?$LH?$KL@ 10038954     STTreeCtrl.obj
 0002:00001964       ??_C@_0L@DLNLHHBM@?$LL?g?$LP?k?$MA?Z?A?v?G?$KF@ 10038964     STTreeCtrl.obj
 0002:00001990       ??_C@_0BF@FJEFBIMK@?2Icss?2STData?2STBasic@ 10038990     STTreeCtrl.obj
 0002:000019a8       ?classCMschart1@CMschart1@@2UCRuntimeClass@@B 100389a8     mschart1.obj
 0002:000019c8       ??_7CMschart1@@6B@         100389c8     mschart1.obj
 0002:00001b34       ?clsid@?1??GetClsid@CMschart1@@QAEABU_GUID@@XZ@4U3@B 10038b34     mschart1.obj
 0002:00001b44       ??_C@_09MKMCHDJC@CMschart1@ 10038b44     mschart1.obj
 0002:00001b50       ?classCTChart@CTChart@@2UCRuntimeClass@@B 10038b50     tchart.obj
 0002:00001b70       ??_7CTChart@@6B@           10038b70     tchart.obj
 0002:00001cdc       ?clsid@?1??GetClsid@CTChart@@QAEABU_GUID@@XZ@4U3@B 10038cdc     tchart.obj
 0002:00001cec       ??_C@_07FFGHPMNI@CTChart@  10038cec     tchart.obj
 0002:00001cf8       ??_7CTabCtrl@@6B@          10038cf8     XTabCtrl.obj
 0002:00001e74       ??_7?$CArray@HH@@6B@       10038e74     XTabCtrl.obj
 0002:00001e8c       ??_7CXTabCtrl@@6B@         10038e8c     XTabCtrl.obj
 0002:00002100       ??_C@_01CLKCMJKC@?5@       10039100     XTabCtrl.obj
 0002:00002102       ??_C@_00CNPNBAHC@@         10039102     DlgInterface.obj
 0002:00002108       ??_7CEscDialog@@6B@        10039108     DlgInterface.obj
 0002:000022a0       ??_7CDlgInterface@@6B@     100392a0     DlgInterface.obj
 0002:00002460       ??_C@_01IHBHIGKO@?0@       10039460     DlgInterface.obj
 0002:00002464       ??_C@_01GBGANLPD@0@        10039464     DlgInterface.obj
 0002:00002468       ??_C@_01LFCBOECM@?4@       10039468     DlgInterface.obj
 0002:00002470       __real@0000000000000000    10039470     DlgInterface.obj
 0002:00002478       ??_C@_0BB@GOOPDKI@RMSG_GETPCTRDATA@ 10039478     DlgOptimizer.obj
 0002:0000248c       ??_C@_0BO@DBLNBLBD@RMSG_STDATAMANAGER_RESULTDATA@ 1003948c     DlgOptimizer.obj
 0002:000024ac       ??_C@_0BD@GFDLLOKP@RMSG_OB_ITEMDBLCLK@ 100394ac     DlgOptimizer.obj
 0002:000024c0       ??_C@_0BA@DEABJHGB@RMSG_GETDLLSIZE@ 100394c0     DlgOptimizer.obj
 0002:000024d0       ??_C@_02DPKJAMEF@?$CFd@    100394d0     DlgOptimizer.obj
 0002:000024d8       ??_7CBrush@@6B@            100394d8     DlgOptimizer.obj
 0002:000024f0       ??_7CListBox@@6B@          100394f0     DlgOptimizer.obj
 0002:00002678       ??_C@_01HIHLOKLC@1@        10039678     DlgOptimizer.obj
 0002:0000267c       ??_C@_02DKCKIIND@?$CFs@    1003967c     DlgOptimizer.obj
 0002:00002680       ??_C@_0P@IDMAJEGN@HANAROPCTRMAIN@ 10039680     DlgOptimizer.obj
 0002:00002694       ??_7ISTUserData@@6B@       10039694     DlgOptimizer.obj
 0002:0000269c       ??_7?$CArray@UST_VALUEOPTIMAZE@@U1@@@6B@ 1003969c     DlgOptimizer.obj
 0002:000026b4       ??_7?$CArray@PAVCDialog@@PAV1@@@6B@ 100396b4     DlgOptimizer.obj
 0002:000026cc       ??_7?$CArray@PAUST_VALUE@@PAU1@@@6B@ 100396cc     DlgOptimizer.obj
 0002:000026e4       ??_7?$CArray@UST_RUNVALUE@@U1@@@6B@ 100396e4     DlgOptimizer.obj
 0002:000026fc       ??_7?$CArray@UST_GRIDDATA@@U1@@@6B@ 100396fc     DlgOptimizer.obj
 0002:00002714       ??_7?$CArray@UST_STRGRIDDATA@@U1@@@6B@ 10039714     DlgOptimizer.obj
 0002:0000272c       ??_7CSTUserData@CDlgOptimizer@@6B@ 1003972c     DlgOptimizer.obj
 0002:00002734       ??_7CDlgOptimizer@@6B@     10039734     DlgOptimizer.obj
 0002:000028c8       ??_C@_02NNHDHLCM@?$MA?O@   100398c8     DlgOptimizer.obj
 0002:00002a40       ??_C@_08BKFIOHKC@?2drchart@ 10039a40     DlgOptimizer.obj
 0002:00002a4c       ??_C@_0O@DADNAINN@?$CFs?2folder?4bmp@ 10039a4c     DlgOptimizer.obj
 0002:00002a5c       ??_C@_0BD@OCOIJGGE@?$CFs?2outbar_icon?4bmp@ 10039a5c     DlgOptimizer.obj
 0002:00002a70       ??_C@_0BD@CNEELEMP@SCW_IGfxOutBarCtrl@ 10039a70     DlgOptimizer.obj
 0002:00002a84       ??_C@_0BO@DLDLABLN@HWStrategyConfigureWizard?4dll@ 10039a84     DlgOptimizer.obj
 0002:00002aa4       ??_C@_0BL@OHKGLIGI@SCW_GetInterfaceOfStrategy@ 10039aa4     DlgOptimizer.obj
 0002:00002ac0       ??_C@_09ONDJILNJ@STDATA?2ST@ 10039ac0     DlgOptimizer.obj
 0002:00002acc       ??_C@_03JMEKIEOG@Row@      10039acc     DlgOptimizer.obj
 0002:00002ad0       ??_C@_06NEMOAOGB@?$MA?$PM?$LH?$KL?$LI?m@ 10039ad0     DlgOptimizer.obj
 0002:00002ad8       ??_C@_06GNECPJOA@?C?Q?$LM?U?$MA?M@ 10039ad8     DlgOptimizer.obj
 0002:00002ae0       ??_C@_08IANCNINB@?F?r?$LB?U?$LM?U?$MA?M@ 10039ae0     DlgOptimizer.obj
 0002:00002aec       ??_C@_06HMHBOMDL@?C?Q?$MA?L?$MA?M@ 10039aec     DlgOptimizer.obj
 0002:00002af4       ??_C@_06MLIEOKGJ@?C?Q?$LM?U?$LN?G@ 10039af4     DlgOptimizer.obj
 0002:00002afc       ??_C@_08MKACKNJD@?C?V?$LE?k?$MA?L?$MA?M@ 10039afc     DlgOptimizer.obj
 0002:00002b08       ??_C@_08HNPHKLMB@?C?V?$LE?k?$LM?U?$LN?G@ 10039b08     DlgOptimizer.obj
 0002:00002b14       ??_C@_06FDKHGHHF@?$LM?v?$MA?M?$LH?$PM@ 10039b14     DlgOptimizer.obj
 0002:00002b1c       ??_C@_0N@HGEBBOLI@ProfitFactor@ 10039b1c     DlgOptimizer.obj
 0002:00002b2c       ??_C@_04HFNGKEOO@?$LN?B?$LH?$PM@ 10039b2c     DlgOptimizer.obj
 0002:00002b34       ??_C@_04BPIEHLPP@?$LA?E?$LH?$KB@ 10039b34     DlgOptimizer.obj
 0002:00002b3c       ??_C@_06MKCPLBEP@?A?v?G?$KF?$LI?m@ 10039b3c     DlgOptimizer.obj
 0002:00002b44       ??_C@_02DINIKGF@?$LK?$MA@  10039b44     DlgOptimizer.obj
 0002:00002b48       ??_C@_07BMIBILFB@?2STData@ 10039b48     DlgOptimizer.obj
 0002:00002b50       ??_C@_0BE@MFEGIDEI@?2IndexOptimizer?4htm@ 10039b50     DlgOptimizer.obj
 0002:00002b64       ??_C@_0N@NNCCFHAL@?2IOTrade?4htm@ 10039b64     DlgOptimizer.obj
 0002:00002b74       ??_C@_08OEAPFIFH@?$LM?$LK?$LA?z?$LK?P?$LM?$KO@ 10039b74     DlgOptimizer.obj
 0002:00002b80       ??_C@_08INENBIFG@?$LI?E?$LI?E?$LD?$LL?$LP?$KK@ 10039b80     DlgOptimizer.obj
 0002:00002b8c       ??_C@_0L@CPJPEJFL@?$LM?v?$MA?M?$LH?$PM?B?w?F?$KO@ 10039b8c     DlgOptimizer.obj
 0002:00002b98       ??_C@_0N@HEBKHCBM@?$LM?U?$MA?M?$LK?P?F?w?B?w?F?$KO@ 10039b98     DlgOptimizer.obj
 0002:00002ba8       ??_C@_0BK@IMFLIICM@?$MA?$PM?$LH?$KL?$MA?L?5?$LI?$KO?$LN?$LK?F?$KO?$LP?$KB?5?$LO?x?$LN?$MA?$LE?O?$LE?Y?4@ 10039ba8     DlgOptimizer.obj
 0002:00002bc4       ??_C@_03IDLCJCBF@?4st@     10039bc4     DlgOptimizer.obj
 0002:00002bc8       ??_C@_0P@PJNJDIFE@Icss?2STDATA?2SD@ 10039bc8     DlgOptimizer.obj
 0002:00002bd8       ??_C@_0O@ILIJGNAL@Usr?2STDATA?2SD@ 10039bd8     DlgOptimizer.obj
 0002:00002be8       ??_C@_0DF@KKHNOAOO@?$LK?$MA?5?$MA?T?$LH?B?$LA?$KK?$MA?L?5?$MA?$NP?$LI?x?5?$LM?$LD?A?$KE?$LF?G?$LO?z?$LN?$MA?$LE?O?$LE?Y@ 10039be8     DlgOptimizer.obj
 0002:00002c20       ??_C@_0DI@FCBICJNP@1000?5?$MA?L?$LL?s?$MA?G?5?$LA?$KK?$MA?$LK?5?$LL?g?$LP?k?G?R?5?$LM?v?5?$LO?x?$LN?$MA@ 10039c20     DlgOptimizer.obj
 0002:00002c58       ??_C@_05DCDOHKAB@Input@    10039c58     DlgOptimizer.obj
 0002:00002c60       ??_C@_0L@CNGHBHNE@?$CFs?$CFd?$DN?$CF?42f?0@ 10039c60     DlgOptimizer.obj
 0002:00002c6c       ??_C@_04GEFJINEE@?$CF?42f@ 10039c6c     DlgOptimizer.obj
 0002:00002c78       ??_7?$CList@PAUSTMNG_ITEMINFO@@PAU1@@@6B@ 10039c78     DlgOptimizer.obj
 0002:00002c8c       ??_C@_01BMBHCPLG@5@        10039c8c     DlgOptimizer.obj
 0002:00002c90       ??_C@_0BO@NADBMJJJ@?C?V?$MA?$PL?H?$KN?$LA?$KB?5?$MA?$NP?$LI?x?5?$LM?$LB?E?C?$LF?G?$LO?z?$LN?$MA?$LE?O?$LE?Y?4@ 10039c90     DlgOptimizer.obj
 0002:00002cb0       ??_C@_0BL@EOEHIOGI@?2Icss?2STData?2VarOptima?4cfg@ 10039cb0     DlgOptimizer.obj
 0002:00002ccc       ??_C@_0CL@JOCOAICG@?$LK?$KP?$LM?v?5?C?V?$MA?$PL?H?$KN?$LP?$KB?$LM?$KN?5?$LL?g?$LP?k?G?R?5?$LM?v?5?$LO?x?$LE?B?5@ 10039ccc     DlgOptimizer.obj
 0002:00002cf8       ??_C@_0BO@CPKKMKKO@SCW_DeleteInterfaceOfStrategy@ 10039cf8     DlgOptimizer.obj
 0002:00002d18       ??_C@_04FFLPOIDN@?C?J?$LB?$NO@ 10039d18     DlgOptimizer.obj
 0002:00002d20       ??_C@_04NGCIOFKF@?$LA?m?$LB?$NO@ 10039d20     DlgOptimizer.obj
 0002:00002d28       __real@3ff0000000000000    10039d28     DlgOptimizer.obj
 0002:00002d30       __real@408f400000000000    10039d30     DlgOptimizer.obj
 0002:00002d40       __xmm@0000002d0000002d000000500000003c 10039d40     DlgOptimizer.obj
 0002:00002d50       __xmm@000000320000004b0000004b00000032 10039d50     DlgOptimizer.obj
 0002:00002d60       __xmm@0000003c000000460000006400000000 10039d60     DlgOptimizer.obj
 0002:00002d70       __xmm@0000004b000000070000007800000000 10039d70     DlgOptimizer.obj
 0002:00002d80       __xmm@0000004b0000004b0000003c00000046 10039d80     DlgOptimizer.obj
 0002:00002d90       __xmm@00000050000000460000006400000000 10039d90     DlgOptimizer.obj
 0002:00002da4       ??_7CDlgResult@@6B@        10039da4     DlgResult.obj
 0002:00002f88       ??_C@_02JINPPBEP@No@       10039f88     DlgResult.obj
 0002:00002f8c       ??_C@_0L@FJFCOKJ@?$LE?$KJ?$MA?$PL?$LM?v?$MA?M?$LH?$PM@ 10039f8c     DlgResult.obj
 0002:00002f98       ??_C@_0O@KHPIEGBI@?C?Q?$MA?L?$MA?M?1?C?Q?$LM?U?$LN?G@ 10039f98     DlgResult.obj
 0002:00002fa8       ??_C@_0N@NJFCNOGE@?$LA?G?$LK?$LA?F?r?$LB?U?$LM?U?$MA?M@ 10039fa8     DlgResult.obj
 0002:00002fb8       ??_C@_06KFFIADGF@?C?Q?A?x?$MA?T@ 10039fb8     DlgResult.obj
 0002:00002fc0       ??_C@_08OPDCDADA@?C?Q?$LI?E?$LI?E?$LM?v@ 10039fc0     DlgResult.obj
 0002:00002fcc       ??_C@_0O@CIHDHIEL@?$MA?L?$MA?M?$LM?v?1?$LM?U?$LN?G?$LM?v@ 10039fcc     DlgResult.obj
 0002:00002fdc       ??_C@_0L@OFFEDCHL@?$LB?b?$LA?$KD?$LF?n?$LG?t?$LH?$PM@ 10039fdc     DlgResult.obj
 0002:00002fe8       ??_C@_0P@HMJADPNA@?$MA?$PM?$LH?$KL?C?J?$LA?z?$LM?v?$MA?M?$LH?$PM@ 10039fe8     DlgResult.obj
 0002:00002ff8       ??_C@_06OEJMNFOB@?C?Q?$LK?$MA?$LM?v@ 10039ff8     DlgResult.obj
 0002:00003000       ??_C@_0L@IJLGNGBO@?$LB?b?$LA?$KD?B?$PM?$LP?$KJ?$MA?$LC@ 1003a000     DlgResult.obj
 0002:0000300c       ??_C@_0N@PDNPFNDD@?F?r?$LB?U?$LI?E?$LI?E?$LK?$MA?$LM?v@ 1003a00c     DlgResult.obj
 0002:0000301c       ??_C@_0P@JJNKLJJO@?$LA?G?$LK?$LA?F?r?$LB?U?$LM?v?$MA?M?$LH?$PM@ 1003a01c     DlgResult.obj
 0002:0000302c       ??_C@_0N@JDICKLCG@?$LA?G?$LK?$LA?C?V?$LE?k?$MA?L?$MA?M@ 1003a02c     DlgResult.obj
 0002:0000303c       ??_C@_0N@MIGBMLLP@?$LA?G?$LK?$LA?F?r?$LB?U?$MA?L?$MA?M@ 1003a03c     DlgResult.obj
 0002:0000304c       ??_C@_0BB@NJCLLDAP@?$LJ?L?C?$LL?$LL?j?F?w?G?T?C?Q?C?$LL?$LL?j@ 1003a04c     DlgResult.obj
 0002:00003060       ??_C@_0L@LDAPEPIM@?$MA?L?$MA?M?$LI?E?$LI?E?$LM?v@ 1003a060     DlgResult.obj
 0002:0000306c       ??_C@_0BB@CGAEBIGF@?$MA?L?$MA?M?$LI?E?$LI?E?$MA?$LC?$CI?$LN?B?$LH?$PM?$CJ@ 1003a06c     DlgResult.obj
 0002:00003080       ??_C@_0P@KPEIILEB@?C?V?$LE?k?$LP?$KM?$LM?S?$MA?L?$MA?M?$LM?v@ 1003a080     DlgResult.obj
 0002:00003090       ??_C@_0N@OAECDKHI@?C?V?$LE?k?$LP?$KM?$LM?S?$MA?L?$MA?M@ 1003a090     DlgResult.obj
 0002:000030a0       ??_C@_0N@KFPHCLNL@?$MA?L?$MA?M?$LI?E?$LI?E?$LK?$MA?$LM?v@ 1003a0a0     DlgResult.obj
 0002:000030b0       ??_C@_0N@FOGALCGL@?A?x?$MA?T?$LL?s?E?B?$LK?$MA?$LM?v@ 1003a0b0     DlgResult.obj
 0002:000030c0       ??_C@_0BB@KLAEHKOB@?$MA?L?$MA?M?$LI?E?$LI?E?F?r?$LB?U?$LK?$MA?$LM?v@ 1003a0c0     DlgResult.obj
 0002:000030d4       ??_C@_0BB@NADIPDBG@?G?v?$MA?g?F?w?A?v?$LM?G?$LM?v?$MA?M?$LH?$PM@ 1003a0d4     DlgResult.obj
 0002:000030e8       ??_C@_0N@CEHHKNHE@?$LA?G?$LK?$LA?C?V?$LE?k?$LM?U?$LN?G@ 1003a0e8     DlgResult.obj
 0002:000030f8       ??_C@_0N@HPJEMNON@?$LA?G?$LK?$LA?F?r?$LB?U?$LM?U?$LN?G@ 1003a0f8     DlgResult.obj
 0002:00003108       ??_C@_0L@MKABNNA@?$LM?U?$LN?G?$LI?E?$LI?E?$LM?v@ 1003a108     DlgResult.obj
 0002:00003114       ??_C@_0BB@DDLIPNDD@?$LM?U?$LN?G?$LI?E?$LI?E?$MA?$LC?$CI?F?P?$MA?$LC?$CJ@ 1003a114     DlgResult.obj
 0002:00003128       ??_C@_0P@MOKGKGFH@?C?V?$LE?k?$LP?$KM?$LM?S?$LM?U?$LN?G?$LM?v@ 1003a128     DlgResult.obj
 0002:00003138       ??_C@_0N@FHLHDMCK@?C?V?$LE?k?$LP?$KM?$LM?S?$LM?U?$LN?G@ 1003a138     DlgResult.obj
 0002:00003148       ??_C@_0N@DGJMLGPE@?$LM?U?$LN?G?$LI?E?$LI?E?$LK?$MA?$LM?v@ 1003a148     DlgResult.obj
 0002:00003158       ??_C@_0N@NCPIAFBM@?C?$LL?$LL?j?$LL?s?E?B?$LK?$MA?$LM?v@ 1003a158     DlgResult.obj
 0002:00003168       ??_C@_0BB@EJJBJOLI@?$LM?U?$LN?G?$LI?E?$LI?E?F?r?$LB?U?$LK?$MA?$LM?v@ 1003a168     DlgResult.obj
 0002:0000317c       ??_C@_06NBGJEFCJ@?$CF?42f?$CF?$CF@ 1003a17c     DlgResult.obj
 0002:00003184       ??_C@_01FGNFDNOH@?$CF@     1003a184     DlgResult.obj
 0002:00003188       ??_C@_0CH@KHGIOIFG@Do?5Not?5Create?5IndexOptimizer?4ht@ 1003a188     DlgResult.obj
 0002:000031b0       ??_C@_0O@NLCHHJFD@color?$DN?$CCwhite?$CC@ 1003a1b0     DlgResult.obj
 0002:000031c0       ??_C@_0BI@NAAHMCJB@?2IndexOptimizerdata?4htm@ 1003a1c0     DlgResult.obj
 0002:000031d8       ??_C@_0BJ@EJHFGNNM@Do?5Not?5Create?5Html?5File?4@ 1003a1d8     DlgResult.obj
 0002:000031f4       ??_C@_09NFLEOFMG@AccumProf@ 1003a1f4     DlgResult.obj
 0002:00003200       ??_C@_09NILGFMCM@AAverProf@ 1003a200     DlgResult.obj
 0002:0000320c       ??_C@_0L@DKLCHHHE@CurPosRate@ 1003a20c     DlgResult.obj
 0002:00003218       ??_C@_08NJIDJBMP@TotalSon@ 1003a218     DlgResult.obj
 0002:00003224       ??_C@_09NMLEAPDE@TotalProf@ 1003a224     DlgResult.obj
 0002:00003230       ??_C@_09DIJPGJPB@Totalloss@ 1003a230     DlgResult.obj
 0002:0000323c       ??_C@_07EDCOJGIO@TotalPL@  1003a23c     DlgResult.obj
 0002:00003244       ??_C@_07GLPMNILH@MaxProf@  1003a244     DlgResult.obj
 0002:0000324c       ??_C@_07EOBGJBHG@MaxLoss@  1003a24c     DlgResult.obj
 0002:00003254       ??_C@_07EKDEEAMK@AverSon@  1003a254     DlgResult.obj
 0002:0000325c       ??_C@_08KMENEMGK@AverProf@ 1003a25c     DlgResult.obj
 0002:00003268       ??_C@_08IJKHAFKL@AverLoss@ 1003a268     DlgResult.obj
 0002:00003274       ??_C@_08BNBOAJGA@TotalEnt@ 1003a274     DlgResult.obj
 0002:00003280       ??_C@_0N@FABGAHHD@NoCleanTotal@ 1003a280     DlgResult.obj
 0002:00003290       ??_C@_07LAKJMOME@NoClean@  1003a290     DlgResult.obj
 0002:00003298       ??_C@_0L@EBCIDOBD@TotalTrade@ 1003a298     DlgResult.obj
 0002:000032a4       ??_C@_09FKFKKEGM@ProfTrade@ 1003a2a4     DlgResult.obj
 0002:000032b0       ??_C@_09CELFPHCB@LossTrade@ 1003a2b0     DlgResult.obj
 0002:000032bc       ??_C@_04FIMJHFJE@PnLn@     1003a2bc     DlgResult.obj
 0002:000032c4       ??_C@_06FMGCNAHE@PTRate@   1003a2c4     DlgResult.obj
 0002:000032cc       ??_C@_06PMBMCGMO@LTRate@   1003a2cc     DlgResult.obj
 0002:000032d4       ??_C@_07KIBCMJAA@PrdSign@  1003a2d4     DlgResult.obj
 0002:000032dc       ??_C@_0M@KFAGDAGD@MaxConProfN@ 1003a2dc     DlgResult.obj
 0002:000032e8       ??_C@_0M@EJEACIAM@MaxConLossN@ 1003a2e8     DlgResult.obj
 0002:000032f4       ??_C@_09DABNGCCI@SOverRate@ 1003a2f4     DlgResult.obj
 0002:00003300       ??_C@_0L@JNOBGELA@MaxConProf@ 1003a300     DlgResult.obj
 0002:0000330c       ??_C@_0L@LIALCNHB@MaxConLoss@ 1003a30c     DlgResult.obj
 0002:00003318       ??_C@_0L@INBFOIOP@TotalStick@ 1003a318     DlgResult.obj
 0002:00003324       ??_C@_07BEJPFNDO@PTStick@  1003a324     DlgResult.obj
 0002:0000332c       ??_C@_07DPILHJFK@LTStick@  1003a32c     DlgResult.obj
 0002:00003334       ??_C@_08DOMHGIBC@PrdParty@ 1003a334     DlgResult.obj
 0002:00003340       ??_C@_0L@MKHNBNHL@EntryStick@ 1003a340     DlgResult.obj
 0002:0000334c       ??_C@_0L@MNMLMFLP@CleanStick@ 1003a34c     DlgResult.obj
 0002:00003358       ??_C@_07KEIOGMIL@ATStick@  1003a358     DlgResult.obj
 0002:00003360       ??_C@_08FEEKGKBM@PTAStick@ 1003a360     DlgResult.obj
 0002:0000336c       ??_C@_09KCCJCBOJ@PLTAStick@ 1003a36c     DlgResult.obj
 0002:0000337c       ??_7CStatic@@6B@           1003a37c     DlgTimeSetup.obj
 0002:000034f0       ??_C@_0CH@FMKNDLPI@?$CF?$FL?$FO?0?$FN?0?$CFd?0?$CF?$FL?$FO?0?$FN?0?$CF?$FL?$FO?0?$FN?0?$CF?$FL?$FO?0?$FN?0?$CF?$FL?$FO?0@ 1003a4f0     DlgTimeSetup.obj
 0002:0000351c       ??_7?$CList@PAVCCFGScanInfo@@PAV1@@@6B@ 1003a51c     DlgTimeSetup.obj
 0002:00003530       ??_C@_05IJGIMMHE@Count@    1003a530     DlgTimeSetup.obj
 0002:00003538       ??_C@_05PABKJLOM@Title@    1003a538     DlgTimeSetup.obj
 0002:00003540       ?classCDlgTimeSetup@CDlgTimeSetup@@2UCRuntimeClass@@B 1003a540     DlgTimeSetup.obj
 0002:00003560       ??_7?$CArray@PAVCStatic@@PAV1@@@6B@ 1003a560     DlgTimeSetup.obj
 0002:00003578       ??_7CDlgTimeSetup@@6B@     1003a578     DlgTimeSetup.obj
 0002:0000370c       ??_C@_0O@KKNAKMBK@CDlgTimeSetup@ 1003a70c     DlgTimeSetup.obj
 0002:00003758       ??_7CDlgTrade@@6B@         1003a758     DlgTrade.obj
 0002:00003930       ??_C@_02NFLNFON@NO@        1003a930     DlgTrade.obj
 0002:00003934       ??_C@_06PKEOGNHM@?F?w?A?v?$LM?G@ 1003a934     DlgTrade.obj
 0002:0000393c       ??_C@_08CBGNLCNF@?$LI?E?$LI?E?$LN?C?A?$KB@ 1003a93c     DlgTrade.obj
 0002:00003948       ??_C@_04CNAFDLNE@?$LA?$KB?$LA?$NN@ 1003a948     DlgTrade.obj
 0002:00003950       ??_C@_04LPHCNNHO@?$LM?v?$LH?$KO@ 1003a950     DlgTrade.obj
 0002:00003958       ??_C@_0O@HDDPIDH@?A?x?$MA?T?1?C?$LL?$LL?j?$LB?$NN?$LO?W@ 1003a958     DlgTrade.obj
 0002:00003968       ??_C@_08JEHIPFIE@?$LA?G?$LK?$LA?$LM?U?$MA?M@ 1003a968     DlgTrade.obj
 0002:00003974       ??_C@_08CBHCGDML@?$LE?$KJ?$MA?$PL?$LM?U?$MA?M@ 1003a974     DlgTrade.obj
 0002:00003980       ??_C@_0L@GLBIPOBI@?$LA?G?$LK?$LA?$LM?v?$MA?M?$LH?$PM@ 1003a980     DlgTrade.obj
 0002:0000398c       ??_C@_04GLKKDPHH@?$CF2?4f@ 1003a98c     DlgTrade.obj
 0002:00003994       ??_C@_04OKGDLNCL@NONE@     1003a994     DlgTrade.obj
 0002:0000399c       ??_C@_08BPEOHGCP@?$LI?E?$LM?v?A?x?$MA?T@ 1003a99c     DlgTrade.obj
 0002:000039a8       ??_C@_08OJBKHDEB@?$LI?E?$LF?$LF?C?$LL?$LL?j@ 1003a9a8     DlgTrade.obj
 0002:000039b4       ??_C@_08DBKELDO@?$LI?E?$LF?$LF?A?x?$MA?T@ 1003a9b4     DlgTrade.obj
 0002:000039c0       ??_C@_08PFEOEOFA@?$LI?E?$LM?v?C?$LL?$LL?j@ 1003a9c0     DlgTrade.obj
 0002:000039cc       ??_C@_03JALODAI@?$CFld@    1003a9cc     DlgTrade.obj
 0002:000039d0       ??_C@_0EA@IAJPAJJA@?$FLPROJ?5?3?5IndexOptimizer?5?$FN?5CDlgTr@ 1003a9d0     DlgTrade.obj
 0002:00003a10       ??_C@_03CHBJLALM@Num@      1003aa10     DlgTrade.obj
 0002:00003a14       ??_C@_08GCJNLIKG@Position@ 1003aa14     DlgTrade.obj
 0002:00003a20       ??_C@_04FMEGDJGD@Date@     1003aa20     DlgTrade.obj
 0002:00003a28       ??_C@_05NFJELHBG@Price@    1003aa28     DlgTrade.obj
 0002:00003a30       ??_C@_06HKBMKICC@Amount@   1003aa30     DlgTrade.obj
 0002:00003a38       ??_C@_05HKHPEFOF@Entry@    1003aa38     DlgTrade.obj
 0002:00003a40       ??_C@_0M@HHGFFDDN@ProfitAccum@ 1003aa40     DlgTrade.obj
 0002:00003a4c       ??_C@_07KJPGDMCN@NuAccum@  1003aa4c     DlgTrade.obj
 0002:00003a54       ??_C@_07LPBACJGH@GunRate@  1003aa54     DlgTrade.obj
 0002:00003a5c       ??_C@_09MIDHKLJD@NuJukRate@ 1003aa5c     DlgTrade.obj
 0002:00003a68       ??_C@_0EII@IBMGMDDP@?$DMtr?5Align?$DN?$CCRight?$CC?$DO?$DMtd?5width?$DN?$CC39@ 1003aa68     DlgTrade.obj
 0002:00003ef0       ??_C@_03EICDNICE@?$CF?4f@  1003aef0     DlgTrade.obj
 0002:00003ef4       ??_C@_06JGAACDGM@?$CCblue?$CC@ 1003aef4     DlgTrade.obj
 0002:00003efc       ??_C@_05NIFAGJNM@?$CCFC1?$CC@ 1003aefc     DlgTrade.obj
 0002:00003f04       ??_C@_05GDNPGLCD@?$CCred?$CC@ 1003af04     DlgTrade.obj
 0002:00003f0c       ??_C@_06IDGDLJAM@?$CCFC?$CFd?$CC@ 1003af0c     DlgTrade.obj
 0002:00003f14       ??_C@_01JOAMLHOP@?9@       1003af14     DlgTrade.obj
 0002:00003f18       ??_C@_07CMGALDKB@?$CCblack?$CC@ 1003af18     DlgTrade.obj
 0002:00003f20       ??_C@_0L@PPJEJMEG@?$DM?$CB?9?9ADD?9?9?$DO@ 1003af20     DlgTrade.obj
 0002:00003f2c       ??_C@_0BB@EDCKBMPI@?2IOTradeData?4htm@ 1003af2c     DlgTrade.obj
 0002:00003f40       ??_C@_05BPGNDIAE@Black@    1003af40     DlgTrade.obj
 0002:00003f48       ??_C@_05PMAELIEO@white@    1003af48     DlgTrade.obj
 0002:00003f50       ??_C@_06ODLOODK@?$CGnbsp?$DL@ 1003af50     DlgTrade.obj
 0002:00003f58       ??_C@_01JLIPDDHJ@?3@       1003af58     DlgTrade.obj
 0002:00003f60       __real@3fe0000000000000    1003af60     DlgTrade.obj
 0002:00003f68       ?classCGridCell@CGridCell@@2UCRuntimeClass@@B 1003af68     GridCell.obj
 0002:00003f88       ??_7CGridCell@@6B@         1003af88     GridCell.obj
 0002:00004078       ?classCGridDefaultCell@CGridDefaultCell@@2UCRuntimeClass@@B 1003b078     GridCell.obj
 0002:00004098       ??_7CGridDefaultCell@@6B@  1003b098     GridCell.obj
 0002:000041a0       ??_C@_09CLBLKEDE@CGridCell@ 1003b1a0     GridCell.obj
 0002:000041ac       ??_C@_0BB@IPGMAHPB@CGridDefaultCell@ 1003b1ac     GridCell.obj
 0002:000041c0       ??_C@_0P@PLKEPLKE@?5XXXXXXXXXXXX?5@ 1003b1c0     GridCell.obj
 0002:000041d0       ??_C@_01PLPBNMEI@M@        1003b1d0     GridCellBase.obj
 0002:000041d4       ?classCGridCellBase@CGridCellBase@@2UCRuntimeClass@@B 1003b1d4     GridCellBase.obj
 0002:000041f4       ??_7CGridCellBase@@6B@     1003b1f4     GridCellBase.obj
 0002:000042e4       ??_C@_0O@ELCGHKDE@CGridCellBase@ 1003b2e4     GridCellBase.obj
 0002:000042f8       __real@3fbc28f5c28f5c29    1003b2f8     GridCellBase.obj
 0002:00004300       __real@3fd3333333333333    1003b300     GridCellBase.obj
 0002:00004308       __real@3fe2e147ae147ae1    1003b308     GridCellBase.obj
 0002:00004310       ?szInvalidDateTime@ATL@@3QBDB 1003b310     GridCtrl.obj
 0002:00004314       ??_C@_0BB@KEKMKJPM@Invalid?5DateTime@ 1003b314     GridCtrl.obj
 0002:0000432c       ??_7CFileException@@6B@    1003b32c     GridCtrl.obj
 0002:00004350       ??_C@_0HD@BPLDAFHE@C?3?2Program?5Files?5?$CIx86?$CJ?2Microsof@ 1003b350     GridCtrl.obj
 0002:000043c8       ??_7CCommonDialog@@6B@     1003b3c8     GridCtrl.obj
 0002:00004560       ??_7CMemDC@@6B@            1003b560     GridCtrl.obj
 0002:000045e0       ?classCGridCtrl@CGridCtrl@@2UCRuntimeClass@@B 1003b5e0     GridCtrl.obj
 0002:00004600       ??_7?$CTypedPtrArray@VCObArray@@PAV?$CTypedPtrArray@VCObArray@@PAVCGridCellBase@@@@@@6B@ 1003b600     GridCtrl.obj
 0002:00004618       ??_7?$CMap@KKVCCellID@@AAV1@@@6B@ 1003b618     GridCtrl.obj
 0002:00004630       ??_7CGridCtrl@@6B@         1003b630     GridCtrl.obj
 0002:00004818       ??_7?$CTypedPtrArray@VCObArray@@PAVCGridCellBase@@@@6B@ 1003b818     GridCtrl.obj
 0002:0000482c       ??_C@_09NFAGBKLE@CGridCtrl@ 1003b82c     GridCtrl.obj
 0002:00004838       ??_C@_0BG@JHCMIEAA@Control?5Panel?2Desktop@ 1003b838     GridCtrl.obj
 0002:00004850       ??_C@_0BB@LOOBGJFE@WheelScrollLines@ 1003b850     GridCtrl.obj
 0002:00004868       ??_C@_0FE@POPCFEBD@OLE?5initialization?5failed?4?5Make@ 1003b868     GridCtrl.obj
 0002:000048bc       ??_C@_0M@NNGINBBP@MFCGridCtrl@ 1003b8bc     GridCtrl.obj
 0002:00004bd0       ??_C@_01GPOEFGEJ@?7@       1003bbd0     GridCtrl.obj
 0002:00004bd4       ??_C@_02PCIJFNDE@?$AN?6@   1003bbd4     GridCtrl.obj
 0002:00004bd8       ??_C@_01EEMJAFIK@?6@       1003bbd8     GridCtrl.obj
 0002:00004bdc       ??_C@_02DGFOHGMM@?7?0@     1003bbdc     GridCtrl.obj
 0002:00004be0       ??_C@_05MPFIAJAP@Arial@    1003bbe0     GridCtrl.obj
 0002:00004be8       ??_C@_0DG@NFHEFIGB@abcdefghijklmnopqrstuvwxyzABCDE@ 1003bbe8     GridCtrl.obj
 0002:00004c20       ??_C@_0O@MLLBBIJG@Page?5?$CFd?5of?5?$CFd@ 1003bc20     GridCtrl.obj
 0002:00004c30       ??_C@_02HAOIJKIC@?$CFc@    1003bc30     GridCtrl.obj
 0002:00004c34       ??_C@_0BJ@IAHDJGPJ@Unable?5to?5save?5grid?5list@ 1003bc34     GridCtrl.obj
 0002:00004c50       ??_C@_0BJ@MOONOAPJ@Unable?5to?5load?5grid?5data@ 1003bc50     GridCtrl.obj
 0002:00004c70       __xmm@ffffffff000000000000000000000000 1003bc70     GridCtrl.obj
 0002:00004c80       __xmm@ffffffffffffffffffffffffffffffff 1003bc80     GridCtrl.obj
 0002:00004c94       ??_7CGridDropTarget@@6B@   1003bc94     GridDropTarget.obj
 0002:00004d2c       ??_7CEdit@@6B@             1003bd2c     InPlaceEdit.obj
 0002:00004e9c       ??_7CInPlaceEdit@@6B@      1003be9c     InPlaceEdit.obj
 0002:000050a0       ??_C@_02KNHHEEKP@?5?5@     1003c0a0     InPlaceEdit.obj
 0002:000050a8       ??_7CTitleTip@@6B@         1003c0a8     TitleTip.obj
 0002:00005218       ??_C@_09EIMMPIGK@ZTitleTip@ 1003c218     TitleTip.obj
 0002:0000525c       __pRawDllMain              1003c25c     IndexOptimizer.obj
 0002:00005260       ??_C@_0M@LKHHGGNN@?2Icss?2Image@ 1003c260     IndexOptimizer.obj
 0002:0000526c       ??_C@_0N@HJAMCNAE@SetFrameInfo@ 1003c26c     IndexOptimizer.obj
 0002:00005280       __xmm@000001900000012c0000000000000000 1003c280     IndexOptimizer.obj
 0002:00005290       ??_C@_0P@BKKCOCLK@RMSG_INTERFACE@ 1003c290     StdAfx.obj
 0002:000052a0       ??_C@_0P@LNEGBOLO@atlTraceSnapin@ 1003c2a0     StdAfx.obj
 0002:000052b0       ??_C@_0BB@JPACFCL@RMSG_SETPCTRDATA@ 1003c2b0     StdAfx.obj
 0002:000052c4       ??_C@_0BA@MCBFIDIC@atlTraceNotImpl@ 1003c2c4     StdAfx.obj
 0002:000052d4       ??_C@_0BD@PJPCCAKP@atlTraceAllocation@ 1003c2d4     StdAfx.obj
 0002:000052e8       ??_C@_0BC@PGMFNIFA@atlTraceException@ 1003c2e8     StdAfx.obj
 0002:000052fc       ??_C@_0N@BNNILHBE@atlTraceTime@ 1003c2fc     StdAfx.obj
 0002:0000530c       ??_C@_0O@MEOJAOKK@atlTraceCache@ 1003c30c     StdAfx.obj
 0002:0000531c       ??_C@_0BA@IDBKCKK@atlTraceStencil@ 1003c31c     StdAfx.obj
 0002:0000532c       ??_C@_0P@MBNHGHMI@atlTraceString@ 1003c32c     StdAfx.obj
 0002:0000533c       ??_C@_0M@IOBBMAHG@atlTraceMap@ 1003c33c     StdAfx.obj
 0002:00005348       ??_C@_0N@FEAAACHD@atlTraceUtil@ 1003c348     StdAfx.obj
 0002:00005358       ??_C@_0BB@DNJDADMG@atlTraceSecurity@ 1003c358     StdAfx.obj
 0002:0000536c       ??_C@_0N@KLPNCFEE@atlTraceSync@ 1003c36c     StdAfx.obj
 0002:0000537c       ??_C@_0O@KHOBHOBJ@atlTraceISAPI@ 1003c37c     StdAfx.obj
 0002:0000538a       ?chDirSep@ATL@@3DB         1003c38a     StdAfx.obj
 0002:0000538b       ?chRightBracket@ATL@@3DB   1003c38b     StdAfx.obj
 0002:0000538c       ?chLeftBracket@ATL@@3DB    1003c38c     StdAfx.obj
 0002:0000538d       ?chQuote@ATL@@3DB          1003c38d     StdAfx.obj
 0002:0000538e       ?chEquals@ATL@@3DB         1003c38e     StdAfx.obj
 0002:00005390       ?szStringVal@ATL@@3QBDB    1003c390     StdAfx.obj
 0002:00005394       ??_C@_01CPLAODJH@S@        1003c394     StdAfx.obj
 0002:00005398       ?multiszStringVal@ATL@@3QBDB 1003c398     StdAfx.obj
 0002:0000539c       ?szDwordVal@ATL@@3QBDB     1003c39c     StdAfx.obj
 0002:000053a0       ??_C@_01CKDDGHAB@D@        1003c3a0     StdAfx.obj
 0002:000053a4       ?szBinaryVal@ATL@@3QBDB    1003c3a4     StdAfx.obj
 0002:000053a8       ??_C@_01HMGJMAIH@B@        1003c3a8     StdAfx.obj
 0002:000053ac       ?szValToken@ATL@@3QBDB     1003c3ac     StdAfx.obj
 0002:000053b0       ??_C@_03LAIAPFCB@Val@      1003c3b0     StdAfx.obj
 0002:000053b4       ?szForceRemove@ATL@@3QBDB  1003c3b4     StdAfx.obj
 0002:000053b8       ??_C@_0M@DBGDLGLL@ForceRemove@ 1003c3b8     StdAfx.obj
 0002:000053c4       ?szNoRemove@ATL@@3QBDB     1003c3c4     StdAfx.obj
 0002:000053c8       ??_C@_08KAAPDIAN@NoRemove@ 1003c3c8     StdAfx.obj
 0002:000053d4       ?szDelete@ATL@@3QBDB       1003c3d4     StdAfx.obj
 0002:000053d8       ??_C@_06JBKGCNBB@Delete@   1003c3d8     StdAfx.obj
 0002:000053e0       _CLSID_Registrar           1003c3e0     StdAfx.obj
 0002:000053f0       _IID_IRegistrar            1003c3f0     StdAfx.obj
 0002:00005400       _IID_IDocHostUIHandlerDispatch 1003c400     StdAfx.obj
 0002:00005414       ??_7CAtlStringMgr@ATL@@6B@ 1003c414     StdAfx.obj
 0002:0000542c       _IID_IAxWinHostWindow      1003c42c     StdAfx.obj
 0002:0000543c       _IID_IAxWinHostWindowLic   1003c43c     StdAfx.obj
 0002:0000544c       _IID_IAxWinAmbientDispatch 1003c44c     StdAfx.obj
 0002:0000545c       _IID_IAxWinAmbientDispatchEx 1003c45c     StdAfx.obj
 0002:0000546c       _IID_IInternalConnection   1003c46c     StdAfx.obj
 0002:0000547c       ?szInvalidDateTimeSpan@ATL@@3QBDB 1003c47c     StdAfx.obj
 0002:00005480       ??_C@_0BF@GPPHKJFN@Invalid?5DateTimeSpan@ 1003c480     StdAfx.obj
 0002:00005498       ?CLSID_WinFormsControl@@3U_GUID@@B 1003c498     StdAfx.obj
 0002:000054a8       _c_DwmMaxQueuedBuffers     1003c4a8     StdAfx.obj
 0002:000054ac       _c_DwmMaxMonitors          1003c4ac     StdAfx.obj
 0002:000054b0       _c_DwmMaxAdapters          1003c4b0     StdAfx.obj
 0002:000054b4       _LIBID_ATLLib              1003c4b4     StdAfx.obj
 0002:000054c8       ??_7CWin32Heap@ATL@@6B@    1003c4c8     StdAfx.obj
 0002:000054dc       ??_C@_0BK@FBLMOCPF@RMSG_FORMINITIALCOMPLETED@ 1003c4dc     StdAfx.obj
 0002:000054f8       ??_C@_0BF@JNMMFBNP@RMSG_EVENT_CODEINPUT@ 1003c4f8     StdAfx.obj
 0002:00005510       ??_C@_0BF@LEGBOMJF@RMSG_EVENT_ACCTINPUT@ 1003c510     StdAfx.obj
 0002:00005528       ??_C@_0BF@FABJBMLM@RMSG_EVENT_SPININPUT@ 1003c528     StdAfx.obj
 0002:00005540       ??_C@_0BC@PGMEIMOI@RMSG_EVENT_SIGNAL@ 1003c540     StdAfx.obj
 0002:00005554       ??_C@_0BF@FPLDPAEH@RMSG_FORMSTATECHANGE@ 1003c554     StdAfx.obj
 0002:0000556c       ??_C@_0N@IMGBDGND@RMSG_TABSTOP@ 1003c56c     StdAfx.obj
 0002:0000557c       ??_C@_0BC@MMIGKJED@RMSG_LBTNDBLCLICK@ 1003c57c     StdAfx.obj
 0002:00005590       ??_C@_0O@DGNCFOOP@RMSG_LBTNDOWN@ 1003c590     StdAfx.obj
 0002:000055a0       ??_C@_0BC@EMMLKNDL@RMSG_ENDSCROLLPOS@ 1003c5a0     StdAfx.obj
 0002:000055b4       ??_C@_0BE@IEJDDJPC@RMSG_LSHAREDCHANGED@ 1003c5b4     StdAfx.obj
 0002:000055c8       ??_C@_0BA@MKMIKKJB@atlTraceGeneral@ 1003c5c8     StdAfx.obj
 0002:000055d8       ??_C@_0M@DGPFJEBB@atlTraceCOM@ 1003c5d8     StdAfx.obj
 0002:000055e4       ??_C@_0L@LHELAKBP@atlTraceQI@ 1003c5e4     StdAfx.obj
 0002:000055f0       ??_C@_0BC@MALHFBAO@atlTraceRegistrar@ 1003c5f0     StdAfx.obj
 0002:00005604       ??_C@_0BB@ILPPDKFL@atlTraceRefcount@ 1003c604     StdAfx.obj
 0002:00005618       ??_C@_0BC@DGHHNKDC@atlTraceWindowing@ 1003c618     StdAfx.obj
 0002:0000562c       ??_C@_0BB@GHKJKKIE@atlTraceControls@ 1003c62c     StdAfx.obj
 0002:00005640       ??_C@_0BA@DKOAAGGM@atlTraceHosting@ 1003c640     StdAfx.obj
 0002:00005650       ??_C@_0BB@BEBMGMDO@atlTraceDBClient@ 1003c650     StdAfx.obj
 0002:00005664       ??_C@_0BD@KOADKDIA@atlTraceDBProvider@ 1003c664     StdAfx.obj
 0002:0000567c       ??_7CTabSoonikChart@@6B@   1003c67c     TabEarnChart.obj
 0002:0000588c       ??_7CTabSonikChart@@6B@    1003c88c     TabSonikChart.obj
 0002:00005a80       ??_C@_0BM@OKGIDDHL@nAllCount?5?C?J?$LA?z?5?9?5?$LP?$KB?$LH?$KP?$LF?$KF?$MA?L?E?M@ 1003ca80     TabSonikChart.obj
 0002:00005aa0       __real@4059000000000000    1003caa0     TabSonikChart.obj
 0002:00005aac       ??_7CExDrawButton@@6B@     1003caac     ExControl:ExDrawButton.obj
 0002:00005c34       ??_7CExLoadLib@@6B@        1003cc34     ExControl:ExDrawButton.obj
 0002:00005c38       ??_C@_0CD@INEDAMEN@DLL?$FL?$CFs?$FN?$MA?$LL?5Load?G?R?5?$LM?v?5?$LO?x?$LN?$MA?$LE?O?$LE?Y?4?5?$FL@ 1003cc38     ExControl:ExDrawButton.obj
 0002:00005c5c       ??_C@_04OHDBDCPJ@?2Dev@    1003cc5c     ExControl:ExDrawButton.obj
 0002:00005c68       ??_7CLoaderDrawButton@@6B@ 1003cc68     ExControl:ExDrawButton.obj
 0002:00005c6c       ??_C@_0N@GEEODKHG@ExButton?4dll@ 1003cc6c     ExControl:ExDrawButton.obj
 0002:00005c7c       ??_C@_0BB@JBDOCKKP@Ex_ActionControl@ 1003cc7c     ExControl:ExDrawButton.obj
 0002:00005c90       ??_C@_0BC@PGEAKCHE@Ex_InitDrawButton@ 1003cc90     ExControl:ExDrawButton.obj
 0002:00005ca4       ??_C@_0BD@LKOOKBPG@Ex_InitDrawButton2@ 1003cca4     ExControl:ExDrawButton.obj
 0002:00005cb8       ??_C@_0O@HJMOOLG@Ex_ExitButton@ 1003ccb8     ExControl:ExDrawButton.obj
 0002:00005cc8       ??_C@_0BB@CHEHMADH@Ex_SetDrawButton@ 1003ccc8     ExControl:ExDrawButton.obj
 0002:00005cdc       ??_C@_0BC@BNIJDNAL@Ex_DrawItemButton@ 1003ccdc     ExControl:ExDrawButton.obj
 0002:00005cf0       ??_C@_0L@DJFMIDOF@Ex_SetText@ 1003ccf0     ExControl:ExDrawButton.obj
 0002:00005cfc       ??_C@_0L@CNADMACE@Ex_SetIcon@ 1003ccfc     ExControl:ExDrawButton.obj
 0002:00005d08       ??_C@_0BJ@LGMPMCJG@Ex_GetSkinNotifyFunction@ 1003cd08     ExControl:ExDrawButton.obj
 0002:00005d24       ??_C@_0CA@IAIBPFKD@Ex_PreSubclassWindow_DrawButton@ 1003cd24     ExControl:ExDrawButton.obj
 0002:00005d44       ??_C@_0BG@EAFAMFDC@Ex_GetText_DrawButton@ 1003cd44     ExControl:ExDrawButton.obj
 0002:00005d5c       ??_C@_0BM@HBHBHJMC@Ex_UseToggleMode_DrawButton@ 1003cd5c     ExControl:ExDrawButton.obj
 0002:00005d78       ??_C@_0BN@KABDCPCN@Ex_GetToggleState_DrawButton@ 1003cd78     ExControl:ExDrawButton.obj
 0002:00005d98       ??_C@_0BN@CANFOCIL@Ex_SetToggleState_DrawButton@ 1003cd98     ExControl:ExDrawButton.obj
 0002:00005db8       ??_C@_0BM@KGOCHHHE@Ex_ReleasePushed_DrawButton@ 1003cdb8     ExControl:ExDrawButton.obj
 0002:00005dd4       ??_C@_0BI@HIINLFG@Ex_OnClicked_DrawButton@ 1003cdd4     ExControl:ExDrawButton.obj
 0002:00005dec       ??_C@_0BN@KLLBCGDD@Ex_AddToggleGroup_DrawButton@ 1003cdec     ExControl:ExDrawButton.obj
 0002:00005e48       ??_7CButton@@6B@           1003ce48     ExControl:ExButton.obj
 0002:00005fc0       ??_7CExButton@@6B@         1003cfc0     ExControl:ExButton.obj
 0002:00006158       ??_7?$CArray@PAXPAX@@6B@   1003d158     ExControl:StdAfx.obj
 0002:0000616c       ??_C@_0BN@HFGHFFIN@SetPermanentHandle?5?$CF08X?$DN?$CF0X?6@ 1003d16c     ExControl:StdAfx.obj
 0002:00006190       __pAtlLcidToLocaleNameTable 1003d190     mfcs140:nolib.obj
 0002:000068b0       ??_C@_15EMKDOKLE@?$AAa?$AAr@ 1003d8b0     mfcs140:nolib.obj
 0002:000068b8       ??_C@_15KNPADPLH@?$AAb?$AAg@ 1003d8b8     mfcs140:nolib.obj
 0002:000068c0       ??_C@_15EDMHLDMO@?$AAc?$AAa@ 1003d8c0     mfcs140:nolib.obj
 0002:000068c8       ??_C@_1O@BPEAJADD@?$AAz?$AAh?$AA?9?$AAC?$AAH?$AAS@ 1003d8c8     mfcs140:nolib.obj
 0002:000068d8       ??_C@_15LJNHCMNK@?$AAc?$AAs@ 1003d8d8     mfcs140:nolib.obj
 0002:000068e0       ??_C@_15FOMCIDHG@?$AAd?$AAa@ 1003d8e0     mfcs140:nolib.obj
 0002:000068e8       ??_C@_15NBKABECB@?$AAd?$AAe@ 1003d8e8     mfcs140:nolib.obj
 0002:000068f0       ??_C@_15GHPEIIAO@?$AAe?$AAl@ 1003d8f0     mfcs140:nolib.obj
 0002:000068f8       ??_C@_15MNPNEAIF@?$AAe?$AAn@ 1003d8f8     mfcs140:nolib.obj
 0002:00006900       ??_C@_15GPIOMPMH@?$AAe?$AAs@ 1003d900     mfcs140:nolib.obj
 0002:00006908       ??_C@_15NGLOAKJC@?$AAf?$AAi@ 1003d908     mfcs140:nolib.obj
 0002:00006910       ??_C@_15FBKGNKAM@?$AAf?$AAr@ 1003d910     mfcs140:nolib.obj
 0002:00006918       ??_C@_15KGGCNEFK@?$AAh?$AAe@ 1003d918     mfcs140:nolib.obj
 0002:00006920       ??_C@_15PGHLIDMF@?$AAh?$AAu@ 1003d920     mfcs140:nolib.obj
 0002:00006928       ??_C@_15BIEMAPLM@?$AAi?$AAs@ 1003d928     mfcs140:nolib.obj
 0002:00006930       ??_C@_15IFJLDHAF@?$AAi?$AAt@ 1003d930     mfcs140:nolib.obj
 0002:00006938       ??_C@_15GEMIOCAG@?$AAj?$AAa@ 1003d938     mfcs140:nolib.obj
 0002:00006940       ??_C@_15EPELEGJA@?$AAk?$AAo@ 1003d940     mfcs140:nolib.obj
 0002:00006948       ??_C@_15NDDHIMN@?$AAn?$AAl@ 1003d948     mfcs140:nolib.obj
 0002:00006950       ??_C@_15BPIGNHCD@?$AAn?$AAo@ 1003d950     mfcs140:nolib.obj
 0002:00006958       ??_C@_15DEOPBLCG@?$AAp?$AAl@ 1003d958     mfcs140:nolib.obj
 0002:00006960       ??_C@_15KBECGEFG@?$AAp?$AAt@ 1003d960     mfcs140:nolib.obj
 0002:00006968       ??_C@_15GLJCBFMD@?$AAr?$AAo@ 1003d968     mfcs140:nolib.obj
 0002:00006970       ??_C@_15FEDGKCDI@?$AAr?$AAu@ 1003d970     mfcs140:nolib.obj
 0002:00006978       ??_C@_15GLKMLLHM@?$AAh?$AAr@ 1003d978     mfcs140:nolib.obj
 0002:00006980       ??_C@_15CPKMFBDB@?$AAs?$AAk@ 1003d980     mfcs140:nolib.obj
 0002:00006988       ??_C@_15BAAIOGMK@?$AAs?$AAq@ 1003d988     mfcs140:nolib.obj
 0002:00006990       ??_C@_15INNPNOHD@?$AAs?$AAv@ 1003d990     mfcs140:nolib.obj
 0002:00006998       ??_C@_15CABMMOGH@?$AAt?$AAh@ 1003d998     mfcs140:nolib.obj
 0002:000069a0       ??_C@_15BPLIHJJM@?$AAt?$AAr@ 1003d9a0     mfcs140:nolib.obj
 0002:000069a8       ??_C@_15NEOEKKDJ@?$AAu?$AAr@ 1003d9a8     mfcs140:nolib.obj
 0002:000069b0       ??_C@_15NFICGAJK@?$AAi?$AAd@ 1003d9b0     mfcs140:nolib.obj
 0002:000069b8       ??_C@_15PJPFLCCM@?$AAu?$AAk@ 1003d9b8     mfcs140:nolib.obj
 0002:000069c0       ??_C@_15HPJPHDM@?$AAb?$AAe@ 1003d9c0     mfcs140:nolib.obj
 0002:000069c8       ??_C@_15LCHLGJII@?$AAs?$AAl@ 1003d9c8     mfcs140:nolib.obj
 0002:000069d0       ??_C@_15PCFJPHHO@?$AAe?$AAt@ 1003d9d0     mfcs140:nolib.obj
 0002:000069d8       ??_C@_15HPFPGODN@?$AAl?$AAv@ 1003d9d8     mfcs140:nolib.obj
 0002:000069e0       ??_C@_15NFFGKGLG@?$AAl?$AAt@ 1003d9e0     mfcs140:nolib.obj
 0002:000069e8       ??_C@_15BDAKCCHN@?$AAf?$AAa@ 1003d9e8     mfcs140:nolib.obj
 0002:000069f0       ??_C@_15NFGIAIAJ@?$AAv?$AAi@ 1003d9f0     mfcs140:nolib.obj
 0002:000069f8       ??_C@_15LMKNDMHN@?$AAh?$AAy@ 1003d9f8     mfcs140:nolib.obj
 0002:00006a00       ??_C@_15IJBHMCFL@?$AAa?$AAz@ 1003da00     mfcs140:nolib.obj
 0002:00006a08       ??_C@_15EKOFJABL@?$AAe?$AAu@ 1003da08     mfcs140:nolib.obj
 0002:00006a10       ??_C@_15BGHADCNK@?$AAm?$AAk@ 1003da10     mfcs140:nolib.obj
 0002:00006a18       ??_C@_15JDNICKHM@?$AAa?$AAf@ 1003da18     mfcs140:nolib.obj
 0002:00006a20       ??_C@_15KPJEDBKD@?$AAk?$AAa@ 1003da20     mfcs140:nolib.obj
 0002:00006a28       ??_C@_15PDNFFFEO@?$AAf?$AAo@ 1003da28     mfcs140:nolib.obj
 0002:00006a30       ??_C@_15OMLEGLOC@?$AAh?$AAi@ 1003da30     mfcs140:nolib.obj
 0002:00006a38       ??_C@_15IDNNENKK@?$AAm?$AAs@ 1003da38     mfcs140:nolib.obj
 0002:00006a40       ??_C@_15MACJNBMH@?$AAk?$AAk@ 1003da40     mfcs140:nolib.obj
 0002:00006a48       ??_C@_15DKDJEOND@?$AAk?$AAy@ 1003da48     mfcs140:nolib.obj
 0002:00006a50       ??_C@_15DFGDLJBG@?$AAs?$AAw@ 1003da50     mfcs140:nolib.obj
 0002:00006a58       ??_C@_15BBFAICNG@?$AAu?$AAz@ 1003da58     mfcs140:nolib.obj
 0002:00006a60       ??_C@_15DKNDCGEA@?$AAt?$AAt@ 1003da60     mfcs140:nolib.obj
 0002:00006a68       ??_C@_15MGIFMDPL@?$AAp?$AAa@ 1003da68     mfcs140:nolib.obj
 0002:00006a70       ??_C@_15HCNDBBA@?$AAg?$AAu@ 1003da70     mfcs140:nolib.obj
 0002:00006a78       ??_C@_15FNBEIBON@?$AAt?$AAa@ 1003da78     mfcs140:nolib.obj
 0002:00006a80       ??_C@_15NCHGBGLK@?$AAt?$AAe@ 1003da80     mfcs140:nolib.obj
 0002:00006a88       ??_C@_15PHPHCBPF@?$AAk?$AAn@ 1003da88     mfcs140:nolib.obj
 0002:00006a90       ??_C@_15DLGBCKMP@?$AAm?$AAr@ 1003da90     mfcs140:nolib.obj
 0002:00006a98       ??_C@_15EABBLBFF@?$AAs?$AAa@ 1003da98     mfcs140:nolib.obj
 0002:00006aa0       ??_C@_15CBKOMCOI@?$AAm?$AAn@ 1003daa0     mfcs140:nolib.obj
 0002:00006aa8       ??_C@_15CKDMCJAF@?$AAg?$AAl@ 1003daa8     mfcs140:nolib.obj
 0002:00006ab0       ??_C@_17CNJFBPG@?$AAk?$AAo?$AAk@ 1003dab0     mfcs140:nolib.obj
 0002:00006ab8       ??_C@_17FFBJICPL@?$AAs?$AAy?$AAr@ 1003dab8     mfcs140:nolib.obj
 0002:00006ac0       ??_C@_17KPNDCPAF@?$AAd?$AAi?$AAv@ 1003dac0     mfcs140:nolib.obj
 0002:00006ac8       ??_C@_11LOCGONAA@@         1003dac8     mfcs140:nolib.obj
 0002:00006acc       ??_C@_1M@OKAHONE@?$AAa?$AAr?$AA?9?$AAS?$AAA@ 1003dacc     mfcs140:nolib.obj
 0002:00006ad8       ??_C@_1M@FFFIGIGK@?$AAb?$AAg?$AA?9?$AAB?$AAG@ 1003dad8     mfcs140:nolib.obj
 0002:00006ae4       ??_C@_1M@BJNKEDC@?$AAc?$AAa?$AA?9?$AAE?$AAS@ 1003dae4     mfcs140:nolib.obj
 0002:00006af0       ??_C@_1M@CLNBBOPM@?$AAz?$AAh?$AA?9?$AAT?$AAW@ 1003daf0     mfcs140:nolib.obj
 0002:00006afc       ??_C@_1M@IJJHFJHA@?$AAc?$AAs?$AA?9?$AAC?$AAZ@ 1003dafc     mfcs140:nolib.obj
 0002:00006b08       ??_C@_1M@CLPEOBGI@?$AAd?$AAa?$AA?9?$AAD?$AAK@ 1003db08     mfcs140:nolib.obj
 0002:00006b14       ??_C@_1M@MCMADGCB@?$AAd?$AAe?$AA?9?$AAD?$AAE@ 1003db14     mfcs140:nolib.obj
 0002:00006b20       ??_C@_1M@OOCKEMAM@?$AAe?$AAl?$AA?9?$AAG?$AAR@ 1003db20     mfcs140:nolib.obj
 0002:00006b2c       ??_C@_1M@BMHNFIME@?$AAe?$AAn?$AA?9?$AAU?$AAS@ 1003db2c     mfcs140:nolib.obj
 0002:00006b38       ??_C@_1M@DDNJFGID@?$AAf?$AAi?$AA?9?$AAF?$AAI@ 1003db38     mfcs140:nolib.obj
 0002:00006b44       ??_C@_1M@GLIPPMAC@?$AAf?$AAr?$AA?9?$AAF?$AAR@ 1003db44     mfcs140:nolib.obj
 0002:00006b50       ??_C@_1M@GFMCHPE@?$AAh?$AAe?$AA?9?$AAI?$AAL@ 1003db50     mfcs140:nolib.obj
 0002:00006b5c       ??_C@_1M@MHLPGNKM@?$AAh?$AAu?$AA?9?$AAH?$AAU@ 1003db5c     mfcs140:nolib.obj
 0002:00006b68       ??_C@_1M@LPDDNNPN@?$AAi?$AAs?$AA?9?$AAI?$AAS@ 1003db68     mfcs140:nolib.obj
 0002:00006b74       ??_C@_1M@MADIPODN@?$AAi?$AAt?$AA?9?$AAI?$AAT@ 1003db74     mfcs140:nolib.obj
 0002:00006b80       ??_C@_1M@HPNHIDJI@?$AAj?$AAa?$AA?9?$AAJ?$AAP@ 1003db80     mfcs140:nolib.obj
 0002:00006b8c       ??_C@_1M@JLOOOEGK@?$AAk?$AAo?$AA?9?$AAK?$AAR@ 1003db8c     mfcs140:nolib.obj
 0002:00006b98       ??_C@_1M@IHBJJGG@?$AAn?$AAl?$AA?9?$AAN?$AAL@ 1003db98     mfcs140:nolib.obj
 0002:00006ba4       ??_C@_1M@EANAGDL@?$AAn?$AAb?$AA?9?$AAN?$AAO@ 1003dba4     mfcs140:nolib.obj
 0002:00006bb0       ??_C@_1M@NEIEMEGP@?$AAp?$AAl?$AA?9?$AAP?$AAL@ 1003dbb0     mfcs140:nolib.obj
 0002:00006bbc       ??_C@_1M@BOCFIGEP@?$AAp?$AAt?$AA?9?$AAB?$AAR@ 1003dbbc     mfcs140:nolib.obj
 0002:00006bc8       ??_C@_1M@IMPFOPBG@?$AAr?$AAo?$AA?9?$AAR?$AAO@ 1003dbc8     mfcs140:nolib.obj
 0002:00006bd4       ??_C@_1M@IDNNEJMM@?$AAr?$AAu?$AA?9?$AAR?$AAU@ 1003dbd4     mfcs140:nolib.obj
 0002:00006be0       ??_C@_1M@LILEEOGM@?$AAh?$AAr?$AA?9?$AAH?$AAR@ 1003dbe0     mfcs140:nolib.obj
 0002:00006bec       ??_C@_1M@FKIFEHPB@?$AAs?$AAk?$AA?9?$AAS?$AAK@ 1003dbec     mfcs140:nolib.obj
 0002:00006bf8       ??_C@_1M@LJMAMNPJ@?$AAs?$AAq?$AA?9?$AAA?$AAL@ 1003dbf8     mfcs140:nolib.obj
 0002:00006c04       ??_C@_1M@GIAKDKJK@?$AAs?$AAv?$AA?9?$AAS?$AAE@ 1003dc04     mfcs140:nolib.obj
 0002:00006c10       ??_C@_1M@MKJKIKCL@?$AAt?$AAh?$AA?9?$AAT?$AAH@ 1003dc10     mfcs140:nolib.obj
 0002:00006c1c       ??_C@_1M@MFLCCMPB@?$AAt?$AAr?$AA?9?$AAT?$AAR@ 1003dc1c     mfcs140:nolib.obj
 0002:00006c28       ??_C@_1M@OIJHDKJN@?$AAu?$AAr?$AA?9?$AAP?$AAK@ 1003dc28     mfcs140:nolib.obj
 0002:00006c34       ??_C@_1M@LHIPCIEK@?$AAi?$AAd?$AA?9?$AAI?$AAD@ 1003dc34     mfcs140:nolib.obj
 0002:00006c40       ??_C@_1M@MFMOBGI@?$AAu?$AAk?$AA?9?$AAU?$AAA@ 1003dc40     mfcs140:nolib.obj
 0002:00006c4c       ??_C@_1M@OBGLJIPL@?$AAb?$AAe?$AA?9?$AAB?$AAY@ 1003dc4c     mfcs140:nolib.obj
 0002:00006c58       ??_C@_1M@BCFAJEAD@?$AAs?$AAl?$AA?9?$AAS?$AAI@ 1003dc58     mfcs140:nolib.obj
 0002:00006c64       ??_C@_1M@FKFFEDDN@?$AAe?$AAt?$AA?9?$AAE?$AAE@ 1003dc64     mfcs140:nolib.obj
 0002:00006c70       ??_C@_1M@KGKKAACI@?$AAl?$AAv?$AA?9?$AAL?$AAV@ 1003dc70     mfcs140:nolib.obj
 0002:00006c7c       ??_C@_1M@IFGBIJO@?$AAl?$AAt?$AA?9?$AAL?$AAT@ 1003dc7c     mfcs140:nolib.obj
 0002:00006c88       ??_C@_1M@FGEAHEDM@?$AAf?$AAa?$AA?9?$AAI?$AAR@ 1003dc88     mfcs140:nolib.obj
 0002:00006c94       ??_C@_1M@KBMAIBFN@?$AAv?$AAi?$AA?9?$AAV?$AAN@ 1003dc94     mfcs140:nolib.obj
 0002:00006ca0       ??_C@_1M@GPCBKDJK@?$AAh?$AAy?$AA?9?$AAA?$AAM@ 1003dca0     mfcs140:nolib.obj
 0002:00006cac       ??_C@_1BG@BECMDDJB@?$AAa?$AAz?$AA?9?$AAA?$AAZ?$AA?9?$AAL?$AAa?$AAt?$AAn@ 1003dcac     mfcs140:nolib.obj
 0002:00006cc4       ??_C@_1M@MAOFCAEA@?$AAe?$AAu?$AA?9?$AAE?$AAS@ 1003dcc4     mfcs140:nolib.obj
 0002:00006cd0       ??_C@_1M@IGHABKPI@?$AAm?$AAk?$AA?9?$AAM?$AAK@ 1003dcd0     mfcs140:nolib.obj
 0002:00006cdc       ??_C@_1M@IAIGNEJG@?$AAt?$AAn?$AA?9?$AAZ?$AAA@ 1003dcdc     mfcs140:nolib.obj
 0002:00006ce8       ??_C@_1M@IIJCOJFA@?$AAx?$AAh?$AA?9?$AAZ?$AAA@ 1003dce8     mfcs140:nolib.obj
 0002:00006cf4       ??_C@_1M@LGPJHNJH@?$AAz?$AAu?$AA?9?$AAZ?$AAA@ 1003dcf4     mfcs140:nolib.obj
 0002:00006d00       ??_C@_1M@HOKAOIO@?$AAa?$AAf?$AA?9?$AAZ?$AAA@ 1003dd00     mfcs140:nolib.obj
 0002:00006d0c       ??_C@_1M@DPCLHLIE@?$AAk?$AAa?$AA?9?$AAG?$AAE@ 1003dd0c     mfcs140:nolib.obj
 0002:00006d18       ??_C@_1M@BLKMHJBI@?$AAf?$AAo?$AA?9?$AAF?$AAO@ 1003dd18     mfcs140:nolib.obj
 0002:00006d24       ??_C@_1M@LGGJAPPB@?$AAh?$AAi?$AA?9?$AAI?$AAN@ 1003dd24     mfcs140:nolib.obj
 0002:00006d30       ??_C@_1M@FIKPIHFE@?$AAm?$AAt?$AA?9?$AAM?$AAT@ 1003dd30     mfcs140:nolib.obj
 0002:00006d3c       ??_C@_1M@HEGGPBFA@?$AAs?$AAe?$AA?9?$AAN?$AAO@ 1003dd3c     mfcs140:nolib.obj
 0002:00006d48       ??_C@_1M@EIBJEEPA@?$AAm?$AAs?$AA?9?$AAM?$AAY@ 1003dd48     mfcs140:nolib.obj
 0002:00006d54       ??_C@_1M@FHLBGMPP@?$AAk?$AAk?$AA?9?$AAK?$AAZ@ 1003dd54     mfcs140:nolib.obj
 0002:00006d60       ??_C@_1M@NGJJLCGI@?$AAk?$AAy?$AA?9?$AAK?$AAG@ 1003dd60     mfcs140:nolib.obj
 0002:00006d6c       ??_C@_1M@GIENNBFC@?$AAs?$AAw?$AA?9?$AAK?$AAE@ 1003dd6c     mfcs140:nolib.obj
 0002:00006d78       ??_C@_1BG@NDGMJIMJ@?$AAu?$AAz?$AA?9?$AAU?$AAZ?$AA?9?$AAL?$AAa?$AAt?$AAn@ 1003dd78     mfcs140:nolib.obj
 0002:00006d90       ??_C@_1M@IDCCIHBC@?$AAt?$AAt?$AA?9?$AAR?$AAU@ 1003dd90     mfcs140:nolib.obj
 0002:00006d9c       ??_C@_1M@LOICPMOJ@?$AAb?$AAn?$AA?9?$AAI?$AAN@ 1003dd9c     mfcs140:nolib.obj
 0002:00006da8       ??_C@_1M@KPKKNEAH@?$AAp?$AAa?$AA?9?$AAI?$AAN@ 1003dda8     mfcs140:nolib.obj
 0002:00006db4       ??_C@_1M@PJGPPBOG@?$AAg?$AAu?$AA?9?$AAI?$AAN@ 1003ddb4     mfcs140:nolib.obj
 0002:00006dc0       ??_C@_1M@KMKMOPHI@?$AAt?$AAa?$AA?9?$AAI?$AAN@ 1003ddc0     mfcs140:nolib.obj
 0002:00006dcc       ??_C@_1M@KFEHEPAC@?$AAt?$AAe?$AA?9?$AAI?$AAN@ 1003ddcc     mfcs140:nolib.obj
 0002:00006dd8       ??_C@_1M@CDCLMGHI@?$AAk?$AAn?$AA?9?$AAI?$AAN@ 1003ddd8     mfcs140:nolib.obj
 0002:00006de4       ??_C@_1M@MIODLDKF@?$AAm?$AAl?$AA?9?$AAI?$AAN@ 1003dde4     mfcs140:nolib.obj
 0002:00006df0       ??_C@_1M@PBIEACPO@?$AAm?$AAr?$AA?9?$AAI?$AAN@ 1003ddf0     mfcs140:nolib.obj
 0002:00006dfc       ??_C@_1M@NIDEAGPH@?$AAs?$AAa?$AA?9?$AAI?$AAN@ 1003ddfc     mfcs140:nolib.obj
 0002:00006e08       ??_C@_1M@FHIHCBIO@?$AAm?$AAn?$AA?9?$AAM?$AAN@ 1003de08     mfcs140:nolib.obj
 0002:00006e14       ??_C@_1M@JAIJPENP@?$AAc?$AAy?$AA?9?$AAG?$AAB@ 1003de14     mfcs140:nolib.obj
 0002:00006e20       ??_C@_1M@PHGFBEPN@?$AAg?$AAl?$AA?9?$AAE?$AAS@ 1003de20     mfcs140:nolib.obj
 0002:00006e2c       ??_C@_1O@KPIPDNCP@?$AAk?$AAo?$AAk?$AA?9?$AAI?$AAN@ 1003de2c     mfcs140:nolib.obj
 0002:00006e3c       ??_C@_1O@KNHJLDJA@?$AAs?$AAy?$AAr?$AA?9?$AAS?$AAY@ 1003de3c     mfcs140:nolib.obj
 0002:00006e4c       ??_C@_1O@MKEKBLAH@?$AAd?$AAi?$AAv?$AA?9?$AAM?$AAV@ 1003de4c     mfcs140:nolib.obj
 0002:00006e5c       ??_C@_1O@OHDCKDDF@?$AAq?$AAu?$AAz?$AA?9?$AAB?$AAO@ 1003de5c     mfcs140:nolib.obj
 0002:00006e6c       ??_C@_1M@LEPJNLFD@?$AAn?$AAs?$AA?9?$AAZ?$AAA@ 1003de6c     mfcs140:nolib.obj
 0002:00006e78       ??_C@_1M@OMLEIIJB@?$AAm?$AAi?$AA?9?$AAN?$AAZ@ 1003de78     mfcs140:nolib.obj
 0002:00006e84       ??_C@_1M@PMPEAILG@?$AAa?$AAr?$AA?9?$AAI?$AAQ@ 1003de84     mfcs140:nolib.obj
 0002:00006e90       ??_C@_1M@BIBDDEMK@?$AAz?$AAh?$AA?9?$AAC?$AAN@ 1003de90     mfcs140:nolib.obj
 0002:00006e9c       ??_C@_1M@CNKPNOEE@?$AAd?$AAe?$AA?9?$AAC?$AAH@ 1003de9c     mfcs140:nolib.obj
 0002:00006ea8       ??_C@_1M@LKMGMLKO@?$AAe?$AAn?$AA?9?$AAG?$AAB@ 1003dea8     mfcs140:nolib.obj
 0002:00006eb4       ??_C@_1M@PGKJFFGL@?$AAe?$AAs?$AA?9?$AAM?$AAX@ 1003deb4     mfcs140:nolib.obj
 0002:00006ec0       ??_C@_1M@DNNANBDC@?$AAf?$AAr?$AA?9?$AAB?$AAE@ 1003dec0     mfcs140:nolib.obj
 0002:00006ecc       ??_C@_1M@HLGMDFHM@?$AAi?$AAt?$AA?9?$AAC?$AAH@ 1003decc     mfcs140:nolib.obj
 0002:00006ed8       ??_C@_1M@CLLBGJH@?$AAn?$AAl?$AA?9?$AAB?$AAE@ 1003ded8     mfcs140:nolib.obj
 0002:00006ee4       ??_C@_1M@BODBOGLF@?$AAn?$AAn?$AA?9?$AAN?$AAO@ 1003dee4     mfcs140:nolib.obj
 0002:00006ef0       ??_C@_1M@HFFAHKAD@?$AAp?$AAt?$AA?9?$AAP?$AAT@ 1003def0     mfcs140:nolib.obj
 0002:00006efc       ??_C@_1BG@LNOAKHIE@?$AAs?$AAr?$AA?9?$AAS?$AAP?$AA?9?$AAL?$AAa?$AAt?$AAn@ 1003defc     mfcs140:nolib.obj
 0002:00006f14       ??_C@_1M@HBMHBGAK@?$AAs?$AAv?$AA?9?$AAF?$AAI@ 1003df14     mfcs140:nolib.obj
 0002:00006f20       ??_C@_1BG@DGCJGJBE@?$AAa?$AAz?$AA?9?$AAA?$AAZ?$AA?9?$AAC?$AAy?$AAr?$AAl@ 1003df20     mfcs140:nolib.obj
 0002:00006f38       ??_C@_1M@KEJDAAHB@?$AAs?$AAe?$AA?9?$AAS?$AAE@ 1003df38     mfcs140:nolib.obj
 0002:00006f44       ??_C@_1M@HEIBJJAD@?$AAm?$AAs?$AA?9?$AAB?$AAN@ 1003df44     mfcs140:nolib.obj
 0002:00006f50       ??_C@_1BG@PBGJMCEM@?$AAu?$AAz?$AA?9?$AAU?$AAZ?$AA?9?$AAC?$AAy?$AAr?$AAl@ 1003df50     mfcs140:nolib.obj
 0002:00006f68       ??_C@_1O@LAOBCMDF@?$AAq?$AAu?$AAz?$AA?9?$AAE?$AAC@ 1003df68     mfcs140:nolib.obj
 0002:00006f78       ??_C@_1M@POEEMAIO@?$AAa?$AAr?$AA?9?$AAE?$AAG@ 1003df78     mfcs140:nolib.obj
 0002:00006f84       ??_C@_1M@EFAKDEDL@?$AAz?$AAh?$AA?9?$AAH?$AAK@ 1003df84     mfcs140:nolib.obj
 0002:00006f90       ??_C@_1M@HKKIJHGI@?$AAd?$AAe?$AA?9?$AAA?$AAT@ 1003df90     mfcs140:nolib.obj
 0002:00006f9c       ??_C@_1M@KBFBEHJF@?$AAe?$AAn?$AA?9?$AAA?$AAU@ 1003df9c     mfcs140:nolib.obj
 0002:00006fa8       ??_C@_1M@MNPLFAAH@?$AAe?$AAs?$AA?9?$AAE?$AAS@ 1003dfa8     mfcs140:nolib.obj
 0002:00006fb4       ??_C@_1M@HJOOJFMA@?$AAf?$AAr?$AA?9?$AAC?$AAA@ 1003dfb4     mfcs140:nolib.obj
 0002:00006fc0       ??_C@_1BG@JPOFPNAB@?$AAs?$AAr?$AA?9?$AAS?$AAP?$AA?9?$AAC?$AAy?$AAr?$AAl@ 1003dfc0     mfcs140:nolib.obj
 0002:00006fd8       ??_C@_1M@LNFOCMOB@?$AAs?$AAe?$AA?9?$AAF?$AAI@ 1003dfd8     mfcs140:nolib.obj
 0002:00006fe4       ??_C@_1O@MGJBOAMB@?$AAq?$AAu?$AAz?$AA?9?$AAP?$AAE@ 1003dfe4     mfcs140:nolib.obj
 0002:00006ff4       ??_C@_1M@GJINLBOK@?$AAa?$AAr?$AA?9?$AAL?$AAY@ 1003dff4     mfcs140:nolib.obj
 0002:00007000       ??_C@_1M@GGMNHJNL@?$AAz?$AAh?$AA?9?$AAS?$AAG@ 1003e000     mfcs140:nolib.obj
 0002:0000700c       ??_C@_1M@HOIKODND@?$AAd?$AAe?$AA?9?$AAL?$AAU@ 1003e00c     mfcs140:nolib.obj
 0002:00007018       ??_C@_1M@DDOCCGFG@?$AAe?$AAn?$AA?9?$AAC?$AAA@ 1003e018     mfcs140:nolib.obj
 0002:00007024       ??_C@_1M@BNOEMJLF@?$AAe?$AAs?$AA?9?$AAG?$AAT@ 1003e024     mfcs140:nolib.obj
 0002:00007030       ??_C@_1M@EOGNKEK@?$AAf?$AAr?$AA?9?$AAC?$AAH@ 1003e030     mfcs140:nolib.obj
 0002:0000703c       ??_C@_1M@FLIDJFHL@?$AAh?$AAr?$AA?9?$AAB?$AAA@ 1003e03c     mfcs140:nolib.obj
 0002:00007048       ??_C@_1O@FMCELNAJ@?$AAs?$AAm?$AAj?$AA?9?$AAN?$AAO@ 1003e048     mfcs140:nolib.obj
 0002:00007058       ??_C@_1M@JHGLJMGJ@?$AAa?$AAr?$AA?9?$AAD?$AAZ@ 1003e058     mfcs140:nolib.obj
 0002:00007064       ??_C@_1M@JKKFDCNP@?$AAz?$AAh?$AA?9?$AAM?$AAO@ 1003e064     mfcs140:nolib.obj
 0002:00007070       ??_C@_1M@GEEFALPE@?$AAd?$AAe?$AA?9?$AAL?$AAI@ 1003e070     mfcs140:nolib.obj
 0002:0000707c       ??_C@_1M@IGEOFBG@?$AAe?$AAn?$AA?9?$AAN?$AAZ@ 1003e07c     mfcs140:nolib.obj
 0002:00007088       ??_C@_1M@KDBONEHP@?$AAe?$AAs?$AA?9?$AAC?$AAR@ 1003e088     mfcs140:nolib.obj
 0002:00007094       ??_C@_1M@FHMDOHNN@?$AAf?$AAr?$AA?9?$AAL?$AAU@ 1003e094     mfcs140:nolib.obj
 0002:000070a0       ??_C@_1BG@NFKKMAFG@?$AAb?$AAs?$AA?9?$AAB?$AAA?$AA?9?$AAL?$AAa?$AAt?$AAn@ 1003e0a0     mfcs140:nolib.obj
 0002:000070b8       ??_C@_1O@IMNBEMCI@?$AAs?$AAm?$AAj?$AA?9?$AAS?$AAE@ 1003e0b8     mfcs140:nolib.obj
 0002:000070c8       ??_C@_1M@DHHMBNDP@?$AAa?$AAr?$AA?9?$AAM?$AAA@ 1003e0c8     mfcs140:nolib.obj
 0002:000070d4       ??_C@_1M@BNBLJCGH@?$AAe?$AAn?$AA?9?$AAI?$AAE@ 1003e0d4     mfcs140:nolib.obj
 0002:000070e0       ??_C@_1M@GEPAFMDL@?$AAe?$AAs?$AA?9?$AAP?$AAA@ 1003e0e0     mfcs140:nolib.obj
 0002:000070ec       ??_C@_1M@OJONDMDL@?$AAf?$AAr?$AA?9?$AAM?$AAC@ 1003e0ec     mfcs140:nolib.obj
 0002:000070f8       ??_C@_1BG@OBCNFJB@?$AAs?$AAr?$AA?9?$AAB?$AAA?$AA?9?$AAL?$AAa?$AAt?$AAn@ 1003e0f8     mfcs140:nolib.obj
 0002:00007110       ??_C@_1O@KEMEEGPO@?$AAs?$AAm?$AAa?$AA?9?$AAN?$AAO@ 1003e110     mfcs140:nolib.obj
 0002:00007120       ??_C@_1M@ELMGFODK@?$AAa?$AAr?$AA?9?$AAT?$AAN@ 1003e120     mfcs140:nolib.obj
 0002:0000712c       ??_C@_1M@BHDLHFAF@?$AAe?$AAn?$AA?9?$AAZ?$AAA@ 1003e12c     mfcs140:nolib.obj
 0002:00007138       ??_C@_1M@BMGIGLIF@?$AAe?$AAs?$AA?9?$AAD?$AAO@ 1003e138     mfcs140:nolib.obj
 0002:00007144       ??_C@_1BG@CMBHIPBE@?$AAs?$AAr?$AA?9?$AAB?$AAA?$AA?9?$AAC?$AAy?$AAr?$AAl@ 1003e144     mfcs140:nolib.obj
 0002:0000715c       ??_C@_1O@HEDBLHNP@?$AAs?$AAm?$AAa?$AA?9?$AAS?$AAE@ 1003e15c     mfcs140:nolib.obj
 0002:0000716c       ??_C@_1M@DAGCADIM@?$AAa?$AAr?$AA?9?$AAO?$AAM@ 1003e16c     mfcs140:nolib.obj
 0002:00007178       ??_C@_1M@FODLMICG@?$AAe?$AAn?$AA?9?$AAJ?$AAM@ 1003e178     mfcs140:nolib.obj
 0002:00007184       ??_C@_1M@DNMLCIHB@?$AAe?$AAs?$AA?9?$AAV?$AAE@ 1003e184     mfcs140:nolib.obj
 0002:00007190       ??_C@_1O@EOKHMKJK@?$AAs?$AAm?$AAs?$AA?9?$AAF?$AAI@ 1003e190     mfcs140:nolib.obj
 0002:000071a0       ??_C@_1M@CAFJMKOF@?$AAa?$AAr?$AA?9?$AAY?$AAE@ 1003e1a0     mfcs140:nolib.obj
 0002:000071ac       ??_C@_1M@CBFHIJLI@?$AAe?$AAn?$AA?9?$AAC?$AAB@ 1003e1ac     mfcs140:nolib.obj
 0002:000071b8       ??_C@_1M@BGNFLDN@?$AAe?$AAs?$AA?9?$AAC?$AAO@ 1003e1b8     mfcs140:nolib.obj
 0002:000071c4       ??_C@_1O@JMPHMAMC@?$AAs?$AAm?$AAn?$AA?9?$AAF?$AAI@ 1003e1c4     mfcs140:nolib.obj
 0002:000071d4       ??_C@_1M@JLANABKE@?$AAa?$AAr?$AA?9?$AAS?$AAY@ 1003e1d4     mfcs140:nolib.obj
 0002:000071e0       ??_C@_1M@HPKGCFGN@?$AAe?$AAn?$AA?9?$AAB?$AAZ@ 1003e1e0     mfcs140:nolib.obj
 0002:000071ec       ??_C@_1M@OLJCMLGM@?$AAe?$AAs?$AA?9?$AAP?$AAE@ 1003e1ec     mfcs140:nolib.obj
 0002:000071f8       ??_C@_1M@MKKGFKLE@?$AAa?$AAr?$AA?9?$AAJ?$AAO@ 1003e1f8     mfcs140:nolib.obj
 0002:00007204       ??_C@_1M@EKPGLDNI@?$AAe?$AAn?$AA?9?$AAT?$AAT@ 1003e204     mfcs140:nolib.obj
 0002:00007210       ??_C@_1M@OONGHFHE@?$AAe?$AAs?$AA?9?$AAA?$AAR@ 1003e210     mfcs140:nolib.obj
 0002:0000721c       ??_C@_1M@OOJFGBHE@?$AAa?$AAr?$AA?9?$AAL?$AAB@ 1003e21c     mfcs140:nolib.obj
 0002:00007228       ??_C@_1M@GCEJHNEG@?$AAe?$AAn?$AA?9?$AAZ?$AAW@ 1003e228     mfcs140:nolib.obj
 0002:00007234       ??_C@_1M@JNOCAHJI@?$AAe?$AAs?$AA?9?$AAE?$AAC@ 1003e234     mfcs140:nolib.obj
 0002:00007240       ??_C@_1M@JEFHPGGB@?$AAa?$AAr?$AA?9?$AAK?$AAW@ 1003e240     mfcs140:nolib.obj
 0002:0000724c       ??_C@_1M@MLKIBJOJ@?$AAe?$AAn?$AA?9?$AAP?$AAH@ 1003e24c     mfcs140:nolib.obj
 0002:00007258       ??_C@_1M@BDNIPEND@?$AAe?$AAs?$AA?9?$AAC?$AAL@ 1003e258     mfcs140:nolib.obj
 0002:00007264       ??_C@_1M@MPNMEKBD@?$AAa?$AAr?$AA?9?$AAA?$AAE@ 1003e264     mfcs140:nolib.obj
 0002:00007270       ??_C@_1M@KBJALCPI@?$AAe?$AAs?$AA?9?$AAU?$AAY@ 1003e270     mfcs140:nolib.obj
 0002:0000727c       ??_C@_1M@LLCCOAGA@?$AAa?$AAr?$AA?9?$AAB?$AAH@ 1003e27c     mfcs140:nolib.obj
 0002:00007288       ??_C@_1M@PBFNCDEL@?$AAe?$AAs?$AA?9?$AAP?$AAY@ 1003e288     mfcs140:nolib.obj
 0002:00007294       ??_C@_1M@EDGINPNP@?$AAa?$AAr?$AA?9?$AAQ?$AAA@ 1003e294     mfcs140:nolib.obj
 0002:000072a0       ??_C@_1M@MKDBIIJI@?$AAe?$AAs?$AA?9?$AAB?$AAO@ 1003e2a0     mfcs140:nolib.obj
 0002:000072ac       ??_C@_1M@CPKKEBLD@?$AAe?$AAs?$AA?9?$AAS?$AAV@ 1003e2ac     mfcs140:nolib.obj
 0002:000072b8       ??_C@_1M@NDBGMMJL@?$AAe?$AAs?$AA?9?$AAH?$AAN@ 1003e2b8     mfcs140:nolib.obj
 0002:000072c4       ??_C@_1M@JIJIBHDP@?$AAe?$AAs?$AA?9?$AAN?$AAI@ 1003e2c4     mfcs140:nolib.obj
 0002:000072d0       ??_C@_1M@CGFMKEEK@?$AAe?$AAs?$AA?9?$AAP?$AAR@ 1003e2d0     mfcs140:nolib.obj
 0002:000072dc       ??_C@_1O@ICJHKIIK@?$AAz?$AAh?$AA?9?$AAC?$AAH?$AAT@ 1003e2dc     mfcs140:nolib.obj
 0002:000072ec       ??_C@_15CLNEJCE@?$AAs?$AAr@ 1003e2ec     mfcs140:nolib.obj
 0002:000072f8       __pAtlLocaleNameToIndexTable 1003e2f8     mfcs140:nolib.obj
 0002:00007a18       ??_C@_1M@KAHEKEIG@?$AAa?$AAf?$AA?9?$AAz?$AAa@ 1003ea18     mfcs140:nolib.obj
 0002:00007a24       ??_C@_1M@GIECOABL@?$AAa?$AAr?$AA?9?$AAa?$AAe@ 1003ea24     mfcs140:nolib.obj
 0002:00007a30       ??_C@_1M@BMLMEKGI@?$AAa?$AAr?$AA?9?$AAb?$AAh@ 1003ea30     mfcs140:nolib.obj
 0002:00007a3c       ??_C@_1M@DAPFDGGB@?$AAa?$AAr?$AA?9?$AAd?$AAz@ 1003ea3c     mfcs140:nolib.obj
 0002:00007a48       ??_C@_1M@FJNKGKIG@?$AAa?$AAr?$AA?9?$AAe?$AAg@ 1003ea48     mfcs140:nolib.obj
 0002:00007a54       ??_C@_1M@FLGKKCLO@?$AAa?$AAr?$AA?9?$AAi?$AAq@ 1003ea54     mfcs140:nolib.obj
 0002:00007a60       ??_C@_1M@GNDIPALM@?$AAa?$AAr?$AA?9?$AAj?$AAo@ 1003ea60     mfcs140:nolib.obj
 0002:00007a6c       ??_C@_1M@DDMJFMGJ@?$AAa?$AAr?$AA?9?$AAk?$AAw@ 1003ea6c     mfcs140:nolib.obj
 0002:00007a78       ??_C@_1M@EJALMLHM@?$AAa?$AAr?$AA?9?$AAl?$AAb@ 1003ea78     mfcs140:nolib.obj
 0002:00007a84       ??_C@_1M@MOBDBLOC@?$AAa?$AAr?$AA?9?$AAl?$AAy@ 1003ea84     mfcs140:nolib.obj
 0002:00007a90       ??_C@_1M@JAOCLHDH@?$AAa?$AAr?$AA?9?$AAm?$AAa@ 1003ea90     mfcs140:nolib.obj
 0002:00007a9c       ??_C@_1M@JHPMKJIE@?$AAa?$AAr?$AA?9?$AAo?$AAm@ 1003ea9c     mfcs140:nolib.obj
 0002:00007aa8       ??_C@_1M@OEPGHFNH@?$AAa?$AAr?$AA?9?$AAq?$AAa@ 1003eaa8     mfcs140:nolib.obj
 0002:00007ab4       ??_C@_1M@KJDONENM@?$AAa?$AAr?$AA?9?$AAs?$AAa@ 1003eab4     mfcs140:nolib.obj
 0002:00007ac0       ??_C@_1M@DMJDKLKM@?$AAa?$AAr?$AA?9?$AAs?$AAy@ 1003eac0     mfcs140:nolib.obj
 0002:00007acc       ??_C@_1M@OMFIPEDC@?$AAa?$AAr?$AA?9?$AAt?$AAn@ 1003eacc     mfcs140:nolib.obj
 0002:00007ad8       ??_C@_1M@IHMHGAON@?$AAa?$AAr?$AA?9?$AAy?$AAe@ 1003ead8     mfcs140:nolib.obj
 0002:00007ae4       ??_C@_1BG@KDCPGJGB@?$AAa?$AAz?$AA?9?$AAa?$AAz?$AA?9?$AAc?$AAy?$AAr?$AAl@ 1003eae4     mfcs140:nolib.obj
 0002:00007afc       ??_C@_1BG@IBCKDDOE@?$AAa?$AAz?$AA?9?$AAa?$AAz?$AA?9?$AAl?$AAa?$AAt?$AAn@ 1003eafc     mfcs140:nolib.obj
 0002:00007b14       ??_C@_1M@EGPFDCPD@?$AAb?$AAe?$AA?9?$AAb?$AAy@ 1003eb14     mfcs140:nolib.obj
 0002:00007b20       ??_C@_1M@PCMGMCGC@?$AAb?$AAg?$AA?9?$AAb?$AAg@ 1003eb20     mfcs140:nolib.obj
 0002:00007b2c       ??_C@_1M@BJBMFGOB@?$AAb?$AAn?$AA?9?$AAi?$AAn@ 1003eb2c     mfcs140:nolib.obj
 0002:00007b38       ??_C@_1BG@EAKMMACD@?$AAb?$AAs?$AA?9?$AAb?$AAa?$AA?9?$AAl?$AAa?$AAt?$AAn@ 1003eb38     mfcs140:nolib.obj
 0002:00007b50       ??_C@_1M@KGADAODK@?$AAc?$AAa?$AA?9?$AAe?$AAs@ 1003eb50     mfcs140:nolib.obj
 0002:00007b5c       ??_C@_1M@COAJPDHI@?$AAc?$AAs?$AA?9?$AAc?$AAz@ 1003eb5c     mfcs140:nolib.obj
 0002:00007b68       ??_C@_1M@DHBHFONH@?$AAc?$AAy?$AA?9?$AAg?$AAb@ 1003eb68     mfcs140:nolib.obj
 0002:00007b74       ??_C@_1M@IMGKELGA@?$AAd?$AAa?$AA?9?$AAd?$AAk@ 1003eb74     mfcs140:nolib.obj
 0002:00007b80       ??_C@_1M@NNDGDNGA@?$AAd?$AAe?$AA?9?$AAa?$AAt@ 1003eb80     mfcs140:nolib.obj
 0002:00007b8c       ??_C@_1M@IKDBHEEM@?$AAd?$AAe?$AA?9?$AAc?$AAh@ 1003eb8c     mfcs140:nolib.obj
 0002:00007b98       ??_C@_1M@GFFOJMCJ@?$AAd?$AAe?$AA?9?$AAd?$AAe@ 1003eb98     mfcs140:nolib.obj
 0002:00007ba4       ??_C@_1M@MDNLKBPM@?$AAd?$AAe?$AA?9?$AAl?$AAi@ 1003eba4     mfcs140:nolib.obj
 0002:00007bb0       ??_C@_1M@NJBEEJNL@?$AAd?$AAe?$AA?9?$AAl?$AAu@ 1003ebb0     mfcs140:nolib.obj
 0002:00007bbc       ??_C@_1O@GNNELBAP@?$AAd?$AAi?$AAv?$AA?9?$AAm?$AAv@ 1003ebbc     mfcs140:nolib.obj
 0002:00007bcc       ??_C@_1M@EJLEOGAE@?$AAe?$AAl?$AA?9?$AAg?$AAr@ 1003ebcc     mfcs140:nolib.obj
 0002:00007bd8       ??_C@_1M@GMPONJN@?$AAe?$AAn?$AA?9?$AAa?$AAu@ 1003ebd8     mfcs140:nolib.obj
 0002:00007be4       ??_C@_1M@NIDIIPGF@?$AAe?$AAn?$AA?9?$AAb?$AAz@ 1003ebe4     mfcs140:nolib.obj
 0002:00007bf0       ??_C@_1M@JEHMIMFO@?$AAe?$AAn?$AA?9?$AAc?$AAa@ 1003ebf0     mfcs140:nolib.obj
 0002:00007bfc       ??_C@_1M@IGMJCDLA@?$AAe?$AAn?$AA?9?$AAc?$AAb@ 1003ebfc     mfcs140:nolib.obj
 0002:00007c08       ??_C@_1M@BNFIGBKG@?$AAe?$AAn?$AA?9?$AAg?$AAb@ 1003ec08     mfcs140:nolib.obj
 0002:00007c14       ??_C@_1M@LKIFDIGP@?$AAe?$AAn?$AA?9?$AAi?$AAe@ 1003ec14     mfcs140:nolib.obj
 0002:00007c20       ??_C@_1M@PJKFGCCO@?$AAe?$AAn?$AA?9?$AAj?$AAm@ 1003ec20     mfcs140:nolib.obj
 0002:00007c2c       ??_C@_1M@KPPKEPBO@?$AAe?$AAn?$AA?9?$AAn?$AAz@ 1003ec2c     mfcs140:nolib.obj
 0002:00007c38       ??_C@_1M@GMDGLDOB@?$AAe?$AAn?$AA?9?$AAp?$AAh@ 1003ec38     mfcs140:nolib.obj
 0002:00007c44       ??_C@_1M@ONGIBJNA@?$AAe?$AAn?$AA?9?$AAt?$AAt@ 1003ec44     mfcs140:nolib.obj
 0002:00007c50       ??_C@_1M@LLODPCMM@?$AAe?$AAn?$AA?9?$AAu?$AAs@ 1003ec50     mfcs140:nolib.obj
 0002:00007c5c       ??_C@_1M@LAKFNPAN@?$AAe?$AAn?$AA?9?$AAz?$AAa@ 1003ec5c     mfcs140:nolib.obj
 0002:00007c68       ??_C@_1M@MFNHNHEO@?$AAe?$AAn?$AA?9?$AAz?$AAw@ 1003ec68     mfcs140:nolib.obj
 0002:00007c74       ??_C@_1M@EJEINPHM@?$AAe?$AAs?$AA?9?$AAa?$AAr@ 1003ec74     mfcs140:nolib.obj
 0002:00007c80       ??_C@_1M@GNKPCCJA@?$AAe?$AAs?$AA?9?$AAb?$AAo@ 1003ec80     mfcs140:nolib.obj
 0002:00007c8c       ??_C@_1M@LEEGFONL@?$AAe?$AAs?$AA?9?$AAc?$AAl@ 1003ec8c     mfcs140:nolib.obj
 0002:00007c98       ??_C@_1M@KGPDPBDF@?$AAe?$AAs?$AA?9?$AAc?$AAo@ 1003ec98     mfcs140:nolib.obj
 0002:00007ca4       ??_C@_1M@EIAHOHH@?$AAe?$AAs?$AA?9?$AAc?$AAr@ 1003eca4     mfcs140:nolib.obj
 0002:00007cb0       ??_C@_1M@LLPGMBIN@?$AAe?$AAs?$AA?9?$AAd?$AAo@ 1003ecb0     mfcs140:nolib.obj
 0002:00007cbc       ??_C@_1M@DKHMKNJA@?$AAe?$AAs?$AA?9?$AAe?$AAc@ 1003ecbc     mfcs140:nolib.obj
 0002:00007cc8       ??_C@_1M@GKGFPKAP@?$AAe?$AAs?$AA?9?$AAe?$AAs@ 1003ecc8     mfcs140:nolib.obj
 0002:00007cd4       ??_C@_1M@LKHKGDLN@?$AAe?$AAs?$AA?9?$AAg?$AAt@ 1003ecd4     mfcs140:nolib.obj
 0002:00007ce0       ??_C@_1M@HEIIGGJD@?$AAe?$AAs?$AA?9?$AAh?$AAn@ 1003ece0     mfcs140:nolib.obj
 0002:00007cec       ??_C@_1M@FBDHPPGD@?$AAe?$AAs?$AA?9?$AAm?$AAx@ 1003ecec     mfcs140:nolib.obj
 0002:00007cf8       ??_C@_1M@DPAGLNDH@?$AAe?$AAs?$AA?9?$AAn?$AAi@ 1003ecf8     mfcs140:nolib.obj
 0002:00007d04       ??_C@_1M@MDGOPGDD@?$AAe?$AAs?$AA?9?$AAp?$AAa@ 1003ed04     mfcs140:nolib.obj
 0002:00007d10       ??_C@_1M@EMAMGBGE@?$AAe?$AAs?$AA?9?$AAp?$AAe@ 1003ed10     mfcs140:nolib.obj
 0002:00007d1c       ??_C@_1M@IBMCAOEC@?$AAe?$AAs?$AA?9?$AAp?$AAr@ 1003ed1c     mfcs140:nolib.obj
 0002:00007d28       ??_C@_1M@FGMDIJED@?$AAe?$AAs?$AA?9?$AAp?$AAy@ 1003ed28     mfcs140:nolib.obj
 0002:00007d34       ??_C@_1M@IIDEOLLL@?$AAe?$AAs?$AA?9?$AAs?$AAv@ 1003ed34     mfcs140:nolib.obj
 0002:00007d40       ??_C@_1M@GAOBIPA@?$AAe?$AAs?$AA?9?$AAu?$AAy@ 1003ed40     mfcs140:nolib.obj
 0002:00007d4c       ??_C@_1M@JKFFICHJ@?$AAe?$AAs?$AA?9?$AAv?$AAe@ 1003ed4c     mfcs140:nolib.obj
 0002:00007d58       ??_C@_1M@PNMLOJDF@?$AAe?$AAt?$AA?9?$AAe?$AAe@ 1003ed58     mfcs140:nolib.obj
 0002:00007d64       ??_C@_1M@GHHLIKEI@?$AAe?$AAu?$AA?9?$AAe?$AAs@ 1003ed64     mfcs140:nolib.obj
 0002:00007d70       ??_C@_1M@PBNONODE@?$AAf?$AAa?$AA?9?$AAi?$AAr@ 1003ed70     mfcs140:nolib.obj
 0002:00007d7c       ??_C@_1M@JEEHPMIL@?$AAf?$AAi?$AA?9?$AAf?$AAi@ 1003ed7c     mfcs140:nolib.obj
 0002:00007d88       ??_C@_1M@LMDCNDBA@?$AAf?$AAo?$AA?9?$AAf?$AAo@ 1003ed88     mfcs140:nolib.obj
 0002:00007d94       ??_C@_1M@JKEOHLDK@?$AAf?$AAr?$AA?9?$AAb?$AAe@ 1003ed94     mfcs140:nolib.obj
 0002:00007da0       ??_C@_1M@NOHADPMI@?$AAf?$AAr?$AA?9?$AAc?$AAa@ 1003eda0     mfcs140:nolib.obj
 0002:00007dac       ??_C@_1M@KDHIHAEC@?$AAf?$AAr?$AA?9?$AAc?$AAh@ 1003edac     mfcs140:nolib.obj
 0002:00007db8       ??_C@_1M@MMBBFGAK@?$AAf?$AAr?$AA?9?$AAf?$AAr@ 1003edb8     mfcs140:nolib.obj
 0002:00007dc4       ??_C@_1M@PAFNENNF@?$AAf?$AAr?$AA?9?$AAl?$AAu@ 1003edc4     mfcs140:nolib.obj
 0002:00007dd0       ??_C@_1M@EOHDJGDD@?$AAf?$AAr?$AA?9?$AAm?$AAc@ 1003edd0     mfcs140:nolib.obj
 0002:00007ddc       ??_C@_1M@FAPLLOPF@?$AAg?$AAl?$AA?9?$AAe?$AAs@ 1003eddc     mfcs140:nolib.obj
 0002:00007de8       ??_C@_1M@FOPBFLOO@?$AAg?$AAu?$AA?9?$AAi?$AAn@ 1003ede8     mfcs140:nolib.obj
 0002:00007df4       ??_C@_1M@KBMCINPM@?$AAh?$AAe?$AA?9?$AAi?$AAl@ 1003edf4     mfcs140:nolib.obj
 0002:00007e00       ??_C@_1M@BBPHKFPJ@?$AAh?$AAi?$AA?9?$AAi?$AAn@ 1003ee00     mfcs140:nolib.obj
 0002:00007e0c       ??_C@_1M@PMBNDPHD@?$AAh?$AAr?$AA?9?$AAb?$AAa@ 1003ee0c     mfcs140:nolib.obj
 0002:00007e18       ??_C@_1M@BPCKOEGE@?$AAh?$AAr?$AA?9?$AAh?$AAr@ 1003ee18     mfcs140:nolib.obj
 0002:00007e24       ??_C@_1M@GACBMHKE@?$AAh?$AAu?$AA?9?$AAh?$AAu@ 1003ee24     mfcs140:nolib.obj
 0002:00007e30       ??_C@_1M@MILPAJJC@?$AAh?$AAy?$AA?9?$AAa?$AAm@ 1003ee30     mfcs140:nolib.obj
 0002:00007e3c       ??_C@_1M@BABBICEC@?$AAi?$AAd?$AA?9?$AAi?$AAd@ 1003ee3c     mfcs140:nolib.obj
 0002:00007e48       ??_C@_1M@BIKNHHPF@?$AAi?$AAs?$AA?9?$AAi?$AAs@ 1003ee48     mfcs140:nolib.obj
 0002:00007e54       ??_C@_1M@NMPCJPHE@?$AAi?$AAt?$AA?9?$AAc?$AAh@ 1003ee54     mfcs140:nolib.obj
 0002:00007e60       ??_C@_1M@GHKGFEDF@?$AAi?$AAt?$AA?9?$AAi?$AAt@ 1003ee60     mfcs140:nolib.obj
 0002:00007e6c       ??_C@_1M@NIEJCJJA@?$AAj?$AAa?$AA?9?$AAj?$AAp@ 1003ee6c     mfcs140:nolib.obj
 0002:00007e78       ??_C@_1M@JILFNBIM@?$AAk?$AAa?$AA?9?$AAg?$AAe@ 1003ee78     mfcs140:nolib.obj
 0002:00007e84       ??_C@_1M@PACPMGPH@?$AAk?$AAk?$AA?9?$AAk?$AAz@ 1003ee84     mfcs140:nolib.obj
 0002:00007e90       ??_C@_1M@IELFGMHA@?$AAk?$AAn?$AA?9?$AAi?$AAn@ 1003ee90     mfcs140:nolib.obj
 0002:00007e9c       ??_C@_1O@IBBJHCH@?$AAk?$AAo?$AAk?$AA?9?$AAi?$AAn@ 1003ee9c     mfcs140:nolib.obj
 0002:00007eac       ??_C@_1M@DMHAEOGC@?$AAk?$AAo?$AA?9?$AAk?$AAr@ 1003eeac     mfcs140:nolib.obj
 0002:00007eb8       ??_C@_1M@HBAHBIGA@?$AAk?$AAy?$AA?9?$AAk?$AAg@ 1003eeb8     mfcs140:nolib.obj
 0002:00007ec4       ??_C@_1M@KPMILCJG@?$AAl?$AAt?$AA?9?$AAl?$AAt@ 1003eec4     mfcs140:nolib.obj
 0002:00007ed0       ??_C@_1M@BDEKKCA@?$AAl?$AAv?$AA?9?$AAl?$AAv@ 1003eed0     mfcs140:nolib.obj
 0002:00007edc       ??_C@_1M@ELCKCCJJ@?$AAm?$AAi?$AA?9?$AAn?$AAz@ 1003eedc     mfcs140:nolib.obj
 0002:00007ee8       ??_C@_1M@CBOOLAPA@?$AAm?$AAk?$AA?9?$AAm?$AAk@ 1003eee8     mfcs140:nolib.obj
 0002:00007ef4       ??_C@_1M@GPHNBJKN@?$AAm?$AAl?$AA?9?$AAi?$AAn@ 1003eef4     mfcs140:nolib.obj
 0002:00007f00       ??_C@_1M@PABJILIG@?$AAm?$AAn?$AA?9?$AAm?$AAn@ 1003ef00     mfcs140:nolib.obj
 0002:00007f0c       ??_C@_1M@FGBKKIPG@?$AAm?$AAr?$AA?9?$AAi?$AAn@ 1003ef0c     mfcs140:nolib.obj
 0002:00007f18       ??_C@_1M@NDBPDDAL@?$AAm?$AAs?$AA?9?$AAb?$AAn@ 1003ef18     mfcs140:nolib.obj
 0002:00007f24       ??_C@_1M@OPIHOOPI@?$AAm?$AAs?$AA?9?$AAm?$AAy@ 1003ef24     mfcs140:nolib.obj
 0002:00007f30       ??_C@_1M@PPDBCNFM@?$AAm?$AAt?$AA?9?$AAm?$AAt@ 1003ef30     mfcs140:nolib.obj
 0002:00007f3c       ??_C@_1M@KDJDKMDD@?$AAn?$AAb?$AA?9?$AAn?$AAo@ 1003ef3c     mfcs140:nolib.obj
 0002:00007f48       ??_C@_1M@KFCFLMJP@?$AAn?$AAl?$AA?9?$AAb?$AAe@ 1003ef48     mfcs140:nolib.obj
 0002:00007f54       ??_C@_1M@KPOPDDGO@?$AAn?$AAl?$AA?9?$AAn?$AAl@ 1003ef54     mfcs140:nolib.obj
 0002:00007f60       ??_C@_1M@LJKPEMLN@?$AAn?$AAn?$AA?9?$AAn?$AAo@ 1003ef60     mfcs140:nolib.obj
 0002:00007f6c       ??_C@_1M@BDGHHBFL@?$AAn?$AAs?$AA?9?$AAz?$AAa@ 1003ef6c     mfcs140:nolib.obj
 0002:00007f78       ??_C@_1M@IDEHOAP@?$AAp?$AAa?$AA?9?$AAi?$AAn@ 1003ef78     mfcs140:nolib.obj
 0002:00007f84       ??_C@_1M@HDBKGOGH@?$AAp?$AAl?$AA?9?$AAp?$AAl@ 1003ef84     mfcs140:nolib.obj
 0002:00007f90       ??_C@_1M@LJLLCMEH@?$AAp?$AAt?$AA?9?$AAb?$AAr@ 1003ef90     mfcs140:nolib.obj
 0002:00007f9c       ??_C@_1M@NCMONAAL@?$AAp?$AAt?$AA?9?$AAp?$AAt@ 1003ef9c     mfcs140:nolib.obj
 0002:00007fa8       ??_C@_1O@EAKMAJDN@?$AAq?$AAu?$AAz?$AA?9?$AAb?$AAo@ 1003efa8     mfcs140:nolib.obj
 0002:00007fb8       ??_C@_1O@BHHPIGDN@?$AAq?$AAu?$AAz?$AA?9?$AAe?$AAc@ 1003efb8     mfcs140:nolib.obj
 0002:00007fc8       ??_C@_1O@GBAPEKMJ@?$AAq?$AAu?$AAz?$AA?9?$AAp?$AAe@ 1003efc8     mfcs140:nolib.obj
 0002:00007fd8       ??_C@_1M@CLGLEFBO@?$AAr?$AAo?$AA?9?$AAr?$AAo@ 1003efd8     mfcs140:nolib.obj
 0002:00007fe4       ??_C@_1M@CEEDODME@?$AAr?$AAu?$AA?9?$AAr?$AAu@ 1003efe4     mfcs140:nolib.obj
 0002:00007ff0       ??_C@_1M@HPKKKMPP@?$AAs?$AAa?$AA?9?$AAi?$AAn@ 1003eff0     mfcs140:nolib.obj
 0002:00007ffc       ??_C@_1M@BKMAIGOJ@?$AAs?$AAe?$AA?9?$AAf?$AAi@ 1003effc     mfcs140:nolib.obj
 0002:00008008       ??_C@_1M@NDPIFLFI@?$AAs?$AAe?$AA?9?$AAn?$AAo@ 1003f008     mfcs140:nolib.obj
 0002:00008014       ??_C@_1M@DANKKHJ@?$AAs?$AAe?$AA?9?$AAs?$AAe@ 1003f014     mfcs140:nolib.obj
 0002:00008020       ??_C@_1M@PNBLONPJ@?$AAs?$AAk?$AA?9?$AAs?$AAk@ 1003f020     mfcs140:nolib.obj
 0002:0000802c       ??_C@_1M@LFMODOAL@?$AAs?$AAl?$AA?9?$AAs?$AAi@ 1003f02c     mfcs140:nolib.obj
 0002:00008038       ??_C@_1O@DFKOMPG@?$AAs?$AAm?$AAa?$AA?9?$AAn?$AAo@ 1003f038     mfcs140:nolib.obj
 0002:00008048       ??_C@_1O@NDKPBNNH@?$AAs?$AAm?$AAa?$AA?9?$AAs?$AAe@ 1003f048     mfcs140:nolib.obj
 0002:00008058       ??_C@_1O@PLLKBHAB@?$AAs?$AAm?$AAj?$AA?9?$AAn?$AAo@ 1003f058     mfcs140:nolib.obj
 0002:00008068       ??_C@_1O@CLEPOGCA@?$AAs?$AAm?$AAj?$AA?9?$AAs?$AAe@ 1003f068     mfcs140:nolib.obj
 0002:00008078       ??_C@_1O@DLGJGKMK@?$AAs?$AAm?$AAn?$AA?9?$AAf?$AAi@ 1003f078     mfcs140:nolib.obj
 0002:00008088       ??_C@_1O@OJDJGAJC@?$AAs?$AAm?$AAs?$AA?9?$AAf?$AAi@ 1003f088     mfcs140:nolib.obj
 0002:00008098       ??_C@_1M@BOFOGHPB@?$AAs?$AAq?$AA?9?$AAa?$AAl@ 1003f098     mfcs140:nolib.obj
 0002:000080a4       ??_C@_1BG@LJBBIPGB@?$AAs?$AAr?$AA?9?$AAb?$AAa?$AA?9?$AAc?$AAy?$AAr?$AAl@ 1003f0a4     mfcs140:nolib.obj
 0002:000080bc       ??_C@_1BG@JLBENFOE@?$AAs?$AAr?$AA?9?$AAb?$AAa?$AA?9?$AAl?$AAa?$AAt?$AAn@ 1003f0bc     mfcs140:nolib.obj
 0002:000080d4       ??_C@_1BG@KODPNHE@?$AAs?$AAr?$AA?9?$AAs?$AAp?$AA?9?$AAc?$AAy?$AAr?$AAl@ 1003f0d4     mfcs140:nolib.obj
 0002:000080ec       ??_C@_1BG@CIOGKHPB@?$AAs?$AAr?$AA?9?$AAs?$AAp?$AA?9?$AAl?$AAa?$AAt?$AAn@ 1003f0ec     mfcs140:nolib.obj
 0002:00008104       ??_C@_1M@NGFJLMAC@?$AAs?$AAv?$AA?9?$AAf?$AAi@ 1003f104     mfcs140:nolib.obj
 0002:00008110       ??_C@_1M@MPJEJAJC@?$AAs?$AAv?$AA?9?$AAs?$AAe@ 1003f110     mfcs140:nolib.obj
 0002:0000811c       ??_C@_1M@MPNDHLFK@?$AAs?$AAw?$AA?9?$AAk?$AAe@ 1003f11c     mfcs140:nolib.obj
 0002:00008128       ??_C@_1O@KOHBJJI@?$AAs?$AAy?$AAr?$AA?9?$AAs?$AAy@ 1003f128     mfcs140:nolib.obj
 0002:00008138       ??_C@_1M@LDCEFHA@?$AAt?$AAa?$AA?9?$AAi?$AAn@ 1003f138     mfcs140:nolib.obj
 0002:00008144       ??_C@_1M@CNJOFAK@?$AAt?$AAe?$AA?9?$AAi?$AAn@ 1003f144     mfcs140:nolib.obj
 0002:00008150       ??_C@_1M@GNAECACD@?$AAt?$AAh?$AA?9?$AAt?$AAh@ 1003f150     mfcs140:nolib.obj
 0002:0000815c       ??_C@_1M@CHBIHOJO@?$AAt?$AAn?$AA?9?$AAz?$AAa@ 1003f15c     mfcs140:nolib.obj
 0002:00008168       ??_C@_1M@GCCMIGPJ@?$AAt?$AAr?$AA?9?$AAt?$AAr@ 1003f168     mfcs140:nolib.obj
 0002:00008174       ??_C@_1M@CELMCNBK@?$AAt?$AAt?$AA?9?$AAr?$AAu@ 1003f174     mfcs140:nolib.obj
 0002:00008180       ??_C@_1M@KLMCELGA@?$AAu?$AAk?$AA?9?$AAu?$AAa@ 1003f180     mfcs140:nolib.obj
 0002:0000818c       ??_C@_1M@EPAJJAJF@?$AAu?$AAr?$AA?9?$AAp?$AAk@ 1003f18c     mfcs140:nolib.obj
 0002:00008198       ??_C@_1BG@GEGPMCDJ@?$AAu?$AAz?$AA?9?$AAu?$AAz?$AA?9?$AAc?$AAy?$AAr?$AAl@ 1003f198     mfcs140:nolib.obj
 0002:000081b0       ??_C@_1BG@EGGKJILM@?$AAu?$AAz?$AA?9?$AAu?$AAz?$AA?9?$AAl?$AAa?$AAt?$AAn@ 1003f1b0     mfcs140:nolib.obj
 0002:000081c8       ??_C@_1M@GFOCLFF@?$AAv?$AAi?$AA?9?$AAv?$AAn@ 1003f1c8     mfcs140:nolib.obj
 0002:000081d4       ??_C@_1M@CPAMEDFI@?$AAx?$AAh?$AA?9?$AAz?$AAa@ 1003f1d4     mfcs140:nolib.obj
 0002:000081e0       ??_C@_1O@EBKIFIGN@?$AAz?$AAh?$AA?9?$AAc?$AAh?$AAs@ 1003f1e0     mfcs140:nolib.obj
 0002:000081f0       ??_C@_1O@NMHPGANE@?$AAz?$AAh?$AA?9?$AAc?$AAh?$AAt@ 1003f1f0     mfcs140:nolib.obj
 0002:00008200       ??_C@_1M@LPINJOMC@?$AAz?$AAh?$AA?9?$AAc?$AAn@ 1003f200     mfcs140:nolib.obj
 0002:0000820c       ??_C@_1M@OCJEJODD@?$AAz?$AAh?$AA?9?$AAh?$AAk@ 1003f20c     mfcs140:nolib.obj
 0002:00008218       ??_C@_1M@DNDLJINH@?$AAz?$AAh?$AA?9?$AAm?$AAo@ 1003f218     mfcs140:nolib.obj
 0002:00008224       ??_C@_1M@MBFDNDND@?$AAz?$AAh?$AA?9?$AAs?$AAg@ 1003f224     mfcs140:nolib.obj
 0002:00008230       ??_C@_1M@IMEPLEPE@?$AAz?$AAh?$AA?9?$AAt?$AAw@ 1003f230     mfcs140:nolib.obj
 0002:0000823c       ??_C@_1M@BBGHNHJP@?$AAz?$AAu?$AA?9?$AAz?$AAa@ 1003f23c     mfcs140:nolib.obj
 0002:00008248       ??_C@_0O@JKAFBCMB@CreateActCtxW@ 1003f248     mfcs140:nolib.obj
 0002:00008258       ??_C@_0P@CECBPMJL@ActivateActCtx@ 1003f258     mfcs140:nolib.obj
 0002:00008268       ??_C@_0BB@NPIOCCPF@DeactivateActCtx@ 1003f268     mfcs140:nolib.obj
 0002:0000827c       ??_C@_0BJ@MGNMALIC@FindActCtxSectionStringW@ 1003f27c     mfcs140:nolib.obj
 0002:00008298       ??_C@_0N@IMINIHMJ@QueryActCtxW@ 1003f298     mfcs140:nolib.obj
 0002:000082a8       ??_C@_0BD@GIGEJCNH@GetModuleHandleExW@ 1003f2a8     mfcs140:nolib.obj
 0002:000082bc       ??_C@_1BK@BFMCNHEO@?$AAC?$AAo?$AAm?$AAc?$AAt?$AAl?$AA3?$AA2?$AA?4?$AAd?$AAl?$AAl@ 1003f2bc     mfcs140:nolib.obj
 0002:000082d8       ?debugString@?4??IsolationAwarePrivatenPgViNgRzlnPgpgk@@9@4@4QBDB 1003f2d8     mfcs140:nolib.obj
 0002:00008314       ?c@?1??WinbaseIsolationAwarePrivatetRgCebPnQQeRff_xReaRYQP_QYY@@9@4@4UIsolationAwarePrivate_pBAFGnAG_zBqHyr_vAsB@@B 1003f314     mfcs140:nolib.obj
 0002:00008324       ??_C@_1BK@EJBALEBG@?$AAK?$AAe?$AAr?$AAn?$AAe?$AAl?$AA3?$AA2?$AA?4?$AAd?$AAl?$AAl@ 1003f324     mfcs140:nolib.obj
 0002:00008340       ??_C@_0N@HAOHNMDE@Kernel32?4dll@ 1003f340     mfcs140:nolib.obj
 0002:00008354       ??_7type_info@@6B@         1003f354     msvcrt:std_type_info_static.obj
 0002:00008358       ??_C@_1EC@JIJBPKFM@?$AAa?$AAp?$AAi?$AA?9?$AAm?$AAs?$AA?9?$AAw?$AAi?$AAn?$AA?9?$AAc?$AAo?$AAr?$AAe@ 1003f358     msvcrt:thread_safe_statics.obj
 0002:0000839c       ??_C@_1BK@MGMFAEKH@?$AAk?$AAe?$AAr?$AAn?$AAe?$AAl?$AA3?$AA2?$AA?4?$AAd?$AAl?$AAl@ 1003f39c     msvcrt:thread_safe_statics.obj
 0002:000083b8       ??_C@_0BJ@JEBJOJFJ@SleepConditionVariableCS@ 1003f3b8     msvcrt:thread_safe_statics.obj
 0002:000083d4       ??_C@_0BJ@PGPPEPCC@WakeAllConditionVariable@ 1003f3d4     msvcrt:thread_safe_statics.obj
 0002:000083f0       __pDefaultRawDllMain       1003f3f0     msvcrt:dll_dllmain.obj
 0002:000083fc       _GUID_ATLVer30             1003f3fc     atls:atlbase.obj
 0002:0000840c       _GUID_ATLVer70             1003f40c     atls:atlbase.obj
 0002:0000841c       _GUID_ATLVer100            1003f41c     atls:atlbase.obj
 0002:0000842c       _GUID_ATLVer110            1003f42c     atls:atlbase.obj
 0002:00008440       ??_C@_1IC@ONKHOIDK@?$AAE?$AAR?$AAR?$AAO?$AAR?$AA?5?$AA?3?$AA?5?$AAU?$AAn?$AAa?$AAb?$AAl?$AAe?$AA?5@ 1003f440     atls:atlbase.obj
 0002:000084c4       ??_C@_1CA@ONGMEOAB@?$AAa?$AAt?$AAl?$AAT?$AAr?$AAa?$AAc?$AAe?$AAG?$AAe?$AAn?$AAe?$AAr?$AAa?$AAl@ 1003f4c4     atls:stdafx.obj
 0002:000084e4       ??_C@_1BI@MAFGHOEE@?$AAa?$AAt?$AAl?$AAT?$AAr?$AAa?$AAc?$AAe?$AAC?$AAO?$AAM@ 1003f4e4     atls:stdafx.obj
 0002:000084fc       ??_C@_1BG@FPLJJEMF@?$AAa?$AAt?$AAl?$AAT?$AAr?$AAa?$AAc?$AAe?$AAQ?$AAI@ 1003f4fc     atls:stdafx.obj
 0002:00008514       ??_C@_1CE@NIAEAIDK@?$AAa?$AAt?$AAl?$AAT?$AAr?$AAa?$AAc?$AAe?$AAR?$AAe?$AAg?$AAi?$AAs?$AAt?$AAr@ 1003f514     atls:stdafx.obj
 0002:00008538       ??_C@_1CC@BNHGJFNK@?$AAa?$AAt?$AAl?$AAT?$AAr?$AAa?$AAc?$AAe?$AAR?$AAe?$AAf?$AAc?$AAo?$AAu?$AAn@ 1003f538     atls:stdafx.obj
 0002:0000855c       ??_C@_1CE@NAJDPMNB@?$AAa?$AAt?$AAl?$AAT?$AAr?$AAa?$AAc?$AAe?$AAW?$AAi?$AAn?$AAd?$AAo?$AAw?$AAi@ 1003f55c     atls:stdafx.obj
 0002:00008580       ??_C@_1CC@IMNJGBED@?$AAa?$AAt?$AAl?$AAT?$AAr?$AAa?$AAc?$AAe?$AAC?$AAo?$AAn?$AAt?$AAr?$AAo?$AAl@ 1003f580     atls:stdafx.obj
 0002:000085a4       ??_C@_1CA@OMOMONMN@?$AAa?$AAt?$AAl?$AAT?$AAr?$AAa?$AAc?$AAe?$AAH?$AAo?$AAs?$AAt?$AAi?$AAn?$AAg@ 1003f5a4     atls:stdafx.obj
 0002:000085c4       ??_C@_1CC@JNJJDOOH@?$AAa?$AAt?$AAl?$AAT?$AAr?$AAa?$AAc?$AAe?$AAD?$AAB?$AAC?$AAl?$AAi?$AAe?$AAn@ 1003f5c4     atls:stdafx.obj
 0002:000085e8       ??_C@_1CG@MNMMIOOI@?$AAa?$AAt?$AAl?$AAT?$AAr?$AAa?$AAc?$AAe?$AAD?$AAB?$AAP?$AAr?$AAo?$AAv?$AAi@ 1003f5e8     atls:stdafx.obj
 0002:00008610       ??_C@_1BO@EFPHNHHN@?$AAa?$AAt?$AAl?$AAT?$AAr?$AAa?$AAc?$AAe?$AAS?$AAn?$AAa?$AAp?$AAi?$AAn@ 1003f610     atls:stdafx.obj
 0002:00008630       ??_C@_1CA@DMHPIODO@?$AAa?$AAt?$AAl?$AAT?$AAr?$AAa?$AAc?$AAe?$AAN?$AAo?$AAt?$AAI?$AAm?$AAp?$AAl@ 1003f630     atls:stdafx.obj
 0002:00008650       ??_C@_1CG@KFEEMCDH@?$AAa?$AAt?$AAl?$AAT?$AAr?$AAa?$AAc?$AAe?$AAA?$AAl?$AAl?$AAo?$AAc?$AAa?$AAt@ 1003f650     atls:stdafx.obj
 0002:00008678       ??_C@_1CE@IMMADNAP@?$AAa?$AAt?$AAl?$AAT?$AAr?$AAa?$AAc?$AAe?$AAE?$AAx?$AAc?$AAe?$AAp?$AAt?$AAi@ 1003f678     atls:stdafx.obj
 0002:0000869c       ??_C@_1BK@NCJHOFCL@?$AAa?$AAt?$AAl?$AAT?$AAr?$AAa?$AAc?$AAe?$AAT?$AAi?$AAm?$AAe@ 1003f69c     atls:stdafx.obj
 0002:000086b8       ??_C@_1BM@GIKLHLFD@?$AAa?$AAt?$AAl?$AAT?$AAr?$AAa?$AAc?$AAe?$AAC?$AAa?$AAc?$AAh?$AAe@ 1003f6b8     atls:stdafx.obj
 0002:000086d4       ??_C@_1CA@PBPHANCD@?$AAa?$AAt?$AAl?$AAT?$AAr?$AAa?$AAc?$AAe?$AAS?$AAt?$AAe?$AAn?$AAc?$AAi?$AAl@ 1003f6d4     atls:stdafx.obj
 0002:000086f4       ??_C@_1BO@GMLILNDJ@?$AAa?$AAt?$AAl?$AAT?$AAr?$AAa?$AAc?$AAe?$AAS?$AAt?$AAr?$AAi?$AAn?$AAg@ 1003f6f4     atls:stdafx.obj
 0002:00008714       ??_C@_1BI@OKDLCIEM@?$AAa?$AAt?$AAl?$AAT?$AAr?$AAa?$AAc?$AAe?$AAM?$AAa?$AAp@ 1003f714     atls:stdafx.obj
 0002:0000872c       ??_C@_1BK@DMHCKHHD@?$AAa?$AAt?$AAl?$AAT?$AAr?$AAa?$AAc?$AAe?$AAU?$AAt?$AAi?$AAl@ 1003f72c     atls:stdafx.obj
 0002:00008748       ??_C@_1CC@DMMBNCFG@?$AAa?$AAt?$AAl?$AAT?$AAr?$AAa?$AAc?$AAe?$AAS?$AAe?$AAc?$AAu?$AAr?$AAi?$AAt@ 1003f748     atls:stdafx.obj
 0002:0000876c       ??_C@_1BK@OPAPOCAL@?$AAa?$AAt?$AAl?$AAT?$AAr?$AAa?$AAc?$AAe?$AAS?$AAy?$AAn?$AAc@ 1003f76c     atls:stdafx.obj
 0002:00008788       ??_C@_1BM@FHAEDBFK@?$AAa?$AAt?$AAl?$AAT?$AAr?$AAa?$AAc?$AAe?$AAI?$AAS?$AAA?$AAP?$AAI@ 1003f788     atls:stdafx.obj
 0002:000087a4       ?chDirSep@ATL@@3_WB        1003f7a4     atls:stdafx.obj
 0002:000087a8       ?chRightBracket@ATL@@3_WB  1003f7a8     atls:stdafx.obj
 0002:000087ac       ?chLeftBracket@ATL@@3_WB   1003f7ac     atls:stdafx.obj
 0002:000087b0       ?chQuote@ATL@@3_WB         1003f7b0     atls:stdafx.obj
 0002:000087b4       ?chEquals@ATL@@3_WB        1003f7b4     atls:stdafx.obj
 0002:000087b8       ?szStringVal@ATL@@3QB_WB   1003f7b8     atls:stdafx.obj
 0002:000087bc       ??_C@_13HADIAKP@?$AAS@     1003f7bc     atls:stdafx.obj
 0002:000087c0       ?multiszStringVal@ATL@@3QB_WB 1003f7c0     atls:stdafx.obj
 0002:000087c4       ??_C@_13LHMFKAAD@?$AAM@    1003f7c4     atls:stdafx.obj
 0002:000087c8       ?szDwordVal@ATL@@3QB_WB    1003f7c8     atls:stdafx.obj
 0002:000087cc       ??_C@_13MKMNOPIJ@?$AAD@    1003f7cc     atls:stdafx.obj
 0002:000087d0       ?szBinaryVal@ATL@@3QB_WB   1003f7d0     atls:stdafx.obj
 0002:000087d4       ??_C@_13OPKGLAFF@?$AAB@    1003f7d4     atls:stdafx.obj
 0002:000087d8       ?szValToken@ATL@@3QB_WB    1003f7d8     atls:stdafx.obj
 0002:000087dc       ??_C@_17LLMMEOJD@?$AAV?$AAa?$AAl@ 1003f7dc     atls:stdafx.obj
 0002:000087e4       ?szForceRemove@ATL@@3QB_WB 1003f7e4     atls:stdafx.obj
 0002:000087e8       ??_C@_1BI@JFAIJMHL@?$AAF?$AAo?$AAr?$AAc?$AAe?$AAR?$AAe?$AAm?$AAo?$AAv?$AAe@ 1003f7e8     atls:stdafx.obj
 0002:00008800       ?szNoRemove@ATL@@3QB_WB    1003f800     atls:stdafx.obj
 0002:00008804       ??_C@_1BC@GCKHIPE@?$AAN?$AAo?$AAR?$AAe?$AAm?$AAo?$AAv?$AAe@ 1003f804     atls:stdafx.obj
 0002:00008818       ?szDelete@ATL@@3QB_WB      1003f818     atls:stdafx.obj
 0002:0000881c       ??_C@_1O@JDLOHAN@?$AAD?$AAe?$AAl?$AAe?$AAt?$AAe@ 1003f81c     atls:stdafx.obj
 0002:00008880       __load_config_used         1003f880     msvcrt:loadcfg.obj
 0002:00008940       ___CastGuardVftablesStart  1003f940     msvcrt:guard_support.obj
 0002:00008944       ___CastGuardVftablesEnd    1003f944     msvcrt:guard_support.obj
 0002:00008948       __tls_used                 1003f948     msvcrt:tlssup.obj
 0002:00008960       ??_R3CObject@@8            1003f960     DataItem.obj
 0002:00008970       ??_R2CObject@@8            1003f970     DataItem.obj
 0002:00008978       ??_R1A@?0A@EA@CObject@@8   1003f978     DataItem.obj
 0002:00008994       ??_R4?$CArray@NN@@6B@      1003f994     DataItem.obj
 0002:000089a8       ??_R3?$CArray@NN@@8        1003f9a8     DataItem.obj
 0002:000089b8       ??_R2?$CArray@NN@@8        1003f9b8     DataItem.obj
 0002:000089c4       ??_R1A@?0A@EA@?$CArray@NN@@8 1003f9c4     DataItem.obj
 0002:000089e0       ??_R4CIDataItem0001@@6B@   1003f9e0     DataItem.obj
 0002:000089f4       ??_R3CIDataItem0001@@8     1003f9f4     DataItem.obj
 0002:00008a04       ??_R2CIDataItem0001@@8     1003fa04     DataItem.obj
 0002:00008a0c       ??_R1A@?0A@EA@CIDataItem0001@@8 1003fa0c     DataItem.obj
 0002:00008a28       ??_R4CSTDataItem@@6B@      1003fa28     DataItem.obj
 0002:00008a3c       ??_R3CSTDataItem@@8        1003fa3c     DataItem.obj
 0002:00008a4c       ??_R2CSTDataItem@@8        1003fa4c     DataItem.obj
 0002:00008a58       ??_R1A@?0A@EA@CSTDataItem@@8 1003fa58     DataItem.obj
 0002:00008a74       ??_R4CISDataItem0001@@6B@  1003fa74     SDataItem.obj
 0002:00008a88       ??_R3CISDataItem0001@@8    1003fa88     SDataItem.obj
 0002:00008a98       ??_R2CISDataItem0001@@8    1003fa98     SDataItem.obj
 0002:00008aa0       ??_R1A@?0A@EA@CISDataItem0001@@8 1003faa0     SDataItem.obj
 0002:00008abc       ??_R4CSDataItem@@6B@       1003fabc     SDataItem.obj
 0002:00008ad0       ??_R3CSDataItem@@8         1003fad0     SDataItem.obj
 0002:00008ae0       ??_R2CSDataItem@@8         1003fae0     SDataItem.obj
 0002:00008aec       ??_R1A@?0A@EA@CSDataItem@@8 1003faec     SDataItem.obj
 0002:00008b08       ??_R4CGdiObject@@6B@       1003fb08     STGfxOutBarCtrl.obj
 0002:00008b1c       ??_R3CGdiObject@@8         1003fb1c     STGfxOutBarCtrl.obj
 0002:00008b2c       ??_R2CGdiObject@@8         1003fb2c     STGfxOutBarCtrl.obj
 0002:00008b38       ??_R1A@?0A@EA@CGdiObject@@8 1003fb38     STGfxOutBarCtrl.obj
 0002:00008b54       ??_R4CPen@@6B@             1003fb54     STGfxOutBarCtrl.obj
 0002:00008b68       ??_R3CPen@@8               1003fb68     STGfxOutBarCtrl.obj
 0002:00008b78       ??_R2CPen@@8               1003fb78     STGfxOutBarCtrl.obj
 0002:00008b88       ??_R1A@?0A@EA@CPen@@8      1003fb88     STGfxOutBarCtrl.obj
 0002:00008ba4       ??_R4CFont@@6B@            1003fba4     STGfxOutBarCtrl.obj
 0002:00008bb8       ??_R3CFont@@8              1003fbb8     STGfxOutBarCtrl.obj
 0002:00008bc8       ??_R2CFont@@8              1003fbc8     STGfxOutBarCtrl.obj
 0002:00008bd8       ??_R1A@?0A@EA@CFont@@8     1003fbd8     STGfxOutBarCtrl.obj
 0002:00008bf4       ??_R4CBitmap@@6B@          1003fbf4     STGfxOutBarCtrl.obj
 0002:00008c08       ??_R3CBitmap@@8            1003fc08     STGfxOutBarCtrl.obj
 0002:00008c18       ??_R2CBitmap@@8            1003fc18     STGfxOutBarCtrl.obj
 0002:00008c28       ??_R1A@?0A@EA@CBitmap@@8   1003fc28     STGfxOutBarCtrl.obj
 0002:00008c44       ??_R4CRgn@@6B@             1003fc44     STGfxOutBarCtrl.obj
 0002:00008c58       ??_R3CRgn@@8               1003fc58     STGfxOutBarCtrl.obj
 0002:00008c68       ??_R2CRgn@@8               1003fc68     STGfxOutBarCtrl.obj
 0002:00008c78       ??_R1A@?0A@EA@CRgn@@8      1003fc78     STGfxOutBarCtrl.obj
 0002:00008c94       ??_R1A@?0A@EA@CWnd@@8      1003fc94     STGfxOutBarCtrl.obj
 0002:00008cb0       ??_R3CWnd@@8               1003fcb0     STGfxOutBarCtrl.obj
 0002:00008cc0       ??_R2CWnd@@8               1003fcc0     STGfxOutBarCtrl.obj
 0002:00008cd0       ??_R1A@?0A@EA@CCmdTarget@@8 1003fcd0     STGfxOutBarCtrl.obj
 0002:00008cec       ??_R3CCmdTarget@@8         1003fcec     STGfxOutBarCtrl.obj
 0002:00008cfc       ??_R2CCmdTarget@@8         1003fcfc     STGfxOutBarCtrl.obj
 0002:00008d08       ??_R4IGfxOutBarCtrl@@6B@   1003fd08     STGfxOutBarCtrl.obj
 0002:00008d1c       ??_R3IGfxOutBarCtrl@@8     1003fd1c     STGfxOutBarCtrl.obj
 0002:00008d2c       ??_R2IGfxOutBarCtrl@@8     1003fd2c     STGfxOutBarCtrl.obj
 0002:00008d34       ??_R1A@?0A@EA@IGfxOutBarCtrl@@8 1003fd34     STGfxOutBarCtrl.obj
 0002:00008d50       ??_R4IGfxOutBarCtrl2@@6B@  1003fd50     STGfxOutBarCtrl.obj
 0002:00008d64       ??_R3IGfxOutBarCtrl2@@8    1003fd64     STGfxOutBarCtrl.obj
 0002:00008d74       ??_R2IGfxOutBarCtrl2@@8    1003fd74     STGfxOutBarCtrl.obj
 0002:00008d80       ??_R1A@?0A@EA@IGfxOutBarCtrl2@@8 1003fd80     STGfxOutBarCtrl.obj
 0002:00008d9c       ??_R4CSTGfxOutBarCtrl@@6B@ 1003fd9c     STGfxOutBarCtrl.obj
 0002:00008db0       ??_R3CSTGfxOutBarCtrl@@8   1003fdb0     STGfxOutBarCtrl.obj
 0002:00008dc0       ??_R2CSTGfxOutBarCtrl@@8   1003fdc0     STGfxOutBarCtrl.obj
 0002:00008dd4       ??_R1A@?0A@EA@CSTGfxOutBarCtrl@@8 1003fdd4     STGfxOutBarCtrl.obj
 0002:00008df0       ??_R4CBarItem@CSTGfxOutBarCtrl@@6B@ 1003fdf0     STGfxOutBarCtrl.obj
 0002:00008e04       ??_R3CBarItem@CSTGfxOutBarCtrl@@8 1003fe04     STGfxOutBarCtrl.obj
 0002:00008e14       ??_R2CBarItem@CSTGfxOutBarCtrl@@8 1003fe14     STGfxOutBarCtrl.obj
 0002:00008e1c       ??_R1A@?0A@EA@CBarItem@CSTGfxOutBarCtrl@@8 1003fe1c     STGfxOutBarCtrl.obj
 0002:00008e38       ??_R4CBarFolder@CSTGfxOutBarCtrl@@6B@ 1003fe38     STGfxOutBarCtrl.obj
 0002:00008e4c       ??_R3CBarFolder@CSTGfxOutBarCtrl@@8 1003fe4c     STGfxOutBarCtrl.obj
 0002:00008e5c       ??_R2CBarFolder@CSTGfxOutBarCtrl@@8 1003fe5c     STGfxOutBarCtrl.obj
 0002:00008e64       ??_R1A@?0A@EA@CBarFolder@CSTGfxOutBarCtrl@@8 1003fe64     STGfxOutBarCtrl.obj
 0002:00008e80       ??_R4CImpl_IGfxOutBarCtrl@@6B@ 1003fe80     STGfxOutBarCtrl.obj
 0002:00008e94       ??_R3CImpl_IGfxOutBarCtrl@@8 1003fe94     STGfxOutBarCtrl.obj
 0002:00008ea4       ??_R2CImpl_IGfxOutBarCtrl@@8 1003fea4     STGfxOutBarCtrl.obj
 0002:00008eb4       ??_R1A@?0A@EA@CImpl_IGfxOutBarCtrl@@8 1003feb4     STGfxOutBarCtrl.obj
 0002:00008ed0       ??_R4CStrategyLoader@@6B@  1003fed0     StrategyLoader.obj
 0002:00008ee4       ??_R3CStrategyLoader@@8    1003fee4     StrategyLoader.obj
 0002:00008ef4       ??_R2CStrategyLoader@@8    1003fef4     StrategyLoader.obj
 0002:00008efc       ??_R1A@?0A@EA@CStrategyLoader@@8 1003fefc     StrategyLoader.obj
 0002:00008f18       ??_R4CTreeCtrl@@6B@        1003ff18     STTreeCtrl.obj
 0002:00008f2c       ??_R3CTreeCtrl@@8          1003ff2c     STTreeCtrl.obj
 0002:00008f3c       ??_R2CTreeCtrl@@8          1003ff3c     STTreeCtrl.obj
 0002:00008f50       ??_R1A@?0A@EA@CTreeCtrl@@8 1003ff50     STTreeCtrl.obj
 0002:00008f6c       ??_R4CSTTreeCtrl@@6B@      1003ff6c     STTreeCtrl.obj
 0002:00008f80       ??_R3CSTTreeCtrl@@8        1003ff80     STTreeCtrl.obj
 0002:00008f90       ??_R2CSTTreeCtrl@@8        1003ff90     STTreeCtrl.obj
 0002:00008fa8       ??_R1A@?0A@EA@CSTTreeCtrl@@8 1003ffa8     STTreeCtrl.obj
 0002:00008fc4       ??_R4CSTExtTree@@6B@       1003ffc4     STTreeCtrl.obj
 0002:00008fd8       ??_R3CSTExtTree@@8         1003ffd8     STTreeCtrl.obj
 0002:00008fe8       ??_R2CSTExtTree@@8         1003ffe8     STTreeCtrl.obj
 0002:00009004       ??_R1A@?0A@EA@CSTExtTree@@8 10040004     STTreeCtrl.obj
 0002:00009020       ??_R4CSTBasicTree@@6B@     10040020     STTreeCtrl.obj
 0002:00009034       ??_R3CSTBasicTree@@8       10040034     STTreeCtrl.obj
 0002:00009044       ??_R2CSTBasicTree@@8       10040044     STTreeCtrl.obj
 0002:00009060       ??_R1A@?0A@EA@CSTBasicTree@@8 10040060     STTreeCtrl.obj
 0002:0000907c       ??_R4CMschart1@@6B@        1004007c     mschart1.obj
 0002:00009090       ??_R3CMschart1@@8          10040090     mschart1.obj
 0002:000090a0       ??_R2CMschart1@@8          100400a0     mschart1.obj
 0002:000090b4       ??_R1A@?0A@EA@CMschart1@@8 100400b4     mschart1.obj
 0002:000090d0       ??_R4CTChart@@6B@          100400d0     tchart.obj
 0002:000090e4       ??_R3CTChart@@8            100400e4     tchart.obj
 0002:000090f4       ??_R2CTChart@@8            100400f4     tchart.obj
 0002:00009108       ??_R1A@?0A@EA@CTChart@@8   10040108     tchart.obj
 0002:00009124       ??_R4CTabCtrl@@6B@         10040124     XTabCtrl.obj
 0002:00009138       ??_R3CTabCtrl@@8           10040138     XTabCtrl.obj
 0002:00009148       ??_R2CTabCtrl@@8           10040148     XTabCtrl.obj
 0002:0000915c       ??_R1A@?0A@EA@CTabCtrl@@8  1004015c     XTabCtrl.obj
 0002:00009178       ??_R4?$CArray@HH@@6B@      10040178     XTabCtrl.obj
 0002:0000918c       ??_R3?$CArray@HH@@8        1004018c     XTabCtrl.obj
 0002:0000919c       ??_R2?$CArray@HH@@8        1004019c     XTabCtrl.obj
 0002:000091a8       ??_R1A@?0A@EA@?$CArray@HH@@8 100401a8     XTabCtrl.obj
 0002:000091c4       ??_R4CXTabCtrl@@6B@        100401c4     XTabCtrl.obj
 0002:000091d8       ??_R3CXTabCtrl@@8          100401d8     XTabCtrl.obj
 0002:000091e8       ??_R2CXTabCtrl@@8          100401e8     XTabCtrl.obj
 0002:00009200       ??_R1A@?0A@EA@CXTabCtrl@@8 10040200     XTabCtrl.obj
 0002:0000921c       ??_R1A@?0A@EA@CDialog@@8   1004021c     DlgInterface.obj
 0002:00009238       ??_R3CDialog@@8            10040238     DlgInterface.obj
 0002:00009248       ??_R2CDialog@@8            10040248     DlgInterface.obj
 0002:0000925c       ??_R4CEscDialog@@6B@       1004025c     DlgInterface.obj
 0002:00009270       ??_R3CEscDialog@@8         10040270     DlgInterface.obj
 0002:00009280       ??_R2CEscDialog@@8         10040280     DlgInterface.obj
 0002:00009298       ??_R1A@?0A@EA@CEscDialog@@8 10040298     DlgInterface.obj
 0002:000092b4       ??_R4CDlgInterface@@6B@    100402b4     DlgInterface.obj
 0002:000092c8       ??_R3CDlgInterface@@8      100402c8     DlgInterface.obj
 0002:000092d8       ??_R2CDlgInterface@@8      100402d8     DlgInterface.obj
 0002:000092f4       ??_R1A@?0A@EA@CDlgInterface@@8 100402f4     DlgInterface.obj
 0002:00009310       ??_R4CBrush@@6B@           10040310     DlgOptimizer.obj
 0002:00009324       ??_R3CBrush@@8             10040324     DlgOptimizer.obj
 0002:00009334       ??_R2CBrush@@8             10040334     DlgOptimizer.obj
 0002:00009344       ??_R1A@?0A@EA@CBrush@@8    10040344     DlgOptimizer.obj
 0002:00009360       ??_R4CListBox@@6B@         10040360     DlgOptimizer.obj
 0002:00009374       ??_R3CListBox@@8           10040374     DlgOptimizer.obj
 0002:00009384       ??_R2CListBox@@8           10040384     DlgOptimizer.obj
 0002:00009398       ??_R1A@?0A@EA@CListBox@@8  10040398     DlgOptimizer.obj
 0002:000093b4       ??_R4CDlgOptimizer@@6B@    100403b4     DlgOptimizer.obj
 0002:000093c8       ??_R3CDlgOptimizer@@8      100403c8     DlgOptimizer.obj
 0002:000093d8       ??_R2CDlgOptimizer@@8      100403d8     DlgOptimizer.obj
 0002:000093f4       ??_R1A@?0A@EA@CDlgOptimizer@@8 100403f4     DlgOptimizer.obj
 0002:00009410       ??_R4?$CList@PAUSTMNG_ITEMINFO@@PAU1@@@6B@ 10040410     DlgOptimizer.obj
 0002:00009424       ??_R3?$CList@PAUSTMNG_ITEMINFO@@PAU1@@@8 10040424     DlgOptimizer.obj
 0002:00009434       ??_R2?$CList@PAUSTMNG_ITEMINFO@@PAU1@@@8 10040434     DlgOptimizer.obj
 0002:00009440       ??_R1A@?0A@EA@?$CList@PAUSTMNG_ITEMINFO@@PAU1@@@8 10040440     DlgOptimizer.obj
 0002:0000945c       ??_R4ISTUserData@@6B@      1004045c     DlgOptimizer.obj
 0002:00009470       ??_R3ISTUserData@@8        10040470     DlgOptimizer.obj
 0002:00009480       ??_R2ISTUserData@@8        10040480     DlgOptimizer.obj
 0002:00009488       ??_R1A@?0A@EA@ISTUserData@@8 10040488     DlgOptimizer.obj
 0002:000094a4       ??_R4?$CArray@UST_VALUEOPTIMAZE@@U1@@@6B@ 100404a4     DlgOptimizer.obj
 0002:000094b8       ??_R3?$CArray@UST_VALUEOPTIMAZE@@U1@@@8 100404b8     DlgOptimizer.obj
 0002:000094c8       ??_R2?$CArray@UST_VALUEOPTIMAZE@@U1@@@8 100404c8     DlgOptimizer.obj
 0002:000094d4       ??_R1A@?0A@EA@?$CArray@UST_VALUEOPTIMAZE@@U1@@@8 100404d4     DlgOptimizer.obj
 0002:000094f0       ??_R4?$CArray@PAVCDialog@@PAV1@@@6B@ 100404f0     DlgOptimizer.obj
 0002:00009504       ??_R3?$CArray@PAVCDialog@@PAV1@@@8 10040504     DlgOptimizer.obj
 0002:00009514       ??_R2?$CArray@PAVCDialog@@PAV1@@@8 10040514     DlgOptimizer.obj
 0002:00009520       ??_R1A@?0A@EA@?$CArray@PAVCDialog@@PAV1@@@8 10040520     DlgOptimizer.obj
 0002:0000953c       ??_R4?$CArray@PAUST_VALUE@@PAU1@@@6B@ 1004053c     DlgOptimizer.obj
 0002:00009550       ??_R3?$CArray@PAUST_VALUE@@PAU1@@@8 10040550     DlgOptimizer.obj
 0002:00009560       ??_R2?$CArray@PAUST_VALUE@@PAU1@@@8 10040560     DlgOptimizer.obj
 0002:0000956c       ??_R1A@?0A@EA@?$CArray@PAUST_VALUE@@PAU1@@@8 1004056c     DlgOptimizer.obj
 0002:00009588       ??_R4?$CArray@UST_RUNVALUE@@U1@@@6B@ 10040588     DlgOptimizer.obj
 0002:0000959c       ??_R3?$CArray@UST_RUNVALUE@@U1@@@8 1004059c     DlgOptimizer.obj
 0002:000095ac       ??_R2?$CArray@UST_RUNVALUE@@U1@@@8 100405ac     DlgOptimizer.obj
 0002:000095b8       ??_R1A@?0A@EA@?$CArray@UST_RUNVALUE@@U1@@@8 100405b8     DlgOptimizer.obj
 0002:000095d4       ??_R4?$CArray@UST_GRIDDATA@@U1@@@6B@ 100405d4     DlgOptimizer.obj
 0002:000095e8       ??_R3?$CArray@UST_GRIDDATA@@U1@@@8 100405e8     DlgOptimizer.obj
 0002:000095f8       ??_R2?$CArray@UST_GRIDDATA@@U1@@@8 100405f8     DlgOptimizer.obj
 0002:00009604       ??_R1A@?0A@EA@?$CArray@UST_GRIDDATA@@U1@@@8 10040604     DlgOptimizer.obj
 0002:00009620       ??_R4?$CArray@UST_STRGRIDDATA@@U1@@@6B@ 10040620     DlgOptimizer.obj
 0002:00009634       ??_R3?$CArray@UST_STRGRIDDATA@@U1@@@8 10040634     DlgOptimizer.obj
 0002:00009644       ??_R2?$CArray@UST_STRGRIDDATA@@U1@@@8 10040644     DlgOptimizer.obj
 0002:00009650       ??_R1A@?0A@EA@?$CArray@UST_STRGRIDDATA@@U1@@@8 10040650     DlgOptimizer.obj
 0002:0000966c       ??_R4CSTUserData@CDlgOptimizer@@6B@ 1004066c     DlgOptimizer.obj
 0002:00009680       ??_R3CSTUserData@CDlgOptimizer@@8 10040680     DlgOptimizer.obj
 0002:00009690       ??_R2CSTUserData@CDlgOptimizer@@8 10040690     DlgOptimizer.obj
 0002:0000969c       ??_R1A@?0A@EA@CSTUserData@CDlgOptimizer@@8 1004069c     DlgOptimizer.obj
 0002:000096b8       ??_R4CDlgResult@@6B@       100406b8     DlgResult.obj
 0002:000096cc       ??_R3CDlgResult@@8         100406cc     DlgResult.obj
 0002:000096dc       ??_R2CDlgResult@@8         100406dc     DlgResult.obj
 0002:000096f8       ??_R1A@?0A@EA@CDlgResult@@8 100406f8     DlgResult.obj
 0002:00009714       ??_R4CStatic@@6B@          10040714     DlgTimeSetup.obj
 0002:00009728       ??_R3CStatic@@8            10040728     DlgTimeSetup.obj
 0002:00009738       ??_R2CStatic@@8            10040738     DlgTimeSetup.obj
 0002:0000974c       ??_R1A@?0A@EA@CStatic@@8   1004074c     DlgTimeSetup.obj
 0002:00009768       ??_R4?$CList@PAVCCFGScanInfo@@PAV1@@@6B@ 10040768     DlgTimeSetup.obj
 0002:0000977c       ??_R3?$CList@PAVCCFGScanInfo@@PAV1@@@8 1004077c     DlgTimeSetup.obj
 0002:0000978c       ??_R2?$CList@PAVCCFGScanInfo@@PAV1@@@8 1004078c     DlgTimeSetup.obj
 0002:00009798       ??_R1A@?0A@EA@?$CList@PAVCCFGScanInfo@@PAV1@@@8 10040798     DlgTimeSetup.obj
 0002:000097b4       ??_R4CDlgTimeSetup@@6B@    100407b4     DlgTimeSetup.obj
 0002:000097c8       ??_R3CDlgTimeSetup@@8      100407c8     DlgTimeSetup.obj
 0002:000097d8       ??_R2CDlgTimeSetup@@8      100407d8     DlgTimeSetup.obj
 0002:000097f4       ??_R1A@?0A@EA@CDlgTimeSetup@@8 100407f4     DlgTimeSetup.obj
 0002:00009810       ??_R4?$CArray@PAVCStatic@@PAV1@@@6B@ 10040810     DlgTimeSetup.obj
 0002:00009824       ??_R3?$CArray@PAVCStatic@@PAV1@@@8 10040824     DlgTimeSetup.obj
 0002:00009834       ??_R2?$CArray@PAVCStatic@@PAV1@@@8 10040834     DlgTimeSetup.obj
 0002:00009840       ??_R1A@?0A@EA@?$CArray@PAVCStatic@@PAV1@@@8 10040840     DlgTimeSetup.obj
 0002:0000985c       ??_R4CDlgTrade@@6B@        1004085c     DlgTrade.obj
 0002:00009870       ??_R3CDlgTrade@@8          10040870     DlgTrade.obj
 0002:00009880       ??_R2CDlgTrade@@8          10040880     DlgTrade.obj
 0002:000098a0       ??_R1A@?0A@EA@CDlgTrade@@8 100408a0     DlgTrade.obj
 0002:000098bc       ??_R4CGridCell@@6B@        100408bc     GridCell.obj
 0002:000098d0       ??_R3CGridCell@@8          100408d0     GridCell.obj
 0002:000098e0       ??_R2CGridCell@@8          100408e0     GridCell.obj
 0002:000098f0       ??_R1A@?0A@EA@CGridCell@@8 100408f0     GridCell.obj
 0002:0000990c       ??_R1A@?0A@EA@CGridCellBase@@8 1004090c     GridCell.obj
 0002:00009928       ??_R3CGridCellBase@@8      10040928     GridCell.obj
 0002:00009938       ??_R2CGridCellBase@@8      10040938     GridCell.obj
 0002:00009944       ??_R4CGridDefaultCell@@6B@ 10040944     GridCell.obj
 0002:00009958       ??_R3CGridDefaultCell@@8   10040958     GridCell.obj
 0002:00009968       ??_R2CGridDefaultCell@@8   10040968     GridCell.obj
 0002:0000997c       ??_R1A@?0A@EA@CGridDefaultCell@@8 1004097c     GridCell.obj
 0002:00009998       ??_R4CGridCellBase@@6B@    10040998     GridCellBase.obj
 0002:000099ac       ??_R3CException@@8         100409ac     GridCtrl.obj
 0002:000099bc       ??_R2CException@@8         100409bc     GridCtrl.obj
 0002:000099c8       ??_R1A@?0A@EA@CException@@8 100409c8     GridCtrl.obj
 0002:000099e4       ??_R4CFileException@@6B@   100409e4     GridCtrl.obj
 0002:000099f8       ??_R3CFileException@@8     100409f8     GridCtrl.obj
 0002:00009a08       ??_R2CFileException@@8     10040a08     GridCtrl.obj
 0002:00009a18       ??_R1A@?0A@EA@CFileException@@8 10040a18     GridCtrl.obj
 0002:00009a34       ??_R4CCommonDialog@@6B@    10040a34     GridCtrl.obj
 0002:00009a48       ??_R3CCommonDialog@@8      10040a48     GridCtrl.obj
 0002:00009a58       ??_R2CCommonDialog@@8      10040a58     GridCtrl.obj
 0002:00009a70       ??_R1A@?0A@EA@CCommonDialog@@8 10040a70     GridCtrl.obj
 0002:00009a8c       ??_R4CMemDC@@6B@           10040a8c     GridCtrl.obj
 0002:00009aa0       ??_R3CMemDC@@8             10040aa0     GridCtrl.obj
 0002:00009ab0       ??_R2CMemDC@@8             10040ab0     GridCtrl.obj
 0002:00009ac0       ??_R1A@?0A@EA@CMemDC@@8    10040ac0     GridCtrl.obj
 0002:00009adc       ??_R1A@?0A@EA@CDC@@8       10040adc     GridCtrl.obj
 0002:00009af8       ??_R3CDC@@8                10040af8     GridCtrl.obj
 0002:00009b08       ??_R2CDC@@8                10040b08     GridCtrl.obj
 0002:00009b14       ??_R4CGridCtrl@@6B@        10040b14     GridCtrl.obj
 0002:00009b28       ??_R3CGridCtrl@@8          10040b28     GridCtrl.obj
 0002:00009b38       ??_R2CGridCtrl@@8          10040b38     GridCtrl.obj
 0002:00009b4c       ??_R1A@?0A@EA@CGridCtrl@@8 10040b4c     GridCtrl.obj
 0002:00009b68       ??_R4?$CTypedPtrArray@VCObArray@@PAVCGridCellBase@@@@6B@ 10040b68     GridCtrl.obj
 0002:00009b7c       ??_R3?$CTypedPtrArray@VCObArray@@PAVCGridCellBase@@@@8 10040b7c     GridCtrl.obj
 0002:00009b8c       ??_R2?$CTypedPtrArray@VCObArray@@PAVCGridCellBase@@@@8 10040b8c     GridCtrl.obj
 0002:00009b9c       ??_R1A@?0A@EA@?$CTypedPtrArray@VCObArray@@PAVCGridCellBase@@@@8 10040b9c     GridCtrl.obj
 0002:00009bb8       ??_R1A@?0A@EA@CObArray@@8  10040bb8     GridCtrl.obj
 0002:00009bd4       ??_R3CObArray@@8           10040bd4     GridCtrl.obj
 0002:00009be4       ??_R2CObArray@@8           10040be4     GridCtrl.obj
 0002:00009bf0       ??_R4?$CTypedPtrArray@VCObArray@@PAV?$CTypedPtrArray@VCObArray@@PAVCGridCellBase@@@@@@6B@ 10040bf0     GridCtrl.obj
 0002:00009c04       ??_R3?$CTypedPtrArray@VCObArray@@PAV?$CTypedPtrArray@VCObArray@@PAVCGridCellBase@@@@@@8 10040c04     GridCtrl.obj
 0002:00009c14       ??_R2?$CTypedPtrArray@VCObArray@@PAV?$CTypedPtrArray@VCObArray@@PAVCGridCellBase@@@@@@8 10040c14     GridCtrl.obj
 0002:00009c24       ??_R1A@?0A@EA@?$CTypedPtrArray@VCObArray@@PAV?$CTypedPtrArray@VCObArray@@PAVCGridCellBase@@@@@@8 10040c24     GridCtrl.obj
 0002:00009c40       ??_R4?$CMap@KKVCCellID@@AAV1@@@6B@ 10040c40     GridCtrl.obj
 0002:00009c54       ??_R3?$CMap@KKVCCellID@@AAV1@@@8 10040c54     GridCtrl.obj
 0002:00009c64       ??_R2?$CMap@KKVCCellID@@AAV1@@@8 10040c64     GridCtrl.obj
 0002:00009c70       ??_R1A@?0A@EA@?$CMap@KKVCCellID@@AAV1@@@8 10040c70     GridCtrl.obj
 0002:00009c8c       ??_R4CGridDropTarget@@6B@  10040c8c     GridDropTarget.obj
 0002:00009ca0       ??_R3CGridDropTarget@@8    10040ca0     GridDropTarget.obj
 0002:00009cb0       ??_R2CGridDropTarget@@8    10040cb0     GridDropTarget.obj
 0002:00009cc4       ??_R1A@?0A@EA@CGridDropTarget@@8 10040cc4     GridDropTarget.obj
 0002:00009ce0       ??_R1A@?0A@EA@COleDropTarget@@8 10040ce0     GridDropTarget.obj
 0002:00009cfc       ??_R3COleDropTarget@@8     10040cfc     GridDropTarget.obj
 0002:00009d0c       ??_R2COleDropTarget@@8     10040d0c     GridDropTarget.obj
 0002:00009d1c       ??_R4CEdit@@6B@            10040d1c     InPlaceEdit.obj
 0002:00009d30       ??_R3CEdit@@8              10040d30     InPlaceEdit.obj
 0002:00009d40       ??_R2CEdit@@8              10040d40     InPlaceEdit.obj
 0002:00009d54       ??_R1A@?0A@EA@CEdit@@8     10040d54     InPlaceEdit.obj
 0002:00009d70       ??_R4CInPlaceEdit@@6B@     10040d70     InPlaceEdit.obj
 0002:00009d84       ??_R3CInPlaceEdit@@8       10040d84     InPlaceEdit.obj
 0002:00009d94       ??_R2CInPlaceEdit@@8       10040d94     InPlaceEdit.obj
 0002:00009dac       ??_R1A@?0A@EA@CInPlaceEdit@@8 10040dac     InPlaceEdit.obj
 0002:00009dc8       ??_R4CTitleTip@@6B@        10040dc8     TitleTip.obj
 0002:00009ddc       ??_R3CTitleTip@@8          10040ddc     TitleTip.obj
 0002:00009dec       ??_R2CTitleTip@@8          10040dec     TitleTip.obj
 0002:00009e00       ??_R1A@?0A@EA@CTitleTip@@8 10040e00     TitleTip.obj
 0002:00009e1c       ??_R4CWin32Heap@ATL@@6B@   10040e1c     StdAfx.obj
 0002:00009e30       ??_R3CWin32Heap@ATL@@8     10040e30     StdAfx.obj
 0002:00009e40       ??_R2CWin32Heap@ATL@@8     10040e40     StdAfx.obj
 0002:00009e4c       ??_R1A@?0A@EA@CWin32Heap@ATL@@8 10040e4c     StdAfx.obj
 0002:00009e68       ??_R1A@?0A@EA@IAtlMemMgr@ATL@@8 10040e68     StdAfx.obj
 0002:00009e84       ??_R3IAtlMemMgr@ATL@@8     10040e84     StdAfx.obj
 0002:00009e94       ??_R2IAtlMemMgr@ATL@@8     10040e94     StdAfx.obj
 0002:00009e9c       ??_R1A@?0A@EA@IAtlStringMgr@ATL@@8 10040e9c     StdAfx.obj
 0002:00009eb8       ??_R3IAtlStringMgr@ATL@@8  10040eb8     StdAfx.obj
 0002:00009ec8       ??_R2IAtlStringMgr@ATL@@8  10040ec8     StdAfx.obj
 0002:00009ed0       ??_R4CAtlStringMgr@ATL@@6B@ 10040ed0     StdAfx.obj
 0002:00009ee4       ??_R3CAtlStringMgr@ATL@@8  10040ee4     StdAfx.obj
 0002:00009ef4       ??_R2CAtlStringMgr@ATL@@8  10040ef4     StdAfx.obj
 0002:00009f00       ??_R1A@?0A@EA@CAtlStringMgr@ATL@@8 10040f00     StdAfx.obj
 0002:00009f1c       ??_R4CTabSoonikChart@@6B@  10040f1c     TabEarnChart.obj
 0002:00009f30       ??_R3CTabSoonikChart@@8    10040f30     TabEarnChart.obj
 0002:00009f40       ??_R2CTabSoonikChart@@8    10040f40     TabEarnChart.obj
 0002:00009f60       ??_R1A@?0A@EA@CTabSoonikChart@@8 10040f60     TabEarnChart.obj
 0002:00009f7c       ??_R4CTabSonikChart@@6B@   10040f7c     TabSonikChart.obj
 0002:00009f90       ??_R3CTabSonikChart@@8     10040f90     TabSonikChart.obj
 0002:00009fa0       ??_R2CTabSonikChart@@8     10040fa0     TabSonikChart.obj
 0002:00009fc0       ??_R1A@?0A@EA@CTabSonikChart@@8 10040fc0     TabSonikChart.obj
 0002:00009fdc       ??_R3CButton@@8            10040fdc     ExControl:ExDrawButton.obj
 0002:00009fec       ??_R2CButton@@8            10040fec     ExControl:ExDrawButton.obj
 0002:0000a000       ??_R1A@?0A@EA@CButton@@8   10041000     ExControl:ExDrawButton.obj
 0002:0000a01c       ??_R4CLoaderDrawButton@@6B@ 1004101c     ExControl:ExDrawButton.obj
 0002:0000a030       ??_R3CLoaderDrawButton@@8  10041030     ExControl:ExDrawButton.obj
 0002:0000a040       ??_R2CLoaderDrawButton@@8  10041040     ExControl:ExDrawButton.obj
 0002:0000a04c       ??_R1A@?0A@EA@CLoaderDrawButton@@8 1004104c     ExControl:ExDrawButton.obj
 0002:0000a068       ??_R1A@?0A@EA@CExLoadLib@@8 10041068     ExControl:ExDrawButton.obj
 0002:0000a084       ??_R3CExLoadLib@@8         10041084     ExControl:ExDrawButton.obj
 0002:0000a094       ??_R2CExLoadLib@@8         10041094     ExControl:ExDrawButton.obj
 0002:0000a09c       ??_R4CExDrawButton@@6B@    1004109c     ExControl:ExDrawButton.obj
 0002:0000a0b0       ??_R3CExDrawButton@@8      100410b0     ExControl:ExDrawButton.obj
 0002:0000a0c0       ??_R2CExDrawButton@@8      100410c0     ExControl:ExDrawButton.obj
 0002:0000a0dc       ??_R1A@?0A@EA@CExDrawButton@@8 100410dc     ExControl:ExDrawButton.obj
 0002:0000a0f8       ??_R1A@?0A@EA@CExButton@@8 100410f8     ExControl:ExDrawButton.obj
 0002:0000a114       ??_R3CExButton@@8          10041114     ExControl:ExDrawButton.obj
 0002:0000a124       ??_R2CExButton@@8          10041124     ExControl:ExDrawButton.obj
 0002:0000a13c       ??_R4CExLoadLib@@6B@       1004113c     ExControl:ExDrawButton.obj
 0002:0000a150       ??_R4CButton@@6B@          10041150     ExControl:ExButton.obj
 0002:0000a164       ??_R4CExButton@@6B@        10041164     ExControl:ExButton.obj
 0002:0000a178       ??_R4?$CArray@PAXPAX@@6B@  10041178     ExControl:StdAfx.obj
 0002:0000a18c       ??_R3?$CArray@PAXPAX@@8    1004118c     ExControl:StdAfx.obj
 0002:0000a19c       ??_R2?$CArray@PAXPAX@@8    1004119c     ExControl:StdAfx.obj
 0002:0000a1a8       ??_R1A@?0A@EA@?$CArray@PAXPAX@@8 100411a8     ExControl:StdAfx.obj
 0002:0000a1c4       ??_R4type_info@@6B@        100411c4     msvcrt:std_type_info_static.obj
 0002:0000a1d8       ??_R3type_info@@8          100411d8     msvcrt:std_type_info_static.obj
 0002:0000a1e8       ??_R2type_info@@8          100411e8     msvcrt:std_type_info_static.obj
 0002:0000a1f0       ??_R1A@?0A@EA@type_info@@8 100411f0     msvcrt:std_type_info_static.obj
 0002:0000a20c       ___safe_se_handler_table   1004120c     <linker-defined>
 0002:0000a4dc       ___volatile_metadata       100414dc     <linker-defined>
 0002:0000a94c       ___rtc_iaa                 1004194c     msvcrt:initsect.obj
 0002:0000a950       ___rtc_izz                 10041950     msvcrt:initsect.obj
 0002:0000a954       ___rtc_taa                 10041954     msvcrt:initsect.obj
 0002:0000a958       ___rtc_tzz                 10041958     msvcrt:initsect.obj
 0002:0000a95c       __tls_start                1004195c     msvcrt:tlssup.obj
 0002:0000a960       __Init_thread_epoch        10041960     msvcrt:thread_safe_statics.obj
 0002:0000a964       __tls_end                  10041964     msvcrt:tlssup.obj
 0002:0000d974       ___pobjMapEntryFirst       10044974     StdAfx.obj
 0002:0000d978       ___pobjMapEntryLast        10044978     StdAfx.obj
 0002:0000da54       __IMPORT_DESCRIPTOR_mfc140 10044a54     mfc140:mfc140.dll
 0002:0000da68       __IMPORT_DESCRIPTOR_KERNEL32 10044a68     kernel32:KERNEL32.dll
 0002:0000da7c       __IMPORT_DESCRIPTOR_USER32 10044a7c     user32:USER32.dll
 0002:0000da90       __IMPORT_DESCRIPTOR_GDI32  10044a90     gdi32:GDI32.dll
 0002:0000daa4       __IMPORT_DESCRIPTOR_ADVAPI32 10044aa4     advapi32:ADVAPI32.dll
 0002:0000dab8       __IMPORT_DESCRIPTOR_COMCTL32 10044ab8     comctl32:COMCTL32.dll
 0002:0000dacc       __IMPORT_DESCRIPTOR_ole32  10044acc     ole32:ole32.dll
 0002:0000dae0       __IMPORT_DESCRIPTOR_OLEAUT32 10044ae0     oleaut32:OLEAUT32.dll
 0002:0000daf4       __IMPORT_DESCRIPTOR_VCRUNTIME140 10044af4     vcruntime:VCRUNTIME140.dll
 0002:0000db08       __IMPORT_DESCRIPTOR_api-ms-win-crt-runtime-l1-1-0 10044b08     ucrt:api-ms-win-crt-runtime-l1-1-0.dll
 0002:0000db1c       __IMPORT_DESCRIPTOR_api-ms-win-crt-stdio-l1-1-0 10044b1c     ucrt:api-ms-win-crt-stdio-l1-1-0.dll
 0002:0000db30       __IMPORT_DESCRIPTOR_api-ms-win-crt-string-l1-1-0 10044b30     ucrt:api-ms-win-crt-string-l1-1-0.dll
 0002:0000db44       __IMPORT_DESCRIPTOR_api-ms-win-crt-convert-l1-1-0 10044b44     ucrt:api-ms-win-crt-convert-l1-1-0.dll
 0002:0000db58       __IMPORT_DESCRIPTOR_api-ms-win-crt-multibyte-l1-1-0 10044b58     ucrt:api-ms-win-crt-multibyte-l1-1-0.dll
 0002:0000db6c       __IMPORT_DESCRIPTOR_api-ms-win-crt-time-l1-1-0 10044b6c     ucrt:api-ms-win-crt-time-l1-1-0.dll
 0002:0000db80       __IMPORT_DESCRIPTOR_api-ms-win-crt-heap-l1-1-0 10044b80     ucrt:api-ms-win-crt-heap-l1-1-0.dll
 0002:0000db94       __IMPORT_DESCRIPTOR_api-ms-win-crt-utility-l1-1-0 10044b94     ucrt:api-ms-win-crt-utility-l1-1-0.dll
 0002:0000dba8       __IMPORT_DESCRIPTOR_api-ms-win-crt-math-l1-1-0 10044ba8     ucrt:api-ms-win-crt-math-l1-1-0.dll
 0002:0000dbbc       __NULL_IMPORT_DESCRIPTOR   10044bbc     mfc140:mfc140.dll
 0003:00000090       ?CDlgTimeSetup_ID1@@3PAIA  10047090     DlgTimeSetup.obj
 0003:000000e4       ?CDlgTimeSetup_ID2@@3PAIA  100470e4     DlgTimeSetup.obj
 0003:00000108       __pIncludeInitManaged      10047108     StdAfx.obj
 0003:0000010c       ?_AtlComModule@ATL@@3VCAtlComModule@1@A 1004710c     StdAfx.obj
 0003:00000134       ?_AtlWinModule@ATL@@3VCAtlWinModule@1@A 10047134     StdAfx.obj
 0003:00000160       ?parms@?1??put_ColumnCount@CMschart1@@QAEXF@Z@4PAEA 10047160     TabEarnChart.obj
 0003:00000164       ?parms@?1??put_Data@CMschart1@@QAEXPBD@Z@4PAEA 10047164     TabEarnChart.obj
 0003:00000168       ?parms@?1??put_Row@CMschart1@@QAEXF@Z@4PAEA 10047168     TabEarnChart.obj
 0003:0000016c       ?parms@?1??put_RowCount@CMschart1@@QAEXF@Z@4PAEA 1004716c     TabEarnChart.obj
 0003:00000170       ?parms@?1??put_RowLabel@CMschart1@@QAEXPBD@Z@4PAEA 10047170     TabEarnChart.obj
 0003:00000174       ?parms@?1??put_AllowSelections@CMschart1@@QAEXH@Z@4PAEA 10047174     TabEarnChart.obj
 0003:00000178       ?m_arPermanentHandle@@3V?$CArray@PAXPAX@@A 10047178     ExControl:StdAfx.obj
 0003:0000018c       _WinbaseIsolationAwarePrivateT_UnPgpgk 1004718c     mfcs140:nolib.obj
 0003:00000190       ___security_cookie_complement 10047190     msvcrt:gs_cookie.obj
 0003:00000194       ___security_cookie         10047194     msvcrt:gs_cookie.obj
 0003:00000198       __fltused                  10047198     msvcrt:fltused.obj
 0003:0000019c       ___scrt_native_dllmain_reason 1004719c     msvcrt:utility.obj
 0003:000001a0       __Init_global_epoch        100471a0     msvcrt:thread_safe_statics.obj
 0003:000001b0       ___isa_enabled             100471b0     msvcrt:cpu_disp.obj
 0003:000001c0       ___scrt_ucrt_dll_is_in_use 100471c0     msvcrt:ucrt_stubs.obj
 0003:000001c4       ??_R0PAVCException@@@8     100471c4     STGfxOutBarCtrl.obj
 0003:000001e0       ??_R0PAVCResourceException@@@8 100471e0     GridCellBase.obj
 0003:00000204       ??_R0PAVCMemoryException@@@8 10047204     GridCtrl.obj
 0003:00000224       ??_R0PAVCFileException@@@8 10047224     GridCtrl.obj
 0003:00000248       ??_R0?AVCObject@@@8        10047248     DataItem.obj
 0003:00000260       ??_R0?AV?$CArray@NN@@@8    10047260     DataItem.obj
 0003:0000027c       ??_R0?AVCIDataItem0001@@@8 1004727c     DataItem.obj
 0003:0000029c       ??_R0?AVCSTDataItem@@@8    1004729c     DataItem.obj
 0003:000002b8       ??_R0?AVCISDataItem0001@@@8 100472b8     SDataItem.obj
 0003:000002d8       ??_R0?AVCSDataItem@@@8     100472d8     SDataItem.obj
 0003:000002f4       ??_R0?AVCGdiObject@@@8     100472f4     STGfxOutBarCtrl.obj
 0003:00000310       ??_R0?AVCPen@@@8           10047310     STGfxOutBarCtrl.obj
 0003:00000324       ??_R0?AVCFont@@@8          10047324     STGfxOutBarCtrl.obj
 0003:00000338       ??_R0?AVCBitmap@@@8        10047338     STGfxOutBarCtrl.obj
 0003:00000350       ??_R0?AVCRgn@@@8           10047350     STGfxOutBarCtrl.obj
 0003:00000364       ??_R0?AVCWnd@@@8           10047364     STGfxOutBarCtrl.obj
 0003:00000378       ??_R0?AVCCmdTarget@@@8     10047378     STGfxOutBarCtrl.obj
 0003:00000394       ??_R0?AUIGfxOutBarCtrl@@@8 10047394     STGfxOutBarCtrl.obj
 0003:000003b4       ??_R0?AUIGfxOutBarCtrl2@@@8 100473b4     STGfxOutBarCtrl.obj
 0003:000003d4       ??_R0?AVCSTGfxOutBarCtrl@@@8 100473d4     STGfxOutBarCtrl.obj
 0003:000003f4       ??_R0?AVCBarItem@CSTGfxOutBarCtrl@@@8 100473f4     STGfxOutBarCtrl.obj
 0003:0000041c       ??_R0?AVCBarFolder@CSTGfxOutBarCtrl@@@8 1004741c     STGfxOutBarCtrl.obj
 0003:00000448       ??_R0?AVCImpl_IGfxOutBarCtrl@@@8 10047448     STGfxOutBarCtrl.obj
 0003:0000046c       ??_R0?AVCStrategyLoader@@@8 1004746c     StrategyLoader.obj
 0003:0000048c       ??_R0?AVCTreeCtrl@@@8      1004748c     STTreeCtrl.obj
 0003:000004a4       ??_R0?AVCSTTreeCtrl@@@8    100474a4     STTreeCtrl.obj
 0003:000004c0       ??_R0?AVCSTExtTree@@@8     100474c0     STTreeCtrl.obj
 0003:000004dc       ??_R0?AVCSTBasicTree@@@8   100474dc     STTreeCtrl.obj
 0003:000004f8       ??_R0?AVCMschart1@@@8      100474f8     mschart1.obj
 0003:00000510       ??_R0?AVCTChart@@@8        10047510     tchart.obj
 0003:00000528       ??_R0?AVCTabCtrl@@@8       10047528     XTabCtrl.obj
 0003:00000540       ??_R0?AV?$CArray@HH@@@8    10047540     XTabCtrl.obj
 0003:0000055c       ??_R0?AVCXTabCtrl@@@8      1004755c     XTabCtrl.obj
 0003:00000574       ??_R0?AVCDialog@@@8        10047574     DlgInterface.obj
 0003:0000058c       ??_R0?AVCEscDialog@@@8     1004758c     DlgInterface.obj
 0003:000005a8       ??_R0?AVCDlgInterface@@@8  100475a8     DlgInterface.obj
 0003:000005c4       ??_R0?AVCBrush@@@8         100475c4     DlgOptimizer.obj
 0003:000005dc       ??_R0?AVCListBox@@@8       100475dc     DlgOptimizer.obj
 0003:000005f4       ??_R0?AVCDlgOptimizer@@@8  100475f4     DlgOptimizer.obj
 0003:00000610       ??_R0?AV?$CList@PAUSTMNG_ITEMINFO@@PAU1@@@@8 10047610     DlgOptimizer.obj
 0003:00000640       ??_R0?AUISTUserData@@@8    10047640     DlgOptimizer.obj
 0003:0000065c       ??_R0?AV?$CArray@UST_VALUEOPTIMAZE@@U1@@@@8 1004765c     DlgOptimizer.obj
 0003:0000068c       ??_R0?AV?$CArray@PAVCDialog@@PAV1@@@@8 1004768c     DlgOptimizer.obj
 0003:000006b8       ??_R0?AV?$CArray@PAUST_VALUE@@PAU1@@@@8 100476b8     DlgOptimizer.obj
 0003:000006e4       ??_R0?AV?$CArray@UST_RUNVALUE@@U1@@@@8 100476e4     DlgOptimizer.obj
 0003:00000710       ??_R0?AV?$CArray@UST_GRIDDATA@@U1@@@@8 10047710     DlgOptimizer.obj
 0003:0000073c       ??_R0?AV?$CArray@UST_STRGRIDDATA@@U1@@@@8 1004773c     DlgOptimizer.obj
 0003:00000768       ??_R0?AVCSTUserData@CDlgOptimizer@@@8 10047768     DlgOptimizer.obj
 0003:00000790       ??_R0?AVCDlgResult@@@8     10047790     DlgResult.obj
 0003:000007ac       ??_R0?AVCStatic@@@8        100477ac     DlgTimeSetup.obj
 0003:000007c4       ??_R0?AV?$CList@PAVCCFGScanInfo@@PAV1@@@@8 100477c4     DlgTimeSetup.obj
 0003:000007f4       ??_R0?AVCDlgTimeSetup@@@8  100477f4     DlgTimeSetup.obj
 0003:00000810       ??_R0?AV?$CArray@PAVCStatic@@PAV1@@@@8 10047810     DlgTimeSetup.obj
 0003:0000083c       ??_R0?AVCDlgTrade@@@8      1004783c     DlgTrade.obj
 0003:00000854       ??_R0?AVCGridCell@@@8      10047854     GridCell.obj
 0003:0000086c       ??_R0?AVCGridCellBase@@@8  1004786c     GridCell.obj
 0003:00000888       ??_R0?AVCGridDefaultCell@@@8 10047888     GridCell.obj
 0003:000008a8       ??_R0?AVCException@@@8     100478a8     GridCtrl.obj
 0003:000008c4       ??_R0?AVCFileException@@@8 100478c4     GridCtrl.obj
 0003:000008e4       ??_R0?AVCCommonDialog@@@8  100478e4     GridCtrl.obj
 0003:00000900       ??_R0?AVCMemDC@@@8         10047900     GridCtrl.obj
 0003:00000918       ??_R0?AVCDC@@@8            10047918     GridCtrl.obj
 0003:0000092c       ??_R0?AVCGridCtrl@@@8      1004792c     GridCtrl.obj
 0003:00000944       ??_R0?AV?$CTypedPtrArray@VCObArray@@PAVCGridCellBase@@@@@8 10047944     GridCtrl.obj
 0003:00000984       ??_R0?AVCObArray@@@8       10047984     GridCtrl.obj
 0003:000009a0       ??_R0?AV?$CTypedPtrArray@VCObArray@@PAV?$CTypedPtrArray@VCObArray@@PAVCGridCellBase@@@@@@@8 100479a0     GridCtrl.obj
 0003:00000a00       ??_R0?AV?$CMap@KKVCCellID@@AAV1@@@@8 10047a00     GridCtrl.obj
 0003:00000a28       ??_R0?AVCGridDropTarget@@@8 10047a28     GridDropTarget.obj
 0003:00000a48       ??_R0?AVCOleDropTarget@@@8 10047a48     GridDropTarget.obj
 0003:00000a68       ??_R0?AVCEdit@@@8          10047a68     InPlaceEdit.obj
 0003:00000a7c       ??_R0?AVCInPlaceEdit@@@8   10047a7c     InPlaceEdit.obj
 0003:00000a98       ??_R0?AVCTitleTip@@@8      10047a98     TitleTip.obj
 0003:00000ab0       ??_R0?AVCWin32Heap@ATL@@@8 10047ab0     StdAfx.obj
 0003:00000ad0       ??_R0?AUIAtlMemMgr@ATL@@@8 10047ad0     StdAfx.obj
 0003:00000af0       ??_R0?AUIAtlStringMgr@ATL@@@8 10047af0     StdAfx.obj
 0003:00000b10       ??_R0?AVCAtlStringMgr@ATL@@@8 10047b10     StdAfx.obj
 0003:00000b30       ??_R0?AVCTabSoonikChart@@@8 10047b30     TabEarnChart.obj
 0003:00000b50       ??_R0?AVCTabSonikChart@@@8 10047b50     TabSonikChart.obj
 0003:00000b70       ??_R0?AVCButton@@@8        10047b70     ExControl:ExDrawButton.obj
 0003:00000b88       ??_R0?AVCLoaderDrawButton@@@8 10047b88     ExControl:ExDrawButton.obj
 0003:00000ba8       ??_R0?AVCExLoadLib@@@8     10047ba8     ExControl:ExDrawButton.obj
 0003:00000bc4       ??_R0?AVCExDrawButton@@@8  10047bc4     ExControl:ExDrawButton.obj
 0003:00000be0       ??_R0?AVCExButton@@@8      10047be0     ExControl:ExDrawButton.obj
 0003:00000bf8       ??_R0?AV?$CArray@PAXPAX@@@8 10047bf8     ExControl:StdAfx.obj
 0003:00000c18       ??_R0?AVtype_info@@@8      10047c18     msvcrt:std_type_info_static.obj
 0003:00000c34       ?m_bIsDebugVersion@CStrategyLoader@@1HA 10047c34     StrategyLoader.obj
 0003:00000c38       ?m_strChartOcxFolder@CStrategyLoader@@1V?$CStringT@DV?$StrTraitMFC_DLL@DV?$ChTraitsCRT@D@ATL@@@@@ATL@@A 10047c38     StrategyLoader.obj
 0003:00000c40       ?_OptionsStorage@?1??__local_stdio_scanf_options@@9@4_KA 10047c40     StrategyLoader.obj
 0003:00000c48       ?_OptionsStorage@?1??__local_stdio_printf_options@@9@4_KA 10047c48     STTreeCtrl.obj
 0003:00000c5c       ?g_strChartProgID@@3V?$CStringT@DV?$StrTraitMFC_DLL@DV?$ChTraitsCRT@D@ATL@@@@@ATL@@A 10047c5c     SiteDefine_DB.obj
 0003:00000c60       ?hTradeInst@@3PAUHINSTANCE__@@A 10047c60     DlgOptimizer.obj
 0003:00000c98       ?gvdi@?6??GetCell@CGridCtrl@@QBEPAVCGridCellBase@@HH@Z@4UtagGV_DISPINFO@@A 10047c98     GridCtrl.obj
 0003:00000d0c       ?$TSS0@?6??GetCell@CGridCtrl@@QBEPAVCGridCellBase@@HH@Z@4HA 10047d0c     GridCtrl.obj
 0003:00000d10       ?cell@?6??GetCell@CGridCtrl@@QBEPAVCGridCellBase@@HH@Z@4VCGridCell@@A 10047d10     GridCtrl.obj
 0003:00000d48       ?$TSS1@?6??GetCell@CGridCtrl@@QBEPAVCGridCellBase@@HH@Z@4HA 10047d48     GridCtrl.obj
 0003:00000d5c       __afxForceEXTDLL           10047d5c     IndexOptimizer.obj
 0003:00000d80       ___@@_PchSym_@00@UtrgUhixUrypUrypPwiumUKxwwiumRxhUPlyqUrmwvclkgrnraviUhgwzucOlyq@4B2008FD98C1DD4 10047d80     StdAfx.obj
 0003:00000d84       ?strHeap@?1??GetInstance@CAtlStringMgr@ATL@@SAPAUIAtlStringMgr@3@XZ@4VCWin32Heap@3@A 10047d84     StdAfx.obj
 0003:00000d90       ?$TSS0@?1??GetInstance@CAtlStringMgr@ATL@@SAPAUIAtlStringMgr@3@XZ@4HA 10047d90     StdAfx.obj
 0003:00000d94       ?strMgr@?1??GetInstance@CAtlStringMgr@ATL@@SAPAUIAtlStringMgr@3@XZ@4V23@A 10047d94     StdAfx.obj
 0003:00000db0       ?$TSS1@?1??GetInstance@CAtlStringMgr@ATL@@SAPAUIAtlStringMgr@3@XZ@4HA 10047db0     StdAfx.obj
 0003:00000db4       ?m_bInitFailed@CAtlBaseModule@ATL@@2_NA 10047db4     StdAfx.obj
 0003:00000db8       ?_pPerfRegFunc@ATL@@3P6AJPAUHINSTANCE__@@@ZA 10047db8     StdAfx.obj
 0003:00000dbc       ?_pPerfUnRegFunc@ATL@@3P6AJXZA 10047dbc     StdAfx.obj
 0003:00000dc0       ?_AtlRegisterPerUser@ATL@@3_NA 10047dc0     StdAfx.obj
 0003:00000dc4       ?_pAtlModule@ATL@@3PAVCAtlModule@1@A 10047dc4     StdAfx.obj
 0003:00000dc8       ?_pModule@ATL@@3PAVCComModule@1@A 10047dc8     StdAfx.obj
 0003:00000dcc       ?_pAtlAutoThreadModule@ATL@@3PAUIAtlAutoThreadModule@1@A 10047dcc     StdAfx.obj
 0003:00000dd0       ?atlTraceGeneral@ATL@@3V?$CTraceCategoryEx@$00$0A@@1@A 10047dd0     StdAfx.obj
 0003:00000dd4       ?atlTraceCOM@ATL@@3V?$CTraceCategoryEx@$01$0A@@1@A 10047dd4     StdAfx.obj
 0003:00000dd8       ?atlTraceQI@ATL@@3V?$CTraceCategoryEx@$03$0A@@1@A 10047dd8     StdAfx.obj
 0003:00000ddc       ?atlTraceRegistrar@ATL@@3V?$CTraceCategoryEx@$07$0A@@1@A 10047ddc     StdAfx.obj
 0003:00000de0       ?atlTraceRefcount@ATL@@3V?$CTraceCategoryEx@$0BA@$0A@@1@A 10047de0     StdAfx.obj
 0003:00000de4       ?atlTraceWindowing@ATL@@3V?$CTraceCategoryEx@$0CA@$0A@@1@A 10047de4     StdAfx.obj
 0003:00000de8       ?atlTraceControls@ATL@@3V?$CTraceCategoryEx@$0EA@$0A@@1@A 10047de8     StdAfx.obj
 0003:00000dec       ?atlTraceHosting@ATL@@3V?$CTraceCategoryEx@$0IA@$0A@@1@A 10047dec     StdAfx.obj
 0003:00000df0       ?atlTraceDBClient@ATL@@3V?$CTraceCategoryEx@$0BAA@$0A@@1@A 10047df0     StdAfx.obj
 0003:00000df4       ?atlTraceDBProvider@ATL@@3V?$CTraceCategoryEx@$0CAA@$0A@@1@A 10047df4     StdAfx.obj
 0003:00000df8       ?atlTraceSnapin@ATL@@3V?$CTraceCategoryEx@$0EAA@$0A@@1@A 10047df8     StdAfx.obj
 0003:00000dfc       ?atlTraceNotImpl@ATL@@3V?$CTraceCategoryEx@$0IAA@$0A@@1@A 10047dfc     StdAfx.obj
 0003:00000e00       ?atlTraceAllocation@ATL@@3V?$CTraceCategoryEx@$0BAAA@$0A@@1@A 10047e00     StdAfx.obj
 0003:00000e04       ?atlTraceException@ATL@@3V?$CTraceCategoryEx@$0CAAA@$0A@@1@A 10047e04     StdAfx.obj
 0003:00000e08       ?atlTraceTime@ATL@@3V?$CTraceCategoryEx@$0EAAA@$0A@@1@A 10047e08     StdAfx.obj
 0003:00000e0c       ?atlTraceCache@ATL@@3V?$CTraceCategoryEx@$0IAAA@$0A@@1@A 10047e0c     StdAfx.obj
 0003:00000e10       ?atlTraceStencil@ATL@@3V?$CTraceCategoryEx@$0BAAAA@$0A@@1@A 10047e10     StdAfx.obj
 0003:00000e14       ?atlTraceString@ATL@@3V?$CTraceCategoryEx@$0CAAAA@$0A@@1@A 10047e14     StdAfx.obj
 0003:00000e18       ?atlTraceMap@ATL@@3V?$CTraceCategoryEx@$0EAAAA@$0A@@1@A 10047e18     StdAfx.obj
 0003:00000e1c       ?atlTraceUtil@ATL@@3V?$CTraceCategoryEx@$0IAAAA@$0A@@1@A 10047e1c     StdAfx.obj
 0003:00000e20       ?atlTraceSecurity@ATL@@3V?$CTraceCategoryEx@$0BAAAAA@$0A@@1@A 10047e20     StdAfx.obj
 0003:00000e24       ?atlTraceSync@ATL@@3V?$CTraceCategoryEx@$0CAAAAA@$0A@@1@A 10047e24     StdAfx.obj
 0003:00000e28       ?atlTraceISAPI@ATL@@3V?$CTraceCategoryEx@$0EAAAAA@$0A@@1@A 10047e28     StdAfx.obj
 0003:00000e2c       ?isInitialized@CAtlStringMgr@ATL@@0_NA 10047e2c     StdAfx.obj
 0003:00000e2d       ?InitializeCAtlStringMgr@ATLImplementationDetails@ATL@@3UCAtlStringMgrStaticInitializer@12@A 10047e2d     StdAfx.obj
 0003:00000e80       ___@@_PchSym_@00@UtrgUhixUrypUrypPwiumUKxwwiumRxhUPlyqUvcxlmgiloUhgwzucOlyq@4B2008FD98C1DD4 10047e80     ExControl:StdAfx.obj
 0003:00000ebc       _IsolationAwarePrivateT_SqbjaYRiRY 10047ebc     mfcs140:nolib.obj
 0003:00000ec0       _IsolationAwarePrivateT_SAbnPgpgk 10047ec0     mfcs140:nolib.obj
 0003:00000ec4       _WinbaseIsolationAwarePrivateT_SpeRNgRQnPgpgk 10047ec4     mfcs140:nolib.obj
 0003:00000ec8       _WinbaseIsolationAwarePrivateT_SpYRNahcpNYYRQ 10047ec8     mfcs140:nolib.obj
 0003:00000ecc       __afxForceEXCLUDE          10047ecc     mfcs140:nolib.obj
 0003:00000ed0       ?s_pfn@?1??IsolationAwareCreateActCtxW@@9@4@4P6GPAXPBUtagACTCTXW@@@ZA 10047ed0     mfcs140:nolib.obj
 0003:00000ed4       ?s_pfn@?1??IsolationAwareActivateActCtx@@9@8@4P6GHPAXPAK@ZA 10047ed4     mfcs140:nolib.obj
 0003:00000ed8       ?s_pfn@?1??IsolationAwareDeactivateActCtx@@9@8@4P6GHKK@ZA 10047ed8     mfcs140:nolib.obj
 0003:00000edc       ?s_pfn@?1??IsolationAwareFindActCtxSectionStringW@@9@20@4P6GHKPBU_GUID@@KPB_WPAUtagACTCTX_SECTION_KEYED_DATA@@@ZA 10047edc     mfcs140:nolib.obj
 0003:00000ee0       ?s_pfn@?1??IsolationAwareQueryActCtxW@@9@28@4P6GHKPAX0K0KPAK@ZA 10047ee0     mfcs140:nolib.obj
 0003:00000ee4       ?m@?1??WinbaseIsolationAwarePrivatetRgCebPnQQeRff_xReaRYQP_QYY@@9@4@4UIsolationAwarePrivate_zHGnoyr_zBqHyr_vAsB@@A 10047ee4     mfcs140:nolib.obj
 0003:00000ee8       ??_B?1??GetInstance@CAtlStringMgr@ATL@@SAPAUIAtlStringMgr@2@XZ@51 10047ee8     mfcs140:nolib.obj
 0003:00000eec       __afxForceSTDAFX           10047eec     mfcs140:stdafx.obj
 0003:00000ef0       ___scrt_current_native_startup_state 10047ef0     msvcrt:utility.obj
 0003:00000ef4       ___scrt_native_startup_lock 10047ef4     msvcrt:utility.obj
 0003:00000f3c       __tls_index                10047f3c     msvcrt:tlssup.obj
 0003:00000f44       ___castguard_check_failure_os_handled_fptr 10047f44     msvcrt:guard_support.obj
 0003:00001264       ___isa_available           10048264     msvcrt:cpu_disp.obj
 0003:00001268       ___favor                   10048268     msvcrt:cpu_disp.obj
 0003:0000126c       ___scrt_debugger_hook_flag 1004826c     msvcrt:utility_desktop.obj
 0003:00001270       ?__type_info_root_node@@3U__type_info_node@@A 10048270     msvcrt:tncleanup.obj
 0003:00001278       ?_AtlBaseModule@ATL@@3VCAtlBaseModule@1@A 10048278     atls:atlbase.obj
 0003:000012b0       ___@@_PchSym_@00@UzUPdlipUBUhUrmgvinvwrzgvUexgllohUzgohOmzgrevkilqPBACIAJCBDBUlyqiUcIGUhgwzucOlyq@4B2008FD98C1DD4 100482b0     atls:stdafx.obj
 0003:000012b4       ___dyn_tls_init_callback   100482b4     <common>

 entry point at        0001:000302bf

 Static symbols

 0000:fffac000       .debug$S                   10000000     IndexOptimizer.exp
 0002:fffc9000       __catchsym$??1CGdiObject@@UAE@XZ$3 10000000     DlgOptimizer.obj
 0001:fffff000       __unwindfunclet$??1CGdiObject@@UAE@XZ$2 10000000 f   DlgOptimizer.obj
 0002:fffc9000       __catchsym$??1CGdiObject@@UAE@XZ$3 10000000     DlgResult.obj
 0001:fffff000       __unwindfunclet$??1CGdiObject@@UAE@XZ$2 10000000 f   DlgResult.obj
 0002:fffc9000       __catchsym$??1CGdiObject@@UAE@XZ$3 10000000     DlgTimeSetup.obj
 0001:fffff000       __unwindfunclet$??1CGdiObject@@UAE@XZ$2 10000000 f   DlgTimeSetup.obj
 0002:fffc9000       __catchsym$??1CGdiObject@@UAE@XZ$3 10000000     GridCell.obj
 0001:fffff000       __unwindfunclet$??1CGdiObject@@UAE@XZ$2 10000000 f   GridCell.obj
 0002:fffc9000       __catchsym$??1CGdiObject@@UAE@XZ$3 10000000     GridCellBase.obj
 0001:fffff000       __unwindfunclet$??1CGdiObject@@UAE@XZ$2 10000000 f   GridCellBase.obj
 0002:fffc9000       __catchsym$??1CGdiObject@@UAE@XZ$3 10000000     GridCtrl.obj
 0002:fffc9000       __ehfuncinfo$??1AFX_EXCEPTION_LINK@@QAE@XZ 10000000     GridCtrl.obj
 0001:fffff000       __ehhandler$??1AFX_EXCEPTION_LINK@@QAE@XZ 10000000 f   GridCtrl.obj
 0001:fffff000       __unwindfunclet$??1CGdiObject@@UAE@XZ$2 10000000 f   GridCtrl.obj
 0002:fffc9000       __catchsym$??1CGdiObject@@UAE@XZ$3 10000000     STTreeCtrl.obj
 0001:fffff000       __unwindfunclet$??1CGdiObject@@UAE@XZ$2 10000000 f   STTreeCtrl.obj
 0002:fffc9000       __catchsym$??1CGdiObject@@UAE@XZ$3 10000000     TabEarnChart.obj
 0001:fffff000       __unwindfunclet$??1CGdiObject@@UAE@XZ$2 10000000 f   TabEarnChart.obj
 0002:fffc9000       __catchsym$??1CGdiObject@@UAE@XZ$3 10000000     TabSonikChart.obj
 0001:fffff000       __ehhandler$??1CSeries@@QAE@XZ 10000000 f   TabSonikChart.obj
 0001:fffff000       __unwindfunclet$??1CGdiObject@@UAE@XZ$2 10000000 f   TabSonikChart.obj
 0002:fffc9000       __unwindtable$??1CSeries@@QAE@XZ 10000000     TabSonikChart.obj
 0002:fffc9000       __catchsym$??1CGdiObject@@UAE@XZ$3 10000000     TitleTip.obj
 0001:fffff000       __unwindfunclet$??1CGdiObject@@UAE@XZ$2 10000000 f   TitleTip.obj
 0002:fffc9000       __catchsym$??1CGdiObject@@UAE@XZ$3 10000000     XTabCtrl.obj
 0001:fffff000       __unwindfunclet$??1CGdiObject@@UAE@XZ$2 10000000 f   XTabCtrl.obj
 0002:fffc9000       ??isInitialized$initializer$@CAtlStringMgr@ATL@@0P6AXXZA@@3P6AXXZA 10000000     ExControl:StdAfx.obj
 0002:fffc9000       ?InitializeCAtlStringMgr$initializer$@ATLImplementationDetails@ATL@@3P6AXXZA 10000000     ExControl:StdAfx.obj
 0002:fffc9000       ?_AtlComModule$initializer$@ATL@@3P6AXXZA 10000000     ExControl:StdAfx.obj
 0002:fffc9000       ?_AtlWinModule$initializer$@ATL@@3P6AXXZA 10000000     ExControl:StdAfx.obj
 0002:fffc9000       __guard_fids_??__E_AtlBaseModule@ATL@@YAXXZ 10000000     atls:atlbase.obj
 0002:fffc9000       __guard_fids__             10000000     atls:atlbase.obj
 0000:fffac000       .debug$S                   10000000     mfc140:mfc140.dll
 0000:fffac000       .debug$S                   10000000     mfc140:mfc140.dll
 0000:fffac000       .debug$S                   10000000     mfc140:mfc140.dll
 0000:fffac000       .debug$S                   10000000     mfc140:mfc140.dll
 0000:fffac000       .debug$S                   10000000     mfc140:mfc140.dll
 0000:fffac000       .debug$S                   10000000     mfc140:mfc140.dll
 0000:fffac000       .debug$S                   10000000     mfc140:mfc140.dll
 0000:fffac000       .debug$S                   10000000     mfc140:mfc140.dll
 0000:fffac000       .debug$S                   10000000     mfc140:mfc140.dll
 0000:fffac000       .debug$S                   10000000     mfc140:mfc140.dll
 0000:fffac000       .debug$S                   10000000     mfc140:mfc140.dll
 0000:fffac000       .debug$S                   10000000     mfc140:mfc140.dll
 0000:fffac000       .debug$S                   10000000     mfc140:mfc140.dll
 0000:fffac000       .debug$S                   10000000     mfc140:mfc140.dll
 0000:fffac000       .debug$S                   10000000     mfc140:mfc140.dll
 0000:fffac000       .debug$S                   10000000     mfc140:mfc140.dll
 0000:fffac000       .debug$S                   10000000     mfc140:mfc140.dll
 0000:fffac000       .debug$S                   10000000     mfc140:mfc140.dll
 0000:fffac000       .debug$S                   10000000     mfc140:mfc140.dll
 0000:fffac000       .debug$S                   10000000     mfc140:mfc140.dll
 0000:fffac000       .debug$S                   10000000     mfc140:mfc140.dll
 0000:fffac000       .debug$S                   10000000     mfc140:mfc140.dll
 0000:fffac000       .debug$S                   10000000     mfc140:mfc140.dll
 0000:fffac000       .debug$S                   10000000     mfc140:mfc140.dll
 0000:fffac000       .debug$S                   10000000     mfc140:mfc140.dll
 0000:fffac000       .debug$S                   10000000     mfc140:mfc140.dll
 0000:fffac000       .debug$S                   10000000     mfc140:mfc140.dll
 0000:fffac000       .debug$S                   10000000     mfc140:mfc140.dll
 0000:fffac000       .debug$S                   10000000     mfc140:mfc140.dll
 0000:fffac000       .debug$S                   10000000     mfc140:mfc140.dll
 0000:fffac000       .debug$S                   10000000     mfc140:mfc140.dll
 0000:fffac000       .debug$S                   10000000     mfc140:mfc140.dll
 0000:fffac000       .debug$S                   10000000     mfc140:mfc140.dll
 0000:fffac000       .debug$S                   10000000     mfc140:mfc140.dll
 0000:fffac000       .debug$S                   10000000     mfc140:mfc140.dll
 0000:fffac000       .debug$S                   10000000     mfc140:mfc140.dll
 0000:fffac000       .debug$S                   10000000     mfc140:mfc140.dll
 0000:fffac000       .debug$S                   10000000     mfc140:mfc140.dll
 0000:fffac000       .debug$S                   10000000     mfc140:mfc140.dll
 0000:fffac000       .debug$S                   10000000     mfc140:mfc140.dll
 0000:fffac000       .debug$S                   10000000     mfc140:mfc140.dll
 0000:fffac000       .debug$S                   10000000     mfc140:mfc140.dll
 0000:fffac000       .debug$S                   10000000     mfc140:mfc140.dll
 0000:fffac000       .debug$S                   10000000     mfc140:mfc140.dll
 0000:fffac000       .debug$S                   10000000     mfc140:mfc140.dll
 0000:fffac000       .debug$S                   10000000     mfc140:mfc140.dll
 0000:fffac000       .debug$S                   10000000     mfc140:mfc140.dll
 0000:fffac000       .debug$S                   10000000     mfc140:mfc140.dll
 0000:fffac000       .debug$S                   10000000     mfc140:mfc140.dll
 0000:fffac000       .debug$S                   10000000     mfc140:mfc140.dll
 0000:fffac000       .debug$S                   10000000     mfc140:mfc140.dll
 0000:fffac000       .debug$S                   10000000     mfc140:mfc140.dll
 0000:fffac000       .debug$S                   10000000     mfc140:mfc140.dll
 0000:fffac000       .debug$S                   10000000     mfc140:mfc140.dll
 0000:fffac000       .debug$S                   10000000     mfc140:mfc140.dll
 0000:fffac000       .debug$S                   10000000     mfc140:mfc140.dll
 0000:fffac000       .debug$S                   10000000     mfc140:mfc140.dll
 0000:fffac000       .debug$S                   10000000     mfc140:mfc140.dll
 0000:fffac000       .debug$S                   10000000     mfc140:mfc140.dll
 0000:fffac000       .debug$S                   10000000     mfc140:mfc140.dll
 0000:fffac000       .debug$S                   10000000     mfc140:mfc140.dll
 0000:fffac000       .debug$S                   10000000     mfc140:mfc140.dll
 0000:fffac000       .debug$S                   10000000     mfc140:mfc140.dll
 0000:fffac000       .debug$S                   10000000     mfc140:mfc140.dll
 0000:fffac000       .debug$S                   10000000     mfc140:mfc140.dll
 0000:fffac000       .debug$S                   10000000     mfc140:mfc140.dll
 0000:fffac000       .debug$S                   10000000     mfc140:mfc140.dll
 0000:fffac000       .debug$S                   10000000     mfc140:mfc140.dll
 0000:fffac000       .debug$S                   10000000     mfc140:mfc140.dll
 0000:fffac000       .debug$S                   10000000     mfc140:mfc140.dll
 0000:fffac000       .debug$S                   10000000     mfc140:mfc140.dll
 0000:fffac000       .debug$S                   10000000     mfc140:mfc140.dll
 0000:fffac000       .debug$S                   10000000     mfc140:mfc140.dll
 0000:fffac000       .debug$S                   10000000     mfc140:mfc140.dll
 0000:fffac000       .debug$S                   10000000     mfc140:mfc140.dll
 0000:fffac000       .debug$S                   10000000     mfc140:mfc140.dll
 0000:fffac000       .debug$S                   10000000     mfc140:mfc140.dll
 0000:fffac000       .debug$S                   10000000     mfc140:mfc140.dll
 0000:fffac000       .debug$S                   10000000     mfc140:mfc140.dll
 0000:fffac000       .debug$S                   10000000     mfc140:mfc140.dll
 0000:fffac000       .debug$S                   10000000     mfc140:mfc140.dll
 0000:fffac000       .debug$S                   10000000     mfc140:mfc140.dll
 0000:fffac000       .debug$S                   10000000     mfc140:mfc140.dll
 0000:fffac000       .debug$S                   10000000     mfc140:mfc140.dll
 0000:fffac000       .debug$S                   10000000     mfc140:mfc140.dll
 0000:fffac000       .debug$S                   10000000     mfc140:mfc140.dll
 0000:fffac000       .debug$S                   10000000     mfc140:mfc140.dll
 0000:fffac000       .debug$S                   10000000     mfc140:mfc140.dll
 0000:fffac000       .debug$S                   10000000     mfc140:mfc140.dll
 0000:fffac000       .debug$S                   10000000     mfc140:mfc140.dll
 0000:fffac000       .debug$S                   10000000     mfc140:mfc140.dll
 0000:fffac000       .debug$S                   10000000     mfc140:mfc140.dll
 0000:fffac000       .debug$S                   10000000     mfc140:mfc140.dll
 0000:fffac000       .debug$S                   10000000     mfc140:mfc140.dll
 0000:fffac000       .debug$S                   10000000     mfc140:mfc140.dll
 0000:fffac000       .debug$S                   10000000     mfc140:mfc140.dll
 0000:fffac000       .debug$S                   10000000     mfc140:mfc140.dll
 0000:fffac000       .debug$S                   10000000     mfc140:mfc140.dll
 0000:fffac000       .debug$S                   10000000     mfc140:mfc140.dll
 0000:fffac000       .debug$S                   10000000     mfc140:mfc140.dll
 0000:fffac000       .debug$S                   10000000     mfc140:mfc140.dll
 0000:fffac000       .debug$S                   10000000     mfc140:mfc140.dll
 0000:fffac000       .debug$S                   10000000     mfc140:mfc140.dll
 0000:fffac000       .debug$S                   10000000     mfc140:mfc140.dll
 0000:fffac000       .debug$S                   10000000     mfc140:mfc140.dll
 0000:fffac000       .debug$S                   10000000     mfc140:mfc140.dll
 0000:fffac000       .debug$S                   10000000     mfc140:mfc140.dll
 0000:fffac000       .debug$S                   10000000     mfc140:mfc140.dll
 0000:fffac000       .debug$S                   10000000     mfc140:mfc140.dll
 0000:fffac000       .debug$S                   10000000     mfc140:mfc140.dll
 0000:fffac000       .debug$S                   10000000     mfc140:mfc140.dll
 0000:fffac000       .debug$S                   10000000     mfc140:mfc140.dll
 0000:fffac000       .debug$S                   10000000     mfc140:mfc140.dll
 0000:fffac000       .debug$S                   10000000     mfc140:mfc140.dll
 0000:fffac000       .debug$S                   10000000     mfc140:mfc140.dll
 0000:fffac000       .debug$S                   10000000     mfc140:mfc140.dll
 0000:fffac000       .debug$S                   10000000     mfc140:mfc140.dll
 0000:fffac000       .debug$S                   10000000     mfc140:mfc140.dll
 0000:fffac000       .debug$S                   10000000     mfc140:mfc140.dll
 0000:fffac000       .debug$S                   10000000     mfc140:mfc140.dll
 0000:fffac000       .debug$S                   10000000     mfc140:mfc140.dll
 0000:fffac000       .debug$S                   10000000     mfc140:mfc140.dll
 0000:fffac000       .debug$S                   10000000     mfc140:mfc140.dll
 0000:fffac000       .debug$S                   10000000     mfc140:mfc140.dll
 0000:fffac000       .debug$S                   10000000     mfc140:mfc140.dll
 0000:fffac000       .debug$S                   10000000     mfc140:mfc140.dll
 0000:fffac000       .debug$S                   10000000     mfc140:mfc140.dll
 0000:fffac000       .debug$S                   10000000     mfc140:mfc140.dll
 0000:fffac000       .debug$S                   10000000     mfc140:mfc140.dll
 0000:fffac000       .debug$S                   10000000     mfc140:mfc140.dll
 0000:fffac000       .debug$S                   10000000     mfc140:mfc140.dll
 0000:fffac000       .debug$S                   10000000     mfc140:mfc140.dll
 0000:fffac000       .debug$S                   10000000     mfc140:mfc140.dll
 0000:fffac000       .debug$S                   10000000     mfc140:mfc140.dll
 0000:fffac000       .debug$S                   10000000     mfc140:mfc140.dll
 0000:fffac000       .debug$S                   10000000     mfc140:mfc140.dll
 0000:fffac000       .debug$S                   10000000     mfc140:mfc140.dll
 0000:fffac000       .debug$S                   10000000     mfc140:mfc140.dll
 0000:fffac000       .debug$S                   10000000     mfc140:mfc140.dll
 0000:fffac000       .debug$S                   10000000     mfc140:mfc140.dll
 0000:fffac000       .debug$S                   10000000     mfc140:mfc140.dll
 0000:fffac000       .debug$S                   10000000     mfc140:mfc140.dll
 0000:fffac000       .debug$S                   10000000     mfc140:mfc140.dll
 0000:fffac000       .debug$S                   10000000     mfc140:mfc140.dll
 0000:fffac000       .debug$S                   10000000     mfc140:mfc140.dll
 0000:fffac000       .debug$S                   10000000     mfc140:mfc140.dll
 0000:fffac000       .debug$S                   10000000     mfc140:mfc140.dll
 0000:fffac000       .debug$S                   10000000     mfc140:mfc140.dll
 0000:fffac000       .debug$S                   10000000     mfc140:mfc140.dll
 0000:fffac000       .debug$S                   10000000     mfc140:mfc140.dll
 0000:fffac000       .debug$S                   10000000     mfc140:mfc140.dll
 0000:fffac000       .debug$S                   10000000     mfc140:mfc140.dll
 0000:fffac000       .debug$S                   10000000     mfc140:mfc140.dll
 0000:fffac000       .debug$S                   10000000     mfc140:mfc140.dll
 0000:fffac000       .debug$S                   10000000     mfc140:mfc140.dll
 0000:fffac000       .debug$S                   10000000     mfc140:mfc140.dll
 0000:fffac000       .debug$S                   10000000     mfc140:mfc140.dll
 0000:fffac000       .debug$S                   10000000     mfc140:mfc140.dll
 0000:fffac000       .debug$S                   10000000     mfc140:mfc140.dll
 0000:fffac000       .debug$S                   10000000     mfc140:mfc140.dll
 0000:fffac000       .debug$S                   10000000     mfc140:mfc140.dll
 0000:fffac000       .debug$S                   10000000     mfc140:mfc140.dll
 0000:fffac000       .debug$S                   10000000     mfc140:mfc140.dll
 0000:fffac000       .debug$S                   10000000     mfc140:mfc140.dll
 0000:fffac000       .debug$S                   10000000     mfc140:mfc140.dll
 0000:fffac000       .debug$S                   10000000     mfc140:mfc140.dll
 0000:fffac000       .debug$S                   10000000     mfc140:mfc140.dll
 0000:fffac000       .debug$S                   10000000     mfc140:mfc140.dll
 0000:fffac000       .debug$S                   10000000     mfc140:mfc140.dll
 0000:fffac000       .debug$S                   10000000     mfc140:mfc140.dll
 0000:fffac000       .debug$S                   10000000     mfc140:mfc140.dll
 0000:fffac000       .debug$S                   10000000     mfc140:mfc140.dll
 0000:fffac000       .debug$S                   10000000     mfc140:mfc140.dll
 0000:fffac000       .debug$S                   10000000     mfc140:mfc140.dll
 0000:fffac000       .debug$S                   10000000     mfc140:mfc140.dll
 0000:fffac000       .debug$S                   10000000     mfc140:mfc140.dll
 0000:fffac000       .debug$S                   10000000     mfc140:mfc140.dll
 0000:fffac000       .debug$S                   10000000     mfc140:mfc140.dll
 0000:fffac000       .debug$S                   10000000     mfc140:mfc140.dll
 0000:fffac000       .debug$S                   10000000     mfc140:mfc140.dll
 0000:fffac000       .debug$S                   10000000     mfc140:mfc140.dll
 0000:fffac000       .debug$S                   10000000     mfc140:mfc140.dll
 0000:fffac000       .debug$S                   10000000     mfc140:mfc140.dll
 0000:fffac000       .debug$S                   10000000     mfc140:mfc140.dll
 0000:fffac000       .debug$S                   10000000     mfc140:mfc140.dll
 0000:fffac000       .debug$S                   10000000     mfc140:mfc140.dll
 0000:fffac000       .debug$S                   10000000     mfc140:mfc140.dll
 0000:fffac000       .debug$S                   10000000     mfc140:mfc140.dll
 0000:fffac000       .debug$S                   10000000     mfc140:mfc140.dll
 0000:fffac000       .debug$S                   10000000     mfc140:mfc140.dll
 0000:fffac000       .debug$S                   10000000     mfc140:mfc140.dll
 0000:fffac000       .debug$S                   10000000     mfc140:mfc140.dll
 0000:fffac000       .debug$S                   10000000     mfc140:mfc140.dll
 0000:fffac000       .debug$S                   10000000     mfc140:mfc140.dll
 0000:fffac000       .debug$S                   10000000     mfc140:mfc140.dll
 0000:fffac000       .debug$S                   10000000     mfc140:mfc140.dll
 0000:fffac000       .debug$S                   10000000     mfc140:mfc140.dll
 0000:fffac000       .debug$S                   10000000     mfc140:mfc140.dll
 0000:fffac000       .debug$S                   10000000     mfc140:mfc140.dll
 0000:fffac000       .debug$S                   10000000     mfc140:mfc140.dll
 0000:fffac000       .debug$S                   10000000     mfc140:mfc140.dll
 0000:fffac000       .debug$S                   10000000     mfc140:mfc140.dll
 0000:fffac000       .debug$S                   10000000     mfc140:mfc140.dll
 0000:fffac000       .debug$S                   10000000     mfc140:mfc140.dll
 0000:fffac000       .debug$S                   10000000     mfc140:mfc140.dll
 0000:fffac000       .debug$S                   10000000     mfc140:mfc140.dll
 0000:fffac000       .debug$S                   10000000     mfc140:mfc140.dll
 0000:fffac000       .debug$S                   10000000     mfc140:mfc140.dll
 0000:fffac000       .debug$S                   10000000     mfc140:mfc140.dll
 0000:fffac000       .debug$S                   10000000     mfc140:mfc140.dll
 0000:fffac000       .debug$S                   10000000     mfc140:mfc140.dll
 0000:fffac000       .debug$S                   10000000     mfc140:mfc140.dll
 0000:fffac000       .debug$S                   10000000     mfc140:mfc140.dll
 0000:fffac000       .debug$S                   10000000     mfc140:mfc140.dll
 0000:fffac000       .debug$S                   10000000     mfc140:mfc140.dll
 0000:fffac000       .debug$S                   10000000     mfc140:mfc140.dll
 0000:fffac000       .debug$S                   10000000     mfc140:mfc140.dll
 0000:fffac000       .debug$S                   10000000     mfc140:mfc140.dll
 0000:fffac000       .debug$S                   10000000     mfc140:mfc140.dll
 0000:fffac000       .debug$S                   10000000     mfc140:mfc140.dll
 0000:fffac000       .debug$S                   10000000     mfc140:mfc140.dll
 0000:fffac000       .debug$S                   10000000     mfc140:mfc140.dll
 0000:fffac000       .debug$S                   10000000     mfc140:mfc140.dll
 0000:fffac000       .debug$S                   10000000     mfc140:mfc140.dll
 0000:fffac000       .debug$S                   10000000     mfc140:mfc140.dll
 0000:fffac000       .debug$S                   10000000     mfc140:mfc140.dll
 0000:fffac000       .debug$S                   10000000     mfc140:mfc140.dll
 0000:fffac000       .debug$S                   10000000     mfc140:mfc140.dll
 0000:fffac000       .debug$S                   10000000     mfc140:mfc140.dll
 0000:fffac000       .debug$S                   10000000     mfc140:mfc140.dll
 0000:fffac000       .debug$S                   10000000     mfc140:mfc140.dll
 0000:fffac000       .debug$S                   10000000     mfc140:mfc140.dll
 0000:fffac000       .debug$S                   10000000     mfc140:mfc140.dll
 0000:fffac000       .debug$S                   10000000     mfc140:mfc140.dll
 0000:fffac000       .debug$S                   10000000     mfc140:mfc140.dll
 0000:fffac000       .debug$S                   10000000     mfc140:mfc140.dll
 0000:fffac000       .debug$S                   10000000     mfc140:mfc140.dll
 0000:fffac000       .debug$S                   10000000     mfc140:mfc140.dll
 0000:fffac000       .debug$S                   10000000     mfc140:mfc140.dll
 0000:fffac000       .debug$S                   10000000     mfc140:mfc140.dll
 0000:fffac000       .debug$S                   10000000     mfc140:mfc140.dll
 0000:fffac000       .debug$S                   10000000     mfc140:mfc140.dll
 0000:fffac000       .debug$S                   10000000     mfc140:mfc140.dll
 0000:fffac000       .debug$S                   10000000     mfc140:mfc140.dll
 0000:fffac000       .debug$S                   10000000     mfc140:mfc140.dll
 0000:fffac000       .debug$S                   10000000     mfc140:mfc140.dll
 0000:fffac000       .debug$S                   10000000     mfc140:mfc140.dll
 0000:fffac000       .debug$S                   10000000     mfc140:mfc140.dll
 0000:fffac000       .debug$S                   10000000     mfc140:mfc140.dll
 0000:fffac000       .debug$S                   10000000     mfc140:mfc140.dll
 0000:fffac000       .debug$S                   10000000     mfc140:mfc140.dll
 0000:fffac000       .debug$S                   10000000     mfc140:mfc140.dll
 0000:fffac000       .debug$S                   10000000     mfc140:mfc140.dll
 0000:fffac000       .debug$S                   10000000     mfc140:mfc140.dll
 0000:fffac000       .debug$S                   10000000     mfc140:mfc140.dll
 0000:fffac000       .debug$S                   10000000     mfc140:mfc140.dll
 0000:fffac000       .debug$S                   10000000     mfc140:mfc140.dll
 0000:fffac000       .debug$S                   10000000     mfc140:mfc140.dll
 0000:fffac000       .debug$S                   10000000     mfc140:mfc140.dll
 0000:fffac000       .debug$S                   10000000     mfc140:mfc140.dll
 0000:fffac000       .debug$S                   10000000     mfc140:mfc140.dll
 0000:fffac000       .debug$S                   10000000     mfc140:mfc140.dll
 0000:fffac000       .debug$S                   10000000     mfc140:mfc140.dll
 0000:fffac000       .debug$S                   10000000     mfc140:mfc140.dll
 0000:fffac000       .debug$S                   10000000     mfc140:mfc140.dll
 0000:fffac000       .debug$S                   10000000     mfc140:mfc140.dll
 0000:fffac000       .debug$S                   10000000     mfc140:mfc140.dll
 0000:fffac000       .debug$S                   10000000     mfc140:mfc140.dll
 0000:fffac000       .debug$S                   10000000     mfc140:mfc140.dll
 0000:fffac000       .debug$S                   10000000     mfc140:mfc140.dll
 0000:fffac000       .debug$S                   10000000     mfc140:mfc140.dll
 0000:fffac000       .debug$S                   10000000     mfc140:mfc140.dll
 0000:fffac000       .debug$S                   10000000     mfc140:mfc140.dll
 0000:fffac000       .debug$S                   10000000     mfc140:mfc140.dll
 0000:fffac000       .debug$S                   10000000     mfc140:mfc140.dll
 0000:fffac000       .debug$S                   10000000     mfc140:mfc140.dll
 0000:fffac000       .debug$S                   10000000     mfc140:mfc140.dll
 0000:fffac000       .debug$S                   10000000     mfc140:mfc140.dll
 0000:fffac000       .debug$S                   10000000     mfc140:mfc140.dll
 0000:fffac000       .debug$S                   10000000     mfc140:mfc140.dll
 0000:fffac000       .debug$S                   10000000     mfc140:mfc140.dll
 0000:fffac000       .debug$S                   10000000     mfc140:mfc140.dll
 0000:fffac000       .debug$S                   10000000     mfc140:mfc140.dll
 0000:fffac000       .debug$S                   10000000     mfc140:mfc140.dll
 0000:fffac000       .debug$S                   10000000     mfc140:mfc140.dll
 0000:fffac000       .debug$S                   10000000     mfc140:mfc140.dll
 0000:fffac000       .debug$S                   10000000     mfc140:mfc140.dll
 0000:fffac000       .debug$S                   10000000     mfc140:mfc140.dll
 0000:fffac000       .debug$S                   10000000     mfc140:mfc140.dll
 0000:fffac000       .debug$S                   10000000     mfc140:mfc140.dll
 0000:fffac000       .debug$S                   10000000     mfc140:mfc140.dll
 0000:fffac000       .debug$S                   10000000     mfc140:mfc140.dll
 0000:fffac000       .debug$S                   10000000     mfc140:mfc140.dll
 0000:fffac000       .debug$S                   10000000     mfc140:mfc140.dll
 0000:fffac000       .debug$S                   10000000     mfc140:mfc140.dll
 0000:fffac000       .debug$S                   10000000     mfc140:mfc140.dll
 0000:fffac000       .debug$S                   10000000     mfc140:mfc140.dll
 0000:fffac000       .debug$S                   10000000     mfc140:mfc140.dll
 0000:fffac000       .debug$S                   10000000     mfc140:mfc140.dll
 0000:fffac000       .debug$S                   10000000     mfc140:mfc140.dll
 0000:fffac000       .debug$S                   10000000     mfc140:mfc140.dll
 0000:fffac000       .debug$S                   10000000     mfc140:mfc140.dll
 0000:fffac000       .debug$S                   10000000     mfc140:mfc140.dll
 0000:fffac000       .debug$S                   10000000     mfc140:mfc140.dll
 0000:fffac000       .debug$S                   10000000     mfc140:mfc140.dll
 0000:fffac000       .debug$S                   10000000     mfc140:mfc140.dll
 0000:fffac000       .debug$S                   10000000     mfc140:mfc140.dll
 0000:fffac000       .debug$S                   10000000     mfc140:mfc140.dll
 0000:fffac000       .debug$S                   10000000     mfc140:mfc140.dll
 0000:fffac000       .debug$S                   10000000     mfc140:mfc140.dll
 0000:fffac000       .debug$S                   10000000     mfc140:mfc140.dll
 0000:fffac000       .debug$S                   10000000     mfc140:mfc140.dll
 0000:fffac000       .debug$S                   10000000     mfc140:mfc140.dll
 0000:fffac000       .debug$S                   10000000     mfc140:mfc140.dll
 0000:fffac000       .debug$S                   10000000     mfc140:mfc140.dll
 0000:fffac000       .debug$S                   10000000     mfc140:mfc140.dll
 0000:fffac000       .debug$S                   10000000     mfc140:mfc140.dll
 0000:fffac000       .debug$S                   10000000     mfc140:mfc140.dll
 0000:fffac000       .debug$S                   10000000     mfc140:mfc140.dll
 0000:fffac000       .debug$S                   10000000     mfc140:mfc140.dll
 0000:fffac000       .debug$S                   10000000     mfc140:mfc140.dll
 0000:fffac000       .debug$S                   10000000     mfc140:mfc140.dll
 0000:fffac000       .debug$S                   10000000     mfc140:mfc140.dll
 0000:fffac000       .debug$S                   10000000     mfc140:mfc140.dll
 0000:fffac000       .debug$S                   10000000     mfc140:mfc140.dll
 0000:fffac000       .debug$S                   10000000     mfc140:mfc140.dll
 0000:fffac000       .debug$S                   10000000     mfc140:mfc140.dll
 0000:fffac000       .debug$S                   10000000     mfc140:mfc140.dll
 0000:fffac000       .debug$S                   10000000     mfc140:mfc140.dll
 0000:fffac000       .debug$S                   10000000     mfc140:mfc140.dll
 0000:fffac000       .debug$S                   10000000     mfc140:mfc140.dll
 0000:fffac000       .debug$S                   10000000     mfc140:mfc140.dll
 0000:fffac000       .debug$S                   10000000     mfc140:mfc140.dll
 0000:fffac000       .debug$S                   10000000     mfc140:mfc140.dll
 0000:fffac000       .debug$S                   10000000     mfc140:mfc140.dll
 0000:fffac000       .debug$S                   10000000     mfc140:mfc140.dll
 0000:fffac000       .debug$S                   10000000     mfc140:mfc140.dll
 0000:fffac000       .debug$S                   10000000     mfc140:mfc140.dll
 0000:fffac000       .debug$S                   10000000     mfc140:mfc140.dll
 0000:fffac000       .debug$S                   10000000     mfc140:mfc140.dll
 0000:fffac000       .debug$S                   10000000     mfc140:mfc140.dll
 0000:fffac000       .debug$S                   10000000     mfc140:mfc140.dll
 0000:fffac000       .debug$S                   10000000     mfc140:mfc140.dll
 0000:fffac000       .debug$S                   10000000     mfc140:mfc140.dll
 0000:fffac000       .debug$S                   10000000     mfc140:mfc140.dll
 0000:fffac000       .debug$S                   10000000     mfc140:mfc140.dll
 0000:fffac000       .debug$S                   10000000     mfc140:mfc140.dll
 0000:fffac000       .debug$S                   10000000     mfc140:mfc140.dll
 0000:fffac000       .debug$S                   10000000     mfc140:mfc140.dll
 0000:fffac000       .debug$S                   10000000     mfc140:mfc140.dll
 0000:fffac000       .debug$S                   10000000     mfc140:mfc140.dll
 0000:fffac000       .debug$S                   10000000     mfc140:mfc140.dll
 0000:fffac000       .debug$S                   10000000     mfc140:mfc140.dll
 0000:fffac000       .debug$S                   10000000     mfc140:mfc140.dll
 0000:fffac000       .debug$S                   10000000     mfc140:mfc140.dll
 0000:fffac000       .debug$S                   10000000     mfc140:mfc140.dll
 0000:fffac000       .debug$S                   10000000     mfc140:mfc140.dll
 0000:fffac000       .debug$S                   10000000     mfc140:mfc140.dll
 0000:fffac000       .debug$S                   10000000     mfc140:mfc140.dll
 0000:fffac000       .debug$S                   10000000     mfc140:mfc140.dll
 0000:fffac000       .debug$S                   10000000     mfc140:mfc140.dll
 0000:fffac000       .debug$S                   10000000     mfc140:mfc140.dll
 0000:fffac000       .debug$S                   10000000     mfc140:mfc140.dll
 0000:fffac000       .debug$S                   10000000     mfc140:mfc140.dll
 0000:fffac000       .debug$S                   10000000     mfc140:mfc140.dll
 0000:fffac000       .debug$S                   10000000     mfc140:mfc140.dll
 0000:fffac000       .debug$S                   10000000     mfc140:mfc140.dll
 0000:fffac000       .debug$S                   10000000     mfc140:mfc140.dll
 0000:fffac000       .debug$S                   10000000     mfc140:mfc140.dll
 0000:fffac000       .debug$S                   10000000     mfc140:mfc140.dll
 0000:fffac000       .debug$S                   10000000     mfc140:mfc140.dll
 0000:fffac000       .debug$S                   10000000     mfc140:mfc140.dll
 0000:fffac000       .debug$S                   10000000     mfc140:mfc140.dll
 0000:fffac000       .debug$S                   10000000     mfc140:mfc140.dll
 0000:fffac000       .debug$S                   10000000     mfc140:mfc140.dll
 0000:fffac000       .debug$S                   10000000     mfc140:mfc140.dll
 0000:fffac000       .debug$S                   10000000     mfc140:mfc140.dll
 0000:fffac000       .debug$S                   10000000     mfc140:mfc140.dll
 0000:fffac000       .debug$S                   10000000     mfc140:mfc140.dll
 0000:fffac000       .debug$S                   10000000     mfc140:mfc140.dll
 0000:fffac000       .debug$S                   10000000     mfc140:mfc140.dll
 0000:fffac000       .debug$S                   10000000     mfc140:mfc140.dll
 0000:fffac000       .debug$S                   10000000     mfc140:mfc140.dll
 0000:fffac000       .debug$S                   10000000     mfc140:mfc140.dll
 0000:fffac000       .debug$S                   10000000     mfc140:mfc140.dll
 0000:fffac000       .debug$S                   10000000     mfc140:mfc140.dll
 0000:fffac000       .debug$S                   10000000     mfc140:mfc140.dll
 0000:fffac000       .debug$S                   10000000     mfc140:mfc140.dll
 0000:fffac000       .debug$S                   10000000     mfc140:mfc140.dll
 0000:fffac000       .debug$S                   10000000     mfc140:mfc140.dll
 0000:fffac000       .debug$S                   10000000     mfc140:mfc140.dll
 0000:fffac000       .debug$S                   10000000     mfc140:mfc140.dll
 0000:fffac000       .debug$S                   10000000     mfc140:mfc140.dll
 0000:fffac000       .debug$S                   10000000     mfc140:mfc140.dll
 0000:fffac000       .debug$S                   10000000     mfc140:mfc140.dll
 0000:fffac000       .debug$S                   10000000     mfc140:mfc140.dll
 0000:fffac000       .debug$S                   10000000     mfc140:mfc140.dll
 0000:fffac000       .debug$S                   10000000     mfc140:mfc140.dll
 0000:fffac000       .debug$S                   10000000     mfc140:mfc140.dll
 0000:fffac000       .debug$S                   10000000     mfc140:mfc140.dll
 0000:fffac000       .debug$S                   10000000     mfc140:mfc140.dll
 0000:fffac000       .debug$S                   10000000     mfc140:mfc140.dll
 0000:fffac000       .debug$S                   10000000     mfc140:mfc140.dll
 0000:fffac000       .debug$S                   10000000     mfc140:mfc140.dll
 0000:fffac000       .debug$S                   10000000     mfc140:mfc140.dll
 0000:fffac000       .debug$S                   10000000     mfc140:mfc140.dll
 0000:fffac000       .debug$S                   10000000     mfc140:mfc140.dll
 0000:fffac000       .debug$S                   10000000     mfc140:mfc140.dll
 0000:fffac000       .debug$S                   10000000     mfc140:mfc140.dll
 0000:fffac000       .debug$S                   10000000     mfc140:mfc140.dll
 0000:fffac000       .debug$S                   10000000     mfc140:mfc140.dll
 0000:fffac000       .debug$S                   10000000     mfc140:mfc140.dll
 0000:fffac000       .debug$S                   10000000     mfc140:mfc140.dll
 0000:fffac000       .debug$S                   10000000     mfc140:mfc140.dll
 0000:fffac000       .debug$S                   10000000     mfc140:mfc140.dll
 0000:fffac000       .debug$S                   10000000     mfc140:mfc140.dll
 0000:fffac000       .debug$S                   10000000     mfc140:mfc140.dll
 0002:fffc9000       ??isInitialized$initializer$@CAtlStringMgr@ATL@@0P6AXXZA@@3P6AXXZA 10000000     mfcs140:nolib.obj
 0002:fffc9000       ?InitializeCAtlStringMgr$initializer$@ATLImplementationDetails@ATL@@3P6AXXZA 10000000     mfcs140:nolib.obj
 0002:fffc9000       ?_AtlComModule$initializer$@ATL@@3P6AXXZA 10000000     mfcs140:nolib.obj
 0002:fffc9000       ?_AtlWinModule$initializer$@ATL@@3P6AXXZA 10000000     mfcs140:nolib.obj
 0002:fffc9000       __guard_fids_??_Estringdispid@CComTypeInfoHolder@ATL@@QAEPAXI@Z 10000000     mfcs140:nolib.obj
 0002:fffc9000       __guard_fids_??__E_AtlComModule@ATL@@YAXXZ 10000000     mfcs140:nolib.obj
 0002:fffc9000       __guard_fids_??__E_AtlWinModule@ATL@@YAXXZ 10000000     mfcs140:nolib.obj
 0002:fffc9000       __guard_fids_?GetInstance@CAtlStringMgr@ATL@@SAPAUIAtlStringMgr@2@XZ 10000000     mfcs140:nolib.obj
 0002:fffc9000       __guard_fids__             10000000     mfcs140:nolib.obj
 0002:fffc9000       __guard_fids__             10000000     mfcs140:nolib.obj
 0002:fffc9000       __guard_fids__             10000000     mfcs140:nolib.obj
 0002:fffc9000       __guard_fids__             10000000     mfcs140:nolib.obj
 0002:fffc9000       __guard_fids__             10000000     mfcs140:nolib.obj
 0002:fffc9000       __guard_fids__             10000000     mfcs140:nolib.obj
 0002:fffc9000       __guard_fids__             10000000     mfcs140:nolib.obj
 0002:fffc9000       __guard_fids__             10000000     mfcs140:nolib.obj
 0002:fffc9000       __guard_fids__             10000000     mfcs140:nolib.obj
 0002:fffc9000       ??isInitialized$initializer$@CAtlStringMgr@ATL@@0P6AXXZA@@3P6AXXZA 10000000     mfcs140:stdafx.obj
 0002:fffc9000       ?InitializeCAtlStringMgr$initializer$@ATLImplementationDetails@ATL@@3P6AXXZA 10000000     mfcs140:stdafx.obj
 0002:fffc9000       ?_AtlComModule$initializer$@ATL@@3P6AXXZA 10000000     mfcs140:stdafx.obj
 0002:fffc9000       ?_AtlWinModule$initializer$@ATL@@3P6AXXZA 10000000     mfcs140:stdafx.obj
 0002:fffc9000       __ehfuncinfo$??1CAtlComModule@ATL@@QAE@XZ 10000000     mfcs140:stdafx.obj
 0002:fffc9000       __ehfuncinfo$??_Estringdispid@CComTypeInfoHolder@ATL@@QAEPAXI@Z 10000000     mfcs140:stdafx.obj
 0001:fffff000       __ehhandler$??1CAtlComModule@ATL@@QAE@XZ 10000000 f   mfcs140:stdafx.obj
 0001:fffff000       __ehhandler$??_Estringdispid@CComTypeInfoHolder@ATL@@QAEPAXI@Z 10000000 f   mfcs140:stdafx.obj
 0002:fffc9000       __guard_fids_??_Estringdispid@CComTypeInfoHolder@ATL@@QAEPAXI@Z 10000000     mfcs140:stdafx.obj
 0002:fffc9000       __guard_fids_??__E_AtlComModule@ATL@@YAXXZ 10000000     mfcs140:stdafx.obj
 0002:fffc9000       __guard_fids_??__E_AtlWinModule@ATL@@YAXXZ 10000000     mfcs140:stdafx.obj
 0002:fffc9000       __guard_fids_?GetInstance@CAtlStringMgr@ATL@@SAPAUIAtlStringMgr@2@XZ 10000000     mfcs140:stdafx.obj
 0002:fffc9000       __guard_fids__             10000000     mfcs140:stdafx.obj
 0002:fffc9000       __guard_fids__             10000000     mfcs140:stdafx.obj
 0002:fffc9000       __guard_fids__             10000000     mfcs140:stdafx.obj
 0002:fffc9000       __guard_fids__             10000000     mfcs140:stdafx.obj
 0002:fffc9000       __guard_fids__             10000000     mfcs140:stdafx.obj
 0002:fffc9000       __guard_fids__             10000000     mfcs140:stdafx.obj
 0002:fffc9000       __guard_fids__             10000000     mfcs140:stdafx.obj
 0002:fffc9000       __guard_fids__             10000000     mfcs140:stdafx.obj
 0002:fffc9000       __guard_fids__             10000000     mfcs140:stdafx.obj
 0002:fffc9000       __sehtable$_IsolationAwareUnregisterClassA@8 10000000     mfcs140:stdafx.obj
 0002:fffc9000       __sehtable$_WinbaseIsolationAwarePrivatetRgzlnPgpgk@0 10000000     mfcs140:stdafx.obj
 0002:fffc9000       __guard_fids___except_handler4 10000000     msvcrt:chandler4gs.obj
 0002:fffc9000       __guard_fids_?dllmain_dispatch@@YAHQAUHINSTANCE__@@KQAX@Z 10000000     msvcrt:dll_dllmain.obj
 0002:fffc9000       __guard_fids__             10000000     msvcrt:guard_support.obj
 0002:fffc9000       __guard_fids__             10000000     msvcrt:guard_support.obj
 0002:fffc9000       __guard_fids___guard_icall_checks_enforced 10000000     msvcrt:guard_support.obj
 0002:fffc9000       __guard_fids__             10000000     msvcrt:std_type_info_static.obj
 0002:fffc9000       __guard_fids_?__scrt_initialize_thread_safe_statics@@YAHXZ 10000000     msvcrt:thread_safe_statics.obj
 0002:fffc9000       __guard_fids__             10000000     msvcrt:thread_safe_statics.obj
 0002:fffc9000       __guard_fids____scrt_set_unhandled_exception_filter 10000000     msvcrt:utility_desktop.obj
 0000:fffac000       .debug$S                   10000000     vcruntime:VCRUNTIME140.dll
 0000:fffac000       .debug$S                   10000000     vcruntime:VCRUNTIME140.dll
 0000:fffac000       .debug$S                   10000000     vcruntime:VCRUNTIME140.dll
 0000:fffac000       .debug$S                   10000000     vcruntime:VCRUNTIME140.dll
 0000:fffac000       .debug$S                   10000000     vcruntime:VCRUNTIME140.dll
 0000:fffac000       .debug$S                   10000000     vcruntime:VCRUNTIME140.dll
 0000:fffac000       .debug$S                   10000000     vcruntime:VCRUNTIME140.dll
 0000:fffac000       .debug$S                   10000000     vcruntime:VCRUNTIME140.dll
 0000:fffac000       .debug$S                   10000000     vcruntime:VCRUNTIME140.dll
 0000:fffac000       .debug$S                   10000000     vcruntime:VCRUNTIME140.dll
 0000:fffac000       .debug$S                   10000000     vcruntime:VCRUNTIME140.dll
 0000:fffac000       .debug$S                   10000000     ucrt:api-ms-win-crt-convert-l1-1-0.dll
 0000:fffac000       .debug$S                   10000000     ucrt:api-ms-win-crt-convert-l1-1-0.dll
 0000:fffac000       .debug$S                   10000000     ucrt:api-ms-win-crt-convert-l1-1-0.dll
 0000:fffac000       .debug$S                   10000000     ucrt:api-ms-win-crt-heap-l1-1-0.dll
 0000:fffac000       .debug$S                   10000000     ucrt:api-ms-win-crt-heap-l1-1-0.dll
 0000:fffac000       .debug$S                   10000000     ucrt:api-ms-win-crt-math-l1-1-0.dll
 0000:fffac000       .debug$S                   10000000     ucrt:api-ms-win-crt-math-l1-1-0.dll
 0000:fffac000       .debug$S                   10000000     ucrt:api-ms-win-crt-multibyte-l1-1-0.dll
 0000:fffac000       .debug$S                   10000000     ucrt:api-ms-win-crt-runtime-l1-1-0.dll
 0000:fffac000       .debug$S                   10000000     ucrt:api-ms-win-crt-runtime-l1-1-0.dll
 0000:fffac000       .debug$S                   10000000     ucrt:api-ms-win-crt-runtime-l1-1-0.dll
 0000:fffac000       .debug$S                   10000000     ucrt:api-ms-win-crt-runtime-l1-1-0.dll
 0000:fffac000       .debug$S                   10000000     ucrt:api-ms-win-crt-runtime-l1-1-0.dll
 0000:fffac000       .debug$S                   10000000     ucrt:api-ms-win-crt-runtime-l1-1-0.dll
 0000:fffac000       .debug$S                   10000000     ucrt:api-ms-win-crt-runtime-l1-1-0.dll
 0000:fffac000       .debug$S                   10000000     ucrt:api-ms-win-crt-runtime-l1-1-0.dll
 0000:fffac000       .debug$S                   10000000     ucrt:api-ms-win-crt-runtime-l1-1-0.dll
 0000:fffac000       .debug$S                   10000000     ucrt:api-ms-win-crt-runtime-l1-1-0.dll
 0000:fffac000       .debug$S                   10000000     ucrt:api-ms-win-crt-runtime-l1-1-0.dll
 0000:fffac000       .debug$S                   10000000     ucrt:api-ms-win-crt-runtime-l1-1-0.dll
 0000:fffac000       .debug$S                   10000000     ucrt:api-ms-win-crt-runtime-l1-1-0.dll
 0000:fffac000       .debug$S                   10000000     ucrt:api-ms-win-crt-runtime-l1-1-0.dll
 0000:fffac000       .debug$S                   10000000     ucrt:api-ms-win-crt-stdio-l1-1-0.dll
 0000:fffac000       .debug$S                   10000000     ucrt:api-ms-win-crt-stdio-l1-1-0.dll
 0000:fffac000       .debug$S                   10000000     ucrt:api-ms-win-crt-stdio-l1-1-0.dll
 0000:fffac000       .debug$S                   10000000     ucrt:api-ms-win-crt-stdio-l1-1-0.dll
 0000:fffac000       .debug$S                   10000000     ucrt:api-ms-win-crt-string-l1-1-0.dll
 0000:fffac000       .debug$S                   10000000     ucrt:api-ms-win-crt-time-l1-1-0.dll
 0000:fffac000       .debug$S                   10000000     ucrt:api-ms-win-crt-time-l1-1-0.dll
 0000:fffac000       .debug$S                   10000000     ucrt:api-ms-win-crt-time-l1-1-0.dll
 0000:fffac000       .debug$S                   10000000     ucrt:api-ms-win-crt-utility-l1-1-0.dll
 0000:fffac000       .debug$S                   10000000     advapi32:ADVAPI32.dll
 0000:fffac000       .debug$S                   10000000     advapi32:ADVAPI32.dll
 0000:fffac000       .debug$S                   10000000     advapi32:ADVAPI32.dll
 0000:fffac000       .debug$S                   10000000     comctl32:COMCTL32.dll
 0000:fffac000       .debug$S                   10000000     comctl32:COMCTL32.dll
 0000:fffac000       .debug$S                   10000000     comctl32:COMCTL32.dll
 0000:fffac000       .debug$S                   10000000     gdi32:GDI32.dll
 0000:fffac000       .debug$S                   10000000     gdi32:GDI32.dll
 0000:fffac000       .debug$S                   10000000     gdi32:GDI32.dll
 0000:fffac000       .debug$S                   10000000     gdi32:GDI32.dll
 0000:fffac000       .debug$S                   10000000     gdi32:GDI32.dll
 0000:fffac000       .debug$S                   10000000     gdi32:GDI32.dll
 0000:fffac000       .debug$S                   10000000     gdi32:GDI32.dll
 0000:fffac000       .debug$S                   10000000     gdi32:GDI32.dll
 0000:fffac000       .debug$S                   10000000     gdi32:GDI32.dll
 0000:fffac000       .debug$S                   10000000     gdi32:GDI32.dll
 0000:fffac000       .debug$S                   10000000     gdi32:GDI32.dll
 0000:fffac000       .debug$S                   10000000     gdi32:GDI32.dll
 0000:fffac000       .debug$S                   10000000     gdi32:GDI32.dll
 0000:fffac000       .debug$S                   10000000     gdi32:GDI32.dll
 0000:fffac000       .debug$S                   10000000     gdi32:GDI32.dll
 0000:fffac000       .debug$S                   10000000     gdi32:GDI32.dll
 0000:fffac000       .debug$S                   10000000     gdi32:GDI32.dll
 0000:fffac000       .debug$S                   10000000     gdi32:GDI32.dll
 0000:fffac000       .debug$S                   10000000     gdi32:GDI32.dll
 0000:fffac000       .debug$S                   10000000     gdi32:GDI32.dll
 0000:fffac000       .debug$S                   10000000     gdi32:GDI32.dll
 0000:fffac000       .debug$S                   10000000     gdi32:GDI32.dll
 0000:fffac000       .debug$S                   10000000     gdi32:GDI32.dll
 0000:fffac000       .debug$S                   10000000     gdi32:GDI32.dll
 0000:fffac000       .debug$S                   10000000     gdi32:GDI32.dll
 0000:fffac000       .debug$S                   10000000     gdi32:GDI32.dll
 0000:fffac000       .debug$S                   10000000     gdi32:GDI32.dll
 0000:fffac000       .debug$S                   10000000     kernel32:KERNEL32.dll
 0000:fffac000       .debug$S                   10000000     kernel32:KERNEL32.dll
 0000:fffac000       .debug$S                   10000000     kernel32:KERNEL32.dll
 0000:fffac000       .debug$S                   10000000     kernel32:KERNEL32.dll
 0000:fffac000       .debug$S                   10000000     kernel32:KERNEL32.dll
 0000:fffac000       .debug$S                   10000000     kernel32:KERNEL32.dll
 0000:fffac000       .debug$S                   10000000     kernel32:KERNEL32.dll
 0000:fffac000       .debug$S                   10000000     kernel32:KERNEL32.dll
 0000:fffac000       .debug$S                   10000000     kernel32:KERNEL32.dll
 0000:fffac000       .debug$S                   10000000     kernel32:KERNEL32.dll
 0000:fffac000       .debug$S                   10000000     kernel32:KERNEL32.dll
 0000:fffac000       .debug$S                   10000000     kernel32:KERNEL32.dll
 0000:fffac000       .debug$S                   10000000     kernel32:KERNEL32.dll
 0000:fffac000       .debug$S                   10000000     kernel32:KERNEL32.dll
 0000:fffac000       .debug$S                   10000000     kernel32:KERNEL32.dll
 0000:fffac000       .debug$S                   10000000     kernel32:KERNEL32.dll
 0000:fffac000       .debug$S                   10000000     kernel32:KERNEL32.dll
 0000:fffac000       .debug$S                   10000000     kernel32:KERNEL32.dll
 0000:fffac000       .debug$S                   10000000     kernel32:KERNEL32.dll
 0000:fffac000       .debug$S                   10000000     kernel32:KERNEL32.dll
 0000:fffac000       .debug$S                   10000000     kernel32:KERNEL32.dll
 0000:fffac000       .debug$S                   10000000     kernel32:KERNEL32.dll
 0000:fffac000       .debug$S                   10000000     kernel32:KERNEL32.dll
 0000:fffac000       .debug$S                   10000000     kernel32:KERNEL32.dll
 0000:fffac000       .debug$S                   10000000     kernel32:KERNEL32.dll
 0000:fffac000       .debug$S                   10000000     kernel32:KERNEL32.dll
 0000:fffac000       .debug$S                   10000000     kernel32:KERNEL32.dll
 0000:fffac000       .debug$S                   10000000     kernel32:KERNEL32.dll
 0000:fffac000       .debug$S                   10000000     kernel32:KERNEL32.dll
 0000:fffac000       .debug$S                   10000000     kernel32:KERNEL32.dll
 0000:fffac000       .debug$S                   10000000     kernel32:KERNEL32.dll
 0000:fffac000       .debug$S                   10000000     kernel32:KERNEL32.dll
 0000:fffac000       .debug$S                   10000000     kernel32:KERNEL32.dll
 0000:fffac000       .debug$S                   10000000     kernel32:KERNEL32.dll
 0000:fffac000       .debug$S                   10000000     kernel32:KERNEL32.dll
 0000:fffac000       .debug$S                   10000000     kernel32:KERNEL32.dll
 0000:fffac000       .debug$S                   10000000     kernel32:KERNEL32.dll
 0000:fffac000       .debug$S                   10000000     kernel32:KERNEL32.dll
 0000:fffac000       .debug$S                   10000000     kernel32:KERNEL32.dll
 0000:fffac000       .debug$S                   10000000     kernel32:KERNEL32.dll
 0000:fffac000       .debug$S                   10000000     kernel32:KERNEL32.dll
 0000:fffac000       .debug$S                   10000000     kernel32:KERNEL32.dll
 0000:fffac000       .debug$S                   10000000     kernel32:KERNEL32.dll
 0000:fffac000       .debug$S                   10000000     kernel32:KERNEL32.dll
 0000:fffac000       .debug$S                   10000000     kernel32:KERNEL32.dll
 0000:fffac000       .debug$S                   10000000     kernel32:KERNEL32.dll
 0000:fffac000       .debug$S                   10000000     kernel32:KERNEL32.dll
 0000:fffac000       .debug$S                   10000000     kernel32:KERNEL32.dll
 0000:fffac000       .debug$S                   10000000     kernel32:KERNEL32.dll
 0000:fffac000       .debug$S                   10000000     kernel32:KERNEL32.dll
 0000:fffac000       .debug$S                   10000000     kernel32:KERNEL32.dll
 0000:fffac000       .debug$S                   10000000     kernel32:KERNEL32.dll
 0000:fffac000       .debug$S                   10000000     kernel32:KERNEL32.dll
 0000:fffac000       .debug$S                   10000000     kernel32:KERNEL32.dll
 0000:fffac000       .debug$S                   10000000     kernel32:KERNEL32.dll
 0000:fffac000       .debug$S                   10000000     kernel32:KERNEL32.dll
 0000:fffac000       .debug$S                   10000000     kernel32:KERNEL32.dll
 0000:fffac000       .debug$S                   10000000     kernel32:KERNEL32.dll
 0000:fffac000       .debug$S                   10000000     kernel32:KERNEL32.dll
 0000:fffac000       .debug$S                   10000000     kernel32:KERNEL32.dll
 0000:fffac000       .debug$S                   10000000     kernel32:KERNEL32.dll
 0000:fffac000       .debug$S                   10000000     ole32:ole32.dll
 0000:fffac000       .debug$S                   10000000     ole32:ole32.dll
 0000:fffac000       .debug$S                   10000000     ole32:ole32.dll
 0000:fffac000       .debug$S                   10000000     oleaut32:OLEAUT32.dll
 0000:fffac000       .debug$S                   10000000     oleaut32:OLEAUT32.dll
 0000:fffac000       .debug$S                   10000000     oleaut32:OLEAUT32.dll
 0000:fffac000       .debug$S                   10000000     oleaut32:OLEAUT32.dll
 0000:fffac000       .debug$S                   10000000     user32:USER32.dll
 0000:fffac000       .debug$S                   10000000     user32:USER32.dll
 0000:fffac000       .debug$S                   10000000     user32:USER32.dll
 0000:fffac000       .debug$S                   10000000     user32:USER32.dll
 0000:fffac000       .debug$S                   10000000     user32:USER32.dll
 0000:fffac000       .debug$S                   10000000     user32:USER32.dll
 0000:fffac000       .debug$S                   10000000     user32:USER32.dll
 0000:fffac000       .debug$S                   10000000     user32:USER32.dll
 0000:fffac000       .debug$S                   10000000     user32:USER32.dll
 0000:fffac000       .debug$S                   10000000     user32:USER32.dll
 0000:fffac000       .debug$S                   10000000     user32:USER32.dll
 0000:fffac000       .debug$S                   10000000     user32:USER32.dll
 0000:fffac000       .debug$S                   10000000     user32:USER32.dll
 0000:fffac000       .debug$S                   10000000     user32:USER32.dll
 0000:fffac000       .debug$S                   10000000     user32:USER32.dll
 0000:fffac000       .debug$S                   10000000     user32:USER32.dll
 0000:fffac000       .debug$S                   10000000     user32:USER32.dll
 0000:fffac000       .debug$S                   10000000     user32:USER32.dll
 0000:fffac000       .debug$S                   10000000     user32:USER32.dll
 0000:fffac000       .debug$S                   10000000     user32:USER32.dll
 0000:fffac000       .debug$S                   10000000     user32:USER32.dll
 0000:fffac000       .debug$S                   10000000     user32:USER32.dll
 0000:fffac000       .debug$S                   10000000     user32:USER32.dll
 0000:fffac000       .debug$S                   10000000     user32:USER32.dll
 0000:fffac000       .debug$S                   10000000     user32:USER32.dll
 0000:fffac000       .debug$S                   10000000     user32:USER32.dll
 0000:fffac000       .debug$S                   10000000     user32:USER32.dll
 0000:fffac000       .debug$S                   10000000     user32:USER32.dll
 0000:fffac000       .debug$S                   10000000     user32:USER32.dll
 0000:fffac000       .debug$S                   10000000     user32:USER32.dll
 0000:fffac000       .debug$S                   10000000     user32:USER32.dll
 0000:fffac000       .debug$S                   10000000     user32:USER32.dll
 0000:fffac000       .debug$S                   10000000     user32:USER32.dll
 0000:fffac000       .debug$S                   10000000     user32:USER32.dll
 0000:fffac000       .debug$S                   10000000     user32:USER32.dll
 0000:fffac000       .debug$S                   10000000     user32:USER32.dll
 0000:fffac000       .debug$S                   10000000     user32:USER32.dll
 0000:fffac000       .debug$S                   10000000     user32:USER32.dll
 0000:fffac000       .debug$S                   10000000     user32:USER32.dll
 0000:fffac000       .debug$S                   10000000     user32:USER32.dll
 0000:fffac000       .debug$S                   10000000     user32:USER32.dll
 0000:fffac000       .debug$S                   10000000     user32:USER32.dll
 0000:fffac000       .debug$S                   10000000     user32:USER32.dll
 0000:fffac000       .debug$S                   10000000     user32:USER32.dll
 0000:fffac000       .debug$S                   10000000     user32:USER32.dll
 0000:fffac000       .debug$S                   10000000     user32:USER32.dll
 0000:fffac000       .debug$S                   10000000     user32:USER32.dll
 0000:fffac000       .debug$S                   10000000     user32:USER32.dll
 0000:fffac000       .debug$S                   10000000     user32:USER32.dll
 0000:fffac000       .debug$S                   10000000     user32:USER32.dll
 0000:fffac000       .debug$S                   10000000     user32:USER32.dll
 0000:fffac000       .debug$S                   10000000     user32:USER32.dll
 0000:fffac000       .debug$S                   10000000     user32:USER32.dll
 0000:fffac000       .debug$S                   10000000     user32:USER32.dll
 0000:fffac000       .debug$S                   10000000     user32:USER32.dll
 0000:fffac000       .debug$S                   10000000     user32:USER32.dll
 0000:fffac000       .debug$S                   10000000     user32:USER32.dll
 0000:fffac000       .debug$S                   10000000     user32:USER32.dll
 0002:fffc9008       __ehfuncinfo$??1CSeries@@QAE@XZ 10000008     TabSonikChart.obj
 0002:fffc9010       __tryblocktable$??1CGdiObject@@UAE@XZ 10000010     DlgOptimizer.obj
 0002:fffc9010       __tryblocktable$??1CGdiObject@@UAE@XZ 10000010     DlgResult.obj
 0002:fffc9010       __tryblocktable$??1CGdiObject@@UAE@XZ 10000010     DlgTimeSetup.obj
 0002:fffc9010       __tryblocktable$??1CGdiObject@@UAE@XZ 10000010     GridCell.obj
 0002:fffc9010       __tryblocktable$??1CGdiObject@@UAE@XZ 10000010     GridCellBase.obj
 0002:fffc9010       __tryblocktable$??1CGdiObject@@UAE@XZ 10000010     GridCtrl.obj
 0002:fffc9010       __tryblocktable$??1CGdiObject@@UAE@XZ 10000010     STTreeCtrl.obj
 0002:fffc9010       __tryblocktable$??1CGdiObject@@UAE@XZ 10000010     TabEarnChart.obj
 0002:fffc9010       __tryblocktable$??1CGdiObject@@UAE@XZ 10000010     TabSonikChart.obj
 0002:fffc9010       __tryblocktable$??1CGdiObject@@UAE@XZ 10000010     TitleTip.obj
 0002:fffc9010       __tryblocktable$??1CGdiObject@@UAE@XZ 10000010     XTabCtrl.obj
 0001:fffff011       __ehhandler$??1CGdiObject@@UAE@XZ 10000011 f   DlgOptimizer.obj
 0001:fffff011       __ehhandler$??1CGdiObject@@UAE@XZ 10000011 f   DlgResult.obj
 0001:fffff011       __ehhandler$??1CGdiObject@@UAE@XZ 10000011 f   DlgTimeSetup.obj
 0001:fffff011       __ehhandler$??1CGdiObject@@UAE@XZ 10000011 f   GridCell.obj
 0001:fffff011       __ehhandler$??1CGdiObject@@UAE@XZ 10000011 f   GridCellBase.obj
 0001:fffff011       __ehhandler$??1CGdiObject@@UAE@XZ 10000011 f   GridCtrl.obj
 0001:fffff011       __ehhandler$??1CGdiObject@@UAE@XZ 10000011 f   STTreeCtrl.obj
 0001:fffff011       __ehhandler$??1CGdiObject@@UAE@XZ 10000011 f   TabEarnChart.obj
 0001:fffff011       __ehhandler$??1CGdiObject@@UAE@XZ 10000011 f   TabSonikChart.obj
 0001:fffff011       __ehhandler$??1CGdiObject@@UAE@XZ 10000011 f   TitleTip.obj
 0001:fffff011       __ehhandler$??1CGdiObject@@UAE@XZ 10000011 f   XTabCtrl.obj
 0002:fffc9024       __unwindtable$??1CGdiObject@@UAE@XZ 10000024     DlgOptimizer.obj
 0002:fffc9024       __unwindtable$??1CGdiObject@@UAE@XZ 10000024     DlgResult.obj
 0002:fffc9024       __unwindtable$??1CGdiObject@@UAE@XZ 10000024     DlgTimeSetup.obj
 0002:fffc9024       __unwindtable$??1CGdiObject@@UAE@XZ 10000024     GridCell.obj
 0002:fffc9024       __unwindtable$??1CGdiObject@@UAE@XZ 10000024     GridCellBase.obj
 0002:fffc9024       __unwindtable$??1CGdiObject@@UAE@XZ 10000024     GridCtrl.obj
 0002:fffc9024       __unwindtable$??1CGdiObject@@UAE@XZ 10000024     STTreeCtrl.obj
 0002:fffc9024       __unwindtable$??1CGdiObject@@UAE@XZ 10000024     TabEarnChart.obj
 0002:fffc9024       __unwindtable$??1CGdiObject@@UAE@XZ 10000024     TabSonikChart.obj
 0002:fffc9024       __unwindtable$??1CGdiObject@@UAE@XZ 10000024     TitleTip.obj
 0002:fffc9024       __unwindtable$??1CGdiObject@@UAE@XZ 10000024     XTabCtrl.obj
 0001:fffff028       $LN12                      10000028     DlgOptimizer.obj
 0001:fffff028       $LN12                      10000028     DlgTimeSetup.obj
 0001:fffff028       $LN12                      10000028     DlgTrade.obj
 0001:fffff028       $LN12                      10000028     ExControl:StdAfx.obj
 0001:fffff038       $LN11                      10000038     DlgOptimizer.obj
 0001:fffff038       $LN11                      10000038     DlgTimeSetup.obj
 0001:fffff038       $LN11                      10000038     DlgTrade.obj
 0001:fffff038       $LN11                      10000038     ExControl:StdAfx.obj
 0002:fffc903c       __ehfuncinfo$??1CGdiObject@@UAE@XZ 1000003c     DlgOptimizer.obj
 0002:fffc903c       __ehfuncinfo$??1CGdiObject@@UAE@XZ 1000003c     DlgResult.obj
 0002:fffc903c       __ehfuncinfo$??1CGdiObject@@UAE@XZ 1000003c     DlgTimeSetup.obj
 0002:fffc903c       __ehfuncinfo$??1CGdiObject@@UAE@XZ 1000003c     GridCell.obj
 0002:fffc903c       __ehfuncinfo$??1CGdiObject@@UAE@XZ 1000003c     GridCellBase.obj
 0002:fffc903c       __ehfuncinfo$??1CGdiObject@@UAE@XZ 1000003c     GridCtrl.obj
 0002:fffc903c       __ehfuncinfo$??1CGdiObject@@UAE@XZ 1000003c     STTreeCtrl.obj
 0002:fffc903c       __ehfuncinfo$??1CGdiObject@@UAE@XZ 1000003c     TabEarnChart.obj
 0002:fffc903c       __ehfuncinfo$??1CGdiObject@@UAE@XZ 1000003c     TabSonikChart.obj
 0002:fffc903c       __ehfuncinfo$??1CGdiObject@@UAE@XZ 1000003c     TitleTip.obj
 0002:fffc903c       __ehfuncinfo$??1CGdiObject@@UAE@XZ 1000003c     XTabCtrl.obj
 0001:fffff05f       __catch$??1CGdiObject@@UAE@XZ$0 1000005f f   DlgOptimizer.obj
 0001:fffff05f       __catch$??1CGdiObject@@UAE@XZ$0 1000005f f   DlgResult.obj
 0001:fffff05f       __catch$??1CGdiObject@@UAE@XZ$0 1000005f f   DlgTimeSetup.obj
 0001:fffff05f       __catch$??1CGdiObject@@UAE@XZ$0 1000005f f   GridCell.obj
 0001:fffff05f       __catch$??1CGdiObject@@UAE@XZ$0 1000005f f   GridCellBase.obj
 0001:fffff05f       __catch$??1CGdiObject@@UAE@XZ$0 1000005f f   GridCtrl.obj
 0001:fffff05f       __catch$??1CGdiObject@@UAE@XZ$0 1000005f f   STTreeCtrl.obj
 0001:fffff05f       __catch$??1CGdiObject@@UAE@XZ$0 1000005f f   TabEarnChart.obj
 0001:fffff05f       __catch$??1CGdiObject@@UAE@XZ$0 1000005f f   TabSonikChart.obj
 0001:fffff05f       __catch$??1CGdiObject@@UAE@XZ$0 1000005f f   TitleTip.obj
 0001:fffff05f       __catch$??1CGdiObject@@UAE@XZ$0 1000005f f   XTabCtrl.obj
 0001:00000000       ??__E?m_strChartOcxFolder@CStrategyLoader@@1V?$CStringT@DV?$StrTraitMFC_DLL@DV?$ChTraitsCRT@D@ATL@@@@@ATL@@A@@YAXXZ 10001000 f   StrategyLoader.obj
 0001:00000020       ??__ERMSG_OPENNEWMAP@@YAXXZ 10001020 f   STTreeCtrl.obj
 0001:00000040       ??__ERMSG_STTREE_ITEMCLICK@@YAXXZ 10001040 f   STTreeCtrl.obj
 0001:00000060       ??__ERMSG_STTREE_ITEMDBLCLK@@YAXXZ 10001060 f   STTreeCtrl.obj
 0001:00000080       ??__Eg_strChartProgID@@YAXXZ 10001080 f   SiteDefine_DB.obj
 0001:000000a0       ??__ERMSG_GETDLLSIZE@@YAXXZ 100010a0 f   DlgOptimizer.obj
 0001:000000c0       ??__ERMSG_GETPCTRDATA@@YAXXZ 100010c0 f   DlgOptimizer.obj
 0001:000000e0       ??__ERMSG_OB_ITEMDBLCLK@@YAXXZ 100010e0 f   DlgOptimizer.obj
 0001:00000100       ??__ERMSG_STDATAMANAGER_RESULTDATA@@YAXXZ 10001100 f   DlgOptimizer.obj
 0001:00000120       ??__ERMSG_STTREE_ITEMCLICK@@YAXXZ 10001120 f   DlgOptimizer.obj
 0001:00000140       ??__ERMSG_STTREE_ITEMDBLCLK@@YAXXZ 10001140 f   DlgOptimizer.obj
 0001:00000160       ??__ERMSG_STTREE_ITEMCLICK@@YAXXZ 10001160 f   DlgResult.obj
 0001:00000180       ??__ERMSG_STTREE_ITEMDBLCLK@@YAXXZ 10001180 f   DlgResult.obj
 0001:000001a0       ??__ERMSG_STTREE_ITEMCLICK@@YAXXZ 100011a0 f   DlgTimeSetup.obj
 0001:000001c0       ??__ERMSG_STTREE_ITEMDBLCLK@@YAXXZ 100011c0 f   DlgTimeSetup.obj
 0001:000001e0       ??__ERMSG_STTREE_ITEMCLICK@@YAXXZ 100011e0 f   DlgTrade.obj
 0001:00000200       ??__ERMSG_STTREE_ITEMDBLCLK@@YAXXZ 10001200 f   DlgTrade.obj
 0001:00000220       ??__ERMSG_GETPCTRDATA@@YAXXZ 10001220 f   IndexOptimizer.obj
 0001:00000240       ??__ERMSG_STTREE_ITEMCLICK@@YAXXZ 10001240 f   IndexOptimizer.obj
 0001:00000260       ??__ERMSG_STTREE_ITEMDBLCLK@@YAXXZ 10001260 f   IndexOptimizer.obj
 0001:00000280       ??__E?isInitialized@CAtlStringMgr@ATL@@0_NA@@YAXXZ 10001280 f   StdAfx.obj
 0001:000002a0       ??__EInitializeCAtlStringMgr@ATLImplementationDetails@ATL@@YAXXZ 100012a0 f   StdAfx.obj
 0001:00000390       ??__ERMSG_ENDSCROLLPOS@@YAXXZ 10001390 f   StdAfx.obj
 0001:000003b0       ??__ERMSG_EVENT_ACCTINPUT@@YAXXZ 100013b0 f   StdAfx.obj
 0001:000003d0       ??__ERMSG_EVENT_CODEINPUT@@YAXXZ 100013d0 f   StdAfx.obj
 0001:000003f0       ??__ERMSG_EVENT_SIGNAL@@YAXXZ 100013f0 f   StdAfx.obj
 0001:00000410       ??__ERMSG_EVENT_SPININPUT@@YAXXZ 10001410 f   StdAfx.obj
 0001:00000430       ??__ERMSG_FORMINITIALCOMPLETED@@YAXXZ 10001430 f   StdAfx.obj
 0001:00000450       ??__ERMSG_FORMSTATECHANGE@@YAXXZ 10001450 f   StdAfx.obj
 0001:00000470       ??__ERMSG_GETPCTRDATA@@YAXXZ 10001470 f   StdAfx.obj
 0001:00000490       ??__ERMSG_INTERFACE@@YAXXZ 10001490 f   StdAfx.obj
 0001:000004b0       ??__ERMSG_LBTNDBLCLICK@@YAXXZ 100014b0 f   StdAfx.obj
 0001:000004d0       ??__ERMSG_LBTNDOWN@@YAXXZ  100014d0 f   StdAfx.obj
 0001:000004f0       ??__ERMSG_LSHAREDCHANGED@@YAXXZ 100014f0 f   StdAfx.obj
 0001:00000510       ??__ERMSG_SETPCTRDATA@@YAXXZ 10001510 f   StdAfx.obj
 0001:00000530       ??__ERMSG_TABSTOP@@YAXXZ   10001530 f   StdAfx.obj
 0001:00000550       ??__E_AtlComModule@ATL@@YAXXZ 10001550 f   StdAfx.obj
 0001:000005b0       ??__E_AtlWinModule@ATL@@YAXXZ 100015b0 f   StdAfx.obj
 0001:00000600       ??__ERMSG_GETPCTRDATA@@YAXXZ 10001600 f   ExControl:ExDrawButton.obj
 0001:00000620       ??__ERMSG_INTERFACE@@YAXXZ 10001620 f   ExControl:ExDrawButton.obj
 0001:00000640       ??__ERMSG_SETPCTRDATA@@YAXXZ 10001640 f   ExControl:ExDrawButton.obj
 0001:00000660       ??__ERMSG_GETPCTRDATA@@YAXXZ 10001660 f   ExControl:ExButton.obj
 0001:00000680       ??__ERMSG_INTERFACE@@YAXXZ 10001680 f   ExControl:ExButton.obj
 0001:000006a0       ??__ERMSG_SETPCTRDATA@@YAXXZ 100016a0 f   ExControl:ExButton.obj
 0001:000006c0       ??__E?isInitialized@CAtlStringMgr@ATL@@0_NA@@YAXXZ 100016c0 f   ExControl:StdAfx.obj
 0001:000006e0       ??__EInitializeCAtlStringMgr@ATLImplementationDetails@ATL@@YAXXZ 100016e0 f   ExControl:StdAfx.obj
 0001:000007d0       ??__ERMSG_ENDSCROLLPOS@@YAXXZ 100017d0 f   ExControl:StdAfx.obj
 0001:000007f0       ??__ERMSG_EVENT_ACCTINPUT@@YAXXZ 100017f0 f   ExControl:StdAfx.obj
 0001:00000810       ??__ERMSG_EVENT_CODEINPUT@@YAXXZ 10001810 f   ExControl:StdAfx.obj
 0001:00000830       ??__ERMSG_EVENT_SIGNAL@@YAXXZ 10001830 f   ExControl:StdAfx.obj
 0001:00000850       ??__ERMSG_EVENT_SPININPUT@@YAXXZ 10001850 f   ExControl:StdAfx.obj
 0001:00000870       ??__ERMSG_FORMINITIALCOMPLETED@@YAXXZ 10001870 f   ExControl:StdAfx.obj
 0001:00000890       ??__ERMSG_FORMSTATECHANGE@@YAXXZ 10001890 f   ExControl:StdAfx.obj
 0001:000008b0       ??__ERMSG_GETPCTRDATA@@YAXXZ 100018b0 f   ExControl:StdAfx.obj
 0001:000008d0       ??__ERMSG_INTERFACE@@YAXXZ 100018d0 f   ExControl:StdAfx.obj
 0001:000008f0       ??__ERMSG_LBTNDBLCLICK@@YAXXZ 100018f0 f   ExControl:StdAfx.obj
 0001:00000910       ??__ERMSG_LBTNDOWN@@YAXXZ  10001910 f   ExControl:StdAfx.obj
 0001:00000930       ??__ERMSG_LSHAREDCHANGED@@YAXXZ 10001930 f   ExControl:StdAfx.obj
 0001:00000950       ??__ERMSG_SETPCTRDATA@@YAXXZ 10001950 f   ExControl:StdAfx.obj
 0001:00000970       ??__ERMSG_TABSTOP@@YAXXZ   10001970 f   ExControl:StdAfx.obj
 0001:00000990       ??__E_AtlComModule@ATL@@YAXXZ 10001990 f   ExControl:StdAfx.obj
 0001:000009f0       ??__E_AtlWinModule@ATL@@YAXXZ 100019f0 f   ExControl:StdAfx.obj
 0001:00000a40       ??__Em_arPermanentHandle@@YAXXZ 10001a40 f   ExControl:StdAfx.obj
 0001:00000a4c       ??__E?isInitialized@CAtlStringMgr@ATL@@0_NA@@YAXXZ 10001a4c f   mfcs140:nolib.obj
 0001:00000a60       ??__EInitializeCAtlStringMgr@ATLImplementationDetails@ATL@@YAXXZ 10001a60 f   mfcs140:nolib.obj
 0001:00000a65       ??__E_AtlComModule@ATL@@YAXXZ 10001a65 f   mfcs140:nolib.obj
 0001:00000a7b       ??__E_AtlWinModule@ATL@@YAXXZ 10001a7b f   mfcs140:nolib.obj
 0001:00000a91       ??__E?isInitialized@CAtlStringMgr@ATL@@0_NA@@YAXXZ 10001a91 f   mfcs140:stdafx.obj
 0001:00000aa5       ??__EInitializeCAtlStringMgr@ATLImplementationDetails@ATL@@YAXXZ 10001aa5 f   mfcs140:stdafx.obj
 0001:00000aaa       ??__E_AtlComModule@ATL@@YAXXZ 10001aaa f   mfcs140:stdafx.obj
 0001:00000ac0       ??__E_AtlWinModule@ATL@@YAXXZ 10001ac0 f   mfcs140:stdafx.obj
 0001:00000ad6       ??__E_AtlBaseModule@ATL@@YAXXZ 10001ad6 f   atls:atlbase.obj
 0001:00001b5f       __catch$??1CGdiObject@@UAE@XZ$0 10002b5f f i STGfxOutBarCtrl.obj
 0001:00009f08       $LN12                      1000af08     XTabCtrl.obj
 0001:00009f18       $LN11                      1000af18     XTabCtrl.obj
 0001:0000d470       ?AfxGetPctrData@@YGJH@Z    1000e470 f   DlgOptimizer.obj
 0001:000144f8       $LN242                     100154f8     DlgResult.obj
 0001:00016fa4       $LN415                     10017fa4     DlgTrade.obj
 0001:00017464       $LN44                      10018464     DlgTrade.obj
 0001:00017d8c       $LN152                     10018d8c     DlgTrade.obj
 0001:00018e1d       __catch$?Draw@CGridCellBase@@UAEHPAVCDC@@HHVCRect@@H@Z$0 10019e1d f   GridCellBase.obj
 0001:00018eb9       __catch$?Draw@CGridCellBase@@UAEHPAVCDC@@HHVCRect@@H@Z$2 10019eb9 f   GridCellBase.obj
 0001:0001ab91       __catch$??1CWaitCursor@@QAE@XZ$0 1001bb91 f i GridCtrl.obj
 0001:0001bb70       __catch$?Create@CGridCtrl@@QAEHABUtagRECT@@PAVCWnd@@IK@Z$0 1001cb70 f   GridCtrl.obj
 0001:0001f2d4       __catch$?InsertColumn@CGridCtrl@@QAEHPBDIH@Z$0 100202d4 f   GridCtrl.obj
 0001:0001f602       __catch$?InsertRow@CGridCtrl@@QAEHPBDH@Z$0 10020602 f   GridCtrl.obj
 0001:00020002       __catch$?Load@CGridCtrl@@QAEHPBDD@Z$0 10021002 f   GridCtrl.obj
 0001:000216e0       $LN23                      100226e0     GridCtrl.obj
 0001:000216e8       $LN22                      100226e8     GridCtrl.obj
 0001:00021b90       $LN119                     10022b90     GridCtrl.obj
 0001:0002241c       $LN373                     1002341c     GridCtrl.obj
 0001:00022430       $LN372                     10023430     GridCtrl.obj
 0001:0002245c       $LN375                     1002345c     GridCtrl.obj
 0001:00022474       $LN374                     10023474     GridCtrl.obj
 0001:00023894       $LN114                     10024894     GridCtrl.obj
 0001:000238a8       $LN113                     100248a8     GridCtrl.obj
 0001:00024324       $LN28                      10025324     GridCtrl.obj
 0001:00024d90       $LN121                     10025d90     GridCtrl.obj
 0001:00026e9f       __catch$?Save@CGridCtrl@@QAEHPBDD@Z$0 10027e9f f   GridCtrl.obj
 0001:00027b50       __catch$?SetColumnCount@CGridCtrl@@QAEHH@Z$0 10028b50 f   GridCtrl.obj
 0001:00028e9a       __catch$?SetRowCount@CGridCtrl@@QAEHH@Z$0 10029e9a f   GridCtrl.obj
 0001:0002a750       $LN64                      1002b750     InPlaceEdit.obj
 0001:0002a760       $LN63                      1002b760     InPlaceEdit.obj
 0001:0002b770       ?AfxGetPctrData@@YGJH@Z    1002c770 f   IndexOptimizer.obj
 0001:0002f854       ?find_pe_section@@YAPAU_IMAGE_SECTION_HEADER@@QAEI@Z 10030854 f   msvcrt:utility.obj
 0001:0002f89d       ?is_potentially_valid_image_base@@YA_NQAX@Z 1003089d f   msvcrt:utility.obj
 0001:0002fbe0       $$000000                   10030be0     msvcrt:alloca16.obj
 0001:0002fbf6       alloca_8                   10030bf6     msvcrt:alloca16.obj
 0001:0002fc96       ?ArrayUnwindFilter@@YAHPAU_EXCEPTION_POINTERS@@@Z 10030c96 f   msvcrt:ehvecdtr.obj
 0001:0002fd55       ?__scrt_initialize_thread_safe_statics@@YAHXZ 10030d55 f   msvcrt:thread_safe_statics.obj
 0001:0002fd7c       ?__scrt_initialize_thread_safe_statics_platform_specific@@YAXXZ 10030d7c f   msvcrt:thread_safe_statics.obj
 0001:0002fdfe       ?__scrt_uninitialize_thread_safe_statics@@YAXXZ 10030dfe f   msvcrt:thread_safe_statics.obj
 0001:0002ff76       ?dllmain_crt_dispatch@@YGHQAUHINSTANCE__@@KQAX@Z 10030f76 f   msvcrt:dll_dllmain.obj
 0001:0002ffc9       ?dllmain_crt_process_attach@@YAHQAUHINSTANCE__@@QAX@Z 10030fc9 f   msvcrt:dll_dllmain.obj
 0001:000300d0       ?dllmain_crt_process_detach@@YAH_N@Z 100310d0 f   msvcrt:dll_dllmain.obj
 0001:00030180       ?dllmain_dispatch@@YAHQAUHINSTANCE__@@KQAX@Z 10031180 f   msvcrt:dll_dllmain.obj
 0001:0003028b       ?dllmain_raw@@YGHQAUHINSTANCE__@@KQAX@Z 1003128b f   msvcrt:dll_dllmain.obj
 0001:00030400       $$000000                   10031400     msvcrt:sehprolg4.obj
 0001:00030450       $$000000                   10031450     msvcrt:sehprolg4.obj
 0001:00030470       $$000000                   10031470     msvcrt:sehprolg4gs.obj
 0001:000304c0       $$000000                   100314c0     msvcrt:sehprolg4gs.obj
 0001:0003058b       ___castguard_compat_check  1003158b f   msvcrt:guard_support.obj
 0001:00030653       ___castguard_slow_path_compat_check 10031653 f   msvcrt:guard_support.obj
 0001:00030d80       $$000000                   10031d80     msvcrt:chkstk.obj
 0001:00030d94       cs10                       10031d94     msvcrt:chkstk.obj
 0001:00030da2       cs20                       10031da2     msvcrt:chkstk.obj
 0001:00030dab       ___get_entropy             10031dab f   msvcrt:gs_support.obj
 0001:00031627       _memmove_s                 10032627 f   atls:atlbase.obj
 0001:000318d0       __unwindfunclet$??0CSTDataItem@@QAE@XZ$0 100328d0 f   DataItem.obj
 0001:000318d8       __unwindfunclet$??0CSTDataItem@@QAE@XZ$1 100328d8 f   DataItem.obj
 0001:000318e4       __unwindfunclet$??0CSTDataItem@@QAE@XZ$2 100328e4 f   DataItem.obj
 0001:000318f4       __ehhandler$??0CSTDataItem@@QAE@XZ 100328f4 f   DataItem.obj
 0001:00031920       __unwindfunclet$?GetComment@CSTDataItem@@UAE?AV?$CStringT@DV?$StrTraitMFC_DLL@DV?$ChTraitsCRT@D@ATL@@@@@ATL@@PBD@Z$0 10032920 f   DataItem.obj
 0001:0003193f       __ehhandler$?GetComment@CSTDataItem@@UAE?AV?$CStringT@DV?$StrTraitMFC_DLL@DV?$ChTraitsCRT@D@ATL@@@@@ATL@@PBD@Z 1003293f f   DataItem.obj
 0001:00031960       __unwindfunclet$??0CSDataItem@@QAE@XZ$0 10032960 f   SDataItem.obj
 0001:00031968       __unwindfunclet$??0CSDataItem@@QAE@XZ$1 10032968 f   SDataItem.obj
 0001:00031979       __ehhandler$??0CSDataItem@@QAE@XZ 10032979 f   SDataItem.obj
 0001:000319a0       __unwindfunclet$??0CBarFolder@CSTGfxOutBarCtrl@@QAE@PBDK@Z$0 100329a0 f   STGfxOutBarCtrl.obj
 0001:000319b0       __ehhandler$??0CBarFolder@CSTGfxOutBarCtrl@@QAE@PBDK@Z 100329b0 f   STGfxOutBarCtrl.obj
 0001:000319d0       __unwindfunclet$??0CSTGfxOutBarCtrl@@QAE@XZ$0 100329d0 f   STGfxOutBarCtrl.obj
 0001:000319d8       __unwindfunclet$??0CSTGfxOutBarCtrl@@QAE@XZ$1 100329d8 f   STGfxOutBarCtrl.obj
 0001:000319e6       __unwindfunclet$??0CSTGfxOutBarCtrl@@QAE@XZ$2 100329e6 f   STGfxOutBarCtrl.obj
 0001:000319f4       __unwindfunclet$??0CSTGfxOutBarCtrl@@QAE@XZ$3 100329f4 f   STGfxOutBarCtrl.obj
 0001:00031a03       __ehhandler$??0CSTGfxOutBarCtrl@@QAE@XZ 10032a03 f   STGfxOutBarCtrl.obj
 0001:00031a20       __ehhandler$??1CBarFolder@CSTGfxOutBarCtrl@@UAE@XZ 10032a20 f   STGfxOutBarCtrl.obj
 0001:00031a40       __unwindfunclet$??1CGdiObject@@UAE@XZ$2 10032a40 f   STGfxOutBarCtrl.obj
 0001:00031a51       __ehhandler$??1CGdiObject@@UAE@XZ 10032a51 f   STGfxOutBarCtrl.obj
 0001:00031a80       __ehhandler$??1CSTGfxOutBarCtrl@@UAE@XZ 10032a80 f   STGfxOutBarCtrl.obj
 0001:00031aa0       __ehhandler$??_GCBarFolder@CSTGfxOutBarCtrl@@UAEPAXI@Z 10032aa0 f   STGfxOutBarCtrl.obj
 0001:00031ac0       __unwindfunclet$?AddFolder@CSTGfxOutBarCtrl@@QAEHPBDK@Z$0 10032ac0 f   STGfxOutBarCtrl.obj
 0001:00031acf       __unwindfunclet$?AddFolder@CSTGfxOutBarCtrl@@QAEHPBDK@Z$1 10032acf f   STGfxOutBarCtrl.obj
 0001:00031adf       __ehhandler$?AddFolder@CSTGfxOutBarCtrl@@QAEHPBDK@Z 10032adf f   STGfxOutBarCtrl.obj
 0001:00031b00       __unwindfunclet$?AddFolderBar@CSTGfxOutBarCtrl@@QAEHPBDPAVCWnd@@K@Z$0 10032b00 f   STGfxOutBarCtrl.obj
 0001:00031b0f       __unwindfunclet$?AddFolderBar@CSTGfxOutBarCtrl@@QAEHPBDPAVCWnd@@K@Z$1 10032b0f f   STGfxOutBarCtrl.obj
 0001:00031b1f       __ehhandler$?AddFolderBar@CSTGfxOutBarCtrl@@QAEHPBDPAVCWnd@@K@Z 10032b1f f   STGfxOutBarCtrl.obj
 0001:00031b40       __unwindfunclet$?AnimateFolderScroll@CSTGfxOutBarCtrl@@QAEXHH@Z$0 10032b40 f   STGfxOutBarCtrl.obj
 0001:00031b4b       __unwindfunclet$?AnimateFolderScroll@CSTGfxOutBarCtrl@@QAEXHH@Z$1 10032b4b f   STGfxOutBarCtrl.obj
 0001:00031b53       __unwindfunclet$?AnimateFolderScroll@CSTGfxOutBarCtrl@@QAEXHH@Z$2 10032b53 f   STGfxOutBarCtrl.obj
 0001:00031b5e       __unwindfunclet$?AnimateFolderScroll@CSTGfxOutBarCtrl@@QAEXHH@Z$3 10032b5e f   STGfxOutBarCtrl.obj
 0001:00031b6e       __ehhandler$?AnimateFolderScroll@CSTGfxOutBarCtrl@@QAEXHH@Z 10032b6e f   STGfxOutBarCtrl.obj
 0001:00031ba0       __unwindfunclet$?CreateObject@CSTGfxOutBarCtrl@@SGPAVCObject@@XZ$0 10032ba0 f   STGfxOutBarCtrl.obj
 0001:00031baf       __ehhandler$?CreateObject@CSTGfxOutBarCtrl@@SGPAVCObject@@XZ 10032baf f   STGfxOutBarCtrl.obj
 0001:00031bd0       __unwindfunclet$?DrawAnimItem@CSTGfxOutBarCtrl@@QAEXHHH@Z$0 10032bd0 f   STGfxOutBarCtrl.obj
 0001:00031be0       __ehhandler$?DrawAnimItem@CSTGfxOutBarCtrl@@QAEXHHH@Z 10032be0 f   STGfxOutBarCtrl.obj
 0001:00031c10       __unwindfunclet$?DrawFolder@CSTGfxOutBarCtrl@@IAEXPAVCDC@@HVCRect@@_N@Z$0 10032c10 f   STGfxOutBarCtrl.obj
 0001:00031c1b       __unwindfunclet$?DrawFolder@CSTGfxOutBarCtrl@@IAEXPAVCDC@@HVCRect@@_N@Z$1 10032c1b f   STGfxOutBarCtrl.obj
 0001:00031c27       __unwindfunclet$?DrawFolder@CSTGfxOutBarCtrl@@IAEXPAVCDC@@HVCRect@@_N@Z$2 10032c27 f   STGfxOutBarCtrl.obj
 0001:00031c33       __unwindfunclet$?DrawFolder@CSTGfxOutBarCtrl@@IAEXPAVCDC@@HVCRect@@_N@Z$3 10032c33 f   STGfxOutBarCtrl.obj
 0001:00031c3e       __unwindfunclet$?DrawFolder@CSTGfxOutBarCtrl@@IAEXPAVCDC@@HVCRect@@_N@Z$4 10032c3e f   STGfxOutBarCtrl.obj
 0001:00031c49       __unwindfunclet$?DrawFolder@CSTGfxOutBarCtrl@@IAEXPAVCDC@@HVCRect@@_N@Z$5 10032c49 f   STGfxOutBarCtrl.obj
 0001:00031c55       __unwindfunclet$?DrawFolder@CSTGfxOutBarCtrl@@IAEXPAVCDC@@HVCRect@@_N@Z$6 10032c55 f   STGfxOutBarCtrl.obj
 0001:00031c60       __unwindfunclet$?DrawFolder@CSTGfxOutBarCtrl@@IAEXPAVCDC@@HVCRect@@_N@Z$7 10032c60 f   STGfxOutBarCtrl.obj
 0001:00031c71       __ehhandler$?DrawFolder@CSTGfxOutBarCtrl@@IAEXPAVCDC@@HVCRect@@_N@Z 10032c71 f   STGfxOutBarCtrl.obj
 0001:00031ca0       __unwindfunclet$?DrawItem@CSTGfxOutBarCtrl@@QAEXPAVCDC@@HVCRect@@H_N@Z$0 10032ca0 f   STGfxOutBarCtrl.obj
 0001:00031cae       __ehhandler$?DrawItem@CSTGfxOutBarCtrl@@QAEXPAVCDC@@HVCRect@@H_N@Z 10032cae f   STGfxOutBarCtrl.obj
 0001:00031ce0       __unwindfunclet$?GetItemSize@CSTGfxOutBarCtrl@@QAE?AVCSize@@HHH@Z$0 10032ce0 f   STGfxOutBarCtrl.obj
 0001:00031ced       __ehhandler$?GetItemSize@CSTGfxOutBarCtrl@@QAE?AVCSize@@HHH@Z 10032ced f   STGfxOutBarCtrl.obj
 0001:00031d20       __unwindfunclet$?GetItemText@CSTGfxOutBarCtrl@@QAE?AV?$CStringT@DV?$StrTraitMFC_DLL@DV?$ChTraitsCRT@D@ATL@@@@@ATL@@H@Z$0 10032d20 f   STGfxOutBarCtrl.obj
 0001:00031d3f       __ehhandler$?GetItemText@CSTGfxOutBarCtrl@@QAE?AV?$CStringT@DV?$StrTraitMFC_DLL@DV?$ChTraitsCRT@D@ATL@@@@@ATL@@H@Z 10032d3f f   STGfxOutBarCtrl.obj
 0001:00031d60       __unwindfunclet$?HighlightFolder@CSTGfxOutBarCtrl@@QAEXH@Z$0 10032d60 f   STGfxOutBarCtrl.obj
 0001:00031d68       __unwindfunclet$?HighlightFolder@CSTGfxOutBarCtrl@@QAEXH@Z$1 10032d68 f   STGfxOutBarCtrl.obj
 0001:00031d70       __unwindfunclet$?HighlightFolder@CSTGfxOutBarCtrl@@QAEXH@Z$2 10032d70 f   STGfxOutBarCtrl.obj
 0001:00031d78       __unwindfunclet$?HighlightFolder@CSTGfxOutBarCtrl@@QAEXH@Z$3 10032d78 f   STGfxOutBarCtrl.obj
 0001:00031d80       __unwindfunclet$?HighlightFolder@CSTGfxOutBarCtrl@@QAEXH@Z$4 10032d80 f   STGfxOutBarCtrl.obj
 0001:00031d8d       __ehhandler$?HighlightFolder@CSTGfxOutBarCtrl@@QAEXH@Z 10032d8d f   STGfxOutBarCtrl.obj
 0001:00031dc0       __unwindfunclet$?HighlightItem@CSTGfxOutBarCtrl@@QAEXH_N@Z$0 10032dc0 f   STGfxOutBarCtrl.obj
 0001:00031dc8       __unwindfunclet$?HighlightItem@CSTGfxOutBarCtrl@@QAEXH_N@Z$1 10032dc8 f   STGfxOutBarCtrl.obj
 0001:00031dd5       __ehhandler$?HighlightItem@CSTGfxOutBarCtrl@@QAEXH_N@Z 10032dd5 f   STGfxOutBarCtrl.obj
 0001:00031e00       __unwindfunclet$?InsertItem@CBarFolder@CSTGfxOutBarCtrl@@QAEHHPBDHK@Z$0 10032e00 f   STGfxOutBarCtrl.obj
 0001:00031e14       __ehhandler$?InsertItem@CBarFolder@CSTGfxOutBarCtrl@@QAEHHPBDHK@Z 10032e14 f   STGfxOutBarCtrl.obj
 0001:00031e40       __unwindfunclet$?InsertItem@CSTGfxOutBarCtrl@@QAEHHHPBDHK@Z$0 10032e40 f   STGfxOutBarCtrl.obj
 0001:00031e54       __ehhandler$?InsertItem@CSTGfxOutBarCtrl@@QAEHHHPBDHK@Z 10032e54 f   STGfxOutBarCtrl.obj
 0001:00031e80       __unwindfunclet$?OnLButtonDown@CSTGfxOutBarCtrl@@IAEXIVCPoint@@@Z$6 10032e80 f   STGfxOutBarCtrl.obj
 0001:00031e8b       __unwindfunclet$?OnLButtonDown@CSTGfxOutBarCtrl@@IAEXIVCPoint@@@Z$7 10032e8b f   STGfxOutBarCtrl.obj
 0001:00031e96       __unwindfunclet$?OnLButtonDown@CSTGfxOutBarCtrl@@IAEXIVCPoint@@@Z$8 10032e96 f   STGfxOutBarCtrl.obj
 0001:00031ea1       __unwindfunclet$?OnLButtonDown@CSTGfxOutBarCtrl@@IAEXIVCPoint@@@Z$9 10032ea1 f   STGfxOutBarCtrl.obj
 0001:00031eb1       __ehhandler$?OnLButtonDown@CSTGfxOutBarCtrl@@IAEXIVCPoint@@@Z 10032eb1 f   STGfxOutBarCtrl.obj
 0001:00031ee0       __unwindfunclet$?OnPaint@CSTGfxOutBarCtrl@@IAEXXZ$0 10032ee0 f   STGfxOutBarCtrl.obj
 0001:00031eeb       __unwindfunclet$?OnPaint@CSTGfxOutBarCtrl@@IAEXXZ$1 10032eeb f   STGfxOutBarCtrl.obj
 0001:00031ef6       __unwindfunclet$?OnPaint@CSTGfxOutBarCtrl@@IAEXXZ$2 10032ef6 f   STGfxOutBarCtrl.obj
 0001:00031f06       __ehhandler$?OnPaint@CSTGfxOutBarCtrl@@IAEXXZ 10032f06 f   STGfxOutBarCtrl.obj
 0001:00031f30       __unwindfunclet$?PaintItems@CSTGfxOutBarCtrl@@QAEXPAVCDC@@HVCRect@@@Z$0 10032f30 f   STGfxOutBarCtrl.obj
 0001:00031f3d       __ehhandler$?PaintItems@CSTGfxOutBarCtrl@@QAEXPAVCDC@@HVCRect@@@Z 10032f3d f   STGfxOutBarCtrl.obj
 0001:00031f80       __unwindfunclet$??0CStrategyLoader@@QAE@XZ$0 10032f80 f   StrategyLoader.obj
 0001:00031f8f       __unwindfunclet$??0CStrategyLoader@@QAE@XZ$1 10032f8f f   StrategyLoader.obj
 0001:00031f9b       __unwindfunclet$??0CStrategyLoader@@QAE@XZ$2 10032f9b f   StrategyLoader.obj
 0001:00031fa7       __unwindfunclet$??0CStrategyLoader@@QAE@XZ$7 10032fa7 f   StrategyLoader.obj
 0001:00031fca       __unwindfunclet$??0CStrategyLoader@@QAE@XZ$8 10032fca f   StrategyLoader.obj
 0001:00031fed       __unwindfunclet$??0CStrategyLoader@@QAE@XZ$5 10032fed f   StrategyLoader.obj
 0001:00031ff9       __unwindfunclet$??0CStrategyLoader@@QAE@XZ$6 10032ff9 f   StrategyLoader.obj
 0001:00032005       __unwindfunclet$??0CStrategyLoader@@QAE@XZ$9 10033005 f   StrategyLoader.obj
 0001:00032016       __ehhandler$??0CStrategyLoader@@QAE@XZ 10033016 f   StrategyLoader.obj
 0001:00032040       __unwindfunclet$?ComServerFromProgID@CProgIDInfo@@SAJPBDAAV?$CStringT@DV?$StrTraitMFC_DLL@DV?$ChTraitsCRT@D@ATL@@@@@ATL@@@Z$0 10033040 f   StrategyLoader.obj
 0001:00032049       __unwindfunclet$?ComServerFromProgID@CProgIDInfo@@SAJPBDAAV?$CStringT@DV?$StrTraitMFC_DLL@DV?$ChTraitsCRT@D@ATL@@@@@ATL@@@Z$1 10033049 f   StrategyLoader.obj
 0001:00032052       __unwindfunclet$?ComServerFromProgID@CProgIDInfo@@SAJPBDAAV?$CStringT@DV?$StrTraitMFC_DLL@DV?$ChTraitsCRT@D@ATL@@@@@ATL@@@Z$2 10033052 f   StrategyLoader.obj
 0001:00032060       __ehhandler$?ComServerFromProgID@CProgIDInfo@@SAJPBDAAV?$CStringT@DV?$StrTraitMFC_DLL@DV?$ChTraitsCRT@D@ATL@@@@@ATL@@@Z 10033060 f   StrategyLoader.obj
 0001:00032080       __unwindfunclet$?LoadStrategyManager@CStrategyLoader@@AAEHXZ$0 10033080 f   StrategyLoader.obj
 0001:00032091       __ehhandler$?LoadStrategyManager@CStrategyLoader@@AAEHXZ 10033091 f   StrategyLoader.obj
 0001:000320c0       __unwindfunclet$?GetSTFolderList@CLoadSTFile@@SAHPBDAAVCStringArray@@@Z$0 100330c0 f   STTreeCtrl.obj
 0001:000320cc       __unwindfunclet$?GetSTFolderList@CLoadSTFile@@SAHPBDAAVCStringArray@@@Z$1 100330cc f   STTreeCtrl.obj
 0001:000320d7       __unwindfunclet$?GetSTFolderList@CLoadSTFile@@SAHPBDAAVCStringArray@@@Z$2 100330d7 f   STTreeCtrl.obj
 0001:000320e8       __ehhandler$?GetSTFolderList@CLoadSTFile@@SAHPBDAAVCStringArray@@@Z 100330e8 f   STTreeCtrl.obj
 0001:00032120       __unwindfunclet$?LoadSTFolderList@CSTTreeCtrl@@UAEXPAU_TREEITEM@@PBDPAUSTTREEFOLDER_INFO@@H@Z$0 10033120 f   STTreeCtrl.obj
 0001:0003212b       __unwindfunclet$?LoadSTFolderList@CSTTreeCtrl@@UAEXPAU_TREEITEM@@PBDPAUSTTREEFOLDER_INFO@@H@Z$4 1003312b f   STTreeCtrl.obj
 0001:00032137       __unwindfunclet$?LoadSTFolderList@CSTTreeCtrl@@UAEXPAU_TREEITEM@@PBDPAUSTTREEFOLDER_INFO@@H@Z$5 10033137 f   STTreeCtrl.obj
 0001:00032142       __unwindfunclet$?LoadSTFolderList@CSTTreeCtrl@@UAEXPAU_TREEITEM@@PBDPAUSTTREEFOLDER_INFO@@H@Z$6 10033142 f   STTreeCtrl.obj
 0001:0003214e       __unwindfunclet$?LoadSTFolderList@CSTTreeCtrl@@UAEXPAU_TREEITEM@@PBDPAUSTTREEFOLDER_INFO@@H@Z$7 1003314e f   STTreeCtrl.obj
 0001:0003215a       __unwindfunclet$?LoadSTFolderList@CSTTreeCtrl@@UAEXPAU_TREEITEM@@PBDPAUSTTREEFOLDER_INFO@@H@Z$1 1003315a f   STTreeCtrl.obj
 0001:00032166       __unwindfunclet$?LoadSTFolderList@CSTTreeCtrl@@UAEXPAU_TREEITEM@@PBDPAUSTTREEFOLDER_INFO@@H@Z$2 10033166 f   STTreeCtrl.obj
 0001:00032172       __unwindfunclet$?LoadSTFolderList@CSTTreeCtrl@@UAEXPAU_TREEITEM@@PBDPAUSTTREEFOLDER_INFO@@H@Z$3 10033172 f   STTreeCtrl.obj
 0001:00032183       __ehhandler$?LoadSTFolderList@CSTTreeCtrl@@UAEXPAU_TREEITEM@@PBDPAUSTTREEFOLDER_INFO@@H@Z 10033183 f   STTreeCtrl.obj
 0001:000321b0       __unwindfunclet$?LoadSTTree@CSTBasicTree@@UAEXXZ$0 100331b0 f   STTreeCtrl.obj
 0001:000321b9       __unwindfunclet$?LoadSTTree@CSTBasicTree@@UAEXXZ$1 100331b9 f   STTreeCtrl.obj
 0001:000321c6       __ehhandler$?LoadSTTree@CSTBasicTree@@UAEXXZ 100331c6 f   STTreeCtrl.obj
 0001:000321f0       __unwindfunclet$?LoadSTTree@CSTExtTree@@UAEXXZ$0 100331f0 f   STTreeCtrl.obj
 0001:000321f9       __unwindfunclet$?LoadSTTree@CSTExtTree@@UAEXXZ$1 100331f9 f   STTreeCtrl.obj
 0001:00032206       __ehhandler$?LoadSTTree@CSTExtTree@@UAEXXZ 10033206 f   STTreeCtrl.obj
 0001:00032230       __unwindfunclet$?OnDblclk@CSTTreeCtrl@@IAEXPAUtagNMHDR@@PAJ@Z$0 10033230 f   STTreeCtrl.obj
 0001:00032238       __unwindfunclet$?OnDblclk@CSTTreeCtrl@@IAEXPAUtagNMHDR@@PAJ@Z$1 10033238 f   STTreeCtrl.obj
 0001:00032246       __ehhandler$?OnDblclk@CSTTreeCtrl@@IAEXPAUtagNMHDR@@PAJ@Z 10033246 f   STTreeCtrl.obj
 0001:00032270       __unwindfunclet$?OnLButtonDown@CSTTreeCtrl@@IAEXIVCPoint@@@Z$0 10033270 f   STTreeCtrl.obj
 0001:00032278       __unwindfunclet$?OnLButtonDown@CSTTreeCtrl@@IAEXIVCPoint@@@Z$1 10033278 f   STTreeCtrl.obj
 0001:00032286       __ehhandler$?OnLButtonDown@CSTTreeCtrl@@IAEXIVCPoint@@@Z 10033286 f   STTreeCtrl.obj
 0001:000322b0       __unwindfunclet$?SearchFolderItem@CSTTreeCtrl@@UAEPAU_TREEITEM@@PBD@Z$0 100332b0 f   STTreeCtrl.obj
 0001:000322b9       __unwindfunclet$?SearchFolderItem@CSTTreeCtrl@@UAEPAU_TREEITEM@@PBD@Z$1 100332b9 f   STTreeCtrl.obj
 0001:000322c7       __ehhandler$?SearchFolderItem@CSTTreeCtrl@@UAEPAU_TREEITEM@@PBD@Z 100332c7 f   STTreeCtrl.obj
 0001:000322f0       __unwindfunclet$?SearchItem@CSTTreeCtrl@@UAEPAU_TREEITEM@@PAU2@PBD@Z$0 100332f0 f   STTreeCtrl.obj
 0001:000322f9       __unwindfunclet$?SearchItem@CSTTreeCtrl@@UAEPAU_TREEITEM@@PAU2@PBD@Z$1 100332f9 f   STTreeCtrl.obj
 0001:00032307       __ehhandler$?SearchItem@CSTTreeCtrl@@UAEPAU_TREEITEM@@PAU2@PBD@Z 10033307 f   STTreeCtrl.obj
 0001:00032330       __unwindfunclet$?CreateObject@CMschart1@@SGPAVCObject@@XZ$0 10033330 f   mschart1.obj
 0001:0003233f       __ehhandler$?CreateObject@CMschart1@@SGPAVCObject@@XZ 1003333f f   mschart1.obj
 0001:00032360       __unwindfunclet$?CreateObject@CTChart@@SGPAVCObject@@XZ$0 10033360 f   tchart.obj
 0001:0003236f       __ehhandler$?CreateObject@CTChart@@SGPAVCObject@@XZ 1003336f f   tchart.obj
 0001:00032390       __unwindfunclet$?SeriesTitleLegend@CTChart@@QAE?AV?$CStringT@DV?$StrTraitMFC_DLL@DV?$ChTraitsCRT@D@ATL@@@@@ATL@@J@Z$0 10033390 f   tchart.obj
 0001:000323af       __ehhandler$?SeriesTitleLegend@CTChart@@QAE?AV?$CStringT@DV?$StrTraitMFC_DLL@DV?$ChTraitsCRT@D@ATL@@@@@ATL@@J@Z 100333af f   tchart.obj
 0001:000323d0       __ehhandler$??1CXTabCtrl@@UAE@XZ 100333d0 f   XTabCtrl.obj
 0001:000323f0       __ehhandler$??_GCXTabCtrl@@UAEPAXI@Z 100333f0 f   XTabCtrl.obj
 0001:00032410       __unwindfunclet$?DrawItem@CXTabCtrl@@MAEXPAUtagDRAWITEMSTRUCT@@@Z$1 10033410 f   XTabCtrl.obj
 0001:0003241c       __unwindfunclet$?DrawItem@CXTabCtrl@@MAEXPAUtagDRAWITEMSTRUCT@@@Z$2 1003341c f   XTabCtrl.obj
 0001:0003242d       __ehhandler$?DrawItem@CXTabCtrl@@MAEXPAUtagDRAWITEMSTRUCT@@@Z 1003342d f   XTabCtrl.obj
 0001:00032460       __unwindfunclet$?DrawLine@CXTabCtrl@@QAEXVCPoint@@0PAVCDC@@K@Z$0 10033460 f   XTabCtrl.obj
 0001:0003246d       __ehhandler$?DrawLine@CXTabCtrl@@QAEXVCPoint@@0PAVCDC@@K@Z 1003346d f   XTabCtrl.obj
 0001:00032490       __ehhandler$?OnLButtonDown@CXTabCtrl@@IAEXIVCPoint@@@Z 10033490 f   XTabCtrl.obj
 0001:000324b0       __ehhandler$?OnLButtonUp@CXTabCtrl@@IAEXIVCPoint@@@Z 100334b0 f   XTabCtrl.obj
 0001:000324d0       __ehhandler$?OnMouseMove@CXTabCtrl@@IAEXIVCPoint@@@Z 100334d0 f   XTabCtrl.obj
 0001:00032500       __unwindfunclet$?OnPaint@CXTabCtrl@@IAEXXZ$0 10033500 f   XTabCtrl.obj
 0001:00032510       __ehhandler$?OnPaint@CXTabCtrl@@IAEXXZ 10033510 f   XTabCtrl.obj
 0001:00032540       __unwindfunclet$?GetComma@CDlgInterface@@QAE?AV?$CStringT@DV?$StrTraitMFC_DLL@DV?$ChTraitsCRT@D@ATL@@@@@ATL@@PBD@Z$1 10033540 f   DlgInterface.obj
 0001:00032549       __unwindfunclet$?GetComma@CDlgInterface@@QAE?AV?$CStringT@DV?$StrTraitMFC_DLL@DV?$ChTraitsCRT@D@ATL@@@@@ATL@@PBD@Z$2 10033549 f   DlgInterface.obj
 0001:00032552       __unwindfunclet$?GetComma@CDlgInterface@@QAE?AV?$CStringT@DV?$StrTraitMFC_DLL@DV?$ChTraitsCRT@D@ATL@@@@@ATL@@PBD@Z$3 10033552 f   DlgInterface.obj
 0001:0003255b       __unwindfunclet$?GetComma@CDlgInterface@@QAE?AV?$CStringT@DV?$StrTraitMFC_DLL@DV?$ChTraitsCRT@D@ATL@@@@@ATL@@PBD@Z$7 1003355b f   DlgInterface.obj
 0001:00032575       __unwindfunclet$?GetComma@CDlgInterface@@QAE?AV?$CStringT@DV?$StrTraitMFC_DLL@DV?$ChTraitsCRT@D@ATL@@@@@ATL@@PBD@Z$5 10033575 f   DlgInterface.obj
 0001:0003257e       __unwindfunclet$?GetComma@CDlgInterface@@QAE?AV?$CStringT@DV?$StrTraitMFC_DLL@DV?$ChTraitsCRT@D@ATL@@@@@ATL@@PBD@Z$6 1003357e f   DlgInterface.obj
 0001:0003258c       __ehhandler$?GetComma@CDlgInterface@@QAE?AV?$CStringT@DV?$StrTraitMFC_DLL@DV?$ChTraitsCRT@D@ATL@@@@@ATL@@PBD@Z 1003358c f   DlgInterface.obj
 0001:000325b0       __unwindfunclet$?GetNumber@CDlgInterface@@QAE?AV?$CStringT@DV?$StrTraitMFC_DLL@DV?$ChTraitsCRT@D@ATL@@@@@ATL@@PBD@Z$0 100335b0 f   DlgInterface.obj
 0001:000325cf       __ehhandler$?GetNumber@CDlgInterface@@QAE?AV?$CStringT@DV?$StrTraitMFC_DLL@DV?$ChTraitsCRT@D@ATL@@@@@ATL@@PBD@Z 100335cf f   DlgInterface.obj
 0001:000325f0       __unwindfunclet$?ParsingComma@CDlgInterface@@QAE?AV?$CStringT@DV?$StrTraitMFC_DLL@DV?$ChTraitsCRT@D@ATL@@@@@ATL@@V23@@Z$0 100335f0 f   DlgInterface.obj
 0001:000325fe       __ehhandler$?ParsingComma@CDlgInterface@@QAE?AV?$CStringT@DV?$StrTraitMFC_DLL@DV?$ChTraitsCRT@D@ATL@@@@@ATL@@V23@@Z 100335fe f   DlgInterface.obj
 0001:00032620       __unwindfunclet$??0CDlgOptimizer@@QAE@PAVCWnd@@@Z$0 10033620 f   DlgOptimizer.obj
 0001:00032628       __unwindfunclet$??0CDlgOptimizer@@QAE@PAVCWnd@@@Z$1 10033628 f   DlgOptimizer.obj
 0001:00032636       __unwindfunclet$??0CDlgOptimizer@@QAE@PAVCWnd@@@Z$2 10033636 f   DlgOptimizer.obj
 0001:00032644       __unwindfunclet$??0CDlgOptimizer@@QAE@PAVCWnd@@@Z$3 10033644 f   DlgOptimizer.obj
 0001:00032652       __unwindfunclet$??0CDlgOptimizer@@QAE@PAVCWnd@@@Z$4 10033652 f   DlgOptimizer.obj
 0001:00032660       __unwindfunclet$??0CDlgOptimizer@@QAE@PAVCWnd@@@Z$5 10033660 f   DlgOptimizer.obj
 0001:0003266e       __unwindfunclet$??0CDlgOptimizer@@QAE@PAVCWnd@@@Z$6 1003366e f   DlgOptimizer.obj
 0001:0003267c       __unwindfunclet$??0CDlgOptimizer@@QAE@PAVCWnd@@@Z$7 1003367c f   DlgOptimizer.obj
 0001:0003268a       __unwindfunclet$??0CDlgOptimizer@@QAE@PAVCWnd@@@Z$8 1003368a f   DlgOptimizer.obj
 0001:00032698       __unwindfunclet$??0CDlgOptimizer@@QAE@PAVCWnd@@@Z$9 10033698 f   DlgOptimizer.obj
 0001:000326a7       __unwindfunclet$??0CDlgOptimizer@@QAE@PAVCWnd@@@Z$10 100336a7 f   DlgOptimizer.obj
 0001:000326b6       __unwindfunclet$??0CDlgOptimizer@@QAE@PAVCWnd@@@Z$11 100336b6 f   DlgOptimizer.obj
 0001:000326c5       __unwindfunclet$??0CDlgOptimizer@@QAE@PAVCWnd@@@Z$12 100336c5 f   DlgOptimizer.obj
 0001:000326d4       __unwindfunclet$??0CDlgOptimizer@@QAE@PAVCWnd@@@Z$13 100336d4 f   DlgOptimizer.obj
 0001:000326e3       __unwindfunclet$??0CDlgOptimizer@@QAE@PAVCWnd@@@Z$14 100336e3 f   DlgOptimizer.obj
 0001:000326f2       __unwindfunclet$??0CDlgOptimizer@@QAE@PAVCWnd@@@Z$15 100336f2 f   DlgOptimizer.obj
 0001:00032700       __unwindfunclet$??0CDlgOptimizer@@QAE@PAVCWnd@@@Z$16 10033700 f   DlgOptimizer.obj
 0001:0003270e       __unwindfunclet$??0CDlgOptimizer@@QAE@PAVCWnd@@@Z$17 1003370e f   DlgOptimizer.obj
 0001:0003271c       __unwindfunclet$??0CDlgOptimizer@@QAE@PAVCWnd@@@Z$18 1003371c f   DlgOptimizer.obj
 0001:0003272a       __unwindfunclet$??0CDlgOptimizer@@QAE@PAVCWnd@@@Z$19 1003372a f   DlgOptimizer.obj
 0001:00032738       __unwindfunclet$??0CDlgOptimizer@@QAE@PAVCWnd@@@Z$20 10033738 f   DlgOptimizer.obj
 0001:00032746       __unwindfunclet$??0CDlgOptimizer@@QAE@PAVCWnd@@@Z$21 10033746 f   DlgOptimizer.obj
 0001:00032754       __unwindfunclet$??0CDlgOptimizer@@QAE@PAVCWnd@@@Z$22 10033754 f   DlgOptimizer.obj
 0001:00032763       __unwindfunclet$??0CDlgOptimizer@@QAE@PAVCWnd@@@Z$23 10033763 f   DlgOptimizer.obj
 0001:00032772       __unwindfunclet$??0CDlgOptimizer@@QAE@PAVCWnd@@@Z$24 10033772 f   DlgOptimizer.obj
 0001:00032781       __unwindfunclet$??0CDlgOptimizer@@QAE@PAVCWnd@@@Z$25 10033781 f   DlgOptimizer.obj
 0001:00032790       __unwindfunclet$??0CDlgOptimizer@@QAE@PAVCWnd@@@Z$26 10033790 f   DlgOptimizer.obj
 0001:0003279e       __unwindfunclet$??0CDlgOptimizer@@QAE@PAVCWnd@@@Z$27 1003379e f   DlgOptimizer.obj
 0001:000327ac       __unwindfunclet$??0CDlgOptimizer@@QAE@PAVCWnd@@@Z$28 100337ac f   DlgOptimizer.obj
 0001:000327ba       __unwindfunclet$??0CDlgOptimizer@@QAE@PAVCWnd@@@Z$29 100337ba f   DlgOptimizer.obj
 0001:000327c8       __unwindfunclet$??0CDlgOptimizer@@QAE@PAVCWnd@@@Z$30 100337c8 f   DlgOptimizer.obj
 0001:000327d6       __unwindfunclet$??0CDlgOptimizer@@QAE@PAVCWnd@@@Z$31 100337d6 f   DlgOptimizer.obj
 0001:000327e4       __unwindfunclet$??0CDlgOptimizer@@QAE@PAVCWnd@@@Z$32 100337e4 f   DlgOptimizer.obj
 0001:000327f2       __unwindfunclet$??0CDlgOptimizer@@QAE@PAVCWnd@@@Z$33 100337f2 f   DlgOptimizer.obj
 0001:00032800       __unwindfunclet$??0CDlgOptimizer@@QAE@PAVCWnd@@@Z$34 10033800 f   DlgOptimizer.obj
 0001:0003280e       __unwindfunclet$??0CDlgOptimizer@@QAE@PAVCWnd@@@Z$35 1003380e f   DlgOptimizer.obj
 0001:0003281d       __unwindfunclet$??0CDlgOptimizer@@QAE@PAVCWnd@@@Z$36 1003381d f   DlgOptimizer.obj
 0001:0003282c       __unwindfunclet$??0CDlgOptimizer@@QAE@PAVCWnd@@@Z$37 1003382c f   DlgOptimizer.obj
 0001:0003283b       __unwindfunclet$??0CDlgOptimizer@@QAE@PAVCWnd@@@Z$38 1003383b f   DlgOptimizer.obj
 0001:00032849       __unwindfunclet$??0CDlgOptimizer@@QAE@PAVCWnd@@@Z$39 10033849 f   DlgOptimizer.obj
 0001:00032858       __unwindfunclet$??0CDlgOptimizer@@QAE@PAVCWnd@@@Z$40 10033858 f   DlgOptimizer.obj
 0001:00032866       __unwindfunclet$??0CDlgOptimizer@@QAE@PAVCWnd@@@Z$41 10033866 f   DlgOptimizer.obj
 0001:00032874       __unwindfunclet$??0CDlgOptimizer@@QAE@PAVCWnd@@@Z$42 10033874 f   DlgOptimizer.obj
 0001:00032887       __ehhandler$??0CDlgOptimizer@@QAE@PAVCWnd@@@Z 10033887 f   DlgOptimizer.obj
 0001:000328b0       __ehhandler$??1?$CList@PAUSTMNG_ITEMINFO@@PAU1@@@UAE@XZ 100338b0 f   DlgOptimizer.obj
 0001:000328d0       __unwindfunclet$??HATL@@YA?AV?$CStringT@DV?$StrTraitMFC_DLL@DV?$ChTraitsCRT@D@ATL@@@@@0@ABV10@0@Z$0 100338d0 f   DlgOptimizer.obj
 0001:000328ef       __ehhandler$??HATL@@YA?AV?$CStringT@DV?$StrTraitMFC_DLL@DV?$ChTraitsCRT@D@ATL@@@@@0@ABV10@0@Z 100338ef f   DlgOptimizer.obj
 0001:00032910       __unwindfunclet$??HATL@@YA?AV?$CStringT@DV?$StrTraitMFC_DLL@DV?$ChTraitsCRT@D@ATL@@@@@0@ABV10@PBD@Z$0 10033910 f   DlgOptimizer.obj
 0001:0003292f       __ehhandler$??HATL@@YA?AV?$CStringT@DV?$StrTraitMFC_DLL@DV?$ChTraitsCRT@D@ATL@@@@@0@ABV10@PBD@Z 1003392f f   DlgOptimizer.obj
 0001:00032950       __ehhandler$??_G?$CList@PAUSTMNG_ITEMINFO@@PAU1@@@UAEPAXI@Z 10033950 f   DlgOptimizer.obj
 0001:00032970       __unwindfunclet$?AfxGetPctrData@@YGJH@Z$0 10033970 f   DlgOptimizer.obj
 0001:0003297e       __ehhandler$?AfxGetPctrData@@YGJH@Z 1003397e f   DlgOptimizer.obj
 0001:000329b0       __unwindfunclet$?CreateTImeSetupDlg@CDlgOptimizer@@QAEXXZ$0 100339b0 f   DlgOptimizer.obj
 0001:000329bf       __ehhandler$?CreateTImeSetupDlg@CDlgOptimizer@@QAEXXZ 100339bf f   DlgOptimizer.obj
 0001:000329f0       __unwindfunclet$?GetJMNameAndGubunFromCode@CDlgOptimizer@@QAE?AV?$CStringT@DV?$StrTraitMFC_DLL@DV?$ChTraitsCRT@D@ATL@@@@@ATL@@V23@@Z$0 100339f0 f   DlgOptimizer.obj
 0001:000329fe       __ehhandler$?GetJMNameAndGubunFromCode@CDlgOptimizer@@QAE?AV?$CStringT@DV?$StrTraitMFC_DLL@DV?$ChTraitsCRT@D@ATL@@@@@ATL@@V23@@Z 100339fe f   DlgOptimizer.obj
 0001:00032a20       __ehhandler$?InitControls@CDlgOptimizer@@QAEXXZ 10033a20 f   DlgOptimizer.obj
 0001:00032a40       __unwindfunclet$?InitTab@CDlgOptimizer@@QAEXXZ$0 10033a40 f   DlgOptimizer.obj
 0001:00032a4a       __unwindfunclet$?InitTab@CDlgOptimizer@@QAEXXZ$3 10033a4a f   DlgOptimizer.obj
 0001:00032a54       __unwindfunclet$?InitTab@CDlgOptimizer@@QAEXXZ$4 10033a54 f   DlgOptimizer.obj
 0001:00032a5e       __unwindfunclet$?InitTab@CDlgOptimizer@@QAEXXZ$5 10033a5e f   DlgOptimizer.obj
 0001:00032a6d       __ehhandler$?InitTab@CDlgOptimizer@@QAEXXZ 10033a6d f   DlgOptimizer.obj
 0001:00032aa0       __unwindfunclet$?IsNumber@CDlgOptimizer@@QAEHV?$CStringT@DV?$StrTraitMFC_DLL@DV?$ChTraitsCRT@D@ATL@@@@@ATL@@H@Z$0 10033aa0 f   DlgOptimizer.obj
 0001:00032aae       __ehhandler$?IsNumber@CDlgOptimizer@@QAEHV?$CStringT@DV?$StrTraitMFC_DLL@DV?$ChTraitsCRT@D@ATL@@@@@ATL@@H@Z 10033aae f   DlgOptimizer.obj
 0001:00032ad0       __unwindfunclet$?LoadOutlookBar@CDlgOptimizer@@QAEXXZ$0 10033ad0 f   DlgOptimizer.obj
 0001:00032ad9       __unwindfunclet$?LoadOutlookBar@CDlgOptimizer@@QAEXXZ$1 10033ad9 f   DlgOptimizer.obj
 0001:00032ae1       __unwindfunclet$?LoadOutlookBar@CDlgOptimizer@@QAEXXZ$2 10033ae1 f   DlgOptimizer.obj
 0001:00032aef       __ehhandler$?LoadOutlookBar@CDlgOptimizer@@QAEXXZ 10033aef f   DlgOptimizer.obj
 0001:00032b20       __unwindfunclet$?LoadSTList@CDlgOptimizer@@QAEXXZ$0 10033b20 f   DlgOptimizer.obj
 0001:00032b29       __unwindfunclet$?LoadSTList@CDlgOptimizer@@QAEXXZ$1 10033b29 f   DlgOptimizer.obj
 0001:00032b32       __unwindfunclet$?LoadSTList@CDlgOptimizer@@QAEXXZ$7 10033b32 f   DlgOptimizer.obj
 0001:00032b4c       __unwindfunclet$?LoadSTList@CDlgOptimizer@@QAEXXZ$3 10033b4c f   DlgOptimizer.obj
 0001:00032b55       __unwindfunclet$?LoadSTList@CDlgOptimizer@@QAEXXZ$9 10033b55 f   DlgOptimizer.obj
 0001:00032b6f       __unwindfunclet$?LoadSTList@CDlgOptimizer@@QAEXXZ$10 10033b6f f   DlgOptimizer.obj
 0001:00032b8e       __ehhandler$?LoadSTList@CDlgOptimizer@@QAEXXZ 10033b8e f   DlgOptimizer.obj
 0001:00032bb0       __unwindfunclet$?OnBnClickedBtnAddall@CDlgOptimizer@@QAEXXZ$0 10033bb0 f   DlgOptimizer.obj
 0001:00032bb8       __unwindfunclet$?OnBnClickedBtnAddall@CDlgOptimizer@@QAEXXZ$1 10033bb8 f   DlgOptimizer.obj
 0001:00032bc1       __unwindfunclet$?OnBnClickedBtnAddall@CDlgOptimizer@@QAEXXZ$2 10033bc1 f   DlgOptimizer.obj
 0001:00032bcf       __ehhandler$?OnBnClickedBtnAddall@CDlgOptimizer@@QAEXXZ 10033bcf f   DlgOptimizer.obj
 0001:00032bf0       __unwindfunclet$?OnBnClickedBtnAddone@CDlgOptimizer@@QAEXXZ$0 10033bf0 f   DlgOptimizer.obj
 0001:00032bf8       __unwindfunclet$?OnBnClickedBtnAddone@CDlgOptimizer@@QAEXXZ$1 10033bf8 f   DlgOptimizer.obj
 0001:00032c01       __unwindfunclet$?OnBnClickedBtnAddone@CDlgOptimizer@@QAEXXZ$2 10033c01 f   DlgOptimizer.obj
 0001:00032c0f       __ehhandler$?OnBnClickedBtnAddone@CDlgOptimizer@@QAEXXZ 10033c0f f   DlgOptimizer.obj
 0001:00032c30       __unwindfunclet$?OnBtnOpt@CDlgOptimizer@@IAEXXZ$0 10033c30 f   DlgOptimizer.obj
 0001:00032c39       __unwindfunclet$?OnBtnOpt@CDlgOptimizer@@IAEXXZ$1 10033c39 f   DlgOptimizer.obj
 0001:00032c41       __unwindfunclet$?OnBtnOpt@CDlgOptimizer@@IAEXXZ$2 10033c41 f   DlgOptimizer.obj
 0001:00032c49       __unwindfunclet$?OnBtnOpt@CDlgOptimizer@@IAEXXZ$17 10033c49 f   DlgOptimizer.obj
 0001:00032c63       __unwindfunclet$?OnBtnOpt@CDlgOptimizer@@IAEXXZ$18 10033c63 f   DlgOptimizer.obj
 0001:00032c7d       __unwindfunclet$?OnBtnOpt@CDlgOptimizer@@IAEXXZ$19 10033c7d f   DlgOptimizer.obj
 0001:00032c97       __unwindfunclet$?OnBtnOpt@CDlgOptimizer@@IAEXXZ$20 10033c97 f   DlgOptimizer.obj
 0001:00032cb1       __unwindfunclet$?OnBtnOpt@CDlgOptimizer@@IAEXXZ$7 10033cb1 f   DlgOptimizer.obj
 0001:00032cba       __unwindfunclet$?OnBtnOpt@CDlgOptimizer@@IAEXXZ$22 10033cba f   DlgOptimizer.obj
 0001:00032cd4       __unwindfunclet$?OnBtnOpt@CDlgOptimizer@@IAEXXZ$9 10033cd4 f   DlgOptimizer.obj
 0001:00032cdd       __unwindfunclet$?OnBtnOpt@CDlgOptimizer@@IAEXXZ$10 10033cdd f   DlgOptimizer.obj
 0001:00032ce8       __unwindfunclet$?OnBtnOpt@CDlgOptimizer@@IAEXXZ$11 10033ce8 f   DlgOptimizer.obj
 0001:00032cf3       __unwindfunclet$?OnBtnOpt@CDlgOptimizer@@IAEXXZ$13 10033cf3 f   DlgOptimizer.obj
 0001:00032cfe       __unwindfunclet$?OnBtnOpt@CDlgOptimizer@@IAEXXZ$14 10033cfe f   DlgOptimizer.obj
 0001:00032d07       __unwindfunclet$?OnBtnOpt@CDlgOptimizer@@IAEXXZ$15 10033d07 f   DlgOptimizer.obj
 0001:00032d15       __ehhandler$?OnBtnOpt@CDlgOptimizer@@IAEXXZ 10033d15 f   DlgOptimizer.obj
 0001:00032d40       __ehhandler$?OnInitDialog@CDlgOptimizer@@MAEHXZ 10033d40 f   DlgOptimizer.obj
 0001:00032d70       __unwindfunclet$?OnNotify@CDlgOptimizer@@MAEHIJPAJ@Z$0 10033d70 f   DlgOptimizer.obj
 0001:00032d79       __unwindfunclet$?OnNotify@CDlgOptimizer@@MAEHIJPAJ@Z$1 10033d79 f   DlgOptimizer.obj
 0001:00032d82       __unwindfunclet$?OnNotify@CDlgOptimizer@@MAEHIJPAJ@Z$2 10033d82 f   DlgOptimizer.obj
 0001:00032d8b       __unwindfunclet$?OnNotify@CDlgOptimizer@@MAEHIJPAJ@Z$3 10033d8b f   DlgOptimizer.obj
 0001:00032d94       __unwindfunclet$?OnNotify@CDlgOptimizer@@MAEHIJPAJ@Z$10 10033d94 f   DlgOptimizer.obj
 0001:00032dae       __unwindfunclet$?OnNotify@CDlgOptimizer@@MAEHIJPAJ@Z$5 10033dae f   DlgOptimizer.obj
 0001:00032db7       __unwindfunclet$?OnNotify@CDlgOptimizer@@MAEHIJPAJ@Z$11 10033db7 f   DlgOptimizer.obj
 0001:00032dd1       __unwindfunclet$?OnNotify@CDlgOptimizer@@MAEHIJPAJ@Z$7 10033dd1 f   DlgOptimizer.obj
 0001:00032dda       __unwindfunclet$?OnNotify@CDlgOptimizer@@MAEHIJPAJ@Z$8 10033dda f   DlgOptimizer.obj
 0001:00032de3       __unwindfunclet$?OnNotify@CDlgOptimizer@@MAEHIJPAJ@Z$9 10033de3 f   DlgOptimizer.obj
 0001:00032df1       __ehhandler$?OnNotify@CDlgOptimizer@@MAEHIJPAJ@Z 10033df1 f   DlgOptimizer.obj
 0001:00032e10       __unwindfunclet$?OnRmsgObItemDBClk@CDlgOptimizer@@IAEJIJ@Z$0 10033e10 f   DlgOptimizer.obj
 0001:00032e19       __unwindfunclet$?OnRmsgObItemDBClk@CDlgOptimizer@@IAEJIJ@Z$1 10033e19 f   DlgOptimizer.obj
 0001:00032e22       __unwindfunclet$?OnRmsgObItemDBClk@CDlgOptimizer@@IAEJIJ@Z$2 10033e22 f   DlgOptimizer.obj
 0001:00032e2b       __unwindfunclet$?OnRmsgObItemDBClk@CDlgOptimizer@@IAEJIJ@Z$3 10033e2b f   DlgOptimizer.obj
 0001:00032e34       __unwindfunclet$?OnRmsgObItemDBClk@CDlgOptimizer@@IAEJIJ@Z$8 10033e34 f   DlgOptimizer.obj
 0001:00032e4e       __unwindfunclet$?OnRmsgObItemDBClk@CDlgOptimizer@@IAEJIJ@Z$5 10033e4e f   DlgOptimizer.obj
 0001:00032e57       __unwindfunclet$?OnRmsgObItemDBClk@CDlgOptimizer@@IAEJIJ@Z$9 10033e57 f   DlgOptimizer.obj
 0001:00032e76       __ehhandler$?OnRmsgObItemDBClk@CDlgOptimizer@@IAEJIJ@Z 10033e76 f   DlgOptimizer.obj
 0001:00032ea0       __unwindfunclet$?OnSTDataManagerMessagge@CDlgOptimizer@@IAEJIJ@Z$0 10033ea0 f   DlgOptimizer.obj
 0001:00032ea9       __unwindfunclet$?OnSTDataManagerMessagge@CDlgOptimizer@@IAEJIJ@Z$1 10033ea9 f   DlgOptimizer.obj
 0001:00032eb2       __unwindfunclet$?OnSTDataManagerMessagge@CDlgOptimizer@@IAEJIJ@Z$2 10033eb2 f   DlgOptimizer.obj
 0001:00032ebb       __unwindfunclet$?OnSTDataManagerMessagge@CDlgOptimizer@@IAEJIJ@Z$3 10033ebb f   DlgOptimizer.obj
 0001:00032ec4       __unwindfunclet$?OnSTDataManagerMessagge@CDlgOptimizer@@IAEJIJ@Z$4 10033ec4 f   DlgOptimizer.obj
 0001:00032ecc       __unwindfunclet$?OnSTDataManagerMessagge@CDlgOptimizer@@IAEJIJ@Z$5 10033ecc f   DlgOptimizer.obj
 0001:00032ed5       __unwindfunclet$?OnSTDataManagerMessagge@CDlgOptimizer@@IAEJIJ@Z$6 10033ed5 f   DlgOptimizer.obj
 0001:00032ede       __unwindfunclet$?OnSTDataManagerMessagge@CDlgOptimizer@@IAEJIJ@Z$7 10033ede f   DlgOptimizer.obj
 0001:00032ee7       __unwindfunclet$?OnSTDataManagerMessagge@CDlgOptimizer@@IAEJIJ@Z$8 10033ee7 f   DlgOptimizer.obj
 0001:00032ef0       __unwindfunclet$?OnSTDataManagerMessagge@CDlgOptimizer@@IAEJIJ@Z$9 10033ef0 f   DlgOptimizer.obj
 0001:00032ef9       __unwindfunclet$?OnSTDataManagerMessagge@CDlgOptimizer@@IAEJIJ@Z$10 10033ef9 f   DlgOptimizer.obj
 0001:00032f02       __unwindfunclet$?OnSTDataManagerMessagge@CDlgOptimizer@@IAEJIJ@Z$11 10033f02 f   DlgOptimizer.obj
 0001:00032f0b       __unwindfunclet$?OnSTDataManagerMessagge@CDlgOptimizer@@IAEJIJ@Z$12 10033f0b f   DlgOptimizer.obj
 0001:00032f14       __unwindfunclet$?OnSTDataManagerMessagge@CDlgOptimizer@@IAEJIJ@Z$13 10033f14 f   DlgOptimizer.obj
 0001:00032f1d       __unwindfunclet$?OnSTDataManagerMessagge@CDlgOptimizer@@IAEJIJ@Z$14 10033f1d f   DlgOptimizer.obj
 0001:00032f26       __unwindfunclet$?OnSTDataManagerMessagge@CDlgOptimizer@@IAEJIJ@Z$15 10033f26 f   DlgOptimizer.obj
 0001:00032f2f       __unwindfunclet$?OnSTDataManagerMessagge@CDlgOptimizer@@IAEJIJ@Z$16 10033f2f f   DlgOptimizer.obj
 0001:00032f3d       __ehhandler$?OnSTDataManagerMessagge@CDlgOptimizer@@IAEJIJ@Z 10033f3d f   DlgOptimizer.obj
 0001:00032f60       __unwindfunclet$?ReSize@CDlgOptimizer@@QAEXXZ$0 10033f60 f   DlgOptimizer.obj
 0001:00032f6c       __unwindfunclet$?ReSize@CDlgOptimizer@@QAEXXZ$1 10033f6c f   DlgOptimizer.obj
 0001:00032f7c       __ehhandler$?ReSize@CDlgOptimizer@@QAEXXZ 10033f7c f   DlgOptimizer.obj
 0001:00032fb0       __unwindfunclet$?SearchFileToData@CDlgOptimizer@@QAE?AV?$CStringT@DV?$StrTraitMFC_DLL@DV?$ChTraitsCRT@D@ATL@@@@@ATL@@V23@0@Z$0 10033fb0 f   DlgOptimizer.obj
 0001:00032fb9       __unwindfunclet$?SearchFileToData@CDlgOptimizer@@QAE?AV?$CStringT@DV?$StrTraitMFC_DLL@DV?$ChTraitsCRT@D@ATL@@@@@ATL@@V23@0@Z$1 10033fb9 f   DlgOptimizer.obj
 0001:00032fc7       __ehhandler$?SearchFileToData@CDlgOptimizer@@QAE?AV?$CStringT@DV?$StrTraitMFC_DLL@DV?$ChTraitsCRT@D@ATL@@@@@ATL@@V23@0@Z 10033fc7 f   DlgOptimizer.obj
 0001:00032ff0       __unwindfunclet$??0CDlgResult@@QAE@PAVCWnd@@@Z$0 10033ff0 f   DlgResult.obj
 0001:00032ff8       __unwindfunclet$??0CDlgResult@@QAE@PAVCWnd@@@Z$1 10033ff8 f   DlgResult.obj
 0001:00033007       __unwindfunclet$??0CDlgResult@@QAE@PAVCWnd@@@Z$2 10034007 f   DlgResult.obj
 0001:00033016       __unwindfunclet$??0CDlgResult@@QAE@PAVCWnd@@@Z$3 10034016 f   DlgResult.obj
 0001:00033025       __unwindfunclet$??0CDlgResult@@QAE@PAVCWnd@@@Z$4 10034025 f   DlgResult.obj
 0001:00033038       __ehhandler$??0CDlgResult@@QAE@PAVCWnd@@@Z 10034038 f   DlgResult.obj
 0001:00033060       __unwindfunclet$?GetComma@CDlgResult@@QAE?AV?$CStringT@DV?$StrTraitMFC_DLL@DV?$ChTraitsCRT@D@ATL@@@@@ATL@@PBD@Z$1 10034060 f   DlgResult.obj
 0001:00033069       __unwindfunclet$?GetComma@CDlgResult@@QAE?AV?$CStringT@DV?$StrTraitMFC_DLL@DV?$ChTraitsCRT@D@ATL@@@@@ATL@@PBD@Z$2 10034069 f   DlgResult.obj
 0001:00033072       __unwindfunclet$?GetComma@CDlgResult@@QAE?AV?$CStringT@DV?$StrTraitMFC_DLL@DV?$ChTraitsCRT@D@ATL@@@@@ATL@@PBD@Z$3 10034072 f   DlgResult.obj
 0001:0003307b       __unwindfunclet$?GetComma@CDlgResult@@QAE?AV?$CStringT@DV?$StrTraitMFC_DLL@DV?$ChTraitsCRT@D@ATL@@@@@ATL@@PBD@Z$7 1003407b f   DlgResult.obj
 0001:00033095       __unwindfunclet$?GetComma@CDlgResult@@QAE?AV?$CStringT@DV?$StrTraitMFC_DLL@DV?$ChTraitsCRT@D@ATL@@@@@ATL@@PBD@Z$5 10034095 f   DlgResult.obj
 0001:0003309e       __unwindfunclet$?GetComma@CDlgResult@@QAE?AV?$CStringT@DV?$StrTraitMFC_DLL@DV?$ChTraitsCRT@D@ATL@@@@@ATL@@PBD@Z$6 1003409e f   DlgResult.obj
 0001:000330ac       __ehhandler$?GetComma@CDlgResult@@QAE?AV?$CStringT@DV?$StrTraitMFC_DLL@DV?$ChTraitsCRT@D@ATL@@@@@ATL@@PBD@Z 100340ac f   DlgResult.obj
 0001:000330d0       __unwindfunclet$?GetNumber@CDlgResult@@QAE?AV?$CStringT@DV?$StrTraitMFC_DLL@DV?$ChTraitsCRT@D@ATL@@@@@ATL@@PBD@Z$0 100340d0 f   DlgResult.obj
 0001:000330ef       __ehhandler$?GetNumber@CDlgResult@@QAE?AV?$CStringT@DV?$StrTraitMFC_DLL@DV?$ChTraitsCRT@D@ATL@@@@@ATL@@PBD@Z 100340ef f   DlgResult.obj
 0001:00033110       __unwindfunclet$?InitGrid@CDlgResult@@QAEXXZ$0 10034110 f   DlgResult.obj
 0001:0003311c       __unwindfunclet$?InitGrid@CDlgResult@@QAEXXZ$1 1003411c f   DlgResult.obj
 0001:0003312c       __ehhandler$?InitGrid@CDlgResult@@QAEXXZ 1003412c f   DlgResult.obj
 0001:00033160       __unwindfunclet$?InitHtml@CDlgResult@@QAEXXZ$0 10034160 f   DlgResult.obj
 0001:00033168       __unwindfunclet$?InitHtml@CDlgResult@@QAEXXZ$1 10034168 f   DlgResult.obj
 0001:00033171       __unwindfunclet$?InitHtml@CDlgResult@@QAEXXZ$3 10034171 f   DlgResult.obj
 0001:00033190       __ehhandler$?InitHtml@CDlgResult@@QAEXXZ 10034190 f   DlgResult.obj
 0001:000331b0       __unwindfunclet$?MakeHtmlFile@CDlgResult@@QAEXXZ$0 100341b0 f   DlgResult.obj
 0001:000331b8       __unwindfunclet$?MakeHtmlFile@CDlgResult@@QAEXXZ$1 100341b8 f   DlgResult.obj
 0001:000331c1       __unwindfunclet$?MakeHtmlFile@CDlgResult@@QAEXXZ$6 100341c1 f   DlgResult.obj
 0001:000331c9       __unwindfunclet$?MakeHtmlFile@CDlgResult@@QAEXXZ$7 100341c9 f   DlgResult.obj
 0001:000331d2       __unwindfunclet$?MakeHtmlFile@CDlgResult@@QAEXXZ$9 100341d2 f   DlgResult.obj
 0001:000331ec       __unwindfunclet$?MakeHtmlFile@CDlgResult@@QAEXXZ$3 100341ec f   DlgResult.obj
 0001:000331f5       __unwindfunclet$?MakeHtmlFile@CDlgResult@@QAEXXZ$10 100341f5 f   DlgResult.obj
 0001:0003320f       __unwindfunclet$?MakeHtmlFile@CDlgResult@@QAEXXZ$11 1003420f f   DlgResult.obj
 0001:0003322e       __ehhandler$?MakeHtmlFile@CDlgResult@@QAEXXZ 1003422e f   DlgResult.obj
 0001:00033250       __unwindfunclet$?ParsingstrHtml@CDlgResult@@QAE?AV?$CStringT@DV?$StrTraitMFC_DLL@DV?$ChTraitsCRT@D@ATL@@@@@ATL@@V23@@Z$0 10034250 f   DlgResult.obj
 0001:00033259       __unwindfunclet$?ParsingstrHtml@CDlgResult@@QAE?AV?$CStringT@DV?$StrTraitMFC_DLL@DV?$ChTraitsCRT@D@ATL@@@@@ATL@@V23@@Z$1 10034259 f   DlgResult.obj
 0001:00033265       __unwindfunclet$?ParsingstrHtml@CDlgResult@@QAE?AV?$CStringT@DV?$StrTraitMFC_DLL@DV?$ChTraitsCRT@D@ATL@@@@@ATL@@V23@@Z$2 10034265 f   DlgResult.obj
 0001:00033271       __unwindfunclet$?ParsingstrHtml@CDlgResult@@QAE?AV?$CStringT@DV?$StrTraitMFC_DLL@DV?$ChTraitsCRT@D@ATL@@@@@ATL@@V23@@Z$3 10034271 f   DlgResult.obj
 0001:0003327d       __unwindfunclet$?ParsingstrHtml@CDlgResult@@QAE?AV?$CStringT@DV?$StrTraitMFC_DLL@DV?$ChTraitsCRT@D@ATL@@@@@ATL@@V23@@Z$4 1003427d f   DlgResult.obj
 0001:00033289       __unwindfunclet$?ParsingstrHtml@CDlgResult@@QAE?AV?$CStringT@DV?$StrTraitMFC_DLL@DV?$ChTraitsCRT@D@ATL@@@@@ATL@@V23@@Z$5 10034289 f   DlgResult.obj
 0001:00033295       __unwindfunclet$?ParsingstrHtml@CDlgResult@@QAE?AV?$CStringT@DV?$StrTraitMFC_DLL@DV?$ChTraitsCRT@D@ATL@@@@@ATL@@V23@@Z$6 10034295 f   DlgResult.obj
 0001:000332a1       __unwindfunclet$?ParsingstrHtml@CDlgResult@@QAE?AV?$CStringT@DV?$StrTraitMFC_DLL@DV?$ChTraitsCRT@D@ATL@@@@@ATL@@V23@@Z$7 100342a1 f   DlgResult.obj
 0001:000332ad       __unwindfunclet$?ParsingstrHtml@CDlgResult@@QAE?AV?$CStringT@DV?$StrTraitMFC_DLL@DV?$ChTraitsCRT@D@ATL@@@@@ATL@@V23@@Z$8 100342ad f   DlgResult.obj
 0001:000332b9       __unwindfunclet$?ParsingstrHtml@CDlgResult@@QAE?AV?$CStringT@DV?$StrTraitMFC_DLL@DV?$ChTraitsCRT@D@ATL@@@@@ATL@@V23@@Z$9 100342b9 f   DlgResult.obj
 0001:000332c5       __unwindfunclet$?ParsingstrHtml@CDlgResult@@QAE?AV?$CStringT@DV?$StrTraitMFC_DLL@DV?$ChTraitsCRT@D@ATL@@@@@ATL@@V23@@Z$10 100342c5 f   DlgResult.obj
 0001:000332ce       __unwindfunclet$?ParsingstrHtml@CDlgResult@@QAE?AV?$CStringT@DV?$StrTraitMFC_DLL@DV?$ChTraitsCRT@D@ATL@@@@@ATL@@V23@@Z$11 100342ce f   DlgResult.obj
 0001:000332d7       __unwindfunclet$?ParsingstrHtml@CDlgResult@@QAE?AV?$CStringT@DV?$StrTraitMFC_DLL@DV?$ChTraitsCRT@D@ATL@@@@@ATL@@V23@@Z$12 100342d7 f   DlgResult.obj
 0001:000332e0       __unwindfunclet$?ParsingstrHtml@CDlgResult@@QAE?AV?$CStringT@DV?$StrTraitMFC_DLL@DV?$ChTraitsCRT@D@ATL@@@@@ATL@@V23@@Z$13 100342e0 f   DlgResult.obj
 0001:000332e9       __unwindfunclet$?ParsingstrHtml@CDlgResult@@QAE?AV?$CStringT@DV?$StrTraitMFC_DLL@DV?$ChTraitsCRT@D@ATL@@@@@ATL@@V23@@Z$14 100342e9 f   DlgResult.obj
 0001:000332f2       __unwindfunclet$?ParsingstrHtml@CDlgResult@@QAE?AV?$CStringT@DV?$StrTraitMFC_DLL@DV?$ChTraitsCRT@D@ATL@@@@@ATL@@V23@@Z$15 100342f2 f   DlgResult.obj
 0001:000332fb       __unwindfunclet$?ParsingstrHtml@CDlgResult@@QAE?AV?$CStringT@DV?$StrTraitMFC_DLL@DV?$ChTraitsCRT@D@ATL@@@@@ATL@@V23@@Z$16 100342fb f   DlgResult.obj
 0001:00033304       __unwindfunclet$?ParsingstrHtml@CDlgResult@@QAE?AV?$CStringT@DV?$StrTraitMFC_DLL@DV?$ChTraitsCRT@D@ATL@@@@@ATL@@V23@@Z$17 10034304 f   DlgResult.obj
 0001:0003330d       __unwindfunclet$?ParsingstrHtml@CDlgResult@@QAE?AV?$CStringT@DV?$StrTraitMFC_DLL@DV?$ChTraitsCRT@D@ATL@@@@@ATL@@V23@@Z$18 1003430d f   DlgResult.obj
 0001:00033316       __unwindfunclet$?ParsingstrHtml@CDlgResult@@QAE?AV?$CStringT@DV?$StrTraitMFC_DLL@DV?$ChTraitsCRT@D@ATL@@@@@ATL@@V23@@Z$19 10034316 f   DlgResult.obj
 0001:0003331f       __unwindfunclet$?ParsingstrHtml@CDlgResult@@QAE?AV?$CStringT@DV?$StrTraitMFC_DLL@DV?$ChTraitsCRT@D@ATL@@@@@ATL@@V23@@Z$20 1003431f f   DlgResult.obj
 0001:00033328       __unwindfunclet$?ParsingstrHtml@CDlgResult@@QAE?AV?$CStringT@DV?$StrTraitMFC_DLL@DV?$ChTraitsCRT@D@ATL@@@@@ATL@@V23@@Z$21 10034328 f   DlgResult.obj
 0001:00033331       __unwindfunclet$?ParsingstrHtml@CDlgResult@@QAE?AV?$CStringT@DV?$StrTraitMFC_DLL@DV?$ChTraitsCRT@D@ATL@@@@@ATL@@V23@@Z$22 10034331 f   DlgResult.obj
 0001:0003333a       __unwindfunclet$?ParsingstrHtml@CDlgResult@@QAE?AV?$CStringT@DV?$StrTraitMFC_DLL@DV?$ChTraitsCRT@D@ATL@@@@@ATL@@V23@@Z$23 1003433a f   DlgResult.obj
 0001:00033343       __unwindfunclet$?ParsingstrHtml@CDlgResult@@QAE?AV?$CStringT@DV?$StrTraitMFC_DLL@DV?$ChTraitsCRT@D@ATL@@@@@ATL@@V23@@Z$24 10034343 f   DlgResult.obj
 0001:0003334c       __unwindfunclet$?ParsingstrHtml@CDlgResult@@QAE?AV?$CStringT@DV?$StrTraitMFC_DLL@DV?$ChTraitsCRT@D@ATL@@@@@ATL@@V23@@Z$25 1003434c f   DlgResult.obj
 0001:00033355       __unwindfunclet$?ParsingstrHtml@CDlgResult@@QAE?AV?$CStringT@DV?$StrTraitMFC_DLL@DV?$ChTraitsCRT@D@ATL@@@@@ATL@@V23@@Z$26 10034355 f   DlgResult.obj
 0001:0003335e       __unwindfunclet$?ParsingstrHtml@CDlgResult@@QAE?AV?$CStringT@DV?$StrTraitMFC_DLL@DV?$ChTraitsCRT@D@ATL@@@@@ATL@@V23@@Z$27 1003435e f   DlgResult.obj
 0001:00033367       __unwindfunclet$?ParsingstrHtml@CDlgResult@@QAE?AV?$CStringT@DV?$StrTraitMFC_DLL@DV?$ChTraitsCRT@D@ATL@@@@@ATL@@V23@@Z$28 10034367 f   DlgResult.obj
 0001:00033370       __unwindfunclet$?ParsingstrHtml@CDlgResult@@QAE?AV?$CStringT@DV?$StrTraitMFC_DLL@DV?$ChTraitsCRT@D@ATL@@@@@ATL@@V23@@Z$29 10034370 f   DlgResult.obj
 0001:00033379       __unwindfunclet$?ParsingstrHtml@CDlgResult@@QAE?AV?$CStringT@DV?$StrTraitMFC_DLL@DV?$ChTraitsCRT@D@ATL@@@@@ATL@@V23@@Z$30 10034379 f   DlgResult.obj
 0001:00033382       __unwindfunclet$?ParsingstrHtml@CDlgResult@@QAE?AV?$CStringT@DV?$StrTraitMFC_DLL@DV?$ChTraitsCRT@D@ATL@@@@@ATL@@V23@@Z$31 10034382 f   DlgResult.obj
 0001:0003338b       __unwindfunclet$?ParsingstrHtml@CDlgResult@@QAE?AV?$CStringT@DV?$StrTraitMFC_DLL@DV?$ChTraitsCRT@D@ATL@@@@@ATL@@V23@@Z$32 1003438b f   DlgResult.obj
 0001:00033394       __unwindfunclet$?ParsingstrHtml@CDlgResult@@QAE?AV?$CStringT@DV?$StrTraitMFC_DLL@DV?$ChTraitsCRT@D@ATL@@@@@ATL@@V23@@Z$33 10034394 f   DlgResult.obj
 0001:0003339d       __unwindfunclet$?ParsingstrHtml@CDlgResult@@QAE?AV?$CStringT@DV?$StrTraitMFC_DLL@DV?$ChTraitsCRT@D@ATL@@@@@ATL@@V23@@Z$34 1003439d f   DlgResult.obj
 0001:000333a6       __unwindfunclet$?ParsingstrHtml@CDlgResult@@QAE?AV?$CStringT@DV?$StrTraitMFC_DLL@DV?$ChTraitsCRT@D@ATL@@@@@ATL@@V23@@Z$35 100343a6 f   DlgResult.obj
 0001:000333af       __unwindfunclet$?ParsingstrHtml@CDlgResult@@QAE?AV?$CStringT@DV?$StrTraitMFC_DLL@DV?$ChTraitsCRT@D@ATL@@@@@ATL@@V23@@Z$36 100343af f   DlgResult.obj
 0001:000333b8       __unwindfunclet$?ParsingstrHtml@CDlgResult@@QAE?AV?$CStringT@DV?$StrTraitMFC_DLL@DV?$ChTraitsCRT@D@ATL@@@@@ATL@@V23@@Z$38 100343b8 f   DlgResult.obj
 0001:000333cf       __unwindfunclet$?ParsingstrHtml@CDlgResult@@QAE?AV?$CStringT@DV?$StrTraitMFC_DLL@DV?$ChTraitsCRT@D@ATL@@@@@ATL@@V23@@Z$39 100343cf f   DlgResult.obj
 0001:000333da       __unwindfunclet$?ParsingstrHtml@CDlgResult@@QAE?AV?$CStringT@DV?$StrTraitMFC_DLL@DV?$ChTraitsCRT@D@ATL@@@@@ATL@@V23@@Z$40 100343da f   DlgResult.obj
 0001:000333fd       __unwindfunclet$?ParsingstrHtml@CDlgResult@@QAE?AV?$CStringT@DV?$StrTraitMFC_DLL@DV?$ChTraitsCRT@D@ATL@@@@@ATL@@V23@@Z$41 100343fd f   DlgResult.obj
 0001:00033409       __unwindfunclet$?ParsingstrHtml@CDlgResult@@QAE?AV?$CStringT@DV?$StrTraitMFC_DLL@DV?$ChTraitsCRT@D@ATL@@@@@ATL@@V23@@Z$42 10034409 f   DlgResult.obj
 0001:0003341a       __ehhandler$?ParsingstrHtml@CDlgResult@@QAE?AV?$CStringT@DV?$StrTraitMFC_DLL@DV?$ChTraitsCRT@D@ATL@@@@@ATL@@V23@@Z 1003441a f   DlgResult.obj
 0001:00033450       __unwindfunclet$?SetDataDir@CDlgResult@@QAEXV?$CStringT@DV?$StrTraitMFC_DLL@DV?$ChTraitsCRT@D@ATL@@@@@ATL@@@Z$0 10034450 f   DlgResult.obj
 0001:0003345e       __ehhandler$?SetDataDir@CDlgResult@@QAEXV?$CStringT@DV?$StrTraitMFC_DLL@DV?$ChTraitsCRT@D@ATL@@@@@ATL@@@Z 1003445e f   DlgResult.obj
 0001:00033480       __unwindfunclet$?SetDataSpreadGrid@CDlgResult@@QAEXXZ$0 10034480 f   DlgResult.obj
 0001:00033489       __unwindfunclet$?SetDataSpreadGrid@CDlgResult@@QAEXXZ$1 10034489 f   DlgResult.obj
 0001:00033491       __unwindfunclet$?SetDataSpreadGrid@CDlgResult@@QAEXXZ$2 10034491 f   DlgResult.obj
 0001:0003349a       __unwindfunclet$?SetDataSpreadGrid@CDlgResult@@QAEXXZ$3 1003449a f   DlgResult.obj
 0001:000334a3       __unwindfunclet$?SetDataSpreadGrid@CDlgResult@@QAEXXZ$4 100344a3 f   DlgResult.obj
 0001:000334ac       __unwindfunclet$?SetDataSpreadGrid@CDlgResult@@QAEXXZ$13 100344ac f   DlgResult.obj
 0001:000334c6       __unwindfunclet$?SetDataSpreadGrid@CDlgResult@@QAEXXZ$14 100344c6 f   DlgResult.obj
 0001:000334e0       __unwindfunclet$?SetDataSpreadGrid@CDlgResult@@QAEXXZ$15 100344e0 f   DlgResult.obj
 0001:000334fa       __unwindfunclet$?SetDataSpreadGrid@CDlgResult@@QAEXXZ$16 100344fa f   DlgResult.obj
 0001:00033514       __unwindfunclet$?SetDataSpreadGrid@CDlgResult@@QAEXXZ$17 10034514 f   DlgResult.obj
 0001:0003352e       __unwindfunclet$?SetDataSpreadGrid@CDlgResult@@QAEXXZ$18 1003452e f   DlgResult.obj
 0001:00033548       __unwindfunclet$?SetDataSpreadGrid@CDlgResult@@QAEXXZ$19 10034548 f   DlgResult.obj
 0001:00033567       __ehhandler$?SetDataSpreadGrid@CDlgResult@@QAEXXZ 10034567 f   DlgResult.obj
 0001:00033590       __unwindfunclet$??0CDlgTimeSetup@@QAE@PAVCWnd@@@Z$0 10034590 f   DlgTimeSetup.obj
 0001:00033598       __unwindfunclet$??0CDlgTimeSetup@@QAE@PAVCWnd@@@Z$1 10034598 f   DlgTimeSetup.obj
 0001:000335a6       __unwindfunclet$??0CDlgTimeSetup@@QAE@PAVCWnd@@@Z$2 100345a6 f   DlgTimeSetup.obj
 0001:000335b4       __unwindfunclet$??0CDlgTimeSetup@@QAE@PAVCWnd@@@Z$3 100345b4 f   DlgTimeSetup.obj
 0001:000335c2       __unwindfunclet$??0CDlgTimeSetup@@QAE@PAVCWnd@@@Z$4 100345c2 f   DlgTimeSetup.obj
 0001:000335d0       __unwindfunclet$??0CDlgTimeSetup@@QAE@PAVCWnd@@@Z$5 100345d0 f   DlgTimeSetup.obj
 0001:000335de       __unwindfunclet$??0CDlgTimeSetup@@QAE@PAVCWnd@@@Z$6 100345de f   DlgTimeSetup.obj
 0001:000335ec       __unwindfunclet$??0CDlgTimeSetup@@QAE@PAVCWnd@@@Z$7 100345ec f   DlgTimeSetup.obj
 0001:000335fa       __unwindfunclet$??0CDlgTimeSetup@@QAE@PAVCWnd@@@Z$8 100345fa f   DlgTimeSetup.obj
 0001:00033608       __unwindfunclet$??0CDlgTimeSetup@@QAE@PAVCWnd@@@Z$9 10034608 f   DlgTimeSetup.obj
 0001:00033616       __unwindfunclet$??0CDlgTimeSetup@@QAE@PAVCWnd@@@Z$10 10034616 f   DlgTimeSetup.obj
 0001:00033624       __unwindfunclet$??0CDlgTimeSetup@@QAE@PAVCWnd@@@Z$11 10034624 f   DlgTimeSetup.obj
 0001:00033632       __unwindfunclet$??0CDlgTimeSetup@@QAE@PAVCWnd@@@Z$12 10034632 f   DlgTimeSetup.obj
 0001:00033640       __unwindfunclet$??0CDlgTimeSetup@@QAE@PAVCWnd@@@Z$13 10034640 f   DlgTimeSetup.obj
 0001:00033653       __ehhandler$??0CDlgTimeSetup@@QAE@PAVCWnd@@@Z 10034653 f   DlgTimeSetup.obj
 0001:00033670       __ehhandler$??1?$CList@PAVCCFGScanInfo@@PAV1@@@UAE@XZ 10034670 f   DlgTimeSetup.obj
 0001:00033690       __ehhandler$??1CCFGWndCreate@@QAE@XZ 10034690 f   DlgTimeSetup.obj
 0001:000336b0       __ehhandler$??_G?$CList@PAVCCFGScanInfo@@PAV1@@@UAEPAXI@Z 100346b0 f   DlgTimeSetup.obj
 0001:000336d0       __unwindfunclet$?ParseCFG@CDlgTimeSetup@@QAEXXZ$0 100346d0 f   DlgTimeSetup.obj
 0001:000336db       __unwindfunclet$?ParseCFG@CDlgTimeSetup@@QAEXXZ$1 100346db f   DlgTimeSetup.obj
 0001:000336e4       __unwindfunclet$?ParseCFG@CDlgTimeSetup@@QAEXXZ$5 100346e4 f   DlgTimeSetup.obj
 0001:000336ef       __unwindfunclet$?ParseCFG@CDlgTimeSetup@@QAEXXZ$8 100346ef f   DlgTimeSetup.obj
 0001:000336fc       __ehhandler$?ParseCFG@CDlgTimeSetup@@QAEXXZ 100346fc f   DlgTimeSetup.obj
 0001:00033720       __unwindfunclet$?ReadCFG@CCFGWndCreate@@QAEHPBD0@Z$0 10034720 f   DlgTimeSetup.obj
 0001:0003372c       __unwindfunclet$?ReadCFG@CCFGWndCreate@@QAEHPBD0@Z$1 1003472c f   DlgTimeSetup.obj
 0001:0003373e       __unwindfunclet$?ReadCFG@CCFGWndCreate@@QAEHPBD0@Z$2 1003473e f   DlgTimeSetup.obj
 0001:0003374a       __unwindfunclet$?ReadCFG@CCFGWndCreate@@QAEHPBD0@Z$3 1003474a f   DlgTimeSetup.obj
 0001:00033759       __unwindfunclet$?ReadCFG@CCFGWndCreate@@QAEHPBD0@Z$4 10034759 f   DlgTimeSetup.obj
 0001:00033768       __unwindfunclet$?ReadCFG@CCFGWndCreate@@QAEHPBD0@Z$5 10034768 f   DlgTimeSetup.obj
 0001:00033777       __unwindfunclet$?ReadCFG@CCFGWndCreate@@QAEHPBD0@Z$6 10034777 f   DlgTimeSetup.obj
 0001:00033786       __unwindfunclet$?ReadCFG@CCFGWndCreate@@QAEHPBD0@Z$7 10034786 f   DlgTimeSetup.obj
 0001:0003379a       __ehhandler$?ReadCFG@CCFGWndCreate@@QAEHPBD0@Z 1003479a f   DlgTimeSetup.obj
 0001:000337d0       __unwindfunclet$?SetAtGrow@?$CArray@UST_VALUEOPTIMAZE@@U1@@@QAEXHUST_VALUEOPTIMAZE@@@Z$0 100347d0 f   DlgTimeSetup.obj
 0001:000337dd       __ehhandler$?SetAtGrow@?$CArray@UST_VALUEOPTIMAZE@@U1@@@QAEXHUST_VALUEOPTIMAZE@@@Z 100347dd f   DlgTimeSetup.obj
 0001:00033800       __unwindfunclet$?SetInputData@CDlgTimeSetup@@QAEXXZ$0 10034800 f   DlgTimeSetup.obj
 0001:0003380b       __unwindfunclet$?SetInputData@CDlgTimeSetup@@QAEXXZ$1 1003480b f   DlgTimeSetup.obj
 0001:00033814       __unwindfunclet$?SetInputData@CDlgTimeSetup@@QAEXXZ$5 10034814 f   DlgTimeSetup.obj
 0001:0003381f       __unwindfunclet$?SetInputData@CDlgTimeSetup@@QAEXXZ$8 1003481f f   DlgTimeSetup.obj
 0001:0003382c       __ehhandler$?SetInputData@CDlgTimeSetup@@QAEXXZ 1003482c f   DlgTimeSetup.obj
 0001:00033850       __unwindfunclet$??0CDlgTrade@@QAE@PAVCWnd@@@Z$0 10034850 f   DlgTrade.obj
 0001:00033858       __unwindfunclet$??0CDlgTrade@@QAE@PAVCWnd@@@Z$1 10034858 f   DlgTrade.obj
 0001:00033867       __unwindfunclet$??0CDlgTrade@@QAE@PAVCWnd@@@Z$2 10034867 f   DlgTrade.obj
 0001:0003387b       __ehhandler$??0CDlgTrade@@QAE@PAVCWnd@@@Z 1003487b f   DlgTrade.obj
 0001:000338a0       __unwindfunclet$?GetSTMessageData@CDlgTrade@@QAEXXZ$0 100348a0 f   DlgTrade.obj
 0001:000338a9       __unwindfunclet$?GetSTMessageData@CDlgTrade@@QAEXXZ$1 100348a9 f   DlgTrade.obj
 0001:000338b2       __unwindfunclet$?GetSTMessageData@CDlgTrade@@QAEXXZ$2 100348b2 f   DlgTrade.obj
 0001:000338bb       __unwindfunclet$?GetSTMessageData@CDlgTrade@@QAEXXZ$3 100348bb f   DlgTrade.obj
 0001:000338c4       __unwindfunclet$?GetSTMessageData@CDlgTrade@@QAEXXZ$4 100348c4 f   DlgTrade.obj
 0001:000338cc       __unwindfunclet$?GetSTMessageData@CDlgTrade@@QAEXXZ$5 100348cc f   DlgTrade.obj
 0001:000338d5       __unwindfunclet$?GetSTMessageData@CDlgTrade@@QAEXXZ$6 100348d5 f   DlgTrade.obj
 0001:000338de       __unwindfunclet$?GetSTMessageData@CDlgTrade@@QAEXXZ$7 100348de f   DlgTrade.obj
 0001:000338e7       __unwindfunclet$?GetSTMessageData@CDlgTrade@@QAEXXZ$8 100348e7 f   DlgTrade.obj
 0001:000338f0       __unwindfunclet$?GetSTMessageData@CDlgTrade@@QAEXXZ$9 100348f0 f   DlgTrade.obj
 0001:000338f9       __unwindfunclet$?GetSTMessageData@CDlgTrade@@QAEXXZ$10 100348f9 f   DlgTrade.obj
 0001:00033902       __unwindfunclet$?GetSTMessageData@CDlgTrade@@QAEXXZ$11 10034902 f   DlgTrade.obj
 0001:0003390b       __unwindfunclet$?GetSTMessageData@CDlgTrade@@QAEXXZ$12 1003490b f   DlgTrade.obj
 0001:00033914       __unwindfunclet$?GetSTMessageData@CDlgTrade@@QAEXXZ$13 10034914 f   DlgTrade.obj
 0001:0003391d       __unwindfunclet$?GetSTMessageData@CDlgTrade@@QAEXXZ$14 1003491d f   DlgTrade.obj
 0001:00033926       __unwindfunclet$?GetSTMessageData@CDlgTrade@@QAEXXZ$16 10034926 f   DlgTrade.obj
 0001:0003393a       __unwindfunclet$?GetSTMessageData@CDlgTrade@@QAEXXZ$17 1003493a f   DlgTrade.obj
 0001:00033945       __unwindfunclet$?GetSTMessageData@CDlgTrade@@QAEXXZ$18 10034945 f   DlgTrade.obj
 0001:00033950       __unwindfunclet$?GetSTMessageData@CDlgTrade@@QAEXXZ$19 10034950 f   DlgTrade.obj
 0001:0003395b       __unwindfunclet$?GetSTMessageData@CDlgTrade@@QAEXXZ$20 1003495b f   DlgTrade.obj
 0001:00033967       __unwindfunclet$?GetSTMessageData@CDlgTrade@@QAEXXZ$21 10034967 f   DlgTrade.obj
 0001:00033973       __unwindfunclet$?GetSTMessageData@CDlgTrade@@QAEXXZ$22 10034973 f   DlgTrade.obj
 0001:0003397f       __unwindfunclet$?GetSTMessageData@CDlgTrade@@QAEXXZ$23 1003497f f   DlgTrade.obj
 0001:0003398b       __unwindfunclet$?GetSTMessageData@CDlgTrade@@QAEXXZ$24 1003498b f   DlgTrade.obj
 0001:00033997       __unwindfunclet$?GetSTMessageData@CDlgTrade@@QAEXXZ$25 10034997 f   DlgTrade.obj
 0001:000339a3       __unwindfunclet$?GetSTMessageData@CDlgTrade@@QAEXXZ$26 100349a3 f   DlgTrade.obj
 0001:000339af       __unwindfunclet$?GetSTMessageData@CDlgTrade@@QAEXXZ$27 100349af f   DlgTrade.obj
 0001:000339b8       __unwindfunclet$?GetSTMessageData@CDlgTrade@@QAEXXZ$28 100349b8 f   DlgTrade.obj
