 MULTICHART

 Timestamp is 641272e8 (Thu Mar 16 10:37:44 2023)

 Preferred load address is 10000000

 Start         Length     Name                   Class
 0001:00000000 00007a30H .text$di                CODE
 0001:00007a30 000d4240H .text$mn                CODE
 0001:000dbc70 000155c0H .text$x                 CODE
 0001:000f1230 00001e4cH .text$yd                CODE
 0002:00000000 00000d5cH .idata$5                DATA
 0002:00000d5c 00000008H .00cfg                  DATA
 0002:00000d64 00000004H .CRT$XCA                DATA
 0002:00000d68 00000008H .CRT$XCL                DATA
 0002:00000d70 00000d88H .CRT$XCU                DATA
 0002:00001af8 00000004H .CRT$XCZ                DATA
 0002:00001afc 00000004H .CRT$XIA                DATA
 0002:00001b00 00000004H .CRT$XIC                DATA
 0002:00001b04 00000004H .CRT$XIZ                DATA
 0002:00001b08 00000004H .CRT$XLA                DATA
 0002:00001b0c 00000004H .CRT$XLZ                DATA
 0002:00001b10 00000004H .CRT$XPA                DATA
 0002:00001b14 00000004H .CRT$XPZ                DATA
 0002:00001b18 00000004H .CRT$XTA                DATA
 0002:00001b1c 00000004H .CRT$XTZ                DATA
 0002:00001b20 00000000H .gfids$y                DATA
 0002:00001b20 00017460H .rdata                  DATA
 0002:00018f80 00000004H .rdata$CastGuardVftablesA DATA
 0002:00018f84 00000004H .rdata$CastGuardVftablesC DATA
 0002:00018f88 00000018H .rdata$T                DATA
 0002:00018fa0 00003fc8H .rdata$r                DATA
 0002:0001cf68 00001040H .rdata$sxdata           DATA
 0002:0001dfa8 00000040H .rdata$voltmd           DATA
 0002:0001dfe8 00000430H .rdata$zzzdbg           DATA
 0002:0001e418 00000004H .rtc$IAA                DATA
 0002:0001e41c 00000004H .rtc$IZZ                DATA
 0002:0001e420 00000004H .rtc$TAA                DATA
 0002:0001e424 00000004H .rtc$TZZ                DATA
 0002:0001e428 00000004H .tls                    DATA
 0002:0001e42c 00000004H .tls$                   DATA
 0002:0001e430 00000008H .tls$ZZZ                DATA
 0002:0001e438 00010ebcH .xdata$x                DATA
 0002:0002f2f4 00000004H ATL$__a                 DATA
 0002:0002f2f8 00000008H ATL$__z                 DATA
 0002:0002f300 00000168H .edata                  DATA
 0002:0002f468 00000190H .idata$2                DATA
 0002:0002f5f8 00000014H .idata$3                DATA
 0002:0002f60c 00000d5cH .idata$4                DATA
 0002:00030368 000012d4H .idata$6                DATA
 0003:00000000 00000bfcH .data                   DATA
 0003:00000bfc 0000007cH .data$r                 DATA
 0003:00000c78 00001a80H .data$rs                DATA
 0003:000026f8 000014a8H .bss                    DATA
 0004:00000000 00000990H .rsrc$01                DATA
 0004:00000990 00004c48H .rsrc$02                DATA

  Address         Publics by Value              Rva+Base       Lib:Object

 0000:00000000       ___guard_longjmp_table     00000000     <absolute>
 0000:00000000       ___dynamic_value_reloc_table 00000000     <absolute>
 0000:00000000       ___guard_fids_count        00000000     <absolute>
 0000:00000000       ___enclave_config          00000000     <absolute>
 0000:00000000       ___guard_iat_count         00000000     <absolute>
 0000:00000000       ___guard_eh_cont_table     00000000     <absolute>
 0000:00000000       ___x64_code_ranges_to_entry_points 00000000     <absolute>
 0000:00000000       ___AbsoluteZero            00000000     <absolute>
 0000:00000000       ___hybrid_code_map         00000000     <absolute>
 0000:00000000       ___guard_fids_table        00000000     <absolute>
 0000:00000000       ___guard_longjmp_count     00000000     <absolute>
 0000:00000000       ___arm64x_extra_rfe_table  00000000     <absolute>
 0000:00000000       ___hybrid_auxiliary_iat_copy 00000000     <absolute>
 0000:00000000       ___hybrid_code_map_count   00000000     <absolute>
 0000:00000000       ___arm64x_redirection_metadata_count 00000000     <absolute>
 0000:00000000       ___guard_iat_table         00000000     <absolute>
 0000:00000000       ___arm64x_native_entrypoint 00000000     <absolute>
 0000:00000000       ___arm64x_extra_rfe_table_size 00000000     <absolute>
 0000:00000000       ___x64_code_ranges_to_entry_points_count 00000000     <absolute>
 0000:00000000       ___guard_check_icall_a64n_fptr 00000000     <absolute>
 0000:00000000       ___arm64x_redirection_metadata 00000000     <absolute>
 0000:00000000       ___guard_eh_cont_count     00000000     <absolute>
 0000:00000000       ___hybrid_auxiliary_iat    00000000     <absolute>
 0000:0000002c       __tls_array                0000002c     <absolute>
 0000:00000100       ___guard_flags             00000100     <absolute>
 0000:00000410       ___safe_se_handler_count   00000410     <absolute>
 0000:00000000       ___ImageBase               10000000     <linker-defined>
 0001:00007a30       ??0CCodeCtrl@@QAE@PAVCWnd@@@Z 10008a30 f   CodeCtrl.obj
 0001:00007b50       ??0CWinixCodeCtrl@@QAE@PAVCWnd@@@Z 10008b50 f   CodeCtrl.obj
 0001:00007bc0       ??0_bstr_t@@QAE@ABV_variant_t@@@Z 10008bc0 f i CodeCtrl.obj
 0001:00007d90       ??0_bstr_t@@QAE@PBD@Z      10008d90 f i CodeCtrl.obj
 0001:00007e20       ??1?$CComQIPtr@UIDispatch@@$1?_GUID_00020400_0000_0000_c000_000000000046@@3U__s_GUID@@B@ATL@@QAE@XZ 10008e20 f i CodeCtrl.obj
 0001:00007e70       ??1CBitmap@@UAE@XZ         10008e70 f i CodeCtrl.obj
 0001:00007e80       ??1CCodeCtrl@@UAE@XZ       10008e80 f   CodeCtrl.obj
 0001:00007f20       ??1CGdiObject@@UAE@XZ      10008f20 f i CodeCtrl.obj
 0001:00008030       ??1CObject@@UAE@XZ         10009030 f i CodeCtrl.obj
 0001:00008040       ??1CWinixCodeCtrl@@UAE@XZ  10009040 f   CodeCtrl.obj
 0001:000080d0       ??1_bstr_t@@QAE@XZ         100090d0 f i CodeCtrl.obj
 0001:00008130       ??1_param@@QAE@XZ          10009130 f i CodeCtrl.obj
 0001:00008150       ??1_variant_t@@QAE@XZ      10009150 f i CodeCtrl.obj
 0001:00008160       ??1stringdispid@CComTypeInfoHolder@ATL@@QAE@XZ 10009160 f i CodeCtrl.obj
 0001:00008170       ??B_bstr_t@@QBEPBDXZ       10009170 f i CodeCtrl.obj
 0001:00008190       ??HATL@@YA?AV?$CStringT@DV?$StrTraitMFC_DLL@DV?$ChTraitsCRT@D@ATL@@@@@0@ABV10@PBD@Z 10009190 f i CodeCtrl.obj
 0001:00008230       ??_Estringdispid@CComTypeInfoHolder@ATL@@QAEPAXI@Z 10009230 f i CodeCtrl.obj
 0001:000082e0       ??_GCBitmap@@UAEPAXI@Z     100092e0 f i CodeCtrl.obj
 0001:000082e0       ??_ECBitmap@@UAEPAXI@Z     100092e0 f i CodeCtrl.obj
 0001:00008320       ??_GCCodeCtrl@@UAEPAXI@Z   10009320 f i CodeCtrl.obj
 0001:00008320       ??_ECCodeCtrl@@UAEPAXI@Z   10009320 f i CodeCtrl.obj
 0001:000083f0       ??_ECEdit@@UAEPAXI@Z       100093f0 f i CodeCtrl.obj
 0001:000083f0       ??_GCEdit@@UAEPAXI@Z       100093f0 f i CodeCtrl.obj
 0001:00008430       ??_ECGdiObject@@UAEPAXI@Z  10009430 f i CodeCtrl.obj
 0001:00008430       ??_GCGdiObject@@UAEPAXI@Z  10009430 f i CodeCtrl.obj
 0001:00008470       ??_GCWinixCodeCtrl@@UAEPAXI@Z 10009470 f i CodeCtrl.obj
 0001:00008470       ??_ECWinixCodeCtrl@@UAEPAXI@Z 10009470 f i CodeCtrl.obj
 0001:000084b0       ?AssertValid@CObject@@UBEXXZ 100094b0 f i CodeCtrl.obj
 0001:000084c0       ?BeginModalState@CWnd@@UAEXXZ 100094c0 f i CodeCtrl.obj
 0001:000084d0       ?CCodeCtrl_SetUnit@@YAIPAX@Z 100094d0 f   CodeCtrl.obj
 0001:00008680       ?CreateCodeCtrl@CWinixCodeCtrl@@QAEHPAVCWnd@@00VCRect@@I@Z 10009680 f   CodeCtrl.obj
 0001:000086d0       ?DoDataExchange@CWnd@@MAEXPAVCDataExchange@@@Z 100096d0 f i CodeCtrl.obj
 0001:000086e0       ?Dump@CObject@@UBEXAAVCDumpContext@@@Z 100096e0 f i CodeCtrl.obj
 0001:000086f0       ?EndModalState@CWnd@@UAEXXZ 100096f0 f i CodeCtrl.obj
 0001:00008700       ?GetCode@CCodeCtrl@@UAE?AV?$CStringT@DV?$StrTraitMFC_DLL@DV?$ChTraitsCRT@D@ATL@@@@@ATL@@XZ 10009700 f   CodeCtrl.obj
 0001:00008740       ?GetCode@CWinixCodeCtrl@@QAE?AV?$CStringT@DV?$StrTraitMFC_DLL@DV?$ChTraitsCRT@D@ATL@@@@@ATL@@XZ 10009740 f   CodeCtrl.obj
 0001:00008780       ?GetCtrlProperty@CWinixCodeCtrl@@QAE?AV?$CStringT@DV?$StrTraitMFC_DLL@DV?$ChTraitsCRT@D@ATL@@@@@ATL@@PBD@Z 10009780 f   CodeCtrl.obj
 0001:000088f0       ?GetMessageMap@CCodeCtrl@@MBEPBUAFX_MSGMAP@@XZ 100098f0 f   CodeCtrl.obj
 0001:00008900       ?GetMessageMap@CWinixCodeCtrl@@MBEPBUAFX_MSGMAP@@XZ 10009900 f   CodeCtrl.obj
 0001:00008910       ?GetName@CWinixCodeCtrl@@QAE?AV?$CStringT@DV?$StrTraitMFC_DLL@DV?$ChTraitsCRT@D@ATL@@@@@ATL@@XZ 10009910 f   CodeCtrl.obj
 0001:00008a50       ?GetThisMessageMap@CCodeCtrl@@KGPBUAFX_MSGMAP@@XZ 10009a50 f   CodeCtrl.obj
 0001:00008a60       ?GetThisMessageMap@CWinixCodeCtrl@@KGPBUAFX_MSGMAP@@XZ 10009a60 f   CodeCtrl.obj
 0001:00008a70       ?OnBtnCodeDlg@CCodeCtrl@@IAEXXZ 10009a70 f   CodeCtrl.obj
 0001:00008a80       ?OnCommand@CWinixCodeCtrl@@MAEHIJ@Z 10009a80 f   CodeCtrl.obj
 0001:00008ad0       ?OnCreate@CCodeCtrl@@IAEHPAUtagCREATESTRUCTA@@@Z 10009ad0 f   CodeCtrl.obj
 0001:00008af0       ?OnCreate@CWinixCodeCtrl@@IAEHPAUtagCREATESTRUCTA@@@Z 10009af0 f   CodeCtrl.obj
 0001:00008c90       ?OnSelendokCodeCtrl@CCodeCtrl@@IAEXXZ 10009c90 f   CodeCtrl.obj
 0001:00008cb0       ?OnSize@CCodeCtrl@@IAEXIHH@Z 10009cb0 f   CodeCtrl.obj
 0001:00008d30       ?OnSize@CWinixCodeCtrl@@IAEXIHH@Z 10009d30 f   CodeCtrl.obj
 0001:00008db0       ?OnUser@CWinixCodeCtrl@@IAEJIJ@Z 10009db0 f   CodeCtrl.obj
 0001:00008e80       ?Serialize@CObject@@UAEXAAVCArchive@@@Z 10009e80 f i CodeCtrl.obj
 0001:00008e90       ?SetCode@CCodeCtrl@@UAE_NV?$CStringT@DV?$StrTraitMFC_DLL@DV?$ChTraitsCRT@D@ATL@@@@@ATL@@_N@Z 10009e90 f   CodeCtrl.obj
 0001:00008f70       ?SetCode@CWinixCodeCtrl@@QAE_NV?$CStringT@DV?$StrTraitMFC_DLL@DV?$ChTraitsCRT@D@ATL@@@@@ATL@@_N1@Z 10009f70 f   CodeCtrl.obj
 0001:00008ff0       ?SetColor@CWinixCodeCtrl@@QAE_NKK@Z 10009ff0 f   CodeCtrl.obj
 0001:00009030       ?SetCtrlProperty@CWinixCodeCtrl@@QAEXV_bstr_t@@AAV_variant_t@@@Z 1000a030 f   CodeCtrl.obj
 0001:000091a0       ?SetFixUnit@CCodeCtrl@@QAEXH@Z 1000a1a0 f   CodeCtrl.obj
 0001:000091c0       ?SetFixUnit@CCodeCtrl@@QAEXV?$CStringT@DV?$StrTraitMFC_DLL@DV?$ChTraitsCRT@D@ATL@@@@@ATL@@@Z 1000a1c0 f   CodeCtrl.obj
 0001:00009240       ?SetFocus@CWinixCodeCtrl@@QAE_NXZ 1000a240 f   CodeCtrl.obj
 0001:00009260       ?SetFont@CWinixCodeCtrl@@QAE_NPAVCFont@@@Z 1000a260 f   CodeCtrl.obj
 0001:000092a0       ?SetHistory@CCodeCtrl@@UAE_NPBD0@Z 1000a2a0 f   CodeCtrl.obj
 0001:00009310       ?SetRootPath@CCodeCtrl@@UAEXPBD@Z 1000a310 f i CodeCtrl.obj
 0001:00009320       ?SetUnit@CCodeCtrl@@UAE_NH@Z 1000a320 f   CodeCtrl.obj
 0001:00009570       ?SetUnit@CCodeCtrl@@UAE_NV?$CStringT@DV?$StrTraitMFC_DLL@DV?$ChTraitsCRT@D@ATL@@@@@ATL@@@Z 1000a570 f   CodeCtrl.obj
 0001:00009720       ?SetUnit@CWinixCodeCtrl@@QAE_NH@Z 1000a720 f   CodeCtrl.obj
 0001:000097c0       ?SetUnitEx@CCodeCtrl@@QAE_NV?$CStringT@DV?$StrTraitMFC_DLL@DV?$ChTraitsCRT@D@ATL@@@@@ATL@@@Z 1000a7c0 f   CodeCtrl.obj
 0001:00009930       ?UseCodeDlg@CCodeCtrl@@UAEXH@Z 1000a930 f i CodeCtrl.obj
 0001:00009940       ?_AtlInitializeCriticalSectionEx@ATL@@YAHPAU_RTL_CRITICAL_SECTION@@KK@Z 1000a940 f i CodeCtrl.obj
 0001:00009960       ?_AtlRaiseException@ATL@@YAXKK@Z 1000a960 f i CodeCtrl.obj
 0001:00009980       ?_DoCreateCodeDlgBtn@CCodeCtrl@@IAEHXZ 1000a980 f   CodeCtrl.obj
 0001:00009c20       ?__empty_global_delete@@YAXPAX@Z 1000ac20 f i CodeCtrl.obj
 0001:00009c30       ?__empty_global_delete@@YAXPAXI@Z 1000ac30 f i CodeCtrl.obj
 0001:00009c30       ?__global_delete@@YAXPAXI@Z 1000ac30 f i CodeCtrl.obj
 0001:00009c40       ??0CFOHistoryBtnCtrl@@QAE@XZ 1000ac40 f   FOHistoryBtnCtrl.obj
 0001:00009cb0       ??1CFOHistoryBtnCtrl@@UAE@XZ 1000acb0 f   FOHistoryBtnCtrl.obj
 0001:00009d50       ??_GCFOHistoryBtnCtrl@@UAEPAXI@Z 1000ad50 f i FOHistoryBtnCtrl.obj
 0001:00009d50       ??_ECFOHistoryBtnCtrl@@UAEPAXI@Z 1000ad50 f i FOHistoryBtnCtrl.obj
 0001:00009e50       ?CreateFOHistoryBtn@CFOHistoryBtnCtrl@@QAE_NPAVCWnd@@0VCRect@@IHHH@Z 1000ae50 f   FOHistoryBtnCtrl.obj
 0001:0000a050       ?GetCode@CFOHistoryBtnCtrl@@QAE?AV?$CStringT@DV?$StrTraitMFC_DLL@DV?$ChTraitsCRT@D@ATL@@@@@ATL@@XZ 1000b050 f   FOHistoryBtnCtrl.obj
 0001:0000a150       ?GetCodeName@CFOHistoryBtnCtrl@@QAE?AV?$CStringT@DV?$StrTraitMFC_DLL@DV?$ChTraitsCRT@D@ATL@@@@@ATL@@V23@@Z 1000b150 f   FOHistoryBtnCtrl.obj
 0001:0000a200       ?GetCodeType@CFOHistoryBtnCtrl@@QAEHV?$CStringT@DV?$StrTraitMFC_DLL@DV?$ChTraitsCRT@D@ATL@@@@@ATL@@@Z 1000b200 f   FOHistoryBtnCtrl.obj
 0001:0000a290       ?GetMessageMap@CFOHistoryBtnCtrl@@MBEPBUAFX_MSGMAP@@XZ 1000b290 f   FOHistoryBtnCtrl.obj
 0001:0000a2a0       ?GetName@CFOHistoryBtnCtrl@@QAE?AV?$CStringT@DV?$StrTraitMFC_DLL@DV?$ChTraitsCRT@D@ATL@@@@@ATL@@XZ 1000b2a0 f   FOHistoryBtnCtrl.obj
 0001:0000a3a0       ?GetThisMessageMap@CFOHistoryBtnCtrl@@KGPBUAFX_MSGMAP@@XZ 1000b3a0 f   FOHistoryBtnCtrl.obj
 0001:0000a3b0       ?OnDestroy@CFOHistoryBtnCtrl@@IAEXXZ 1000b3b0 f   FOHistoryBtnCtrl.obj
 0001:0000a3c0       ?OnSize@CFOHistoryBtnCtrl@@IAEXIHH@Z 1000b3c0 f   FOHistoryBtnCtrl.obj
 0001:0000a400       ??3CObject@@SGXPAX@Z       1000b400 f i DRChartOcx.obj
 0001:0000a420       ??_ECDRChartOcx@@UAEPAXI@Z 1000b420 f i DRChartOcx.obj
 0001:0000a420       ??_GCDRChartOcx@@UAEPAXI@Z 1000b420 f i DRChartOcx.obj
 0001:0000a460       ?AddChartAllBlock@CDRChartOcx@@QAEHPBD@Z 1000b460 f   DRChartOcx.obj
 0001:0000a490       ?AddChartBlock@CDRChartOcx@@QAEHPBD@Z 1000b490 f   DRChartOcx.obj
 0001:0000a4c0       ?AddChartItem@CDRChartOcx@@QAE?AV?$CStringT@DV?$StrTraitMFC_DLL@DV?$ChTraitsCRT@D@ATL@@@@@ATL@@PBD0H@Z 1000b4c0 f   DRChartOcx.obj
 0001:0000a540       ?AddChartItemRQ@CDRChartOcx@@QAEHPBD00@Z 1000b540 f   DRChartOcx.obj
 0001:0000a570       ?AddGraph@CDRChartOcx@@QAEXFFFPBDHHH@Z 1000b570 f   DRChartOcx.obj
 0001:0000a5b0       ?AddHorizontalLine@CDRChartOcx@@QAEJPBDKFN@Z 1000b5b0 f   DRChartOcx.obj
 0001:0000a5f0       ?AddOrRemoveChart@CDRChartOcx@@QAEHPBD@Z 1000b5f0 f   DRChartOcx.obj
 0001:0000a620       ?AddPacket@CDRChartOcx@@QAEXPBD@Z 1000b620 f   DRChartOcx.obj
 0001:0000a650       ?AddPacketRQ@CDRChartOcx@@QAEXPBD0@Z 1000b650 f   DRChartOcx.obj
 0001:0000a680       ?AddPairItem@CDRChartOcx@@QAE?AV?$CStringT@DV?$StrTraitMFC_DLL@DV?$ChTraitsCRT@D@ATL@@@@@ATL@@PBD0H@Z 1000b680 f   DRChartOcx.obj
 0001:0000a700       ?AddRealItem@CDRChartOcx@@QAEHPBD@Z 1000b700 f   DRChartOcx.obj
 0001:0000a730       ?AddRealItemWithSeparator@CDRChartOcx@@QAEHPBD0@Z 1000b730 f   DRChartOcx.obj
 0001:0000a760       ?AddandDeleteIndicator@CDRChartOcx@@QAEXPBD@Z 1000b760 f   DRChartOcx.obj
 0001:0000a790       ?ChangeAllFunctionName@CDRChartOcx@@QAEHPBD0H@Z 1000b790 f   DRChartOcx.obj
 0001:0000a7c0       ?ChangeBlockType@CDRChartOcx@@QAEHFFF@Z 1000b7c0 f   DRChartOcx.obj
 0001:0000a800       ?ChangeChart@CDRChartOcx@@QAEFFFPBD0000FK@Z 1000b800 f   DRChartOcx.obj
 0001:0000a850       ?ChangeChartItem@CDRChartOcx@@QAEHPBDF0000FFFH@Z 1000b850 f   DRChartOcx.obj
 0001:0000a8a0       ?ChangeFunctionName@CDRChartOcx@@QAEHPBD00@Z 1000b8a0 f   DRChartOcx.obj
 0001:0000a8d0       ?ChangeGraphColor@CDRChartOcx@@QAEHPBD0@Z 1000b8d0 f   DRChartOcx.obj
 0001:0000a900       ?ChangeGraphDatas@CDRChartOcx@@QAEHFFFFPBD0000FFFH@Z 1000b900 f   DRChartOcx.obj
 0001:0000a960       ?ChangeGraphDrawingData@CDRChartOcx@@QAEHPBDHHHHF@Z 1000b960 f   DRChartOcx.obj
 0001:0000a9a0       ?ChangeGraphPropertyAtOnce@CDRChartOcx@@QAEXPBD00FFF0FFF@Z 1000b9a0 f   DRChartOcx.obj
 0001:0000a9f0       ?ChangeGraphTitle2@CDRChartOcx@@QAEHPBD0@Z 1000b9f0 f   DRChartOcx.obj
 0001:0000aa20       ?ChangeGraphTitle@CDRChartOcx@@QAEHFFFPBD@Z 1000ba20 f   DRChartOcx.obj
 0001:0000aa60       ?ChangeGraphType@CDRChartOcx@@QAEHPBD000H@Z 1000ba60 f   DRChartOcx.obj
 0001:0000aaa0       ?ChangeHorzScalePosition@CDRChartOcx@@QAEHFFF@Z 1000baa0 f   DRChartOcx.obj
 0001:0000aae0       ?ChangeIndicatorPacketName@CDRChartOcx@@QAEHPBDF0@Z 1000bae0 f   DRChartOcx.obj
 0001:0000ab10       ?ChangePacketType@CDRChartOcx@@QAEHPBD0@Z 1000bb10 f   DRChartOcx.obj
 0001:0000ab40       ?ChangePacketTypeRQ@CDRChartOcx@@QAEHPBD00@Z 1000bb40 f   DRChartOcx.obj
 0001:0000ab70       ?ChangePriceGraphDrawingData@CDRChartOcx@@QAEHHHHHFF@Z 1000bb70 f   DRChartOcx.obj
 0001:0000abb0       ?ChangeVertScaleMinMaxType@CDRChartOcx@@QAEXFFFFNN@Z 1000bbb0 f   DRChartOcx.obj
 0001:0000ac00       ?ChangeVertScalePosition@CDRChartOcx@@QAEHFFFF@Z 1000bc00 f   DRChartOcx.obj
 0001:0000ac40       ?ClearChartData@CDRChartOcx@@QAEFF@Z 1000bc40 f   DRChartOcx.obj
 0001:0000ac70       ?ClearPacketData@CDRChartOcx@@QAEHPBDH@Z 1000bc70 f   DRChartOcx.obj
 0001:0000aca0       ?ClearTimeMark@CDRChartOcx@@QAEXXZ 1000bca0 f   DRChartOcx.obj
 0001:0000acc0       ?Create@CDRChartOcx@@UAEHPBD0KABUtagRECT@@PAVCWnd@@IPAUCCreateContext@@@Z 1000bcc0 f i DRChartOcx.obj
 0001:0000acf0       ?CreateObject@CDRChartOcx@@SGPAVCObject@@XZ 1000bcf0 f   DRChartOcx.obj
 0001:0000ad70       ?DeleteAllHorizontalLine@CDRChartOcx@@QAEXXZ 1000bd70 f   DRChartOcx.obj
 0001:0000ad90       ?DeleteHorizontalLine@CDRChartOcx@@QAEXJ@Z 1000bd90 f   DRChartOcx.obj
 0001:0000adc0       ?EmptyChart2@CDRChartOcx@@QAEHPBDHH@Z 1000bdc0 f   DRChartOcx.obj
 0001:0000adf0       ?EmptyChart3@CDRChartOcx@@QAEHPBDHHF@Z 1000bdf0 f   DRChartOcx.obj
 0001:0000ae30       ?EmptyChart@CDRChartOcx@@QAEHHH@Z 1000be30 f   DRChartOcx.obj
 0001:0000ae60       ?EnableBoundMark@CDRChartOcx@@QAEXH@Z 1000be60 f   DRChartOcx.obj
 0001:0000ae90       ?EnableReceivingTimeShare@CDRChartOcx@@QAEXH@Z 1000be90 f   DRChartOcx.obj
 0001:0000aec0       ?ExportToExcel@CDRChartOcx@@QAEXXZ 1000bec0 f   DRChartOcx.obj
 0001:0000aee0       ?FindRQ@CDRChartOcx@@QAEHPBD@Z 1000bee0 f   DRChartOcx.obj
 0001:0000af10       ?GetAddInCustomInterface@CDRChartOcx@@QAEPAUIUnknown@@PBD@Z 1000bf10 f   DRChartOcx.obj
 0001:0000af40       ?GetAllProperties2@CDRChartOcx@@QAEJJ@Z 1000bf40 f   DRChartOcx.obj
 0001:0000af70       ?GetAllProperties3@CDRChartOcx@@QAEJJ@Z 1000bf70 f   DRChartOcx.obj
 0001:0000afa0       ?GetBAddGraphMenuShow@CDRChartOcx@@QAEHXZ 1000bfa0 f   DRChartOcx.obj
 0001:0000afc0       ?GetBBlockMoveDelete@CDRChartOcx@@QAEHXZ 1000bfc0 f   DRChartOcx.obj
 0001:0000afe0       ?GetBControlBlockSize@CDRChartOcx@@QAEHXZ 1000bfe0 f   DRChartOcx.obj
 0001:0000b000       ?GetBDoesUseSkinColor@CDRChartOcx@@QAEHXZ 1000c000 f   DRChartOcx.obj
 0001:0000b020       ?GetBEnableIndicatorCalculation@CDRChartOcx@@QAEHXZ 1000c020 f   DRChartOcx.obj
 0001:0000b040       ?GetBFireRealEvent@CDRChartOcx@@QAEHXZ 1000c040 f   DRChartOcx.obj
 0001:0000b060       ?GetBFreezedPageState@CDRChartOcx@@QAEHXZ 1000c060 f   DRChartOcx.obj
 0001:0000b080       ?GetBGraphDragDrop@CDRChartOcx@@QAEHXZ 1000c080 f   DRChartOcx.obj
 0001:0000b0a0       ?GetBHide@CDRChartOcx@@QAEHXZ 1000c0a0 f   DRChartOcx.obj
 0001:0000b0c0       ?GetBHideAllTitle@CDRChartOcx@@QAEHXZ 1000c0c0 f   DRChartOcx.obj
 0001:0000b0e0       ?GetBIsInput@CDRChartOcx@@QAEHXZ 1000c0e0 f   DRChartOcx.obj
 0001:0000b100       ?GetBIsMapDefault@CDRChartOcx@@QAEHXZ 1000c100 f   DRChartOcx.obj
 0001:0000b120       ?GetBNormalizedMinuteTimeRule@CDRChartOcx@@QAEHXZ 1000c120 f   DRChartOcx.obj
 0001:0000b140       ?GetBOcxAreaNumericalInquiry@CDRChartOcx@@QAEHXZ 1000c140 f   DRChartOcx.obj
 0001:0000b160       ?GetBOnePageDataCountInTRCount@CDRChartOcx@@QAEHXZ 1000c160 f   DRChartOcx.obj
 0001:0000b180       ?GetBRedrawAfterUpdatedAllPackets@CDRChartOcx@@QAEHXZ 1000c180 f   DRChartOcx.obj
 0001:0000b1a0       ?GetBSelectGraph@CDRChartOcx@@QAEHXZ 1000c1a0 f   DRChartOcx.obj
 0001:0000b1c0       ?GetBSelectTitle@CDRChartOcx@@QAEHXZ 1000c1c0 f   DRChartOcx.obj
 0001:0000b1e0       ?GetBShowPriceMinMaxText@CDRChartOcx@@QAEHXZ 1000c1e0 f   DRChartOcx.obj
 0001:0000b200       ?GetBShowPriceRateInquiry@CDRChartOcx@@QAEHXZ 1000c200 f   DRChartOcx.obj
 0001:0000b220       ?GetBShowWarningMessageBox@CDRChartOcx@@QAEHXZ 1000c220 f   DRChartOcx.obj
 0001:0000b240       ?GetBUseConditiontoTitle@CDRChartOcx@@QAEHXZ 1000c240 f   DRChartOcx.obj
 0001:0000b260       ?GetBUseDatatoTitle@CDRChartOcx@@QAEHXZ 1000c260 f   DRChartOcx.obj
 0001:0000b280       ?GetBUseGapRevision@CDRChartOcx@@QAEHXZ 1000c280 f   DRChartOcx.obj
 0001:0000b2a0       ?GetBUseInquiryDlgWhenUseCrossLine@CDRChartOcx@@QAEHXZ 1000c2a0 f   DRChartOcx.obj
 0001:0000b2c0       ?GetBUseRealData@CDRChartOcx@@QAEHXZ 1000c2c0 f   DRChartOcx.obj
 0001:0000b2e0       ?GetBUseScaleRButtonMenu@CDRChartOcx@@QAEHXZ 1000c2e0 f   DRChartOcx.obj
 0001:0000b300       ?GetBUseShortKey@CDRChartOcx@@QAEHXZ 1000c300 f   DRChartOcx.obj
 0001:0000b320       ?GetBWholeView@CDRChartOcx@@QAEHXZ 1000c320 f   DRChartOcx.obj
 0001:0000b340       ?GetBase@CDRChartOcx@@QAEJPBD@Z 1000c340 f   DRChartOcx.obj
 0001:0000b370       ?GetBasePropIf@CDRChartOcx@@QAEJXZ 1000c370 f   DRChartOcx.obj
 0001:0000b3a0       ?GetBoundMarkFlag@CDRChartOcx@@QAEHXZ 1000c3a0 f   DRChartOcx.obj
 0001:0000b3d0       ?GetClrAnalysisTool@CDRChartOcx@@QAEKXZ 1000c3d0 f   DRChartOcx.obj
 0001:0000b3f0       ?GetClrBackBorder@CDRChartOcx@@QAEKXZ 1000c3f0 f   DRChartOcx.obj
 0001:0000b410       ?GetClrBackground@CDRChartOcx@@QAEKXZ 1000c410 f   DRChartOcx.obj
 0001:0000b430       ?GetClrBlock@CDRChartOcx@@QAEKXZ 1000c430 f   DRChartOcx.obj
 0001:0000b450       ?GetClrBlockBorder@CDRChartOcx@@QAEKXZ 1000c450 f   DRChartOcx.obj
 0001:0000b470       ?GetClrGraphBase1@CDRChartOcx@@QAEKXZ 1000c470 f   DRChartOcx.obj
 0001:0000b490       ?GetClrGraphBase2@CDRChartOcx@@QAEKXZ 1000c490 f   DRChartOcx.obj
 0001:0000b4b0       ?GetClrGraphBase3@CDRChartOcx@@QAEKXZ 1000c4b0 f   DRChartOcx.obj
 0001:0000b4d0       ?GetClrGraphBase4@CDRChartOcx@@QAEKXZ 1000c4d0 f   DRChartOcx.obj
 0001:0000b4f0       ?GetClrGraphBase5@CDRChartOcx@@QAEKXZ 1000c4f0 f   DRChartOcx.obj
 0001:0000b510       ?GetClrGraphBase6@CDRChartOcx@@QAEKXZ 1000c510 f   DRChartOcx.obj
 0001:0000b530       ?GetClrInquiryWindow@CDRChartOcx@@QAEKXZ 1000c530 f   DRChartOcx.obj
 0001:0000b550       ?GetClrLattice@CDRChartOcx@@QAEKXZ 1000c550 f   DRChartOcx.obj
 0001:0000b570       ?GetClrScaleLine2@CDRChartOcx@@QAEKXZ 1000c570 f   DRChartOcx.obj
 0001:0000b590       ?GetClrScaleLine@CDRChartOcx@@QAEKXZ 1000c590 f   DRChartOcx.obj
 0001:0000b5b0       ?GetClrScaleText@CDRChartOcx@@QAEKXZ 1000c5b0 f   DRChartOcx.obj
 0001:0000b5d0       ?GetColumnBlockCount@CDRChartOcx@@QAEFXZ 1000c5d0 f   DRChartOcx.obj
 0001:0000b600       ?GetCurrentPriceChartType@CDRChartOcx@@QAEFXZ 1000c600 f   DRChartOcx.obj
 0001:0000b630       ?GetCustomFont@CDRChartOcx@@QAE?AV?$CStringT@DV?$StrTraitMFC_DLL@DV?$ChTraitsCRT@D@ATL@@@@@ATL@@XZ 1000c630 f   DRChartOcx.obj
 0001:0000b6a0       ?GetData@CDRChartOcx@@QAE?AV?$CStringT@DV?$StrTraitMFC_DLL@DV?$ChTraitsCRT@D@ATL@@@@@ATL@@PBDF@Z 1000c6a0 f   DRChartOcx.obj
 0001:0000b720       ?GetDataCount@CDRChartOcx@@QAEFXZ 1000c720 f   DRChartOcx.obj
 0001:0000b750       ?GetEnableHorizontalLineInNIDLG@CDRChartOcx@@QAEHXZ 1000c750 f   DRChartOcx.obj
 0001:0000b770       ?GetEnabled@CDRChartOcx@@QAEHXZ 1000c770 f   DRChartOcx.obj
 0001:0000b790       ?GetGraphHide4@CDRChartOcx@@QAEHPBDF@Z 1000c790 f   DRChartOcx.obj
 0001:0000b7c0       ?GetGraphPacketName@CDRChartOcx@@QAE?AV?$CStringT@DV?$StrTraitMFC_DLL@DV?$ChTraitsCRT@D@ATL@@@@@ATL@@FFPBD@Z 1000c7c0 f   DRChartOcx.obj
 0001:0000b850       ?GetGraphPropertyAtOnce@CDRChartOcx@@QAE?AV?$CStringT@DV?$StrTraitMFC_DLL@DV?$ChTraitsCRT@D@ATL@@@@@ATL@@PBD0@Z 1000c850 f   DRChartOcx.obj
 0001:0000b8d0       ?GetHWnd@CDRChartOcx@@QAEIXZ 1000c8d0 f   DRChartOcx.obj
 0001:0000b8f0       ?GetHeadAndTailData@CDRChartOcx@@QAEHPBDPAN1@Z 1000c8f0 f   DRChartOcx.obj
 0001:0000b920       ?GetHorzScalePosition@CDRChartOcx@@QAEFFF@Z 1000c920 f   DRChartOcx.obj
 0001:0000b950       ?GetIndicatorNameList@CDRChartOcx@@QAE?AV?$CStringT@DV?$StrTraitMFC_DLL@DV?$ChTraitsCRT@D@ATL@@@@@ATL@@PBD@Z 1000c950 f   DRChartOcx.obj
 0001:0000b9d0       ?GetIsShowInneerToolBar@CDRChartOcx@@QAEHXZ 1000c9d0 f   DRChartOcx.obj
 0001:0000b9f0       ?GetListViewerData@CDRChartOcx@@QAEXPAPA_W0000PAHPAJ@Z 1000c9f0 f   DRChartOcx.obj
 0001:0000ba30       ?GetLogScale@CDRChartOcx@@QAEHPBD@Z 1000ca30 f   DRChartOcx.obj
 0001:0000ba60       ?GetMax@CDRChartOcx@@QAENPBD@Z 1000ca60 f   DRChartOcx.obj
 0001:0000ba90       ?GetMin@CDRChartOcx@@QAENPBD@Z 1000ca90 f   DRChartOcx.obj
 0001:0000bac0       ?GetNBlockBorderThickness@CDRChartOcx@@QAEJXZ 1000cac0 f   DRChartOcx.obj
 0001:0000bae0       ?GetNBlockColumnCount@CDRChartOcx@@QAEJXZ 1000cae0 f   DRChartOcx.obj
 0001:0000bb00       ?GetNBlockCompart@CDRChartOcx@@QAEJXZ 1000cb00 f   DRChartOcx.obj
 0001:0000bb20       ?GetNBlockGap@CDRChartOcx@@QAEJXZ 1000cb20 f   DRChartOcx.obj
 0001:0000bb40       ?GetNBlockRowCount@CDRChartOcx@@QAEJXZ 1000cb40 f   DRChartOcx.obj
 0001:0000bb60       ?GetNBlockType@CDRChartOcx@@QAEJXZ 1000cb60 f   DRChartOcx.obj
 0001:0000bb80       ?GetNBongCountMargin@CDRChartOcx@@QAEFXZ 1000cb80 f   DRChartOcx.obj
 0001:0000bba0       ?GetNBorderType@CDRChartOcx@@QAEJXZ 1000cba0 f   DRChartOcx.obj
 0001:0000bbc0       ?GetNBottomMargin@CDRChartOcx@@QAEJXZ 1000cbc0 f   DRChartOcx.obj
 0001:0000bbe0       ?GetNChartMode@CDRChartOcx@@QAEFXZ 1000cbe0 f   DRChartOcx.obj
 0001:0000bc00       ?GetNColumnDoubleSizeBlock@CDRChartOcx@@QAEJXZ 1000cc00 f   DRChartOcx.obj
 0001:0000bc20       ?GetNCurrentDrawCount@CDRChartOcx@@QAEJXZ 1000cc20 f   DRChartOcx.obj
 0001:0000bc40       ?GetNFullDataCount@CDRChartOcx@@QAEJXZ 1000cc40 f   DRChartOcx.obj
 0001:0000bc60       ?GetNGraphRButtonType@CDRChartOcx@@QAEFXZ 1000cc60 f   DRChartOcx.obj
 0001:0000bc80       ?GetNHoldingPacketSize@CDRChartOcx@@QAEFXZ 1000cc80 f   DRChartOcx.obj
 0001:0000bca0       ?GetNHorzGap@CDRChartOcx@@QAEFXZ 1000cca0 f   DRChartOcx.obj
 0001:0000bcc0       ?GetNInquiryType@CDRChartOcx@@QAEFXZ 1000ccc0 f   DRChartOcx.obj
 0001:0000bce0       ?GetNLanguageID@CDRChartOcx@@QAEFXZ 1000cce0 f   DRChartOcx.obj
 0001:0000bd00       ?GetNLeftMargin@CDRChartOcx@@QAEJXZ 1000cd00 f   DRChartOcx.obj
 0001:0000bd20       ?GetNMarginBorderType@CDRChartOcx@@QAEFXZ 1000cd20 f   DRChartOcx.obj
 0001:0000bd40       ?GetNMinDataCountOnOnePage@CDRChartOcx@@QAEFXZ 1000cd40 f   DRChartOcx.obj
 0001:0000bd60       ?GetNNumericalInquiryOption@CDRChartOcx@@QAEJXZ 1000cd60 f   DRChartOcx.obj
 0001:0000bd80       ?GetNOnePageDataCount@CDRChartOcx@@QAEJXZ 1000cd80 f   DRChartOcx.obj
 0001:0000bda0       ?GetNPacketCountDataSize@CDRChartOcx@@QAEFXZ 1000cda0 f   DRChartOcx.obj
 0001:0000bdc0       ?GetNRButtonMenuType@CDRChartOcx@@QAEFXZ 1000cdc0 f   DRChartOcx.obj
 0001:0000bde0       ?GetNRealTimeTruncationType@CDRChartOcx@@QAEFXZ 1000cde0 f   DRChartOcx.obj
 0001:0000be00       ?GetNRightMargin@CDRChartOcx@@QAEJXZ 1000ce00 f   DRChartOcx.obj
 0001:0000be20       ?GetNRowDoubleSizeBlock@CDRChartOcx@@QAEJXZ 1000ce20 f   DRChartOcx.obj
 0001:0000be40       ?GetNScaleLineType@CDRChartOcx@@QAEJXZ 1000ce40 f   DRChartOcx.obj
 0001:0000be60       ?GetNTopMargin@CDRChartOcx@@QAEJXZ 1000ce60 f   DRChartOcx.obj
 0001:0000be80       ?GetNUseInquiryWithCrossline@CDRChartOcx@@QAEFXZ 1000ce80 f   DRChartOcx.obj
 0001:0000bea0       ?GetNUserBlockAddCount@CDRChartOcx@@QAEJXZ 1000cea0 f   DRChartOcx.obj
 0001:0000bec0       ?GetNVertGap@CDRChartOcx@@QAEFXZ 1000cec0 f   DRChartOcx.obj
 0001:0000bee0       ?GetOnRunningOneChart@CDRChartOcx@@QAEHXZ 1000cee0 f   DRChartOcx.obj
 0001:0000bf00       ?GetOnePageDataCount@CDRChartOcx@@QAEJXZ 1000cf00 f   DRChartOcx.obj
 0001:0000bf20       ?GetPacketCount@CDRChartOcx@@QAEJPBD@Z 1000cf20 f   DRChartOcx.obj
 0001:0000bf50       ?GetPacketData2@CDRChartOcx@@QAE?AV?$CStringT@DV?$StrTraitMFC_DLL@DV?$ChTraitsCRT@D@ATL@@@@@ATL@@PBDFH@Z 1000cf50 f   DRChartOcx.obj
 0001:0000bfd0       ?GetPacketIndex@CDRChartOcx@@QAEFPBDN@Z 1000cfd0 f   DRChartOcx.obj
 0001:0000c010       ?GetPacketNearIndex@CDRChartOcx@@QAEFPBDN@Z 1000d010 f   DRChartOcx.obj
 0001:0000c050       ?GetPacketOption@CDRChartOcx@@QAE?AV?$CStringT@DV?$StrTraitMFC_DLL@DV?$ChTraitsCRT@D@ATL@@@@@ATL@@XZ 1000d050 f   DRChartOcx.obj
 0001:0000c0d0       ?GetPacketTypeFromKrxCmeCode@CDRChartOcx@@QAE?AV?$CStringT@DV?$StrTraitMFC_DLL@DV?$ChTraitsCRT@D@ATL@@@@@ATL@@PBD@Z 1000d0d0 f   DRChartOcx.obj
 0001:0000c150       ?GetRealSettingInfo@CDRChartOcx@@QAE?AV?$CStringT@DV?$StrTraitMFC_DLL@DV?$ChTraitsCRT@D@ATL@@@@@ATL@@XZ 1000d150 f   DRChartOcx.obj
 0001:0000c1d0       ?GetRowBlockCount@CDRChartOcx@@QAEFXZ 1000d1d0 f   DRChartOcx.obj
 0001:0000c200       ?GetRowOfGraphWithRQ@CDRChartOcx@@QAEFPBD0@Z 1000d200 f   DRChartOcx.obj
 0001:0000c230       ?GetRuntimeClass@CDRChartOcx@@UBEPAUCRuntimeClass@@XZ 1000d230 f   DRChartOcx.obj
 0001:0000c240       ?GetSelectedSubGraphData@CDRChartOcx@@QAE?AV?$CStringT@DV?$StrTraitMFC_DLL@DV?$ChTraitsCRT@D@ATL@@@@@ATL@@FF@Z 1000d240 f   DRChartOcx.obj
 0001:0000c2c0       ?GetStartEndDateOnView@CDRChartOcx@@QAEHPAN0@Z 1000d2c0 f   DRChartOcx.obj
 0001:0000c2f0       ?GetStartPeriodOfPacket@CDRChartOcx@@QAEJPBD@Z 1000d2f0 f   DRChartOcx.obj
 0001:0000c320       ?GetStrAddInLoadList@CDRChartOcx@@QAE?AV?$CStringT@DV?$StrTraitMFC_DLL@DV?$ChTraitsCRT@D@ATL@@@@@ATL@@XZ 1000d320 f   DRChartOcx.obj
 0001:0000c390       ?GetStrBlockRegion@CDRChartOcx@@QAE?AV?$CStringT@DV?$StrTraitMFC_DLL@DV?$ChTraitsCRT@D@ATL@@@@@ATL@@XZ 1000d390 f   DRChartOcx.obj
 0001:0000c400       ?GetStrChartList@CDRChartOcx@@QAE?AV?$CStringT@DV?$StrTraitMFC_DLL@DV?$ChTraitsCRT@D@ATL@@@@@ATL@@XZ 1000d400 f   DRChartOcx.obj
 0001:0000c470       ?GetStrGlobalSharedList@CDRChartOcx@@QAE?AV?$CStringT@DV?$StrTraitMFC_DLL@DV?$ChTraitsCRT@D@ATL@@@@@ATL@@XZ 1000d470 f   DRChartOcx.obj
 0001:0000c4e0       ?GetStrLocalSharedList@CDRChartOcx@@QAE?AV?$CStringT@DV?$StrTraitMFC_DLL@DV?$ChTraitsCRT@D@ATL@@@@@ATL@@XZ 1000d4e0 f   DRChartOcx.obj
 0001:0000c550       ?GetStrMapIndicatorInfo@CDRChartOcx@@QAE?AV?$CStringT@DV?$StrTraitMFC_DLL@DV?$ChTraitsCRT@D@ATL@@@@@ATL@@XZ 1000d550 f   DRChartOcx.obj
 0001:0000c5c0       ?GetStrMapName@CDRChartOcx@@QAE?AV?$CStringT@DV?$StrTraitMFC_DLL@DV?$ChTraitsCRT@D@ATL@@@@@ATL@@XZ 1000d5c0 f   DRChartOcx.obj
 0001:0000c630       ?GetStrPacketOption@CDRChartOcx@@QAE?AV?$CStringT@DV?$StrTraitMFC_DLL@DV?$ChTraitsCRT@D@ATL@@@@@ATL@@XZ 1000d630 f   DRChartOcx.obj
 0001:0000c6a0       ?GetStrPagePathWithPrefix@CDRChartOcx@@QAE?AV?$CStringT@DV?$StrTraitMFC_DLL@DV?$ChTraitsCRT@D@ATL@@@@@ATL@@XZ 1000d6a0 f   DRChartOcx.obj
 0001:0000c710       ?GetStrRealList@CDRChartOcx@@QAE?AV?$CStringT@DV?$StrTraitMFC_DLL@DV?$ChTraitsCRT@D@ATL@@@@@ATL@@XZ 1000d710 f   DRChartOcx.obj
 0001:0000c780       ?GetStrStartDateOfData@CDRChartOcx@@QAE?AV?$CStringT@DV?$StrTraitMFC_DLL@DV?$ChTraitsCRT@D@ATL@@@@@ATL@@XZ 1000d780 f   DRChartOcx.obj
 0001:0000c7f0       ?GetStrToolbarOption@CDRChartOcx@@QAE?AV?$CStringT@DV?$StrTraitMFC_DLL@DV?$ChTraitsCRT@D@ATL@@@@@ATL@@XZ 1000d7f0 f   DRChartOcx.obj
 0001:0000c860       ?GetStrUserEnvironmentFileName@CDRChartOcx@@QAE?AV?$CStringT@DV?$StrTraitMFC_DLL@DV?$ChTraitsCRT@D@ATL@@@@@ATL@@XZ 1000d860 f   DRChartOcx.obj
 0001:0000c8d0       ?GetStrUserIndicatorListFileName@CDRChartOcx@@QAE?AV?$CStringT@DV?$StrTraitMFC_DLL@DV?$ChTraitsCRT@D@ATL@@@@@ATL@@XZ 1000d8d0 f   DRChartOcx.obj
 0001:0000c940       ?GetStrUserSeriesListFileName@CDRChartOcx@@QAE?AV?$CStringT@DV?$StrTraitMFC_DLL@DV?$ChTraitsCRT@D@ATL@@@@@ATL@@XZ 1000d940 f   DRChartOcx.obj
 0001:0000c9b0       ?GetSzBasePacketName@CDRChartOcx@@QAE?AV?$CStringT@DV?$StrTraitMFC_DLL@DV?$ChTraitsCRT@D@ATL@@@@@ATL@@XZ 1000d9b0 f   DRChartOcx.obj
 0001:0000ca20       ?GetThisClass@CDRChartOcx@@SGPAUCRuntimeClass@@XZ 1000da20 f   DRChartOcx.obj
 0001:0000ca30       ?GetVertScaleGroupCount@CDRChartOcx@@QAEJFF@Z 1000da30 f   DRChartOcx.obj
 0001:0000ca60       ?GetVertScalePosition@CDRChartOcx@@QAEFFFF@Z 1000da60 f   DRChartOcx.obj
 0001:0000caa0       ?HasGraph@CDRChartOcx@@QAEHPBD@Z 1000daa0 f   DRChartOcx.obj
 0001:0000cad0       ?HasGraphInSpecialBack@CDRChartOcx@@QAEHPBD@Z 1000dad0 f   DRChartOcx.obj
 0001:0000cb00       ?HasIndicator@CDRChartOcx@@QAEHPBD@Z 1000db00 f   DRChartOcx.obj
 0001:0000cb30       ?HasIndicatorInSpecialBack@CDRChartOcx@@QAEHPBD@Z 1000db30 f   DRChartOcx.obj
 0001:0000cb60       ?HasIndicatorWithRQ@CDRChartOcx@@QAEHPBD0@Z 1000db60 f   DRChartOcx.obj
 0001:0000cb90       ?InitStaticIndiCond@CDRChartOcx@@QAEXPBD@Z 1000db90 f   DRChartOcx.obj
 0001:0000cbc0       ?InvokeAddIn@CDRChartOcx@@QAEHPBDFJ@Z 1000dbc0 f   DRChartOcx.obj
 0001:0000cbf0       ?InvokeAddInStr@CDRChartOcx@@QAEHPBD00@Z 1000dbf0 f   DRChartOcx.obj
 0001:0000cc20       ?JoinAllGraph@CDRChartOcx@@QAEHH@Z 1000dc20 f   DRChartOcx.obj
 0001:0000cc50       ?JoinandDevisionforCompareChart@CDRChartOcx@@QAEHJJH@Z 1000dc50 f   DRChartOcx.obj
 0001:0000cc80       ?LoadAddIn@CDRChartOcx@@QAEHPBD@Z 1000dc80 f   DRChartOcx.obj
 0001:0000ccb0       ?LoadAddInWithOverExclusive@CDRChartOcx@@QAEHPBD@Z 1000dcb0 f   DRChartOcx.obj
 0001:0000cce0       ?LockWindowUpdate@CDRChartOcx@@QAEHXZ 1000dce0 f   DRChartOcx.obj
 0001:0000cd10       ?MakeSaveShortKey@CDRChartOcx@@QAEXPBDF@Z 1000dd10 f   DRChartOcx.obj
 0001:0000cd40       ?OpenFileOfEnvAndIndi@CDRChartOcx@@QAEHPBD0H@Z 1000dd40 f   DRChartOcx.obj
 0001:0000cd70       ?OpenFromFile@CDRChartOcx@@QAEHPBDH@Z 1000dd70 f   DRChartOcx.obj
 0001:0000cda0       ?OpenFromPage@CDRChartOcx@@QAEXPBDHFF@Z 1000dda0 f   DRChartOcx.obj
 0001:0000cdd0       ?PartitionAllGraph@CDRChartOcx@@QAEHXZ 1000ddd0 f   DRChartOcx.obj
 0001:0000ce00       ?PrintChatImage@CDRChartOcx@@QAEXXZ 1000de00 f   DRChartOcx.obj
 0001:0000ce20       ?ReCalculateAllGraphs@CDRChartOcx@@QAEXXZ 1000de20 f   DRChartOcx.obj
 0001:0000ce40       ?RemoveAllGraphOfRQ@CDRChartOcx@@QAEXPBD@Z 1000de40 f   DRChartOcx.obj
 0001:0000ce70       ?RemoveBlock@CDRChartOcx@@QAEHFF@Z 1000de70 f   DRChartOcx.obj
 0001:0000cea0       ?RemoveBlockWithIndex@CDRChartOcx@@QAEHFF@Z 1000dea0 f   DRChartOcx.obj
 0001:0000ced0       ?RemoveChart@CDRChartOcx@@QAEHPBD@Z 1000ded0 f   DRChartOcx.obj
 0001:0000cf00       ?RemoveGraph@CDRChartOcx@@QAEHFFPBD@Z 1000df00 f   DRChartOcx.obj
 0001:0000cf40       ?RemoveGraphRQ@CDRChartOcx@@QAEHPBD0@Z 1000df40 f   DRChartOcx.obj
 0001:0000cf70       ?RemoveGraph_Title@CDRChartOcx@@QAEHFFPBDHH@Z 1000df70 f   DRChartOcx.obj
 0001:0000cfb0       ?RemovePacket@CDRChartOcx@@QAEJPBD@Z 1000dfb0 f   DRChartOcx.obj
 0001:0000cfe0       ?RemoveRealItem@CDRChartOcx@@QAEXPBD@Z 1000dfe0 f   DRChartOcx.obj
 0001:0000d010       ?RemoveRealItemWithSeparator@CDRChartOcx@@QAEXPBD0@Z 1000e010 f   DRChartOcx.obj
 0001:0000d040       ?ResetChart@CDRChartOcx@@QAEHXZ 1000e040 f   DRChartOcx.obj
 0001:0000d070       ?ResetChartCfgWith@CDRChartOcx@@QAEXF@Z 1000e070 f   DRChartOcx.obj
 0001:0000d0a0       ?ResetRealListString@CDRChartOcx@@QAEHPBDH@Z 1000e0a0 f   DRChartOcx.obj
 0001:0000d0d0       ?RestorMax@CDRChartOcx@@QAEHPBD@Z 1000e0d0 f   DRChartOcx.obj
 0001:0000d100       ?RestoreMin@CDRChartOcx@@QAEHPBD@Z 1000e100 f   DRChartOcx.obj
 0001:0000d130       ?RestoreMinMax@CDRChartOcx@@QAEHPBD@Z 1000e130 f   DRChartOcx.obj
 0001:0000d160       ?RunEnvironmentDlg@CDRChartOcx@@QAEXF@Z 1000e160 f   DRChartOcx.obj
 0001:0000d190       ?RunToolFunction@CDRChartOcx@@QAEHFF@Z 1000e190 f   DRChartOcx.obj
 0001:0000d1c0       ?SaveToPage@CDRChartOcx@@QAEXPBDHFF@Z 1000e1c0 f   DRChartOcx.obj
 0001:0000d1f0       ?SaveandApplyGraphStyle@CDRChartOcx@@QAEXFF@Z 1000e1f0 f   DRChartOcx.obj
 0001:0000d220       ?SaveandOpenFromAnalToolFile@CDRChartOcx@@QAEHPBD0HH@Z 1000e220 f   DRChartOcx.obj
 0001:0000d260       ?SaveandOpenFromFile@CDRChartOcx@@QAEHPBD0HH@Z 1000e260 f   DRChartOcx.obj
 0001:0000d290       ?SaveandOpenFromFileWithMSave@CDRChartOcx@@QAEHPBD0HH@Z 1000e290 f   DRChartOcx.obj
 0001:0000d2d0       ?ScrollToDataOfEnd@CDRChartOcx@@QAEHN@Z 1000e2d0 f   DRChartOcx.obj
 0001:0000d310       ?SetAllGraphHide@CDRChartOcx@@QAEXFFF@Z 1000e310 f   DRChartOcx.obj
 0001:0000d340       ?SetAllGraphsHide@CDRChartOcx@@QAEXFFH@Z 1000e340 f   DRChartOcx.obj
 0001:0000d370       ?SetAllLogScale@CDRChartOcx@@QAEXH@Z 1000e370 f   DRChartOcx.obj
 0001:0000d3a0       ?SetAllProperties2@CDRChartOcx@@QAEHJ@Z 1000e3a0 f   DRChartOcx.obj
 0001:0000d3d0       ?SetAllProperties3@CDRChartOcx@@QAEJJ@Z 1000e3d0 f   DRChartOcx.obj
 0001:0000d400       ?SetAllPropertiesFromFile@CDRChartOcx@@QAEHPBD0@Z 1000e400 f   DRChartOcx.obj
 0001:0000d430       ?SetAvgUnitPrice@CDRChartOcx@@QAEXN@Z 1000e430 f   DRChartOcx.obj
 0001:0000d460       ?SetBAddGraphMenuShow@CDRChartOcx@@QAEXH@Z 1000e460 f   DRChartOcx.obj
 0001:0000d480       ?SetBBlockMoveDelete@CDRChartOcx@@QAEXH@Z 1000e480 f   DRChartOcx.obj
 0001:0000d4a0       ?SetBControlBlockSize@CDRChartOcx@@QAEXH@Z 1000e4a0 f   DRChartOcx.obj
 0001:0000d4c0       ?SetBDoesUseSkinColor@CDRChartOcx@@QAEXH@Z 1000e4c0 f   DRChartOcx.obj
 0001:0000d4e0       ?SetBEnableIndicatorCalculation@CDRChartOcx@@QAEXH@Z 1000e4e0 f   DRChartOcx.obj
 0001:0000d500       ?SetBFireRealEvent@CDRChartOcx@@QAEXH@Z 1000e500 f   DRChartOcx.obj
 0001:0000d520       ?SetBFreezedPageState@CDRChartOcx@@QAEXH@Z 1000e520 f   DRChartOcx.obj
 0001:0000d540       ?SetBGraphDragDrop@CDRChartOcx@@QAEXH@Z 1000e540 f   DRChartOcx.obj
 0001:0000d560       ?SetBHide@CDRChartOcx@@QAEXH@Z 1000e560 f   DRChartOcx.obj
 0001:0000d580       ?SetBHideAllTitle@CDRChartOcx@@QAEXH@Z 1000e580 f   DRChartOcx.obj
 0001:0000d5a0       ?SetBIsInput@CDRChartOcx@@QAEXH@Z 1000e5a0 f   DRChartOcx.obj
 0001:0000d5c0       ?SetBIsMapDefault@CDRChartOcx@@QAEXH@Z 1000e5c0 f   DRChartOcx.obj
 0001:0000d5e0       ?SetBNormalizedMinuteTimeRule@CDRChartOcx@@QAEXH@Z 1000e5e0 f   DRChartOcx.obj
 0001:0000d600       ?SetBOcxAreaNumericalInquiry@CDRChartOcx@@QAEXH@Z 1000e600 f   DRChartOcx.obj
 0001:0000d620       ?SetBOnePageDataCountInTRCount@CDRChartOcx@@QAEXH@Z 1000e620 f   DRChartOcx.obj
 0001:0000d640       ?SetBRedrawAfterUpdatedAllPackets@CDRChartOcx@@QAEXH@Z 1000e640 f   DRChartOcx.obj
 0001:0000d660       ?SetBSelectGraph@CDRChartOcx@@QAEXH@Z 1000e660 f   DRChartOcx.obj
 0001:0000d680       ?SetBSelectTitle@CDRChartOcx@@QAEXH@Z 1000e680 f   DRChartOcx.obj
 0001:0000d6a0       ?SetBShowPriceMinMaxText@CDRChartOcx@@QAEXH@Z 1000e6a0 f   DRChartOcx.obj
 0001:0000d6c0       ?SetBShowPriceRateInquiry@CDRChartOcx@@QAEXH@Z 1000e6c0 f   DRChartOcx.obj
 0001:0000d6e0       ?SetBShowWarningMessageBox@CDRChartOcx@@QAEXH@Z 1000e6e0 f   DRChartOcx.obj
 0001:0000d700       ?SetBUseConditiontoTitle@CDRChartOcx@@QAEXH@Z 1000e700 f   DRChartOcx.obj
 0001:0000d720       ?SetBUseDatatoTitle@CDRChartOcx@@QAEXH@Z 1000e720 f   DRChartOcx.obj
 0001:0000d740       ?SetBUseGapRevision@CDRChartOcx@@QAEXH@Z 1000e740 f   DRChartOcx.obj
 0001:0000d760       ?SetBUseInquiryDlgWhenUseCrossLine@CDRChartOcx@@QAEXH@Z 1000e760 f   DRChartOcx.obj
 0001:0000d780       ?SetBUseRealData@CDRChartOcx@@QAEXH@Z 1000e780 f   DRChartOcx.obj
 0001:0000d7a0       ?SetBUseScaleRButtonMenu@CDRChartOcx@@QAEXH@Z 1000e7a0 f   DRChartOcx.obj
 0001:0000d7c0       ?SetBUseShortKey@CDRChartOcx@@QAEXH@Z 1000e7c0 f   DRChartOcx.obj
 0001:0000d7e0       ?SetBWholeView@CDRChartOcx@@QAEXH@Z 1000e7e0 f   DRChartOcx.obj
 0001:0000d800       ?SetBackgroundColors@CDRChartOcx@@QAEXKK@Z 1000e800 f   DRChartOcx.obj
 0001:0000d830       ?SetBaseDesk@CDRChartOcx@@QAEXJ@Z 1000e830 f   DRChartOcx.obj
 0001:0000d850       ?SetBinTrDoubleData@CDRChartOcx@@QAEHPBDJPAN@Z 1000e850 f   DRChartOcx.obj
 0001:0000d880       ?SetBinTrEnd@CDRChartOcx@@QAEHXZ 1000e880 f   DRChartOcx.obj
 0001:0000d8b0       ?SetBinTrHelpMsg@CDRChartOcx@@QAEHPBD@Z 1000e8b0 f   DRChartOcx.obj
 0001:0000d8e0       ?SetBinTrStringData@CDRChartOcx@@QAEHPBDJJ@Z 1000e8e0 f   DRChartOcx.obj
 0001:0000d910       ?SetBongCountMargin@CDRChartOcx@@QAEXF@Z 1000e910 f   DRChartOcx.obj
 0001:0000d940       ?SetChartAllInfo@CDRChartOcx@@QAEXXZ 1000e940 f   DRChartOcx.obj
 0001:0000d960       ?SetChartData@CDRChartOcx@@QAEFJFF@Z 1000e960 f   DRChartOcx.obj
 0001:0000d990       ?SetChartDataFromFile@CDRChartOcx@@QAEFPBDF@Z 1000e990 f   DRChartOcx.obj
 0001:0000d9c0       ?SetChartDataStr@CDRChartOcx@@QAEFPBDFF@Z 1000e9c0 f   DRChartOcx.obj
 0001:0000d9f0       ?SetClrAnalysisTool@CDRChartOcx@@QAEXK@Z 1000e9f0 f   DRChartOcx.obj
 0001:0000da10       ?SetClrBackBorder@CDRChartOcx@@QAEXK@Z 1000ea10 f   DRChartOcx.obj
 0001:0000da30       ?SetClrBackground@CDRChartOcx@@QAEXK@Z 1000ea30 f   DRChartOcx.obj
 0001:0000da50       ?SetClrBlock@CDRChartOcx@@QAEXK@Z 1000ea50 f   DRChartOcx.obj
 0001:0000da70       ?SetClrBlockBorder@CDRChartOcx@@QAEXK@Z 1000ea70 f   DRChartOcx.obj
 0001:0000da90       ?SetClrGraphBase1@CDRChartOcx@@QAEXK@Z 1000ea90 f   DRChartOcx.obj
 0001:0000dab0       ?SetClrGraphBase2@CDRChartOcx@@QAEXK@Z 1000eab0 f   DRChartOcx.obj
 0001:0000dad0       ?SetClrGraphBase3@CDRChartOcx@@QAEXK@Z 1000ead0 f   DRChartOcx.obj
 0001:0000daf0       ?SetClrGraphBase4@CDRChartOcx@@QAEXK@Z 1000eaf0 f   DRChartOcx.obj
 0001:0000db10       ?SetClrGraphBase5@CDRChartOcx@@QAEXK@Z 1000eb10 f   DRChartOcx.obj
 0001:0000db30       ?SetClrGraphBase6@CDRChartOcx@@QAEXK@Z 1000eb30 f   DRChartOcx.obj
 0001:0000db50       ?SetClrInquiryWindow@CDRChartOcx@@QAEXK@Z 1000eb50 f   DRChartOcx.obj
 0001:0000db70       ?SetClrLattice@CDRChartOcx@@QAEXK@Z 1000eb70 f   DRChartOcx.obj
 0001:0000db90       ?SetClrScaleLine2@CDRChartOcx@@QAEXK@Z 1000eb90 f   DRChartOcx.obj
 0001:0000dbb0       ?SetClrScaleLine@CDRChartOcx@@QAEXK@Z 1000ebb0 f   DRChartOcx.obj
 0001:0000dbd0       ?SetClrScaleText@CDRChartOcx@@QAEXK@Z 1000ebd0 f   DRChartOcx.obj
 0001:0000dbf0       ?SetContainerDllInfo@CDRChartOcx@@QAEXJF@Z 1000ebf0 f   DRChartOcx.obj
 0001:0000dc20       ?SetCurrentRQ@CDRChartOcx@@QAEXPBD@Z 1000ec20 f   DRChartOcx.obj
 0001:0000dc50       ?SetCustomFont@CDRChartOcx@@QAEXPBD@Z 1000ec50 f   DRChartOcx.obj
 0001:0000dc70       ?SetDataIndexByDate@CDRChartOcx@@QAEXPBD0@Z 1000ec70 f   DRChartOcx.obj
 0001:0000dca0       ?SetDataRegionInBlock@CDRChartOcx@@QAEXF@Z 1000eca0 f   DRChartOcx.obj
 0001:0000dcd0       ?SetDoubleSizeBlock@CDRChartOcx@@QAEXFF@Z 1000ecd0 f   DRChartOcx.obj
 0001:0000dd00       ?SetDragModeType@CDRChartOcx@@QAEXF@Z 1000ed00 f   DRChartOcx.obj
 0001:0000dd30       ?SetDrawBaseLine@CDRChartOcx@@QAEXH@Z 1000ed30 f   DRChartOcx.obj
 0001:0000dd60       ?SetDrawVerticalBox@CDRChartOcx@@QAEXNPBDH@Z 1000ed60 f   DRChartOcx.obj
 0001:0000dda0       ?SetDrdsAdvise@CDRChartOcx@@QAEHH@Z 1000eda0 f   DRChartOcx.obj
 0001:0000ddd0       ?SetEmptyChart@CDRChartOcx@@QAEXXZ 1000edd0 f   DRChartOcx.obj
 0001:0000ddf0       ?SetEnableHorizontalLineInNIDLG@CDRChartOcx@@QAEXH@Z 1000edf0 f   DRChartOcx.obj
 0001:0000de10       ?SetEnabled@CDRChartOcx@@QAEXH@Z 1000ee10 f   DRChartOcx.obj
 0001:0000de30       ?SetEncUserID@CDRChartOcx@@QAEXPBD@Z 1000ee30 f   DRChartOcx.obj
 0001:0000de60       ?SetFutureScaleVisible@CDRChartOcx@@QAEXJ@Z 1000ee60 f   DRChartOcx.obj
 0001:0000de90       ?SetGraphColor@CDRChartOcx@@QAEHFFFFFPBD@Z 1000ee90 f   DRChartOcx.obj
 0001:0000dee0       ?SetGraphColorWithRQ@CDRChartOcx@@QAEHPBD00@Z 1000eee0 f   DRChartOcx.obj
 0001:0000df10       ?SetGraphHide2@CDRChartOcx@@QAEHFFFFFH@Z 1000ef10 f   DRChartOcx.obj
 0001:0000df60       ?SetGraphHide3@CDRChartOcx@@QAEHPBDH@Z 1000ef60 f   DRChartOcx.obj
 0001:0000df90       ?SetGraphHide4@CDRChartOcx@@QAEHPBDFH@Z 1000ef90 f   DRChartOcx.obj
 0001:0000dfc0       ?SetGraphHide@CDRChartOcx@@QAEFFFPBDH@Z 1000efc0 f   DRChartOcx.obj
 0001:0000e000       ?SetGraphTitle@CDRChartOcx@@QAEHPBDF0H@Z 1000f000 f   DRChartOcx.obj
 0001:0000e040       ?SetHWnd@CDRChartOcx@@QAEXI@Z 1000f040 f   DRChartOcx.obj
 0001:0000e060       ?SetHelpMessageRealDataRate@CDRChartOcx@@QAEHPBDH@Z 1000f060 f   DRChartOcx.obj
 0001:0000e090       ?SetHorizontalScaleHeight@CDRChartOcx@@QAEXJ@Z 1000f090 f   DRChartOcx.obj
 0001:0000e0c0       ?SetHorzScaleData@CDRChartOcx@@QAEHFFPBD@Z 1000f0c0 f   DRChartOcx.obj
 0001:0000e100       ?SetHtsPath@CDRChartOcx@@QAEXPBD@Z 1000f100 f   DRChartOcx.obj
 0001:0000e130       ?SetIndicatorCondition@CDRChartOcx@@QAEHPBDFFNH@Z 1000f130 f   DRChartOcx.obj
 0001:0000e180       ?SetIsShowInneerToolBar@CDRChartOcx@@QAEXH@Z 1000f180 f   DRChartOcx.obj
 0001:0000e1a0       ?SetItemCode@CDRChartOcx@@QAEXPBD00@Z 1000f1a0 f   DRChartOcx.obj
 0001:0000e1d0       ?SetItemInfo@CDRChartOcx@@QAEXPBD0@Z 1000f1d0 f   DRChartOcx.obj
 0001:0000e200       ?SetLogScale@CDRChartOcx@@QAEHPBDH@Z 1000f200 f   DRChartOcx.obj
 0001:0000e230       ?SetMapDefaultInCurrent@CDRChartOcx@@QAEHH@Z 1000f230 f   DRChartOcx.obj
 0001:0000e260       ?SetMax@CDRChartOcx@@QAEHPBDN@Z 1000f260 f   DRChartOcx.obj
 0001:0000e2a0       ?SetMin@CDRChartOcx@@QAEHPBDN@Z 1000f2a0 f   DRChartOcx.obj
 0001:0000e2e0       ?SetMinMax@CDRChartOcx@@QAEHPBDNN@Z 1000f2e0 f   DRChartOcx.obj
 0001:0000e320       ?SetMultiItemMode@CDRChartOcx@@QAEXH@Z 1000f320 f   DRChartOcx.obj
 0001:0000e350       ?SetNBlockBorderThickness@CDRChartOcx@@QAEXJ@Z 1000f350 f   DRChartOcx.obj
 0001:0000e370       ?SetNBlockColumnCount@CDRChartOcx@@QAEXJ@Z 1000f370 f   DRChartOcx.obj
 0001:0000e390       ?SetNBlockCompart@CDRChartOcx@@QAEXJ@Z 1000f390 f   DRChartOcx.obj
 0001:0000e3b0       ?SetNBlockGap@CDRChartOcx@@QAEXJ@Z 1000f3b0 f   DRChartOcx.obj
 0001:0000e3d0       ?SetNBlockRowCount@CDRChartOcx@@QAEXJ@Z 1000f3d0 f   DRChartOcx.obj
 0001:0000e3f0       ?SetNBlockType@CDRChartOcx@@QAEXJ@Z 1000f3f0 f   DRChartOcx.obj
 0001:0000e410       ?SetNBongCountMargin@CDRChartOcx@@QAEXF@Z 1000f410 f   DRChartOcx.obj
 0001:0000e430       ?SetNBorderType@CDRChartOcx@@QAEXJ@Z 1000f430 f   DRChartOcx.obj
 0001:0000e450       ?SetNBottomMargin@CDRChartOcx@@QAEXJ@Z 1000f450 f   DRChartOcx.obj
 0001:0000e470       ?SetNChartMode@CDRChartOcx@@QAEXF@Z 1000f470 f   DRChartOcx.obj
 0001:0000e490       ?SetNColumnDoubleSizeBlock@CDRChartOcx@@QAEXJ@Z 1000f490 f   DRChartOcx.obj
 0001:0000e4b0       ?SetNCurrentDrawCount@CDRChartOcx@@QAEXJ@Z 1000f4b0 f   DRChartOcx.obj
 0001:0000e4d0       ?SetNFullDataCount@CDRChartOcx@@QAEXJ@Z 1000f4d0 f   DRChartOcx.obj
 0001:0000e4f0       ?SetNGraphRButtonType@CDRChartOcx@@QAEXF@Z 1000f4f0 f   DRChartOcx.obj
 0001:0000e510       ?SetNHoldingPacketSize@CDRChartOcx@@QAEXF@Z 1000f510 f   DRChartOcx.obj
 0001:0000e530       ?SetNHorzGap@CDRChartOcx@@QAEXF@Z 1000f530 f   DRChartOcx.obj
 0001:0000e550       ?SetNInquiryType@CDRChartOcx@@QAEXF@Z 1000f550 f   DRChartOcx.obj
 0001:0000e570       ?SetNLanguageID@CDRChartOcx@@QAEXF@Z 1000f570 f   DRChartOcx.obj
 0001:0000e590       ?SetNLeftMargin@CDRChartOcx@@QAEXJ@Z 1000f590 f   DRChartOcx.obj
 0001:0000e5b0       ?SetNMarginBorderType@CDRChartOcx@@QAEXF@Z 1000f5b0 f   DRChartOcx.obj
 0001:0000e5d0       ?SetNMinDataCountOnOnePage@CDRChartOcx@@QAEXF@Z 1000f5d0 f   DRChartOcx.obj
 0001:0000e5f0       ?SetNNumericalInquiryOption@CDRChartOcx@@QAEXJ@Z 1000f5f0 f   DRChartOcx.obj
 0001:0000e610       ?SetNOnePageDataCount@CDRChartOcx@@QAEXJ@Z 1000f610 f   DRChartOcx.obj
 0001:0000e630       ?SetNPacketCountDataSize@CDRChartOcx@@QAEXF@Z 1000f630 f   DRChartOcx.obj
 0001:0000e650       ?SetNRButtonMenuType@CDRChartOcx@@QAEXF@Z 1000f650 f   DRChartOcx.obj
 0001:0000e670       ?SetNRealTimeTruncationType@CDRChartOcx@@QAEXF@Z 1000f670 f   DRChartOcx.obj
 0001:0000e690       ?SetNRightMargin@CDRChartOcx@@QAEXJ@Z 1000f690 f   DRChartOcx.obj
 0001:0000e6b0       ?SetNRowDoubleSizeBlock@CDRChartOcx@@QAEXJ@Z 1000f6b0 f   DRChartOcx.obj
 0001:0000e6d0       ?SetNScaleLineType@CDRChartOcx@@QAEXJ@Z 1000f6d0 f   DRChartOcx.obj
 0001:0000e6f0       ?SetNTopMargin@CDRChartOcx@@QAEXJ@Z 1000f6f0 f   DRChartOcx.obj
 0001:0000e710       ?SetNUseInquiryWithCrossline@CDRChartOcx@@QAEXF@Z 1000f710 f   DRChartOcx.obj
 0001:0000e730       ?SetNUserBlockAddCount@CDRChartOcx@@QAEXJ@Z 1000f730 f   DRChartOcx.obj
 0001:0000e750       ?SetNVertGap@CDRChartOcx@@QAEXF@Z 1000f750 f   DRChartOcx.obj
 0001:0000e770       ?SetOnRunningOneChart@CDRChartOcx@@QAEXH@Z 1000f770 f   DRChartOcx.obj
 0001:0000e790       ?SetOnePageDataCount2@CDRChartOcx@@QAEXJH@Z 1000f790 f   DRChartOcx.obj
 0001:0000e7c0       ?SetOnePageDataCount@CDRChartOcx@@QAEXJ@Z 1000f7c0 f   DRChartOcx.obj
 0001:0000e7e0       ?SetOnePageDataCountInTRCount@CDRChartOcx@@QAEXHH@Z 1000f7e0 f   DRChartOcx.obj
 0001:0000e810       ?SetOutsideCommonInterface@CDRChartOcx@@QAEXJ@Z 1000f810 f   DRChartOcx.obj
 0001:0000e840       ?SetPacketAutoScaleType@CDRChartOcx@@QAEXPBDH@Z 1000f840 f   DRChartOcx.obj
 0001:0000e870       ?SetPacketData2@CDRChartOcx@@QAEHPBD00FH@Z 1000f870 f   DRChartOcx.obj
 0001:0000e8b0       ?SetPacketData@CDRChartOcx@@QAEHPBDJJH@Z 1000f8b0 f   DRChartOcx.obj
 0001:0000e8f0       ?SetPacketDataInAdditionPacket@CDRChartOcx@@QAEHPBDJJH@Z 1000f8f0 f   DRChartOcx.obj
 0001:0000e930       ?SetPacketDataInIndex@CDRChartOcx@@QAEHPBDF0H@Z 1000f930 f   DRChartOcx.obj
 0001:0000e970       ?SetPacketDataRQ@CDRChartOcx@@QAEHPBD0JJH@Z 1000f970 f   DRChartOcx.obj
 0001:0000e9b0       ?SetPacketHelpMessage@CDRChartOcx@@QAEHPBDH@Z 1000f9b0 f   DRChartOcx.obj
 0001:0000e9e0       ?SetPacketOption@CDRChartOcx@@QAEXPBD@Z 1000f9e0 f   DRChartOcx.obj
 0001:0000ea10       ?SetPacketTypeWithAutoScale@CDRChartOcx@@QAEHPBD0H@Z 1000fa10 f   DRChartOcx.obj
 0001:0000ea40       ?SetRealData@CDRChartOcx@@QAEXPBDNF@Z 1000fa40 f   DRChartOcx.obj
 0001:0000ea80       ?SetRealDataCode@CDRChartOcx@@QAEXPBD0NF@Z 1000fa80 f   DRChartOcx.obj
 0001:0000eac0       ?SetResetTotalCountWhileDraw@CDRChartOcx@@QAEXH@Z 1000fac0 f   DRChartOcx.obj
 0001:0000eaf0       ?SetRunTimeMode@CDRChartOcx@@QAEXH@Z 1000faf0 f   DRChartOcx.obj
 0001:0000eb20       ?SetStartEndDateOfView@CDRChartOcx@@QAEHNN@Z 1000fb20 f   DRChartOcx.obj
 0001:0000eb60       ?SetStartPeriodOfPacket@CDRChartOcx@@QAEHPBDJJ@Z 1000fb60 f   DRChartOcx.obj
 0001:0000eb90       ?SetStopLossPrice@CDRChartOcx@@QAEHHNHN@Z 1000fb90 f   DRChartOcx.obj
 0001:0000ebe0       ?SetStrAddInLoadList@CDRChartOcx@@QAEXPBD@Z 1000fbe0 f   DRChartOcx.obj
 0001:0000ec00       ?SetStrBlockRegion@CDRChartOcx@@QAEXPBD@Z 1000fc00 f   DRChartOcx.obj
 0001:0000ec20       ?SetStrChartList@CDRChartOcx@@QAEXPBD@Z 1000fc20 f   DRChartOcx.obj
 0001:0000ec40       ?SetStrGlobalSharedList@CDRChartOcx@@QAEXPBD@Z 1000fc40 f   DRChartOcx.obj
 0001:0000ec60       ?SetStrLocalSharedList@CDRChartOcx@@QAEXPBD@Z 1000fc60 f   DRChartOcx.obj
 0001:0000ec80       ?SetStrMapIndicatorInfo@CDRChartOcx@@QAEXPBD@Z 1000fc80 f   DRChartOcx.obj
 0001:0000eca0       ?SetStrMapName@CDRChartOcx@@QAEXPBD@Z 1000fca0 f   DRChartOcx.obj
 0001:0000ecc0       ?SetStrPacketOption@CDRChartOcx@@QAEXPBD@Z 1000fcc0 f   DRChartOcx.obj
 0001:0000ece0       ?SetStrPagePathWithPrefix@CDRChartOcx@@QAEXPBD@Z 1000fce0 f   DRChartOcx.obj
 0001:0000ed00       ?SetStrRealList@CDRChartOcx@@QAEXPBD@Z 1000fd00 f   DRChartOcx.obj
 0001:0000ed20       ?SetStrStartDateOfData@CDRChartOcx@@QAEXPBD@Z 1000fd20 f   DRChartOcx.obj
 0001:0000ed40       ?SetStrToolbarOption@CDRChartOcx@@QAEXPBD@Z 1000fd40 f   DRChartOcx.obj
 0001:0000ed60       ?SetStrUserEnvironmentFileName@CDRChartOcx@@QAEXPBD@Z 1000fd60 f   DRChartOcx.obj
 0001:0000ed80       ?SetStrUserIndicatorListFileName@CDRChartOcx@@QAEXPBD@Z 1000fd80 f   DRChartOcx.obj
 0001:0000eda0       ?SetStrUserSeriesListFileName@CDRChartOcx@@QAEXPBD@Z 1000fda0 f   DRChartOcx.obj
 0001:0000edc0       ?SetSubIndicatorCondition@CDRChartOcx@@QAEHPBDFFFNH@Z 1000fdc0 f   DRChartOcx.obj
 0001:0000ee10       ?SetSyncPacketData@CDRChartOcx@@QAEXPBD@Z 1000fe10 f   DRChartOcx.obj
 0001:0000ee40       ?SetSzBasePacketName@CDRChartOcx@@QAEXPBD@Z 1000fe40 f   DRChartOcx.obj
 0001:0000ee60       ?SetTimeMark@CDRChartOcx@@QAEXPBDH@Z 1000fe60 f   DRChartOcx.obj
 0001:0000ee90       ?SetUseSTExtData@CDRChartOcx@@QAEXPBD@Z 1000fe90 f   DRChartOcx.obj
 0001:0000eec0       ?SetVertScaleData@CDRChartOcx@@QAEHFFFPBD@Z 1000fec0 f   DRChartOcx.obj
 0001:0000ef00       ?SetVertScaleLogType@CDRChartOcx@@QAEHFFH@Z 1000ff00 f   DRChartOcx.obj
 0001:0000ef40       ?SetVertScaleType@CDRChartOcx@@QAEXFFFFN@Z 1000ff40 f   DRChartOcx.obj
 0001:0000ef90       ?ShiftPacket@CDRChartOcx@@QAEHPBDJ@Z 1000ff90 f   DRChartOcx.obj
 0001:0000efc0       ?ShowAnalysisToolText@CDRChartOcx@@QAEXHHHHHHH@Z 1000ffc0 f   DRChartOcx.obj
 0001:0000f000       ?ShowBaseText@CDRChartOcx@@QAEXH@Z 10010000 f   DRChartOcx.obj
 0001:0000f030       ?ShowEnvironmentDlg@CDRChartOcx@@QAEXXZ 10010030 f   DRChartOcx.obj
 0001:0000f050       ?ShowGraphDataDrawingData@CDRChartOcx@@QAEHPBD0HF@Z 10010050 f   DRChartOcx.obj
 0001:0000f090       ?ShowIndicator@CDRChartOcx@@QAEXPBDHH@Z 10010090 f   DRChartOcx.obj
 0001:0000f0c0       ?ShowIndicatorConfigDlg@CDRChartOcx@@QAEXXZ 100100c0 f   DRChartOcx.obj
 0001:0000f0e0       ?ShowIndicatorConfigDlgWithName@CDRChartOcx@@QAEHPBD@Z 100100e0 f   DRChartOcx.obj
 0001:0000f110       ?ShowInnerToolBar@CDRChartOcx@@QAEXH@Z 10010110 f   DRChartOcx.obj
 0001:0000f140       ?ShowSelEnvironmentDlg@CDRChartOcx@@QAEXF@Z 10010140 f   DRChartOcx.obj
 0001:0000f170       ?UnloadAddIn@CDRChartOcx@@QAEHPBD@Z 10010170 f   DRChartOcx.obj
 0001:0000f1a0       ?UnlockWindowUpdate@CDRChartOcx@@QAEXXZ 100101a0 f   DRChartOcx.obj
 0001:0000f1c0       ?UpdateHorizontalLine@CDRChartOcx@@QAEXJPBDKFN@Z 100101c0 f   DRChartOcx.obj
 0001:0000f200       ?UseDummyPacketData@CDRChartOcx@@QAEXH@Z 10010200 f   DRChartOcx.obj
 0001:0000f230       ?ZoomTo@CDRChartOcx@@QAEHJH@Z 10010230 f   DRChartOcx.obj
 0001:0000f260       ?ZoomToWithRightFix@CDRChartOcx@@QAEFFH@Z 10010260 f   DRChartOcx.obj
 0001:0000f290       ?_GetBaseClass@CDRChartOcx@@KGPAUCRuntimeClass@@XZ 10010290 f   DRChartOcx.obj
 0001:0000f2a0       ?testGetPacketdatasize@CDRChartOcx@@QAEFPBD@Z 100102a0 f   DRChartOcx.obj
 0001:0000f2d0       ?testLoadAnalysisTools@CDRChartOcx@@QAEXFF@Z 100102d0 f   DRChartOcx.obj
 0001:0000f300       ??1CRgn@@UAE@XZ            10010300 f i Conversion.obj
 0001:0000f310       ??HATL@@YA?AV?$CStringT@DV?$StrTraitMFC_DLL@DV?$ChTraitsCRT@D@ATL@@@@@0@ABV10@0@Z 10010310 f i Conversion.obj
 0001:0000f390       ??HATL@@YA?AV?$CStringT@DV?$StrTraitMFC_DLL@DV?$ChTraitsCRT@D@ATL@@@@@0@DABV10@@Z 10010390 f i Conversion.obj
 0001:0000f410       ??_GCRgn@@UAEPAXI@Z        10010410 f i Conversion.obj
 0001:0000f410       ??_ECRgn@@UAEPAXI@Z        10010410 f i Conversion.obj
 0001:0000f450       ?AbsoluteToRelative_X@CDataConversion@@SAHABVCRect@@HABN1@Z 10010450 f   Conversion.obj
 0001:0000f4c0       ?AbsoluteToRelative_X@CDataConversion@@SAHABVCRect@@HH@Z 100104c0 f   Conversion.obj
 0001:0000f510       ?AbsoluteToRelative_Y@CDataConversion@@SANABVCRect@@HABN1@Z 10010510 f   Conversion.obj
 0001:0000f5b0       ?Bool2Str@CDataConversion@@SA?AV?$CStringT@DV?$StrTraitMFC_DLL@DV?$ChTraitsCRT@D@ATL@@@@@ATL@@H@Z 100105b0 f   Conversion.obj
 0001:0000f620       ?CalcDateFormat@CDataConversion@@SAHHHABV?$CStringT@DV?$StrTraitMFC_DLL@DV?$ChTraitsCRT@D@ATL@@@@@ATL@@HH@Z 10010620 f   Conversion.obj
 0001:0000f990       ?CalcTimeFormat@CDataConversion@@CAHABV?$CStringT@DV?$StrTraitMFC_DLL@DV?$ChTraitsCRT@D@ATL@@@@@ATL@@00_N1@Z 10010990 f   Conversion.obj
 0001:0000f9f0       ?CalcTimeFormat@CDataConversion@@SAHHHABV?$CStringT@DV?$StrTraitMFC_DLL@DV?$ChTraitsCRT@D@ATL@@@@@ATL@@_N@Z 100109f0 f   Conversion.obj
 0001:0000fab0       ?CalcTimeFormat_Future@CDataConversion@@CAHABV?$CStringT@DV?$StrTraitMFC_DLL@DV?$ChTraitsCRT@D@ATL@@@@@ATL@@00_N@Z 10010ab0 f   Conversion.obj
 0001:0000fc40       ?CalcTimeFormat_Past@CDataConversion@@CAHABV?$CStringT@DV?$StrTraitMFC_DLL@DV?$ChTraitsCRT@D@ATL@@@@@ATL@@00_N@Z 10010c40 f   Conversion.obj
 0001:0000fc80       ?CalcTimeFormatforCharge@CDataConversion@@SAHHHABV?$CStringT@DV?$StrTraitMFC_DLL@DV?$ChTraitsCRT@D@ATL@@@@@ATL@@H_N@Z 10010c80 f   Conversion.obj
 0001:0000fdc0       ?ChagneUprightData_Day@CDataConversion@@CAXAAH00@Z 10010dc0 f   Conversion.obj
 0001:0000fe50       ?ChagneUprightData_YearAndMonth@CDataConversion@@CAXAAH0@Z 10010e50 f   Conversion.obj
 0001:0000fec0       ?DoubleToString@CDataConversion@@SA?AV?$CStringT@DV?$StrTraitMFC_DLL@DV?$ChTraitsCRT@D@ATL@@@@@ATL@@ABN@Z 10010ec0 f   Conversion.obj
 0001:0000ffa0       ?DoubleToString@CDataConversion@@SA?AV?$CStringT@DV?$StrTraitMFC_DLL@DV?$ChTraitsCRT@D@ATL@@@@@ATL@@ABNH@Z 10010fa0 f   Conversion.obj
 0001:00010160       ?FindIndex@CDataConversion@@SAHABV?$CStringT@DV?$StrTraitMFC_DLL@DV?$ChTraitsCRT@D@ATL@@@@@ATL@@0H@Z 10011160 f   Conversion.obj
 0001:000101b0       ?GetAdditionDataInFormat@CDataConversion@@CA?AV?$CStringT@DV?$StrTraitMFC_DLL@DV?$ChTraitsCRT@D@ATL@@@@@ATL@@HHABV23@H@Z 100111b0 f   Conversion.obj
 0001:00010400       ?GetAllTime@CDataConversion@@CA_NHHABV?$CStringT@DV?$StrTraitMFC_DLL@DV?$ChTraitsCRT@D@ATL@@@@@ATL@@AAH1111@Z 10011400 f   Conversion.obj
 0001:00010450       ?GetAllTime@CDataConversion@@CA_NHHHHHAAH0AA_N@Z 10011450 f   Conversion.obj
 0001:000104b0       ?GetAllTime_DatePart@CDataConversion@@CA_NHHABV?$CStringT@DV?$StrTraitMFC_DLL@DV?$ChTraitsCRT@D@ATL@@@@@ATL@@AAH1@Z 100114b0 f   Conversion.obj
 0001:000104f0       ?GetAllTime_Hour@CDataConversion@@CA_NHHABV?$CStringT@DV?$StrTraitMFC_DLL@DV?$ChTraitsCRT@D@ATL@@@@@ATL@@AAH1AA_N@Z 100114f0 f   Conversion.obj
 0001:00010580       ?GetAllTime_Minute@CDataConversion@@CA_NHHABV?$CStringT@DV?$StrTraitMFC_DLL@DV?$ChTraitsCRT@D@ATL@@@@@ATL@@AAH1AA_N@Z 10011580 f   Conversion.obj
 0001:000106f0       ?GetAllTime_Second@CDataConversion@@CA_NHHABV?$CStringT@DV?$StrTraitMFC_DLL@DV?$ChTraitsCRT@D@ATL@@@@@ATL@@AAH1AA_N@Z 100116f0 f   Conversion.obj
 0001:00010760       ?GetAllTime_TimePart@CDataConversion@@CA_NHHABV?$CStringT@DV?$StrTraitMFC_DLL@DV?$ChTraitsCRT@D@ATL@@@@@ATL@@AAH111@Z 10011760 f   Conversion.obj
 0001:000109c0       ?GetChangeFormat_NumCharUnit@CDataConversion@@SA?AV?$CStringT@DV?$StrTraitMFC_DLL@DV?$ChTraitsCRT@D@ATL@@@@@ATL@@ABV23@@Z 100119c0 f   Conversion.obj
 0001:00010b60       ?GetChangingPosition@CDataConversion@@CAHHHABN00@Z 10011b60 f   Conversion.obj
 0001:00010bc0       ?GetChangingPosition@CDataConversion@@CAHHHABN_N@Z 10011bc0 f   Conversion.obj
 0001:00010c30       ?GetCompartType@CDataConversion@@SA?AV?$CStringT@DV?$StrTraitMFC_DLL@DV?$ChTraitsCRT@D@ATL@@@@@ATL@@ABV23@00@Z 10011c30 f   Conversion.obj
 0001:00010d40       ?GetComplementColor@CDataConversion@@SAKK@Z 10011d40 f   Conversion.obj
 0001:00010f00       ?GetDataInLimit@CDataConversion@@CAXHAAH0@Z 10011f00 f   Conversion.obj
 0001:00010f20       ?GetDataType@CDataConversion@@SANV?$CStringT@DV?$StrTraitMFC_DLL@DV?$ChTraitsCRT@D@ATL@@@@@ATL@@@Z 10011f20 f   Conversion.obj
 0001:00010fd0       ?GetDecimalDownCount@CDataConversion@@SAHABV?$CStringT@DV?$StrTraitMFC_DLL@DV?$ChTraitsCRT@D@ATL@@@@@ATL@@_N@Z 10011fd0 f   Conversion.obj
 0001:00011150       ?GetHorizontalPoint@CDataConversion@@SA?AVCPoint@@ABVCRect@@HABN111@Z 10012150 f   Conversion.obj
 0001:00011250       ?GetHorizontalPoint_X@CDataConversion@@SAHABVCRect@@ABN11@Z 10012250 f   Conversion.obj
 0001:000112e0       ?GetHourTime_Future@CDataConversion@@CAXHH_NAAH1@Z 100122e0 f   Conversion.obj
 0001:00011340       ?GetLeftToTrimDataIndex@CDataConversion@@SA?AV?$CStringT@DV?$StrTraitMFC_DLL@DV?$ChTraitsCRT@D@ATL@@@@@ATL@@ABV23@0H_N@Z 10012340 f   Conversion.obj
 0001:00011390       ?GetMidToTrimDataEndIndex@CDataConversion@@SA?AV?$CStringT@DV?$StrTraitMFC_DLL@DV?$ChTraitsCRT@D@ATL@@@@@ATL@@ABV23@0H_N1@Z 10012390 f   Conversion.obj
 0001:000114b0       ?GetMidToTrimDataIndex@CDataConversion@@SA?AV?$CStringT@DV?$StrTraitMFC_DLL@DV?$ChTraitsCRT@D@ATL@@@@@ATL@@ABV23@00H_N@Z 100124b0 f   Conversion.obj
 0001:00011550       ?GetMidToTrimDataIndex@CDataConversion@@SA?AV?$CStringT@DV?$StrTraitMFC_DLL@DV?$ChTraitsCRT@D@ATL@@@@@ATL@@ABV23@0H_N@Z 10012550 f   Conversion.obj
 0001:00011660       ?GetMidToTrimDataStartIndex@CDataConversion@@SA?AV?$CStringT@DV?$StrTraitMFC_DLL@DV?$ChTraitsCRT@D@ATL@@@@@ATL@@ABV23@0H_N1@Z 10012660 f   Conversion.obj
 0001:00011700       ?GetMonthFullDay@CDataConversion@@CAHHHH@Z 10012700 f   Conversion.obj
 0001:00011750       ?GetPacketDataIndex_Date@CDataConversion@@SAHABVCRect@@ABVCPoint@@HH@Z 10012750 f   Conversion.obj
 0001:000117b0       ?GetRealDailyInTimeFormat@CDataConversion@@CAHHABV?$CStringT@DV?$StrTraitMFC_DLL@DV?$ChTraitsCRT@D@ATL@@@@@ATL@@@Z 100127b0 f   Conversion.obj
 0001:00011940       ?GetRealDailyInTimeFormat@CDataConversion@@CA_NHAAH00@Z 10012940 f   Conversion.obj
 0001:000119b0       ?GetRealWidth@CDataConversion@@SANABNH@Z 100129b0 f   Conversion.obj
 0001:000119f0       ?GetSpecialTime@CDataConversion@@SA_NABV?$CStringT@DV?$StrTraitMFC_DLL@DV?$ChTraitsCRT@D@ATL@@@@@ATL@@0AAV23@@Z 100129f0 f   Conversion.obj
 0001:00011ac0       ?GetStringData@CDataConversion@@SA?AV?$CStringT@DV?$StrTraitMFC_DLL@DV?$ChTraitsCRT@D@ATL@@@@@ATL@@AAV23@ABV23@1_N@Z 10012ac0 f   Conversion.obj
 0001:00011bc0       ?GetStringData@CDataConversion@@SA?AV?$CStringT@DV?$StrTraitMFC_DLL@DV?$ChTraitsCRT@D@ATL@@@@@ATL@@AAV23@ABV23@H@Z 10012bc0 f   Conversion.obj
 0001:00011d00       ?GetStringData@CDataConversion@@SA?AV?$CStringT@DV?$StrTraitMFC_DLL@DV?$ChTraitsCRT@D@ATL@@@@@ATL@@AAV23@ABV23@_N@Z 10012d00 f   Conversion.obj
 0001:00011e40       ?GetStringDataCount@CDataConversion@@SAHABV?$CStringT@DV?$StrTraitMFC_DLL@DV?$ChTraitsCRT@D@ATL@@@@@ATL@@0@Z 10012e40 f   Conversion.obj
 0001:00011f00       ?GetStringFormatTrans@CDataConversion@@SA?AV?$CStringT@DV?$StrTraitMFC_DLL@DV?$ChTraitsCRT@D@ATL@@@@@ATL@@ABV23@000@Z 10012f00 f   Conversion.obj
 0001:00012080       ?GetStringFormatTrans@CDataConversion@@SA?AV?$CStringT@DV?$StrTraitMFC_DLL@DV?$ChTraitsCRT@D@ATL@@@@@ATL@@ABV23@0@Z 10013080 f   Conversion.obj
 0001:000124a0       ?GetStringFormatTransCutoff@CDataConversion@@SAHABN0AAV?$CStringT@DV?$StrTraitMFC_DLL@DV?$ChTraitsCRT@D@ATL@@@@@ATL@@1@Z 100134a0 f   Conversion.obj
 0001:00012510       ?GetStringFormatTransCutoff@CDataConversion@@SAHABNABV?$CStringT@DV?$StrTraitMFC_DLL@DV?$ChTraitsCRT@D@ATL@@@@@ATL@@AAV23@2@Z 10013510 f   Conversion.obj
 0001:00012a60       ?GetStringFormatbyCompart@CDataConversion@@SA?AV?$CStringT@DV?$StrTraitMFC_DLL@DV?$ChTraitsCRT@D@ATL@@@@@ATL@@ABV23@AAV23@001@Z 10013a60 f   Conversion.obj
 0001:00012e30       ?GetStringThousandFormat@CDataConversion@@SA?AV?$CStringT@DV?$StrTraitMFC_DLL@DV?$ChTraitsCRT@D@ATL@@@@@ATL@@ABN0@Z 10013e30 f   Conversion.obj
 0001:000130a0       ?GetStringThousandFormat@CDataConversion@@SA?AV?$CStringT@DV?$StrTraitMFC_DLL@DV?$ChTraitsCRT@D@ATL@@@@@ATL@@ABV23@@Z 100140a0 f   Conversion.obj
 0001:00013390       ?GetTimeData@CDataConversion@@CA_NABV?$CStringT@DV?$StrTraitMFC_DLL@DV?$ChTraitsCRT@D@ATL@@@@@ATL@@000HAAH1@Z 10014390 f   Conversion.obj
 0001:00013470       ?GetTimeData@CDataConversion@@CA_NABV?$CStringT@DV?$StrTraitMFC_DLL@DV?$ChTraitsCRT@D@ATL@@@@@ATL@@00AAH1111111@Z 10014470 f   Conversion.obj
 0001:00013650       ?GetTimeInFormat@CDataConversion@@CAHABV?$CStringT@DV?$StrTraitMFC_DLL@DV?$ChTraitsCRT@D@ATL@@@@@ATL@@HHHH@Z 10014650 f   Conversion.obj
 0001:000137f0       ?GetVerticalPoint@CDataConversion@@SA?AVCPoint@@ABVCRect@@ABN11111@Z 100147f0 f   Conversion.obj
 0001:000138e0       ?GetVerticalPoint@CDataConversion@@SA?AVCPoint@@ABVCRect@@HABN111_N@Z 100148e0 f   Conversion.obj
 0001:000139d0       ?GetVerticalPointBox@CDataConversion@@SA?AVCPoint@@ABVCRect@@HABN111_N@Z 100149d0 f   Conversion.obj
 0001:00013ac0       ?InsertString@CDataConversion@@SA?AV?$CStringT@DV?$StrTraitMFC_DLL@DV?$ChTraitsCRT@D@ATL@@@@@ATL@@ABV23@0HH@Z 10014ac0 f   Conversion.obj
 0001:00013bf0       ?IntToString@CDataConversion@@SA?AV?$CStringT@DV?$StrTraitMFC_DLL@DV?$ChTraitsCRT@D@ATL@@@@@ATL@@H@Z 10014bf0 f   Conversion.obj
 0001:00013c60       ?IntToString@CDataConversion@@SA?AV?$CStringT@DV?$StrTraitMFC_DLL@DV?$ChTraitsCRT@D@ATL@@@@@ATL@@HH@Z 10014c60 f   Conversion.obj
 0001:00013e00       ?InvertGraphDataPt@CDataConversion@@SAHABVCRect@@H@Z 10014e00 f   Conversion.obj
 0001:00013e30       ?IsCalUprightData@CDataConversion@@CA_NHHH@Z 10014e30 f   Conversion.obj
 0001:00013e90       ?IsCalcTimeFormatforCharge@CDataConversion@@CA_NHHABV?$CStringT@DV?$StrTraitMFC_DLL@DV?$ChTraitsCRT@D@ATL@@@@@ATL@@H@Z 10014e90 f   Conversion.obj
 0001:00013f80       ?IsPluse@CDataConversion@@CA_NABV?$CStringT@DV?$StrTraitMFC_DLL@DV?$ChTraitsCRT@D@ATL@@@@@ATL@@@Z 10014f80 f   Conversion.obj
 0001:00013fd0       ?NormalNumberString@CDataConversion@@SA?AV?$CStringT@DV?$StrTraitMFC_DLL@DV?$ChTraitsCRT@D@ATL@@@@@ATL@@ABV23@@Z 10014fd0 f   Conversion.obj
 0001:00014090       ?OnPickoutDaily@CDataConversion@@CA_NHABV?$CStringT@DV?$StrTraitMFC_DLL@DV?$ChTraitsCRT@D@ATL@@@@@ATL@@AAH11@Z 10015090 f   Conversion.obj
 0001:000141d0       ?OnPickoutDate@CDataConversion@@CA_NHABV?$CStringT@DV?$StrTraitMFC_DLL@DV?$ChTraitsCRT@D@ATL@@@@@ATL@@HAAH11@Z 100151d0 f   Conversion.obj
 0001:000144b0       ?OnPickoutMonthly@CDataConversion@@CA_NHABV?$CStringT@DV?$StrTraitMFC_DLL@DV?$ChTraitsCRT@D@ATL@@@@@ATL@@AAH11@Z 100154b0 f   Conversion.obj
 0001:00014540       ?OnPickoutTime@CDataConversion@@CA_NHHABV?$CStringT@DV?$StrTraitMFC_DLL@DV?$ChTraitsCRT@D@ATL@@@@@ATL@@HAAH1111@Z 10015540 f   Conversion.obj
 0001:00014790       ?OnPickoutWeekley@CDataConversion@@CA_NHABV?$CStringT@DV?$StrTraitMFC_DLL@DV?$ChTraitsCRT@D@ATL@@@@@ATL@@AAH11@Z 10015790 f   Conversion.obj
 0001:00014880       ?RGB2Str@CDataConversion@@SA?AV?$CStringT@DV?$StrTraitMFC_DLL@DV?$ChTraitsCRT@D@ATL@@@@@ATL@@K@Z 10015880 f   Conversion.obj
 0001:00014910       ?RelativeToAbsolute@CDataConversion@@SA?AVCPoint@@ABVCRect@@HHABN1H1@Z 10015910 f   Conversion.obj
 0001:00014b90       ?RelativeToAbsoluteInDisplayIndex@CDataConversion@@CA?AVCPoint@@ABVCRect@@ABN11H1@Z 10015b90 f   Conversion.obj
 0001:00014c70       ?RelativeToAbsoluteInDisplayIndex_X@CDataConversion@@CAHABVCRect@@ABNH_N@Z 10015c70 f   Conversion.obj
 0001:00014cf0       ?RelativeToAbsoluteInDisplayIndex_Y@CDataConversion@@CAHABVCRect@@ABN11@Z 10015cf0 f   Conversion.obj
 0001:00014d60       ?RelativeToAbsoluteOutDisplayIndex@CDataConversion@@CA?AVCPoint@@ABVCRect@@ABN111HHH1@Z 10015d60 f   Conversion.obj
 0001:00014eb0       ?RelativeToAbsoluteOutDisplayIndex_X@CDataConversion@@CAHABVCRect@@ABNHHH@Z 10015eb0 f   Conversion.obj
 0001:00014f20       ?RelativeToAbsoluteOutDisplayIndex_Y@CDataConversion@@CAHABVCRect@@ABN111@Z 10015f20 f   Conversion.obj
 0001:00014ff0       ?RelativeToAbsolute_X@CDataConversion@@SAHABVCRect@@HHH_N@Z 10015ff0 f   Conversion.obj
 0001:000150b0       ?RelativeToAbsolute_Y@CDataConversion@@SAHABVCRect@@ABN11@Z 100160b0 f   Conversion.obj
 0001:00015110       ?SelectClipRegion@CDataConversion@@SAXPAVCDC@@@Z 10016110 f   Conversion.obj
 0001:00015120       ?SelectClipRegion@CDataConversion@@SAXPAVCDC@@ABVCRect@@@Z 10016120 f   Conversion.obj
 0001:000151b0       ?Str2RGB@CDataConversion@@SAKABV?$CStringT@DV?$StrTraitMFC_DLL@DV?$ChTraitsCRT@D@ATL@@@@@ATL@@@Z 100161b0 f   Conversion.obj
 0001:00015250       ?atob@CDataConversion@@SA_NH@Z 10016250 f   Conversion.obj
 0001:00015260       ?atob@CDataConversion@@SA_NPBD@Z 10016260 f   Conversion.obj
 0001:00015280       ?atod@CDataConversion@@SANM@Z 10016280 f   Conversion.obj
 0001:000152d0       ___local_stdio_printf_options 100162d0 f i Conversion.obj
 0001:000152e0       ___local_stdio_scanf_options 100162e0 f i Conversion.obj
 0001:000152f0       _sprintf                   100162f0 f i Conversion.obj
 0001:00015330       _sscanf                    10016330 f i Conversion.obj
 0001:00015360       ?Angle@CMath@@SANABN@Z     10016360 f   DataMath.obj
 0001:000153e0       ?Center@CMath@@SAHHH@Z     100163e0 f   DataMath.obj
 0001:00015430       ?Distance@CMath@@SANABVCPoint@@0@Z 10016430 f   DataMath.obj
 0001:000154c0       ?Divide10@CMath@@SANABNH@Z 100164c0 f   DataMath.obj
 0001:00015540       ?Exp@CMath@@SANABN@Z       10016540 f   DataMath.obj
 0001:000155a0       ?Floor@CMath@@SAHHH@Z      100165a0 f   DataMath.obj
 0001:00015610       ?Floor@CMath@@SANABNH@Z    10016610 f   DataMath.obj
 0001:00015690       ?Log@CMath@@SANABN@Z       10016690 f   DataMath.obj
 0001:000156f0       ?Modulus@CMath@@SANABN0@Z  100166f0 f   DataMath.obj
 0001:00015740       ?NumberCount@CMath@@SAHH@Z 10016740 f   DataMath.obj
 0001:000157b0       ?Power@CMath@@SAHHH@Z      100167b0 f   DataMath.obj
 0001:000157f0       ?Round@CMath@@SAHHH@Z      100167f0 f   DataMath.obj
 0001:00015870       ?Round@CMath@@SAHN@Z       10016870 f   DataMath.obj
 0001:000158a0       ?Round@CMath@@SANABNH@Z    100168a0 f   DataMath.obj
 0001:00015950       ?Round_Double@CMath@@SANABN@Z 10016950 f   DataMath.obj
 0001:00015980       ?TanD@CMath@@SANABN@Z      10016980 f   DataMath.obj
 0001:00015a40       ?TanI@CMath@@SAHH@Z        10016a40 f   DataMath.obj
 0001:00015af0       ??0CRealChartData@@QAE@XZ  10016af0 f   RealChartData.obj
 0001:00015b00       ??1CRealChartData@@UAE@XZ  10016b00 f   RealChartData.obj
 0001:00015b10       ??_ECRealChartData@@UAEPAXI@Z 10016b10 f i RealChartData.obj
 0001:00015b10       ??_GCRealChartData@@UAEPAXI@Z 10016b10 f i RealChartData.obj
 0001:00015b40       ??$SerializeElements@VCRowViewData@@@@YGXAAVCArchive@@PAVCRowViewData@@H@Z 10016b40 f i ViewData.obj
 0001:00015be0       ??$SerializeElements@VCSubGraphViewData@@@@YGXAAVCArchive@@PAVCSubGraphViewData@@H@Z 10016be0 f i ViewData.obj
 0001:00015c80       ??0?$CList@VCRowViewData@@AAV1@@@QAE@H@Z 10016c80 f i ViewData.obj
 0001:00015cc0       ??0?$CList@VCSubGraphViewData@@AAV1@@@QAE@H@Z 10016cc0 f i ViewData.obj
 0001:00015d00       ??0CColumnViewData@@QAE@ABV0@@Z 10016d00 f   ViewData.obj
 0001:00015de0       ??0CColumnViewData@@QAE@XZ 10016de0 f   ViewData.obj
 0001:00015e20       ??0CRowViewData@@QAE@ABV0@@Z 10016e20 f   ViewData.obj
 0001:00015ed0       ??0CRowViewData@@QAE@XZ    10016ed0 f   ViewData.obj
 0001:00015f60       ??0CSubGraphViewData@@QAE@W4GRAPHTYPE@CGraphBaseData@@ABVCGraphStyle@@ABV?$CStringT@DV?$StrTraitMFC_DLL@DV?$ChTraitsCRT@D@ATL@@@@@ATL@@2@Z 10016f60 f   ViewData.obj
 0001:00015fd0       ??0CSubGraphViewData@@QAE@XZ 10016fd0 f   ViewData.obj
 0001:00016040       ??1?$CList@VCRowViewData@@AAV1@@@UAE@XZ 10017040 f i ViewData.obj
 0001:00016090       ??1?$CList@VCSubGraphViewData@@AAV1@@@UAE@XZ 10017090 f i ViewData.obj
 0001:000160e0       ??1CColumnViewData@@QAE@XZ 100170e0 f i ViewData.obj
 0001:00016130       ??1CRowViewData@@QAE@XZ    10017130 f i ViewData.obj
 0001:00016190       ??1CSubGraphViewData@@QAE@XZ 10017190 f i ViewData.obj
 0001:000161b0       ??1CSubGraphViewDataList@@QAE@XZ 100171b0 f i ViewData.obj
 0001:00016200       ??4CColumnViewData@@QAEAAV0@ABV0@@Z 10017200 f   ViewData.obj
 0001:000162b0       ??4CRowViewData@@QAEAAV0@ABV0@@Z 100172b0 f   ViewData.obj
 0001:00016340       ??4CSubGraphViewData@@QAEAAV0@ABV0@@Z 10017340 f   ViewData.obj
 0001:000163f0       ??4CSubGraphViewDataList@@QAEAAV0@ABV0@@Z 100173f0 f   ViewData.obj
 0001:000164d0       ??_E?$CList@VCRowViewData@@AAV1@@@UAEPAXI@Z 100174d0 f i ViewData.obj
 0001:000164d0       ??_G?$CList@VCRowViewData@@AAV1@@@UAEPAXI@Z 100174d0 f i ViewData.obj
 0001:00016560       ??_G?$CList@VCSubGraphViewData@@AAV1@@@UAEPAXI@Z 10017560 f i ViewData.obj
 0001:00016560       ??_E?$CList@VCSubGraphViewData@@AAV1@@@UAEPAXI@Z 10017560 f i ViewData.obj
 0001:000165f0       ?AddTail@?$CList@VCColumnViewData@@AAV1@@@QAEPAU__POSITION@@AAVCColumnViewData@@@Z 100175f0 f i ViewData.obj
 0001:000166b0       ?AddTail@?$CList@VCRowViewData@@AAV1@@@QAEPAU__POSITION@@AAVCRowViewData@@@Z 100176b0 f i ViewData.obj
 0001:00016750       ?AddTail@?$CList@VCSubGraphViewData@@AAV1@@@QAEPAU__POSITION@@AAVCSubGraphViewData@@@Z 10017750 f i ViewData.obj
 0001:000168b0       ?AddTail@CColumnViewData@@QAEXVCRowViewData@@@Z 100178b0 f   ViewData.obj
 0001:00016920       ?AddTail@CSubGraphViewDataList@@QAEXVCSubGraphViewData@@@Z 10017920 f   ViewData.obj
 0001:00016980       ?AddTail@CViewData@@QAEXVCColumnViewData@@@Z 10017980 f   ViewData.obj
 0001:000169e0       ?FindIndex@?$CList@VCColumnViewData@@AAV1@@@QBEPAU__POSITION@@H@Z 100179e0 f i ViewData.obj
 0001:00016a10       ?FindIndex@?$CList@VCRowViewData@@AAV1@@@QBEPAU__POSITION@@H@Z 10017a10 f i ViewData.obj
 0001:00016a40       ?FindIndex@?$CList@VCSubGraphViewData@@AAV1@@@QBEPAU__POSITION@@H@Z 10017a40 f i ViewData.obj
 0001:00016a70       ?GetAt@CColumnViewData@@QAEAAVCRowViewData@@H@Z 10017a70 f   ViewData.obj
 0001:00016aa0       ?GetAt@CColumnViewData@@QAE_NHAAVCRowViewData@@@Z 10017aa0 f   ViewData.obj
 0001:00016af0       ?GetAt@CColumnViewData@@QBE?AVCRowViewData@@H@Z 10017af0 f   ViewData.obj
 0001:00016bb0       ?GetAt@CSubGraphViewDataList@@QAEAAVCSubGraphViewData@@H@Z 10017bb0 f   ViewData.obj
 0001:00016be0       ?GetAt@CSubGraphViewDataList@@QBE?AVCSubGraphViewData@@H@Z 10017be0 f   ViewData.obj
 0001:00016c70       ?GetAt@CViewData@@QAEAAVCColumnViewData@@H@Z 10017c70 f   ViewData.obj
 0001:00016ca0       ?GetAt@CViewData@@QAEAAVCRowViewData@@HH@Z 10017ca0 f   ViewData.obj
 0001:00016cf0       ?GetAt@CViewData@@QAE_NHAAVCColumnViewData@@@Z 10017cf0 f   ViewData.obj
 0001:00016d30       ?GetAt@CViewData@@QAE_NHHAAVCRowViewData@@@Z 10017d30 f   ViewData.obj
 0001:00016e70       ?GetAt@CViewData@@QBE?AVCColumnViewData@@H@Z 10017e70 f   ViewData.obj
 0001:00016ec0       ?GetColumnViewDataCount@CViewData@@QBEHXZ 10017ec0 f   ViewData.obj
 0001:00016ed0       ?GetColumnViewDataList@CViewData@@QAEAAV?$CList@VCColumnViewData@@AAV1@@@XZ 10017ed0 f   ViewData.obj
 0001:00016ee0       ?GetCount@CColumnViewData@@QBEHXZ 10017ee0 f   ViewData.obj
 0001:00016ef0       ?GetCount@CSubGraphViewDataList@@QBEHXZ 10017ef0 f   ViewData.obj
 0001:00016f00       ?GetDrawingGraphRegion@CRowViewData@@QBE?AVCRect@@XZ 10017f00 f   ViewData.obj
 0001:00016f20       ?GetGraphRegion@CRowViewData@@QBE?AVCRect@@XZ 10017f20 f   ViewData.obj
 0001:00016f30       ?GetGraphStyle@CSubGraphViewData@@QBE?AVCGraphStyle@@XZ 10017f30 f   ViewData.obj
 0001:00016f40       ?GetGraphType@CSubGraphViewData@@QBE?AW4GRAPHTYPE@CGraphBaseData@@XZ 10017f40 f   ViewData.obj
 0001:00016f50       ?GetHeadPosition@CSubGraphViewDataList@@QBEPAU__POSITION@@XZ 10017f50 f   ViewData.obj
 0001:00016f60       ?GetHorzScaleName@CRowViewData@@QBE?AV?$CStringT@DV?$StrTraitMFC_DLL@DV?$ChTraitsCRT@D@ATL@@@@@ATL@@XZ 10017f60 f   ViewData.obj
 0001:00016f80       ?GetNext@CSubGraphViewDataList@@QAEAAVCSubGraphViewData@@AAPAU__POSITION@@@Z 10017f80 f   ViewData.obj
 0001:00016fa0       ?GetPacketNames@CSubGraphViewData@@QBE?AV?$CStringT@DV?$StrTraitMFC_DLL@DV?$ChTraitsCRT@D@ATL@@@@@ATL@@XZ 10017fa0 f   ViewData.obj
 0001:00016fc0       ?GetRowViewDataCount@CViewData@@QBEHH@Z 10017fc0 f   ViewData.obj
 0001:00017060       ?GetRowViewDataList@CColumnViewData@@QBEABV?$CList@VCRowViewData@@AAV1@@@XZ 10018060 f   ViewData.obj
 0001:00017070       ?GetSubGraphViewData@CRowViewData@@QAEAAVCSubGraphViewData@@H@Z 10018070 f   ViewData.obj
 0001:000170a0       ?GetSubGraphViewDataCount@CRowViewData@@QBEHXZ 100180a0 f   ViewData.obj
 0001:000170b0       ?GetSubGraphViewDataList@CRowViewData@@QAEAAVCSubGraphViewDataList@@XZ 100180b0 f   ViewData.obj
 0001:000170c0       ?GetSubGraphViewDataList@CRowViewData@@QBEABVCSubGraphViewDataList@@XZ 100180c0 f   ViewData.obj
 0001:000170d0       ?GetSubGraphViewDataList@CSubGraphViewDataList@@QAEAAV?$CList@VCSubGraphViewData@@AAV1@@@XZ 100180d0 f   ViewData.obj
 0001:000170e0       ?GetSubGraphViewDataList@CSubGraphViewDataList@@QBEABV?$CList@VCSubGraphViewData@@AAV1@@@XZ 100180e0 f   ViewData.obj
 0001:000170f0       ?GetTitle@CSubGraphViewData@@QBE?AV?$CStringT@DV?$StrTraitMFC_DLL@DV?$ChTraitsCRT@D@ATL@@@@@ATL@@XZ 100180f0 f   ViewData.obj
 0001:00017110       ?NewNode@?$CList@VCColumnViewData@@AAV1@@@IAEPAUCNode@1@PAU21@0@Z 10018110 f i ViewData.obj
 0001:000171b0       ?NewNode@?$CList@VCRowViewData@@AAV1@@@IAEPAUCNode@1@PAU21@0@Z 100181b0 f i ViewData.obj
 0001:00017290       ?NewNode@?$CList@VCSubGraphViewData@@AAV1@@@IAEPAUCNode@1@PAU21@0@Z 10018290 f i ViewData.obj
 0001:00017360       ?RemoveAll@?$CList@VCColumnViewData@@AAV1@@@QAEXXZ 10018360 f i ViewData.obj
 0001:00017400       ?RemoveAll@?$CList@VCRowViewData@@AAV1@@@QAEXXZ 10018400 f i ViewData.obj
 0001:000174a0       ?RemoveAll@?$CList@VCSubGraphViewData@@AAV1@@@QAEXXZ 100184a0 f i ViewData.obj
 0001:00017500       ?RemoveAll@CColumnViewData@@QAEXXZ 10018500 f   ViewData.obj
 0001:00017510       ?RemoveAll@CRowViewData@@QAEXXZ 10018510 f   ViewData.obj
 0001:00017520       ?RemoveAll@CSubGraphViewDataList@@QAEXXZ 10018520 f   ViewData.obj
 0001:00017530       ?RemoveAll@CViewData@@QAEXXZ 10018530 f   ViewData.obj
 0001:00017540       ?Serialize@?$CList@VCRowViewData@@AAV1@@@UAEXAAVCArchive@@@Z 10018540 f i ViewData.obj
 0001:00017740       ?Serialize@?$CList@VCSubGraphViewData@@AAV1@@@UAEXAAVCArchive@@@Z 10018740 f i ViewData.obj
 0001:00017930       ?SetHorzScaleName@CRowViewData@@QAEXABV?$CStringT@DV?$StrTraitMFC_DLL@DV?$ChTraitsCRT@D@ATL@@@@@ATL@@@Z 10018930 f   ViewData.obj
 0001:00017940       ?SetRegion@CRowViewData@@QAEXABVCRect@@0@Z 10018940 f   ViewData.obj
 0001:00017960       ??0CHogaData@@QAE@XZ       10018960 f   HogaData.obj
 0001:000179f0       ??1CHogaData@@UAE@XZ       100189f0 f   HogaData.obj
 0001:00017a00       ??_GCHogaData@@UAEPAXI@Z   10018a00 f i HogaData.obj
 0001:00017a00       ??_ECHogaData@@UAEPAXI@Z   10018a00 f i HogaData.obj
 0001:00017a50       ??1CRegKey@ATL@@QAE@XZ     10018a50 f i Util.obj
 0001:00017a70       ?AddDashToAccount@CUtil@@QAEXPBDAAV?$CStringT@DV?$StrTraitMFC_DLL@DV?$ChTraitsCRT@D@ATL@@@@@ATL@@@Z 10018a70 f   Util.obj
 0001:00017af0       ?AdjustMask@CUtil@@QAE?AV?$CStringT@DV?$StrTraitMFC_DLL@DV?$ChTraitsCRT@D@ATL@@@@@ATL@@V23@0@Z 10018af0 f   Util.obj
 0001:00017eb0       ?AdjustMask@CUtil@@QAE?AV?$CStringT@DV?$StrTraitMFC_DLL@DV?$ChTraitsCRT@D@ATL@@@@@ATL@@V23@H@Z 10018eb0 f   Util.obj
 0001:00017f60       ?GetComma@CUtil@@QAE?AV?$CStringT@DV?$StrTraitMFC_DLL@DV?$ChTraitsCRT@D@ATL@@@@@ATL@@PBD@Z 10018f60 f   Util.obj
 0001:00018330       ?GetHogaTick@CUtil@@QAEHHH@Z 10019330 f   Util.obj
 0001:000183f0       ?GetMakeText@CUtil@@QAE?AV?$CStringT@DV?$StrTraitMFC_DLL@DV?$ChTraitsCRT@D@ATL@@@@@ATL@@DH@Z 100193f0 f   Util.obj
 0001:00018470       ?GetNumber@CUtil@@QAE?AV?$CStringT@DV?$StrTraitMFC_DLL@DV?$ChTraitsCRT@D@ATL@@@@@ATL@@PBD@Z 10019470 f   Util.obj
 0001:00018530       ?GetOnlyNumber@CUtil@@QAE?AV?$CStringT@DV?$StrTraitMFC_DLL@DV?$ChTraitsCRT@D@ATL@@@@@ATL@@PBD@Z 10019530 f   Util.obj
 0001:000185c0       ?GetPre_N_NextHoga@CUtil@@QAEXHJPAJ0@Z 100195c0 f   Util.obj
 0001:000187d0       ?GetPriceUnit@CUtil@@QAE?AV?$CStringT@DV?$StrTraitMFC_DLL@DV?$ChTraitsCRT@D@ATL@@@@@ATL@@PBD@Z 100197d0 f   Util.obj
 0001:00018a60       ?GetPriceUnitMan@CUtil@@QAE?AV?$CStringT@DV?$StrTraitMFC_DLL@DV?$ChTraitsCRT@D@ATL@@@@@ATL@@PBD@Z 10019a60 f   Util.obj
 0001:00018bd0       ?GetRegKey@CUtil@@QAEHPBD0AAV?$CStringT@DV?$StrTraitMFC_DLL@DV?$ChTraitsCRT@D@ATL@@@@@ATL@@@Z 10019bd0 f   Util.obj
 0001:00018d10       ?GetRuntimeClass@CUtil@@UBEPAUCRuntimeClass@@XZ 10019d10 f   Util.obj
 0001:00018d20       ?GetSignSimbol@CUtil@@QAE?AV?$CStringT@DV?$StrTraitMFC_DLL@DV?$ChTraitsCRT@D@ATL@@@@@ATL@@H@Z 10019d20 f   Util.obj
 0001:00018dc0       ?GetString@CUtil@@QAEHAAV?$CStringT@DV?$StrTraitMFC_DLL@DV?$ChTraitsCRT@D@ATL@@@@@ATL@@0D@Z 10019dc0 f   Util.obj
 0001:00018e80       ?GetThisClass@CUtil@@SGPAUCRuntimeClass@@XZ 10019e80 f   Util.obj
 0001:00018e90       ?GetVolUnit@CUtil@@QAE?AV?$CStringT@DV?$StrTraitMFC_DLL@DV?$ChTraitsCRT@D@ATL@@@@@ATL@@PBD@Z 10019e90 f   Util.obj
 0001:00019150       ?GetWord@CUtil@@QAEXPAD0D@Z 1001a150 f   Util.obj
 0001:000191b0       ?IsNumber@CUtil@@QAEHI@Z   1001a1b0 f   Util.obj
 0001:000191d0       ?IsOnlyNumber@CUtil@@QAEHPBD@Z 1001a1d0 f   Util.obj
 0001:00019210       ?IsSign@CUtil@@QAEHPBD@Z   1001a210 f   Util.obj
 0001:00019230       ?Remove@CUtil@@QAEHAAV?$CStringT@DV?$StrTraitMFC_DLL@DV?$ChTraitsCRT@D@ATL@@@@@ATL@@DH@Z 1001a230 f   Util.obj
 0001:000193c0       ?RemoveAll@CUtil@@QAEHAAV?$CStringT@DV?$StrTraitMFC_DLL@DV?$ChTraitsCRT@D@ATL@@@@@ATL@@D@Z 1001a3c0 f   Util.obj
 0001:00019480       ?RemoveChar@CUtil@@QAE?AV?$CStringT@DV?$StrTraitMFC_DLL@DV?$ChTraitsCRT@D@ATL@@@@@ATL@@PBDD@Z 1001a480 f   Util.obj
 0001:00019500       ?RemoveCharAll@CUtil@@QAEXAAV?$CStringT@DV?$StrTraitMFC_DLL@DV?$ChTraitsCRT@D@ATL@@@@@ATL@@D@Z 1001a500 f   Util.obj
 0001:00019580       ?RemoveFront@CUtil@@QAEPADPBDD@Z 1001a580 f   Util.obj
 0001:000195e0       ?SetLengthString@CUtil@@QAE?AV?$CStringT@DV?$StrTraitMFC_DLL@DV?$ChTraitsCRT@D@ATL@@@@@ATL@@PBDH@Z 1001a5e0 f   Util.obj
 0001:00019650       ?TrimRight@CUtil@@QAEXPAD@Z 1001a650 f   Util.obj
 0001:000196b0       ?ValidNumber@CUtil@@QAEHPBD@Z 1001a6b0 f   Util.obj
 0001:00019820       ?_GetBaseClass@CUtil@@KGPAUCRuntimeClass@@XZ 1001a820 f   Util.obj
 0001:00019830       ??0CILButton@@QAE@XZ       1001a830 f   ILButton.obj
 0001:00019930       ??1CFont@@UAE@XZ           1001a930 f i ILButton.obj
 0001:00019940       ??1CILButton@@UAE@XZ       1001a940 f   ILButton.obj
 0001:000199d0       ??_GCButton@@UAEPAXI@Z     1001a9d0 f i ILButton.obj
 0001:000199d0       ??_ECButton@@UAEPAXI@Z     1001a9d0 f i ILButton.obj
 0001:00019a10       ??_GCFont@@UAEPAXI@Z       1001aa10 f i ILButton.obj
 0001:00019a10       ??_ECFont@@UAEPAXI@Z       1001aa10 f i ILButton.obj
 0001:00019a50       ??_GCILButton@@UAEPAXI@Z   1001aa50 f i ILButton.obj
 0001:00019a50       ??_ECILButton@@UAEPAXI@Z   1001aa50 f i ILButton.obj
 0001:00019b20       ?DrawItem@CILButton@@UAEXPAUtagDRAWITEMSTRUCT@@@Z 1001ab20 f   ILButton.obj
 0001:00019d20       ?FP_vSetImage@CILButton@@QAEXPAVCImageList@@HHHV?$CStringT@DV?$StrTraitMFC_DLL@DV?$ChTraitsCRT@D@ATL@@@@@ATL@@HHH@Z 1001ad20 f   ILButton.obj
 0001:00019dd0       ?FP_vSetToolTipText@CILButton@@QAEXV?$CStringT@DV?$StrTraitMFC_DLL@DV?$ChTraitsCRT@D@ATL@@@@@ATL@@@Z 1001add0 f   ILButton.obj
 0001:00019e80       ?GetBtnTitle@CILButton@@QAE?AV?$CStringT@DV?$StrTraitMFC_DLL@DV?$ChTraitsCRT@D@ATL@@@@@ATL@@XZ 1001ae80 f   ILButton.obj
 0001:00019ea0       ?GetCheck@CILButton@@QAEHXZ 1001aea0 f   ILButton.obj
 0001:00019eb0       ?GetMessageMap@CILButton@@MBEPBUAFX_MSGMAP@@XZ 1001aeb0 f   ILButton.obj
 0001:00019ec0       ?GetThisMessageMap@CILButton@@KGPBUAFX_MSGMAP@@XZ 1001aec0 f   ILButton.obj
 0001:00019ed0       ?OnCreate@CILButton@@IAEHPAUtagCREATESTRUCTA@@@Z 1001aed0 f   ILButton.obj
 0001:00019f80       ?OnDestroy@CILButton@@IAEXXZ 1001af80 f   ILButton.obj
 0001:00019fa0       ?OnEraseBkgnd@CILButton@@IAEHPAVCDC@@@Z 1001afa0 f   ILButton.obj
 0001:00019fb0       ?OnLButtonDown@CILButton@@IAEXIVCPoint@@@Z 1001afb0 f   ILButton.obj
 0001:00019fd0       ?OnLButtonUp@CILButton@@IAEXIVCPoint@@@Z 1001afd0 f   ILButton.obj
 0001:0001a050       ?OnMouseMove@CILButton@@IAEXIVCPoint@@@Z 1001b050 f   ILButton.obj
 0001:0001a110       ?OnNcLButtonUp@CILButton@@IAEXIVCPoint@@@Z 1001b110 f   ILButton.obj
 0001:0001a120       ?OnTimer@CILButton@@IAEXI@Z 1001b120 f   ILButton.obj
 0001:0001a1d0       ?PreSubclassWindow@CILButton@@MAEXXZ 1001b1d0 f   ILButton.obj
 0001:0001a1f0       ?RelayEvent@CILButton@@QAEXIIJ@Z 1001b1f0 f   ILButton.obj
 0001:0001a250       ?SetBtnTitle@CILButton@@QAEXV?$CStringT@DV?$StrTraitMFC_DLL@DV?$ChTraitsCRT@D@ATL@@@@@ATL@@@Z 1001b250 f   ILButton.obj
 0001:0001a2c0       ?SetCheck@CILButton@@QAEXH@Z 1001b2c0 f   ILButton.obj
 0001:0001a2e0       ??0CPoint@@QAE@XZ          1001b2e0 f i PowLabel.obj
 0001:0001a2f0       ??0CPowLabel@@QAE@XZ       1001b2f0 f   PowLabel.obj
 0001:0001a4f0       ??1CBrush@@UAE@XZ          1001b4f0 f i PowLabel.obj
 0001:0001a500       ??1CPen@@UAE@XZ            1001b500 f i PowLabel.obj
 0001:0001a510       ??1CPowLabel@@UAE@XZ       1001b510 f   PowLabel.obj
 0001:0001a5c0       ??_ECBrush@@UAEPAXI@Z      1001b5c0 f i PowLabel.obj
 0001:0001a5c0       ??_GCBrush@@UAEPAXI@Z      1001b5c0 f i PowLabel.obj
 0001:0001a600       ??_ECPen@@UAEPAXI@Z        1001b600 f i PowLabel.obj
 0001:0001a600       ??_GCPen@@UAEPAXI@Z        1001b600 f i PowLabel.obj
 0001:0001a640       ??_GCPowLabel@@UAEPAXI@Z   1001b640 f i PowLabel.obj
 0001:0001a640       ??_ECPowLabel@@UAEPAXI@Z   1001b640 f i PowLabel.obj
 0001:0001a720       ??_ECStatic@@UAEPAXI@Z     1001b720 f i PowLabel.obj
 0001:0001a720       ??_GCStatic@@UAEPAXI@Z     1001b720 f i PowLabel.obj
 0001:0001a760       ??_H@YGXPAXIIP6EPAX0@Z@Z   1001b760 f i PowLabel.obj
 0001:0001a790       ?DrawGradientFill@CPowLabel@@IAEXPAVCDC@@PAVCRect@@KKH@Z 1001b790 f   PowLabel.obj
 0001:0001a960       ?FlashBackground@CPowLabel@@UAEAAV1@H@Z 1001b960 f   PowLabel.obj
 0001:0001a9c0       ?FlashText@CPowLabel@@UAEAAV1@H@Z 1001b9c0 f   PowLabel.obj
 0001:0001aa30       ?GetMessageMap@CPowLabel@@MBEPBUAFX_MSGMAP@@XZ 1001ba30 f   PowLabel.obj
 0001:0001aa40       ?GetText@CPowLabel@@UBEXAAV?$CStringT@DV?$StrTraitMFC_DLL@DV?$ChTraitsCRT@D@ATL@@@@@ATL@@@Z 1001ba40 f   PowLabel.obj
 0001:0001aa60       ?GetThisMessageMap@CPowLabel@@KGPBUAFX_MSGMAP@@XZ 1001ba60 f   PowLabel.obj
 0001:0001aa70       ?LoadLibHandCursor@CPowLabel@@QAEXXZ 1001ba70 f   PowLabel.obj
 0001:0001ab40       ?OnDraw@CPowLabel@@QAEXPAVCDC@@@Z 1001bb40 f   PowLabel.obj
 0001:0001b0a0       ?OnEraseBkgnd@CPowLabel@@IAEHPAVCDC@@@Z 1001c0a0 f   PowLabel.obj
 0001:0001b0b0       ?OnLButtonUp@CPowLabel@@IAEXIVCPoint@@@Z 1001c0b0 f   PowLabel.obj
 0001:0001b110       ?OnMouseMove@CPowLabel@@IAEXIVCPoint@@@Z 1001c110 f   PowLabel.obj
 0001:0001b140       ?OnPaint@CPowLabel@@IAEXXZ 1001c140 f   PowLabel.obj
 0001:0001b1b0       ?OnSetCursor@CPowLabel@@IAEHPAVCWnd@@II@Z 1001c1b0 f   PowLabel.obj
 0001:0001b1e0       ?OnSysColorChange@CPowLabel@@IAEXXZ 1001c1e0 f   PowLabel.obj
 0001:0001b220       ?OnTimer@CPowLabel@@IAEXI@Z 1001c220 f   PowLabel.obj
 0001:0001b250       ?PreCreateWindow@CPowLabel@@MAEHAAUtagCREATESTRUCTA@@@Z 1001c250 f   PowLabel.obj
 0001:0001b260       ?PreSubclassWindow@CPowLabel@@MAEXXZ 1001c260 f   PowLabel.obj
 0001:0001b2c0       ?ReconstructFont@CPowLabel@@IAEXXZ 1001c2c0 f   PowLabel.obj
 0001:0001b2f0       ?RedrawLabel@CPowLabel@@QAEXPAVCDC@@@Z 1001c2f0 f   PowLabel.obj
 0001:0001b390       ?SetBkColor@CPowLabel@@UAEAAV1@KKW4BackFillMode@1@@Z 1001c390 f   PowLabel.obj
 0001:0001b420       ?SetBorder@CPowLabel@@UAEAAV1@H@Z 1001c420 f   PowLabel.obj
 0001:0001b460       ?SetBorderColor@CPowLabel@@UAEAAV1@KH@Z 1001c460 f   PowLabel.obj
 0001:0001b490       ?SetFont3D@CPowLabel@@UAEAAV1@HW4Type3D@1@@Z 1001c490 f   PowLabel.obj
 0001:0001b4c0       ?SetFontBold@CPowLabel@@UAEAAV1@H@Z 1001c4c0 f   PowLabel.obj
 0001:0001b520       ?SetFontItalic@CPowLabel@@UAEAAV1@H@Z 1001c520 f   PowLabel.obj
 0001:0001b570       ?SetFontName@CPowLabel@@UAEAAV1@ABV?$CStringT@DV?$StrTraitMFC_DLL@DV?$ChTraitsCRT@D@ATL@@@@@ATL@@E@Z 1001c570 f   PowLabel.obj
 0001:0001b5e0       ?SetFontSize@CPowLabel@@UAEAAV1@H@Z 1001c5e0 f   PowLabel.obj
 0001:0001b6c0       ?SetFontUnderline@CPowLabel@@UAEAAV1@H@Z 1001c6c0 f   PowLabel.obj
 0001:0001b710       ?SetLink@CPowLabel@@UAEAAV1@HH@Z 1001c710 f   PowLabel.obj
 0001:0001b760       ?SetLinkCursor@CPowLabel@@UAEAAV1@PAUHICON__@@@Z 1001c760 f   PowLabel.obj
 0001:0001b780       ?SetRotationAngle@CPowLabel@@UAEAAV1@IH@Z 1001c780 f   PowLabel.obj
 0001:0001b7e0       ?SetSunken@CPowLabel@@UAEAAV1@H@Z 1001c7e0 f   PowLabel.obj
 0001:0001b820       ?SetText3DHiliteColor@CPowLabel@@UAEAAV1@K@Z 1001c820 f   PowLabel.obj
 0001:0001b840       ?SetText@CPowLabel@@UAEAAV1@ABV?$CStringT@DV?$StrTraitMFC_DLL@DV?$ChTraitsCRT@D@ATL@@@@@ATL@@@Z 1001c840 f   PowLabel.obj
 0001:0001b870       ?SetTextColor@CPowLabel@@UAEAAV1@K@Z 1001c870 f   PowLabel.obj
 0001:0001b8a0       ?SetTransparent@CPowLabel@@UAEAAV1@H@Z 1001c8a0 f   PowLabel.obj
 0001:0001b8d0       ?SignDraw@CPowLabel@@QAEHPAVCWnd@@H@Z 1001c8d0 f   PowLabel.obj
 0001:0001bd80       ?UpdateSurface@CPowLabel@@IAEXXZ 1001cd80 f   PowLabel.obj
 0001:0001be80       ?Convert_EWs3@CChartRealConverter@@SAHPBDAAVCRealData_Common@@@Z 1001ce80 f   ChartRealConverter.obj
 0001:0001c0d0       ?Convert_FFC0@CChartRealConverter@@SAHPBDAAVCRealData_Common@@@Z 1001d0d0 f   ChartRealConverter.obj
 0001:0001c320       ?Convert_FOJS@CChartRealConverter@@SAHPBDAAVCRealData_Common@@@Z 1001d320 f   ChartRealConverter.obj
 0001:0001c6a0       ?Convert_GTFJ@CChartRealConverter@@SAHPBDAAVCRealData_Common@@@Z 1001d6a0 f   ChartRealConverter.obj
 0001:0001ca20       ?Convert_HWFJ@CChartRealConverter@@SAHPBDAAVCRealData_Common@@@Z 1001da20 f   ChartRealConverter.obj
 0001:0001cda0       ?Convert_IXIJ@CChartRealConverter@@SAHPBDAAVCRealData_Common@@@Z 1001dda0 f   ChartRealConverter.obj
 0001:0001cff0       ?Convert_JFC0@CChartRealConverter@@SAHPBDAAVCRealData_Common@@@Z 1001dff0 f   ChartRealConverter.obj
 0001:0001d270       ?Convert_JOC0@CChartRealConverter@@SAHPBDAAVCRealData_Common@@@Z 1001e270 f   ChartRealConverter.obj
 0001:0001d4f0       ?Convert_KXS3@CChartRealConverter@@SAHPBDAAVCRealData_Common@@@Z 1001e4f0 f   ChartRealConverter.obj
 0001:0001d760       ?Convert_KXYS@CChartRealConverter@@SAHPBDAAVCRealData_Common@@@Z 1001e760 f   ChartRealConverter.obj
 0001:0001d920       ?Convert_OOC0@CChartRealConverter@@SAHPBDAAVCRealData_Common@@@Z 1001e920 f   ChartRealConverter.obj
 0001:0001db70       ??0CDllSTLoader@@QAE@XZ    1001eb70 f   DllSTLoader.obj
 0001:0001dbe0       ??1CDllSTLoader@@UAE@XZ    1001ebe0 f   DllSTLoader.obj
 0001:0001dc40       ??_GCDllSTLoader@@UAEPAXI@Z 1001ec40 f i DllSTLoader.obj
 0001:0001dc40       ??_ECDllSTLoader@@UAEPAXI@Z 1001ec40 f i DllSTLoader.obj
 0001:0001dcc0       ?Command@CDllSTLoader@@QAEJPBD0@Z 1001ecc0 f   DllSTLoader.obj
 0001:0001dcf0       ?Execute@CDllSTLoader@@QAEJPBD@Z 1001ecf0 f   DllSTLoader.obj
 0001:0001dd20       ?GetInput@CDllSTLoader@@QAE?AV?$CStringT@DV?$StrTraitMFC_DLL@DV?$ChTraitsCRT@D@ATL@@@@@ATL@@J@Z 1001ed20 f   DllSTLoader.obj
 0001:0001dda0       ?Load@CDllSTLoader@@QAEJPBDPAUHWND__@@J0H0J@Z 1001eda0 f   DllSTLoader.obj
 0001:0001ddf0       ?LoadDLL@CDllSTLoader@@AAEHPBD@Z 1001edf0 f   DllSTLoader.obj
 0001:0001dfb0       ?Pause@CDllSTLoader@@QAEJXZ 1001efb0 f   DllSTLoader.obj
 0001:0001dfd0       ?Stop@CDllSTLoader@@QAEJXZ 1001efd0 f   DllSTLoader.obj
 0001:0001dff0       ?Unload@CDllSTLoader@@QAEJXZ 1001eff0 f   DllSTLoader.obj
 0001:0001e090       ?UnloadDLL@CDllSTLoader@@AAEHXZ 1001f090 f   DllSTLoader.obj
 0001:0001e0f0       ?Update@CDllSTLoader@@QAEJJH@Z 1001f0f0 f   DllSTLoader.obj
 0001:0001e120       ??0CSTBasicTree@@QAE@XZ    1001f120 f   STTreeCtrl.obj
 0001:0001e170       ??0CSTExtTree@@QAE@XZ      1001f170 f   STTreeCtrl.obj
 0001:0001e1c0       ??0CSTTreeCtrl@@QAE@XZ     1001f1c0 f   STTreeCtrl.obj
 0001:0001e210       ??1CSTBasicTree@@UAE@XZ    1001f210 f   STTreeCtrl.obj
 0001:0001e240       ??1CSTExtTree@@UAE@XZ      1001f240 f   STTreeCtrl.obj
 0001:0001e270       ??1CSTTreeCtrl@@UAE@XZ     1001f270 f   STTreeCtrl.obj
 0001:0001e2a0       ??1STMNG_ITEMINFO_EX1@@QAE@XZ 1001f2a0 f i STTreeCtrl.obj
 0001:0001e2c0       ??_GCSTBasicTree@@UAEPAXI@Z 1001f2c0 f i STTreeCtrl.obj
 0001:0001e2c0       ??_ECSTBasicTree@@UAEPAXI@Z 1001f2c0 f i STTreeCtrl.obj
 0001:0001e320       ??_GCSTExtTree@@UAEPAXI@Z  1001f320 f i STTreeCtrl.obj
 0001:0001e320       ??_ECSTExtTree@@UAEPAXI@Z  1001f320 f i STTreeCtrl.obj
 0001:0001e380       ??_ECSTTreeCtrl@@UAEPAXI@Z 1001f380 f i STTreeCtrl.obj
 0001:0001e380       ??_GCSTTreeCtrl@@UAEPAXI@Z 1001f380 f i STTreeCtrl.obj
 0001:0001e3e0       ??_GCTreeCtrl@@UAEPAXI@Z   1001f3e0 f i STTreeCtrl.obj
 0001:0001e3e0       ??_ECTreeCtrl@@UAEPAXI@Z   1001f3e0 f i STTreeCtrl.obj
 0001:0001e420       ?AddSTItem@CSTTreeCtrl@@UAEHPBD0@Z 1001f420 f   STTreeCtrl.obj
 0001:0001e4f0       ?Create@CSTTreeCtrl@@QAEHKABUtagRECT@@PAVCWnd@@I@Z 1001f4f0 f   STTreeCtrl.obj
 0001:0001e550       ?DeleteAllItemData@CSTTreeCtrl@@UAEXPAU_TREEITEM@@@Z 1001f550 f   STTreeCtrl.obj
 0001:0001e5d0       ?DeleteInfo@CSTTreeCtrl@@UAEXPAUSTTREEBASE_INFO@@@Z 1001f5d0 f   STTreeCtrl.obj
 0001:0001e620       ?DeleteSTItem@CSTTreeCtrl@@UAEHPBD0@Z 1001f620 f   STTreeCtrl.obj
 0001:0001e690       ?GetMessageMap@CSTBasicTree@@MBEPBUAFX_MSGMAP@@XZ 1001f690 f   STTreeCtrl.obj
 0001:0001e6a0       ?GetMessageMap@CSTExtTree@@MBEPBUAFX_MSGMAP@@XZ 1001f6a0 f   STTreeCtrl.obj
 0001:0001e6b0       ?GetMessageMap@CSTTreeCtrl@@MBEPBUAFX_MSGMAP@@XZ 1001f6b0 f   STTreeCtrl.obj
 0001:0001e6c0       ?GetSTFolderList@CLoadSTFile@@SAHPBDAAVCStringArray@@@Z 1001f6c0 f i STTreeCtrl.obj
 0001:0001e810       ?GetThisMessageMap@CSTBasicTree@@KGPBUAFX_MSGMAP@@XZ 1001f810 f   STTreeCtrl.obj
 0001:0001e820       ?GetThisMessageMap@CSTExtTree@@KGPBUAFX_MSGMAP@@XZ 1001f820 f   STTreeCtrl.obj
 0001:0001e830       ?GetThisMessageMap@CSTTreeCtrl@@KGPBUAFX_MSGMAP@@XZ 1001f830 f   STTreeCtrl.obj
 0001:0001e840       ?LoadSTFolderList@CSTTreeCtrl@@UAEXPAU_TREEITEM@@PBDPAUSTTREEFOLDER_INFO@@H@Z 1001f840 f   STTreeCtrl.obj
 0001:0001ec00       ?LoadSTTree@CSTBasicTree@@UAEXXZ 1001fc00 f   STTreeCtrl.obj
 0001:0001ee20       ?LoadSTTree@CSTExtTree@@UAEXXZ 1001fe20 f   STTreeCtrl.obj
 0001:0001f1b0       ?OnCreate@CSTTreeCtrl@@IAEHPAUtagCREATESTRUCTA@@@Z 100201b0 f   STTreeCtrl.obj
 0001:0001f2a0       ?OnDblclk@CSTTreeCtrl@@IAEXPAUtagNMHDR@@PAJ@Z 100202a0 f   STTreeCtrl.obj
 0001:0001f430       ?OnDestroy@CSTTreeCtrl@@IAEXXZ 10020430 f   STTreeCtrl.obj
 0001:0001f470       ?OnLButtonDown@CSTTreeCtrl@@IAEXIVCPoint@@@Z 10020470 f   STTreeCtrl.obj
 0001:0001f630       ?SearchFolderItem@CSTTreeCtrl@@UAEPAU_TREEITEM@@PBD@Z 10020630 f   STTreeCtrl.obj
 0001:0001f700       ?SearchItem@CSTTreeCtrl@@UAEPAU_TREEITEM@@PAU2@PBD@Z 10020700 f   STTreeCtrl.obj
 0001:0001f810       ??0IMetaTable@@QAE@XZ      10020810 f   IMetaTable.obj
 0001:0001f8b0       ??1IMetaTable@@UAE@XZ      100208b0 f   IMetaTable.obj
 0001:0001f960       ??1PDLL@@QAE@XZ            10020960 f i IMetaTable.obj
 0001:0001f9f0       ??_E?$CTypedPtrMap@VCMapPtrToPtr@@PAXPAX@@UAEPAXI@Z 100209f0 f i IMetaTable.obj
 0001:0001f9f0       ??_G?$CTypedPtrMap@VCMapPtrToPtr@@PAXPAX@@UAEPAXI@Z 100209f0 f i IMetaTable.obj
 0001:0001fa30       ??_GCMapStringToWord@@UAEPAXI@Z 10020a30 f i IMetaTable.obj
 0001:0001fa30       ??_ECMapStringToWord@@UAEPAXI@Z 10020a30 f i IMetaTable.obj
 0001:0001fa70       ??_GIMetaTable@@UAEPAXI@Z  10020a70 f i IMetaTable.obj
 0001:0001fa70       ??_EIMetaTable@@UAEPAXI@Z  10020a70 f i IMetaTable.obj
 0001:0001faa0       ?CanNotMultipleAddedOnMultipleSameNameIndicator@IMetaTable@@QAEHPBD@Z 10020aa0 f   IMetaTable.obj
 0001:0001fb00       ?ComServerFromProgID@CProgIDInfo@@SAJPBDAAV?$CStringT@DV?$StrTraitMFC_DLL@DV?$ChTraitsCRT@D@ATL@@@@@ATL@@@Z 10020b00 f i IMetaTable.obj
 0001:0001fd10       ?GetDir_DrfnRoot@@YAXAAV?$CStringT@DV?$StrTraitMFC_DLL@DV?$ChTraitsCRT@D@ATL@@@@@ATL@@@Z 10020d10 f i IMetaTable.obj
 0001:0001fe40       ?GetIndicatorID@IMetaTable@@QAEHPBD@Z 10020e40 f i IMetaTable.obj
 0001:0001fea0       ?GetIndicatorName@IMetaTable@@QAEPBDH@Z 10020ea0 f   IMetaTable.obj
 0001:0001fed0       ?GetLanguageText@IMetaTable@@QAEPBDPAUHWND__@@W4E_CODEPAGE@1@PBDH@Z 10020ed0 f   IMetaTable.obj
 0001:0001ff40       ?GetLanguageTextDirectly@IMetaTable@@QAEPBDW4E_CODEPAGE@1@W4E_LANGUAGEID@1@PBD@Z 10020f40 f   IMetaTable.obj
 0001:0001ffb0       ?GetMetaText@IMetaTable@@QAEPBDPAUHWND__@@W4E_CODEPAGE@1@PBDH@Z 10020fb0 f   IMetaTable.obj
 0001:00020020       ?GetMetaTextDirectly@IMetaTable@@QAEPBDW4E_CODEPAGE@1@W4E_LANGUAGEID@1@PBD@Z 10021020 f   IMetaTable.obj
 0001:00020080       ?GetMetaTextForScript@IMetaTable@@QAEPBDPAUHWND__@@W4E_CODEPAGE@1@PBDH@Z 10021080 f   IMetaTable.obj
 0001:000200f0       ?GetMetaTextFromOther@IMetaTable@@QAEPBDPAUHWND__@@W4E_CODEPAGE@1@PBDH@Z 100210f0 f   IMetaTable.obj
 0001:00020160       ?GetMultipleLanguageText@IMetaTable@@QAE?AV?$CStringT@DV?$StrTraitMFC_DLL@DV?$ChTraitsCRT@D@ATL@@@@@ATL@@PAUHWND__@@V23@1HH@Z 10021160 f   IMetaTable.obj
 0001:000203d0       ?GetMultipleMetaText@IMetaTable@@QAE?AV?$CStringT@DV?$StrTraitMFC_DLL@DV?$ChTraitsCRT@D@ATL@@@@@ATL@@PAUHWND__@@V23@1HH@Z 100213d0 f   IMetaTable.obj
 0001:00020640       ?GetMultipleMetaTextForScript@IMetaTable@@QAE?AV?$CStringT@DV?$StrTraitMFC_DLL@DV?$ChTraitsCRT@D@ATL@@@@@ATL@@PAUHWND__@@V23@1HH@Z 10021640 f   IMetaTable.obj
 0001:000208b0       ?GetMultipleMetaTextFromOther@IMetaTable@@QAE?AV?$CStringT@DV?$StrTraitMFC_DLL@DV?$ChTraitsCRT@D@ATL@@@@@ATL@@PAUHWND__@@V23@1HH@Z 100218b0 f   IMetaTable.obj
 0001:00020b20       ?Initialize@PDLL@@UAE_NF@Z 10021b20 f i IMetaTable.obj
 0001:00020b50       ?IsChartType@IMetaTable@@QAEHPBD@Z 10021b50 f   IMetaTable.obj
 0001:00020d60       ?IsConditionTitle@IMetaTable@@QAE_NABV?$CStringT@DV?$StrTraitMFC_DLL@DV?$ChTraitsCRT@D@ATL@@@@@ATL@@@Z 10021d60 f   IMetaTable.obj
 0001:00020dd0       ?IsDataTitle@IMetaTable@@QAE_NABV?$CStringT@DV?$StrTraitMFC_DLL@DV?$ChTraitsCRT@D@ATL@@@@@ATL@@@Z 10021dd0 f   IMetaTable.obj
 0001:00020e80       ?IsDrawGroup_PAndF@IMetaTable@@QAE_NABV?$CStringT@DV?$StrTraitMFC_DLL@DV?$ChTraitsCRT@D@ATL@@@@@ATL@@@Z 10021e80 f   IMetaTable.obj
 0001:00020eb0       ?IsDrawGroup_VolumeType@IMetaTable@@QAE_NABV?$CStringT@DV?$StrTraitMFC_DLL@DV?$ChTraitsCRT@D@ATL@@@@@ATL@@@Z 10021eb0 f   IMetaTable.obj
 0001:00020ee0       ?IsIndicatorInThisMode@IMetaTable@@QAEHPBDW4CHART_MODE@CChartInfo@@@Z 10021ee0 f   IMetaTable.obj
 0001:00021000       ?IsNoXScale_SpecialGroup@IMetaTable@@QAE_NABV?$CStringT@DV?$StrTraitMFC_DLL@DV?$ChTraitsCRT@D@ATL@@@@@ATL@@@Z 10022000 f   IMetaTable.obj
 0001:00021020       ?IsNoneZoomChart@IMetaTable@@QAE_NPBD@Z 10022020 f   IMetaTable.obj
 0001:00021050       ?IsPriceChartType@IMetaTable@@QAEHPBD@Z 10022050 f   IMetaTable.obj
 0001:00021210       ?IsSTIndexIndicator@IMetaTable@@QAEHH@Z 10022210 f   IMetaTable.obj
 0001:000212b0       ?IsScaleGroup_InverseLine@IMetaTable@@QAE_NABV?$CStringT@DV?$StrTraitMFC_DLL@DV?$ChTraitsCRT@D@ATL@@@@@ATL@@@Z 100222b0 f   IMetaTable.obj
 0001:000212d0       ?IsScaleGroup_MinusPercent@IMetaTable@@QAE_NABV?$CStringT@DV?$StrTraitMFC_DLL@DV?$ChTraitsCRT@D@ATL@@@@@ATL@@@Z 100222d0 f   IMetaTable.obj
 0001:00021300       ?IsScaleGroup_PlusPercent@IMetaTable@@QAE_NABV?$CStringT@DV?$StrTraitMFC_DLL@DV?$ChTraitsCRT@D@ATL@@@@@ATL@@@Z 10022300 f   IMetaTable.obj
 0001:00021390       ?IsScaleGroup_Price@IMetaTable@@QAE_NABV?$CStringT@DV?$StrTraitMFC_DLL@DV?$ChTraitsCRT@D@ATL@@@@@ATL@@@Z 10022390 f   IMetaTable.obj
 0001:00021440       ?IsScaleGroup_PriceNoVertScale@IMetaTable@@QAE_NABV?$CStringT@DV?$StrTraitMFC_DLL@DV?$ChTraitsCRT@D@ATL@@@@@ATL@@@Z 10022440 f   IMetaTable.obj
 0001:00021470       ?IsScaleGroup_Volume@IMetaTable@@QAE_NABV?$CStringT@DV?$StrTraitMFC_DLL@DV?$ChTraitsCRT@D@ATL@@@@@ATL@@@Z 10022470 f   IMetaTable.obj
 0001:000214a0       ?IsSpecialGroupGraph@IMetaTable@@QAE_NPBD@Z 100224a0 f   IMetaTable.obj
 0001:000214e0       ?IsSpecialTime@IMetaTable@@QAEHH@Z 100224e0 f   IMetaTable.obj
 0001:000216b0       ?IsTitleAndCondition@IMetaTable@@QAE_NABV?$CStringT@DV?$StrTraitMFC_DLL@DV?$ChTraitsCRT@D@ATL@@@@@ATL@@@Z 100226b0 f   IMetaTable.obj
 0001:000216e0       ?IsTitleIncludeCondition@IMetaTable@@QAE_NABV?$CStringT@DV?$StrTraitMFC_DLL@DV?$ChTraitsCRT@D@ATL@@@@@ATL@@@Z 100226e0 f   IMetaTable.obj
 0001:00021710       ?IsTitleOnlyCondition@IMetaTable@@QAE_NABV?$CStringT@DV?$StrTraitMFC_DLL@DV?$ChTraitsCRT@D@ATL@@@@@ATL@@@Z 10022710 f   IMetaTable.obj
 0001:00021740       ?IsTitleOrCondition@IMetaTable@@QAE_NABV?$CStringT@DV?$StrTraitMFC_DLL@DV?$ChTraitsCRT@D@ATL@@@@@ATL@@@Z 10022740 f   IMetaTable.obj
 0001:00021750       ?IsViewVertMinMax_EndPacket@IMetaTable@@QAE_NABV?$CStringT@DV?$StrTraitMFC_DLL@DV?$ChTraitsCRT@D@ATL@@@@@ATL@@@Z 10022750 f   IMetaTable.obj
 0001:00021780       ?IsVolumeForSale@IMetaTable@@QAEHABV?$CStringT@DV?$StrTraitMFC_DLL@DV?$ChTraitsCRT@D@ATL@@@@@ATL@@@Z 10022780 f   IMetaTable.obj
 0001:000217b0       ?LoadMetaTable@IMetaTable@@QAEXXZ 100227b0 f   IMetaTable.obj
 0001:00021ab0       ?SetDllName@PDLL@@QAE_NPBD@Z 10022ab0 f i IMetaTable.obj
 0001:00021b20       ?StringCLSIDFromProgID@CProgIDInfo@@SAJPBDAAV?$CStringT@DV?$StrTraitMFC_DLL@DV?$ChTraitsCRT@D@ATL@@@@@ATL@@@Z 10022b20 f i IMetaTable.obj
 0001:00021c90       ?Uninitialize@PDLL@@UAEXXZ 10022c90 f i IMetaTable.obj
 0001:00021ce0       ??0CChartToolBtn@@QAE@XZ   10022ce0 f   ChartToolBtn.obj
 0001:00021ed0       ??1CChartToolBtn@@UAE@XZ   10022ed0 f   ChartToolBtn.obj
 0001:00021f40       ??_ECChartToolBtn@@UAEPAXI@Z 10022f40 f i ChartToolBtn.obj
 0001:00021f40       ??_GCChartToolBtn@@UAEPAXI@Z 10022f40 f i ChartToolBtn.obj
 0001:00022000       ?CalcRect@CChartToolBtn@@QAEXVCPoint@@V?$CStringT@DV?$StrTraitMFC_DLL@DV?$ChTraitsCRT@D@ATL@@@@@ATL@@AAVCRect@@@Z 10023000 f   ChartToolBtn.obj
 0001:000220a0       ?CalcText@CChartToolBtn@@QAEXPAVCPoint@@PAD@Z 100230a0 f   ChartToolBtn.obj
 0001:00022110       ?CreateBtn@CChartToolBtn@@QAE?AVCPoint@@PAVCWnd@@PAVCFont@@V2@H@Z 10023110 f   ChartToolBtn.obj
 0001:00022250       ?CreateBtn@CChartToolBtn@@QAEHPAVCWnd@@PAVCFont@@H@Z 10023250 f   ChartToolBtn.obj
 0001:000222f0       ?DeleteBtn@CChartToolBtn@@QAEXXZ 100232f0 f   ChartToolBtn.obj
 0001:00022310       ?DrawBMP@CChartToolBtn@@QAEXPAVCDC@@@Z 10023310 f   ChartToolBtn.obj
 0001:00022480       ?DrawBackBmp@CChartToolBtn@@QAEXPAVCDC@@@Z 10023480 f   ChartToolBtn.obj
 0001:00022600       ?DrawBackImageList@CChartToolBtn@@QAEXPAVCDC@@@Z 10023600 f   ChartToolBtn.obj
 0001:00022700       ?DrawGradation@CChartToolBtn@@QAEXPAVCDC@@@Z 10023700 f   ChartToolBtn.obj
 0001:00022710       ?DrawRound@CChartToolBtn@@QAEXPAVCDC@@@Z 10023710 f   ChartToolBtn.obj
 0001:00022b40       ?GetHeight@CChartToolBtn@@QAEHXZ 10023b40 f   ChartToolBtn.obj
 0001:00022b50       ?GetMessageMap@CChartToolBtn@@MBEPBUAFX_MSGMAP@@XZ 10023b50 f   ChartToolBtn.obj
 0001:00022b60       ?GetThisMessageMap@CChartToolBtn@@KGPBUAFX_MSGMAP@@XZ 10023b60 f   ChartToolBtn.obj
 0001:00022b70       ?GetToggle@CChartToolBtn@@QAEHXZ 10023b70 f   ChartToolBtn.obj
 0001:00022b90       ?OnLButtonDown@CChartToolBtn@@IAEXIVCPoint@@@Z 10023b90 f   ChartToolBtn.obj
 0001:00022c00       ?OnLButtonUp@CChartToolBtn@@IAEXIVCPoint@@@Z 10023c00 f   ChartToolBtn.obj
 0001:00022d70       ?OnMouseMove@CChartToolBtn@@IAEXIVCPoint@@@Z 10023d70 f   ChartToolBtn.obj
 0001:00022d80       ?OnPaint@CChartToolBtn@@IAEXXZ 10023d80 f   ChartToolBtn.obj
 0001:00022ec0       ?ReleaseBtn@CChartToolBtn@@QAEXXZ 10023ec0 f   ChartToolBtn.obj
 0001:00022f00       ?Replace@CChartToolBtn@@QAE?AVCPoint@@V2@@Z 10023f00 f   ChartToolBtn.obj
 0001:00022fa0       ?ReplaceSize@CChartToolBtn@@QAE?AVCPoint@@V2@H@Z 10023fa0 f   ChartToolBtn.obj
 0001:00023040       ?SetToggle@CChartToolBtn@@QAEXHH@Z 10024040 f   ChartToolBtn.obj
 0001:00023060       ?SetToggleBtnFromOutside@CChartToolBtn@@QAEXXZ 10024060 f   ChartToolBtn.obj
 0001:000231e0       ?SetValueBtn@CChartToolBtn@@QAEXHHHPAVCSize@@0PAVCBitmap@@11@Z 100241e0 f   ChartToolBtn.obj
 0001:000232a0       ?SetValueBtn@CChartToolBtn@@QAEXW4TOOLOPTION@CToolOptionInfo@@HPAVCBitmap@@11@Z 100242a0 f   ChartToolBtn.obj
 0001:000232e0       ?SetValueBtn@CChartToolBtn@@QAEXW4TOOLOPTION@CToolOptionInfo@@HPAVCImageList@@HHH@Z 100242e0 f   ChartToolBtn.obj
 0001:00023330       ??0CFileBitmap@@QAE@XZ     10024330 f   FileBitmap.obj
 0001:00023360       ??1CFileBitmap@@UAE@XZ     10024360 f   FileBitmap.obj
 0001:000233a0       ??_GCFileBitmap@@UAEPAXI@Z 100243a0 f i FileBitmap.obj
 0001:000233a0       ??_ECFileBitmap@@UAEPAXI@Z 100243a0 f i FileBitmap.obj
 0001:00023410       ?ClearAll@CFileBitmap@@QAEXXZ 10024410 f   FileBitmap.obj
 0001:00023430       ?LoadBMP@CFileBitmap@@QAEHPBD@Z 10024430 f   FileBitmap.obj
 0001:00023520       ?LoadBMP@CFileBitmap@@QAEHPBDPAPAX@Z 10024520 f   FileBitmap.obj
 0001:00023610       ?LoadBMPImage@CFileBitmap@@QAEHPBD@Z 10024610 f   FileBitmap.obj
 0001:00023770       ?LoadBMPImage@CFileBitmap@@QAEHPBDAAVCBitmap@@@Z 10024770 f   FileBitmap.obj
 0001:000238d0       ??$SerializeElements@PAVCChartItemData@@@@YGXAAVCArchive@@PAPAVCChartItemData@@H@Z 100248d0 f i ChartItem.obj
 0001:00023980       ??0?$CArray@PAVCChartItemData@@PAV1@@@QAE@XZ 10024980 f i ChartItem.obj
 0001:000239b0       ??0CChartItem@@QAE@XZ      100249b0 f   ChartItem.obj
 0001:000240c0       ??0_ST_CHARTITEM_REALDATA@@QAE@XZ 100250c0 f i ChartItem.obj
 0001:00024120       ??1?$CArray@PAVCChartItemData@@PAV1@@@UAE@XZ 10025120 f i ChartItem.obj
 0001:00024140       ??1CChartItem@@UAE@XZ      10025140 f   ChartItem.obj
 0001:00024570       ??1CDRChartOcx@@UAE@XZ     10025570 f i ChartItem.obj
 0001:00024580       ??1CXIBaseDesk@CChartItem@@QAE@XZ 10025580 f i ChartItem.obj
 0001:000245e0       ??_G?$CArray@PAVCChartItemData@@PAV1@@@UAEPAXI@Z 100255e0 f i ChartItem.obj
 0001:000245e0       ??_E?$CArray@PAVCChartItemData@@PAV1@@@UAEPAXI@Z 100255e0 f i ChartItem.obj
 0001:00024630       ??_GCChartItem@@UAEPAXI@Z  10025630 f i ChartItem.obj
 0001:00024630       ??_ECChartItem@@UAEPAXI@Z  10025630 f i ChartItem.obj
 0001:00024670       ??_G_ST_CHARTITEM_REALDATA@@QAEPAXI@Z 10025670 f i ChartItem.obj
 0001:000246e0       ?AddChartBlock@CChartItem@@QAEHPBD@Z 100256e0 f   ChartItem.obj
 0001:00024780       ?AddChartItem@CChartItem@@QAEXPAVCChartItemData@@PBD1D1JJH@Z 10025780 f   ChartItem.obj
 0001:00024a30       ?AddInEvent_FromChart@CChartItem@@QAEHPBD@Z 10025a30 f   ChartItem.obj
 0001:00024a40       ?Add_OverLappedCnt@CChartItem@@QAEXXZ 10025a40 f   ChartItem.obj
 0001:00024a60       ?AfxCrtErrorCheck@@YAHH@Z  10025a60 f i ChartItem.obj
 0001:00024bc0       ?AtlThrowImpl@ATL@@YGXJ@Z  10025bc0 f i ChartItem.obj
 0001:00024be0       ?BuildChart@CChartItem@@AAEHXZ 10025be0 f   ChartItem.obj
 0001:00025a50       ?BuildMaketChart@CChartItem@@QAEHPAVCChartItemData@@@Z 10026a50 f   ChartItem.obj
 0001:00025ae0       ?CLSIDFromProgID_GZone@@YAJPBDPAU_GUID@@@Z 10026ae0 f   ChartItem.obj
 0001:00025bb0       ?CallCommand@CBaseDesk@@UAEXPBD@Z 10026bb0 f i ChartItem.obj
 0001:00025bc0       ?CallCommand@CXIBaseDesk@CChartItem@@UAEXPBD@Z 10026bc0 f   ChartItem.obj
 0001:00025bd0       ?ClearData@CChartItem@@QAEHXZ 10026bd0 f   ChartItem.obj
 0001:00025dd0       ?ClearDataExceptPrimaryData@CChartItem@@QAEHXZ 10026dd0 f   ChartItem.obj
 0001:00025ec0       ?ClearPtrST@CChartItem@@QAEXXZ 10026ec0 f   ChartItem.obj
 0001:00025f70       ?CopyData@CChartItem@@QAEXPAV1@@Z 10026f70 f   ChartItem.obj
 0001:00026280       ?Create@CChartItem@@QAEHPAVCWnd@@PAUtagRECT@@HJJPBDH@Z 10027280 f   ChartItem.obj
 0001:00026520       ?DestoryItemData@CChartItem@@AAEHXZ 10027520 f   ChartItem.obj
 0001:00026620       ?DestroyWindow@CChartItem@@UAEHXZ 10027620 f   ChartItem.obj
 0001:000267a0       ?DrawReplayChartTitle@CChartItem@@QAEXVCRect@@PAVCDC@@PAVCFont@@2K@Z 100277a0 f   ChartItem.obj
 0001:00026f90       ?DrawTitle@CChartItem@@QAEXVCRect@@PAVCDC@@PAVCFont@@2K@Z 10027f90 f   ChartItem.obj
 0001:000285c0       ?EnableRequestMoreButton@CChartItem@@QAEXH@Z 100295c0 f   ChartItem.obj
 0001:000285d0       ?FP_nGetCtrlPos@CBaseDesk2@@UAEJXZ 100295d0 f i ChartItem.obj
 0001:000285e0       ?FP_nGetCtrlPos@CXIBaseDesk@CChartItem@@UAEJXZ 100295e0 f   ChartItem.obj
 0001:000285f0       ?FP_nGetDataInt@CXIBaseDesk@CChartItem@@UAEHH@Z 100295f0 f   ChartItem.obj
 0001:00028600       ?FP_sGetMyVBName@CXIBaseDesk@CChartItem@@UAEPBDPAUHWND__@@@Z 10029600 f   ChartItem.obj
 0001:00028610       ?FP_vAdviseDebug@CXIBaseDesk@CChartItem@@UAEHPBDI@Z 10029610 f   ChartItem.obj
 0001:00028620       ?FP_vResizeCtrl@CBaseDesk2@@UAEXXZ 10029620 f i ChartItem.obj
 0001:00028630       ?FP_vResizeCtrl@CXIBaseDesk@CChartItem@@UAEXXZ 10029630 f   ChartItem.obj
 0001:00028640       ?FP_vSendDebug@CXIBaseDesk@CChartItem@@UAEXPBD00@Z 10029640 f   ChartItem.obj
 0001:00028650       ?FP_vUnadviseDebug@CXIBaseDesk@CChartItem@@UAEXPBDI@Z 10029650 f   ChartItem.obj
 0001:00028660       ?FindChartItemDataForQuery@CChartItem@@QAEPAVCChartItemData@@XZ 10029660 f   ChartItem.obj
 0001:000286c0       ?FindSelectChartByItemCode@CChartItem@@QAEHPBDH@Z 100296c0 f   ChartItem.obj
 0001:00028800       ?GetAddBlockMode@CChartMng@@QAEHXZ 10029800 f i ChartItem.obj
 0001:00028820       ?GetBasePath@CBaseDesk@@UAEPBDXZ 10029820 f i ChartItem.obj
 0001:00028830       ?GetBasePath@CXIBaseDesk@CChartItem@@UAEPBDXZ 10029830 f   ChartItem.obj
 0001:00028910       ?GetChartItemDataNew@CChartItem@@AAEPAVCChartItemData@@V?$CStringT@DV?$StrTraitMFC_DLL@DV?$ChTraitsCRT@D@ATL@@@@@ATL@@PBDHH@Z 10029910 f   ChartItem.obj
 0001:00028cb0       ?GetChartItemMarketDataNew@CChartItem@@QAEPAVCChartItemData@@V?$CStringT@DV?$StrTraitMFC_DLL@DV?$ChTraitsCRT@D@ATL@@@@@ATL@@PBD@Z 10029cb0 f   ChartItem.obj
 0001:00028ea0       ?GetCntForRequest@CChartItem@@QAEJXZ 10029ea0 f   ChartItem.obj
 0001:00028ec0       ?GetCountRQ@CChartItem@@QAEHXZ 10029ec0 f   ChartItem.obj
 0001:00028fa0       ?GetCtrlHwnd@CBaseDesk@@UAEPAUHWND__@@PBD@Z 10029fa0 f i ChartItem.obj
 0001:00028fb0       ?GetCtrlHwnd@CXIBaseDesk@CChartItem@@UAEPAUHWND__@@PBD@Z 10029fb0 f   ChartItem.obj
 0001:00028fc0       ?GetCtrlUnknown@CBaseDesk@@UAEPAUIUnknown@@PBD@Z 10029fc0 f i ChartItem.obj
 0001:00028fd0       ?GetCtrlUnknown@CXIBaseDesk@CChartItem@@UAEPAUIUnknown@@PBD@Z 10029fd0 f   ChartItem.obj
 0001:00028fe0       ?GetDataCode@CChartItem@@QAE?AV?$CStringT@DV?$StrTraitMFC_DLL@DV?$ChTraitsCRT@D@ATL@@@@@ATL@@H@Z 10029fe0 f   ChartItem.obj
 0001:00029030       ?GetDataTRCode@CChartItem@@QAE?AV?$CStringT@DV?$StrTraitMFC_DLL@DV?$ChTraitsCRT@D@ATL@@@@@ATL@@H@Z 1002a030 f   ChartItem.obj
 0001:00029080       ?GetDayNumber@CChartItem@@QAE?AV?$CStringT@DV?$StrTraitMFC_DLL@DV?$ChTraitsCRT@D@ATL@@@@@ATL@@XZ 1002a080 f   ChartItem.obj
 0001:000290a0       ?GetDeskHwnd@CBaseDesk@@UAEPAUHWND__@@XZ 1002a0a0 f i ChartItem.obj
 0001:000290b0       ?GetDeskHwnd@CXIBaseDesk@CChartItem@@UAEPAUHWND__@@XZ 1002a0b0 f   ChartItem.obj
 0001:000290c0       ?GetDeskInfo@CBaseDesk2@@UAEJPBD@Z 1002a0c0 f i ChartItem.obj
 0001:000290d0       ?GetDeskInfo@CXIBaseDesk@CChartItem@@UAEJPBD@Z 1002a0d0 f   ChartItem.obj
 0001:000290e0       ?GetEndDate@CChartItem@@QAE?AV?$CStringT@DV?$StrTraitMFC_DLL@DV?$ChTraitsCRT@D@ATL@@@@@ATL@@XZ 1002a0e0 f   ChartItem.obj
 0001:00029100       ?GetEndDateRequested@CChartItem@@QAE?AV?$CStringT@DV?$StrTraitMFC_DLL@DV?$ChTraitsCRT@D@ATL@@@@@ATL@@XZ 1002a100 f   ChartItem.obj
 0001:00029120       ?GetFrameInfo@CBaseDesk2@@UAEJPBD@Z 1002a120 f i ChartItem.obj
 0001:00029130       ?GetFrameInfo@CXIBaseDesk@CChartItem@@UAEJPBD@Z 1002a130 f   ChartItem.obj
 0001:00029140       ?GetHourNumber@CChartItem@@QAE?AV?$CStringT@DV?$StrTraitMFC_DLL@DV?$ChTraitsCRT@D@ATL@@@@@ATL@@XZ 1002a140 f   ChartItem.obj
 0001:00029160       ?GetLSharedData@CBaseDesk@@UAEPAXXZ 1002a160 f i ChartItem.obj
 0001:00029170       ?GetLSharedData@CXIBaseDesk@CChartItem@@UAEPAXXZ 1002a170 f   ChartItem.obj
 0001:00029180       ?GetLastHistoryCode@CChartItem@@QAE?AV?$CStringT@DV?$StrTraitMFC_DLL@DV?$ChTraitsCRT@D@ATL@@@@@ATL@@H@Z 1002a180 f   ChartItem.obj
 0001:00029390       ?GetLoadedQueryData@CChartItem@@QAE?AV?$CStringT@DV?$StrTraitMFC_DLL@DV?$ChTraitsCRT@D@ATL@@@@@ATL@@XZ 1002a390 f   ChartItem.obj
 0001:00029660       ?GetMainInfo@CBaseDesk2@@UAEJPBD@Z 1002a660 f i ChartItem.obj
 0001:00029670       ?GetMainInfo@CXIBaseDesk@CChartItem@@UAEJPBD@Z 1002a670 f   ChartItem.obj
 0001:00029680       ?GetMarketQueryData@CChartItem@@QAE?AV?$CStringT@DV?$StrTraitMFC_DLL@DV?$ChTraitsCRT@D@ATL@@@@@ATL@@V23@HH@Z 1002a680 f   ChartItem.obj
 0001:000297f0       ?GetMinNumber@CChartItem@@QAE?AV?$CStringT@DV?$StrTraitMFC_DLL@DV?$ChTraitsCRT@D@ATL@@@@@ATL@@XZ 1002a7f0 f   ChartItem.obj
 0001:00029810       ?GetNextKey@CChartItem@@QAEPBDH@Z 1002a810 f   ChartItem.obj
 0001:00029850       ?GetOHLDataFromBojomsg@CChartItem@@QAEXV?$CStringT@DV?$StrTraitMFC_DLL@DV?$ChTraitsCRT@D@ATL@@@@@ATL@@AAV23@11@Z 1002a850 f   ChartItem.obj
 0001:000299e0       ?GetOHLValue@CChartItem@@QAEXAAV?$CStringT@DV?$StrTraitMFC_DLL@DV?$ChTraitsCRT@D@ATL@@@@@ATL@@PBD000@Z 1002a9e0 f   ChartItem.obj
 0001:00029c50       ?GetOldChartCode@CChartItem@@QAE?AV?$CStringT@DV?$StrTraitMFC_DLL@DV?$ChTraitsCRT@D@ATL@@@@@ATL@@XZ 1002ac50 f   ChartItem.obj
 0001:00029c90       ?GetOpenAndSaveFileName4PeriodRQ@CChartItem@@QAE?AV?$CStringT@DV?$StrTraitMFC_DLL@DV?$ChTraitsCRT@D@ATL@@@@@ATL@@D@Z 1002ac90 f   ChartItem.obj
 0001:00029f10       ?GetOpenAndSaveFileName@CChartItem@@QAE?AV?$CStringT@DV?$StrTraitMFC_DLL@DV?$ChTraitsCRT@D@ATL@@@@@ATL@@H@Z 1002af10 f   ChartItem.obj
 0001:0002a1f0       ?GetPosChartItemData@CChartItem@@AAEJV?$CStringT@DV?$StrTraitMFC_DLL@DV?$ChTraitsCRT@D@ATL@@@@@ATL@@PBD@Z 1002b1f0 f   ChartItem.obj
 0001:0002a320       ?GetPrevDateRecvFlag@CChartItem@@QAEHXZ 1002b320 f   ChartItem.obj
 0001:0002a340       ?GetPrimaryChartItemData@CChartItem@@QAEPAVCChartItemData@@XZ 1002b340 f   ChartItem.obj
 0001:0002a360       ?GetQueryData@CChartItem@@QAE?AV?$CStringT@DV?$StrTraitMFC_DLL@DV?$ChTraitsCRT@D@ATL@@@@@ATL@@H@Z 1002b360 f   ChartItem.obj
 0001:0002a800       ?GetQueryDataForGuideLine@CChartItem@@QAE?AV?$CStringT@DV?$StrTraitMFC_DLL@DV?$ChTraitsCRT@D@ATL@@@@@ATL@@PBVCUIntArray@@@Z 1002b800 f   ChartItem.obj
 0001:0002aa60       ?GetQueryOpt@CChartItem@@QAE?AV?$CStringT@DV?$StrTraitMFC_DLL@DV?$ChTraitsCRT@D@ATL@@@@@ATL@@XZ 1002ba60 f   ChartItem.obj
 0001:0002ab10       ?GetRQCount@CChartItem@@QAEHXZ 1002bb10 f   ChartItem.obj
 0001:0002ab20       ?GetRealRefCount@CChartItem@@QAEHXZ 1002bb20 f   ChartItem.obj
 0001:0002abc0       ?GetReplayDayBefore@CChartItem@@QAE?AV?$CStringT@DV?$StrTraitMFC_DLL@DV?$ChTraitsCRT@D@ATL@@@@@ATL@@XZ 1002bbc0 f   ChartItem.obj
 0001:0002ac60       ?GetReplayFlag@CChartItem@@QAE?AV?$CStringT@DV?$StrTraitMFC_DLL@DV?$ChTraitsCRT@D@ATL@@@@@ATL@@XZ 1002bc60 f   ChartItem.obj
 0001:0002acc0       ?GetReplayStartTime@CChartItem@@QAE?AV?$CStringT@DV?$StrTraitMFC_DLL@DV?$ChTraitsCRT@D@ATL@@@@@ATL@@XZ 1002bcc0 f   ChartItem.obj
 0001:0002ad60       ?GetRuntimeClass@CChartItem@@UBEPAUCRuntimeClass@@XZ 1002bd60 f   ChartItem.obj
 0001:0002ad70       ?GetScreenNo@CChartItem@@QAEIXZ 1002bd70 f   ChartItem.obj
 0001:0002ad80       ?GetSecNumber@CChartItem@@QAE?AV?$CStringT@DV?$StrTraitMFC_DLL@DV?$ChTraitsCRT@D@ATL@@@@@ATL@@XZ 1002bd80 f   ChartItem.obj
 0001:0002ada0       ?GetSelChart@CChartItem@@QAEHPBDAAPAU_ST_SELCHART@@H@Z 1002bda0 f   ChartItem.obj
 0001:0002ae20       ?GetSharedInterface@CBaseDesk@@UAEPAXXZ 1002be20 f i ChartItem.obj
 0001:0002ae30       ?GetSharedInterface@CXIBaseDesk@CChartItem@@UAEPAXXZ 1002be30 f   ChartItem.obj
 0001:0002ae40       ?GetSignalImageIndex_FromSignalDegree@CChartItem@@QAEHHH@Z 1002be40 f   ChartItem.obj
 0001:0002af60       ?GetTempOnePageDataCount@CChartItem@@QAEJXZ 1002bf60 f   ChartItem.obj
 0001:0002af80       ?GetThisClass@CChartItem@@SGPAUCRuntimeClass@@XZ 1002bf80 f   ChartItem.obj
 0001:0002af90       ?GetTickMinDayNumber@CChartItem@@QAE?AV?$CStringT@DV?$StrTraitMFC_DLL@DV?$ChTraitsCRT@D@ATL@@@@@ATL@@H@Z 1002bf90 f   ChartItem.obj
 0001:0002b080       ?GetTickNumber@CChartItem@@QAE?AV?$CStringT@DV?$StrTraitMFC_DLL@DV?$ChTraitsCRT@D@ATL@@@@@ATL@@XZ 1002c080 f   ChartItem.obj
 0001:0002b0a0       ?GetTrCodeForQuery@CChartItem@@QAE?AV?$CStringT@DV?$StrTraitMFC_DLL@DV?$ChTraitsCRT@D@ATL@@@@@ATL@@XZ 1002c0a0 f   ChartItem.obj
 0001:0002b0e0       ?GetType@CChartItem@@QAEDXZ 1002c0e0 f   ChartItem.obj
 0001:0002b100       ?GetTypeRequested@CChartItem@@QAEDXZ 1002c100 f   ChartItem.obj
 0001:0002b110       ?GetUnknown@CBaseDesk@@UAEPAUIDispatch@@XZ 1002c110 f i ChartItem.obj
 0001:0002b120       ?GetUnknown@CXIBaseDesk@CChartItem@@UAEPAUIDispatch@@XZ 1002c120 f   ChartItem.obj
 0001:0002b130       ?GetUseRevisedValue@CChartItem@@QAEHXZ 1002c130 f   ChartItem.obj
 0001:0002b140       ?GetUserColor@CBaseDesk2@@UAEKFPBDF@Z 1002c140 f i ChartItem.obj
 0001:0002b150       ?GetUserColor@CXIBaseDesk@CChartItem@@UAEKFPBDF@Z 1002c150 f   ChartItem.obj
 0001:0002b160       ?GetUserInfo@CBaseDesk2@@UAEJPBD@Z 1002c160 f i ChartItem.obj
 0001:0002b170       ?GetUserInfo@CXIBaseDesk@CChartItem@@UAEJPBD@Z 1002c170 f   ChartItem.obj
 0001:0002b180       ?GetViewCountFlag@CChartItem@@QAEHXZ 1002c180 f   ChartItem.obj
 0001:0002b190       ?HasChartItemData@CChartItem@@QAEHPBDV?$CStringT@DV?$StrTraitMFC_DLL@DV?$ChTraitsCRT@D@ATL@@@@@ATL@@HH@Z 1002c190 f   ChartItem.obj
 0001:0002b250       ?HasGraph@CChartItem@@QAEHPBD@Z 1002c250 f   ChartItem.obj
 0001:0002b310       ?HideInnerToolBar@CChartItem@@QAEXH@Z 1002c310 f   ChartItem.obj
 0001:0002b330       ?HideScale@CChartItem@@QAEXH@Z 1002c330 f   ChartItem.obj
 0001:0002b380       ?InitChartItem_FromExtToolBar@CChartItem@@QAEXXZ 1002c380 f   ChartItem.obj
 0001:0002b390       ?InitShareManager@CChartItem@@QAEXXZ 1002c390 f   ChartItem.obj
 0001:0002b3a0       ?InitString_ForReplay@CChartItem@@QAEXXZ 1002c3a0 f   ChartItem.obj
 0001:0002b3f0       ?Init_ChartCfgInfo@CChartItem@@QAEXXZ 1002c3f0 f   ChartItem.obj
 0001:0002b420       ?Init_OverLapped@CChartItem@@QAEXXZ 1002c420 f   ChartItem.obj
 0001:0002b440       ?InvalidateType@CChartItem@@QAEXXZ 1002c440 f   ChartItem.obj
 0001:0002b550       ?InvokeAddInNews@CChartItem@@QAEHPBDFJ@Z 1002c550 f   ChartItem.obj
 0001:0002b590       ?InvokeAddInPattern@CChartItem@@QAEHPBDFJ@Z 1002c590 f   ChartItem.obj
 0001:0002b680       ?InvokeAddInPeriod@CChartItem@@QAEHPBDFJ@Z 1002c680 f   ChartItem.obj
 0001:0002b6c0       ?InvokeAddInSTIndex@CChartItem@@QAEHPBDFJ@Z 1002c6c0 f   ChartItem.obj
 0001:0002b730       ?InvokeEvent2@CBaseDesk@@UAEHPBD00@Z 1002c730 f i ChartItem.obj
 0001:0002b740       ?InvokeEvent2@CXIBaseDesk@CChartItem@@UAEHPBD00@Z 1002c740 f   ChartItem.obj
 0001:0002b750       ?InvokeEvent@CBaseDesk@@UAEHPAUHWND__@@PBD1@Z 1002c750 f i ChartItem.obj
 0001:0002b760       ?InvokeEvent@CXIBaseDesk@CChartItem@@UAEHPAUHWND__@@PBD1@Z 1002c760 f   ChartItem.obj
 0001:0002b7d0       ?IsAddMode@CChartItem@@QAEHXZ 1002c7d0 f   ChartItem.obj
 0001:0002b820       ?IsAvailableForReplay@CChartItem@@QAEHXZ 1002c820 f   ChartItem.obj
 0001:0002b990       ?IsAvailibleCode@CChartItem@@QAEHPBD@Z 1002c990 f   ChartItem.obj
 0001:0002b9a0       ?IsPrimaryChartItemData@CChartItem@@QAEHPAVCChartItemData@@@Z 1002c9a0 f   ChartItem.obj
 0001:0002b9d0       ?LSaveandOpenFromAnalToolFile@CChartItem@@QAEHPBD0HH@Z 1002c9d0 f   ChartItem.obj
 0001:0002ba50       ?LoadChartInfo@CChartItem@@QAEHPBDHHH0@Z 1002ca50 f   ChartItem.obj
 0001:0002cc90       ?LoadChartSetting@CChartItem@@QAEHPBD@Z 1002dc90 f   ChartItem.obj
 0001:0002cf70       ?LoadRQInfo@CChartItem@@QAEXPBD0H0@Z 1002df70 f   ChartItem.obj
 0001:0002d760       ?LoadTickMinDayInfo@CChartItem@@QAEXV?$CStringT@DV?$StrTraitMFC_DLL@DV?$ChTraitsCRT@D@ATL@@@@@ATL@@@Z 1002e760 f   ChartItem.obj
 0001:0002dc70       ?OnDeleteChartItem@CChartItem@@QAEXPBDAAPAU_ST_SELCHART@@@Z 1002ec70 f   ChartItem.obj
 0001:0002dd40       ?OnSelectChartItem@CChartItem@@QAEXPAU_ST_SELCHART@@H@Z 1002ed40 f   ChartItem.obj
 0001:0002df80       ?OpenSignalMapScr@CChartItem@@QAEXXZ 1002ef80 f   ChartItem.obj
 0001:0002df90       ?PrintChart@CChartItem@@QAEXXZ 1002ef90 f   ChartItem.obj
 0001:0002dfa0       ?PtInRectJongmokTitle@CChartItem@@QBEHUtagPOINT@@@Z 1002efa0 f   ChartItem.obj
 0001:0002dfc0       ?ReceiveFromSTDataManager@CChartItem@@QAEHXZ 1002efc0 f   ChartItem.obj
 0001:0002dff0       ?ReceiveInitalChartData@CChartItem@@QAEJPAXJ@Z 1002eff0 f   ChartItem.obj
 0001:0002fc60       ?ReceiveLoadingChartData@CChartItem@@QAEJPAXJ@Z 10030c60 f   ChartItem.obj
 0001:00031190       ?ReceiveMarketChartData@CChartItem@@QAEJPAXJ@Z 10032190 f   ChartItem.obj
 0001:00031500       ?RemoveAllMarketData@CChartItem@@QAEXXZ 10032500 f   ChartItem.obj
 0001:000315f0       ?RemoveAt@?$CArray@PAVCChartItemData@@PAV1@@@QAEXHH@Z 100325f0 f i ChartItem.obj
 0001:00031690       ?RemoveChartItemData@CChartItem@@QAEHPBDV?$CStringT@DV?$StrTraitMFC_DLL@DV?$ChTraitsCRT@D@ATL@@@@@ATL@@@Z 10032690 f   ChartItem.obj
 0001:00031810       ?RemoveChartItem_OneData@CChartItem@@QAEHPBDV?$CStringT@DV?$StrTraitMFC_DLL@DV?$ChTraitsCRT@D@ATL@@@@@ATL@@@Z 10032810 f   ChartItem.obj
 0001:00031960       ?ResetChart@CChartItem@@QAEHXZ 10032960 f   ChartItem.obj
 0001:00031a90       ?ResetChartCfgWith@CChartItem@@QAEXF@Z 10032a90 f   ChartItem.obj
 0001:00031ad0       ?ResetData@CChartItem@@AAEXXZ 10032ad0 f   ChartItem.obj
 0001:00031df0       ?ResetOCX@CChartItem@@QAEXH@Z 10032df0 f   ChartItem.obj
 0001:00032050       ?ResetRQ@CChartItem@@QAEXXZ 10033050 f   ChartItem.obj
 0001:00032070       ?SaveChartInfo4PeriodRQ@CChartItem@@QAEHPBDH@Z 10033070 f   ChartItem.obj
 0001:00032520       ?SaveChartInfo@CChartItem@@QAEHPBDH@Z 10033520 f   ChartItem.obj
 0001:00032ac0       ?SaveChartSetting@CChartItem@@QAEHPBD@Z 10033ac0 f   ChartItem.obj
 0001:00032cb0       ?SaveRQInfo@CChartItem@@QAEXPBD0@Z 10033cb0 f   ChartItem.obj
 0001:00032e60       ?SaveandOpenFromFile@CChartItem@@QAEHPBD0HHH@Z 10033e60 f   ChartItem.obj
 0001:000331a0       ?SendKey@CBaseDesk@@UAEHPAUHWND__@@IHH@Z 100341a0 f i ChartItem.obj
 0001:000331b0       ?SendKey@CXIBaseDesk@CChartItem@@UAEHPAUHWND__@@IHH@Z 100341b0 f   ChartItem.obj
 0001:000331c0       ?SendMessageToInvoke@CChartItem@@QAEHFJJ@Z 100341c0 f   ChartItem.obj
 0001:00033280       ?Serialize@?$CArray@PAVCChartItemData@@PAV1@@@UAEXAAVCArchive@@@Z 10034280 f i ChartItem.obj
 0001:00033360       ?SetAllProperties@CChartItem@@AAEHH@Z 10034360 f   ChartItem.obj
 0001:00033430       ?SetAtGrow@?$CArray@PAVCChartItemData@@PAV1@@@QAEXHPAVCChartItemData@@@Z 10034430 f i ChartItem.obj
 0001:00033470       ?SetAutoSaveToOutside@CChartItem@@QAEX_N@Z 10034470 f   ChartItem.obj
 0001:00033480       ?SetBNormalizedMinuteTimeRule@CChartItem@@QAEXH@Z 10034480 f   ChartItem.obj
 0001:000334e0       ?SetBReplayChartMode@CChartItem@@QAEXH@Z 100344e0 f   ChartItem.obj
 0001:00033520       ?SetButton@CChartItem@@QAEXQAUtagRECT@@@Z 10034520 f   ChartItem.obj
 0001:00033650       ?SetChartConfigInfo@CChartItem@@QAEXAAUCHART_CONFIG_INFO@@@Z 10034650 f   ChartItem.obj
 0001:000336a0       ?SetChartNumericValue@CChartItem@@QAEXH@Z 100346a0 f   ChartItem.obj
 0001:00033710       ?SetChartRequestType@CChartItem@@QAEXD@Z 10034710 f   ChartItem.obj
 0001:00033720       ?SetChart_NumericValueType@CChartItem@@QAEXH@Z 10034720 f   ChartItem.obj
 0001:00033740       ?SetCntForRequest@CChartItem@@QAEXI@Z 10034740 f   ChartItem.obj
 0001:000337a0       ?SetCodeForQuery@CChartItem@@QAEXPBDV?$CStringT@DV?$StrTraitMFC_DLL@DV?$ChTraitsCRT@D@ATL@@@@@ATL@@H@Z 100347a0 f   ChartItem.obj
 0001:00033810       ?SetDayNumber@CChartItem@@QAEXV?$CStringT@DV?$StrTraitMFC_DLL@DV?$ChTraitsCRT@D@ATL@@@@@ATL@@@Z 10034810 f   ChartItem.obj
 0001:000338a0       ?SetDrdsAdvise@CChartItem@@AAEHJ@Z 100348a0 f   ChartItem.obj
 0001:00033ac0       ?SetEndDate@CChartItem@@QAEXPBD@Z 10034ac0 f   ChartItem.obj
 0001:00033bc0       ?SetEndDateRequested@CChartItem@@QAEXPBD@Z 10034bc0 f   ChartItem.obj
 0001:00033ce0       ?SetExcelData@CChartItem@@QAEXXZ 10034ce0 f   ChartItem.obj
 0001:00033cf0       ?SetHourNumber@CChartItem@@QAEXV?$CStringT@DV?$StrTraitMFC_DLL@DV?$ChTraitsCRT@D@ATL@@@@@ATL@@@Z 10034cf0 f   ChartItem.obj
 0001:00033d80       ?SetInit@CChartItem@@QAEXJJPBDH@Z 10034d80 f   ChartItem.obj
 0001:00033fb0       ?SetMapMessage@CBaseDesk2@@UAEXJPBD@Z 10034fb0 f i ChartItem.obj
 0001:00033fc0       ?SetMapMessage@CXIBaseDesk@CChartItem@@UAEXJPBD@Z 10034fc0 f   ChartItem.obj
 0001:00033fd0       ?SetMinNumber@CChartItem@@QAEXV?$CStringT@DV?$StrTraitMFC_DLL@DV?$ChTraitsCRT@D@ATL@@@@@ATL@@@Z 10034fd0 f   ChartItem.obj
 0001:00034060       ?SetNew_BNormalizedMinuteTimeRule@CChartItem@@QAEXH@Z 10035060 f   ChartItem.obj
 0001:00034080       ?SetNew_OnePageDataCount@CChartItem@@QAEXH@Z 10035080 f   ChartItem.obj
 0001:000340a0       ?SetNext@CChartItem@@QAEXH@Z 100350a0 f   ChartItem.obj
 0001:000340c0       ?SetOldChartCode@CChartItem@@QAEXV?$CStringT@DV?$StrTraitMFC_DLL@DV?$ChTraitsCRT@D@ATL@@@@@ATL@@@Z 100350c0 f   ChartItem.obj
 0001:00034120       ?SetPacketData@CChartItem@@QAEHPBDJJH@Z 10035120 f   ChartItem.obj
 0001:00034300       ?SetPtrST@CChartItem@@QAEXJPBD@Z 10035300 f   ChartItem.obj
 0001:00034320       ?SetQueryOpt@CChartItem@@QAEXH@Z 10035320 f   ChartItem.obj
 0001:00034360       ?SetRealPriceData@CChartItem@@QAEXPAXJ@Z 10035360 f   ChartItem.obj
 0001:00034d00       ?SetRealYPriceData@CChartItem@@QAEXPAXJ@Z 10035d00 f   ChartItem.obj
 0001:000351c0       ?SetReplayChart_RealData@CChartItem@@QAEXV?$CStringT@DV?$StrTraitMFC_DLL@DV?$ChTraitsCRT@D@ATL@@@@@ATL@@00@Z 100361c0 f   ChartItem.obj
 0001:00035460       ?SetReplay_CurDate@CChartItem@@QAEXV?$CStringT@DV?$StrTraitMFC_DLL@DV?$ChTraitsCRT@D@ATL@@@@@ATL@@@Z 10036460 f   ChartItem.obj
 0001:00035570       ?SetReplay_PrePrice@CChartItem@@QAEXV?$CStringT@DV?$StrTraitMFC_DLL@DV?$ChTraitsCRT@D@ATL@@@@@ATL@@@Z 10036570 f   ChartItem.obj
 0001:00035660       ?SetRowNCol@CChartItem@@QAEXJJ@Z 10036660 f   ChartItem.obj
 0001:00035680       ?SetSTRunSTPath@CChartItem@@QAEXV?$CStringT@DV?$StrTraitMFC_DLL@DV?$ChTraitsCRT@D@ATL@@@@@ATL@@@Z 10036680 f   ChartItem.obj
 0001:000356f0       ?SetSaveAllCount@CChartItem@@QAEXH@Z 100366f0 f   ChartItem.obj
 0001:00035700       ?SetSecNumber@CChartItem@@QAEXV?$CStringT@DV?$StrTraitMFC_DLL@DV?$ChTraitsCRT@D@ATL@@@@@ATL@@@Z 10036700 f   ChartItem.obj
 0001:00035790       ?SetSignalData@CChartItem@@QAEXV?$CStringT@DV?$StrTraitMFC_DLL@DV?$ChTraitsCRT@D@ATL@@@@@ATL@@PAEH@Z 10036790 f   ChartItem.obj
 0001:000357a0       ?SetSize@?$CArray@PAVCChartItemData@@PAV1@@@QAEXHH@Z 100367a0 f i ChartItem.obj
 0001:00035980       ?SetSystemTradingIndexByTab@CChartItem@@QAEXPAVCStringArray@@@Z 10036980 f   ChartItem.obj
 0001:00035a00       ?SetTickMinDayNumber@CChartItem@@QAEXI@Z 10036a00 f   ChartItem.obj
 0001:00035b20       ?SetTickNumber@CChartItem@@QAEXV?$CStringT@DV?$StrTraitMFC_DLL@DV?$ChTraitsCRT@D@ATL@@@@@ATL@@@Z 10036b20 f   ChartItem.obj
 0001:00035bb0       ?SetType@CChartItem@@QAEXD@Z 10036bb0 f   ChartItem.obj
 0001:00035bd0       ?SetUseLogValue@CChartItem@@QAEXH@Z 10036bd0 f   ChartItem.obj
 0001:00035bf0       ?SetUseRevisedValue@CChartItem@@QAEXH@Z 10036bf0 f   ChartItem.obj
 0001:00035c40       ?SetViewCountFlag@CChartItem@@QAEXH@Z 10036c40 f   ChartItem.obj
 0001:00035c50       ?ShowLock@CChartItem@@QAEXH@Z 10036c50 f   ChartItem.obj
 0001:00035c60       ?SyncMonthGapRev@CChartItem@@QAEHXZ 10036c60 f   ChartItem.obj
 0001:00035c90       ?THREAD_SEND2SERVER@@YAIPAX@Z 10036c90 f   ChartItem.obj
 0001:00035cb0       ?UpdateSystemTradingIndexByTab@CChartItem@@QAEXXZ 10036cb0 f   ChartItem.obj
 0001:00035d00       ?_DoGetColor@CChartItem@@QAEXAAKHNNH@Z 10036d00 f   ChartItem.obj
 0001:00035da0       ?_GetBaseClass@CChartItem@@KGPAUCRuntimeClass@@XZ 10036da0 f   ChartItem.obj
 0001:00035db0       ?_doCheckCodeAndTR@CChartItem@@QAEHPAD0PAV?$CStringT@DV?$StrTraitMFC_DLL@DV?$ChTraitsCRT@D@ATL@@@@@ATL@@PBD2@Z 10036db0 f   ChartItem.obj
 0001:000360f0       ?_doCheckRQCount@CChartItem@@QAEHV?$CStringT@DV?$StrTraitMFC_DLL@DV?$ChTraitsCRT@D@ATL@@@@@ATL@@@Z 100370f0 f   ChartItem.obj
 0001:00036210       ??0CChartItemData@@QAE@PAVCChartItem@@V?$CStringT@DV?$StrTraitMFC_DLL@DV?$ChTraitsCRT@D@ATL@@@@@ATL@@@Z 10037210 f   ChartItemData.obj
 0001:000363b0       ??1CChartItemData@@UAE@XZ  100373b0 f   ChartItemData.obj
 0001:00036570       ??_GCChartItemData@@UAEPAXI@Z 10037570 f i ChartItemData.obj
 0001:00036570       ??_ECChartItemData@@UAEPAXI@Z 10037570 f i ChartItemData.obj
 0001:000365a0       ?AddGraphPriceChart2NewItem@CChartItemData@@QAEXAAH0H@Z 100375a0 f   ChartItemData.obj
 0001:00036640       ?AddGraphPriceChart@CChartItemData@@QAEXXZ 10037640 f   ChartItemData.obj
 0001:000366c0       ?AddGraphPriceChart_Overlapp@CChartItemData@@QAEXAAH0@Z 100376c0 f   ChartItemData.obj
 0001:000367a0       ?AddLoadedPacket@CChartItemData@@QAEHPBDPAU_ST_SELCHART@@@Z 100377a0 f   ChartItemData.obj
 0001:00036c30       ?AddPacketAndGraph2@CChartItemData@@QAEHHH@Z 10037c30 f   ChartItemData.obj
 0001:00037ce0       ?AddPacketAndGraph@CChartItemData@@QAEHH@Z 10038ce0 f   ChartItemData.obj
 0001:00038b30       ?AddPacketAndGraphAnal@CChartItemData@@QAEHXZ 10039b30 f   ChartItemData.obj
 0001:00038b40       ?AddRealItem@CChartItemData@@QAEXXZ 10039b40 f   ChartItemData.obj
 0001:000391d0       ?ChangePacketNameArray@CChartItemData@@QAEXPBD@Z 1003a1d0 f   ChartItemData.obj
 0001:000392a0       ?ClearChartItemData@CChartItemData@@QAEHXZ 1003a2a0 f   ChartItemData.obj
 0001:00039410       ?ClearData@CChartItemData@@QAEXXZ 1003a410 f   ChartItemData.obj
 0001:00039420       ?GetChartItemDataTitle@CChartItemData@@QAE?AV?$CStringT@DV?$StrTraitMFC_DLL@DV?$ChTraitsCRT@D@ATL@@@@@ATL@@J@Z 1003a420 f   ChartItemData.obj
 0001:00039470       ?GetCntChartItemDataTitle@CChartItemData@@QAEJXZ 1003a470 f   ChartItemData.obj
 0001:00039480       ?GetCntForQuery@CChartItemData@@QAEJH@Z 1003a480 f   ChartItemData.obj
 0001:000394d0       ?GetData@CChartItemData@@QAEJXZ 1003a4d0 f   ChartItemData.obj
 0001:000395a0       ?GetEndDate@CChartItemData@@QAE?AV?$CStringT@DV?$StrTraitMFC_DLL@DV?$ChTraitsCRT@D@ATL@@@@@ATL@@XZ 1003a5a0 f   ChartItemData.obj
 0001:00039640       ?GetLTrCode@CChartItemData@@QAEJXZ 1003a640 f   ChartItemData.obj
 0001:00039650       ?GetMarketQueryData_ChartItemData@CChartItemData@@QAE?AV?$CStringT@DV?$StrTraitMFC_DLL@DV?$ChTraitsCRT@D@ATL@@@@@ATL@@HI@Z 1003a650 f   ChartItemData.obj
 0001:000396b0       ?GetMaximumRequestCnt@CChartItemData@@QAEJXZ 1003a6b0 f   ChartItemData.obj
 0001:00039740       ?GetPacketName@CChartItemData@@QAE?AV?$CStringT@DV?$StrTraitMFC_DLL@DV?$ChTraitsCRT@D@ATL@@@@@ATL@@XZ 1003a740 f   ChartItemData.obj
 0001:00039820       ?GetPstrPacketName@CChartItemData@@QAEPAV?$CStringT@DV?$StrTraitMFC_DLL@DV?$ChTraitsCRT@D@ATL@@@@@ATL@@JJPAV23@0@Z 1003a820 f   ChartItemData.obj
 0001:00039970       ?GetQueryData@CChartItemData@@QAE?AV?$CStringT@DV?$StrTraitMFC_DLL@DV?$ChTraitsCRT@D@ATL@@@@@ATL@@HPAU_ST_SELCHART@@@Z 1003a970 f   ChartItemData.obj
 0001:00039b70       ?GetQueryDataMarket@CChartItemData@@QAE?AV?$CStringT@DV?$StrTraitMFC_DLL@DV?$ChTraitsCRT@D@ATL@@@@@ATL@@HH@Z 1003ab70 f   ChartItemData.obj
 0001:00039fc0       ?GetQueryData_KB_d1013@CChartItemData@@QAE?AV?$CStringT@DV?$StrTraitMFC_DLL@DV?$ChTraitsCRT@D@ATL@@@@@ATL@@HPAU_ST_SELCHART@@@Z 1003afc0 f   ChartItemData.obj
 0001:0003a4c0       ?GetQueryData_KB_p0515@CChartItemData@@QAE?AV?$CStringT@DV?$StrTraitMFC_DLL@DV?$ChTraitsCRT@D@ATL@@@@@ATL@@HPAU_ST_SELCHART@@@Z 1003b4c0 f   ChartItemData.obj
 0001:0003a7b0       ?GetQueryData_KB_p0602@CChartItemData@@QAE?AV?$CStringT@DV?$StrTraitMFC_DLL@DV?$ChTraitsCRT@D@ATL@@@@@ATL@@HPAU_ST_SELCHART@@@Z 1003b7b0 f   ChartItemData.obj
 0001:0003ad10       ?GetQueryData_KB_p0603@CChartItemData@@QAE?AV?$CStringT@DV?$StrTraitMFC_DLL@DV?$ChTraitsCRT@D@ATL@@@@@ATL@@HPAU_ST_SELCHART@@@Z 1003bd10 f   ChartItemData.obj
 0001:0003b1f0       ?GetQueryData_KB_p0604@CChartItemData@@QAE?AV?$CStringT@DV?$StrTraitMFC_DLL@DV?$ChTraitsCRT@D@ATL@@@@@ATL@@HPAU_ST_SELCHART@@@Z 1003c1f0 f   ChartItemData.obj
 0001:0003b780       ?GetQueryData_KB_p0606@CChartItemData@@QAE?AV?$CStringT@DV?$StrTraitMFC_DLL@DV?$ChTraitsCRT@D@ATL@@@@@ATL@@HPAU_ST_SELCHART@@@Z 1003c780 f   ChartItemData.obj
 0001:0003bbb0       ?GetTrCode@CChartItemData@@QAE?AV?$CStringT@DV?$StrTraitMFC_DLL@DV?$ChTraitsCRT@D@ATL@@@@@ATL@@XZ 1003cbb0 f   ChartItemData.obj
 0001:0003bbd0       ?Init@CChartItemData@@QAEXPAVCChartItem@@V?$CStringT@DV?$StrTraitMFC_DLL@DV?$ChTraitsCRT@D@ATL@@@@@ATL@@@Z 1003cbd0 f   ChartItemData.obj
 0001:0003bcf0       ?IsFilled@CChartItemData@@QAEHXZ 1003ccf0 f   ChartItemData.obj
 0001:0003bd00       ?MakeChartData@CChartItemData@@QAEHPAXJPAU_ST_SELCHART@@@Z 1003cd00 f   ChartItemData.obj
 0001:0003be30       ?MakeChartData_KB_d1013@CChartItemData@@QAEHPAXJPAU_ST_SELCHART@@@Z 1003ce30 f   ChartItemData.obj
 0001:0003c0a0       ?MakeChartData_KB_p0515@CChartItemData@@QAEHPAXJPAU_ST_SELCHART@@@Z 1003d0a0 f   ChartItemData.obj
 0001:0003c2f0       ?MakeChartData_KB_p0602@CChartItemData@@QAEHPAXJPAU_ST_SELCHART@@@Z 1003d2f0 f   ChartItemData.obj
 0001:0003c550       ?MakeChartData_KB_p0603@CChartItemData@@QAEHPAXJPAU_ST_SELCHART@@@Z 1003d550 f   ChartItemData.obj
 0001:0003c890       ?MakeChartData_KB_p0604@CChartItemData@@QAEHPAXJPAU_ST_SELCHART@@@Z 1003d890 f   ChartItemData.obj
 0001:0003cb80       ?MakeChartData_KB_p0606@CChartItemData@@QAEHPAXJPAU_ST_SELCHART@@@Z 1003db80 f   ChartItemData.obj
 0001:0003ce00       ?MakeChartMarektData@CChartItemData@@QAEHPAXJPAU_ST_SELCHART@@@Z 1003de00 f   ChartItemData.obj
 0001:0003d340       ?MakeGraphOption@CChartItemData@@SA?AV?$CStringT@DV?$StrTraitMFC_DLL@DV?$ChTraitsCRT@D@ATL@@@@@ATL@@PBD0AAVCStringArray@@0JKKKKKKHHJJH@Z 1003e340 f   ChartItemData.obj
 0001:0003d5f0       ?MakePacketOption@CChartItemData@@QAE?AV?$CStringT@DV?$StrTraitMFC_DLL@DV?$ChTraitsCRT@D@ATL@@@@@ATL@@PBDJ0HV23@@Z 1003e5f0 f   ChartItemData.obj
 0001:0003d710       ?OnSelectChartItem@CChartItemData@@QAEXPAU_ST_SELCHART@@@Z 1003e710 f   ChartItemData.obj
 0001:0003d860       ?ProcRequestCntAfterQuery@CChartItemData@@QAEHJ@Z 1003e860 f   ChartItemData.obj
 0001:0003d8e0       ?RemoveData@CChartItemData@@QAEHXZ 1003e8e0 f   ChartItemData.obj
 0001:0003d9c0       ?RemovePacketAndGraph@CChartItemData@@QAEHXZ 1003e9c0 f   ChartItemData.obj
 0001:0003dac0       ?RemoveRealItem@CChartItemData@@QAEXXZ 1003eac0 f   ChartItemData.obj
 0001:0003db70       ?SetChartNumericValue@CChartItemData@@QAEXH@Z 1003eb70 f   ChartItemData.obj
 0001:0003dca0       ?SetCodeForQuery@CChartItemData@@QAEXPBDH@Z 1003eca0 f   ChartItemData.obj
 0001:0003dcd0       ?SetLoadedPacketData@CChartItemData@@QAEHPBDPAU_ST_SELCHART@@@Z 1003ecd0 f   ChartItemData.obj
 0001:0003dd50       ?SetPacketData@CChartItemData@@QAEHH@Z 1003ed50 f   ChartItemData.obj
 0001:0003df40       ?SetPacketDataInAdditionPacket@CChartItemData@@QAEHH@Z 1003ef40 f   ChartItemData.obj
 0001:0003e120       ?SetTRCode@CChartItemData@@QAEXPBD@Z 1003f120 f   ChartItemData.obj
 0001:0003e240       ??0CChartListDlg@@QAE@PAVCWnd@@@Z 1003f240 f   ChartListDlg.obj
 0001:0003e2f0       ??1CRscDlg@@UAE@XZ         1003f2f0 f i ChartListDlg.obj
 0001:0003e300       ??_GCChartListDlg@@UAEPAXI@Z 1003f300 f i ChartListDlg.obj
 0001:0003e300       ??_ECChartListDlg@@UAEPAXI@Z 1003f300 f i ChartListDlg.obj
 0001:0003e370       ??_GCListCtrl@@UAEPAXI@Z   1003f370 f i ChartListDlg.obj
 0001:0003e370       ??_ECListCtrl@@UAEPAXI@Z   1003f370 f i ChartListDlg.obj
 0001:0003e3b0       ?AddRow@CChartListDlg@@QAEXPBD0@Z 1003f3b0 f   ChartListDlg.obj
 0001:0003e400       ?DeleteFileA@CChartListDlg@@QAEXH@Z 1003f400 f   ChartListDlg.obj
 0001:0003e890       ?DoDataExchange@CChartListDlg@@MAEXPAVCDataExchange@@@Z 1003f890 f   ChartListDlg.obj
 0001:0003e8c0       ?DoDirFileRemove@CAZUtil_FileManager@@SAHPBD0H@Z 1003f8c0 f i ChartListDlg.obj
 0001:0003ea70       ?DoDirectoryMove@CAZUtil_FileManager@@SAHPBD00HH@Z 1003fa70 f i ChartListDlg.obj
 0001:0003ecb0       ?DoRemoveDirectory@CAZUtil_FileManager@@SAHPBD@Z 1003fcb0 f i ChartListDlg.obj
 0001:0003ed30       ?GetMessageMap@CChartListDlg@@MBEPBUAFX_MSGMAP@@XZ 1003fd30 f   ChartListDlg.obj
 0001:0003ed40       ?GetThisMessageMap@CChartListDlg@@KGPBUAFX_MSGMAP@@XZ 1003fd40 f   ChartListDlg.obj
 0001:0003ed50       ?OnAdd@CChartListDlg@@IAEXXZ 1003fd50 f   ChartListDlg.obj
 0001:0003f0c0       ?OnBtndelete@CChartListDlg@@IAEXXZ 100400c0 f   ChartListDlg.obj
 0001:0003f230       ?OnBtnnew@CChartListDlg@@IAEXXZ 10040230 f   ChartListDlg.obj
 0001:0003f240       ?OnClickListchart@CChartListDlg@@IAEXPAUtagNMHDR@@PAJ@Z 10040240 f   ChartListDlg.obj
 0001:0003f310       ?OnDblclkListchart@CChartListDlg@@IAEXXZ 10040310 f   ChartListDlg.obj
 0001:0003f4c0       ?OnInitDialog@CChartListDlg@@MAEHXZ 100404c0 f   ChartListDlg.obj
 0001:0003f7f0       ?OnItemdown@CChartListDlg@@IAEXXZ 100407f0 f   ChartListDlg.obj
 0001:0003f850       ?OnItemup@CChartListDlg@@IAEXXZ 10040850 f   ChartListDlg.obj
 0001:0003f8a0       ?OnOK@CChartListDlg@@MAEXXZ 100408a0 f   ChartListDlg.obj
 0001:0003fa00       ?OnRename@CChartListDlg@@IAEXXZ 10040a00 f   ChartListDlg.obj
 0001:0003fc10       ?SetUserPath@CChartListDlg@@QAEXPBD0@Z 10040c10 f   ChartListDlg.obj
 0001:0003fc70       ?SwapData@CChartListDlg@@QAEXHH@Z 10040c70 f   ChartListDlg.obj
 0001:0003fd70       ?WriteIndexFile@CChartListDlg@@QAEXXZ 10040d70 f   ChartListDlg.obj
 0001:0003ff20       ?_DoMoveToSaveDir@CChartListDlg@@IAEXPBDH@Z 10040f20 f   ChartListDlg.obj
 0001:0003ffd0       ?_DoRemoveSaveFiles@CChartListDlg@@IAEXPBD@Z 10040fd0 f   ChartListDlg.obj
 0001:00040090       ??$CompareElements@HH@@YGHPBH0@Z 10041090 f i ChartMng.obj
 0001:000400c0       ??$SerializeElements@H@@YGXAAVCArchive@@PAHH@Z 100410c0 f i ChartMng.obj
 0001:00040170       ??0?$CArray@HH@@QAE@XZ     10041170 f i ChartMng.obj
 0001:000401a0       ??0?$CMap@HHV?$CStringT@DV?$StrTraitMFC_DLL@DV?$ChTraitsCRT@D@ATL@@@@@ATL@@V12@@@QAE@H@Z 100411a0 f i ChartMng.obj
 0001:000401e0       ??0CChartMng@@QAE@XZ       100411e0 f   ChartMng.obj
 0001:00040770       ??0__STHIGHLIGHTCHARTINFO@@QAE@XZ 10041770 f i ChartMng.obj
 0001:00040780       ??1?$CArray@HH@@UAE@XZ     10041780 f i ChartMng.obj
 0001:000407a0       ??1?$CMap@HHV?$CStringT@DV?$StrTraitMFC_DLL@DV?$ChTraitsCRT@D@ATL@@@@@ATL@@V12@@@UAE@XZ 100417a0 f i ChartMng.obj
 0001:000407f0       ??1CChartListDlg@@UAE@XZ   100417f0 f i ChartMng.obj
 0001:00040830       ??1CChartMng@@UAE@XZ       10041830 f   ChartMng.obj
 0001:00040a40       ??1CMenu@@UAE@XZ           10041a40 f i ChartMng.obj
 0001:00040a90       ??1STINPUTCODEDATA2@@QAE@XZ 10041a90 f i ChartMng.obj
 0001:00040aa0       ??1STSHAREDDATA@@QAE@XZ    10041aa0 f i ChartMng.obj
 0001:00040ac0       ??1__STHIGHLIGHTCHARTINFO@@QAE@XZ 10041ac0 f i ChartMng.obj
 0001:00040ad0       ??1stChartInitData@@QAE@XZ 10041ad0 f i ChartMng.obj
 0001:00040b20       ??1stSend2Server@@QAE@XZ   10041b20 f i ChartMng.obj
 0001:00040b30       ??9ATL@@YA_NABV?$CStringT@DV?$StrTraitMFC_DLL@DV?$ChTraitsCRT@D@ATL@@@@@0@0@Z 10041b30 f i ChartMng.obj
 0001:00040b50       ??A?$CMap@HHV?$CStringT@DV?$StrTraitMFC_DLL@DV?$ChTraitsCRT@D@ATL@@@@@ATL@@V12@@@QAEAAV?$CStringT@DV?$StrTraitMFC_DLL@DV?$ChTraitsCRT@D@ATL@@@@@ATL@@H@Z 10041b50 f i ChartMng.obj
 0001:00040c60       ??_E?$CArray@HH@@UAEPAXI@Z 10041c60 f i ChartMng.obj
 0001:00040c60       ??_G?$CArray@HH@@UAEPAXI@Z 10041c60 f i ChartMng.obj
 0001:00040cb0       ??_G?$CMap@HHV?$CStringT@DV?$StrTraitMFC_DLL@DV?$ChTraitsCRT@D@ATL@@@@@ATL@@V12@@@UAEPAXI@Z 10041cb0 f i ChartMng.obj
 0001:00040cb0       ??_E?$CMap@HHV?$CStringT@DV?$StrTraitMFC_DLL@DV?$ChTraitsCRT@D@ATL@@@@@ATL@@V12@@@UAEPAXI@Z 10041cb0 f i ChartMng.obj
 0001:00040d40       ??_GCChartMng@@UAEPAXI@Z   10041d40 f i ChartMng.obj
 0001:00040d40       ??_ECChartMng@@UAEPAXI@Z   10041d40 f i ChartMng.obj
 0001:00040d80       ??_ECMenu@@UAEPAXI@Z       10041d80 f i ChartMng.obj
 0001:00040d80       ??_GCMenu@@UAEPAXI@Z       10041d80 f i ChartMng.obj
 0001:00040e10       ?AddConcPacketData@CChartMng@@QAEXPBDH0H0H0H0H@Z 10041e10 f   ChartMng.obj
 0001:00040ef0       ?AddConcPacketGraph@CChartMng@@QAEXXZ 10041ef0 f   ChartMng.obj
 0001:00040f70       ?AddMainMenuToPlatformMenu@CChartMng@@AAEXPAUHMENU__@@@Z 10041f70 f   ChartMng.obj
 0001:00041180       ?AddMarketData@CChartMng@@AAEHV?$CStringT@DV?$StrTraitMFC_DLL@DV?$ChTraitsCRT@D@ATL@@@@@ATL@@H@Z 10042180 f   ChartMng.obj
 0001:000411a0       ?AddRealCodeList@CChartMng@@QAEXPBD@Z 100421a0 f   ChartMng.obj
 0001:000411c0       ?AddTail@?$CList@U__STHIGHLIGHTCHARTINFO@@U1@@@QAEPAU__POSITION@@U__STHIGHLIGHTCHARTINFO@@@Z 100421c0 f i ChartMng.obj
 0001:000412a0       ?AddUpjongData@CChartMng@@AAEHV?$CStringT@DV?$StrTraitMFC_DLL@DV?$ChTraitsCRT@D@ATL@@@@@ATL@@@Z 100422a0 f   ChartMng.obj
 0001:000414e0       ?ApplySyncEnv_OnlyOne@CChartMng@@QAEXXZ 100424e0 f   ChartMng.obj
 0001:00041800       ?ChartItemUnAdvise@CChartMng@@QAEXPAVCChartItem@@H@Z 10042800 f   ChartMng.obj
 0001:000418a0       ?CheckDataTypeForReplay@CChartMng@@QAEHXZ 100428a0 f   ChartMng.obj
 0001:00041910       ?Create@CChartMng@@QAEHABUtagRECT@@PAVCWnd@@PBD2IJ@Z 10042910 f   ChartMng.obj
 0001:00041b90       ?CreateFloatingHogaWnd@CChartMng@@QAEXH@Z 10042b90 f   ChartMng.obj
 0001:00041cd0       ?DestroyFloatingHogaWnd@CChartMng@@QAEXXZ 10042cd0 f   ChartMng.obj
 0001:00041e10       ?DoDirFileCopy@CAZUtil_FileManager@@SAHPBD00H@Z 10042e10 f i ChartMng.obj
 0001:00041ff0       ?DoSiteMenuCall@CChartMng@@AAEXH@Z 10042ff0 f   ChartMng.obj
 0001:00042160       ?ExtendChart@CChartMng@@AAEXH@Z 10043160 f   ChartMng.obj
 0001:000423f0       ?FindSelectChartByItemCode@CChartMng@@QAEHPBDH@Z 100433f0 f   ChartMng.obj
 0001:00042430       ?GetAssocAt@?$CMap@HHV?$CStringT@DV?$StrTraitMFC_DLL@DV?$ChTraitsCRT@D@ATL@@@@@ATL@@V12@@@IBEPAVCAssoc@1@HAAI0@Z 10043430 f i ChartMng.obj
 0001:000424a0       ?GetAutoSaveToOutside@CChartMng@@QAE_NAA_N@Z 100434a0 f   ChartMng.obj
 0001:000424f0       ?GetChartAllCode@CChartMng@@QAEXAAVCStringArray@@@Z 100434f0 f   ChartMng.obj
 0001:00042650       ?GetCurSelChartItemJMName@CChartMng@@QAE?AV?$CStringT@DV?$StrTraitMFC_DLL@DV?$ChTraitsCRT@D@ATL@@@@@ATL@@XZ 10043650 f   ChartMng.obj
 0001:000426b0       ?GetCurStatusInfo@CChartMng@@QAEXAADAAV?$CStringT@DV?$StrTraitMFC_DLL@DV?$ChTraitsCRT@D@ATL@@@@@ATL@@11AAJ@Z 100436b0 f   ChartMng.obj
 0001:000427d0       ?GetDlgToolBtnToggle@CChartMng@@AAEHAAV?$CArray@HH@@00000AAV?$CMap@HHV?$CStringT@DV?$StrTraitMFC_DLL@DV?$ChTraitsCRT@D@ATL@@@@@ATL@@V12@@@@Z 100437d0 f   ChartMng.obj
 0001:00042910       ?GetImaginaryCandleToOutside@CChartMng@@QAE_NAA_N@Z 10043910 f   ChartMng.obj
 0001:00042960       ?GetIndicatorNameList@CChartMng@@AAE?AV?$CStringT@DV?$StrTraitMFC_DLL@DV?$ChTraitsCRT@D@ATL@@@@@ATL@@PBD@Z 10043960 f   ChartMng.obj
 0001:000429c0       ?GetIndicatorNameListIntoArray@CChartMng@@QAEXPAVCStringArray@@PBD@Z 100439c0 f   ChartMng.obj
 0001:00043100       ?GetIndicatorNameListIntoComboBox@CChartMng@@QAEXAAVCComboBox@@PBD@Z 10044100 f   ChartMng.obj
 0001:00043570       ?GetIndicatorNameListIntoListCtrl@CChartMng@@QAEXAAVCXListCtrl@@PBD@Z 10044570 f   ChartMng.obj
 0001:00043a50       ?GetIndicatorNameListIntoTreeCtrl@CChartMng@@QAEXAAVCTreeCtrl@@@Z 10044a50 f   ChartMng.obj
 0001:00043bb0       ?GetJongMokNameByCode@CChartMng@@QAE?AV?$CStringT@DV?$StrTraitMFC_DLL@DV?$ChTraitsCRT@D@ATL@@@@@ATL@@PBD0@Z 10044bb0 f   ChartMng.obj
 0001:00043be0       ?GetJongmokCodes@CChartMng@@AAEXPAVCStringList@@PAV?$CList@U__STHIGHLIGHTCHARTINFO@@U1@@@@Z 10044be0 f   ChartMng.obj
 0001:00043d90       ?GetJongmokLink@CChartMng@@QAEHXZ 10044d90 f   ChartMng.obj
 0001:00043da0       ?GetMessageMap@CChartMng@@MBEPBUAFX_MSGMAP@@XZ 10044da0 f   ChartMng.obj
 0001:00043db0       ?GetOldCode@CChartMng@@QAE?AV?$CStringT@DV?$StrTraitMFC_DLL@DV?$ChTraitsCRT@D@ATL@@@@@ATL@@XZ 10044db0 f   ChartMng.obj
 0001:00043e10       ?GetPacketCount@CChartMng@@QAEJPBD@Z 10044e10 f   ChartMng.obj
 0001:00043e50       ?GetPacketData@CChartMng@@QAE?AV?$CStringT@DV?$StrTraitMFC_DLL@DV?$ChTraitsCRT@D@ATL@@@@@ATL@@PBDF@Z 10044e50 f   ChartMng.obj
 0001:00043eb0       ?GetPacketIndex@CChartMng@@QAEFPBDN@Z 10044eb0 f   ChartMng.obj
 0001:00043f00       ?GetPacketNearIndex@CChartMng@@QAEFPBDN@Z 10044f00 f   ChartMng.obj
 0001:00043f50       ?GetPositionInMenu@CChartMng@@AAEHV?$CStringT@DV?$StrTraitMFC_DLL@DV?$ChTraitsCRT@D@ATL@@@@@ATL@@PAVCMenu@@@Z 10044f50 f   ChartMng.obj
 0001:00044010       ?GetRectOfChart@CChartMng@@QAE?AVCRect@@HHH@Z 10045010 f   ChartMng.obj
 0001:000442f0       ?GetRelayPossible@CChartMng@@QAEHXZ 100452f0 f   ChartMng.obj
 0001:00044390       ?GetSafeHwnd@CWnd@@QBEPAUHWND__@@XZ 10045390 f i ChartMng.obj
 0001:000443a0       ?GetSaveAnalTool@CChartMng@@QAEHXZ 100453a0 f   ChartMng.obj
 0001:000443b0       ?GetSendShareFlag@CChartMng@@QAEHXZ 100453b0 f   ChartMng.obj
 0001:000443e0       ?GetShowExRightDividendToOutside@CChartMng@@QAE_NAA_N@Z 100453e0 f   ChartMng.obj
 0001:00044430       ?GetShowHighLowBoundToOutside@CChartMng@@QAE_NAA_N@Z 10045430 f   ChartMng.obj
 0001:00044480       ?GetStartEndDateAtChartMng@CChartMng@@QAEXAAN0@Z 10045480 f   ChartMng.obj
 0001:000444d0       ?GetThisMessageMap@CChartMng@@KGPBUAFX_MSGMAP@@XZ 100454d0 f   ChartMng.obj
 0001:000444e0       ?GetTimeLinkageToOutside@CChartMng@@QAE_NAA_N@Z 100454e0 f   ChartMng.obj
 0001:00044530       ?GetpChartCfgWnd@CChartMng@@QAEPAVCChartItem@@D@Z 10045530 f   ChartMng.obj
 0001:000445c0       ?GetpChartItemSelected@CChartMng@@QAEPAVCChartItem@@XZ 100455c0 f   ChartMng.obj
 0001:000445f0       ?GoNextChart@CChartMng@@QAEXXZ 100455f0 f   ChartMng.obj
 0001:000446b0       ?HeadInLoop@CChartMng@@AAEHXZ 100456b0 f   ChartMng.obj
 0001:000450e0       ?InitHashTable@?$CMap@HHV?$CStringT@DV?$StrTraitMFC_DLL@DV?$ChTraitsCRT@D@ATL@@@@@ATL@@V12@@@QAEXIH@Z 100460e0 f i ChartMng.obj
 0001:00045150       ?InitInLoop@CChartMng@@QAEXXZ 10046150 f   ChartMng.obj
 0001:000451e0       ?InputCodeFromInputBar@CChartMng@@AAEHPAVCCodeDataFromInputBar@@H@Z 100461e0 f   ChartMng.obj
 0001:00045660       ?InsertChart@CChartMng@@QAEHXZ 10046660 f   ChartMng.obj
 0001:000456b0       ?IsAdvisingCodeOf@CChartMng@@QAEHPBD@Z 100466b0 f   ChartMng.obj
 0001:00045790       ?IsAvailableForReplay@CChartMng@@QAEHXZ 10046790 f   ChartMng.obj
 0001:00045820       ?LoadChart@CChartMng@@AAEXPAVCPoint@@@Z 10046820 f   ChartMng.obj
 0001:00045bf0       ?LoadChart@CChartMng@@QAEHV?$CStringT@DV?$StrTraitMFC_DLL@DV?$ChTraitsCRT@D@ATL@@@@@ATL@@@Z 10046bf0 f   ChartMng.obj
 0001:00045d50       ?LoadDWMChart@CChartMng@@QAEHXZ 10046d50 f   ChartMng.obj
 0001:00045e00       ?LoadDWMMChart@CChartMng@@AAEHH@Z 10046e00 f   ChartMng.obj
 0001:000460e0       ?LoadSaveChart@CChartMng@@AAEXPAVCPoint@@@Z 100470e0 f   ChartMng.obj
 0001:00046780       ?Lookup@?$CMap@HHV?$CStringT@DV?$StrTraitMFC_DLL@DV?$ChTraitsCRT@D@ATL@@@@@ATL@@V12@@@QBEHHAAV?$CStringT@DV?$StrTraitMFC_DLL@DV?$ChTraitsCRT@D@ATL@@@@@ATL@@@Z 10047780 f i ChartMng.obj
 0001:000467c0       ?MakePlatformMenu@CChartMng@@AAEXPAUHMENU__@@@Z 100477c0 f   ChartMng.obj
 0001:00046cc0       ?MarketTRSend_By_OCXSignal@CChartMng@@QAEHHQBDHH@Z 10047cc0 f   ChartMng.obj
 0001:00046fd0       ?MoveCharts@CChartMng@@QAEXHH@Z 10047fd0 f   ChartMng.obj
 0001:00047130       ?MoveFloatingHogaDlg@CChartMng@@QAEXXZ 10048130 f   ChartMng.obj
 0001:00047260       ?MoveWindow@CWnd@@QAEXPBUtagRECT@@H@Z 10048260 f i ChartMng.obj
 0001:00047290       ?NewAssoc@?$CMap@HHV?$CStringT@DV?$StrTraitMFC_DLL@DV?$ChTraitsCRT@D@ATL@@@@@ATL@@V12@@@IAEPAVCAssoc@1@H@Z 10048290 f i ChartMng.obj
 0001:00047310       ?NewNode@?$CList@U__STHIGHLIGHTCHARTINFO@@U1@@@IAEPAUCNode@1@PAU21@0@Z 10048310 f i ChartMng.obj
 0001:00047390       ?OnAddPlatformMenu@CChartMng@@IAEJIJ@Z 10048390 f   ChartMng.obj
 0001:00047570       ?OnAllCodeUnAdvise@CChartMng@@QAEXXZ 10048570 f   ChartMng.obj
 0001:00047690       ?OnChangeVertScaleType@CChartMng@@IAEJIJ@Z 10048690 f   ChartMng.obj
 0001:000476f0       ?OnChartEnvSetupOK@CChartMng@@QAEXXZ 100486f0 f   ChartMng.obj
 0001:00047700       ?OnChartMngCodeAdvise@CChartMng@@QAEXPAVCChartItem@@H@Z 10048700 f   ChartMng.obj
 0001:00047770       ?OnChartMngCodeUnAdvise@CChartMng@@QAEXPAVCChartItem@@H@Z 10048770 f   ChartMng.obj
 0001:000478e0       ?OnCmdMsg@CChartMng@@UAEHIHPAXPAUAFX_CMDHANDLERINFO@@@Z 100488e0 f   ChartMng.obj
 0001:00047b80       ?OnCreate@CChartMng@@IAEHPAUtagCREATESTRUCTA@@@Z 10048b80 f   ChartMng.obj
 0001:00047ca0       ?OnDestroy@CChartMng@@IAEXXZ 10048ca0 f   ChartMng.obj
 0001:00048240       ?OnEventMessage@CChartMng@@IAEJIJ@Z 10049240 f   ChartMng.obj
 0001:00048cd0       ?OnGetCurrentMode@CChartMng@@IAEJIJ@Z 10049cd0 f   ChartMng.obj
 0001:00048cf0       ?OnGetUserID@CChartMng@@IAEJIJ@Z 10049cf0 f   ChartMng.obj
 0001:00048d80       ?OnLButtonDblClk@CChartMng@@IAEXIVCPoint@@@Z 10049d80 f   ChartMng.obj
 0001:00048e60       ?OnLButtonDown@CChartMng@@IAEXIVCPoint@@@Z 10049e60 f   ChartMng.obj
 0001:00049070       ?OnLButtonUp@CChartMng@@IAEXIVCPoint@@@Z 1004a070 f   ChartMng.obj
 0001:00049190       ?OnMagnifyingGlass@CChartMng@@IAEJIJ@Z 1004a190 f   ChartMng.obj
 0001:000491c0       ?OnMouseMove@CChartMng@@IAEXIVCPoint@@@Z 1004a1c0 f   ChartMng.obj
 0001:00049280       ?OnPaint@CChartMng@@IAEXXZ 1004a280 f   ChartMng.obj
 0001:000494f0       ?OnRButtonUp@CChartMng@@IAEXIVCPoint@@@Z 1004a4f0 f   ChartMng.obj
 0001:00049720       ?OnRmgGetInfo@CChartMng@@IAEJIJ@Z 1004a720 f   ChartMng.obj
 0001:00049760       ?OnRmgSetInfo@CChartMng@@IAEJIJ@Z 1004a760 f   ChartMng.obj
 0001:00049780       ?OnSTDataManagerMessaggeAll@CChartMng@@QAEHXZ 1004a780 f   ChartMng.obj
 0001:000497f0       ?OnSetQueryOpy@CChartMng@@IAEJIJ@Z 1004a7f0 f   ChartMng.obj
 0001:00049820       ?OnSize@CChartMng@@IAEXIHH@Z 1004a820 f   ChartMng.obj
 0001:00049850       ?OnTimer@CChartMng@@IAEXI@Z 1004a850 f   ChartMng.obj
 0001:00049890       ?PaintTitle@CChartMng@@AAEXHHPAVCChartItem@@PAVCDC@@@Z 1004a890 f   ChartMng.obj
 0001:00049a40       ?PostInLoop@CChartMng@@AAEHXZ 1004aa40 f   ChartMng.obj
 0001:00049aa0       ?PreTranslateMessage@CChartMng@@UAEHPAUtagMSG@@@Z 1004aaa0 f   ChartMng.obj
 0001:00049b10       ?Rearrange@CChartMng@@AAEHJH@Z 1004ab10 f   ChartMng.obj
 0001:0004a020       ?ReceiveRealHogaData@CChartMng@@QAEXKPBDJ@Z 1004b020 f   ChartMng.obj
 0001:0004a060       ?RemoveAll@?$CMap@HHV?$CStringT@DV?$StrTraitMFC_DLL@DV?$ChTraitsCRT@D@ATL@@@@@ATL@@V12@@@QAEXXZ 1004b060 f i ChartMng.obj
 0001:0004a0d0       ?RemoveConcPacketData@CChartMng@@QAEXXZ 1004b0d0 f   ChartMng.obj
 0001:0004a150       ?ReplaceChart@CChartMng@@AAEHJJJJ@Z 1004b150 f   ChartMng.obj
 0001:0004a2a0       ?ReplaceOldCode@CChartMng@@QAEXXZ 1004b2a0 f   ChartMng.obj
 0001:0004a4a0       ?RequestAVGForGuideLine@CChartMng@@AAEXH@Z 1004b4a0 f   ChartMng.obj
 0001:0004a4b0       ?RequestChartData@CChartMng@@QAEHH@Z 1004b4b0 f   ChartMng.obj
 0001:0004a6b0       ?RequestChart_MarketData@CChartMng@@QAEHV?$CStringT@DV?$StrTraitMFC_DLL@DV?$ChTraitsCRT@D@ATL@@@@@ATL@@0PAVCChartItem@@HH@Z 1004b6b0 f   ChartMng.obj
 0001:0004a7c0       ?ResetChart@CChartMng@@QAEJXZ 1004b7c0 f   ChartMng.obj
 0001:0004a880       ?ResetChartAll@CChartMng@@AAEXH@Z 1004b880 f   ChartMng.obj
 0001:0004ac90       ?ResetOCX@CChartMng@@QAEXXZ 1004bc90 f   ChartMng.obj
 0001:0004acd0       ?RevisedPriceFlag@CChartMng@@QAEHXZ 1004bcd0 f   ChartMng.obj
 0001:0004ad10       ?SaveChart@CChartMng@@AAEXPAVCPoint@@@Z 1004bd10 f   ChartMng.obj
 0001:0004ae30       ?SaveChart@CChartMng@@QAEXV?$CStringT@DV?$StrTraitMFC_DLL@DV?$ChTraitsCRT@D@ATL@@@@@ATL@@@Z 1004be30 f   ChartMng.obj
 0001:0004afd0       ?SaveViewCount@CChartMng@@QAEXXZ 1004bfd0 f   ChartMng.obj
 0001:0004b020       ?SelectEmptyPos@CChartMng@@QAEHXZ 1004c020 f   ChartMng.obj
 0001:0004b190       ?SelectNextPos@CChartMng@@QAEHXZ 1004c190 f   ChartMng.obj
 0001:0004b1d0       ?SendInitChartData@CChartMng@@QAEXHH@Z 1004c1d0 f   ChartMng.obj
 0001:0004b590       ?SendPrevDateData@CChartMng@@QAEXXZ 1004c590 f   ChartMng.obj
 0001:0004b730       ?Serialize@?$CArray@HH@@UAEXAAVCArchive@@@Z 1004c730 f i ChartMng.obj
 0001:0004b780       ?Serialize@?$CMap@HHV?$CStringT@DV?$StrTraitMFC_DLL@DV?$ChTraitsCRT@D@ATL@@@@@ATL@@V12@@@UAEXAAVCArchive@@@Z 1004c780 f i ChartMng.obj
 0001:0004bb30       ?SetAddMode@CChartMng@@QAEXH@Z 1004cb30 f   ChartMng.obj
 0001:0004bb40       ?SetAllChartCfgSync@CChartMng@@QAEXXZ 1004cb40 f   ChartMng.obj
 0001:0004bbf0       ?SetAutoSaveToOutside@CChartMng@@QAEX_N@Z 1004cbf0 f   ChartMng.obj
 0001:0004bc30       ?SetBReplayChartMode@CChartMng@@QAEXH@Z 1004cc30 f   ChartMng.obj
 0001:0004bcb0       ?SetBaseDesk@CChartMng@@QAEXJ@Z 1004ccb0 f   ChartMng.obj
 0001:0004bd90       ?SetChartLayout@CChartMng@@QAEXH@Z 1004cd90 f   ChartMng.obj
 0001:0004be50       ?SetChartLineType@CChartItem@@QAEXV?$CStringT@DV?$StrTraitMFC_DLL@DV?$ChTraitsCRT@D@ATL@@@@@ATL@@@Z 1004ce50 f i ChartMng.obj
 0001:0004beb0       ?SetChartSelected@CChartMng@@QAEXVCPoint@@HH@Z 1004ceb0 f   ChartMng.obj
 0001:0004bfe0       ?SetDlgToolBtnToggle@CChartMng@@AAEXHH@Z 1004cfe0 f   ChartMng.obj
 0001:0004c010       ?SetEnableBoundMarkAll@CChartMng@@AAEXH@Z 1004d010 f   ChartMng.obj
 0001:0004c080       ?SetEnableBoundMarkOnlyOne@CChartMng@@QAEXH@Z 1004d080 f   ChartMng.obj
 0001:0004c0f0       ?SetEndData@CChartMng@@QAEXPBD@Z 1004d0f0 f   ChartMng.obj
 0001:0004c150       ?SetFocusToJMEdit_At_LoadEnd@CChartMng@@QAEXXZ 1004d150 f   ChartMng.obj
 0001:0004c290       ?SetInLoop@CChartMng@@QAEXH@Z 1004d290 f   ChartMng.obj
 0001:0004c2d0       ?SetJCodesNext@CChartMng@@AAEHXZ 1004d2d0 f   ChartMng.obj
 0001:0004c3b0       ?SetMarketType@CChartMng@@QAEXH@Z 1004d3b0 f   ChartMng.obj
 0001:0004c3f0       ?SetMatrix@CChartMng@@AAEHJJ@Z 1004d3f0 f   ChartMng.obj
 0001:0004c490       ?SetMultiCodes@CChartMng@@QAEXV?$CStringT@DV?$StrTraitMFC_DLL@DV?$ChTraitsCRT@D@ATL@@@@@ATL@@@Z 1004d490 f   ChartMng.obj
 0001:0004c630       ?SetParentMultiChartClassPointer@CChartMng@@QAEXJ@Z 1004d630 f   ChartMng.obj
 0001:0004c640       ?SetPriceLog@CChartMng@@QAEXH@Z 1004d640 f   ChartMng.obj
 0001:0004c670       ?SetRealJPriceData@CChartMng@@QAEXPAX@Z 1004d670 f   ChartMng.obj
 0001:0004ccc0       ?SetRealYPriceData@CChartMng@@QAEXPAX@Z 1004dcc0 f   ChartMng.obj
 0001:0004cde0       ?SetReplayChangedDate@CChartMng@@QAEXV?$CStringT@DV?$StrTraitMFC_DLL@DV?$ChTraitsCRT@D@ATL@@@@@ATL@@0@Z 1004dde0 f   ChartMng.obj
 0001:0004cf40       ?SetReplayRealTitle@CChartMng@@QAEXV?$CStringT@DV?$StrTraitMFC_DLL@DV?$ChTraitsCRT@D@ATL@@@@@ATL@@0PAU_TICK_DATA@@@Z 1004df40 f   ChartMng.obj
 0001:0004d340       ?SetSelChangeChart@CChartMng@@QAEXH@Z 1004e340 f   ChartMng.obj
 0001:0004d350       ?SetSendJongData@CChartMng@@AAEXPBDD0@Z 1004e350 f   ChartMng.obj
 0001:0004d360       ?SetShowExRightOnlyOne@CChartMng@@QAEXH@Z 1004e360 f   ChartMng.obj
 0001:0004d3b0       ?SetSize@?$CArray@HH@@QAEXHH@Z 1004e3b0 f i ChartMng.obj
 0001:0004d590       ?SetSystemTradingMode@CChartMng@@QAEXHPBD@Z 1004e590 f   ChartMng.obj
 0001:0004d750       ?SetTimeMark@CChartMng@@QAEXPBDH@Z 1004e750 f   ChartMng.obj
 0001:0004d7c0       ?SetTimeShareAll@CChartMng@@AAEXH@Z 1004e7c0 f   ChartMng.obj
 0001:0004d830       ?SetTimeShareOnlyOne@CChartMng@@QAEXH@Z 1004e830 f   ChartMng.obj
 0001:0004d8a0       ?SetType@CChartMng@@AAEHDJ@Z 1004e8a0 f   ChartMng.obj
 0001:0004d9c0       ?SetpChartCfgWnd@CChartMng@@QAEXDPAVCWnd@@@Z 1004e9c0 f   ChartMng.obj
 0001:0004da60       ?ShowAvgLine@CChartMng@@QAEXV?$CStringT@DV?$StrTraitMFC_DLL@DV?$ChTraitsCRT@D@ATL@@@@@ATL@@0@Z 1004ea60 f   ChartMng.obj
 0001:0004db70       ?ShowInnerToolbar@CChartMng@@AAEHXZ 1004eb70 f   ChartMng.obj
 0001:0004dd10       ?ShowScale@CChartMng@@AAEHXZ 1004ed10 f   ChartMng.obj
 0001:0004deb0       ?Synchro_jipyo@CChartMng@@QAEXHPBD@Z 1004eeb0 f   ChartMng.obj
 0001:0004e920       ?TailInLoop@CChartMng@@AAEHXZ 1004f920 f   ChartMng.obj
 0001:0004e9f0       ?UnhighlightJCode@CChartMng@@QAEXPAVCChartItem@@@Z 1004f9f0 f   ChartMng.obj
 0001:0004eb00       ?UpdateIndex@CChartMng@@AAEHXZ 1004fb00 f   ChartMng.obj
 0001:0004ed30       ?UpdateNumericChartValue@CChartMng@@AAEHHH@Z 1004fd30 f   ChartMng.obj
 0001:0004ed90       ?UpdateRevisedValue@CChartMng@@AAEHHH@Z 1004fd90 f   ChartMng.obj
 0001:0004ee50       ?UpdateShowingFackedCandle@CChartMng@@AAEHHH@Z 1004fe50 f   ChartMng.obj
 0001:0004ef10       ?UpdateShowingFacked_JustOneChart@CChartMng@@QAEHHH@Z 1004ff10 f   ChartMng.obj
 0001:0004efb0       ?UpdateSyncIndicator@CChartMng@@QAEXXZ 1004ffb0 f   ChartMng.obj
 0001:0004f070       ?WindowProc@CChartMng@@MAEJIIJ@Z 10050070 f   ChartMng.obj
 0001:00051be0       ?_DoMoveToSaveDir@CChartMng@@IAEXPBD@Z 10052be0 f   ChartMng.obj
 0001:00051da0       ?_DoSavedData_To_LastCode@CChartMng@@IAEXPBD@Z 10052da0 f   ChartMng.obj
 0001:00051db0       ??0CCodeDataFromInputBar@@QAE@XZ 10052db0 f   CodeDataFromInputBar.obj
 0001:00051e00       ??1CCodeDataFromInputBar@@UAE@XZ 10052e00 f   CodeDataFromInputBar.obj
 0001:00051e20       ??_ECCodeDataFromInputBar@@UAEPAXI@Z 10052e20 f i CodeDataFromInputBar.obj
 0001:00051e20       ??_GCCodeDataFromInputBar@@UAEPAXI@Z 10052e20 f i CodeDataFromInputBar.obj
 0001:00051e60       ??$SerializeElements@PAVCGetBackData@@@@YGXAAVCArchive@@PAPAVCGetBackData@@H@Z 10052e60 f i CondTarget.obj
 0001:00051f10       ??0?$CMap@HHPAVCGetBackData@@PAV1@@@QAE@H@Z 10052f10 f i CondTarget.obj
 0001:00051f50       ??0CCondTarget@@QAE@XZ     10052f50 f   CondTarget.obj
 0001:000523d0       ??1?$CMap@HHPAVCGetBackData@@PAV1@@@UAE@XZ 100533d0 f i CondTarget.obj
 0001:00052450       ??1CCondTarget@@UAE@XZ     10053450 f   CondTarget.obj
 0001:000526c0       ??1CGetBackData@@UAE@XZ    100536c0 f i CondTarget.obj
 0001:000526d0       ??A?$CMap@HHPAVCGetBackData@@PAV1@@@QAEAAPAVCGetBackData@@H@Z 100536d0 f i CondTarget.obj
 0001:000527e0       ??_G?$CMap@HHPAVCGetBackData@@PAV1@@@UAEPAXI@Z 100537e0 f i CondTarget.obj
 0001:000527e0       ??_E?$CMap@HHPAVCGetBackData@@PAV1@@@UAEPAXI@Z 100537e0 f i CondTarget.obj
 0001:000528a0       ??_ECCondTarget@@UAEPAXI@Z 100538a0 f i CondTarget.obj
 0001:000528a0       ??_GCCondTarget@@UAEPAXI@Z 100538a0 f i CondTarget.obj
 0001:000528d0       ??_GCGetBackData@@UAEPAXI@Z 100538d0 f i CondTarget.obj
 0001:000528d0       ??_ECGetBackData@@UAEPAXI@Z 100538d0 f i CondTarget.obj
 0001:00052900       ?CheckTargetResult@CCondTarget@@QAEHV?$CStringT@DV?$StrTraitMFC_DLL@DV?$ChTraitsCRT@D@ATL@@@@@ATL@@@Z 10053900 f   CondTarget.obj
 0001:000529b0       ?DelSpaceInName@CCondTarget@@QAEXXZ 100539b0 f   CondTarget.obj
 0001:00052bc0       ?FreeAssoc@?$CMap@HHPAVCGetBackData@@PAV1@@@IAEXPAVCAssoc@1@@Z 10053bc0 f i CondTarget.obj
 0001:00052c20       ?GetAssocAt@?$CMap@HHPAVCGetBackData@@PAV1@@@IBEPAVCAssoc@1@HAAI0@Z 10053c20 f i CondTarget.obj
 0001:00052c90       ?GetData_PortItem@CCondTarget@@QAEHAAVCStringArray@@0H@Z 10053c90 f   CondTarget.obj
 0001:00052f70       ?GetItemCodeFromThemeGroup@CCondTarget@@QAEXAAVCStringArray@@V?$CStringT@DV?$StrTraitMFC_DLL@DV?$ChTraitsCRT@D@ATL@@@@@ATL@@@Z 10053f70 f   CondTarget.obj
 0001:00053380       ?GetMarketCode@CCondTarget@@QAE?AV?$CStringT@DV?$StrTraitMFC_DLL@DV?$ChTraitsCRT@D@ATL@@@@@ATL@@V23@0@Z 10054380 f   CondTarget.obj
 0001:000534f0       ?GetNextAssoc@?$CMap@HHPAVCGetBackData@@PAV1@@@QBEXAAPAU__POSITION@@AAHAAPAVCGetBackData@@@Z 100544f0 f i CondTarget.obj
 0001:00053570       ?GetProfileIntA@CCondTarget@@QAEHV?$CStringT@DV?$StrTraitMFC_DLL@DV?$ChTraitsCRT@D@ATL@@@@@ATL@@00@Z 10054570 f   CondTarget.obj
 0001:000535e0       ?GetStockMasterData@CCondTarget@@QAEHAAVCStringArray@@0@Z 100545e0 f   CondTarget.obj
 0001:000538a0       ?InitHashTable@?$CMap@HHPAVCGetBackData@@PAV1@@@QAEXIH@Z 100548a0 f i CondTarget.obj
 0001:00053910       ?LoadTdfData@CCondTarget@@QAEXPAVCGetBackData@@@Z 10054910 f   CondTarget.obj
 0001:00054110       ?Lookup@?$CMap@HHPAVCGetBackData@@PAV1@@@QBEHHAAPAVCGetBackData@@@Z 10055110 f i CondTarget.obj
 0001:00054150       ?NewAssoc@?$CMap@HHPAVCGetBackData@@PAV1@@@IAEPAVCAssoc@1@H@Z 10055150 f i CondTarget.obj
 0001:000541c0       ?Parser@CCondTarget@@QAE?AV?$CStringT@DV?$StrTraitMFC_DLL@DV?$ChTraitsCRT@D@ATL@@@@@ATL@@AAV23@V23@@Z 100551c0 f   CondTarget.obj
 0001:000542b0       ?ReceiveData@CCondTarget@@QAEXPAXJ@Z 100552b0 f   CondTarget.obj
 0001:00054780       ?RemoveAll@?$CMap@HHPAVCGetBackData@@PAV1@@@QAEXXZ 10055780 f i CondTarget.obj
 0001:000547c0       ?RemoveAll@CCondTarget@@QAEXXZ 100557c0 f   CondTarget.obj
 0001:00054800       ?RemoveAtGetBackData@CCondTarget@@QAEXH@Z 10055800 f   CondTarget.obj
 0001:00054910       ?RemoveKey@?$CMap@HHPAVCGetBackData@@PAV1@@@QAEHH@Z 10055910 f i CondTarget.obj
 0001:000549d0       ?Serialize@?$CMap@HHPAVCGetBackData@@PAV1@@@UAEXAAVCArchive@@@Z 100559d0 f i CondTarget.obj
 0001:00054df0       ?SetAt@?$CMap@HHPAVCGetBackData@@PAV1@@@QAEXHPAVCGetBackData@@@Z 10055df0 f i CondTarget.obj
 0001:00054f00       ?SetEditSubjectTarGetBit@CCondTarget@@QAEXXZ 10055f00 f   CondTarget.obj
 0001:00055300       ?SetGetBackData@CCondTarget@@QAEPAVCGetBackData@@V?$CStringT@DV?$StrTraitMFC_DLL@DV?$ChTraitsCRT@D@ATL@@@@@ATL@@@Z 10056300 f   CondTarget.obj
 0001:00055430       ??0CEditUsr@@QAE@XZ        10056430 f   EditUsr.obj
 0001:00055450       ??1CEditUsr@@UAE@XZ        10056450 f   EditUsr.obj
 0001:00055460       ??_ECEditUsr@@UAEPAXI@Z    10056460 f i EditUsr.obj
 0001:00055460       ??_GCEditUsr@@UAEPAXI@Z    10056460 f i EditUsr.obj
 0001:000554b0       ?GetMessageMap@CEditUsr@@MBEPBUAFX_MSGMAP@@XZ 100564b0 f   EditUsr.obj
 0001:000554c0       ?GetThisMessageMap@CEditUsr@@KGPBUAFX_MSGMAP@@XZ 100564c0 f   EditUsr.obj
 0001:000554d0       ?WindowProc@CEditUsr@@MAEJIIJ@Z 100564d0 f   EditUsr.obj
 0001:00055550       ??0CBarFolder@CGfxOutBarCtrl@@QAE@PBDK@Z 10056550 f   GfxOutBarCtrl.obj
 0001:000555f0       ??0CBarItem@CGfxOutBarCtrl@@QAE@PBDHK@Z 100565f0 f   GfxOutBarCtrl.obj
 0001:00055640       ??0CGfxOutBarCtrl@@QAE@XZ  10056640 f   GfxOutBarCtrl.obj
 0001:00055930       ??1CBarFolder@CGfxOutBarCtrl@@UAE@XZ 10056930 f   GfxOutBarCtrl.obj
 0001:000559d0       ??1CBarItem@CGfxOutBarCtrl@@UAE@XZ 100569d0 f   GfxOutBarCtrl.obj
 0001:000559f0       ??1CGfxOutBarCtrl@@UAE@XZ  100569f0 f   GfxOutBarCtrl.obj
 0001:00055a20       ??_ECBarFolder@CGfxOutBarCtrl@@UAEPAXI@Z 10056a20 f i GfxOutBarCtrl.obj
 0001:00055a20       ??_GCBarFolder@CGfxOutBarCtrl@@UAEPAXI@Z 10056a20 f i GfxOutBarCtrl.obj
 0001:00055ae0       ??_ECBarItem@CGfxOutBarCtrl@@UAEPAXI@Z 10056ae0 f i GfxOutBarCtrl.obj
 0001:00055ae0       ??_GCBarItem@CGfxOutBarCtrl@@UAEPAXI@Z 10056ae0 f i GfxOutBarCtrl.obj
 0001:00055b20       ??_GCGfxOutBarCtrl@@UAEPAXI@Z 10056b20 f i GfxOutBarCtrl.obj
 0001:00055b20       ??_ECGfxOutBarCtrl@@UAEPAXI@Z 10056b20 f i GfxOutBarCtrl.obj
 0001:00055b80       ?AddFolder@CGfxOutBarCtrl@@QAEHPBDK@Z 10056b80 f   GfxOutBarCtrl.obj
 0001:00055c50       ?AddFolderBar@CGfxOutBarCtrl@@QAEHPBDPAVCWnd@@K@Z 10056c50 f   GfxOutBarCtrl.obj
 0001:00055d30       ?AnimateFolderScroll@CGfxOutBarCtrl@@QAEXHH@Z 10056d30 f   GfxOutBarCtrl.obj
 0001:00056450       ?CleanUp@CBarFolder@CGfxOutBarCtrl@@QAEXXZ 10057450 f   GfxOutBarCtrl.obj
 0001:000564b0       ?Create@CGfxOutBarCtrl@@QAEHKABUtagRECT@@PAVCWnd@@IK@Z 100574b0 f   GfxOutBarCtrl.obj
 0001:000564e0       ?CreateObject@CGfxOutBarCtrl@@SGPAVCObject@@XZ 100574e0 f   GfxOutBarCtrl.obj
 0001:00056550       ?DeleteAllFolder@CGfxOutBarCtrl@@QAEXXZ 10057550 f   GfxOutBarCtrl.obj
 0001:000565b0       ?DrawAnimItem@CGfxOutBarCtrl@@QAEXHHH@Z 100575b0 f   GfxOutBarCtrl.obj
 0001:00056840       ?DrawDragArrow@CGfxOutBarCtrl@@QAEXPAVCDC@@HH@Z 10057840 f   GfxOutBarCtrl.obj
 0001:00056bd0       ?DrawFolder@CGfxOutBarCtrl@@IAEXPAVCDC@@HVCRect@@_N@Z 10057bd0 f   GfxOutBarCtrl.obj
 0001:00057370       ?DrawItem@CGfxOutBarCtrl@@QAEXPAVCDC@@HVCRect@@H_N@Z 10058370 f   GfxOutBarCtrl.obj
 0001:00057650       ?DrawTextA@CDC@@UAEHPBDHPAUtagRECT@@I@Z 10058650 f i GfxOutBarCtrl.obj
 0001:00057670       ?GetCountPerPage@CGfxOutBarCtrl@@QBEHXZ 10058670 f   GfxOutBarCtrl.obj
 0001:00057680       ?GetDragItemRect@CGfxOutBarCtrl@@QAEHHAAVCRect@@@Z 10058680 f   GfxOutBarCtrl.obj
 0001:000577e0       ?GetFlag@CGfxOutBarCtrl@@QBEKXZ 100587e0 f   GfxOutBarCtrl.obj
 0001:000577f0       ?GetFolderChild@CGfxOutBarCtrl@@QAEPAVCWnd@@H@Z 100587f0 f   GfxOutBarCtrl.obj
 0001:00057840       ?GetFolderCount@CGfxOutBarCtrl@@QBEHXZ 10058840 f   GfxOutBarCtrl.obj
 0001:00057850       ?GetFolderData@CGfxOutBarCtrl@@QAEKH@Z 10058850 f   GfxOutBarCtrl.obj
 0001:00057890       ?GetFolderImageList@CGfxOutBarCtrl@@QBEPAVCImageList@@H_N@Z 10058890 f   GfxOutBarCtrl.obj
 0001:000578e0       ?GetFolderRect@CGfxOutBarCtrl@@QBE_NHAAVCRect@@@Z 100588e0 f   GfxOutBarCtrl.obj
 0001:000579e0       ?GetFolderText@CGfxOutBarCtrl@@QAE?AV?$CStringT@DV?$StrTraitMFC_DLL@DV?$ChTraitsCRT@D@ATL@@@@@ATL@@H@Z 100589e0 f   GfxOutBarCtrl.obj
 0001:00057a80       ?GetIconRect@CGfxOutBarCtrl@@QAEXHHAAVCRect@@@Z 10058a80 f   GfxOutBarCtrl.obj
 0001:00057c90       ?GetImageList@CGfxOutBarCtrl@@QAEPAVCImageList@@PAV2@H@Z 10058c90 f   GfxOutBarCtrl.obj
 0001:00057cc0       ?GetInsideRect@CGfxOutBarCtrl@@QBEXAAVCRect@@@Z 10058cc0 f   GfxOutBarCtrl.obj
 0001:00057d30       ?GetItemCount@CBarFolder@CGfxOutBarCtrl@@QAEHXZ 10058d30 f   GfxOutBarCtrl.obj
 0001:00057d40       ?GetItemCount@CGfxOutBarCtrl@@QBEHXZ 10058d40 f   GfxOutBarCtrl.obj
 0001:00057d70       ?GetItemData@CGfxOutBarCtrl@@QBEKH@Z 10058d70 f   GfxOutBarCtrl.obj
 0001:00057dc0       ?GetItemImage@CGfxOutBarCtrl@@QBEHH@Z 10058dc0 f   GfxOutBarCtrl.obj
 0001:00057e10       ?GetItemRect@CGfxOutBarCtrl@@QAEXHHAAVCRect@@@Z 10058e10 f   GfxOutBarCtrl.obj
 0001:00057f40       ?GetItemSize@CGfxOutBarCtrl@@QAE?AVCSize@@HHH@Z 10058f40 f   GfxOutBarCtrl.obj
 0001:000581b0       ?GetItemText@CGfxOutBarCtrl@@QAE?AV?$CStringT@DV?$StrTraitMFC_DLL@DV?$ChTraitsCRT@D@ATL@@@@@ATL@@H@Z 100591b0 f   GfxOutBarCtrl.obj
 0001:00058250       ?GetLabelRect@CGfxOutBarCtrl@@QAEXHHAAVCRect@@@Z 10059250 f   GfxOutBarCtrl.obj
 0001:00058400       ?GetMessageMap@CGfxOutBarCtrl@@MBEPBUAFX_MSGMAP@@XZ 10059400 f   GfxOutBarCtrl.obj
 0001:00058410       ?GetRuntimeClass@CGfxOutBarCtrl@@UBEPAUCRuntimeClass@@XZ 10059410 f   GfxOutBarCtrl.obj
 0001:00058420       ?GetSelFolder@CGfxOutBarCtrl@@QBEHXZ 10059420 f   GfxOutBarCtrl.obj
 0001:00058430       ?GetThisClass@CGfxOutBarCtrl@@SGPAUCRuntimeClass@@XZ 10059430 f   GfxOutBarCtrl.obj
 0001:00058440       ?GetThisMessageMap@CGfxOutBarCtrl@@KGPBUAFX_MSGMAP@@XZ 10059440 f   GfxOutBarCtrl.obj
 0001:00058450       ?GetVisibleRange@CGfxOutBarCtrl@@QAEXHAAH0@Z 10059450 f   GfxOutBarCtrl.obj
 0001:00058520       ?HighlightFolder@CGfxOutBarCtrl@@QAEXH@Z 10059520 f   GfxOutBarCtrl.obj
 0001:00058730       ?HighlightItem@CGfxOutBarCtrl@@QAEXH_N@Z 10059730 f   GfxOutBarCtrl.obj
 0001:00058970       ?HitTestEx@CGfxOutBarCtrl@@QAEHABVCPoint@@AAH@Z 10059970 f   GfxOutBarCtrl.obj
 0001:00058c00       ?InsertItem@CBarFolder@CGfxOutBarCtrl@@QAEHHPBDHK@Z 10059c00 f   GfxOutBarCtrl.obj
 0001:00058ce0       ?InsertItem@CGfxOutBarCtrl@@QAEHHHPBDHK@Z 10059ce0 f   GfxOutBarCtrl.obj
 0001:00058de0       ?IsSmallIconView@CGfxOutBarCtrl@@QBE_NXZ 10059de0 f   GfxOutBarCtrl.obj
 0001:00058df0       ?IsValidItem@CGfxOutBarCtrl@@QBE_NH@Z 10059df0 f   GfxOutBarCtrl.obj
 0001:00058e30       ?ModifyFlag@CGfxOutBarCtrl@@QAEXABK0I@Z 10059e30 f   GfxOutBarCtrl.obj
 0001:00058ea0       ?OnCreate@CGfxOutBarCtrl@@IAEHPAUtagCREATESTRUCTA@@@Z 10059ea0 f   GfxOutBarCtrl.obj
 0001:00058f50       ?OnDestroy@CGfxOutBarCtrl@@IAEXXZ 10059f50 f   GfxOutBarCtrl.obj
 0001:00058fe0       ?OnEraseBkgnd@CGfxOutBarCtrl@@IAEHPAVCDC@@@Z 10059fe0 f   GfxOutBarCtrl.obj
 0001:00058ff0       ?OnGfxLargeicon@CGfxOutBarCtrl@@IAEXXZ 10059ff0 f   GfxOutBarCtrl.obj
 0001:00059060       ?OnGfxRemoveitem@CGfxOutBarCtrl@@IAEXXZ 1005a060 f   GfxOutBarCtrl.obj
 0001:00059180       ?OnGfxSmallicon@CGfxOutBarCtrl@@IAEXXZ 1005a180 f   GfxOutBarCtrl.obj
 0001:000591f0       ?OnLButtonDblClk@CGfxOutBarCtrl@@IAEXIVCPoint@@@Z 1005a1f0 f   GfxOutBarCtrl.obj
 0001:00059c60       ?OnLButtonDown@CGfxOutBarCtrl@@IAEXIVCPoint@@@Z 1005ac60 f   GfxOutBarCtrl.obj
 0001:0005a670       ?OnMouseMove@CGfxOutBarCtrl@@IAEXIVCPoint@@@Z 1005b670 f   GfxOutBarCtrl.obj
 0001:0005a680       ?OnPaint@CGfxOutBarCtrl@@IAEXXZ 1005b680 f   GfxOutBarCtrl.obj
 0001:0005ab20       ?OnRButtonDown@CWnd@@IAEXIVCPoint@@@Z 1005bb20 f i GfxOutBarCtrl.obj
 0001:0005ab30       ?OnSetCursor@CGfxOutBarCtrl@@IAEHPAVCWnd@@II@Z 1005bb30 f   GfxOutBarCtrl.obj
 0001:0005aba0       ?OnSize@CGfxOutBarCtrl@@IAEXIHH@Z 1005bba0 f   GfxOutBarCtrl.obj
 0001:0005ad60       ?OnTimer@CGfxOutBarCtrl@@IAEXI@Z 1005bd60 f   GfxOutBarCtrl.obj
 0001:0005aea0       ?OnUpdateGfxLargeicon@CGfxOutBarCtrl@@IAEXPAVCCmdUI@@@Z 1005bea0 f   GfxOutBarCtrl.obj
 0001:0005aec0       ?OnUpdateGfxRemoveitem@CGfxOutBarCtrl@@IAEXPAVCCmdUI@@@Z 1005bec0 f   GfxOutBarCtrl.obj
 0001:0005aed0       ?OnUpdateGfxRenameitem@CGfxOutBarCtrl@@IAEXPAVCCmdUI@@@Z 1005bed0 f   GfxOutBarCtrl.obj
 0001:0005aee0       ?OnUpdateGfxSmallicon@CGfxOutBarCtrl@@IAEXPAVCCmdUI@@@Z 1005bee0 f   GfxOutBarCtrl.obj
 0001:0005af00       ?PaintItems@CGfxOutBarCtrl@@QAEXPAVCDC@@HVCRect@@@Z 1005bf00 f   GfxOutBarCtrl.obj
 0001:0005b040       ?RemoveFolder@CGfxOutBarCtrl@@QAEXH@Z 1005c040 f   GfxOutBarCtrl.obj
 0001:0005b0c0       ?RemoveItem@CGfxOutBarCtrl@@QAEXH@Z 1005c0c0 f   GfxOutBarCtrl.obj
 0001:0005b160       ?SetAnimSelHighlight@CGfxOutBarCtrl@@QAEXH@Z 1005c160 f   GfxOutBarCtrl.obj
 0001:0005b1a0       ?SetBackColor@CGfxOutBarCtrl@@QAEXHKKKK@Z 1005c1a0 f   GfxOutBarCtrl.obj
 0001:0005b1d0       ?SetFolderData@CGfxOutBarCtrl@@QAEXHK@Z 1005c1d0 f   GfxOutBarCtrl.obj
 0001:0005b210       ?SetFolderImageList@CGfxOutBarCtrl@@QAEPAVCImageList@@HPAV2@H@Z 1005c210 f   GfxOutBarCtrl.obj
 0001:0005b270       ?SetFolderImageList@CGfxOutBarCtrl@@QAEXPAVCImageList@@HHH@Z 1005c270 f   GfxOutBarCtrl.obj
 0001:0005b2a0       ?SetFolderText@CGfxOutBarCtrl@@QAEXHPBD@Z 1005c2a0 f   GfxOutBarCtrl.obj
 0001:0005b300       ?SetImageList@CGfxOutBarCtrl@@QAEPAVCImageList@@PAV2@H@Z 1005c300 f   GfxOutBarCtrl.obj
 0001:0005b350       ?SetItemData@CGfxOutBarCtrl@@QAEXHK@Z 1005c350 f   GfxOutBarCtrl.obj
 0001:0005b390       ?SetItemImage@CGfxOutBarCtrl@@QAEXHH@Z 1005c390 f   GfxOutBarCtrl.obj
 0001:0005b3d0       ?SetItemText@CGfxOutBarCtrl@@QAEXHPBD@Z 1005c3d0 f   GfxOutBarCtrl.obj
 0001:0005b440       ?SetSelFolder@CGfxOutBarCtrl@@QAEHPBD@Z 1005c440 f   GfxOutBarCtrl.obj
 0001:0005b550       ?SetSelFolder@CGfxOutBarCtrl@@QAEXH@Z 1005c550 f   GfxOutBarCtrl.obj
 0001:0005b690       ?SetSmallIconView@CGfxOutBarCtrl@@QAEX_N@Z 1005c690 f   GfxOutBarCtrl.obj
 0001:0005b710       ?_AfxInitManaged@@YAHXZ    1005c710 f i GfxOutBarCtrl.obj
 0001:0005b720       ?_GetBaseClass@CGfxOutBarCtrl@@KGPAUCRuntimeClass@@XZ 1005c720 f   GfxOutBarCtrl.obj
 0001:0005b730       ??0CRGBButton@@QAE@XZ      1005c730 f   RGBButton.obj
 0001:0005b7f0       ??1CRGBButton@@UAE@XZ      1005c7f0 f   RGBButton.obj
 0001:0005b820       ??_GCRGBButton@@UAEPAXI@Z  1005c820 f i RGBButton.obj
 0001:0005b820       ??_ECRGBButton@@UAEPAXI@Z  1005c820 f i RGBButton.obj
 0001:0005b880       ?DrawButtonRect@CRGBButton@@QAEXPAVCDC@@VCRect@@I@Z 1005c880 f   RGBButton.obj
 0001:0005b9b0       ?DrawButtonText@CRGBButton@@QAEXPAVCDC@@VCRect@@I@Z 1005c9b0 f   RGBButton.obj
 0001:0005ba50       ?DrawItem@CRGBButton@@UAEXPAUtagDRAWITEMSTRUCT@@@Z 1005ca50 f   RGBButton.obj
 0001:0005bc60       ?EndSideBar@CRGBButton@@QAEXXZ 1005cc60 f   RGBButton.obj
 0001:0005bc70       ?GetMessageMap@CRGBButton@@MBEPBUAFX_MSGMAP@@XZ 1005cc70 f   RGBButton.obj
 0001:0005bc80       ?GetThisMessageMap@CRGBButton@@KGPBUAFX_MSGMAP@@XZ 1005cc80 f   RGBButton.obj
 0001:0005bc90       ?InitToolTip@CRGBButton@@QAEXXZ 1005cc90 f   RGBButton.obj
 0001:0005bce0       ?OnMouseHover@CRGBButton@@IAEJIJ@Z 1005cce0 f   RGBButton.obj
 0001:0005bd20       ?OnMouseLeave@CRGBButton@@IAEJIJ@Z 1005cd20 f   RGBButton.obj
 0001:0005bd60       ?OnMouseMove@CRGBButton@@IAEXIVCPoint@@@Z 1005cd60 f   RGBButton.obj
 0001:0005bdb0       ?PreSubclassWindow@CRGBButton@@MAEXXZ 1005cdb0 f   RGBButton.obj
 0001:0005bdd0       ?PreTranslateMessage@CRGBButton@@UAEHPAUtagMSG@@@Z 1005cdd0 f   RGBButton.obj
 0001:0005bde0       ?SetBackGroundColor@CRGBButton@@QAEXKK@Z 1005cde0 f   RGBButton.obj
 0001:0005be00       ?SetBorderColor@CRGBButton@@QAEXK@Z 1005ce00 f   RGBButton.obj
 0001:0005be10       ?SetButtonText@CRGBButton@@QAEXPBD@Z 1005ce10 f   RGBButton.obj
 0001:0005be20       ?SetSideBar@CRGBButton@@QAEXPAVCLeftBarDlg@@@Z 1005ce20 f   RGBButton.obj
 0001:0005be30       ?SetTextColor@CRGBButton@@QAEXK@Z 1005ce30 f   RGBButton.obj
 0001:0005be40       ?SetTooltipText@CRGBButton@@QAEXHH@Z 1005ce40 f   RGBButton.obj
 0001:0005bf70       ?SetTooltipText@CRGBButton@@QAEXPBDH@Z 1005cf70 f   RGBButton.obj
 0001:0005c050       ?StartSideBar@CRGBButton@@QAEXXZ 1005d050 f   RGBButton.obj
 0001:0005c070       ??0CTextProgressCtrl@@QAE@XZ 1005d070 f   TextProgressCtrl.obj
 0001:0005c110       ??1CMemDC@@UAE@XZ          1005d110 f i TextProgressCtrl.obj
 0001:0005c1d0       ??1CTextProgressCtrl@@UAE@XZ 1005d1d0 f   TextProgressCtrl.obj
 0001:0005c1f0       ??_GCMemDC@@UAEPAXI@Z      1005d1f0 f i TextProgressCtrl.obj
 0001:0005c1f0       ??_ECMemDC@@UAEPAXI@Z      1005d1f0 f i TextProgressCtrl.obj
 0001:0005c230       ??_ECProgressCtrl@@UAEPAXI@Z 1005d230 f i TextProgressCtrl.obj
 0001:0005c230       ??_GCProgressCtrl@@UAEPAXI@Z 1005d230 f i TextProgressCtrl.obj
 0001:0005c270       ??_ECTextProgressCtrl@@UAEPAXI@Z 1005d270 f i TextProgressCtrl.obj
 0001:0005c270       ??_GCTextProgressCtrl@@UAEPAXI@Z 1005d270 f i TextProgressCtrl.obj
 0001:0005c2c0       ?AlignText@CTextProgressCtrl@@QAEHK@Z 1005d2c0 f   TextProgressCtrl.obj
 0001:0005c2f0       ?AlignTextInvalidate@CTextProgressCtrl@@QAEHK@Z 1005d2f0 f   TextProgressCtrl.obj
 0001:0005c330       ?DrawTextExA@CDC@@UAEHPADHPAUtagRECT@@IPAUtagDRAWTEXTPARAMS@@@Z 1005d330 f i TextProgressCtrl.obj
 0001:0005c350       ?Escape@CDC@@UAEHHHPBDPAX@Z 1005d350 f i TextProgressCtrl.obj
 0001:0005c370       ?ExtTextOutA@CDC@@UAEHHHIPBUtagRECT@@PBDIPAH@Z 1005d370 f i TextProgressCtrl.obj
 0001:0005c3a0       ?GetBarColour@CTextProgressCtrl@@QBEKXZ 1005d3a0 f   TextProgressCtrl.obj
 0001:0005c3b0       ?GetBgColour@CTextProgressCtrl@@QBEKXZ 1005d3b0 f   TextProgressCtrl.obj
 0001:0005c3c0       ?GetMessageMap@CTextProgressCtrl@@MBEPBUAFX_MSGMAP@@XZ 1005d3c0 f   TextProgressCtrl.obj
 0001:0005c3d0       ?GetTextColour@CTextProgressCtrl@@QAEKXZ 1005d3d0 f   TextProgressCtrl.obj
 0001:0005c3e0       ?GetThisMessageMap@CTextProgressCtrl@@KGPBUAFX_MSGMAP@@XZ 1005d3e0 f   TextProgressCtrl.obj
 0001:0005c3f0       ?GrayStringA@CDC@@UAEHPAVCBrush@@P6GHPAUHDC__@@JH@ZJHHHHH@Z 1005d3f0 f i TextProgressCtrl.obj
 0001:0005c420       ?OnEraseBkgnd@CTextProgressCtrl@@IAEHPAVCDC@@@Z 1005d420 f   TextProgressCtrl.obj
 0001:0005c430       ?OnGetPos@CTextProgressCtrl@@IAEJIJ@Z 1005d430 f   TextProgressCtrl.obj
 0001:0005c440       ?OnGetRange@CTextProgressCtrl@@IAEJIJ@Z 1005d440 f   TextProgressCtrl.obj
 0001:0005c480       ?OnGetText@CTextProgressCtrl@@IAEJIJ@Z 1005d480 f   TextProgressCtrl.obj
 0001:0005c4c0       ?OnOffsetPos@CTextProgressCtrl@@IAEJIJ@Z 1005d4c0 f   TextProgressCtrl.obj
 0001:0005c4f0       ?OnPaint@CTextProgressCtrl@@IAEXXZ 1005d4f0 f   TextProgressCtrl.obj
 0001:0005c970       ?OnSetBarColor@CTextProgressCtrl@@IAEJIJ@Z 1005d970 f   TextProgressCtrl.obj
 0001:0005c9b0       ?OnSetBkColor@CTextProgressCtrl@@IAEJIJ@Z 1005d9b0 f   TextProgressCtrl.obj
 0001:0005c9f0       ?OnSetPos@CTextProgressCtrl@@IAEJIJ@Z 1005d9f0 f   TextProgressCtrl.obj
 0001:0005cac0       ?OnSetRange32@CTextProgressCtrl@@IAEJIJ@Z 1005dac0 f   TextProgressCtrl.obj
 0001:0005caf0       ?OnSetRange@CTextProgressCtrl@@IAEJIJ@Z 1005daf0 f   TextProgressCtrl.obj
 0001:0005cb20       ?OnSetShowText@CTextProgressCtrl@@IAEJIJ@Z 1005db20 f   TextProgressCtrl.obj
 0001:0005cb80       ?OnSetStep@CTextProgressCtrl@@IAEJIJ@Z 1005db80 f   TextProgressCtrl.obj
 0001:0005cba0       ?OnSetText@CTextProgressCtrl@@IAEJIJ@Z 1005dba0 f   TextProgressCtrl.obj
 0001:0005cc10       ?OnSetTextColor@CTextProgressCtrl@@IAEJIJ@Z 1005dc10 f   TextProgressCtrl.obj
 0001:0005cc50       ?OnSize@CTextProgressCtrl@@IAEXIHH@Z 1005dc50 f   TextProgressCtrl.obj
 0001:0005cc70       ?OnStepIt@CTextProgressCtrl@@IAEJIJ@Z 1005dc70 f   TextProgressCtrl.obj
 0001:0005cc90       ?PtVisible@CDC@@UBEHHH@Z   1005dc90 f i TextProgressCtrl.obj
 0001:0005ccb0       ?RectVisible@CDC@@UBEHPBUtagRECT@@@Z 1005dcb0 f i TextProgressCtrl.obj
 0001:0005ccd0       ?SetBarColour@CTextProgressCtrl@@QAEKK@Z 1005dcd0 f   TextProgressCtrl.obj
 0001:0005cd10       ?SetBgColour@CTextProgressCtrl@@QAEKK@Z 1005dd10 f   TextProgressCtrl.obj
 0001:0005cd50       ?SetShowText@CTextProgressCtrl@@QAEXH@Z 1005dd50 f   TextProgressCtrl.obj
 0001:0005cda0       ?SetTextColour@CTextProgressCtrl@@QAEKK@Z 1005dda0 f   TextProgressCtrl.obj
 0001:0005cde0       ?TabbedTextOutA@CDC@@UAE?AVCSize@@HHPBDHHPAHH@Z 1005dde0 f i TextProgressCtrl.obj
 0001:0005ce20       ?TextOutA@CDC@@UAEHHHPBDH@Z 1005de20 f i TextProgressCtrl.obj
 0001:0005ce40       ??$CompareElements@PAXPAX@@YGHPBQAX0@Z 1005de40 f i TreeCtrlEx.obj
 0001:0005ce70       ??$SerializeElements@PAX@@YGXAAVCArchive@@PAPAXH@Z 1005de70 f i TreeCtrlEx.obj
 0001:0005cf20       ??$SerializeElements@UColor_Font@CTreeCtrlEx@@@@YGXAAVCArchive@@PAUColor_Font@CTreeCtrlEx@@H@Z 1005df20 f i TreeCtrlEx.obj
 0001:0005cfc0       ??0?$CMap@PAXPAXUColor_Font@CTreeCtrlEx@@AAU12@@@QAE@H@Z 1005dfc0 f i TreeCtrlEx.obj
 0001:0005d000       ??0CTreeCtrlEx@@QAE@XZ     1005e000 f   TreeCtrlEx.obj
 0001:0005d070       ??1?$CMap@PAXPAXUColor_Font@CTreeCtrlEx@@AAU12@@@UAE@XZ 1005e070 f i TreeCtrlEx.obj
 0001:0005d0f0       ??1CTreeCtrlEx@@UAE@XZ     1005e0f0 f   TreeCtrlEx.obj
 0001:0005d190       ??A?$CMap@PAXPAXUColor_Font@CTreeCtrlEx@@AAU12@@@QAEAAUColor_Font@CTreeCtrlEx@@PAX@Z 1005e190 f i TreeCtrlEx.obj
 0001:0005d2a0       ??_G?$CMap@PAXPAXUColor_Font@CTreeCtrlEx@@AAU12@@@UAEPAXI@Z 1005e2a0 f i TreeCtrlEx.obj
 0001:0005d2a0       ??_E?$CMap@PAXPAXUColor_Font@CTreeCtrlEx@@AAU12@@@UAEPAXI@Z 1005e2a0 f i TreeCtrlEx.obj
 0001:0005d360       ??_ECTreeCtrlEx@@UAEPAXI@Z 1005e360 f i TreeCtrlEx.obj
 0001:0005d360       ??_GCTreeCtrlEx@@UAEPAXI@Z 1005e360 f i TreeCtrlEx.obj
 0001:0005d440       ?GetAssocAt@?$CMap@PAXPAXUColor_Font@CTreeCtrlEx@@AAU12@@@IBEPAVCAssoc@1@PAXAAI1@Z 1005e440 f i TreeCtrlEx.obj
 0001:0005d4b0       ?GetItemBold@CTreeCtrlEx@@QAEHPAU_TREEITEM@@@Z 1005e4b0 f   TreeCtrlEx.obj
 0001:0005d4d0       ?GetItemColor@CTreeCtrlEx@@QAEKPAU_TREEITEM@@@Z 1005e4d0 f   TreeCtrlEx.obj
 0001:0005d520       ?GetItemFont@CTreeCtrlEx@@QAEHPAU_TREEITEM@@PAUtagLOGFONTA@@@Z 1005e520 f   TreeCtrlEx.obj
 0001:0005d5b0       ?GetMessageMap@CTreeCtrlEx@@MBEPBUAFX_MSGMAP@@XZ 1005e5b0 f   TreeCtrlEx.obj
 0001:0005d5c0       ?GetRuntimeClass@CTreeCtrlEx@@UBEPAUCRuntimeClass@@XZ 1005e5c0 f   TreeCtrlEx.obj
 0001:0005d5d0       ?GetThisClass@CTreeCtrlEx@@SGPAUCRuntimeClass@@XZ 1005e5d0 f   TreeCtrlEx.obj
 0001:0005d5e0       ?GetThisMessageMap@CTreeCtrlEx@@KGPBUAFX_MSGMAP@@XZ 1005e5e0 f   TreeCtrlEx.obj
 0001:0005d5f0       ?InitHashTable@?$CMap@PAXPAXUColor_Font@CTreeCtrlEx@@AAU12@@@QAEXIH@Z 1005e5f0 f i TreeCtrlEx.obj
 0001:0005d660       ?Lookup@?$CMap@PAXPAXUColor_Font@CTreeCtrlEx@@AAU12@@@QBEHPAXAAUColor_Font@CTreeCtrlEx@@@Z 1005e660 f i TreeCtrlEx.obj
 0001:0005d6b0       ?NewAssoc@?$CMap@PAXPAXUColor_Font@CTreeCtrlEx@@AAU12@@@IAEPAVCAssoc@1@PAX@Z 1005e6b0 f i TreeCtrlEx.obj
 0001:0005d730       ?OnPaint@CTreeCtrlEx@@IAEXXZ 1005e730 f   TreeCtrlEx.obj
 0001:0005dcf0       ?RemoveAll@?$CMap@PAXPAXUColor_Font@CTreeCtrlEx@@AAU12@@@QAEXXZ 1005ecf0 f i TreeCtrlEx.obj
 0001:0005dd30       ?Serialize@?$CMap@PAXPAXUColor_Font@CTreeCtrlEx@@AAU12@@@UAEXAAVCArchive@@@Z 1005ed30 f i TreeCtrlEx.obj
 0001:0005e080       ?SetItemBold@CTreeCtrlEx@@QAEXPAU_TREEITEM@@H@Z 1005f080 f   TreeCtrlEx.obj
 0001:0005e0b0       ?SetItemColor@CTreeCtrlEx@@QAEXPAU_TREEITEM@@K@Z 1005f0b0 f   TreeCtrlEx.obj
 0001:0005e150       ?SetItemFont@CTreeCtrlEx@@QAEXPAU_TREEITEM@@AAUtagLOGFONTA@@@Z 1005f150 f   TreeCtrlEx.obj
 0001:0005e200       ?_GetBaseClass@CTreeCtrlEx@@KGPAUCRuntimeClass@@XZ 1005f200 f   TreeCtrlEx.obj
 0001:0005e210       ??0CTrTreeCtrl@@QAE@XZ     1005f210 f   TrTreeCtrl.obj
 0001:0005e260       ??1CTrTreeCtrl@@UAE@XZ     1005f260 f   TrTreeCtrl.obj
 0001:0005e290       ??_ECTrTreeCtrl@@UAEPAXI@Z 1005f290 f i TrTreeCtrl.obj
 0001:0005e290       ??_GCTrTreeCtrl@@UAEPAXI@Z 1005f290 f i TrTreeCtrl.obj
 0001:0005e2f0       ?ClickDefault@CTrTreeCtrl@@QAEXXZ 1005f2f0 f   TrTreeCtrl.obj
 0001:0005e3f0       ?Create@CTrTreeCtrl@@QAEHKABUtagRECT@@PAVCWnd@@I@Z 1005f3f0 f   TrTreeCtrl.obj
 0001:0005e440       ?GetMessageMap@CTrTreeCtrl@@MBEPBUAFX_MSGMAP@@XZ 1005f440 f   TrTreeCtrl.obj
 0001:0005e450       ?GetThisMessageMap@CTrTreeCtrl@@KGPBUAFX_MSGMAP@@XZ 1005f450 f   TrTreeCtrl.obj
 0001:0005e460       ?GetTrString@CTrTreeCtrl@@QAE?AV?$CStringT@DV?$StrTraitMFC_DLL@DV?$ChTraitsCRT@D@ATL@@@@@ATL@@V23@@Z 1005f460 f   TrTreeCtrl.obj
 0001:0005e530       ?OnBegindrag@CTrTreeCtrl@@IAEXPAUtagNMHDR@@PAJ@Z 1005f530 f   TrTreeCtrl.obj
 0001:0005e560       ?OnClick@CTrTreeCtrl@@IAEXPAUtagNMHDR@@PAJ@Z 1005f560 f   TrTreeCtrl.obj
 0001:0005e5f0       ?OnCreate@CTrTreeCtrl@@IAEHPAUtagCREATESTRUCTA@@@Z 1005f5f0 f   TrTreeCtrl.obj
 0001:0005e6e0       ?OnDblclk@CTrTreeCtrl@@IAEXPAUtagNMHDR@@PAJ@Z 1005f6e0 f   TrTreeCtrl.obj
 0001:0005e7a0       ?OnDestroy@CTrTreeCtrl@@IAEXXZ 1005f7a0 f   TrTreeCtrl.obj
 0001:0005e7d0       ?OnLButtonDown@CTrTreeCtrl@@IAEXIVCPoint@@@Z 1005f7d0 f   TrTreeCtrl.obj
 0001:0005e810       ?OnLButtonUp@CTrTreeCtrl@@IAEXIVCPoint@@@Z 1005f810 f   TrTreeCtrl.obj
 0001:0005ea10       ?OnMouseMove@CTrTreeCtrl@@IAEXIVCPoint@@@Z 1005fa10 f   TrTreeCtrl.obj
 0001:0005ea90       ?OnRButtonDown@CTrTreeCtrl@@IAEXIVCPoint@@@Z 1005fa90 f   TrTreeCtrl.obj
 0001:0005eb60       ?OnSelchanged@CTrTreeCtrl@@IAEXPAUtagNMHDR@@PAJ@Z 1005fb60 f   TrTreeCtrl.obj
 0001:0005ec10       ??0CXComboList@@QAE@PAVCWnd@@@Z 1005fc10 f   XComboList.obj
 0001:0005ecb0       ??1CXComboList@@UAE@XZ     1005fcb0 f   XComboList.obj
 0001:0005ece0       ??_GCListBox@@UAEPAXI@Z    1005fce0 f i XComboList.obj
 0001:0005ece0       ??_ECListBox@@UAEPAXI@Z    1005fce0 f i XComboList.obj
 0001:0005ed20       ??_GCScrollBar@@UAEPAXI@Z  1005fd20 f i XComboList.obj
 0001:0005ed20       ??_ECScrollBar@@UAEPAXI@Z  1005fd20 f i XComboList.obj
 0001:0005ed60       ??_GCXComboList@@UAEPAXI@Z 1005fd60 f i XComboList.obj
 0001:0005ed60       ??_ECXComboList@@UAEPAXI@Z 1005fd60 f i XComboList.obj
 0001:0005edc0       ?GetMessageMap@CXComboList@@MBEPBUAFX_MSGMAP@@XZ 1005fdc0 f   XComboList.obj
 0001:0005edd0       ?GetScrollBarCtrl@CXComboList@@UAEPAVCScrollBar@@H@Z 1005fdd0 f   XComboList.obj
 0001:0005ede0       ?GetThisMessageMap@CXComboList@@KGPBUAFX_MSGMAP@@XZ 1005fde0 f   XComboList.obj
 0001:0005edf0       ?OnCreate@CXComboList@@IAEHPAUtagCREATESTRUCTA@@@Z 1005fdf0 f   XComboList.obj
 0001:0005eed0       ?OnDestroy@CXComboList@@IAEXXZ 1005fed0 f   XComboList.obj
 0001:0005ef10       ?OnKillFocus@CXComboList@@IAEXPAVCWnd@@@Z 1005ff10 f   XComboList.obj
 0001:0005ef50       ?OnLButtonDown@CXComboList@@IAEXIVCPoint@@@Z 1005ff50 f   XComboList.obj
 0001:0005ef80       ?OnTimer@CXComboList@@IAEXI@Z 1005ff80 f   XComboList.obj
 0001:0005f030       ?OnVScroll@CXComboList@@IAEXIIPAVCScrollBar@@@Z 10060030 f   XComboList.obj
 0001:0005f140       ?PreTranslateMessage@CXComboList@@UAEHPAUtagMSG@@@Z 10060140 f   XComboList.obj
 0001:0005f3e0       ?SendRegisteredMessage@CXComboList@@IAEXIIJ@Z 100603e0 f   XComboList.obj
 0001:0005f410       ?SetActive@CXComboList@@QAEXH@Z 10060410 f   XComboList.obj
 0001:0005f620       ??0CXEdit@@QAE@XZ          10060620 f   XEdit.obj
 0001:0005f640       ??1CXEdit@@UAE@XZ          10060640 f   XEdit.obj
 0001:0005f650       ??_ECXEdit@@UAEPAXI@Z      10060650 f i XEdit.obj
 0001:0005f650       ??_GCXEdit@@UAEPAXI@Z      10060650 f i XEdit.obj
 0001:0005f6a0       ?GetMessageMap@CXEdit@@MBEPBUAFX_MSGMAP@@XZ 100606a0 f   XEdit.obj
 0001:0005f6b0       ?GetThisMessageMap@CXEdit@@KGPBUAFX_MSGMAP@@XZ 100606b0 f   XEdit.obj
 0001:0005f6c0       ?OnKeyDown@CXEdit@@IAEXIII@Z 100606c0 f   XEdit.obj
 0001:0005f7a0       ??0CXHeaderCtrl@@QAE@XZ    100607a0 f   XHeaderCtrl.obj
 0001:0005f880       ??1CXHeaderCtrl@@UAE@XZ    10060880 f   XHeaderCtrl.obj
 0001:0005f8b0       ??_ECHeaderCtrl@@UAEPAXI@Z 100608b0 f i XHeaderCtrl.obj
 0001:0005f8b0       ??_GCHeaderCtrl@@UAEPAXI@Z 100608b0 f i XHeaderCtrl.obj
 0001:0005f8f0       ??_ECXHeaderCtrl@@UAEPAXI@Z 100608f0 f i XHeaderCtrl.obj
 0001:0005f8f0       ??_GCXHeaderCtrl@@UAEPAXI@Z 100608f0 f i XHeaderCtrl.obj
 0001:0005f950       ?CreateObject@CXHeaderCtrl@@SGPAVCObject@@XZ 10060950 f   XHeaderCtrl.obj
 0001:0005fa90       ?DrawBitmap@CXHeaderCtrl@@IAEHPAVCDC@@VCRect@@PAU_HD_ITEMA@@PAVCBitmap@@PAUtagBITMAP@@H@Z 10060a90 f   XHeaderCtrl.obj
 0001:0005fbd0       ?DrawCtrl@CXHeaderCtrl@@IAEXPAVCDC@@@Z 10060bd0 f   XHeaderCtrl.obj
 0001:000601c0       ?DrawImage@CXHeaderCtrl@@IAEHPAVCDC@@VCRect@@PAU_HD_ITEMA@@H@Z 100611c0 f   XHeaderCtrl.obj
 0001:000602e0       ?DrawItem@CXHeaderCtrl@@UAEXPAUtagDRAWITEMSTRUCT@@@Z 100612e0 f   XHeaderCtrl.obj
 0001:000602f0       ?DrawItem@CXHeaderCtrl@@UAEXPAVCDC@@VCRect@@PAU_HD_ITEMA@@@Z 100612f0 f   XHeaderCtrl.obj
 0001:000605e0       ?DrawTextA@CXHeaderCtrl@@IAEHPAVCDC@@VCRect@@PAU_HD_ITEMA@@@Z 100615e0 f   XHeaderCtrl.obj
 0001:000606a0       ?GetMessageMap@CXHeaderCtrl@@MBEPBUAFX_MSGMAP@@XZ 100616a0 f   XHeaderCtrl.obj
 0001:000606b0       ?GetRuntimeClass@CXHeaderCtrl@@UBEPAUCRuntimeClass@@XZ 100616b0 f   XHeaderCtrl.obj
 0001:000606c0       ?GetThisClass@CXHeaderCtrl@@SGPAUCRuntimeClass@@XZ 100616c0 f   XHeaderCtrl.obj
 0001:000606d0       ?GetThisMessageMap@CXHeaderCtrl@@KGPBUAFX_MSGMAP@@XZ 100616d0 f   XHeaderCtrl.obj
 0001:000606e0       ?ModifyProperty@CXHeaderCtrl@@QAEHIJ@Z 100616e0 f   XHeaderCtrl.obj
 0001:00060760       ?OnCreate@CXHeaderCtrl@@IAEHPAUtagCREATESTRUCTA@@@Z 10061760 f   XHeaderCtrl.obj
 0001:00060810       ?OnDeleteItem@CXHeaderCtrl@@IAEJIJ@Z 10061810 f   XHeaderCtrl.obj
 0001:00060820       ?OnDestroy@CXHeaderCtrl@@IAEXXZ 10061820 f   XHeaderCtrl.obj
 0001:00060840       ?OnEraseBkgnd@CXHeaderCtrl@@IAEHPAVCDC@@@Z 10061840 f   XHeaderCtrl.obj
 0001:00060850       ?OnInsertItem@CXHeaderCtrl@@IAEJIJ@Z 10061850 f   XHeaderCtrl.obj
 0001:00060860       ?OnLayout@CXHeaderCtrl@@IAEJIJ@Z 10061860 f   XHeaderCtrl.obj
 0001:000608a0       ?OnPaint@CXHeaderCtrl@@IAEXXZ 100618a0 f   XHeaderCtrl.obj
 0001:00060a10       ?OnSetImageList@CXHeaderCtrl@@IAEJIJ@Z 10061a10 f   XHeaderCtrl.obj
 0001:00060a70       ?OnSysColorChange@CXHeaderCtrl@@IAEXXZ 10061a70 f   XHeaderCtrl.obj
 0001:00060ab0       ?SetHeaderColor@CXHeaderCtrl@@QAEXKK@Z 10061ab0 f   XHeaderCtrl.obj
 0001:00060ad0       ?SetSortImage@CXHeaderCtrl@@QAEXHH@Z 10061ad0 f   XHeaderCtrl.obj
 0001:00060af0       ?_GetBaseClass@CXHeaderCtrl@@KGPAUCRuntimeClass@@XZ 10061af0 f   XHeaderCtrl.obj
 0001:00060b00       ??0CXListCtrl@@QAE@XZ      10061b00 f   XListCtrl.obj
 0001:00060ce0       ??0XLISTCTRLDATA@@QAE@XZ   10061ce0 f i XListCtrl.obj
 0001:00060de0       ??1CXListCtrl@@UAE@XZ      10061de0 f   XListCtrl.obj
 0001:00060e60       ??1XLISTCTRLDATA@@QAE@XZ   10061e60 f i XListCtrl.obj
 0001:00060e76       ??_9CXListCtrl@@$BBHE@AE   10061e76 f i XListCtrl.obj
 0001:00060e80       ??_EXLISTCTRLDATA@@QAEPAXI@Z 10061e80 f i XListCtrl.obj
 0001:00060f40       ??_GCXListCtrl@@UAEPAXI@Z  10061f40 f i XListCtrl.obj
 0001:00060f40       ??_ECXListCtrl@@UAEPAXI@Z  10061f40 f i XListCtrl.obj
 0001:00060ff0       ?CountCheckedItems@CXListCtrl@@QAEHH@Z 10061ff0 f   XListCtrl.obj
 0001:00061090       ?DeleteAllItems@CXListCtrl@@QAEHXZ 10062090 f   XListCtrl.obj
 0001:00061170       ?DeleteAllToolTips@CXListCtrl@@QAEXXZ 10062170 f   XListCtrl.obj
 0001:00061210       ?DeleteItem@CXListCtrl@@QAEHH@Z 10062210 f   XListCtrl.obj
 0001:00061260       ?DeleteProgress@CXListCtrl@@QAEXHH@Z 10062260 f   XListCtrl.obj
 0001:000612e0       ?DrawCheckbox@CXListCtrl@@IAEXHHPAVCDC@@KKAAVCRect@@PAUXLISTCTRLDATA@@@Z 100622e0 f   XListCtrl.obj
 0001:00061580       ?DrawImage@CXListCtrl@@IAEHHHPAVCDC@@KKVCRect@@PAUXLISTCTRLDATA@@@Z 10062580 f   XListCtrl.obj
 0001:00061720       ?DrawProgress@CXListCtrl@@IAEXHHPAVCDC@@KKAAVCRect@@PAUXLISTCTRLDATA@@@Z 10062720 f   XListCtrl.obj
 0001:00061ad0       ?DrawTextA@CXListCtrl@@IAEXHHPAVCDC@@KKAAVCRect@@PAUXLISTCTRLDATA@@@Z 10062ad0 f   XListCtrl.obj
 0001:00061d00       ?GetBold@CXListCtrl@@QAEHHH@Z 10062d00 f   XListCtrl.obj
 0001:00061d60       ?GetCheckbox@CXListCtrl@@QAEHHH@Z 10062d60 f   XListCtrl.obj
 0001:00061dc0       ?GetColumns@CXListCtrl@@QAEHXZ 10062dc0 f   XListCtrl.obj
 0001:00061de0       ?GetComboText@CXListCtrl@@QAE?AV?$CStringT@DV?$StrTraitMFC_DLL@DV?$ChTraitsCRT@D@ATL@@@@@ATL@@HH@Z 10062de0 f   XListCtrl.obj
 0001:00061ee0       ?GetCurSel@CXListCtrl@@QAEHXZ 10062ee0 f   XListCtrl.obj
 0001:00061f20       ?GetDrawColors@CXListCtrl@@MAEXHHAAK0@Z 10062f20 f   XListCtrl.obj
 0001:00062050       ?GetEnabled@CXListCtrl@@QAEHH@Z 10063050 f   XListCtrl.obj
 0001:00062080       ?GetHeaderCheckedState@CXListCtrl@@QAEHH@Z 10063080 f   XListCtrl.obj
 0001:000620e0       ?GetItemData@CXListCtrl@@QAEKH@Z 100630e0 f   XListCtrl.obj
 0001:00062130       ?GetItemListCtrlData@CXListCtrl@@QAEPAUXLISTCTRLDATA@@H@Z 10063130 f   XListCtrl.obj
 0001:00062160       ?GetItemToolTipText@CXListCtrl@@QAE?AV?$CStringT@DV?$StrTraitMFC_DLL@DV?$ChTraitsCRT@D@ATL@@@@@ATL@@HH@Z 10063160 f   XListCtrl.obj
 0001:00062240       ?GetMessageMap@CXListCtrl@@MBEPBUAFX_MSGMAP@@XZ 10063240 f   XListCtrl.obj
 0001:00062250       ?GetSubItemRect@CXListCtrl@@QAEHHHHAAVCRect@@@Z 10063250 f   XListCtrl.obj
 0001:00062310       ?GetThisMessageMap@CXListCtrl@@KGPBUAFX_MSGMAP@@XZ 10063310 f   XListCtrl.obj
 0001:00062320       ?InsertItem@CXListCtrl@@QAEHHPBD@Z 10063320 f   XListCtrl.obj
 0001:00062480       ?InsertItem@CXListCtrl@@QAEHHPBDKK@Z 10063480 f   XListCtrl.obj
 0001:000625d0       ?OnClick@CXListCtrl@@IAEHPAUtagNMHDR@@PAJ@Z 100635d0 f   XListCtrl.obj
 0001:000625f0       ?OnColumnClick@CXListCtrl@@IAEHPAUtagNMHDR@@PAJ@Z 100635f0 f   XListCtrl.obj
 0001:00062760       ?OnCreate@CXListCtrl@@IAEHPAUtagCREATESTRUCTA@@@Z 10063760 f   XListCtrl.obj
 0001:00062780       ?OnCustomDraw@CXListCtrl@@IAEXPAUtagNMHDR@@PAJ@Z 10063780 f   XListCtrl.obj
 0001:00062aa0       ?OnDblclk@CXListCtrl@@IAEHPAUtagNMHDR@@PAJ@Z 10063aa0 f   XListCtrl.obj
 0001:00062c80       ?OnDestroy@CXListCtrl@@IAEXXZ 10063c80 f   XListCtrl.obj
 0001:00062d80       ?OnEditReturn@CXListCtrl@@IAEJIJ@Z 10063d80 f   XListCtrl.obj
 0001:00062e70       ?OnEraseBkgnd@CXListCtrl@@IAEHPAVCDC@@@Z 10063e70 f   XListCtrl.obj
 0001:00062fc0       ?OnLButtonDown@CXListCtrl@@IAEXIVCPoint@@@Z 10063fc0 f   XListCtrl.obj
 0001:00063240       ?OnPaint@CXListCtrl@@IAEXXZ 10064240 f   XListCtrl.obj
 0001:000634a0       ?OnRButtonDown@CXListCtrl@@IAEXIVCPoint@@@Z 100644a0 f   XListCtrl.obj
 0001:00063720       ?OnSysColorChange@CXListCtrl@@IAEXXZ 10064720 f   XListCtrl.obj
 0001:000637c0       ?OnToolHitTest@CXListCtrl@@UBEHVCPoint@@PAUtagTOOLINFOA@@@Z 100647c0 f   XListCtrl.obj
 0001:00063860       ?OnToolTipText@CXListCtrl@@MAEHIPAUtagNMHDR@@PAJ@Z 10064860 f   XListCtrl.obj
 0001:000639d0       ?PreSubclassWindow@CXListCtrl@@UAEXXZ 100649d0 f   XListCtrl.obj
 0001:000639e0       ?SetBold@CXListCtrl@@QAEHHHH@Z 100649e0 f   XListCtrl.obj
 0001:00063a50       ?SetCheckbox@CXListCtrl@@QAEHHHHH@Z 10064a50 f   XListCtrl.obj
 0001:00063b20       ?SetComboBox@CXListCtrl@@QAEHHHHPAVCStringArray@@HH@Z 10064b20 f   XListCtrl.obj
 0001:00063c80       ?SetCurSel@CXListCtrl@@QAEHHH@Z 10064c80 f   XListCtrl.obj
 0001:00063cb0       ?SetEditBox@CXListCtrl@@QAEHHHH@Z 10064cb0 f   XListCtrl.obj
 0001:00063d30       ?SetEnabled@CXListCtrl@@QAEHHH@Z 10064d30 f   XListCtrl.obj
 0001:00063dc0       ?SetHeaderCheckedState@CXListCtrl@@QAEHHH@Z 10064dc0 f   XListCtrl.obj
 0001:00063e30       ?SetItem@CXListCtrl@@QAEHPBUtagLVITEMA@@@Z 10064e30 f   XListCtrl.obj
 0001:00063eb0       ?SetItemData@CXListCtrl@@QAEHHK@Z 10064eb0 f   XListCtrl.obj
 0001:00063ef0       ?SetItemImage@CXListCtrl@@QAEHHHH@Z 10064ef0 f   XListCtrl.obj
 0001:00063f70       ?SetItemText@CXListCtrl@@QAEHHHPBD@Z 10064f70 f   XListCtrl.obj
 0001:00063fd0       ?SetItemText@CXListCtrl@@QAEHHHPBDKKH@Z 10064fd0 f   XListCtrl.obj
 0001:00064070       ?SetItemToolTipText@CXListCtrl@@QAEHHHPBD@Z 10065070 f   XListCtrl.obj
 0001:000640f0       ?SetProgress@CXListCtrl@@QAEHHHHPBD@Z 100650f0 f   XListCtrl.obj
 0001:000641a0       ?SetRowHeight@CXListCtrl@@QAEXF@Z 100651a0 f   XListCtrl.obj
 0001:000641f0       ?SetSortImage@CXListCtrl@@QAEXHH@Z 100651f0 f   XListCtrl.obj
 0001:00064240       ?SubclassHeaderControl@CXListCtrl@@IAEXXZ 10065240 f   XListCtrl.obj
 0001:00064320       ?UpdateProgress@CXListCtrl@@QAEXHHH@Z 10065320 f   XListCtrl.obj
 0001:00064390       ?UpdateSubItem@CXListCtrl@@QAEXHH@Z 10065390 f   XListCtrl.obj
 0001:00064410       ??0CDataWindowDlg@@QAE@PAVCWnd@@@Z 10065410 f   DataWindowDlg.obj
 0001:000644c0       ??_GCDataWindowDlg@@UAEPAXI@Z 100654c0 f i DataWindowDlg.obj
 0001:000644c0       ??_ECDataWindowDlg@@UAEPAXI@Z 100654c0 f i DataWindowDlg.obj
 0001:00064510       ?CreateDataWindow@CDataWindowDlg@@QAE_NXZ 10065510 f   DataWindowDlg.obj
 0001:000645e0       ?DoDataExchange@CDataWindowDlg@@MAEXPAVCDataExchange@@@Z 100655e0 f   DataWindowDlg.obj
 0001:00064610       ?GetMessageMap@CDataWindowDlg@@MBEPBUAFX_MSGMAP@@XZ 10065610 f   DataWindowDlg.obj
 0001:00064620       ?GetThisMessageMap@CDataWindowDlg@@KGPBUAFX_MSGMAP@@XZ 10065620 f   DataWindowDlg.obj
 0001:00064630       ?OnCancel@CDataWindowDlg@@MAEXXZ 10065630 f   DataWindowDlg.obj
 0001:00064640       ?OnOK@CDataWindowDlg@@MAEXXZ 10065640 f   DataWindowDlg.obj
 0001:00064650       ?OnSize@CDataWindowDlg@@IAEXIHH@Z 10065650 f   DataWindowDlg.obj
 0001:000646e0       ?PreTranslateMessage@CDataWindowDlg@@UAEHPAUtagMSG@@@Z 100656e0 f   DataWindowDlg.obj
 0001:00064750       ?SetDataWindowData@CDataWindowDlg@@QAEXPAV?$CList@V?$CStringT@DV?$StrTraitMFC_DLL@DV?$ChTraitsCRT@D@ATL@@@@@ATL@@AAV12@@@@Z 10065750 f   DataWindowDlg.obj
 0001:00064ac0       ?SetHeaderCtrl@CDataWindowDlg@@AAEXAAV?$CStringT@DV?$StrTraitMFC_DLL@DV?$ChTraitsCRT@D@ATL@@@@@ATL@@@Z 10065ac0 f   DataWindowDlg.obj
 0001:00064c80       ?SetListCtrlData@CDataWindowDlg@@AAEXAAV?$CStringT@DV?$StrTraitMFC_DLL@DV?$ChTraitsCRT@D@ATL@@@@@ATL@@H@Z 10065c80 f   DataWindowDlg.obj
 0001:00064d30       ??0CDlgGlass@@QAE@PAVCWnd@@@Z 10065d30 f   DlgGlass.obj
 0001:00064e90       ??1CDlgGlass@@UAE@XZ       10065e90 f   DlgGlass.obj
 0001:00064f20       ??_ECDlgGlass@@UAEPAXI@Z   10065f20 f i DlgGlass.obj
 0001:00064f20       ??_GCDlgGlass@@UAEPAXI@Z   10065f20 f i DlgGlass.obj
 0001:00064fd0       ?Create@CDialog@@UAEHIPAVCWnd@@@Z 10065fd0 f i DlgGlass.obj
 0001:00064fe0       ?DoDataExchange@CDlgGlass@@MAEXPAVCDataExchange@@@Z 10065fe0 f   DlgGlass.obj
 0001:00064ff0       ?DoMouseMove@CDlgGlass@@IAEXVCPoint@@@Z 10065ff0 f   DlgGlass.obj
 0001:00065120       ?GetMessageMap@CDlgGlass@@MBEPBUAFX_MSGMAP@@XZ 10066120 f   DlgGlass.obj
 0001:00065130       ?GetThisMessageMap@CDlgGlass@@KGPBUAFX_MSGMAP@@XZ 10066130 f   DlgGlass.obj
 0001:00065140       ?GetTimeGap@CDlgGlass@@IAEJPAU_SYSTEMTIME@@0@Z 10066140 f   DlgGlass.obj
 0001:000651e0       ?MakeBitmap@CDlgGlass@@QAEXXZ 100661e0 f   DlgGlass.obj
 0001:00065370       ?OnClosemagnify@CDlgGlass@@IAEXXZ 10066370 f   DlgGlass.obj
 0001:000653c0       ?OnDraw@CDlgGlass@@QAEXPAVCDC@@ABVCBitmap@@@Z 100663c0 f   DlgGlass.obj
 0001:00065510       ?OnInitDialog@CDlgGlass@@MAEHXZ 10066510 f   DlgGlass.obj
 0001:000656b0       ?OnLButtonDown@CDlgGlass@@IAEXIVCPoint@@@Z 100666b0 f   DlgGlass.obj
 0001:00065750       ?OnLButtonUp@CDlgGlass@@IAEXIVCPoint@@@Z 10066750 f   DlgGlass.obj
 0001:000657d0       ?OnMagnify2@CDlgGlass@@IAEXXZ 100667d0 f   DlgGlass.obj
 0001:000657f0       ?OnMagnify3@CDlgGlass@@IAEXXZ 100667f0 f   DlgGlass.obj
 0001:00065810       ?OnMagnify4@CDlgGlass@@IAEXXZ 10066810 f   DlgGlass.obj
 0001:00065830       ?OnMagnify5@CDlgGlass@@IAEXXZ 10066830 f   DlgGlass.obj
 0001:00065850       ?OnMouseMove@CDlgGlass@@IAEXIVCPoint@@@Z 10066850 f   DlgGlass.obj
 0001:00065860       ?OnMove@CDlgGlass@@IAEXHH@Z 10066860 f   DlgGlass.obj
 0001:00065890       ?OnPaint@CDlgGlass@@IAEXXZ 10066890 f   DlgGlass.obj
 0001:00065950       ?OnRButtonUp@CDlgGlass@@IAEXIVCPoint@@@Z 10066950 f   DlgGlass.obj
 0001:00065a40       ?OnTimer@CDlgGlass@@IAEXI@Z 10066a40 f   DlgGlass.obj
 0001:00065bc0       ?OnUpdateMagnify2@CDlgGlass@@IAEXPAVCCmdUI@@@Z 10066bc0 f   DlgGlass.obj
 0001:00065bf0       ?OnUpdateMagnify3@CDlgGlass@@IAEXPAVCCmdUI@@@Z 10066bf0 f   DlgGlass.obj
 0001:00065c20       ?OnUpdateMagnify4@CDlgGlass@@IAEXPAVCCmdUI@@@Z 10066c20 f   DlgGlass.obj
 0001:00065c50       ?OnUpdateMagnify5@CDlgGlass@@IAEXPAVCCmdUI@@@Z 10066c50 f   DlgGlass.obj
 0001:00065c80       ?Save_Desktop@CDlgGlass@@AAEXXZ 10066c80 f   DlgGlass.obj
 0001:00065ce0       ??0CDlgSettingToolBar@@QAE@PAVCWnd@@@Z 10066ce0 f   DlgSettingToolBar.obj
 0001:00065f20       ??_ECComboBox@@UAEPAXI@Z   10066f20 f i DlgSettingToolBar.obj
 0001:00065f20       ??_GCComboBox@@UAEPAXI@Z   10066f20 f i DlgSettingToolBar.obj
 0001:00065f60       ??_GCDlgSettingToolBar@@UAEPAXI@Z 10066f60 f i DlgSettingToolBar.obj
 0001:00065f60       ??_ECDlgSettingToolBar@@UAEPAXI@Z 10066f60 f i DlgSettingToolBar.obj
 0001:000660d0       ?DoDataExchange@CDlgSettingToolBar@@MAEXPAVCDataExchange@@@Z 100670d0 f   DlgSettingToolBar.obj
 0001:00066130       ?FillAvailableList@CDlgSettingToolBar@@AAEXAAV?$CArray@HH@@AAV?$CMap@HHV?$CStringT@DV?$StrTraitMFC_DLL@DV?$ChTraitsCRT@D@ATL@@@@@ATL@@V12@@@@Z 10067130 f   DlgSettingToolBar.obj
 0001:00066260       ?FillShowList@CDlgSettingToolBar@@AAEXAAV?$CArray@HH@@AAV?$CMap@HHV?$CStringT@DV?$StrTraitMFC_DLL@DV?$ChTraitsCRT@D@ATL@@@@@ATL@@V12@@@@Z 10067260 f   DlgSettingToolBar.obj
 0001:000663c0       ?FreeAssoc@?$CMap@HHV?$CStringT@DV?$StrTraitMFC_DLL@DV?$ChTraitsCRT@D@ATL@@@@@ATL@@V12@@@IAEXPAVCAssoc@1@@Z 100673c0 f i DlgSettingToolBar.obj
 0001:000663f0       ?GetAt@?$CArray@HH@@QAEAAHH@Z 100673f0 f i DlgSettingToolBar.obj
 0001:00066410       ?GetFieldData@CDlgSettingToolBar@@AAEXV?$CStringT@DV?$StrTraitMFC_DLL@DV?$ChTraitsCRT@D@ATL@@@@@ATL@@AAHAAV23@@Z 10067410 f   DlgSettingToolBar.obj
 0001:000664e0       ?GetMessageMap@CDlgSettingToolBar@@MBEPBUAFX_MSGMAP@@XZ 100674e0 f   DlgSettingToolBar.obj
 0001:000664f0       ?GetThisMessageMap@CDlgSettingToolBar@@KGPBUAFX_MSGMAP@@XZ 100674f0 f   DlgSettingToolBar.obj
 0001:00066500       ?InsertAt@?$CArray@HH@@QAEXHHH@Z 10067500 f i DlgSettingToolBar.obj
 0001:000665e0       ?OnApply@CDlgSettingToolBar@@IAEXXZ 100675e0 f   DlgSettingToolBar.obj
 0001:00066a90       ?OnBtnAdd@CDlgSettingToolBar@@IAEXXZ 10067a90 f   DlgSettingToolBar.obj
 0001:00066c30       ?OnBtnAddall@CDlgSettingToolBar@@IAEXXZ 10067c30 f   DlgSettingToolBar.obj
 0001:000670c0       ?OnBtnInit@CDlgSettingToolBar@@IAEXXZ 100680c0 f   DlgSettingToolBar.obj
 0001:00067230       ?OnBtnMovedown@CDlgSettingToolBar@@IAEXXZ 10068230 f   DlgSettingToolBar.obj
 0001:000673a0       ?OnBtnMovsyp@CDlgSettingToolBar@@IAEXXZ 100683a0 f   DlgSettingToolBar.obj
 0001:000674f0       ?OnBtnRemove@CDlgSettingToolBar@@IAEXXZ 100684f0 f   DlgSettingToolBar.obj
 0001:00067630       ?OnBtnRemoveall@CDlgSettingToolBar@@IAEXXZ 10068630 f   DlgSettingToolBar.obj
 0001:000676d0       ?OnCancel@CDlgSettingToolBar@@MAEXXZ 100686d0 f   DlgSettingToolBar.obj
 0001:000676e0       ?OnDblclkListAdd@CDlgSettingToolBar@@IAEXXZ 100686e0 f   DlgSettingToolBar.obj
 0001:00067710       ?OnDblclkListRemove@CDlgSettingToolBar@@IAEXXZ 10068710 f   DlgSettingToolBar.obj
 0001:00067740       ?OnInitDialog@CDlgSettingToolBar@@MAEHXZ 10068740 f   DlgSettingToolBar.obj
 0001:00067870       ?OnOK@CDlgSettingToolBar@@MAEXXZ 10068870 f   DlgSettingToolBar.obj
 0001:00067880       ?OnSelchangeCmbAvailable@CDlgSettingToolBar@@IAEXXZ 10068880 f   DlgSettingToolBar.obj
 0001:000678d0       ?OnSelchangeCmbShow@CDlgSettingToolBar@@IAEXXZ 100688d0 f   DlgSettingToolBar.obj
 0001:00067ad0       ?ReadIniFile@CDlgSettingToolBar@@AAEXH@Z 10068ad0 f   DlgSettingToolBar.obj
 0001:00068490       ?RemoveAt@?$CArray@HH@@QAEXHH@Z 10069490 f i DlgSettingToolBar.obj
 0001:00068530       ?RemoveKey@?$CMap@HHV?$CStringT@DV?$StrTraitMFC_DLL@DV?$ChTraitsCRT@D@ATL@@@@@ATL@@V12@@@QAEHH@Z 10069530 f i DlgSettingToolBar.obj
 0001:000685c0       ?SetAt@?$CMap@HHV?$CStringT@DV?$StrTraitMFC_DLL@DV?$ChTraitsCRT@D@ATL@@@@@ATL@@V12@@@QAEXHV?$CStringT@DV?$StrTraitMFC_DLL@DV?$ChTraitsCRT@D@ATL@@@@@ATL@@@Z 100695c0 f i DlgSettingToolBar.obj
 0001:00068710       ?SetAtGrow@?$CArray@HH@@QAEXHH@Z 10069710 f i DlgSettingToolBar.obj
 0001:00068750       ??0CDlgSTExOption@@QAE@PAVCWnd@@@Z 10069750 f   DlgSTExOption.obj
 0001:00068860       ??1CDlgSTExOption@@UAE@XZ  10069860 f   DlgSTExOption.obj
 0001:000688c0       ??_GCDlgSTExOption@@UAEPAXI@Z 100698c0 f i DlgSTExOption.obj
 0001:000688c0       ??_ECDlgSTExOption@@UAEPAXI@Z 100698c0 f i DlgSTExOption.obj
 0001:00068950       ?DoDataExchange@CDlgSTExOption@@MAEXPAVCDataExchange@@@Z 10069950 f   DlgSTExOption.obj
 0001:000689d0       ?GetDivCount@CDlgSTExOption@@QAEHXZ 100699d0 f   DlgSTExOption.obj
 0001:00068a70       ?GetMessageMap@CDlgSTExOption@@MBEPBUAFX_MSGMAP@@XZ 10069a70 f   DlgSTExOption.obj
 0001:00068a80       ?GetRepRate@CDlgSTExOption@@QAENXZ 10069a80 f   DlgSTExOption.obj
 0001:00068b30       ?GetThisMessageMap@CDlgSTExOption@@KGPBUAFX_MSGMAP@@XZ 10069b30 f   DlgSTExOption.obj
 0001:00068b40       ?InitColumn@CDlgSTExOption@@QAEXPAVCXListCtrl@@@Z 10069b40 f   DlgSTExOption.obj
 0001:00068c10       ?OnBnClickedStapply@CDlgSTExOption@@QAEXXZ 10069c10 f   DlgSTExOption.obj
 0001:00068e50       ?OnBnClickedStreport@CDlgSTExOption@@IAEXXZ 10069e50 f   DlgSTExOption.obj
 0001:00069140       ?OnBnClickedStshowoption@CDlgSTExOption@@IAEXXZ 1006a140 f   DlgSTExOption.obj
 0001:00069160       ?OnCtlColor@CDlgSTExOption@@IAEPAUHBRUSH__@@PAVCDC@@PAVCWnd@@I@Z 1006a160 f   DlgSTExOption.obj
 0001:000691c0       ?OnDestroy@CDlgSTExOption@@QAEXXZ 1006a1c0 f   DlgSTExOption.obj
 0001:00069240       ?OnInitDialog@CDlgSTExOption@@MAEHXZ 1006a240 f   DlgSTExOption.obj
 0001:00069500       ?OnSize@CDlgSTExOption@@IAEXIHH@Z 1006a500 f   DlgSTExOption.obj
 0001:00069540       ?OpenRefort@CDlgSTExOption@@QAEXXZ 1006a540 f   DlgSTExOption.obj
 0001:00069550       ?SetInitDlg@CDlgSTExOption@@QAEXXZ 1006a550 f   DlgSTExOption.obj
 0001:000695a0       ??0CDlgToolbar@@QAE@PAVCWnd@@@Z 1006a5a0 f   DlgToolbar.obj
 0001:00069810       ??1CDlgSettingToolBar@@UAE@XZ 1006a810 f i DlgToolbar.obj
 0001:000698e0       ??1CDlgToolbar@@UAE@XZ     1006a8e0 f   DlgToolbar.obj
 0001:00069a90       ??_GCDlgToolbar@@UAEPAXI@Z 1006aa90 f i DlgToolbar.obj
 0001:00069a90       ??_ECDlgToolbar@@UAEPAXI@Z 1006aa90 f i DlgToolbar.obj
 0001:00069ad0       ?CreateToolButton@CDlgToolbar@@IAEHXZ 1006aad0 f   DlgToolbar.obj
 0001:0006a0d0       ?DestroyWindow@CDlgToolbar@@UAEHXZ 1006b0d0 f   DlgToolbar.obj
 0001:0006a100       ?DoDataExchange@CDlgToolbar@@MAEXPAVCDataExchange@@@Z 1006b100 f   DlgToolbar.obj
 0001:0006a110       ?DrawHighMenu@CDlgToolbar@@IAEHHH@Z 1006b110 f   DlgToolbar.obj
 0001:0006a460       ?DrawLowMenu@CDlgToolbar@@IAEHHHH@Z 1006b460 f   DlgToolbar.obj
 0001:0006a800       ?GetDrawInfo@CDlgToolbar@@IAEXHH@Z 1006b800 f   DlgToolbar.obj
 0001:0006a880       ?GetFieldData@CDlgToolbar@@IAEXV?$CStringT@DV?$StrTraitMFC_DLL@DV?$ChTraitsCRT@D@ATL@@@@@ATL@@AAHAAV23@@Z 1006b880 f   DlgToolbar.obj
 0001:0006a950       ?GetIndexArray@CDlgToolbar@@QAEHHAAV?$CArray@HH@@0@Z 1006b950 f   DlgToolbar.obj
 0001:0006ab70       ?GetMessageMap@CDlgToolbar@@MBEPBUAFX_MSGMAP@@XZ 1006bb70 f   DlgToolbar.obj
 0001:0006ab80       ?GetThisMessageMap@CDlgToolbar@@KGPBUAFX_MSGMAP@@XZ 1006bb80 f   DlgToolbar.obj
 0001:0006ab90       ?GetToolNameMap@CDlgToolbar@@QAEHAAV?$CMap@HHV?$CStringT@DV?$StrTraitMFC_DLL@DV?$ChTraitsCRT@D@ATL@@@@@ATL@@V12@@@@Z 1006bb90 f   DlgToolbar.obj
 0001:0006ae00       ?GetToolOption@CDlgToolbar@@QAE?AW4TOOLOPTION@CToolOptionInfo@@I@Z 1006be00 f   DlgToolbar.obj
 0001:0006b100       ?OnCmdMsg@CDlgToolbar@@UAEHIHPAXPAUAFX_CMDHANDLERINFO@@@Z 1006c100 f   DlgToolbar.obj
 0001:0006b1a0       ?OnEraseBkgnd@CDlgToolbar@@IAEHPAVCDC@@@Z 1006c1a0 f   DlgToolbar.obj
 0001:0006b1b0       ?OnInitDialog@CDlgToolbar@@MAEHXZ 1006c1b0 f   DlgToolbar.obj
 0001:0006b2d0       ?OnPaint@CDlgToolbar@@IAEXXZ 1006c2d0 f   DlgToolbar.obj
 0001:0006b660       ?OnSize@CDlgToolbar@@IAEXIHH@Z 1006c660 f   DlgToolbar.obj
 0001:0006b690       ?PreTranslateMessage@CDlgToolbar@@MAEHPAUtagMSG@@@Z 1006c690 f   DlgToolbar.obj
 0001:0006b6f0       ?ReadIniFile@CDlgToolbar@@IAEXH@Z 1006c6f0 f   DlgToolbar.obj
 0001:0006c230       ?ResetAllButton@CDlgToolbar@@QAEXXZ 1006d230 f   DlgToolbar.obj
 0001:0006c2a0       ?ResizeControl@CDlgToolbar@@UAEXHH@Z 1006d2a0 f   DlgToolbar.obj
 0001:0006c530       ?ResizeToolbar@CDlgToolbar@@IAEXH@Z 1006d530 f   DlgToolbar.obj
 0001:0006c6a0       ?SelectToolSelection@CDlgToolbar@@QAEXXZ 1006d6a0 f   DlgToolbar.obj
 0001:0006c760       ?SetToggleBtnFromOutside@CDlgToolbar@@QAEXI@Z 1006d760 f   DlgToolbar.obj
 0001:0006c780       ?SetToggleButton@CDlgToolbar@@QAEXHH@Z 1006d780 f   DlgToolbar.obj
 0001:0006cb20       ?WindowProc@CDlgToolbar@@MAEJIIJ@Z 1006db20 f   DlgToolbar.obj
 0001:0006d8c0       ??0CDllDlg@@QAE@PBD0PAXPAUHINSTANCE__@@PAVCWnd@@@Z 1006e8c0 f   DllDlg.obj
 0001:0006d9e0       ??1CDllDlg@@UAE@XZ         1006e9e0 f   DllDlg.obj
 0001:0006da40       ??_ECDllDlg@@UAEPAXI@Z     1006ea40 f i DllDlg.obj
 0001:0006da40       ??_GCDllDlg@@UAEPAXI@Z     1006ea40 f i DllDlg.obj
 0001:0006dad0       ?CalcCaptionBarRect@CDllDlg@@QAEXAAVCRect@@@Z 1006ead0 f   DllDlg.obj
 0001:0006db90       ?DoDataExchange@CDllDlg@@MAEXPAVCDataExchange@@@Z 1006eb90 f   DllDlg.obj
 0001:0006dba0       ?DrawBkgrnd@CDllDlg@@QAEXAAVCDC@@AAVCRect@@@Z 1006eba0 f   DllDlg.obj
 0001:0006dca0       ?DrawBtnClose@CDllDlg@@QAEXAAVCDC@@AAVCRect@@@Z 1006eca0 f   DllDlg.obj
 0001:0006ddb0       ?DrawTitle@CDllDlg@@QAEXAAVCDC@@AAVCRect@@@Z 1006edb0 f   DllDlg.obj
 0001:0006df30       ?GetMessageMap@CDllDlg@@MBEPBUAFX_MSGMAP@@XZ 1006ef30 f   DllDlg.obj
 0001:0006df40       ?GetRuntimeClass@CDllDlg@@UBEPAUCRuntimeClass@@XZ 1006ef40 f   DllDlg.obj
 0001:0006df50       ?GetThisClass@CDllDlg@@SGPAUCRuntimeClass@@XZ 1006ef50 f   DllDlg.obj
 0001:0006df60       ?GetThisMessageMap@CDllDlg@@KGPBUAFX_MSGMAP@@XZ 1006ef60 f   DllDlg.obj
 0001:0006df70       ?HitTestClient@CDllDlg@@QAEHVCPoint@@@Z 1006ef70 f   DllDlg.obj
 0001:0006dff0       ?HitTestWindow@CDllDlg@@QAEHVCPoint@@@Z 1006eff0 f   DllDlg.obj
 0001:0006e060       ?LoadTradeAup@CDllDlg@@QAEPAVCWnd@@V?$CStringT@DV?$StrTraitMFC_DLL@DV?$ChTraitsCRT@D@ATL@@@@@ATL@@PAV2@@Z 1006f060 f   DllDlg.obj
 0001:0006e1b0       ?OnDestroy@CDllDlg@@IAEXXZ 1006f1b0 f   DllDlg.obj
 0001:0006e220       ?OnInitDialog@CDllDlg@@MAEHXZ 1006f220 f   DllDlg.obj
 0001:0006e3a0       ?OnLButtonUp@CDllDlg@@IAEXIVCPoint@@@Z 1006f3a0 f   DllDlg.obj
 0001:0006e470       ?OnMouseMove@CDllDlg@@IAEXIVCPoint@@@Z 1006f470 f   DllDlg.obj
 0001:0006e510       ?OnNcActivate@CDllDlg@@IAEHH@Z 1006f510 f   DllDlg.obj
 0001:0006e520       ?OnNcLButtonDown@CDllDlg@@IAEXIVCPoint@@@Z 1006f520 f   DllDlg.obj
 0001:0006e5d0       ?OnNcMouseMove@CDllDlg@@IAEXIVCPoint@@@Z 1006f5d0 f   DllDlg.obj
 0001:0006e650       ?OnNcPaint@CDllDlg@@IAEXXZ 1006f650 f   DllDlg.obj
 0001:0006eb20       ?OnOk@CDllDlg@@IAEXXZ      1006fb20 f   DllDlg.obj
 0001:0006eb30       ?OnSetDllSize@CDllDlg@@IAEJIJ@Z 1006fb30 f   DllDlg.obj
 0001:0006ec00       ?OpenAUP@CDllDlg@@QAEHXZ   1006fc00 f   DllDlg.obj
 0001:0006ee60       ?_GetBaseClass@CDllDlg@@KGPAUCRuntimeClass@@XZ 1006fe60 f   DllDlg.obj
 0001:0006ee70       ??$CompareElements@II@@YGHPBI0@Z 1006fe70 f i ExtInputBarDlg.obj
 0001:0006eea0       ??$SerializeElements@I@@YGXAAVCArchive@@PAIH@Z 1006fea0 f i ExtInputBarDlg.obj
 0001:0006ef50       ??0?$CMap@IIV?$CStringT@DV?$StrTraitMFC_DLL@DV?$ChTraitsCRT@D@ATL@@@@@ATL@@PBD@@QAE@H@Z 1006ff50 f i ExtInputBarDlg.obj
 0001:0006ef90       ??0CExtInputBarDlg@@QAE@PAVCWnd@@@Z 1006ff90 f   ExtInputBarDlg.obj
 0001:0006f480       ??0CTime@ATL@@QAE@HHHHHHH@Z 10070480 f i ExtInputBarDlg.obj
 0001:0006f530       ??1?$CMap@IIV?$CStringT@DV?$StrTraitMFC_DLL@DV?$ChTraitsCRT@D@ATL@@@@@ATL@@PBD@@UAE@XZ 10070530 f i ExtInputBarDlg.obj
 0001:0006f580       ??1CExtInputBarDlg@@UAE@XZ 10070580 f i ExtInputBarDlg.obj
 0001:0006f7e0       ??1CMatrixSelecterDlg@@UAE@XZ 100707e0 f i ExtInputBarDlg.obj
 0001:0006f7f0       ??A?$CMap@IIV?$CStringT@DV?$StrTraitMFC_DLL@DV?$ChTraitsCRT@D@ATL@@@@@ATL@@PBD@@QAEAAV?$CStringT@DV?$StrTraitMFC_DLL@DV?$ChTraitsCRT@D@ATL@@@@@ATL@@I@Z 100707f0 f i ExtInputBarDlg.obj
 0001:0006f900       ??_E?$CMap@IIV?$CStringT@DV?$StrTraitMFC_DLL@DV?$ChTraitsCRT@D@ATL@@@@@ATL@@PBD@@UAEPAXI@Z 10070900 f i ExtInputBarDlg.obj
 0001:0006f900       ??_G?$CMap@IIV?$CStringT@DV?$StrTraitMFC_DLL@DV?$ChTraitsCRT@D@ATL@@@@@ATL@@PBD@@UAEPAXI@Z 10070900 f i ExtInputBarDlg.obj
 0001:0006f990       ??_ECDateTimeCtrl@@UAEPAXI@Z 10070990 f i ExtInputBarDlg.obj
 0001:0006f990       ??_GCDateTimeCtrl@@UAEPAXI@Z 10070990 f i ExtInputBarDlg.obj
 0001:0006f9d0       ??_GCExtInputBarDlg@@UAEPAXI@Z 100709d0 f i ExtInputBarDlg.obj
 0001:0006f9d0       ??_ECExtInputBarDlg@@UAEPAXI@Z 100709d0 f i ExtInputBarDlg.obj
 0001:0006fa10       ?ActionPopupMenuItem@CExtInputBarDlg@@QAEXI@Z 10070a10 f   ExtInputBarDlg.obj
 0001:0006fb30       ?AddPopupMenuItem@CExtInputBarDlg@@QAEXPAVCMenu@@PAVCPoint@@@Z 10070b30 f   ExtInputBarDlg.obj
 0001:0006fec0       ?ChangeButtonColor@CExtInputBarDlg@@QAEXXZ 10070ec0 f   ExtInputBarDlg.obj
 0001:0006fed0       ?ChangeSkinColor@CExtInputBarDlg@@QAEXXZ 10070ed0 f   ExtInputBarDlg.obj
 0001:0006ff30       ?ChangeStatusDateControl@CExtInputBarDlg@@QAEXH@Z 10070f30 f   ExtInputBarDlg.obj
 0001:0006ffb0       ?ClearLink@CExtInputBarDlg@@AAEXXZ 10070fb0 f   ExtInputBarDlg.obj
 0001:0006ffe0       ?DoDataExchange@CExtInputBarDlg@@MAEXPAVCDataExchange@@@Z 10070fe0 f   ExtInputBarDlg.obj
 0001:000702d0       ?EnableAccount@CExtInputBarDlg@@QAEXH@Z 100712d0 f   ExtInputBarDlg.obj
 0001:00070320       ?EnableQueryOpt@CExtInputBarDlg@@QAEXH@Z 10071320 f   ExtInputBarDlg.obj
 0001:00070330       ?Format@CTime@ATL@@QBE?AV?$CStringT@DV?$StrTraitMFC_DLL@DV?$ChTraitsCRT@D@ATL@@@@@2@PBD@Z 10071330 f i ExtInputBarDlg.obj
 0001:000703d0       ?GetAssocAt@?$CMap@IIV?$CStringT@DV?$StrTraitMFC_DLL@DV?$ChTraitsCRT@D@ATL@@@@@ATL@@PBD@@IBEPAVCAssoc@1@IAAI0@Z 100713d0 f i ExtInputBarDlg.obj
 0001:00070440       ?GetCheck@CButton@@QBEHXZ  10071440 f i ExtInputBarDlg.obj
 0001:00070460       ?GetMessageMap@CExtInputBarDlg@@MBEPBUAFX_MSGMAP@@XZ 10071460 f   ExtInputBarDlg.obj
 0001:00070470       ?GetQueryOpt@CExtInputBarDlg@@QAEHXZ 10071470 f   ExtInputBarDlg.obj
 0001:00070490       ?GetThisMessageMap@CExtInputBarDlg@@KGPBUAFX_MSGMAP@@XZ 10071490 f   ExtInputBarDlg.obj
 0001:000704a0       ?GetTimeSyncFlag@CExtInputBarDlg@@QAEHXZ 100714a0 f   ExtInputBarDlg.obj
 0001:000704b0       ?InitChartMulitItem@CExtInputBarDlg@@QAEXPAU_ST_SELCHART@@@Z 100714b0 f   ExtInputBarDlg.obj
 0001:00070550       ?InitHashTable@?$CMap@IIV?$CStringT@DV?$StrTraitMFC_DLL@DV?$ChTraitsCRT@D@ATL@@@@@ATL@@PBD@@QAEXIH@Z 10071550 f i ExtInputBarDlg.obj
 0001:000705c0       ?Lookup@?$CMap@IIV?$CStringT@DV?$StrTraitMFC_DLL@DV?$ChTraitsCRT@D@ATL@@@@@ATL@@PBD@@QBEHIAAV?$CStringT@DV?$StrTraitMFC_DLL@DV?$ChTraitsCRT@D@ATL@@@@@ATL@@@Z 100715c0 f i ExtInputBarDlg.obj
 0001:00070600       ?MoveAccountCtrl@CExtInputBarDlg@@QAEXXZ 10071600 f   ExtInputBarDlg.obj
 0001:00070680       ?NewAssoc@?$CMap@IIV?$CStringT@DV?$StrTraitMFC_DLL@DV?$ChTraitsCRT@D@ATL@@@@@ATL@@PBD@@IAEPAVCAssoc@1@I@Z 10071680 f i ExtInputBarDlg.obj
 0001:00070700       ?OnBtScrollNext@CExtInputBarDlg@@IAEXXZ 10071700 f   ExtInputBarDlg.obj
 0001:00070850       ?OnBtScrollPre@CExtInputBarDlg@@IAEXXZ 10071850 f   ExtInputBarDlg.obj
 0001:000709a0       ?OnBtScrollStop@CExtInputBarDlg@@IAEXXZ 100719a0 f   ExtInputBarDlg.obj
 0001:00070a60       ?OnBtSub2@CExtInputBarDlg@@IAEXXZ 10071a60 f   ExtInputBarDlg.obj
 0001:00070ac0       ?OnBtanalysispattern@CExtInputBarDlg@@IAEXXZ 10071ac0 f   ExtInputBarDlg.obj
 0001:00070af0       ?OnBtchartconfig@CExtInputBarDlg@@IAEXXZ 10071af0 f   ExtInputBarDlg.obj
 0001:00070b10       ?OnBtchartguideline@CExtInputBarDlg@@IAEXXZ 10071b10 f   ExtInputBarDlg.obj
 0001:00070b40       ?OnBtetcmenu@CExtInputBarDlg@@IAEXXZ 10071b40 f   ExtInputBarDlg.obj
 0001:00071030       ?OnBtexnext@CExtInputBarDlg@@IAEXXZ 10072030 f   ExtInputBarDlg.obj
 0001:00071050       ?OnBtexprev@CExtInputBarDlg@@IAEXXZ 10072050 f   ExtInputBarDlg.obj
 0001:00071070       ?OnBtfixperiod@CExtInputBarDlg@@IAEXXZ 10072070 f   ExtInputBarDlg.obj
 0001:000711d0       ?OnBthist@CExtInputBarDlg@@IAEXXZ 100721d0 f   ExtInputBarDlg.obj
 0001:00071200       ?OnBtindex@CExtInputBarDlg@@IAEXXZ 10072200 f   ExtInputBarDlg.obj
 0001:00071840       ?OnBtinitial@CExtInputBarDlg@@IAEXXZ 10072840 f   ExtInputBarDlg.obj
 0001:00071930       ?OnBtinitsplit@CExtInputBarDlg@@IAEXXZ 10072930 f   ExtInputBarDlg.obj
 0001:00071980       ?OnBtload@CExtInputBarDlg@@IAEXXZ 10072980 f   ExtInputBarDlg.obj
 0001:000719f0       ?OnBtnAnalizePeriod@CExtInputBarDlg@@IAEXXZ 100729f0 f   ExtInputBarDlg.obj
 0001:00071a20       ?OnBtnBuyscr@CExtInputBarDlg@@IAEXXZ 10072a20 f   ExtInputBarDlg.obj
 0001:00071a30       ?OnBtnChangsynit@CExtInputBarDlg@@IAEXXZ 10072a30 f   ExtInputBarDlg.obj
 0001:00071aa0       ?OnBtnEdate@CExtInputBarDlg@@IAEXXZ 10072aa0 f   ExtInputBarDlg.obj
 0001:00071fd0       ?OnBtnGwansim@CExtInputBarDlg@@IAEXXZ 10072fd0 f   ExtInputBarDlg.obj
 0001:000723b0       ?OnBtnPeriod@CExtInputBarDlg@@IAEXXZ 100733b0 f   ExtInputBarDlg.obj
 0001:000723c0       ?OnBtnSdate@CExtInputBarDlg@@IAEXXZ 100733c0 f   ExtInputBarDlg.obj
 0001:00072600       ?OnBtnSellscr@CExtInputBarDlg@@IAEXXZ 10073600 f   ExtInputBarDlg.obj
 0001:00072610       ?OnBtprint@CExtInputBarDlg@@IAEXXZ 10073610 f   ExtInputBarDlg.obj
 0001:00072620       ?OnBtsave@CExtInputBarDlg@@IAEXXZ 10073620 f   ExtInputBarDlg.obj
 0001:00072690       ?OnBtsetenvir@CExtInputBarDlg@@IAEXXZ 10073690 f   ExtInputBarDlg.obj
 0001:000726c0       ?OnBtshowmatrix@CExtInputBarDlg@@IAEXXZ 100736c0 f   ExtInputBarDlg.obj
 0001:00072750       ?OnBtst@CExtInputBarDlg@@IAEXXZ 10073750 f   ExtInputBarDlg.obj
 0001:00072780       ?OnChangeCrossLine@CExtInputBarDlg@@IAEJIJ@Z 10073780 f   ExtInputBarDlg.obj
 0001:000727c0       ?OnChkAccountavg@CExtInputBarDlg@@IAEXXZ 100737c0 f   ExtInputBarDlg.obj
 0001:00072880       ?OnChkAccountconc@CExtInputBarDlg@@IAEXXZ 10073880 f   ExtInputBarDlg.obj
 0001:000728d0       ?OnChkEndsave@CExtInputBarDlg@@IAEXXZ 100738d0 f   ExtInputBarDlg.obj
 0001:00072900       ?OnChkQueryOpt@CExtInputBarDlg@@IAEXXZ 10073900 f   ExtInputBarDlg.obj
 0001:00072930       ?OnChkRevised@CExtInputBarDlg@@IAEXXZ 10073930 f   ExtInputBarDlg.obj
 0001:00072960       ?OnChkfixperiod@CExtInputBarDlg@@IAEXXZ 10073960 f   ExtInputBarDlg.obj
 0001:00072a70       ?OnChkjongmoklink@CExtInputBarDlg@@IAEXXZ 10073a70 f   ExtInputBarDlg.obj
 0001:00072b20       ?OnChkshowscale@CExtInputBarDlg@@IAEXXZ 10073b20 f   ExtInputBarDlg.obj
 0001:00072b60       ?OnChktypelink@CExtInputBarDlg@@IAEXXZ 10073b60 f   ExtInputBarDlg.obj
 0001:00072bc0       ?OnChkupdateindex@CExtInputBarDlg@@IAEXXZ 10073bc0 f   ExtInputBarDlg.obj
 0001:00072c10       ?OnCloseupDatetimepicker1@CExtInputBarDlg@@IAEXPAUtagNMHDR@@PAJ@Z 10073c10 f   ExtInputBarDlg.obj
 0001:00072d10       ?OnCommand@CExtInputBarDlg@@MAEHIJ@Z 10073d10 f   ExtInputBarDlg.obj
 0001:00072d50       ?OnCtlColor@CExtInputBarDlg@@IAEPAUHBRUSH__@@PAVCDC@@PAVCWnd@@I@Z 10073d50 f   ExtInputBarDlg.obj
 0001:00072da0       ?OnDatetimechangeDatetimepicker1@CExtInputBarDlg@@IAEXXZ 10073da0 f   ExtInputBarDlg.obj
 0001:00072ea0       ?OnDestroy@CExtInputBarDlg@@IAEXXZ 10073ea0 f   ExtInputBarDlg.obj
 0001:000730b0       ?OnEraseBkgnd@CExtInputBarDlg@@IAEHPAVCDC@@@Z 100740b0 f   ExtInputBarDlg.obj
 0001:000730c0       ?OnInitDialog@CExtInputBarDlg@@MAEHXZ 100740c0 f   ExtInputBarDlg.obj
 0001:00073dd0       ?OnLButtonDown@CExtInputBarDlg@@IAEXIVCPoint@@@Z 10074dd0 f   ExtInputBarDlg.obj
 0001:00073e00       ?OnPaint@CExtInputBarDlg@@IAEXXZ 10074e00 f   ExtInputBarDlg.obj
 0001:00073f60       ?OnSelchangeCmbScrollSpeed@CExtInputBarDlg@@IAEXXZ 10074f60 f   ExtInputBarDlg.obj
 0001:00074000       ?OnSize@CExtInputBarDlg@@IAEXIHH@Z 10075000 f   ExtInputBarDlg.obj
 0001:00074010       ?OnTimer@CExtInputBarDlg@@IAEXI@Z 10075010 f   ExtInputBarDlg.obj
 0001:00074080       ?OpenMap@CExtInputBarDlg@@QAEJPBD@Z 10075080 f   ExtInputBarDlg.obj
 0001:00074090       ?PreTranslateMessage@CExtInputBarDlg@@UAEHPAUtagMSG@@@Z 10075090 f   ExtInputBarDlg.obj
 0001:00074100       ?RemoveAll@?$CMap@IIV?$CStringT@DV?$StrTraitMFC_DLL@DV?$ChTraitsCRT@D@ATL@@@@@ATL@@PBD@@QAEXXZ 10075100 f i ExtInputBarDlg.obj
 0001:00074170       ?ResetChartData@CExtInputBarDlg@@QAEXXZ 10075170 f   ExtInputBarDlg.obj
 0001:00074230       ?SaveExtInputBar@CExtInputBarDlg@@QAEXXZ 10075230 f   ExtInputBarDlg.obj
 0001:000743e0       ?Serialize@?$CMap@IIV?$CStringT@DV?$StrTraitMFC_DLL@DV?$ChTraitsCRT@D@ATL@@@@@ATL@@PBD@@UAEXAAVCArchive@@@Z 100753e0 f i ExtInputBarDlg.obj
 0001:00074780       ?SetCheckRevised@CExtInputBarDlg@@QAEXH@Z 10075780 f   ExtInputBarDlg.obj
 0001:000747a0       ?SetExt@CExtInputBarDlg@@AAEXH@Z 100757a0 f   ExtInputBarDlg.obj
 0001:000753f0       ?SetMarketType@CExtInputBarDlg@@QAEXH@Z 100763f0 f   ExtInputBarDlg.obj
 0001:00075440       ?SetQueryOpt@CExtInputBarDlg@@QAEXH@Z 10076440 f   ExtInputBarDlg.obj
 0001:00075460       ?SetTimeSyncFlag@CExtInputBarDlg@@QAEXH@Z 10076460 f   ExtInputBarDlg.obj
 0001:00075490       ?WindowProc@CExtInputBarDlg@@MAEJIIJ@Z 10076490 f   ExtInputBarDlg.obj
 0001:00075f10       ??$SerializeElements@UstFvrData@@@@YGXAAVCArchive@@PAUstFvrData@@H@Z 10076f10 f i FavoriteThingsMng.obj
 0001:00075fc0       ??0?$CArray@UstFvrData@@U1@@@QAE@XZ 10076fc0 f i FavoriteThingsMng.obj
 0001:00076000       ??0CFavoriteThingsMng@@QAE@XZ 10077000 f   FavoriteThingsMng.obj
 0001:00076060       ??1?$CArray@UstFvrData@@U1@@@UAE@XZ 10077060 f i FavoriteThingsMng.obj
 0001:00076080       ??1CFavoriteThingsMng@@UAE@XZ 10077080 f   FavoriteThingsMng.obj
 0001:000760d0       ??_E?$CArray@UstFvrData@@U1@@@UAEPAXI@Z 100770d0 f i FavoriteThingsMng.obj
 0001:000760d0       ??_G?$CArray@UstFvrData@@U1@@@UAEPAXI@Z 100770d0 f i FavoriteThingsMng.obj
 0001:00076120       ??_ECFavoriteThingsMng@@UAEPAXI@Z 10077120 f i FavoriteThingsMng.obj
 0001:00076120       ??_GCFavoriteThingsMng@@UAEPAXI@Z 10077120 f i FavoriteThingsMng.obj
 0001:00076180       ?DeleteGrp@CFavoriteThingsMng@@QAEHPBD@Z 10077180 f   FavoriteThingsMng.obj
 0001:00076290       ?DeleteItemInfo@CFavoriteThingsMng@@QAEHPBD0@Z 10077290 f   FavoriteThingsMng.obj
 0001:000765d0       ?FindGrp@CFavoriteThingsMng@@AAEHPBD@Z 100775d0 f   FavoriteThingsMng.obj
 0001:00076670       ?FindItem@CFavoriteThingsMng@@AAEHPAUstFvrData@@@Z 10077670 f   FavoriteThingsMng.obj
 0001:00076720       ?LoadGrpInfo@CFavoriteThingsMng@@QAEHXZ 10077720 f   FavoriteThingsMng.obj
 0001:00076810       ?LoadItemInfo@CFavoriteThingsMng@@QAEHPBD@Z 10077810 f   FavoriteThingsMng.obj
 0001:00076a40       ?NewGrp@CFavoriteThingsMng@@QAEHPBD@Z 10077a40 f   FavoriteThingsMng.obj
 0001:00076b50       ?RemoveAt@?$CArray@UstFvrData@@U1@@@QAEXHH@Z 10077b50 f i FavoriteThingsMng.obj
 0001:00076bf0       ?SaveItemInfo@CFavoriteThingsMng@@QAEHPAUstFvrData@@PBD@Z 10077bf0 f   FavoriteThingsMng.obj
 0001:00076e70       ?Serialize@?$CArray@UstFvrData@@U1@@@UAEXAAVCArchive@@@Z 10077e70 f i FavoriteThingsMng.obj
 0001:00076f50       ?SetAtGrow@?$CArray@UstFvrData@@U1@@@QAEXHUstFvrData@@@Z 10077f50 f i FavoriteThingsMng.obj
 0001:00076f90       ?SetPath@CFavoriteThingsMng@@QAEXV?$CStringT@DV?$StrTraitMFC_DLL@DV?$ChTraitsCRT@D@ATL@@@@@ATL@@@Z 10077f90 f   FavoriteThingsMng.obj
 0001:00076fe0       ?SetSize@?$CArray@UstFvrData@@U1@@@QAEXHH@Z 10077fe0 f i FavoriteThingsMng.obj
 0001:000771d0       ??$CompareElements@GG@@YGHPBG0@Z 100781d0 f i FloatingHogaDlg.obj
 0001:00077200       ??$SerializeElements@G@@YGXAAVCArchive@@PAGH@Z 10078200 f i FloatingHogaDlg.obj
 0001:000772a0       ??$SerializeElements@PAVCHogaData@@@@YGXAAVCArchive@@PAPAVCHogaData@@H@Z 100782a0 f i FloatingHogaDlg.obj
 0001:00077350       ??0?$CArray@PAVCHogaData@@PAV1@@@QAE@XZ 10078350 f i FloatingHogaDlg.obj
 0001:00077380       ??0?$CMap@GGV?$CStringT@DV?$StrTraitMFC_DLL@DV?$ChTraitsCRT@D@ATL@@@@@ATL@@V12@@@QAE@H@Z 10078380 f i FloatingHogaDlg.obj
 0001:000773c0       ??0CFloatingHogaDlg@@QAE@PAVCWnd@@@Z 100783c0 f   FloatingHogaDlg.obj
 0001:00077740       ??0CKBREAL_KXH1@@QAE@XZ    10078740 f i FloatingHogaDlg.obj
 0001:00077830       ??0CKB_01230@@QAE@XZ       10078830 f i FloatingHogaDlg.obj
 0001:000779e0       ??1?$CArray@PAVCHogaData@@PAV1@@@UAE@XZ 100789e0 f i FloatingHogaDlg.obj
 0001:00077a00       ??1?$CMap@GGV?$CStringT@DV?$StrTraitMFC_DLL@DV?$ChTraitsCRT@D@ATL@@@@@ATL@@V12@@@UAE@XZ 10078a00 f i FloatingHogaDlg.obj
 0001:00077ac0       ??1CKBREAL_KXH1@@QAE@XZ    10078ac0 f i FloatingHogaDlg.obj
 0001:00077ba0       ??1CKBREAL_KXYS@@QAE@XZ    10078ba0 f i FloatingHogaDlg.obj
 0001:00077be0       ??1CKB_01230@@QAE@XZ       10078be0 f i FloatingHogaDlg.obj
 0001:00077d80       ??1_GV_ITEM@@QAE@XZ        10078d80 f i FloatingHogaDlg.obj
 0001:00077d90       ??A?$CMap@GGV?$CStringT@DV?$StrTraitMFC_DLL@DV?$ChTraitsCRT@D@ATL@@@@@ATL@@V12@@@QAEAAV?$CStringT@DV?$StrTraitMFC_DLL@DV?$ChTraitsCRT@D@ATL@@@@@ATL@@G@Z 10078d90 f i FloatingHogaDlg.obj
 0001:00077ed0       ??_G?$CArray@PAVCHogaData@@PAV1@@@UAEPAXI@Z 10078ed0 f i FloatingHogaDlg.obj
 0001:00077ed0       ??_E?$CArray@PAVCHogaData@@PAV1@@@UAEPAXI@Z 10078ed0 f i FloatingHogaDlg.obj
 0001:00077f20       ??_G?$CMap@GGV?$CStringT@DV?$StrTraitMFC_DLL@DV?$ChTraitsCRT@D@ATL@@@@@ATL@@V12@@@UAEPAXI@Z 10078f20 f i FloatingHogaDlg.obj
 0001:00077f20       ??_E?$CMap@GGV?$CStringT@DV?$StrTraitMFC_DLL@DV?$ChTraitsCRT@D@ATL@@@@@ATL@@V12@@@UAEPAXI@Z 10078f20 f i FloatingHogaDlg.obj
 0001:00077f70       ??_GCFloatingHogaDlg@@UAEPAXI@Z 10078f70 f i FloatingHogaDlg.obj
 0001:00077f70       ??_ECFloatingHogaDlg@@UAEPAXI@Z 10078f70 f i FloatingHogaDlg.obj
 0001:00078070       ??_GCUtil@@UAEPAXI@Z       10079070 f i FloatingHogaDlg.obj
 0001:00078070       ??_ECUtil@@UAEPAXI@Z       10079070 f i FloatingHogaDlg.obj
 0001:000780b0       ?Add@?$CArray@PAVCHogaData@@PAV1@@@QAEHPAVCHogaData@@@Z 100790b0 f i FloatingHogaDlg.obj
 0001:000781c0       ?ChangeGrid_AllWidth@CFloatingHogaDlg@@QAEXXZ 100791c0 f   FloatingHogaDlg.obj
 0001:00078250       ?ChangeGrid_ColumnWidth@CFloatingHogaDlg@@QAEXXZ 10079250 f   FloatingHogaDlg.obj
 0001:00078410       ?ChangeGrid_RowHeight@CFloatingHogaDlg@@QAEXXZ 10079410 f   FloatingHogaDlg.obj
 0001:00078490       ?CheckRealHogaDataWithinHogaData@CFloatingHogaDlg@@QAEHV?$CStringT@DV?$StrTraitMFC_DLL@DV?$ChTraitsCRT@D@ATL@@@@@ATL@@PAH@Z 10079490 f   FloatingHogaDlg.obj
 0001:00078730       ?CompareNUpdateHogaData@CFloatingHogaDlg@@QAEXHHV?$CStringT@DV?$StrTraitMFC_DLL@DV?$ChTraitsCRT@D@ATL@@@@@ATL@@HK@Z 10079730 f   FloatingHogaDlg.obj
 0001:00078840       ?Convert@CKBREAL_KXH1@@UAEXPAU_KXH1_OutBlock@@@Z 10079840 f i FloatingHogaDlg.obj
 0001:00078d70       ?Convert@CKBREAL_KXYS@@UAEXPAU_KXYS_OutBlock@@@Z 10079d70 f i FloatingHogaDlg.obj
 0001:00078f00       ?Convert@CKB_01230@@UAEXPAU_k01230Out2@@@Z 10079f00 f i FloatingHogaDlg.obj
 0001:00079830       ?DisplayClear_AllHogaData@CFloatingHogaDlg@@QAEXXZ 1007a830 f   FloatingHogaDlg.obj
 0001:00079950       ?DoDataExchange@CFloatingHogaDlg@@MAEXPAVCDataExchange@@@Z 1007a950 f   FloatingHogaDlg.obj
 0001:000799b0       ?GetAssocAt@?$CMap@GGV?$CStringT@DV?$StrTraitMFC_DLL@DV?$ChTraitsCRT@D@ATL@@@@@ATL@@V12@@@IBEPAVCAssoc@1@GAAI0@Z 1007a9b0 f i FloatingHogaDlg.obj
 0001:00079a10       ?GetHogaGridBkColor@CFloatingHogaDlg@@QAEKH@Z 1007aa10 f   FloatingHogaDlg.obj
 0001:00079aa0       ?GetMessageMap@CFloatingHogaDlg@@MBEPBUAFX_MSGMAP@@XZ 1007aaa0 f   FloatingHogaDlg.obj
 0001:00079ab0       ?GetThisMessageMap@CFloatingHogaDlg@@KGPBUAFX_MSGMAP@@XZ 1007aab0 f   FloatingHogaDlg.obj
 0001:00079ac0       ?HogaMemoryFree@CFloatingHogaDlg@@QAEXXZ 1007aac0 f   FloatingHogaDlg.obj
 0001:00079b40       ?InitGrid@CFloatingHogaDlg@@QAEXXZ 1007ab40 f   FloatingHogaDlg.obj
 0001:00079df0       ?InitGridFormat@CFloatingHogaDlg@@QAEXXZ 1007adf0 f   FloatingHogaDlg.obj
 0001:0007a290       ?InitGridRowCol@CFloatingHogaDlg@@QAEXXZ 1007b290 f   FloatingHogaDlg.obj
 0001:0007a340       ?InitHashTable@?$CMap@GGV?$CStringT@DV?$StrTraitMFC_DLL@DV?$ChTraitsCRT@D@ATL@@@@@ATL@@V12@@@QAEXIH@Z 1007b340 f i FloatingHogaDlg.obj
 0001:0007a3b0       ?InsertAt@?$CArray@PAVCHogaData@@PAV1@@@QAEXHPAVCHogaData@@H@Z 1007b3b0 f i FloatingHogaDlg.obj
 0001:0007a490       ?MakeDrdsConnectAdvise@CFloatingHogaDlg@@QAEHXZ 1007b490 f   FloatingHogaDlg.obj
 0001:0007a4c0       ?MakeDrdsUnConnectUnAdvise@CFloatingHogaDlg@@QAEHXZ 1007b4c0 f   FloatingHogaDlg.obj
 0001:0007a540       ?NewAssoc@?$CMap@GGV?$CStringT@DV?$StrTraitMFC_DLL@DV?$ChTraitsCRT@D@ATL@@@@@ATL@@V12@@@IAEPAVCAssoc@1@G@Z 1007b540 f i FloatingHogaDlg.obj
 0001:0007a5c0       ?OnButtonClose@CFloatingHogaDlg@@IAEXXZ 1007b5c0 f   FloatingHogaDlg.obj
 0001:0007a680       ?OnCodeAdvise@CFloatingHogaDlg@@QAEXPBD@Z 1007b680 f   FloatingHogaDlg.obj
 0001:0007a6d0       ?OnCodeUnAdvise@CFloatingHogaDlg@@QAEXPBD@Z 1007b6d0 f   FloatingHogaDlg.obj
 0001:0007a720       ?OnDestroy@CFloatingHogaDlg@@IAEXXZ 1007b720 f   FloatingHogaDlg.obj
 0001:0007a7e0       ?OnEraseBkgnd@CFloatingHogaDlg@@IAEHPAVCDC@@@Z 1007b7e0 f   FloatingHogaDlg.obj
 0001:0007a7f0       ?OnInitDialog@CFloatingHogaDlg@@MAEHXZ 1007b7f0 f   FloatingHogaDlg.obj
 0001:0007aa50       ?OnLButtonDblClk@CFloatingHogaDlg@@IAEXIVCPoint@@@Z 1007ba50 f   FloatingHogaDlg.obj
 0001:0007ab70       ?OnLButtonDown@CFloatingHogaDlg@@IAEXIVCPoint@@@Z 1007bb70 f   FloatingHogaDlg.obj
 0001:0007aba0       ?OnLButtonUp@CFloatingHogaDlg@@IAEXIVCPoint@@@Z 1007bba0 f   FloatingHogaDlg.obj
 0001:0007abb0       ?OnMouseMove@CFloatingHogaDlg@@IAEXIVCPoint@@@Z 1007bbb0 f   FloatingHogaDlg.obj
 0001:0007abc0       ?OnNcHitTest@CFloatingHogaDlg@@IAEJVCPoint@@@Z 1007bbc0 f   FloatingHogaDlg.obj
 0001:0007abd0       ?OnPaint@CFloatingHogaDlg@@IAEXXZ 1007bbd0 f   FloatingHogaDlg.obj
 0001:0007ad30       ?OnSetCursor@CFloatingHogaDlg@@IAEHPAVCWnd@@II@Z 1007bd30 f   FloatingHogaDlg.obj
 0001:0007adb0       ?OnSize@CFloatingHogaDlg@@IAEXIHH@Z 1007bdb0 f   FloatingHogaDlg.obj
 0001:0007ade0       ?PreTranslateMessage@CFloatingHogaDlg@@UAEHPAUtagMSG@@@Z 1007bde0 f   FloatingHogaDlg.obj
 0001:0007ae10       ?RecvHogaData@CFloatingHogaDlg@@QAEXHPAD@Z 1007be10 f   FloatingHogaDlg.obj
 0001:0007ae40       ?RemoveAll@?$CMap@GGV?$CStringT@DV?$StrTraitMFC_DLL@DV?$ChTraitsCRT@D@ATL@@@@@ATL@@V12@@@QAEXXZ 1007be40 f i FloatingHogaDlg.obj
 0001:0007aeb0       ?RemoveExtra@CFloatingHogaDlg@@QAEXAAVCKBREAL_KXH1@@@Z 1007beb0 f   FloatingHogaDlg.obj
 0001:0007af30       ?SendTrHoga@CFloatingHogaDlg@@QAEXXZ 1007bf30 f   FloatingHogaDlg.obj
 0001:0007af40       ?Serialize@?$CArray@PAVCHogaData@@PAV1@@@UAEXAAVCArchive@@@Z 1007bf40 f i FloatingHogaDlg.obj
 0001:0007b020       ?Serialize@?$CMap@GGV?$CStringT@DV?$StrTraitMFC_DLL@DV?$ChTraitsCRT@D@ATL@@@@@ATL@@V12@@@UAEXAAVCArchive@@@Z 1007c020 f i FloatingHogaDlg.obj
 0001:0007b2a0       ?SetAtGrow@?$CArray@PAVCHogaData@@PAV1@@@QAEXHPAVCHogaData@@@Z 1007c2a0 f i FloatingHogaDlg.obj
 0001:0007b2e0       ?SetHogaData@CFloatingHogaDlg@@QAEXPADHH@Z 1007c2e0 f   FloatingHogaDlg.obj
 0001:0007c440       ?SetHogaData_Sub@CFloatingHogaDlg@@QAEXV?$CStringT@DV?$StrTraitMFC_DLL@DV?$ChTraitsCRT@D@ATL@@@@@ATL@@00H@Z 1007d440 f   FloatingHogaDlg.obj
 0001:0007c860       ?SetMarkRealCurPrice@CFloatingHogaDlg@@QAEXPADH@Z 1007d860 f   FloatingHogaDlg.obj
 0001:0007c870       ?SetRealHogaData@CFloatingHogaDlg@@QAEXAAVCKBREAL_KXH1@@@Z 1007d870 f   FloatingHogaDlg.obj
 0001:0007cf70       ?SetRealHogaData@CFloatingHogaDlg@@QAEXKV?$CStringT@DV?$StrTraitMFC_DLL@DV?$ChTraitsCRT@D@ATL@@@@@ATL@@J@Z 1007df70 f   FloatingHogaDlg.obj
 0001:0007d370       ?SetRealHogaData_Rem@CFloatingHogaDlg@@QAEXV?$CStringT@DV?$StrTraitMFC_DLL@DV?$ChTraitsCRT@D@ATL@@@@@ATL@@H@Z 1007e370 f   FloatingHogaDlg.obj
 0001:0007d430       ?SetRealHogaData_Sub@CFloatingHogaDlg@@QAEXV?$CStringT@DV?$StrTraitMFC_DLL@DV?$ChTraitsCRT@D@ATL@@@@@ATL@@0H@Z 1007e430 f   FloatingHogaDlg.obj
 0001:0007d960       ?SetRealYeShangData@CFloatingHogaDlg@@QAEXPBD@Z 1007e960 f   FloatingHogaDlg.obj
 0001:0007dd90       ?SetSize@?$CArray@PAVCHogaData@@PAV1@@@QAEXHH@Z 1007ed90 f i FloatingHogaDlg.obj
 0001:0007df70       ?WindowProc@CFloatingHogaDlg@@MAEJIIJ@Z 1007ef70 f   FloatingHogaDlg.obj
 0001:0007e070       ??0CForeignBar@@QAE@PAVCWnd@@@Z 1007f070 f   ForeignBar.obj
 0001:0007e0a0       ??_ECForeignBar@@UAEPAXI@Z 1007f0a0 f i ForeignBar.obj
 0001:0007e0a0       ??_GCForeignBar@@UAEPAXI@Z 1007f0a0 f i ForeignBar.obj
 0001:0007e0e0       ?DoDataExchange@CForeignBar@@MAEXPAVCDataExchange@@@Z 1007f0e0 f   ForeignBar.obj
 0001:0007e0f0       ?GetMessageMap@CForeignBar@@MBEPBUAFX_MSGMAP@@XZ 1007f0f0 f   ForeignBar.obj
 0001:0007e100       ?GetThisMessageMap@CForeignBar@@KGPBUAFX_MSGMAP@@XZ 1007f100 f   ForeignBar.obj
 0001:0007e110       ??0CMessageWindow@@QAE@XZ  1007f110 f   MsgWnd.obj
 0001:0007e240       ??1CMessageWindow@@UAE@XZ  1007f240 f   MsgWnd.obj
 0001:0007e310       ??_GCMessageWindow@@UAEPAXI@Z 1007f310 f i MsgWnd.obj
 0001:0007e310       ??_ECMessageWindow@@UAEPAXI@Z 1007f310 f i MsgWnd.obj
 0001:0007e410       ?AddMessage@CMessageWindow@@QAEXPADI@Z 1007f410 f   MsgWnd.obj
 0001:0007e5a0       ?CheckMaxLines@CMessageWindow@@QAEXXZ 1007f5a0 f   MsgWnd.obj
 0001:0007e5f0       ?CreateMessageWnd@CMessageWindow@@QAEHPAVCWnd@@@Z 1007f5f0 f   MsgWnd.obj
 0001:0007e670       ?DelMessage@CMessageWindow@@QAEXXZ 1007f670 f   MsgWnd.obj
 0001:0007e6a0       ?GetMessageA@CMessageWindow@@QAEHAAV?$CStringT@DV?$StrTraitMFC_DLL@DV?$ChTraitsCRT@D@ATL@@@@@ATL@@@Z 1007f6a0 f   MsgWnd.obj
 0001:0007e6f0       ?GetMessageMap@CMessageWindow@@MBEPBUAFX_MSGMAP@@XZ 1007f6f0 f   MsgWnd.obj
 0001:0007e700       ?GetThisMessageMap@CMessageWindow@@KGPBUAFX_MSGMAP@@XZ 1007f700 f   MsgWnd.obj
 0001:0007e710       ?GetWndHeight@CMessageWindow@@QAEHXZ 1007f710 f   MsgWnd.obj
 0001:0007e720       ?MoveMessageWnd@CMessageWindow@@QAEXVCRect@@@Z 1007f720 f   MsgWnd.obj
 0001:0007e7a0       ?OnClickedButton@CMessageWindow@@IAEXI@Z 1007f7a0 f   MsgWnd.obj
 0001:0007e810       ?OnCreate@CMessageWindow@@IAEHPAUtagCREATESTRUCTA@@@Z 1007f810 f   MsgWnd.obj
 0001:0007e940       ?OnEraseBkgnd@CMessageWindow@@IAEHPAVCDC@@@Z 1007f940 f   MsgWnd.obj
 0001:0007e990       ?ResizeMessageWnd@CMessageWindow@@QAEXIHH@Z 1007f990 f   MsgWnd.obj
 0001:0007ea50       ?SetConfigFile@CMessageWindow@@QAEXPBD@Z 1007fa50 f   MsgWnd.obj
 0001:0007ea90       ??0CParser@@QAE@XZ         1007fa90 f   Parser.obj
 0001:0007eaa0       ??1CParser@@UAE@XZ         1007faa0 f   Parser.obj
 0001:0007eab0       ??_ECParser@@UAEPAXI@Z     1007fab0 f i Parser.obj
 0001:0007eab0       ??_GCParser@@UAEPAXI@Z     1007fab0 f i Parser.obj
 0001:0007eae0       ?GetString@CParser@@SA?AV?$CStringT@DV?$StrTraitMFC_DLL@DV?$ChTraitsCRT@D@ATL@@@@@ATL@@AAV23@D@Z 1007fae0 f   Parser.obj
 0001:0007ec20       ??$SerializeElements@PAVCHistory@@@@YGXAAVCArchive@@PAPAVCHistory@@H@Z 1007fc20 f i InputBarDlg.obj
 0001:0007ecd0       ??0?$CList@PAVCHistory@@PAV1@@@QAE@H@Z 1007fcd0 f i InputBarDlg.obj
 0001:0007ed10       ??0CInputBarDlg@@QAE@PAVCWnd@@@Z 1007fd10 f   InputBarDlg.obj
 0001:0007f4e0       ??1?$CList@PAVCHistory@@PAV1@@@UAE@XZ 100804e0 f i InputBarDlg.obj
 0001:0007f550       ??1CInputBarDlg@@UAE@XZ    10080550 f i InputBarDlg.obj
 0001:0007f910       ??1CSetCycleDlg@@UAE@XZ    10080910 f i InputBarDlg.obj
 0001:0007fa30       ??_G?$CList@PAVCHistory@@PAV1@@@UAEPAXI@Z 10080a30 f i InputBarDlg.obj
 0001:0007fa30       ??_E?$CList@PAVCHistory@@PAV1@@@UAEPAXI@Z 10080a30 f i InputBarDlg.obj
 0001:0007fae0       ??_ECInputBarDlg@@UAEPAXI@Z 10080ae0 f i InputBarDlg.obj
 0001:0007fae0       ??_GCInputBarDlg@@UAEPAXI@Z 10080ae0 f i InputBarDlg.obj
 0001:0007fb20       ??_ECSpinButtonCtrl@@UAEPAXI@Z 10080b20 f i InputBarDlg.obj
 0001:0007fb20       ??_GCSpinButtonCtrl@@UAEPAXI@Z 10080b20 f i InputBarDlg.obj
 0001:0007fb60       ?AddHistoryInfoListJongmok@CInputBarDlg@@IAEHV?$CStringT@DV?$StrTraitMFC_DLL@DV?$ChTraitsCRT@D@ATL@@@@@ATL@@0H@Z 10080b60 f   InputBarDlg.obj
 0001:0007fd40       ?AddHistoryInfoListUpjong@CInputBarDlg@@IAEHV?$CStringT@DV?$StrTraitMFC_DLL@DV?$ChTraitsCRT@D@ATL@@@@@ATL@@0H@Z 10080d40 f   InputBarDlg.obj
 0001:0007fef0       ?AddTail@?$CList@PAVCHistory@@PAV1@@@QAEPAU__POSITION@@PAVCHistory@@@Z 10080ef0 f i InputBarDlg.obj
 0001:00080050       ?ChangeButtonColor@CInputBarDlg@@QAEXXZ 10081050 f   InputBarDlg.obj
 0001:00080060       ?ChangeEditCode@CInputBarDlg@@IAEHHH@Z 10081060 f   InputBarDlg.obj
 0001:00080070       ?ChangeMarket@CInputBarDlg@@QAEHIHH@Z 10081070 f   InputBarDlg.obj
 0001:000803c0       ?ChangeSkinColor@CInputBarDlg@@QAEXXZ 100813c0 f   InputBarDlg.obj
 0001:00080420       ?ChangeToolBarForReplayChart@CInputBarDlg@@QAEXH@Z 10081420 f   InputBarDlg.obj
 0001:00081020       ?ChangeToolBarStatusForReplay@CInputBarDlg@@QAEXH@Z 10082020 f   InputBarDlg.obj
 0001:00081660       ?CreatedChartMng@CInputBarDlg@@UAEXXZ 10082660 f i InputBarDlg.obj
 0001:00081670       ?DoDataExchange@CInputBarDlg@@MAEXPAVCDataExchange@@@Z 10082670 f   InputBarDlg.obj
 0001:00081980       ?DoSelchangeCodeInput@CInputBarDlg@@QAEXXZ 10082980 f   InputBarDlg.obj
 0001:00081b10       ?EnableQueryOpt@CInputBarDlg@@QAEXH@Z 10082b10 f   InputBarDlg.obj
 0001:00081b20       ?EnableRequestMoreButton@CInputBarDlg@@QAEXH@Z 10082b20 f   InputBarDlg.obj
 0001:00081b40       ?Enable_PeriodControl@CInputBarDlg@@QAEXH@Z 10082b40 f   InputBarDlg.obj
 0001:00081bb0       ?FreeNode@?$CList@PAVCHistory@@PAV1@@@IAEXPAUCNode@1@@Z 10082bb0 f i InputBarDlg.obj
 0001:00081c00       ?GetAllCount@CInputBarDlg@@QAEHXZ 10082c00 f   InputBarDlg.obj
 0001:00081c80       ?GetBitFromCodeInfoJongmok@CInputBarDlg@@IAEJXZ 10082c80 f   InputBarDlg.obj
 0001:00081d10       ?GetBitFromCodeInfoUpjong@CInputBarDlg@@IAEJXZ 10082d10 f   InputBarDlg.obj
 0001:00081da0       ?GetChartViewType@CInputBarDlg@@QAEHAAVCStringList@@@Z 10082da0 f   InputBarDlg.obj
 0001:00081e70       ?GetCodeNameAndGubun@CInputBarDlg@@IAE?AV?$CStringT@DV?$StrTraitMFC_DLL@DV?$ChTraitsCRT@D@ATL@@@@@ATL@@V23@@Z 10082e70 f   InputBarDlg.obj
 0001:00082120       ?GetComboMarket@CInputBarDlg@@QAEHXZ 10083120 f   InputBarDlg.obj
 0001:00082150       ?GetCount@CComboBox@@QBEHXZ 10083150 f i InputBarDlg.obj
 0001:00082170       ?GetCurrentCode@CInputBarDlg@@QAE?AV?$CStringT@DV?$StrTraitMFC_DLL@DV?$ChTraitsCRT@D@ATL@@@@@ATL@@XZ 10083170 f   InputBarDlg.obj
 0001:00082190       ?GetCurrentMode@CInputBarDlg@@QAEHHH@Z 10083190 f   InputBarDlg.obj
 0001:00082200       ?GetEndDate@CInputBarDlg@@QAEHXZ 10083200 f   InputBarDlg.obj
 0001:00082270       ?GetJongMokNameByCode@CInputBarDlg@@QAE?AV?$CStringT@DV?$StrTraitMFC_DLL@DV?$ChTraitsCRT@D@ATL@@@@@ATL@@V23@PBD@Z 10083270 f   InputBarDlg.obj
 0001:000825c0       ?GetLastHistoryCode@CInputBarDlg@@QAE?AV?$CStringT@DV?$StrTraitMFC_DLL@DV?$ChTraitsCRT@D@ATL@@@@@ATL@@H@Z 100835c0 f   InputBarDlg.obj
 0001:000828c0       ?GetMarketIdxToCBIdx@CInputBarDlg@@QAEHH@Z 100838c0 f   InputBarDlg.obj
 0001:00082920       ?GetMarketStrToIndex@CInputBarDlg@@QAEHV?$CStringT@DV?$StrTraitMFC_DLL@DV?$ChTraitsCRT@D@ATL@@@@@ATL@@@Z 10083920 f   InputBarDlg.obj
 0001:00082a10       ?GetMarketTypeFromTRCode@CInputBarDlg@@QAEHPBD@Z 10083a10 f   InputBarDlg.obj
 0001:00082ab0       ?GetMessageMap@CInputBarDlg@@MBEPBUAFX_MSGMAP@@XZ 10083ab0 f   InputBarDlg.obj
 0001:00082ac0       ?GetOldFututureCodeName@CInputBarDlg@@QAEHPBDAAV?$CStringT@DV?$StrTraitMFC_DLL@DV?$ChTraitsCRT@D@ATL@@@@@ATL@@@Z 10083ac0 f   InputBarDlg.obj
 0001:00082b50       ?GetReplayChartMode@CInputBarDlg@@QAEHXZ 10083b50 f   InputBarDlg.obj
 0001:00082b60       ?GetReplayDayBefore@CInputBarDlg@@QAEJXZ 10083b60 f   InputBarDlg.obj
 0001:00082c50       ?GetReplaySpeed@CInputBarDlg@@QAEJXZ 10083c50 f   InputBarDlg.obj
 0001:00082d40       ?GetReplayStartTime@CInputBarDlg@@QAEJXZ 10083d40 f   InputBarDlg.obj
 0001:00082e60       ?GetThisMessageMap@CInputBarDlg@@KGPBUAFX_MSGMAP@@XZ 10083e60 f   InputBarDlg.obj
 0001:00082e70       ?GetTypeNumber@CInputBarDlg@@UAEJXZ 10083e70 f   InputBarDlg.obj
 0001:00082f20       ?GetViewCount@CInputBarDlg@@QAEXAAJ@Z 10083f20 f   InputBarDlg.obj
 0001:00082f40       ?HideLeftBarBtn@CInputBarDlg@@QAEXH@Z 10083f40 f   InputBarDlg.obj
 0001:00082f50       ?Init@CInputBarDlg@@MAEXXZ 10083f50 f   InputBarDlg.obj
 0001:00083ba0       ?InitBaseInfo@CInputBarDlg@@QAEXPAVCBaseDesk2@@H@Z 10084ba0 f   InputBarDlg.obj
 0001:00083d20       ?InitChartMulitItem@CInputBarDlg@@QAEXPAU_ST_SELCHART@@@Z 10084d20 f   InputBarDlg.obj
 0001:00084710       ?InitMarketCombo@CInputBarDlg@@QAEHXZ 10085710 f   InputBarDlg.obj
 0001:00084920       ?InitUpjongCodeCombo@CInputBarDlg@@QAEXI@Z 10085920 f   InputBarDlg.obj
 0001:00084930       ?Init_Size@CInputBarDlg@@IAEXXZ 10085930 f   InputBarDlg.obj
 0001:00084a60       ?LoadInfoFutureList@CInputBarDlg@@IAEHXZ 10085a60 f   InputBarDlg.obj
 0001:00084a70       ?LoadIniValue@CInputBarDlg@@MAEXXZ 10085a70 f   InputBarDlg.obj
 0001:00084d50       ?LoadValue@CInputBarDlg@@IAEXXZ 10085d50 f   InputBarDlg.obj
 0001:00084d60       ?MoveCodeInputCtrl@CInputBarDlg@@UAEXXZ 10085d60 f i InputBarDlg.obj
 0001:00084d70       ?NewNode@?$CList@PAVCHistory@@PAV1@@@IAEPAUCNode@1@PAU21@0@Z 10085d70 f i InputBarDlg.obj
 0001:00084de0       ?OnBtJumun@CInputBarDlg@@IAEXXZ 10085de0 f   InputBarDlg.obj
 0001:00084f50       ?OnBtSaveChart@CInputBarDlg@@IAEXXZ 10085f50 f   InputBarDlg.obj
 0001:00084fc0       ?OnBtinc@CInputBarDlg@@IAEXXZ 10085fc0 f   InputBarDlg.obj
 0001:00085070       ?OnBtinitial2@CInputBarDlg@@IAEXXZ 10086070 f   InputBarDlg.obj
 0001:000850a0       ?OnBtleft@CInputBarDlg@@IAEXXZ 100860a0 f   InputBarDlg.obj
 0001:00085160       ?OnBtmultichart@CInputBarDlg@@IAEXXZ 10086160 f   InputBarDlg.obj
 0001:00085250       ?OnBtnForeignSendtr@CInputBarDlg@@IAEXXZ 10086250 f   InputBarDlg.obj
 0001:00085430       ?OnBtnGwansim@CInputBarDlg@@IAEXXZ 10086430 f   InputBarDlg.obj
 0001:00085790       ?OnBtnPlayPause@CInputBarDlg@@IAEXXZ 10086790 f   InputBarDlg.obj
 0001:00085b10       ?OnBtnStopReplay@CInputBarDlg@@IAEXXZ 10086b10 f   InputBarDlg.obj
 0001:00085b80       ?OnBtperiod@CInputBarDlg@@IAEXXZ 10086b80 f   InputBarDlg.obj
 0001:00085e90       ?OnBtrequestdatmore@CInputBarDlg@@IAEXXZ 10086e90 f   InputBarDlg.obj
 0001:00085ec0       ?OnBtresetperiod@CInputBarDlg@@IAEXXZ 10086ec0 f   InputBarDlg.obj
 0001:00085ed0       ?OnBtright@CInputBarDlg@@IAEXXZ 10086ed0 f   InputBarDlg.obj
 0001:00085f90       ?OnBtsetenvir@CInputBarDlg@@IAEXXZ 10086f90 f   InputBarDlg.obj
 0001:00085fc0       ?OnButton1@CInputBarDlg@@IAEXXZ 10086fc0 f   InputBarDlg.obj
 0001:00086000       ?OnCancel@CInputBarDlg@@MAEXXZ 10087000 f i InputBarDlg.obj
 0001:00086010       ?OnChangeEditperiod@CInputBarDlg@@IAEXXZ 10087010 f   InputBarDlg.obj
 0001:00086020       ?OnCheckDow@CInputBarDlg@@IAEXXZ 10087020 f   InputBarDlg.obj
 0001:00086030       ?OnCheckNasdaq@CInputBarDlg@@IAEXXZ 10087030 f   InputBarDlg.obj
 0001:00086040       ?OnCheckNikei@CInputBarDlg@@IAEXXZ 10087040 f   InputBarDlg.obj
 0001:00086050       ?OnCheckSp500@CInputBarDlg@@IAEXXZ 10087050 f   InputBarDlg.obj
 0001:00086060       ?OnCheckTwd@CInputBarDlg@@IAEXXZ 10087060 f   InputBarDlg.obj
 0001:00086070       ?OnChkForeignMainCode@CInputBarDlg@@IAEXI@Z 10087070 f   InputBarDlg.obj
 0001:00086080       ?OnChkQueryOpt@CInputBarDlg@@IAEXXZ 10087080 f   InputBarDlg.obj
 0001:000860e0       ?OnChkRevised@CInputBarDlg@@IAEXXZ 100870e0 f   InputBarDlg.obj
 0001:00086110       ?OnChkday@CInputBarDlg@@IAEXXZ 10087110 f   InputBarDlg.obj
 0001:00086240       ?OnChkextbar@CInputBarDlg@@IAEXXZ 10087240 f   InputBarDlg.obj
 0001:00086280       ?OnChkfirst@CInputBarDlg@@IAEXXZ 10087280 f   InputBarDlg.obj
 0001:00086350       ?OnChkfourth@CInputBarDlg@@IAEXXZ 10087350 f   InputBarDlg.obj
 0001:00086420       ?OnChkminute@CInputBarDlg@@IAEXXZ 10087420 f   InputBarDlg.obj
 0001:00086580       ?OnChkmonth@CInputBarDlg@@IAEXXZ 10087580 f   InputBarDlg.obj
 0001:000865e0       ?OnChksec@CInputBarDlg@@IAEXXZ 100875e0 f   InputBarDlg.obj
 0001:00086740       ?OnChksecond@CInputBarDlg@@IAEXXZ 10087740 f   InputBarDlg.obj
 0001:00086810       ?OnChkshowscale2@CInputBarDlg@@IAEXXZ 10087810 f   InputBarDlg.obj
 0001:00086820       ?OnChkthird@CInputBarDlg@@IAEXXZ 10087820 f   InputBarDlg.obj
 0001:000868f0       ?OnChktick@CInputBarDlg@@IAEXXZ 100878f0 f   InputBarDlg.obj
 0001:00086a40       ?OnChkweek@CInputBarDlg@@IAEXXZ 10087a40 f   InputBarDlg.obj
 0001:00086aa0       ?OnChkyear@CInputBarDlg@@IAEXXZ 10087aa0 f   InputBarDlg.obj
 0001:00086b00       ?OnCommand@CInputBarDlg@@MAEHIJ@Z 10087b00 f   InputBarDlg.obj
 0001:00086b10       ?OnCtlColor@CInputBarDlg@@IAEPAUHBRUSH__@@PAVCDC@@PAVCWnd@@I@Z 10087b10 f   InputBarDlg.obj
 0001:00086b90       ?OnDeltaposSpinDatecnt@CInputBarDlg@@IAEXPAUtagNMHDR@@PAJ@Z 10087b90 f   InputBarDlg.obj
 0001:00086c50       ?OnDeltaposSpinzoomvalue@CInputBarDlg@@IAEXPAUtagNMHDR@@PAJ@Z 10087c50 f   InputBarDlg.obj
 0001:00086d90       ?OnDestroy@CInputBarDlg@@IAEXXZ 10087d90 f   InputBarDlg.obj
 0001:00087040       ?OnEnSetfocusEditFocus@CInputBarDlg@@QAEXXZ 10088040 f   InputBarDlg.obj
 0001:00087050       ?OnEraseBkgnd@CInputBarDlg@@IAEHPAVCDC@@@Z 10088050 f   InputBarDlg.obj
 0001:00087060       ?OnFromCodeList@CInputBarDlg@@IAEJIJ@Z 10088060 f   InputBarDlg.obj
 0001:000872a0       ?OnInitDialog@CInputBarDlg@@MAEHXZ 100882a0 f   InputBarDlg.obj
 0001:00087950       ?OnOK@CInputBarDlg@@MAEXXZ 10088950 f i InputBarDlg.obj
 0001:00087960       ?OnPaint@CInputBarDlg@@IAEXXZ 10088960 f   InputBarDlg.obj
 0001:00087ac0       ?OnRButtonUp@CInputBarDlg@@IAEXIVCPoint@@@Z 10088ac0 f   InputBarDlg.obj
 0001:00087ad0       ?OnSelBasedlgPopuplistctrl@CInputBarDlg@@IAEJIJ@Z 10088ad0 f   InputBarDlg.obj
 0001:00087c90       ?OnSelchangeCbmarket@CInputBarDlg@@IAEXXZ 10088c90 f   InputBarDlg.obj
 0001:00087e70       ?OnSelchangeCmbDay@CInputBarDlg@@IAEXXZ 10088e70 f   InputBarDlg.obj
 0001:00087f40       ?OnSelchangeCmbHour@CInputBarDlg@@IAEXXZ 10088f40 f   InputBarDlg.obj
 0001:000880e0       ?OnSelchangeCmbMin@CInputBarDlg@@IAEXXZ 100890e0 f   InputBarDlg.obj
 0001:00088250       ?OnSelchangeCmbSpeed@CInputBarDlg@@IAEXXZ 10089250 f   InputBarDlg.obj
 0001:000882b0       ?OnSelchangeCmbType@CInputBarDlg@@IAEXXZ 100892b0 f   InputBarDlg.obj
 0001:000883a0       ?OnSelchangeCodeInput@CInputBarDlg@@IAEXXZ 100893a0 f   InputBarDlg.obj
 0001:000884e0       ?OnSelendokCmbCharttype@CInputBarDlg@@IAEXXZ 100894e0 f   InputBarDlg.obj
 0001:00088580       ?OnSelendokFOHistoryBtn@CInputBarDlg@@QAEXXZ 10089580 f   InputBarDlg.obj
 0001:00088610       ?OnSetfocusEditperiod@CInputBarDlg@@IAEXXZ 10089610 f   InputBarDlg.obj
 0001:00088620       ?OnSize@CInputBarDlg@@IAEXIHH@Z 10089620 f   InputBarDlg.obj
 0001:00088630       ?OnTimer@CInputBarDlg@@IAEXI@Z 10089630 f   InputBarDlg.obj
 0001:000888a0       ?ParsingSymbol@CInputBarDlg@@QAEXPAD@Z 100898a0 f   InputBarDlg.obj
 0001:000889d0       ?PreTranslateMessage@CInputBarDlg@@UAEHPAUtagMSG@@@Z 100899d0 f   InputBarDlg.obj
 0001:00088d80       ?RecievedChartMng@CInputBarDlg@@UAEXXZ 10089d80 f i InputBarDlg.obj
 0001:00088d90       ?RemoveAll@?$CList@PAVCHistory@@PAV1@@@QAEXXZ 10089d90 f i InputBarDlg.obj
 0001:00088dc0       ?RemoveAt@?$CList@PAVCHistory@@PAV1@@@QAEXPAU__POSITION@@@Z 10089dc0 f i InputBarDlg.obj
 0001:00088e30       ?RemoveHead@?$CList@PAVCHistory@@PAV1@@@QAEPAVCHistory@@XZ 10089e30 f i InputBarDlg.obj
 0001:00088ea0       ?RemoveHistoryInfo@CInputBarDlg@@IAEXXZ 10089ea0 f   InputBarDlg.obj
 0001:00089020       ?Replace_ForeignChartControl@CInputBarDlg@@QAEXXZ 1008a020 f   InputBarDlg.obj
 0001:00089210       ?Replace_FutOptControl@CInputBarDlg@@QAEXXZ 1008a210 f   InputBarDlg.obj
 0001:00089340       ?ReplayEnd@CInputBarDlg@@QAEXXZ 1008a340 f   InputBarDlg.obj
 0001:00089350       ?ReplayFail@CInputBarDlg@@QAEXXZ 1008a350 f   InputBarDlg.obj
 0001:00089360       ?RequestReplayMode@CInputBarDlg@@QAEXXZ 1008a360 f   InputBarDlg.obj
 0001:00089430       ?ResetUnitValue@CInputBarDlg@@QAEXH@Z 1008a430 f   InputBarDlg.obj
 0001:000897d0       ?SaveChartType_IniFile@CInputBarDlg@@QAEXH@Z 1008a7d0 f   InputBarDlg.obj
 0001:00089930       ?SaveIniValue@CInputBarDlg@@MAEXXZ 1008a930 f   InputBarDlg.obj
 0001:00089b90       ?SaveInputBar@CInputBarDlg@@QAEXXZ 1008ab90 f   InputBarDlg.obj
 0001:00089c30       ?SaveValue@CInputBarDlg@@QAEXXZ 1008ac30 f   InputBarDlg.obj
 0001:00089c40       ?SendSymbol@CInputBarDlg@@QAEXV?$CStringT@DV?$StrTraitMFC_DLL@DV?$ChTraitsCRT@D@ATL@@@@@ATL@@@Z 1008ac40 f   InputBarDlg.obj
 0001:00089d70       ?Serialize@?$CList@PAVCHistory@@PAV1@@@UAEXAAVCArchive@@@Z 1008ad70 f i InputBarDlg.obj
 0001:00089f00       ?SetAllPosition@CInputBarDlg@@QAEXH@Z 1008af00 f   InputBarDlg.obj
 0001:0008a0c0       ?SetCheckRevised@CInputBarDlg@@QAEXH@Z 1008b0c0 f   InputBarDlg.obj
 0001:0008a0e0       ?SetChkType@CInputBarDlg@@QAEXD@Z 1008b0e0 f   InputBarDlg.obj
 0001:0008a0f0       ?SetCodeDragAndDrop@CInputBarDlg@@QAEHV?$CStringT@DV?$StrTraitMFC_DLL@DV?$ChTraitsCRT@D@ATL@@@@@ATL@@H@Z 1008b0f0 f   InputBarDlg.obj
 0001:0008a110       ?SetCodeInit@CInputBarDlg@@QAEXXZ 1008b110 f   InputBarDlg.obj
 0001:0008a1b0       ?SetCodeName@CInputBarDlg@@MAEXHPBD0@Z 1008b1b0 f i InputBarDlg.obj
 0001:0008a1c0       ?SetCurCodeNameToControl@CInputBarDlg@@QAEXV?$CStringT@DV?$StrTraitMFC_DLL@DV?$ChTraitsCRT@D@ATL@@@@@ATL@@@Z 1008b1c0 f   InputBarDlg.obj
 0001:0008a330       ?SetCurSel@CComboBox@@QAEHH@Z 1008b330 f i InputBarDlg.obj
 0001:0008a350       ?SetCurrentCode@CInputBarDlg@@QAEXV?$CStringT@DV?$StrTraitMFC_DLL@DV?$ChTraitsCRT@D@ATL@@@@@ATL@@@Z 1008b350 f   InputBarDlg.obj
 0001:0008a3b0       ?SetEditZoomValue@CInputBarDlg@@QAEXV?$CStringT@DV?$StrTraitMFC_DLL@DV?$ChTraitsCRT@D@ATL@@@@@ATL@@HH@Z 1008b3b0 f   InputBarDlg.obj
 0001:0008a550       ?SetExt@CInputBarDlg@@IAEXH@Z 1008b550 f   InputBarDlg.obj
 0001:0008ac50       ?SetFocusCodeInput@CInputBarDlg@@QAEXXZ 1008bc50 f   InputBarDlg.obj
 0001:0008ac60       ?SetInitSymbol@CInputBarDlg@@QAEXXZ 1008bc60 f   InputBarDlg.obj
 0001:0008ae60       ?SetKeyCodeChange@CInputBarDlg@@QAEXIJ@Z 1008be60 f   InputBarDlg.obj
 0001:0008b150       ?SetLastHistoryCode@CInputBarDlg@@QAEXXZ 1008c150 f   InputBarDlg.obj
 0001:0008b410       ?SetLeftBarType@CInputBarDlg@@QAEXI@Z 1008c410 f   InputBarDlg.obj
 0001:0008b4e0       ?SetMode@CInputBarDlg@@QAEXH@Z 1008c4e0 f   InputBarDlg.obj
 0001:0008b5e0       ?SetMultiChartItemMode@CInputBarDlg@@QAEXXZ 1008c5e0 f   InputBarDlg.obj
 0001:0008b710       ?SetMultiTotalCount@CInputBarDlg@@QAEXH@Z 1008c710 f   InputBarDlg.obj
 0001:0008b7e0       ?SetQueryOpt@CInputBarDlg@@QAEXH@Z 1008c7e0 f   InputBarDlg.obj
 0001:0008b800       ?SetReplayChartMode@CInputBarDlg@@QAEXH@Z 1008c800 f   InputBarDlg.obj
 0001:0008b810       ?SetReplayEachSec@CInputBarDlg@@QAEXV?$CStringT@DV?$StrTraitMFC_DLL@DV?$ChTraitsCRT@D@ATL@@@@@ATL@@@Z 1008c810 f   InputBarDlg.obj
 0001:0008b900       ?SetReplayTotalSec@CInputBarDlg@@QAEXH@Z 1008c900 f   InputBarDlg.obj
 0001:0008b950       ?SetShareCodeChanged@CInputBarDlg@@QAEXH@Z 1008c950 f   InputBarDlg.obj
 0001:0008b960       ?SetShowExtInputBarDlg@CInputBarDlg@@QAEXH@Z 1008c960 f   InputBarDlg.obj
 0001:0008ba10       ?SetType@CInputBarDlg@@MAEXH@Z 1008ca10 f   InputBarDlg.obj
 0001:0008c020       ?SetViewCount@CInputBarDlg@@QAEXJ@Z 1008d020 f   InputBarDlg.obj
 0001:0008c040       ?UpdateBtNCbValue@CInputBarDlg@@QAEXXZ 1008d040 f   InputBarDlg.obj
 0001:0008c1b0       ?VerifySettingData@CInputBarDlg@@QAEXAAJ@Z 1008d1b0 f   InputBarDlg.obj
 0001:0008c1e0       ?WindowProc@CInputBarDlg@@MAEJIIJ@Z 1008d1e0 f   InputBarDlg.obj
 0001:0008d5f0       ?_DoChangeCodeCtrlUnit@CInputBarDlg@@IAEXHPBD@Z 1008e5f0 f   InputBarDlg.obj
 0001:0008d710       ?_DoCheckMarketTypeFromScreen@CInputBarDlg@@IAEXAAH@Z 1008e710 f   InputBarDlg.obj
 0001:0008d7d0       ?_DoPreCheckCodeCtrlUnit@CInputBarDlg@@IAEHXZ 1008e7d0 f   InputBarDlg.obj
 0001:0008da00       ?_DoReplyResourceCheck@CInputBarDlg@@IAEXXZ 1008ea00 f   InputBarDlg.obj
 0001:0008dc60       ?_DoSetPosCodeCodeName@CInputBarDlg@@QAEXAAVCRect@@@Z 1008ec60 f   InputBarDlg.obj
 0001:0008df60       ??0CJongStatusInTab@@QAE@PAVCWnd@@@Z 1008ef60 f   JongStatusInTab.obj
 0001:0008e140       ??_GCJongStatusInTab@@UAEPAXI@Z 1008f140 f i JongStatusInTab.obj
 0001:0008e140       ??_ECJongStatusInTab@@UAEPAXI@Z 1008f140 f i JongStatusInTab.obj
 0001:0008e240       ?DoDataExchange@CJongStatusInTab@@MAEXPAVCDataExchange@@@Z 1008f240 f   JongStatusInTab.obj
 0001:0008e2e0       ?GetMessageMap@CJongStatusInTab@@MBEPBUAFX_MSGMAP@@XZ 1008f2e0 f   JongStatusInTab.obj
 0001:0008e2f0       ?GetThisMessageMap@CJongStatusInTab@@KGPBUAFX_MSGMAP@@XZ 1008f2f0 f   JongStatusInTab.obj
 0001:0008e300       ?InitStatus@CJongStatusInTab@@QAEXXZ 1008f300 f   JongStatusInTab.obj
 0001:0008e3c0       ?OnCtlColor@CJongStatusInTab@@IAEPAUHBRUSH__@@PAVCDC@@PAVCWnd@@I@Z 1008f3c0 f   JongStatusInTab.obj
 0001:0008e400       ?OnDestroy@CJongStatusInTab@@IAEXXZ 1008f400 f   JongStatusInTab.obj
 0001:0008e430       ?OnInitDialog@CJongStatusInTab@@MAEHXZ 1008f430 f   JongStatusInTab.obj
 0001:0008e640       ?PreTranslateMessage@CJongStatusInTab@@MAEHPAUtagMSG@@@Z 1008f640 f   JongStatusInTab.obj
 0001:0008e680       ?SetStatus@CJongStatusInTab@@QAEXJJJJJJN@Z 1008f680 f   JongStatusInTab.obj
 0001:0008e6d0       ?UpdateInCtrl@CJongStatusInTab@@AAEXXZ 1008f6d0 f   JongStatusInTab.obj
 0001:0008e8b0       ?UpdateStatus@CJongStatusInTab@@QAEXDDN@Z 1008f8b0 f   JongStatusInTab.obj
 0001:0008e970       ??0CLeftBarDlg@@QAE@PAVCWnd@@@Z 1008f970 f   LeftBarDlg.obj
 0001:0008ea70       ??1CRegFavoriteDlg@@UAE@XZ 1008fa70 f i LeftBarDlg.obj
 0001:0008ea90       ??_GCLeftBarDlg@@UAEPAXI@Z 1008fa90 f i LeftBarDlg.obj
 0001:0008ea90       ??_ECLeftBarDlg@@UAEPAXI@Z 1008fa90 f i LeftBarDlg.obj
 0001:0008eb20       ?AddAccountCodeItem@CLeftBarDlg@@QAEXPAXJ@Z 1008fb20 f   LeftBarDlg.obj
 0001:0008eb60       ?ChangeSkinColor@CLeftBarDlg@@QAEXXZ 1008fb60 f   LeftBarDlg.obj
 0001:0008ebe0       ?DoDataExchange@CLeftBarDlg@@MAEXPAVCDataExchange@@@Z 1008fbe0 f   LeftBarDlg.obj
 0001:0008ec10       ?EnableWindow@CLeftBarDlg@@QAEHH@Z 1008fc10 f   LeftBarDlg.obj
 0001:0008ec30       ?EndSideBar@CLeftBarDlg@@QAEXXZ 1008fc30 f   LeftBarDlg.obj
 0001:0008ec50       ?GetEnableWindow@CLeftBarDlg@@QAEHXZ 1008fc50 f   LeftBarDlg.obj
 0001:0008ec60       ?GetIndicatorNameListIntoComboBox@CLeftBarDlg@@QAEXAAVCComboBox@@PBD@Z 1008fc60 f   LeftBarDlg.obj
 0001:0008ec80       ?GetIndicatorNameListIntoListCtrl@CLeftBarDlg@@QAEXAAVCXListCtrl@@PBD@Z 1008fc80 f   LeftBarDlg.obj
 0001:0008eca0       ?GetIndicatorNameListIntoTreeCtrl@CLeftBarDlg@@QAEXAAVCTreeCtrl@@@Z 1008fca0 f   LeftBarDlg.obj
 0001:0008ecc0       ?GetItemCount@CTabCtrl@@QBEHXZ 1008fcc0 f i LeftBarDlg.obj
 0001:0008ece0       ?GetMessageMap@CLeftBarDlg@@MBEPBUAFX_MSGMAP@@XZ 1008fce0 f   LeftBarDlg.obj
 0001:0008ecf0       ?GetPacketFromOutSide@CLeftBarDlg@@QAE?AV?$CStringT@DV?$StrTraitMFC_DLL@DV?$ChTraitsCRT@D@ATL@@@@@ATL@@XZ 1008fcf0 f   LeftBarDlg.obj
 0001:0008ed10       ?GetThisMessageMap@CLeftBarDlg@@KGPBUAFX_MSGMAP@@XZ 1008fd10 f   LeftBarDlg.obj
 0001:0008ed20       ?GetUserPath@CLeftBarDlg@@QAE?AV?$CStringT@DV?$StrTraitMFC_DLL@DV?$ChTraitsCRT@D@ATL@@@@@ATL@@XZ 1008fd20 f   LeftBarDlg.obj
 0001:0008ed40       ?IsAdvisingCodeOf@CLeftBarDlg@@QAEHPBD@Z 1008fd40 f   LeftBarDlg.obj
 0001:0008ed60       ?MakeAccountConcData@CLeftBarDlg@@QAEXPAXJ@Z 1008fd60 f   LeftBarDlg.obj
 0001:0008eda0       ?OnBthidechart@CLeftBarDlg@@IAEXXZ 1008fda0 f   LeftBarDlg.obj
 0001:0008edb0       ?OnCheckAvgPrice@CLeftBarDlg@@IAEJIJ@Z 1008fdb0 f   LeftBarDlg.obj
 0001:0008ee00       ?OnCodeAdvise@CLeftBarDlg@@QAEXV?$CStringT@DV?$StrTraitMFC_DLL@DV?$ChTraitsCRT@D@ATL@@@@@ATL@@@Z 1008fe00 f   LeftBarDlg.obj
 0001:0008ee90       ?OnCodeUnAdvise@CLeftBarDlg@@QAEXV?$CStringT@DV?$StrTraitMFC_DLL@DV?$ChTraitsCRT@D@ATL@@@@@ATL@@@Z 1008fe90 f   LeftBarDlg.obj
 0001:0008ef20       ?OnCtlColor@CLeftBarDlg@@IAEPAUHBRUSH__@@PAVCDC@@PAVCWnd@@I@Z 1008ff20 f   LeftBarDlg.obj
 0001:0008ef50       ?OnDestroy@CLeftBarDlg@@IAEXXZ 1008ff50 f   LeftBarDlg.obj
 0001:0008f030       ?OnEraseBkgnd@CLeftBarDlg@@IAEHPAVCDC@@@Z 10090030 f   LeftBarDlg.obj
 0001:0008f040       ?OnInitDialog@CLeftBarDlg@@MAEHXZ 10090040 f   LeftBarDlg.obj
 0001:0008f190       ?OnPaint@CLeftBarDlg@@IAEXXZ 10090190 f   LeftBarDlg.obj
 0001:0008f2f0       ?OnSize@CLeftBarDlg@@IAEXIHH@Z 100902f0 f   LeftBarDlg.obj
 0001:0008f3b0       ?OnTimer@CLeftBarDlg@@IAEXI@Z 100903b0 f   LeftBarDlg.obj
 0001:0008f690       ?PreTranslateMessage@CLeftBarDlg@@UAEHPAUtagMSG@@@Z 10090690 f   LeftBarDlg.obj
 0001:0008f710       ?ReceiveData@CLeftBarDlg@@QAEJPAUHWND__@@PBD11PAXJ@Z 10090710 f   LeftBarDlg.obj
 0001:0008f780       ?ResetConcData@CLeftBarDlg@@QAEXXZ 10090780 f   LeftBarDlg.obj
 0001:0008f7c0       ?SetConfig@CLeftBarDlg@@QAEXH@Z 100907c0 f   LeftBarDlg.obj
 0001:0008f950       ?SetPacketFromOutSide@CLeftBarDlg@@QAEXV?$CStringT@DV?$StrTraitMFC_DLL@DV?$ChTraitsCRT@D@ATL@@@@@ATL@@@Z 10090950 f   LeftBarDlg.obj
 0001:0008fa10       ?SetRealPriceData@CLeftBarDlg@@QAEXPAX@Z 10090a10 f   LeftBarDlg.obj
 0001:0008fa60       ?StartSideBar@CLeftBarDlg@@QAEXXZ 10090a60 f   LeftBarDlg.obj
 0001:0008fac0       ?WindowProc@CLeftBarDlg@@MAEJIIJ@Z 10090ac0 f   LeftBarDlg.obj
 0001:0008fd60       ??0CLogMan@@QAE@XZ         10090d60 f   LogMan.obj
 0001:0008fd90       ??1AFX_EXCEPTION_LINK@@QAE@XZ 10090d90 f i LogMan.obj
 0001:0008fdd0       ??1CException@@UAE@XZ      10090dd0 f i LogMan.obj
 0001:0008fde0       ??1CFileException@@UAE@XZ  10090de0 f i LogMan.obj
 0001:0008fdf0       ??1CLogMan@@UAE@XZ         10090df0 f   LogMan.obj
 0001:0008fe00       ??_GCFileException@@UAEPAXI@Z 10090e00 f i LogMan.obj
 0001:0008fe00       ??_ECFileException@@UAEPAXI@Z 10090e00 f i LogMan.obj
 0001:0008fe50       ??_ECLogMan@@UAEPAXI@Z     10090e50 f i LogMan.obj
 0001:0008fe50       ??_GCLogMan@@UAEPAXI@Z     10090e50 f i LogMan.obj
 0001:0008fe80       ?AddLog@CLogMan@@QAEXV?$CStringT@DV?$StrTraitMFC_DLL@DV?$ChTraitsCRT@D@ATL@@@@@ATL@@@Z 10090e80 f   LogMan.obj
 0001:0008fee0       ?SaveLogFile@CLogMan@@QAEXV?$CStringT@DV?$StrTraitMFC_DLL@DV?$ChTraitsCRT@D@ATL@@@@@ATL@@@Z 10090ee0 f   LogMan.obj
 0001:000901b0       ??0CMatrixSelecterDlg@@QAE@PAVCWnd@@@Z 100911b0 f   MatrixSelecterDlg.obj
 0001:000902c0       ??_ECMatrixSelecterDlg@@UAEPAXI@Z 100912c0 f i MatrixSelecterDlg.obj
 0001:000902c0       ??_GCMatrixSelecterDlg@@UAEPAXI@Z 100912c0 f i MatrixSelecterDlg.obj
 0001:00090300       ?DoDataExchange@CMatrixSelecterDlg@@MAEXPAVCDataExchange@@@Z 10091300 f   MatrixSelecterDlg.obj
 0001:00090310       ?GetMessageMap@CMatrixSelecterDlg@@MBEPBUAFX_MSGMAP@@XZ 10091310 f   MatrixSelecterDlg.obj
 0001:00090320       ?GetThisMessageMap@CMatrixSelecterDlg@@KGPBUAFX_MSGMAP@@XZ 10091320 f   MatrixSelecterDlg.obj
 0001:00090330       ?OnKillFocus@CMatrixSelecterDlg@@IAEXPAVCWnd@@@Z 10091330 f   MatrixSelecterDlg.obj
 0001:00090350       ?OnLButtonUp@CMatrixSelecterDlg@@IAEXIVCPoint@@@Z 10091350 f   MatrixSelecterDlg.obj
 0001:000903a0       ?OnMouseMove@CMatrixSelecterDlg@@IAEXIVCPoint@@@Z 100913a0 f   MatrixSelecterDlg.obj
 0001:00090520       ?OnPaint@CMatrixSelecterDlg@@IAEXXZ 10091520 f   MatrixSelecterDlg.obj
 0001:000907d0       ?SetBesideRect@CMatrixSelecterDlg@@QAEXVCRect@@@Z 100917d0 f   MatrixSelecterDlg.obj
 0001:000907f0       ?ShowMatrix@CMatrixSelecterDlg@@QAEXH@Z 100917f0 f   MatrixSelecterDlg.obj
 0001:00090890       ??0CMiniBarDlg@@QAE@PAVCWnd@@@Z 10091890 f   MiniBarDlg.obj
 0001:000909e0       ??_GCMiniBarDlg@@UAEPAXI@Z 100919e0 f i MiniBarDlg.obj
 0001:000909e0       ??_ECMiniBarDlg@@UAEPAXI@Z 100919e0 f i MiniBarDlg.obj
 0001:00090ad0       ?CreatedChartMng@CMiniBarDlg@@UAEXXZ 10091ad0 f   MiniBarDlg.obj
 0001:00090b40       ?DoDataExchange@CMiniBarDlg@@MAEXPAVCDataExchange@@@Z 10091b40 f   MiniBarDlg.obj
 0001:00090cc0       ?GetMessageMap@CMiniBarDlg@@MBEPBUAFX_MSGMAP@@XZ 10091cc0 f   MiniBarDlg.obj
 0001:00090cd0       ?GetThisMessageMap@CMiniBarDlg@@KGPBUAFX_MSGMAP@@XZ 10091cd0 f   MiniBarDlg.obj
 0001:00090ce0       ?Init@CMiniBarDlg@@MAEXXZ  10091ce0 f   MiniBarDlg.obj
 0001:00091930       ?MoveCodeInputCtrl@CMiniBarDlg@@UAEXXZ 10092930 f   MiniBarDlg.obj
 0001:000919d0       ?MoveToLeftRight@CMiniBarDlg@@IAEXI@Z 100929d0 f   MiniBarDlg.obj
 0001:00092340       ?OnBtinitial@CMiniBarDlg@@IAEXXZ 10093340 f   MiniBarDlg.obj
 0001:00092410       ?OnBtnAllday@CMiniBarDlg@@IAEXXZ 10093410 f   MiniBarDlg.obj
 0001:00092470       ?OnBtnDayWeekMonth@CMiniBarDlg@@IAEXXZ 10093470 f   MiniBarDlg.obj
 0001:00092600       ?OnBtnLowhigh@CMiniBarDlg@@IAEXXZ 10093600 f   MiniBarDlg.obj
 0001:00092640       ?OnBtnMinSec@CMiniBarDlg@@IAEXXZ 10093640 f   MiniBarDlg.obj
 0001:00092870       ?OnBtnOneday@CMiniBarDlg@@IAEXXZ 10093870 f   MiniBarDlg.obj
 0001:000928d0       ?OnBtnRequest@CMiniBarDlg@@IAEXXZ 100938d0 f   MiniBarDlg.obj
 0001:00092930       ?OnBtnTick@CMiniBarDlg@@IAEXXZ 10093930 f   MiniBarDlg.obj
 0001:00092a90       ?OnBtnUpdown@CMiniBarDlg@@IAEXXZ 10093a90 f   MiniBarDlg.obj
 0001:00092ad0       ?OnBtn_Sel_DayWeekMonth@CMiniBarDlg@@IAEXXZ 10093ad0 f   MiniBarDlg.obj
 0001:00092d10       ?OnBtn_Sel_MinSec@CMiniBarDlg@@IAEXXZ 10093d10 f   MiniBarDlg.obj
 0001:00092f70       ?OnChkCodesync@CMiniBarDlg@@IAEXXZ 10093f70 f   MiniBarDlg.obj
 0001:00092fa0       ?OnChkType1@CMiniBarDlg@@IAEXXZ 10093fa0 f   MiniBarDlg.obj
 0001:00092ff0       ?OnChkType2@CMiniBarDlg@@IAEXXZ 10093ff0 f   MiniBarDlg.obj
 0001:00093040       ?OnDestroy@CMiniBarDlg@@IAEXXZ 10094040 f   MiniBarDlg.obj
 0001:00093050       ?OnMoveToLeftRight@CMiniBarDlg@@IAEXXZ 10094050 f   MiniBarDlg.obj
 0001:000930b0       ?OnSelchangeCbmarket@CMiniBarDlg@@IAEXXZ 100940b0 f   MiniBarDlg.obj
 0001:000932b0       ?OnSize@CMiniBarDlg@@IAEXIHH@Z 100942b0 f   MiniBarDlg.obj
 0001:000932c0       ?OnTimer@CMiniBarDlg@@IAEXI@Z 100942c0 f   MiniBarDlg.obj
 0001:000932f0       ?RecievedChartMng@CMiniBarDlg@@UAEXXZ 100942f0 f   MiniBarDlg.obj
 0001:00093320       ?SaveIniValue@CMiniBarDlg@@MAEXXZ 10094320 f   MiniBarDlg.obj
 0001:00093460       ?SetAllPosition@CMiniBarDlg@@QAEXH@Z 10094460 f   MiniBarDlg.obj
 0001:00093a50       ?SetCodeName@CMiniBarDlg@@MAEXHPBD0@Z 10094a50 f   MiniBarDlg.obj
 0001:00093a90       ?SetType@CMiniBarDlg@@UAEXH@Z 10094a90 f   MiniBarDlg.obj
 0001:00093e10       ?WindowProc@CMiniBarDlg@@MAEJIIJ@Z 10094e10 f   MiniBarDlg.obj
 0001:00094100       ??0CMiniTickBarCFG@@QAE@PAVCSetTickButton@@PAVCWnd@@@Z 10095100 f   MiniTickBarCFG.obj
 0001:000941d0       ??_ECMiniTickBarCFG@@UAEPAXI@Z 100951d0 f i MiniTickBarCFG.obj
 0001:000941d0       ??_GCMiniTickBarCFG@@UAEPAXI@Z 100951d0 f i MiniTickBarCFG.obj
 0001:00094270       ?DoDataExchange@CMiniTickBarCFG@@MAEXPAVCDataExchange@@@Z 10095270 f   MiniTickBarCFG.obj
 0001:000945b0       ?GetMessageMap@CMiniTickBarCFG@@MBEPBUAFX_MSGMAP@@XZ 100955b0 f   MiniTickBarCFG.obj
 0001:000945c0       ?GetThisMessageMap@CMiniTickBarCFG@@KGPBUAFX_MSGMAP@@XZ 100955c0 f   MiniTickBarCFG.obj
 0001:000945d0       ?OnDeltaposSpinTick@CMiniTickBarCFG@@IAEXIPAUtagNMHDR@@PAJ@Z 100955d0 f   MiniTickBarCFG.obj
 0001:00094630       ?OnEditTick@CMiniTickBarCFG@@IAEXI@Z 10095630 f   MiniTickBarCFG.obj
 0001:000946f0       ?OnInitDialog@CMiniTickBarCFG@@MAEHXZ 100956f0 f   MiniTickBarCFG.obj
 0001:00094830       ?OnSelchangeCmbAllday@CMiniTickBarCFG@@IAEXI@Z 10095830 f   MiniTickBarCFG.obj
 0001:00094870       ?OnSelchangeCmbDate@CMiniTickBarCFG@@IAEXI@Z 10095870 f   MiniTickBarCFG.obj
 0001:000949a0       ?OnSelchangeCmbMarket@CMiniTickBarCFG@@IAEXI@Z 100959a0 f   MiniTickBarCFG.obj
 0001:00094a40       ?SetTickButtonConfig@CMiniTickBarCFG@@QAEXXZ 10095a40 f   MiniTickBarCFG.obj
 0001:00094b60       ??0CMiniTickBarDlg@@QAE@PAVCWnd@@@Z 10095b60 f   MiniTickBarDlg.obj
 0001:00094c50       ??0CSetTickButton@@QAE@XZ  10095c50 f   MiniTickBarDlg.obj
 0001:00094ca0       ??0_ST_SETTICK@@QAE@XZ     10095ca0 f i MiniTickBarDlg.obj
 0001:00094cb0       ??1CMiniTickBarCFG@@UAE@XZ 10095cb0 f i MiniTickBarDlg.obj
 0001:00094d10       ??1CSetTickButton@@QAE@XZ  10095d10 f   MiniTickBarDlg.obj
 0001:00094d80       ??1_ST_SETTICK@@QAE@XZ     10095d80 f i MiniTickBarDlg.obj
 0001:00094d90       ??4CSetTickButton@@QAEAAV0@AAV0@@Z 10095d90 f   MiniTickBarDlg.obj
 0001:00094df0       ??_E_ST_SETTICK@@QAEPAXI@Z 10095df0 f i MiniTickBarDlg.obj
 0001:00094ea0       ??_ECMiniTickBarDlg@@UAEPAXI@Z 10095ea0 f i MiniTickBarDlg.obj
 0001:00094ea0       ??_GCMiniTickBarDlg@@UAEPAXI@Z 10095ea0 f i MiniTickBarDlg.obj
 0001:00094f90       ?DoDataExchange@CMiniTickBarDlg@@MAEXPAVCDataExchange@@@Z 10095f90 f   MiniTickBarDlg.obj
 0001:000950c0       ?GetAllDay@CSetTickButton@@QAEHH@Z 100960c0 f   MiniTickBarDlg.obj
 0001:000950e0       ?GetDate@CSetTickButton@@QAEDH@Z 100960e0 f   MiniTickBarDlg.obj
 0001:00095140       ?GetDateIndex@CSetTickButton@@QAEHH@Z 10096140 f   MiniTickBarDlg.obj
 0001:00095160       ?GetMarket@CSetTickButton@@QAEHH@Z 10096160 f   MiniTickBarDlg.obj
 0001:000951a0       ?GetMessageMap@CMiniTickBarDlg@@MBEPBUAFX_MSGMAP@@XZ 100961a0 f   MiniTickBarDlg.obj
 0001:000951b0       ?GetThisMessageMap@CMiniTickBarDlg@@KGPBUAFX_MSGMAP@@XZ 100961b0 f   MiniTickBarDlg.obj
 0001:000951c0       ?GetTick@CSetTickButton@@QAEHH@Z 100961c0 f   MiniTickBarDlg.obj
 0001:000951e0       ?GetTitle@CSetTickButton@@QAE?AV?$CStringT@DV?$StrTraitMFC_DLL@DV?$ChTraitsCRT@D@ATL@@@@@ATL@@H@Z 100961e0 f   MiniTickBarDlg.obj
 0001:00095200       ?Init@CMiniTickBarDlg@@UAEXXZ 10096200 f   MiniTickBarDlg.obj
 0001:000953d0       ?Init@CSetTickButton@@QAEXXZ 100963d0 f   MiniTickBarDlg.obj
 0001:000955d0       ?LoadIniValue@CMiniTickBarDlg@@UAEXXZ 100965d0 f   MiniTickBarDlg.obj
 0001:00095900       ?MakeTickButtonTitle@CSetTickButton@@QAE?AV?$CStringT@DV?$StrTraitMFC_DLL@DV?$ChTraitsCRT@D@ATL@@@@@ATL@@H@Z 10096900 f   MiniTickBarDlg.obj
 0001:00095a70       ?MoveCodeInputCtrl@CMiniTickBarDlg@@UAEXXZ 10096a70 f   MiniTickBarDlg.obj
 0001:00095b70       ?MoveToLeftRight@CMiniTickBarDlg@@QAEXI@Z 10096b70 f   MiniTickBarDlg.obj
 0001:00095fd0       ?OnBtinitial@CMiniTickBarDlg@@IAEXXZ 10096fd0 f   MiniTickBarDlg.obj
 0001:00096090       ?OnBtn@CMiniTickBarDlg@@IAEXI@Z 10097090 f   MiniTickBarDlg.obj
 0001:00096330       ?OnBtnConfig@CMiniTickBarDlg@@IAEXXZ 10097330 f   MiniTickBarDlg.obj
 0001:000964f0       ?OnBtnMovetoleftright@CMiniTickBarDlg@@IAEXXZ 100974f0 f   MiniTickBarDlg.obj
 0001:00096550       ?OnSize@CMiniTickBarDlg@@IAEXIHH@Z 10097550 f   MiniTickBarDlg.obj
 0001:00096560       ?SaveIniValue@CMiniTickBarDlg@@UAEXXZ 10097560 f   MiniTickBarDlg.obj
 0001:000966a0       ?SetAllDay@CSetTickButton@@QAEXHH@Z 100976a0 f   MiniTickBarDlg.obj
 0001:000966c0       ?SetAllPosition@CMiniTickBarDlg@@QAEXH@Z 100976c0 f   MiniTickBarDlg.obj
 0001:00096820       ?SetButton@CSetTickButton@@QAEXPAVCILButton@@PAVCImageList@@@Z 10097820 f   MiniTickBarDlg.obj
 0001:00096870       ?SetCodeName@CMiniTickBarDlg@@UAEXHPBD0@Z 10097870 f   MiniTickBarDlg.obj
 0001:00096890       ?SetDateIndex@CSetTickButton@@QAEXHH@Z 10097890 f   MiniTickBarDlg.obj
 0001:000968b0       ?SetMarket@CSetTickButton@@QAEXHH@Z 100978b0 f   MiniTickBarDlg.obj
 0001:000968d0       ?SetTick@CSetTickButton@@QAEXHH@Z 100978d0 f   MiniTickBarDlg.obj
 0001:000968f0       ?SetTitle@CSetTickButton@@QAEXHV?$CStringT@DV?$StrTraitMFC_DLL@DV?$ChTraitsCRT@D@ATL@@@@@ATL@@@Z 100978f0 f   MiniTickBarDlg.obj
 0001:00096950       ?SetType@CMiniTickBarDlg@@UAEXH@Z 10097950 f   MiniTickBarDlg.obj
 0001:00096960       ??0CMultiChartApp@@QAE@XZ  10097960 f   MultiChart.obj
 0001:00096980       ??_GCMultiChartApp@@UAEPAXI@Z 10097980 f i MultiChart.obj
 0001:00096980       ??_ECMultiChartApp@@UAEPAXI@Z 10097980 f i MultiChart.obj
 0001:000969c0       ?GetApplicationRecoveryParameter@CWinApp@@UAEPAXXZ 100979c0 f i MultiChart.obj
 0001:000969d0       ?GetApplicationRecoveryPingInterval@CWinApp@@UAEKXZ 100979d0 f i MultiChart.obj
 0001:000969e0       ?GetApplicationRestartFlags@CWinApp@@UAEKXZ 100979e0 f i MultiChart.obj
 0001:000969f0       ?GetMessageMap@CMultiChartApp@@MBEPBUAFX_MSGMAP@@XZ 100979f0 f   MultiChart.obj
 0001:00096a00       ?GetThisMessageMap@CMultiChartApp@@KGPBUAFX_MSGMAP@@XZ 10097a00 f   MultiChart.obj
 0001:00096a10       ?InitInstance@CMultiChartApp@@UAEHXZ 10097a10 f   MultiChart.obj
 0001:00096a30       ?ReopenPreviousFilesAtRestart@CWinApp@@UBEHXZ 10097a30 f i MultiChart.obj
 0001:00096a40       ?RestoreAutosavedFilesAtRestart@CWinApp@@UBEHXZ 10097a40 f i MultiChart.obj
 0001:00096a50       ?SupportsApplicationRecovery@CWinApp@@UBEHXZ 10097a50 f i MultiChart.obj
 0001:00096a60       ?SupportsAutosaveAtInterval@CWinApp@@UBEHXZ 10097a60 f i MultiChart.obj
 0001:00096a70       ?SupportsAutosaveAtRestart@CWinApp@@UBEHXZ 10097a70 f i MultiChart.obj
 0001:00096a80       ?SupportsRestartManager@CWinApp@@UBEHXZ 10097a80 f i MultiChart.obj
 0001:00096a90       ?fnFormResize@@YGJPAXHH@Z  10097a90 f   MultiChart.obj
 0001:00096ac0       ?fnFuncCall@@YGJPAXPBD1AAUtagVARIANT@@@Z 10097ac0 f   MultiChart.obj
 0001:00096cf0       ?fnInit@@YGJPAUSTODINIT_IN@@PAUSTODINIT_OUT@@@Z 10097cf0 f   MultiChart.obj
 0001:00096e10       ?fnLoad@@YGJPAUSTODCREATEINFO_IN@@PAUSTODCREATEINFO_OUT@@@Z 10097e10 f   MultiChart.obj
 0001:00096f10       ?fnUnLoad@@YGJPAX@Z        10097f10 f   MultiChart.obj
 0001:00096f40       _CREATE_CHARTSCREEN        10097f40 f   MultiChart.obj
 0001:00097030       _CREATE_CHARTSCREENEX      10098030 f   MultiChart.obj
 0001:00097160       _DESTROY_CHARTSCREEN       10098160 f   MultiChart.obj
 0001:00097180       _DROPKEY_TRADING           10098180 f   MultiChart.obj
 0001:000971b0       _DllCanUnloadNow@0         100981b0 f   MultiChart.obj
 0001:000971e0       _DllGetClassObject@12      100981e0 f   MultiChart.obj
 0001:00097220       _DllRegisterServer@0       10098220 f   MultiChart.obj
 0001:00097250       _SETKEYCODE_TRADING        10098250 f   MultiChart.obj
 0001:00097280       ??0CNewGrpFavoriteDlg@@QAE@PAVCWnd@@@Z 10098280 f   NewGrpFavoriteDlg.obj
 0001:00097300       ??_ECNewGrpFavoriteDlg@@UAEPAXI@Z 10098300 f i NewGrpFavoriteDlg.obj
 0001:00097300       ??_GCNewGrpFavoriteDlg@@UAEPAXI@Z 10098300 f i NewGrpFavoriteDlg.obj
 0001:00097350       ?DoDataExchange@CNewGrpFavoriteDlg@@MAEXPAVCDataExchange@@@Z 10098350 f   NewGrpFavoriteDlg.obj
 0001:00097380       ?GetMessageMap@CNewGrpFavoriteDlg@@MBEPBUAFX_MSGMAP@@XZ 10098380 f   NewGrpFavoriteDlg.obj
 0001:00097390       ?GetThisMessageMap@CNewGrpFavoriteDlg@@KGPBUAFX_MSGMAP@@XZ 10098390 f   NewGrpFavoriteDlg.obj
 0001:000973a0       ?OnInitDialog@CNewGrpFavoriteDlg@@MAEHXZ 100983a0 f   NewGrpFavoriteDlg.obj
 0001:000973d0       ??0CPopupList@@QAE@PAV?$CList@PAVCHistory@@PAV1@@@HPAVCWnd@@@Z 100983d0 f   PopupList.obj
 0001:00097460       ??_ECPopupList@@UAEPAXI@Z  10098460 f i PopupList.obj
 0001:00097460       ??_GCPopupList@@UAEPAXI@Z  10098460 f i PopupList.obj
 0001:000974b0       ?AdjustListCtrl@CPopupList@@QAEXXZ 100984b0 f   PopupList.obj
 0001:00097730       ?DoDataExchange@CPopupList@@MAEXPAVCDataExchange@@@Z 10098730 f   PopupList.obj
 0001:00097760       ?GetMessageMap@CPopupList@@MBEPBUAFX_MSGMAP@@XZ 10098760 f   PopupList.obj
 0001:00097770       ?GetThisMessageMap@CPopupList@@KGPBUAFX_MSGMAP@@XZ 10098770 f   PopupList.obj
 0001:00097780       ?MakeInitHistoryIntoListCtrl@CPopupList@@QAEXXZ 10098780 f   PopupList.obj
 0001:000978e0       ?MakeListCtrlColumn@CPopupList@@QAEXXZ 100988e0 f   PopupList.obj
 0001:00097a50       ?OnClickList@CPopupList@@IAEXPAUtagNMHDR@@PAJ@Z 10098a50 f   PopupList.obj
 0001:00097b00       ?OnInitDialog@CPopupList@@MAEHXZ 10098b00 f   PopupList.obj
 0001:00097ca0       ?OnKillfocusList@CPopupList@@IAEXPAUtagNMHDR@@PAJ@Z 10098ca0 f   PopupList.obj
 0001:00097cc0       ?OnShowWindow@CPopupList@@IAEXHI@Z 10098cc0 f   PopupList.obj
 0001:00097e40       ??0CRegFavoriteDlg@@QAE@PAVCWnd@@@Z 10098e40 f   RegFavoriteDlg.obj
 0001:00097ed0       ??1CNewGrpFavoriteDlg@@UAE@XZ 10098ed0 f i RegFavoriteDlg.obj
 0001:00097ef0       ??_ECRegFavoriteDlg@@UAEPAXI@Z 10098ef0 f i RegFavoriteDlg.obj
 0001:00097ef0       ??_GCRegFavoriteDlg@@UAEPAXI@Z 10098ef0 f i RegFavoriteDlg.obj
 0001:00097f40       ?DoDataExchange@CRegFavoriteDlg@@MAEXPAVCDataExchange@@@Z 10098f40 f   RegFavoriteDlg.obj
 0001:00097f70       ?GetMessageMap@CRegFavoriteDlg@@MBEPBUAFX_MSGMAP@@XZ 10098f70 f   RegFavoriteDlg.obj
 0001:00097f80       ?GetThisMessageMap@CRegFavoriteDlg@@KGPBUAFX_MSGMAP@@XZ 10098f80 f   RegFavoriteDlg.obj
 0001:00097f90       ?OnBtdelfolder@CRegFavoriteDlg@@IAEXXZ 10098f90 f   RegFavoriteDlg.obj
 0001:000980a0       ?OnBtnewfolder@CRegFavoriteDlg@@IAEXXZ 100990a0 f   RegFavoriteDlg.obj
 0001:00098170       ?OnCancel@CRegFavoriteDlg@@MAEXXZ 10099170 f   RegFavoriteDlg.obj
 0001:00098180       ?OnInitDialog@CRegFavoriteDlg@@MAEHXZ 10099180 f   RegFavoriteDlg.obj
 0001:000982e0       ?OnOK@CRegFavoriteDlg@@MAEXXZ 100992e0 f   RegFavoriteDlg.obj
 0001:000983b0       ??0CRscDlg@@QAE@IPAVCWnd@@@Z 100993b0 f   RscDlg.obj
 0001:000983e0       ??_GCRscDlg@@UAEPAXI@Z     100993e0 f i RscDlg.obj
 0001:000983e0       ??_ECRscDlg@@UAEPAXI@Z     100993e0 f i RscDlg.obj
 0001:00098420       ?Create@CRscDlg@@UAEHIPAVCWnd@@@Z 10099420 f   RscDlg.obj
 0001:00098430       ?DoDataExchange@CRscDlg@@MAEXPAVCDataExchange@@@Z 10099430 f   RscDlg.obj
 0001:00098440       ?DoModal@CRscDlg@@UAEHXZ   10099440 f   RscDlg.obj
 0001:000984a0       ?GetMessageMap@CRscDlg@@MBEPBUAFX_MSGMAP@@XZ 100994a0 f   RscDlg.obj
 0001:000984b0       ?GetThisMessageMap@CRscDlg@@KGPBUAFX_MSGMAP@@XZ 100994b0 f   RscDlg.obj
 0001:000984c0       ??0CSetCycleDlg@@QAE@PAVCWnd@@@Z 100994c0 f   SetCycleDlg.obj
 0001:000987b0       ??_ECSetCycleDlg@@UAEPAXI@Z 100997b0 f i SetCycleDlg.obj
 0001:000987b0       ??_GCSetCycleDlg@@UAEPAXI@Z 100997b0 f i SetCycleDlg.obj
 0001:00098900       ?DoDataExchange@CSetCycleDlg@@MAEXPAVCDataExchange@@@Z 10099900 f   SetCycleDlg.obj
 0001:00098ae0       ?GetMessageMap@CSetCycleDlg@@MBEPBUAFX_MSGMAP@@XZ 10099ae0 f   SetCycleDlg.obj
 0001:00098af0       ?GetThisMessageMap@CSetCycleDlg@@KGPBUAFX_MSGMAP@@XZ 10099af0 f   SetCycleDlg.obj
 0001:00098b00       ?OnApply@CSetCycleDlg@@IAEXXZ 10099b00 f   SetCycleDlg.obj
 0001:00098dc0       ?OnChangeEdit@CSetCycleDlg@@IAEXXZ 10099dc0 f   SetCycleDlg.obj
 0001:00098ed0       ?OnInitDialog@CSetCycleDlg@@MAEHXZ 10099ed0 f   SetCycleDlg.obj
 0001:00099380       ?OnOK@CSetCycleDlg@@MAEXXZ 1009a380 f   SetCycleDlg.obj
 0001:00099390       ?VerifySettingData@CSetCycleDlg@@QAEHAAV?$CStringT@DV?$StrTraitMFC_DLL@DV?$ChTraitsCRT@D@ATL@@@@@ATL@@@Z 1009a390 f   SetCycleDlg.obj
 0001:000993e0       ?VerifySettingData@CSetCycleDlg@@QAEXAAVCEdit@@AAJ@Z 1009a3e0 f   SetCycleDlg.obj
 0001:00099490       ?Allocate@CAtlStringMgr@ATL@@UAEPAUCStringData@2@HH@Z 1009a490 f i StdAfx.obj
 0001:00099500       ?Free@CAtlStringMgr@ATL@@UAEXPAUCStringData@2@@Z 1009a500 f i StdAfx.obj
 0001:00099510       ?Reallocate@CAtlStringMgr@ATL@@UAEPAUCStringData@2@PAU32@HH@Z 1009a510 f i StdAfx.obj
 0001:00099570       ?GetNilString@CAtlStringMgr@ATL@@UAEPAUCStringData@2@XZ 1009a570 f i StdAfx.obj
 0001:00099580       ?Clone@CAtlStringMgr@ATL@@UAEPAUIAtlStringMgr@2@XZ 1009a580 f i StdAfx.obj
 0001:00099590       ??_GCAtlStringMgr@ATL@@UAEPAXI@Z 1009a590 f i StdAfx.obj
 0001:00099590       ??_ECAtlStringMgr@ATL@@UAEPAXI@Z 1009a590 f i StdAfx.obj
 0001:000995c0       ?Allocate@CWin32Heap@ATL@@UAEPAXI@Z 1009a5c0 f i StdAfx.obj
 0001:000995e0       ?Free@CWin32Heap@ATL@@UAEXPAX@Z 1009a5e0 f i StdAfx.obj
 0001:00099600       ?Reallocate@CWin32Heap@ATL@@UAEPAXPAXI@Z 1009a600 f i StdAfx.obj
 0001:00099640       ?GetSize@CWin32Heap@ATL@@UAEIPAX@Z 1009a640 f i StdAfx.obj
 0001:00099660       ??_GCWin32Heap@ATL@@UAEPAXI@Z 1009a660 f i StdAfx.obj
 0001:00099660       ??_ECWin32Heap@ATL@@UAEPAXI@Z 1009a660 f i StdAfx.obj
 0001:000996a0       ??1CAtlStringMgr@ATL@@UAE@XZ 1009a6a0 f i StdAfx.obj
 0001:000996b0       ??1CWin32Heap@ATL@@UAE@XZ  1009a6b0 f i StdAfx.obj
 0001:000996d0       ?EnsureLinked@CAtlStringMgrStaticInitializer@ATLImplementationDetails@ATL@@QAEPAXXZ 1009a6d0 f i StdAfx.obj
 0001:000996e0       ?SetOpenMapData@CStdDialog@@IAEXPBDF@Z 1009a6e0 f   StdDialog.obj
 0001:000997c0       ??$SerializeElements@J@@YGXAAVCArchive@@PAJH@Z 1009a7c0 f i StdDialog.obj
 0001:00099870       ??$SerializeElements@P6AXXZ@@YGXAAVCArchive@@PAP6AXXZH@Z 1009a870 f i StdDialog.obj
 0001:00099920       ??$SerializeElements@PAUHWND__@@@@YGXAAVCArchive@@PAPAUHWND__@@H@Z 1009a920 f i StdDialog.obj
 0001:000999d0       ??$SerializeElements@PAUSTSENDDATAQUE@@@@YGXAAVCArchive@@PAPAUSTSENDDATAQUE@@H@Z 1009a9d0 f i StdDialog.obj
 0001:00099a80       ??$SerializeElements@USTTRINFO@@@@YGXAAVCArchive@@PAUSTTRINFO@@H@Z 1009aa80 f i StdDialog.obj
 0001:00099b20       ??$SerializeElements@UST_GSHAREDFORMAT@@@@YGXAAVCArchive@@PAUST_GSHAREDFORMAT@@H@Z 1009ab20 f i StdDialog.obj
 0001:00099bd0       ??$SerializeElements@UST_LSHAREDFORMAT@@@@YGXAAVCArchive@@PAUST_LSHAREDFORMAT@@H@Z 1009abd0 f i StdDialog.obj
 0001:00099c80       ??0?$CArray@USTTRINFO@@U1@@@QAE@XZ 1009ac80 f i StdDialog.obj
 0001:00099cb0       ??0?$CList@JJ@@QAE@H@Z     1009acb0 f i StdDialog.obj
 0001:00099cf0       ??0?$CList@PAUSTSENDDATAQUE@@PAU1@@@QAE@H@Z 1009acf0 f i StdDialog.obj
 0001:00099d40       ??0CStdDialog@@QAE@PAVCWnd@@@Z 1009ad40 f   StdDialog.obj
 0001:0009a430       ??0STDRDSINFO@CStdDialog@@QAE@XZ 1009b430 f i StdDialog.obj
 0001:0009a450       ??0STTRINFO@@QAE@ABU0@@Z   1009b450 f i StdDialog.obj
 0001:0009a490       ??0ST_CODEDATA@@QAE@XZ     1009b490 f i StdDialog.obj
 0001:0009a4a0       ??0ST_GSHAREDFORMAT@@QAE@XZ 1009b4a0 f i StdDialog.obj
 0001:0009a4c0       ??0ST_LSHAREDFORMAT@@QAE@XZ 1009b4c0 f i StdDialog.obj
 0001:0009a4e0       ??1?$CArray@PAUHWND__@@PAU1@@@UAE@XZ 1009b4e0 f i StdDialog.obj
 0001:0009a500       ??1?$CArray@USTTRINFO@@U1@@@UAE@XZ 1009b500 f i StdDialog.obj
 0001:0009a550       ??1?$CList@JJ@@UAE@XZ      1009b550 f i StdDialog.obj
 0001:0009a5c0       ??1?$CList@P6AXXZP6AXXZ@@UAE@XZ 1009b5c0 f i StdDialog.obj
 0001:0009a630       ??1?$CList@PAUSTSENDDATAQUE@@PAU1@@@UAE@XZ 1009b630 f i StdDialog.obj
 0001:0009a6a0       ??1?$CList@UST_GSHAREDFORMAT@@U1@@@UAE@XZ 1009b6a0 f i StdDialog.obj
 0001:0009a730       ??1?$CList@UST_LSHAREDFORMAT@@U1@@@UAE@XZ 1009b730 f i StdDialog.obj
 0001:0009a7c0       ??1CCommonDataInfo@@QAE@XZ 1009b7c0 f i StdDialog.obj
 0001:0009a7d0       ??1CExOCXDLL@@UAE@XZ       1009b7d0 f i StdDialog.obj
 0001:0009a8f0       ??1CRealTRCounter@@QAE@XZ  1009b8f0 f i StdDialog.obj
 0001:0009a940       ??1CStdDialog@@UAE@XZ      1009b940 f i StdDialog.obj
 0001:0009ac60       ??1STDRDSINFO@CStdDialog@@QAE@XZ 1009bc60 f i StdDialog.obj
 0001:0009ac80       ??1STINPUTCODEDATA@@QAE@XZ 1009bc80 f i StdDialog.obj
 0001:0009aca0       ??1STTRINFO@@QAE@XZ        1009bca0 f i StdDialog.obj
 0001:0009acb0       ??1ST_CODEDATA@@QAE@XZ     1009bcb0 f i StdDialog.obj
 0001:0009acc0       ??1ST_GSHAREDFORMAT@@QAE@XZ 1009bcc0 f i StdDialog.obj
 0001:0009ace0       ??1ST_LSHAREDFORMAT@@QAE@XZ 1009bce0 f i StdDialog.obj
 0001:0009ad00       ??1stReceiveFromServer@@QAE@XZ 1009bd00 f i StdDialog.obj
 0001:0009ad10       ??8ATL@@YA_NABV?$CStringT@DV?$StrTraitMFC_DLL@DV?$ChTraitsCRT@D@ATL@@@@@0@0@Z 1009bd10 f i StdDialog.obj
 0001:0009ad28       ??_ECStdDialog@@WKI@AEPAXI@Z 1009bd28 f i StdDialog.obj
 0001:0009ad40       ??_G?$CArray@PAUHWND__@@PAU1@@@UAEPAXI@Z 1009bd40 f i StdDialog.obj
 0001:0009ad40       ??_E?$CArray@PAUHWND__@@PAU1@@@UAEPAXI@Z 1009bd40 f i StdDialog.obj
 0001:0009ad90       ??_G?$CArray@USTTRINFO@@U1@@@UAEPAXI@Z 1009bd90 f i StdDialog.obj
 0001:0009ad90       ??_E?$CArray@USTTRINFO@@U1@@@UAEPAXI@Z 1009bd90 f i StdDialog.obj
 0001:0009add0       ??_E?$CList@JJ@@UAEPAXI@Z  1009bdd0 f i StdDialog.obj
 0001:0009add0       ??_G?$CList@JJ@@UAEPAXI@Z  1009bdd0 f i StdDialog.obj
 0001:0009ae80       ??_G?$CList@P6AXXZP6AXXZ@@UAEPAXI@Z 1009be80 f i StdDialog.obj
 0001:0009ae80       ??_E?$CList@P6AXXZP6AXXZ@@UAEPAXI@Z 1009be80 f i StdDialog.obj
 0001:0009af30       ??_G?$CList@PAUSTSENDDATAQUE@@PAU1@@@UAEPAXI@Z 1009bf30 f i StdDialog.obj
 0001:0009af30       ??_E?$CList@PAUSTSENDDATAQUE@@PAU1@@@UAEPAXI@Z 1009bf30 f i StdDialog.obj
 0001:0009afe0       ??_E?$CList@UST_GSHAREDFORMAT@@U1@@@UAEPAXI@Z 1009bfe0 f i StdDialog.obj
 0001:0009afe0       ??_G?$CList@UST_GSHAREDFORMAT@@U1@@@UAEPAXI@Z 1009bfe0 f i StdDialog.obj
 0001:0009b020       ??_E?$CList@UST_LSHAREDFORMAT@@U1@@@UAEPAXI@Z 1009c020 f i StdDialog.obj
 0001:0009b020       ??_G?$CList@UST_LSHAREDFORMAT@@U1@@@UAEPAXI@Z 1009c020 f i StdDialog.obj
 0001:0009b060       ??_GCDragNDrop@@QAEPAXI@Z  1009c060 f i StdDialog.obj
 0001:0009b0d0       ??_GCStdDialog@@UAEPAXI@Z  1009c0d0 f i StdDialog.obj
 0001:0009b0d0       ??_ECStdDialog@@UAEPAXI@Z  1009c0d0 f i StdDialog.obj
 0001:0009b110       ?Add@?$CArray@USTTRINFO@@U1@@@QAEHUSTTRINFO@@@Z 1009c110 f i StdDialog.obj
 0001:0009b1e0       ?AddAccountCodeItem@CStdDialog@@QAEXPAXJ@Z 1009c1e0 f   StdDialog.obj
 0001:0009b2c0       ?AddRealCodeList@CStdDialog@@QAEXPBD@Z 1009c2c0 f   StdDialog.obj
 0001:0009b350       ?AddStandByTrCall@CStdDialog@@QAEXV?$CStringT@DV?$StrTraitMFC_DLL@DV?$ChTraitsCRT@D@ATL@@@@@ATL@@@Z 1009c350 f   StdDialog.obj
 0001:0009b410       ?AddTail@?$CList@JJ@@QAEPAU__POSITION@@J@Z 1009c410 f i StdDialog.obj
 0001:0009b4a0       ?AddTail@?$CList@P6AXXZP6AXXZ@@QAEPAU__POSITION@@P6AXXZ@Z 1009c4a0 f i StdDialog.obj
 0001:0009b530       ?AddTail@?$CList@PAUSTSENDDATAQUE@@PAU1@@@QAEPAU__POSITION@@PAUSTSENDDATAQUE@@@Z 1009c530 f i StdDialog.obj
 0001:0009b5c0       ?AddTail@?$CList@UST_GSHAREDFORMAT@@U1@@@QAEPAU__POSITION@@UST_GSHAREDFORMAT@@@Z 1009c5c0 f i StdDialog.obj
 0001:0009b6d0       ?AddTail@?$CList@UST_LSHAREDFORMAT@@U1@@@QAEPAU__POSITION@@UST_LSHAREDFORMAT@@@Z 1009c6d0 f i StdDialog.obj
 0001:0009b7e0       ?AddTr@CRealTRCounter@@QAEIV?$CStringT@DV?$StrTraitMFC_DLL@DV?$ChTraitsCRT@D@ATL@@@@@ATL@@@Z 1009c7e0 f i StdDialog.obj
 0001:0009b940       ?AllCodeUnAdvise@CStdDialog@@QAEXXZ 1009c940 f   StdDialog.obj
 0001:0009bb50       ?CallStandByTr@CStdDialog@@QAEXXZ 1009cb50 f   StdDialog.obj
 0001:0009bc40       ?ChangeCode@CStdDialog@@QAEXPBDHH@Z 1009cc40 f   StdDialog.obj
 0001:0009c010       ?ChangeControlMarketType@CStdDialog@@QAEXH@Z 1009d010 f   StdDialog.obj
 0001:0009c020       ?ChangeMarket@CStdDialog@@QAEXIHH@Z 1009d020 f   StdDialog.obj
 0001:0009c050       ?ChangeMiniStockMode@CStdDialog@@QAEXH@Z 1009d050 f   StdDialog.obj
 0001:0009c2d0       ?ChangeSharedData@CStdDialog@@IAEJV?$CStringT@DV?$StrTraitMFC_DLL@DV?$ChTraitsCRT@D@ATL@@@@@ATL@@PAEHH@Z 1009d2d0 f   StdDialog.obj
 0001:0009c3f0       ?ChangeSkinColor@CStdDialog@@QAEXXZ 1009d3f0 f   StdDialog.obj
 0001:0009c4f0       ?ChangeSpeed@CStdDialog@@QAEXH@Z 1009d4f0 f   StdDialog.obj
 0001:0009c530       ?ChangeStockMode@CStdDialog@@QAEXH@Z 1009d530 f   StdDialog.obj
 0001:0009c690       ?ChangeUpjongMode@CStdDialog@@QAEXI@Z 1009d690 f   StdDialog.obj
 0001:0009c6b0       ?CharToString@CStdDialog@@QAE?AV?$CStringT@DV?$StrTraitMFC_DLL@DV?$ChTraitsCRT@D@ATL@@@@@ATL@@PADHH@Z 1009d6b0 f   StdDialog.obj
 0001:0009c750       ?CheckDataTypeForReplay@CStdDialog@@QAEHXZ 1009d750 f   StdDialog.obj
 0001:0009c760       ?ClearSaveKey@CStdDialog@@QAEXXZ 1009d760 f   StdDialog.obj
 0001:0009c930       ?ColorTableChanged@CExDialog@@UAEXXZ 1009d930 f i StdDialog.obj
 0001:0009c940       ?ConvertHogaData@CStdDialog@@QAEXPAXJ@Z 1009d940 f   StdDialog.obj
 0001:0009da80       ?ConvertKoscomData@CStdDialog@@QAEXPBDPAXJ@Z 1009ea80 f   StdDialog.obj
 0001:0009dee0       ?CreateBufferBitmap@CStdDialog@@QAEXPAVCDC@@ABVCRect@@@Z 1009eee0 f   StdDialog.obj
 0001:0009df80       ?CreateDataWindow@CStdDialog@@QAEXXZ 1009ef80 f   StdDialog.obj
 0001:0009e010       ?DeleteAllImageList@CStdDialog@@QAEXXZ 1009f010 f   StdDialog.obj
 0001:0009e220       ?DestroyDataWindow@CStdDialog@@QAEXXZ 1009f220 f   StdDialog.obj
 0001:0009e260       ?DoCheckMin@CStdDialog@@QAEXHPBDAAV?$CStringT@DV?$StrTraitMFC_DLL@DV?$ChTraitsCRT@D@ATL@@@@@ATL@@@Z 1009f260 f   StdDialog.obj
 0001:0009e320       ?DoClearUserChartData@CStdDialog@@QAEXXZ 1009f320 f   StdDialog.obj
 0001:0009e520       ?DoDataExchange@CStdDialog@@MAEXPAVCDataExchange@@@Z 1009f520 f   StdDialog.obj
 0001:0009e560       ?DoGetWorkDate@CStdDialog@@QAEPBDH@Z 1009f560 f   StdDialog.obj
 0001:0009e590       ?DoShareCode@CStdDialog@@QAEXPBD@Z 1009f590 f   StdDialog.obj
 0001:0009e6b0       ?EnableAccount@CStdDialog@@QAEXH@Z 1009f6b0 f   StdDialog.obj
 0001:0009e6d0       ?EnableQueryOpt@CStdDialog@@QAEXH@Z 1009f6d0 f   StdDialog.obj
 0001:0009e710       ?EnableRequestMoreButton@CStdDialog@@QAEXH@Z 1009f710 f   StdDialog.obj
 0001:0009e730       ?EnableWindowAll@CStdDialog@@AAEXH@Z 1009f730 f   StdDialog.obj
 0001:0009e880       ?FindIndex@?$CList@UST_CODEDATA@@U1@@@QBEPAU__POSITION@@H@Z 1009f880 f i StdDialog.obj
 0001:0009e8b0       ?FormLoad@CStdDialog@@UAEXXZ 1009f8b0 f   StdDialog.obj
 0001:0009f6f0       ?FreeNode@?$CList@JJ@@IAEXPAUCNode@1@@Z 100a06f0 f i StdDialog.obj
 0001:0009f740       ?FreeNode@?$CList@PAUSTSENDDATAQUE@@PAU1@@@IAEXPAUCNode@1@@Z 100a0740 f i StdDialog.obj
 0001:0009f790       ?FreeNode@?$CList@UST_CODEDATA@@U1@@@IAEXPAUCNode@1@@Z 100a0790 f i StdDialog.obj
 0001:0009f7c0       ?GetAccountInfo@CStdDialog@@QAE?AV?$CStringT@DV?$StrTraitMFC_DLL@DV?$ChTraitsCRT@D@ATL@@@@@ATL@@XZ 100a07c0 f   StdDialog.obj
 0001:0009f7e0       ?GetAccountList@CStdDialog@@QAEHHPAVCStringArray@@@Z 100a07e0 f   StdDialog.obj
 0001:0009f820       ?GetAutoSaveToOutside@CMChartInterface@@MAE_NAA_N@Z 100a0820 f i StdDialog.obj
 0001:0009f830       ?GetAutoSaveToOutside@CStdDialog@@UAE_NAA_N@Z 100a0830 f   StdDialog.obj
 0001:0009f840       ?GetBizDate@CStdDialog@@QAE?AV?$CStringT@DV?$StrTraitMFC_DLL@DV?$ChTraitsCRT@D@ATL@@@@@ATL@@XZ 100a0840 f   StdDialog.obj
 0001:0009f880       ?GetBkgrndColor@CStdDialog@@QAEKXZ 100a0880 f   StdDialog.obj
 0001:0009f8a0       ?GetCommonDataInfo@@YAHPAUHWND__@@HH@Z 100a08a0 f   StdDialog.obj
 0001:0009f900       ?GetCrossLine@CStdDialog@@QAE_NXZ 100a0900 f   StdDialog.obj
 0001:0009f930       ?GetDispatchMap@CStdDialog@@MBEPBUAFX_DISPMAP@@XZ 100a0930 f   StdDialog.obj
 0001:0009f940       ?GetDlgToolBtnToggle@CStdDialog@@QAEHAAV?$CArray@HH@@00000AAV?$CMap@HHV?$CStringT@DV?$StrTraitMFC_DLL@DV?$ChTraitsCRT@D@ATL@@@@@ATL@@V12@@@@Z 100a0940 f   StdDialog.obj
 0001:0009f9b0       ?GetDotPosition@CStdDialog@@QAEGAAV?$CStringT@DV?$StrTraitMFC_DLL@DV?$ChTraitsCRT@D@ATL@@@@@ATL@@@Z 100a09b0 f   StdDialog.obj
 0001:0009fa80       ?GetFileSaveKey@CStdDialog@@QAEXAAV?$CStringT@DV?$StrTraitMFC_DLL@DV?$ChTraitsCRT@D@ATL@@@@@ATL@@@Z 100a0a80 f   StdDialog.obj
 0001:0009fb70       ?GetFillString@CStdDialog@@QAEHAAV?$CStringT@DV?$StrTraitMFC_DLL@DV?$ChTraitsCRT@D@ATL@@@@@ATL@@HHH@Z 100a0b70 f   StdDialog.obj
 0001:0009fc30       ?GetFirstCode@CStdDialog@@QAEHAAV?$CStringT@DV?$StrTraitMFC_DLL@DV?$ChTraitsCRT@D@ATL@@@@@ATL@@HAAH@Z 100a0c30 f   StdDialog.obj
 0001:000a06f0       ?GetImaginaryCandleToOutside@CMChartInterface@@MAE_NAA_N@Z 100a16f0 f i StdDialog.obj
 0001:000a0700       ?GetImaginaryCandleToOutside@CStdDialog@@UAE_NAA_N@Z 100a1700 f   StdDialog.obj
 0001:000a0710       ?GetIndicatorNameListIntoComboBox@CStdDialog@@QAEXAAVCComboBox@@PBD@Z 100a1710 f   StdDialog.obj
 0001:000a0730       ?GetInquiryDataWindowMoveTypeToOutside@CMChartInterface@@MAE_NAAH@Z 100a1730 f i StdDialog.obj
 0001:000a0740       ?GetInquiryDataWindowTypeToOutside@CMChartInterface@@MAE_NAAH@Z 100a1740 f i StdDialog.obj
 0001:000a0750       ?GetInterfaceMap@CStdDialog@@MBEPBUAFX_INTERFACEMAP@@XZ 100a1750 f   StdDialog.obj
 0001:000a0760       ?GetItemExpCode@CStdDialog@@QAE?AV?$CStringT@DV?$StrTraitMFC_DLL@DV?$ChTraitsCRT@D@ATL@@@@@ATL@@PBD@Z 100a1760 f   StdDialog.obj
 0001:000a0810       ?GetItemNameFromItemCode@CStdDialog@@QAE?AV?$CStringT@DV?$StrTraitMFC_DLL@DV?$ChTraitsCRT@D@ATL@@@@@ATL@@V23@H@Z 100a1810 f   StdDialog.obj
 0001:000a08d0       ?GetJongMokNameByCode@CStdDialog@@QAE?AV?$CStringT@DV?$StrTraitMFC_DLL@DV?$ChTraitsCRT@D@ATL@@@@@ATL@@PBD0@Z 100a18d0 f   StdDialog.obj
 0001:000a0930       ?GetLinkInfoData@CStdDialog@@QAE?AV?$CStringT@DV?$StrTraitMFC_DLL@DV?$ChTraitsCRT@D@ATL@@@@@ATL@@XZ 100a1930 f   StdDialog.obj
 0001:000a0980       ?GetMainPath@COutsideCommonInterface@@MBEPBDXZ 100a1980 f i StdDialog.obj
 0001:000a0990       ?GetMainPath@CStdDialog@@QAEPBDXZ 100a1990 f   StdDialog.obj
 0001:000a09a0       ?GetMapID@CStdDialog@@QAE?AV?$CStringT@DV?$StrTraitMFC_DLL@DV?$ChTraitsCRT@D@ATL@@@@@ATL@@XZ 100a19a0 f   StdDialog.obj
 0001:000a09c0       ?GetMarketTypeFromCode@CStdDialog@@QAEHV?$CStringT@DV?$StrTraitMFC_DLL@DV?$ChTraitsCRT@D@ATL@@@@@ATL@@AAH@Z 100a19c0 f   StdDialog.obj
 0001:000a0b50       ?GetMarketTypeFromItemCode@CStdDialog@@QAEHV?$CStringT@DV?$StrTraitMFC_DLL@DV?$ChTraitsCRT@D@ATL@@@@@ATL@@@Z 100a1b50 f   StdDialog.obj
 0001:000a0c40       ?GetMessageMap@CStdDialog@@MBEPBUAFX_MSGMAP@@XZ 100a1c40 f   StdDialog.obj
 0001:000a0c50       ?GetOldFututureCodeName@CStdDialog@@QAEHPBDAAV?$CStringT@DV?$StrTraitMFC_DLL@DV?$ChTraitsCRT@D@ATL@@@@@ATL@@@Z 100a1c50 f   StdDialog.obj
 0001:000a0c70       ?GetRect@CStdDialog@@AAE?AVCRect@@IH@Z 100a1c70 f   StdDialog.obj
 0001:000a1320       ?GetRevisedPriceFlag@CMChartInterface061115@@MAEHXZ 100a2320 f i StdDialog.obj
 0001:000a1330       ?GetRevisedPriceFlag@CStdDialog@@UAEHXZ 100a2330 f   StdDialog.obj
 0001:000a1340       ?GetRightMarginToOutside@CMChartInterface@@MAE_NAAH@Z 100a2340 f i StdDialog.obj
 0001:000a1350       ?GetScreenNo@CStdDialog@@QAE?AV?$CStringT@DV?$StrTraitMFC_DLL@DV?$ChTraitsCRT@D@ATL@@@@@ATL@@XZ 100a2350 f   StdDialog.obj
 0001:000a13d0       ?GetShowControlLineTextToOutside@CMChartInterface@@MAE_NAA_N@Z 100a23d0 f i StdDialog.obj
 0001:000a13e0       ?GetShowCrossLineToOutside@CMChartInterface@@MAE_NAA_N@Z 100a23e0 f i StdDialog.obj
 0001:000a13f0       ?GetShowCurrentPriceToOutside@CMChartInterface@@MAE_NAAH@Z 100a23f0 f i StdDialog.obj
 0001:000a1400       ?GetShowExRightDividendToOutside@CMChartInterface@@MAE_NAA_N@Z 100a2400 f i StdDialog.obj
 0001:000a1410       ?GetShowExRightDividendToOutside@CStdDialog@@UAE_NAA_N@Z 100a2410 f   StdDialog.obj
 0001:000a1420       ?GetShowHighLowBoundToOutside@CMChartInterface@@MAE_NAA_N@Z 100a2420 f i StdDialog.obj
 0001:000a1430       ?GetShowHighLowBoundToOutside@CStdDialog@@UAE_NAA_N@Z 100a2430 f   StdDialog.obj
 0001:000a1440       ?GetShowIndicatorValueToOutside@CMChartInterface@@MAE_NAA_N@Z 100a2440 f i StdDialog.obj
 0001:000a1450       ?GetShowIndicatorVariableToOutside@CMChartInterface@@MAE_NAA_N@Z 100a2450 f i StdDialog.obj
 0001:000a1460       ?GetShowPriceLineLeftTextToOutside@CMChartInterface@@MAE_NAA_N@Z 100a2460 f i StdDialog.obj
 0001:000a1470       ?GetShowPriceLineRightTextToOutside@CMChartInterface@@MAE_NAA_N@Z 100a2470 f i StdDialog.obj
 0001:000a1480       ?GetShowQuadrisectionLineTextToOutside@CMChartInterface@@MAE_NAA_N@Z 100a2480 f i StdDialog.obj
 0001:000a1490       ?GetShowTimeLineTextToOutside@CMChartInterface@@MAE_NAA_N@Z 100a2490 f i StdDialog.obj
 0001:000a14a0       ?GetShowTrendLineTextToOutside@CMChartInterface@@MAE_NAA_N@Z 100a24a0 f i StdDialog.obj
 0001:000a14b0       ?GetShowTrendLineValueToOutside@CMChartInterface@@MAE_NAAH@Z 100a24b0 f i StdDialog.obj
 0001:000a14c0       ?GetShowTrisectionLineTextToOutside@CMChartInterface@@MAE_NAA_N@Z 100a24c0 f i StdDialog.obj
 0001:000a14d0       ?GetStartEndDateAtStdDialog@CStdDialog@@QAEXAAN0@Z 100a24d0 f   StdDialog.obj
 0001:000a14f0       ?GetStatusEnable@CStdDialog@@QAEHXZ 100a24f0 f   StdDialog.obj
 0001:000a1500       ?GetThisDispatchMap@CStdDialog@@KGPBUAFX_DISPMAP@@XZ 100a2500 f   StdDialog.obj
 0001:000a1510       ?GetThisInterfaceMap@CStdDialog@@KGPBUAFX_INTERFACEMAP@@XZ 100a2510 f   StdDialog.obj
 0001:000a1520       ?GetThisMessageMap@CStdDialog@@KGPBUAFX_MSGMAP@@XZ 100a2520 f   StdDialog.obj
 0001:000a1530       ?GetTimeLinkageToOutside@CMChartInterface@@MAE_NAA_N@Z 100a2530 f i StdDialog.obj
 0001:000a1540       ?GetTimeLinkageToOutside@CStdDialog@@UAE_NAA_N@Z 100a2540 f   StdDialog.obj
 0001:000a1550       ?GetTimeSyncFlag@CStdDialog@@QAEHXZ 100a2550 f   StdDialog.obj
 0001:000a1570       ?GetTrCodeFromCode@@YA?AV?$CStringT@DV?$StrTraitMFC_DLL@DV?$ChTraitsCRT@D@ATL@@@@@ATL@@PAUHWND__@@V12@@Z 100a2570 f   StdDialog.obj
 0001:000a1690       ?GetTrendLineColorToOutside@CMChartInterface@@MAE_NAAK@Z 100a2690 f i StdDialog.obj
 0001:000a16a0       ?GetUseGapRevisionToOutside@CMChartInterface@@MAE_NAA_N@Z 100a26a0 f i StdDialog.obj
 0001:000a16b0       ?GetUserID@COutsideCommonInterface@@MBEPBDXZ 100a26b0 f i StdDialog.obj
 0001:000a16c0       ?GetUserID@CStdDialog@@QAEPBDXZ 100a26c0 f   StdDialog.obj
 0001:000a16d0       ?GetWidthOfLeftBar@CStdDialog@@QAEHXZ 100a26d0 f   StdDialog.obj
 0001:000a16e0       ?GetYScalePositionToOutside@CMChartInterface@@MAE_NAAH@Z 100a26e0 f i StdDialog.obj
 0001:000a16f0       ?GridColumnExtend@CStdDialog@@QAEXXZ 100a26f0 f   StdDialog.obj
 0001:000a1920       ?HasKey@CStdDialog@@QAEHV?$CStringT@DV?$StrTraitMFC_DLL@DV?$ChTraitsCRT@D@ATL@@@@@ATL@@@Z 100a2920 f   StdDialog.obj
 0001:000a1a50       ?HideChart@CStdDialog@@QAEHXZ 100a2a50 f   StdDialog.obj
 0001:000a1bb0       ?InitChartBySystemTrading@CStdDialog@@QAEXPBD@Z 100a2bb0 f   StdDialog.obj
 0001:000a1fd0       ?InitDrds@CStdDialog@@QAEXXZ 100a2fd0 f   StdDialog.obj
 0001:000a22b0       ?InitImageList@CStdDialog@@QAEXXZ 100a32b0 f   StdDialog.obj
 0001:000a2a70       ?InputCodeFromOutSide@CStdDialog@@QAEXV?$CStringT@DV?$StrTraitMFC_DLL@DV?$ChTraitsCRT@D@ATL@@@@@ATL@@@Z 100a3a70 f   StdDialog.obj
 0001:000a2af0       ?IsActiveDataWindow@CMChartInterface@@MAE_NXZ 100a3af0 f i StdDialog.obj
 0001:000a2b00       ?IsActiveDataWindow@CStdDialog@@UAE_NXZ 100a3b00 f   StdDialog.obj
 0001:000a2b10       ?IsAvailableBlockCount@CStdDialog@@QAEHHAAH@Z 100a3b10 f   StdDialog.obj
 0001:000a2b90       ?IsAvailableReplayRunnig@CStdDialog@@QAEHHH@Z 100a3b90 f   StdDialog.obj
 0001:000a2c10       ?IsChartHide@CStdDialog@@QAEHXZ 100a3c10 f   StdDialog.obj
 0001:000a2c20       ?IsChartScreen@CStdDialog@@QAEHPBD@Z 100a3c20 f   StdDialog.obj
 0001:000a2d90       ?IsContinueFutCode@CStdDialog@@QAEHAAV?$CStringT@DV?$StrTraitMFC_DLL@DV?$ChTraitsCRT@D@ATL@@@@@ATL@@@Z 100a3d90 f   StdDialog.obj
 0001:000a2e90       ?IsInvestMarket@CStdDialog@@QAEHAAV?$CStringT@DV?$StrTraitMFC_DLL@DV?$ChTraitsCRT@D@ATL@@@@@ATL@@@Z 100a3e90 f   StdDialog.obj
 0001:000a2f20       ?IsLoad_MarketChart@COutsideCommonInterface@@MBE_NXZ 100a3f20 f i StdDialog.obj
 0001:000a2f30       ?IsLoad_MarketChart@CStdDialog@@UBE_NXZ 100a3f30 f   StdDialog.obj
 0001:000a2f40       ?IsOutsideInterfaceType@CMChartInterface061115@@MBE?AW4TYPE_OCIF@COutsideCommonInterface@@XZ 100a3f40 f i StdDialog.obj
 0001:000a2f50       ?IsOutsideInterfaceType@CMChartInterface@@MBE?AW4TYPE_OCIF@COutsideCommonInterface@@XZ 100a3f50 f i StdDialog.obj
 0001:000a2f60       ?IsOutsideInterfaceType@COutsideCommonInterface@@MBE?AW4TYPE_OCIF@1@XZ 100a3f60 f i StdDialog.obj
 0001:000a2f70       ?IsSameItemCodeName@CStdDialog@@QAEHPBD@Z 100a3f70 f   StdDialog.obj
 0001:000a2fb0       ?IsSystemChart@CStdDialog@@QAEHXZ 100a3fb0 f   StdDialog.obj
 0001:000a30c0       ?IsSystemTradingUser@CStdDialog@@QAEHXZ 100a40c0 f   StdDialog.obj
 0001:000a3150       ?LoadSaveSystemTrading@CStdDialog@@QAEXAAV?$CStringT@DV?$StrTraitMFC_DLL@DV?$ChTraitsCRT@D@ATL@@@@@ATL@@HHH@Z 100a4150 f   StdDialog.obj
 0001:000a3280       ?Load_ReplayChart_Lib@CStdDialog@@QAEHXZ 100a4280 f   StdDialog.obj
 0001:000a33e0       ?MakeAccountConcData@CStdDialog@@QAEXPAXJ@Z 100a43e0 f   StdDialog.obj
 0001:000a3400       ?MakeChartData@CStdDialog@@QAE?AV?$CStringT@DV?$StrTraitMFC_DLL@DV?$ChTraitsCRT@D@ATL@@@@@ATL@@PAXAAHHHHNH@Z 100a4400 f   StdDialog.obj
 0001:000a36c0       ?MakeDrdsConnectAdviseFromCode@CStdDialog@@QAEHHH@Z 100a46c0 f   StdDialog.obj
 0001:000a38c0       ?MakeDrdsUnConnectUnAdviseFromCode@CStdDialog@@QAEHHH@Z 100a48c0 f   StdDialog.obj
 0001:000a3a30       ?MakeMarketChartData@CStdDialog@@QAE?AV?$CStringT@DV?$StrTraitMFC_DLL@DV?$ChTraitsCRT@D@ATL@@@@@ATL@@PAXAAHHN@Z 100a4a30 f   StdDialog.obj
 0001:000a3b70       ?NewNode@?$CList@JJ@@IAEPAUCNode@1@PAU21@0@Z 100a4b70 f i StdDialog.obj
 0001:000a3be0       ?NewNode@?$CList@P6AXXZP6AXXZ@@IAEPAUCNode@1@PAU21@0@Z 100a4be0 f i StdDialog.obj
 0001:000a3c50       ?NewNode@?$CList@PAUSTSENDDATAQUE@@PAU1@@@IAEPAUCNode@1@PAU21@0@Z 100a4c50 f i StdDialog.obj
 0001:000a3cc0       ?NewNode@?$CList@UST_GSHAREDFORMAT@@U1@@@IAEPAUCNode@1@PAU21@0@Z 100a4cc0 f i StdDialog.obj
 0001:000a3d40       ?NewNode@?$CList@UST_LSHAREDFORMAT@@U1@@@IAEPAUCNode@1@PAU21@0@Z 100a4d40 f i StdDialog.obj
 0001:000a3dc0       ?NofityNewDataReceive@CStdDialog@@QAEXXZ 100a4dc0 f   StdDialog.obj
 0001:000a3dd0       ?OnBtnExtTool@CStdDialog@@IAEXXZ 100a4dd0 f   StdDialog.obj
 0001:000a3e80       ?OnByPass_ExportToolOption@CStdDialog@@IAEJIJ@Z 100a4e80 f   StdDialog.obj
 0001:000a3ff0       ?OnCancel@CExOCXDLL@@MAEXXZ 100a4ff0 f i StdDialog.obj
 0001:000a4000       ?OnChangeSkinColor@CStdDialog@@IAEJIJ@Z 100a5000 f   StdDialog.obj
 0001:000a4160       ?OnChartEnvSetupOk@CMChartInterface@@MAE_NXZ 100a5160 f i StdDialog.obj
 0001:000a4170       ?OnChartEnvSetupOk@CStdDialog@@UAE_NXZ 100a5170 f   StdDialog.obj
 0001:000a4180       ?OnCodeAdvise@CStdDialog@@QAEXV?$CStringT@DV?$StrTraitMFC_DLL@DV?$ChTraitsCRT@D@ATL@@@@@ATL@@H@Z 100a5180 f   StdDialog.obj
 0001:000a4380       ?OnCodeUnAdvise@CStdDialog@@QAEXV?$CStringT@DV?$StrTraitMFC_DLL@DV?$ChTraitsCRT@D@ATL@@@@@ATL@@H@Z 100a5380 f   StdDialog.obj
 0001:000a4580       ?OnDeleteChartItem@CStdDialog@@QAEXPBD@Z 100a5580 f   StdDialog.obj
 0001:000a45b0       ?OnDestroy@CStdDialog@@IAEXXZ 100a55b0 f   StdDialog.obj
 0001:000a4840       ?OnDragEnd@CStdDialog@@IAEJIJ@Z 100a5840 f   StdDialog.obj
 0001:000a4c00       ?OnDragStart@CStdDialog@@IAEJIJ@Z 100a5c00 f   StdDialog.obj
 0001:000a4c60       ?OnDropData@CStdDialog@@IAEJIJ@Z 100a5c60 f   StdDialog.obj
 0001:000a4c70       ?OnEraseBkgnd@CStdDialog@@IAEHPAVCDC@@@Z 100a5c70 f   StdDialog.obj
 0001:000a4c80       ?OnGSharedDataChange@CStdDialog@@MAEXPBD0H@Z 100a5c80 f   StdDialog.obj
 0001:000a4d40       ?OnGetSkinColor@CStdDialog@@IAEJIJ@Z 100a5d40 f   StdDialog.obj
 0001:000a4e60       ?OnGetTRComm@CStdDialog@@IAEJIJ@Z 100a5e60 f   StdDialog.obj
 0001:000a4ed0       ?OnIndicatorAddOrRemoved@CMChartInterface061115@@MAEHPBDH@Z 100a5ed0 f i StdDialog.obj
 0001:000a4ee0       ?OnIndicatorAddOrRemoved@CStdDialog@@UAEHPBDH@Z 100a5ee0 f   StdDialog.obj
 0001:000a4ef0       ?OnInitDialog@CStdDialog@@MAEHXZ 100a5ef0 f   StdDialog.obj
 0001:000a5480       ?OnLButtonDown@CStdDialog@@IAEXIVCPoint@@@Z 100a6480 f   StdDialog.obj
 0001:000a5490       ?OnMagnifyingglass@CStdDialog@@QAEXH@Z 100a6490 f   StdDialog.obj
 0001:000a55c0       ?OnMouseMove@CStdDialog@@IAEXIVCPoint@@@Z 100a65c0 f   StdDialog.obj
 0001:000a5610       ?OnOK@CExOCXDLL@@MAEXXZ    100a6610 f i StdDialog.obj
 0001:000a5620       ?OnOrderInfomationChanged@CMChartInterface061115@@MAEHNHHPBD000@Z 100a6620 f i StdDialog.obj
 0001:000a5630       ?OnPaint@CStdDialog@@IAEXXZ 100a6630 f   StdDialog.obj
 0001:000a56d0       ?OnReplayChangeDate@CStdDialog@@IAEJIJ@Z 100a66d0 f   StdDialog.obj
 0001:000a57b0       ?OnReplayDrds@CStdDialog@@IAEJIJ@Z 100a67b0 f   StdDialog.obj
 0001:000a5880       ?OnReplayEachSec@CStdDialog@@IAEJIJ@Z 100a6880 f   StdDialog.obj
 0001:000a5910       ?OnReplayEnd@CStdDialog@@IAEJIJ@Z 100a6910 f   StdDialog.obj
 0001:000a5920       ?OnReplayFail@CStdDialog@@IAEJIJ@Z 100a6920 f   StdDialog.obj
 0001:000a5950       ?OnReplaySetTotalSec@CStdDialog@@IAEJIJ@Z 100a6950 f   StdDialog.obj
 0001:000a5990       ?OnSelectChartItem@CStdDialog@@QAEXPAU_ST_SELCHART@@@Z 100a6990 f   StdDialog.obj
 0001:000a5a80       ?OnSetCursor@CStdDialog@@IAEHPAVCWnd@@II@Z 100a6a80 f   StdDialog.obj
 0001:000a5a90       ?OnSize@CStdDialog@@IAEXIHH@Z 100a6a90 f   StdDialog.obj
 0001:000a5cb0       ?OnTimer@CStdDialog@@IAEXI@Z 100a6cb0 f   StdDialog.obj
 0001:000a6180       ?OnToolStateChanged@CMChartInterface061115@@MAEHW4TOOLOPTION@CToolOptionInfo@@H@Z 100a7180 f i StdDialog.obj
 0001:000a6190       ?OnToolStateChanged@CStdDialog@@UAEHW4TOOLOPTION@CToolOptionInfo@@H@Z 100a7190 f   StdDialog.obj
 0001:000a61a0       ?OnUserInfo@CStdDialog@@IAEJIJ@Z 100a71a0 f   StdDialog.obj
 0001:000a61e0       ?OnUserZoomChanged@CMChartInterface061115@@MAEHH@Z 100a71e0 f i StdDialog.obj
 0001:000a61f0       ?OnUserZoomChanged@CStdDialog@@UAEHH@Z 100a71f0 f   StdDialog.obj
 0001:000a6220       ?OnWmSplitterMoved@CStdDialog@@IAEJIJ@Z 100a7220 f   StdDialog.obj
 0001:000a6390       ?OpenScreen@CStdDialog@@QAEXPAD@Z 100a7390 f   StdDialog.obj
 0001:000a63c0       ?Parser@@YA?AV?$CStringT@DV?$StrTraitMFC_DLL@DV?$ChTraitsCRT@D@ATL@@@@@ATL@@PBDPAH@Z 100a73c0 f   StdDialog.obj
 0001:000a64b0       ?Platform_Initialize@CStdDialog@@MAEXJJJPAVCStringList@@@Z 100a74b0 f   StdDialog.obj
 0001:000a64c0       ?Platform_OnSize@CStdDialog@@MAEXIHH@Z 100a74c0 f   StdDialog.obj
 0001:000a64d0       ?Platform_PreTranslateMessage@CStdDialog@@MAEJPAUtagMSG@@@Z 100a74d0 f   StdDialog.obj
 0001:000a64f0       ?Platform_WindowProc@CStdDialog@@MAEJIIJAAH@Z 100a74f0 f   StdDialog.obj
 0001:000a6500       ?PreTranslateMessage@CStdDialog@@UAEHPAUtagMSG@@@Z 100a7500 f   StdDialog.obj
 0001:000a66b0       ?ReceiveData@CStdDialog@@UAEJJPBD00PAXJ@Z 100a76b0 f   StdDialog.obj
 0001:000a70f0       ?ReceiveMessage@CStdDialog@@UAEJJPBD00@Z 100a80f0 f   StdDialog.obj
 0001:000a7200       ?ReceiveNoticeData@IPartnerSite@@UAGJPBDJ@Z 100a8200 f i StdDialog.obj
 0001:000a7210       ?ReceiveRealData@CStdDialog@@UAEJGPBDPAX@Z 100a8210 f   StdDialog.obj
 0001:000a7220       ?RecieveError@CStdDialog@@QAEJHPBD@Z 100a8220 f   StdDialog.obj
 0001:000a7240       ?Recv_ReplayRealData@CStdDialog@@QAEXPAXH@Z 100a8240 f   StdDialog.obj
 0001:000a7250       ?RemoveAll@?$CList@JJ@@QAEXXZ 100a8250 f i StdDialog.obj
 0001:000a7280       ?RemoveAll@?$CList@P6AXXZP6AXXZ@@QAEXXZ 100a8280 f i StdDialog.obj
 0001:000a72b0       ?RemoveAll@?$CList@PAUSTSENDDATAQUE@@PAU1@@@QAEXXZ 100a82b0 f i StdDialog.obj
 0001:000a72e0       ?RemoveAll@?$CList@UST_CODEDATA@@U1@@@QAEXXZ 100a82e0 f i StdDialog.obj
 0001:000a7330       ?RemoveAll@?$CList@UST_GSHAREDFORMAT@@U1@@@QAEXXZ 100a8330 f i StdDialog.obj
 0001:000a7390       ?RemoveAll@?$CList@UST_LSHAREDFORMAT@@U1@@@QAEXXZ 100a8390 f i StdDialog.obj
 0001:000a73f0       ?RemoveAt@?$CArray@USTTRINFO@@U1@@@QAEXHH@Z 100a83f0 f i StdDialog.obj
 0001:000a74e0       ?RemoveAt@?$CList@UST_CODEDATA@@U1@@@QAEXPAU__POSITION@@@Z 100a84e0 f i StdDialog.obj
 0001:000a7540       ?RemoveDrdsFromCode@CStdDialog@@QAEXPAV?$CList@UST_CODEDATA@@U1@@@V?$CStringT@DV?$StrTraitMFC_DLL@DV?$ChTraitsCRT@D@ATL@@@@@ATL@@@Z 100a8540 f   StdDialog.obj
 0001:000a7730       ?RemoveHead@?$CList@JJ@@QAEJXZ 100a8730 f i StdDialog.obj
 0001:000a77a0       ?RemoveHead@?$CList@PAUSTSENDDATAQUE@@PAU1@@@QAEPAUSTSENDDATAQUE@@XZ 100a87a0 f i StdDialog.obj
 0001:000a7810       ?RequestAccountData@CStdDialog@@QAEXPBD0H@Z 100a8810 f   StdDialog.obj
 0001:000a7820       ?RequestAvgUnitPrice@CStdDialog@@QAEXXZ 100a8820 f   StdDialog.obj
 0001:000a7990       ?RequestCondUnitPrice@CStdDialog@@QAEXXZ 100a8990 f   StdDialog.obj
 0001:000a7c80       ?RequestDollarData@CStdDialog@@QAEXXZ 100a8c80 f   StdDialog.obj
 0001:000a7dc0       ?RequestMstCode@CStdDialog@@QAEXXZ 100a8dc0 f   StdDialog.obj
 0001:000a7f70       ?RequestTRPacket@COutsideCommonInterface@@MAEXFQBDF_N@Z 100a8f70 f i StdDialog.obj
 0001:000a7f80       ?RequestTRPacket@CStdDialog@@UAEXFQBDF_N@Z 100a8f80 f   StdDialog.obj
 0001:000a7fb0       ?RequestWorkDate@CStdDialog@@QAEXXZ 100a8fb0 f   StdDialog.obj
 0001:000a7fc0       ?Request_Disconnect_StockRealHogaData@CStdDialog@@QAEXV?$CStringT@DV?$StrTraitMFC_DLL@DV?$ChTraitsCRT@D@ATL@@@@@ATL@@@Z 100a8fc0 f   StdDialog.obj
 0001:000a8070       ?Request_StockHogaData@CStdDialog@@QAEXV?$CStringT@DV?$StrTraitMFC_DLL@DV?$ChTraitsCRT@D@ATL@@@@@ATL@@@Z 100a9070 f   StdDialog.obj
 0001:000a8280       ?Request_StockRealHogaData@CStdDialog@@QAEXV?$CStringT@DV?$StrTraitMFC_DLL@DV?$ChTraitsCRT@D@ATL@@@@@ATL@@@Z 100a9280 f   StdDialog.obj
 0001:000a8300       ?ResetChartData@CStdDialog@@QAEXXZ 100a9300 f   StdDialog.obj
 0001:000a8320       ?Resize@CStdDialog@@QAEXXZ 100a9320 f   StdDialog.obj
 0001:000a87c0       ?RqstTRForReplay@CStdDialog@@QAEXXZ 100a97c0 f   StdDialog.obj
 0001:000a8890       ?RunReplay@CStdDialog@@QAEHHPAUREPLAY_INFO@@@Z 100a9890 f   StdDialog.obj
 0001:000a8a30       ?SaveChart@CStdDialog@@QAEXXZ 100a9a30 f   StdDialog.obj
 0001:000a8aa0       ?SaveShowInfo@CStdDialog@@QAEXXZ 100a9aa0 f   StdDialog.obj
 0001:000a8c00       ?Send2Server@CStdDialog@@AAEHPBD0HHH@Z 100a9c00 f   StdDialog.obj
 0001:000a9490       ?SendLastData@CStdDialog@@QAEXXZ 100aa490 f   StdDialog.obj
 0001:000a9620       ?SendNextData@CStdDialog@@QAEXXZ 100aa620 f   StdDialog.obj
 0001:000a97d0       ?Serialize@?$CArray@PAUHWND__@@PAU1@@@UAEXAAVCArchive@@@Z 100aa7d0 f i StdDialog.obj
 0001:000a98b0       ?Serialize@?$CArray@USTTRINFO@@U1@@@UAEXAAVCArchive@@@Z 100aa8b0 f i StdDialog.obj
 0001:000a9990       ?Serialize@?$CList@JJ@@UAEXAAVCArchive@@@Z 100aa990 f i StdDialog.obj
 0001:000a9b20       ?Serialize@?$CList@P6AXXZP6AXXZ@@UAEXAAVCArchive@@@Z 100aab20 f i StdDialog.obj
 0001:000a9d30       ?Serialize@?$CList@PAUSTSENDDATAQUE@@PAU1@@@UAEXAAVCArchive@@@Z 100aad30 f i StdDialog.obj
 0001:000a9ec0       ?Serialize@?$CList@UST_GSHAREDFORMAT@@U1@@@UAEXAAVCArchive@@@Z 100aaec0 f i StdDialog.obj
 0001:000aa1b0       ?Serialize@?$CList@UST_LSHAREDFORMAT@@U1@@@UAEXAAVCArchive@@@Z 100ab1b0 f i StdDialog.obj
 0001:000aa4a0       ?SetAtGrow@?$CArray@USTTRINFO@@U1@@@QAEXHUSTTRINFO@@@Z 100ab4a0 f i StdDialog.obj
 0001:000aa530       ?SetAutoSaveToOutside@CMChartInterface@@MAE_N_N@Z 100ab530 f i StdDialog.obj
 0001:000aa540       ?SetAutoSaveToOutside@CStdDialog@@UAE_N_N@Z 100ab540 f   StdDialog.obj
 0001:000aa560       ?SetBReplayMode@CStdDialog@@QAEXH@Z 100ab560 f   StdDialog.obj
 0001:000aa590       ?SetChartBySystemTrading@CStdDialog@@QAEXH@Z 100ab590 f   StdDialog.obj
 0001:000aa860       ?SetComma@@YA?AV?$CStringT@DV?$StrTraitMFC_DLL@DV?$ChTraitsCRT@D@ATL@@@@@ATL@@V12@H@Z 100ab860 f   StdDialog.obj
 0001:000aaac0       ?SetCommonDataInfo@@YAHPAUHWND__@@HH@Z 100abac0 f   StdDialog.obj
 0001:000aab20       ?SetCrossLine@CStdDialog@@QAEX_N@Z 100abb20 f   StdDialog.obj
 0001:000aab50       ?SetDataWindowData@CMChartInterface@@MAEXPAV?$CList@V?$CStringT@DV?$StrTraitMFC_DLL@DV?$ChTraitsCRT@D@ATL@@@@@ATL@@AAV12@@@@Z 100abb50 f i StdDialog.obj
 0001:000aab60       ?SetDataWindowData@CStdDialog@@UAEXPAV?$CList@V?$CStringT@DV?$StrTraitMFC_DLL@DV?$ChTraitsCRT@D@ATL@@@@@ATL@@AAV12@@@@Z 100abb60 f   StdDialog.obj
 0001:000aab70       ?SetDlgToolBtnToggle@CStdDialog@@QAEXHH@Z 100abb70 f   StdDialog.obj
 0001:000aab90       ?SetImaginaryCandleAndGapRevisionToOutside@CMChartInterface@@MAE_N_N0@Z 100abb90 f i StdDialog.obj
 0001:000aaba0       ?SetImaginaryCandleAndGapRevisionToOutside@CStdDialog@@UAE_N_N0@Z 100abba0 f   StdDialog.obj
 0001:000aac20       ?SetInitInfo@CStdDialog@@QAEXXZ 100abc20 f   StdDialog.obj
 0001:000ab0d0       ?SetInquiryDataWindowMoveTypeToOutside@CMChartInterface@@MAE_NH@Z 100ac0d0 f i StdDialog.obj
 0001:000ab0e0       ?SetInquiryDataWindowTypeToOutside@CMChartInterface@@MAE_NH@Z 100ac0e0 f i StdDialog.obj
 0001:000ab0f0       ?SetJongListNext@CStdDialog@@QAEXXZ 100ac0f0 f   StdDialog.obj
 0001:000ab110       ?SetJongListPrev@CStdDialog@@QAEXXZ 100ac110 f   StdDialog.obj
 0001:000ab130       ?SetLeftBarType@CStdDialog@@QAEXI@Z 100ac130 f   StdDialog.obj
 0001:000ab5c0       ?SetOneClickHide@CStdDialog@@QAEXH@Z 100ac5c0 f   StdDialog.obj
 0001:000ab8e0       ?SetPriceLog@CMChartInterface@@MAE_N_N@Z 100ac8e0 f i StdDialog.obj
 0001:000ab8f0       ?SetPriceLog@CStdDialog@@UAE_N_N@Z 100ac8f0 f   StdDialog.obj
 0001:000ab910       ?SetRealInfo@COutsideCommonInterface@@MAEXPAXPAUHWND__@@IPAD22@Z 100ac910 f i StdDialog.obj
 0001:000ab920       ?SetRevisedPriceFlag@CMChartInterface061115@@MAEHH@Z 100ac920 f i StdDialog.obj
 0001:000ab930       ?SetRevisedPriceFlag@CStdDialog@@UAEHH@Z 100ac930 f   StdDialog.obj
 0001:000ab960       ?SetRightMarginToOutside@CMChartInterface@@MAE_NH@Z 100ac960 f i StdDialog.obj
 0001:000ab970       ?SetSaveKey@CStdDialog@@QAEXPBD@Z 100ac970 f   StdDialog.obj
 0001:000abb40       ?SetSelFolder@CStdDialog@@QAEXPBD@Z 100acb40 f   StdDialog.obj
 0001:000abb70       ?SetShowControlLineTextToOutside@CMChartInterface@@MAE_N_N@Z 100acb70 f i StdDialog.obj
 0001:000abb80       ?SetShowCrossLineToOutside@CMChartInterface@@MAE_N_N@Z 100acb80 f i StdDialog.obj
 0001:000abb90       ?SetShowCurrentPriceToOutside@CMChartInterface@@MAE_NH@Z 100acb90 f i StdDialog.obj
 0001:000abba0       ?SetShowExRightDividendToOutside@CMChartInterface@@MAE_N_N@Z 100acba0 f i StdDialog.obj
 0001:000abbb0       ?SetShowExRightDividendToOutside@CStdDialog@@UAE_N_N@Z 100acbb0 f   StdDialog.obj
 0001:000abc00       ?SetShowExtInputBarDlg@CStdDialog@@QAEXH@Z 100acc00 f   StdDialog.obj
 0001:000abc40       ?SetShowHighLowBoundToOutside@CMChartInterface@@MAE_N_N@Z 100acc40 f i StdDialog.obj
 0001:000abc50       ?SetShowHighLowBoundToOutside@CStdDialog@@UAE_N_N@Z 100acc50 f   StdDialog.obj
 0001:000abc70       ?SetShowIndicatorValueToOutside@CMChartInterface@@MAE_N_N@Z 100acc70 f i StdDialog.obj
 0001:000abc80       ?SetShowIndicatorVariableToOutside@CMChartInterface@@MAE_N_N@Z 100acc80 f i StdDialog.obj
 0001:000abc90       ?SetShowPriceLineLeftTextToOutside@CMChartInterface@@MAE_N_N@Z 100acc90 f i StdDialog.obj
 0001:000abca0       ?SetShowPriceLineRightTextToOutside@CMChartInterface@@MAE_N_N@Z 100acca0 f i StdDialog.obj
 0001:000abcb0       ?SetShowQuadrisectionLineTextToOutside@CMChartInterface@@MAE_N_N@Z 100accb0 f i StdDialog.obj
 0001:000abcc0       ?SetShowTimeLineTextToOutside@CMChartInterface@@MAE_N_N@Z 100accc0 f i StdDialog.obj
 0001:000abcd0       ?SetShowTrendLineTextToOutside@CMChartInterface@@MAE_N_N@Z 100accd0 f i StdDialog.obj
 0001:000abce0       ?SetShowTrendLineValueToOutside@CMChartInterface@@MAE_NH@Z 100acce0 f i StdDialog.obj
 0001:000abcf0       ?SetShowTrisectionLineTextToOutside@CMChartInterface@@MAE_N_N@Z 100accf0 f i StdDialog.obj
 0001:000abd00       ?SetSize@?$CArray@PAUHWND__@@PAU1@@@QAEXHH@Z 100acd00 f i StdDialog.obj
 0001:000abee0       ?SetSize@?$CArray@USTTRINFO@@U1@@@QAEXHH@Z 100acee0 f i StdDialog.obj
 0001:000ac1a0       ?SetSmallView@CStdDialog@@QAEXH@Z 100ad1a0 f   StdDialog.obj
 0001:000ac220       ?SetTimeLinkageToOutside@CMChartInterface@@MAE_N_N@Z 100ad220 f i StdDialog.obj
 0001:000ac230       ?SetTimeLinkageToOutside@CStdDialog@@UAE_N_N@Z 100ad230 f   StdDialog.obj
 0001:000ac250       ?SetTimeSyncFlag@CStdDialog@@QAEXH@Z 100ad250 f   StdDialog.obj
 0001:000ac2c0       ?SetTrendLineColorToOutside@CMChartInterface@@MAE_NK@Z 100ad2c0 f i StdDialog.obj
 0001:000ac2d0       ?SetYScalePositionToOutside@CMChartInterface@@MAE_NH@Z 100ad2d0 f i StdDialog.obj
 0001:000ac2e0       ?ShareInitCode@CStdDialog@@QAEXXZ 100ad2e0 f   StdDialog.obj
 0001:000ac2f0       ?ShowDataListView@CStdDialog@@QAEXHVCRect@@@Z 100ad2f0 f   StdDialog.obj
 0001:000ac420       ?StatusChange@CStdDialog@@UAEJH@Z 100ad420 f   StdDialog.obj
 0001:000ac430       ?TrackPopupMenu@CStdDialog@@QAEHXZ 100ad430 f   StdDialog.obj
 0001:000ac440       ?UnLoad_ReplayChart_Lib@CStdDialog@@QAEHXZ 100ad440 f   StdDialog.obj
 0001:000ac490       ?UnSetRealInfo@COutsideCommonInterface@@MAEXPAXPAUHWND__@@IPAD22@Z 100ad490 f i StdDialog.obj
 0001:000ac4a0       ?UpdateSaveKey@CStdDialog@@QAEXV?$CStringT@DV?$StrTraitMFC_DLL@DV?$ChTraitsCRT@D@ATL@@@@@ATL@@@Z 100ad4a0 f   StdDialog.obj
 0001:000ac500       ?WindowProc@CStdDialog@@MAEJIIJ@Z 100ad500 f   StdDialog.obj
 0001:000ad170       ?_DoCheckDaultDataFile@CStdDialog@@QAEXXZ 100ae170 f   StdDialog.obj
 0001:000ad290       ?_DoCopyDefaultToUser@CStdDialog@@QAEXPBD@Z 100ae290 f   StdDialog.obj
 0001:000ad510       ?_DoFirstRequest@CStdDialog@@QAEXXZ 100ae510 f   StdDialog.obj
 0001:000ad6b0       ?_DoMakeUserExtraDir@CStdDialog@@AAEXPBD@Z 100ae6b0 f   StdDialog.obj
 0001:000ad770       ?_DoVersionCheck_ChartDef@CStdDialog@@QAEXXZ 100ae770 f   StdDialog.obj
 0001:000ada90       ?DoSetPartnerSite@CStdDialog@@QAEXPAUIPartnerManager@@@Z 100aea90 f   StdDialogPartnerSite.obj
 0001:000adad0       ?OnRmsgDRUser@CStdDialog@@IAEJIJ@Z 100aead0 f   StdDialogPartnerSite.obj
 0001:000adbe0       ?ReceiveOnUser@CPartnerSite@CStdDialog@@UAGJIJ@Z 100aebe0 f   StdDialogPartnerSite.obj
 0001:000adf20       ?RecieveFidData@CPartnerSite@CStdDialog@@UAGJJPBD00PAXJ@Z 100aef20 f   StdDialogPartnerSite.obj
 0001:000adf60       ?RecieveKeyData@CPartnerSite@CStdDialog@@UAGJHPBD@Z 100aef60 f   StdDialogPartnerSite.obj
 0001:000ae470       ?RecieveRealData@CPartnerSite@CStdDialog@@UAGJJJ@Z 100af470 f   StdDialogPartnerSite.obj
 0001:000ae4b0       ?RecieveRealDataEx@CPartnerSite@CStdDialog@@UAGJJPBDJ@Z 100af4b0 f   StdDialogPartnerSite.obj
 0001:000ae4f0       ?RecieveTRData@CPartnerSite@CStdDialog@@UAGJJPBD00PAXJ@Z 100af4f0 f   StdDialogPartnerSite.obj
 0001:000ae580       ?_DoCheckMetrixScreen@CStdDialog@@QAEXXZ 100af580 f   StdDialogPartnerSite.obj
 0001:000ae6a0       ??0CConfirmWnd@@QAE@XZ     100af6a0 f   STDlgConfirm.obj
 0001:000ae800       ??1CConfirmWnd@@UAE@XZ     100af800 f   STDlgConfirm.obj
 0001:000ae940       ??1CSTOrderRData_EG@@QAE@XZ 100af940 f i STDlgConfirm.obj
 0001:000ae990       ??_GCConfirmWnd@@UAEPAXI@Z 100af990 f i STDlgConfirm.obj
 0001:000ae990       ??_ECConfirmWnd@@UAEPAXI@Z 100af990 f i STDlgConfirm.obj
 0001:000aeb10       ?GetMessageMap@CConfirmWnd@@MBEPBUAFX_MSGMAP@@XZ 100afb10 f   STDlgConfirm.obj
 0001:000aeb20       ?GetThisMessageMap@CConfirmWnd@@KGPBUAFX_MSGMAP@@XZ 100afb20 f   STDlgConfirm.obj
 0001:000aeb30       ?OnDestroy@CConfirmWnd@@IAEXXZ 100afb30 f   STDlgConfirm.obj
 0001:000aeb40       ?OnRmsgReceiveDirect@CConfirmWnd@@IAEJIJ@Z 100afb40 f   STDlgConfirm.obj
 0001:000aef60       ?OpenWindow@CConfirmWnd@@QAEHXZ 100aff60 f   STDlgConfirm.obj
 0001:000af040       ?SendJumun@CConfirmWnd@@QAEHH@Z 100b0040 f   STDlgConfirm.obj
 0001:000af440       ??$SerializeElements@PAVCCallPutIMonthData@@@@YGXAAVCArchive@@PAPAVCCallPutIMonthData@@H@Z 100b0440 f i TabCodeSearch.obj
 0001:000af4f0       ??$SerializeElements@PAVCCallPutItemData@@@@YGXAAVCArchive@@PAPAVCCallPutItemData@@H@Z 100b04f0 f i TabCodeSearch.obj
 0001:000af5a0       ??$SerializeElements@PAVCItemLongData@@@@YGXAAVCArchive@@PAPAVCItemLongData@@H@Z 100b05a0 f i TabCodeSearch.obj
 0001:000af650       ??0?$CList@PAVCCallPutIMonthData@@PAV1@@@QAE@H@Z 100b0650 f i TabCodeSearch.obj
 0001:000af690       ??0?$CList@PAVCCallPutItemData@@PAV1@@@QAE@H@Z 100b0690 f i TabCodeSearch.obj
 0001:000af6d0       ??0?$CList@PAVCItemLongData@@PAV1@@@QAE@H@Z 100b06d0 f i TabCodeSearch.obj
 0001:000af710       ??0CCodeTypeA@@QAE@XZ      100b0710 f i TabCodeSearch.obj
 0001:000af740       ??0CCodeTypeB@@QAE@ABV0@@Z 100b0740 f i TabCodeSearch.obj
 0001:000af820       ??0CTabCodeSearch@@QAE@PAVCWnd@@@Z 100b0820 f   TabCodeSearch.obj
 0001:000afc00       ??1?$CList@PAVCCallPutIMonthData@@PAV1@@@UAE@XZ 100b0c00 f i TabCodeSearch.obj
 0001:000afc70       ??1?$CList@PAVCCallPutItemData@@PAV1@@@UAE@XZ 100b0c70 f i TabCodeSearch.obj
 0001:000afce0       ??1?$CList@PAVCItemLongData@@PAV1@@@UAE@XZ 100b0ce0 f i TabCodeSearch.obj
 0001:000afd50       ??1CCallPutIHelper@@QAE@XZ 100b0d50 f i TabCodeSearch.obj
 0001:000afdd0       ??1CCodeTypeA@@QAE@XZ      100b0dd0 f i TabCodeSearch.obj
 0001:000afdf0       ??1CCodeTypeB@@QAE@XZ      100b0df0 f i TabCodeSearch.obj
 0001:000afe40       ??1CCodeTypeBase@@QAE@XZ   100b0e40 f i TabCodeSearch.obj
 0001:000afe60       ??1CInputCodeList@@QAE@XZ  100b0e60 f i TabCodeSearch.obj
 0001:000afe80       ??1CInputCodeListEx@@QAE@XZ 100b0e80 f i TabCodeSearch.obj
 0001:000afea0       ??1ST_GwanSimGroup@@QAE@XZ 100b0ea0 f i TabCodeSearch.obj
 0001:000afec0       ??_G?$CList@PAVCCallPutIMonthData@@PAV1@@@UAEPAXI@Z 100b0ec0 f i TabCodeSearch.obj
 0001:000afec0       ??_E?$CList@PAVCCallPutIMonthData@@PAV1@@@UAEPAXI@Z 100b0ec0 f i TabCodeSearch.obj
 0001:000aff70       ??_E?$CList@PAVCCallPutItemData@@PAV1@@@UAEPAXI@Z 100b0f70 f i TabCodeSearch.obj
 0001:000aff70       ??_G?$CList@PAVCCallPutItemData@@PAV1@@@UAEPAXI@Z 100b0f70 f i TabCodeSearch.obj
 0001:000b0020       ??_E?$CList@PAVCItemLongData@@PAV1@@@UAEPAXI@Z 100b1020 f i TabCodeSearch.obj
 0001:000b0020       ??_G?$CList@PAVCItemLongData@@PAV1@@@UAEPAXI@Z 100b1020 f i TabCodeSearch.obj
 0001:000b00d0       ??_GCTabCodeSearch@@UAEPAXI@Z 100b10d0 f i TabCodeSearch.obj
 0001:000b00d0       ??_ECTabCodeSearch@@UAEPAXI@Z 100b10d0 f i TabCodeSearch.obj
 0001:000b02d0       ?AddTail@?$CList@PAVCCallPutIMonthData@@PAV1@@@QAEPAU__POSITION@@PAVCCallPutIMonthData@@@Z 100b12d0 f i TabCodeSearch.obj
 0001:000b0360       ?AddTail@?$CList@PAVCCallPutItemData@@PAV1@@@QAEPAU__POSITION@@PAVCCallPutItemData@@@Z 100b1360 f i TabCodeSearch.obj
 0001:000b03f0       ?AddTail@?$CList@PAVCItemLongData@@PAV1@@@QAEPAU__POSITION@@PAVCItemLongData@@@Z 100b13f0 f i TabCodeSearch.obj
 0001:000b0480       ?AdviseMain@CTabCodeSearch@@AAEXH@Z 100b1480 f   TabCodeSearch.obj
 0001:000b0560       ?ApplySelectedCodes@CTabCodeSearch@@QAEXXZ 100b1560 f   TabCodeSearch.obj
 0001:000b06e0       ?ChangeGridRowCol@CTabCodeSearch@@QAEXXZ 100b16e0 f   TabCodeSearch.obj
 0001:000b0770       ?ChangeListOrGridCtrl@CTabCodeSearch@@QAEXV?$CStringT@DV?$StrTraitMFC_DLL@DV?$ChTraitsCRT@D@ATL@@@@@ATL@@@Z 100b1770 f   TabCodeSearch.obj
 0001:000b0860       ?ChangeSkinColor@CTabCodeSearch@@MAEXK@Z 100b1860 f   TabCodeSearch.obj
 0001:000b0920       ?ChangeTreeFolder@CTabCodeSearch@@QAEJV?$CStringT@DV?$StrTraitMFC_DLL@DV?$ChTraitsCRT@D@ATL@@@@@ATL@@PAVCTrTreeCtrl@@JH@Z 100b1920 f   TabCodeSearch.obj
 0001:000b0a60       ?ClearAllTreeSearch@CTabCodeSearch@@AAEXXZ 100b1a60 f   TabCodeSearch.obj
 0001:000b0aa0       ?ClearList@CCallPutIHelper@@QAEXXZ 100b1aa0 f i TabCodeSearch.obj
 0001:000b0c00       ?Convert2@CCodeTypeA@@UAEXPAD@Z 100b1c00 f i TabCodeSearch.obj
 0001:000b0c70       ?Convert2@CCodeTypeB@@UAEXPAD@Z 100b1c70 f i TabCodeSearch.obj
 0001:000b0e00       ?Convert2@CCodeTypeBase@@UAEXPAD@Z 100b1e00 f i TabCodeSearch.obj
 0001:000b0e10       ?Convert@CCodeTypeA@@UAEXPAD@Z 100b1e10 f i TabCodeSearch.obj
 0001:000b0e90       ?Convert@CCodeTypeB@@UAEXPAD@Z 100b1e90 f i TabCodeSearch.obj
 0001:000b0fc0       ?Convert@CCodeTypeBase@@UAEXPAD@Z 100b1fc0 f i TabCodeSearch.obj
 0001:000b0fd0       ?ConvertOneClickData@CCodeTypeA@@UAEXPAD@Z 100b1fd0 f i TabCodeSearch.obj
 0001:000b0fe0       ?ConvertOneClickData@CCodeTypeB@@UAEXPAD@Z 100b1fe0 f i TabCodeSearch.obj
 0001:000b0ff0       ?ConvertOneClickData@CCodeTypeBase@@UAEXPAD@Z 100b1ff0 f i TabCodeSearch.obj
 0001:000b10a0       ?CreateTreeCtrl@CTabCodeSearch@@QAEPAVCTrTreeCtrl@@V?$CStringT@DV?$StrTraitMFC_DLL@DV?$ChTraitsCRT@D@ATL@@@@@ATL@@I@Z 100b20a0 f   TabCodeSearch.obj
 0001:000b1180       ?DeleteChildItem@CTabCodeSearch@@AAEXPAU_TREEITEM@@@Z 100b2180 f   TabCodeSearch.obj
 0001:000b1190       ?DeleteFavoriteChild@CTabCodeSearch@@AAEXXZ 100b2190 f   TabCodeSearch.obj
 0001:000b11a0       ?DoDataExchange@CTabCodeSearch@@MAEXPAVCDataExchange@@@Z 100b21a0 f   TabCodeSearch.obj
 0001:000b1260       ?FreeNode@?$CList@VCCodeTypeA@@V1@@@IAEXPAUCNode@1@@Z 100b2260 f i TabCodeSearch.obj
 0001:000b12a0       ?GetCodeData00410@CTabCodeSearch@@AAEXPAV?$CStringT@DV?$StrTraitMFC_DLL@DV?$ChTraitsCRT@D@ATL@@@@@ATL@@@Z 100b22a0 f   TabCodeSearch.obj
 0001:000b12b0       ?GetCodeData20001@CTabCodeSearch@@AAEXPAV?$CStringT@DV?$StrTraitMFC_DLL@DV?$ChTraitsCRT@D@ATL@@@@@ATL@@@Z 100b22b0 f   TabCodeSearch.obj
 0001:000b12c0       ?GetCodeData20011@CTabCodeSearch@@AAEXPAV?$CStringT@DV?$StrTraitMFC_DLL@DV?$ChTraitsCRT@D@ATL@@@@@ATL@@@Z 100b22c0 f   TabCodeSearch.obj
 0001:000b12d0       ?GetCodeInfo@CTabCodeSearch@@QAEHHAAH0AAV?$CStringT@DV?$StrTraitMFC_DLL@DV?$ChTraitsCRT@D@ATL@@@@@ATL@@@Z 100b22d0 f   TabCodeSearch.obj
 0001:000b1330       ?GetInsertGridDataText@CTabCodeSearch@@QAE?AV?$CStringT@DV?$StrTraitMFC_DLL@DV?$ChTraitsCRT@D@ATL@@@@@ATL@@HH@Z 100b2330 f   TabCodeSearch.obj
 0001:000b13a0       ?GetMessageMap@CTabCodeSearch@@MBEPBUAFX_MSGMAP@@XZ 100b23a0 f   TabCodeSearch.obj
 0001:000b13b0       ?GetRealExercise@CTabCodeSearch@@QAEJH@Z 100b23b0 f   TabCodeSearch.obj
 0001:000b13e0       ?GetRectOfCtrl@CTabCodeSearch@@EAE?AVCRect@@HH@Z 100b23e0 f   TabCodeSearch.obj
 0001:000b1700       ?GetThisMessageMap@CTabCodeSearch@@KGPBUAFX_MSGMAP@@XZ 100b2700 f   TabCodeSearch.obj
 0001:000b1710       ?InitGrid@CTabCodeSearch@@QAEXXZ 100b2710 f   TabCodeSearch.obj
 0001:000b1a20       ?InitGridRowCol@CTabCodeSearch@@QAEXH@Z 100b2a20 f   TabCodeSearch.obj
 0001:000b1ac0       ?InitMasterData@CTabCodeSearch@@QAEXXZ 100b2ac0 f   TabCodeSearch.obj
 0001:000b1ad0       ?InitTreeSearch@CTabCodeSearch@@AAEXXZ 100b2ad0 f   TabCodeSearch.obj
 0001:000b2060       ?Init_Button@CTabCodeSearch@@QAEXXZ 100b3060 f   TabCodeSearch.obj
 0001:000b2180       ?InsertGridData@CTabCodeSearch@@QAEXXZ 100b3180 f   TabCodeSearch.obj
 0001:000b22f0       ?IntRequest@CTabCodeSearch@@AAEXXZ 100b32f0 f   TabCodeSearch.obj
 0001:000b2300       ?IsPlayState@CTabCodeSearch@@QAEHXZ 100b3300 f   TabCodeSearch.obj
 0001:000b2310       ?MakeDrdsConnectAdvise@CTabCodeSearch@@QAEHV?$CStringT@DV?$StrTraitMFC_DLL@DV?$ChTraitsCRT@D@ATL@@@@@ATL@@@Z 100b3310 f   TabCodeSearch.obj
 0001:000b23a0       ?MakeDrdsUnConnectUnAdvise@CTabCodeSearch@@QAEHV?$CStringT@DV?$StrTraitMFC_DLL@DV?$ChTraitsCRT@D@ATL@@@@@ATL@@@Z 100b33a0 f   TabCodeSearch.obj
 0001:000b2430       ?NewNode@?$CList@PAVCCallPutIMonthData@@PAV1@@@IAEPAUCNode@1@PAU21@0@Z 100b3430 f i TabCodeSearch.obj
 0001:000b24a0       ?NewNode@?$CList@PAVCCallPutItemData@@PAV1@@@IAEPAUCNode@1@PAU21@0@Z 100b34a0 f i TabCodeSearch.obj
 0001:000b2510       ?NewNode@?$CList@PAVCItemLongData@@PAV1@@@IAEPAUCNode@1@PAU21@0@Z 100b3510 f i TabCodeSearch.obj
 0001:000b2580       ?OnAddAccountCodeItem@CTabCodeSearch@@QAEJIJ@Z 100b3580 f   TabCodeSearch.obj
 0001:000b2800       ?OnBeginRdragListcode@CTabCodeSearch@@QAEXPAUtagNMHDR@@PAJ@Z 100b3800 f   TabCodeSearch.obj
 0001:000b2830       ?OnBegindragListcode@CTabCodeSearch@@QAEXPAUtagNMHDR@@PAJ@Z 100b3830 f   TabCodeSearch.obj
 0001:000b2860       ?OnBnClickedBtplay@CTabCodeSearch@@IAEXXZ 100b3860 f   TabCodeSearch.obj
 0001:000b2a20       ?OnBtall@CTabCodeSearch@@QAEXXZ 100b3a20 f   TabCodeSearch.obj
 0001:000b2a60       ?OnBtnAddapply@CTabCodeSearch@@QAEXXZ 100b3a60 f   TabCodeSearch.obj
 0001:000b2ba0       ?OnBtnext@CTabCodeSearch@@QAEXXZ 100b3ba0 f   TabCodeSearch.obj
 0001:000b2c10       ?OnBtportfolio@CTabCodeSearch@@QAEXXZ 100b3c10 f   TabCodeSearch.obj
 0001:000b2c20       ?OnBtprev@CTabCodeSearch@@QAEXXZ 100b3c20 f   TabCodeSearch.obj
 0001:000b2c90       ?OnBtregfavor@CTabCodeSearch@@QAEXXZ 100b3c90 f   TabCodeSearch.obj
 0001:000b2ca0       ?OnBtresetocx@CTabCodeSearch@@QAEXXZ 100b3ca0 f   TabCodeSearch.obj
 0001:000b2cc0       ?OnBtsearch@CTabCodeSearch@@QAEXXZ 100b3cc0 f   TabCodeSearch.obj
 0001:000b2cd0       ?OnCheckAvgPrice@CTabCodeSearch@@QAEJIJ@Z 100b3cd0 f   TabCodeSearch.obj
 0001:000b2d70       ?OnChkAvgprice@CTabCodeSearch@@QAEXXZ 100b3d70 f   TabCodeSearch.obj
 0001:000b2ea0       ?OnChkConcprice@CTabCodeSearch@@QAEXXZ 100b3ea0 f   TabCodeSearch.obj
 0001:000b30e0       ?OnClickListcode@CTabCodeSearch@@QAEXPAUtagNMHDR@@PAJ@Z 100b40e0 f   TabCodeSearch.obj
 0001:000b3160       ?OnCtlColor@CTabCodeSearch@@QAEPAUHBRUSH__@@PAVCDC@@PAVCWnd@@I@Z 100b4160 f   TabCodeSearch.obj
 0001:000b31b0       ?OnDblclkListcode@CTabCodeSearch@@QAEXPAUtagNMHDR@@PAJ@Z 100b41b0 f   TabCodeSearch.obj
 0001:000b3230       ?OnDestroy@CTabCodeSearch@@QAEXXZ 100b4230 f   TabCodeSearch.obj
 0001:000b3410       ?OnInitDialog@CTabCodeSearch@@UAEHXZ 100b4410 f   TabCodeSearch.obj
 0001:000b36f0       ?OnIntRequest@CTabCodeSearch@@QAEJIJ@Z 100b46f0 f   TabCodeSearch.obj
 0001:000b3700       ?OnItemchangedListcode@CTabCodeSearch@@QAEXPAUtagNMHDR@@PAJ@Z 100b4700 f   TabCodeSearch.obj
 0001:000b3720       ?OnItemchangingListcode@CTabCodeSearch@@QAEXPAUtagNMHDR@@PAJ@Z 100b4720 f   TabCodeSearch.obj
 0001:000b3730       ?OnLButtonUp@CTabCodeSearch@@QAEXIVCPoint@@@Z 100b4730 f   TabCodeSearch.obj
 0001:000b3a50       ?OnLvnItemchangedListcode@CTabCodeSearch@@IAEXPAUtagNMHDR@@PAJ@Z 100b4a50 f   TabCodeSearch.obj
 0001:000b3a60       ?OnMakeAccountConcData@CTabCodeSearch@@QAEJIJ@Z 100b4a60 f   TabCodeSearch.obj
 0001:000b3db0       ?OnMouseMove@CTabCodeSearch@@QAEXIVCPoint@@@Z 100b4db0 f   TabCodeSearch.obj
 0001:000b3e70       ?OnOutBarNotify@CTabCodeSearch@@IAEJIJ@Z 100b4e70 f   TabCodeSearch.obj
 0001:000b3eb0       ?OnRButtonUp@CTabCodeSearch@@QAEXIVCPoint@@@Z 100b4eb0 f   TabCodeSearch.obj
 0001:000b41d0       ?OnRclickListcode@CTabCodeSearch@@QAEXPAUtagNMHDR@@PAJ@Z 100b51d0 f   TabCodeSearch.obj
 0001:000b4250       ?OnResetAll@CTabCodeSearch@@QAEJIJ@Z 100b5250 f   TabCodeSearch.obj
 0001:000b4260       ?OnResetConcData@CTabCodeSearch@@QAEJIJ@Z 100b5260 f   TabCodeSearch.obj
 0001:000b42b0       ?OnRmsgTabCodeSearch@CTabCodeSearch@@IAEJIJ@Z 100b52b0 f   TabCodeSearch.obj
 0001:000b42d0       ?OnRmsgWMSize@CTabCodeSearch@@IAEJIJ@Z 100b52d0 f   TabCodeSearch.obj
 0001:000b42e0       ?OnSelchangedTreesearch@CTabCodeSearch@@QAEXPAUtagNMHDR@@PAJ@Z 100b52e0 f   TabCodeSearch.obj
 0001:000b42f0       ?OnSize@CTabCodeSearch@@QAEXIHH@Z 100b52f0 f   TabCodeSearch.obj
 0001:000b4310       ?OnTimer@CTabCodeSearch@@QAEXI@Z 100b5310 f   TabCodeSearch.obj
 0001:000b4420       ?OnWmSplitterMoved@CTabCodeSearch@@AAEJIJ@Z 100b5420 f   TabCodeSearch.obj
 0001:000b4450       ?Parsing@CCallPutIHelper@@QAEXPAV?$CList@VCCodeTypeA@@V1@@@H@Z 100b5450 f i TabCodeSearch.obj
 0001:000b4700       ?PreTranslateMessage@CTabCodeSearch@@UAEHPAUtagMSG@@@Z 100b5700 f   TabCodeSearch.obj
 0001:000b4710       ?RecalcLayout@CTabCodeSearch@@AAEXXZ 100b5710 f   TabCodeSearch.obj
 0001:000b4800       ?ReceiveData@CMyITrCommSite@CTabCodeSearch@@UAGJJPBD00PAXJ@Z 100b5800 f i TabCodeSearch.obj
 0001:000b4830       ?ReceiveData@CTLMCallback@CTabCodeSearch@@UAGXHDJHPAX@Z 100b5830 f   TabCodeSearch.obj
 0001:000b4e80       ?ReceiveData@CTabCodeSearch@@AAEXPBDPAXK@Z 100b5e80 f   TabCodeSearch.obj
 0001:000b4f90       ?ReceiveData@CTabDlg@@UAEXPAUHWND__@@PBD11PAXJ@Z 100b5f90 f i TabCodeSearch.obj
 0001:000b4fa0       ?ReceiveDataFromOutSide@CTabCodeSearch@@UAEXXZ 100b5fa0 f   TabCodeSearch.obj
 0001:000b5000       ?ReceiveMessage@CMyITrCommSite@CTabCodeSearch@@UAGJJPBD00@Z 100b6000 f i TabCodeSearch.obj
 0001:000b5010       ?ReceiveRealData@CMyITrCommSite@CTabCodeSearch@@UAGJGPBDPAX@Z 100b6010 f i TabCodeSearch.obj
 0001:000b5060       ?ReceiveRealData@CTLMCallback@CTabCodeSearch@@UAGJGPBDPAX@Z 100b6060 f   TabCodeSearch.obj
 0001:000b5100       ?RemoveAll@?$CList@PAVCCallPutIMonthData@@PAV1@@@QAEXXZ 100b6100 f i TabCodeSearch.obj
 0001:000b5130       ?RemoveAll@?$CList@PAVCCallPutItemData@@PAV1@@@QAEXXZ 100b6130 f i TabCodeSearch.obj
 0001:000b5160       ?RemoveAll@?$CList@PAVCItemLongData@@PAV1@@@QAEXXZ 100b6160 f i TabCodeSearch.obj
 0001:000b5190       ?RemoveAll@?$CList@VCCodeTypeA@@V1@@@QAEXXZ 100b6190 f i TabCodeSearch.obj
 0001:000b51f0       ?RemoveAllTree@CTabCodeSearch@@QAEXXZ 100b61f0 f   TabCodeSearch.obj
 0001:000b5260       ?RemoveAt@?$CList@VCCodeTypeA@@V1@@@QAEXPAU__POSITION@@@Z 100b6260 f i TabCodeSearch.obj
 0001:000b52c0       ?RequestCurrentPrice@CTabCodeSearch@@AAEXPBDJ@Z 100b62c0 f   TabCodeSearch.obj
 0001:000b5350       ?RequestJongmokCodesInList@CTabCodeSearch@@AAEXPAU_TREEITEM@@@Z 100b6350 f   TabCodeSearch.obj
 0001:000b5360       ?RequestMstCode@CTabCodeSearch@@QAEXPBDJ@Z 100b6360 f   TabCodeSearch.obj
 0001:000b5400       ?RequestSavedQuery@CTabCodeSearch@@AAEXXZ 100b6400 f   TabCodeSearch.obj
 0001:000b5410       ?RunAutoTimer@CTabCodeSearch@@QAEXXZ 100b6410 f   TabCodeSearch.obj
 0001:000b5500       ?Serialize@?$CList@PAVCCallPutIMonthData@@PAV1@@@UAEXAAVCArchive@@@Z 100b6500 f i TabCodeSearch.obj
 0001:000b5690       ?Serialize@?$CList@PAVCCallPutItemData@@PAV1@@@UAEXAAVCArchive@@@Z 100b6690 f i TabCodeSearch.obj
 0001:000b5820       ?Serialize@?$CList@PAVCItemLongData@@PAV1@@@UAEXAAVCArchive@@@Z 100b6820 f i TabCodeSearch.obj
 0001:000b5a30       ?SetAccountInfo@CTabCodeSearch@@AAEXPBD@Z 100b6a30 f   TabCodeSearch.obj
 0001:000b5a40       ?SetConfig@CTabCodeSearch@@AAEXH@Z 100b6a40 f   TabCodeSearch.obj
 0001:000b5c40       ?SetMasterData@CTabCodeSearch@@QAEXPAV?$CList@VCCodeTypeA@@V1@@@@Z 100b6c40 f   TabCodeSearch.obj
 0001:000b5f30       ?SetRealPriceData@CTabCodeSearch@@UAEXPAX@Z 100b6f30 f   TabCodeSearch.obj
 0001:000b5f40       ?SetSelFolder@CTabCodeSearch@@QAEHPBD@Z 100b6f40 f   TabCodeSearch.obj
 0001:000b5f50       ?SetTimerInfo@CTabCodeSearch@@AAEXH@Z 100b6f50 f   TabCodeSearch.obj
 0001:000b6020       ?ShowAccountOperator@CTabCodeSearch@@QAEXH@Z 100b7020 f   TabCodeSearch.obj
 0001:000b60a0       ?StatusChange@CMyITrCommSite@CTabCodeSearch@@UAGJH@Z 100b70a0 f i TabCodeSearch.obj
 0001:000b60b0       ?THREAD_PROCEEDSELECTTREE@@YAIPAX@Z 100b70b0 f   TabCodeSearch.obj
 0001:000b60d0       ?UpdateItemSise@CTabCodeSearch@@AAEXD@Z 100b70d0 f   TabCodeSearch.obj
 0001:000b60e0       ?UpdateTreeSearch@CTabCodeSearch@@AAEXXZ 100b70e0 f   TabCodeSearch.obj
 0001:000b6100       ?WindowProc@CTabCodeSearch@@MAEJIIJ@Z 100b7100 f   TabCodeSearch.obj
 0001:000b6680       ?_DoFilterStockCode@CTLMCallback@CTabCodeSearch@@QAEHPAV?$CList@VCCodeTypeA@@V1@@@@Z 100b7680 f   TabCodeSearch.obj
 0001:000b67b0       ?fnDataToList@CCallPutIMonthData@@QAEHPAUST_OPTION_ITEM_DATA@@@Z 100b77b0 f i TabCodeSearch.obj
 0001:000b68d0       ?fnFolderChange@CTabCodeSearch@@QAEXHH@Z 100b78d0 f   TabCodeSearch.obj
 0001:000b6ae0       ??$SerializeElements@VCCodeTypeA@@@@YGXAAVCArchive@@PAVCCodeTypeA@@H@Z 100b7ae0 f i TabCodeSearchWinix.obj
 0001:000b6b80       ??0?$CList@VCCodeTypeA@@V1@@@QAE@H@Z 100b7b80 f i TabCodeSearchWinix.obj
 0001:000b6bc0       ??1?$CList@VCCodeTypeA@@V1@@@UAE@XZ 100b7bc0 f i TabCodeSearchWinix.obj
 0001:000b6c50       ??1CINT_GROUP_ST@@QAE@XZ   100b7c50 f i TabCodeSearchWinix.obj
 0001:000b6c80       ??1CINT_ITEM_ST@@QAE@XZ    100b7c80 f i TabCodeSearchWinix.obj
 0001:000b6cd0       ??_E?$CList@VCCodeTypeA@@V1@@@UAEPAXI@Z 100b7cd0 f i TabCodeSearchWinix.obj
 0001:000b6cd0       ??_G?$CList@VCCodeTypeA@@V1@@@UAEPAXI@Z 100b7cd0 f i TabCodeSearchWinix.obj
 0001:000b6d10       ?AddTail@?$CList@VCCodeTypeA@@V1@@@QAEPAU__POSITION@@VCCodeTypeA@@@Z 100b7d10 f i TabCodeSearchWinix.obj
 0001:000b6e20       ?DoClearItemLongDataList@CTabCodeSearch@@IAEXXZ 100b7e20 f   TabCodeSearchWinix.obj
 0001:000b6ec0       ?DoDeleteTreeItem@CTabCodeSearch@@IAEXPAVCTreeCtrl@@AAV?$CStringT@DV?$StrTraitMFC_DLL@DV?$ChTraitsCRT@D@ATL@@@@@ATL@@@Z 100b7ec0 f   TabCodeSearchWinix.obj
 0001:000b6fa0       ?NewNode@?$CList@VCCodeTypeA@@V1@@@IAEPAUCNode@1@PAU21@0@Z 100b7fa0 f i TabCodeSearchWinix.obj
 0001:000b7030       ?OnWinixNotifyGroup@CTabCodeSearch@@IAEJIJ@Z 100b8030 f   TabCodeSearchWinix.obj
 0001:000b7300       ?OnWinixNotifyGroupList@CTabCodeSearch@@IAEJIJ@Z 100b8300 f   TabCodeSearchWinix.obj
 0001:000b7310       ?OnWinixNotifyLoad@CTabCodeSearch@@IAEJIJ@Z 100b8310 f   TabCodeSearchWinix.obj
 0001:000b7320       ?OnWinixNotifySave@CTabCodeSearch@@IAEJIJ@Z 100b8320 f   TabCodeSearchWinix.obj
 0001:000b7800       ?OnWinixNotifySaveCode@CTabCodeSearch@@IAEJIJ@Z 100b8800 f   TabCodeSearchWinix.obj
 0001:000b7810       ?Serialize@?$CList@VCCodeTypeA@@V1@@@UAEXAAVCArchive@@@Z 100b8810 f i TabCodeSearchWinix.obj
 0001:000b7a40       ??0CTabDlg@@QAE@IPAVCWnd@@@Z 100b8a40 f   TabDlg.obj
 0001:000b7ad0       ??1CTabDlg@@UAE@XZ         100b8ad0 f   TabDlg.obj
 0001:000b7b00       ??_GCTabDlg@@UAEPAXI@Z     100b8b00 f i TabDlg.obj
 0001:000b7b00       ??_ECTabDlg@@UAEPAXI@Z     100b8b00 f i TabDlg.obj
 0001:000b7b60       ?ChangeSkinColor@CTabDlg@@UAEXK@Z 100b8b60 f i TabDlg.obj
 0001:000b7b70       ?DoDataExchange@CTabDlg@@MAEXPAVCDataExchange@@@Z 100b8b70 f   TabDlg.obj
 0001:000b7b80       ?GetMessageMap@CTabDlg@@MBEPBUAFX_MSGMAP@@XZ 100b8b80 f   TabDlg.obj
 0001:000b7b90       ?GetRectOfCtrl@CTabDlg@@MAE?AVCRect@@HH@Z 100b8b90 f i TabDlg.obj
 0001:000b7bc0       ?GetThisMessageMap@CTabDlg@@KGPBUAFX_MSGMAP@@XZ 100b8bc0 f   TabDlg.obj
 0001:000b7bd0       ?OnCtlColor@CTabDlg@@IAEPAUHBRUSH__@@PAVCDC@@PAVCWnd@@I@Z 100b8bd0 f   TabDlg.obj
 0001:000b7c10       ?OnDestroy@CTabDlg@@IAEXXZ 100b8c10 f   TabDlg.obj
 0001:000b7c30       ?OnEraseBkgnd@CTabDlg@@IAEHPAVCDC@@@Z 100b8c30 f   TabDlg.obj
 0001:000b7c40       ?OnInitDialog@CTabDlg@@MAEHXZ 100b8c40 f   TabDlg.obj
 0001:000b7cd0       ?OnPaint@CTabDlg@@IAEXXZ   100b8cd0 f   TabDlg.obj
 0001:000b7e30       ?PreTranslateMessage@CTabDlg@@UAEHPAUtagMSG@@@Z 100b8e30 f   TabDlg.obj
 0001:000b7e90       ?RecalcLayoutCtrl@CTabDlg@@IAEXAAVCWnd@@H@Z 100b8e90 f   TabDlg.obj
 0001:000b7f00       ?ReceiveDataFromOutSide@CTabDlg@@UAEXXZ 100b8f00 f i TabDlg.obj
 0001:000b7f10       ?SetRealPriceData@CTabDlg@@UAEXPAX@Z 100b8f10 f i TabDlg.obj
 0001:000b7f20       ??0CTabDlgCreator@@QAE@XZ  100b8f20 f   TabDlgCreator.obj
 0001:000b7f50       ??1CTabDlgCreator@@UAE@XZ  100b8f50 f   TabDlgCreator.obj
 0001:000b7f60       ??_ECTabDlgCreator@@UAEPAXI@Z 100b8f60 f i TabDlgCreator.obj
 0001:000b7f60       ??_GCTabDlgCreator@@UAEPAXI@Z 100b8f60 f i TabDlgCreator.obj
 0001:000b7f90       ?CreateTabDlg@CTabDlgCreator@@QAEPAVCTabDlg@@I@Z 100b8f90 f   TabDlgCreator.obj
 0001:000b8130       ?GetCaptionOfTabDlg@CTabDlgCreator@@QAEXIPAD@Z 100b9130 f   TabDlgCreator.obj
 0001:000b8190       ?GetCntOfTabDlg@CTabDlgCreator@@QAEHXZ 100b9190 f   TabDlgCreator.obj
 0001:000b81a0       ?Init@CTabDlgCreator@@QAEXPAVCWnd@@PAVCLeftBarDlg@@PAVCTabCtrl@@0@Z 100b91a0 f   TabDlgCreator.obj
 0001:000b81c0       ??$SerializeElements@PAVCTrTreeCtrl@@@@YGXAAVCArchive@@PAPAVCTrTreeCtrl@@H@Z 100b91c0 f i TabIndices.obj
 0001:000b8270       ??0?$CList@PAVCTrTreeCtrl@@PAV1@@@QAE@H@Z 100b9270 f i TabIndices.obj
 0001:000b82b0       ??0CTabIndices@@QAE@PAVCWnd@@@Z 100b92b0 f   TabIndices.obj
 0001:000b8600       ??1?$CList@PAVCTrTreeCtrl@@PAV1@@@UAE@XZ 100b9600 f i TabIndices.obj
 0001:000b8670       ??1CTabIndices@@UAE@XZ     100b9670 f i TabIndices.obj
 0001:000b8860       ??_G?$CList@PAVCTrTreeCtrl@@PAV1@@@UAEPAXI@Z 100b9860 f i TabIndices.obj
 0001:000b8860       ??_E?$CList@PAVCTrTreeCtrl@@PAV1@@@UAEPAXI@Z 100b9860 f i TabIndices.obj
 0001:000b8910       ??_ECTabIndices@@UAEPAXI@Z 100b9910 f i TabIndices.obj
 0001:000b8910       ??_GCTabIndices@@UAEPAXI@Z 100b9910 f i TabIndices.obj
 0001:000b8950       ?AddTail@?$CList@PAVCTrTreeCtrl@@PAV1@@@QAEPAU__POSITION@@PAVCTrTreeCtrl@@@Z 100b9950 f i TabIndices.obj
 0001:000b89e0       ?ChangeSkinColor@CTabIndices@@UAEXK@Z 100b99e0 f   TabIndices.obj
 0001:000b8ab0       ?ClearCheckJipyoList@CTabIndices@@QAEXXZ 100b9ab0 f   TabIndices.obj
 0001:000b8b50       ?DeleteAllItems@CTreeCtrl@@QAEHXZ 100b9b50 f i TabIndices.obj
 0001:000b8b70       ?DoDataExchange@CTabIndices@@MAEXPAVCDataExchange@@@Z 100b9b70 f   TabIndices.obj
 0001:000b8cd0       ?FindIndex@?$CList@PAVCTrTreeCtrl@@PAV1@@@QBEPAU__POSITION@@H@Z 100b9cd0 f i TabIndices.obj
 0001:000b8d00       ?GetFindItemList@CTabIndices@@QAEXHV?$CStringT@DV?$StrTraitMFC_DLL@DV?$ChTraitsCRT@D@ATL@@@@@ATL@@AAVCStringArray@@@Z 100b9d00 f   TabIndices.obj
 0001:000b8f70       ?GetMessageMap@CTabIndices@@MBEPBUAFX_MSGMAP@@XZ 100b9f70 f   TabIndices.obj
 0001:000b8f90       ?GetRectOfCtrl@CTabIndices@@EAE?AVCRect@@HH@Z 100b9f90 f   TabIndices.obj
 0001:000b9420       ?GetThisMessageMap@CTabIndices@@KGPBUAFX_MSGMAP@@XZ 100ba420 f   TabIndices.obj
 0001:000b9430       ?Init_Button@CTabIndices@@QAEXXZ 100ba430 f   TabIndices.obj
 0001:000b94f0       ?LookUpStartIndex@CTabIndices@@QAEHH@Z 100ba4f0 f   TabIndices.obj
 0001:000b9670       ?MakeCheckedJipyoList@CTabIndices@@QAEXXZ 100ba670 f   TabIndices.obj
 0001:000b97d0       ?Move_Selected_JipyoItem@CTabIndices@@QAEXH@Z 100ba7d0 f   TabIndices.obj
 0001:000b97e0       ?NewNode@?$CList@PAVCTrTreeCtrl@@PAV1@@@IAEPAUCNode@1@PAU21@0@Z 100ba7e0 f i TabIndices.obj
 0001:000b9850       ?OnBegindragListitems@CTabIndices@@IAEXPAUtagNMHDR@@PAJ@Z 100ba850 f   TabIndices.obj
 0001:000b9880       ?OnBegindragTreeitems@CTabIndices@@IAEXPAUtagNMHDR@@PAJ@Z 100ba880 f   TabIndices.obj
 0001:000b98d0       ?OnBnClickedBtnExtend@CTabIndices@@IAEXXZ 100ba8d0 f   TabIndices.obj
 0001:000b9970       ?OnBnClickedBtnFind@CTabIndices@@IAEXXZ 100ba970 f   TabIndices.obj
 0001:000b9b60       ?OnBtapply@CTabIndices@@IAEXXZ 100bab60 f   TabIndices.obj
 0001:000b9db0       ?OnBtnAdditem@CTabIndices@@IAEXXZ 100badb0 f   TabIndices.obj
 0001:000b9ee0       ?OnBtnDelitem@CTabIndices@@IAEXXZ 100baee0 f   TabIndices.obj
 0001:000b9f60       ?OnBtnNext@CTabIndices@@IAEXXZ 100baf60 f   TabIndices.obj
 0001:000b9f70       ?OnBtnPrev@CTabIndices@@IAEXXZ 100baf70 f   TabIndices.obj
 0001:000b9f80       ?OnBtnShowRepeat@CTabIndices@@IAEXXZ 100baf80 f   TabIndices.obj
 0001:000ba0b0       ?OnBtnStop@CTabIndices@@IAEXXZ 100bb0b0 f   TabIndices.obj
 0001:000ba150       ?OnBtsearch@CTabIndices@@IAEXXZ 100bb150 f   TabIndices.obj
 0001:000ba4a0       ?OnChangeEditFind@CTabIndices@@IAEXXZ 100bb4a0 f   TabIndices.obj
 0001:000ba4b0       ?OnDblclkListitems@CTabIndices@@IAEXPAUtagNMHDR@@PAJ@Z 100bb4b0 f   TabIndices.obj
 0001:000ba4c0       ?OnDblclkTreeitems@CTabIndices@@IAEXPAUtagNMHDR@@PAJ@Z 100bb4c0 f   TabIndices.obj
 0001:000ba4e0       ?OnDestroy@CTabIndices@@IAEXXZ 100bb4e0 f   TabIndices.obj
 0001:000ba640       ?OnInitDialog@CTabIndices@@MAEHXZ 100bb640 f   TabIndices.obj
 0001:000ba920       ?OnKillFocus@CTabIndices@@IAEXPAVCWnd@@@Z 100bb920 f   TabIndices.obj
 0001:000ba940       ?OnLButtonUp@CTabIndices@@IAEXIVCPoint@@@Z 100bb940 f   TabIndices.obj
 0001:000baa60       ?OnLbnSelchangeListFind@CTabIndices@@IAEXXZ 100bba60 f   TabIndices.obj
 0001:000bab50       ?OnMouseMove@CTabIndices@@IAEXIVCPoint@@@Z 100bbb50 f   TabIndices.obj
 0001:000babe0       ?OnRadioAuto@CTabIndices@@IAEXXZ 100bbbe0 f   TabIndices.obj
 0001:000babf0       ?OnRadioManual@CTabIndices@@IAEXXZ 100bbbf0 f   TabIndices.obj
 0001:000bac00       ?OnRmsgWMSize@CTabIndices@@IAEJIJ@Z 100bbc00 f   TabIndices.obj
 0001:000bac10       ?OnSelchangeCmbTime@CTabIndices@@IAEXXZ 100bbc10 f   TabIndices.obj
 0001:000bac20       ?OnSendMenu@CTabIndices@@IAEXI@Z 100bbc20 f   TabIndices.obj
 0001:000bac50       ?OnSize@CTabIndices@@IAEXIHH@Z 100bbc50 f   TabIndices.obj
 0001:000bac70       ?OnTimer@CTabIndices@@IAEXI@Z 100bbc70 f   TabIndices.obj
 0001:000bac90       ?OnWmSplitterMoved@CTabIndices@@AAEJIJ@Z 100bbc90 f   TabIndices.obj
 0001:000bacc0       ?PreTranslateMessage@CTabIndices@@MAEHPAUtagMSG@@@Z 100bbcc0 f   TabIndices.obj
 0001:000bad00       ?RecalcLayout@CTabIndices@@AAEXXZ 100bbd00 f   TabIndices.obj
 0001:000baea0       ?RefreshIndex@CTabIndices@@AAEXXZ 100bbea0 f   TabIndices.obj
 0001:000bafc0       ?RemoveAll@?$CList@PAVCTrTreeCtrl@@PAV1@@@QAEXXZ 100bbfc0 f i TabIndices.obj
 0001:000baff0       ?RemoveAllTree@CTabIndices@@AAEXXZ 100bbff0 f   TabIndices.obj
 0001:000bb060       ?Serialize@?$CList@PAVCTrTreeCtrl@@PAV1@@@UAEXAAVCArchive@@@Z 100bc060 f i TabIndices.obj
 0001:000bb1f0       ?SetConfig@CTabIndices@@AAEXH@Z 100bc1f0 f   TabIndices.obj
 0001:000bb340       ?SetItemForm@CTabIndices@@AAEXXZ 100bc340 f   TabIndices.obj
 0001:000bb900       ?SetMarketIndicator@CTabIndices@@AAEXXZ 100bc900 f   TabIndices.obj
 0001:000bb910       ?SetTechnicalIndicator@CTabIndices@@AAEXXZ 100bc910 f   TabIndices.obj
 0001:000bb950       ?SetUpjongDataTree@CTabIndices@@AAEXXZ 100bc950 f   TabIndices.obj
 0001:000bba00       ?WindowProc@CTabIndices@@MAEJIIJ@Z 100bca00 f   TabIndices.obj
 0001:000bbd60       ??$CompareElements@PAVCConfirmWnd@@PAV1@@@YGHPBQAVCConfirmWnd@@0@Z 100bcd60 f i TabSystemTradingEx.obj
 0001:000bbd90       ??$SerializeElements@PAVCConfirmWnd@@@@YGXAAVCArchive@@PAPAVCConfirmWnd@@H@Z 100bcd90 f i TabSystemTradingEx.obj
 0001:000bbe40       ??0?$CMap@PAVCConfirmWnd@@PAV1@JJ@@QAE@H@Z 100bce40 f i TabSystemTradingEx.obj
 0001:000bbe80       ??0CSTAnalysisInput@CTabSystemTradingEx@@QAE@XZ 100bce80 f   TabSystemTradingEx.obj
 0001:000bbee0       ??0CTabSystemTradingEx@@QAE@PAVCWnd@@@Z 100bcee0 f   TabSystemTradingEx.obj
 0001:000bc1e0       ??1?$CMap@PAVCConfirmWnd@@PAV1@JJ@@UAE@XZ 100bd1e0 f i TabSystemTradingEx.obj
 0001:000bc260       ??1CSTAnalysisInput@CTabSystemTradingEx@@QAE@XZ 100bd260 f i TabSystemTradingEx.obj
 0001:000bc2a0       ??1CTabSystemTradingEx@@UAE@XZ 100bd2a0 f   TabSystemTradingEx.obj
 0001:000bc4c0       ??1STMNG_ITEMINFO@@QAE@XZ  100bd4c0 f i TabSystemTradingEx.obj
 0001:000bc4e0       ??1stAddinSTRun@@QAE@XZ    100bd4e0 f i TabSystemTradingEx.obj
 0001:000bc510       ??1stAddinSTRunInfo@@QAE@XZ 100bd510 f i TabSystemTradingEx.obj
 0001:000bc530       ??A?$CMap@PAVCConfirmWnd@@PAV1@JJ@@QAEAAJPAVCConfirmWnd@@@Z 100bd530 f i TabSystemTradingEx.obj
 0001:000bc640       ??_G?$CMap@PAVCConfirmWnd@@PAV1@JJ@@UAEPAXI@Z 100bd640 f i TabSystemTradingEx.obj
 0001:000bc640       ??_E?$CMap@PAVCConfirmWnd@@PAV1@JJ@@UAEPAXI@Z 100bd640 f i TabSystemTradingEx.obj
 0001:000bc700       ??_GCTabSystemTradingEx@@UAEPAXI@Z 100bd700 f i TabSystemTradingEx.obj
 0001:000bc700       ??_ECTabSystemTradingEx@@UAEPAXI@Z 100bd700 f i TabSystemTradingEx.obj
 0001:000bc740       ?AddSTFile@CTabSystemTradingEx@@QAEXAAVCListBox@@V?$CStringT@DV?$StrTraitMFC_DLL@DV?$ChTraitsCRT@D@ATL@@@@@ATL@@@Z 100bd740 f   TabSystemTradingEx.obj
 0001:000bc8c0       ?CallJunmunDlg@CTabSystemTradingEx@@QAEXPAVCSTOrderRData_EG@@@Z 100bd8c0 f   TabSystemTradingEx.obj
 0001:000bcc50       ?CanSTModule@CTabSystemTradingEx@@QAEHXZ 100bdc50 f   TabSystemTradingEx.obj
 0001:000bcc60       ?ChangeSkinColor@CTabSystemTradingEx@@UAEXK@Z 100bdc60 f   TabSystemTradingEx.obj
 0001:000bcd20       ?CheckOcx@CTabSystemTradingEx@@QAEHXZ 100bdd20 f   TabSystemTradingEx.obj
 0001:000bcdc0       ?CheckRegister@CTabSystemTradingEx@@QAEHPBD0@Z 100bddc0 f   TabSystemTradingEx.obj
 0001:000bced0       ?DataMonitorCallbackProc@CTabSystemTradingEx@@SGXPBDJJJJ@Z 100bded0 f   TabSystemTradingEx.obj
 0001:000bcf50       ?DirectRunST@CTabSystemTradingEx@@QAEXPBD@Z 100bdf50 f   TabSystemTradingEx.obj
 0001:000bd240       ?DoDataExchange@CTabSystemTradingEx@@MAEXPAVCDataExchange@@@Z 100be240 f   TabSystemTradingEx.obj
 0001:000bd2b0       ?DoDlgSysVarOption@CTabSystemTradingEx@@QAEHPAVCStringList@@J@Z 100be2b0 f   TabSystemTradingEx.obj
 0001:000bd340       ?FreeAssoc@?$CMap@PAVCConfirmWnd@@PAV1@JJ@@IAEXPAVCAssoc@1@@Z 100be340 f i TabSystemTradingEx.obj
 0001:000bd3a0       ?GetAssocAt@?$CMap@PAVCConfirmWnd@@PAV1@JJ@@IBEPAVCAssoc@1@PAVCConfirmWnd@@AAI1@Z 100be3a0 f i TabSystemTradingEx.obj
 0001:000bd410       ?GetChartData@CSTAnalysisInput@CTabSystemTradingEx@@UAGHAAJ000000@Z 100be410 f   TabSystemTradingEx.obj
 0001:000bd450       ?GetCode@CSTAnalysisInput@CTabSystemTradingEx@@UAG?AV?$CStringT@DV?$StrTraitMFC_DLL@DV?$ChTraitsCRT@D@ATL@@@@@ATL@@XZ 100be450 f   TabSystemTradingEx.obj
 0001:000bd480       ?GetCodeName@CSTAnalysisInput@CTabSystemTradingEx@@UAG?AV?$CStringT@DV?$StrTraitMFC_DLL@DV?$ChTraitsCRT@D@ATL@@@@@ATL@@XZ 100be480 f   TabSystemTradingEx.obj
 0001:000bd4f0       ?GetCodeType@CSTAnalysisInput@CTabSystemTradingEx@@UAGHXZ 100be4f0 f   TabSystemTradingEx.obj
 0001:000bd540       ?GetControl@CSTAnalysisInput@CTabSystemTradingEx@@UAGJH@Z 100be540 f   TabSystemTradingEx.obj
 0001:000bd5b0       ?GetCount@CSTAnalysisInput@CTabSystemTradingEx@@UAGHXZ 100be5b0 f   TabSystemTradingEx.obj
 0001:000bd5e0       ?GetData@CSTAnalysisInput@CTabSystemTradingEx@@UAG?AVCOleVariant@@H@Z 100be5e0 f   TabSystemTradingEx.obj
 0001:000bd600       ?GetDeivideRate@CSTAnalysisInput@CTabSystemTradingEx@@UAGNXZ 100be600 f   TabSystemTradingEx.obj
 0001:000bd620       ?GetDivideCnt@CSTAnalysisInput@CTabSystemTradingEx@@UAGHXZ 100be620 f   TabSystemTradingEx.obj
 0001:000bd660       ?GetDivideState@CSTAnalysisInput@CTabSystemTradingEx@@UAGHXZ 100be660 f   TabSystemTradingEx.obj
 0001:000bd680       ?GetEndDay@CSTAnalysisInput@CTabSystemTradingEx@@UAG?AV?$CStringT@DV?$StrTraitMFC_DLL@DV?$ChTraitsCRT@D@ATL@@@@@ATL@@XZ 100be680 f   TabSystemTradingEx.obj
 0001:000bd6b0       ?GetHwndScreenView@CSTDlgConfirmSendJumun@CTabSystemTradingEx@@EAGPAUHWND__@@XZ 100be6b0 f   TabSystemTradingEx.obj
 0001:000bd6e0       ?GetInterface@CSTInterface@CTabSystemTradingEx@@UAGPAXH@Z 100be6e0 f   TabSystemTradingEx.obj
 0001:000bd700       ?GetMessageMap@CTabSystemTradingEx@@MBEPBUAFX_MSGMAP@@XZ 100be700 f   TabSystemTradingEx.obj
 0001:000bd710       ?GetNextAssoc@?$CMap@PAVCConfirmWnd@@PAV1@JJ@@QBEXAAPAU__POSITION@@AAPAVCConfirmWnd@@AAJ@Z 100be710 f i TabSystemTradingEx.obj
 0001:000bd790       ?GetOutBarColor@CSTInterface@CTabSystemTradingEx@@UAGJAAK0@Z 100be790 f   TabSystemTradingEx.obj
 0001:000bd7d0       ?GetOutBarColor@CSTRunManager@CTabSystemTradingEx@@UAGJAAK0@Z 100be7d0 f   TabSystemTradingEx.obj
 0001:000bd810       ?GetParent@CSTDlgConfirmSendJumun@CTabSystemTradingEx@@EAGPAVCWnd@@XZ 100be810 f   TabSystemTradingEx.obj
 0001:000bd820       ?GetRectOfCtrl@CTabSystemTradingEx@@UAE?AVCRect@@HH@Z 100be820 f   TabSystemTradingEx.obj
 0001:000bd9f0       ?GetSTInfo@CSTAnalysisInput@CTabSystemTradingEx@@UAGHPAUSTMNG_ITEMINFO@@@Z 100be9f0 f   TabSystemTradingEx.obj
 0001:000bda40       ?GetSelectedSTInfo@CSTRunManager@CTabSystemTradingEx@@UAGJXZ 100bea40 f   TabSystemTradingEx.obj
 0001:000bda60       ?GetThisMessageMap@CTabSystemTradingEx@@KGPBUAFX_MSGMAP@@XZ 100bea60 f   TabSystemTradingEx.obj
 0001:000bda70       ?GetUnitPos@CSTAnalysisInput@CTabSystemTradingEx@@UAGHXZ 100bea70 f   TabSystemTradingEx.obj
 0001:000bda90       ?GetUserDataInterface@CSTAnalysisInput@CTabSystemTradingEx@@UAGPAUISTUserData@@XZ 100bea90 f   TabSystemTradingEx.obj
 0001:000bdaa0       ?GetViewHandle@CSTRunManager@CTabSystemTradingEx@@UAGJXZ 100beaa0 f   TabSystemTradingEx.obj
 0001:000bdac0       ?HideStOptimaA@CTabSystemTradingEx@@QAEXXZ 100beac0 f   TabSystemTradingEx.obj
 0001:000bdad0       ?InitControl@CTabSystemTradingEx@@QAEXXZ 100bead0 f   TabSystemTradingEx.obj
 0001:000bdc20       ?InitHashTable@?$CMap@PAVCConfirmWnd@@PAV1@JJ@@QAEXIH@Z 100bec20 f i TabSystemTradingEx.obj
 0001:000bdc90       ?IsAllowJumun@CTabSystemTradingEx@@QAEHPAVCSTOrderRData_EG@@H@Z 100bec90 f   TabSystemTradingEx.obj
 0001:000bdcf0       ?IsAllowJumunBefore@CTabSystemTradingEx@@QAEHPBDAAV?$CStringT@DV?$StrTraitMFC_DLL@DV?$ChTraitsCRT@D@ATL@@@@@ATL@@@Z 100becf0 f   TabSystemTradingEx.obj
 0001:000bddd0       ?IsDivide@CSTAnalysisInput@CTabSystemTradingEx@@UAGHXZ 100bedd0 f   TabSystemTradingEx.obj
 0001:000bddf0       ?IsSTRun@CTabSystemTradingEx@@QAEHPBD0H@Z 100bedf0 f   TabSystemTradingEx.obj
 0001:000bdeb0       ?IsSTSelected@CTabSystemTradingEx@@QAEHXZ 100beeb0 f   TabSystemTradingEx.obj
 0001:000bded0       ?IsUseUserData@CSTAnalysisInput@CTabSystemTradingEx@@UAGHXZ 100beed0 f   TabSystemTradingEx.obj
 0001:000bdf00       ?LoadInfo@CTabSystemTradingEx@@QAEXXZ 100bef00 f   TabSystemTradingEx.obj
 0001:000be0a0       ?LoadOutlookBar@CTabSystemTradingEx@@QAEXXZ 100bf0a0 f   TabSystemTradingEx.obj
 0001:000be360       ?LoadSTList@CTabSystemTradingEx@@QAEXXZ 100bf360 f   TabSystemTradingEx.obj
 0001:000be570       ?LoadTradeAup@CTabSystemTradingEx@@QAEPAVCWnd@@V?$CStringT@DV?$StrTraitMFC_DLL@DV?$ChTraitsCRT@D@ATL@@@@@ATL@@PAV2@@Z 100bf570 f   TabSystemTradingEx.obj
 0001:000be690       ?Lookup@?$CMap@PAVCConfirmWnd@@PAV1@JJ@@QBEHPAVCConfirmWnd@@AAJ@Z 100bf690 f i TabSystemTradingEx.obj
 0001:000be6d0       ?MakeSTDefaultDirectory@CTabSystemTradingEx@@AAEXXZ 100bf6d0 f   TabSystemTradingEx.obj
 0001:000be860       ?NewAssoc@?$CMap@PAVCConfirmWnd@@PAV1@JJ@@IAEPAVCAssoc@1@PAVCConfirmWnd@@@Z 100bf860 f i TabSystemTradingEx.obj
 0001:000be8d0       ?OnBnClickedStchkdiv@CTabSystemTradingEx@@QAEXXZ 100bf8d0 f   TabSystemTradingEx.obj
 0001:000be9d0       ?OnBtnStDelete@CTabSystemTradingEx@@IAEXXZ 100bf9d0 f   TabSystemTradingEx.obj
 0001:000be9e0       ?OnBtnStanal@CTabSystemTradingEx@@IAEXXZ 100bf9e0 f   TabSystemTradingEx.obj
 0001:000bea80       ?OnBtnStoptimaA@CTabSystemTradingEx@@IAEXXZ 100bfa80 f   TabSystemTradingEx.obj
 0001:000bed80       ?OnBtnStwizardA@CTabSystemTradingEx@@IAEXXZ 100bfd80 f   TabSystemTradingEx.obj
 0001:000bed90       ?OnCtlColor@CTabSystemTradingEx@@IAEPAUHBRUSH__@@PAVCDC@@PAVCWnd@@I@Z 100bfd90 f   TabSystemTradingEx.obj
 0001:000bede0       ?OnDestroy@CTabSystemTradingEx@@IAEXXZ 100bfde0 f   TabSystemTradingEx.obj
 0001:000befa0       ?OnInitDialog@CTabSystemTradingEx@@MAEHXZ 100bffa0 f   TabSystemTradingEx.obj
 0001:000bf3b0       ?OnRmsgDestroyConfirmWnd@CTabSystemTradingEx@@IAEJIJ@Z 100c03b0 f   TabSystemTradingEx.obj
 0001:000bf4e0       ?OnRmsgIndexAddinNotifyBuySell@CTabSystemTradingEx@@IAEJIJ@Z 100c04e0 f   TabSystemTradingEx.obj
 0001:000bf760       ?OnRmsgIndexAddinNotifyRawData@CTabSystemTradingEx@@IAEJIJ@Z 100c0760 f   TabSystemTradingEx.obj
 0001:000bf870       ?OnRmsgIndexAddinNotifySignal@CTabSystemTradingEx@@IAEJIJ@Z 100c0870 f   TabSystemTradingEx.obj
 0001:000bf8c0       ?OnRmsgIsSTRunState@CTabSystemTradingEx@@IAEJIJ@Z 100c08c0 f   TabSystemTradingEx.obj
 0001:000bf8e0       ?OnRmsgMultiST@CTabSystemTradingEx@@IAEJIJ@Z 100c08e0 f   TabSystemTradingEx.obj
 0001:000bf8f0       ?OnRmsgObItemClk@CTabSystemTradingEx@@IAEJIJ@Z 100c08f0 f   TabSystemTradingEx.obj
 0001:000bf950       ?OnRmsgObItemDBClk@CTabSystemTradingEx@@IAEJIJ@Z 100c0950 f   TabSystemTradingEx.obj
 0001:000bfc60       ?OnSize@CTabSystemTradingEx@@IAEXIHH@Z 100c0c60 f   TabSystemTradingEx.obj
 0001:000bfc80       ?OnStshowoption@CTabSystemTradingEx@@QAEXXZ 100c0c80 f   TabSystemTradingEx.obj
 0001:000bfd20       ?OpenAUP@CTabSystemTradingEx@@QAEHXZ 100c0d20 f   TabSystemTradingEx.obj
 0001:000bff50       ?PlayOrderSound@CTabSystemTradingEx@@QAEXHHPBDH0@Z 100c0f50 f   TabSystemTradingEx.obj
 0001:000bff90       ?RecalcLayout@CTabSystemTradingEx@@QAEXXZ 100c0f90 f   TabSystemTradingEx.obj
 0001:000c0010       ?RemoveAll@?$CMap@PAVCConfirmWnd@@PAV1@JJ@@QAEXXZ 100c1010 f i TabSystemTradingEx.obj
 0001:000c0050       ?RemoveKey@?$CMap@PAVCConfirmWnd@@PAV1@JJ@@QAEHPAVCConfirmWnd@@@Z 100c1050 f i TabSystemTradingEx.obj
 0001:000c0110       ?RunIndexSD@CTabSystemTradingEx@@QAEJHPAUSTMNG_ITEMINFO@@@Z 100c1110 f   TabSystemTradingEx.obj
 0001:000c07a0       ?RunMultiST@CTabSystemTradingEx@@QAEXXZ 100c17a0 f   TabSystemTradingEx.obj
 0001:000c0ba0       ?RunST@CSTRunManager@CTabSystemTradingEx@@UAGHHAAV?$CStringT@DV?$StrTraitMFC_DLL@DV?$ChTraitsCRT@D@ATL@@@@@ATL@@J@Z 100c1ba0 f   TabSystemTradingEx.obj
 0001:000c0cc0       ?RunWizard@CTabSystemTradingEx@@QAEXH@Z 100c1cc0 f   TabSystemTradingEx.obj
 0001:000c0df0       ?Run_STDLL@CTabSystemTradingEx@@QAEHPBD@Z 100c1df0 f   TabSystemTradingEx.obj
 0001:000c0fd0       ?STClear@CTabSystemTradingEx@@QAEXXZ 100c1fd0 f   TabSystemTradingEx.obj
 0001:000c1070       ?Serialize@?$CMap@PAVCConfirmWnd@@PAV1@JJ@@UAEXAAVCArchive@@@Z 100c2070 f i TabSystemTradingEx.obj
 0001:000c1490       ?SetAt@?$CMap@PAVCConfirmWnd@@PAV1@JJ@@QAEXPAVCConfirmWnd@@J@Z 100c2490 f i TabSystemTradingEx.obj
 0001:000c15a0       ?SetUserData@CSTAnalysisInput@CTabSystemTradingEx@@UAGXHPAUISTUserData@@@Z 100c25a0 f   TabSystemTradingEx.obj
 0001:000c15c0       ?ShowHideStOptimaA@CTabSystemTradingEx@@QAEXHHH@Z 100c25c0 f   TabSystemTradingEx.obj
 0001:000c1800       ?TestJumun@CTabSystemTradingEx@@QAEXXZ 100c2800 f   TabSystemTradingEx.obj
 0001:000c1810       ?UnLoadSTList@CTabSystemTradingEx@@QAEXXZ 100c2810 f   TabSystemTradingEx.obj
 0001:000c1860       ??$CompareElements@V?$CStringT@DV?$StrTraitMFC_DLL@DV?$ChTraitsCRT@D@ATL@@@@@ATL@@PBD@@YGHPBV?$CStringT@DV?$StrTraitMFC_DLL@DV?$ChTraitsCRT@D@ATL@@@@@ATL@@PBQBD@Z 100c2860 f i XListCtrlJongData.obj
 0001:000c1890       ??$SerializeElements@PAVCJongDataInListCtrl@@@@YGXAAVCArchive@@PAPAVCJongDataInListCtrl@@H@Z 100c2890 f i XListCtrlJongData.obj
 0001:000c1940       ??0?$CMap@V?$CStringT@DV?$StrTraitMFC_DLL@DV?$ChTraitsCRT@D@ATL@@@@@ATL@@PBDPAVCJongDataInListCtrl@@PAV3@@@QAE@H@Z 100c2940 f i XListCtrlJongData.obj
 0001:000c1980       ??0CXListCtrlJongData@@QAE@XZ 100c2980 f   XListCtrlJongData.obj
 0001:000c1b60       ??1?$CMap@V?$CStringT@DV?$StrTraitMFC_DLL@DV?$ChTraitsCRT@D@ATL@@@@@ATL@@PBDPAVCJongDataInListCtrl@@PAV3@@@UAE@XZ 100c2b60 f i XListCtrlJongData.obj
 0001:000c1bb0       ??1CXListCtrlJongData@@UAE@XZ 100c2bb0 f   XListCtrlJongData.obj
 0001:000c1c50       ??A?$CMap@V?$CStringT@DV?$StrTraitMFC_DLL@DV?$ChTraitsCRT@D@ATL@@@@@ATL@@PBDPAVCJongDataInListCtrl@@PAV3@@@QAEAAPAVCJongDataInListCtrl@@PBD@Z 100c2c50 f i XListCtrlJongData.obj
 0001:000c1d60       ??_E?$CMap@V?$CStringT@DV?$StrTraitMFC_DLL@DV?$ChTraitsCRT@D@ATL@@@@@ATL@@PBDPAVCJongDataInListCtrl@@PAV3@@@UAEPAXI@Z 100c2d60 f i XListCtrlJongData.obj
 0001:000c1d60       ??_G?$CMap@V?$CStringT@DV?$StrTraitMFC_DLL@DV?$ChTraitsCRT@D@ATL@@@@@ATL@@PBDPAVCJongDataInListCtrl@@PAV3@@@UAEPAXI@Z 100c2d60 f i XListCtrlJongData.obj
 0001:000c1df0       ??_GCXListCtrlJongData@@UAEPAXI@Z 100c2df0 f i XListCtrlJongData.obj
 0001:000c1df0       ??_ECXListCtrlJongData@@UAEPAXI@Z 100c2df0 f i XListCtrlJongData.obj
 0001:000c1ed0       ?CheckJongmokCode@CXListCtrlJongData@@QAEXHPBD@Z 100c2ed0 f   XListCtrlJongData.obj
 0001:000c1ee0       ?CheckJongmokCode@CXListCtrlJongData@@QAEXPAVCStringList@@0@Z 100c2ee0 f   XListCtrlJongData.obj
 0001:000c1ef0       ?CheckJongmokCode@CXListCtrlJongData@@QAEXPAVCStringList@@@Z 100c2ef0 f   XListCtrlJongData.obj
 0001:000c1f00       ?CompareByIndex@@YAHPBX0@Z 100c2f00 f   XListCtrlJongData.obj
 0001:000c1f20       ?FindCode@CXListCtrlJongData@@QAEHPBD@Z 100c2f20 f   XListCtrlJongData.obj
 0001:000c1fc0       ?FreeAssoc@?$CMap@V?$CStringT@DV?$StrTraitMFC_DLL@DV?$ChTraitsCRT@D@ATL@@@@@ATL@@PBDPAVCJongDataInListCtrl@@PAV3@@@IAEXPAVCAssoc@1@@Z 100c2fc0 f i XListCtrlJongData.obj
 0001:000c1ff0       ?GetAssocAt@?$CMap@V?$CStringT@DV?$StrTraitMFC_DLL@DV?$ChTraitsCRT@D@ATL@@@@@ATL@@PBDPAVCJongDataInListCtrl@@PAV3@@@IBEPAVCAssoc@1@PBDAAI1@Z 100c2ff0 f i XListCtrlJongData.obj
 0001:000c2050       ?GetCheckByJongmokCode@CXListCtrlJongData@@QAEHPBD@Z 100c3050 f   XListCtrlJongData.obj
 0001:000c2060       ?GetCheckedCodeList@CXListCtrlJongData@@QAE?AV?$CStringT@DV?$StrTraitMFC_DLL@DV?$ChTraitsCRT@D@ATL@@@@@ATL@@XZ 100c3060 f   XListCtrlJongData.obj
 0001:000c2080       ?GetCheckedCodes@CXListCtrlJongData@@QAE?AV?$CStringT@DV?$StrTraitMFC_DLL@DV?$ChTraitsCRT@D@ATL@@@@@ATL@@XZ 100c3080 f   XListCtrlJongData.obj
 0001:000c20a0       ?GetCheckedCodes@CXListCtrlJongData@@QAEXPAVCStringArray@@PAVCUIntArray@@@Z 100c30a0 f   XListCtrlJongData.obj
 0001:000c20b0       ?GetCheckedCount@CXListCtrlJongData@@QAEIXZ 100c30b0 f   XListCtrlJongData.obj
 0001:000c20c0       ?GetCodeData@CXListCtrlJongData@@QAEXHAAV?$CStringT@DV?$StrTraitMFC_DLL@DV?$ChTraitsCRT@D@ATL@@@@@ATL@@000AAD@Z 100c30c0 f   XListCtrlJongData.obj
 0001:000c2120       ?GetCodeSelected@CXListCtrlJongData@@QAE?AV?$CStringT@DV?$StrTraitMFC_DLL@DV?$ChTraitsCRT@D@ATL@@@@@ATL@@H@Z 100c3120 f   XListCtrlJongData.obj
 0001:000c2170       ?GetCommentAboutHighlight@CXListCtrlJongData@@QAE?AV?$CStringT@DV?$StrTraitMFC_DLL@DV?$ChTraitsCRT@D@ATL@@@@@ATL@@XZ 100c3170 f   XListCtrlJongData.obj
 0001:000c2240       ?GetDispInfo@CXListCtrlJongData@@QAEXPAUtagLVITEMA@@@Z 100c3240 f   XListCtrlJongData.obj
 0001:000c2270       ?GetDrawColors@CXListCtrlJongData@@UAEXHHAAK0@Z 100c3270 f   XListCtrlJongData.obj
 0001:000c2320       ?GetItemText@CXListCtrlJongData@@QAEHHHPADH@Z 100c3320 f   XListCtrlJongData.obj
 0001:000c2410       ?GetJongData@CXListCtrlJongData@@AAE?AV?$CStringT@DV?$StrTraitMFC_DLL@DV?$ChTraitsCRT@D@ATL@@@@@ATL@@HH@Z 100c3410 f   XListCtrlJongData.obj
 0001:000c2470       ?GetListOfChecked@CXListCtrlJongData@@QAEXPAVCStringList@@@Z 100c3470 f   XListCtrlJongData.obj
 0001:000c2590       ?GetMessageMap@CXListCtrlJongData@@MBEPBUAFX_MSGMAP@@XZ 100c3590 f   XListCtrlJongData.obj
 0001:000c25a0       ?GetNextAssoc@?$CMap@V?$CStringT@DV?$StrTraitMFC_DLL@DV?$ChTraitsCRT@D@ATL@@@@@ATL@@PBDPAVCJongDataInListCtrl@@PAV3@@@QBEXAAPAU__POSITION@@AAV?$CStringT@DV?$StrTraitMFC_DLL@DV?$ChTraitsCRT@D@ATL@@@@@ATL@@AAPAVCJongDataInListCtrl@@@Z 100c35a0 f i XListCtrlJongData.obj
 0001:000c2630       ?GetPosOfHighLighted@CXListCtrlJongData@@AAEHPAJ0@Z 100c3630 f   XListCtrlJongData.obj
 0001:000c2760       ?GetSelectedCodes@CXListCtrlJongData@@QAE?AV?$CStringT@DV?$StrTraitMFC_DLL@DV?$ChTraitsCRT@D@ATL@@@@@ATL@@XZ 100c3760 f   XListCtrlJongData.obj
 0001:000c2860       ?GetThisMessageMap@CXListCtrlJongData@@KGPBUAFX_MSGMAP@@XZ 100c3860 f   XListCtrlJongData.obj
 0001:000c2870       ?GetTimeSelected@CXListCtrlJongData@@QAE?AV?$CStringT@DV?$StrTraitMFC_DLL@DV?$ChTraitsCRT@D@ATL@@@@@ATL@@H@Z 100c3870 f   XListCtrlJongData.obj
 0001:000c2920       ?Init@CXListCtrlJongData@@QAEXPAVCLeftBarDlg@@H@Z 100c3920 f   XListCtrlJongData.obj
 0001:000c2980       ?InitColumns@CXListCtrlJongData@@AAEXXZ 100c3980 f   XListCtrlJongData.obj
 0001:000c2b40       ?InitHashTable@?$CMap@V?$CStringT@DV?$StrTraitMFC_DLL@DV?$ChTraitsCRT@D@ATL@@@@@ATL@@PBDPAVCJongDataInListCtrl@@PAV3@@@QAEXIH@Z 100c3b40 f i XListCtrlJongData.obj
 0001:000c2bb0       ?InitSortIndex@CXListCtrlJongData@@QAEXXZ 100c3bb0 f   XListCtrlJongData.obj
 0001:000c2be0       ?InsertCodeData@CXListCtrlJongData@@QAEXPBD0V?$CStringT@DV?$StrTraitMFC_DLL@DV?$ChTraitsCRT@D@ATL@@@@@ATL@@111DH@Z 100c3be0 f   XListCtrlJongData.obj
 0001:000c2f80       ?InsertCodeDataLighted@CXListCtrlJongData@@AAEXPAVCJongDataInListCtrl@@H@Z 100c3f80 f   XListCtrlJongData.obj
 0001:000c3070       ?Lookup@?$CMap@V?$CStringT@DV?$StrTraitMFC_DLL@DV?$ChTraitsCRT@D@ATL@@@@@ATL@@PBDPAVCJongDataInListCtrl@@PAV3@@@QBEHPBDAAPAVCJongDataInListCtrl@@@Z 100c4070 f i XListCtrlJongData.obj
 0001:000c30b0       ?NewAssoc@?$CMap@V?$CStringT@DV?$StrTraitMFC_DLL@DV?$ChTraitsCRT@D@ATL@@@@@ATL@@PBDPAVCJongDataInListCtrl@@PAV3@@@IAEPAVCAssoc@1@PBD@Z 100c40b0 f i XListCtrlJongData.obj
 0001:000c3130       ?OnColumnClick@CXListCtrlJongData@@IAEHPAUtagNMHDR@@PAJ@Z 100c4130 f   XListCtrlJongData.obj
 0001:000c31a0       ?OnDestroy@CXListCtrlJongData@@IAEXXZ 100c41a0 f   XListCtrlJongData.obj
 0001:000c3280       ?OnGetdispinfo@CXListCtrlJongData@@IAEXPAUtagNMHDR@@PAJ@Z 100c4280 f   XListCtrlJongData.obj
 0001:000c32c0       ?OnKeyUp@CXListCtrlJongData@@IAEXIII@Z 100c42c0 f   XListCtrlJongData.obj
 0001:000c3400       ?OnPaint@CXListCtrlJongData@@IAEXXZ 100c4400 f   XListCtrlJongData.obj
 0001:000c3410       ?RemoveAll@?$CMap@V?$CStringT@DV?$StrTraitMFC_DLL@DV?$ChTraitsCRT@D@ATL@@@@@ATL@@PBDPAVCJongDataInListCtrl@@PAV3@@@QAEXXZ 100c4410 f i XListCtrlJongData.obj
 0001:000c3480       ?RemoveAll@CXListCtrlJongData@@QAEHXZ 100c4480 f   XListCtrlJongData.obj
 0001:000c3560       ?RemoveCode@CXListCtrlJongData@@QAEXPBD@Z 100c4560 f   XListCtrlJongData.obj
 0001:000c36a0       ?RemoveKey@?$CMap@V?$CStringT@DV?$StrTraitMFC_DLL@DV?$ChTraitsCRT@D@ATL@@@@@ATL@@PBDPAVCJongDataInListCtrl@@PAV3@@@QAEHPBD@Z 100c46a0 f i XListCtrlJongData.obj
 0001:000c3730       ?RemoveNoUpdateItem@CXListCtrlJongData@@QAEXXZ 100c4730 f   XListCtrlJongData.obj
 0001:000c38e0       ?ReplaceIndex@CXListCtrlJongData@@AAEXHH@Z 100c48e0 f   XListCtrlJongData.obj
 0001:000c3930       ?Serialize@?$CMap@V?$CStringT@DV?$StrTraitMFC_DLL@DV?$ChTraitsCRT@D@ATL@@@@@ATL@@PBDPAVCJongDataInListCtrl@@PAV3@@@UAEXAAVCArchive@@@Z 100c4930 f i XListCtrlJongData.obj
 0001:000c3cf0       ?SetAlarmColor@CXListCtrlJongData@@QAEXH@Z 100c4cf0 f   XListCtrlJongData.obj
 0001:000c3d00       ?SetAlarmPeriod@CXListCtrlJongData@@QAEXJJ@Z 100c4d00 f   XListCtrlJongData.obj
 0001:000c3d30       ?SetAlarmSound@CXListCtrlJongData@@QAEXHPBD@Z 100c4d30 f   XListCtrlJongData.obj
 0001:000c3d60       ?SetAt@?$CMap@V?$CStringT@DV?$StrTraitMFC_DLL@DV?$ChTraitsCRT@D@ATL@@@@@ATL@@PBDPAVCJongDataInListCtrl@@PAV3@@@QAEXPBDPAVCJongDataInListCtrl@@@Z 100c4d60 f i XListCtrlJongData.obj
 0001:000c3e70       ?SetBlankNext@CXListCtrlJongData@@QAEHHH@Z 100c4e70 f   XListCtrlJongData.obj
 0001:000c3f90       ?SetBlankPrev@CXListCtrlJongData@@QAEHHH@Z 100c4f90 f   XListCtrlJongData.obj
 0001:000c40a0       ?SetConfig@CXListCtrlJongData@@AAEXH@Z 100c50a0 f   XListCtrlJongData.obj
 0001:000c40b0       ?SetCursorNext@CXListCtrlJongData@@QAEHHH@Z 100c50b0 f   XListCtrlJongData.obj
 0001:000c4340       ?SetCursorPrev@CXListCtrlJongData@@QAEXHH@Z 100c5340 f   XListCtrlJongData.obj
 0001:000c45f0       ?SetHeaderColor@CXListCtrlJongData@@QAEXKK@Z 100c55f0 f   XListCtrlJongData.obj
 0001:000c4600       ?SortColumns@CXListCtrlJongData@@AAEXHH@Z 100c5600 f   XListCtrlJongData.obj
 0001:000c4c70       ?UnHighlightByJongmokCode@CXListCtrlJongData@@QAEXPBD@Z 100c5c70 f   XListCtrlJongData.obj
 0001:000c4da0       ?UpdateCheck@CXListCtrlJongData@@QAEXHPAVCWnd@@@Z 100c5da0 f   XListCtrlJongData.obj
 0001:000c4db0       ?UpdateCodeData@CXListCtrlJongData@@QAEHPBD0V?$CStringT@DV?$StrTraitMFC_DLL@DV?$ChTraitsCRT@D@ATL@@@@@ATL@@111DH@Z 100c5db0 f   XListCtrlJongData.obj
 0001:000c4f80       ??0CXTabCtrl@@QAE@XZ       100c5f80 f   XTabCtrl.obj
 0001:000c5080       ??1CXTabCtrl@@UAE@XZ       100c6080 f   XTabCtrl.obj
 0001:000c50a0       ??_GCXTabCtrl@@UAEPAXI@Z   100c60a0 f i XTabCtrl.obj
 0001:000c50a0       ??_ECXTabCtrl@@UAEPAXI@Z   100c60a0 f i XTabCtrl.obj
 0001:000c50f0       ?ChangeSkinColor@CXTabCtrl@@QAEXPAVCWnd@@@Z 100c60f0 f   XTabCtrl.obj
 0001:000c5190       ?ChangeTabIndexByMarketType@CXTabCtrl@@QAEHH@Z 100c6190 f   XTabCtrl.obj
 0001:000c51a0       ?DeleteCurrentDlg@CXTabCtrl@@AAEXXZ 100c61a0 f   XTabCtrl.obj
 0001:000c51e0       ?GetMessageMap@CXTabCtrl@@MBEPBUAFX_MSGMAP@@XZ 100c61e0 f   XTabCtrl.obj
 0001:000c51f0       ?GetTabHeight@CXTabCtrl@@QAEJXZ 100c61f0 f i XTabCtrl.obj
 0001:000c5230       ?GetThisMessageMap@CXTabCtrl@@KGPBUAFX_MSGMAP@@XZ 100c6230 f   XTabCtrl.obj
 0001:000c5240       ?Init@CXTabCtrl@@QAEXPAVCWnd@@0H@Z 100c6240 f   XTabCtrl.obj
 0001:000c5470       ?OnDestroy@CXTabCtrl@@IAEXXZ 100c6470 f   XTabCtrl.obj
 0001:000c5530       ?OnSelchange@CXTabCtrl@@IAEXPAUtagNMHDR@@PAJ@Z 100c6530 f   XTabCtrl.obj
 0001:000c5570       ?OnSelchanging@CXTabCtrl@@IAEXPAUtagNMHDR@@PAJ@Z 100c6570 f   XTabCtrl.obj
 0001:000c55c0       ?OnSize@CXTabCtrl@@IAEXIHH@Z 100c65c0 f   XTabCtrl.obj
 0001:000c56f0       ?SetTopLeftCorner@CXTabCtrl@@QAEXVCPoint@@@Z 100c66f0 f   XTabCtrl.obj
 0001:000c5710       ?SetWndSystemTabEx@CXTabCtrl@@QAEXXZ 100c6710 f   XTabCtrl.obj
 0001:000c5740       ?ShowTab@CXTabCtrl@@QAEXH@Z 100c6740 f   XTabCtrl.obj
 0001:000c5ca0       ??$SerializeElements@UControlInfo@@@@YGXAAVCArchive@@PAUControlInfo@@H@Z 100c6ca0 f i xySplitterWnd.obj
 0001:000c5d40       ??0?$CArray@UControlInfo@@AAU1@@@QAE@XZ 100c6d40 f i xySplitterWnd.obj
 0001:000c5d70       ??0CxSplitterWnd@@QAE@XZ   100c6d70 f   xySplitterWnd.obj
 0001:000c5e70       ??0CySplitterWnd@@QAE@XZ   100c6e70 f   xySplitterWnd.obj
 0001:000c5f50       ??1?$CArray@UControlInfo@@AAU1@@@UAE@XZ 100c6f50 f i xySplitterWnd.obj
 0001:000c5f70       ??1CxSplitterWnd@@UAE@XZ   100c6f70 f   xySplitterWnd.obj
 0001:000c5ff0       ??1CySplitterWnd@@UAE@XZ   100c6ff0 f   xySplitterWnd.obj
 0001:000c6060       ??_E?$CArray@UControlInfo@@AAU1@@@UAEPAXI@Z 100c7060 f i xySplitterWnd.obj
 0001:000c6060       ??_G?$CArray@UControlInfo@@AAU1@@@UAEPAXI@Z 100c7060 f i xySplitterWnd.obj
 0001:000c60b0       ??_ECxSplitterWnd@@UAEPAXI@Z 100c70b0 f i xySplitterWnd.obj
 0001:000c60b0       ??_GCxSplitterWnd@@UAEPAXI@Z 100c70b0 f i xySplitterWnd.obj
 0001:000c6160       ??_GCySplitterWnd@@UAEPAXI@Z 100c7160 f i xySplitterWnd.obj
 0001:000c6160       ??_ECySplitterWnd@@UAEPAXI@Z 100c7160 f i xySplitterWnd.obj
 0001:000c6200       ?AttachAsAboveCtrl@CySplitterWnd@@QAE_NHH_N@Z 100c7200 f   xySplitterWnd.obj
 0001:000c6290       ?AttachAsAboveCtrl@CySplitterWnd@@QAE_NH_N@Z 100c7290 f   xySplitterWnd.obj
 0001:000c6350       ?AttachAsAboveCtrl@CySplitterWnd@@QAE_NPAVCWnd@@H_N@Z 100c7350 f   xySplitterWnd.obj
 0001:000c63c0       ?AttachAsAboveCtrl@CySplitterWnd@@QAE_NPAVCWnd@@_N@Z 100c73c0 f   xySplitterWnd.obj
 0001:000c6470       ?AttachAsBelowCtrl@CySplitterWnd@@QAE_NHH_N@Z 100c7470 f   xySplitterWnd.obj
 0001:000c6500       ?AttachAsBelowCtrl@CySplitterWnd@@QAE_NH_N@Z 100c7500 f   xySplitterWnd.obj
 0001:000c65c0       ?AttachAsBelowCtrl@CySplitterWnd@@QAE_NPAVCWnd@@H_N@Z 100c75c0 f   xySplitterWnd.obj
 0001:000c6630       ?AttachAsBelowCtrl@CySplitterWnd@@QAE_NPAVCWnd@@_N@Z 100c7630 f   xySplitterWnd.obj
 0001:000c66e0       ?AttachAsLeftCtrl@CxSplitterWnd@@QAE_NHH_N@Z 100c76e0 f   xySplitterWnd.obj
 0001:000c6770       ?AttachAsLeftCtrl@CxSplitterWnd@@QAE_NH_N@Z 100c7770 f   xySplitterWnd.obj
 0001:000c6830       ?AttachAsLeftCtrl@CxSplitterWnd@@QAE_NPAVCWnd@@H_N@Z 100c7830 f   xySplitterWnd.obj
 0001:000c68a0       ?AttachAsLeftCtrl@CxSplitterWnd@@QAE_NPAVCWnd@@_N@Z 100c78a0 f   xySplitterWnd.obj
 0001:000c6950       ?AttachAsRightCtrl@CxSplitterWnd@@QAE_NHH_N@Z 100c7950 f   xySplitterWnd.obj
 0001:000c69e0       ?AttachAsRightCtrl@CxSplitterWnd@@QAE_NH_N@Z 100c79e0 f   xySplitterWnd.obj
 0001:000c6aa0       ?AttachAsRightCtrl@CxSplitterWnd@@QAE_NPAVCWnd@@H_N@Z 100c7aa0 f   xySplitterWnd.obj
 0001:000c6b10       ?AttachAsRightCtrl@CxSplitterWnd@@QAE_NPAVCWnd@@_N@Z 100c7b10 f   xySplitterWnd.obj
 0001:000c6bc0       ?AttachToParent@CxSplitterWnd@@QAE_NKK@Z 100c7bc0 f   xySplitterWnd.obj
 0001:000c6c80       ?AttachToParent@CySplitterWnd@@QAE_NKK@Z 100c7c80 f   xySplitterWnd.obj
 0001:000c6d40       ?BindWithControl@CxSplitterWnd@@QAE_NPAVCWnd@@K@Z 100c7d40 f   xySplitterWnd.obj
 0001:000c6db0       ?BindWithControl@CySplitterWnd@@QAE_NPAVCWnd@@K@Z 100c7db0 f   xySplitterWnd.obj
 0001:000c6e00       ?CreateInWnd@CxSplitterWnd@@QAE_NPAVCWnd@@KPAUtagRECT@@@Z 100c7e00 f   xySplitterWnd.obj
 0001:000c6e40       ?CreateInWnd@CySplitterWnd@@QAE_NPAVCWnd@@KPAUtagRECT@@@Z 100c7e40 f   xySplitterWnd.obj
 0001:000c6e80       ?DetachAllCtrls@CxSplitterWnd@@QAE_NXZ 100c7e80 f   xySplitterWnd.obj
 0001:000c6f00       ?DetachAllCtrls@CySplitterWnd@@QAE_NXZ 100c7f00 f   xySplitterWnd.obj
 0001:000c6f80       ?GetMessageMap@CxSplitterWnd@@MBEPBUAFX_MSGMAP@@XZ 100c7f80 f   xySplitterWnd.obj
 0001:000c6f90       ?GetMessageMap@CySplitterWnd@@MBEPBUAFX_MSGMAP@@XZ 100c7f90 f   xySplitterWnd.obj
 0001:000c6fa0       ?GetMouseClipRect@CxSplitterWnd@@IAE_NPAUtagRECT@@VCPoint@@@Z 100c7fa0 f   xySplitterWnd.obj
 0001:000c7150       ?GetMouseClipRect@CySplitterWnd@@IAE_NPAUtagRECT@@VCPoint@@@Z 100c8150 f   xySplitterWnd.obj
 0001:000c7300       ?GetThisMessageMap@CxSplitterWnd@@KGPBUAFX_MSGMAP@@XZ 100c8300 f   xySplitterWnd.obj
 0001:000c7310       ?GetThisMessageMap@CySplitterWnd@@KGPBUAFX_MSGMAP@@XZ 100c8310 f   xySplitterWnd.obj
 0001:000c7320       ?OnCreate@CxSplitterWnd@@IAEHPAUtagCREATESTRUCTA@@@Z 100c8320 f   xySplitterWnd.obj
 0001:000c73b0       ?OnDestroy@CxSplitterWnd@@IAEXXZ 100c83b0 f   xySplitterWnd.obj
 0001:000c73d0       ?OnLButtonDown@CxSplitterWnd@@IAEXIVCPoint@@@Z 100c83d0 f   xySplitterWnd.obj
 0001:000c7630       ?OnLButtonDown@CySplitterWnd@@IAEXIVCPoint@@@Z 100c8630 f   xySplitterWnd.obj
 0001:000c7850       ?OnPaint@CxSplitterWnd@@IAEXXZ 100c8850 f   xySplitterWnd.obj
 0001:000c79c0       ?OnSetCursor@CxSplitterWnd@@IAEHPAVCWnd@@II@Z 100c89c0 f   xySplitterWnd.obj
 0001:000c79f0       ?OnSetCursor@CySplitterWnd@@IAEHPAVCWnd@@II@Z 100c89f0 f   xySplitterWnd.obj
 0001:000c7a20       ?RecalcLayout@CxSplitterWnd@@QAEXXZ 100c8a20 f   xySplitterWnd.obj
 0001:000c7e70       ?RecalcLayout@CySplitterWnd@@QAEXXZ 100c8e70 f   xySplitterWnd.obj
 0001:000c82d0       ?Serialize@?$CArray@UControlInfo@@AAU1@@@UAEXAAVCArchive@@@Z 100c92d0 f i xySplitterWnd.obj
 0001:000c83b0       ?SetAtGrow@?$CArray@UControlInfo@@AAU1@@@QAEXHAAUControlInfo@@@Z 100c93b0 f i xySplitterWnd.obj
 0001:000c83f0       ?SetMinHeight@CySplitterWnd@@QAEXHH@Z 100c93f0 f   xySplitterWnd.obj
 0001:000c8410       ?SetMinWidth@CxSplitterWnd@@QAEXHH@Z 100c9410 f   xySplitterWnd.obj
 0001:000c8430       ?SetSize@?$CArray@UControlInfo@@AAU1@@@QAEXHH@Z 100c9430 f i xySplitterWnd.obj
 0001:000c86a0       ?Unbind@CxSplitterWnd@@QAEXXZ 100c96a0 f   xySplitterWnd.obj
 0001:000c8730       ?Unbind@CySplitterWnd@@QAEXXZ 100c9730 f   xySplitterWnd.obj
 0001:000c87c0       ??0CSysTabExChartItem@@QAE@XZ 100c97c0 f   _SysTabExChartItem.obj
 0001:000c87d0       ?AddChartBlock@CSysTabExChartItem@@UAGHPBD@Z 100c97d0 f   _SysTabExChartItem.obj
 0001:000c87f0       ?AddPacketAndGraph@CSysTabExChartItem@@UAGHXZ 100c97f0 f   _SysTabExChartItem.obj
 0001:000c8810       ?GetChartItem@CSysTabExChartItem@@UAGJXZ 100c9810 f   _SysTabExChartItem.obj
 0001:000c8820       ?GetPacketName@CSysTabExChartItem@@UAG?AV?$CStringT@DV?$StrTraitMFC_DLL@DV?$ChTraitsCRT@D@ATL@@@@@ATL@@XZ 100c9820 f   _SysTabExChartItem.obj
 0001:000c8840       ?InvokeAddIn@CSysTabExChartItem@@UAGHPBDFJ@Z 100c9840 f   _SysTabExChartItem.obj
 0001:000c8860       ?SetChartItem@CSysTabExChartItem@@UAGXJ@Z 100c9860 f   _SysTabExChartItem.obj
 0001:000c8870       ?SetNOnePageDataCount@CSysTabExChartItem@@UAGXJ@Z 100c9870 f   _SysTabExChartItem.obj
 0001:000c8890       ?SetPacketData@CSysTabExChartItem@@UAGHPBDJJH@Z 100c9890 f   _SysTabExChartItem.obj
 0001:000c88b0       ?ShowInnerToolBar@CSysTabExChartItem@@UAGXH@Z 100c98b0 f   _SysTabExChartItem.obj
 0001:000c88c5       _sndPlaySoundA@8           100c98c5 f   Winmm:WINMM.dll
 0001:000c88cb       _PlaySoundA@12             100c98cb f   Winmm:WINMM.dll
 0001:000c88e0       ??0CExEdit@@QAE@H@Z        100c98e0 f   ExControl:ExEdit.obj
 0001:000c8980       ??0CLoaderEdit@@QAE@PAXH@Z 100c9980 f i ExControl:ExEdit.obj
 0001:000c8c30       ??1CExEdit@@UAE@XZ         100c9c30 f   ExControl:ExEdit.obj
 0001:000c8c60       ??1CExLoadLib@@QAE@XZ      100c9c60 f i ExControl:ExEdit.obj
 0001:000c8c80       ??1CLoaderEdit@@UAE@XZ     100c9c80 f i ExControl:ExEdit.obj
 0001:000c8d00       ??_ECExEdit@@UAEPAXI@Z     100c9d00 f i ExControl:ExEdit.obj
 0001:000c8d00       ??_GCExEdit@@UAEPAXI@Z     100c9d00 f i ExControl:ExEdit.obj
 0001:000c8d60       ??_GCLoaderEdit@@UAEPAXI@Z 100c9d60 f i ExControl:ExEdit.obj
 0001:000c8d60       ??_ECLoaderEdit@@UAEPAXI@Z 100c9d60 f i ExControl:ExEdit.obj
 0001:000c8e00       ?ActionControl@CExEdit@@QAEJPAX@Z 100c9e00 f   ExControl:ExEdit.obj
 0001:000c8e30       ?GetMessageMap@CExEdit@@MBEPBUAFX_MSGMAP@@XZ 100c9e30 f   ExControl:ExEdit.obj
 0001:000c8e40       ?GetRuntimeClass@CExEdit@@UBEPAUCRuntimeClass@@XZ 100c9e40 f   ExControl:ExEdit.obj
 0001:000c8e50       ?GetThisClass@CExEdit@@SGPAUCRuntimeClass@@XZ 100c9e50 f   ExControl:ExEdit.obj
 0001:000c8e60       ?GetThisMessageMap@CExEdit@@KGPBUAFX_MSGMAP@@XZ 100c9e60 f   ExControl:ExEdit.obj
 0001:000c8e70       ?LoadProcAddress@CExLoadLib@@UAEHXZ 100c9e70 f i ExControl:ExEdit.obj
 0001:000c8e80       ?LoadProcAddress@CLoaderEdit@@UAEHXZ 100c9e80 f i ExControl:ExEdit.obj
 0001:000c8f10       ?OnChar@CExEdit@@IAEXIII@Z 100c9f10 f   ExControl:ExEdit.obj
 0001:000c8f40       ?OnPaint@CExEdit@@IAEXXZ   100c9f40 f   ExControl:ExEdit.obj
 0001:000c8f70       ?PreSubclassWindow@CExEdit@@MAEXXZ 100c9f70 f   ExControl:ExEdit.obj
 0001:000c8f90       ?PreTranslateMessage@CExEdit@@UAEHPAUtagMSG@@@Z 100c9f90 f   ExControl:ExEdit.obj
 0001:000c8fa0       ?UseNumericType@CExEdit@@QAEXH@Z 100c9fa0 f   ExControl:ExEdit.obj
 0001:000c8fd0       ?_GetBaseClass@CExEdit@@KGPAUCRuntimeClass@@XZ 100c9fd0 f   ExControl:ExEdit.obj
 0001:000c8fe0       ??0CExComboBox@@QAE@H@Z    100c9fe0 f   ExControl:ExComboBox.obj
 0001:000c9080       ??0CLoaderComboBox@@QAE@PAXH@Z 100ca080 f i ExControl:ExComboBox.obj
 0001:000c9370       ??1CExComboBox@@UAE@XZ     100ca370 f   ExControl:ExComboBox.obj
 0001:000c93a0       ??1CLoaderComboBox@@UAE@XZ 100ca3a0 f i ExControl:ExComboBox.obj
 0001:000c9420       ??_GCExComboBox@@UAEPAXI@Z 100ca420 f i ExControl:ExComboBox.obj
 0001:000c9420       ??_ECExComboBox@@UAEPAXI@Z 100ca420 f i ExControl:ExComboBox.obj
 0001:000c9480       ??_ECLoaderComboBox@@UAEPAXI@Z 100ca480 f i ExControl:ExComboBox.obj
 0001:000c9480       ??_GCLoaderComboBox@@UAEPAXI@Z 100ca480 f i ExControl:ExComboBox.obj
 0001:000c9520       ?CreateObject@CExComboBox@@SGPAVCObject@@XZ 100ca520 f   ExControl:ExComboBox.obj
 0001:000c95e0       ?DrawItem@CExComboBox@@UAEXPAUtagDRAWITEMSTRUCT@@@Z 100ca5e0 f   ExControl:ExComboBox.obj
 0001:000c9610       ?GetMessageMap@CExComboBox@@MBEPBUAFX_MSGMAP@@XZ 100ca610 f   ExControl:ExComboBox.obj
 0001:000c9620       ?GetRuntimeClass@CExComboBox@@UBEPAUCRuntimeClass@@XZ 100ca620 f   ExControl:ExComboBox.obj
 0001:000c9630       ?GetThisClass@CExComboBox@@SGPAUCRuntimeClass@@XZ 100ca630 f   ExControl:ExComboBox.obj
 0001:000c9640       ?GetThisMessageMap@CExComboBox@@KGPBUAFX_MSGMAP@@XZ 100ca640 f   ExControl:ExComboBox.obj
 0001:000c9650       ?LoadProcAddress@CLoaderComboBox@@UAEHXZ 100ca650 f i ExControl:ExComboBox.obj
 0001:000c9720       ?OnLButtonDown@CExComboBox@@IAEXIVCPoint@@@Z 100ca720 f   ExControl:ExComboBox.obj
 0001:000c9750       ?OnLButtonUp@CExComboBox@@IAEXIVCPoint@@@Z 100ca750 f   ExControl:ExComboBox.obj
 0001:000c9780       ?OnMouseMove@CExComboBox@@IAEXIVCPoint@@@Z 100ca780 f   ExControl:ExComboBox.obj
 0001:000c97b0       ?OnPaint@CExComboBox@@IAEXXZ 100ca7b0 f   ExControl:ExComboBox.obj
 0001:000c97e0       ?OnTimer@CExComboBox@@IAEXI@Z 100ca7e0 f   ExControl:ExComboBox.obj
 0001:000c9810       ?PreSubclassWindow@CExComboBox@@MAEXXZ 100ca810 f   ExControl:ExComboBox.obj
 0001:000c9830       ?_GetBaseClass@CExComboBox@@KGPAUCRuntimeClass@@XZ 100ca830 f   ExControl:ExComboBox.obj
 0001:000c9840       ??0?$CArray@PAUHWND__@@PAU1@@@QAE@XZ 100ca840 f i ExControl:ExOCXDLL.obj
 0001:000c9870       ??0?$CList@UST_GSHAREDFORMAT@@U1@@@QAE@H@Z 100ca870 f i ExControl:ExOCXDLL.obj
 0001:000c98b0       ??0?$CList@UST_LSHAREDFORMAT@@U1@@@QAE@H@Z 100ca8b0 f i ExControl:ExOCXDLL.obj
 0001:000c98f0       ??0CExOCXDLL@@QAE@IPAVCWnd@@@Z 100ca8f0 f   ExControl:ExOCXDLL.obj
 0001:000c9ad0       ??0CExOCXDLL@@QAE@XZ       100caad0 f   ExControl:ExOCXDLL.obj
 0001:000c9ca0       ??0CGSharedCli@CExOCXDLL@@QAE@XZ 100caca0 f i ExControl:ExOCXDLL.obj
 0001:000c9d40       ??1CExDialog@@UAE@XZ       100cad40 f i ExControl:ExOCXDLL.obj
 0001:000c9de0       ??1CGSharedCli@CExOCXDLL@@QAE@XZ 100cade0 f i ExControl:ExOCXDLL.obj
 0001:000c9df5       ??_ECExOCXDLL@@WKI@AEPAXI@Z 100cadf5 f i ExControl:ExOCXDLL.obj
 0001:000c9e00       ??_GCExOCXDLL@@UAEPAXI@Z   100cae00 f i ExControl:ExOCXDLL.obj
 0001:000c9e00       ??_ECExOCXDLL@@UAEPAXI@Z   100cae00 f i ExControl:ExOCXDLL.obj
 0001:000c9ec0       ?AddTabStopHandle@CExOCXDLL@@QAAHPAUHWND__@@0ZZ 100caec0 f   ExControl:ExOCXDLL.obj
 0001:000c9f30       ?ChangeFrameSize@CExOCXDLL@@QAEXIFF@Z 100caf30 f   ExControl:ExOCXDLL.obj
 0001:000c9f80       ?ChangedData@CGlobalSharedClient@@UAEHPBD0@Z 100caf80 f i ExControl:ExOCXDLL.obj
 0001:000c9f90       ?ClearTabStopHandle@CExOCXDLL@@QAEXXZ 100caf90 f   ExControl:ExOCXDLL.obj
 0001:000c9fd0       ?CreateObject@CExOCXDLL@@SGPAVCObject@@XZ 100cafd0 f   ExControl:ExOCXDLL.obj
 0001:000ca1d0       ?DoFullWindowSize@CExOCXDLL@@QAEXXZ 100cb1d0 f   ExControl:ExOCXDLL.obj
 0001:000ca230       ?ExMessageBox@CExOCXDLL@@QAEHPBD0I@Z 100cb230 f   ExControl:ExOCXDLL.obj
 0001:000ca310       ?FormLoad@CExOCXDLL@@UAEXXZ 100cb310 f   ExControl:ExOCXDLL.obj
 0001:000ca320       ?FormLoadCompleted@CExOCXDLL@@UAEXXZ 100cb320 f   ExControl:ExOCXDLL.obj
 0001:000ca330       ?GetCodeName@CExOCXDLL@@QAE?AV?$CStringT@DV?$StrTraitMFC_DLL@DV?$ChTraitsCRT@D@ATL@@@@@ATL@@PBD@Z 100cb330 f   ExControl:ExOCXDLL.obj
 0001:000ca470       ?GetData@CBaseCtrlPackIn@@UAEHPADH@Z 100cb470 f i ExControl:ExOCXDLL.obj
 0001:000ca480       ?GetMessageMap@CExOCXDLL@@MBEPBUAFX_MSGMAP@@XZ 100cb480 f   ExControl:ExOCXDLL.obj
 0001:000ca490       ?GetOpenMapData@CExOCXDLL@@QAEJAAV?$CStringT@DV?$StrTraitMFC_DLL@DV?$ChTraitsCRT@D@ATL@@@@@ATL@@@Z 100cb490 f   ExControl:ExOCXDLL.obj
 0001:000ca540       ?GetParameter1@CExOCXDLL@@QAE?AV?$CStringT@DV?$StrTraitMFC_DLL@DV?$ChTraitsCRT@D@ATL@@@@@ATL@@PBD@Z 100cb540 f   ExControl:ExOCXDLL.obj
 0001:000ca5d0       ?GetParameter2@CExOCXDLL@@QAE?AV?$CStringT@DV?$StrTraitMFC_DLL@DV?$ChTraitsCRT@D@ATL@@@@@ATL@@PBD@Z 100cb5d0 f   ExControl:ExOCXDLL.obj
 0001:000ca660       ?GetParameter3@CExOCXDLL@@QAE?AV?$CStringT@DV?$StrTraitMFC_DLL@DV?$ChTraitsCRT@D@ATL@@@@@ATL@@PBD@Z 100cb660 f   ExControl:ExOCXDLL.obj
 0001:000ca6f0       ?GetRuntimeClass@CExOCXDLL@@UBEPAUCRuntimeClass@@XZ 100cb6f0 f   ExControl:ExOCXDLL.obj
 0001:000ca700       ?GetThisClass@CExOCXDLL@@SGPAUCRuntimeClass@@XZ 100cb700 f   ExControl:ExOCXDLL.obj
 0001:000ca710       ?GetThisMessageMap@CExOCXDLL@@KGPBUAFX_MSGMAP@@XZ 100cb710 f   ExControl:ExOCXDLL.obj
 0001:000ca720       ?GotoNextWindowFocus@CExOCXDLL@@IAEHIH@Z 100cb720 f   ExControl:ExOCXDLL.obj
 0001:000ca790       ?ListupControlHandle@CExOCXDLL@@IAEXPAVCWnd@@@Z 100cb790 f   ExControl:ExOCXDLL.obj
 0001:000ca860       ?OnDestroy@CExOCXDLL@@IAEXXZ 100cb860 f   ExControl:ExOCXDLL.obj
 0001:000ca960       ?OnGSharedDataChange@CExOCXDLL@@MAEXPBD0H@Z 100cb960 f   ExControl:ExOCXDLL.obj
 0001:000ca970       ?OnInitDialog@CExOCXDLL@@MAEHXZ 100cb970 f   ExControl:ExOCXDLL.obj
 0001:000ca980       ?OnLShareChanged@CExOCXDLL@@IAEJIJ@Z 100cb980 f   ExControl:ExOCXDLL.obj
 0001:000caa50       ?OnLSharedDataChange@CExOCXDLL@@MAEXPBD0H@Z 100cba50 f   ExControl:ExOCXDLL.obj
 0001:000caa60       ?OnSetFocus@CExOCXDLL@@IAEXPAVCWnd@@@Z 100cba60 f   ExControl:ExOCXDLL.obj
 0001:000cab30       ?Packet_GetData@CExOCXDLL@@MAEHPADH@Z 100cbb30 f   ExControl:ExOCXDLL.obj
 0001:000cab40       ?Packet_GetPackDataSize@CExOCXDLL@@MAEHPAD@Z 100cbb40 f   ExControl:ExOCXDLL.obj
 0001:000cab50       ?Packet_SetData2@CExOCXDLL@@MAEHPADH@Z 100cbb50 f   ExControl:ExOCXDLL.obj
 0001:000cab60       ?Packet_SetData3@CExOCXDLL@@MAEHPADH@Z 100cbb60 f   ExControl:ExOCXDLL.obj
 0001:000cab70       ?Packet_SetData999@CExOCXDLL@@MAEHHPADH@Z 100cbb70 f   ExControl:ExOCXDLL.obj
 0001:000cab80       ?Packet_SetData@CExOCXDLL@@MAEHPADH@Z 100cbb80 f   ExControl:ExOCXDLL.obj
 0001:000cab90       ?Platform_GetBase@CExOCXDLL@@MAEJPBD@Z 100cbb90 f   ExControl:ExOCXDLL.obj
 0001:000cabe0       ?Platform_GetKey@CExOCXDLL@@MAEJPBD@Z 100cbbe0 f   ExControl:ExOCXDLL.obj
 0001:000cabf0       ?Platform_GetState@CExOCXDLL@@MAEJHJJ@Z 100cbbf0 f   ExControl:ExOCXDLL.obj
 0001:000cac00       ?Platform_Initialize@CExOCXDLL@@MAEXJJJPAVCStringList@@@Z 100cbc00 f   ExControl:ExOCXDLL.obj
 0001:000cae40       ?Platform_OnSize@CExOCXDLL@@MAEXIHH@Z 100cbe40 f   ExControl:ExOCXDLL.obj
 0001:000cae60       ?Platform_PreTranslateMessage@CExOCXDLL@@MAEJPAUtagMSG@@@Z 100cbe60 f   ExControl:ExOCXDLL.obj
 0001:000cae70       ?Platform_SetKey@CExOCXDLL@@MAEXPBDJ@Z 100cbe70 f   ExControl:ExOCXDLL.obj
 0001:000cae80       ?Platform_SetProperty@CExOCXDLL@@MAEXPAUSTDATAITEM@@H@Z 100cbe80 f   ExControl:ExOCXDLL.obj
 0001:000cae90       ?Platform_SetState@CExOCXDLL@@MAEJHJJ@Z 100cbe90 f   ExControl:ExOCXDLL.obj
 0001:000caea0       ?Platform_WindowProc@CExOCXDLL@@MAEJIIJAAH@Z 100cbea0 f   ExControl:ExOCXDLL.obj
 0001:000caf00       ?PreTranslateMessage@CExOCXDLL@@UAEHPAUtagMSG@@@Z 100cbf00 f   ExControl:ExOCXDLL.obj
 0001:000cb150       ?ReceiveData@CExDialog@@UAEJJPBD00PAXJ@Z 100cc150 f i ExControl:ExOCXDLL.obj
 0001:000cb160       ?ReceiveMessage@CExDialog@@UAEJJPBD00@Z 100cc160 f i ExControl:ExOCXDLL.obj
 0001:000cb170       ?ReceiveRealData@CExDialog@@UAEJGPBDPAX@Z 100cc170 f i ExControl:ExOCXDLL.obj
 0001:000cb180       ?RemoveParameter1@CExOCXDLL@@QAEXXZ 100cc180 f   ExControl:ExOCXDLL.obj
 0001:000cb1b0       ?RemoveParameter2@CExOCXDLL@@QAEXXZ 100cc1b0 f   ExControl:ExOCXDLL.obj
 0001:000cb1e0       ?RemoveParameter3@CExOCXDLL@@QAEXXZ 100cc1e0 f   ExControl:ExOCXDLL.obj
 0001:000cb210       ?SendMessageString@CExOCXDLL@@QAEXPBD@Z 100cc210 f   ExControl:ExOCXDLL.obj
 0001:000cb230       ?SetAtGrow@?$CArray@PAUHWND__@@PAU1@@@QAEXHPAUHWND__@@@Z 100cc230 f i ExControl:ExOCXDLL.obj
 0001:000cb270       ?SetOpenMapData@CExOCXDLL@@QAEXPBD@Z 100cc270 f   ExControl:ExOCXDLL.obj
 0001:000cb320       ?SetParameters1@CExOCXDLL@@QAEXV?$CStringT@DV?$StrTraitMFC_DLL@DV?$ChTraitsCRT@D@ATL@@@@@ATL@@@Z 100cc320 f   ExControl:ExOCXDLL.obj
 0001:000cb450       ?SetParameters2@CExOCXDLL@@QAEXV?$CStringT@DV?$StrTraitMFC_DLL@DV?$ChTraitsCRT@D@ATL@@@@@ATL@@@Z 100cc450 f   ExControl:ExOCXDLL.obj
 0001:000cb580       ?SetParameters3@CExOCXDLL@@QAEXV?$CStringT@DV?$StrTraitMFC_DLL@DV?$ChTraitsCRT@D@ATL@@@@@ATL@@@Z 100cc580 f   ExControl:ExOCXDLL.obj
 0001:000cb6b0       ?SetPermanentHandle@CExOCXDLL@@QAEXPAVCWnd@@@Z 100cc6b0 f   ExControl:ExOCXDLL.obj
 0001:000cb6e0       ?SetSize@?$CArray@PAXPAX@@QAEXHH@Z 100cc6e0 f i ExControl:ExOCXDLL.obj
 0001:000cb8a0       ?StatusChange@CExDialog@@UAEJH@Z 100cc8a0 f i ExControl:ExOCXDLL.obj
 0001:000cb8b0       ?_GetBaseClass@CExOCXDLL@@KGPAUCRuntimeClass@@XZ 100cc8b0 f   ExControl:ExOCXDLL.obj
 0001:000cb8c0       ??0CExStatic@@QAE@H@Z      100cc8c0 f   ExControl:ExStatic.obj
 0001:000cb960       ??0CLoaderStatic@@QAE@PAXH@Z 100cc960 f i ExControl:ExStatic.obj
 0001:000cbc70       ??1CExStatic@@UAE@XZ       100ccc70 f   ExControl:ExStatic.obj
 0001:000cbd20       ??_GCExStatic@@UAEPAXI@Z   100ccd20 f i ExControl:ExStatic.obj
 0001:000cbd20       ??_ECExStatic@@UAEPAXI@Z   100ccd20 f i ExControl:ExStatic.obj
 0001:000cbdf0       ?ActionControl@CExStatic@@QAEJPAX@Z 100ccdf0 f   ExControl:ExStatic.obj
 0001:000cbe20       ?CreateObject@CExStatic@@SGPAVCObject@@XZ 100cce20 f   ExControl:ExStatic.obj
 0001:000cbee0       ?GetMessageMap@CExStatic@@MBEPBUAFX_MSGMAP@@XZ 100ccee0 f   ExControl:ExStatic.obj
 0001:000cbef0       ?GetRuntimeClass@CExStatic@@UBEPAUCRuntimeClass@@XZ 100ccef0 f   ExControl:ExStatic.obj
 0001:000cbf00       ?GetThisClass@CExStatic@@SGPAUCRuntimeClass@@XZ 100ccf00 f   ExControl:ExStatic.obj
 0001:000cbf10       ?GetThisMessageMap@CExStatic@@KGPBUAFX_MSGMAP@@XZ 100ccf10 f   ExControl:ExStatic.obj
 0001:000cbf20       ?GetWindowTextA@CExStatic@@QAEXAAV?$CStringT@DV?$StrTraitMFC_DLL@DV?$ChTraitsCRT@D@ATL@@@@@ATL@@@Z 100ccf20 f   ExControl:ExStatic.obj
 0001:000cbf50       ?LoadProcAddress@CLoaderStatic@@UAEHXZ 100ccf50 f i ExControl:ExStatic.obj
 0001:000cc070       ?OnEraseBkgnd@CExStatic@@IAEHPAVCDC@@@Z 100cd070 f   ExControl:ExStatic.obj
 0001:000cc0a0       ?OnPaint@CExStatic@@IAEXXZ 100cd0a0 f   ExControl:ExStatic.obj
 0001:000cc120       ?PreSubclassWindow@CExStatic@@MAEXXZ 100cd120 f   ExControl:ExStatic.obj
 0001:000cc140       ?SetIconImage@CExStatic@@QAEHVCSize@@PAUHICON__@@I@Z 100cd140 f   ExControl:ExStatic.obj
 0001:000cc180       ?SetSkinIndex@CExStatic@@QAEHIII@Z 100cd180 f   ExControl:ExStatic.obj
 0001:000cc1f0       ?SetSkinString@CExStatic@@QAEHPBD00@Z 100cd1f0 f   ExControl:ExStatic.obj
 0001:000cc260       ?SetStaticColor@CExStatic@@QAEHKKK@Z 100cd260 f   ExControl:ExStatic.obj
 0001:000cc2a0       ?SetText@CExStatic@@QAEXPBD@Z 100cd2a0 f   ExControl:ExStatic.obj
 0001:000cc2d0       ?WindowProc@CExStatic@@MAEJIIJ@Z 100cd2d0 f   ExControl:ExStatic.obj
 0001:000cc310       ?_GetBaseClass@CExStatic@@KGPAUCRuntimeClass@@XZ 100cd310 f   ExControl:ExStatic.obj
 0001:000cc320       ?AddSharedNameToServer@CGSharedCli@CExOCXDLL@@QAEHXZ 100cd320 f   ExControl:CtrlGlobalSharedData.obj
 0001:000cc340       ?Advise@CGSharedCli@CExOCXDLL@@QAEHPBDPAVCGlobalSharedClient@@@Z 100cd340 f   ExControl:CtrlGlobalSharedData.obj
 0001:000cc360       ?CallCheckSharedData@CGSharedCli@CExOCXDLL@@QAEXPBD@Z 100cd360 f   ExControl:CtrlGlobalSharedData.obj
 0001:000cc480       ?ChangedData@CGSharedCli@CExOCXDLL@@UAEHPBD0@Z 100cd480 f   ExControl:CtrlGlobalSharedData.obj
 0001:000cc640       ?FindShareData@CGSharedCli@CExOCXDLL@@QAEPAU__POSITION@@PBD@Z 100cd640 f   ExControl:CtrlGlobalSharedData.obj
 0001:000cc770       ?GetData2@CGSharedCli@CExOCXDLL@@QAEPBDPBD@Z 100cd770 f   ExControl:CtrlGlobalSharedData.obj
 0001:000cc790       ?GetData@CGSharedCli@CExOCXDLL@@QAEHPBDAAV?$CStringT@DV?$StrTraitMFC_DLL@DV?$ChTraitsCRT@D@ATL@@@@@ATL@@@Z 100cd790 f   ExControl:CtrlGlobalSharedData.obj
 0001:000cc7b0       ?IniStartGShareData@CGSharedCli@CExOCXDLL@@QAEXXZ 100cd7b0 f   ExControl:CtrlGlobalSharedData.obj
 0001:000cc8d0       ?MakeList@CGSharedCli@CExOCXDLL@@QAEXV?$CStringT@DV?$StrTraitMFC_DLL@DV?$ChTraitsCRT@D@ATL@@@@@ATL@@@Z 100cd8d0 f   ExControl:CtrlGlobalSharedData.obj
 0001:000ccae0       ?RemoveSharedNameToServer@CGSharedCli@CExOCXDLL@@QAEHXZ 100cdae0 f   ExControl:CtrlGlobalSharedData.obj
 0001:000ccb00       ?SetData@CGSharedCli@CExOCXDLL@@QAEHPBD0@Z 100cdb00 f   ExControl:CtrlGlobalSharedData.obj
 0001:000ccb30       ?UnAdvise@CGSharedCli@CExOCXDLL@@QAEHPBDPAVCGlobalSharedClient@@@Z 100cdb30 f   ExControl:CtrlGlobalSharedData.obj
 0001:000ccb50       ??$SerializeElements@PAVCExItem@@@@YGXAAVCArchive@@PAPAVCExItem@@H@Z 100cdb50 f i ExControl:ExResize.obj
 0001:000ccc00       ??0?$CArray@PAVCExItem@@AAPAV1@@@QAE@XZ 100cdc00 f i ExControl:ExResize.obj
 0001:000ccc30       ??0CExItem@@QAE@PAVCWnd@@ABVCExResizeRect@@AAVCRect@@H@Z 100cdc30 f   ExControl:ExResize.obj
 0001:000ccca0       ??0CExResize@@QAE@PAVCWnd@@I@Z 100cdca0 f   ExControl:ExResize.obj
 0001:000ccdd0       ??0CExSizeIcon@@QAE@XZ     100cddd0 f   ExControl:ExResize.obj
 0001:000cce20       ??1?$CArray@PAVCExItem@@AAPAV1@@@UAE@XZ 100cde20 f i ExControl:ExResize.obj
 0001:000cce40       ??1CExItem@@UAE@XZ         100cde40 f   ExControl:ExResize.obj
 0001:000cceb0       ??1CExResize@@UAE@XZ       100cdeb0 f   ExControl:ExResize.obj
 0001:000ccf40       ??_E?$CArray@PAVCExItem@@AAPAV1@@@UAEPAXI@Z 100cdf40 f i ExControl:ExResize.obj
 0001:000ccf40       ??_G?$CArray@PAVCExItem@@AAPAV1@@@UAEPAXI@Z 100cdf40 f i ExControl:ExResize.obj
 0001:000ccf90       ??_GCExItem@@UAEPAXI@Z     100cdf90 f i ExControl:ExResize.obj
 0001:000ccf90       ??_ECExItem@@UAEPAXI@Z     100cdf90 f i ExControl:ExResize.obj
 0001:000cd010       ??_GCExResize@@UAEPAXI@Z   100ce010 f i ExControl:ExResize.obj
 0001:000cd010       ??_ECExResize@@UAEPAXI@Z   100ce010 f i ExControl:ExResize.obj
 0001:000cd0c0       ??_GCExSizeIcon@@UAEPAXI@Z 100ce0c0 f i ExControl:ExResize.obj
 0001:000cd0c0       ??_ECExSizeIcon@@UAEPAXI@Z 100ce0c0 f i ExControl:ExResize.obj
 0001:000cd110       ?AutoLoadPlacement@CExResize@@QAEXPBD@Z 100ce110 f   ExControl:ExResize.obj
 0001:000cd190       ?Defer@CExResize@@IAEHAAPAXPAVCExItem@@HH@Z 100ce190 f   ExControl:ExResize.obj
 0001:000cd390       ?GetMessageMap@CExSizeIcon@@MBEPBUAFX_MSGMAP@@XZ 100ce390 f   ExControl:ExResize.obj
 0001:000cd3a0       ?GetMinMaxInfo@CExResize@@IAEXPAUtagMINMAXINFO@@@Z 100ce3a0 f   ExControl:ExResize.obj
 0001:000cd410       ?GetThisMessageMap@CExSizeIcon@@KGPBUAFX_MSGMAP@@XZ 100ce410 f   ExControl:ExResize.obj
 0001:000cd420       ?Init@CExResize@@IAEXXZ    100ce420 f   ExControl:ExResize.obj
 0001:000cd570       ?LoadPlacement@CExResize@@QAEXPBD@Z 100ce570 f   ExControl:ExResize.obj
 0001:000cd5e0       ?OnCreate@CExSizeIcon@@IAEHPAUtagCREATESTRUCTA@@@Z 100ce5e0 f   ExControl:ExResize.obj
 0001:000cd640       ?OnLButtonDown@CExSizeIcon@@IAEXIVCPoint@@@Z 100ce640 f   ExControl:ExResize.obj
 0001:000cd6a0       ?OnMouseMove@CExSizeIcon@@IAEXIVCPoint@@@Z 100ce6a0 f   ExControl:ExResize.obj
 0001:000cd6d0       ?OnSetCursor@CExSizeIcon@@IAEHPAVCWnd@@II@Z 100ce6d0 f   ExControl:ExResize.obj
 0001:000cd6f0       ?RemoveAllControls@CExResize@@IAEXXZ 100ce6f0 f   ExControl:ExResize.obj
 0001:000cd760       ?RemoveAt@?$CArray@PAVCExItem@@AAPAV1@@@QAEXHH@Z 100ce760 f i ExControl:ExResize.obj
 0001:000cd800       ?RemoveResize@CExResize@@IAEHI@Z 100ce800 f   ExControl:ExResize.obj
 0001:000cd900       ?Reset@CExResize@@IAEXXZ   100ce900 f   ExControl:ExResize.obj
 0001:000cd950       ?SavePlacement@CExResize@@QAEXPBD@Z 100ce950 f   ExControl:ExResize.obj
 0001:000cd9a0       ?Serialize@?$CArray@PAVCExItem@@AAPAV1@@@UAEXAAVCArchive@@@Z 100ce9a0 f i ExControl:ExResize.obj
 0001:000cda80       ?SetAtGrow@?$CArray@PAVCExItem@@AAPAV1@@@QAEXHAAPAVCExItem@@@Z 100cea80 f i ExControl:ExResize.obj
 0001:000cdac0       ?SetFlag@CExResize@@IAEXW4EFlags@1@@Z 100ceac0 f   ExControl:ExResize.obj
 0001:000cdae0       ?SetResize@CExResize@@IAEXPAVCWnd@@ABVCExResizeRect@@VCRect@@@Z 100ceae0 f   ExControl:ExResize.obj
 0001:000cdb80       ?SetResize@CExResize@@QAEXIQAUHWND__@@ABUEX_RESIZERECT@@@Z 100ceb80 f   ExControl:ExResize.obj
 0001:000cde30       ?SetResize@CExResize@@QAEXQAUEX_SIZING@@@Z 100cee30 f   ExControl:ExResize.obj
 0001:000cde40       ?SetSize@?$CArray@PAVCExItem@@AAPAV1@@@QAEXHH@Z 100cee40 f i ExControl:ExResize.obj
 0001:000ce020       ?Size@CExResize@@IAEXXZ    100cf020 f   ExControl:ExResize.obj
 0001:000ce190       ??$CompareElements@P6AXXZP6AXXZ@@YGHPBQ6AXXZ0@Z 100cf190 f i ExControl:ExDialog.obj
 0001:000ce1c0       ??0?$CList@P6AXXZP6AXXZ@@QAE@H@Z 100cf1c0 f i ExControl:ExDialog.obj
 0001:000ce200       ??0CExDialog@@QAE@IPAVCWnd@@I@Z 100cf200 f   ExControl:ExDialog.obj
 0001:000ce350       ??0CExDialog@@QAE@XZ       100cf350 f   ExControl:ExDialog.obj
 0001:000ce480       ??0CPCTrMngHelper@@QAE@XZ  100cf480 f i ExControl:ExDialog.obj
 0001:000ce730       ??1CLoadLib@@QAE@XZ        100cf730 f i ExControl:ExDialog.obj
 0001:000ce78d       ??_ECExDialog@@WKI@AEPAXI@Z 100cf78d f i ExControl:ExDialog.obj
 0001:000ce7a0       ??_GCExDialog@@UAEPAXI@Z   100cf7a0 f i ExControl:ExDialog.obj
 0001:000ce7a0       ??_ECExDialog@@UAEPAXI@Z   100cf7a0 f i ExControl:ExDialog.obj
 0001:000ce880       ?ColorTableChanged@CMyISkinColorSite@CExDialog@@UAGXXZ 100cf880 f i ExControl:ExDialog.obj
 0001:000ce8c0       ?CreateObject@CExDialog@@SGPAVCObject@@XZ 100cf8c0 f   ExControl:ExDialog.obj
 0001:000cea20       ?Find@?$CList@P6AXXZP6AXXZ@@QBEPAU__POSITION@@P6AXXZPAU2@@Z 100cfa20 f i ExControl:ExDialog.obj
 0001:000cea60       ?FreeNode@?$CList@P6AXXZP6AXXZ@@IAEXPAUCNode@1@@Z 100cfa60 f i ExControl:ExDialog.obj
 0001:000ceab0       ?GetMessageMap@CExDialog@@MBEPBUAFX_MSGMAP@@XZ 100cfab0 f   ExControl:ExDialog.obj
 0001:000ceac0       ?GetRuntimeClass@CExDialog@@UBEPAUCRuntimeClass@@XZ 100cfac0 f   ExControl:ExDialog.obj
 0001:000cead0       ?GetThisClass@CExDialog@@SGPAUCRuntimeClass@@XZ 100cfad0 f   ExControl:ExDialog.obj
 0001:000ceae0       ?GetThisMessageMap@CExDialog@@KGPBUAFX_MSGMAP@@XZ 100cfae0 f   ExControl:ExDialog.obj
 0001:000ceaf0       ?LoadProcAddress@CLoadLib@@UAEHXZ 100cfaf0 f i ExControl:ExDialog.obj
 0001:000ceb00       ?LoadProcAddress@CPCTrMngHelper@@UAEHXZ 100cfb00 f i ExControl:ExDialog.obj
 0001:000ceb70       ?NotifyToCtrlColorTableChanged@CExDialog@@IAEXXZ 100cfb70 f   ExControl:ExDialog.obj
 0001:000ceb90       ?OnCtlColor@CExDialog@@IAEPAUHBRUSH__@@PAVCDC@@PAVCWnd@@I@Z 100cfb90 f   ExControl:ExDialog.obj
 0001:000cec10       ?OnDestroy@CExDialog@@IAEXXZ 100cfc10 f   ExControl:ExDialog.obj
 0001:000ced40       ?OnEraseBkgnd@CExDialog@@IAEHPAVCDC@@@Z 100cfd40 f   ExControl:ExDialog.obj
 0001:000cedc0       ?OnGetMinMaxInfo@CExDialog@@IAEXPAUtagMINMAXINFO@@@Z 100cfdc0 f   ExControl:ExDialog.obj
 0001:000cedd0       ?OnInitDialog@CExDialog@@MAEHXZ 100cfdd0 f   ExControl:ExDialog.obj
 0001:000cef20       ?OnSize@CExDialog@@IAEXIHH@Z 100cff20 f   ExControl:ExDialog.obj
 0001:000cef40       ?ReceiveData@CMyITrCommSite@CExDialog@@UAGJJPBD00PAXJ@Z 100cff40 f i ExControl:ExDialog.obj
 0001:000cef90       ?ReceiveMessage@CMyITrCommSite@CExDialog@@UAGJJPBD00@Z 100cff90 f i ExControl:ExDialog.obj
 0001:000cefc0       ?ReceiveRealData@CMyITrCommSite@CExDialog@@UAGJGPBDPAX@Z 100cffc0 f i ExControl:ExDialog.obj
 0001:000cf010       ?RemoveAt@?$CList@P6AXXZP6AXXZ@@QAEXPAU__POSITION@@@Z 100d0010 f i ExControl:ExDialog.obj
 0001:000cf080       ?RemoveChangeSkinNotifyFunction@CExDialog@@QAEXPAU__POSITION@@@Z 100d0080 f   ExControl:ExDialog.obj
 0001:000cf120       ?SetBaseInterface@CExDialog@@QAEXI@Z 100d0120 f   ExControl:ExDialog.obj
 0001:000cf210       ?SetChangeSkinNotifyFunction@CExDialog@@QAEPAU__POSITION@@P6AXXZ@Z 100d0210 f   ExControl:ExDialog.obj
 0001:000cf260       ?StatusChange@CMyITrCommSite@CExDialog@@UAGJH@Z 100d0260 f i ExControl:ExDialog.obj
 0001:000cf280       ?_GetBaseClass@CExDialog@@KGPAUCRuntimeClass@@XZ 100d0280 f   ExControl:ExDialog.obj
 0001:000cf290       ??0CExTabCtrl@@QAE@H@Z     100d0290 f   ExControl:ExTabCtrl.obj
 0001:000cf330       ??0CLoaderTabCtrl@@QAE@PAXH@Z 100d0330 f i ExControl:ExTabCtrl.obj
 0001:000cf690       ??1CExTabCtrl@@UAE@XZ      100d0690 f   ExControl:ExTabCtrl.obj
 0001:000cf6c0       ??1CLoaderTabCtrl@@UAE@XZ  100d06c0 f i ExControl:ExTabCtrl.obj
 0001:000cf740       ??_ECExTabCtrl@@UAEPAXI@Z  100d0740 f i ExControl:ExTabCtrl.obj
 0001:000cf740       ??_GCExTabCtrl@@UAEPAXI@Z  100d0740 f i ExControl:ExTabCtrl.obj
 0001:000cf7a0       ??_GCLoaderTabCtrl@@UAEPAXI@Z 100d07a0 f i ExControl:ExTabCtrl.obj
 0001:000cf7a0       ??_ECLoaderTabCtrl@@UAEPAXI@Z 100d07a0 f i ExControl:ExTabCtrl.obj
 0001:000cf840       ??_GCTabCtrl@@UAEPAXI@Z    100d0840 f i ExControl:ExTabCtrl.obj
 0001:000cf840       ??_ECTabCtrl@@UAEPAXI@Z    100d0840 f i ExControl:ExTabCtrl.obj
 0001:000cf880       ?AddChildControl@CExTabCtrl@@QAEXPAVCWnd@@@Z 100d0880 f   ExControl:ExTabCtrl.obj
 0001:000cf8b0       ?DrawItem@CExTabCtrl@@MAEXPAUtagDRAWITEMSTRUCT@@@Z 100d08b0 f   ExControl:ExTabCtrl.obj
 0001:000cf8e0       ?GetMessageMap@CExTabCtrl@@MBEPBUAFX_MSGMAP@@XZ 100d08e0 f   ExControl:ExTabCtrl.obj
 0001:000cf8f0       ?GetThisMessageMap@CExTabCtrl@@KGPBUAFX_MSGMAP@@XZ 100d08f0 f   ExControl:ExTabCtrl.obj
 0001:000cf900       ?InsertItem@CExTabCtrl@@QAEXHPADHI@Z 100d0900 f   ExControl:ExTabCtrl.obj
 0001:000cf930       ?InsertItem@CExTabCtrl@@QAEXHPADI@Z 100d0930 f   ExControl:ExTabCtrl.obj
 0001:000cf960       ?InsertItem@CExTabCtrl@@QAEXHPAUtagTCITEMA@@I@Z 100d0960 f   ExControl:ExTabCtrl.obj
 0001:000cf990       ?LoadProcAddress@CLoaderTabCtrl@@UAEHXZ 100d0990 f i ExControl:ExTabCtrl.obj
 0001:000cfb30       ?OnEraseBkgnd@CExTabCtrl@@IAEHPAVCDC@@@Z 100d0b30 f   ExControl:ExTabCtrl.obj
 0001:000cfb60       ?OnHScroll@CExTabCtrl@@IAEXIIPAVCScrollBar@@@Z 100d0b60 f   ExControl:ExTabCtrl.obj
 0001:000cfb90       ?OnKillFocus@CExTabCtrl@@IAEXPAVCWnd@@@Z 100d0b90 f   ExControl:ExTabCtrl.obj
 0001:000cfbc0       ?OnMouseLeave@CExTabCtrl@@IAEJIJ@Z 100d0bc0 f   ExControl:ExTabCtrl.obj
 0001:000cfbf0       ?OnMouseMove@CExTabCtrl@@IAEXIVCPoint@@@Z 100d0bf0 f   ExControl:ExTabCtrl.obj
 0001:000cfc20       ?OnPaint@CExTabCtrl@@IAEXXZ 100d0c20 f   ExControl:ExTabCtrl.obj
 0001:000cfca0       ?OnSelchange@CExTabCtrl@@IAEHPAUtagNMHDR@@PAJ@Z 100d0ca0 f   ExControl:ExTabCtrl.obj
 0001:000cfce0       ?OnSelchanging@CExTabCtrl@@IAEHPAUtagNMHDR@@PAJ@Z 100d0ce0 f   ExControl:ExTabCtrl.obj
 0001:000cfd20       ?OnSetFocus@CExTabCtrl@@IAEXPAVCWnd@@@Z 100d0d20 f   ExControl:ExTabCtrl.obj
 0001:000cfd50       ?OnSize@CExTabCtrl@@IAEXIHH@Z 100d0d50 f   ExControl:ExTabCtrl.obj
 0001:000cfd80       ?PreSubclassWindow@CExTabCtrl@@MAEXXZ 100d0d80 f   ExControl:ExTabCtrl.obj
 0001:000cfda0       ?RemoveChildControl@CExTabCtrl@@QAEXPAVCWnd@@@Z 100d0da0 f   ExControl:ExTabCtrl.obj
 0001:000cfdd0       ?SetSTTabColor@CExTabCtrl@@QAEXJ@Z 100d0dd0 f   ExControl:ExTabCtrl.obj
 0001:000cfe00       ?SetTabColor@CExTabCtrl@@QAEXKKK@Z 100d0e00 f   ExControl:ExTabCtrl.obj
 0001:000cfe30       ?WindowProc@CExTabCtrl@@MAEJIIJ@Z 100d0e30 f   ExControl:ExTabCtrl.obj
 0001:000cfe70       ?Serialize@?$CArray@PAXPAX@@UAEXAAVCArchive@@@Z 100d0e70 f i ExControl:StdAfx.obj
 0001:000cff50       ??_G?$CArray@PAXPAX@@UAEPAXI@Z 100d0f50 f i ExControl:StdAfx.obj
 0001:000cff50       ??_E?$CArray@PAXPAX@@UAEPAXI@Z 100d0f50 f i ExControl:StdAfx.obj
 0001:000cffa0       ??0?$CArray@PAXPAX@@QAE@XZ 100d0fa0 f i ExControl:StdAfx.obj
 0001:000cffd0       ??1?$CArray@PAXPAX@@UAE@XZ 100d0fd0 f i ExControl:StdAfx.obj
 0001:000cfff0       ?CompareParamter@@YAHPADV?$CStringT@DV?$StrTraitMFC_DLL@DV?$ChTraitsCRT@D@ATL@@@@@ATL@@@Z 100d0ff0 f   ExControl:StdAfx.obj
 0001:000d00b0       ?CreateObject@?$CThreadLocal@VAFX_MODULE_THREAD_STATE@@@@SGPAVCNoTrackObject@@XZ 100d10b0 f i ExControl:StdAfx.obj
 0001:000d0120       ?GetParamterValue@@YAXPBDAAV?$CStringT@DV?$StrTraitMFC_DLL@DV?$ChTraitsCRT@D@ATL@@@@@ATL@@V12@@Z 100d1120 f   ExControl:StdAfx.obj
 0001:000d0210       ?RemovePermanentHandle@@YAXPAX@Z 100d1210 f   ExControl:StdAfx.obj
 0001:000d0250       ?SetAtGrow@?$CArray@PAXPAX@@QAEXHPAX@Z 100d1250 f i ExControl:StdAfx.obj
 0001:000d0290       ?SetPermanentHandle@@YAXPAXPAVCObject@@@Z 100d1290 f   ExControl:StdAfx.obj
 0001:000d0360       ?AddRef@XPlatformObj@CExOCXDLL@@UAGKXZ 100d1360 f   ExControl:CtlInterpace.obj
 0001:000d0370       ?AddRef@XWndObj@CExOCXDLL@@UAGKXZ 100d1370 f   ExControl:CtlInterpace.obj
 0001:000d0380       ?OnSize@XWndObj@CExOCXDLL@@UAGXIHH@Z 100d1380 f   ExControl:CtlInterpace.obj
 0001:000d03b0       ?PFGetBase@XPlatformObj@CExOCXDLL@@UAGJPBD@Z 100d13b0 f   ExControl:CtlInterpace.obj
 0001:000d03d0       ?PFGetKey@XPlatformObj@CExOCXDLL@@UAGJPBD@Z 100d13d0 f   ExControl:CtlInterpace.obj
 0001:000d03f0       ?PFGetState@XPlatformObj@CExOCXDLL@@UAGJHJJ@Z 100d13f0 f   ExControl:CtlInterpace.obj
 0001:000d0420       ?PFInitialize@XPlatformObj@CExOCXDLL@@UAGXJJJPAVCStringList@@@Z 100d1420 f   ExControl:CtlInterpace.obj
 0001:000d0450       ?PFPreTranslateMessage@XPlatformObj@CExOCXDLL@@UAGJPAUtagMSG@@@Z 100d1450 f   ExControl:CtlInterpace.obj
 0001:000d0470       ?PFSetKey@XPlatformObj@CExOCXDLL@@UAGXPBDJ@Z 100d1470 f   ExControl:CtlInterpace.obj
 0001:000d0490       ?PFSetProperty@XPlatformObj@CExOCXDLL@@UAGXPAUSTDATAITEM@@H@Z 100d1490 f   ExControl:CtlInterpace.obj
 0001:000d04b0       ?PFSetState@XPlatformObj@CExOCXDLL@@UAGJHJJ@Z 100d14b0 f   ExControl:CtlInterpace.obj
 0001:000d04e0       ?PFWindowProc@XPlatformObj@CExOCXDLL@@UAGJIIJAAH@Z 100d14e0 f   ExControl:CtlInterpace.obj
 0001:000d0510       ?QueryInterface@XPlatformObj@CExOCXDLL@@UAGJABU_GUID@@PAPAX@Z 100d1510 f   ExControl:CtlInterpace.obj
 0001:000d0520       ?QueryInterface@XWndObj@CExOCXDLL@@UAGJABU_GUID@@PAPAX@Z 100d1520 f   ExControl:CtlInterpace.obj
 0001:000d0530       ?Release@XPlatformObj@CExOCXDLL@@UAGKXZ 100d1530 f   ExControl:CtlInterpace.obj
 0001:000d0540       ?Release@XWndObj@CExOCXDLL@@UAGKXZ 100d1540 f   ExControl:CtlInterpace.obj
 0001:000d0550       ??0CImplPackOut@CExOCXDLL@@QAE@XZ 100d1550 f   ExControl:CtlPackInOut.obj
 0001:000d0560       ?GetData@CImplPackIn@CExOCXDLL@@UAEHPADH@Z 100d1560 f   ExControl:CtlPackInOut.obj
 0001:000d0580       ?GetPackDataSize@CBaseCtrlPackOut@@UAEHPAD@Z 100d1580 f i ExControl:CtlPackInOut.obj
 0001:000d0590       ?GetPackDataSize@CImplPackOut@CExOCXDLL@@UAEHPAD@Z 100d1590 f   ExControl:CtlPackInOut.obj
 0001:000d05b0       ?SetData2@CBaseCtrlPackOut@@UAEHPADH@Z 100d15b0 f i ExControl:CtlPackInOut.obj
 0001:000d05c0       ?SetData2@CImplPackOut@CExOCXDLL@@UAEHPADH@Z 100d15c0 f   ExControl:CtlPackInOut.obj
 0001:000d05e0       ?SetData3@CBaseCtrlPackOut@@UAEHPADH@Z 100d15e0 f i ExControl:CtlPackInOut.obj
 0001:000d05f0       ?SetData3@CImplPackOut@CExOCXDLL@@UAEHPADH@Z 100d15f0 f   ExControl:CtlPackInOut.obj
 0001:000d0610       ?SetData999@CBaseCtrlPackOut@@UAEHHPADH@Z 100d1610 f i ExControl:CtlPackInOut.obj
 0001:000d0620       ?SetData999@CImplPackOut@CExOCXDLL@@UAEHHPADH@Z 100d1620 f   ExControl:CtlPackInOut.obj
 0001:000d0640       ?SetData@CBaseCtrlPackOut@@UAEHPADH@Z 100d1640 f i ExControl:CtlPackInOut.obj
 0001:000d0650       ?SetData@CImplPackOut@CExOCXDLL@@UAEHPADH@Z 100d1650 f   ExControl:CtlPackInOut.obj
 0001:000d0670       ?ChangedLShareData@CExOCXDLL@@QAEHPBD0@Z 100d1670 f   ExControl:CtlSharedData.obj
 0001:000d06a0       ?InitGet@CExOCXDLL@@QAEHPBD@Z 100d16a0 f   ExControl:CtlSharedData.obj
 0001:000d06b0       ?InitLSharedData@CExOCXDLL@@QAEHXZ 100d16b0 f   ExControl:CtlSharedData.obj
 0001:000d0960       ?InitSet@CExOCXDLL@@QAEHXZ 100d1960 f   ExControl:CtlSharedData.obj
 0001:000d0970       ?InitStart@CExOCXDLL@@QAEHPBDAAV?$CStringT@DV?$StrTraitMFC_DLL@DV?$ChTraitsCRT@D@ATL@@@@@ATL@@@Z 100d1970 f   ExControl:CtlSharedData.obj
 0001:000d09c0       ?ParedShareDataChange@CExOCXDLL@@QAEHPBD0@Z 100d19c0 f   ExControl:CtlSharedData.obj
 0001:000d0b40       ??0CExResizeRect@@QAE@MMMM@Z 100d1b40 f   ExControl:ExResizeRect.obj
 0001:000d0b70       ??0CExResizeRect@@QAE@XZ   100d1b70 f   ExControl:ExResizeRect.obj
 0001:000d0b80       ??4CExResizeRect@@QAEAAV0@ABUEX_RESIZERECT@@@Z 100d1b80 f   ExControl:ExResizeRect.obj
 0001:000d0bb0       ??4CExResizeRect@@QAEAAV0@ABUtagRECT@@@Z 100d1bb0 f   ExControl:ExResizeRect.obj
 0001:000d0bf0       ??ICExResizeRect@@QAE?AV0@ABUEX_RESIZERECT@@@Z 100d1bf0 f   ExControl:ExResizeRect.obj
 0001:000d0c70       ??YCExResizeRect@@QAEAAV0@ABUEX_RESIZERECT@@@Z 100d1c70 f   ExControl:ExResizeRect.obj
 0001:000d0cc0       ??0CExCheckBox@@QAE@H@Z    100d1cc0 f   ExControl:ExCheckBox.obj
 0001:000d0d60       ??0CLoaderCheckBoxButton@@QAE@PAXH@Z 100d1d60 f i ExControl:ExCheckBox.obj
 0001:000d1010       ??1CExCheckBox@@UAE@XZ     100d2010 f   ExControl:ExCheckBox.obj
 0001:000d1040       ??1CLoaderCheckBoxButton@@UAE@XZ 100d2040 f i ExControl:ExCheckBox.obj
 0001:000d10c0       ??_GCExCheckBox@@UAEPAXI@Z 100d20c0 f i ExControl:ExCheckBox.obj
 0001:000d10c0       ??_ECExCheckBox@@UAEPAXI@Z 100d20c0 f i ExControl:ExCheckBox.obj
 0001:000d1120       ??_GCLoaderCheckBoxButton@@UAEPAXI@Z 100d2120 f i ExControl:ExCheckBox.obj
 0001:000d1120       ??_ECLoaderCheckBoxButton@@UAEPAXI@Z 100d2120 f i ExControl:ExCheckBox.obj
 0001:000d11c0       ?CreateObject@CExCheckBox@@SGPAVCObject@@XZ 100d21c0 f   ExControl:ExCheckBox.obj
 0001:000d1280       ?CtlColor@CExCheckBox@@IAEPAUHBRUSH__@@PAVCDC@@I@Z 100d2280 f   ExControl:ExCheckBox.obj
 0001:000d12b0       ?GetMessageMap@CExCheckBox@@MBEPBUAFX_MSGMAP@@XZ 100d22b0 f   ExControl:ExCheckBox.obj
 0001:000d12c0       ?GetRuntimeClass@CExCheckBox@@UBEPAUCRuntimeClass@@XZ 100d22c0 f   ExControl:ExCheckBox.obj
 0001:000d12d0       ?GetThisClass@CExCheckBox@@SGPAUCRuntimeClass@@XZ 100d22d0 f   ExControl:ExCheckBox.obj
 0001:000d12e0       ?GetThisMessageMap@CExCheckBox@@KGPBUAFX_MSGMAP@@XZ 100d22e0 f   ExControl:ExCheckBox.obj
 0001:000d12f0       ?LoadProcAddress@CLoaderCheckBoxButton@@UAEHXZ 100d22f0 f i ExControl:ExCheckBox.obj
 0001:000d1390       ?SetColor@CExCheckBox@@QAEXKK@Z 100d2390 f   ExControl:ExCheckBox.obj
 0001:000d13c0       ?SetSkinIndex@CExCheckBox@@QAEXII@Z 100d23c0 f   ExControl:ExCheckBox.obj
 0001:000d13f0       ?SetSkinString@CExCheckBox@@QAEXPBD0@Z 100d23f0 f   ExControl:ExCheckBox.obj
 0001:000d1420       ?_GetBaseClass@CExCheckBox@@KGPAUCRuntimeClass@@XZ 100d2420 f   ExControl:ExCheckBox.obj
 0001:000d1430       ??0CExGridCtrl@@QAE@HHHH@Z 100d2430 f   ExGridLib:ExGridCtrl.obj
 0001:000d15d0       ??0CLoaderGridCtrl@@QAE@PAXPBD@Z 100d25d0 f i ExGridLib:ExGridCtrl.obj
 0001:000d23a0       ??1CExGridCtrl@@UAE@XZ     100d33a0 f   ExGridLib:ExGridCtrl.obj
 0001:000d2430       ??1CLoaderGridCtrl@@UAE@XZ 100d3430 f i ExGridLib:ExGridCtrl.obj
 0001:000d24a0       ??_9CExGridCtrl@@$BBIM@AE  100d34a0 f i ExGridLib:ExGridCtrl.obj
 0001:000d24a8       ??_9CExGridCtrl@@$BBJA@AE  100d34a8 f i ExGridLib:ExGridCtrl.obj
 0001:000d24b0       ??_9CExGridCtrl@@$BBJE@AE  100d34b0 f i ExGridLib:ExGridCtrl.obj
 0001:000d24b8       ??_9CExGridCtrl@@$BBJI@AE  100d34b8 f i ExGridLib:ExGridCtrl.obj
 0001:000d24c0       ??_GCExGridCtrl@@UAEPAXI@Z 100d34c0 f i ExGridLib:ExGridCtrl.obj
 0001:000d24c0       ??_ECExGridCtrl@@UAEPAXI@Z 100d34c0 f i ExGridLib:ExGridCtrl.obj
 0001:000d2590       ??_GCLoaderGridCtrl@@UAEPAXI@Z 100d3590 f i ExGridLib:ExGridCtrl.obj
 0001:000d2590       ??_ECLoaderGridCtrl@@UAEPAXI@Z 100d3590 f i ExGridLib:ExGridCtrl.obj
 0001:000d2620       ?ActionControl@CExGridCtrl@@QAEJPAX@Z 100d3620 f   ExGridLib:ExGridCtrl.obj
 0001:000d2650       ?AutoFill@CExGridCtrl@@QAEXXZ 100d3650 f   ExGridLib:ExGridCtrl.obj
 0001:000d2670       ?AutoSize@CExGridCtrl@@QAEXI@Z 100d3670 f   ExGridLib:ExGridCtrl.obj
 0001:000d26a0       ?AutoSizeColumn@CExGridCtrl@@QAEHHIH@Z 100d36a0 f   ExGridLib:ExGridCtrl.obj
 0001:000d26d0       ?AutoSizeColumns@CExGridCtrl@@QAEXI@Z 100d36d0 f   ExGridLib:ExGridCtrl.obj
 0001:000d2700       ?AutoSizeRow@CExGridCtrl@@QAEHHH@Z 100d3700 f   ExGridLib:ExGridCtrl.obj
 0001:000d2730       ?AutoSizeRows@CExGridCtrl@@QAEXXZ 100d3730 f   ExGridLib:ExGridCtrl.obj
 0001:000d2750       ?ClearCells@CExGridCtrl@@QAEXVCCellRange@@@Z 100d3750 f   ExGridLib:ExGridCtrl.obj
 0001:000d2780       ?CopyTextFromGrid@CExGridCtrl@@UAEPAVCOleDataSource@@XZ 100d3780 f   ExGridLib:ExGridCtrl.obj
 0001:000d27a0       ?Create@CExGridCtrl@@QAEHAAUtagRECT@@PAVCWnd@@IK@Z 100d37a0 f   ExGridLib:ExGridCtrl.obj
 0001:000d2850       ?CreateCell@CExGridCtrl@@MAEPAVCGridCellBase@@HH@Z 100d3850 f   ExGridLib:ExGridCtrl.obj
 0001:000d2880       ?CreateDragImage@CExGridCtrl@@MAEPAVCImageList@@PAVCPoint@@@Z 100d3880 f   ExGridLib:ExGridCtrl.obj
 0001:000d28b0       ?CreateObject@CExGridCtrl@@SGPAVCObject@@XZ 100d38b0 f   ExGridLib:ExGridCtrl.obj
 0001:000d2a70       ?CutSelectedText@CExGridCtrl@@UAEXXZ 100d3a70 f   ExGridLib:ExGridCtrl.obj
 0001:000d2a90       ?DeleteAllItems@CExGridCtrl@@QAEHXZ 100d3a90 f   ExGridLib:ExGridCtrl.obj
 0001:000d2ab0       ?DeleteColumn@CExGridCtrl@@QAEHH@Z 100d3ab0 f   ExGridLib:ExGridCtrl.obj
 0001:000d2ae0       ?DeleteNonFixedRows@CExGridCtrl@@QAEHXZ 100d3ae0 f   ExGridLib:ExGridCtrl.obj
 0001:000d2b00       ?DeleteRow@CExGridCtrl@@QAEHH@Z 100d3b00 f   ExGridLib:ExGridCtrl.obj
 0001:000d2b30       ?DestroyCell@CExGridCtrl@@MAEXHH@Z 100d3b30 f   ExGridLib:ExGridCtrl.obj
 0001:000d2b60       ?EnableColumnHide@CExGridCtrl@@QAEXH@Z 100d3b60 f   ExGridLib:ExGridCtrl.obj
 0001:000d2b90       ?EnableDragAndDrop@CExGridCtrl@@QAEXH@Z 100d3b90 f   ExGridLib:ExGridCtrl.obj
 0001:000d2bc0       ?EnableHiddenColUnhide@CExGridCtrl@@QAEXH@Z 100d3bc0 f   ExGridLib:ExGridCtrl.obj
 0001:000d2bf0       ?EnableHiddenRowUnhide@CExGridCtrl@@QAEXH@Z 100d3bf0 f   ExGridLib:ExGridCtrl.obj
 0001:000d2c20       ?EnableRowHide@CExGridCtrl@@QAEXH@Z 100d3c20 f   ExGridLib:ExGridCtrl.obj
 0001:000d2c50       ?EnableScrollBars@CExGridCtrl@@IAEXHH@Z 100d3c50 f   ExGridLib:ExGridCtrl.obj
 0001:000d2c80       ?EnableSelection@CExGridCtrl@@QAEXH@Z 100d3c80 f   ExGridLib:ExGridCtrl.obj
 0001:000d2cb0       ?EnableTitleTips@CExGridCtrl@@QAEXH@Z 100d3cb0 f   ExGridLib:ExGridCtrl.obj
 0001:000d2ce0       ?EndEditing@CExGridCtrl@@MAEXXZ 100d3ce0 f   ExGridLib:ExGridCtrl.obj
 0001:000d2d00       ?EnsureVisible@CExGridCtrl@@QAEXAAVCCellID@@@Z 100d3d00 f   ExGridLib:ExGridCtrl.obj
 0001:000d2d30       ?EnsureVisible@CExGridCtrl@@QAEXHH@Z 100d3d30 f   ExGridLib:ExGridCtrl.obj
 0001:000d2d60       ?EraseBkgnd@CExGridCtrl@@IAEXPAVCDC@@@Z 100d3d60 f   ExGridLib:ExGridCtrl.obj
 0001:000d2d90       ?ExpandColumnsToFit@CExGridCtrl@@QAEXH@Z 100d3d90 f   ExGridLib:ExGridCtrl.obj
 0001:000d2dc0       ?ExpandLastColumn@CExGridCtrl@@QAEXXZ 100d3dc0 f   ExGridLib:ExGridCtrl.obj
 0001:000d2de0       ?ExpandRowsToFit@CExGridCtrl@@QAEXH@Z 100d3de0 f   ExGridLib:ExGridCtrl.obj
 0001:000d2e10       ?ExpandToFit@CExGridCtrl@@QAEXH@Z 100d3e10 f   ExGridLib:ExGridCtrl.obj
 0001:000d2e40       ?GetAutoSizeStyle@CExGridCtrl@@QAEHXZ 100d3e40 f   ExGridLib:ExGridCtrl.obj
 0001:000d2e60       ?GetBkColor@CExGridCtrl@@QAEKXZ 100d3e60 f   ExGridLib:ExGridCtrl.obj
 0001:000d2e80       ?GetCallbackFunc@CExGridCtrl@@QAEP6GHPAUtagGV_DISPINFO@@J@ZXZ 100d3e80 f   ExGridLib:ExGridCtrl.obj
 0001:000d2ea0       ?GetCell@CExGridCtrl@@QAEPAVCGridCellBase@@HH@Z 100d3ea0 f   ExGridLib:ExGridCtrl.obj
 0001:000d2ed0       ?GetCellFromPt@CExGridCtrl@@QAE?AVCCellID@@VCPoint@@H@Z 100d3ed0 f   ExGridLib:ExGridCtrl.obj
 0001:000d2f30       ?GetCellOrigin@CExGridCtrl@@QAEHAAVCCellID@@PAUtagPOINT@@@Z 100d3f30 f   ExGridLib:ExGridCtrl.obj
 0001:000d2f60       ?GetCellOrigin@CExGridCtrl@@QAEHHHPAUtagPOINT@@@Z 100d3f60 f   ExGridLib:ExGridCtrl.obj
 0001:000d2f90       ?GetCellRange@CExGridCtrl@@QAE?AVCCellRange@@XZ 100d3f90 f   ExGridLib:ExGridCtrl.obj
 0001:000d2ff0       ?GetCellRangeRect@CExGridCtrl@@IAEHAAVCCellRange@@PAUtagRECT@@@Z 100d3ff0 f   ExGridLib:ExGridCtrl.obj
 0001:000d3020       ?GetCellRect@CExGridCtrl@@QAEHAAVCCellID@@PAUtagRECT@@@Z 100d4020 f   ExGridLib:ExGridCtrl.obj
 0001:000d3050       ?GetCellRect@CExGridCtrl@@QAEHHHPAUtagRECT@@@Z 100d4050 f   ExGridLib:ExGridCtrl.obj
 0001:000d3080       ?GetColumnCount@CExGridCtrl@@QAEHXZ 100d4080 f   ExGridLib:ExGridCtrl.obj
 0001:000d30a0       ?GetColumnHide@CExGridCtrl@@QAEHXZ 100d40a0 f   ExGridLib:ExGridCtrl.obj
 0001:000d30c0       ?GetColumnResize@CExGridCtrl@@QAEHXZ 100d40c0 f   ExGridLib:ExGridCtrl.obj
 0001:000d30e0       ?GetColumnWidth@CExGridCtrl@@QAEHH@Z 100d40e0 f   ExGridLib:ExGridCtrl.obj
 0001:000d3110       ?GetDefCellHeight@CExGridCtrl@@QAEHXZ 100d4110 f   ExGridLib:ExGridCtrl.obj
 0001:000d3130       ?GetDefCellMargin@CExGridCtrl@@QAEHXZ 100d4130 f   ExGridLib:ExGridCtrl.obj
 0001:000d3150       ?GetDefCellWidth@CExGridCtrl@@QAEHXZ 100d4150 f   ExGridLib:ExGridCtrl.obj
 0001:000d3170       ?GetDefaultCell@CExGridCtrl@@QAEPAVCGridCellBase@@HH@Z 100d4170 f   ExGridLib:ExGridCtrl.obj
 0001:000d31a0       ?GetDoubleBuffering@CExGridCtrl@@QAEHXZ 100d41a0 f   ExGridLib:ExGridCtrl.obj
 0001:000d31c0       ?GetDragAndDrop@CExGridCtrl@@QAEHXZ 100d41c0 f   ExGridLib:ExGridCtrl.obj
 0001:000d31e0       ?GetFixedBkColor@CExGridCtrl@@QAEKXZ 100d41e0 f   ExGridLib:ExGridCtrl.obj
 0001:000d3200       ?GetFixedColumnCount@CExGridCtrl@@QAEHXZ 100d4200 f   ExGridLib:ExGridCtrl.obj
 0001:000d3220       ?GetFixedColumnSelection@CExGridCtrl@@QAEHXZ 100d4220 f   ExGridLib:ExGridCtrl.obj
 0001:000d3240       ?GetFixedColumnWidth@CExGridCtrl@@QAEHXZ 100d4240 f   ExGridLib:ExGridCtrl.obj
 0001:000d3260       ?GetFixedGridLineColor_Dark@CExGridCtrl@@QAEKXZ 100d4260 f   ExGridLib:ExGridCtrl.obj
 0001:000d3280       ?GetFixedGridLineColor_Light@CExGridCtrl@@QAEKXZ 100d4280 f   ExGridLib:ExGridCtrl.obj
 0001:000d32a0       ?GetFixedRowCount@CExGridCtrl@@QAEHXZ 100d42a0 f   ExGridLib:ExGridCtrl.obj
 0001:000d32c0       ?GetFixedRowHeight@CExGridCtrl@@QAEHXZ 100d42c0 f   ExGridLib:ExGridCtrl.obj
 0001:000d32e0       ?GetFixedRowSelection@CExGridCtrl@@QAEHXZ 100d42e0 f   ExGridLib:ExGridCtrl.obj
 0001:000d3300       ?GetFixedRowSelectionHighlight@CExGridCtrl@@QAEHXZ 100d4300 f   ExGridLib:ExGridCtrl.obj
 0001:000d3320       ?GetFixedTextColor@CExGridCtrl@@QAEKXZ 100d4320 f   ExGridLib:ExGridCtrl.obj
 0001:000d3340       ?GetFocusCell@CExGridCtrl@@QAE?AVCCellID@@XZ 100d4340 f   ExGridLib:ExGridCtrl.obj
 0001:000d3390       ?GetFrameFocusCell@CExGridCtrl@@QAEHXZ 100d4390 f   ExGridLib:ExGridCtrl.obj
 0001:000d33b0       ?GetGridBkColor@CExGridCtrl@@QAEKXZ 100d43b0 f   ExGridLib:ExGridCtrl.obj
 0001:000d33d0       ?GetGridColor@CExGridCtrl@@QAEKXZ 100d43d0 f   ExGridLib:ExGridCtrl.obj
 0001:000d33f0       ?GetGridLineColor@CExGridCtrl@@QAEKXZ 100d43f0 f   ExGridLib:ExGridCtrl.obj
 0001:000d3410       ?GetGridLines@CExGridCtrl@@QAEHXZ 100d4410 f   ExGridLib:ExGridCtrl.obj
 0001:000d3430       ?GetHandleTabKey@CExGridCtrl@@QAEHXZ 100d4430 f   ExGridLib:ExGridCtrl.obj
 0001:000d3450       ?GetHeaderSort@CExGridCtrl@@QAEHXZ 100d4450 f   ExGridLib:ExGridCtrl.obj
 0001:000d3470       ?GetHiddenColUnhide@CExGridCtrl@@QAEHXZ 100d4470 f   ExGridLib:ExGridCtrl.obj
 0001:000d3490       ?GetHiddenRowUnhide@CExGridCtrl@@QAEHXZ 100d4490 f   ExGridLib:ExGridCtrl.obj
 0001:000d34b0       ?GetHighlightColor@CExGridCtrl@@QAEKXZ 100d44b0 f   ExGridLib:ExGridCtrl.obj
 0001:000d34d0       ?GetHighlightTextColor@CExGridCtrl@@QAEKXZ 100d44d0 f   ExGridLib:ExGridCtrl.obj
 0001:000d34f0       ?GetImageList@CExGridCtrl@@QAEPAVCImageList@@XZ 100d44f0 f   ExGridLib:ExGridCtrl.obj
 0001:000d3510       ?GetItem@CExGridCtrl@@QAEHPAU_GV_ITEM@@@Z 100d4510 f   ExGridLib:ExGridCtrl.obj
 0001:000d3540       ?GetItemBkColour@CExGridCtrl@@QAEKHH@Z 100d4540 f   ExGridLib:ExGridCtrl.obj
 0001:000d3570       ?GetItemData@CExGridCtrl@@QAEJHH@Z 100d4570 f   ExGridLib:ExGridCtrl.obj
 0001:000d35a0       ?GetItemFgColour@CExGridCtrl@@QAEKHH@Z 100d45a0 f   ExGridLib:ExGridCtrl.obj
 0001:000d35d0       ?GetItemFont@CExGridCtrl@@QAEPAUtagLOGFONTA@@HH@Z 100d45d0 f   ExGridLib:ExGridCtrl.obj
 0001:000d3600       ?GetItemFormat@CExGridCtrl@@QAEIHH@Z 100d4600 f   ExGridLib:ExGridCtrl.obj
 0001:000d3630       ?GetItemImage@CExGridCtrl@@QAEHHH@Z 100d4630 f   ExGridLib:ExGridCtrl.obj
 0001:000d3660       ?GetItemState@CExGridCtrl@@QAEIHH@Z 100d4660 f   ExGridLib:ExGridCtrl.obj
 0001:000d3690       ?GetItemText@CExGridCtrl@@QAE?AV?$CStringT@DV?$StrTraitMFC_DLL@DV?$ChTraitsCRT@D@ATL@@@@@ATL@@HH@Z 100d4690 f   ExGridLib:ExGridCtrl.obj
 0001:000d3720       ?GetListMode@CExGridCtrl@@QAEHXZ 100d4720 f   ExGridLib:ExGridCtrl.obj
 0001:000d3740       ?GetMessageMap@CExGridCtrl@@MBEPBUAFX_MSGMAP@@XZ 100d4740 f   ExGridLib:ExGridCtrl.obj
 0001:000d3750       ?GetModified@CExGridCtrl@@QAEHHH@Z 100d4750 f   ExGridLib:ExGridCtrl.obj
 0001:000d3780       ?GetMouseMode@CExGridCtrl@@IAEHXZ 100d4780 f   ExGridLib:ExGridCtrl.obj
 0001:000d37a0       ?GetMouseScrollLines@CExGridCtrl@@QAEIXZ 100d47a0 f   ExGridLib:ExGridCtrl.obj
 0001:000d37c0       ?GetNextItem@CExGridCtrl@@QAE?AVCCellID@@AAV2@H@Z 100d47c0 f   ExGridLib:ExGridCtrl.obj
 0001:000d3820       ?GetPointClicked@CExGridCtrl@@IAE?AVCPoint@@HHAAV2@@Z 100d4820 f   ExGridLib:ExGridCtrl.obj
 0001:000d3880       ?GetRowCount@CExGridCtrl@@QAEHXZ 100d4880 f   ExGridLib:ExGridCtrl.obj
 0001:000d38a0       ?GetRowHeight@CExGridCtrl@@QAEHH@Z 100d48a0 f   ExGridLib:ExGridCtrl.obj
 0001:000d38d0       ?GetRowHide@CExGridCtrl@@QAEHXZ 100d48d0 f   ExGridLib:ExGridCtrl.obj
 0001:000d38f0       ?GetRowResize@CExGridCtrl@@QAEHXZ 100d48f0 f   ExGridLib:ExGridCtrl.obj
 0001:000d3910       ?GetRuntimeClass@CExGridCtrl@@UBEPAUCRuntimeClass@@XZ 100d4910 f   ExGridLib:ExGridCtrl.obj
 0001:000d3920       ?GetScrollPos32@CExGridCtrl@@IAEHHH@Z 100d4920 f   ExGridLib:ExGridCtrl.obj
 0001:000d3950       ?GetSelectedCellRange@CExGridCtrl@@QAE?AVCCellRange@@XZ 100d4950 f   ExGridLib:ExGridCtrl.obj
 0001:000d39b0       ?GetSelectedCount@CExGridCtrl@@QAEHXZ 100d49b0 f   ExGridLib:ExGridCtrl.obj
 0001:000d39d0       ?GetSingleColSelection@CExGridCtrl@@QAEHXZ 100d49d0 f   ExGridLib:ExGridCtrl.obj
 0001:000d3a00       ?GetSingleRowSelection@CExGridCtrl@@QAEHXZ 100d4a00 f   ExGridLib:ExGridCtrl.obj
 0001:000d3a30       ?GetSortAscending@CExGridCtrl@@QAEHXZ 100d4a30 f   ExGridLib:ExGridCtrl.obj
 0001:000d3a60       ?GetSortColumn@CExGridCtrl@@QAEHXZ 100d4a60 f   ExGridLib:ExGridCtrl.obj
 0001:000d3a80       ?GetTextBkColor@CExGridCtrl@@QAEKXZ 100d4a80 f   ExGridLib:ExGridCtrl.obj
 0001:000d3aa0       ?GetTextColor@CExGridCtrl@@QAEKXZ 100d4aa0 f   ExGridLib:ExGridCtrl.obj
 0001:000d3ac0       ?GetTextExtent@CExGridCtrl@@QAE?AVCSize@@HHPBD@Z 100d4ac0 f   ExGridLib:ExGridCtrl.obj
 0001:000d3b20       ?GetTextRect@CExGridCtrl@@QAEHAAVCCellID@@PAUtagRECT@@@Z 100d4b20 f   ExGridLib:ExGridCtrl.obj
 0001:000d3b50       ?GetTextRect@CExGridCtrl@@QAEHHHPAUtagRECT@@@Z 100d4b50 f   ExGridLib:ExGridCtrl.obj
 0001:000d3b80       ?GetThisClass@CExGridCtrl@@SGPAUCRuntimeClass@@XZ 100d4b80 f   ExGridLib:ExGridCtrl.obj
 0001:000d3b90       ?GetThisMessageMap@CExGridCtrl@@KGPBUAFX_MSGMAP@@XZ 100d4b90 f   ExGridLib:ExGridCtrl.obj
 0001:000d3ba0       ?GetTitleTipBackClr@CExGridCtrl@@QAEKXZ 100d4ba0 f   ExGridLib:ExGridCtrl.obj
 0001:000d3bc0       ?GetTitleTipTextClr@CExGridCtrl@@QAEKXZ 100d4bc0 f   ExGridLib:ExGridCtrl.obj
 0001:000d3be0       ?GetTitleTips@CExGridCtrl@@QAEHXZ 100d4be0 f   ExGridLib:ExGridCtrl.obj
 0001:000d3c00       ?GetTopleftNonFixedCell@CExGridCtrl@@IAE?AVCCellID@@H@Z 100d4c00 f   ExGridLib:ExGridCtrl.obj
 0001:000d3c50       ?GetTrackFocusCell@CExGridCtrl@@QAEHXZ 100d4c50 f   ExGridLib:ExGridCtrl.obj
 0001:000d3c70       ?GetUnobstructedNonFixedCellRange@CExGridCtrl@@IAE?AVCCellRange@@H@Z 100d4c70 f   ExGridLib:ExGridCtrl.obj
 0001:000d3cd0       ?GetUseFocusRect@CExGridCtrl@@QAEHXZ 100d4cd0 f   ExGridLib:ExGridCtrl.obj
 0001:000d3cf0       ?GetUseHighlightText@CExGridCtrl@@QAEHXZ 100d4cf0 f   ExGridLib:ExGridCtrl.obj
 0001:000d3d10       ?GetVirtualHeight@CExGridCtrl@@QAEJXZ 100d4d10 f   ExGridLib:ExGridCtrl.obj
 0001:000d3d30       ?GetVirtualMode@CExGridCtrl@@QAEHXZ 100d4d30 f   ExGridLib:ExGridCtrl.obj
 0001:000d3d50       ?GetVirtualWidth@CExGridCtrl@@QAEJXZ 100d4d50 f   ExGridLib:ExGridCtrl.obj
 0001:000d3d70       ?GetVisibleNonFixedCellRange@CExGridCtrl@@IAE?AVCCellRange@@PAUtagRECT@@H@Z 100d4d70 f   ExGridLib:ExGridCtrl.obj
 0001:000d3dd0       ?Initialise@CExGridCtrl@@IAEHXZ 100d4dd0 f   ExGridLib:ExGridCtrl.obj
 0001:000d3df0       ?InsertColumn@CExGridCtrl@@QAEHPBDIH@Z 100d4df0 f   ExGridLib:ExGridCtrl.obj
 0001:000d3e30       ?InsertRow@CExGridCtrl@@QAEHPBDH@Z 100d4e30 f   ExGridLib:ExGridCtrl.obj
 0001:000d3e60       ?InvalidateCellRect@CExGridCtrl@@IAEHAAVCCellID@@@Z 100d4e60 f   ExGridLib:ExGridCtrl.obj
 0001:000d3e90       ?InvalidateCellRect@CExGridCtrl@@IAEHAAVCCellRange@@@Z 100d4e90 f   ExGridLib:ExGridCtrl.obj
 0001:000d3ec0       ?InvalidateCellRect@CExGridCtrl@@IAEHHH@Z 100d4ec0 f   ExGridLib:ExGridCtrl.obj
 0001:000d3ef0       ?IsCellEditable@CExGridCtrl@@QAEHAAVCCellID@@@Z 100d4ef0 f   ExGridLib:ExGridCtrl.obj
 0001:000d3f20       ?IsCellEditable@CExGridCtrl@@QAEHHH@Z 100d4f20 f   ExGridLib:ExGridCtrl.obj
 0001:000d3f50       ?IsCellFixed@CExGridCtrl@@QAEHHH@Z 100d4f50 f   ExGridLib:ExGridCtrl.obj
 0001:000d3f80       ?IsCellSelected@CExGridCtrl@@QAEHAAVCCellID@@@Z 100d4f80 f   ExGridLib:ExGridCtrl.obj
 0001:000d3fb0       ?IsCellSelected@CExGridCtrl@@QAEHHH@Z 100d4fb0 f   ExGridLib:ExGridCtrl.obj
 0001:000d3fe0       ?IsCellVisible@CExGridCtrl@@QAEHHH@Z 100d4fe0 f   ExGridLib:ExGridCtrl.obj
 0001:000d4010       ?IsCellVisible@CExGridCtrl@@QAEHVCCellID@@@Z 100d5010 f   ExGridLib:ExGridCtrl.obj
 0001:000d4040       ?IsDefaultReadOnly@CExGridCtrl@@QAEHXZ 100d5040 f   ExGridLib:ExGridCtrl.obj
 0001:000d4060       ?IsEditable@CExGridCtrl@@QAEHXZ 100d5060 f   ExGridLib:ExGridCtrl.obj
 0001:000d4080       ?IsItemEditing@CExGridCtrl@@QAEHHH@Z 100d5080 f   ExGridLib:ExGridCtrl.obj
 0001:000d40b0       ?IsSelectable@CExGridCtrl@@QAEHXZ 100d50b0 f   ExGridLib:ExGridCtrl.obj
 0001:000d40d0       ?IsValid@CExGridCtrl@@QAEHAAVCCellID@@@Z 100d50d0 f   ExGridLib:ExGridCtrl.obj
 0001:000d4100       ?IsValid@CExGridCtrl@@QAEHAAVCCellRange@@@Z 100d5100 f   ExGridLib:ExGridCtrl.obj
 0001:000d4130       ?IsValid@CExGridCtrl@@QAEHHH@Z 100d5130 f   ExGridLib:ExGridCtrl.obj
 0001:000d4160       ?IsVisibleHScroll@CExGridCtrl@@IAEHXZ 100d5160 f   ExGridLib:ExGridCtrl.obj
 0001:000d4180       ?IsVisibleVScroll@CExGridCtrl@@IAEHXZ 100d5180 f   ExGridLib:ExGridCtrl.obj
 0001:000d41a0       ?Load@CExGridCtrl@@QAEHPBDD@Z 100d51a0 f   ExGridLib:ExGridCtrl.obj
 0001:000d41d0       ?LoadProcAddress@CLoaderGridCtrl@@UAEHXZ 100d51d0 f i ExGridLib:ExGridCtrl.obj
 0001:000d5460       ?MouseOverColumnResizeArea@CExGridCtrl@@IAEHAAVCPoint@@@Z 100d6460 f   ExGridLib:ExGridCtrl.obj
 0001:000d5490       ?MouseOverRowResizeArea@CExGridCtrl@@IAEHAAVCPoint@@@Z 100d6490 f   ExGridLib:ExGridCtrl.obj
 0001:000d54c0       ?OnBeginDrag@CExGridCtrl@@UAEXXZ 100d64c0 f   ExGridLib:ExGridCtrl.obj
 0001:000d54e0       ?OnCaptureChanged@CExGridCtrl@@IAEXPAVCWnd@@@Z 100d64e0 f   ExGridLib:ExGridCtrl.obj
 0001:000d5510       ?OnChar@CExGridCtrl@@IAEXIII@Z 100d6510 f   ExGridLib:ExGridCtrl.obj
 0001:000d5540       ?OnContextMenu@CExGridCtrl@@IAEXPAVCWnd@@VCPoint@@@Z 100d6540 f   ExGridLib:ExGridCtrl.obj
 0001:000d5570       ?OnDragEnter@CExGridCtrl@@UAEKPAVCOleDataObject@@KVCPoint@@@Z 100d6570 f   ExGridLib:ExGridCtrl.obj
 0001:000d55b0       ?OnDragLeave@CExGridCtrl@@UAEXXZ 100d65b0 f   ExGridLib:ExGridCtrl.obj
 0001:000d55d0       ?OnDragOver@CExGridCtrl@@UAEKPAVCOleDataObject@@KVCPoint@@@Z 100d65d0 f   ExGridLib:ExGridCtrl.obj
 0001:000d5610       ?OnDraw@CExGridCtrl@@MAEXPAVCDC@@@Z 100d6610 f   ExGridLib:ExGridCtrl.obj
 0001:000d5640       ?OnDrop@CExGridCtrl@@UAEHPAVCOleDataObject@@KVCPoint@@@Z 100d6640 f   ExGridLib:ExGridCtrl.obj
 0001:000d5680       ?OnEditCell@CExGridCtrl@@MAEXHHVCPoint@@I@Z 100d6680 f   ExGridLib:ExGridCtrl.obj
 0001:000d56b0       ?OnEditCopy@CExGridCtrl@@UAEXXZ 100d66b0 f   ExGridLib:ExGridCtrl.obj
 0001:000d56d0       ?OnEditCut@CExGridCtrl@@UAEXXZ 100d66d0 f   ExGridLib:ExGridCtrl.obj
 0001:000d56f0       ?OnEditPaste@CExGridCtrl@@UAEXXZ 100d66f0 f   ExGridLib:ExGridCtrl.obj
 0001:000d5710       ?OnEditSelectAll@CExGridCtrl@@UAEXXZ 100d6710 f   ExGridLib:ExGridCtrl.obj
 0001:000d5730       ?OnEndEditCell@CExGridCtrl@@MAEXHHV?$CStringT@DV?$StrTraitMFC_DLL@DV?$ChTraitsCRT@D@ATL@@@@@ATL@@@Z 100d6730 f   ExGridLib:ExGridCtrl.obj
 0001:000d57d0       ?OnEndInPlaceEdit@CExGridCtrl@@IAEXPAUtagNMHDR@@PAJ@Z 100d67d0 f   ExGridLib:ExGridCtrl.obj
 0001:000d5800       ?OnEraseBkgnd@CExGridCtrl@@IAEHPAVCDC@@@Z 100d6800 f   ExGridLib:ExGridCtrl.obj
 0001:000d5830       ?OnFixedColumnClick@CExGridCtrl@@MAEXAAVCCellID@@@Z 100d6830 f   ExGridLib:ExGridCtrl.obj
 0001:000d5860       ?OnFixedRowClick@CExGridCtrl@@MAEXAAVCCellID@@@Z 100d6860 f   ExGridLib:ExGridCtrl.obj
 0001:000d5890       ?OnGetDlgCode@CExGridCtrl@@IAEIXZ 100d6890 f   ExGridLib:ExGridCtrl.obj
 0001:000d58b0       ?OnGetFont@CExGridCtrl@@IAEJIJ@Z 100d68b0 f   ExGridLib:ExGridCtrl.obj
 0001:000d58e0       ?OnHScroll@CExGridCtrl@@IAEXIIPAVCScrollBar@@@Z 100d68e0 f   ExGridLib:ExGridCtrl.obj
 0001:000d5910       ?OnImeChar@CExGridCtrl@@IAEJIJ@Z 100d6910 f   ExGridLib:ExGridCtrl.obj
 0001:000d5940       ?OnKeyDown@CExGridCtrl@@IAEXIII@Z 100d6940 f   ExGridLib:ExGridCtrl.obj
 0001:000d5970       ?OnKeyUp@CExGridCtrl@@IAEXIII@Z 100d6970 f   ExGridLib:ExGridCtrl.obj
 0001:000d59a0       ?OnLButtonDblClk@CExGridCtrl@@IAEXIVCPoint@@@Z 100d69a0 f   ExGridLib:ExGridCtrl.obj
 0001:000d59d0       ?OnLButtonDown@CExGridCtrl@@IAEXIVCPoint@@@Z 100d69d0 f   ExGridLib:ExGridCtrl.obj
 0001:000d5a00       ?OnLButtonUp@CExGridCtrl@@IAEXIVCPoint@@@Z 100d6a00 f   ExGridLib:ExGridCtrl.obj
 0001:000d5a30       ?OnMouseMove@CExGridCtrl@@IAEXIVCPoint@@@Z 100d6a30 f   ExGridLib:ExGridCtrl.obj
 0001:000d5a60       ?OnMouseWheel@CExGridCtrl@@IAEHIFVCPoint@@@Z 100d6a60 f   ExGridLib:ExGridCtrl.obj
 0001:000d5aa0       ?OnPaint@CExGridCtrl@@IAEXXZ 100d6aa0 f   ExGridLib:ExGridCtrl.obj
 0001:000d5ac0       ?OnRButtonDown@CExGridCtrl@@IAEXIVCPoint@@@Z 100d6ac0 f   ExGridLib:ExGridCtrl.obj
 0001:000d5af0       ?OnRButtonUp@CExGridCtrl@@IAEXIVCPoint@@@Z 100d6af0 f   ExGridLib:ExGridCtrl.obj
 0001:000d5b20       ?OnSelecting@CExGridCtrl@@IAEXAAVCCellID@@@Z 100d6b20 f   ExGridLib:ExGridCtrl.obj
 0001:000d5b50       ?OnSetCursor@CExGridCtrl@@IAEHPAVCWnd@@II@Z 100d6b50 f   ExGridLib:ExGridCtrl.obj
 0001:000d5b80       ?OnSetFont@CExGridCtrl@@IAEJIJ@Z 100d6b80 f   ExGridLib:ExGridCtrl.obj
 0001:000d5bb0       ?OnSettingChange@CExGridCtrl@@IAEXIPBD@Z 100d6bb0 f   ExGridLib:ExGridCtrl.obj
 0001:000d5be0       ?OnSize@CExGridCtrl@@IAEXIHH@Z 100d6be0 f   ExGridLib:ExGridCtrl.obj
 0001:000d5c10       ?OnSysColorChange@CExGridCtrl@@IAEXXZ 100d6c10 f   ExGridLib:ExGridCtrl.obj
 0001:000d5c30       ?OnSysKeyDown@CExGridCtrl@@IAEXIII@Z 100d6c30 f   ExGridLib:ExGridCtrl.obj
 0001:000d5c60       ?OnTimer@CExGridCtrl@@IAEXI@Z 100d6c60 f   ExGridLib:ExGridCtrl.obj
 0001:000d5c90       ?OnUpdateEditCopy@CExGridCtrl@@IAEXPAVCCmdUI@@@Z 100d6c90 f   ExGridLib:ExGridCtrl.obj
 0001:000d5cc0       ?OnUpdateEditCut@CExGridCtrl@@IAEXPAVCCmdUI@@@Z 100d6cc0 f   ExGridLib:ExGridCtrl.obj
 0001:000d5cf0       ?OnUpdateEditPaste@CExGridCtrl@@IAEXPAVCCmdUI@@@Z 100d6cf0 f   ExGridLib:ExGridCtrl.obj
 0001:000d5d20       ?OnUpdateEditSelectAll@CExGridCtrl@@IAEXPAVCCmdUI@@@Z 100d6d20 f   ExGridLib:ExGridCtrl.obj
 0001:000d5d50       ?OnVScroll@CExGridCtrl@@IAEXIIPAVCScrollBar@@@Z 100d6d50 f   ExGridLib:ExGridCtrl.obj
 0001:000d5d80       ?PasteTextToGrid@CExGridCtrl@@UAEHVCCellID@@PAVCOleDataObject@@H@Z 100d6d80 f   ExGridLib:ExGridCtrl.obj
 0001:000d5dc0       ?PreSubclassWindow@CExGridCtrl@@MAEXXZ 100d6dc0 f   ExGridLib:ExGridCtrl.obj
 0001:000d5de0       ?RedrawCell@CExGridCtrl@@QAEHAAVCCellID@@PAVCDC@@@Z 100d6de0 f   ExGridLib:ExGridCtrl.obj
 0001:000d5e10       ?RedrawCell@CExGridCtrl@@QAEHHHPAVCDC@@@Z 100d6e10 f   ExGridLib:ExGridCtrl.obj
 0001:000d5e40       ?RedrawColumn@CExGridCtrl@@QAEHH@Z 100d6e40 f   ExGridLib:ExGridCtrl.obj
 0001:000d5e70       ?RedrawRow@CExGridCtrl@@QAEHH@Z 100d6e70 f   ExGridLib:ExGridCtrl.obj
 0001:000d5ea0       ?Refresh@CExGridCtrl@@QAEXXZ 100d6ea0 f   ExGridLib:ExGridCtrl.obj
 0001:000d5ec0       ?RegisterWindowClass@CExGridCtrl@@IAEHXZ 100d6ec0 f   ExGridLib:ExGridCtrl.obj
 0001:000d5ee0       ?ResetScrollBars@CExGridCtrl@@IAEXXZ 100d6ee0 f   ExGridLib:ExGridCtrl.obj
 0001:000d5f00       ?ResetSelectedRange@CExGridCtrl@@IAEXXZ 100d6f00 f   ExGridLib:ExGridCtrl.obj
 0001:000d5f20       ?Save@CExGridCtrl@@QAEHPBDD@Z 100d6f20 f   ExGridLib:ExGridCtrl.obj
 0001:000d5f50       ?SelectAllCells@CExGridCtrl@@IAEXXZ 100d6f50 f   ExGridLib:ExGridCtrl.obj
 0001:000d5f70       ?SelectCells@CExGridCtrl@@IAEXVCCellID@@HH@Z 100d6f70 f   ExGridLib:ExGridCtrl.obj
 0001:000d5fa0       ?SelectColumns@CExGridCtrl@@IAEXVCCellID@@HH@Z 100d6fa0 f   ExGridLib:ExGridCtrl.obj
 0001:000d5fd0       ?SelectRows@CExGridCtrl@@IAEXVCCellID@@HH@Z 100d6fd0 f   ExGridLib:ExGridCtrl.obj
 0001:000d6000       ?SendCacheHintToParent@CExGridCtrl@@IAEJAAVCCellRange@@@Z 100d7000 f   ExGridLib:ExGridCtrl.obj
 0001:000d6030       ?SendDisplayRequestToParent@CExGridCtrl@@IAEJPAUtagGV_DISPINFO@@@Z 100d7030 f   ExGridLib:ExGridCtrl.obj
 0001:000d6060       ?SendMessageToParent@CExGridCtrl@@IAEJHHH@Z 100d7060 f   ExGridLib:ExGridCtrl.obj
 0001:000d6090       ?SetAutoSizeStyle@CExGridCtrl@@QAEXH@Z 100d7090 f   ExGridLib:ExGridCtrl.obj
 0001:000d60c0       ?SetBkColor@CExGridCtrl@@QAEXK@Z 100d70c0 f   ExGridLib:ExGridCtrl.obj
 0001:000d60f0       ?SetCallbackFunc@CExGridCtrl@@QAEXP6GHPAUtagGV_DISPINFO@@J@ZJ@Z 100d70f0 f   ExGridLib:ExGridCtrl.obj
 0001:000d6120       ?SetCell@CExGridCtrl@@IAEHHHPAVCGridCellBase@@@Z 100d7120 f   ExGridLib:ExGridCtrl.obj
 0001:000d6150       ?SetCellType@CExGridCtrl@@QAEHHHPAUCRuntimeClass@@@Z 100d7150 f   ExGridLib:ExGridCtrl.obj
 0001:000d6180       ?SetColumnCount@CExGridCtrl@@QAEHH@Z 100d7180 f   ExGridLib:ExGridCtrl.obj
 0001:000d61b0       ?SetColumnResize@CExGridCtrl@@QAEXH@Z 100d71b0 f   ExGridLib:ExGridCtrl.obj
 0001:000d61e0       ?SetColumnWidth@CExGridCtrl@@QAEHHH@Z 100d71e0 f   ExGridLib:ExGridCtrl.obj
 0001:000d6210       ?SetCompareFunction@CExGridCtrl@@QAEXP6GHJJJ@Z@Z 100d7210 f   ExGridLib:ExGridCtrl.obj
 0001:000d6240       ?SetDefCellHeight@CExGridCtrl@@QAEXH@Z 100d7240 f   ExGridLib:ExGridCtrl.obj
 0001:000d6270       ?SetDefCellMargin@CExGridCtrl@@QAEXH@Z 100d7270 f   ExGridLib:ExGridCtrl.obj
 0001:000d62a0       ?SetDefCellWidth@CExGridCtrl@@QAEXH@Z 100d72a0 f   ExGridLib:ExGridCtrl.obj
 0001:000d62d0       ?SetDefaultCellType@CExGridCtrl@@QAEHPAUCRuntimeClass@@@Z 100d72d0 f   ExGridLib:ExGridCtrl.obj
 0001:000d6300       ?SetDefaultReadOnly@CExGridCtrl@@QAEXH@Z 100d7300 f   ExGridLib:ExGridCtrl.obj
 0001:000d6330       ?SetDoubleBuffering@CExGridCtrl@@QAEXH@Z 100d7330 f   ExGridLib:ExGridCtrl.obj
 0001:000d6360       ?SetDrawFixedLine@CExGridCtrl@@QAEXH@Z 100d7360 f   ExGridLib:ExGridCtrl.obj
 0001:000d6390       ?SetEditable@CExGridCtrl@@QAEXH@Z 100d7390 f   ExGridLib:ExGridCtrl.obj
 0001:000d63c0       ?SetFixedBkColor@CExGridCtrl@@QAEXK@Z 100d73c0 f   ExGridLib:ExGridCtrl.obj
 0001:000d63f0       ?SetFixedColumnCount@CExGridCtrl@@QAEHH@Z 100d73f0 f   ExGridLib:ExGridCtrl.obj
 0001:000d6420       ?SetFixedColumnSelection@CExGridCtrl@@QAEXH@Z 100d7420 f   ExGridLib:ExGridCtrl.obj
 0001:000d6450       ?SetFixedGridLineColor_Dark@CExGridCtrl@@QAEXK@Z 100d7450 f   ExGridLib:ExGridCtrl.obj
 0001:000d6480       ?SetFixedGridLineColor_Light@CExGridCtrl@@QAEXK@Z 100d7480 f   ExGridLib:ExGridCtrl.obj
 0001:000d64b0       ?SetFixedRowCount@CExGridCtrl@@QAEHH@Z 100d74b0 f   ExGridLib:ExGridCtrl.obj
 0001:000d64e0       ?SetFixedRowSelection@CExGridCtrl@@QAEXH@Z 100d74e0 f   ExGridLib:ExGridCtrl.obj
 0001:000d6510       ?SetFixedRowSelectionHighlight@CExGridCtrl@@QAEXH@Z 100d7510 f   ExGridLib:ExGridCtrl.obj
 0001:000d6540       ?SetFixedTextColor@CExGridCtrl@@QAEXK@Z 100d7540 f   ExGridLib:ExGridCtrl.obj
 0001:000d6570       ?SetFocusCell@CExGridCtrl@@QAE?AVCCellID@@HH@Z 100d7570 f   ExGridLib:ExGridCtrl.obj
 0001:000d65d0       ?SetFocusCell@CExGridCtrl@@QAE?AVCCellID@@V2@@Z 100d75d0 f   ExGridLib:ExGridCtrl.obj
 0001:000d6630       ?SetFrameFocusCell@CExGridCtrl@@QAEXH@Z 100d7630 f   ExGridLib:ExGridCtrl.obj
 0001:000d6660       ?SetGridBkColor@CExGridCtrl@@QAEXK@Z 100d7660 f   ExGridLib:ExGridCtrl.obj
 0001:000d6690       ?SetGridColor@CExGridCtrl@@QAEXK@Z 100d7690 f   ExGridLib:ExGridCtrl.obj
 0001:000d66c0       ?SetGridLineColor@CExGridCtrl@@QAEXK@Z 100d76c0 f   ExGridLib:ExGridCtrl.obj
 0001:000d66f0       ?SetGridLines@CExGridCtrl@@QAEXH@Z 100d76f0 f   ExGridLib:ExGridCtrl.obj
 0001:000d6720       ?SetGridScrollBarVisible@CExGridCtrl@@QAEXHH@Z 100d7720 f   ExGridLib:ExGridCtrl.obj
 0001:000d6750       ?SetHandleTabKey@CExGridCtrl@@QAEXH@Z 100d7750 f   ExGridLib:ExGridCtrl.obj
 0001:000d6780       ?SetHeaderSort@CExGridCtrl@@QAEXH@Z 100d7780 f   ExGridLib:ExGridCtrl.obj
 0001:000d67b0       ?SetHighlightColor@CExGridCtrl@@QAEXK@Z 100d77b0 f   ExGridLib:ExGridCtrl.obj
 0001:000d67e0       ?SetHighlightTextColor@CExGridCtrl@@QAEXK@Z 100d77e0 f   ExGridLib:ExGridCtrl.obj
 0001:000d6810       ?SetImageList@CExGridCtrl@@QAEXPAVCImageList@@@Z 100d7810 f   ExGridLib:ExGridCtrl.obj
 0001:000d6840       ?SetItem@CExGridCtrl@@QAEHPAU_GV_ITEM@@@Z 100d7840 f   ExGridLib:ExGridCtrl.obj
 0001:000d6870       ?SetItemBkColour@CExGridCtrl@@QAEHHHK@Z 100d7870 f   ExGridLib:ExGridCtrl.obj
 0001:000d68a0       ?SetItemData@CExGridCtrl@@QAEHHHJ@Z 100d78a0 f   ExGridLib:ExGridCtrl.obj
 0001:000d68d0       ?SetItemFgColour@CExGridCtrl@@QAEHHHK@Z 100d78d0 f   ExGridLib:ExGridCtrl.obj
 0001:000d6900       ?SetItemFont@CExGridCtrl@@QAEHHHPAUtagLOGFONTA@@@Z 100d7900 f   ExGridLib:ExGridCtrl.obj
 0001:000d6930       ?SetItemFormat@CExGridCtrl@@QAEHHHI@Z 100d7930 f   ExGridLib:ExGridCtrl.obj
 0001:000d6960       ?SetItemImage@CExGridCtrl@@QAEHHHH@Z 100d7960 f   ExGridLib:ExGridCtrl.obj
 0001:000d6990       ?SetItemState@CExGridCtrl@@QAEHHHI@Z 100d7990 f   ExGridLib:ExGridCtrl.obj
 0001:000d69c0       ?SetItemText@CExGridCtrl@@QAEHHHPBD@Z 100d79c0 f   ExGridLib:ExGridCtrl.obj
 0001:000d69f0       ?SetItemTextFmt@CExGridCtrl@@QAAHHHPBDZZ 100d79f0 f   ExGridLib:ExGridCtrl.obj
 0001:000d6a00       ?SetItemTextFmtID@CExGridCtrl@@QAAHHHIZZ 100d7a00 f   ExGridLib:ExGridCtrl.obj
 0001:000d6a10       ?SetListMode@CExGridCtrl@@QAEXH@Z 100d7a10 f   ExGridLib:ExGridCtrl.obj
 0001:000d6a40       ?SetModified@CExGridCtrl@@QAEXHHH@Z 100d7a40 f   ExGridLib:ExGridCtrl.obj
 0001:000d6a70       ?SetMouseMode@CExGridCtrl@@IAEHH@Z 100d7a70 f   ExGridLib:ExGridCtrl.obj
 0001:000d6aa0       ?SetRedraw@CExGridCtrl@@QAEXHH@Z 100d7aa0 f   ExGridLib:ExGridCtrl.obj
 0001:000d6ad0       ?SetRowCount@CExGridCtrl@@QAEHH@Z 100d7ad0 f   ExGridLib:ExGridCtrl.obj
 0001:000d6b00       ?SetRowHeight@CExGridCtrl@@QAEHHH@Z 100d7b00 f   ExGridLib:ExGridCtrl.obj
 0001:000d6b30       ?SetRowResize@CExGridCtrl@@QAEXH@Z 100d7b30 f   ExGridLib:ExGridCtrl.obj
 0001:000d6b60       ?SetScrollPos32@CExGridCtrl@@IAEHHHH@Z 100d7b60 f   ExGridLib:ExGridCtrl.obj
 0001:000d6b90       ?SetSelectedRange@CExGridCtrl@@QAEXAAVCCellRange@@HH@Z 100d7b90 f   ExGridLib:ExGridCtrl.obj
 0001:000d6bc0       ?SetSelectedRange@CExGridCtrl@@QAEXHHHHHH@Z 100d7bc0 f   ExGridLib:ExGridCtrl.obj
 0001:000d6c00       ?SetSingleColSelection@CExGridCtrl@@QAEXH@Z 100d7c00 f   ExGridLib:ExGridCtrl.obj
 0001:000d6c30       ?SetSingleRowSelection@CExGridCtrl@@QAEXH@Z 100d7c30 f   ExGridLib:ExGridCtrl.obj
 0001:000d6c60       ?SetSortAscending@CExGridCtrl@@QAEXH@Z 100d7c60 f   ExGridLib:ExGridCtrl.obj
 0001:000d6c90       ?SetSortColumn@CExGridCtrl@@QAEXH@Z 100d7c90 f   ExGridLib:ExGridCtrl.obj
 0001:000d6cc0       ?SetTextBkColor@CExGridCtrl@@QAEXK@Z 100d7cc0 f   ExGridLib:ExGridCtrl.obj
 0001:000d6cf0       ?SetTextColor@CExGridCtrl@@QAEXK@Z 100d7cf0 f   ExGridLib:ExGridCtrl.obj
 0001:000d6d20       ?SetTitleTipBackClr@CExGridCtrl@@QAEXK@Z 100d7d20 f   ExGridLib:ExGridCtrl.obj
 0001:000d6d50       ?SetTitleTipTextClr@CExGridCtrl@@QAEXK@Z 100d7d50 f   ExGridLib:ExGridCtrl.obj
 0001:000d6d80       ?SetTrackFocusCell@CExGridCtrl@@QAEXH@Z 100d7d80 f   ExGridLib:ExGridCtrl.obj
 0001:000d6db0       ?SetUseFocusRect@CExGridCtrl@@QAEXH@Z 100d7db0 f   ExGridLib:ExGridCtrl.obj
 0001:000d6de0       ?SetUseHighlightText@CExGridCtrl@@QAEXH@Z 100d7de0 f   ExGridLib:ExGridCtrl.obj
 0001:000d6e10       ?SetVirtualMode@CExGridCtrl@@QAEXH@Z 100d7e10 f   ExGridLib:ExGridCtrl.obj
 0001:000d6e40       ?SetupDefaultCells@CExGridCtrl@@IAEXXZ 100d7e40 f   ExGridLib:ExGridCtrl.obj
 0001:000d6e60       ?SortItems@CExGridCtrl@@IAEHP6GHJJJ@ZHHJHH@Z 100d7e60 f   ExGridLib:ExGridCtrl.obj
 0001:000d6ea0       ?SortItems@CExGridCtrl@@QAEHHHJ@Z 100d7ea0 f   ExGridLib:ExGridCtrl.obj
 0001:000d6ed0       ?SortItems@CExGridCtrl@@QAEHP6GHJJJ@ZHHJ@Z 100d7ed0 f   ExGridLib:ExGridCtrl.obj
 0001:000d6f10       ?SortTextItems@CExGridCtrl@@IAEHHHHH@Z 100d7f10 f   ExGridLib:ExGridCtrl.obj
 0001:000d6f50       ?SortTextItems@CExGridCtrl@@QAEHHHJ@Z 100d7f50 f   ExGridLib:ExGridCtrl.obj
 0001:000d6f80       ?ValidateAndModifyCellContents@CExGridCtrl@@IAEXHHPBD@Z 100d7f80 f   ExGridLib:ExGridCtrl.obj
 0001:000d6fb0       ?ValidateEdit@CExGridCtrl@@MAEHHHPBD@Z 100d7fb0 f   ExGridLib:ExGridCtrl.obj
 0001:000d6fe0       ?WindowProc@CExGridCtrl@@MAEJIIJ@Z 100d7fe0 f   ExGridLib:ExGridCtrl.obj
 0001:000d7010       ?_GetBaseClass@CExGridCtrl@@KGPAUCRuntimeClass@@XZ 100d8010 f   ExGridLib:ExGridCtrl.obj
 0001:000d7015       ??2@YAPAXI@Z               100d8015 f   mfc140:mfc140.dll
 0001:000d701b       ??3@YAXPAX@Z               100d801b f   mfc140:mfc140.dll
 0001:000d7021       ??_V@YAXPAX@Z              100d8021 f   mfc140:mfc140.dll
 0001:000d7027       ?Concatenate@?$CSimpleStringT@D$00@ATL@@KAXAAV12@PBDH1H@Z 100d8027 f   mfc140:mfc140.dll
 0001:000d702d       ??0?$CStringT@DV?$StrTraitMFC_DLL@DV?$ChTraitsCRT@D@ATL@@@@@ATL@@QAE@XZ 100d802d f   mfc140:mfc140.dll
 0001:000d7033       ??0?$CStringT@DV?$StrTraitMFC_DLL@DV?$ChTraitsCRT@D@ATL@@@@@ATL@@QAE@PAUIAtlStringMgr@1@@Z 100d8033 f   mfc140:mfc140.dll
 0001:000d7039       ??0?$CStringT@DV?$StrTraitMFC_DLL@DV?$ChTraitsCRT@D@ATL@@@@@ATL@@QAE@ABV01@@Z 100d8039 f   mfc140:mfc140.dll
 0001:000d703f       ??0?$CStringT@DV?$StrTraitMFC_DLL@DV?$ChTraitsCRT@D@ATL@@@@@ATL@@QAE@PBD@Z 100d803f f   mfc140:mfc140.dll
 0001:000d7045       ??1?$CStringT@DV?$StrTraitMFC_DLL@DV?$ChTraitsCRT@D@ATL@@@@@ATL@@QAE@XZ 100d8045 f   mfc140:mfc140.dll
 0001:000d704b       ??4?$CStringT@DV?$StrTraitMFC_DLL@DV?$ChTraitsCRT@D@ATL@@@@@ATL@@QAEAAV01@ABV01@@Z 100d804b f   mfc140:mfc140.dll
 0001:000d7051       ??4?$CStringT@DV?$StrTraitMFC_DLL@DV?$ChTraitsCRT@D@ATL@@@@@ATL@@QAEAAV01@PBD@Z 100d8051 f   mfc140:mfc140.dll
 0001:000d7057       ?GetManager@?$CStringT@DV?$StrTraitMFC_DLL@DV?$ChTraitsCRT@D@ATL@@@@@ATL@@QBEPAUIAtlStringMgr@2@XZ 100d8057 f   mfc140:mfc140.dll
 0001:000d705d       ?Compare@?$CStringT@DV?$StrTraitMFC_DLL@DV?$ChTraitsCRT@D@ATL@@@@@ATL@@QBEHPBD@Z 100d805d f   mfc140:mfc140.dll
 0001:000d7063       ?CompareNoCase@?$CStringT@DV?$StrTraitMFC_DLL@DV?$ChTraitsCRT@D@ATL@@@@@ATL@@QBEHPBD@Z 100d8063 f   mfc140:mfc140.dll
 0001:000d7069       ?Format@?$CStringT@DV?$StrTraitMFC_DLL@DV?$ChTraitsCRT@D@ATL@@@@@ATL@@QAAXPBDZZ 100d8069 f   mfc140:mfc140.dll
 0001:000d706f       ?GetRuntimeClass@CGdiObject@@UBEPAUCRuntimeClass@@XZ 100d806f f   mfc140:mfc140.dll
 0001:000d7075       ?Attach@CGdiObject@@QAEHPAX@Z 100d8075 f   mfc140:mfc140.dll
 0001:000d707b       ?DeleteObject@CGdiObject@@QAEHXZ 100d807b f   mfc140:mfc140.dll
 0001:000d7081       ?GetRuntimeClass@CBitmap@@UBEPAUCRuntimeClass@@XZ 100d8081 f   mfc140:mfc140.dll
 0001:000d7087       ??0CImageList@@QAE@XZ      100d8087 f   mfc140:mfc140.dll
 0001:000d708d       ?Create@CImageList@@QAEHHHIHH@Z 100d808d f   mfc140:mfc140.dll
 0001:000d7093       ?DeleteImageList@CImageList@@QAEHXZ 100d8093 f   mfc140:mfc140.dll
 0001:000d7099       ??1CImageList@@UAE@XZ      100d8099 f   mfc140:mfc140.dll
 0001:000d709f       ?GetIDispatch@CCmdTarget@@QAEPAUIDispatch@@H@Z 100d809f f   mfc140:mfc140.dll
 0001:000d70a5       ?OnCmdMsg@CCmdTarget@@UAEHIHPAXPAUAFX_CMDHANDLERINFO@@@Z 100d80a5 f   mfc140:mfc140.dll
 0001:000d70ab       ?IsInvokeAllowed@CCmdTarget@@UAEHJ@Z 100d80ab f   mfc140:mfc140.dll
 0001:000d70b1       ?GetDispatchIID@CCmdTarget@@UAEHPAU_GUID@@@Z 100d80b1 f   mfc140:mfc140.dll
 0001:000d70b7       ?GetTypeInfoCount@CCmdTarget@@UAEIXZ 100d80b7 f   mfc140:mfc140.dll
 0001:000d70bd       ?GetTypeLibCache@CCmdTarget@@UAEPAVCTypeLibCache@@XZ 100d80bd f   mfc140:mfc140.dll
 0001:000d70c3       ?GetTypeLib@CCmdTarget@@UAEJKPAPAUITypeLib@@@Z 100d80c3 f   mfc140:mfc140.dll
 0001:000d70c9       ?GetCommandMap@CCmdTarget@@MBEPBUAFX_OLECMDMAP@@XZ 100d80c9 f   mfc140:mfc140.dll
 0001:000d70cf       ?GetDispatchMap@CCmdTarget@@MBEPBUAFX_DISPMAP@@XZ 100d80cf f   mfc140:mfc140.dll
 0001:000d70d5       ?GetConnectionMap@CCmdTarget@@MBEPBUAFX_CONNECTIONMAP@@XZ 100d80d5 f   mfc140:mfc140.dll
 0001:000d70db       ?GetEventSinkMap@CCmdTarget@@MBEPBUAFX_EVENTSINKMAP@@XZ 100d80db f   mfc140:mfc140.dll
 0001:000d70e1       ?OnCreateAggregates@CCmdTarget@@UAEHXZ 100d80e1 f   mfc140:mfc140.dll
 0001:000d70e7       ?GetInterfaceHook@CCmdTarget@@UAEPAUIUnknown@@PBX@Z 100d80e7 f   mfc140:mfc140.dll
 0001:000d70ed       ?GetExtraConnectionPoints@CCmdTarget@@MAEHPAVCPtrArray@@@Z 100d80ed f   mfc140:mfc140.dll
 0001:000d70f3       ?GetConnectionHook@CCmdTarget@@MAEPAUIConnectionPoint@@ABU_GUID@@@Z 100d80f3 f   mfc140:mfc140.dll
 0001:000d70f9       ?GetRuntimeClass@CWnd@@UBEPAUCRuntimeClass@@XZ 100d80f9 f   mfc140:mfc140.dll
 0001:000d70ff       ??0CWnd@@QAE@XZ            100d80ff f   mfc140:mfc140.dll
 0001:000d7105       ?PreSubclassWindow@CWnd@@UAEXXZ 100d8105 f   mfc140:mfc140.dll
 0001:000d710b       ?Create@CWnd@@UAEHPBD0KABUtagRECT@@PAV1@IPAUCCreateContext@@@Z 100d810b f   mfc140:mfc140.dll
 0001:000d7111       ?CreateEx@CWnd@@UAEHKPBD0KHHHHPAUHWND__@@PAUHMENU__@@PAX@Z 100d8111 f   mfc140:mfc140.dll
 0001:000d7117       ?CreateEx@CWnd@@UAEHKPBD0KABUtagRECT@@PAV1@IPAX@Z 100d8117 f   mfc140:mfc140.dll
 0001:000d711d       ?DestroyWindow@CWnd@@UAEHXZ 100d811d f   mfc140:mfc140.dll
 0001:000d7123       ?PreCreateWindow@CWnd@@UAEHAAUtagCREATESTRUCTA@@@Z 100d8123 f   mfc140:mfc140.dll
 0001:000d7129       ?CalcWindowRect@CWnd@@UAEXPAUtagRECT@@I@Z 100d8129 f   mfc140:mfc140.dll
 0001:000d712f       ?GetMenu@CWnd@@UBEPAVCMenu@@XZ 100d812f f   mfc140:mfc140.dll
 0001:000d7135       ?SetMenu@CWnd@@UAEHPAVCMenu@@@Z 100d8135 f   mfc140:mfc140.dll
 0001:000d713b       ?MoveWindow@CWnd@@QAEXHHHHH@Z 100d813b f   mfc140:mfc140.dll
 0001:000d7141       ?SetWindowPos@CWnd@@QAEHPBV1@HHHHI@Z 100d8141 f   mfc140:mfc140.dll
 0001:000d7147       ?ShowWindow@CWnd@@QAEHH@Z  100d8147 f   mfc140:mfc140.dll
 0001:000d714d       ?OnToolHitTest@CWnd@@UBEHVCPoint@@PAUtagTOOLINFOA@@@Z 100d814d f   mfc140:mfc140.dll
 0001:000d7153       ?SetFocus@CWnd@@QAEPAV1@XZ 100d8153 f   mfc140:mfc140.dll
 0001:000d7159       ?GetScrollBarCtrl@CWnd@@UBEPAVCScrollBar@@H@Z 100d8159 f   mfc140:mfc140.dll
 0001:000d715f       ?WinHelpA@CWnd@@UAEXKI@Z   100d815f f   mfc140:mfc140.dll
 0001:000d7165       ?HtmlHelpA@CWnd@@UAEXKI@Z  100d8165 f   mfc140:mfc140.dll
 0001:000d716b       ?WinHelpInternal@CWnd@@UAEXKI@Z 100d816b f   mfc140:mfc140.dll
 0001:000d7171       ?ContinueModal@CWnd@@UAEHXZ 100d8171 f   mfc140:mfc140.dll
 0001:000d7177       ?EndModalLoop@CWnd@@UAEXH@Z 100d8177 f   mfc140:mfc140.dll
 0001:000d717d       ?OnDrawIconicThumbnailOrLivePreview@CWnd@@UAEXAAVCDC@@VCRect@@VCSize@@HAAH@Z 100d817d f   mfc140:mfc140.dll
 0001:000d7183       ?GetInterfaceMap@CWnd@@MBEPBUAFX_INTERFACEMAP@@XZ 100d8183 f   mfc140:mfc140.dll
 0001:000d7189       ?EnsureStdObj@CWnd@@UAEJXZ 100d8189 f   mfc140:mfc140.dll
 0001:000d718f       ?get_accParent@CWnd@@UAEJPAPAUIDispatch@@@Z 100d818f f   mfc140:mfc140.dll
 0001:000d7195       ?get_accChildCount@CWnd@@UAEJPAJ@Z 100d8195 f   mfc140:mfc140.dll
 0001:000d719b       ?get_accChild@CWnd@@UAEJUtagVARIANT@@PAPAUIDispatch@@@Z 100d819b f   mfc140:mfc140.dll
 0001:000d71a1       ?get_accName@CWnd@@UAEJUtagVARIANT@@PAPA_W@Z 100d81a1 f   mfc140:mfc140.dll
 0001:000d71a7       ?get_accValue@CWnd@@UAEJUtagVARIANT@@PAPA_W@Z 100d81a7 f   mfc140:mfc140.dll
 0001:000d71ad       ?get_accDescription@CWnd@@UAEJUtagVARIANT@@PAPA_W@Z 100d81ad f   mfc140:mfc140.dll
 0001:000d71b3       ?get_accRole@CWnd@@UAEJUtagVARIANT@@PAU2@@Z 100d81b3 f   mfc140:mfc140.dll
 0001:000d71b9       ?get_accState@CWnd@@UAEJUtagVARIANT@@PAU2@@Z 100d81b9 f   mfc140:mfc140.dll
 0001:000d71bf       ?get_accHelp@CWnd@@UAEJUtagVARIANT@@PAPA_W@Z 100d81bf f   mfc140:mfc140.dll
 0001:000d71c5       ?get_accHelpTopic@CWnd@@UAEJPAPA_WUtagVARIANT@@PAJ@Z 100d81c5 f   mfc140:mfc140.dll
 0001:000d71cb       ?get_accKeyboardShortcut@CWnd@@UAEJUtagVARIANT@@PAPA_W@Z 100d81cb f   mfc140:mfc140.dll
 0001:000d71d1       ?get_accFocus@CWnd@@UAEJPAUtagVARIANT@@@Z 100d81d1 f   mfc140:mfc140.dll
 0001:000d71d7       ?get_accSelection@CWnd@@UAEJPAUtagVARIANT@@@Z 100d81d7 f   mfc140:mfc140.dll
 0001:000d71dd       ?get_accDefaultAction@CWnd@@UAEJUtagVARIANT@@PAPA_W@Z 100d81dd f   mfc140:mfc140.dll
 0001:000d71e3       ?accSelect@CWnd@@UAEJJUtagVARIANT@@@Z 100d81e3 f   mfc140:mfc140.dll
 0001:000d71e9       ?accLocation@CWnd@@UAEJPAJ000UtagVARIANT@@@Z 100d81e9 f   mfc140:mfc140.dll
 0001:000d71ef       ?accNavigate@CWnd@@UAEJJUtagVARIANT@@PAU2@@Z 100d81ef f   mfc140:mfc140.dll
 0001:000d71f5       ?accHitTest@CWnd@@UAEJJJPAUtagVARIANT@@@Z 100d81f5 f   mfc140:mfc140.dll
 0001:000d71fb       ?accDoDefaultAction@CWnd@@UAEJUtagVARIANT@@@Z 100d81fb f   mfc140:mfc140.dll
 0001:000d7201       ?put_accName@CWnd@@UAEJUtagVARIANT@@PA_W@Z 100d8201 f   mfc140:mfc140.dll
 0001:000d7207       ?put_accValue@CWnd@@UAEJUtagVARIANT@@PA_W@Z 100d8207 f   mfc140:mfc140.dll
 0001:000d720d       ?SetProxy@CWnd@@UAEJPAUIAccessibleProxy@@@Z 100d820d f   mfc140:mfc140.dll
 0001:000d7213       ?CreateAccessibleProxy@CWnd@@UAEJIJPAJ@Z 100d8213 f   mfc140:mfc140.dll
 0001:000d7219       ?OnCommand@CWnd@@MAEHIJ@Z  100d8219 f   mfc140:mfc140.dll
 0001:000d721f       ?OnNotify@CWnd@@MAEHIJPAJ@Z 100d821f f   mfc140:mfc140.dll
 0001:000d7225       ?GetSuperWndProcAddr@CWnd@@MAEPAP6GJPAUHWND__@@IIJ@ZXZ 100d8225 f   mfc140:mfc140.dll
 0001:000d722b       ?PreTranslateMessage@CWnd@@UAEHPAUtagMSG@@@Z 100d822b f   mfc140:mfc140.dll
 0001:000d7231       ?OnAmbientProperty@CWnd@@UAEHPAVCOleControlSite@@JPAUtagVARIANT@@@Z 100d8231 f   mfc140:mfc140.dll
 0001:000d7237       ?WindowProc@CWnd@@MAEJIIJ@Z 100d8237 f   mfc140:mfc140.dll
 0001:000d723d       ?OnWndMsg@CWnd@@MAEHIIJPAJ@Z 100d823d f   mfc140:mfc140.dll
 0001:000d7243       ?Default@CWnd@@IAEJXZ      100d8243 f   mfc140:mfc140.dll
 0001:000d7249       ?DefWindowProcA@CWnd@@MAEJIIJ@Z 100d8249 f   mfc140:mfc140.dll
 0001:000d724f       ?PostNcDestroy@CWnd@@MAEXXZ 100d824f f   mfc140:mfc140.dll
 0001:000d7255       ?OnChildNotify@CWnd@@MAEHIIJPAJ@Z 100d8255 f   mfc140:mfc140.dll
 0001:000d725b       ?OnTouchInputs@CWnd@@MAEHIPAUtagTOUCHINPUT@@@Z 100d825b f   mfc140:mfc140.dll
 0001:000d7261       ?OnTouchInput@CWnd@@MAEHVCPoint@@HHPAUtagTOUCHINPUT@@@Z 100d8261 f   mfc140:mfc140.dll
 0001:000d7267       ?GetGestureStatus@CWnd@@MAEKVCPoint@@@Z 100d8267 f   mfc140:mfc140.dll
 0001:000d726d       ?OnGestureZoom@CWnd@@MAEHVCPoint@@J@Z 100d826d f   mfc140:mfc140.dll
 0001:000d7273       ?OnGesturePan@CWnd@@MAEHVCPoint@@0@Z 100d8273 f   mfc140:mfc140.dll
 0001:000d7279       ?OnGestureRotate@CWnd@@MAEHVCPoint@@N@Z 100d8279 f   mfc140:mfc140.dll
 0001:000d727f       ?OnGestureTwoFingerTap@CWnd@@MAEHVCPoint@@@Z 100d827f f   mfc140:mfc140.dll
 0001:000d7285       ?OnGesturePressAndTap@CWnd@@MAEHVCPoint@@J@Z 100d8285 f   mfc140:mfc140.dll
 0001:000d728b       ?ResizeDynamicLayout@CWnd@@MAEXXZ 100d828b f   mfc140:mfc140.dll
 0001:000d7291       ??1CWnd@@UAE@XZ            100d8291 f   mfc140:mfc140.dll
 0001:000d7297       ?CheckAutoCenter@CWnd@@UAEHXZ 100d8297 f   mfc140:mfc140.dll
 0001:000d729d       ?IsFrameWnd@CWnd@@UBEHXZ   100d829d f   mfc140:mfc140.dll
 0001:000d72a3       ?OnFinalRelease@CWnd@@UAEXXZ 100d82a3 f   mfc140:mfc140.dll
 0001:000d72a9       ?CreateControlContainer@CWnd@@MAEHPAPAVCOleControlContainer@@@Z 100d82a9 f   mfc140:mfc140.dll
 0001:000d72af       ?CreateControlSite@CWnd@@MAEHPAVCOleControlContainer@@PAPAVCOleControlSite@@IABU_GUID@@@Z 100d82af f   mfc140:mfc140.dll
 0001:000d72b5       ?SetOccDialogInfo@CWnd@@MAEHPAU_AFX_OCC_DIALOG_INFO@@@Z 100d82b5 f   mfc140:mfc140.dll
 0001:000d72bb       ?GetOccDialogInfo@CWnd@@MAEPAU_AFX_OCC_DIALOG_INFO@@XZ 100d82bb f   mfc140:mfc140.dll
 0001:000d72c1       ?GetThisMessageMap@CWnd@@KGPBUAFX_MSGMAP@@XZ 100d82c1 f   mfc140:mfc140.dll
 0001:000d72c7       ?GetMessageMap@CWnd@@MBEPBUAFX_MSGMAP@@XZ 100d82c7 f   mfc140:mfc140.dll
 0001:000d72cd       ?GetRuntimeClass@CEdit@@UBEPAUCRuntimeClass@@XZ 100d82cd f   mfc140:mfc140.dll
 0001:000d72d3       ??1CEdit@@UAE@XZ           100d82d3 f   mfc140:mfc140.dll
 0001:000d72d9       ?AfxMessageBox@@YGHPBDII@Z 100d82d9 f   mfc140:mfc140.dll
 0001:000d72df       ?OnDestroy@CWnd@@IAEXXZ    100d82df f   mfc140:mfc140.dll
 0001:000d72e5       ?GetThisClass@CWnd@@SGPAUCRuntimeClass@@XZ 100d82e5 f   mfc140:mfc140.dll
 0001:000d72eb       ?CreateControl@CWnd@@QAEHABU_GUID@@PBDKABUtagRECT@@PAV1@IPAVCFile@@HPA_W@Z 100d82eb f   mfc140:mfc140.dll
 0001:000d72f1       ?InvokeHelper@CWnd@@QAAXJGGPAXPBEZZ 100d82f1 f   mfc140:mfc140.dll
 0001:000d72f7       ?SetProperty@CWnd@@QAAXJGZZ 100d82f7 f   mfc140:mfc140.dll
 0001:000d72fd       ?GetProperty@CWnd@@QBEXJGPAX@Z 100d82fd f   mfc140:mfc140.dll
 0001:000d7303       ??A?$CSimpleStringT@D$00@ATL@@QBEDH@Z 100d8303 f   mfc140:mfc140.dll
 0001:000d7309       ?Empty@?$CSimpleStringT@D$00@ATL@@QAEXXZ 100d8309 f   mfc140:mfc140.dll
 0001:000d730f       ??0?$CStringT@DV?$StrTraitMFC_DLL@DV?$ChTraitsCRT@D@ATL@@@@@ATL@@QAE@DH@Z 100d830f f   mfc140:mfc140.dll
 0001:000d7315       ??Y?$CStringT@DV?$StrTraitMFC_DLL@DV?$ChTraitsCRT@D@ATL@@@@@ATL@@QAEAAV01@ABV?$CSimpleStringT@D$00@1@@Z 100d8315 f   mfc140:mfc140.dll
 0001:000d731b       ??Y?$CStringT@DV?$StrTraitMFC_DLL@DV?$ChTraitsCRT@D@ATL@@@@@ATL@@QAEAAV01@PBD@Z 100d831b f   mfc140:mfc140.dll
 0001:000d7321       ??Y?$CStringT@DV?$StrTraitMFC_DLL@DV?$ChTraitsCRT@D@ATL@@@@@ATL@@QAEAAV01@D@Z 100d8321 f   mfc140:mfc140.dll
 0001:000d7327       ?Delete@?$CStringT@DV?$StrTraitMFC_DLL@DV?$ChTraitsCRT@D@ATL@@@@@ATL@@QAEHHH@Z 100d8327 f   mfc140:mfc140.dll
 0001:000d732d       ?Replace@?$CStringT@DV?$StrTraitMFC_DLL@DV?$ChTraitsCRT@D@ATL@@@@@ATL@@QAEHPBD0@Z 100d832d f   mfc140:mfc140.dll
 0001:000d7333       ?Remove@?$CStringT@DV?$StrTraitMFC_DLL@DV?$ChTraitsCRT@D@ATL@@@@@ATL@@QAEHD@Z 100d8333 f   mfc140:mfc140.dll
 0001:000d7339       ?Find@?$CStringT@DV?$StrTraitMFC_DLL@DV?$ChTraitsCRT@D@ATL@@@@@ATL@@QBEHDH@Z 100d8339 f   mfc140:mfc140.dll
 0001:000d733f       ?Find@?$CStringT@DV?$StrTraitMFC_DLL@DV?$ChTraitsCRT@D@ATL@@@@@ATL@@QBEHPBDH@Z 100d833f f   mfc140:mfc140.dll
 0001:000d7345       ?TrimRight@?$CStringT@DV?$StrTraitMFC_DLL@DV?$ChTraitsCRT@D@ATL@@@@@ATL@@QAEAAV12@XZ 100d8345 f   mfc140:mfc140.dll
 0001:000d734b       ?TrimLeft@?$CStringT@DV?$StrTraitMFC_DLL@DV?$ChTraitsCRT@D@ATL@@@@@ATL@@QAEAAV12@XZ 100d834b f   mfc140:mfc140.dll
 0001:000d7351       ?TrimRight@?$CStringT@DV?$StrTraitMFC_DLL@DV?$ChTraitsCRT@D@ATL@@@@@ATL@@QAEAAV12@PBD@Z 100d8351 f   mfc140:mfc140.dll
 0001:000d7357       ?TrimLeft@?$CStringT@DV?$StrTraitMFC_DLL@DV?$ChTraitsCRT@D@ATL@@@@@ATL@@QAEAAV12@D@Z 100d8357 f   mfc140:mfc140.dll
 0001:000d735d       ?Mid@?$CStringT@DV?$StrTraitMFC_DLL@DV?$ChTraitsCRT@D@ATL@@@@@ATL@@QBE?AV12@HH@Z 100d835d f   mfc140:mfc140.dll
 0001:000d7363       ?Right@?$CStringT@DV?$StrTraitMFC_DLL@DV?$ChTraitsCRT@D@ATL@@@@@ATL@@QBE?AV12@H@Z 100d8363 f   mfc140:mfc140.dll
 0001:000d7369       ?Left@?$CStringT@DV?$StrTraitMFC_DLL@DV?$ChTraitsCRT@D@ATL@@@@@ATL@@QBE?AV12@H@Z 100d8369 f   mfc140:mfc140.dll
 0001:000d736f       ?GetRuntimeClass@CRgn@@UBEPAUCRuntimeClass@@XZ 100d836f f   mfc140:mfc140.dll
 0001:000d7375       ?SelectClipRgn@CDC@@QAEHPAVCRgn@@@Z 100d8375 f   mfc140:mfc140.dll
 0001:000d737b       ?AfxThrowInvalidArgException@@YGXXZ 100d837b f   mfc140:mfc140.dll
 0001:000d7381       ?AfxThrowArchiveException@@YGXHPBD@Z 100d8381 f   mfc140:mfc140.dll
 0001:000d7387       ?GetRuntimeClass@CObject@@UBEPAUCRuntimeClass@@XZ 100d8387 f   mfc140:mfc140.dll
 0001:000d738d       ?Read@CArchive@@QAEIPAXI@Z 100d838d f   mfc140:mfc140.dll
 0001:000d7393       ?Write@CArchive@@QAEXPBXI@Z 100d8393 f   mfc140:mfc140.dll
 0001:000d7399       ?ReadCount@CArchive@@QAEKXZ 100d8399 f   mfc140:mfc140.dll
 0001:000d739f       ?WriteCount@CArchive@@QAEXK@Z 100d839f f   mfc140:mfc140.dll
 0001:000d73a5       ?Create@CPlex@@SGPAU1@AAPAU1@II@Z 100d83a5 f   mfc140:mfc140.dll
 0001:000d73ab       ?FreeDataChain@CPlex@@QAEXXZ 100d83ab f   mfc140:mfc140.dll
 0001:000d73b1       ??_U@YAPAXI@Z              100d83b1 f   mfc140:mfc140.dll
 0001:000d73b7       ?AfxThrowMemoryException@@YGXXZ 100d83b7 f   mfc140:mfc140.dll
 0001:000d73bd       ?AfxThrowOleException@@YGXJ@Z 100d83bd f   mfc140:mfc140.dll
 0001:000d73c3       ?GetThisClass@CObject@@SGPAUCRuntimeClass@@XZ 100d83c3 f   mfc140:mfc140.dll
 0001:000d73c9       ?GetBuffer@?$CSimpleStringT@D$00@ATL@@QAEPADH@Z 100d83c9 f   mfc140:mfc140.dll
 0001:000d73cf       ?ReleaseBuffer@?$CSimpleStringT@D$00@ATL@@QAEXH@Z 100d83cf f   mfc140:mfc140.dll
 0001:000d73d5       ?Insert@?$CStringT@DV?$StrTraitMFC_DLL@DV?$ChTraitsCRT@D@ATL@@@@@ATL@@QAEHHPBD@Z 100d83d5 f   mfc140:mfc140.dll
 0001:000d73db       ?MakeReverse@?$CStringT@DV?$StrTraitMFC_DLL@DV?$ChTraitsCRT@D@ATL@@@@@ATL@@QAEAAV12@XZ 100d83db f   mfc140:mfc140.dll
 0001:000d73e1       ?Mid@?$CStringT@DV?$StrTraitMFC_DLL@DV?$ChTraitsCRT@D@ATL@@@@@ATL@@QBE?AV12@H@Z 100d83e1 f   mfc140:mfc140.dll
 0001:000d73e7       ?GetRuntimeClass@CFont@@UBEPAUCRuntimeClass@@XZ 100d83e7 f   mfc140:mfc140.dll
 0001:000d73ed       ?FromHandle@CDC@@SGPAV1@PAUHDC__@@@Z 100d83ed f   mfc140:mfc140.dll
 0001:000d73f3       ?SetBkMode@CDC@@QAEHH@Z    100d83f3 f   mfc140:mfc140.dll
 0001:000d73f9       ?FillSolidRect@CDC@@QAEXPBUtagRECT@@K@Z 100d83f9 f   mfc140:mfc140.dll
 0001:000d73ff       ?ModifyStyle@CWnd@@QAEHKKI@Z 100d83ff f   mfc140:mfc140.dll
 0001:000d7405       ?FromHandle@CWnd@@SGPAV1@PAUHWND__@@@Z 100d8405 f   mfc140:mfc140.dll
 0001:000d740b       ?GetRuntimeClass@CButton@@UBEPAUCRuntimeClass@@XZ 100d840b f   mfc140:mfc140.dll
 0001:000d7411       ?Create@CButton@@UAEHPBDKABUtagRECT@@PAVCWnd@@I@Z 100d8411 f   mfc140:mfc140.dll
 0001:000d7417       ?DrawItem@CButton@@UAEXPAUtagDRAWITEMSTRUCT@@@Z 100d8417 f   mfc140:mfc140.dll
 0001:000d741d       ??1CButton@@UAE@XZ         100d841d f   mfc140:mfc140.dll
 0001:000d7423       ?OnChildNotify@CButton@@MAEHIIJPAJ@Z 100d8423 f   mfc140:mfc140.dll
 0001:000d7429       ??0CToolTipCtrl@@QAE@XZ    100d8429 f   mfc140:mfc140.dll
 0001:000d742f       ?AddTool@CToolTipCtrl@@QAEHPAVCWnd@@PBDPBUtagRECT@@I@Z 100d842f f   mfc140:mfc140.dll
 0001:000d7435       ?UpdateTipText@CToolTipCtrl@@QAEXPBDPAVCWnd@@I@Z 100d8435 f   mfc140:mfc140.dll
 0001:000d743b       ??1CToolTipCtrl@@UAE@XZ    100d843b f   mfc140:mfc140.dll
 0001:000d7441       ?FromHandle@CGdiObject@@SGPAV1@PAX@Z 100d8441 f   mfc140:mfc140.dll
 0001:000d7447       ?Detach@CGdiObject@@QAEPAXXZ 100d8447 f   mfc140:mfc140.dll
 0001:000d744d       ?GetRuntimeClass@CPen@@UBEPAUCRuntimeClass@@XZ 100d844d f   mfc140:mfc140.dll
 0001:000d7453       ?GetRuntimeClass@CBrush@@UBEPAUCRuntimeClass@@XZ 100d8453 f   mfc140:mfc140.dll
 0001:000d7459       ??0CBrush@@QAE@K@Z         100d8459 f   mfc140:mfc140.dll
 0001:000d745f       ?CreatePointFont@CFont@@QAEHHPBDPAVCDC@@@Z 100d845f f   mfc140:mfc140.dll
 0001:000d7465       ?Attach@CDC@@QAEHPAUHDC__@@@Z 100d8465 f   mfc140:mfc140.dll
 0001:000d746b       ??0CDC@@QAE@XZ             100d846b f   mfc140:mfc140.dll
 0001:000d7471       ?DeleteDC@CDC@@QAEHXZ      100d8471 f   mfc140:mfc140.dll
 0001:000d7477       ?SelectObject@CDC@@QAEPAVCPen@@PAV2@@Z 100d8477 f   mfc140:mfc140.dll
 0001:000d747d       ?SelectObject@CDC@@QAEPAVCBrush@@PAV2@@Z 100d847d f   mfc140:mfc140.dll
 0001:000d7483       ?MoveTo@CDC@@QAE?AVCPoint@@HH@Z 100d8483 f   mfc140:mfc140.dll
 0001:000d7489       ?LineTo@CDC@@QAEHHH@Z      100d8489 f   mfc140:mfc140.dll
 0001:000d748f       ?SetTextAlign@CDC@@QAEII@Z 100d848f f   mfc140:mfc140.dll
 0001:000d7495       ?SelectGdiObject@CDC@@KGPAVCGdiObject@@PAUHDC__@@PAX@Z 100d8495 f   mfc140:mfc140.dll
 0001:000d749b       ??0CPaintDC@@QAE@PAVCWnd@@@Z 100d849b f   mfc140:mfc140.dll
 0001:000d74a1       ??1CPaintDC@@UAE@XZ        100d84a1 f   mfc140:mfc140.dll
 0001:000d74a7       ??0CClientDC@@QAE@PAVCWnd@@@Z 100d84a7 f   mfc140:mfc140.dll
 0001:000d74ad       ??1CClientDC@@UAE@XZ       100d84ad f   mfc140:mfc140.dll
 0001:000d74b3       ?GetStyle@CWnd@@QBEKXZ     100d84b3 f   mfc140:mfc140.dll
 0001:000d74b9       ?ModifyStyleEx@CWnd@@QAEHKKI@Z 100d84b9 f   mfc140:mfc140.dll
 0001:000d74bf       ?GetDlgCtrlID@CWnd@@QBEHXZ 100d84bf f   mfc140:mfc140.dll
 0001:000d74c5       ?GetWindowTextA@CWnd@@QBEXAAV?$CStringT@DV?$StrTraitMFC_DLL@DV?$ChTraitsCRT@D@ATL@@@@@ATL@@@Z 100d84c5 f   mfc140:mfc140.dll
 0001:000d74cb       ?ScreenToClient@CWnd@@QBEXPAUtagRECT@@@Z 100d84cb f   mfc140:mfc140.dll
 0001:000d74d1       ?GetRuntimeClass@CStatic@@UBEPAUCRuntimeClass@@XZ 100d84d1 f   mfc140:mfc140.dll
 0001:000d74d7       ?Create@CStatic@@UAEHPBDKABUtagRECT@@PAVCWnd@@I@Z 100d84d7 f   mfc140:mfc140.dll
 0001:000d74dd       ?DrawItem@CStatic@@UAEXPAUtagDRAWITEMSTRUCT@@@Z 100d84dd f   mfc140:mfc140.dll
 0001:000d74e3       ??1CStatic@@UAE@XZ         100d84e3 f   mfc140:mfc140.dll
 0001:000d74e9       ?OnChildNotify@CStatic@@MAEHIIJPAJ@Z 100d84e9 f   mfc140:mfc140.dll
 0001:000d74ef       ??0CFileFind@@QAE@XZ       100d84ef f   mfc140:mfc140.dll
 0001:000d74f5       ??1CFileFind@@UAE@XZ       100d84f5 f   mfc140:mfc140.dll
 0001:000d74fb       ?GetFileName@CFileFind@@UBE?AV?$CStringT@DV?$StrTraitMFC_DLL@DV?$ChTraitsCRT@D@ATL@@@@@ATL@@XZ 100d84fb f   mfc140:mfc140.dll
 0001:000d7501       ?IsDots@CFileFind@@UBEHXZ  100d8501 f   mfc140:mfc140.dll
 0001:000d7507       ?FindFile@CFileFind@@UAEHPBDK@Z 100d8507 f   mfc140:mfc140.dll
 0001:000d750d       ?FindNextFileA@CFileFind@@UAEHXZ 100d850d f   mfc140:mfc140.dll
 0001:000d7513       ??0CStringArray@@QAE@XZ    100d8513 f   mfc140:mfc140.dll
 0001:000d7519       ?SetSize@CStringArray@@QAEXHH@Z 100d8519 f   mfc140:mfc140.dll
 0001:000d751f       ?SetAtGrow@CStringArray@@QAEXHABV?$CStringT@DV?$StrTraitMFC_DLL@DV?$ChTraitsCRT@D@ATL@@@@@ATL@@@Z 100d851f f   mfc140:mfc140.dll
 0001:000d7525       ??1CStringArray@@UAE@XZ    100d8525 f   mfc140:mfc140.dll
 0001:000d752b       ?GetRuntimeClass@CTreeCtrl@@UBEPAUCRuntimeClass@@XZ 100d852b f   mfc140:mfc140.dll
 0001:000d7531       ?Create@CTreeCtrl@@QAEHKABUtagRECT@@PAVCWnd@@I@Z 100d8531 f   mfc140:mfc140.dll
 0001:000d7537       ?GetItemText@CTreeCtrl@@QBE?AV?$CStringT@DV?$StrTraitMFC_DLL@DV?$ChTraitsCRT@D@ATL@@@@@ATL@@PAU_TREEITEM@@@Z 100d8537 f   mfc140:mfc140.dll
 0001:000d753d       ?GetItemData@CTreeCtrl@@QBEKPAU_TREEITEM@@@Z 100d853d f   mfc140:mfc140.dll
 0001:000d7543       ?SetItem@CTreeCtrl@@QAEHPAU_TREEITEM@@IPBDHHIIJ@Z 100d8543 f   mfc140:mfc140.dll
 0001:000d7549       ?ItemHasChildren@CTreeCtrl@@QBEHPAU_TREEITEM@@@Z 100d8549 f   mfc140:mfc140.dll
 0001:000d754f       ?InsertItem@CTreeCtrl@@QAEPAU_TREEITEM@@IPBDHHIIJPAU2@1@Z 100d854f f   mfc140:mfc140.dll
 0001:000d7555       ?HitTest@CTreeCtrl@@QBEPAU_TREEITEM@@VCPoint@@PAI@Z 100d8555 f   mfc140:mfc140.dll
 0001:000d755b       ??1CTreeCtrl@@UAE@XZ       100d855b f   mfc140:mfc140.dll
 0001:000d7561       ?OnDestroy@CTreeCtrl@@QAEXXZ 100d8561 f   mfc140:mfc140.dll
 0001:000d7567       ?GetThisMessageMap@CTreeCtrl@@KGPBUAFX_MSGMAP@@XZ 100d8567 f   mfc140:mfc140.dll
 0001:000d756d       ?GetMessageMap@CTreeCtrl@@MBEPBUAFX_MSGMAP@@XZ 100d856d f   mfc140:mfc140.dll
 0001:000d7573       ?GetBufferSetLength@?$CSimpleStringT@D$00@ATL@@QAEPADH@Z 100d8573 f   mfc140:mfc140.dll
 0001:000d7579       ?ReverseFind@?$CStringT@DV?$StrTraitMFC_DLL@DV?$ChTraitsCRT@D@ATL@@@@@ATL@@QBEHD@Z 100d8579 f   mfc140:mfc140.dll
 0001:000d757f       ?SpanIncluding@?$CStringT@DV?$StrTraitMFC_DLL@DV?$ChTraitsCRT@D@ATL@@@@@ATL@@QBE?AV12@PBD@Z 100d857f f   mfc140:mfc140.dll
 0001:000d7585       ?SpanExcluding@?$CStringT@DV?$StrTraitMFC_DLL@DV?$ChTraitsCRT@D@ATL@@@@@ATL@@QBE?AV12@PBD@Z 100d8585 f   mfc140:mfc140.dll
 0001:000d758b       ?GetRuntimeClass@CMapPtrToPtr@@UBEPAUCRuntimeClass@@XZ 100d858b f   mfc140:mfc140.dll
 0001:000d7591       ??0CMapPtrToPtr@@QAE@H@Z   100d8591 f   mfc140:mfc140.dll
 0001:000d7597       ?Lookup@CMapPtrToPtr@@QBEHPAXAAPAX@Z 100d8597 f   mfc140:mfc140.dll
 0001:000d759d       ??ACMapPtrToPtr@@QAEAAPAXPAX@Z 100d859d f   mfc140:mfc140.dll
 0001:000d75a3       ??1CMapPtrToPtr@@UAE@XZ    100d85a3 f   mfc140:mfc140.dll
 0001:000d75a9       ?GetRuntimeClass@CMapStringToPtr@@UBEPAUCRuntimeClass@@XZ 100d85a9 f   mfc140:mfc140.dll
 0001:000d75af       ??0CMapStringToPtr@@QAE@H@Z 100d85af f   mfc140:mfc140.dll
 0001:000d75b5       ?Lookup@CMapStringToPtr@@QBEHPBDAAPAX@Z 100d85b5 f   mfc140:mfc140.dll
 0001:000d75bb       ??ACMapStringToPtr@@QAEAAPAXPBD@Z 100d85bb f   mfc140:mfc140.dll
 0001:000d75c1       ??1CMapStringToPtr@@UAE@XZ 100d85c1 f   mfc140:mfc140.dll
 0001:000d75c7       ??1CDC@@UAE@XZ             100d85c7 f   mfc140:mfc140.dll
 0001:000d75cd       ??0CFile@@QAE@XZ           100d85cd f   mfc140:mfc140.dll
 0001:000d75d3       ?Open@CFile@@UAEHPBDIPAVCFileException@@@Z 100d85d3 f   mfc140:mfc140.dll
 0001:000d75d9       ?GetLength@CFile@@UBE_KXZ  100d85d9 f   mfc140:mfc140.dll
 0001:000d75df       ?Read@CFile@@UAEIPAXI@Z    100d85df f   mfc140:mfc140.dll
 0001:000d75e5       ??1CFile@@UAE@XZ           100d85e5 f   mfc140:mfc140.dll
 0001:000d75eb       ?GetAt@?$CSimpleStringT@D$00@ATL@@QBEDH@Z 100d85eb f   mfc140:mfc140.dll
 0001:000d75f1       ?TrimRight@?$CStringT@DV?$StrTraitMFC_DLL@DV?$ChTraitsCRT@D@ATL@@@@@ATL@@QAEAAV12@D@Z 100d85f1 f   mfc140:mfc140.dll
 0001:000d75f7       ??0CPtrArray@@QAE@XZ       100d85f7 f   mfc140:mfc140.dll
 0001:000d75fd       ?SetAtGrow@CPtrArray@@QAEXHPAX@Z 100d85fd f   mfc140:mfc140.dll
 0001:000d7603       ??1CPtrArray@@UAE@XZ       100d8603 f   mfc140:mfc140.dll
 0001:000d7609       ?Append@CStringArray@@QAEHABV1@@Z 100d8609 f   mfc140:mfc140.dll
 0001:000d760f       ?RemoveAt@CStringArray@@QAEXHH@Z 100d860f f   mfc140:mfc140.dll
 0001:000d7615       ??0CStringList@@QAE@H@Z    100d8615 f   mfc140:mfc140.dll
 0001:000d761b       ?AddTail@CStringList@@QAEPAU__POSITION@@PBD@Z 100d861b f   mfc140:mfc140.dll
 0001:000d7621       ?RemoveAll@CStringList@@QAEXXZ 100d8621 f   mfc140:mfc140.dll
 0001:000d7627       ??1CStringList@@UAE@XZ     100d8627 f   mfc140:mfc140.dll
 0001:000d762d       ?RemoveKey@CMapStringToPtr@@QAEHPBD@Z 100d862d f   mfc140:mfc140.dll
 0001:000d7633       ?RemoveAll@CMapStringToPtr@@QAEXXZ 100d8633 f   mfc140:mfc140.dll
 0001:000d7639       ?GetNextAssoc@CMapStringToPtr@@QBEXAAPAU__POSITION@@AAV?$CStringT@DV?$StrTraitMFC_DLL@DV?$ChTraitsCRT@D@ATL@@@@@ATL@@AAPAX@Z 100d8639 f   mfc140:mfc140.dll
 0001:000d763f       ?AfxBeginThread@@YGPAVCWinThread@@P6AIPAX@Z0HIKPAU_SECURITY_ATTRIBUTES@@@Z 100d863f f   mfc140:mfc140.dll
 0001:000d7645       ?AfxExtractSubString@@YGHAAV?$CStringT@DV?$StrTraitMFC_DLL@DV?$ChTraitsCRT@D@ATL@@@@@ATL@@PBDHD@Z 100d8645 f   mfc140:mfc140.dll
 0001:000d764b       ?SetAtGrow@CStringArray@@QAEXHPBD@Z 100d864b f   mfc140:mfc140.dll
 0001:000d7651       ?FindOneOf@?$CStringT@DV?$StrTraitMFC_DLL@DV?$ChTraitsCRT@D@ATL@@@@@ATL@@QBEHPBD@Z 100d8651 f   mfc140:mfc140.dll
 0001:000d7657       ?GetFilePath@CFileFind@@UBE?AV?$CStringT@DV?$StrTraitMFC_DLL@DV?$ChTraitsCRT@D@ATL@@@@@ATL@@XZ 100d8657 f   mfc140:mfc140.dll
 0001:000d765d       ?DDX_Control@@YGXPAVCDataExchange@@HAAVCWnd@@@Z 100d865d f   mfc140:mfc140.dll
 0001:000d7663       ?GetDlgItem@CWnd@@QBEPAV1@H@Z 100d8663 f   mfc140:mfc140.dll
 0001:000d7669       ?SetWindowTextA@CWnd@@QAEXPBD@Z 100d8669 f   mfc140:mfc140.dll
 0001:000d766f       ?GetDlgItemTextA@CWnd@@QBEHHAAV?$CStringT@DV?$StrTraitMFC_DLL@DV?$ChTraitsCRT@D@ATL@@@@@ATL@@@Z 100d866f f   mfc140:mfc140.dll
 0001:000d7675       ?SetDlgItemTextA@CWnd@@QAEXHPBD@Z 100d8675 f   mfc140:mfc140.dll
 0001:000d767b       ?MessageBoxA@CWnd@@QAEHPBD0I@Z 100d867b f   mfc140:mfc140.dll
 0001:000d7681       ?GetRuntimeClass@CDialog@@UBEPAUCRuntimeClass@@XZ 100d8681 f   mfc140:mfc140.dll
 0001:000d7687       ?Create@CDialog@@UAEHPBDPAVCWnd@@@Z 100d8687 f   mfc140:mfc140.dll
 0001:000d768d       ?CreateIndirect@CDialog@@UAEHPBUDLGTEMPLATE@@PAVCWnd@@PAX@Z 100d868d f   mfc140:mfc140.dll
 0001:000d7693       ?CreateIndirect@CDialog@@UAEHPAXPAVCWnd@@@Z 100d8693 f   mfc140:mfc140.dll
 0001:000d7699       ?EndDialog@CDialog@@QAEXH@Z 100d8699 f   mfc140:mfc140.dll
 0001:000d769f       ?OnInitDialog@CDialog@@UAEHXZ 100d869f f   mfc140:mfc140.dll
 0001:000d76a5       ?OnSetFont@CDialog@@UAEXPAVCFont@@@Z 100d86a5 f   mfc140:mfc140.dll
 0001:000d76ab       ?OnOK@CDialog@@MAEXXZ      100d86ab f   mfc140:mfc140.dll
 0001:000d76b1       ?OnCancel@CDialog@@MAEXXZ  100d86b1 f   mfc140:mfc140.dll
 0001:000d76b7       ??1CDialog@@UAE@XZ         100d86b7 f   mfc140:mfc140.dll
 0001:000d76bd       ?PreTranslateMessage@CDialog@@UAEHPAUtagMSG@@@Z 100d86bd f   mfc140:mfc140.dll
 0001:000d76c3       ?OnCmdMsg@CDialog@@UAEHIHPAXPAUAFX_CMDHANDLERINFO@@@Z 100d86c3 f   mfc140:mfc140.dll
 0001:000d76c9       ?CheckAutoCenter@CDialog@@UAEHXZ 100d86c9 f   mfc140:mfc140.dll
 0001:000d76cf       ?SetOccDialogInfo@CDialog@@MAEHPAU_AFX_OCC_DIALOG_INFO@@@Z 100d86cf f   mfc140:mfc140.dll
 0001:000d76d5       ?GetOccDialogInfo@CDialog@@MAEPAU_AFX_OCC_DIALOG_INFO@@XZ 100d86d5 f   mfc140:mfc140.dll
 0001:000d76db       ?PreInitDialog@CDialog@@MAEXXZ 100d86db f   mfc140:mfc140.dll
 0001:000d76e1       ?GetRuntimeClass@CListCtrl@@UBEPAUCRuntimeClass@@XZ 100d86e1 f   mfc140:mfc140.dll
 0001:000d76e7       ?SetItemState@CListCtrl@@QAEHHII@Z 100d86e7 f   mfc140:mfc140.dll
 0001:000d76ed       ?GetItemText@CListCtrl@@QBE?AV?$CStringT@DV?$StrTraitMFC_DLL@DV?$ChTraitsCRT@D@ATL@@@@@ATL@@HH@Z 100d86ed f   mfc140:mfc140.dll
 0001:000d76f3       ?SetItemText@CListCtrl@@QAEHHHPBD@Z 100d86f3 f   mfc140:mfc140.dll
 0001:000d76f9       ?DrawItem@CListCtrl@@UAEXPAUtagDRAWITEMSTRUCT@@@Z 100d86f9 f   mfc140:mfc140.dll
 0001:000d76ff       ?InsertItem@CListCtrl@@QAEHIHPBDIIHJ@Z 100d86ff f   mfc140:mfc140.dll
 0001:000d7705       ??1CListCtrl@@UAE@XZ       100d8705 f   mfc140:mfc140.dll
 0001:000d770b       ?OnChildNotify@CListCtrl@@MAEHIIJPAJ@Z 100d870b f   mfc140:mfc140.dll
 0001:000d7711       ?GetMessageMap@CListCtrl@@MBEPBUAFX_MSGMAP@@XZ 100d8711 f   mfc140:mfc140.dll
 0001:000d7717       ?IsKindOf@CObject@@QBEHPBUCRuntimeClass@@@Z 100d8717 f   mfc140:mfc140.dll
 0001:000d771d       ?AddTail@CStringList@@QAEPAU__POSITION@@ABV?$CStringT@DV?$StrTraitMFC_DLL@DV?$ChTraitsCRT@D@ATL@@@@@ATL@@@Z 100d871d f   mfc140:mfc140.dll
 0001:000d7723       ?Find@CStringList@@QBEPAU__POSITION@@PBDPAU2@@Z 100d8723 f   mfc140:mfc140.dll
 0001:000d7729       ??$SerializeElements@V?$CStringT@DV?$StrTraitMFC_DLL@DV?$ChTraitsCRT@D@ATL@@@@@ATL@@@@YGXAAVCArchive@@PAV?$CStringT@DV?$StrTraitMFC_DLL@DV?$ChTraitsCRT@D@ATL@@@@@ATL@@H@Z 100d8729 f   mfc140:mfc140.dll
 0001:000d772f       ?GetRuntimeClass@CMenu@@UBEPAUCRuntimeClass@@XZ 100d872f f   mfc140:mfc140.dll
 0001:000d7735       ?DestroyMenu@CMenu@@QAEHXZ 100d8735 f   mfc140:mfc140.dll
 0001:000d773b       ?FromHandle@CMenu@@SGPAV1@PAUHMENU__@@@Z 100d873b f   mfc140:mfc140.dll
 0001:000d7741       ?Attach@CMenu@@QAEHPAUHMENU__@@@Z 100d8741 f   mfc140:mfc140.dll
 0001:000d7747       ?Detach@CMenu@@QAEPAUHMENU__@@XZ 100d8747 f   mfc140:mfc140.dll
 0001:000d774d       ?TrackPopupMenu@CMenu@@QAEHIHHPAVCWnd@@PBUtagRECT@@@Z 100d874d f   mfc140:mfc140.dll
 0001:000d7753       ?GetMenuStringA@CMenu@@QBEHIAAV?$CStringT@DV?$StrTraitMFC_DLL@DV?$ChTraitsCRT@D@ATL@@@@@ATL@@I@Z 100d8753 f   mfc140:mfc140.dll
 0001:000d7759       ?DrawItem@CMenu@@UAEXPAUtagDRAWITEMSTRUCT@@@Z 100d8759 f   mfc140:mfc140.dll
 0001:000d775f       ?MeasureItem@CMenu@@UAEXPAUtagMEASUREITEMSTRUCT@@@Z 100d875f f   mfc140:mfc140.dll
 0001:000d7765       ?EnableWindow@CWnd@@QAEHH@Z 100d8765 f   mfc140:mfc140.dll
 0001:000d776b       ??0CFile@@QAE@PBDI@Z       100d876b f   mfc140:mfc140.dll
 0001:000d7771       ?GetStatus@CFile@@SGHPBDAAUCFileStatus@@PAVCAtlTransactionManager@ATL@@@Z 100d8771 f   mfc140:mfc140.dll
 0001:000d7777       ?Close@CFile@@UAEXXZ       100d8777 f   mfc140:mfc140.dll
 0001:000d777d       ?Copy@CStringArray@@QAEXABV1@@Z 100d877d f   mfc140:mfc140.dll
 0001:000d7783       ??0CMapStringToString@@QAE@H@Z 100d8783 f   mfc140:mfc140.dll
 0001:000d7789       ?Lookup@CMapStringToString@@QBEHPBDAAV?$CStringT@DV?$StrTraitMFC_DLL@DV?$ChTraitsCRT@D@ATL@@@@@ATL@@@Z 100d8789 f   mfc140:mfc140.dll
 0001:000d778f       ??ACMapStringToString@@QAEAAV?$CStringT@DV?$StrTraitMFC_DLL@DV?$ChTraitsCRT@D@ATL@@@@@ATL@@PBD@Z 100d878f f   mfc140:mfc140.dll
 0001:000d7795       ?RemoveAll@CMapStringToString@@QAEXXZ 100d8795 f   mfc140:mfc140.dll
 0001:000d779b       ??1CMapStringToString@@UAE@XZ 100d879b f   mfc140:mfc140.dll
 0001:000d77a1       ?SetSize@CPtrArray@@QAEXHH@Z 100d87a1 f   mfc140:mfc140.dll
 0001:000d77a7       ?InsertAt@CPtrArray@@QAEXHPAXH@Z 100d87a7 f   mfc140:mfc140.dll
 0001:000d77ad       ?RemoveAt@CPtrArray@@QAEXHH@Z 100d87ad f   mfc140:mfc140.dll
 0001:000d77b3       ?AfxGetModuleState@@YGPAVAFX_MODULE_STATE@@XZ 100d87b3 f   mfc140:mfc140.dll
 0001:000d77b9       ??0AFX_MAINTAIN_STATE2@@QAE@PAVAFX_MODULE_STATE@@@Z 100d87b9 f   mfc140:mfc140.dll
 0001:000d77bf       ??1AFX_MAINTAIN_STATE2@@QAE@XZ 100d87bf f   mfc140:mfc140.dll
 0001:000d77c5       ??0CPen@@QAE@HHK@Z         100d87c5 f   mfc140:mfc140.dll
 0001:000d77cb       ?SaveDC@CDC@@UAEHXZ        100d87cb f   mfc140:mfc140.dll
 0001:000d77d1       ?RestoreDC@CDC@@UAEHH@Z    100d87d1 f   mfc140:mfc140.dll
 0001:000d77d7       ?SelectObject@CDC@@UAEPAVCFont@@PAV2@@Z 100d87d7 f   mfc140:mfc140.dll
 0001:000d77dd       ?SetTextColor@CDC@@UAEKK@Z 100d87dd f   mfc140:mfc140.dll
 0001:000d77e3       ?ExcludeClipRect@CDC@@QAEHPBUtagRECT@@@Z 100d87e3 f   mfc140:mfc140.dll
 0001:000d77e9       ?Draw3dRect@CDC@@QAEXPBUtagRECT@@KK@Z 100d87e9 f   mfc140:mfc140.dll
 0001:000d77ef       ?AfxFindResourceHandle@@YGPAUHINSTANCE__@@PBD0@Z 100d87ef f   mfc140:mfc140.dll
 0001:000d77f5       ?AfxLockTempMaps@@YGXXZ    100d87f5 f   mfc140:mfc140.dll
 0001:000d77fb       ?AfxUnlockTempMaps@@YGHH@Z 100d87fb f   mfc140:mfc140.dll
 0001:000d7801       ?LoadStringA@?$CStringT@DV?$StrTraitMFC_DLL@DV?$ChTraitsCRT@D@ATL@@@@@ATL@@QAEHI@Z 100d8801 f   mfc140:mfc140.dll
 0001:000d7807       ?GetRuntimeClass@CDC@@UBEPAUCRuntimeClass@@XZ 100d8807 f   mfc140:mfc140.dll
 0001:000d780d       ?SetAttribDC@CDC@@UAEXPAUHDC__@@@Z 100d880d f   mfc140:mfc140.dll
 0001:000d7813       ?SetOutputDC@CDC@@UAEXPAUHDC__@@@Z 100d8813 f   mfc140:mfc140.dll
 0001:000d7819       ?ReleaseAttribDC@CDC@@UAEXXZ 100d8819 f   mfc140:mfc140.dll
 0001:000d781f       ?ReleaseOutputDC@CDC@@UAEXXZ 100d881f f   mfc140:mfc140.dll
 0001:000d7825       ?SelectStockObject@CDC@@UAEPAVCGdiObject@@H@Z 100d8825 f   mfc140:mfc140.dll
 0001:000d782b       ?SetBkColor@CDC@@UAEKK@Z   100d882b f   mfc140:mfc140.dll
 0001:000d7831       ?SetMapMode@CDC@@UAEHH@Z   100d8831 f   mfc140:mfc140.dll
 0001:000d7837       ?SetViewportOrg@CDC@@UAE?AVCPoint@@HH@Z 100d8837 f   mfc140:mfc140.dll
 0001:000d783d       ?OffsetViewportOrg@CDC@@UAE?AVCPoint@@HH@Z 100d883d f   mfc140:mfc140.dll
 0001:000d7843       ?SetViewportExt@CDC@@UAE?AVCSize@@HH@Z 100d8843 f   mfc140:mfc140.dll
 0001:000d7849       ?ScaleViewportExt@CDC@@UAE?AVCSize@@HHHH@Z 100d8849 f   mfc140:mfc140.dll
 0001:000d784f       ?SetWindowOrg@CDC@@QAE?AVCPoint@@HH@Z 100d884f f   mfc140:mfc140.dll
 0001:000d7855       ?SetWindowExt@CDC@@UAE?AVCSize@@HH@Z 100d8855 f   mfc140:mfc140.dll
 0001:000d785b       ?ScaleWindowExt@CDC@@UAE?AVCSize@@HHHH@Z 100d885b f   mfc140:mfc140.dll
 0001:000d7861       ?GetClipBox@CDC@@UBEHPAUtagRECT@@@Z 100d8861 f   mfc140:mfc140.dll
 0001:000d7867       ?GetRuntimeClass@CProgressCtrl@@UBEPAUCRuntimeClass@@XZ 100d8867 f   mfc140:mfc140.dll
 0001:000d786d       ?Create@CProgressCtrl@@UAEHKABUtagRECT@@PAVCWnd@@I@Z 100d886d f   mfc140:mfc140.dll
 0001:000d7873       ?CreateEx@CProgressCtrl@@UAEHKKABUtagRECT@@PAVCWnd@@I@Z 100d8873 f   mfc140:mfc140.dll
 0001:000d7879       ??1CProgressCtrl@@UAE@XZ   100d8879 f   mfc140:mfc140.dll
 0001:000d787f       ?GetThisClass@CTreeCtrl@@SGPAUCRuntimeClass@@XZ 100d887f f   mfc140:mfc140.dll
 0001:000d7885       ?GetItemRect@CTreeCtrl@@QBEHPAU_TREEITEM@@PAUtagRECT@@H@Z 100d8885 f   mfc140:mfc140.dll
 0001:000d788b       ?GetItemState@CTreeCtrl@@QBEIPAU_TREEITEM@@I@Z 100d888b f   mfc140:mfc140.dll
 0001:000d7891       ??4?$CStringT@DV?$StrTraitMFC_DLL@DV?$ChTraitsCRT@D@ATL@@@@@ATL@@QAEAAV01@D@Z 100d8891 f   mfc140:mfc140.dll
 0001:000d7897       ?GetCurrentMessage@CWnd@@KGPBUtagMSG@@XZ 100d8897 f   mfc140:mfc140.dll
 0001:000d789d       ?SetScrollInfo@CWnd@@QAEHHPAUtagSCROLLINFO@@H@Z 100d889d f   mfc140:mfc140.dll
 0001:000d78a3       ?GetScrollInfo@CWnd@@QAEHHPAUtagSCROLLINFO@@I@Z 100d88a3 f   mfc140:mfc140.dll
 0001:000d78a9       ?GetRuntimeClass@CListBox@@UBEPAUCRuntimeClass@@XZ 100d88a9 f   mfc140:mfc140.dll
 0001:000d78af       ?Create@CListBox@@UAEHKABUtagRECT@@PAVCWnd@@I@Z 100d88af f   mfc140:mfc140.dll
 0001:000d78b5       ?ItemFromPoint@CListBox@@QBEIVCPoint@@AAH@Z 100d88b5 f   mfc140:mfc140.dll
 0001:000d78bb       ?DrawItem@CListBox@@UAEXPAUtagDRAWITEMSTRUCT@@@Z 100d88bb f   mfc140:mfc140.dll
 0001:000d78c1       ?MeasureItem@CListBox@@UAEXPAUtagMEASUREITEMSTRUCT@@@Z 100d88c1 f   mfc140:mfc140.dll
 0001:000d78c7       ?CompareItem@CListBox@@UAEHPAUtagCOMPAREITEMSTRUCT@@@Z 100d88c7 f   mfc140:mfc140.dll
 0001:000d78cd       ?DeleteItem@CListBox@@UAEXPAUtagDELETEITEMSTRUCT@@@Z 100d88cd f   mfc140:mfc140.dll
 0001:000d78d3       ?VKeyToItem@CListBox@@UAEHII@Z 100d88d3 f   mfc140:mfc140.dll
 0001:000d78d9       ?CharToItem@CListBox@@UAEHII@Z 100d88d9 f   mfc140:mfc140.dll
 0001:000d78df       ??1CListBox@@UAE@XZ        100d88df f   mfc140:mfc140.dll
 0001:000d78e5       ?OnChildNotify@CListBox@@MAEHIIJPAJ@Z 100d88e5 f   mfc140:mfc140.dll
 0001:000d78eb       ?GetRuntimeClass@CScrollBar@@UBEPAUCRuntimeClass@@XZ 100d88eb f   mfc140:mfc140.dll
 0001:000d78f1       ?Create@CScrollBar@@UAEHKABUtagRECT@@PAVCWnd@@I@Z 100d88f1 f   mfc140:mfc140.dll
 0001:000d78f7       ??1CScrollBar@@UAE@XZ      100d88f7 f   mfc140:mfc140.dll
 0001:000d78fd       ?FromHandle@CImageList@@SGPAV1@PAU_IMAGELIST@@@Z 100d88fd f   mfc140:mfc140.dll
 0001:000d7903       ?DrawIndirect@CImageList@@QAEHPAVCDC@@HUtagPOINT@@UtagSIZE@@1IKKKKKK@Z 100d8903 f   mfc140:mfc140.dll
 0001:000d7909       ?OnSysColorChange@CWnd@@IAEXXZ 100d8909 f   mfc140:mfc140.dll
 0001:000d790f       ?GetThisClass@CHeaderCtrl@@SGPAUCRuntimeClass@@XZ 100d890f f   mfc140:mfc140.dll
 0001:000d7915       ?GetRuntimeClass@CHeaderCtrl@@UBEPAUCRuntimeClass@@XZ 100d8915 f   mfc140:mfc140.dll
 0001:000d791b       ?Create@CHeaderCtrl@@UAEHKABUtagRECT@@PAVCWnd@@I@Z 100d891b f   mfc140:mfc140.dll
 0001:000d7921       ?CreateEx@CHeaderCtrl@@UAEHKKABUtagRECT@@PAVCWnd@@I@Z 100d8921 f   mfc140:mfc140.dll
 0001:000d7927       ?DrawItem@CHeaderCtrl@@UAEXPAUtagDRAWITEMSTRUCT@@@Z 100d8927 f   mfc140:mfc140.dll
 0001:000d792d       ??1CHeaderCtrl@@UAE@XZ     100d892d f   mfc140:mfc140.dll
 0001:000d7933       ?OnChildNotify@CHeaderCtrl@@MAEHIIJPAJ@Z 100d8933 f   mfc140:mfc140.dll
 0001:000d7939       ?SubclassWindow@CWnd@@QAEHPAUHWND__@@@Z 100d8939 f   mfc140:mfc140.dll
 0001:000d793f       ?GetScrollPos@CWnd@@QBEHH@Z 100d893f f   mfc140:mfc140.dll
 0001:000d7945       ?Create@CEdit@@QAEHKABUtagRECT@@PAVCWnd@@I@Z 100d8945 f   mfc140:mfc140.dll
 0001:000d794b       ?GetItemRect@CListCtrl@@QBEHHPAUtagRECT@@I@Z 100d894b f   mfc140:mfc140.dll
 0001:000d7951       ?GetHeaderCtrl@CListCtrl@@QBEPAVCHeaderCtrl@@XZ 100d8951 f   mfc140:mfc140.dll
 0001:000d7957       ?GetSubItemRect@CListCtrl@@QBEHHHHAAVCRect@@@Z 100d8957 f   mfc140:mfc140.dll
 0001:000d795d       ?GetThisMessageMap@CListCtrl@@KGPBUAFX_MSGMAP@@XZ 100d895d f   mfc140:mfc140.dll
 0001:000d7963       ?InsertColumn@CListCtrl@@QAEHHPBDHHH@Z 100d8963 f   mfc140:mfc140.dll
 0001:000d7969       ??0CDialog@@QAE@IPAVCWnd@@@Z 100d8969 f   mfc140:mfc140.dll
 0001:000d796f       ?DoModal@CDialog@@UAEHXZ   100d896f f   mfc140:mfc140.dll
 0001:000d7975       ?OnPaint@CDialog@@IAEXXZ   100d8975 f   mfc140:mfc140.dll
 0001:000d797b       ?GetThisMessageMap@CDialog@@KGPBUAFX_MSGMAP@@XZ 100d897b f   mfc140:mfc140.dll
 0001:000d7981       ?GetRuntimeClass@CComboBox@@UBEPAUCRuntimeClass@@XZ 100d8981 f   mfc140:mfc140.dll
 0001:000d7987       ?Create@CComboBox@@UAEHKABUtagRECT@@PAVCWnd@@I@Z 100d8987 f   mfc140:mfc140.dll
 0001:000d798d       ?DrawItem@CComboBox@@UAEXPAUtagDRAWITEMSTRUCT@@@Z 100d898d f   mfc140:mfc140.dll
 0001:000d7993       ?MeasureItem@CComboBox@@UAEXPAUtagMEASUREITEMSTRUCT@@@Z 100d8993 f   mfc140:mfc140.dll
 0001:000d7999       ?CompareItem@CComboBox@@UAEHPAUtagCOMPAREITEMSTRUCT@@@Z 100d8999 f   mfc140:mfc140.dll
 0001:000d799f       ?DeleteItem@CComboBox@@UAEXPAUtagDELETEITEMSTRUCT@@@Z 100d899f f   mfc140:mfc140.dll
 0001:000d79a5       ??1CComboBox@@UAE@XZ       100d89a5 f   mfc140:mfc140.dll
 0001:000d79ab       ?OnChildNotify@CComboBox@@MAEHIIJPAJ@Z 100d89ab f   mfc140:mfc140.dll
 0001:000d79b1       ?OnCtlColor@CWnd@@IAEPAUHBRUSH__@@PAVCDC@@PAV1@I@Z 100d89b1 f   mfc140:mfc140.dll
 0001:000d79b7       ?GetLBText@CComboBox@@QBEXHAAV?$CStringT@DV?$StrTraitMFC_DLL@DV?$ChTraitsCRT@D@ATL@@@@@ATL@@@Z 100d89b7 f   mfc140:mfc140.dll
 0001:000d79bd       ??0CWindowDC@@QAE@PAVCWnd@@@Z 100d89bd f   mfc140:mfc140.dll
 0001:000d79c3       ??1CWindowDC@@UAE@XZ       100d89c3 f   mfc140:mfc140.dll
 0001:000d79c9       ?GetThisClass@CDialog@@SGPAUCRuntimeClass@@XZ 100d89c9 f   mfc140:mfc140.dll
 0001:000d79cf       ?DDX_Check@@YGXPAVCDataExchange@@HAAH@Z 100d89cf f   mfc140:mfc140.dll
 0001:000d79d5       ?IsWindowEnabled@CWnd@@QBEHXZ 100d89d5 f   mfc140:mfc140.dll
 0001:000d79db       ?UpdateData@CWnd@@QAEHH@Z  100d89db f   mfc140:mfc140.dll
 0001:000d79e1       ?GetRuntimeClass@CDateTimeCtrl@@UBEPAUCRuntimeClass@@XZ 100d89e1 f   mfc140:mfc140.dll
 0001:000d79e7       ?Create@CDateTimeCtrl@@UAEHKABUtagRECT@@PAVCWnd@@I@Z 100d89e7 f   mfc140:mfc140.dll
 0001:000d79ed       ?SetTime@CDateTimeCtrl@@QAEHPBVCTime@ATL@@@Z 100d89ed f   mfc140:mfc140.dll
 0001:000d79f3       ?GetTime@CDateTimeCtrl@@QBEKAAVCTime@ATL@@@Z 100d89f3 f   mfc140:mfc140.dll
 0001:000d79f9       ?SetTime@CDateTimeCtrl@@QAEHPAU_SYSTEMTIME@@@Z 100d89f9 f   mfc140:mfc140.dll
 0001:000d79ff       ??1CDateTimeCtrl@@UAE@XZ   100d89ff f   mfc140:mfc140.dll
 0001:000d7a05       ?Write@CFile@@UAEXPBXI@Z   100d8a05 f   mfc140:mfc140.dll
 0001:000d7a0b       ?GetFileTitle@CFileFind@@UBE?AV?$CStringT@DV?$StrTraitMFC_DLL@DV?$ChTraitsCRT@D@ATL@@@@@ATL@@XZ 100d8a0b f   mfc140:mfc140.dll
 0001:000d7a11       ?Delete@CException@@QAEXXZ 100d8a11 f   mfc140:mfc140.dll
 0001:000d7a17       ??0CDWordArray@@QAE@XZ     100d8a17 f   mfc140:mfc140.dll
 0001:000d7a1d       ?SetSize@CDWordArray@@QAEXHH@Z 100d8a1d f   mfc140:mfc140.dll
 0001:000d7a23       ?SetAtGrow@CDWordArray@@QAEXHK@Z 100d8a23 f   mfc140:mfc140.dll
 0001:000d7a29       ?InsertAt@CDWordArray@@QAEXHKH@Z 100d8a29 f   mfc140:mfc140.dll
 0001:000d7a2f       ?RemoveAt@CDWordArray@@QAEXHH@Z 100d8a2f f   mfc140:mfc140.dll
 0001:000d7a35       ??1CDWordArray@@UAE@XZ     100d8a35 f   mfc140:mfc140.dll
 0001:000d7a3b       ?Insert@?$CStringT@DV?$StrTraitMFC_DLL@DV?$ChTraitsCRT@D@ATL@@@@@ATL@@QAEHHD@Z 100d8a3b f   mfc140:mfc140.dll
 0001:000d7a41       ?EnableToolTips@CWnd@@QAEHH@Z 100d8a41 f   mfc140:mfc140.dll
 0001:000d7a47       ?AfxLoadLibrary@@YGPAUHINSTANCE__@@PBD@Z 100d8a47 f   mfc140:mfc140.dll
 0001:000d7a4d       ?AfxFreeLibrary@@YGHPAUHINSTANCE__@@@Z 100d8a4d f   mfc140:mfc140.dll
 0001:000d7a53       ?GetRuntimeClass@CSpinButtonCtrl@@UBEPAUCRuntimeClass@@XZ 100d8a53 f   mfc140:mfc140.dll
 0001:000d7a59       ?Create@CSpinButtonCtrl@@UAEHKABUtagRECT@@PAVCWnd@@I@Z 100d8a59 f   mfc140:mfc140.dll
 0001:000d7a5f       ?CreateEx@CSpinButtonCtrl@@UAEHKKABUtagRECT@@PAVCWnd@@I@Z 100d8a5f f   mfc140:mfc140.dll
 0001:000d7a65       ??1CSpinButtonCtrl@@UAE@XZ 100d8a65 f   mfc140:mfc140.dll
 0001:000d7a6b       ?RemoveAt@CStringList@@QAEXPAU__POSITION@@@Z 100d8a6b f   mfc140:mfc140.dll
 0001:000d7a71       ??0CException@@QAE@XZ      100d8a71 f   mfc140:mfc140.dll
 0001:000d7a77       ?GetErrorMessage@CException@@UAEHPADIPAI@Z 100d8a77 f   mfc140:mfc140.dll
 0001:000d7a7d       ?ReportError@CException@@UAEHII@Z 100d8a7d f   mfc140:mfc140.dll
 0001:000d7a83       ?AfxTryCleanup@@YGXXZ      100d8a83 f   mfc140:mfc140.dll
 0001:000d7a89       ??0AFX_EXCEPTION_LINK@@QAE@XZ 100d8a89 f   mfc140:mfc140.dll
 0001:000d7a8f       ?GetRuntimeClass@CFileException@@UBEPAUCRuntimeClass@@XZ 100d8a8f f   mfc140:mfc140.dll
 0001:000d7a95       ?GetErrorMessage@CFileException@@UBEHPADIPAI@Z 100d8a95 f   mfc140:mfc140.dll
 0001:000d7a9b       ??0CStdioFile@@QAE@XZ      100d8a9b f   mfc140:mfc140.dll
 0001:000d7aa1       ?WriteString@CStdioFile@@UAEXPBD@Z 100d8aa1 f   mfc140:mfc140.dll
 0001:000d7aa7       ??1CStdioFile@@UAE@XZ      100d8aa7 f   mfc140:mfc140.dll
 0001:000d7aad       ?Open@CStdioFile@@UAEHPBDIPAVCFileException@@@Z 100d8aad f   mfc140:mfc140.dll
 0001:000d7ab3       ?Close@CStdioFile@@UAEXXZ  100d8ab3 f   mfc140:mfc140.dll
 0001:000d7ab9       ?DDX_Text@@YGXPAVCDataExchange@@HAAI@Z 100d8ab9 f   mfc140:mfc140.dll
 0001:000d7abf       ?DDX_Text@@YGXPAVCDataExchange@@HAAV?$CStringT@DV?$StrTraitMFC_DLL@DV?$ChTraitsCRT@D@ATL@@@@@ATL@@@Z 100d8abf f   mfc140:mfc140.dll
 0001:000d7ac5       ?DDX_CBIndex@@YGXPAVCDataExchange@@HAAH@Z 100d8ac5 f   mfc140:mfc140.dll
 0001:000d7acb       ?OnFinalRelease@CCmdTarget@@UAEXXZ 100d8acb f   mfc140:mfc140.dll
 0001:000d7ad1       ?GetInterfaceMap@CCmdTarget@@MBEPBUAFX_INTERFACEMAP@@XZ 100d8ad1 f   mfc140:mfc140.dll
 0001:000d7ad7       ?PreTranslateMessage@CWinThread@@UAEHPAUtagMSG@@@Z 100d8ad7 f   mfc140:mfc140.dll
 0001:000d7add       ?PumpMessage@CWinThread@@UAEHXZ 100d8add f   mfc140:mfc140.dll
 0001:000d7ae3       ?IsIdleMessage@CWinThread@@UAEHPAUtagMSG@@@Z 100d8ae3 f   mfc140:mfc140.dll
 0001:000d7ae9       ?ProcessMessageFilter@CWinThread@@UAEHHPAUtagMSG@@@Z 100d8ae9 f   mfc140:mfc140.dll
 0001:000d7aef       ?GetMainWnd@CWinThread@@UAEPAVCWnd@@XZ 100d8aef f   mfc140:mfc140.dll
 0001:000d7af5       ?Delete@CWinThread@@UAEXXZ 100d8af5 f   mfc140:mfc140.dll
 0001:000d7afb       ?GetRuntimeClass@CWinApp@@UBEPAUCRuntimeClass@@XZ 100d8afb f   mfc140:mfc140.dll
 0001:000d7b01       ??0CWinApp@@QAE@PBD@Z      100d8b01 f   mfc140:mfc140.dll
 0001:000d7b07       ?GetProfileIntA@CWinApp@@UAEIPBD0H@Z 100d8b07 f   mfc140:mfc140.dll
 0001:000d7b0d       ?WriteProfileInt@CWinApp@@UAEHPBD0H@Z 100d8b0d f   mfc140:mfc140.dll
 0001:000d7b13       ?GetProfileStringA@CWinApp@@UAE?AV?$CStringT@DV?$StrTraitMFC_DLL@DV?$ChTraitsCRT@D@ATL@@@@@ATL@@PBD00@Z 100d8b13 f   mfc140:mfc140.dll
 0001:000d7b19       ?WriteProfileStringA@CWinApp@@UAEHPBD00@Z 100d8b19 f   mfc140:mfc140.dll
 0001:000d7b1f       ?GetProfileBinary@CWinApp@@UAEHPBD0PAPAEPAI@Z 100d8b1f f   mfc140:mfc140.dll
 0001:000d7b25       ?WriteProfileBinary@CWinApp@@UAEHPBD0PAEI@Z 100d8b25 f   mfc140:mfc140.dll
 0001:000d7b2b       ?InitLibId@CWinApp@@UAEXXZ 100d8b2b f   mfc140:mfc140.dll
 0001:000d7b31       ?Register@CWinApp@@UAEHXZ  100d8b31 f   mfc140:mfc140.dll
 0001:000d7b37       ?Unregister@CWinApp@@UAEHXZ 100d8b37 f   mfc140:mfc140.dll
 0001:000d7b3d       ?OpenDocumentFile@CWinApp@@UAEPAVCDocument@@PBD@Z 100d8b3d f   mfc140:mfc140.dll
 0001:000d7b43       ?OpenDocumentFile@CWinApp@@UAEPAVCDocument@@PBDH@Z 100d8b43 f   mfc140:mfc140.dll
 0001:000d7b49       ?AddToRecentFileList@CWinApp@@UAEXPBD@Z 100d8b49 f   mfc140:mfc140.dll
 0001:000d7b4f       ?InitApplication@CWinApp@@UAEHXZ 100d8b4f f   mfc140:mfc140.dll
 0001:000d7b55       ?SaveAllModified@CWinApp@@UAEHXZ 100d8b55 f   mfc140:mfc140.dll
 0001:000d7b5b       ?DoMessageBox@CWinApp@@UAEHPBDII@Z 100d8b5b f   mfc140:mfc140.dll
 0001:000d7b61       ?DoWaitCursor@CWinApp@@UAEXH@Z 100d8b61 f   mfc140:mfc140.dll
 0001:000d7b67       ?OnDDECommand@CWinApp@@UAEHPAD@Z 100d8b67 f   mfc140:mfc140.dll
 0001:000d7b6d       ?WinHelpA@CWinApp@@UAEXKI@Z 100d8b6d f   mfc140:mfc140.dll
 0001:000d7b73       ?HtmlHelpA@CWinApp@@UAEXKI@Z 100d8b73 f   mfc140:mfc140.dll
 0001:000d7b79       ?WinHelpInternal@CWinApp@@UAEXKI@Z 100d8b79 f   mfc140:mfc140.dll
 0001:000d7b7f       ?RegisterWithRestartManager@CWinApp@@UAEJHABV?$CStringT@DV?$StrTraitMFC_DLL@DV?$ChTraitsCRT@D@ATL@@@@@ATL@@@Z 100d8b7f f   mfc140:mfc140.dll
 0001:000d7b85       ?RegisterWithRestartManager@CWinApp@@UAEJPB_WKP6GKPAX@Z1KK@Z 100d8b85 f   mfc140:mfc140.dll
 0001:000d7b8b       ?ApplicationRecoveryCallback@CWinApp@@UAEKPAX@Z 100d8b8b f   mfc140:mfc140.dll
 0001:000d7b91       ?GetDataRecoveryHandler@CWinApp@@UAEPAVCDataRecoveryHandler@@XZ 100d8b91 f   mfc140:mfc140.dll
 0001:000d7b97       ?IsTaskbarInteractionEnabled@CWinApp@@UAEHXZ 100d8b97 f   mfc140:mfc140.dll
 0001:000d7b9d       ?ExitInstance@CWinApp@@UAEHXZ 100d8b9d f   mfc140:mfc140.dll
 0001:000d7ba3       ?RestartInstance@CWinApp@@UAEHXZ 100d8ba3 f   mfc140:mfc140.dll
 0001:000d7ba9       ?Run@CWinApp@@UAEHXZ       100d8ba9 f   mfc140:mfc140.dll
 0001:000d7baf       ?OnIdle@CWinApp@@UAEHJ@Z   100d8baf f   mfc140:mfc140.dll
 0001:000d7bb5       ?ProcessWndProcException@CWinApp@@UAEJPAVCException@@PBUtagMSG@@@Z 100d8bb5 f   mfc140:mfc140.dll
 0001:000d7bbb       ?LoadAppLangResourceDLL@CWinApp@@UAEPAUHINSTANCE__@@XZ 100d8bbb f   mfc140:mfc140.dll
 0001:000d7bc1       ??1CWinApp@@UAE@XZ         100d8bc1 f   mfc140:mfc140.dll
 0001:000d7bc7       ?GetThisMessageMap@CWinApp@@KGPBUAFX_MSGMAP@@XZ 100d8bc7 f   mfc140:mfc140.dll
 0001:000d7bcd       ?LoadSysPolicies@CWinApp@@UAEHXZ 100d8bcd f   mfc140:mfc140.dll
 0001:000d7bd3       ?RegisterAll@COleObjectFactory@@SGHXZ 100d8bd3 f   mfc140:mfc140.dll
 0001:000d7bd9       ?UpdateRegistryAll@COleObjectFactory@@SGHH@Z 100d8bd9 f   mfc140:mfc140.dll
 0001:000d7bdf       ?AfxDllGetClassObject@@YGJABU_GUID@@0PAPAX@Z 100d8bdf f   mfc140:mfc140.dll
 0001:000d7be5       ?AfxDllCanUnloadNow@@YGJXZ 100d8be5 f   mfc140:mfc140.dll
 0001:000d7beb       ?GetItemText@CListCtrl@@QBEHHHPADH@Z 100d8beb f   mfc140:mfc140.dll
 0001:000d7bf1       ?GetText@CListBox@@QBEXHAAV?$CStringT@DV?$StrTraitMFC_DLL@DV?$ChTraitsCRT@D@ATL@@@@@ATL@@@Z 100d8bf1 f   mfc140:mfc140.dll
 0001:000d7bf7       ?ReadString@CStdioFile@@UAEHAAV?$CStringT@DV?$StrTraitMFC_DLL@DV?$ChTraitsCRT@D@ATL@@@@@ATL@@@Z 100d8bf7 f   mfc140:mfc140.dll
 0001:000d7bfd       ?RemoveHead@CStringList@@QAE?AV?$CStringT@DV?$StrTraitMFC_DLL@DV?$ChTraitsCRT@D@ATL@@@@@ATL@@XZ 100d8bfd f   mfc140:mfc140.dll
 0001:000d7c03       ?RemoveKey@CMapStringToString@@QAEHPBD@Z 100d8c03 f   mfc140:mfc140.dll
 0001:000d7c09       ?EnableAutomation@CCmdTarget@@QAEXXZ 100d8c09 f   mfc140:mfc140.dll
 0001:000d7c0f       ?GetThisDispatchMap@CCmdTarget@@KGPBUAFX_DISPMAP@@XZ 100d8c0f f   mfc140:mfc140.dll
 0001:000d7c15       ?GetThisInterfaceMap@CWnd@@KGPBUAFX_INTERFACEMAP@@XZ 100d8c15 f   mfc140:mfc140.dll
 0001:000d7c1b       ?AfxEnableControlContainer@@YAXPAVCOccManager@@@Z 100d8c1b f   mfc140:mfc140.dll
 0001:000d7c21       ?AfxRegisterWndClass@@YGPBDIPAUHICON__@@PAUHBRUSH__@@0@Z 100d8c21 f   mfc140:mfc140.dll
 0001:000d7c27       ?Trim@?$CStringT@DV?$StrTraitMFC_DLL@DV?$ChTraitsCRT@D@ATL@@@@@ATL@@QAEAAV12@XZ 100d8c27 f   mfc140:mfc140.dll
 0001:000d7c2d       ?SetItemCountEx@CListCtrl@@QAEHHK@Z 100d8c2d f   mfc140:mfc140.dll
 0001:000d7c33       ?MakeUpper@?$CStringT@DV?$StrTraitMFC_DLL@DV?$ChTraitsCRT@D@ATL@@@@@ATL@@QAEAAV12@XZ 100d8c33 f   mfc140:mfc140.dll
 0001:000d7c39       ?GetDlgItemInt@CWnd@@QBEIHPAHH@Z 100d8c39 f   mfc140:mfc140.dll
 0001:000d7c3f       ?IsDlgButtonChecked@CWnd@@QBEIH@Z 100d8c3f f   mfc140:mfc140.dll
 0001:000d7c45       ?AfxVariantInit@@YGXPAUtagVARIANT@@@Z 100d8c45 f   mfc140:mfc140.dll
 0001:000d7c4b       ??0CUIntArray@@QAE@XZ      100d8c4b f   mfc140:mfc140.dll
 0001:000d7c51       ?SetAtGrow@CUIntArray@@QAEXHI@Z 100d8c51 f   mfc140:mfc140.dll
 0001:000d7c57       ??1CUIntArray@@UAE@XZ      100d8c57 f   mfc140:mfc140.dll
 0001:000d7c5d       ??$HashKey@PBD@@YGIPBD@Z   100d8c5d f   mfc140:mfc140.dll
 0001:000d7c63       ?GetRuntimeClass@CTabCtrl@@UBEPAUCRuntimeClass@@XZ 100d8c63 f   mfc140:mfc140.dll
 0001:000d7c69       ?Create@CTabCtrl@@UAEHKABUtagRECT@@PAVCWnd@@I@Z 100d8c69 f   mfc140:mfc140.dll
 0001:000d7c6f       ?CreateEx@CTabCtrl@@UAEHKKABUtagRECT@@PAVCWnd@@I@Z 100d8c6f f   mfc140:mfc140.dll
 0001:000d7c75       ?OnChildNotify@CTabCtrl@@MAEHIIJPAJ@Z 100d8c75 f   mfc140:mfc140.dll
 0001:000d7c7b       ?OnDestroy@CTabCtrl@@IAEXXZ 100d8c7b f   mfc140:mfc140.dll
 0001:000d7c81       ?DrawDragRect@CDC@@QAEXPBUtagRECT@@UtagSIZE@@01PAVCBrush@@2@Z 100d8c81 f   mfc140:mfc140.dll
 0001:000d7c87       ?UnsubclassWindow@CWnd@@QAEPAUHWND__@@XZ 100d8c87 f   mfc140:mfc140.dll
 0001:000d7c8d       ?ClientToScreen@CWnd@@QBEXPAUtagRECT@@@Z 100d8c8d f   mfc140:mfc140.dll
 0001:000d7c93       ?GetThisClass@CEdit@@SGPAUCRuntimeClass@@XZ 100d8c93 f   mfc140:mfc140.dll
 0001:000d7c99       ?GetThisClass@CComboBox@@SGPAUCRuntimeClass@@XZ 100d8c99 f   mfc140:mfc140.dll
 0001:000d7c9f       ?GetThisClass@CFrameWnd@@SGPAUCRuntimeClass@@XZ 100d8c9f f   mfc140:mfc140.dll
 0001:000d7ca5       ?GetThisClass@CStatic@@SGPAUCRuntimeClass@@XZ 100d8ca5 f   mfc140:mfc140.dll
 0001:000d7cab       ?FromHandlePermanent@CWnd@@SGPAV1@PAUHWND__@@@Z 100d8cab f   mfc140:mfc140.dll
 0001:000d7cb1       ?Attach@CWnd@@QAEHPAUHWND__@@@Z 100d8cb1 f   mfc140:mfc140.dll
 0001:000d7cb7       ?Detach@CWnd@@QAEPAUHWND__@@XZ 100d8cb7 f   mfc140:mfc140.dll
 0001:000d7cbd       ?GetWindowPlacement@CWnd@@QBEHPAUtagWINDOWPLACEMENT@@@Z 100d8cbd f   mfc140:mfc140.dll
 0001:000d7cc3       ?SetWindowPlacement@CWnd@@QAEHPBUtagWINDOWPLACEMENT@@@Z 100d8cc3 f   mfc140:mfc140.dll
 0001:000d7cc9       ?ModifyStyleEx@CWnd@@SGHPAUHWND__@@KKI@Z 100d8cc9 f   mfc140:mfc140.dll
 0001:000d7ccf       ??0CDialog@@QAE@XZ         100d8ccf f   mfc140:mfc140.dll
 0001:000d7cd5       ?DrawItem@CTabCtrl@@UAEXPAUtagDRAWITEMSTRUCT@@@Z 100d8cd5 f   mfc140:mfc140.dll
 0001:000d7cdb       ??1CTabCtrl@@UAE@XZ        100d8cdb f   mfc140:mfc140.dll
 0001:000d7ce1       ?GetThisMessageMap@CTabCtrl@@KGPBUAFX_MSGMAP@@XZ 100d8ce1 f   mfc140:mfc140.dll
 0001:000d7ce7       ?GetMessageMap@CTabCtrl@@MBEPBUAFX_MSGMAP@@XZ 100d8ce7 f   mfc140:mfc140.dll
 0001:000d7ced       ?RemoveKey@CMapPtrToPtr@@QAEHPAX@Z 100d8ced f   mfc140:mfc140.dll
 0001:000d7cf3       ??2CNoTrackObject@@SGPAXI@Z 100d8cf3 f   mfc140:mfc140.dll
 0001:000d7cf9       ??3CNoTrackObject@@SGXPAX@Z 100d8cf9 f   mfc140:mfc140.dll
 0001:000d7cff       ?GetData@CThreadLocalObject@@QAEPAVCNoTrackObject@@P6GPAV2@XZ@Z 100d8cff f   mfc140:mfc140.dll
 0001:000d7d05       ??0AFX_MODULE_THREAD_STATE@@QAE@XZ 100d8d05 f   mfc140:mfc140.dll
 0001:000d7d0b       ?AfxGetAppModuleState@@YGPAVAFX_MODULE_STATE@@XZ 100d8d0b f   mfc140:mfc140.dll
 0001:000d7d11       ?GetThisClass@CButton@@SGPAUCRuntimeClass@@XZ 100d8d11 f   mfc140:mfc140.dll
 0001:000d7d17       ?FlushClipboard@COleDataSource@@SGXXZ 100d8d17 f   mfc140:mfc140.dll
 0001:000d7d1d       ?GetClipboardOwner@COleDataSource@@SGPAV1@XZ 100d8d1d f   mfc140:mfc140.dll
 0001:000d7d23       ??$AtlAdd@H@ATL@@YAJPAHHH@Z 100d8d23 f i mfcs140:nolib.obj
 0001:000d7d49       ??$AtlAdd@I@ATL@@YAJPAIII@Z 100d8d49 f i mfcs140:nolib.obj
 0001:000d7d6c       ??$AtlAdd@K@ATL@@YAJPAKKK@Z 100d8d6c f i mfcs140:nolib.obj
 0001:000d7d8f       ??$AtlAlignUp@H@ATL@@YGHHK@Z 100d8d8f f i mfcs140:nolib.obj
 0001:000d7da3       ??$AtlMultiply@I@ATL@@YAJPAIII@Z 100d8da3 f i mfcs140:nolib.obj
 0001:000d7dc5       ??$AtlMultiply@K@ATL@@YAJPAKKK@Z 100d8dc5 f i mfcs140:nolib.obj
 0001:000d7de7       ??0?$CSimpleArray@GV?$CSimpleArrayEqualHelper@G@ATL@@@ATL@@QAE@XZ 100d8de7 f i mfcs140:nolib.obj
 0001:000d7df4       ??0?$CTraceCategoryEx@$00$0A@@ATL@@QAE@PBD@Z 100d8df4 f i mfcs140:nolib.obj
 0001:000d7df9       ??0?$CTraceCategoryEx@$01$0A@@ATL@@QAE@PBD@Z 100d8df9 f i mfcs140:nolib.obj
 0001:000d7dfe       ??0?$CTraceCategoryEx@$03$0A@@ATL@@QAE@PBD@Z 100d8dfe f i mfcs140:nolib.obj
 0001:000d7e03       ??0?$CTraceCategoryEx@$07$0A@@ATL@@QAE@PBD@Z 100d8e03 f i mfcs140:nolib.obj
 0001:000d7e08       ??0?$CTraceCategoryEx@$0BA@$0A@@ATL@@QAE@PBD@Z 100d8e08 f i mfcs140:nolib.obj
 0001:000d7e0d       ??0?$CTraceCategoryEx@$0BAA@$0A@@ATL@@QAE@PBD@Z 100d8e0d f i mfcs140:nolib.obj
 0001:000d7e12       ??0?$CTraceCategoryEx@$0BAAA@$0A@@ATL@@QAE@PBD@Z 100d8e12 f i mfcs140:nolib.obj
 0001:000d7e17       ??0?$CTraceCategoryEx@$0BAAAA@$0A@@ATL@@QAE@PBD@Z 100d8e17 f i mfcs140:nolib.obj
 0001:000d7e1c       ??0?$CTraceCategoryEx@$0BAAAAA@$0A@@ATL@@QAE@PBD@Z 100d8e1c f i mfcs140:nolib.obj
 0001:000d7e21       ??0?$CTraceCategoryEx@$0CA@$0A@@ATL@@QAE@PBD@Z 100d8e21 f i mfcs140:nolib.obj
 0001:000d7e26       ??0?$CTraceCategoryEx@$0CAA@$0A@@ATL@@QAE@PBD@Z 100d8e26 f i mfcs140:nolib.obj
 0001:000d7e2b       ??0?$CTraceCategoryEx@$0CAAA@$0A@@ATL@@QAE@PBD@Z 100d8e2b f i mfcs140:nolib.obj
 0001:000d7e30       ??0?$CTraceCategoryEx@$0CAAAA@$0A@@ATL@@QAE@PBD@Z 100d8e30 f i mfcs140:nolib.obj
 0001:000d7e35       ??0?$CTraceCategoryEx@$0CAAAAA@$0A@@ATL@@QAE@PBD@Z 100d8e35 f i mfcs140:nolib.obj
 0001:000d7e3a       ??0?$CTraceCategoryEx@$0EA@$0A@@ATL@@QAE@PBD@Z 100d8e3a f i mfcs140:nolib.obj
 0001:000d7e3f       ??0?$CTraceCategoryEx@$0EAA@$0A@@ATL@@QAE@PBD@Z 100d8e3f f i mfcs140:nolib.obj
 0001:000d7e44       ??0?$CTraceCategoryEx@$0EAAA@$0A@@ATL@@QAE@PBD@Z 100d8e44 f i mfcs140:nolib.obj
 0001:000d7e49       ??0?$CTraceCategoryEx@$0EAAAA@$0A@@ATL@@QAE@PBD@Z 100d8e49 f i mfcs140:nolib.obj
 0001:000d7e4e       ??0?$CTraceCategoryEx@$0EAAAAA@$0A@@ATL@@QAE@PBD@Z 100d8e4e f i mfcs140:nolib.obj
 0001:000d7e53       ??0?$CTraceCategoryEx@$0IA@$0A@@ATL@@QAE@PBD@Z 100d8e53 f i mfcs140:nolib.obj
 0001:000d7e58       ??0?$CTraceCategoryEx@$0IAA@$0A@@ATL@@QAE@PBD@Z 100d8e58 f i mfcs140:nolib.obj
 0001:000d7e5d       ??0?$CTraceCategoryEx@$0IAAA@$0A@@ATL@@QAE@PBD@Z 100d8e5d f i mfcs140:nolib.obj
 0001:000d7e62       ??0?$CTraceCategoryEx@$0IAAAA@$0A@@ATL@@QAE@PBD@Z 100d8e62 f i mfcs140:nolib.obj
 0001:000d7e67       ??0CAtlComModule@ATL@@QAE@XZ 100d8e67 f i mfcs140:nolib.obj
 0001:000d7ea6       ??0CAtlStringMgr@ATL@@QAE@PAUIAtlMemMgr@1@@Z 100d8ea6 f i mfcs140:nolib.obj
 0001:000d7ed2       ??0CAtlStringMgrStaticInitializer@ATLImplementationDetails@ATL@@QAE@XZ 100d8ed2 f i mfcs140:nolib.obj
 0001:000d7ede       ??0CAtlWinModule@ATL@@QAE@XZ 100d8ede f i mfcs140:nolib.obj
 0001:000d7f0c       ??0CComCriticalSection@ATL@@QAE@XZ 100d8f0c f i mfcs140:nolib.obj
 0001:000d7f20       ??0CNilStringData@ATL@@QAE@XZ 100d8f20 f i mfcs140:nolib.obj
 0001:000d7f37       ??0CWin32Heap@ATL@@QAE@PAX@Z 100d8f37 f i mfcs140:nolib.obj
 0001:000d7f50       ??0_ATL_COM_MODULE70@ATL@@QAE@XZ 100d8f50 f i mfcs140:nolib.obj
 0001:000d7f67       ??0_ATL_WIN_MODULE70@ATL@@QAE@XZ 100d8f67 f i mfcs140:nolib.obj
 0001:000d7f92       ??1?$CSimpleArray@GV?$CSimpleArrayEqualHelper@G@ATL@@@ATL@@QAE@XZ 100d8f92 f i mfcs140:nolib.obj
 0001:000d7f97       ??1CAtlComModule@ATL@@QAE@XZ 100d8f97 f i mfcs140:nolib.obj
 0001:000d7fd0       ??1CAtlWinModule@ATL@@QAE@XZ 100d8fd0 f i mfcs140:nolib.obj
 0001:000d7fe8       ??1CComBSTR@ATL@@QAE@XZ    100d8fe8 f i mfcs140:nolib.obj
 0001:000d7ff1       ??1CComCriticalSection@ATL@@QAE@XZ 100d8ff1 f i mfcs140:nolib.obj
 0001:000d7ff4       ??1_ATL_COM_MODULE70@ATL@@QAE@XZ 100d8ff4 f i mfcs140:nolib.obj
 0001:000d7ff7       ??1_ATL_WIN_MODULE70@ATL@@QAE@XZ 100d8ff7 f i mfcs140:nolib.obj
 0001:000d7fff       ??A?$CSimpleArray@GV?$CSimpleArrayEqualHelper@G@ATL@@@ATL@@QAEAAGH@Z 100d8fff f i mfcs140:nolib.obj
 0001:000d8024       ?AddRef@CStringData@ATL@@QAEXXZ 100d9024 f i mfcs140:nolib.obj
 0001:000d8029       ?AtlWinModuleInit@ATL@@YGJPAU_ATL_WIN_MODULE70@1@@Z 100d9029 f i mfcs140:nolib.obj
 0001:000d804f       ?AtlWinModuleTerm@ATL@@YGJPAU_ATL_WIN_MODULE70@1@PAUHINSTANCE__@@@Z 100d904f f i mfcs140:nolib.obj
 0001:000d80b1       ?GetInstance@CAtlStringMgr@ATL@@SAPAUIAtlStringMgr@2@XZ 100d90b1 f i mfcs140:nolib.obj
 0001:000d811b       ?GetModuleInstance@CAtlBaseModule@ATL@@QAEPAUHINSTANCE__@@XZ 100d911b f i mfcs140:nolib.obj
 0001:000d811f       ?GetSize@?$CSimpleArray@GV?$CSimpleArrayEqualHelper@G@ATL@@@ATL@@QBEHXZ 100d911f f i mfcs140:nolib.obj
 0001:000d8123       ?Init@CComCriticalSection@ATL@@QAEJXZ 100d9123 f i mfcs140:nolib.obj
 0001:000d814b       ?RemoveAll@?$CSimpleArray@GV?$CSimpleArrayEqualHelper@G@ATL@@@ATL@@QAEXXZ 100d914b f i mfcs140:nolib.obj
 0001:000d8169       ?SetManager@CNilStringData@ATL@@QAEXPAUIAtlStringMgr@2@@Z 100d9169 f i mfcs140:nolib.obj
 0001:000d8175       ?Term@CAtlComModule@ATL@@QAEXXZ 100d9175 f i mfcs140:nolib.obj
 0001:000d81d4       ?Term@CAtlWinModule@ATL@@QAEXXZ 100d91d4 f i mfcs140:nolib.obj
 0001:000d81e1       ?Term@CComCriticalSection@ATL@@QAEJXZ 100d91e1 f i mfcs140:nolib.obj
 0001:000d81eb       _HRESULT_FROM_WIN32        100d91eb f i mfcs140:nolib.obj
 0001:000d81ff       _IsolationAwareActivateActCtx@8 100d91ff f i mfcs140:nolib.obj
 0001:000d8242       _IsolationAwareCreateActCtxW@4 100d9242 f i mfcs140:nolib.obj
 0001:000d8287       _IsolationAwareDeactivateActCtx@8 100d9287 f i mfcs140:nolib.obj
 0001:000d82ca       _IsolationAwareFindActCtxSectionStringW@20 100d92ca f i mfcs140:nolib.obj
 0001:000d8316       _IsolationAwarePrivatenPgViNgRzlnPgpgk@4 100d9316 f i mfcs140:nolib.obj
 0001:000d8391       _IsolationAwarePrivatezltRgCebPnQQeRff@12 100d9391 f i mfcs140:nolib.obj
 0001:000d83cf       _IsolationAwarePrivatezltRgzbQhYRuNaQYRJ@4 100d93cf f i mfcs140:nolib.obj
 0001:000d83d9       _IsolationAwarePrivatezltRgzbQhYRuNaQYRn@4 100d93d9 f i mfcs140:nolib.obj
 0001:000d83e3       _IsolationAwareQueryActCtxW@28 100d93e3 f i mfcs140:nolib.obj
 0001:000d8435       _IsolationAwareUnregisterClassA@8 100d9435 f i mfcs140:nolib.obj
 0001:000d84df       _WinbaseIsolationAwarePrivatetRgCebPnQQeRff_xReaRYQP_QYY@4 100d94df f i mfcs140:nolib.obj
 0001:000d84f8       _WinbaseIsolationAwarePrivatetRgzlnPgpgk@0 100d94f8 f i mfcs140:nolib.obj
 0001:000d86c4       _RawDllMain@12             100d96c4 f   mfcs140:dllmodul.obj
 0001:000d8717       ??0_AFX_DLL_MODULE_STATE@@QAE@XZ 100d9717 f i mfcs140:dllmodul.obj
 0001:000d873f       ??1_AFX_DLL_MODULE_STATE@@UAE@XZ 100d973f f i mfcs140:dllmodul.obj
 0001:000d8744       ??_E_AFX_DLL_MODULE_STATE@@UAEPAXI@Z 100d9744 f i mfcs140:dllmodul.obj
 0001:000d8744       ??_G_AFX_DLL_MODULE_STATE@@UAEPAXI@Z 100d9744 f i mfcs140:dllmodul.obj
 0001:000d8777       ?AfxGetStaticModuleState@@YGPAVAFX_MODULE_STATE@@XZ 100d9777 f   mfcs140:dllmodul.obj
 0001:000d877d       ?AfxWndProcDllStatic@@YGJPAUHWND__@@IIJ@Z 100d977d f   mfcs140:dllmodul.obj
 0001:000d87c4       _DllMain@12                100d97c4 f   mfcs140:dllmodul.obj
 0001:000d880d       _InternalDllMain@12        100d980d f   mfcs140:dllmodul.obj
 0001:000d8993       ??2CObject@@SGPAXI@Z       100d9993 f i mfcs140:dllmodulx.obj
 0001:000d89a3       ?AfxGetApp@@YGPAVCWinApp@@XZ 100d99a3 f i mfcs140:dllmodulx.obj
 0001:000d89ac       __AfxDllModulHelper        100d99ac f   mfcs140:dllmodulx.obj
 0001:000d89f9       ??_M@YGXPAXIHP6EX0@Z@Z     100d99f9 f   msvcrt:ehvecdtr.obj
 0001:000d89fe       ??_M@YGXPAXIIP6EX0@Z@Z     100d99fe f   msvcrt:ehvecdtr.obj
 0001:000d8ab2       ?__ArrayUnwind@@YGXPAXIIP6EX0@Z@Z 100d9ab2 f   msvcrt:ehvecdtr.obj
 0001:000d8b42       ??3@YAXPAXI@Z              100d9b42 f   msvcrt:delete_scalar_size.obj
 0001:000d8b50       ??_V@YAXPAXI@Z             100d9b50 f   msvcrt:delete_array_size.obj
 0001:000d8b5e       ?configure_argv@__scrt_narrow_argv_policy@@SAHXZ 100d9b5e f i msvcrt:utility.obj
 0001:000d8baf       ?initialize_environment@__scrt_narrow_environment_policy@@SAHXZ 100d9baf f i msvcrt:utility.obj
 0001:000d8be8       _NtCurrentTeb              100d9be8 f i msvcrt:utility.obj
 0001:000d8bef       ___scrt_acquire_startup_lock 100d9bef f   msvcrt:utility.obj
 0001:000d8c21       ___scrt_dllmain_after_initialize_c 100d9c21 f   msvcrt:utility.obj
 0001:000d8c4c       ___scrt_dllmain_before_initialize_c 100d9c4c f   msvcrt:utility.obj
 0001:000d8c5a       ___scrt_dllmain_crt_thread_attach 100d9c5a f   msvcrt:utility.obj
 0001:000d8c79       ___scrt_dllmain_crt_thread_detach 100d9c79 f   msvcrt:utility.obj
 0001:000d8c86       ___scrt_dllmain_exception_filter 100d9c86 f   msvcrt:utility.obj
 0001:000d8cba       ___scrt_dllmain_uninitialize_c 100d9cba f   msvcrt:utility.obj
 0001:000d8cdd       ___scrt_dllmain_uninitialize_critical 100d9cdd f   msvcrt:utility.obj
 0001:000d8cea       ___scrt_initialize_crt     100d9cea f   msvcrt:utility.obj
 0001:000d8d23       ___scrt_initialize_onexit_tables 100d9d23 f   msvcrt:utility.obj
 0001:000d8daa       ___scrt_is_nonwritable_in_current_image 100d9daa f   msvcrt:utility.obj
 0001:000d8e3e       ___scrt_release_startup_lock 100d9e3e f   msvcrt:utility.obj
 0001:000d8e5b       ___scrt_uninitialize_crt   100d9e5b f   msvcrt:utility.obj
 0001:000d8e83       __onexit                   100d9e83 f   msvcrt:utility.obj
 0001:000d8eb0       _at_quick_exit             100d9eb0 f   msvcrt:utility.obj
 0001:000d8ed3       _atexit                    100d9ed3 f   msvcrt:utility.obj
 0001:000d8ee8       @__security_check_cookie@4 100d9ee8 f   msvcrt:secchk.obj
 0001:000d8ef6       ??1type_info@@UAE@XZ       100d9ef6 f   msvcrt:std_type_info_static.obj
 0001:000d8efd       ??_Gtype_info@@UAEPAXI@Z   100d9efd f i msvcrt:std_type_info_static.obj
 0001:000d8efd       ??_Etype_info@@UAEPAXI@Z   100d9efd f i msvcrt:std_type_info_static.obj
 0001:000d8f20       __alloca_probe_16          100d9f20 f   msvcrt:alloca16.obj
 0001:000d8f36       __alloca_probe_8           100d9f36     msvcrt:alloca16.obj
 0001:000d8f4c       ??_L@YGXPAXIHP6EX0@Z1@Z    100d9f4c f   msvcrt:ehvecctr.obj
 0001:000d8f51       ??_L@YGXPAXIIP6EX0@Z1@Z    100d9f51 f   msvcrt:ehvecctr.obj
 0001:000d908b       __Init_thread_abort        100da08b f   msvcrt:thread_safe_statics.obj
 0001:000d90af       __Init_thread_footer       100da0af f   msvcrt:thread_safe_statics.obj
 0001:000d90f9       __Init_thread_header       100da0f9 f   msvcrt:thread_safe_statics.obj
 0001:000d914b       __Init_thread_lock         100da14b f   msvcrt:thread_safe_statics.obj
 0001:000d9157       __Init_thread_notify       100da157 f   msvcrt:thread_safe_statics.obj
 0001:000d918d       __Init_thread_unlock       100da18d f   msvcrt:thread_safe_statics.obj
 0001:000d9199       __Init_thread_wait         100da199 f   msvcrt:thread_safe_statics.obj
 0001:000d91f0       __chkstk                   100da1f0 f   msvcrt:chkstk.obj
 0001:000d91f0       __alloca_probe             100da1f0 f   msvcrt:chkstk.obj
 0001:000d955b       __CRT_INIT@12              100da55b f   msvcrt:dll_dllmain.obj
 0001:000d9564       __DllMainCRTStartup@12     100da564 f   msvcrt:dll_dllmain.obj
 0001:000d9587       __EH_epilog3               100da587 f   msvcrt:ehprolg3.obj
 0001:000d959b       __EH_epilog3_GS            100da59b f   msvcrt:ehprolg3.obj
 0001:000d95aa       __EH_epilog3_catch_GS      100da5aa f   msvcrt:ehprolg3.obj
 0001:000d95b9       __EH_prolog3               100da5b9 f   msvcrt:ehprolg3.obj
 0001:000d95ec       __EH_prolog3_GS            100da5ec f   msvcrt:ehprolg3.obj
 0001:000d9622       __EH_prolog3_catch         100da622 f   msvcrt:ehprolg3.obj
 0001:000d9658       __EH_prolog3_catch_GS      100da658 f   msvcrt:ehprolg3.obj
 0001:000d96a0       __SEH_prolog4              100da6a0 f   msvcrt:sehprolg4.obj
 0001:000d96f0       __SEH_epilog4              100da6f0 f   msvcrt:sehprolg4.obj
 0001:000d9710       __SEH_prolog4_GS           100da710 f   msvcrt:sehprolg4gs.obj
 0001:000d9760       __SEH_epilog4_GS           100da760 f   msvcrt:sehprolg4gs.obj
 0001:000d976f       __except_handler4          100da76f f   msvcrt:chandler4gs.obj
 0001:000d979e       @_guard_check_icall_nop@4  100da79e f i msvcrt:guard_support.obj
 0001:000d97a1       _ReadNoFence               100da7a1 f i msvcrt:guard_support.obj
 0001:000d97ab       _ReadPointerNoFence        100da7ab f i msvcrt:guard_support.obj
 0001:000d97b5       ___castguard_check_failure_debugbreak 100da7b5 f i msvcrt:guard_support.obj
 0001:000d97d0       ___castguard_check_failure_fastfail 100da7d0 f i msvcrt:guard_support.obj
 0001:000d97ef       ___castguard_check_failure_nop 100da7ef f i msvcrt:guard_support.obj
 0001:000d97f2       ___castguard_check_failure_os_handled 100da7f2 f i msvcrt:guard_support.obj
 0001:000d9846       ___castguard_slow_path_check_debugbreak 100da846 f i msvcrt:guard_support.obj
 0001:000d9873       ___castguard_slow_path_check_fastfail 100da873 f i msvcrt:guard_support.obj
 0001:000d98a4       ___castguard_slow_path_check_nop 100da8a4 f i msvcrt:guard_support.obj
 0001:000d98a7       ___castguard_slow_path_check_os_handled 100da8a7 f i msvcrt:guard_support.obj
 0001:000d990d       __guard_icall_checks_enforced 100da90d f i msvcrt:guard_support.obj
 0001:000d991f       ___isa_available_init      100da91f f   msvcrt:cpu_disp.obj
 0001:000d9af0       __get_startup_argv_mode    100daaf0 f   msvcrt:argv_mode.obj
 0001:000d9af4       ___scrt_is_ucrt_dll_in_use 100daaf4 f   msvcrt:ucrt_detection.obj
 0001:000d9b00       ___scrt_fastfail           100dab00 f   msvcrt:utility_desktop.obj
 0001:000d9c1b       ___scrt_get_show_window_mode 100dac1b f   msvcrt:utility_desktop.obj
 0001:000d9c4c       ___scrt_initialize_mta     100dac4c f   msvcrt:utility_desktop.obj
 0001:000d9c51       ___scrt_initialize_winrt   100dac51 f   msvcrt:utility_desktop.obj
 0001:000d9c54       ___scrt_is_managed_app     100dac54 f   msvcrt:utility_desktop.obj
 0001:000d9c97       ___scrt_set_unhandled_exception_filter 100dac97 f   msvcrt:utility_desktop.obj
 0001:000d9ca3       ___scrt_stub_for_initialize_mta 100daca3 f   msvcrt:utility_desktop.obj
 0001:000d9ca3       ___scrt_exe_initialize_mta 100daca3 f   msvcrt:utility_desktop.obj
 0001:000d9ca6       ___scrt_unhandled_exception_filter@4 100daca6 f   msvcrt:utility_desktop.obj
 0001:000d9cfc       __crt_debugger_hook        100dacfc f   msvcrt:utility_desktop.obj
 0001:000d9d04       ___raise_securityfailure   100dad04 f   msvcrt:gs_report.obj
 0001:000d9d2c       ___report_gsfailure        100dad2c f   msvcrt:gs_report.obj
 0001:000d9e26       ___report_rangecheckfailure 100dae26 f   msvcrt:gs_report.obj
 0001:000d9e32       ___report_securityfailure  100dae32 f   msvcrt:gs_report.obj
 0001:000d9f01       ___report_securityfailureEx 100daf01 f   msvcrt:gs_report.obj
 0001:000da063       ___security_init_cookie    100db063 f   msvcrt:gs_support.obj
 0001:000da0ae       ?__scrt_initialize_type_info@@YAXXZ 100db0ae f   msvcrt:tncleanup.obj
 0001:000da0ba       ?__scrt_uninitialize_type_info@@YAXXZ 100db0ba f   msvcrt:tncleanup.obj
 0001:000da0c6       ___scrt_initialize_default_local_stdio_options 100db0c6 f   msvcrt:default_local_stdio_options.obj
 0001:000da0e3       ___scrt_get_dyn_tls_init_callback 100db0e3 f   msvcrt:dyn_tls_init.obj
 0001:000da0e9       __RTC_Initialize           100db0e9 f   msvcrt:initsect.obj
 0001:000da115       __RTC_Terminate            100db115 f   msvcrt:initsect.obj
 0001:000da141       _RaiseException@16         100db141 f   kernel32:KERNEL32.dll
 0001:000da147       _GetLastError@0            100db147 f   kernel32:KERNEL32.dll
