 PCTRMNG

 Timestamp is 64bdd9c0 (Mon Jul 24 10:54:08 2023)

 Preferred load address is 10000000

 Start         Length     Name                   Class
 0001:00000000 00001450H .text$di                CODE
 0001:00001450 0001d9f0H .text$mn                CODE
 0001:0001ee40 00002400H .text$x                 CODE
 0001:00021240 0000031bH .text$yd                CODE
 0002:00000000 000006a4H .idata$5                DATA
 0002:000006a4 00000008H .00cfg                  DATA
 0002:000006ac 00000004H .CRT$XCA                DATA
 0002:000006b0 00000008H .CRT$XCL                DATA
 0002:000006b8 00000238H .CRT$XCU                DATA
 0002:000008f0 00000004H .CRT$XCZ                DATA
 0002:000008f4 00000004H .CRT$XIA                DATA
 0002:000008f8 00000004H .CRT$XIC                DATA
 0002:000008fc 00000004H .CRT$XIZ                DATA
 0002:00000900 00000004H .CRT$XLA                DATA
 0002:00000904 00000004H .CRT$XLZ                DATA
 0002:00000908 00000004H .CRT$XPA                DATA
 0002:0000090c 00000004H .CRT$XPZ                DATA
 0002:00000910 00000004H .CRT$XTA                DATA
 0002:00000914 0000000cH .CRT$XTZ                DATA
 0002:00000918 00000000H .gfids$y                DATA
 0002:00000920 00006620H .rdata                  DATA
 0002:00006f40 00000004H .rdata$CastGuardVftablesA DATA
 0002:00006f44 00000004H .rdata$CastGuardVftablesC DATA
 0002:00006f48 00000018H .rdata$T                DATA
 0002:00006f60 000015f4H .rdata$r                DATA
 0002:00008554 0000022cH .rdata$sxdata           DATA
 0002:00008780 00000038H .rdata$voltmd           DATA
 0002:000087b8 0000042cH .rdata$zzzdbg           DATA
 0002:00008be4 00000004H .rtc$IAA                DATA
 0002:00008be8 00000004H .rtc$IZZ                DATA
 0002:00008bec 00000004H .rtc$TAA                DATA
 0002:00008bf0 00000004H .rtc$TZZ                DATA
 0002:00008bf4 00000004H .tls                    DATA
 0002:00008bf8 00000004H .tls$                   DATA
 0002:00008bfc 00000004H .tls$ZZZ                DATA
 0002:00008c00 00001f2cH .xdata$x                DATA
 0002:0000ab2c 00000004H ATL$__a                 DATA
 0002:0000ab30 00000010H ATL$__z                 DATA
 0002:0000ab40 00000094H .edata                  DATA
 0002:0000abd4 00000140H .idata$2                DATA
 0002:0000ad14 00000014H .idata$3                DATA
 0002:0000ad28 000006a4H .idata$4                DATA
 0002:0000b3cc 00000af8H .idata$6                DATA
 0003:00000000 00000638H .data                   DATA
 0003:00000638 00000020H .data$r                 DATA
 0003:00000658 00000b28H .data$rs                DATA
 0003:00001180 00000c70H .bss                    DATA
 0004:00000000 000000a0H .rsrc$01                DATA
 0004:000000a0 00000560H .rsrc$02                DATA

  Address         Publics by Value              Rva+Base       Lib:Object

 0000:00000000       ___guard_check_icall_a64n_fptr 00000000     <absolute>
 0000:00000000       ___guard_fids_table        00000000     <absolute>
 0000:00000000       ___guard_longjmp_count     00000000     <absolute>
 0000:00000000       ___hybrid_code_map_count   00000000     <absolute>
 0000:00000000       ___enclave_config          00000000     <absolute>
 0000:00000000       ___guard_eh_cont_count     00000000     <absolute>
 0000:00000000       ___guard_longjmp_table     00000000     <absolute>
 0000:00000000       ___guard_iat_table         00000000     <absolute>
 0000:00000000       ___arm64x_redirection_metadata_count 00000000     <absolute>
 0000:00000000       ___guard_fids_count        00000000     <absolute>
 0000:00000000       ___arm64x_extra_rfe_table  00000000     <absolute>
 0000:00000000       ___x64_code_ranges_to_entry_points_count 00000000     <absolute>
 0000:00000000       ___hybrid_code_map         00000000     <absolute>
 0000:00000000       ___x64_code_ranges_to_entry_points 00000000     <absolute>
 0000:00000000       ___arm64x_native_entrypoint 00000000     <absolute>
 0000:00000000       ___hybrid_auxiliary_iat_copy 00000000     <absolute>
 0000:00000000       ___AbsoluteZero            00000000     <absolute>
 0000:00000000       ___guard_eh_cont_table     00000000     <absolute>
 0000:00000000       ___arm64x_redirection_metadata 00000000     <absolute>
 0000:00000000       ___dynamic_value_reloc_table 00000000     <absolute>
 0000:00000000       ___hybrid_auxiliary_iat    00000000     <absolute>
 0000:00000000       ___guard_iat_count         00000000     <absolute>
 0000:00000000       ___arm64x_extra_rfe_table_size 00000000     <absolute>
 0000:0000002c       __tls_array                0000002c     <absolute>
 0000:0000008b       ___safe_se_handler_count   0000008b     <absolute>
 0000:00000100       ___guard_flags             00000100     <absolute>
 0000:00000000       ___ImageBase               10000000     <linker-defined>
 0001:00001450       ?GetDispid@CMainExInfoManager@@UAGJH@Z 10002450 f   #SiteDependency.obj
 0001:00001460       ?SetDispid@CMainExInfoManager@@UAGXH@Z 10002460 f   #SiteDependency.obj
 0001:00001470       ?__empty_global_delete@@YAXPAX@Z 10002470 f i #SiteDependency.obj
 0001:00001480       ?__empty_global_delete@@YAXPAXI@Z 10002480 f i #SiteDependency.obj
 0001:00001480       ?__global_delete@@YAXPAXI@Z 10002480 f i #SiteDependency.obj
 0001:00001490       ??0CDispDesk@@QAE@XZ       10002490 f   DispDesk.obj
 0001:000014c0       ??1CDispDesk@@QAE@XZ       100024c0 f   DispDesk.obj
 0001:00001530       ?AddUserScriptItem@CDispDesk@@QAEJPBDPAUIDispatch@@@Z 10002530 f   DispDesk.obj
 0001:00001560       ?Blank@CDispDesk@@QAEXXZ   10002560 f   DispDesk.obj
 0001:00001580       ?CallCommand@CDispDesk@@QAEXPBD@Z 10002580 f   DispDesk.obj
 0001:000015b0       ?CallFunction@CDispDesk@@QAEHPBD0F@Z 100025b0 f   DispDesk.obj
 0001:000015f0       ?ChangeTRInOut@CDispDesk@@QAEXPBD00F@Z 100025f0 f   DispDesk.obj
 0001:00001630       ?DebugTrData@CDispDesk@@QAEXPBD@Z 10002630 f   DispDesk.obj
 0001:00001660       ?EnableFocus@CDispDesk@@QAEHPBDF@Z 10002660 f   DispDesk.obj
 0001:00001690       ?ExcuteScript@CDispDesk@@QAEJPBD00@Z 10002690 f   DispDesk.obj
 0001:000016d0       ?FormUnLoad@CDispDesk@@QAEXXZ 100026d0 f   DispDesk.obj
 0001:000016f0       ?GetCtrlHwndFromName@CDispDesk@@QAEJPBD@Z 100026f0 f   DispDesk.obj
 0001:00001720       ?GetCtrlNameFromHwnd@CDispDesk@@QAE?AV?$CStringT@DV?$StrTraitMFC_DLL@DV?$ChTraitsCRT@D@ATL@@@@@ATL@@J@Z 10002720 f   DispDesk.obj
 0001:000017a0       ?GetCtrlTypeFromHwnd@CDispDesk@@QAE?AV?$CStringT@DV?$StrTraitMFC_DLL@DV?$ChTraitsCRT@D@ATL@@@@@ATL@@J@Z 100027a0 f   DispDesk.obj
 0001:00001820       ?GetCtrlTypeFromName@CDispDesk@@QAE?AV?$CStringT@DV?$StrTraitMFC_DLL@DV?$ChTraitsCRT@D@ATL@@@@@ATL@@PBD@Z 10002820 f   DispDesk.obj
 0001:000018a0       ?GetCurrentMsgCode@CDispDesk@@QAE?AV?$CStringT@DV?$StrTraitMFC_DLL@DV?$ChTraitsCRT@D@ATL@@@@@ATL@@XZ 100028a0 f   DispDesk.obj
 0001:00001920       ?GetCurrentTrMessage@CDispDesk@@QAE?AV?$CStringT@DV?$StrTraitMFC_DLL@DV?$ChTraitsCRT@D@ATL@@@@@ATL@@XZ 10002920 f   DispDesk.obj
 0001:000019a0       ?GetDispFromName@CDispDesk@@QAEPAUIDispatch@@PBD@Z 100029a0 f   DispDesk.obj
 0001:000019d0       ?GetFormTrData@CDispDesk@@QAEHPBDPAPA_WPAF@Z 100029d0 f   DispDesk.obj
 0001:00001a00       ?GetKeyData@CDispDesk@@QAEJPBDPAF@Z 10002a00 f   DispDesk.obj
 0001:00001a30       ?GetMapData@CDispDesk@@QAE?AV?$CStringT@DV?$StrTraitMFC_DLL@DV?$ChTraitsCRT@D@ATL@@@@@ATL@@XZ 10002a30 f   DispDesk.obj
 0001:00001ab0       ?GetMapInfo@CDispDesk@@QAEHPBDPAUtagVARIANT@@@Z 10002ab0 f   DispDesk.obj
 0001:00001ae0       ?GetMapName@CDispDesk@@QAE?AV?$CStringT@DV?$StrTraitMFC_DLL@DV?$ChTraitsCRT@D@ATL@@@@@ATL@@XZ 10002ae0 f   DispDesk.obj
 0001:00001b60       ?GetMapSize@CDispDesk@@QAEHPAUtagVARIANT@@0@Z 10002b60 f   DispDesk.obj
 0001:00001b90       ?GetOpenMapData@CDispDesk@@QAE?AV?$CStringT@DV?$StrTraitMFC_DLL@DV?$ChTraitsCRT@D@ATL@@@@@ATL@@XZ 10002b90 f   DispDesk.obj
 0001:00001c10       ?GetRootPath@CDispDesk@@QAE?AV?$CStringT@DV?$StrTraitMFC_DLL@DV?$ChTraitsCRT@D@ATL@@@@@ATL@@PBD@Z 10002c10 f   DispDesk.obj
 0001:00001c90       ?GetSocketHandle@CDispDesk@@QAEJPBD@Z 10002c90 f   DispDesk.obj
 0001:00001cc0       ?GetTrList@CDispDesk@@QAE?AV?$CStringT@DV?$StrTraitMFC_DLL@DV?$ChTraitsCRT@D@ATL@@@@@ATL@@XZ 10002cc0 f   DispDesk.obj
 0001:00001d40       ?GetUserColor@CDispDesk@@QAEKFPBDF@Z 10002d40 f   DispDesk.obj
 0001:00001d80       ?GotoFocus@CDispDesk@@QAEXPBD@Z 10002d80 f   DispDesk.obj
 0001:00001db0       ?InitInterfaceName@CDispDesk@@QAEXPAUIDispatch@@@Z 10002db0 f   DispDesk.obj
 0001:00001e10       ?IsDeskActive@CDispDesk@@QAEHXZ 10002e10 f   DispDesk.obj
 0001:00001e40       ?LoadXfmEx@CDispDesk@@QAEHJ@Z 10002e40 f   DispDesk.obj
 0001:00001e70       ?MainKeyPress@CDispDesk@@QAEXPBD@Z 10002e70 f   DispDesk.obj
 0001:00001ea0       ?MoveControl@CDispDesk@@QAEHPBDJJ@Z 10002ea0 f   DispDesk.obj
 0001:00001ee0       ?NotifyFromMain@CDispDesk@@QAEXPBD0@Z 10002ee0 f   DispDesk.obj
 0001:00001f10       ?NotifyGShareData@CDispDesk@@QAEXPBD0@Z 10002f10 f   DispDesk.obj
 0001:00001f40       ?ReceiveTR@CDispDesk@@QAEFPBDJF@Z 10002f40 f   DispDesk.obj
 0001:00001f80       ?ResizeControl@CDispDesk@@QAEHPBDJJ@Z 10002f80 f   DispDesk.obj
 0001:00001fc0       ?ResizeFont@CDispDesk@@QAEXFFPBD@Z 10002fc0 f   DispDesk.obj
 0001:00002000       ?SelectPacketCommand@CDispDesk@@QAEFF@Z 10003000 f   DispDesk.obj
 0001:00002030       ?SendDataToOpener@CDispDesk@@QAEHPBDF@Z 10003030 f   DispDesk.obj
 0001:00002060       ?SendTR@CDispDesk@@QAEFPBD@Z 10003060 f   DispDesk.obj
 0001:00002090       ?SendTRForCert@CDispDesk@@QAEFPBD@Z 10003090 f   DispDesk.obj
 0001:000020c0       ?SendTrDirect@CDispDesk@@QAEFPBD0F@Z 100030c0 f   DispDesk.obj
 0001:00002100       ?SetCtrlResizeFlag@CDispDesk@@QAEHPBDHHHH@Z 10003100 f   DispDesk.obj
 0001:00002140       ?SetFlag@CDispDesk@@QAEXPBDF@Z 10003140 f   DispDesk.obj
 0001:00002170       ?SetFormTrData@CDispDesk@@QAEHPBD0F@Z 10003170 f   DispDesk.obj
 0001:000021b0       ?SetGSharedNotifyFlag@CDispDesk@@QAEXF@Z 100031b0 f   DispDesk.obj
 0001:000021e0       ?SetInitFont@CDispDesk@@QAEXFFPBD@Z 100031e0 f   DispDesk.obj
 0001:00002220       ?SetKeyData@CDispDesk@@QAEXPBDJF@Z 10003220 f   DispDesk.obj
 0001:00002250       ?SetMonitoringHandle@CDispDesk@@QAEXJ@Z 10003250 f   DispDesk.obj
 0001:00002280       ?SetNotifyCommand@CDispDesk@@QAEJPBD@Z 10003280 f   DispDesk.obj
 0001:000022b0       ?SetOpenMapData2@CDispDesk@@QAEXJ@Z 100032b0 f   DispDesk.obj
 0001:000022e0       ?SetOpenMapData@CDispDesk@@QAEXFPBD0F0@Z 100032e0 f   DispDesk.obj
 0001:00002320       ?SetParentDispatch@CDispDesk@@QAEXPAUIDispatch@@@Z 10003320 f   DispDesk.obj
 0001:00002350       ?SetRscMng@CDispDesk@@QAEXJ@Z 10003350 f   DispDesk.obj
 0001:00002380       ?SetSendCountFlag@CDispDesk@@QAEFF@Z 10003380 f   DispDesk.obj
 0001:000023b0       ?SetSharedInterface@CDispDesk@@QAEJJ@Z 100033b0 f   DispDesk.obj
 0001:000023e0       ?SetSocketHandle@CDispDesk@@QAEXPBDJ@Z 100033e0 f   DispDesk.obj
 0001:00002410       ?SetTabStop@CDispDesk@@QAEXF@Z 10003410 f   DispDesk.obj
 0001:00002440       ?ShowMessageBox@CDispDesk@@QAEFFPBD@Z 10003440 f   DispDesk.obj
 0001:00002470       ?ShowTrMessage@CDispDesk@@QAEXPBD@Z 10003470 f   DispDesk.obj
 0001:000024a0       ?UnLoadScript@CDispDesk@@QAEXXZ 100034a0 f   DispDesk.obj
 0001:000024c0       ??0CDispFormData@@QAE@XZ   100034c0 f   DispFormData.obj
 0001:000024e0       ?GetMapCfgFile@CDispFormData@@QAE?AV?$CStringT@DV?$StrTraitMFC_DLL@DV?$ChTraitsCRT@D@ATL@@@@@ATL@@XZ 100034e0 f   DispFormData.obj
 0001:00002560       ?GetPrivateDataString@CDispFormData@@QAE?AV?$CStringT@DV?$StrTraitMFC_DLL@DV?$ChTraitsCRT@D@ATL@@@@@ATL@@PBD000@Z 10003560 f   DispFormData.obj
 0001:000025f0       ?GetUserDataPath@CDispFormData@@QAE?AV?$CStringT@DV?$StrTraitMFC_DLL@DV?$ChTraitsCRT@D@ATL@@@@@ATL@@PBD@Z 100035f0 f   DispFormData.obj
 0001:00002670       ?InitInterfaceName@CDispFormData@@QAEXPAUIDispatch@@@Z 10003670 f   DispFormData.obj
 0001:000026c0       ?LoadData@CDispFormData@@QAEHPBD0ABUtagVARIANT@@@Z 100036c0 f   DispFormData.obj
 0001:00002700       ?LoadIniData@CDispFormData@@QAEHPBD00PAUtagVARIANT@@@Z 10003700 f   DispFormData.obj
 0001:00002740       ?LoadIntDataInCfg@CDispFormData@@QAEHPBD0FPAUtagVARIANT@@@Z 10003740 f   DispFormData.obj
 0001:00002780       ?LoadStringDataInCfg@CDispFormData@@QAE?AV?$CStringT@DV?$StrTraitMFC_DLL@DV?$ChTraitsCRT@D@ATL@@@@@ATL@@PBD00@Z 10003780 f   DispFormData.obj
 0001:00002800       ?SaveData@CDispFormData@@QAEHPBD0ABUtagVARIANT@@@Z 10003800 f   DispFormData.obj
 0001:00002840       ?SaveIniData@CDispFormData@@QAEHPBD00ABUtagVARIANT@@@Z 10003840 f   DispFormData.obj
 0001:00002880       ?SaveIntDataToCfg@CDispFormData@@QAEHPBD0F@Z 10003880 f   DispFormData.obj
 0001:000028c0       ?SaveStringDataToCfg@CDispFormData@@QAEHPBD00@Z 100038c0 f   DispFormData.obj
 0001:000028f0       ?WritePrivateDataString@CDispFormData@@QAEFPBD000@Z 100038f0 f   DispFormData.obj
 0001:00002930       ?WritePrivateDelete@CDispFormData@@QAEXPBD0@Z 10003930 f   DispFormData.obj
 0001:00002960       ??0CDispFormOpen@@QAE@XZ   10003960 f   DispFormOpen.obj
 0001:00002980       ?CloseMap@CDispFormOpen@@QAEXXZ 10003980 f   DispFormOpen.obj
 0001:000029a0       ?DialogMap@CDispFormOpen@@QAEXPBD0F@Z 100039a0 f   DispFormOpen.obj
 0001:000029d0       ?InitInterfaceName@CDispFormOpen@@QAEXPAUIDispatch@@@Z 100039d0 f   DispFormOpen.obj
 0001:00002a20       ?LoadMap@CDispFormOpen@@QAEXPBD0F@Z 10003a20 f   DispFormOpen.obj
 0001:00002a50       ?OpenMap@CDispFormOpen@@QAEXPBD0F@Z 10003a50 f   DispFormOpen.obj
 0001:00002a80       ?PopupMap@CDispFormOpen@@QAEXPBD0F@Z 10003a80 f   DispFormOpen.obj
 0001:00002ab0       ?ReLoadMap@CDispFormOpen@@QAEXPBD0F@Z 10003ab0 f   DispFormOpen.obj
 0001:00002ae0       ?SinglePopupMap@CDispFormOpen@@QAEXPBD0F@Z 10003ae0 f   DispFormOpen.obj
 0001:00002b10       ??0CDispFrame@@QAE@XZ      10003b10 f   DispFrame.obj
 0001:00002b30       ?ChangeFrameSize@CDispFrame@@QAEXFFF@Z 10003b30 f   DispFrame.obj
 0001:00002b60       ?GetDataSaveType@CDispFrame@@QAEFXZ 10003b60 f   DispFrame.obj
 0001:00002b90       ?GetFontSize@CDispFrame@@QAEFXZ 10003b90 f   DispFrame.obj
 0001:00002bc0       ?GetFrameInfoFile@CDispFrame@@QAE?AV?$CStringT@DV?$StrTraitMFC_DLL@DV?$ChTraitsCRT@D@ATL@@@@@ATL@@XZ 10003bc0 f   DispFrame.obj
 0001:00002c40       ?GetFrameScrNum@CDispFrame@@QAE?AV?$CStringT@DV?$StrTraitMFC_DLL@DV?$ChTraitsCRT@D@ATL@@@@@ATL@@XZ 10003c40 f   DispFrame.obj
 0001:00002cc0       ?InitInterfaceName@CDispFrame@@QAEXPAUIDispatch@@@Z 10003cc0 f   DispFrame.obj
 0001:00002d10       ??0CDispMain@@QAE@XZ       10003d10 f   DispMain.obj
 0001:00002d30       ?ChangeFrameSize@CDispMain@@QAEXFFF@Z 10003d30 f   DispMain.obj
 0001:00002d70       ?ChangeTabProperty@CDispMain@@QAEHFFFF@Z 10003d70 f   DispMain.obj
 0001:00002db0       ?ClearMessageBar@CDispMain@@QAEXXZ 10003db0 f   DispMain.obj
 0001:00002dd0       ?CloseMain@CDispMain@@QAEXF@Z 10003dd0 f   DispMain.obj
 0001:00002e00       ?GetAcctList@CDispMain@@QAE?AV?$CStringT@DV?$StrTraitMFC_DLL@DV?$ChTraitsCRT@D@ATL@@@@@ATL@@XZ 10003e00 f   DispMain.obj
 0001:00002e80       ?GetAcctPasswd@CDispMain@@QAE?AV?$CStringT@DV?$StrTraitMFC_DLL@DV?$ChTraitsCRT@D@ATL@@@@@ATL@@PBD@Z 10003e80 f   DispMain.obj
 0001:00002f00       ?GetBatchAcctInfo@CDispMain@@QAE?AV?$CStringT@DV?$StrTraitMFC_DLL@DV?$ChTraitsCRT@D@ATL@@@@@ATL@@PBD@Z 10003f00 f   DispMain.obj
 0001:00002f80       ?GetFrameSize@CDispMain@@QAE?AV?$CStringT@DV?$StrTraitMFC_DLL@DV?$ChTraitsCRT@D@ATL@@@@@ATL@@F@Z 10003f80 f   DispMain.obj
 0001:00003000       ?GetFrameVariable@CDispMain@@QAE?AV?$CStringT@DV?$StrTraitMFC_DLL@DV?$ChTraitsCRT@D@ATL@@@@@ATL@@PBD@Z 10004000 f   DispMain.obj
 0001:00003080       ?GetGShareData@CDispMain@@QAE?AV?$CStringT@DV?$StrTraitMFC_DLL@DV?$ChTraitsCRT@D@ATL@@@@@ATL@@PBD@Z 10004080 f   DispMain.obj
 0001:00003100       ?GetGwanCode@CDispMain@@QAE?AV?$CStringT@DV?$StrTraitMFC_DLL@DV?$ChTraitsCRT@D@ATL@@@@@ATL@@PBD@Z 10004100 f   DispMain.obj
 0001:00003180       ?GetGwanCodeOneGroup@CDispMain@@QAE?AV?$CStringT@DV?$StrTraitMFC_DLL@DV?$ChTraitsCRT@D@ATL@@@@@ATL@@PBD0@Z 10004180 f   DispMain.obj
 0001:00003200       ?GetGwanList@CDispMain@@QAE?AV?$CStringT@DV?$StrTraitMFC_DLL@DV?$ChTraitsCRT@D@ATL@@@@@ATL@@XZ 10004200 f   DispMain.obj
 0001:00003280       ?GetMapInfo@CDispMain@@QAE?AV?$CStringT@DV?$StrTraitMFC_DLL@DV?$ChTraitsCRT@D@ATL@@@@@ATL@@F@Z 10004280 f   DispMain.obj
 0001:00003300       ?GetMasterData@CDispMain@@QAE?AV?$CStringT@DV?$StrTraitMFC_DLL@DV?$ChTraitsCRT@D@ATL@@@@@ATL@@F@Z 10004300 f   DispMain.obj
 0001:00003380       ?GetUserInfo@CDispMain@@QAE?AV?$CStringT@DV?$StrTraitMFC_DLL@DV?$ChTraitsCRT@D@ATL@@@@@ATL@@F@Z 10004380 f   DispMain.obj
 0001:00003400       ?IHAddSection@CDispMain@@QAEFPBD00@Z 10004400 f   DispMain.obj
 0001:00003430       ?IHDeleteSection@CDispMain@@QAEFPBD00@Z 10004430 f   DispMain.obj
 0001:00003460       ?IHGetSectionData@CDispMain@@QAE?AV?$CStringT@DV?$StrTraitMFC_DLL@DV?$ChTraitsCRT@D@ATL@@@@@ATL@@PBD0000@Z 10004460 f   DispMain.obj
 0001:000034f0       ?IHGetSectionNames@CDispMain@@QAE?AV?$CStringT@DV?$StrTraitMFC_DLL@DV?$ChTraitsCRT@D@ATL@@@@@ATL@@PBD0@Z 100044f0 f   DispMain.obj
 0001:00003570       ?IHRenameSection@CDispMain@@QAEFPBD000@Z 10004570 f   DispMain.obj
 0001:000035b0       ?IHWriteSectionData@CDispMain@@QAEFPBD0000@Z 100045b0 f   DispMain.obj
 0001:000035f0       ?InitInterfaceName@CDispMain@@QAEXPAUIDispatch@@@Z 100045f0 f   DispMain.obj
 0001:00003650       ?MsgBox@CDispMain@@QAEFPBD0F@Z 10004650 f   DispMain.obj
 0001:00003690       ?NotifyEvent@CDispMain@@QAEXPBD0@Z 10004690 f   DispMain.obj
 0001:000036c0       ?RemoveGlobalData@CDispMain@@QAEHPBD0@Z 100046c0 f   DispMain.obj
 0001:000036f0       ?ReportCall@CDispMain@@QAEXPBDJ0@Z 100046f0 f   DispMain.obj
 0001:00003720       ?Restart@CDispMain@@QAEXXZ 10004720 f   DispMain.obj
 0001:00003740       ?SetAcctPasswd@CDispMain@@QAEXPBD0@Z 10004740 f   DispMain.obj
 0001:00003770       ?SetBatchAcctInfo@CDispMain@@QAEXPBD@Z 10004770 f   DispMain.obj
 0001:000037a0       ?SetFrameVariable@CDispMain@@QAEXPBD0@Z 100047a0 f   DispMain.obj
 0001:000037d0       ?SetGShareData@CDispMain@@QAEXPBD0F@Z 100047d0 f   DispMain.obj
 0001:00003800       ?SetOpenMapStyle2@CDispMain@@QAEXFFFFF@Z 10004800 f   DispMain.obj
 0001:00003840       ?SetOpenMapStyle@CDispMain@@QAEXFFFF@Z 10004840 f   DispMain.obj
 0001:00003880       ?ShowDialog@CDispMain@@QAEFPBDFF@Z 10004880 f   DispMain.obj
 0001:000038c0       ??0CDispPrimLib@@QAE@XZ    100048c0 f   DispPrimLib.obj
 0001:000038e0       ?ChangeInputRangeResize@CDispPrimLib@@QAEXPBD@Z 100048e0 f   DispPrimLib.obj
 0001:00003910       ?DefaultSetUp@CDispPrimLib@@QAEXPBD0000000@Z 10004910 f   DispPrimLib.obj
 0001:00003950       ?DeleteSplit@CDispPrimLib@@QAEXPBD@Z 10004950 f   DispPrimLib.obj
 0001:00003980       ?InitInterfaceName@CDispPrimLib@@QAEXPAUIDispatch@@@Z 10004980 f   DispPrimLib.obj
 0001:000039d0       ?InsertSplit@CDispPrimLib@@QAEXPBD0000@Z 100049d0 f   DispPrimLib.obj
 0001:00003a00       ?IsUserDefinedMode@CDispPrimLib@@QAEFPBDF@Z 10004a00 f   DispPrimLib.obj
 0001:00003a30       ?MapSwitch@CDispPrimLib@@QAEXPBD@Z 10004a30 f   DispPrimLib.obj
 0001:00003a60       ?ReLoadOtherMap@CDispPrimLib@@QAEXPBD@Z 10004a60 f   DispPrimLib.obj
 0001:00003a90       ?SetActiveTab@CDispPrimLib@@QAEXPBD@Z 10004a90 f   DispPrimLib.obj
 0001:00003ac0       ?SetMessage@CDispPrimLib@@QAEXPBD@Z 10004ac0 f   DispPrimLib.obj
 0001:00003af0       ?SplitResizeOption@CDispPrimLib@@QAEXPBD00@Z 10004af0 f   DispPrimLib.obj
 0001:00003b20       ?TabToggle@CDispPrimLib@@QAEXPBD@Z 10004b20 f   DispPrimLib.obj
 0001:00003b50       ?ToggleWindow@CDispPrimLib@@QAEXPBD00@Z 10004b50 f   DispPrimLib.obj
 0001:00003b80       ??0CDispView@@QAE@XZ       10004b80 f   DispView.obj
 0001:00003ba0       ?InitInterfaceName@CDispView@@QAEXPAUIDispatch@@@Z 10004ba0 f   DispView.obj
 0001:00003bf0       ?MsgBoxID@CDispView@@QAEFFPBD0F@Z 10004bf0 f   DispView.obj
 0001:00003c30       ?ShowDialog@CDispView@@QAEFPBDF@Z 10004c30 f   DispView.obj
 0001:00003c60       ??0CDispCodeOcx@@QAE@XZ    10004c60 f   CodeOcx.obj
 0001:00003c80       ??1CDispCodeOcx@@QAE@XZ    10004c80 f   CodeOcx.obj
 0001:00003ce0       ?GetBaseCodeTable@CDispCodeOcx@@QAEJXZ 10004ce0 f   CodeOcx.obj
 0001:00003d10       ?GetCodeInfo@CDispCodeOcx@@QAE?AV?$CStringT@DV?$StrTraitMFC_DLL@DV?$ChTraitsCRT@D@ATL@@@@@ATL@@PBDF0@Z 10004d10 f   CodeOcx.obj
 0001:00003d90       ?GetCodePointer@CDispCodeOcx@@QAEJPBD@Z 10004d90 f   CodeOcx.obj
 0001:00003dc0       ?GetGlobalDataTypeList@CDispCodeOcx@@QAEJXZ 10004dc0 f   CodeOcx.obj
 0001:00003df0       ?GetHistoryList@CDispCodeOcx@@QAE?AV?$CStringT@DV?$StrTraitMFC_DLL@DV?$ChTraitsCRT@D@ATL@@@@@ATL@@FJ@Z 10004df0 f   CodeOcx.obj
 0001:00003e70       ?GetMaxHangSaGa@CDispCodeOcx@@QAE?AV?$CStringT@DV?$StrTraitMFC_DLL@DV?$ChTraitsCRT@D@ATL@@@@@ATL@@XZ 10004e70 f   CodeOcx.obj
 0001:00003ef0       ?GetRscMng@CDispCodeOcx@@QAEXJ@Z 10004ef0 f   CodeOcx.obj
 0001:00003f20       ?InitData@CDispCodeOcx@@QAEHPBD@Z 10004f20 f   CodeOcx.obj
 0001:00003f50       ?InitInterfaceName@CDispCodeOcx@@QAEXPAUIDispatch@@@Z 10004f50 f   CodeOcx.obj
 0001:00003fa0       ?InsertHistory@CDispCodeOcx@@QAEHFJPBD0@Z 10004fa0 f   CodeOcx.obj
 0001:00003fe0       ?RemoveAllListData@CDispCodeOcx@@QAEHXZ 10004fe0 f   CodeOcx.obj
 0001:00004010       ?SetDataString@CDispCodeOcx@@QAEXFPBD@Z 10005010 f   CodeOcx.obj
 0001:00004040       ?SetInfo@CDispCodeOcx@@QAEXJ@Z 10005040 f   CodeOcx.obj
 0001:00004070       ?SetPosition@CDispCodeOcx@@QAEXPBDFF@Z 10005070 f   CodeOcx.obj
 0001:000040a0       ?ShowCodeTable@CDispCodeOcx@@QAEJPBDABUtagVARIANT@@@Z 100050a0 f   CodeOcx.obj
 0001:000040d0       ?ShowCodeTableWithPosition@CDispCodeOcx@@QAEJPBDABUtagVARIANT@@FF@Z 100050d0 f   CodeOcx.obj
 0001:00004110       ?ShowModeCodeTable@CDispCodeOcx@@QAEJPBDABUtagVARIANT@@@Z 10005110 f   CodeOcx.obj
 0001:00004140       ??0CControlPos@@QAE@PAVCWnd@@@Z 10005140 f   ControlPos.obj
 0001:00004210       ??1CControlPos@@UAE@XZ     10005210 f   ControlPos.obj
 0001:00004260       ??_ECControlPos@@UAEPAXI@Z 10005260 f i ControlPos.obj
 0001:00004260       ??_GCControlPos@@UAEPAXI@Z 10005260 f i ControlPos.obj
 0001:000042d0       ?AddControl@CControlPos@@QAEHABIABK@Z 100052d0 f   ControlPos.obj
 0001:00004380       ?AddControl@CControlPos@@QAEHABIABKV?$CStringT@DV?$StrTraitMFC_DLL@DV?$ChTraitsCRT@D@ATL@@@@@ATL@@@Z 10005380 f   ControlPos.obj
 0001:000044b0       ?AddControl@CControlPos@@QAEHPAVCWnd@@ABK@Z 100054b0 f   ControlPos.obj
 0001:00004530       ?AddControl@CControlPos@@QAEHPAVCWnd@@ABKV?$CStringT@DV?$StrTraitMFC_DLL@DV?$ChTraitsCRT@D@ATL@@@@@ATL@@@Z 10005530 f   ControlPos.obj
 0001:00004610       ?GetNegativeMoves@CControlPos@@QBEHXZ 10005610 f   ControlPos.obj
 0001:00004620       ?GetSafeHwnd@CWnd@@QBEPAUHWND__@@XZ 10005620 f i ControlPos.obj
 0001:00004630       ?MoveControls@CControlPos@@UAEXXZ 10005630 f   ControlPos.obj
 0001:00004880       ?RemoveControl@CControlPos@@QAEHABI@Z 10005880 f   ControlPos.obj
 0001:00004920       ?RemoveControl@CControlPos@@QAEHPAVCWnd@@@Z 10005920 f   ControlPos.obj
 0001:000049a0       ?ResetControls@CControlPos@@QAEXXZ 100059a0 f   ControlPos.obj
 0001:000049f0       ?ResizeControls@CControlPos@@QAEXHHHH@Z 100059f0 f   ControlPos.obj
 0001:00004c00       ?SetNegativeMoves@CControlPos@@QAEXABH@Z 10005c00 f   ControlPos.obj
 0001:00004c10       ?SetParent@CControlPos@@QAEXPAVCWnd@@PAVCSize@@@Z 10005c10 f   ControlPos.obj
 0001:00004d10       ?UpdateParentSize@CControlPos@@MAEXXZ 10005d10 f   ControlPos.obj
 0001:00004d20       ?GetPcIP@CSystemInfo@@SA?AV?$CStringT@DV?$StrTraitMFC_DLL@DV?$ChTraitsCRT@D@ATL@@@@@ATL@@XZ 10005d20 f   EtcUtil.obj
 0001:00004d40       ?RegGetIP@CSystemInfo@@SA?AV?$CStringT@DV?$StrTraitMFC_DLL@DV?$ChTraitsCRT@D@ATL@@@@@ATL@@XZ 10005d40 f   EtcUtil.obj
 0001:00004e60       ??0CGwanWnd@@QAE@XZ        10005e60 f   GwanWnd.obj
 0001:00004e90       ??1CGwanWnd@@UAE@XZ        10005e90 f   GwanWnd.obj
 0001:00004ea0       ??_ECGwanWnd@@UAEPAXI@Z    10005ea0 f i GwanWnd.obj
 0001:00004ea0       ??_GCGwanWnd@@UAEPAXI@Z    10005ea0 f i GwanWnd.obj
 0001:00004ef0       ?AssertValid@CObject@@UBEXXZ 10005ef0 f i GwanWnd.obj
 0001:00004f00       ?BeginModalState@CWnd@@UAEXXZ 10005f00 f i GwanWnd.obj
 0001:00004f10       ?ClearAllList@CGwanWnd@@QAEXXZ 10005f10 f   GwanWnd.obj
 0001:00004f20       ?ClearList@CGwanWnd@@QAEXH@Z 10005f20 f   GwanWnd.obj
 0001:00004f30       ?DestroyWindow@CGwanWnd@@UAEHXZ 10005f30 f   GwanWnd.obj
 0001:00004f40       ?DoDataExchange@CWnd@@MAEXPAVCDataExchange@@@Z 10005f40 f i GwanWnd.obj
 0001:00004f50       ?Dump@CObject@@UBEXAAVCDumpContext@@@Z 10005f50 f i GwanWnd.obj
 0001:00004f60       ?EndModalState@CWnd@@UAEXXZ 10005f60 f i GwanWnd.obj
 0001:00004f70       ?GetMessageMap@CGwanWnd@@MBEPBUAFX_MSGMAP@@XZ 10005f70 f   GwanWnd.obj
 0001:00004f80       ?GetThisMessageMap@CGwanWnd@@KGPBUAFX_MSGMAP@@XZ 10005f80 f   GwanWnd.obj
 0001:00004f90       ?GwanAdvise@CGwanWnd@@QAEXXZ 10005f90 f   GwanWnd.obj
 0001:00004fa0       ?GwanUnAdvise@CGwanWnd@@QAEXH@Z 10005fa0 f   GwanWnd.obj
 0001:00004fb0       ?OnEugeneGwansim@CGwanWnd@@IAEJIJ@Z 10005fb0 f   GwanWnd.obj
 0001:00004fc0       ?OpenWindow@CGwanWnd@@QAEHXZ 10005fc0 f   GwanWnd.obj
 0001:00005060       ?Serialize@CObject@@UAEXAAVCArchive@@@Z 10006060 f i GwanWnd.obj
 0001:00005070       ??0CNewsMoniterWnd@@QAE@XZ 10006070 f   NewsMoniterWnd.obj
 0001:000050a0       ??1CNewsMoniterWnd@@UAE@XZ 100060a0 f   NewsMoniterWnd.obj
 0001:000050c0       ??_GCNewsMoniterWnd@@UAEPAXI@Z 100060c0 f i NewsMoniterWnd.obj
 0001:000050c0       ??_ECNewsMoniterWnd@@UAEPAXI@Z 100060c0 f i NewsMoniterWnd.obj
 0001:00005110       ?GetDummyHwnd@CNewsMoniterWnd@@QAEPAUHWND__@@XZ 10006110 f   NewsMoniterWnd.obj
 0001:00005130       ?GetFilterData@CNewsMoniterWnd@@QAEXAAJ@Z 10006130 f   NewsMoniterWnd.obj
 0001:00005160       ?GetMessageMap@CNewsMoniterWnd@@MBEPBUAFX_MSGMAP@@XZ 10006160 f   NewsMoniterWnd.obj
 0001:00005170       ?GetSiganlTable@CNewsMoniterWnd@@QAEHV?$CStringT@DV?$StrTraitMFC_DLL@DV?$ChTraitsCRT@D@ATL@@@@@ATL@@AAVCStringArray@@@Z 10006170 f   NewsMoniterWnd.obj
 0001:000051f0       ?GetSignalData@CNewsMoniterWnd@@QAEXV?$CStringT@DV?$StrTraitMFC_DLL@DV?$ChTraitsCRT@D@ATL@@@@@ATL@@AAVCMapStringToPtr@@@Z 100061f0 f   NewsMoniterWnd.obj
 0001:00005270       ?GetThisMessageMap@CNewsMoniterWnd@@KGPBUAFX_MSGMAP@@XZ 10006270 f   NewsMoniterWnd.obj
 0001:00005280       ?OnCreate@CNewsMoniterWnd@@IAEHPAUtagCREATESTRUCTA@@@Z 10006280 f   NewsMoniterWnd.obj
 0001:00005370       ?OnDestroy@CNewsMoniterWnd@@IAEXXZ 10006370 f   NewsMoniterWnd.obj
 0001:000053b0       ?OpenWindow@CNewsMoniterWnd@@QAEHXZ 100063b0 f   NewsMoniterWnd.obj
 0001:00005450       ?PreCreateWindow@CNewsMoniterWnd@@MAEHAAUtagCREATESTRUCTA@@@Z 10006450 f   NewsMoniterWnd.obj
 0001:00005460       ?SetFilterData@CNewsMoniterWnd@@QAEXPAJ@Z 10006460 f   NewsMoniterWnd.obj
 0001:00005490       ?SetSignalData@CNewsMoniterWnd@@QAEXV?$CStringT@DV?$StrTraitMFC_DLL@DV?$ChTraitsCRT@D@ATL@@@@@ATL@@PAVCMapStringToPtr@@@Z 10006490 f   NewsMoniterWnd.obj
 0001:00005510       ?SetSingSiganl@CNewsMoniterWnd@@QAEHHPAVCWnd@@V?$CStringT@DV?$StrTraitMFC_DLL@DV?$ChTraitsCRT@D@ATL@@@@@ATL@@1@Z 10006510 f   NewsMoniterWnd.obj
 0001:000055c0       ??0CPCtrMainWnd@@QAE@XZ    100065c0 f   PCtrMainWnd.obj
 0001:000055e0       ??_ECPCtrMainWnd@@UAEPAXI@Z 100065e0 f i PCtrMainWnd.obj
 0001:000055e0       ??_GCPCtrMainWnd@@UAEPAXI@Z 100065e0 f i PCtrMainWnd.obj
 0001:00005620       ?GetMessageMap@CPCtrMainWnd@@MBEPBUAFX_MSGMAP@@XZ 10006620 f   PCtrMainWnd.obj
 0001:00005630       ?GetThisMessageMap@CPCtrMainWnd@@KGPBUAFX_MSGMAP@@XZ 10006630 f   PCtrMainWnd.obj
 0001:00005640       ?OpenWindow@CPCtrMainWnd@@QAEHXZ 10006640 f   PCtrMainWnd.obj
 0001:000056e0       ?WindowProc@CPCtrMainWnd@@MAEJIIJ@Z 100066e0 f   PCtrMainWnd.obj
 0001:00005740       ??$SerializeElements@PAVCSTManager_Info@@@@YGXAAVCArchive@@PAPAVCSTManager_Info@@H@Z 10006740 f i PcTrMng.obj
 0001:000057f0       ??0?$CList@PAVCSTManager_Info@@PAV1@@@QAE@H@Z 100067f0 f i PcTrMng.obj
 0001:00005830       ??0CPcTrMngApp@@QAE@XZ     10006830 f   PcTrMng.obj
 0001:00005b50       ??1?$CList@PAVCSTManager_Info@@PAV1@@@UAE@XZ 10006b50 f i PcTrMng.obj
 0001:00005bc0       ??1CObject@@UAE@XZ         10006bc0 f i PcTrMng.obj
 0001:00005bd0       ??1CPcTrMngApp@@UAE@XZ     10006bd0 f   PcTrMng.obj
 0001:00005c80       ??3CObject@@SGXPAX@Z       10006c80 f i PcTrMng.obj
 0001:00005ca0       ??_E?$CList@PAVCSTManager_Info@@PAV1@@@UAEPAXI@Z 10006ca0 f i PcTrMng.obj
 0001:00005ca0       ??_G?$CList@PAVCSTManager_Info@@PAV1@@@UAEPAXI@Z 10006ca0 f i PcTrMng.obj
 0001:00005d50       ??_GCPcTrMngApp@@UAEPAXI@Z 10006d50 f i PcTrMng.obj
 0001:00005d50       ??_ECPcTrMngApp@@UAEPAXI@Z 10006d50 f i PcTrMng.obj
 0001:00005d90       ?AddTail@?$CList@PAVCSTManager_Info@@PAV1@@@QAEPAU__POSITION@@PAVCSTManager_Info@@@Z 10006d90 f i PcTrMng.obj
 0001:00005e20       ?DOChartOCXRegister@CPcTrMngApp@@QAEHXZ 10006e20 f   PcTrMng.obj
 0001:00005ff0       ?ExitInstance@CPcTrMngApp@@UAEHXZ 10006ff0 f   PcTrMng.obj
 0001:000061c0       ?GetApplicationRecoveryParameter@CWinApp@@UAEPAXXZ 100071c0 f i PcTrMng.obj
 0001:000061d0       ?GetApplicationRecoveryPingInterval@CWinApp@@UAEKXZ 100071d0 f i PcTrMng.obj
 0001:000061e0       ?GetApplicationRestartFlags@CWinApp@@UAEKXZ 100071e0 f i PcTrMng.obj
 0001:000061f0       ?GetDir_DrfnRoot@@YAXAAV?$CStringT@DV?$StrTraitMFC_DLL@DV?$ChTraitsCRT@D@ATL@@@@@ATL@@@Z 100071f0 f i PcTrMng.obj
 0001:00006320       ?GetInferface@@YGJIJ@Z     10007320 f   PcTrMng.obj
 0001:00006340       ?GetMessageMap@CPcTrMngApp@@MBEPBUAFX_MSGMAP@@XZ 10007340 f   PcTrMng.obj
 0001:00006350       ?GetPCTrData@@YGPAXIJ@Z    10007350 f   PcTrMng.obj
 0001:00006380       ?GetThisMessageMap@CPcTrMngApp@@KGPBUAFX_MSGMAP@@XZ 10007380 f   PcTrMng.obj
 0001:00006390       ?InitInstance@CPcTrMngApp@@UAEHXZ 10007390 f   PcTrMng.obj
 0001:00006bc0       ?LoadDefaultColorTable@CPcTrMngApp@@QAEXXZ 10007bc0 f   PcTrMng.obj
 0001:00006c50       ?LoadTestDLL@CPcTrMngApp@@QAEXXZ 10007c50 f   PcTrMng.obj
 0001:00006c60       ?NewNode@?$CList@PAVCSTManager_Info@@PAV1@@@IAEPAUCNode@1@PAU21@0@Z 10007c60 f i PcTrMng.obj
 0001:00006cd0       ?NotifyPCTrState@@YGJIJ@Z  10007cd0 f   PcTrMng.obj
 0001:00006ce0       ?PctrGetMainHandle@CPcTrMngApp@@QAEPAUHWND__@@XZ 10007ce0 f   PcTrMng.obj
 0001:00006d10       ?PctrGetMainWnd@CPcTrMngApp@@QAEPAVCWnd@@XZ 10007d10 f   PcTrMng.obj
 0001:00006d40       ?RemoveAll@?$CList@PAVCSTManager_Info@@PAV1@@@QAEXXZ 10007d40 f i PcTrMng.obj
 0001:00006d70       ?ReopenPreviousFilesAtRestart@CWinApp@@UBEHXZ 10007d70 f i PcTrMng.obj
 0001:00006d80       ?RestoreAutosavedFilesAtRestart@CWinApp@@UBEHXZ 10007d80 f i PcTrMng.obj
 0001:00006d90       ?Serialize@?$CList@PAVCSTManager_Info@@PAV1@@@UAEXAAVCArchive@@@Z 10007d90 f i PcTrMng.obj
 0001:00006fa0       ?SetHanaroEnvSetting@CPcTrMngApp@@QAEHPAUHWND__@@PBD@Z 10007fa0 f   PcTrMng.obj
 0001:00007060       ?SetHanaroGateMngHandle@CPcTrMngApp@@QAEXXZ 10008060 f   PcTrMng.obj
 0001:00007110       ?SetPCTrData@@YGJIJ@Z      10008110 f   PcTrMng.obj
 0001:00007160       ?SupportsApplicationRecovery@CWinApp@@UBEHXZ 10008160 f i PcTrMng.obj
 0001:00007170       ?SupportsAutosaveAtInterval@CWinApp@@UBEHXZ 10008170 f i PcTrMng.obj
 0001:00007180       ?SupportsAutosaveAtRestart@CWinApp@@UBEHXZ 10008180 f i PcTrMng.obj
 0001:00007190       ?SupportsRestartManager@CWinApp@@UBEHXZ 10008190 f i PcTrMng.obj
 0001:000071a0       ?UnLoadTestDLL@CPcTrMngApp@@QAEXXZ 100081a0 f   PcTrMng.obj
 0001:000071b0       ?_DoClearDataFile@CPcTrMngApp@@QAEXXZ 100081b0 f   PcTrMng.obj
 0001:000075b0       ?_DoPrepareData@CPcTrMngApp@@QAEXXZ 100085b0 f   PcTrMng.obj
 0001:00007700       ?_WinixVariant@CPcTrMngApp@@QAE?AV?$CStringT@DV?$StrTraitMFC_DLL@DV?$ChTraitsCRT@D@ATL@@@@@ATL@@PAUHWND__@@HV23@@Z 10008700 f   PcTrMng.obj
 0001:00007770       ___local_stdio_printf_options 10008770 f i PcTrMng.obj
 0001:00007780       _sprintf                   10008780 f i PcTrMng.obj
 0001:000077c0       ?Allocate@CAtlStringMgr@ATL@@UAEPAUCStringData@2@HH@Z 100087c0 f i StdAfx.obj
 0001:00007830       ?Free@CAtlStringMgr@ATL@@UAEXPAUCStringData@2@@Z 10008830 f i StdAfx.obj
 0001:00007840       ?Reallocate@CAtlStringMgr@ATL@@UAEPAUCStringData@2@PAU32@HH@Z 10008840 f i StdAfx.obj
 0001:000078a0       ?GetNilString@CAtlStringMgr@ATL@@UAEPAUCStringData@2@XZ 100088a0 f i StdAfx.obj
 0001:000078b0       ?Clone@CAtlStringMgr@ATL@@UAEPAUIAtlStringMgr@2@XZ 100088b0 f i StdAfx.obj
 0001:000078c0       ??_GCAtlStringMgr@ATL@@UAEPAXI@Z 100088c0 f i StdAfx.obj
 0001:000078c0       ??_ECAtlStringMgr@ATL@@UAEPAXI@Z 100088c0 f i StdAfx.obj
 0001:000078f0       ?_AfxInitManaged@@YAHXZ    100088f0 f i StdAfx.obj
 0001:00007900       ?Allocate@CWin32Heap@ATL@@UAEPAXI@Z 10008900 f i StdAfx.obj
 0001:00007920       ?Free@CWin32Heap@ATL@@UAEXPAX@Z 10008920 f i StdAfx.obj
 0001:00007940       ?Reallocate@CWin32Heap@ATL@@UAEPAXPAXI@Z 10008940 f i StdAfx.obj
 0001:00007980       ?GetSize@CWin32Heap@ATL@@UAEIPAX@Z 10008980 f i StdAfx.obj
 0001:000079a0       ??_ECWin32Heap@ATL@@UAEPAXI@Z 100089a0 f i StdAfx.obj
 0001:000079a0       ??_GCWin32Heap@ATL@@UAEPAXI@Z 100089a0 f i StdAfx.obj
 0001:000079e0       ??1CAtlStringMgr@ATL@@UAE@XZ 100089e0 f i StdAfx.obj
 0001:000079f0       ??1CWin32Heap@ATL@@UAE@XZ  100089f0 f i StdAfx.obj
 0001:00007a10       ??_H@YGXPAXIIP6EPAX0@Z@Z   10008a10 f i StdAfx.obj
 0001:00007a40       ?EnsureLinked@CAtlStringMgrStaticInitializer@ATLImplementationDetails@ATL@@QAEPAXXZ 10008a40 f i StdAfx.obj
 0001:00007a50       ?_AtlInitializeCriticalSectionEx@ATL@@YAHPAU_RTL_CRITICAL_SECTION@@KK@Z 10008a50 f i StdAfx.obj
 0001:00007a70       ?_AtlRaiseException@ATL@@YAXKK@Z 10008a70 f i StdAfx.obj
 0001:00007a90       ??0CTracer@@QAE@XZ         10008a90 f   Tracer.obj
 0001:00007aa0       ??1CTracer@@UAE@XZ         10008aa0 f   Tracer.obj
 0001:00007ac0       ??_ECTracer@@UAEPAXI@Z     10008ac0 f i Tracer.obj
 0001:00007ac0       ??_GCTracer@@UAEPAXI@Z     10008ac0 f i Tracer.obj
 0001:00007b00       ?Connect@CTracer@@QAE_NXZ  10008b00 f   Tracer.obj
 0001:00007b30       ?DisConnect@CTracer@@QAEXXZ 10008b30 f   Tracer.obj
 0001:00007b50       ?MakeTrace@CTracer@@QBA_NPBDZZ 10008b50 f   Tracer.obj
 0001:00007c00       ?Create@CTRComm@@UAEHPAVCWnd@@@Z 10008c00 f   TrComm.obj
 0001:00007cc0       ?GetBaseData@CTRComm@@QAEXPBDAAV?$CStringT@DV?$StrTraitMFC_DLL@DV?$ChTraitsCRT@D@ATL@@@@@ATL@@@Z 10008cc0 f   TrComm.obj
 0001:00007cf0       ?GetMessageMap@CTRComm@@MBEPBUAFX_MSGMAP@@XZ 10008cf0 f   TrComm.obj
 0001:00007d00       ?GetPacketUniqueID@CTRComm@@QAEHH@Z 10008d00 f   TrComm.obj
 0001:00007d30       ?GetThisMessageMap@CTRComm@@KGPBUAFX_MSGMAP@@XZ 10008d30 f   TrComm.obj
 0001:00007d40       ?NotifyParent@CTRComm@@IAEHPBD00PAXJ@Z 10008d40 f   TrComm.obj
 0001:00007d80       ?OnDestroy@CTRComm@@IAEXXZ 10008d80 f   TrComm.obj
 0001:00007db0       ?OnGetMsg@CTRComm@@IAEJIJ@Z 10008db0 f   TrComm.obj
 0001:00007dc0       ?OnTimer@CTRComm@@IAEXI@Z  10008dc0 f   TrComm.obj
 0001:00007e00       ?Send2Server@CTRComm@@QAEHPAXHH@Z 10008e00 f   TrComm.obj
 0001:00007ea0       ?Send2ServerWithKey@CTRComm@@QAEHPAXHH@Z 10008ea0 f   TrComm.obj
 0001:00007f20       ?Send_MessageData@CTRComm@@QAEJPBD00@Z 10008f20 f   TrComm.obj
 0001:00007f50       ?Send_PacketData@CTRComm@@QAEJPAEHPBD11@Z 10008f50 f   TrComm.obj
 0001:00007f60       ?SetBaseData@CTRComm@@QAEXPBD0@Z 10008f60 f   TrComm.obj
 0001:00007fd0       ?SetBaseDataLong@CTRComm@@QAEXPBDJ@Z 10008fd0 f   TrComm.obj
 0001:00008020       ?SetTR@CTRComm@@QAEXPBDH@Z 10009020 f   TrComm.obj
 0001:000080f0       ?StartTRTimer@CTRComm@@IAEXXZ 100090f0 f   TrComm.obj
 0001:00008130       ?StopTRTimer@CTRComm@@IAEXXZ 10009130 f   TrComm.obj
 0001:00008160       ?WaitResult@CTRComm@@IAEHXZ 10009160 f   TrComm.obj
 0001:00008210       ?_DoPreCheck@CTRComm@@IAEHPAEJHAAH@Z 10009210 f   TrComm.obj
 0001:00008510       ?_DoPreCheck_Dollar@CTRComm@@IAEHPAEJPBDAAH@Z 10009510 f   TrComm.obj
 0001:000085b0       ?_DoPreCheck_MstCode@CTRComm@@IAEHPAEJPBDAAH@Z 100095b0 f   TrComm.obj
 0001:00008710       ?_DoPreCheck_WorkDate@CTRComm@@IAEHPAEJPBDAAH@Z 10009710 f   TrComm.obj
 0001:000087b0       ___local_stdio_scanf_options 100097b0 f i TrComm.obj
 0001:000087c0       _sscanf                    100097c0 f i TrComm.obj
 0001:000087f0       ??0CCompanyManager@@QAE@XZ 100097f0 f   _CompanyManager.obj
 0001:00008820       ??1CCompanyManager@@QAE@XZ 10009820 f   _CompanyManager.obj
 0001:00008840       ?AddTail@?$CList@PAUSTACC_SSDATA@@PAU1@@@QAEPAU__POSITION@@PAUSTACC_SSDATA@@@Z 10009840 f i _CompanyManager.obj
 0001:000088d0       ?CreateChkSysWnd@CCompanyManager@@QAEHXZ 100098d0 f   _CompanyManager.obj
 0001:000088e0       ?GetAcctCode@CCompanyManager@@UAGHAAVCStringList@@0@Z 100098e0 f   _CompanyManager.obj
 0001:00008950       ?GetAcctCodeEx@CCompanyManager@@UAGHAAV?$CList@PAUSTACC_SSDATA@@PAU1@@@H@Z 10009950 f   _CompanyManager.obj
 0001:000089e0       ?GetAcctInfo@CCompanyManager@@UAGPBDPBDHH@Z 100099e0 f   _CompanyManager.obj
 0001:00008a10       ?GetEugeneAcctCode@CCompanyManager@@QAEHAAVCStringList@@0@Z 10009a10 f   _CompanyManager.obj
 0001:00008ab0       ?GetEugeneAcctCodeEx@CCompanyManager@@QAEHAAV?$CList@PAUSTACC_SSDATA@@PAU1@@@H@Z 10009ab0 f   _CompanyManager.obj
 0001:00008b40       ?GetEugeneAcctInfo@CCompanyManager@@QAEPBDPBDHH@Z 10009b40 f   _CompanyManager.obj
 0001:00008b70       ?GetID@CCompanyManager@@UAGHXZ 10009b70 f   _CompanyManager.obj
 0001:00008b80       ?GetName@CCompanyManager@@UAGPBDH@Z 10009b80 f   _CompanyManager.obj
 0001:00008c10       ?GetPwd@CCompanyManager@@UAG?AV?$CStringT@DV?$StrTraitMFC_DLL@DV?$ChTraitsCRT@D@ATL@@@@@ATL@@XZ 10009c10 f   _CompanyManager.obj
 0001:00008c30       ?GetSamsungAcctCode@CCompanyManager@@QAEHAAVCStringList@@0@Z 10009c30 f   _CompanyManager.obj
 0001:00008c40       ?GetSamsungAcctCodeEx@CCompanyManager@@QAEHAAV?$CList@PAUSTACC_SSDATA@@PAU1@@@H@Z 10009c40 f   _CompanyManager.obj
 0001:00008c50       ?GetSamsungAcctInfo@CCompanyManager@@QAEPBDPBDHH@Z 10009c50 f   _CompanyManager.obj
 0001:00008c60       ?GetSysEdu@CCompanyManager@@UAGHPBDJJP6GXJ0JJ@Z@Z 10009c60 f   _CompanyManager.obj
 0001:00008cb0       ?NewNode@?$CList@PAUSTACC_SSDATA@@PAU1@@@IAEPAUCNode@1@PAU21@0@Z 10009cb0 f i _CompanyManager.obj
 0001:00008d20       ?RemoveSysEdu@CCompanyManager@@UAGXPBDJJP6GXJ0JJ@Z@Z 10009d20 f   _CompanyManager.obj
 0001:00008d30       ??$SerializeElements@VCDMMngInfo@@@@YGXAAVCArchive@@PAVCDMMngInfo@@H@Z 10009d30 f i _DataMonitorManager.obj
 0001:00008dd0       ??0?$CList@VCDMMngInfo@@V1@@@QAE@H@Z 10009dd0 f i _DataMonitorManager.obj
 0001:00008e10       ??0CAUDataMonitorManager@@QAE@XZ 10009e10 f   _DataMonitorManager.obj
 0001:00008e60       ??0CDMMngInfo@@QAE@PBDJJP6GX0JJJJ@Z@Z 10009e60 f   _DataMonitorManager.obj
 0001:00008ed0       ??0CDMMngInfo@@QAE@XZ      10009ed0 f   _DataMonitorManager.obj
 0001:00008f00       ??1?$CList@VCDMMngInfo@@V1@@@UAE@XZ 10009f00 f i _DataMonitorManager.obj
 0001:00008f50       ??1CAUDataMonitorManager@@QAE@XZ 10009f50 f   _DataMonitorManager.obj
 0001:00008fb0       ??1CDMMngInfo@@QAE@XZ      10009fb0 f i _DataMonitorManager.obj
 0001:00008fc0       ??_E?$CList@VCDMMngInfo@@V1@@@UAEPAXI@Z 10009fc0 f i _DataMonitorManager.obj
 0001:00008fc0       ??_G?$CList@VCDMMngInfo@@V1@@@UAEPAXI@Z 10009fc0 f i _DataMonitorManager.obj
 0001:00009050       ?AddTail@?$CList@VCDMMngInfo@@V1@@@QAEPAU__POSITION@@VCDMMngInfo@@@Z 1000a050 f i _DataMonitorManager.obj
 0001:00009150       ?Advise@CAUDataMonitorManager@@UAGJPBDJJP6GX0JJJJ@Z@Z 1000a150 f   _DataMonitorManager.obj
 0001:000091c0       ?ClearListAll@CAUDataMonitorManager@@QAEXXZ 1000a1c0 f   _DataMonitorManager.obj
 0001:000091d0       ?FreeNode@?$CList@VCDMMngInfo@@V1@@@IAEXPAUCNode@1@@Z 1000a1d0 f i _DataMonitorManager.obj
 0001:00009200       ?NewNode@?$CList@VCDMMngInfo@@V1@@@IAEPAUCNode@1@PAU21@0@Z 1000a200 f i _DataMonitorManager.obj
 0001:00009290       ?NotifyData@CAUDataMonitorManager@@UAGXPBDJJ@Z 1000a290 f   _DataMonitorManager.obj
 0001:00009310       ?RemoveAll@?$CList@VCDMMngInfo@@V1@@@QAEXXZ 1000a310 f i _DataMonitorManager.obj
 0001:00009360       ?RemoveAt@?$CList@VCDMMngInfo@@V1@@@QAEXPAU__POSITION@@@Z 1000a360 f i _DataMonitorManager.obj
 0001:000093c0       ?Serialize@?$CList@VCDMMngInfo@@V1@@@UAEXAAVCArchive@@@Z 1000a3c0 f i _DataMonitorManager.obj
 0001:000095d0       ?UnAdvise@CAUDataMonitorManager@@UAGXJ@Z 1000a5d0 f   _DataMonitorManager.obj
 0001:00009630       ??HATL@@YA?AV?$CStringT@DV?$StrTraitMFC_DLL@DV?$ChTraitsCRT@D@ATL@@@@@0@ABV10@0@Z 1000a630 f i _DataUtilManager.obj
 0001:000096b0       ?AddDashToAccount@CDataUtilManager@@UAGXPBDAAV?$CStringT@DV?$StrTraitMFC_DLL@DV?$ChTraitsCRT@D@ATL@@@@@ATL@@@Z 1000a6b0 f   _DataUtilManager.obj
 0001:00009700       ?AdjustMask@CDataUtilManager@@UAG?AV?$CStringT@DV?$StrTraitMFC_DLL@DV?$ChTraitsCRT@D@ATL@@@@@ATL@@V23@0@Z 1000a700 f   _DataUtilManager.obj
 0001:00009a70       ?AdjustMask@CDataUtilManager@@UAG?AV?$CStringT@DV?$StrTraitMFC_DLL@DV?$ChTraitsCRT@D@ATL@@@@@ATL@@V23@H@Z 1000aa70 f   _DataUtilManager.obj
 0001:00009ae0       ?Color2String@CDataUtilManager@@UAG?AV?$CStringT@DV?$StrTraitMFC_DLL@DV?$ChTraitsCRT@D@ATL@@@@@ATL@@K@Z 1000aae0 f   _DataUtilManager.obj
 0001:00009b30       ?ConvertIntToPoint@CDataUtilManager@@UAG?AV?$CStringT@DV?$StrTraitMFC_DLL@DV?$ChTraitsCRT@D@ATL@@@@@ATL@@V23@HH@Z 1000ab30 f   _DataUtilManager.obj
 0001:0000a110       ?ConvertPointToInt@CDataUtilManager@@UAG?AV?$CStringT@DV?$StrTraitMFC_DLL@DV?$ChTraitsCRT@D@ATL@@@@@ATL@@V23@H@Z 1000b110 f   _DataUtilManager.obj
 0001:0000a320       ?DoParsing@CDataUtilManager@@UAGHDPADAAHH0@Z 1000b320 f   _DataUtilManager.obj
 0001:0000a380       ?DoubleToStrComma@CDataUtilManager@@UAG?AV?$CStringT@DV?$StrTraitMFC_DLL@DV?$ChTraitsCRT@D@ATL@@@@@ATL@@NHH@Z 1000b380 f   _DataUtilManager.obj
 0001:0000a4f0       ?GetComma@CDataUtilManager@@UAG?AV?$CStringT@DV?$StrTraitMFC_DLL@DV?$ChTraitsCRT@D@ATL@@@@@ATL@@PBD@Z 1000b4f0 f   _DataUtilManager.obj
 0001:0000a7a0       ?GetFillString@CDataUtilManager@@UAGHAAV?$CStringT@DV?$StrTraitMFC_DLL@DV?$ChTraitsCRT@D@ATL@@@@@ATL@@HHH@Z 1000b7a0 f   _DataUtilManager.obj
 0001:0000a860       ?GetFutureString@CDataUtilManager@@UAG?AV?$CStringT@DV?$StrTraitMFC_DLL@DV?$ChTraitsCRT@D@ATL@@@@@ATL@@V23@H@Z 1000b860 f   _DataUtilManager.obj
 0001:0000ae10       ?GetMakeText@CDataUtilManager@@UAG?AV?$CStringT@DV?$StrTraitMFC_DLL@DV?$ChTraitsCRT@D@ATL@@@@@ATL@@DH@Z 1000be10 f   _DataUtilManager.obj
 0001:0000ae50       ?GetNumber@CDataUtilManager@@UAG?AV?$CStringT@DV?$StrTraitMFC_DLL@DV?$ChTraitsCRT@D@ATL@@@@@ATL@@PBD@Z 1000be50 f   _DataUtilManager.obj
 0001:0000aec0       ?GetOnlyNumber@CDataUtilManager@@UAG?AV?$CStringT@DV?$StrTraitMFC_DLL@DV?$ChTraitsCRT@D@ATL@@@@@ATL@@PBD@Z 1000bec0 f   _DataUtilManager.obj
 0001:0000af10       ?GetRegKey@CDataUtilManager@@UAGHPBD0AAV?$CStringT@DV?$StrTraitMFC_DLL@DV?$ChTraitsCRT@D@ATL@@@@@ATL@@@Z 1000bf10 f   _DataUtilManager.obj
 0001:0000b000       ?GetSignSimbol@CDataUtilManager@@UAG?AV?$CStringT@DV?$StrTraitMFC_DLL@DV?$ChTraitsCRT@D@ATL@@@@@ATL@@H@Z 1000c000 f   _DataUtilManager.obj
 0001:0000b0a0       ?GetString@CDataUtilManager@@UAGHAAV?$CStringT@DV?$StrTraitMFC_DLL@DV?$ChTraitsCRT@D@ATL@@@@@ATL@@0D@Z 1000c0a0 f   _DataUtilManager.obj
 0001:0000b110       ?GetStringData@CDataUtilManager@@UAG?AV?$CStringT@DV?$StrTraitMFC_DLL@DV?$ChTraitsCRT@D@ATL@@@@@ATL@@AAV23@ABV23@_N@Z 1000c110 f   _DataUtilManager.obj
 0001:0000b210       ?GetWord@CDataUtilManager@@UAGXPAD0D@Z 1000c210 f   _DataUtilManager.obj
 0001:0000b270       ?InsertComma@CDataUtilManager@@UAGXAAV?$CStringT@DV?$StrTraitMFC_DLL@DV?$ChTraitsCRT@D@ATL@@@@@ATL@@@Z 1000c270 f   _DataUtilManager.obj
 0001:0000b5d0       ?IntToStrComma@CDataUtilManager@@UAG?AV?$CStringT@DV?$StrTraitMFC_DLL@DV?$ChTraitsCRT@D@ATL@@@@@ATL@@HH@Z 1000c5d0 f   _DataUtilManager.obj
 0001:0000b660       ?IsNumber@CDataUtilManager@@UAGHI@Z 1000c660 f   _DataUtilManager.obj
 0001:0000b680       ?IsOnlyNumber@CDataUtilManager@@UAGHPBD@Z 1000c680 f   _DataUtilManager.obj
 0001:0000b6c0       ?IsSign@CDataUtilManager@@UAGHPBD@Z 1000c6c0 f   _DataUtilManager.obj
 0001:0000b6e0       ?Remove@CDataUtilManager@@UAGHAAV?$CStringT@DV?$StrTraitMFC_DLL@DV?$ChTraitsCRT@D@ATL@@@@@ATL@@DH@Z 1000c6e0 f   _DataUtilManager.obj
 0001:0000b7a0       ?RemoveAll@CDataUtilManager@@UAGHAAV?$CStringT@DV?$StrTraitMFC_DLL@DV?$ChTraitsCRT@D@ATL@@@@@ATL@@D@Z 1000c7a0 f   _DataUtilManager.obj
 0001:0000b830       ?RemoveChar@CDataUtilManager@@UAG?AV?$CStringT@DV?$StrTraitMFC_DLL@DV?$ChTraitsCRT@D@ATL@@@@@ATL@@PBDD@Z 1000c830 f   _DataUtilManager.obj
 0001:0000b870       ?RemoveCharAll@CDataUtilManager@@UAGXAAV?$CStringT@DV?$StrTraitMFC_DLL@DV?$ChTraitsCRT@D@ATL@@@@@ATL@@D@Z 1000c870 f   _DataUtilManager.obj
 0001:0000b8f0       ?RemoveFront@CDataUtilManager@@UAGPADPBDD@Z 1000c8f0 f   _DataUtilManager.obj
 0001:0000b950       ?SetLengthString@CDataUtilManager@@UAG?AV?$CStringT@DV?$StrTraitMFC_DLL@DV?$ChTraitsCRT@D@ATL@@@@@ATL@@PBDH@Z 1000c950 f   _DataUtilManager.obj
 0001:0000b980       ?Str2Boolean@CDataUtilManager@@UAGHAAV?$CStringT@DV?$StrTraitMFC_DLL@DV?$ChTraitsCRT@D@ATL@@@@@ATL@@@Z 1000c980 f   _DataUtilManager.obj
 0001:0000b9d0       ?Str2CommaStr@CDataUtilManager@@UAGHPAD0I@Z 1000c9d0 f   _DataUtilManager.obj
 0001:0000bae0       ?Str2Int@CDataUtilManager@@UAGHAAV?$CStringT@DV?$StrTraitMFC_DLL@DV?$ChTraitsCRT@D@ATL@@@@@ATL@@@Z 1000cae0 f   _DataUtilManager.obj
 0001:0000bb20       ?Str2LogFont@CDataUtilManager@@UAG?AUtagLOGFONTA@@AAV?$CStringT@DV?$StrTraitMFC_DLL@DV?$ChTraitsCRT@D@ATL@@@@@ATL@@@Z 1000cb20 f   _DataUtilManager.obj
 0001:0000bc40       ?Str2Long@CDataUtilManager@@UAGJAAV?$CStringT@DV?$StrTraitMFC_DLL@DV?$ChTraitsCRT@D@ATL@@@@@ATL@@@Z 1000cc40 f   _DataUtilManager.obj
 0001:0000bc80       ?Str2RGBColor@CDataUtilManager@@UAGKAAV?$CStringT@DV?$StrTraitMFC_DLL@DV?$ChTraitsCRT@D@ATL@@@@@ATL@@@Z 1000cc80 f   _DataUtilManager.obj
 0001:0000bcc0       ?Str2RGBColor@CDataUtilManager@@UAGKPAD@Z 1000ccc0 f   _DataUtilManager.obj
 0001:0000bd00       ?Str2Rect@CDataUtilManager@@UAG?AVCRect@@AAV?$CStringT@DV?$StrTraitMFC_DLL@DV?$ChTraitsCRT@D@ATL@@@@@ATL@@@Z 1000cd00 f   _DataUtilManager.obj
 0001:0000bd60       ?Str2Size@CDataUtilManager@@UAG?AVCSize@@AAV?$CStringT@DV?$StrTraitMFC_DLL@DV?$ChTraitsCRT@D@ATL@@@@@ATL@@@Z 1000cd60 f   _DataUtilManager.obj
 0001:0000bdc0       ?StrToStrComma@CDataUtilManager@@UAGXPBDAAV?$CStringT@DV?$StrTraitMFC_DLL@DV?$ChTraitsCRT@D@ATL@@@@@ATL@@@Z 1000cdc0 f   _DataUtilManager.obj
 0001:0000bee0       ?String2Olechar@CDataUtilManager@@UAGXPBDAA_WH@Z 1000cee0 f   _DataUtilManager.obj
 0001:0000bf00       ?TrimRight@CDataUtilManager@@UAGXPAD@Z 1000cf00 f   _DataUtilManager.obj
 0001:0000bf60       ?ValidNumber@CDataUtilManager@@UAGHPBD@Z 1000cf60 f   _DataUtilManager.obj
 0001:0000c0b0       ?chars_atof@CDataUtilManager@@UAGNPADI@Z 1000d0b0 f   _DataUtilManager.obj
 0001:0000c110       ?chars_atoi@CDataUtilManager@@UAGHPADI@Z 1000d110 f   _DataUtilManager.obj
 0001:0000c170       ??0CDebugManager@@QAE@XZ   1000d170 f   _DebugManager.obj
 0001:0000c180       ??1CDebugManager@@QAE@XZ   1000d180 f   _DebugManager.obj
 0001:0000c1e0       ?DoMessageToCompDataWnd@CDebugManager@@QAEHEEPBDKPAE@Z 1000d1e0 f   _DebugManager.obj
 0001:0000c1f0       ?DoMessageToDebugWnd@CDebugManager@@QAEXEEPBDKPAE@Z 1000d1f0 f   _DebugManager.obj
 0001:0000c200       ?GetDRDebuger@CDebugManager@@UAGJXZ 1000d200 f   _DebugManager.obj
 0001:0000c430       ?LoadLib@CDRDebugerLoader@@QAEPAUHINSTANCE__@@XZ 1000d430 f i _DebugManager.obj
 0001:0000c4d0       ?ShowOutputDebugString@CDebugManager@@UAAXPBDZZ 1000d4d0 f   _DebugManager.obj
 0001:0000c550       ?Trace@CDebugManager@@UAAXHPBDZZ 1000d550 f   _DebugManager.obj
 0001:0000c560       ?Trace@CDebugManager@@UAAXPBDZZ 1000d560 f   _DebugManager.obj
 0001:0000c620       ?TraceCompData@CDebugManager@@UAGHEPBDKPAE@Z 1000d620 f   _DebugManager.obj
 0001:0000c630       ?TraceEx@CDebugManager@@UAGXEEPBDKPAE@Z 1000d630 f   _DebugManager.obj
 0001:0000c640       ?TraceReal@CDebugManager@@UAGXPBDKPAE@Z 1000d640 f   _DebugManager.obj
 0001:0000c690       ?TraceSR@CDebugManager@@UAGXEEPBDPAUHWND__@@G@Z 1000d690 f   _DebugManager.obj
 0001:0000c6a0       ?TraceTran@CDebugManager@@UAGXEPBDKPAE@Z 1000d6a0 f   _DebugManager.obj
 0001:0000c720       ?WriteLogFile@CDebugManager@@UAGXPAXHPBDH1@Z 1000d720 f   _DebugManager.obj
 0001:0000c7a0       ??$SerializeElements@PAUIDrdsLib@@@@YGXAAVCArchive@@PAPAUIDrdsLib@@H@Z 1000d7a0 f i _DrdsManager.obj
 0001:0000c850       ??0?$CList@PAUIDrdsLib@@PAU1@@@QAE@H@Z 1000d850 f i _DrdsManager.obj
 0001:0000c890       ??0CAUDrdsManager@@QAE@XZ  1000d890 f   _DrdsManager.obj
 0001:0000c8e0       ??0CDrdsLib@@QAE@XZ        1000d8e0 f   _DrdsManager.obj
 0001:0000c900       ??1?$CList@PAUIDrdsLib@@PAU1@@@UAE@XZ 1000d900 f i _DrdsManager.obj
 0001:0000c970       ??1CAUDrdsManager@@QAE@XZ  1000d970 f   _DrdsManager.obj
 0001:0000c9f0       ??1CDrdsLib@@QAE@XZ        1000d9f0 f   _DrdsManager.obj
 0001:0000ca00       ??_G?$CList@PAUIDrdsLib@@PAU1@@@UAEPAXI@Z 1000da00 f i _DrdsManager.obj
 0001:0000ca00       ??_E?$CList@PAUIDrdsLib@@PAU1@@@UAEPAXI@Z 1000da00 f i _DrdsManager.obj
 0001:0000cab0       ?AddTail@?$CList@PAUIDrdsLib@@PAU1@@@QAEPAU__POSITION@@PAUIDrdsLib@@@Z 1000dab0 f i _DrdsManager.obj
 0001:0000cb40       ?AdviseDrdsLib@CAUDrdsManager@@UAGPAUIDrdsLib@@XZ 1000db40 f   _DrdsManager.obj
 0001:0000cb70       ?AdviseRealCodeData@CDrdsLib@@UAGHHHPAD0@Z 1000db70 f   _DrdsManager.obj
 0001:0000cb80       ?ConvertToRealStruct@CDrdsLib@@UAGHIJPADH@Z 1000db80 f   _DrdsManager.obj
 0001:0000cb90       ?DrdsAdvise@CDrdsLib@@UAGHIPAD00@Z 1000db90 f   _DrdsManager.obj
 0001:0000cc70       ?DrdsAdviseEx@CDrdsLib@@UAGHHPAUHWND__@@IPAD111@Z 1000dc70 f   _DrdsManager.obj
 0001:0000cc80       ?DrdsClose@CDrdsLib@@UAGHPAD@Z 1000dc80 f   _DrdsManager.obj
 0001:0000cc90       ?DrdsConnect@CDrdsLib@@UAGHPAD@Z 1000dc90 f   _DrdsManager.obj
 0001:0000cca0       ?DrdsInit@CDrdsLib@@UAGPAXPAUHWND__@@@Z 1000dca0 f   _DrdsManager.obj
 0001:0000ccc0       ?DrdsPropertySet@CDrdsLib@@UAGXXZ 1000dcc0 f   _DrdsManager.obj
 0001:0000ccd0       ?DrdsRequest@CDrdsLib@@UAGHPAXPAUHWND__@@IPAD22@Z 1000dcd0 f   _DrdsManager.obj
 0001:0000cce0       ?DrdsSendCode@CDrdsLib@@UAGXXZ 1000dce0 f   _DrdsManager.obj
 0001:0000ccf0       ?DrdsSetFlag@CDrdsLib@@UAGX_N@Z 1000dcf0 f   _DrdsManager.obj
 0001:0000cd00       ?DrdsSetSocketHandle@CDrdsLib@@UAGHPAUHWND__@@@Z 1000dd00 f   _DrdsManager.obj
 0001:0000cd10       ?DrdsTerm@CDrdsLib@@UAGHXZ 1000dd10 f   _DrdsManager.obj
 0001:0000cd20       ?DrdsTraceOff@CDrdsLib@@UAGXXZ 1000dd20 f   _DrdsManager.obj
 0001:0000cd30       ?DrdsTraceOn@CDrdsLib@@UAGXXZ 1000dd30 f   _DrdsManager.obj
 0001:0000cd40       ?DrdsUnadvise@CDrdsLib@@UAGHIPAD00@Z 1000dd40 f   _DrdsManager.obj
 0001:0000ce20       ?DrdsUnadviseEx@CDrdsLib@@UAGHHPAUHWND__@@IPAD111@Z 1000de20 f   _DrdsManager.obj
 0001:0000ce30       ?Drds_GetInterface@CDrdsLib@@UAGJI@Z 1000de30 f   _DrdsManager.obj
 0001:0000ce40       ?Drds_OpenSignalMng@CDrdsLib@@UAGHPADJ@Z 1000de40 f   _DrdsManager.obj
 0001:0000ce50       ?Drds_SetInterface@CDrdsLib@@UAGHIJ@Z 1000de50 f   _DrdsManager.obj
 0001:0000ce60       ?Drds_SignalMng_SetNewRealData@CDrdsLib@@UAGHPADHHH@Z 1000de60 f   _DrdsManager.obj
 0001:0000ce70       ?GetRealStructData@CDrdsLib@@UAGHIJAAPADAAH@Z 1000de70 f   _DrdsManager.obj
 0001:0000ce80       ?NewNode@?$CList@PAUIDrdsLib@@PAU1@@@IAEPAUCNode@1@PAU21@0@Z 1000de80 f i _DrdsManager.obj
 0001:0000cef0       ?RemoveAll@?$CList@PAUIDrdsLib@@PAU1@@@QAEXXZ 1000def0 f i _DrdsManager.obj
 0001:0000cf20       ?Serialize@?$CList@PAUIDrdsLib@@PAU1@@@UAEXAAVCArchive@@@Z 1000df20 f i _DrdsManager.obj
 0001:0000d130       ?SetNewRealData@CDrdsLib@@UAGHPADHHH@Z 1000e130 f   _DrdsManager.obj
 0001:0000d140       ?SetUserDefData@CDrdsLib@@UAGHPAD0@Z 1000e140 f   _DrdsManager.obj
 0001:0000d150       ?UDPCreate2@CDrdsLib@@UAGXPAD0@Z 1000e150 f   _DrdsManager.obj
 0001:0000d160       ?UDPCreate@CDrdsLib@@UAGXXZ 1000e160 f   _DrdsManager.obj
 0001:0000d170       ?UDPDestroy@CDrdsLib@@UAGXXZ 1000e170 f   _DrdsManager.obj
 0001:0000d180       ?UdpCreate3@CDrdsLib@@UAGXPAD@Z 1000e180 f   _DrdsManager.obj
 0001:0000d190       ?UnadviseDrdsLib@CAUDrdsManager@@UAGXPAUIDrdsLib@@@Z 1000e190 f   _DrdsManager.obj
 0001:0000d1b0       ?GetInterface@CGateManager@@UAGJHJ@Z 1000e1b0 f   _GateManager.obj
 0001:0000d390       ??$SerializeElements@PAUST_FOR_UserData@@@@YGXAAVCArchive@@PAPAUST_FOR_UserData@@H@Z 1000e390 f i _MainExInfoManager.obj
 0001:0000d440       ??$SerializeElements@UTR_CODEINFOEX@@@@YGXAAVCArchive@@PAUTR_CODEINFOEX@@H@Z 1000e440 f i _MainExInfoManager.obj
 0001:0000d4e0       ??0?$CList@PAUST_FOR_UserData@@PAU1@@@QAE@H@Z 1000e4e0 f i _MainExInfoManager.obj
 0001:0000d520       ??0?$CList@UTR_CODEINFOEX@@U1@@@QAE@H@Z 1000e520 f i _MainExInfoManager.obj
 0001:0000d560       ??0CMainExInfoManager@@QAE@XZ 1000e560 f   _MainExInfoManager.obj
 0001:0000d6f0       ??1?$CList@PAUST_FOR_UserData@@PAU1@@@UAE@XZ 1000e6f0 f i _MainExInfoManager.obj
 0001:0000d760       ??1?$CList@UTR_CODEINFOEX@@U1@@@UAE@XZ 1000e760 f i _MainExInfoManager.obj
 0001:0000d7d0       ??1CCriticalSection@@UAE@XZ 1000e7d0 f i _MainExInfoManager.obj
 0001:0000d7f0       ??1CMainExInfoManager@@QAE@XZ 1000e7f0 f   _MainExInfoManager.obj
 0001:0000d8e0       ??_G?$CList@PAUST_FOR_UserData@@PAU1@@@UAEPAXI@Z 1000e8e0 f i _MainExInfoManager.obj
 0001:0000d8e0       ??_E?$CList@PAUST_FOR_UserData@@PAU1@@@UAEPAXI@Z 1000e8e0 f i _MainExInfoManager.obj
 0001:0000d990       ??_G?$CList@UTR_CODEINFOEX@@U1@@@UAEPAXI@Z 1000e990 f i _MainExInfoManager.obj
 0001:0000d990       ??_E?$CList@UTR_CODEINFOEX@@U1@@@UAEPAXI@Z 1000e990 f i _MainExInfoManager.obj
 0001:0000da40       ??_GCCriticalSection@@UAEPAXI@Z 1000ea40 f i _MainExInfoManager.obj
 0001:0000da40       ??_ECCriticalSection@@UAEPAXI@Z 1000ea40 f i _MainExInfoManager.obj
 0001:0000da90       ?AddTail@?$CList@PAUST_FOR_UserData@@PAU1@@@QAEPAU__POSITION@@PAUST_FOR_UserData@@@Z 1000ea90 f i _MainExInfoManager.obj
 0001:0000db20       ?AddTail@?$CList@UTR_CODEINFOEX@@U1@@@QAEPAU__POSITION@@UTR_CODEINFOEX@@@Z 1000eb20 f i _MainExInfoManager.obj
 0001:0000dbd0       ?AtlThrowImpl@ATL@@YGXJ@Z  1000ebd0 f i _MainExInfoManager.obj
 0001:0000dbf0       ?CheckAutoDelete@CMainExInfoManager@@QAEXXZ 1000ebf0 f   _MainExInfoManager.obj
 0001:0000dc80       ?DeleteData@CMainExInfoManager@@QAEXH@Z 1000ec80 f   _MainExInfoManager.obj
 0001:0000dcd0       ?DeleteImsiGroup@CMainExInfoManager@@QAEXJ@Z 1000ecd0 f   _MainExInfoManager.obj
 0001:0000dd20       ?DeleteUserExData@CMainExInfoManager@@UAGHJ@Z 1000ed20 f   _MainExInfoManager.obj
 0001:0000dd40       ?FreeNode@?$CList@PAUST_FOR_UserData@@PAU1@@@IAEXPAUCNode@1@@Z 1000ed40 f i _MainExInfoManager.obj
 0001:0000dd90       ?GetData@CMainExInfoManager@@UAGPAVCOleVariant@@H@Z 1000ed90 f   _MainExInfoManager.obj
 0001:0000ddc0       ?GetData@CMainExInfoManager@@UAGPAVCOleVariant@@PBD@Z 1000edc0 f   _MainExInfoManager.obj
 0001:0000dde0       ?GetUserData@CMainExInfoManager@@UAGPAU__POSITION@@PBDPAPAEAAH@Z 1000ede0 f   _MainExInfoManager.obj
 0001:0000dfc0       ?GetUserExData@CMainExInfoManager@@UAGJJ@Z 1000efc0 f   _MainExInfoManager.obj
 0001:0000dfe0       ?GetUserStringData@CMainExInfoManager@@UAGHPBDAAV?$CStringT@DV?$StrTraitMFC_DLL@DV?$ChTraitsCRT@D@ATL@@@@@ATL@@@Z 1000efe0 f   _MainExInfoManager.obj
 0001:0000e000       ?IsGetUserExData@CMainExInfoManager@@UAGHJ@Z 1000f000 f   _MainExInfoManager.obj
 0001:0000e020       ?Lock@CCriticalSection@@UAEHK@Z 1000f020 f i _MainExInfoManager.obj
 0001:0000e040       ?NewNode@?$CList@PAUST_FOR_UserData@@PAU1@@@IAEPAUCNode@1@PAU21@0@Z 1000f040 f i _MainExInfoManager.obj
 0001:0000e0b0       ?NewNode@?$CList@UTR_CODEINFOEX@@U1@@@IAEPAUCNode@1@PAU21@0@Z 1000f0b0 f i _MainExInfoManager.obj
 0001:0000e120       ?PreUnLoad@CMainExInfoManager@@QAEXXZ 1000f120 f   _MainExInfoManager.obj
 0001:0000e130       ?RemoveAll@?$CList@PAUST_FOR_UserData@@PAU1@@@QAEXXZ 1000f130 f i _MainExInfoManager.obj
 0001:0000e160       ?RemoveAll@?$CList@UTR_CODEINFOEX@@U1@@@QAEXXZ 1000f160 f i _MainExInfoManager.obj
 0001:0000e190       ?RemoveAt@?$CList@PAUST_FOR_UserData@@PAU1@@@QAEXPAU__POSITION@@@Z 1000f190 f i _MainExInfoManager.obj
 0001:0000e200       ?SaveImgiGroup@CMainExInfoManager@@QAEPAXJ@Z 1000f200 f   _MainExInfoManager.obj
 0001:0000e2a0       ?Serialize@?$CList@PAUST_FOR_UserData@@PAU1@@@UAEXAAVCArchive@@@Z 1000f2a0 f i _MainExInfoManager.obj
 0001:0000e430       ?Serialize@?$CList@UTR_CODEINFOEX@@U1@@@UAEXAAVCArchive@@@Z 1000f430 f i _MainExInfoManager.obj
 0001:0000e5f0       ?SetData@CMainExInfoManager@@UAGHHPBVCOleVariant@@@Z 1000f5f0 f   _MainExInfoManager.obj
 0001:0000e770       ?SetData@CMainExInfoManager@@UAGHPBDPBVCOleVariant@@@Z 1000f770 f   _MainExInfoManager.obj
 0001:0000e7b0       ?SetUserData@CMainExInfoManager@@UAGHPBDJH@Z 1000f7b0 f   _MainExInfoManager.obj
 0001:0000e9d0       ?SetUserExData@CMainExInfoManager@@UAGHJJ@Z 1000f9d0 f   _MainExInfoManager.obj
 0001:0000e9f0       ?SetUserStringData@CMainExInfoManager@@UAGHPBDPAD@Z 1000f9f0 f   _MainExInfoManager.obj
 0001:0000ea20       ?Unlock@CCriticalSection@@UAEHXZ 1000fa20 f i _MainExInfoManager.obj
 0001:0000ea30       ?Unlock@CSyncObject@@UAEHJPAJ@Z 1000fa30 f i _MainExInfoManager.obj
 0001:0000ea40       ?_DoGetUserData@CMainExInfoManager@@QAE_NPBDPAPAEAAH@Z 1000fa40 f   _MainExInfoManager.obj
 0001:0000eba0       ?_DoSaveUserData@CMainExInfoManager@@QAE_NPBDPAEH@Z 1000fba0 f   _MainExInfoManager.obj
 0001:0000ec60       ?fnClearAll@CMainExInfoManager@@QAEXXZ 1000fc60 f   _MainExInfoManager.obj
 0001:0000ee10       ??0CMainInfoManager@@QAE@XZ 1000fe10 f   _MainInfoManager.obj
 0001:0000ee90       ??1CMainInfoManager@@QAE@XZ 1000fe90 f   _MainInfoManager.obj
 0001:0000ef10       ?FreeEnvironmentStringsA@CMainInfoManager@@UAGHPAD@Z 1000ff10 f   _MainInfoManager.obj
 0001:0000ef30       ?GetAccountName@CMainInfoManager@@UAG?AV?$CStringT@DV?$StrTraitMFC_DLL@DV?$ChTraitsCRT@D@ATL@@@@@ATL@@PAD@Z 1000ff30 f   _MainInfoManager.obj
 0001:0000ef70       ?GetAccountPass@CMainInfoManager@@UAG?AV?$CStringT@DV?$StrTraitMFC_DLL@DV?$ChTraitsCRT@D@ATL@@@@@ATL@@PAD@Z 1000ff70 f   _MainInfoManager.obj
 0001:0000efb0       ?GetCountOfAccount@CMainInfoManager@@UAGHXZ 1000ffb0 f   _MainInfoManager.obj
 0001:0000efc0       ?GetDataDir@CMainInfoManager@@UAGPBDXZ 1000ffc0 f   _MainInfoManager.obj
 0001:0000efe0       ?GetDataString@CMainInfoManager@@UAGPBDH@Z 1000ffe0 f   _MainInfoManager.obj
 0001:0000f010       ?GetEncUserDir@CMainInfoManager@@UAGPBDPBD@Z 10010010 f   _MainInfoManager.obj
 0001:0000f0b0       ?GetEncUserID@CMainInfoManager@@UAGPBDXZ 100100b0 f   _MainInfoManager.obj
 0001:0000f0c0       ?GetEnvironmentStrings@CMainInfoManager@@UAGKAAVCStringList@@@Z 100100c0 f   _MainInfoManager.obj
 0001:0000f140       ?GetEnvironmentVariableA@CMainInfoManager@@UAGKPBDAAV?$CStringT@DV?$StrTraitMFC_DLL@DV?$ChTraitsCRT@D@ATL@@@@@ATL@@@Z 10010140 f   _MainInfoManager.obj
 0001:0000f170       ?GetHtsMode@CMainInfoManager@@UAGHXZ 10010170 f   _MainInfoManager.obj
 0001:0000f1f0       ?GetLoginInfo@CMainInfoManager@@UAG?AV?$CStringT@DV?$StrTraitMFC_DLL@DV?$ChTraitsCRT@D@ATL@@@@@ATL@@PBD@Z 100101f0 f   _MainInfoManager.obj
 0001:0000f220       ?GetLoginPass@CMainInfoManager@@UAG?AV?$CStringT@DV?$StrTraitMFC_DLL@DV?$ChTraitsCRT@D@ATL@@@@@ATL@@XZ 10010220 f   _MainInfoManager.obj
 0001:0000f260       ?GetRootDir@CMainInfoManager@@UAGPBDXZ 10010260 f   _MainInfoManager.obj
 0001:0000f280       ?GetUserAccount@CMainInfoManager@@UAGHAAVCStringArray@@@Z 10010280 f   _MainInfoManager.obj
 0001:0000f3d0       ?GetUserID@CMainInfoManager@@UAGPBDXZ 100103d0 f   _MainInfoManager.obj
 0001:0000f4e0       ?HashDataAXIS@CMainInfoManager@@QAGIPBD@Z 100104e0 f   _MainInfoManager.obj
 0001:0000f510       ?IniToEnvironmentTable@CMainInfoManager@@UAGHPBD0@Z 10010510 f   _MainInfoManager.obj
 0001:0000f5f0       ?SetDataString@CMainInfoManager@@UAGHHPBD@Z 100105f0 f   _MainInfoManager.obj
 0001:0000f630       ?SetEnvironmentVariableA@CMainInfoManager@@UAGHPBD0@Z 10010630 f   _MainInfoManager.obj
 0001:0000f6b0       ??$CompareElements@V?$CStringT@DV?$StrTraitMFC_DLL@DV?$ChTraitsCRT@D@ATL@@@@@ATL@@PBD@@YGHPBV?$CStringT@DV?$StrTraitMFC_DLL@DV?$ChTraitsCRT@D@ATL@@@@@ATL@@PBQBD@Z 100106b0 f i _MasterDataManager.obj
 0001:0000f6e0       ??$SerializeElements@H@@YGXAAVCArchive@@PAHH@Z 100106e0 f i _MasterDataManager.obj
 0001:0000f790       ??$SerializeElements@PAUST_STRINGBYTE@@@@YGXAAVCArchive@@PAPAUST_STRINGBYTE@@H@Z 10010790 f i _MasterDataManager.obj
 0001:0000f840       ??$SerializeElements@PAUST_STRINGSTRING@@@@YGXAAVCArchive@@PAPAUST_STRINGSTRING@@H@Z 10010840 f i _MasterDataManager.obj
 0001:0000f8f0       ??$SerializeElements@PAVCMDM_SubItemA@@@@YGXAAVCArchive@@PAPAVCMDM_SubItemA@@H@Z 100108f0 f i _MasterDataManager.obj
 0001:0000f9a0       ??0?$CList@PAUST_STRINGBYTE@@PAU1@@@QAE@H@Z 100109a0 f i _MasterDataManager.obj
 0001:0000f9e0       ??0?$CList@PAUST_STRINGSTRING@@PAU1@@@QAE@H@Z 100109e0 f i _MasterDataManager.obj
 0001:0000fa20       ??0?$CList@PAVCMDM_SubItemA@@PAV1@@@QAE@H@Z 10010a20 f i _MasterDataManager.obj
 0001:0000fa60       ??0?$CMap@V?$CStringT@DV?$StrTraitMFC_DLL@DV?$ChTraitsCRT@D@ATL@@@@@ATL@@PBDHH@@QAE@H@Z 10010a60 f i _MasterDataManager.obj
 0001:0000faa0       ??0CMasterDataManager@@QAE@XZ 10010aa0 f   _MasterDataManager.obj
 0001:0000fc10       ??1?$CList@PAUST_STRINGBYTE@@PAU1@@@UAE@XZ 10010c10 f i _MasterDataManager.obj
 0001:0000fc80       ??1?$CList@PAUST_STRINGSTRING@@PAU1@@@UAE@XZ 10010c80 f i _MasterDataManager.obj
 0001:0000fcf0       ??1?$CList@PAVCMDM_SubItemA@@PAV1@@@UAE@XZ 10010cf0 f i _MasterDataManager.obj
 0001:0000fd60       ??1?$CMap@V?$CStringT@DV?$StrTraitMFC_DLL@DV?$ChTraitsCRT@D@ATL@@@@@ATL@@PBDHH@@UAE@XZ 10010d60 f i _MasterDataManager.obj
 0001:0000fe10       ??1CMasterDataManager@@QAE@XZ 10010e10 f   _MasterDataManager.obj
 0001:0000ffc0       ??8ATL@@YA_NABV?$CStringT@DV?$StrTraitMFC_DLL@DV?$ChTraitsCRT@D@ATL@@@@@0@D@Z 10010fc0 f i _MasterDataManager.obj
 0001:0000fff0       ??A?$CMap@V?$CStringT@DV?$StrTraitMFC_DLL@DV?$ChTraitsCRT@D@ATL@@@@@ATL@@PBDHH@@QAEAAHPBD@Z 10010ff0 f i _MasterDataManager.obj
 0001:00010100       ??_E?$CList@PAUST_STRINGBYTE@@PAU1@@@UAEPAXI@Z 10011100 f i _MasterDataManager.obj
 0001:00010100       ??_G?$CList@PAUST_STRINGBYTE@@PAU1@@@UAEPAXI@Z 10011100 f i _MasterDataManager.obj
 0001:000101b0       ??_E?$CList@PAUST_STRINGSTRING@@PAU1@@@UAEPAXI@Z 100111b0 f i _MasterDataManager.obj
 0001:000101b0       ??_G?$CList@PAUST_STRINGSTRING@@PAU1@@@UAEPAXI@Z 100111b0 f i _MasterDataManager.obj
 0001:00010260       ??_G?$CList@PAVCMDM_SubItemA@@PAV1@@@UAEPAXI@Z 10011260 f i _MasterDataManager.obj
 0001:00010260       ??_E?$CList@PAVCMDM_SubItemA@@PAV1@@@UAEPAXI@Z 10011260 f i _MasterDataManager.obj
 0001:00010310       ??_E?$CMap@V?$CStringT@DV?$StrTraitMFC_DLL@DV?$ChTraitsCRT@D@ATL@@@@@ATL@@PBDHH@@UAEPAXI@Z 10011310 f i _MasterDataManager.obj
 0001:00010310       ??_G?$CMap@V?$CStringT@DV?$StrTraitMFC_DLL@DV?$ChTraitsCRT@D@ATL@@@@@ATL@@PBDHH@@UAEPAXI@Z 10011310 f i _MasterDataManager.obj
 0001:00010350       ?AddHead@?$CList@PAUST_STRINGBYTE@@PAU1@@@QAEPAU__POSITION@@PAUST_STRINGBYTE@@@Z 10011350 f i _MasterDataManager.obj
 0001:00010390       ?AddHead@?$CList@PAUST_STRINGSTRING@@PAU1@@@QAEPAU__POSITION@@PAUST_STRINGSTRING@@@Z 10011390 f i _MasterDataManager.obj
 0001:000103d0       ?AddTail@?$CList@PAUST_STRINGBYTE@@PAU1@@@QAEPAU__POSITION@@PAUST_STRINGBYTE@@@Z 100113d0 f i _MasterDataManager.obj
 0001:00010410       ?AddTail@?$CList@PAUST_STRINGSTRING@@PAU1@@@QAEPAU__POSITION@@PAUST_STRINGSTRING@@@Z 10011410 f i _MasterDataManager.obj
 0001:00010450       ?AddTail@?$CList@PAVCMDM_SubItemA@@PAV1@@@QAEPAU__POSITION@@PAVCMDM_SubItemA@@@Z 10011450 f i _MasterDataManager.obj
 0001:000104e0       ?ClearListSTRINGBYTE@CMasterDataManager@@IAEXPAV?$CList@PAUST_STRINGBYTE@@PAU1@@@@Z 100114e0 f   _MasterDataManager.obj
 0001:00010550       ?ClearListSTRINGSTRING@CMasterDataManager@@IAEXPAV?$CList@PAUST_STRINGSTRING@@PAU1@@@@Z 10011550 f   _MasterDataManager.obj
 0001:000105c0       ?FreeNode@?$CList@PAUST_STRINGBYTE@@PAU1@@@IAEXPAUCNode@1@@Z 100115c0 f i _MasterDataManager.obj
 0001:00010610       ?FreeNode@?$CList@PAUST_STRINGSTRING@@PAU1@@@IAEXPAUCNode@1@@Z 10011610 f i _MasterDataManager.obj
 0001:00010660       ?GetAllStock@CMasterDataManager@@UAGHAAVCStringArray@@0@Z 10011660 f   _MasterDataManager.obj
 0001:00010740       ?GetAssocAt@?$CMap@V?$CStringT@DV?$StrTraitMFC_DLL@DV?$ChTraitsCRT@D@ATL@@@@@ATL@@PBDHH@@IBEPAVCAssoc@1@PBDAAI1@Z 10011740 f i _MasterDataManager.obj
 0001:000107a0       ?GetBaseCodeTable@CMasterDataManager@@UAGJXZ 100117a0 f   _MasterDataManager.obj
 0001:000107b0       ?GetCodeInfo@CMasterDataManager@@UAG?AV?$CStringT@DV?$StrTraitMFC_DLL@DV?$ChTraitsCRT@D@ATL@@@@@ATL@@PBDF0@Z 100117b0 f   _MasterDataManager.obj
 0001:00010860       ?GetCodeMasterHWND@CMasterDataManager@@QAEPAUHWND__@@XZ 10011860 f   _MasterDataManager.obj
 0001:000108a0       ?GetCodeName@CMasterDataManager@@UAG?AV?$CStringT@DV?$StrTraitMFC_DLL@DV?$ChTraitsCRT@D@ATL@@@@@ATL@@PBD@Z 100118a0 f   _MasterDataManager.obj
 0001:00010c00       ?GetCodePointer@CMasterDataManager@@UAGJPBD@Z 10011c00 f   _MasterDataManager.obj
 0001:00010c10       ?GetCodeTypeFromCode@CMasterDataManager@@UAGEPBD@Z 10011c10 f   _MasterDataManager.obj
 0001:000111d0       ?GetELWIndexCode@CMasterDataManager@@UAGHV?$CStringT@DV?$StrTraitMFC_DLL@DV?$ChTraitsCRT@D@ATL@@@@@ATL@@AAV23@1@Z 100121d0 f   _MasterDataManager.obj
 0001:00011200       ?GetELWIndexMaster@CMasterDataManager@@UAGHAAVCStringArray@@0@Z 10012200 f   _MasterDataManager.obj
 0001:000112e0       ?GetELWIssueMaster@CMasterDataManager@@UAGHAAVCStringArray@@0@Z 100122e0 f   _MasterDataManager.obj
 0001:000113c0       ?GetELWMst@CMasterDataManager@@UAGHAAPAVCStringArray@@0@Z 100123c0 f   _MasterDataManager.obj
 0001:000113d0       ?GetETNMst@CMasterDataManager@@UAGHAAPAVCStringArray@@00H@Z 100123d0 f   _MasterDataManager.obj
 0001:000114b0       ?GetFREEUpMst@CMasterDataManager@@UAGHAAPAVCStringArray@@00H@Z 100124b0 f   _MasterDataManager.obj
 0001:000115a0       ?GetFRMst@CMasterDataManager@@UAGHAAPAVCStringArray@@0@Z 100125a0 f   _MasterDataManager.obj
 0001:000115b0       ?GetFRNationMst@CMasterDataManager@@UAGHAAPAVCStringArray@@0@Z 100125b0 f   _MasterDataManager.obj
 0001:000115c0       ?GetFXMst@CMasterDataManager@@UAGHAAPAVCStringArray@@0@Z 100125c0 f   _MasterDataManager.obj
 0001:000116a0       ?GetForeignMst@CMasterDataManager@@UAGHHV?$CStringT@DV?$StrTraitMFC_DLL@DV?$ChTraitsCRT@D@ATL@@@@@ATL@@AAPAVCStringArray@@11@Z 100126a0 f   _MasterDataManager.obj
 0001:000117c0       ?GetFutureJongMst@CMasterDataManager@@UAGHAAPAVCStringArray@@00@Z 100127c0 f   _MasterDataManager.obj
 0001:000118c0       ?GetGlobalDataTypeList@CMasterDataManager@@UAGJXZ 100128c0 f   _MasterDataManager.obj
 0001:000118d0       ?GetGroupMst@CMasterDataManager@@UAGHAAPAVCStringArray@@0H@Z 100128d0 f   _MasterDataManager.obj
 0001:000119b0       ?GetHWND@CMasterDataManager@@QAEPAUHWND__@@XZ 100129b0 f   _MasterDataManager.obj
 0001:000119e0       ?GetHistoryList@CMasterDataManager@@UAG?AV?$CStringT@DV?$StrTraitMFC_DLL@DV?$ChTraitsCRT@D@ATL@@@@@ATL@@FJ@Z 100129e0 f   _MasterDataManager.obj
 0001:00011a00       ?GetItemExpCode@CMasterDataManager@@UAG?AV?$CStringT@DV?$StrTraitMFC_DLL@DV?$ChTraitsCRT@D@ATL@@@@@ATL@@PBD@Z 10012a00 f   _MasterDataManager.obj
 0001:00011a20       ?GetJFMaster@CMasterDataManager@@UAGHAAVCStringArray@@0@Z 10012a20 f   _MasterDataManager.obj
 0001:00011b00       ?GetJPMaster@CMasterDataManager@@UAGHAAVCStringArray@@0@Z 10012b00 f   _MasterDataManager.obj
 0001:00011be0       ?GetK100UpMst@CMasterDataManager@@UAGHAAPAVCStringArray@@00@Z 10012be0 f   _MasterDataManager.obj
 0001:00011cc0       ?GetK200UpMst@CMasterDataManager@@UAGHAAPAVCStringArray@@00@Z 10012cc0 f   _MasterDataManager.obj
 0001:00011da0       ?GetKNXUpMst@CMasterDataManager@@UAGHAAPAVCStringArray@@00H@Z 10012da0 f   _MasterDataManager.obj
 0001:00011e90       ?GetKRXUpMst@CMasterDataManager@@UAGHAAPAVCStringArray@@00H@Z 10012e90 f   _MasterDataManager.obj
 0001:00011f80       ?GetKSPUpMst@CMasterDataManager@@UAGHAAPAVCStringArray@@00H@Z 10012f80 f   _MasterDataManager.obj
 0001:00012070       ?GetKSQUpMst@CMasterDataManager@@UAGHAAPAVCStringArray@@00H@Z 10013070 f   _MasterDataManager.obj
 0001:00012160       ?GetKSTRUpMst@CMasterDataManager@@UAGHAAPAVCStringArray@@00@Z 10013160 f   _MasterDataManager.obj
 0001:00012240       ?GetLastCode@CMasterDataManager@@UAG?AV?$CStringT@DV?$StrTraitMFC_DLL@DV?$ChTraitsCRT@D@ATL@@@@@ATL@@V23@@Z 10013240 f   _MasterDataManager.obj
 0001:00012290       ?GetMarketTypeFromCode@CMasterDataManager@@UAGEPBD@Z 10013290 f   _MasterDataManager.obj
 0001:00012850       ?GetMasterDataInUpDetails@CMasterDataManager@@UAGHV?$CStringT@DV?$StrTraitMFC_DLL@DV?$ChTraitsCRT@D@ATL@@@@@ATL@@AAVCStringArray@@10@Z 10013850 f   _MasterDataManager.obj
 0001:00013050       ?GetMaxHangSaGa@CMasterDataManager@@UAG?AV?$CStringT@DV?$StrTraitMFC_DLL@DV?$ChTraitsCRT@D@ATL@@@@@ATL@@XZ 10014050 f   _MasterDataManager.obj
 0001:00013070       ?GetMiniFutureJongMst@CMasterDataManager@@UAGHAAPAVCStringArray@@00@Z 10014070 f   _MasterDataManager.obj
 0001:00013170       ?GetMiniOptionJongMst@CMasterDataManager@@UAGHAAPAVCStringArray@@0@Z 10014170 f   _MasterDataManager.obj
 0001:000131b0       ?GetOptionJongMst@CMasterDataManager@@UAGHAAPAVCStringArray@@00000@Z 100141b0 f   _MasterDataManager.obj
 0001:00013200       ?GetRecentCode@CMasterDataManager@@UAGHV?$CStringT@DV?$StrTraitMFC_DLL@DV?$ChTraitsCRT@D@ATL@@@@@ATL@@AAV23@H@Z 10014200 f   _MasterDataManager.obj
 0001:00013370       ?GetRecentCodeNameArray@CMasterDataManager@@UAGHHAAVCStringArray@@0@Z 10014370 f   _MasterDataManager.obj
 0001:00013650       ?GetSFutureMst@CMasterDataManager@@UAGHAAPAVCStringArray@@00H@Z 10014650 f   _MasterDataManager.obj
 0001:00013660       ?GetSiteUpKode@CMasterDataManager@@UAGHPBDAAV?$CStringT@DV?$StrTraitMFC_DLL@DV?$ChTraitsCRT@D@ATL@@@@@ATL@@@Z 10014660 f   _MasterDataManager.obj
 0001:000137d0       ?GetStockCodeWithType@CMasterDataManager@@UAGHHAAVCStringArray@@0@Z 100147d0 f   _MasterDataManager.obj
 0001:00013840       ?GetStockDetailInfo@CMasterDataManager@@UAG?AV?$CStringT@DV?$StrTraitMFC_DLL@DV?$ChTraitsCRT@D@ATL@@@@@ATL@@V23@H@Z 10014840 f   _MasterDataManager.obj
 0001:00013870       ?GetThemeGroup@CMasterDataManager@@UAGHAAVCStringArray@@0@Z 10014870 f   _MasterDataManager.obj
 0001:000138d0       ?GetThemeItemList@CMasterDataManager@@UAGHPBDAAVCStringArray@@1@Z 100148d0 f   _MasterDataManager.obj
 0001:00013910       ?GetVFutureMst@CMasterDataManager@@UAGHAAPAVCStringArray@@00H@Z 10014910 f   _MasterDataManager.obj
 0001:000139f0       ?GetWPMaster@CMasterDataManager@@UAGHAAVCStringArray@@0@Z 100149f0 f   _MasterDataManager.obj
 0001:00013ad0       ?GetWeeklyOptionJongMst@CMasterDataManager@@UAGHAAPAVCStringArray@@0@Z 10014ad0 f   _MasterDataManager.obj
 0001:00013b10       ?InitData@CMasterDataManager@@UAGHPBD@Z 10014b10 f   _MasterDataManager.obj
 0001:00013b20       ?InitHashTable@?$CMap@V?$CStringT@DV?$StrTraitMFC_DLL@DV?$ChTraitsCRT@D@ATL@@@@@ATL@@PBDHH@@QAEXIH@Z 10014b20 f i _MasterDataManager.obj
 0001:00013b90       ?InsertHistory@CMasterDataManager@@UAGHFJPBD0@Z 10014b90 f   _MasterDataManager.obj
 0001:00013ba0       ?Lookup@?$CMap@V?$CStringT@DV?$StrTraitMFC_DLL@DV?$ChTraitsCRT@D@ATL@@@@@ATL@@PBDHH@@QBEHPBDAAH@Z 10014ba0 f i _MasterDataManager.obj
 0001:00013be0       ?NewAssoc@?$CMap@V?$CStringT@DV?$StrTraitMFC_DLL@DV?$ChTraitsCRT@D@ATL@@@@@ATL@@PBDHH@@IAEPAVCAssoc@1@PBD@Z 10014be0 f i _MasterDataManager.obj
 0001:00013c60       ?NewNode@?$CList@PAUST_STRINGBYTE@@PAU1@@@IAEPAUCNode@1@PAU21@0@Z 10014c60 f i _MasterDataManager.obj
 0001:00013cd0       ?NewNode@?$CList@PAUST_STRINGSTRING@@PAU1@@@IAEPAUCNode@1@PAU21@0@Z 10014cd0 f i _MasterDataManager.obj
 0001:00013d40       ?NewNode@?$CList@PAVCMDM_SubItemA@@PAV1@@@IAEPAUCNode@1@PAU21@0@Z 10014d40 f i _MasterDataManager.obj
 0001:00013db0       ?RemoveAll@?$CList@PAUST_STRINGBYTE@@PAU1@@@QAEXXZ 10014db0 f i _MasterDataManager.obj
 0001:00013de0       ?RemoveAll@?$CList@PAUST_STRINGSTRING@@PAU1@@@QAEXXZ 10014de0 f i _MasterDataManager.obj
 0001:00013e10       ?RemoveAll@?$CList@PAVCMDM_SubItemA@@PAV1@@@QAEXXZ 10014e10 f i _MasterDataManager.obj
 0001:00013e40       ?RemoveAll@?$CMap@V?$CStringT@DV?$StrTraitMFC_DLL@DV?$ChTraitsCRT@D@ATL@@@@@ATL@@PBDHH@@QAEXXZ 10014e40 f i _MasterDataManager.obj
 0001:00013eb0       ?RemoveAllListData@CMasterDataManager@@UAGHXZ 10014eb0 f   _MasterDataManager.obj
 0001:00013ec0       ?RemoveAt@?$CList@PAUST_STRINGBYTE@@PAU1@@@QAEXPAU__POSITION@@@Z 10014ec0 f i _MasterDataManager.obj
 0001:00013f30       ?RemoveAt@?$CList@PAUST_STRINGSTRING@@PAU1@@@QAEXPAU__POSITION@@@Z 10014f30 f i _MasterDataManager.obj
 0001:00013fa0       ?Serialize@?$CList@PAUST_STRINGBYTE@@PAU1@@@UAEXAAVCArchive@@@Z 10014fa0 f i _MasterDataManager.obj
 0001:000141b0       ?Serialize@?$CList@PAUST_STRINGSTRING@@PAU1@@@UAEXAAVCArchive@@@Z 100151b0 f i _MasterDataManager.obj
 0001:000143c0       ?Serialize@?$CList@PAVCMDM_SubItemA@@PAV1@@@UAEXAAVCArchive@@@Z 100153c0 f i _MasterDataManager.obj
 0001:000145d0       ?Serialize@?$CMap@V?$CStringT@DV?$StrTraitMFC_DLL@DV?$ChTraitsCRT@D@ATL@@@@@ATL@@PBDHH@@UAEXAAVCArchive@@@Z 100155d0 f i _MasterDataManager.obj
 0001:00014990       ?SetAt@?$CMap@V?$CStringT@DV?$StrTraitMFC_DLL@DV?$ChTraitsCRT@D@ATL@@@@@ATL@@PBDHH@@QAEXPBDH@Z 10015990 f i _MasterDataManager.obj
 0001:00014aa0       ?SetDataString@CMasterDataManager@@UAGXFPBD@Z 10015aa0 f   _MasterDataManager.obj
 0001:00014ab0       ?SetInfo@CMasterDataManager@@UAGXJ@Z 10015ab0 f   _MasterDataManager.obj
 0001:00014ac0       ?SetKeyData@CMasterDataManager@@UAGXPBD0@Z 10015ac0 f   _MasterDataManager.obj
 0001:00014ad0       ?SetKeyData@CMasterDataManager@@UAGXPBDJ@Z 10015ad0 f   _MasterDataManager.obj
 0001:00014ae0       ?SetPosition@CMasterDataManager@@UAGXPBDFF@Z 10015ae0 f   _MasterDataManager.obj
 0001:00014af0       ?ShowCodeTable@CMasterDataManager@@UAGJPBDABUtagVARIANT@@@Z 10015af0 f   _MasterDataManager.obj
 0001:00014b00       ?ShowCodeTableWithPosition@CMasterDataManager@@UAGJPBDABUtagVARIANT@@FF@Z 10015b00 f   _MasterDataManager.obj
 0001:00014b10       ?ShowModeCodeTable@CMasterDataManager@@UAGJPBDABUtagVARIANT@@@Z 10015b10 f   _MasterDataManager.obj
 0001:00014b20       ?_DoAddChkCodeSB@CMasterDataManager@@IAEXPAV?$CList@PAUST_STRINGBYTE@@PAU1@@@HPBDE@Z 10015b20 f   _MasterDataManager.obj
 0001:00014c00       ?_DoAddChkCodeSS@CMasterDataManager@@IAEXPAV?$CList@PAUST_STRINGSTRING@@PAU1@@@HPBD1@Z 10015c00 f   _MasterDataManager.obj
 0001:00014d10       ?_DoClearList@CMasterDataManager@@IAEXXZ 10015d10 f   _MasterDataManager.obj
 0001:00014d90       ?_DoGetOldFutureMaster@CMasterDataManager@@IAEHAAVCStringArray@@0@Z 10015d90 f   _MasterDataManager.obj
 0001:00014e50       ?_DoParsingCode2@CMasterDataManager@@IAEXAAV?$CStringT@DV?$StrTraitMFC_DLL@DV?$ChTraitsCRT@D@ATL@@@@@ATL@@AAVCStringArray@@1@Z 10015e50 f   _MasterDataManager.obj
 0001:00014fe0       ?_DoParsingCode@CMasterDataManager@@IAEXAAV?$CStringT@DV?$StrTraitMFC_DLL@DV?$ChTraitsCRT@D@ATL@@@@@ATL@@AAVCStringArray@@1_NH@Z 10015fe0 f   _MasterDataManager.obj
 0001:00015200       ?_DoParsingCodeDPMaster@CMasterDataManager@@IAEXAAV?$CStringT@DV?$StrTraitMFC_DLL@DV?$ChTraitsCRT@D@ATL@@@@@ATL@@AAVCStringArray@@1@Z 10016200 f   _MasterDataManager.obj
 0001:000157a0       ?_DoParsingCodeFX@CMasterDataManager@@IAEXAAV?$CStringT@DV?$StrTraitMFC_DLL@DV?$ChTraitsCRT@D@ATL@@@@@ATL@@AAVCStringArray@@1_NH@Z 100167a0 f   _MasterDataManager.obj
 0001:00015ad0       ?_DoParsingCodeForeign@CMasterDataManager@@IAEXAAV?$CStringT@DV?$StrTraitMFC_DLL@DV?$ChTraitsCRT@D@ATL@@@@@ATL@@AAVCStringArray@@1@Z 10016ad0 f   _MasterDataManager.obj
 0001:00015c60       ?_DoParsingCodeJPMaster@CMasterDataManager@@IAEXAAV?$CStringT@DV?$StrTraitMFC_DLL@DV?$ChTraitsCRT@D@ATL@@@@@ATL@@AAVCStringArray@@1@Z 10016c60 f   _MasterDataManager.obj
 0001:00016190       ?_DoParsingCodeMiniMaster@CMasterDataManager@@IAEXAAV?$CStringT@DV?$StrTraitMFC_DLL@DV?$ChTraitsCRT@D@ATL@@@@@ATL@@AAVCStringArray@@1@Z 10017190 f   _MasterDataManager.obj
 0001:00016720       ?_DoParsingCodePMaster@CMasterDataManager@@IAEXAAV?$CStringT@DV?$StrTraitMFC_DLL@DV?$ChTraitsCRT@D@ATL@@@@@ATL@@AAVCStringArray@@1@Z 10017720 f   _MasterDataManager.obj
 0001:00016ca0       ?_DoParsingCodeWeeklyMaster@CMasterDataManager@@IAEXAAV?$CStringT@DV?$StrTraitMFC_DLL@DV?$ChTraitsCRT@D@ATL@@@@@ATL@@AAVCStringArray@@1@Z 10017ca0 f   _MasterDataManager.obj
 0001:00017320       ?_DoPreChkCodeSB@CMasterDataManager@@IAEEPAV?$CList@PAUST_STRINGBYTE@@PAU1@@@PBD@Z 10018320 f   _MasterDataManager.obj
 0001:00017360       ?_DoPreChkCodeSS@CMasterDataManager@@IAEHPAV?$CList@PAUST_STRINGSTRING@@PAU1@@@PBDAAV?$CStringT@DV?$StrTraitMFC_DLL@DV?$ChTraitsCRT@D@ATL@@@@@ATL@@@Z 10018360 f   _MasterDataManager.obj
 0001:000173b0       ?_DoSortCode@CMasterDataManager@@IAEXAAVCStringArray@@0@Z 100183b0 f   _MasterDataManager.obj
 0001:00017600       ?gFncomparisonFunctionString@@YAHPBX0@Z 10018600 f   _MasterDataManager.obj
 0001:00017640       ??$SerializeElements@PAUST_NewsSignalMng@@@@YGXAAVCArchive@@PAPAUST_NewsSignalMng@@H@Z 10018640 f i _NewSignalManager.obj
 0001:000176f0       ??0?$CList@PAUST_NewsSignalMng@@PAU1@@@QAE@H@Z 100186f0 f i _NewSignalManager.obj
 0001:00017730       ??0CNewsSignalManager@@QAE@XZ 10018730 f   _NewSignalManager.obj
 0001:00017790       ??1?$CList@PAUST_NewsSignalMng@@PAU1@@@UAE@XZ 10018790 f i _NewSignalManager.obj
 0001:00017800       ??1CNewsSignalManager@@QAE@XZ 10018800 f   _NewSignalManager.obj
 0001:00017880       ??_G?$CList@PAUST_NewsSignalMng@@PAU1@@@UAEPAXI@Z 10018880 f i _NewSignalManager.obj
 0001:00017880       ??_E?$CList@PAUST_NewsSignalMng@@PAU1@@@UAEPAXI@Z 10018880 f i _NewSignalManager.obj
 0001:00017930       ?AddTail@?$CList@PAUST_NewsSignalMng@@PAU1@@@QAEPAU__POSITION@@PAUST_NewsSignalMng@@@Z 10018930 f i _NewSignalManager.obj
 0001:000179c0       ?AdviseNewsSignal@CNewsSignalManager@@UAGJDJ@Z 100189c0 f   _NewSignalManager.obj
 0001:00017a70       ?FreeNode@?$CList@PAUST_NewsSignalMng@@PAU1@@@IAEXPAUCNode@1@@Z 10018a70 f i _NewSignalManager.obj
 0001:00017ac0       ?GetAdviseCount@CNewsSignalManager@@UAGHXZ 10018ac0 f   _NewSignalManager.obj
 0001:00017ad0       ?GetDummyHwnd@CNewsSignalManager@@UAGPAUHWND__@@XZ 10018ad0 f   _NewSignalManager.obj
 0001:00017af0       ?GetFilterData@CNewsSignalManager@@UAGXAAJ@Z 10018af0 f   _NewSignalManager.obj
 0001:00017b10       ?GetSiganlTable@CNewsSignalManager@@UAGHV?$CStringT@DV?$StrTraitMFC_DLL@DV?$ChTraitsCRT@D@ATL@@@@@ATL@@AAVCStringArray@@@Z 10018b10 f   _NewSignalManager.obj
 0001:00017b50       ?GetSignalData@CNewsSignalManager@@UAGXV?$CStringT@DV?$StrTraitMFC_DLL@DV?$ChTraitsCRT@D@ATL@@@@@ATL@@AAVCMapStringToPtr@@@Z 10018b50 f   _NewSignalManager.obj
 0001:00017b90       ?NewNode@?$CList@PAUST_NewsSignalMng@@PAU1@@@IAEPAUCNode@1@PAU21@0@Z 10018b90 f i _NewSignalManager.obj
 0001:00017c00       ?RemoveAll@?$CList@PAUST_NewsSignalMng@@PAU1@@@QAEXXZ 10018c00 f i _NewSignalManager.obj
 0001:00017c30       ?RemoveAt@?$CList@PAUST_NewsSignalMng@@PAU1@@@QAEXPAU__POSITION@@@Z 10018c30 f i _NewSignalManager.obj
 0001:00017ca0       ?Serialize@?$CList@PAUST_NewsSignalMng@@PAU1@@@UAEXAAVCArchive@@@Z 10018ca0 f i _NewSignalManager.obj
 0001:00017e30       ?SetFilterData@CNewsSignalManager@@UAGXPAJ@Z 10018e30 f   _NewSignalManager.obj
 0001:00017e50       ?SetNewsSignal@CNewsSignalManager@@UAGHHPAVCWnd@@V?$CStringT@DV?$StrTraitMFC_DLL@DV?$ChTraitsCRT@D@ATL@@@@@ATL@@1@Z 10018e50 f   _NewSignalManager.obj
 0001:00017eb0       ?SetSignalData@CNewsSignalManager@@UAGXV?$CStringT@DV?$StrTraitMFC_DLL@DV?$ChTraitsCRT@D@ATL@@@@@ATL@@PAVCMapStringToPtr@@@Z 10018eb0 f   _NewSignalManager.obj
 0001:00017ef0       ?UnAdviseNewsSignal@CNewsSignalManager@@UAGHJ@Z 10018ef0 f   _NewSignalManager.obj
 0001:00017fb0       ??0CPCTRManager@@QAE@XZ    10018fb0 f   _PCTrManager.obj
 0001:00017fc0       ??1CPCTRManager@@QAE@XZ    10018fc0 f   _PCTrManager.obj
 0001:00017fd0       ?Advise@CPCTRManager@@UAGJHPAUIPCTRSite@@@Z 10018fd0 f   _PCTrManager.obj
 0001:00017fe0       ?AdviseEx@CPCTRManager@@UAGJHPAUIPCTRSite@@@Z 10018fe0 f   _PCTrManager.obj
 0001:00017ff0       ?GetData@CPCTRManager@@UAGPBDH@Z 10018ff0 f   _PCTrManager.obj
 0001:00018000       ?GetDataEx@CPCTRManager@@UAGPAVCOleVariant@@H@Z 10019000 f   _PCTrManager.obj
 0001:00018010       ?GetDataEx@CPCTRManager@@UAGPAVCOleVariant@@PBD@Z 10019010 f   _PCTrManager.obj
 0001:00018020       ?GetTrData@CPCTRManager@@UAGJDHPBDJ0@Z 10019020 f   _PCTrManager.obj
 0001:00018030       ?SetData@CPCTRManager@@UAGHHPBD@Z 10019030 f   _PCTrManager.obj
 0001:00018040       ?SetDataEx@CPCTRManager@@UAGHHPAVCOleVariant@@@Z 10019040 f   _PCTrManager.obj
 0001:00018050       ?SetDataEx@CPCTRManager@@UAGHPBDPAVCOleVariant@@@Z 10019050 f   _PCTrManager.obj
 0001:00018060       ?UnAdvise@CPCTRManager@@UAGXJ@Z 10019060 f   _PCTrManager.obj
 0001:00018070       ?UnAdviseEx@CPCTRManager@@UAGXJ@Z 10019070 f   _PCTrManager.obj
 0001:00018080       ?GetStrValue@CRegistryManager@@UAGPBDPAUHKEY__@@PBD11@Z 10019080 f   _RegistryManager.obj
 0001:00018150       ?SetStrValue@CRegistryManager@@UAGXPAUHKEY__@@PBD11@Z 10019150 f   _RegistryManager.obj
 0001:000181b0       ??$SerializeElements@PAUISkinColorSite@@@@YGXAAVCArchive@@PAPAUISkinColorSite@@H@Z 100191b0 f i _SkinColorManager.obj
 0001:00018260       ??$SerializeElements@UST_SKININFO@@@@YGXAAVCArchive@@PAUST_SKININFO@@H@Z 10019260 f i _SkinColorManager.obj
 0001:00018320       ??$SerializeElements@U_tabUserColorTable@@@@YGXAAVCArchive@@PAU_tabUserColorTable@@H@Z 10019320 f i _SkinColorManager.obj
 0001:000183d0       ??0?$CArray@UST_SKININFO@@U1@@@QAE@XZ 100193d0 f i _SkinColorManager.obj
 0001:00018400       ??0?$CArray@U_tabUserColorTable@@U1@@@QAE@XZ 10019400 f i _SkinColorManager.obj
 0001:00018430       ??0?$CList@PAUISkinColorSite@@PAU1@@@QAE@H@Z 10019430 f i _SkinColorManager.obj
 0001:00018470       ??0CSkinColorManager@@QAE@XZ 10019470 f   _SkinColorManager.obj
 0001:00018510       ??1?$CArray@UST_SKININFO@@U1@@@UAE@XZ 10019510 f i _SkinColorManager.obj
 0001:000185a0       ??1?$CArray@U_tabUserColorTable@@U1@@@UAE@XZ 100195a0 f i _SkinColorManager.obj
 0001:000185f0       ??1?$CList@PAUISkinColorSite@@PAU1@@@UAE@XZ 100195f0 f i _SkinColorManager.obj
 0001:00018660       ??1CSkinColorManager@@QAE@XZ 10019660 f   _SkinColorManager.obj
 0001:000187c0       ??1ST_SKININFO@@QAE@XZ     100197c0 f i _SkinColorManager.obj
 0001:00018810       ??4ST_SKININFO@@QAEAAU0@ABU0@@Z 10019810 f i _SkinColorManager.obj
 0001:00018880       ??_G?$CArray@UST_SKININFO@@U1@@@UAEPAXI@Z 10019880 f i _SkinColorManager.obj
 0001:00018880       ??_E?$CArray@UST_SKININFO@@U1@@@UAEPAXI@Z 10019880 f i _SkinColorManager.obj
 0001:000188c0       ??_G?$CArray@U_tabUserColorTable@@U1@@@UAEPAXI@Z 100198c0 f i _SkinColorManager.obj
 0001:000188c0       ??_E?$CArray@U_tabUserColorTable@@U1@@@UAEPAXI@Z 100198c0 f i _SkinColorManager.obj
 0001:00018900       ??_G?$CList@PAUISkinColorSite@@PAU1@@@UAEPAXI@Z 10019900 f i _SkinColorManager.obj
 0001:00018900       ??_E?$CList@PAUISkinColorSite@@PAU1@@@UAEPAXI@Z 10019900 f i _SkinColorManager.obj
 0001:000189b0       ?AddTail@?$CList@PAUISkinColorSite@@PAU1@@@QAEPAU__POSITION@@PAUISkinColorSite@@@Z 100199b0 f i _SkinColorManager.obj
 0001:00018a40       ?AdviseSite@CSkinColorManager@@UAGJPAUISkinColorSite@@@Z 10019a40 f   _SkinColorManager.obj
 0001:00018a60       ?AfxCrtErrorCheck@@YAHH@Z  10019a60 f i _SkinColorManager.obj
 0001:00018af0       ?FreeNode@?$CList@PAUISkinColorSite@@PAU1@@@IAEXPAUCNode@1@@Z 10019af0 f i _SkinColorManager.obj
 0001:00018b40       ?GetColor@CSkinColorManager@@UAGKH@Z 10019b40 f   _SkinColorManager.obj
 0001:00018b90       ?GetColor@CSkinColorManager@@UAGKPBD@Z 10019b90 f   _SkinColorManager.obj
 0001:00018c10       ?GetColorTableArray@CSkinColorManager@@UAGJXZ 10019c10 f   _SkinColorManager.obj
 0001:00018c20       ?GetDefaultColor@CSkinColorManager@@UAGKH@Z 10019c20 f   _SkinColorManager.obj
 0001:00018c30       ?GetDefaultColor@CSkinColorManager@@UAGKPBD@Z 10019c30 f   _SkinColorManager.obj
 0001:00018c40       ?GetDefaultColorTableArray@CSkinColorManager@@UAGJXZ 10019c40 f   _SkinColorManager.obj
 0001:00018c50       ?GetDefaultIndex@CSkinColorManager@@UAGHPBD@Z 10019c50 f   _SkinColorManager.obj
 0001:00018c60       ?GetIndex@CSkinColorManager@@UAGHPBD@Z 10019c60 f   _SkinColorManager.obj
 0001:00018ce0       ?GetSkinCount@CSkinColorManager@@UAGHXZ 10019ce0 f   _SkinColorManager.obj
 0001:00018d00       ?GetSkinInfo@CSkinColorManager@@UAGHHAAUST_SKININFO@@@Z 10019d00 f   _SkinColorManager.obj
 0001:00018d50       ?LoadColorTable@CSkinColorManager@@UAGHPBDH@Z 10019d50 f   _SkinColorManager.obj
 0001:00018f60       ?LoadDefaultColorTable@CSkinColorManager@@UAGHPBD@Z 10019f60 f   _SkinColorManager.obj
 0001:00018f70       ?LoadSkinInfo@CSkinColorManager@@QAEXXZ 10019f70 f   _SkinColorManager.obj
 0001:00019340       ?NewNode@?$CList@PAUISkinColorSite@@PAU1@@@IAEPAUCNode@1@PAU21@0@Z 1001a340 f i _SkinColorManager.obj
 0001:000193b0       ?NotifyToSite@CSkinColorManager@@UAGXXZ 1001a3b0 f   _SkinColorManager.obj
 0001:000193e0       ?RemoveAll@?$CArray@U_tabUserColorTable@@U1@@@QAEXXZ 1001a3e0 f i _SkinColorManager.obj
 0001:00019430       ?RemoveAll@?$CList@PAUISkinColorSite@@PAU1@@@QAEXXZ 1001a430 f i _SkinColorManager.obj
 0001:00019460       ?RemoveAt@?$CList@PAUISkinColorSite@@PAU1@@@QAEXPAU__POSITION@@@Z 1001a460 f i _SkinColorManager.obj
 0001:000194d0       ?Serialize@?$CArray@UST_SKININFO@@U1@@@UAEXAAVCArchive@@@Z 1001a4d0 f i _SkinColorManager.obj
 0001:000195b0       ?Serialize@?$CArray@U_tabUserColorTable@@U1@@@UAEXAAVCArchive@@@Z 1001a5b0 f i _SkinColorManager.obj
 0001:00019690       ?Serialize@?$CList@PAUISkinColorSite@@PAU1@@@UAEXAAVCArchive@@@Z 1001a690 f i _SkinColorManager.obj
 0001:00019820       ?SetSize@?$CArray@UST_SKININFO@@U1@@@QAEXHH@Z 1001a820 f i _SkinColorManager.obj
 0001:00019c80       ?SetSize@?$CArray@U_tabUserColorTable@@U1@@@QAEXHH@Z 1001ac80 f i _SkinColorManager.obj
 0001:00019f30       ?SetSkinConfig@CSkinColorManager@@UAGHPBD@Z 1001af30 f   _SkinColorManager.obj
 0001:00019f90       ?UnadviseSite@CSkinColorManager@@UAGHJ@Z 1001af90 f   _SkinColorManager.obj
 0001:0001a010       ??1CSTManager@@QAE@XZ      1001b010 f   _STManager.obj
 0001:0001a0e0       ?AddSTRunINfo@CSTManager@@UAGHPBDH@Z 1001b0e0 f   _STManager.obj
 0001:0001a220       ?FindItem@CSTManager@@QAEPAU__POSITION@@PBDAAPAVCSTManager_Info@@@Z 1001b220 f   _STManager.obj
 0001:0001a270       ?FreeNode@?$CList@PAVCSTManager_Info@@PAV1@@@IAEXPAUCNode@1@@Z 1001b270 f i _STManager.obj
 0001:0001a2c0       ?GetSTRunINfo@CSTManager@@UAGHPBD@Z 1001b2c0 f   _STManager.obj
 0001:0001a2f0       ?RemoveAll@CSTManager@@QAEXXZ 1001b2f0 f   _STManager.obj
 0001:0001a350       ?RemoveAt@?$CList@PAVCSTManager_Info@@PAV1@@@QAEXPAU__POSITION@@@Z 1001b350 f i _STManager.obj
 0001:0001a3c0       ?CheckExeRun@CSystemUtilManager@@AAEHABV?$CStringT@DV?$StrTraitMFC_DLL@DV?$ChTraitsCRT@D@ATL@@@@@ATL@@H@Z 1001b3c0 f   _SystemUtilManager.obj
 0001:0001a4b0       ?ComServerFromProgID@CProgIDInfo@@SAJPBDAAV?$CStringT@DV?$StrTraitMFC_DLL@DV?$ChTraitsCRT@D@ATL@@@@@ATL@@@Z 1001b4b0 f i _SystemUtilManager.obj
 0001:0001a6c0       ?DLLRegister@CSystemUtilManager@@UAGHPBD@Z 1001b6c0 f   _SystemUtilManager.obj
 0001:0001a940       ?IsRegistered@CSystemUtilManager@@UAGHPBDAAU_GUID@@@Z 1001b940 f   _SystemUtilManager.obj
 0001:0001a960       ?IsRegisteredEx@CSystemUtilManager@@UAGHPBDAAU_GUID@@00@Z 1001b960 f   _SystemUtilManager.obj
 0001:0001aa30       ?StringCLSIDFromProgID@CProgIDInfo@@SAJPBDAAV?$CStringT@DV?$StrTraitMFC_DLL@DV?$ChTraitsCRT@D@ATL@@@@@ATL@@@Z 1001ba30 f i _SystemUtilManager.obj
 0001:0001aba0       ??$SerializeElements@PAVCTrCommImpl@@@@YGXAAVCArchive@@PAPAVCTrCommImpl@@H@Z 1001bba0 f i _TRCommManager.obj
 0001:0001ac50       ??0?$CList@PAVCTrCommImpl@@PAV1@@@QAE@H@Z 1001bc50 f i _TRCommManager.obj
 0001:0001ac90       ??0CCriticalSection@@QAE@XZ 1001bc90 f i _TRCommManager.obj
 0001:0001ad10       ??0CTrCommImpl@@QAE@PAUHWND__@@@Z 1001bd10 f   _TRCommManager.obj
 0001:0001af40       ??0CTrCommManager@@QAE@XZ  1001bf40 f   _TRCommManager.obj
 0001:0001af90       ??1?$CList@PAVCTrCommImpl@@PAV1@@@UAE@XZ 1001bf90 f i _TRCommManager.obj
 0001:0001b000       ??1CTrCommImpl@@QAE@XZ     1001c000 f   _TRCommManager.obj
 0001:0001b080       ??1CTrCommManager@@QAE@XZ  1001c080 f   _TRCommManager.obj
 0001:0001b130       ??_E?$CList@PAVCTrCommImpl@@PAV1@@@UAEPAXI@Z 1001c130 f i _TRCommManager.obj
 0001:0001b130       ??_G?$CList@PAVCTrCommImpl@@PAV1@@@UAEPAXI@Z 1001c130 f i _TRCommManager.obj
 0001:0001b1e0       ??_GCTRComm@@UAEPAXI@Z     1001c1e0 f i _TRCommManager.obj
 0001:0001b1e0       ??_ECTRComm@@UAEPAXI@Z     1001c1e0 f i _TRCommManager.obj
 0001:0001b2d0       ?AddTail@?$CList@PAVCTrCommImpl@@PAV1@@@QAEPAU__POSITION@@PAVCTrCommImpl@@@Z 1001c2d0 f i _TRCommManager.obj
 0001:0001b360       ?AdviseTrComm@CTrCommManager@@UAGPAUITrComm@@XZ 1001c360 f   _TRCommManager.obj
 0001:0001b3b0       ?ChangeCallback@CTrCommImpl@@UAGXPAUITrCommSite@@@Z 1001c3b0 f   _TRCommManager.obj
 0001:0001b3d0       ?FreeNode@?$CList@PAVCTrCommImpl@@PAV1@@@IAEXPAUCNode@1@@Z 1001c3d0 f i _TRCommManager.obj
 0001:0001b420       ?GetBaseData@CTrCommImpl@@UAGXPBDAAV?$CStringT@DV?$StrTraitMFC_DLL@DV?$ChTraitsCRT@D@ATL@@@@@ATL@@@Z 1001c420 f   _TRCommManager.obj
 0001:0001b440       ?GetSocketHandle@CTrCommManager@@UAGPAUHWND__@@PBD@Z 1001c440 f   _TRCommManager.obj
 0001:0001b490       ?NewNode@?$CList@PAVCTrCommImpl@@PAV1@@@IAEPAUCNode@1@PAU21@0@Z 1001c490 f i _TRCommManager.obj
 0001:0001b500       ?RemoveAll@?$CList@PAVCTrCommImpl@@PAV1@@@QAEXXZ 1001c500 f i _TRCommManager.obj
 0001:0001b530       ?RemoveAt@?$CList@PAVCTrCommImpl@@PAV1@@@QAEXPAU__POSITION@@@Z 1001c530 f i _TRCommManager.obj
 0001:0001b5a0       ?Send2Server@CTrCommImpl@@UAGHPAXHH@Z 1001c5a0 f   _TRCommManager.obj
 0001:0001b5e0       ?Serialize@?$CList@PAVCTrCommImpl@@PAV1@@@UAEXAAVCArchive@@@Z 1001c5e0 f i _TRCommManager.obj
 0001:0001b770       ?SetBaseData@CTrCommImpl@@UAGXPBD0@Z 1001c770 f   _TRCommManager.obj
 0001:0001b790       ?SetBaseDataLong@CTrCommImpl@@UAGXPBDJ@Z 1001c790 f   _TRCommManager.obj
 0001:0001b7b0       ?SetSocketHandle@CTrCommManager@@UAGXPBDPAUHWND__@@@Z 1001c7b0 f   _TRCommManager.obj
 0001:0001b820       ?SetTR@CTrCommImpl@@UAGXPBDH@Z 1001c820 f   _TRCommManager.obj
 0001:0001b840       ?UnAdviseTrComm@CTrCommManager@@UAGXPAUITrComm@@@Z 1001c840 f   _TRCommManager.obj
 0001:0001b970       ??3@YAXPAX@Z               1001c970 f   mfc140:mfc140.dll
 0001:0001b976       ??_U@YAPAXI@Z              1001c976 f   mfc140:mfc140.dll
 0001:0001b97c       ??0?$CStringT@DV?$StrTraitMFC_DLL@DV?$ChTraitsCRT@D@ATL@@@@@ATL@@QAE@XZ 1001c97c f   mfc140:mfc140.dll
 0001:0001b982       ??1?$CStringT@DV?$StrTraitMFC_DLL@DV?$ChTraitsCRT@D@ATL@@@@@ATL@@QAE@XZ 1001c982 f   mfc140:mfc140.dll
 0001:0001b988       ??0COleDispatchDriver@@QAE@XZ 1001c988 f   mfc140:mfc140.dll
 0001:0001b98e       ?ReleaseDispatch@COleDispatchDriver@@QAEXXZ 1001c98e f   mfc140:mfc140.dll
 0001:0001b994       ?InvokeHelper@COleDispatchDriver@@QAAXJGGPAXPBEZZ 1001c994 f   mfc140:mfc140.dll
 0001:0001b99a       ??2@YAPAXI@Z               1001c99a f   mfc140:mfc140.dll
 0001:0001b9a0       ?AfxThrowInvalidArgException@@YGXXZ 1001c9a0 f   mfc140:mfc140.dll
 0001:0001b9a6       ??0?$CStringT@DV?$StrTraitMFC_DLL@DV?$ChTraitsCRT@D@ATL@@@@@ATL@@QAE@ABV01@@Z 1001c9a6 f   mfc140:mfc140.dll
 0001:0001b9ac       ??0CObArray@@QAE@XZ        1001c9ac f   mfc140:mfc140.dll
 0001:0001b9b2       ?SetAtGrow@CObArray@@QAEXHPAVCObject@@@Z 1001c9b2 f   mfc140:mfc140.dll
 0001:0001b9b8       ?RemoveAt@CObArray@@QAEXHH@Z 1001c9b8 f   mfc140:mfc140.dll
 0001:0001b9be       ??1CObArray@@UAE@XZ        1001c9be f   mfc140:mfc140.dll
 0001:0001b9c4       ?FromHandle@CWnd@@SGPAV1@PAUHWND__@@@Z 1001c9c4 f   mfc140:mfc140.dll
 0001:0001b9ca       ?GetDlgItem@CWnd@@QBEPAV1@H@Z 1001c9ca f   mfc140:mfc140.dll
 0001:0001b9d0       ?MoveWindow@CWnd@@QAEXHHHHH@Z 1001c9d0 f   mfc140:mfc140.dll
 0001:0001b9d6       ?ClientToScreen@CWnd@@QBEXPAUtagRECT@@@Z 1001c9d6 f   mfc140:mfc140.dll
 0001:0001b9dc       ?ScreenToClient@CWnd@@QBEXPAUtagRECT@@@Z 1001c9dc f   mfc140:mfc140.dll
 0001:0001b9e2       ?AfxMessageBox@@YGHPBDII@Z 1001c9e2 f   mfc140:mfc140.dll
 0001:0001b9e8       ??0?$CStringT@DV?$StrTraitMFC_DLL@DV?$ChTraitsCRT@D@ATL@@@@@ATL@@QAE@PBD@Z 1001c9e8 f   mfc140:mfc140.dll
 0001:0001b9ee       ??4?$CStringT@DV?$StrTraitMFC_DLL@DV?$ChTraitsCRT@D@ATL@@@@@ATL@@QAEAAV01@PBD@Z 1001c9ee f   mfc140:mfc140.dll
 0001:0001b9f4       ?CompareNoCase@?$CStringT@DV?$StrTraitMFC_DLL@DV?$ChTraitsCRT@D@ATL@@@@@ATL@@QBEHPBD@Z 1001c9f4 f   mfc140:mfc140.dll
 0001:0001b9fa       ?Format@?$CStringT@DV?$StrTraitMFC_DLL@DV?$ChTraitsCRT@D@ATL@@@@@ATL@@QAAXPBDZZ 1001c9fa f   mfc140:mfc140.dll
 0001:0001ba00       ?OnCmdMsg@CCmdTarget@@UAEHIHPAXPAUAFX_CMDHANDLERINFO@@@Z 1001ca00 f   mfc140:mfc140.dll
 0001:0001ba06       ?IsInvokeAllowed@CCmdTarget@@UAEHJ@Z 1001ca06 f   mfc140:mfc140.dll
 0001:0001ba0c       ?GetDispatchIID@CCmdTarget@@UAEHPAU_GUID@@@Z 1001ca0c f   mfc140:mfc140.dll
 0001:0001ba12       ?GetTypeInfoCount@CCmdTarget@@UAEIXZ 1001ca12 f   mfc140:mfc140.dll
 0001:0001ba18       ?GetTypeLibCache@CCmdTarget@@UAEPAVCTypeLibCache@@XZ 1001ca18 f   mfc140:mfc140.dll
 0001:0001ba1e       ?GetTypeLib@CCmdTarget@@UAEJKPAPAUITypeLib@@@Z 1001ca1e f   mfc140:mfc140.dll
 0001:0001ba24       ?GetCommandMap@CCmdTarget@@MBEPBUAFX_OLECMDMAP@@XZ 1001ca24 f   mfc140:mfc140.dll
 0001:0001ba2a       ?GetDispatchMap@CCmdTarget@@MBEPBUAFX_DISPMAP@@XZ 1001ca2a f   mfc140:mfc140.dll
 0001:0001ba30       ?GetConnectionMap@CCmdTarget@@MBEPBUAFX_CONNECTIONMAP@@XZ 1001ca30 f   mfc140:mfc140.dll
 0001:0001ba36       ?GetEventSinkMap@CCmdTarget@@MBEPBUAFX_EVENTSINKMAP@@XZ 1001ca36 f   mfc140:mfc140.dll
 0001:0001ba3c       ?OnCreateAggregates@CCmdTarget@@UAEHXZ 1001ca3c f   mfc140:mfc140.dll
 0001:0001ba42       ?GetInterfaceHook@CCmdTarget@@UAEPAUIUnknown@@PBX@Z 1001ca42 f   mfc140:mfc140.dll
 0001:0001ba48       ?GetExtraConnectionPoints@CCmdTarget@@MAEHPAVCPtrArray@@@Z 1001ca48 f   mfc140:mfc140.dll
 0001:0001ba4e       ?GetConnectionHook@CCmdTarget@@MAEPAUIConnectionPoint@@ABU_GUID@@@Z 1001ca4e f   mfc140:mfc140.dll
 0001:0001ba54       ?GetRuntimeClass@CWnd@@UBEPAUCRuntimeClass@@XZ 1001ca54 f   mfc140:mfc140.dll
 0001:0001ba5a       ??0CWnd@@QAE@XZ            1001ca5a f   mfc140:mfc140.dll
 0001:0001ba60       ?PreSubclassWindow@CWnd@@UAEXXZ 1001ca60 f   mfc140:mfc140.dll
 0001:0001ba66       ?Create@CWnd@@UAEHPBD0KABUtagRECT@@PAV1@IPAUCCreateContext@@@Z 1001ca66 f   mfc140:mfc140.dll
 0001:0001ba6c       ?CreateEx@CWnd@@UAEHKPBD0KHHHHPAUHWND__@@PAUHMENU__@@PAX@Z 1001ca6c f   mfc140:mfc140.dll
 0001:0001ba72       ?CreateEx@CWnd@@UAEHKPBD0KABUtagRECT@@PAV1@IPAX@Z 1001ca72 f   mfc140:mfc140.dll
 0001:0001ba78       ?DestroyWindow@CWnd@@UAEHXZ 1001ca78 f   mfc140:mfc140.dll
 0001:0001ba7e       ?PreCreateWindow@CWnd@@UAEHAAUtagCREATESTRUCTA@@@Z 1001ca7e f   mfc140:mfc140.dll
 0001:0001ba84       ?CalcWindowRect@CWnd@@UAEXPAUtagRECT@@I@Z 1001ca84 f   mfc140:mfc140.dll
 0001:0001ba8a       ?GetMenu@CWnd@@UBEPAVCMenu@@XZ 1001ca8a f   mfc140:mfc140.dll
 0001:0001ba90       ?SetMenu@CWnd@@UAEHPAVCMenu@@@Z 1001ca90 f   mfc140:mfc140.dll
 0001:0001ba96       ?OnToolHitTest@CWnd@@UBEHVCPoint@@PAUtagTOOLINFOA@@@Z 1001ca96 f   mfc140:mfc140.dll
 0001:0001ba9c       ?GetScrollBarCtrl@CWnd@@UBEPAVCScrollBar@@H@Z 1001ca9c f   mfc140:mfc140.dll
 0001:0001baa2       ?WinHelpA@CWnd@@UAEXKI@Z   1001caa2 f   mfc140:mfc140.dll
 0001:0001baa8       ?HtmlHelpA@CWnd@@UAEXKI@Z  1001caa8 f   mfc140:mfc140.dll
 0001:0001baae       ?WinHelpInternal@CWnd@@UAEXKI@Z 1001caae f   mfc140:mfc140.dll
 0001:0001bab4       ?ContinueModal@CWnd@@UAEHXZ 1001cab4 f   mfc140:mfc140.dll
 0001:0001baba       ?EndModalLoop@CWnd@@UAEXH@Z 1001caba f   mfc140:mfc140.dll
 0001:0001bac0       ?OnDrawIconicThumbnailOrLivePreview@CWnd@@UAEXAAVCDC@@VCRect@@VCSize@@HAAH@Z 1001cac0 f   mfc140:mfc140.dll
 0001:0001bac6       ?GetInterfaceMap@CWnd@@MBEPBUAFX_INTERFACEMAP@@XZ 1001cac6 f   mfc140:mfc140.dll
 0001:0001bacc       ?EnsureStdObj@CWnd@@UAEJXZ 1001cacc f   mfc140:mfc140.dll
 0001:0001bad2       ?get_accParent@CWnd@@UAEJPAPAUIDispatch@@@Z 1001cad2 f   mfc140:mfc140.dll
 0001:0001bad8       ?get_accChildCount@CWnd@@UAEJPAJ@Z 1001cad8 f   mfc140:mfc140.dll
 0001:0001bade       ?get_accChild@CWnd@@UAEJUtagVARIANT@@PAPAUIDispatch@@@Z 1001cade f   mfc140:mfc140.dll
 0001:0001bae4       ?get_accName@CWnd@@UAEJUtagVARIANT@@PAPA_W@Z 1001cae4 f   mfc140:mfc140.dll
 0001:0001baea       ?get_accValue@CWnd@@UAEJUtagVARIANT@@PAPA_W@Z 1001caea f   mfc140:mfc140.dll
 0001:0001baf0       ?get_accDescription@CWnd@@UAEJUtagVARIANT@@PAPA_W@Z 1001caf0 f   mfc140:mfc140.dll
 0001:0001baf6       ?get_accRole@CWnd@@UAEJUtagVARIANT@@PAU2@@Z 1001caf6 f   mfc140:mfc140.dll
 0001:0001bafc       ?get_accState@CWnd@@UAEJUtagVARIANT@@PAU2@@Z 1001cafc f   mfc140:mfc140.dll
 0001:0001bb02       ?get_accHelp@CWnd@@UAEJUtagVARIANT@@PAPA_W@Z 1001cb02 f   mfc140:mfc140.dll
 0001:0001bb08       ?get_accHelpTopic@CWnd@@UAEJPAPA_WUtagVARIANT@@PAJ@Z 1001cb08 f   mfc140:mfc140.dll
 0001:0001bb0e       ?get_accKeyboardShortcut@CWnd@@UAEJUtagVARIANT@@PAPA_W@Z 1001cb0e f   mfc140:mfc140.dll
 0001:0001bb14       ?get_accFocus@CWnd@@UAEJPAUtagVARIANT@@@Z 1001cb14 f   mfc140:mfc140.dll
 0001:0001bb1a       ?get_accSelection@CWnd@@UAEJPAUtagVARIANT@@@Z 1001cb1a f   mfc140:mfc140.dll
 0001:0001bb20       ?get_accDefaultAction@CWnd@@UAEJUtagVARIANT@@PAPA_W@Z 1001cb20 f   mfc140:mfc140.dll
 0001:0001bb26       ?accSelect@CWnd@@UAEJJUtagVARIANT@@@Z 1001cb26 f   mfc140:mfc140.dll
 0001:0001bb2c       ?accLocation@CWnd@@UAEJPAJ000UtagVARIANT@@@Z 1001cb2c f   mfc140:mfc140.dll
 0001:0001bb32       ?accNavigate@CWnd@@UAEJJUtagVARIANT@@PAU2@@Z 1001cb32 f   mfc140:mfc140.dll
 0001:0001bb38       ?accHitTest@CWnd@@UAEJJJPAUtagVARIANT@@@Z 1001cb38 f   mfc140:mfc140.dll
 0001:0001bb3e       ?accDoDefaultAction@CWnd@@UAEJUtagVARIANT@@@Z 1001cb3e f   mfc140:mfc140.dll
 0001:0001bb44       ?put_accName@CWnd@@UAEJUtagVARIANT@@PA_W@Z 1001cb44 f   mfc140:mfc140.dll
 0001:0001bb4a       ?put_accValue@CWnd@@UAEJUtagVARIANT@@PA_W@Z 1001cb4a f   mfc140:mfc140.dll
 0001:0001bb50       ?SetProxy@CWnd@@UAEJPAUIAccessibleProxy@@@Z 1001cb50 f   mfc140:mfc140.dll
 0001:0001bb56       ?CreateAccessibleProxy@CWnd@@UAEJIJPAJ@Z 1001cb56 f   mfc140:mfc140.dll
 0001:0001bb5c       ?OnCommand@CWnd@@MAEHIJ@Z  1001cb5c f   mfc140:mfc140.dll
 0001:0001bb62       ?OnNotify@CWnd@@MAEHIJPAJ@Z 1001cb62 f   mfc140:mfc140.dll
 0001:0001bb68       ?GetSuperWndProcAddr@CWnd@@MAEPAP6GJPAUHWND__@@IIJ@ZXZ 1001cb68 f   mfc140:mfc140.dll
 0001:0001bb6e       ?PreTranslateMessage@CWnd@@UAEHPAUtagMSG@@@Z 1001cb6e f   mfc140:mfc140.dll
 0001:0001bb74       ?OnAmbientProperty@CWnd@@UAEHPAVCOleControlSite@@JPAUtagVARIANT@@@Z 1001cb74 f   mfc140:mfc140.dll
 0001:0001bb7a       ?WindowProc@CWnd@@MAEJIIJ@Z 1001cb7a f   mfc140:mfc140.dll
 0001:0001bb80       ?OnWndMsg@CWnd@@MAEHIIJPAJ@Z 1001cb80 f   mfc140:mfc140.dll
 0001:0001bb86       ?DefWindowProcA@CWnd@@MAEJIIJ@Z 1001cb86 f   mfc140:mfc140.dll
 0001:0001bb8c       ?PostNcDestroy@CWnd@@MAEXXZ 1001cb8c f   mfc140:mfc140.dll
 0001:0001bb92       ?OnChildNotify@CWnd@@MAEHIIJPAJ@Z 1001cb92 f   mfc140:mfc140.dll
 0001:0001bb98       ?OnTouchInputs@CWnd@@MAEHIPAUtagTOUCHINPUT@@@Z 1001cb98 f   mfc140:mfc140.dll
 0001:0001bb9e       ?OnTouchInput@CWnd@@MAEHVCPoint@@HHPAUtagTOUCHINPUT@@@Z 1001cb9e f   mfc140:mfc140.dll
 0001:0001bba4       ?GetGestureStatus@CWnd@@MAEKVCPoint@@@Z 1001cba4 f   mfc140:mfc140.dll
 0001:0001bbaa       ?OnGestureZoom@CWnd@@MAEHVCPoint@@J@Z 1001cbaa f   mfc140:mfc140.dll
 0001:0001bbb0       ?OnGesturePan@CWnd@@MAEHVCPoint@@0@Z 1001cbb0 f   mfc140:mfc140.dll
 0001:0001bbb6       ?OnGestureRotate@CWnd@@MAEHVCPoint@@N@Z 1001cbb6 f   mfc140:mfc140.dll
 0001:0001bbbc       ?OnGestureTwoFingerTap@CWnd@@MAEHVCPoint@@@Z 1001cbbc f   mfc140:mfc140.dll
 0001:0001bbc2       ?OnGesturePressAndTap@CWnd@@MAEHVCPoint@@J@Z 1001cbc2 f   mfc140:mfc140.dll
 0001:0001bbc8       ?ResizeDynamicLayout@CWnd@@MAEXXZ 1001cbc8 f   mfc140:mfc140.dll
 0001:0001bbce       ??1CWnd@@UAE@XZ            1001cbce f   mfc140:mfc140.dll
 0001:0001bbd4       ?CheckAutoCenter@CWnd@@UAEHXZ 1001cbd4 f   mfc140:mfc140.dll
 0001:0001bbda       ?IsFrameWnd@CWnd@@UBEHXZ   1001cbda f   mfc140:mfc140.dll
 0001:0001bbe0       ?OnFinalRelease@CWnd@@UAEXXZ 1001cbe0 f   mfc140:mfc140.dll
 0001:0001bbe6       ?CreateControlContainer@CWnd@@MAEHPAPAVCOleControlContainer@@@Z 1001cbe6 f   mfc140:mfc140.dll
 0001:0001bbec       ?CreateControlSite@CWnd@@MAEHPAVCOleControlContainer@@PAPAVCOleControlSite@@IABU_GUID@@@Z 1001cbec f   mfc140:mfc140.dll
 0001:0001bbf2       ?SetOccDialogInfo@CWnd@@MAEHPAU_AFX_OCC_DIALOG_INFO@@@Z 1001cbf2 f   mfc140:mfc140.dll
 0001:0001bbf8       ?GetOccDialogInfo@CWnd@@MAEPAU_AFX_OCC_DIALOG_INFO@@XZ 1001cbf8 f   mfc140:mfc140.dll
 0001:0001bbfe       ?GetThisMessageMap@CWnd@@KGPBUAFX_MSGMAP@@XZ 1001cbfe f   mfc140:mfc140.dll
 0001:0001bc04       ?AfxRegisterWndClass@@YGPBDIPAUHICON__@@PAUHBRUSH__@@0@Z 1001cc04 f   mfc140:mfc140.dll
 0001:0001bc0a       ??0CFileFind@@QAE@XZ       1001cc0a f   mfc140:mfc140.dll
 0001:0001bc10       ??1CFileFind@@UAE@XZ       1001cc10 f   mfc140:mfc140.dll
 0001:0001bc16       ?FindFile@CFileFind@@UAEHPBDK@Z 1001cc16 f   mfc140:mfc140.dll
 0001:0001bc1c       ?AfxGetModuleState@@YGPAVAFX_MODULE_STATE@@XZ 1001cc1c f   mfc140:mfc140.dll
 0001:0001bc22       ?OnDestroy@CWnd@@IAEXXZ    1001cc22 f   mfc140:mfc140.dll
 0001:0001bc28       ?Default@CWnd@@IAEJXZ      1001cc28 f   mfc140:mfc140.dll
 0001:0001bc2e       ?AfxThrowMemoryException@@YGXXZ 1001cc2e f   mfc140:mfc140.dll
 0001:0001bc34       ?AfxThrowArchiveException@@YGXHPBD@Z 1001cc34 f   mfc140:mfc140.dll
 0001:0001bc3a       ?AfxThrowOleException@@YGXJ@Z 1001cc3a f   mfc140:mfc140.dll
 0001:0001bc40       ?GetRuntimeClass@CObject@@UBEPAUCRuntimeClass@@XZ 1001cc40 f   mfc140:mfc140.dll
 0001:0001bc46       ?GetBufferSetLength@?$CSimpleStringT@D$00@ATL@@QAEPADH@Z 1001cc46 f   mfc140:mfc140.dll
 0001:0001bc4c       ?ReleaseBuffer@?$CSimpleStringT@D$00@ATL@@QAEXH@Z 1001cc4c f   mfc140:mfc140.dll
 0001:0001bc52       ?Concatenate@?$CSimpleStringT@D$00@ATL@@KAXAAV12@PBDH1H@Z 1001cc52 f   mfc140:mfc140.dll
 0001:0001bc58       ??0?$CStringT@DV?$StrTraitMFC_DLL@DV?$ChTraitsCRT@D@ATL@@@@@ATL@@QAE@PAUIAtlStringMgr@1@@Z 1001cc58 f   mfc140:mfc140.dll
 0001:0001bc5e       ??4?$CStringT@DV?$StrTraitMFC_DLL@DV?$ChTraitsCRT@D@ATL@@@@@ATL@@QAEAAV01@ABV01@@Z 1001cc5e f   mfc140:mfc140.dll
 0001:0001bc64       ??Y?$CStringT@DV?$StrTraitMFC_DLL@DV?$ChTraitsCRT@D@ATL@@@@@ATL@@QAEAAV01@PBD@Z 1001cc64 f   mfc140:mfc140.dll
 0001:0001bc6a       ?GetManager@?$CStringT@DV?$StrTraitMFC_DLL@DV?$ChTraitsCRT@D@ATL@@@@@ATL@@QBEPAUIAtlStringMgr@2@XZ 1001cc6a f   mfc140:mfc140.dll
 0001:0001bc70       ?Compare@?$CStringT@DV?$StrTraitMFC_DLL@DV?$ChTraitsCRT@D@ATL@@@@@ATL@@QBEHPBD@Z 1001cc70 f   mfc140:mfc140.dll
 0001:0001bc76       ?ReverseFind@?$CStringT@DV?$StrTraitMFC_DLL@DV?$ChTraitsCRT@D@ATL@@@@@ATL@@QBEHD@Z 1001cc76 f   mfc140:mfc140.dll
 0001:0001bc7c       ?Left@?$CStringT@DV?$StrTraitMFC_DLL@DV?$ChTraitsCRT@D@ATL@@@@@ATL@@QBE?AV12@H@Z 1001cc7c f   mfc140:mfc140.dll
 0001:0001bc82       ??0CFile@@QAE@XZ           1001cc82 f   mfc140:mfc140.dll
 0001:0001bc88       ?Open@CFile@@UAEHPBDIPAVCFileException@@@Z 1001cc88 f   mfc140:mfc140.dll
 0001:0001bc8e       ?GetLength@CFile@@UBE_KXZ  1001cc8e f   mfc140:mfc140.dll
 0001:0001bc94       ?Read@CFile@@UAEIPAXI@Z    1001cc94 f   mfc140:mfc140.dll
 0001:0001bc9a       ?Close@CFile@@UAEXXZ       1001cc9a f   mfc140:mfc140.dll
 0001:0001bca0       ??1CFile@@UAE@XZ           1001cca0 f   mfc140:mfc140.dll
 0001:0001bca6       ?Read@CArchive@@QAEIPAXI@Z 1001cca6 f   mfc140:mfc140.dll
 0001:0001bcac       ?Write@CArchive@@QAEXPBXI@Z 1001ccac f   mfc140:mfc140.dll
 0001:0001bcb2       ?ReadCount@CArchive@@QAEKXZ 1001ccb2 f   mfc140:mfc140.dll
 0001:0001bcb8       ?WriteCount@CArchive@@QAEXK@Z 1001ccb8 f   mfc140:mfc140.dll
 0001:0001bcbe       ?Create@CPlex@@SGPAU1@AAPAU1@II@Z 1001ccbe f   mfc140:mfc140.dll
 0001:0001bcc4       ?FreeDataChain@CPlex@@QAEXXZ 1001ccc4 f   mfc140:mfc140.dll
 0001:0001bcca       ?OnFinalRelease@CCmdTarget@@UAEXXZ 1001ccca f   mfc140:mfc140.dll
 0001:0001bcd0       ?GetInterfaceMap@CCmdTarget@@MBEPBUAFX_INTERFACEMAP@@XZ 1001ccd0 f   mfc140:mfc140.dll
 0001:0001bcd6       ?PreTranslateMessage@CWinThread@@UAEHPAUtagMSG@@@Z 1001ccd6 f   mfc140:mfc140.dll
 0001:0001bcdc       ?PumpMessage@CWinThread@@UAEHXZ 1001ccdc f   mfc140:mfc140.dll
 0001:0001bce2       ?IsIdleMessage@CWinThread@@UAEHPAUtagMSG@@@Z 1001cce2 f   mfc140:mfc140.dll
 0001:0001bce8       ?ProcessMessageFilter@CWinThread@@UAEHHPAUtagMSG@@@Z 1001cce8 f   mfc140:mfc140.dll
 0001:0001bcee       ?GetMainWnd@CWinThread@@UAEPAVCWnd@@XZ 1001ccee f   mfc140:mfc140.dll
 0001:0001bcf4       ?Delete@CWinThread@@UAEXXZ 1001ccf4 f   mfc140:mfc140.dll
 0001:0001bcfa       ?AfxGetThread@@YGPAVCWinThread@@XZ 1001ccfa f   mfc140:mfc140.dll
 0001:0001bd00       ?GetRuntimeClass@CWinApp@@UBEPAUCRuntimeClass@@XZ 1001cd00 f   mfc140:mfc140.dll
 0001:0001bd06       ??0CWinApp@@QAE@PBD@Z      1001cd06 f   mfc140:mfc140.dll
 0001:0001bd0c       ?GetProfileIntA@CWinApp@@UAEIPBD0H@Z 1001cd0c f   mfc140:mfc140.dll
 0001:0001bd12       ?WriteProfileInt@CWinApp@@UAEHPBD0H@Z 1001cd12 f   mfc140:mfc140.dll
 0001:0001bd18       ?GetProfileStringA@CWinApp@@UAE?AV?$CStringT@DV?$StrTraitMFC_DLL@DV?$ChTraitsCRT@D@ATL@@@@@ATL@@PBD00@Z 1001cd18 f   mfc140:mfc140.dll
 0001:0001bd1e       ?WriteProfileStringA@CWinApp@@UAEHPBD00@Z 1001cd1e f   mfc140:mfc140.dll
 0001:0001bd24       ?GetProfileBinary@CWinApp@@UAEHPBD0PAPAEPAI@Z 1001cd24 f   mfc140:mfc140.dll
 0001:0001bd2a       ?WriteProfileBinary@CWinApp@@UAEHPBD0PAEI@Z 1001cd2a f   mfc140:mfc140.dll
 0001:0001bd30       ?InitLibId@CWinApp@@UAEXXZ 1001cd30 f   mfc140:mfc140.dll
 0001:0001bd36       ?Register@CWinApp@@UAEHXZ  1001cd36 f   mfc140:mfc140.dll
 0001:0001bd3c       ?Unregister@CWinApp@@UAEHXZ 1001cd3c f   mfc140:mfc140.dll
 0001:0001bd42       ?OpenDocumentFile@CWinApp@@UAEPAVCDocument@@PBD@Z 1001cd42 f   mfc140:mfc140.dll
 0001:0001bd48       ?OpenDocumentFile@CWinApp@@UAEPAVCDocument@@PBDH@Z 1001cd48 f   mfc140:mfc140.dll
 0001:0001bd4e       ?AddToRecentFileList@CWinApp@@UAEXPBD@Z 1001cd4e f   mfc140:mfc140.dll
 0001:0001bd54       ?InitApplication@CWinApp@@UAEHXZ 1001cd54 f   mfc140:mfc140.dll
 0001:0001bd5a       ?SaveAllModified@CWinApp@@UAEHXZ 1001cd5a f   mfc140:mfc140.dll
 0001:0001bd60       ?DoMessageBox@CWinApp@@UAEHPBDII@Z 1001cd60 f   mfc140:mfc140.dll
 0001:0001bd66       ?DoWaitCursor@CWinApp@@UAEXH@Z 1001cd66 f   mfc140:mfc140.dll
 0001:0001bd6c       ?OnDDECommand@CWinApp@@UAEHPAD@Z 1001cd6c f   mfc140:mfc140.dll
 0001:0001bd72       ?WinHelpA@CWinApp@@UAEXKI@Z 1001cd72 f   mfc140:mfc140.dll
 0001:0001bd78       ?HtmlHelpA@CWinApp@@UAEXKI@Z 1001cd78 f   mfc140:mfc140.dll
 0001:0001bd7e       ?WinHelpInternal@CWinApp@@UAEXKI@Z 1001cd7e f   mfc140:mfc140.dll
 0001:0001bd84       ?RegisterWithRestartManager@CWinApp@@UAEJHABV?$CStringT@DV?$StrTraitMFC_DLL@DV?$ChTraitsCRT@D@ATL@@@@@ATL@@@Z 1001cd84 f   mfc140:mfc140.dll
 0001:0001bd8a       ?RegisterWithRestartManager@CWinApp@@UAEJPB_WKP6GKPAX@Z1KK@Z 1001cd8a f   mfc140:mfc140.dll
 0001:0001bd90       ?ApplicationRecoveryCallback@CWinApp@@UAEKPAX@Z 1001cd90 f   mfc140:mfc140.dll
 0001:0001bd96       ?GetDataRecoveryHandler@CWinApp@@UAEPAVCDataRecoveryHandler@@XZ 1001cd96 f   mfc140:mfc140.dll
 0001:0001bd9c       ?IsTaskbarInteractionEnabled@CWinApp@@UAEHXZ 1001cd9c f   mfc140:mfc140.dll
 0001:0001bda2       ?InitInstance@CWinApp@@UAEHXZ 1001cda2 f   mfc140:mfc140.dll
 0001:0001bda8       ?ExitInstance@CWinApp@@UAEHXZ 1001cda8 f   mfc140:mfc140.dll
 0001:0001bdae       ?RestartInstance@CWinApp@@UAEHXZ 1001cdae f   mfc140:mfc140.dll
 0001:0001bdb4       ?Run@CWinApp@@UAEHXZ       1001cdb4 f   mfc140:mfc140.dll
 0001:0001bdba       ?OnIdle@CWinApp@@UAEHJ@Z   1001cdba f   mfc140:mfc140.dll
 0001:0001bdc0       ?ProcessWndProcException@CWinApp@@UAEJPAVCException@@PBUtagMSG@@@Z 1001cdc0 f   mfc140:mfc140.dll
 0001:0001bdc6       ?LoadAppLangResourceDLL@CWinApp@@UAEPAUHINSTANCE__@@XZ 1001cdc6 f   mfc140:mfc140.dll
 0001:0001bdcc       ??1CWinApp@@UAE@XZ         1001cdcc f   mfc140:mfc140.dll
 0001:0001bdd2       ?GetThisMessageMap@CWinApp@@KGPBUAFX_MSGMAP@@XZ 1001cdd2 f   mfc140:mfc140.dll
 0001:0001bdd8       ?LoadSysPolicies@CWinApp@@UAEHXZ 1001cdd8 f   mfc140:mfc140.dll
 0001:0001bdde       ??_V@YAXPAX@Z              1001cdde f   mfc140:mfc140.dll
 0001:0001bde4       ?Empty@?$CSimpleStringT@D$00@ATL@@QAEXXZ 1001cde4 f   mfc140:mfc140.dll
 0001:0001bdea       ?Mid@?$CStringT@DV?$StrTraitMFC_DLL@DV?$ChTraitsCRT@D@ATL@@@@@ATL@@QBE?AV12@H@Z 1001cdea f   mfc140:mfc140.dll
 0001:0001bdf0       ?Lookup@CMapStringToString@@QBEHPBDAAV?$CStringT@DV?$StrTraitMFC_DLL@DV?$ChTraitsCRT@D@ATL@@@@@ATL@@@Z 1001cdf0 f   mfc140:mfc140.dll
 0001:0001bdf6       ??ACMapStringToString@@QAEAAV?$CStringT@DV?$StrTraitMFC_DLL@DV?$ChTraitsCRT@D@ATL@@@@@ATL@@PBD@Z 1001cdf6 f   mfc140:mfc140.dll
 0001:0001bdfc       ??A?$CSimpleStringT@D$00@ATL@@QBEDH@Z 1001cdfc f   mfc140:mfc140.dll
 0001:0001be02       ?GetAt@?$CSimpleStringT@D$00@ATL@@QBEDH@Z 1001ce02 f   mfc140:mfc140.dll
 0001:0001be08       ?GetBuffer@?$CSimpleStringT@D$00@ATL@@QAEPADH@Z 1001ce08 f   mfc140:mfc140.dll
 0001:0001be0e       ??4?$CStringT@DV?$StrTraitMFC_DLL@DV?$ChTraitsCRT@D@ATL@@@@@ATL@@QAEAAV01@D@Z 1001ce0e f   mfc140:mfc140.dll
 0001:0001be14       ??Y?$CStringT@DV?$StrTraitMFC_DLL@DV?$ChTraitsCRT@D@ATL@@@@@ATL@@QAEAAV01@ABV?$CSimpleStringT@D$00@1@@Z 1001ce14 f   mfc140:mfc140.dll
 0001:0001be1a       ??Y?$CStringT@DV?$StrTraitMFC_DLL@DV?$ChTraitsCRT@D@ATL@@@@@ATL@@QAEAAV01@D@Z 1001ce1a f   mfc140:mfc140.dll
 0001:0001be20       ?Insert@?$CStringT@DV?$StrTraitMFC_DLL@DV?$ChTraitsCRT@D@ATL@@@@@ATL@@QAEHHPBD@Z 1001ce20 f   mfc140:mfc140.dll
 0001:0001be26       ?Replace@?$CStringT@DV?$StrTraitMFC_DLL@DV?$ChTraitsCRT@D@ATL@@@@@ATL@@QAEHDD@Z 1001ce26 f   mfc140:mfc140.dll
 0001:0001be2c       ?Remove@?$CStringT@DV?$StrTraitMFC_DLL@DV?$ChTraitsCRT@D@ATL@@@@@ATL@@QAEHD@Z 1001ce2c f   mfc140:mfc140.dll
 0001:0001be32       ?Find@?$CStringT@DV?$StrTraitMFC_DLL@DV?$ChTraitsCRT@D@ATL@@@@@ATL@@QBEHDH@Z 1001ce32 f   mfc140:mfc140.dll
 0001:0001be38       ?Find@?$CStringT@DV?$StrTraitMFC_DLL@DV?$ChTraitsCRT@D@ATL@@@@@ATL@@QBEHPBDH@Z 1001ce38 f   mfc140:mfc140.dll
 0001:0001be3e       ?MakeReverse@?$CStringT@DV?$StrTraitMFC_DLL@DV?$ChTraitsCRT@D@ATL@@@@@ATL@@QAEAAV12@XZ 1001ce3e f   mfc140:mfc140.dll
 0001:0001be44       ?TrimRight@?$CStringT@DV?$StrTraitMFC_DLL@DV?$ChTraitsCRT@D@ATL@@@@@ATL@@QAEAAV12@XZ 1001ce44 f   mfc140:mfc140.dll
 0001:0001be4a       ?TrimLeft@?$CStringT@DV?$StrTraitMFC_DLL@DV?$ChTraitsCRT@D@ATL@@@@@ATL@@QAEAAV12@XZ 1001ce4a f   mfc140:mfc140.dll
 0001:0001be50       ?Mid@?$CStringT@DV?$StrTraitMFC_DLL@DV?$ChTraitsCRT@D@ATL@@@@@ATL@@QBE?AV12@HH@Z 1001ce50 f   mfc140:mfc140.dll
 0001:0001be56       ?Right@?$CStringT@DV?$StrTraitMFC_DLL@DV?$ChTraitsCRT@D@ATL@@@@@ATL@@QBE?AV12@H@Z 1001ce56 f   mfc140:mfc140.dll
 0001:0001be5c       ??0CClientDC@@QAE@PAVCWnd@@@Z 1001ce5c f   mfc140:mfc140.dll
 0001:0001be62       ??1CClientDC@@UAE@XZ       1001ce62 f   mfc140:mfc140.dll
 0001:0001be68       ?Write@CFile@@UAEXPBXI@Z   1001ce68 f   mfc140:mfc140.dll
 0001:0001be6e       ??0CPtrArray@@QAE@XZ       1001ce6e f   mfc140:mfc140.dll
 0001:0001be74       ?SetSize@CPtrArray@@QAEXHH@Z 1001ce74 f   mfc140:mfc140.dll
 0001:0001be7a       ??1CPtrArray@@UAE@XZ       1001ce7a f   mfc140:mfc140.dll
 0001:0001be80       ??0CMapPtrToPtr@@QAE@H@Z   1001ce80 f   mfc140:mfc140.dll
 0001:0001be86       ?Lookup@CMapPtrToPtr@@QBEHPAXAAPAX@Z 1001ce86 f   mfc140:mfc140.dll
 0001:0001be8c       ??ACMapPtrToPtr@@QAEAAPAXPAX@Z 1001ce8c f   mfc140:mfc140.dll
 0001:0001be92       ?RemoveKey@CMapPtrToPtr@@QAEHPAX@Z 1001ce92 f   mfc140:mfc140.dll
 0001:0001be98       ??1CMapPtrToPtr@@UAE@XZ    1001ce98 f   mfc140:mfc140.dll
 0001:0001be9e       ??0CMapStringToPtr@@QAE@H@Z 1001ce9e f   mfc140:mfc140.dll
 0001:0001bea4       ??ACMapStringToPtr@@QAEAAPAXPBD@Z 1001cea4 f   mfc140:mfc140.dll
 0001:0001beaa       ?RemoveAll@CMapStringToPtr@@QAEXXZ 1001ceaa f   mfc140:mfc140.dll
 0001:0001beb0       ??1CMapStringToPtr@@UAE@XZ 1001ceb0 f   mfc140:mfc140.dll
 0001:0001beb6       ??0CMapStringToString@@QAE@H@Z 1001ceb6 f   mfc140:mfc140.dll
 0001:0001bebc       ??1CMapStringToString@@UAE@XZ 1001cebc f   mfc140:mfc140.dll
 0001:0001bec2       ??0COleVariant@@QAE@PBUtagVARIANT@@@Z 1001cec2 f   mfc140:mfc140.dll
 0001:0001bec8       ??0COleVariant@@QAE@JG@Z   1001cec8 f   mfc140:mfc140.dll
 0001:0001bece       ??0CSyncObject@@QAE@PBD@Z  1001cece f   mfc140:mfc140.dll
 0001:0001bed4       ??1CSyncObject@@UAE@XZ     1001ced4 f   mfc140:mfc140.dll
 0001:0001beda       ?GetRuntimeClass@CCriticalSection@@UBEPAUCRuntimeClass@@XZ 1001ceda f   mfc140:mfc140.dll
 0001:0001bee0       ?MakeLower@?$CStringT@DV?$StrTraitMFC_DLL@DV?$ChTraitsCRT@D@ATL@@@@@ATL@@QAEAAV12@XZ 1001cee0 f   mfc140:mfc140.dll
 0001:0001bee6       ??0CStringArray@@QAE@XZ    1001cee6 f   mfc140:mfc140.dll
 0001:0001beec       ?SetSize@CStringArray@@QAEXHH@Z 1001ceec f   mfc140:mfc140.dll
 0001:0001bef2       ?SetAtGrow@CStringArray@@QAEXHABV?$CStringT@DV?$StrTraitMFC_DLL@DV?$ChTraitsCRT@D@ATL@@@@@ATL@@@Z 1001cef2 f   mfc140:mfc140.dll
 0001:0001bef8       ??1CStringArray@@UAE@XZ    1001cef8 f   mfc140:mfc140.dll
 0001:0001befe       ?AddTail@CStringList@@QAEPAU__POSITION@@ABV?$CStringT@DV?$StrTraitMFC_DLL@DV?$ChTraitsCRT@D@ATL@@@@@ATL@@@Z 1001cefe f   mfc140:mfc140.dll
 0001:0001bf04       ?RemoveAll@CStringList@@QAEXXZ 1001cf04 f   mfc140:mfc140.dll
 0001:0001bf0a       ?RemoveKey@CMapStringToString@@QAEHPBD@Z 1001cf0a f   mfc140:mfc140.dll
 0001:0001bf10       ?GetNextAssoc@CMapStringToString@@QBEXAAPAU__POSITION@@AAV?$CStringT@DV?$StrTraitMFC_DLL@DV?$ChTraitsCRT@D@ATL@@@@@ATL@@1@Z 1001cf10 f   mfc140:mfc140.dll
 0001:0001bf16       ?CollateNoCase@?$CStringT@DV?$StrTraitMFC_DLL@DV?$ChTraitsCRT@D@ATL@@@@@ATL@@QBEHPBD@Z 1001cf16 f   mfc140:mfc140.dll
 0001:0001bf1c       ?Replace@?$CStringT@DV?$StrTraitMFC_DLL@DV?$ChTraitsCRT@D@ATL@@@@@ATL@@QAEHPBD0@Z 1001cf1c f   mfc140:mfc140.dll
 0001:0001bf22       ??0CStdioFile@@QAE@XZ      1001cf22 f   mfc140:mfc140.dll
 0001:0001bf28       ?ReadString@CStdioFile@@UAEHAAV?$CStringT@DV?$StrTraitMFC_DLL@DV?$ChTraitsCRT@D@ATL@@@@@ATL@@@Z 1001cf28 f   mfc140:mfc140.dll
 0001:0001bf2e       ??1CStdioFile@@UAE@XZ      1001cf2e f   mfc140:mfc140.dll
 0001:0001bf34       ?Open@CStdioFile@@UAEHPBDIPAVCFileException@@@Z 1001cf34 f   mfc140:mfc140.dll
 0001:0001bf3a       ?Close@CStdioFile@@UAEXXZ  1001cf3a f   mfc140:mfc140.dll
 0001:0001bf40       ?SetAtGrow@CStringArray@@QAEXHPBD@Z 1001cf40 f   mfc140:mfc140.dll
 0001:0001bf46       ?InsertAt@CStringArray@@QAEXHABV?$CStringT@DV?$StrTraitMFC_DLL@DV?$ChTraitsCRT@D@ATL@@@@@ATL@@H@Z 1001cf46 f   mfc140:mfc140.dll
 0001:0001bf4c       ??$SerializeElements@V?$CStringT@DV?$StrTraitMFC_DLL@DV?$ChTraitsCRT@D@ATL@@@@@ATL@@@@YGXAAVCArchive@@PAV?$CStringT@DV?$StrTraitMFC_DLL@DV?$ChTraitsCRT@D@ATL@@@@@ATL@@H@Z 1001cf4c f   mfc140:mfc140.dll
 0001:0001bf52       ??$HashKey@PBD@@YGIPBD@Z   1001cf52 f   mfc140:mfc140.dll
 0001:0001bf58       ??0?$CStringT@DV?$StrTraitMFC_DLL@DV?$ChTraitsCRT@D@ATL@@@@@ATL@@QAE@PBE@Z 1001cf58 f   mfc140:mfc140.dll
 0001:0001bf5e       ?AfxExtractSubString@@YGHAAV?$CStringT@DV?$StrTraitMFC_DLL@DV?$ChTraitsCRT@D@ATL@@@@@ATL@@PBDHD@Z 1001cf5e f   mfc140:mfc140.dll
 0001:0001bf64       ?AfxGetClassIDFromString@@YGJPBDPAU_GUID@@@Z 1001cf64 f   mfc140:mfc140.dll
 0001:0001bf6a       ??$AtlAdd@H@ATL@@YAJPAHHH@Z 1001cf6a f i mfcs140:nolib.obj
 0001:0001bf90       ??$AtlAdd@I@ATL@@YAJPAIII@Z 1001cf90 f i mfcs140:nolib.obj
 0001:0001bfb3       ??$AtlAdd@K@ATL@@YAJPAKKK@Z 1001cfb3 f i mfcs140:nolib.obj
 0001:0001bfd6       ??$AtlAlignUp@H@ATL@@YGHHK@Z 1001cfd6 f i mfcs140:nolib.obj
 0001:0001bfea       ??$AtlMultiply@I@ATL@@YAJPAIII@Z 1001cfea f i mfcs140:nolib.obj
 0001:0001c00c       ??$AtlMultiply@K@ATL@@YAJPAKKK@Z 1001d00c f i mfcs140:nolib.obj
 0001:0001c02e       ??0?$CSimpleArray@GV?$CSimpleArrayEqualHelper@G@ATL@@@ATL@@QAE@XZ 1001d02e f i mfcs140:nolib.obj
 0001:0001c03b       ??0?$CTraceCategoryEx@$00$0A@@ATL@@QAE@PBD@Z 1001d03b f i mfcs140:nolib.obj
 0001:0001c040       ??0?$CTraceCategoryEx@$01$0A@@ATL@@QAE@PBD@Z 1001d040 f i mfcs140:nolib.obj
 0001:0001c045       ??0?$CTraceCategoryEx@$03$0A@@ATL@@QAE@PBD@Z 1001d045 f i mfcs140:nolib.obj
 0001:0001c04a       ??0?$CTraceCategoryEx@$07$0A@@ATL@@QAE@PBD@Z 1001d04a f i mfcs140:nolib.obj
 0001:0001c04f       ??0?$CTraceCategoryEx@$0BA@$0A@@ATL@@QAE@PBD@Z 1001d04f f i mfcs140:nolib.obj
 0001:0001c054       ??0?$CTraceCategoryEx@$0BAA@$0A@@ATL@@QAE@PBD@Z 1001d054 f i mfcs140:nolib.obj
 0001:0001c059       ??0?$CTraceCategoryEx@$0BAAA@$0A@@ATL@@QAE@PBD@Z 1001d059 f i mfcs140:nolib.obj
 0001:0001c05e       ??0?$CTraceCategoryEx@$0BAAAA@$0A@@ATL@@QAE@PBD@Z 1001d05e f i mfcs140:nolib.obj
 0001:0001c063       ??0?$CTraceCategoryEx@$0BAAAAA@$0A@@ATL@@QAE@PBD@Z 1001d063 f i mfcs140:nolib.obj
 0001:0001c068       ??0?$CTraceCategoryEx@$0CA@$0A@@ATL@@QAE@PBD@Z 1001d068 f i mfcs140:nolib.obj
 0001:0001c06d       ??0?$CTraceCategoryEx@$0CAA@$0A@@ATL@@QAE@PBD@Z 1001d06d f i mfcs140:nolib.obj
 0001:0001c072       ??0?$CTraceCategoryEx@$0CAAA@$0A@@ATL@@QAE@PBD@Z 1001d072 f i mfcs140:nolib.obj
 0001:0001c077       ??0?$CTraceCategoryEx@$0CAAAA@$0A@@ATL@@QAE@PBD@Z 1001d077 f i mfcs140:nolib.obj
 0001:0001c07c       ??0?$CTraceCategoryEx@$0CAAAAA@$0A@@ATL@@QAE@PBD@Z 1001d07c f i mfcs140:nolib.obj
 0001:0001c081       ??0?$CTraceCategoryEx@$0EA@$0A@@ATL@@QAE@PBD@Z 1001d081 f i mfcs140:nolib.obj
 0001:0001c086       ??0?$CTraceCategoryEx@$0EAA@$0A@@ATL@@QAE@PBD@Z 1001d086 f i mfcs140:nolib.obj
 0001:0001c08b       ??0?$CTraceCategoryEx@$0EAAA@$0A@@ATL@@QAE@PBD@Z 1001d08b f i mfcs140:nolib.obj
 0001:0001c090       ??0?$CTraceCategoryEx@$0EAAAA@$0A@@ATL@@QAE@PBD@Z 1001d090 f i mfcs140:nolib.obj
 0001:0001c095       ??0?$CTraceCategoryEx@$0EAAAAA@$0A@@ATL@@QAE@PBD@Z 1001d095 f i mfcs140:nolib.obj
 0001:0001c09a       ??0?$CTraceCategoryEx@$0IA@$0A@@ATL@@QAE@PBD@Z 1001d09a f i mfcs140:nolib.obj
 0001:0001c09f       ??0?$CTraceCategoryEx@$0IAA@$0A@@ATL@@QAE@PBD@Z 1001d09f f i mfcs140:nolib.obj
 0001:0001c0a4       ??0?$CTraceCategoryEx@$0IAAA@$0A@@ATL@@QAE@PBD@Z 1001d0a4 f i mfcs140:nolib.obj
 0001:0001c0a9       ??0?$CTraceCategoryEx@$0IAAAA@$0A@@ATL@@QAE@PBD@Z 1001d0a9 f i mfcs140:nolib.obj
 0001:0001c0ae       ??0CAtlComModule@ATL@@QAE@XZ 1001d0ae f i mfcs140:nolib.obj
 0001:0001c0ed       ??0CAtlStringMgr@ATL@@QAE@PAUIAtlMemMgr@1@@Z 1001d0ed f i mfcs140:nolib.obj
 0001:0001c119       ??0CAtlStringMgrStaticInitializer@ATLImplementationDetails@ATL@@QAE@XZ 1001d119 f i mfcs140:nolib.obj
 0001:0001c125       ??0CAtlWinModule@ATL@@QAE@XZ 1001d125 f i mfcs140:nolib.obj
 0001:0001c153       ??0CComCriticalSection@ATL@@QAE@XZ 1001d153 f i mfcs140:nolib.obj
 0001:0001c167       ??0CNilStringData@ATL@@QAE@XZ 1001d167 f i mfcs140:nolib.obj
 0001:0001c17e       ??0CWin32Heap@ATL@@QAE@PAX@Z 1001d17e f i mfcs140:nolib.obj
 0001:0001c197       ??0_ATL_COM_MODULE70@ATL@@QAE@XZ 1001d197 f i mfcs140:nolib.obj
 0001:0001c1ae       ??0_ATL_WIN_MODULE70@ATL@@QAE@XZ 1001d1ae f i mfcs140:nolib.obj
 0001:0001c1d9       ??1?$CSimpleArray@GV?$CSimpleArrayEqualHelper@G@ATL@@@ATL@@QAE@XZ 1001d1d9 f i mfcs140:nolib.obj
 0001:0001c1de       ??1CAtlComModule@ATL@@QAE@XZ 1001d1de f i mfcs140:nolib.obj
 0001:0001c217       ??1CAtlWinModule@ATL@@QAE@XZ 1001d217 f i mfcs140:nolib.obj
 0001:0001c22f       ??1CComBSTR@ATL@@QAE@XZ    1001d22f f i mfcs140:nolib.obj
 0001:0001c238       ??1CComCriticalSection@ATL@@QAE@XZ 1001d238 f i mfcs140:nolib.obj
 0001:0001c23b       ??1_ATL_COM_MODULE70@ATL@@QAE@XZ 1001d23b f i mfcs140:nolib.obj
 0001:0001c23e       ??1_ATL_WIN_MODULE70@ATL@@QAE@XZ 1001d23e f i mfcs140:nolib.obj
 0001:0001c246       ??1stringdispid@CComTypeInfoHolder@ATL@@QAE@XZ 1001d246 f i mfcs140:nolib.obj
 0001:0001c24f       ??A?$CSimpleArray@GV?$CSimpleArrayEqualHelper@G@ATL@@@ATL@@QAEAAGH@Z 1001d24f f i mfcs140:nolib.obj
 0001:0001c274       ??_Estringdispid@CComTypeInfoHolder@ATL@@QAEPAXI@Z 1001d274 f i mfcs140:nolib.obj
 0001:0001c2ff       ?AddRef@CStringData@ATL@@QAEXXZ 1001d2ff f i mfcs140:nolib.obj
 0001:0001c304       ?AtlWinModuleInit@ATL@@YGJPAU_ATL_WIN_MODULE70@1@@Z 1001d304 f i mfcs140:nolib.obj
 0001:0001c32a       ?AtlWinModuleTerm@ATL@@YGJPAU_ATL_WIN_MODULE70@1@PAUHINSTANCE__@@@Z 1001d32a f i mfcs140:nolib.obj
 0001:0001c38c       ?GetInstance@CAtlStringMgr@ATL@@SAPAUIAtlStringMgr@2@XZ 1001d38c f i mfcs140:nolib.obj
 0001:0001c3f6       ?GetModuleInstance@CAtlBaseModule@ATL@@QAEPAUHINSTANCE__@@XZ 1001d3f6 f i mfcs140:nolib.obj
 0001:0001c3fa       ?GetSize@?$CSimpleArray@GV?$CSimpleArrayEqualHelper@G@ATL@@@ATL@@QBEHXZ 1001d3fa f i mfcs140:nolib.obj
 0001:0001c3fe       ?Init@CComCriticalSection@ATL@@QAEJXZ 1001d3fe f i mfcs140:nolib.obj
 0001:0001c426       ?RemoveAll@?$CSimpleArray@GV?$CSimpleArrayEqualHelper@G@ATL@@@ATL@@QAEXXZ 1001d426 f i mfcs140:nolib.obj
 0001:0001c444       ?SetManager@CNilStringData@ATL@@QAEXPAUIAtlStringMgr@2@@Z 1001d444 f i mfcs140:nolib.obj
 0001:0001c450       ?Term@CAtlComModule@ATL@@QAEXXZ 1001d450 f i mfcs140:nolib.obj
 0001:0001c4af       ?Term@CAtlWinModule@ATL@@QAEXXZ 1001d4af f i mfcs140:nolib.obj
 0001:0001c4bc       ?Term@CComCriticalSection@ATL@@QAEJXZ 1001d4bc f i mfcs140:nolib.obj
 0001:0001c4c6       _HRESULT_FROM_WIN32        1001d4c6 f i mfcs140:nolib.obj
 0001:0001c4da       _IsolationAwareActivateActCtx@8 1001d4da f i mfcs140:nolib.obj
 0001:0001c51d       _IsolationAwareCreateActCtxW@4 1001d51d f i mfcs140:nolib.obj
 0001:0001c562       _IsolationAwareDeactivateActCtx@8 1001d562 f i mfcs140:nolib.obj
 0001:0001c5a5       _IsolationAwareFindActCtxSectionStringW@20 1001d5a5 f i mfcs140:nolib.obj
 0001:0001c5f1       _IsolationAwarePrivatenPgViNgRzlnPgpgk@4 1001d5f1 f i mfcs140:nolib.obj
 0001:0001c66c       _IsolationAwarePrivatezltRgCebPnQQeRff@12 1001d66c f i mfcs140:nolib.obj
 0001:0001c6aa       _IsolationAwarePrivatezltRgzbQhYRuNaQYRJ@4 1001d6aa f i mfcs140:nolib.obj
 0001:0001c6b4       _IsolationAwarePrivatezltRgzbQhYRuNaQYRn@4 1001d6b4 f i mfcs140:nolib.obj
 0001:0001c6be       _IsolationAwareQueryActCtxW@28 1001d6be f i mfcs140:nolib.obj
 0001:0001c710       _IsolationAwareUnregisterClassA@8 1001d710 f i mfcs140:nolib.obj
 0001:0001c7ba       _WinbaseIsolationAwarePrivatetRgCebPnQQeRff_xReaRYQP_QYY@4 1001d7ba f i mfcs140:nolib.obj
 0001:0001c7d3       _WinbaseIsolationAwarePrivatetRgzlnPgpgk@0 1001d7d3 f i mfcs140:nolib.obj
 0001:0001c99f       _RawDllMain@12             1001d99f f   mfcs140:dllmodul.obj
 0001:0001c9f2       ??0_AFX_DLL_MODULE_STATE@@QAE@XZ 1001d9f2 f i mfcs140:dllmodul.obj
 0001:0001ca1a       ??1_AFX_DLL_MODULE_STATE@@UAE@XZ 1001da1a f i mfcs140:dllmodul.obj
 0001:0001ca1f       ??_E_AFX_DLL_MODULE_STATE@@UAEPAXI@Z 1001da1f f i mfcs140:dllmodul.obj
 0001:0001ca1f       ??_G_AFX_DLL_MODULE_STATE@@UAEPAXI@Z 1001da1f f i mfcs140:dllmodul.obj
 0001:0001ca52       ?AfxGetStaticModuleState@@YGPAVAFX_MODULE_STATE@@XZ 1001da52 f   mfcs140:dllmodul.obj
 0001:0001ca58       ?AfxWndProcDllStatic@@YGJPAUHWND__@@IIJ@Z 1001da58 f   mfcs140:dllmodul.obj
 0001:0001ca9f       _DllMain@12                1001da9f f   mfcs140:dllmodul.obj
 0001:0001cae8       _InternalDllMain@12        1001dae8 f   mfcs140:dllmodul.obj
 0001:0001cc6e       ??2CObject@@SGPAXI@Z       1001dc6e f i mfcs140:dllmodulx.obj
 0001:0001cc7e       ?AfxGetApp@@YGPAVCWinApp@@XZ 1001dc7e f i mfcs140:dllmodulx.obj
 0001:0001cc87       __AfxDllModulHelper        1001dc87 f   mfcs140:dllmodulx.obj
 0001:0001ccd4       ??3@YAXPAXI@Z              1001dcd4 f   msvcrt:delete_scalar_size.obj
 0001:0001cce2       @__security_check_cookie@4 1001dce2 f   msvcrt:secchk.obj
 0001:0001ccf0       ??1type_info@@UAE@XZ       1001dcf0 f   msvcrt:std_type_info_static.obj
 0001:0001ccf7       ??_Etype_info@@UAEPAXI@Z   1001dcf7 f i msvcrt:std_type_info_static.obj
 0001:0001ccf7       ??_Gtype_info@@UAEPAXI@Z   1001dcf7 f i msvcrt:std_type_info_static.obj
 0001:0001cd1a       ?configure_argv@__scrt_narrow_argv_policy@@SAHXZ 1001dd1a f i msvcrt:utility.obj
 0001:0001cd6b       ?initialize_environment@__scrt_narrow_environment_policy@@SAHXZ 1001dd6b f i msvcrt:utility.obj
 0001:0001cda4       _NtCurrentTeb              1001dda4 f i msvcrt:utility.obj
 0001:0001cdab       ___scrt_acquire_startup_lock 1001ddab f   msvcrt:utility.obj
 0001:0001cddd       ___scrt_dllmain_after_initialize_c 1001dddd f   msvcrt:utility.obj
 0001:0001ce08       ___scrt_dllmain_before_initialize_c 1001de08 f   msvcrt:utility.obj
 0001:0001ce16       ___scrt_dllmain_crt_thread_attach 1001de16 f   msvcrt:utility.obj
 0001:0001ce35       ___scrt_dllmain_crt_thread_detach 1001de35 f   msvcrt:utility.obj
 0001:0001ce42       ___scrt_dllmain_exception_filter 1001de42 f   msvcrt:utility.obj
 0001:0001ce76       ___scrt_dllmain_uninitialize_c 1001de76 f   msvcrt:utility.obj
 0001:0001ce99       ___scrt_dllmain_uninitialize_critical 1001de99 f   msvcrt:utility.obj
 0001:0001cea6       ___scrt_initialize_crt     1001dea6 f   msvcrt:utility.obj
 0001:0001cedf       ___scrt_initialize_onexit_tables 1001dedf f   msvcrt:utility.obj
 0001:0001cf66       ___scrt_is_nonwritable_in_current_image 1001df66 f   msvcrt:utility.obj
 0001:0001cffa       ___scrt_release_startup_lock 1001dffa f   msvcrt:utility.obj
 0001:0001d017       ___scrt_uninitialize_crt   1001e017 f   msvcrt:utility.obj
 0001:0001d03f       __onexit                   1001e03f f   msvcrt:utility.obj
 0001:0001d06c       _at_quick_exit             1001e06c f   msvcrt:utility.obj
 0001:0001d08f       _atexit                    1001e08f f   msvcrt:utility.obj
 0001:0001d169       __Init_thread_abort        1001e169 f   msvcrt:thread_safe_statics.obj
 0001:0001d18d       __Init_thread_footer       1001e18d f   msvcrt:thread_safe_statics.obj
 0001:0001d1d7       __Init_thread_header       1001e1d7 f   msvcrt:thread_safe_statics.obj
 0001:0001d229       __Init_thread_lock         1001e229 f   msvcrt:thread_safe_statics.obj
 0001:0001d235       __Init_thread_notify       1001e235 f   msvcrt:thread_safe_statics.obj
 0001:0001d26b       __Init_thread_unlock       1001e26b f   msvcrt:thread_safe_statics.obj
 0001:0001d277       __Init_thread_wait         1001e277 f   msvcrt:thread_safe_statics.obj
 0001:0001d2c5       ??_L@YGXPAXIHP6EX0@Z1@Z    1001e2c5 f   msvcrt:ehvecctr.obj
 0001:0001d2ca       ??_L@YGXPAXIIP6EX0@Z1@Z    1001e2ca f   msvcrt:ehvecctr.obj
 0001:0001d33e       ??_M@YGXPAXIHP6EX0@Z@Z     1001e33e f   msvcrt:ehvecdtr.obj
 0001:0001d343       ??_M@YGXPAXIIP6EX0@Z@Z     1001e343 f   msvcrt:ehvecdtr.obj
 0001:0001d3f7       ?__ArrayUnwind@@YGXPAXIIP6EX0@Z@Z 1001e3f7 f   msvcrt:ehvecdtr.obj
 0001:0001d487       ___raise_securityfailure   1001e487 f   msvcrt:gs_report.obj
 0001:0001d4af       ___report_gsfailure        1001e4af f   msvcrt:gs_report.obj
 0001:0001d5a9       ___report_rangecheckfailure 1001e5a9 f   msvcrt:gs_report.obj
 0001:0001d5b5       ___report_securityfailure  1001e5b5 f   msvcrt:gs_report.obj
 0001:0001d684       ___report_securityfailureEx 1001e684 f   msvcrt:gs_report.obj
 0001:0001d7a0       __alloca_probe             1001e7a0 f   msvcrt:chkstk.obj
 0001:0001d7a0       __chkstk                   1001e7a0 f   msvcrt:chkstk.obj
 0001:0001d7d0       __alloca_probe_16          1001e7d0 f   msvcrt:alloca16.obj
 0001:0001d7e6       __alloca_probe_8           1001e7e6     msvcrt:alloca16.obj
 0001:0001db3c       __CRT_INIT@12              1001eb3c f   msvcrt:dll_dllmain.obj
 0001:0001db45       __DllMainCRTStartup@12     1001eb45 f   msvcrt:dll_dllmain.obj
 0001:0001db68       ??_V@YAXPAXI@Z             1001eb68 f   msvcrt:delete_array_size.obj
 0001:0001db76       __EH_epilog3               1001eb76 f   msvcrt:ehprolg3.obj
 0001:0001db8a       __EH_epilog3_GS            1001eb8a f   msvcrt:ehprolg3.obj
 0001:0001db99       __EH_epilog3_catch_GS      1001eb99 f   msvcrt:ehprolg3.obj
 0001:0001dba8       __EH_prolog3               1001eba8 f   msvcrt:ehprolg3.obj
 0001:0001dbdb       __EH_prolog3_GS            1001ebdb f   msvcrt:ehprolg3.obj
 0001:0001dc11       __EH_prolog3_catch         1001ec11 f   msvcrt:ehprolg3.obj
 0001:0001dc47       __EH_prolog3_catch_GS      1001ec47 f   msvcrt:ehprolg3.obj
 0001:0001dc80       __SEH_prolog4              1001ec80 f   msvcrt:sehprolg4.obj
 0001:0001dcd0       __SEH_epilog4              1001ecd0 f   msvcrt:sehprolg4.obj
 0001:0001dcf0       __SEH_prolog4_GS           1001ecf0 f   msvcrt:sehprolg4gs.obj
 0001:0001dd40       __SEH_epilog4_GS           1001ed40 f   msvcrt:sehprolg4gs.obj
 0001:0001dd4f       __except_handler4          1001ed4f f   msvcrt:chandler4gs.obj
 0001:0001dd7e       @_guard_check_icall_nop@4  1001ed7e f i msvcrt:guard_support.obj
 0001:0001dd81       _ReadNoFence               1001ed81 f i msvcrt:guard_support.obj
 0001:0001dd8b       _ReadPointerNoFence        1001ed8b f i msvcrt:guard_support.obj
 0001:0001dd95       ___castguard_check_failure_debugbreak 1001ed95 f i msvcrt:guard_support.obj
 0001:0001ddb0       ___castguard_check_failure_fastfail 1001edb0 f i msvcrt:guard_support.obj
 0001:0001ddcf       ___castguard_check_failure_nop 1001edcf f i msvcrt:guard_support.obj
 0001:0001ddd2       ___castguard_check_failure_os_handled 1001edd2 f i msvcrt:guard_support.obj
 0001:0001de26       ___castguard_slow_path_check_debugbreak 1001ee26 f i msvcrt:guard_support.obj
 0001:0001de53       ___castguard_slow_path_check_fastfail 1001ee53 f i msvcrt:guard_support.obj
 0001:0001de84       ___castguard_slow_path_check_nop 1001ee84 f i msvcrt:guard_support.obj
 0001:0001de87       ___castguard_slow_path_check_os_handled 1001ee87 f i msvcrt:guard_support.obj
 0001:0001deed       __guard_icall_checks_enforced 1001eeed f i msvcrt:guard_support.obj
 0001:0001deff       ___isa_available_init      1001eeff f   msvcrt:cpu_disp.obj
 0001:0001e0d0       __get_startup_argv_mode    1001f0d0 f   msvcrt:argv_mode.obj
 0001:0001e0d4       ___scrt_is_ucrt_dll_in_use 1001f0d4 f   msvcrt:ucrt_detection.obj
 0001:0001e0e0       ___scrt_fastfail           1001f0e0 f   msvcrt:utility_desktop.obj
 0001:0001e1fb       ___scrt_get_show_window_mode 1001f1fb f   msvcrt:utility_desktop.obj
 0001:0001e22c       ___scrt_initialize_mta     1001f22c f   msvcrt:utility_desktop.obj
 0001:0001e231       ___scrt_initialize_winrt   1001f231 f   msvcrt:utility_desktop.obj
 0001:0001e234       ___scrt_is_managed_app     1001f234 f   msvcrt:utility_desktop.obj
 0001:0001e277       ___scrt_set_unhandled_exception_filter 1001f277 f   msvcrt:utility_desktop.obj
 0001:0001e283       ___scrt_stub_for_initialize_mta 1001f283 f   msvcrt:utility_desktop.obj
 0001:0001e283       ___scrt_exe_initialize_mta 1001f283 f   msvcrt:utility_desktop.obj
 0001:0001e286       ___scrt_unhandled_exception_filter@4 1001f286 f   msvcrt:utility_desktop.obj
 0001:0001e2dc       __crt_debugger_hook        1001f2dc f   msvcrt:utility_desktop.obj
 0001:0001e331       ___security_init_cookie    1001f331 f   msvcrt:gs_support.obj
 0001:0001e37c       ?__scrt_initialize_type_info@@YAXXZ 1001f37c f   msvcrt:tncleanup.obj
 0001:0001e388       ?__scrt_uninitialize_type_info@@YAXXZ 1001f388 f   msvcrt:tncleanup.obj
 0001:0001e394       ___scrt_initialize_default_local_stdio_options 1001f394 f   msvcrt:default_local_stdio_options.obj
 0001:0001e3b1       ___scrt_get_dyn_tls_init_callback 1001f3b1 f   msvcrt:dyn_tls_init.obj
 0001:0001e3b7       __RTC_Initialize           1001f3b7 f   msvcrt:initsect.obj
 0001:0001e3e3       __RTC_Terminate            1001f3e3 f   msvcrt:initsect.obj
 0001:0001e40f       _FreeLibrary@4             1001f40f f   kernel32:KERNEL32.dll
 0001:0001e415       _GetProcAddress@8          1001f415 f   kernel32:KERNEL32.dll
 0001:0001e41b       _LoadLibraryA@4            1001f41b f   kernel32:KERNEL32.dll
 0001:0001e421       _SetEnvironmentVariableA@8 1001f421 f   kernel32:KERNEL32.dll
 0001:0001e427       _DeleteFileA@4             1001f427 f   kernel32:KERNEL32.dll
 0001:0001e42d       _GetModuleFileNameA@12     1001f42d f   kernel32:KERNEL32.dll
 0001:0001e433       _GetModuleHandleA@4        1001f433 f   kernel32:KERNEL32.dll
 0001:0001e439       _GetPrivateProfileIntA@16  1001f439 f   kernel32:KERNEL32.dll
 0001:0001e43f       _GetPrivateProfileStringA@24 1001f43f f   kernel32:KERNEL32.dll
 0001:0001e445       _WritePrivateProfileStringA@16 1001f445 f   kernel32:KERNEL32.dll
 0001:0001e44b       _DecodePointer@4           1001f44b f   kernel32:KERNEL32.dll
 0001:0001e451       _RaiseException@16         1001f451 f   kernel32:KERNEL32.dll
 0001:0001e457       _GetLastError@0            1001f457 f   kernel32:KERNEL32.dll
 0001:0001e45d       _HeapDestroy@4             1001f45d f   kernel32:KERNEL32.dll
 0001:0001e463       _HeapAlloc@12              1001f463 f   kernel32:KERNEL32.dll
 0001:0001e469       _HeapReAlloc@16            1001f469 f   kernel32:KERNEL32.dll
 0001:0001e46f       _HeapFree@12               1001f46f f   kernel32:KERNEL32.dll
 0001:0001e475       _HeapSize@12               1001f475 f   kernel32:KERNEL32.dll
 0001:0001e47b       _GetProcessHeap@0          1001f47b f   kernel32:KERNEL32.dll
 0001:0001e481       _InitializeCriticalSectionEx@12 1001f481 f   kernel32:KERNEL32.dll
 0001:0001e487       _DeleteCriticalSection@4   1001f487 f   kernel32:KERNEL32.dll
 0001:0001e48d       _CreateFileA@28            1001f48d f   kernel32:KERNEL32.dll
 0001:0001e493       _WriteFile@20              1001f493 f   kernel32:KERNEL32.dll
 0001:0001e499       _CloseHandle@4             1001f499 f   kernel32:KERNEL32.dll
 0001:0001e49f       _GetTickCount@0            1001f49f f   kernel32:KERNEL32.dll
 0001:0001e4a5       _MulDiv@12                 1001f4a5 f   kernel32:KERNEL32.dll
 0001:0001e4ab       _lstrcpyA@8                1001f4ab f   kernel32:KERNEL32.dll
 0001:0001e4b1       _MultiByteToWideChar@24    1001f4b1 f   kernel32:KERNEL32.dll
 0001:0001e4b7       _OutputDebugStringA@4      1001f4b7 f   kernel32:KERNEL32.dll
 0001:0001e4bd       _EnterCriticalSection@4    1001f4bd f   kernel32:KERNEL32.dll
 0001:0001e4c3       _LeaveCriticalSection@4    1001f4c3 f   kernel32:KERNEL32.dll
 0001:0001e4c9       _InitializeCriticalSectionAndSpinCount@8 1001f4c9 f   kernel32:KERNEL32.dll
 0001:0001e4cf       _GetPrivateProfileSectionA@16 1001f4cf f   kernel32:KERNEL32.dll
 0001:0001e4d5       _SetCurrentDirectoryA@4    1001f4d5 f   kernel32:KERNEL32.dll
 0001:0001e4db       _GetCurrentDirectoryA@8    1001f4db f   kernel32:KERNEL32.dll
 0001:0001e4e1       _GetLongPathNameA@12       1001f4e1 f   kernel32:KERNEL32.dll
 0001:0001e4e7       _WaitForSingleObject@8     1001f4e7 f   kernel32:KERNEL32.dll
 0001:0001e4ed       _GetExitCodeProcess@8      1001f4ed f   kernel32:KERNEL32.dll
 0001:0001e4f3       _CreateProcessA@40         1001f4f3 f   kernel32:KERNEL32.dll
 0001:0001e4f9       _GetWindowsDirectoryA@8    1001f4f9 f   kernel32:KERNEL32.dll
 0001:0001e4ff       _LocalFree@4               1001f4ff f   kernel32:KERNEL32.dll
 0001:0001e505       _FormatMessageA@28         1001f505 f   kernel32:KERNEL32.dll
 0001:0001e50b       _WideCharToMultiByte@32    1001f50b f   kernel32:KERNEL32.dll
 0001:0001e511       _GetEnvironmentVariableA@12 1001f511 f   kernel32:KERNEL32.dll
 0001:0001e517       _SetLastError@4            1001f517 f   kernel32:KERNEL32.dll
 0001:0001e51d       _GetModuleFileNameW@12     1001f51d f   kernel32:KERNEL32.dll
 0001:0001e523       _GetModuleHandleW@4        1001f523 f   kernel32:KERNEL32.dll
 0001:0001e529       _LoadLibraryW@4            1001f529 f   kernel32:KERNEL32.dll
 0001:0001e52f       _LocalAlloc@8              1001f52f f   kernel32:KERNEL32.dll
 0001:0001e535       _SetEvent@4                1001f535 f   kernel32:KERNEL32.dll
 0001:0001e53b       _ResetEvent@4              1001f53b f   kernel32:KERNEL32.dll
 0001:0001e541       _WaitForSingleObjectEx@12  1001f541 f   kernel32:KERNEL32.dll
 0001:0001e547       _CreateEventW@16           1001f547 f   kernel32:KERNEL32.dll
 0001:0001e54d       _UnhandledExceptionFilter@4 1001f54d f   kernel32:KERNEL32.dll
 0001:0001e553       _SetUnhandledExceptionFilter@4 1001f553 f   kernel32:KERNEL32.dll
 0001:0001e559       _GetCurrentProcess@0       1001f559 f   kernel32:KERNEL32.dll
 0001:0001e55f       _TerminateProcess@8        1001f55f f   kernel32:KERNEL32.dll
 0001:0001e565       _IsProcessorFeaturePresent@4 1001f565 f   kernel32:KERNEL32.dll
 0001:0001e56b       _IsDebuggerPresent@0       1001f56b f   kernel32:KERNEL32.dll
 0001:0001e571       _GetStartupInfoW@4         1001f571 f   kernel32:KERNEL32.dll
 0001:0001e577       _QueryPerformanceCounter@4 1001f577 f   kernel32:KERNEL32.dll
 0001:0001e57d       _GetCurrentProcessId@0     1001f57d f   kernel32:KERNEL32.dll
 0001:0001e583       _GetCurrentThreadId@0      1001f583 f   kernel32:KERNEL32.dll
 0001:0001e589       _GetSystemTimeAsFileTime@4 1001f589 f   kernel32:KERNEL32.dll
 0001:0001e58f       _InitializeSListHead@4     1001f58f f   kernel32:KERNEL32.dll
 0001:0001e595       _RegisterWindowMessageA@4  1001f595 f   user32:USER32.dll
 0001:0001e59b       _InvalidateRect@12         1001f59b f   user32:USER32.dll
 0001:0001e5a1       _GetClientRect@8           1001f5a1 f   user32:USER32.dll
 0001:0001e5a7       _GetWindowRect@8           1001f5a7 f   user32:USER32.dll
 0001:0001e5ad       _SetRect@20                1001f5ad f   user32:USER32.dll
 0001:0001e5b3       _EnableWindow@8            1001f5b3 f   user32:USER32.dll
 0001:0001e5b9       _SendMessageA@16           1001f5b9 f   user32:USER32.dll
 0001:0001e5bf       _UnregisterClassA@8        1001f5bf f   user32:USER32.dll
 0001:0001e5c5       _TranslateMessage@4        1001f5c5 f   user32:USER32.dll
 0001:0001e5cb       _DispatchMessageA@4        1001f5cb f   user32:USER32.dll
 0001:0001e5d1       _PeekMessageA@20           1001f5d1 f   user32:USER32.dll
 0001:0001e5d7       _PostQuitMessage@4         1001f5d7 f   user32:USER32.dll
 0001:0001e5dd       _SetTimer@16               1001f5dd f   user32:USER32.dll
 0001:0001e5e3       _KillTimer@8               1001f5e3 f   user32:USER32.dll
 0001:0001e5e9       _LoadCursorA@8             1001f5e9 f   user32:USER32.dll
 0001:0001e5ef       _GetDeviceCaps@8           1001f5ef f   gdi32:GDI32.dll
 0001:0001e5f5       _RegCloseKey@4             1001f5f5 f   advapi32:ADVAPI32.dll
 0001:0001e5fb       _RegOpenKeyExA@20          1001f5fb f   advapi32:ADVAPI32.dll
 0001:0001e601       _RegQueryValueExA@24       1001f601 f   advapi32:ADVAPI32.dll
 0001:0001e607       _RegCreateKeyExA@36        1001f607 f   advapi32:ADVAPI32.dll
 0001:0001e60d       _RegOpenKeyA@12            1001f60d f   advapi32:ADVAPI32.dll
 0001:0001e613       _RegSetValueExA@24         1001f613 f   advapi32:ADVAPI32.dll
 0001:0001e619       ??$?2PAUHINSTANCE__@@@Wrapper@?$CSimpleArray@PAUHINSTANCE__@@V?$CSimpleArrayEqualHelper@PAUHINSTANCE__@@@ATL@@@ATL@@SAPAXIPAPAUHINSTANCE__@@@Z 1001f619 f i atls:atlbase.obj
 0001:0001e621       ??0?$CComCritSecLock@VCComCriticalSection@ATL@@@ATL@@QAE@AAVCComCriticalSection@1@_N@Z 1001f621 f i atls:atlbase.obj
 0001:0001e648       ??0?$CSimpleArray@PAUHINSTANCE__@@V?$CSimpleArrayEqualHelper@PAUHINSTANCE__@@@ATL@@@ATL@@QAE@XZ 1001f648 f i atls:atlbase.obj
 0001:0001e655       ??0CAtlBaseModule@ATL@@QAE@XZ 1001f655 f   atls:atlbase.obj
 0001:0001e6a8       ??0Wrapper@?$CSimpleArray@PAUHINSTANCE__@@V?$CSimpleArrayEqualHelper@PAUHINSTANCE__@@@ATL@@@ATL@@QAE@ABQAUHINSTANCE__@@@Z 1001f6a8 f i atls:atlbase.obj
 0001:0001e6b8       ??0_ATL_BASE_MODULE70@ATL@@QAE@XZ 1001f6b8 f i atls:atlbase.obj
 0001:0001e6db       ??1?$CComCritSecLock@VCComCriticalSection@ATL@@@ATL@@QAE@XZ 1001f6db f i atls:atlbase.obj
 0001:0001e6f2       ??1?$CSimpleArray@PAUHINSTANCE__@@V?$CSimpleArrayEqualHelper@PAUHINSTANCE__@@@ATL@@@ATL@@QAE@XZ 1001f6f2 f i atls:atlbase.obj
 0001:0001e6f7       ??1CAtlBaseModule@ATL@@QAE@XZ 1001f6f7 f   atls:atlbase.obj
 0001:0001e70d       ??1_ATL_BASE_MODULE70@ATL@@QAE@XZ 1001f70d f i atls:atlbase.obj
 0001:0001e715       ??A?$CSimpleArray@PAUHINSTANCE__@@V?$CSimpleArrayEqualHelper@PAUHINSTANCE__@@@ATL@@@ATL@@QAEAAPAUHINSTANCE__@@H@Z 1001f715 f i atls:atlbase.obj
 0001:0001e73a       ?Add@?$CSimpleArray@PAUHINSTANCE__@@V?$CSimpleArrayEqualHelper@PAUHINSTANCE__@@@ATL@@@ATL@@QAEHABQAUHINSTANCE__@@@Z 1001f73a f i atls:atlbase.obj
 0001:0001e7bc       ?AddResourceInstance@CAtlBaseModule@ATL@@QAE_NPAUHINSTANCE__@@@Z 1001f7bc f   atls:atlbase.obj
 0001:0001e7ef       ?AtlCrtErrorCheck@ATL@@YAHH@Z 1001f7ef f i atls:atlbase.obj
 0001:0001e82a       ?GetHInstanceAt@CAtlBaseModule@ATL@@QAEPAUHINSTANCE__@@H@Z 1001f82a f   atls:atlbase.obj
 0001:0001e86f       ?GetSize@?$CSimpleArray@PAUHINSTANCE__@@V?$CSimpleArrayEqualHelper@PAUHINSTANCE__@@@ATL@@@ATL@@QBEHXZ 1001f86f f i atls:atlbase.obj
 0001:0001e873       ?InternalSetAtIndex@?$CSimpleArray@PAUHINSTANCE__@@V?$CSimpleArrayEqualHelper@PAUHINSTANCE__@@@ATL@@@ATL@@QAEXHABQAUHINSTANCE__@@@Z 1001f873 f i atls:atlbase.obj
 0001:0001e88d       ?Lock@?$CComCritSecLock@VCComCriticalSection@ATL@@@ATL@@QAEJXZ 1001f88d f i atls:atlbase.obj
 0001:0001e8a0       ?Lock@CComCriticalSection@ATL@@QAEJXZ 1001f8a0 f i atls:atlbase.obj
 0001:0001e8aa       ?RemoveAll@?$CSimpleArray@PAUHINSTANCE__@@V?$CSimpleArrayEqualHelper@PAUHINSTANCE__@@@ATL@@@ATL@@QAEXXZ 1001f8aa f i atls:atlbase.obj
 0001:0001e8c7       ?RemoveAt@?$CSimpleArray@PAUHINSTANCE__@@V?$CSimpleArrayEqualHelper@PAUHINSTANCE__@@@ATL@@@ATL@@QAEHH@Z 1001f8c7 f i atls:atlbase.obj
 0001:0001e915       ?RemoveResourceInstance@CAtlBaseModule@ATL@@QAE_NPAUHINSTANCE__@@@Z 1001f915 f   atls:atlbase.obj
 0001:0001e972       ?Unlock@?$CComCritSecLock@VCComCriticalSection@ATL@@@ATL@@QAEXXZ 1001f972 f i atls:atlbase.obj
 0001:0001e983       ?Unlock@CComCriticalSection@ATL@@QAEJXZ 1001f983 f i atls:atlbase.obj
 0001:0001e98d       ?memmove_s@Checked@ATL@@YAXPAXIPBXI@Z 1001f98d f i atls:atlbase.obj
 0001:0001ea2a       ??0?$CTraceCategoryEx@$00$0A@@ATL@@QAE@PB_W@Z 1001fa2a f i atls:stdafx.obj
 0001:0001ea2f       ??0?$CTraceCategoryEx@$01$0A@@ATL@@QAE@PB_W@Z 1001fa2f f i atls:stdafx.obj
 0001:0001ea34       ??0?$CTraceCategoryEx@$03$0A@@ATL@@QAE@PB_W@Z 1001fa34 f i atls:stdafx.obj
 0001:0001ea39       ??0?$CTraceCategoryEx@$07$0A@@ATL@@QAE@PB_W@Z 1001fa39 f i atls:stdafx.obj
 0001:0001ea3e       ??0?$CTraceCategoryEx@$0BA@$0A@@ATL@@QAE@PB_W@Z 1001fa3e f i atls:stdafx.obj
 0001:0001ea43       ??0?$CTraceCategoryEx@$0BAA@$0A@@ATL@@QAE@PB_W@Z 1001fa43 f i atls:stdafx.obj
 0001:0001ea48       ??0?$CTraceCategoryEx@$0BAAA@$0A@@ATL@@QAE@PB_W@Z 1001fa48 f i atls:stdafx.obj
 0001:0001ea4d       ??0?$CTraceCategoryEx@$0BAAAA@$0A@@ATL@@QAE@PB_W@Z 1001fa4d f i atls:stdafx.obj
 0001:0001ea52       ??0?$CTraceCategoryEx@$0BAAAAA@$0A@@ATL@@QAE@PB_W@Z 1001fa52 f i atls:stdafx.obj
 0001:0001ea57       ??0?$CTraceCategoryEx@$0CA@$0A@@ATL@@QAE@PB_W@Z 1001fa57 f i atls:stdafx.obj
 0001:0001ea5c       ??0?$CTraceCategoryEx@$0CAA@$0A@@ATL@@QAE@PB_W@Z 1001fa5c f i atls:stdafx.obj
 0001:0001ea61       ??0?$CTraceCategoryEx@$0CAAA@$0A@@ATL@@QAE@PB_W@Z 1001fa61 f i atls:stdafx.obj
 0001:0001ea66       ??0?$CTraceCategoryEx@$0CAAAA@$0A@@ATL@@QAE@PB_W@Z 1001fa66 f i atls:stdafx.obj
 0001:0001ea6b       ??0?$CTraceCategoryEx@$0CAAAAA@$0A@@ATL@@QAE@PB_W@Z 1001fa6b f i atls:stdafx.obj
 0001:0001ea70       ??0?$CTraceCategoryEx@$0EA@$0A@@ATL@@QAE@PB_W@Z 1001fa70 f i atls:stdafx.obj
 0001:0001ea75       ??0?$CTraceCategoryEx@$0EAA@$0A@@ATL@@QAE@PB_W@Z 1001fa75 f i atls:stdafx.obj
 0001:0001ea7a       ??0?$CTraceCategoryEx@$0EAAA@$0A@@ATL@@QAE@PB_W@Z 1001fa7a f i atls:stdafx.obj
 0001:0001ea7f       ??0?$CTraceCategoryEx@$0EAAAA@$0A@@ATL@@QAE@PB_W@Z 1001fa7f f i atls:stdafx.obj
 0001:0001ea84       ??0?$CTraceCategoryEx@$0EAAAAA@$0A@@ATL@@QAE@PB_W@Z 1001fa84 f i atls:stdafx.obj
 0001:0001ea89       ??0?$CTraceCategoryEx@$0IA@$0A@@ATL@@QAE@PB_W@Z 1001fa89 f i atls:stdafx.obj
 0001:0001ea8e       ??0?$CTraceCategoryEx@$0IAA@$0A@@ATL@@QAE@PB_W@Z 1001fa8e f i atls:stdafx.obj
 0001:0001ea93       ??0?$CTraceCategoryEx@$0IAAA@$0A@@ATL@@QAE@PB_W@Z 1001fa93 f i atls:stdafx.obj
 0001:0001ea98       ??0?$CTraceCategoryEx@$0IAAAA@$0A@@ATL@@QAE@PB_W@Z 1001fa98 f i atls:stdafx.obj
 0001:0001ea9d       ??_I@YGXPAXIIP6EX0@Z@Z     1001fa9d f i atls:stdafx.obj
 0001:0001ead0       _StringFromCLSID@8         1001fad0 f   ole32:ole32.dll
 0001:0001ead6       _CLSIDFromProgID@8         1001fad6 f   ole32:ole32.dll
 0001:0001eadc       _CoTaskMemFree@4           1001fadc f   ole32:ole32.dll
 0001:0001eae2       _VariantClear@4            1001fae2 f   oleaut32:OLEAUT32.dll
 0001:0001eae8       _SysFreeString@4           1001fae8 f   oleaut32:OLEAUT32.dll
 0001:0001eaee       ___std_terminate           1001faee f   vcruntime:VCRUNTIME140.dll
 0001:0001eaf4       ___CxxFrameHandler3        1001faf4 f   vcruntime:VCRUNTIME140.dll
 0001:0001eafa       _memcpy                    1001fafa f   vcruntime:VCRUNTIME140.dll
 0001:0001eb00       _memset                    1001fb00 f   vcruntime:VCRUNTIME140.dll
 0001:0001eb06       _strstr                    1001fb06 f   vcruntime:VCRUNTIME140.dll
 0001:0001eb0c       _strrchr                   1001fb0c f   vcruntime:VCRUNTIME140.dll
 0001:0001eb12       ___current_exception       1001fb12 f   vcruntime:VCRUNTIME140.dll
 0001:0001eb18       ___current_exception_context 1001fb18 f   vcruntime:VCRUNTIME140.dll
 0001:0001eb1e       __except_handler4_common   1001fb1e f   vcruntime:VCRUNTIME140.dll
 0001:0001eb24       ___std_type_info_destroy_list 1001fb24 f   vcruntime:VCRUNTIME140.dll
 0001:0001eb2a       _memmove                   1001fb2a f   vcruntime:VCRUNTIME140.dll
 0001:0001eb30       ___stdio_common_vsprintf   1001fb30 f   ucrt:api-ms-win-crt-stdio-l1-1-0.dll
 0001:0001eb36       _atoi                      1001fb36 f   ucrt:api-ms-win-crt-convert-l1-1-0.dll
 0001:0001eb3c       __localtime64_s            1001fb3c f   ucrt:api-ms-win-crt-time-l1-1-0.dll
 0001:0001eb42       __time64                   1001fb42 f   ucrt:api-ms-win-crt-time-l1-1-0.dll
 0001:0001eb48       __chmod                    1001fb48 f   ucrt:api-ms-win-crt-filesystem-l1-1-0.dll
 0001:0001eb4e       _free                      1001fb4e f   ucrt:api-ms-win-crt-heap-l1-1-0.dll
 0001:0001eb54       _strncmp                   1001fb54 f   ucrt:api-ms-win-crt-string-l1-1-0.dll
 0001:0001eb5a       ___stdio_common_vsscanf    1001fb5a f   ucrt:api-ms-win-crt-stdio-l1-1-0.dll
 0001:0001eb60       _isspace                   1001fb60 f   ucrt:api-ms-win-crt-string-l1-1-0.dll
 0001:0001eb66       _malloc                    1001fb66 f   ucrt:api-ms-win-crt-heap-l1-1-0.dll
 0001:0001eb6c       _atof                      1001fb6c f   ucrt:api-ms-win-crt-convert-l1-1-0.dll
 0001:0001eb72       _atol                      1001fb72 f   ucrt:api-ms-win-crt-convert-l1-1-0.dll
 0001:0001eb78       _fclose                    1001fb78 f   ucrt:api-ms-win-crt-stdio-l1-1-0.dll
 0001:0001eb7e       _fopen                     1001fb7e f   ucrt:api-ms-win-crt-stdio-l1-1-0.dll
 0001:0001eb84       _fwrite                    1001fb84 f   ucrt:api-ms-win-crt-stdio-l1-1-0.dll
 0001:0001eb8a       _qsort                     1001fb8a f   ucrt:api-ms-win-crt-utility-l1-1-0.dll
 0001:0001eb90       __invalid_parameter_noinfo 1001fb90 f   ucrt:api-ms-win-crt-runtime-l1-1-0.dll
 0001:0001eb96       __errno                    1001fb96 f   ucrt:api-ms-win-crt-runtime-l1-1-0.dll
 0001:0001eb9c       __seh_filter_dll           1001fb9c f   ucrt:api-ms-win-crt-runtime-l1-1-0.dll
 0001:0001eba2       __configure_narrow_argv    1001fba2 f   ucrt:api-ms-win-crt-runtime-l1-1-0.dll
 0001:0001eba8       __initialize_narrow_environment 1001fba8 f   ucrt:api-ms-win-crt-runtime-l1-1-0.dll
 0001:0001ebae       __initialize_onexit_table  1001fbae f   ucrt:api-ms-win-crt-runtime-l1-1-0.dll
 0001:0001ebb4       __register_onexit_function 1001fbb4 f   ucrt:api-ms-win-crt-runtime-l1-1-0.dll
 0001:0001ebba       __execute_onexit_table     1001fbba f   ucrt:api-ms-win-crt-runtime-l1-1-0.dll
 0001:0001ebc0       __crt_atexit               1001fbc0 f   ucrt:api-ms-win-crt-runtime-l1-1-0.dll
 0001:0001ebc6       __crt_at_quick_exit        1001fbc6 f   ucrt:api-ms-win-crt-runtime-l1-1-0.dll
 0001:0001ebcc       __cexit                    1001fbcc f   ucrt:api-ms-win-crt-runtime-l1-1-0.dll
 0001:0001ebd2       _terminate                 1001fbd2 f   ucrt:api-ms-win-crt-runtime-l1-1-0.dll
 0001:0001ebd8       __initterm                 1001fbd8 f   ucrt:api-ms-win-crt-runtime-l1-1-0.dll
 0001:0001ebde       __initterm_e               1001fbde f   ucrt:api-ms-win-crt-runtime-l1-1-0.dll
 0001:0001ebe4       __recalloc                 1001fbe4 f   ucrt:api-ms-win-crt-heap-l1-1-0.dll
 0001:0001ebea       __mkdir                    1001fbea f   ucrt:api-ms-win-crt-filesystem-l1-1-0.dll
 0001:0001ebf0       ?Delete@CException@@QAEXXZ 1001fbf0 f   mfc140:mfc140.dll
 0001:0001ebf6       ??3CNoTrackObject@@SGXPAX@Z 1001fbf6 f   mfc140:mfc140.dll
 0001:0001ebfc       ??0AFX_MODULE_STATE@@QAE@HP6GJPAUHWND__@@IIJ@ZKH@Z 1001fbfc f   mfc140:mfc140.dll
 0001:0001ec02       ??1AFX_MODULE_STATE@@UAE@XZ 1001fc02 f   mfc140:mfc140.dll
 0001:0001ec08       ?AfxSetModuleState@@YGPAVAFX_MODULE_STATE@@PAV1@@Z 1001fc08 f   mfc140:mfc140.dll
 0001:0001ec0e       ??0AFX_MAINTAIN_STATE2@@QAE@PAVAFX_MODULE_STATE@@@Z 1001fc0e f   mfc140:mfc140.dll
 0001:0001ec14       ??1AFX_MAINTAIN_STATE2@@QAE@XZ 1001fc14 f   mfc140:mfc140.dll
 0001:0001ec1a       ?AfxWinInit@@YGHPAUHINSTANCE__@@0PADH@Z 1001fc1a f   mfc140:mfc140.dll
 0001:0001ec20       ?AfxWndProc@@YGJPAUHWND__@@IIJ@Z 1001fc20 f   mfc140:mfc140.dll
 0001:0001ec26       ?AfxTermThread@@YGXPAUHINSTANCE__@@@Z 1001fc26 f   mfc140:mfc140.dll
 0001:0001ec2c       ?AfxWinTerm@@YGXXZ         1001fc2c f   mfc140:mfc140.dll
 0001:0001ec32       ??0CDynLinkLibrary@@QAE@AAUAFX_EXTENSION_MODULE@@H@Z 1001fc32 f   mfc140:mfc140.dll
 0001:0001ec38       ?AfxInitExtensionModule@@YGHAAUAFX_EXTENSION_MODULE@@PAUHINSTANCE__@@@Z 1001fc38 f   mfc140:mfc140.dll
 0001:0001ec3e       ?AfxTermExtensionModule@@YGXAAUAFX_EXTENSION_MODULE@@H@Z 1001fc3e f   mfc140:mfc140.dll
 0001:0001ec44       ?AfxCoreInitModule@@YGXXZ  1001fc44 f   mfc140:mfc140.dll
 0001:0001ec4a       ?AfxLockTempMaps@@YGXXZ    1001fc4a f   mfc140:mfc140.dll
 0001:0001ec50       ?AfxUnlockTempMaps@@YGHH@Z 1001fc50 f   mfc140:mfc140.dll
 0001:0001ec56       ??0CDynLinkLibrary@@QAE@PAUHINSTANCE__@@0@Z 1001fc56 f   mfc140:mfc140.dll
 0001:0001ec5c       __RawDllMainProxy@12       1001fc5c f   mfcs140:rawdllmainproxy.obj
 0001:0001eda7       _OutputDebugStringW@4      1001fda7 f   kernel32:KERNEL32.dll
 0001:0001edad       ___acrt_initialize         1001fdad f   msvcrt:ucrt_stubs.obj
 0001:0001edad       ___vcrt_initialize         1001fdad f   msvcrt:ucrt_stubs.obj
 0001:0001edad       ___scrt_stub_for_acrt_initialize 1001fdad f   msvcrt:ucrt_stubs.obj
 0001:0001edb0       ___scrt_stub_for_acrt_thread_attach 1001fdb0 f   msvcrt:ucrt_stubs.obj
 0001:0001edb0       ___acrt_thread_attach      1001fdb0 f   msvcrt:ucrt_stubs.obj
 0001:0001edb0       ___vcrt_thread_attach      1001fdb0 f   msvcrt:ucrt_stubs.obj
 0001:0001edb3       ___acrt_thread_detach      1001fdb3 f   msvcrt:ucrt_stubs.obj
 0001:0001edb3       ___vcrt_thread_detach      1001fdb3 f   msvcrt:ucrt_stubs.obj
 0001:0001edb3       ___scrt_stub_for_acrt_thread_detach 1001fdb3 f   msvcrt:ucrt_stubs.obj
 0001:0001edb6       ___scrt_stub_for_acrt_uninitialize 1001fdb6 f   msvcrt:ucrt_stubs.obj
 0001:0001edb6       ___vcrt_uninitialize       1001fdb6 f   msvcrt:ucrt_stubs.obj
 0001:0001edb6       ___acrt_uninitialize       1001fdb6 f   msvcrt:ucrt_stubs.obj
 0001:0001edb9       ___acrt_uninitialize_critical 1001fdb9 f   msvcrt:ucrt_stubs.obj
 0001:0001edb9       ___scrt_stub_for_acrt_uninitialize_critical 1001fdb9 f   msvcrt:ucrt_stubs.obj
 0001:0001edb9       ___vcrt_uninitialize_critical 1001fdb9 f   msvcrt:ucrt_stubs.obj
 0001:0001edbc       __is_c_termination_complete 1001fdbc f   msvcrt:ucrt_stubs.obj
 0001:0001edbc       ___scrt_stub_for_is_c_termination_complete 1001fdbc f   msvcrt:ucrt_stubs.obj
 0001:0001edbf       __filter_x86_sse2_floating_point_exception 1001fdbf f   msvcrt:x86_exception_filter.obj
 0001:0001edbf       __filter_x86_sse2_floating_point_exception_default 1001fdbf f   msvcrt:x86_exception_filter.obj
 0001:000213f0       ??__FstrHeap@?1??GetInstance@CAtlStringMgr@ATL@@SAPAUIAtlStringMgr@2@XZ@YAXXZ 100223f0 f i StdAfx.obj
 0001:00021420       ??__FstrMgr@?1??GetInstance@CAtlStringMgr@ATL@@SAPAUIAtlStringMgr@2@XZ@YAXXZ 10022420 f i StdAfx.obj
 0002:00000000       __imp__RegCloseKey@4       10023000     advapi32:ADVAPI32.dll
 0002:00000004       __imp__RegOpenKeyExA@20    10023004     advapi32:ADVAPI32.dll
 0002:00000008       __imp__RegQueryValueExA@24 10023008     advapi32:ADVAPI32.dll
 0002:0000000c       __imp__RegCreateKeyExA@36  1002300c     advapi32:ADVAPI32.dll
 0002:00000010       __imp__RegOpenKeyA@12      10023010     advapi32:ADVAPI32.dll
 0002:00000014       __imp__RegSetValueExA@24   10023014     advapi32:ADVAPI32.dll
 0002:00000018       \177ADVAPI32_NULL_THUNK_DATA 10023018     advapi32:ADVAPI32.dll
 0002:0000001c       __imp__GetDeviceCaps@8     1002301c     gdi32:GDI32.dll
 0002:00000020       \177GDI32_NULL_THUNK_DATA  10023020     gdi32:GDI32.dll
 0002:00000024       __imp__WritePrivateProfileStringA@16 10023024     kernel32:KERNEL32.dll
 0002:00000028       __imp__DecodePointer@4     10023028     kernel32:KERNEL32.dll
 0002:0000002c       __imp__RaiseException@16   1002302c     kernel32:KERNEL32.dll
 0002:00000030       __imp__GetLastError@0      10023030     kernel32:KERNEL32.dll
 0002:00000034       __imp__HeapDestroy@4       10023034     kernel32:KERNEL32.dll
 0002:00000038       __imp__HeapAlloc@12        10023038     kernel32:KERNEL32.dll
 0002:0000003c       __imp__HeapReAlloc@16      1002303c     kernel32:KERNEL32.dll
 0002:00000040       __imp__HeapFree@12         10023040     kernel32:KERNEL32.dll
 0002:00000044       __imp__HeapSize@12         10023044     kernel32:KERNEL32.dll
 0002:00000048       __imp__GetProcessHeap@0    10023048     kernel32:KERNEL32.dll
 0002:0000004c       __imp__InitializeCriticalSectionEx@12 1002304c     kernel32:KERNEL32.dll
 0002:00000050       __imp__DeleteCriticalSection@4 10023050     kernel32:KERNEL32.dll
 0002:00000054       __imp__CreateFileA@28      10023054     kernel32:KERNEL32.dll
 0002:00000058       __imp__WriteFile@20        10023058     kernel32:KERNEL32.dll
 0002:0000005c       __imp__CloseHandle@4       1002305c     kernel32:KERNEL32.dll
 0002:00000060       __imp__GetPrivateProfileStringA@24 10023060     kernel32:KERNEL32.dll
 0002:00000064       __imp__MulDiv@12           10023064     kernel32:KERNEL32.dll
 0002:00000068       __imp__lstrcpyA@8          10023068     kernel32:KERNEL32.dll
 0002:0000006c       __imp__MultiByteToWideChar@24 1002306c     kernel32:KERNEL32.dll
 0002:00000070       __imp__OutputDebugStringA@4 10023070     kernel32:KERNEL32.dll
 0002:00000074       __imp__EnterCriticalSection@4 10023074     kernel32:KERNEL32.dll
 0002:00000078       __imp__LeaveCriticalSection@4 10023078     kernel32:KERNEL32.dll
 0002:0000007c       __imp__InitializeCriticalSectionAndSpinCount@8 1002307c     kernel32:KERNEL32.dll
 0002:00000080       __imp__GetPrivateProfileSectionA@16 10023080     kernel32:KERNEL32.dll
 0002:00000084       __imp__SetCurrentDirectoryA@4 10023084     kernel32:KERNEL32.dll
 0002:00000088       __imp__GetCurrentDirectoryA@8 10023088     kernel32:KERNEL32.dll
 0002:0000008c       __imp__GetLongPathNameA@12 1002308c     kernel32:KERNEL32.dll
 0002:00000090       __imp__WaitForSingleObject@8 10023090     kernel32:KERNEL32.dll
 0002:00000094       __imp__GetExitCodeProcess@8 10023094     kernel32:KERNEL32.dll
 0002:00000098       __imp__CreateProcessA@40   10023098     kernel32:KERNEL32.dll
 0002:0000009c       __imp__GetWindowsDirectoryA@8 1002309c     kernel32:KERNEL32.dll
 0002:000000a0       __imp__LocalFree@4         100230a0     kernel32:KERNEL32.dll
 0002:000000a4       __imp__GetPrivateProfileIntA@16 100230a4     kernel32:KERNEL32.dll
 0002:000000a8       __imp__GetModuleHandleA@4  100230a8     kernel32:KERNEL32.dll
 0002:000000ac       __imp__GetModuleFileNameA@12 100230ac     kernel32:KERNEL32.dll
 0002:000000b0       __imp__DeleteFileA@4       100230b0     kernel32:KERNEL32.dll
 0002:000000b4       __imp__SetEnvironmentVariableA@8 100230b4     kernel32:KERNEL32.dll
 0002:000000b8       __imp__LoadLibraryA@4      100230b8     kernel32:KERNEL32.dll
 0002:000000bc       __imp__GetProcAddress@8    100230bc     kernel32:KERNEL32.dll
 0002:000000c0       __imp__GetTickCount@0      100230c0     kernel32:KERNEL32.dll
 0002:000000c4       __imp__OutputDebugStringW@4 100230c4     kernel32:KERNEL32.dll
 0002:000000c8       __imp__FormatMessageA@28   100230c8     kernel32:KERNEL32.dll
 0002:000000cc       __imp__WideCharToMultiByte@32 100230cc     kernel32:KERNEL32.dll
 0002:000000d0       __imp__GetEnvironmentVariableA@12 100230d0     kernel32:KERNEL32.dll
 0002:000000d4       __imp__SetLastError@4      100230d4     kernel32:KERNEL32.dll
 0002:000000d8       __imp__GetModuleFileNameW@12 100230d8     kernel32:KERNEL32.dll
 0002:000000dc       __imp__GetModuleHandleW@4  100230dc     kernel32:KERNEL32.dll
 0002:000000e0       __imp__LoadLibraryW@4      100230e0     kernel32:KERNEL32.dll
 0002:000000e4       __imp__LocalAlloc@8        100230e4     kernel32:KERNEL32.dll
 0002:000000e8       __imp__SetEvent@4          100230e8     kernel32:KERNEL32.dll
 0002:000000ec       __imp__ResetEvent@4        100230ec     kernel32:KERNEL32.dll
 0002:000000f0       __imp__WaitForSingleObjectEx@12 100230f0     kernel32:KERNEL32.dll
 0002:000000f4       __imp__CreateEventW@16     100230f4     kernel32:KERNEL32.dll
 0002:000000f8       __imp__UnhandledExceptionFilter@4 100230f8     kernel32:KERNEL32.dll
 0002:000000fc       __imp__SetUnhandledExceptionFilter@4 100230fc     kernel32:KERNEL32.dll
 0002:00000100       __imp__GetCurrentProcess@0 10023100     kernel32:KERNEL32.dll
 0002:00000104       __imp__TerminateProcess@8  10023104     kernel32:KERNEL32.dll
 0002:00000108       __imp__FreeLibrary@4       10023108     kernel32:KERNEL32.dll
 0002:0000010c       __imp__InitializeSListHead@4 1002310c     kernel32:KERNEL32.dll
 0002:00000110       __imp__GetSystemTimeAsFileTime@4 10023110     kernel32:KERNEL32.dll
 0002:00000114       __imp__GetCurrentThreadId@0 10023114     kernel32:KERNEL32.dll
 0002:00000118       __imp__GetCurrentProcessId@0 10023118     kernel32:KERNEL32.dll
 0002:0000011c       __imp__QueryPerformanceCounter@4 1002311c     kernel32:KERNEL32.dll
 0002:00000120       __imp__GetStartupInfoW@4   10023120     kernel32:KERNEL32.dll
 0002:00000124       __imp__IsDebuggerPresent@0 10023124     kernel32:KERNEL32.dll
 0002:00000128       __imp__IsProcessorFeaturePresent@4 10023128     kernel32:KERNEL32.dll
 0002:0000012c       \177KERNEL32_NULL_THUNK_DATA 1002312c     kernel32:KERNEL32.dll
 0002:00000130       __imp__VariantClear@4      10023130     oleaut32:OLEAUT32.dll
 0002:00000134       __imp__SysFreeString@4     10023134     oleaut32:OLEAUT32.dll
 0002:00000138       \177OLEAUT32_NULL_THUNK_DATA 10023138     oleaut32:OLEAUT32.dll
 0002:0000013c       __imp__SetRect@20          1002313c     user32:USER32.dll
 0002:00000140       __imp__EnableWindow@8      10023140     user32:USER32.dll
 0002:00000144       __imp__SendMessageA@16     10023144     user32:USER32.dll
 0002:00000148       __imp__UnregisterClassA@8  10023148     user32:USER32.dll
 0002:0000014c       __imp__TranslateMessage@4  1002314c     user32:USER32.dll
 0002:00000150       __imp__GetWindowRect@8     10023150     user32:USER32.dll
 0002:00000154       __imp__PeekMessageA@20     10023154     user32:USER32.dll
 0002:00000158       __imp__PostQuitMessage@4   10023158     user32:USER32.dll
 0002:0000015c       __imp__SetTimer@16         1002315c     user32:USER32.dll
 0002:00000160       __imp__KillTimer@8         10023160     user32:USER32.dll
 0002:00000164       __imp__LoadCursorA@8       10023164     user32:USER32.dll
 0002:00000168       __imp__RegisterWindowMessageA@4 10023168     user32:USER32.dll
 0002:0000016c       __imp__GetClientRect@8     1002316c     user32:USER32.dll
 0002:00000170       __imp__InvalidateRect@12   10023170     user32:USER32.dll
 0002:00000174       __imp__DispatchMessageA@4  10023174     user32:USER32.dll
 0002:00000178       \177USER32_NULL_THUNK_DATA 10023178     user32:USER32.dll
 0002:0000017c       __imp____CxxFrameHandler3  1002317c     vcruntime:VCRUNTIME140.dll
 0002:00000180       __imp__memcpy              10023180     vcruntime:VCRUNTIME140.dll
 0002:00000184       __imp__memset              10023184     vcruntime:VCRUNTIME140.dll
 0002:00000188       __imp__strstr              10023188     vcruntime:VCRUNTIME140.dll
 0002:0000018c       __imp__strrchr             1002318c     vcruntime:VCRUNTIME140.dll
 0002:00000190       __imp____current_exception 10023190     vcruntime:VCRUNTIME140.dll
 0002:00000194       __imp____current_exception_context 10023194     vcruntime:VCRUNTIME140.dll
 0002:00000198       __imp___except_handler4_common 10023198     vcruntime:VCRUNTIME140.dll
 0002:0000019c       __imp____std_terminate     1002319c     vcruntime:VCRUNTIME140.dll
 0002:000001a0       __imp__memmove             100231a0     vcruntime:VCRUNTIME140.dll
 0002:000001a4       __imp____std_type_info_destroy_list 100231a4     vcruntime:VCRUNTIME140.dll
 0002:000001a8       \177VCRUNTIME140_NULL_THUNK_DATA 100231a8     vcruntime:VCRUNTIME140.dll
 0002:000001ac       __imp__atoi                100231ac     ucrt:api-ms-win-crt-convert-l1-1-0.dll
 0002:000001b0       __imp__atol                100231b0     ucrt:api-ms-win-crt-convert-l1-1-0.dll
 0002:000001b4       __imp__atof                100231b4     ucrt:api-ms-win-crt-convert-l1-1-0.dll
 0002:000001b8       \177api-ms-win-crt-convert-l1-1-0_NULL_THUNK_DATA 100231b8     ucrt:api-ms-win-crt-convert-l1-1-0.dll
 0002:000001bc       __imp___chmod              100231bc     ucrt:api-ms-win-crt-filesystem-l1-1-0.dll
 0002:000001c0       __imp___mkdir              100231c0     ucrt:api-ms-win-crt-filesystem-l1-1-0.dll
 0002:000001c0       __imp__mkdir               100231c0     ucrt:api-ms-win-crt-filesystem-l1-1-0.dll
 0002:000001c4       \177api-ms-win-crt-filesystem-l1-1-0_NULL_THUNK_DATA 100231c4     ucrt:api-ms-win-crt-filesystem-l1-1-0.dll
 0002:000001c8       __imp__free                100231c8     ucrt:api-ms-win-crt-heap-l1-1-0.dll
 0002:000001cc       __imp___recalloc           100231cc     ucrt:api-ms-win-crt-heap-l1-1-0.dll
 0002:000001d0       __imp__malloc              100231d0     ucrt:api-ms-win-crt-heap-l1-1-0.dll
 0002:000001d4       \177api-ms-win-crt-heap-l1-1-0_NULL_THUNK_DATA 100231d4     ucrt:api-ms-win-crt-heap-l1-1-0.dll
 0002:000001d8       __imp___initialize_onexit_table 100231d8     ucrt:api-ms-win-crt-runtime-l1-1-0.dll
 0002:000001dc       __imp___execute_onexit_table 100231dc     ucrt:api-ms-win-crt-runtime-l1-1-0.dll
 0002:000001e0       __imp___crt_atexit         100231e0     ucrt:api-ms-win-crt-runtime-l1-1-0.dll
 0002:000001e4       __imp___crt_at_quick_exit  100231e4     ucrt:api-ms-win-crt-runtime-l1-1-0.dll
 0002:000001e8       __imp___cexit              100231e8     ucrt:api-ms-win-crt-runtime-l1-1-0.dll
 0002:000001ec       __imp__terminate           100231ec     ucrt:api-ms-win-crt-runtime-l1-1-0.dll
 0002:000001f0       __imp___initterm           100231f0     ucrt:api-ms-win-crt-runtime-l1-1-0.dll
 0002:000001f4       __imp___initterm_e         100231f4     ucrt:api-ms-win-crt-runtime-l1-1-0.dll
 0002:000001f8       __imp___initialize_narrow_environment 100231f8     ucrt:api-ms-win-crt-runtime-l1-1-0.dll
 0002:000001fc       __imp___configure_narrow_argv 100231fc     ucrt:api-ms-win-crt-runtime-l1-1-0.dll
 0002:00000200       __imp___seh_filter_dll     10023200     ucrt:api-ms-win-crt-runtime-l1-1-0.dll
 0002:00000204       __imp___invalid_parameter_noinfo 10023204     ucrt:api-ms-win-crt-runtime-l1-1-0.dll
 0002:00000208       __imp___register_onexit_function 10023208     ucrt:api-ms-win-crt-runtime-l1-1-0.dll
 0002:0000020c       __imp___errno              1002320c     ucrt:api-ms-win-crt-runtime-l1-1-0.dll
 0002:00000210       \177api-ms-win-crt-runtime-l1-1-0_NULL_THUNK_DATA 10023210     ucrt:api-ms-win-crt-runtime-l1-1-0.dll
 0002:00000214       __imp__fclose              10023214     ucrt:api-ms-win-crt-stdio-l1-1-0.dll
 0002:00000218       __imp____stdio_common_vsscanf 10023218     ucrt:api-ms-win-crt-stdio-l1-1-0.dll
 0002:0000021c       __imp____stdio_common_vsprintf 1002321c     ucrt:api-ms-win-crt-stdio-l1-1-0.dll
 0002:00000220       __imp__fopen               10023220     ucrt:api-ms-win-crt-stdio-l1-1-0.dll
 0002:00000224       __imp__fwrite              10023224     ucrt:api-ms-win-crt-stdio-l1-1-0.dll
 0002:00000228       \177api-ms-win-crt-stdio-l1-1-0_NULL_THUNK_DATA 10023228     ucrt:api-ms-win-crt-stdio-l1-1-0.dll
 0002:0000022c       __imp__isspace             1002322c     ucrt:api-ms-win-crt-string-l1-1-0.dll
 0002:00000230       __imp__strncmp             10023230     ucrt:api-ms-win-crt-string-l1-1-0.dll
 0002:00000234       \177api-ms-win-crt-string-l1-1-0_NULL_THUNK_DATA 10023234     ucrt:api-ms-win-crt-string-l1-1-0.dll
 0002:00000238       __imp___time64             10023238     ucrt:api-ms-win-crt-time-l1-1-0.dll
 0002:0000023c       __imp___localtime64_s      1002323c     ucrt:api-ms-win-crt-time-l1-1-0.dll
 0002:00000240       \177api-ms-win-crt-time-l1-1-0_NULL_THUNK_DATA 10023240     ucrt:api-ms-win-crt-time-l1-1-0.dll
 0002:00000244       __imp__qsort               10023244     ucrt:api-ms-win-crt-utility-l1-1-0.dll
 0002:00000248       \177api-ms-win-crt-utility-l1-1-0_NULL_THUNK_DATA 10023248     ucrt:api-ms-win-crt-utility-l1-1-0.dll
 0002:0000024c       __imp_?IsIdleMessage@CWinThread@@UAEHPAUtagMSG@@@Z 1002324c     mfc140:mfc140.dll
 0002:00000250       __imp_?ProcessMessageFilter@CWinThread@@UAEHHPAUtagMSG@@@Z 10023250     mfc140:mfc140.dll
 0002:00000254       __imp_?GetMainWnd@CWinThread@@UAEPAVCWnd@@XZ 10023254     mfc140:mfc140.dll
 0002:00000258       __imp_?Delete@CWinThread@@UAEXXZ 10023258     mfc140:mfc140.dll
 0002:0000025c       __imp_?AfxGetThread@@YGPAVCWinThread@@XZ 1002325c     mfc140:mfc140.dll
 0002:00000260       __imp_?GetRuntimeClass@CWinApp@@UBEPAUCRuntimeClass@@XZ 10023260     mfc140:mfc140.dll
 0002:00000264       __imp_??0CWinApp@@QAE@PBD@Z 10023264     mfc140:mfc140.dll
 0002:00000268       __imp_?GetProfileIntA@CWinApp@@UAEIPBD0H@Z 10023268     mfc140:mfc140.dll
 0002:0000026c       __imp_?WriteProfileInt@CWinApp@@UAEHPBD0H@Z 1002326c     mfc140:mfc140.dll
 0002:00000270       __imp_?GetProfileStringA@CWinApp@@UAE?AV?$CStringT@DV?$StrTraitMFC_DLL@DV?$ChTraitsCRT@D@ATL@@@@@ATL@@PBD00@Z 10023270     mfc140:mfc140.dll
 0002:00000274       __imp_?WriteProfileStringA@CWinApp@@UAEHPBD00@Z 10023274     mfc140:mfc140.dll
 0002:00000278       __imp_?GetProfileBinary@CWinApp@@UAEHPBD0PAPAEPAI@Z 10023278     mfc140:mfc140.dll
 0002:0000027c       __imp_?WriteProfileBinary@CWinApp@@UAEHPBD0PAEI@Z 1002327c     mfc140:mfc140.dll
 0002:00000280       __imp_?InitLibId@CWinApp@@UAEXXZ 10023280     mfc140:mfc140.dll
 0002:00000284       __imp_?Register@CWinApp@@UAEHXZ 10023284     mfc140:mfc140.dll
 0002:00000288       __imp_?Unregister@CWinApp@@UAEHXZ 10023288     mfc140:mfc140.dll
 0002:0000028c       __imp_?OpenDocumentFile@CWinApp@@UAEPAVCDocument@@PBD@Z 1002328c     mfc140:mfc140.dll
 0002:00000290       __imp_?OpenDocumentFile@CWinApp@@UAEPAVCDocument@@PBDH@Z 10023290     mfc140:mfc140.dll
 0002:00000294       __imp_?AddToRecentFileList@CWinApp@@UAEXPBD@Z 10023294     mfc140:mfc140.dll
 0002:00000298       __imp_?InitApplication@CWinApp@@UAEHXZ 10023298     mfc140:mfc140.dll
 0002:0000029c       __imp_?SaveAllModified@CWinApp@@UAEHXZ 1002329c     mfc140:mfc140.dll
 0002:000002a0       __imp_?DoMessageBox@CWinApp@@UAEHPBDII@Z 100232a0     mfc140:mfc140.dll
 0002:000002a4       __imp_?DoWaitCursor@CWinApp@@UAEXH@Z 100232a4     mfc140:mfc140.dll
 0002:000002a8       __imp_?OnDDECommand@CWinApp@@UAEHPAD@Z 100232a8     mfc140:mfc140.dll
 0002:000002ac       __imp_?WinHelpA@CWinApp@@UAEXKI@Z 100232ac     mfc140:mfc140.dll
 0002:000002b0       __imp_?HtmlHelpA@CWinApp@@UAEXKI@Z 100232b0     mfc140:mfc140.dll
 0002:000002b4       __imp_?WinHelpInternal@CWinApp@@UAEXKI@Z 100232b4     mfc140:mfc140.dll
 0002:000002b8       __imp_?RegisterWithRestartManager@CWinApp@@UAEJHABV?$CStringT@DV?$StrTraitMFC_DLL@DV?$ChTraitsCRT@D@ATL@@@@@ATL@@@Z 100232b8     mfc140:mfc140.dll
 0002:000002bc       __imp_?RegisterWithRestartManager@CWinApp@@UAEJPB_WKP6GKPAX@Z1KK@Z 100232bc     mfc140:mfc140.dll
 0002:000002c0       __imp_?ApplicationRecoveryCallback@CWinApp@@UAEKPAX@Z 100232c0     mfc140:mfc140.dll
 0002:000002c4       __imp_?GetDataRecoveryHandler@CWinApp@@UAEPAVCDataRecoveryHandler@@XZ 100232c4     mfc140:mfc140.dll
 0002:000002c8       __imp_?IsTaskbarInteractionEnabled@CWinApp@@UAEHXZ 100232c8     mfc140:mfc140.dll
 0002:000002cc       __imp_?InitInstance@CWinApp@@UAEHXZ 100232cc     mfc140:mfc140.dll
 0002:000002d0       __imp_?ExitInstance@CWinApp@@UAEHXZ 100232d0     mfc140:mfc140.dll
 0002:000002d4       __imp_?RestartInstance@CWinApp@@UAEHXZ 100232d4     mfc140:mfc140.dll
 0002:000002d8       __imp_?Run@CWinApp@@UAEHXZ 100232d8     mfc140:mfc140.dll
 0002:000002dc       __imp_?OnIdle@CWinApp@@UAEHJ@Z 100232dc     mfc140:mfc140.dll
 0002:000002e0       __imp_?ProcessWndProcException@CWinApp@@UAEJPAVCException@@PBUtagMSG@@@Z 100232e0     mfc140:mfc140.dll
 0002:000002e4       __imp_?LoadAppLangResourceDLL@CWinApp@@UAEPAUHINSTANCE__@@XZ 100232e4     mfc140:mfc140.dll
 0002:000002e8       __imp_??1CWinApp@@UAE@XZ   100232e8     mfc140:mfc140.dll
 0002:000002ec       __imp_?GetThisMessageMap@CWinApp@@KGPBUAFX_MSGMAP@@XZ 100232ec     mfc140:mfc140.dll
 0002:000002f0       __imp_?LoadSysPolicies@CWinApp@@UAEHXZ 100232f0     mfc140:mfc140.dll
 0002:000002f4       __imp_??_V@YAXPAX@Z        100232f4     mfc140:mfc140.dll
 0002:000002f8       __imp_?Empty@?$CSimpleStringT@D$00@ATL@@QAEXXZ 100232f8     mfc140:mfc140.dll
 0002:000002fc       __imp_?Mid@?$CStringT@DV?$StrTraitMFC_DLL@DV?$ChTraitsCRT@D@ATL@@@@@ATL@@QBE?AV12@H@Z 100232fc     mfc140:mfc140.dll
 0002:00000300       __imp_?Lookup@CMapStringToString@@QBEHPBDAAV?$CStringT@DV?$StrTraitMFC_DLL@DV?$ChTraitsCRT@D@ATL@@@@@ATL@@@Z 10023300     mfc140:mfc140.dll
 0002:00000304       __imp_??ACMapStringToString@@QAEAAV?$CStringT@DV?$StrTraitMFC_DLL@DV?$ChTraitsCRT@D@ATL@@@@@ATL@@PBD@Z 10023304     mfc140:mfc140.dll
 0002:00000308       __imp_??A?$CSimpleStringT@D$00@ATL@@QBEDH@Z 10023308     mfc140:mfc140.dll
 0002:0000030c       __imp_?GetAt@?$CSimpleStringT@D$00@ATL@@QBEDH@Z 1002330c     mfc140:mfc140.dll
 0002:00000310       __imp_?GetBuffer@?$CSimpleStringT@D$00@ATL@@QAEPADH@Z 10023310     mfc140:mfc140.dll
 0002:00000314       __imp_??4?$CStringT@DV?$StrTraitMFC_DLL@DV?$ChTraitsCRT@D@ATL@@@@@ATL@@QAEAAV01@D@Z 10023314     mfc140:mfc140.dll
 0002:00000318       __imp_??Y?$CStringT@DV?$StrTraitMFC_DLL@DV?$ChTraitsCRT@D@ATL@@@@@ATL@@QAEAAV01@ABV?$CSimpleStringT@D$00@1@@Z 10023318     mfc140:mfc140.dll
 0002:0000031c       __imp_??Y?$CStringT@DV?$StrTraitMFC_DLL@DV?$ChTraitsCRT@D@ATL@@@@@ATL@@QAEAAV01@D@Z 1002331c     mfc140:mfc140.dll
 0002:00000320       __imp_?Insert@?$CStringT@DV?$StrTraitMFC_DLL@DV?$ChTraitsCRT@D@ATL@@@@@ATL@@QAEHHPBD@Z 10023320     mfc140:mfc140.dll
 0002:00000324       __imp_?Replace@?$CStringT@DV?$StrTraitMFC_DLL@DV?$ChTraitsCRT@D@ATL@@@@@ATL@@QAEHDD@Z 10023324     mfc140:mfc140.dll
 0002:00000328       __imp_?Remove@?$CStringT@DV?$StrTraitMFC_DLL@DV?$ChTraitsCRT@D@ATL@@@@@ATL@@QAEHD@Z 10023328     mfc140:mfc140.dll
 0002:0000032c       __imp_?Open@CFile@@UAEHPBDIPAVCFileException@@@Z 1002332c     mfc140:mfc140.dll
 0002:00000330       __imp_?Find@?$CStringT@DV?$StrTraitMFC_DLL@DV?$ChTraitsCRT@D@ATL@@@@@ATL@@QBEHPBDH@Z 10023330     mfc140:mfc140.dll
 0002:00000334       __imp_?MakeReverse@?$CStringT@DV?$StrTraitMFC_DLL@DV?$ChTraitsCRT@D@ATL@@@@@ATL@@QAEAAV12@XZ 10023334     mfc140:mfc140.dll
 0002:00000338       __imp_?TrimRight@?$CStringT@DV?$StrTraitMFC_DLL@DV?$ChTraitsCRT@D@ATL@@@@@ATL@@QAEAAV12@XZ 10023338     mfc140:mfc140.dll
 0002:0000033c       __imp_?TrimLeft@?$CStringT@DV?$StrTraitMFC_DLL@DV?$ChTraitsCRT@D@ATL@@@@@ATL@@QAEAAV12@XZ 1002333c     mfc140:mfc140.dll
 0002:00000340       __imp_?Mid@?$CStringT@DV?$StrTraitMFC_DLL@DV?$ChTraitsCRT@D@ATL@@@@@ATL@@QBE?AV12@HH@Z 10023340     mfc140:mfc140.dll
 0002:00000344       __imp_?Right@?$CStringT@DV?$StrTraitMFC_DLL@DV?$ChTraitsCRT@D@ATL@@@@@ATL@@QBE?AV12@H@Z 10023344     mfc140:mfc140.dll
 0002:00000348       __imp_??0CClientDC@@QAE@PAVCWnd@@@Z 10023348     mfc140:mfc140.dll
 0002:0000034c       __imp_??1CClientDC@@UAE@XZ 1002334c     mfc140:mfc140.dll
 0002:00000350       __imp_?Write@CFile@@UAEXPBXI@Z 10023350     mfc140:mfc140.dll
 0002:00000354       __imp_??0CPtrArray@@QAE@XZ 10023354     mfc140:mfc140.dll
 0002:00000358       __imp_?SetSize@CPtrArray@@QAEXHH@Z 10023358     mfc140:mfc140.dll
 0002:0000035c       __imp_??1CPtrArray@@UAE@XZ 1002335c     mfc140:mfc140.dll
 0002:00000360       __imp_??0CMapPtrToPtr@@QAE@H@Z 10023360     mfc140:mfc140.dll
 0002:00000364       __imp_?Lookup@CMapPtrToPtr@@QBEHPAXAAPAX@Z 10023364     mfc140:mfc140.dll
 0002:00000368       __imp_??ACMapPtrToPtr@@QAEAAPAXPAX@Z 10023368     mfc140:mfc140.dll
 0002:0000036c       __imp_?RemoveKey@CMapPtrToPtr@@QAEHPAX@Z 1002336c     mfc140:mfc140.dll
 0002:00000370       __imp_??1CMapPtrToPtr@@UAE@XZ 10023370     mfc140:mfc140.dll
 0002:00000374       __imp_??0CMapStringToPtr@@QAE@H@Z 10023374     mfc140:mfc140.dll
 0002:00000378       __imp_??ACMapStringToPtr@@QAEAAPAXPBD@Z 10023378     mfc140:mfc140.dll
 0002:0000037c       __imp_?RemoveAll@CMapStringToPtr@@QAEXXZ 1002337c     mfc140:mfc140.dll
 0002:00000380       __imp_??1CMapStringToPtr@@UAE@XZ 10023380     mfc140:mfc140.dll
 0002:00000384       __imp_??0CMapStringToString@@QAE@H@Z 10023384     mfc140:mfc140.dll
 0002:00000388       __imp_??1CMapStringToString@@UAE@XZ 10023388     mfc140:mfc140.dll
 0002:0000038c       __imp_??0COleVariant@@QAE@PBUtagVARIANT@@@Z 1002338c     mfc140:mfc140.dll
 0002:00000390       __imp_??0COleVariant@@QAE@JG@Z 10023390     mfc140:mfc140.dll
 0002:00000394       __imp_??0CSyncObject@@QAE@PBD@Z 10023394     mfc140:mfc140.dll
 0002:00000398       __imp_??1CSyncObject@@UAE@XZ 10023398     mfc140:mfc140.dll
 0002:0000039c       __imp_?GetRuntimeClass@CCriticalSection@@UBEPAUCRuntimeClass@@XZ 1002339c     mfc140:mfc140.dll
 0002:000003a0       __imp_?MakeLower@?$CStringT@DV?$StrTraitMFC_DLL@DV?$ChTraitsCRT@D@ATL@@@@@ATL@@QAEAAV12@XZ 100233a0     mfc140:mfc140.dll
 0002:000003a4       __imp_??0CStringArray@@QAE@XZ 100233a4     mfc140:mfc140.dll
 0002:000003a8       __imp_?SetSize@CStringArray@@QAEXHH@Z 100233a8     mfc140:mfc140.dll
 0002:000003ac       __imp_?SetAtGrow@CStringArray@@QAEXHABV?$CStringT@DV?$StrTraitMFC_DLL@DV?$ChTraitsCRT@D@ATL@@@@@ATL@@@Z 100233ac     mfc140:mfc140.dll
 0002:000003b0       __imp_??1CStringArray@@UAE@XZ 100233b0     mfc140:mfc140.dll
 0002:000003b4       __imp_?AddTail@CStringList@@QAEPAU__POSITION@@ABV?$CStringT@DV?$StrTraitMFC_DLL@DV?$ChTraitsCRT@D@ATL@@@@@ATL@@@Z 100233b4     mfc140:mfc140.dll
 0002:000003b8       __imp_?RemoveAll@CStringList@@QAEXXZ 100233b8     mfc140:mfc140.dll
 0002:000003bc       __imp_?RemoveKey@CMapStringToString@@QAEHPBD@Z 100233bc     mfc140:mfc140.dll
 0002:000003c0       __imp_?GetNextAssoc@CMapStringToString@@QBEXAAPAU__POSITION@@AAV?$CStringT@DV?$StrTraitMFC_DLL@DV?$ChTraitsCRT@D@ATL@@@@@ATL@@1@Z 100233c0     mfc140:mfc140.dll
 0002:000003c4       __imp_?CollateNoCase@?$CStringT@DV?$StrTraitMFC_DLL@DV?$ChTraitsCRT@D@ATL@@@@@ATL@@QBEHPBD@Z 100233c4     mfc140:mfc140.dll
 0002:000003c8       __imp_?Replace@?$CStringT@DV?$StrTraitMFC_DLL@DV?$ChTraitsCRT@D@ATL@@@@@ATL@@QAEHPBD0@Z 100233c8     mfc140:mfc140.dll
 0002:000003cc       __imp_??0CStdioFile@@QAE@XZ 100233cc     mfc140:mfc140.dll
 0002:000003d0       __imp_?ReadString@CStdioFile@@UAEHAAV?$CStringT@DV?$StrTraitMFC_DLL@DV?$ChTraitsCRT@D@ATL@@@@@ATL@@@Z 100233d0     mfc140:mfc140.dll
 0002:000003d4       __imp_??1CStdioFile@@UAE@XZ 100233d4     mfc140:mfc140.dll
 0002:000003d8       __imp_?Open@CStdioFile@@UAEHPBDIPAVCFileException@@@Z 100233d8     mfc140:mfc140.dll
 0002:000003dc       __imp_?Close@CStdioFile@@UAEXXZ 100233dc     mfc140:mfc140.dll
 0002:000003e0       __imp_?SetAtGrow@CStringArray@@QAEXHPBD@Z 100233e0     mfc140:mfc140.dll
 0002:000003e4       __imp_?InsertAt@CStringArray@@QAEXHABV?$CStringT@DV?$StrTraitMFC_DLL@DV?$ChTraitsCRT@D@ATL@@@@@ATL@@H@Z 100233e4     mfc140:mfc140.dll
 0002:000003e8       __imp_??$SerializeElements@V?$CStringT@DV?$StrTraitMFC_DLL@DV?$ChTraitsCRT@D@ATL@@@@@ATL@@@@YGXAAVCArchive@@PAV?$CStringT@DV?$StrTraitMFC_DLL@DV?$ChTraitsCRT@D@ATL@@@@@ATL@@H@Z 100233e8     mfc140:mfc140.dll
 0002:000003ec       __imp_??$HashKey@PBD@@YGIPBD@Z 100233ec     mfc140:mfc140.dll
 0002:000003f0       __imp_??0?$CStringT@DV?$StrTraitMFC_DLL@DV?$ChTraitsCRT@D@ATL@@@@@ATL@@QAE@PBE@Z 100233f0     mfc140:mfc140.dll
 0002:000003f4       __imp_?AfxExtractSubString@@YGHAAV?$CStringT@DV?$StrTraitMFC_DLL@DV?$ChTraitsCRT@D@ATL@@@@@ATL@@PBDHD@Z 100233f4     mfc140:mfc140.dll
 0002:000003f8       __imp_?AfxGetClassIDFromString@@YGJPBDPAU_GUID@@@Z 100233f8     mfc140:mfc140.dll
 0002:000003fc       __imp_??0CDynLinkLibrary@@QAE@PAUHINSTANCE__@@0@Z 100233fc     mfc140:mfc140.dll
 0002:00000400       __imp_??0CFile@@QAE@XZ     10023400     mfc140:mfc140.dll
 0002:00000404       __imp_?Left@?$CStringT@DV?$StrTraitMFC_DLL@DV?$ChTraitsCRT@D@ATL@@@@@ATL@@QBE?AV12@H@Z 10023404     mfc140:mfc140.dll
 0002:00000408       __imp_?ReverseFind@?$CStringT@DV?$StrTraitMFC_DLL@DV?$ChTraitsCRT@D@ATL@@@@@ATL@@QBEHD@Z 10023408     mfc140:mfc140.dll
 0002:0000040c       __imp_?Compare@?$CStringT@DV?$StrTraitMFC_DLL@DV?$ChTraitsCRT@D@ATL@@@@@ATL@@QBEHPBD@Z 1002340c     mfc140:mfc140.dll
 0002:00000410       __imp_?GetManager@?$CStringT@DV?$StrTraitMFC_DLL@DV?$ChTraitsCRT@D@ATL@@@@@ATL@@QBEPAUIAtlStringMgr@2@XZ 10023410     mfc140:mfc140.dll
 0002:00000414       __imp_??Y?$CStringT@DV?$StrTraitMFC_DLL@DV?$ChTraitsCRT@D@ATL@@@@@ATL@@QAEAAV01@PBD@Z 10023414     mfc140:mfc140.dll
 0002:00000418       __imp_??4?$CStringT@DV?$StrTraitMFC_DLL@DV?$ChTraitsCRT@D@ATL@@@@@ATL@@QAEAAV01@ABV01@@Z 10023418     mfc140:mfc140.dll
 0002:0000041c       __imp_??0?$CStringT@DV?$StrTraitMFC_DLL@DV?$ChTraitsCRT@D@ATL@@@@@ATL@@QAE@PAUIAtlStringMgr@1@@Z 1002341c     mfc140:mfc140.dll
 0002:00000420       __imp_?Concatenate@?$CSimpleStringT@D$00@ATL@@KAXAAV12@PBDH1H@Z 10023420     mfc140:mfc140.dll
 0002:00000424       __imp_?ReleaseBuffer@?$CSimpleStringT@D$00@ATL@@QAEXH@Z 10023424     mfc140:mfc140.dll
 0002:00000428       __imp_?GetBufferSetLength@?$CSimpleStringT@D$00@ATL@@QAEPADH@Z 10023428     mfc140:mfc140.dll
 0002:0000042c       __imp_?GetRuntimeClass@CObject@@UBEPAUCRuntimeClass@@XZ 1002342c     mfc140:mfc140.dll
 0002:00000430       __imp_?PumpMessage@CWinThread@@UAEHXZ 10023430     mfc140:mfc140.dll
 0002:00000434       __imp_?AfxThrowArchiveException@@YGXHPBD@Z 10023434     mfc140:mfc140.dll
 0002:00000438       __imp_?AfxThrowMemoryException@@YGXXZ 10023438     mfc140:mfc140.dll
 0002:0000043c       __imp_?Default@CWnd@@IAEJXZ 1002343c     mfc140:mfc140.dll
 0002:00000440       __imp_?OnDestroy@CWnd@@IAEXXZ 10023440     mfc140:mfc140.dll
 0002:00000444       __imp_?AfxGetModuleState@@YGPAVAFX_MODULE_STATE@@XZ 10023444     mfc140:mfc140.dll
 0002:00000448       __imp_?FindFile@CFileFind@@UAEHPBDK@Z 10023448     mfc140:mfc140.dll
 0002:0000044c       __imp_??1CFileFind@@UAE@XZ 1002344c     mfc140:mfc140.dll
 0002:00000450       __imp_??0CFileFind@@QAE@XZ 10023450     mfc140:mfc140.dll
 0002:00000454       __imp_?AfxRegisterWndClass@@YGPBDIPAUHICON__@@PAUHBRUSH__@@0@Z 10023454     mfc140:mfc140.dll
 0002:00000458       __imp_?GetThisMessageMap@CWnd@@KGPBUAFX_MSGMAP@@XZ 10023458     mfc140:mfc140.dll
 0002:0000045c       __imp_?GetOccDialogInfo@CWnd@@MAEPAU_AFX_OCC_DIALOG_INFO@@XZ 1002345c     mfc140:mfc140.dll
 0002:00000460       __imp_?SetOccDialogInfo@CWnd@@MAEHPAU_AFX_OCC_DIALOG_INFO@@@Z 10023460     mfc140:mfc140.dll
 0002:00000464       __imp_?CreateControlSite@CWnd@@MAEHPAVCOleControlContainer@@PAPAVCOleControlSite@@IABU_GUID@@@Z 10023464     mfc140:mfc140.dll
 0002:00000468       __imp_?CreateControlContainer@CWnd@@MAEHPAPAVCOleControlContainer@@@Z 10023468     mfc140:mfc140.dll
 0002:0000046c       __imp_?OnFinalRelease@CWnd@@UAEXXZ 1002346c     mfc140:mfc140.dll
 0002:00000470       __imp_?IsFrameWnd@CWnd@@UBEHXZ 10023470     mfc140:mfc140.dll
 0002:00000474       __imp_?CheckAutoCenter@CWnd@@UAEHXZ 10023474     mfc140:mfc140.dll
 0002:00000478       __imp_??1CWnd@@UAE@XZ      10023478     mfc140:mfc140.dll
 0002:0000047c       __imp_?ResizeDynamicLayout@CWnd@@MAEXXZ 1002347c     mfc140:mfc140.dll
 0002:00000480       __imp_?OnGesturePressAndTap@CWnd@@MAEHVCPoint@@J@Z 10023480     mfc140:mfc140.dll
 0002:00000484       __imp_?OnGestureTwoFingerTap@CWnd@@MAEHVCPoint@@@Z 10023484     mfc140:mfc140.dll
 0002:00000488       __imp_?OnGestureRotate@CWnd@@MAEHVCPoint@@N@Z 10023488     mfc140:mfc140.dll
 0002:0000048c       __imp_?OnGesturePan@CWnd@@MAEHVCPoint@@0@Z 1002348c     mfc140:mfc140.dll
 0002:00000490       __imp_?OnGestureZoom@CWnd@@MAEHVCPoint@@J@Z 10023490     mfc140:mfc140.dll
 0002:00000494       __imp_?GetGestureStatus@CWnd@@MAEKVCPoint@@@Z 10023494     mfc140:mfc140.dll
 0002:00000498       __imp_?OnTouchInput@CWnd@@MAEHVCPoint@@HHPAUtagTOUCHINPUT@@@Z 10023498     mfc140:mfc140.dll
 0002:0000049c       __imp_?OnTouchInputs@CWnd@@MAEHIPAUtagTOUCHINPUT@@@Z 1002349c     mfc140:mfc140.dll
 0002:000004a0       __imp_?OnChildNotify@CWnd@@MAEHIIJPAJ@Z 100234a0     mfc140:mfc140.dll
 0002:000004a4       __imp_?PostNcDestroy@CWnd@@MAEXXZ 100234a4     mfc140:mfc140.dll
 0002:000004a8       __imp_?DefWindowProcA@CWnd@@MAEJIIJ@Z 100234a8     mfc140:mfc140.dll
 0002:000004ac       __imp_?OnWndMsg@CWnd@@MAEHIIJPAJ@Z 100234ac     mfc140:mfc140.dll
 0002:000004b0       __imp_?WindowProc@CWnd@@MAEJIIJ@Z 100234b0     mfc140:mfc140.dll
 0002:000004b4       __imp_?OnAmbientProperty@CWnd@@UAEHPAVCOleControlSite@@JPAUtagVARIANT@@@Z 100234b4     mfc140:mfc140.dll
 0002:000004b8       __imp_?PreTranslateMessage@CWnd@@UAEHPAUtagMSG@@@Z 100234b8     mfc140:mfc140.dll
 0002:000004bc       __imp_?GetSuperWndProcAddr@CWnd@@MAEPAP6GJPAUHWND__@@IIJ@ZXZ 100234bc     mfc140:mfc140.dll
 0002:000004c0       __imp_?OnNotify@CWnd@@MAEHIJPAJ@Z 100234c0     mfc140:mfc140.dll
 0002:000004c4       __imp_?OnCommand@CWnd@@MAEHIJ@Z 100234c4     mfc140:mfc140.dll
 0002:000004c8       __imp_?CreateAccessibleProxy@CWnd@@UAEJIJPAJ@Z 100234c8     mfc140:mfc140.dll
 0002:000004cc       __imp_?SetProxy@CWnd@@UAEJPAUIAccessibleProxy@@@Z 100234cc     mfc140:mfc140.dll
 0002:000004d0       __imp_?put_accValue@CWnd@@UAEJUtagVARIANT@@PA_W@Z 100234d0     mfc140:mfc140.dll
 0002:000004d4       __imp_?put_accName@CWnd@@UAEJUtagVARIANT@@PA_W@Z 100234d4     mfc140:mfc140.dll
 0002:000004d8       __imp_?accDoDefaultAction@CWnd@@UAEJUtagVARIANT@@@Z 100234d8     mfc140:mfc140.dll
 0002:000004dc       __imp_?accHitTest@CWnd@@UAEJJJPAUtagVARIANT@@@Z 100234dc     mfc140:mfc140.dll
 0002:000004e0       __imp_?accNavigate@CWnd@@UAEJJUtagVARIANT@@PAU2@@Z 100234e0     mfc140:mfc140.dll
 0002:000004e4       __imp_?accLocation@CWnd@@UAEJPAJ000UtagVARIANT@@@Z 100234e4     mfc140:mfc140.dll
 0002:000004e8       __imp_?accSelect@CWnd@@UAEJJUtagVARIANT@@@Z 100234e8     mfc140:mfc140.dll
 0002:000004ec       __imp_?get_accDefaultAction@CWnd@@UAEJUtagVARIANT@@PAPA_W@Z 100234ec     mfc140:mfc140.dll
 0002:000004f0       __imp_?get_accSelection@CWnd@@UAEJPAUtagVARIANT@@@Z 100234f0     mfc140:mfc140.dll
 0002:000004f4       __imp_?get_accFocus@CWnd@@UAEJPAUtagVARIANT@@@Z 100234f4     mfc140:mfc140.dll
 0002:000004f8       __imp_?get_accKeyboardShortcut@CWnd@@UAEJUtagVARIANT@@PAPA_W@Z 100234f8     mfc140:mfc140.dll
 0002:000004fc       __imp_?get_accHelpTopic@CWnd@@UAEJPAPA_WUtagVARIANT@@PAJ@Z 100234fc     mfc140:mfc140.dll
 0002:00000500       __imp_?get_accHelp@CWnd@@UAEJUtagVARIANT@@PAPA_W@Z 10023500     mfc140:mfc140.dll
 0002:00000504       __imp_?get_accState@CWnd@@UAEJUtagVARIANT@@PAU2@@Z 10023504     mfc140:mfc140.dll
 0002:00000508       __imp_?get_accRole@CWnd@@UAEJUtagVARIANT@@PAU2@@Z 10023508     mfc140:mfc140.dll
 0002:0000050c       __imp_?get_accDescription@CWnd@@UAEJUtagVARIANT@@PAPA_W@Z 1002350c     mfc140:mfc140.dll
 0002:00000510       __imp_?get_accValue@CWnd@@UAEJUtagVARIANT@@PAPA_W@Z 10023510     mfc140:mfc140.dll
 0002:00000514       __imp_?get_accName@CWnd@@UAEJUtagVARIANT@@PAPA_W@Z 10023514     mfc140:mfc140.dll
 0002:00000518       __imp_?get_accChild@CWnd@@UAEJUtagVARIANT@@PAPAUIDispatch@@@Z 10023518     mfc140:mfc140.dll
 0002:0000051c       __imp_?get_accChildCount@CWnd@@UAEJPAJ@Z 1002351c     mfc140:mfc140.dll
 0002:00000520       __imp_?get_accParent@CWnd@@UAEJPAPAUIDispatch@@@Z 10023520     mfc140:mfc140.dll
 0002:00000524       __imp_?EnsureStdObj@CWnd@@UAEJXZ 10023524     mfc140:mfc140.dll
 0002:00000528       __imp_?GetInterfaceMap@CWnd@@MBEPBUAFX_INTERFACEMAP@@XZ 10023528     mfc140:mfc140.dll
 0002:0000052c       __imp_?OnDrawIconicThumbnailOrLivePreview@CWnd@@UAEXAAVCDC@@VCRect@@VCSize@@HAAH@Z 1002352c     mfc140:mfc140.dll
 0002:00000530       __imp_?EndModalLoop@CWnd@@UAEXH@Z 10023530     mfc140:mfc140.dll
 0002:00000534       __imp_?ContinueModal@CWnd@@UAEHXZ 10023534     mfc140:mfc140.dll
 0002:00000538       __imp_?WinHelpInternal@CWnd@@UAEXKI@Z 10023538     mfc140:mfc140.dll
 0002:0000053c       __imp_?HtmlHelpA@CWnd@@UAEXKI@Z 1002353c     mfc140:mfc140.dll
 0002:00000540       __imp_?WinHelpA@CWnd@@UAEXKI@Z 10023540     mfc140:mfc140.dll
 0002:00000544       __imp_?GetScrollBarCtrl@CWnd@@UBEPAVCScrollBar@@H@Z 10023544     mfc140:mfc140.dll
 0002:00000548       __imp_?OnToolHitTest@CWnd@@UBEHVCPoint@@PAUtagTOOLINFOA@@@Z 10023548     mfc140:mfc140.dll
 0002:0000054c       __imp_?SetMenu@CWnd@@UAEHPAVCMenu@@@Z 1002354c     mfc140:mfc140.dll
 0002:00000550       __imp_?GetMenu@CWnd@@UBEPAVCMenu@@XZ 10023550     mfc140:mfc140.dll
 0002:00000554       __imp_?CalcWindowRect@CWnd@@UAEXPAUtagRECT@@I@Z 10023554     mfc140:mfc140.dll
 0002:00000558       __imp_?PreCreateWindow@CWnd@@UAEHAAUtagCREATESTRUCTA@@@Z 10023558     mfc140:mfc140.dll
 0002:0000055c       __imp_?DestroyWindow@CWnd@@UAEHXZ 1002355c     mfc140:mfc140.dll
 0002:00000560       __imp_?CreateEx@CWnd@@UAEHKPBD0KABUtagRECT@@PAV1@IPAX@Z 10023560     mfc140:mfc140.dll
 0002:00000564       __imp_?CreateEx@CWnd@@UAEHKPBD0KHHHHPAUHWND__@@PAUHMENU__@@PAX@Z 10023564     mfc140:mfc140.dll
 0002:00000568       __imp_?Create@CWnd@@UAEHPBD0KABUtagRECT@@PAV1@IPAUCCreateContext@@@Z 10023568     mfc140:mfc140.dll
 0002:0000056c       __imp_?AfxUnlockTempMaps@@YGHH@Z 1002356c     mfc140:mfc140.dll
 0002:00000570       __imp_?AfxLockTempMaps@@YGXXZ 10023570     mfc140:mfc140.dll
 0002:00000574       __imp_?AfxCoreInitModule@@YGXXZ 10023574     mfc140:mfc140.dll
 0002:00000578       __imp_?AfxTermExtensionModule@@YGXAAUAFX_EXTENSION_MODULE@@H@Z 10023578     mfc140:mfc140.dll
 0002:0000057c       __imp_?PreSubclassWindow@CWnd@@UAEXXZ 1002357c     mfc140:mfc140.dll
 0002:00000580       __imp_??0CWnd@@QAE@XZ      10023580     mfc140:mfc140.dll
 0002:00000584       __imp_?GetRuntimeClass@CWnd@@UBEPAUCRuntimeClass@@XZ 10023584     mfc140:mfc140.dll
 0002:00000588       __imp_?GetConnectionHook@CCmdTarget@@MAEPAUIConnectionPoint@@ABU_GUID@@@Z 10023588     mfc140:mfc140.dll
 0002:0000058c       __imp_?GetExtraConnectionPoints@CCmdTarget@@MAEHPAVCPtrArray@@@Z 1002358c     mfc140:mfc140.dll
 0002:00000590       __imp_?GetInterfaceHook@CCmdTarget@@UAEPAUIUnknown@@PBX@Z 10023590     mfc140:mfc140.dll
 0002:00000594       __imp_?OnCreateAggregates@CCmdTarget@@UAEHXZ 10023594     mfc140:mfc140.dll
 0002:00000598       __imp_?GetEventSinkMap@CCmdTarget@@MBEPBUAFX_EVENTSINKMAP@@XZ 10023598     mfc140:mfc140.dll
 0002:0000059c       __imp_?GetConnectionMap@CCmdTarget@@MBEPBUAFX_CONNECTIONMAP@@XZ 1002359c     mfc140:mfc140.dll
 0002:000005a0       __imp_?GetDispatchMap@CCmdTarget@@MBEPBUAFX_DISPMAP@@XZ 100235a0     mfc140:mfc140.dll
 0002:000005a4       __imp_?GetCommandMap@CCmdTarget@@MBEPBUAFX_OLECMDMAP@@XZ 100235a4     mfc140:mfc140.dll
 0002:000005a8       __imp_?GetTypeLib@CCmdTarget@@UAEJKPAPAUITypeLib@@@Z 100235a8     mfc140:mfc140.dll
 0002:000005ac       __imp_?GetTypeLibCache@CCmdTarget@@UAEPAVCTypeLibCache@@XZ 100235ac     mfc140:mfc140.dll
 0002:000005b0       __imp_?GetTypeInfoCount@CCmdTarget@@UAEIXZ 100235b0     mfc140:mfc140.dll
 0002:000005b4       __imp_?GetDispatchIID@CCmdTarget@@UAEHPAU_GUID@@@Z 100235b4     mfc140:mfc140.dll
 0002:000005b8       __imp_?PreTranslateMessage@CWinThread@@UAEHPAUtagMSG@@@Z 100235b8     mfc140:mfc140.dll
 0002:000005bc       __imp_?IsInvokeAllowed@CCmdTarget@@UAEHJ@Z 100235bc     mfc140:mfc140.dll
 0002:000005c0       __imp_?GetInterfaceMap@CCmdTarget@@MBEPBUAFX_INTERFACEMAP@@XZ 100235c0     mfc140:mfc140.dll
 0002:000005c4       __imp_?OnFinalRelease@CCmdTarget@@UAEXXZ 100235c4     mfc140:mfc140.dll
 0002:000005c8       __imp_?OnCmdMsg@CCmdTarget@@UAEHIHPAXPAUAFX_CMDHANDLERINFO@@@Z 100235c8     mfc140:mfc140.dll
 0002:000005cc       __imp_?Format@?$CStringT@DV?$StrTraitMFC_DLL@DV?$ChTraitsCRT@D@ATL@@@@@ATL@@QAAXPBDZZ 100235cc     mfc140:mfc140.dll
 0002:000005d0       __imp_?FreeDataChain@CPlex@@QAEXXZ 100235d0     mfc140:mfc140.dll
 0002:000005d4       __imp_?Create@CPlex@@SGPAU1@AAPAU1@II@Z 100235d4     mfc140:mfc140.dll
 0002:000005d8       __imp_?WriteCount@CArchive@@QAEXK@Z 100235d8     mfc140:mfc140.dll
 0002:000005dc       __imp_?CompareNoCase@?$CStringT@DV?$StrTraitMFC_DLL@DV?$ChTraitsCRT@D@ATL@@@@@ATL@@QBEHPBD@Z 100235dc     mfc140:mfc140.dll
 0002:000005e0       __imp_??4?$CStringT@DV?$StrTraitMFC_DLL@DV?$ChTraitsCRT@D@ATL@@@@@ATL@@QAEAAV01@PBD@Z 100235e0     mfc140:mfc140.dll
 0002:000005e4       __imp_??0?$CStringT@DV?$StrTraitMFC_DLL@DV?$ChTraitsCRT@D@ATL@@@@@ATL@@QAE@PBD@Z 100235e4     mfc140:mfc140.dll
 0002:000005e8       __imp_?ReadCount@CArchive@@QAEKXZ 100235e8     mfc140:mfc140.dll
 0002:000005ec       __imp_?Write@CArchive@@QAEXPBXI@Z 100235ec     mfc140:mfc140.dll
 0002:000005f0       __imp_?Read@CArchive@@QAEIPAXI@Z 100235f0     mfc140:mfc140.dll
 0002:000005f4       __imp_??1CFile@@UAE@XZ     100235f4     mfc140:mfc140.dll
 0002:000005f8       __imp_?AfxMessageBox@@YGHPBDII@Z 100235f8     mfc140:mfc140.dll
 0002:000005fc       __imp_?ScreenToClient@CWnd@@QBEXPAUtagRECT@@@Z 100235fc     mfc140:mfc140.dll
 0002:00000600       __imp_?ClientToScreen@CWnd@@QBEXPAUtagRECT@@@Z 10023600     mfc140:mfc140.dll
 0002:00000604       __imp_?MoveWindow@CWnd@@QAEXHHHHH@Z 10023604     mfc140:mfc140.dll
 0002:00000608       __imp_?GetDlgItem@CWnd@@QBEPAV1@H@Z 10023608     mfc140:mfc140.dll
 0002:0000060c       __imp_?FromHandle@CWnd@@SGPAV1@PAUHWND__@@@Z 1002360c     mfc140:mfc140.dll
 0002:00000610       __imp_??1CObArray@@UAE@XZ  10023610     mfc140:mfc140.dll
 0002:00000614       __imp_?RemoveAt@CObArray@@QAEXHH@Z 10023614     mfc140:mfc140.dll
 0002:00000618       __imp_?SetAtGrow@CObArray@@QAEXHPAVCObject@@@Z 10023618     mfc140:mfc140.dll
 0002:0000061c       __imp_??0CObArray@@QAE@XZ  1002361c     mfc140:mfc140.dll
 0002:00000620       __imp_??0?$CStringT@DV?$StrTraitMFC_DLL@DV?$ChTraitsCRT@D@ATL@@@@@ATL@@QAE@ABV01@@Z 10023620     mfc140:mfc140.dll
 0002:00000624       __imp_?AfxThrowInvalidArgException@@YGXXZ 10023624     mfc140:mfc140.dll
 0002:00000628       __imp_??2@YAPAXI@Z         10023628     mfc140:mfc140.dll
 0002:0000062c       __imp_?InvokeHelper@COleDispatchDriver@@QAAXJGGPAXPBEZZ 1002362c     mfc140:mfc140.dll
 0002:00000630       __imp_?ReleaseDispatch@COleDispatchDriver@@QAEXXZ 10023630     mfc140:mfc140.dll
 0002:00000634       __imp_??0COleDispatchDriver@@QAE@XZ 10023634     mfc140:mfc140.dll
 0002:00000638       __imp_?Close@CFile@@UAEXXZ 10023638     mfc140:mfc140.dll
 0002:0000063c       __imp_??1?$CStringT@DV?$StrTraitMFC_DLL@DV?$ChTraitsCRT@D@ATL@@@@@ATL@@QAE@XZ 1002363c     mfc140:mfc140.dll
 0002:00000640       __imp_?Read@CFile@@UAEIPAXI@Z 10023640     mfc140:mfc140.dll
 0002:00000644       __imp_??0?$CStringT@DV?$StrTraitMFC_DLL@DV?$ChTraitsCRT@D@ATL@@@@@ATL@@QAE@XZ 10023644     mfc140:mfc140.dll
 0002:00000648       __imp_??_U@YAPAXI@Z        10023648     mfc140:mfc140.dll
 0002:0000064c       __imp_?AfxThrowOleException@@YGXJ@Z 1002364c     mfc140:mfc140.dll
 0002:00000650       __imp_?GetLength@CFile@@UBE_KXZ 10023650     mfc140:mfc140.dll
 0002:00000654       __imp_?Find@?$CStringT@DV?$StrTraitMFC_DLL@DV?$ChTraitsCRT@D@ATL@@@@@ATL@@QBEHDH@Z 10023654     mfc140:mfc140.dll
 0002:00000658       __imp_?Delete@CException@@QAEXXZ 10023658     mfc140:mfc140.dll
 0002:0000065c       __imp_??3CNoTrackObject@@SGXPAX@Z 1002365c     mfc140:mfc140.dll
 0002:00000660       __imp_??0AFX_MODULE_STATE@@QAE@HP6GJPAUHWND__@@IIJ@ZKH@Z 10023660     mfc140:mfc140.dll
 0002:00000664       __imp_??1AFX_MODULE_STATE@@UAE@XZ 10023664     mfc140:mfc140.dll
 0002:00000668       __imp_?AfxSetModuleState@@YGPAVAFX_MODULE_STATE@@PAV1@@Z 10023668     mfc140:mfc140.dll
 0002:0000066c       __imp_??0AFX_MAINTAIN_STATE2@@QAE@PAVAFX_MODULE_STATE@@@Z 1002366c     mfc140:mfc140.dll
 0002:00000670       __imp_??1AFX_MAINTAIN_STATE2@@QAE@XZ 10023670     mfc140:mfc140.dll
 0002:00000674       __imp_?AfxWinInit@@YGHPAUHINSTANCE__@@0PADH@Z 10023674     mfc140:mfc140.dll
 0002:00000678       __imp_?AfxWndProc@@YGJPAUHWND__@@IIJ@Z 10023678     mfc140:mfc140.dll
 0002:0000067c       __imp_?AfxTermThread@@YGXPAUHINSTANCE__@@@Z 1002367c     mfc140:mfc140.dll
 0002:00000680       __imp_?AfxWinTerm@@YGXXZ   10023680     mfc140:mfc140.dll
 0002:00000684       __imp_??0CDynLinkLibrary@@QAE@AAUAFX_EXTENSION_MODULE@@H@Z 10023684     mfc140:mfc140.dll
 0002:00000688       __imp_?AfxInitExtensionModule@@YGHAAUAFX_EXTENSION_MODULE@@PAUHINSTANCE__@@@Z 10023688     mfc140:mfc140.dll
 0002:0000068c       __imp_??3@YAXPAX@Z         1002368c     mfc140:mfc140.dll
 0002:00000690       \177mfc140_NULL_THUNK_DATA 10023690     mfc140:mfc140.dll
 0002:00000694       __imp__StringFromCLSID@8   10023694     ole32:ole32.dll
 0002:00000698       __imp__CLSIDFromProgID@8   10023698     ole32:ole32.dll
 0002:0000069c       __imp__CoTaskMemFree@4     1002369c     ole32:ole32.dll
 0002:000006a0       \177ole32_NULL_THUNK_DATA  100236a0     ole32:ole32.dll
 0002:000006a4       ___guard_check_icall_fptr  100236a4     msvcrt:guard_support.obj
 0002:000006a8       ___guard_xfg_check_icall_fptr 100236a8     msvcrt:guard_support.obj
 0002:000006ac       ___xc_a                    100236ac     msvcrt:initializers.obj
 0002:000008f0       ___xc_z                    100238f0     msvcrt:initializers.obj
 0002:000008f4       ___xi_a                    100238f4     msvcrt:initializers.obj
 0002:000008fc       ___xi_z                    100238fc     msvcrt:initializers.obj
 0002:00000900       ___xl_a                    10023900     msvcrt:tlssup.obj
 0002:00000904       ___xl_z                    10023904     msvcrt:tlssup.obj
 0002:00000908       ___xp_a                    10023908     msvcrt:initializers.obj
 0002:0000090c       ___xp_z                    1002390c     msvcrt:initializers.obj
 0002:00000910       ___xt_a                    10023910     msvcrt:initializers.obj
 0002:00000914       ___xt_z                    10023914     msvcrt:initializers.obj
 0002:00000920       ??_C@_0P@BKKCOCLK@RMSG_INTERFACE@ 10023920     #SiteDependency.obj
 0002:00000930       ??_C@_0BB@GOOPDKI@RMSG_GETPCTRDATA@ 10023930     #SiteDependency.obj
 0002:00000944       ??_C@_0BB@JPACFCL@RMSG_SETPCTRDATA@ 10023944     #SiteDependency.obj
 0002:00000958       ??_C@_0BB@EPGJDGDK@RMSG_CONCERNHWND@ 10023958     #SiteDependency.obj
 0002:0000096c       ??_C@_0BA@JHANHJCN@RMSG_INTREQUEST@ 1002396c     #SiteDependency.obj
 0002:0000097c       ??_C@_0BF@MNPNIDPI@RMSG_GWANSIMREGISTER@ 1002397c     #SiteDependency.obj
 0002:00000994       ??_C@_1O@KIELGECM@?$AAS?$AAe?$AAn?$AAd?$AAT?$AAR@ 10023994     DispDesk.obj
 0002:000009a4       ??_C@_1BE@NEKAOIBK@?$AAR?$AAe?$AAc?$AAe?$AAi?$AAv?$AAe?$AAT?$AAR@ 100239a4     DispDesk.obj
 0002:000009b8       ??_C@_1CA@NFELDDBO@?$AAS?$AAe?$AAt?$AAS?$AAo?$AAc?$AAk?$AAe?$AAt?$AAH?$AAa?$AAn?$AAd?$AAl?$AAe@ 100239b8     DispDesk.obj
 0002:000009d8       ??_C@_1CA@LJJIEHNN@?$AAG?$AAe?$AAt?$AAS?$AAo?$AAc?$AAk?$AAe?$AAt?$AAH?$AAa?$AAn?$AAd?$AAl?$AAe@ 100239d8     DispDesk.obj
 0002:000009f8       ??_C@_1CG@JDJGOFKB@?$AAS?$AAe?$AAt?$AAS?$AAh?$AAa?$AAr?$AAe?$AAd?$AAI?$AAn?$AAt?$AAe?$AAr?$AAf@ 100239f8     DispDesk.obj
 0002:00000a20       ??_C@_1BK@GDHAKDF@?$AAU?$AAn?$AAL?$AAo?$AAa?$AAd?$AAS?$AAc?$AAr?$AAi?$AAp?$AAt@ 10023a20     DispDesk.obj
 0002:00000a3c       ??_C@_1M@FBDBEKAM@?$AAB?$AAl?$AAa?$AAn?$AAk@ 10023a3c     DispDesk.obj
 0002:00000a48       ??_C@_1BM@JDHAJGKD@?$AAS?$AAh?$AAo?$AAw?$AAT?$AAr?$AAM?$AAe?$AAs?$AAs?$AAa?$AAg?$AAe@ 10023a48     DispDesk.obj
 0002:00000a64       ??_C@_1BO@HKIJKHNI@?$AAS?$AAh?$AAo?$AAw?$AAM?$AAe?$AAs?$AAs?$AAa?$AAg?$AAe?$AAB?$AAo?$AAx@ 10023a64     DispDesk.obj
 0002:00000a84       ??_C@_1BE@PIOPHLCJ@?$AAG?$AAe?$AAt?$AAT?$AAr?$AAL?$AAi?$AAs?$AAt@ 10023a84     DispDesk.obj
 0002:00000a98       ??_C@_1BG@IADOHFP@?$AAG?$AAe?$AAt?$AAM?$AAa?$AAp?$AAN?$AAa?$AAm?$AAe@ 10023a98     DispDesk.obj
 0002:00000ab0       ??_C@_1BG@DGIFPOCN@?$AAG?$AAe?$AAt?$AAM?$AAa?$AAp?$AAI?$AAn?$AAf?$AAo@ 10023ab0     DispDesk.obj
 0002:00000ac8       ??_C@_1CI@JFNEDDFJ@?$AAG?$AAe?$AAt?$AAC?$AAt?$AAr?$AAl?$AAH?$AAw?$AAn?$AAd?$AAF?$AAr?$AAo?$AAm@ 10023ac8     DispDesk.obj
 0002:00000af0       ??_C@_1CI@LAKBAIKD@?$AAG?$AAe?$AAt?$AAC?$AAt?$AAr?$AAl?$AAN?$AAa?$AAm?$AAe?$AAF?$AAr?$AAo?$AAm@ 10023af0     DispDesk.obj
 0002:00000b18       ??_C@_1CI@KMMLONAK@?$AAG?$AAe?$AAt?$AAC?$AAt?$AAr?$AAl?$AAT?$AAy?$AAp?$AAe?$AAF?$AAr?$AAo?$AAm@ 10023b18     DispDesk.obj
 0002:00000b40       ??_C@_1CI@CFCJLACK@?$AAG?$AAe?$AAt?$AAC?$AAt?$AAr?$AAl?$AAT?$AAy?$AAp?$AAe?$AAF?$AAr?$AAo?$AAm@ 10023b40     DispDesk.obj
 0002:00000b68       ??_C@_1BK@HPKJAGHK@?$AAC?$AAa?$AAl?$AAl?$AAF?$AAu?$AAn?$AAc?$AAt?$AAi?$AAo?$AAn@ 10023b68     DispDesk.obj
 0002:00000b84       ??_C@_1CE@BEIIHEOD@?$AAS?$AAe?$AAt?$AAP?$AAa?$AAr?$AAe?$AAn?$AAt?$AAD?$AAi?$AAs?$AAp?$AAa?$AAt@ 10023b84     DispDesk.obj
 0002:00000ba8       ??_C@_1CA@IFGEACPB@?$AAG?$AAe?$AAt?$AAD?$AAi?$AAs?$AAp?$AAF?$AAr?$AAo?$AAm?$AAN?$AAa?$AAm?$AAe@ 10023ba8     DispDesk.obj
 0002:00000bc8       ??_C@_1BI@NDKNJEPM@?$AAG?$AAe?$AAt?$AAR?$AAo?$AAo?$AAt?$AAP?$AAa?$AAt?$AAh@ 10023bc8     DispDesk.obj
 0002:00000be0       ??_C@_1BM@CHGEHELO@?$AAG?$AAe?$AAt?$AAF?$AAo?$AAr?$AAm?$AAT?$AAr?$AAD?$AAa?$AAt?$AAa@ 10023be0     DispDesk.obj
 0002:00000bfc       ??_C@_1BM@DKOMFBBK@?$AAS?$AAe?$AAt?$AAF?$AAo?$AAr?$AAm?$AAT?$AAr?$AAD?$AAa?$AAt?$AAa@ 10023bfc     DispDesk.obj
 0002:00000c18       ??_C@_1BG@NICPHEAF@?$AAF?$AAo?$AAr?$AAm?$AAU?$AAn?$AAL?$AAo?$AAa?$AAd@ 10023c18     DispDesk.obj
 0002:00000c30       ??_C@_1BO@BKAOKKAA@?$AAS?$AAe?$AAt?$AAO?$AAp?$AAe?$AAn?$AAM?$AAa?$AAp?$AAD?$AAa?$AAt?$AAa@ 10023c30     DispDesk.obj
 0002:00000c50       ??_C@_1CC@IALEMHMG@?$AAS?$AAe?$AAn?$AAd?$AAD?$AAa?$AAt?$AAa?$AAT?$AAo?$AAO?$AAp?$AAe?$AAn?$AAe@ 10023c50     DispDesk.obj
 0002:00000c74       ??_C@_1BI@KFOFPKIA@?$AAC?$AAa?$AAl?$AAl?$AAC?$AAo?$AAm?$AAm?$AAa?$AAn?$AAd@ 10023c74     DispDesk.obj
 0002:00000c8c       ??_C@_1BO@JLGBBKCC@?$AAG?$AAe?$AAt?$AAO?$AAp?$AAe?$AAn?$AAM?$AAa?$AAp?$AAD?$AAa?$AAt?$AAa@ 10023c8c     DispDesk.obj
 0002:00000cac       ??_C@_1CA@GMCBGANC@?$AAS?$AAe?$AAt?$AAO?$AAp?$AAe?$AAn?$AAM?$AAa?$AAp?$AAD?$AAa?$AAt?$AAa?$AA2@ 10023cac     DispDesk.obj
 0002:00000ccc       ??_C@_1BO@EAFJHIHC@?$AAN?$AAo?$AAt?$AAi?$AAf?$AAy?$AAF?$AAr?$AAo?$AAm?$AAM?$AAa?$AAi?$AAn@ 10023ccc     DispDesk.obj
 0002:00000cec       ??_C@_1BI@KGHAFHKA@?$AAE?$AAn?$AAa?$AAb?$AAl?$AAe?$AAF?$AAo?$AAc?$AAu?$AAs@ 10023cec     DispDesk.obj
 0002:00000d04       ??_C@_1BE@GHIPLDDL@?$AAG?$AAo?$AAt?$AAo?$AAF?$AAo?$AAc?$AAu?$AAs@ 10023d04     DispDesk.obj
 0002:00000d18       ??_C@_1BG@JGFILGLN@?$AAS?$AAe?$AAt?$AAK?$AAe?$AAy?$AAD?$AAa?$AAt?$AAa@ 10023d18     DispDesk.obj
 0002:00000d30       ??_C@_1BG@GDAOGPPM@?$AAG?$AAe?$AAt?$AAK?$AAe?$AAy?$AAD?$AAa?$AAt?$AAa@ 10023d30     DispDesk.obj
 0002:00000d48       ??_C@_1CK@NFKNHMDM@?$AAS?$AAe?$AAt?$AAG?$AAS?$AAh?$AAa?$AAr?$AAe?$AAd?$AAN?$AAo?$AAt?$AAi?$AAf@ 10023d48     DispDesk.obj
 0002:00000d74       ??_C@_1BE@FJHGHHJA@?$AAL?$AAo?$AAa?$AAd?$AAX?$AAf?$AAm?$AAE?$AAx@ 10023d74     DispDesk.obj
 0002:00000d88       ??_C@_1BG@BNAAOKLP@?$AAR?$AAe?$AAs?$AAi?$AAz?$AAe?$AAF?$AAo?$AAn?$AAt@ 10023d88     DispDesk.obj
 0002:00000da0       ??_C@_1BG@BHGFMEJB@?$AAG?$AAe?$AAt?$AAM?$AAa?$AAp?$AAS?$AAi?$AAz?$AAe@ 10023da0     DispDesk.obj
 0002:00000db8       ??_C@_1BI@MHKGKKII@?$AAS?$AAe?$AAt?$AAI?$AAn?$AAi?$AAt?$AAF?$AAo?$AAn?$AAt@ 10023db8     DispDesk.obj
 0002:00000dd0       ??_C@_1BG@OKCOEOIM@?$AAS?$AAe?$AAt?$AAT?$AAa?$AAb?$AAS?$AAt?$AAo?$AAp@ 10023dd0     DispDesk.obj
 0002:00000de8       ??_C@_1CC@CGCAKOBD@?$AAN?$AAo?$AAt?$AAi?$AAf?$AAy?$AAG?$AAS?$AAh?$AAa?$AAr?$AAe?$AAD?$AAa?$AAt@ 10023de8     DispDesk.obj
 0002:00000e0c       ??_C@_1CC@LOMMDIOP@?$AAS?$AAe?$AAt?$AAS?$AAe?$AAn?$AAd?$AAC?$AAo?$AAu?$AAn?$AAt?$AAF?$AAl?$AAa@ 10023e0c     DispDesk.obj
 0002:00000e30       ??_C@_1BI@HILDJCJO@?$AAD?$AAe?$AAb?$AAu?$AAg?$AAT?$AAr?$AAD?$AAa?$AAt?$AAa@ 10023e30     DispDesk.obj
 0002:00000e48       ??_C@_1BK@DOELELCL@?$AAS?$AAe?$AAn?$AAd?$AAT?$AAr?$AAD?$AAi?$AAr?$AAe?$AAc?$AAt@ 10023e48     DispDesk.obj
 0002:00000e64       ??_C@_1BA@KMFOECKF@?$AAS?$AAe?$AAt?$AAF?$AAl?$AAa?$AAg@ 10023e64     DispDesk.obj
 0002:00000e74       ??_C@_1BM@OENDCIID@?$AAC?$AAh?$AAa?$AAn?$AAg?$AAe?$AAT?$AAR?$AAI?$AAn?$AAO?$AAu?$AAt@ 10023e74     DispDesk.obj
 0002:00000e90       ??_C@_1BK@IGCGCFNE@?$AAG?$AAe?$AAt?$AAU?$AAs?$AAe?$AAr?$AAC?$AAo?$AAl?$AAo?$AAr@ 10023e90     DispDesk.obj
 0002:00000eac       ??_C@_1CI@IEJNALOK@?$AAG?$AAe?$AAt?$AAC?$AAu?$AAr?$AAr?$AAe?$AAn?$AAt?$AAT?$AAr?$AAM?$AAe?$AAs@ 10023eac     DispDesk.obj
 0002:00000ed4       ??_C@_1CE@NALKHLND@?$AAG?$AAe?$AAt?$AAC?$AAu?$AAr?$AAr?$AAe?$AAn?$AAt?$AAM?$AAs?$AAg?$AAC?$AAo@ 10023ed4     DispDesk.obj
 0002:00000ef8       ??_C@_1CI@MEFMNOH@?$AAS?$AAe?$AAl?$AAe?$AAc?$AAt?$AAP?$AAa?$AAc?$AAk?$AAe?$AAt?$AAC?$AAo?$AAm@ 10023ef8     DispDesk.obj
 0002:00000f20       ??_C@_1BE@LCNOBEJ@?$AAS?$AAe?$AAt?$AAR?$AAs?$AAc?$AAM?$AAn?$AAg@ 10023f20     DispDesk.obj
 0002:00000f34       ??_C@_1BK@GNILNMLM@?$AAM?$AAa?$AAi?$AAn?$AAK?$AAe?$AAy?$AAP?$AAr?$AAe?$AAs?$AAs@ 10023f34     DispDesk.obj
 0002:00000f50       ??_C@_1CI@KGMGLBIN@?$AAS?$AAe?$AAt?$AAM?$AAo?$AAn?$AAi?$AAt?$AAo?$AAr?$AAi?$AAn?$AAg?$AAH?$AAa@ 10023f50     DispDesk.obj
 0002:00000f78       ??_C@_1CC@BJGPLKHJ@?$AAS?$AAe?$AAt?$AAN?$AAo?$AAt?$AAi?$AAf?$AAy?$AAC?$AAo?$AAm?$AAm?$AAa?$AAn@ 10023f78     DispDesk.obj
 0002:00000f9c       ??_C@_1CE@LJGELICL@?$AAA?$AAd?$AAd?$AAU?$AAs?$AAe?$AAr?$AAS?$AAc?$AAr?$AAi?$AAp?$AAt?$AAI?$AAt@ 10023f9c     DispDesk.obj
 0002:00000fc0       ??_C@_1BG@DLIGMEDF@?$AAS?$AAe?$AAt?$AAT?$AAi?$AAm?$AAe?$AAO?$AAu?$AAt@ 10023fc0     DispDesk.obj
 0002:00000fd8       ??_C@_1BK@OENEFBNG@?$AAE?$AAx?$AAc?$AAu?$AAt?$AAe?$AAS?$AAc?$AAr?$AAi?$AAp?$AAt@ 10023fd8     DispDesk.obj
 0002:00000ff4       ??_C@_1BG@LEJKLDJC@?$AAG?$AAe?$AAt?$AAM?$AAa?$AAp?$AAD?$AAa?$AAt?$AAa@ 10023ff4     DispDesk.obj
 0002:0000100c       ??_C@_1BM@DHCCDBJ@?$AAS?$AAe?$AAn?$AAd?$AAT?$AAR?$AAF?$AAo?$AAr?$AAC?$AAe?$AAr?$AAt@ 1002400c     DispDesk.obj
 0002:00001028       ??_C@_1BM@IBHIPADC@?$AAR?$AAe?$AAs?$AAi?$AAz?$AAe?$AAC?$AAo?$AAn?$AAt?$AAr?$AAo?$AAl@ 10024028     DispDesk.obj
 0002:00001044       ??_C@_1BI@BDEOEOEI@?$AAM?$AAo?$AAv?$AAe?$AAC?$AAo?$AAn?$AAt?$AAr?$AAo?$AAl@ 10024044     DispDesk.obj
 0002:0000105c       ??_C@_1CE@JBKJBJLC@?$AAS?$AAe?$AAt?$AAC?$AAt?$AAr?$AAl?$AAR?$AAe?$AAs?$AAi?$AAz?$AAe?$AAF?$AAl@ 1002405c     DispDesk.obj
 0002:00001080       ??_C@_1BK@GJGINPCK@?$AAI?$AAs?$AAD?$AAe?$AAs?$AAk?$AAA?$AAc?$AAt?$AAi?$AAv?$AAe@ 10024080     DispDesk.obj
 0002:0000109c       ??_C@_1BC@ELAAOGBL@?$AAS?$AAa?$AAv?$AAe?$AAD?$AAa?$AAt?$AAa@ 1002409c     DispFormData.obj
 0002:000010b0       ??_C@_1BC@CLIEDCAD@?$AAL?$AAo?$AAa?$AAd?$AAD?$AAa?$AAt?$AAa@ 100240b0     DispFormData.obj
 0002:000010c4       ??_C@_1BI@NJDPAPLL@?$AAS?$AAa?$AAv?$AAe?$AAI?$AAn?$AAi?$AAD?$AAa?$AAt?$AAa@ 100240c4     DispFormData.obj
 0002:000010dc       ??_C@_1BI@GACDLMJI@?$AAL?$AAo?$AAa?$AAd?$AAI?$AAn?$AAi?$AAD?$AAa?$AAt?$AAa@ 100240dc     DispFormData.obj
 0002:000010f4       ??_C@_1CI@BFCGNDMK@?$AAS?$AAa?$AAv?$AAe?$AAS?$AAt?$AAr?$AAi?$AAn?$AAg?$AAD?$AAa?$AAt?$AAa?$AAT@ 100240f4     DispFormData.obj
 0002:0000111c       ??_C@_1CC@FAPLPLKE@?$AAS?$AAa?$AAv?$AAe?$AAI?$AAn?$AAt?$AAD?$AAa?$AAt?$AAa?$AAT?$AAo?$AAC?$AAf@ 1002411c     DispFormData.obj
 0002:00001140       ??_C@_1CC@GGPEBGBE@?$AAL?$AAo?$AAa?$AAd?$AAI?$AAn?$AAt?$AAD?$AAa?$AAt?$AAa?$AAI?$AAn?$AAC?$AAf@ 10024140     DispFormData.obj
 0002:00001164       ??_C@_1BM@OFDKJEBA@?$AAG?$AAe?$AAt?$AAM?$AAa?$AAp?$AAC?$AAf?$AAg?$AAF?$AAi?$AAl?$AAe@ 10024164     DispFormData.obj
 0002:00001180       ??_C@_1CA@KENBIHOF@?$AAG?$AAe?$AAt?$AAU?$AAs?$AAe?$AAr?$AAD?$AAa?$AAt?$AAa?$AAP?$AAa?$AAt?$AAh@ 10024180     DispFormData.obj
 0002:000011a0       ??_C@_1CO@BKIOACDF@?$AAW?$AAr?$AAi?$AAt?$AAe?$AAP?$AAr?$AAi?$AAv?$AAa?$AAt?$AAe?$AAD?$AAa?$AAt@ 100241a0     DispFormData.obj
 0002:000011d0       ??_C@_1CK@IIICHPKP@?$AAG?$AAe?$AAt?$AAP?$AAr?$AAi?$AAv?$AAa?$AAt?$AAe?$AAD?$AAa?$AAt?$AAa?$AAS@ 100241d0     DispFormData.obj
 0002:000011fc       ??_C@_1CG@CINMELKM@?$AAW?$AAr?$AAi?$AAt?$AAe?$AAP?$AAr?$AAi?$AAv?$AAa?$AAt?$AAe?$AAD?$AAe?$AAl@ 100241fc     DispFormData.obj
 0002:00001224       ??_C@_1CI@KJDIMPOL@?$AAL?$AAo?$AAa?$AAd?$AAS?$AAt?$AAr?$AAi?$AAn?$AAg?$AAD?$AAa?$AAt?$AAa?$AAI@ 10024224     DispFormData.obj
 0002:0000124c       ??_C@_1BE@MOAKIBKF@?$AAR?$AAe?$AAL?$AAo?$AAa?$AAd?$AAM?$AAa?$AAp@ 1002424c     DispFormOpen.obj
 0002:00001260       ??_C@_1BA@DMGPBCKL@?$AAO?$AAp?$AAe?$AAn?$AAM?$AAa?$AAp@ 10024260     DispFormOpen.obj
 0002:00001270       ??_C@_1BA@DBKFIFHF@?$AAL?$AAo?$AAa?$AAd?$AAM?$AAa?$AAp@ 10024270     DispFormOpen.obj
 0002:00001280       ??_C@_1BE@NGAELKLN@?$AAD?$AAi?$AAa?$AAl?$AAo?$AAg?$AAM?$AAa?$AAp@ 10024280     DispFormOpen.obj
 0002:00001294       ??_C@_1BC@BKBJNBB@?$AAP?$AAo?$AAp?$AAu?$AAp?$AAM?$AAa?$AAp@ 10024294     DispFormOpen.obj
 0002:000012a8       ??_C@_1BC@PCNAMPEP@?$AAC?$AAl?$AAo?$AAs?$AAe?$AAM?$AAa?$AAp@ 100242a8     DispFormOpen.obj
 0002:000012bc       ??_C@_1BO@HGLPECIO@?$AAS?$AAi?$AAn?$AAg?$AAl?$AAe?$AAP?$AAo?$AAp?$AAu?$AAp?$AAM?$AAa?$AAp@ 100242bc     DispFormOpen.obj
 0002:000012dc       ??_C@_1CA@FMNFLINH@?$AAG?$AAe?$AAt?$AAD?$AAa?$AAt?$AAa?$AAS?$AAa?$AAv?$AAe?$AAT?$AAy?$AAp?$AAe@ 100242dc     DispFrame.obj
 0002:000012fc       ??_C@_1CC@ELBMIKMH@?$AAG?$AAe?$AAt?$AAF?$AAr?$AAa?$AAm?$AAe?$AAI?$AAn?$AAf?$AAo?$AAF?$AAi?$AAl@ 100242fc     DispFrame.obj
 0002:00001320       ??_C@_1BI@JLBLOHIP@?$AAG?$AAe?$AAt?$AAF?$AAo?$AAn?$AAt?$AAS?$AAi?$AAz?$AAe@ 10024320     DispFrame.obj
 0002:00001338       ??_C@_1BO@NDFBAJLP@?$AAG?$AAe?$AAt?$AAF?$AAr?$AAa?$AAm?$AAe?$AAS?$AAc?$AAr?$AAN?$AAu?$AAm@ 10024338     DispFrame.obj
 0002:00001358       ??_C@_1CA@FKHJFHCC@?$AAC?$AAh?$AAa?$AAn?$AAg?$AAe?$AAF?$AAr?$AAa?$AAm?$AAe?$AAS?$AAi?$AAz?$AAe@ 10024358     DispFrame.obj
 0002:00001378       ??_C@_1BI@JPNOCPBC@?$AAG?$AAe?$AAt?$AAU?$AAs?$AAe?$AAr?$AAI?$AAn?$AAf?$AAo@ 10024378     DispMain.obj
 0002:00001390       ??_C@_1O@IEHJLNPD@?$AAM?$AAs?$AAg?$AAB?$AAo?$AAx@ 10024390     DispMain.obj
 0002:000013a0       ??_C@_1CE@CCKAJBGG@?$AAC?$AAh?$AAa?$AAn?$AAg?$AAe?$AAT?$AAa?$AAb?$AAP?$AAr?$AAo?$AAp?$AAe?$AAr@ 100243a0     DispMain.obj
 0002:000013c4       ??_C@_1BM@NCOKIOFN@?$AAS?$AAe?$AAt?$AAG?$AAS?$AAh?$AAa?$AAr?$AAe?$AAD?$AAa?$AAt?$AAa@ 100243c4     DispMain.obj
 0002:000013e0       ??_C@_1BM@MPGCKLPJ@?$AAG?$AAe?$AAt?$AAG?$AAS?$AAh?$AAa?$AAr?$AAe?$AAD?$AAa?$AAt?$AAa@ 100243e0     DispMain.obj
 0002:000013fc       ??_C@_1CC@MKFNFKJO@?$AAS?$AAe?$AAt?$AAF?$AAr?$AAa?$AAm?$AAe?$AAV?$AAa?$AAr?$AAi?$AAa?$AAb?$AAl@ 100243fc     DispMain.obj
 0002:00001420       ??_C@_1CC@HNOCAHOF@?$AAG?$AAe?$AAt?$AAF?$AAr?$AAa?$AAm?$AAe?$AAV?$AAa?$AAr?$AAi?$AAa?$AAb?$AAl@ 10024420     DispMain.obj
 0002:00001444       ??_C@_1CC@GDGABKIG@?$AAR?$AAe?$AAm?$AAo?$AAv?$AAe?$AAG?$AAl?$AAo?$AAb?$AAa?$AAl?$AAD?$AAa?$AAt@ 10024444     DispMain.obj
 0002:00001468       ??_C@_1BE@IDBKKNFI@?$AAC?$AAl?$AAo?$AAs?$AAe?$AAM?$AAa?$AAi?$AAn@ 10024468     DispMain.obj
 0002:0000147c       ??_C@_1BA@EGEDPFCL@?$AAR?$AAe?$AAs?$AAt?$AAa?$AAr?$AAt@ 1002447c     DispMain.obj
 0002:0000148c       ??_C@_1BI@HDOCPFCP@?$AAG?$AAe?$AAt?$AAA?$AAc?$AAc?$AAt?$AAL?$AAi?$AAs?$AAt@ 1002448c     DispMain.obj
 0002:000014a4       ??_C@_1CA@KEGHBPBJ@?$AAS?$AAe?$AAt?$AAO?$AAp?$AAe?$AAn?$AAM?$AAa?$AAp?$AAS?$AAt?$AAy?$AAl?$AAe@ 100244a4     DispMain.obj
 0002:000014c4       ??_C@_1BI@EIMJPKID@?$AAG?$AAe?$AAt?$AAG?$AAw?$AAa?$AAn?$AAL?$AAi?$AAs?$AAt@ 100244c4     DispMain.obj
 0002:000014dc       ??_C@_1BI@IJNLKKFA@?$AAG?$AAe?$AAt?$AAG?$AAw?$AAa?$AAn?$AAC?$AAo?$AAd?$AAe@ 100244dc     DispMain.obj
 0002:000014f4       ??_C@_1CA@BODDOHAE@?$AAC?$AAl?$AAe?$AAa?$AAr?$AAM?$AAe?$AAs?$AAs?$AAa?$AAg?$AAe?$AAB?$AAa?$AAr@ 100244f4     DispMain.obj
 0002:00001514       ??_C@_1BG@IHDPANNO@?$AAS?$AAh?$AAo?$AAw?$AAD?$AAi?$AAa?$AAl?$AAo?$AAg@ 10024514     DispMain.obj
 0002:0000152c       ??_C@_1BI@CLKIACHL@?$AAN?$AAo?$AAt?$AAi?$AAf?$AAy?$AAE?$AAv?$AAe?$AAn?$AAt@ 1002452c     DispMain.obj
 0002:00001544       ??_C@_1CI@HHLIIAHJ@?$AAG?$AAe?$AAt?$AAG?$AAw?$AAa?$AAn?$AAC?$AAo?$AAd?$AAe?$AAO?$AAn?$AAe?$AAG@ 10024544     DispMain.obj
 0002:0000156c       ??_C@_1BM@BBHPBFJE@?$AAS?$AAe?$AAt?$AAA?$AAc?$AAc?$AAt?$AAP?$AAa?$AAs?$AAs?$AAw?$AAd@ 1002456c     DispMain.obj
 0002:00001588       ??_C@_1BM@MPHDADA@?$AAG?$AAe?$AAt?$AAA?$AAc?$AAc?$AAt?$AAP?$AAa?$AAs?$AAs?$AAw?$AAd@ 10024588     DispMain.obj
 0002:000015a4       ??_C@_1CC@JKAADBHM@?$AAS?$AAe?$AAt?$AAB?$AAa?$AAt?$AAc?$AAh?$AAA?$AAc?$AAc?$AAt?$AAI?$AAn?$AAf@ 100245a4     DispMain.obj
 0002:000015c8       ??_C@_1CC@CNLPGMAH@?$AAG?$AAe?$AAt?$AAB?$AAa?$AAt?$AAc?$AAh?$AAA?$AAc?$AAc?$AAt?$AAI?$AAn?$AAf@ 100245c8     DispMain.obj
 0002:000015ec       ??_C@_1BM@FMHAJHPK@?$AAG?$AAe?$AAt?$AAM?$AAa?$AAs?$AAt?$AAe?$AAr?$AAD?$AAa?$AAt?$AAa@ 100245ec     DispMain.obj
 0002:00001608       ??_C@_1CC@EMCKDAKA@?$AAS?$AAe?$AAt?$AAO?$AAp?$AAe?$AAn?$AAM?$AAa?$AAp?$AAS?$AAt?$AAy?$AAl?$AAe@ 10024608     DispMain.obj
 0002:0000162c       ??_C@_1CG@JDCOEDEM@?$AAI?$AAH?$AAW?$AAr?$AAi?$AAt?$AAe?$AAS?$AAe?$AAc?$AAt?$AAi?$AAo?$AAn?$AAD@ 1002462c     DispMain.obj
 0002:00001654       ??_C@_1CC@HCPLEHIB@?$AAI?$AAH?$AAG?$AAe?$AAt?$AAS?$AAe?$AAc?$AAt?$AAi?$AAo?$AAn?$AAD?$AAa?$AAt@ 10024654     DispMain.obj
 0002:00001678       ??_C@_1CE@KBPIIAMH@?$AAI?$AAH?$AAG?$AAe?$AAt?$AAS?$AAe?$AAc?$AAt?$AAi?$AAo?$AAn?$AAN?$AAa?$AAm@ 10024678     DispMain.obj
 0002:0000169c       ??_C@_1BK@CGLOKIDM@?$AAI?$AAH?$AAA?$AAd?$AAd?$AAS?$AAe?$AAc?$AAt?$AAi?$AAo?$AAn@ 1002469c     DispMain.obj
 0002:000016b8       ??_C@_1CA@POOFHE@?$AAI?$AAH?$AAD?$AAe?$AAl?$AAe?$AAt?$AAe?$AAS?$AAe?$AAc?$AAt?$AAi?$AAo?$AAn@ 100246b8     DispMain.obj
 0002:000016d8       ??_C@_1CA@IDPNCDDE@?$AAI?$AAH?$AAR?$AAe?$AAn?$AAa?$AAm?$AAe?$AAS?$AAe?$AAc?$AAt?$AAi?$AAo?$AAn@ 100246d8     DispMain.obj
 0002:000016f8       ??_C@_1BK@JBPKFPAD@?$AAG?$AAe?$AAt?$AAF?$AAr?$AAa?$AAm?$AAe?$AAS?$AAi?$AAz?$AAe@ 100246f8     DispMain.obj
 0002:00001714       ??_C@_1BG@CLDFOGJB@?$AAR?$AAe?$AAp?$AAo?$AAr?$AAt?$AAC?$AAa?$AAl?$AAl@ 10024714     DispMain.obj
 0002:0000172c       ??_C@_1CE@GOOBEDPI@?$AAI?$AAs?$AAU?$AAs?$AAe?$AAr?$AAD?$AAe?$AAf?$AAi?$AAn?$AAe?$AAd?$AAM?$AAo@ 1002472c     DispPrimLib.obj
 0002:00001750       ??_C@_1BO@KHLOGCDE@?$AAR?$AAe?$AAL?$AAo?$AAa?$AAd?$AAO?$AAt?$AAh?$AAe?$AAr?$AAM?$AAa?$AAp@ 10024750     DispPrimLib.obj
 0002:00001770       ??_C@_1BG@KPPBEJBL@?$AAS?$AAe?$AAt?$AAM?$AAe?$AAs?$AAs?$AAa?$AAg?$AAe@ 10024770     DispPrimLib.obj
 0002:00001788       ??_C@_1BE@NKNOJLJE@?$AAM?$AAa?$AAp?$AAS?$AAw?$AAi?$AAt?$AAc?$AAh@ 10024788     DispPrimLib.obj
 0002:0000179c       ??_C@_1BI@JJLIJPNP@?$AAI?$AAn?$AAs?$AAe?$AAr?$AAt?$AAS?$AAp?$AAl?$AAi?$AAt@ 1002479c     DispPrimLib.obj
 0002:000017b4       ??_C@_1BI@BHNILMKD@?$AAD?$AAe?$AAl?$AAe?$AAt?$AAe?$AAS?$AAp?$AAl?$AAi?$AAt@ 100247b4     DispPrimLib.obj
 0002:000017cc       ??_C@_1BE@CDDLJLAJ@?$AAT?$AAa?$AAb?$AAT?$AAo?$AAg?$AAg?$AAl?$AAe@ 100247cc     DispPrimLib.obj
 0002:000017e0       ??_C@_1BK@NHEIBJJM@?$AAD?$AAe?$AAf?$AAa?$AAu?$AAl?$AAt?$AAS?$AAe?$AAt?$AAU?$AAp@ 100247e0     DispPrimLib.obj
 0002:000017fc       ??_C@_1BK@EADOPDGC@?$AAS?$AAe?$AAt?$AAA?$AAc?$AAt?$AAi?$AAv?$AAe?$AAT?$AAa?$AAb@ 100247fc     DispPrimLib.obj
 0002:00001818       ??_C@_1CO@DBJHFAFM@?$AAC?$AAh?$AAa?$AAn?$AAg?$AAe?$AAI?$AAn?$AAp?$AAu?$AAt?$AAR?$AAa?$AAn?$AAg@ 10024818     DispPrimLib.obj
 0002:00001848       ??_C@_1BK@BNIKFEKD@?$AAT?$AAo?$AAg?$AAg?$AAl?$AAe?$AAW?$AAi?$AAn?$AAd?$AAo?$AAw@ 10024848     DispPrimLib.obj
 0002:00001864       ??_C@_1CE@EKMBMEBM@?$AAS?$AAp?$AAl?$AAi?$AAt?$AAR?$AAe?$AAs?$AAi?$AAz?$AAe?$AAO?$AAp?$AAt?$AAi@ 10024864     DispPrimLib.obj
 0002:00001888       ??_C@_1BC@HBFMMFEC@?$AAM?$AAs?$AAg?$AAB?$AAo?$AAx?$AAI?$AAD@ 10024888     DispView.obj
 0002:0000189c       ??_C@_1BA@OILBOOAM@?$AAG?$AAe?$AAt?$AAB?$AAa?$AAs?$AAe@ 1002489c     CodeOcx.obj
 0002:000018ac       ??_C@_1BA@MHMBAGAC@?$AAS?$AAe?$AAt?$AAI?$AAn?$AAf?$AAo@ 100248ac     CodeOcx.obj
 0002:000018bc       ??_C@_1BM@COAEOJMH@?$AAS?$AAh?$AAo?$AAw?$AAC?$AAo?$AAd?$AAe?$AAT?$AAa?$AAb?$AAl?$AAe@ 100248bc     CodeOcx.obj
 0002:000018d8       ??_C@_1CE@LOOJGLFH@?$AAS?$AAh?$AAo?$AAw?$AAM?$AAo?$AAd?$AAe?$AAC?$AAo?$AAd?$AAe?$AAT?$AAa?$AAb@ 100248d8     CodeOcx.obj
 0002:000018fc       ??_C@_1BM@BPMECEHL@?$AAS?$AAe?$AAt?$AAD?$AAa?$AAt?$AAa?$AAS?$AAt?$AAr?$AAi?$AAn?$AAg@ 100248fc     CodeOcx.obj
 0002:00001918       ??_C@_1BC@FOFHDBLP@?$AAI?$AAn?$AAi?$AAt?$AAD?$AAa?$AAt?$AAa@ 10024918     CodeOcx.obj
 0002:0000192c       ??_C@_1BI@BLILMHNM@?$AAG?$AAe?$AAt?$AAC?$AAo?$AAd?$AAe?$AAI?$AAn?$AAf?$AAo@ 1002492c     CodeOcx.obj
 0002:00001944       ??_C@_1BI@MHMNEKNF@?$AAS?$AAe?$AAt?$AAP?$AAo?$AAs?$AAi?$AAt?$AAi?$AAo?$AAn@ 10024944     CodeOcx.obj
 0002:0000195c       ??_C@_1BO@CALNKGDD@?$AAG?$AAe?$AAt?$AAM?$AAa?$AAx?$AAH?$AAa?$AAn?$AAg?$AAS?$AAa?$AAG?$AAa@ 1002495c     CodeOcx.obj
 0002:0000197c       ??_C@_1DE@PPLGPNDE@?$AAS?$AAh?$AAo?$AAw?$AAC?$AAo?$AAd?$AAe?$AAT?$AAa?$AAb?$AAl?$AAe?$AAW?$AAi@ 1002497c     CodeOcx.obj
 0002:000019b0       ??_C@_1CE@NBPGMFLA@?$AAR?$AAe?$AAm?$AAo?$AAv?$AAe?$AAA?$AAl?$AAl?$AAL?$AAi?$AAs?$AAt?$AAD?$AAa@ 100249b0     CodeOcx.obj
 0002:000019d4       ??_C@_1BM@IEHPJJCJ@?$AAI?$AAn?$AAs?$AAe?$AAr?$AAt?$AAH?$AAi?$AAs?$AAt?$AAo?$AAr?$AAy@ 100249d4     CodeOcx.obj
 0002:000019f0       ??_C@_1BO@FIDDDLNP@?$AAG?$AAe?$AAt?$AAH?$AAi?$AAs?$AAt?$AAo?$AAr?$AAy?$AAL?$AAi?$AAs?$AAt@ 100249f0     CodeOcx.obj
 0002:00001a10       ??_C@_1CM@CONLGJCL@?$AAG?$AAe?$AAt?$AAG?$AAl?$AAo?$AAb?$AAa?$AAl?$AAD?$AAa?$AAt?$AAa?$AAT?$AAy@ 10024a10     CodeOcx.obj
 0002:00001a3c       ??_C@_1BO@JOPCNJNJ@?$AAG?$AAe?$AAt?$AAC?$AAo?$AAd?$AAe?$AAP?$AAo?$AAi?$AAn?$AAt?$AAe?$AAr@ 10024a3c     CodeOcx.obj
 0002:00001a5c       ??_C@_1CC@NKLKJNGI@?$AAG?$AAe?$AAt?$AAB?$AAa?$AAs?$AAe?$AAC?$AAo?$AAd?$AAe?$AAT?$AAa?$AAb?$AAl@ 10024a5c     CodeOcx.obj
 0002:00001a80       ??_C@_1BE@KFAGKBDF@?$AAG?$AAe?$AAt?$AAR?$AAs?$AAc?$AAM?$AAn?$AAg@ 10024a80     CodeOcx.obj
 0002:00001a98       ??_7CControlPos@@6B@       10024a98     ControlPos.obj
 0002:00001aa4       ??_C@_0CI@KPJJDAPL@CControlPos?3?3MoveControls?5?$LP?V?$LK?N?$LI@ 10024aa4     ControlPos.obj
 0002:00001ad0       __real@3fe0000000000000    10024ad0     ControlPos.obj
 0002:00001ad8       __real@3ff0000000000000    10024ad8     ControlPos.obj
 0002:00001ae4       ??_7CRegistryManager@@6B@  10024ae4     EtcUtil.obj
 0002:00001aec       ??_C@_09PFCHIMEP@127?40?40?41@ 10024aec     EtcUtil.obj
 0002:00001af8       ??_C@_0DB@FADPGINO@System?2CurrentControlSet?2Servic@ 10024af8     EtcUtil.obj
 0002:00001b2c       ??_C@_07FGHOPFKE@?$CFs?2?$CF04d@ 10024b2c     EtcUtil.obj
 0002:00001b34       ??_C@_01CLKCMJKC@?5@       10024b34     EtcUtil.obj
 0002:00001b38       ??_C@_09NIGMFFPO@IPAddress@ 10024b38     EtcUtil.obj
 0002:00001b44       ??_C@_07OHKHACFK@0?40?40?40@ 10024b44     EtcUtil.obj
 0002:00001b4c       ??_C@_00CNPNBAHC@@         10024b4c     GwanWnd.obj
 0002:00001b54       ??_7CGwanWnd@@6B@          10024b54     GwanWnd.obj
 0002:00001cfc       ??_7CNewsMoniterWnd@@6B@   10024cfc     NewsMoniterWnd.obj
 0002:00001eb8       ??_C@_0BC@HOPFEGEP@Lib_SignalMng?4dll@ 10024eb8     NewsMoniterWnd.obj
 0002:00001ecc       ??_C@_05GFOLEBJA@?$CFs?1?$CFs@ 10024ecc     NewsMoniterWnd.obj
 0002:00001ed4       ??_C@_0BA@ENOHDIPA@_DLL_SetLibOpen@ 10024ed4     NewsMoniterWnd.obj
 0002:00001ee4       ??_C@_0BB@MOLOAHJ@_DLL_SetLibClose@ 10024ee4     NewsMoniterWnd.obj
 0002:00001ef8       ??_C@_0P@CBLCGKFG@_DLL_SetSiganl@ 10024ef8     NewsMoniterWnd.obj
 0002:00001f08       ??_C@_0BD@GADNOHFL@_DLL_GetSignalData@ 10024f08     NewsMoniterWnd.obj
 0002:00001f1c       ??_C@_0BD@BPCDFECM@_DLL_SetSignalData@ 10024f1c     NewsMoniterWnd.obj
 0002:00001f30       ??_C@_0BD@BNCBHLBE@_DLL_GetFilterData@ 10024f30     NewsMoniterWnd.obj
 0002:00001f44       ??_C@_0BD@GCDPMIGD@_DLL_SetFilterData@ 10024f44     NewsMoniterWnd.obj
 0002:00001f58       ??_C@_0BE@JMLGGOIP@_DLL_GetSiganlTable@ 10024f58     NewsMoniterWnd.obj
 0002:00001f6c       ??_C@_0BC@OALGPJOB@_DLL_GetDummyHwnd@ 10024f6c     NewsMoniterWnd.obj
 0002:00001f84       ??_7CPCtrMainWnd@@6B@      10024f84     PCtrMainWnd.obj
 0002:00002110       ??_C@_0M@CBBNGGHM@PcTrMng?4dll@ 10025110     PcTrMng.obj
 0002:0000211c       ??_C@_0P@IDMAJEGN@HANAROPCTRMAIN@ 1002511c     PcTrMng.obj
 0002:0000212c       ??_C@_06NDLAHCHE@?$CFs?$CF08X@ 1002512c     PcTrMng.obj
 0002:00002134       ??_C@_0BJ@EBHLMJOA@?$CFs?$MA?$LL?5Load?G?R?5?$LM?v?5?$LO?x?$LN?$MA?$LE?O?$LE?Y?4@ 10025134     PcTrMng.obj
 0002:00002150       ??_C@_0N@HGGCPMBP@GetInferface@ 10025150     PcTrMng.obj
 0002:00002160       ??_C@_04OHDBDCPJ@?2Dev@    10025160     PcTrMng.obj
 0002:00002168       ??_C@_0BB@NABODLHL@?2TreeListMng?4dll@ 10025168     PcTrMng.obj
 0002:0000217c       ??_C@_0BA@MLHJPHMO@?2PartnerMng?4dll@ 1002517c     PcTrMng.obj
 0002:0000218c       ??_C@_0P@CDHGOEHJ@?2PctrWinix?4dll@ 1002518c     PcTrMng.obj
 0002:0000219c       ??_C@_0O@CHCMCBIG@GetCodeMaster@ 1002519c     PcTrMng.obj
 0002:000021b0       ??_7CGateManager@@6B@      100251b0     PcTrMng.obj
 0002:000021b8       ??_7CDataUtilManager@@6B@  100251b8     PcTrMng.obj
 0002:00002270       ??_7?$CList@PAVCSTManager_Info@@PAV1@@@6B@ 10025270     PcTrMng.obj
 0002:00002288       ??_7CSTManager@@6B@        10025288     PcTrMng.obj
 0002:00002294       ??_7CSystemUtilManager@@6B@ 10025294     PcTrMng.obj
 0002:000022a4       ??_7CPcTrMngApp@@6B@       100252a4     PcTrMng.obj
 0002:000023bc       ??_C@_05BMGBEOOC@?$CFs?2?$CFs@ 100253bc     PcTrMng.obj
 0002:000023e4       ??_C@_05NKGFCHDN@?2icss@   100253e4     PcTrMng.obj
 0002:000023ec       ??_C@_0M@DMOLOJAK@?2icss?2Image@ 100253ec     PcTrMng.obj
 0002:000023f8       ??_C@_05OPBNMLKG@?2User@   100253f8     PcTrMng.obj
 0002:00002400       ??_C@_04JIMNDDED@?$CF08X@  10025400     PcTrMng.obj
 0002:00002408       ??_C@_0BD@CMCCCNBF@HANAROIGATEMANAGER@ 10025408     PcTrMng.obj
 0002:0000241c       ??_C@_0BA@IPJNBNII@HANAROMAINFRAME@ 1002541c     PcTrMng.obj
 0002:0000242c       ??_C@_0BB@IHPADCOC@DefaultStyle?4cfg@ 1002542c     PcTrMng.obj
 0002:00002440       ??_C@_0P@EANDFPFB@?$CFs?2PcTrMng?4cfg@ 10025440     PcTrMng.obj
 0002:00002450       ??_C@_0L@KLPBPJHG@AutoRegist@ 10025450     PcTrMng.obj
 0002:0000245c       ??_C@_08FJFHGOKH@ChartOCX@ 1002545c     PcTrMng.obj
 0002:00002468       ??_C@_0BG@LNLLAMPA@?$CFs?2chartmetatable?4dat@ 10025468     PcTrMng.obj
 0002:00002480       ??_C@_09NFCEPNKK@NotDefine@ 10025480     PcTrMng.obj
 0002:0000248c       ??_C@_06FBGBHGJE@ProgID@   1002548c     PcTrMng.obj
 0002:00002494       ??_C@_0O@GDACOMFO@Chart?5Version@ 10025494     PcTrMng.obj
 0002:000024a4       ??_C@_08NBACIOPL@ProgName@ 100254a4     PcTrMng.obj
 0002:000024b0       ??_C@_07OIGEDBEL@drcache@  100254b0     PcTrMng.obj
 0002:000024b8       ??_C@_0L@BHNKPHMD@?$CFs?2icss?2?$CFs@ 100254b8     PcTrMng.obj
 0002:000024c4       ??_C@_0N@EGCPBLLD@WorkDate?4dat@ 100254c4     PcTrMng.obj
 0002:000024d4       ??_C@_08HKFBHKOD@WorkDate@ 100254d4     PcTrMng.obj
 0002:000024e0       ??_C@_0P@KDIOLOJH@?$CFs?2FindData?2?$CFs@ 100254e0     PcTrMng.obj
 0002:000024f0       ??_C@_0BB@JMHKDHLP@RequestToday?4ini@ 100254f0     PcTrMng.obj
 0002:00002504       ??_C@_0N@DEAKEBCF@?$CF04d?$CF02d?$CF02d@ 10025504     PcTrMng.obj
 0002:00002514       ??_C@_0N@FEPCAHOH@?2MstCode?4dat@ 10025514     PcTrMng.obj
 0002:00002524       ??_C@_04HDOCAJNK@?$CFs?$CFs@ 10025524     PcTrMng.obj
 0002:0000252c       ??_C@_05MBOMPHNN@Today@    1002552c     PcTrMng.obj
 0002:00002534       ??_C@_07EODEELBJ@MstCode@  10025534     PcTrMng.obj
 0002:0000253c       ??_C@_0O@JFBOHOEG@?2WorkDate?4dat@ 1002553c     PcTrMng.obj
 0002:0000254c       ??_C@_0P@LNEGBOLO@atlTraceSnapin@ 1002554c     StdAfx.obj
 0002:0000255c       ??_C@_0BA@MCBFIDIC@atlTraceNotImpl@ 1002555c     StdAfx.obj
 0002:0000256c       ??_C@_0BD@PJPCCAKP@atlTraceAllocation@ 1002556c     StdAfx.obj
 0002:00002580       ??_C@_0BC@PGMFNIFA@atlTraceException@ 10025580     StdAfx.obj
 0002:00002594       ??_C@_0N@BNNILHBE@atlTraceTime@ 10025594     StdAfx.obj
 0002:000025a4       ??_C@_0O@MEOJAOKK@atlTraceCache@ 100255a4     StdAfx.obj
 0002:000025b4       ??_C@_0BA@IDBKCKK@atlTraceStencil@ 100255b4     StdAfx.obj
 0002:000025c4       ??_C@_0P@MBNHGHMI@atlTraceString@ 100255c4     StdAfx.obj
 0002:000025d4       ??_C@_0M@IOBBMAHG@atlTraceMap@ 100255d4     StdAfx.obj
 0002:000025e0       ??_C@_0N@FEAAACHD@atlTraceUtil@ 100255e0     StdAfx.obj
 0002:000025f0       ??_C@_0BB@DNJDADMG@atlTraceSecurity@ 100255f0     StdAfx.obj
 0002:00002604       ??_C@_0N@KLPNCFEE@atlTraceSync@ 10025604     StdAfx.obj
 0002:00002614       ??_C@_0O@KHOBHOBJ@atlTraceISAPI@ 10025614     StdAfx.obj
 0002:00002622       ?chDirSep@ATL@@3DB         10025622     StdAfx.obj
 0002:00002623       ?chRightBracket@ATL@@3DB   10025623     StdAfx.obj
 0002:00002624       ?chLeftBracket@ATL@@3DB    10025624     StdAfx.obj
 0002:00002625       ?chQuote@ATL@@3DB          10025625     StdAfx.obj
 0002:00002626       ?chEquals@ATL@@3DB         10025626     StdAfx.obj
 0002:00002628       ?szStringVal@ATL@@3QBDB    10025628     StdAfx.obj
 0002:0000262c       ??_C@_01CPLAODJH@S@        1002562c     StdAfx.obj
 0002:00002630       ?multiszStringVal@ATL@@3QBDB 10025630     StdAfx.obj
 0002:00002634       ??_C@_01PLPBNMEI@M@        10025634     StdAfx.obj
 0002:00002638       ?szDwordVal@ATL@@3QBDB     10025638     StdAfx.obj
 0002:0000263c       ??_C@_01CKDDGHAB@D@        1002563c     StdAfx.obj
 0002:00002640       ?szBinaryVal@ATL@@3QBDB    10025640     StdAfx.obj
 0002:00002644       ??_C@_01HMGJMAIH@B@        10025644     StdAfx.obj
 0002:00002648       ?szValToken@ATL@@3QBDB     10025648     StdAfx.obj
 0002:0000264c       ??_C@_03LAIAPFCB@Val@      1002564c     StdAfx.obj
 0002:00002650       ?szForceRemove@ATL@@3QBDB  10025650     StdAfx.obj
 0002:00002654       ??_C@_0M@DBGDLGLL@ForceRemove@ 10025654     StdAfx.obj
 0002:00002660       ?szNoRemove@ATL@@3QBDB     10025660     StdAfx.obj
 0002:00002664       ??_C@_08KAAPDIAN@NoRemove@ 10025664     StdAfx.obj
 0002:00002670       ?szDelete@ATL@@3QBDB       10025670     StdAfx.obj
 0002:00002674       ??_C@_06JBKGCNBB@Delete@   10025674     StdAfx.obj
 0002:0000267c       _CLSID_Registrar           1002567c     StdAfx.obj
 0002:0000268c       _IID_IRegistrar            1002568c     StdAfx.obj
 0002:0000269c       _IID_IDocHostUIHandlerDispatch 1002569c     StdAfx.obj
 0002:000026b0       ??_7CAtlStringMgr@ATL@@6B@ 100256b0     StdAfx.obj
 0002:000026c8       _IID_IAxWinHostWindow      100256c8     StdAfx.obj
 0002:000026d8       _IID_IAxWinHostWindowLic   100256d8     StdAfx.obj
 0002:000026e8       _IID_IAxWinAmbientDispatch 100256e8     StdAfx.obj
 0002:000026f8       _IID_IAxWinAmbientDispatchEx 100256f8     StdAfx.obj
 0002:00002708       _IID_IInternalConnection   10025708     StdAfx.obj
 0002:00002718       ?szInvalidDateTime@ATL@@3QBDB 10025718     StdAfx.obj
 0002:0000271c       ??_C@_0BB@KEKMKJPM@Invalid?5DateTime@ 1002571c     StdAfx.obj
 0002:00002730       ?szInvalidDateTimeSpan@ATL@@3QBDB 10025730     StdAfx.obj
 0002:00002734       ??_C@_0BF@GPPHKJFN@Invalid?5DateTimeSpan@ 10025734     StdAfx.obj
 0002:0000274c       ?CLSID_WinFormsControl@@3U_GUID@@B 1002574c     StdAfx.obj
 0002:0000275c       _c_DwmMaxQueuedBuffers     1002575c     StdAfx.obj
 0002:00002760       _c_DwmMaxMonitors          10025760     StdAfx.obj
 0002:00002764       _c_DwmMaxAdapters          10025764     StdAfx.obj
 0002:00002768       _LIBID_ATLLib              10025768     StdAfx.obj
 0002:0000277c       ??_7CWin32Heap@ATL@@6B@    1002577c     StdAfx.obj
 0002:00002790       ??_C@_0BA@MKMIKKJB@atlTraceGeneral@ 10025790     StdAfx.obj
 0002:000027a0       ??_C@_0M@DGPFJEBB@atlTraceCOM@ 100257a0     StdAfx.obj
 0002:000027ac       ??_C@_0L@LHELAKBP@atlTraceQI@ 100257ac     StdAfx.obj
 0002:000027b8       ??_C@_0BC@MALHFBAO@atlTraceRegistrar@ 100257b8     StdAfx.obj
 0002:000027cc       ??_C@_0BB@ILPPDKFL@atlTraceRefcount@ 100257cc     StdAfx.obj
 0002:000027e0       ??_C@_0BC@DGHHNKDC@atlTraceWindowing@ 100257e0     StdAfx.obj
 0002:000027f4       ??_C@_0BB@GHKJKKIE@atlTraceControls@ 100257f4     StdAfx.obj
 0002:00002808       ??_C@_0BA@DKOAAGGM@atlTraceHosting@ 10025808     StdAfx.obj
 0002:00002818       ??_C@_0BB@BEBMGMDO@atlTraceDBClient@ 10025818     StdAfx.obj
 0002:0000282c       ??_C@_0BD@KOADKDIA@atlTraceDBProvider@ 1002582c     StdAfx.obj
 0002:00002840       ??_C@_0BE@PNGGGEBF@?2?2?4?2pipe?2DRFNTracer@ 10025840     Tracer.obj
 0002:00002858       ??_7CTracer@@6B@           10025858     Tracer.obj
 0002:0000285c       ??_C@_0BE@FJPKENOB@RMSG_GETSIGNAL_REAL@ 1002585c     TrComm.obj
 0002:000028c0       ??_C@_05IDAEEJNL@d1018@    100258c0     TrComm.obj
 0002:000028c8       ??_C@_08IOMDFAIH@pijs0111@ 100258c8     TrComm.obj
 0002:000028d4       ??_C@_08KFOOADEE@pijs0112@ 100258d4     TrComm.obj
 0002:000028e0       ??_C@_08MKFCJPDM@USDollar@ 100258e0     TrComm.obj
 0002:000028ec       ??_C@_0M@LDGDAJIA@MstCode?4dat@ 100258ec     TrComm.obj
 0002:000028f8       ??_C@_0BC@DDFFJNOD@?$CFs?2FindData?2?$CFs?2?$CFs@ 100258f8     TrComm.obj
 0002:0000290c       ??_C@_02ODIGJPFH@TR@       1002590c     TrComm.obj
 0002:00002910       ??_C@_09PEDPPOKH@PtManager@ 10025910     TrComm.obj
 0002:0000291c       ??_C@_0N@BAKLNJEL@IPartnerSite@ 1002591c     TrComm.obj
 0002:0000292c       ??_C@_02DPKJAMEF@?$CFd@    1002592c     _CompanyManager.obj
 0002:00002934       ??_7CCompanyManager@@6B@   10025934     _CompanyManager.obj
 0002:00002954       ??_C@_07MNIDNIOF@DAISHIN@  10025954     _CompanyManager.obj
 0002:0000295c       ??_C@_06NMDNNBDH@DAEWOO@   1002595c     _CompanyManager.obj
 0002:00002964       ??_C@_07CJPNPGBH@HYUNDAI@  10025964     _CompanyManager.obj
 0002:0000296c       ??_C@_05IOBOPHC@WOORI@     1002596c     _CompanyManager.obj
 0002:00002974       ??_C@_06PHIBLBFJ@HANWHA@   10025974     _CompanyManager.obj
 0002:0000297c       ??_C@_06HJALLPEB@DONGBU@   1002597c     _CompanyManager.obj
 0002:00002984       ??_C@_03KKAOFJMH@SK?7@     10025984     _CompanyManager.obj
 0002:00002988       ??_C@_05NJCJELEG@KYOBO@    10025988     _CompanyManager.obj
 0002:00002990       ??_C@_07BJCOJJDJ@DONGWON@  10025990     _CompanyManager.obj
 0002:00002998       ??_C@_06HLJNPKKD@KIWOOM@   10025998     _CompanyManager.obj
 0002:000029a0       ??_C@_05KBPIFHAF@SEOUL@    100259a0     _CompanyManager.obj
 0002:000029a8       ??_C@_07FGJCIAEP@SAMSUNG@  100259a8     _CompanyManager.obj
 0002:000029b0       ??_C@_07DJDHCFCP@BOOKOOK@  100259b0     _CompanyManager.obj
 0002:000029b8       ??_C@_05BPBHKHNH@HANTU@    100259b8     _CompanyManager.obj
 0002:000029c0       ??_C@_0O@NOPFNLCJ@EUGENE_SYSEDU@ 100259c0     _CompanyManager.obj
 0002:000029d4       ??_7?$CList@VCDMMngInfo@@V1@@@6B@ 100259d4     _DataMonitorManager.obj
 0002:000029ec       ??_7CAUDataMonitorManager@@6B@ 100259ec     _DataMonitorManager.obj
 0002:000029f8       ??_C@_0N@DOHINHCI@Advapi32?4dll@ 100259f8     _DataUtilManager.obj
 0002:00002a08       ??_C@_0BG@FGMNHMFJ@RegOpenKeyTransactedA@ 10025a08     _DataUtilManager.obj
 0002:00002a20       ??_C@_01GBGANLPD@0@        10025a20     _DataUtilManager.obj
 0002:00002a24       ??_C@_01HIHLOKLC@1@        10025a24     _DataUtilManager.obj
 0002:00002a28       ??_C@_01LFCBOECM@?4@       10025a28     _DataUtilManager.obj
 0002:00002a2c       ??_C@_06LOHACGPJ@?$CF?9?$CK?4?$CKs@ 10025a2c     _DataUtilManager.obj
 0002:00002a34       ??_C@_02EOKDGIFO@?$KB?h@   10025a34     _DataUtilManager.obj
 0002:00002a38       ??_C@_02KNFHLBJF@?$KB?c@   10025a38     _DataUtilManager.obj
 0002:00002a3c       ??_C@_02FHLIFJBP@?$KB?i@   10025a3c     _DataUtilManager.obj
 0002:00002a40       ??_C@_02PLANBGBD@?$KB?e@   10025a40     _DataUtilManager.obj
 0002:00002a44       ??_C@_01JOAMLHOP@?9@       10025a44     _DataUtilManager.obj
 0002:00002a48       ??_C@_05FDCEOMOF@?$CF6?46s@ 10025a48     _DataUtilManager.obj
 0002:00002a50       ??_C@_02PLJDPFIO@00@       10025a50     _DataUtilManager.obj
 0002:00002a54       ??_C@_08DFILJDFD@?$CF?903?403s@ 10025a54     _DataUtilManager.obj
 0002:00002a60       ??_C@_06MAHHELPF@?$CF?93?43s@ 10025a60     _DataUtilManager.obj
 0002:00002a68       ??_C@_0M@MLCONGPP@?$CFd?0?$CFd?0?$CFd?0?$CFd@ 10025a68     _DataUtilManager.obj
 0002:00002a74       ??_C@_08GDAMKODC@?$CFd?0?$CFd?0?$CFd@ 10025a74     _DataUtilManager.obj
 0002:00002a80       ??_C@_04HCDDPBNL@TRUE@     10025a80     _DataUtilManager.obj
 0002:00002a88       ??_C@_05KABNCBHK@?$CFd?0?$CFd@ 10025a88     _DataUtilManager.obj
 0002:00002a90       ??_C@_0BG@NLOOPDBJ@?$CF?$FL?$FO?0?$FN?0?$CFlf?0?$CFd?0?$CFd?0?$CFd?0?$CFd@ 10025a90     _DataUtilManager.obj
 0002:00002aa8       ??_C@_02CPNCMKFB@0?4@      10025aa8     _DataUtilManager.obj
 0002:00002aac       ??_C@_01IHBHIGKO@?0@       10025aac     _DataUtilManager.obj
 0002:00002ab0       ??_C@_04HGGMHPIM@?$CF?4?$CKf@ 10025ab0     _DataUtilManager.obj
 0002:00002ab8       ??_C@_02DKCKIIND@?$CFs@    10025ab8     _DataUtilManager.obj
 0002:00002abc       ??_C@_05OGILEIOE@?$CF?$CK?4?$CKd@ 10025abc     _DataUtilManager.obj
 0002:00002ac8       __real@0000000000000000    10025ac8     _DataUtilManager.obj
 0002:00002ad0       __real@4024000000000000    10025ad0     _DataUtilManager.obj
 0002:00002ad8       ??_C@_0BD@ILNAFPGE@RMSG_HandleToDebug@ 10025ad8     _DebugManager.obj
 0002:00002aec       ??_C@_01KICIPPFI@?2@       10025aec     _DebugManager.obj
 0002:00002af0       ??_C@_0O@GFDNBJDO@DRDebuger?4dll@ 10025af0     _DebugManager.obj
 0002:00002b00       ??_C@_0CF@IGNKKJMG@?$FLdrfn?$FNDLL?$CI?$CFs?$CJ?$MA?$LL?5Load?G?R?5?$LM?v?5?$LO?x?$LN?$MA?$LE@ 10025b00     _DebugManager.obj
 0002:00002b28       ??_C@_0O@PJEIPGOG@DRLog_Message@ 10025b28     _DebugManager.obj
 0002:00002b38       ??_C@_0BC@GJFJNGJF@DRLog_RequestData@ 10025b38     _DebugManager.obj
 0002:00002b4c       ??_C@_0BD@ENGDDGEF@DRLog_ResponseData@ 10025b4c     _DebugManager.obj
 0002:00002b60       ??_C@_0P@HFGANDLL@DRLog_RealData@ 10025b60     _DebugManager.obj
 0002:00002b74       ??_7CDebugManager@@6B@     10025b74     _DebugManager.obj
 0002:00002b9c       ??_C@_02CJNFGIML@aw@       10025b9c     _DebugManager.obj
 0002:00002ba0       ??_C@_02PCIJFNDE@?$AN?6@   10025ba0     _DebugManager.obj
 0002:00002ba8       ??_7?$CList@PAUIDrdsLib@@PAU1@@@6B@ 10025ba8     _DrdsManager.obj
 0002:00002bc0       ??_7CAUDrdsManager@@6B@    10025bc0     _DrdsManager.obj
 0002:00002bcc       ??_7CDrdsLib@@6B@          10025bcc     _DrdsManager.obj
 0002:00002c3c       ??_C@_09HPHLJGCO@Terminate@ 10025c3c     _GateManager.obj
 0002:00002c48       ??_C@_0BB@GLCHGPPD@SetPcTrInterface@ 10025c48     _GateManager.obj
 0002:00002c60       ??_7CCriticalSection@@6B@  10025c60     _MainExInfoManager.obj
 0002:00002c84       ??_7?$CList@PAUST_FOR_UserData@@PAU1@@@6B@ 10025c84     _MainExInfoManager.obj
 0002:00002c9c       ??_7CMainExInfoManager@@6B@ 10025c9c     _MainExInfoManager.obj
 0002:00002cd8       ??_7?$CList@UTR_CODEINFOEX@@U1@@@6B@ 10025cd8     _MainExInfoManager.obj
 0002:00002cec       ??_C@_0M@LGJCENKG@FIND_RESULT@ 10025cec     _MainExInfoManager.obj
 0002:00002cf8       ??_C@_09KGGGMDAE@?$CFs?2?$CFs?4dat@ 10025cf8     _MainExInfoManager.obj
 0002:00002d08       ??_7CMainInfoManager@@6B@  10025d08     _MainInfoManager.obj
 0002:00002d54       ??_C@_05LHCBPFHI@winix@    10025d54     _MainInfoManager.obj
 0002:00002d5c       ??_C@_0CC@BFOHDLAJ@GetUserID?G?T?$LM?v?5hWinixWnd?5is?5Null@ 10025d5c     _MainInfoManager.obj
 0002:00002d80       ??_C@_04LIOHGJKM@?$CF08u@  10025d80     _MainInfoManager.obj
 0002:00002d88       ??_C@_0L@LDPPIHFP@?$CFs?2user?2?$CFs@ 10025d88     _MainInfoManager.obj
 0002:00002d94       ??_C@_05PGKDIPIO@chart@    10025d94     _MainInfoManager.obj
 0002:00002d9c       ??_C@_06DJNEHHKG@?2Chart@  10025d9c     _MainInfoManager.obj
 0002:00002da4       ??_C@_08LOBMIHND@16599999@ 10025da4     _MasterDataManager.obj
 0002:00002db0       ??_C@_08IPPEJNEO@16699999@ 10025db0     _MasterDataManager.obj
 0002:00002dbc       ??_C@_08CJIDJGPK@16799999@ 10025dbc     _MasterDataManager.obj
 0002:00002dc8       ??_C@_08HCLGIHEN@17599999@ 10025dc8     _MasterDataManager.obj
 0002:00002dd4       ??_C@_08EDFOJNNA@17699999@ 10025dd4     _MasterDataManager.obj
 0002:00002de0       ??_C@_08OFCJJGGE@17799999@ 10025de0     _MasterDataManager.obj
 0002:00002dec       ??_C@_09MACBBLGN@?$LN?E3?$LD?b?$LB?$LJ?C?$KE@ 10025dec     _MasterDataManager.obj
 0002:00002df8       ??_C@_09GEOBCOK@?$LN?E5?$LD?b?$LB?$LJ?C?$KE@ 10025df8     _MasterDataManager.obj
 0002:00002e04       ??_C@_0L@HMDIKBGK@?$LN?E10?$LD?b?$LB?$LJ?C?$KE@ 10025e04     _MasterDataManager.obj
 0002:00002e10       ??_C@_08KBLNOBIL@?$LJ?L?$LB?$LJ?$LE?$NO?$LH?$KP@ 10025e10     _MasterDataManager.obj
 0002:00002e1c       ??_C@_02ELJGHAOK@?$LP?$KD@ 10025e1c     _MasterDataManager.obj
 0002:00002e20       ??_C@_04FAKIPLDP@?$MA?$KP?$LH?N@ 10025e20     _MasterDataManager.obj
 0002:00002e28       ??_C@_08EAJGKKNJ@11199999@ 10025e28     _MasterDataManager.obj
 0002:00002e34       ??_C@_08HBHOLAEE@11299999@ 10025e34     _MasterDataManager.obj
 0002:00002e40       ??_C@_08NHAJLLPA@11399999@ 10025e40     _MasterDataManager.obj
 0002:00002e4c       ??_C@_08BCKOIFHO@11499999@ 10025e4c     _MasterDataManager.obj
 0002:00002e58       ??_C@_08LENJIOMK@11599999@ 10025e58     _MasterDataManager.obj
 0002:00002e64       ??_C@_08IFDBJEFH@11699999@ 10025e64     _MasterDataManager.obj
 0002:00002e70       ??_C@_08NFAOOPAK@11899999@ 10025e70     _MasterDataManager.obj
 0002:00002e7c       ??_C@_08HDHJOELO@11999999@ 10025e7c     _MasterDataManager.obj
 0002:00002e88       ??_C@_08MOBJKNDK@12199999@ 10025e88     _MasterDataManager.obj
 0002:00002e94       ??_C@_08JMCBICJN@12499999@ 10025e94     _MasterDataManager.obj
 0002:00002ea0       ??_C@_08DDFLLHDJ@13299999@ 10025ea0     _MasterDataManager.obj
 0002:00002eac       ??_C@_08MHBEJDCK@13699999@ 10025eac     _MasterDataManager.obj
 0002:00002eb8       ??_C@_08DBFMODMD@13999999@ 10025eb8     _MasterDataManager.obj
 0002:00002ec4       ??_C@_08KOABKPAJ@14099999@ 10025ec4     _MasterDataManager.obj
 0002:00002ed0       ??_C@_08IHGKELN@14199999@  10025ed0     _MasterDataManager.obj
 0002:00002edc       ??_C@_08FKEOILBK@14499999@ 10025edc     _MasterDataManager.obj
 0002:00002ee8       ??_C@_08PMDJIAKO@14599999@ 10025ee8     _MasterDataManager.obj
 0002:00002ef4       ??_C@_08MNNBJKDD@14699999@ 10025ef4     _MasterDataManager.obj
 0002:00002f00       ??_C@_08JNOOOBGO@14899999@ 10025f00     _MasterDataManager.obj
 0002:00002f0c       ??_C@_08DLJJOKNK@14999999@ 10025f0c     _MasterDataManager.obj
 0002:00002f18       ??_C@_08GCKLKPJH@15099999@ 10025f18     _MasterDataManager.obj
 0002:00002f24       ??_C@_08MENMKECD@15199999@ 10025f24     _MasterDataManager.obj
 0002:00002f30       ??_C@_08PFDELOLO@15299999@ 10025f30     _MasterDataManager.obj
 0002:00002f3c       ??_C@_08JGOEILIE@15499999@ 10025f3c     _MasterDataManager.obj
 0002:00002f48       ??_C@_08BHLJKKN@15699999@  10025f48     _MasterDataManager.obj
 0002:00002f54       ??_C@_08KHAMJBBJ@15799999@ 10025f54     _MasterDataManager.obj
 0002:00002f60       ??_C@_08BKGOGNAK@?$LL?o?$LM?$LK?$MA?$PM?$MA?Z@ 10025f60     _MasterDataManager.obj
 0002:00002f6c       ??_C@_08EANOMECF@SK?E?Z?$LH?$LJ?D?$NO@ 10025f6c     _MasterDataManager.obj
 0002:00002f78       ??_C@_05EEJFFJCM@POSCO@    10025f78     _MasterDataManager.obj
 0002:00002f80       ??_C@_02KCKGNMJM@KT@       10025f80     _MasterDataManager.obj
 0002:00002f84       ??_C@_08KIFIOJGG@?G?Q?$LB?$LJ?$MA?$PM?$LH?B@ 10025f84     _MasterDataManager.obj
 0002:00002f90       ??_C@_06IFANCGDJ@?G?v?$LE?k?B?w@ 10025f90     _MasterDataManager.obj
 0002:00002f98       ??_C@_08HCDEPNLJ@?$LN?E?G?Q?A?v?A?V@ 10025f98     _MasterDataManager.obj
 0002:00002fa4       ??_C@_06IKBKOMOH@?$LB?b?$LO?F?B?w@ 10025fa4     _MasterDataManager.obj
 0002:00002fac       ??_C@_08LIIMLJHD@?$LL?o?$LM?$LK?$LJ?$LA?$LL?j@ 10025fac     _MasterDataManager.obj
 0002:00002fb8       ??_C@_06DMLIPPEJ@LG?$MA?$PM?$MA?Z@ 10025fb8     _MasterDataManager.obj
 0002:00002fc0       ??_C@_08MJOOLOHK@?G?v?$LE?k?A?$KG?C?$LG@ 10025fc0     _MasterDataManager.obj
 0002:00002fcc       ??_C@_0L@MIDFIBEK@?D?I?$MA?L?F?$LM?$LO?X?A?v@ 10025fcc     _MasterDataManager.obj
 0002:00002fd8       ??_C@_0L@IEKAILGB@?G?v?$LE?k?A?$NP?$LA?x?$LO?w@ 10025fd8     _MasterDataManager.obj
 0002:00002fe4       ??_C@_08PPLLKBAA@?G?O?$LD?$KK?A?v?A?V@ 10025fe4     _MasterDataManager.obj
 0002:00002ff0       ??_C@_0L@BIOHEOHB@SK?$MA?L?$LD?k?$LK?$KD?$MA?L@ 10025ff0     _MasterDataManager.obj
 0002:00002ffc       ??_C@_08LAHBHKPE@?$LP?l?$LI?$KO?$LB?$NN?$MA?$LG@ 10025ffc     _MasterDataManager.obj
 0002:00003008       ??_C@_03OOLJNGCC@LGD@      10026008     _MasterDataManager.obj
 0002:0000300c       ??_C@_06LMKGHFPL@KB?$LB?$NN?$MA?$LG@ 1002600c     _MasterDataManager.obj
 0002:00003014       ??_C@_08EAJFFFBH@?$LE?k?$LP?l?A?u?$LB?G@ 10026014     _MasterDataManager.obj
 0002:00003020       ??_C@_0L@IIIKKIBC@?$LF?N?$LL?j?$MA?N?G?A?$LG?s@ 10026020     _MasterDataManager.obj
 0002:0000302c       ??_C@_0L@NGNGEPAD@SK?G?O?$MA?L?$LE?P?$LN?$LK@ 1002602c     _MasterDataManager.obj
 0002:00003038       ??_C@_06JBNEDFIL@GS?$LA?G?$LM?$LD@ 10026038     _MasterDataManager.obj
 0002:00003040       ??_C@_03LFADLBBO@NHN@      10026040     _MasterDataManager.obj
 0002:00003044       ??_C@_06HFKMEIMD@?$MA?L?$LI?$LG?F?$KO@ 10026044     _MasterDataManager.obj
 0002:0000304c       ??_C@_05OEGGEDK@NAVER@     1002604c     _MasterDataManager.obj
 0002:00003054       ??_C@_08PLJBANDG@?$LE?k?G?Q?G?W?$LA?x@ 10026054     _MasterDataManager.obj
 0002:00003064       ??_7?$CList@PAUST_STRINGBYTE@@PAU1@@@6B@ 10026064     _MasterDataManager.obj
 0002:0000307c       ??_7?$CList@PAUST_STRINGSTRING@@PAU1@@@6B@ 1002607c     _MasterDataManager.obj
 0002:00003094       ??_7?$CList@PAVCMDM_SubItemA@@PAV1@@@6B@ 10026094     _MasterDataManager.obj
 0002:000030ac       ??_7CMasterDataManager@@6B@ 100260ac     _MasterDataManager.obj
 0002:00003198       ??_C@_0CL@GPDHJMEN@CMasterDataManager?3?3GetCodeInfo@ 10026198     _MasterDataManager.obj
 0002:000031c4       ??_C@_07OLCDEDDD@PMASTER@  100261c4     _MasterDataManager.obj
 0002:000031cc       ??_C@_08BLEEFNBD@99999999@ 100261cc     _MasterDataManager.obj
 0002:000031d8       ??_C@_08NABHDGJE@?$LP?$KM?$LA?a?$LM?$LB?$LJ?$LA@ 100261d8     _MasterDataManager.obj
 0002:000031e4       ??_C@_02OCIIMEMP@01@       100261e4     _MasterDataManager.obj
 0002:000031e8       ??_C@_04OKGDLNCL@NONE@     100261e8     _MasterDataManager.obj
 0002:000031f0       ??_C@_08HIHDIOFE@10599999@ 100261f0     _MasterDataManager.obj
 0002:000031fc       ??_C@_0N@JNGEDGEI@MINI_PMASTER@ 100261fc     _MasterDataManager.obj
 0002:0000320c       ??_C@_0P@FMLLHEEC@WEEKLY_PMASTER@ 1002620c     _MasterDataManager.obj
 0002:0000321c       ??_C@_08JJGADJMB@JFMASTER@ 1002621c     _MasterDataManager.obj
 0002:00003228       ??_C@_08CDLEABGN@JPMASTER@ 10026228     _MasterDataManager.obj
 0002:00003234       ??_C@_07GIFFKKBJ@UMaster@  10026234     _MasterDataManager.obj
 0002:0000323c       ??_C@_08MIBFMCCD@kumASTER@ 1002623c     _MasterDataManager.obj
 0002:00003248       ??_C@_08KAAILMHE@TMMASTER@ 10026248     _MasterDataManager.obj
 0002:00003254       ??_C@_09IAHCBABO@ETFMASTER@ 10026254     _MasterDataManager.obj
 0002:00003260       ??_C@_0L@OHPCOPCM@KRXUMaster@ 10026260     _MasterDataManager.obj
 0002:0000326c       ??_C@_0L@NKGAIOEK@KNXUMaster@ 1002626c     _MasterDataManager.obj
 0002:00003278       ??_C@_0M@BJHBANG@K200UMaster@ 10026278     _MasterDataManager.obj
 0002:00003284       ??_C@_0M@JIHFHGNH@K100UMaster@ 10026284     _MasterDataManager.obj
 0002:00003290       ??_C@_09ENEJIBAF@GRPMASTER@ 10026290     _MasterDataManager.obj
 0002:0000329c       ??_C@_0P@EGFOEIBB@ELWINDEXMASTER@ 1002629c     _MasterDataManager.obj
 0002:000032ac       ??_C@_0P@KNDADNMH@ELWISSUEMASTER@ 100262ac     _MasterDataManager.obj
 0002:000032bc       ??_C@_08FPNDIEGG@KOSPI200@ 100262bc     _MasterDataManager.obj
 0002:000032c8       ??_C@_0L@BNBKENBG@OLDFMASTER@ 100262c8     _MasterDataManager.obj
 0002:000032d4       ??_C@_09FDJHALKL@ETNMASTER@ 100262d4     _MasterDataManager.obj
 0002:000032e0       ??_C@_08IHKFPFAE@FRMASTER@ 100262e0     _MasterDataManager.obj
 0002:000032ec       ??_C@_0M@GIJCJECJ@FRALLMASTER@ 100262ec     _MasterDataManager.obj
 0002:000032f8       ??_C@_09EOHOLPDH@?G?X?$LP?$NM_?A?v?$LM?v@ 100262f8     _MasterDataManager.obj
 0002:00003304       ??_C@_09FIJGPBPO@?G?X?$LP?$NM_?A?$LO?$LI?q@ 10026304     _MasterDataManager.obj
 0002:00003310       ??_C@_09OJBHNBKF@?G?X?$LP?$NM_?$LM?$LB?$LJ?$LA@ 10026310     _MasterDataManager.obj
 0002:0000331c       ??_C@_09LFPEAIEH@?G?X?$LP?$NM_?$LB?$NN?$LI?$KO@ 1002631c     _MasterDataManager.obj
 0002:00003328       ??_C@_09KDPLAHCI@?G?X?$LP?$NM_?$LB?$LJ?C?$KE@ 10026328     _MasterDataManager.obj
 0002:00003334       ??_C@_09DMJFIGFL@?G?X?$LP?$NM_?H?$KP?$MA?$LC@ 10026334     _MasterDataManager.obj
 0002:00003340       ??_C@_0L@DCFGPMNO@FOFLMASTER@ 10026340     _MasterDataManager.obj
 0002:0000334c       ??_C@_08GABLNBPO@FOMASTER@ 1002634c     _MasterDataManager.obj
 0002:00003358       ??_C@_0L@HKLGPCLK@FOFIMASTER@ 10026358     _MasterDataManager.obj
 0002:00003364       ??_C@_0M@PBAPLLLB@FOVOLMASTER@ 10026364     _MasterDataManager.obj
 0002:00003370       ??_C@_0O@LDCDNJJA@FOMAKETMASTER@ 10026370     _MasterDataManager.obj
 0002:00003380       ??_C@_08OPOALDAF@?$LL?s?G?$LA?$LM?$LB?$LJ?$LA@ 10026380     _MasterDataManager.obj
 0002:0000338c       ??_C@_0BA@IBKFDOEP@COMMODITYMASTER@ 1002638c     _MasterDataManager.obj
 0002:0000339c       ??_C@_08MDFMLEEP@?$LE?$NO?$LH?$KP?$LP?I?$LM?G@ 1002639c     _MasterDataManager.obj
 0002:000033a8       ??_C@_0M@MCMLCOFH@?$CFs?5?$LP?$KM?$LA?h?$LM?$LB?$LJ?$LA@ 100263a8     _MasterDataManager.obj
 0002:000033b4       ??_C@_05GJGEDGEA@99999@    100263b4     _MasterDataManager.obj
 0002:000033bc       ??_C@_01EOFPKCAF@?$EA@     100263bc     _MasterDataManager.obj
 0002:000033c0       ??_C@_01EPMOAMKG@$@        100263c0     _MasterDataManager.obj
 0002:000033c4       ??_C@_04CHAACBNH@COMP@     100263c4     _MasterDataManager.obj
 0002:000033cc       ??_C@_04MNJIGKCA@SMBS@     100263cc     _MasterDataManager.obj
 0002:000033d4       ??_C@_04KFDECMLJ@1301@     100263d4     _MasterDataManager.obj
 0002:000033dc       ??_C@_05KGAGPFBB@20301@    100263dc     _MasterDataManager.obj
 0002:000033e4       ??_C@_05LNKGNLBG@cfcod@    100263e4     _MasterDataManager.obj
 0002:000033ec       ??_C@_08CAHIGOCN@ed_focod@ 100263ec     _MasterDataManager.obj
 0002:000033f8       ??_C@_05LLADMFKJ@50301@    100263f8     _MasterDataManager.obj
 0002:00003400       ??_C@_06MEGEOGFA@109301@   10026400     _MasterDataManager.obj
 0002:00003408       ??_C@_05PGMLGEKC@70301@    10026408     _MasterDataManager.obj
 0002:00003410       ??_C@_0BG@KJDCKONO@?$CFs?2sfcode_history?4dat@ 10026410     _MasterDataManager.obj
 0002:00003428       ??_C@_01GPOEFGEJ@?7@       10026428     _MasterDataManager.obj
 0002:0000342c       ??_C@_01EEMJAFIK@?6@       1002642c     _MasterDataManager.obj
 0002:00003430       ??_C@_02KCIOKDCD@?D?$NN@   10026430     _MasterDataManager.obj
 0002:00003434       ??_C@_02ECKNGKBC@?G?$LC@   10026434     _MasterDataManager.obj
 0002:00003438       ??_C@_0BD@HINLDEKK@?$CFc?5?$CF?96?46s?5?$CF?910?410s@ 10026438     _MasterDataManager.obj
 0002:0000344c       ??_C@_0BJ@CKJCHOEA@?$CF11s?$CFc?520?$CF?94?44s?5?$CF?910?410s@ 1002644c     _MasterDataManager.obj
 0002:0000346c       ??_7?$CMap@V?$CStringT@DV?$StrTraitMFC_DLL@DV?$ChTraitsCRT@D@ATL@@@@@ATL@@PBDHH@@6B@ 1002646c     _MasterDataManager.obj
 0002:00003480       ??_C@_0BH@FMGEIAEE@?$CF11s?$CFc?5?$CF?96?46s?5?$CF?910?410s@ 10026480     _MasterDataManager.obj
 0002:00003498       ??_C@_05CPHNPHLB@1001?8@   10026498     _MasterDataManager.obj
 0002:000034a0       ??_C@_05KJOJIFBP@2001?8@   100264a0     _MasterDataManager.obj
 0002:000034a8       ??_C@_0O@OMOPLLFB@?$LJ?L?$LE?O?5?$LP?$KM?$LA?a?$LM?$LB?$LJ?$LA@ 100264a8     _MasterDataManager.obj
 0002:000034b8       ??_C@_02PPKAJPJL@?$CG?$CG@ 100264b8     _MasterDataManager.obj
 0002:000034bc       ??_C@_01HNPIGOCE@?$CG@     100264bc     _MasterDataManager.obj
 0002:000034c0       ??_C@_08CLPJIDHK@101DC000@ 100264c0     _MasterDataManager.obj
 0002:000034cc       ??_C@_08BJHHLABA@101E3000@ 100264cc     _MasterDataManager.obj
 0002:000034d8       ??_C@_08NBJHDPGA@101E6000@ 100264d8     _MasterDataManager.obj
 0002:000034e4       ??_C@_08FDMHKILB@101E9000@ 100264e4     _MasterDataManager.obj
 0002:000034f0       ??_C@_06KGDPLBIP@F?50912@  100264f0     _MasterDataManager.obj
 0002:000034f8       ??_C@_06POIOIMMD@F?51003@  100264f8     _MasterDataManager.obj
 0002:00003500       ??_C@_06IDPJHIIG@F?51006@  10026500     _MasterDataManager.obj
 0002:00003508       ??_C@_06EGBGEEJ@F?51009@   10026508     _MasterDataManager.obj
 0002:00003510       ??_C@_02ONHIBMNM@M?5@      10026510     _MasterDataManager.obj
 0002:00003514       ??_C@_0BB@CCCLGDLP@?$CFc?5?$CF?97?47s?5?$CF?99?49s@ 10026514     _MasterDataManager.obj
 0002:00003528       ??_C@_0BB@MEAMFNCB@?$CFs?5?$CF?97?47s?5?$CF?99?49s@ 10026528     _MasterDataManager.obj
 0002:00003540       __xmm@0000000a000000000000000000000000 10026540     _MasterDataManager.obj
 0002:00003554       ??_7?$CList@PAUST_NewsSignalMng@@PAU1@@@6B@ 10026554     _NewSignalManager.obj
 0002:0000356c       ??_7CNewsSignalManager@@6B@ 1002656c     _NewSignalManager.obj
 0002:00003594       ??_C@_04EKPIFALL@?2DEV@    10026594     _NewSignalManager.obj
 0002:000035a0       ??_7CPCTRManager@@6B@      100265a0     _PCTrManager.obj
 0002:000035cc       ??_C@_04LJDDIHIK@?4bmp@    100265cc     _SkinColorManager.obj
 0002:000035d8       ??_7?$CArray@U_tabUserColorTable@@U1@@@6B@ 100265d8     _SkinColorManager.obj
 0002:000035f0       ??_7?$CList@PAUISkinColorSite@@PAU1@@@6B@ 100265f0     _SkinColorManager.obj
 0002:00003608       ??_7?$CArray@UST_SKININFO@@U1@@@6B@ 10026608     _SkinColorManager.obj
 0002:00003620       ??_7CSkinColorManager@@6B@ 10026620     _SkinColorManager.obj
 0002:00003660       ??_C@_04KIHPKAMN@?$LA?$LD?$LM?v@ 10026660     _SkinColorManager.obj
 0002:00003668       ??_C@_08JEMOIDPL@?D?C?$LH?$KP?$LA?$LD?$LM?v@ 10026668     _SkinColorManager.obj
 0002:00003674       ??_C@_0DB@OKFKJJJD@?F?D?$MA?O?$FL?$CFs?$FN?$LP?$KB?$LM?$KN?5?D?$KO?$LG?s?E?W?$MA?L?$LK?m?5?A?$KE?$LK?$LI?$LI?$KG?5@ 10026674     _SkinColorManager.obj
 0002:000036a8       ??_C@_0L@MNJMPGLE@?D?C?$LH?$KP?$MA?N?$LF?$KG?$LN?$LK@ 100266a8     _SkinColorManager.obj
 0002:000036b4       ??_C@_0BC@HNKKLCOJ@?$CF?$FL?$FO?0?$FN?0?5?$CFd?0?5?$CFd?0?5?$CFd@ 100266b4     _SkinColorManager.obj
 0002:000036c8       ??_C@_0BA@NMCBNOGD@Data?2Config?4cfg@ 100266c8     _SkinColorManager.obj
 0002:000036d8       ??_C@_04BLMKLGAB@SKIN@     100266d8     _SkinColorManager.obj
 0002:000036e0       ??_C@_05IJGIMMHE@Count@    100266e0     _SkinColorManager.obj
 0002:000036e8       ??_C@_04OGKJMPGK@?$CF02d@  100266e8     _SkinColorManager.obj
 0002:000036f0       ??_C@_0EK@KHAKBPBF@?$LN?$LK?E?$LC?$LA?m?$MA?$PM?$HMDefaultColorTable?4cfg?$HM@ 100266f0     _SkinColorManager.obj
 0002:0000373c       ??_C@_06JHNIBAJK@CLSID?2@  1002673c     _SystemUtilManager.obj
 0002:00003744       ??_C@_0BA@CCGIMEPP@?2InprocServer32@ 10026744     _SystemUtilManager.obj
 0002:00003754       ??_C@_0P@IKCDKIKH@?2LocalServer32@ 10026754     _SystemUtilManager.obj
 0002:00003764       ??_C@_0BH@OANCKEIH@?2System32?2regsvr32?4exe@ 10026764     _SystemUtilManager.obj
 0002:0000377c       ??_C@_08LMJFGFMJ@?5?1s?5?$CC?$CFs?$CC@ 1002677c     _SystemUtilManager.obj
 0002:00003788       ??_C@_02EMFKHFLK@?$CFX@    10026788     _TRCommManager.obj
 0002:00003790       ??_7CTRComm@@6B@           10026790     _TRCommManager.obj
 0002:00003904       ??_7?$CList@PAVCTrCommImpl@@PAV1@@@6B@ 10026904     _TRCommManager.obj
 0002:0000391c       ??_7CTrCommManager@@6B@    1002691c     _TRCommManager.obj
 0002:00003930       ??_7CTrCommImpl@@6B@       10026930     _TRCommManager.obj
 0002:00003948       ??_C@_04KLKHHPIG@MAIN@     10026948     _TRCommManager.obj
 0002:00003950       __pAtlLcidToLocaleNameTable 10026950     mfcs140:nolib.obj
 0002:00004070       ??_C@_15EMKDOKLE@?$AAa?$AAr@ 10027070     mfcs140:nolib.obj
 0002:00004078       ??_C@_15KNPADPLH@?$AAb?$AAg@ 10027078     mfcs140:nolib.obj
 0002:00004080       ??_C@_15EDMHLDMO@?$AAc?$AAa@ 10027080     mfcs140:nolib.obj
 0002:00004088       ??_C@_1O@BPEAJADD@?$AAz?$AAh?$AA?9?$AAC?$AAH?$AAS@ 10027088     mfcs140:nolib.obj
 0002:00004098       ??_C@_15LJNHCMNK@?$AAc?$AAs@ 10027098     mfcs140:nolib.obj
 0002:000040a0       ??_C@_15FOMCIDHG@?$AAd?$AAa@ 100270a0     mfcs140:nolib.obj
 0002:000040a8       ??_C@_15NBKABECB@?$AAd?$AAe@ 100270a8     mfcs140:nolib.obj
 0002:000040b0       ??_C@_15GHPEIIAO@?$AAe?$AAl@ 100270b0     mfcs140:nolib.obj
 0002:000040b8       ??_C@_15MNPNEAIF@?$AAe?$AAn@ 100270b8     mfcs140:nolib.obj
 0002:000040c0       ??_C@_15GPIOMPMH@?$AAe?$AAs@ 100270c0     mfcs140:nolib.obj
 0002:000040c8       ??_C@_15NGLOAKJC@?$AAf?$AAi@ 100270c8     mfcs140:nolib.obj
 0002:000040d0       ??_C@_15FBKGNKAM@?$AAf?$AAr@ 100270d0     mfcs140:nolib.obj
 0002:000040d8       ??_C@_15KGGCNEFK@?$AAh?$AAe@ 100270d8     mfcs140:nolib.obj
 0002:000040e0       ??_C@_15PGHLIDMF@?$AAh?$AAu@ 100270e0     mfcs140:nolib.obj
 0002:000040e8       ??_C@_15BIEMAPLM@?$AAi?$AAs@ 100270e8     mfcs140:nolib.obj
 0002:000040f0       ??_C@_15IFJLDHAF@?$AAi?$AAt@ 100270f0     mfcs140:nolib.obj
 0002:000040f8       ??_C@_15GEMIOCAG@?$AAj?$AAa@ 100270f8     mfcs140:nolib.obj
 0002:00004100       ??_C@_15EPELEGJA@?$AAk?$AAo@ 10027100     mfcs140:nolib.obj
 0002:00004108       ??_C@_15NDDHIMN@?$AAn?$AAl@ 10027108     mfcs140:nolib.obj
 0002:00004110       ??_C@_15BPIGNHCD@?$AAn?$AAo@ 10027110     mfcs140:nolib.obj
 0002:00004118       ??_C@_15DEOPBLCG@?$AAp?$AAl@ 10027118     mfcs140:nolib.obj
 0002:00004120       ??_C@_15KBECGEFG@?$AAp?$AAt@ 10027120     mfcs140:nolib.obj
 0002:00004128       ??_C@_15GLJCBFMD@?$AAr?$AAo@ 10027128     mfcs140:nolib.obj
 0002:00004130       ??_C@_15FEDGKCDI@?$AAr?$AAu@ 10027130     mfcs140:nolib.obj
 0002:00004138       ??_C@_15GLKMLLHM@?$AAh?$AAr@ 10027138     mfcs140:nolib.obj
 0002:00004140       ??_C@_15CPKMFBDB@?$AAs?$AAk@ 10027140     mfcs140:nolib.obj
 0002:00004148       ??_C@_15BAAIOGMK@?$AAs?$AAq@ 10027148     mfcs140:nolib.obj
 0002:00004150       ??_C@_15INNPNOHD@?$AAs?$AAv@ 10027150     mfcs140:nolib.obj
 0002:00004158       ??_C@_15CABMMOGH@?$AAt?$AAh@ 10027158     mfcs140:nolib.obj
 0002:00004160       ??_C@_15BPLIHJJM@?$AAt?$AAr@ 10027160     mfcs140:nolib.obj
 0002:00004168       ??_C@_15NEOEKKDJ@?$AAu?$AAr@ 10027168     mfcs140:nolib.obj
 0002:00004170       ??_C@_15NFICGAJK@?$AAi?$AAd@ 10027170     mfcs140:nolib.obj
 0002:00004178       ??_C@_15PJPFLCCM@?$AAu?$AAk@ 10027178     mfcs140:nolib.obj
 0002:00004180       ??_C@_15HPJPHDM@?$AAb?$AAe@ 10027180     mfcs140:nolib.obj
 0002:00004188       ??_C@_15LCHLGJII@?$AAs?$AAl@ 10027188     mfcs140:nolib.obj
 0002:00004190       ??_C@_15PCFJPHHO@?$AAe?$AAt@ 10027190     mfcs140:nolib.obj
 0002:00004198       ??_C@_15HPFPGODN@?$AAl?$AAv@ 10027198     mfcs140:nolib.obj
 0002:000041a0       ??_C@_15NFFGKGLG@?$AAl?$AAt@ 100271a0     mfcs140:nolib.obj
 0002:000041a8       ??_C@_15BDAKCCHN@?$AAf?$AAa@ 100271a8     mfcs140:nolib.obj
 0002:000041b0       ??_C@_15NFGIAIAJ@?$AAv?$AAi@ 100271b0     mfcs140:nolib.obj
 0002:000041b8       ??_C@_15LMKNDMHN@?$AAh?$AAy@ 100271b8     mfcs140:nolib.obj
 0002:000041c0       ??_C@_15IJBHMCFL@?$AAa?$AAz@ 100271c0     mfcs140:nolib.obj
 0002:000041c8       ??_C@_15EKOFJABL@?$AAe?$AAu@ 100271c8     mfcs140:nolib.obj
 0002:000041d0       ??_C@_15BGHADCNK@?$AAm?$AAk@ 100271d0     mfcs140:nolib.obj
 0002:000041d8       ??_C@_15JDNICKHM@?$AAa?$AAf@ 100271d8     mfcs140:nolib.obj
 0002:000041e0       ??_C@_15KPJEDBKD@?$AAk?$AAa@ 100271e0     mfcs140:nolib.obj
 0002:000041e8       ??_C@_15PDNFFFEO@?$AAf?$AAo@ 100271e8     mfcs140:nolib.obj
 0002:000041f0       ??_C@_15OMLEGLOC@?$AAh?$AAi@ 100271f0     mfcs140:nolib.obj
 0002:000041f8       ??_C@_15IDNNENKK@?$AAm?$AAs@ 100271f8     mfcs140:nolib.obj
 0002:00004200       ??_C@_15MACJNBMH@?$AAk?$AAk@ 10027200     mfcs140:nolib.obj
 0002:00004208       ??_C@_15DKDJEOND@?$AAk?$AAy@ 10027208     mfcs140:nolib.obj
 0002:00004210       ??_C@_15DFGDLJBG@?$AAs?$AAw@ 10027210     mfcs140:nolib.obj
 0002:00004218       ??_C@_15BBFAICNG@?$AAu?$AAz@ 10027218     mfcs140:nolib.obj
 0002:00004220       ??_C@_15DKNDCGEA@?$AAt?$AAt@ 10027220     mfcs140:nolib.obj
 0002:00004228       ??_C@_15MGIFMDPL@?$AAp?$AAa@ 10027228     mfcs140:nolib.obj
 0002:00004230       ??_C@_15HCNDBBA@?$AAg?$AAu@ 10027230     mfcs140:nolib.obj
 0002:00004238       ??_C@_15FNBEIBON@?$AAt?$AAa@ 10027238     mfcs140:nolib.obj
 0002:00004240       ??_C@_15NCHGBGLK@?$AAt?$AAe@ 10027240     mfcs140:nolib.obj
 0002:00004248       ??_C@_15PHPHCBPF@?$AAk?$AAn@ 10027248     mfcs140:nolib.obj
 0002:00004250       ??_C@_15DLGBCKMP@?$AAm?$AAr@ 10027250     mfcs140:nolib.obj
 0002:00004258       ??_C@_15EABBLBFF@?$AAs?$AAa@ 10027258     mfcs140:nolib.obj
 0002:00004260       ??_C@_15CBKOMCOI@?$AAm?$AAn@ 10027260     mfcs140:nolib.obj
 0002:00004268       ??_C@_15CKDMCJAF@?$AAg?$AAl@ 10027268     mfcs140:nolib.obj
 0002:00004270       ??_C@_17CNJFBPG@?$AAk?$AAo?$AAk@ 10027270     mfcs140:nolib.obj
 0002:00004278       ??_C@_17FFBJICPL@?$AAs?$AAy?$AAr@ 10027278     mfcs140:nolib.obj
 0002:00004280       ??_C@_17KPNDCPAF@?$AAd?$AAi?$AAv@ 10027280     mfcs140:nolib.obj
 0002:00004288       ??_C@_11LOCGONAA@@         10027288     mfcs140:nolib.obj
 0002:0000428c       ??_C@_1M@OKAHONE@?$AAa?$AAr?$AA?9?$AAS?$AAA@ 1002728c     mfcs140:nolib.obj
 0002:00004298       ??_C@_1M@FFFIGIGK@?$AAb?$AAg?$AA?9?$AAB?$AAG@ 10027298     mfcs140:nolib.obj
 0002:000042a4       ??_C@_1M@BJNKEDC@?$AAc?$AAa?$AA?9?$AAE?$AAS@ 100272a4     mfcs140:nolib.obj
 0002:000042b0       ??_C@_1M@CLNBBOPM@?$AAz?$AAh?$AA?9?$AAT?$AAW@ 100272b0     mfcs140:nolib.obj
 0002:000042bc       ??_C@_1M@IJJHFJHA@?$AAc?$AAs?$AA?9?$AAC?$AAZ@ 100272bc     mfcs140:nolib.obj
 0002:000042c8       ??_C@_1M@CLPEOBGI@?$AAd?$AAa?$AA?9?$AAD?$AAK@ 100272c8     mfcs140:nolib.obj
 0002:000042d4       ??_C@_1M@MCMADGCB@?$AAd?$AAe?$AA?9?$AAD?$AAE@ 100272d4     mfcs140:nolib.obj
 0002:000042e0       ??_C@_1M@OOCKEMAM@?$AAe?$AAl?$AA?9?$AAG?$AAR@ 100272e0     mfcs140:nolib.obj
 0002:000042ec       ??_C@_1M@BMHNFIME@?$AAe?$AAn?$AA?9?$AAU?$AAS@ 100272ec     mfcs140:nolib.obj
 0002:000042f8       ??_C@_1M@DDNJFGID@?$AAf?$AAi?$AA?9?$AAF?$AAI@ 100272f8     mfcs140:nolib.obj
 0002:00004304       ??_C@_1M@GLIPPMAC@?$AAf?$AAr?$AA?9?$AAF?$AAR@ 10027304     mfcs140:nolib.obj
 0002:00004310       ??_C@_1M@GFMCHPE@?$AAh?$AAe?$AA?9?$AAI?$AAL@ 10027310     mfcs140:nolib.obj
 0002:0000431c       ??_C@_1M@MHLPGNKM@?$AAh?$AAu?$AA?9?$AAH?$AAU@ 1002731c     mfcs140:nolib.obj
 0002:00004328       ??_C@_1M@LPDDNNPN@?$AAi?$AAs?$AA?9?$AAI?$AAS@ 10027328     mfcs140:nolib.obj
 0002:00004334       ??_C@_1M@MADIPODN@?$AAi?$AAt?$AA?9?$AAI?$AAT@ 10027334     mfcs140:nolib.obj
 0002:00004340       ??_C@_1M@HPNHIDJI@?$AAj?$AAa?$AA?9?$AAJ?$AAP@ 10027340     mfcs140:nolib.obj
 0002:0000434c       ??_C@_1M@JLOOOEGK@?$AAk?$AAo?$AA?9?$AAK?$AAR@ 1002734c     mfcs140:nolib.obj
 0002:00004358       ??_C@_1M@IHBJJGG@?$AAn?$AAl?$AA?9?$AAN?$AAL@ 10027358     mfcs140:nolib.obj
 0002:00004364       ??_C@_1M@EANAGDL@?$AAn?$AAb?$AA?9?$AAN?$AAO@ 10027364     mfcs140:nolib.obj
 0002:00004370       ??_C@_1M@NEIEMEGP@?$AAp?$AAl?$AA?9?$AAP?$AAL@ 10027370     mfcs140:nolib.obj
 0002:0000437c       ??_C@_1M@BOCFIGEP@?$AAp?$AAt?$AA?9?$AAB?$AAR@ 1002737c     mfcs140:nolib.obj
 0002:00004388       ??_C@_1M@IMPFOPBG@?$AAr?$AAo?$AA?9?$AAR?$AAO@ 10027388     mfcs140:nolib.obj
 0002:00004394       ??_C@_1M@IDNNEJMM@?$AAr?$AAu?$AA?9?$AAR?$AAU@ 10027394     mfcs140:nolib.obj
 0002:000043a0       ??_C@_1M@LILEEOGM@?$AAh?$AAr?$AA?9?$AAH?$AAR@ 100273a0     mfcs140:nolib.obj
 0002:000043ac       ??_C@_1M@FKIFEHPB@?$AAs?$AAk?$AA?9?$AAS?$AAK@ 100273ac     mfcs140:nolib.obj
 0002:000043b8       ??_C@_1M@LJMAMNPJ@?$AAs?$AAq?$AA?9?$AAA?$AAL@ 100273b8     mfcs140:nolib.obj
 0002:000043c4       ??_C@_1M@GIAKDKJK@?$AAs?$AAv?$AA?9?$AAS?$AAE@ 100273c4     mfcs140:nolib.obj
 0002:000043d0       ??_C@_1M@MKJKIKCL@?$AAt?$AAh?$AA?9?$AAT?$AAH@ 100273d0     mfcs140:nolib.obj
 0002:000043dc       ??_C@_1M@MFLCCMPB@?$AAt?$AAr?$AA?9?$AAT?$AAR@ 100273dc     mfcs140:nolib.obj
 0002:000043e8       ??_C@_1M@OIJHDKJN@?$AAu?$AAr?$AA?9?$AAP?$AAK@ 100273e8     mfcs140:nolib.obj
 0002:000043f4       ??_C@_1M@LHIPCIEK@?$AAi?$AAd?$AA?9?$AAI?$AAD@ 100273f4     mfcs140:nolib.obj
 0002:00004400       ??_C@_1M@MFMOBGI@?$AAu?$AAk?$AA?9?$AAU?$AAA@ 10027400     mfcs140:nolib.obj
 0002:0000440c       ??_C@_1M@OBGLJIPL@?$AAb?$AAe?$AA?9?$AAB?$AAY@ 1002740c     mfcs140:nolib.obj
 0002:00004418       ??_C@_1M@BCFAJEAD@?$AAs?$AAl?$AA?9?$AAS?$AAI@ 10027418     mfcs140:nolib.obj
 0002:00004424       ??_C@_1M@FKFFEDDN@?$AAe?$AAt?$AA?9?$AAE?$AAE@ 10027424     mfcs140:nolib.obj
 0002:00004430       ??_C@_1M@KGKKAACI@?$AAl?$AAv?$AA?9?$AAL?$AAV@ 10027430     mfcs140:nolib.obj
 0002:0000443c       ??_C@_1M@IFGBIJO@?$AAl?$AAt?$AA?9?$AAL?$AAT@ 1002743c     mfcs140:nolib.obj
 0002:00004448       ??_C@_1M@FGEAHEDM@?$AAf?$AAa?$AA?9?$AAI?$AAR@ 10027448     mfcs140:nolib.obj
 0002:00004454       ??_C@_1M@KBMAIBFN@?$AAv?$AAi?$AA?9?$AAV?$AAN@ 10027454     mfcs140:nolib.obj
 0002:00004460       ??_C@_1M@GPCBKDJK@?$AAh?$AAy?$AA?9?$AAA?$AAM@ 10027460     mfcs140:nolib.obj
 0002:0000446c       ??_C@_1BG@BECMDDJB@?$AAa?$AAz?$AA?9?$AAA?$AAZ?$AA?9?$AAL?$AAa?$AAt?$AAn@ 1002746c     mfcs140:nolib.obj
 0002:00004484       ??_C@_1M@MAOFCAEA@?$AAe?$AAu?$AA?9?$AAE?$AAS@ 10027484     mfcs140:nolib.obj
 0002:00004490       ??_C@_1M@IGHABKPI@?$AAm?$AAk?$AA?9?$AAM?$AAK@ 10027490     mfcs140:nolib.obj
 0002:0000449c       ??_C@_1M@IAIGNEJG@?$AAt?$AAn?$AA?9?$AAZ?$AAA@ 1002749c     mfcs140:nolib.obj
 0002:000044a8       ??_C@_1M@IIJCOJFA@?$AAx?$AAh?$AA?9?$AAZ?$AAA@ 100274a8     mfcs140:nolib.obj
 0002:000044b4       ??_C@_1M@LGPJHNJH@?$AAz?$AAu?$AA?9?$AAZ?$AAA@ 100274b4     mfcs140:nolib.obj
 0002:000044c0       ??_C@_1M@HOKAOIO@?$AAa?$AAf?$AA?9?$AAZ?$AAA@ 100274c0     mfcs140:nolib.obj
 0002:000044cc       ??_C@_1M@DPCLHLIE@?$AAk?$AAa?$AA?9?$AAG?$AAE@ 100274cc     mfcs140:nolib.obj
 0002:000044d8       ??_C@_1M@BLKMHJBI@?$AAf?$AAo?$AA?9?$AAF?$AAO@ 100274d8     mfcs140:nolib.obj
 0002:000044e4       ??_C@_1M@LGGJAPPB@?$AAh?$AAi?$AA?9?$AAI?$AAN@ 100274e4     mfcs140:nolib.obj
 0002:000044f0       ??_C@_1M@FIKPIHFE@?$AAm?$AAt?$AA?9?$AAM?$AAT@ 100274f0     mfcs140:nolib.obj
 0002:000044fc       ??_C@_1M@HEGGPBFA@?$AAs?$AAe?$AA?9?$AAN?$AAO@ 100274fc     mfcs140:nolib.obj
 0002:00004508       ??_C@_1M@EIBJEEPA@?$AAm?$AAs?$AA?9?$AAM?$AAY@ 10027508     mfcs140:nolib.obj
 0002:00004514       ??_C@_1M@FHLBGMPP@?$AAk?$AAk?$AA?9?$AAK?$AAZ@ 10027514     mfcs140:nolib.obj
 0002:00004520       ??_C@_1M@NGJJLCGI@?$AAk?$AAy?$AA?9?$AAK?$AAG@ 10027520     mfcs140:nolib.obj
 0002:0000452c       ??_C@_1M@GIENNBFC@?$AAs?$AAw?$AA?9?$AAK?$AAE@ 1002752c     mfcs140:nolib.obj
 0002:00004538       ??_C@_1BG@NDGMJIMJ@?$AAu?$AAz?$AA?9?$AAU?$AAZ?$AA?9?$AAL?$AAa?$AAt?$AAn@ 10027538     mfcs140:nolib.obj
 0002:00004550       ??_C@_1M@IDCCIHBC@?$AAt?$AAt?$AA?9?$AAR?$AAU@ 10027550     mfcs140:nolib.obj
 0002:0000455c       ??_C@_1M@LOICPMOJ@?$AAb?$AAn?$AA?9?$AAI?$AAN@ 1002755c     mfcs140:nolib.obj
 0002:00004568       ??_C@_1M@KPKKNEAH@?$AAp?$AAa?$AA?9?$AAI?$AAN@ 10027568     mfcs140:nolib.obj
 0002:00004574       ??_C@_1M@PJGPPBOG@?$AAg?$AAu?$AA?9?$AAI?$AAN@ 10027574     mfcs140:nolib.obj
 0002:00004580       ??_C@_1M@KMKMOPHI@?$AAt?$AAa?$AA?9?$AAI?$AAN@ 10027580     mfcs140:nolib.obj
 0002:0000458c       ??_C@_1M@KFEHEPAC@?$AAt?$AAe?$AA?9?$AAI?$AAN@ 1002758c     mfcs140:nolib.obj
 0002:00004598       ??_C@_1M@CDCLMGHI@?$AAk?$AAn?$AA?9?$AAI?$AAN@ 10027598     mfcs140:nolib.obj
 0002:000045a4       ??_C@_1M@MIODLDKF@?$AAm?$AAl?$AA?9?$AAI?$AAN@ 100275a4     mfcs140:nolib.obj
 0002:000045b0       ??_C@_1M@PBIEACPO@?$AAm?$AAr?$AA?9?$AAI?$AAN@ 100275b0     mfcs140:nolib.obj
 0002:000045bc       ??_C@_1M@NIDEAGPH@?$AAs?$AAa?$AA?9?$AAI?$AAN@ 100275bc     mfcs140:nolib.obj
 0002:000045c8       ??_C@_1M@FHIHCBIO@?$AAm?$AAn?$AA?9?$AAM?$AAN@ 100275c8     mfcs140:nolib.obj
 0002:000045d4       ??_C@_1M@JAIJPENP@?$AAc?$AAy?$AA?9?$AAG?$AAB@ 100275d4     mfcs140:nolib.obj
 0002:000045e0       ??_C@_1M@PHGFBEPN@?$AAg?$AAl?$AA?9?$AAE?$AAS@ 100275e0     mfcs140:nolib.obj
 0002:000045ec       ??_C@_1O@KPIPDNCP@?$AAk?$AAo?$AAk?$AA?9?$AAI?$AAN@ 100275ec     mfcs140:nolib.obj
 0002:000045fc       ??_C@_1O@KNHJLDJA@?$AAs?$AAy?$AAr?$AA?9?$AAS?$AAY@ 100275fc     mfcs140:nolib.obj
 0002:0000460c       ??_C@_1O@MKEKBLAH@?$AAd?$AAi?$AAv?$AA?9?$AAM?$AAV@ 1002760c     mfcs140:nolib.obj
 0002:0000461c       ??_C@_1O@OHDCKDDF@?$AAq?$AAu?$AAz?$AA?9?$AAB?$AAO@ 1002761c     mfcs140:nolib.obj
 0002:0000462c       ??_C@_1M@LEPJNLFD@?$AAn?$AAs?$AA?9?$AAZ?$AAA@ 1002762c     mfcs140:nolib.obj
 0002:00004638       ??_C@_1M@OMLEIIJB@?$AAm?$AAi?$AA?9?$AAN?$AAZ@ 10027638     mfcs140:nolib.obj
 0002:00004644       ??_C@_1M@PMPEAILG@?$AAa?$AAr?$AA?9?$AAI?$AAQ@ 10027644     mfcs140:nolib.obj
 0002:00004650       ??_C@_1M@BIBDDEMK@?$AAz?$AAh?$AA?9?$AAC?$AAN@ 10027650     mfcs140:nolib.obj
 0002:0000465c       ??_C@_1M@CNKPNOEE@?$AAd?$AAe?$AA?9?$AAC?$AAH@ 1002765c     mfcs140:nolib.obj
 0002:00004668       ??_C@_1M@LKMGMLKO@?$AAe?$AAn?$AA?9?$AAG?$AAB@ 10027668     mfcs140:nolib.obj
 0002:00004674       ??_C@_1M@PGKJFFGL@?$AAe?$AAs?$AA?9?$AAM?$AAX@ 10027674     mfcs140:nolib.obj
 0002:00004680       ??_C@_1M@DNNANBDC@?$AAf?$AAr?$AA?9?$AAB?$AAE@ 10027680     mfcs140:nolib.obj
 0002:0000468c       ??_C@_1M@HLGMDFHM@?$AAi?$AAt?$AA?9?$AAC?$AAH@ 1002768c     mfcs140:nolib.obj
 0002:00004698       ??_C@_1M@CLLBGJH@?$AAn?$AAl?$AA?9?$AAB?$AAE@ 10027698     mfcs140:nolib.obj
 0002:000046a4       ??_C@_1M@BODBOGLF@?$AAn?$AAn?$AA?9?$AAN?$AAO@ 100276a4     mfcs140:nolib.obj
 0002:000046b0       ??_C@_1M@HFFAHKAD@?$AAp?$AAt?$AA?9?$AAP?$AAT@ 100276b0     mfcs140:nolib.obj
 0002:000046bc       ??_C@_1BG@LNOAKHIE@?$AAs?$AAr?$AA?9?$AAS?$AAP?$AA?9?$AAL?$AAa?$AAt?$AAn@ 100276bc     mfcs140:nolib.obj
 0002:000046d4       ??_C@_1M@HBMHBGAK@?$AAs?$AAv?$AA?9?$AAF?$AAI@ 100276d4     mfcs140:nolib.obj
 0002:000046e0       ??_C@_1BG@DGCJGJBE@?$AAa?$AAz?$AA?9?$AAA?$AAZ?$AA?9?$AAC?$AAy?$AAr?$AAl@ 100276e0     mfcs140:nolib.obj
 0002:000046f8       ??_C@_1M@KEJDAAHB@?$AAs?$AAe?$AA?9?$AAS?$AAE@ 100276f8     mfcs140:nolib.obj
 0002:00004704       ??_C@_1M@HEIBJJAD@?$AAm?$AAs?$AA?9?$AAB?$AAN@ 10027704     mfcs140:nolib.obj
 0002:00004710       ??_C@_1BG@PBGJMCEM@?$AAu?$AAz?$AA?9?$AAU?$AAZ?$AA?9?$AAC?$AAy?$AAr?$AAl@ 10027710     mfcs140:nolib.obj
 0002:00004728       ??_C@_1O@LAOBCMDF@?$AAq?$AAu?$AAz?$AA?9?$AAE?$AAC@ 10027728     mfcs140:nolib.obj
 0002:00004738       ??_C@_1M@POEEMAIO@?$AAa?$AAr?$AA?9?$AAE?$AAG@ 10027738     mfcs140:nolib.obj
 0002:00004744       ??_C@_1M@EFAKDEDL@?$AAz?$AAh?$AA?9?$AAH?$AAK@ 10027744     mfcs140:nolib.obj
 0002:00004750       ??_C@_1M@HKKIJHGI@?$AAd?$AAe?$AA?9?$AAA?$AAT@ 10027750     mfcs140:nolib.obj
 0002:0000475c       ??_C@_1M@KBFBEHJF@?$AAe?$AAn?$AA?9?$AAA?$AAU@ 1002775c     mfcs140:nolib.obj
 0002:00004768       ??_C@_1M@MNPLFAAH@?$AAe?$AAs?$AA?9?$AAE?$AAS@ 10027768     mfcs140:nolib.obj
 0002:00004774       ??_C@_1M@HJOOJFMA@?$AAf?$AAr?$AA?9?$AAC?$AAA@ 10027774     mfcs140:nolib.obj
 0002:00004780       ??_C@_1BG@JPOFPNAB@?$AAs?$AAr?$AA?9?$AAS?$AAP?$AA?9?$AAC?$AAy?$AAr?$AAl@ 10027780     mfcs140:nolib.obj
 0002:00004798       ??_C@_1M@LNFOCMOB@?$AAs?$AAe?$AA?9?$AAF?$AAI@ 10027798     mfcs140:nolib.obj
 0002:000047a4       ??_C@_1O@MGJBOAMB@?$AAq?$AAu?$AAz?$AA?9?$AAP?$AAE@ 100277a4     mfcs140:nolib.obj
 0002:000047b4       ??_C@_1M@GJINLBOK@?$AAa?$AAr?$AA?9?$AAL?$AAY@ 100277b4     mfcs140:nolib.obj
 0002:000047c0       ??_C@_1M@GGMNHJNL@?$AAz?$AAh?$AA?9?$AAS?$AAG@ 100277c0     mfcs140:nolib.obj
 0002:000047cc       ??_C@_1M@HOIKODND@?$AAd?$AAe?$AA?9?$AAL?$AAU@ 100277cc     mfcs140:nolib.obj
 0002:000047d8       ??_C@_1M@DDOCCGFG@?$AAe?$AAn?$AA?9?$AAC?$AAA@ 100277d8     mfcs140:nolib.obj
 0002:000047e4       ??_C@_1M@BNOEMJLF@?$AAe?$AAs?$AA?9?$AAG?$AAT@ 100277e4     mfcs140:nolib.obj
 0002:000047f0       ??_C@_1M@EOGNKEK@?$AAf?$AAr?$AA?9?$AAC?$AAH@ 100277f0     mfcs140:nolib.obj
 0002:000047fc       ??_C@_1M@FLIDJFHL@?$AAh?$AAr?$AA?9?$AAB?$AAA@ 100277fc     mfcs140:nolib.obj
 0002:00004808       ??_C@_1O@FMCELNAJ@?$AAs?$AAm?$AAj?$AA?9?$AAN?$AAO@ 10027808     mfcs140:nolib.obj
 0002:00004818       ??_C@_1M@JHGLJMGJ@?$AAa?$AAr?$AA?9?$AAD?$AAZ@ 10027818     mfcs140:nolib.obj
 0002:00004824       ??_C@_1M@JKKFDCNP@?$AAz?$AAh?$AA?9?$AAM?$AAO@ 10027824     mfcs140:nolib.obj
 0002:00004830       ??_C@_1M@GEEFALPE@?$AAd?$AAe?$AA?9?$AAL?$AAI@ 10027830     mfcs140:nolib.obj
 0002:0000483c       ??_C@_1M@IGEOFBG@?$AAe?$AAn?$AA?9?$AAN?$AAZ@ 1002783c     mfcs140:nolib.obj
 0002:00004848       ??_C@_1M@KDBONEHP@?$AAe?$AAs?$AA?9?$AAC?$AAR@ 10027848     mfcs140:nolib.obj
 0002:00004854       ??_C@_1M@FHMDOHNN@?$AAf?$AAr?$AA?9?$AAL?$AAU@ 10027854     mfcs140:nolib.obj
 0002:00004860       ??_C@_1BG@NFKKMAFG@?$AAb?$AAs?$AA?9?$AAB?$AAA?$AA?9?$AAL?$AAa?$AAt?$AAn@ 10027860     mfcs140:nolib.obj
 0002:00004878       ??_C@_1O@IMNBEMCI@?$AAs?$AAm?$AAj?$AA?9?$AAS?$AAE@ 10027878     mfcs140:nolib.obj
 0002:00004888       ??_C@_1M@DHHMBNDP@?$AAa?$AAr?$AA?9?$AAM?$AAA@ 10027888     mfcs140:nolib.obj
 0002:00004894       ??_C@_1M@BNBLJCGH@?$AAe?$AAn?$AA?9?$AAI?$AAE@ 10027894     mfcs140:nolib.obj
 0002:000048a0       ??_C@_1M@GEPAFMDL@?$AAe?$AAs?$AA?9?$AAP?$AAA@ 100278a0     mfcs140:nolib.obj
 0002:000048ac       ??_C@_1M@OJONDMDL@?$AAf?$AAr?$AA?9?$AAM?$AAC@ 100278ac     mfcs140:nolib.obj
 0002:000048b8       ??_C@_1BG@OBCNFJB@?$AAs?$AAr?$AA?9?$AAB?$AAA?$AA?9?$AAL?$AAa?$AAt?$AAn@ 100278b8     mfcs140:nolib.obj
 0002:000048d0       ??_C@_1O@KEMEEGPO@?$AAs?$AAm?$AAa?$AA?9?$AAN?$AAO@ 100278d0     mfcs140:nolib.obj
 0002:000048e0       ??_C@_1M@ELMGFODK@?$AAa?$AAr?$AA?9?$AAT?$AAN@ 100278e0     mfcs140:nolib.obj
 0002:000048ec       ??_C@_1M@BHDLHFAF@?$AAe?$AAn?$AA?9?$AAZ?$AAA@ 100278ec     mfcs140:nolib.obj
 0002:000048f8       ??_C@_1M@BMGIGLIF@?$AAe?$AAs?$AA?9?$AAD?$AAO@ 100278f8     mfcs140:nolib.obj
 0002:00004904       ??_C@_1BG@CMBHIPBE@?$AAs?$AAr?$AA?9?$AAB?$AAA?$AA?9?$AAC?$AAy?$AAr?$AAl@ 10027904     mfcs140:nolib.obj
 0002:0000491c       ??_C@_1O@HEDBLHNP@?$AAs?$AAm?$AAa?$AA?9?$AAS?$AAE@ 1002791c     mfcs140:nolib.obj
 0002:0000492c       ??_C@_1M@DAGCADIM@?$AAa?$AAr?$AA?9?$AAO?$AAM@ 1002792c     mfcs140:nolib.obj
 0002:00004938       ??_C@_1M@FODLMICG@?$AAe?$AAn?$AA?9?$AAJ?$AAM@ 10027938     mfcs140:nolib.obj
 0002:00004944       ??_C@_1M@DNMLCIHB@?$AAe?$AAs?$AA?9?$AAV?$AAE@ 10027944     mfcs140:nolib.obj
 0002:00004950       ??_C@_1O@EOKHMKJK@?$AAs?$AAm?$AAs?$AA?9?$AAF?$AAI@ 10027950     mfcs140:nolib.obj
 0002:00004960       ??_C@_1M@CAFJMKOF@?$AAa?$AAr?$AA?9?$AAY?$AAE@ 10027960     mfcs140:nolib.obj
 0002:0000496c       ??_C@_1M@CBFHIJLI@?$AAe?$AAn?$AA?9?$AAC?$AAB@ 1002796c     mfcs140:nolib.obj
 0002:00004978       ??_C@_1M@BGNFLDN@?$AAe?$AAs?$AA?9?$AAC?$AAO@ 10027978     mfcs140:nolib.obj
 0002:00004984       ??_C@_1O@JMPHMAMC@?$AAs?$AAm?$AAn?$AA?9?$AAF?$AAI@ 10027984     mfcs140:nolib.obj
 0002:00004994       ??_C@_1M@JLANABKE@?$AAa?$AAr?$AA?9?$AAS?$AAY@ 10027994     mfcs140:nolib.obj
 0002:000049a0       ??_C@_1M@HPKGCFGN@?$AAe?$AAn?$AA?9?$AAB?$AAZ@ 100279a0     mfcs140:nolib.obj
 0002:000049ac       ??_C@_1M@OLJCMLGM@?$AAe?$AAs?$AA?9?$AAP?$AAE@ 100279ac     mfcs140:nolib.obj
 0002:000049b8       ??_C@_1M@MKKGFKLE@?$AAa?$AAr?$AA?9?$AAJ?$AAO@ 100279b8     mfcs140:nolib.obj
 0002:000049c4       ??_C@_1M@EKPGLDNI@?$AAe?$AAn?$AA?9?$AAT?$AAT@ 100279c4     mfcs140:nolib.obj
 0002:000049d0       ??_C@_1M@OONGHFHE@?$AAe?$AAs?$AA?9?$AAA?$AAR@ 100279d0     mfcs140:nolib.obj
 0002:000049dc       ??_C@_1M@OOJFGBHE@?$AAa?$AAr?$AA?9?$AAL?$AAB@ 100279dc     mfcs140:nolib.obj
 0002:000049e8       ??_C@_1M@GCEJHNEG@?$AAe?$AAn?$AA?9?$AAZ?$AAW@ 100279e8     mfcs140:nolib.obj
 0002:000049f4       ??_C@_1M@JNOCAHJI@?$AAe?$AAs?$AA?9?$AAE?$AAC@ 100279f4     mfcs140:nolib.obj
 0002:00004a00       ??_C@_1M@JEFHPGGB@?$AAa?$AAr?$AA?9?$AAK?$AAW@ 10027a00     mfcs140:nolib.obj
 0002:00004a0c       ??_C@_1M@MLKIBJOJ@?$AAe?$AAn?$AA?9?$AAP?$AAH@ 10027a0c     mfcs140:nolib.obj
 0002:00004a18       ??_C@_1M@BDNIPEND@?$AAe?$AAs?$AA?9?$AAC?$AAL@ 10027a18     mfcs140:nolib.obj
 0002:00004a24       ??_C@_1M@MPNMEKBD@?$AAa?$AAr?$AA?9?$AAA?$AAE@ 10027a24     mfcs140:nolib.obj
 0002:00004a30       ??_C@_1M@KBJALCPI@?$AAe?$AAs?$AA?9?$AAU?$AAY@ 10027a30     mfcs140:nolib.obj
 0002:00004a3c       ??_C@_1M@LLCCOAGA@?$AAa?$AAr?$AA?9?$AAB?$AAH@ 10027a3c     mfcs140:nolib.obj
 0002:00004a48       ??_C@_1M@PBFNCDEL@?$AAe?$AAs?$AA?9?$AAP?$AAY@ 10027a48     mfcs140:nolib.obj
 0002:00004a54       ??_C@_1M@EDGINPNP@?$AAa?$AAr?$AA?9?$AAQ?$AAA@ 10027a54     mfcs140:nolib.obj
 0002:00004a60       ??_C@_1M@MKDBIIJI@?$AAe?$AAs?$AA?9?$AAB?$AAO@ 10027a60     mfcs140:nolib.obj
 0002:00004a6c       ??_C@_1M@CPKKEBLD@?$AAe?$AAs?$AA?9?$AAS?$AAV@ 10027a6c     mfcs140:nolib.obj
 0002:00004a78       ??_C@_1M@NDBGMMJL@?$AAe?$AAs?$AA?9?$AAH?$AAN@ 10027a78     mfcs140:nolib.obj
 0002:00004a84       ??_C@_1M@JIJIBHDP@?$AAe?$AAs?$AA?9?$AAN?$AAI@ 10027a84     mfcs140:nolib.obj
 0002:00004a90       ??_C@_1M@CGFMKEEK@?$AAe?$AAs?$AA?9?$AAP?$AAR@ 10027a90     mfcs140:nolib.obj
 0002:00004a9c       ??_C@_1O@ICJHKIIK@?$AAz?$AAh?$AA?9?$AAC?$AAH?$AAT@ 10027a9c     mfcs140:nolib.obj
 0002:00004aac       ??_C@_15CLNEJCE@?$AAs?$AAr@ 10027aac     mfcs140:nolib.obj
 0002:00004ab8       __pAtlLocaleNameToIndexTable 10027ab8     mfcs140:nolib.obj
 0002:000051d8       ??_C@_1M@KAHEKEIG@?$AAa?$AAf?$AA?9?$AAz?$AAa@ 100281d8     mfcs140:nolib.obj
 0002:000051e4       ??_C@_1M@GIECOABL@?$AAa?$AAr?$AA?9?$AAa?$AAe@ 100281e4     mfcs140:nolib.obj
 0002:000051f0       ??_C@_1M@BMLMEKGI@?$AAa?$AAr?$AA?9?$AAb?$AAh@ 100281f0     mfcs140:nolib.obj
 0002:000051fc       ??_C@_1M@DAPFDGGB@?$AAa?$AAr?$AA?9?$AAd?$AAz@ 100281fc     mfcs140:nolib.obj
 0002:00005208       ??_C@_1M@FJNKGKIG@?$AAa?$AAr?$AA?9?$AAe?$AAg@ 10028208     mfcs140:nolib.obj
 0002:00005214       ??_C@_1M@FLGKKCLO@?$AAa?$AAr?$AA?9?$AAi?$AAq@ 10028214     mfcs140:nolib.obj
 0002:00005220       ??_C@_1M@GNDIPALM@?$AAa?$AAr?$AA?9?$AAj?$AAo@ 10028220     mfcs140:nolib.obj
 0002:0000522c       ??_C@_1M@DDMJFMGJ@?$AAa?$AAr?$AA?9?$AAk?$AAw@ 1002822c     mfcs140:nolib.obj
 0002:00005238       ??_C@_1M@EJALMLHM@?$AAa?$AAr?$AA?9?$AAl?$AAb@ 10028238     mfcs140:nolib.obj
 0002:00005244       ??_C@_1M@MOBDBLOC@?$AAa?$AAr?$AA?9?$AAl?$AAy@ 10028244     mfcs140:nolib.obj
 0002:00005250       ??_C@_1M@JAOCLHDH@?$AAa?$AAr?$AA?9?$AAm?$AAa@ 10028250     mfcs140:nolib.obj
 0002:0000525c       ??_C@_1M@JHPMKJIE@?$AAa?$AAr?$AA?9?$AAo?$AAm@ 1002825c     mfcs140:nolib.obj
 0002:00005268       ??_C@_1M@OEPGHFNH@?$AAa?$AAr?$AA?9?$AAq?$AAa@ 10028268     mfcs140:nolib.obj
 0002:00005274       ??_C@_1M@KJDONENM@?$AAa?$AAr?$AA?9?$AAs?$AAa@ 10028274     mfcs140:nolib.obj
 0002:00005280       ??_C@_1M@DMJDKLKM@?$AAa?$AAr?$AA?9?$AAs?$AAy@ 10028280     mfcs140:nolib.obj
 0002:0000528c       ??_C@_1M@OMFIPEDC@?$AAa?$AAr?$AA?9?$AAt?$AAn@ 1002828c     mfcs140:nolib.obj
 0002:00005298       ??_C@_1M@IHMHGAON@?$AAa?$AAr?$AA?9?$AAy?$AAe@ 10028298     mfcs140:nolib.obj
 0002:000052a4       ??_C@_1BG@KDCPGJGB@?$AAa?$AAz?$AA?9?$AAa?$AAz?$AA?9?$AAc?$AAy?$AAr?$AAl@ 100282a4     mfcs140:nolib.obj
 0002:000052bc       ??_C@_1BG@IBCKDDOE@?$AAa?$AAz?$AA?9?$AAa?$AAz?$AA?9?$AAl?$AAa?$AAt?$AAn@ 100282bc     mfcs140:nolib.obj
 0002:000052d4       ??_C@_1M@EGPFDCPD@?$AAb?$AAe?$AA?9?$AAb?$AAy@ 100282d4     mfcs140:nolib.obj
 0002:000052e0       ??_C@_1M@PCMGMCGC@?$AAb?$AAg?$AA?9?$AAb?$AAg@ 100282e0     mfcs140:nolib.obj
 0002:000052ec       ??_C@_1M@BJBMFGOB@?$AAb?$AAn?$AA?9?$AAi?$AAn@ 100282ec     mfcs140:nolib.obj
 0002:000052f8       ??_C@_1BG@EAKMMACD@?$AAb?$AAs?$AA?9?$AAb?$AAa?$AA?9?$AAl?$AAa?$AAt?$AAn@ 100282f8     mfcs140:nolib.obj
 0002:00005310       ??_C@_1M@KGADAODK@?$AAc?$AAa?$AA?9?$AAe?$AAs@ 10028310     mfcs140:nolib.obj
 0002:0000531c       ??_C@_1M@COAJPDHI@?$AAc?$AAs?$AA?9?$AAc?$AAz@ 1002831c     mfcs140:nolib.obj
 0002:00005328       ??_C@_1M@DHBHFONH@?$AAc?$AAy?$AA?9?$AAg?$AAb@ 10028328     mfcs140:nolib.obj
 0002:00005334       ??_C@_1M@IMGKELGA@?$AAd?$AAa?$AA?9?$AAd?$AAk@ 10028334     mfcs140:nolib.obj
 0002:00005340       ??_C@_1M@NNDGDNGA@?$AAd?$AAe?$AA?9?$AAa?$AAt@ 10028340     mfcs140:nolib.obj
 0002:0000534c       ??_C@_1M@IKDBHEEM@?$AAd?$AAe?$AA?9?$AAc?$AAh@ 1002834c     mfcs140:nolib.obj
 0002:00005358       ??_C@_1M@GFFOJMCJ@?$AAd?$AAe?$AA?9?$AAd?$AAe@ 10028358     mfcs140:nolib.obj
 0002:00005364       ??_C@_1M@MDNLKBPM@?$AAd?$AAe?$AA?9?$AAl?$AAi@ 10028364     mfcs140:nolib.obj
 0002:00005370       ??_C@_1M@NJBEEJNL@?$AAd?$AAe?$AA?9?$AAl?$AAu@ 10028370     mfcs140:nolib.obj
 0002:0000537c       ??_C@_1O@GNNELBAP@?$AAd?$AAi?$AAv?$AA?9?$AAm?$AAv@ 1002837c     mfcs140:nolib.obj
 0002:0000538c       ??_C@_1M@EJLEOGAE@?$AAe?$AAl?$AA?9?$AAg?$AAr@ 1002838c     mfcs140:nolib.obj
 0002:00005398       ??_C@_1M@GMPONJN@?$AAe?$AAn?$AA?9?$AAa?$AAu@ 10028398     mfcs140:nolib.obj
 0002:000053a4       ??_C@_1M@NIDIIPGF@?$AAe?$AAn?$AA?9?$AAb?$AAz@ 100283a4     mfcs140:nolib.obj
 0002:000053b0       ??_C@_1M@JEHMIMFO@?$AAe?$AAn?$AA?9?$AAc?$AAa@ 100283b0     mfcs140:nolib.obj
 0002:000053bc       ??_C@_1M@IGMJCDLA@?$AAe?$AAn?$AA?9?$AAc?$AAb@ 100283bc     mfcs140:nolib.obj
 0002:000053c8       ??_C@_1M@BNFIGBKG@?$AAe?$AAn?$AA?9?$AAg?$AAb@ 100283c8     mfcs140:nolib.obj
 0002:000053d4       ??_C@_1M@LKIFDIGP@?$AAe?$AAn?$AA?9?$AAi?$AAe@ 100283d4     mfcs140:nolib.obj
 0002:000053e0       ??_C@_1M@PJKFGCCO@?$AAe?$AAn?$AA?9?$AAj?$AAm@ 100283e0     mfcs140:nolib.obj
 0002:000053ec       ??_C@_1M@KPPKEPBO@?$AAe?$AAn?$AA?9?$AAn?$AAz@ 100283ec     mfcs140:nolib.obj
 0002:000053f8       ??_C@_1M@GMDGLDOB@?$AAe?$AAn?$AA?9?$AAp?$AAh@ 100283f8     mfcs140:nolib.obj
 0002:00005404       ??_C@_1M@ONGIBJNA@?$AAe?$AAn?$AA?9?$AAt?$AAt@ 10028404     mfcs140:nolib.obj
 0002:00005410       ??_C@_1M@LLODPCMM@?$AAe?$AAn?$AA?9?$AAu?$AAs@ 10028410     mfcs140:nolib.obj
 0002:0000541c       ??_C@_1M@LAKFNPAN@?$AAe?$AAn?$AA?9?$AAz?$AAa@ 1002841c     mfcs140:nolib.obj
 0002:00005428       ??_C@_1M@MFNHNHEO@?$AAe?$AAn?$AA?9?$AAz?$AAw@ 10028428     mfcs140:nolib.obj
 0002:00005434       ??_C@_1M@EJEINPHM@?$AAe?$AAs?$AA?9?$AAa?$AAr@ 10028434     mfcs140:nolib.obj
 0002:00005440       ??_C@_1M@GNKPCCJA@?$AAe?$AAs?$AA?9?$AAb?$AAo@ 10028440     mfcs140:nolib.obj
 0002:0000544c       ??_C@_1M@LEEGFONL@?$AAe?$AAs?$AA?9?$AAc?$AAl@ 1002844c     mfcs140:nolib.obj
 0002:00005458       ??_C@_1M@KGPDPBDF@?$AAe?$AAs?$AA?9?$AAc?$AAo@ 10028458     mfcs140:nolib.obj
 0002:00005464       ??_C@_1M@EIAHOHH@?$AAe?$AAs?$AA?9?$AAc?$AAr@ 10028464     mfcs140:nolib.obj
 0002:00005470       ??_C@_1M@LLPGMBIN@?$AAe?$AAs?$AA?9?$AAd?$AAo@ 10028470     mfcs140:nolib.obj
 0002:0000547c       ??_C@_1M@DKHMKNJA@?$AAe?$AAs?$AA?9?$AAe?$AAc@ 1002847c     mfcs140:nolib.obj
 0002:00005488       ??_C@_1M@GKGFPKAP@?$AAe?$AAs?$AA?9?$AAe?$AAs@ 10028488     mfcs140:nolib.obj
 0002:00005494       ??_C@_1M@LKHKGDLN@?$AAe?$AAs?$AA?9?$AAg?$AAt@ 10028494     mfcs140:nolib.obj
 0002:000054a0       ??_C@_1M@HEIIGGJD@?$AAe?$AAs?$AA?9?$AAh?$AAn@ 100284a0     mfcs140:nolib.obj
 0002:000054ac       ??_C@_1M@FBDHPPGD@?$AAe?$AAs?$AA?9?$AAm?$AAx@ 100284ac     mfcs140:nolib.obj
 0002:000054b8       ??_C@_1M@DPAGLNDH@?$AAe?$AAs?$AA?9?$AAn?$AAi@ 100284b8     mfcs140:nolib.obj
 0002:000054c4       ??_C@_1M@MDGOPGDD@?$AAe?$AAs?$AA?9?$AAp?$AAa@ 100284c4     mfcs140:nolib.obj
 0002:000054d0       ??_C@_1M@EMAMGBGE@?$AAe?$AAs?$AA?9?$AAp?$AAe@ 100284d0     mfcs140:nolib.obj
 0002:000054dc       ??_C@_1M@IBMCAOEC@?$AAe?$AAs?$AA?9?$AAp?$AAr@ 100284dc     mfcs140:nolib.obj
 0002:000054e8       ??_C@_1M@FGMDIJED@?$AAe?$AAs?$AA?9?$AAp?$AAy@ 100284e8     mfcs140:nolib.obj
 0002:000054f4       ??_C@_1M@IIDEOLLL@?$AAe?$AAs?$AA?9?$AAs?$AAv@ 100284f4     mfcs140:nolib.obj
 0002:00005500       ??_C@_1M@GAOBIPA@?$AAe?$AAs?$AA?9?$AAu?$AAy@ 10028500     mfcs140:nolib.obj
 0002:0000550c       ??_C@_1M@JKFFICHJ@?$AAe?$AAs?$AA?9?$AAv?$AAe@ 1002850c     mfcs140:nolib.obj
 0002:00005518       ??_C@_1M@PNMLOJDF@?$AAe?$AAt?$AA?9?$AAe?$AAe@ 10028518     mfcs140:nolib.obj
 0002:00005524       ??_C@_1M@GHHLIKEI@?$AAe?$AAu?$AA?9?$AAe?$AAs@ 10028524     mfcs140:nolib.obj
 0002:00005530       ??_C@_1M@PBNONODE@?$AAf?$AAa?$AA?9?$AAi?$AAr@ 10028530     mfcs140:nolib.obj
 0002:0000553c       ??_C@_1M@JEEHPMIL@?$AAf?$AAi?$AA?9?$AAf?$AAi@ 1002853c     mfcs140:nolib.obj
 0002:00005548       ??_C@_1M@LMDCNDBA@?$AAf?$AAo?$AA?9?$AAf?$AAo@ 10028548     mfcs140:nolib.obj
 0002:00005554       ??_C@_1M@JKEOHLDK@?$AAf?$AAr?$AA?9?$AAb?$AAe@ 10028554     mfcs140:nolib.obj
 0002:00005560       ??_C@_1M@NOHADPMI@?$AAf?$AAr?$AA?9?$AAc?$AAa@ 10028560     mfcs140:nolib.obj
 0002:0000556c       ??_C@_1M@KDHIHAEC@?$AAf?$AAr?$AA?9?$AAc?$AAh@ 1002856c     mfcs140:nolib.obj
 0002:00005578       ??_C@_1M@MMBBFGAK@?$AAf?$AAr?$AA?9?$AAf?$AAr@ 10028578     mfcs140:nolib.obj
 0002:00005584       ??_C@_1M@PAFNENNF@?$AAf?$AAr?$AA?9?$AAl?$AAu@ 10028584     mfcs140:nolib.obj
 0002:00005590       ??_C@_1M@EOHDJGDD@?$AAf?$AAr?$AA?9?$AAm?$AAc@ 10028590     mfcs140:nolib.obj
 0002:0000559c       ??_C@_1M@FAPLLOPF@?$AAg?$AAl?$AA?9?$AAe?$AAs@ 1002859c     mfcs140:nolib.obj
 0002:000055a8       ??_C@_1M@FOPBFLOO@?$AAg?$AAu?$AA?9?$AAi?$AAn@ 100285a8     mfcs140:nolib.obj
 0002:000055b4       ??_C@_1M@KBMCINPM@?$AAh?$AAe?$AA?9?$AAi?$AAl@ 100285b4     mfcs140:nolib.obj
 0002:000055c0       ??_C@_1M@BBPHKFPJ@?$AAh?$AAi?$AA?9?$AAi?$AAn@ 100285c0     mfcs140:nolib.obj
 0002:000055cc       ??_C@_1M@PMBNDPHD@?$AAh?$AAr?$AA?9?$AAb?$AAa@ 100285cc     mfcs140:nolib.obj
 0002:000055d8       ??_C@_1M@BPCKOEGE@?$AAh?$AAr?$AA?9?$AAh?$AAr@ 100285d8     mfcs140:nolib.obj
 0002:000055e4       ??_C@_1M@GACBMHKE@?$AAh?$AAu?$AA?9?$AAh?$AAu@ 100285e4     mfcs140:nolib.obj
 0002:000055f0       ??_C@_1M@MILPAJJC@?$AAh?$AAy?$AA?9?$AAa?$AAm@ 100285f0     mfcs140:nolib.obj
 0002:000055fc       ??_C@_1M@BABBICEC@?$AAi?$AAd?$AA?9?$AAi?$AAd@ 100285fc     mfcs140:nolib.obj
 0002:00005608       ??_C@_1M@BIKNHHPF@?$AAi?$AAs?$AA?9?$AAi?$AAs@ 10028608     mfcs140:nolib.obj
 0002:00005614       ??_C@_1M@NMPCJPHE@?$AAi?$AAt?$AA?9?$AAc?$AAh@ 10028614     mfcs140:nolib.obj
 0002:00005620       ??_C@_1M@GHKGFEDF@?$AAi?$AAt?$AA?9?$AAi?$AAt@ 10028620     mfcs140:nolib.obj
 0002:0000562c       ??_C@_1M@NIEJCJJA@?$AAj?$AAa?$AA?9?$AAj?$AAp@ 1002862c     mfcs140:nolib.obj
 0002:00005638       ??_C@_1M@JILFNBIM@?$AAk?$AAa?$AA?9?$AAg?$AAe@ 10028638     mfcs140:nolib.obj
 0002:00005644       ??_C@_1M@PACPMGPH@?$AAk?$AAk?$AA?9?$AAk?$AAz@ 10028644     mfcs140:nolib.obj
 0002:00005650       ??_C@_1M@IELFGMHA@?$AAk?$AAn?$AA?9?$AAi?$AAn@ 10028650     mfcs140:nolib.obj
 0002:0000565c       ??_C@_1O@IBBJHCH@?$AAk?$AAo?$AAk?$AA?9?$AAi?$AAn@ 1002865c     mfcs140:nolib.obj
 0002:0000566c       ??_C@_1M@DMHAEOGC@?$AAk?$AAo?$AA?9?$AAk?$AAr@ 1002866c     mfcs140:nolib.obj
 0002:00005678       ??_C@_1M@HBAHBIGA@?$AAk?$AAy?$AA?9?$AAk?$AAg@ 10028678     mfcs140:nolib.obj
 0002:00005684       ??_C@_1M@KPMILCJG@?$AAl?$AAt?$AA?9?$AAl?$AAt@ 10028684     mfcs140:nolib.obj
 0002:00005690       ??_C@_1M@BDEKKCA@?$AAl?$AAv?$AA?9?$AAl?$AAv@ 10028690     mfcs140:nolib.obj
 0002:0000569c       ??_C@_1M@ELCKCCJJ@?$AAm?$AAi?$AA?9?$AAn?$AAz@ 1002869c     mfcs140:nolib.obj
 0002:000056a8       ??_C@_1M@CBOOLAPA@?$AAm?$AAk?$AA?9?$AAm?$AAk@ 100286a8     mfcs140:nolib.obj
 0002:000056b4       ??_C@_1M@GPHNBJKN@?$AAm?$AAl?$AA?9?$AAi?$AAn@ 100286b4     mfcs140:nolib.obj
 0002:000056c0       ??_C@_1M@PABJILIG@?$AAm?$AAn?$AA?9?$AAm?$AAn@ 100286c0     mfcs140:nolib.obj
 0002:000056cc       ??_C@_1M@FGBKKIPG@?$AAm?$AAr?$AA?9?$AAi?$AAn@ 100286cc     mfcs140:nolib.obj
 0002:000056d8       ??_C@_1M@NDBPDDAL@?$AAm?$AAs?$AA?9?$AAb?$AAn@ 100286d8     mfcs140:nolib.obj
 0002:000056e4       ??_C@_1M@OPIHOOPI@?$AAm?$AAs?$AA?9?$AAm?$AAy@ 100286e4     mfcs140:nolib.obj
 0002:000056f0       ??_C@_1M@PPDBCNFM@?$AAm?$AAt?$AA?9?$AAm?$AAt@ 100286f0     mfcs140:nolib.obj
 0002:000056fc       ??_C@_1M@KDJDKMDD@?$AAn?$AAb?$AA?9?$AAn?$AAo@ 100286fc     mfcs140:nolib.obj
 0002:00005708       ??_C@_1M@KFCFLMJP@?$AAn?$AAl?$AA?9?$AAb?$AAe@ 10028708     mfcs140:nolib.obj
 0002:00005714       ??_C@_1M@KPOPDDGO@?$AAn?$AAl?$AA?9?$AAn?$AAl@ 10028714     mfcs140:nolib.obj
 0002:00005720       ??_C@_1M@LJKPEMLN@?$AAn?$AAn?$AA?9?$AAn?$AAo@ 10028720     mfcs140:nolib.obj
 0002:0000572c       ??_C@_1M@BDGHHBFL@?$AAn?$AAs?$AA?9?$AAz?$AAa@ 1002872c     mfcs140:nolib.obj
 0002:00005738       ??_C@_1M@IDEHOAP@?$AAp?$AAa?$AA?9?$AAi?$AAn@ 10028738     mfcs140:nolib.obj
 0002:00005744       ??_C@_1M@HDBKGOGH@?$AAp?$AAl?$AA?9?$AAp?$AAl@ 10028744     mfcs140:nolib.obj
 0002:00005750       ??_C@_1M@LJLLCMEH@?$AAp?$AAt?$AA?9?$AAb?$AAr@ 10028750     mfcs140:nolib.obj
 0002:0000575c       ??_C@_1M@NCMONAAL@?$AAp?$AAt?$AA?9?$AAp?$AAt@ 1002875c     mfcs140:nolib.obj
 0002:00005768       ??_C@_1O@EAKMAJDN@?$AAq?$AAu?$AAz?$AA?9?$AAb?$AAo@ 10028768     mfcs140:nolib.obj
 0002:00005778       ??_C@_1O@BHHPIGDN@?$AAq?$AAu?$AAz?$AA?9?$AAe?$AAc@ 10028778     mfcs140:nolib.obj
 0002:00005788       ??_C@_1O@GBAPEKMJ@?$AAq?$AAu?$AAz?$AA?9?$AAp?$AAe@ 10028788     mfcs140:nolib.obj
 0002:00005798       ??_C@_1M@CLGLEFBO@?$AAr?$AAo?$AA?9?$AAr?$AAo@ 10028798     mfcs140:nolib.obj
 0002:000057a4       ??_C@_1M@CEEDODME@?$AAr?$AAu?$AA?9?$AAr?$AAu@ 100287a4     mfcs140:nolib.obj
 0002:000057b0       ??_C@_1M@HPKKKMPP@?$AAs?$AAa?$AA?9?$AAi?$AAn@ 100287b0     mfcs140:nolib.obj
 0002:000057bc       ??_C@_1M@BKMAIGOJ@?$AAs?$AAe?$AA?9?$AAf?$AAi@ 100287bc     mfcs140:nolib.obj
 0002:000057c8       ??_C@_1M@NDPIFLFI@?$AAs?$AAe?$AA?9?$AAn?$AAo@ 100287c8     mfcs140:nolib.obj
 0002:000057d4       ??_C@_1M@DANKKHJ@?$AAs?$AAe?$AA?9?$AAs?$AAe@ 100287d4     mfcs140:nolib.obj
 0002:000057e0       ??_C@_1M@PNBLONPJ@?$AAs?$AAk?$AA?9?$AAs?$AAk@ 100287e0     mfcs140:nolib.obj
 0002:000057ec       ??_C@_1M@LFMODOAL@?$AAs?$AAl?$AA?9?$AAs?$AAi@ 100287ec     mfcs140:nolib.obj
 0002:000057f8       ??_C@_1O@DFKOMPG@?$AAs?$AAm?$AAa?$AA?9?$AAn?$AAo@ 100287f8     mfcs140:nolib.obj
 0002:00005808       ??_C@_1O@NDKPBNNH@?$AAs?$AAm?$AAa?$AA?9?$AAs?$AAe@ 10028808     mfcs140:nolib.obj
 0002:00005818       ??_C@_1O@PLLKBHAB@?$AAs?$AAm?$AAj?$AA?9?$AAn?$AAo@ 10028818     mfcs140:nolib.obj
 0002:00005828       ??_C@_1O@CLEPOGCA@?$AAs?$AAm?$AAj?$AA?9?$AAs?$AAe@ 10028828     mfcs140:nolib.obj
 0002:00005838       ??_C@_1O@DLGJGKMK@?$AAs?$AAm?$AAn?$AA?9?$AAf?$AAi@ 10028838     mfcs140:nolib.obj
 0002:00005848       ??_C@_1O@OJDJGAJC@?$AAs?$AAm?$AAs?$AA?9?$AAf?$AAi@ 10028848     mfcs140:nolib.obj
 0002:00005858       ??_C@_1M@BOFOGHPB@?$AAs?$AAq?$AA?9?$AAa?$AAl@ 10028858     mfcs140:nolib.obj
 0002:00005864       ??_C@_1BG@LJBBIPGB@?$AAs?$AAr?$AA?9?$AAb?$AAa?$AA?9?$AAc?$AAy?$AAr?$AAl@ 10028864     mfcs140:nolib.obj
 0002:0000587c       ??_C@_1BG@JLBENFOE@?$AAs?$AAr?$AA?9?$AAb?$AAa?$AA?9?$AAl?$AAa?$AAt?$AAn@ 1002887c     mfcs140:nolib.obj
 0002:00005894       ??_C@_1BG@KODPNHE@?$AAs?$AAr?$AA?9?$AAs?$AAp?$AA?9?$AAc?$AAy?$AAr?$AAl@ 10028894     mfcs140:nolib.obj
 0002:000058ac       ??_C@_1BG@CIOGKHPB@?$AAs?$AAr?$AA?9?$AAs?$AAp?$AA?9?$AAl?$AAa?$AAt?$AAn@ 100288ac     mfcs140:nolib.obj
 0002:000058c4       ??_C@_1M@NGFJLMAC@?$AAs?$AAv?$AA?9?$AAf?$AAi@ 100288c4     mfcs140:nolib.obj
 0002:000058d0       ??_C@_1M@MPJEJAJC@?$AAs?$AAv?$AA?9?$AAs?$AAe@ 100288d0     mfcs140:nolib.obj
 0002:000058dc       ??_C@_1M@MPNDHLFK@?$AAs?$AAw?$AA?9?$AAk?$AAe@ 100288dc     mfcs140:nolib.obj
 0002:000058e8       ??_C@_1O@KOHBJJI@?$AAs?$AAy?$AAr?$AA?9?$AAs?$AAy@ 100288e8     mfcs140:nolib.obj
 0002:000058f8       ??_C@_1M@LDCEFHA@?$AAt?$AAa?$AA?9?$AAi?$AAn@ 100288f8     mfcs140:nolib.obj
 0002:00005904       ??_C@_1M@CNJOFAK@?$AAt?$AAe?$AA?9?$AAi?$AAn@ 10028904     mfcs140:nolib.obj
 0002:00005910       ??_C@_1M@GNAECACD@?$AAt?$AAh?$AA?9?$AAt?$AAh@ 10028910     mfcs140:nolib.obj
 0002:0000591c       ??_C@_1M@CHBIHOJO@?$AAt?$AAn?$AA?9?$AAz?$AAa@ 1002891c     mfcs140:nolib.obj
 0002:00005928       ??_C@_1M@GCCMIGPJ@?$AAt?$AAr?$AA?9?$AAt?$AAr@ 10028928     mfcs140:nolib.obj
 0002:00005934       ??_C@_1M@CELMCNBK@?$AAt?$AAt?$AA?9?$AAr?$AAu@ 10028934     mfcs140:nolib.obj
 0002:00005940       ??_C@_1M@KLMCELGA@?$AAu?$AAk?$AA?9?$AAu?$AAa@ 10028940     mfcs140:nolib.obj
 0002:0000594c       ??_C@_1M@EPAJJAJF@?$AAu?$AAr?$AA?9?$AAp?$AAk@ 1002894c     mfcs140:nolib.obj
 0002:00005958       ??_C@_1BG@GEGPMCDJ@?$AAu?$AAz?$AA?9?$AAu?$AAz?$AA?9?$AAc?$AAy?$AAr?$AAl@ 10028958     mfcs140:nolib.obj
 0002:00005970       ??_C@_1BG@EGGKJILM@?$AAu?$AAz?$AA?9?$AAu?$AAz?$AA?9?$AAl?$AAa?$AAt?$AAn@ 10028970     mfcs140:nolib.obj
 0002:00005988       ??_C@_1M@GFOCLFF@?$AAv?$AAi?$AA?9?$AAv?$AAn@ 10028988     mfcs140:nolib.obj
 0002:00005994       ??_C@_1M@CPAMEDFI@?$AAx?$AAh?$AA?9?$AAz?$AAa@ 10028994     mfcs140:nolib.obj
 0002:000059a0       ??_C@_1O@EBKIFIGN@?$AAz?$AAh?$AA?9?$AAc?$AAh?$AAs@ 100289a0     mfcs140:nolib.obj
 0002:000059b0       ??_C@_1O@NMHPGANE@?$AAz?$AAh?$AA?9?$AAc?$AAh?$AAt@ 100289b0     mfcs140:nolib.obj
 0002:000059c0       ??_C@_1M@LPINJOMC@?$AAz?$AAh?$AA?9?$AAc?$AAn@ 100289c0     mfcs140:nolib.obj
 0002:000059cc       ??_C@_1M@OCJEJODD@?$AAz?$AAh?$AA?9?$AAh?$AAk@ 100289cc     mfcs140:nolib.obj
 0002:000059d8       ??_C@_1M@DNDLJINH@?$AAz?$AAh?$AA?9?$AAm?$AAo@ 100289d8     mfcs140:nolib.obj
 0002:000059e4       ??_C@_1M@MBFDNDND@?$AAz?$AAh?$AA?9?$AAs?$AAg@ 100289e4     mfcs140:nolib.obj
 0002:000059f0       ??_C@_1M@IMEPLEPE@?$AAz?$AAh?$AA?9?$AAt?$AAw@ 100289f0     mfcs140:nolib.obj
 0002:000059fc       ??_C@_1M@BBGHNHJP@?$AAz?$AAu?$AA?9?$AAz?$AAa@ 100289fc     mfcs140:nolib.obj
 0002:00005a08       ??_C@_0O@JKAFBCMB@CreateActCtxW@ 10028a08     mfcs140:nolib.obj
 0002:00005a18       ??_C@_0P@CECBPMJL@ActivateActCtx@ 10028a18     mfcs140:nolib.obj
 0002:00005a28       ??_C@_0BB@NPIOCCPF@DeactivateActCtx@ 10028a28     mfcs140:nolib.obj
 0002:00005a3c       ??_C@_0BJ@MGNMALIC@FindActCtxSectionStringW@ 10028a3c     mfcs140:nolib.obj
 0002:00005a58       ??_C@_0N@IMINIHMJ@QueryActCtxW@ 10028a58     mfcs140:nolib.obj
 0002:00005a68       ??_C@_0BD@GIGEJCNH@GetModuleHandleExW@ 10028a68     mfcs140:nolib.obj
 0002:00005a7c       ??_C@_1BK@BFMCNHEO@?$AAC?$AAo?$AAm?$AAc?$AAt?$AAl?$AA3?$AA2?$AA?4?$AAd?$AAl?$AAl@ 10028a7c     mfcs140:nolib.obj
 0002:00005a98       ?debugString@?4??IsolationAwarePrivatenPgViNgRzlnPgpgk@@9@4@4QBDB 10028a98     mfcs140:nolib.obj
 0002:00005ad4       ?c@?1??WinbaseIsolationAwarePrivatetRgCebPnQQeRff_xReaRYQP_QYY@@9@4@4UIsolationAwarePrivate_pBAFGnAG_zBqHyr_vAsB@@B 10028ad4     mfcs140:nolib.obj
 0002:00005ae4       ??_C@_1BK@EJBALEBG@?$AAK?$AAe?$AAr?$AAn?$AAe?$AAl?$AA3?$AA2?$AA?4?$AAd?$AAl?$AAl@ 10028ae4     mfcs140:nolib.obj
 0002:00005b00       ??_C@_0N@HAOHNMDE@Kernel32?4dll@ 10028b00     mfcs140:nolib.obj
 0002:00005b10       __pActualRawDllMain        10028b10     mfcs140:dllmodul.obj
 0002:00005b18       ??_7_AFX_DLL_MODULE_STATE@@6B@ 10028b18     mfcs140:dllmodul.obj
 0002:00005b20       ??_7type_info@@6B@         10028b20     msvcrt:std_type_info_static.obj
 0002:00005b28       ??_C@_1EC@JIJBPKFM@?$AAa?$AAp?$AAi?$AA?9?$AAm?$AAs?$AA?9?$AAw?$AAi?$AAn?$AA?9?$AAc?$AAo?$AAr?$AAe@ 10028b28     msvcrt:thread_safe_statics.obj
 0002:00005b6c       ??_C@_1BK@MGMFAEKH@?$AAk?$AAe?$AAr?$AAn?$AAe?$AAl?$AA3?$AA2?$AA?4?$AAd?$AAl?$AAl@ 10028b6c     msvcrt:thread_safe_statics.obj
 0002:00005b88       ??_C@_0BJ@JEBJOJFJ@SleepConditionVariableCS@ 10028b88     msvcrt:thread_safe_statics.obj
 0002:00005ba4       ??_C@_0BJ@PGPPEPCC@WakeAllConditionVariable@ 10028ba4     msvcrt:thread_safe_statics.obj
 0002:00005bc8       __pDefaultRawDllMain       10028bc8     msvcrt:dll_dllmain.obj
 0002:00005bcc       _GUID_NULL                 10028bcc     uuid:cguid_i.obj
 0002:00005bdc       _CATID_MARSHALER           10028bdc     uuid:cguid_i.obj
 0002:00005bec       _IID_IRpcChannel           10028bec     uuid:cguid_i.obj
 0002:00005bfc       _IID_IRpcStub              10028bfc     uuid:cguid_i.obj
 0002:00005c0c       _IID_IStubManager          10028c0c     uuid:cguid_i.obj
 0002:00005c1c       _IID_IRpcProxy             10028c1c     uuid:cguid_i.obj
 0002:00005c2c       _IID_IProxyManager         10028c2c     uuid:cguid_i.obj
 0002:00005c3c       _IID_IPSFactory            10028c3c     uuid:cguid_i.obj
 0002:00005c4c       _IID_IInternalMoniker      10028c4c     uuid:cguid_i.obj
 0002:00005c5c       _IID_IDfReserved1          10028c5c     uuid:cguid_i.obj
 0002:00005c6c       _IID_IDfReserved2          10028c6c     uuid:cguid_i.obj
 0002:00005c7c       _IID_IDfReserved3          10028c7c     uuid:cguid_i.obj
 0002:00005c8c       _CLSID_StdMarshal          10028c8c     uuid:cguid_i.obj
 0002:00005c9c       _IID_IStub                 10028c9c     uuid:cguid_i.obj
 0002:00005cac       _IID_IProxy                10028cac     uuid:cguid_i.obj
 0002:00005cbc       _IID_IEnumGeneric          10028cbc     uuid:cguid_i.obj
 0002:00005ccc       _IID_IEnumHolder           10028ccc     uuid:cguid_i.obj
 0002:00005cdc       _IID_IEnumCallback         10028cdc     uuid:cguid_i.obj
 0002:00005cec       _IID_IOleManager           10028cec     uuid:cguid_i.obj
 0002:00005cfc       _IID_IOlePresObj           10028cfc     uuid:cguid_i.obj
 0002:00005d0c       _IID_IDebug                10028d0c     uuid:cguid_i.obj
 0002:00005d1c       _IID_IDebugStream          10028d1c     uuid:cguid_i.obj
 0002:00005d2c       _CLSID_PSGenObject         10028d2c     uuid:cguid_i.obj
 0002:00005d3c       _CLSID_PSClientSite        10028d3c     uuid:cguid_i.obj
 0002:00005d4c       _CLSID_PSClassObject       10028d4c     uuid:cguid_i.obj
 0002:00005d5c       _CLSID_PSInPlaceActive     10028d5c     uuid:cguid_i.obj
 0002:00005d6c       _CLSID_PSInPlaceFrame      10028d6c     uuid:cguid_i.obj
 0002:00005d7c       _CLSID_PSDragDrop          10028d7c     uuid:cguid_i.obj
 0002:00005d8c       _CLSID_PSBindCtx           10028d8c     uuid:cguid_i.obj
 0002:00005d9c       _CLSID_PSEnumerators       10028d9c     uuid:cguid_i.obj
 0002:00005dac       _CLSID_StaticMetafile      10028dac     uuid:cguid_i.obj
 0002:00005dbc       _CLSID_StaticDib           10028dbc     uuid:cguid_i.obj
 0002:00005dcc       _CLSID_Picture_Metafile    10028dcc     uuid:cguid_i.obj
 0002:00005ddc       _CLSID_Picture_EnhMetafile 10028ddc     uuid:cguid_i.obj
 0002:00005dec       _CLSID_Picture_Dib         10028dec     uuid:cguid_i.obj
 0002:00005dfc       _CLSID_DCOMAccessControl   10028dfc     uuid:cguid_i.obj
 0002:00005e0c       _CLSID_StdGlobalInterfaceTable 10028e0c     uuid:cguid_i.obj
 0002:00005e1c       _CLSID_ManualResetEvent    10028e1c     uuid:cguid_i.obj
 0002:00005e2c       _CLSID_StdEvent            10028e2c     uuid:cguid_i.obj
 0002:00005e3c       _CLSID_SynchronizeContainer 10028e3c     uuid:cguid_i.obj
 0002:00005e4c       _CLSID_ComBinding          10028e4c     uuid:cguid_i.obj
 0002:00005e5c       _CLSID_StdAsyncActManager  10028e5c     uuid:cguid_i.obj
 0002:00005e6c       _CLSID_InProcFreeMarshaler 10028e6c     uuid:cguid_i.obj
 0002:00005e7c       _CLSID_RemoteUnknownPSFactory 10028e7c     uuid:cguid_i.obj
 0002:00005e8c       _IID_IRichEditOle          10028e8c     uuid:cguid_i.obj
 0002:00005e9c       _IID_IRichEditOleCallback  10028e9c     uuid:cguid_i.obj
 0002:00005eac       _CLSID_AllClasses          10028eac     uuid:cguid_i.obj
 0002:00005ebc       _CLSID_LocalMachineClasses 10028ebc     uuid:cguid_i.obj
 0002:00005ecc       _CLSID_CurrentUserClasses  10028ecc     uuid:cguid_i.obj
 0002:00005edc       _CLSID_AddrControl         10028edc     uuid:cguid_i.obj
 0002:00005eec       _CLSID_GlobalOptions       10028eec     uuid:cguid_i.obj
 0002:00005efc       _CLSID_SurrogateManager    10028efc     uuid:cguid_i.obj
 0002:00005f0c       _CLSID_ContextSwitcher     10028f0c     uuid:cguid_i.obj
 0002:00005f1c       _CLSID_ActivationStore     10028f1c     uuid:cguid_i.obj
 0002:00005f2c       _CLSID_MachineGlobalObjectTable 10028f2c     uuid:cguid_i.obj
 0002:00005f3c       _IID_IPropertyFrame        10028f3c     uuid:cguid_i.obj
 0002:00005f4c       _CLSID_CFontPropPage       10028f4c     uuid:cguid_i.obj
 0002:00005f5c       _CLSID_CColorPropPage      10028f5c     uuid:cguid_i.obj
 0002:00005f6c       _CLSID_CPicturePropPage    10028f6c     uuid:cguid_i.obj
 0002:00005f7c       _CLSID_StockFontPage       10028f7c     uuid:cguid_i.obj
 0002:00005f8c       _CLSID_StockColorPage      10028f8c     uuid:cguid_i.obj
 0002:00005f9c       _CLSID_StockPicturePage    10028f9c     uuid:cguid_i.obj
 0002:00005fac       _CLSID_PersistPropset      10028fac     uuid:cguid_i.obj
 0002:00005fbc       _CLSID_ConvertVBX          10028fbc     uuid:cguid_i.obj
 0002:00005fcc       _CLSID_StdFont             10028fcc     uuid:cguid_i.obj
 0002:00005fdc       _CLSID_StdPicture          10028fdc     uuid:cguid_i.obj
 0002:00005fec       _GUID_HIMETRIC             10028fec     uuid:cguid_i.obj
 0002:00005ffc       _GUID_COLOR                10028ffc     uuid:cguid_i.obj
 0002:0000600c       _GUID_XPOSPIXEL            1002900c     uuid:cguid_i.obj
 0002:0000601c       _GUID_YPOSPIXEL            1002901c     uuid:cguid_i.obj
 0002:0000602c       _GUID_XSIZEPIXEL           1002902c     uuid:cguid_i.obj
 0002:0000603c       _GUID_YSIZEPIXEL           1002903c     uuid:cguid_i.obj
 0002:0000604c       _GUID_XPOS                 1002904c     uuid:cguid_i.obj
 0002:0000605c       _GUID_YPOS                 1002905c     uuid:cguid_i.obj
 0002:0000606c       _GUID_XSIZE                1002906c     uuid:cguid_i.obj
 0002:0000607c       _GUID_YSIZE                1002907c     uuid:cguid_i.obj
 0002:0000608c       _GUID_TRISTATE             1002908c     uuid:cguid_i.obj
 0002:0000609c       _GUID_OPTIONVALUEEXCLUSIVE 1002909c     uuid:cguid_i.obj
 0002:000060ac       _GUID_CHECKVALUEEXCLUSIVE  100290ac     uuid:cguid_i.obj
 0002:000060bc       _GUID_FONTNAME             100290bc     uuid:cguid_i.obj
 0002:000060cc       _GUID_FONTSIZE             100290cc     uuid:cguid_i.obj
 0002:000060dc       _GUID_FONTBOLD             100290dc     uuid:cguid_i.obj
 0002:000060ec       _GUID_FONTITALIC           100290ec     uuid:cguid_i.obj
 0002:000060fc       _GUID_FONTUNDERSCORE       100290fc     uuid:cguid_i.obj
 0002:0000610c       _GUID_FONTSTRIKETHROUGH    1002910c     uuid:cguid_i.obj
 0002:0000611c       _GUID_HANDLE               1002911c     uuid:cguid_i.obj
 0002:0000612c       _IID_StdOle                1002912c     uuid:cguid_i.obj
 0002:0000613c       _IID_ICursor               1002913c     uuid:cguid_i.obj
 0002:0000614c       _IID_ICursorMove           1002914c     uuid:cguid_i.obj
 0002:0000615c       _IID_ICursorScroll         1002915c     uuid:cguid_i.obj
 0002:0000616c       _IID_ICursorUpdateARow     1002916c     uuid:cguid_i.obj
 0002:0000617c       _IID_INotifyDBEvents       1002917c     uuid:cguid_i.obj
 0002:0000618c       _IID_ICursorFind           1002918c     uuid:cguid_i.obj
 0002:0000619c       _IID_IEntryID              1002919c     uuid:cguid_i.obj
 0002:000061ac       __GUID_NAMEONLY            100291ac     uuid:cguid_i.obj
 0002:000061bc       __DBBMKGUID                100291bc     uuid:cguid_i.obj
 0002:000061cc       __DBCIDGUID                100291cc     uuid:cguid_i.obj
 0002:000061dc       _IID_IBoundObject          100291dc     uuid:cguid_i.obj
 0002:000061ec       _IID_IBoundObjectSite      100291ec     uuid:cguid_i.obj
 0002:000061fc       _CLSID_GblComponentCategoriesMgr 100291fc     uuid:cguid_i.obj
 0002:0000620c       _CLSID_ThumbnailFCNHandler 1002920c     uuid:cguid_i.obj
 0002:0000621c       _CLSID_ThumbnailUpdater    1002921c     uuid:cguid_i.obj
 0002:0000622c       _IID_ICallbackWithNoReentrancyToApplicationSTA 1002922c     uuid:cguid_i.obj
 0002:0000623c       _CLSID_TypeLibRegistrationReader 1002923c     uuid:cguid_i.obj
 0002:0000624c       _GUID_DEVCLASS_1394        1002924c     uuid:cguid_i.obj
 0002:0000625c       _GUID_DEVCLASS_1394DEBUG   1002925c     uuid:cguid_i.obj
 0002:0000626c       _GUID_DEVCLASS_61883       1002926c     uuid:cguid_i.obj
 0002:0000627c       _GUID_DEVCLASS_ADAPTER     1002927c     uuid:cguid_i.obj
 0002:0000628c       _GUID_DEVCLASS_APMSUPPORT  1002928c     uuid:cguid_i.obj
 0002:0000629c       _GUID_DEVCLASS_AVC         1002929c     uuid:cguid_i.obj
 0002:000062ac       _GUID_DEVCLASS_BATTERY     100292ac     uuid:cguid_i.obj
 0002:000062bc       _GUID_DEVCLASS_BIOMETRIC   100292bc     uuid:cguid_i.obj
 0002:000062cc       _GUID_DEVCLASS_BLUETOOTH   100292cc     uuid:cguid_i.obj
 0002:000062dc       _GUID_DEVCLASS_CAMERA      100292dc     uuid:cguid_i.obj
 0002:000062ec       _GUID_DEVCLASS_CDROM       100292ec     uuid:cguid_i.obj
 0002:000062fc       _GUID_DEVCLASS_COMPUTEACCELERATOR 100292fc     uuid:cguid_i.obj
 0002:0000630c       _GUID_DEVCLASS_COMPUTER    1002930c     uuid:cguid_i.obj
 0002:0000631c       _GUID_DEVCLASS_DECODER     1002931c     uuid:cguid_i.obj
 0002:0000632c       _GUID_DEVCLASS_DISKDRIVE   1002932c     uuid:cguid_i.obj
 0002:0000633c       _GUID_DEVCLASS_DISPLAY     1002933c     uuid:cguid_i.obj
 0002:0000634c       _GUID_DEVCLASS_DOT4        1002934c     uuid:cguid_i.obj
 0002:0000635c       _GUID_DEVCLASS_DOT4PRINT   1002935c     uuid:cguid_i.obj
 0002:0000636c       _GUID_DEVCLASS_EHSTORAGESILO 1002936c     uuid:cguid_i.obj
 0002:0000637c       _GUID_DEVCLASS_ENUM1394    1002937c     uuid:cguid_i.obj
 0002:0000638c       _GUID_DEVCLASS_EXTENSION   1002938c     uuid:cguid_i.obj
 0002:0000639c       _GUID_DEVCLASS_FDC         1002939c     uuid:cguid_i.obj
 0002:000063ac       _GUID_DEVCLASS_FIRMWARE    100293ac     uuid:cguid_i.obj
 0002:000063bc       _GUID_DEVCLASS_FLOPPYDISK  100293bc     uuid:cguid_i.obj
 0002:000063cc       _GUID_DEVCLASS_GPS         100293cc     uuid:cguid_i.obj
 0002:000063dc       _GUID_DEVCLASS_HDC         100293dc     uuid:cguid_i.obj
 0002:000063ec       _GUID_DEVCLASS_HIDCLASS    100293ec     uuid:cguid_i.obj
 0002:000063fc       _GUID_DEVCLASS_HOLOGRAPHIC 100293fc     uuid:cguid_i.obj
 0002:0000640c       _GUID_DEVCLASS_IMAGE       1002940c     uuid:cguid_i.obj
 0002:0000641c       _GUID_DEVCLASS_INFINIBAND  1002941c     uuid:cguid_i.obj
 0002:0000642c       _GUID_DEVCLASS_INFRARED    1002942c     uuid:cguid_i.obj
 0002:0000643c       _GUID_DEVCLASS_KEYBOARD    1002943c     uuid:cguid_i.obj
 0002:0000644c       _GUID_DEVCLASS_LEGACYDRIVER 1002944c     uuid:cguid_i.obj
 0002:0000645c       _GUID_DEVCLASS_MEDIA       1002945c     uuid:cguid_i.obj
 0002:0000646c       _GUID_DEVCLASS_MEDIUM_CHANGER 1002946c     uuid:cguid_i.obj
 0002:0000647c       _GUID_DEVCLASS_MEMORY      1002947c     uuid:cguid_i.obj
 0002:0000648c       _GUID_DEVCLASS_MODEM       1002948c     uuid:cguid_i.obj
 0002:0000649c       _GUID_DEVCLASS_MONITOR     1002949c     uuid:cguid_i.obj
 0002:000064ac       _GUID_DEVCLASS_MOUSE       100294ac     uuid:cguid_i.obj
 0002:000064bc       _GUID_DEVCLASS_MTD         100294bc     uuid:cguid_i.obj
 0002:000064cc       _GUID_DEVCLASS_MULTIFUNCTION 100294cc     uuid:cguid_i.obj
 0002:000064dc       _GUID_DEVCLASS_MULTIPORTSERIAL 100294dc     uuid:cguid_i.obj
 0002:000064ec       _GUID_DEVCLASS_NET         100294ec     uuid:cguid_i.obj
 0002:000064fc       _GUID_DEVCLASS_NETCLIENT   100294fc     uuid:cguid_i.obj
 0002:0000650c       _GUID_DEVCLASS_NETDRIVER   1002950c     uuid:cguid_i.obj
 0002:0000651c       _GUID_DEVCLASS_NETSERVICE  1002951c     uuid:cguid_i.obj
 0002:0000652c       _GUID_DEVCLASS_NETTRANS    1002952c     uuid:cguid_i.obj
 0002:0000653c       _GUID_DEVCLASS_NETUIO      1002953c     uuid:cguid_i.obj
 0002:0000654c       _GUID_DEVCLASS_NODRIVER    1002954c     uuid:cguid_i.obj
 0002:0000655c       _GUID_DEVCLASS_PCMCIA      1002955c     uuid:cguid_i.obj
 0002:0000656c       _GUID_DEVCLASS_PNPPRINTERS 1002956c     uuid:cguid_i.obj
 0002:0000657c       _GUID_DEVCLASS_PORTS       1002957c     uuid:cguid_i.obj
 0002:0000658c       _GUID_DEVCLASS_PRINTER     1002958c     uuid:cguid_i.obj
 0002:0000659c       _GUID_DEVCLASS_PRINTERUPGRADE 1002959c     uuid:cguid_i.obj
 0002:000065ac       _GUID_DEVCLASS_PRINTQUEUE  100295ac     uuid:cguid_i.obj
 0002:000065bc       _GUID_DEVCLASS_PROCESSOR   100295bc     uuid:cguid_i.obj
 0002:000065cc       _GUID_DEVCLASS_SBP2        100295cc     uuid:cguid_i.obj
 0002:000065dc       _GUID_DEVCLASS_SCMDISK     100295dc     uuid:cguid_i.obj
 0002:000065ec       _GUID_DEVCLASS_SCMVOLUME   100295ec     uuid:cguid_i.obj
 0002:000065fc       _GUID_DEVCLASS_SCSIADAPTER 100295fc     uuid:cguid_i.obj
 0002:0000660c       _GUID_DEVCLASS_SECURITYACCELERATOR 1002960c     uuid:cguid_i.obj
 0002:0000661c       _GUID_DEVCLASS_SENSOR      1002961c     uuid:cguid_i.obj
 0002:0000662c       _GUID_DEVCLASS_SIDESHOW    1002962c     uuid:cguid_i.obj
 0002:0000663c       _GUID_DEVCLASS_SMARTCARDREADER 1002963c     uuid:cguid_i.obj
 0002:0000664c       _GUID_DEVCLASS_SMRDISK     1002964c     uuid:cguid_i.obj
 0002:0000665c       _GUID_DEVCLASS_SMRVOLUME   1002965c     uuid:cguid_i.obj
 0002:0000666c       _GUID_DEVCLASS_SOFTWARECOMPONENT 1002966c     uuid:cguid_i.obj
 0002:0000667c       _GUID_DEVCLASS_SOUND       1002967c     uuid:cguid_i.obj
 0002:0000668c       _GUID_DEVCLASS_SYSTEM      1002968c     uuid:cguid_i.obj
 0002:0000669c       _GUID_DEVCLASS_TAPEDRIVE   1002969c     uuid:cguid_i.obj
 0002:000066ac       _GUID_DEVCLASS_UNKNOWN     100296ac     uuid:cguid_i.obj
 0002:000066bc       _GUID_DEVCLASS_UCM         100296bc     uuid:cguid_i.obj
 0002:000066cc       _GUID_DEVCLASS_USB         100296cc     uuid:cguid_i.obj
 0002:000066dc       _GUID_DEVCLASS_VOLUME      100296dc     uuid:cguid_i.obj
 0002:000066ec       _GUID_DEVCLASS_VOLUMESNAPSHOT 100296ec     uuid:cguid_i.obj
 0002:000066fc       _GUID_DEVCLASS_WCEUSBS     100296fc     uuid:cguid_i.obj
 0002:0000670c       _GUID_DEVCLASS_WPD         1002970c     uuid:cguid_i.obj
 0002:0000671c       _GUID_DEVCLASS_FSFILTER_TOP 1002971c     uuid:cguid_i.obj
 0002:0000672c       _GUID_DEVCLASS_FSFILTER_ACTIVITYMONITOR 1002972c     uuid:cguid_i.obj
 0002:0000673c       _GUID_DEVCLASS_FSFILTER_UNDELETE 1002973c     uuid:cguid_i.obj
 0002:0000674c       _GUID_DEVCLASS_FSFILTER_ANTIVIRUS 1002974c     uuid:cguid_i.obj
 0002:0000675c       _GUID_DEVCLASS_FSFILTER_REPLICATION 1002975c     uuid:cguid_i.obj
 0002:0000676c       _GUID_DEVCLASS_FSFILTER_CONTINUOUSBACKUP 1002976c     uuid:cguid_i.obj
 0002:0000677c       _GUID_DEVCLASS_FSFILTER_CONTENTSCREENER 1002977c     uuid:cguid_i.obj
 0002:0000678c       _GUID_DEVCLASS_FSFILTER_QUOTAMANAGEMENT 1002978c     uuid:cguid_i.obj
 0002:0000679c       _GUID_DEVCLASS_FSFILTER_SYSTEMRECOVERY 1002979c     uuid:cguid_i.obj
 0002:000067ac       _GUID_DEVCLASS_FSFILTER_CFSMETADATASERVER 100297ac     uuid:cguid_i.obj
 0002:000067bc       _GUID_DEVCLASS_FSFILTER_HSM 100297bc     uuid:cguid_i.obj
 0002:000067cc       _GUID_DEVCLASS_FSFILTER_COMPRESSION 100297cc     uuid:cguid_i.obj
 0002:000067dc       _GUID_DEVCLASS_FSFILTER_ENCRYPTION 100297dc     uuid:cguid_i.obj
 0002:000067ec       _GUID_DEVCLASS_FSFILTER_VIRTUALIZATION 100297ec     uuid:cguid_i.obj
 0002:000067fc       _GUID_DEVCLASS_FSFILTER_PHYSICALQUOTAMANAGEMENT 100297fc     uuid:cguid_i.obj
 0002:0000680c       _GUID_DEVCLASS_FSFILTER_OPENFILEBACKUP 1002980c     uuid:cguid_i.obj
 0002:0000681c       _GUID_DEVCLASS_FSFILTER_SECURITYENHANCER 1002981c     uuid:cguid_i.obj
 0002:0000682c       _GUID_DEVCLASS_FSFILTER_COPYPROTECTION 1002982c     uuid:cguid_i.obj
 0002:0000683c       _GUID_DEVCLASS_FSFILTER_BOTTOM 1002983c     uuid:cguid_i.obj
 0002:0000684c       _GUID_DEVCLASS_FSFILTER_SYSTEM 1002984c     uuid:cguid_i.obj
 0002:0000685c       _GUID_DEVCLASS_FSFILTER_INFRASTRUCTURE 1002985c     uuid:cguid_i.obj
 0002:0000686c       _GUID_DEVINTERFACE_DISK    1002986c     uuid:cguid_i.obj
 0002:0000687c       _GUID_DEVINTERFACE_CDROM   1002987c     uuid:cguid_i.obj
 0002:0000688c       _GUID_DEVINTERFACE_PARTITION 1002988c     uuid:cguid_i.obj
 0002:0000689c       _GUID_DEVINTERFACE_TAPE    1002989c     uuid:cguid_i.obj
 0002:000068ac       _GUID_DEVINTERFACE_WRITEONCEDISK 100298ac     uuid:cguid_i.obj
 0002:000068bc       _GUID_DEVINTERFACE_VOLUME  100298bc     uuid:cguid_i.obj
 0002:000068cc       _GUID_DEVINTERFACE_MEDIUMCHANGER 100298cc     uuid:cguid_i.obj
 0002:000068dc       _GUID_DEVINTERFACE_FLOPPY  100298dc     uuid:cguid_i.obj
 0002:000068ec       _GUID_DEVINTERFACE_CDCHANGER 100298ec     uuid:cguid_i.obj
 0002:000068fc       _GUID_DEVINTERFACE_STORAGEPORT 100298fc     uuid:cguid_i.obj
 0002:0000690c       _GUID_DEVINTERFACE_VMLUN   1002990c     uuid:cguid_i.obj
 0002:0000691c       _GUID_DEVINTERFACE_SES     1002991c     uuid:cguid_i.obj
 0002:0000692c       _GUID_DEVINTERFACE_ZNSDISK 1002992c     uuid:cguid_i.obj
 0002:0000693c       _GUID_DEVINTERFACE_SERVICE_VOLUME 1002993c     uuid:cguid_i.obj
 0002:0000694c       _GUID_DEVINTERFACE_HIDDEN_VOLUME 1002994c     uuid:cguid_i.obj
 0002:0000695c       _GUID_DEVINTERFACE_UNIFIED_ACCESS_RPMB 1002995c     uuid:cguid_i.obj
 0002:0000696c       _GUID_DEVINTERFACE_SCM_PHYSICAL_DEVICE 1002996c     uuid:cguid_i.obj
 0002:0000697c       _GUID_SCM_PD_HEALTH_NOTIFICATION 1002997c     uuid:cguid_i.obj
 0002:0000698c       _GUID_SCM_PD_PASSTHROUGH_INVDIMM 1002998c     uuid:cguid_i.obj
 0002:0000699c       _GUID_DEVINTERFACE_COMPORT 1002999c     uuid:cguid_i.obj
 0002:000069ac       _GUID_DEVINTERFACE_SERENUM_BUS_ENUMERATOR 100299ac     uuid:cguid_i.obj
 0002:000069bc       _GUID_ATLVer30             100299bc     atls:atlbase.obj
 0002:000069cc       _GUID_ATLVer70             100299cc     atls:atlbase.obj
 0002:000069dc       _GUID_ATLVer100            100299dc     atls:atlbase.obj
 0002:000069ec       _GUID_ATLVer110            100299ec     atls:atlbase.obj
 0002:00006a00       ??_C@_1IC@ONKHOIDK@?$AAE?$AAR?$AAR?$AAO?$AAR?$AA?5?$AA?3?$AA?5?$AAU?$AAn?$AAa?$AAb?$AAl?$AAe?$AA?5@ 10029a00     atls:atlbase.obj
 0002:00006a84       ??_C@_1CA@ONGMEOAB@?$AAa?$AAt?$AAl?$AAT?$AAr?$AAa?$AAc?$AAe?$AAG?$AAe?$AAn?$AAe?$AAr?$AAa?$AAl@ 10029a84     atls:stdafx.obj
 0002:00006aa4       ??_C@_1BI@MAFGHOEE@?$AAa?$AAt?$AAl?$AAT?$AAr?$AAa?$AAc?$AAe?$AAC?$AAO?$AAM@ 10029aa4     atls:stdafx.obj
 0002:00006abc       ??_C@_1BG@FPLJJEMF@?$AAa?$AAt?$AAl?$AAT?$AAr?$AAa?$AAc?$AAe?$AAQ?$AAI@ 10029abc     atls:stdafx.obj
 0002:00006ad4       ??_C@_1CE@NIAEAIDK@?$AAa?$AAt?$AAl?$AAT?$AAr?$AAa?$AAc?$AAe?$AAR?$AAe?$AAg?$AAi?$AAs?$AAt?$AAr@ 10029ad4     atls:stdafx.obj
 0002:00006af8       ??_C@_1CC@BNHGJFNK@?$AAa?$AAt?$AAl?$AAT?$AAr?$AAa?$AAc?$AAe?$AAR?$AAe?$AAf?$AAc?$AAo?$AAu?$AAn@ 10029af8     atls:stdafx.obj
 0002:00006b1c       ??_C@_1CE@NAJDPMNB@?$AAa?$AAt?$AAl?$AAT?$AAr?$AAa?$AAc?$AAe?$AAW?$AAi?$AAn?$AAd?$AAo?$AAw?$AAi@ 10029b1c     atls:stdafx.obj
 0002:00006b40       ??_C@_1CC@IMNJGBED@?$AAa?$AAt?$AAl?$AAT?$AAr?$AAa?$AAc?$AAe?$AAC?$AAo?$AAn?$AAt?$AAr?$AAo?$AAl@ 10029b40     atls:stdafx.obj
 0002:00006b64       ??_C@_1CA@OMOMONMN@?$AAa?$AAt?$AAl?$AAT?$AAr?$AAa?$AAc?$AAe?$AAH?$AAo?$AAs?$AAt?$AAi?$AAn?$AAg@ 10029b64     atls:stdafx.obj
 0002:00006b84       ??_C@_1CC@JNJJDOOH@?$AAa?$AAt?$AAl?$AAT?$AAr?$AAa?$AAc?$AAe?$AAD?$AAB?$AAC?$AAl?$AAi?$AAe?$AAn@ 10029b84     atls:stdafx.obj
 0002:00006ba8       ??_C@_1CG@MNMMIOOI@?$AAa?$AAt?$AAl?$AAT?$AAr?$AAa?$AAc?$AAe?$AAD?$AAB?$AAP?$AAr?$AAo?$AAv?$AAi@ 10029ba8     atls:stdafx.obj
 0002:00006bd0       ??_C@_1BO@EFPHNHHN@?$AAa?$AAt?$AAl?$AAT?$AAr?$AAa?$AAc?$AAe?$AAS?$AAn?$AAa?$AAp?$AAi?$AAn@ 10029bd0     atls:stdafx.obj
 0002:00006bf0       ??_C@_1CA@DMHPIODO@?$AAa?$AAt?$AAl?$AAT?$AAr?$AAa?$AAc?$AAe?$AAN?$AAo?$AAt?$AAI?$AAm?$AAp?$AAl@ 10029bf0     atls:stdafx.obj
 0002:00006c10       ??_C@_1CG@KFEEMCDH@?$AAa?$AAt?$AAl?$AAT?$AAr?$AAa?$AAc?$AAe?$AAA?$AAl?$AAl?$AAo?$AAc?$AAa?$AAt@ 10029c10     atls:stdafx.obj
 0002:00006c38       ??_C@_1CE@IMMADNAP@?$AAa?$AAt?$AAl?$AAT?$AAr?$AAa?$AAc?$AAe?$AAE?$AAx?$AAc?$AAe?$AAp?$AAt?$AAi@ 10029c38     atls:stdafx.obj
 0002:00006c5c       ??_C@_1BK@NCJHOFCL@?$AAa?$AAt?$AAl?$AAT?$AAr?$AAa?$AAc?$AAe?$AAT?$AAi?$AAm?$AAe@ 10029c5c     atls:stdafx.obj
 0002:00006c78       ??_C@_1BM@GIKLHLFD@?$AAa?$AAt?$AAl?$AAT?$AAr?$AAa?$AAc?$AAe?$AAC?$AAa?$AAc?$AAh?$AAe@ 10029c78     atls:stdafx.obj
 0002:00006c94       ??_C@_1CA@PBPHANCD@?$AAa?$AAt?$AAl?$AAT?$AAr?$AAa?$AAc?$AAe?$AAS?$AAt?$AAe?$AAn?$AAc?$AAi?$AAl@ 10029c94     atls:stdafx.obj
 0002:00006cb4       ??_C@_1BO@GMLILNDJ@?$AAa?$AAt?$AAl?$AAT?$AAr?$AAa?$AAc?$AAe?$AAS?$AAt?$AAr?$AAi?$AAn?$AAg@ 10029cb4     atls:stdafx.obj
 0002:00006cd4       ??_C@_1BI@OKDLCIEM@?$AAa?$AAt?$AAl?$AAT?$AAr?$AAa?$AAc?$AAe?$AAM?$AAa?$AAp@ 10029cd4     atls:stdafx.obj
 0002:00006cec       ??_C@_1BK@DMHCKHHD@?$AAa?$AAt?$AAl?$AAT?$AAr?$AAa?$AAc?$AAe?$AAU?$AAt?$AAi?$AAl@ 10029cec     atls:stdafx.obj
 0002:00006d08       ??_C@_1CC@DMMBNCFG@?$AAa?$AAt?$AAl?$AAT?$AAr?$AAa?$AAc?$AAe?$AAS?$AAe?$AAc?$AAu?$AAr?$AAi?$AAt@ 10029d08     atls:stdafx.obj
 0002:00006d2c       ??_C@_1BK@OPAPOCAL@?$AAa?$AAt?$AAl?$AAT?$AAr?$AAa?$AAc?$AAe?$AAS?$AAy?$AAn?$AAc@ 10029d2c     atls:stdafx.obj
 0002:00006d48       ??_C@_1BM@FHAEDBFK@?$AAa?$AAt?$AAl?$AAT?$AAr?$AAa?$AAc?$AAe?$AAI?$AAS?$AAA?$AAP?$AAI@ 10029d48     atls:stdafx.obj
 0002:00006d64       ?chDirSep@ATL@@3_WB        10029d64     atls:stdafx.obj
 0002:00006d68       ?chRightBracket@ATL@@3_WB  10029d68     atls:stdafx.obj
 0002:00006d6c       ?chLeftBracket@ATL@@3_WB   10029d6c     atls:stdafx.obj
 0002:00006d70       ?chQuote@ATL@@3_WB         10029d70     atls:stdafx.obj
 0002:00006d74       ?chEquals@ATL@@3_WB        10029d74     atls:stdafx.obj
 0002:00006d78       ?szStringVal@ATL@@3QB_WB   10029d78     atls:stdafx.obj
 0002:00006d7c       ??_C@_13HADIAKP@?$AAS@     10029d7c     atls:stdafx.obj
 0002:00006d80       ?multiszStringVal@ATL@@3QB_WB 10029d80     atls:stdafx.obj
 0002:00006d84       ??_C@_13LHMFKAAD@?$AAM@    10029d84     atls:stdafx.obj
 0002:00006d88       ?szDwordVal@ATL@@3QB_WB    10029d88     atls:stdafx.obj
 0002:00006d8c       ??_C@_13MKMNOPIJ@?$AAD@    10029d8c     atls:stdafx.obj
 0002:00006d90       ?szBinaryVal@ATL@@3QB_WB   10029d90     atls:stdafx.obj
 0002:00006d94       ??_C@_13OPKGLAFF@?$AAB@    10029d94     atls:stdafx.obj
 0002:00006d98       ?szValToken@ATL@@3QB_WB    10029d98     atls:stdafx.obj
 0002:00006d9c       ??_C@_17LLMMEOJD@?$AAV?$AAa?$AAl@ 10029d9c     atls:stdafx.obj
 0002:00006da4       ?szForceRemove@ATL@@3QB_WB 10029da4     atls:stdafx.obj
 0002:00006da8       ??_C@_1BI@JFAIJMHL@?$AAF?$AAo?$AAr?$AAc?$AAe?$AAR?$AAe?$AAm?$AAo?$AAv?$AAe@ 10029da8     atls:stdafx.obj
 0002:00006dc0       ?szNoRemove@ATL@@3QB_WB    10029dc0     atls:stdafx.obj
 0002:00006dc4       ??_C@_1BC@GCKHIPE@?$AAN?$AAo?$AAR?$AAe?$AAm?$AAo?$AAv?$AAe@ 10029dc4     atls:stdafx.obj
 0002:00006dd8       ?szDelete@ATL@@3QB_WB      10029dd8     atls:stdafx.obj
 0002:00006ddc       ??_C@_1O@JDLOHAN@?$AAD?$AAe?$AAl?$AAe?$AAt?$AAe@ 10029ddc     atls:stdafx.obj
 0002:00006dec       __pRawDllMain              10029dec     mfcs140:rawdllmainproxy.obj
 0002:00006e48       __load_config_used         10029e48     msvcrt:loadcfg.obj
 0002:00006f40       ___CastGuardVftablesStart  10029f40     msvcrt:guard_support.obj
 0002:00006f44       ___CastGuardVftablesEnd    10029f44     msvcrt:guard_support.obj
 0002:00006f48       __tls_used                 10029f48     msvcrt:tlssup.obj
 0002:00006f60       ??_R4CControlPos@@6B@      10029f60     ControlPos.obj
 0002:00006f74       ??_R3CControlPos@@8        10029f74     ControlPos.obj
 0002:00006f84       ??_R2CControlPos@@8        10029f84     ControlPos.obj
 0002:00006f8c       ??_R1A@?0A@EA@CControlPos@@8 10029f8c     ControlPos.obj
 0002:00006fa8       ??_R3IRegistryManager@@8   10029fa8     EtcUtil.obj
 0002:00006fb8       ??_R2IRegistryManager@@8   10029fb8     EtcUtil.obj
 0002:00006fc0       ??_R1A@?0A@EA@IRegistryManager@@8 10029fc0     EtcUtil.obj
 0002:00006fdc       ??_R4CRegistryManager@@6B@ 10029fdc     EtcUtil.obj
 0002:00006ff0       ??_R3CRegistryManager@@8   10029ff0     EtcUtil.obj
 0002:00007000       ??_R2CRegistryManager@@8   1002a000     EtcUtil.obj
 0002:0000700c       ??_R1A@?0A@EA@CRegistryManager@@8 1002a00c     EtcUtil.obj
 0002:00007028       ??_R3CObject@@8            1002a028     GwanWnd.obj
 0002:00007038       ??_R2CObject@@8            1002a038     GwanWnd.obj
 0002:00007040       ??_R1A@?0A@EA@CObject@@8   1002a040     GwanWnd.obj
 0002:0000705c       ??_R1A@?0A@EA@CWnd@@8      1002a05c     GwanWnd.obj
 0002:00007078       ??_R3CWnd@@8               1002a078     GwanWnd.obj
 0002:00007088       ??_R2CWnd@@8               1002a088     GwanWnd.obj
 0002:00007098       ??_R1A@?0A@EA@CCmdTarget@@8 1002a098     GwanWnd.obj
 0002:000070b4       ??_R3CCmdTarget@@8         1002a0b4     GwanWnd.obj
 0002:000070c4       ??_R2CCmdTarget@@8         1002a0c4     GwanWnd.obj
 0002:000070d0       ??_R4CGwanWnd@@6B@         1002a0d0     GwanWnd.obj
 0002:000070e4       ??_R3CGwanWnd@@8           1002a0e4     GwanWnd.obj
 0002:000070f4       ??_R2CGwanWnd@@8           1002a0f4     GwanWnd.obj
 0002:00007108       ??_R1A@?0A@EA@CGwanWnd@@8  1002a108     GwanWnd.obj
 0002:00007124       ??_R4CNewsMoniterWnd@@6B@  1002a124     NewsMoniterWnd.obj
 0002:00007138       ??_R3CNewsMoniterWnd@@8    1002a138     NewsMoniterWnd.obj
 0002:00007148       ??_R2CNewsMoniterWnd@@8    1002a148     NewsMoniterWnd.obj
 0002:0000715c       ??_R1A@?0A@EA@CNewsMoniterWnd@@8 1002a15c     NewsMoniterWnd.obj
 0002:00007178       ??_R4CPCtrMainWnd@@6B@     1002a178     PCtrMainWnd.obj
 0002:0000718c       ??_R3CPCtrMainWnd@@8       1002a18c     PCtrMainWnd.obj
 0002:0000719c       ??_R2CPCtrMainWnd@@8       1002a19c     PCtrMainWnd.obj
 0002:000071b0       ??_R1A@?0A@EA@CPCtrMainWnd@@8 1002a1b0     PCtrMainWnd.obj
 0002:000071cc       ??_R3IGateManager@@8       1002a1cc     PcTrMng.obj
 0002:000071dc       ??_R2IGateManager@@8       1002a1dc     PcTrMng.obj
 0002:000071e4       ??_R1A@?0A@EA@IGateManager@@8 1002a1e4     PcTrMng.obj
 0002:00007200       ??_R3IDataUtilManager@@8   1002a200     PcTrMng.obj
 0002:00007210       ??_R2IDataUtilManager@@8   1002a210     PcTrMng.obj
 0002:00007218       ??_R1A@?0A@EA@IDataUtilManager@@8 1002a218     PcTrMng.obj
 0002:00007234       ??_R3IDataUtilManager2@@8  1002a234     PcTrMng.obj
 0002:00007244       ??_R2IDataUtilManager2@@8  1002a244     PcTrMng.obj
 0002:00007250       ??_R1A@?0A@EA@IDataUtilManager2@@8 1002a250     PcTrMng.obj
 0002:0000726c       ??_R3ISTManager@@8         1002a26c     PcTrMng.obj
 0002:0000727c       ??_R2ISTManager@@8         1002a27c     PcTrMng.obj
 0002:00007284       ??_R1A@?0A@EA@ISTManager@@8 1002a284     PcTrMng.obj
 0002:000072a0       ??_R3ISystemUtilManager@@8 1002a2a0     PcTrMng.obj
 0002:000072b0       ??_R2ISystemUtilManager@@8 1002a2b0     PcTrMng.obj
 0002:000072b8       ??_R1A@?0A@EA@ISystemUtilManager@@8 1002a2b8     PcTrMng.obj
 0002:000072d4       ??_R3ISystemUtilManager2@@8 1002a2d4     PcTrMng.obj
 0002:000072e4       ??_R2ISystemUtilManager2@@8 1002a2e4     PcTrMng.obj
 0002:000072f0       ??_R1A@?0A@EA@ISystemUtilManager2@@8 1002a2f0     PcTrMng.obj
 0002:0000730c       ??_R4CGateManager@@6B@     1002a30c     PcTrMng.obj
 0002:00007320       ??_R3CGateManager@@8       1002a320     PcTrMng.obj
 0002:00007330       ??_R2CGateManager@@8       1002a330     PcTrMng.obj
 0002:0000733c       ??_R1A@?0A@EA@CGateManager@@8 1002a33c     PcTrMng.obj
 0002:00007358       ??_R4CDataUtilManager@@6B@ 1002a358     PcTrMng.obj
 0002:0000736c       ??_R3CDataUtilManager@@8   1002a36c     PcTrMng.obj
 0002:0000737c       ??_R2CDataUtilManager@@8   1002a37c     PcTrMng.obj
 0002:0000738c       ??_R1A@?0A@EA@CDataUtilManager@@8 1002a38c     PcTrMng.obj
 0002:000073a8       ??_R4?$CList@PAVCSTManager_Info@@PAV1@@@6B@ 1002a3a8     PcTrMng.obj
 0002:000073bc       ??_R3?$CList@PAVCSTManager_Info@@PAV1@@@8 1002a3bc     PcTrMng.obj
 0002:000073cc       ??_R2?$CList@PAVCSTManager_Info@@PAV1@@@8 1002a3cc     PcTrMng.obj
 0002:000073d8       ??_R1A@?0A@EA@?$CList@PAVCSTManager_Info@@PAV1@@@8 1002a3d8     PcTrMng.obj
 0002:000073f4       ??_R4CSTManager@@6B@       1002a3f4     PcTrMng.obj
 0002:00007408       ??_R3CSTManager@@8         1002a408     PcTrMng.obj
 0002:00007418       ??_R2CSTManager@@8         1002a418     PcTrMng.obj
 0002:00007424       ??_R1A@?0A@EA@CSTManager@@8 1002a424     PcTrMng.obj
 0002:00007440       ??_R4CSystemUtilManager@@6B@ 1002a440     PcTrMng.obj
 0002:00007454       ??_R3CSystemUtilManager@@8 1002a454     PcTrMng.obj
 0002:00007464       ??_R2CSystemUtilManager@@8 1002a464     PcTrMng.obj
 0002:00007474       ??_R1A@?0A@EA@CSystemUtilManager@@8 1002a474     PcTrMng.obj
 0002:00007490       ??_R4CPcTrMngApp@@6B@      1002a490     PcTrMng.obj
 0002:000074a4       ??_R3CPcTrMngApp@@8        1002a4a4     PcTrMng.obj
 0002:000074b4       ??_R2CPcTrMngApp@@8        1002a4b4     PcTrMng.obj
 0002:000074cc       ??_R1A@?0A@EA@CPcTrMngApp@@8 1002a4cc     PcTrMng.obj
 0002:000074e8       ??_R1A@?0A@EA@CWinApp@@8   1002a4e8     PcTrMng.obj
 0002:00007504       ??_R3CWinApp@@8            1002a504     PcTrMng.obj
 0002:00007514       ??_R2CWinApp@@8            1002a514     PcTrMng.obj
 0002:00007528       ??_R1A@?0A@EA@CWinThread@@8 1002a528     PcTrMng.obj
 0002:00007544       ??_R3CWinThread@@8         1002a544     PcTrMng.obj
 0002:00007554       ??_R2CWinThread@@8         1002a554     PcTrMng.obj
 0002:00007564       ??_R4CWin32Heap@ATL@@6B@   1002a564     StdAfx.obj
 0002:00007578       ??_R3CWin32Heap@ATL@@8     1002a578     StdAfx.obj
 0002:00007588       ??_R2CWin32Heap@ATL@@8     1002a588     StdAfx.obj
 0002:00007594       ??_R1A@?0A@EA@CWin32Heap@ATL@@8 1002a594     StdAfx.obj
 0002:000075b0       ??_R1A@?0A@EA@IAtlMemMgr@ATL@@8 1002a5b0     StdAfx.obj
 0002:000075cc       ??_R3IAtlMemMgr@ATL@@8     1002a5cc     StdAfx.obj
 0002:000075dc       ??_R2IAtlMemMgr@ATL@@8     1002a5dc     StdAfx.obj
 0002:000075e4       ??_R1A@?0A@EA@IAtlStringMgr@ATL@@8 1002a5e4     StdAfx.obj
 0002:00007600       ??_R3IAtlStringMgr@ATL@@8  1002a600     StdAfx.obj
 0002:00007610       ??_R2IAtlStringMgr@ATL@@8  1002a610     StdAfx.obj
 0002:00007618       ??_R4CAtlStringMgr@ATL@@6B@ 1002a618     StdAfx.obj
 0002:0000762c       ??_R3CAtlStringMgr@ATL@@8  1002a62c     StdAfx.obj
 0002:0000763c       ??_R2CAtlStringMgr@ATL@@8  1002a63c     StdAfx.obj
 0002:00007648       ??_R1A@?0A@EA@CAtlStringMgr@ATL@@8 1002a648     StdAfx.obj
 0002:00007664       ??_R4CTracer@@6B@          1002a664     Tracer.obj
 0002:00007678       ??_R3CTracer@@8            1002a678     Tracer.obj
 0002:00007688       ??_R2CTracer@@8            1002a688     Tracer.obj
 0002:00007690       ??_R1A@?0A@EA@CTracer@@8   1002a690     Tracer.obj
 0002:000076ac       ??_R3ICompanyManager@@8    1002a6ac     _CompanyManager.obj
 0002:000076bc       ??_R2ICompanyManager@@8    1002a6bc     _CompanyManager.obj
 0002:000076c4       ??_R1A@?0A@EA@ICompanyManager@@8 1002a6c4     _CompanyManager.obj
 0002:000076e0       ??_R3ICompanyManager_SS@@8 1002a6e0     _CompanyManager.obj
 0002:000076f0       ??_R2ICompanyManager_SS@@8 1002a6f0     _CompanyManager.obj
 0002:000076fc       ??_R1A@?0A@EA@ICompanyManager_SS@@8 1002a6fc     _CompanyManager.obj
 0002:00007718       ??_R4CCompanyManager@@6B@  1002a718     _CompanyManager.obj
 0002:0000772c       ??_R3CCompanyManager@@8    1002a72c     _CompanyManager.obj
 0002:0000773c       ??_R2CCompanyManager@@8    1002a73c     _CompanyManager.obj
 0002:0000774c       ??_R1A@?0A@EA@CCompanyManager@@8 1002a74c     _CompanyManager.obj
 0002:00007768       ??_R3IAUDataMonitorManager@@8 1002a768     _DataMonitorManager.obj
 0002:00007778       ??_R2IAUDataMonitorManager@@8 1002a778     _DataMonitorManager.obj
 0002:00007780       ??_R1A@?0A@EA@IAUDataMonitorManager@@8 1002a780     _DataMonitorManager.obj
 0002:0000779c       ??_R4?$CList@VCDMMngInfo@@V1@@@6B@ 1002a79c     _DataMonitorManager.obj
 0002:000077b0       ??_R3?$CList@VCDMMngInfo@@V1@@@8 1002a7b0     _DataMonitorManager.obj
 0002:000077c0       ??_R2?$CList@VCDMMngInfo@@V1@@@8 1002a7c0     _DataMonitorManager.obj
 0002:000077cc       ??_R1A@?0A@EA@?$CList@VCDMMngInfo@@V1@@@8 1002a7cc     _DataMonitorManager.obj
 0002:000077e8       ??_R4CAUDataMonitorManager@@6B@ 1002a7e8     _DataMonitorManager.obj
 0002:000077fc       ??_R3CAUDataMonitorManager@@8 1002a7fc     _DataMonitorManager.obj
 0002:0000780c       ??_R2CAUDataMonitorManager@@8 1002a80c     _DataMonitorManager.obj
 0002:00007818       ??_R1A@?0A@EA@CAUDataMonitorManager@@8 1002a818     _DataMonitorManager.obj
 0002:00007834       ??_R3IDebugManager@@8      1002a834     _DebugManager.obj
 0002:00007844       ??_R2IDebugManager@@8      1002a844     _DebugManager.obj
 0002:0000784c       ??_R1A@?0A@EA@IDebugManager@@8 1002a84c     _DebugManager.obj
 0002:00007868       ??_R3IDebugManager2@@8     1002a868     _DebugManager.obj
 0002:00007878       ??_R2IDebugManager2@@8     1002a878     _DebugManager.obj
 0002:00007884       ??_R1A@?0A@EA@IDebugManager2@@8 1002a884     _DebugManager.obj
 0002:000078a0       ??_R3IDebugManager3@@8     1002a8a0     _DebugManager.obj
 0002:000078b0       ??_R2IDebugManager3@@8     1002a8b0     _DebugManager.obj
 0002:000078c0       ??_R1A@?0A@EA@IDebugManager3@@8 1002a8c0     _DebugManager.obj
 0002:000078dc       ??_R4CDebugManager@@6B@    1002a8dc     _DebugManager.obj
 0002:000078f0       ??_R3CDebugManager@@8      1002a8f0     _DebugManager.obj
 0002:00007900       ??_R2CDebugManager@@8      1002a900     _DebugManager.obj
 0002:00007914       ??_R1A@?0A@EA@CDebugManager@@8 1002a914     _DebugManager.obj
 0002:00007930       ??_R3IDrdsLib@@8           1002a930     _DrdsManager.obj
 0002:00007940       ??_R2IDrdsLib@@8           1002a940     _DrdsManager.obj
 0002:00007948       ??_R1A@?0A@EA@IDrdsLib@@8  1002a948     _DrdsManager.obj
 0002:00007964       ??_R3IAUDrdsManager@@8     1002a964     _DrdsManager.obj
 0002:00007974       ??_R2IAUDrdsManager@@8     1002a974     _DrdsManager.obj
 0002:0000797c       ??_R1A@?0A@EA@IAUDrdsManager@@8 1002a97c     _DrdsManager.obj
 0002:00007998       ??_R4?$CList@PAUIDrdsLib@@PAU1@@@6B@ 1002a998     _DrdsManager.obj
 0002:000079ac       ??_R3?$CList@PAUIDrdsLib@@PAU1@@@8 1002a9ac     _DrdsManager.obj
 0002:000079bc       ??_R2?$CList@PAUIDrdsLib@@PAU1@@@8 1002a9bc     _DrdsManager.obj
 0002:000079c8       ??_R1A@?0A@EA@?$CList@PAUIDrdsLib@@PAU1@@@8 1002a9c8     _DrdsManager.obj
 0002:000079e4       ??_R4CAUDrdsManager@@6B@   1002a9e4     _DrdsManager.obj
 0002:000079f8       ??_R3CAUDrdsManager@@8     1002a9f8     _DrdsManager.obj
 0002:00007a08       ??_R2CAUDrdsManager@@8     1002aa08     _DrdsManager.obj
 0002:00007a14       ??_R1A@?0A@EA@CAUDrdsManager@@8 1002aa14     _DrdsManager.obj
 0002:00007a30       ??_R4CDrdsLib@@6B@         1002aa30     _DrdsManager.obj
 0002:00007a44       ??_R3CDrdsLib@@8           1002aa44     _DrdsManager.obj
 0002:00007a54       ??_R2CDrdsLib@@8           1002aa54     _DrdsManager.obj
 0002:00007a60       ??_R1A@?0A@EA@CDrdsLib@@8  1002aa60     _DrdsManager.obj
 0002:00007a7c       ??_R3IBaseDataDB@@8        1002aa7c     _MainExInfoManager.obj
 0002:00007a8c       ??_R2IBaseDataDB@@8        1002aa8c     _MainExInfoManager.obj
 0002:00007a94       ??_R1A@?0A@EA@IBaseDataDB@@8 1002aa94     _MainExInfoManager.obj
 0002:00007ab0       ??_R4CCriticalSection@@6B@ 1002aab0     _MainExInfoManager.obj
 0002:00007ac4       ??_R3CCriticalSection@@8   1002aac4     _MainExInfoManager.obj
 0002:00007ad4       ??_R2CCriticalSection@@8   1002aad4     _MainExInfoManager.obj
 0002:00007ae4       ??_R1A@?0A@EA@CCriticalSection@@8 1002aae4     _MainExInfoManager.obj
 0002:00007b00       ??_R1A@?0A@EA@CSyncObject@@8 1002ab00     _MainExInfoManager.obj
 0002:00007b1c       ??_R3CSyncObject@@8        1002ab1c     _MainExInfoManager.obj
 0002:00007b2c       ??_R2CSyncObject@@8        1002ab2c     _MainExInfoManager.obj
 0002:00007b38       ??_R3IMainExInfoManager@@8 1002ab38     _MainExInfoManager.obj
 0002:00007b48       ??_R2IMainExInfoManager@@8 1002ab48     _MainExInfoManager.obj
 0002:00007b54       ??_R1A@?0A@EA@IMainExInfoManager@@8 1002ab54     _MainExInfoManager.obj
 0002:00007b70       ??_R3IMainExInfoManager2@@8 1002ab70     _MainExInfoManager.obj
 0002:00007b80       ??_R2IMainExInfoManager2@@8 1002ab80     _MainExInfoManager.obj
 0002:00007b90       ??_R1A@?0A@EA@IMainExInfoManager2@@8 1002ab90     _MainExInfoManager.obj
 0002:00007bac       ??_R3IMainExInfoManager3@@8 1002abac     _MainExInfoManager.obj
 0002:00007bbc       ??_R2IMainExInfoManager3@@8 1002abbc     _MainExInfoManager.obj
 0002:00007bd0       ??_R1A@?0A@EA@IMainExInfoManager3@@8 1002abd0     _MainExInfoManager.obj
 0002:00007bec       ??_R4?$CList@PAUST_FOR_UserData@@PAU1@@@6B@ 1002abec     _MainExInfoManager.obj
 0002:00007c00       ??_R3?$CList@PAUST_FOR_UserData@@PAU1@@@8 1002ac00     _MainExInfoManager.obj
 0002:00007c10       ??_R2?$CList@PAUST_FOR_UserData@@PAU1@@@8 1002ac10     _MainExInfoManager.obj
 0002:00007c1c       ??_R1A@?0A@EA@?$CList@PAUST_FOR_UserData@@PAU1@@@8 1002ac1c     _MainExInfoManager.obj
 0002:00007c38       ??_R4CMainExInfoManager@@6B@ 1002ac38     _MainExInfoManager.obj
 0002:00007c4c       ??_R3CMainExInfoManager@@8 1002ac4c     _MainExInfoManager.obj
 0002:00007c5c       ??_R2CMainExInfoManager@@8 1002ac5c     _MainExInfoManager.obj
 0002:00007c74       ??_R1A@?0A@EA@CMainExInfoManager@@8 1002ac74     _MainExInfoManager.obj
 0002:00007c90       ??_R4?$CList@UTR_CODEINFOEX@@U1@@@6B@ 1002ac90     _MainExInfoManager.obj
 0002:00007ca4       ??_R3?$CList@UTR_CODEINFOEX@@U1@@@8 1002aca4     _MainExInfoManager.obj
 0002:00007cb4       ??_R2?$CList@UTR_CODEINFOEX@@U1@@@8 1002acb4     _MainExInfoManager.obj
 0002:00007cc0       ??_R1A@?0A@EA@?$CList@UTR_CODEINFOEX@@U1@@@8 1002acc0     _MainExInfoManager.obj
 0002:00007cdc       ??_R3IBaseDataString@@8    1002acdc     _MainInfoManager.obj
 0002:00007cec       ??_R2IBaseDataString@@8    1002acec     _MainInfoManager.obj
 0002:00007cf4       ??_R1A@?0A@EA@IBaseDataString@@8 1002acf4     _MainInfoManager.obj
 0002:00007d10       ??_R3IMainInfoManager@@8   1002ad10     _MainInfoManager.obj
 0002:00007d20       ??_R2IMainInfoManager@@8   1002ad20     _MainInfoManager.obj
 0002:00007d2c       ??_R1A@?0A@EA@IMainInfoManager@@8 1002ad2c     _MainInfoManager.obj
 0002:00007d48       ??_R4CMainInfoManager@@6B@ 1002ad48     _MainInfoManager.obj
 0002:00007d5c       ??_R3CMainInfoManager@@8   1002ad5c     _MainInfoManager.obj
 0002:00007d6c       ??_R2CMainInfoManager@@8   1002ad6c     _MainInfoManager.obj
 0002:00007d7c       ??_R1A@?0A@EA@CMainInfoManager@@8 1002ad7c     _MainInfoManager.obj
 0002:00007d98       ??_R3IMasterDataManagerBase@@8 1002ad98     _MasterDataManager.obj
 0002:00007da8       ??_R2IMasterDataManagerBase@@8 1002ada8     _MasterDataManager.obj
 0002:00007db0       ??_R1A@?0A@EA@IMasterDataManagerBase@@8 1002adb0     _MasterDataManager.obj
 0002:00007dcc       ??_R3IMasterDataManager@@8 1002adcc     _MasterDataManager.obj
 0002:00007ddc       ??_R2IMasterDataManager@@8 1002addc     _MasterDataManager.obj
 0002:00007de8       ??_R1A@?0A@EA@IMasterDataManager@@8 1002ade8     _MasterDataManager.obj
 0002:00007e04       ??_R3IMasterDataManager080902@@8 1002ae04     _MasterDataManager.obj
 0002:00007e14       ??_R2IMasterDataManager080902@@8 1002ae14     _MasterDataManager.obj
 0002:00007e24       ??_R1A@?0A@EA@IMasterDataManager080902@@8 1002ae24     _MasterDataManager.obj
 0002:00007e40       ??_R4?$CList@PAVCMDM_SubItemA@@PAV1@@@6B@ 1002ae40     _MasterDataManager.obj
 0002:00007e54       ??_R3?$CList@PAVCMDM_SubItemA@@PAV1@@@8 1002ae54     _MasterDataManager.obj
 0002:00007e64       ??_R2?$CList@PAVCMDM_SubItemA@@PAV1@@@8 1002ae64     _MasterDataManager.obj
 0002:00007e70       ??_R1A@?0A@EA@?$CList@PAVCMDM_SubItemA@@PAV1@@@8 1002ae70     _MasterDataManager.obj
 0002:00007e8c       ??_R4?$CList@PAUST_STRINGBYTE@@PAU1@@@6B@ 1002ae8c     _MasterDataManager.obj
 0002:00007ea0       ??_R3?$CList@PAUST_STRINGBYTE@@PAU1@@@8 1002aea0     _MasterDataManager.obj
 0002:00007eb0       ??_R2?$CList@PAUST_STRINGBYTE@@PAU1@@@8 1002aeb0     _MasterDataManager.obj
 0002:00007ebc       ??_R1A@?0A@EA@?$CList@PAUST_STRINGBYTE@@PAU1@@@8 1002aebc     _MasterDataManager.obj
 0002:00007ed8       ??_R4?$CList@PAUST_STRINGSTRING@@PAU1@@@6B@ 1002aed8     _MasterDataManager.obj
 0002:00007eec       ??_R3?$CList@PAUST_STRINGSTRING@@PAU1@@@8 1002aeec     _MasterDataManager.obj
 0002:00007efc       ??_R2?$CList@PAUST_STRINGSTRING@@PAU1@@@8 1002aefc     _MasterDataManager.obj
 0002:00007f08       ??_R1A@?0A@EA@?$CList@PAUST_STRINGSTRING@@PAU1@@@8 1002af08     _MasterDataManager.obj
 0002:00007f24       ??_R4CMasterDataManager@@6B@ 1002af24     _MasterDataManager.obj
 0002:00007f38       ??_R3CMasterDataManager@@8 1002af38     _MasterDataManager.obj
 0002:00007f48       ??_R2CMasterDataManager@@8 1002af48     _MasterDataManager.obj
 0002:00007f5c       ??_R1A@?0A@EA@CMasterDataManager@@8 1002af5c     _MasterDataManager.obj
 0002:00007f78       ??_R4?$CMap@V?$CStringT@DV?$StrTraitMFC_DLL@DV?$ChTraitsCRT@D@ATL@@@@@ATL@@PBDHH@@6B@ 1002af78     _MasterDataManager.obj
 0002:00007f8c       ??_R3?$CMap@V?$CStringT@DV?$StrTraitMFC_DLL@DV?$ChTraitsCRT@D@ATL@@@@@ATL@@PBDHH@@8 1002af8c     _MasterDataManager.obj
 0002:00007f9c       ??_R2?$CMap@V?$CStringT@DV?$StrTraitMFC_DLL@DV?$ChTraitsCRT@D@ATL@@@@@ATL@@PBDHH@@8 1002af9c     _MasterDataManager.obj
 0002:00007fa8       ??_R1A@?0A@EA@?$CMap@V?$CStringT@DV?$StrTraitMFC_DLL@DV?$ChTraitsCRT@D@ATL@@@@@ATL@@PBDHH@@8 1002afa8     _MasterDataManager.obj
 0002:00007fc4       ??_R3INewsSignalManager@@8 1002afc4     _NewSignalManager.obj
 0002:00007fd4       ??_R2INewsSignalManager@@8 1002afd4     _NewSignalManager.obj
 0002:00007fdc       ??_R1A@?0A@EA@INewsSignalManager@@8 1002afdc     _NewSignalManager.obj
 0002:00007ff8       ??_R4?$CList@PAUST_NewsSignalMng@@PAU1@@@6B@ 1002aff8     _NewSignalManager.obj
 0002:0000800c       ??_R3?$CList@PAUST_NewsSignalMng@@PAU1@@@8 1002b00c     _NewSignalManager.obj
 0002:0000801c       ??_R2?$CList@PAUST_NewsSignalMng@@PAU1@@@8 1002b01c     _NewSignalManager.obj
 0002:00008028       ??_R1A@?0A@EA@?$CList@PAUST_NewsSignalMng@@PAU1@@@8 1002b028     _NewSignalManager.obj
 0002:00008044       ??_R4CNewsSignalManager@@6B@ 1002b044     _NewSignalManager.obj
 0002:00008058       ??_R3CNewsSignalManager@@8 1002b058     _NewSignalManager.obj
 0002:00008068       ??_R2CNewsSignalManager@@8 1002b068     _NewSignalManager.obj
 0002:00008074       ??_R1A@?0A@EA@CNewsSignalManager@@8 1002b074     _NewSignalManager.obj
 0002:00008090       ??_R3IPCTRManager@@8       1002b090     _PCTrManager.obj
 0002:000080a0       ??_R2IPCTRManager@@8       1002b0a0     _PCTrManager.obj
 0002:000080a8       ??_R1A@?0A@EA@IPCTRManager@@8 1002b0a8     _PCTrManager.obj
 0002:000080c4       ??_R4CPCTRManager@@6B@     1002b0c4     _PCTrManager.obj
 0002:000080d8       ??_R3CPCTRManager@@8       1002b0d8     _PCTrManager.obj
 0002:000080e8       ??_R2CPCTRManager@@8       1002b0e8     _PCTrManager.obj
 0002:000080f4       ??_R1A@?0A@EA@CPCTRManager@@8 1002b0f4     _PCTrManager.obj
 0002:00008110       ??_R4?$CArray@UST_SKININFO@@U1@@@6B@ 1002b110     _SkinColorManager.obj
 0002:00008124       ??_R3?$CArray@UST_SKININFO@@U1@@@8 1002b124     _SkinColorManager.obj
 0002:00008134       ??_R2?$CArray@UST_SKININFO@@U1@@@8 1002b134     _SkinColorManager.obj
 0002:00008140       ??_R1A@?0A@EA@?$CArray@UST_SKININFO@@U1@@@8 1002b140     _SkinColorManager.obj
 0002:0000815c       ??_R3ISkinColorManager@@8  1002b15c     _SkinColorManager.obj
 0002:0000816c       ??_R2ISkinColorManager@@8  1002b16c     _SkinColorManager.obj
 0002:00008174       ??_R1A@?0A@EA@ISkinColorManager@@8 1002b174     _SkinColorManager.obj
 0002:00008190       ??_R4?$CArray@U_tabUserColorTable@@U1@@@6B@ 1002b190     _SkinColorManager.obj
 0002:000081a4       ??_R3?$CArray@U_tabUserColorTable@@U1@@@8 1002b1a4     _SkinColorManager.obj
 0002:000081b4       ??_R2?$CArray@U_tabUserColorTable@@U1@@@8 1002b1b4     _SkinColorManager.obj
 0002:000081c0       ??_R1A@?0A@EA@?$CArray@U_tabUserColorTable@@U1@@@8 1002b1c0     _SkinColorManager.obj
 0002:000081dc       ??_R4?$CList@PAUISkinColorSite@@PAU1@@@6B@ 1002b1dc     _SkinColorManager.obj
 0002:000081f0       ??_R3?$CList@PAUISkinColorSite@@PAU1@@@8 1002b1f0     _SkinColorManager.obj
 0002:00008200       ??_R2?$CList@PAUISkinColorSite@@PAU1@@@8 1002b200     _SkinColorManager.obj
 0002:0000820c       ??_R1A@?0A@EA@?$CList@PAUISkinColorSite@@PAU1@@@8 1002b20c     _SkinColorManager.obj
 0002:00008228       ??_R4CSkinColorManager@@6B@ 1002b228     _SkinColorManager.obj
 0002:0000823c       ??_R3CSkinColorManager@@8  1002b23c     _SkinColorManager.obj
 0002:0000824c       ??_R2CSkinColorManager@@8  1002b24c     _SkinColorManager.obj
 0002:00008258       ??_R1A@?0A@EA@CSkinColorManager@@8 1002b258     _SkinColorManager.obj
 0002:00008274       ??_R3ITrComm@@8            1002b274     _TRCommManager.obj
 0002:00008284       ??_R2ITrComm@@8            1002b284     _TRCommManager.obj
 0002:0000828c       ??_R1A@?0A@EA@ITrComm@@8   1002b28c     _TRCommManager.obj
 0002:000082a8       ??_R3ITrComm2@@8           1002b2a8     _TRCommManager.obj
 0002:000082b8       ??_R2ITrComm2@@8           1002b2b8     _TRCommManager.obj
 0002:000082c4       ??_R1A@?0A@EA@ITrComm2@@8  1002b2c4     _TRCommManager.obj
 0002:000082e0       ??_R3IAUTrCommManager@@8   1002b2e0     _TRCommManager.obj
 0002:000082f0       ??_R2IAUTrCommManager@@8   1002b2f0     _TRCommManager.obj
 0002:000082f8       ??_R1A@?0A@EA@IAUTrCommManager@@8 1002b2f8     _TRCommManager.obj
 0002:00008314       ??_R4CTRComm@@6B@          1002b314     _TRCommManager.obj
 0002:00008328       ??_R3CTRComm@@8            1002b328     _TRCommManager.obj
 0002:00008338       ??_R2CTRComm@@8            1002b338     _TRCommManager.obj
 0002:0000834c       ??_R1A@?0A@EA@CTRComm@@8   1002b34c     _TRCommManager.obj
 0002:00008368       ??_R4CTrCommImpl@@6B@      1002b368     _TRCommManager.obj
 0002:0000837c       ??_R3CTrCommImpl@@8        1002b37c     _TRCommManager.obj
 0002:0000838c       ??_R2CTrCommImpl@@8        1002b38c     _TRCommManager.obj
 0002:0000839c       ??_R1A@?0A@EA@CTrCommImpl@@8 1002b39c     _TRCommManager.obj
 0002:000083b8       ??_R4?$CList@PAVCTrCommImpl@@PAV1@@@6B@ 1002b3b8     _TRCommManager.obj
 0002:000083cc       ??_R3?$CList@PAVCTrCommImpl@@PAV1@@@8 1002b3cc     _TRCommManager.obj
 0002:000083dc       ??_R2?$CList@PAVCTrCommImpl@@PAV1@@@8 1002b3dc     _TRCommManager.obj
 0002:000083e8       ??_R1A@?0A@EA@?$CList@PAVCTrCommImpl@@PAV1@@@8 1002b3e8     _TRCommManager.obj
 0002:00008404       ??_R4CTrCommManager@@6B@   1002b404     _TRCommManager.obj
 0002:00008418       ??_R3CTrCommManager@@8     1002b418     _TRCommManager.obj
 0002:00008428       ??_R2CTrCommManager@@8     1002b428     _TRCommManager.obj
 0002:00008434       ??_R1A@?0A@EA@CTrCommManager@@8 1002b434     _TRCommManager.obj
 0002:00008450       ??_R3CNoTrackObject@@8     1002b450     mfcs140:dllmodul.obj
 0002:00008460       ??_R2CNoTrackObject@@8     1002b460     mfcs140:dllmodul.obj
 0002:00008468       ??_R1A@?0A@EA@CNoTrackObject@@8 1002b468     mfcs140:dllmodul.obj
 0002:00008484       ??_R4_AFX_DLL_MODULE_STATE@@6B@ 1002b484     mfcs140:dllmodul.obj
 0002:00008498       ??_R3_AFX_DLL_MODULE_STATE@@8 1002b498     mfcs140:dllmodul.obj
 0002:000084a8       ??_R2_AFX_DLL_MODULE_STATE@@8 1002b4a8     mfcs140:dllmodul.obj
 0002:000084b8       ??_R1A@?0A@EA@_AFX_DLL_MODULE_STATE@@8 1002b4b8     mfcs140:dllmodul.obj
 0002:000084d4       ??_R1A@?0A@EA@AFX_MODULE_STATE@@8 1002b4d4     mfcs140:dllmodul.obj
 0002:000084f0       ??_R3AFX_MODULE_STATE@@8   1002b4f0     mfcs140:dllmodul.obj
 0002:00008500       ??_R2AFX_MODULE_STATE@@8   1002b500     mfcs140:dllmodul.obj
 0002:0000850c       ??_R4type_info@@6B@        1002b50c     msvcrt:std_type_info_static.obj
 0002:00008520       ??_R3type_info@@8          1002b520     msvcrt:std_type_info_static.obj
 0002:00008530       ??_R2type_info@@8          1002b530     msvcrt:std_type_info_static.obj
 0002:00008538       ??_R1A@?0A@EA@type_info@@8 1002b538     msvcrt:std_type_info_static.obj
 0002:00008554       ___safe_se_handler_table   1002b554     <linker-defined>
 0002:00008780       ___volatile_metadata       1002b780     <linker-defined>
 0002:00008be4       ___rtc_iaa                 1002bbe4     msvcrt:initsect.obj
 0002:00008be8       ___rtc_izz                 1002bbe8     msvcrt:initsect.obj
 0002:00008bec       ___rtc_taa                 1002bbec     msvcrt:initsect.obj
 0002:00008bf0       ___rtc_tzz                 1002bbf0     msvcrt:initsect.obj
 0002:00008bf4       __tls_start                1002bbf4     msvcrt:tlssup.obj
 0002:00008bf8       __Init_thread_epoch        1002bbf8     msvcrt:thread_safe_statics.obj
 0002:00008bfc       __tls_end                  1002bbfc     msvcrt:tlssup.obj
 0002:0000ab2c       ___pobjMapEntryFirst       1002db2c     StdAfx.obj
 0002:0000ab30       ___pobjMapEntryLast        1002db30     StdAfx.obj
 0002:0000abd4       __IMPORT_DESCRIPTOR_mfc140 1002dbd4     mfc140:mfc140.dll
 0002:0000abe8       __IMPORT_DESCRIPTOR_KERNEL32 1002dbe8     kernel32:KERNEL32.dll
 0002:0000abfc       __IMPORT_DESCRIPTOR_USER32 1002dbfc     user32:USER32.dll
 0002:0000ac10       __IMPORT_DESCRIPTOR_GDI32  1002dc10     gdi32:GDI32.dll
 0002:0000ac24       __IMPORT_DESCRIPTOR_ADVAPI32 1002dc24     advapi32:ADVAPI32.dll
 0002:0000ac38       __IMPORT_DESCRIPTOR_ole32  1002dc38     ole32:ole32.dll
 0002:0000ac4c       __IMPORT_DESCRIPTOR_OLEAUT32 1002dc4c     oleaut32:OLEAUT32.dll
 0002:0000ac60       __IMPORT_DESCRIPTOR_VCRUNTIME140 1002dc60     vcruntime:VCRUNTIME140.dll
 0002:0000ac74       __IMPORT_DESCRIPTOR_api-ms-win-crt-stdio-l1-1-0 1002dc74     ucrt:api-ms-win-crt-stdio-l1-1-0.dll
 0002:0000ac88       __IMPORT_DESCRIPTOR_api-ms-win-crt-convert-l1-1-0 1002dc88     ucrt:api-ms-win-crt-convert-l1-1-0.dll
 0002:0000ac9c       __IMPORT_DESCRIPTOR_api-ms-win-crt-time-l1-1-0 1002dc9c     ucrt:api-ms-win-crt-time-l1-1-0.dll
 0002:0000acb0       __IMPORT_DESCRIPTOR_api-ms-win-crt-filesystem-l1-1-0 1002dcb0     ucrt:api-ms-win-crt-filesystem-l1-1-0.dll
 0002:0000acc4       __IMPORT_DESCRIPTOR_api-ms-win-crt-heap-l1-1-0 1002dcc4     ucrt:api-ms-win-crt-heap-l1-1-0.dll
 0002:0000acd8       __IMPORT_DESCRIPTOR_api-ms-win-crt-string-l1-1-0 1002dcd8     ucrt:api-ms-win-crt-string-l1-1-0.dll
 0002:0000acec       __IMPORT_DESCRIPTOR_api-ms-win-crt-utility-l1-1-0 1002dcec     ucrt:api-ms-win-crt-utility-l1-1-0.dll
 0002:0000ad00       __IMPORT_DESCRIPTOR_api-ms-win-crt-runtime-l1-1-0 1002dd00     ucrt:api-ms-win-crt-runtime-l1-1-0.dll
 0002:0000ad14       __NULL_IMPORT_DESCRIPTOR   1002dd14     mfc140:mfc140.dll
 0003:00000000       ?m_osInterfaceName@CDispDesk@@2PAPA_WA 1002f000     DispDesk.obj
 0003:000001d0       ?m_osInterfaceName@CDispFormData@@2PAPA_WA 1002f1d0     DispFormData.obj
 0003:00000248       ?m_osInterfaceName@CDispFormOpen@@2PAPA_WA 1002f248     DispFormOpen.obj
 0003:0000027c       ?m_osInterfaceName@CDispFrame@@2PAPA_WA 1002f27c     DispFrame.obj
 0003:00000298       ?m_osInterfaceName@CDispMain@@2PAPA_WA 1002f298     DispMain.obj
 0003:000003b0       ?m_osInterfaceName@CDispPrimLib@@2PAPA_WA 1002f3b0     DispPrimLib.obj
 0003:0000041c       ?m_osInterfaceName@CDispView@@2PAPA_WA 1002f41c     DispView.obj
 0003:00000430       ?m_osInterfaceName@CDispCodeOcx@@2PAPA_WA 1002f430     CodeOcx.obj
 0003:000004ac       __pIncludeInitManaged      1002f4ac     StdAfx.obj
 0003:000004b0       ?_AtlComModule@ATL@@3VCAtlComModule@1@A 1002f4b0     StdAfx.obj
 0003:000004d8       ?_AtlWinModule@ATL@@3VCAtlWinModule@1@A 1002f4d8     StdAfx.obj
 0003:00000504       ?sPipeName@@3PBDB          1002f504     Tracer.obj
 0003:00000508       ?gOffSize@@3HA             1002f508     TrComm.obj
 0003:0000050c       ?gUniqueID@@3HA            1002f50c     TrComm.obj
 0003:00000510       ?g_pszCFTiesCode@@3PAPADA  1002f510     _MasterDataManager.obj
 0003:00000528       ?g_pszCFTiesName@@3PAPADA  1002f528     _MasterDataManager.obj
 0003:00000540       ?g_pszSFTiesCode@@3PAPADA  1002f540     _MasterDataManager.obj
 0003:000005a8       ?g_pszSFTiesName@@3PAPADA  1002f5a8     _MasterDataManager.obj
 0003:00000610       _WinbaseIsolationAwarePrivateT_UnPgpgk 1002f610     mfcs140:nolib.obj
 0003:00000614       ___security_cookie_complement 1002f614     msvcrt:gs_cookie.obj
 0003:00000618       ___security_cookie         1002f618     msvcrt:gs_cookie.obj
 0003:0000061c       __fltused                  1002f61c     msvcrt:fltused.obj
 0003:00000620       ___scrt_native_dllmain_reason 1002f620     msvcrt:utility.obj
 0003:00000624       __Init_global_epoch        1002f624     msvcrt:thread_safe_statics.obj
 0003:00000630       ___isa_enabled             1002f630     msvcrt:cpu_disp.obj
 0003:00000634       ___scrt_ucrt_dll_is_in_use 1002f634     msvcrt:ucrt_stubs.obj
 0003:00000638       ??_R0PAVCMemoryException@@@8 1002f638     mfcs140:dllmodul.obj
 0003:00000658       ??_R0?AVCControlPos@@@8    1002f658     ControlPos.obj
 0003:00000674       ??_R0?AUIRegistryManager@@@8 1002f674     EtcUtil.obj
 0003:00000694       ??_R0?AVCRegistryManager@@@8 1002f694     EtcUtil.obj
 0003:000006b4       ??_R0?AVCObject@@@8        1002f6b4     GwanWnd.obj
 0003:000006cc       ??_R0?AVCWnd@@@8           1002f6cc     GwanWnd.obj
 0003:000006e0       ??_R0?AVCCmdTarget@@@8     1002f6e0     GwanWnd.obj
 0003:000006fc       ??_R0?AVCGwanWnd@@@8       1002f6fc     GwanWnd.obj
 0003:00000714       ??_R0?AVCNewsMoniterWnd@@@8 1002f714     NewsMoniterWnd.obj
 0003:00000734       ??_R0?AVCPCtrMainWnd@@@8   1002f734     PCtrMainWnd.obj
 0003:00000750       ??_R0?AUIGateManager@@@8   1002f750     PcTrMng.obj
 0003:0000076c       ??_R0?AUIDataUtilManager@@@8 1002f76c     PcTrMng.obj
 0003:0000078c       ??_R0?AUIDataUtilManager2@@@8 1002f78c     PcTrMng.obj
 0003:000007ac       ??_R0?AUISTManager@@@8     1002f7ac     PcTrMng.obj
 0003:000007c8       ??_R0?AUISystemUtilManager@@@8 1002f7c8     PcTrMng.obj
 0003:000007ec       ??_R0?AUISystemUtilManager2@@@8 1002f7ec     PcTrMng.obj
 0003:00000810       ??_R0?AVCGateManager@@@8   1002f810     PcTrMng.obj
 0003:0000082c       ??_R0?AVCDataUtilManager@@@8 1002f82c     PcTrMng.obj
 0003:0000084c       ??_R0?AV?$CList@PAVCSTManager_Info@@PAV1@@@@8 1002f84c     PcTrMng.obj
 0003:0000087c       ??_R0?AVCSTManager@@@8     1002f87c     PcTrMng.obj
 0003:00000898       ??_R0?AVCSystemUtilManager@@@8 1002f898     PcTrMng.obj
 0003:000008bc       ??_R0?AVCPcTrMngApp@@@8    1002f8bc     PcTrMng.obj
 0003:000008d8       ??_R0?AVCWinApp@@@8        1002f8d8     PcTrMng.obj
 0003:000008f0       ??_R0?AVCWinThread@@@8     1002f8f0     PcTrMng.obj
 0003:0000090c       ??_R0?AVCWin32Heap@ATL@@@8 1002f90c     StdAfx.obj
 0003:0000092c       ??_R0?AUIAtlMemMgr@ATL@@@8 1002f92c     StdAfx.obj
 0003:0000094c       ??_R0?AUIAtlStringMgr@ATL@@@8 1002f94c     StdAfx.obj
 0003:0000096c       ??_R0?AVCAtlStringMgr@ATL@@@8 1002f96c     StdAfx.obj
 0003:0000098c       ??_R0?AVCTracer@@@8        1002f98c     Tracer.obj
 0003:000009a4       ??_R0?AUICompanyManager@@@8 1002f9a4     _CompanyManager.obj
 0003:000009c4       ??_R0?AUICompanyManager_SS@@@8 1002f9c4     _CompanyManager.obj
 0003:000009e8       ??_R0?AVCCompanyManager@@@8 1002f9e8     _CompanyManager.obj
 0003:00000a08       ??_R0?AUIAUDataMonitorManager@@@8 1002fa08     _DataMonitorManager.obj
 0003:00000a2c       ??_R0?AV?$CList@VCDMMngInfo@@V1@@@@8 1002fa2c     _DataMonitorManager.obj
 0003:00000a54       ??_R0?AVCAUDataMonitorManager@@@8 1002fa54     _DataMonitorManager.obj
 0003:00000a78       ??_R0?AUIDebugManager@@@8  1002fa78     _DebugManager.obj
 0003:00000a94       ??_R0?AUIDebugManager2@@@8 1002fa94     _DebugManager.obj
 0003:00000ab4       ??_R0?AUIDebugManager3@@@8 1002fab4     _DebugManager.obj
 0003:00000ad4       ??_R0?AVCDebugManager@@@8  1002fad4     _DebugManager.obj
 0003:00000af0       ??_R0?AUIDrdsLib@@@8       1002faf0     _DrdsManager.obj
 0003:00000b08       ??_R0?AUIAUDrdsManager@@@8 1002fb08     _DrdsManager.obj
 0003:00000b28       ??_R0?AV?$CList@PAUIDrdsLib@@PAU1@@@@8 1002fb28     _DrdsManager.obj
 0003:00000b54       ??_R0?AVCAUDrdsManager@@@8 1002fb54     _DrdsManager.obj
 0003:00000b74       ??_R0?AVCDrdsLib@@@8       1002fb74     _DrdsManager.obj
 0003:00000b8c       ??_R0?AUIBaseDataDB@@@8    1002fb8c     _MainExInfoManager.obj
 0003:00000ba8       ??_R0?AVCCriticalSection@@@8 1002fba8     _MainExInfoManager.obj
 0003:00000bc8       ??_R0?AVCSyncObject@@@8    1002fbc8     _MainExInfoManager.obj
 0003:00000be4       ??_R0?AUIMainExInfoManager@@@8 1002fbe4     _MainExInfoManager.obj
 0003:00000c08       ??_R0?AUIMainExInfoManager2@@@8 1002fc08     _MainExInfoManager.obj
 0003:00000c2c       ??_R0?AUIMainExInfoManager3@@@8 1002fc2c     _MainExInfoManager.obj
 0003:00000c50       ??_R0?AV?$CList@PAUST_FOR_UserData@@PAU1@@@@8 1002fc50     _MainExInfoManager.obj
 0003:00000c80       ??_R0?AVCMainExInfoManager@@@8 1002fc80     _MainExInfoManager.obj
 0003:00000ca4       ??_R0?AV?$CList@UTR_CODEINFOEX@@U1@@@@8 1002fca4     _MainExInfoManager.obj
 0003:00000cd0       ??_R0?AUIBaseDataString@@@8 1002fcd0     _MainInfoManager.obj
 0003:00000cf0       ??_R0?AUIMainInfoManager@@@8 1002fcf0     _MainInfoManager.obj
 0003:00000d10       ??_R0?AVCMainInfoManager@@@8 1002fd10     _MainInfoManager.obj
 0003:00000d30       ??_R0?AUIMasterDataManagerBase@@@8 1002fd30     _MasterDataManager.obj
 0003:00000d58       ??_R0?AUIMasterDataManager@@@8 1002fd58     _MasterDataManager.obj
 0003:00000d7c       ??_R0?AUIMasterDataManager080902@@@8 1002fd7c     _MasterDataManager.obj
 0003:00000da4       ??_R0?AV?$CList@PAVCMDM_SubItemA@@PAV1@@@@8 1002fda4     _MasterDataManager.obj
 0003:00000dd4       ??_R0?AV?$CList@PAUST_STRINGBYTE@@PAU1@@@@8 1002fdd4     _MasterDataManager.obj
 0003:00000e04       ??_R0?AV?$CList@PAUST_STRINGSTRING@@PAU1@@@@8 1002fe04     _MasterDataManager.obj
 0003:00000e34       ??_R0?AVCMasterDataManager@@@8 1002fe34     _MasterDataManager.obj
 0003:00000e58       ??_R0?AV?$CMap@V?$CStringT@DV?$StrTraitMFC_DLL@DV?$ChTraitsCRT@D@ATL@@@@@ATL@@PBDHH@@@8 1002fe58     _MasterDataManager.obj
 0003:00000eb4       ??_R0?AUINewsSignalManager@@@8 1002feb4     _NewSignalManager.obj
 0003:00000ed8       ??_R0?AV?$CList@PAUST_NewsSignalMng@@PAU1@@@@8 1002fed8     _NewSignalManager.obj
 0003:00000f0c       ??_R0?AVCNewsSignalManager@@@8 1002ff0c     _NewSignalManager.obj
 0003:00000f30       ??_R0?AUIPCTRManager@@@8   1002ff30     _PCTrManager.obj
 0003:00000f4c       ??_R0?AVCPCTRManager@@@8   1002ff4c     _PCTrManager.obj
 0003:00000f68       ??_R0?AV?$CArray@UST_SKININFO@@U1@@@@8 1002ff68     _SkinColorManager.obj
 0003:00000f94       ??_R0?AUISkinColorManager@@@8 1002ff94     _SkinColorManager.obj
 0003:00000fb4       ??_R0?AV?$CArray@U_tabUserColorTable@@U1@@@@8 1002ffb4     _SkinColorManager.obj
 0003:00000fe4       ??_R0?AV?$CList@PAUISkinColorSite@@PAU1@@@@8 1002ffe4     _SkinColorManager.obj
 0003:00001014       ??_R0?AVCSkinColorManager@@@8 10030014     _SkinColorManager.obj
 0003:00001034       ??_R0?AUITrComm@@@8        10030034     _TRCommManager.obj
 0003:0000104c       ??_R0?AUITrComm2@@@8       1003004c     _TRCommManager.obj
 0003:00001064       ??_R0?AUIAUTrCommManager@@@8 10030064     _TRCommManager.obj
 0003:00001084       ??_R0?AVCTRComm@@@8        10030084     _TRCommManager.obj
 0003:0000109c       ??_R0?AVCTrCommImpl@@@8    1003009c     _TRCommManager.obj
 0003:000010b8       ??_R0?AV?$CList@PAVCTrCommImpl@@PAV1@@@@8 100300b8     _TRCommManager.obj
 0003:000010e4       ??_R0?AVCTrCommManager@@@8 100300e4     _TRCommManager.obj
 0003:00001104       ??_R0?AVCNoTrackObject@@@8 10030104     mfcs140:dllmodul.obj
 0003:00001124       ??_R0?AV_AFX_DLL_MODULE_STATE@@@8 10030124     mfcs140:dllmodul.obj
 0003:00001148       ??_R0?AVAFX_MODULE_STATE@@@8 10030148     mfcs140:dllmodul.obj
 0003:00001168       ??_R0?AVtype_info@@@8      10030168     msvcrt:std_type_info_static.obj
 0003:000011d8       ?_OptionsStorage@?1??__local_stdio_printf_options@@9@4_KA 100301d8     PcTrMng.obj
 0003:000011f8       ?theApp@@3VCPcTrMngApp@@A  100301f8     PcTrMng.obj
 0003:000016b8       ___@@_PchSym_@00@UtrgUhixUrypUrypPwiumUKxwwiumRxhUPlyqUkxginmtUhgwzucOlyq@4B2008FD98C1DD4 100306b8     StdAfx.obj
 0003:000016bc       ?strHeap@?1??GetInstance@CAtlStringMgr@ATL@@SAPAUIAtlStringMgr@3@XZ@4VCWin32Heap@3@A 100306bc     StdAfx.obj
 0003:000016c8       ?$TSS0@?1??GetInstance@CAtlStringMgr@ATL@@SAPAUIAtlStringMgr@3@XZ@4HA 100306c8     StdAfx.obj
 0003:000016cc       ?strMgr@?1??GetInstance@CAtlStringMgr@ATL@@SAPAUIAtlStringMgr@3@XZ@4V23@A 100306cc     StdAfx.obj
 0003:000016e8       ?$TSS1@?1??GetInstance@CAtlStringMgr@ATL@@SAPAUIAtlStringMgr@3@XZ@4HA 100306e8     StdAfx.obj
 0003:000016ec       ?m_bInitFailed@CAtlBaseModule@ATL@@2_NA 100306ec     StdAfx.obj
 0003:000016f0       ?_pPerfRegFunc@ATL@@3P6AJPAUHINSTANCE__@@@ZA 100306f0     StdAfx.obj
 0003:000016f4       ?_pPerfUnRegFunc@ATL@@3P6AJXZA 100306f4     StdAfx.obj
 0003:000016f8       ?_AtlRegisterPerUser@ATL@@3_NA 100306f8     StdAfx.obj
 0003:000016fc       ?_pAtlModule@ATL@@3PAVCAtlModule@1@A 100306fc     StdAfx.obj
 0003:00001700       ?_pModule@ATL@@3PAVCComModule@1@A 10030700     StdAfx.obj
 0003:00001704       ?_pAtlAutoThreadModule@ATL@@3PAUIAtlAutoThreadModule@1@A 10030704     StdAfx.obj
 0003:00001708       ?atlTraceGeneral@ATL@@3V?$CTraceCategoryEx@$00$0A@@1@A 10030708     StdAfx.obj
 0003:0000170c       ?atlTraceCOM@ATL@@3V?$CTraceCategoryEx@$01$0A@@1@A 1003070c     StdAfx.obj
 0003:00001710       ?atlTraceQI@ATL@@3V?$CTraceCategoryEx@$03$0A@@1@A 10030710     StdAfx.obj
 0003:00001714       ?atlTraceRegistrar@ATL@@3V?$CTraceCategoryEx@$07$0A@@1@A 10030714     StdAfx.obj
 0003:00001718       ?atlTraceRefcount@ATL@@3V?$CTraceCategoryEx@$0BA@$0A@@1@A 10030718     StdAfx.obj
 0003:0000171c       ?atlTraceWindowing@ATL@@3V?$CTraceCategoryEx@$0CA@$0A@@1@A 1003071c     StdAfx.obj
 0003:00001720       ?atlTraceControls@ATL@@3V?$CTraceCategoryEx@$0EA@$0A@@1@A 10030720     StdAfx.obj
 0003:00001724       ?atlTraceHosting@ATL@@3V?$CTraceCategoryEx@$0IA@$0A@@1@A 10030724     StdAfx.obj
 0003:00001728       ?atlTraceDBClient@ATL@@3V?$CTraceCategoryEx@$0BAA@$0A@@1@A 10030728     StdAfx.obj
 0003:0000172c       ?atlTraceDBProvider@ATL@@3V?$CTraceCategoryEx@$0CAA@$0A@@1@A 1003072c     StdAfx.obj
 0003:00001730       ?atlTraceSnapin@ATL@@3V?$CTraceCategoryEx@$0EAA@$0A@@1@A 10030730     StdAfx.obj
 0003:00001734       ?atlTraceNotImpl@ATL@@3V?$CTraceCategoryEx@$0IAA@$0A@@1@A 10030734     StdAfx.obj
 0003:00001738       ?atlTraceAllocation@ATL@@3V?$CTraceCategoryEx@$0BAAA@$0A@@1@A 10030738     StdAfx.obj
 0003:0000173c       ?atlTraceException@ATL@@3V?$CTraceCategoryEx@$0CAAA@$0A@@1@A 1003073c     StdAfx.obj
 0003:00001740       ?atlTraceTime@ATL@@3V?$CTraceCategoryEx@$0EAAA@$0A@@1@A 10030740     StdAfx.obj
 0003:00001744       ?atlTraceCache@ATL@@3V?$CTraceCategoryEx@$0IAAA@$0A@@1@A 10030744     StdAfx.obj
 0003:00001748       ?atlTraceStencil@ATL@@3V?$CTraceCategoryEx@$0BAAAA@$0A@@1@A 10030748     StdAfx.obj
 0003:0000174c       ?atlTraceString@ATL@@3V?$CTraceCategoryEx@$0CAAAA@$0A@@1@A 1003074c     StdAfx.obj
 0003:00001750       ?atlTraceMap@ATL@@3V?$CTraceCategoryEx@$0EAAAA@$0A@@1@A 10030750     StdAfx.obj
 0003:00001754       ?atlTraceUtil@ATL@@3V?$CTraceCategoryEx@$0IAAAA@$0A@@1@A 10030754     StdAfx.obj
 0003:00001758       ?atlTraceSecurity@ATL@@3V?$CTraceCategoryEx@$0BAAAAA@$0A@@1@A 10030758     StdAfx.obj
 0003:0000175c       ?atlTraceSync@ATL@@3V?$CTraceCategoryEx@$0CAAAAA@$0A@@1@A 1003075c     StdAfx.obj
 0003:00001760       ?atlTraceISAPI@ATL@@3V?$CTraceCategoryEx@$0EAAAAA@$0A@@1@A 10030760     StdAfx.obj
 0003:00001764       ?isInitialized@CAtlStringMgr@ATL@@0_NA 10030764     StdAfx.obj
 0003:00001765       ?InitializeCAtlStringMgr@ATLImplementationDetails@ATL@@3UCAtlStringMgrStaticInitializer@12@A 10030765     StdAfx.obj
 0003:00001768       ?_OptionsStorage@?1??__local_stdio_scanf_options@@9@4_KA 10030768     TrComm.obj
 0003:000017ec       ?m_uRMSG_HandleToDebug@@3IA 100307ec     _DebugManager.obj
 0003:00001850       ?gHtsMode@@3PADA           10030850     _MainInfoManager.obj
 0003:00001934       _IsolationAwarePrivateT_SqbjaYRiRY 10030934     mfcs140:nolib.obj
 0003:00001938       _IsolationAwarePrivateT_SAbnPgpgk 10030938     mfcs140:nolib.obj
 0003:0000193c       _WinbaseIsolationAwarePrivateT_SpeRNgRQnPgpgk 1003093c     mfcs140:nolib.obj
 0003:00001940       _WinbaseIsolationAwarePrivateT_SpYRNahcpNYYRQ 10030940     mfcs140:nolib.obj
 0003:00001944       __afxForceEXCLUDE          10030944     mfcs140:nolib.obj
 0003:00001948       ?s_pfn@?1??IsolationAwareCreateActCtxW@@9@4@4P6GPAXPBUtagACTCTXW@@@ZA 10030948     mfcs140:nolib.obj
 0003:0000194c       ?s_pfn@?1??IsolationAwareActivateActCtx@@9@8@4P6GHPAXPAK@ZA 1003094c     mfcs140:nolib.obj
 0003:00001950       ?s_pfn@?1??IsolationAwareDeactivateActCtx@@9@8@4P6GHKK@ZA 10030950     mfcs140:nolib.obj
 0003:00001954       ?s_pfn@?1??IsolationAwareFindActCtxSectionStringW@@9@20@4P6GHKPBU_GUID@@KPB_WPAUtagACTCTX_SECTION_KEYED_DATA@@@ZA 10030954     mfcs140:nolib.obj
 0003:00001958       ?s_pfn@?1??IsolationAwareQueryActCtxW@@9@28@4P6GHKPAX0K0KPAK@ZA 10030958     mfcs140:nolib.obj
 0003:0000195c       ?m@?1??WinbaseIsolationAwarePrivatetRgCebPnQQeRff_xReaRYQP_QYY@@9@4@4UIsolationAwarePrivate_zHGnoyr_zBqHyr_vAsB@@A 1003095c     mfcs140:nolib.obj
 0003:00001960       ??_B?1??GetInstance@CAtlStringMgr@ATL@@SAPAUIAtlStringMgr@2@XZ@51 10030960     mfcs140:nolib.obj
 0003:00001968       __afxForceUSRDLL           10030968     mfcs140:dllmodul.obj
 0003:00001a20       ?__mixedModuleStartup@@3HA 10030a20     mfcs140:dllmodul.obj
 0003:00001a24       __afxForceSTDAFX           10030a24     mfcs140:stdafx.obj
 0003:00001a28       ___scrt_current_native_startup_state 10030a28     msvcrt:utility.obj
 0003:00001a2c       ___scrt_native_startup_lock 10030a2c     msvcrt:utility.obj
 0003:00001a74       __tls_index                10030a74     msvcrt:tlssup.obj
 0003:00001d98       ___castguard_check_failure_os_handled_fptr 10030d98     msvcrt:guard_support.obj
 0003:00001d9c       ___isa_available           10030d9c     msvcrt:cpu_disp.obj
 0003:00001da0       ___favor                   10030da0     msvcrt:cpu_disp.obj
 0003:00001da4       ___scrt_debugger_hook_flag 10030da4     msvcrt:utility_desktop.obj
 0003:00001da8       ?__type_info_root_node@@3U__type_info_node@@A 10030da8     msvcrt:tncleanup.obj
 0003:00001db0       ?_AtlBaseModule@ATL@@3VCAtlBaseModule@1@A 10030db0     atls:atlbase.obj
 0003:00001de8       ___@@_PchSym_@00@UzUPdlipUBUhUrmgvinvwrzgvUexgllohUzgohOmzgrevkilqPBACIAJCBDBUlyqiUcIGUhgwzucOlyq@4B2008FD98C1DD4 10030de8     atls:stdafx.obj
 0003:00001dec       ___dyn_tls_init_callback   10030dec     <common>

 entry point at        0001:0001db45

 Static symbols

 0000:fffca000       .debug$S                   10000000     PCTRMNG.exp
 0002:fffdd000       __ehfuncinfo$??1?$CList@PAVCSTManager_Info@@PAV1@@@UAE@XZ 10000000     _STManager.obj
 0001:fffff000       __ehhandler$??1?$CList@PAVCSTManager_Info@@PAV1@@@UAE@XZ 10000000 f   _STManager.obj
 0001:fffff000       __ehhandler$??_G?$CList@PAVCSTManager_Info@@PAV1@@@UAEPAXI@Z 10000000 f   _STManager.obj
 0002:fffdd000       __unwindtable$??_G?$CList@PAVCSTManager_Info@@PAV1@@@UAEPAXI@Z 10000000     _STManager.obj
 0002:fffdd000       __guard_fids_??__E_AtlBaseModule@ATL@@YAXXZ 10000000     atls:atlbase.obj
 0002:fffdd000       __guard_fids__             10000000     atls:atlbase.obj
 0000:fffca000       .debug$S                   10000000     mfc140:mfc140.dll
 0000:fffca000       .debug$S                   10000000     mfc140:mfc140.dll
 0000:fffca000       .debug$S                   10000000     mfc140:mfc140.dll
 0000:fffca000       .debug$S                   10000000     mfc140:mfc140.dll
 0000:fffca000       .debug$S                   10000000     mfc140:mfc140.dll
 0000:fffca000       .debug$S                   10000000     mfc140:mfc140.dll
 0000:fffca000       .debug$S                   10000000     mfc140:mfc140.dll
 0000:fffca000       .debug$S                   10000000     mfc140:mfc140.dll
 0000:fffca000       .debug$S                   10000000     mfc140:mfc140.dll
 0000:fffca000       .debug$S                   10000000     mfc140:mfc140.dll
 0000:fffca000       .debug$S                   10000000     mfc140:mfc140.dll
 0000:fffca000       .debug$S                   10000000     mfc140:mfc140.dll
 0000:fffca000       .debug$S                   10000000     mfc140:mfc140.dll
 0000:fffca000       .debug$S                   10000000     mfc140:mfc140.dll
 0000:fffca000       .debug$S                   10000000     mfc140:mfc140.dll
 0000:fffca000       .debug$S                   10000000     mfc140:mfc140.dll
 0000:fffca000       .debug$S                   10000000     mfc140:mfc140.dll
 0000:fffca000       .debug$S                   10000000     mfc140:mfc140.dll
 0000:fffca000       .debug$S                   10000000     mfc140:mfc140.dll
 0000:fffca000       .debug$S                   10000000     mfc140:mfc140.dll
 0000:fffca000       .debug$S                   10000000     mfc140:mfc140.dll
 0000:fffca000       .debug$S                   10000000     mfc140:mfc140.dll
 0000:fffca000       .debug$S                   10000000     mfc140:mfc140.dll
 0000:fffca000       .debug$S                   10000000     mfc140:mfc140.dll
 0000:fffca000       .debug$S                   10000000     mfc140:mfc140.dll
 0000:fffca000       .debug$S                   10000000     mfc140:mfc140.dll
 0000:fffca000       .debug$S                   10000000     mfc140:mfc140.dll
 0000:fffca000       .debug$S                   10000000     mfc140:mfc140.dll
 0000:fffca000       .debug$S                   10000000     mfc140:mfc140.dll
 0000:fffca000       .debug$S                   10000000     mfc140:mfc140.dll
 0000:fffca000       .debug$S                   10000000     mfc140:mfc140.dll
 0000:fffca000       .debug$S                   10000000     mfc140:mfc140.dll
 0000:fffca000       .debug$S                   10000000     mfc140:mfc140.dll
 0000:fffca000       .debug$S                   10000000     mfc140:mfc140.dll
 0000:fffca000       .debug$S                   10000000     mfc140:mfc140.dll
 0000:fffca000       .debug$S                   10000000     mfc140:mfc140.dll
 0000:fffca000       .debug$S                   10000000     mfc140:mfc140.dll
 0000:fffca000       .debug$S                   10000000     mfc140:mfc140.dll
 0000:fffca000       .debug$S                   10000000     mfc140:mfc140.dll
 0000:fffca000       .debug$S                   10000000     mfc140:mfc140.dll
 0000:fffca000       .debug$S                   10000000     mfc140:mfc140.dll
 0000:fffca000       .debug$S                   10000000     mfc140:mfc140.dll
 0000:fffca000       .debug$S                   10000000     mfc140:mfc140.dll
 0000:fffca000       .debug$S                   10000000     mfc140:mfc140.dll
 0000:fffca000       .debug$S                   10000000     mfc140:mfc140.dll
 0000:fffca000       .debug$S                   10000000     mfc140:mfc140.dll
 0000:fffca000       .debug$S                   10000000     mfc140:mfc140.dll
 0000:fffca000       .debug$S                   10000000     mfc140:mfc140.dll
 0000:fffca000       .debug$S                   10000000     mfc140:mfc140.dll
 0000:fffca000       .debug$S                   10000000     mfc140:mfc140.dll
 0000:fffca000       .debug$S                   10000000     mfc140:mfc140.dll
 0000:fffca000       .debug$S                   10000000     mfc140:mfc140.dll
 0000:fffca000       .debug$S                   10000000     mfc140:mfc140.dll
 0000:fffca000       .debug$S                   10000000     mfc140:mfc140.dll
 0000:fffca000       .debug$S                   10000000     mfc140:mfc140.dll
 0000:fffca000       .debug$S                   10000000     mfc140:mfc140.dll
 0000:fffca000       .debug$S                   10000000     mfc140:mfc140.dll
 0000:fffca000       .debug$S                   10000000     mfc140:mfc140.dll
 0000:fffca000       .debug$S                   10000000     mfc140:mfc140.dll
 0000:fffca000       .debug$S                   10000000     mfc140:mfc140.dll
 0000:fffca000       .debug$S                   10000000     mfc140:mfc140.dll
 0000:fffca000       .debug$S                   10000000     mfc140:mfc140.dll
 0000:fffca000       .debug$S                   10000000     mfc140:mfc140.dll
 0000:fffca000       .debug$S                   10000000     mfc140:mfc140.dll
 0000:fffca000       .debug$S                   10000000     mfc140:mfc140.dll
 0000:fffca000       .debug$S                   10000000     mfc140:mfc140.dll
 0000:fffca000       .debug$S                   10000000     mfc140:mfc140.dll
 0000:fffca000       .debug$S                   10000000     mfc140:mfc140.dll
 0000:fffca000       .debug$S                   10000000     mfc140:mfc140.dll
 0000:fffca000       .debug$S                   10000000     mfc140:mfc140.dll
 0000:fffca000       .debug$S                   10000000     mfc140:mfc140.dll
 0000:fffca000       .debug$S                   10000000     mfc140:mfc140.dll
 0000:fffca000       .debug$S                   10000000     mfc140:mfc140.dll
 0000:fffca000       .debug$S                   10000000     mfc140:mfc140.dll
 0000:fffca000       .debug$S                   10000000     mfc140:mfc140.dll
 0000:fffca000       .debug$S                   10000000     mfc140:mfc140.dll
 0000:fffca000       .debug$S                   10000000     mfc140:mfc140.dll
 0000:fffca000       .debug$S                   10000000     mfc140:mfc140.dll
 0000:fffca000       .debug$S                   10000000     mfc140:mfc140.dll
 0000:fffca000       .debug$S                   10000000     mfc140:mfc140.dll
 0000:fffca000       .debug$S                   10000000     mfc140:mfc140.dll
 0000:fffca000       .debug$S                   10000000     mfc140:mfc140.dll
 0000:fffca000       .debug$S                   10000000     mfc140:mfc140.dll
 0000:fffca000       .debug$S                   10000000     mfc140:mfc140.dll
 0000:fffca000       .debug$S                   10000000     mfc140:mfc140.dll
 0000:fffca000       .debug$S                   10000000     mfc140:mfc140.dll
 0000:fffca000       .debug$S                   10000000     mfc140:mfc140.dll
 0000:fffca000       .debug$S                   10000000     mfc140:mfc140.dll
 0000:fffca000       .debug$S                   10000000     mfc140:mfc140.dll
 0000:fffca000       .debug$S                   10000000     mfc140:mfc140.dll
 0000:fffca000       .debug$S                   10000000     mfc140:mfc140.dll
 0000:fffca000       .debug$S                   10000000     mfc140:mfc140.dll
 0000:fffca000       .debug$S                   10000000     mfc140:mfc140.dll
 0000:fffca000       .debug$S                   10000000     mfc140:mfc140.dll
 0000:fffca000       .debug$S                   10000000     mfc140:mfc140.dll
 0000:fffca000       .debug$S                   10000000     mfc140:mfc140.dll
 0000:fffca000       .debug$S                   10000000     mfc140:mfc140.dll
 0000:fffca000       .debug$S                   10000000     mfc140:mfc140.dll
 0000:fffca000       .debug$S                   10000000     mfc140:mfc140.dll
 0000:fffca000       .debug$S                   10000000     mfc140:mfc140.dll
 0000:fffca000       .debug$S                   10000000     mfc140:mfc140.dll
 0000:fffca000       .debug$S                   10000000     mfc140:mfc140.dll
 0000:fffca000       .debug$S                   10000000     mfc140:mfc140.dll
 0000:fffca000       .debug$S                   10000000     mfc140:mfc140.dll
 0000:fffca000       .debug$S                   10000000     mfc140:mfc140.dll
 0000:fffca000       .debug$S                   10000000     mfc140:mfc140.dll
 0000:fffca000       .debug$S                   10000000     mfc140:mfc140.dll
 0000:fffca000       .debug$S                   10000000     mfc140:mfc140.dll
 0000:fffca000       .debug$S                   10000000     mfc140:mfc140.dll
 0000:fffca000       .debug$S                   10000000     mfc140:mfc140.dll
 0000:fffca000       .debug$S                   10000000     mfc140:mfc140.dll
 0000:fffca000       .debug$S                   10000000     mfc140:mfc140.dll
 0000:fffca000       .debug$S                   10000000     mfc140:mfc140.dll
 0000:fffca000       .debug$S                   10000000     mfc140:mfc140.dll
 0000:fffca000       .debug$S                   10000000     mfc140:mfc140.dll
 0000:fffca000       .debug$S                   10000000     mfc140:mfc140.dll
 0000:fffca000       .debug$S                   10000000     mfc140:mfc140.dll
 0000:fffca000       .debug$S                   10000000     mfc140:mfc140.dll
 0000:fffca000       .debug$S                   10000000     mfc140:mfc140.dll
 0000:fffca000       .debug$S                   10000000     mfc140:mfc140.dll
 0000:fffca000       .debug$S                   10000000     mfc140:mfc140.dll
 0000:fffca000       .debug$S                   10000000     mfc140:mfc140.dll
 0000:fffca000       .debug$S                   10000000     mfc140:mfc140.dll
 0000:fffca000       .debug$S                   10000000     mfc140:mfc140.dll
 0000:fffca000       .debug$S                   10000000     mfc140:mfc140.dll
 0000:fffca000       .debug$S                   10000000     mfc140:mfc140.dll
 0000:fffca000       .debug$S                   10000000     mfc140:mfc140.dll
 0000:fffca000       .debug$S                   10000000     mfc140:mfc140.dll
 0000:fffca000       .debug$S                   10000000     mfc140:mfc140.dll
 0000:fffca000       .debug$S                   10000000     mfc140:mfc140.dll
 0000:fffca000       .debug$S                   10000000     mfc140:mfc140.dll
 0000:fffca000       .debug$S                   10000000     mfc140:mfc140.dll
 0000:fffca000       .debug$S                   10000000     mfc140:mfc140.dll
 0000:fffca000       .debug$S                   10000000     mfc140:mfc140.dll
 0000:fffca000       .debug$S                   10000000     mfc140:mfc140.dll
 0000:fffca000       .debug$S                   10000000     mfc140:mfc140.dll
 0000:fffca000       .debug$S                   10000000     mfc140:mfc140.dll
 0000:fffca000       .debug$S                   10000000     mfc140:mfc140.dll
 0000:fffca000       .debug$S                   10000000     mfc140:mfc140.dll
 0000:fffca000       .debug$S                   10000000     mfc140:mfc140.dll
 0000:fffca000       .debug$S                   10000000     mfc140:mfc140.dll
 0000:fffca000       .debug$S                   10000000     mfc140:mfc140.dll
 0000:fffca000       .debug$S                   10000000     mfc140:mfc140.dll
 0000:fffca000       .debug$S                   10000000     mfc140:mfc140.dll
 0000:fffca000       .debug$S                   10000000     mfc140:mfc140.dll
 0000:fffca000       .debug$S                   10000000     mfc140:mfc140.dll
 0000:fffca000       .debug$S                   10000000     mfc140:mfc140.dll
 0000:fffca000       .debug$S                   10000000     mfc140:mfc140.dll
 0000:fffca000       .debug$S                   10000000     mfc140:mfc140.dll
 0000:fffca000       .debug$S                   10000000     mfc140:mfc140.dll
 0000:fffca000       .debug$S                   10000000     mfc140:mfc140.dll
 0000:fffca000       .debug$S                   10000000     mfc140:mfc140.dll
 0000:fffca000       .debug$S                   10000000     mfc140:mfc140.dll
 0000:fffca000       .debug$S                   10000000     mfc140:mfc140.dll
 0000:fffca000       .debug$S                   10000000     mfc140:mfc140.dll
 0000:fffca000       .debug$S                   10000000     mfc140:mfc140.dll
 0000:fffca000       .debug$S                   10000000     mfc140:mfc140.dll
 0000:fffca000       .debug$S                   10000000     mfc140:mfc140.dll
 0000:fffca000       .debug$S                   10000000     mfc140:mfc140.dll
 0000:fffca000       .debug$S                   10000000     mfc140:mfc140.dll
 0000:fffca000       .debug$S                   10000000     mfc140:mfc140.dll
 0000:fffca000       .debug$S                   10000000     mfc140:mfc140.dll
 0000:fffca000       .debug$S                   10000000     mfc140:mfc140.dll
 0000:fffca000       .debug$S                   10000000     mfc140:mfc140.dll
 0000:fffca000       .debug$S                   10000000     mfc140:mfc140.dll
 0000:fffca000       .debug$S                   10000000     mfc140:mfc140.dll
 0000:fffca000       .debug$S                   10000000     mfc140:mfc140.dll
 0000:fffca000       .debug$S                   10000000     mfc140:mfc140.dll
 0000:fffca000       .debug$S                   10000000     mfc140:mfc140.dll
 0000:fffca000       .debug$S                   10000000     mfc140:mfc140.dll
 0000:fffca000       .debug$S                   10000000     mfc140:mfc140.dll
 0000:fffca000       .debug$S                   10000000     mfc140:mfc140.dll
 0000:fffca000       .debug$S                   10000000     mfc140:mfc140.dll
 0000:fffca000       .debug$S                   10000000     mfc140:mfc140.dll
 0000:fffca000       .debug$S                   10000000     mfc140:mfc140.dll
 0000:fffca000       .debug$S                   10000000     mfc140:mfc140.dll
 0000:fffca000       .debug$S                   10000000     mfc140:mfc140.dll
 0000:fffca000       .debug$S                   10000000     mfc140:mfc140.dll
 0000:fffca000       .debug$S                   10000000     mfc140:mfc140.dll
 0000:fffca000       .debug$S                   10000000     mfc140:mfc140.dll
 0000:fffca000       .debug$S                   10000000     mfc140:mfc140.dll
 0000:fffca000       .debug$S                   10000000     mfc140:mfc140.dll
 0000:fffca000       .debug$S                   10000000     mfc140:mfc140.dll
 0000:fffca000       .debug$S                   10000000     mfc140:mfc140.dll
 0000:fffca000       .debug$S                   10000000     mfc140:mfc140.dll
 0000:fffca000       .debug$S                   10000000     mfc140:mfc140.dll
 0000:fffca000       .debug$S                   10000000     mfc140:mfc140.dll
 0000:fffca000       .debug$S                   10000000     mfc140:mfc140.dll
 0000:fffca000       .debug$S                   10000000     mfc140:mfc140.dll
 0000:fffca000       .debug$S                   10000000     mfc140:mfc140.dll
 0000:fffca000       .debug$S                   10000000     mfc140:mfc140.dll
 0000:fffca000       .debug$S                   10000000     mfc140:mfc140.dll
 0000:fffca000       .debug$S                   10000000     mfc140:mfc140.dll
 0000:fffca000       .debug$S                   10000000     mfc140:mfc140.dll
 0000:fffca000       .debug$S                   10000000     mfc140:mfc140.dll
 0000:fffca000       .debug$S                   10000000     mfc140:mfc140.dll
 0000:fffca000       .debug$S                   10000000     mfc140:mfc140.dll
 0000:fffca000       .debug$S                   10000000     mfc140:mfc140.dll
 0000:fffca000       .debug$S                   10000000     mfc140:mfc140.dll
 0000:fffca000       .debug$S                   10000000     mfc140:mfc140.dll
 0000:fffca000       .debug$S                   10000000     mfc140:mfc140.dll
 0000:fffca000       .debug$S                   10000000     mfc140:mfc140.dll
 0000:fffca000       .debug$S                   10000000     mfc140:mfc140.dll
 0000:fffca000       .debug$S                   10000000     mfc140:mfc140.dll
 0000:fffca000       .debug$S                   10000000     mfc140:mfc140.dll
 0000:fffca000       .debug$S                   10000000     mfc140:mfc140.dll
 0000:fffca000       .debug$S                   10000000     mfc140:mfc140.dll
 0000:fffca000       .debug$S                   10000000     mfc140:mfc140.dll
 0000:fffca000       .debug$S                   10000000     mfc140:mfc140.dll
 0000:fffca000       .debug$S                   10000000     mfc140:mfc140.dll
 0000:fffca000       .debug$S                   10000000     mfc140:mfc140.dll
 0000:fffca000       .debug$S                   10000000     mfc140:mfc140.dll
 0000:fffca000       .debug$S                   10000000     mfc140:mfc140.dll
 0000:fffca000       .debug$S                   10000000     mfc140:mfc140.dll
 0000:fffca000       .debug$S                   10000000     mfc140:mfc140.dll
 0000:fffca000       .debug$S                   10000000     mfc140:mfc140.dll
 0000:fffca000       .debug$S                   10000000     mfc140:mfc140.dll
 0000:fffca000       .debug$S                   10000000     mfc140:mfc140.dll
 0000:fffca000       .debug$S                   10000000     mfc140:mfc140.dll
 0000:fffca000       .debug$S                   10000000     mfc140:mfc140.dll
 0000:fffca000       .debug$S                   10000000     mfc140:mfc140.dll
 0000:fffca000       .debug$S                   10000000     mfc140:mfc140.dll
 0000:fffca000       .debug$S                   10000000     mfc140:mfc140.dll
 0000:fffca000       .debug$S                   10000000     mfc140:mfc140.dll
 0000:fffca000       .debug$S                   10000000     mfc140:mfc140.dll
 0000:fffca000       .debug$S                   10000000     mfc140:mfc140.dll
 0000:fffca000       .debug$S                   10000000     mfc140:mfc140.dll
 0000:fffca000       .debug$S                   10000000     mfc140:mfc140.dll
 0000:fffca000       .debug$S                   10000000     mfc140:mfc140.dll
 0000:fffca000       .debug$S                   10000000     mfc140:mfc140.dll
 0000:fffca000       .debug$S                   10000000     mfc140:mfc140.dll
 0000:fffca000       .debug$S                   10000000     mfc140:mfc140.dll
 0000:fffca000       .debug$S                   10000000     mfc140:mfc140.dll
 0000:fffca000       .debug$S                   10000000     mfc140:mfc140.dll
 0000:fffca000       .debug$S                   10000000     mfc140:mfc140.dll
 0000:fffca000       .debug$S                   10000000     mfc140:mfc140.dll
 0000:fffca000       .debug$S                   10000000     mfc140:mfc140.dll
 0000:fffca000       .debug$S                   10000000     mfc140:mfc140.dll
 0000:fffca000       .debug$S                   10000000     mfc140:mfc140.dll
 0000:fffca000       .debug$S                   10000000     mfc140:mfc140.dll
 0000:fffca000       .debug$S                   10000000     mfc140:mfc140.dll
 0000:fffca000       .debug$S                   10000000     mfc140:mfc140.dll
 0000:fffca000       .debug$S                   10000000     mfc140:mfc140.dll
 0000:fffca000       .debug$S                   10000000     mfc140:mfc140.dll
 0000:fffca000       .debug$S                   10000000     mfc140:mfc140.dll
 0000:fffca000       .debug$S                   10000000     mfc140:mfc140.dll
 0000:fffca000       .debug$S                   10000000     mfc140:mfc140.dll
 0000:fffca000       .debug$S                   10000000     mfc140:mfc140.dll
 0000:fffca000       .debug$S                   10000000     mfc140:mfc140.dll
 0000:fffca000       .debug$S                   10000000     mfc140:mfc140.dll
 0000:fffca000       .debug$S                   10000000     mfc140:mfc140.dll
 0000:fffca000       .debug$S                   10000000     mfc140:mfc140.dll
 0000:fffca000       .debug$S                   10000000     mfc140:mfc140.dll
 0000:fffca000       .debug$S                   10000000     mfc140:mfc140.dll
 0000:fffca000       .debug$S                   10000000     mfc140:mfc140.dll
 0000:fffca000       .debug$S                   10000000     mfc140:mfc140.dll
 0000:fffca000       .debug$S                   10000000     mfc140:mfc140.dll
 0000:fffca000       .debug$S                   10000000     mfc140:mfc140.dll
 0000:fffca000       .debug$S                   10000000     mfc140:mfc140.dll
 0000:fffca000       .debug$S                   10000000     mfc140:mfc140.dll
 0000:fffca000       .debug$S                   10000000     mfc140:mfc140.dll
 0000:fffca000       .debug$S                   10000000     mfc140:mfc140.dll
 0000:fffca000       .debug$S                   10000000     mfc140:mfc140.dll
 0000:fffca000       .debug$S                   10000000     mfc140:mfc140.dll
 0000:fffca000       .debug$S                   10000000     mfc140:mfc140.dll
 0000:fffca000       .debug$S                   10000000     mfc140:mfc140.dll
 0000:fffca000       .debug$S                   10000000     mfc140:mfc140.dll
 0000:fffca000       .debug$S                   10000000     mfc140:mfc140.dll
 0000:fffca000       .debug$S                   10000000     mfc140:mfc140.dll
 0000:fffca000       .debug$S                   10000000     mfc140:mfc140.dll
 0000:fffca000       .debug$S                   10000000     mfc140:mfc140.dll
 0000:fffca000       .debug$S                   10000000     mfc140:mfc140.dll
 0000:fffca000       .debug$S                   10000000     mfc140:mfc140.dll
 0002:fffdd000       ??isInitialized$initializer$@CAtlStringMgr@ATL@@0P6AXXZA@@3P6AXXZA 10000000     mfcs140:dllmodul.obj
 0002:fffdd000       ?InitializeCAtlStringMgr$initializer$@ATLImplementationDetails@ATL@@3P6AXXZA 10000000     mfcs140:dllmodul.obj
 0002:fffdd000       ?_AtlComModule$initializer$@ATL@@3P6AXXZA 10000000     mfcs140:dllmodul.obj
 0002:fffdd000       ?_AtlWinModule$initializer$@ATL@@3P6AXXZA 10000000     mfcs140:dllmodul.obj
 0002:fffdd000       __ehfuncinfo$??1CAtlComModule@ATL@@QAE@XZ 10000000     mfcs140:dllmodul.obj
 0002:fffdd000       __ehfuncinfo$??_Estringdispid@CComTypeInfoHolder@ATL@@QAEPAXI@Z 10000000     mfcs140:dllmodul.obj
 0001:fffff000       __ehhandler$??1CAtlComModule@ATL@@QAE@XZ 10000000 f   mfcs140:dllmodul.obj
 0001:fffff000       __ehhandler$??_Estringdispid@CComTypeInfoHolder@ATL@@QAEPAXI@Z 10000000 f   mfcs140:dllmodul.obj
 0002:fffdd000       __guard_fids_??0_AFX_DLL_MODULE_STATE@@QAE@XZ 10000000     mfcs140:dllmodul.obj
 0002:fffdd000       __guard_fids_??_Estringdispid@CComTypeInfoHolder@ATL@@QAEPAXI@Z 10000000     mfcs140:dllmodul.obj
 0002:fffdd000       __guard_fids_??__E_AtlComModule@ATL@@YAXXZ 10000000     mfcs140:dllmodul.obj
 0002:fffdd000       __guard_fids_??__E_AtlWinModule@ATL@@YAXXZ 10000000     mfcs140:dllmodul.obj
 0002:fffdd000       __guard_fids_??__EafxModuleState@@YAXXZ 10000000     mfcs140:dllmodul.obj
 0002:fffdd000       __guard_fids_?GetInstance@CAtlStringMgr@ATL@@SAPAUIAtlStringMgr@2@XZ 10000000     mfcs140:dllmodul.obj
 0002:fffdd000       __guard_fids__             10000000     mfcs140:dllmodul.obj
 0002:fffdd000       __guard_fids__             10000000     mfcs140:dllmodul.obj
 0002:fffdd000       __guard_fids__             10000000     mfcs140:dllmodul.obj
 0002:fffdd000       __guard_fids__             10000000     mfcs140:dllmodul.obj
 0002:fffdd000       __guard_fids__             10000000     mfcs140:dllmodul.obj
 0002:fffdd000       __guard_fids__             10000000     mfcs140:dllmodul.obj
 0002:fffdd000       __guard_fids__             10000000     mfcs140:dllmodul.obj
 0002:fffdd000       __guard_fids__             10000000     mfcs140:dllmodul.obj
 0002:fffdd000       __guard_fids__             10000000     mfcs140:dllmodul.obj
 0002:fffdd000       __guard_fids__             10000000     mfcs140:dllmodul.obj
 0002:fffdd000       __sehtable$_IsolationAwareUnregisterClassA@8 10000000     mfcs140:dllmodul.obj
 0002:fffdd000       __sehtable$_WinbaseIsolationAwarePrivatetRgzlnPgpgk@0 10000000     mfcs140:dllmodul.obj
 0002:fffdd000       ??isInitialized$initializer$@CAtlStringMgr@ATL@@0P6AXXZA@@3P6AXXZA 10000000     mfcs140:dllmodulx.obj
 0002:fffdd000       ?InitializeCAtlStringMgr$initializer$@ATLImplementationDetails@ATL@@3P6AXXZA 10000000     mfcs140:dllmodulx.obj
 0002:fffdd000       ?_AtlComModule$initializer$@ATL@@3P6AXXZA 10000000     mfcs140:dllmodulx.obj
 0002:fffdd000       ?_AtlWinModule$initializer$@ATL@@3P6AXXZA 10000000     mfcs140:dllmodulx.obj
 0002:fffdd000       __ehfuncinfo$??1CAtlComModule@ATL@@QAE@XZ 10000000     mfcs140:dllmodulx.obj
 0002:fffdd000       __ehfuncinfo$??_Estringdispid@CComTypeInfoHolder@ATL@@QAEPAXI@Z 10000000     mfcs140:dllmodulx.obj
 0001:fffff000       __ehhandler$??1CAtlComModule@ATL@@QAE@XZ 10000000 f   mfcs140:dllmodulx.obj
 0001:fffff000       __ehhandler$??_Estringdispid@CComTypeInfoHolder@ATL@@QAEPAXI@Z 10000000 f   mfcs140:dllmodulx.obj
 0002:fffdd000       __guard_fids_??_Estringdispid@CComTypeInfoHolder@ATL@@QAEPAXI@Z 10000000     mfcs140:dllmodulx.obj
 0002:fffdd000       __guard_fids_??__E_AtlComModule@ATL@@YAXXZ 10000000     mfcs140:dllmodulx.obj
 0002:fffdd000       __guard_fids_??__E_AtlWinModule@ATL@@YAXXZ 10000000     mfcs140:dllmodulx.obj
 0002:fffdd000       __guard_fids_?GetInstance@CAtlStringMgr@ATL@@SAPAUIAtlStringMgr@2@XZ 10000000     mfcs140:dllmodulx.obj
 0002:fffdd000       __guard_fids__             10000000     mfcs140:dllmodulx.obj
 0002:fffdd000       __guard_fids__             10000000     mfcs140:dllmodulx.obj
 0002:fffdd000       __guard_fids__             10000000     mfcs140:dllmodulx.obj
 0002:fffdd000       __guard_fids__             10000000     mfcs140:dllmodulx.obj
 0002:fffdd000       __guard_fids__             10000000     mfcs140:dllmodulx.obj
 0002:fffdd000       __guard_fids__             10000000     mfcs140:dllmodulx.obj
 0002:fffdd000       __guard_fids__             10000000     mfcs140:dllmodulx.obj
 0002:fffdd000       __guard_fids__             10000000     mfcs140:dllmodulx.obj
 0002:fffdd000       __guard_fids__             10000000     mfcs140:dllmodulx.obj
 0002:fffdd000       __sehtable$_IsolationAwareUnregisterClassA@8 10000000     mfcs140:dllmodulx.obj
 0002:fffdd000       __sehtable$_WinbaseIsolationAwarePrivatetRgzlnPgpgk@0 10000000     mfcs140:dllmodulx.obj
 0002:fffdd000       ??isInitialized$initializer$@CAtlStringMgr@ATL@@0P6AXXZA@@3P6AXXZA 10000000     mfcs140:nolib.obj
 0002:fffdd000       ?InitializeCAtlStringMgr$initializer$@ATLImplementationDetails@ATL@@3P6AXXZA 10000000     mfcs140:nolib.obj
 0002:fffdd000       ?_AtlComModule$initializer$@ATL@@3P6AXXZA 10000000     mfcs140:nolib.obj
 0002:fffdd000       ?_AtlWinModule$initializer$@ATL@@3P6AXXZA 10000000     mfcs140:nolib.obj
 0002:fffdd000       __guard_fids_??_Estringdispid@CComTypeInfoHolder@ATL@@QAEPAXI@Z 10000000     mfcs140:nolib.obj
 0002:fffdd000       __guard_fids_??__E_AtlComModule@ATL@@YAXXZ 10000000     mfcs140:nolib.obj
 0002:fffdd000       __guard_fids_??__E_AtlWinModule@ATL@@YAXXZ 10000000     mfcs140:nolib.obj
 0002:fffdd000       __guard_fids_?GetInstance@CAtlStringMgr@ATL@@SAPAUIAtlStringMgr@2@XZ 10000000     mfcs140:nolib.obj
 0002:fffdd000       __guard_fids__             10000000     mfcs140:nolib.obj
 0002:fffdd000       __guard_fids__             10000000     mfcs140:nolib.obj
 0002:fffdd000       __guard_fids__             10000000     mfcs140:nolib.obj
 0002:fffdd000       __guard_fids__             10000000     mfcs140:nolib.obj
 0002:fffdd000       __guard_fids__             10000000     mfcs140:nolib.obj
 0002:fffdd000       __guard_fids__             10000000     mfcs140:nolib.obj
 0002:fffdd000       __guard_fids__             10000000     mfcs140:nolib.obj
 0002:fffdd000       __guard_fids__             10000000     mfcs140:nolib.obj
 0002:fffdd000       __guard_fids__             10000000     mfcs140:nolib.obj
 0002:fffdd000       __guard_fids__             10000000     mfcs140:rawdllmainproxy.obj
 0002:fffdd000       ??isInitialized$initializer$@CAtlStringMgr@ATL@@0P6AXXZA@@3P6AXXZA 10000000     mfcs140:stdafx.obj
 0002:fffdd000       ?InitializeCAtlStringMgr$initializer$@ATLImplementationDetails@ATL@@3P6AXXZA 10000000     mfcs140:stdafx.obj
 0002:fffdd000       ?_AtlComModule$initializer$@ATL@@3P6AXXZA 10000000     mfcs140:stdafx.obj
 0002:fffdd000       ?_AtlWinModule$initializer$@ATL@@3P6AXXZA 10000000     mfcs140:stdafx.obj
 0002:fffdd000       __ehfuncinfo$??1CAtlComModule@ATL@@QAE@XZ 10000000     mfcs140:stdafx.obj
 0002:fffdd000       __ehfuncinfo$??_Estringdispid@CComTypeInfoHolder@ATL@@QAEPAXI@Z 10000000     mfcs140:stdafx.obj
 0001:fffff000       __ehhandler$??1CAtlComModule@ATL@@QAE@XZ 10000000 f   mfcs140:stdafx.obj
 0001:fffff000       __ehhandler$??_Estringdispid@CComTypeInfoHolder@ATL@@QAEPAXI@Z 10000000 f   mfcs140:stdafx.obj
 0002:fffdd000       __guard_fids_??_Estringdispid@CComTypeInfoHolder@ATL@@QAEPAXI@Z 10000000     mfcs140:stdafx.obj
 0002:fffdd000       __guard_fids_??__E_AtlComModule@ATL@@YAXXZ 10000000     mfcs140:stdafx.obj
 0002:fffdd000       __guard_fids_??__E_AtlWinModule@ATL@@YAXXZ 10000000     mfcs140:stdafx.obj
 0002:fffdd000       __guard_fids_?GetInstance@CAtlStringMgr@ATL@@SAPAUIAtlStringMgr@2@XZ 10000000     mfcs140:stdafx.obj
 0002:fffdd000       __guard_fids__             10000000     mfcs140:stdafx.obj
 0002:fffdd000       __guard_fids__             10000000     mfcs140:stdafx.obj
 0002:fffdd000       __guard_fids__             10000000     mfcs140:stdafx.obj
 0002:fffdd000       __guard_fids__             10000000     mfcs140:stdafx.obj
 0002:fffdd000       __guard_fids__             10000000     mfcs140:stdafx.obj
 0002:fffdd000       __guard_fids__             10000000     mfcs140:stdafx.obj
 0002:fffdd000       __guard_fids__             10000000     mfcs140:stdafx.obj
 0002:fffdd000       __guard_fids__             10000000     mfcs140:stdafx.obj
 0002:fffdd000       __guard_fids__             10000000     mfcs140:stdafx.obj
 0002:fffdd000       __sehtable$_IsolationAwareUnregisterClassA@8 10000000     mfcs140:stdafx.obj
 0002:fffdd000       __sehtable$_WinbaseIsolationAwarePrivatetRgzlnPgpgk@0 10000000     mfcs140:stdafx.obj
 0002:fffdd000       __guard_fids___except_handler4 10000000     msvcrt:chandler4gs.obj
 0002:fffdd000       __guard_fids_?dllmain_dispatch@@YAHQAUHINSTANCE__@@KQAX@Z 10000000     msvcrt:dll_dllmain.obj
 0002:fffdd000       __guard_fids__             10000000     msvcrt:guard_support.obj
 0002:fffdd000       __guard_fids__             10000000     msvcrt:guard_support.obj
 0002:fffdd000       __guard_fids___guard_icall_checks_enforced 10000000     msvcrt:guard_support.obj
 0002:fffdd000       __guard_fids__             10000000     msvcrt:std_type_info_static.obj
 0002:fffdd000       __guard_fids_?__scrt_initialize_thread_safe_statics@@YAHXZ 10000000     msvcrt:thread_safe_statics.obj
 0002:fffdd000       __guard_fids__             10000000     msvcrt:thread_safe_statics.obj
 0002:fffdd000       __guard_fids____scrt_set_unhandled_exception_filter 10000000     msvcrt:utility_desktop.obj
 0000:fffca000       .debug$S                   10000000     vcruntime:VCRUNTIME140.dll
 0000:fffca000       .debug$S                   10000000     vcruntime:VCRUNTIME140.dll
 0000:fffca000       .debug$S                   10000000     vcruntime:VCRUNTIME140.dll
 0000:fffca000       .debug$S                   10000000     vcruntime:VCRUNTIME140.dll
 0000:fffca000       .debug$S                   10000000     vcruntime:VCRUNTIME140.dll
 0000:fffca000       .debug$S                   10000000     vcruntime:VCRUNTIME140.dll
 0000:fffca000       .debug$S                   10000000     vcruntime:VCRUNTIME140.dll
 0000:fffca000       .debug$S                   10000000     vcruntime:VCRUNTIME140.dll
 0000:fffca000       .debug$S                   10000000     vcruntime:VCRUNTIME140.dll
 0000:fffca000       .debug$S                   10000000     vcruntime:VCRUNTIME140.dll
 0000:fffca000       .debug$S                   10000000     vcruntime:VCRUNTIME140.dll
 0000:fffca000       .debug$S                   10000000     ucrt:api-ms-win-crt-convert-l1-1-0.dll
 0000:fffca000       .debug$S                   10000000     ucrt:api-ms-win-crt-convert-l1-1-0.dll
 0000:fffca000       .debug$S                   10000000     ucrt:api-ms-win-crt-convert-l1-1-0.dll
 0000:fffca000       .debug$S                   10000000     ucrt:api-ms-win-crt-filesystem-l1-1-0.dll
 0000:fffca000       .debug$S                   10000000     ucrt:api-ms-win-crt-filesystem-l1-1-0.dll
 0000:fffca000       .debug$S                   10000000     ucrt:api-ms-win-crt-heap-l1-1-0.dll
 0000:fffca000       .debug$S                   10000000     ucrt:api-ms-win-crt-heap-l1-1-0.dll
 0000:fffca000       .debug$S                   10000000     ucrt:api-ms-win-crt-heap-l1-1-0.dll
 0000:fffca000       .debug$S                   10000000     ucrt:api-ms-win-crt-runtime-l1-1-0.dll
 0000:fffca000       .debug$S                   10000000     ucrt:api-ms-win-crt-runtime-l1-1-0.dll
 0000:fffca000       .debug$S                   10000000     ucrt:api-ms-win-crt-runtime-l1-1-0.dll
 0000:fffca000       .debug$S                   10000000     ucrt:api-ms-win-crt-runtime-l1-1-0.dll
 0000:fffca000       .debug$S                   10000000     ucrt:api-ms-win-crt-runtime-l1-1-0.dll
 0000:fffca000       .debug$S                   10000000     ucrt:api-ms-win-crt-runtime-l1-1-0.dll
 0000:fffca000       .debug$S                   10000000     ucrt:api-ms-win-crt-runtime-l1-1-0.dll
 0000:fffca000       .debug$S                   10000000     ucrt:api-ms-win-crt-runtime-l1-1-0.dll
 0000:fffca000       .debug$S                   10000000     ucrt:api-ms-win-crt-runtime-l1-1-0.dll
 0000:fffca000       .debug$S                   10000000     ucrt:api-ms-win-crt-runtime-l1-1-0.dll
 0000:fffca000       .debug$S                   10000000     ucrt:api-ms-win-crt-runtime-l1-1-0.dll
 0000:fffca000       .debug$S                   10000000     ucrt:api-ms-win-crt-runtime-l1-1-0.dll
 0000:fffca000       .debug$S                   10000000     ucrt:api-ms-win-crt-runtime-l1-1-0.dll
 0000:fffca000       .debug$S                   10000000     ucrt:api-ms-win-crt-runtime-l1-1-0.dll
 0000:fffca000       .debug$S                   10000000     ucrt:api-ms-win-crt-stdio-l1-1-0.dll
 0000:fffca000       .debug$S                   10000000     ucrt:api-ms-win-crt-stdio-l1-1-0.dll
 0000:fffca000       .debug$S                   10000000     ucrt:api-ms-win-crt-stdio-l1-1-0.dll
 0000:fffca000       .debug$S                   10000000     ucrt:api-ms-win-crt-stdio-l1-1-0.dll
 0000:fffca000       .debug$S                   10000000     ucrt:api-ms-win-crt-stdio-l1-1-0.dll
 0000:fffca000       .debug$S                   10000000     ucrt:api-ms-win-crt-string-l1-1-0.dll
 0000:fffca000       .debug$S                   10000000     ucrt:api-ms-win-crt-string-l1-1-0.dll
 0000:fffca000       .debug$S                   10000000     ucrt:api-ms-win-crt-time-l1-1-0.dll
 0000:fffca000       .debug$S                   10000000     ucrt:api-ms-win-crt-time-l1-1-0.dll
 0000:fffca000       .debug$S                   10000000     ucrt:api-ms-win-crt-utility-l1-1-0.dll
 0000:fffca000       .debug$S                   10000000     advapi32:ADVAPI32.dll
 0000:fffca000       .debug$S                   10000000     advapi32:ADVAPI32.dll
 0000:fffca000       .debug$S                   10000000     advapi32:ADVAPI32.dll
 0000:fffca000       .debug$S                   10000000     advapi32:ADVAPI32.dll
 0000:fffca000       .debug$S                   10000000     advapi32:ADVAPI32.dll
 0000:fffca000       .debug$S                   10000000     advapi32:ADVAPI32.dll
 0000:fffca000       .debug$S                   10000000     gdi32:GDI32.dll
 0000:fffca000       .debug$S                   10000000     kernel32:KERNEL32.dll
 0000:fffca000       .debug$S                   10000000     kernel32:KERNEL32.dll
 0000:fffca000       .debug$S                   10000000     kernel32:KERNEL32.dll
 0000:fffca000       .debug$S                   10000000     kernel32:KERNEL32.dll
 0000:fffca000       .debug$S                   10000000     kernel32:KERNEL32.dll
 0000:fffca000       .debug$S                   10000000     kernel32:KERNEL32.dll
 0000:fffca000       .debug$S                   10000000     kernel32:KERNEL32.dll
 0000:fffca000       .debug$S                   10000000     kernel32:KERNEL32.dll
 0000:fffca000       .debug$S                   10000000     kernel32:KERNEL32.dll
 0000:fffca000       .debug$S                   10000000     kernel32:KERNEL32.dll
 0000:fffca000       .debug$S                   10000000     kernel32:KERNEL32.dll
 0000:fffca000       .debug$S                   10000000     kernel32:KERNEL32.dll
 0000:fffca000       .debug$S                   10000000     kernel32:KERNEL32.dll
 0000:fffca000       .debug$S                   10000000     kernel32:KERNEL32.dll
 0000:fffca000       .debug$S                   10000000     kernel32:KERNEL32.dll
 0000:fffca000       .debug$S                   10000000     kernel32:KERNEL32.dll
 0000:fffca000       .debug$S                   10000000     kernel32:KERNEL32.dll
 0000:fffca000       .debug$S                   10000000     kernel32:KERNEL32.dll
 0000:fffca000       .debug$S                   10000000     kernel32:KERNEL32.dll
 0000:fffca000       .debug$S                   10000000     kernel32:KERNEL32.dll
 0000:fffca000       .debug$S                   10000000     kernel32:KERNEL32.dll
 0000:fffca000       .debug$S                   10000000     kernel32:KERNEL32.dll
 0000:fffca000       .debug$S                   10000000     kernel32:KERNEL32.dll
 0000:fffca000       .debug$S                   10000000     kernel32:KERNEL32.dll
 0000:fffca000       .debug$S                   10000000     kernel32:KERNEL32.dll
 0000:fffca000       .debug$S                   10000000     kernel32:KERNEL32.dll
 0000:fffca000       .debug$S                   10000000     kernel32:KERNEL32.dll
 0000:fffca000       .debug$S                   10000000     kernel32:KERNEL32.dll
 0000:fffca000       .debug$S                   10000000     kernel32:KERNEL32.dll
 0000:fffca000       .debug$S                   10000000     kernel32:KERNEL32.dll
 0000:fffca000       .debug$S                   10000000     kernel32:KERNEL32.dll
 0000:fffca000       .debug$S                   10000000     kernel32:KERNEL32.dll
 0000:fffca000       .debug$S                   10000000     kernel32:KERNEL32.dll
 0000:fffca000       .debug$S                   10000000     kernel32:KERNEL32.dll
 0000:fffca000       .debug$S                   10000000     kernel32:KERNEL32.dll
 0000:fffca000       .debug$S                   10000000     kernel32:KERNEL32.dll
 0000:fffca000       .debug$S                   10000000     kernel32:KERNEL32.dll
 0000:fffca000       .debug$S                   10000000     kernel32:KERNEL32.dll
 0000:fffca000       .debug$S                   10000000     kernel32:KERNEL32.dll
 0000:fffca000       .debug$S                   10000000     kernel32:KERNEL32.dll
 0000:fffca000       .debug$S                   10000000     kernel32:KERNEL32.dll
 0000:fffca000       .debug$S                   10000000     kernel32:KERNEL32.dll
 0000:fffca000       .debug$S                   10000000     kernel32:KERNEL32.dll
 0000:fffca000       .debug$S                   10000000     kernel32:KERNEL32.dll
 0000:fffca000       .debug$S                   10000000     kernel32:KERNEL32.dll
 0000:fffca000       .debug$S                   10000000     kernel32:KERNEL32.dll
 0000:fffca000       .debug$S                   10000000     kernel32:KERNEL32.dll
 0000:fffca000       .debug$S                   10000000     kernel32:KERNEL32.dll
 0000:fffca000       .debug$S                   10000000     kernel32:KERNEL32.dll
 0000:fffca000       .debug$S                   10000000     kernel32:KERNEL32.dll
 0000:fffca000       .debug$S                   10000000     kernel32:KERNEL32.dll
 0000:fffca000       .debug$S                   10000000     kernel32:KERNEL32.dll
 0000:fffca000       .debug$S                   10000000     kernel32:KERNEL32.dll
 0000:fffca000       .debug$S                   10000000     kernel32:KERNEL32.dll
 0000:fffca000       .debug$S                   10000000     kernel32:KERNEL32.dll
 0000:fffca000       .debug$S                   10000000     kernel32:KERNEL32.dll
 0000:fffca000       .debug$S                   10000000     kernel32:KERNEL32.dll
 0000:fffca000       .debug$S                   10000000     kernel32:KERNEL32.dll
 0000:fffca000       .debug$S                   10000000     kernel32:KERNEL32.dll
 0000:fffca000       .debug$S                   10000000     kernel32:KERNEL32.dll
 0000:fffca000       .debug$S                   10000000     kernel32:KERNEL32.dll
 0000:fffca000       .debug$S                   10000000     kernel32:KERNEL32.dll
 0000:fffca000       .debug$S                   10000000     kernel32:KERNEL32.dll
 0000:fffca000       .debug$S                   10000000     kernel32:KERNEL32.dll
 0000:fffca000       .debug$S                   10000000     kernel32:KERNEL32.dll
 0000:fffca000       .debug$S                   10000000     kernel32:KERNEL32.dll
 0000:fffca000       .debug$S                   10000000     ole32:ole32.dll
 0000:fffca000       .debug$S                   10000000     ole32:ole32.dll
 0000:fffca000       .debug$S                   10000000     ole32:ole32.dll
 0000:fffca000       .debug$S                   10000000     oleaut32:OLEAUT32.dll
 0000:fffca000       .debug$S                   10000000     oleaut32:OLEAUT32.dll
 0000:fffca000       .debug$S                   10000000     user32:USER32.dll
 0000:fffca000       .debug$S                   10000000     user32:USER32.dll
 0000:fffca000       .debug$S                   10000000     user32:USER32.dll
 0000:fffca000       .debug$S                   10000000     user32:USER32.dll
 0000:fffca000       .debug$S                   10000000     user32:USER32.dll
 0000:fffca000       .debug$S                   10000000     user32:USER32.dll
 0000:fffca000       .debug$S                   10000000     user32:USER32.dll
 0000:fffca000       .debug$S                   10000000     user32:USER32.dll
 0000:fffca000       .debug$S                   10000000     user32:USER32.dll
 0000:fffca000       .debug$S                   10000000     user32:USER32.dll
 0000:fffca000       .debug$S                   10000000     user32:USER32.dll
 0000:fffca000       .debug$S                   10000000     user32:USER32.dll
 0000:fffca000       .debug$S                   10000000     user32:USER32.dll
 0000:fffca000       .debug$S                   10000000     user32:USER32.dll
 0000:fffca000       .debug$S                   10000000     user32:USER32.dll
 0002:fffdd004       __guard_fids__             10000004     mfcs140:dllmodul.obj
 0002:fffdd008       __ehfuncinfo$??_G?$CList@PAVCSTManager_Info@@PAV1@@@UAEPAXI@Z 10000008     _STManager.obj
 0002:fffdd008       __guard_fids__             10000008     mfcs140:dllmodul.obj
 0001:00000000       ??__ERMSG_CONCERNHWND@@YAXXZ 10001000 f   #SiteDependency.obj
 0001:00000020       ??__ERMSG_GETPCTRDATA@@YAXXZ 10001020 f   #SiteDependency.obj
 0001:00000040       ??__ERMSG_GWANSIMREGISTER@@YAXXZ 10001040 f   #SiteDependency.obj
 0001:00000060       ??__ERMSG_INTERFACE@@YAXXZ 10001060 f   #SiteDependency.obj
 0001:00000080       ??__ERMSG_INTREQUEST@@YAXXZ 10001080 f   #SiteDependency.obj
 0001:000000a0       ??__ERMSG_SETPCTRDATA@@YAXXZ 100010a0 f   #SiteDependency.obj
 0001:000000c0       ??__ERMSG_CONCERNHWND@@YAXXZ 100010c0 f   EtcUtil.obj
 0001:000000e0       ??__ERMSG_GETPCTRDATA@@YAXXZ 100010e0 f   EtcUtil.obj
 0001:00000100       ??__ERMSG_GWANSIMREGISTER@@YAXXZ 10001100 f   EtcUtil.obj
 0001:00000120       ??__ERMSG_INTERFACE@@YAXXZ 10001120 f   EtcUtil.obj
 0001:00000140       ??__ERMSG_INTREQUEST@@YAXXZ 10001140 f   EtcUtil.obj
 0001:00000160       ??__ERMSG_SETPCTRDATA@@YAXXZ 10001160 f   EtcUtil.obj
 0001:00000180       ??__ERMSG_CONCERNHWND@@YAXXZ 10001180 f   GwanWnd.obj
 0001:000001a0       ??__ERMSG_GETPCTRDATA@@YAXXZ 100011a0 f   GwanWnd.obj
 0001:000001c0       ??__ERMSG_GWANSIMREGISTER@@YAXXZ 100011c0 f   GwanWnd.obj
 0001:000001e0       ??__ERMSG_INTERFACE@@YAXXZ 100011e0 f   GwanWnd.obj
 0001:00000200       ??__ERMSG_INTREQUEST@@YAXXZ 10001200 f   GwanWnd.obj
 0001:00000220       ??__ERMSG_SETPCTRDATA@@YAXXZ 10001220 f   GwanWnd.obj
 0001:00000240       ??__ERMSG_GETPCTRDATA@@YAXXZ 10001240 f   PCtrMainWnd.obj
 0001:00000260       ??__ERMSG_INTERFACE@@YAXXZ 10001260 f   PCtrMainWnd.obj
 0001:00000280       ??__ERMSG_SETPCTRDATA@@YAXXZ 10001280 f   PCtrMainWnd.obj
 0001:000002a0       ??__ERMSG_CONCERNHWND@@YAXXZ 100012a0 f   PcTrMng.obj
 0001:000002c0       ??__ERMSG_GETPCTRDATA@@YAXXZ 100012c0 f   PcTrMng.obj
 0001:000002e0       ??__ERMSG_GWANSIMREGISTER@@YAXXZ 100012e0 f   PcTrMng.obj
 0001:00000300       ??__ERMSG_INTERFACE@@YAXXZ 10001300 f   PcTrMng.obj
 0001:00000320       ??__ERMSG_INTREQUEST@@YAXXZ 10001320 f   PcTrMng.obj
 0001:00000340       ??__ERMSG_SETPCTRDATA@@YAXXZ 10001340 f   PcTrMng.obj
 0001:00000360       ??__EtheApp@@YAXXZ         10001360 f   PcTrMng.obj
 0001:00000380       ??__E?isInitialized@CAtlStringMgr@ATL@@0_NA@@YAXXZ 10001380 f   StdAfx.obj
 0001:000003a0       ??__EInitializeCAtlStringMgr@ATLImplementationDetails@ATL@@YAXXZ 100013a0 f   StdAfx.obj
 0001:00000490       ??__E_AtlComModule@ATL@@YAXXZ 10001490 f   StdAfx.obj
 0001:000004f0       ??__E_AtlWinModule@ATL@@YAXXZ 100014f0 f   StdAfx.obj
 0001:00000540       ??__ERMSG_CONCERNHWND@@YAXXZ 10001540 f   TrComm.obj
 0001:00000560       ??__ERMSG_GETPCTRDATA@@YAXXZ 10001560 f   TrComm.obj
 0001:00000580       ??__ERMSG_GETSIGNAL_REAL@@YAXXZ 10001580 f   TrComm.obj
 0001:000005a0       ??__ERMSG_GWANSIMREGISTER@@YAXXZ 100015a0 f   TrComm.obj
 0001:000005c0       ??__ERMSG_INTERFACE@@YAXXZ 100015c0 f   TrComm.obj
 0001:000005e0       ??__ERMSG_INTREQUEST@@YAXXZ 100015e0 f   TrComm.obj
 0001:00000600       ??__ERMSG_SETPCTRDATA@@YAXXZ 10001600 f   TrComm.obj
 0001:00000620       ??__ERMSG_CONCERNHWND@@YAXXZ 10001620 f   _CompanyManager.obj
 0001:00000640       ??__ERMSG_GETPCTRDATA@@YAXXZ 10001640 f   _CompanyManager.obj
 0001:00000660       ??__ERMSG_GWANSIMREGISTER@@YAXXZ 10001660 f   _CompanyManager.obj
 0001:00000680       ??__ERMSG_INTERFACE@@YAXXZ 10001680 f   _CompanyManager.obj
 0001:000006a0       ??__ERMSG_INTREQUEST@@YAXXZ 100016a0 f   _CompanyManager.obj
 0001:000006c0       ??__ERMSG_SETPCTRDATA@@YAXXZ 100016c0 f   _CompanyManager.obj
 0001:000006e0       ??__ERMSG_CONCERNHWND@@YAXXZ 100016e0 f   _DataMonitorManager.obj
 0001:00000700       ??__ERMSG_GETPCTRDATA@@YAXXZ 10001700 f   _DataMonitorManager.obj
 0001:00000720       ??__ERMSG_GWANSIMREGISTER@@YAXXZ 10001720 f   _DataMonitorManager.obj
 0001:00000740       ??__ERMSG_INTERFACE@@YAXXZ 10001740 f   _DataMonitorManager.obj
 0001:00000760       ??__ERMSG_INTREQUEST@@YAXXZ 10001760 f   _DataMonitorManager.obj
 0001:00000780       ??__ERMSG_SETPCTRDATA@@YAXXZ 10001780 f   _DataMonitorManager.obj
 0001:000007a0       ??__ERMSG_CONCERNHWND@@YAXXZ 100017a0 f   _DataUtilManager.obj
 0001:000007c0       ??__ERMSG_GETPCTRDATA@@YAXXZ 100017c0 f   _DataUtilManager.obj
 0001:000007e0       ??__ERMSG_GWANSIMREGISTER@@YAXXZ 100017e0 f   _DataUtilManager.obj
 0001:00000800       ??__ERMSG_INTERFACE@@YAXXZ 10001800 f   _DataUtilManager.obj
 0001:00000820       ??__ERMSG_INTREQUEST@@YAXXZ 10001820 f   _DataUtilManager.obj
 0001:00000840       ??__ERMSG_SETPCTRDATA@@YAXXZ 10001840 f   _DataUtilManager.obj
 0001:00000860       ??__ERMSG_CONCERNHWND@@YAXXZ 10001860 f   _DebugManager.obj
 0001:00000880       ??__ERMSG_GETPCTRDATA@@YAXXZ 10001880 f   _DebugManager.obj
 0001:000008a0       ??__ERMSG_GWANSIMREGISTER@@YAXXZ 100018a0 f   _DebugManager.obj
 0001:000008c0       ??__ERMSG_INTERFACE@@YAXXZ 100018c0 f   _DebugManager.obj
 0001:000008e0       ??__ERMSG_INTREQUEST@@YAXXZ 100018e0 f   _DebugManager.obj
 0001:00000900       ??__ERMSG_SETPCTRDATA@@YAXXZ 10001900 f   _DebugManager.obj
 0001:00000920       ??__Em_uRMSG_HandleToDebug@@YAXXZ 10001920 f   _DebugManager.obj
 0001:00000940       ??__ERMSG_CONCERNHWND@@YAXXZ 10001940 f   _DrdsManager.obj
 0001:00000960       ??__ERMSG_GETPCTRDATA@@YAXXZ 10001960 f   _DrdsManager.obj
 0001:00000980       ??__ERMSG_GWANSIMREGISTER@@YAXXZ 10001980 f   _DrdsManager.obj
 0001:000009a0       ??__ERMSG_INTERFACE@@YAXXZ 100019a0 f   _DrdsManager.obj
 0001:000009c0       ??__ERMSG_INTREQUEST@@YAXXZ 100019c0 f   _DrdsManager.obj
 0001:000009e0       ??__ERMSG_SETPCTRDATA@@YAXXZ 100019e0 f   _DrdsManager.obj
 0001:00000a00       ??__ERMSG_CONCERNHWND@@YAXXZ 10001a00 f   _GateManager.obj
 0001:00000a20       ??__ERMSG_GETPCTRDATA@@YAXXZ 10001a20 f   _GateManager.obj
 0001:00000a40       ??__ERMSG_GWANSIMREGISTER@@YAXXZ 10001a40 f   _GateManager.obj
 0001:00000a60       ??__ERMSG_INTERFACE@@YAXXZ 10001a60 f   _GateManager.obj
 0001:00000a80       ??__ERMSG_INTREQUEST@@YAXXZ 10001a80 f   _GateManager.obj
 0001:00000aa0       ??__ERMSG_SETPCTRDATA@@YAXXZ 10001aa0 f   _GateManager.obj
 0001:00000ac0       ??__ERMSG_CONCERNHWND@@YAXXZ 10001ac0 f   _GwanManager.obj
 0001:00000ae0       ??__ERMSG_GETPCTRDATA@@YAXXZ 10001ae0 f   _GwanManager.obj
 0001:00000b00       ??__ERMSG_GWANSIMREGISTER@@YAXXZ 10001b00 f   _GwanManager.obj
 0001:00000b20       ??__ERMSG_INTERFACE@@YAXXZ 10001b20 f   _GwanManager.obj
 0001:00000b40       ??__ERMSG_INTREQUEST@@YAXXZ 10001b40 f   _GwanManager.obj
 0001:00000b60       ??__ERMSG_SETPCTRDATA@@YAXXZ 10001b60 f   _GwanManager.obj
 0001:00000b80       ??__ERMSG_CONCERNHWND@@YAXXZ 10001b80 f   _MainExInfoManager.obj
 0001:00000ba0       ??__ERMSG_GETPCTRDATA@@YAXXZ 10001ba0 f   _MainExInfoManager.obj
 0001:00000bc0       ??__ERMSG_GWANSIMREGISTER@@YAXXZ 10001bc0 f   _MainExInfoManager.obj
 0001:00000be0       ??__ERMSG_INTERFACE@@YAXXZ 10001be0 f   _MainExInfoManager.obj
 0001:00000c00       ??__ERMSG_INTREQUEST@@YAXXZ 10001c00 f   _MainExInfoManager.obj
 0001:00000c20       ??__ERMSG_SETPCTRDATA@@YAXXZ 10001c20 f   _MainExInfoManager.obj
 0001:00000c40       ??__ERMSG_CONCERNHWND@@YAXXZ 10001c40 f   _MainInfoManager.obj
 0001:00000c60       ??__ERMSG_GETPCTRDATA@@YAXXZ 10001c60 f   _MainInfoManager.obj
 0001:00000c80       ??__ERMSG_GWANSIMREGISTER@@YAXXZ 10001c80 f   _MainInfoManager.obj
 0001:00000ca0       ??__ERMSG_INTERFACE@@YAXXZ 10001ca0 f   _MainInfoManager.obj
 0001:00000cc0       ??__ERMSG_INTREQUEST@@YAXXZ 10001cc0 f   _MainInfoManager.obj
 0001:00000ce0       ??__ERMSG_SETPCTRDATA@@YAXXZ 10001ce0 f   _MainInfoManager.obj
 0001:00000d00       ??__ERMSG_CONCERNHWND@@YAXXZ 10001d00 f   _MasterDataManager.obj
 0001:00000d20       ??__ERMSG_GETPCTRDATA@@YAXXZ 10001d20 f   _MasterDataManager.obj
 0001:00000d40       ??__ERMSG_GWANSIMREGISTER@@YAXXZ 10001d40 f   _MasterDataManager.obj
 0001:00000d60       ??__ERMSG_INTERFACE@@YAXXZ 10001d60 f   _MasterDataManager.obj
 0001:00000d80       ??__ERMSG_INTREQUEST@@YAXXZ 10001d80 f   _MasterDataManager.obj
 0001:00000da0       ??__ERMSG_SETPCTRDATA@@YAXXZ 10001da0 f   _MasterDataManager.obj
 0001:00000dc0       ??__ERMSG_CONCERNHWND@@YAXXZ 10001dc0 f   _NewSignalManager.obj
 0001:00000de0       ??__ERMSG_GETPCTRDATA@@YAXXZ 10001de0 f   _NewSignalManager.obj
 0001:00000e00       ??__ERMSG_GWANSIMREGISTER@@YAXXZ 10001e00 f   _NewSignalManager.obj
 0001:00000e20       ??__ERMSG_INTERFACE@@YAXXZ 10001e20 f   _NewSignalManager.obj
 0001:00000e40       ??__ERMSG_INTREQUEST@@YAXXZ 10001e40 f   _NewSignalManager.obj
 0001:00000e60       ??__ERMSG_SETPCTRDATA@@YAXXZ 10001e60 f   _NewSignalManager.obj
 0001:00000e80       ??__ERMSG_CONCERNHWND@@YAXXZ 10001e80 f   _PCTrManager.obj
 0001:00000ea0       ??__ERMSG_GETPCTRDATA@@YAXXZ 10001ea0 f   _PCTrManager.obj
 0001:00000ec0       ??__ERMSG_GWANSIMREGISTER@@YAXXZ 10001ec0 f   _PCTrManager.obj
 0001:00000ee0       ??__ERMSG_INTERFACE@@YAXXZ 10001ee0 f   _PCTrManager.obj
 0001:00000f00       ??__ERMSG_INTREQUEST@@YAXXZ 10001f00 f   _PCTrManager.obj
 0001:00000f20       ??__ERMSG_SETPCTRDATA@@YAXXZ 10001f20 f   _PCTrManager.obj
 0001:00000f40       ??__ERMSG_CONCERNHWND@@YAXXZ 10001f40 f   _RegistryManager.obj
 0001:00000f60       ??__ERMSG_GETPCTRDATA@@YAXXZ 10001f60 f   _RegistryManager.obj
 0001:00000f80       ??__ERMSG_GWANSIMREGISTER@@YAXXZ 10001f80 f   _RegistryManager.obj
 0001:00000fa0       ??__ERMSG_INTERFACE@@YAXXZ 10001fa0 f   _RegistryManager.obj
 0001:00000fc0       ??__ERMSG_INTREQUEST@@YAXXZ 10001fc0 f   _RegistryManager.obj
 0001:00000fe0       ??__ERMSG_SETPCTRDATA@@YAXXZ 10001fe0 f   _RegistryManager.obj
 0001:00001000       ??__ERMSG_CONCERNHWND@@YAXXZ 10002000 f   _SkinColorManager.obj
 0001:00001020       ??__ERMSG_GETPCTRDATA@@YAXXZ 10002020 f   _SkinColorManager.obj
 0001:00001040       ??__ERMSG_GWANSIMREGISTER@@YAXXZ 10002040 f   _SkinColorManager.obj
 0001:00001060       ??__ERMSG_INTERFACE@@YAXXZ 10002060 f   _SkinColorManager.obj
 0001:00001080       ??__ERMSG_INTREQUEST@@YAXXZ 10002080 f   _SkinColorManager.obj
 0001:000010a0       ??__ERMSG_SETPCTRDATA@@YAXXZ 100020a0 f   _SkinColorManager.obj
 0001:000010c0       ??__ERMSG_CONCERNHWND@@YAXXZ 100020c0 f   _STManager.obj
 0001:000010e0       ??__ERMSG_GETPCTRDATA@@YAXXZ 100020e0 f   _STManager.obj
 0001:00001100       ??__ERMSG_GWANSIMREGISTER@@YAXXZ 10002100 f   _STManager.obj
 0001:00001120       ??__ERMSG_INTERFACE@@YAXXZ 10002120 f   _STManager.obj
 0001:00001140       ??__ERMSG_INTREQUEST@@YAXXZ 10002140 f   _STManager.obj
 0001:00001160       ??__ERMSG_SETPCTRDATA@@YAXXZ 10002160 f   _STManager.obj
 0001:00001180       ??__ERMSG_CONCERNHWND@@YAXXZ 10002180 f   _SystemUtilManager.obj
 0001:000011a0       ??__ERMSG_GETPCTRDATA@@YAXXZ 100021a0 f   _SystemUtilManager.obj
 0001:000011c0       ??__ERMSG_GWANSIMREGISTER@@YAXXZ 100021c0 f   _SystemUtilManager.obj
 0001:000011e0       ??__ERMSG_INTERFACE@@YAXXZ 100021e0 f   _SystemUtilManager.obj
 0001:00001200       ??__ERMSG_INTREQUEST@@YAXXZ 10002200 f   _SystemUtilManager.obj
 0001:00001220       ??__ERMSG_SETPCTRDATA@@YAXXZ 10002220 f   _SystemUtilManager.obj
 0001:00001240       ??__ERMSG_CONCERNHWND@@YAXXZ 10002240 f   _TRCommManager.obj
 0001:00001260       ??__ERMSG_GETPCTRDATA@@YAXXZ 10002260 f   _TRCommManager.obj
 0001:00001280       ??__ERMSG_GWANSIMREGISTER@@YAXXZ 10002280 f   _TRCommManager.obj
 0001:000012a0       ??__ERMSG_INTERFACE@@YAXXZ 100022a0 f   _TRCommManager.obj
 0001:000012c0       ??__ERMSG_INTREQUEST@@YAXXZ 100022c0 f   _TRCommManager.obj
 0001:000012e0       ??__ERMSG_SETPCTRDATA@@YAXXZ 100022e0 f   _TRCommManager.obj
 0001:000012f1       ??__E?isInitialized@CAtlStringMgr@ATL@@0_NA@@YAXXZ 100022f1 f   mfcs140:nolib.obj
 0001:00001305       ??__EInitializeCAtlStringMgr@ATLImplementationDetails@ATL@@YAXXZ 10002305 f   mfcs140:nolib.obj
 0001:0000130a       ??__E_AtlComModule@ATL@@YAXXZ 1000230a f   mfcs140:nolib.obj
 0001:00001320       ??__E_AtlWinModule@ATL@@YAXXZ 10002320 f   mfcs140:nolib.obj
 0001:00001336       ??__E?isInitialized@CAtlStringMgr@ATL@@0_NA@@YAXXZ 10002336 f   mfcs140:dllmodul.obj
 0001:0000134a       ??__EInitializeCAtlStringMgr@ATLImplementationDetails@ATL@@YAXXZ 1000234a f   mfcs140:dllmodul.obj
 0001:0000134f       ??__E_AtlComModule@ATL@@YAXXZ 1000234f f   mfcs140:dllmodul.obj
 0001:00001365       ??__E_AtlWinModule@ATL@@YAXXZ 10002365 f   mfcs140:dllmodul.obj
 0001:0000137b       ??__EafxModuleState@@YAXXZ 1000237b f   mfcs140:dllmodul.obj
 0001:000013a9       ??__E?isInitialized@CAtlStringMgr@ATL@@0_NA@@YAXXZ 100023a9 f   mfcs140:stdafx.obj
 0001:000013bd       ??__EInitializeCAtlStringMgr@ATLImplementationDetails@ATL@@YAXXZ 100023bd f   mfcs140:stdafx.obj
 0001:000013c2       ??__E_AtlComModule@ATL@@YAXXZ 100023c2 f   mfcs140:stdafx.obj
 0001:000013d8       ??__E_AtlWinModule@ATL@@YAXXZ 100023d8 f   mfcs140:stdafx.obj
 0001:000013ee       ??__E?isInitialized@CAtlStringMgr@ATL@@0_NA@@YAXXZ 100023ee f   mfcs140:dllmodulx.obj
 0001:00001402       ??__EInitializeCAtlStringMgr@ATLImplementationDetails@ATL@@YAXXZ 10002402 f   mfcs140:dllmodulx.obj
 0001:00001407       ??__E_AtlComModule@ATL@@YAXXZ 10002407 f   mfcs140:dllmodulx.obj
 0001:0000141d       ??__E_AtlWinModule@ATL@@YAXXZ 1000241d f   mfcs140:dllmodulx.obj
 0001:00001433       ??__E_AtlBaseModule@ATL@@YAXXZ 10002433 f   atls:atlbase.obj
 0001:0000b084       $LN10                      1000c084     _DataUtilManager.obj
 0001:0000d34c       $LN49                      1000e34c     _GateManager.obj
 0001:0000d364       $LN48                      1000e364     _GateManager.obj
 0001:0001117c       $LN131                     1001217c     _MasterDataManager.obj
 0001:000111ac       $LN130                     100121ac     _MasterDataManager.obj
 0001:000127ec       $LN140                     100137ec     _MasterDataManager.obj
 0001:0001280c       $LN139                     1001380c     _MasterDataManager.obj
 0001:00013628       $LN51                      10014628     _MasterDataManager.obj
 0001:00018a88       $LN12                      10019a88     _SkinColorManager.obj
 0001:00018a98       $LN11                      10019a98     _SkinColorManager.obj
 0001:0001cb8e       __catch$_InternalDllMain@12$2 1001db8e f   mfcs140:dllmodul.obj
 0001:0001cd27       ?find_pe_section@@YAPAU_IMAGE_SECTION_HEADER@@QAEI@Z 1001dd27 f   msvcrt:utility.obj
 0001:0001cd70       ?is_potentially_valid_image_base@@YA_NQAX@Z 1001dd70 f   msvcrt:utility.obj
 0001:0001d0a4       ?__scrt_initialize_thread_safe_statics@@YAHXZ 1001e0a4 f   msvcrt:thread_safe_statics.obj
 0001:0001d0cb       ?__scrt_initialize_thread_safe_statics_platform_specific@@YAXXZ 1001e0cb f   msvcrt:thread_safe_statics.obj
 0001:0001d14d       ?__scrt_uninitialize_thread_safe_statics@@YAXXZ 1001e14d f   msvcrt:thread_safe_statics.obj
 0001:0001d3c8       ?ArrayUnwindFilter@@YAHPAU_EXCEPTION_POINTERS@@@Z 1001e3c8 f   msvcrt:ehvecdtr.obj
 0001:0001d7a0       $$000000                   1001e7a0     msvcrt:chkstk.obj
 0001:0001d7b4       cs10                       1001e7b4     msvcrt:chkstk.obj
 0001:0001d7c2       cs20                       1001e7c2     msvcrt:chkstk.obj
 0001:0001d7d0       $$000000                   1001e7d0     msvcrt:alloca16.obj
 0001:0001d7e6       alloca_8                   1001e7e6     msvcrt:alloca16.obj
 0001:0001d7fc       ?dllmain_crt_dispatch@@YGHQAUHINSTANCE__@@KQAX@Z 1001e7fc f   msvcrt:dll_dllmain.obj
 0001:0001d84f       ?dllmain_crt_process_attach@@YAHQAUHINSTANCE__@@QAX@Z 1001e84f f   msvcrt:dll_dllmain.obj
 0001:0001d956       ?dllmain_crt_process_detach@@YAH_N@Z 1001e956 f   msvcrt:dll_dllmain.obj
 0001:0001da06       ?dllmain_dispatch@@YAHQAUHINSTANCE__@@KQAX@Z 1001ea06 f   msvcrt:dll_dllmain.obj
 0001:0001db11       ?dllmain_raw@@YGHQAUHINSTANCE__@@KQAX@Z 1001eb11 f   msvcrt:dll_dllmain.obj
 0001:0001dc80       $$000000                   1001ec80     msvcrt:sehprolg4.obj
 0001:0001dcd0       $$000000                   1001ecd0     msvcrt:sehprolg4.obj
 0001:0001dcf0       $$000000                   1001ecf0     msvcrt:sehprolg4gs.obj
 0001:0001dd40       $$000000                   1001ed40     msvcrt:sehprolg4gs.obj
 0001:0001de0b       ___castguard_compat_check  1001ee0b f   msvcrt:guard_support.obj
 0001:0001ded3       ___castguard_slow_path_compat_check 1001eed3 f   msvcrt:guard_support.obj
 0001:0001e2e4       ___get_entropy             1001f2e4 f   msvcrt:gs_support.obj
 0001:0001e9de       _memmove_s                 1001f9de f   atls:atlbase.obj
 0001:0001ec9b       __FindPESection            1001fc9b f   mfcs140:rawdllmainproxy.obj
 0001:0001ecdf       __IsNonwritableInCurrentImage 1001fcdf f   mfcs140:rawdllmainproxy.obj
 0001:0001ed76       __ValidateImageBase        1001fd76 f   mfcs140:rawdllmainproxy.obj
 0001:0001ee40       __ehhandler$??1CDispDesk@@QAE@XZ 1001fe40 f   DispDesk.obj
 0001:0001ee60       __unwindfunclet$?GetCtrlNameFromHwnd@CDispDesk@@QAE?AV?$CStringT@DV?$StrTraitMFC_DLL@DV?$ChTraitsCRT@D@ATL@@@@@ATL@@J@Z$0 1001fe60 f   DispDesk.obj
 0001:0001ee7f       __ehhandler$?GetCtrlNameFromHwnd@CDispDesk@@QAE?AV?$CStringT@DV?$StrTraitMFC_DLL@DV?$ChTraitsCRT@D@ATL@@@@@ATL@@J@Z 1001fe7f f   DispDesk.obj
 0001:0001eea0       __unwindfunclet$?GetCtrlTypeFromHwnd@CDispDesk@@QAE?AV?$CStringT@DV?$StrTraitMFC_DLL@DV?$ChTraitsCRT@D@ATL@@@@@ATL@@J@Z$0 1001fea0 f   DispDesk.obj
 0001:0001eebf       __ehhandler$?GetCtrlTypeFromHwnd@CDispDesk@@QAE?AV?$CStringT@DV?$StrTraitMFC_DLL@DV?$ChTraitsCRT@D@ATL@@@@@ATL@@J@Z 1001febf f   DispDesk.obj
 0001:0001eee0       __unwindfunclet$?GetCtrlTypeFromName@CDispDesk@@QAE?AV?$CStringT@DV?$StrTraitMFC_DLL@DV?$ChTraitsCRT@D@ATL@@@@@ATL@@PBD@Z$0 1001fee0 f   DispDesk.obj
 0001:0001eeff       __ehhandler$?GetCtrlTypeFromName@CDispDesk@@QAE?AV?$CStringT@DV?$StrTraitMFC_DLL@DV?$ChTraitsCRT@D@ATL@@@@@ATL@@PBD@Z 1001feff f   DispDesk.obj
 0001:0001ef20       __unwindfunclet$?GetCurrentMsgCode@CDispDesk@@QAE?AV?$CStringT@DV?$StrTraitMFC_DLL@DV?$ChTraitsCRT@D@ATL@@@@@ATL@@XZ$0 1001ff20 f   DispDesk.obj
 0001:0001ef3f       __ehhandler$?GetCurrentMsgCode@CDispDesk@@QAE?AV?$CStringT@DV?$StrTraitMFC_DLL@DV?$ChTraitsCRT@D@ATL@@@@@ATL@@XZ 1001ff3f f   DispDesk.obj
 0001:0001ef60       __unwindfunclet$?GetCurrentTrMessage@CDispDesk@@QAE?AV?$CStringT@DV?$StrTraitMFC_DLL@DV?$ChTraitsCRT@D@ATL@@@@@ATL@@XZ$0 1001ff60 f   DispDesk.obj
 0001:0001ef7f       __ehhandler$?GetCurrentTrMessage@CDispDesk@@QAE?AV?$CStringT@DV?$StrTraitMFC_DLL@DV?$ChTraitsCRT@D@ATL@@@@@ATL@@XZ 1001ff7f f   DispDesk.obj
 0001:0001efa0       __unwindfunclet$?GetMapData@CDispDesk@@QAE?AV?$CStringT@DV?$StrTraitMFC_DLL@DV?$ChTraitsCRT@D@ATL@@@@@ATL@@XZ$0 1001ffa0 f   DispDesk.obj
 0001:0001efbf       __ehhandler$?GetMapData@CDispDesk@@QAE?AV?$CStringT@DV?$StrTraitMFC_DLL@DV?$ChTraitsCRT@D@ATL@@@@@ATL@@XZ 1001ffbf f   DispDesk.obj
 0001:0001efe0       __unwindfunclet$?GetMapName@CDispDesk@@QAE?AV?$CStringT@DV?$StrTraitMFC_DLL@DV?$ChTraitsCRT@D@ATL@@@@@ATL@@XZ$0 1001ffe0 f   DispDesk.obj
 0001:0001efff       __ehhandler$?GetMapName@CDispDesk@@QAE?AV?$CStringT@DV?$StrTraitMFC_DLL@DV?$ChTraitsCRT@D@ATL@@@@@ATL@@XZ 1001ffff f   DispDesk.obj
 0001:0001f020       __unwindfunclet$?GetOpenMapData@CDispDesk@@QAE?AV?$CStringT@DV?$StrTraitMFC_DLL@DV?$ChTraitsCRT@D@ATL@@@@@ATL@@XZ$0 10020020 f   DispDesk.obj
 0001:0001f03f       __ehhandler$?GetOpenMapData@CDispDesk@@QAE?AV?$CStringT@DV?$StrTraitMFC_DLL@DV?$ChTraitsCRT@D@ATL@@@@@ATL@@XZ 1002003f f   DispDesk.obj
 0001:0001f060       __unwindfunclet$?GetRootPath@CDispDesk@@QAE?AV?$CStringT@DV?$StrTraitMFC_DLL@DV?$ChTraitsCRT@D@ATL@@@@@ATL@@PBD@Z$0 10020060 f   DispDesk.obj
 0001:0001f07f       __ehhandler$?GetRootPath@CDispDesk@@QAE?AV?$CStringT@DV?$StrTraitMFC_DLL@DV?$ChTraitsCRT@D@ATL@@@@@ATL@@PBD@Z 1002007f f   DispDesk.obj
 0001:0001f0a0       __unwindfunclet$?GetTrList@CDispDesk@@QAE?AV?$CStringT@DV?$StrTraitMFC_DLL@DV?$ChTraitsCRT@D@ATL@@@@@ATL@@XZ$0 100200a0 f   DispDesk.obj
 0001:0001f0bf       __ehhandler$?GetTrList@CDispDesk@@QAE?AV?$CStringT@DV?$StrTraitMFC_DLL@DV?$ChTraitsCRT@D@ATL@@@@@ATL@@XZ 100200bf f   DispDesk.obj
 0001:0001f0e0       __unwindfunclet$?GetMapCfgFile@CDispFormData@@QAE?AV?$CStringT@DV?$StrTraitMFC_DLL@DV?$ChTraitsCRT@D@ATL@@@@@ATL@@XZ$0 100200e0 f   DispFormData.obj
 0001:0001f0ff       __ehhandler$?GetMapCfgFile@CDispFormData@@QAE?AV?$CStringT@DV?$StrTraitMFC_DLL@DV?$ChTraitsCRT@D@ATL@@@@@ATL@@XZ 100200ff f   DispFormData.obj
 0001:0001f120       __unwindfunclet$?GetPrivateDataString@CDispFormData@@QAE?AV?$CStringT@DV?$StrTraitMFC_DLL@DV?$ChTraitsCRT@D@ATL@@@@@ATL@@PBD000@Z$0 10020120 f   DispFormData.obj
 0001:0001f13f       __ehhandler$?GetPrivateDataString@CDispFormData@@QAE?AV?$CStringT@DV?$StrTraitMFC_DLL@DV?$ChTraitsCRT@D@ATL@@@@@ATL@@PBD000@Z 1002013f f   DispFormData.obj
 0001:0001f160       __unwindfunclet$?GetUserDataPath@CDispFormData@@QAE?AV?$CStringT@DV?$StrTraitMFC_DLL@DV?$ChTraitsCRT@D@ATL@@@@@ATL@@PBD@Z$0 10020160 f   DispFormData.obj
 0001:0001f17f       __ehhandler$?GetUserDataPath@CDispFormData@@QAE?AV?$CStringT@DV?$StrTraitMFC_DLL@DV?$ChTraitsCRT@D@ATL@@@@@ATL@@PBD@Z 1002017f f   DispFormData.obj
 0001:0001f1a0       __unwindfunclet$?LoadStringDataInCfg@CDispFormData@@QAE?AV?$CStringT@DV?$StrTraitMFC_DLL@DV?$ChTraitsCRT@D@ATL@@@@@ATL@@PBD00@Z$0 100201a0 f   DispFormData.obj
 0001:0001f1bf       __ehhandler$?LoadStringDataInCfg@CDispFormData@@QAE?AV?$CStringT@DV?$StrTraitMFC_DLL@DV?$ChTraitsCRT@D@ATL@@@@@ATL@@PBD00@Z 100201bf f   DispFormData.obj
 0001:0001f1e0       __unwindfunclet$?GetFrameInfoFile@CDispFrame@@QAE?AV?$CStringT@DV?$StrTraitMFC_DLL@DV?$ChTraitsCRT@D@ATL@@@@@ATL@@XZ$0 100201e0 f   DispFrame.obj
 0001:0001f1ff       __ehhandler$?GetFrameInfoFile@CDispFrame@@QAE?AV?$CStringT@DV?$StrTraitMFC_DLL@DV?$ChTraitsCRT@D@ATL@@@@@ATL@@XZ 100201ff f   DispFrame.obj
 0001:0001f220       __unwindfunclet$?GetFrameScrNum@CDispFrame@@QAE?AV?$CStringT@DV?$StrTraitMFC_DLL@DV?$ChTraitsCRT@D@ATL@@@@@ATL@@XZ$0 10020220 f   DispFrame.obj
 0001:0001f23f       __ehhandler$?GetFrameScrNum@CDispFrame@@QAE?AV?$CStringT@DV?$StrTraitMFC_DLL@DV?$ChTraitsCRT@D@ATL@@@@@ATL@@XZ 1002023f f   DispFrame.obj
 0001:0001f260       __unwindfunclet$?GetAcctList@CDispMain@@QAE?AV?$CStringT@DV?$StrTraitMFC_DLL@DV?$ChTraitsCRT@D@ATL@@@@@ATL@@XZ$0 10020260 f   DispMain.obj
 0001:0001f27f       __ehhandler$?GetAcctList@CDispMain@@QAE?AV?$CStringT@DV?$StrTraitMFC_DLL@DV?$ChTraitsCRT@D@ATL@@@@@ATL@@XZ 1002027f f   DispMain.obj
 0001:0001f2a0       __unwindfunclet$?GetAcctPasswd@CDispMain@@QAE?AV?$CStringT@DV?$StrTraitMFC_DLL@DV?$ChTraitsCRT@D@ATL@@@@@ATL@@PBD@Z$0 100202a0 f   DispMain.obj
 0001:0001f2bf       __ehhandler$?GetAcctPasswd@CDispMain@@QAE?AV?$CStringT@DV?$StrTraitMFC_DLL@DV?$ChTraitsCRT@D@ATL@@@@@ATL@@PBD@Z 100202bf f   DispMain.obj
 0001:0001f2e0       __unwindfunclet$?GetBatchAcctInfo@CDispMain@@QAE?AV?$CStringT@DV?$StrTraitMFC_DLL@DV?$ChTraitsCRT@D@ATL@@@@@ATL@@PBD@Z$0 100202e0 f   DispMain.obj
 0001:0001f2ff       __ehhandler$?GetBatchAcctInfo@CDispMain@@QAE?AV?$CStringT@DV?$StrTraitMFC_DLL@DV?$ChTraitsCRT@D@ATL@@@@@ATL@@PBD@Z 100202ff f   DispMain.obj
 0001:0001f320       __unwindfunclet$?GetFrameSize@CDispMain@@QAE?AV?$CStringT@DV?$StrTraitMFC_DLL@DV?$ChTraitsCRT@D@ATL@@@@@ATL@@F@Z$0 10020320 f   DispMain.obj
 0001:0001f33f       __ehhandler$?GetFrameSize@CDispMain@@QAE?AV?$CStringT@DV?$StrTraitMFC_DLL@DV?$ChTraitsCRT@D@ATL@@@@@ATL@@F@Z 1002033f f   DispMain.obj
 0001:0001f360       __unwindfunclet$?GetFrameVariable@CDispMain@@QAE?AV?$CStringT@DV?$StrTraitMFC_DLL@DV?$ChTraitsCRT@D@ATL@@@@@ATL@@PBD@Z$0 10020360 f   DispMain.obj
 0001:0001f37f       __ehhandler$?GetFrameVariable@CDispMain@@QAE?AV?$CStringT@DV?$StrTraitMFC_DLL@DV?$ChTraitsCRT@D@ATL@@@@@ATL@@PBD@Z 1002037f f   DispMain.obj
 0001:0001f3a0       __unwindfunclet$?GetGShareData@CDispMain@@QAE?AV?$CStringT@DV?$StrTraitMFC_DLL@DV?$ChTraitsCRT@D@ATL@@@@@ATL@@PBD@Z$0 100203a0 f   DispMain.obj
 0001:0001f3bf       __ehhandler$?GetGShareData@CDispMain@@QAE?AV?$CStringT@DV?$StrTraitMFC_DLL@DV?$ChTraitsCRT@D@ATL@@@@@ATL@@PBD@Z 100203bf f   DispMain.obj
 0001:0001f3e0       __unwindfunclet$?GetGwanCode@CDispMain@@QAE?AV?$CStringT@DV?$StrTraitMFC_DLL@DV?$ChTraitsCRT@D@ATL@@@@@ATL@@PBD@Z$0 100203e0 f   DispMain.obj
 0001:0001f3ff       __ehhandler$?GetGwanCode@CDispMain@@QAE?AV?$CStringT@DV?$StrTraitMFC_DLL@DV?$ChTraitsCRT@D@ATL@@@@@ATL@@PBD@Z 100203ff f   DispMain.obj
 0001:0001f420       __unwindfunclet$?GetGwanCodeOneGroup@CDispMain@@QAE?AV?$CStringT@DV?$StrTraitMFC_DLL@DV?$ChTraitsCRT@D@ATL@@@@@ATL@@PBD0@Z$0 10020420 f   DispMain.obj
 0001:0001f43f       __ehhandler$?GetGwanCodeOneGroup@CDispMain@@QAE?AV?$CStringT@DV?$StrTraitMFC_DLL@DV?$ChTraitsCRT@D@ATL@@@@@ATL@@PBD0@Z 1002043f f   DispMain.obj
 0001:0001f460       __unwindfunclet$?GetGwanList@CDispMain@@QAE?AV?$CStringT@DV?$StrTraitMFC_DLL@DV?$ChTraitsCRT@D@ATL@@@@@ATL@@XZ$0 10020460 f   DispMain.obj
 0001:0001f47f       __ehhandler$?GetGwanList@CDispMain@@QAE?AV?$CStringT@DV?$StrTraitMFC_DLL@DV?$ChTraitsCRT@D@ATL@@@@@ATL@@XZ 1002047f f   DispMain.obj
 0001:0001f4a0       __unwindfunclet$?GetMapInfo@CDispMain@@QAE?AV?$CStringT@DV?$StrTraitMFC_DLL@DV?$ChTraitsCRT@D@ATL@@@@@ATL@@F@Z$0 100204a0 f   DispMain.obj
 0001:0001f4bf       __ehhandler$?GetMapInfo@CDispMain@@QAE?AV?$CStringT@DV?$StrTraitMFC_DLL@DV?$ChTraitsCRT@D@ATL@@@@@ATL@@F@Z 100204bf f   DispMain.obj
 0001:0001f4e0       __unwindfunclet$?GetMasterData@CDispMain@@QAE?AV?$CStringT@DV?$StrTraitMFC_DLL@DV?$ChTraitsCRT@D@ATL@@@@@ATL@@F@Z$0 100204e0 f   DispMain.obj
 0001:0001f4ff       __ehhandler$?GetMasterData@CDispMain@@QAE?AV?$CStringT@DV?$StrTraitMFC_DLL@DV?$ChTraitsCRT@D@ATL@@@@@ATL@@F@Z 100204ff f   DispMain.obj
 0001:0001f520       __unwindfunclet$?GetUserInfo@CDispMain@@QAE?AV?$CStringT@DV?$StrTraitMFC_DLL@DV?$ChTraitsCRT@D@ATL@@@@@ATL@@F@Z$0 10020520 f   DispMain.obj
 0001:0001f53f       __ehhandler$?GetUserInfo@CDispMain@@QAE?AV?$CStringT@DV?$StrTraitMFC_DLL@DV?$ChTraitsCRT@D@ATL@@@@@ATL@@F@Z 1002053f f   DispMain.obj
 0001:0001f560       __unwindfunclet$?IHGetSectionData@CDispMain@@QAE?AV?$CStringT@DV?$StrTraitMFC_DLL@DV?$ChTraitsCRT@D@ATL@@@@@ATL@@PBD0000@Z$0 10020560 f   DispMain.obj
 0001:0001f57f       __ehhandler$?IHGetSectionData@CDispMain@@QAE?AV?$CStringT@DV?$StrTraitMFC_DLL@DV?$ChTraitsCRT@D@ATL@@@@@ATL@@PBD0000@Z 1002057f f   DispMain.obj
 0001:0001f5a0       __unwindfunclet$?IHGetSectionNames@CDispMain@@QAE?AV?$CStringT@DV?$StrTraitMFC_DLL@DV?$ChTraitsCRT@D@ATL@@@@@ATL@@PBD0@Z$0 100205a0 f   DispMain.obj
 0001:0001f5bf       __ehhandler$?IHGetSectionNames@CDispMain@@QAE?AV?$CStringT@DV?$StrTraitMFC_DLL@DV?$ChTraitsCRT@D@ATL@@@@@ATL@@PBD0@Z 100205bf f   DispMain.obj
 0001:0001f5e0       __ehhandler$??1CDispCodeOcx@@QAE@XZ 100205e0 f   CodeOcx.obj
 0001:0001f600       __unwindfunclet$?GetCodeInfo@CDispCodeOcx@@QAE?AV?$CStringT@DV?$StrTraitMFC_DLL@DV?$ChTraitsCRT@D@ATL@@@@@ATL@@PBDF0@Z$0 10020600 f   CodeOcx.obj
 0001:0001f61f       __ehhandler$?GetCodeInfo@CDispCodeOcx@@QAE?AV?$CStringT@DV?$StrTraitMFC_DLL@DV?$ChTraitsCRT@D@ATL@@@@@ATL@@PBDF0@Z 1002061f f   CodeOcx.obj
 0001:0001f640       __unwindfunclet$?GetHistoryList@CDispCodeOcx@@QAE?AV?$CStringT@DV?$StrTraitMFC_DLL@DV?$ChTraitsCRT@D@ATL@@@@@ATL@@FJ@Z$0 10020640 f   CodeOcx.obj
 0001:0001f65f       __ehhandler$?GetHistoryList@CDispCodeOcx@@QAE?AV?$CStringT@DV?$StrTraitMFC_DLL@DV?$ChTraitsCRT@D@ATL@@@@@ATL@@FJ@Z 1002065f f   CodeOcx.obj
 0001:0001f680       __unwindfunclet$?GetMaxHangSaGa@CDispCodeOcx@@QAE?AV?$CStringT@DV?$StrTraitMFC_DLL@DV?$ChTraitsCRT@D@ATL@@@@@ATL@@XZ$0 10020680 f   CodeOcx.obj
 0001:0001f69f       __ehhandler$?GetMaxHangSaGa@CDispCodeOcx@@QAE?AV?$CStringT@DV?$StrTraitMFC_DLL@DV?$ChTraitsCRT@D@ATL@@@@@ATL@@XZ 1002069f f   CodeOcx.obj
 0001:0001f6c0       __unwindfunclet$??0CControlPos@@QAE@PAVCWnd@@@Z$0 100206c0 f   ControlPos.obj
 0001:0001f6d0       __ehhandler$??0CControlPos@@QAE@PAVCWnd@@@Z 100206d0 f   ControlPos.obj
 0001:0001f6f0       __ehhandler$??1CControlPos@@UAE@XZ 100206f0 f   ControlPos.obj
 0001:0001f710       __ehhandler$??_GCControlPos@@UAEPAXI@Z 10020710 f   ControlPos.obj
 0001:0001f730       __unwindfunclet$?AddControl@CControlPos@@QAEHABIABKV?$CStringT@DV?$StrTraitMFC_DLL@DV?$ChTraitsCRT@D@ATL@@@@@ATL@@@Z$0 10020730 f   ControlPos.obj
 0001:0001f739       __unwindfunclet$?AddControl@CControlPos@@QAEHABIABKV?$CStringT@DV?$StrTraitMFC_DLL@DV?$ChTraitsCRT@D@ATL@@@@@ATL@@@Z$2 10020739 f   ControlPos.obj
 0001:0001f747       __ehhandler$?AddControl@CControlPos@@QAEHABIABKV?$CStringT@DV?$StrTraitMFC_DLL@DV?$ChTraitsCRT@D@ATL@@@@@ATL@@@Z 10020747 f   ControlPos.obj
 0001:0001f770       __unwindfunclet$?AddControl@CControlPos@@QAEHPAVCWnd@@ABKV?$CStringT@DV?$StrTraitMFC_DLL@DV?$ChTraitsCRT@D@ATL@@@@@ATL@@@Z$0 10020770 f   ControlPos.obj
 0001:0001f77e       __ehhandler$?AddControl@CControlPos@@QAEHPAVCWnd@@ABKV?$CStringT@DV?$StrTraitMFC_DLL@DV?$ChTraitsCRT@D@ATL@@@@@ATL@@@Z 1002077e f   ControlPos.obj
 0001:0001f7a0       __unwindfunclet$?RegGetIP@CSystemInfo@@SA?AV?$CStringT@DV?$StrTraitMFC_DLL@DV?$ChTraitsCRT@D@ATL@@@@@ATL@@XZ$0 100207a0 f   EtcUtil.obj
 0001:0001f7ba       __unwindfunclet$?RegGetIP@CSystemInfo@@SA?AV?$CStringT@DV?$StrTraitMFC_DLL@DV?$ChTraitsCRT@D@ATL@@@@@ATL@@XZ$1 100207ba f   EtcUtil.obj
 0001:0001f7c3       __unwindfunclet$?RegGetIP@CSystemInfo@@SA?AV?$CStringT@DV?$StrTraitMFC_DLL@DV?$ChTraitsCRT@D@ATL@@@@@ATL@@XZ$2 100207c3 f   EtcUtil.obj
 0001:0001f7d1       __ehhandler$?RegGetIP@CSystemInfo@@SA?AV?$CStringT@DV?$StrTraitMFC_DLL@DV?$ChTraitsCRT@D@ATL@@@@@ATL@@XZ 100207d1 f   EtcUtil.obj
 0001:0001f7f0       __unwindfunclet$?OpenWindow@CGwanWnd@@QAEHXZ$0 100207f0 f   GwanWnd.obj
 0001:0001f7fe       __ehhandler$?OpenWindow@CGwanWnd@@QAEHXZ 100207fe f   GwanWnd.obj
 0001:0001f820       __unwindfunclet$?GetSiganlTable@CNewsMoniterWnd@@QAEHV?$CStringT@DV?$StrTraitMFC_DLL@DV?$ChTraitsCRT@D@ATL@@@@@ATL@@AAVCStringArray@@@Z$0 10020820 f   NewsMoniterWnd.obj
 0001:0001f82e       __ehhandler$?GetSiganlTable@CNewsMoniterWnd@@QAEHV?$CStringT@DV?$StrTraitMFC_DLL@DV?$ChTraitsCRT@D@ATL@@@@@ATL@@AAVCStringArray@@@Z 1002082e f   NewsMoniterWnd.obj
 0001:0001f850       __unwindfunclet$?GetSignalData@CNewsMoniterWnd@@QAEXV?$CStringT@DV?$StrTraitMFC_DLL@DV?$ChTraitsCRT@D@ATL@@@@@ATL@@AAVCMapStringToPtr@@@Z$0 10020850 f   NewsMoniterWnd.obj
 0001:0001f85e       __ehhandler$?GetSignalData@CNewsMoniterWnd@@QAEXV?$CStringT@DV?$StrTraitMFC_DLL@DV?$ChTraitsCRT@D@ATL@@@@@ATL@@AAVCMapStringToPtr@@@Z 1002085e f   NewsMoniterWnd.obj
 0001:0001f880       __unwindfunclet$?OnCreate@CNewsMoniterWnd@@IAEHPAUtagCREATESTRUCTA@@@Z$0 10020880 f   NewsMoniterWnd.obj
 0001:0001f889       __unwindfunclet$?OnCreate@CNewsMoniterWnd@@IAEHPAUtagCREATESTRUCTA@@@Z$1 10020889 f   NewsMoniterWnd.obj
 0001:0001f896       __ehhandler$?OnCreate@CNewsMoniterWnd@@IAEHPAUtagCREATESTRUCTA@@@Z 10020896 f   NewsMoniterWnd.obj
 0001:0001f8c0       __unwindfunclet$?OpenWindow@CNewsMoniterWnd@@QAEHXZ$0 100208c0 f   NewsMoniterWnd.obj
 0001:0001f8ce       __ehhandler$?OpenWindow@CNewsMoniterWnd@@QAEHXZ 100208ce f   NewsMoniterWnd.obj
 0001:0001f8f0       __unwindfunclet$?SetSignalData@CNewsMoniterWnd@@QAEXV?$CStringT@DV?$StrTraitMFC_DLL@DV?$ChTraitsCRT@D@ATL@@@@@ATL@@PAVCMapStringToPtr@@@Z$0 100208f0 f   NewsMoniterWnd.obj
 0001:0001f8fe       __ehhandler$?SetSignalData@CNewsMoniterWnd@@QAEXV?$CStringT@DV?$StrTraitMFC_DLL@DV?$ChTraitsCRT@D@ATL@@@@@ATL@@PAVCMapStringToPtr@@@Z 100208fe f   NewsMoniterWnd.obj
 0001:0001f920       __unwindfunclet$?SetSingSiganl@CNewsMoniterWnd@@QAEHHPAVCWnd@@V?$CStringT@DV?$StrTraitMFC_DLL@DV?$ChTraitsCRT@D@ATL@@@@@ATL@@1@Z$0 10020920 f   NewsMoniterWnd.obj
 0001:0001f929       __unwindfunclet$?SetSingSiganl@CNewsMoniterWnd@@QAEHHPAVCWnd@@V?$CStringT@DV?$StrTraitMFC_DLL@DV?$ChTraitsCRT@D@ATL@@@@@ATL@@1@Z$1 10020929 f   NewsMoniterWnd.obj
 0001:0001f932       __unwindfunclet$?SetSingSiganl@CNewsMoniterWnd@@QAEHHPAVCWnd@@V?$CStringT@DV?$StrTraitMFC_DLL@DV?$ChTraitsCRT@D@ATL@@@@@ATL@@1@Z$2 10020932 f   NewsMoniterWnd.obj
 0001:0001f940       __ehhandler$?SetSingSiganl@CNewsMoniterWnd@@QAEHHPAVCWnd@@V?$CStringT@DV?$StrTraitMFC_DLL@DV?$ChTraitsCRT@D@ATL@@@@@ATL@@1@Z 10020940 f   NewsMoniterWnd.obj
 0001:0001f960       __unwindfunclet$?OpenWindow@CPCtrMainWnd@@QAEHXZ$0 10020960 f   PCtrMainWnd.obj
 0001:0001f96e       __ehhandler$?OpenWindow@CPCtrMainWnd@@QAEHXZ 1002096e f   PCtrMainWnd.obj
 0001:0001f990       __unwindfunclet$??0CPcTrMngApp@@QAE@XZ$0 10020990 f   PcTrMng.obj
 0001:0001f998       __unwindfunclet$??0CPcTrMngApp@@QAE@XZ$1 10020998 f   PcTrMng.obj
 0001:0001f9a7       __unwindfunclet$??0CPcTrMngApp@@QAE@XZ$2 100209a7 f   PcTrMng.obj
 0001:0001f9b6       __unwindfunclet$??0CPcTrMngApp@@QAE@XZ$3 100209b6 f   PcTrMng.obj
 0001:0001f9c5       __unwindfunclet$??0CPcTrMngApp@@QAE@XZ$4 100209c5 f   PcTrMng.obj
 0001:0001f9d3       __unwindfunclet$??0CPcTrMngApp@@QAE@XZ$5 100209d3 f   PcTrMng.obj
 0001:0001f9e1       __unwindfunclet$??0CPcTrMngApp@@QAE@XZ$6 100209e1 f   PcTrMng.obj
 0001:0001f9ef       __unwindfunclet$??0CPcTrMngApp@@QAE@XZ$7 100209ef f   PcTrMng.obj
 0001:0001f9fd       __unwindfunclet$??0CPcTrMngApp@@QAE@XZ$8 100209fd f   PcTrMng.obj
 0001:0001fa0b       __unwindfunclet$??0CPcTrMngApp@@QAE@XZ$9 10020a0b f   PcTrMng.obj
 0001:0001fa19       __unwindfunclet$??0CPcTrMngApp@@QAE@XZ$10 10020a19 f   PcTrMng.obj
 0001:0001fa27       __unwindfunclet$??0CPcTrMngApp@@QAE@XZ$11 10020a27 f   PcTrMng.obj
 0001:0001fa35       __unwindfunclet$??0CPcTrMngApp@@QAE@XZ$12 10020a35 f   PcTrMng.obj
 0001:0001fa43       __unwindfunclet$??0CPcTrMngApp@@QAE@XZ$13 10020a43 f   PcTrMng.obj
 0001:0001fa51       __unwindfunclet$??0CPcTrMngApp@@QAE@XZ$14 10020a51 f   PcTrMng.obj
 0001:0001fa60       __unwindfunclet$??0CPcTrMngApp@@QAE@XZ$18 10020a60 f   PcTrMng.obj
 0001:0001fa7a       __unwindfunclet$??0CPcTrMngApp@@QAE@XZ$19 10020a7a f   PcTrMng.obj
 0001:0001fa94       __unwindfunclet$??0CPcTrMngApp@@QAE@XZ$20 10020a94 f   PcTrMng.obj
 0001:0001faae       __unwindfunclet$??0CPcTrMngApp@@QAE@XZ$21 10020aae f   PcTrMng.obj
 0001:0001fabc       __ehhandler$??0CPcTrMngApp@@QAE@XZ 10020abc f   PcTrMng.obj
 0001:0001fae0       __ehhandler$??1?$CList@PAVCSTManager_Info@@PAV1@@@UAE@XZ 10020ae0 f   PcTrMng.obj
 0001:0001fb00       __ehhandler$??_G?$CList@PAVCSTManager_Info@@PAV1@@@UAEPAXI@Z 10020b00 f   PcTrMng.obj
 0001:0001fb20       __unwindfunclet$?DOChartOCXRegister@CPcTrMngApp@@QAEHXZ$0 10020b20 f   PcTrMng.obj
 0001:0001fb2c       __unwindfunclet$?DOChartOCXRegister@CPcTrMngApp@@QAEHXZ$1 10020b2c f   PcTrMng.obj
 0001:0001fb3d       __ehhandler$?DOChartOCXRegister@CPcTrMngApp@@QAEHXZ 10020b3d f   PcTrMng.obj
 0001:0001fb70       __ehhandler$?ExitInstance@CPcTrMngApp@@UAEHXZ 10020b70 f   PcTrMng.obj
 0001:0001fb90       __unwindfunclet$?GetDir_DrfnRoot@@YAXAAV?$CStringT@DV?$StrTraitMFC_DLL@DV?$ChTraitsCRT@D@ATL@@@@@ATL@@@Z$0 10020b90 f   PcTrMng.obj
 0001:0001fb9c       __unwindfunclet$?GetDir_DrfnRoot@@YAXAAV?$CStringT@DV?$StrTraitMFC_DLL@DV?$ChTraitsCRT@D@ATL@@@@@ATL@@@Z$1 10020b9c f   PcTrMng.obj
 0001:0001fba8       __unwindfunclet$?GetDir_DrfnRoot@@YAXAAV?$CStringT@DV?$StrTraitMFC_DLL@DV?$ChTraitsCRT@D@ATL@@@@@ATL@@@Z$2 10020ba8 f   PcTrMng.obj
 0001:0001fbb9       __ehhandler$?GetDir_DrfnRoot@@YAXAAV?$CStringT@DV?$StrTraitMFC_DLL@DV?$ChTraitsCRT@D@ATL@@@@@ATL@@@Z 10020bb9 f   PcTrMng.obj
 0001:0001fbf0       __unwindfunclet$?InitInstance@CPcTrMngApp@@UAEHXZ$7 10020bf0 f   PcTrMng.obj
 0001:0001fbfc       __unwindfunclet$?InitInstance@CPcTrMngApp@@UAEHXZ$8 10020bfc f   PcTrMng.obj
 0001:0001fc08       __unwindfunclet$?InitInstance@CPcTrMngApp@@UAEHXZ$0 10020c08 f   PcTrMng.obj
 0001:0001fc15       __unwindfunclet$?InitInstance@CPcTrMngApp@@UAEHXZ$1 10020c15 f   PcTrMng.obj
 0001:0001fc21       __unwindfunclet$?InitInstance@CPcTrMngApp@@UAEHXZ$2 10020c21 f   PcTrMng.obj
 0001:0001fc33       __unwindfunclet$?InitInstance@CPcTrMngApp@@UAEHXZ$3 10020c33 f   PcTrMng.obj
 0001:0001fc45       __unwindfunclet$?InitInstance@CPcTrMngApp@@UAEHXZ$9 10020c45 f   PcTrMng.obj
 0001:0001fc54       __unwindfunclet$?InitInstance@CPcTrMngApp@@UAEHXZ$4 10020c54 f   PcTrMng.obj
 0001:0001fc66       __unwindfunclet$?InitInstance@CPcTrMngApp@@UAEHXZ$5 10020c66 f   PcTrMng.obj
 0001:0001fc78       __unwindfunclet$?InitInstance@CPcTrMngApp@@UAEHXZ$10 10020c78 f   PcTrMng.obj
 0001:0001fc87       __unwindfunclet$?InitInstance@CPcTrMngApp@@UAEHXZ$11 10020c87 f   PcTrMng.obj
 0001:0001fc93       __unwindfunclet$?InitInstance@CPcTrMngApp@@UAEHXZ$12 10020c93 f   PcTrMng.obj
 0001:0001fc9f       __unwindfunclet$?InitInstance@CPcTrMngApp@@UAEHXZ$6 10020c9f f   PcTrMng.obj
 0001:0001fcb1       __unwindfunclet$?InitInstance@CPcTrMngApp@@UAEHXZ$13 10020cb1 f   PcTrMng.obj
 0001:0001fcc0       __unwindfunclet$?InitInstance@CPcTrMngApp@@UAEHXZ$14 10020cc0 f   PcTrMng.obj
 0001:0001fccc       __unwindfunclet$?InitInstance@CPcTrMngApp@@UAEHXZ$15 10020ccc f   PcTrMng.obj
 0001:0001fcd8       __unwindfunclet$?InitInstance@CPcTrMngApp@@UAEHXZ$16 10020cd8 f   PcTrMng.obj
 0001:0001fce4       __unwindfunclet$?InitInstance@CPcTrMngApp@@UAEHXZ$17 10020ce4 f   PcTrMng.obj
 0001:0001fcf4       __ehhandler$?InitInstance@CPcTrMngApp@@UAEHXZ 10020cf4 f   PcTrMng.obj
 0001:0001fd20       __unwindfunclet$?LoadDefaultColorTable@CPcTrMngApp@@QAEXXZ$0 10020d20 f   PcTrMng.obj
 0001:0001fd2e       __ehhandler$?LoadDefaultColorTable@CPcTrMngApp@@QAEXXZ 10020d2e f   PcTrMng.obj
 0001:0001fd50       __unwindfunclet$?SetHanaroEnvSetting@CPcTrMngApp@@QAEHPAUHWND__@@PBD@Z$0 10020d50 f   PcTrMng.obj
 0001:0001fd5e       __ehhandler$?SetHanaroEnvSetting@CPcTrMngApp@@QAEHPAUHWND__@@PBD@Z 10020d5e f   PcTrMng.obj
 0001:0001fd90       __unwindfunclet$?SetHanaroGateMngHandle@CPcTrMngApp@@QAEXXZ$0 10020d90 f   PcTrMng.obj
 0001:0001fd9e       __ehhandler$?SetHanaroGateMngHandle@CPcTrMngApp@@QAEXXZ 10020d9e f   PcTrMng.obj
 0001:0001fdd0       __unwindfunclet$?_DoClearDataFile@CPcTrMngApp@@QAEXXZ$0 10020dd0 f   PcTrMng.obj
 0001:0001fddc       __unwindfunclet$?_DoClearDataFile@CPcTrMngApp@@QAEXXZ$1 10020ddc f   PcTrMng.obj
 0001:0001fde8       __unwindfunclet$?_DoClearDataFile@CPcTrMngApp@@QAEXXZ$2 10020de8 f   PcTrMng.obj
 0001:0001fdf4       __unwindfunclet$?_DoClearDataFile@CPcTrMngApp@@QAEXXZ$3 10020df4 f   PcTrMng.obj
 0001:0001fe00       __unwindfunclet$?_DoClearDataFile@CPcTrMngApp@@QAEXXZ$4 10020e00 f   PcTrMng.obj
 0001:0001fe08       __unwindfunclet$?_DoClearDataFile@CPcTrMngApp@@QAEXXZ$5 10020e08 f   PcTrMng.obj
 0001:0001fe10       __unwindfunclet$?_DoClearDataFile@CPcTrMngApp@@QAEXXZ$6 10020e10 f   PcTrMng.obj
 0001:0001fe21       __ehhandler$?_DoClearDataFile@CPcTrMngApp@@QAEXXZ 10020e21 f   PcTrMng.obj
 0001:0001fe50       __unwindfunclet$?_DoPrepareData@CPcTrMngApp@@QAEXXZ$0 10020e50 f   PcTrMng.obj
 0001:0001fe59       __unwindfunclet$?_DoPrepareData@CPcTrMngApp@@QAEXXZ$1 10020e59 f   PcTrMng.obj
 0001:0001fe62       __unwindfunclet$?_DoPrepareData@CPcTrMngApp@@QAEXXZ$2 10020e62 f   PcTrMng.obj
 0001:0001fe6f       __ehhandler$?_DoPrepareData@CPcTrMngApp@@QAEXXZ 10020e6f f   PcTrMng.obj
 0001:0001fe90       __unwindfunclet$?_WinixVariant@CPcTrMngApp@@QAE?AV?$CStringT@DV?$StrTraitMFC_DLL@DV?$ChTraitsCRT@D@ATL@@@@@ATL@@PAUHWND__@@HV23@@Z$0 10020e90 f   PcTrMng.obj
 0001:0001fe9e       __ehhandler$?_WinixVariant@CPcTrMngApp@@QAE?AV?$CStringT@DV?$StrTraitMFC_DLL@DV?$ChTraitsCRT@D@ATL@@@@@ATL@@PAUHWND__@@HV23@@Z 10020e9e f   PcTrMng.obj
 0001:0001fec0       __ehhandler$??__F_AtlComModule@ATL@@YAXXZ 10020ec0 f   StdAfx.obj
 0001:0001fee0       __unwindfunclet$?Create@CTRComm@@UAEHPAVCWnd@@@Z$0 10020ee0 f   TrComm.obj
 0001:0001feee       __ehhandler$?Create@CTRComm@@UAEHPAVCWnd@@@Z 10020eee f   TrComm.obj
 0001:0001ff10       __unwindfunclet$?SetTR@CTRComm@@QAEXPBDH@Z$0 10020f10 f   TrComm.obj
 0001:0001ff1e       __ehhandler$?SetTR@CTRComm@@QAEXPBDH@Z 10020f1e f   TrComm.obj
 0001:0001ff40       __unwindfunclet$?_DoPreCheck@CTRComm@@IAEHPAEJHAAH@Z$0 10020f40 f   TrComm.obj
 0001:0001ff49       __unwindfunclet$?_DoPreCheck@CTRComm@@IAEHPAEJHAAH@Z$1 10020f49 f   TrComm.obj
 0001:0001ff52       __unwindfunclet$?_DoPreCheck@CTRComm@@IAEHPAEJHAAH@Z$2 10020f52 f   TrComm.obj
 0001:0001ff5b       __unwindfunclet$?_DoPreCheck@CTRComm@@IAEHPAEJHAAH@Z$3 10020f5b f   TrComm.obj
 0001:0001ff64       __unwindfunclet$?_DoPreCheck@CTRComm@@IAEHPAEJHAAH@Z$4 10020f64 f   TrComm.obj
 0001:0001ff6c       __unwindfunclet$?_DoPreCheck@CTRComm@@IAEHPAEJHAAH@Z$5 10020f6c f   TrComm.obj
 0001:0001ff74       __unwindfunclet$?_DoPreCheck@CTRComm@@IAEHPAEJHAAH@Z$6 10020f74 f   TrComm.obj
 0001:0001ff82       __ehhandler$?_DoPreCheck@CTRComm@@IAEHPAEJHAAH@Z 10020f82 f   TrComm.obj
 0001:0001ffa0       __unwindfunclet$?_DoPreCheck_Dollar@CTRComm@@IAEHPAEJPBDAAH@Z$0 10020fa0 f   TrComm.obj
 0001:0001ffae       __ehhandler$?_DoPreCheck_Dollar@CTRComm@@IAEHPAEJPBDAAH@Z 10020fae f   TrComm.obj
 0001:0001ffd0       __unwindfunclet$?_DoPreCheck_MstCode@CTRComm@@IAEHPAEJPBDAAH@Z$0 10020fd0 f   TrComm.obj
 0001:0001ffd9       __unwindfunclet$?_DoPreCheck_MstCode@CTRComm@@IAEHPAEJPBDAAH@Z$1 10020fd9 f   TrComm.obj
 0001:0001ffe1       __unwindfunclet$?_DoPreCheck_MstCode@CTRComm@@IAEHPAEJPBDAAH@Z$2 10020fe1 f   TrComm.obj
 0001:0001ffe9       __unwindfunclet$?_DoPreCheck_MstCode@CTRComm@@IAEHPAEJPBDAAH@Z$3 10020fe9 f   TrComm.obj
 0001:0001fff7       __ehhandler$?_DoPreCheck_MstCode@CTRComm@@IAEHPAEJPBDAAH@Z 10020ff7 f   TrComm.obj
 0001:00020020       __unwindfunclet$?_DoPreCheck_WorkDate@CTRComm@@IAEHPAEJPBDAAH@Z$0 10021020 f   TrComm.obj
 0001:0002002e       __ehhandler$?_DoPreCheck_WorkDate@CTRComm@@IAEHPAEJPBDAAH@Z 1002102e f   TrComm.obj
 0001:00020050       __ehhandler$?GetAcctCodeEx@CCompanyManager@@UAGHAAV?$CList@PAUSTACC_SSDATA@@PAU1@@@H@Z 10021050 f   _CompanyManager.obj
 0001:00020080       __unwindfunclet$?GetEugeneAcctCode@CCompanyManager@@QAEHAAVCStringList@@0@Z$0 10021080 f   _CompanyManager.obj
 0001:00020094       __unwindfunclet$?GetEugeneAcctCode@CCompanyManager@@QAEHAAVCStringList@@0@Z$1 10021094 f   _CompanyManager.obj
 0001:000200a2       __ehhandler$?GetEugeneAcctCode@CCompanyManager@@QAEHAAVCStringList@@0@Z 100210a2 f   _CompanyManager.obj
 0001:000200d0       __unwindfunclet$?GetEugeneAcctCodeEx@CCompanyManager@@QAEHAAV?$CList@PAUSTACC_SSDATA@@PAU1@@@H@Z$0 100210d0 f   _CompanyManager.obj
 0001:000200e4       __unwindfunclet$?GetEugeneAcctCodeEx@CCompanyManager@@QAEHAAV?$CList@PAUSTACC_SSDATA@@PAU1@@@H@Z$1 100210e4 f   _CompanyManager.obj
 0001:000200f2       __ehhandler$?GetEugeneAcctCodeEx@CCompanyManager@@QAEHAAV?$CList@PAUSTACC_SSDATA@@PAU1@@@H@Z 100210f2 f   _CompanyManager.obj
 0001:00020120       __unwindfunclet$??0CDMMngInfo@@QAE@PBDJJP6GX0JJJJ@Z@Z$0 10021120 f   _DataMonitorManager.obj
 0001:0002012e       __ehhandler$??0CDMMngInfo@@QAE@PBDJJP6GX0JJJJ@Z@Z 1002112e f   _DataMonitorManager.obj
 0001:00020150       __ehhandler$??1?$CList@VCDMMngInfo@@V1@@@UAE@XZ 10021150 f   _DataMonitorManager.obj
 0001:00020170       __ehhandler$??1CAUDataMonitorManager@@QAE@XZ 10021170 f   _DataMonitorManager.obj
 0001:00020190       __ehhandler$??_G?$CList@VCDMMngInfo@@V1@@@UAEPAXI@Z 10021190 f   _DataMonitorManager.obj
 0001:000201b0       __unwindfunclet$?AddTail@?$CList@VCDMMngInfo@@V1@@@QAEPAU__POSITION@@VCDMMngInfo@@@Z$0 100211b0 f   _DataMonitorManager.obj
 0001:000201bd       __ehhandler$?AddTail@?$CList@VCDMMngInfo@@V1@@@QAEPAU__POSITION@@VCDMMngInfo@@@Z 100211bd f   _DataMonitorManager.obj
 0001:000201e0       __unwindfunclet$?Serialize@?$CList@VCDMMngInfo@@V1@@@UAEXAAVCArchive@@@Z$0 100211e0 f   _DataMonitorManager.obj
 0001:000201f8       __ehhandler$?Serialize@?$CList@VCDMMngInfo@@V1@@@UAEXAAVCArchive@@@Z 100211f8 f   _DataMonitorManager.obj
 0001:00020220       __unwindfunclet$??HATL@@YA?AV?$CStringT@DV?$StrTraitMFC_DLL@DV?$ChTraitsCRT@D@ATL@@@@@0@ABV10@0@Z$0 10021220 f   _DataUtilManager.obj
 0001:0002023f       __ehhandler$??HATL@@YA?AV?$CStringT@DV?$StrTraitMFC_DLL@DV?$ChTraitsCRT@D@ATL@@@@@0@ABV10@0@Z 1002123f f   _DataUtilManager.obj
 0001:00020260       __unwindfunclet$?LoadLib@CDRDebugerLoader@@QAEPAUHINSTANCE__@@XZ$0 10021260 f   _DebugManager.obj
 0001:0002026e       __ehhandler$?LoadLib@CDRDebugerLoader@@QAEPAUHINSTANCE__@@XZ 1002126e f   _DebugManager.obj
 0001:00020290       __ehhandler$??1?$CList@PAUIDrdsLib@@PAU1@@@UAE@XZ 10021290 f   _DrdsManager.obj
 0001:000202b0       __ehhandler$??1CAUDrdsManager@@QAE@XZ 100212b0 f   _DrdsManager.obj
 0001:000202d0       __ehhandler$??_G?$CList@PAUIDrdsLib@@PAU1@@@UAEPAXI@Z 100212d0 f   _DrdsManager.obj
 0001:000202f0       __unwindfunclet$??0CMainExInfoManager@@QAE@XZ$0 100212f0 f   _MainExInfoManager.obj
 0001:000202fb       __unwindfunclet$??0CMainExInfoManager@@QAE@XZ$1 100212fb f   _MainExInfoManager.obj
 0001:00020306       __unwindfunclet$??0CMainExInfoManager@@QAE@XZ$2 10021306 f   _MainExInfoManager.obj
 0001:00020311       __unwindfunclet$??0CMainExInfoManager@@QAE@XZ$3 10021311 f   _MainExInfoManager.obj
 0001:0002031c       __unwindfunclet$??0CMainExInfoManager@@QAE@XZ$4 1002131c f   _MainExInfoManager.obj
 0001:00020327       __unwindfunclet$??0CMainExInfoManager@@QAE@XZ$5 10021327 f   _MainExInfoManager.obj
 0001:00020335       __unwindfunclet$??0CMainExInfoManager@@QAE@XZ$6 10021335 f   _MainExInfoManager.obj
 0001:00020343       __unwindfunclet$??0CMainExInfoManager@@QAE@XZ$8 10021343 f   _MainExInfoManager.obj
 0001:0002034b       __unwindfunclet$??0CMainExInfoManager@@QAE@XZ$7 1002134b f   _MainExInfoManager.obj
 0001:0002035e       __ehhandler$??0CMainExInfoManager@@QAE@XZ 1002135e f   _MainExInfoManager.obj
 0001:00020380       __ehhandler$??1?$CList@PAUST_FOR_UserData@@PAU1@@@UAE@XZ 10021380 f   _MainExInfoManager.obj
 0001:000203a0       __ehhandler$??1?$CList@UTR_CODEINFOEX@@U1@@@UAE@XZ 100213a0 f   _MainExInfoManager.obj
 0001:000203c0       __ehhandler$??1CMainExInfoManager@@QAE@XZ 100213c0 f   _MainExInfoManager.obj
 0001:000203e0       __ehhandler$??_G?$CList@PAUST_FOR_UserData@@PAU1@@@UAEPAXI@Z 100213e0 f   _MainExInfoManager.obj
 0001:00020400       __ehhandler$??_G?$CList@UTR_CODEINFOEX@@U1@@@UAEPAXI@Z 10021400 f   _MainExInfoManager.obj
 0001:00020420       __unwindfunclet$?_DoGetUserData@CMainExInfoManager@@QAE_NPBDPAPAEAAH@Z$0 10021420 f   _MainExInfoManager.obj
 0001:00020429       __unwindfunclet$?_DoGetUserData@CMainExInfoManager@@QAE_NPBDPAPAEAAH@Z$1 10021429 f   _MainExInfoManager.obj
 0001:00020432       __unwindfunclet$?_DoGetUserData@CMainExInfoManager@@QAE_NPBDPAPAEAAH@Z$2 10021432 f   _MainExInfoManager.obj
 0001:0002043a       __unwindfunclet$?_DoGetUserData@CMainExInfoManager@@QAE_NPBDPAPAEAAH@Z$3 1002143a f   _MainExInfoManager.obj
 0001:00020447       __ehhandler$?_DoGetUserData@CMainExInfoManager@@QAE_NPBDPAPAEAAH@Z 10021447 f   _MainExInfoManager.obj
 0001:00020470       __unwindfunclet$?_DoSaveUserData@CMainExInfoManager@@QAE_NPBDPAEH@Z$0 10021470 f   _MainExInfoManager.obj
 0001:00020479       __unwindfunclet$?_DoSaveUserData@CMainExInfoManager@@QAE_NPBDPAEH@Z$1 10021479 f   _MainExInfoManager.obj
 0001:00020486       __ehhandler$?_DoSaveUserData@CMainExInfoManager@@QAE_NPBDPAEH@Z 10021486 f   _MainExInfoManager.obj
 0001:000204b0       __unwindfunclet$??0CMainInfoManager@@QAE@XZ$0 100214b0 f   _MainInfoManager.obj
 0001:000204bb       __unwindfunclet$??0CMainInfoManager@@QAE@XZ$1 100214bb f   _MainInfoManager.obj
 0001:000204c7       __unwindfunclet$??0CMainInfoManager@@QAE@XZ$2 100214c7 f   _MainInfoManager.obj
 0001:000204d7       __ehhandler$??0CMainInfoManager@@QAE@XZ 100214d7 f   _MainInfoManager.obj
 0001:00020500       __ehhandler$??1CMainInfoManager@@QAE@XZ 10021500 f   _MainInfoManager.obj
 0001:00020520       __unwindfunclet$??0CMasterDataManager@@QAE@XZ$0 10021520 f   _MasterDataManager.obj
 0001:0002052b       __unwindfunclet$??0CMasterDataManager@@QAE@XZ$1 1002152b f   _MasterDataManager.obj
 0001:00020536       __unwindfunclet$??0CMasterDataManager@@QAE@XZ$2 10021536 f   _MasterDataManager.obj
 0001:00020541       __unwindfunclet$??0CMasterDataManager@@QAE@XZ$3 10021541 f   _MasterDataManager.obj
 0001:0002054c       __unwindfunclet$??0CMasterDataManager@@QAE@XZ$4 1002154c f   _MasterDataManager.obj
 0001:0002055c       __ehhandler$??0CMasterDataManager@@QAE@XZ 1002155c f   _MasterDataManager.obj
 0001:00020580       __ehhandler$??1?$CList@PAUST_STRINGBYTE@@PAU1@@@UAE@XZ 10021580 f   _MasterDataManager.obj
 0001:000205a0       __ehhandler$??1?$CList@PAUST_STRINGSTRING@@PAU1@@@UAE@XZ 100215a0 f   _MasterDataManager.obj
 0001:000205c0       __ehhandler$??1?$CList@PAVCMDM_SubItemA@@PAV1@@@UAE@XZ 100215c0 f   _MasterDataManager.obj
 0001:000205e0       __ehhandler$??1?$CMap@V?$CStringT@DV?$StrTraitMFC_DLL@DV?$ChTraitsCRT@D@ATL@@@@@ATL@@PBDHH@@UAE@XZ 100215e0 f   _MasterDataManager.obj
 0001:00020600       __ehhandler$??1CMasterDataManager@@QAE@XZ 10021600 f   _MasterDataManager.obj
 0001:00020620       __ehhandler$??_G?$CList@PAUST_STRINGBYTE@@PAU1@@@UAEPAXI@Z 10021620 f   _MasterDataManager.obj
 0001:00020640       __ehhandler$??_G?$CList@PAUST_STRINGSTRING@@PAU1@@@UAEPAXI@Z 10021640 f   _MasterDataManager.obj
 0001:00020660       __ehhandler$??_G?$CList@PAVCMDM_SubItemA@@PAV1@@@UAEPAXI@Z 10021660 f   _MasterDataManager.obj
 0001:00020680       __unwindfunclet$?Serialize@?$CMap@V?$CStringT@DV?$StrTraitMFC_DLL@DV?$ChTraitsCRT@D@ATL@@@@@ATL@@PBDHH@@UAEXAAVCArchive@@@Z$0 10021680 f   _MasterDataManager.obj
 0001:00020699       __ehhandler$?Serialize@?$CMap@V?$CStringT@DV?$StrTraitMFC_DLL@DV?$ChTraitsCRT@D@ATL@@@@@ATL@@PBDHH@@UAEXAAVCArchive@@@Z 10021699 f   _MasterDataManager.obj
 0001:000206c0       __unwindfunclet$?_DoParsingCode2@CMasterDataManager@@IAEXAAV?$CStringT@DV?$StrTraitMFC_DLL@DV?$ChTraitsCRT@D@ATL@@@@@ATL@@AAVCStringArray@@1@Z$0 100216c0 f   _MasterDataManager.obj
 0001:000206c9       __unwindfunclet$?_DoParsingCode2@CMasterDataManager@@IAEXAAV?$CStringT@DV?$StrTraitMFC_DLL@DV?$ChTraitsCRT@D@ATL@@@@@ATL@@AAVCStringArray@@1@Z$1 100216c9 f   _MasterDataManager.obj
 0001:000206d2       __unwindfunclet$?_DoParsingCode2@CMasterDataManager@@IAEXAAV?$CStringT@DV?$StrTraitMFC_DLL@DV?$ChTraitsCRT@D@ATL@@@@@ATL@@AAVCStringArray@@1@Z$2 100216d2 f   _MasterDataManager.obj
 0001:000206db       __unwindfunclet$?_DoParsingCode2@CMasterDataManager@@IAEXAAV?$CStringT@DV?$StrTraitMFC_DLL@DV?$ChTraitsCRT@D@ATL@@@@@ATL@@AAVCStringArray@@1@Z$3 100216db f   _MasterDataManager.obj
 0001:000206e4       __unwindfunclet$?_DoParsingCode2@CMasterDataManager@@IAEXAAV?$CStringT@DV?$StrTraitMFC_DLL@DV?$ChTraitsCRT@D@ATL@@@@@ATL@@AAVCStringArray@@1@Z$4 100216e4 f   _MasterDataManager.obj
 0001:000206ed       __unwindfunclet$?_DoParsingCode2@CMasterDataManager@@IAEXAAV?$CStringT@DV?$StrTraitMFC_DLL@DV?$ChTraitsCRT@D@ATL@@@@@ATL@@AAVCStringArray@@1@Z$5 100216ed f   _MasterDataManager.obj
 0001:000206fb       __ehhandler$?_DoParsingCode2@CMasterDataManager@@IAEXAAV?$CStringT@DV?$StrTraitMFC_DLL@DV?$ChTraitsCRT@D@ATL@@@@@ATL@@AAVCStringArray@@1@Z 100216fb f   _MasterDataManager.obj
 0001:00020720       __unwindfunclet$?_DoParsingCode@CMasterDataManager@@IAEXAAV?$CStringT@DV?$StrTraitMFC_DLL@DV?$ChTraitsCRT@D@ATL@@@@@ATL@@AAVCStringArray@@1_NH@Z$0 10021720 f   _MasterDataManager.obj
 0001:00020729       __unwindfunclet$?_DoParsingCode@CMasterDataManager@@IAEXAAV?$CStringT@DV?$StrTraitMFC_DLL@DV?$ChTraitsCRT@D@ATL@@@@@ATL@@AAVCStringArray@@1_NH@Z$1 10021729 f   _MasterDataManager.obj
 0001:00020732       __unwindfunclet$?_DoParsingCode@CMasterDataManager@@IAEXAAV?$CStringT@DV?$StrTraitMFC_DLL@DV?$ChTraitsCRT@D@ATL@@@@@ATL@@AAVCStringArray@@1_NH@Z$2 10021732 f   _MasterDataManager.obj
 0001:0002073b       __unwindfunclet$?_DoParsingCode@CMasterDataManager@@IAEXAAV?$CStringT@DV?$StrTraitMFC_DLL@DV?$ChTraitsCRT@D@ATL@@@@@ATL@@AAVCStringArray@@1_NH@Z$3 1002173b f   _MasterDataManager.obj
 0001:00020744       __unwindfunclet$?_DoParsingCode@CMasterDataManager@@IAEXAAV?$CStringT@DV?$StrTraitMFC_DLL@DV?$ChTraitsCRT@D@ATL@@@@@ATL@@AAVCStringArray@@1_NH@Z$4 10021744 f   _MasterDataManager.obj
 0001:0002074d       __unwindfunclet$?_DoParsingCode@CMasterDataManager@@IAEXAAV?$CStringT@DV?$StrTraitMFC_DLL@DV?$ChTraitsCRT@D@ATL@@@@@ATL@@AAVCStringArray@@1_NH@Z$5 1002174d f   _MasterDataManager.obj
 0001:00020756       __unwindfunclet$?_DoParsingCode@CMasterDataManager@@IAEXAAV?$CStringT@DV?$StrTraitMFC_DLL@DV?$ChTraitsCRT@D@ATL@@@@@ATL@@AAVCStringArray@@1_NH@Z$6 10021756 f   _MasterDataManager.obj
 0001:0002075f       __unwindfunclet$?_DoParsingCode@CMasterDataManager@@IAEXAAV?$CStringT@DV?$StrTraitMFC_DLL@DV?$ChTraitsCRT@D@ATL@@@@@ATL@@AAVCStringArray@@1_NH@Z$7 1002175f f   _MasterDataManager.obj
 0001:0002076d       __ehhandler$?_DoParsingCode@CMasterDataManager@@IAEXAAV?$CStringT@DV?$StrTraitMFC_DLL@DV?$ChTraitsCRT@D@ATL@@@@@ATL@@AAVCStringArray@@1_NH@Z 1002176d f   _MasterDataManager.obj
 0001:00020790       __unwindfunclet$?_DoParsingCodeDPMaster@CMasterDataManager@@IAEXAAV?$CStringT@DV?$StrTraitMFC_DLL@DV?$ChTraitsCRT@D@ATL@@@@@ATL@@AAVCStringArray@@1@Z$0 10021790 f   _MasterDataManager.obj
 0001:0002079c       __unwindfunclet$?_DoParsingCodeDPMaster@CMasterDataManager@@IAEXAAV?$CStringT@DV?$StrTraitMFC_DLL@DV?$ChTraitsCRT@D@ATL@@@@@ATL@@AAVCStringArray@@1@Z$1 1002179c f   _MasterDataManager.obj
 0001:000207a8       __unwindfunclet$?_DoParsingCodeDPMaster@CMasterDataManager@@IAEXAAV?$CStringT@DV?$StrTraitMFC_DLL@DV?$ChTraitsCRT@D@ATL@@@@@ATL@@AAVCStringArray@@1@Z$2 100217a8 f   _MasterDataManager.obj
 0001:000207b4       __unwindfunclet$?_DoParsingCodeDPMaster@CMasterDataManager@@IAEXAAV?$CStringT@DV?$StrTraitMFC_DLL@DV?$ChTraitsCRT@D@ATL@@@@@ATL@@AAVCStringArray@@1@Z$3 100217b4 f   _MasterDataManager.obj
 0001:000207c8       __unwindfunclet$?_DoParsingCodeDPMaster@CMasterDataManager@@IAEXAAV?$CStringT@DV?$StrTraitMFC_DLL@DV?$ChTraitsCRT@D@ATL@@@@@ATL@@AAVCStringArray@@1@Z$4 100217c8 f   _MasterDataManager.obj
 0001:000207d4       __unwindfunclet$?_DoParsingCodeDPMaster@CMasterDataManager@@IAEXAAV?$CStringT@DV?$StrTraitMFC_DLL@DV?$ChTraitsCRT@D@ATL@@@@@ATL@@AAVCStringArray@@1@Z$5 100217d4 f   _MasterDataManager.obj
 0001:000207ea       __unwindfunclet$?_DoParsingCodeDPMaster@CMasterDataManager@@IAEXAAV?$CStringT@DV?$StrTraitMFC_DLL@DV?$ChTraitsCRT@D@ATL@@@@@ATL@@AAVCStringArray@@1@Z$6 100217ea f   _MasterDataManager.obj
 0001:000207fd       __unwindfunclet$?_DoParsingCodeDPMaster@CMasterDataManager@@IAEXAAV?$CStringT@DV?$StrTraitMFC_DLL@DV?$ChTraitsCRT@D@ATL@@@@@ATL@@AAVCStringArray@@1@Z$7 100217fd f   _MasterDataManager.obj
 0001:00020808       __unwindfunclet$?_DoParsingCodeDPMaster@CMasterDataManager@@IAEXAAV?$CStringT@DV?$StrTraitMFC_DLL@DV?$ChTraitsCRT@D@ATL@@@@@ATL@@AAVCStringArray@@1@Z$8 10021808 f   _MasterDataManager.obj
 0001:00020814       __unwindfunclet$?_DoParsingCodeDPMaster@CMasterDataManager@@IAEXAAV?$CStringT@DV?$StrTraitMFC_DLL@DV?$ChTraitsCRT@D@ATL@@@@@ATL@@AAVCStringArray@@1@Z$9 10021814 f   _MasterDataManager.obj
 0001:00020820       __unwindfunclet$?_DoParsingCodeDPMaster@CMasterDataManager@@IAEXAAV?$CStringT@DV?$StrTraitMFC_DLL@DV?$ChTraitsCRT@D@ATL@@@@@ATL@@AAVCStringArray@@1@Z$10 10021820 f   _MasterDataManager.obj
 0001:0002082c       __unwindfunclet$?_DoParsingCodeDPMaster@CMasterDataManager@@IAEXAAV?$CStringT@DV?$StrTraitMFC_DLL@DV?$ChTraitsCRT@D@ATL@@@@@ATL@@AAVCStringArray@@1@Z$11 1002182c f   _MasterDataManager.obj
 0001:00020838       __unwindfunclet$?_DoParsingCodeDPMaster@CMasterDataManager@@IAEXAAV?$CStringT@DV?$StrTraitMFC_DLL@DV?$ChTraitsCRT@D@ATL@@@@@ATL@@AAVCStringArray@@1@Z$12 10021838 f   _MasterDataManager.obj
 0001:00020849       __ehhandler$?_DoParsingCodeDPMaster@CMasterDataManager@@IAEXAAV?$CStringT@DV?$StrTraitMFC_DLL@DV?$ChTraitsCRT@D@ATL@@@@@ATL@@AAVCStringArray@@1@Z 10021849 f   _MasterDataManager.obj
 0001:00020880       __unwindfunclet$?_DoParsingCodeFX@CMasterDataManager@@IAEXAAV?$CStringT@DV?$StrTraitMFC_DLL@DV?$ChTraitsCRT@D@ATL@@@@@ATL@@AAVCStringArray@@1_NH@Z$0 10021880 f   _MasterDataManager.obj
 0001:00020889       __unwindfunclet$?_DoParsingCodeFX@CMasterDataManager@@IAEXAAV?$CStringT@DV?$StrTraitMFC_DLL@DV?$ChTraitsCRT@D@ATL@@@@@ATL@@AAVCStringArray@@1_NH@Z$1 10021889 f   _MasterDataManager.obj
 0001:00020892       __unwindfunclet$?_DoParsingCodeFX@CMasterDataManager@@IAEXAAV?$CStringT@DV?$StrTraitMFC_DLL@DV?$ChTraitsCRT@D@ATL@@@@@ATL@@AAVCStringArray@@1_NH@Z$2 10021892 f   _MasterDataManager.obj
 0001:0002089b       __unwindfunclet$?_DoParsingCodeFX@CMasterDataManager@@IAEXAAV?$CStringT@DV?$StrTraitMFC_DLL@DV?$ChTraitsCRT@D@ATL@@@@@ATL@@AAVCStringArray@@1_NH@Z$3 1002189b f   _MasterDataManager.obj
 0001:000208a4       __unwindfunclet$?_DoParsingCodeFX@CMasterDataManager@@IAEXAAV?$CStringT@DV?$StrTraitMFC_DLL@DV?$ChTraitsCRT@D@ATL@@@@@ATL@@AAVCStringArray@@1_NH@Z$4 100218a4 f   _MasterDataManager.obj
 0001:000208ad       __unwindfunclet$?_DoParsingCodeFX@CMasterDataManager@@IAEXAAV?$CStringT@DV?$StrTraitMFC_DLL@DV?$ChTraitsCRT@D@ATL@@@@@ATL@@AAVCStringArray@@1_NH@Z$5 100218ad f   _MasterDataManager.obj
 0001:000208b6       __unwindfunclet$?_DoParsingCodeFX@CMasterDataManager@@IAEXAAV?$CStringT@DV?$StrTraitMFC_DLL@DV?$ChTraitsCRT@D@ATL@@@@@ATL@@AAVCStringArray@@1_NH@Z$6 100218b6 f   _MasterDataManager.obj
 0001:000208bf       __unwindfunclet$?_DoParsingCodeFX@CMasterDataManager@@IAEXAAV?$CStringT@DV?$StrTraitMFC_DLL@DV?$ChTraitsCRT@D@ATL@@@@@ATL@@AAVCStringArray@@1_NH@Z$7 100218bf f   _MasterDataManager.obj
 0001:000208c8       __unwindfunclet$?_DoParsingCodeFX@CMasterDataManager@@IAEXAAV?$CStringT@DV?$StrTraitMFC_DLL@DV?$ChTraitsCRT@D@ATL@@@@@ATL@@AAVCStringArray@@1_NH@Z$8 100218c8 f   _MasterDataManager.obj
 0001:000208d1       __unwindfunclet$?_DoParsingCodeFX@CMasterDataManager@@IAEXAAV?$CStringT@DV?$StrTraitMFC_DLL@DV?$ChTraitsCRT@D@ATL@@@@@ATL@@AAVCStringArray@@1_NH@Z$9 100218d1 f   _MasterDataManager.obj
 0001:000208df       __ehhandler$?_DoParsingCodeFX@CMasterDataManager@@IAEXAAV?$CStringT@DV?$StrTraitMFC_DLL@DV?$ChTraitsCRT@D@ATL@@@@@ATL@@AAVCStringArray@@1_NH@Z 100218df f   _MasterDataManager.obj
 0001:00020900       __unwindfunclet$?_DoParsingCodeForeign@CMasterDataManager@@IAEXAAV?$CStringT@DV?$StrTraitMFC_DLL@DV?$ChTraitsCRT@D@ATL@@@@@ATL@@AAVCStringArray@@1@Z$0 10021900 f   _MasterDataManager.obj
 0001:00020909       __unwindfunclet$?_DoParsingCodeForeign@CMasterDataManager@@IAEXAAV?$CStringT@DV?$StrTraitMFC_DLL@DV?$ChTraitsCRT@D@ATL@@@@@ATL@@AAVCStringArray@@1@Z$1 10021909 f   _MasterDataManager.obj
 0001:00020912       __unwindfunclet$?_DoParsingCodeForeign@CMasterDataManager@@IAEXAAV?$CStringT@DV?$StrTraitMFC_DLL@DV?$ChTraitsCRT@D@ATL@@@@@ATL@@AAVCStringArray@@1@Z$2 10021912 f   _MasterDataManager.obj
 0001:0002091b       __unwindfunclet$?_DoParsingCodeForeign@CMasterDataManager@@IAEXAAV?$CStringT@DV?$StrTraitMFC_DLL@DV?$ChTraitsCRT@D@ATL@@@@@ATL@@AAVCStringArray@@1@Z$3 1002191b f   _MasterDataManager.obj
 0001:00020924       __unwindfunclet$?_DoParsingCodeForeign@CMasterDataManager@@IAEXAAV?$CStringT@DV?$StrTraitMFC_DLL@DV?$ChTraitsCRT@D@ATL@@@@@ATL@@AAVCStringArray@@1@Z$4 10021924 f   _MasterDataManager.obj
 0001:0002092d       __unwindfunclet$?_DoParsingCodeForeign@CMasterDataManager@@IAEXAAV?$CStringT@DV?$StrTraitMFC_DLL@DV?$ChTraitsCRT@D@ATL@@@@@ATL@@AAVCStringArray@@1@Z$5 1002192d f   _MasterDataManager.obj
 0001:0002093b       __ehhandler$?_DoParsingCodeForeign@CMasterDataManager@@IAEXAAV?$CStringT@DV?$StrTraitMFC_DLL@DV?$ChTraitsCRT@D@ATL@@@@@ATL@@AAVCStringArray@@1@Z 1002193b f   _MasterDataManager.obj
 0001:00020960       __unwindfunclet$?_DoParsingCodeJPMaster@CMasterDataManager@@IAEXAAV?$CStringT@DV?$StrTraitMFC_DLL@DV?$ChTraitsCRT@D@ATL@@@@@ATL@@AAVCStringArray@@1@Z$0 10021960 f   _MasterDataManager.obj
 0001:0002096c       __unwindfunclet$?_DoParsingCodeJPMaster@CMasterDataManager@@IAEXAAV?$CStringT@DV?$StrTraitMFC_DLL@DV?$ChTraitsCRT@D@ATL@@@@@ATL@@AAVCStringArray@@1@Z$1 1002196c f   _MasterDataManager.obj
 0001:00020978       __unwindfunclet$?_DoParsingCodeJPMaster@CMasterDataManager@@IAEXAAV?$CStringT@DV?$StrTraitMFC_DLL@DV?$ChTraitsCRT@D@ATL@@@@@ATL@@AAVCStringArray@@1@Z$2 10021978 f   _MasterDataManager.obj
 0001:00020984       __unwindfunclet$?_DoParsingCodeJPMaster@CMasterDataManager@@IAEXAAV?$CStringT@DV?$StrTraitMFC_DLL@DV?$ChTraitsCRT@D@ATL@@@@@ATL@@AAVCStringArray@@1@Z$3 10021984 f   _MasterDataManager.obj
 0001:00020998       __unwindfunclet$?_DoParsingCodeJPMaster@CMasterDataManager@@IAEXAAV?$CStringT@DV?$StrTraitMFC_DLL@DV?$ChTraitsCRT@D@ATL@@@@@ATL@@AAVCStringArray@@1@Z$4 10021998 f   _MasterDataManager.obj
 0001:000209a4       __unwindfunclet$?_DoParsingCodeJPMaster@CMasterDataManager@@IAEXAAV?$CStringT@DV?$StrTraitMFC_DLL@DV?$ChTraitsCRT@D@ATL@@@@@ATL@@AAVCStringArray@@1@Z$5 100219a4 f   _MasterDataManager.obj
 0001:000209ba       __unwindfunclet$?_DoParsingCodeJPMaster@CMasterDataManager@@IAEXAAV?$CStringT@DV?$StrTraitMFC_DLL@DV?$ChTraitsCRT@D@ATL@@@@@ATL@@AAVCStringArray@@1@Z$6 100219ba f   _MasterDataManager.obj
 0001:000209cd       __unwindfunclet$?_DoParsingCodeJPMaster@CMasterDataManager@@IAEXAAV?$CStringT@DV?$StrTraitMFC_DLL@DV?$ChTraitsCRT@D@ATL@@@@@ATL@@AAVCStringArray@@1@Z$7 100219cd f   _MasterDataManager.obj
 0001:000209d9       __unwindfunclet$?_DoParsingCodeJPMaster@CMasterDataManager@@IAEXAAV?$CStringT@DV?$StrTraitMFC_DLL@DV?$ChTraitsCRT@D@ATL@@@@@ATL@@AAVCStringArray@@1@Z$8 100219d9 f   _MasterDataManager.obj
 0001:000209e5       __unwindfunclet$?_DoParsingCodeJPMaster@CMasterDataManager@@IAEXAAV?$CStringT@DV?$StrTraitMFC_DLL@DV?$ChTraitsCRT@D@ATL@@@@@ATL@@AAVCStringArray@@1@Z$9 100219e5 f   _MasterDataManager.obj
 0001:000209f1       __unwindfunclet$?_DoParsingCodeJPMaster@CMasterDataManager@@IAEXAAV?$CStringT@DV?$StrTraitMFC_DLL@DV?$ChTraitsCRT@D@ATL@@@@@ATL@@AAVCStringArray@@1@Z$10 100219f1 f   _MasterDataManager.obj
 0001:000209fd       __unwindfunclet$?_DoParsingCodeJPMaster@CMasterDataManager@@IAEXAAV?$CStringT@DV?$StrTraitMFC_DLL@DV?$ChTraitsCRT@D@ATL@@@@@ATL@@AAVCStringArray@@1@Z$11 100219fd f   _MasterDataManager.obj
 0001:00020a09       __unwindfunclet$?_DoParsingCodeJPMaster@CMasterDataManager@@IAEXAAV?$CStringT@DV?$StrTraitMFC_DLL@DV?$ChTraitsCRT@D@ATL@@@@@ATL@@AAVCStringArray@@1@Z$12 10021a09 f   _MasterDataManager.obj
 0001:00020a15       __unwindfunclet$?_DoParsingCodeJPMaster@CMasterDataManager@@IAEXAAV?$CStringT@DV?$StrTraitMFC_DLL@DV?$ChTraitsCRT@D@ATL@@@@@ATL@@AAVCStringArray@@1@Z$13 10021a15 f   _MasterDataManager.obj
 0001:00020a26       __ehhandler$?_DoParsingCodeJPMaster@CMasterDataManager@@IAEXAAV?$CStringT@DV?$StrTraitMFC_DLL@DV?$ChTraitsCRT@D@ATL@@@@@ATL@@AAVCStringArray@@1@Z 10021a26 f   _MasterDataManager.obj
 0001:00020a50       __unwindfunclet$?_DoParsingCodeMiniMaster@CMasterDataManager@@IAEXAAV?$CStringT@DV?$StrTraitMFC_DLL@DV?$ChTraitsCRT@D@ATL@@@@@ATL@@AAVCStringArray@@1@Z$0 10021a50 f   _MasterDataManager.obj
 0001:00020a5c       __unwindfunclet$?_DoParsingCodeMiniMaster@CMasterDataManager@@IAEXAAV?$CStringT@DV?$StrTraitMFC_DLL@DV?$ChTraitsCRT@D@ATL@@@@@ATL@@AAVCStringArray@@1@Z$1 10021a5c f   _MasterDataManager.obj
 0001:00020a68       __unwindfunclet$?_DoParsingCodeMiniMaster@CMasterDataManager@@IAEXAAV?$CStringT@DV?$StrTraitMFC_DLL@DV?$ChTraitsCRT@D@ATL@@@@@ATL@@AAVCStringArray@@1@Z$2 10021a68 f   _MasterDataManager.obj
 0001:00020a74       __unwindfunclet$?_DoParsingCodeMiniMaster@CMasterDataManager@@IAEXAAV?$CStringT@DV?$StrTraitMFC_DLL@DV?$ChTraitsCRT@D@ATL@@@@@ATL@@AAVCStringArray@@1@Z$3 10021a74 f   _MasterDataManager.obj
 0001:00020a88       __unwindfunclet$?_DoParsingCodeMiniMaster@CMasterDataManager@@IAEXAAV?$CStringT@DV?$StrTraitMFC_DLL@DV?$ChTraitsCRT@D@ATL@@@@@ATL@@AAVCStringArray@@1@Z$4 10021a88 f   _MasterDataManager.obj
 0001:00020a94       __unwindfunclet$?_DoParsingCodeMiniMaster@CMasterDataManager@@IAEXAAV?$CStringT@DV?$StrTraitMFC_DLL@DV?$ChTraitsCRT@D@ATL@@@@@ATL@@AAVCStringArray@@1@Z$5 10021a94 f   _MasterDataManager.obj
 0001:00020aaa       __unwindfunclet$?_DoParsingCodeMiniMaster@CMasterDataManager@@IAEXAAV?$CStringT@DV?$StrTraitMFC_DLL@DV?$ChTraitsCRT@D@ATL@@@@@ATL@@AAVCStringArray@@1@Z$6 10021aaa f   _MasterDataManager.obj
 0001:00020ac0       __unwindfunclet$?_DoParsingCodeMiniMaster@CMasterDataManager@@IAEXAAV?$CStringT@DV?$StrTraitMFC_DLL@DV?$ChTraitsCRT@D@ATL@@@@@ATL@@AAVCStringArray@@1@Z$7 10021ac0 f   _MasterDataManager.obj
 0001:00020acc       __unwindfunclet$?_DoParsingCodeMiniMaster@CMasterDataManager@@IAEXAAV?$CStringT@DV?$StrTraitMFC_DLL@DV?$ChTraitsCRT@D@ATL@@@@@ATL@@AAVCStringArray@@1@Z$8 10021acc f   _MasterDataManager.obj
 0001:00020ad8       __unwindfunclet$?_DoParsingCodeMiniMaster@CMasterDataManager@@IAEXAAV?$CStringT@DV?$StrTraitMFC_DLL@DV?$ChTraitsCRT@D@ATL@@@@@ATL@@AAVCStringArray@@1@Z$9 10021ad8 f   _MasterDataManager.obj
 0001:00020ae4       __unwindfunclet$?_DoParsingCodeMiniMaster@CMasterDataManager@@IAEXAAV?$CStringT@DV?$StrTraitMFC_DLL@DV?$ChTraitsCRT@D@ATL@@@@@ATL@@AAVCStringArray@@1@Z$10 10021ae4 f   _MasterDataManager.obj
 0001:00020af0       __unwindfunclet$?_DoParsingCodeMiniMaster@CMasterDataManager@@IAEXAAV?$CStringT@DV?$StrTraitMFC_DLL@DV?$ChTraitsCRT@D@ATL@@@@@ATL@@AAVCStringArray@@1@Z$11 10021af0 f   _MasterDataManager.obj
 0001:00020afc       __unwindfunclet$?_DoParsingCodeMiniMaster@CMasterDataManager@@IAEXAAV?$CStringT@DV?$StrTraitMFC_DLL@DV?$ChTraitsCRT@D@ATL@@@@@ATL@@AAVCStringArray@@1@Z$12 10021afc f   _MasterDataManager.obj
 0001:00020b08       __unwindfunclet$?_DoParsingCodeMiniMaster@CMasterDataManager@@IAEXAAV?$CStringT@DV?$StrTraitMFC_DLL@DV?$ChTraitsCRT@D@ATL@@@@@ATL@@AAVCStringArray@@1@Z$13 10021b08 f   _MasterDataManager.obj
 0001:00020b14       __unwindfunclet$?_DoParsingCodeMiniMaster@CMasterDataManager@@IAEXAAV?$CStringT@DV?$StrTraitMFC_DLL@DV?$ChTraitsCRT@D@ATL@@@@@ATL@@AAVCStringArray@@1@Z$14 10021b14 f   _MasterDataManager.obj
 0001:00020b25       __ehhandler$?_DoParsingCodeMiniMaster@CMasterDataManager@@IAEXAAV?$CStringT@DV?$StrTraitMFC_DLL@DV?$ChTraitsCRT@D@ATL@@@@@ATL@@AAVCStringArray@@1@Z 10021b25 f   _MasterDataManager.obj
 0001:00020b50       __unwindfunclet$?_DoParsingCodePMaster@CMasterDataManager@@IAEXAAV?$CStringT@DV?$StrTraitMFC_DLL@DV?$ChTraitsCRT@D@ATL@@@@@ATL@@AAVCStringArray@@1@Z$0 10021b50 f   _MasterDataManager.obj
 0001:00020b5c       __unwindfunclet$?_DoParsingCodePMaster@CMasterDataManager@@IAEXAAV?$CStringT@DV?$StrTraitMFC_DLL@DV?$ChTraitsCRT@D@ATL@@@@@ATL@@AAVCStringArray@@1@Z$1 10021b5c f   _MasterDataManager.obj
 0001:00020b68       __unwindfunclet$?_DoParsingCodePMaster@CMasterDataManager@@IAEXAAV?$CStringT@DV?$StrTraitMFC_DLL@DV?$ChTraitsCRT@D@ATL@@@@@ATL@@AAVCStringArray@@1@Z$2 10021b68 f   _MasterDataManager.obj
 0001:00020b74       __unwindfunclet$?_DoParsingCodePMaster@CMasterDataManager@@IAEXAAV?$CStringT@DV?$StrTraitMFC_DLL@DV?$ChTraitsCRT@D@ATL@@@@@ATL@@AAVCStringArray@@1@Z$3 10021b74 f   _MasterDataManager.obj
 0001:00020b88       __unwindfunclet$?_DoParsingCodePMaster@CMasterDataManager@@IAEXAAV?$CStringT@DV?$StrTraitMFC_DLL@DV?$ChTraitsCRT@D@ATL@@@@@ATL@@AAVCStringArray@@1@Z$4 10021b88 f   _MasterDataManager.obj
 0001:00020b94       __unwindfunclet$?_DoParsingCodePMaster@CMasterDataManager@@IAEXAAV?$CStringT@DV?$StrTraitMFC_DLL@DV?$ChTraitsCRT@D@ATL@@@@@ATL@@AAVCStringArray@@1@Z$5 10021b94 f   _MasterDataManager.obj
 0001:00020baa       __unwindfunclet$?_DoParsingCodePMaster@CMasterDataManager@@IAEXAAV?$CStringT@DV?$StrTraitMFC_DLL@DV?$ChTraitsCRT@D@ATL@@@@@ATL@@AAVCStringArray@@1@Z$6 10021baa f   _MasterDataManager.obj
 0001:00020bc0       __unwindfunclet$?_DoParsingCodePMaster@CMasterDataManager@@IAEXAAV?$CStringT@DV?$StrTraitMFC_DLL@DV?$ChTraitsCRT@D@ATL@@@@@ATL@@AAVCStringArray@@1@Z$7 10021bc0 f   _MasterDataManager.obj
 0001:00020bcc       __unwindfunclet$?_DoParsingCodePMaster@CMasterDataManager@@IAEXAAV?$CStringT@DV?$StrTraitMFC_DLL@DV?$ChTraitsCRT@D@ATL@@@@@ATL@@AAVCStringArray@@1@Z$8 10021bcc f   _MasterDataManager.obj
 0001:00020bd8       __unwindfunclet$?_DoParsingCodePMaster@CMasterDataManager@@IAEXAAV?$CStringT@DV?$StrTraitMFC_DLL@DV?$ChTraitsCRT@D@ATL@@@@@ATL@@AAVCStringArray@@1@Z$9 10021bd8 f   _MasterDataManager.obj
 0001:00020be4       __unwindfunclet$?_DoParsingCodePMaster@CMasterDataManager@@IAEXAAV?$CStringT@DV?$StrTraitMFC_DLL@DV?$ChTraitsCRT@D@ATL@@@@@ATL@@AAVCStringArray@@1@Z$10 10021be4 f   _MasterDataManager.obj
 0001:00020bf0       __unwindfunclet$?_DoParsingCodePMaster@CMasterDataManager@@IAEXAAV?$CStringT@DV?$StrTraitMFC_DLL@DV?$ChTraitsCRT@D@ATL@@@@@ATL@@AAVCStringArray@@1@Z$11 10021bf0 f   _MasterDataManager.obj
 0001:00020bfc       __unwindfunclet$?_DoParsingCodePMaster@CMasterDataManager@@IAEXAAV?$CStringT@DV?$StrTraitMFC_DLL@DV?$ChTraitsCRT@D@ATL@@@@@ATL@@AAVCStringArray@@1@Z$12 10021bfc f   _MasterDataManager.obj
 0001:00020c08       __unwindfunclet$?_DoParsingCodePMaster@CMasterDataManager@@IAEXAAV?$CStringT@DV?$StrTraitMFC_DLL@DV?$ChTraitsCRT@D@ATL@@@@@ATL@@AAVCStringArray@@1@Z$13 10021c08 f   _MasterDataManager.obj
 0001:00020c19       __ehhandler$?_DoParsingCodePMaster@CMasterDataManager@@IAEXAAV?$CStringT@DV?$StrTraitMFC_DLL@DV?$ChTraitsCRT@D@ATL@@@@@ATL@@AAVCStringArray@@1@Z 10021c19 f   _MasterDataManager.obj
 0001:00020c50       __unwindfunclet$?_DoParsingCodeWeeklyMaster@CMasterDataManager@@IAEXAAV?$CStringT@DV?$StrTraitMFC_DLL@DV?$ChTraitsCRT@D@ATL@@@@@ATL@@AAVCStringArray@@1@Z$0 10021c50 f   _MasterDataManager.obj
 0001:00020c5c       __unwindfunclet$?_DoParsingCodeWeeklyMaster@CMasterDataManager@@IAEXAAV?$CStringT@DV?$StrTraitMFC_DLL@DV?$ChTraitsCRT@D@ATL@@@@@ATL@@AAVCStringArray@@1@Z$1 10021c5c f   _MasterDataManager.obj
 0001:00020c68       __unwindfunclet$?_DoParsingCodeWeeklyMaster@CMasterDataManager@@IAEXAAV?$CStringT@DV?$StrTraitMFC_DLL@DV?$ChTraitsCRT@D@ATL@@@@@ATL@@AAVCStringArray@@1@Z$2 10021c68 f   _MasterDataManager.obj
 0001:00020c74       __unwindfunclet$?_DoParsingCodeWeeklyMaster@CMasterDataManager@@IAEXAAV?$CStringT@DV?$StrTraitMFC_DLL@DV?$ChTraitsCRT@D@ATL@@@@@ATL@@AAVCStringArray@@1@Z$3 10021c74 f   _MasterDataManager.obj
 0001:00020c88       __unwindfunclet$?_DoParsingCodeWeeklyMaster@CMasterDataManager@@IAEXAAV?$CStringT@DV?$StrTraitMFC_DLL@DV?$ChTraitsCRT@D@ATL@@@@@ATL@@AAVCStringArray@@1@Z$4 10021c88 f   _MasterDataManager.obj
 0001:00020c94       __unwindfunclet$?_DoParsingCodeWeeklyMaster@CMasterDataManager@@IAEXAAV?$CStringT@DV?$StrTraitMFC_DLL@DV?$ChTraitsCRT@D@ATL@@@@@ATL@@AAVCStringArray@@1@Z$5 10021c94 f   _MasterDataManager.obj
 0001:00020caa       __unwindfunclet$?_DoParsingCodeWeeklyMaster@CMasterDataManager@@IAEXAAV?$CStringT@DV?$StrTraitMFC_DLL@DV?$ChTraitsCRT@D@ATL@@@@@ATL@@AAVCStringArray@@1@Z$6 10021caa f   _MasterDataManager.obj
 0001:00020cc0       __unwindfunclet$?_DoParsingCodeWeeklyMaster@CMasterDataManager@@IAEXAAV?$CStringT@DV?$StrTraitMFC_DLL@DV?$ChTraitsCRT@D@ATL@@@@@ATL@@AAVCStringArray@@1@Z$7 10021cc0 f   _MasterDataManager.obj
 0001:00020ccc       __unwindfunclet$?_DoParsingCodeWeeklyMaster@CMasterDataManager@@IAEXAAV?$CStringT@DV?$StrTraitMFC_DLL@DV?$ChTraitsCRT@D@ATL@@@@@ATL@@AAVCStringArray@@1@Z$8 10021ccc f   _MasterDataManager.obj
 0001:00020cd8       __unwindfunclet$?_DoParsingCodeWeeklyMaster@CMasterDataManager@@IAEXAAV?$CStringT@DV?$StrTraitMFC_DLL@DV?$ChTraitsCRT@D@ATL@@@@@ATL@@AAVCStringArray@@1@Z$9 10021cd8 f   _MasterDataManager.obj
 0001:00020ce4       __unwindfunclet$?_DoParsingCodeWeeklyMaster@CMasterDataManager@@IAEXAAV?$CStringT@DV?$StrTraitMFC_DLL@DV?$ChTraitsCRT@D@ATL@@@@@ATL@@AAVCStringArray@@1@Z$10 10021ce4 f   _MasterDataManager.obj
 0001:00020cf0       __unwindfunclet$?_DoParsingCodeWeeklyMaster@CMasterDataManager@@IAEXAAV?$CStringT@DV?$StrTraitMFC_DLL@DV?$ChTraitsCRT@D@ATL@@@@@ATL@@AAVCStringArray@@1@Z$11 10021cf0 f   _MasterDataManager.obj
 0001:00020cfc       __unwindfunclet$?_DoParsingCodeWeeklyMaster@CMasterDataManager@@IAEXAAV?$CStringT@DV?$StrTraitMFC_DLL@DV?$ChTraitsCRT@D@ATL@@@@@ATL@@AAVCStringArray@@1@Z$18 10021cfc f   _MasterDataManager.obj
 0001:00020d1f       __unwindfunclet$?_DoParsingCodeWeeklyMaster@CMasterDataManager@@IAEXAAV?$CStringT@DV?$StrTraitMFC_DLL@DV?$ChTraitsCRT@D@ATL@@@@@ATL@@AAVCStringArray@@1@Z$13 10021d1f f   _MasterDataManager.obj
 0001:00020d2b       __unwindfunclet$?_DoParsingCodeWeeklyMaster@CMasterDataManager@@IAEXAAV?$CStringT@DV?$StrTraitMFC_DLL@DV?$ChTraitsCRT@D@ATL@@@@@ATL@@AAVCStringArray@@1@Z$14 10021d2b f   _MasterDataManager.obj
 0001:00020d37       __unwindfunclet$?_DoParsingCodeWeeklyMaster@CMasterDataManager@@IAEXAAV?$CStringT@DV?$StrTraitMFC_DLL@DV?$ChTraitsCRT@D@ATL@@@@@ATL@@AAVCStringArray@@1@Z$15 10021d37 f   _MasterDataManager.obj
 0001:00020d43       __unwindfunclet$?_DoParsingCodeWeeklyMaster@CMasterDataManager@@IAEXAAV?$CStringT@DV?$StrTraitMFC_DLL@DV?$ChTraitsCRT@D@ATL@@@@@ATL@@AAVCStringArray@@1@Z$16 10021d43 f   _MasterDataManager.obj
 0001:00020d4f       __unwindfunclet$?_DoParsingCodeWeeklyMaster@CMasterDataManager@@IAEXAAV?$CStringT@DV?$StrTraitMFC_DLL@DV?$ChTraitsCRT@D@ATL@@@@@ATL@@AAVCStringArray@@1@Z$17 10021d4f f   _MasterDataManager.obj
 0001:00020d60       __ehhandler$?_DoParsingCodeWeeklyMaster@CMasterDataManager@@IAEXAAV?$CStringT@DV?$StrTraitMFC_DLL@DV?$ChTraitsCRT@D@ATL@@@@@ATL@@AAVCStringArray@@1@Z 10021d60 f   _MasterDataManager.obj
 0001:00020d90       __unwindfunclet$?_DoSortCode@CMasterDataManager@@IAEXAAVCStringArray@@0@Z$0 10021d90 f   _MasterDataManager.obj
 0001:00020d9c       __unwindfunclet$?_DoSortCode@CMasterDataManager@@IAEXAAVCStringArray@@0@Z$1 10021d9c f   _MasterDataManager.obj
 0001:00020da5       __unwindfunclet$?_DoSortCode@CMasterDataManager@@IAEXAAVCStringArray@@0@Z$2 10021da5 f   _MasterDataManager.obj
 0001:00020db1       __unwindfunclet$?_DoSortCode@CMasterDataManager@@IAEXAAVCStringArray@@0@Z$3 10021db1 f   _MasterDataManager.obj
 0001:00020dc2       __ehhandler$?_DoSortCode@CMasterDataManager@@IAEXAAVCStringArray@@0@Z 10021dc2 f   _MasterDataManager.obj
 0001:00020df0       __ehhandler$??1?$CList@PAUST_NewsSignalMng@@PAU1@@@UAE@XZ 10021df0 f   _NewSignalManager.obj
 0001:00020e10       __ehhandler$??1CNewsSignalManager@@QAE@XZ 10021e10 f   _NewSignalManager.obj
 0001:00020e30       __ehhandler$??_G?$CList@PAUST_NewsSignalMng@@PAU1@@@UAEPAXI@Z 10021e30 f   _NewSignalManager.obj
 0001:00020e50       __ehhandler$??1?$CList@PAUISkinColorSite@@PAU1@@@UAE@XZ 10021e50 f   _SkinColorManager.obj
 0001:00020e70       __ehhandler$??1CSkinColorManager@@QAE@XZ 10021e70 f   _SkinColorManager.obj
 0001:00020e90       __ehhandler$??_G?$CList@PAUISkinColorSite@@PAU1@@@UAEPAXI@Z 10021e90 f   _SkinColorManager.obj
 0001:00020eb0       __unwindfunclet$?LoadSkinInfo@CSkinColorManager@@QAEXXZ$0 10021eb0 f   _SkinColorManager.obj
 0001:00020ebb       __unwindfunclet$?LoadSkinInfo@CSkinColorManager@@QAEXXZ$3 10021ebb f   _SkinColorManager.obj
 0001:00020ec7       __unwindfunclet$?LoadSkinInfo@CSkinColorManager@@QAEXXZ$4 10021ec7 f   _SkinColorManager.obj
 0001:00020ed6       __unwindfunclet$?LoadSkinInfo@CSkinColorManager@@QAEXXZ$5 10021ed6 f   _SkinColorManager.obj
 0001:00020ee5       __unwindfunclet$?LoadSkinInfo@CSkinColorManager@@QAEXXZ$6 10021ee5 f   _SkinColorManager.obj
 0001:00020ef4       __unwindfunclet$?LoadSkinInfo@CSkinColorManager@@QAEXXZ$7 10021ef4 f   _SkinColorManager.obj
 0001:00020f03       __unwindfunclet$?LoadSkinInfo@CSkinColorManager@@QAEXXZ$8 10021f03 f   _SkinColorManager.obj
 0001:00020f12       __unwindfunclet$?LoadSkinInfo@CSkinColorManager@@QAEXXZ$10 10021f12 f   _SkinColorManager.obj
 0001:00020f22       __ehhandler$?LoadSkinInfo@CSkinColorManager@@QAEXXZ 10021f22 f   _SkinColorManager.obj
 0001:00020f50       __ehhandler$??1CSTManager@@QAE@XZ 10021f50 f   _STManager.obj
 0001:00020f70       __unwindfunclet$?ComServerFromProgID@CProgIDInfo@@SAJPBDAAV?$CStringT@DV?$StrTraitMFC_DLL@DV?$ChTraitsCRT@D@ATL@@@@@ATL@@@Z$0 10021f70 f   _SystemUtilManager.obj
 0001:00020f79       __unwindfunclet$?ComServerFromProgID@CProgIDInfo@@SAJPBDAAV?$CStringT@DV?$StrTraitMFC_DLL@DV?$ChTraitsCRT@D@ATL@@@@@ATL@@@Z$1 10021f79 f   _SystemUtilManager.obj
 0001:00020f82       __unwindfunclet$?ComServerFromProgID@CProgIDInfo@@SAJPBDAAV?$CStringT@DV?$StrTraitMFC_DLL@DV?$ChTraitsCRT@D@ATL@@@@@ATL@@@Z$2 10021f82 f   _SystemUtilManager.obj
 0001:00020f90       __ehhandler$?ComServerFromProgID@CProgIDInfo@@SAJPBDAAV?$CStringT@DV?$StrTraitMFC_DLL@DV?$ChTraitsCRT@D@ATL@@@@@ATL@@@Z 10021f90 f   _SystemUtilManager.obj
 0001:00020fb0       __unwindfunclet$??0CCriticalSection@@QAE@XZ$0 10021fb0 f   _TRCommManager.obj
 0001:00020fbd       __ehhandler$??0CCriticalSection@@QAE@XZ 10021fbd f   _TRCommManager.obj
 0001:00020fe0       __unwindfunclet$??0CTrCommImpl@@QAE@PAUHWND__@@@Z$0 10021fe0 f   _TRCommManager.obj
 0001:00020feb       __unwindfunclet$??0CTrCommImpl@@QAE@PAUHWND__@@@Z$1 10021feb f   _TRCommManager.obj
 0001:00020ff5       __unwindfunclet$??0CTrCommImpl@@QAE@PAUHWND__@@@Z$3 10021ff5 f   _TRCommManager.obj
 0001:00020ffd       __unwindfunclet$??0CTrCommImpl@@QAE@PAUHWND__@@@Z$4 10021ffd f   _TRCommManager.obj
 0001:0002100c       __unwindfunclet$??0CTrCommImpl@@QAE@PAUHWND__@@@Z$5 1002200c f   _TRCommManager.obj
 0001:0002101a       __unwindfunclet$??0CTrCommImpl@@QAE@PAUHWND__@@@Z$6 1002201a f   _TRCommManager.obj
 0001:00021029       __unwindfunclet$??0CTrCommImpl@@QAE@PAUHWND__@@@Z$7 10022029 f   _TRCommManager.obj
 0001:00021037       __unwindfunclet$??0CTrCommImpl@@QAE@PAUHWND__@@@Z$2 10022037 f   _TRCommManager.obj
 0001:00021045       __ehhandler$??0CTrCommImpl@@QAE@PAUHWND__@@@Z 10022045 f   _TRCommManager.obj
 0001:00021070       __ehhandler$??1?$CList@PAVCTrCommImpl@@PAV1@@@UAE@XZ 10022070 f   _TRCommManager.obj
 0001:00021090       __ehhandler$??1CTrCommImpl@@QAE@XZ 10022090 f   _TRCommManager.obj
 0001:000210b0       __ehhandler$??1CTrCommManager@@QAE@XZ 100220b0 f   _TRCommManager.obj
 0001:000210d0       __ehhandler$??_G?$CList@PAVCTrCommImpl@@PAV1@@@UAEPAXI@Z 100220d0 f   _TRCommManager.obj
 0001:000210f0       __ehhandler$??_GCTRComm@@UAEPAXI@Z 100220f0 f   _TRCommManager.obj
 0001:00021110       __ehhandler$?UnAdviseTrComm@CTrCommManager@@UAGXPAUITrComm@@@Z 10022110 f   _TRCommManager.obj
 0001:0002112d       __ehhandler$??1CAtlComModule@ATL@@QAE@XZ 1002212d f   mfcs140:nolib.obj
 0001:0002114a       __ehhandler$??_Estringdispid@CComTypeInfoHolder@ATL@@QAEPAXI@Z 1002214a f   mfcs140:nolib.obj
 0001:00021167       __ehhandler$??__F_AtlComModule@ATL@@YAXXZ 10022167 f   mfcs140:nolib.obj
 0001:00021184       __ehhandler$??__F_AtlComModule@ATL@@YAXXZ 10022184 f   mfcs140:dllmodul.obj
 0001:000211a1       __unwindfunclet$?AfxWndProcDllStatic@@YGJPAUHWND__@@IIJ@Z$0 100221a1 f   mfcs140:dllmodul.obj
 0001:000211ae       __ehhandler$?AfxWndProcDllStatic@@YGJPAUHWND__@@IIJ@Z 100221ae f   mfcs140:dllmodul.obj
 0001:000211cb       __unwindfunclet$_InternalDllMain@12$5 100221cb f   mfcs140:dllmodul.obj
 0001:000211d4       __unwindfunclet$_InternalDllMain@12$6 100221d4 f   mfcs140:dllmodul.obj
 0001:000211e1       __ehhandler$_InternalDllMain@12 100221e1 f   mfcs140:dllmodul.obj
 0001:000211fe       __ehhandler$??__F_AtlComModule@ATL@@YAXXZ 100221fe f   mfcs140:stdafx.obj
 0001:0002121b       __ehhandler$??__F_AtlComModule@ATL@@YAXXZ 1002221b f   mfcs140:dllmodulx.obj
 0001:00021240       ??__FtheApp@@YAXXZ         10022240 f   PcTrMng.obj
 0001:00021250       ??__F_AtlComModule@ATL@@YAXXZ 10022250 f   StdAfx.obj
 0001:00021300       ??__F_AtlWinModule@ATL@@YAXXZ 10022300 f   StdAfx.obj
 0001:00021440       ??__FstrUserName@?1??GetUserID@CMainInfoManager@@UAGPBDXZ@YAXXZ 10022440 f   _MainInfoManager.obj
 0001:0002144b       ??__F_AtlComModule@ATL@@YAXXZ 1002244b f   mfcs140:nolib.obj
 0001:00021470       ??__F_AtlWinModule@ATL@@YAXXZ 10022470 f   mfcs140:nolib.obj
 0001:0002148a       ??__F_AtlComModule@ATL@@YAXXZ 1002248a f   mfcs140:dllmodul.obj
 0001:000214af       ??__F_AtlWinModule@ATL@@YAXXZ 100224af f   mfcs140:dllmodul.obj
 0001:000214c9       ??__FafxModuleState@@YAXXZ 100224c9 f   mfcs140:dllmodul.obj
 0001:000214d3       ??__F_AtlComModule@ATL@@YAXXZ 100224d3 f   mfcs140:stdafx.obj
 0001:000214f8       ??__F_AtlWinModule@ATL@@YAXXZ 100224f8 f   mfcs140:stdafx.obj
 0001:00021512       ??__F_AtlComModule@ATL@@YAXXZ 10022512 f   mfcs140:dllmodulx.obj
 0001:00021537       ??__F_AtlWinModule@ATL@@YAXXZ 10022537 f   mfcs140:dllmodulx.obj
 0001:00021551       ??__F_AtlBaseModule@ATL@@YAXXZ 10022551 f   atls:atlbase.obj
 0002:000006b0       ?afxModuleState$initializer$@@3P6AXXZA 100236b0     mfcs140:dllmodul.obj
 0002:000006b4       ?_AtlBaseModule$initializer$@ATL@@3P6AXXZA 100236b4     atls:atlbase.obj
 0002:000006b8       ?RMSG_INTERFACE$initializer$@@3P6AXXZA 100236b8     #SiteDependency.obj
 0002:000006bc       ?RMSG_GETPCTRDATA$initializer$@@3P6AXXZA 100236bc     #SiteDependency.obj
 0002:000006c0       ?RMSG_SETPCTRDATA$initializer$@@3P6AXXZA 100236c0     #SiteDependency.obj
 0002:000006c4       ?RMSG_CONCERNHWND$initializer$@@3P6AXXZA 100236c4     #SiteDependency.obj
 0002:000006c8       ?RMSG_INTREQUEST$initializer$@@3P6AXXZA 100236c8     #SiteDependency.obj
 0002:000006cc       ?RMSG_GWANSIMREGISTER$initializer$@@3P6AXXZA 100236cc     #SiteDependency.obj
 0002:000006d0       ?RMSG_INTERFACE$initializer$@@3P6AXXZA 100236d0     EtcUtil.obj
 0002:000006d4       ?RMSG_GETPCTRDATA$initializer$@@3P6AXXZA 100236d4     EtcUtil.obj
 0002:000006d8       ?RMSG_SETPCTRDATA$initializer$@@3P6AXXZA 100236d8     EtcUtil.obj
 0002:000006dc       ?RMSG_CONCERNHWND$initializer$@@3P6AXXZA 100236dc     EtcUtil.obj
 0002:000006e0       ?RMSG_INTREQUEST$initializer$@@3P6AXXZA 100236e0     EtcUtil.obj
 0002:000006e4       ?RMSG_GWANSIMREGISTER$initializer$@@3P6AXXZA 100236e4     EtcUtil.obj
 0002:000006e8       ?RMSG_INTERFACE$initializer$@@3P6AXXZA 100236e8     GwanWnd.obj
 0002:000006ec       ?RMSG_GETPCTRDATA$initializer$@@3P6AXXZA 100236ec     GwanWnd.obj
 0002:000006f0       ?RMSG_SETPCTRDATA$initializer$@@3P6AXXZA 100236f0     GwanWnd.obj
 0002:000006f4       ?RMSG_CONCERNHWND$initializer$@@3P6AXXZA 100236f4     GwanWnd.obj
 0002:000006f8       ?RMSG_INTREQUEST$initializer$@@3P6AXXZA 100236f8     GwanWnd.obj
 0002:000006fc       ?RMSG_GWANSIMREGISTER$initializer$@@3P6AXXZA 100236fc     GwanWnd.obj
 0002:00000700       ?RMSG_INTERFACE$initializer$@@3P6AXXZA 10023700     PCtrMainWnd.obj
 0002:00000704       ?RMSG_GETPCTRDATA$initializer$@@3P6AXXZA 10023704     PCtrMainWnd.obj
 0002:00000708       ?RMSG_SETPCTRDATA$initializer$@@3P6AXXZA 10023708     PCtrMainWnd.obj
 0002:0000070c       ?RMSG_INTERFACE$initializer$@@3P6AXXZA 1002370c     PcTrMng.obj
 0002:00000710       ?RMSG_GETPCTRDATA$initializer$@@3P6AXXZA 10023710     PcTrMng.obj
 0002:00000714       ?RMSG_SETPCTRDATA$initializer$@@3P6AXXZA 10023714     PcTrMng.obj
 0002:00000718       ?RMSG_CONCERNHWND$initializer$@@3P6AXXZA 10023718     PcTrMng.obj
 0002:0000071c       ?RMSG_INTREQUEST$initializer$@@3P6AXXZA 1002371c     PcTrMng.obj
 0002:00000720       ?RMSG_GWANSIMREGISTER$initializer$@@3P6AXXZA 10023720     PcTrMng.obj
 0002:00000724       ?theApp$initializer$@@3P6AXXZA 10023724     PcTrMng.obj
 0002:00000728       ?_AtlComModule$initializer$@ATL@@3P6AXXZA 10023728     StdAfx.obj
 0002:0000072c       ?_AtlWinModule$initializer$@ATL@@3P6AXXZA 1002372c     StdAfx.obj
 0002:00000730       ?InitializeCAtlStringMgr$initializer$@ATLImplementationDetails@ATL@@3P6AXXZA 10023730     StdAfx.obj
 0002:00000734       ??isInitialized$initializer$@CAtlStringMgr@ATL@@0P6AXXZA@@3P6AXXZA 10023734     StdAfx.obj
 0002:00000738       ?RMSG_INTERFACE$initializer$@@3P6AXXZA 10023738     TrComm.obj
 0002:0000073c       ?RMSG_GETPCTRDATA$initializer$@@3P6AXXZA 1002373c     TrComm.obj
 0002:00000740       ?RMSG_SETPCTRDATA$initializer$@@3P6AXXZA 10023740     TrComm.obj
 0002:00000744       ?RMSG_CONCERNHWND$initializer$@@3P6AXXZA 10023744     TrComm.obj
 0002:00000748       ?RMSG_INTREQUEST$initializer$@@3P6AXXZA 10023748     TrComm.obj
 0002:0000074c       ?RMSG_GWANSIMREGISTER$initializer$@@3P6AXXZA 1002374c     TrComm.obj
 0002:00000750       ?RMSG_GETSIGNAL_REAL$initializer$@@3P6AXXZA 10023750     TrComm.obj
 0002:00000754       ?RMSG_INTERFACE$initializer$@@3P6AXXZA 10023754     _CompanyManager.obj
 0002:00000758       ?RMSG_GETPCTRDATA$initializer$@@3P6AXXZA 10023758     _CompanyManager.obj
 0002:0000075c       ?RMSG_SETPCTRDATA$initializer$@@3P6AXXZA 1002375c     _CompanyManager.obj
 0002:00000760       ?RMSG_CONCERNHWND$initializer$@@3P6AXXZA 10023760     _CompanyManager.obj
 0002:00000764       ?RMSG_INTREQUEST$initializer$@@3P6AXXZA 10023764     _CompanyManager.obj
 0002:00000768       ?RMSG_GWANSIMREGISTER$initializer$@@3P6AXXZA 10023768     _CompanyManager.obj
 0002:0000076c       ?RMSG_INTERFACE$initializer$@@3P6AXXZA 1002376c     _DataMonitorManager.obj
 0002:00000770       ?RMSG_GETPCTRDATA$initializer$@@3P6AXXZA 10023770     _DataMonitorManager.obj
 0002:00000774       ?RMSG_SETPCTRDATA$initializer$@@3P6AXXZA 10023774     _DataMonitorManager.obj
 0002:00000778       ?RMSG_CONCERNHWND$initializer$@@3P6AXXZA 10023778     _DataMonitorManager.obj
 0002:0000077c       ?RMSG_INTREQUEST$initializer$@@3P6AXXZA 1002377c     _DataMonitorManager.obj
 0002:00000780       ?RMSG_GWANSIMREGISTER$initializer$@@3P6AXXZA 10023780     _DataMonitorManager.obj
 0002:00000784       ?RMSG_INTERFACE$initializer$@@3P6AXXZA 10023784     _DataUtilManager.obj
 0002:00000788       ?RMSG_GETPCTRDATA$initializer$@@3P6AXXZA 10023788     _DataUtilManager.obj
 0002:0000078c       ?RMSG_SETPCTRDATA$initializer$@@3P6AXXZA 1002378c     _DataUtilManager.obj
 0002:00000790       ?RMSG_CONCERNHWND$initializer$@@3P6AXXZA 10023790     _DataUtilManager.obj
 0002:00000794       ?RMSG_INTREQUEST$initializer$@@3P6AXXZA 10023794     _DataUtilManager.obj
 0002:00000798       ?RMSG_GWANSIMREGISTER$initializer$@@3P6AXXZA 10023798     _DataUtilManager.obj
 0002:0000079c       ?RMSG_INTERFACE$initializer$@@3P6AXXZA 1002379c     _DebugManager.obj
 0002:000007a0       ?RMSG_GETPCTRDATA$initializer$@@3P6AXXZA 100237a0     _DebugManager.obj
 0002:000007a4       ?RMSG_SETPCTRDATA$initializer$@@3P6AXXZA 100237a4     _DebugManager.obj
 0002:000007a8       ?RMSG_CONCERNHWND$initializer$@@3P6AXXZA 100237a8     _DebugManager.obj
 0002:000007ac       ?RMSG_INTREQUEST$initializer$@@3P6AXXZA 100237ac     _DebugManager.obj
 0002:000007b0       ?RMSG_GWANSIMREGISTER$initializer$@@3P6AXXZA 100237b0     _DebugManager.obj
 0002:000007b4       ?m_uRMSG_HandleToDebug$initializer$@@3P6AXXZA 100237b4     _DebugManager.obj
 0002:000007b8       ?RMSG_INTERFACE$initializer$@@3P6AXXZA 100237b8     _DrdsManager.obj
 0002:000007bc       ?RMSG_GETPCTRDATA$initializer$@@3P6AXXZA 100237bc     _DrdsManager.obj
 0002:000007c0       ?RMSG_SETPCTRDATA$initializer$@@3P6AXXZA 100237c0     _DrdsManager.obj
 0002:000007c4       ?RMSG_CONCERNHWND$initializer$@@3P6AXXZA 100237c4     _DrdsManager.obj
 0002:000007c8       ?RMSG_INTREQUEST$initializer$@@3P6AXXZA 100237c8     _DrdsManager.obj
 0002:000007cc       ?RMSG_GWANSIMREGISTER$initializer$@@3P6AXXZA 100237cc     _DrdsManager.obj
 0002:000007d0       ?RMSG_INTERFACE$initializer$@@3P6AXXZA 100237d0     _GateManager.obj
 0002:000007d4       ?RMSG_GETPCTRDATA$initializer$@@3P6AXXZA 100237d4     _GateManager.obj
 0002:000007d8       ?RMSG_SETPCTRDATA$initializer$@@3P6AXXZA 100237d8     _GateManager.obj
 0002:000007dc       ?RMSG_CONCERNHWND$initializer$@@3P6AXXZA 100237dc     _GateManager.obj
 0002:000007e0       ?RMSG_INTREQUEST$initializer$@@3P6AXXZA 100237e0     _GateManager.obj
 0002:000007e4       ?RMSG_GWANSIMREGISTER$initializer$@@3P6AXXZA 100237e4     _GateManager.obj
 0002:000007e8       ?RMSG_INTERFACE$initializer$@@3P6AXXZA 100237e8     _GwanManager.obj
 0002:000007ec       ?RMSG_GETPCTRDATA$initializer$@@3P6AXXZA 100237ec     _GwanManager.obj
 0002:000007f0       ?RMSG_SETPCTRDATA$initializer$@@3P6AXXZA 100237f0     _GwanManager.obj
 0002:000007f4       ?RMSG_CONCERNHWND$initializer$@@3P6AXXZA 100237f4     _GwanManager.obj
 0002:000007f8       ?RMSG_INTREQUEST$initializer$@@3P6AXXZA 100237f8     _GwanManager.obj
 0002:000007fc       ?RMSG_GWANSIMREGISTER$initializer$@@3P6AXXZA 100237fc     _GwanManager.obj
 0002:00000800       ?RMSG_INTERFACE$initializer$@@3P6AXXZA 10023800     _MainExInfoManager.obj
 0002:00000804       ?RMSG_GETPCTRDATA$initializer$@@3P6AXXZA 10023804     _MainExInfoManager.obj
 0002:00000808       ?RMSG_SETPCTRDATA$initializer$@@3P6AXXZA 10023808     _MainExInfoManager.obj
 0002:0000080c       ?RMSG_CONCERNHWND$initializer$@@3P6AXXZA 1002380c     _MainExInfoManager.obj
 0002:00000810       ?RMSG_INTREQUEST$initializer$@@3P6AXXZA 10023810     _MainExInfoManager.obj
 0002:00000814       ?RMSG_GWANSIMREGISTER$initializer$@@3P6AXXZA 10023814     _MainExInfoManager.obj
 0002:00000818       ?RMSG_INTERFACE$initializer$@@3P6AXXZA 10023818     _MainInfoManager.obj
 0002:0000081c       ?RMSG_GETPCTRDATA$initializer$@@3P6AXXZA 1002381c     _MainInfoManager.obj
 0002:00000820       ?RMSG_SETPCTRDATA$initializer$@@3P6AXXZA 10023820     _MainInfoManager.obj
 0002:00000824       ?RMSG_CONCERNHWND$initializer$@@3P6AXXZA 10023824     _MainInfoManager.obj
 0002:00000828       ?RMSG_INTREQUEST$initializer$@@3P6AXXZA 10023828     _MainInfoManager.obj
 0002:0000082c       ?RMSG_GWANSIMREGISTER$initializer$@@3P6AXXZA 1002382c     _MainInfoManager.obj
 0002:00000830       ?RMSG_INTERFACE$initializer$@@3P6AXXZA 10023830     _MasterDataManager.obj
 0002:00000834       ?RMSG_GETPCTRDATA$initializer$@@3P6AXXZA 10023834     _MasterDataManager.obj
 0002:00000838       ?RMSG_SETPCTRDATA$initializer$@@3P6AXXZA 10023838     _MasterDataManager.obj
 0002:0000083c       ?RMSG_CONCERNHWND$initializer$@@3P6AXXZA 1002383c     _MasterDataManager.obj
 0002:00000840       ?RMSG_INTREQUEST$initializer$@@3P6AXXZA 10023840     _MasterDataManager.obj
 0002:00000844       ?RMSG_GWANSIMREGISTER$initializer$@@3P6AXXZA 10023844     _MasterDataManager.obj
 0002:00000848       ?RMSG_INTERFACE$initializer$@@3P6AXXZA 10023848     _NewSignalManager.obj
 0002:0000084c       ?RMSG_GETPCTRDATA$initializer$@@3P6AXXZA 1002384c     _NewSignalManager.obj
 0002:00000850       ?RMSG_SETPCTRDATA$initializer$@@3P6AXXZA 10023850     _NewSignalManager.obj
 0002:00000854       ?RMSG_CONCERNHWND$initializer$@@3P6AXXZA 10023854     _NewSignalManager.obj
 0002:00000858       ?RMSG_INTREQUEST$initializer$@@3P6AXXZA 10023858     _NewSignalManager.obj
 0002:0000085c       ?RMSG_GWANSIMREGISTER$initializer$@@3P6AXXZA 1002385c     _NewSignalManager.obj
 0002:00000860       ?RMSG_INTERFACE$initializer$@@3P6AXXZA 10023860     _PCTrManager.obj
 0002:00000864       ?RMSG_GETPCTRDATA$initializer$@@3P6AXXZA 10023864     _PCTrManager.obj
 0002:00000868       ?RMSG_SETPCTRDATA$initializer$@@3P6AXXZA 10023868     _PCTrManager.obj
 0002:0000086c       ?RMSG_CONCERNHWND$initializer$@@3P6AXXZA 1002386c     _PCTrManager.obj
 0002:00000870       ?RMSG_INTREQUEST$initializer$@@3P6AXXZA 10023870     _PCTrManager.obj
 0002:00000874       ?RMSG_GWANSIMREGISTER$initializer$@@3P6AXXZA 10023874     _PCTrManager.obj
 0002:00000878       ?RMSG_INTERFACE$initializer$@@3P6AXXZA 10023878     _RegistryManager.obj
 0002:0000087c       ?RMSG_GETPCTRDATA$initializer$@@3P6AXXZA 1002387c     _RegistryManager.obj
 0002:00000880       ?RMSG_SETPCTRDATA$initializer$@@3P6AXXZA 10023880     _RegistryManager.obj
 0002:00000884       ?RMSG_CONCERNHWND$initializer$@@3P6AXXZA 10023884     _RegistryManager.obj
 0002:00000888       ?RMSG_INTREQUEST$initializer$@@3P6AXXZA 10023888     _RegistryManager.obj
 0002:0000088c       ?RMSG_GWANSIMREGISTER$initializer$@@3P6AXXZA 1002388c     _RegistryManager.obj
 0002:00000890       ?RMSG_INTERFACE$initializer$@@3P6AXXZA 10023890     _SkinColorManager.obj
 0002:00000894       ?RMSG_GETPCTRDATA$initializer$@@3P6AXXZA 10023894     _SkinColorManager.obj
 0002:00000898       ?RMSG_SETPCTRDATA$initializer$@@3P6AXXZA 10023898     _SkinColorManager.obj
 0002:0000089c       ?RMSG_CONCERNHWND$initializer$@@3P6AXXZA 1002389c     _SkinColorManager.obj
 0002:000008a0       ?RMSG_INTREQUEST$initializer$@@3P6AXXZA 100238a0     _SkinColorManager.obj
 0002:000008a4       ?RMSG_GWANSIMREGISTER$initializer$@@3P6AXXZA 100238a4     _SkinColorManager.obj
 0002:000008a8       ?RMSG_INTERFACE$initializer$@@3P6AXXZA 100238a8     _STManager.obj
 0002:000008ac       ?RMSG_GETPCTRDATA$initializer$@@3P6AXXZA 100238ac     _STManager.obj
 0002:000008b0       ?RMSG_SETPCTRDATA$initializer$@@3P6AXXZA 100238b0     _STManager.obj
 0002:000008b4       ?RMSG_CONCERNHWND$initializer$@@3P6AXXZA 100238b4     _STManager.obj
 0002:000008b8       ?RMSG_INTREQUEST$initializer$@@3P6AXXZA 100238b8     _STManager.obj
 0002:000008bc       ?RMSG_GWANSIMREGISTER$initializer$@@3P6AXXZA 100238bc     _STManager.obj
 0002:000008c0       ?RMSG_INTERFACE$initializer$@@3P6AXXZA 100238c0     _SystemUtilManager.obj
 0002:000008c4       ?RMSG_GETPCTRDATA$initializer$@@3P6AXXZA 100238c4     _SystemUtilManager.obj
 0002:000008c8       ?RMSG_SETPCTRDATA$initializer$@@3P6AXXZA 100238c8     _SystemUtilManager.obj
 0002:000008cc       ?RMSG_CONCERNHWND$initializer$@@3P6AXXZA 100238cc     _SystemUtilManager.obj
 0002:000008d0       ?RMSG_INTREQUEST$initializer$@@3P6AXXZA 100238d0     _SystemUtilManager.obj
 0002:000008d4       ?RMSG_GWANSIMREGISTER$initializer$@@3P6AXXZA 100238d4     _SystemUtilManager.obj
 0002:000008d8       ?RMSG_INTERFACE$initializer$@@3P6AXXZA 100238d8     _TRCommManager.obj
 0002:000008dc       ?RMSG_GETPCTRDATA$initializer$@@3P6AXXZA 100238dc     _TRCommManager.obj
 0002:000008e0       ?RMSG_SETPCTRDATA$initializer$@@3P6AXXZA 100238e0     _TRCommManager.obj
 0002:000008e4       ?RMSG_CONCERNHWND$initializer$@@3P6AXXZA 100238e4     _TRCommManager.obj
 0002:000008e8       ?RMSG_INTREQUEST$initializer$@@3P6AXXZA 100238e8     _TRCommManager.obj
 0002:000008ec       ?RMSG_GWANSIMREGISTER$initializer$@@3P6AXXZA 100238ec     _TRCommManager.obj
 0002:000008f8       ?__scrt_initialize_tss_var@@3P6AHXZA 100238f8     msvcrt:thread_safe_statics.obj
 0002:00001cc0       ?_messageEntries@?1??GetThisMessageMap@CGwanWnd@@KGPBUAFX_MSGMAP@@XZ@4QBUAFX_MSGMAP_ENTRY@@B 10024cc0     GwanWnd.obj
 0002:00001cf0       ?messageMap@?1??GetThisMessageMap@CGwanWnd@@KGPBUAFX_MSGMAP@@XZ@4U3@B 10024cf0     GwanWnd.obj
 0002:00001e68       ?_messageEntries@?1??GetThisMessageMap@CNewsMoniterWnd@@KGPBUAFX_MSGMAP@@XZ@4QBUAFX_MSGMAP_ENTRY@@B 10024e68     NewsMoniterWnd.obj
 0002:00001eb0       ?messageMap@?1??GetThisMessageMap@CNewsMoniterWnd@@KGPBUAFX_MSGMAP@@XZ@4U3@B 10024eb0     NewsMoniterWnd.obj
 0002:000020f0       ?_messageEntries@?1??GetThisMessageMap@CPCtrMainWnd@@KGPBUAFX_MSGMAP@@XZ@4QBUAFX_MSGMAP_ENTRY@@B 100250f0     PCtrMainWnd.obj
 0002:00002108       ?messageMap@?1??GetThisMessageMap@CPCtrMainWnd@@KGPBUAFX_MSGMAP@@XZ@4U3@B 10025108     PCtrMainWnd.obj
 0002:000023c4       ?_messageEntries@?1??GetThisMessageMap@CPcTrMngApp@@KGPBUAFX_MSGMAP@@XZ@4QBUAFX_MSGMAP_ENTRY@@B 100253c4     PcTrMng.obj
 0002:000023dc       ?messageMap@?1??GetThisMessageMap@CPcTrMngApp@@KGPBUAFX_MSGMAP@@XZ@4U3@B 100253dc     PcTrMng.obj
 0002:00002870       ?_messageEntries@?1??GetThisMessageMap@CTRComm@@KGPBUAFX_MSGMAP@@XZ@4QBUAFX_MSGMAP_ENTRY@@B 10025870     TrComm.obj
 0002:000028b8       ?messageMap@?1??GetThisMessageMap@CTRComm@@KGPBUAFX_MSGMAP@@XZ@4U3@B 100258b8     TrComm.obj
 0002:00005bc0       _GS_ExceptionPointers      10028bc0     msvcrt:gs_report.obj
 0002:00008c00       __unwindtable$??1CDispDesk@@QAE@XZ 1002bc00     DispDesk.obj
 0002:00008c08       __ehfuncinfo$??1CDispDesk@@QAE@XZ 1002bc08     DispDesk.obj
 0002:00008c2c       __unwindtable$?GetTrList@CDispDesk@@QAE?AV?$CStringT@DV?$StrTraitMFC_DLL@DV?$ChTraitsCRT@D@ATL@@@@@ATL@@XZ 1002bc2c     DispDesk.obj
 0002:00008c34       __ehfuncinfo$?GetTrList@CDispDesk@@QAE?AV?$CStringT@DV?$StrTraitMFC_DLL@DV?$ChTraitsCRT@D@ATL@@@@@ATL@@XZ 1002bc34     DispDesk.obj
 0002:00008c58       __unwindtable$?GetMapName@CDispDesk@@QAE?AV?$CStringT@DV?$StrTraitMFC_DLL@DV?$ChTraitsCRT@D@ATL@@@@@ATL@@XZ 1002bc58     DispDesk.obj
 0002:00008c60       __ehfuncinfo$?GetMapName@CDispDesk@@QAE?AV?$CStringT@DV?$StrTraitMFC_DLL@DV?$ChTraitsCRT@D@ATL@@@@@ATL@@XZ 1002bc60     DispDesk.obj
 0002:00008c84       __unwindtable$?GetCtrlNameFromHwnd@CDispDesk@@QAE?AV?$CStringT@DV?$StrTraitMFC_DLL@DV?$ChTraitsCRT@D@ATL@@@@@ATL@@J@Z 1002bc84     DispDesk.obj
 0002:00008c8c       __ehfuncinfo$?GetCtrlNameFromHwnd@CDispDesk@@QAE?AV?$CStringT@DV?$StrTraitMFC_DLL@DV?$ChTraitsCRT@D@ATL@@@@@ATL@@J@Z 1002bc8c     DispDesk.obj
 0002:00008cb0       __unwindtable$?GetCtrlTypeFromHwnd@CDispDesk@@QAE?AV?$CStringT@DV?$StrTraitMFC_DLL@DV?$ChTraitsCRT@D@ATL@@@@@ATL@@J@Z 1002bcb0     DispDesk.obj
 0002:00008cb8       __ehfuncinfo$?GetCtrlTypeFromHwnd@CDispDesk@@QAE?AV?$CStringT@DV?$StrTraitMFC_DLL@DV?$ChTraitsCRT@D@ATL@@@@@ATL@@J@Z 1002bcb8     DispDesk.obj
 0002:00008cdc       __unwindtable$?GetCtrlTypeFromName@CDispDesk@@QAE?AV?$CStringT@DV?$StrTraitMFC_DLL@DV?$ChTraitsCRT@D@ATL@@@@@ATL@@PBD@Z 1002bcdc     DispDesk.obj
 0002:00008ce4       __ehfuncinfo$?GetCtrlTypeFromName@CDispDesk@@QAE?AV?$CStringT@DV?$StrTraitMFC_DLL@DV?$ChTraitsCRT@D@ATL@@@@@ATL@@PBD@Z 1002bce4     DispDesk.obj
 0002:00008d08       __unwindtable$?GetRootPath@CDispDesk@@QAE?AV?$CStringT@DV?$StrTraitMFC_DLL@DV?$ChTraitsCRT@D@ATL@@@@@ATL@@PBD@Z 1002bd08     DispDesk.obj
 0002:00008d10       __ehfuncinfo$?GetRootPath@CDispDesk@@QAE?AV?$CStringT@DV?$StrTraitMFC_DLL@DV?$ChTraitsCRT@D@ATL@@@@@ATL@@PBD@Z 1002bd10     DispDesk.obj
 0002:00008d34       __unwindtable$?GetOpenMapData@CDispDesk@@QAE?AV?$CStringT@DV?$StrTraitMFC_DLL@DV?$ChTraitsCRT@D@ATL@@@@@ATL@@XZ 1002bd34     DispDesk.obj
 0002:00008d3c       __ehfuncinfo$?GetOpenMapData@CDispDesk@@QAE?AV?$CStringT@DV?$StrTraitMFC_DLL@DV?$ChTraitsCRT@D@ATL@@@@@ATL@@XZ 1002bd3c     DispDesk.obj
 0002:00008d60       __unwindtable$?GetCurrentTrMessage@CDispDesk@@QAE?AV?$CStringT@DV?$StrTraitMFC_DLL@DV?$ChTraitsCRT@D@ATL@@@@@ATL@@XZ 1002bd60     DispDesk.obj
 0002:00008d68       __ehfuncinfo$?GetCurrentTrMessage@CDispDesk@@QAE?AV?$CStringT@DV?$StrTraitMFC_DLL@DV?$ChTraitsCRT@D@ATL@@@@@ATL@@XZ 1002bd68     DispDesk.obj
 0002:00008d8c       __unwindtable$?GetCurrentMsgCode@CDispDesk@@QAE?AV?$CStringT@DV?$StrTraitMFC_DLL@DV?$ChTraitsCRT@D@ATL@@@@@ATL@@XZ 1002bd8c     DispDesk.obj
 0002:00008d94       __ehfuncinfo$?GetCurrentMsgCode@CDispDesk@@QAE?AV?$CStringT@DV?$StrTraitMFC_DLL@DV?$ChTraitsCRT@D@ATL@@@@@ATL@@XZ 1002bd94     DispDesk.obj
 0002:00008db8       __unwindtable$?GetMapData@CDispDesk@@QAE?AV?$CStringT@DV?$StrTraitMFC_DLL@DV?$ChTraitsCRT@D@ATL@@@@@ATL@@XZ 1002bdb8     DispDesk.obj
 0002:00008dc0       __ehfuncinfo$?GetMapData@CDispDesk@@QAE?AV?$CStringT@DV?$StrTraitMFC_DLL@DV?$ChTraitsCRT@D@ATL@@@@@ATL@@XZ 1002bdc0     DispDesk.obj
 0002:00008de4       __unwindtable$?GetMapCfgFile@CDispFormData@@QAE?AV?$CStringT@DV?$StrTraitMFC_DLL@DV?$ChTraitsCRT@D@ATL@@@@@ATL@@XZ 1002bde4     DispFormData.obj
 0002:00008dec       __ehfuncinfo$?GetMapCfgFile@CDispFormData@@QAE?AV?$CStringT@DV?$StrTraitMFC_DLL@DV?$ChTraitsCRT@D@ATL@@@@@ATL@@XZ 1002bdec     DispFormData.obj
 0002:00008e10       __unwindtable$?GetUserDataPath@CDispFormData@@QAE?AV?$CStringT@DV?$StrTraitMFC_DLL@DV?$ChTraitsCRT@D@ATL@@@@@ATL@@PBD@Z 1002be10     DispFormData.obj
 0002:00008e18       __ehfuncinfo$?GetUserDataPath@CDispFormData@@QAE?AV?$CStringT@DV?$StrTraitMFC_DLL@DV?$ChTraitsCRT@D@ATL@@@@@ATL@@PBD@Z 1002be18     DispFormData.obj
 0002:00008e3c       __unwindtable$?GetPrivateDataString@CDispFormData@@QAE?AV?$CStringT@DV?$StrTraitMFC_DLL@DV?$ChTraitsCRT@D@ATL@@@@@ATL@@PBD000@Z 1002be3c     DispFormData.obj
 0002:00008e44       __ehfuncinfo$?GetPrivateDataString@CDispFormData@@QAE?AV?$CStringT@DV?$StrTraitMFC_DLL@DV?$ChTraitsCRT@D@ATL@@@@@ATL@@PBD000@Z 1002be44     DispFormData.obj
 0002:00008e68       __unwindtable$?LoadStringDataInCfg@CDispFormData@@QAE?AV?$CStringT@DV?$StrTraitMFC_DLL@DV?$ChTraitsCRT@D@ATL@@@@@ATL@@PBD00@Z 1002be68     DispFormData.obj
 0002:00008e70       __ehfuncinfo$?LoadStringDataInCfg@CDispFormData@@QAE?AV?$CStringT@DV?$StrTraitMFC_DLL@DV?$ChTraitsCRT@D@ATL@@@@@ATL@@PBD00@Z 1002be70     DispFormData.obj
 0002:00008e94       __unwindtable$?GetFrameInfoFile@CDispFrame@@QAE?AV?$CStringT@DV?$StrTraitMFC_DLL@DV?$ChTraitsCRT@D@ATL@@@@@ATL@@XZ 1002be94     DispFrame.obj
 0002:00008e9c       __ehfuncinfo$?GetFrameInfoFile@CDispFrame@@QAE?AV?$CStringT@DV?$StrTraitMFC_DLL@DV?$ChTraitsCRT@D@ATL@@@@@ATL@@XZ 1002be9c     DispFrame.obj
 0002:00008ec0       __unwindtable$?GetFrameScrNum@CDispFrame@@QAE?AV?$CStringT@DV?$StrTraitMFC_DLL@DV?$ChTraitsCRT@D@ATL@@@@@ATL@@XZ 1002bec0     DispFrame.obj
 0002:00008ec8       __ehfuncinfo$?GetFrameScrNum@CDispFrame@@QAE?AV?$CStringT@DV?$StrTraitMFC_DLL@DV?$ChTraitsCRT@D@ATL@@@@@ATL@@XZ 1002bec8     DispFrame.obj
 0002:00008eec       __unwindtable$?GetMapInfo@CDispMain@@QAE?AV?$CStringT@DV?$StrTraitMFC_DLL@DV?$ChTraitsCRT@D@ATL@@@@@ATL@@F@Z 1002beec     DispMain.obj
 0002:00008ef4       __ehfuncinfo$?GetMapInfo@CDispMain@@QAE?AV?$CStringT@DV?$StrTraitMFC_DLL@DV?$ChTraitsCRT@D@ATL@@@@@ATL@@F@Z 1002bef4     DispMain.obj
 0002:00008f18       __unwindtable$?GetUserInfo@CDispMain@@QAE?AV?$CStringT@DV?$StrTraitMFC_DLL@DV?$ChTraitsCRT@D@ATL@@@@@ATL@@F@Z 1002bf18     DispMain.obj
 0002:00008f20       __ehfuncinfo$?GetUserInfo@CDispMain@@QAE?AV?$CStringT@DV?$StrTraitMFC_DLL@DV?$ChTraitsCRT@D@ATL@@@@@ATL@@F@Z 1002bf20     DispMain.obj
 0002:00008f44       __unwindtable$?GetGShareData@CDispMain@@QAE?AV?$CStringT@DV?$StrTraitMFC_DLL@DV?$ChTraitsCRT@D@ATL@@@@@ATL@@PBD@Z 1002bf44     DispMain.obj
 0002:00008f4c       __ehfuncinfo$?GetGShareData@CDispMain@@QAE?AV?$CStringT@DV?$StrTraitMFC_DLL@DV?$ChTraitsCRT@D@ATL@@@@@ATL@@PBD@Z 1002bf4c     DispMain.obj
 0002:00008f70       __unwindtable$?GetFrameVariable@CDispMain@@QAE?AV?$CStringT@DV?$StrTraitMFC_DLL@DV?$ChTraitsCRT@D@ATL@@@@@ATL@@PBD@Z 1002bf70     DispMain.obj
 0002:00008f78       __ehfuncinfo$?GetFrameVariable@CDispMain@@QAE?AV?$CStringT@DV?$StrTraitMFC_DLL@DV?$ChTraitsCRT@D@ATL@@@@@ATL@@PBD@Z 1002bf78     DispMain.obj
 0002:00008f9c       __unwindtable$?GetAcctList@CDispMain@@QAE?AV?$CStringT@DV?$StrTraitMFC_DLL@DV?$ChTraitsCRT@D@ATL@@@@@ATL@@XZ 1002bf9c     DispMain.obj
 0002:00008fa4       __ehfuncinfo$?GetAcctList@CDispMain@@QAE?AV?$CStringT@DV?$StrTraitMFC_DLL@DV?$ChTraitsCRT@D@ATL@@@@@ATL@@XZ 1002bfa4     DispMain.obj
 0002:00008fc8       __unwindtable$?GetGwanList@CDispMain@@QAE?AV?$CStringT@DV?$StrTraitMFC_DLL@DV?$ChTraitsCRT@D@ATL@@@@@ATL@@XZ 1002bfc8     DispMain.obj
 0002:00008fd0       __ehfuncinfo$?GetGwanList@CDispMain@@QAE?AV?$CStringT@DV?$StrTraitMFC_DLL@DV?$ChTraitsCRT@D@ATL@@@@@ATL@@XZ 1002bfd0     DispMain.obj
 0002:00008ff4       __unwindtable$?GetGwanCode@CDispMain@@QAE?AV?$CStringT@DV?$StrTraitMFC_DLL@DV?$ChTraitsCRT@D@ATL@@@@@ATL@@PBD@Z 1002bff4     DispMain.obj
 0002:00008ffc       __ehfuncinfo$?GetGwanCode@CDispMain@@QAE?AV?$CStringT@DV?$StrTraitMFC_DLL@DV?$ChTraitsCRT@D@ATL@@@@@ATL@@PBD@Z 1002bffc     DispMain.obj
 0002:00009020       __unwindtable$?GetGwanCodeOneGroup@CDispMain@@QAE?AV?$CStringT@DV?$StrTraitMFC_DLL@DV?$ChTraitsCRT@D@ATL@@@@@ATL@@PBD0@Z 1002c020     DispMain.obj
 0002:00009028       __ehfuncinfo$?GetGwanCodeOneGroup@CDispMain@@QAE?AV?$CStringT@DV?$StrTraitMFC_DLL@DV?$ChTraitsCRT@D@ATL@@@@@ATL@@PBD0@Z 1002c028     DispMain.obj
 0002:0000904c       __unwindtable$?GetAcctPasswd@CDispMain@@QAE?AV?$CStringT@DV?$StrTraitMFC_DLL@DV?$ChTraitsCRT@D@ATL@@@@@ATL@@PBD@Z 1002c04c     DispMain.obj
 0002:00009054       __ehfuncinfo$?GetAcctPasswd@CDispMain@@QAE?AV?$CStringT@DV?$StrTraitMFC_DLL@DV?$ChTraitsCRT@D@ATL@@@@@ATL@@PBD@Z 1002c054     DispMain.obj
 0002:00009078       __unwindtable$?GetBatchAcctInfo@CDispMain@@QAE?AV?$CStringT@DV?$StrTraitMFC_DLL@DV?$ChTraitsCRT@D@ATL@@@@@ATL@@PBD@Z 1002c078     DispMain.obj
 0002:00009080       __ehfuncinfo$?GetBatchAcctInfo@CDispMain@@QAE?AV?$CStringT@DV?$StrTraitMFC_DLL@DV?$ChTraitsCRT@D@ATL@@@@@ATL@@PBD@Z 1002c080     DispMain.obj
 0002:000090a4       __unwindtable$?GetMasterData@CDispMain@@QAE?AV?$CStringT@DV?$StrTraitMFC_DLL@DV?$ChTraitsCRT@D@ATL@@@@@ATL@@F@Z 1002c0a4     DispMain.obj
 0002:000090ac       __ehfuncinfo$?GetMasterData@CDispMain@@QAE?AV?$CStringT@DV?$StrTraitMFC_DLL@DV?$ChTraitsCRT@D@ATL@@@@@ATL@@F@Z 1002c0ac     DispMain.obj
 0002:000090d0       __unwindtable$?IHGetSectionData@CDispMain@@QAE?AV?$CStringT@DV?$StrTraitMFC_DLL@DV?$ChTraitsCRT@D@ATL@@@@@ATL@@PBD0000@Z 1002c0d0     DispMain.obj
 0002:000090d8       __ehfuncinfo$?IHGetSectionData@CDispMain@@QAE?AV?$CStringT@DV?$StrTraitMFC_DLL@DV?$ChTraitsCRT@D@ATL@@@@@ATL@@PBD0000@Z 1002c0d8     DispMain.obj
 0002:000090fc       __unwindtable$?IHGetSectionNames@CDispMain@@QAE?AV?$CStringT@DV?$StrTraitMFC_DLL@DV?$ChTraitsCRT@D@ATL@@@@@ATL@@PBD0@Z 1002c0fc     DispMain.obj
 0002:00009104       __ehfuncinfo$?IHGetSectionNames@CDispMain@@QAE?AV?$CStringT@DV?$StrTraitMFC_DLL@DV?$ChTraitsCRT@D@ATL@@@@@ATL@@PBD0@Z 1002c104     DispMain.obj
 0002:00009128       __unwindtable$?GetFrameSize@CDispMain@@QAE?AV?$CStringT@DV?$StrTraitMFC_DLL@DV?$ChTraitsCRT@D@ATL@@@@@ATL@@F@Z 1002c128     DispMain.obj
 0002:00009130       __ehfuncinfo$?GetFrameSize@CDispMain@@QAE?AV?$CStringT@DV?$StrTraitMFC_DLL@DV?$ChTraitsCRT@D@ATL@@@@@ATL@@F@Z 1002c130     DispMain.obj
 0002:00009154       __unwindtable$??1CDispCodeOcx@@QAE@XZ 1002c154     CodeOcx.obj
 0002:0000915c       __ehfuncinfo$??1CDispCodeOcx@@QAE@XZ 1002c15c     CodeOcx.obj
 0002:00009180       __unwindtable$?GetCodeInfo@CDispCodeOcx@@QAE?AV?$CStringT@DV?$StrTraitMFC_DLL@DV?$ChTraitsCRT@D@ATL@@@@@ATL@@PBDF0@Z 1002c180     CodeOcx.obj
 0002:00009188       __ehfuncinfo$?GetCodeInfo@CDispCodeOcx@@QAE?AV?$CStringT@DV?$StrTraitMFC_DLL@DV?$ChTraitsCRT@D@ATL@@@@@ATL@@PBDF0@Z 1002c188     CodeOcx.obj
 0002:000091ac       __unwindtable$?GetMaxHangSaGa@CDispCodeOcx@@QAE?AV?$CStringT@DV?$StrTraitMFC_DLL@DV?$ChTraitsCRT@D@ATL@@@@@ATL@@XZ 1002c1ac     CodeOcx.obj
 0002:000091b4       __ehfuncinfo$?GetMaxHangSaGa@CDispCodeOcx@@QAE?AV?$CStringT@DV?$StrTraitMFC_DLL@DV?$ChTraitsCRT@D@ATL@@@@@ATL@@XZ 1002c1b4     CodeOcx.obj
 0002:000091d8       __unwindtable$?GetHistoryList@CDispCodeOcx@@QAE?AV?$CStringT@DV?$StrTraitMFC_DLL@DV?$ChTraitsCRT@D@ATL@@@@@ATL@@FJ@Z 1002c1d8     CodeOcx.obj
 0002:000091e0       __ehfuncinfo$?GetHistoryList@CDispCodeOcx@@QAE?AV?$CStringT@DV?$StrTraitMFC_DLL@DV?$ChTraitsCRT@D@ATL@@@@@ATL@@FJ@Z 1002c1e0     CodeOcx.obj
 0002:00009204       __unwindtable$??0CControlPos@@QAE@PAVCWnd@@@Z 1002c204     ControlPos.obj
 0002:0000920c       __ehfuncinfo$??0CControlPos@@QAE@PAVCWnd@@@Z 1002c20c     ControlPos.obj
 0002:00009230       __ehfuncinfo$??1CControlPos@@UAE@XZ 1002c230     ControlPos.obj
 0002:00009254       __unwindtable$?AddControl@CControlPos@@QAEHPAVCWnd@@ABKV?$CStringT@DV?$StrTraitMFC_DLL@DV?$ChTraitsCRT@D@ATL@@@@@ATL@@@Z 1002c254     ControlPos.obj
 0002:0000925c       __ehfuncinfo$?AddControl@CControlPos@@QAEHPAVCWnd@@ABKV?$CStringT@DV?$StrTraitMFC_DLL@DV?$ChTraitsCRT@D@ATL@@@@@ATL@@@Z 1002c25c     ControlPos.obj
 0002:00009280       __unwindtable$?AddControl@CControlPos@@QAEHABIABKV?$CStringT@DV?$StrTraitMFC_DLL@DV?$ChTraitsCRT@D@ATL@@@@@ATL@@@Z 1002c280     ControlPos.obj
 0002:00009290       __ehfuncinfo$?AddControl@CControlPos@@QAEHABIABKV?$CStringT@DV?$StrTraitMFC_DLL@DV?$ChTraitsCRT@D@ATL@@@@@ATL@@@Z 1002c290     ControlPos.obj
 0002:000092b4       __unwindtable$??_GCControlPos@@UAEPAXI@Z 1002c2b4     ControlPos.obj
 0002:000092bc       __ehfuncinfo$??_GCControlPos@@UAEPAXI@Z 1002c2bc     ControlPos.obj
 0002:000092e0       __unwindtable$?RegGetIP@CSystemInfo@@SA?AV?$CStringT@DV?$StrTraitMFC_DLL@DV?$ChTraitsCRT@D@ATL@@@@@ATL@@XZ 1002c2e0     EtcUtil.obj
 0002:000092f8       __ehfuncinfo$?RegGetIP@CSystemInfo@@SA?AV?$CStringT@DV?$StrTraitMFC_DLL@DV?$ChTraitsCRT@D@ATL@@@@@ATL@@XZ 1002c2f8     EtcUtil.obj
 0002:0000931c       __unwindtable$?OpenWindow@CGwanWnd@@QAEHXZ 1002c31c     GwanWnd.obj
 0002:00009324       __ehfuncinfo$?OpenWindow@CGwanWnd@@QAEHXZ 1002c324     GwanWnd.obj
 0002:00009348       __unwindtable$?SetSingSiganl@CNewsMoniterWnd@@QAEHHPAVCWnd@@V?$CStringT@DV?$StrTraitMFC_DLL@DV?$ChTraitsCRT@D@ATL@@@@@ATL@@1@Z 1002c348     NewsMoniterWnd.obj
 0002:00009360       __ehfuncinfo$?SetSingSiganl@CNewsMoniterWnd@@QAEHHPAVCWnd@@V?$CStringT@DV?$StrTraitMFC_DLL@DV?$ChTraitsCRT@D@ATL@@@@@ATL@@1@Z 1002c360     NewsMoniterWnd.obj
 0002:00009384       __unwindtable$?GetSignalData@CNewsMoniterWnd@@QAEXV?$CStringT@DV?$StrTraitMFC_DLL@DV?$ChTraitsCRT@D@ATL@@@@@ATL@@AAVCMapStringToPtr@@@Z 1002c384     NewsMoniterWnd.obj
 0002:0000938c       __ehfuncinfo$?GetSignalData@CNewsMoniterWnd@@QAEXV?$CStringT@DV?$StrTraitMFC_DLL@DV?$ChTraitsCRT@D@ATL@@@@@ATL@@AAVCMapStringToPtr@@@Z 1002c38c     NewsMoniterWnd.obj
 0002:000093b0       __unwindtable$?SetSignalData@CNewsMoniterWnd@@QAEXV?$CStringT@DV?$StrTraitMFC_DLL@DV?$ChTraitsCRT@D@ATL@@@@@ATL@@PAVCMapStringToPtr@@@Z 1002c3b0     NewsMoniterWnd.obj
 0002:000093b8       __ehfuncinfo$?SetSignalData@CNewsMoniterWnd@@QAEXV?$CStringT@DV?$StrTraitMFC_DLL@DV?$ChTraitsCRT@D@ATL@@@@@ATL@@PAVCMapStringToPtr@@@Z 1002c3b8     NewsMoniterWnd.obj
 0002:000093dc       __unwindtable$?GetSiganlTable@CNewsMoniterWnd@@QAEHV?$CStringT@DV?$StrTraitMFC_DLL@DV?$ChTraitsCRT@D@ATL@@@@@ATL@@AAVCStringArray@@@Z 1002c3dc     NewsMoniterWnd.obj
 0002:000093e4       __ehfuncinfo$?GetSiganlTable@CNewsMoniterWnd@@QAEHV?$CStringT@DV?$StrTraitMFC_DLL@DV?$ChTraitsCRT@D@ATL@@@@@ATL@@AAVCStringArray@@@Z 1002c3e4     NewsMoniterWnd.obj
 0002:00009408       __unwindtable$?OpenWindow@CNewsMoniterWnd@@QAEHXZ 1002c408     NewsMoniterWnd.obj
 0002:00009410       __ehfuncinfo$?OpenWindow@CNewsMoniterWnd@@QAEHXZ 1002c410     NewsMoniterWnd.obj
 0002:00009434       __unwindtable$?OnCreate@CNewsMoniterWnd@@IAEHPAUtagCREATESTRUCTA@@@Z 1002c434     NewsMoniterWnd.obj
 0002:00009444       __ehfuncinfo$?OnCreate@CNewsMoniterWnd@@IAEHPAUtagCREATESTRUCTA@@@Z 1002c444     NewsMoniterWnd.obj
 0002:00009468       __unwindtable$?OpenWindow@CPCtrMainWnd@@QAEHXZ 1002c468     PCtrMainWnd.obj
 0002:00009470       __ehfuncinfo$?OpenWindow@CPCtrMainWnd@@QAEHXZ 1002c470     PCtrMainWnd.obj
 0002:00009494       __unwindtable$?GetDir_DrfnRoot@@YAXAAV?$CStringT@DV?$StrTraitMFC_DLL@DV?$ChTraitsCRT@D@ATL@@@@@ATL@@@Z 1002c494     PcTrMng.obj
 0002:000094ac       __ehfuncinfo$?GetDir_DrfnRoot@@YAXAAV?$CStringT@DV?$StrTraitMFC_DLL@DV?$ChTraitsCRT@D@ATL@@@@@ATL@@@Z 1002c4ac     PcTrMng.obj
 0002:000094d0       __ehfuncinfo$??1?$CList@PAVCSTManager_Info@@PAV1@@@UAE@XZ 1002c4d0     PcTrMng.obj
 0002:000094f4       __unwindtable$??_G?$CList@PAVCSTManager_Info@@PAV1@@@UAEPAXI@Z 1002c4f4     PcTrMng.obj
 0002:000094fc       __ehfuncinfo$??_G?$CList@PAVCSTManager_Info@@PAV1@@@UAEPAXI@Z 1002c4fc     PcTrMng.obj
 0002:00009520       __ehfuncinfo$??0CPcTrMngApp@@QAE@XZ 1002c520     PcTrMng.obj
 0002:00009544       __unwindtable$??0CPcTrMngApp@@QAE@XZ 1002c544     PcTrMng.obj
 0002:000095dc       __unwindtable$?SetHanaroEnvSetting@CPcTrMngApp@@QAEHPAUHWND__@@PBD@Z 1002c5dc     PcTrMng.obj
 0002:000095e4       __ehfuncinfo$?SetHanaroEnvSetting@CPcTrMngApp@@QAEHPAUHWND__@@PBD@Z 1002c5e4     PcTrMng.obj
 0002:00009608       __unwindtable$?SetHanaroGateMngHandle@CPcTrMngApp@@QAEXXZ 1002c608     PcTrMng.obj
 0002:00009610       __ehfuncinfo$?SetHanaroGateMngHandle@CPcTrMngApp@@QAEXXZ 1002c610     PcTrMng.obj
 0002:00009634       __unwindtable$?LoadDefaultColorTable@CPcTrMngApp@@QAEXXZ 1002c634     PcTrMng.obj
 0002:0000963c       __ehfuncinfo$?LoadDefaultColorTable@CPcTrMngApp@@QAEXXZ 1002c63c     PcTrMng.obj
 0002:00009660       __ehfuncinfo$?InitInstance@CPcTrMngApp@@UAEHXZ 1002c660     PcTrMng.obj
 0002:00009684       __unwindtable$?InitInstance@CPcTrMngApp@@UAEHXZ 1002c684     PcTrMng.obj
 0002:00009714       __unwindtable$?ExitInstance@CPcTrMngApp@@UAEHXZ 1002c714     PcTrMng.obj
 0002:0000971c       __ehfuncinfo$?ExitInstance@CPcTrMngApp@@UAEHXZ 1002c71c     PcTrMng.obj
 0002:00009740       __unwindtable$?DOChartOCXRegister@CPcTrMngApp@@QAEHXZ 1002c740     PcTrMng.obj
 0002:00009750       __ehfuncinfo$?DOChartOCXRegister@CPcTrMngApp@@QAEHXZ 1002c750     PcTrMng.obj
 0002:00009774       __unwindtable$?_WinixVariant@CPcTrMngApp@@QAE?AV?$CStringT@DV?$StrTraitMFC_DLL@DV?$ChTraitsCRT@D@ATL@@@@@ATL@@PAUHWND__@@HV23@@Z 1002c774     PcTrMng.obj
 0002:0000977c       __ehfuncinfo$?_WinixVariant@CPcTrMngApp@@QAE?AV?$CStringT@DV?$StrTraitMFC_DLL@DV?$ChTraitsCRT@D@ATL@@@@@ATL@@PAUHWND__@@HV23@@Z 1002c77c     PcTrMng.obj
 0002:000097a0       __unwindtable$?_DoPrepareData@CPcTrMngApp@@QAEXXZ 1002c7a0     PcTrMng.obj
 0002:000097b8       __ehfuncinfo$?_DoPrepareData@CPcTrMngApp@@QAEXXZ 1002c7b8     PcTrMng.obj
 0002:000097dc       __ehfuncinfo$?_DoClearDataFile@CPcTrMngApp@@QAEXXZ 1002c7dc     PcTrMng.obj
 0002:00009800       __unwindtable$?_DoClearDataFile@CPcTrMngApp@@QAEXXZ 1002c800     PcTrMng.obj
 0002:00009838       __unwindtable$??__F_AtlComModule@ATL@@YAXXZ 1002c838     StdAfx.obj
 0002:00009840       __ehfuncinfo$??__F_AtlComModule@ATL@@YAXXZ 1002c840     StdAfx.obj
 0002:00009864       __unwindtable$?SetTR@CTRComm@@QAEXPBDH@Z 1002c864     TrComm.obj
 0002:0000986c       __ehfuncinfo$?SetTR@CTRComm@@QAEXPBDH@Z 1002c86c     TrComm.obj
 0002:00009890       __unwindtable$?Create@CTRComm@@UAEHPAVCWnd@@@Z 1002c890     TrComm.obj
 0002:00009898       __ehfuncinfo$?Create@CTRComm@@UAEHPAVCWnd@@@Z 1002c898     TrComm.obj
 0002:000098bc       __ehfuncinfo$?_DoPreCheck@CTRComm@@IAEHPAEJHAAH@Z 1002c8bc     TrComm.obj
 0002:000098e0       __unwindtable$?_DoPreCheck@CTRComm@@IAEHPAEJHAAH@Z 1002c8e0     TrComm.obj
 0002:00009918       __unwindtable$?_DoPreCheck_WorkDate@CTRComm@@IAEHPAEJPBDAAH@Z 1002c918     TrComm.obj
 0002:00009920       __ehfuncinfo$?_DoPreCheck_WorkDate@CTRComm@@IAEHPAEJPBDAAH@Z 1002c920     TrComm.obj
 0002:00009944       __unwindtable$?_DoPreCheck_Dollar@CTRComm@@IAEHPAEJPBDAAH@Z 1002c944     TrComm.obj
 0002:0000994c       __ehfuncinfo$?_DoPreCheck_Dollar@CTRComm@@IAEHPAEJPBDAAH@Z 1002c94c     TrComm.obj
 0002:00009970       __unwindtable$?_DoPreCheck_MstCode@CTRComm@@IAEHPAEJPBDAAH@Z 1002c970     TrComm.obj
 0002:00009990       __ehfuncinfo$?_DoPreCheck_MstCode@CTRComm@@IAEHPAEJPBDAAH@Z 1002c990     TrComm.obj
 0002:000099b4       __unwindtable$?GetAcctCodeEx@CCompanyManager@@UAGHAAV?$CList@PAUSTACC_SSDATA@@PAU1@@@H@Z 1002c9b4     _CompanyManager.obj
 0002:000099bc       __ehfuncinfo$?GetAcctCodeEx@CCompanyManager@@UAGHAAV?$CList@PAUSTACC_SSDATA@@PAU1@@@H@Z 1002c9bc     _CompanyManager.obj
 0002:000099e0       __ehfuncinfo$?GetEugeneAcctCode@CCompanyManager@@QAEHAAVCStringList@@0@Z 1002c9e0     _CompanyManager.obj
 0002:00009a04       __unwindtable$?GetEugeneAcctCode@CCompanyManager@@QAEHAAVCStringList@@0@Z 1002ca04     _CompanyManager.obj
 0002:00009a44       __unwindtable$?GetEugeneAcctCodeEx@CCompanyManager@@QAEHAAV?$CList@PAUSTACC_SSDATA@@PAU1@@@H@Z 1002ca44     _CompanyManager.obj
 0002:00009a64       __ehfuncinfo$?GetEugeneAcctCodeEx@CCompanyManager@@QAEHAAV?$CList@PAUSTACC_SSDATA@@PAU1@@@H@Z 1002ca64     _CompanyManager.obj
 0002:00009a88       __unwindtable$??0CDMMngInfo@@QAE@PBDJJP6GX0JJJJ@Z@Z 1002ca88     _DataMonitorManager.obj
 0002:00009a90       __ehfuncinfo$??0CDMMngInfo@@QAE@PBDJJP6GX0JJJJ@Z@Z 1002ca90     _DataMonitorManager.obj
 0002:00009ab4       __unwindtable$??1CAUDataMonitorManager@@QAE@XZ 1002cab4     _DataMonitorManager.obj
 0002:00009abc       __ehfuncinfo$??1CAUDataMonitorManager@@QAE@XZ 1002cabc     _DataMonitorManager.obj
 0002:00009ae0       __unwindtable$?AddTail@?$CList@VCDMMngInfo@@V1@@@QAEPAU__POSITION@@VCDMMngInfo@@@Z 1002cae0     _DataMonitorManager.obj
 0002:00009ae8       __ehfuncinfo$?AddTail@?$CList@VCDMMngInfo@@V1@@@QAEPAU__POSITION@@VCDMMngInfo@@@Z 1002cae8     _DataMonitorManager.obj
 0002:00009b0c       __ehfuncinfo$??1?$CList@VCDMMngInfo@@V1@@@UAE@XZ 1002cb0c     _DataMonitorManager.obj
 0002:00009b30       __unwindtable$?Serialize@?$CList@VCDMMngInfo@@V1@@@UAEXAAVCArchive@@@Z 1002cb30     _DataMonitorManager.obj
 0002:00009b38       __ehfuncinfo$?Serialize@?$CList@VCDMMngInfo@@V1@@@UAEXAAVCArchive@@@Z 1002cb38     _DataMonitorManager.obj
 0002:00009b5c       __unwindtable$??_G?$CList@VCDMMngInfo@@V1@@@UAEPAXI@Z 1002cb5c     _DataMonitorManager.obj
 0002:00009b64       __ehfuncinfo$??_G?$CList@VCDMMngInfo@@V1@@@UAEPAXI@Z 1002cb64     _DataMonitorManager.obj
 0002:00009b88       __unwindtable$??HATL@@YA?AV?$CStringT@DV?$StrTraitMFC_DLL@DV?$ChTraitsCRT@D@ATL@@@@@0@ABV10@0@Z 1002cb88     _DataUtilManager.obj
 0002:00009b90       __ehfuncinfo$??HATL@@YA?AV?$CStringT@DV?$StrTraitMFC_DLL@DV?$ChTraitsCRT@D@ATL@@@@@0@ABV10@0@Z 1002cb90     _DataUtilManager.obj
 0002:00009bb4       __unwindtable$?LoadLib@CDRDebugerLoader@@QAEPAUHINSTANCE__@@XZ 1002cbb4     _DebugManager.obj
 0002:00009bbc       __ehfuncinfo$?LoadLib@CDRDebugerLoader@@QAEPAUHINSTANCE__@@XZ 1002cbbc     _DebugManager.obj
 0002:00009be0       __unwindtable$??1CAUDrdsManager@@QAE@XZ 1002cbe0     _DrdsManager.obj
 0002:00009be8       __ehfuncinfo$??1CAUDrdsManager@@QAE@XZ 1002cbe8     _DrdsManager.obj
 0002:00009c0c       __ehfuncinfo$??1?$CList@PAUIDrdsLib@@PAU1@@@UAE@XZ 1002cc0c     _DrdsManager.obj
 0002:00009c30       __unwindtable$??_G?$CList@PAUIDrdsLib@@PAU1@@@UAEPAXI@Z 1002cc30     _DrdsManager.obj
 0002:00009c38       __ehfuncinfo$??_G?$CList@PAUIDrdsLib@@PAU1@@@UAEPAXI@Z 1002cc38     _DrdsManager.obj
 0002:00009c5c       __ehfuncinfo$??0CMainExInfoManager@@QAE@XZ 1002cc5c     _MainExInfoManager.obj
 0002:00009c80       __unwindtable$??0CMainExInfoManager@@QAE@XZ 1002cc80     _MainExInfoManager.obj
 0002:00009cc8       __unwindtable$??1CMainExInfoManager@@QAE@XZ 1002ccc8     _MainExInfoManager.obj
 0002:00009cd0       __ehfuncinfo$??1CMainExInfoManager@@QAE@XZ 1002ccd0     _MainExInfoManager.obj
 0002:00009cf4       __ehfuncinfo$??1?$CList@PAUST_FOR_UserData@@PAU1@@@UAE@XZ 1002ccf4     _MainExInfoManager.obj
 0002:00009d18       __unwindtable$??_G?$CList@PAUST_FOR_UserData@@PAU1@@@UAEPAXI@Z 1002cd18     _MainExInfoManager.obj
 0002:00009d20       __ehfuncinfo$??_G?$CList@PAUST_FOR_UserData@@PAU1@@@UAEPAXI@Z 1002cd20     _MainExInfoManager.obj
 0002:00009d44       __unwindtable$?_DoSaveUserData@CMainExInfoManager@@QAE_NPBDPAEH@Z 1002cd44     _MainExInfoManager.obj
 0002:00009d54       __ehfuncinfo$?_DoSaveUserData@CMainExInfoManager@@QAE_NPBDPAEH@Z 1002cd54     _MainExInfoManager.obj
 0002:00009d78       __unwindtable$?_DoGetUserData@CMainExInfoManager@@QAE_NPBDPAPAEAAH@Z 1002cd78     _MainExInfoManager.obj
 0002:00009d98       __ehfuncinfo$?_DoGetUserData@CMainExInfoManager@@QAE_NPBDPAPAEAAH@Z 1002cd98     _MainExInfoManager.obj
 0002:00009dbc       __ehfuncinfo$??1?$CList@UTR_CODEINFOEX@@U1@@@UAE@XZ 1002cdbc     _MainExInfoManager.obj
 0002:00009de0       __unwindtable$??_G?$CList@UTR_CODEINFOEX@@U1@@@UAEPAXI@Z 1002cde0     _MainExInfoManager.obj
 0002:00009de8       __ehfuncinfo$??_G?$CList@UTR_CODEINFOEX@@U1@@@UAEPAXI@Z 1002cde8     _MainExInfoManager.obj
 0002:00009e0c       __unwindtable$??0CMainInfoManager@@QAE@XZ 1002ce0c     _MainInfoManager.obj
 0002:00009e24       __ehfuncinfo$??0CMainInfoManager@@QAE@XZ 1002ce24     _MainInfoManager.obj
 0002:00009e48       __ehfuncinfo$??1CMainInfoManager@@QAE@XZ 1002ce48     _MainInfoManager.obj
 0002:00009e6c       __ehfuncinfo$??1?$CList@PAUST_STRINGBYTE@@PAU1@@@UAE@XZ 1002ce6c     _MasterDataManager.obj
 0002:00009e90       __unwindtable$??_G?$CList@PAUST_STRINGBYTE@@PAU1@@@UAEPAXI@Z 1002ce90     _MasterDataManager.obj
 0002:00009e98       __ehfuncinfo$??_G?$CList@PAUST_STRINGBYTE@@PAU1@@@UAEPAXI@Z 1002ce98     _MasterDataManager.obj
 0002:00009ebc       __ehfuncinfo$??1?$CList@PAUST_STRINGSTRING@@PAU1@@@UAE@XZ 1002cebc     _MasterDataManager.obj
 0002:00009ee0       __unwindtable$??_G?$CList@PAUST_STRINGSTRING@@PAU1@@@UAEPAXI@Z 1002cee0     _MasterDataManager.obj
 0002:00009ee8       __ehfuncinfo$??_G?$CList@PAUST_STRINGSTRING@@PAU1@@@UAEPAXI@Z 1002cee8     _MasterDataManager.obj
 0002:00009f0c       __ehfuncinfo$??0CMasterDataManager@@QAE@XZ 1002cf0c     _MasterDataManager.obj
 0002:00009f30       __unwindtable$??0CMasterDataManager@@QAE@XZ 1002cf30     _MasterDataManager.obj
 0002:00009f58       __ehfuncinfo$??1CMasterDataManager@@QAE@XZ 1002cf58     _MasterDataManager.obj
 0002:00009f7c       __unwindtable$??1CMasterDataManager@@QAE@XZ 1002cf7c     _MasterDataManager.obj
 0002:00009fa4       __ehfuncinfo$?_DoParsingCode@CMasterDataManager@@IAEXAAV?$CStringT@DV?$StrTraitMFC_DLL@DV?$ChTraitsCRT@D@ATL@@@@@ATL@@AAVCStringArray@@1_NH@Z 1002cfa4     _MasterDataManager.obj
 0002:00009fc8       __unwindtable$?_DoParsingCode@CMasterDataManager@@IAEXAAV?$CStringT@DV?$StrTraitMFC_DLL@DV?$ChTraitsCRT@D@ATL@@@@@ATL@@AAVCStringArray@@1_NH@Z 1002cfc8     _MasterDataManager.obj
 0002:0000a008       __ehfuncinfo$?_DoParsingCodeForeign@CMasterDataManager@@IAEXAAV?$CStringT@DV?$StrTraitMFC_DLL@DV?$ChTraitsCRT@D@ATL@@@@@ATL@@AAVCStringArray@@1@Z 1002d008     _MasterDataManager.obj
 0002:0000a02c       __unwindtable$?_DoParsingCodeForeign@CMasterDataManager@@IAEXAAV?$CStringT@DV?$StrTraitMFC_DLL@DV?$ChTraitsCRT@D@ATL@@@@@ATL@@AAVCStringArray@@1@Z 1002d02c     _MasterDataManager.obj
 0002:0000a05c       __ehfuncinfo$?_DoParsingCode2@CMasterDataManager@@IAEXAAV?$CStringT@DV?$StrTraitMFC_DLL@DV?$ChTraitsCRT@D@ATL@@@@@ATL@@AAVCStringArray@@1@Z 1002d05c     _MasterDataManager.obj
 0002:0000a080       __unwindtable$?_DoParsingCode2@CMasterDataManager@@IAEXAAV?$CStringT@DV?$StrTraitMFC_DLL@DV?$ChTraitsCRT@D@ATL@@@@@ATL@@AAVCStringArray@@1@Z 1002d080     _MasterDataManager.obj
 0002:0000a0b0       __ehfuncinfo$?_DoParsingCodePMaster@CMasterDataManager@@IAEXAAV?$CStringT@DV?$StrTraitMFC_DLL@DV?$ChTraitsCRT@D@ATL@@@@@ATL@@AAVCStringArray@@1@Z 1002d0b0     _MasterDataManager.obj
 0002:0000a0d4       __unwindtable$?_DoParsingCodePMaster@CMasterDataManager@@IAEXAAV?$CStringT@DV?$StrTraitMFC_DLL@DV?$ChTraitsCRT@D@ATL@@@@@ATL@@AAVCStringArray@@1@Z 1002d0d4     _MasterDataManager.obj
 0002:0000a144       __ehfuncinfo$?_DoParsingCodeJPMaster@CMasterDataManager@@IAEXAAV?$CStringT@DV?$StrTraitMFC_DLL@DV?$ChTraitsCRT@D@ATL@@@@@ATL@@AAVCStringArray@@1@Z 1002d144     _MasterDataManager.obj
 0002:0000a168       __unwindtable$?_DoParsingCodeJPMaster@CMasterDataManager@@IAEXAAV?$CStringT@DV?$StrTraitMFC_DLL@DV?$ChTraitsCRT@D@ATL@@@@@ATL@@AAVCStringArray@@1@Z 1002d168     _MasterDataManager.obj
 0002:0000a1d8       __ehfuncinfo$?_DoParsingCodeDPMaster@CMasterDataManager@@IAEXAAV?$CStringT@DV?$StrTraitMFC_DLL@DV?$ChTraitsCRT@D@ATL@@@@@ATL@@AAVCStringArray@@1@Z 1002d1d8     _MasterDataManager.obj
 0002:0000a1fc       __unwindtable$?_DoParsingCodeDPMaster@CMasterDataManager@@IAEXAAV?$CStringT@DV?$StrTraitMFC_DLL@DV?$ChTraitsCRT@D@ATL@@@@@ATL@@AAVCStringArray@@1@Z 1002d1fc     _MasterDataManager.obj
 0002:0000a26c       __ehfuncinfo$?_DoParsingCodeFX@CMasterDataManager@@IAEXAAV?$CStringT@DV?$StrTraitMFC_DLL@DV?$ChTraitsCRT@D@ATL@@@@@ATL@@AAVCStringArray@@1_NH@Z 1002d26c     _MasterDataManager.obj
 0002:0000a290       __unwindtable$?_DoParsingCodeFX@CMasterDataManager@@IAEXAAV?$CStringT@DV?$StrTraitMFC_DLL@DV?$ChTraitsCRT@D@ATL@@@@@ATL@@AAVCStringArray@@1_NH@Z 1002d290     _MasterDataManager.obj
 0002:0000a2e0       __ehfuncinfo$?_DoParsingCodeMiniMaster@CMasterDataManager@@IAEXAAV?$CStringT@DV?$StrTraitMFC_DLL@DV?$ChTraitsCRT@D@ATL@@@@@ATL@@AAVCStringArray@@1@Z 1002d2e0     _MasterDataManager.obj
 0002:0000a304       __unwindtable$?_DoParsingCodeMiniMaster@CMasterDataManager@@IAEXAAV?$CStringT@DV?$StrTraitMFC_DLL@DV?$ChTraitsCRT@D@ATL@@@@@ATL@@AAVCStringArray@@1@Z 1002d304     _MasterDataManager.obj
 0002:0000a37c       __ehfuncinfo$?_DoParsingCodeWeeklyMaster@CMasterDataManager@@IAEXAAV?$CStringT@DV?$StrTraitMFC_DLL@DV?$ChTraitsCRT@D@ATL@@@@@ATL@@AAVCStringArray@@1@Z 1002d37c     _MasterDataManager.obj
 0002:0000a3a0       __unwindtable$?_DoParsingCodeWeeklyMaster@CMasterDataManager@@IAEXAAV?$CStringT@DV?$StrTraitMFC_DLL@DV?$ChTraitsCRT@D@ATL@@@@@ATL@@AAVCStringArray@@1@Z 1002d3a0     _MasterDataManager.obj
 0002:0000a430       __unwindtable$?_DoSortCode@CMasterDataManager@@IAEXAAVCStringArray@@0@Z 1002d430     _MasterDataManager.obj
 0002:0000a450       __ehfuncinfo$?_DoSortCode@CMasterDataManager@@IAEXAAVCStringArray@@0@Z 1002d450     _MasterDataManager.obj
 0002:0000a474       __ehfuncinfo$??1?$CList@PAVCMDM_SubItemA@@PAV1@@@UAE@XZ 1002d474     _MasterDataManager.obj
 0002:0000a498       __unwindtable$??_G?$CList@PAVCMDM_SubItemA@@PAV1@@@UAEPAXI@Z 1002d498     _MasterDataManager.obj
 0002:0000a4a0       __ehfuncinfo$??_G?$CList@PAVCMDM_SubItemA@@PAV1@@@UAEPAXI@Z 1002d4a0     _MasterDataManager.obj
 0002:0000a4c4       __ehfuncinfo$??1?$CMap@V?$CStringT@DV?$StrTraitMFC_DLL@DV?$ChTraitsCRT@D@ATL@@@@@ATL@@PBDHH@@UAE@XZ 1002d4c4     _MasterDataManager.obj
 0002:0000a4e8       __unwindtable$?Serialize@?$CMap@V?$CStringT@DV?$StrTraitMFC_DLL@DV?$ChTraitsCRT@D@ATL@@@@@ATL@@PBDHH@@UAEXAAVCArchive@@@Z 1002d4e8     _MasterDataManager.obj
 0002:0000a4f0       __ehfuncinfo$?Serialize@?$CMap@V?$CStringT@DV?$StrTraitMFC_DLL@DV?$ChTraitsCRT@D@ATL@@@@@ATL@@PBDHH@@UAEXAAVCArchive@@@Z 1002d4f0     _MasterDataManager.obj
 0002:0000a514       __unwindtable$??1CNewsSignalManager@@QAE@XZ 1002d514     _NewSignalManager.obj
 0002:0000a51c       __ehfuncinfo$??1CNewsSignalManager@@QAE@XZ 1002d51c     _NewSignalManager.obj
 0002:0000a540       __ehfuncinfo$??1?$CList@PAUST_NewsSignalMng@@PAU1@@@UAE@XZ 1002d540     _NewSignalManager.obj
 0002:0000a564       __unwindtable$??_G?$CList@PAUST_NewsSignalMng@@PAU1@@@UAEPAXI@Z 1002d564     _NewSignalManager.obj
 0002:0000a56c       __ehfuncinfo$??_G?$CList@PAUST_NewsSignalMng@@PAU1@@@UAEPAXI@Z 1002d56c     _NewSignalManager.obj
 0002:0000a590       __unwindtable$??1CSkinColorManager@@QAE@XZ 1002d590     _SkinColorManager.obj
 0002:0000a598       __ehfuncinfo$??1CSkinColorManager@@QAE@XZ 1002d598     _SkinColorManager.obj
 0002:0000a5bc       __ehfuncinfo$?LoadSkinInfo@CSkinColorManager@@QAEXXZ 1002d5bc     _SkinColorManager.obj
 0002:0000a5e0       __unwindtable$?LoadSkinInfo@CSkinColorManager@@QAEXXZ 1002d5e0     _SkinColorManager.obj
 0002:0000a620       __ehfuncinfo$??1?$CList@PAUISkinColorSite@@PAU1@@@UAE@XZ 1002d620     _SkinColorManager.obj
 0002:0000a644       __unwindtable$??_G?$CList@PAUISkinColorSite@@PAU1@@@UAEPAXI@Z 1002d644     _SkinColorManager.obj
 0002:0000a64c       __ehfuncinfo$??_G?$CList@PAUISkinColorSite@@PAU1@@@UAEPAXI@Z 1002d64c     _SkinColorManager.obj
 0002:0000a670       __unwindtable$??1CSTManager@@QAE@XZ 1002d670     _STManager.obj
 0002:0000a678       __ehfuncinfo$??1CSTManager@@QAE@XZ 1002d678     _STManager.obj
 0002:0000a69c       __unwindtable$?ComServerFromProgID@CProgIDInfo@@SAJPBDAAV?$CStringT@DV?$StrTraitMFC_DLL@DV?$ChTraitsCRT@D@ATL@@@@@ATL@@@Z 1002d69c     _SystemUtilManager.obj
 0002:0000a6b4       __ehfuncinfo$?ComServerFromProgID@CProgIDInfo@@SAJPBDAAV?$CStringT@DV?$StrTraitMFC_DLL@DV?$ChTraitsCRT@D@ATL@@@@@ATL@@@Z 1002d6b4     _SystemUtilManager.obj
 0002:0000a6d8       __unwindtable$??0CCriticalSection@@QAE@XZ 1002d6d8     _TRCommManager.obj
 0002:0000a6e0       __ehfuncinfo$??0CCriticalSection@@QAE@XZ 1002d6e0     _TRCommManager.obj
 0002:0000a704       __unwindtable$??_GCTRComm@@UAEPAXI@Z 1002d704     _TRCommManager.obj
 0002:0000a70c       __ehfuncinfo$??_GCTRComm@@UAEPAXI@Z 1002d70c     _TRCommManager.obj
 0002:0000a730       __unwindtable$??1CTrCommManager@@QAE@XZ 1002d730     _TRCommManager.obj
 0002:0000a738       __ehfuncinfo$??1CTrCommManager@@QAE@XZ 1002d738     _TRCommManager.obj
 0002:0000a75c       __unwindtable$?UnAdviseTrComm@CTrCommManager@@UAGXPAUITrComm@@@Z 1002d75c     _TRCommManager.obj
 0002:0000a764       __ehfuncinfo$?UnAdviseTrComm@CTrCommManager@@UAGXPAUITrComm@@@Z 1002d764     _TRCommManager.obj
 0002:0000a788       __ehfuncinfo$??1?$CList@PAVCTrCommImpl@@PAV1@@@UAE@XZ 1002d788     _TRCommManager.obj
 0002:0000a7ac       __unwindtable$??_G?$CList@PAVCTrCommImpl@@PAV1@@@UAEPAXI@Z 1002d7ac     _TRCommManager.obj
 0002:0000a7b4       __ehfuncinfo$??_G?$CList@PAVCTrCommImpl@@PAV1@@@UAEPAXI@Z 1002d7b4     _TRCommManager.obj
 0002:0000a7d8       __ehfuncinfo$??0CTrCommImpl@@QAE@PAUHWND__@@@Z 1002d7d8     _TRCommManager.obj
 0002:0000a7fc       __unwindtable$??0CTrCommImpl@@QAE@PAUHWND__@@@Z 1002d7fc     _TRCommManager.obj
 0002:0000a83c       __ehfuncinfo$??1CTrCommImpl@@QAE@XZ 1002d83c     _TRCommManager.obj
 0002:0000a860       __sehtable$_WinbaseIsolationAwarePrivatetRgzlnPgpgk@0 1002d860     mfcs140:nolib.obj
 0002:0000a880       __sehtable$_IsolationAwareUnregisterClassA@8 1002d880     mfcs140:nolib.obj
 0002:0000a89c       __ehfuncinfo$??1CAtlComModule@ATL@@QAE@XZ 1002d89c     mfcs140:nolib.obj
 0002:0000a8c0       __unwindtable$??__F_AtlComModule@ATL@@YAXXZ 1002d8c0     mfcs140:nolib.obj
 0002:0000a8c8       __ehfuncinfo$??__F_AtlComModule@ATL@@YAXXZ 1002d8c8     mfcs140:nolib.obj
 0002:0000a8ec       __ehfuncinfo$??_Estringdispid@CComTypeInfoHolder@ATL@@QAEPAXI@Z 1002d8ec     mfcs140:nolib.obj
 0002:0000a910       __unwindtable$??__F_AtlComModule@ATL@@YAXXZ 1002d910     mfcs140:dllmodul.obj
 0002:0000a918       __ehfuncinfo$??__F_AtlComModule@ATL@@YAXXZ 1002d918     mfcs140:dllmodul.obj
 0002:0000a93c       __unwindtable$?AfxWndProcDllStatic@@YGJPAUHWND__@@IIJ@Z 1002d93c     mfcs140:dllmodul.obj
 0002:0000a944       __ehfuncinfo$?AfxWndProcDllStatic@@YGJPAUHWND__@@IIJ@Z 1002d944     mfcs140:dllmodul.obj
 0002:0000a968       __catchsym$_InternalDllMain@12$7 1002d968     mfcs140:dllmodul.obj
 0002:0000a978       __tryblocktable$_InternalDllMain@12 1002d978     mfcs140:dllmodul.obj
 0002:0000a98c       __unwindtable$_InternalDllMain@12 1002d98c     mfcs140:dllmodul.obj
 0002:0000a9ac       __ehfuncinfo$_InternalDllMain@12 1002d9ac     mfcs140:dllmodul.obj
 0002:0000a9d0       __unwindtable$??__F_AtlComModule@ATL@@YAXXZ 1002d9d0     mfcs140:stdafx.obj
 0002:0000a9d8       __ehfuncinfo$??__F_AtlComModule@ATL@@YAXXZ 1002d9d8     mfcs140:stdafx.obj
 0002:0000a9fc       __unwindtable$??__F_AtlComModule@ATL@@YAXXZ 1002d9fc     mfcs140:dllmodulx.obj
 0002:0000aa04       __ehfuncinfo$??__F_AtlComModule@ATL@@YAXXZ 1002da04     mfcs140:dllmodulx.obj
 0002:0000aa28       __sehtable$___scrt_is_nonwritable_in_current_image 1002da28     msvcrt:utility.obj
 0002:0000aa48       __sehtable$??_L@YGXPAXIIP6EX0@Z1@Z 1002da48     msvcrt:ehvecctr.obj
 0002:0000aa68       __sehtable$??_M@YGXPAXIIP6EX0@Z@Z 1002da68     msvcrt:ehvecdtr.obj
 0002:0000aa88       __sehtable$?__ArrayUnwind@@YGXPAXIIP6EX0@Z@Z 1002da88     msvcrt:ehvecdtr.obj
 0002:0000aaa8       __sehtable$?dllmain_crt_process_attach@@YAHQAUHINSTANCE__@@QAX@Z 1002daa8     msvcrt:dll_dllmain.obj
 0002:0000aac8       __sehtable$?dllmain_crt_process_detach@@YAH_N@Z 1002dac8     msvcrt:dll_dllmain.obj
 0002:0000aaf0       __sehtable$?dllmain_dispatch@@YAHQAUHINSTANCE__@@KQAX@Z 1002daf0     msvcrt:dll_dllmain.obj
 0002:0000ab10       __sehtable$__IsNonwritableInCurrentImage 1002db10     mfcs140:rawdllmainproxy.obj
 0002:0000ab40       .edata                     1002db40     PCTRMNG.exp
 0002:0000ab68       rgpv                       1002db68     PCTRMNG.exp
 0002:0000ab78       rgszName                   1002db78     PCTRMNG.exp
 0002:0000ab88       rgwOrd                     1002db88     PCTRMNG.exp
 0002:0000ab90       szName                     1002db90     PCTRMNG.exp
 0002:0000ab9c       $N00001                    1002db9c     PCTRMNG.exp
 0002:0000aba9       $N00002                    1002dba9     PCTRMNG.exp
 0002:0000abb5       $N00004                    1002dbb5     PCTRMNG.exp
 0002:0000abc5       $N00003                    1002dbc5     PCTRMNG.exp
 0002:0000b3cc       .idata$6                   1002e3cc     mfc140:mfc140.dll
 0002:0000b8f0       .idata$6                   1002e8f0     kernel32:KERNEL32.dll
 0002:0000b9f8       .idata$6                   1002e9f8     user32:USER32.dll
 0002:0000ba14       .idata$6                   1002ea14     gdi32:GDI32.dll
 0002:0000ba82       .idata$6                   1002ea82     advapi32:ADVAPI32.dll
 0002:0000bac4       .idata$6                   1002eac4     ole32:ole32.dll
 0002:0000bace       .idata$6                   1002eace     oleaut32:OLEAUT32.dll
 0002:0000bba4       .idata$6                   1002eba4     vcruntime:VCRUNTIME140.dll
 0002:0000bda0       .idata$6                   1002eda0     ucrt:api-ms-win-crt-stdio-l1-1-0.dll
 0002:0000bdc0       .idata$6                   1002edc0     ucrt:api-ms-win-crt-convert-l1-1-0.dll
 0002:0000bde2       .idata$6                   1002ede2     ucrt:api-ms-win-crt-time-l1-1-0.dll
 0002:0000be02       .idata$6                   1002ee02     ucrt:api-ms-win-crt-filesystem-l1-1-0.dll
 0002:0000be28       .idata$6                   1002ee28     ucrt:api-ms-win-crt-heap-l1-1-0.dll
 0002:0000be48       .idata$6                   1002ee48     ucrt:api-ms-win-crt-string-l1-1-0.dll
 0002:0000be6a       .idata$6                   1002ee6a     ucrt:api-ms-win-crt-utility-l1-1-0.dll
 0002:0000be8c       .idata$6                   1002ee8c     ucrt:api-ms-win-crt-runtime-l1-1-0.dll
 0003:000000f8       ?parms@?1??SendTR@CDispDesk@@QAEFPBD@Z@4PAEA 1002f0f8     DispDesk.obj
 0003:000000fc       ?parms@?1??ReceiveTR@CDispDesk@@QAEFPBDJF@Z@4PAEA 1002f0fc     DispDesk.obj
 0003:00000100       ?parms@?1??SetSocketHandle@CDispDesk@@QAEXPBDJ@Z@4PAEA 1002f100     DispDesk.obj
 0003:00000104       ?parms@?1??GetSocketHandle@CDispDesk@@QAEJPBD@Z@4PAEA 1002f104     DispDesk.obj
 0003:00000108       ?parms@?1??SetSharedInterface@CDispDesk@@QAEJJ@Z@4PAEA 1002f108     DispDesk.obj
 0003:0000010c       ?parms@?1??ShowTrMessage@CDispDesk@@QAEXPBD@Z@4PAEA 1002f10c     DispDesk.obj
 0003:00000110       ?parms@?1??ShowMessageBox@CDispDesk@@QAEFFPBD@Z@4PAEA 1002f110     DispDesk.obj
 0003:00000114       ?parms@?1??GetMapInfo@CDispDesk@@QAEHPBDPAUtagVARIANT@@@Z@4PAEA 1002f114     DispDesk.obj
 0003:00000118       ?parms@?1??GetCtrlHwndFromName@CDispDesk@@QAEJPBD@Z@4PAEA 1002f118     DispDesk.obj
 0003:0000011c       ?parms@?1??GetCtrlNameFromHwnd@CDispDesk@@QAE?AV?$CStringT@DV?$StrTraitMFC_DLL@DV?$ChTraitsCRT@D@ATL@@@@@ATL@@J@Z@4PAEA 1002f11c     DispDesk.obj
 0003:00000120       ?parms@?1??GetCtrlTypeFromHwnd@CDispDesk@@QAE?AV?$CStringT@DV?$StrTraitMFC_DLL@DV?$ChTraitsCRT@D@ATL@@@@@ATL@@J@Z@4PAEA 1002f120     DispDesk.obj
 0003:00000124       ?parms@?1??GetCtrlTypeFromName@CDispDesk@@QAE?AV?$CStringT@DV?$StrTraitMFC_DLL@DV?$ChTraitsCRT@D@ATL@@@@@ATL@@PBD@Z@4PAEA 1002f124     DispDesk.obj
 0003:00000128       ?parms@?1??CallFunction@CDispDesk@@QAEHPBD0F@Z@4PAEA 1002f128     DispDesk.obj
 0003:0000012c       ?parms@?1??SetParentDispatch@CDispDesk@@QAEXPAUIDispatch@@@Z@4PAEA 1002f12c     DispDesk.obj
 0003:00000130       ?parms@?1??GetDispFromName@CDispDesk@@QAEPAUIDispatch@@PBD@Z@4PAEA 1002f130     DispDesk.obj
 0003:00000134       ?parms@?1??GetRootPath@CDispDesk@@QAE?AV?$CStringT@DV?$StrTraitMFC_DLL@DV?$ChTraitsCRT@D@ATL@@@@@ATL@@PBD@Z@4PAEA 1002f134     DispDesk.obj
 0003:00000138       ?parms@?1??GetFormTrData@CDispDesk@@QAEHPBDPAPA_WPAF@Z@4PAEA 1002f138     DispDesk.obj
 0003:0000013c       ?parms@?1??SetFormTrData@CDispDesk@@QAEHPBD0F@Z@4PAEA 1002f13c     DispDesk.obj
 0003:00000140       ?parms@?1??SetOpenMapData@CDispDesk@@QAEXFPBD0F0@Z@4PAEA 1002f140     DispDesk.obj
 0003:00000148       ?parms@?1??SendDataToOpener@CDispDesk@@QAEHPBDF@Z@4PAEA 1002f148     DispDesk.obj
 0003:0000014c       ?parms@?1??CallCommand@CDispDesk@@QAEXPBD@Z@4PAEA 1002f14c     DispDesk.obj
 0003:00000150       ?parms@?1??SetOpenMapData2@CDispDesk@@QAEXJ@Z@4PAEA 1002f150     DispDesk.obj
 0003:00000154       ?parms@?1??NotifyFromMain@CDispDesk@@QAEXPBD0@Z@4PAEA 1002f154     DispDesk.obj
 0003:00000158       ?parms@?1??EnableFocus@CDispDesk@@QAEHPBDF@Z@4PAEA 1002f158     DispDesk.obj
 0003:0000015c       ?parms@?1??GotoFocus@CDispDesk@@QAEXPBD@Z@4PAEA 1002f15c     DispDesk.obj
 0003:00000160       ?parms@?1??SetKeyData@CDispDesk@@QAEXPBDJF@Z@4PAEA 1002f160     DispDesk.obj
 0003:00000164       ?parms@?1??GetKeyData@CDispDesk@@QAEJPBDPAF@Z@4PAEA 1002f164     DispDesk.obj
 0003:00000168       ?parms@?1??SetGSharedNotifyFlag@CDispDesk@@QAEXF@Z@4PAEA 1002f168     DispDesk.obj
 0003:0000016c       ?parms@?1??LoadXfmEx@CDispDesk@@QAEHJ@Z@4PAEA 1002f16c     DispDesk.obj
 0003:00000170       ?parms@?1??ResizeFont@CDispDesk@@QAEXFFPBD@Z@4PAEA 1002f170     DispDesk.obj
 0003:00000174       ?parms@?1??GetMapSize@CDispDesk@@QAEHPAUtagVARIANT@@0@Z@4PAEA 1002f174     DispDesk.obj
 0003:00000178       ?parms@?1??SetInitFont@CDispDesk@@QAEXFFPBD@Z@4PAEA 1002f178     DispDesk.obj
 0003:0000017c       ?parms@?1??SetTabStop@CDispDesk@@QAEXF@Z@4PAEA 1002f17c     DispDesk.obj
 0003:00000180       ?parms@?1??NotifyGShareData@CDispDesk@@QAEXPBD0@Z@4PAEA 1002f180     DispDesk.obj
 0003:00000184       ?parms@?1??SetSendCountFlag@CDispDesk@@QAEFF@Z@4PAEA 1002f184     DispDesk.obj
 0003:00000188       ?parms@?1??DebugTrData@CDispDesk@@QAEXPBD@Z@4PAEA 1002f188     DispDesk.obj
 0003:0000018c       ?parms@?1??SendTrDirect@CDispDesk@@QAEFPBD0F@Z@4PAEA 1002f18c     DispDesk.obj
 0003:00000190       ?parms@?1??SetFlag@CDispDesk@@QAEXPBDF@Z@4PAEA 1002f190     DispDesk.obj
 0003:00000194       ?parms@?1??ChangeTRInOut@CDispDesk@@QAEXPBD00F@Z@4PAEA 1002f194     DispDesk.obj
 0003:0000019c       ?parms@?1??GetUserColor@CDispDesk@@QAEKFPBDF@Z@4PAEA 1002f19c     DispDesk.obj
 0003:000001a0       ?parms@?1??SelectPacketCommand@CDispDesk@@QAEFF@Z@4PAEA 1002f1a0     DispDesk.obj
 0003:000001a4       ?parms@?1??SetRscMng@CDispDesk@@QAEXJ@Z@4PAEA 1002f1a4     DispDesk.obj
 0003:000001a8       ?parms@?1??MainKeyPress@CDispDesk@@QAEXPBD@Z@4PAEA 1002f1a8     DispDesk.obj
 0003:000001ac       ?parms@?1??SetMonitoringHandle@CDispDesk@@QAEXJ@Z@4PAEA 1002f1ac     DispDesk.obj
 0003:000001b0       ?parms@?1??AddUserScriptItem@CDispDesk@@QAEJPBDPAUIDispatch@@@Z@4PAEA 1002f1b0     DispDesk.obj
 0003:000001b4       ?parms@?1??ExcuteScript@CDispDesk@@QAEJPBD00@Z@4PAEA 1002f1b4     DispDesk.obj
 0003:000001b8       ?parms@?1??SetNotifyCommand@CDispDesk@@QAEJPBD@Z@4PAEA 1002f1b8     DispDesk.obj
 0003:000001bc       ?parms@?1??SendTRForCert@CDispDesk@@QAEFPBD@Z@4PAEA 1002f1bc     DispDesk.obj
 0003:000001c0       ?parms@?1??ResizeControl@CDispDesk@@QAEHPBDJJ@Z@4PAEA 1002f1c0     DispDesk.obj
 0003:000001c4       ?parms@?1??MoveControl@CDispDesk@@QAEHPBDJJ@Z@4PAEA 1002f1c4     DispDesk.obj
 0003:000001c8       ?parms@?1??SetCtrlResizeFlag@CDispDesk@@QAEHPBDHHHH@Z@4PAEA 1002f1c8     DispDesk.obj
 0003:00000204       ?parms@?1??SaveData@CDispFormData@@QAEHPBD0ABUtagVARIANT@@@Z@4PAEA 1002f204     DispFormData.obj
 0003:00000208       ?parms@?1??LoadData@CDispFormData@@QAEHPBD0ABUtagVARIANT@@@Z@4PAEA 1002f208     DispFormData.obj
 0003:0000020c       ?parms@?1??SaveIniData@CDispFormData@@QAEHPBD00ABUtagVARIANT@@@Z@4PAEA 1002f20c     DispFormData.obj
 0003:00000214       ?parms@?1??LoadIniData@CDispFormData@@QAEHPBD00PAUtagVARIANT@@@Z@4PAEA 1002f214     DispFormData.obj
 0003:0000021c       ?parms@?1??SaveStringDataToCfg@CDispFormData@@QAEHPBD00@Z@4PAEA 1002f21c     DispFormData.obj
 0003:00000220       ?parms@?1??SaveIntDataToCfg@CDispFormData@@QAEHPBD0F@Z@4PAEA 1002f220     DispFormData.obj
 0003:00000224       ?parms@?1??LoadIntDataInCfg@CDispFormData@@QAEHPBD0FPAUtagVARIANT@@@Z@4PAEA 1002f224     DispFormData.obj
 0003:0000022c       ?parms@?1??GetUserDataPath@CDispFormData@@QAE?AV?$CStringT@DV?$StrTraitMFC_DLL@DV?$ChTraitsCRT@D@ATL@@@@@ATL@@PBD@Z@4PAEA 1002f22c     DispFormData.obj
 0003:00000230       ?parms@?1??WritePrivateDataString@CDispFormData@@QAEFPBD000@Z@4PAEA 1002f230     DispFormData.obj
 0003:00000238       ?parms@?1??GetPrivateDataString@CDispFormData@@QAE?AV?$CStringT@DV?$StrTraitMFC_DLL@DV?$ChTraitsCRT@D@ATL@@@@@ATL@@PBD000@Z@4PAEA 1002f238     DispFormData.obj
 0003:00000240       ?parms@?1??WritePrivateDelete@CDispFormData@@QAEXPBD0@Z@4PAEA 1002f240     DispFormData.obj
 0003:00000244       ?parms@?1??LoadStringDataInCfg@CDispFormData@@QAE?AV?$CStringT@DV?$StrTraitMFC_DLL@DV?$ChTraitsCRT@D@ATL@@@@@ATL@@PBD00@Z@4PAEA 1002f244     DispFormData.obj
 0003:00000264       ?parms@?1??ReLoadMap@CDispFormOpen@@QAEXPBD0F@Z@4PAEA 1002f264     DispFormOpen.obj
 0003:00000268       ?parms@?1??OpenMap@CDispFormOpen@@QAEXPBD0F@Z@4PAEA 1002f268     DispFormOpen.obj
 0003:0000026c       ?parms@?1??LoadMap@CDispFormOpen@@QAEXPBD0F@Z@4PAEA 1002f26c     DispFormOpen.obj
 0003:00000270       ?parms@?1??DialogMap@CDispFormOpen@@QAEXPBD0F@Z@4PAEA 1002f270     DispFormOpen.obj
 0003:00000274       ?parms@?1??PopupMap@CDispFormOpen@@QAEXPBD0F@Z@4PAEA 1002f274     DispFormOpen.obj
 0003:00000278       ?parms@?1??SinglePopupMap@CDispFormOpen@@QAEXPBD0F@Z@4PAEA 1002f278     DispFormOpen.obj
 0003:00000290       ?parms@?1??ChangeFrameSize@CDispFrame@@QAEXFFF@Z@4PAEA 1002f290     DispFrame.obj
 0003:00000320       ?parms@?1??GetMapInfo@CDispMain@@QAE?AV?$CStringT@DV?$StrTraitMFC_DLL@DV?$ChTraitsCRT@D@ATL@@@@@ATL@@F@Z@4PAEA 1002f320     DispMain.obj
 0003:00000324       ?parms@?1??GetUserInfo@CDispMain@@QAE?AV?$CStringT@DV?$StrTraitMFC_DLL@DV?$ChTraitsCRT@D@ATL@@@@@ATL@@F@Z@4PAEA 1002f324     DispMain.obj
 0003:00000328       ?parms@?1??MsgBox@CDispMain@@QAEFPBD0F@Z@4PAEA 1002f328     DispMain.obj
 0003:0000032c       ?parms@?1??ChangeTabProperty@CDispMain@@QAEHFFFF@Z@4PAEA 1002f32c     DispMain.obj
 0003:00000334       ?parms@?1??SetGShareData@CDispMain@@QAEXPBD0F@Z@4PAEA 1002f334     DispMain.obj
 0003:00000338       ?parms@?1??GetGShareData@CDispMain@@QAE?AV?$CStringT@DV?$StrTraitMFC_DLL@DV?$ChTraitsCRT@D@ATL@@@@@ATL@@PBD@Z@4PAEA 1002f338     DispMain.obj
 0003:0000033c       ?parms@?1??SetFrameVariable@CDispMain@@QAEXPBD0@Z@4PAEA 1002f33c     DispMain.obj
 0003:00000340       ?parms@?1??GetFrameVariable@CDispMain@@QAE?AV?$CStringT@DV?$StrTraitMFC_DLL@DV?$ChTraitsCRT@D@ATL@@@@@ATL@@PBD@Z@4PAEA 1002f340     DispMain.obj
 0003:00000344       ?parms@?1??RemoveGlobalData@CDispMain@@QAEHPBD0@Z@4PAEA 1002f344     DispMain.obj
 0003:00000348       ?parms@?1??CloseMain@CDispMain@@QAEXF@Z@4PAEA 1002f348     DispMain.obj
 0003:0000034c       ?parms@?1??SetOpenMapStyle@CDispMain@@QAEXFFFF@Z@4PAEA 1002f34c     DispMain.obj
 0003:00000354       ?parms@?1??GetGwanCode@CDispMain@@QAE?AV?$CStringT@DV?$StrTraitMFC_DLL@DV?$ChTraitsCRT@D@ATL@@@@@ATL@@PBD@Z@4PAEA 1002f354     DispMain.obj
 0003:00000358       ?parms@?1??ShowDialog@CDispMain@@QAEFPBDFF@Z@4PAEA 1002f358     DispMain.obj
 0003:0000035c       ?parms@?1??NotifyEvent@CDispMain@@QAEXPBD0@Z@4PAEA 1002f35c     DispMain.obj
 0003:00000360       ?parms@?1??GetGwanCodeOneGroup@CDispMain@@QAE?AV?$CStringT@DV?$StrTraitMFC_DLL@DV?$ChTraitsCRT@D@ATL@@@@@ATL@@PBD0@Z@4PAEA 1002f360     DispMain.obj
 0003:00000364       ?parms@?1??SetAcctPasswd@CDispMain@@QAEXPBD0@Z@4PAEA 1002f364     DispMain.obj
 0003:00000368       ?parms@?1??GetAcctPasswd@CDispMain@@QAE?AV?$CStringT@DV?$StrTraitMFC_DLL@DV?$ChTraitsCRT@D@ATL@@@@@ATL@@PBD@Z@4PAEA 1002f368     DispMain.obj
 0003:0000036c       ?parms@?1??SetBatchAcctInfo@CDispMain@@QAEXPBD@Z@4PAEA 1002f36c     DispMain.obj
 0003:00000370       ?parms@?1??GetBatchAcctInfo@CDispMain@@QAE?AV?$CStringT@DV?$StrTraitMFC_DLL@DV?$ChTraitsCRT@D@ATL@@@@@ATL@@PBD@Z@4PAEA 1002f370     DispMain.obj
 0003:00000374       ?parms@?1??GetMasterData@CDispMain@@QAE?AV?$CStringT@DV?$StrTraitMFC_DLL@DV?$ChTraitsCRT@D@ATL@@@@@ATL@@F@Z@4PAEA 1002f374     DispMain.obj
 0003:00000378       ?parms@?1??SetOpenMapStyle2@CDispMain@@QAEXFFFFF@Z@4PAEA 1002f378     DispMain.obj
 0003:00000380       ?parms@?1??IHWriteSectionData@CDispMain@@QAEFPBD0000@Z@4PAEA 1002f380     DispMain.obj
 0003:00000388       ?parms@?1??IHGetSectionData@CDispMain@@QAE?AV?$CStringT@DV?$StrTraitMFC_DLL@DV?$ChTraitsCRT@D@ATL@@@@@ATL@@PBD0000@Z@4PAEA 1002f388     DispMain.obj
 0003:00000390       ?parms@?1??IHGetSectionNames@CDispMain@@QAE?AV?$CStringT@DV?$StrTraitMFC_DLL@DV?$ChTraitsCRT@D@ATL@@@@@ATL@@PBD0@Z@4PAEA 1002f390     DispMain.obj
 0003:00000394       ?parms@?1??IHAddSection@CDispMain@@QAEFPBD00@Z@4PAEA 1002f394     DispMain.obj
 0003:00000398       ?parms@?1??IHDeleteSection@CDispMain@@QAEFPBD00@Z@4PAEA 1002f398     DispMain.obj
 0003:0000039c       ?parms@?1??IHRenameSection@CDispMain@@QAEFPBD000@Z@4PAEA 1002f39c     DispMain.obj
 0003:000003a4       ?parms@?1??ChangeFrameSize@CDispMain@@QAEXFFF@Z@4PAEA 1002f3a4     DispMain.obj
 0003:000003a8       ?parms@?1??GetFrameSize@CDispMain@@QAE?AV?$CStringT@DV?$StrTraitMFC_DLL@DV?$ChTraitsCRT@D@ATL@@@@@ATL@@F@Z@4PAEA 1002f3a8     DispMain.obj
 0003:000003ac       ?parms@?1??ReportCall@CDispMain@@QAEXPBDJ0@Z@4PAEA 1002f3ac     DispMain.obj
 0003:000003e0       ?parms@?1??IsUserDefinedMode@CDispPrimLib@@QAEFPBDF@Z@4PAEA 1002f3e0     DispPrimLib.obj
 0003:000003e4       ?parms@?1??ReLoadOtherMap@CDispPrimLib@@QAEXPBD@Z@4PAEA 1002f3e4     DispPrimLib.obj
 0003:000003e8       ?parms@?1??SetMessage@CDispPrimLib@@QAEXPBD@Z@4PAEA 1002f3e8     DispPrimLib.obj
 0003:000003ec       ?parms@?1??MapSwitch@CDispPrimLib@@QAEXPBD@Z@4PAEA 1002f3ec     DispPrimLib.obj
 0003:000003f0       ?parms@?1??InsertSplit@CDispPrimLib@@QAEXPBD0000@Z@4PAEA 1002f3f0     DispPrimLib.obj
 0003:000003f8       ?parms@?1??DeleteSplit@CDispPrimLib@@QAEXPBD@Z@4PAEA 1002f3f8     DispPrimLib.obj
 0003:000003fc       ?parms@?1??TabToggle@CDispPrimLib@@QAEXPBD@Z@4PAEA 1002f3fc     DispPrimLib.obj
 0003:00000400       ?parms@?1??DefaultSetUp@CDispPrimLib@@QAEXPBD0000000@Z@4PAEA 1002f400     DispPrimLib.obj
 0003:0000040c       ?parms@?1??SetActiveTab@CDispPrimLib@@QAEXPBD@Z@4PAEA 1002f40c     DispPrimLib.obj
 0003:00000410       ?parms@?1??ChangeInputRangeResize@CDispPrimLib@@QAEXPBD@Z@4PAEA 1002f410     DispPrimLib.obj
 0003:00000414       ?parms@?1??ToggleWindow@CDispPrimLib@@QAEXPBD00@Z@4PAEA 1002f414     DispPrimLib.obj
 0003:00000418       ?parms@?1??SplitResizeOption@CDispPrimLib@@QAEXPBD00@Z@4PAEA 1002f418     DispPrimLib.obj
 0003:00000424       ?parms@?1??ShowDialog@CDispView@@QAEFPBDF@Z@4PAEA 1002f424     DispView.obj
 0003:00000428       ?parms@?1??MsgBoxID@CDispView@@QAEFFPBD0F@Z@4PAEA 1002f428     DispView.obj
 0003:00000474       ?parms@?1??SetInfo@CDispCodeOcx@@QAEXJ@Z@4PAEA 1002f474     CodeOcx.obj
 0003:00000478       ?parms@?1??ShowCodeTable@CDispCodeOcx@@QAEJPBDABUtagVARIANT@@@Z@4PAEA 1002f478     CodeOcx.obj
 0003:0000047c       ?parms@?1??ShowModeCodeTable@CDispCodeOcx@@QAEJPBDABUtagVARIANT@@@Z@4PAEA 1002f47c     CodeOcx.obj
 0003:00000480       ?parms@?1??SetDataString@CDispCodeOcx@@QAEXFPBD@Z@4PAEA 1002f480     CodeOcx.obj
 0003:00000484       ?parms@?1??InitData@CDispCodeOcx@@QAEHPBD@Z@4PAEA 1002f484     CodeOcx.obj
 0003:00000488       ?parms@?1??GetCodeInfo@CDispCodeOcx@@QAE?AV?$CStringT@DV?$StrTraitMFC_DLL@DV?$ChTraitsCRT@D@ATL@@@@@ATL@@PBDF0@Z@4PAEA 1002f488     CodeOcx.obj
 0003:0000048c       ?parms@?1??SetPosition@CDispCodeOcx@@QAEXPBDFF@Z@4PAEA 1002f48c     CodeOcx.obj
 0003:00000490       ?parms@?1??ShowCodeTableWithPosition@CDispCodeOcx@@QAEJPBDABUtagVARIANT@@FF@Z@4PAEA 1002f490     CodeOcx.obj
 0003:00000498       ?parms@?1??InsertHistory@CDispCodeOcx@@QAEHFJPBD0@Z@4PAEA 1002f498     CodeOcx.obj
 0003:000004a0       ?parms@?1??GetHistoryList@CDispCodeOcx@@QAE?AV?$CStringT@DV?$StrTraitMFC_DLL@DV?$ChTraitsCRT@D@ATL@@@@@ATL@@FJ@Z@4PAEA 1002f4a0     CodeOcx.obj
 0003:000004a4       ?parms@?1??GetCodePointer@CDispCodeOcx@@QAEJPBD@Z@4PAEA 1002f4a4     CodeOcx.obj
 0003:000004a8       ?parms@?1??GetRscMng@CDispCodeOcx@@QAEXJ@Z@4PAEA 1002f4a8     CodeOcx.obj
 0003:00001180       ?RMSG_INTERFACE@@3IB       10030180     #SiteDependency.obj
 0003:00001184       ?RMSG_GETPCTRDATA@@3IB     10030184     #SiteDependency.obj
 0003:00001188       ?RMSG_SETPCTRDATA@@3IB     10030188     #SiteDependency.obj
 0003:0000118c       ?RMSG_CONCERNHWND@@3IB     1003018c     #SiteDependency.obj
 0003:00001190       ?RMSG_INTREQUEST@@3IB      10030190     #SiteDependency.obj
 0003:00001194       ?RMSG_GWANSIMREGISTER@@3IB 10030194     #SiteDependency.obj
 0003:00001198       ?RMSG_INTERFACE@@3IB       10030198     EtcUtil.obj
 0003:0000119c       ?RMSG_GETPCTRDATA@@3IB     1003019c     EtcUtil.obj
 0003:000011a0       ?RMSG_SETPCTRDATA@@3IB     100301a0     EtcUtil.obj
 0003:000011a4       ?RMSG_CONCERNHWND@@3IB     100301a4     EtcUtil.obj
 0003:000011a8       ?RMSG_INTREQUEST@@3IB      100301a8     EtcUtil.obj
 0003:000011ac       ?RMSG_GWANSIMREGISTER@@3IB 100301ac     EtcUtil.obj
 0003:000011b0       ?RMSG_INTERFACE@@3IB       100301b0     GwanWnd.obj
 0003:000011b4       ?RMSG_GETPCTRDATA@@3IB     100301b4     GwanWnd.obj
 0003:000011b8       ?RMSG_SETPCTRDATA@@3IB     100301b8     GwanWnd.obj
 0003:000011bc       ?RMSG_CONCERNHWND@@3IB     100301bc     GwanWnd.obj
 0003:000011c0       ?RMSG_INTREQUEST@@3IB      100301c0     GwanWnd.obj
 0003:000011c4       ?RMSG_GWANSIMREGISTER@@3IB 100301c4     GwanWnd.obj
 0003:000011c8       ?RMSG_INTERFACE@@3IB       100301c8     PCtrMainWnd.obj
 0003:000011cc       ?RMSG_GETPCTRDATA@@3IB     100301cc     PCtrMainWnd.obj
 0003:000011d0       ?RMSG_SETPCTRDATA@@3IB     100301d0     PCtrMainWnd.obj
 0003:000011e0       ?RMSG_INTERFACE@@3IB       100301e0     PcTrMng.obj
 0003:000011e4       ?RMSG_GETPCTRDATA@@3IB     100301e4     PcTrMng.obj
 0003:000011e8       ?RMSG_SETPCTRDATA@@3IB     100301e8     PcTrMng.obj
 0003:000011ec       ?RMSG_CONCERNHWND@@3IB     100301ec     PcTrMng.obj
 0003:000011f0       ?RMSG_INTREQUEST@@3IB      100301f0     PcTrMng.obj
 0003:000011f4       ?RMSG_GWANSIMREGISTER@@3IB 100301f4     PcTrMng.obj
 0003:00001770       ?RMSG_INTERFACE@@3IB       10030770     TrComm.obj
 0003:00001774       ?RMSG_GETPCTRDATA@@3IB     10030774     TrComm.obj
 0003:00001778       ?RMSG_SETPCTRDATA@@3IB     10030778     TrComm.obj
 0003:0000177c       ?RMSG_CONCERNHWND@@3IB     1003077c     TrComm.obj
 0003:00001780       ?RMSG_INTREQUEST@@3IB      10030780     TrComm.obj
 0003:00001784       ?RMSG_GWANSIMREGISTER@@3IB 10030784     TrComm.obj
 0003:00001788       ?RMSG_GETSIGNAL_REAL@@3IB  10030788     TrComm.obj
 0003:0000178c       ?RMSG_INTERFACE@@3IB       1003078c     _CompanyManager.obj
 0003:00001790       ?RMSG_GETPCTRDATA@@3IB     10030790     _CompanyManager.obj
 0003:00001794       ?RMSG_SETPCTRDATA@@3IB     10030794     _CompanyManager.obj
 0003:00001798       ?RMSG_CONCERNHWND@@3IB     10030798     _CompanyManager.obj
 0003:0000179c       ?RMSG_INTREQUEST@@3IB      1003079c     _CompanyManager.obj
 0003:000017a0       ?RMSG_GWANSIMREGISTER@@3IB 100307a0     _CompanyManager.obj
 0003:000017a4       ?RMSG_INTERFACE@@3IB       100307a4     _DataMonitorManager.obj
 0003:000017a8       ?RMSG_GETPCTRDATA@@3IB     100307a8     _DataMonitorManager.obj
 0003:000017ac       ?RMSG_SETPCTRDATA@@3IB     100307ac     _DataMonitorManager.obj
 0003:000017b0       ?RMSG_CONCERNHWND@@3IB     100307b0     _DataMonitorManager.obj
 0003:000017b4       ?RMSG_INTREQUEST@@3IB      100307b4     _DataMonitorManager.obj
 0003:000017b8       ?RMSG_GWANSIMREGISTER@@3IB 100307b8     _DataMonitorManager.obj
 0003:000017bc       ?RMSG_INTERFACE@@3IB       100307bc     _DataUtilManager.obj
 0003:000017c0       ?RMSG_GETPCTRDATA@@3IB     100307c0     _DataUtilManager.obj
 0003:000017c4       ?RMSG_SETPCTRDATA@@3IB     100307c4     _DataUtilManager.obj
 0003:000017c8       ?RMSG_CONCERNHWND@@3IB     100307c8     _DataUtilManager.obj
 0003:000017cc       ?RMSG_INTREQUEST@@3IB      100307cc     _DataUtilManager.obj
 0003:000017d0       ?RMSG_GWANSIMREGISTER@@3IB 100307d0     _DataUtilManager.obj
 0003:000017d4       ?RMSG_INTERFACE@@3IB       100307d4     _DebugManager.obj
 0003:000017d8       ?RMSG_GETPCTRDATA@@3IB     100307d8     _DebugManager.obj
 0003:000017dc       ?RMSG_SETPCTRDATA@@3IB     100307dc     _DebugManager.obj
 0003:000017e0       ?RMSG_CONCERNHWND@@3IB     100307e0     _DebugManager.obj
 0003:000017e4       ?RMSG_INTREQUEST@@3IB      100307e4     _DebugManager.obj
 0003:000017e8       ?RMSG_GWANSIMREGISTER@@3IB 100307e8     _DebugManager.obj
 0003:000017f0       ?RMSG_INTERFACE@@3IB       100307f0     _DrdsManager.obj
 0003:000017f4       ?RMSG_GETPCTRDATA@@3IB     100307f4     _DrdsManager.obj
 0003:000017f8       ?RMSG_SETPCTRDATA@@3IB     100307f8     _DrdsManager.obj
 0003:000017fc       ?RMSG_CONCERNHWND@@3IB     100307fc     _DrdsManager.obj
 0003:00001800       ?RMSG_INTREQUEST@@3IB      10030800     _DrdsManager.obj
 0003:00001804       ?RMSG_GWANSIMREGISTER@@3IB 10030804     _DrdsManager.obj
 0003:00001808       ?RMSG_INTERFACE@@3IB       10030808     _GateManager.obj
 0003:0000180c       ?RMSG_GETPCTRDATA@@3IB     1003080c     _GateManager.obj
 0003:00001810       ?RMSG_SETPCTRDATA@@3IB     10030810     _GateManager.obj
 0003:00001814       ?RMSG_CONCERNHWND@@3IB     10030814     _GateManager.obj
 0003:00001818       ?RMSG_INTREQUEST@@3IB      10030818     _GateManager.obj
 0003:0000181c       ?RMSG_GWANSIMREGISTER@@3IB 1003081c     _GateManager.obj
 0003:00001820       ?RMSG_INTERFACE@@3IB       10030820     _GwanManager.obj
 0003:00001824       ?RMSG_GETPCTRDATA@@3IB     10030824     _GwanManager.obj
 0003:00001828       ?RMSG_SETPCTRDATA@@3IB     10030828     _GwanManager.obj
 0003:0000182c       ?RMSG_CONCERNHWND@@3IB     1003082c     _GwanManager.obj
 0003:00001830       ?RMSG_INTREQUEST@@3IB      10030830     _GwanManager.obj
 0003:00001834       ?RMSG_GWANSIMREGISTER@@3IB 10030834     _GwanManager.obj
 0003:00001838       ?RMSG_INTERFACE@@3IB       10030838     _MainExInfoManager.obj
 0003:0000183c       ?RMSG_GETPCTRDATA@@3IB     1003083c     _MainExInfoManager.obj
 0003:00001840       ?RMSG_SETPCTRDATA@@3IB     10030840     _MainExInfoManager.obj
 0003:00001844       ?RMSG_CONCERNHWND@@3IB     10030844     _MainExInfoManager.obj
 0003:00001848       ?RMSG_INTREQUEST@@3IB      10030848     _MainExInfoManager.obj
 0003:0000184c       ?RMSG_GWANSIMREGISTER@@3IB 1003084c     _MainExInfoManager.obj
 0003:00001854       ?RMSG_INTERFACE@@3IB       10030854     _MainInfoManager.obj
 0003:00001858       ?RMSG_GETPCTRDATA@@3IB     10030858     _MainInfoManager.obj
 0003:0000185c       ?RMSG_SETPCTRDATA@@3IB     1003085c     _MainInfoManager.obj
 0003:00001860       ?RMSG_CONCERNHWND@@3IB     10030860     _MainInfoManager.obj
 0003:00001864       ?RMSG_INTREQUEST@@3IB      10030864     _MainInfoManager.obj
 0003:00001868       ?RMSG_GWANSIMREGISTER@@3IB 10030868     _MainInfoManager.obj
 0003:0000186c       ?strUserName@?1??GetUserID@CMainInfoManager@@UAGPBDXZ@4V?$CStringT@DV?$StrTraitMFC_DLL@DV?$ChTraitsCRT@D@ATL@@@@@ATL@@A 1003086c     _MainInfoManager.obj
 0003:00001870       ?$TSS0@?1??GetUserID@CMainInfoManager@@UAGPBDXZ@4HA 10030870     _MainInfoManager.obj
 0003:00001874       ?RMSG_INTERFACE@@3IB       10030874     _MasterDataManager.obj
 0003:00001878       ?RMSG_GETPCTRDATA@@3IB     10030878     _MasterDataManager.obj
 0003:0000187c       ?RMSG_SETPCTRDATA@@3IB     1003087c     _MasterDataManager.obj
 0003:00001880       ?RMSG_CONCERNHWND@@3IB     10030880     _MasterDataManager.obj
 0003:00001884       ?RMSG_INTREQUEST@@3IB      10030884     _MasterDataManager.obj
 0003:00001888       ?RMSG_GWANSIMREGISTER@@3IB 10030888     _MasterDataManager.obj
 0003:0000188c       ?RMSG_INTERFACE@@3IB       1003088c     _NewSignalManager.obj
 0003:00001890       ?RMSG_GETPCTRDATA@@3IB     10030890     _NewSignalManager.obj
 0003:00001894       ?RMSG_SETPCTRDATA@@3IB     10030894     _NewSignalManager.obj
 0003:00001898       ?RMSG_CONCERNHWND@@3IB     10030898     _NewSignalManager.obj
 0003:0000189c       ?RMSG_INTREQUEST@@3IB      1003089c     _NewSignalManager.obj
 0003:000018a0       ?RMSG_GWANSIMREGISTER@@3IB 100308a0     _NewSignalManager.obj
 0003:000018a4       ?RMSG_INTERFACE@@3IB       100308a4     _PCTrManager.obj
 0003:000018a8       ?RMSG_GETPCTRDATA@@3IB     100308a8     _PCTrManager.obj
 0003:000018ac       ?RMSG_SETPCTRDATA@@3IB     100308ac     _PCTrManager.obj
 0003:000018b0       ?RMSG_CONCERNHWND@@3IB     100308b0     _PCTrManager.obj
 0003:000018b4       ?RMSG_INTREQUEST@@3IB      100308b4     _PCTrManager.obj
 0003:000018b8       ?RMSG_GWANSIMREGISTER@@3IB 100308b8     _PCTrManager.obj
 0003:000018bc       ?RMSG_INTERFACE@@3IB       100308bc     _RegistryManager.obj
 0003:000018c0       ?RMSG_GETPCTRDATA@@3IB     100308c0     _RegistryManager.obj
 0003:000018c4       ?RMSG_SETPCTRDATA@@3IB     100308c4     _RegistryManager.obj
 0003:000018c8       ?RMSG_CONCERNHWND@@3IB     100308c8     _RegistryManager.obj
 0003:000018cc       ?RMSG_INTREQUEST@@3IB      100308cc     _RegistryManager.obj
 0003:000018d0       ?RMSG_GWANSIMREGISTER@@3IB 100308d0     _RegistryManager.obj
 0003:000018d4       ?RMSG_INTERFACE@@3IB       100308d4     _SkinColorManager.obj
 0003:000018d8       ?RMSG_GETPCTRDATA@@3IB     100308d8     _SkinColorManager.obj
 0003:000018dc       ?RMSG_SETPCTRDATA@@3IB     100308dc     _SkinColorManager.obj
 0003:000018e0       ?RMSG_CONCERNHWND@@3IB     100308e0     _SkinColorManager.obj
 0003:000018e4       ?RMSG_INTREQUEST@@3IB      100308e4     _SkinColorManager.obj
 0003:000018e8       ?RMSG_GWANSIMREGISTER@@3IB 100308e8     _SkinColorManager.obj
 0003:000018ec       ?RMSG_INTERFACE@@3IB       100308ec     _STManager.obj
 0003:000018f0       ?RMSG_GETPCTRDATA@@3IB     100308f0     _STManager.obj
 0003:000018f4       ?RMSG_SETPCTRDATA@@3IB     100308f4     _STManager.obj
 0003:000018f8       ?RMSG_CONCERNHWND@@3IB     100308f8     _STManager.obj
 0003:000018fc       ?RMSG_INTREQUEST@@3IB      100308fc     _STManager.obj
 0003:00001900       ?RMSG_GWANSIMREGISTER@@3IB 10030900     _STManager.obj
 0003:00001904       ?RMSG_INTERFACE@@3IB       10030904     _SystemUtilManager.obj
 0003:00001908       ?RMSG_GETPCTRDATA@@3IB     10030908     _SystemUtilManager.obj
 0003:0000190c       ?RMSG_SETPCTRDATA@@3IB     1003090c     _SystemUtilManager.obj
 0003:00001910       ?RMSG_CONCERNHWND@@3IB     10030910     _SystemUtilManager.obj
 0003:00001914       ?RMSG_INTREQUEST@@3IB      10030914     _SystemUtilManager.obj
 0003:00001918       ?RMSG_GWANSIMREGISTER@@3IB 10030918     _SystemUtilManager.obj
 0003:0000191c       ?RMSG_INTERFACE@@3IB       1003091c     _TRCommManager.obj
 0003:00001920       ?RMSG_GETPCTRDATA@@3IB     10030920     _TRCommManager.obj
 0003:00001924       ?RMSG_SETPCTRDATA@@3IB     10030924     _TRCommManager.obj
 0003:00001928       ?RMSG_CONCERNHWND@@3IB     10030928     _TRCommManager.obj
 0003:0000192c       ?RMSG_INTREQUEST@@3IB      1003092c     _TRCommManager.obj
 0003:00001930       ?RMSG_GWANSIMREGISTER@@3IB 10030930     _TRCommManager.obj
 0003:0000196c       ?controlDLL@@3UAFX_EXTENSION_MODULE@@A 1003096c     mfcs140:dllmodul.obj
 0003:00001980       ?afxModuleState@@3V_AFX_DLL_MODULE_STATE@@A 10030980     mfcs140:dllmodul.obj
 0003:00001a1c       ?pafxModuleStatePrev@@3PAVAFX_MODULE_STATE@@A 10030a1c     mfcs140:dllmodul.obj
 0003:00001a30       ?is_initialized_as_dll@@3_NA 10030a30     msvcrt:utility.obj
 0003:00001a31       ?module_local_atexit_table_initialized@@3_NA 10030a31     msvcrt:utility.obj
 0003:00001a34       ?module_local_atexit_table@@3U_onexit_table_t@@A 10030a34     msvcrt:utility.obj
 0003:00001a40       ?module_local_at_quick_exit_table@@3U_onexit_table_t@@A 10030a40     msvcrt:utility.obj
 0003:00001a4c       ?g_tss_cv@@3U_RTL_CONDITION_VARIABLE@@A 10030a4c     msvcrt:thread_safe_statics.obj
 0003:00001a50       ?g_tss_event@@3PAXA        10030a50     msvcrt:thread_safe_statics.obj
 0003:00001a54       ?g_tss_mutex@@3U_RTL_CRITICAL_SECTION@@A 10030a54     msvcrt:thread_safe_statics.obj
 0003:00001a6c       ?g_sleep_condition_variable_cs@@3P6GHPAU_RTL_CONDITION_VARIABLE@@PAU_RTL_CRITICAL_SECTION@@K@ZA 10030a6c     msvcrt:thread_safe_statics.obj
 0003:00001a70       ?g_wake_all_condition_variable@@3P6GXPAU_RTL_CONDITION_VARIABLE@@@ZA 10030a70     msvcrt:thread_safe_statics.obj
 0003:00001a78       _GS_ExceptionRecord        10030a78     msvcrt:gs_report.obj
 0003:00001ac8       _GS_ContextRecord          10030ac8     msvcrt:gs_report.obj
 0003:00001d94       ?__proc_attached@@3HA      10030d94     msvcrt:dll_dllmain.obj
 0004:000000a0       $R000000                   100310a0     PcTrMng.res
 0004:000003d8       $R000338                   100313d8     PcTrMng.res

 Exports

  ordinal    name

        1    ?GetInferface@@YGJIJ@Z (long __stdcall GetInferface(unsigned int,long))
               exported name: GetInferface
        2    ?GetPCTrData@@YGPAXIJ@Z (void * __stdcall GetPCTrData(unsigned int,long))
               exported name: GetPCTrData
        3    ?SetPCTrData@@YGJIJ@Z (long __stdcall SetPCTrData(unsigned int,long))
               exported name: SetPCTrData
        4    ?NotifyPCTrState@@YGJIJ@Z (long __stdcall NotifyPCTrState(unsigned int,long))
               exported name: NotifyPCTrState
