 PCTRMNG

 Timestamp is 641272db (Thu Mar 16 10:37:31 2023)

 Preferred load address is 10000000

 Start         Length     Name                   Class
 0001:00000000 00001450H .text$di                CODE
 0001:00001450 0001d840H .text$mn                CODE
 0001:0001ec90 000023c0H .text$x                 CODE
 0001:00021050 0000031bH .text$yd                CODE
 0002:00000000 000006a4H .idata$5                DATA
 0002:000006a4 00000008H .00cfg                  DATA
 0002:000006ac 00000004H .CRT$XCA                DATA
 0002:000006b0 00000008H .CRT$XCL                DATA
 0002:000006b8 00000238H .CRT$XCU                DATA
 0002:000008f0 00000004H .CRT$XCZ                DATA
 0002:000008f4 00000004H .CRT$XIA                DATA
 0002:000008f8 00000004H .CRT$XIC                DATA
 0002:000008fc 00000004H .CRT$XIZ                DATA
 0002:00000900 00000004H .CRT$XLA                DATA
 0002:00000904 00000004H .CRT$XLZ                DATA
 0002:00000908 00000004H .CRT$XPA                DATA
 0002:0000090c 00000004H .CRT$XPZ                DATA
 0002:00000910 00000004H .CRT$XTA                DATA
 0002:00000914 0000000cH .CRT$XTZ                DATA
 0002:00000918 00000000H .gfids$y                DATA
 0002:00000920 000065e0H .rdata                  DATA
 0002:00006f00 00000004H .rdata$CastGuardVftablesA DATA
 0002:00006f04 00000004H .rdata$CastGuardVftablesC DATA
 0002:00006f08 00000018H .rdata$T                DATA
 0002:00006f20 000015f4H .rdata$r                DATA
 0002:00008514 0000022cH .rdata$sxdata           DATA
 0002:00008740 00000038H .rdata$voltmd           DATA
 0002:00008778 0000042cH .rdata$zzzdbg           DATA
 0002:00008ba4 00000004H .rtc$IAA                DATA
 0002:00008ba8 00000004H .rtc$IZZ                DATA
 0002:00008bac 00000004H .rtc$TAA                DATA
 0002:00008bb0 00000004H .rtc$TZZ                DATA
 0002:00008bb4 00000004H .tls                    DATA
 0002:00008bb8 00000004H .tls$                   DATA
 0002:00008bbc 00000004H .tls$ZZZ                DATA
 0002:00008bc0 00001f14H .xdata$x                DATA
 0002:0000aad4 00000004H ATL$__a                 DATA
 0002:0000aad8 00000008H ATL$__z                 DATA
 0002:0000aae0 00000094H .edata                  DATA
 0002:0000ab74 00000140H .idata$2                DATA
 0002:0000acb4 00000014H .idata$3                DATA
 0002:0000acc8 000006a4H .idata$4                DATA
 0002:0000b36c 00000af8H .idata$6                DATA
 0003:00000000 00000638H .data                   DATA
 0003:00000638 00000020H .data$r                 DATA
 0003:00000658 00000b28H .data$rs                DATA
 0003:00001180 00000c70H .bss                    DATA
 0004:00000000 000000a0H .rsrc$01                DATA
 0004:000000a0 00000560H .rsrc$02                DATA

  Address         Publics by Value              Rva+Base       Lib:Object

 0000:00000000       ___guard_check_icall_a64n_fptr 00000000     <absolute>
 0000:00000000       ___guard_fids_table        00000000     <absolute>
 0000:00000000       ___guard_longjmp_count     00000000     <absolute>
 0000:00000000       ___hybrid_code_map_count   00000000     <absolute>
 0000:00000000       ___enclave_config          00000000     <absolute>
 0000:00000000       ___guard_eh_cont_count     00000000     <absolute>
 0000:00000000       ___guard_longjmp_table     00000000     <absolute>
 0000:00000000       ___guard_iat_table         00000000     <absolute>
 0000:00000000       ___arm64x_redirection_metadata_count 00000000     <absolute>
 0000:00000000       ___guard_fids_count        00000000     <absolute>
 0000:00000000       ___arm64x_extra_rfe_table  00000000     <absolute>
 0000:00000000       ___x64_code_ranges_to_entry_points_count 00000000     <absolute>
 0000:00000000       ___hybrid_code_map         00000000     <absolute>
 0000:00000000       ___x64_code_ranges_to_entry_points 00000000     <absolute>
 0000:00000000       ___arm64x_native_entrypoint 00000000     <absolute>
 0000:00000000       ___hybrid_auxiliary_iat_copy 00000000     <absolute>
 0000:00000000       ___AbsoluteZero            00000000     <absolute>
 0000:00000000       ___guard_eh_cont_table     00000000     <absolute>
 0000:00000000       ___arm64x_redirection_metadata 00000000     <absolute>
 0000:00000000       ___dynamic_value_reloc_table 00000000     <absolute>
 0000:00000000       ___hybrid_auxiliary_iat    00000000     <absolute>
 0000:00000000       ___guard_iat_count         00000000     <absolute>
 0000:00000000       ___arm64x_extra_rfe_table_size 00000000     <absolute>
 0000:0000002c       __tls_array                0000002c     <absolute>
 0000:0000008b       ___safe_se_handler_count   0000008b     <absolute>
 0000:00000100       ___guard_flags             00000100     <absolute>
 0000:00000000       ___ImageBase               10000000     <linker-defined>
 0001:00001450       ?GetDispid@CMainExInfoManager@@UAGJH@Z 10002450 f   #SiteDependency.obj
 0001:00001460       ?SetDispid@CMainExInfoManager@@UAGXH@Z 10002460 f   #SiteDependency.obj
 0001:00001470       ?__empty_global_delete@@YAXPAX@Z 10002470 f i #SiteDependency.obj
 0001:00001480       ?__empty_global_delete@@YAXPAXI@Z 10002480 f i #SiteDependency.obj
 0001:00001480       ?__global_delete@@YAXPAXI@Z 10002480 f i #SiteDependency.obj
 0001:00001490       ??0CDispDesk@@QAE@XZ       10002490 f   DispDesk.obj
 0001:000014c0       ??1CDispDesk@@QAE@XZ       100024c0 f   DispDesk.obj
 0001:00001530       ?AddUserScriptItem@CDispDesk@@QAEJPBDPAUIDispatch@@@Z 10002530 f   DispDesk.obj
 0001:00001560       ?Blank@CDispDesk@@QAEXXZ   10002560 f   DispDesk.obj
 0001:00001580       ?CallCommand@CDispDesk@@QAEXPBD@Z 10002580 f   DispDesk.obj
 0001:000015b0       ?CallFunction@CDispDesk@@QAEHPBD0F@Z 100025b0 f   DispDesk.obj
 0001:000015f0       ?ChangeTRInOut@CDispDesk@@QAEXPBD00F@Z 100025f0 f   DispDesk.obj
 0001:00001630       ?DebugTrData@CDispDesk@@QAEXPBD@Z 10002630 f   DispDesk.obj
 0001:00001660       ?EnableFocus@CDispDesk@@QAEHPBDF@Z 10002660 f   DispDesk.obj
 0001:00001690       ?ExcuteScript@CDispDesk@@QAEJPBD00@Z 10002690 f   DispDesk.obj
 0001:000016d0       ?FormUnLoad@CDispDesk@@QAEXXZ 100026d0 f   DispDesk.obj
 0001:000016f0       ?GetCtrlHwndFromName@CDispDesk@@QAEJPBD@Z 100026f0 f   DispDesk.obj
 0001:00001720       ?GetCtrlNameFromHwnd@CDispDesk@@QAE?AV?$CStringT@DV?$StrTraitMFC_DLL@DV?$ChTraitsCRT@D@ATL@@@@@ATL@@J@Z 10002720 f   DispDesk.obj
 0001:000017a0       ?GetCtrlTypeFromHwnd@CDispDesk@@QAE?AV?$CStringT@DV?$StrTraitMFC_DLL@DV?$ChTraitsCRT@D@ATL@@@@@ATL@@J@Z 100027a0 f   DispDesk.obj
 0001:00001820       ?GetCtrlTypeFromName@CDispDesk@@QAE?AV?$CStringT@DV?$StrTraitMFC_DLL@DV?$ChTraitsCRT@D@ATL@@@@@ATL@@PBD@Z 10002820 f   DispDesk.obj
 0001:000018a0       ?GetCurrentMsgCode@CDispDesk@@QAE?AV?$CStringT@DV?$StrTraitMFC_DLL@DV?$ChTraitsCRT@D@ATL@@@@@ATL@@XZ 100028a0 f   DispDesk.obj
 0001:00001920       ?GetCurrentTrMessage@CDispDesk@@QAE?AV?$CStringT@DV?$StrTraitMFC_DLL@DV?$ChTraitsCRT@D@ATL@@@@@ATL@@XZ 10002920 f   DispDesk.obj
 0001:000019a0       ?GetDispFromName@CDispDesk@@QAEPAUIDispatch@@PBD@Z 100029a0 f   DispDesk.obj
 0001:000019d0       ?GetFormTrData@CDispDesk@@QAEHPBDPAPA_WPAF@Z 100029d0 f   DispDesk.obj
 0001:00001a00       ?GetKeyData@CDispDesk@@QAEJPBDPAF@Z 10002a00 f   DispDesk.obj
 0001:00001a30       ?GetMapData@CDispDesk@@QAE?AV?$CStringT@DV?$StrTraitMFC_DLL@DV?$ChTraitsCRT@D@ATL@@@@@ATL@@XZ 10002a30 f   DispDesk.obj
 0001:00001ab0       ?GetMapInfo@CDispDesk@@QAEHPBDPAUtagVARIANT@@@Z 10002ab0 f   DispDesk.obj
 0001:00001ae0       ?GetMapName@CDispDesk@@QAE?AV?$CStringT@DV?$StrTraitMFC_DLL@DV?$ChTraitsCRT@D@ATL@@@@@ATL@@XZ 10002ae0 f   DispDesk.obj
 0001:00001b60       ?GetMapSize@CDispDesk@@QAEHPAUtagVARIANT@@0@Z 10002b60 f   DispDesk.obj
 0001:00001b90       ?GetOpenMapData@CDispDesk@@QAE?AV?$CStringT@DV?$StrTraitMFC_DLL@DV?$ChTraitsCRT@D@ATL@@@@@ATL@@XZ 10002b90 f   DispDesk.obj
 0001:00001c10       ?GetRootPath@CDispDesk@@QAE?AV?$CStringT@DV?$StrTraitMFC_DLL@DV?$ChTraitsCRT@D@ATL@@@@@ATL@@PBD@Z 10002c10 f   DispDesk.obj
 0001:00001c90       ?GetSocketHandle@CDispDesk@@QAEJPBD@Z 10002c90 f   DispDesk.obj
 0001:00001cc0       ?GetTrList@CDispDesk@@QAE?AV?$CStringT@DV?$StrTraitMFC_DLL@DV?$ChTraitsCRT@D@ATL@@@@@ATL@@XZ 10002cc0 f   DispDesk.obj
 0001:00001d40       ?GetUserColor@CDispDesk@@QAEKFPBDF@Z 10002d40 f   DispDesk.obj
 0001:00001d80       ?GotoFocus@CDispDesk@@QAEXPBD@Z 10002d80 f   DispDesk.obj
 0001:00001db0       ?InitInterfaceName@CDispDesk@@QAEXPAUIDispatch@@@Z 10002db0 f   DispDesk.obj
 0001:00001e10       ?IsDeskActive@CDispDesk@@QAEHXZ 10002e10 f   DispDesk.obj
 0001:00001e40       ?LoadXfmEx@CDispDesk@@QAEHJ@Z 10002e40 f   DispDesk.obj
 0001:00001e70       ?MainKeyPress@CDispDesk@@QAEXPBD@Z 10002e70 f   DispDesk.obj
 0001:00001ea0       ?MoveControl@CDispDesk@@QAEHPBDJJ@Z 10002ea0 f   DispDesk.obj
 0001:00001ee0       ?NotifyFromMain@CDispDesk@@QAEXPBD0@Z 10002ee0 f   DispDesk.obj
 0001:00001f10       ?NotifyGShareData@CDispDesk@@QAEXPBD0@Z 10002f10 f   DispDesk.obj
 0001:00001f40       ?ReceiveTR@CDispDesk@@QAEFPBDJF@Z 10002f40 f   DispDesk.obj
 0001:00001f80       ?ResizeControl@CDispDesk@@QAEHPBDJJ@Z 10002f80 f   DispDesk.obj
 0001:00001fc0       ?ResizeFont@CDispDesk@@QAEXFFPBD@Z 10002fc0 f   DispDesk.obj
 0001:00002000       ?SelectPacketCommand@CDispDesk@@QAEFF@Z 10003000 f   DispDesk.obj
 0001:00002030       ?SendDataToOpener@CDispDesk@@QAEHPBDF@Z 10003030 f   DispDesk.obj
 0001:00002060       ?SendTR@CDispDesk@@QAEFPBD@Z 10003060 f   DispDesk.obj
 0001:00002090       ?SendTRForCert@CDispDesk@@QAEFPBD@Z 10003090 f   DispDesk.obj
 0001:000020c0       ?SendTrDirect@CDispDesk@@QAEFPBD0F@Z 100030c0 f   DispDesk.obj
 0001:00002100       ?SetCtrlResizeFlag@CDispDesk@@QAEHPBDHHHH@Z 10003100 f   DispDesk.obj
 0001:00002140       ?SetFlag@CDispDesk@@QAEXPBDF@Z 10003140 f   DispDesk.obj
 0001:00002170       ?SetFormTrData@CDispDesk@@QAEHPBD0F@Z 10003170 f   DispDesk.obj
 0001:000021b0       ?SetGSharedNotifyFlag@CDispDesk@@QAEXF@Z 100031b0 f   DispDesk.obj
 0001:000021e0       ?SetInitFont@CDispDesk@@QAEXFFPBD@Z 100031e0 f   DispDesk.obj
 0001:00002220       ?SetKeyData@CDispDesk@@QAEXPBDJF@Z 10003220 f   DispDesk.obj
 0001:00002250       ?SetMonitoringHandle@CDispDesk@@QAEXJ@Z 10003250 f   DispDesk.obj
 0001:00002280       ?SetNotifyCommand@CDispDesk@@QAEJPBD@Z 10003280 f   DispDesk.obj
 0001:000022b0       ?SetOpenMapData2@CDispDesk@@QAEXJ@Z 100032b0 f   DispDesk.obj
 0001:000022e0       ?SetOpenMapData@CDispDesk@@QAEXFPBD0F0@Z 100032e0 f   DispDesk.obj
 0001:00002320       ?SetParentDispatch@CDispDesk@@QAEXPAUIDispatch@@@Z 10003320 f   DispDesk.obj
 0001:00002350       ?SetRscMng@CDispDesk@@QAEXJ@Z 10003350 f   DispDesk.obj
 0001:00002380       ?SetSendCountFlag@CDispDesk@@QAEFF@Z 10003380 f   DispDesk.obj
 0001:000023b0       ?SetSharedInterface@CDispDesk@@QAEJJ@Z 100033b0 f   DispDesk.obj
 0001:000023e0       ?SetSocketHandle@CDispDesk@@QAEXPBDJ@Z 100033e0 f   DispDesk.obj
 0001:00002410       ?SetTabStop@CDispDesk@@QAEXF@Z 10003410 f   DispDesk.obj
 0001:00002440       ?ShowMessageBox@CDispDesk@@QAEFFPBD@Z 10003440 f   DispDesk.obj
 0001:00002470       ?ShowTrMessage@CDispDesk@@QAEXPBD@Z 10003470 f   DispDesk.obj
 0001:000024a0       ?UnLoadScript@CDispDesk@@QAEXXZ 100034a0 f   DispDesk.obj
 0001:000024c0       ??0CDispFormData@@QAE@XZ   100034c0 f   DispFormData.obj
 0001:000024e0       ?GetMapCfgFile@CDispFormData@@QAE?AV?$CStringT@DV?$StrTraitMFC_DLL@DV?$ChTraitsCRT@D@ATL@@@@@ATL@@XZ 100034e0 f   DispFormData.obj
 0001:00002560       ?GetPrivateDataString@CDispFormData@@QAE?AV?$CStringT@DV?$StrTraitMFC_DLL@DV?$ChTraitsCRT@D@ATL@@@@@ATL@@PBD000@Z 10003560 f   DispFormData.obj
 0001:000025f0       ?GetUserDataPath@CDispFormData@@QAE?AV?$CStringT@DV?$StrTraitMFC_DLL@DV?$ChTraitsCRT@D@ATL@@@@@ATL@@PBD@Z 100035f0 f   DispFormData.obj
 0001:00002670       ?InitInterfaceName@CDispFormData@@QAEXPAUIDispatch@@@Z 10003670 f   DispFormData.obj
 0001:000026c0       ?LoadData@CDispFormData@@QAEHPBD0ABUtagVARIANT@@@Z 100036c0 f   DispFormData.obj
 0001:00002700       ?LoadIniData@CDispFormData@@QAEHPBD00PAUtagVARIANT@@@Z 10003700 f   DispFormData.obj
 0001:00002740       ?LoadIntDataInCfg@CDispFormData@@QAEHPBD0FPAUtagVARIANT@@@Z 10003740 f   DispFormData.obj
 0001:00002780       ?LoadStringDataInCfg@CDispFormData@@QAE?AV?$CStringT@DV?$StrTraitMFC_DLL@DV?$ChTraitsCRT@D@ATL@@@@@ATL@@PBD00@Z 10003780 f   DispFormData.obj
 0001:00002800       ?SaveData@CDispFormData@@QAEHPBD0ABUtagVARIANT@@@Z 10003800 f   DispFormData.obj
 0001:00002840       ?SaveIniData@CDispFormData@@QAEHPBD00ABUtagVARIANT@@@Z 10003840 f   DispFormData.obj
 0001:00002880       ?SaveIntDataToCfg@CDispFormData@@QAEHPBD0F@Z 10003880 f   DispFormData.obj
 0001:000028c0       ?SaveStringDataToCfg@CDispFormData@@QAEHPBD00@Z 100038c0 f   DispFormData.obj
 0001:000028f0       ?WritePrivateDataString@CDispFormData@@QAEFPBD000@Z 100038f0 f   DispFormData.obj
 0001:00002930       ?WritePrivateDelete@CDispFormData@@QAEXPBD0@Z 10003930 f   DispFormData.obj
 0001:00002960       ??0CDispFormOpen@@QAE@XZ   10003960 f   DispFormOpen.obj
 0001:00002980       ?CloseMap@CDispFormOpen@@QAEXXZ 10003980 f   DispFormOpen.obj
 0001:000029a0       ?DialogMap@CDispFormOpen@@QAEXPBD0F@Z 100039a0 f   DispFormOpen.obj
 0001:000029d0       ?InitInterfaceName@CDispFormOpen@@QAEXPAUIDispatch@@@Z 100039d0 f   DispFormOpen.obj
 0001:00002a20       ?LoadMap@CDispFormOpen@@QAEXPBD0F@Z 10003a20 f   DispFormOpen.obj
 0001:00002a50       ?OpenMap@CDispFormOpen@@QAEXPBD0F@Z 10003a50 f   DispFormOpen.obj
 0001:00002a80       ?PopupMap@CDispFormOpen@@QAEXPBD0F@Z 10003a80 f   DispFormOpen.obj
 0001:00002ab0       ?ReLoadMap@CDispFormOpen@@QAEXPBD0F@Z 10003ab0 f   DispFormOpen.obj
 0001:00002ae0       ?SinglePopupMap@CDispFormOpen@@QAEXPBD0F@Z 10003ae0 f   DispFormOpen.obj
 0001:00002b10       ??0CDispFrame@@QAE@XZ      10003b10 f   DispFrame.obj
 0001:00002b30       ?ChangeFrameSize@CDispFrame@@QAEXFFF@Z 10003b30 f   DispFrame.obj
 0001:00002b60       ?GetDataSaveType@CDispFrame@@QAEFXZ 10003b60 f   DispFrame.obj
 0001:00002b90       ?GetFontSize@CDispFrame@@QAEFXZ 10003b90 f   DispFrame.obj
 0001:00002bc0       ?GetFrameInfoFile@CDispFrame@@QAE?AV?$CStringT@DV?$StrTraitMFC_DLL@DV?$ChTraitsCRT@D@ATL@@@@@ATL@@XZ 10003bc0 f   DispFrame.obj
 0001:00002c40       ?GetFrameScrNum@CDispFrame@@QAE?AV?$CStringT@DV?$StrTraitMFC_DLL@DV?$ChTraitsCRT@D@ATL@@@@@ATL@@XZ 10003c40 f   DispFrame.obj
 0001:00002cc0       ?InitInterfaceName@CDispFrame@@QAEXPAUIDispatch@@@Z 10003cc0 f   DispFrame.obj
 0001:00002d10       ??0CDispMain@@QAE@XZ       10003d10 f   DispMain.obj
 0001:00002d30       ?ChangeFrameSize@CDispMain@@QAEXFFF@Z 10003d30 f   DispMain.obj
 0001:00002d70       ?ChangeTabProperty@CDispMain@@QAEHFFFF@Z 10003d70 f   DispMain.obj
 0001:00002db0       ?ClearMessageBar@CDispMain@@QAEXXZ 10003db0 f   DispMain.obj
 0001:00002dd0       ?CloseMain@CDispMain@@QAEXF@Z 10003dd0 f   DispMain.obj
 0001:00002e00       ?GetAcctList@CDispMain@@QAE?AV?$CStringT@DV?$StrTraitMFC_DLL@DV?$ChTraitsCRT@D@ATL@@@@@ATL@@XZ 10003e00 f   DispMain.obj
 0001:00002e80       ?GetAcctPasswd@CDispMain@@QAE?AV?$CStringT@DV?$StrTraitMFC_DLL@DV?$ChTraitsCRT@D@ATL@@@@@ATL@@PBD@Z 10003e80 f   DispMain.obj
 0001:00002f00       ?GetBatchAcctInfo@CDispMain@@QAE?AV?$CStringT@DV?$StrTraitMFC_DLL@DV?$ChTraitsCRT@D@ATL@@@@@ATL@@PBD@Z 10003f00 f   DispMain.obj
 0001:00002f80       ?GetFrameSize@CDispMain@@QAE?AV?$CStringT@DV?$StrTraitMFC_DLL@DV?$ChTraitsCRT@D@ATL@@@@@ATL@@F@Z 10003f80 f   DispMain.obj
 0001:00003000       ?GetFrameVariable@CDispMain@@QAE?AV?$CStringT@DV?$StrTraitMFC_DLL@DV?$ChTraitsCRT@D@ATL@@@@@ATL@@PBD@Z 10004000 f   DispMain.obj
 0001:00003080       ?GetGShareData@CDispMain@@QAE?AV?$CStringT@DV?$StrTraitMFC_DLL@DV?$ChTraitsCRT@D@ATL@@@@@ATL@@PBD@Z 10004080 f   DispMain.obj
 0001:00003100       ?GetGwanCode@CDispMain@@QAE?AV?$CStringT@DV?$StrTraitMFC_DLL@DV?$ChTraitsCRT@D@ATL@@@@@ATL@@PBD@Z 10004100 f   DispMain.obj
 0001:00003180       ?GetGwanCodeOneGroup@CDispMain@@QAE?AV?$CStringT@DV?$StrTraitMFC_DLL@DV?$ChTraitsCRT@D@ATL@@@@@ATL@@PBD0@Z 10004180 f   DispMain.obj
 0001:00003200       ?GetGwanList@CDispMain@@QAE?AV?$CStringT@DV?$StrTraitMFC_DLL@DV?$ChTraitsCRT@D@ATL@@@@@ATL@@XZ 10004200 f   DispMain.obj
 0001:00003280       ?GetMapInfo@CDispMain@@QAE?AV?$CStringT@DV?$StrTraitMFC_DLL@DV?$ChTraitsCRT@D@ATL@@@@@ATL@@F@Z 10004280 f   DispMain.obj
 0001:00003300       ?GetMasterData@CDispMain@@QAE?AV?$CStringT@DV?$StrTraitMFC_DLL@DV?$ChTraitsCRT@D@ATL@@@@@ATL@@F@Z 10004300 f   DispMain.obj
 0001:00003380       ?GetUserInfo@CDispMain@@QAE?AV?$CStringT@DV?$StrTraitMFC_DLL@DV?$ChTraitsCRT@D@ATL@@@@@ATL@@F@Z 10004380 f   DispMain.obj
 0001:00003400       ?IHAddSection@CDispMain@@QAEFPBD00@Z 10004400 f   DispMain.obj
 0001:00003430       ?IHDeleteSection@CDispMain@@QAEFPBD00@Z 10004430 f   DispMain.obj
 0001:00003460       ?IHGetSectionData@CDispMain@@QAE?AV?$CStringT@DV?$StrTraitMFC_DLL@DV?$ChTraitsCRT@D@ATL@@@@@ATL@@PBD0000@Z 10004460 f   DispMain.obj
 0001:000034f0       ?IHGetSectionNames@CDispMain@@QAE?AV?$CStringT@DV?$StrTraitMFC_DLL@DV?$ChTraitsCRT@D@ATL@@@@@ATL@@PBD0@Z 100044f0 f   DispMain.obj
 0001:00003570       ?IHRenameSection@CDispMain@@QAEFPBD000@Z 10004570 f   DispMain.obj
 0001:000035b0       ?IHWriteSectionData@CDispMain@@QAEFPBD0000@Z 100045b0 f   DispMain.obj
 0001:000035f0       ?InitInterfaceName@CDispMain@@QAEXPAUIDispatch@@@Z 100045f0 f   DispMain.obj
 0001:00003650       ?MsgBox@CDispMain@@QAEFPBD0F@Z 10004650 f   DispMain.obj
 0001:00003690       ?NotifyEvent@CDispMain@@QAEXPBD0@Z 10004690 f   DispMain.obj
 0001:000036c0       ?RemoveGlobalData@CDispMain@@QAEHPBD0@Z 100046c0 f   DispMain.obj
 0001:000036f0       ?ReportCall@CDispMain@@QAEXPBDJ0@Z 100046f0 f   DispMain.obj
 0001:00003720       ?Restart@CDispMain@@QAEXXZ 10004720 f   DispMain.obj
 0001:00003740       ?SetAcctPasswd@CDispMain@@QAEXPBD0@Z 10004740 f   DispMain.obj
 0001:00003770       ?SetBatchAcctInfo@CDispMain@@QAEXPBD@Z 10004770 f   DispMain.obj
 0001:000037a0       ?SetFrameVariable@CDispMain@@QAEXPBD0@Z 100047a0 f   DispMain.obj
 0001:000037d0       ?SetGShareData@CDispMain@@QAEXPBD0F@Z 100047d0 f   DispMain.obj
 0001:00003800       ?SetOpenMapStyle2@CDispMain@@QAEXFFFFF@Z 10004800 f   DispMain.obj
 0001:00003840       ?SetOpenMapStyle@CDispMain@@QAEXFFFF@Z 10004840 f   DispMain.obj
 0001:00003880       ?ShowDialog@CDispMain@@QAEFPBDFF@Z 10004880 f   DispMain.obj
 0001:000038c0       ??0CDispPrimLib@@QAE@XZ    100048c0 f   DispPrimLib.obj
 0001:000038e0       ?ChangeInputRangeResize@CDispPrimLib@@QAEXPBD@Z 100048e0 f   DispPrimLib.obj
 0001:00003910       ?DefaultSetUp@CDispPrimLib@@QAEXPBD0000000@Z 10004910 f   DispPrimLib.obj
 0001:00003950       ?DeleteSplit@CDispPrimLib@@QAEXPBD@Z 10004950 f   DispPrimLib.obj
 0001:00003980       ?InitInterfaceName@CDispPrimLib@@QAEXPAUIDispatch@@@Z 10004980 f   DispPrimLib.obj
 0001:000039d0       ?InsertSplit@CDispPrimLib@@QAEXPBD0000@Z 100049d0 f   DispPrimLib.obj
 0001:00003a00       ?IsUserDefinedMode@CDispPrimLib@@QAEFPBDF@Z 10004a00 f   DispPrimLib.obj
 0001:00003a30       ?MapSwitch@CDispPrimLib@@QAEXPBD@Z 10004a30 f   DispPrimLib.obj
 0001:00003a60       ?ReLoadOtherMap@CDispPrimLib@@QAEXPBD@Z 10004a60 f   DispPrimLib.obj
 0001:00003a90       ?SetActiveTab@CDispPrimLib@@QAEXPBD@Z 10004a90 f   DispPrimLib.obj
 0001:00003ac0       ?SetMessage@CDispPrimLib@@QAEXPBD@Z 10004ac0 f   DispPrimLib.obj
 0001:00003af0       ?SplitResizeOption@CDispPrimLib@@QAEXPBD00@Z 10004af0 f   DispPrimLib.obj
 0001:00003b20       ?TabToggle@CDispPrimLib@@QAEXPBD@Z 10004b20 f   DispPrimLib.obj
 0001:00003b50       ?ToggleWindow@CDispPrimLib@@QAEXPBD00@Z 10004b50 f   DispPrimLib.obj
 0001:00003b80       ??0CDispView@@QAE@XZ       10004b80 f   DispView.obj
 0001:00003ba0       ?InitInterfaceName@CDispView@@QAEXPAUIDispatch@@@Z 10004ba0 f   DispView.obj
 0001:00003bf0       ?MsgBoxID@CDispView@@QAEFFPBD0F@Z 10004bf0 f   DispView.obj
 0001:00003c30       ?ShowDialog@CDispView@@QAEFPBDF@Z 10004c30 f   DispView.obj
 0001:00003c60       ??0CDispCodeOcx@@QAE@XZ    10004c60 f   CodeOcx.obj
 0001:00003c80       ??1CDispCodeOcx@@QAE@XZ    10004c80 f   CodeOcx.obj
 0001:00003ce0       ?GetBaseCodeTable@CDispCodeOcx@@QAEJXZ 10004ce0 f   CodeOcx.obj
 0001:00003d10       ?GetCodeInfo@CDispCodeOcx@@QAE?AV?$CStringT@DV?$StrTraitMFC_DLL@DV?$ChTraitsCRT@D@ATL@@@@@ATL@@PBDF0@Z 10004d10 f   CodeOcx.obj
 0001:00003d90       ?GetCodePointer@CDispCodeOcx@@QAEJPBD@Z 10004d90 f   CodeOcx.obj
 0001:00003dc0       ?GetGlobalDataTypeList@CDispCodeOcx@@QAEJXZ 10004dc0 f   CodeOcx.obj
 0001:00003df0       ?GetHistoryList@CDispCodeOcx@@QAE?AV?$CStringT@DV?$StrTraitMFC_DLL@DV?$ChTraitsCRT@D@ATL@@@@@ATL@@FJ@Z 10004df0 f   CodeOcx.obj
 0001:00003e70       ?GetMaxHangSaGa@CDispCodeOcx@@QAE?AV?$CStringT@DV?$StrTraitMFC_DLL@DV?$ChTraitsCRT@D@ATL@@@@@ATL@@XZ 10004e70 f   CodeOcx.obj
 0001:00003ef0       ?GetRscMng@CDispCodeOcx@@QAEXJ@Z 10004ef0 f   CodeOcx.obj
 0001:00003f20       ?InitData@CDispCodeOcx@@QAEHPBD@Z 10004f20 f   CodeOcx.obj
 0001:00003f50       ?InitInterfaceName@CDispCodeOcx@@QAEXPAUIDispatch@@@Z 10004f50 f   CodeOcx.obj
 0001:00003fa0       ?InsertHistory@CDispCodeOcx@@QAEHFJPBD0@Z 10004fa0 f   CodeOcx.obj
 0001:00003fe0       ?RemoveAllListData@CDispCodeOcx@@QAEHXZ 10004fe0 f   CodeOcx.obj
 0001:00004010       ?SetDataString@CDispCodeOcx@@QAEXFPBD@Z 10005010 f   CodeOcx.obj
 0001:00004040       ?SetInfo@CDispCodeOcx@@QAEXJ@Z 10005040 f   CodeOcx.obj
 0001:00004070       ?SetPosition@CDispCodeOcx@@QAEXPBDFF@Z 10005070 f   CodeOcx.obj
 0001:000040a0       ?ShowCodeTable@CDispCodeOcx@@QAEJPBDABUtagVARIANT@@@Z 100050a0 f   CodeOcx.obj
 0001:000040d0       ?ShowCodeTableWithPosition@CDispCodeOcx@@QAEJPBDABUtagVARIANT@@FF@Z 100050d0 f   CodeOcx.obj
 0001:00004110       ?ShowModeCodeTable@CDispCodeOcx@@QAEJPBDABUtagVARIANT@@@Z 10005110 f   CodeOcx.obj
 0001:00004140       ??0CControlPos@@QAE@PAVCWnd@@@Z 10005140 f   ControlPos.obj
 0001:00004210       ??1CControlPos@@UAE@XZ     10005210 f   ControlPos.obj
 0001:00004260       ??_ECControlPos@@UAEPAXI@Z 10005260 f i ControlPos.obj
 0001:00004260       ??_GCControlPos@@UAEPAXI@Z 10005260 f i ControlPos.obj
 0001:000042d0       ?AddControl@CControlPos@@QAEHABIABK@Z 100052d0 f   ControlPos.obj
 0001:00004380       ?AddControl@CControlPos@@QAEHABIABKV?$CStringT@DV?$StrTraitMFC_DLL@DV?$ChTraitsCRT@D@ATL@@@@@ATL@@@Z 10005380 f   ControlPos.obj
 0001:000044b0       ?AddControl@CControlPos@@QAEHPAVCWnd@@ABK@Z 100054b0 f   ControlPos.obj
 0001:00004530       ?AddControl@CControlPos@@QAEHPAVCWnd@@ABKV?$CStringT@DV?$StrTraitMFC_DLL@DV?$ChTraitsCRT@D@ATL@@@@@ATL@@@Z 10005530 f   ControlPos.obj
 0001:00004610       ?GetNegativeMoves@CControlPos@@QBEHXZ 10005610 f   ControlPos.obj
 0001:00004620       ?GetSafeHwnd@CWnd@@QBEPAUHWND__@@XZ 10005620 f i ControlPos.obj
 0001:00004630       ?MoveControls@CControlPos@@UAEXXZ 10005630 f   ControlPos.obj
 0001:00004880       ?RemoveControl@CControlPos@@QAEHABI@Z 10005880 f   ControlPos.obj
 0001:00004920       ?RemoveControl@CControlPos@@QAEHPAVCWnd@@@Z 10005920 f   ControlPos.obj
 0001:000049a0       ?ResetControls@CControlPos@@QAEXXZ 100059a0 f   ControlPos.obj
 0001:000049f0       ?ResizeControls@CControlPos@@QAEXHHHH@Z 100059f0 f   ControlPos.obj
 0001:00004c00       ?SetNegativeMoves@CControlPos@@QAEXABH@Z 10005c00 f   ControlPos.obj
 0001:00004c10       ?SetParent@CControlPos@@QAEXPAVCWnd@@PAVCSize@@@Z 10005c10 f   ControlPos.obj
 0001:00004d10       ?UpdateParentSize@CControlPos@@MAEXXZ 10005d10 f   ControlPos.obj
 0001:00004d20       ?GetPcIP@CSystemInfo@@SA?AV?$CStringT@DV?$StrTraitMFC_DLL@DV?$ChTraitsCRT@D@ATL@@@@@ATL@@XZ 10005d20 f   EtcUtil.obj
 0001:00004d40       ?RegGetIP@CSystemInfo@@SA?AV?$CStringT@DV?$StrTraitMFC_DLL@DV?$ChTraitsCRT@D@ATL@@@@@ATL@@XZ 10005d40 f   EtcUtil.obj
 0001:00004e60       ??0CGwanWnd@@QAE@XZ        10005e60 f   GwanWnd.obj
 0001:00004e90       ??1CGwanWnd@@UAE@XZ        10005e90 f   GwanWnd.obj
 0001:00004ea0       ??_ECGwanWnd@@UAEPAXI@Z    10005ea0 f i GwanWnd.obj
 0001:00004ea0       ??_GCGwanWnd@@UAEPAXI@Z    10005ea0 f i GwanWnd.obj
 0001:00004ef0       ?AssertValid@CObject@@UBEXXZ 10005ef0 f i GwanWnd.obj
 0001:00004f00       ?BeginModalState@CWnd@@UAEXXZ 10005f00 f i GwanWnd.obj
 0001:00004f10       ?ClearAllList@CGwanWnd@@QAEXXZ 10005f10 f   GwanWnd.obj
 0001:00004f20       ?ClearList@CGwanWnd@@QAEXH@Z 10005f20 f   GwanWnd.obj
 0001:00004f30       ?DestroyWindow@CGwanWnd@@UAEHXZ 10005f30 f   GwanWnd.obj
 0001:00004f40       ?DoDataExchange@CWnd@@MAEXPAVCDataExchange@@@Z 10005f40 f i GwanWnd.obj
 0001:00004f50       ?Dump@CObject@@UBEXAAVCDumpContext@@@Z 10005f50 f i GwanWnd.obj
 0001:00004f60       ?EndModalState@CWnd@@UAEXXZ 10005f60 f i GwanWnd.obj
 0001:00004f70       ?GetMessageMap@CGwanWnd@@MBEPBUAFX_MSGMAP@@XZ 10005f70 f   GwanWnd.obj
 0001:00004f80       ?GetThisMessageMap@CGwanWnd@@KGPBUAFX_MSGMAP@@XZ 10005f80 f   GwanWnd.obj
 0001:00004f90       ?GwanAdvise@CGwanWnd@@QAEXXZ 10005f90 f   GwanWnd.obj
 0001:00004fa0       ?GwanUnAdvise@CGwanWnd@@QAEXH@Z 10005fa0 f   GwanWnd.obj
 0001:00004fb0       ?OnEugeneGwansim@CGwanWnd@@IAEJIJ@Z 10005fb0 f   GwanWnd.obj
 0001:00004fc0       ?OpenWindow@CGwanWnd@@QAEHXZ 10005fc0 f   GwanWnd.obj
 0001:00005060       ?Serialize@CObject@@UAEXAAVCArchive@@@Z 10006060 f i GwanWnd.obj
 0001:00005070       ??0CNewsMoniterWnd@@QAE@XZ 10006070 f   NewsMoniterWnd.obj
 0001:000050a0       ??1CNewsMoniterWnd@@UAE@XZ 100060a0 f   NewsMoniterWnd.obj
 0001:000050c0       ??_GCNewsMoniterWnd@@UAEPAXI@Z 100060c0 f i NewsMoniterWnd.obj
 0001:000050c0       ??_ECNewsMoniterWnd@@UAEPAXI@Z 100060c0 f i NewsMoniterWnd.obj
 0001:00005110       ?GetDummyHwnd@CNewsMoniterWnd@@QAEPAUHWND__@@XZ 10006110 f   NewsMoniterWnd.obj
 0001:00005130       ?GetFilterData@CNewsMoniterWnd@@QAEXAAJ@Z 10006130 f   NewsMoniterWnd.obj
 0001:00005160       ?GetMessageMap@CNewsMoniterWnd@@MBEPBUAFX_MSGMAP@@XZ 10006160 f   NewsMoniterWnd.obj
 0001:00005170       ?GetSiganlTable@CNewsMoniterWnd@@QAEHV?$CStringT@DV?$StrTraitMFC_DLL@DV?$ChTraitsCRT@D@ATL@@@@@ATL@@AAVCStringArray@@@Z 10006170 f   NewsMoniterWnd.obj
 0001:000051f0       ?GetSignalData@CNewsMoniterWnd@@QAEXV?$CStringT@DV?$StrTraitMFC_DLL@DV?$ChTraitsCRT@D@ATL@@@@@ATL@@AAVCMapStringToPtr@@@Z 100061f0 f   NewsMoniterWnd.obj
 0001:00005270       ?GetThisMessageMap@CNewsMoniterWnd@@KGPBUAFX_MSGMAP@@XZ 10006270 f   NewsMoniterWnd.obj
 0001:00005280       ?OnCreate@CNewsMoniterWnd@@IAEHPAUtagCREATESTRUCTA@@@Z 10006280 f   NewsMoniterWnd.obj
 0001:00005370       ?OnDestroy@CNewsMoniterWnd@@IAEXXZ 10006370 f   NewsMoniterWnd.obj
 0001:000053b0       ?OpenWindow@CNewsMoniterWnd@@QAEHXZ 100063b0 f   NewsMoniterWnd.obj
 0001:00005450       ?PreCreateWindow@CNewsMoniterWnd@@MAEHAAUtagCREATESTRUCTA@@@Z 10006450 f   NewsMoniterWnd.obj
 0001:00005460       ?SetFilterData@CNewsMoniterWnd@@QAEXPAJ@Z 10006460 f   NewsMoniterWnd.obj
 0001:00005490       ?SetSignalData@CNewsMoniterWnd@@QAEXV?$CStringT@DV?$StrTraitMFC_DLL@DV?$ChTraitsCRT@D@ATL@@@@@ATL@@PAVCMapStringToPtr@@@Z 10006490 f   NewsMoniterWnd.obj
 0001:00005510       ?SetSingSiganl@CNewsMoniterWnd@@QAEHHPAVCWnd@@V?$CStringT@DV?$StrTraitMFC_DLL@DV?$ChTraitsCRT@D@ATL@@@@@ATL@@1@Z 10006510 f   NewsMoniterWnd.obj
 0001:000055c0       ??0CPCtrMainWnd@@QAE@XZ    100065c0 f   PCtrMainWnd.obj
 0001:000055e0       ??_ECPCtrMainWnd@@UAEPAXI@Z 100065e0 f i PCtrMainWnd.obj
 0001:000055e0       ??_GCPCtrMainWnd@@UAEPAXI@Z 100065e0 f i PCtrMainWnd.obj
 0001:00005620       ?GetMessageMap@CPCtrMainWnd@@MBEPBUAFX_MSGMAP@@XZ 10006620 f   PCtrMainWnd.obj
 0001:00005630       ?GetThisMessageMap@CPCtrMainWnd@@KGPBUAFX_MSGMAP@@XZ 10006630 f   PCtrMainWnd.obj
 0001:00005640       ?OpenWindow@CPCtrMainWnd@@QAEHXZ 10006640 f   PCtrMainWnd.obj
 0001:000056e0       ?WindowProc@CPCtrMainWnd@@MAEJIIJ@Z 100066e0 f   PCtrMainWnd.obj
 0001:00005740       ??$SerializeElements@PAVCSTManager_Info@@@@YGXAAVCArchive@@PAPAVCSTManager_Info@@H@Z 10006740 f i PcTrMng.obj
 0001:000057f0       ??0?$CList@PAVCSTManager_Info@@PAV1@@@QAE@H@Z 100067f0 f i PcTrMng.obj
 0001:00005830       ??0CPcTrMngApp@@QAE@XZ     10006830 f   PcTrMng.obj
 0001:00005b50       ??1?$CList@PAVCSTManager_Info@@PAV1@@@UAE@XZ 10006b50 f i PcTrMng.obj
 0001:00005bc0       ??1CObject@@UAE@XZ         10006bc0 f i PcTrMng.obj
 0001:00005bd0       ??1CPcTrMngApp@@UAE@XZ     10006bd0 f   PcTrMng.obj
 0001:00005c80       ??3CObject@@SGXPAX@Z       10006c80 f i PcTrMng.obj
 0001:00005ca0       ??_E?$CList@PAVCSTManager_Info@@PAV1@@@UAEPAXI@Z 10006ca0 f i PcTrMng.obj
 0001:00005ca0       ??_G?$CList@PAVCSTManager_Info@@PAV1@@@UAEPAXI@Z 10006ca0 f i PcTrMng.obj
 0001:00005d50       ??_GCPcTrMngApp@@UAEPAXI@Z 10006d50 f i PcTrMng.obj
 0001:00005d50       ??_ECPcTrMngApp@@UAEPAXI@Z 10006d50 f i PcTrMng.obj
 0001:00005d90       ?AddTail@?$CList@PAVCSTManager_Info@@PAV1@@@QAEPAU__POSITION@@PAVCSTManager_Info@@@Z 10006d90 f i PcTrMng.obj
 0001:00005e20       ?DOChartOCXRegister@CPcTrMngApp@@QAEHXZ 10006e20 f   PcTrMng.obj
 0001:00005ff0       ?ExitInstance@CPcTrMngApp@@UAEHXZ 10006ff0 f   PcTrMng.obj
 0001:000061c0       ?GetApplicationRecoveryParameter@CWinApp@@UAEPAXXZ 100071c0 f i PcTrMng.obj
 0001:000061d0       ?GetApplicationRecoveryPingInterval@CWinApp@@UAEKXZ 100071d0 f i PcTrMng.obj
 0001:000061e0       ?GetApplicationRestartFlags@CWinApp@@UAEKXZ 100071e0 f i PcTrMng.obj
 0001:000061f0       ?GetDir_DrfnRoot@@YAXAAV?$CStringT@DV?$StrTraitMFC_DLL@DV?$ChTraitsCRT@D@ATL@@@@@ATL@@@Z 100071f0 f i PcTrMng.obj
 0001:00006320       ?GetInferface@@YGJIJ@Z     10007320 f   PcTrMng.obj
 0001:00006340       ?GetMessageMap@CPcTrMngApp@@MBEPBUAFX_MSGMAP@@XZ 10007340 f   PcTrMng.obj
 0001:00006350       ?GetPCTrData@@YGPAXIJ@Z    10007350 f   PcTrMng.obj
 0001:00006380       ?GetThisMessageMap@CPcTrMngApp@@KGPBUAFX_MSGMAP@@XZ 10007380 f   PcTrMng.obj
 0001:00006390       ?InitInstance@CPcTrMngApp@@UAEHXZ 10007390 f   PcTrMng.obj
 0001:00006bc0       ?LoadDefaultColorTable@CPcTrMngApp@@QAEXXZ 10007bc0 f   PcTrMng.obj
 0001:00006c50       ?LoadTestDLL@CPcTrMngApp@@QAEXXZ 10007c50 f   PcTrMng.obj
 0001:00006c60       ?NewNode@?$CList@PAVCSTManager_Info@@PAV1@@@IAEPAUCNode@1@PAU21@0@Z 10007c60 f i PcTrMng.obj
 0001:00006cd0       ?NotifyPCTrState@@YGJIJ@Z  10007cd0 f   PcTrMng.obj
 0001:00006ce0       ?PctrGetMainHandle@CPcTrMngApp@@QAEPAUHWND__@@XZ 10007ce0 f   PcTrMng.obj
 0001:00006d10       ?PctrGetMainWnd@CPcTrMngApp@@QAEPAVCWnd@@XZ 10007d10 f   PcTrMng.obj
 0001:00006d40       ?RemoveAll@?$CList@PAVCSTManager_Info@@PAV1@@@QAEXXZ 10007d40 f i PcTrMng.obj
 0001:00006d70       ?ReopenPreviousFilesAtRestart@CWinApp@@UBEHXZ 10007d70 f i PcTrMng.obj
 0001:00006d80       ?RestoreAutosavedFilesAtRestart@CWinApp@@UBEHXZ 10007d80 f i PcTrMng.obj
 0001:00006d90       ?Serialize@?$CList@PAVCSTManager_Info@@PAV1@@@UAEXAAVCArchive@@@Z 10007d90 f i PcTrMng.obj
 0001:00006fa0       ?SetHanaroEnvSetting@CPcTrMngApp@@QAEHPAUHWND__@@PBD@Z 10007fa0 f   PcTrMng.obj
 0001:00007060       ?SetHanaroGateMngHandle@CPcTrMngApp@@QAEXXZ 10008060 f   PcTrMng.obj
 0001:00007110       ?SetPCTrData@@YGJIJ@Z      10008110 f   PcTrMng.obj
 0001:00007160       ?SupportsApplicationRecovery@CWinApp@@UBEHXZ 10008160 f i PcTrMng.obj
 0001:00007170       ?SupportsAutosaveAtInterval@CWinApp@@UBEHXZ 10008170 f i PcTrMng.obj
 0001:00007180       ?SupportsAutosaveAtRestart@CWinApp@@UBEHXZ 10008180 f i PcTrMng.obj
 0001:00007190       ?SupportsRestartManager@CWinApp@@UBEHXZ 10008190 f i PcTrMng.obj
 0001:000071a0       ?UnLoadTestDLL@CPcTrMngApp@@QAEXXZ 100081a0 f   PcTrMng.obj
 0001:000071b0       ?_DoClearDataFile@CPcTrMngApp@@QAEXXZ 100081b0 f   PcTrMng.obj
 0001:000075b0       ?_DoPrepareData@CPcTrMngApp@@QAEXXZ 100085b0 f   PcTrMng.obj
 0001:00007700       ?_WinixVariant@CPcTrMngApp@@QAE?AV?$CStringT@DV?$StrTraitMFC_DLL@DV?$ChTraitsCRT@D@ATL@@@@@ATL@@PAUHWND__@@HV23@@Z 10008700 f   PcTrMng.obj
 0001:00007770       ___local_stdio_printf_options 10008770 f i PcTrMng.obj
 0001:00007780       _sprintf                   10008780 f i PcTrMng.obj
 0001:000077c0       ?Allocate@CAtlStringMgr@ATL@@UAEPAUCStringData@2@HH@Z 100087c0 f i StdAfx.obj
 0001:00007830       ?Free@CAtlStringMgr@ATL@@UAEXPAUCStringData@2@@Z 10008830 f i StdAfx.obj
 0001:00007840       ?Reallocate@CAtlStringMgr@ATL@@UAEPAUCStringData@2@PAU32@HH@Z 10008840 f i StdAfx.obj
 0001:000078a0       ?GetNilString@CAtlStringMgr@ATL@@UAEPAUCStringData@2@XZ 100088a0 f i StdAfx.obj
 0001:000078b0       ?Clone@CAtlStringMgr@ATL@@UAEPAUIAtlStringMgr@2@XZ 100088b0 f i StdAfx.obj
 0001:000078c0       ??_GCAtlStringMgr@ATL@@UAEPAXI@Z 100088c0 f i StdAfx.obj
 0001:000078c0       ??_ECAtlStringMgr@ATL@@UAEPAXI@Z 100088c0 f i StdAfx.obj
 0001:000078f0       ?_AfxInitManaged@@YAHXZ    100088f0 f i StdAfx.obj
 0001:00007900       ?Allocate@CWin32Heap@ATL@@UAEPAXI@Z 10008900 f i StdAfx.obj
 0001:00007920       ?Free@CWin32Heap@ATL@@UAEXPAX@Z 10008920 f i StdAfx.obj
 0001:00007940       ?Reallocate@CWin32Heap@ATL@@UAEPAXPAXI@Z 10008940 f i StdAfx.obj
 0001:00007980       ?GetSize@CWin32Heap@ATL@@UAEIPAX@Z 10008980 f i StdAfx.obj
 0001:000079a0       ??_ECWin32Heap@ATL@@UAEPAXI@Z 100089a0 f i StdAfx.obj
 0001:000079a0       ??_GCWin32Heap@ATL@@UAEPAXI@Z 100089a0 f i StdAfx.obj
 0001:000079e0       ??1CAtlStringMgr@ATL@@UAE@XZ 100089e0 f i StdAfx.obj
 0001:000079f0       ??1CWin32Heap@ATL@@UAE@XZ  100089f0 f i StdAfx.obj
 0001:00007a10       ??_H@YGXPAXIIP6EPAX0@Z@Z   10008a10 f i StdAfx.obj
 0001:00007a40       ?EnsureLinked@CAtlStringMgrStaticInitializer@ATLImplementationDetails@ATL@@QAEPAXXZ 10008a40 f i StdAfx.obj
 0001:00007a50       ?_AtlInitializeCriticalSectionEx@ATL@@YAHPAU_RTL_CRITICAL_SECTION@@KK@Z 10008a50 f i StdAfx.obj
 0001:00007a70       ?_AtlRaiseException@ATL@@YAXKK@Z 10008a70 f i StdAfx.obj
 0001:00007a90       ??0CTracer@@QAE@XZ         10008a90 f   Tracer.obj
 0001:00007aa0       ??1CTracer@@UAE@XZ         10008aa0 f   Tracer.obj
 0001:00007ac0       ??_ECTracer@@UAEPAXI@Z     10008ac0 f i Tracer.obj
 0001:00007ac0       ??_GCTracer@@UAEPAXI@Z     10008ac0 f i Tracer.obj
 0001:00007b00       ?Connect@CTracer@@QAE_NXZ  10008b00 f   Tracer.obj
 0001:00007b30       ?DisConnect@CTracer@@QAEXXZ 10008b30 f   Tracer.obj
 0001:00007b50       ?MakeTrace@CTracer@@QBA_NPBDZZ 10008b50 f   Tracer.obj
 0001:00007c00       ?Create@CTRComm@@UAEHPAVCWnd@@@Z 10008c00 f   TrComm.obj
 0001:00007cc0       ?GetBaseData@CTRComm@@QAEXPBDAAV?$CStringT@DV?$StrTraitMFC_DLL@DV?$ChTraitsCRT@D@ATL@@@@@ATL@@@Z 10008cc0 f   TrComm.obj
 0001:00007cf0       ?GetMessageMap@CTRComm@@MBEPBUAFX_MSGMAP@@XZ 10008cf0 f   TrComm.obj
 0001:00007d00       ?GetPacketUniqueID@CTRComm@@QAEHH@Z 10008d00 f   TrComm.obj
 0001:00007d30       ?GetThisMessageMap@CTRComm@@KGPBUAFX_MSGMAP@@XZ 10008d30 f   TrComm.obj
 0001:00007d40       ?NotifyParent@CTRComm@@IAEHPBD00PAXJ@Z 10008d40 f   TrComm.obj
 0001:00007d80       ?OnDestroy@CTRComm@@IAEXXZ 10008d80 f   TrComm.obj
 0001:00007db0       ?OnGetMsg@CTRComm@@IAEJIJ@Z 10008db0 f   TrComm.obj
 0001:00007dc0       ?OnTimer@CTRComm@@IAEXI@Z  10008dc0 f   TrComm.obj
 0001:00007e00       ?Send2Server@CTRComm@@QAEHPAXHH@Z 10008e00 f   TrComm.obj
 0001:00007ea0       ?Send2ServerWithKey@CTRComm@@QAEHPAXHH@Z 10008ea0 f   TrComm.obj
 0001:00007f20       ?Send_MessageData@CTRComm@@QAEJPBD00@Z 10008f20 f   TrComm.obj
 0001:00007f50       ?Send_PacketData@CTRComm@@QAEJPAEHPBD11@Z 10008f50 f   TrComm.obj
 0001:00007f60       ?SetBaseData@CTRComm@@QAEXPBD0@Z 10008f60 f   TrComm.obj
 0001:00007fd0       ?SetBaseDataLong@CTRComm@@QAEXPBDJ@Z 10008fd0 f   TrComm.obj
 0001:00008020       ?SetTR@CTRComm@@QAEXPBDH@Z 10009020 f   TrComm.obj
 0001:000080f0       ?StartTRTimer@CTRComm@@IAEXXZ 100090f0 f   TrComm.obj
 0001:00008130       ?StopTRTimer@CTRComm@@IAEXXZ 10009130 f   TrComm.obj
 0001:00008160       ?WaitResult@CTRComm@@IAEHXZ 10009160 f   TrComm.obj
 0001:00008210       ?_DoPreCheck@CTRComm@@IAEHPAEJHAAH@Z 10009210 f   TrComm.obj
 0001:00008510       ?_DoPreCheck_Dollar@CTRComm@@IAEHPAEJPBDAAH@Z 10009510 f   TrComm.obj
 0001:000085b0       ?_DoPreCheck_MstCode@CTRComm@@IAEHPAEJPBDAAH@Z 100095b0 f   TrComm.obj
 0001:00008710       ?_DoPreCheck_WorkDate@CTRComm@@IAEHPAEJPBDAAH@Z 10009710 f   TrComm.obj
 0001:000087b0       ___local_stdio_scanf_options 100097b0 f i TrComm.obj
 0001:000087c0       _sscanf                    100097c0 f i TrComm.obj
 0001:000087f0       ??0CCompanyManager@@QAE@XZ 100097f0 f   _CompanyManager.obj
 0001:00008820       ??1CCompanyManager@@QAE@XZ 10009820 f   _CompanyManager.obj
 0001:00008840       ?AddTail@?$CList@PAUSTACC_SSDATA@@PAU1@@@QAEPAU__POSITION@@PAUSTACC_SSDATA@@@Z 10009840 f i _CompanyManager.obj
 0001:000088d0       ?CreateChkSysWnd@CCompanyManager@@QAEHXZ 100098d0 f   _CompanyManager.obj
 0001:000088e0       ?GetAcctCode@CCompanyManager@@UAGHAAVCStringList@@0@Z 100098e0 f   _CompanyManager.obj
 0001:00008950       ?GetAcctCodeEx@CCompanyManager@@UAGHAAV?$CList@PAUSTACC_SSDATA@@PAU1@@@H@Z 10009950 f   _CompanyManager.obj
 0001:000089e0       ?GetAcctInfo@CCompanyManager@@UAGPBDPBDHH@Z 100099e0 f   _CompanyManager.obj
 0001:00008a10       ?GetEugeneAcctCode@CCompanyManager@@QAEHAAVCStringList@@0@Z 10009a10 f   _CompanyManager.obj
 0001:00008ab0       ?GetEugeneAcctCodeEx@CCompanyManager@@QAEHAAV?$CList@PAUSTACC_SSDATA@@PAU1@@@H@Z 10009ab0 f   _CompanyManager.obj
 0001:00008b40       ?GetEugeneAcctInfo@CCompanyManager@@QAEPBDPBDHH@Z 10009b40 f   _CompanyManager.obj
 0001:00008b70       ?GetID@CCompanyManager@@UAGHXZ 10009b70 f   _CompanyManager.obj
 0001:00008b80       ?GetName@CCompanyManager@@UAGPBDH@Z 10009b80 f   _CompanyManager.obj
 0001:00008c10       ?GetPwd@CCompanyManager@@UAG?AV?$CStringT@DV?$StrTraitMFC_DLL@DV?$ChTraitsCRT@D@ATL@@@@@ATL@@XZ 10009c10 f   _CompanyManager.obj
 0001:00008c30       ?GetSamsungAcctCode@CCompanyManager@@QAEHAAVCStringList@@0@Z 10009c30 f   _CompanyManager.obj
 0001:00008c40       ?GetSamsungAcctCodeEx@CCompanyManager@@QAEHAAV?$CList@PAUSTACC_SSDATA@@PAU1@@@H@Z 10009c40 f   _CompanyManager.obj
 0001:00008c50       ?GetSamsungAcctInfo@CCompanyManager@@QAEPBDPBDHH@Z 10009c50 f   _CompanyManager.obj
 0001:00008c60       ?GetSysEdu@CCompanyManager@@UAGHPBDJJP6GXJ0JJ@Z@Z 10009c60 f   _CompanyManager.obj
 0001:00008cb0       ?NewNode@?$CList@PAUSTACC_SSDATA@@PAU1@@@IAEPAUCNode@1@PAU21@0@Z 10009cb0 f i _CompanyManager.obj
 0001:00008d20       ?RemoveSysEdu@CCompanyManager@@UAGXPBDJJP6GXJ0JJ@Z@Z 10009d20 f   _CompanyManager.obj
 0001:00008d30       ??$SerializeElements@VCDMMngInfo@@@@YGXAAVCArchive@@PAVCDMMngInfo@@H@Z 10009d30 f i _DataMonitorManager.obj
 0001:00008dd0       ??0?$CList@VCDMMngInfo@@V1@@@QAE@H@Z 10009dd0 f i _DataMonitorManager.obj
 0001:00008e10       ??0CAUDataMonitorManager@@QAE@XZ 10009e10 f   _DataMonitorManager.obj
 0001:00008e60       ??0CDMMngInfo@@QAE@PBDJJP6GX0JJJJ@Z@Z 10009e60 f   _DataMonitorManager.obj
 0001:00008ed0       ??0CDMMngInfo@@QAE@XZ      10009ed0 f   _DataMonitorManager.obj
 0001:00008f00       ??1?$CList@VCDMMngInfo@@V1@@@UAE@XZ 10009f00 f i _DataMonitorManager.obj
 0001:00008f50       ??1CAUDataMonitorManager@@QAE@XZ 10009f50 f   _DataMonitorManager.obj
 0001:00008fb0       ??1CDMMngInfo@@QAE@XZ      10009fb0 f i _DataMonitorManager.obj
 0001:00008fc0       ??_G?$CList@VCDMMngInfo@@V1@@@UAEPAXI@Z 10009fc0 f i _DataMonitorManager.obj
 0001:00008fc0       ??_E?$CList@VCDMMngInfo@@V1@@@UAEPAXI@Z 10009fc0 f i _DataMonitorManager.obj
 0001:00009050       ?AddTail@?$CList@VCDMMngInfo@@V1@@@QAEPAU__POSITION@@VCDMMngInfo@@@Z 1000a050 f i _DataMonitorManager.obj
 0001:00009150       ?Advise@CAUDataMonitorManager@@UAGJPBDJJP6GX0JJJJ@Z@Z 1000a150 f   _DataMonitorManager.obj
 0001:000091c0       ?ClearListAll@CAUDataMonitorManager@@QAEXXZ 1000a1c0 f   _DataMonitorManager.obj
 0001:000091d0       ?FreeNode@?$CList@VCDMMngInfo@@V1@@@IAEXPAUCNode@1@@Z 1000a1d0 f i _DataMonitorManager.obj
 0001:00009200       ?NewNode@?$CList@VCDMMngInfo@@V1@@@IAEPAUCNode@1@PAU21@0@Z 1000a200 f i _DataMonitorManager.obj
 0001:00009290       ?NotifyData@CAUDataMonitorManager@@UAGXPBDJJ@Z 1000a290 f   _DataMonitorManager.obj
 0001:00009310       ?RemoveAll@?$CList@VCDMMngInfo@@V1@@@QAEXXZ 1000a310 f i _DataMonitorManager.obj
 0001:00009360       ?RemoveAt@?$CList@VCDMMngInfo@@V1@@@QAEXPAU__POSITION@@@Z 1000a360 f i _DataMonitorManager.obj
 0001:000093c0       ?Serialize@?$CList@VCDMMngInfo@@V1@@@UAEXAAVCArchive@@@Z 1000a3c0 f i _DataMonitorManager.obj
 0001:000095d0       ?UnAdvise@CAUDataMonitorManager@@UAGXJ@Z 1000a5d0 f   _DataMonitorManager.obj
 0001:00009630       ??HATL@@YA?AV?$CStringT@DV?$StrTraitMFC_DLL@DV?$ChTraitsCRT@D@ATL@@@@@0@ABV10@0@Z 1000a630 f i _DataUtilManager.obj
 0001:000096b0       ?AddDashToAccount@CDataUtilManager@@UAGXPBDAAV?$CStringT@DV?$StrTraitMFC_DLL@DV?$ChTraitsCRT@D@ATL@@@@@ATL@@@Z 1000a6b0 f   _DataUtilManager.obj
 0001:00009700       ?AdjustMask@CDataUtilManager@@UAG?AV?$CStringT@DV?$StrTraitMFC_DLL@DV?$ChTraitsCRT@D@ATL@@@@@ATL@@V23@0@Z 1000a700 f   _DataUtilManager.obj
 0001:00009a70       ?AdjustMask@CDataUtilManager@@UAG?AV?$CStringT@DV?$StrTraitMFC_DLL@DV?$ChTraitsCRT@D@ATL@@@@@ATL@@V23@H@Z 1000aa70 f   _DataUtilManager.obj
 0001:00009ae0       ?Color2String@CDataUtilManager@@UAG?AV?$CStringT@DV?$StrTraitMFC_DLL@DV?$ChTraitsCRT@D@ATL@@@@@ATL@@K@Z 1000aae0 f   _DataUtilManager.obj
 0001:00009b30       ?ConvertIntToPoint@CDataUtilManager@@UAG?AV?$CStringT@DV?$StrTraitMFC_DLL@DV?$ChTraitsCRT@D@ATL@@@@@ATL@@V23@HH@Z 1000ab30 f   _DataUtilManager.obj
 0001:0000a110       ?ConvertPointToInt@CDataUtilManager@@UAG?AV?$CStringT@DV?$StrTraitMFC_DLL@DV?$ChTraitsCRT@D@ATL@@@@@ATL@@V23@H@Z 1000b110 f   _DataUtilManager.obj
 0001:0000a320       ?DoParsing@CDataUtilManager@@UAGHDPADAAHH0@Z 1000b320 f   _DataUtilManager.obj
 0001:0000a380       ?DoubleToStrComma@CDataUtilManager@@UAG?AV?$CStringT@DV?$StrTraitMFC_DLL@DV?$ChTraitsCRT@D@ATL@@@@@ATL@@NHH@Z 1000b380 f   _DataUtilManager.obj
 0001:0000a4f0       ?GetComma@CDataUtilManager@@UAG?AV?$CStringT@DV?$StrTraitMFC_DLL@DV?$ChTraitsCRT@D@ATL@@@@@ATL@@PBD@Z 1000b4f0 f   _DataUtilManager.obj
 0001:0000a7a0       ?GetFillString@CDataUtilManager@@UAGHAAV?$CStringT@DV?$StrTraitMFC_DLL@DV?$ChTraitsCRT@D@ATL@@@@@ATL@@HHH@Z 1000b7a0 f   _DataUtilManager.obj
 0001:0000a860       ?GetFutureString@CDataUtilManager@@UAG?AV?$CStringT@DV?$StrTraitMFC_DLL@DV?$ChTraitsCRT@D@ATL@@@@@ATL@@V23@H@Z 1000b860 f   _DataUtilManager.obj
 0001:0000ae10       ?GetMakeText@CDataUtilManager@@UAG?AV?$CStringT@DV?$StrTraitMFC_DLL@DV?$ChTraitsCRT@D@ATL@@@@@ATL@@DH@Z 1000be10 f   _DataUtilManager.obj
 0001:0000ae50       ?GetNumber@CDataUtilManager@@UAG?AV?$CStringT@DV?$StrTraitMFC_DLL@DV?$ChTraitsCRT@D@ATL@@@@@ATL@@PBD@Z 1000be50 f   _DataUtilManager.obj
 0001:0000aec0       ?GetOnlyNumber@CDataUtilManager@@UAG?AV?$CStringT@DV?$StrTraitMFC_DLL@DV?$ChTraitsCRT@D@ATL@@@@@ATL@@PBD@Z 1000bec0 f   _DataUtilManager.obj
 0001:0000af10       ?GetRegKey@CDataUtilManager@@UAGHPBD0AAV?$CStringT@DV?$StrTraitMFC_DLL@DV?$ChTraitsCRT@D@ATL@@@@@ATL@@@Z 1000bf10 f   _DataUtilManager.obj
 0001:0000b000       ?GetSignSimbol@CDataUtilManager@@UAG?AV?$CStringT@DV?$StrTraitMFC_DLL@DV?$ChTraitsCRT@D@ATL@@@@@ATL@@H@Z 1000c000 f   _DataUtilManager.obj
 0001:0000b0a0       ?GetString@CDataUtilManager@@UAGHAAV?$CStringT@DV?$StrTraitMFC_DLL@DV?$ChTraitsCRT@D@ATL@@@@@ATL@@0D@Z 1000c0a0 f   _DataUtilManager.obj
 0001:0000b110       ?GetStringData@CDataUtilManager@@UAG?AV?$CStringT@DV?$StrTraitMFC_DLL@DV?$ChTraitsCRT@D@ATL@@@@@ATL@@AAV23@ABV23@_N@Z 1000c110 f   _DataUtilManager.obj
 0001:0000b210       ?GetWord@CDataUtilManager@@UAGXPAD0D@Z 1000c210 f   _DataUtilManager.obj
 0001:0000b270       ?InsertComma@CDataUtilManager@@UAGXAAV?$CStringT@DV?$StrTraitMFC_DLL@DV?$ChTraitsCRT@D@ATL@@@@@ATL@@@Z 1000c270 f   _DataUtilManager.obj
 0001:0000b5d0       ?IntToStrComma@CDataUtilManager@@UAG?AV?$CStringT@DV?$StrTraitMFC_DLL@DV?$ChTraitsCRT@D@ATL@@@@@ATL@@HH@Z 1000c5d0 f   _DataUtilManager.obj
 0001:0000b660       ?IsNumber@CDataUtilManager@@UAGHI@Z 1000c660 f   _DataUtilManager.obj
 0001:0000b680       ?IsOnlyNumber@CDataUtilManager@@UAGHPBD@Z 1000c680 f   _DataUtilManager.obj
 0001:0000b6c0       ?IsSign@CDataUtilManager@@UAGHPBD@Z 1000c6c0 f   _DataUtilManager.obj
 0001:0000b6e0       ?Remove@CDataUtilManager@@UAGHAAV?$CStringT@DV?$StrTraitMFC_DLL@DV?$ChTraitsCRT@D@ATL@@@@@ATL@@DH@Z 1000c6e0 f   _DataUtilManager.obj
 0001:0000b7a0       ?RemoveAll@CDataUtilManager@@UAGHAAV?$CStringT@DV?$StrTraitMFC_DLL@DV?$ChTraitsCRT@D@ATL@@@@@ATL@@D@Z 1000c7a0 f   _DataUtilManager.obj
 0001:0000b830       ?RemoveChar@CDataUtilManager@@UAG?AV?$CStringT@DV?$StrTraitMFC_DLL@DV?$ChTraitsCRT@D@ATL@@@@@ATL@@PBDD@Z 1000c830 f   _DataUtilManager.obj
 0001:0000b870       ?RemoveCharAll@CDataUtilManager@@UAGXAAV?$CStringT@DV?$StrTraitMFC_DLL@DV?$ChTraitsCRT@D@ATL@@@@@ATL@@D@Z 1000c870 f   _DataUtilManager.obj
 0001:0000b8f0       ?RemoveFront@CDataUtilManager@@UAGPADPBDD@Z 1000c8f0 f   _DataUtilManager.obj
 0001:0000b950       ?SetLengthString@CDataUtilManager@@UAG?AV?$CStringT@DV?$StrTraitMFC_DLL@DV?$ChTraitsCRT@D@ATL@@@@@ATL@@PBDH@Z 1000c950 f   _DataUtilManager.obj
 0001:0000b980       ?Str2Boolean@CDataUtilManager@@UAGHAAV?$CStringT@DV?$StrTraitMFC_DLL@DV?$ChTraitsCRT@D@ATL@@@@@ATL@@@Z 1000c980 f   _DataUtilManager.obj
 0001:0000b9d0       ?Str2CommaStr@CDataUtilManager@@UAGHPAD0I@Z 1000c9d0 f   _DataUtilManager.obj
 0001:0000bae0       ?Str2Int@CDataUtilManager@@UAGHAAV?$CStringT@DV?$StrTraitMFC_DLL@DV?$ChTraitsCRT@D@ATL@@@@@ATL@@@Z 1000cae0 f   _DataUtilManager.obj
 0001:0000bb20       ?Str2LogFont@CDataUtilManager@@UAG?AUtagLOGFONTA@@AAV?$CStringT@DV?$StrTraitMFC_DLL@DV?$ChTraitsCRT@D@ATL@@@@@ATL@@@Z 1000cb20 f   _DataUtilManager.obj
 0001:0000bc40       ?Str2Long@CDataUtilManager@@UAGJAAV?$CStringT@DV?$StrTraitMFC_DLL@DV?$ChTraitsCRT@D@ATL@@@@@ATL@@@Z 1000cc40 f   _DataUtilManager.obj
 0001:0000bc80       ?Str2RGBColor@CDataUtilManager@@UAGKAAV?$CStringT@DV?$StrTraitMFC_DLL@DV?$ChTraitsCRT@D@ATL@@@@@ATL@@@Z 1000cc80 f   _DataUtilManager.obj
 0001:0000bcc0       ?Str2RGBColor@CDataUtilManager@@UAGKPAD@Z 1000ccc0 f   _DataUtilManager.obj
 0001:0000bd00       ?Str2Rect@CDataUtilManager@@UAG?AVCRect@@AAV?$CStringT@DV?$StrTraitMFC_DLL@DV?$ChTraitsCRT@D@ATL@@@@@ATL@@@Z 1000cd00 f   _DataUtilManager.obj
 0001:0000bd60       ?Str2Size@CDataUtilManager@@UAG?AVCSize@@AAV?$CStringT@DV?$StrTraitMFC_DLL@DV?$ChTraitsCRT@D@ATL@@@@@ATL@@@Z 1000cd60 f   _DataUtilManager.obj
 0001:0000bdc0       ?StrToStrComma@CDataUtilManager@@UAGXPBDAAV?$CStringT@DV?$StrTraitMFC_DLL@DV?$ChTraitsCRT@D@ATL@@@@@ATL@@@Z 1000cdc0 f   _DataUtilManager.obj
 0001:0000bee0       ?String2Olechar@CDataUtilManager@@UAGXPBDAA_WH@Z 1000cee0 f   _DataUtilManager.obj
 0001:0000bf00       ?TrimRight@CDataUtilManager@@UAGXPAD@Z 1000cf00 f   _DataUtilManager.obj
 0001:0000bf60       ?ValidNumber@CDataUtilManager@@UAGHPBD@Z 1000cf60 f   _DataUtilManager.obj
 0001:0000c0b0       ?chars_atof@CDataUtilManager@@UAGNPADI@Z 1000d0b0 f   _DataUtilManager.obj
 0001:0000c110       ?chars_atoi@CDataUtilManager@@UAGHPADI@Z 1000d110 f   _DataUtilManager.obj
 0001:0000c170       ??0CDebugManager@@QAE@XZ   1000d170 f   _DebugManager.obj
 0001:0000c180       ??1CDebugManager@@QAE@XZ   1000d180 f   _DebugManager.obj
 0001:0000c1e0       ?DoMessageToCompDataWnd@CDebugManager@@QAEHEEPBDKPAE@Z 1000d1e0 f   _DebugManager.obj
 0001:0000c1f0       ?DoMessageToDebugWnd@CDebugManager@@QAEXEEPBDKPAE@Z 1000d1f0 f   _DebugManager.obj
 0001:0000c200       ?GetDRDebuger@CDebugManager@@UAGJXZ 1000d200 f   _DebugManager.obj
 0001:0000c430       ?LoadLib@CDRDebugerLoader@@QAEPAUHINSTANCE__@@XZ 1000d430 f i _DebugManager.obj
 0001:0000c4d0       ?ShowOutputDebugString@CDebugManager@@UAAXPBDZZ 1000d4d0 f   _DebugManager.obj
 0001:0000c550       ?Trace@CDebugManager@@UAAXHPBDZZ 1000d550 f   _DebugManager.obj
 0001:0000c560       ?Trace@CDebugManager@@UAAXPBDZZ 1000d560 f   _DebugManager.obj
 0001:0000c620       ?TraceCompData@CDebugManager@@UAGHEPBDKPAE@Z 1000d620 f   _DebugManager.obj
 0001:0000c630       ?TraceEx@CDebugManager@@UAGXEEPBDKPAE@Z 1000d630 f   _DebugManager.obj
 0001:0000c640       ?TraceReal@CDebugManager@@UAGXPBDKPAE@Z 1000d640 f   _DebugManager.obj
 0001:0000c690       ?TraceSR@CDebugManager@@UAGXEEPBDPAUHWND__@@G@Z 1000d690 f   _DebugManager.obj
 0001:0000c6a0       ?TraceTran@CDebugManager@@UAGXEPBDKPAE@Z 1000d6a0 f   _DebugManager.obj
 0001:0000c720       ?WriteLogFile@CDebugManager@@UAGXPAXHPBDH1@Z 1000d720 f   _DebugManager.obj
 0001:0000c7a0       ??$SerializeElements@PAUIDrdsLib@@@@YGXAAVCArchive@@PAPAUIDrdsLib@@H@Z 1000d7a0 f i _DrdsManager.obj
 0001:0000c850       ??0?$CList@PAUIDrdsLib@@PAU1@@@QAE@H@Z 1000d850 f i _DrdsManager.obj
 0001:0000c890       ??0CAUDrdsManager@@QAE@XZ  1000d890 f   _DrdsManager.obj
 0001:0000c8e0       ??0CDrdsLib@@QAE@XZ        1000d8e0 f   _DrdsManager.obj
 0001:0000c900       ??1?$CList@PAUIDrdsLib@@PAU1@@@UAE@XZ 1000d900 f i _DrdsManager.obj
 0001:0000c970       ??1CAUDrdsManager@@QAE@XZ  1000d970 f   _DrdsManager.obj
 0001:0000c9f0       ??1CDrdsLib@@QAE@XZ        1000d9f0 f   _DrdsManager.obj
 0001:0000ca00       ??_G?$CList@PAUIDrdsLib@@PAU1@@@UAEPAXI@Z 1000da00 f i _DrdsManager.obj
 0001:0000ca00       ??_E?$CList@PAUIDrdsLib@@PAU1@@@UAEPAXI@Z 1000da00 f i _DrdsManager.obj
 0001:0000cab0       ?AddTail@?$CList@PAUIDrdsLib@@PAU1@@@QAEPAU__POSITION@@PAUIDrdsLib@@@Z 1000dab0 f i _DrdsManager.obj
 0001:0000cb40       ?AdviseDrdsLib@CAUDrdsManager@@UAGPAUIDrdsLib@@XZ 1000db40 f   _DrdsManager.obj
 0001:0000cb70       ?AdviseRealCodeData@CDrdsLib@@UAGHHHPAD0@Z 1000db70 f   _DrdsManager.obj
 0001:0000cb80       ?ConvertToRealStruct@CDrdsLib@@UAGHIJPADH@Z 1000db80 f   _DrdsManager.obj
 0001:0000cb90       ?DrdsAdvise@CDrdsLib@@UAGHIPAD00@Z 1000db90 f   _DrdsManager.obj
 0001:0000cc70       ?DrdsAdviseEx@CDrdsLib@@UAGHHPAUHWND__@@IPAD111@Z 1000dc70 f   _DrdsManager.obj
 0001:0000cc80       ?DrdsClose@CDrdsLib@@UAGHPAD@Z 1000dc80 f   _DrdsManager.obj
 0001:0000cc90       ?DrdsConnect@CDrdsLib@@UAGHPAD@Z 1000dc90 f   _DrdsManager.obj
 0001:0000cca0       ?DrdsInit@CDrdsLib@@UAGPAXPAUHWND__@@@Z 1000dca0 f   _DrdsManager.obj
 0001:0000ccc0       ?DrdsPropertySet@CDrdsLib@@UAGXXZ 1000dcc0 f   _DrdsManager.obj
 0001:0000ccd0       ?DrdsRequest@CDrdsLib@@UAGHPAXPAUHWND__@@IPAD22@Z 1000dcd0 f   _DrdsManager.obj
 0001:0000cce0       ?DrdsSendCode@CDrdsLib@@UAGXXZ 1000dce0 f   _DrdsManager.obj
 0001:0000ccf0       ?DrdsSetFlag@CDrdsLib@@UAGX_N@Z 1000dcf0 f   _DrdsManager.obj
 0001:0000cd00       ?DrdsSetSocketHandle@CDrdsLib@@UAGHPAUHWND__@@@Z 1000dd00 f   _DrdsManager.obj
 0001:0000cd10       ?DrdsTerm@CDrdsLib@@UAGHXZ 1000dd10 f   _DrdsManager.obj
 0001:0000cd20       ?DrdsTraceOff@CDrdsLib@@UAGXXZ 1000dd20 f   _DrdsManager.obj
 0001:0000cd30       ?DrdsTraceOn@CDrdsLib@@UAGXXZ 1000dd30 f   _DrdsManager.obj
 0001:0000cd40       ?DrdsUnadvise@CDrdsLib@@UAGHIPAD00@Z 1000dd40 f   _DrdsManager.obj
 0001:0000ce20       ?DrdsUnadviseEx@CDrdsLib@@UAGHHPAUHWND__@@IPAD111@Z 1000de20 f   _DrdsManager.obj
 0001:0000ce30       ?Drds_GetInterface@CDrdsLib@@UAGJI@Z 1000de30 f   _DrdsManager.obj
 0001:0000ce40       ?Drds_OpenSignalMng@CDrdsLib@@UAGHPADJ@Z 1000de40 f   _DrdsManager.obj
 0001:0000ce50       ?Drds_SetInterface@CDrdsLib@@UAGHIJ@Z 1000de50 f   _DrdsManager.obj
 0001:0000ce60       ?Drds_SignalMng_SetNewRealData@CDrdsLib@@UAGHPADHHH@Z 1000de60 f   _DrdsManager.obj
 0001:0000ce70       ?GetRealStructData@CDrdsLib@@UAGHIJAAPADAAH@Z 1000de70 f   _DrdsManager.obj
 0001:0000ce80       ?NewNode@?$CList@PAUIDrdsLib@@PAU1@@@IAEPAUCNode@1@PAU21@0@Z 1000de80 f i _DrdsManager.obj
 0001:0000cef0       ?RemoveAll@?$CList@PAUIDrdsLib@@PAU1@@@QAEXXZ 1000def0 f i _DrdsManager.obj
 0001:0000cf20       ?Serialize@?$CList@PAUIDrdsLib@@PAU1@@@UAEXAAVCArchive@@@Z 1000df20 f i _DrdsManager.obj
 0001:0000d130       ?SetNewRealData@CDrdsLib@@UAGHPADHHH@Z 1000e130 f   _DrdsManager.obj
 0001:0000d140       ?SetUserDefData@CDrdsLib@@UAGHPAD0@Z 1000e140 f   _DrdsManager.obj
 0001:0000d150       ?UDPCreate2@CDrdsLib@@UAGXPAD0@Z 1000e150 f   _DrdsManager.obj
 0001:0000d160       ?UDPCreate@CDrdsLib@@UAGXXZ 1000e160 f   _DrdsManager.obj
 0001:0000d170       ?UDPDestroy@CDrdsLib@@UAGXXZ 1000e170 f   _DrdsManager.obj
 0001:0000d180       ?UdpCreate3@CDrdsLib@@UAGXPAD@Z 1000e180 f   _DrdsManager.obj
 0001:0000d190       ?UnadviseDrdsLib@CAUDrdsManager@@UAGXPAUIDrdsLib@@@Z 1000e190 f   _DrdsManager.obj
 0001:0000d1b0       ?GetInterface@CGateManager@@UAGJHJ@Z 1000e1b0 f   _GateManager.obj
 0001:0000d390       ??$SerializeElements@PAUST_FOR_UserData@@@@YGXAAVCArchive@@PAPAUST_FOR_UserData@@H@Z 1000e390 f i _MainExInfoManager.obj
 0001:0000d440       ??$SerializeElements@UTR_CODEINFOEX@@@@YGXAAVCArchive@@PAUTR_CODEINFOEX@@H@Z 1000e440 f i _MainExInfoManager.obj
 0001:0000d4e0       ??0?$CList@PAUST_FOR_UserData@@PAU1@@@QAE@H@Z 1000e4e0 f i _MainExInfoManager.obj
 0001:0000d520       ??0?$CList@UTR_CODEINFOEX@@U1@@@QAE@H@Z 1000e520 f i _MainExInfoManager.obj
 0001:0000d560       ??0CMainExInfoManager@@QAE@XZ 1000e560 f   _MainExInfoManager.obj
 0001:0000d6f0       ??1?$CList@PAUST_FOR_UserData@@PAU1@@@UAE@XZ 1000e6f0 f i _MainExInfoManager.obj
 0001:0000d760       ??1?$CList@UTR_CODEINFOEX@@U1@@@UAE@XZ 1000e760 f i _MainExInfoManager.obj
 0001:0000d7d0       ??1CCriticalSection@@UAE@XZ 1000e7d0 f i _MainExInfoManager.obj
 0001:0000d7f0       ??1CMainExInfoManager@@QAE@XZ 1000e7f0 f   _MainExInfoManager.obj
 0001:0000d8e0       ??_G?$CList@PAUST_FOR_UserData@@PAU1@@@UAEPAXI@Z 1000e8e0 f i _MainExInfoManager.obj
 0001:0000d8e0       ??_E?$CList@PAUST_FOR_UserData@@PAU1@@@UAEPAXI@Z 1000e8e0 f i _MainExInfoManager.obj
 0001:0000d990       ??_G?$CList@UTR_CODEINFOEX@@U1@@@UAEPAXI@Z 1000e990 f i _MainExInfoManager.obj
 0001:0000d990       ??_E?$CList@UTR_CODEINFOEX@@U1@@@UAEPAXI@Z 1000e990 f i _MainExInfoManager.obj
 0001:0000da40       ??_GCCriticalSection@@UAEPAXI@Z 1000ea40 f i _MainExInfoManager.obj
 0001:0000da40       ??_ECCriticalSection@@UAEPAXI@Z 1000ea40 f i _MainExInfoManager.obj
 0001:0000da90       ?AddTail@?$CList@PAUST_FOR_UserData@@PAU1@@@QAEPAU__POSITION@@PAUST_FOR_UserData@@@Z 1000ea90 f i _MainExInfoManager.obj
 0001:0000db20       ?AddTail@?$CList@UTR_CODEINFOEX@@U1@@@QAEPAU__POSITION@@UTR_CODEINFOEX@@@Z 1000eb20 f i _MainExInfoManager.obj
 0001:0000dbd0       ?AtlThrowImpl@ATL@@YGXJ@Z  1000ebd0 f i _MainExInfoManager.obj
 0001:0000dbf0       ?CheckAutoDelete@CMainExInfoManager@@QAEXXZ 1000ebf0 f   _MainExInfoManager.obj
 0001:0000dc80       ?DeleteData@CMainExInfoManager@@QAEXH@Z 1000ec80 f   _MainExInfoManager.obj
 0001:0000dcd0       ?DeleteImsiGroup@CMainExInfoManager@@QAEXJ@Z 1000ecd0 f   _MainExInfoManager.obj
 0001:0000dd20       ?DeleteUserExData@CMainExInfoManager@@UAGHJ@Z 1000ed20 f   _MainExInfoManager.obj
 0001:0000dd40       ?FreeNode@?$CList@PAUST_FOR_UserData@@PAU1@@@IAEXPAUCNode@1@@Z 1000ed40 f i _MainExInfoManager.obj
 0001:0000dd90       ?GetData@CMainExInfoManager@@UAGPAVCOleVariant@@H@Z 1000ed90 f   _MainExInfoManager.obj
 0001:0000ddc0       ?GetData@CMainExInfoManager@@UAGPAVCOleVariant@@PBD@Z 1000edc0 f   _MainExInfoManager.obj
 0001:0000dde0       ?GetUserData@CMainExInfoManager@@UAGPAU__POSITION@@PBDPAPAEAAH@Z 1000ede0 f   _MainExInfoManager.obj
 0001:0000dfc0       ?GetUserExData@CMainExInfoManager@@UAGJJ@Z 1000efc0 f   _MainExInfoManager.obj
 0001:0000dfe0       ?GetUserStringData@CMainExInfoManager@@UAGHPBDAAV?$CStringT@DV?$StrTraitMFC_DLL@DV?$ChTraitsCRT@D@ATL@@@@@ATL@@@Z 1000efe0 f   _MainExInfoManager.obj
 0001:0000e000       ?IsGetUserExData@CMainExInfoManager@@UAGHJ@Z 1000f000 f   _MainExInfoManager.obj
 0001:0000e020       ?Lock@CCriticalSection@@UAEHK@Z 1000f020 f i _MainExInfoManager.obj
 0001:0000e040       ?NewNode@?$CList@PAUST_FOR_UserData@@PAU1@@@IAEPAUCNode@1@PAU21@0@Z 1000f040 f i _MainExInfoManager.obj
 0001:0000e0b0       ?NewNode@?$CList@UTR_CODEINFOEX@@U1@@@IAEPAUCNode@1@PAU21@0@Z 1000f0b0 f i _MainExInfoManager.obj
 0001:0000e120       ?PreUnLoad@CMainExInfoManager@@QAEXXZ 1000f120 f   _MainExInfoManager.obj
 0001:0000e130       ?RemoveAll@?$CList@PAUST_FOR_UserData@@PAU1@@@QAEXXZ 1000f130 f i _MainExInfoManager.obj
 0001:0000e160       ?RemoveAll@?$CList@UTR_CODEINFOEX@@U1@@@QAEXXZ 1000f160 f i _MainExInfoManager.obj
 0001:0000e190       ?RemoveAt@?$CList@PAUST_FOR_UserData@@PAU1@@@QAEXPAU__POSITION@@@Z 1000f190 f i _MainExInfoManager.obj
 0001:0000e200       ?SaveImgiGroup@CMainExInfoManager@@QAEPAXJ@Z 1000f200 f   _MainExInfoManager.obj
 0001:0000e2a0       ?Serialize@?$CList@PAUST_FOR_UserData@@PAU1@@@UAEXAAVCArchive@@@Z 1000f2a0 f i _MainExInfoManager.obj
 0001:0000e430       ?Serialize@?$CList@UTR_CODEINFOEX@@U1@@@UAEXAAVCArchive@@@Z 1000f430 f i _MainExInfoManager.obj
 0001:0000e5f0       ?SetData@CMainExInfoManager@@UAGHHPBVCOleVariant@@@Z 1000f5f0 f   _MainExInfoManager.obj
 0001:0000e770       ?SetData@CMainExInfoManager@@UAGHPBDPBVCOleVariant@@@Z 1000f770 f   _MainExInfoManager.obj
 0001:0000e7b0       ?SetUserData@CMainExInfoManager@@UAGHPBDJH@Z 1000f7b0 f   _MainExInfoManager.obj
 0001:0000e9d0       ?SetUserExData@CMainExInfoManager@@UAGHJJ@Z 1000f9d0 f   _MainExInfoManager.obj
 0001:0000e9f0       ?SetUserStringData@CMainExInfoManager@@UAGHPBDPAD@Z 1000f9f0 f   _MainExInfoManager.obj
 0001:0000ea20       ?Unlock@CCriticalSection@@UAEHXZ 1000fa20 f i _MainExInfoManager.obj
 0001:0000ea30       ?Unlock@CSyncObject@@UAEHJPAJ@Z 1000fa30 f i _MainExInfoManager.obj
 0001:0000ea40       ?_DoGetUserData@CMainExInfoManager@@QAE_NPBDPAPAEAAH@Z 1000fa40 f   _MainExInfoManager.obj
 0001:0000eba0       ?_DoSaveUserData@CMainExInfoManager@@QAE_NPBDPAEH@Z 1000fba0 f   _MainExInfoManager.obj
 0001:0000ec60       ?fnClearAll@CMainExInfoManager@@QAEXXZ 1000fc60 f   _MainExInfoManager.obj
 0001:0000ee10       ??0CMainInfoManager@@QAE@XZ 1000fe10 f   _MainInfoManager.obj
 0001:0000ee90       ??1CMainInfoManager@@QAE@XZ 1000fe90 f   _MainInfoManager.obj
 0001:0000ef10       ?FreeEnvironmentStringsA@CMainInfoManager@@UAGHPAD@Z 1000ff10 f   _MainInfoManager.obj
 0001:0000ef30       ?GetAccountName@CMainInfoManager@@UAG?AV?$CStringT@DV?$StrTraitMFC_DLL@DV?$ChTraitsCRT@D@ATL@@@@@ATL@@PAD@Z 1000ff30 f   _MainInfoManager.obj
 0001:0000ef70       ?GetAccountPass@CMainInfoManager@@UAG?AV?$CStringT@DV?$StrTraitMFC_DLL@DV?$ChTraitsCRT@D@ATL@@@@@ATL@@PAD@Z 1000ff70 f   _MainInfoManager.obj
 0001:0000efb0       ?GetCountOfAccount@CMainInfoManager@@UAGHXZ 1000ffb0 f   _MainInfoManager.obj
 0001:0000efc0       ?GetDataDir@CMainInfoManager@@UAGPBDXZ 1000ffc0 f   _MainInfoManager.obj
 0001:0000efe0       ?GetDataString@CMainInfoManager@@UAGPBDH@Z 1000ffe0 f   _MainInfoManager.obj
 0001:0000f010       ?GetEncUserDir@CMainInfoManager@@UAGPBDPBD@Z 10010010 f   _MainInfoManager.obj
 0001:0000f0b0       ?GetEncUserID@CMainInfoManager@@UAGPBDXZ 100100b0 f   _MainInfoManager.obj
 0001:0000f0c0       ?GetEnvironmentStrings@CMainInfoManager@@UAGKAAVCStringList@@@Z 100100c0 f   _MainInfoManager.obj
 0001:0000f140       ?GetEnvironmentVariableA@CMainInfoManager@@UAGKPBDAAV?$CStringT@DV?$StrTraitMFC_DLL@DV?$ChTraitsCRT@D@ATL@@@@@ATL@@@Z 10010140 f   _MainInfoManager.obj
 0001:0000f170       ?GetHtsMode@CMainInfoManager@@UAGHXZ 10010170 f   _MainInfoManager.obj
 0001:0000f1f0       ?GetLoginInfo@CMainInfoManager@@UAG?AV?$CStringT@DV?$StrTraitMFC_DLL@DV?$ChTraitsCRT@D@ATL@@@@@ATL@@PBD@Z 100101f0 f   _MainInfoManager.obj
 0001:0000f220       ?GetLoginPass@CMainInfoManager@@UAG?AV?$CStringT@DV?$StrTraitMFC_DLL@DV?$ChTraitsCRT@D@ATL@@@@@ATL@@XZ 10010220 f   _MainInfoManager.obj
 0001:0000f260       ?GetRootDir@CMainInfoManager@@UAGPBDXZ 10010260 f   _MainInfoManager.obj
 0001:0000f280       ?GetUserAccount@CMainInfoManager@@UAGHAAVCStringArray@@@Z 10010280 f   _MainInfoManager.obj
 0001:0000f3d0       ?GetUserID@CMainInfoManager@@UAGPBDXZ 100103d0 f   _MainInfoManager.obj
 0001:0000f4e0       ?HashDataAXIS@CMainInfoManager@@QAGIPBD@Z 100104e0 f   _MainInfoManager.obj
 0001:0000f510       ?IniToEnvironmentTable@CMainInfoManager@@UAGHPBD0@Z 10010510 f   _MainInfoManager.obj
 0001:0000f5f0       ?SetDataString@CMainInfoManager@@UAGHHPBD@Z 100105f0 f   _MainInfoManager.obj
 0001:0000f630       ?SetEnvironmentVariableA@CMainInfoManager@@UAGHPBD0@Z 10010630 f   _MainInfoManager.obj
 0001:0000f6b0       ??$CompareElements@V?$CStringT@DV?$StrTraitMFC_DLL@DV?$ChTraitsCRT@D@ATL@@@@@ATL@@PBD@@YGHPBV?$CStringT@DV?$StrTraitMFC_DLL@DV?$ChTraitsCRT@D@ATL@@@@@ATL@@PBQBD@Z 100106b0 f i _MasterDataManager.obj
 0001:0000f6e0       ??$SerializeElements@H@@YGXAAVCArchive@@PAHH@Z 100106e0 f i _MasterDataManager.obj
 0001:0000f790       ??$SerializeElements@PAUST_STRINGBYTE@@@@YGXAAVCArchive@@PAPAUST_STRINGBYTE@@H@Z 10010790 f i _MasterDataManager.obj
 0001:0000f840       ??$SerializeElements@PAUST_STRINGSTRING@@@@YGXAAVCArchive@@PAPAUST_STRINGSTRING@@H@Z 10010840 f i _MasterDataManager.obj
 0001:0000f8f0       ??$SerializeElements@PAVCMDM_SubItemA@@@@YGXAAVCArchive@@PAPAVCMDM_SubItemA@@H@Z 100108f0 f i _MasterDataManager.obj
 0001:0000f9a0       ??0?$CList@PAUST_STRINGBYTE@@PAU1@@@QAE@H@Z 100109a0 f i _MasterDataManager.obj
 0001:0000f9e0       ??0?$CList@PAUST_STRINGSTRING@@PAU1@@@QAE@H@Z 100109e0 f i _MasterDataManager.obj
 0001:0000fa20       ??0?$CList@PAVCMDM_SubItemA@@PAV1@@@QAE@H@Z 10010a20 f i _MasterDataManager.obj
 0001:0000fa60       ??0?$CMap@V?$CStringT@DV?$StrTraitMFC_DLL@DV?$ChTraitsCRT@D@ATL@@@@@ATL@@PBDHH@@QAE@H@Z 10010a60 f i _MasterDataManager.obj
 0001:0000faa0       ??0CMasterDataManager@@QAE@XZ 10010aa0 f   _MasterDataManager.obj
 0001:0000fc10       ??1?$CList@PAUST_STRINGBYTE@@PAU1@@@UAE@XZ 10010c10 f i _MasterDataManager.obj
 0001:0000fc80       ??1?$CList@PAUST_STRINGSTRING@@PAU1@@@UAE@XZ 10010c80 f i _MasterDataManager.obj
 0001:0000fcf0       ??1?$CList@PAVCMDM_SubItemA@@PAV1@@@UAE@XZ 10010cf0 f i _MasterDataManager.obj
 0001:0000fd60       ??1?$CMap@V?$CStringT@DV?$StrTraitMFC_DLL@DV?$ChTraitsCRT@D@ATL@@@@@ATL@@PBDHH@@UAE@XZ 10010d60 f i _MasterDataManager.obj
 0001:0000fe10       ??1CMasterDataManager@@QAE@XZ 10010e10 f   _MasterDataManager.obj
 0001:0000ffc0       ??8ATL@@YA_NABV?$CStringT@DV?$StrTraitMFC_DLL@DV?$ChTraitsCRT@D@ATL@@@@@0@D@Z 10010fc0 f i _MasterDataManager.obj
 0001:0000fff0       ??A?$CMap@V?$CStringT@DV?$StrTraitMFC_DLL@DV?$ChTraitsCRT@D@ATL@@@@@ATL@@PBDHH@@QAEAAHPBD@Z 10010ff0 f i _MasterDataManager.obj
 0001:00010100       ??_E?$CList@PAUST_STRINGBYTE@@PAU1@@@UAEPAXI@Z 10011100 f i _MasterDataManager.obj
 0001:00010100       ??_G?$CList@PAUST_STRINGBYTE@@PAU1@@@UAEPAXI@Z 10011100 f i _MasterDataManager.obj
 0001:000101b0       ??_E?$CList@PAUST_STRINGSTRING@@PAU1@@@UAEPAXI@Z 100111b0 f i _MasterDataManager.obj
 0001:000101b0       ??_G?$CList@PAUST_STRINGSTRING@@PAU1@@@UAEPAXI@Z 100111b0 f i _MasterDataManager.obj
 0001:00010260       ??_G?$CList@PAVCMDM_SubItemA@@PAV1@@@UAEPAXI@Z 10011260 f i _MasterDataManager.obj
 0001:00010260       ??_E?$CList@PAVCMDM_SubItemA@@PAV1@@@UAEPAXI@Z 10011260 f i _MasterDataManager.obj
 0001:00010310       ??_E?$CMap@V?$CStringT@DV?$StrTraitMFC_DLL@DV?$ChTraitsCRT@D@ATL@@@@@ATL@@PBDHH@@UAEPAXI@Z 10011310 f i _MasterDataManager.obj
 0001:00010310       ??_G?$CMap@V?$CStringT@DV?$StrTraitMFC_DLL@DV?$ChTraitsCRT@D@ATL@@@@@ATL@@PBDHH@@UAEPAXI@Z 10011310 f i _MasterDataManager.obj
 0001:00010350       ?AddHead@?$CList@PAUST_STRINGBYTE@@PAU1@@@QAEPAU__POSITION@@PAUST_STRINGBYTE@@@Z 10011350 f i _MasterDataManager.obj
 0001:00010390       ?AddHead@?$CList@PAUST_STRINGSTRING@@PAU1@@@QAEPAU__POSITION@@PAUST_STRINGSTRING@@@Z 10011390 f i _MasterDataManager.obj
 0001:000103d0       ?AddTail@?$CList@PAUST_STRINGBYTE@@PAU1@@@QAEPAU__POSITION@@PAUST_STRINGBYTE@@@Z 100113d0 f i _MasterDataManager.obj
 0001:00010410       ?AddTail@?$CList@PAUST_STRINGSTRING@@PAU1@@@QAEPAU__POSITION@@PAUST_STRINGSTRING@@@Z 10011410 f i _MasterDataManager.obj
 0001:00010450       ?AddTail@?$CList@PAVCMDM_SubItemA@@PAV1@@@QAEPAU__POSITION@@PAVCMDM_SubItemA@@@Z 10011450 f i _MasterDataManager.obj
 0001:000104e0       ?ClearListSTRINGBYTE@CMasterDataManager@@IAEXPAV?$CList@PAUST_STRINGBYTE@@PAU1@@@@Z 100114e0 f   _MasterDataManager.obj
 0001:00010550       ?ClearListSTRINGSTRING@CMasterDataManager@@IAEXPAV?$CList@PAUST_STRINGSTRING@@PAU1@@@@Z 10011550 f   _MasterDataManager.obj
 0001:000105c0       ?FreeNode@?$CList@PAUST_STRINGBYTE@@PAU1@@@IAEXPAUCNode@1@@Z 100115c0 f i _MasterDataManager.obj
 0001:00010610       ?FreeNode@?$CList@PAUST_STRINGSTRING@@PAU1@@@IAEXPAUCNode@1@@Z 10011610 f i _MasterDataManager.obj
 0001:00010660       ?GetAllStock@CMasterDataManager@@UAGHAAVCStringArray@@0@Z 10011660 f   _MasterDataManager.obj
 0001:00010740       ?GetAssocAt@?$CMap@V?$CStringT@DV?$StrTraitMFC_DLL@DV?$ChTraitsCRT@D@ATL@@@@@ATL@@PBDHH@@IBEPAVCAssoc@1@PBDAAI1@Z 10011740 f i _MasterDataManager.obj
 0001:000107a0       ?GetBaseCodeTable@CMasterDataManager@@UAGJXZ 100117a0 f   _MasterDataManager.obj
 0001:000107b0       ?GetCodeInfo@CMasterDataManager@@UAG?AV?$CStringT@DV?$StrTraitMFC_DLL@DV?$ChTraitsCRT@D@ATL@@@@@ATL@@PBDF0@Z 100117b0 f   _MasterDataManager.obj
 0001:00010860       ?GetCodeMasterHWND@CMasterDataManager@@QAEPAUHWND__@@XZ 10011860 f   _MasterDataManager.obj
 0001:000108a0       ?GetCodeName@CMasterDataManager@@UAG?AV?$CStringT@DV?$StrTraitMFC_DLL@DV?$ChTraitsCRT@D@ATL@@@@@ATL@@PBD@Z 100118a0 f   _MasterDataManager.obj
 0001:00010c00       ?GetCodePointer@CMasterDataManager@@UAGJPBD@Z 10011c00 f   _MasterDataManager.obj
 0001:00010c10       ?GetCodeTypeFromCode@CMasterDataManager@@UAGEPBD@Z 10011c10 f   _MasterDataManager.obj
 0001:000111d0       ?GetELWIndexCode@CMasterDataManager@@UAGHV?$CStringT@DV?$StrTraitMFC_DLL@DV?$ChTraitsCRT@D@ATL@@@@@ATL@@AAV23@1@Z 100121d0 f   _MasterDataManager.obj
 0001:00011200       ?GetELWIndexMaster@CMasterDataManager@@UAGHAAVCStringArray@@0@Z 10012200 f   _MasterDataManager.obj
 0001:000112e0       ?GetELWIssueMaster@CMasterDataManager@@UAGHAAVCStringArray@@0@Z 100122e0 f   _MasterDataManager.obj
 0001:000113c0       ?GetELWMst@CMasterDataManager@@UAGHAAPAVCStringArray@@0@Z 100123c0 f   _MasterDataManager.obj
 0001:000113d0       ?GetETNMst@CMasterDataManager@@UAGHAAPAVCStringArray@@00H@Z 100123d0 f   _MasterDataManager.obj
 0001:000114b0       ?GetFREEUpMst@CMasterDataManager@@UAGHAAPAVCStringArray@@00H@Z 100124b0 f   _MasterDataManager.obj
 0001:000115a0       ?GetFRMst@CMasterDataManager@@UAGHAAPAVCStringArray@@0@Z 100125a0 f   _MasterDataManager.obj
 0001:000115b0       ?GetFRNationMst@CMasterDataManager@@UAGHAAPAVCStringArray@@0@Z 100125b0 f   _MasterDataManager.obj
 0001:000115c0       ?GetFXMst@CMasterDataManager@@UAGHAAPAVCStringArray@@0@Z 100125c0 f   _MasterDataManager.obj
 0001:000116a0       ?GetForeignMst@CMasterDataManager@@UAGHHV?$CStringT@DV?$StrTraitMFC_DLL@DV?$ChTraitsCRT@D@ATL@@@@@ATL@@AAPAVCStringArray@@11@Z 100126a0 f   _MasterDataManager.obj
 0001:000117c0       ?GetFutureJongMst@CMasterDataManager@@UAGHAAPAVCStringArray@@00@Z 100127c0 f   _MasterDataManager.obj
 0001:000118c0       ?GetGlobalDataTypeList@CMasterDataManager@@UAGJXZ 100128c0 f   _MasterDataManager.obj
 0001:000118d0       ?GetGroupMst@CMasterDataManager@@UAGHAAPAVCStringArray@@0H@Z 100128d0 f   _MasterDataManager.obj
 0001:000119b0       ?GetHWND@CMasterDataManager@@QAEPAUHWND__@@XZ 100129b0 f   _MasterDataManager.obj
 0001:000119e0       ?GetHistoryList@CMasterDataManager@@UAG?AV?$CStringT@DV?$StrTraitMFC_DLL@DV?$ChTraitsCRT@D@ATL@@@@@ATL@@FJ@Z 100129e0 f   _MasterDataManager.obj
 0001:00011a00       ?GetItemExpCode@CMasterDataManager@@UAG?AV?$CStringT@DV?$StrTraitMFC_DLL@DV?$ChTraitsCRT@D@ATL@@@@@ATL@@PBD@Z 10012a00 f   _MasterDataManager.obj
 0001:00011a20       ?GetJFMaster@CMasterDataManager@@UAGHAAVCStringArray@@0@Z 10012a20 f   _MasterDataManager.obj
 0001:00011b00       ?GetJPMaster@CMasterDataManager@@UAGHAAVCStringArray@@0@Z 10012b00 f   _MasterDataManager.obj
 0001:00011be0       ?GetK100UpMst@CMasterDataManager@@UAGHAAPAVCStringArray@@00@Z 10012be0 f   _MasterDataManager.obj
 0001:00011cc0       ?GetK200UpMst@CMasterDataManager@@UAGHAAPAVCStringArray@@00@Z 10012cc0 f   _MasterDataManager.obj
 0001:00011da0       ?GetKNXUpMst@CMasterDataManager@@UAGHAAPAVCStringArray@@00H@Z 10012da0 f   _MasterDataManager.obj
 0001:00011e90       ?GetKRXUpMst@CMasterDataManager@@UAGHAAPAVCStringArray@@00H@Z 10012e90 f   _MasterDataManager.obj
 0001:00011f80       ?GetKSPUpMst@CMasterDataManager@@UAGHAAPAVCStringArray@@00H@Z 10012f80 f   _MasterDataManager.obj
 0001:00012070       ?GetKSQUpMst@CMasterDataManager@@UAGHAAPAVCStringArray@@00H@Z 10013070 f   _MasterDataManager.obj
 0001:00012160       ?GetKSTRUpMst@CMasterDataManager@@UAGHAAPAVCStringArray@@00@Z 10013160 f   _MasterDataManager.obj
 0001:00012240       ?GetLastCode@CMasterDataManager@@UAG?AV?$CStringT@DV?$StrTraitMFC_DLL@DV?$ChTraitsCRT@D@ATL@@@@@ATL@@V23@@Z 10013240 f   _MasterDataManager.obj
 0001:00012290       ?GetMarketTypeFromCode@CMasterDataManager@@UAGEPBD@Z 10013290 f   _MasterDataManager.obj
 0001:00012850       ?GetMasterDataInUpDetails@CMasterDataManager@@UAGHV?$CStringT@DV?$StrTraitMFC_DLL@DV?$ChTraitsCRT@D@ATL@@@@@ATL@@AAVCStringArray@@10@Z 10013850 f   _MasterDataManager.obj
 0001:00013050       ?GetMaxHangSaGa@CMasterDataManager@@UAG?AV?$CStringT@DV?$StrTraitMFC_DLL@DV?$ChTraitsCRT@D@ATL@@@@@ATL@@XZ 10014050 f   _MasterDataManager.obj
 0001:00013070       ?GetMiniFutureJongMst@CMasterDataManager@@UAGHAAPAVCStringArray@@00@Z 10014070 f   _MasterDataManager.obj
 0001:00013170       ?GetMiniOptionJongMst@CMasterDataManager@@UAGHAAPAVCStringArray@@0@Z 10014170 f   _MasterDataManager.obj
 0001:000131b0       ?GetOptionJongMst@CMasterDataManager@@UAGHAAPAVCStringArray@@00000@Z 100141b0 f   _MasterDataManager.obj
 0001:00013200       ?GetRecentCode@CMasterDataManager@@UAGHV?$CStringT@DV?$StrTraitMFC_DLL@DV?$ChTraitsCRT@D@ATL@@@@@ATL@@AAV23@H@Z 10014200 f   _MasterDataManager.obj
 0001:00013370       ?GetRecentCodeNameArray@CMasterDataManager@@UAGHHAAVCStringArray@@0@Z 10014370 f   _MasterDataManager.obj
 0001:00013650       ?GetSFutureMst@CMasterDataManager@@UAGHAAPAVCStringArray@@00H@Z 10014650 f   _MasterDataManager.obj
 0001:00013660       ?GetSiteUpKode@CMasterDataManager@@UAGHPBDAAV?$CStringT@DV?$StrTraitMFC_DLL@DV?$ChTraitsCRT@D@ATL@@@@@ATL@@@Z 10014660 f   _MasterDataManager.obj
 0001:000137d0       ?GetStockCodeWithType@CMasterDataManager@@UAGHHAAVCStringArray@@0@Z 100147d0 f   _MasterDataManager.obj
 0001:00013840       ?GetStockDetailInfo@CMasterDataManager@@UAG?AV?$CStringT@DV?$StrTraitMFC_DLL@DV?$ChTraitsCRT@D@ATL@@@@@ATL@@V23@H@Z 10014840 f   _MasterDataManager.obj
 0001:00013870       ?GetThemeGroup@CMasterDataManager@@UAGHAAVCStringArray@@0@Z 10014870 f   _MasterDataManager.obj
 0001:000138d0       ?GetThemeItemList@CMasterDataManager@@UAGHPBDAAVCStringArray@@1@Z 100148d0 f   _MasterDataManager.obj
 0001:00013910       ?GetVFutureMst@CMasterDataManager@@UAGHAAPAVCStringArray@@00H@Z 10014910 f   _MasterDataManager.obj
 0001:000139f0       ?GetWeeklyOptionJongMst@CMasterDataManager@@UAGHAAPAVCStringArray@@0@Z 100149f0 f   _MasterDataManager.obj
 0001:00013a30       ?InitData@CMasterDataManager@@UAGHPBD@Z 10014a30 f   _MasterDataManager.obj
 0001:00013a40       ?InitHashTable@?$CMap@V?$CStringT@DV?$StrTraitMFC_DLL@DV?$ChTraitsCRT@D@ATL@@@@@ATL@@PBDHH@@QAEXIH@Z 10014a40 f i _MasterDataManager.obj
 0001:00013ab0       ?InsertHistory@CMasterDataManager@@UAGHFJPBD0@Z 10014ab0 f   _MasterDataManager.obj
 0001:00013ac0       ?Lookup@?$CMap@V?$CStringT@DV?$StrTraitMFC_DLL@DV?$ChTraitsCRT@D@ATL@@@@@ATL@@PBDHH@@QBEHPBDAAH@Z 10014ac0 f i _MasterDataManager.obj
 0001:00013b00       ?NewAssoc@?$CMap@V?$CStringT@DV?$StrTraitMFC_DLL@DV?$ChTraitsCRT@D@ATL@@@@@ATL@@PBDHH@@IAEPAVCAssoc@1@PBD@Z 10014b00 f i _MasterDataManager.obj
 0001:00013b80       ?NewNode@?$CList@PAUST_STRINGBYTE@@PAU1@@@IAEPAUCNode@1@PAU21@0@Z 10014b80 f i _MasterDataManager.obj
 0001:00013bf0       ?NewNode@?$CList@PAUST_STRINGSTRING@@PAU1@@@IAEPAUCNode@1@PAU21@0@Z 10014bf0 f i _MasterDataManager.obj
 0001:00013c60       ?NewNode@?$CList@PAVCMDM_SubItemA@@PAV1@@@IAEPAUCNode@1@PAU21@0@Z 10014c60 f i _MasterDataManager.obj
 0001:00013cd0       ?RemoveAll@?$CList@PAUST_STRINGBYTE@@PAU1@@@QAEXXZ 10014cd0 f i _MasterDataManager.obj
 0001:00013d00       ?RemoveAll@?$CList@PAUST_STRINGSTRING@@PAU1@@@QAEXXZ 10014d00 f i _MasterDataManager.obj
 0001:00013d30       ?RemoveAll@?$CList@PAVCMDM_SubItemA@@PAV1@@@QAEXXZ 10014d30 f i _MasterDataManager.obj
 0001:00013d60       ?RemoveAll@?$CMap@V?$CStringT@DV?$StrTraitMFC_DLL@DV?$ChTraitsCRT@D@ATL@@@@@ATL@@PBDHH@@QAEXXZ 10014d60 f i _MasterDataManager.obj
 0001:00013dd0       ?RemoveAllListData@CMasterDataManager@@UAGHXZ 10014dd0 f   _MasterDataManager.obj
 0001:00013de0       ?RemoveAt@?$CList@PAUST_STRINGBYTE@@PAU1@@@QAEXPAU__POSITION@@@Z 10014de0 f i _MasterDataManager.obj
 0001:00013e50       ?RemoveAt@?$CList@PAUST_STRINGSTRING@@PAU1@@@QAEXPAU__POSITION@@@Z 10014e50 f i _MasterDataManager.obj
 0001:00013ec0       ?Serialize@?$CList@PAUST_STRINGBYTE@@PAU1@@@UAEXAAVCArchive@@@Z 10014ec0 f i _MasterDataManager.obj
 0001:000140d0       ?Serialize@?$CList@PAUST_STRINGSTRING@@PAU1@@@UAEXAAVCArchive@@@Z 100150d0 f i _MasterDataManager.obj
 0001:000142e0       ?Serialize@?$CList@PAVCMDM_SubItemA@@PAV1@@@UAEXAAVCArchive@@@Z 100152e0 f i _MasterDataManager.obj
 0001:000144f0       ?Serialize@?$CMap@V?$CStringT@DV?$StrTraitMFC_DLL@DV?$ChTraitsCRT@D@ATL@@@@@ATL@@PBDHH@@UAEXAAVCArchive@@@Z 100154f0 f i _MasterDataManager.obj
 0001:000148b0       ?SetAt@?$CMap@V?$CStringT@DV?$StrTraitMFC_DLL@DV?$ChTraitsCRT@D@ATL@@@@@ATL@@PBDHH@@QAEXPBDH@Z 100158b0 f i _MasterDataManager.obj
 0001:000149c0       ?SetDataString@CMasterDataManager@@UAGXFPBD@Z 100159c0 f   _MasterDataManager.obj
 0001:000149d0       ?SetInfo@CMasterDataManager@@UAGXJ@Z 100159d0 f   _MasterDataManager.obj
 0001:000149e0       ?SetKeyData@CMasterDataManager@@UAGXPBD0@Z 100159e0 f   _MasterDataManager.obj
 0001:000149f0       ?SetKeyData@CMasterDataManager@@UAGXPBDJ@Z 100159f0 f   _MasterDataManager.obj
 0001:00014a00       ?SetPosition@CMasterDataManager@@UAGXPBDFF@Z 10015a00 f   _MasterDataManager.obj
 0001:00014a10       ?ShowCodeTable@CMasterDataManager@@UAGJPBDABUtagVARIANT@@@Z 10015a10 f   _MasterDataManager.obj
 0001:00014a20       ?ShowCodeTableWithPosition@CMasterDataManager@@UAGJPBDABUtagVARIANT@@FF@Z 10015a20 f   _MasterDataManager.obj
 0001:00014a30       ?ShowModeCodeTable@CMasterDataManager@@UAGJPBDABUtagVARIANT@@@Z 10015a30 f   _MasterDataManager.obj
 0001:00014a40       ?_DoAddChkCodeSB@CMasterDataManager@@IAEXPAV?$CList@PAUST_STRINGBYTE@@PAU1@@@HPBDE@Z 10015a40 f   _MasterDataManager.obj
 0001:00014b20       ?_DoAddChkCodeSS@CMasterDataManager@@IAEXPAV?$CList@PAUST_STRINGSTRING@@PAU1@@@HPBD1@Z 10015b20 f   _MasterDataManager.obj
 0001:00014c30       ?_DoClearList@CMasterDataManager@@IAEXXZ 10015c30 f   _MasterDataManager.obj
 0001:00014cb0       ?_DoGetOldFutureMaster@CMasterDataManager@@IAEHAAVCStringArray@@0@Z 10015cb0 f   _MasterDataManager.obj
 0001:00014d70       ?_DoParsingCode2@CMasterDataManager@@IAEXAAV?$CStringT@DV?$StrTraitMFC_DLL@DV?$ChTraitsCRT@D@ATL@@@@@ATL@@AAVCStringArray@@1@Z 10015d70 f   _MasterDataManager.obj
 0001:00014f10       ?_DoParsingCode@CMasterDataManager@@IAEXAAV?$CStringT@DV?$StrTraitMFC_DLL@DV?$ChTraitsCRT@D@ATL@@@@@ATL@@AAVCStringArray@@1_NH@Z 10015f10 f   _MasterDataManager.obj
 0001:00015130       ?_DoParsingCodeDPMaster@CMasterDataManager@@IAEXAAV?$CStringT@DV?$StrTraitMFC_DLL@DV?$ChTraitsCRT@D@ATL@@@@@ATL@@AAVCStringArray@@1@Z 10016130 f   _MasterDataManager.obj
 0001:000156d0       ?_DoParsingCodeFX@CMasterDataManager@@IAEXAAV?$CStringT@DV?$StrTraitMFC_DLL@DV?$ChTraitsCRT@D@ATL@@@@@ATL@@AAVCStringArray@@1_NH@Z 100166d0 f   _MasterDataManager.obj
 0001:00015a00       ?_DoParsingCodeForeign@CMasterDataManager@@IAEXAAV?$CStringT@DV?$StrTraitMFC_DLL@DV?$ChTraitsCRT@D@ATL@@@@@ATL@@AAVCStringArray@@1@Z 10016a00 f   _MasterDataManager.obj
 0001:00015b90       ?_DoParsingCodeJPMaster@CMasterDataManager@@IAEXAAV?$CStringT@DV?$StrTraitMFC_DLL@DV?$ChTraitsCRT@D@ATL@@@@@ATL@@AAVCStringArray@@1@Z 10016b90 f   _MasterDataManager.obj
 0001:000160c0       ?_DoParsingCodeMiniMaster@CMasterDataManager@@IAEXAAV?$CStringT@DV?$StrTraitMFC_DLL@DV?$ChTraitsCRT@D@ATL@@@@@ATL@@AAVCStringArray@@1@Z 100170c0 f   _MasterDataManager.obj
 0001:00016650       ?_DoParsingCodePMaster@CMasterDataManager@@IAEXAAV?$CStringT@DV?$StrTraitMFC_DLL@DV?$ChTraitsCRT@D@ATL@@@@@ATL@@AAVCStringArray@@1@Z 10017650 f   _MasterDataManager.obj
 0001:00016bd0       ?_DoParsingCodeWeeklyMaster@CMasterDataManager@@IAEXAAV?$CStringT@DV?$StrTraitMFC_DLL@DV?$ChTraitsCRT@D@ATL@@@@@ATL@@AAVCStringArray@@1@Z 10017bd0 f   _MasterDataManager.obj
 0001:00017160       ?_DoPreChkCodeSB@CMasterDataManager@@IAEEPAV?$CList@PAUST_STRINGBYTE@@PAU1@@@PBD@Z 10018160 f   _MasterDataManager.obj
 0001:000171a0       ?_DoPreChkCodeSS@CMasterDataManager@@IAEHPAV?$CList@PAUST_STRINGSTRING@@PAU1@@@PBDAAV?$CStringT@DV?$StrTraitMFC_DLL@DV?$ChTraitsCRT@D@ATL@@@@@ATL@@@Z 100181a0 f   _MasterDataManager.obj
 0001:000171f0       ?_DoSortCode@CMasterDataManager@@IAEXAAVCStringArray@@0@Z 100181f0 f   _MasterDataManager.obj
 0001:00017440       ?gFncomparisonFunctionString@@YAHPBX0@Z 10018440 f   _MasterDataManager.obj
 0001:00017480       ??$SerializeElements@PAUST_NewsSignalMng@@@@YGXAAVCArchive@@PAPAUST_NewsSignalMng@@H@Z 10018480 f i _NewSignalManager.obj
 0001:00017530       ??0?$CList@PAUST_NewsSignalMng@@PAU1@@@QAE@H@Z 10018530 f i _NewSignalManager.obj
 0001:00017570       ??0CNewsSignalManager@@QAE@XZ 10018570 f   _NewSignalManager.obj
 0001:000175d0       ??1?$CList@PAUST_NewsSignalMng@@PAU1@@@UAE@XZ 100185d0 f i _NewSignalManager.obj
 0001:00017640       ??1CNewsSignalManager@@QAE@XZ 10018640 f   _NewSignalManager.obj
 0001:000176c0       ??_G?$CList@PAUST_NewsSignalMng@@PAU1@@@UAEPAXI@Z 100186c0 f i _NewSignalManager.obj
 0001:000176c0       ??_E?$CList@PAUST_NewsSignalMng@@PAU1@@@UAEPAXI@Z 100186c0 f i _NewSignalManager.obj
 0001:00017770       ?AddTail@?$CList@PAUST_NewsSignalMng@@PAU1@@@QAEPAU__POSITION@@PAUST_NewsSignalMng@@@Z 10018770 f i _NewSignalManager.obj
 0001:00017800       ?AdviseNewsSignal@CNewsSignalManager@@UAGJDJ@Z 10018800 f   _NewSignalManager.obj
 0001:000178b0       ?FreeNode@?$CList@PAUST_NewsSignalMng@@PAU1@@@IAEXPAUCNode@1@@Z 100188b0 f i _NewSignalManager.obj
 0001:00017900       ?GetAdviseCount@CNewsSignalManager@@UAGHXZ 10018900 f   _NewSignalManager.obj
 0001:00017910       ?GetDummyHwnd@CNewsSignalManager@@UAGPAUHWND__@@XZ 10018910 f   _NewSignalManager.obj
 0001:00017930       ?GetFilterData@CNewsSignalManager@@UAGXAAJ@Z 10018930 f   _NewSignalManager.obj
 0001:00017950       ?GetSiganlTable@CNewsSignalManager@@UAGHV?$CStringT@DV?$StrTraitMFC_DLL@DV?$ChTraitsCRT@D@ATL@@@@@ATL@@AAVCStringArray@@@Z 10018950 f   _NewSignalManager.obj
 0001:00017990       ?GetSignalData@CNewsSignalManager@@UAGXV?$CStringT@DV?$StrTraitMFC_DLL@DV?$ChTraitsCRT@D@ATL@@@@@ATL@@AAVCMapStringToPtr@@@Z 10018990 f   _NewSignalManager.obj
 0001:000179d0       ?NewNode@?$CList@PAUST_NewsSignalMng@@PAU1@@@IAEPAUCNode@1@PAU21@0@Z 100189d0 f i _NewSignalManager.obj
 0001:00017a40       ?RemoveAll@?$CList@PAUST_NewsSignalMng@@PAU1@@@QAEXXZ 10018a40 f i _NewSignalManager.obj
 0001:00017a70       ?RemoveAt@?$CList@PAUST_NewsSignalMng@@PAU1@@@QAEXPAU__POSITION@@@Z 10018a70 f i _NewSignalManager.obj
 0001:00017ae0       ?Serialize@?$CList@PAUST_NewsSignalMng@@PAU1@@@UAEXAAVCArchive@@@Z 10018ae0 f i _NewSignalManager.obj
 0001:00017c70       ?SetFilterData@CNewsSignalManager@@UAGXPAJ@Z 10018c70 f   _NewSignalManager.obj
 0001:00017c90       ?SetNewsSignal@CNewsSignalManager@@UAGHHPAVCWnd@@V?$CStringT@DV?$StrTraitMFC_DLL@DV?$ChTraitsCRT@D@ATL@@@@@ATL@@1@Z 10018c90 f   _NewSignalManager.obj
 0001:00017cf0       ?SetSignalData@CNewsSignalManager@@UAGXV?$CStringT@DV?$StrTraitMFC_DLL@DV?$ChTraitsCRT@D@ATL@@@@@ATL@@PAVCMapStringToPtr@@@Z 10018cf0 f   _NewSignalManager.obj
 0001:00017d30       ?UnAdviseNewsSignal@CNewsSignalManager@@UAGHJ@Z 10018d30 f   _NewSignalManager.obj
 0001:00017df0       ??0CPCTRManager@@QAE@XZ    10018df0 f   _PCTrManager.obj
 0001:00017e00       ??1CPCTRManager@@QAE@XZ    10018e00 f   _PCTrManager.obj
 0001:00017e10       ?Advise@CPCTRManager@@UAGJHPAUIPCTRSite@@@Z 10018e10 f   _PCTrManager.obj
 0001:00017e20       ?AdviseEx@CPCTRManager@@UAGJHPAUIPCTRSite@@@Z 10018e20 f   _PCTrManager.obj
 0001:00017e30       ?GetData@CPCTRManager@@UAGPBDH@Z 10018e30 f   _PCTrManager.obj
 0001:00017e40       ?GetDataEx@CPCTRManager@@UAGPAVCOleVariant@@H@Z 10018e40 f   _PCTrManager.obj
 0001:00017e50       ?GetDataEx@CPCTRManager@@UAGPAVCOleVariant@@PBD@Z 10018e50 f   _PCTrManager.obj
 0001:00017e60       ?GetTrData@CPCTRManager@@UAGJDHPBDJ0@Z 10018e60 f   _PCTrManager.obj
 0001:00017e70       ?SetData@CPCTRManager@@UAGHHPBD@Z 10018e70 f   _PCTrManager.obj
 0001:00017e80       ?SetDataEx@CPCTRManager@@UAGHHPAVCOleVariant@@@Z 10018e80 f   _PCTrManager.obj
 0001:00017e90       ?SetDataEx@CPCTRManager@@UAGHPBDPAVCOleVariant@@@Z 10018e90 f   _PCTrManager.obj
 0001:00017ea0       ?UnAdvise@CPCTRManager@@UAGXJ@Z 10018ea0 f   _PCTrManager.obj
 0001:00017eb0       ?UnAdviseEx@CPCTRManager@@UAGXJ@Z 10018eb0 f   _PCTrManager.obj
 0001:00017ec0       ?GetStrValue@CRegistryManager@@UAGPBDPAUHKEY__@@PBD11@Z 10018ec0 f   _RegistryManager.obj
 0001:00017f90       ?SetStrValue@CRegistryManager@@UAGXPAUHKEY__@@PBD11@Z 10018f90 f   _RegistryManager.obj
 0001:00017ff0       ??$SerializeElements@PAUISkinColorSite@@@@YGXAAVCArchive@@PAPAUISkinColorSite@@H@Z 10018ff0 f i _SkinColorManager.obj
 0001:000180a0       ??$SerializeElements@UST_SKININFO@@@@YGXAAVCArchive@@PAUST_SKININFO@@H@Z 100190a0 f i _SkinColorManager.obj
 0001:00018160       ??$SerializeElements@U_tabUserColorTable@@@@YGXAAVCArchive@@PAU_tabUserColorTable@@H@Z 10019160 f i _SkinColorManager.obj
 0001:00018210       ??0?$CArray@UST_SKININFO@@U1@@@QAE@XZ 10019210 f i _SkinColorManager.obj
 0001:00018240       ??0?$CArray@U_tabUserColorTable@@U1@@@QAE@XZ 10019240 f i _SkinColorManager.obj
 0001:00018270       ??0?$CList@PAUISkinColorSite@@PAU1@@@QAE@H@Z 10019270 f i _SkinColorManager.obj
 0001:000182b0       ??0CSkinColorManager@@QAE@XZ 100192b0 f   _SkinColorManager.obj
 0001:00018350       ??1?$CArray@UST_SKININFO@@U1@@@UAE@XZ 10019350 f i _SkinColorManager.obj
 0001:000183e0       ??1?$CArray@U_tabUserColorTable@@U1@@@UAE@XZ 100193e0 f i _SkinColorManager.obj
 0001:00018430       ??1?$CList@PAUISkinColorSite@@PAU1@@@UAE@XZ 10019430 f i _SkinColorManager.obj
 0001:000184a0       ??1CSkinColorManager@@QAE@XZ 100194a0 f   _SkinColorManager.obj
 0001:00018600       ??1ST_SKININFO@@QAE@XZ     10019600 f i _SkinColorManager.obj
 0001:00018650       ??4ST_SKININFO@@QAEAAU0@ABU0@@Z 10019650 f i _SkinColorManager.obj
 0001:000186c0       ??_E?$CArray@UST_SKININFO@@U1@@@UAEPAXI@Z 100196c0 f i _SkinColorManager.obj
 0001:000186c0       ??_G?$CArray@UST_SKININFO@@U1@@@UAEPAXI@Z 100196c0 f i _SkinColorManager.obj
 0001:00018700       ??_E?$CArray@U_tabUserColorTable@@U1@@@UAEPAXI@Z 10019700 f i _SkinColorManager.obj
 0001:00018700       ??_G?$CArray@U_tabUserColorTable@@U1@@@UAEPAXI@Z 10019700 f i _SkinColorManager.obj
 0001:00018740       ??_E?$CList@PAUISkinColorSite@@PAU1@@@UAEPAXI@Z 10019740 f i _SkinColorManager.obj
 0001:00018740       ??_G?$CList@PAUISkinColorSite@@PAU1@@@UAEPAXI@Z 10019740 f i _SkinColorManager.obj
 0001:000187f0       ?AddTail@?$CList@PAUISkinColorSite@@PAU1@@@QAEPAU__POSITION@@PAUISkinColorSite@@@Z 100197f0 f i _SkinColorManager.obj
 0001:00018880       ?AdviseSite@CSkinColorManager@@UAGJPAUISkinColorSite@@@Z 10019880 f   _SkinColorManager.obj
 0001:000188a0       ?AfxCrtErrorCheck@@YAHH@Z  100198a0 f i _SkinColorManager.obj
 0001:00018930       ?FreeNode@?$CList@PAUISkinColorSite@@PAU1@@@IAEXPAUCNode@1@@Z 10019930 f i _SkinColorManager.obj
 0001:00018980       ?GetColor@CSkinColorManager@@UAGKH@Z 10019980 f   _SkinColorManager.obj
 0001:000189d0       ?GetColor@CSkinColorManager@@UAGKPBD@Z 100199d0 f   _SkinColorManager.obj
 0001:00018a50       ?GetColorTableArray@CSkinColorManager@@UAGJXZ 10019a50 f   _SkinColorManager.obj
 0001:00018a60       ?GetDefaultColor@CSkinColorManager@@UAGKH@Z 10019a60 f   _SkinColorManager.obj
 0001:00018a70       ?GetDefaultColor@CSkinColorManager@@UAGKPBD@Z 10019a70 f   _SkinColorManager.obj
 0001:00018a80       ?GetDefaultColorTableArray@CSkinColorManager@@UAGJXZ 10019a80 f   _SkinColorManager.obj
 0001:00018a90       ?GetDefaultIndex@CSkinColorManager@@UAGHPBD@Z 10019a90 f   _SkinColorManager.obj
 0001:00018aa0       ?GetIndex@CSkinColorManager@@UAGHPBD@Z 10019aa0 f   _SkinColorManager.obj
 0001:00018b20       ?GetSkinCount@CSkinColorManager@@UAGHXZ 10019b20 f   _SkinColorManager.obj
 0001:00018b40       ?GetSkinInfo@CSkinColorManager@@UAGHHAAUST_SKININFO@@@Z 10019b40 f   _SkinColorManager.obj
 0001:00018b90       ?LoadColorTable@CSkinColorManager@@UAGHPBDH@Z 10019b90 f   _SkinColorManager.obj
 0001:00018da0       ?LoadDefaultColorTable@CSkinColorManager@@UAGHPBD@Z 10019da0 f   _SkinColorManager.obj
 0001:00018dc0       ?LoadSkinInfo@CSkinColorManager@@QAEXXZ 10019dc0 f   _SkinColorManager.obj
 0001:00019190       ?NewNode@?$CList@PAUISkinColorSite@@PAU1@@@IAEPAUCNode@1@PAU21@0@Z 1001a190 f i _SkinColorManager.obj
 0001:00019200       ?NotifyToSite@CSkinColorManager@@UAGXXZ 1001a200 f   _SkinColorManager.obj
 0001:00019230       ?RemoveAll@?$CArray@U_tabUserColorTable@@U1@@@QAEXXZ 1001a230 f i _SkinColorManager.obj
 0001:00019280       ?RemoveAll@?$CList@PAUISkinColorSite@@PAU1@@@QAEXXZ 1001a280 f i _SkinColorManager.obj
 0001:000192b0       ?RemoveAt@?$CList@PAUISkinColorSite@@PAU1@@@QAEXPAU__POSITION@@@Z 1001a2b0 f i _SkinColorManager.obj
 0001:00019320       ?Serialize@?$CArray@UST_SKININFO@@U1@@@UAEXAAVCArchive@@@Z 1001a320 f i _SkinColorManager.obj
 0001:00019400       ?Serialize@?$CArray@U_tabUserColorTable@@U1@@@UAEXAAVCArchive@@@Z 1001a400 f i _SkinColorManager.obj
 0001:000194e0       ?Serialize@?$CList@PAUISkinColorSite@@PAU1@@@UAEXAAVCArchive@@@Z 1001a4e0 f i _SkinColorManager.obj
 0001:00019670       ?SetSize@?$CArray@UST_SKININFO@@U1@@@QAEXHH@Z 1001a670 f i _SkinColorManager.obj
 0001:00019ad0       ?SetSize@?$CArray@U_tabUserColorTable@@U1@@@QAEXHH@Z 1001aad0 f i _SkinColorManager.obj
 0001:00019d80       ?SetSkinConfig@CSkinColorManager@@UAGHPBD@Z 1001ad80 f   _SkinColorManager.obj
 0001:00019de0       ?UnadviseSite@CSkinColorManager@@UAGHJ@Z 1001ade0 f   _SkinColorManager.obj
 0001:00019e60       ??1CSTManager@@QAE@XZ      1001ae60 f   _STManager.obj
 0001:00019f30       ?AddSTRunINfo@CSTManager@@UAGHPBDH@Z 1001af30 f   _STManager.obj
 0001:0001a070       ?FindItem@CSTManager@@QAEPAU__POSITION@@PBDAAPAVCSTManager_Info@@@Z 1001b070 f   _STManager.obj
 0001:0001a0c0       ?FreeNode@?$CList@PAVCSTManager_Info@@PAV1@@@IAEXPAUCNode@1@@Z 1001b0c0 f i _STManager.obj
 0001:0001a110       ?GetSTRunINfo@CSTManager@@UAGHPBD@Z 1001b110 f   _STManager.obj
 0001:0001a140       ?RemoveAll@CSTManager@@QAEXXZ 1001b140 f   _STManager.obj
 0001:0001a1a0       ?RemoveAt@?$CList@PAVCSTManager_Info@@PAV1@@@QAEXPAU__POSITION@@@Z 1001b1a0 f i _STManager.obj
 0001:0001a210       ?CheckExeRun@CSystemUtilManager@@AAEHABV?$CStringT@DV?$StrTraitMFC_DLL@DV?$ChTraitsCRT@D@ATL@@@@@ATL@@H@Z 1001b210 f   _SystemUtilManager.obj
 0001:0001a300       ?ComServerFromProgID@CProgIDInfo@@SAJPBDAAV?$CStringT@DV?$StrTraitMFC_DLL@DV?$ChTraitsCRT@D@ATL@@@@@ATL@@@Z 1001b300 f i _SystemUtilManager.obj
 0001:0001a510       ?DLLRegister@CSystemUtilManager@@UAGHPBD@Z 1001b510 f   _SystemUtilManager.obj
 0001:0001a790       ?IsRegistered@CSystemUtilManager@@UAGHPBDAAU_GUID@@@Z 1001b790 f   _SystemUtilManager.obj
 0001:0001a7b0       ?IsRegisteredEx@CSystemUtilManager@@UAGHPBDAAU_GUID@@00@Z 1001b7b0 f   _SystemUtilManager.obj
 0001:0001a880       ?StringCLSIDFromProgID@CProgIDInfo@@SAJPBDAAV?$CStringT@DV?$StrTraitMFC_DLL@DV?$ChTraitsCRT@D@ATL@@@@@ATL@@@Z 1001b880 f i _SystemUtilManager.obj
 0001:0001a9f0       ??$SerializeElements@PAVCTrCommImpl@@@@YGXAAVCArchive@@PAPAVCTrCommImpl@@H@Z 1001b9f0 f i _TRCommManager.obj
 0001:0001aaa0       ??0?$CList@PAVCTrCommImpl@@PAV1@@@QAE@H@Z 1001baa0 f i _TRCommManager.obj
 0001:0001aae0       ??0CCriticalSection@@QAE@XZ 1001bae0 f i _TRCommManager.obj
 0001:0001ab60       ??0CTrCommImpl@@QAE@PAUHWND__@@@Z 1001bb60 f   _TRCommManager.obj
 0001:0001ad90       ??0CTrCommManager@@QAE@XZ  1001bd90 f   _TRCommManager.obj
 0001:0001ade0       ??1?$CList@PAVCTrCommImpl@@PAV1@@@UAE@XZ 1001bde0 f i _TRCommManager.obj
 0001:0001ae50       ??1CTrCommImpl@@QAE@XZ     1001be50 f   _TRCommManager.obj
 0001:0001aed0       ??1CTrCommManager@@QAE@XZ  1001bed0 f   _TRCommManager.obj
 0001:0001af80       ??_E?$CList@PAVCTrCommImpl@@PAV1@@@UAEPAXI@Z 1001bf80 f i _TRCommManager.obj
 0001:0001af80       ??_G?$CList@PAVCTrCommImpl@@PAV1@@@UAEPAXI@Z 1001bf80 f i _TRCommManager.obj
 0001:0001b030       ??_ECTRComm@@UAEPAXI@Z     1001c030 f i _TRCommManager.obj
 0001:0001b030       ??_GCTRComm@@UAEPAXI@Z     1001c030 f i _TRCommManager.obj
 0001:0001b120       ?AddTail@?$CList@PAVCTrCommImpl@@PAV1@@@QAEPAU__POSITION@@PAVCTrCommImpl@@@Z 1001c120 f i _TRCommManager.obj
 0001:0001b1b0       ?AdviseTrComm@CTrCommManager@@UAGPAUITrComm@@XZ 1001c1b0 f   _TRCommManager.obj
 0001:0001b200       ?ChangeCallback@CTrCommImpl@@UAGXPAUITrCommSite@@@Z 1001c200 f   _TRCommManager.obj
 0001:0001b220       ?FreeNode@?$CList@PAVCTrCommImpl@@PAV1@@@IAEXPAUCNode@1@@Z 1001c220 f i _TRCommManager.obj
 0001:0001b270       ?GetBaseData@CTrCommImpl@@UAGXPBDAAV?$CStringT@DV?$StrTraitMFC_DLL@DV?$ChTraitsCRT@D@ATL@@@@@ATL@@@Z 1001c270 f   _TRCommManager.obj
 0001:0001b290       ?GetSocketHandle@CTrCommManager@@UAGPAUHWND__@@PBD@Z 1001c290 f   _TRCommManager.obj
 0001:0001b2e0       ?NewNode@?$CList@PAVCTrCommImpl@@PAV1@@@IAEPAUCNode@1@PAU21@0@Z 1001c2e0 f i _TRCommManager.obj
 0001:0001b350       ?RemoveAll@?$CList@PAVCTrCommImpl@@PAV1@@@QAEXXZ 1001c350 f i _TRCommManager.obj
 0001:0001b380       ?RemoveAt@?$CList@PAVCTrCommImpl@@PAV1@@@QAEXPAU__POSITION@@@Z 1001c380 f i _TRCommManager.obj
 0001:0001b3f0       ?Send2Server@CTrCommImpl@@UAGHPAXHH@Z 1001c3f0 f   _TRCommManager.obj
 0001:0001b430       ?Serialize@?$CList@PAVCTrCommImpl@@PAV1@@@UAEXAAVCArchive@@@Z 1001c430 f i _TRCommManager.obj
 0001:0001b5c0       ?SetBaseData@CTrCommImpl@@UAGXPBD0@Z 1001c5c0 f   _TRCommManager.obj
 0001:0001b5e0       ?SetBaseDataLong@CTrCommImpl@@UAGXPBDJ@Z 1001c5e0 f   _TRCommManager.obj
 0001:0001b600       ?SetSocketHandle@CTrCommManager@@UAGXPBDPAUHWND__@@@Z 1001c600 f   _TRCommManager.obj
 0001:0001b670       ?SetTR@CTrCommImpl@@UAGXPBDH@Z 1001c670 f   _TRCommManager.obj
 0001:0001b690       ?UnAdviseTrComm@CTrCommManager@@UAGXPAUITrComm@@@Z 1001c690 f   _TRCommManager.obj
 0001:0001b7c0       ??3@YAXPAX@Z               1001c7c0 f   mfc140:mfc140.dll
 0001:0001b7c6       ??_U@YAPAXI@Z              1001c7c6 f   mfc140:mfc140.dll
 0001:0001b7cc       ??0?$CStringT@DV?$StrTraitMFC_DLL@DV?$ChTraitsCRT@D@ATL@@@@@ATL@@QAE@XZ 1001c7cc f   mfc140:mfc140.dll
 0001:0001b7d2       ??1?$CStringT@DV?$StrTraitMFC_DLL@DV?$ChTraitsCRT@D@ATL@@@@@ATL@@QAE@XZ 1001c7d2 f   mfc140:mfc140.dll
 0001:0001b7d8       ??0COleDispatchDriver@@QAE@XZ 1001c7d8 f   mfc140:mfc140.dll
 0001:0001b7de       ?ReleaseDispatch@COleDispatchDriver@@QAEXXZ 1001c7de f   mfc140:mfc140.dll
 0001:0001b7e4       ?InvokeHelper@COleDispatchDriver@@QAAXJGGPAXPBEZZ 1001c7e4 f   mfc140:mfc140.dll
 0001:0001b7ea       ??2@YAPAXI@Z               1001c7ea f   mfc140:mfc140.dll
 0001:0001b7f0       ?AfxThrowInvalidArgException@@YGXXZ 1001c7f0 f   mfc140:mfc140.dll
 0001:0001b7f6       ??0?$CStringT@DV?$StrTraitMFC_DLL@DV?$ChTraitsCRT@D@ATL@@@@@ATL@@QAE@ABV01@@Z 1001c7f6 f   mfc140:mfc140.dll
 0001:0001b7fc       ??0CObArray@@QAE@XZ        1001c7fc f   mfc140:mfc140.dll
 0001:0001b802       ?SetAtGrow@CObArray@@QAEXHPAVCObject@@@Z 1001c802 f   mfc140:mfc140.dll
 0001:0001b808       ?RemoveAt@CObArray@@QAEXHH@Z 1001c808 f   mfc140:mfc140.dll
 0001:0001b80e       ??1CObArray@@UAE@XZ        1001c80e f   mfc140:mfc140.dll
 0001:0001b814       ?FromHandle@CWnd@@SGPAV1@PAUHWND__@@@Z 1001c814 f   mfc140:mfc140.dll
 0001:0001b81a       ?GetDlgItem@CWnd@@QBEPAV1@H@Z 1001c81a f   mfc140:mfc140.dll
 0001:0001b820       ?MoveWindow@CWnd@@QAEXHHHHH@Z 1001c820 f   mfc140:mfc140.dll
 0001:0001b826       ?ClientToScreen@CWnd@@QBEXPAUtagRECT@@@Z 1001c826 f   mfc140:mfc140.dll
 0001:0001b82c       ?ScreenToClient@CWnd@@QBEXPAUtagRECT@@@Z 1001c82c f   mfc140:mfc140.dll
 0001:0001b832       ?AfxMessageBox@@YGHPBDII@Z 1001c832 f   mfc140:mfc140.dll
 0001:0001b838       ??0?$CStringT@DV?$StrTraitMFC_DLL@DV?$ChTraitsCRT@D@ATL@@@@@ATL@@QAE@PBD@Z 1001c838 f   mfc140:mfc140.dll
 0001:0001b83e       ??4?$CStringT@DV?$StrTraitMFC_DLL@DV?$ChTraitsCRT@D@ATL@@@@@ATL@@QAEAAV01@PBD@Z 1001c83e f   mfc140:mfc140.dll
 0001:0001b844       ?CompareNoCase@?$CStringT@DV?$StrTraitMFC_DLL@DV?$ChTraitsCRT@D@ATL@@@@@ATL@@QBEHPBD@Z 1001c844 f   mfc140:mfc140.dll
 0001:0001b84a       ?Format@?$CStringT@DV?$StrTraitMFC_DLL@DV?$ChTraitsCRT@D@ATL@@@@@ATL@@QAAXPBDZZ 1001c84a f   mfc140:mfc140.dll
 0001:0001b850       ?OnCmdMsg@CCmdTarget@@UAEHIHPAXPAUAFX_CMDHANDLERINFO@@@Z 1001c850 f   mfc140:mfc140.dll
 0001:0001b856       ?IsInvokeAllowed@CCmdTarget@@UAEHJ@Z 1001c856 f   mfc140:mfc140.dll
 0001:0001b85c       ?GetDispatchIID@CCmdTarget@@UAEHPAU_GUID@@@Z 1001c85c f   mfc140:mfc140.dll
 0001:0001b862       ?GetTypeInfoCount@CCmdTarget@@UAEIXZ 1001c862 f   mfc140:mfc140.dll
 0001:0001b868       ?GetTypeLibCache@CCmdTarget@@UAEPAVCTypeLibCache@@XZ 1001c868 f   mfc140:mfc140.dll
 0001:0001b86e       ?GetTypeLib@CCmdTarget@@UAEJKPAPAUITypeLib@@@Z 1001c86e f   mfc140:mfc140.dll
 0001:0001b874       ?GetCommandMap@CCmdTarget@@MBEPBUAFX_OLECMDMAP@@XZ 1001c874 f   mfc140:mfc140.dll
 0001:0001b87a       ?GetDispatchMap@CCmdTarget@@MBEPBUAFX_DISPMAP@@XZ 1001c87a f   mfc140:mfc140.dll
 0001:0001b880       ?GetConnectionMap@CCmdTarget@@MBEPBUAFX_CONNECTIONMAP@@XZ 1001c880 f   mfc140:mfc140.dll
 0001:0001b886       ?GetEventSinkMap@CCmdTarget@@MBEPBUAFX_EVENTSINKMAP@@XZ 1001c886 f   mfc140:mfc140.dll
 0001:0001b88c       ?OnCreateAggregates@CCmdTarget@@UAEHXZ 1001c88c f   mfc140:mfc140.dll
 0001:0001b892       ?GetInterfaceHook@CCmdTarget@@UAEPAUIUnknown@@PBX@Z 1001c892 f   mfc140:mfc140.dll
 0001:0001b898       ?GetExtraConnectionPoints@CCmdTarget@@MAEHPAVCPtrArray@@@Z 1001c898 f   mfc140:mfc140.dll
 0001:0001b89e       ?GetConnectionHook@CCmdTarget@@MAEPAUIConnectionPoint@@ABU_GUID@@@Z 1001c89e f   mfc140:mfc140.dll
 0001:0001b8a4       ?GetRuntimeClass@CWnd@@UBEPAUCRuntimeClass@@XZ 1001c8a4 f   mfc140:mfc140.dll
 0001:0001b8aa       ??0CWnd@@QAE@XZ            1001c8aa f   mfc140:mfc140.dll
 0001:0001b8b0       ?PreSubclassWindow@CWnd@@UAEXXZ 1001c8b0 f   mfc140:mfc140.dll
 0001:0001b8b6       ?Create@CWnd@@UAEHPBD0KABUtagRECT@@PAV1@IPAUCCreateContext@@@Z 1001c8b6 f   mfc140:mfc140.dll
 0001:0001b8bc       ?CreateEx@CWnd@@UAEHKPBD0KHHHHPAUHWND__@@PAUHMENU__@@PAX@Z 1001c8bc f   mfc140:mfc140.dll
 0001:0001b8c2       ?CreateEx@CWnd@@UAEHKPBD0KABUtagRECT@@PAV1@IPAX@Z 1001c8c2 f   mfc140:mfc140.dll
 0001:0001b8c8       ?DestroyWindow@CWnd@@UAEHXZ 1001c8c8 f   mfc140:mfc140.dll
 0001:0001b8ce       ?PreCreateWindow@CWnd@@UAEHAAUtagCREATESTRUCTA@@@Z 1001c8ce f   mfc140:mfc140.dll
 0001:0001b8d4       ?CalcWindowRect@CWnd@@UAEXPAUtagRECT@@I@Z 1001c8d4 f   mfc140:mfc140.dll
 0001:0001b8da       ?GetMenu@CWnd@@UBEPAVCMenu@@XZ 1001c8da f   mfc140:mfc140.dll
 0001:0001b8e0       ?SetMenu@CWnd@@UAEHPAVCMenu@@@Z 1001c8e0 f   mfc140:mfc140.dll
 0001:0001b8e6       ?OnToolHitTest@CWnd@@UBEHVCPoint@@PAUtagTOOLINFOA@@@Z 1001c8e6 f   mfc140:mfc140.dll
 0001:0001b8ec       ?GetScrollBarCtrl@CWnd@@UBEPAVCScrollBar@@H@Z 1001c8ec f   mfc140:mfc140.dll
 0001:0001b8f2       ?WinHelpA@CWnd@@UAEXKI@Z   1001c8f2 f   mfc140:mfc140.dll
 0001:0001b8f8       ?HtmlHelpA@CWnd@@UAEXKI@Z  1001c8f8 f   mfc140:mfc140.dll
 0001:0001b8fe       ?WinHelpInternal@CWnd@@UAEXKI@Z 1001c8fe f   mfc140:mfc140.dll
 0001:0001b904       ?ContinueModal@CWnd@@UAEHXZ 1001c904 f   mfc140:mfc140.dll
 0001:0001b90a       ?EndModalLoop@CWnd@@UAEXH@Z 1001c90a f   mfc140:mfc140.dll
 0001:0001b910       ?OnDrawIconicThumbnailOrLivePreview@CWnd@@UAEXAAVCDC@@VCRect@@VCSize@@HAAH@Z 1001c910 f   mfc140:mfc140.dll
 0001:0001b916       ?GetInterfaceMap@CWnd@@MBEPBUAFX_INTERFACEMAP@@XZ 1001c916 f   mfc140:mfc140.dll
 0001:0001b91c       ?EnsureStdObj@CWnd@@UAEJXZ 1001c91c f   mfc140:mfc140.dll
 0001:0001b922       ?get_accParent@CWnd@@UAEJPAPAUIDispatch@@@Z 1001c922 f   mfc140:mfc140.dll
 0001:0001b928       ?get_accChildCount@CWnd@@UAEJPAJ@Z 1001c928 f   mfc140:mfc140.dll
 0001:0001b92e       ?get_accChild@CWnd@@UAEJUtagVARIANT@@PAPAUIDispatch@@@Z 1001c92e f   mfc140:mfc140.dll
 0001:0001b934       ?get_accName@CWnd@@UAEJUtagVARIANT@@PAPA_W@Z 1001c934 f   mfc140:mfc140.dll
 0001:0001b93a       ?get_accValue@CWnd@@UAEJUtagVARIANT@@PAPA_W@Z 1001c93a f   mfc140:mfc140.dll
 0001:0001b940       ?get_accDescription@CWnd@@UAEJUtagVARIANT@@PAPA_W@Z 1001c940 f   mfc140:mfc140.dll
 0001:0001b946       ?get_accRole@CWnd@@UAEJUtagVARIANT@@PAU2@@Z 1001c946 f   mfc140:mfc140.dll
 0001:0001b94c       ?get_accState@CWnd@@UAEJUtagVARIANT@@PAU2@@Z 1001c94c f   mfc140:mfc140.dll
 0001:0001b952       ?get_accHelp@CWnd@@UAEJUtagVARIANT@@PAPA_W@Z 1001c952 f   mfc140:mfc140.dll
 0001:0001b958       ?get_accHelpTopic@CWnd@@UAEJPAPA_WUtagVARIANT@@PAJ@Z 1001c958 f   mfc140:mfc140.dll
 0001:0001b95e       ?get_accKeyboardShortcut@CWnd@@UAEJUtagVARIANT@@PAPA_W@Z 1001c95e f   mfc140:mfc140.dll
 0001:0001b964       ?get_accFocus@CWnd@@UAEJPAUtagVARIANT@@@Z 1001c964 f   mfc140:mfc140.dll
 0001:0001b96a       ?get_accSelection@CWnd@@UAEJPAUtagVARIANT@@@Z 1001c96a f   mfc140:mfc140.dll
 0001:0001b970       ?get_accDefaultAction@CWnd@@UAEJUtagVARIANT@@PAPA_W@Z 1001c970 f   mfc140:mfc140.dll
 0001:0001b976       ?accSelect@CWnd@@UAEJJUtagVARIANT@@@Z 1001c976 f   mfc140:mfc140.dll
 0001:0001b97c       ?accLocation@CWnd@@UAEJPAJ000UtagVARIANT@@@Z 1001c97c f   mfc140:mfc140.dll
 0001:0001b982       ?accNavigate@CWnd@@UAEJJUtagVARIANT@@PAU2@@Z 1001c982 f   mfc140:mfc140.dll
 0001:0001b988       ?accHitTest@CWnd@@UAEJJJPAUtagVARIANT@@@Z 1001c988 f   mfc140:mfc140.dll
 0001:0001b98e       ?accDoDefaultAction@CWnd@@UAEJUtagVARIANT@@@Z 1001c98e f   mfc140:mfc140.dll
 0001:0001b994       ?put_accName@CWnd@@UAEJUtagVARIANT@@PA_W@Z 1001c994 f   mfc140:mfc140.dll
 0001:0001b99a       ?put_accValue@CWnd@@UAEJUtagVARIANT@@PA_W@Z 1001c99a f   mfc140:mfc140.dll
 0001:0001b9a0       ?SetProxy@CWnd@@UAEJPAUIAccessibleProxy@@@Z 1001c9a0 f   mfc140:mfc140.dll
 0001:0001b9a6       ?CreateAccessibleProxy@CWnd@@UAEJIJPAJ@Z 1001c9a6 f   mfc140:mfc140.dll
 0001:0001b9ac       ?OnCommand@CWnd@@MAEHIJ@Z  1001c9ac f   mfc140:mfc140.dll
 0001:0001b9b2       ?OnNotify@CWnd@@MAEHIJPAJ@Z 1001c9b2 f   mfc140:mfc140.dll
 0001:0001b9b8       ?GetSuperWndProcAddr@CWnd@@MAEPAP6GJPAUHWND__@@IIJ@ZXZ 1001c9b8 f   mfc140:mfc140.dll
 0001:0001b9be       ?PreTranslateMessage@CWnd@@UAEHPAUtagMSG@@@Z 1001c9be f   mfc140:mfc140.dll
 0001:0001b9c4       ?OnAmbientProperty@CWnd@@UAEHPAVCOleControlSite@@JPAUtagVARIANT@@@Z 1001c9c4 f   mfc140:mfc140.dll
 0001:0001b9ca       ?WindowProc@CWnd@@MAEJIIJ@Z 1001c9ca f   mfc140:mfc140.dll
 0001:0001b9d0       ?OnWndMsg@CWnd@@MAEHIIJPAJ@Z 1001c9d0 f   mfc140:mfc140.dll
 0001:0001b9d6       ?DefWindowProcA@CWnd@@MAEJIIJ@Z 1001c9d6 f   mfc140:mfc140.dll
 0001:0001b9dc       ?PostNcDestroy@CWnd@@MAEXXZ 1001c9dc f   mfc140:mfc140.dll
 0001:0001b9e2       ?OnChildNotify@CWnd@@MAEHIIJPAJ@Z 1001c9e2 f   mfc140:mfc140.dll
 0001:0001b9e8       ?OnTouchInputs@CWnd@@MAEHIPAUtagTOUCHINPUT@@@Z 1001c9e8 f   mfc140:mfc140.dll
 0001:0001b9ee       ?OnTouchInput@CWnd@@MAEHVCPoint@@HHPAUtagTOUCHINPUT@@@Z 1001c9ee f   mfc140:mfc140.dll
 0001:0001b9f4       ?GetGestureStatus@CWnd@@MAEKVCPoint@@@Z 1001c9f4 f   mfc140:mfc140.dll
 0001:0001b9fa       ?OnGestureZoom@CWnd@@MAEHVCPoint@@J@Z 1001c9fa f   mfc140:mfc140.dll
 0001:0001ba00       ?OnGesturePan@CWnd@@MAEHVCPoint@@0@Z 1001ca00 f   mfc140:mfc140.dll
 0001:0001ba06       ?OnGestureRotate@CWnd@@MAEHVCPoint@@N@Z 1001ca06 f   mfc140:mfc140.dll
 0001:0001ba0c       ?OnGestureTwoFingerTap@CWnd@@MAEHVCPoint@@@Z 1001ca0c f   mfc140:mfc140.dll
 0001:0001ba12       ?OnGesturePressAndTap@CWnd@@MAEHVCPoint@@J@Z 1001ca12 f   mfc140:mfc140.dll
 0001:0001ba18       ?ResizeDynamicLayout@CWnd@@MAEXXZ 1001ca18 f   mfc140:mfc140.dll
 0001:0001ba1e       ??1CWnd@@UAE@XZ            1001ca1e f   mfc140:mfc140.dll
 0001:0001ba24       ?CheckAutoCenter@CWnd@@UAEHXZ 1001ca24 f   mfc140:mfc140.dll
 0001:0001ba2a       ?IsFrameWnd@CWnd@@UBEHXZ   1001ca2a f   mfc140:mfc140.dll
 0001:0001ba30       ?OnFinalRelease@CWnd@@UAEXXZ 1001ca30 f   mfc140:mfc140.dll
 0001:0001ba36       ?CreateControlContainer@CWnd@@MAEHPAPAVCOleControlContainer@@@Z 1001ca36 f   mfc140:mfc140.dll
 0001:0001ba3c       ?CreateControlSite@CWnd@@MAEHPAVCOleControlContainer@@PAPAVCOleControlSite@@IABU_GUID@@@Z 1001ca3c f   mfc140:mfc140.dll
 0001:0001ba42       ?SetOccDialogInfo@CWnd@@MAEHPAU_AFX_OCC_DIALOG_INFO@@@Z 1001ca42 f   mfc140:mfc140.dll
 0001:0001ba48       ?GetOccDialogInfo@CWnd@@MAEPAU_AFX_OCC_DIALOG_INFO@@XZ 1001ca48 f   mfc140:mfc140.dll
 0001:0001ba4e       ?GetThisMessageMap@CWnd@@KGPBUAFX_MSGMAP@@XZ 1001ca4e f   mfc140:mfc140.dll
 0001:0001ba54       ?AfxRegisterWndClass@@YGPBDIPAUHICON__@@PAUHBRUSH__@@0@Z 1001ca54 f   mfc140:mfc140.dll
 0001:0001ba5a       ??0CFileFind@@QAE@XZ       1001ca5a f   mfc140:mfc140.dll
 0001:0001ba60       ??1CFileFind@@UAE@XZ       1001ca60 f   mfc140:mfc140.dll
 0001:0001ba66       ?FindFile@CFileFind@@UAEHPBDK@Z 1001ca66 f   mfc140:mfc140.dll
 0001:0001ba6c       ?AfxGetModuleState@@YGPAVAFX_MODULE_STATE@@XZ 1001ca6c f   mfc140:mfc140.dll
 0001:0001ba72       ?OnDestroy@CWnd@@IAEXXZ    1001ca72 f   mfc140:mfc140.dll
 0001:0001ba78       ?Default@CWnd@@IAEJXZ      1001ca78 f   mfc140:mfc140.dll
 0001:0001ba7e       ?AfxThrowMemoryException@@YGXXZ 1001ca7e f   mfc140:mfc140.dll
 0001:0001ba84       ?AfxThrowArchiveException@@YGXHPBD@Z 1001ca84 f   mfc140:mfc140.dll
 0001:0001ba8a       ?AfxThrowOleException@@YGXJ@Z 1001ca8a f   mfc140:mfc140.dll
 0001:0001ba90       ?GetRuntimeClass@CObject@@UBEPAUCRuntimeClass@@XZ 1001ca90 f   mfc140:mfc140.dll
 0001:0001ba96       ?GetBufferSetLength@?$CSimpleStringT@D$00@ATL@@QAEPADH@Z 1001ca96 f   mfc140:mfc140.dll
 0001:0001ba9c       ?ReleaseBuffer@?$CSimpleStringT@D$00@ATL@@QAEXH@Z 1001ca9c f   mfc140:mfc140.dll
 0001:0001baa2       ?Concatenate@?$CSimpleStringT@D$00@ATL@@KAXAAV12@PBDH1H@Z 1001caa2 f   mfc140:mfc140.dll
 0001:0001baa8       ??0?$CStringT@DV?$StrTraitMFC_DLL@DV?$ChTraitsCRT@D@ATL@@@@@ATL@@QAE@PAUIAtlStringMgr@1@@Z 1001caa8 f   mfc140:mfc140.dll
 0001:0001baae       ??4?$CStringT@DV?$StrTraitMFC_DLL@DV?$ChTraitsCRT@D@ATL@@@@@ATL@@QAEAAV01@ABV01@@Z 1001caae f   mfc140:mfc140.dll
 0001:0001bab4       ??Y?$CStringT@DV?$StrTraitMFC_DLL@DV?$ChTraitsCRT@D@ATL@@@@@ATL@@QAEAAV01@PBD@Z 1001cab4 f   mfc140:mfc140.dll
 0001:0001baba       ?GetManager@?$CStringT@DV?$StrTraitMFC_DLL@DV?$ChTraitsCRT@D@ATL@@@@@ATL@@QBEPAUIAtlStringMgr@2@XZ 1001caba f   mfc140:mfc140.dll
 0001:0001bac0       ?Compare@?$CStringT@DV?$StrTraitMFC_DLL@DV?$ChTraitsCRT@D@ATL@@@@@ATL@@QBEHPBD@Z 1001cac0 f   mfc140:mfc140.dll
 0001:0001bac6       ?ReverseFind@?$CStringT@DV?$StrTraitMFC_DLL@DV?$ChTraitsCRT@D@ATL@@@@@ATL@@QBEHD@Z 1001cac6 f   mfc140:mfc140.dll
 0001:0001bacc       ?Left@?$CStringT@DV?$StrTraitMFC_DLL@DV?$ChTraitsCRT@D@ATL@@@@@ATL@@QBE?AV12@H@Z 1001cacc f   mfc140:mfc140.dll
 0001:0001bad2       ??0CFile@@QAE@XZ           1001cad2 f   mfc140:mfc140.dll
 0001:0001bad8       ?Open@CFile@@UAEHPBDIPAVCFileException@@@Z 1001cad8 f   mfc140:mfc140.dll
 0001:0001bade       ?GetLength@CFile@@UBE_KXZ  1001cade f   mfc140:mfc140.dll
 0001:0001bae4       ?Read@CFile@@UAEIPAXI@Z    1001cae4 f   mfc140:mfc140.dll
 0001:0001baea       ?Close@CFile@@UAEXXZ       1001caea f   mfc140:mfc140.dll
 0001:0001baf0       ??1CFile@@UAE@XZ           1001caf0 f   mfc140:mfc140.dll
 0001:0001baf6       ?Read@CArchive@@QAEIPAXI@Z 1001caf6 f   mfc140:mfc140.dll
 0001:0001bafc       ?Write@CArchive@@QAEXPBXI@Z 1001cafc f   mfc140:mfc140.dll
 0001:0001bb02       ?ReadCount@CArchive@@QAEKXZ 1001cb02 f   mfc140:mfc140.dll
 0001:0001bb08       ?WriteCount@CArchive@@QAEXK@Z 1001cb08 f   mfc140:mfc140.dll
 0001:0001bb0e       ?Create@CPlex@@SGPAU1@AAPAU1@II@Z 1001cb0e f   mfc140:mfc140.dll
 0001:0001bb14       ?FreeDataChain@CPlex@@QAEXXZ 1001cb14 f   mfc140:mfc140.dll
 0001:0001bb1a       ?OnFinalRelease@CCmdTarget@@UAEXXZ 1001cb1a f   mfc140:mfc140.dll
 0001:0001bb20       ?GetInterfaceMap@CCmdTarget@@MBEPBUAFX_INTERFACEMAP@@XZ 1001cb20 f   mfc140:mfc140.dll
 0001:0001bb26       ?PreTranslateMessage@CWinThread@@UAEHPAUtagMSG@@@Z 1001cb26 f   mfc140:mfc140.dll
 0001:0001bb2c       ?PumpMessage@CWinThread@@UAEHXZ 1001cb2c f   mfc140:mfc140.dll
 0001:0001bb32       ?IsIdleMessage@CWinThread@@UAEHPAUtagMSG@@@Z 1001cb32 f   mfc140:mfc140.dll
 0001:0001bb38       ?ProcessMessageFilter@CWinThread@@UAEHHPAUtagMSG@@@Z 1001cb38 f   mfc140:mfc140.dll
 0001:0001bb3e       ?GetMainWnd@CWinThread@@UAEPAVCWnd@@XZ 1001cb3e f   mfc140:mfc140.dll
 0001:0001bb44       ?Delete@CWinThread@@UAEXXZ 1001cb44 f   mfc140:mfc140.dll
 0001:0001bb4a       ?AfxGetThread@@YGPAVCWinThread@@XZ 1001cb4a f   mfc140:mfc140.dll
 0001:0001bb50       ?GetRuntimeClass@CWinApp@@UBEPAUCRuntimeClass@@XZ 1001cb50 f   mfc140:mfc140.dll
 0001:0001bb56       ??0CWinApp@@QAE@PBD@Z      1001cb56 f   mfc140:mfc140.dll
 0001:0001bb5c       ?GetProfileIntA@CWinApp@@UAEIPBD0H@Z 1001cb5c f   mfc140:mfc140.dll
 0001:0001bb62       ?WriteProfileInt@CWinApp@@UAEHPBD0H@Z 1001cb62 f   mfc140:mfc140.dll
 0001:0001bb68       ?GetProfileStringA@CWinApp@@UAE?AV?$CStringT@DV?$StrTraitMFC_DLL@DV?$ChTraitsCRT@D@ATL@@@@@ATL@@PBD00@Z 1001cb68 f   mfc140:mfc140.dll
 0001:0001bb6e       ?WriteProfileStringA@CWinApp@@UAEHPBD00@Z 1001cb6e f   mfc140:mfc140.dll
 0001:0001bb74       ?GetProfileBinary@CWinApp@@UAEHPBD0PAPAEPAI@Z 1001cb74 f   mfc140:mfc140.dll
 0001:0001bb7a       ?WriteProfileBinary@CWinApp@@UAEHPBD0PAEI@Z 1001cb7a f   mfc140:mfc140.dll
 0001:0001bb80       ?InitLibId@CWinApp@@UAEXXZ 1001cb80 f   mfc140:mfc140.dll
 0001:0001bb86       ?Register@CWinApp@@UAEHXZ  1001cb86 f   mfc140:mfc140.dll
 0001:0001bb8c       ?Unregister@CWinApp@@UAEHXZ 1001cb8c f   mfc140:mfc140.dll
 0001:0001bb92       ?OpenDocumentFile@CWinApp@@UAEPAVCDocument@@PBD@Z 1001cb92 f   mfc140:mfc140.dll
 0001:0001bb98       ?OpenDocumentFile@CWinApp@@UAEPAVCDocument@@PBDH@Z 1001cb98 f   mfc140:mfc140.dll
 0001:0001bb9e       ?AddToRecentFileList@CWinApp@@UAEXPBD@Z 1001cb9e f   mfc140:mfc140.dll
 0001:0001bba4       ?InitApplication@CWinApp@@UAEHXZ 1001cba4 f   mfc140:mfc140.dll
 0001:0001bbaa       ?SaveAllModified@CWinApp@@UAEHXZ 1001cbaa f   mfc140:mfc140.dll
 0001:0001bbb0       ?DoMessageBox@CWinApp@@UAEHPBDII@Z 1001cbb0 f   mfc140:mfc140.dll
 0001:0001bbb6       ?DoWaitCursor@CWinApp@@UAEXH@Z 1001cbb6 f   mfc140:mfc140.dll
 0001:0001bbbc       ?OnDDECommand@CWinApp@@UAEHPAD@Z 1001cbbc f   mfc140:mfc140.dll
 0001:0001bbc2       ?WinHelpA@CWinApp@@UAEXKI@Z 1001cbc2 f   mfc140:mfc140.dll
 0001:0001bbc8       ?HtmlHelpA@CWinApp@@UAEXKI@Z 1001cbc8 f   mfc140:mfc140.dll
 0001:0001bbce       ?WinHelpInternal@CWinApp@@UAEXKI@Z 1001cbce f   mfc140:mfc140.dll
 0001:0001bbd4       ?RegisterWithRestartManager@CWinApp@@UAEJHABV?$CStringT@DV?$StrTraitMFC_DLL@DV?$ChTraitsCRT@D@ATL@@@@@ATL@@@Z 1001cbd4 f   mfc140:mfc140.dll
 0001:0001bbda       ?RegisterWithRestartManager@CWinApp@@UAEJPB_WKP6GKPAX@Z1KK@Z 1001cbda f   mfc140:mfc140.dll
 0001:0001bbe0       ?ApplicationRecoveryCallback@CWinApp@@UAEKPAX@Z 1001cbe0 f   mfc140:mfc140.dll
 0001:0001bbe6       ?GetDataRecoveryHandler@CWinApp@@UAEPAVCDataRecoveryHandler@@XZ 1001cbe6 f   mfc140:mfc140.dll
 0001:0001bbec       ?IsTaskbarInteractionEnabled@CWinApp@@UAEHXZ 1001cbec f   mfc140:mfc140.dll
 0001:0001bbf2       ?InitInstance@CWinApp@@UAEHXZ 1001cbf2 f   mfc140:mfc140.dll
 0001:0001bbf8       ?ExitInstance@CWinApp@@UAEHXZ 1001cbf8 f   mfc140:mfc140.dll
 0001:0001bbfe       ?RestartInstance@CWinApp@@UAEHXZ 1001cbfe f   mfc140:mfc140.dll
 0001:0001bc04       ?Run@CWinApp@@UAEHXZ       1001cc04 f   mfc140:mfc140.dll
 0001:0001bc0a       ?OnIdle@CWinApp@@UAEHJ@Z   1001cc0a f   mfc140:mfc140.dll
 0001:0001bc10       ?ProcessWndProcException@CWinApp@@UAEJPAVCException@@PBUtagMSG@@@Z 1001cc10 f   mfc140:mfc140.dll
 0001:0001bc16       ?LoadAppLangResourceDLL@CWinApp@@UAEPAUHINSTANCE__@@XZ 1001cc16 f   mfc140:mfc140.dll
 0001:0001bc1c       ??1CWinApp@@UAE@XZ         1001cc1c f   mfc140:mfc140.dll
 0001:0001bc22       ?GetThisMessageMap@CWinApp@@KGPBUAFX_MSGMAP@@XZ 1001cc22 f   mfc140:mfc140.dll
 0001:0001bc28       ?LoadSysPolicies@CWinApp@@UAEHXZ 1001cc28 f   mfc140:mfc140.dll
 0001:0001bc2e       ??_V@YAXPAX@Z              1001cc2e f   mfc140:mfc140.dll
 0001:0001bc34       ?Empty@?$CSimpleStringT@D$00@ATL@@QAEXXZ 1001cc34 f   mfc140:mfc140.dll
 0001:0001bc3a       ?Mid@?$CStringT@DV?$StrTraitMFC_DLL@DV?$ChTraitsCRT@D@ATL@@@@@ATL@@QBE?AV12@H@Z 1001cc3a f   mfc140:mfc140.dll
 0001:0001bc40       ?Lookup@CMapStringToString@@QBEHPBDAAV?$CStringT@DV?$StrTraitMFC_DLL@DV?$ChTraitsCRT@D@ATL@@@@@ATL@@@Z 1001cc40 f   mfc140:mfc140.dll
 0001:0001bc46       ??ACMapStringToString@@QAEAAV?$CStringT@DV?$StrTraitMFC_DLL@DV?$ChTraitsCRT@D@ATL@@@@@ATL@@PBD@Z 1001cc46 f   mfc140:mfc140.dll
 0001:0001bc4c       ??A?$CSimpleStringT@D$00@ATL@@QBEDH@Z 1001cc4c f   mfc140:mfc140.dll
 0001:0001bc52       ?GetAt@?$CSimpleStringT@D$00@ATL@@QBEDH@Z 1001cc52 f   mfc140:mfc140.dll
 0001:0001bc58       ?GetBuffer@?$CSimpleStringT@D$00@ATL@@QAEPADH@Z 1001cc58 f   mfc140:mfc140.dll
 0001:0001bc5e       ??4?$CStringT@DV?$StrTraitMFC_DLL@DV?$ChTraitsCRT@D@ATL@@@@@ATL@@QAEAAV01@D@Z 1001cc5e f   mfc140:mfc140.dll
 0001:0001bc64       ??Y?$CStringT@DV?$StrTraitMFC_DLL@DV?$ChTraitsCRT@D@ATL@@@@@ATL@@QAEAAV01@ABV?$CSimpleStringT@D$00@1@@Z 1001cc64 f   mfc140:mfc140.dll
 0001:0001bc6a       ??Y?$CStringT@DV?$StrTraitMFC_DLL@DV?$ChTraitsCRT@D@ATL@@@@@ATL@@QAEAAV01@D@Z 1001cc6a f   mfc140:mfc140.dll
 0001:0001bc70       ?Insert@?$CStringT@DV?$StrTraitMFC_DLL@DV?$ChTraitsCRT@D@ATL@@@@@ATL@@QAEHHPBD@Z 1001cc70 f   mfc140:mfc140.dll
 0001:0001bc76       ?Replace@?$CStringT@DV?$StrTraitMFC_DLL@DV?$ChTraitsCRT@D@ATL@@@@@ATL@@QAEHDD@Z 1001cc76 f   mfc140:mfc140.dll
 0001:0001bc7c       ?Remove@?$CStringT@DV?$StrTraitMFC_DLL@DV?$ChTraitsCRT@D@ATL@@@@@ATL@@QAEHD@Z 1001cc7c f   mfc140:mfc140.dll
 0001:0001bc82       ?Find@?$CStringT@DV?$StrTraitMFC_DLL@DV?$ChTraitsCRT@D@ATL@@@@@ATL@@QBEHDH@Z 1001cc82 f   mfc140:mfc140.dll
 0001:0001bc88       ?Find@?$CStringT@DV?$StrTraitMFC_DLL@DV?$ChTraitsCRT@D@ATL@@@@@ATL@@QBEHPBDH@Z 1001cc88 f   mfc140:mfc140.dll
 0001:0001bc8e       ?MakeReverse@?$CStringT@DV?$StrTraitMFC_DLL@DV?$ChTraitsCRT@D@ATL@@@@@ATL@@QAEAAV12@XZ 1001cc8e f   mfc140:mfc140.dll
 0001:0001bc94       ?TrimRight@?$CStringT@DV?$StrTraitMFC_DLL@DV?$ChTraitsCRT@D@ATL@@@@@ATL@@QAEAAV12@XZ 1001cc94 f   mfc140:mfc140.dll
 0001:0001bc9a       ?TrimLeft@?$CStringT@DV?$StrTraitMFC_DLL@DV?$ChTraitsCRT@D@ATL@@@@@ATL@@QAEAAV12@XZ 1001cc9a f   mfc140:mfc140.dll
 0001:0001bca0       ?Mid@?$CStringT@DV?$StrTraitMFC_DLL@DV?$ChTraitsCRT@D@ATL@@@@@ATL@@QBE?AV12@HH@Z 1001cca0 f   mfc140:mfc140.dll
 0001:0001bca6       ?Right@?$CStringT@DV?$StrTraitMFC_DLL@DV?$ChTraitsCRT@D@ATL@@@@@ATL@@QBE?AV12@H@Z 1001cca6 f   mfc140:mfc140.dll
 0001:0001bcac       ??0CClientDC@@QAE@PAVCWnd@@@Z 1001ccac f   mfc140:mfc140.dll
 0001:0001bcb2       ??1CClientDC@@UAE@XZ       1001ccb2 f   mfc140:mfc140.dll
 0001:0001bcb8       ?Write@CFile@@UAEXPBXI@Z   1001ccb8 f   mfc140:mfc140.dll
 0001:0001bcbe       ??0CPtrArray@@QAE@XZ       1001ccbe f   mfc140:mfc140.dll
 0001:0001bcc4       ?SetSize@CPtrArray@@QAEXHH@Z 1001ccc4 f   mfc140:mfc140.dll
 0001:0001bcca       ??1CPtrArray@@UAE@XZ       1001ccca f   mfc140:mfc140.dll
 0001:0001bcd0       ??0CMapPtrToPtr@@QAE@H@Z   1001ccd0 f   mfc140:mfc140.dll
 0001:0001bcd6       ?Lookup@CMapPtrToPtr@@QBEHPAXAAPAX@Z 1001ccd6 f   mfc140:mfc140.dll
 0001:0001bcdc       ??ACMapPtrToPtr@@QAEAAPAXPAX@Z 1001ccdc f   mfc140:mfc140.dll
 0001:0001bce2       ?RemoveKey@CMapPtrToPtr@@QAEHPAX@Z 1001cce2 f   mfc140:mfc140.dll
 0001:0001bce8       ??1CMapPtrToPtr@@UAE@XZ    1001cce8 f   mfc140:mfc140.dll
 0001:0001bcee       ??0CMapStringToPtr@@QAE@H@Z 1001ccee f   mfc140:mfc140.dll
 0001:0001bcf4       ??ACMapStringToPtr@@QAEAAPAXPBD@Z 1001ccf4 f   mfc140:mfc140.dll
 0001:0001bcfa       ?RemoveAll@CMapStringToPtr@@QAEXXZ 1001ccfa f   mfc140:mfc140.dll
 0001:0001bd00       ??1CMapStringToPtr@@UAE@XZ 1001cd00 f   mfc140:mfc140.dll
 0001:0001bd06       ??0CMapStringToString@@QAE@H@Z 1001cd06 f   mfc140:mfc140.dll
 0001:0001bd0c       ??1CMapStringToString@@UAE@XZ 1001cd0c f   mfc140:mfc140.dll
 0001:0001bd12       ??0COleVariant@@QAE@PBUtagVARIANT@@@Z 1001cd12 f   mfc140:mfc140.dll
 0001:0001bd18       ??0COleVariant@@QAE@JG@Z   1001cd18 f   mfc140:mfc140.dll
 0001:0001bd1e       ??0CSyncObject@@QAE@PBD@Z  1001cd1e f   mfc140:mfc140.dll
 0001:0001bd24       ??1CSyncObject@@UAE@XZ     1001cd24 f   mfc140:mfc140.dll
 0001:0001bd2a       ?GetRuntimeClass@CCriticalSection@@UBEPAUCRuntimeClass@@XZ 1001cd2a f   mfc140:mfc140.dll
 0001:0001bd30       ?MakeLower@?$CStringT@DV?$StrTraitMFC_DLL@DV?$ChTraitsCRT@D@ATL@@@@@ATL@@QAEAAV12@XZ 1001cd30 f   mfc140:mfc140.dll
 0001:0001bd36       ??0CStringArray@@QAE@XZ    1001cd36 f   mfc140:mfc140.dll
 0001:0001bd3c       ?SetSize@CStringArray@@QAEXHH@Z 1001cd3c f   mfc140:mfc140.dll
 0001:0001bd42       ?SetAtGrow@CStringArray@@QAEXHABV?$CStringT@DV?$StrTraitMFC_DLL@DV?$ChTraitsCRT@D@ATL@@@@@ATL@@@Z 1001cd42 f   mfc140:mfc140.dll
 0001:0001bd48       ??1CStringArray@@UAE@XZ    1001cd48 f   mfc140:mfc140.dll
 0001:0001bd4e       ?AddTail@CStringList@@QAEPAU__POSITION@@ABV?$CStringT@DV?$StrTraitMFC_DLL@DV?$ChTraitsCRT@D@ATL@@@@@ATL@@@Z 1001cd4e f   mfc140:mfc140.dll
 0001:0001bd54       ?RemoveAll@CStringList@@QAEXXZ 1001cd54 f   mfc140:mfc140.dll
 0001:0001bd5a       ?RemoveKey@CMapStringToString@@QAEHPBD@Z 1001cd5a f   mfc140:mfc140.dll
 0001:0001bd60       ?GetNextAssoc@CMapStringToString@@QBEXAAPAU__POSITION@@AAV?$CStringT@DV?$StrTraitMFC_DLL@DV?$ChTraitsCRT@D@ATL@@@@@ATL@@1@Z 1001cd60 f   mfc140:mfc140.dll
 0001:0001bd66       ?CollateNoCase@?$CStringT@DV?$StrTraitMFC_DLL@DV?$ChTraitsCRT@D@ATL@@@@@ATL@@QBEHPBD@Z 1001cd66 f   mfc140:mfc140.dll
 0001:0001bd6c       ?Replace@?$CStringT@DV?$StrTraitMFC_DLL@DV?$ChTraitsCRT@D@ATL@@@@@ATL@@QAEHPBD0@Z 1001cd6c f   mfc140:mfc140.dll
 0001:0001bd72       ??0CStdioFile@@QAE@XZ      1001cd72 f   mfc140:mfc140.dll
 0001:0001bd78       ?ReadString@CStdioFile@@UAEHAAV?$CStringT@DV?$StrTraitMFC_DLL@DV?$ChTraitsCRT@D@ATL@@@@@ATL@@@Z 1001cd78 f   mfc140:mfc140.dll
 0001:0001bd7e       ??1CStdioFile@@UAE@XZ      1001cd7e f   mfc140:mfc140.dll
 0001:0001bd84       ?Open@CStdioFile@@UAEHPBDIPAVCFileException@@@Z 1001cd84 f   mfc140:mfc140.dll
 0001:0001bd8a       ?Close@CStdioFile@@UAEXXZ  1001cd8a f   mfc140:mfc140.dll
 0001:0001bd90       ?SetAtGrow@CStringArray@@QAEXHPBD@Z 1001cd90 f   mfc140:mfc140.dll
 0001:0001bd96       ?InsertAt@CStringArray@@QAEXHABV?$CStringT@DV?$StrTraitMFC_DLL@DV?$ChTraitsCRT@D@ATL@@@@@ATL@@H@Z 1001cd96 f   mfc140:mfc140.dll
 0001:0001bd9c       ??$SerializeElements@V?$CStringT@DV?$StrTraitMFC_DLL@DV?$ChTraitsCRT@D@ATL@@@@@ATL@@@@YGXAAVCArchive@@PAV?$CStringT@DV?$StrTraitMFC_DLL@DV?$ChTraitsCRT@D@ATL@@@@@ATL@@H@Z 1001cd9c f   mfc140:mfc140.dll
 0001:0001bda2       ??$HashKey@PBD@@YGIPBD@Z   1001cda2 f   mfc140:mfc140.dll
 0001:0001bda8       ??0?$CStringT@DV?$StrTraitMFC_DLL@DV?$ChTraitsCRT@D@ATL@@@@@ATL@@QAE@PBE@Z 1001cda8 f   mfc140:mfc140.dll
 0001:0001bdae       ?AfxExtractSubString@@YGHAAV?$CStringT@DV?$StrTraitMFC_DLL@DV?$ChTraitsCRT@D@ATL@@@@@ATL@@PBDHD@Z 1001cdae f   mfc140:mfc140.dll
 0001:0001bdb4       ?AfxGetClassIDFromString@@YGJPBDPAU_GUID@@@Z 1001cdb4 f   mfc140:mfc140.dll
 0001:0001bdba       ??$AtlAdd@H@ATL@@YAJPAHHH@Z 1001cdba f i mfcs140:nolib.obj
 0001:0001bde0       ??$AtlAdd@I@ATL@@YAJPAIII@Z 1001cde0 f i mfcs140:nolib.obj
 0001:0001be03       ??$AtlAdd@K@ATL@@YAJPAKKK@Z 1001ce03 f i mfcs140:nolib.obj
 0001:0001be26       ??$AtlAlignUp@H@ATL@@YGHHK@Z 1001ce26 f i mfcs140:nolib.obj
 0001:0001be3a       ??$AtlMultiply@I@ATL@@YAJPAIII@Z 1001ce3a f i mfcs140:nolib.obj
 0001:0001be5c       ??$AtlMultiply@K@ATL@@YAJPAKKK@Z 1001ce5c f i mfcs140:nolib.obj
 0001:0001be7e       ??0?$CSimpleArray@GV?$CSimpleArrayEqualHelper@G@ATL@@@ATL@@QAE@XZ 1001ce7e f i mfcs140:nolib.obj
 0001:0001be8b       ??0?$CTraceCategoryEx@$00$0A@@ATL@@QAE@PBD@Z 1001ce8b f i mfcs140:nolib.obj
 0001:0001be90       ??0?$CTraceCategoryEx@$01$0A@@ATL@@QAE@PBD@Z 1001ce90 f i mfcs140:nolib.obj
 0001:0001be95       ??0?$CTraceCategoryEx@$03$0A@@ATL@@QAE@PBD@Z 1001ce95 f i mfcs140:nolib.obj
 0001:0001be9a       ??0?$CTraceCategoryEx@$07$0A@@ATL@@QAE@PBD@Z 1001ce9a f i mfcs140:nolib.obj
 0001:0001be9f       ??0?$CTraceCategoryEx@$0BA@$0A@@ATL@@QAE@PBD@Z 1001ce9f f i mfcs140:nolib.obj
 0001:0001bea4       ??0?$CTraceCategoryEx@$0BAA@$0A@@ATL@@QAE@PBD@Z 1001cea4 f i mfcs140:nolib.obj
 0001:0001bea9       ??0?$CTraceCategoryEx@$0BAAA@$0A@@ATL@@QAE@PBD@Z 1001cea9 f i mfcs140:nolib.obj
 0001:0001beae       ??0?$CTraceCategoryEx@$0BAAAA@$0A@@ATL@@QAE@PBD@Z 1001ceae f i mfcs140:nolib.obj
 0001:0001beb3       ??0?$CTraceCategoryEx@$0BAAAAA@$0A@@ATL@@QAE@PBD@Z 1001ceb3 f i mfcs140:nolib.obj
 0001:0001beb8       ??0?$CTraceCategoryEx@$0CA@$0A@@ATL@@QAE@PBD@Z 1001ceb8 f i mfcs140:nolib.obj
 0001:0001bebd       ??0?$CTraceCategoryEx@$0CAA@$0A@@ATL@@QAE@PBD@Z 1001cebd f i mfcs140:nolib.obj
 0001:0001bec2       ??0?$CTraceCategoryEx@$0CAAA@$0A@@ATL@@QAE@PBD@Z 1001cec2 f i mfcs140:nolib.obj
 0001:0001bec7       ??0?$CTraceCategoryEx@$0CAAAA@$0A@@ATL@@QAE@PBD@Z 1001cec7 f i mfcs140:nolib.obj
 0001:0001becc       ??0?$CTraceCategoryEx@$0CAAAAA@$0A@@ATL@@QAE@PBD@Z 1001cecc f i mfcs140:nolib.obj
 0001:0001bed1       ??0?$CTraceCategoryEx@$0EA@$0A@@ATL@@QAE@PBD@Z 1001ced1 f i mfcs140:nolib.obj
 0001:0001bed6       ??0?$CTraceCategoryEx@$0EAA@$0A@@ATL@@QAE@PBD@Z 1001ced6 f i mfcs140:nolib.obj
 0001:0001bedb       ??0?$CTraceCategoryEx@$0EAAA@$0A@@ATL@@QAE@PBD@Z 1001cedb f i mfcs140:nolib.obj
 0001:0001bee0       ??0?$CTraceCategoryEx@$0EAAAA@$0A@@ATL@@QAE@PBD@Z 1001cee0 f i mfcs140:nolib.obj
 0001:0001bee5       ??0?$CTraceCategoryEx@$0EAAAAA@$0A@@ATL@@QAE@PBD@Z 1001cee5 f i mfcs140:nolib.obj
 0001:0001beea       ??0?$CTraceCategoryEx@$0IA@$0A@@ATL@@QAE@PBD@Z 1001ceea f i mfcs140:nolib.obj
 0001:0001beef       ??0?$CTraceCategoryEx@$0IAA@$0A@@ATL@@QAE@PBD@Z 1001ceef f i mfcs140:nolib.obj
 0001:0001bef4       ??0?$CTraceCategoryEx@$0IAAA@$0A@@ATL@@QAE@PBD@Z 1001cef4 f i mfcs140:nolib.obj
 0001:0001bef9       ??0?$CTraceCategoryEx@$0IAAAA@$0A@@ATL@@QAE@PBD@Z 1001cef9 f i mfcs140:nolib.obj
 0001:0001befe       ??0CAtlComModule@ATL@@QAE@XZ 1001cefe f i mfcs140:nolib.obj
 0001:0001bf3d       ??0CAtlStringMgr@ATL@@QAE@PAUIAtlMemMgr@1@@Z 1001cf3d f i mfcs140:nolib.obj
 0001:0001bf69       ??0CAtlStringMgrStaticInitializer@ATLImplementationDetails@ATL@@QAE@XZ 1001cf69 f i mfcs140:nolib.obj
 0001:0001bf75       ??0CAtlWinModule@ATL@@QAE@XZ 1001cf75 f i mfcs140:nolib.obj
 0001:0001bfa3       ??0CComCriticalSection@ATL@@QAE@XZ 1001cfa3 f i mfcs140:nolib.obj
 0001:0001bfb7       ??0CNilStringData@ATL@@QAE@XZ 1001cfb7 f i mfcs140:nolib.obj
 0001:0001bfce       ??0CWin32Heap@ATL@@QAE@PAX@Z 1001cfce f i mfcs140:nolib.obj
 0001:0001bfe7       ??0_ATL_COM_MODULE70@ATL@@QAE@XZ 1001cfe7 f i mfcs140:nolib.obj
 0001:0001bffe       ??0_ATL_WIN_MODULE70@ATL@@QAE@XZ 1001cffe f i mfcs140:nolib.obj
 0001:0001c029       ??1?$CSimpleArray@GV?$CSimpleArrayEqualHelper@G@ATL@@@ATL@@QAE@XZ 1001d029 f i mfcs140:nolib.obj
 0001:0001c02e       ??1CAtlComModule@ATL@@QAE@XZ 1001d02e f i mfcs140:nolib.obj
 0001:0001c067       ??1CAtlWinModule@ATL@@QAE@XZ 1001d067 f i mfcs140:nolib.obj
 0001:0001c07f       ??1CComBSTR@ATL@@QAE@XZ    1001d07f f i mfcs140:nolib.obj
 0001:0001c088       ??1CComCriticalSection@ATL@@QAE@XZ 1001d088 f i mfcs140:nolib.obj
 0001:0001c08b       ??1_ATL_COM_MODULE70@ATL@@QAE@XZ 1001d08b f i mfcs140:nolib.obj
 0001:0001c08e       ??1_ATL_WIN_MODULE70@ATL@@QAE@XZ 1001d08e f i mfcs140:nolib.obj
 0001:0001c096       ??1stringdispid@CComTypeInfoHolder@ATL@@QAE@XZ 1001d096 f i mfcs140:nolib.obj
 0001:0001c09f       ??A?$CSimpleArray@GV?$CSimpleArrayEqualHelper@G@ATL@@@ATL@@QAEAAGH@Z 1001d09f f i mfcs140:nolib.obj
 0001:0001c0c4       ??_Estringdispid@CComTypeInfoHolder@ATL@@QAEPAXI@Z 1001d0c4 f i mfcs140:nolib.obj
 0001:0001c14f       ?AddRef@CStringData@ATL@@QAEXXZ 1001d14f f i mfcs140:nolib.obj
 0001:0001c154       ?AtlWinModuleInit@ATL@@YGJPAU_ATL_WIN_MODULE70@1@@Z 1001d154 f i mfcs140:nolib.obj
 0001:0001c17a       ?AtlWinModuleTerm@ATL@@YGJPAU_ATL_WIN_MODULE70@1@PAUHINSTANCE__@@@Z 1001d17a f i mfcs140:nolib.obj
 0001:0001c1dc       ?GetInstance@CAtlStringMgr@ATL@@SAPAUIAtlStringMgr@2@XZ 1001d1dc f i mfcs140:nolib.obj
 0001:0001c246       ?GetModuleInstance@CAtlBaseModule@ATL@@QAEPAUHINSTANCE__@@XZ 1001d246 f i mfcs140:nolib.obj
 0001:0001c24a       ?GetSize@?$CSimpleArray@GV?$CSimpleArrayEqualHelper@G@ATL@@@ATL@@QBEHXZ 1001d24a f i mfcs140:nolib.obj
 0001:0001c24e       ?Init@CComCriticalSection@ATL@@QAEJXZ 1001d24e f i mfcs140:nolib.obj
 0001:0001c276       ?RemoveAll@?$CSimpleArray@GV?$CSimpleArrayEqualHelper@G@ATL@@@ATL@@QAEXXZ 1001d276 f i mfcs140:nolib.obj
 0001:0001c294       ?SetManager@CNilStringData@ATL@@QAEXPAUIAtlStringMgr@2@@Z 1001d294 f i mfcs140:nolib.obj
 0001:0001c2a0       ?Term@CAtlComModule@ATL@@QAEXXZ 1001d2a0 f i mfcs140:nolib.obj
 0001:0001c2ff       ?Term@CAtlWinModule@ATL@@QAEXXZ 1001d2ff f i mfcs140:nolib.obj
 0001:0001c30c       ?Term@CComCriticalSection@ATL@@QAEJXZ 1001d30c f i mfcs140:nolib.obj
 0001:0001c316       _HRESULT_FROM_WIN32        1001d316 f i mfcs140:nolib.obj
 0001:0001c32a       _IsolationAwareActivateActCtx@8 1001d32a f i mfcs140:nolib.obj
 0001:0001c36d       _IsolationAwareCreateActCtxW@4 1001d36d f i mfcs140:nolib.obj
 0001:0001c3b2       _IsolationAwareDeactivateActCtx@8 1001d3b2 f i mfcs140:nolib.obj
 0001:0001c3f5       _IsolationAwareFindActCtxSectionStringW@20 1001d3f5 f i mfcs140:nolib.obj
 0001:0001c441       _IsolationAwarePrivatenPgViNgRzlnPgpgk@4 1001d441 f i mfcs140:nolib.obj
 0001:0001c4bc       _IsolationAwarePrivatezltRgCebPnQQeRff@12 1001d4bc f i mfcs140:nolib.obj
 0001:0001c4fa       _IsolationAwarePrivatezltRgzbQhYRuNaQYRJ@4 1001d4fa f i mfcs140:nolib.obj
 0001:0001c504       _IsolationAwarePrivatezltRgzbQhYRuNaQYRn@4 1001d504 f i mfcs140:nolib.obj
 0001:0001c50e       _IsolationAwareQueryActCtxW@28 1001d50e f i mfcs140:nolib.obj
 0001:0001c560       _IsolationAwareUnregisterClassA@8 1001d560 f i mfcs140:nolib.obj
 0001:0001c60a       _WinbaseIsolationAwarePrivatetRgCebPnQQeRff_xReaRYQP_QYY@4 1001d60a f i mfcs140:nolib.obj
 0001:0001c623       _WinbaseIsolationAwarePrivatetRgzlnPgpgk@0 1001d623 f i mfcs140:nolib.obj
 0001:0001c7ef       _RawDllMain@12             1001d7ef f   mfcs140:dllmodul.obj
 0001:0001c842       ??0_AFX_DLL_MODULE_STATE@@QAE@XZ 1001d842 f i mfcs140:dllmodul.obj
 0001:0001c86a       ??1_AFX_DLL_MODULE_STATE@@UAE@XZ 1001d86a f i mfcs140:dllmodul.obj
 0001:0001c86f       ??_G_AFX_DLL_MODULE_STATE@@UAEPAXI@Z 1001d86f f i mfcs140:dllmodul.obj
 0001:0001c86f       ??_E_AFX_DLL_MODULE_STATE@@UAEPAXI@Z 1001d86f f i mfcs140:dllmodul.obj
 0001:0001c8a2       ?AfxGetStaticModuleState@@YGPAVAFX_MODULE_STATE@@XZ 1001d8a2 f   mfcs140:dllmodul.obj
 0001:0001c8a8       ?AfxWndProcDllStatic@@YGJPAUHWND__@@IIJ@Z 1001d8a8 f   mfcs140:dllmodul.obj
 0001:0001c8ef       _DllMain@12                1001d8ef f   mfcs140:dllmodul.obj
 0001:0001c938       _InternalDllMain@12        1001d938 f   mfcs140:dllmodul.obj
 0001:0001cabe       ??2CObject@@SGPAXI@Z       1001dabe f i mfcs140:dllmodulx.obj
 0001:0001cace       ?AfxGetApp@@YGPAVCWinApp@@XZ 1001dace f i mfcs140:dllmodulx.obj
 0001:0001cad7       __AfxDllModulHelper        1001dad7 f   mfcs140:dllmodulx.obj
 0001:0001cb24       ??3@YAXPAXI@Z              1001db24 f   msvcrt:delete_scalar_size.obj
 0001:0001cb32       @__security_check_cookie@4 1001db32 f   msvcrt:secchk.obj
 0001:0001cb40       ??1type_info@@UAE@XZ       1001db40 f   msvcrt:std_type_info_static.obj
 0001:0001cb47       ??_Etype_info@@UAEPAXI@Z   1001db47 f i msvcrt:std_type_info_static.obj
 0001:0001cb47       ??_Gtype_info@@UAEPAXI@Z   1001db47 f i msvcrt:std_type_info_static.obj
 0001:0001cb6a       ?configure_argv@__scrt_narrow_argv_policy@@SAHXZ 1001db6a f i msvcrt:utility.obj
 0001:0001cbbb       ?initialize_environment@__scrt_narrow_environment_policy@@SAHXZ 1001dbbb f i msvcrt:utility.obj
 0001:0001cbf4       _NtCurrentTeb              1001dbf4 f i msvcrt:utility.obj
 0001:0001cbfb       ___scrt_acquire_startup_lock 1001dbfb f   msvcrt:utility.obj
 0001:0001cc2d       ___scrt_dllmain_after_initialize_c 1001dc2d f   msvcrt:utility.obj
 0001:0001cc58       ___scrt_dllmain_before_initialize_c 1001dc58 f   msvcrt:utility.obj
 0001:0001cc66       ___scrt_dllmain_crt_thread_attach 1001dc66 f   msvcrt:utility.obj
 0001:0001cc85       ___scrt_dllmain_crt_thread_detach 1001dc85 f   msvcrt:utility.obj
 0001:0001cc92       ___scrt_dllmain_exception_filter 1001dc92 f   msvcrt:utility.obj
 0001:0001ccc6       ___scrt_dllmain_uninitialize_c 1001dcc6 f   msvcrt:utility.obj
 0001:0001cce9       ___scrt_dllmain_uninitialize_critical 1001dce9 f   msvcrt:utility.obj
 0001:0001ccf6       ___scrt_initialize_crt     1001dcf6 f   msvcrt:utility.obj
 0001:0001cd2f       ___scrt_initialize_onexit_tables 1001dd2f f   msvcrt:utility.obj
 0001:0001cdb6       ___scrt_is_nonwritable_in_current_image 1001ddb6 f   msvcrt:utility.obj
 0001:0001ce4a       ___scrt_release_startup_lock 1001de4a f   msvcrt:utility.obj
 0001:0001ce67       ___scrt_uninitialize_crt   1001de67 f   msvcrt:utility.obj
 0001:0001ce8f       __onexit                   1001de8f f   msvcrt:utility.obj
 0001:0001cebc       _at_quick_exit             1001debc f   msvcrt:utility.obj
 0001:0001cedf       _atexit                    1001dedf f   msvcrt:utility.obj
 0001:0001cfb9       __Init_thread_abort        1001dfb9 f   msvcrt:thread_safe_statics.obj
 0001:0001cfdd       __Init_thread_footer       1001dfdd f   msvcrt:thread_safe_statics.obj
 0001:0001d027       __Init_thread_header       1001e027 f   msvcrt:thread_safe_statics.obj
 0001:0001d079       __Init_thread_lock         1001e079 f   msvcrt:thread_safe_statics.obj
 0001:0001d085       __Init_thread_notify       1001e085 f   msvcrt:thread_safe_statics.obj
 0001:0001d0bb       __Init_thread_unlock       1001e0bb f   msvcrt:thread_safe_statics.obj
 0001:0001d0c7       __Init_thread_wait         1001e0c7 f   msvcrt:thread_safe_statics.obj
 0001:0001d115       ??_L@YGXPAXIHP6EX0@Z1@Z    1001e115 f   msvcrt:ehvecctr.obj
 0001:0001d11a       ??_L@YGXPAXIIP6EX0@Z1@Z    1001e11a f   msvcrt:ehvecctr.obj
 0001:0001d18e       ??_M@YGXPAXIHP6EX0@Z@Z     1001e18e f   msvcrt:ehvecdtr.obj
 0001:0001d193       ??_M@YGXPAXIIP6EX0@Z@Z     1001e193 f   msvcrt:ehvecdtr.obj
 0001:0001d247       ?__ArrayUnwind@@YGXPAXIIP6EX0@Z@Z 1001e247 f   msvcrt:ehvecdtr.obj
 0001:0001d2d7       ___raise_securityfailure   1001e2d7 f   msvcrt:gs_report.obj
 0001:0001d2ff       ___report_gsfailure        1001e2ff f   msvcrt:gs_report.obj
 0001:0001d3f9       ___report_rangecheckfailure 1001e3f9 f   msvcrt:gs_report.obj
 0001:0001d405       ___report_securityfailure  1001e405 f   msvcrt:gs_report.obj
 0001:0001d4d4       ___report_securityfailureEx 1001e4d4 f   msvcrt:gs_report.obj
 0001:0001d5f0       __chkstk                   1001e5f0 f   msvcrt:chkstk.obj
 0001:0001d5f0       __alloca_probe             1001e5f0 f   msvcrt:chkstk.obj
 0001:0001d620       __alloca_probe_16          1001e620 f   msvcrt:alloca16.obj
 0001:0001d636       __alloca_probe_8           1001e636     msvcrt:alloca16.obj
 0001:0001d98c       __CRT_INIT@12              1001e98c f   msvcrt:dll_dllmain.obj
 0001:0001d995       __DllMainCRTStartup@12     1001e995 f   msvcrt:dll_dllmain.obj
 0001:0001d9b8       ??_V@YAXPAXI@Z             1001e9b8 f   msvcrt:delete_array_size.obj
 0001:0001d9c6       __EH_epilog3               1001e9c6 f   msvcrt:ehprolg3.obj
 0001:0001d9da       __EH_epilog3_GS            1001e9da f   msvcrt:ehprolg3.obj
 0001:0001d9e9       __EH_epilog3_catch_GS      1001e9e9 f   msvcrt:ehprolg3.obj
 0001:0001d9f8       __EH_prolog3               1001e9f8 f   msvcrt:ehprolg3.obj
 0001:0001da2b       __EH_prolog3_GS            1001ea2b f   msvcrt:ehprolg3.obj
 0001:0001da61       __EH_prolog3_catch         1001ea61 f   msvcrt:ehprolg3.obj
 0001:0001da97       __EH_prolog3_catch_GS      1001ea97 f   msvcrt:ehprolg3.obj
 0001:0001dad0       __SEH_prolog4              1001ead0 f   msvcrt:sehprolg4.obj
 0001:0001db20       __SEH_epilog4              1001eb20 f   msvcrt:sehprolg4.obj
 0001:0001db40       __SEH_prolog4_GS           1001eb40 f   msvcrt:sehprolg4gs.obj
 0001:0001db90       __SEH_epilog4_GS           1001eb90 f   msvcrt:sehprolg4gs.obj
 0001:0001db9f       __except_handler4          1001eb9f f   msvcrt:chandler4gs.obj
 0001:0001dbce       @_guard_check_icall_nop@4  1001ebce f i msvcrt:guard_support.obj
 0001:0001dbd1       _ReadNoFence               1001ebd1 f i msvcrt:guard_support.obj
 0001:0001dbdb       _ReadPointerNoFence        1001ebdb f i msvcrt:guard_support.obj
 0001:0001dbe5       ___castguard_check_failure_debugbreak 1001ebe5 f i msvcrt:guard_support.obj
 0001:0001dc00       ___castguard_check_failure_fastfail 1001ec00 f i msvcrt:guard_support.obj
 0001:0001dc1f       ___castguard_check_failure_nop 1001ec1f f i msvcrt:guard_support.obj
 0001:0001dc22       ___castguard_check_failure_os_handled 1001ec22 f i msvcrt:guard_support.obj
 0001:0001dc76       ___castguard_slow_path_check_debugbreak 1001ec76 f i msvcrt:guard_support.obj
 0001:0001dca3       ___castguard_slow_path_check_fastfail 1001eca3 f i msvcrt:guard_support.obj
 0001:0001dcd4       ___castguard_slow_path_check_nop 1001ecd4 f i msvcrt:guard_support.obj
 0001:0001dcd7       ___castguard_slow_path_check_os_handled 1001ecd7 f i msvcrt:guard_support.obj
 0001:0001dd3d       __guard_icall_checks_enforced 1001ed3d f i msvcrt:guard_support.obj
 0001:0001dd4f       ___isa_available_init      1001ed4f f   msvcrt:cpu_disp.obj
 0001:0001df20       __get_startup_argv_mode    1001ef20 f   msvcrt:argv_mode.obj
 0001:0001df24       ___scrt_is_ucrt_dll_in_use 1001ef24 f   msvcrt:ucrt_detection.obj
 0001:0001df30       ___scrt_fastfail           1001ef30 f   msvcrt:utility_desktop.obj
 0001:0001e04b       ___scrt_get_show_window_mode 1001f04b f   msvcrt:utility_desktop.obj
 0001:0001e07c       ___scrt_initialize_mta     1001f07c f   msvcrt:utility_desktop.obj
 0001:0001e081       ___scrt_initialize_winrt   1001f081 f   msvcrt:utility_desktop.obj
 0001:0001e084       ___scrt_is_managed_app     1001f084 f   msvcrt:utility_desktop.obj
 0001:0001e0c7       ___scrt_set_unhandled_exception_filter 1001f0c7 f   msvcrt:utility_desktop.obj
 0001:0001e0d3       ___scrt_stub_for_initialize_mta 1001f0d3 f   msvcrt:utility_desktop.obj
 0001:0001e0d3       ___scrt_exe_initialize_mta 1001f0d3 f   msvcrt:utility_desktop.obj
 0001:0001e0d6       ___scrt_unhandled_exception_filter@4 1001f0d6 f   msvcrt:utility_desktop.obj
 0001:0001e12c       __crt_debugger_hook        1001f12c f   msvcrt:utility_desktop.obj
 0001:0001e181       ___security_init_cookie    1001f181 f   msvcrt:gs_support.obj
 0001:0001e1cc       ?__scrt_initialize_type_info@@YAXXZ 1001f1cc f   msvcrt:tncleanup.obj
 0001:0001e1d8       ?__scrt_uninitialize_type_info@@YAXXZ 1001f1d8 f   msvcrt:tncleanup.obj
 0001:0001e1e4       ___scrt_initialize_default_local_stdio_options 1001f1e4 f   msvcrt:default_local_stdio_options.obj
 0001:0001e201       ___scrt_get_dyn_tls_init_callback 1001f201 f   msvcrt:dyn_tls_init.obj
 0001:0001e207       __RTC_Initialize           1001f207 f   msvcrt:initsect.obj
 0001:0001e233       __RTC_Terminate            1001f233 f   msvcrt:initsect.obj
 0001:0001e25f       _FreeLibrary@4             1001f25f f   kernel32:KERNEL32.dll
 0001:0001e265       _GetProcAddress@8          1001f265 f   kernel32:KERNEL32.dll
 0001:0001e26b       _LoadLibraryA@4            1001f26b f   kernel32:KERNEL32.dll
 0001:0001e271       _SetEnvironmentVariableA@8 1001f271 f   kernel32:KERNEL32.dll
 0001:0001e277       _DeleteFileA@4             1001f277 f   kernel32:KERNEL32.dll
 0001:0001e27d       _GetModuleFileNameA@12     1001f27d f   kernel32:KERNEL32.dll
 0001:0001e283       _GetModuleHandleA@4        1001f283 f   kernel32:KERNEL32.dll
 0001:0001e289       _GetPrivateProfileIntA@16  1001f289 f   kernel32:KERNEL32.dll
 0001:0001e28f       _GetPrivateProfileStringA@24 1001f28f f   kernel32:KERNEL32.dll
 0001:0001e295       _WritePrivateProfileStringA@16 1001f295 f   kernel32:KERNEL32.dll
 0001:0001e29b       _DecodePointer@4           1001f29b f   kernel32:KERNEL32.dll
 0001:0001e2a1       _RaiseException@16         1001f2a1 f   kernel32:KERNEL32.dll
 0001:0001e2a7       _GetLastError@0            1001f2a7 f   kernel32:KERNEL32.dll
 0001:0001e2ad       _HeapDestroy@4             1001f2ad f   kernel32:KERNEL32.dll
 0001:0001e2b3       _HeapAlloc@12              1001f2b3 f   kernel32:KERNEL32.dll
 0001:0001e2b9       _HeapReAlloc@16            1001f2b9 f   kernel32:KERNEL32.dll
 0001:0001e2bf       _HeapFree@12               1001f2bf f   kernel32:KERNEL32.dll
 0001:0001e2c5       _HeapSize@12               1001f2c5 f   kernel32:KERNEL32.dll
 0001:0001e2cb       _GetProcessHeap@0          1001f2cb f   kernel32:KERNEL32.dll
 0001:0001e2d1       _InitializeCriticalSectionEx@12 1001f2d1 f   kernel32:KERNEL32.dll
 0001:0001e2d7       _DeleteCriticalSection@4   1001f2d7 f   kernel32:KERNEL32.dll
 0001:0001e2dd       _CreateFileA@28            1001f2dd f   kernel32:KERNEL32.dll
 0001:0001e2e3       _WriteFile@20              1001f2e3 f   kernel32:KERNEL32.dll
 0001:0001e2e9       _CloseHandle@4             1001f2e9 f   kernel32:KERNEL32.dll
 0001:0001e2ef       _GetTickCount@0            1001f2ef f   kernel32:KERNEL32.dll
 0001:0001e2f5       _MulDiv@12                 1001f2f5 f   kernel32:KERNEL32.dll
 0001:0001e2fb       _lstrcpyA@8                1001f2fb f   kernel32:KERNEL32.dll
 0001:0001e301       _MultiByteToWideChar@24    1001f301 f   kernel32:KERNEL32.dll
 0001:0001e307       _OutputDebugStringA@4      1001f307 f   kernel32:KERNEL32.dll
 0001:0001e30d       _EnterCriticalSection@4    1001f30d f   kernel32:KERNEL32.dll
 0001:0001e313       _LeaveCriticalSection@4    1001f313 f   kernel32:KERNEL32.dll
 0001:0001e319       _InitializeCriticalSectionAndSpinCount@8 1001f319 f   kernel32:KERNEL32.dll
 0001:0001e31f       _GetPrivateProfileSectionA@16 1001f31f f   kernel32:KERNEL32.dll
 0001:0001e325       _SetCurrentDirectoryA@4    1001f325 f   kernel32:KERNEL32.dll
 0001:0001e32b       _GetCurrentDirectoryA@8    1001f32b f   kernel32:KERNEL32.dll
 0001:0001e331       _GetLongPathNameA@12       1001f331 f   kernel32:KERNEL32.dll
 0001:0001e337       _WaitForSingleObject@8     1001f337 f   kernel32:KERNEL32.dll
 0001:0001e33d       _GetExitCodeProcess@8      1001f33d f   kernel32:KERNEL32.dll
 0001:0001e343       _CreateProcessA@40         1001f343 f   kernel32:KERNEL32.dll
 0001:0001e349       _GetWindowsDirectoryA@8    1001f349 f   kernel32:KERNEL32.dll
 0001:0001e34f       _LocalFree@4               1001f34f f   kernel32:KERNEL32.dll
 0001:0001e355       _FormatMessageA@28         1001f355 f   kernel32:KERNEL32.dll
 0001:0001e35b       _WideCharToMultiByte@32    1001f35b f   kernel32:KERNEL32.dll
 0001:0001e361       _GetEnvironmentVariableA@12 1001f361 f   kernel32:KERNEL32.dll
 0001:0001e367       _SetLastError@4            1001f367 f   kernel32:KERNEL32.dll
 0001:0001e36d       _GetModuleFileNameW@12     1001f36d f   kernel32:KERNEL32.dll
 0001:0001e373       _GetModuleHandleW@4        1001f373 f   kernel32:KERNEL32.dll
 0001:0001e379       _LoadLibraryW@4            1001f379 f   kernel32:KERNEL32.dll
 0001:0001e37f       _LocalAlloc@8              1001f37f f   kernel32:KERNEL32.dll
 0001:0001e385       _SetEvent@4                1001f385 f   kernel32:KERNEL32.dll
 0001:0001e38b       _ResetEvent@4              1001f38b f   kernel32:KERNEL32.dll
 0001:0001e391       _WaitForSingleObjectEx@12  1001f391 f   kernel32:KERNEL32.dll
 0001:0001e397       _CreateEventW@16           1001f397 f   kernel32:KERNEL32.dll
 0001:0001e39d       _UnhandledExceptionFilter@4 1001f39d f   kernel32:KERNEL32.dll
 0001:0001e3a3       _SetUnhandledExceptionFilter@4 1001f3a3 f   kernel32:KERNEL32.dll
 0001:0001e3a9       _GetCurrentProcess@0       1001f3a9 f   kernel32:KERNEL32.dll
 0001:0001e3af       _TerminateProcess@8        1001f3af f   kernel32:KERNEL32.dll
 0001:0001e3b5       _IsProcessorFeaturePresent@4 1001f3b5 f   kernel32:KERNEL32.dll
 0001:0001e3bb       _IsDebuggerPresent@0       1001f3bb f   kernel32:KERNEL32.dll
 0001:0001e3c1       _GetStartupInfoW@4         1001f3c1 f   kernel32:KERNEL32.dll
 0001:0001e3c7       _QueryPerformanceCounter@4 1001f3c7 f   kernel32:KERNEL32.dll
 0001:0001e3cd       _GetCurrentProcessId@0     1001f3cd f   kernel32:KERNEL32.dll
 0001:0001e3d3       _GetCurrentThreadId@0      1001f3d3 f   kernel32:KERNEL32.dll
 0001:0001e3d9       _GetSystemTimeAsFileTime@4 1001f3d9 f   kernel32:KERNEL32.dll
 0001:0001e3df       _InitializeSListHead@4     1001f3df f   kernel32:KERNEL32.dll
 0001:0001e3e5       _RegisterWindowMessageA@4  1001f3e5 f   user32:USER32.dll
 0001:0001e3eb       _InvalidateRect@12         1001f3eb f   user32:USER32.dll
 0001:0001e3f1       _GetClientRect@8           1001f3f1 f   user32:USER32.dll
 0001:0001e3f7       _GetWindowRect@8           1001f3f7 f   user32:USER32.dll
 0001:0001e3fd       _SetRect@20                1001f3fd f   user32:USER32.dll
 0001:0001e403       _EnableWindow@8            1001f403 f   user32:USER32.dll
 0001:0001e409       _SendMessageA@16           1001f409 f   user32:USER32.dll
 0001:0001e40f       _UnregisterClassA@8        1001f40f f   user32:USER32.dll
 0001:0001e415       _TranslateMessage@4        1001f415 f   user32:USER32.dll
 0001:0001e41b       _DispatchMessageA@4        1001f41b f   user32:USER32.dll
 0001:0001e421       _PeekMessageA@20           1001f421 f   user32:USER32.dll
 0001:0001e427       _PostQuitMessage@4         1001f427 f   user32:USER32.dll
 0001:0001e42d       _SetTimer@16               1001f42d f   user32:USER32.dll
 0001:0001e433       _KillTimer@8               1001f433 f   user32:USER32.dll
 0001:0001e439       _LoadCursorA@8             1001f439 f   user32:USER32.dll
 0001:0001e43f       _GetDeviceCaps@8           1001f43f f   gdi32:GDI32.dll
 0001:0001e445       _RegCloseKey@4             1001f445 f   advapi32:ADVAPI32.dll
 0001:0001e44b       _RegOpenKeyExA@20          1001f44b f   advapi32:ADVAPI32.dll
 0001:0001e451       _RegQueryValueExA@24       1001f451 f   advapi32:ADVAPI32.dll
 0001:0001e457       _RegCreateKeyExA@36        1001f457 f   advapi32:ADVAPI32.dll
 0001:0001e45d       _RegOpenKeyA@12            1001f45d f   advapi32:ADVAPI32.dll
 0001:0001e463       _RegSetValueExA@24         1001f463 f   advapi32:ADVAPI32.dll
 0001:0001e469       ??$?2PAUHINSTANCE__@@@Wrapper@?$CSimpleArray@PAUHINSTANCE__@@V?$CSimpleArrayEqualHelper@PAUHINSTANCE__@@@ATL@@@ATL@@SAPAXIPAPAUHINSTANCE__@@@Z 1001f469 f i atls:atlbase.obj
 0001:0001e471       ??0?$CComCritSecLock@VCComCriticalSection@ATL@@@ATL@@QAE@AAVCComCriticalSection@1@_N@Z 1001f471 f i atls:atlbase.obj
 0001:0001e498       ??0?$CSimpleArray@PAUHINSTANCE__@@V?$CSimpleArrayEqualHelper@PAUHINSTANCE__@@@ATL@@@ATL@@QAE@XZ 1001f498 f i atls:atlbase.obj
 0001:0001e4a5       ??0CAtlBaseModule@ATL@@QAE@XZ 1001f4a5 f   atls:atlbase.obj
 0001:0001e4f8       ??0Wrapper@?$CSimpleArray@PAUHINSTANCE__@@V?$CSimpleArrayEqualHelper@PAUHINSTANCE__@@@ATL@@@ATL@@QAE@ABQAUHINSTANCE__@@@Z 1001f4f8 f i atls:atlbase.obj
 0001:0001e508       ??0_ATL_BASE_MODULE70@ATL@@QAE@XZ 1001f508 f i atls:atlbase.obj
 0001:0001e52b       ??1?$CComCritSecLock@VCComCriticalSection@ATL@@@ATL@@QAE@XZ 1001f52b f i atls:atlbase.obj
 0001:0001e542       ??1?$CSimpleArray@PAUHINSTANCE__@@V?$CSimpleArrayEqualHelper@PAUHINSTANCE__@@@ATL@@@ATL@@QAE@XZ 1001f542 f i atls:atlbase.obj
 0001:0001e547       ??1CAtlBaseModule@ATL@@QAE@XZ 1001f547 f   atls:atlbase.obj
 0001:0001e55d       ??1_ATL_BASE_MODULE70@ATL@@QAE@XZ 1001f55d f i atls:atlbase.obj
 0001:0001e565       ??A?$CSimpleArray@PAUHINSTANCE__@@V?$CSimpleArrayEqualHelper@PAUHINSTANCE__@@@ATL@@@ATL@@QAEAAPAUHINSTANCE__@@H@Z 1001f565 f i atls:atlbase.obj
 0001:0001e58a       ?Add@?$CSimpleArray@PAUHINSTANCE__@@V?$CSimpleArrayEqualHelper@PAUHINSTANCE__@@@ATL@@@ATL@@QAEHABQAUHINSTANCE__@@@Z 1001f58a f i atls:atlbase.obj
 0001:0001e60c       ?AddResourceInstance@CAtlBaseModule@ATL@@QAE_NPAUHINSTANCE__@@@Z 1001f60c f   atls:atlbase.obj
 0001:0001e63f       ?AtlCrtErrorCheck@ATL@@YAHH@Z 1001f63f f i atls:atlbase.obj
 0001:0001e67a       ?GetHInstanceAt@CAtlBaseModule@ATL@@QAEPAUHINSTANCE__@@H@Z 1001f67a f   atls:atlbase.obj
 0001:0001e6bf       ?GetSize@?$CSimpleArray@PAUHINSTANCE__@@V?$CSimpleArrayEqualHelper@PAUHINSTANCE__@@@ATL@@@ATL@@QBEHXZ 1001f6bf f i atls:atlbase.obj
 0001:0001e6c3       ?InternalSetAtIndex@?$CSimpleArray@PAUHINSTANCE__@@V?$CSimpleArrayEqualHelper@PAUHINSTANCE__@@@ATL@@@ATL@@QAEXHABQAUHINSTANCE__@@@Z 1001f6c3 f i atls:atlbase.obj
 0001:0001e6dd       ?Lock@?$CComCritSecLock@VCComCriticalSection@ATL@@@ATL@@QAEJXZ 1001f6dd f i atls:atlbase.obj
 0001:0001e6f0       ?Lock@CComCriticalSection@ATL@@QAEJXZ 1001f6f0 f i atls:atlbase.obj
 0001:0001e6fa       ?RemoveAll@?$CSimpleArray@PAUHINSTANCE__@@V?$CSimpleArrayEqualHelper@PAUHINSTANCE__@@@ATL@@@ATL@@QAEXXZ 1001f6fa f i atls:atlbase.obj
 0001:0001e717       ?RemoveAt@?$CSimpleArray@PAUHINSTANCE__@@V?$CSimpleArrayEqualHelper@PAUHINSTANCE__@@@ATL@@@ATL@@QAEHH@Z 1001f717 f i atls:atlbase.obj
 0001:0001e765       ?RemoveResourceInstance@CAtlBaseModule@ATL@@QAE_NPAUHINSTANCE__@@@Z 1001f765 f   atls:atlbase.obj
 0001:0001e7c2       ?Unlock@?$CComCritSecLock@VCComCriticalSection@ATL@@@ATL@@QAEXXZ 1001f7c2 f i atls:atlbase.obj
 0001:0001e7d3       ?Unlock@CComCriticalSection@ATL@@QAEJXZ 1001f7d3 f i atls:atlbase.obj
 0001:0001e7dd       ?memmove_s@Checked@ATL@@YAXPAXIPBXI@Z 1001f7dd f i atls:atlbase.obj
 0001:0001e87a       ??0?$CTraceCategoryEx@$00$0A@@ATL@@QAE@PB_W@Z 1001f87a f i atls:stdafx.obj
 0001:0001e87f       ??0?$CTraceCategoryEx@$01$0A@@ATL@@QAE@PB_W@Z 1001f87f f i atls:stdafx.obj
 0001:0001e884       ??0?$CTraceCategoryEx@$03$0A@@ATL@@QAE@PB_W@Z 1001f884 f i atls:stdafx.obj
 0001:0001e889       ??0?$CTraceCategoryEx@$07$0A@@ATL@@QAE@PB_W@Z 1001f889 f i atls:stdafx.obj
 0001:0001e88e       ??0?$CTraceCategoryEx@$0BA@$0A@@ATL@@QAE@PB_W@Z 1001f88e f i atls:stdafx.obj
 0001:0001e893       ??0?$CTraceCategoryEx@$0BAA@$0A@@ATL@@QAE@PB_W@Z 1001f893 f i atls:stdafx.obj
 0001:0001e898       ??0?$CTraceCategoryEx@$0BAAA@$0A@@ATL@@QAE@PB_W@Z 1001f898 f i atls:stdafx.obj
 0001:0001e89d       ??0?$CTraceCategoryEx@$0BAAAA@$0A@@ATL@@QAE@PB_W@Z 1001f89d f i atls:stdafx.obj
 0001:0001e8a2       ??0?$CTraceCategoryEx@$0BAAAAA@$0A@@ATL@@QAE@PB_W@Z 1001f8a2 f i atls:stdafx.obj
 0001:0001e8a7       ??0?$CTraceCategoryEx@$0CA@$0A@@ATL@@QAE@PB_W@Z 1001f8a7 f i atls:stdafx.obj
 0001:0001e8ac       ??0?$CTraceCategoryEx@$0CAA@$0A@@ATL@@QAE@PB_W@Z 1001f8ac f i atls:stdafx.obj
 0001:0001e8b1       ??0?$CTraceCategoryEx@$0CAAA@$0A@@ATL@@QAE@PB_W@Z 1001f8b1 f i atls:stdafx.obj
 0001:0001e8b6       ??0?$CTraceCategoryEx@$0CAAAA@$0A@@ATL@@QAE@PB_W@Z 1001f8b6 f i atls:stdafx.obj
 0001:0001e8bb       ??0?$CTraceCategoryEx@$0CAAAAA@$0A@@ATL@@QAE@PB_W@Z 1001f8bb f i atls:stdafx.obj
 0001:0001e8c0       ??0?$CTraceCategoryEx@$0EA@$0A@@ATL@@QAE@PB_W@Z 1001f8c0 f i atls:stdafx.obj
 0001:0001e8c5       ??0?$CTraceCategoryEx@$0EAA@$0A@@ATL@@QAE@PB_W@Z 1001f8c5 f i atls:stdafx.obj
 0001:0001e8ca       ??0?$CTraceCategoryEx@$0EAAA@$0A@@ATL@@QAE@PB_W@Z 1001f8ca f i atls:stdafx.obj
 0001:0001e8cf       ??0?$CTraceCategoryEx@$0EAAAA@$0A@@ATL@@QAE@PB_W@Z 1001f8cf f i atls:stdafx.obj
 0001:0001e8d4       ??0?$CTraceCategoryEx@$0EAAAAA@$0A@@ATL@@QAE@PB_W@Z 1001f8d4 f i atls:stdafx.obj
 0001:0001e8d9       ??0?$CTraceCategoryEx@$0IA@$0A@@ATL@@QAE@PB_W@Z 1001f8d9 f i atls:stdafx.obj
 0001:0001e8de       ??0?$CTraceCategoryEx@$0IAA@$0A@@ATL@@QAE@PB_W@Z 1001f8de f i atls:stdafx.obj
 0001:0001e8e3       ??0?$CTraceCategoryEx@$0IAAA@$0A@@ATL@@QAE@PB_W@Z 1001f8e3 f i atls:stdafx.obj
 0001:0001e8e8       ??0?$CTraceCategoryEx@$0IAAAA@$0A@@ATL@@QAE@PB_W@Z 1001f8e8 f i atls:stdafx.obj
 0001:0001e8ed       ??_I@YGXPAXIIP6EX0@Z@Z     1001f8ed f i atls:stdafx.obj
 0001:0001e920       _StringFromCLSID@8         1001f920 f   ole32:ole32.dll
 0001:0001e926       _CLSIDFromProgID@8         1001f926 f   ole32:ole32.dll
 0001:0001e92c       _CoTaskMemFree@4           1001f92c f   ole32:ole32.dll
 0001:0001e932       _VariantClear@4            1001f932 f   oleaut32:OLEAUT32.dll
 0001:0001e938       _SysFreeString@4           1001f938 f   oleaut32:OLEAUT32.dll
 0001:0001e93e       ___std_terminate           1001f93e f   vcruntime:VCRUNTIME140.dll
 0001:0001e944       ___CxxFrameHandler3        1001f944 f   vcruntime:VCRUNTIME140.dll
 0001:0001e94a       _memcpy                    1001f94a f   vcruntime:VCRUNTIME140.dll
 0001:0001e950       _memset                    1001f950 f   vcruntime:VCRUNTIME140.dll
 0001:0001e956       _strstr                    1001f956 f   vcruntime:VCRUNTIME140.dll
 0001:0001e95c       _strrchr                   1001f95c f   vcruntime:VCRUNTIME140.dll
 0001:0001e962       ___current_exception       1001f962 f   vcruntime:VCRUNTIME140.dll
 0001:0001e968       ___current_exception_context 1001f968 f   vcruntime:VCRUNTIME140.dll
 0001:0001e96e       __except_handler4_common   1001f96e f   vcruntime:VCRUNTIME140.dll
 0001:0001e974       ___std_type_info_destroy_list 1001f974 f   vcruntime:VCRUNTIME140.dll
 0001:0001e97a       _memmove                   1001f97a f   vcruntime:VCRUNTIME140.dll
 0001:0001e980       ___stdio_common_vsprintf   1001f980 f   ucrt:api-ms-win-crt-stdio-l1-1-0.dll
 0001:0001e986       _atoi                      1001f986 f   ucrt:api-ms-win-crt-convert-l1-1-0.dll
 0001:0001e98c       __localtime64_s            1001f98c f   ucrt:api-ms-win-crt-time-l1-1-0.dll
 0001:0001e992       __time64                   1001f992 f   ucrt:api-ms-win-crt-time-l1-1-0.dll
 0001:0001e998       __chmod                    1001f998 f   ucrt:api-ms-win-crt-filesystem-l1-1-0.dll
 0001:0001e99e       _free                      1001f99e f   ucrt:api-ms-win-crt-heap-l1-1-0.dll
 0001:0001e9a4       _strncmp                   1001f9a4 f   ucrt:api-ms-win-crt-string-l1-1-0.dll
 0001:0001e9aa       ___stdio_common_vsscanf    1001f9aa f   ucrt:api-ms-win-crt-stdio-l1-1-0.dll
 0001:0001e9b0       _isspace                   1001f9b0 f   ucrt:api-ms-win-crt-string-l1-1-0.dll
 0001:0001e9b6       _malloc                    1001f9b6 f   ucrt:api-ms-win-crt-heap-l1-1-0.dll
 0001:0001e9bc       _atof                      1001f9bc f   ucrt:api-ms-win-crt-convert-l1-1-0.dll
 0001:0001e9c2       _atol                      1001f9c2 f   ucrt:api-ms-win-crt-convert-l1-1-0.dll
 0001:0001e9c8       _fclose                    1001f9c8 f   ucrt:api-ms-win-crt-stdio-l1-1-0.dll
 0001:0001e9ce       _fopen                     1001f9ce f   ucrt:api-ms-win-crt-stdio-l1-1-0.dll
 0001:0001e9d4       _fwrite                    1001f9d4 f   ucrt:api-ms-win-crt-stdio-l1-1-0.dll
 0001:0001e9da       _qsort                     1001f9da f   ucrt:api-ms-win-crt-utility-l1-1-0.dll
 0001:0001e9e0       __invalid_parameter_noinfo 1001f9e0 f   ucrt:api-ms-win-crt-runtime-l1-1-0.dll
 0001:0001e9e6       __errno                    1001f9e6 f   ucrt:api-ms-win-crt-runtime-l1-1-0.dll
 0001:0001e9ec       __seh_filter_dll           1001f9ec f   ucrt:api-ms-win-crt-runtime-l1-1-0.dll
 0001:0001e9f2       __configure_narrow_argv    1001f9f2 f   ucrt:api-ms-win-crt-runtime-l1-1-0.dll
 0001:0001e9f8       __initialize_narrow_environment 1001f9f8 f   ucrt:api-ms-win-crt-runtime-l1-1-0.dll
 0001:0001e9fe       __initialize_onexit_table  1001f9fe f   ucrt:api-ms-win-crt-runtime-l1-1-0.dll
 0001:0001ea04       __register_onexit_function 1001fa04 f   ucrt:api-ms-win-crt-runtime-l1-1-0.dll
 0001:0001ea0a       __execute_onexit_table     1001fa0a f   ucrt:api-ms-win-crt-runtime-l1-1-0.dll
 0001:0001ea10       __crt_atexit               1001fa10 f   ucrt:api-ms-win-crt-runtime-l1-1-0.dll
 0001:0001ea16       __crt_at_quick_exit        1001fa16 f   ucrt:api-ms-win-crt-runtime-l1-1-0.dll
 0001:0001ea1c       __cexit                    1001fa1c f   ucrt:api-ms-win-crt-runtime-l1-1-0.dll
 0001:0001ea22       _terminate                 1001fa22 f   ucrt:api-ms-win-crt-runtime-l1-1-0.dll
 0001:0001ea28       __initterm                 1001fa28 f   ucrt:api-ms-win-crt-runtime-l1-1-0.dll
 0001:0001ea2e       __initterm_e               1001fa2e f   ucrt:api-ms-win-crt-runtime-l1-1-0.dll
 0001:0001ea34       __recalloc                 1001fa34 f   ucrt:api-ms-win-crt-heap-l1-1-0.dll
 0001:0001ea3a       __mkdir                    1001fa3a f   ucrt:api-ms-win-crt-filesystem-l1-1-0.dll
 0001:0001ea40       ?Delete@CException@@QAEXXZ 1001fa40 f   mfc140:mfc140.dll
 0001:0001ea46       ??3CNoTrackObject@@SGXPAX@Z 1001fa46 f   mfc140:mfc140.dll
 0001:0001ea4c       ??0AFX_MODULE_STATE@@QAE@HP6GJPAUHWND__@@IIJ@ZKH@Z 1001fa4c f   mfc140:mfc140.dll
 0001:0001ea52       ??1AFX_MODULE_STATE@@UAE@XZ 1001fa52 f   mfc140:mfc140.dll
 0001:0001ea58       ?AfxSetModuleState@@YGPAVAFX_MODULE_STATE@@PAV1@@Z 1001fa58 f   mfc140:mfc140.dll
 0001:0001ea5e       ??0AFX_MAINTAIN_STATE2@@QAE@PAVAFX_MODULE_STATE@@@Z 1001fa5e f   mfc140:mfc140.dll
 0001:0001ea64       ??1AFX_MAINTAIN_STATE2@@QAE@XZ 1001fa64 f   mfc140:mfc140.dll
 0001:0001ea6a       ?AfxWinInit@@YGHPAUHINSTANCE__@@0PADH@Z 1001fa6a f   mfc140:mfc140.dll
 0001:0001ea70       ?AfxWndProc@@YGJPAUHWND__@@IIJ@Z 1001fa70 f   mfc140:mfc140.dll
 0001:0001ea76       ?AfxTermThread@@YGXPAUHINSTANCE__@@@Z 1001fa76 f   mfc140:mfc140.dll
 0001:0001ea7c       ?AfxWinTerm@@YGXXZ         1001fa7c f   mfc140:mfc140.dll
 0001:0001ea82       ??0CDynLinkLibrary@@QAE@AAUAFX_EXTENSION_MODULE@@H@Z 1001fa82 f   mfc140:mfc140.dll
 0001:0001ea88       ?AfxInitExtensionModule@@YGHAAUAFX_EXTENSION_MODULE@@PAUHINSTANCE__@@@Z 1001fa88 f   mfc140:mfc140.dll
 0001:0001ea8e       ?AfxTermExtensionModule@@YGXAAUAFX_EXTENSION_MODULE@@H@Z 1001fa8e f   mfc140:mfc140.dll
 0001:0001ea94       ?AfxCoreInitModule@@YGXXZ  1001fa94 f   mfc140:mfc140.dll
 0001:0001ea9a       ?AfxLockTempMaps@@YGXXZ    1001fa9a f   mfc140:mfc140.dll
 0001:0001eaa0       ?AfxUnlockTempMaps@@YGHH@Z 1001faa0 f   mfc140:mfc140.dll
 0001:0001eaa6       ??0CDynLinkLibrary@@QAE@PAUHINSTANCE__@@0@Z 1001faa6 f   mfc140:mfc140.dll
 0001:0001eaac       __RawDllMainProxy@12       1001faac f   mfcs140:rawdllmainproxy.obj
 0001:0001ebf7       _OutputDebugStringW@4      1001fbf7 f   kernel32:KERNEL32.dll
 0001:0001ebfd       ___acrt_initialize         1001fbfd f   msvcrt:ucrt_stubs.obj
 0001:0001ebfd       ___vcrt_initialize         1001fbfd f   msvcrt:ucrt_stubs.obj
 0001:0001ebfd       ___scrt_stub_for_acrt_initialize 1001fbfd f   msvcrt:ucrt_stubs.obj
 0001:0001ec00       ___scrt_stub_for_acrt_thread_attach 1001fc00 f   msvcrt:ucrt_stubs.obj
 0001:0001ec00       ___acrt_thread_attach      1001fc00 f   msvcrt:ucrt_stubs.obj
 0001:0001ec00       ___vcrt_thread_attach      1001fc00 f   msvcrt:ucrt_stubs.obj
 0001:0001ec03       ___acrt_thread_detach      1001fc03 f   msvcrt:ucrt_stubs.obj
 0001:0001ec03       ___vcrt_thread_detach      1001fc03 f   msvcrt:ucrt_stubs.obj
 0001:0001ec03       ___scrt_stub_for_acrt_thread_detach 1001fc03 f   msvcrt:ucrt_stubs.obj
 0001:0001ec06       ___scrt_stub_for_acrt_uninitialize 1001fc06 f   msvcrt:ucrt_stubs.obj
 0001:0001ec06       ___vcrt_uninitialize       1001fc06 f   msvcrt:ucrt_stubs.obj
 0001:0001ec06       ___acrt_uninitialize       1001fc06 f   msvcrt:ucrt_stubs.obj
 0001:0001ec09       ___acrt_uninitialize_critical 1001fc09 f   msvcrt:ucrt_stubs.obj
 0001:0001ec09       ___scrt_stub_for_acrt_uninitialize_critical 1001fc09 f   msvcrt:ucrt_stubs.obj
 0001:0001ec09       ___vcrt_uninitialize_critical 1001fc09 f   msvcrt:ucrt_stubs.obj
 0001:0001ec0c       __is_c_termination_complete 1001fc0c f   msvcrt:ucrt_stubs.obj
 0001:0001ec0c       ___scrt_stub_for_is_c_termination_complete 1001fc0c f   msvcrt:ucrt_stubs.obj
 0001:0001ec0f       __filter_x86_sse2_floating_point_exception 1001fc0f f   msvcrt:x86_exception_filter.obj
 0001:0001ec0f       __filter_x86_sse2_floating_point_exception_default 1001fc0f f   msvcrt:x86_exception_filter.obj
 0001:00021200       ??__FstrHeap@?1??GetInstance@CAtlStringMgr@ATL@@SAPAUIAtlStringMgr@2@XZ@YAXXZ 10022200 f i StdAfx.obj
 0001:00021230       ??__FstrMgr@?1??GetInstance@CAtlStringMgr@ATL@@SAPAUIAtlStringMgr@2@XZ@YAXXZ 10022230 f i StdAfx.obj
 0002:00000000       __imp__RegCloseKey@4       10023000     advapi32:ADVAPI32.dll
 0002:00000004       __imp__RegOpenKeyExA@20    10023004     advapi32:ADVAPI32.dll
 0002:00000008       __imp__RegQueryValueExA@24 10023008     advapi32:ADVAPI32.dll
 0002:0000000c       __imp__RegCreateKeyExA@36  1002300c     advapi32:ADVAPI32.dll
 0002:00000010       __imp__RegOpenKeyA@12      10023010     advapi32:ADVAPI32.dll
 0002:00000014       __imp__RegSetValueExA@24   10023014     advapi32:ADVAPI32.dll
 0002:00000018       \177ADVAPI32_NULL_THUNK_DATA 10023018     advapi32:ADVAPI32.dll
 0002:0000001c       __imp__GetDeviceCaps@8     1002301c     gdi32:GDI32.dll
 0002:00000020       \177GDI32_NULL_THUNK_DATA  10023020     gdi32:GDI32.dll
 0002:00000024       __imp__WritePrivateProfileStringA@16 10023024     kernel32:KERNEL32.dll
 0002:00000028       __imp__DecodePointer@4     10023028     kernel32:KERNEL32.dll
 0002:0000002c       __imp__RaiseException@16   1002302c     kernel32:KERNEL32.dll
 0002:00000030       __imp__GetLastError@0      10023030     kernel32:KERNEL32.dll
 0002:00000034       __imp__HeapDestroy@4       10023034     kernel32:KERNEL32.dll
 0002:00000038       __imp__HeapAlloc@12        10023038     kernel32:KERNEL32.dll
 0002:0000003c       __imp__HeapReAlloc@16      1002303c     kernel32:KERNEL32.dll
 0002:00000040       __imp__HeapFree@12         10023040     kernel32:KERNEL32.dll
 0002:00000044       __imp__HeapSize@12         10023044     kernel32:KERNEL32.dll
 0002:00000048       __imp__GetProcessHeap@0    10023048     kernel32:KERNEL32.dll
 0002:0000004c       __imp__InitializeCriticalSectionEx@12 1002304c     kernel32:KERNEL32.dll
 0002:00000050       __imp__DeleteCriticalSection@4 10023050     kernel32:KERNEL32.dll
 0002:00000054       __imp__CreateFileA@28      10023054     kernel32:KERNEL32.dll
 0002:00000058       __imp__WriteFile@20        10023058     kernel32:KERNEL32.dll
 0002:0000005c       __imp__CloseHandle@4       1002305c     kernel32:KERNEL32.dll
 0002:00000060       __imp__GetPrivateProfileStringA@24 10023060     kernel32:KERNEL32.dll
 0002:00000064       __imp__MulDiv@12           10023064     kernel32:KERNEL32.dll
 0002:00000068       __imp__lstrcpyA@8          10023068     kernel32:KERNEL32.dll
 0002:0000006c       __imp__MultiByteToWideChar@24 1002306c     kernel32:KERNEL32.dll
 0002:00000070       __imp__OutputDebugStringA@4 10023070     kernel32:KERNEL32.dll
 0002:00000074       __imp__EnterCriticalSection@4 10023074     kernel32:KERNEL32.dll
 0002:00000078       __imp__LeaveCriticalSection@4 10023078     kernel32:KERNEL32.dll
 0002:0000007c       __imp__InitializeCriticalSectionAndSpinCount@8 1002307c     kernel32:KERNEL32.dll
 0002:00000080       __imp__GetPrivateProfileSectionA@16 10023080     kernel32:KERNEL32.dll
 0002:00000084       __imp__SetCurrentDirectoryA@4 10023084     kernel32:KERNEL32.dll
 0002:00000088       __imp__GetCurrentDirectoryA@8 10023088     kernel32:KERNEL32.dll
 0002:0000008c       __imp__GetLongPathNameA@12 1002308c     kernel32:KERNEL32.dll
 0002:00000090       __imp__WaitForSingleObject@8 10023090     kernel32:KERNEL32.dll
 0002:00000094       __imp__GetExitCodeProcess@8 10023094     kernel32:KERNEL32.dll
 0002:00000098       __imp__CreateProcessA@40   10023098     kernel32:KERNEL32.dll
 0002:0000009c       __imp__GetWindowsDirectoryA@8 1002309c     kernel32:KERNEL32.dll
 0002:000000a0       __imp__LocalFree@4         100230a0     kernel32:KERNEL32.dll
 0002:000000a4       __imp__GetPrivateProfileIntA@16 100230a4     kernel32:KERNEL32.dll
 0002:000000a8       __imp__GetModuleHandleA@4  100230a8     kernel32:KERNEL32.dll
 0002:000000ac       __imp__GetModuleFileNameA@12 100230ac     kernel32:KERNEL32.dll
 0002:000000b0       __imp__DeleteFileA@4       100230b0     kernel32:KERNEL32.dll
 0002:000000b4       __imp__SetEnvironmentVariableA@8 100230b4     kernel32:KERNEL32.dll
 0002:000000b8       __imp__LoadLibraryA@4      100230b8     kernel32:KERNEL32.dll
 0002:000000bc       __imp__GetProcAddress@8    100230bc     kernel32:KERNEL32.dll
 0002:000000c0       __imp__GetTickCount@0      100230c0     kernel32:KERNEL32.dll
 0002:000000c4       __imp__OutputDebugStringW@4 100230c4     kernel32:KERNEL32.dll
 0002:000000c8       __imp__FormatMessageA@28   100230c8     kernel32:KERNEL32.dll
 0002:000000cc       __imp__WideCharToMultiByte@32 100230cc     kernel32:KERNEL32.dll
 0002:000000d0       __imp__GetEnvironmentVariableA@12 100230d0     kernel32:KERNEL32.dll
 0002:000000d4       __imp__SetLastError@4      100230d4     kernel32:KERNEL32.dll
 0002:000000d8       __imp__GetModuleFileNameW@12 100230d8     kernel32:KERNEL32.dll
 0002:000000dc       __imp__GetModuleHandleW@4  100230dc     kernel32:KERNEL32.dll
 0002:000000e0       __imp__LoadLibraryW@4      100230e0     kernel32:KERNEL32.dll
 0002:000000e4       __imp__LocalAlloc@8        100230e4     kernel32:KERNEL32.dll
 0002:000000e8       __imp__SetEvent@4          100230e8     kernel32:KERNEL32.dll
 0002:000000ec       __imp__ResetEvent@4        100230ec     kernel32:KERNEL32.dll
 0002:000000f0       __imp__WaitForSingleObjectEx@12 100230f0     kernel32:KERNEL32.dll
 0002:000000f4       __imp__CreateEventW@16     100230f4     kernel32:KERNEL32.dll
 0002:000000f8       __imp__UnhandledExceptionFilter@4 100230f8     kernel32:KERNEL32.dll
 0002:000000fc       __imp__SetUnhandledExceptionFilter@4 100230fc     kernel32:KERNEL32.dll
 0002:00000100       __imp__GetCurrentProcess@0 10023100     kernel32:KERNEL32.dll
 0002:00000104       __imp__TerminateProcess@8  10023104     kernel32:KERNEL32.dll
 0002:00000108       __imp__FreeLibrary@4       10023108     kernel32:KERNEL32.dll
 0002:0000010c       __imp__InitializeSListHead@4 1002310c     kernel32:KERNEL32.dll
 0002:00000110       __imp__GetSystemTimeAsFileTime@4 10023110     kernel32:KERNEL32.dll
 0002:00000114       __imp__GetCurrentThreadId@0 10023114     kernel32:KERNEL32.dll
 0002:00000118       __imp__GetCurrentProcessId@0 10023118     kernel32:KERNEL32.dll
 0002:0000011c       __imp__QueryPerformanceCounter@4 1002311c     kernel32:KERNEL32.dll
 0002:00000120       __imp__GetStartupInfoW@4   10023120     kernel32:KERNEL32.dll
 0002:00000124       __imp__IsDebuggerPresent@0 10023124     kernel32:KERNEL32.dll
 0002:00000128       __imp__IsProcessorFeaturePresent@4 10023128     kernel32:KERNEL32.dll
 0002:0000012c       \177KERNEL32_NULL_THUNK_DATA 1002312c     kernel32:KERNEL32.dll
 0002:00000130       __imp__VariantClear@4      10023130     oleaut32:OLEAUT32.dll
 0002:00000134       __imp__SysFreeString@4     10023134     oleaut32:OLEAUT32.dll
 0002:00000138       \177OLEAUT32_NULL_THUNK_DATA 10023138     oleaut32:OLEAUT32.dll
 0002:0000013c       __imp__SetRect@20          1002313c     user32:USER32.dll
 0002:00000140       __imp__EnableWindow@8      10023140     user32:USER32.dll
 0002:00000144       __imp__SendMessageA@16     10023144     user32:USER32.dll
 0002:00000148       __imp__UnregisterClassA@8  10023148     user32:USER32.dll
 0002:0000014c       __imp__TranslateMessage@4  1002314c     user32:USER32.dll
 0002:00000150       __imp__GetWindowRect@8     10023150     user32:USER32.dll
 0002:00000154       __imp__PeekMessageA@20     10023154     user32:USER32.dll
 0002:00000158       __imp__PostQuitMessage@4   10023158     user32:USER32.dll
 0002:0000015c       __imp__SetTimer@16         1002315c     user32:USER32.dll
 0002:00000160       __imp__KillTimer@8         10023160     user32:USER32.dll
 0002:00000164       __imp__LoadCursorA@8       10023164     user32:USER32.dll
 0002:00000168       __imp__RegisterWindowMessageA@4 10023168     user32:USER32.dll
 0002:0000016c       __imp__GetClientRect@8     1002316c     user32:USER32.dll
 0002:00000170       __imp__InvalidateRect@12   10023170     user32:USER32.dll
 0002:00000174       __imp__DispatchMessageA@4  10023174     user32:USER32.dll
 0002:00000178       \177USER32_NULL_THUNK_DATA 10023178     user32:USER32.dll
 0002:0000017c       __imp____CxxFrameHandler3  1002317c     vcruntime:VCRUNTIME140.dll
 0002:00000180       __imp__memcpy              10023180     vcruntime:VCRUNTIME140.dll
 0002:00000184       __imp__memset              10023184     vcruntime:VCRUNTIME140.dll
 0002:00000188       __imp__strstr              10023188     vcruntime:VCRUNTIME140.dll
 0002:0000018c       __imp__strrchr             1002318c     vcruntime:VCRUNTIME140.dll
 0002:00000190       __imp____current_exception 10023190     vcruntime:VCRUNTIME140.dll
 0002:00000194       __imp____current_exception_context 10023194     vcruntime:VCRUNTIME140.dll
 0002:00000198       __imp___except_handler4_common 10023198     vcruntime:VCRUNTIME140.dll
 0002:0000019c       __imp____std_terminate     1002319c     vcruntime:VCRUNTIME140.dll
 0002:000001a0       __imp__memmove             100231a0     vcruntime:VCRUNTIME140.dll
 0002:000001a4       __imp____std_type_info_destroy_list 100231a4     vcruntime:VCRUNTIME140.dll
 0002:000001a8       \177VCRUNTIME140_NULL_THUNK_DATA 100231a8     vcruntime:VCRUNTIME140.dll
 0002:000001ac       __imp__atoi                100231ac     ucrt:api-ms-win-crt-convert-l1-1-0.dll
 0002:000001b0       __imp__atol                100231b0     ucrt:api-ms-win-crt-convert-l1-1-0.dll
 0002:000001b4       __imp__atof                100231b4     ucrt:api-ms-win-crt-convert-l1-1-0.dll
 0002:000001b8       \177api-ms-win-crt-convert-l1-1-0_NULL_THUNK_DATA 100231b8     ucrt:api-ms-win-crt-convert-l1-1-0.dll
 0002:000001bc       __imp___chmod              100231bc     ucrt:api-ms-win-crt-filesystem-l1-1-0.dll
 0002:000001c0       __imp___mkdir              100231c0     ucrt:api-ms-win-crt-filesystem-l1-1-0.dll
 0002:000001c0       __imp__mkdir               100231c0     ucrt:api-ms-win-crt-filesystem-l1-1-0.dll
 0002:000001c4       \177api-ms-win-crt-filesystem-l1-1-0_NULL_THUNK_DATA 100231c4     ucrt:api-ms-win-crt-filesystem-l1-1-0.dll
 0002:000001c8       __imp__free                100231c8     ucrt:api-ms-win-crt-heap-l1-1-0.dll
 0002:000001cc       __imp___recalloc           100231cc     ucrt:api-ms-win-crt-heap-l1-1-0.dll
 0002:000001d0       __imp__malloc              100231d0     ucrt:api-ms-win-crt-heap-l1-1-0.dll
 0002:000001d4       \177api-ms-win-crt-heap-l1-1-0_NULL_THUNK_DATA 100231d4     ucrt:api-ms-win-crt-heap-l1-1-0.dll
 0002:000001d8       __imp___initialize_onexit_table 100231d8     ucrt:api-ms-win-crt-runtime-l1-1-0.dll
 0002:000001dc       __imp___execute_onexit_table 100231dc     ucrt:api-ms-win-crt-runtime-l1-1-0.dll
 0002:000001e0       __imp___crt_atexit         100231e0     ucrt:api-ms-win-crt-runtime-l1-1-0.dll
 0002:000001e4       __imp___crt_at_quick_exit  100231e4     ucrt:api-ms-win-crt-runtime-l1-1-0.dll
 0002:000001e8       __imp___cexit              100231e8     ucrt:api-ms-win-crt-runtime-l1-1-0.dll
 0002:000001ec       __imp__terminate           100231ec     ucrt:api-ms-win-crt-runtime-l1-1-0.dll
 0002:000001f0       __imp___initterm           100231f0     ucrt:api-ms-win-crt-runtime-l1-1-0.dll
 0002:000001f4       __imp___initterm_e         100231f4     ucrt:api-ms-win-crt-runtime-l1-1-0.dll
 0002:000001f8       __imp___initialize_narrow_environment 100231f8     ucrt:api-ms-win-crt-runtime-l1-1-0.dll
 0002:000001fc       __imp___configure_narrow_argv 100231fc     ucrt:api-ms-win-crt-runtime-l1-1-0.dll
 0002:00000200       __imp___seh_filter_dll     10023200     ucrt:api-ms-win-crt-runtime-l1-1-0.dll
 0002:00000204       __imp___invalid_parameter_noinfo 10023204     ucrt:api-ms-win-crt-runtime-l1-1-0.dll
 0002:00000208       __imp___register_onexit_function 10023208     ucrt:api-ms-win-crt-runtime-l1-1-0.dll
 0002:0000020c       __imp___errno              1002320c     ucrt:api-ms-win-crt-runtime-l1-1-0.dll
 0002:00000210       \177api-ms-win-crt-runtime-l1-1-0_NULL_THUNK_DATA 10023210     ucrt:api-ms-win-crt-runtime-l1-1-0.dll
 0002:00000214       __imp__fclose              10023214     ucrt:api-ms-win-crt-stdio-l1-1-0.dll
 0002:00000218       __imp____stdio_common_vsscanf 10023218     ucrt:api-ms-win-crt-stdio-l1-1-0.dll
 0002:0000021c       __imp____stdio_common_vsprintf 1002321c     ucrt:api-ms-win-crt-stdio-l1-1-0.dll
 0002:00000220       __imp__fopen               10023220     ucrt:api-ms-win-crt-stdio-l1-1-0.dll
 0002:00000224       __imp__fwrite              10023224     ucrt:api-ms-win-crt-stdio-l1-1-0.dll
 0002:00000228       \177api-ms-win-crt-stdio-l1-1-0_NULL_THUNK_DATA 10023228     ucrt:api-ms-win-crt-stdio-l1-1-0.dll
 0002:0000022c       __imp__isspace             1002322c     ucrt:api-ms-win-crt-string-l1-1-0.dll
 0002:00000230       __imp__strncmp             10023230     ucrt:api-ms-win-crt-string-l1-1-0.dll
 0002:00000234       \177api-ms-win-crt-string-l1-1-0_NULL_THUNK_DATA 10023234     ucrt:api-ms-win-crt-string-l1-1-0.dll
 0002:00000238       __imp___time64             10023238     ucrt:api-ms-win-crt-time-l1-1-0.dll
 0002:0000023c       __imp___localtime64_s      1002323c     ucrt:api-ms-win-crt-time-l1-1-0.dll
 0002:00000240       \177api-ms-win-crt-time-l1-1-0_NULL_THUNK_DATA 10023240     ucrt:api-ms-win-crt-time-l1-1-0.dll
 0002:00000244       __imp__qsort               10023244     ucrt:api-ms-win-crt-utility-l1-1-0.dll
 0002:00000248       \177api-ms-win-crt-utility-l1-1-0_NULL_THUNK_DATA 10023248     ucrt:api-ms-win-crt-utility-l1-1-0.dll
 0002:0000024c       __imp_?IsIdleMessage@CWinThread@@UAEHPAUtagMSG@@@Z 1002324c     mfc140:mfc140.dll
 0002:00000250       __imp_?ProcessMessageFilter@CWinThread@@UAEHHPAUtagMSG@@@Z 10023250     mfc140:mfc140.dll
 0002:00000254       __imp_?GetMainWnd@CWinThread@@UAEPAVCWnd@@XZ 10023254     mfc140:mfc140.dll
 0002:00000258       __imp_?Delete@CWinThread@@UAEXXZ 10023258     mfc140:mfc140.dll
 0002:0000025c       __imp_?AfxGetThread@@YGPAVCWinThread@@XZ 1002325c     mfc140:mfc140.dll
 0002:00000260       __imp_?GetRuntimeClass@CWinApp@@UBEPAUCRuntimeClass@@XZ 10023260     mfc140:mfc140.dll
 0002:00000264       __imp_??0CWinApp@@QAE@PBD@Z 10023264     mfc140:mfc140.dll
 0002:00000268       __imp_?GetProfileIntA@CWinApp@@UAEIPBD0H@Z 10023268     mfc140:mfc140.dll
 0002:0000026c       __imp_?WriteProfileInt@CWinApp@@UAEHPBD0H@Z 1002326c     mfc140:mfc140.dll
 0002:00000270       __imp_?GetProfileStringA@CWinApp@@UAE?AV?$CStringT@DV?$StrTraitMFC_DLL@DV?$ChTraitsCRT@D@ATL@@@@@ATL@@PBD00@Z 10023270     mfc140:mfc140.dll
 0002:00000274       __imp_?WriteProfileStringA@CWinApp@@UAEHPBD00@Z 10023274     mfc140:mfc140.dll
 0002:00000278       __imp_?GetProfileBinary@CWinApp@@UAEHPBD0PAPAEPAI@Z 10023278     mfc140:mfc140.dll
 0002:0000027c       __imp_?WriteProfileBinary@CWinApp@@UAEHPBD0PAEI@Z 1002327c     mfc140:mfc140.dll
 0002:00000280       __imp_?InitLibId@CWinApp@@UAEXXZ 10023280     mfc140:mfc140.dll
 0002:00000284       __imp_?Register@CWinApp@@UAEHXZ 10023284     mfc140:mfc140.dll
 0002:00000288       __imp_?Unregister@CWinApp@@UAEHXZ 10023288     mfc140:mfc140.dll
 0002:0000028c       __imp_?OpenDocumentFile@CWinApp@@UAEPAVCDocument@@PBD@Z 1002328c     mfc140:mfc140.dll
 0002:00000290       __imp_?OpenDocumentFile@CWinApp@@UAEPAVCDocument@@PBDH@Z 10023290     mfc140:mfc140.dll
 0002:00000294       __imp_?AddToRecentFileList@CWinApp@@UAEXPBD@Z 10023294     mfc140:mfc140.dll
 0002:00000298       __imp_?InitApplication@CWinApp@@UAEHXZ 10023298     mfc140:mfc140.dll
 0002:0000029c       __imp_?SaveAllModified@CWinApp@@UAEHXZ 1002329c     mfc140:mfc140.dll
 0002:000002a0       __imp_?DoMessageBox@CWinApp@@UAEHPBDII@Z 100232a0     mfc140:mfc140.dll
 0002:000002a4       __imp_?DoWaitCursor@CWinApp@@UAEXH@Z 100232a4     mfc140:mfc140.dll
 0002:000002a8       __imp_?OnDDECommand@CWinApp@@UAEHPAD@Z 100232a8     mfc140:mfc140.dll
 0002:000002ac       __imp_?WinHelpA@CWinApp@@UAEXKI@Z 100232ac     mfc140:mfc140.dll
 0002:000002b0       __imp_?HtmlHelpA@CWinApp@@UAEXKI@Z 100232b0     mfc140:mfc140.dll
 0002:000002b4       __imp_?WinHelpInternal@CWinApp@@UAEXKI@Z 100232b4     mfc140:mfc140.dll
 0002:000002b8       __imp_?RegisterWithRestartManager@CWinApp@@UAEJHABV?$CStringT@DV?$StrTraitMFC_DLL@DV?$ChTraitsCRT@D@ATL@@@@@ATL@@@Z 100232b8     mfc140:mfc140.dll
 0002:000002bc       __imp_?RegisterWithRestartManager@CWinApp@@UAEJPB_WKP6GKPAX@Z1KK@Z 100232bc     mfc140:mfc140.dll
 0002:000002c0       __imp_?ApplicationRecoveryCallback@CWinApp@@UAEKPAX@Z 100232c0     mfc140:mfc140.dll
 0002:000002c4       __imp_?GetDataRecoveryHandler@CWinApp@@UAEPAVCDataRecoveryHandler@@XZ 100232c4     mfc140:mfc140.dll
 0002:000002c8       __imp_?IsTaskbarInteractionEnabled@CWinApp@@UAEHXZ 100232c8     mfc140:mfc140.dll
 0002:000002cc       __imp_?InitInstance@CWinApp@@UAEHXZ 100232cc     mfc140:mfc140.dll
 0002:000002d0       __imp_?ExitInstance@CWinApp@@UAEHXZ 100232d0     mfc140:mfc140.dll
 0002:000002d4       __imp_?RestartInstance@CWinApp@@UAEHXZ 100232d4     mfc140:mfc140.dll
 0002:000002d8       __imp_?Run@CWinApp@@UAEHXZ 100232d8     mfc140:mfc140.dll
 0002:000002dc       __imp_?OnIdle@CWinApp@@UAEHJ@Z 100232dc     mfc140:mfc140.dll
 0002:000002e0       __imp_?ProcessWndProcException@CWinApp@@UAEJPAVCException@@PBUtagMSG@@@Z 100232e0     mfc140:mfc140.dll
 0002:000002e4       __imp_?LoadAppLangResourceDLL@CWinApp@@UAEPAUHINSTANCE__@@XZ 100232e4     mfc140:mfc140.dll
 0002:000002e8       __imp_??1CWinApp@@UAE@XZ   100232e8     mfc140:mfc140.dll
 0002:000002ec       __imp_?GetThisMessageMap@CWinApp@@KGPBUAFX_MSGMAP@@XZ 100232ec     mfc140:mfc140.dll
 0002:000002f0       __imp_?LoadSysPolicies@CWinApp@@UAEHXZ 100232f0     mfc140:mfc140.dll
 0002:000002f4       __imp_??_V@YAXPAX@Z        100232f4     mfc140:mfc140.dll
 0002:000002f8       __imp_?Empty@?$CSimpleStringT@D$00@ATL@@QAEXXZ 100232f8     mfc140:mfc140.dll
 0002:000002fc       __imp_?Mid@?$CStringT@DV?$StrTraitMFC_DLL@DV?$ChTraitsCRT@D@ATL@@@@@ATL@@QBE?AV12@H@Z 100232fc     mfc140:mfc140.dll
 0002:00000300       __imp_?Lookup@CMapStringToString@@QBEHPBDAAV?$CStringT@DV?$StrTraitMFC_DLL@DV?$ChTraitsCRT@D@ATL@@@@@ATL@@@Z 10023300     mfc140:mfc140.dll
 0002:00000304       __imp_??ACMapStringToString@@QAEAAV?$CStringT@DV?$StrTraitMFC_DLL@DV?$ChTraitsCRT@D@ATL@@@@@ATL@@PBD@Z 10023304     mfc140:mfc140.dll
 0002:00000308       __imp_??A?$CSimpleStringT@D$00@ATL@@QBEDH@Z 10023308     mfc140:mfc140.dll
 0002:0000030c       __imp_?GetAt@?$CSimpleStringT@D$00@ATL@@QBEDH@Z 1002330c     mfc140:mfc140.dll
 0002:00000310       __imp_?GetBuffer@?$CSimpleStringT@D$00@ATL@@QAEPADH@Z 10023310     mfc140:mfc140.dll
 0002:00000314       __imp_??4?$CStringT@DV?$StrTraitMFC_DLL@DV?$ChTraitsCRT@D@ATL@@@@@ATL@@QAEAAV01@D@Z 10023314     mfc140:mfc140.dll
 0002:00000318       __imp_??Y?$CStringT@DV?$StrTraitMFC_DLL@DV?$ChTraitsCRT@D@ATL@@@@@ATL@@QAEAAV01@ABV?$CSimpleStringT@D$00@1@@Z 10023318     mfc140:mfc140.dll
 0002:0000031c       __imp_??Y?$CStringT@DV?$StrTraitMFC_DLL@DV?$ChTraitsCRT@D@ATL@@@@@ATL@@QAEAAV01@D@Z 1002331c     mfc140:mfc140.dll
 0002:00000320       __imp_?Insert@?$CStringT@DV?$StrTraitMFC_DLL@DV?$ChTraitsCRT@D@ATL@@@@@ATL@@QAEHHPBD@Z 10023320     mfc140:mfc140.dll
 0002:00000324       __imp_?Replace@?$CStringT@DV?$StrTraitMFC_DLL@DV?$ChTraitsCRT@D@ATL@@@@@ATL@@QAEHDD@Z 10023324     mfc140:mfc140.dll
 0002:00000328       __imp_?Remove@?$CStringT@DV?$StrTraitMFC_DLL@DV?$ChTraitsCRT@D@ATL@@@@@ATL@@QAEHD@Z 10023328     mfc140:mfc140.dll
 0002:0000032c       __imp_?Open@CFile@@UAEHPBDIPAVCFileException@@@Z 1002332c     mfc140:mfc140.dll
 0002:00000330       __imp_?Find@?$CStringT@DV?$StrTraitMFC_DLL@DV?$ChTraitsCRT@D@ATL@@@@@ATL@@QBEHPBDH@Z 10023330     mfc140:mfc140.dll
 0002:00000334       __imp_?MakeReverse@?$CStringT@DV?$StrTraitMFC_DLL@DV?$ChTraitsCRT@D@ATL@@@@@ATL@@QAEAAV12@XZ 10023334     mfc140:mfc140.dll
 0002:00000338       __imp_?TrimRight@?$CStringT@DV?$StrTraitMFC_DLL@DV?$ChTraitsCRT@D@ATL@@@@@ATL@@QAEAAV12@XZ 10023338     mfc140:mfc140.dll
 0002:0000033c       __imp_?TrimLeft@?$CStringT@DV?$StrTraitMFC_DLL@DV?$ChTraitsCRT@D@ATL@@@@@ATL@@QAEAAV12@XZ 1002333c     mfc140:mfc140.dll
 0002:00000340       __imp_?Mid@?$CStringT@DV?$StrTraitMFC_DLL@DV?$ChTraitsCRT@D@ATL@@@@@ATL@@QBE?AV12@HH@Z 10023340     mfc140:mfc140.dll
 0002:00000344       __imp_?Right@?$CStringT@DV?$StrTraitMFC_DLL@DV?$ChTraitsCRT@D@ATL@@@@@ATL@@QBE?AV12@H@Z 10023344     mfc140:mfc140.dll
 0002:00000348       __imp_??0CClientDC@@QAE@PAVCWnd@@@Z 10023348     mfc140:mfc140.dll
 0002:0000034c       __imp_??1CClientDC@@UAE@XZ 1002334c     mfc140:mfc140.dll
 0002:00000350       __imp_?Write@CFile@@UAEXPBXI@Z 10023350     mfc140:mfc140.dll
 0002:00000354       __imp_??0CPtrArray@@QAE@XZ 10023354     mfc140:mfc140.dll
 0002:00000358       __imp_?SetSize@CPtrArray@@QAEXHH@Z 10023358     mfc140:mfc140.dll
 0002:0000035c       __imp_??1CPtrArray@@UAE@XZ 1002335c     mfc140:mfc140.dll
 0002:00000360       __imp_??0CMapPtrToPtr@@QAE@H@Z 10023360     mfc140:mfc140.dll
 0002:00000364       __imp_?Lookup@CMapPtrToPtr@@QBEHPAXAAPAX@Z 10023364     mfc140:mfc140.dll
 0002:00000368       __imp_??ACMapPtrToPtr@@QAEAAPAXPAX@Z 10023368     mfc140:mfc140.dll
 0002:0000036c       __imp_?RemoveKey@CMapPtrToPtr@@QAEHPAX@Z 1002336c     mfc140:mfc140.dll
 0002:00000370       __imp_??1CMapPtrToPtr@@UAE@XZ 10023370     mfc140:mfc140.dll
 0002:00000374       __imp_??0CMapStringToPtr@@QAE@H@Z 10023374     mfc140:mfc140.dll
 0002:00000378       __imp_??ACMapStringToPtr@@QAEAAPAXPBD@Z 10023378     mfc140:mfc140.dll
 0002:0000037c       __imp_?RemoveAll@CMapStringToPtr@@QAEXXZ 1002337c     mfc140:mfc140.dll
 0002:00000380       __imp_??1CMapStringToPtr@@UAE@XZ 10023380     mfc140:mfc140.dll
 0002:00000384       __imp_??0CMapStringToString@@QAE@H@Z 10023384     mfc140:mfc140.dll
 0002:00000388       __imp_??1CMapStringToString@@UAE@XZ 10023388     mfc140:mfc140.dll
 0002:0000038c       __imp_??0COleVariant@@QAE@PBUtagVARIANT@@@Z 1002338c     mfc140:mfc140.dll
 0002:00000390       __imp_??0COleVariant@@QAE@JG@Z 10023390     mfc140:mfc140.dll
 0002:00000394       __imp_??0CSyncObject@@QAE@PBD@Z 10023394     mfc140:mfc140.dll
 0002:00000398       __imp_??1CSyncObject@@UAE@XZ 10023398     mfc140:mfc140.dll
 0002:0000039c       __imp_?GetRuntimeClass@CCriticalSection@@UBEPAUCRuntimeClass@@XZ 1002339c     mfc140:mfc140.dll
 0002:000003a0       __imp_?MakeLower@?$CStringT@DV?$StrTraitMFC_DLL@DV?$ChTraitsCRT@D@ATL@@@@@ATL@@QAEAAV12@XZ 100233a0     mfc140:mfc140.dll
 0002:000003a4       __imp_??0CStringArray@@QAE@XZ 100233a4     mfc140:mfc140.dll
 0002:000003a8       __imp_?SetSize@CStringArray@@QAEXHH@Z 100233a8     mfc140:mfc140.dll
 0002:000003ac       __imp_?SetAtGrow@CStringArray@@QAEXHABV?$CStringT@DV?$StrTraitMFC_DLL@DV?$ChTraitsCRT@D@ATL@@@@@ATL@@@Z 100233ac     mfc140:mfc140.dll
 0002:000003b0       __imp_??1CStringArray@@UAE@XZ 100233b0     mfc140:mfc140.dll
 0002:000003b4       __imp_?AddTail@CStringList@@QAEPAU__POSITION@@ABV?$CStringT@DV?$StrTraitMFC_DLL@DV?$ChTraitsCRT@D@ATL@@@@@ATL@@@Z 100233b4     mfc140:mfc140.dll
 0002:000003b8       __imp_?RemoveAll@CStringList@@QAEXXZ 100233b8     mfc140:mfc140.dll
 0002:000003bc       __imp_?RemoveKey@CMapStringToString@@QAEHPBD@Z 100233bc     mfc140:mfc140.dll
 0002:000003c0       __imp_?GetNextAssoc@CMapStringToString@@QBEXAAPAU__POSITION@@AAV?$CStringT@DV?$StrTraitMFC_DLL@DV?$ChTraitsCRT@D@ATL@@@@@ATL@@1@Z 100233c0     mfc140:mfc140.dll
 0002:000003c4       __imp_?CollateNoCase@?$CStringT@DV?$StrTraitMFC_DLL@DV?$ChTraitsCRT@D@ATL@@@@@ATL@@QBEHPBD@Z 100233c4     mfc140:mfc140.dll
 0002:000003c8       __imp_?Replace@?$CStringT@DV?$StrTraitMFC_DLL@DV?$ChTraitsCRT@D@ATL@@@@@ATL@@QAEHPBD0@Z 100233c8     mfc140:mfc140.dll
 0002:000003cc       __imp_??0CStdioFile@@QAE@XZ 100233cc     mfc140:mfc140.dll
 0002:000003d0       __imp_?ReadString@CStdioFile@@UAEHAAV?$CStringT@DV?$StrTraitMFC_DLL@DV?$ChTraitsCRT@D@ATL@@@@@ATL@@@Z 100233d0     mfc140:mfc140.dll
 0002:000003d4       __imp_??1CStdioFile@@UAE@XZ 100233d4     mfc140:mfc140.dll
 0002:000003d8       __imp_?Open@CStdioFile@@UAEHPBDIPAVCFileException@@@Z 100233d8     mfc140:mfc140.dll
 0002:000003dc       __imp_?Close@CStdioFile@@UAEXXZ 100233dc     mfc140:mfc140.dll
 0002:000003e0       __imp_?SetAtGrow@CStringArray@@QAEXHPBD@Z 100233e0     mfc140:mfc140.dll
 0002:000003e4       __imp_?InsertAt@CStringArray@@QAEXHABV?$CStringT@DV?$StrTraitMFC_DLL@DV?$ChTraitsCRT@D@ATL@@@@@ATL@@H@Z 100233e4     mfc140:mfc140.dll
 0002:000003e8       __imp_??$SerializeElements@V?$CStringT@DV?$StrTraitMFC_DLL@DV?$ChTraitsCRT@D@ATL@@@@@ATL@@@@YGXAAVCArchive@@PAV?$CStringT@DV?$StrTraitMFC_DLL@DV?$ChTraitsCRT@D@ATL@@@@@ATL@@H@Z 100233e8     mfc140:mfc140.dll
 0002:000003ec       __imp_??$HashKey@PBD@@YGIPBD@Z 100233ec     mfc140:mfc140.dll
 0002:000003f0       __imp_??0?$CStringT@DV?$StrTraitMFC_DLL@DV?$ChTraitsCRT@D@ATL@@@@@ATL@@QAE@PBE@Z 100233f0     mfc140:mfc140.dll
 0002:000003f4       __imp_?AfxExtractSubString@@YGHAAV?$CStringT@DV?$StrTraitMFC_DLL@DV?$ChTraitsCRT@D@ATL@@@@@ATL@@PBDHD@Z 100233f4     mfc140:mfc140.dll
 0002:000003f8       __imp_?AfxGetClassIDFromString@@YGJPBDPAU_GUID@@@Z 100233f8     mfc140:mfc140.dll
 0002:000003fc       __imp_??0CDynLinkLibrary@@QAE@PAUHINSTANCE__@@0@Z 100233fc     mfc140:mfc140.dll
 0002:00000400       __imp_??0CFile@@QAE@XZ     10023400     mfc140:mfc140.dll
 0002:00000404       __imp_?Left@?$CStringT@DV?$StrTraitMFC_DLL@DV?$ChTraitsCRT@D@ATL@@@@@ATL@@QBE?AV12@H@Z 10023404     mfc140:mfc140.dll
 0002:00000408       __imp_?ReverseFind@?$CStringT@DV?$StrTraitMFC_DLL@DV?$ChTraitsCRT@D@ATL@@@@@ATL@@QBEHD@Z 10023408     mfc140:mfc140.dll
 0002:0000040c       __imp_?Compare@?$CStringT@DV?$StrTraitMFC_DLL@DV?$ChTraitsCRT@D@ATL@@@@@ATL@@QBEHPBD@Z 1002340c     mfc140:mfc140.dll
 0002:00000410       __imp_?GetManager@?$CStringT@DV?$StrTraitMFC_DLL@DV?$ChTraitsCRT@D@ATL@@@@@ATL@@QBEPAUIAtlStringMgr@2@XZ 10023410     mfc140:mfc140.dll
 0002:00000414       __imp_??Y?$CStringT@DV?$StrTraitMFC_DLL@DV?$ChTraitsCRT@D@ATL@@@@@ATL@@QAEAAV01@PBD@Z 10023414     mfc140:mfc140.dll
 0002:00000418       __imp_??4?$CStringT@DV?$StrTraitMFC_DLL@DV?$ChTraitsCRT@D@ATL@@@@@ATL@@QAEAAV01@ABV01@@Z 10023418     mfc140:mfc140.dll
 0002:0000041c       __imp_??0?$CStringT@DV?$StrTraitMFC_DLL@DV?$ChTraitsCRT@D@ATL@@@@@ATL@@QAE@PAUIAtlStringMgr@1@@Z 1002341c     mfc140:mfc140.dll
 0002:00000420       __imp_?Concatenate@?$CSimpleStringT@D$00@ATL@@KAXAAV12@PBDH1H@Z 10023420     mfc140:mfc140.dll
 0002:00000424       __imp_?ReleaseBuffer@?$CSimpleStringT@D$00@ATL@@QAEXH@Z 10023424     mfc140:mfc140.dll
 0002:00000428       __imp_?GetBufferSetLength@?$CSimpleStringT@D$00@ATL@@QAEPADH@Z 10023428     mfc140:mfc140.dll
 0002:0000042c       __imp_?GetRuntimeClass@CObject@@UBEPAUCRuntimeClass@@XZ 1002342c     mfc140:mfc140.dll
 0002:00000430       __imp_?PumpMessage@CWinThread@@UAEHXZ 10023430     mfc140:mfc140.dll
 0002:00000434       __imp_?AfxThrowArchiveException@@YGXHPBD@Z 10023434     mfc140:mfc140.dll
 0002:00000438       __imp_?AfxThrowMemoryException@@YGXXZ 10023438     mfc140:mfc140.dll
 0002:0000043c       __imp_?Default@CWnd@@IAEJXZ 1002343c     mfc140:mfc140.dll
 0002:00000440       __imp_?OnDestroy@CWnd@@IAEXXZ 10023440     mfc140:mfc140.dll
 0002:00000444       __imp_?AfxGetModuleState@@YGPAVAFX_MODULE_STATE@@XZ 10023444     mfc140:mfc140.dll
 0002:00000448       __imp_?FindFile@CFileFind@@UAEHPBDK@Z 10023448     mfc140:mfc140.dll
 0002:0000044c       __imp_??1CFileFind@@UAE@XZ 1002344c     mfc140:mfc140.dll
 0002:00000450       __imp_??0CFileFind@@QAE@XZ 10023450     mfc140:mfc140.dll
 0002:00000454       __imp_?AfxRegisterWndClass@@YGPBDIPAUHICON__@@PAUHBRUSH__@@0@Z 10023454     mfc140:mfc140.dll
 0002:00000458       __imp_?GetThisMessageMap@CWnd@@KGPBUAFX_MSGMAP@@XZ 10023458     mfc140:mfc140.dll
 0002:0000045c       __imp_?GetOccDialogInfo@CWnd@@MAEPAU_AFX_OCC_DIALOG_INFO@@XZ 1002345c     mfc140:mfc140.dll
 0002:00000460       __imp_?SetOccDialogInfo@CWnd@@MAEHPAU_AFX_OCC_DIALOG_INFO@@@Z 10023460     mfc140:mfc140.dll
 0002:00000464       __imp_?CreateControlSite@CWnd@@MAEHPAVCOleControlContainer@@PAPAVCOleControlSite@@IABU_GUID@@@Z 10023464     mfc140:mfc140.dll
 0002:00000468       __imp_?CreateControlContainer@CWnd@@MAEHPAPAVCOleControlContainer@@@Z 10023468     mfc140:mfc140.dll
 0002:0000046c       __imp_?OnFinalRelease@CWnd@@UAEXXZ 1002346c     mfc140:mfc140.dll
 0002:00000470       __imp_?IsFrameWnd@CWnd@@UBEHXZ 10023470     mfc140:mfc140.dll
 0002:00000474       __imp_?CheckAutoCenter@CWnd@@UAEHXZ 10023474     mfc140:mfc140.dll
 0002:00000478       __imp_??1CWnd@@UAE@XZ      10023478     mfc140:mfc140.dll
 0002:0000047c       __imp_?ResizeDynamicLayout@CWnd@@MAEXXZ 1002347c     mfc140:mfc140.dll
 0002:00000480       __imp_?OnGesturePressAndTap@CWnd@@MAEHVCPoint@@J@Z 10023480     mfc140:mfc140.dll
 0002:00000484       __imp_?OnGestureTwoFingerTap@CWnd@@MAEHVCPoint@@@Z 10023484     mfc140:mfc140.dll
 0002:00000488       __imp_?OnGestureRotate@CWnd@@MAEHVCPoint@@N@Z 10023488     mfc140:mfc140.dll
 0002:0000048c       __imp_?OnGesturePan@CWnd@@MAEHVCPoint@@0@Z 1002348c     mfc140:mfc140.dll
 0002:00000490       __imp_?OnGestureZoom@CWnd@@MAEHVCPoint@@J@Z 10023490     mfc140:mfc140.dll
 0002:00000494       __imp_?GetGestureStatus@CWnd@@MAEKVCPoint@@@Z 10023494     mfc140:mfc140.dll
 0002:00000498       __imp_?OnTouchInput@CWnd@@MAEHVCPoint@@HHPAUtagTOUCHINPUT@@@Z 10023498     mfc140:mfc140.dll
 0002:0000049c       __imp_?OnTouchInputs@CWnd@@MAEHIPAUtagTOUCHINPUT@@@Z 1002349c     mfc140:mfc140.dll
 0002:000004a0       __imp_?OnChildNotify@CWnd@@MAEHIIJPAJ@Z 100234a0     mfc140:mfc140.dll
 0002:000004a4       __imp_?PostNcDestroy@CWnd@@MAEXXZ 100234a4     mfc140:mfc140.dll
 0002:000004a8       __imp_?DefWindowProcA@CWnd@@MAEJIIJ@Z 100234a8     mfc140:mfc140.dll
 0002:000004ac       __imp_?OnWndMsg@CWnd@@MAEHIIJPAJ@Z 100234ac     mfc140:mfc140.dll
 0002:000004b0       __imp_?WindowProc@CWnd@@MAEJIIJ@Z 100234b0     mfc140:mfc140.dll
 0002:000004b4       __imp_?OnAmbientProperty@CWnd@@UAEHPAVCOleControlSite@@JPAUtagVARIANT@@@Z 100234b4     mfc140:mfc140.dll
 0002:000004b8       __imp_?PreTranslateMessage@CWnd@@UAEHPAUtagMSG@@@Z 100234b8     mfc140:mfc140.dll
 0002:000004bc       __imp_?GetSuperWndProcAddr@CWnd@@MAEPAP6GJPAUHWND__@@IIJ@ZXZ 100234bc     mfc140:mfc140.dll
 0002:000004c0       __imp_?OnNotify@CWnd@@MAEHIJPAJ@Z 100234c0     mfc140:mfc140.dll
 0002:000004c4       __imp_?OnCommand@CWnd@@MAEHIJ@Z 100234c4     mfc140:mfc140.dll
 0002:000004c8       __imp_?CreateAccessibleProxy@CWnd@@UAEJIJPAJ@Z 100234c8     mfc140:mfc140.dll
 0002:000004cc       __imp_?SetProxy@CWnd@@UAEJPAUIAccessibleProxy@@@Z 100234cc     mfc140:mfc140.dll
 0002:000004d0       __imp_?put_accValue@CWnd@@UAEJUtagVARIANT@@PA_W@Z 100234d0     mfc140:mfc140.dll
 0002:000004d4       __imp_?put_accName@CWnd@@UAEJUtagVARIANT@@PA_W@Z 100234d4     mfc140:mfc140.dll
 0002:000004d8       __imp_?accDoDefaultAction@CWnd@@UAEJUtagVARIANT@@@Z 100234d8     mfc140:mfc140.dll
 0002:000004dc       __imp_?accHitTest@CWnd@@UAEJJJPAUtagVARIANT@@@Z 100234dc     mfc140:mfc140.dll
 0002:000004e0       __imp_?accNavigate@CWnd@@UAEJJUtagVARIANT@@PAU2@@Z 100234e0     mfc140:mfc140.dll
 0002:000004e4       __imp_?accLocation@CWnd@@UAEJPAJ000UtagVARIANT@@@Z 100234e4     mfc140:mfc140.dll
 0002:000004e8       __imp_?accSelect@CWnd@@UAEJJUtagVARIANT@@@Z 100234e8     mfc140:mfc140.dll
 0002:000004ec       __imp_?get_accDefaultAction@CWnd@@UAEJUtagVARIANT@@PAPA_W@Z 100234ec     mfc140:mfc140.dll
 0002:000004f0       __imp_?get_accSelection@CWnd@@UAEJPAUtagVARIANT@@@Z 100234f0     mfc140:mfc140.dll
 0002:000004f4       __imp_?get_accFocus@CWnd@@UAEJPAUtagVARIANT@@@Z 100234f4     mfc140:mfc140.dll
 0002:000004f8       __imp_?get_accKeyboardShortcut@CWnd@@UAEJUtagVARIANT@@PAPA_W@Z 100234f8     mfc140:mfc140.dll
 0002:000004fc       __imp_?get_accHelpTopic@CWnd@@UAEJPAPA_WUtagVARIANT@@PAJ@Z 100234fc     mfc140:mfc140.dll
 0002:00000500       __imp_?get_accHelp@CWnd@@UAEJUtagVARIANT@@PAPA_W@Z 10023500     mfc140:mfc140.dll
 0002:00000504       __imp_?get_accState@CWnd@@UAEJUtagVARIANT@@PAU2@@Z 10023504     mfc140:mfc140.dll
 0002:00000508       __imp_?get_accRole@CWnd@@UAEJUtagVARIANT@@PAU2@@Z 10023508     mfc140:mfc140.dll
 0002:0000050c       __imp_?get_accDescription@CWnd@@UAEJUtagVARIANT@@PAPA_W@Z 1002350c     mfc140:mfc140.dll
 0002:00000510       __imp_?get_accValue@CWnd@@UAEJUtagVARIANT@@PAPA_W@Z 10023510     mfc140:mfc140.dll
 0002:00000514       __imp_?get_accName@CWnd@@UAEJUtagVARIANT@@PAPA_W@Z 10023514     mfc140:mfc140.dll
 0002:00000518       __imp_?get_accChild@CWnd@@UAEJUtagVARIANT@@PAPAUIDispatch@@@Z 10023518     mfc140:mfc140.dll
 0002:0000051c       __imp_?get_accChildCount@CWnd@@UAEJPAJ@Z 1002351c     mfc140:mfc140.dll
 0002:00000520       __imp_?get_accParent@CWnd@@UAEJPAPAUIDispatch@@@Z 10023520     mfc140:mfc140.dll
 0002:00000524       __imp_?EnsureStdObj@CWnd@@UAEJXZ 10023524     mfc140:mfc140.dll
 0002:00000528       __imp_?GetInterfaceMap@CWnd@@MBEPBUAFX_INTERFACEMAP@@XZ 10023528     mfc140:mfc140.dll
 0002:0000052c       __imp_?OnDrawIconicThumbnailOrLivePreview@CWnd@@UAEXAAVCDC@@VCRect@@VCSize@@HAAH@Z 1002352c     mfc140:mfc140.dll
 0002:00000530       __imp_?EndModalLoop@CWnd@@UAEXH@Z 10023530     mfc140:mfc140.dll
 0002:00000534       __imp_?ContinueModal@CWnd@@UAEHXZ 10023534     mfc140:mfc140.dll
 0002:00000538       __imp_?WinHelpInternal@CWnd@@UAEXKI@Z 10023538     mfc140:mfc140.dll
 0002:0000053c       __imp_?HtmlHelpA@CWnd@@UAEXKI@Z 1002353c     mfc140:mfc140.dll
 0002:00000540       __imp_?WinHelpA@CWnd@@UAEXKI@Z 10023540     mfc140:mfc140.dll
 0002:00000544       __imp_?GetScrollBarCtrl@CWnd@@UBEPAVCScrollBar@@H@Z 10023544     mfc140:mfc140.dll
 0002:00000548       __imp_?OnToolHitTest@CWnd@@UBEHVCPoint@@PAUtagTOOLINFOA@@@Z 10023548     mfc140:mfc140.dll
 0002:0000054c       __imp_?SetMenu@CWnd@@UAEHPAVCMenu@@@Z 1002354c     mfc140:mfc140.dll
 0002:00000550       __imp_?GetMenu@CWnd@@UBEPAVCMenu@@XZ 10023550     mfc140:mfc140.dll
 0002:00000554       __imp_?CalcWindowRect@CWnd@@UAEXPAUtagRECT@@I@Z 10023554     mfc140:mfc140.dll
 0002:00000558       __imp_?PreCreateWindow@CWnd@@UAEHAAUtagCREATESTRUCTA@@@Z 10023558     mfc140:mfc140.dll
 0002:0000055c       __imp_?DestroyWindow@CWnd@@UAEHXZ 1002355c     mfc140:mfc140.dll
 0002:00000560       __imp_?CreateEx@CWnd@@UAEHKPBD0KABUtagRECT@@PAV1@IPAX@Z 10023560     mfc140:mfc140.dll
 0002:00000564       __imp_?CreateEx@CWnd@@UAEHKPBD0KHHHHPAUHWND__@@PAUHMENU__@@PAX@Z 10023564     mfc140:mfc140.dll
 0002:00000568       __imp_?Create@CWnd@@UAEHPBD0KABUtagRECT@@PAV1@IPAUCCreateContext@@@Z 10023568     mfc140:mfc140.dll
 0002:0000056c       __imp_?AfxUnlockTempMaps@@YGHH@Z 1002356c     mfc140:mfc140.dll
 0002:00000570       __imp_?AfxLockTempMaps@@YGXXZ 10023570     mfc140:mfc140.dll
 0002:00000574       __imp_?AfxCoreInitModule@@YGXXZ 10023574     mfc140:mfc140.dll
 0002:00000578       __imp_?AfxTermExtensionModule@@YGXAAUAFX_EXTENSION_MODULE@@H@Z 10023578     mfc140:mfc140.dll
 0002:0000057c       __imp_?PreSubclassWindow@CWnd@@UAEXXZ 1002357c     mfc140:mfc140.dll
 0002:00000580       __imp_??0CWnd@@QAE@XZ      10023580     mfc140:mfc140.dll
 0002:00000584       __imp_?GetRuntimeClass@CWnd@@UBEPAUCRuntimeClass@@XZ 10023584     mfc140:mfc140.dll
 0002:00000588       __imp_?GetConnectionHook@CCmdTarget@@MAEPAUIConnectionPoint@@ABU_GUID@@@Z 10023588     mfc140:mfc140.dll
 0002:0000058c       __imp_?GetExtraConnectionPoints@CCmdTarget@@MAEHPAVCPtrArray@@@Z 1002358c     mfc140:mfc140.dll
 0002:00000590       __imp_?GetInterfaceHook@CCmdTarget@@UAEPAUIUnknown@@PBX@Z 10023590     mfc140:mfc140.dll
 0002:00000594       __imp_?OnCreateAggregates@CCmdTarget@@UAEHXZ 10023594     mfc140:mfc140.dll
 0002:00000598       __imp_?GetEventSinkMap@CCmdTarget@@MBEPBUAFX_EVENTSINKMAP@@XZ 10023598     mfc140:mfc140.dll
 0002:0000059c       __imp_?GetConnectionMap@CCmdTarget@@MBEPBUAFX_CONNECTIONMAP@@XZ 1002359c     mfc140:mfc140.dll
 0002:000005a0       __imp_?GetDispatchMap@CCmdTarget@@MBEPBUAFX_DISPMAP@@XZ 100235a0     mfc140:mfc140.dll
 0002:000005a4       __imp_?GetCommandMap@CCmdTarget@@MBEPBUAFX_OLECMDMAP@@XZ 100235a4     mfc140:mfc140.dll
 0002:000005a8       __imp_?GetTypeLib@CCmdTarget@@UAEJKPAPAUITypeLib@@@Z 100235a8     mfc140:mfc140.dll
 0002:000005ac       __imp_?GetTypeLibCache@CCmdTarget@@UAEPAVCTypeLibCache@@XZ 100235ac     mfc140:mfc140.dll
 0002:000005b0       __imp_?GetTypeInfoCount@CCmdTarget@@UAEIXZ 100235b0     mfc140:mfc140.dll
 0002:000005b4       __imp_?GetDispatchIID@CCmdTarget@@UAEHPAU_GUID@@@Z 100235b4     mfc140:mfc140.dll
 0002:000005b8       __imp_?PreTranslateMessage@CWinThread@@UAEHPAUtagMSG@@@Z 100235b8     mfc140:mfc140.dll
 0002:000005bc       __imp_?IsInvokeAllowed@CCmdTarget@@UAEHJ@Z 100235bc     mfc140:mfc140.dll
 0002:000005c0       __imp_?GetInterfaceMap@CCmdTarget@@MBEPBUAFX_INTERFACEMAP@@XZ 100235c0     mfc140:mfc140.dll
 0002:000005c4       __imp_?OnFinalRelease@CCmdTarget@@UAEXXZ 100235c4     mfc140:mfc140.dll
 0002:000005c8       __imp_?OnCmdMsg@CCmdTarget@@UAEHIHPAXPAUAFX_CMDHANDLERINFO@@@Z 100235c8     mfc140:mfc140.dll
 0002:000005cc       __imp_?Format@?$CStringT@DV?$StrTraitMFC_DLL@DV?$ChTraitsCRT@D@ATL@@@@@ATL@@QAAXPBDZZ 100235cc     mfc140:mfc140.dll
 0002:000005d0       __imp_?FreeDataChain@CPlex@@QAEXXZ 100235d0     mfc140:mfc140.dll
 0002:000005d4       __imp_?Create@CPlex@@SGPAU1@AAPAU1@II@Z 100235d4     mfc140:mfc140.dll
 0002:000005d8       __imp_?WriteCount@CArchive@@QAEXK@Z 100235d8     mfc140:mfc140.dll
 0002:000005dc       __imp_?CompareNoCase@?$CStringT@DV?$StrTraitMFC_DLL@DV?$ChTraitsCRT@D@ATL@@@@@ATL@@QBEHPBD@Z 100235dc     mfc140:mfc140.dll
 0002:000005e0       __imp_??4?$CStringT@DV?$StrTraitMFC_DLL@DV?$ChTraitsCRT@D@ATL@@@@@ATL@@QAEAAV01@PBD@Z 100235e0     mfc140:mfc140.dll
 0002:000005e4       __imp_??0?$CStringT@DV?$StrTraitMFC_DLL@DV?$ChTraitsCRT@D@ATL@@@@@ATL@@QAE@PBD@Z 100235e4     mfc140:mfc140.dll
 0002:000005e8       __imp_?ReadCount@CArchive@@QAEKXZ 100235e8     mfc140:mfc140.dll
 0002:000005ec       __imp_?Write@CArchive@@QAEXPBXI@Z 100235ec     mfc140:mfc140.dll
 0002:000005f0       __imp_?Read@CArchive@@QAEIPAXI@Z 100235f0     mfc140:mfc140.dll
 0002:000005f4       __imp_??1CFile@@UAE@XZ     100235f4     mfc140:mfc140.dll
 0002:000005f8       __imp_?AfxMessageBox@@YGHPBDII@Z 100235f8     mfc140:mfc140.dll
 0002:000005fc       __imp_?ScreenToClient@CWnd@@QBEXPAUtagRECT@@@Z 100235fc     mfc140:mfc140.dll
 0002:00000600       __imp_?ClientToScreen@CWnd@@QBEXPAUtagRECT@@@Z 10023600     mfc140:mfc140.dll
 0002:00000604       __imp_?MoveWindow@CWnd@@QAEXHHHHH@Z 10023604     mfc140:mfc140.dll
 0002:00000608       __imp_?GetDlgItem@CWnd@@QBEPAV1@H@Z 10023608     mfc140:mfc140.dll
 0002:0000060c       __imp_?FromHandle@CWnd@@SGPAV1@PAUHWND__@@@Z 1002360c     mfc140:mfc140.dll
 0002:00000610       __imp_??1CObArray@@UAE@XZ  10023610     mfc140:mfc140.dll
 0002:00000614       __imp_?RemoveAt@CObArray@@QAEXHH@Z 10023614     mfc140:mfc140.dll
 0002:00000618       __imp_?SetAtGrow@CObArray@@QAEXHPAVCObject@@@Z 10023618     mfc140:mfc140.dll
 0002:0000061c       __imp_??0CObArray@@QAE@XZ  1002361c     mfc140:mfc140.dll
 0002:00000620       __imp_??0?$CStringT@DV?$StrTraitMFC_DLL@DV?$ChTraitsCRT@D@ATL@@@@@ATL@@QAE@ABV01@@Z 10023620     mfc140:mfc140.dll
 0002:00000624       __imp_?AfxThrowInvalidArgException@@YGXXZ 10023624     mfc140:mfc140.dll
 0002:00000628       __imp_??2@YAPAXI@Z         10023628     mfc140:mfc140.dll
 0002:0000062c       __imp_?InvokeHelper@COleDispatchDriver@@QAAXJGGPAXPBEZZ 1002362c     mfc140:mfc140.dll
 0002:00000630       __imp_?ReleaseDispatch@COleDispatchDriver@@QAEXXZ 10023630     mfc140:mfc140.dll
 0002:00000634       __imp_??0COleDispatchDriver@@QAE@XZ 10023634     mfc140:mfc140.dll
 0002:00000638       __imp_?Close@CFile@@UAEXXZ 10023638     mfc140:mfc140.dll
 0002:0000063c       __imp_??1?$CStringT@DV?$StrTraitMFC_DLL@DV?$ChTraitsCRT@D@ATL@@@@@ATL@@QAE@XZ 1002363c     mfc140:mfc140.dll
 0002:00000640       __imp_?Read@CFile@@UAEIPAXI@Z 10023640     mfc140:mfc140.dll
 0002:00000644       __imp_??0?$CStringT@DV?$StrTraitMFC_DLL@DV?$ChTraitsCRT@D@ATL@@@@@ATL@@QAE@XZ 10023644     mfc140:mfc140.dll
 0002:00000648       __imp_??_U@YAPAXI@Z        10023648     mfc140:mfc140.dll
 0002:0000064c       __imp_?AfxThrowOleException@@YGXJ@Z 1002364c     mfc140:mfc140.dll
 0002:00000650       __imp_?GetLength@CFile@@UBE_KXZ 10023650     mfc140:mfc140.dll
 0002:00000654       __imp_?Find@?$CStringT@DV?$StrTraitMFC_DLL@DV?$ChTraitsCRT@D@ATL@@@@@ATL@@QBEHDH@Z 10023654     mfc140:mfc140.dll
 0002:00000658       __imp_?Delete@CException@@QAEXXZ 10023658     mfc140:mfc140.dll
 0002:0000065c       __imp_??3CNoTrackObject@@SGXPAX@Z 1002365c     mfc140:mfc140.dll
 0002:00000660       __imp_??0AFX_MODULE_STATE@@QAE@HP6GJPAUHWND__@@IIJ@ZKH@Z 10023660     mfc140:mfc140.dll
 0002:00000664       __imp_??1AFX_MODULE_STATE@@UAE@XZ 10023664     mfc140:mfc140.dll
 0002:00000668       __imp_?AfxSetModuleState@@YGPAVAFX_MODULE_STATE@@PAV1@@Z 10023668     mfc140:mfc140.dll
 0002:0000066c       __imp_??0AFX_MAINTAIN_STATE2@@QAE@PAVAFX_MODULE_STATE@@@Z 1002366c     mfc140:mfc140.dll
 0002:00000670       __imp_??1AFX_MAINTAIN_STATE2@@QAE@XZ 10023670     mfc140:mfc140.dll
 0002:00000674       __imp_?AfxWinInit@@YGHPAUHINSTANCE__@@0PADH@Z 10023674     mfc140:mfc140.dll
 0002:00000678       __imp_?AfxWndProc@@YGJPAUHWND__@@IIJ@Z 10023678     mfc140:mfc140.dll
 0002:0000067c       __imp_?AfxTermThread@@YGXPAUHINSTANCE__@@@Z 1002367c     mfc140:mfc140.dll
 0002:00000680       __imp_?AfxWinTerm@@YGXXZ   10023680     mfc140:mfc140.dll
 0002:00000684       __imp_??0CDynLinkLibrary@@QAE@AAUAFX_EXTENSION_MODULE@@H@Z 10023684     mfc140:mfc140.dll
 0002:00000688       __imp_?AfxInitExtensionModule@@YGHAAUAFX_EXTENSION_MODULE@@PAUHINSTANCE__@@@Z 10023688     mfc140:mfc140.dll
 0002:0000068c       __imp_??3@YAXPAX@Z         1002368c     mfc140:mfc140.dll
 0002:00000690       \177mfc140_NULL_THUNK_DATA 10023690     mfc140:mfc140.dll
 0002:00000694       __imp__StringFromCLSID@8   10023694     ole32:ole32.dll
 0002:00000698       __imp__CLSIDFromProgID@8   10023698     ole32:ole32.dll
 0002:0000069c       __imp__CoTaskMemFree@4     1002369c     ole32:ole32.dll
 0002:000006a0       \177ole32_NULL_THUNK_DATA  100236a0     ole32:ole32.dll
 0002:000006a4       ___guard_check_icall_fptr  100236a4     msvcrt:guard_support.obj
 0002:000006a8       ___guard_xfg_check_icall_fptr 100236a8     msvcrt:guard_support.obj
 0002:000006ac       ___xc_a                    100236ac     msvcrt:initializers.obj
 0002:000008f0       ___xc_z                    100238f0     msvcrt:initializers.obj
 0002:000008f4       ___xi_a                    100238f4     msvcrt:initializers.obj
 0002:000008fc       ___xi_z                    100238fc     msvcrt:initializers.obj
 0002:00000900       ___xl_a                    10023900     msvcrt:tlssup.obj
 0002:00000904       ___xl_z                    10023904     msvcrt:tlssup.obj
 0002:00000908       ___xp_a                    10023908     msvcrt:initializers.obj
 0002:0000090c       ___xp_z                    1002390c     msvcrt:initializers.obj
 0002:00000910       ___xt_a                    10023910     msvcrt:initializers.obj
 0002:00000914       ___xt_z                    10023914     msvcrt:initializers.obj
 0002:00000920       ??_C@_0P@BKKCOCLK@RMSG_INTERFACE@ 10023920     #SiteDependency.obj
 0002:00000930       ??_C@_0BB@GOOPDKI@RMSG_GETPCTRDATA@ 10023930     #SiteDependency.obj
 0002:00000944       ??_C@_0BB@JPACFCL@RMSG_SETPCTRDATA@ 10023944     #SiteDependency.obj
 0002:00000958       ??_C@_0BB@EPGJDGDK@RMSG_CONCERNHWND@ 10023958     #SiteDependency.obj
 0002:0000096c       ??_C@_0BA@JHANHJCN@RMSG_INTREQUEST@ 1002396c     #SiteDependency.obj
 0002:0000097c       ??_C@_0BF@MNPNIDPI@RMSG_GWANSIMREGISTER@ 1002397c     #SiteDependency.obj
 0002:00000994       ??_C@_1O@KIELGECM@?$AAS?$AAe?$AAn?$AAd?$AAT?$AAR@ 10023994     DispDesk.obj
 0002:000009a4       ??_C@_1BE@NEKAOIBK@?$AAR?$AAe?$AAc?$AAe?$AAi?$AAv?$AAe?$AAT?$AAR@ 100239a4     DispDesk.obj
 0002:000009b8       ??_C@_1CA@NFELDDBO@?$AAS?$AAe?$AAt?$AAS?$AAo?$AAc?$AAk?$AAe?$AAt?$AAH?$AAa?$AAn?$AAd?$AAl?$AAe@ 100239b8     DispDesk.obj
 0002:000009d8       ??_C@_1CA@LJJIEHNN@?$AAG?$AAe?$AAt?$AAS?$AAo?$AAc?$AAk?$AAe?$AAt?$AAH?$AAa?$AAn?$AAd?$AAl?$AAe@ 100239d8     DispDesk.obj
 0002:000009f8       ??_C@_1CG@JDJGOFKB@?$AAS?$AAe?$AAt?$AAS?$AAh?$AAa?$AAr?$AAe?$AAd?$AAI?$AAn?$AAt?$AAe?$AAr?$AAf@ 100239f8     DispDesk.obj
 0002:00000a20       ??_C@_1BK@GDHAKDF@?$AAU?$AAn?$AAL?$AAo?$AAa?$AAd?$AAS?$AAc?$AAr?$AAi?$AAp?$AAt@ 10023a20     DispDesk.obj
 0002:00000a3c       ??_C@_1M@FBDBEKAM@?$AAB?$AAl?$AAa?$AAn?$AAk@ 10023a3c     DispDesk.obj
 0002:00000a48       ??_C@_1BM@JDHAJGKD@?$AAS?$AAh?$AAo?$AAw?$AAT?$AAr?$AAM?$AAe?$AAs?$AAs?$AAa?$AAg?$AAe@ 10023a48     DispDesk.obj
 0002:00000a64       ??_C@_1BO@HKIJKHNI@?$AAS?$AAh?$AAo?$AAw?$AAM?$AAe?$AAs?$AAs?$AAa?$AAg?$AAe?$AAB?$AAo?$AAx@ 10023a64     DispDesk.obj
 0002:00000a84       ??_C@_1BE@PIOPHLCJ@?$AAG?$AAe?$AAt?$AAT?$AAr?$AAL?$AAi?$AAs?$AAt@ 10023a84     DispDesk.obj
 0002:00000a98       ??_C@_1BG@IADOHFP@?$AAG?$AAe?$AAt?$AAM?$AAa?$AAp?$AAN?$AAa?$AAm?$AAe@ 10023a98     DispDesk.obj
 0002:00000ab0       ??_C@_1BG@DGIFPOCN@?$AAG?$AAe?$AAt?$AAM?$AAa?$AAp?$AAI?$AAn?$AAf?$AAo@ 10023ab0     DispDesk.obj
 0002:00000ac8       ??_C@_1CI@JFNEDDFJ@?$AAG?$AAe?$AAt?$AAC?$AAt?$AAr?$AAl?$AAH?$AAw?$AAn?$AAd?$AAF?$AAr?$AAo?$AAm@ 10023ac8     DispDesk.obj
 0002:00000af0       ??_C@_1CI@LAKBAIKD@?$AAG?$AAe?$AAt?$AAC?$AAt?$AAr?$AAl?$AAN?$AAa?$AAm?$AAe?$AAF?$AAr?$AAo?$AAm@ 10023af0     DispDesk.obj
 0002:00000b18       ??_C@_1CI@KMMLONAK@?$AAG?$AAe?$AAt?$AAC?$AAt?$AAr?$AAl?$AAT?$AAy?$AAp?$AAe?$AAF?$AAr?$AAo?$AAm@ 10023b18     DispDesk.obj
 0002:00000b40       ??_C@_1CI@CFCJLACK@?$AAG?$AAe?$AAt?$AAC?$AAt?$AAr?$AAl?$AAT?$AAy?$AAp?$AAe?$AAF?$AAr?$AAo?$AAm@ 10023b40     DispDesk.obj
 0002:00000b68       ??_C@_1BK@HPKJAGHK@?$AAC?$AAa?$AAl?$AAl?$AAF?$AAu?$AAn?$AAc?$AAt?$AAi?$AAo?$AAn@ 10023b68     DispDesk.obj
 0002:00000b84       ??_C@_1CE@BEIIHEOD@?$AAS?$AAe?$AAt?$AAP?$AAa?$AAr?$AAe?$AAn?$AAt?$AAD?$AAi?$AAs?$AAp?$AAa?$AAt@ 10023b84     DispDesk.obj
 0002:00000ba8       ??_C@_1CA@IFGEACPB@?$AAG?$AAe?$AAt?$AAD?$AAi?$AAs?$AAp?$AAF?$AAr?$AAo?$AAm?$AAN?$AAa?$AAm?$AAe@ 10023ba8     DispDesk.obj
 0002:00000bc8       ??_C@_1BI@NDKNJEPM@?$AAG?$AAe?$AAt?$AAR?$AAo?$AAo?$AAt?$AAP?$AAa?$AAt?$AAh@ 10023bc8     DispDesk.obj
 0002:00000be0       ??_C@_1BM@CHGEHELO@?$AAG?$AAe?$AAt?$AAF?$AAo?$AAr?$AAm?$AAT?$AAr?$AAD?$AAa?$AAt?$AAa@ 10023be0     DispDesk.obj
 0002:00000bfc       ??_C@_1BM@DKOMFBBK@?$AAS?$AAe?$AAt?$AAF?$AAo?$AAr?$AAm?$AAT?$AAr?$AAD?$AAa?$AAt?$AAa@ 10023bfc     DispDesk.obj
 0002:00000c18       ??_C@_1BG@NICPHEAF@?$AAF?$AAo?$AAr?$AAm?$AAU?$AAn?$AAL?$AAo?$AAa?$AAd@ 10023c18     DispDesk.obj
 0002:00000c30       ??_C@_1BO@BKAOKKAA@?$AAS?$AAe?$AAt?$AAO?$AAp?$AAe?$AAn?$AAM?$AAa?$AAp?$AAD?$AAa?$AAt?$AAa@ 10023c30     DispDesk.obj
 0002:00000c50       ??_C@_1CC@IALEMHMG@?$AAS?$AAe?$AAn?$AAd?$AAD?$AAa?$AAt?$AAa?$AAT?$AAo?$AAO?$AAp?$AAe?$AAn?$AAe@ 10023c50     DispDesk.obj
 0002:00000c74       ??_C@_1BI@KFOFPKIA@?$AAC?$AAa?$AAl?$AAl?$AAC?$AAo?$AAm?$AAm?$AAa?$AAn?$AAd@ 10023c74     DispDesk.obj
 0002:00000c8c       ??_C@_1BO@JLGBBKCC@?$AAG?$AAe?$AAt?$AAO?$AAp?$AAe?$AAn?$AAM?$AAa?$AAp?$AAD?$AAa?$AAt?$AAa@ 10023c8c     DispDesk.obj
 0002:00000cac       ??_C@_1CA@GMCBGANC@?$AAS?$AAe?$AAt?$AAO?$AAp?$AAe?$AAn?$AAM?$AAa?$AAp?$AAD?$AAa?$AAt?$AAa?$AA2@ 10023cac     DispDesk.obj
 0002:00000ccc       ??_C@_1BO@EAFJHIHC@?$AAN?$AAo?$AAt?$AAi?$AAf?$AAy?$AAF?$AAr?$AAo?$AAm?$AAM?$AAa?$AAi?$AAn@ 10023ccc     DispDesk.obj
 0002:00000cec       ??_C@_1BI@KGHAFHKA@?$AAE?$AAn?$AAa?$AAb?$AAl?$AAe?$AAF?$AAo?$AAc?$AAu?$AAs@ 10023cec     DispDesk.obj
 0002:00000d04       ??_C@_1BE@GHIPLDDL@?$AAG?$AAo?$AAt?$AAo?$AAF?$AAo?$AAc?$AAu?$AAs@ 10023d04     DispDesk.obj
 0002:00000d18       ??_C@_1BG@JGFILGLN@?$AAS?$AAe?$AAt?$AAK?$AAe?$AAy?$AAD?$AAa?$AAt?$AAa@ 10023d18     DispDesk.obj
 0002:00000d30       ??_C@_1BG@GDAOGPPM@?$AAG?$AAe?$AAt?$AAK?$AAe?$AAy?$AAD?$AAa?$AAt?$AAa@ 10023d30     DispDesk.obj
 0002:00000d48       ??_C@_1CK@NFKNHMDM@?$AAS?$AAe?$AAt?$AAG?$AAS?$AAh?$AAa?$AAr?$AAe?$AAd?$AAN?$AAo?$AAt?$AAi?$AAf@ 10023d48     DispDesk.obj
 0002:00000d74       ??_C@_1BE@FJHGHHJA@?$AAL?$AAo?$AAa?$AAd?$AAX?$AAf?$AAm?$AAE?$AAx@ 10023d74     DispDesk.obj
 0002:00000d88       ??_C@_1BG@BNAAOKLP@?$AAR?$AAe?$AAs?$AAi?$AAz?$AAe?$AAF?$AAo?$AAn?$AAt@ 10023d88     DispDesk.obj
 0002:00000da0       ??_C@_1BG@BHGFMEJB@?$AAG?$AAe?$AAt?$AAM?$AAa?$AAp?$AAS?$AAi?$AAz?$AAe@ 10023da0     DispDesk.obj
 0002:00000db8       ??_C@_1BI@MHKGKKII@?$AAS?$AAe?$AAt?$AAI?$AAn?$AAi?$AAt?$AAF?$AAo?$AAn?$AAt@ 10023db8     DispDesk.obj
 0002:00000dd0       ??_C@_1BG@OKCOEOIM@?$AAS?$AAe?$AAt?$AAT?$AAa?$AAb?$AAS?$AAt?$AAo?$AAp@ 10023dd0     DispDesk.obj
 0002:00000de8       ??_C@_1CC@CGCAKOBD@?$AAN?$AAo?$AAt?$AAi?$AAf?$AAy?$AAG?$AAS?$AAh?$AAa?$AAr?$AAe?$AAD?$AAa?$AAt@ 10023de8     DispDesk.obj
 0002:00000e0c       ??_C@_1CC@LOMMDIOP@?$AAS?$AAe?$AAt?$AAS?$AAe?$AAn?$AAd?$AAC?$AAo?$AAu?$AAn?$AAt?$AAF?$AAl?$AAa@ 10023e0c     DispDesk.obj
 0002:00000e30       ??_C@_1BI@HILDJCJO@?$AAD?$AAe?$AAb?$AAu?$AAg?$AAT?$AAr?$AAD?$AAa?$AAt?$AAa@ 10023e30     DispDesk.obj
 0002:00000e48       ??_C@_1BK@DOELELCL@?$AAS?$AAe?$AAn?$AAd?$AAT?$AAr?$AAD?$AAi?$AAr?$AAe?$AAc?$AAt@ 10023e48     DispDesk.obj
 0002:00000e64       ??_C@_1BA@KMFOECKF@?$AAS?$AAe?$AAt?$AAF?$AAl?$AAa?$AAg@ 10023e64     DispDesk.obj
 0002:00000e74       ??_C@_1BM@OENDCIID@?$AAC?$AAh?$AAa?$AAn?$AAg?$AAe?$AAT?$AAR?$AAI?$AAn?$AAO?$AAu?$AAt@ 10023e74     DispDesk.obj
 0002:00000e90       ??_C@_1BK@IGCGCFNE@?$AAG?$AAe?$AAt?$AAU?$AAs?$AAe?$AAr?$AAC?$AAo?$AAl?$AAo?$AAr@ 10023e90     DispDesk.obj
 0002:00000eac       ??_C@_1CI@IEJNALOK@?$AAG?$AAe?$AAt?$AAC?$AAu?$AAr?$AAr?$AAe?$AAn?$AAt?$AAT?$AAr?$AAM?$AAe?$AAs@ 10023eac     DispDesk.obj
 0002:00000ed4       ??_C@_1CE@NALKHLND@?$AAG?$AAe?$AAt?$AAC?$AAu?$AAr?$AAr?$AAe?$AAn?$AAt?$AAM?$AAs?$AAg?$AAC?$AAo@ 10023ed4     DispDesk.obj
 0002:00000ef8       ??_C@_1CI@MEFMNOH@?$AAS?$AAe?$AAl?$AAe?$AAc?$AAt?$AAP?$AAa?$AAc?$AAk?$AAe?$AAt?$AAC?$AAo?$AAm@ 10023ef8     DispDesk.obj
 0002:00000f20       ??_C@_1BE@LCNOBEJ@?$AAS?$AAe?$AAt?$AAR?$AAs?$AAc?$AAM?$AAn?$AAg@ 10023f20     DispDesk.obj
 0002:00000f34       ??_C@_1BK@GNILNMLM@?$AAM?$AAa?$AAi?$AAn?$AAK?$AAe?$AAy?$AAP?$AAr?$AAe?$AAs?$AAs@ 10023f34     DispDesk.obj
 0002:00000f50       ??_C@_1CI@KGMGLBIN@?$AAS?$AAe?$AAt?$AAM?$AAo?$AAn?$AAi?$AAt?$AAo?$AAr?$AAi?$AAn?$AAg?$AAH?$AAa@ 10023f50     DispDesk.obj
 0002:00000f78       ??_C@_1CC@BJGPLKHJ@?$AAS?$AAe?$AAt?$AAN?$AAo?$AAt?$AAi?$AAf?$AAy?$AAC?$AAo?$AAm?$AAm?$AAa?$AAn@ 10023f78     DispDesk.obj
 0002:00000f9c       ??_C@_1CE@LJGELICL@?$AAA?$AAd?$AAd?$AAU?$AAs?$AAe?$AAr?$AAS?$AAc?$AAr?$AAi?$AAp?$AAt?$AAI?$AAt@ 10023f9c     DispDesk.obj
 0002:00000fc0       ??_C@_1BG@DLIGMEDF@?$AAS?$AAe?$AAt?$AAT?$AAi?$AAm?$AAe?$AAO?$AAu?$AAt@ 10023fc0     DispDesk.obj
 0002:00000fd8       ??_C@_1BK@OENEFBNG@?$AAE?$AAx?$AAc?$AAu?$AAt?$AAe?$AAS?$AAc?$AAr?$AAi?$AAp?$AAt@ 10023fd8     DispDesk.obj
 0002:00000ff4       ??_C@_1BG@LEJKLDJC@?$AAG?$AAe?$AAt?$AAM?$AAa?$AAp?$AAD?$AAa?$AAt?$AAa@ 10023ff4     DispDesk.obj
 0002:0000100c       ??_C@_1BM@DHCCDBJ@?$AAS?$AAe?$AAn?$AAd?$AAT?$AAR?$AAF?$AAo?$AAr?$AAC?$AAe?$AAr?$AAt@ 1002400c     DispDesk.obj
 0002:00001028       ??_C@_1BM@IBHIPADC@?$AAR?$AAe?$AAs?$AAi?$AAz?$AAe?$AAC?$AAo?$AAn?$AAt?$AAr?$AAo?$AAl@ 10024028     DispDesk.obj
 0002:00001044       ??_C@_1BI@BDEOEOEI@?$AAM?$AAo?$AAv?$AAe?$AAC?$AAo?$AAn?$AAt?$AAr?$AAo?$AAl@ 10024044     DispDesk.obj
 0002:0000105c       ??_C@_1CE@JBKJBJLC@?$AAS?$AAe?$AAt?$AAC?$AAt?$AAr?$AAl?$AAR?$AAe?$AAs?$AAi?$AAz?$AAe?$AAF?$AAl@ 1002405c     DispDesk.obj
 0002:00001080       ??_C@_1BK@GJGINPCK@?$AAI?$AAs?$AAD?$AAe?$AAs?$AAk?$AAA?$AAc?$AAt?$AAi?$AAv?$AAe@ 10024080     DispDesk.obj
 0002:0000109c       ??_C@_1BC@ELAAOGBL@?$AAS?$AAa?$AAv?$AAe?$AAD?$AAa?$AAt?$AAa@ 1002409c     DispFormData.obj
 0002:000010b0       ??_C@_1BC@CLIEDCAD@?$AAL?$AAo?$AAa?$AAd?$AAD?$AAa?$AAt?$AAa@ 100240b0     DispFormData.obj
 0002:000010c4       ??_C@_1BI@NJDPAPLL@?$AAS?$AAa?$AAv?$AAe?$AAI?$AAn?$AAi?$AAD?$AAa?$AAt?$AAa@ 100240c4     DispFormData.obj
 0002:000010dc       ??_C@_1BI@GACDLMJI@?$AAL?$AAo?$AAa?$AAd?$AAI?$AAn?$AAi?$AAD?$AAa?$AAt?$AAa@ 100240dc     DispFormData.obj
 0002:000010f4       ??_C@_1CI@BFCGNDMK@?$AAS?$AAa?$AAv?$AAe?$AAS?$AAt?$AAr?$AAi?$AAn?$AAg?$AAD?$AAa?$AAt?$AAa?$AAT@ 100240f4     DispFormData.obj
 0002:0000111c       ??_C@_1CC@FAPLPLKE@?$AAS?$AAa?$AAv?$AAe?$AAI?$AAn?$AAt?$AAD?$AAa?$AAt?$AAa?$AAT?$AAo?$AAC?$AAf@ 1002411c     DispFormData.obj
 0002:00001140       ??_C@_1CC@GGPEBGBE@?$AAL?$AAo?$AAa?$AAd?$AAI?$AAn?$AAt?$AAD?$AAa?$AAt?$AAa?$AAI?$AAn?$AAC?$AAf@ 10024140     DispFormData.obj
 0002:00001164       ??_C@_1BM@OFDKJEBA@?$AAG?$AAe?$AAt?$AAM?$AAa?$AAp?$AAC?$AAf?$AAg?$AAF?$AAi?$AAl?$AAe@ 10024164     DispFormData.obj
 0002:00001180       ??_C@_1CA@KENBIHOF@?$AAG?$AAe?$AAt?$AAU?$AAs?$AAe?$AAr?$AAD?$AAa?$AAt?$AAa?$AAP?$AAa?$AAt?$AAh@ 10024180     DispFormData.obj
 0002:000011a0       ??_C@_1CO@BKIOACDF@?$AAW?$AAr?$AAi?$AAt?$AAe?$AAP?$AAr?$AAi?$AAv?$AAa?$AAt?$AAe?$AAD?$AAa?$AAt@ 100241a0     DispFormData.obj
 0002:000011d0       ??_C@_1CK@IIICHPKP@?$AAG?$AAe?$AAt?$AAP?$AAr?$AAi?$AAv?$AAa?$AAt?$AAe?$AAD?$AAa?$AAt?$AAa?$AAS@ 100241d0     DispFormData.obj
 0002:000011fc       ??_C@_1CG@CINMELKM@?$AAW?$AAr?$AAi?$AAt?$AAe?$AAP?$AAr?$AAi?$AAv?$AAa?$AAt?$AAe?$AAD?$AAe?$AAl@ 100241fc     DispFormData.obj
 0002:00001224       ??_C@_1CI@KJDIMPOL@?$AAL?$AAo?$AAa?$AAd?$AAS?$AAt?$AAr?$AAi?$AAn?$AAg?$AAD?$AAa?$AAt?$AAa?$AAI@ 10024224     DispFormData.obj
 0002:0000124c       ??_C@_1BE@MOAKIBKF@?$AAR?$AAe?$AAL?$AAo?$AAa?$AAd?$AAM?$AAa?$AAp@ 1002424c     DispFormOpen.obj
 0002:00001260       ??_C@_1BA@DMGPBCKL@?$AAO?$AAp?$AAe?$AAn?$AAM?$AAa?$AAp@ 10024260     DispFormOpen.obj
 0002:00001270       ??_C@_1BA@DBKFIFHF@?$AAL?$AAo?$AAa?$AAd?$AAM?$AAa?$AAp@ 10024270     DispFormOpen.obj
 0002:00001280       ??_C@_1BE@NGAELKLN@?$AAD?$AAi?$AAa?$AAl?$AAo?$AAg?$AAM?$AAa?$AAp@ 10024280     DispFormOpen.obj
 0002:00001294       ??_C@_1BC@BKBJNBB@?$AAP?$AAo?$AAp?$AAu?$AAp?$AAM?$AAa?$AAp@ 10024294     DispFormOpen.obj
 0002:000012a8       ??_C@_1BC@PCNAMPEP@?$AAC?$AAl?$AAo?$AAs?$AAe?$AAM?$AAa?$AAp@ 100242a8     DispFormOpen.obj
 0002:000012bc       ??_C@_1BO@HGLPECIO@?$AAS?$AAi?$AAn?$AAg?$AAl?$AAe?$AAP?$AAo?$AAp?$AAu?$AAp?$AAM?$AAa?$AAp@ 100242bc     DispFormOpen.obj
 0002:000012dc       ??_C@_1CA@FMNFLINH@?$AAG?$AAe?$AAt?$AAD?$AAa?$AAt?$AAa?$AAS?$AAa?$AAv?$AAe?$AAT?$AAy?$AAp?$AAe@ 100242dc     DispFrame.obj
 0002:000012fc       ??_C@_1CC@ELBMIKMH@?$AAG?$AAe?$AAt?$AAF?$AAr?$AAa?$AAm?$AAe?$AAI?$AAn?$AAf?$AAo?$AAF?$AAi?$AAl@ 100242fc     DispFrame.obj
 0002:00001320       ??_C@_1BI@JLBLOHIP@?$AAG?$AAe?$AAt?$AAF?$AAo?$AAn?$AAt?$AAS?$AAi?$AAz?$AAe@ 10024320     DispFrame.obj
 0002:00001338       ??_C@_1BO@NDFBAJLP@?$AAG?$AAe?$AAt?$AAF?$AAr?$AAa?$AAm?$AAe?$AAS?$AAc?$AAr?$AAN?$AAu?$AAm@ 10024338     DispFrame.obj
 0002:00001358       ??_C@_1CA@FKHJFHCC@?$AAC?$AAh?$AAa?$AAn?$AAg?$AAe?$AAF?$AAr?$AAa?$AAm?$AAe?$AAS?$AAi?$AAz?$AAe@ 10024358     DispFrame.obj
 0002:00001378       ??_C@_1BI@JPNOCPBC@?$AAG?$AAe?$AAt?$AAU?$AAs?$AAe?$AAr?$AAI?$AAn?$AAf?$AAo@ 10024378     DispMain.obj
 0002:00001390       ??_C@_1O@IEHJLNPD@?$AAM?$AAs?$AAg?$AAB?$AAo?$AAx@ 10024390     DispMain.obj
 0002:000013a0       ??_C@_1CE@CCKAJBGG@?$AAC?$AAh?$AAa?$AAn?$AAg?$AAe?$AAT?$AAa?$AAb?$AAP?$AAr?$AAo?$AAp?$AAe?$AAr@ 100243a0     DispMain.obj
 0002:000013c4       ??_C@_1BM@NCOKIOFN@?$AAS?$AAe?$AAt?$AAG?$AAS?$AAh?$AAa?$AAr?$AAe?$AAD?$AAa?$AAt?$AAa@ 100243c4     DispMain.obj
 0002:000013e0       ??_C@_1BM@MPGCKLPJ@?$AAG?$AAe?$AAt?$AAG?$AAS?$AAh?$AAa?$AAr?$AAe?$AAD?$AAa?$AAt?$AAa@ 100243e0     DispMain.obj
 0002:000013fc       ??_C@_1CC@MKFNFKJO@?$AAS?$AAe?$AAt?$AAF?$AAr?$AAa?$AAm?$AAe?$AAV?$AAa?$AAr?$AAi?$AAa?$AAb?$AAl@ 100243fc     DispMain.obj
 0002:00001420       ??_C@_1CC@HNOCAHOF@?$AAG?$AAe?$AAt?$AAF?$AAr?$AAa?$AAm?$AAe?$AAV?$AAa?$AAr?$AAi?$AAa?$AAb?$AAl@ 10024420     DispMain.obj
 0002:00001444       ??_C@_1CC@GDGABKIG@?$AAR?$AAe?$AAm?$AAo?$AAv?$AAe?$AAG?$AAl?$AAo?$AAb?$AAa?$AAl?$AAD?$AAa?$AAt@ 10024444     DispMain.obj
 0002:00001468       ??_C@_1BE@IDBKKNFI@?$AAC?$AAl?$AAo?$AAs?$AAe?$AAM?$AAa?$AAi?$AAn@ 10024468     DispMain.obj
 0002:0000147c       ??_C@_1BA@EGEDPFCL@?$AAR?$AAe?$AAs?$AAt?$AAa?$AAr?$AAt@ 1002447c     DispMain.obj
 0002:0000148c       ??_C@_1BI@HDOCPFCP@?$AAG?$AAe?$AAt?$AAA?$AAc?$AAc?$AAt?$AAL?$AAi?$AAs?$AAt@ 1002448c     DispMain.obj
 0002:000014a4       ??_C@_1CA@KEGHBPBJ@?$AAS?$AAe?$AAt?$AAO?$AAp?$AAe?$AAn?$AAM?$AAa?$AAp?$AAS?$AAt?$AAy?$AAl?$AAe@ 100244a4     DispMain.obj
 0002:000014c4       ??_C@_1BI@EIMJPKID@?$AAG?$AAe?$AAt?$AAG?$AAw?$AAa?$AAn?$AAL?$AAi?$AAs?$AAt@ 100244c4     DispMain.obj
 0002:000014dc       ??_C@_1BI@IJNLKKFA@?$AAG?$AAe?$AAt?$AAG?$AAw?$AAa?$AAn?$AAC?$AAo?$AAd?$AAe@ 100244dc     DispMain.obj
 0002:000014f4       ??_C@_1CA@BODDOHAE@?$AAC?$AAl?$AAe?$AAa?$AAr?$AAM?$AAe?$AAs?$AAs?$AAa?$AAg?$AAe?$AAB?$AAa?$AAr@ 100244f4     DispMain.obj
 0002:00001514       ??_C@_1BG@IHDPANNO@?$AAS?$AAh?$AAo?$AAw?$AAD?$AAi?$AAa?$AAl?$AAo?$AAg@ 10024514     DispMain.obj
 0002:0000152c       ??_C@_1BI@CLKIACHL@?$AAN?$AAo?$AAt?$AAi?$AAf?$AAy?$AAE?$AAv?$AAe?$AAn?$AAt@ 1002452c     DispMain.obj
 0002:00001544       ??_C@_1CI@HHLIIAHJ@?$AAG?$AAe?$AAt?$AAG?$AAw?$AAa?$AAn?$AAC?$AAo?$AAd?$AAe?$AAO?$AAn?$AAe?$AAG@ 10024544     DispMain.obj
 0002:0000156c       ??_C@_1BM@BBHPBFJE@?$AAS?$AAe?$AAt?$AAA?$AAc?$AAc?$AAt?$AAP?$AAa?$AAs?$AAs?$AAw?$AAd@ 1002456c     DispMain.obj
 0002:00001588       ??_C@_1BM@MPHDADA@?$AAG?$AAe?$AAt?$AAA?$AAc?$AAc?$AAt?$AAP?$AAa?$AAs?$AAs?$AAw?$AAd@ 10024588     DispMain.obj
 0002:000015a4       ??_C@_1CC@JKAADBHM@?$AAS?$AAe?$AAt?$AAB?$AAa?$AAt?$AAc?$AAh?$AAA?$AAc?$AAc?$AAt?$AAI?$AAn?$AAf@ 100245a4     DispMain.obj
 0002:000015c8       ??_C@_1CC@CNLPGMAH@?$AAG?$AAe?$AAt?$AAB?$AAa?$AAt?$AAc?$AAh?$AAA?$AAc?$AAc?$AAt?$AAI?$AAn?$AAf@ 100245c8     DispMain.obj
 0002:000015ec       ??_C@_1BM@FMHAJHPK@?$AAG?$AAe?$AAt?$AAM?$AAa?$AAs?$AAt?$AAe?$AAr?$AAD?$AAa?$AAt?$AAa@ 100245ec     DispMain.obj
 0002:00001608       ??_C@_1CC@EMCKDAKA@?$AAS?$AAe?$AAt?$AAO?$AAp?$AAe?$AAn?$AAM?$AAa?$AAp?$AAS?$AAt?$AAy?$AAl?$AAe@ 10024608     DispMain.obj
 0002:0000162c       ??_C@_1CG@JDCOEDEM@?$AAI?$AAH?$AAW?$AAr?$AAi?$AAt?$AAe?$AAS?$AAe?$AAc?$AAt?$AAi?$AAo?$AAn?$AAD@ 1002462c     DispMain.obj
 0002:00001654       ??_C@_1CC@HCPLEHIB@?$AAI?$AAH?$AAG?$AAe?$AAt?$AAS?$AAe?$AAc?$AAt?$AAi?$AAo?$AAn?$AAD?$AAa?$AAt@ 10024654     DispMain.obj
 0002:00001678       ??_C@_1CE@KBPIIAMH@?$AAI?$AAH?$AAG?$AAe?$AAt?$AAS?$AAe?$AAc?$AAt?$AAi?$AAo?$AAn?$AAN?$AAa?$AAm@ 10024678     DispMain.obj
 0002:0000169c       ??_C@_1BK@CGLOKIDM@?$AAI?$AAH?$AAA?$AAd?$AAd?$AAS?$AAe?$AAc?$AAt?$AAi?$AAo?$AAn@ 1002469c     DispMain.obj
 0002:000016b8       ??_C@_1CA@POOFHE@?$AAI?$AAH?$AAD?$AAe?$AAl?$AAe?$AAt?$AAe?$AAS?$AAe?$AAc?$AAt?$AAi?$AAo?$AAn@ 100246b8     DispMain.obj
 0002:000016d8       ??_C@_1CA@IDPNCDDE@?$AAI?$AAH?$AAR?$AAe?$AAn?$AAa?$AAm?$AAe?$AAS?$AAe?$AAc?$AAt?$AAi?$AAo?$AAn@ 100246d8     DispMain.obj
 0002:000016f8       ??_C@_1BK@JBPKFPAD@?$AAG?$AAe?$AAt?$AAF?$AAr?$AAa?$AAm?$AAe?$AAS?$AAi?$AAz?$AAe@ 100246f8     DispMain.obj
 0002:00001714       ??_C@_1BG@CLDFOGJB@?$AAR?$AAe?$AAp?$AAo?$AAr?$AAt?$AAC?$AAa?$AAl?$AAl@ 10024714     DispMain.obj
 0002:0000172c       ??_C@_1CE@GOOBEDPI@?$AAI?$AAs?$AAU?$AAs?$AAe?$AAr?$AAD?$AAe?$AAf?$AAi?$AAn?$AAe?$AAd?$AAM?$AAo@ 1002472c     DispPrimLib.obj
 0002:00001750       ??_C@_1BO@KHLOGCDE@?$AAR?$AAe?$AAL?$AAo?$AAa?$AAd?$AAO?$AAt?$AAh?$AAe?$AAr?$AAM?$AAa?$AAp@ 10024750     DispPrimLib.obj
 0002:00001770       ??_C@_1BG@KPPBEJBL@?$AAS?$AAe?$AAt?$AAM?$AAe?$AAs?$AAs?$AAa?$AAg?$AAe@ 10024770     DispPrimLib.obj
 0002:00001788       ??_C@_1BE@NKNOJLJE@?$AAM?$AAa?$AAp?$AAS?$AAw?$AAi?$AAt?$AAc?$AAh@ 10024788     DispPrimLib.obj
 0002:0000179c       ??_C@_1BI@JJLIJPNP@?$AAI?$AAn?$AAs?$AAe?$AAr?$AAt?$AAS?$AAp?$AAl?$AAi?$AAt@ 1002479c     DispPrimLib.obj
 0002:000017b4       ??_C@_1BI@BHNILMKD@?$AAD?$AAe?$AAl?$AAe?$AAt?$AAe?$AAS?$AAp?$AAl?$AAi?$AAt@ 100247b4     DispPrimLib.obj
 0002:000017cc       ??_C@_1BE@CDDLJLAJ@?$AAT?$AAa?$AAb?$AAT?$AAo?$AAg?$AAg?$AAl?$AAe@ 100247cc     DispPrimLib.obj
 0002:000017e0       ??_C@_1BK@NHEIBJJM@?$AAD?$AAe?$AAf?$AAa?$AAu?$AAl?$AAt?$AAS?$AAe?$AAt?$AAU?$AAp@ 100247e0     DispPrimLib.obj
 0002:000017fc       ??_C@_1BK@EADOPDGC@?$AAS?$AAe?$AAt?$AAA?$AAc?$AAt?$AAi?$AAv?$AAe?$AAT?$AAa?$AAb@ 100247fc     DispPrimLib.obj
 0002:00001818       ??_C@_1CO@DBJHFAFM@?$AAC?$AAh?$AAa?$AAn?$AAg?$AAe?$AAI?$AAn?$AAp?$AAu?$AAt?$AAR?$AAa?$AAn?$AAg@ 10024818     DispPrimLib.obj
 0002:00001848       ??_C@_1BK@BNIKFEKD@?$AAT?$AAo?$AAg?$AAg?$AAl?$AAe?$AAW?$AAi?$AAn?$AAd?$AAo?$AAw@ 10024848     DispPrimLib.obj
 0002:00001864       ??_C@_1CE@EKMBMEBM@?$AAS?$AAp?$AAl?$AAi?$AAt?$AAR?$AAe?$AAs?$AAi?$AAz?$AAe?$AAO?$AAp?$AAt?$AAi@ 10024864     DispPrimLib.obj
 0002:00001888       ??_C@_1BC@HBFMMFEC@?$AAM?$AAs?$AAg?$AAB?$AAo?$AAx?$AAI?$AAD@ 10024888     DispView.obj
 0002:0000189c       ??_C@_1BA@OILBOOAM@?$AAG?$AAe?$AAt?$AAB?$AAa?$AAs?$AAe@ 1002489c     CodeOcx.obj
 0002:000018ac       ??_C@_1BA@MHMBAGAC@?$AAS?$AAe?$AAt?$AAI?$AAn?$AAf?$AAo@ 100248ac     CodeOcx.obj
 0002:000018bc       ??_C@_1BM@COAEOJMH@?$AAS?$AAh?$AAo?$AAw?$AAC?$AAo?$AAd?$AAe?$AAT?$AAa?$AAb?$AAl?$AAe@ 100248bc     CodeOcx.obj
 0002:000018d8       ??_C@_1CE@LOOJGLFH@?$AAS?$AAh?$AAo?$AAw?$AAM?$AAo?$AAd?$AAe?$AAC?$AAo?$AAd?$AAe?$AAT?$AAa?$AAb@ 100248d8     CodeOcx.obj
 0002:000018fc       ??_C@_1BM@BPMECEHL@?$AAS?$AAe?$AAt?$AAD?$AAa?$AAt?$AAa?$AAS?$AAt?$AAr?$AAi?$AAn?$AAg@ 100248fc     CodeOcx.obj
 0002:00001918       ??_C@_1BC@FOFHDBLP@?$AAI?$AAn?$AAi?$AAt?$AAD?$AAa?$AAt?$AAa@ 10024918     CodeOcx.obj
 0002:0000192c       ??_C@_1BI@BLILMHNM@?$AAG?$AAe?$AAt?$AAC?$AAo?$AAd?$AAe?$AAI?$AAn?$AAf?$AAo@ 1002492c     CodeOcx.obj
 0002:00001944       ??_C@_1BI@MHMNEKNF@?$AAS?$AAe?$AAt?$AAP?$AAo?$AAs?$AAi?$AAt?$AAi?$AAo?$AAn@ 10024944     CodeOcx.obj
 0002:0000195c       ??_C@_1BO@CALNKGDD@?$AAG?$AAe?$AAt?$AAM?$AAa?$AAx?$AAH?$AAa?$AAn?$AAg?$AAS?$AAa?$AAG?$AAa@ 1002495c     CodeOcx.obj
 0002:0000197c       ??_C@_1DE@PPLGPNDE@?$AAS?$AAh?$AAo?$AAw?$AAC?$AAo?$AAd?$AAe?$AAT?$AAa?$AAb?$AAl?$AAe?$AAW?$AAi@ 1002497c     CodeOcx.obj
 0002:000019b0       ??_C@_1CE@NBPGMFLA@?$AAR?$AAe?$AAm?$AAo?$AAv?$AAe?$AAA?$AAl?$AAl?$AAL?$AAi?$AAs?$AAt?$AAD?$AAa@ 100249b0     CodeOcx.obj
 0002:000019d4       ??_C@_1BM@IEHPJJCJ@?$AAI?$AAn?$AAs?$AAe?$AAr?$AAt?$AAH?$AAi?$AAs?$AAt?$AAo?$AAr?$AAy@ 100249d4     CodeOcx.obj
 0002:000019f0       ??_C@_1BO@FIDDDLNP@?$AAG?$AAe?$AAt?$AAH?$AAi?$AAs?$AAt?$AAo?$AAr?$AAy?$AAL?$AAi?$AAs?$AAt@ 100249f0     CodeOcx.obj
 0002:00001a10       ??_C@_1CM@CONLGJCL@?$AAG?$AAe?$AAt?$AAG?$AAl?$AAo?$AAb?$AAa?$AAl?$AAD?$AAa?$AAt?$AAa?$AAT?$AAy@ 10024a10     CodeOcx.obj
 0002:00001a3c       ??_C@_1BO@JOPCNJNJ@?$AAG?$AAe?$AAt?$AAC?$AAo?$AAd?$AAe?$AAP?$AAo?$AAi?$AAn?$AAt?$AAe?$AAr@ 10024a3c     CodeOcx.obj
 0002:00001a5c       ??_C@_1CC@NKLKJNGI@?$AAG?$AAe?$AAt?$AAB?$AAa?$AAs?$AAe?$AAC?$AAo?$AAd?$AAe?$AAT?$AAa?$AAb?$AAl@ 10024a5c     CodeOcx.obj
 0002:00001a80       ??_C@_1BE@KFAGKBDF@?$AAG?$AAe?$AAt?$AAR?$AAs?$AAc?$AAM?$AAn?$AAg@ 10024a80     CodeOcx.obj
 0002:00001a98       ??_7CControlPos@@6B@       10024a98     ControlPos.obj
 0002:00001aa4       ??_C@_0CI@KPJJDAPL@CControlPos?3?3MoveControls?5?$LP?V?$LK?N?$LI@ 10024aa4     ControlPos.obj
 0002:00001ad0       __real@3fe0000000000000    10024ad0     ControlPos.obj
 0002:00001ad8       __real@3ff0000000000000    10024ad8     ControlPos.obj
 0002:00001ae4       ??_7CRegistryManager@@6B@  10024ae4     EtcUtil.obj
 0002:00001aec       ??_C@_09PFCHIMEP@127?40?40?41@ 10024aec     EtcUtil.obj
 0002:00001af8       ??_C@_0DB@FADPGINO@System?2CurrentControlSet?2Servic@ 10024af8     EtcUtil.obj
 0002:00001b2c       ??_C@_07FGHOPFKE@?$CFs?2?$CF04d@ 10024b2c     EtcUtil.obj
 0002:00001b34       ??_C@_01CLKCMJKC@?5@       10024b34     EtcUtil.obj
 0002:00001b38       ??_C@_09NIGMFFPO@IPAddress@ 10024b38     EtcUtil.obj
 0002:00001b44       ??_C@_07OHKHACFK@0?40?40?40@ 10024b44     EtcUtil.obj
 0002:00001b4c       ??_C@_00CNPNBAHC@@         10024b4c     GwanWnd.obj
 0002:00001b54       ??_7CGwanWnd@@6B@          10024b54     GwanWnd.obj
 0002:00001cfc       ??_7CNewsMoniterWnd@@6B@   10024cfc     NewsMoniterWnd.obj
 0002:00001eb8       ??_C@_0BC@HOPFEGEP@Lib_SignalMng?4dll@ 10024eb8     NewsMoniterWnd.obj
 0002:00001ecc       ??_C@_05GFOLEBJA@?$CFs?1?$CFs@ 10024ecc     NewsMoniterWnd.obj
 0002:00001ed4       ??_C@_0BA@ENOHDIPA@_DLL_SetLibOpen@ 10024ed4     NewsMoniterWnd.obj
 0002:00001ee4       ??_C@_0BB@MOLOAHJ@_DLL_SetLibClose@ 10024ee4     NewsMoniterWnd.obj
 0002:00001ef8       ??_C@_0P@CBLCGKFG@_DLL_SetSiganl@ 10024ef8     NewsMoniterWnd.obj
 0002:00001f08       ??_C@_0BD@GADNOHFL@_DLL_GetSignalData@ 10024f08     NewsMoniterWnd.obj
 0002:00001f1c       ??_C@_0BD@BPCDFECM@_DLL_SetSignalData@ 10024f1c     NewsMoniterWnd.obj
 0002:00001f30       ??_C@_0BD@BNCBHLBE@_DLL_GetFilterData@ 10024f30     NewsMoniterWnd.obj
 0002:00001f44       ??_C@_0BD@GCDPMIGD@_DLL_SetFilterData@ 10024f44     NewsMoniterWnd.obj
 0002:00001f58       ??_C@_0BE@JMLGGOIP@_DLL_GetSiganlTable@ 10024f58     NewsMoniterWnd.obj
 0002:00001f6c       ??_C@_0BC@OALGPJOB@_DLL_GetDummyHwnd@ 10024f6c     NewsMoniterWnd.obj
 0002:00001f84       ??_7CPCtrMainWnd@@6B@      10024f84     PCtrMainWnd.obj
 0002:00002110       ??_C@_0M@CBBNGGHM@PcTrMng?4dll@ 10025110     PcTrMng.obj
 0002:0000211c       ??_C@_0P@IDMAJEGN@HANAROPCTRMAIN@ 1002511c     PcTrMng.obj
 0002:0000212c       ??_C@_06NDLAHCHE@?$CFs?$CF08X@ 1002512c     PcTrMng.obj
 0002:00002134       ??_C@_0BJ@EBHLMJOA@?$CFs?$MA?$LL?5Load?G?R?5?$LM?v?5?$LO?x?$LN?$MA?$LE?O?$LE?Y?4@ 10025134     PcTrMng.obj
 0002:00002150       ??_C@_0N@HGGCPMBP@GetInferface@ 10025150     PcTrMng.obj
 0002:00002160       ??_C@_04OHDBDCPJ@?2Dev@    10025160     PcTrMng.obj
 0002:00002168       ??_C@_0BB@NABODLHL@?2TreeListMng?4dll@ 10025168     PcTrMng.obj
 0002:0000217c       ??_C@_0BA@MLHJPHMO@?2PartnerMng?4dll@ 1002517c     PcTrMng.obj
 0002:0000218c       ??_C@_0P@CDHGOEHJ@?2PctrWinix?4dll@ 1002518c     PcTrMng.obj
 0002:0000219c       ??_C@_0O@CHCMCBIG@GetCodeMaster@ 1002519c     PcTrMng.obj
 0002:000021b0       ??_7CGateManager@@6B@      100251b0     PcTrMng.obj
 0002:000021b8       ??_7CDataUtilManager@@6B@  100251b8     PcTrMng.obj
 0002:00002270       ??_7?$CList@PAVCSTManager_Info@@PAV1@@@6B@ 10025270     PcTrMng.obj
 0002:00002288       ??_7CSTManager@@6B@        10025288     PcTrMng.obj
 0002:00002294       ??_7CSystemUtilManager@@6B@ 10025294     PcTrMng.obj
 0002:000022a4       ??_7CPcTrMngApp@@6B@       100252a4     PcTrMng.obj
 0002:000023bc       ??_C@_05BMGBEOOC@?$CFs?2?$CFs@ 100253bc     PcTrMng.obj
 0002:000023e4       ??_C@_05NKGFCHDN@?2icss@   100253e4     PcTrMng.obj
 0002:000023ec       ??_C@_0M@DMOLOJAK@?2icss?2Image@ 100253ec     PcTrMng.obj
 0002:000023f8       ??_C@_05OPBNMLKG@?2User@   100253f8     PcTrMng.obj
 0002:00002400       ??_C@_04JIMNDDED@?$CF08X@  10025400     PcTrMng.obj
 0002:00002408       ??_C@_0BD@CMCCCNBF@HANAROIGATEMANAGER@ 10025408     PcTrMng.obj
 0002:0000241c       ??_C@_0BA@IPJNBNII@HANAROMAINFRAME@ 1002541c     PcTrMng.obj
 0002:0000242c       ??_C@_0BB@IHPADCOC@DefaultStyle?4cfg@ 1002542c     PcTrMng.obj
 0002:00002440       ??_C@_0P@EANDFPFB@?$CFs?2PcTrMng?4cfg@ 10025440     PcTrMng.obj
 0002:00002450       ??_C@_0L@KLPBPJHG@AutoRegist@ 10025450     PcTrMng.obj
 0002:0000245c       ??_C@_08FJFHGOKH@ChartOCX@ 1002545c     PcTrMng.obj
 0002:00002468       ??_C@_0BG@LNLLAMPA@?$CFs?2chartmetatable?4dat@ 10025468     PcTrMng.obj
 0002:00002480       ??_C@_09NFCEPNKK@NotDefine@ 10025480     PcTrMng.obj
 0002:0000248c       ??_C@_06FBGBHGJE@ProgID@   1002548c     PcTrMng.obj
 0002:00002494       ??_C@_0O@GDACOMFO@Chart?5Version@ 10025494     PcTrMng.obj
 0002:000024a4       ??_C@_08NBACIOPL@ProgName@ 100254a4     PcTrMng.obj
 0002:000024b0       ??_C@_07OIGEDBEL@drcache@  100254b0     PcTrMng.obj
 0002:000024b8       ??_C@_0L@BHNKPHMD@?$CFs?2icss?2?$CFs@ 100254b8     PcTrMng.obj
 0002:000024c4       ??_C@_0N@EGCPBLLD@WorkDate?4dat@ 100254c4     PcTrMng.obj
 0002:000024d4       ??_C@_08HKFBHKOD@WorkDate@ 100254d4     PcTrMng.obj
 0002:000024e0       ??_C@_0P@KDIOLOJH@?$CFs?2FindData?2?$CFs@ 100254e0     PcTrMng.obj
 0002:000024f0       ??_C@_0BB@JMHKDHLP@RequestToday?4ini@ 100254f0     PcTrMng.obj
 0002:00002504       ??_C@_0N@DEAKEBCF@?$CF04d?$CF02d?$CF02d@ 10025504     PcTrMng.obj
 0002:00002514       ??_C@_0N@FEPCAHOH@?2MstCode?4dat@ 10025514     PcTrMng.obj
 0002:00002524       ??_C@_04HDOCAJNK@?$CFs?$CFs@ 10025524     PcTrMng.obj
 0002:0000252c       ??_C@_05MBOMPHNN@Today@    1002552c     PcTrMng.obj
 0002:00002534       ??_C@_07EODEELBJ@MstCode@  10025534     PcTrMng.obj
 0002:0000253c       ??_C@_0O@JFBOHOEG@?2WorkDate?4dat@ 1002553c     PcTrMng.obj
 0002:0000254c       ??_C@_0P@LNEGBOLO@atlTraceSnapin@ 1002554c     StdAfx.obj
 0002:0000255c       ??_C@_0BA@MCBFIDIC@atlTraceNotImpl@ 1002555c     StdAfx.obj
 0002:0000256c       ??_C@_0BD@PJPCCAKP@atlTraceAllocation@ 1002556c     StdAfx.obj
 0002:00002580       ??_C@_0BC@PGMFNIFA@atlTraceException@ 10025580     StdAfx.obj
 0002:00002594       ??_C@_0N@BNNILHBE@atlTraceTime@ 10025594     StdAfx.obj
 0002:000025a4       ??_C@_0O@MEOJAOKK@atlTraceCache@ 100255a4     StdAfx.obj
 0002:000025b4       ??_C@_0BA@IDBKCKK@atlTraceStencil@ 100255b4     StdAfx.obj
 0002:000025c4       ??_C@_0P@MBNHGHMI@atlTraceString@ 100255c4     StdAfx.obj
 0002:000025d4       ??_C@_0M@IOBBMAHG@atlTraceMap@ 100255d4     StdAfx.obj
 0002:000025e0       ??_C@_0N@FEAAACHD@atlTraceUtil@ 100255e0     StdAfx.obj
 0002:000025f0       ??_C@_0BB@DNJDADMG@atlTraceSecurity@ 100255f0     StdAfx.obj
 0002:00002604       ??_C@_0N@KLPNCFEE@atlTraceSync@ 10025604     StdAfx.obj
 0002:00002614       ??_C@_0O@KHOBHOBJ@atlTraceISAPI@ 10025614     StdAfx.obj
 0002:00002622       ?chDirSep@ATL@@3DB         10025622     StdAfx.obj
 0002:00002623       ?chRightBracket@ATL@@3DB   10025623     StdAfx.obj
 0002:00002624       ?chLeftBracket@ATL@@3DB    10025624     StdAfx.obj
 0002:00002625       ?chQuote@ATL@@3DB          10025625     StdAfx.obj
 0002:00002626       ?chEquals@ATL@@3DB         10025626     StdAfx.obj
 0002:00002628       ?szStringVal@ATL@@3QBDB    10025628     StdAfx.obj
 0002:0000262c       ??_C@_01CPLAODJH@S@        1002562c     StdAfx.obj
 0002:00002630       ?multiszStringVal@ATL@@3QBDB 10025630     StdAfx.obj
 0002:00002634       ??_C@_01PLPBNMEI@M@        10025634     StdAfx.obj
 0002:00002638       ?szDwordVal@ATL@@3QBDB     10025638     StdAfx.obj
 0002:0000263c       ??_C@_01CKDDGHAB@D@        1002563c     StdAfx.obj
 0002:00002640       ?szBinaryVal@ATL@@3QBDB    10025640     StdAfx.obj
 0002:00002644       ??_C@_01HMGJMAIH@B@        10025644     StdAfx.obj
 0002:00002648       ?szValToken@ATL@@3QBDB     10025648     StdAfx.obj
 0002:0000264c       ??_C@_03LAIAPFCB@Val@      1002564c     StdAfx.obj
 0002:00002650       ?szForceRemove@ATL@@3QBDB  10025650     StdAfx.obj
 0002:00002654       ??_C@_0M@DBGDLGLL@ForceRemove@ 10025654     StdAfx.obj
 0002:00002660       ?szNoRemove@ATL@@3QBDB     10025660     StdAfx.obj
 0002:00002664       ??_C@_08KAAPDIAN@NoRemove@ 10025664     StdAfx.obj
 0002:00002670       ?szDelete@ATL@@3QBDB       10025670     StdAfx.obj
 0002:00002674       ??_C@_06JBKGCNBB@Delete@   10025674     StdAfx.obj
 0002:0000267c       _CLSID_Registrar           1002567c     StdAfx.obj
 0002:0000268c       _IID_IRegistrar            1002568c     StdAfx.obj
 0002:0000269c       _IID_IDocHostUIHandlerDispatch 1002569c     StdAfx.obj
 0002:000026b0       ??_7CAtlStringMgr@ATL@@6B@ 100256b0     StdAfx.obj
 0002:000026c8       _IID_IAxWinHostWindow      100256c8     StdAfx.obj
 0002:000026d8       _IID_IAxWinHostWindowLic   100256d8     StdAfx.obj
 0002:000026e8       _IID_IAxWinAmbientDispatch 100256e8     StdAfx.obj
 0002:000026f8       _IID_IAxWinAmbientDispatchEx 100256f8     StdAfx.obj
 0002:00002708       _IID_IInternalConnection   10025708     StdAfx.obj
 0002:00002718       ?szInvalidDateTime@ATL@@3QBDB 10025718     StdAfx.obj
 0002:0000271c       ??_C@_0BB@KEKMKJPM@Invalid?5DateTime@ 1002571c     StdAfx.obj
 0002:00002730       ?szInvalidDateTimeSpan@ATL@@3QBDB 10025730     StdAfx.obj
 0002:00002734       ??_C@_0BF@GPPHKJFN@Invalid?5DateTimeSpan@ 10025734     StdAfx.obj
 0002:0000274c       ?CLSID_WinFormsControl@@3U_GUID@@B 1002574c     StdAfx.obj
 0002:0000275c       _c_DwmMaxQueuedBuffers     1002575c     StdAfx.obj
 0002:00002760       _c_DwmMaxMonitors          10025760     StdAfx.obj
 0002:00002764       _c_DwmMaxAdapters          10025764     StdAfx.obj
 0002:00002768       _LIBID_ATLLib              10025768     StdAfx.obj
 0002:0000277c       ??_7CWin32Heap@ATL@@6B@    1002577c     StdAfx.obj
 0002:00002790       ??_C@_0BA@MKMIKKJB@atlTraceGeneral@ 10025790     StdAfx.obj
 0002:000027a0       ??_C@_0M@DGPFJEBB@atlTraceCOM@ 100257a0     StdAfx.obj
 0002:000027ac       ??_C@_0L@LHELAKBP@atlTraceQI@ 100257ac     StdAfx.obj
 0002:000027b8       ??_C@_0BC@MALHFBAO@atlTraceRegistrar@ 100257b8     StdAfx.obj
 0002:000027cc       ??_C@_0BB@ILPPDKFL@atlTraceRefcount@ 100257cc     StdAfx.obj
 0002:000027e0       ??_C@_0BC@DGHHNKDC@atlTraceWindowing@ 100257e0     StdAfx.obj
 0002:000027f4       ??_C@_0BB@GHKJKKIE@atlTraceControls@ 100257f4     StdAfx.obj
 0002:00002808       ??_C@_0BA@DKOAAGGM@atlTraceHosting@ 10025808     StdAfx.obj
 0002:00002818       ??_C@_0BB@BEBMGMDO@atlTraceDBClient@ 10025818     StdAfx.obj
 0002:0000282c       ??_C@_0BD@KOADKDIA@atlTraceDBProvider@ 1002582c     StdAfx.obj
 0002:00002840       ??_C@_0BE@PNGGGEBF@?2?2?4?2pipe?2DRFNTracer@ 10025840     Tracer.obj
 0002:00002858       ??_7CTracer@@6B@           10025858     Tracer.obj
 0002:0000285c       ??_C@_0BE@FJPKENOB@RMSG_GETSIGNAL_REAL@ 1002585c     TrComm.obj
 0002:000028c0       ??_C@_05IDAEEJNL@d1018@    100258c0     TrComm.obj
 0002:000028c8       ??_C@_08IOMDFAIH@pijs0111@ 100258c8     TrComm.obj
 0002:000028d4       ??_C@_08KFOOADEE@pijs0112@ 100258d4     TrComm.obj
 0002:000028e0       ??_C@_08MKFCJPDM@USDollar@ 100258e0     TrComm.obj
 0002:000028ec       ??_C@_0M@LDGDAJIA@MstCode?4dat@ 100258ec     TrComm.obj
 0002:000028f8       ??_C@_0BC@DDFFJNOD@?$CFs?2FindData?2?$CFs?2?$CFs@ 100258f8     TrComm.obj
 0002:0000290c       ??_C@_02ODIGJPFH@TR@       1002590c     TrComm.obj
 0002:00002910       ??_C@_09PEDPPOKH@PtManager@ 10025910     TrComm.obj
 0002:0000291c       ??_C@_0N@BAKLNJEL@IPartnerSite@ 1002591c     TrComm.obj
 0002:0000292c       ??_C@_02DPKJAMEF@?$CFd@    1002592c     _CompanyManager.obj
 0002:00002934       ??_7CCompanyManager@@6B@   10025934     _CompanyManager.obj
 0002:00002954       ??_C@_07MNIDNIOF@DAISHIN@  10025954     _CompanyManager.obj
 0002:0000295c       ??_C@_06NMDNNBDH@DAEWOO@   1002595c     _CompanyManager.obj
 0002:00002964       ??_C@_07CJPNPGBH@HYUNDAI@  10025964     _CompanyManager.obj
 0002:0000296c       ??_C@_05IOBOPHC@WOORI@     1002596c     _CompanyManager.obj
 0002:00002974       ??_C@_06PHIBLBFJ@HANWHA@   10025974     _CompanyManager.obj
 0002:0000297c       ??_C@_06HJALLPEB@DONGBU@   1002597c     _CompanyManager.obj
 0002:00002984       ??_C@_03KKAOFJMH@SK?7@     10025984     _CompanyManager.obj
 0002:00002988       ??_C@_05NJCJELEG@KYOBO@    10025988     _CompanyManager.obj
 0002:00002990       ??_C@_07BJCOJJDJ@DONGWON@  10025990     _CompanyManager.obj
 0002:00002998       ??_C@_06HLJNPKKD@KIWOOM@   10025998     _CompanyManager.obj
 0002:000029a0       ??_C@_05KBPIFHAF@SEOUL@    100259a0     _CompanyManager.obj
 0002:000029a8       ??_C@_07FGJCIAEP@SAMSUNG@  100259a8     _CompanyManager.obj
 0002:000029b0       ??_C@_07DJDHCFCP@BOOKOOK@  100259b0     _CompanyManager.obj
 0002:000029b8       ??_C@_05BPBHKHNH@HANTU@    100259b8     _CompanyManager.obj
 0002:000029c0       ??_C@_0O@NOPFNLCJ@EUGENE_SYSEDU@ 100259c0     _CompanyManager.obj
 0002:000029d4       ??_7?$CList@VCDMMngInfo@@V1@@@6B@ 100259d4     _DataMonitorManager.obj
 0002:000029ec       ??_7CAUDataMonitorManager@@6B@ 100259ec     _DataMonitorManager.obj
 0002:000029f8       ??_C@_0N@DOHINHCI@Advapi32?4dll@ 100259f8     _DataUtilManager.obj
 0002:00002a08       ??_C@_0BG@FGMNHMFJ@RegOpenKeyTransactedA@ 10025a08     _DataUtilManager.obj
 0002:00002a20       ??_C@_01GBGANLPD@0@        10025a20     _DataUtilManager.obj
 0002:00002a24       ??_C@_01HIHLOKLC@1@        10025a24     _DataUtilManager.obj
 0002:00002a28       ??_C@_01LFCBOECM@?4@       10025a28     _DataUtilManager.obj
 0002:00002a2c       ??_C@_06LOHACGPJ@?$CF?9?$CK?4?$CKs@ 10025a2c     _DataUtilManager.obj
 0002:00002a34       ??_C@_02EOKDGIFO@?$KB?h@   10025a34     _DataUtilManager.obj
 0002:00002a38       ??_C@_02KNFHLBJF@?$KB?c@   10025a38     _DataUtilManager.obj
 0002:00002a3c       ??_C@_02FHLIFJBP@?$KB?i@   10025a3c     _DataUtilManager.obj
 0002:00002a40       ??_C@_02PLANBGBD@?$KB?e@   10025a40     _DataUtilManager.obj
 0002:00002a44       ??_C@_01JOAMLHOP@?9@       10025a44     _DataUtilManager.obj
 0002:00002a48       ??_C@_05FDCEOMOF@?$CF6?46s@ 10025a48     _DataUtilManager.obj
 0002:00002a50       ??_C@_02PLJDPFIO@00@       10025a50     _DataUtilManager.obj
 0002:00002a54       ??_C@_08DFILJDFD@?$CF?903?403s@ 10025a54     _DataUtilManager.obj
 0002:00002a60       ??_C@_06MAHHELPF@?$CF?93?43s@ 10025a60     _DataUtilManager.obj
 0002:00002a68       ??_C@_0M@MLCONGPP@?$CFd?0?$CFd?0?$CFd?0?$CFd@ 10025a68     _DataUtilManager.obj
 0002:00002a74       ??_C@_08GDAMKODC@?$CFd?0?$CFd?0?$CFd@ 10025a74     _DataUtilManager.obj
 0002:00002a80       ??_C@_04HCDDPBNL@TRUE@     10025a80     _DataUtilManager.obj
 0002:00002a88       ??_C@_05KABNCBHK@?$CFd?0?$CFd@ 10025a88     _DataUtilManager.obj
 0002:00002a90       ??_C@_0BG@NLOOPDBJ@?$CF?$FL?$FO?0?$FN?0?$CFlf?0?$CFd?0?$CFd?0?$CFd?0?$CFd@ 10025a90     _DataUtilManager.obj
 0002:00002aa8       ??_C@_02CPNCMKFB@0?4@      10025aa8     _DataUtilManager.obj
 0002:00002aac       ??_C@_01IHBHIGKO@?0@       10025aac     _DataUtilManager.obj
 0002:00002ab0       ??_C@_04HGGMHPIM@?$CF?4?$CKf@ 10025ab0     _DataUtilManager.obj
 0002:00002ab8       ??_C@_02DKCKIIND@?$CFs@    10025ab8     _DataUtilManager.obj
 0002:00002abc       ??_C@_05OGILEIOE@?$CF?$CK?4?$CKd@ 10025abc     _DataUtilManager.obj
 0002:00002ac8       __real@0000000000000000    10025ac8     _DataUtilManager.obj
 0002:00002ad0       __real@4024000000000000    10025ad0     _DataUtilManager.obj
 0002:00002ad8       ??_C@_0BD@ILNAFPGE@RMSG_HandleToDebug@ 10025ad8     _DebugManager.obj
 0002:00002aec       ??_C@_01KICIPPFI@?2@       10025aec     _DebugManager.obj
 0002:00002af0       ??_C@_0O@GFDNBJDO@DRDebuger?4dll@ 10025af0     _DebugManager.obj
 0002:00002b00       ??_C@_0CF@IGNKKJMG@?$FLdrfn?$FNDLL?$CI?$CFs?$CJ?$MA?$LL?5Load?G?R?5?$LM?v?5?$LO?x?$LN?$MA?$LE@ 10025b00     _DebugManager.obj
 0002:00002b28       ??_C@_0O@PJEIPGOG@DRLog_Message@ 10025b28     _DebugManager.obj
 0002:00002b38       ??_C@_0BC@GJFJNGJF@DRLog_RequestData@ 10025b38     _DebugManager.obj
 0002:00002b4c       ??_C@_0BD@ENGDDGEF@DRLog_ResponseData@ 10025b4c     _DebugManager.obj
 0002:00002b60       ??_C@_0P@HFGANDLL@DRLog_RealData@ 10025b60     _DebugManager.obj
 0002:00002b74       ??_7CDebugManager@@6B@     10025b74     _DebugManager.obj
 0002:00002b9c       ??_C@_02CJNFGIML@aw@       10025b9c     _DebugManager.obj
 0002:00002ba0       ??_C@_02PCIJFNDE@?$AN?6@   10025ba0     _DebugManager.obj
 0002:00002ba8       ??_7?$CList@PAUIDrdsLib@@PAU1@@@6B@ 10025ba8     _DrdsManager.obj
 0002:00002bc0       ??_7CAUDrdsManager@@6B@    10025bc0     _DrdsManager.obj
 0002:00002bcc       ??_7CDrdsLib@@6B@          10025bcc     _DrdsManager.obj
 0002:00002c3c       ??_C@_09HPHLJGCO@Terminate@ 10025c3c     _GateManager.obj
 0002:00002c48       ??_C@_0BB@GLCHGPPD@SetPcTrInterface@ 10025c48     _GateManager.obj
 0002:00002c60       ??_7CCriticalSection@@6B@  10025c60     _MainExInfoManager.obj
 0002:00002c84       ??_7?$CList@PAUST_FOR_UserData@@PAU1@@@6B@ 10025c84     _MainExInfoManager.obj
 0002:00002c9c       ??_7CMainExInfoManager@@6B@ 10025c9c     _MainExInfoManager.obj
 0002:00002cd8       ??_7?$CList@UTR_CODEINFOEX@@U1@@@6B@ 10025cd8     _MainExInfoManager.obj
 0002:00002cec       ??_C@_0M@LGJCENKG@FIND_RESULT@ 10025cec     _MainExInfoManager.obj
 0002:00002cf8       ??_C@_09KGGGMDAE@?$CFs?2?$CFs?4dat@ 10025cf8     _MainExInfoManager.obj
 0002:00002d08       ??_7CMainInfoManager@@6B@  10025d08     _MainInfoManager.obj
 0002:00002d54       ??_C@_05LHCBPFHI@winix@    10025d54     _MainInfoManager.obj
 0002:00002d5c       ??_C@_0CC@BFOHDLAJ@GetUserID?G?T?$LM?v?5hWinixWnd?5is?5Null@ 10025d5c     _MainInfoManager.obj
 0002:00002d80       ??_C@_04LIOHGJKM@?$CF08u@  10025d80     _MainInfoManager.obj
 0002:00002d88       ??_C@_0L@LDPPIHFP@?$CFs?2user?2?$CFs@ 10025d88     _MainInfoManager.obj
 0002:00002d94       ??_C@_05PGKDIPIO@chart@    10025d94     _MainInfoManager.obj
 0002:00002d9c       ??_C@_06DJNEHHKG@?2Chart@  10025d9c     _MainInfoManager.obj
 0002:00002da4       ??_C@_08LOBMIHND@16599999@ 10025da4     _MasterDataManager.obj
 0002:00002db0       ??_C@_08IPPEJNEO@16699999@ 10025db0     _MasterDataManager.obj
 0002:00002dbc       ??_C@_08CJIDJGPK@16799999@ 10025dbc     _MasterDataManager.obj
 0002:00002dc8       ??_C@_08HCLGIHEN@17599999@ 10025dc8     _MasterDataManager.obj
 0002:00002dd4       ??_C@_08EDFOJNNA@17699999@ 10025dd4     _MasterDataManager.obj
 0002:00002de0       ??_C@_08OFCJJGGE@17799999@ 10025de0     _MasterDataManager.obj
 0002:00002dec       ??_C@_09MACBBLGN@?$LN?E3?$LD?b?$LB?$LJ?C?$KE@ 10025dec     _MasterDataManager.obj
 0002:00002df8       ??_C@_09GEOBCOK@?$LN?E5?$LD?b?$LB?$LJ?C?$KE@ 10025df8     _MasterDataManager.obj
 0002:00002e04       ??_C@_0L@HMDIKBGK@?$LN?E10?$LD?b?$LB?$LJ?C?$KE@ 10025e04     _MasterDataManager.obj
 0002:00002e10       ??_C@_08KBLNOBIL@?$LJ?L?$LB?$LJ?$LE?$NO?$LH?$KP@ 10025e10     _MasterDataManager.obj
 0002:00002e1c       ??_C@_02ELJGHAOK@?$LP?$KD@ 10025e1c     _MasterDataManager.obj
 0002:00002e20       ??_C@_04FAKIPLDP@?$MA?$KP?$LH?N@ 10025e20     _MasterDataManager.obj
 0002:00002e28       ??_C@_08EAJGKKNJ@11199999@ 10025e28     _MasterDataManager.obj
 0002:00002e34       ??_C@_08HBHOLAEE@11299999@ 10025e34     _MasterDataManager.obj
 0002:00002e40       ??_C@_08NHAJLLPA@11399999@ 10025e40     _MasterDataManager.obj
 0002:00002e4c       ??_C@_08BCKOIFHO@11499999@ 10025e4c     _MasterDataManager.obj
 0002:00002e58       ??_C@_08LENJIOMK@11599999@ 10025e58     _MasterDataManager.obj
 0002:00002e64       ??_C@_08IFDBJEFH@11699999@ 10025e64     _MasterDataManager.obj
 0002:00002e70       ??_C@_08NFAOOPAK@11899999@ 10025e70     _MasterDataManager.obj
 0002:00002e7c       ??_C@_08HDHJOELO@11999999@ 10025e7c     _MasterDataManager.obj
 0002:00002e88       ??_C@_08MOBJKNDK@12199999@ 10025e88     _MasterDataManager.obj
 0002:00002e94       ??_C@_08JMCBICJN@12499999@ 10025e94     _MasterDataManager.obj
 0002:00002ea0       ??_C@_08DDFLLHDJ@13299999@ 10025ea0     _MasterDataManager.obj
 0002:00002eac       ??_C@_08MHBEJDCK@13699999@ 10025eac     _MasterDataManager.obj
 0002:00002eb8       ??_C@_08DBFMODMD@13999999@ 10025eb8     _MasterDataManager.obj
 0002:00002ec4       ??_C@_08KOABKPAJ@14099999@ 10025ec4     _MasterDataManager.obj
 0002:00002ed0       ??_C@_08IHGKELN@14199999@  10025ed0     _MasterDataManager.obj
 0002:00002edc       ??_C@_08FKEOILBK@14499999@ 10025edc     _MasterDataManager.obj
 0002:00002ee8       ??_C@_08PMDJIAKO@14599999@ 10025ee8     _MasterDataManager.obj
 0002:00002ef4       ??_C@_08MNNBJKDD@14699999@ 10025ef4     _MasterDataManager.obj
 0002:00002f00       ??_C@_08JNOOOBGO@14899999@ 10025f00     _MasterDataManager.obj
 0002:00002f0c       ??_C@_08DLJJOKNK@14999999@ 10025f0c     _MasterDataManager.obj
 0002:00002f18       ??_C@_08GCKLKPJH@15099999@ 10025f18     _MasterDataManager.obj
 0002:00002f24       ??_C@_08MENMKECD@15199999@ 10025f24     _MasterDataManager.obj
 0002:00002f30       ??_C@_08PFDELOLO@15299999@ 10025f30     _MasterDataManager.obj
 0002:00002f3c       ??_C@_08JGOEILIE@15499999@ 10025f3c     _MasterDataManager.obj
 0002:00002f48       ??_C@_08BHLJKKN@15699999@  10025f48     _MasterDataManager.obj
 0002:00002f54       ??_C@_08KHAMJBBJ@15799999@ 10025f54     _MasterDataManager.obj
 0002:00002f60       ??_C@_08BKGOGNAK@?$LL?o?$LM?$LK?$MA?$PM?$MA?Z@ 10025f60     _MasterDataManager.obj
 0002:00002f6c       ??_C@_08EANOMECF@SK?E?Z?$LH?$LJ?D?$NO@ 10025f6c     _MasterDataManager.obj
 0002:00002f78       ??_C@_05EEJFFJCM@POSCO@    10025f78     _MasterDataManager.obj
 0002:00002f80       ??_C@_02KCKGNMJM@KT@       10025f80     _MasterDataManager.obj
 0002:00002f84       ??_C@_08KIFIOJGG@?G?Q?$LB?$LJ?$MA?$PM?$LH?B@ 10025f84     _MasterDataManager.obj
 0002:00002f90       ??_C@_06IFANCGDJ@?G?v?$LE?k?B?w@ 10025f90     _MasterDataManager.obj
 0002:00002f98       ??_C@_08HCDEPNLJ@?$LN?E?G?Q?A?v?A?V@ 10025f98     _MasterDataManager.obj
 0002:00002fa4       ??_C@_06IKBKOMOH@?$LB?b?$LO?F?B?w@ 10025fa4     _MasterDataManager.obj
 0002:00002fac       ??_C@_08LIIMLJHD@?$LL?o?$LM?$LK?$LJ?$LA?$LL?j@ 10025fac     _MasterDataManager.obj
 0002:00002fb8       ??_C@_06DMLIPPEJ@LG?$MA?$PM?$MA?Z@ 10025fb8     _MasterDataManager.obj
 0002:00002fc0       ??_C@_08MJOOLOHK@?G?v?$LE?k?A?$KG?C?$LG@ 10025fc0     _MasterDataManager.obj
 0002:00002fcc       ??_C@_0L@MIDFIBEK@?D?I?$MA?L?F?$LM?$LO?X?A?v@ 10025fcc     _MasterDataManager.obj
 0002:00002fd8       ??_C@_0L@IEKAILGB@?G?v?$LE?k?A?$NP?$LA?x?$LO?w@ 10025fd8     _MasterDataManager.obj
 0002:00002fe4       ??_C@_08PPLLKBAA@?G?O?$LD?$KK?A?v?A?V@ 10025fe4     _MasterDataManager.obj
 0002:00002ff0       ??_C@_0L@BIOHEOHB@SK?$MA?L?$LD?k?$LK?$KD?$MA?L@ 10025ff0     _MasterDataManager.obj
 0002:00002ffc       ??_C@_08LAHBHKPE@?$LP?l?$LI?$KO?$LB?$NN?$MA?$LG@ 10025ffc     _MasterDataManager.obj
 0002:00003008       ??_C@_03OOLJNGCC@LGD@      10026008     _MasterDataManager.obj
 0002:0000300c       ??_C@_06LMKGHFPL@KB?$LB?$NN?$MA?$LG@ 1002600c     _MasterDataManager.obj
 0002:00003014       ??_C@_08EAJFFFBH@?$LE?k?$LP?l?A?u?$LB?G@ 10026014     _MasterDataManager.obj
 0002:00003020       ??_C@_0L@IIIKKIBC@?$LF?N?$LL?j?$MA?N?G?A?$LG?s@ 10026020     _MasterDataManager.obj
 0002:0000302c       ??_C@_0L@NGNGEPAD@SK?G?O?$MA?L?$LE?P?$LN?$LK@ 1002602c     _MasterDataManager.obj
 0002:00003038       ??_C@_06JBNEDFIL@GS?$LA?G?$LM?$LD@ 10026038     _MasterDataManager.obj
 0002:00003040       ??_C@_03LFADLBBO@NHN@      10026040     _MasterDataManager.obj
 0002:00003044       ??_C@_06HFKMEIMD@?$MA?L?$LI?$LG?F?$KO@ 10026044     _MasterDataManager.obj
 0002:0000304c       ??_C@_05OEGGEDK@NAVER@     1002604c     _MasterDataManager.obj
 0002:00003054       ??_C@_08PLJBANDG@?$LE?k?G?Q?G?W?$LA?x@ 10026054     _MasterDataManager.obj
 0002:00003064       ??_7?$CList@PAUST_STRINGBYTE@@PAU1@@@6B@ 10026064     _MasterDataManager.obj
 0002:0000307c       ??_7?$CList@PAUST_STRINGSTRING@@PAU1@@@6B@ 1002607c     _MasterDataManager.obj
 0002:00003094       ??_7?$CList@PAVCMDM_SubItemA@@PAV1@@@6B@ 10026094     _MasterDataManager.obj
 0002:000030ac       ??_7CMasterDataManager@@6B@ 100260ac     _MasterDataManager.obj
 0002:00003194       ??_C@_0CL@GPDHJMEN@CMasterDataManager?3?3GetCodeInfo@ 10026194     _MasterDataManager.obj
 0002:000031c0       ??_C@_07OLCDEDDD@PMASTER@  100261c0     _MasterDataManager.obj
 0002:000031c8       ??_C@_08BLEEFNBD@99999999@ 100261c8     _MasterDataManager.obj
 0002:000031d4       ??_C@_08NABHDGJE@?$LP?$KM?$LA?a?$LM?$LB?$LJ?$LA@ 100261d4     _MasterDataManager.obj
 0002:000031e0       ??_C@_02OCIIMEMP@01@       100261e0     _MasterDataManager.obj
 0002:000031e4       ??_C@_04OKGDLNCL@NONE@     100261e4     _MasterDataManager.obj
 0002:000031ec       ??_C@_08HIHDIOFE@10599999@ 100261ec     _MasterDataManager.obj
 0002:000031f8       ??_C@_0N@JNGEDGEI@MINI_PMASTER@ 100261f8     _MasterDataManager.obj
 0002:00003208       ??_C@_0P@FMLLHEEC@WEEKLY_PMASTER@ 10026208     _MasterDataManager.obj
 0002:00003218       ??_C@_08JJGADJMB@JFMASTER@ 10026218     _MasterDataManager.obj
 0002:00003224       ??_C@_08CDLEABGN@JPMASTER@ 10026224     _MasterDataManager.obj
 0002:00003230       ??_C@_07GIFFKKBJ@UMaster@  10026230     _MasterDataManager.obj
 0002:00003238       ??_C@_08MIBFMCCD@kumASTER@ 10026238     _MasterDataManager.obj
 0002:00003244       ??_C@_08KAAILMHE@TMMASTER@ 10026244     _MasterDataManager.obj
 0002:00003250       ??_C@_09IAHCBABO@ETFMASTER@ 10026250     _MasterDataManager.obj
 0002:0000325c       ??_C@_0L@OHPCOPCM@KRXUMaster@ 1002625c     _MasterDataManager.obj
 0002:00003268       ??_C@_0L@NKGAIOEK@KNXUMaster@ 10026268     _MasterDataManager.obj
 0002:00003274       ??_C@_0M@BJHBANG@K200UMaster@ 10026274     _MasterDataManager.obj
 0002:00003280       ??_C@_0M@JIHFHGNH@K100UMaster@ 10026280     _MasterDataManager.obj
 0002:0000328c       ??_C@_09ENEJIBAF@GRPMASTER@ 1002628c     _MasterDataManager.obj
 0002:00003298       ??_C@_0P@EGFOEIBB@ELWINDEXMASTER@ 10026298     _MasterDataManager.obj
 0002:000032a8       ??_C@_0P@KNDADNMH@ELWISSUEMASTER@ 100262a8     _MasterDataManager.obj
 0002:000032b8       ??_C@_08FPNDIEGG@KOSPI200@ 100262b8     _MasterDataManager.obj
 0002:000032c4       ??_C@_0L@BNBKENBG@OLDFMASTER@ 100262c4     _MasterDataManager.obj
 0002:000032d0       ??_C@_09FDJHALKL@ETNMASTER@ 100262d0     _MasterDataManager.obj
 0002:000032dc       ??_C@_08IHKFPFAE@FRMASTER@ 100262dc     _MasterDataManager.obj
 0002:000032e8       ??_C@_0M@GIJCJECJ@FRALLMASTER@ 100262e8     _MasterDataManager.obj
 0002:000032f4       ??_C@_09EOHOLPDH@?G?X?$LP?$NM_?A?v?$LM?v@ 100262f4     _MasterDataManager.obj
 0002:00003300       ??_C@_09FIJGPBPO@?G?X?$LP?$NM_?A?$LO?$LI?q@ 10026300     _MasterDataManager.obj
 0002:0000330c       ??_C@_09OJBHNBKF@?G?X?$LP?$NM_?$LM?$LB?$LJ?$LA@ 1002630c     _MasterDataManager.obj
 0002:00003318       ??_C@_09LFPEAIEH@?G?X?$LP?$NM_?$LB?$NN?$LI?$KO@ 10026318     _MasterDataManager.obj
 0002:00003324       ??_C@_09KDPLAHCI@?G?X?$LP?$NM_?$LB?$LJ?C?$KE@ 10026324     _MasterDataManager.obj
 0002:00003330       ??_C@_09DMJFIGFL@?G?X?$LP?$NM_?H?$KP?$MA?$LC@ 10026330     _MasterDataManager.obj
 0002:0000333c       ??_C@_0L@DCFGPMNO@FOFLMASTER@ 1002633c     _MasterDataManager.obj
 0002:00003348       ??_C@_08GABLNBPO@FOMASTER@ 10026348     _MasterDataManager.obj
 0002:00003354       ??_C@_0L@HKLGPCLK@FOFIMASTER@ 10026354     _MasterDataManager.obj
 0002:00003360       ??_C@_0M@PBAPLLLB@FOVOLMASTER@ 10026360     _MasterDataManager.obj
 0002:0000336c       ??_C@_0O@LDCDNJJA@FOMAKETMASTER@ 1002636c     _MasterDataManager.obj
 0002:0000337c       ??_C@_08OPOALDAF@?$LL?s?G?$LA?$LM?$LB?$LJ?$LA@ 1002637c     _MasterDataManager.obj
 0002:00003388       ??_C@_0BA@IBKFDOEP@COMMODITYMASTER@ 10026388     _MasterDataManager.obj
 0002:00003398       ??_C@_08MDFMLEEP@?$LE?$NO?$LH?$KP?$LP?I?$LM?G@ 10026398     _MasterDataManager.obj
 0002:000033a4       ??_C@_0M@MCMLCOFH@?$CFs?5?$LP?$KM?$LA?h?$LM?$LB?$LJ?$LA@ 100263a4     _MasterDataManager.obj
 0002:000033b0       ??_C@_05GJGEDGEA@99999@    100263b0     _MasterDataManager.obj
 0002:000033b8       ??_C@_01EOFPKCAF@?$EA@     100263b8     _MasterDataManager.obj
 0002:000033bc       ??_C@_01EPMOAMKG@$@        100263bc     _MasterDataManager.obj
 0002:000033c0       ??_C@_04CHAACBNH@COMP@     100263c0     _MasterDataManager.obj
 0002:000033c8       ??_C@_04MNJIGKCA@SMBS@     100263c8     _MasterDataManager.obj
 0002:000033d0       ??_C@_04KFDECMLJ@1301@     100263d0     _MasterDataManager.obj
 0002:000033d8       ??_C@_05KGAGPFBB@20301@    100263d8     _MasterDataManager.obj
 0002:000033e0       ??_C@_05LNKGNLBG@cfcod@    100263e0     _MasterDataManager.obj
 0002:000033e8       ??_C@_08CAHIGOCN@ed_focod@ 100263e8     _MasterDataManager.obj
 0002:000033f4       ??_C@_05LLADMFKJ@50301@    100263f4     _MasterDataManager.obj
 0002:000033fc       ??_C@_06MEGEOGFA@109301@   100263fc     _MasterDataManager.obj
 0002:00003404       ??_C@_05PGMLGEKC@70301@    10026404     _MasterDataManager.obj
 0002:0000340c       ??_C@_0BG@KJDCKONO@?$CFs?2sfcode_history?4dat@ 1002640c     _MasterDataManager.obj
 0002:00003424       ??_C@_01GPOEFGEJ@?7@       10026424     _MasterDataManager.obj
 0002:00003428       ??_C@_01EEMJAFIK@?6@       10026428     _MasterDataManager.obj
 0002:0000342c       ??_C@_02KCIOKDCD@?D?$NN@   1002642c     _MasterDataManager.obj
 0002:00003430       ??_C@_02ECKNGKBC@?G?$LC@   10026430     _MasterDataManager.obj
 0002:00003434       ??_C@_0BD@HINLDEKK@?$CFc?5?$CF?96?46s?5?$CF?910?410s@ 10026434     _MasterDataManager.obj
 0002:00003448       ??_C@_0BJ@CKJCHOEA@?$CF11s?$CFc?520?$CF?94?44s?5?$CF?910?410s@ 10026448     _MasterDataManager.obj
 0002:00003468       ??_7?$CMap@V?$CStringT@DV?$StrTraitMFC_DLL@DV?$ChTraitsCRT@D@ATL@@@@@ATL@@PBDHH@@6B@ 10026468     _MasterDataManager.obj
 0002:0000347c       ??_C@_0BH@FMGEIAEE@?$CF11s?$CFc?5?$CF?96?46s?5?$CF?910?410s@ 1002647c     _MasterDataManager.obj
 0002:00003494       ??_C@_05CPHNPHLB@1001?8@   10026494     _MasterDataManager.obj
 0002:0000349c       ??_C@_05KJOJIFBP@2001?8@   1002649c     _MasterDataManager.obj
 0002:000034a4       ??_C@_0O@OMOPLLFB@?$LJ?L?$LE?O?5?$LP?$KM?$LA?a?$LM?$LB?$LJ?$LA@ 100264a4     _MasterDataManager.obj
 0002:000034b4       ??_C@_02PPKAJPJL@?$CG?$CG@ 100264b4     _MasterDataManager.obj
 0002:000034b8       ??_C@_01HNPIGOCE@?$CG@     100264b8     _MasterDataManager.obj
 0002:000034bc       ??_C@_08CLPJIDHK@101DC000@ 100264bc     _MasterDataManager.obj
 0002:000034c8       ??_C@_08BJHHLABA@101E3000@ 100264c8     _MasterDataManager.obj
 0002:000034d4       ??_C@_08NBJHDPGA@101E6000@ 100264d4     _MasterDataManager.obj
 0002:000034e0       ??_C@_08FDMHKILB@101E9000@ 100264e0     _MasterDataManager.obj
 0002:000034ec       ??_C@_06KGDPLBIP@F?50912@  100264ec     _MasterDataManager.obj
 0002:000034f4       ??_C@_06POIOIMMD@F?51003@  100264f4     _MasterDataManager.obj
 0002:000034fc       ??_C@_06IDPJHIIG@F?51006@  100264fc     _MasterDataManager.obj
 0002:00003504       ??_C@_06EGBGEEJ@F?51009@   10026504     _MasterDataManager.obj
 0002:0000350c       ??_C@_02ONHIBMNM@M?5@      1002650c     _MasterDataManager.obj
 0002:00003510       ??_C@_0BB@CCCLGDLP@?$CFc?5?$CF?97?47s?5?$CF?99?49s@ 10026510     _MasterDataManager.obj
 0002:00003530       __xmm@0000000a000000000000000000000000 10026530     _MasterDataManager.obj
 0002:00003544       ??_7?$CList@PAUST_NewsSignalMng@@PAU1@@@6B@ 10026544     _NewSignalManager.obj
 0002:0000355c       ??_7CNewsSignalManager@@6B@ 1002655c     _NewSignalManager.obj
 0002:00003584       ??_C@_04EKPIFALL@?2DEV@    10026584     _NewSignalManager.obj
 0002:00003590       ??_7CPCTRManager@@6B@      10026590     _PCTrManager.obj
 0002:000035bc       ??_C@_04LJDDIHIK@?4bmp@    100265bc     _SkinColorManager.obj
 0002:000035c8       ??_7?$CArray@U_tabUserColorTable@@U1@@@6B@ 100265c8     _SkinColorManager.obj
 0002:000035e0       ??_7?$CList@PAUISkinColorSite@@PAU1@@@6B@ 100265e0     _SkinColorManager.obj
 0002:000035f8       ??_7?$CArray@UST_SKININFO@@U1@@@6B@ 100265f8     _SkinColorManager.obj
 0002:00003610       ??_7CSkinColorManager@@6B@ 10026610     _SkinColorManager.obj
 0002:00003650       ??_C@_04KIHPKAMN@?$LA?$LD?$LM?v@ 10026650     _SkinColorManager.obj
 0002:00003658       ??_C@_08JEMOIDPL@?D?C?$LH?$KP?$LA?$LD?$LM?v@ 10026658     _SkinColorManager.obj
 0002:00003664       ??_C@_0DB@OKFKJJJD@?F?D?$MA?O?$FL?$CFs?$FN?$LP?$KB?$LM?$KN?5?D?$KO?$LG?s?E?W?$MA?L?$LK?m?5?A?$KE?$LK?$LI?$LI?$KG?5@ 10026664     _SkinColorManager.obj
 0002:00003698       ??_C@_0L@MNJMPGLE@?D?C?$LH?$KP?$MA?N?$LF?$KG?$LN?$LK@ 10026698     _SkinColorManager.obj
 0002:000036a4       ??_C@_0BC@HNKKLCOJ@?$CF?$FL?$FO?0?$FN?0?5?$CFd?0?5?$CFd?0?5?$CFd@ 100266a4     _SkinColorManager.obj
 0002:000036b8       ??_C@_0BA@NMCBNOGD@Data?2Config?4cfg@ 100266b8     _SkinColorManager.obj
 0002:000036c8       ??_C@_04BLMKLGAB@SKIN@     100266c8     _SkinColorManager.obj
 0002:000036d0       ??_C@_05IJGIMMHE@Count@    100266d0     _SkinColorManager.obj
 0002:000036d8       ??_C@_04OGKJMPGK@?$CF02d@  100266d8     _SkinColorManager.obj
 0002:000036e0       ??_C@_0EK@KHAKBPBF@?$LN?$LK?E?$LC?$LA?m?$MA?$PM?$HMDefaultColorTable?4cfg?$HM@ 100266e0     _SkinColorManager.obj
 0002:0000372c       ??_C@_06JHNIBAJK@CLSID?2@  1002672c     _SystemUtilManager.obj
 0002:00003734       ??_C@_0BA@CCGIMEPP@?2InprocServer32@ 10026734     _SystemUtilManager.obj
 0002:00003744       ??_C@_0P@IKCDKIKH@?2LocalServer32@ 10026744     _SystemUtilManager.obj
 0002:00003754       ??_C@_0BH@OANCKEIH@?2System32?2regsvr32?4exe@ 10026754     _SystemUtilManager.obj
 0002:0000376c       ??_C@_08LMJFGFMJ@?5?1s?5?$CC?$CFs?$CC@ 1002676c     _SystemUtilManager.obj
 0002:00003778       ??_C@_02EMFKHFLK@?$CFX@    10026778     _TRCommManager.obj
 0002:00003780       ??_7CTRComm@@6B@           10026780     _TRCommManager.obj
 0002:000038f4       ??_7?$CList@PAVCTrCommImpl@@PAV1@@@6B@ 100268f4     _TRCommManager.obj
 0002:0000390c       ??_7CTrCommManager@@6B@    1002690c     _TRCommManager.obj
 0002:00003920       ??_7CTrCommImpl@@6B@       10026920     _TRCommManager.obj
 0002:00003938       ??_C@_04KLKHHPIG@MAIN@     10026938     _TRCommManager.obj
 0002:00003940       __pAtlLcidToLocaleNameTable 10026940     mfcs140:nolib.obj
 0002:00004060       ??_C@_15EMKDOKLE@?$AAa?$AAr@ 10027060     mfcs140:nolib.obj
 0002:00004068       ??_C@_15KNPADPLH@?$AAb?$AAg@ 10027068     mfcs140:nolib.obj
 0002:00004070       ??_C@_15EDMHLDMO@?$AAc?$AAa@ 10027070     mfcs140:nolib.obj
 0002:00004078       ??_C@_1O@BPEAJADD@?$AAz?$AAh?$AA?9?$AAC?$AAH?$AAS@ 10027078     mfcs140:nolib.obj
 0002:00004088       ??_C@_15LJNHCMNK@?$AAc?$AAs@ 10027088     mfcs140:nolib.obj
 0002:00004090       ??_C@_15FOMCIDHG@?$AAd?$AAa@ 10027090     mfcs140:nolib.obj
 0002:00004098       ??_C@_15NBKABECB@?$AAd?$AAe@ 10027098     mfcs140:nolib.obj
 0002:000040a0       ??_C@_15GHPEIIAO@?$AAe?$AAl@ 100270a0     mfcs140:nolib.obj
 0002:000040a8       ??_C@_15MNPNEAIF@?$AAe?$AAn@ 100270a8     mfcs140:nolib.obj
 0002:000040b0       ??_C@_15GPIOMPMH@?$AAe?$AAs@ 100270b0     mfcs140:nolib.obj
 0002:000040b8       ??_C@_15NGLOAKJC@?$AAf?$AAi@ 100270b8     mfcs140:nolib.obj
 0002:000040c0       ??_C@_15FBKGNKAM@?$AAf?$AAr@ 100270c0     mfcs140:nolib.obj
 0002:000040c8       ??_C@_15KGGCNEFK@?$AAh?$AAe@ 100270c8     mfcs140:nolib.obj
 0002:000040d0       ??_C@_15PGHLIDMF@?$AAh?$AAu@ 100270d0     mfcs140:nolib.obj
 0002:000040d8       ??_C@_15BIEMAPLM@?$AAi?$AAs@ 100270d8     mfcs140:nolib.obj
 0002:000040e0       ??_C@_15IFJLDHAF@?$AAi?$AAt@ 100270e0     mfcs140:nolib.obj
 0002:000040e8       ??_C@_15GEMIOCAG@?$AAj?$AAa@ 100270e8     mfcs140:nolib.obj
 0002:000040f0       ??_C@_15EPELEGJA@?$AAk?$AAo@ 100270f0     mfcs140:nolib.obj
 0002:000040f8       ??_C@_15NDDHIMN@?$AAn?$AAl@ 100270f8     mfcs140:nolib.obj
 0002:00004100       ??_C@_15BPIGNHCD@?$AAn?$AAo@ 10027100     mfcs140:nolib.obj
 0002:00004108       ??_C@_15DEOPBLCG@?$AAp?$AAl@ 10027108     mfcs140:nolib.obj
 0002:00004110       ??_C@_15KBECGEFG@?$AAp?$AAt@ 10027110     mfcs140:nolib.obj
 0002:00004118       ??_C@_15GLJCBFMD@?$AAr?$AAo@ 10027118     mfcs140:nolib.obj
 0002:00004120       ??_C@_15FEDGKCDI@?$AAr?$AAu@ 10027120     mfcs140:nolib.obj
 0002:00004128       ??_C@_15GLKMLLHM@?$AAh?$AAr@ 10027128     mfcs140:nolib.obj
 0002:00004130       ??_C@_15CPKMFBDB@?$AAs?$AAk@ 10027130     mfcs140:nolib.obj
 0002:00004138       ??_C@_15BAAIOGMK@?$AAs?$AAq@ 10027138     mfcs140:nolib.obj
 0002:00004140       ??_C@_15INNPNOHD@?$AAs?$AAv@ 10027140     mfcs140:nolib.obj
 0002:00004148       ??_C@_15CABMMOGH@?$AAt?$AAh@ 10027148     mfcs140:nolib.obj
 0002:00004150       ??_C@_15BPLIHJJM@?$AAt?$AAr@ 10027150     mfcs140:nolib.obj
 0002:00004158       ??_C@_15NEOEKKDJ@?$AAu?$AAr@ 10027158     mfcs140:nolib.obj
 0002:00004160       ??_C@_15NFICGAJK@?$AAi?$AAd@ 10027160     mfcs140:nolib.obj
 0002:00004168       ??_C@_15PJPFLCCM@?$AAu?$AAk@ 10027168     mfcs140:nolib.obj
 0002:00004170       ??_C@_15HPJPHDM@?$AAb?$AAe@ 10027170     mfcs140:nolib.obj
 0002:00004178       ??_C@_15LCHLGJII@?$AAs?$AAl@ 10027178     mfcs140:nolib.obj
 0002:00004180       ??_C@_15PCFJPHHO@?$AAe?$AAt@ 10027180     mfcs140:nolib.obj
 0002:00004188       ??_C@_15HPFPGODN@?$AAl?$AAv@ 10027188     mfcs140:nolib.obj
 0002:00004190       ??_C@_15NFFGKGLG@?$AAl?$AAt@ 10027190     mfcs140:nolib.obj
 0002:00004198       ??_C@_15BDAKCCHN@?$AAf?$AAa@ 10027198     mfcs140:nolib.obj
 0002:000041a0       ??_C@_15NFGIAIAJ@?$AAv?$AAi@ 100271a0     mfcs140:nolib.obj
 0002:000041a8       ??_C@_15LMKNDMHN@?$AAh?$AAy@ 100271a8     mfcs140:nolib.obj
 0002:000041b0       ??_C@_15IJBHMCFL@?$AAa?$AAz@ 100271b0     mfcs140:nolib.obj
 0002:000041b8       ??_C@_15EKOFJABL@?$AAe?$AAu@ 100271b8     mfcs140:nolib.obj
 0002:000041c0       ??_C@_15BGHADCNK@?$AAm?$AAk@ 100271c0     mfcs140:nolib.obj
 0002:000041c8       ??_C@_15JDNICKHM@?$AAa?$AAf@ 100271c8     mfcs140:nolib.obj
 0002:000041d0       ??_C@_15KPJEDBKD@?$AAk?$AAa@ 100271d0     mfcs140:nolib.obj
 0002:000041d8       ??_C@_15PDNFFFEO@?$AAf?$AAo@ 100271d8     mfcs140:nolib.obj
 0002:000041e0       ??_C@_15OMLEGLOC@?$AAh?$AAi@ 100271e0     mfcs140:nolib.obj
 0002:000041e8       ??_C@_15IDNNENKK@?$AAm?$AAs@ 100271e8     mfcs140:nolib.obj
 0002:000041f0       ??_C@_15MACJNBMH@?$AAk?$AAk@ 100271f0     mfcs140:nolib.obj
 0002:000041f8       ??_C@_15DKDJEOND@?$AAk?$AAy@ 100271f8     mfcs140:nolib.obj
 0002:00004200       ??_C@_15DFGDLJBG@?$AAs?$AAw@ 10027200     mfcs140:nolib.obj
 0002:00004208       ??_C@_15BBFAICNG@?$AAu?$AAz@ 10027208     mfcs140:nolib.obj
 0002:00004210       ??_C@_15DKNDCGEA@?$AAt?$AAt@ 10027210     mfcs140:nolib.obj
 0002:00004218       ??_C@_15MGIFMDPL@?$AAp?$AAa@ 10027218     mfcs140:nolib.obj
 0002:00004220       ??_C@_15HCNDBBA@?$AAg?$AAu@ 10027220     mfcs140:nolib.obj
 0002:00004228       ??_C@_15FNBEIBON@?$AAt?$AAa@ 10027228     mfcs140:nolib.obj
 0002:00004230       ??_C@_15NCHGBGLK@?$AAt?$AAe@ 10027230     mfcs140:nolib.obj
 0002:00004238       ??_C@_15PHPHCBPF@?$AAk?$AAn@ 10027238     mfcs140:nolib.obj
 0002:00004240       ??_C@_15DLGBCKMP@?$AAm?$AAr@ 10027240     mfcs140:nolib.obj
 0002:00004248       ??_C@_15EABBLBFF@?$AAs?$AAa@ 10027248     mfcs140:nolib.obj
 0002:00004250       ??_C@_15CBKOMCOI@?$AAm?$AAn@ 10027250     mfcs140:nolib.obj
 0002:00004258       ??_C@_15CKDMCJAF@?$AAg?$AAl@ 10027258     mfcs140:nolib.obj
 0002:00004260       ??_C@_17CNJFBPG@?$AAk?$AAo?$AAk@ 10027260     mfcs140:nolib.obj
 0002:00004268       ??_C@_17FFBJICPL@?$AAs?$AAy?$AAr@ 10027268     mfcs140:nolib.obj
 0002:00004270       ??_C@_17KPNDCPAF@?$AAd?$AAi?$AAv@ 10027270     mfcs140:nolib.obj
 0002:00004278       ??_C@_11LOCGONAA@@         10027278     mfcs140:nolib.obj
 0002:0000427c       ??_C@_1M@OKAHONE@?$AAa?$AAr?$AA?9?$AAS?$AAA@ 1002727c     mfcs140:nolib.obj
 0002:00004288       ??_C@_1M@FFFIGIGK@?$AAb?$AAg?$AA?9?$AAB?$AAG@ 10027288     mfcs140:nolib.obj
 0002:00004294       ??_C@_1M@BJNKEDC@?$AAc?$AAa?$AA?9?$AAE?$AAS@ 10027294     mfcs140:nolib.obj
 0002:000042a0       ??_C@_1M@CLNBBOPM@?$AAz?$AAh?$AA?9?$AAT?$AAW@ 100272a0     mfcs140:nolib.obj
 0002:000042ac       ??_C@_1M@IJJHFJHA@?$AAc?$AAs?$AA?9?$AAC?$AAZ@ 100272ac     mfcs140:nolib.obj
 0002:000042b8       ??_C@_1M@CLPEOBGI@?$AAd?$AAa?$AA?9?$AAD?$AAK@ 100272b8     mfcs140:nolib.obj
 0002:000042c4       ??_C@_1M@MCMADGCB@?$AAd?$AAe?$AA?9?$AAD?$AAE@ 100272c4     mfcs140:nolib.obj
 0002:000042d0       ??_C@_1M@OOCKEMAM@?$AAe?$AAl?$AA?9?$AAG?$AAR@ 100272d0     mfcs140:nolib.obj
 0002:000042dc       ??_C@_1M@BMHNFIME@?$AAe?$AAn?$AA?9?$AAU?$AAS@ 100272dc     mfcs140:nolib.obj
 0002:000042e8       ??_C@_1M@DDNJFGID@?$AAf?$AAi?$AA?9?$AAF?$AAI@ 100272e8     mfcs140:nolib.obj
 0002:000042f4       ??_C@_1M@GLIPPMAC@?$AAf?$AAr?$AA?9?$AAF?$AAR@ 100272f4     mfcs140:nolib.obj
 0002:00004300       ??_C@_1M@GFMCHPE@?$AAh?$AAe?$AA?9?$AAI?$AAL@ 10027300     mfcs140:nolib.obj
 0002:0000430c       ??_C@_1M@MHLPGNKM@?$AAh?$AAu?$AA?9?$AAH?$AAU@ 1002730c     mfcs140:nolib.obj
 0002:00004318       ??_C@_1M@LPDDNNPN@?$AAi?$AAs?$AA?9?$AAI?$AAS@ 10027318     mfcs140:nolib.obj
 0002:00004324       ??_C@_1M@MADIPODN@?$AAi?$AAt?$AA?9?$AAI?$AAT@ 10027324     mfcs140:nolib.obj
 0002:00004330       ??_C@_1M@HPNHIDJI@?$AAj?$AAa?$AA?9?$AAJ?$AAP@ 10027330     mfcs140:nolib.obj
 0002:0000433c       ??_C@_1M@JLOOOEGK@?$AAk?$AAo?$AA?9?$AAK?$AAR@ 1002733c     mfcs140:nolib.obj
 0002:00004348       ??_C@_1M@IHBJJGG@?$AAn?$AAl?$AA?9?$AAN?$AAL@ 10027348     mfcs140:nolib.obj
 0002:00004354       ??_C@_1M@EANAGDL@?$AAn?$AAb?$AA?9?$AAN?$AAO@ 10027354     mfcs140:nolib.obj
 0002:00004360       ??_C@_1M@NEIEMEGP@?$AAp?$AAl?$AA?9?$AAP?$AAL@ 10027360     mfcs140:nolib.obj
 0002:0000436c       ??_C@_1M@BOCFIGEP@?$AAp?$AAt?$AA?9?$AAB?$AAR@ 1002736c     mfcs140:nolib.obj
 0002:00004378       ??_C@_1M@IMPFOPBG@?$AAr?$AAo?$AA?9?$AAR?$AAO@ 10027378     mfcs140:nolib.obj
 0002:00004384       ??_C@_1M@IDNNEJMM@?$AAr?$AAu?$AA?9?$AAR?$AAU@ 10027384     mfcs140:nolib.obj
 0002:00004390       ??_C@_1M@LILEEOGM@?$AAh?$AAr?$AA?9?$AAH?$AAR@ 10027390     mfcs140:nolib.obj
 0002:0000439c       ??_C@_1M@FKIFEHPB@?$AAs?$AAk?$AA?9?$AAS?$AAK@ 1002739c     mfcs140:nolib.obj
 0002:000043a8       ??_C@_1M@LJMAMNPJ@?$AAs?$AAq?$AA?9?$AAA?$AAL@ 100273a8     mfcs140:nolib.obj
 0002:000043b4       ??_C@_1M@GIAKDKJK@?$AAs?$AAv?$AA?9?$AAS?$AAE@ 100273b4     mfcs140:nolib.obj
 0002:000043c0       ??_C@_1M@MKJKIKCL@?$AAt?$AAh?$AA?9?$AAT?$AAH@ 100273c0     mfcs140:nolib.obj
 0002:000043cc       ??_C@_1M@MFLCCMPB@?$AAt?$AAr?$AA?9?$AAT?$AAR@ 100273cc     mfcs140:nolib.obj
 0002:000043d8       ??_C@_1M@OIJHDKJN@?$AAu?$AAr?$AA?9?$AAP?$AAK@ 100273d8     mfcs140:nolib.obj
 0002:000043e4       ??_C@_1M@LHIPCIEK@?$AAi?$AAd?$AA?9?$AAI?$AAD@ 100273e4     mfcs140:nolib.obj
 0002:000043f0       ??_C@_1M@MFMOBGI@?$AAu?$AAk?$AA?9?$AAU?$AAA@ 100273f0     mfcs140:nolib.obj
 0002:000043fc       ??_C@_1M@OBGLJIPL@?$AAb?$AAe?$AA?9?$AAB?$AAY@ 100273fc     mfcs140:nolib.obj
 0002:00004408       ??_C@_1M@BCFAJEAD@?$AAs?$AAl?$AA?9?$AAS?$AAI@ 10027408     mfcs140:nolib.obj
 0002:00004414       ??_C@_1M@FKFFEDDN@?$AAe?$AAt?$AA?9?$AAE?$AAE@ 10027414     mfcs140:nolib.obj
 0002:00004420       ??_C@_1M@KGKKAACI@?$AAl?$AAv?$AA?9?$AAL?$AAV@ 10027420     mfcs140:nolib.obj
 0002:0000442c       ??_C@_1M@IFGBIJO@?$AAl?$AAt?$AA?9?$AAL?$AAT@ 1002742c     mfcs140:nolib.obj
 0002:00004438       ??_C@_1M@FGEAHEDM@?$AAf?$AAa?$AA?9?$AAI?$AAR@ 10027438     mfcs140:nolib.obj
 0002:00004444       ??_C@_1M@KBMAIBFN@?$AAv?$AAi?$AA?9?$AAV?$AAN@ 10027444     mfcs140:nolib.obj
 0002:00004450       ??_C@_1M@GPCBKDJK@?$AAh?$AAy?$AA?9?$AAA?$AAM@ 10027450     mfcs140:nolib.obj
 0002:0000445c       ??_C@_1BG@BECMDDJB@?$AAa?$AAz?$AA?9?$AAA?$AAZ?$AA?9?$AAL?$AAa?$AAt?$AAn@ 1002745c     mfcs140:nolib.obj
 0002:00004474       ??_C@_1M@MAOFCAEA@?$AAe?$AAu?$AA?9?$AAE?$AAS@ 10027474     mfcs140:nolib.obj
 0002:00004480       ??_C@_1M@IGHABKPI@?$AAm?$AAk?$AA?9?$AAM?$AAK@ 10027480     mfcs140:nolib.obj
 0002:0000448c       ??_C@_1M@IAIGNEJG@?$AAt?$AAn?$AA?9?$AAZ?$AAA@ 1002748c     mfcs140:nolib.obj
 0002:00004498       ??_C@_1M@IIJCOJFA@?$AAx?$AAh?$AA?9?$AAZ?$AAA@ 10027498     mfcs140:nolib.obj
 0002:000044a4       ??_C@_1M@LGPJHNJH@?$AAz?$AAu?$AA?9?$AAZ?$AAA@ 100274a4     mfcs140:nolib.obj
 0002:000044b0       ??_C@_1M@HOKAOIO@?$AAa?$AAf?$AA?9?$AAZ?$AAA@ 100274b0     mfcs140:nolib.obj
 0002:000044bc       ??_C@_1M@DPCLHLIE@?$AAk?$AAa?$AA?9?$AAG?$AAE@ 100274bc     mfcs140:nolib.obj
 0002:000044c8       ??_C@_1M@BLKMHJBI@?$AAf?$AAo?$AA?9?$AAF?$AAO@ 100274c8     mfcs140:nolib.obj
 0002:000044d4       ??_C@_1M@LGGJAPPB@?$AAh?$AAi?$AA?9?$AAI?$AAN@ 100274d4     mfcs140:nolib.obj
 0002:000044e0       ??_C@_1M@FIKPIHFE@?$AAm?$AAt?$AA?9?$AAM?$AAT@ 100274e0     mfcs140:nolib.obj
 0002:000044ec       ??_C@_1M@HEGGPBFA@?$AAs?$AAe?$AA?9?$AAN?$AAO@ 100274ec     mfcs140:nolib.obj
 0002:000044f8       ??_C@_1M@EIBJEEPA@?$AAm?$AAs?$AA?9?$AAM?$AAY@ 100274f8     mfcs140:nolib.obj
 0002:00004504       ??_C@_1M@FHLBGMPP@?$AAk?$AAk?$AA?9?$AAK?$AAZ@ 10027504     mfcs140:nolib.obj
 0002:00004510       ??_C@_1M@NGJJLCGI@?$AAk?$AAy?$AA?9?$AAK?$AAG@ 10027510     mfcs140:nolib.obj
 0002:0000451c       ??_C@_1M@GIENNBFC@?$AAs?$AAw?$AA?9?$AAK?$AAE@ 1002751c     mfcs140:nolib.obj
 0002:00004528       ??_C@_1BG@NDGMJIMJ@?$AAu?$AAz?$AA?9?$AAU?$AAZ?$AA?9?$AAL?$AAa?$AAt?$AAn@ 10027528     mfcs140:nolib.obj
 0002:00004540       ??_C@_1M@IDCCIHBC@?$AAt?$AAt?$AA?9?$AAR?$AAU@ 10027540     mfcs140:nolib.obj
 0002:0000454c       ??_C@_1M@LOICPMOJ@?$AAb?$AAn?$AA?9?$AAI?$AAN@ 1002754c     mfcs140:nolib.obj
 0002:00004558       ??_C@_1M@KPKKNEAH@?$AAp?$AAa?$AA?9?$AAI?$AAN@ 10027558     mfcs140:nolib.obj
 0002:00004564       ??_C@_1M@PJGPPBOG@?$AAg?$AAu?$AA?9?$AAI?$AAN@ 10027564     mfcs140:nolib.obj
 0002:00004570       ??_C@_1M@KMKMOPHI@?$AAt?$AAa?$AA?9?$AAI?$AAN@ 10027570     mfcs140:nolib.obj
 0002:0000457c       ??_C@_1M@KFEHEPAC@?$AAt?$AAe?$AA?9?$AAI?$AAN@ 1002757c     mfcs140:nolib.obj
 0002:00004588       ??_C@_1M@CDCLMGHI@?$AAk?$AAn?$AA?9?$AAI?$AAN@ 10027588     mfcs140:nolib.obj
 0002:00004594       ??_C@_1M@MIODLDKF@?$AAm?$AAl?$AA?9?$AAI?$AAN@ 10027594     mfcs140:nolib.obj
 0002:000045a0       ??_C@_1M@PBIEACPO@?$AAm?$AAr?$AA?9?$AAI?$AAN@ 100275a0     mfcs140:nolib.obj
 0002:000045ac       ??_C@_1M@NIDEAGPH@?$AAs?$AAa?$AA?9?$AAI?$AAN@ 100275ac     mfcs140:nolib.obj
 0002:000045b8       ??_C@_1M@FHIHCBIO@?$AAm?$AAn?$AA?9?$AAM?$AAN@ 100275b8     mfcs140:nolib.obj
 0002:000045c4       ??_C@_1M@JAIJPENP@?$AAc?$AAy?$AA?9?$AAG?$AAB@ 100275c4     mfcs140:nolib.obj
 0002:000045d0       ??_C@_1M@PHGFBEPN@?$AAg?$AAl?$AA?9?$AAE?$AAS@ 100275d0     mfcs140:nolib.obj
 0002:000045dc       ??_C@_1O@KPIPDNCP@?$AAk?$AAo?$AAk?$AA?9?$AAI?$AAN@ 100275dc     mfcs140:nolib.obj
 0002:000045ec       ??_C@_1O@KNHJLDJA@?$AAs?$AAy?$AAr?$AA?9?$AAS?$AAY@ 100275ec     mfcs140:nolib.obj
 0002:000045fc       ??_C@_1O@MKEKBLAH@?$AAd?$AAi?$AAv?$AA?9?$AAM?$AAV@ 100275fc     mfcs140:nolib.obj
 0002:0000460c       ??_C@_1O@OHDCKDDF@?$AAq?$AAu?$AAz?$AA?9?$AAB?$AAO@ 1002760c     mfcs140:nolib.obj
 0002:0000461c       ??_C@_1M@LEPJNLFD@?$AAn?$AAs?$AA?9?$AAZ?$AAA@ 1002761c     mfcs140:nolib.obj
 0002:00004628       ??_C@_1M@OMLEIIJB@?$AAm?$AAi?$AA?9?$AAN?$AAZ@ 10027628     mfcs140:nolib.obj
 0002:00004634       ??_C@_1M@PMPEAILG@?$AAa?$AAr?$AA?9?$AAI?$AAQ@ 10027634     mfcs140:nolib.obj
 0002:00004640       ??_C@_1M@BIBDDEMK@?$AAz?$AAh?$AA?9?$AAC?$AAN@ 10027640     mfcs140:nolib.obj
 0002:0000464c       ??_C@_1M@CNKPNOEE@?$AAd?$AAe?$AA?9?$AAC?$AAH@ 1002764c     mfcs140:nolib.obj
 0002:00004658       ??_C@_1M@LKMGMLKO@?$AAe?$AAn?$AA?9?$AAG?$AAB@ 10027658     mfcs140:nolib.obj
 0002:00004664       ??_C@_1M@PGKJFFGL@?$AAe?$AAs?$AA?9?$AAM?$AAX@ 10027664     mfcs140:nolib.obj
 0002:00004670       ??_C@_1M@DNNANBDC@?$AAf?$AAr?$AA?9?$AAB?$AAE@ 10027670     mfcs140:nolib.obj
 0002:0000467c       ??_C@_1M@HLGMDFHM@?$AAi?$AAt?$AA?9?$AAC?$AAH@ 1002767c     mfcs140:nolib.obj
 0002:00004688       ??_C@_1M@CLLBGJH@?$AAn?$AAl?$AA?9?$AAB?$AAE@ 10027688     mfcs140:nolib.obj
 0002:00004694       ??_C@_1M@BODBOGLF@?$AAn?$AAn?$AA?9?$AAN?$AAO@ 10027694     mfcs140:nolib.obj
 0002:000046a0       ??_C@_1M@HFFAHKAD@?$AAp?$AAt?$AA?9?$AAP?$AAT@ 100276a0     mfcs140:nolib.obj
 0002:000046ac       ??_C@_1BG@LNOAKHIE@?$AAs?$AAr?$AA?9?$AAS?$AAP?$AA?9?$AAL?$AAa?$AAt?$AAn@ 100276ac     mfcs140:nolib.obj
 0002:000046c4       ??_C@_1M@HBMHBGAK@?$AAs?$AAv?$AA?9?$AAF?$AAI@ 100276c4     mfcs140:nolib.obj
 0002:000046d0       ??_C@_1BG@DGCJGJBE@?$AAa?$AAz?$AA?9?$AAA?$AAZ?$AA?9?$AAC?$AAy?$AAr?$AAl@ 100276d0     mfcs140:nolib.obj
 0002:000046e8       ??_C@_1M@KEJDAAHB@?$AAs?$AAe?$AA?9?$AAS?$AAE@ 100276e8     mfcs140:nolib.obj
 0002:000046f4       ??_C@_1M@HEIBJJAD@?$AAm?$AAs?$AA?9?$AAB?$AAN@ 100276f4     mfcs140:nolib.obj
 0002:00004700       ??_C@_1BG@PBGJMCEM@?$AAu?$AAz?$AA?9?$AAU?$AAZ?$AA?9?$AAC?$AAy?$AAr?$AAl@ 10027700     mfcs140:nolib.obj
 0002:00004718       ??_C@_1O@LAOBCMDF@?$AAq?$AAu?$AAz?$AA?9?$AAE?$AAC@ 10027718     mfcs140:nolib.obj
 0002:00004728       ??_C@_1M@POEEMAIO@?$AAa?$AAr?$AA?9?$AAE?$AAG@ 10027728     mfcs140:nolib.obj
 0002:00004734       ??_C@_1M@EFAKDEDL@?$AAz?$AAh?$AA?9?$AAH?$AAK@ 10027734     mfcs140:nolib.obj
 0002:00004740       ??_C@_1M@HKKIJHGI@?$AAd?$AAe?$AA?9?$AAA?$AAT@ 10027740     mfcs140:nolib.obj
 0002:0000474c       ??_C@_1M@KBFBEHJF@?$AAe?$AAn?$AA?9?$AAA?$AAU@ 1002774c     mfcs140:nolib.obj
 0002:00004758       ??_C@_1M@MNPLFAAH@?$AAe?$AAs?$AA?9?$AAE?$AAS@ 10027758     mfcs140:nolib.obj
 0002:00004764       ??_C@_1M@HJOOJFMA@?$AAf?$AAr?$AA?9?$AAC?$AAA@ 10027764     mfcs140:nolib.obj
 0002:00004770       ??_C@_1BG@JPOFPNAB@?$AAs?$AAr?$AA?9?$AAS?$AAP?$AA?9?$AAC?$AAy?$AAr?$AAl@ 10027770     mfcs140:nolib.obj
 0002:00004788       ??_C@_1M@LNFOCMOB@?$AAs?$AAe?$AA?9?$AAF?$AAI@ 10027788     mfcs140:nolib.obj
 0002:00004794       ??_C@_1O@MGJBOAMB@?$AAq?$AAu?$AAz?$AA?9?$AAP?$AAE@ 10027794     mfcs140:nolib.obj
 0002:000047a4       ??_C@_1M@GJINLBOK@?$AAa?$AAr?$AA?9?$AAL?$AAY@ 100277a4     mfcs140:nolib.obj
 0002:000047b0       ??_C@_1M@GGMNHJNL@?$AAz?$AAh?$AA?9?$AAS?$AAG@ 100277b0     mfcs140:nolib.obj
 0002:000047bc       ??_C@_1M@HOIKODND@?$AAd?$AAe?$AA?9?$AAL?$AAU@ 100277bc     mfcs140:nolib.obj
 0002:000047c8       ??_C@_1M@DDOCCGFG@?$AAe?$AAn?$AA?9?$AAC?$AAA@ 100277c8     mfcs140:nolib.obj
 0002:000047d4       ??_C@_1M@BNOEMJLF@?$AAe?$AAs?$AA?9?$AAG?$AAT@ 100277d4     mfcs140:nolib.obj
 0002:000047e0       ??_C@_1M@EOGNKEK@?$AAf?$AAr?$AA?9?$AAC?$AAH@ 100277e0     mfcs140:nolib.obj
 0002:000047ec       ??_C@_1M@FLIDJFHL@?$AAh?$AAr?$AA?9?$AAB?$AAA@ 100277ec     mfcs140:nolib.obj
 0002:000047f8       ??_C@_1O@FMCELNAJ@?$AAs?$AAm?$AAj?$AA?9?$AAN?$AAO@ 100277f8     mfcs140:nolib.obj
 0002:00004808       ??_C@_1M@JHGLJMGJ@?$AAa?$AAr?$AA?9?$AAD?$AAZ@ 10027808     mfcs140:nolib.obj
 0002:00004814       ??_C@_1M@JKKFDCNP@?$AAz?$AAh?$AA?9?$AAM?$AAO@ 10027814     mfcs140:nolib.obj
 0002:00004820       ??_C@_1M@GEEFALPE@?$AAd?$AAe?$AA?9?$AAL?$AAI@ 10027820     mfcs140:nolib.obj
 0002:0000482c       ??_C@_1M@IGEOFBG@?$AAe?$AAn?$AA?9?$AAN?$AAZ@ 1002782c     mfcs140:nolib.obj
 0002:00004838       ??_C@_1M@KDBONEHP@?$AAe?$AAs?$AA?9?$AAC?$AAR@ 10027838     mfcs140:nolib.obj
 0002:00004844       ??_C@_1M@FHMDOHNN@?$AAf?$AAr?$AA?9?$AAL?$AAU@ 10027844     mfcs140:nolib.obj
 0002:00004850       ??_C@_1BG@NFKKMAFG@?$AAb?$AAs?$AA?9?$AAB?$AAA?$AA?9?$AAL?$AAa?$AAt?$AAn@ 10027850     mfcs140:nolib.obj
 0002:00004868       ??_C@_1O@IMNBEMCI@?$AAs?$AAm?$AAj?$AA?9?$AAS?$AAE@ 10027868     mfcs140:nolib.obj
 0002:00004878       ??_C@_1M@DHHMBNDP@?$AAa?$AAr?$AA?9?$AAM?$AAA@ 10027878     mfcs140:nolib.obj
 0002:00004884       ??_C@_1M@BNBLJCGH@?$AAe?$AAn?$AA?9?$AAI?$AAE@ 10027884     mfcs140:nolib.obj
 0002:00004890       ??_C@_1M@GEPAFMDL@?$AAe?$AAs?$AA?9?$AAP?$AAA@ 10027890     mfcs140:nolib.obj
 0002:0000489c       ??_C@_1M@OJONDMDL@?$AAf?$AAr?$AA?9?$AAM?$AAC@ 1002789c     mfcs140:nolib.obj
 0002:000048a8       ??_C@_1BG@OBCNFJB@?$AAs?$AAr?$AA?9?$AAB?$AAA?$AA?9?$AAL?$AAa?$AAt?$AAn@ 100278a8     mfcs140:nolib.obj
 0002:000048c0       ??_C@_1O@KEMEEGPO@?$AAs?$AAm?$AAa?$AA?9?$AAN?$AAO@ 100278c0     mfcs140:nolib.obj
 0002:000048d0       ??_C@_1M@ELMGFODK@?$AAa?$AAr?$AA?9?$AAT?$AAN@ 100278d0     mfcs140:nolib.obj
 0002:000048dc       ??_C@_1M@BHDLHFAF@?$AAe?$AAn?$AA?9?$AAZ?$AAA@ 100278dc     mfcs140:nolib.obj
 0002:000048e8       ??_C@_1M@BMGIGLIF@?$AAe?$AAs?$AA?9?$AAD?$AAO@ 100278e8     mfcs140:nolib.obj
 0002:000048f4       ??_C@_1BG@CMBHIPBE@?$AAs?$AAr?$AA?9?$AAB?$AAA?$AA?9?$AAC?$AAy?$AAr?$AAl@ 100278f4     mfcs140:nolib.obj
 0002:0000490c       ??_C@_1O@HEDBLHNP@?$AAs?$AAm?$AAa?$AA?9?$AAS?$AAE@ 1002790c     mfcs140:nolib.obj
 0002:0000491c       ??_C@_1M@DAGCADIM@?$AAa?$AAr?$AA?9?$AAO?$AAM@ 1002791c     mfcs140:nolib.obj
 0002:00004928       ??_C@_1M@FODLMICG@?$AAe?$AAn?$AA?9?$AAJ?$AAM@ 10027928     mfcs140:nolib.obj
 0002:00004934       ??_C@_1M@DNMLCIHB@?$AAe?$AAs?$AA?9?$AAV?$AAE@ 10027934     mfcs140:nolib.obj
 0002:00004940       ??_C@_1O@EOKHMKJK@?$AAs?$AAm?$AAs?$AA?9?$AAF?$AAI@ 10027940     mfcs140:nolib.obj
 0002:00004950       ??_C@_1M@CAFJMKOF@?$AAa?$AAr?$AA?9?$AAY?$AAE@ 10027950     mfcs140:nolib.obj
 0002:0000495c       ??_C@_1M@CBFHIJLI@?$AAe?$AAn?$AA?9?$AAC?$AAB@ 1002795c     mfcs140:nolib.obj
 0002:00004968       ??_C@_1M@BGNFLDN@?$AAe?$AAs?$AA?9?$AAC?$AAO@ 10027968     mfcs140:nolib.obj
 0002:00004974       ??_C@_1O@JMPHMAMC@?$AAs?$AAm?$AAn?$AA?9?$AAF?$AAI@ 10027974     mfcs140:nolib.obj
 0002:00004984       ??_C@_1M@JLANABKE@?$AAa?$AAr?$AA?9?$AAS?$AAY@ 10027984     mfcs140:nolib.obj
 0002:00004990       ??_C@_1M@HPKGCFGN@?$AAe?$AAn?$AA?9?$AAB?$AAZ@ 10027990     mfcs140:nolib.obj
 0002:0000499c       ??_C@_1M@OLJCMLGM@?$AAe?$AAs?$AA?9?$AAP?$AAE@ 1002799c     mfcs140:nolib.obj
 0002:000049a8       ??_C@_1M@MKKGFKLE@?$AAa?$AAr?$AA?9?$AAJ?$AAO@ 100279a8     mfcs140:nolib.obj
 0002:000049b4       ??_C@_1M@EKPGLDNI@?$AAe?$AAn?$AA?9?$AAT?$AAT@ 100279b4     mfcs140:nolib.obj
 0002:000049c0       ??_C@_1M@OONGHFHE@?$AAe?$AAs?$AA?9?$AAA?$AAR@ 100279c0     mfcs140:nolib.obj
 0002:000049cc       ??_C@_1M@OOJFGBHE@?$AAa?$AAr?$AA?9?$AAL?$AAB@ 100279cc     mfcs140:nolib.obj
 0002:000049d8       ??_C@_1M@GCEJHNEG@?$AAe?$AAn?$AA?9?$AAZ?$AAW@ 100279d8     mfcs140:nolib.obj
 0002:000049e4       ??_C@_1M@JNOCAHJI@?$AAe?$AAs?$AA?9?$AAE?$AAC@ 100279e4     mfcs140:nolib.obj
 0002:000049f0       ??_C@_1M@JEFHPGGB@?$AAa?$AAr?$AA?9?$AAK?$AAW@ 100279f0     mfcs140:nolib.obj
 0002:000049fc       ??_C@_1M@MLKIBJOJ@?$AAe?$AAn?$AA?9?$AAP?$AAH@ 100279fc     mfcs140:nolib.obj
 0002:00004a08       ??_C@_1M@BDNIPEND@?$AAe?$AAs?$AA?9?$AAC?$AAL@ 10027a08     mfcs140:nolib.obj
 0002:00004a14       ??_C@_1M@MPNMEKBD@?$AAa?$AAr?$AA?9?$AAA?$AAE@ 10027a14     mfcs140:nolib.obj
 0002:00004a20       ??_C@_1M@KBJALCPI@?$AAe?$AAs?$AA?9?$AAU?$AAY@ 10027a20     mfcs140:nolib.obj
 0002:00004a2c       ??_C@_1M@LLCCOAGA@?$AAa?$AAr?$AA?9?$AAB?$AAH@ 10027a2c     mfcs140:nolib.obj
 0002:00004a38       ??_C@_1M@PBFNCDEL@?$AAe?$AAs?$AA?9?$AAP?$AAY@ 10027a38     mfcs140:nolib.obj
 0002:00004a44       ??_C@_1M@EDGINPNP@?$AAa?$AAr?$AA?9?$AAQ?$AAA@ 10027a44     mfcs140:nolib.obj
 0002:00004a50       ??_C@_1M@MKDBIIJI@?$AAe?$AAs?$AA?9?$AAB?$AAO@ 10027a50     mfcs140:nolib.obj
 0002:00004a5c       ??_C@_1M@CPKKEBLD@?$AAe?$AAs?$AA?9?$AAS?$AAV@ 10027a5c     mfcs140:nolib.obj
 0002:00004a68       ??_C@_1M@NDBGMMJL@?$AAe?$AAs?$AA?9?$AAH?$AAN@ 10027a68     mfcs140:nolib.obj
 0002:00004a74       ??_C@_1M@JIJIBHDP@?$AAe?$AAs?$AA?9?$AAN?$AAI@ 10027a74     mfcs140:nolib.obj
 0002:00004a80       ??_C@_1M@CGFMKEEK@?$AAe?$AAs?$AA?9?$AAP?$AAR@ 10027a80     mfcs140:nolib.obj
 0002:00004a8c       ??_C@_1O@ICJHKIIK@?$AAz?$AAh?$AA?9?$AAC?$AAH?$AAT@ 10027a8c     mfcs140:nolib.obj
 0002:00004a9c       ??_C@_15CLNEJCE@?$AAs?$AAr@ 10027a9c     mfcs140:nolib.obj
 0002:00004aa8       __pAtlLocaleNameToIndexTable 10027aa8     mfcs140:nolib.obj
 0002:000051c8       ??_C@_1M@KAHEKEIG@?$AAa?$AAf?$AA?9?$AAz?$AAa@ 100281c8     mfcs140:nolib.obj
 0002:000051d4       ??_C@_1M@GIECOABL@?$AAa?$AAr?$AA?9?$AAa?$AAe@ 100281d4     mfcs140:nolib.obj
 0002:000051e0       ??_C@_1M@BMLMEKGI@?$AAa?$AAr?$AA?9?$AAb?$AAh@ 100281e0     mfcs140:nolib.obj
 0002:000051ec       ??_C@_1M@DAPFDGGB@?$AAa?$AAr?$AA?9?$AAd?$AAz@ 100281ec     mfcs140:nolib.obj
 0002:000051f8       ??_C@_1M@FJNKGKIG@?$AAa?$AAr?$AA?9?$AAe?$AAg@ 100281f8     mfcs140:nolib.obj
 0002:00005204       ??_C@_1M@FLGKKCLO@?$AAa?$AAr?$AA?9?$AAi?$AAq@ 10028204     mfcs140:nolib.obj
 0002:00005210       ??_C@_1M@GNDIPALM@?$AAa?$AAr?$AA?9?$AAj?$AAo@ 10028210     mfcs140:nolib.obj
 0002:0000521c       ??_C@_1M@DDMJFMGJ@?$AAa?$AAr?$AA?9?$AAk?$AAw@ 1002821c     mfcs140:nolib.obj
 0002:00005228       ??_C@_1M@EJALMLHM@?$AAa?$AAr?$AA?9?$AAl?$AAb@ 10028228     mfcs140:nolib.obj
 0002:00005234       ??_C@_1M@MOBDBLOC@?$AAa?$AAr?$AA?9?$AAl?$AAy@ 10028234     mfcs140:nolib.obj
 0002:00005240       ??_C@_1M@JAOCLHDH@?$AAa?$AAr?$AA?9?$AAm?$AAa@ 10028240     mfcs140:nolib.obj
 0002:0000524c       ??_C@_1M@JHPMKJIE@?$AAa?$AAr?$AA?9?$AAo?$AAm@ 1002824c     mfcs140:nolib.obj
 0002:00005258       ??_C@_1M@OEPGHFNH@?$AAa?$AAr?$AA?9?$AAq?$AAa@ 10028258     mfcs140:nolib.obj
 0002:00005264       ??_C@_1M@KJDONENM@?$AAa?$AAr?$AA?9?$AAs?$AAa@ 10028264     mfcs140:nolib.obj
 0002:00005270       ??_C@_1M@DMJDKLKM@?$AAa?$AAr?$AA?9?$AAs?$AAy@ 10028270     mfcs140:nolib.obj
 0002:0000527c       ??_C@_1M@OMFIPEDC@?$AAa?$AAr?$AA?9?$AAt?$AAn@ 1002827c     mfcs140:nolib.obj
 0002:00005288       ??_C@_1M@IHMHGAON@?$AAa?$AAr?$AA?9?$AAy?$AAe@ 10028288     mfcs140:nolib.obj
 0002:00005294       ??_C@_1BG@KDCPGJGB@?$AAa?$AAz?$AA?9?$AAa?$AAz?$AA?9?$AAc?$AAy?$AAr?$AAl@ 10028294     mfcs140:nolib.obj
 0002:000052ac       ??_C@_1BG@IBCKDDOE@?$AAa?$AAz?$AA?9?$AAa?$AAz?$AA?9?$AAl?$AAa?$AAt?$AAn@ 100282ac     mfcs140:nolib.obj
 0002:000052c4       ??_C@_1M@EGPFDCPD@?$AAb?$AAe?$AA?9?$AAb?$AAy@ 100282c4     mfcs140:nolib.obj
 0002:000052d0       ??_C@_1M@PCMGMCGC@?$AAb?$AAg?$AA?9?$AAb?$AAg@ 100282d0     mfcs140:nolib.obj
 0002:000052dc       ??_C@_1M@BJBMFGOB@?$AAb?$AAn?$AA?9?$AAi?$AAn@ 100282dc     mfcs140:nolib.obj
 0002:000052e8       ??_C@_1BG@EAKMMACD@?$AAb?$AAs?$AA?9?$AAb?$AAa?$AA?9?$AAl?$AAa?$AAt?$AAn@ 100282e8     mfcs140:nolib.obj
 0002:00005300       ??_C@_1M@KGADAODK@?$AAc?$AAa?$AA?9?$AAe?$AAs@ 10028300     mfcs140:nolib.obj
 0002:0000530c       ??_C@_1M@COAJPDHI@?$AAc?$AAs?$AA?9?$AAc?$AAz@ 1002830c     mfcs140:nolib.obj
 0002:00005318       ??_C@_1M@DHBHFONH@?$AAc?$AAy?$AA?9?$AAg?$AAb@ 10028318     mfcs140:nolib.obj
 0002:00005324       ??_C@_1M@IMGKELGA@?$AAd?$AAa?$AA?9?$AAd?$AAk@ 10028324     mfcs140:nolib.obj
 0002:00005330       ??_C@_1M@NNDGDNGA@?$AAd?$AAe?$AA?9?$AAa?$AAt@ 10028330     mfcs140:nolib.obj
 0002:0000533c       ??_C@_1M@IKDBHEEM@?$AAd?$AAe?$AA?9?$AAc?$AAh@ 1002833c     mfcs140:nolib.obj
 0002:00005348       ??_C@_1M@GFFOJMCJ@?$AAd?$AAe?$AA?9?$AAd?$AAe@ 10028348     mfcs140:nolib.obj
 0002:00005354       ??_C@_1M@MDNLKBPM@?$AAd?$AAe?$AA?9?$AAl?$AAi@ 10028354     mfcs140:nolib.obj
 0002:00005360       ??_C@_1M@NJBEEJNL@?$AAd?$AAe?$AA?9?$AAl?$AAu@ 10028360     mfcs140:nolib.obj
 0002:0000536c       ??_C@_1O@GNNELBAP@?$AAd?$AAi?$AAv?$AA?9?$AAm?$AAv@ 1002836c     mfcs140:nolib.obj
 0002:0000537c       ??_C@_1M@EJLEOGAE@?$AAe?$AAl?$AA?9?$AAg?$AAr@ 1002837c     mfcs140:nolib.obj
 0002:00005388       ??_C@_1M@GMPONJN@?$AAe?$AAn?$AA?9?$AAa?$AAu@ 10028388     mfcs140:nolib.obj
 0002:00005394       ??_C@_1M@NIDIIPGF@?$AAe?$AAn?$AA?9?$AAb?$AAz@ 10028394     mfcs140:nolib.obj
 0002:000053a0       ??_C@_1M@JEHMIMFO@?$AAe?$AAn?$AA?9?$AAc?$AAa@ 100283a0     mfcs140:nolib.obj
 0002:000053ac       ??_C@_1M@IGMJCDLA@?$AAe?$AAn?$AA?9?$AAc?$AAb@ 100283ac     mfcs140:nolib.obj
 0002:000053b8       ??_C@_1M@BNFIGBKG@?$AAe?$AAn?$AA?9?$AAg?$AAb@ 100283b8     mfcs140:nolib.obj
 0002:000053c4       ??_C@_1M@LKIFDIGP@?$AAe?$AAn?$AA?9?$AAi?$AAe@ 100283c4     mfcs140:nolib.obj
 0002:000053d0       ??_C@_1M@PJKFGCCO@?$AAe?$AAn?$AA?9?$AAj?$AAm@ 100283d0     mfcs140:nolib.obj
 0002:000053dc       ??_C@_1M@KPPKEPBO@?$AAe?$AAn?$AA?9?$AAn?$AAz@ 100283dc     mfcs140:nolib.obj
 0002:000053e8       ??_C@_1M@GMDGLDOB@?$AAe?$AAn?$AA?9?$AAp?$AAh@ 100283e8     mfcs140:nolib.obj
 0002:000053f4       ??_C@_1M@ONGIBJNA@?$AAe?$AAn?$AA?9?$AAt?$AAt@ 100283f4     mfcs140:nolib.obj
 0002:00005400       ??_C@_1M@LLODPCMM@?$AAe?$AAn?$AA?9?$AAu?$AAs@ 10028400     mfcs140:nolib.obj
 0002:0000540c       ??_C@_1M@LAKFNPAN@?$AAe?$AAn?$AA?9?$AAz?$AAa@ 1002840c     mfcs140:nolib.obj
 0002:00005418       ??_C@_1M@MFNHNHEO@?$AAe?$AAn?$AA?9?$AAz?$AAw@ 10028418     mfcs140:nolib.obj
 0002:00005424       ??_C@_1M@EJEINPHM@?$AAe?$AAs?$AA?9?$AAa?$AAr@ 10028424     mfcs140:nolib.obj
 0002:00005430       ??_C@_1M@GNKPCCJA@?$AAe?$AAs?$AA?9?$AAb?$AAo@ 10028430     mfcs140:nolib.obj
 0002:0000543c       ??_C@_1M@LEEGFONL@?$AAe?$AAs?$AA?9?$AAc?$AAl@ 1002843c     mfcs140:nolib.obj
 0002:00005448       ??_C@_1M@KGPDPBDF@?$AAe?$AAs?$AA?9?$AAc?$AAo@ 10028448     mfcs140:nolib.obj
 0002:00005454       ??_C@_1M@EIAHOHH@?$AAe?$AAs?$AA?9?$AAc?$AAr@ 10028454     mfcs140:nolib.obj
 0002:00005460       ??_C@_1M@LLPGMBIN@?$AAe?$AAs?$AA?9?$AAd?$AAo@ 10028460     mfcs140:nolib.obj
 0002:0000546c       ??_C@_1M@DKHMKNJA@?$AAe?$AAs?$AA?9?$AAe?$AAc@ 1002846c     mfcs140:nolib.obj
 0002:00005478       ??_C@_1M@GKGFPKAP@?$AAe?$AAs?$AA?9?$AAe?$AAs@ 10028478     mfcs140:nolib.obj
 0002:00005484       ??_C@_1M@LKHKGDLN@?$AAe?$AAs?$AA?9?$AAg?$AAt@ 10028484     mfcs140:nolib.obj
 0002:00005490       ??_C@_1M@HEIIGGJD@?$AAe?$AAs?$AA?9?$AAh?$AAn@ 10028490     mfcs140:nolib.obj
 0002:0000549c       ??_C@_1M@FBDHPPGD@?$AAe?$AAs?$AA?9?$AAm?$AAx@ 1002849c     mfcs140:nolib.obj
 0002:000054a8       ??_C@_1M@DPAGLNDH@?$AAe?$AAs?$AA?9?$AAn?$AAi@ 100284a8     mfcs140:nolib.obj
 0002:000054b4       ??_C@_1M@MDGOPGDD@?$AAe?$AAs?$AA?9?$AAp?$AAa@ 100284b4     mfcs140:nolib.obj
 0002:000054c0       ??_C@_1M@EMAMGBGE@?$AAe?$AAs?$AA?9?$AAp?$AAe@ 100284c0     mfcs140:nolib.obj
 0002:000054cc       ??_C@_1M@IBMCAOEC@?$AAe?$AAs?$AA?9?$AAp?$AAr@ 100284cc     mfcs140:nolib.obj
 0002:000054d8       ??_C@_1M@FGMDIJED@?$AAe?$AAs?$AA?9?$AAp?$AAy@ 100284d8     mfcs140:nolib.obj
 0002:000054e4       ??_C@_1M@IIDEOLLL@?$AAe?$AAs?$AA?9?$AAs?$AAv@ 100284e4     mfcs140:nolib.obj
 0002:000054f0       ??_C@_1M@GAOBIPA@?$AAe?$AAs?$AA?9?$AAu?$AAy@ 100284f0     mfcs140:nolib.obj
 0002:000054fc       ??_C@_1M@JKFFICHJ@?$AAe?$AAs?$AA?9?$AAv?$AAe@ 100284fc     mfcs140:nolib.obj
 0002:00005508       ??_C@_1M@PNMLOJDF@?$AAe?$AAt?$AA?9?$AAe?$AAe@ 10028508     mfcs140:nolib.obj
 0002:00005514       ??_C@_1M@GHHLIKEI@?$AAe?$AAu?$AA?9?$AAe?$AAs@ 10028514     mfcs140:nolib.obj
 0002:00005520       ??_C@_1M@PBNONODE@?$AAf?$AAa?$AA?9?$AAi?$AAr@ 10028520     mfcs140:nolib.obj
 0002:0000552c       ??_C@_1M@JEEHPMIL@?$AAf?$AAi?$AA?9?$AAf?$AAi@ 1002852c     mfcs140:nolib.obj
 0002:00005538       ??_C@_1M@LMDCNDBA@?$AAf?$AAo?$AA?9?$AAf?$AAo@ 10028538     mfcs140:nolib.obj
 0002:00005544       ??_C@_1M@JKEOHLDK@?$AAf?$AAr?$AA?9?$AAb?$AAe@ 10028544     mfcs140:nolib.obj
 0002:00005550       ??_C@_1M@NOHADPMI@?$AAf?$AAr?$AA?9?$AAc?$AAa@ 10028550     mfcs140:nolib.obj
 0002:0000555c       ??_C@_1M@KDHIHAEC@?$AAf?$AAr?$AA?9?$AAc?$AAh@ 1002855c     mfcs140:nolib.obj
 0002:00005568       ??_C@_1M@MMBBFGAK@?$AAf?$AAr?$AA?9?$AAf?$AAr@ 10028568     mfcs140:nolib.obj
 0002:00005574       ??_C@_1M@PAFNENNF@?$AAf?$AAr?$AA?9?$AAl?$AAu@ 10028574     mfcs140:nolib.obj
 0002:00005580       ??_C@_1M@EOHDJGDD@?$AAf?$AAr?$AA?9?$AAm?$AAc@ 10028580     mfcs140:nolib.obj
 0002:0000558c       ??_C@_1M@FAPLLOPF@?$AAg?$AAl?$AA?9?$AAe?$AAs@ 1002858c     mfcs140:nolib.obj
 0002:00005598       ??_C@_1M@FOPBFLOO@?$AAg?$AAu?$AA?9?$AAi?$AAn@ 10028598     mfcs140:nolib.obj
 0002:000055a4       ??_C@_1M@KBMCINPM@?$AAh?$AAe?$AA?9?$AAi?$AAl@ 100285a4     mfcs140:nolib.obj
 0002:000055b0       ??_C@_1M@BBPHKFPJ@?$AAh?$AAi?$AA?9?$AAi?$AAn@ 100285b0     mfcs140:nolib.obj
 0002:000055bc       ??_C@_1M@PMBNDPHD@?$AAh?$AAr?$AA?9?$AAb?$AAa@ 100285bc     mfcs140:nolib.obj
 0002:000055c8       ??_C@_1M@BPCKOEGE@?$AAh?$AAr?$AA?9?$AAh?$AAr@ 100285c8     mfcs140:nolib.obj
 0002:000055d4       ??_C@_1M@GACBMHKE@?$AAh?$AAu?$AA?9?$AAh?$AAu@ 100285d4     mfcs140:nolib.obj
 0002:000055e0       ??_C@_1M@MILPAJJC@?$AAh?$AAy?$AA?9?$AAa?$AAm@ 100285e0     mfcs140:nolib.obj
 0002:000055ec       ??_C@_1M@BABBICEC@?$AAi?$AAd?$AA?9?$AAi?$AAd@ 100285ec     mfcs140:nolib.obj
 0002:000055f8       ??_C@_1M@BIKNHHPF@?$AAi?$AAs?$AA?9?$AAi?$AAs@ 100285f8     mfcs140:nolib.obj
 0002:00005604       ??_C@_1M@NMPCJPHE@?$AAi?$AAt?$AA?9?$AAc?$AAh@ 10028604     mfcs140:nolib.obj
 0002:00005610       ??_C@_1M@GHKGFEDF@?$AAi?$AAt?$AA?9?$AAi?$AAt@ 10028610     mfcs140:nolib.obj
 0002:0000561c       ??_C@_1M@NIEJCJJA@?$AAj?$AAa?$AA?9?$AAj?$AAp@ 1002861c     mfcs140:nolib.obj
 0002:00005628       ??_C@_1M@JILFNBIM@?$AAk?$AAa?$AA?9?$AAg?$AAe@ 10028628     mfcs140:nolib.obj
 0002:00005634       ??_C@_1M@PACPMGPH@?$AAk?$AAk?$AA?9?$AAk?$AAz@ 10028634     mfcs140:nolib.obj
 0002:00005640       ??_C@_1M@IELFGMHA@?$AAk?$AAn?$AA?9?$AAi?$AAn@ 10028640     mfcs140:nolib.obj
 0002:0000564c       ??_C@_1O@IBBJHCH@?$AAk?$AAo?$AAk?$AA?9?$AAi?$AAn@ 1002864c     mfcs140:nolib.obj
 0002:0000565c       ??_C@_1M@DMHAEOGC@?$AAk?$AAo?$AA?9?$AAk?$AAr@ 1002865c     mfcs140:nolib.obj
 0002:00005668       ??_C@_1M@HBAHBIGA@?$AAk?$AAy?$AA?9?$AAk?$AAg@ 10028668     mfcs140:nolib.obj
 0002:00005674       ??_C@_1M@KPMILCJG@?$AAl?$AAt?$AA?9?$AAl?$AAt@ 10028674     mfcs140:nolib.obj
 0002:00005680       ??_C@_1M@BDEKKCA@?$AAl?$AAv?$AA?9?$AAl?$AAv@ 10028680     mfcs140:nolib.obj
 0002:0000568c       ??_C@_1M@ELCKCCJJ@?$AAm?$AAi?$AA?9?$AAn?$AAz@ 1002868c     mfcs140:nolib.obj
 0002:00005698       ??_C@_1M@CBOOLAPA@?$AAm?$AAk?$AA?9?$AAm?$AAk@ 10028698     mfcs140:nolib.obj
 0002:000056a4       ??_C@_1M@GPHNBJKN@?$AAm?$AAl?$AA?9?$AAi?$AAn@ 100286a4     mfcs140:nolib.obj
 0002:000056b0       ??_C@_1M@PABJILIG@?$AAm?$AAn?$AA?9?$AAm?$AAn@ 100286b0     mfcs140:nolib.obj
 0002:000056bc       ??_C@_1M@FGBKKIPG@?$AAm?$AAr?$AA?9?$AAi?$AAn@ 100286bc     mfcs140:nolib.obj
 0002:000056c8       ??_C@_1M@NDBPDDAL@?$AAm?$AAs?$AA?9?$AAb?$AAn@ 100286c8     mfcs140:nolib.obj
 0002:000056d4       ??_C@_1M@OPIHOOPI@?$AAm?$AAs?$AA?9?$AAm?$AAy@ 100286d4     mfcs140:nolib.obj
 0002:000056e0       ??_C@_1M@PPDBCNFM@?$AAm?$AAt?$AA?9?$AAm?$AAt@ 100286e0     mfcs140:nolib.obj
 0002:000056ec       ??_C@_1M@KDJDKMDD@?$AAn?$AAb?$AA?9?$AAn?$AAo@ 100286ec     mfcs140:nolib.obj
 0002:000056f8       ??_C@_1M@KFCFLMJP@?$AAn?$AAl?$AA?9?$AAb?$AAe@ 100286f8     mfcs140:nolib.obj
 0002:00005704       ??_C@_1M@KPOPDDGO@?$AAn?$AAl?$AA?9?$AAn?$AAl@ 10028704     mfcs140:nolib.obj
 0002:00005710       ??_C@_1M@LJKPEMLN@?$AAn?$AAn?$AA?9?$AAn?$AAo@ 10028710     mfcs140:nolib.obj
 0002:0000571c       ??_C@_1M@BDGHHBFL@?$AAn?$AAs?$AA?9?$AAz?$AAa@ 1002871c     mfcs140:nolib.obj
 0002:00005728       ??_C@_1M@IDEHOAP@?$AAp?$AAa?$AA?9?$AAi?$AAn@ 10028728     mfcs140:nolib.obj
 0002:00005734       ??_C@_1M@HDBKGOGH@?$AAp?$AAl?$AA?9?$AAp?$AAl@ 10028734     mfcs140:nolib.obj
 0002:00005740       ??_C@_1M@LJLLCMEH@?$AAp?$AAt?$AA?9?$AAb?$AAr@ 10028740     mfcs140:nolib.obj
 0002:0000574c       ??_C@_1M@NCMONAAL@?$AAp?$AAt?$AA?9?$AAp?$AAt@ 1002874c     mfcs140:nolib.obj
 0002:00005758       ??_C@_1O@EAKMAJDN@?$AAq?$AAu?$AAz?$AA?9?$AAb?$AAo@ 10028758     mfcs140:nolib.obj
 0002:00005768       ??_C@_1O@BHHPIGDN@?$AAq?$AAu?$AAz?$AA?9?$AAe?$AAc@ 10028768     mfcs140:nolib.obj
 0002:00005778       ??_C@_1O@GBAPEKMJ@?$AAq?$AAu?$AAz?$AA?9?$AAp?$AAe@ 10028778     mfcs140:nolib.obj
 0002:00005788       ??_C@_1M@CLGLEFBO@?$AAr?$AAo?$AA?9?$AAr?$AAo@ 10028788     mfcs140:nolib.obj
 0002:00005794       ??_C@_1M@CEEDODME@?$AAr?$AAu?$AA?9?$AAr?$AAu@ 10028794     mfcs140:nolib.obj
 0002:000057a0       ??_C@_1M@HPKKKMPP@?$AAs?$AAa?$AA?9?$AAi?$AAn@ 100287a0     mfcs140:nolib.obj
 0002:000057ac       ??_C@_1M@BKMAIGOJ@?$AAs?$AAe?$AA?9?$AAf?$AAi@ 100287ac     mfcs140:nolib.obj
 0002:000057b8       ??_C@_1M@NDPIFLFI@?$AAs?$AAe?$AA?9?$AAn?$AAo@ 100287b8     mfcs140:nolib.obj
 0002:000057c4       ??_C@_1M@DANKKHJ@?$AAs?$AAe?$AA?9?$AAs?$AAe@ 100287c4     mfcs140:nolib.obj
 0002:000057d0       ??_C@_1M@PNBLONPJ@?$AAs?$AAk?$AA?9?$AAs?$AAk@ 100287d0     mfcs140:nolib.obj
 0002:000057dc       ??_C@_1M@LFMODOAL@?$AAs?$AAl?$AA?9?$AAs?$AAi@ 100287dc     mfcs140:nolib.obj
 0002:000057e8       ??_C@_1O@DFKOMPG@?$AAs?$AAm?$AAa?$AA?9?$AAn?$AAo@ 100287e8     mfcs140:nolib.obj
 0002:000057f8       ??_C@_1O@NDKPBNNH@?$AAs?$AAm?$AAa?$AA?9?$AAs?$AAe@ 100287f8     mfcs140:nolib.obj
 0002:00005808       ??_C@_1O@PLLKBHAB@?$AAs?$AAm?$AAj?$AA?9?$AAn?$AAo@ 10028808     mfcs140:nolib.obj
 0002:00005818       ??_C@_1O@CLEPOGCA@?$AAs?$AAm?$AAj?$AA?9?$AAs?$AAe@ 10028818     mfcs140:nolib.obj
 0002:00005828       ??_C@_1O@DLGJGKMK@?$AAs?$AAm?$AAn?$AA?9?$AAf?$AAi@ 10028828     mfcs140:nolib.obj
 0002:00005838       ??_C@_1O@OJDJGAJC@?$AAs?$AAm?$AAs?$AA?9?$AAf?$AAi@ 10028838     mfcs140:nolib.obj
 0002:00005848       ??_C@_1M@BOFOGHPB@?$AAs?$AAq?$AA?9?$AAa?$AAl@ 10028848     mfcs140:nolib.obj
 0002:00005854       ??_C@_1BG@LJBBIPGB@?$AAs?$AAr?$AA?9?$AAb?$AAa?$AA?9?$AAc?$AAy?$AAr?$AAl@ 10028854     mfcs140:nolib.obj
 0002:0000586c       ??_C@_1BG@JLBENFOE@?$AAs?$AAr?$AA?9?$AAb?$AAa?$AA?9?$AAl?$AAa?$AAt?$AAn@ 1002886c     mfcs140:nolib.obj
 0002:00005884       ??_C@_1BG@KODPNHE@?$AAs?$AAr?$AA?9?$AAs?$AAp?$AA?9?$AAc?$AAy?$AAr?$AAl@ 10028884     mfcs140:nolib.obj
 0002:0000589c       ??_C@_1BG@CIOGKHPB@?$AAs?$AAr?$AA?9?$AAs?$AAp?$AA?9?$AAl?$AAa?$AAt?$AAn@ 1002889c     mfcs140:nolib.obj
 0002:000058b4       ??_C@_1M@NGFJLMAC@?$AAs?$AAv?$AA?9?$AAf?$AAi@ 100288b4     mfcs140:nolib.obj
 0002:000058c0       ??_C@_1M@MPJEJAJC@?$AAs?$AAv?$AA?9?$AAs?$AAe@ 100288c0     mfcs140:nolib.obj
 0002:000058cc       ??_C@_1M@MPNDHLFK@?$AAs?$AAw?$AA?9?$AAk?$AAe@ 100288cc     mfcs140:nolib.obj
 0002:000058d8       ??_C@_1O@KOHBJJI@?$AAs?$AAy?$AAr?$AA?9?$AAs?$AAy@ 100288d8     mfcs140:nolib.obj
 0002:000058e8       ??_C@_1M@LDCEFHA@?$AAt?$AAa?$AA?9?$AAi?$AAn@ 100288e8     mfcs140:nolib.obj
 0002:000058f4       ??_C@_1M@CNJOFAK@?$AAt?$AAe?$AA?9?$AAi?$AAn@ 100288f4     mfcs140:nolib.obj
 0002:00005900       ??_C@_1M@GNAECACD@?$AAt?$AAh?$AA?9?$AAt?$AAh@ 10028900     mfcs140:nolib.obj
 0002:0000590c       ??_C@_1M@CHBIHOJO@?$AAt?$AAn?$AA?9?$AAz?$AAa@ 1002890c     mfcs140:nolib.obj
 0002:00005918       ??_C@_1M@GCCMIGPJ@?$AAt?$AAr?$AA?9?$AAt?$AAr@ 10028918     mfcs140:nolib.obj
 0002:00005924       ??_C@_1M@CELMCNBK@?$AAt?$AAt?$AA?9?$AAr?$AAu@ 10028924     mfcs140:nolib.obj
 0002:00005930       ??_C@_1M@KLMCELGA@?$AAu?$AAk?$AA?9?$AAu?$AAa@ 10028930     mfcs140:nolib.obj
 0002:0000593c       ??_C@_1M@EPAJJAJF@?$AAu?$AAr?$AA?9?$AAp?$AAk@ 1002893c     mfcs140:nolib.obj
 0002:00005948       ??_C@_1BG@GEGPMCDJ@?$AAu?$AAz?$AA?9?$AAu?$AAz?$AA?9?$AAc?$AAy?$AAr?$AAl@ 10028948     mfcs140:nolib.obj
 0002:00005960       ??_C@_1BG@EGGKJILM@?$AAu?$AAz?$AA?9?$AAu?$AAz?$AA?9?$AAl?$AAa?$AAt?$AAn@ 10028960     mfcs140:nolib.obj
 0002:00005978       ??_C@_1M@GFOCLFF@?$AAv?$AAi?$AA?9?$AAv?$AAn@ 10028978     mfcs140:nolib.obj
 0002:00005984       ??_C@_1M@CPAMEDFI@?$AAx?$AAh?$AA?9?$AAz?$AAa@ 10028984     mfcs140:nolib.obj
 0002:00005990       ??_C@_1O@EBKIFIGN@?$AAz?$AAh?$AA?9?$AAc?$AAh?$AAs@ 10028990     mfcs140:nolib.obj
 0002:000059a0       ??_C@_1O@NMHPGANE@?$AAz?$AAh?$AA?9?$AAc?$AAh?$AAt@ 100289a0     mfcs140:nolib.obj
 0002:000059b0       ??_C@_1M@LPINJOMC@?$AAz?$AAh?$AA?9?$AAc?$AAn@ 100289b0     mfcs140:nolib.obj
 0002:000059bc       ??_C@_1M@OCJEJODD@?$AAz?$AAh?$AA?9?$AAh?$AAk@ 100289bc     mfcs140:nolib.obj
 0002:000059c8       ??_C@_1M@DNDLJINH@?$AAz?$AAh?$AA?9?$AAm?$AAo@ 100289c8     mfcs140:nolib.obj
 0002:000059d4       ??_C@_1M@MBFDNDND@?$AAz?$AAh?$AA?9?$AAs?$AAg@ 100289d4     mfcs140:nolib.obj
 0002:000059e0       ??_C@_1M@IMEPLEPE@?$AAz?$AAh?$AA?9?$AAt?$AAw@ 100289e0     mfcs140:nolib.obj
 0002:000059ec       ??_C@_1M@BBGHNHJP@?$AAz?$AAu?$AA?9?$AAz?$AAa@ 100289ec     mfcs140:nolib.obj
 0002:000059f8       ??_C@_0O@JKAFBCMB@CreateActCtxW@ 100289f8     mfcs140:nolib.obj
 0002:00005a08       ??_C@_0P@CECBPMJL@ActivateActCtx@ 10028a08     mfcs140:nolib.obj
 0002:00005a18       ??_C@_0BB@NPIOCCPF@DeactivateActCtx@ 10028a18     mfcs140:nolib.obj
 0002:00005a2c       ??_C@_0BJ@MGNMALIC@FindActCtxSectionStringW@ 10028a2c     mfcs140:nolib.obj
 0002:00005a48       ??_C@_0N@IMINIHMJ@QueryActCtxW@ 10028a48     mfcs140:nolib.obj
 0002:00005a58       ??_C@_0BD@GIGEJCNH@GetModuleHandleExW@ 10028a58     mfcs140:nolib.obj
 0002:00005a6c       ??_C@_1BK@BFMCNHEO@?$AAC?$AAo?$AAm?$AAc?$AAt?$AAl?$AA3?$AA2?$AA?4?$AAd?$AAl?$AAl@ 10028a6c     mfcs140:nolib.obj
 0002:00005a88       ?debugString@?4??IsolationAwarePrivatenPgViNgRzlnPgpgk@@9@4@4QBDB 10028a88     mfcs140:nolib.obj
 0002:00005ac4       ?c@?1??WinbaseIsolationAwarePrivatetRgCebPnQQeRff_xReaRYQP_QYY@@9@4@4UIsolationAwarePrivate_pBAFGnAG_zBqHyr_vAsB@@B 10028ac4     mfcs140:nolib.obj
 0002:00005ad4       ??_C@_1BK@EJBALEBG@?$AAK?$AAe?$AAr?$AAn?$AAe?$AAl?$AA3?$AA2?$AA?4?$AAd?$AAl?$AAl@ 10028ad4     mfcs140:nolib.obj
 0002:00005af0       ??_C@_0N@HAOHNMDE@Kernel32?4dll@ 10028af0     mfcs140:nolib.obj
 0002:00005b00       __pActualRawDllMain        10028b00     mfcs140:dllmodul.obj
 0002:00005b08       ??_7_AFX_DLL_MODULE_STATE@@6B@ 10028b08     mfcs140:dllmodul.obj
 0002:00005b10       ??_7type_info@@6B@         10028b10     msvcrt:std_type_info_static.obj
 0002:00005b18       ??_C@_1EC@JIJBPKFM@?$AAa?$AAp?$AAi?$AA?9?$AAm?$AAs?$AA?9?$AAw?$AAi?$AAn?$AA?9?$AAc?$AAo?$AAr?$AAe@ 10028b18     msvcrt:thread_safe_statics.obj
 0002:00005b5c       ??_C@_1BK@MGMFAEKH@?$AAk?$AAe?$AAr?$AAn?$AAe?$AAl?$AA3?$AA2?$AA?4?$AAd?$AAl?$AAl@ 10028b5c     msvcrt:thread_safe_statics.obj
 0002:00005b78       ??_C@_0BJ@JEBJOJFJ@SleepConditionVariableCS@ 10028b78     msvcrt:thread_safe_statics.obj
 0002:00005b94       ??_C@_0BJ@PGPPEPCC@WakeAllConditionVariable@ 10028b94     msvcrt:thread_safe_statics.obj
 0002:00005bb8       __pDefaultRawDllMain       10028bb8     msvcrt:dll_dllmain.obj
 0002:00005bbc       _GUID_NULL                 10028bbc     uuid:cguid_i.obj
 0002:00005bcc       _CATID_MARSHALER           10028bcc     uuid:cguid_i.obj
 0002:00005bdc       _IID_IRpcChannel           10028bdc     uuid:cguid_i.obj
 0002:00005bec       _IID_IRpcStub              10028bec     uuid:cguid_i.obj
 0002:00005bfc       _IID_IStubManager          10028bfc     uuid:cguid_i.obj
 0002:00005c0c       _IID_IRpcProxy             10028c0c     uuid:cguid_i.obj
 0002:00005c1c       _IID_IProxyManager         10028c1c     uuid:cguid_i.obj
 0002:00005c2c       _IID_IPSFactory            10028c2c     uuid:cguid_i.obj
 0002:00005c3c       _IID_IInternalMoniker      10028c3c     uuid:cguid_i.obj
 0002:00005c4c       _IID_IDfReserved1          10028c4c     uuid:cguid_i.obj
 0002:00005c5c       _IID_IDfReserved2          10028c5c     uuid:cguid_i.obj
 0002:00005c6c       _IID_IDfReserved3          10028c6c     uuid:cguid_i.obj
 0002:00005c7c       _CLSID_StdMarshal          10028c7c     uuid:cguid_i.obj
 0002:00005c8c       _IID_IStub                 10028c8c     uuid:cguid_i.obj
 0002:00005c9c       _IID_IProxy                10028c9c     uuid:cguid_i.obj
 0002:00005cac       _IID_IEnumGeneric          10028cac     uuid:cguid_i.obj
 0002:00005cbc       _IID_IEnumHolder           10028cbc     uuid:cguid_i.obj
 0002:00005ccc       _IID_IEnumCallback         10028ccc     uuid:cguid_i.obj
 0002:00005cdc       _IID_IOleManager           10028cdc     uuid:cguid_i.obj
 0002:00005cec       _IID_IOlePresObj           10028cec     uuid:cguid_i.obj
 0002:00005cfc       _IID_IDebug                10028cfc     uuid:cguid_i.obj
 0002:00005d0c       _IID_IDebugStream          10028d0c     uuid:cguid_i.obj
 0002:00005d1c       _CLSID_PSGenObject         10028d1c     uuid:cguid_i.obj
 0002:00005d2c       _CLSID_PSClientSite        10028d2c     uuid:cguid_i.obj
 0002:00005d3c       _CLSID_PSClassObject       10028d3c     uuid:cguid_i.obj
 0002:00005d4c       _CLSID_PSInPlaceActive     10028d4c     uuid:cguid_i.obj
 0002:00005d5c       _CLSID_PSInPlaceFrame      10028d5c     uuid:cguid_i.obj
 0002:00005d6c       _CLSID_PSDragDrop          10028d6c     uuid:cguid_i.obj
 0002:00005d7c       _CLSID_PSBindCtx           10028d7c     uuid:cguid_i.obj
 0002:00005d8c       _CLSID_PSEnumerators       10028d8c     uuid:cguid_i.obj
 0002:00005d9c       _CLSID_StaticMetafile      10028d9c     uuid:cguid_i.obj
 0002:00005dac       _CLSID_StaticDib           10028dac     uuid:cguid_i.obj
 0002:00005dbc       _CLSID_Picture_Metafile    10028dbc     uuid:cguid_i.obj
 0002:00005dcc       _CLSID_Picture_EnhMetafile 10028dcc     uuid:cguid_i.obj
 0002:00005ddc       _CLSID_Picture_Dib         10028ddc     uuid:cguid_i.obj
 0002:00005dec       _CLSID_DCOMAccessControl   10028dec     uuid:cguid_i.obj
 0002:00005dfc       _CLSID_StdGlobalInterfaceTable 10028dfc     uuid:cguid_i.obj
 0002:00005e0c       _CLSID_ManualResetEvent    10028e0c     uuid:cguid_i.obj
 0002:00005e1c       _CLSID_StdEvent            10028e1c     uuid:cguid_i.obj
 0002:00005e2c       _CLSID_SynchronizeContainer 10028e2c     uuid:cguid_i.obj
 0002:00005e3c       _CLSID_ComBinding          10028e3c     uuid:cguid_i.obj
 0002:00005e4c       _CLSID_StdAsyncActManager  10028e4c     uuid:cguid_i.obj
 0002:00005e5c       _CLSID_InProcFreeMarshaler 10028e5c     uuid:cguid_i.obj
 0002:00005e6c       _CLSID_RemoteUnknownPSFactory 10028e6c     uuid:cguid_i.obj
 0002:00005e7c       _IID_IRichEditOle          10028e7c     uuid:cguid_i.obj
 0002:00005e8c       _IID_IRichEditOleCallback  10028e8c     uuid:cguid_i.obj
 0002:00005e9c       _CLSID_AllClasses          10028e9c     uuid:cguid_i.obj
 0002:00005eac       _CLSID_LocalMachineClasses 10028eac     uuid:cguid_i.obj
 0002:00005ebc       _CLSID_CurrentUserClasses  10028ebc     uuid:cguid_i.obj
 0002:00005ecc       _CLSID_AddrControl         10028ecc     uuid:cguid_i.obj
 0002:00005edc       _CLSID_GlobalOptions       10028edc     uuid:cguid_i.obj
 0002:00005eec       _CLSID_SurrogateManager    10028eec     uuid:cguid_i.obj
 0002:00005efc       _CLSID_ContextSwitcher     10028efc     uuid:cguid_i.obj
 0002:00005f0c       _CLSID_ActivationStore     10028f0c     uuid:cguid_i.obj
 0002:00005f1c       _CLSID_MachineGlobalObjectTable 10028f1c     uuid:cguid_i.obj
 0002:00005f2c       _IID_IPropertyFrame        10028f2c     uuid:cguid_i.obj
 0002:00005f3c       _CLSID_CFontPropPage       10028f3c     uuid:cguid_i.obj
 0002:00005f4c       _CLSID_CColorPropPage      10028f4c     uuid:cguid_i.obj
 0002:00005f5c       _CLSID_CPicturePropPage    10028f5c     uuid:cguid_i.obj
 0002:00005f6c       _CLSID_StockFontPage       10028f6c     uuid:cguid_i.obj
 0002:00005f7c       _CLSID_StockColorPage      10028f7c     uuid:cguid_i.obj
 0002:00005f8c       _CLSID_StockPicturePage    10028f8c     uuid:cguid_i.obj
 0002:00005f9c       _CLSID_PersistPropset      10028f9c     uuid:cguid_i.obj
 0002:00005fac       _CLSID_ConvertVBX          10028fac     uuid:cguid_i.obj
 0002:00005fbc       _CLSID_StdFont             10028fbc     uuid:cguid_i.obj
 0002:00005fcc       _CLSID_StdPicture          10028fcc     uuid:cguid_i.obj
 0002:00005fdc       _GUID_HIMETRIC             10028fdc     uuid:cguid_i.obj
 0002:00005fec       _GUID_COLOR                10028fec     uuid:cguid_i.obj
 0002:00005ffc       _GUID_XPOSPIXEL            10028ffc     uuid:cguid_i.obj
 0002:0000600c       _GUID_YPOSPIXEL            1002900c     uuid:cguid_i.obj
 0002:0000601c       _GUID_XSIZEPIXEL           1002901c     uuid:cguid_i.obj
 0002:0000602c       _GUID_YSIZEPIXEL           1002902c     uuid:cguid_i.obj
 0002:0000603c       _GUID_XPOS                 1002903c     uuid:cguid_i.obj
 0002:0000604c       _GUID_YPOS                 1002904c     uuid:cguid_i.obj
 0002:0000605c       _GUID_XSIZE                1002905c     uuid:cguid_i.obj
 0002:0000606c       _GUID_YSIZE                1002906c     uuid:cguid_i.obj
 0002:0000607c       _GUID_TRISTATE             1002907c     uuid:cguid_i.obj
 0002:0000608c       _GUID_OPTIONVALUEEXCLUSIVE 1002908c     uuid:cguid_i.obj
 0002:0000609c       _GUID_CHECKVALUEEXCLUSIVE  1002909c     uuid:cguid_i.obj
 0002:000060ac       _GUID_FONTNAME             100290ac     uuid:cguid_i.obj
 0002:000060bc       _GUID_FONTSIZE             100290bc     uuid:cguid_i.obj
 0002:000060cc       _GUID_FONTBOLD             100290cc     uuid:cguid_i.obj
 0002:000060dc       _GUID_FONTITALIC           100290dc     uuid:cguid_i.obj
 0002:000060ec       _GUID_FONTUNDERSCORE       100290ec     uuid:cguid_i.obj
 0002:000060fc       _GUID_FONTSTRIKETHROUGH    100290fc     uuid:cguid_i.obj
 0002:0000610c       _GUID_HANDLE               1002910c     uuid:cguid_i.obj
 0002:0000611c       _IID_StdOle                1002911c     uuid:cguid_i.obj
 0002:0000612c       _IID_ICursor               1002912c     uuid:cguid_i.obj
 0002:0000613c       _IID_ICursorMove           1002913c     uuid:cguid_i.obj
 0002:0000614c       _IID_ICursorScroll         1002914c     uuid:cguid_i.obj
 0002:0000615c       _IID_ICursorUpdateARow     1002915c     uuid:cguid_i.obj
 0002:0000616c       _IID_INotifyDBEvents       1002916c     uuid:cguid_i.obj
 0002:0000617c       _IID_ICursorFind           1002917c     uuid:cguid_i.obj
 0002:0000618c       _IID_IEntryID              1002918c     uuid:cguid_i.obj
 0002:0000619c       __GUID_NAMEONLY            1002919c     uuid:cguid_i.obj
 0002:000061ac       __DBBMKGUID                100291ac     uuid:cguid_i.obj
 0002:000061bc       __DBCIDGUID                100291bc     uuid:cguid_i.obj
 0002:000061cc       _IID_IBoundObject          100291cc     uuid:cguid_i.obj
 0002:000061dc       _IID_IBoundObjectSite      100291dc     uuid:cguid_i.obj
 0002:000061ec       _CLSID_GblComponentCategoriesMgr 100291ec     uuid:cguid_i.obj
 0002:000061fc       _CLSID_ThumbnailFCNHandler 100291fc     uuid:cguid_i.obj
 0002:0000620c       _CLSID_ThumbnailUpdater    1002920c     uuid:cguid_i.obj
 0002:0000621c       _IID_ICallbackWithNoReentrancyToApplicationSTA 1002921c     uuid:cguid_i.obj
 0002:0000622c       _CLSID_TypeLibRegistrationReader 1002922c     uuid:cguid_i.obj
 0002:0000623c       _GUID_DEVCLASS_1394        1002923c     uuid:cguid_i.obj
 0002:0000624c       _GUID_DEVCLASS_1394DEBUG   1002924c     uuid:cguid_i.obj
 0002:0000625c       _GUID_DEVCLASS_61883       1002925c     uuid:cguid_i.obj
 0002:0000626c       _GUID_DEVCLASS_ADAPTER     1002926c     uuid:cguid_i.obj
 0002:0000627c       _GUID_DEVCLASS_APMSUPPORT  1002927c     uuid:cguid_i.obj
 0002:0000628c       _GUID_DEVCLASS_AVC         1002928c     uuid:cguid_i.obj
 0002:0000629c       _GUID_DEVCLASS_BATTERY     1002929c     uuid:cguid_i.obj
 0002:000062ac       _GUID_DEVCLASS_BIOMETRIC   100292ac     uuid:cguid_i.obj
 0002:000062bc       _GUID_DEVCLASS_BLUETOOTH   100292bc     uuid:cguid_i.obj
 0002:000062cc       _GUID_DEVCLASS_CAMERA      100292cc     uuid:cguid_i.obj
 0002:000062dc       _GUID_DEVCLASS_CDROM       100292dc     uuid:cguid_i.obj
 0002:000062ec       _GUID_DEVCLASS_COMPUTEACCELERATOR 100292ec     uuid:cguid_i.obj
 0002:000062fc       _GUID_DEVCLASS_COMPUTER    100292fc     uuid:cguid_i.obj
 0002:0000630c       _GUID_DEVCLASS_DECODER     1002930c     uuid:cguid_i.obj
 0002:0000631c       _GUID_DEVCLASS_DISKDRIVE   1002931c     uuid:cguid_i.obj
 0002:0000632c       _GUID_DEVCLASS_DISPLAY     1002932c     uuid:cguid_i.obj
 0002:0000633c       _GUID_DEVCLASS_DOT4        1002933c     uuid:cguid_i.obj
 0002:0000634c       _GUID_DEVCLASS_DOT4PRINT   1002934c     uuid:cguid_i.obj
 0002:0000635c       _GUID_DEVCLASS_EHSTORAGESILO 1002935c     uuid:cguid_i.obj
 0002:0000636c       _GUID_DEVCLASS_ENUM1394    1002936c     uuid:cguid_i.obj
 0002:0000637c       _GUID_DEVCLASS_EXTENSION   1002937c     uuid:cguid_i.obj
 0002:0000638c       _GUID_DEVCLASS_FDC         1002938c     uuid:cguid_i.obj
 0002:0000639c       _GUID_DEVCLASS_FIRMWARE    1002939c     uuid:cguid_i.obj
 0002:000063ac       _GUID_DEVCLASS_FLOPPYDISK  100293ac     uuid:cguid_i.obj
 0002:000063bc       _GUID_DEVCLASS_GPS         100293bc     uuid:cguid_i.obj
 0002:000063cc       _GUID_DEVCLASS_HDC         100293cc     uuid:cguid_i.obj
 0002:000063dc       _GUID_DEVCLASS_HIDCLASS    100293dc     uuid:cguid_i.obj
 0002:000063ec       _GUID_DEVCLASS_HOLOGRAPHIC 100293ec     uuid:cguid_i.obj
 0002:000063fc       _GUID_DEVCLASS_IMAGE       100293fc     uuid:cguid_i.obj
 0002:0000640c       _GUID_DEVCLASS_INFINIBAND  1002940c     uuid:cguid_i.obj
 0002:0000641c       _GUID_DEVCLASS_INFRARED    1002941c     uuid:cguid_i.obj
 0002:0000642c       _GUID_DEVCLASS_KEYBOARD    1002942c     uuid:cguid_i.obj
 0002:0000643c       _GUID_DEVCLASS_LEGACYDRIVER 1002943c     uuid:cguid_i.obj
 0002:0000644c       _GUID_DEVCLASS_MEDIA       1002944c     uuid:cguid_i.obj
 0002:0000645c       _GUID_DEVCLASS_MEDIUM_CHANGER 1002945c     uuid:cguid_i.obj
 0002:0000646c       _GUID_DEVCLASS_MEMORY      1002946c     uuid:cguid_i.obj
 0002:0000647c       _GUID_DEVCLASS_MODEM       1002947c     uuid:cguid_i.obj
 0002:0000648c       _GUID_DEVCLASS_MONITOR     1002948c     uuid:cguid_i.obj
 0002:0000649c       _GUID_DEVCLASS_MOUSE       1002949c     uuid:cguid_i.obj
 0002:000064ac       _GUID_DEVCLASS_MTD         100294ac     uuid:cguid_i.obj
 0002:000064bc       _GUID_DEVCLASS_MULTIFUNCTION 100294bc     uuid:cguid_i.obj
 0002:000064cc       _GUID_DEVCLASS_MULTIPORTSERIAL 100294cc     uuid:cguid_i.obj
 0002:000064dc       _GUID_DEVCLASS_NET         100294dc     uuid:cguid_i.obj
 0002:000064ec       _GUID_DEVCLASS_NETCLIENT   100294ec     uuid:cguid_i.obj
 0002:000064fc       _GUID_DEVCLASS_NETDRIVER   100294fc     uuid:cguid_i.obj
 0002:0000650c       _GUID_DEVCLASS_NETSERVICE  1002950c     uuid:cguid_i.obj
 0002:0000651c       _GUID_DEVCLASS_NETTRANS    1002951c     uuid:cguid_i.obj
 0002:0000652c       _GUID_DEVCLASS_NETUIO      1002952c     uuid:cguid_i.obj
 0002:0000653c       _GUID_DEVCLASS_NODRIVER    1002953c     uuid:cguid_i.obj
 0002:0000654c       _GUID_DEVCLASS_PCMCIA      1002954c     uuid:cguid_i.obj
 0002:0000655c       _GUID_DEVCLASS_PNPPRINTERS 1002955c     uuid:cguid_i.obj
 0002:0000656c       _GUID_DEVCLASS_PORTS       1002956c     uuid:cguid_i.obj
 0002:0000657c       _GUID_DEVCLASS_PRINTER     1002957c     uuid:cguid_i.obj
 0002:0000658c       _GUID_DEVCLASS_PRINTERUPGRADE 1002958c     uuid:cguid_i.obj
 0002:0000659c       _GUID_DEVCLASS_PRINTQUEUE  1002959c     uuid:cguid_i.obj
 0002:000065ac       _GUID_DEVCLASS_PROCESSOR   100295ac     uuid:cguid_i.obj
 0002:000065bc       _GUID_DEVCLASS_SBP2        100295bc     uuid:cguid_i.obj
 0002:000065cc       _GUID_DEVCLASS_SCMDISK     100295cc     uuid:cguid_i.obj
 0002:000065dc       _GUID_DEVCLASS_SCMVOLUME   100295dc     uuid:cguid_i.obj
 0002:000065ec       _GUID_DEVCLASS_SCSIADAPTER 100295ec     uuid:cguid_i.obj
 0002:000065fc       _GUID_DEVCLASS_SECURITYACCELERATOR 100295fc     uuid:cguid_i.obj
 0002:0000660c       _GUID_DEVCLASS_SENSOR      1002960c     uuid:cguid_i.obj
 0002:0000661c       _GUID_DEVCLASS_SIDESHOW    1002961c     uuid:cguid_i.obj
 0002:0000662c       _GUID_DEVCLASS_SMARTCARDREADER 1002962c     uuid:cguid_i.obj
 0002:0000663c       _GUID_DEVCLASS_SMRDISK     1002963c     uuid:cguid_i.obj
 0002:0000664c       _GUID_DEVCLASS_SMRVOLUME   1002964c     uuid:cguid_i.obj
 0002:0000665c       _GUID_DEVCLASS_SOFTWARECOMPONENT 1002965c     uuid:cguid_i.obj
 0002:0000666c       _GUID_DEVCLASS_SOUND       1002966c     uuid:cguid_i.obj
 0002:0000667c       _GUID_DEVCLASS_SYSTEM      1002967c     uuid:cguid_i.obj
 0002:0000668c       _GUID_DEVCLASS_TAPEDRIVE   1002968c     uuid:cguid_i.obj
 0002:0000669c       _GUID_DEVCLASS_UNKNOWN     1002969c     uuid:cguid_i.obj
 0002:000066ac       _GUID_DEVCLASS_UCM         100296ac     uuid:cguid_i.obj
 0002:000066bc       _GUID_DEVCLASS_USB         100296bc     uuid:cguid_i.obj
 0002:000066cc       _GUID_DEVCLASS_VOLUME      100296cc     uuid:cguid_i.obj
 0002:000066dc       _GUID_DEVCLASS_VOLUMESNAPSHOT 100296dc     uuid:cguid_i.obj
 0002:000066ec       _GUID_DEVCLASS_WCEUSBS     100296ec     uuid:cguid_i.obj
 0002:000066fc       _GUID_DEVCLASS_WPD         100296fc     uuid:cguid_i.obj
 0002:0000670c       _GUID_DEVCLASS_FSFILTER_TOP 1002970c     uuid:cguid_i.obj
 0002:0000671c       _GUID_DEVCLASS_FSFILTER_ACTIVITYMONITOR 1002971c     uuid:cguid_i.obj
 0002:0000672c       _GUID_DEVCLASS_FSFILTER_UNDELETE 1002972c     uuid:cguid_i.obj
 0002:0000673c       _GUID_DEVCLASS_FSFILTER_ANTIVIRUS 1002973c     uuid:cguid_i.obj
 0002:0000674c       _GUID_DEVCLASS_FSFILTER_REPLICATION 1002974c     uuid:cguid_i.obj
 0002:0000675c       _GUID_DEVCLASS_FSFILTER_CONTINUOUSBACKUP 1002975c     uuid:cguid_i.obj
 0002:0000676c       _GUID_DEVCLASS_FSFILTER_CONTENTSCREENER 1002976c     uuid:cguid_i.obj
 0002:0000677c       _GUID_DEVCLASS_FSFILTER_QUOTAMANAGEMENT 1002977c     uuid:cguid_i.obj
 0002:0000678c       _GUID_DEVCLASS_FSFILTER_SYSTEMRECOVERY 1002978c     uuid:cguid_i.obj
 0002:0000679c       _GUID_DEVCLASS_FSFILTER_CFSMETADATASERVER 1002979c     uuid:cguid_i.obj
 0002:000067ac       _GUID_DEVCLASS_FSFILTER_HSM 100297ac     uuid:cguid_i.obj
 0002:000067bc       _GUID_DEVCLASS_FSFILTER_COMPRESSION 100297bc     uuid:cguid_i.obj
 0002:000067cc       _GUID_DEVCLASS_FSFILTER_ENCRYPTION 100297cc     uuid:cguid_i.obj
 0002:000067dc       _GUID_DEVCLASS_FSFILTER_VIRTUALIZATION 100297dc     uuid:cguid_i.obj
 0002:000067ec       _GUID_DEVCLASS_FSFILTER_PHYSICALQUOTAMANAGEMENT 100297ec     uuid:cguid_i.obj
 0002:000067fc       _GUID_DEVCLASS_FSFILTER_OPENFILEBACKUP 100297fc     uuid:cguid_i.obj
 0002:0000680c       _GUID_DEVCLASS_FSFILTER_SECURITYENHANCER 1002980c     uuid:cguid_i.obj
 0002:0000681c       _GUID_DEVCLASS_FSFILTER_COPYPROTECTION 1002981c     uuid:cguid_i.obj
 0002:0000682c       _GUID_DEVCLASS_FSFILTER_BOTTOM 1002982c     uuid:cguid_i.obj
 0002:0000683c       _GUID_DEVCLASS_FSFILTER_SYSTEM 1002983c     uuid:cguid_i.obj
 0002:0000684c       _GUID_DEVCLASS_FSFILTER_INFRASTRUCTURE 1002984c     uuid:cguid_i.obj
 0002:0000685c       _GUID_DEVINTERFACE_DISK    1002985c     uuid:cguid_i.obj
 0002:0000686c       _GUID_DEVINTERFACE_CDROM   1002986c     uuid:cguid_i.obj
 0002:0000687c       _GUID_DEVINTERFACE_PARTITION 1002987c     uuid:cguid_i.obj
 0002:0000688c       _GUID_DEVINTERFACE_TAPE    1002988c     uuid:cguid_i.obj
 0002:0000689c       _GUID_DEVINTERFACE_WRITEONCEDISK 1002989c     uuid:cguid_i.obj
 0002:000068ac       _GUID_DEVINTERFACE_VOLUME  100298ac     uuid:cguid_i.obj
 0002:000068bc       _GUID_DEVINTERFACE_MEDIUMCHANGER 100298bc     uuid:cguid_i.obj
 0002:000068cc       _GUID_DEVINTERFACE_FLOPPY  100298cc     uuid:cguid_i.obj
 0002:000068dc       _GUID_DEVINTERFACE_CDCHANGER 100298dc     uuid:cguid_i.obj
 0002:000068ec       _GUID_DEVINTERFACE_STORAGEPORT 100298ec     uuid:cguid_i.obj
 0002:000068fc       _GUID_DEVINTERFACE_VMLUN   100298fc     uuid:cguid_i.obj
 0002:0000690c       _GUID_DEVINTERFACE_SES     1002990c     uuid:cguid_i.obj
 0002:0000691c       _GUID_DEVINTERFACE_ZNSDISK 1002991c     uuid:cguid_i.obj
 0002:0000692c       _GUID_DEVINTERFACE_SERVICE_VOLUME 1002992c     uuid:cguid_i.obj
 0002:0000693c       _GUID_DEVINTERFACE_HIDDEN_VOLUME 1002993c     uuid:cguid_i.obj
 0002:0000694c       _GUID_DEVINTERFACE_UNIFIED_ACCESS_RPMB 1002994c     uuid:cguid_i.obj
 0002:0000695c       _GUID_DEVINTERFACE_SCM_PHYSICAL_DEVICE 1002995c     uuid:cguid_i.obj
 0002:0000696c       _GUID_SCM_PD_HEALTH_NOTIFICATION 1002996c     uuid:cguid_i.obj
 0002:0000697c       _GUID_SCM_PD_PASSTHROUGH_INVDIMM 1002997c     uuid:cguid_i.obj
 0002:0000698c       _GUID_DEVINTERFACE_COMPORT 1002998c     uuid:cguid_i.obj
 0002:0000699c       _GUID_DEVINTERFACE_SERENUM_BUS_ENUMERATOR 1002999c     uuid:cguid_i.obj
 0002:000069ac       _GUID_ATLVer30             100299ac     atls:atlbase.obj
 0002:000069bc       _GUID_ATLVer70             100299bc     atls:atlbase.obj
 0002:000069cc       _GUID_ATLVer100            100299cc     atls:atlbase.obj
 0002:000069dc       _GUID_ATLVer110            100299dc     atls:atlbase.obj
 0002:000069f0       ??_C@_1IC@ONKHOIDK@?$AAE?$AAR?$AAR?$AAO?$AAR?$AA?5?$AA?3?$AA?5?$AAU?$AAn?$AAa?$AAb?$AAl?$AAe?$AA?5@ 100299f0     atls:atlbase.obj
 0002:00006a74       ??_C@_1CA@ONGMEOAB@?$AAa?$AAt?$AAl?$AAT?$AAr?$AAa?$AAc?$AAe?$AAG?$AAe?$AAn?$AAe?$AAr?$AAa?$AAl@ 10029a74     atls:stdafx.obj
 0002:00006a94       ??_C@_1BI@MAFGHOEE@?$AAa?$AAt?$AAl?$AAT?$AAr?$AAa?$AAc?$AAe?$AAC?$AAO?$AAM@ 10029a94     atls:stdafx.obj
 0002:00006aac       ??_C@_1BG@FPLJJEMF@?$AAa?$AAt?$AAl?$AAT?$AAr?$AAa?$AAc?$AAe?$AAQ?$AAI@ 10029aac     atls:stdafx.obj
 0002:00006ac4       ??_C@_1CE@NIAEAIDK@?$AAa?$AAt?$AAl?$AAT?$AAr?$AAa?$AAc?$AAe?$AAR?$AAe?$AAg?$AAi?$AAs?$AAt?$AAr@ 10029ac4     atls:stdafx.obj
 0002:00006ae8       ??_C@_1CC@BNHGJFNK@?$AAa?$AAt?$AAl?$AAT?$AAr?$AAa?$AAc?$AAe?$AAR?$AAe?$AAf?$AAc?$AAo?$AAu?$AAn@ 10029ae8     atls:stdafx.obj
 0002:00006b0c       ??_C@_1CE@NAJDPMNB@?$AAa?$AAt?$AAl?$AAT?$AAr?$AAa?$AAc?$AAe?$AAW?$AAi?$AAn?$AAd?$AAo?$AAw?$AAi@ 10029b0c     atls:stdafx.obj
 0002:00006b30       ??_C@_1CC@IMNJGBED@?$AAa?$AAt?$AAl?$AAT?$AAr?$AAa?$AAc?$AAe?$AAC?$AAo?$AAn?$AAt?$AAr?$AAo?$AAl@ 10029b30     atls:stdafx.obj
 0002:00006b54       ??_C@_1CA@OMOMONMN@?$AAa?$AAt?$AAl?$AAT?$AAr?$AAa?$AAc?$AAe?$AAH?$AAo?$AAs?$AAt?$AAi?$AAn?$AAg@ 10029b54     atls:stdafx.obj
 0002:00006b74       ??_C@_1CC@JNJJDOOH@?$AAa?$AAt?$AAl?$AAT?$AAr?$AAa?$AAc?$AAe?$AAD?$AAB?$AAC?$AAl?$AAi?$AAe?$AAn@ 10029b74     atls:stdafx.obj
 0002:00006b98       ??_C@_1CG@MNMMIOOI@?$AAa?$AAt?$AAl?$AAT?$AAr?$AAa?$AAc?$AAe?$AAD?$AAB?$AAP?$AAr?$AAo?$AAv?$AAi@ 10029b98     atls:stdafx.obj
 0002:00006bc0       ??_C@_1BO@EFPHNHHN@?$AAa?$AAt?$AAl?$AAT?$AAr?$AAa?$AAc?$AAe?$AAS?$AAn?$AAa?$AAp?$AAi?$AAn@ 10029bc0     atls:stdafx.obj
 0002:00006be0       ??_C@_1CA@DMHPIODO@?$AAa?$AAt?$AAl?$AAT?$AAr?$AAa?$AAc?$AAe?$AAN?$AAo?$AAt?$AAI?$AAm?$AAp?$AAl@ 10029be0     atls:stdafx.obj
 0002:00006c00       ??_C@_1CG@KFEEMCDH@?$AAa?$AAt?$AAl?$AAT?$AAr?$AAa?$AAc?$AAe?$AAA?$AAl?$AAl?$AAo?$AAc?$AAa?$AAt@ 10029c00     atls:stdafx.obj
 0002:00006c28       ??_C@_1CE@IMMADNAP@?$AAa?$AAt?$AAl?$AAT?$AAr?$AAa?$AAc?$AAe?$AAE?$AAx?$AAc?$AAe?$AAp?$AAt?$AAi@ 10029c28     atls:stdafx.obj
 0002:00006c4c       ??_C@_1BK@NCJHOFCL@?$AAa?$AAt?$AAl?$AAT?$AAr?$AAa?$AAc?$AAe?$AAT?$AAi?$AAm?$AAe@ 10029c4c     atls:stdafx.obj
 0002:00006c68       ??_C@_1BM@GIKLHLFD@?$AAa?$AAt?$AAl?$AAT?$AAr?$AAa?$AAc?$AAe?$AAC?$AAa?$AAc?$AAh?$AAe@ 10029c68     atls:stdafx.obj
 0002:00006c84       ??_C@_1CA@PBPHANCD@?$AAa?$AAt?$AAl?$AAT?$AAr?$AAa?$AAc?$AAe?$AAS?$AAt?$AAe?$AAn?$AAc?$AAi?$AAl@ 10029c84     atls:stdafx.obj
 0002:00006ca4       ??_C@_1BO@GMLILNDJ@?$AAa?$AAt?$AAl?$AAT?$AAr?$AAa?$AAc?$AAe?$AAS?$AAt?$AAr?$AAi?$AAn?$AAg@ 10029ca4     atls:stdafx.obj
 0002:00006cc4       ??_C@_1BI@OKDLCIEM@?$AAa?$AAt?$AAl?$AAT?$AAr?$AAa?$AAc?$AAe?$AAM?$AAa?$AAp@ 10029cc4     atls:stdafx.obj
 0002:00006cdc       ??_C@_1BK@DMHCKHHD@?$AAa?$AAt?$AAl?$AAT?$AAr?$AAa?$AAc?$AAe?$AAU?$AAt?$AAi?$AAl@ 10029cdc     atls:stdafx.obj
 0002:00006cf8       ??_C@_1CC@DMMBNCFG@?$AAa?$AAt?$AAl?$AAT?$AAr?$AAa?$AAc?$AAe?$AAS?$AAe?$AAc?$AAu?$AAr?$AAi?$AAt@ 10029cf8     atls:stdafx.obj
 0002:00006d1c       ??_C@_1BK@OPAPOCAL@?$AAa?$AAt?$AAl?$AAT?$AAr?$AAa?$AAc?$AAe?$AAS?$AAy?$AAn?$AAc@ 10029d1c     atls:stdafx.obj
 0002:00006d38       ??_C@_1BM@FHAEDBFK@?$AAa?$AAt?$AAl?$AAT?$AAr?$AAa?$AAc?$AAe?$AAI?$AAS?$AAA?$AAP?$AAI@ 10029d38     atls:stdafx.obj
 0002:00006d54       ?chDirSep@ATL@@3_WB        10029d54     atls:stdafx.obj
 0002:00006d58       ?chRightBracket@ATL@@3_WB  10029d58     atls:stdafx.obj
 0002:00006d5c       ?chLeftBracket@ATL@@3_WB   10029d5c     atls:stdafx.obj
 0002:00006d60       ?chQuote@ATL@@3_WB         10029d60     atls:stdafx.obj
 0002:00006d64       ?chEquals@ATL@@3_WB        10029d64     atls:stdafx.obj
 0002:00006d68       ?szStringVal@ATL@@3QB_WB   10029d68     atls:stdafx.obj
 0002:00006d6c       ??_C@_13HADIAKP@?$AAS@     10029d6c     atls:stdafx.obj
 0002:00006d70       ?multiszStringVal@ATL@@3QB_WB 10029d70     atls:stdafx.obj
 0002:00006d74       ??_C@_13LHMFKAAD@?$AAM@    10029d74     atls:stdafx.obj
 0002:00006d78       ?szDwordVal@ATL@@3QB_WB    10029d78     atls:stdafx.obj
 0002:00006d7c       ??_C@_13MKMNOPIJ@?$AAD@    10029d7c     atls:stdafx.obj
 0002:00006d80       ?szBinaryVal@ATL@@3QB_WB   10029d80     atls:stdafx.obj
 0002:00006d84       ??_C@_13OPKGLAFF@?$AAB@    10029d84     atls:stdafx.obj
 0002:00006d88       ?szValToken@ATL@@3QB_WB    10029d88     atls:stdafx.obj
 0002:00006d8c       ??_C@_17LLMMEOJD@?$AAV?$AAa?$AAl@ 10029d8c     atls:stdafx.obj
 0002:00006d94       ?szForceRemove@ATL@@3QB_WB 10029d94     atls:stdafx.obj
 0002:00006d98       ??_C@_1BI@JFAIJMHL@?$AAF?$AAo?$AAr?$AAc?$AAe?$AAR?$AAe?$AAm?$AAo?$AAv?$AAe@ 10029d98     atls:stdafx.obj
 0002:00006db0       ?szNoRemove@ATL@@3QB_WB    10029db0     atls:stdafx.obj
 0002:00006db4       ??_C@_1BC@GCKHIPE@?$AAN?$AAo?$AAR?$AAe?$AAm?$AAo?$AAv?$AAe@ 10029db4     atls:stdafx.obj
 0002:00006dc8       ?szDelete@ATL@@3QB_WB      10029dc8     atls:stdafx.obj
 0002:00006dcc       ??_C@_1O@JDLOHAN@?$AAD?$AAe?$AAl?$AAe?$AAt?$AAe@ 10029dcc     atls:stdafx.obj
 0002:00006ddc       __pRawDllMain              10029ddc     mfcs140:rawdllmainproxy.obj
 0002:00006e38       __load_config_used         10029e38     msvcrt:loadcfg.obj
 0002:00006f00       ___CastGuardVftablesStart  10029f00     msvcrt:guard_support.obj
 0002:00006f04       ___CastGuardVftablesEnd    10029f04     msvcrt:guard_support.obj
 0002:00006f08       __tls_used                 10029f08     msvcrt:tlssup.obj
 0002:00006f20       ??_R4CControlPos@@6B@      10029f20     ControlPos.obj
 0002:00006f34       ??_R3CControlPos@@8        10029f34     ControlPos.obj
 0002:00006f44       ??_R2CControlPos@@8        10029f44     ControlPos.obj
 0002:00006f4c       ??_R1A@?0A@EA@CControlPos@@8 10029f4c     ControlPos.obj
 0002:00006f68       ??_R3IRegistryManager@@8   10029f68     EtcUtil.obj
 0002:00006f78       ??_R2IRegistryManager@@8   10029f78     EtcUtil.obj
 0002:00006f80       ??_R1A@?0A@EA@IRegistryManager@@8 10029f80     EtcUtil.obj
 0002:00006f9c       ??_R4CRegistryManager@@6B@ 10029f9c     EtcUtil.obj
 0002:00006fb0       ??_R3CRegistryManager@@8   10029fb0     EtcUtil.obj
 0002:00006fc0       ??_R2CRegistryManager@@8   10029fc0     EtcUtil.obj
 0002:00006fcc       ??_R1A@?0A@EA@CRegistryManager@@8 10029fcc     EtcUtil.obj
 0002:00006fe8       ??_R3CObject@@8            10029fe8     GwanWnd.obj
 0002:00006ff8       ??_R2CObject@@8            10029ff8     GwanWnd.obj
 0002:00007000       ??_R1A@?0A@EA@CObject@@8   1002a000     GwanWnd.obj
 0002:0000701c       ??_R1A@?0A@EA@CWnd@@8      1002a01c     GwanWnd.obj
 0002:00007038       ??_R3CWnd@@8               1002a038     GwanWnd.obj
 0002:00007048       ??_R2CWnd@@8               1002a048     GwanWnd.obj
 0002:00007058       ??_R1A@?0A@EA@CCmdTarget@@8 1002a058     GwanWnd.obj
 0002:00007074       ??_R3CCmdTarget@@8         1002a074     GwanWnd.obj
 0002:00007084       ??_R2CCmdTarget@@8         1002a084     GwanWnd.obj
 0002:00007090       ??_R4CGwanWnd@@6B@         1002a090     GwanWnd.obj
 0002:000070a4       ??_R3CGwanWnd@@8           1002a0a4     GwanWnd.obj
 0002:000070b4       ??_R2CGwanWnd@@8           1002a0b4     GwanWnd.obj
 0002:000070c8       ??_R1A@?0A@EA@CGwanWnd@@8  1002a0c8     GwanWnd.obj
 0002:000070e4       ??_R4CNewsMoniterWnd@@6B@  1002a0e4     NewsMoniterWnd.obj
 0002:000070f8       ??_R3CNewsMoniterWnd@@8    1002a0f8     NewsMoniterWnd.obj
 0002:00007108       ??_R2CNewsMoniterWnd@@8    1002a108     NewsMoniterWnd.obj
 0002:0000711c       ??_R1A@?0A@EA@CNewsMoniterWnd@@8 1002a11c     NewsMoniterWnd.obj
 0002:00007138       ??_R4CPCtrMainWnd@@6B@     1002a138     PCtrMainWnd.obj
 0002:0000714c       ??_R3CPCtrMainWnd@@8       1002a14c     PCtrMainWnd.obj
 0002:0000715c       ??_R2CPCtrMainWnd@@8       1002a15c     PCtrMainWnd.obj
 0002:00007170       ??_R1A@?0A@EA@CPCtrMainWnd@@8 1002a170     PCtrMainWnd.obj
 0002:0000718c       ??_R3IGateManager@@8       1002a18c     PcTrMng.obj
 0002:0000719c       ??_R2IGateManager@@8       1002a19c     PcTrMng.obj
 0002:000071a4       ??_R1A@?0A@EA@IGateManager@@8 1002a1a4     PcTrMng.obj
 0002:000071c0       ??_R3IDataUtilManager@@8   1002a1c0     PcTrMng.obj
 0002:000071d0       ??_R2IDataUtilManager@@8   1002a1d0     PcTrMng.obj
 0002:000071d8       ??_R1A@?0A@EA@IDataUtilManager@@8 1002a1d8     PcTrMng.obj
 0002:000071f4       ??_R3IDataUtilManager2@@8  1002a1f4     PcTrMng.obj
 0002:00007204       ??_R2IDataUtilManager2@@8  1002a204     PcTrMng.obj
 0002:00007210       ??_R1A@?0A@EA@IDataUtilManager2@@8 1002a210     PcTrMng.obj
 0002:0000722c       ??_R3ISTManager@@8         1002a22c     PcTrMng.obj
 0002:0000723c       ??_R2ISTManager@@8         1002a23c     PcTrMng.obj
 0002:00007244       ??_R1A@?0A@EA@ISTManager@@8 1002a244     PcTrMng.obj
 0002:00007260       ??_R3ISystemUtilManager@@8 1002a260     PcTrMng.obj
 0002:00007270       ??_R2ISystemUtilManager@@8 1002a270     PcTrMng.obj
 0002:00007278       ??_R1A@?0A@EA@ISystemUtilManager@@8 1002a278     PcTrMng.obj
 0002:00007294       ??_R3ISystemUtilManager2@@8 1002a294     PcTrMng.obj
 0002:000072a4       ??_R2ISystemUtilManager2@@8 1002a2a4     PcTrMng.obj
 0002:000072b0       ??_R1A@?0A@EA@ISystemUtilManager2@@8 1002a2b0     PcTrMng.obj
 0002:000072cc       ??_R4CGateManager@@6B@     1002a2cc     PcTrMng.obj
 0002:000072e0       ??_R3CGateManager@@8       1002a2e0     PcTrMng.obj
 0002:000072f0       ??_R2CGateManager@@8       1002a2f0     PcTrMng.obj
 0002:000072fc       ??_R1A@?0A@EA@CGateManager@@8 1002a2fc     PcTrMng.obj
 0002:00007318       ??_R4CDataUtilManager@@6B@ 1002a318     PcTrMng.obj
 0002:0000732c       ??_R3CDataUtilManager@@8   1002a32c     PcTrMng.obj
 0002:0000733c       ??_R2CDataUtilManager@@8   1002a33c     PcTrMng.obj
 0002:0000734c       ??_R1A@?0A@EA@CDataUtilManager@@8 1002a34c     PcTrMng.obj
 0002:00007368       ??_R4?$CList@PAVCSTManager_Info@@PAV1@@@6B@ 1002a368     PcTrMng.obj
 0002:0000737c       ??_R3?$CList@PAVCSTManager_Info@@PAV1@@@8 1002a37c     PcTrMng.obj
 0002:0000738c       ??_R2?$CList@PAVCSTManager_Info@@PAV1@@@8 1002a38c     PcTrMng.obj
 0002:00007398       ??_R1A@?0A@EA@?$CList@PAVCSTManager_Info@@PAV1@@@8 1002a398     PcTrMng.obj
 0002:000073b4       ??_R4CSTManager@@6B@       1002a3b4     PcTrMng.obj
 0002:000073c8       ??_R3CSTManager@@8         1002a3c8     PcTrMng.obj
 0002:000073d8       ??_R2CSTManager@@8         1002a3d8     PcTrMng.obj
 0002:000073e4       ??_R1A@?0A@EA@CSTManager@@8 1002a3e4     PcTrMng.obj
 0002:00007400       ??_R4CSystemUtilManager@@6B@ 1002a400     PcTrMng.obj
 0002:00007414       ??_R3CSystemUtilManager@@8 1002a414     PcTrMng.obj
 0002:00007424       ??_R2CSystemUtilManager@@8 1002a424     PcTrMng.obj
 0002:00007434       ??_R1A@?0A@EA@CSystemUtilManager@@8 1002a434     PcTrMng.obj
 0002:00007450       ??_R4CPcTrMngApp@@6B@      1002a450     PcTrMng.obj
 0002:00007464       ??_R3CPcTrMngApp@@8        1002a464     PcTrMng.obj
 0002:00007474       ??_R2CPcTrMngApp@@8        1002a474     PcTrMng.obj
 0002:0000748c       ??_R1A@?0A@EA@CPcTrMngApp@@8 1002a48c     PcTrMng.obj
 0002:000074a8       ??_R1A@?0A@EA@CWinApp@@8   1002a4a8     PcTrMng.obj
 0002:000074c4       ??_R3CWinApp@@8            1002a4c4     PcTrMng.obj
 0002:000074d4       ??_R2CWinApp@@8            1002a4d4     PcTrMng.obj
 0002:000074e8       ??_R1A@?0A@EA@CWinThread@@8 1002a4e8     PcTrMng.obj
 0002:00007504       ??_R3CWinThread@@8         1002a504     PcTrMng.obj
 0002:00007514       ??_R2CWinThread@@8         1002a514     PcTrMng.obj
 0002:00007524       ??_R4CWin32Heap@ATL@@6B@   1002a524     StdAfx.obj
 0002:00007538       ??_R3CWin32Heap@ATL@@8     1002a538     StdAfx.obj
 0002:00007548       ??_R2CWin32Heap@ATL@@8     1002a548     StdAfx.obj
 0002:00007554       ??_R1A@?0A@EA@CWin32Heap@ATL@@8 1002a554     StdAfx.obj
 0002:00007570       ??_R1A@?0A@EA@IAtlMemMgr@ATL@@8 1002a570     StdAfx.obj
 0002:0000758c       ??_R3IAtlMemMgr@ATL@@8     1002a58c     StdAfx.obj
 0002:0000759c       ??_R2IAtlMemMgr@ATL@@8     1002a59c     StdAfx.obj
 0002:000075a4       ??_R1A@?0A@EA@IAtlStringMgr@ATL@@8 1002a5a4     StdAfx.obj
 0002:000075c0       ??_R3IAtlStringMgr@ATL@@8  1002a5c0     StdAfx.obj
 0002:000075d0       ??_R2IAtlStringMgr@ATL@@8  1002a5d0     StdAfx.obj
 0002:000075d8       ??_R4CAtlStringMgr@ATL@@6B@ 1002a5d8     StdAfx.obj
 0002:000075ec       ??_R3CAtlStringMgr@ATL@@8  1002a5ec     StdAfx.obj
 0002:000075fc       ??_R2CAtlStringMgr@ATL@@8  1002a5fc     StdAfx.obj
 0002:00007608       ??_R1A@?0A@EA@CAtlStringMgr@ATL@@8 1002a608     StdAfx.obj
 0002:00007624       ??_R4CTracer@@6B@          1002a624     Tracer.obj
 0002:00007638       ??_R3CTracer@@8            1002a638     Tracer.obj
 0002:00007648       ??_R2CTracer@@8            1002a648     Tracer.obj
 0002:00007650       ??_R1A@?0A@EA@CTracer@@8   1002a650     Tracer.obj
 0002:0000766c       ??_R3ICompanyManager@@8    1002a66c     _CompanyManager.obj
 0002:0000767c       ??_R2ICompanyManager@@8    1002a67c     _CompanyManager.obj
 0002:00007684       ??_R1A@?0A@EA@ICompanyManager@@8 1002a684     _CompanyManager.obj
 0002:000076a0       ??_R3ICompanyManager_SS@@8 1002a6a0     _CompanyManager.obj
 0002:000076b0       ??_R2ICompanyManager_SS@@8 1002a6b0     _CompanyManager.obj
 0002:000076bc       ??_R1A@?0A@EA@ICompanyManager_SS@@8 1002a6bc     _CompanyManager.obj
 0002:000076d8       ??_R4CCompanyManager@@6B@  1002a6d8     _CompanyManager.obj
 0002:000076ec       ??_R3CCompanyManager@@8    1002a6ec     _CompanyManager.obj
 0002:000076fc       ??_R2CCompanyManager@@8    1002a6fc     _CompanyManager.obj
 0002:0000770c       ??_R1A@?0A@EA@CCompanyManager@@8 1002a70c     _CompanyManager.obj
 0002:00007728       ??_R3IAUDataMonitorManager@@8 1002a728     _DataMonitorManager.obj
 0002:00007738       ??_R2IAUDataMonitorManager@@8 1002a738     _DataMonitorManager.obj
 0002:00007740       ??_R1A@?0A@EA@IAUDataMonitorManager@@8 1002a740     _DataMonitorManager.obj
 0002:0000775c       ??_R4?$CList@VCDMMngInfo@@V1@@@6B@ 1002a75c     _DataMonitorManager.obj
 0002:00007770       ??_R3?$CList@VCDMMngInfo@@V1@@@8 1002a770     _DataMonitorManager.obj
 0002:00007780       ??_R2?$CList@VCDMMngInfo@@V1@@@8 1002a780     _DataMonitorManager.obj
 0002:0000778c       ??_R1A@?0A@EA@?$CList@VCDMMngInfo@@V1@@@8 1002a78c     _DataMonitorManager.obj
 0002:000077a8       ??_R4CAUDataMonitorManager@@6B@ 1002a7a8     _DataMonitorManager.obj
 0002:000077bc       ??_R3CAUDataMonitorManager@@8 1002a7bc     _DataMonitorManager.obj
 0002:000077cc       ??_R2CAUDataMonitorManager@@8 1002a7cc     _DataMonitorManager.obj
 0002:000077d8       ??_R1A@?0A@EA@CAUDataMonitorManager@@8 1002a7d8     _DataMonitorManager.obj
 0002:000077f4       ??_R3IDebugManager@@8      1002a7f4     _DebugManager.obj
 0002:00007804       ??_R2IDebugManager@@8      1002a804     _DebugManager.obj
 0002:0000780c       ??_R1A@?0A@EA@IDebugManager@@8 1002a80c     _DebugManager.obj
 0002:00007828       ??_R3IDebugManager2@@8     1002a828     _DebugManager.obj
 0002:00007838       ??_R2IDebugManager2@@8     1002a838     _DebugManager.obj
 0002:00007844       ??_R1A@?0A@EA@IDebugManager2@@8 1002a844     _DebugManager.obj
 0002:00007860       ??_R3IDebugManager3@@8     1002a860     _DebugManager.obj
 0002:00007870       ??_R2IDebugManager3@@8     1002a870     _DebugManager.obj
 0002:00007880       ??_R1A@?0A@EA@IDebugManager3@@8 1002a880     _DebugManager.obj
 0002:0000789c       ??_R4CDebugManager@@6B@    1002a89c     _DebugManager.obj
 0002:000078b0       ??_R3CDebugManager@@8      1002a8b0     _DebugManager.obj
 0002:000078c0       ??_R2CDebugManager@@8      1002a8c0     _DebugManager.obj
 0002:000078d4       ??_R1A@?0A@EA@CDebugManager@@8 1002a8d4     _DebugManager.obj
 0002:000078f0       ??_R3IDrdsLib@@8           1002a8f0     _DrdsManager.obj
 0002:00007900       ??_R2IDrdsLib@@8           1002a900     _DrdsManager.obj
 0002:00007908       ??_R1A@?0A@EA@IDrdsLib@@8  1002a908     _DrdsManager.obj
 0002:00007924       ??_R3IAUDrdsManager@@8     1002a924     _DrdsManager.obj
 0002:00007934       ??_R2IAUDrdsManager@@8     1002a934     _DrdsManager.obj
 0002:0000793c       ??_R1A@?0A@EA@IAUDrdsManager@@8 1002a93c     _DrdsManager.obj
 0002:00007958       ??_R4?$CList@PAUIDrdsLib@@PAU1@@@6B@ 1002a958     _DrdsManager.obj
 0002:0000796c       ??_R3?$CList@PAUIDrdsLib@@PAU1@@@8 1002a96c     _DrdsManager.obj
 0002:0000797c       ??_R2?$CList@PAUIDrdsLib@@PAU1@@@8 1002a97c     _DrdsManager.obj
 0002:00007988       ??_R1A@?0A@EA@?$CList@PAUIDrdsLib@@PAU1@@@8 1002a988     _DrdsManager.obj
 0002:000079a4       ??_R4CAUDrdsManager@@6B@   1002a9a4     _DrdsManager.obj
 0002:000079b8       ??_R3CAUDrdsManager@@8     1002a9b8     _DrdsManager.obj
 0002:000079c8       ??_R2CAUDrdsManager@@8     1002a9c8     _DrdsManager.obj
 0002:000079d4       ??_R1A@?0A@EA@CAUDrdsManager@@8 1002a9d4     _DrdsManager.obj
 0002:000079f0       ??_R4CDrdsLib@@6B@         1002a9f0     _DrdsManager.obj
 0002:00007a04       ??_R3CDrdsLib@@8           1002aa04     _DrdsManager.obj
 0002:00007a14       ??_R2CDrdsLib@@8           1002aa14     _DrdsManager.obj
 0002:00007a20       ??_R1A@?0A@EA@CDrdsLib@@8  1002aa20     _DrdsManager.obj
 0002:00007a3c       ??_R3IBaseDataDB@@8        1002aa3c     _MainExInfoManager.obj
 0002:00007a4c       ??_R2IBaseDataDB@@8        1002aa4c     _MainExInfoManager.obj
 0002:00007a54       ??_R1A@?0A@EA@IBaseDataDB@@8 1002aa54     _MainExInfoManager.obj
 0002:00007a70       ??_R4CCriticalSection@@6B@ 1002aa70     _MainExInfoManager.obj
 0002:00007a84       ??_R3CCriticalSection@@8   1002aa84     _MainExInfoManager.obj
 0002:00007a94       ??_R2CCriticalSection@@8   1002aa94     _MainExInfoManager.obj
 0002:00007aa4       ??_R1A@?0A@EA@CCriticalSection@@8 1002aaa4     _MainExInfoManager.obj
 0002:00007ac0       ??_R1A@?0A@EA@CSyncObject@@8 1002aac0     _MainExInfoManager.obj
 0002:00007adc       ??_R3CSyncObject@@8        1002aadc     _MainExInfoManager.obj
 0002:00007aec       ??_R2CSyncObject@@8        1002aaec     _MainExInfoManager.obj
 0002:00007af8       ??_R3IMainExInfoManager@@8 1002aaf8     _MainExInfoManager.obj
 0002:00007b08       ??_R2IMainExInfoManager@@8 1002ab08     _MainExInfoManager.obj
 0002:00007b14       ??_R1A@?0A@EA@IMainExInfoManager@@8 1002ab14     _MainExInfoManager.obj
 0002:00007b30       ??_R3IMainExInfoManager2@@8 1002ab30     _MainExInfoManager.obj
 0002:00007b40       ??_R2IMainExInfoManager2@@8 1002ab40     _MainExInfoManager.obj
 0002:00007b50       ??_R1A@?0A@EA@IMainExInfoManager2@@8 1002ab50     _MainExInfoManager.obj
 0002:00007b6c       ??_R3IMainExInfoManager3@@8 1002ab6c     _MainExInfoManager.obj
 0002:00007b7c       ??_R2IMainExInfoManager3@@8 1002ab7c     _MainExInfoManager.obj
 0002:00007b90       ??_R1A@?0A@EA@IMainExInfoManager3@@8 1002ab90     _MainExInfoManager.obj
 0002:00007bac       ??_R4?$CList@PAUST_FOR_UserData@@PAU1@@@6B@ 1002abac     _MainExInfoManager.obj
 0002:00007bc0       ??_R3?$CList@PAUST_FOR_UserData@@PAU1@@@8 1002abc0     _MainExInfoManager.obj
 0002:00007bd0       ??_R2?$CList@PAUST_FOR_UserData@@PAU1@@@8 1002abd0     _MainExInfoManager.obj
 0002:00007bdc       ??_R1A@?0A@EA@?$CList@PAUST_FOR_UserData@@PAU1@@@8 1002abdc     _MainExInfoManager.obj
 0002:00007bf8       ??_R4CMainExInfoManager@@6B@ 1002abf8     _MainExInfoManager.obj
 0002:00007c0c       ??_R3CMainExInfoManager@@8 1002ac0c     _MainExInfoManager.obj
 0002:00007c1c       ??_R2CMainExInfoManager@@8 1002ac1c     _MainExInfoManager.obj
 0002:00007c34       ??_R1A@?0A@EA@CMainExInfoManager@@8 1002ac34     _MainExInfoManager.obj
 0002:00007c50       ??_R4?$CList@UTR_CODEINFOEX@@U1@@@6B@ 1002ac50     _MainExInfoManager.obj
 0002:00007c64       ??_R3?$CList@UTR_CODEINFOEX@@U1@@@8 1002ac64     _MainExInfoManager.obj
 0002:00007c74       ??_R2?$CList@UTR_CODEINFOEX@@U1@@@8 1002ac74     _MainExInfoManager.obj
 0002:00007c80       ??_R1A@?0A@EA@?$CList@UTR_CODEINFOEX@@U1@@@8 1002ac80     _MainExInfoManager.obj
 0002:00007c9c       ??_R3IBaseDataString@@8    1002ac9c     _MainInfoManager.obj
 0002:00007cac       ??_R2IBaseDataString@@8    1002acac     _MainInfoManager.obj
 0002:00007cb4       ??_R1A@?0A@EA@IBaseDataString@@8 1002acb4     _MainInfoManager.obj
 0002:00007cd0       ??_R3IMainInfoManager@@8   1002acd0     _MainInfoManager.obj
 0002:00007ce0       ??_R2IMainInfoManager@@8   1002ace0     _MainInfoManager.obj
 0002:00007cec       ??_R1A@?0A@EA@IMainInfoManager@@8 1002acec     _MainInfoManager.obj
 0002:00007d08       ??_R4CMainInfoManager@@6B@ 1002ad08     _MainInfoManager.obj
 0002:00007d1c       ??_R3CMainInfoManager@@8   1002ad1c     _MainInfoManager.obj
 0002:00007d2c       ??_R2CMainInfoManager@@8   1002ad2c     _MainInfoManager.obj
 0002:00007d3c       ??_R1A@?0A@EA@CMainInfoManager@@8 1002ad3c     _MainInfoManager.obj
 0002:00007d58       ??_R3IMasterDataManagerBase@@8 1002ad58     _MasterDataManager.obj
 0002:00007d68       ??_R2IMasterDataManagerBase@@8 1002ad68     _MasterDataManager.obj
 0002:00007d70       ??_R1A@?0A@EA@IMasterDataManagerBase@@8 1002ad70     _MasterDataManager.obj
 0002:00007d8c       ??_R3IMasterDataManager@@8 1002ad8c     _MasterDataManager.obj
 0002:00007d9c       ??_R2IMasterDataManager@@8 1002ad9c     _MasterDataManager.obj
 0002:00007da8       ??_R1A@?0A@EA@IMasterDataManager@@8 1002ada8     _MasterDataManager.obj
 0002:00007dc4       ??_R3IMasterDataManager080902@@8 1002adc4     _MasterDataManager.obj
 0002:00007dd4       ??_R2IMasterDataManager080902@@8 1002add4     _MasterDataManager.obj
 0002:00007de4       ??_R1A@?0A@EA@IMasterDataManager080902@@8 1002ade4     _MasterDataManager.obj
 0002:00007e00       ??_R4?$CList@PAVCMDM_SubItemA@@PAV1@@@6B@ 1002ae00     _MasterDataManager.obj
 0002:00007e14       ??_R3?$CList@PAVCMDM_SubItemA@@PAV1@@@8 1002ae14     _MasterDataManager.obj
 0002:00007e24       ??_R2?$CList@PAVCMDM_SubItemA@@PAV1@@@8 1002ae24     _MasterDataManager.obj
 0002:00007e30       ??_R1A@?0A@EA@?$CList@PAVCMDM_SubItemA@@PAV1@@@8 1002ae30     _MasterDataManager.obj
 0002:00007e4c       ??_R4?$CList@PAUST_STRINGBYTE@@PAU1@@@6B@ 1002ae4c     _MasterDataManager.obj
 0002:00007e60       ??_R3?$CList@PAUST_STRINGBYTE@@PAU1@@@8 1002ae60     _MasterDataManager.obj
 0002:00007e70       ??_R2?$CList@PAUST_STRINGBYTE@@PAU1@@@8 1002ae70     _MasterDataManager.obj
 0002:00007e7c       ??_R1A@?0A@EA@?$CList@PAUST_STRINGBYTE@@PAU1@@@8 1002ae7c     _MasterDataManager.obj
 0002:00007e98       ??_R4?$CList@PAUST_STRINGSTRING@@PAU1@@@6B@ 1002ae98     _MasterDataManager.obj
 0002:00007eac       ??_R3?$CList@PAUST_STRINGSTRING@@PAU1@@@8 1002aeac     _MasterDataManager.obj
 0002:00007ebc       ??_R2?$CList@PAUST_STRINGSTRING@@PAU1@@@8 1002aebc     _MasterDataManager.obj
 0002:00007ec8       ??_R1A@?0A@EA@?$CList@PAUST_STRINGSTRING@@PAU1@@@8 1002aec8     _MasterDataManager.obj
 0002:00007ee4       ??_R4CMasterDataManager@@6B@ 1002aee4     _MasterDataManager.obj
 0002:00007ef8       ??_R3CMasterDataManager@@8 1002aef8     _MasterDataManager.obj
 0002:00007f08       ??_R2CMasterDataManager@@8 1002af08     _MasterDataManager.obj
 0002:00007f1c       ??_R1A@?0A@EA@CMasterDataManager@@8 1002af1c     _MasterDataManager.obj
 0002:00007f38       ??_R4?$CMap@V?$CStringT@DV?$StrTraitMFC_DLL@DV?$ChTraitsCRT@D@ATL@@@@@ATL@@PBDHH@@6B@ 1002af38     _MasterDataManager.obj
 0002:00007f4c       ??_R3?$CMap@V?$CStringT@DV?$StrTraitMFC_DLL@DV?$ChTraitsCRT@D@ATL@@@@@ATL@@PBDHH@@8 1002af4c     _MasterDataManager.obj
 0002:00007f5c       ??_R2?$CMap@V?$CStringT@DV?$StrTraitMFC_DLL@DV?$ChTraitsCRT@D@ATL@@@@@ATL@@PBDHH@@8 1002af5c     _MasterDataManager.obj
 0002:00007f68       ??_R1A@?0A@EA@?$CMap@V?$CStringT@DV?$StrTraitMFC_DLL@DV?$ChTraitsCRT@D@ATL@@@@@ATL@@PBDHH@@8 1002af68     _MasterDataManager.obj
 0002:00007f84       ??_R3INewsSignalManager@@8 1002af84     _NewSignalManager.obj
 0002:00007f94       ??_R2INewsSignalManager@@8 1002af94     _NewSignalManager.obj
 0002:00007f9c       ??_R1A@?0A@EA@INewsSignalManager@@8 1002af9c     _NewSignalManager.obj
 0002:00007fb8       ??_R4?$CList@PAUST_NewsSignalMng@@PAU1@@@6B@ 1002afb8     _NewSignalManager.obj
 0002:00007fcc       ??_R3?$CList@PAUST_NewsSignalMng@@PAU1@@@8 1002afcc     _NewSignalManager.obj
 0002:00007fdc       ??_R2?$CList@PAUST_NewsSignalMng@@PAU1@@@8 1002afdc     _NewSignalManager.obj
 0002:00007fe8       ??_R1A@?0A@EA@?$CList@PAUST_NewsSignalMng@@PAU1@@@8 1002afe8     _NewSignalManager.obj
 0002:00008004       ??_R4CNewsSignalManager@@6B@ 1002b004     _NewSignalManager.obj
 0002:00008018       ??_R3CNewsSignalManager@@8 1002b018     _NewSignalManager.obj
 0002:00008028       ??_R2CNewsSignalManager@@8 1002b028     _NewSignalManager.obj
 0002:00008034       ??_R1A@?0A@EA@CNewsSignalManager@@8 1002b034     _NewSignalManager.obj
 0002:00008050       ??_R3IPCTRManager@@8       1002b050     _PCTrManager.obj
 0002:00008060       ??_R2IPCTRManager@@8       1002b060     _PCTrManager.obj
 0002:00008068       ??_R1A@?0A@EA@IPCTRManager@@8 1002b068     _PCTrManager.obj
 0002:00008084       ??_R4CPCTRManager@@6B@     1002b084     _PCTrManager.obj
 0002:00008098       ??_R3CPCTRManager@@8       1002b098     _PCTrManager.obj
 0002:000080a8       ??_R2CPCTRManager@@8       1002b0a8     _PCTrManager.obj
 0002:000080b4       ??_R1A@?0A@EA@CPCTRManager@@8 1002b0b4     _PCTrManager.obj
 0002:000080d0       ??_R4?$CArray@UST_SKININFO@@U1@@@6B@ 1002b0d0     _SkinColorManager.obj
 0002:000080e4       ??_R3?$CArray@UST_SKININFO@@U1@@@8 1002b0e4     _SkinColorManager.obj
 0002:000080f4       ??_R2?$CArray@UST_SKININFO@@U1@@@8 1002b0f4     _SkinColorManager.obj
 0002:00008100       ??_R1A@?0A@EA@?$CArray@UST_SKININFO@@U1@@@8 1002b100     _SkinColorManager.obj
 0002:0000811c       ??_R3ISkinColorManager@@8  1002b11c     _SkinColorManager.obj
 0002:0000812c       ??_R2ISkinColorManager@@8  1002b12c     _SkinColorManager.obj
 0002:00008134       ??_R1A@?0A@EA@ISkinColorManager@@8 1002b134     _SkinColorManager.obj
 0002:00008150       ??_R4?$CArray@U_tabUserColorTable@@U1@@@6B@ 1002b150     _SkinColorManager.obj
 0002:00008164       ??_R3?$CArray@U_tabUserColorTable@@U1@@@8 1002b164     _SkinColorManager.obj
 0002:00008174       ??_R2?$CArray@U_tabUserColorTable@@U1@@@8 1002b174     _SkinColorManager.obj
 0002:00008180       ??_R1A@?0A@EA@?$CArray@U_tabUserColorTable@@U1@@@8 1002b180     _SkinColorManager.obj
 0002:0000819c       ??_R4?$CList@PAUISkinColorSite@@PAU1@@@6B@ 1002b19c     _SkinColorManager.obj
 0002:000081b0       ??_R3?$CList@PAUISkinColorSite@@PAU1@@@8 1002b1b0     _SkinColorManager.obj
 0002:000081c0       ??_R2?$CList@PAUISkinColorSite@@PAU1@@@8 1002b1c0     _SkinColorManager.obj
 0002:000081cc       ??_R1A@?0A@EA@?$CList@PAUISkinColorSite@@PAU1@@@8 1002b1cc     _SkinColorManager.obj
 0002:000081e8       ??_R4CSkinColorManager@@6B@ 1002b1e8     _SkinColorManager.obj
 0002:000081fc       ??_R3CSkinColorManager@@8  1002b1fc     _SkinColorManager.obj
 0002:0000820c       ??_R2CSkinColorManager@@8  1002b20c     _SkinColorManager.obj
 0002:00008218       ??_R1A@?0A@EA@CSkinColorManager@@8 1002b218     _SkinColorManager.obj
 0002:00008234       ??_R3ITrComm@@8            1002b234     _TRCommManager.obj
 0002:00008244       ??_R2ITrComm@@8            1002b244     _TRCommManager.obj
 0002:0000824c       ??_R1A@?0A@EA@ITrComm@@8   1002b24c     _TRCommManager.obj
 0002:00008268       ??_R3ITrComm2@@8           1002b268     _TRCommManager.obj
 0002:00008278       ??_R2ITrComm2@@8           1002b278     _TRCommManager.obj
 0002:00008284       ??_R1A@?0A@EA@ITrComm2@@8  1002b284     _TRCommManager.obj
 0002:000082a0       ??_R3IAUTrCommManager@@8   1002b2a0     _TRCommManager.obj
 0002:000082b0       ??_R2IAUTrCommManager@@8   1002b2b0     _TRCommManager.obj
 0002:000082b8       ??_R1A@?0A@EA@IAUTrCommManager@@8 1002b2b8     _TRCommManager.obj
 0002:000082d4       ??_R4CTRComm@@6B@          1002b2d4     _TRCommManager.obj
 0002:000082e8       ??_R3CTRComm@@8            1002b2e8     _TRCommManager.obj
 0002:000082f8       ??_R2CTRComm@@8            1002b2f8     _TRCommManager.obj
 0002:0000830c       ??_R1A@?0A@EA@CTRComm@@8   1002b30c     _TRCommManager.obj
 0002:00008328       ??_R4CTrCommImpl@@6B@      1002b328     _TRCommManager.obj
 0002:0000833c       ??_R3CTrCommImpl@@8        1002b33c     _TRCommManager.obj
 0002:0000834c       ??_R2CTrCommImpl@@8        1002b34c     _TRCommManager.obj
 0002:0000835c       ??_R1A@?0A@EA@CTrCommImpl@@8 1002b35c     _TRCommManager.obj
 0002:00008378       ??_R4?$CList@PAVCTrCommImpl@@PAV1@@@6B@ 1002b378     _TRCommManager.obj
 0002:0000838c       ??_R3?$CList@PAVCTrCommImpl@@PAV1@@@8 1002b38c     _TRCommManager.obj
 0002:0000839c       ??_R2?$CList@PAVCTrCommImpl@@PAV1@@@8 1002b39c     _TRCommManager.obj
 0002:000083a8       ??_R1A@?0A@EA@?$CList@PAVCTrCommImpl@@PAV1@@@8 1002b3a8     _TRCommManager.obj
 0002:000083c4       ??_R4CTrCommManager@@6B@   1002b3c4     _TRCommManager.obj
 0002:000083d8       ??_R3CTrCommManager@@8     1002b3d8     _TRCommManager.obj
 0002:000083e8       ??_R2CTrCommManager@@8     1002b3e8     _TRCommManager.obj
 0002:000083f4       ??_R1A@?0A@EA@CTrCommManager@@8 1002b3f4     _TRCommManager.obj
 0002:00008410       ??_R3CNoTrackObject@@8     1002b410     mfcs140:dllmodul.obj
 0002:00008420       ??_R2CNoTrackObject@@8     1002b420     mfcs140:dllmodul.obj
 0002:00008428       ??_R1A@?0A@EA@CNoTrackObject@@8 1002b428     mfcs140:dllmodul.obj
 0002:00008444       ??_R4_AFX_DLL_MODULE_STATE@@6B@ 1002b444     mfcs140:dllmodul.obj
 0002:00008458       ??_R3_AFX_DLL_MODULE_STATE@@8 1002b458     mfcs140:dllmodul.obj
 0002:00008468       ??_R2_AFX_DLL_MODULE_STATE@@8 1002b468     mfcs140:dllmodul.obj
 0002:00008478       ??_R1A@?0A@EA@_AFX_DLL_MODULE_STATE@@8 1002b478     mfcs140:dllmodul.obj
 0002:00008494       ??_R1A@?0A@EA@AFX_MODULE_STATE@@8 1002b494     mfcs140:dllmodul.obj
 0002:000084b0       ??_R3AFX_MODULE_STATE@@8   1002b4b0     mfcs140:dllmodul.obj
 0002:000084c0       ??_R2AFX_MODULE_STATE@@8   1002b4c0     mfcs140:dllmodul.obj
 0002:000084cc       ??_R4type_info@@6B@        1002b4cc     msvcrt:std_type_info_static.obj
 0002:000084e0       ??_R3type_info@@8          1002b4e0     msvcrt:std_type_info_static.obj
 0002:000084f0       ??_R2type_info@@8          1002b4f0     msvcrt:std_type_info_static.obj
 0002:000084f8       ??_R1A@?0A@EA@type_info@@8 1002b4f8     msvcrt:std_type_info_static.obj
 0002:00008514       ___safe_se_handler_table   1002b514     <linker-defined>
 0002:00008740       ___volatile_metadata       1002b740     <linker-defined>
 0002:00008ba4       ___rtc_iaa                 1002bba4     msvcrt:initsect.obj
 0002:00008ba8       ___rtc_izz                 1002bba8     msvcrt:initsect.obj
 0002:00008bac       ___rtc_taa                 1002bbac     msvcrt:initsect.obj
 0002:00008bb0       ___rtc_tzz                 1002bbb0     msvcrt:initsect.obj
 0002:00008bb4       __tls_start                1002bbb4     msvcrt:tlssup.obj
 0002:00008bb8       __Init_thread_epoch        1002bbb8     msvcrt:thread_safe_statics.obj
 0002:00008bbc       __tls_end                  1002bbbc     msvcrt:tlssup.obj
 0002:0000aad4       ___pobjMapEntryFirst       1002dad4     StdAfx.obj
 0002:0000aad8       ___pobjMapEntryLast        1002dad8     StdAfx.obj
 0002:0000ab74       __IMPORT_DESCRIPTOR_mfc140 1002db74     mfc140:mfc140.dll
 0002:0000ab88       __IMPORT_DESCRIPTOR_KERNEL32 1002db88     kernel32:KERNEL32.dll
 0002:0000ab9c       __IMPORT_DESCRIPTOR_USER32 1002db9c     user32:USER32.dll
 0002:0000abb0       __IMPORT_DESCRIPTOR_GDI32  1002dbb0     gdi32:GDI32.dll
 0002:0000abc4       __IMPORT_DESCRIPTOR_ADVAPI32 1002dbc4     advapi32:ADVAPI32.dll
 0002:0000abd8       __IMPORT_DESCRIPTOR_ole32  1002dbd8     ole32:ole32.dll
 0002:0000abec       __IMPORT_DESCRIPTOR_OLEAUT32 1002dbec     oleaut32:OLEAUT32.dll
 0002:0000ac00       __IMPORT_DESCRIPTOR_VCRUNTIME140 1002dc00     vcruntime:VCRUNTIME140.dll
 0002:0000ac14       __IMPORT_DESCRIPTOR_api-ms-win-crt-stdio-l1-1-0 1002dc14     ucrt:api-ms-win-crt-stdio-l1-1-0.dll
 0002:0000ac28       __IMPORT_DESCRIPTOR_api-ms-win-crt-convert-l1-1-0 1002dc28     ucrt:api-ms-win-crt-convert-l1-1-0.dll
 0002:0000ac3c       __IMPORT_DESCRIPTOR_api-ms-win-crt-time-l1-1-0 1002dc3c     ucrt:api-ms-win-crt-time-l1-1-0.dll
 0002:0000ac50       __IMPORT_DESCRIPTOR_api-ms-win-crt-filesystem-l1-1-0 1002dc50     ucrt:api-ms-win-crt-filesystem-l1-1-0.dll
 0002:0000ac64       __IMPORT_DESCRIPTOR_api-ms-win-crt-heap-l1-1-0 1002dc64     ucrt:api-ms-win-crt-heap-l1-1-0.dll
 0002:0000ac78       __IMPORT_DESCRIPTOR_api-ms-win-crt-string-l1-1-0 1002dc78     ucrt:api-ms-win-crt-string-l1-1-0.dll
 0002:0000ac8c       __IMPORT_DESCRIPTOR_api-ms-win-crt-utility-l1-1-0 1002dc8c     ucrt:api-ms-win-crt-utility-l1-1-0.dll
 0002:0000aca0       __IMPORT_DESCRIPTOR_api-ms-win-crt-runtime-l1-1-0 1002dca0     ucrt:api-ms-win-crt-runtime-l1-1-0.dll
 0002:0000acb4       __NULL_IMPORT_DESCRIPTOR   1002dcb4     mfc140:mfc140.dll
 0003:00000000       ?m_osInterfaceName@CDispDesk@@2PAPA_WA 1002f000     DispDesk.obj
 0003:000001d0       ?m_osInterfaceName@CDispFormData@@2PAPA_WA 1002f1d0     DispFormData.obj
 0003:00000248       ?m_osInterfaceName@CDispFormOpen@@2PAPA_WA 1002f248     DispFormOpen.obj
 0003:0000027c       ?m_osInterfaceName@CDispFrame@@2PAPA_WA 1002f27c     DispFrame.obj
 0003:00000298       ?m_osInterfaceName@CDispMain@@2PAPA_WA 1002f298     DispMain.obj
 0003:000003b0       ?m_osInterfaceName@CDispPrimLib@@2PAPA_WA 1002f3b0     DispPrimLib.obj
 0003:0000041c       ?m_osInterfaceName@CDispView@@2PAPA_WA 1002f41c     DispView.obj
 0003:00000430       ?m_osInterfaceName@CDispCodeOcx@@2PAPA_WA 1002f430     CodeOcx.obj
 0003:000004ac       __pIncludeInitManaged      1002f4ac     StdAfx.obj
 0003:000004b0       ?_AtlComModule@ATL@@3VCAtlComModule@1@A 1002f4b0     StdAfx.obj
 0003:000004d8       ?_AtlWinModule@ATL@@3VCAtlWinModule@1@A 1002f4d8     StdAfx.obj
 0003:00000504       ?sPipeName@@3PBDB          1002f504     Tracer.obj
 0003:00000508       ?gOffSize@@3HA             1002f508     TrComm.obj
 0003:0000050c       ?gUniqueID@@3HA            1002f50c     TrComm.obj
 0003:00000510       ?g_pszCFTiesCode@@3PAPADA  1002f510     _MasterDataManager.obj
 0003:00000528       ?g_pszCFTiesName@@3PAPADA  1002f528     _MasterDataManager.obj
 0003:00000540       ?g_pszSFTiesCode@@3PAPADA  1002f540     _MasterDataManager.obj
 0003:000005a8       ?g_pszSFTiesName@@3PAPADA  1002f5a8     _MasterDataManager.obj
 0003:00000610       _WinbaseIsolationAwarePrivateT_UnPgpgk 1002f610     mfcs140:nolib.obj
 0003:00000614       ___security_cookie_complement 1002f614     msvcrt:gs_cookie.obj
 0003:00000618       ___security_cookie         1002f618     msvcrt:gs_cookie.obj
 0003:0000061c       __fltused                  1002f61c     msvcrt:fltused.obj
 0003:00000620       ___scrt_native_dllmain_reason 1002f620     msvcrt:utility.obj
 0003:00000624       __Init_global_epoch        1002f624     msvcrt:thread_safe_statics.obj
 0003:00000630       ___isa_enabled             1002f630     msvcrt:cpu_disp.obj
 0003:00000634       ___scrt_ucrt_dll_is_in_use 1002f634     msvcrt:ucrt_stubs.obj
 0003:00000638       ??_R0PAVCMemoryException@@@8 1002f638     mfcs140:dllmodul.obj
 0003:00000658       ??_R0?AVCControlPos@@@8    1002f658     ControlPos.obj
 0003:00000674       ??_R0?AUIRegistryManager@@@8 1002f674     EtcUtil.obj
 0003:00000694       ??_R0?AVCRegistryManager@@@8 1002f694     EtcUtil.obj
 0003:000006b4       ??_R0?AVCObject@@@8        1002f6b4     GwanWnd.obj
 0003:000006cc       ??_R0?AVCWnd@@@8           1002f6cc     GwanWnd.obj
 0003:000006e0       ??_R0?AVCCmdTarget@@@8     1002f6e0     GwanWnd.obj
 0003:000006fc       ??_R0?AVCGwanWnd@@@8       1002f6fc     GwanWnd.obj
 0003:00000714       ??_R0?AVCNewsMoniterWnd@@@8 1002f714     NewsMoniterWnd.obj
 0003:00000734       ??_R0?AVCPCtrMainWnd@@@8   1002f734     PCtrMainWnd.obj
 0003:00000750       ??_R0?AUIGateManager@@@8   1002f750     PcTrMng.obj
 0003:0000076c       ??_R0?AUIDataUtilManager@@@8 1002f76c     PcTrMng.obj
 0003:0000078c       ??_R0?AUIDataUtilManager2@@@8 1002f78c     PcTrMng.obj
 0003:000007ac       ??_R0?AUISTManager@@@8     1002f7ac     PcTrMng.obj
 0003:000007c8       ??_R0?AUISystemUtilManager@@@8 1002f7c8     PcTrMng.obj
 0003:000007ec       ??_R0?AUISystemUtilManager2@@@8 1002f7ec     PcTrMng.obj
 0003:00000810       ??_R0?AVCGateManager@@@8   1002f810     PcTrMng.obj
 0003:0000082c       ??_R0?AVCDataUtilManager@@@8 1002f82c     PcTrMng.obj
 0003:0000084c       ??_R0?AV?$CList@PAVCSTManager_Info@@PAV1@@@@8 1002f84c     PcTrMng.obj
 0003:0000087c       ??_R0?AVCSTManager@@@8     1002f87c     PcTrMng.obj
 0003:00000898       ??_R0?AVCSystemUtilManager@@@8 1002f898     PcTrMng.obj
 0003:000008bc       ??_R0?AVCPcTrMngApp@@@8    1002f8bc     PcTrMng.obj
 0003:000008d8       ??_R0?AVCWinApp@@@8        1002f8d8     PcTrMng.obj
 0003:000008f0       ??_R0?AVCWinThread@@@8     1002f8f0     PcTrMng.obj
 0003:0000090c       ??_R0?AVCWin32Heap@ATL@@@8 1002f90c     StdAfx.obj
 0003:0000092c       ??_R0?AUIAtlMemMgr@ATL@@@8 1002f92c     StdAfx.obj
 0003:0000094c       ??_R0?AUIAtlStringMgr@ATL@@@8 1002f94c     StdAfx.obj
 0003:0000096c       ??_R0?AVCAtlStringMgr@ATL@@@8 1002f96c     StdAfx.obj
 0003:0000098c       ??_R0?AVCTracer@@@8        1002f98c     Tracer.obj
 0003:000009a4       ??_R0?AUICompanyManager@@@8 1002f9a4     _CompanyManager.obj
 0003:000009c4       ??_R0?AUICompanyManager_SS@@@8 1002f9c4     _CompanyManager.obj
 0003:000009e8       ??_R0?AVCCompanyManager@@@8 1002f9e8     _CompanyManager.obj
 0003:00000a08       ??_R0?AUIAUDataMonitorManager@@@8 1002fa08     _DataMonitorManager.obj
 0003:00000a2c       ??_R0?AV?$CList@VCDMMngInfo@@V1@@@@8 1002fa2c     _DataMonitorManager.obj
 0003:00000a54       ??_R0?AVCAUDataMonitorManager@@@8 1002fa54     _DataMonitorManager.obj
 0003:00000a78       ??_R0?AUIDebugManager@@@8  1002fa78     _DebugManager.obj
 0003:00000a94       ??_R0?AUIDebugManager2@@@8 1002fa94     _DebugManager.obj
 0003:00000ab4       ??_R0?AUIDebugManager3@@@8 1002fab4     _DebugManager.obj
 0003:00000ad4       ??_R0?AVCDebugManager@@@8  1002fad4     _DebugManager.obj
 0003:00000af0       ??_R0?AUIDrdsLib@@@8       1002faf0     _DrdsManager.obj
 0003:00000b08       ??_R0?AUIAUDrdsManager@@@8 1002fb08     _DrdsManager.obj
 0003:00000b28       ??_R0?AV?$CList@PAUIDrdsLib@@PAU1@@@@8 1002fb28     _DrdsManager.obj
 0003:00000b54       ??_R0?AVCAUDrdsManager@@@8 1002fb54     _DrdsManager.obj
 0003:00000b74       ??_R0?AVCDrdsLib@@@8       1002fb74     _DrdsManager.obj
 0003:00000b8c       ??_R0?AUIBaseDataDB@@@8    1002fb8c     _MainExInfoManager.obj
 0003:00000ba8       ??_R0?AVCCriticalSection@@@8 1002fba8     _MainExInfoManager.obj
 0003:00000bc8       ??_R0?AVCSyncObject@@@8    1002fbc8     _MainExInfoManager.obj
 0003:00000be4       ??_R0?AUIMainExInfoManager@@@8 1002fbe4     _MainExInfoManager.obj
 0003:00000c08       ??_R0?AUIMainExInfoManager2@@@8 1002fc08     _MainExInfoManager.obj
 0003:00000c2c       ??_R0?AUIMainExInfoManager3@@@8 1002fc2c     _MainExInfoManager.obj
 0003:00000c50       ??_R0?AV?$CList@PAUST_FOR_UserData@@PAU1@@@@8 1002fc50     _MainExInfoManager.obj
 0003:00000c80       ??_R0?AVCMainExInfoManager@@@8 1002fc80     _MainExInfoManager.obj
 0003:00000ca4       ??_R0?AV?$CList@UTR_CODEINFOEX@@U1@@@@8 1002fca4     _MainExInfoManager.obj
 0003:00000cd0       ??_R0?AUIBaseDataString@@@8 1002fcd0     _MainInfoManager.obj
 0003:00000cf0       ??_R0?AUIMainInfoManager@@@8 1002fcf0     _MainInfoManager.obj
 0003:00000d10       ??_R0?AVCMainInfoManager@@@8 1002fd10     _MainInfoManager.obj
 0003:00000d30       ??_R0?AUIMasterDataManagerBase@@@8 1002fd30     _MasterDataManager.obj
 0003:00000d58       ??_R0?AUIMasterDataManager@@@8 1002fd58     _MasterDataManager.obj
 0003:00000d7c       ??_R0?AUIMasterDataManager080902@@@8 1002fd7c     _MasterDataManager.obj
 0003:00000da4       ??_R0?AV?$CList@PAVCMDM_SubItemA@@PAV1@@@@8 1002fda4     _MasterDataManager.obj
 0003:00000dd4       ??_R0?AV?$CList@PAUST_STRINGBYTE@@PAU1@@@@8 1002fdd4     _MasterDataManager.obj
 0003:00000e04       ??_R0?AV?$CList@PAUST_STRINGSTRING@@PAU1@@@@8 1002fe04     _MasterDataManager.obj
 0003:00000e34       ??_R0?AVCMasterDataManager@@@8 1002fe34     _MasterDataManager.obj
 0003:00000e58       ??_R0?AV?$CMap@V?$CStringT@DV?$StrTraitMFC_DLL@DV?$ChTraitsCRT@D@ATL@@@@@ATL@@PBDHH@@@8 1002fe58     _MasterDataManager.obj
 0003:00000eb4       ??_R0?AUINewsSignalManager@@@8 1002feb4     _NewSignalManager.obj
 0003:00000ed8       ??_R0?AV?$CList@PAUST_NewsSignalMng@@PAU1@@@@8 1002fed8     _NewSignalManager.obj
 0003:00000f0c       ??_R0?AVCNewsSignalManager@@@8 1002ff0c     _NewSignalManager.obj
 0003:00000f30       ??_R0?AUIPCTRManager@@@8   1002ff30     _PCTrManager.obj
 0003:00000f4c       ??_R0?AVCPCTRManager@@@8   1002ff4c     _PCTrManager.obj
 0003:00000f68       ??_R0?AV?$CArray@UST_SKININFO@@U1@@@@8 1002ff68     _SkinColorManager.obj
 0003:00000f94       ??_R0?AUISkinColorManager@@@8 1002ff94     _SkinColorManager.obj
 0003:00000fb4       ??_R0?AV?$CArray@U_tabUserColorTable@@U1@@@@8 1002ffb4     _SkinColorManager.obj
 0003:00000fe4       ??_R0?AV?$CList@PAUISkinColorSite@@PAU1@@@@8 1002ffe4     _SkinColorManager.obj
 0003:00001014       ??_R0?AVCSkinColorManager@@@8 10030014     _SkinColorManager.obj
 0003:00001034       ??_R0?AUITrComm@@@8        10030034     _TRCommManager.obj
 0003:0000104c       ??_R0?AUITrComm2@@@8       1003004c     _TRCommManager.obj
 0003:00001064       ??_R0?AUIAUTrCommManager@@@8 10030064     _TRCommManager.obj
 0003:00001084       ??_R0?AVCTRComm@@@8        10030084     _TRCommManager.obj
 0003:0000109c       ??_R0?AVCTrCommImpl@@@8    1003009c     _TRCommManager.obj
 0003:000010b8       ??_R0?AV?$CList@PAVCTrCommImpl@@PAV1@@@@8 100300b8     _TRCommManager.obj
 0003:000010e4       ??_R0?AVCTrCommManager@@@8 100300e4     _TRCommManager.obj
 0003:00001104       ??_R0?AVCNoTrackObject@@@8 10030104     mfcs140:dllmodul.obj
 0003:00001124       ??_R0?AV_AFX_DLL_MODULE_STATE@@@8 10030124     mfcs140:dllmodul.obj
 0003:00001148       ??_R0?AVAFX_MODULE_STATE@@@8 10030148     mfcs140:dllmodul.obj
 0003:00001168       ??_R0?AVtype_info@@@8      10030168     msvcrt:std_type_info_static.obj
 0003:000011d8       ?_OptionsStorage@?1??__local_stdio_printf_options@@9@4_KA 100301d8     PcTrMng.obj
 0003:000011f8       ?theApp@@3VCPcTrMngApp@@A  100301f8     PcTrMng.obj
 0003:000016b8       ___@@_PchSym_@00@UtrgUhixUrypUrypPwiumUKxwwiumRxhUPlyqUkxginmtUhgwzucOlyq@4B2008FD98C1DD4 100306b8     StdAfx.obj
 0003:000016bc       ?strHeap@?1??GetInstance@CAtlStringMgr@ATL@@SAPAUIAtlStringMgr@3@XZ@4VCWin32Heap@3@A 100306bc     StdAfx.obj
 0003:000016c8       ?$TSS0@?1??GetInstance@CAtlStringMgr@ATL@@SAPAUIAtlStringMgr@3@XZ@4HA 100306c8     StdAfx.obj
 0003:000016cc       ?strMgr@?1??GetInstance@CAtlStringMgr@ATL@@SAPAUIAtlStringMgr@3@XZ@4V23@A 100306cc     StdAfx.obj
 0003:000016e8       ?$TSS1@?1??GetInstance@CAtlStringMgr@ATL@@SAPAUIAtlStringMgr@3@XZ@4HA 100306e8     StdAfx.obj
 0003:000016ec       ?m_bInitFailed@CAtlBaseModule@ATL@@2_NA 100306ec     StdAfx.obj
 0003:000016f0       ?_pPerfRegFunc@ATL@@3P6AJPAUHINSTANCE__@@@ZA 100306f0     StdAfx.obj
 0003:000016f4       ?_pPerfUnRegFunc@ATL@@3P6AJXZA 100306f4     StdAfx.obj
 0003:000016f8       ?_AtlRegisterPerUser@ATL@@3_NA 100306f8     StdAfx.obj
 0003:000016fc       ?_pAtlModule@ATL@@3PAVCAtlModule@1@A 100306fc     StdAfx.obj
 0003:00001700       ?_pModule@ATL@@3PAVCComModule@1@A 10030700     StdAfx.obj
 0003:00001704       ?_pAtlAutoThreadModule@ATL@@3PAUIAtlAutoThreadModule@1@A 10030704     StdAfx.obj
 0003:00001708       ?atlTraceGeneral@ATL@@3V?$CTraceCategoryEx@$00$0A@@1@A 10030708     StdAfx.obj
 0003:0000170c       ?atlTraceCOM@ATL@@3V?$CTraceCategoryEx@$01$0A@@1@A 1003070c     StdAfx.obj
 0003:00001710       ?atlTraceQI@ATL@@3V?$CTraceCategoryEx@$03$0A@@1@A 10030710     StdAfx.obj
 0003:00001714       ?atlTraceRegistrar@ATL@@3V?$CTraceCategoryEx@$07$0A@@1@A 10030714     StdAfx.obj
 0003:00001718       ?atlTraceRefcount@ATL@@3V?$CTraceCategoryEx@$0BA@$0A@@1@A 10030718     StdAfx.obj
 0003:0000171c       ?atlTraceWindowing@ATL@@3V?$CTraceCategoryEx@$0CA@$0A@@1@A 1003071c     StdAfx.obj
 0003:00001720       ?atlTraceControls@ATL@@3V?$CTraceCategoryEx@$0EA@$0A@@1@A 10030720     StdAfx.obj
 0003:00001724       ?atlTraceHosting@ATL@@3V?$CTraceCategoryEx@$0IA@$0A@@1@A 10030724     StdAfx.obj
 0003:00001728       ?atlTraceDBClient@ATL@@3V?$CTraceCategoryEx@$0BAA@$0A@@1@A 10030728     StdAfx.obj
 0003:0000172c       ?atlTraceDBProvider@ATL@@3V?$CTraceCategoryEx@$0CAA@$0A@@1@A 1003072c     StdAfx.obj
 0003:00001730       ?atlTraceSnapin@ATL@@3V?$CTraceCategoryEx@$0EAA@$0A@@1@A 10030730     StdAfx.obj
 0003:00001734       ?atlTraceNotImpl@ATL@@3V?$CTraceCategoryEx@$0IAA@$0A@@1@A 10030734     StdAfx.obj
 0003:00001738       ?atlTraceAllocation@ATL@@3V?$CTraceCategoryEx@$0BAAA@$0A@@1@A 10030738     StdAfx.obj
 0003:0000173c       ?atlTraceException@ATL@@3V?$CTraceCategoryEx@$0CAAA@$0A@@1@A 1003073c     StdAfx.obj
 0003:00001740       ?atlTraceTime@ATL@@3V?$CTraceCategoryEx@$0EAAA@$0A@@1@A 10030740     StdAfx.obj
 0003:00001744       ?atlTraceCache@ATL@@3V?$CTraceCategoryEx@$0IAAA@$0A@@1@A 10030744     StdAfx.obj
 0003:00001748       ?atlTraceStencil@ATL@@3V?$CTraceCategoryEx@$0BAAAA@$0A@@1@A 10030748     StdAfx.obj
 0003:0000174c       ?atlTraceString@ATL@@3V?$CTraceCategoryEx@$0CAAAA@$0A@@1@A 1003074c     StdAfx.obj
 0003:00001750       ?atlTraceMap@ATL@@3V?$CTraceCategoryEx@$0EAAAA@$0A@@1@A 10030750     StdAfx.obj
 0003:00001754       ?atlTraceUtil@ATL@@3V?$CTraceCategoryEx@$0IAAAA@$0A@@1@A 10030754     StdAfx.obj
 0003:00001758       ?atlTraceSecurity@ATL@@3V?$CTraceCategoryEx@$0BAAAAA@$0A@@1@A 10030758     StdAfx.obj
 0003:0000175c       ?atlTraceSync@ATL@@3V?$CTraceCategoryEx@$0CAAAAA@$0A@@1@A 1003075c     StdAfx.obj
 0003:00001760       ?atlTraceISAPI@ATL@@3V?$CTraceCategoryEx@$0EAAAAA@$0A@@1@A 10030760     StdAfx.obj
 0003:00001764       ?isInitialized@CAtlStringMgr@ATL@@0_NA 10030764     StdAfx.obj
 0003:00001765       ?InitializeCAtlStringMgr@ATLImplementationDetails@ATL@@3UCAtlStringMgrStaticInitializer@12@A 10030765     StdAfx.obj
 0003:00001768       ?_OptionsStorage@?1??__local_stdio_scanf_options@@9@4_KA 10030768     TrComm.obj
 0003:000017ec       ?m_uRMSG_HandleToDebug@@3IA 100307ec     _DebugManager.obj
 0003:00001850       ?gHtsMode@@3PADA           10030850     _MainInfoManager.obj
 0003:00001934       _IsolationAwarePrivateT_SqbjaYRiRY 10030934     mfcs140:nolib.obj
 0003:00001938       _IsolationAwarePrivateT_SAbnPgpgk 10030938     mfcs140:nolib.obj
 0003:0000193c       _WinbaseIsolationAwarePrivateT_SpeRNgRQnPgpgk 1003093c     mfcs140:nolib.obj
 0003:00001940       _WinbaseIsolationAwarePrivateT_SpYRNahcpNYYRQ 10030940     mfcs140:nolib.obj
 0003:00001944       __afxForceEXCLUDE          10030944     mfcs140:nolib.obj
 0003:00001948       ?s_pfn@?1??IsolationAwareCreateActCtxW@@9@4@4P6GPAXPBUtagACTCTXW@@@ZA 10030948     mfcs140:nolib.obj
 0003:0000194c       ?s_pfn@?1??IsolationAwareActivateActCtx@@9@8@4P6GHPAXPAK@ZA 1003094c     mfcs140:nolib.obj
 0003:00001950       ?s_pfn@?1??IsolationAwareDeactivateActCtx@@9@8@4P6GHKK@ZA 10030950     mfcs140:nolib.obj
 0003:00001954       ?s_pfn@?1??IsolationAwareFindActCtxSectionStringW@@9@20@4P6GHKPBU_GUID@@KPB_WPAUtagACTCTX_SECTION_KEYED_DATA@@@ZA 10030954     mfcs140:nolib.obj
 0003:00001958       ?s_pfn@?1??IsolationAwareQueryActCtxW@@9@28@4P6GHKPAX0K0KPAK@ZA 10030958     mfcs140:nolib.obj
 0003:0000195c       ?m@?1??WinbaseIsolationAwarePrivatetRgCebPnQQeRff_xReaRYQP_QYY@@9@4@4UIsolationAwarePrivate_zHGnoyr_zBqHyr_vAsB@@A 1003095c     mfcs140:nolib.obj
 0003:00001960       ??_B?1??GetInstance@CAtlStringMgr@ATL@@SAPAUIAtlStringMgr@2@XZ@51 10030960     mfcs140:nolib.obj
 0003:00001968       __afxForceUSRDLL           10030968     mfcs140:dllmodul.obj
 0003:00001a20       ?__mixedModuleStartup@@3HA 10030a20     mfcs140:dllmodul.obj
 0003:00001a24       __afxForceSTDAFX           10030a24     mfcs140:stdafx.obj
 0003:00001a28       ___scrt_current_native_startup_state 10030a28     msvcrt:utility.obj
 0003:00001a2c       ___scrt_native_startup_lock 10030a2c     msvcrt:utility.obj
 0003:00001a74       __tls_index                10030a74     msvcrt:tlssup.obj
 0003:00001d98       ___castguard_check_failure_os_handled_fptr 10030d98     msvcrt:guard_support.obj
 0003:00001d9c       ___isa_available           10030d9c     msvcrt:cpu_disp.obj
 0003:00001da0       ___favor                   10030da0     msvcrt:cpu_disp.obj
 0003:00001da4       ___scrt_debugger_hook_flag 10030da4     msvcrt:utility_desktop.obj
 0003:00001da8       ?__type_info_root_node@@3U__type_info_node@@A 10030da8     msvcrt:tncleanup.obj
 0003:00001db0       ?_AtlBaseModule@ATL@@3VCAtlBaseModule@1@A 10030db0     atls:atlbase.obj
 0003:00001de8       ___@@_PchSym_@00@UzUPdlipUBUhUrmgvinvwrzgvUexgllohUzgohOmzgrevkilqPBACIAJCBDBUlyqiUcIGUhgwzucOlyq@4B2008FD98C1DD4 10030de8     atls:stdafx.obj
 0003:00001dec       ___dyn_tls_init_callback   10030dec     <common>

 entry point at        0001:0001d995

 Static symbols

 0000:fffca000       .debug$S                   10000000     PCTRMNG.exp
 0002:fffdd000       __ehfuncinfo$??1?$CList@PAVCSTManager_Info@@PAV1@@@UAE@XZ 10000000     _STManager.obj
 0001:fffff000       __ehhandler$??1?$CList@PAVCSTManager_Info@@PAV1@@@UAE@XZ 10000000 f   _STManager.obj
 0001:fffff000       __ehhandler$??_G?$CList@PAVCSTManager_Info@@PAV1@@@UAEPAXI@Z 10000000 f   _STManager.obj
 0002:fffdd000       __unwindtable$??_G?$CList@PAVCSTManager_Info@@PAV1@@@UAEPAXI@Z 10000000     _STManager.obj
 0002:fffdd000       __guard_fids_??__E_AtlBaseModule@ATL@@YAXXZ 10000000     atls:atlbase.obj
 0002:fffdd000       __guard_fids__             10000000     atls:atlbase.obj
 0000:fffca000       .debug$S                   10000000     mfc140:mfc140.dll
 0000:fffca000       .debug$S                   10000000     mfc140:mfc140.dll
 0000:fffca000       .debug$S                   10000000     mfc140:mfc140.dll
 0000:fffca000       .debug$S                   10000000     mfc140:mfc140.dll
 0000:fffca000       .debug$S                   10000000     mfc140:mfc140.dll
 0000:fffca000       .debug$S                   10000000     mfc140:mfc140.dll
 0000:fffca000       .debug$S                   10000000     mfc140:mfc140.dll
 0000:fffca000       .debug$S                   10000000     mfc140:mfc140.dll
 0000:fffca000       .debug$S                   10000000     mfc140:mfc140.dll
 0000:fffca000       .debug$S                   10000000     mfc140:mfc140.dll
 0000:fffca000       .debug$S                   10000000     mfc140:mfc140.dll
 0000:fffca000       .debug$S                   10000000     mfc140:mfc140.dll
 0000:fffca000       .debug$S                   10000000     mfc140:mfc140.dll
 0000:fffca000       .debug$S                   10000000     mfc140:mfc140.dll
 0000:fffca000       .debug$S                   10000000     mfc140:mfc140.dll
 0000:fffca000       .debug$S                   10000000     mfc140:mfc140.dll
 0000:fffca000       .debug$S                   10000000     mfc140:mfc140.dll
 0000:fffca000       .debug$S                   10000000     mfc140:mfc140.dll
 0000:fffca000       .debug$S                   10000000     mfc140:mfc140.dll
 0000:fffca000       .debug$S                   10000000     mfc140:mfc140.dll
 0000:fffca000       .debug$S                   10000000     mfc140:mfc140.dll
 0000:fffca000       .debug$S                   10000000     mfc140:mfc140.dll
 0000:fffca000       .debug$S                   10000000     mfc140:mfc140.dll
 0000:fffca000       .debug$S                   10000000     mfc140:mfc140.dll
 0000:fffca000       .debug$S                   10000000     mfc140:mfc140.dll
 0000:fffca000       .debug$S                   10000000     mfc140:mfc140.dll
 0000:fffca000       .debug$S                   10000000     mfc140:mfc140.dll
 0000:fffca000       .debug$S                   10000000     mfc140:mfc140.dll
 0000:fffca000       .debug$S                   10000000     mfc140:mfc140.dll
 0000:fffca000       .debug$S                   10000000     mfc140:mfc140.dll
 0000:fffca000       .debug$S                   10000000     mfc140:mfc140.dll
 0000:fffca000       .debug$S                   10000000     mfc140:mfc140.dll
 0000:fffca000       .debug$S                   10000000     mfc140:mfc140.dll
 0000:fffca000       .debug$S                   10000000     mfc140:mfc140.dll
 0000:fffca000       .debug$S                   10000000     mfc140:mfc140.dll
 0000:fffca000       .debug$S                   10000000     mfc140:mfc140.dll
 0000:fffca000       .debug$S                   10000000     mfc140:mfc140.dll
 0000:fffca000       .debug$S                   10000000     mfc140:mfc140.dll
 0000:fffca000       .debug$S                   10000000     mfc140:mfc140.dll
 0000:fffca000       .debug$S                   10000000     mfc140:mfc140.dll
 0000:fffca000       .debug$S                   10000000     mfc140:mfc140.dll
 0000:fffca000       .debug$S                   10000000     mfc140:mfc140.dll
 0000:fffca000       .debug$S                   10000000     mfc140:mfc140.dll
 0000:fffca000       .debug$S                   10000000     mfc140:mfc140.dll
 0000:fffca000       .debug$S                   10000000     mfc140:mfc140.dll
 0000:fffca000       .debug$S                   10000000     mfc140:mfc140.dll
 0000:fffca000       .debug$S                   10000000     mfc140:mfc140.dll
 0000:fffca000       .debug$S                   10000000     mfc140:mfc140.dll
 0000:fffca000       .debug$S                   10000000     mfc140:mfc140.dll
 0000:fffca000       .debug$S                   10000000     mfc140:mfc140.dll
 0000:fffca000       .debug$S                   10000000     mfc140:mfc140.dll
 0000:fffca000       .debug$S                   10000000     mfc140:mfc140.dll
 0000:fffca000       .debug$S                   10000000     mfc140:mfc140.dll
 0000:fffca000       .debug$S                   10000000     mfc140:mfc140.dll
 0000:fffca000       .debug$S                   10000000     mfc140:mfc140.dll
 0000:fffca000       .debug$S                   10000000     mfc140:mfc140.dll
 0000:fffca000       .debug$S                   10000000     mfc140:mfc140.dll
 0000:fffca000       .debug$S                   10000000     mfc140:mfc140.dll
 0000:fffca000       .debug$S                   10000000     mfc140:mfc140.dll
 0000:fffca000       .debug$S                   10000000     mfc140:mfc140.dll
 0000:fffca000       .debug$S                   10000000     mfc140:mfc140.dll
 0000:fffca000       .debug$S                   10000000     mfc140:mfc140.dll
 0000:fffca000       .debug$S                   10000000     mfc140:mfc140.dll
 0000:fffca000       .debug$S                   10000000     mfc140:mfc140.dll
 0000:fffca000       .debug$S                   10000000     mfc140:mfc140.dll
 0000:fffca000       .debug$S                   10000000     mfc140:mfc140.dll
 0000:fffca000       .debug$S                   10000000     mfc140:mfc140.dll
 0000:fffca000       .debug$S                   10000000     mfc140:mfc140.dll
 0000:fffca000       .debug$S                   10000000     mfc140:mfc140.dll
 0000:fffca000       .debug$S                   10000000     mfc140:mfc140.dll
 0000:fffca000       .debug$S                   10000000     mfc140:mfc140.dll
 0000:fffca000       .debug$S                   10000000     mfc140:mfc140.dll
 0000:fffca000       .debug$S                   10000000     mfc140:mfc140.dll
 0000:fffca000       .debug$S                   10000000     mfc140:mfc140.dll
 0000:fffca000       .debug$S                   10000000     mfc140:mfc140.dll
 0000:fffca000       .debug$S                   10000000     mfc140:mfc140.dll
 0000:fffca000       .debug$S                   10000000     mfc140:mfc140.dll
 0000:fffca000       .debug$S                   10000000     mfc140:mfc140.dll
 0000:fffca000       .debug$S                   10000000     mfc140:mfc140.dll
 0000:fffca000       .debug$S                   10000000     mfc140:mfc140.dll
 0000:fffca000       .debug$S                   10000000     mfc140:mfc140.dll
 0000:fffca000       .debug$S                   10000000     mfc140:mfc140.dll
 0000:fffca000       .debug$S                   10000000     mfc140:mfc140.dll
 0000:fffca000       .debug$S                   10000000     mfc140:mfc140.dll
 0000:fffca000       .debug$S                   10000000     mfc140:mfc140.dll
 0000:fffca000       .debug$S                   10000000     mfc140:mfc140.dll
 0000:fffca000       .debug$S                   10000000     mfc140:mfc140.dll
 0000:fffca000       .debug$S                   10000000     mfc140:mfc140.dll
 0000:fffca000       .debug$S                   10000000     mfc140:mfc140.dll
 0000:fffca000       .debug$S                   10000000     mfc140:mfc140.dll
 0000:fffca000       .debug$S                   10000000     mfc140:mfc140.dll
 0000:fffca000       .debug$S                   10000000     mfc140:mfc140.dll
 0000:fffca000       .debug$S                   10000000     mfc140:mfc140.dll
 0000:fffca000       .debug$S                   10000000     mfc140:mfc140.dll
 0000:fffca000       .debug$S                   10000000     mfc140:mfc140.dll
 0000:fffca000       .debug$S                   10000000     mfc140:mfc140.dll
 0000:fffca000       .debug$S                   10000000     mfc140:mfc140.dll
 0000:fffca000       .debug$S                   10000000     mfc140:mfc140.dll
 0000:fffca000       .debug$S                   10000000     mfc140:mfc140.dll
 0000:fffca000       .debug$S                   10000000     mfc140:mfc140.dll
 0000:fffca000       .debug$S                   10000000     mfc140:mfc140.dll
 0000:fffca000       .debug$S                   10000000     mfc140:mfc140.dll
 0000:fffca000       .debug$S                   10000000     mfc140:mfc140.dll
 0000:fffca000       .debug$S                   10000000     mfc140:mfc140.dll
 0000:fffca000       .debug$S                   10000000     mfc140:mfc140.dll
 0000:fffca000       .debug$S                   10000000     mfc140:mfc140.dll
 0000:fffca000       .debug$S                   10000000     mfc140:mfc140.dll
 0000:fffca000       .debug$S                   10000000     mfc140:mfc140.dll
 0000:fffca000       .debug$S                   10000000     mfc140:mfc140.dll
 0000:fffca000       .debug$S                   10000000     mfc140:mfc140.dll
 0000:fffca000       .debug$S                   10000000     mfc140:mfc140.dll
 0000:fffca000       .debug$S                   10000000     mfc140:mfc140.dll
 0000:fffca000       .debug$S                   10000000     mfc140:mfc140.dll
 0000:fffca000       .debug$S                   10000000     mfc140:mfc140.dll
 0000:fffca000       .debug$S                   10000000     mfc140:mfc140.dll
 0000:fffca000       .debug$S                   10000000     mfc140:mfc140.dll
 0000:fffca000       .debug$S                   10000000     mfc140:mfc140.dll
 0000:fffca000       .debug$S                   10000000     mfc140:mfc140.dll
 0000:fffca000       .debug$S                   10000000     mfc140:mfc140.dll
 0000:fffca000       .debug$S                   10000000     mfc140:mfc140.dll
 0000:fffca000       .debug$S                   10000000     mfc140:mfc140.dll
 0000:fffca000       .debug$S                   10000000     mfc140:mfc140.dll
 0000:fffca000       .debug$S                   10000000     mfc140:mfc140.dll
 0000:fffca000       .debug$S                   10000000     mfc140:mfc140.dll
 0000:fffca000       .debug$S                   10000000     mfc140:mfc140.dll
 0000:fffca000       .debug$S                   10000000     mfc140:mfc140.dll
 0000:fffca000       .debug$S                   10000000     mfc140:mfc140.dll
 0000:fffca000       .debug$S                   10000000     mfc140:mfc140.dll
 0000:fffca000       .debug$S                   10000000     mfc140:mfc140.dll
 0000:fffca000       .debug$S                   10000000     mfc140:mfc140.dll
 0000:fffca000       .debug$S                   10000000     mfc140:mfc140.dll
 0000:fffca000       .debug$S                   10000000     mfc140:mfc140.dll
 0000:fffca000       .debug$S                   10000000     mfc140:mfc140.dll
 0000:fffca000       .debug$S                   10000000     mfc140:mfc140.dll
 0000:fffca000       .debug$S                   10000000     mfc140:mfc140.dll
 0000:fffca000       .debug$S                   10000000     mfc140:mfc140.dll
 0000:fffca000       .debug$S                   10000000     mfc140:mfc140.dll
 0000:fffca000       .debug$S                   10000000     mfc140:mfc140.dll
 0000:fffca000       .debug$S                   10000000     mfc140:mfc140.dll
 0000:fffca000       .debug$S                   10000000     mfc140:mfc140.dll
 0000:fffca000       .debug$S                   10000000     mfc140:mfc140.dll
 0000:fffca000       .debug$S                   10000000     mfc140:mfc140.dll
 0000:fffca000       .debug$S                   10000000     mfc140:mfc140.dll
 0000:fffca000       .debug$S                   10000000     mfc140:mfc140.dll
 0000:fffca000       .debug$S                   10000000     mfc140:mfc140.dll
 0000:fffca000       .debug$S                   10000000     mfc140:mfc140.dll
 0000:fffca000       .debug$S                   10000000     mfc140:mfc140.dll
 0000:fffca000       .debug$S                   10000000     mfc140:mfc140.dll
 0000:fffca000       .debug$S                   10000000     mfc140:mfc140.dll
 0000:fffca000       .debug$S                   10000000     mfc140:mfc140.dll
 0000:fffca000       .debug$S                   10000000     mfc140:mfc140.dll
 0000:fffca000       .debug$S                   10000000     mfc140:mfc140.dll
 0000:fffca000       .debug$S                   10000000     mfc140:mfc140.dll
 0000:fffca000       .debug$S                   10000000     mfc140:mfc140.dll
 0000:fffca000       .debug$S                   10000000     mfc140:mfc140.dll
 0000:fffca000       .debug$S                   10000000     mfc140:mfc140.dll
 0000:fffca000       .debug$S                   10000000     mfc140:mfc140.dll
 0000:fffca000       .debug$S                   10000000     mfc140:mfc140.dll
 0000:fffca000       .debug$S                   10000000     mfc140:mfc140.dll
 0000:fffca000       .debug$S                   10000000     mfc140:mfc140.dll
 0000:fffca000       .debug$S                   10000000     mfc140:mfc140.dll
 0000:fffca000       .debug$S                   10000000     mfc140:mfc140.dll
 0000:fffca000       .debug$S                   10000000     mfc140:mfc140.dll
 0000:fffca000       .debug$S                   10000000     mfc140:mfc140.dll
 0000:fffca000       .debug$S                   10000000     mfc140:mfc140.dll
 0000:fffca000       .debug$S                   10000000     mfc140:mfc140.dll
 0000:fffca000       .debug$S                   10000000     mfc140:mfc140.dll
 0000:fffca000       .debug$S                   10000000     mfc140:mfc140.dll
 0000:fffca000       .debug$S                   10000000     mfc140:mfc140.dll
 0000:fffca000       .debug$S                   10000000     mfc140:mfc140.dll
 0000:fffca000       .debug$S                   10000000     mfc140:mfc140.dll
 0000:fffca000       .debug$S                   10000000     mfc140:mfc140.dll
 0000:fffca000       .debug$S                   10000000     mfc140:mfc140.dll
 0000:fffca000       .debug$S                   10000000     mfc140:mfc140.dll
 0000:fffca000       .debug$S                   10000000     mfc140:mfc140.dll
 0000:fffca000       .debug$S                   10000000     mfc140:mfc140.dll
 0000:fffca000       .debug$S                   10000000     mfc140:mfc140.dll
 0000:fffca000       .debug$S                   10000000     mfc140:mfc140.dll
 0000:fffca000       .debug$S                   10000000     mfc140:mfc140.dll
 0000:fffca000       .debug$S                   10000000     mfc140:mfc140.dll
 0000:fffca000       .debug$S                   10000000     mfc140:mfc140.dll
 0000:fffca000       .debug$S                   10000000     mfc140:mfc140.dll
 0000:fffca000       .debug$S                   10000000     mfc140:mfc140.dll
 0000:fffca000       .debug$S                   10000000     mfc140:mfc140.dll
 0000:fffca000       .debug$S                   10000000     mfc140:mfc140.dll
 0000:fffca000       .debug$S                   10000000     mfc140:mfc140.dll
 0000:fffca000       .debug$S                   10000000     mfc140:mfc140.dll
 0000:fffca000       .debug$S                   10000000     mfc140:mfc140.dll
 0000:fffca000       .debug$S                   10000000     mfc140:mfc140.dll
 0000:fffca000       .debug$S                   10000000     mfc140:mfc140.dll
 0000:fffca000       .debug$S                   10000000     mfc140:mfc140.dll
 0000:fffca000       .debug$S                   10000000     mfc140:mfc140.dll
 0000:fffca000       .debug$S                   10000000     mfc140:mfc140.dll
 0000:fffca000       .debug$S                   10000000     mfc140:mfc140.dll
 0000:fffca000       .debug$S                   10000000     mfc140:mfc140.dll
 0000:fffca000       .debug$S                   10000000     mfc140:mfc140.dll
 0000:fffca000       .debug$S                   10000000     mfc140:mfc140.dll
 0000:fffca000       .debug$S                   10000000     mfc140:mfc140.dll
 0000:fffca000       .debug$S                   10000000     mfc140:mfc140.dll
 0000:fffca000       .debug$S                   10000000     mfc140:mfc140.dll
 0000:fffca000       .debug$S                   10000000     mfc140:mfc140.dll
 0000:fffca000       .debug$S                   10000000     mfc140:mfc140.dll
 0000:fffca000       .debug$S                   10000000     mfc140:mfc140.dll
 0000:fffca000       .debug$S                   10000000     mfc140:mfc140.dll
 0000:fffca000       .debug$S                   10000000     mfc140:mfc140.dll
 0000:fffca000       .debug$S                   10000000     mfc140:mfc140.dll
 0000:fffca000       .debug$S                   10000000     mfc140:mfc140.dll
 0000:fffca000       .debug$S                   10000000     mfc140:mfc140.dll
 0000:fffca000       .debug$S                   10000000     mfc140:mfc140.dll
 0000:fffca000       .debug$S                   10000000     mfc140:mfc140.dll
 0000:fffca000       .debug$S                   10000000     mfc140:mfc140.dll
 0000:fffca000       .debug$S                   10000000     mfc140:mfc140.dll
 0000:fffca000       .debug$S                   10000000     mfc140:mfc140.dll
 0000:fffca000       .debug$S                   10000000     mfc140:mfc140.dll
 0000:fffca000       .debug$S                   10000000     mfc140:mfc140.dll
 0000:fffca000       .debug$S                   10000000     mfc140:mfc140.dll
 0000:fffca000       .debug$S                   10000000     mfc140:mfc140.dll
 0000:fffca000       .debug$S                   10000000     mfc140:mfc140.dll
 0000:fffca000       .debug$S                   10000000     mfc140:mfc140.dll
 0000:fffca000       .debug$S                   10000000     mfc140:mfc140.dll
 0000:fffca000       .debug$S                   10000000     mfc140:mfc140.dll
 0000:fffca000       .debug$S                   10000000     mfc140:mfc140.dll
 0000:fffca000       .debug$S                   10000000     mfc140:mfc140.dll
 0000:fffca000       .debug$S                   10000000     mfc140:mfc140.dll
 0000:fffca000       .debug$S                   10000000     mfc140:mfc140.dll
 0000:fffca000       .debug$S                   10000000     mfc140:mfc140.dll
 0000:fffca000       .debug$S                   10000000     mfc140:mfc140.dll
 0000:fffca000       .debug$S                   10000000     mfc140:mfc140.dll
 0000:fffca000       .debug$S                   10000000     mfc140:mfc140.dll
 0000:fffca000       .debug$S                   10000000     mfc140:mfc140.dll
 0000:fffca000       .debug$S                   10000000     mfc140:mfc140.dll
 0000:fffca000       .debug$S                   10000000     mfc140:mfc140.dll
 0000:fffca000       .debug$S                   10000000     mfc140:mfc140.dll
 0000:fffca000       .debug$S                   10000000     mfc140:mfc140.dll
 0000:fffca000       .debug$S                   10000000     mfc140:mfc140.dll
 0000:fffca000       .debug$S                   10000000     mfc140:mfc140.dll
 0000:fffca000       .debug$S                   10000000     mfc140:mfc140.dll
 0000:fffca000       .debug$S                   10000000     mfc140:mfc140.dll
 0000:fffca000       .debug$S                   10000000     mfc140:mfc140.dll
 0000:fffca000       .debug$S                   10000000     mfc140:mfc140.dll
 0000:fffca000       .debug$S                   10000000     mfc140:mfc140.dll
 0000:fffca000       .debug$S                   10000000     mfc140:mfc140.dll
 0000:fffca000       .debug$S                   10000000     mfc140:mfc140.dll
 0000:fffca000       .debug$S                   10000000     mfc140:mfc140.dll
 0000:fffca000       .debug$S                   10000000     mfc140:mfc140.dll
 0000:fffca000       .debug$S                   10000000     mfc140:mfc140.dll
 0000:fffca000       .debug$S                   10000000     mfc140:mfc140.dll
 0000:fffca000       .debug$S                   10000000     mfc140:mfc140.dll
 0000:fffca000       .debug$S                   10000000     mfc140:mfc140.dll
 0000:fffca000       .debug$S                   10000000     mfc140:mfc140.dll
 0000:fffca000       .debug$S                   10000000     mfc140:mfc140.dll
 0000:fffca000       .debug$S                   10000000     mfc140:mfc140.dll
 0000:fffca000       .debug$S                   10000000     mfc140:mfc140.dll
 0000:fffca000       .debug$S                   10000000     mfc140:mfc140.dll
 0000:fffca000       .debug$S                   10000000     mfc140:mfc140.dll
 0000:fffca000       .debug$S                   10000000     mfc140:mfc140.dll
 0000:fffca000       .debug$S                   10000000     mfc140:mfc140.dll
 0000:fffca000       .debug$S                   10000000     mfc140:mfc140.dll
 0000:fffca000       .debug$S                   10000000     mfc140:mfc140.dll
 0000:fffca000       .debug$S                   10000000     mfc140:mfc140.dll
 0000:fffca000       .debug$S                   10000000     mfc140:mfc140.dll
 0000:fffca000       .debug$S                   10000000     mfc140:mfc140.dll
 0000:fffca000       .debug$S                   10000000     mfc140:mfc140.dll
 0000:fffca000       .debug$S                   10000000     mfc140:mfc140.dll
 0000:fffca000       .debug$S                   10000000     mfc140:mfc140.dll
 0000:fffca000       .debug$S                   10000000     mfc140:mfc140.dll
 0000:fffca000       .debug$S                   10000000     mfc140:mfc140.dll
 0000:fffca000       .debug$S                   10000000     mfc140:mfc140.dll
 0000:fffca000       .debug$S                   10000000     mfc140:mfc140.dll
 0000:fffca000       .debug$S                   10000000     mfc140:mfc140.dll
 0000:fffca000       .debug$S                   10000000     mfc140:mfc140.dll
 0000:fffca000       .debug$S                   10000000     mfc140:mfc140.dll
 0000:fffca000       .debug$S                   10000000     mfc140:mfc140.dll
 0002:fffdd000       ??isInitialized$initializer$@CAtlStringMgr@ATL@@0P6AXXZA@@3P6AXXZA 10000000     mfcs140:dllmodul.obj
 0002:fffdd000       ?InitializeCAtlStringMgr$initializer$@ATLImplementationDetails@ATL@@3P6AXXZA 10000000     mfcs140:dllmodul.obj
 0002:fffdd000       ?_AtlComModule$initializer$@ATL@@3P6AXXZA 10000000     mfcs140:dllmodul.obj
 0002:fffdd000       ?_AtlWinModule$initializer$@ATL@@3P6AXXZA 10000000     mfcs140:dllmodul.obj
 0002:fffdd000       __ehfuncinfo$??1CAtlComModule@ATL@@QAE@XZ 10000000     mfcs140:dllmodul.obj
 0002:fffdd000       __ehfuncinfo$??_Estringdispid@CComTypeInfoHolder@ATL@@QAEPAXI@Z 10000000     mfcs140:dllmodul.obj
 0001:fffff000       __ehhandler$??1CAtlComModule@ATL@@QAE@XZ 10000000 f   mfcs140:dllmodul.obj
 0001:fffff000       __ehhandler$??_Estringdispid@CComTypeInfoHolder@ATL@@QAEPAXI@Z 10000000 f   mfcs140:dllmodul.obj
 0002:fffdd000       __guard_fids_??0_AFX_DLL_MODULE_STATE@@QAE@XZ 10000000     mfcs140:dllmodul.obj
 0002:fffdd000       __guard_fids_??_Estringdispid@CComTypeInfoHolder@ATL@@QAEPAXI@Z 10000000     mfcs140:dllmodul.obj
 0002:fffdd000       __guard_fids_??__E_AtlComModule@ATL@@YAXXZ 10000000     mfcs140:dllmodul.obj
 0002:fffdd000       __guard_fids_??__E_AtlWinModule@ATL@@YAXXZ 10000000     mfcs140:dllmodul.obj
 0002:fffdd000       __guard_fids_??__EafxModuleState@@YAXXZ 10000000     mfcs140:dllmodul.obj
 0002:fffdd000       __guard_fids_?GetInstance@CAtlStringMgr@ATL@@SAPAUIAtlStringMgr@2@XZ 10000000     mfcs140:dllmodul.obj
 0002:fffdd000       __guard_fids__             10000000     mfcs140:dllmodul.obj
 0002:fffdd000       __guard_fids__             10000000     mfcs140:dllmodul.obj
 0002:fffdd000       __guard_fids__             10000000     mfcs140:dllmodul.obj
 0002:fffdd000       __guard_fids__             10000000     mfcs140:dllmodul.obj
 0002:fffdd000       __guard_fids__             10000000     mfcs140:dllmodul.obj
 0002:fffdd000       __guard_fids__             10000000     mfcs140:dllmodul.obj
 0002:fffdd000       __guard_fids__             10000000     mfcs140:dllmodul.obj
 0002:fffdd000       __guard_fids__             10000000     mfcs140:dllmodul.obj
 0002:fffdd000       __guard_fids__             10000000     mfcs140:dllmodul.obj
 0002:fffdd000       __guard_fids__             10000000     mfcs140:dllmodul.obj
 0002:fffdd000       __sehtable$_IsolationAwareUnregisterClassA@8 10000000     mfcs140:dllmodul.obj
 0002:fffdd000       __sehtable$_WinbaseIsolationAwarePrivatetRgzlnPgpgk@0 10000000     mfcs140:dllmodul.obj
 0002:fffdd000       ??isInitialized$initializer$@CAtlStringMgr@ATL@@0P6AXXZA@@3P6AXXZA 10000000     mfcs140:dllmodulx.obj
 0002:fffdd000       ?InitializeCAtlStringMgr$initializer$@ATLImplementationDetails@ATL@@3P6AXXZA 10000000     mfcs140:dllmodulx.obj
 0002:fffdd000       ?_AtlComModule$initializer$@ATL@@3P6AXXZA 10000000     mfcs140:dllmodulx.obj
 0002:fffdd000       ?_AtlWinModule$initializer$@ATL@@3P6AXXZA 10000000     mfcs140:dllmodulx.obj
 0002:fffdd000       __ehfuncinfo$??1CAtlComModule@ATL@@QAE@XZ 10000000     mfcs140:dllmodulx.obj
 0002:fffdd000       __ehfuncinfo$??_Estringdispid@CComTypeInfoHolder@ATL@@QAEPAXI@Z 10000000     mfcs140:dllmodulx.obj
 0001:fffff000       __ehhandler$??1CAtlComModule@ATL@@QAE@XZ 10000000 f   mfcs140:dllmodulx.obj
 0001:fffff000       __ehhandler$??_Estringdispid@CComTypeInfoHolder@ATL@@QAEPAXI@Z 10000000 f   mfcs140:dllmodulx.obj
 0002:fffdd000       __guard_fids_??_Estringdispid@CComTypeInfoHolder@ATL@@QAEPAXI@Z 10000000     mfcs140:dllmodulx.obj
 0002:fffdd000       __guard_fids_??__E_AtlComModule@ATL@@YAXXZ 10000000     mfcs140:dllmodulx.obj
 0002:fffdd000       __guard_fids_??__E_AtlWinModule@ATL@@YAXXZ 10000000     mfcs140:dllmodulx.obj
 0002:fffdd000       __guard_fids_?GetInstance@CAtlStringMgr@ATL@@SAPAUIAtlStringMgr@2@XZ 10000000     mfcs140:dllmodulx.obj
 0002:fffdd000       __guard_fids__             10000000     mfcs140:dllmodulx.obj
 0002:fffdd000       __guard_fids__             10000000     mfcs140:dllmodulx.obj
 0002:fffdd000       __guard_fids__             10000000     mfcs140:dllmodulx.obj
 0002:fffdd000       __guard_fids__             10000000     mfcs140:dllmodulx.obj
 0002:fffdd000       __guard_fids__             10000000     mfcs140:dllmodulx.obj
 0002:fffdd000       __guard_fids__             10000000     mfcs140:dllmodulx.obj
 0002:fffdd000       __guard_fids__             10000000     mfcs140:dllmodulx.obj
 0002:fffdd000       __guard_fids__             10000000     mfcs140:dllmodulx.obj
 0002:fffdd000       __guard_fids__             10000000     mfcs140:dllmodulx.obj
 0002:fffdd000       __sehtable$_IsolationAwareUnregisterClassA@8 10000000     mfcs140:dllmodulx.obj
 0002:fffdd000       __sehtable$_WinbaseIsolationAwarePrivatetRgzlnPgpgk@0 10000000     mfcs140:dllmodulx.obj
 0002:fffdd000       ??isInitialized$initializer$@CAtlStringMgr@ATL@@0P6AXXZA@@3P6AXXZA 10000000     mfcs140:nolib.obj
 0002:fffdd000       ?InitializeCAtlStringMgr$initializer$@ATLImplementationDetails@ATL@@3P6AXXZA 10000000     mfcs140:nolib.obj
 0002:fffdd000       ?_AtlComModule$initializer$@ATL@@3P6AXXZA 10000000     mfcs140:nolib.obj
 0002:fffdd000       ?_AtlWinModule$initializer$@ATL@@3P6AXXZA 10000000     mfcs140:nolib.obj
 0002:fffdd000       __guard_fids_??_Estringdispid@CComTypeInfoHolder@ATL@@QAEPAXI@Z 10000000     mfcs140:nolib.obj
 0002:fffdd000       __guard_fids_??__E_AtlComModule@ATL@@YAXXZ 10000000     mfcs140:nolib.obj
 0002:fffdd000       __guard_fids_??__E_AtlWinModule@ATL@@YAXXZ 10000000     mfcs140:nolib.obj
 0002:fffdd000       __guard_fids_?GetInstance@CAtlStringMgr@ATL@@SAPAUIAtlStringMgr@2@XZ 10000000     mfcs140:nolib.obj
 0002:fffdd000       __guard_fids__             10000000     mfcs140:nolib.obj
 0002:fffdd000       __guard_fids__             10000000     mfcs140:nolib.obj
 0002:fffdd000       __guard_fids__             10000000     mfcs140:nolib.obj
 0002:fffdd000       __guard_fids__             10000000     mfcs140:nolib.obj
 0002:fffdd000       __guard_fids__             10000000     mfcs140:nolib.obj
 0002:fffdd000       __guard_fids__             10000000     mfcs140:nolib.obj
 0002:fffdd000       __guard_fids__             10000000     mfcs140:nolib.obj
 0002:fffdd000       __guard_fids__             10000000     mfcs140:nolib.obj
 0002:fffdd000       __guard_fids__             10000000     mfcs140:nolib.obj
 0002:fffdd000       __guard_fids__             10000000     mfcs140:rawdllmainproxy.obj
 0002:fffdd000       ??isInitialized$initializer$@CAtlStringMgr@ATL@@0P6AXXZA@@3P6AXXZA 10000000     mfcs140:stdafx.obj
 0002:fffdd000       ?InitializeCAtlStringMgr$initializer$@ATLImplementationDetails@ATL@@3P6AXXZA 10000000     mfcs140:stdafx.obj
 0002:fffdd000       ?_AtlComModule$initializer$@ATL@@3P6AXXZA 10000000     mfcs140:stdafx.obj
 0002:fffdd000       ?_AtlWinModule$initializer$@ATL@@3P6AXXZA 10000000     mfcs140:stdafx.obj
 0002:fffdd000       __ehfuncinfo$??1CAtlComModule@ATL@@QAE@XZ 10000000     mfcs140:stdafx.obj
 0002:fffdd000       __ehfuncinfo$??_Estringdispid@CComTypeInfoHolder@ATL@@QAEPAXI@Z 10000000     mfcs140:stdafx.obj
 0001:fffff000       __ehhandler$??1CAtlComModule@ATL@@QAE@XZ 10000000 f   mfcs140:stdafx.obj
 0001:fffff000       __ehhandler$??_Estringdispid@CComTypeInfoHolder@ATL@@QAEPAXI@Z 10000000 f   mfcs140:stdafx.obj
 0002:fffdd000       __guard_fids_??_Estringdispid@CComTypeInfoHolder@ATL@@QAEPAXI@Z 10000000     mfcs140:stdafx.obj
 0002:fffdd000       __guard_fids_??__E_AtlComModule@ATL@@YAXXZ 10000000     mfcs140:stdafx.obj
 0002:fffdd000       __guard_fids_??__E_AtlWinModule@ATL@@YAXXZ 10000000     mfcs140:stdafx.obj
 0002:fffdd000       __guard_fids_?GetInstance@CAtlStringMgr@ATL@@SAPAUIAtlStringMgr@2@XZ 10000000     mfcs140:stdafx.obj
 0002:fffdd000       __guard_fids__             10000000     mfcs140:stdafx.obj
 0002:fffdd000       __guard_fids__             10000000     mfcs140:stdafx.obj
 0002:fffdd000       __guard_fids__             10000000     mfcs140:stdafx.obj
 0002:fffdd000       __guard_fids__             10000000     mfcs140:stdafx.obj
 0002:fffdd000       __guard_fids__             10000000     mfcs140:stdafx.obj
 0002:fffdd000       __guard_fids__             10000000     mfcs140:stdafx.obj
 0002:fffdd000       __guard_fids__             10000000     mfcs140:stdafx.obj
 0002:fffdd000       __guard_fids__             10000000     mfcs140:stdafx.obj
 0002:fffdd000       __guard_fids__             10000000     mfcs140:stdafx.obj
 0002:fffdd000       __sehtable$_IsolationAwareUnregisterClassA@8 10000000     mfcs140:stdafx.obj
 0002:fffdd000       __sehtable$_WinbaseIsolationAwarePrivatetRgzlnPgpgk@0 10000000     mfcs140:stdafx.obj
 0002:fffdd000       __guard_fids___except_handler4 10000000     msvcrt:chandler4gs.obj
 0002:fffdd000       __guard_fids_?dllmain_dispatch@@YAHQAUHINSTANCE__@@KQAX@Z 10000000     msvcrt:dll_dllmain.obj
 0002:fffdd000       __guard_fids__             10000000     msvcrt:guard_support.obj
 0002:fffdd000       __guard_fids__             10000000     msvcrt:guard_support.obj
 0002:fffdd000       __guard_fids___guard_icall_checks_enforced 10000000     msvcrt:guard_support.obj
 0002:fffdd000       __guard_fids__             10000000     msvcrt:std_type_info_static.obj
 0002:fffdd000       __guard_fids_?__scrt_initialize_thread_safe_statics@@YAHXZ 10000000     msvcrt:thread_safe_statics.obj
 0002:fffdd000       __guard_fids__             10000000     msvcrt:thread_safe_statics.obj
 0002:fffdd000       __guard_fids____scrt_set_unhandled_exception_filter 10000000     msvcrt:utility_desktop.obj
 0000:fffca000       .debug$S                   10000000     vcruntime:VCRUNTIME140.dll
 0000:fffca000       .debug$S                   10000000     vcruntime:VCRUNTIME140.dll
 0000:fffca000       .debug$S                   10000000     vcruntime:VCRUNTIME140.dll
 0000:fffca000       .debug$S                   10000000     vcruntime:VCRUNTIME140.dll
 0000:fffca000       .debug$S                   10000000     vcruntime:VCRUNTIME140.dll
 0000:fffca000       .debug$S                   10000000     vcruntime:VCRUNTIME140.dll
 0000:fffca000       .debug$S                   10000000     vcruntime:VCRUNTIME140.dll
 0000:fffca000       .debug$S                   10000000     vcruntime:VCRUNTIME140.dll
 0000:fffca000       .debug$S                   10000000     vcruntime:VCRUNTIME140.dll
 0000:fffca000       .debug$S                   10000000     vcruntime:VCRUNTIME140.dll
 0000:fffca000       .debug$S                   10000000     vcruntime:VCRUNTIME140.dll
 0000:fffca000       .debug$S                   10000000     ucrt:api-ms-win-crt-convert-l1-1-0.dll
 0000:fffca000       .debug$S                   10000000     ucrt:api-ms-win-crt-convert-l1-1-0.dll
 0000:fffca000       .debug$S                   10000000     ucrt:api-ms-win-crt-convert-l1-1-0.dll
 0000:fffca000       .debug$S                   10000000     ucrt:api-ms-win-crt-filesystem-l1-1-0.dll
 0000:fffca000       .debug$S                   10000000     ucrt:api-ms-win-crt-filesystem-l1-1-0.dll
 0000:fffca000       .debug$S                   10000000     ucrt:api-ms-win-crt-heap-l1-1-0.dll
 0000:fffca000       .debug$S                   10000000     ucrt:api-ms-win-crt-heap-l1-1-0.dll
 0000:fffca000       .debug$S                   10000000     ucrt:api-ms-win-crt-heap-l1-1-0.dll
 0000:fffca000       .debug$S                   10000000     ucrt:api-ms-win-crt-runtime-l1-1-0.dll
 0000:fffca000       .debug$S                   10000000     ucrt:api-ms-win-crt-runtime-l1-1-0.dll
 0000:fffca000       .debug$S                   10000000     ucrt:api-ms-win-crt-runtime-l1-1-0.dll
 0000:fffca000       .debug$S                   10000000     ucrt:api-ms-win-crt-runtime-l1-1-0.dll
 0000:fffca000       .debug$S                   10000000     ucrt:api-ms-win-crt-runtime-l1-1-0.dll
 0000:fffca000       .debug$S                   10000000     ucrt:api-ms-win-crt-runtime-l1-1-0.dll
 0000:fffca000       .debug$S                   10000000     ucrt:api-ms-win-crt-runtime-l1-1-0.dll
 0000:fffca000       .debug$S                   10000000     ucrt:api-ms-win-crt-runtime-l1-1-0.dll
 0000:fffca000       .debug$S                   10000000     ucrt:api-ms-win-crt-runtime-l1-1-0.dll
 0000:fffca000       .debug$S                   10000000     ucrt:api-ms-win-crt-runtime-l1-1-0.dll
 0000:fffca000       .debug$S                   10000000     ucrt:api-ms-win-crt-runtime-l1-1-0.dll
 0000:fffca000       .debug$S                   10000000     ucrt:api-ms-win-crt-runtime-l1-1-0.dll
 0000:fffca000       .debug$S                   10000000     ucrt:api-ms-win-crt-runtime-l1-1-0.dll
 0000:fffca000       .debug$S                   10000000     ucrt:api-ms-win-crt-runtime-l1-1-0.dll
 0000:fffca000       .debug$S                   10000000     ucrt:api-ms-win-crt-stdio-l1-1-0.dll
 0000:fffca000       .debug$S                   10000000     ucrt:api-ms-win-crt-stdio-l1-1-0.dll
 0000:fffca000       .debug$S                   10000000     ucrt:api-ms-win-crt-stdio-l1-1-0.dll
 0000:fffca000       .debug$S                   10000000     ucrt:api-ms-win-crt-stdio-l1-1-0.dll
 0000:fffca000       .debug$S                   10000000     ucrt:api-ms-win-crt-stdio-l1-1-0.dll
 0000:fffca000       .debug$S                   10000000     ucrt:api-ms-win-crt-string-l1-1-0.dll
 0000:fffca000       .debug$S                   10000000     ucrt:api-ms-win-crt-string-l1-1-0.dll
 0000:fffca000       .debug$S                   10000000     ucrt:api-ms-win-crt-time-l1-1-0.dll
 0000:fffca000       .debug$S                   10000000     ucrt:api-ms-win-crt-time-l1-1-0.dll
 0000:fffca000       .debug$S                   10000000     ucrt:api-ms-win-crt-utility-l1-1-0.dll
 0000:fffca000       .debug$S                   10000000     advapi32:ADVAPI32.dll
 0000:fffca000       .debug$S                   10000000     advapi32:ADVAPI32.dll
 0000:fffca000       .debug$S                   10000000     advapi32:ADVAPI32.dll
 0000:fffca000       .debug$S                   10000000     advapi32:ADVAPI32.dll
 0000:fffca000       .debug$S                   10000000     advapi32:ADVAPI32.dll
 0000:fffca000       .debug$S                   10000000     advapi32:ADVAPI32.dll
 0000:fffca000       .debug$S                   10000000     gdi32:GDI32.dll
 0000:fffca000       .debug$S                   10000000     kernel32:KERNEL32.dll
 0000:fffca000       .debug$S                   10000000     kernel32:KERNEL32.dll
 0000:fffca000       .debug$S                   10000000     kernel32:KERNEL32.dll
 0000:fffca000       .debug$S                   10000000     kernel32:KERNEL32.dll
 0000:fffca000       .debug$S                   10000000     kernel32:KERNEL32.dll
 0000:fffca000       .debug$S                   10000000     kernel32:KERNEL32.dll
 0000:fffca000       .debug$S                   10000000     kernel32:KERNEL32.dll
 0000:fffca000       .debug$S                   10000000     kernel32:KERNEL32.dll
 0000:fffca000       .debug$S                   10000000     kernel32:KERNEL32.dll
 0000:fffca000       .debug$S                   10000000     kernel32:KERNEL32.dll
 0000:fffca000       .debug$S                   10000000     kernel32:KERNEL32.dll
 0000:fffca000       .debug$S                   10000000     kernel32:KERNEL32.dll
 0000:fffca000       .debug$S                   10000000     kernel32:KERNEL32.dll
 0000:fffca000       .debug$S                   10000000     kernel32:KERNEL32.dll
 0000:fffca000       .debug$S                   10000000     kernel32:KERNEL32.dll
 0000:fffca000       .debug$S                   10000000     kernel32:KERNEL32.dll
 0000:fffca000       .debug$S                   10000000     kernel32:KERNEL32.dll
 0000:fffca000       .debug$S                   10000000     kernel32:KERNEL32.dll
 0000:fffca000       .debug$S                   10000000     kernel32:KERNEL32.dll
 0000:fffca000       .debug$S                   10000000     kernel32:KERNEL32.dll
 0000:fffca000       .debug$S                   10000000     kernel32:KERNEL32.dll
 0000:fffca000       .debug$S                   10000000     kernel32:KERNEL32.dll
 0000:fffca000       .debug$S                   10000000     kernel32:KERNEL32.dll
 0000:fffca000       .debug$S                   10000000     kernel32:KERNEL32.dll
 0000:fffca000       .debug$S                   10000000     kernel32:KERNEL32.dll
 0000:fffca000       .debug$S                   10000000     kernel32:KERNEL32.dll
 0000:fffca000       .debug$S                   10000000     kernel32:KERNEL32.dll
 0000:fffca000       .debug$S                   10000000     kernel32:KERNEL32.dll
 0000:fffca000       .debug$S                   10000000     kernel32:KERNEL32.dll
 0000:fffca000       .debug$S                   10000000     kernel32:KERNEL32.dll
 0000:fffca000       .debug$S                   10000000     kernel32:KERNEL32.dll
 0000:fffca000       .debug$S                   10000000     kernel32:KERNEL32.dll
 0000:fffca000       .debug$S                   10000000     kernel32:KERNEL32.dll
 0000:fffca000       .debug$S                   10000000     kernel32:KERNEL32.dll
 0000:fffca000       .debug$S                   10000000     kernel32:KERNEL32.dll
 0000:fffca000       .debug$S                   10000000     kernel32:KERNEL32.dll
 0000:fffca000       .debug$S                   10000000     kernel32:KERNEL32.dll
 0000:fffca000       .debug$S                   10000000     kernel32:KERNEL32.dll
 0000:fffca000       .debug$S                   10000000     kernel32:KERNEL32.dll
 0000:fffca000       .debug$S                   10000000     kernel32:KERNEL32.dll
 0000:fffca000       .debug$S                   10000000     kernel32:KERNEL32.dll
 0000:fffca000       .debug$S                   10000000     kernel32:KERNEL32.dll
 0000:fffca000       .debug$S                   10000000     kernel32:KERNEL32.dll
 0000:fffca000       .debug$S                   10000000     kernel32:KERNEL32.dll
 0000:fffca000       .debug$S                   10000000     kernel32:KERNEL32.dll
 0000:fffca000       .debug$S                   10000000     kernel32:KERNEL32.dll
 0000:fffca000       .debug$S                   10000000     kernel32:KERNEL32.dll
 0000:fffca000       .debug$S                   10000000     kernel32:KERNEL32.dll
 0000:fffca000       .debug$S                   10000000     kernel32:KERNEL32.dll
 0000:fffca000       .debug$S                   10000000     kernel32:KERNEL32.dll
 0000:fffca000       .debug$S                   10000000     kernel32:KERNEL32.dll
 0000:fffca000       .debug$S                   10000000     kernel32:KERNEL32.dll
 0000:fffca000       .debug$S                   10000000     kernel32:KERNEL32.dll
 0000:fffca000       .debug$S                   10000000     kernel32:KERNEL32.dll
 0000:fffca000       .debug$S                   10000000     kernel32:KERNEL32.dll
 0000:fffca000       .debug$S                   10000000     kernel32:KERNEL32.dll
 0000:fffca000       .debug$S                   10000000     kernel32:KERNEL32.dll
 0000:fffca000       .debug$S                   10000000     kernel32:KERNEL32.dll
 0000:fffca000       .debug$S                   10000000     kernel32:KERNEL32.dll
 0000:fffca000       .debug$S                   10000000     kernel32:KERNEL32.dll
 0000:fffca000       .debug$S                   10000000     kernel32:KERNEL32.dll
 0000:fffca000       .debug$S                   10000000     kernel32:KERNEL32.dll
 0000:fffca000       .debug$S                   10000000     kernel32:KERNEL32.dll
 0000:fffca000       .debug$S                   10000000     kernel32:KERNEL32.dll
 0000:fffca000       .debug$S                   10000000     kernel32:KERNEL32.dll
 0000:fffca000       .debug$S                   10000000     kernel32:KERNEL32.dll
 0000:fffca000       .debug$S                   10000000     ole32:ole32.dll
 0000:fffca000       .debug$S                   10000000     ole32:ole32.dll
 0000:fffca000       .debug$S                   10000000     ole32:ole32.dll
 0000:fffca000       .debug$S                   10000000     oleaut32:OLEAUT32.dll
 0000:fffca000       .debug$S                   10000000     oleaut32:OLEAUT32.dll
 0000:fffca000       .debug$S                   10000000     user32:USER32.dll
 0000:fffca000       .debug$S                   10000000     user32:USER32.dll
 0000:fffca000       .debug$S                   10000000     user32:USER32.dll
 0000:fffca000       .debug$S                   10000000     user32:USER32.dll
 0000:fffca000       .debug$S                   10000000     user32:USER32.dll
 0000:fffca000       .debug$S                   10000000     user32:USER32.dll
 0000:fffca000       .debug$S                   10000000     user32:USER32.dll
 0000:fffca000       .debug$S                   10000000     user32:USER32.dll
 0000:fffca000       .debug$S                   10000000     user32:USER32.dll
 0000:fffca000       .debug$S                   10000000     user32:USER32.dll
 0000:fffca000       .debug$S                   10000000     user32:USER32.dll
 0000:fffca000       .debug$S                   10000000     user32:USER32.dll
 0000:fffca000       .debug$S                   10000000     user32:USER32.dll
 0000:fffca000       .debug$S                   10000000     user32:USER32.dll
 0000:fffca000       .debug$S                   10000000     user32:USER32.dll
 0002:fffdd004       __guard_fids__             10000004     mfcs140:dllmodul.obj
 0002:fffdd008       __ehfuncinfo$??_G?$CList@PAVCSTManager_Info@@PAV1@@@UAEPAXI@Z 10000008     _STManager.obj
 0002:fffdd008       __guard_fids__             10000008     mfcs140:dllmodul.obj
 0001:00000000       ??__ERMSG_CONCERNHWND@@YAXXZ 10001000 f   #SiteDependency.obj
 0001:00000020       ??__ERMSG_GETPCTRDATA@@YAXXZ 10001020 f   #SiteDependency.obj
 0001:00000040       ??__ERMSG_GWANSIMREGISTER@@YAXXZ 10001040 f   #SiteDependency.obj
 0001:00000060       ??__ERMSG_INTERFACE@@YAXXZ 10001060 f   #SiteDependency.obj
 0001:00000080       ??__ERMSG_INTREQUEST@@YAXXZ 10001080 f   #SiteDependency.obj
 0001:000000a0       ??__ERMSG_SETPCTRDATA@@YAXXZ 100010a0 f   #SiteDependency.obj
 0001:000000c0       ??__ERMSG_CONCERNHWND@@YAXXZ 100010c0 f   EtcUtil.obj
 0001:000000e0       ??__ERMSG_GETPCTRDATA@@YAXXZ 100010e0 f   EtcUtil.obj
 0001:00000100       ??__ERMSG_GWANSIMREGISTER@@YAXXZ 10001100 f   EtcUtil.obj
 0001:00000120       ??__ERMSG_INTERFACE@@YAXXZ 10001120 f   EtcUtil.obj
 0001:00000140       ??__ERMSG_INTREQUEST@@YAXXZ 10001140 f   EtcUtil.obj
 0001:00000160       ??__ERMSG_SETPCTRDATA@@YAXXZ 10001160 f   EtcUtil.obj
 0001:00000180       ??__ERMSG_CONCERNHWND@@YAXXZ 10001180 f   GwanWnd.obj
 0001:000001a0       ??__ERMSG_GETPCTRDATA@@YAXXZ 100011a0 f   GwanWnd.obj
 0001:000001c0       ??__ERMSG_GWANSIMREGISTER@@YAXXZ 100011c0 f   GwanWnd.obj
 0001:000001e0       ??__ERMSG_INTERFACE@@YAXXZ 100011e0 f   GwanWnd.obj
 0001:00000200       ??__ERMSG_INTREQUEST@@YAXXZ 10001200 f   GwanWnd.obj
 0001:00000220       ??__ERMSG_SETPCTRDATA@@YAXXZ 10001220 f   GwanWnd.obj
 0001:00000240       ??__ERMSG_GETPCTRDATA@@YAXXZ 10001240 f   PCtrMainWnd.obj
 0001:00000260       ??__ERMSG_INTERFACE@@YAXXZ 10001260 f   PCtrMainWnd.obj
 0001:00000280       ??__ERMSG_SETPCTRDATA@@YAXXZ 10001280 f   PCtrMainWnd.obj
 0001:000002a0       ??__ERMSG_CONCERNHWND@@YAXXZ 100012a0 f   PcTrMng.obj
 0001:000002c0       ??__ERMSG_GETPCTRDATA@@YAXXZ 100012c0 f   PcTrMng.obj
 0001:000002e0       ??__ERMSG_GWANSIMREGISTER@@YAXXZ 100012e0 f   PcTrMng.obj
 0001:00000300       ??__ERMSG_INTERFACE@@YAXXZ 10001300 f   PcTrMng.obj
 0001:00000320       ??__ERMSG_INTREQUEST@@YAXXZ 10001320 f   PcTrMng.obj
 0001:00000340       ??__ERMSG_SETPCTRDATA@@YAXXZ 10001340 f   PcTrMng.obj
 0001:00000360       ??__EtheApp@@YAXXZ         10001360 f   PcTrMng.obj
 0001:00000380       ??__E?isInitialized@CAtlStringMgr@ATL@@0_NA@@YAXXZ 10001380 f   StdAfx.obj
 0001:000003a0       ??__EInitializeCAtlStringMgr@ATLImplementationDetails@ATL@@YAXXZ 100013a0 f   StdAfx.obj
 0001:00000490       ??__E_AtlComModule@ATL@@YAXXZ 10001490 f   StdAfx.obj
 0001:000004f0       ??__E_AtlWinModule@ATL@@YAXXZ 100014f0 f   StdAfx.obj
 0001:00000540       ??__ERMSG_CONCERNHWND@@YAXXZ 10001540 f   TrComm.obj
 0001:00000560       ??__ERMSG_GETPCTRDATA@@YAXXZ 10001560 f   TrComm.obj
 0001:00000580       ??__ERMSG_GETSIGNAL_REAL@@YAXXZ 10001580 f   TrComm.obj
 0001:000005a0       ??__ERMSG_GWANSIMREGISTER@@YAXXZ 100015a0 f   TrComm.obj
 0001:000005c0       ??__ERMSG_INTERFACE@@YAXXZ 100015c0 f   TrComm.obj
 0001:000005e0       ??__ERMSG_INTREQUEST@@YAXXZ 100015e0 f   TrComm.obj
 0001:00000600       ??__ERMSG_SETPCTRDATA@@YAXXZ 10001600 f   TrComm.obj
 0001:00000620       ??__ERMSG_CONCERNHWND@@YAXXZ 10001620 f   _CompanyManager.obj
 0001:00000640       ??__ERMSG_GETPCTRDATA@@YAXXZ 10001640 f   _CompanyManager.obj
 0001:00000660       ??__ERMSG_GWANSIMREGISTER@@YAXXZ 10001660 f   _CompanyManager.obj
 0001:00000680       ??__ERMSG_INTERFACE@@YAXXZ 10001680 f   _CompanyManager.obj
 0001:000006a0       ??__ERMSG_INTREQUEST@@YAXXZ 100016a0 f   _CompanyManager.obj
 0001:000006c0       ??__ERMSG_SETPCTRDATA@@YAXXZ 100016c0 f   _CompanyManager.obj
 0001:000006e0       ??__ERMSG_CONCERNHWND@@YAXXZ 100016e0 f   _DataMonitorManager.obj
 0001:00000700       ??__ERMSG_GETPCTRDATA@@YAXXZ 10001700 f   _DataMonitorManager.obj
 0001:00000720       ??__ERMSG_GWANSIMREGISTER@@YAXXZ 10001720 f   _DataMonitorManager.obj
 0001:00000740       ??__ERMSG_INTERFACE@@YAXXZ 10001740 f   _DataMonitorManager.obj
 0001:00000760       ??__ERMSG_INTREQUEST@@YAXXZ 10001760 f   _DataMonitorManager.obj
 0001:00000780       ??__ERMSG_SETPCTRDATA@@YAXXZ 10001780 f   _DataMonitorManager.obj
 0001:000007a0       ??__ERMSG_CONCERNHWND@@YAXXZ 100017a0 f   _DataUtilManager.obj
 0001:000007c0       ??__ERMSG_GETPCTRDATA@@YAXXZ 100017c0 f   _DataUtilManager.obj
 0001:000007e0       ??__ERMSG_GWANSIMREGISTER@@YAXXZ 100017e0 f   _DataUtilManager.obj
 0001:00000800       ??__ERMSG_INTERFACE@@YAXXZ 10001800 f   _DataUtilManager.obj
 0001:00000820       ??__ERMSG_INTREQUEST@@YAXXZ 10001820 f   _DataUtilManager.obj
 0001:00000840       ??__ERMSG_SETPCTRDATA@@YAXXZ 10001840 f   _DataUtilManager.obj
 0001:00000860       ??__ERMSG_CONCERNHWND@@YAXXZ 10001860 f   _DebugManager.obj
 0001:00000880       ??__ERMSG_GETPCTRDATA@@YAXXZ 10001880 f   _DebugManager.obj
 0001:000008a0       ??__ERMSG_GWANSIMREGISTER@@YAXXZ 100018a0 f   _DebugManager.obj
 0001:000008c0       ??__ERMSG_INTERFACE@@YAXXZ 100018c0 f   _DebugManager.obj
 0001:000008e0       ??__ERMSG_INTREQUEST@@YAXXZ 100018e0 f   _DebugManager.obj
 0001:00000900       ??__ERMSG_SETPCTRDATA@@YAXXZ 10001900 f   _DebugManager.obj
 0001:00000920       ??__Em_uRMSG_HandleToDebug@@YAXXZ 10001920 f   _DebugManager.obj
 0001:00000940       ??__ERMSG_CONCERNHWND@@YAXXZ 10001940 f   _DrdsManager.obj
 0001:00000960       ??__ERMSG_GETPCTRDATA@@YAXXZ 10001960 f   _DrdsManager.obj
 0001:00000980       ??__ERMSG_GWANSIMREGISTER@@YAXXZ 10001980 f   _DrdsManager.obj
 0001:000009a0       ??__ERMSG_INTERFACE@@YAXXZ 100019a0 f   _DrdsManager.obj
 0001:000009c0       ??__ERMSG_INTREQUEST@@YAXXZ 100019c0 f   _DrdsManager.obj
 0001:000009e0       ??__ERMSG_SETPCTRDATA@@YAXXZ 100019e0 f   _DrdsManager.obj
 0001:00000a00       ??__ERMSG_CONCERNHWND@@YAXXZ 10001a00 f   _GateManager.obj
 0001:00000a20       ??__ERMSG_GETPCTRDATA@@YAXXZ 10001a20 f   _GateManager.obj
 0001:00000a40       ??__ERMSG_GWANSIMREGISTER@@YAXXZ 10001a40 f   _GateManager.obj
 0001:00000a60       ??__ERMSG_INTERFACE@@YAXXZ 10001a60 f   _GateManager.obj
 0001:00000a80       ??__ERMSG_INTREQUEST@@YAXXZ 10001a80 f   _GateManager.obj
 0001:00000aa0       ??__ERMSG_SETPCTRDATA@@YAXXZ 10001aa0 f   _GateManager.obj
 0001:00000ac0       ??__ERMSG_CONCERNHWND@@YAXXZ 10001ac0 f   _GwanManager.obj
 0001:00000ae0       ??__ERMSG_GETPCTRDATA@@YAXXZ 10001ae0 f   _GwanManager.obj
 0001:00000b00       ??__ERMSG_GWANSIMREGISTER@@YAXXZ 10001b00 f   _GwanManager.obj
 0001:00000b20       ??__ERMSG_INTERFACE@@YAXXZ 10001b20 f   _GwanManager.obj
 0001:00000b40       ??__ERMSG_INTREQUEST@@YAXXZ 10001b40 f   _GwanManager.obj
 0001:00000b60       ??__ERMSG_SETPCTRDATA@@YAXXZ 10001b60 f   _GwanManager.obj
 0001:00000b80       ??__ERMSG_CONCERNHWND@@YAXXZ 10001b80 f   _MainExInfoManager.obj
 0001:00000ba0       ??__ERMSG_GETPCTRDATA@@YAXXZ 10001ba0 f   _MainExInfoManager.obj
 0001:00000bc0       ??__ERMSG_GWANSIMREGISTER@@YAXXZ 10001bc0 f   _MainExInfoManager.obj
 0001:00000be0       ??__ERMSG_INTERFACE@@YAXXZ 10001be0 f   _MainExInfoManager.obj
 0001:00000c00       ??__ERMSG_INTREQUEST@@YAXXZ 10001c00 f   _MainExInfoManager.obj
 0001:00000c20       ??__ERMSG_SETPCTRDATA@@YAXXZ 10001c20 f   _MainExInfoManager.obj
 0001:00000c40       ??__ERMSG_CONCERNHWND@@YAXXZ 10001c40 f   _MainInfoManager.obj
 0001:00000c60       ??__ERMSG_GETPCTRDATA@@YAXXZ 10001c60 f   _MainInfoManager.obj
 0001:00000c80       ??__ERMSG_GWANSIMREGISTER@@YAXXZ 10001c80 f   _MainInfoManager.obj
 0001:00000ca0       ??__ERMSG_INTERFACE@@YAXXZ 10001ca0 f   _MainInfoManager.obj
 0001:00000cc0       ??__ERMSG_INTREQUEST@@YAXXZ 10001cc0 f   _MainInfoManager.obj
 0001:00000ce0       ??__ERMSG_SETPCTRDATA@@YAXXZ 10001ce0 f   _MainInfoManager.obj
 0001:00000d00       ??__ERMSG_CONCERNHWND@@YAXXZ 10001d00 f   _MasterDataManager.obj
 0001:00000d20       ??__ERMSG_GETPCTRDATA@@YAXXZ 10001d20 f   _MasterDataManager.obj
 0001:00000d40       ??__ERMSG_GWANSIMREGISTER@@YAXXZ 10001d40 f   _MasterDataManager.obj
 0001:00000d60       ??__ERMSG_INTERFACE@@YAXXZ 10001d60 f   _MasterDataManager.obj
 0001:00000d80       ??__ERMSG_INTREQUEST@@YAXXZ 10001d80 f   _MasterDataManager.obj
 0001:00000da0       ??__ERMSG_SETPCTRDATA@@YAXXZ 10001da0 f   _MasterDataManager.obj
 0001:00000dc0       ??__ERMSG_CONCERNHWND@@YAXXZ 10001dc0 f   _NewSignalManager.obj
 0001:00000de0       ??__ERMSG_GETPCTRDATA@@YAXXZ 10001de0 f   _NewSignalManager.obj
 0001:00000e00       ??__ERMSG_GWANSIMREGISTER@@YAXXZ 10001e00 f   _NewSignalManager.obj
 0001:00000e20       ??__ERMSG_INTERFACE@@YAXXZ 10001e20 f   _NewSignalManager.obj
 0001:00000e40       ??__ERMSG_INTREQUEST@@YAXXZ 10001e40 f   _NewSignalManager.obj
 0001:00000e60       ??__ERMSG_SETPCTRDATA@@YAXXZ 10001e60 f   _NewSignalManager.obj
 0001:00000e80       ??__ERMSG_CONCERNHWND@@YAXXZ 10001e80 f   _PCTrManager.obj
 0001:00000ea0       ??__ERMSG_GETPCTRDATA@@YAXXZ 10001ea0 f   _PCTrManager.obj
 0001:00000ec0       ??__ERMSG_GWANSIMREGISTER@@YAXXZ 10001ec0 f   _PCTrManager.obj
 0001:00000ee0       ??__ERMSG_INTERFACE@@YAXXZ 10001ee0 f   _PCTrManager.obj
 0001:00000f00       ??__ERMSG_INTREQUEST@@YAXXZ 10001f00 f   _PCTrManager.obj
 0001:00000f20       ??__ERMSG_SETPCTRDATA@@YAXXZ 10001f20 f   _PCTrManager.obj
 0001:00000f40       ??__ERMSG_CONCERNHWND@@YAXXZ 10001f40 f   _RegistryManager.obj
 0001:00000f60       ??__ERMSG_GETPCTRDATA@@YAXXZ 10001f60 f   _RegistryManager.obj
 0001:00000f80       ??__ERMSG_GWANSIMREGISTER@@YAXXZ 10001f80 f   _RegistryManager.obj
 0001:00000fa0       ??__ERMSG_INTERFACE@@YAXXZ 10001fa0 f   _RegistryManager.obj
 0001:00000fc0       ??__ERMSG_INTREQUEST@@YAXXZ 10001fc0 f   _RegistryManager.obj
 0001:00000fe0       ??__ERMSG_SETPCTRDATA@@YAXXZ 10001fe0 f   _RegistryManager.obj
 0001:00001000       ??__ERMSG_CONCERNHWND@@YAXXZ 10002000 f   _SkinColorManager.obj
 0001:00001020       ??__ERMSG_GETPCTRDATA@@YAXXZ 10002020 f   _SkinColorManager.obj
 0001:00001040       ??__ERMSG_GWANSIMREGISTER@@YAXXZ 10002040 f   _SkinColorManager.obj
 0001:00001060       ??__ERMSG_INTERFACE@@YAXXZ 10002060 f   _SkinColorManager.obj
 0001:00001080       ??__ERMSG_INTREQUEST@@YAXXZ 10002080 f   _SkinColorManager.obj
 0001:000010a0       ??__ERMSG_SETPCTRDATA@@YAXXZ 100020a0 f   _SkinColorManager.obj
 0001:000010c0       ??__ERMSG_CONCERNHWND@@YAXXZ 100020c0 f   _STManager.obj
 0001:000010e0       ??__ERMSG_GETPCTRDATA@@YAXXZ 100020e0 f   _STManager.obj
 0001:00001100       ??__ERMSG_GWANSIMREGISTER@@YAXXZ 10002100 f   _STManager.obj
 0001:00001120       ??__ERMSG_INTERFACE@@YAXXZ 10002120 f   _STManager.obj
 0001:00001140       ??__ERMSG_INTREQUEST@@YAXXZ 10002140 f   _STManager.obj
 0001:00001160       ??__ERMSG_SETPCTRDATA@@YAXXZ 10002160 f   _STManager.obj
 0001:00001180       ??__ERMSG_CONCERNHWND@@YAXXZ 10002180 f   _SystemUtilManager.obj
 0001:000011a0       ??__ERMSG_GETPCTRDATA@@YAXXZ 100021a0 f   _SystemUtilManager.obj
 0001:000011c0       ??__ERMSG_GWANSIMREGISTER@@YAXXZ 100021c0 f   _SystemUtilManager.obj
 0001:000011e0       ??__ERMSG_INTERFACE@@YAXXZ 100021e0 f   _SystemUtilManager.obj
 0001:00001200       ??__ERMSG_INTREQUEST@@YAXXZ 10002200 f   _SystemUtilManager.obj
 0001:00001220       ??__ERMSG_SETPCTRDATA@@YAXXZ 10002220 f   _SystemUtilManager.obj
 0001:00001240       ??__ERMSG_CONCERNHWND@@YAXXZ 10002240 f   _TRCommManager.obj
 0001:00001260       ??__ERMSG_GETPCTRDATA@@YAXXZ 10002260 f   _TRCommManager.obj
 0001:00001280       ??__ERMSG_GWANSIMREGISTER@@YAXXZ 10002280 f   _TRCommManager.obj
 0001:000012a0       ??__ERMSG_INTERFACE@@YAXXZ 100022a0 f   _TRCommManager.obj
 0001:000012c0       ??__ERMSG_INTREQUEST@@YAXXZ 100022c0 f   _TRCommManager.obj
 0001:000012e0       ??__ERMSG_SETPCTRDATA@@YAXXZ 100022e0 f   _TRCommManager.obj
 0001:000012f1       ??__E?isInitialized@CAtlStringMgr@ATL@@0_NA@@YAXXZ 100022f1 f   mfcs140:nolib.obj
 0001:00001305       ??__EInitializeCAtlStringMgr@ATLImplementationDetails@ATL@@YAXXZ 10002305 f   mfcs140:nolib.obj
 0001:0000130a       ??__E_AtlComModule@ATL@@YAXXZ 1000230a f   mfcs140:nolib.obj
 0001:00001320       ??__E_AtlWinModule@ATL@@YAXXZ 10002320 f   mfcs140:nolib.obj
 0001:00001336       ??__E?isInitialized@CAtlStringMgr@ATL@@0_NA@@YAXXZ 10002336 f   mfcs140:dllmodul.obj
 0001:0000134a       ??__EInitializeCAtlStringMgr@ATLImplementationDetails@ATL@@YAXXZ 1000234a f   mfcs140:dllmodul.obj
 0001:0000134f       ??__E_AtlComModule@ATL@@YAXXZ 1000234f f   mfcs140:dllmodul.obj
 0001:00001365       ??__E_AtlWinModule@ATL@@YAXXZ 10002365 f   mfcs140:dllmodul.obj
 0001:0000137b       ??__EafxModuleState@@YAXXZ 1000237b f   mfcs140:dllmodul.obj
 0001:000013a9       ??__E?isInitialized@CAtlStringMgr@ATL@@0_NA@@YAXXZ 100023a9 f   mfcs140:stdafx.obj
 0001:000013bd       ??__EInitializeCAtlStringMgr@ATLImplementationDetails@ATL@@YAXXZ 100023bd f   mfcs140:stdafx.obj
 0001:000013c2       ??__E_AtlComModule@ATL@@YAXXZ 100023c2 f   mfcs140:stdafx.obj
 0001:000013d8       ??__E_AtlWinModule@ATL@@YAXXZ 100023d8 f   mfcs140:stdafx.obj
 0001:000013ee       ??__E?isInitialized@CAtlStringMgr@ATL@@0_NA@@YAXXZ 100023ee f   mfcs140:dllmodulx.obj
 0001:00001402       ??__EInitializeCAtlStringMgr@ATLImplementationDetails@ATL@@YAXXZ 10002402 f   mfcs140:dllmodulx.obj
 0001:00001407       ??__E_AtlComModule@ATL@@YAXXZ 10002407 f   mfcs140:dllmodulx.obj
 0001:0000141d       ??__E_AtlWinModule@ATL@@YAXXZ 1000241d f   mfcs140:dllmodulx.obj
 0001:00001433       ??__E_AtlBaseModule@ATL@@YAXXZ 10002433 f   atls:atlbase.obj
 0001:0000b084       $LN10                      1000c084     _DataUtilManager.obj
 0001:0000d34c       $LN49                      1000e34c     _GateManager.obj
 0001:0000d364       $LN48                      1000e364     _GateManager.obj
 0001:0001117c       $LN131                     1001217c     _MasterDataManager.obj
 0001:000111ac       $LN130                     100121ac     _MasterDataManager.obj
 0001:000127ec       $LN140                     100137ec     _MasterDataManager.obj
 0001:0001280c       $LN139                     1001380c     _MasterDataManager.obj
 0001:00013628       $LN51                      10014628     _MasterDataManager.obj
 0001:000188c8       $LN12                      100198c8     _SkinColorManager.obj
 0001:000188d8       $LN11                      100198d8     _SkinColorManager.obj
 0001:0001c9de       __catch$_InternalDllMain@12$2 1001d9de f   mfcs140:dllmodul.obj
 0001:0001cb77       ?find_pe_section@@YAPAU_IMAGE_SECTION_HEADER@@QAEI@Z 1001db77 f   msvcrt:utility.obj
 0001:0001cbc0       ?is_potentially_valid_image_base@@YA_NQAX@Z 1001dbc0 f   msvcrt:utility.obj
 0001:0001cef4       ?__scrt_initialize_thread_safe_statics@@YAHXZ 1001def4 f   msvcrt:thread_safe_statics.obj
 0001:0001cf1b       ?__scrt_initialize_thread_safe_statics_platform_specific@@YAXXZ 1001df1b f   msvcrt:thread_safe_statics.obj
 0001:0001cf9d       ?__scrt_uninitialize_thread_safe_statics@@YAXXZ 1001df9d f   msvcrt:thread_safe_statics.obj
 0001:0001d218       ?ArrayUnwindFilter@@YAHPAU_EXCEPTION_POINTERS@@@Z 1001e218 f   msvcrt:ehvecdtr.obj
 0001:0001d5f0       $$000000                   1001e5f0     msvcrt:chkstk.obj
 0001:0001d604       cs10                       1001e604     msvcrt:chkstk.obj
 0001:0001d612       cs20                       1001e612     msvcrt:chkstk.obj
 0001:0001d620       $$000000                   1001e620     msvcrt:alloca16.obj
 0001:0001d636       alloca_8                   1001e636     msvcrt:alloca16.obj
 0001:0001d64c       ?dllmain_crt_dispatch@@YGHQAUHINSTANCE__@@KQAX@Z 1001e64c f   msvcrt:dll_dllmain.obj
 0001:0001d69f       ?dllmain_crt_process_attach@@YAHQAUHINSTANCE__@@QAX@Z 1001e69f f   msvcrt:dll_dllmain.obj
 0001:0001d7a6       ?dllmain_crt_process_detach@@YAH_N@Z 1001e7a6 f   msvcrt:dll_dllmain.obj
 0001:0001d856       ?dllmain_dispatch@@YAHQAUHINSTANCE__@@KQAX@Z 1001e856 f   msvcrt:dll_dllmain.obj
 0001:0001d961       ?dllmain_raw@@YGHQAUHINSTANCE__@@KQAX@Z 1001e961 f   msvcrt:dll_dllmain.obj
 0001:0001dad0       $$000000                   1001ead0     msvcrt:sehprolg4.obj
 0001:0001db20       $$000000                   1001eb20     msvcrt:sehprolg4.obj
 0001:0001db40       $$000000                   1001eb40     msvcrt:sehprolg4gs.obj
 0001:0001db90       $$000000                   1001eb90     msvcrt:sehprolg4gs.obj
 0001:0001dc5b       ___castguard_compat_check  1001ec5b f   msvcrt:guard_support.obj
 0001:0001dd23       ___castguard_slow_path_compat_check 1001ed23 f   msvcrt:guard_support.obj
 0001:0001e134       ___get_entropy             1001f134 f   msvcrt:gs_support.obj
 0001:0001e82e       _memmove_s                 1001f82e f   atls:atlbase.obj
 0001:0001eaeb       __FindPESection            1001faeb f   mfcs140:rawdllmainproxy.obj
 0001:0001eb2f       __IsNonwritableInCurrentImage 1001fb2f f   mfcs140:rawdllmainproxy.obj
 0001:0001ebc6       __ValidateImageBase        1001fbc6 f   mfcs140:rawdllmainproxy.obj
 0001:0001ec90       __ehhandler$??1CDispDesk@@QAE@XZ 1001fc90 f   DispDesk.obj
 0001:0001ecb0       __unwindfunclet$?GetCtrlNameFromHwnd@CDispDesk@@QAE?AV?$CStringT@DV?$StrTraitMFC_DLL@DV?$ChTraitsCRT@D@ATL@@@@@ATL@@J@Z$0 1001fcb0 f   DispDesk.obj
 0001:0001eccf       __ehhandler$?GetCtrlNameFromHwnd@CDispDesk@@QAE?AV?$CStringT@DV?$StrTraitMFC_DLL@DV?$ChTraitsCRT@D@ATL@@@@@ATL@@J@Z 1001fccf f   DispDesk.obj
 0001:0001ecf0       __unwindfunclet$?GetCtrlTypeFromHwnd@CDispDesk@@QAE?AV?$CStringT@DV?$StrTraitMFC_DLL@DV?$ChTraitsCRT@D@ATL@@@@@ATL@@J@Z$0 1001fcf0 f   DispDesk.obj
 0001:0001ed0f       __ehhandler$?GetCtrlTypeFromHwnd@CDispDesk@@QAE?AV?$CStringT@DV?$StrTraitMFC_DLL@DV?$ChTraitsCRT@D@ATL@@@@@ATL@@J@Z 1001fd0f f   DispDesk.obj
 0001:0001ed30       __unwindfunclet$?GetCtrlTypeFromName@CDispDesk@@QAE?AV?$CStringT@DV?$StrTraitMFC_DLL@DV?$ChTraitsCRT@D@ATL@@@@@ATL@@PBD@Z$0 1001fd30 f   DispDesk.obj
 0001:0001ed4f       __ehhandler$?GetCtrlTypeFromName@CDispDesk@@QAE?AV?$CStringT@DV?$StrTraitMFC_DLL@DV?$ChTraitsCRT@D@ATL@@@@@ATL@@PBD@Z 1001fd4f f   DispDesk.obj
 0001:0001ed70       __unwindfunclet$?GetCurrentMsgCode@CDispDesk@@QAE?AV?$CStringT@DV?$StrTraitMFC_DLL@DV?$ChTraitsCRT@D@ATL@@@@@ATL@@XZ$0 1001fd70 f   DispDesk.obj
 0001:0001ed8f       __ehhandler$?GetCurrentMsgCode@CDispDesk@@QAE?AV?$CStringT@DV?$StrTraitMFC_DLL@DV?$ChTraitsCRT@D@ATL@@@@@ATL@@XZ 1001fd8f f   DispDesk.obj
 0001:0001edb0       __unwindfunclet$?GetCurrentTrMessage@CDispDesk@@QAE?AV?$CStringT@DV?$StrTraitMFC_DLL@DV?$ChTraitsCRT@D@ATL@@@@@ATL@@XZ$0 1001fdb0 f   DispDesk.obj
 0001:0001edcf       __ehhandler$?GetCurrentTrMessage@CDispDesk@@QAE?AV?$CStringT@DV?$StrTraitMFC_DLL@DV?$ChTraitsCRT@D@ATL@@@@@ATL@@XZ 1001fdcf f   DispDesk.obj
 0001:0001edf0       __unwindfunclet$?GetMapData@CDispDesk@@QAE?AV?$CStringT@DV?$StrTraitMFC_DLL@DV?$ChTraitsCRT@D@ATL@@@@@ATL@@XZ$0 1001fdf0 f   DispDesk.obj
 0001:0001ee0f       __ehhandler$?GetMapData@CDispDesk@@QAE?AV?$CStringT@DV?$StrTraitMFC_DLL@DV?$ChTraitsCRT@D@ATL@@@@@ATL@@XZ 1001fe0f f   DispDesk.obj
 0001:0001ee30       __unwindfunclet$?GetMapName@CDispDesk@@QAE?AV?$CStringT@DV?$StrTraitMFC_DLL@DV?$ChTraitsCRT@D@ATL@@@@@ATL@@XZ$0 1001fe30 f   DispDesk.obj
 0001:0001ee4f       __ehhandler$?GetMapName@CDispDesk@@QAE?AV?$CStringT@DV?$StrTraitMFC_DLL@DV?$ChTraitsCRT@D@ATL@@@@@ATL@@XZ 1001fe4f f   DispDesk.obj
 0001:0001ee70       __unwindfunclet$?GetOpenMapData@CDispDesk@@QAE?AV?$CStringT@DV?$StrTraitMFC_DLL@DV?$ChTraitsCRT@D@ATL@@@@@ATL@@XZ$0 1001fe70 f   DispDesk.obj
 0001:0001ee8f       __ehhandler$?GetOpenMapData@CDispDesk@@QAE?AV?$CStringT@DV?$StrTraitMFC_DLL@DV?$ChTraitsCRT@D@ATL@@@@@ATL@@XZ 1001fe8f f   DispDesk.obj
 0001:0001eeb0       __unwindfunclet$?GetRootPath@CDispDesk@@QAE?AV?$CStringT@DV?$StrTraitMFC_DLL@DV?$ChTraitsCRT@D@ATL@@@@@ATL@@PBD@Z$0 1001feb0 f   DispDesk.obj
 0001:0001eecf       __ehhandler$?GetRootPath@CDispDesk@@QAE?AV?$CStringT@DV?$StrTraitMFC_DLL@DV?$ChTraitsCRT@D@ATL@@@@@ATL@@PBD@Z 1001fecf f   DispDesk.obj
 0001:0001eef0       __unwindfunclet$?GetTrList@CDispDesk@@QAE?AV?$CStringT@DV?$StrTraitMFC_DLL@DV?$ChTraitsCRT@D@ATL@@@@@ATL@@XZ$0 1001fef0 f   DispDesk.obj
 0001:0001ef0f       __ehhandler$?GetTrList@CDispDesk@@QAE?AV?$CStringT@DV?$StrTraitMFC_DLL@DV?$ChTraitsCRT@D@ATL@@@@@ATL@@XZ 1001ff0f f   DispDesk.obj
 0001:0001ef30       __unwindfunclet$?GetMapCfgFile@CDispFormData@@QAE?AV?$CStringT@DV?$StrTraitMFC_DLL@DV?$ChTraitsCRT@D@ATL@@@@@ATL@@XZ$0 1001ff30 f   DispFormData.obj
 0001:0001ef4f       __ehhandler$?GetMapCfgFile@CDispFormData@@QAE?AV?$CStringT@DV?$StrTraitMFC_DLL@DV?$ChTraitsCRT@D@ATL@@@@@ATL@@XZ 1001ff4f f   DispFormData.obj
 0001:0001ef70       __unwindfunclet$?GetPrivateDataString@CDispFormData@@QAE?AV?$CStringT@DV?$StrTraitMFC_DLL@DV?$ChTraitsCRT@D@ATL@@@@@ATL@@PBD000@Z$0 1001ff70 f   DispFormData.obj
 0001:0001ef8f       __ehhandler$?GetPrivateDataString@CDispFormData@@QAE?AV?$CStringT@DV?$StrTraitMFC_DLL@DV?$ChTraitsCRT@D@ATL@@@@@ATL@@PBD000@Z 1001ff8f f   DispFormData.obj
 0001:0001efb0       __unwindfunclet$?GetUserDataPath@CDispFormData@@QAE?AV?$CStringT@DV?$StrTraitMFC_DLL@DV?$ChTraitsCRT@D@ATL@@@@@ATL@@PBD@Z$0 1001ffb0 f   DispFormData.obj
 0001:0001efcf       __ehhandler$?GetUserDataPath@CDispFormData@@QAE?AV?$CStringT@DV?$StrTraitMFC_DLL@DV?$ChTraitsCRT@D@ATL@@@@@ATL@@PBD@Z 1001ffcf f   DispFormData.obj
 0001:0001eff0       __unwindfunclet$?LoadStringDataInCfg@CDispFormData@@QAE?AV?$CStringT@DV?$StrTraitMFC_DLL@DV?$ChTraitsCRT@D@ATL@@@@@ATL@@PBD00@Z$0 1001fff0 f   DispFormData.obj
 0001:0001f00f       __ehhandler$?LoadStringDataInCfg@CDispFormData@@QAE?AV?$CStringT@DV?$StrTraitMFC_DLL@DV?$ChTraitsCRT@D@ATL@@@@@ATL@@PBD00@Z 1002000f f   DispFormData.obj
 0001:0001f030       __unwindfunclet$?GetFrameInfoFile@CDispFrame@@QAE?AV?$CStringT@DV?$StrTraitMFC_DLL@DV?$ChTraitsCRT@D@ATL@@@@@ATL@@XZ$0 10020030 f   DispFrame.obj
 0001:0001f04f       __ehhandler$?GetFrameInfoFile@CDispFrame@@QAE?AV?$CStringT@DV?$StrTraitMFC_DLL@DV?$ChTraitsCRT@D@ATL@@@@@ATL@@XZ 1002004f f   DispFrame.obj
 0001:0001f070       __unwindfunclet$?GetFrameScrNum@CDispFrame@@QAE?AV?$CStringT@DV?$StrTraitMFC_DLL@DV?$ChTraitsCRT@D@ATL@@@@@ATL@@XZ$0 10020070 f   DispFrame.obj
 0001:0001f08f       __ehhandler$?GetFrameScrNum@CDispFrame@@QAE?AV?$CStringT@DV?$StrTraitMFC_DLL@DV?$ChTraitsCRT@D@ATL@@@@@ATL@@XZ 1002008f f   DispFrame.obj
 0001:0001f0b0       __unwindfunclet$?GetAcctList@CDispMain@@QAE?AV?$CStringT@DV?$StrTraitMFC_DLL@DV?$ChTraitsCRT@D@ATL@@@@@ATL@@XZ$0 100200b0 f   DispMain.obj
 0001:0001f0cf       __ehhandler$?GetAcctList@CDispMain@@QAE?AV?$CStringT@DV?$StrTraitMFC_DLL@DV?$ChTraitsCRT@D@ATL@@@@@ATL@@XZ 100200cf f   DispMain.obj
 0001:0001f0f0       __unwindfunclet$?GetAcctPasswd@CDispMain@@QAE?AV?$CStringT@DV?$StrTraitMFC_DLL@DV?$ChTraitsCRT@D@ATL@@@@@ATL@@PBD@Z$0 100200f0 f   DispMain.obj
 0001:0001f10f       __ehhandler$?GetAcctPasswd@CDispMain@@QAE?AV?$CStringT@DV?$StrTraitMFC_DLL@DV?$ChTraitsCRT@D@ATL@@@@@ATL@@PBD@Z 1002010f f   DispMain.obj
 0001:0001f130       __unwindfunclet$?GetBatchAcctInfo@CDispMain@@QAE?AV?$CStringT@DV?$StrTraitMFC_DLL@DV?$ChTraitsCRT@D@ATL@@@@@ATL@@PBD@Z$0 10020130 f   DispMain.obj
 0001:0001f14f       __ehhandler$?GetBatchAcctInfo@CDispMain@@QAE?AV?$CStringT@DV?$StrTraitMFC_DLL@DV?$ChTraitsCRT@D@ATL@@@@@ATL@@PBD@Z 1002014f f   DispMain.obj
 0001:0001f170       __unwindfunclet$?GetFrameSize@CDispMain@@QAE?AV?$CStringT@DV?$StrTraitMFC_DLL@DV?$ChTraitsCRT@D@ATL@@@@@ATL@@F@Z$0 10020170 f   DispMain.obj
 0001:0001f18f       __ehhandler$?GetFrameSize@CDispMain@@QAE?AV?$CStringT@DV?$StrTraitMFC_DLL@DV?$ChTraitsCRT@D@ATL@@@@@ATL@@F@Z 1002018f f   DispMain.obj
 0001:0001f1b0       __unwindfunclet$?GetFrameVariable@CDispMain@@QAE?AV?$CStringT@DV?$StrTraitMFC_DLL@DV?$ChTraitsCRT@D@ATL@@@@@ATL@@PBD@Z$0 100201b0 f   DispMain.obj
 0001:0001f1cf       __ehhandler$?GetFrameVariable@CDispMain@@QAE?AV?$CStringT@DV?$StrTraitMFC_DLL@DV?$ChTraitsCRT@D@ATL@@@@@ATL@@PBD@Z 100201cf f   DispMain.obj
 0001:0001f1f0       __unwindfunclet$?GetGShareData@CDispMain@@QAE?AV?$CStringT@DV?$StrTraitMFC_DLL@DV?$ChTraitsCRT@D@ATL@@@@@ATL@@PBD@Z$0 100201f0 f   DispMain.obj
 0001:0001f20f       __ehhandler$?GetGShareData@CDispMain@@QAE?AV?$CStringT@DV?$StrTraitMFC_DLL@DV?$ChTraitsCRT@D@ATL@@@@@ATL@@PBD@Z 1002020f f   DispMain.obj
 0001:0001f230       __unwindfunclet$?GetGwanCode@CDispMain@@QAE?AV?$CStringT@DV?$StrTraitMFC_DLL@DV?$ChTraitsCRT@D@ATL@@@@@ATL@@PBD@Z$0 10020230 f   DispMain.obj
 0001:0001f24f       __ehhandler$?GetGwanCode@CDispMain@@QAE?AV?$CStringT@DV?$StrTraitMFC_DLL@DV?$ChTraitsCRT@D@ATL@@@@@ATL@@PBD@Z 1002024f f   DispMain.obj
 0001:0001f270       __unwindfunclet$?GetGwanCodeOneGroup@CDispMain@@QAE?AV?$CStringT@DV?$StrTraitMFC_DLL@DV?$ChTraitsCRT@D@ATL@@@@@ATL@@PBD0@Z$0 10020270 f   DispMain.obj
 0001:0001f28f       __ehhandler$?GetGwanCodeOneGroup@CDispMain@@QAE?AV?$CStringT@DV?$StrTraitMFC_DLL@DV?$ChTraitsCRT@D@ATL@@@@@ATL@@PBD0@Z 1002028f f   DispMain.obj
 0001:0001f2b0       __unwindfunclet$?GetGwanList@CDispMain@@QAE?AV?$CStringT@DV?$StrTraitMFC_DLL@DV?$ChTraitsCRT@D@ATL@@@@@ATL@@XZ$0 100202b0 f   DispMain.obj
 0001:0001f2cf       __ehhandler$?GetGwanList@CDispMain@@QAE?AV?$CStringT@DV?$StrTraitMFC_DLL@DV?$ChTraitsCRT@D@ATL@@@@@ATL@@XZ 100202cf f   DispMain.obj
 0001:0001f2f0       __unwindfunclet$?GetMapInfo@CDispMain@@QAE?AV?$CStringT@DV?$StrTraitMFC_DLL@DV?$ChTraitsCRT@D@ATL@@@@@ATL@@F@Z$0 100202f0 f   DispMain.obj
 0001:0001f30f       __ehhandler$?GetMapInfo@CDispMain@@QAE?AV?$CStringT@DV?$StrTraitMFC_DLL@DV?$ChTraitsCRT@D@ATL@@@@@ATL@@F@Z 1002030f f   DispMain.obj
 0001:0001f330       __unwindfunclet$?GetMasterData@CDispMain@@QAE?AV?$CStringT@DV?$StrTraitMFC_DLL@DV?$ChTraitsCRT@D@ATL@@@@@ATL@@F@Z$0 10020330 f   DispMain.obj
 0001:0001f34f       __ehhandler$?GetMasterData@CDispMain@@QAE?AV?$CStringT@DV?$StrTraitMFC_DLL@DV?$ChTraitsCRT@D@ATL@@@@@ATL@@F@Z 1002034f f   DispMain.obj
 0001:0001f370       __unwindfunclet$?GetUserInfo@CDispMain@@QAE?AV?$CStringT@DV?$StrTraitMFC_DLL@DV?$ChTraitsCRT@D@ATL@@@@@ATL@@F@Z$0 10020370 f   DispMain.obj
 0001:0001f38f       __ehhandler$?GetUserInfo@CDispMain@@QAE?AV?$CStringT@DV?$StrTraitMFC_DLL@DV?$ChTraitsCRT@D@ATL@@@@@ATL@@F@Z 1002038f f   DispMain.obj
 0001:0001f3b0       __unwindfunclet$?IHGetSectionData@CDispMain@@QAE?AV?$CStringT@DV?$StrTraitMFC_DLL@DV?$ChTraitsCRT@D@ATL@@@@@ATL@@PBD0000@Z$0 100203b0 f   DispMain.obj
 0001:0001f3cf       __ehhandler$?IHGetSectionData@CDispMain@@QAE?AV?$CStringT@DV?$StrTraitMFC_DLL@DV?$ChTraitsCRT@D@ATL@@@@@ATL@@PBD0000@Z 100203cf f   DispMain.obj
 0001:0001f3f0       __unwindfunclet$?IHGetSectionNames@CDispMain@@QAE?AV?$CStringT@DV?$StrTraitMFC_DLL@DV?$ChTraitsCRT@D@ATL@@@@@ATL@@PBD0@Z$0 100203f0 f   DispMain.obj
 0001:0001f40f       __ehhandler$?IHGetSectionNames@CDispMain@@QAE?AV?$CStringT@DV?$StrTraitMFC_DLL@DV?$ChTraitsCRT@D@ATL@@@@@ATL@@PBD0@Z 1002040f f   DispMain.obj
 0001:0001f430       __ehhandler$??1CDispCodeOcx@@QAE@XZ 10020430 f   CodeOcx.obj
 0001:0001f450       __unwindfunclet$?GetCodeInfo@CDispCodeOcx@@QAE?AV?$CStringT@DV?$StrTraitMFC_DLL@DV?$ChTraitsCRT@D@ATL@@@@@ATL@@PBDF0@Z$0 10020450 f   CodeOcx.obj
 0001:0001f46f       __ehhandler$?GetCodeInfo@CDispCodeOcx@@QAE?AV?$CStringT@DV?$StrTraitMFC_DLL@DV?$ChTraitsCRT@D@ATL@@@@@ATL@@PBDF0@Z 1002046f f   CodeOcx.obj
 0001:0001f490       __unwindfunclet$?GetHistoryList@CDispCodeOcx@@QAE?AV?$CStringT@DV?$StrTraitMFC_DLL@DV?$ChTraitsCRT@D@ATL@@@@@ATL@@FJ@Z$0 10020490 f   CodeOcx.obj
 0001:0001f4af       __ehhandler$?GetHistoryList@CDispCodeOcx@@QAE?AV?$CStringT@DV?$StrTraitMFC_DLL@DV?$ChTraitsCRT@D@ATL@@@@@ATL@@FJ@Z 100204af f   CodeOcx.obj
 0001:0001f4d0       __unwindfunclet$?GetMaxHangSaGa@CDispCodeOcx@@QAE?AV?$CStringT@DV?$StrTraitMFC_DLL@DV?$ChTraitsCRT@D@ATL@@@@@ATL@@XZ$0 100204d0 f   CodeOcx.obj
 0001:0001f4ef       __ehhandler$?GetMaxHangSaGa@CDispCodeOcx@@QAE?AV?$CStringT@DV?$StrTraitMFC_DLL@DV?$ChTraitsCRT@D@ATL@@@@@ATL@@XZ 100204ef f   CodeOcx.obj
 0001:0001f510       __unwindfunclet$??0CControlPos@@QAE@PAVCWnd@@@Z$0 10020510 f   ControlPos.obj
 0001:0001f520       __ehhandler$??0CControlPos@@QAE@PAVCWnd@@@Z 10020520 f   ControlPos.obj
 0001:0001f540       __ehhandler$??1CControlPos@@UAE@XZ 10020540 f   ControlPos.obj
 0001:0001f560       __ehhandler$??_GCControlPos@@UAEPAXI@Z 10020560 f   ControlPos.obj
 0001:0001f580       __unwindfunclet$?AddControl@CControlPos@@QAEHABIABKV?$CStringT@DV?$StrTraitMFC_DLL@DV?$ChTraitsCRT@D@ATL@@@@@ATL@@@Z$0 10020580 f   ControlPos.obj
 0001:0001f589       __unwindfunclet$?AddControl@CControlPos@@QAEHABIABKV?$CStringT@DV?$StrTraitMFC_DLL@DV?$ChTraitsCRT@D@ATL@@@@@ATL@@@Z$2 10020589 f   ControlPos.obj
 0001:0001f597       __ehhandler$?AddControl@CControlPos@@QAEHABIABKV?$CStringT@DV?$StrTraitMFC_DLL@DV?$ChTraitsCRT@D@ATL@@@@@ATL@@@Z 10020597 f   ControlPos.obj
 0001:0001f5c0       __unwindfunclet$?AddControl@CControlPos@@QAEHPAVCWnd@@ABKV?$CStringT@DV?$StrTraitMFC_DLL@DV?$ChTraitsCRT@D@ATL@@@@@ATL@@@Z$0 100205c0 f   ControlPos.obj
 0001:0001f5ce       __ehhandler$?AddControl@CControlPos@@QAEHPAVCWnd@@ABKV?$CStringT@DV?$StrTraitMFC_DLL@DV?$ChTraitsCRT@D@ATL@@@@@ATL@@@Z 100205ce f   ControlPos.obj
 0001:0001f5f0       __unwindfunclet$?RegGetIP@CSystemInfo@@SA?AV?$CStringT@DV?$StrTraitMFC_DLL@DV?$ChTraitsCRT@D@ATL@@@@@ATL@@XZ$0 100205f0 f   EtcUtil.obj
 0001:0001f60a       __unwindfunclet$?RegGetIP@CSystemInfo@@SA?AV?$CStringT@DV?$StrTraitMFC_DLL@DV?$ChTraitsCRT@D@ATL@@@@@ATL@@XZ$1 1002060a f   EtcUtil.obj
 0001:0001f613       __unwindfunclet$?RegGetIP@CSystemInfo@@SA?AV?$CStringT@DV?$StrTraitMFC_DLL@DV?$ChTraitsCRT@D@ATL@@@@@ATL@@XZ$2 10020613 f   EtcUtil.obj
 0001:0001f621       __ehhandler$?RegGetIP@CSystemInfo@@SA?AV?$CStringT@DV?$StrTraitMFC_DLL@DV?$ChTraitsCRT@D@ATL@@@@@ATL@@XZ 10020621 f   EtcUtil.obj
 0001:0001f640       __unwindfunclet$?OpenWindow@CGwanWnd@@QAEHXZ$0 10020640 f   GwanWnd.obj
 0001:0001f64e       __ehhandler$?OpenWindow@CGwanWnd@@QAEHXZ 1002064e f   GwanWnd.obj
 0001:0001f670       __unwindfunclet$?GetSiganlTable@CNewsMoniterWnd@@QAEHV?$CStringT@DV?$StrTraitMFC_DLL@DV?$ChTraitsCRT@D@ATL@@@@@ATL@@AAVCStringArray@@@Z$0 10020670 f   NewsMoniterWnd.obj
 0001:0001f67e       __ehhandler$?GetSiganlTable@CNewsMoniterWnd@@QAEHV?$CStringT@DV?$StrTraitMFC_DLL@DV?$ChTraitsCRT@D@ATL@@@@@ATL@@AAVCStringArray@@@Z 1002067e f   NewsMoniterWnd.obj
 0001:0001f6a0       __unwindfunclet$?GetSignalData@CNewsMoniterWnd@@QAEXV?$CStringT@DV?$StrTraitMFC_DLL@DV?$ChTraitsCRT@D@ATL@@@@@ATL@@AAVCMapStringToPtr@@@Z$0 100206a0 f   NewsMoniterWnd.obj
 0001:0001f6ae       __ehhandler$?GetSignalData@CNewsMoniterWnd@@QAEXV?$CStringT@DV?$StrTraitMFC_DLL@DV?$ChTraitsCRT@D@ATL@@@@@ATL@@AAVCMapStringToPtr@@@Z 100206ae f   NewsMoniterWnd.obj
 0001:0001f6d0       __unwindfunclet$?OnCreate@CNewsMoniterWnd@@IAEHPAUtagCREATESTRUCTA@@@Z$0 100206d0 f   NewsMoniterWnd.obj
 0001:0001f6d9       __unwindfunclet$?OnCreate@CNewsMoniterWnd@@IAEHPAUtagCREATESTRUCTA@@@Z$1 100206d9 f   NewsMoniterWnd.obj
 0001:0001f6e6       __ehhandler$?OnCreate@CNewsMoniterWnd@@IAEHPAUtagCREATESTRUCTA@@@Z 100206e6 f   NewsMoniterWnd.obj
 0001:0001f710       __unwindfunclet$?OpenWindow@CNewsMoniterWnd@@QAEHXZ$0 10020710 f   NewsMoniterWnd.obj
 0001:0001f71e       __ehhandler$?OpenWindow@CNewsMoniterWnd@@QAEHXZ 1002071e f   NewsMoniterWnd.obj
 0001:0001f740       __unwindfunclet$?SetSignalData@CNewsMoniterWnd@@QAEXV?$CStringT@DV?$StrTraitMFC_DLL@DV?$ChTraitsCRT@D@ATL@@@@@ATL@@PAVCMapStringToPtr@@@Z$0 10020740 f   NewsMoniterWnd.obj
 0001:0001f74e       __ehhandler$?SetSignalData@CNewsMoniterWnd@@QAEXV?$CStringT@DV?$StrTraitMFC_DLL@DV?$ChTraitsCRT@D@ATL@@@@@ATL@@PAVCMapStringToPtr@@@Z 1002074e f   NewsMoniterWnd.obj
 0001:0001f770       __unwindfunclet$?SetSingSiganl@CNewsMoniterWnd@@QAEHHPAVCWnd@@V?$CStringT@DV?$StrTraitMFC_DLL@DV?$ChTraitsCRT@D@ATL@@@@@ATL@@1@Z$0 10020770 f   NewsMoniterWnd.obj
 0001:0001f779       __unwindfunclet$?SetSingSiganl@CNewsMoniterWnd@@QAEHHPAVCWnd@@V?$CStringT@DV?$StrTraitMFC_DLL@DV?$ChTraitsCRT@D@ATL@@@@@ATL@@1@Z$1 10020779 f   NewsMoniterWnd.obj
 0001:0001f782       __unwindfunclet$?SetSingSiganl@CNewsMoniterWnd@@QAEHHPAVCWnd@@V?$CStringT@DV?$StrTraitMFC_DLL@DV?$ChTraitsCRT@D@ATL@@@@@ATL@@1@Z$2 10020782 f   NewsMoniterWnd.obj
 0001:0001f790       __ehhandler$?SetSingSiganl@CNewsMoniterWnd@@QAEHHPAVCWnd@@V?$CStringT@DV?$StrTraitMFC_DLL@DV?$ChTraitsCRT@D@ATL@@@@@ATL@@1@Z 10020790 f   NewsMoniterWnd.obj
 0001:0001f7b0       __unwindfunclet$?OpenWindow@CPCtrMainWnd@@QAEHXZ$0 100207b0 f   PCtrMainWnd.obj
 0001:0001f7be       __ehhandler$?OpenWindow@CPCtrMainWnd@@QAEHXZ 100207be f   PCtrMainWnd.obj
 0001:0001f7e0       __unwindfunclet$??0CPcTrMngApp@@QAE@XZ$0 100207e0 f   PcTrMng.obj
 0001:0001f7e8       __unwindfunclet$??0CPcTrMngApp@@QAE@XZ$1 100207e8 f   PcTrMng.obj
 0001:0001f7f7       __unwindfunclet$??0CPcTrMngApp@@QAE@XZ$2 100207f7 f   PcTrMng.obj
 0001:0001f806       __unwindfunclet$??0CPcTrMngApp@@QAE@XZ$3 10020806 f   PcTrMng.obj
 0001:0001f815       __unwindfunclet$??0CPcTrMngApp@@QAE@XZ$4 10020815 f   PcTrMng.obj
 0001:0001f823       __unwindfunclet$??0CPcTrMngApp@@QAE@XZ$5 10020823 f   PcTrMng.obj
 0001:0001f831       __unwindfunclet$??0CPcTrMngApp@@QAE@XZ$6 10020831 f   PcTrMng.obj
 0001:0001f83f       __unwindfunclet$??0CPcTrMngApp@@QAE@XZ$7 1002083f f   PcTrMng.obj
 0001:0001f84d       __unwindfunclet$??0CPcTrMngApp@@QAE@XZ$8 1002084d f   PcTrMng.obj
 0001:0001f85b       __unwindfunclet$??0CPcTrMngApp@@QAE@XZ$9 1002085b f   PcTrMng.obj
 0001:0001f869       __unwindfunclet$??0CPcTrMngApp@@QAE@XZ$10 10020869 f   PcTrMng.obj
 0001:0001f877       __unwindfunclet$??0CPcTrMngApp@@QAE@XZ$11 10020877 f   PcTrMng.obj
 0001:0001f885       __unwindfunclet$??0CPcTrMngApp@@QAE@XZ$12 10020885 f   PcTrMng.obj
 0001:0001f893       __unwindfunclet$??0CPcTrMngApp@@QAE@XZ$13 10020893 f   PcTrMng.obj
 0001:0001f8a1       __unwindfunclet$??0CPcTrMngApp@@QAE@XZ$14 100208a1 f   PcTrMng.obj
 0001:0001f8b0       __unwindfunclet$??0CPcTrMngApp@@QAE@XZ$18 100208b0 f   PcTrMng.obj
 0001:0001f8ca       __unwindfunclet$??0CPcTrMngApp@@QAE@XZ$19 100208ca f   PcTrMng.obj
 0001:0001f8e4       __unwindfunclet$??0CPcTrMngApp@@QAE@XZ$20 100208e4 f   PcTrMng.obj
 0001:0001f8fe       __unwindfunclet$??0CPcTrMngApp@@QAE@XZ$21 100208fe f   PcTrMng.obj
 0001:0001f90c       __ehhandler$??0CPcTrMngApp@@QAE@XZ 1002090c f   PcTrMng.obj
 0001:0001f930       __ehhandler$??1?$CList@PAVCSTManager_Info@@PAV1@@@UAE@XZ 10020930 f   PcTrMng.obj
 0001:0001f950       __ehhandler$??_G?$CList@PAVCSTManager_Info@@PAV1@@@UAEPAXI@Z 10020950 f   PcTrMng.obj
 0001:0001f970       __unwindfunclet$?DOChartOCXRegister@CPcTrMngApp@@QAEHXZ$0 10020970 f   PcTrMng.obj
 0001:0001f97c       __unwindfunclet$?DOChartOCXRegister@CPcTrMngApp@@QAEHXZ$1 1002097c f   PcTrMng.obj
 0001:0001f98d       __ehhandler$?DOChartOCXRegister@CPcTrMngApp@@QAEHXZ 1002098d f   PcTrMng.obj
 0001:0001f9c0       __ehhandler$?ExitInstance@CPcTrMngApp@@UAEHXZ 100209c0 f   PcTrMng.obj
 0001:0001f9e0       __unwindfunclet$?GetDir_DrfnRoot@@YAXAAV?$CStringT@DV?$StrTraitMFC_DLL@DV?$ChTraitsCRT@D@ATL@@@@@ATL@@@Z$0 100209e0 f   PcTrMng.obj
 0001:0001f9ec       __unwindfunclet$?GetDir_DrfnRoot@@YAXAAV?$CStringT@DV?$StrTraitMFC_DLL@DV?$ChTraitsCRT@D@ATL@@@@@ATL@@@Z$1 100209ec f   PcTrMng.obj
 0001:0001f9f8       __unwindfunclet$?GetDir_DrfnRoot@@YAXAAV?$CStringT@DV?$StrTraitMFC_DLL@DV?$ChTraitsCRT@D@ATL@@@@@ATL@@@Z$2 100209f8 f   PcTrMng.obj
 0001:0001fa09       __ehhandler$?GetDir_DrfnRoot@@YAXAAV?$CStringT@DV?$StrTraitMFC_DLL@DV?$ChTraitsCRT@D@ATL@@@@@ATL@@@Z 10020a09 f   PcTrMng.obj
 0001:0001fa40       __unwindfunclet$?InitInstance@CPcTrMngApp@@UAEHXZ$7 10020a40 f   PcTrMng.obj
 0001:0001fa4c       __unwindfunclet$?InitInstance@CPcTrMngApp@@UAEHXZ$8 10020a4c f   PcTrMng.obj
 0001:0001fa58       __unwindfunclet$?InitInstance@CPcTrMngApp@@UAEHXZ$0 10020a58 f   PcTrMng.obj
 0001:0001fa65       __unwindfunclet$?InitInstance@CPcTrMngApp@@UAEHXZ$1 10020a65 f   PcTrMng.obj
 0001:0001fa71       __unwindfunclet$?InitInstance@CPcTrMngApp@@UAEHXZ$2 10020a71 f   PcTrMng.obj
 0001:0001fa83       __unwindfunclet$?InitInstance@CPcTrMngApp@@UAEHXZ$3 10020a83 f   PcTrMng.obj
 0001:0001fa95       __unwindfunclet$?InitInstance@CPcTrMngApp@@UAEHXZ$9 10020a95 f   PcTrMng.obj
 0001:0001faa4       __unwindfunclet$?InitInstance@CPcTrMngApp@@UAEHXZ$4 10020aa4 f   PcTrMng.obj
 0001:0001fab6       __unwindfunclet$?InitInstance@CPcTrMngApp@@UAEHXZ$5 10020ab6 f   PcTrMng.obj
 0001:0001fac8       __unwindfunclet$?InitInstance@CPcTrMngApp@@UAEHXZ$10 10020ac8 f   PcTrMng.obj
 0001:0001fad7       __unwindfunclet$?InitInstance@CPcTrMngApp@@UAEHXZ$11 10020ad7 f   PcTrMng.obj
 0001:0001fae3       __unwindfunclet$?InitInstance@CPcTrMngApp@@UAEHXZ$12 10020ae3 f   PcTrMng.obj
 0001:0001faef       __unwindfunclet$?InitInstance@CPcTrMngApp@@UAEHXZ$6 10020aef f   PcTrMng.obj
 0001:0001fb01       __unwindfunclet$?InitInstance@CPcTrMngApp@@UAEHXZ$13 10020b01 f   PcTrMng.obj
 0001:0001fb10       __unwindfunclet$?InitInstance@CPcTrMngApp@@UAEHXZ$14 10020b10 f   PcTrMng.obj
 0001:0001fb1c       __unwindfunclet$?InitInstance@CPcTrMngApp@@UAEHXZ$15 10020b1c f   PcTrMng.obj
 0001:0001fb28       __unwindfunclet$?InitInstance@CPcTrMngApp@@UAEHXZ$16 10020b28 f   PcTrMng.obj
 0001:0001fb34       __unwindfunclet$?InitInstance@CPcTrMngApp@@UAEHXZ$17 10020b34 f   PcTrMng.obj
 0001:0001fb44       __ehhandler$?InitInstance@CPcTrMngApp@@UAEHXZ 10020b44 f   PcTrMng.obj
 0001:0001fb70       __unwindfunclet$?LoadDefaultColorTable@CPcTrMngApp@@QAEXXZ$0 10020b70 f   PcTrMng.obj
 0001:0001fb7e       __ehhandler$?LoadDefaultColorTable@CPcTrMngApp@@QAEXXZ 10020b7e f   PcTrMng.obj
 0001:0001fba0       __unwindfunclet$?SetHanaroEnvSetting@CPcTrMngApp@@QAEHPAUHWND__@@PBD@Z$0 10020ba0 f   PcTrMng.obj
 0001:0001fbae       __ehhandler$?SetHanaroEnvSetting@CPcTrMngApp@@QAEHPAUHWND__@@PBD@Z 10020bae f   PcTrMng.obj
 0001:0001fbe0       __unwindfunclet$?SetHanaroGateMngHandle@CPcTrMngApp@@QAEXXZ$0 10020be0 f   PcTrMng.obj
 0001:0001fbee       __ehhandler$?SetHanaroGateMngHandle@CPcTrMngApp@@QAEXXZ 10020bee f   PcTrMng.obj
 0001:0001fc20       __unwindfunclet$?_DoClearDataFile@CPcTrMngApp@@QAEXXZ$0 10020c20 f   PcTrMng.obj
 0001:0001fc2c       __unwindfunclet$?_DoClearDataFile@CPcTrMngApp@@QAEXXZ$1 10020c2c f   PcTrMng.obj
 0001:0001fc38       __unwindfunclet$?_DoClearDataFile@CPcTrMngApp@@QAEXXZ$2 10020c38 f   PcTrMng.obj
 0001:0001fc44       __unwindfunclet$?_DoClearDataFile@CPcTrMngApp@@QAEXXZ$3 10020c44 f   PcTrMng.obj
 0001:0001fc50       __unwindfunclet$?_DoClearDataFile@CPcTrMngApp@@QAEXXZ$4 10020c50 f   PcTrMng.obj
 0001:0001fc58       __unwindfunclet$?_DoClearDataFile@CPcTrMngApp@@QAEXXZ$5 10020c58 f   PcTrMng.obj
 0001:0001fc60       __unwindfunclet$?_DoClearDataFile@CPcTrMngApp@@QAEXXZ$6 10020c60 f   PcTrMng.obj
 0001:0001fc71       __ehhandler$?_DoClearDataFile@CPcTrMngApp@@QAEXXZ 10020c71 f   PcTrMng.obj
 0001:0001fca0       __unwindfunclet$?_DoPrepareData@CPcTrMngApp@@QAEXXZ$0 10020ca0 f   PcTrMng.obj
 0001:0001fca9       __unwindfunclet$?_DoPrepareData@CPcTrMngApp@@QAEXXZ$1 10020ca9 f   PcTrMng.obj
 0001:0001fcb2       __unwindfunclet$?_DoPrepareData@CPcTrMngApp@@QAEXXZ$2 10020cb2 f   PcTrMng.obj
 0001:0001fcbf       __ehhandler$?_DoPrepareData@CPcTrMngApp@@QAEXXZ 10020cbf f   PcTrMng.obj
 0001:0001fce0       __unwindfunclet$?_WinixVariant@CPcTrMngApp@@QAE?AV?$CStringT@DV?$StrTraitMFC_DLL@DV?$ChTraitsCRT@D@ATL@@@@@ATL@@PAUHWND__@@HV23@@Z$0 10020ce0 f   PcTrMng.obj
 0001:0001fcee       __ehhandler$?_WinixVariant@CPcTrMngApp@@QAE?AV?$CStringT@DV?$StrTraitMFC_DLL@DV?$ChTraitsCRT@D@ATL@@@@@ATL@@PAUHWND__@@HV23@@Z 10020cee f   PcTrMng.obj
 0001:0001fd10       __ehhandler$??__F_AtlComModule@ATL@@YAXXZ 10020d10 f   StdAfx.obj
 0001:0001fd30       __unwindfunclet$?Create@CTRComm@@UAEHPAVCWnd@@@Z$0 10020d30 f   TrComm.obj
 0001:0001fd3e       __ehhandler$?Create@CTRComm@@UAEHPAVCWnd@@@Z 10020d3e f   TrComm.obj
 0001:0001fd60       __unwindfunclet$?SetTR@CTRComm@@QAEXPBDH@Z$0 10020d60 f   TrComm.obj
 0001:0001fd6e       __ehhandler$?SetTR@CTRComm@@QAEXPBDH@Z 10020d6e f   TrComm.obj
 0001:0001fd90       __unwindfunclet$?_DoPreCheck@CTRComm@@IAEHPAEJHAAH@Z$0 10020d90 f   TrComm.obj
 0001:0001fd99       __unwindfunclet$?_DoPreCheck@CTRComm@@IAEHPAEJHAAH@Z$1 10020d99 f   TrComm.obj
 0001:0001fda2       __unwindfunclet$?_DoPreCheck@CTRComm@@IAEHPAEJHAAH@Z$2 10020da2 f   TrComm.obj
 0001:0001fdab       __unwindfunclet$?_DoPreCheck@CTRComm@@IAEHPAEJHAAH@Z$3 10020dab f   TrComm.obj
 0001:0001fdb4       __unwindfunclet$?_DoPreCheck@CTRComm@@IAEHPAEJHAAH@Z$4 10020db4 f   TrComm.obj
 0001:0001fdbc       __unwindfunclet$?_DoPreCheck@CTRComm@@IAEHPAEJHAAH@Z$5 10020dbc f   TrComm.obj
 0001:0001fdc4       __unwindfunclet$?_DoPreCheck@CTRComm@@IAEHPAEJHAAH@Z$6 10020dc4 f   TrComm.obj
 0001:0001fdd2       __ehhandler$?_DoPreCheck@CTRComm@@IAEHPAEJHAAH@Z 10020dd2 f   TrComm.obj
 0001:0001fdf0       __unwindfunclet$?_DoPreCheck_Dollar@CTRComm@@IAEHPAEJPBDAAH@Z$0 10020df0 f   TrComm.obj
 0001:0001fdfe       __ehhandler$?_DoPreCheck_Dollar@CTRComm@@IAEHPAEJPBDAAH@Z 10020dfe f   TrComm.obj
 0001:0001fe20       __unwindfunclet$?_DoPreCheck_MstCode@CTRComm@@IAEHPAEJPBDAAH@Z$0 10020e20 f   TrComm.obj
 0001:0001fe29       __unwindfunclet$?_DoPreCheck_MstCode@CTRComm@@IAEHPAEJPBDAAH@Z$1 10020e29 f   TrComm.obj
 0001:0001fe31       __unwindfunclet$?_DoPreCheck_MstCode@CTRComm@@IAEHPAEJPBDAAH@Z$2 10020e31 f   TrComm.obj
 0001:0001fe39       __unwindfunclet$?_DoPreCheck_MstCode@CTRComm@@IAEHPAEJPBDAAH@Z$3 10020e39 f   TrComm.obj
 0001:0001fe47       __ehhandler$?_DoPreCheck_MstCode@CTRComm@@IAEHPAEJPBDAAH@Z 10020e47 f   TrComm.obj
 0001:0001fe70       __unwindfunclet$?_DoPreCheck_WorkDate@CTRComm@@IAEHPAEJPBDAAH@Z$0 10020e70 f   TrComm.obj
 0001:0001fe7e       __ehhandler$?_DoPreCheck_WorkDate@CTRComm@@IAEHPAEJPBDAAH@Z 10020e7e f   TrComm.obj
 0001:0001fea0       __ehhandler$?GetAcctCodeEx@CCompanyManager@@UAGHAAV?$CList@PAUSTACC_SSDATA@@PAU1@@@H@Z 10020ea0 f   _CompanyManager.obj
 0001:0001fed0       __unwindfunclet$?GetEugeneAcctCode@CCompanyManager@@QAEHAAVCStringList@@0@Z$0 10020ed0 f   _CompanyManager.obj
 0001:0001fee4       __unwindfunclet$?GetEugeneAcctCode@CCompanyManager@@QAEHAAVCStringList@@0@Z$1 10020ee4 f   _CompanyManager.obj
 0001:0001fef2       __ehhandler$?GetEugeneAcctCode@CCompanyManager@@QAEHAAVCStringList@@0@Z 10020ef2 f   _CompanyManager.obj
 0001:0001ff20       __unwindfunclet$?GetEugeneAcctCodeEx@CCompanyManager@@QAEHAAV?$CList@PAUSTACC_SSDATA@@PAU1@@@H@Z$0 10020f20 f   _CompanyManager.obj
 0001:0001ff34       __unwindfunclet$?GetEugeneAcctCodeEx@CCompanyManager@@QAEHAAV?$CList@PAUSTACC_SSDATA@@PAU1@@@H@Z$1 10020f34 f   _CompanyManager.obj
 0001:0001ff42       __ehhandler$?GetEugeneAcctCodeEx@CCompanyManager@@QAEHAAV?$CList@PAUSTACC_SSDATA@@PAU1@@@H@Z 10020f42 f   _CompanyManager.obj
 0001:0001ff70       __unwindfunclet$??0CDMMngInfo@@QAE@PBDJJP6GX0JJJJ@Z@Z$0 10020f70 f   _DataMonitorManager.obj
 0001:0001ff7e       __ehhandler$??0CDMMngInfo@@QAE@PBDJJP6GX0JJJJ@Z@Z 10020f7e f   _DataMonitorManager.obj
 0001:0001ffa0       __ehhandler$??1?$CList@VCDMMngInfo@@V1@@@UAE@XZ 10020fa0 f   _DataMonitorManager.obj
 0001:0001ffc0       __ehhandler$??1CAUDataMonitorManager@@QAE@XZ 10020fc0 f   _DataMonitorManager.obj
 0001:0001ffe0       __ehhandler$??_G?$CList@VCDMMngInfo@@V1@@@UAEPAXI@Z 10020fe0 f   _DataMonitorManager.obj
 0001:00020000       __unwindfunclet$?AddTail@?$CList@VCDMMngInfo@@V1@@@QAEPAU__POSITION@@VCDMMngInfo@@@Z$0 10021000 f   _DataMonitorManager.obj
 0001:0002000d       __ehhandler$?AddTail@?$CList@VCDMMngInfo@@V1@@@QAEPAU__POSITION@@VCDMMngInfo@@@Z 1002100d f   _DataMonitorManager.obj
 0001:00020030       __unwindfunclet$?Serialize@?$CList@VCDMMngInfo@@V1@@@UAEXAAVCArchive@@@Z$0 10021030 f   _DataMonitorManager.obj
 0001:00020048       __ehhandler$?Serialize@?$CList@VCDMMngInfo@@V1@@@UAEXAAVCArchive@@@Z 10021048 f   _DataMonitorManager.obj
 0001:00020070       __unwindfunclet$??HATL@@YA?AV?$CStringT@DV?$StrTraitMFC_DLL@DV?$ChTraitsCRT@D@ATL@@@@@0@ABV10@0@Z$0 10021070 f   _DataUtilManager.obj
 0001:0002008f       __ehhandler$??HATL@@YA?AV?$CStringT@DV?$StrTraitMFC_DLL@DV?$ChTraitsCRT@D@ATL@@@@@0@ABV10@0@Z 1002108f f   _DataUtilManager.obj
 0001:000200b0       __unwindfunclet$?LoadLib@CDRDebugerLoader@@QAEPAUHINSTANCE__@@XZ$0 100210b0 f   _DebugManager.obj
 0001:000200be       __ehhandler$?LoadLib@CDRDebugerLoader@@QAEPAUHINSTANCE__@@XZ 100210be f   _DebugManager.obj
 0001:000200e0       __ehhandler$??1?$CList@PAUIDrdsLib@@PAU1@@@UAE@XZ 100210e0 f   _DrdsManager.obj
 0001:00020100       __ehhandler$??1CAUDrdsManager@@QAE@XZ 10021100 f   _DrdsManager.obj
 0001:00020120       __ehhandler$??_G?$CList@PAUIDrdsLib@@PAU1@@@UAEPAXI@Z 10021120 f   _DrdsManager.obj
 0001:00020140       __unwindfunclet$??0CMainExInfoManager@@QAE@XZ$0 10021140 f   _MainExInfoManager.obj
 0001:0002014b       __unwindfunclet$??0CMainExInfoManager@@QAE@XZ$1 1002114b f   _MainExInfoManager.obj
 0001:00020156       __unwindfunclet$??0CMainExInfoManager@@QAE@XZ$2 10021156 f   _MainExInfoManager.obj
 0001:00020161       __unwindfunclet$??0CMainExInfoManager@@QAE@XZ$3 10021161 f   _MainExInfoManager.obj
 0001:0002016c       __unwindfunclet$??0CMainExInfoManager@@QAE@XZ$4 1002116c f   _MainExInfoManager.obj
 0001:00020177       __unwindfunclet$??0CMainExInfoManager@@QAE@XZ$5 10021177 f   _MainExInfoManager.obj
 0001:00020185       __unwindfunclet$??0CMainExInfoManager@@QAE@XZ$6 10021185 f   _MainExInfoManager.obj
 0001:00020193       __unwindfunclet$??0CMainExInfoManager@@QAE@XZ$8 10021193 f   _MainExInfoManager.obj
 0001:0002019b       __unwindfunclet$??0CMainExInfoManager@@QAE@XZ$7 1002119b f   _MainExInfoManager.obj
 0001:000201ae       __ehhandler$??0CMainExInfoManager@@QAE@XZ 100211ae f   _MainExInfoManager.obj
 0001:000201d0       __ehhandler$??1?$CList@PAUST_FOR_UserData@@PAU1@@@UAE@XZ 100211d0 f   _MainExInfoManager.obj
 0001:000201f0       __ehhandler$??1?$CList@UTR_CODEINFOEX@@U1@@@UAE@XZ 100211f0 f   _MainExInfoManager.obj
 0001:00020210       __ehhandler$??1CMainExInfoManager@@QAE@XZ 10021210 f   _MainExInfoManager.obj
 0001:00020230       __ehhandler$??_G?$CList@PAUST_FOR_UserData@@PAU1@@@UAEPAXI@Z 10021230 f   _MainExInfoManager.obj
 0001:00020250       __ehhandler$??_G?$CList@UTR_CODEINFOEX@@U1@@@UAEPAXI@Z 10021250 f   _MainExInfoManager.obj
 0001:00020270       __unwindfunclet$?_DoGetUserData@CMainExInfoManager@@QAE_NPBDPAPAEAAH@Z$0 10021270 f   _MainExInfoManager.obj
 0001:00020279       __unwindfunclet$?_DoGetUserData@CMainExInfoManager@@QAE_NPBDPAPAEAAH@Z$1 10021279 f   _MainExInfoManager.obj
 0001:00020282       __unwindfunclet$?_DoGetUserData@CMainExInfoManager@@QAE_NPBDPAPAEAAH@Z$2 10021282 f   _MainExInfoManager.obj
 0001:0002028a       __unwindfunclet$?_DoGetUserData@CMainExInfoManager@@QAE_NPBDPAPAEAAH@Z$3 1002128a f   _MainExInfoManager.obj
 0001:00020297       __ehhandler$?_DoGetUserData@CMainExInfoManager@@QAE_NPBDPAPAEAAH@Z 10021297 f   _MainExInfoManager.obj
 0001:000202c0       __unwindfunclet$?_DoSaveUserData@CMainExInfoManager@@QAE_NPBDPAEH@Z$0 100212c0 f   _MainExInfoManager.obj
 0001:000202c9       __unwindfunclet$?_DoSaveUserData@CMainExInfoManager@@QAE_NPBDPAEH@Z$1 100212c9 f   _MainExInfoManager.obj
 0001:000202d6       __ehhandler$?_DoSaveUserData@CMainExInfoManager@@QAE_NPBDPAEH@Z 100212d6 f   _MainExInfoManager.obj
 0001:00020300       __unwindfunclet$??0CMainInfoManager@@QAE@XZ$0 10021300 f   _MainInfoManager.obj
 0001:0002030b       __unwindfunclet$??0CMainInfoManager@@QAE@XZ$1 1002130b f   _MainInfoManager.obj
 0001:00020317       __unwindfunclet$??0CMainInfoManager@@QAE@XZ$2 10021317 f   _MainInfoManager.obj
 0001:00020327       __ehhandler$??0CMainInfoManager@@QAE@XZ 10021327 f   _MainInfoManager.obj
 0001:00020350       __ehhandler$??1CMainInfoManager@@QAE@XZ 10021350 f   _MainInfoManager.obj
 0001:00020370       __unwindfunclet$??0CMasterDataManager@@QAE@XZ$0 10021370 f   _MasterDataManager.obj
 0001:0002037b       __unwindfunclet$??0CMasterDataManager@@QAE@XZ$1 1002137b f   _MasterDataManager.obj
 0001:00020386       __unwindfunclet$??0CMasterDataManager@@QAE@XZ$2 10021386 f   _MasterDataManager.obj
 0001:00020391       __unwindfunclet$??0CMasterDataManager@@QAE@XZ$3 10021391 f   _MasterDataManager.obj
 0001:0002039c       __unwindfunclet$??0CMasterDataManager@@QAE@XZ$4 1002139c f   _MasterDataManager.obj
 0001:000203ac       __ehhandler$??0CMasterDataManager@@QAE@XZ 100213ac f   _MasterDataManager.obj
 0001:000203d0       __ehhandler$??1?$CList@PAUST_STRINGBYTE@@PAU1@@@UAE@XZ 100213d0 f   _MasterDataManager.obj
 0001:000203f0       __ehhandler$??1?$CList@PAUST_STRINGSTRING@@PAU1@@@UAE@XZ 100213f0 f   _MasterDataManager.obj
 0001:00020410       __ehhandler$??1?$CList@PAVCMDM_SubItemA@@PAV1@@@UAE@XZ 10021410 f   _MasterDataManager.obj
 0001:00020430       __ehhandler$??1?$CMap@V?$CStringT@DV?$StrTraitMFC_DLL@DV?$ChTraitsCRT@D@ATL@@@@@ATL@@PBDHH@@UAE@XZ 10021430 f   _MasterDataManager.obj
 0001:00020450       __ehhandler$??1CMasterDataManager@@QAE@XZ 10021450 f   _MasterDataManager.obj
 0001:00020470       __ehhandler$??_G?$CList@PAUST_STRINGBYTE@@PAU1@@@UAEPAXI@Z 10021470 f   _MasterDataManager.obj
 0001:00020490       __ehhandler$??_G?$CList@PAUST_STRINGSTRING@@PAU1@@@UAEPAXI@Z 10021490 f   _MasterDataManager.obj
 0001:000204b0       __ehhandler$??_G?$CList@PAVCMDM_SubItemA@@PAV1@@@UAEPAXI@Z 100214b0 f   _MasterDataManager.obj
 0001:000204d0       __unwindfunclet$?Serialize@?$CMap@V?$CStringT@DV?$StrTraitMFC_DLL@DV?$ChTraitsCRT@D@ATL@@@@@ATL@@PBDHH@@UAEXAAVCArchive@@@Z$0 100214d0 f   _MasterDataManager.obj
 0001:000204e9       __ehhandler$?Serialize@?$CMap@V?$CStringT@DV?$StrTraitMFC_DLL@DV?$ChTraitsCRT@D@ATL@@@@@ATL@@PBDHH@@UAEXAAVCArchive@@@Z 100214e9 f   _MasterDataManager.obj
 0001:00020510       __unwindfunclet$?_DoParsingCode2@CMasterDataManager@@IAEXAAV?$CStringT@DV?$StrTraitMFC_DLL@DV?$ChTraitsCRT@D@ATL@@@@@ATL@@AAVCStringArray@@1@Z$0 10021510 f   _MasterDataManager.obj
 0001:00020519       __unwindfunclet$?_DoParsingCode2@CMasterDataManager@@IAEXAAV?$CStringT@DV?$StrTraitMFC_DLL@DV?$ChTraitsCRT@D@ATL@@@@@ATL@@AAVCStringArray@@1@Z$1 10021519 f   _MasterDataManager.obj
 0001:00020522       __unwindfunclet$?_DoParsingCode2@CMasterDataManager@@IAEXAAV?$CStringT@DV?$StrTraitMFC_DLL@DV?$ChTraitsCRT@D@ATL@@@@@ATL@@AAVCStringArray@@1@Z$2 10021522 f   _MasterDataManager.obj
 0001:0002052b       __unwindfunclet$?_DoParsingCode2@CMasterDataManager@@IAEXAAV?$CStringT@DV?$StrTraitMFC_DLL@DV?$ChTraitsCRT@D@ATL@@@@@ATL@@AAVCStringArray@@1@Z$3 1002152b f   _MasterDataManager.obj
 0001:00020534       __unwindfunclet$?_DoParsingCode2@CMasterDataManager@@IAEXAAV?$CStringT@DV?$StrTraitMFC_DLL@DV?$ChTraitsCRT@D@ATL@@@@@ATL@@AAVCStringArray@@1@Z$4 10021534 f   _MasterDataManager.obj
 0001:0002053d       __unwindfunclet$?_DoParsingCode2@CMasterDataManager@@IAEXAAV?$CStringT@DV?$StrTraitMFC_DLL@DV?$ChTraitsCRT@D@ATL@@@@@ATL@@AAVCStringArray@@1@Z$5 1002153d f   _MasterDataManager.obj
 0001:0002054b       __ehhandler$?_DoParsingCode2@CMasterDataManager@@IAEXAAV?$CStringT@DV?$StrTraitMFC_DLL@DV?$ChTraitsCRT@D@ATL@@@@@ATL@@AAVCStringArray@@1@Z 1002154b f   _MasterDataManager.obj
 0001:00020570       __unwindfunclet$?_DoParsingCode@CMasterDataManager@@IAEXAAV?$CStringT@DV?$StrTraitMFC_DLL@DV?$ChTraitsCRT@D@ATL@@@@@ATL@@AAVCStringArray@@1_NH@Z$0 10021570 f   _MasterDataManager.obj
 0001:00020579       __unwindfunclet$?_DoParsingCode@CMasterDataManager@@IAEXAAV?$CStringT@DV?$StrTraitMFC_DLL@DV?$ChTraitsCRT@D@ATL@@@@@ATL@@AAVCStringArray@@1_NH@Z$1 10021579 f   _MasterDataManager.obj
 0001:00020582       __unwindfunclet$?_DoParsingCode@CMasterDataManager@@IAEXAAV?$CStringT@DV?$StrTraitMFC_DLL@DV?$ChTraitsCRT@D@ATL@@@@@ATL@@AAVCStringArray@@1_NH@Z$2 10021582 f   _MasterDataManager.obj
 0001:0002058b       __unwindfunclet$?_DoParsingCode@CMasterDataManager@@IAEXAAV?$CStringT@DV?$StrTraitMFC_DLL@DV?$ChTraitsCRT@D@ATL@@@@@ATL@@AAVCStringArray@@1_NH@Z$3 1002158b f   _MasterDataManager.obj
 0001:00020594       __unwindfunclet$?_DoParsingCode@CMasterDataManager@@IAEXAAV?$CStringT@DV?$StrTraitMFC_DLL@DV?$ChTraitsCRT@D@ATL@@@@@ATL@@AAVCStringArray@@1_NH@Z$4 10021594 f   _MasterDataManager.obj
 0001:0002059d       __unwindfunclet$?_DoParsingCode@CMasterDataManager@@IAEXAAV?$CStringT@DV?$StrTraitMFC_DLL@DV?$ChTraitsCRT@D@ATL@@@@@ATL@@AAVCStringArray@@1_NH@Z$5 1002159d f   _MasterDataManager.obj
 0001:000205a6       __unwindfunclet$?_DoParsingCode@CMasterDataManager@@IAEXAAV?$CStringT@DV?$StrTraitMFC_DLL@DV?$ChTraitsCRT@D@ATL@@@@@ATL@@AAVCStringArray@@1_NH@Z$6 100215a6 f   _MasterDataManager.obj
 0001:000205af       __unwindfunclet$?_DoParsingCode@CMasterDataManager@@IAEXAAV?$CStringT@DV?$StrTraitMFC_DLL@DV?$ChTraitsCRT@D@ATL@@@@@ATL@@AAVCStringArray@@1_NH@Z$7 100215af f   _MasterDataManager.obj
 0001:000205bd       __ehhandler$?_DoParsingCode@CMasterDataManager@@IAEXAAV?$CStringT@DV?$StrTraitMFC_DLL@DV?$ChTraitsCRT@D@ATL@@@@@ATL@@AAVCStringArray@@1_NH@Z 100215bd f   _MasterDataManager.obj
 0001:000205e0       __unwindfunclet$?_DoParsingCodeDPMaster@CMasterDataManager@@IAEXAAV?$CStringT@DV?$StrTraitMFC_DLL@DV?$ChTraitsCRT@D@ATL@@@@@ATL@@AAVCStringArray@@1@Z$0 100215e0 f   _MasterDataManager.obj
 0001:000205ec       __unwindfunclet$?_DoParsingCodeDPMaster@CMasterDataManager@@IAEXAAV?$CStringT@DV?$StrTraitMFC_DLL@DV?$ChTraitsCRT@D@ATL@@@@@ATL@@AAVCStringArray@@1@Z$1 100215ec f   _MasterDataManager.obj
 0001:000205f8       __unwindfunclet$?_DoParsingCodeDPMaster@CMasterDataManager@@IAEXAAV?$CStringT@DV?$StrTraitMFC_DLL@DV?$ChTraitsCRT@D@ATL@@@@@ATL@@AAVCStringArray@@1@Z$2 100215f8 f   _MasterDataManager.obj
 0001:00020604       __unwindfunclet$?_DoParsingCodeDPMaster@CMasterDataManager@@IAEXAAV?$CStringT@DV?$StrTraitMFC_DLL@DV?$ChTraitsCRT@D@ATL@@@@@ATL@@AAVCStringArray@@1@Z$3 10021604 f   _MasterDataManager.obj
 0001:00020618       __unwindfunclet$?_DoParsingCodeDPMaster@CMasterDataManager@@IAEXAAV?$CStringT@DV?$StrTraitMFC_DLL@DV?$ChTraitsCRT@D@ATL@@@@@ATL@@AAVCStringArray@@1@Z$4 10021618 f   _MasterDataManager.obj
 0001:00020624       __unwindfunclet$?_DoParsingCodeDPMaster@CMasterDataManager@@IAEXAAV?$CStringT@DV?$StrTraitMFC_DLL@DV?$ChTraitsCRT@D@ATL@@@@@ATL@@AAVCStringArray@@1@Z$5 10021624 f   _MasterDataManager.obj
 0001:0002063a       __unwindfunclet$?_DoParsingCodeDPMaster@CMasterDataManager@@IAEXAAV?$CStringT@DV?$StrTraitMFC_DLL@DV?$ChTraitsCRT@D@ATL@@@@@ATL@@AAVCStringArray@@1@Z$6 1002163a f   _MasterDataManager.obj
 0001:0002064d       __unwindfunclet$?_DoParsingCodeDPMaster@CMasterDataManager@@IAEXAAV?$CStringT@DV?$StrTraitMFC_DLL@DV?$ChTraitsCRT@D@ATL@@@@@ATL@@AAVCStringArray@@1@Z$7 1002164d f   _MasterDataManager.obj
 0001:00020658       __unwindfunclet$?_DoParsingCodeDPMaster@CMasterDataManager@@IAEXAAV?$CStringT@DV?$StrTraitMFC_DLL@DV?$ChTraitsCRT@D@ATL@@@@@ATL@@AAVCStringArray@@1@Z$8 10021658 f   _MasterDataManager.obj
 0001:00020664       __unwindfunclet$?_DoParsingCodeDPMaster@CMasterDataManager@@IAEXAAV?$CStringT@DV?$StrTraitMFC_DLL@DV?$ChTraitsCRT@D@ATL@@@@@ATL@@AAVCStringArray@@1@Z$9 10021664 f   _MasterDataManager.obj
 0001:00020670       __unwindfunclet$?_DoParsingCodeDPMaster@CMasterDataManager@@IAEXAAV?$CStringT@DV?$StrTraitMFC_DLL@DV?$ChTraitsCRT@D@ATL@@@@@ATL@@AAVCStringArray@@1@Z$10 10021670 f   _MasterDataManager.obj
 0001:0002067c       __unwindfunclet$?_DoParsingCodeDPMaster@CMasterDataManager@@IAEXAAV?$CStringT@DV?$StrTraitMFC_DLL@DV?$ChTraitsCRT@D@ATL@@@@@ATL@@AAVCStringArray@@1@Z$11 1002167c f   _MasterDataManager.obj
 0001:00020688       __unwindfunclet$?_DoParsingCodeDPMaster@CMasterDataManager@@IAEXAAV?$CStringT@DV?$StrTraitMFC_DLL@DV?$ChTraitsCRT@D@ATL@@@@@ATL@@AAVCStringArray@@1@Z$12 10021688 f   _MasterDataManager.obj
 0001:00020699       __ehhandler$?_DoParsingCodeDPMaster@CMasterDataManager@@IAEXAAV?$CStringT@DV?$StrTraitMFC_DLL@DV?$ChTraitsCRT@D@ATL@@@@@ATL@@AAVCStringArray@@1@Z 10021699 f   _MasterDataManager.obj
 0001:000206d0       __unwindfunclet$?_DoParsingCodeFX@CMasterDataManager@@IAEXAAV?$CStringT@DV?$StrTraitMFC_DLL@DV?$ChTraitsCRT@D@ATL@@@@@ATL@@AAVCStringArray@@1_NH@Z$0 100216d0 f   _MasterDataManager.obj
 0001:000206d9       __unwindfunclet$?_DoParsingCodeFX@CMasterDataManager@@IAEXAAV?$CStringT@DV?$StrTraitMFC_DLL@DV?$ChTraitsCRT@D@ATL@@@@@ATL@@AAVCStringArray@@1_NH@Z$1 100216d9 f   _MasterDataManager.obj
 0001:000206e2       __unwindfunclet$?_DoParsingCodeFX@CMasterDataManager@@IAEXAAV?$CStringT@DV?$StrTraitMFC_DLL@DV?$ChTraitsCRT@D@ATL@@@@@ATL@@AAVCStringArray@@1_NH@Z$2 100216e2 f   _MasterDataManager.obj
 0001:000206eb       __unwindfunclet$?_DoParsingCodeFX@CMasterDataManager@@IAEXAAV?$CStringT@DV?$StrTraitMFC_DLL@DV?$ChTraitsCRT@D@ATL@@@@@ATL@@AAVCStringArray@@1_NH@Z$3 100216eb f   _MasterDataManager.obj
 0001:000206f4       __unwindfunclet$?_DoParsingCodeFX@CMasterDataManager@@IAEXAAV?$CStringT@DV?$StrTraitMFC_DLL@DV?$ChTraitsCRT@D@ATL@@@@@ATL@@AAVCStringArray@@1_NH@Z$4 100216f4 f   _MasterDataManager.obj
 0001:000206fd       __unwindfunclet$?_DoParsingCodeFX@CMasterDataManager@@IAEXAAV?$CStringT@DV?$StrTraitMFC_DLL@DV?$ChTraitsCRT@D@ATL@@@@@ATL@@AAVCStringArray@@1_NH@Z$5 100216fd f   _MasterDataManager.obj
 0001:00020706       __unwindfunclet$?_DoParsingCodeFX@CMasterDataManager@@IAEXAAV?$CStringT@DV?$StrTraitMFC_DLL@DV?$ChTraitsCRT@D@ATL@@@@@ATL@@AAVCStringArray@@1_NH@Z$6 10021706 f   _MasterDataManager.obj
 0001:0002070f       __unwindfunclet$?_DoParsingCodeFX@CMasterDataManager@@IAEXAAV?$CStringT@DV?$StrTraitMFC_DLL@DV?$ChTraitsCRT@D@ATL@@@@@ATL@@AAVCStringArray@@1_NH@Z$7 1002170f f   _MasterDataManager.obj
 0001:00020718       __unwindfunclet$?_DoParsingCodeFX@CMasterDataManager@@IAEXAAV?$CStringT@DV?$StrTraitMFC_DLL@DV?$ChTraitsCRT@D@ATL@@@@@ATL@@AAVCStringArray@@1_NH@Z$8 10021718 f   _MasterDataManager.obj
 0001:00020721       __unwindfunclet$?_DoParsingCodeFX@CMasterDataManager@@IAEXAAV?$CStringT@DV?$StrTraitMFC_DLL@DV?$ChTraitsCRT@D@ATL@@@@@ATL@@AAVCStringArray@@1_NH@Z$9 10021721 f   _MasterDataManager.obj
 0001:0002072f       __ehhandler$?_DoParsingCodeFX@CMasterDataManager@@IAEXAAV?$CStringT@DV?$StrTraitMFC_DLL@DV?$ChTraitsCRT@D@ATL@@@@@ATL@@AAVCStringArray@@1_NH@Z 1002172f f   _MasterDataManager.obj
 0001:00020750       __unwindfunclet$?_DoParsingCodeForeign@CMasterDataManager@@IAEXAAV?$CStringT@DV?$StrTraitMFC_DLL@DV?$ChTraitsCRT@D@ATL@@@@@ATL@@AAVCStringArray@@1@Z$0 10021750 f   _MasterDataManager.obj
 0001:00020759       __unwindfunclet$?_DoParsingCodeForeign@CMasterDataManager@@IAEXAAV?$CStringT@DV?$StrTraitMFC_DLL@DV?$ChTraitsCRT@D@ATL@@@@@ATL@@AAVCStringArray@@1@Z$1 10021759 f   _MasterDataManager.obj
 0001:00020762       __unwindfunclet$?_DoParsingCodeForeign@CMasterDataManager@@IAEXAAV?$CStringT@DV?$StrTraitMFC_DLL@DV?$ChTraitsCRT@D@ATL@@@@@ATL@@AAVCStringArray@@1@Z$2 10021762 f   _MasterDataManager.obj
 0001:0002076b       __unwindfunclet$?_DoParsingCodeForeign@CMasterDataManager@@IAEXAAV?$CStringT@DV?$StrTraitMFC_DLL@DV?$ChTraitsCRT@D@ATL@@@@@ATL@@AAVCStringArray@@1@Z$3 1002176b f   _MasterDataManager.obj
 0001:00020774       __unwindfunclet$?_DoParsingCodeForeign@CMasterDataManager@@IAEXAAV?$CStringT@DV?$StrTraitMFC_DLL@DV?$ChTraitsCRT@D@ATL@@@@@ATL@@AAVCStringArray@@1@Z$4 10021774 f   _MasterDataManager.obj
 0001:0002077d       __unwindfunclet$?_DoParsingCodeForeign@CMasterDataManager@@IAEXAAV?$CStringT@DV?$StrTraitMFC_DLL@DV?$ChTraitsCRT@D@ATL@@@@@ATL@@AAVCStringArray@@1@Z$5 1002177d f   _MasterDataManager.obj
 0001:0002078b       __ehhandler$?_DoParsingCodeForeign@CMasterDataManager@@IAEXAAV?$CStringT@DV?$StrTraitMFC_DLL@DV?$ChTraitsCRT@D@ATL@@@@@ATL@@AAVCStringArray@@1@Z 1002178b f   _MasterDataManager.obj
 0001:000207b0       __unwindfunclet$?_DoParsingCodeJPMaster@CMasterDataManager@@IAEXAAV?$CStringT@DV?$StrTraitMFC_DLL@DV?$ChTraitsCRT@D@ATL@@@@@ATL@@AAVCStringArray@@1@Z$0 100217b0 f   _MasterDataManager.obj
 0001:000207bc       __unwindfunclet$?_DoParsingCodeJPMaster@CMasterDataManager@@IAEXAAV?$CStringT@DV?$StrTraitMFC_DLL@DV?$ChTraitsCRT@D@ATL@@@@@ATL@@AAVCStringArray@@1@Z$1 100217bc f   _MasterDataManager.obj
 0001:000207c8       __unwindfunclet$?_DoParsingCodeJPMaster@CMasterDataManager@@IAEXAAV?$CStringT@DV?$StrTraitMFC_DLL@DV?$ChTraitsCRT@D@ATL@@@@@ATL@@AAVCStringArray@@1@Z$2 100217c8 f   _MasterDataManager.obj
 0001:000207d4       __unwindfunclet$?_DoParsingCodeJPMaster@CMasterDataManager@@IAEXAAV?$CStringT@DV?$StrTraitMFC_DLL@DV?$ChTraitsCRT@D@ATL@@@@@ATL@@AAVCStringArray@@1@Z$3 100217d4 f   _MasterDataManager.obj
 0001:000207e8       __unwindfunclet$?_DoParsingCodeJPMaster@CMasterDataManager@@IAEXAAV?$CStringT@DV?$StrTraitMFC_DLL@DV?$ChTraitsCRT@D@ATL@@@@@ATL@@AAVCStringArray@@1@Z$4 100217e8 f   _MasterDataManager.obj
 0001:000207f4       __unwindfunclet$?_DoParsingCodeJPMaster@CMasterDataManager@@IAEXAAV?$CStringT@DV?$StrTraitMFC_DLL@DV?$ChTraitsCRT@D@ATL@@@@@ATL@@AAVCStringArray@@1@Z$5 100217f4 f   _MasterDataManager.obj
 0001:0002080a       __unwindfunclet$?_DoParsingCodeJPMaster@CMasterDataManager@@IAEXAAV?$CStringT@DV?$StrTraitMFC_DLL@DV?$ChTraitsCRT@D@ATL@@@@@ATL@@AAVCStringArray@@1@Z$6 1002180a f   _MasterDataManager.obj
 0001:0002081d       __unwindfunclet$?_DoParsingCodeJPMaster@CMasterDataManager@@IAEXAAV?$CStringT@DV?$StrTraitMFC_DLL@DV?$ChTraitsCRT@D@ATL@@@@@ATL@@AAVCStringArray@@1@Z$7 1002181d f   _MasterDataManager.obj
 0001:00020829       __unwindfunclet$?_DoParsingCodeJPMaster@CMasterDataManager@@IAEXAAV?$CStringT@DV?$StrTraitMFC_DLL@DV?$ChTraitsCRT@D@ATL@@@@@ATL@@AAVCStringArray@@1@Z$8 10021829 f   _MasterDataManager.obj
 0001:00020835       __unwindfunclet$?_DoParsingCodeJPMaster@CMasterDataManager@@IAEXAAV?$CStringT@DV?$StrTraitMFC_DLL@DV?$ChTraitsCRT@D@ATL@@@@@ATL@@AAVCStringArray@@1@Z$9 10021835 f   _MasterDataManager.obj
 0001:00020841       __unwindfunclet$?_DoParsingCodeJPMaster@CMasterDataManager@@IAEXAAV?$CStringT@DV?$StrTraitMFC_DLL@DV?$ChTraitsCRT@D@ATL@@@@@ATL@@AAVCStringArray@@1@Z$10 10021841 f   _MasterDataManager.obj
 0001:0002084d       __unwindfunclet$?_DoParsingCodeJPMaster@CMasterDataManager@@IAEXAAV?$CStringT@DV?$StrTraitMFC_DLL@DV?$ChTraitsCRT@D@ATL@@@@@ATL@@AAVCStringArray@@1@Z$11 1002184d f   _MasterDataManager.obj
 0001:00020859       __unwindfunclet$?_DoParsingCodeJPMaster@CMasterDataManager@@IAEXAAV?$CStringT@DV?$StrTraitMFC_DLL@DV?$ChTraitsCRT@D@ATL@@@@@ATL@@AAVCStringArray@@1@Z$12 10021859 f   _MasterDataManager.obj
 0001:00020865       __unwindfunclet$?_DoParsingCodeJPMaster@CMasterDataManager@@IAEXAAV?$CStringT@DV?$StrTraitMFC_DLL@DV?$ChTraitsCRT@D@ATL@@@@@ATL@@AAVCStringArray@@1@Z$13 10021865 f   _MasterDataManager.obj
 0001:00020876       __ehhandler$?_DoParsingCodeJPMaster@CMasterDataManager@@IAEXAAV?$CStringT@DV?$StrTraitMFC_DLL@DV?$ChTraitsCRT@D@ATL@@@@@ATL@@AAVCStringArray@@1@Z 10021876 f   _MasterDataManager.obj
 0001:000208a0       __unwindfunclet$?_DoParsingCodeMiniMaster@CMasterDataManager@@IAEXAAV?$CStringT@DV?$StrTraitMFC_DLL@DV?$ChTraitsCRT@D@ATL@@@@@ATL@@AAVCStringArray@@1@Z$0 100218a0 f   _MasterDataManager.obj
 0001:000208ac       __unwindfunclet$?_DoParsingCodeMiniMaster@CMasterDataManager@@IAEXAAV?$CStringT@DV?$StrTraitMFC_DLL@DV?$ChTraitsCRT@D@ATL@@@@@ATL@@AAVCStringArray@@1@Z$1 100218ac f   _MasterDataManager.obj
 0001:000208b8       __unwindfunclet$?_DoParsingCodeMiniMaster@CMasterDataManager@@IAEXAAV?$CStringT@DV?$StrTraitMFC_DLL@DV?$ChTraitsCRT@D@ATL@@@@@ATL@@AAVCStringArray@@1@Z$2 100218b8 f   _MasterDataManager.obj
 0001:000208c4       __unwindfunclet$?_DoParsingCodeMiniMaster@CMasterDataManager@@IAEXAAV?$CStringT@DV?$StrTraitMFC_DLL@DV?$ChTraitsCRT@D@ATL@@@@@ATL@@AAVCStringArray@@1@Z$3 100218c4 f   _MasterDataManager.obj
 0001:000208d8       __unwindfunclet$?_DoParsingCodeMiniMaster@CMasterDataManager@@IAEXAAV?$CStringT@DV?$StrTraitMFC_DLL@DV?$ChTraitsCRT@D@ATL@@@@@ATL@@AAVCStringArray@@1@Z$4 100218d8 f   _MasterDataManager.obj
 0001:000208e4       __unwindfunclet$?_DoParsingCodeMiniMaster@CMasterDataManager@@IAEXAAV?$CStringT@DV?$StrTraitMFC_DLL@DV?$ChTraitsCRT@D@ATL@@@@@ATL@@AAVCStringArray@@1@Z$5 100218e4 f   _MasterDataManager.obj
 0001:000208fa       __unwindfunclet$?_DoParsingCodeMiniMaster@CMasterDataManager@@IAEXAAV?$CStringT@DV?$StrTraitMFC_DLL@DV?$ChTraitsCRT@D@ATL@@@@@ATL@@AAVCStringArray@@1@Z$6 100218fa f   _MasterDataManager.obj
 0001:00020910       __unwindfunclet$?_DoParsingCodeMiniMaster@CMasterDataManager@@IAEXAAV?$CStringT@DV?$StrTraitMFC_DLL@DV?$ChTraitsCRT@D@ATL@@@@@ATL@@AAVCStringArray@@1@Z$7 10021910 f   _MasterDataManager.obj
 0001:0002091c       __unwindfunclet$?_DoParsingCodeMiniMaster@CMasterDataManager@@IAEXAAV?$CStringT@DV?$StrTraitMFC_DLL@DV?$ChTraitsCRT@D@ATL@@@@@ATL@@AAVCStringArray@@1@Z$8 1002191c f   _MasterDataManager.obj
 0001:00020928       __unwindfunclet$?_DoParsingCodeMiniMaster@CMasterDataManager@@IAEXAAV?$CStringT@DV?$StrTraitMFC_DLL@DV?$ChTraitsCRT@D@ATL@@@@@ATL@@AAVCStringArray@@1@Z$9 10021928 f   _MasterDataManager.obj
 0001:00020934       __unwindfunclet$?_DoParsingCodeMiniMaster@CMasterDataManager@@IAEXAAV?$CStringT@DV?$StrTraitMFC_DLL@DV?$ChTraitsCRT@D@ATL@@@@@ATL@@AAVCStringArray@@1@Z$10 10021934 f   _MasterDataManager.obj
 0001:00020940       __unwindfunclet$?_DoParsingCodeMiniMaster@CMasterDataManager@@IAEXAAV?$CStringT@DV?$StrTraitMFC_DLL@DV?$ChTraitsCRT@D@ATL@@@@@ATL@@AAVCStringArray@@1@Z$11 10021940 f   _MasterDataManager.obj
 0001:0002094c       __unwindfunclet$?_DoParsingCodeMiniMaster@CMasterDataManager@@IAEXAAV?$CStringT@DV?$StrTraitMFC_DLL@DV?$ChTraitsCRT@D@ATL@@@@@ATL@@AAVCStringArray@@1@Z$12 1002194c f   _MasterDataManager.obj
 0001:00020958       __unwindfunclet$?_DoParsingCodeMiniMaster@CMasterDataManager@@IAEXAAV?$CStringT@DV?$StrTraitMFC_DLL@DV?$ChTraitsCRT@D@ATL@@@@@ATL@@AAVCStringArray@@1@Z$13 10021958 f   _MasterDataManager.obj
 0001:00020964       __unwindfunclet$?_DoParsingCodeMiniMaster@CMasterDataManager@@IAEXAAV?$CStringT@DV?$StrTraitMFC_DLL@DV?$ChTraitsCRT@D@ATL@@@@@ATL@@AAVCStringArray@@1@Z$14 10021964 f   _MasterDataManager.obj
 0001:00020975       __ehhandler$?_DoParsingCodeMiniMaster@CMasterDataManager@@IAEXAAV?$CStringT@DV?$StrTraitMFC_DLL@DV?$ChTraitsCRT@D@ATL@@@@@ATL@@AAVCStringArray@@1@Z 10021975 f   _MasterDataManager.obj
 0001:000209a0       __unwindfunclet$?_DoParsingCodePMaster@CMasterDataManager@@IAEXAAV?$CStringT@DV?$StrTraitMFC_DLL@DV?$ChTraitsCRT@D@ATL@@@@@ATL@@AAVCStringArray@@1@Z$0 100219a0 f   _MasterDataManager.obj
 0001:000209ac       __unwindfunclet$?_DoParsingCodePMaster@CMasterDataManager@@IAEXAAV?$CStringT@DV?$StrTraitMFC_DLL@DV?$ChTraitsCRT@D@ATL@@@@@ATL@@AAVCStringArray@@1@Z$1 100219ac f   _MasterDataManager.obj
 0001:000209b8       __unwindfunclet$?_DoParsingCodePMaster@CMasterDataManager@@IAEXAAV?$CStringT@DV?$StrTraitMFC_DLL@DV?$ChTraitsCRT@D@ATL@@@@@ATL@@AAVCStringArray@@1@Z$2 100219b8 f   _MasterDataManager.obj
 0001:000209c4       __unwindfunclet$?_DoParsingCodePMaster@CMasterDataManager@@IAEXAAV?$CStringT@DV?$StrTraitMFC_DLL@DV?$ChTraitsCRT@D@ATL@@@@@ATL@@AAVCStringArray@@1@Z$3 100219c4 f   _MasterDataManager.obj
 0001:000209d8       __unwindfunclet$?_DoParsingCodePMaster@CMasterDataManager@@IAEXAAV?$CStringT@DV?$StrTraitMFC_DLL@DV?$ChTraitsCRT@D@ATL@@@@@ATL@@AAVCStringArray@@1@Z$4 100219d8 f   _MasterDataManager.obj
 0001:000209e4       __unwindfunclet$?_DoParsingCodePMaster@CMasterDataManager@@IAEXAAV?$CStringT@DV?$StrTraitMFC_DLL@DV?$ChTraitsCRT@D@ATL@@@@@ATL@@AAVCStringArray@@1@Z$5 100219e4 f   _MasterDataManager.obj
 0001:000209fa       __unwindfunclet$?_DoParsingCodePMaster@CMasterDataManager@@IAEXAAV?$CStringT@DV?$StrTraitMFC_DLL@DV?$ChTraitsCRT@D@ATL@@@@@ATL@@AAVCStringArray@@1@Z$6 100219fa f   _MasterDataManager.obj
 0001:00020a10       __unwindfunclet$?_DoParsingCodePMaster@CMasterDataManager@@IAEXAAV?$CStringT@DV?$StrTraitMFC_DLL@DV?$ChTraitsCRT@D@ATL@@@@@ATL@@AAVCStringArray@@1@Z$7 10021a10 f   _MasterDataManager.obj
 0001:00020a1c       __unwindfunclet$?_DoParsingCodePMaster@CMasterDataManager@@IAEXAAV?$CStringT@DV?$StrTraitMFC_DLL@DV?$ChTraitsCRT@D@ATL@@@@@ATL@@AAVCStringArray@@1@Z$8 10021a1c f   _MasterDataManager.obj
 0001:00020a28       __unwindfunclet$?_DoParsingCodePMaster@CMasterDataManager@@IAEXAAV?$CStringT@DV?$StrTraitMFC_DLL@DV?$ChTraitsCRT@D@ATL@@@@@ATL@@AAVCStringArray@@1@Z$9 10021a28 f   _MasterDataManager.obj
 0001:00020a34       __unwindfunclet$?_DoParsingCodePMaster@CMasterDataManager@@IAEXAAV?$CStringT@DV?$StrTraitMFC_DLL@DV?$ChTraitsCRT@D@ATL@@@@@ATL@@AAVCStringArray@@1@Z$10 10021a34 f   _MasterDataManager.obj
 0001:00020a40       __unwindfunclet$?_DoParsingCodePMaster@CMasterDataManager@@IAEXAAV?$CStringT@DV?$StrTraitMFC_DLL@DV?$ChTraitsCRT@D@ATL@@@@@ATL@@AAVCStringArray@@1@Z$11 10021a40 f   _MasterDataManager.obj
 0001:00020a4c       __unwindfunclet$?_DoParsingCodePMaster@CMasterDataManager@@IAEXAAV?$CStringT@DV?$StrTraitMFC_DLL@DV?$ChTraitsCRT@D@ATL@@@@@ATL@@AAVCStringArray@@1@Z$12 10021a4c f   _MasterDataManager.obj
 0001:00020a58       __unwindfunclet$?_DoParsingCodePMaster@CMasterDataManager@@IAEXAAV?$CStringT@DV?$StrTraitMFC_DLL@DV?$ChTraitsCRT@D@ATL@@@@@ATL@@AAVCStringArray@@1@Z$13 10021a58 f   _MasterDataManager.obj
 0001:00020a69       __ehhandler$?_DoParsingCodePMaster@CMasterDataManager@@IAEXAAV?$CStringT@DV?$StrTraitMFC_DLL@DV?$ChTraitsCRT@D@ATL@@@@@ATL@@AAVCStringArray@@1@Z 10021a69 f   _MasterDataManager.obj
 0001:00020aa0       __unwindfunclet$?_DoParsingCodeWeeklyMaster@CMasterDataManager@@IAEXAAV?$CStringT@DV?$StrTraitMFC_DLL@DV?$ChTraitsCRT@D@ATL@@@@@ATL@@AAVCStringArray@@1@Z$0 10021aa0 f   _MasterDataManager.obj
 0001:00020aac       __unwindfunclet$?_DoParsingCodeWeeklyMaster@CMasterDataManager@@IAEXAAV?$CStringT@DV?$StrTraitMFC_DLL@DV?$ChTraitsCRT@D@ATL@@@@@ATL@@AAVCStringArray@@1@Z$1 10021aac f   _MasterDataManager.obj
 0001:00020ab8       __unwindfunclet$?_DoParsingCodeWeeklyMaster@CMasterDataManager@@IAEXAAV?$CStringT@DV?$StrTraitMFC_DLL@DV?$ChTraitsCRT@D@ATL@@@@@ATL@@AAVCStringArray@@1@Z$2 10021ab8 f   _MasterDataManager.obj
 0001:00020ac4       __unwindfunclet$?_DoParsingCodeWeeklyMaster@CMasterDataManager@@IAEXAAV?$CStringT@DV?$StrTraitMFC_DLL@DV?$ChTraitsCRT@D@ATL@@@@@ATL@@AAVCStringArray@@1@Z$3 10021ac4 f   _MasterDataManager.obj
 0001:00020ad8       __unwindfunclet$?_DoParsingCodeWeeklyMaster@CMasterDataManager@@IAEXAAV?$CStringT@DV?$StrTraitMFC_DLL@DV?$ChTraitsCRT@D@ATL@@@@@ATL@@AAVCStringArray@@1@Z$4 10021ad8 f   _MasterDataManager.obj
 0001:00020ae4       __unwindfunclet$?_DoParsingCodeWeeklyMaster@CMasterDataManager@@IAEXAAV?$CStringT@DV?$StrTraitMFC_DLL@DV?$ChTraitsCRT@D@ATL@@@@@ATL@@AAVCStringArray@@1@Z$5 10021ae4 f   _MasterDataManager.obj
 0001:00020afa       __unwindfunclet$?_DoParsingCodeWeeklyMaster@CMasterDataManager@@IAEXAAV?$CStringT@DV?$StrTraitMFC_DLL@DV?$ChTraitsCRT@D@ATL@@@@@ATL@@AAVCStringArray@@1@Z$6 10021afa f   _MasterDataManager.obj
 0001:00020b10       __unwindfunclet$?_DoParsingCodeWeeklyMaster@CMasterDataManager@@IAEXAAV?$CStringT@DV?$StrTraitMFC_DLL@DV?$ChTraitsCRT@D@ATL@@@@@ATL@@AAVCStringArray@@1@Z$7 10021b10 f   _MasterDataManager.obj
 0001:00020b1c       __unwindfunclet$?_DoParsingCodeWeeklyMaster@CMasterDataManager@@IAEXAAV?$CStringT@DV?$StrTraitMFC_DLL@DV?$ChTraitsCRT@D@ATL@@@@@ATL@@AAVCStringArray@@1@Z$8 10021b1c f   _MasterDataManager.obj
 0001:00020b28       __unwindfunclet$?_DoParsingCodeWeeklyMaster@CMasterDataManager@@IAEXAAV?$CStringT@DV?$StrTraitMFC_DLL@DV?$ChTraitsCRT@D@ATL@@@@@ATL@@AAVCStringArray@@1@Z$9 10021b28 f   _MasterDataManager.obj
 0001:00020b34       __unwindfunclet$?_DoParsingCodeWeeklyMaster@CMasterDataManager@@IAEXAAV?$CStringT@DV?$StrTraitMFC_DLL@DV?$ChTraitsCRT@D@ATL@@@@@ATL@@AAVCStringArray@@1@Z$10 10021b34 f   _MasterDataManager.obj
 0001:00020b40       __unwindfunclet$?_DoParsingCodeWeeklyMaster@CMasterDataManager@@IAEXAAV?$CStringT@DV?$StrTraitMFC_DLL@DV?$ChTraitsCRT@D@ATL@@@@@ATL@@AAVCStringArray@@1@Z$11 10021b40 f   _MasterDataManager.obj
 0001:00020b4c       __unwindfunclet$?_DoParsingCodeWeeklyMaster@CMasterDataManager@@IAEXAAV?$CStringT@DV?$StrTraitMFC_DLL@DV?$ChTraitsCRT@D@ATL@@@@@ATL@@AAVCStringArray@@1@Z$12 10021b4c f   _MasterDataManager.obj
 0001:00020b58       __unwindfunclet$?_DoParsingCodeWeeklyMaster@CMasterDataManager@@IAEXAAV?$CStringT@DV?$StrTraitMFC_DLL@DV?$ChTraitsCRT@D@ATL@@@@@ATL@@AAVCStringArray@@1@Z$13 10021b58 f   _MasterDataManager.obj
 0001:00020b64       __unwindfunclet$?_DoParsingCodeWeeklyMaster@CMasterDataManager@@IAEXAAV?$CStringT@DV?$StrTraitMFC_DLL@DV?$ChTraitsCRT@D@ATL@@@@@ATL@@AAVCStringArray@@1@Z$14 10021b64 f   _MasterDataManager.obj
 0001:00020b75       __ehhandler$?_DoParsingCodeWeeklyMaster@CMasterDataManager@@IAEXAAV?$CStringT@DV?$StrTraitMFC_DLL@DV?$ChTraitsCRT@D@ATL@@@@@ATL@@AAVCStringArray@@1@Z 10021b75 f   _MasterDataManager.obj
 0001:00020ba0       __unwindfunclet$?_DoSortCode@CMasterDataManager@@IAEXAAVCStringArray@@0@Z$0 10021ba0 f   _MasterDataManager.obj
 0001:00020bac       __unwindfunclet$?_DoSortCode@CMasterDataManager@@IAEXAAVCStringArray@@0@Z$1 10021bac f   _MasterDataManager.obj
 0001:00020bb5       __unwindfunclet$?_DoSortCode@CMasterDataManager@@IAEXAAVCStringArray@@0@Z$2 10021bb5 f   _MasterDataManager.obj
 0001:00020bc1       __unwindfunclet$?_DoSortCode@CMasterDataManager@@IAEXAAVCStringArray@@0@Z$3 10021bc1 f   _MasterDataManager.obj
 0001:00020bd2       __ehhandler$?_DoSortCode@CMasterDataManager@@IAEXAAVCStringArray@@0@Z 10021bd2 f   _MasterDataManager.obj
 0001:00020c00       __ehhandler$??1?$CList@PAUST_NewsSignalMng@@PAU1@@@UAE@XZ 10021c00 f   _NewSignalManager.obj
 0001:00020c20       __ehhandler$??1CNewsSignalManager@@QAE@XZ 10021c20 f   _NewSignalManager.obj
 0001:00020c40       __ehhandler$??_G?$CList@PAUST_NewsSignalMng@@PAU1@@@UAEPAXI@Z 10021c40 f   _NewSignalManager.obj
 0001:00020c60       __ehhandler$??1?$CList@PAUISkinColorSite@@PAU1@@@UAE@XZ 10021c60 f   _SkinColorManager.obj
 0001:00020c80       __ehhandler$??1CSkinColorManager@@QAE@XZ 10021c80 f   _SkinColorManager.obj
 0001:00020ca0       __ehhandler$??_G?$CList@PAUISkinColorSite@@PAU1@@@UAEPAXI@Z 10021ca0 f   _SkinColorManager.obj
 0001:00020cc0       __unwindfunclet$?LoadSkinInfo@CSkinColorManager@@QAEXXZ$0 10021cc0 f   _SkinColorManager.obj
 0001:00020ccb       __unwindfunclet$?LoadSkinInfo@CSkinColorManager@@QAEXXZ$3 10021ccb f   _SkinColorManager.obj
 0001:00020cd7       __unwindfunclet$?LoadSkinInfo@CSkinColorManager@@QAEXXZ$4 10021cd7 f   _SkinColorManager.obj
 0001:00020ce6       __unwindfunclet$?LoadSkinInfo@CSkinColorManager@@QAEXXZ$5 10021ce6 f   _SkinColorManager.obj
 0001:00020cf5       __unwindfunclet$?LoadSkinInfo@CSkinColorManager@@QAEXXZ$6 10021cf5 f   _SkinColorManager.obj
 0001:00020d04       __unwindfunclet$?LoadSkinInfo@CSkinColorManager@@QAEXXZ$7 10021d04 f   _SkinColorManager.obj
 0001:00020d13       __unwindfunclet$?LoadSkinInfo@CSkinColorManager@@QAEXXZ$8 10021d13 f   _SkinColorManager.obj
 0001:00020d22       __unwindfunclet$?LoadSkinInfo@CSkinColorManager@@QAEXXZ$10 10021d22 f   _SkinColorManager.obj
 0001:00020d32       __ehhandler$?LoadSkinInfo@CSkinColorManager@@QAEXXZ 10021d32 f   _SkinColorManager.obj
 0001:00020d60       __ehhandler$??1CSTManager@@QAE@XZ 10021d60 f   _STManager.obj
 0001:00020d80       __unwindfunclet$?ComServerFromProgID@CProgIDInfo@@SAJPBDAAV?$CStringT@DV?$StrTraitMFC_DLL@DV?$ChTraitsCRT@D@ATL@@@@@ATL@@@Z$0 10021d80 f   _SystemUtilManager.obj
 0001:00020d89       __unwindfunclet$?ComServerFromProgID@CProgIDInfo@@SAJPBDAAV?$CStringT@DV?$StrTraitMFC_DLL@DV?$ChTraitsCRT@D@ATL@@@@@ATL@@@Z$1 10021d89 f   _SystemUtilManager.obj
 0001:00020d92       __unwindfunclet$?ComServerFromProgID@CProgIDInfo@@SAJPBDAAV?$CStringT@DV?$StrTraitMFC_DLL@DV?$ChTraitsCRT@D@ATL@@@@@ATL@@@Z$2 10021d92 f   _SystemUtilManager.obj
 0001:00020da0       __ehhandler$?ComServerFromProgID@CProgIDInfo@@SAJPBDAAV?$CStringT@DV?$StrTraitMFC_DLL@DV?$ChTraitsCRT@D@ATL@@@@@ATL@@@Z 10021da0 f   _SystemUtilManager.obj
 0001:00020dc0       __unwindfunclet$??0CCriticalSection@@QAE@XZ$0 10021dc0 f   _TRCommManager.obj
 0001:00020dcd       __ehhandler$??0CCriticalSection@@QAE@XZ 10021dcd f   _TRCommManager.obj
 0001:00020df0       __unwindfunclet$??0CTrCommImpl@@QAE@PAUHWND__@@@Z$0 10021df0 f   _TRCommManager.obj
 0001:00020dfb       __unwindfunclet$??0CTrCommImpl@@QAE@PAUHWND__@@@Z$1 10021dfb f   _TRCommManager.obj
 0001:00020e05       __unwindfunclet$??0CTrCommImpl@@QAE@PAUHWND__@@@Z$3 10021e05 f   _TRCommManager.obj
 0001:00020e0d       __unwindfunclet$??0CTrCommImpl@@QAE@PAUHWND__@@@Z$4 10021e0d f   _TRCommManager.obj
 0001:00020e1c       __unwindfunclet$??0CTrCommImpl@@QAE@PAUHWND__@@@Z$5 10021e1c f   _TRCommManager.obj
 0001:00020e2a       __unwindfunclet$??0CTrCommImpl@@QAE@PAUHWND__@@@Z$6 10021e2a f   _TRCommManager.obj
 0001:00020e39       __unwindfunclet$??0CTrCommImpl@@QAE@PAUHWND__@@@Z$7 10021e39 f   _TRCommManager.obj
 0001:00020e47       __unwindfunclet$??0CTrCommImpl@@QAE@PAUHWND__@@@Z$2 10021e47 f   _TRCommManager.obj
 0001:00020e55       __ehhandler$??0CTrCommImpl@@QAE@PAUHWND__@@@Z 10021e55 f   _TRCommManager.obj
 0001:00020e80       __ehhandler$??1?$CList@PAVCTrCommImpl@@PAV1@@@UAE@XZ 10021e80 f   _TRCommManager.obj
 0001:00020ea0       __ehhandler$??1CTrCommImpl@@QAE@XZ 10021ea0 f   _TRCommManager.obj
 0001:00020ec0       __ehhandler$??1CTrCommManager@@QAE@XZ 10021ec0 f   _TRCommManager.obj
 0001:00020ee0       __ehhandler$??_G?$CList@PAVCTrCommImpl@@PAV1@@@UAEPAXI@Z 10021ee0 f   _TRCommManager.obj
 0001:00020f00       __ehhandler$??_GCTRComm@@UAEPAXI@Z 10021f00 f   _TRCommManager.obj
 0001:00020f20       __ehhandler$?UnAdviseTrComm@CTrCommManager@@UAGXPAUITrComm@@@Z 10021f20 f   _TRCommManager.obj
 0001:00020f3d       __ehhandler$??1CAtlComModule@ATL@@QAE@XZ 10021f3d f   mfcs140:nolib.obj
 0001:00020f5a       __ehhandler$??_Estringdispid@CComTypeInfoHolder@ATL@@QAEPAXI@Z 10021f5a f   mfcs140:nolib.obj
 0001:00020f77       __ehhandler$??__F_AtlComModule@ATL@@YAXXZ 10021f77 f   mfcs140:nolib.obj
 0001:00020f94       __ehhandler$??__F_AtlComModule@ATL@@YAXXZ 10021f94 f   mfcs140:dllmodul.obj
 0001:00020fb1       __unwindfunclet$?AfxWndProcDllStatic@@YGJPAUHWND__@@IIJ@Z$0 10021fb1 f   mfcs140:dllmodul.obj
 0001:00020fbe       __ehhandler$?AfxWndProcDllStatic@@YGJPAUHWND__@@IIJ@Z 10021fbe f   mfcs140:dllmodul.obj
 0001:00020fdb       __unwindfunclet$_InternalDllMain@12$5 10021fdb f   mfcs140:dllmodul.obj
 0001:00020fe4       __unwindfunclet$_InternalDllMain@12$6 10021fe4 f   mfcs140:dllmodul.obj
 0001:00020ff1       __ehhandler$_InternalDllMain@12 10021ff1 f   mfcs140:dllmodul.obj
 0001:0002100e       __ehhandler$??__F_AtlComModule@ATL@@YAXXZ 1002200e f   mfcs140:stdafx.obj
 0001:0002102b       __ehhandler$??__F_AtlComModule@ATL@@YAXXZ 1002202b f   mfcs140:dllmodulx.obj
 0001:00021050       ??__FtheApp@@YAXXZ         10022050 f   PcTrMng.obj
 0001:00021060       ??__F_AtlComModule@ATL@@YAXXZ 10022060 f   StdAfx.obj
 0001:00021110       ??__F_AtlWinModule@ATL@@YAXXZ 10022110 f   StdAfx.obj
 0001:00021250       ??__FstrUserName@?1??GetUserID@CMainInfoManager@@UAGPBDXZ@YAXXZ 10022250 f   _MainInfoManager.obj
 0001:0002125b       ??__F_AtlComModule@ATL@@YAXXZ 1002225b f   mfcs140:nolib.obj
 0001:00021280       ??__F_AtlWinModule@ATL@@YAXXZ 10022280 f   mfcs140:nolib.obj
 0001:0002129a       ??__F_AtlComModule@ATL@@YAXXZ 1002229a f   mfcs140:dllmodul.obj
 0001:000212bf       ??__F_AtlWinModule@ATL@@YAXXZ 100222bf f   mfcs140:dllmodul.obj
 0001:000212d9       ??__FafxModuleState@@YAXXZ 100222d9 f   mfcs140:dllmodul.obj
 0001:000212e3       ??__F_AtlComModule@ATL@@YAXXZ 100222e3 f   mfcs140:stdafx.obj
 0001:00021308       ??__F_AtlWinModule@ATL@@YAXXZ 10022308 f   mfcs140:stdafx.obj
 0001:00021322       ??__F_AtlComModule@ATL@@YAXXZ 10022322 f   mfcs140:dllmodulx.obj
 0001:00021347       ??__F_AtlWinModule@ATL@@YAXXZ 10022347 f   mfcs140:dllmodulx.obj
 0001:00021361       ??__F_AtlBaseModule@ATL@@YAXXZ 10022361 f   atls:atlbase.obj
 0002:000006b0       ?afxModuleState$initializer$@@3P6AXXZA 100236b0     mfcs140:dllmodul.obj
 0002:000006b4       ?_AtlBaseModule$initializer$@ATL@@3P6AXXZA 100236b4     atls:atlbase.obj
 0002:000006b8       ?RMSG_INTERFACE$initializer$@@3P6AXXZA 100236b8     #SiteDependency.obj
 0002:000006bc       ?RMSG_GETPCTRDATA$initializer$@@3P6AXXZA 100236bc     #SiteDependency.obj
 0002:000006c0       ?RMSG_SETPCTRDATA$initializer$@@3P6AXXZA 100236c0     #SiteDependency.obj
 0002:000006c4       ?RMSG_CONCERNHWND$initializer$@@3P6AXXZA 100236c4     #SiteDependency.obj
 0002:000006c8       ?RMSG_INTREQUEST$initializer$@@3P6AXXZA 100236c8     #SiteDependency.obj
 0002:000006cc       ?RMSG_GWANSIMREGISTER$initializer$@@3P6AXXZA 100236cc     #SiteDependency.obj
 0002:000006d0       ?RMSG_INTERFACE$initializer$@@3P6AXXZA 100236d0     EtcUtil.obj
 0002:000006d4       ?RMSG_GETPCTRDATA$initializer$@@3P6AXXZA 100236d4     EtcUtil.obj
 0002:000006d8       ?RMSG_SETPCTRDATA$initializer$@@3P6AXXZA 100236d8     EtcUtil.obj
 0002:000006dc       ?RMSG_CONCERNHWND$initializer$@@3P6AXXZA 100236dc     EtcUtil.obj
 0002:000006e0       ?RMSG_INTREQUEST$initializer$@@3P6AXXZA 100236e0     EtcUtil.obj
 0002:000006e4       ?RMSG_GWANSIMREGISTER$initializer$@@3P6AXXZA 100236e4     EtcUtil.obj
 0002:000006e8       ?RMSG_INTERFACE$initializer$@@3P6AXXZA 100236e8     GwanWnd.obj
 0002:000006ec       ?RMSG_GETPCTRDATA$initializer$@@3P6AXXZA 100236ec     GwanWnd.obj
 0002:000006f0       ?RMSG_SETPCTRDATA$initializer$@@3P6AXXZA 100236f0     GwanWnd.obj
 0002:000006f4       ?RMSG_CONCERNHWND$initializer$@@3P6AXXZA 100236f4     GwanWnd.obj
 0002:000006f8       ?RMSG_INTREQUEST$initializer$@@3P6AXXZA 100236f8     GwanWnd.obj
 0002:000006fc       ?RMSG_GWANSIMREGISTER$initializer$@@3P6AXXZA 100236fc     GwanWnd.obj
 0002:00000700       ?RMSG_INTERFACE$initializer$@@3P6AXXZA 10023700     PCtrMainWnd.obj
 0002:00000704       ?RMSG_GETPCTRDATA$initializer$@@3P6AXXZA 10023704     PCtrMainWnd.obj
 0002:00000708       ?RMSG_SETPCTRDATA$initializer$@@3P6AXXZA 10023708     PCtrMainWnd.obj
 0002:0000070c       ?RMSG_INTERFACE$initializer$@@3P6AXXZA 1002370c     PcTrMng.obj
 0002:00000710       ?RMSG_GETPCTRDATA$initializer$@@3P6AXXZA 10023710     PcTrMng.obj
 0002:00000714       ?RMSG_SETPCTRDATA$initializer$@@3P6AXXZA 10023714     PcTrMng.obj
 0002:00000718       ?RMSG_CONCERNHWND$initializer$@@3P6AXXZA 10023718     PcTrMng.obj
 0002:0000071c       ?RMSG_INTREQUEST$initializer$@@3P6AXXZA 1002371c     PcTrMng.obj
 0002:00000720       ?RMSG_GWANSIMREGISTER$initializer$@@3P6AXXZA 10023720     PcTrMng.obj
 0002:00000724       ?theApp$initializer$@@3P6AXXZA 10023724     PcTrMng.obj
 0002:00000728       ?_AtlComModule$initializer$@ATL@@3P6AXXZA 10023728     StdAfx.obj
 0002:0000072c       ?_AtlWinModule$initializer$@ATL@@3P6AXXZA 1002372c     StdAfx.obj
 0002:00000730       ?InitializeCAtlStringMgr$initializer$@ATLImplementationDetails@ATL@@3P6AXXZA 10023730     StdAfx.obj
 0002:00000734       ??isInitialized$initializer$@CAtlStringMgr@ATL@@0P6AXXZA@@3P6AXXZA 10023734     StdAfx.obj
 0002:00000738       ?RMSG_INTERFACE$initializer$@@3P6AXXZA 10023738     TrComm.obj
 0002:0000073c       ?RMSG_GETPCTRDATA$initializer$@@3P6AXXZA 1002373c     TrComm.obj
 0002:00000740       ?RMSG_SETPCTRDATA$initializer$@@3P6AXXZA 10023740     TrComm.obj
 0002:00000744       ?RMSG_CONCERNHWND$initializer$@@3P6AXXZA 10023744     TrComm.obj
 0002:00000748       ?RMSG_INTREQUEST$initializer$@@3P6AXXZA 10023748     TrComm.obj
 0002:0000074c       ?RMSG_GWANSIMREGISTER$initializer$@@3P6AXXZA 1002374c     TrComm.obj
 0002:00000750       ?RMSG_GETSIGNAL_REAL$initializer$@@3P6AXXZA 10023750     TrComm.obj
 0002:00000754       ?RMSG_INTERFACE$initializer$@@3P6AXXZA 10023754     _CompanyManager.obj
 0002:00000758       ?RMSG_GETPCTRDATA$initializer$@@3P6AXXZA 10023758     _CompanyManager.obj
 0002:0000075c       ?RMSG_SETPCTRDATA$initializer$@@3P6AXXZA 1002375c     _CompanyManager.obj
 0002:00000760       ?RMSG_CONCERNHWND$initializer$@@3P6AXXZA 10023760     _CompanyManager.obj
 0002:00000764       ?RMSG_INTREQUEST$initializer$@@3P6AXXZA 10023764     _CompanyManager.obj
 0002:00000768       ?RMSG_GWANSIMREGISTER$initializer$@@3P6AXXZA 10023768     _CompanyManager.obj
 0002:0000076c       ?RMSG_INTERFACE$initializer$@@3P6AXXZA 1002376c     _DataMonitorManager.obj
 0002:00000770       ?RMSG_GETPCTRDATA$initializer$@@3P6AXXZA 10023770     _DataMonitorManager.obj
 0002:00000774       ?RMSG_SETPCTRDATA$initializer$@@3P6AXXZA 10023774     _DataMonitorManager.obj
 0002:00000778       ?RMSG_CONCERNHWND$initializer$@@3P6AXXZA 10023778     _DataMonitorManager.obj
 0002:0000077c       ?RMSG_INTREQUEST$initializer$@@3P6AXXZA 1002377c     _DataMonitorManager.obj
 0002:00000780       ?RMSG_GWANSIMREGISTER$initializer$@@3P6AXXZA 10023780     _DataMonitorManager.obj
 0002:00000784       ?RMSG_INTERFACE$initializer$@@3P6AXXZA 10023784     _DataUtilManager.obj
 0002:00000788       ?RMSG_GETPCTRDATA$initializer$@@3P6AXXZA 10023788     _DataUtilManager.obj
 0002:0000078c       ?RMSG_SETPCTRDATA$initializer$@@3P6AXXZA 1002378c     _DataUtilManager.obj
 0002:00000790       ?RMSG_CONCERNHWND$initializer$@@3P6AXXZA 10023790     _DataUtilManager.obj
 0002:00000794       ?RMSG_INTREQUEST$initializer$@@3P6AXXZA 10023794     _DataUtilManager.obj
 0002:00000798       ?RMSG_GWANSIMREGISTER$initializer$@@3P6AXXZA 10023798     _DataUtilManager.obj
 0002:0000079c       ?RMSG_INTERFACE$initializer$@@3P6AXXZA 1002379c     _DebugManager.obj
 0002:000007a0       ?RMSG_GETPCTRDATA$initializer$@@3P6AXXZA 100237a0     _DebugManager.obj
 0002:000007a4       ?RMSG_SETPCTRDATA$initializer$@@3P6AXXZA 100237a4     _DebugManager.obj
 0002:000007a8       ?RMSG_CONCERNHWND$initializer$@@3P6AXXZA 100237a8     _DebugManager.obj
 0002:000007ac       ?RMSG_INTREQUEST$initializer$@@3P6AXXZA 100237ac     _DebugManager.obj
 0002:000007b0       ?RMSG_GWANSIMREGISTER$initializer$@@3P6AXXZA 100237b0     _DebugManager.obj
 0002:000007b4       ?m_uRMSG_HandleToDebug$initializer$@@3P6AXXZA 100237b4     _DebugManager.obj
 0002:000007b8       ?RMSG_INTERFACE$initializer$@@3P6AXXZA 100237b8     _DrdsManager.obj
 0002:000007bc       ?RMSG_GETPCTRDATA$initializer$@@3P6AXXZA 100237bc     _DrdsManager.obj
 0002:000007c0       ?RMSG_SETPCTRDATA$initializer$@@3P6AXXZA 100237c0     _DrdsManager.obj
 0002:000007c4       ?RMSG_CONCERNHWND$initializer$@@3P6AXXZA 100237c4     _DrdsManager.obj
 0002:000007c8       ?RMSG_INTREQUEST$initializer$@@3P6AXXZA 100237c8     _DrdsManager.obj
 0002:000007cc       ?RMSG_GWANSIMREGISTER$initializer$@@3P6AXXZA 100237cc     _DrdsManager.obj
 0002:000007d0       ?RMSG_INTERFACE$initializer$@@3P6AXXZA 100237d0     _GateManager.obj
 0002:000007d4       ?RMSG_GETPCTRDATA$initializer$@@3P6AXXZA 100237d4     _GateManager.obj
 0002:000007d8       ?RMSG_SETPCTRDATA$initializer$@@3P6AXXZA 100237d8     _GateManager.obj
 0002:000007dc       ?RMSG_CONCERNHWND$initializer$@@3P6AXXZA 100237dc     _GateManager.obj
 0002:000007e0       ?RMSG_INTREQUEST$initializer$@@3P6AXXZA 100237e0     _GateManager.obj
 0002:000007e4       ?RMSG_GWANSIMREGISTER$initializer$@@3P6AXXZA 100237e4     _GateManager.obj
 0002:000007e8       ?RMSG_INTERFACE$initializer$@@3P6AXXZA 100237e8     _GwanManager.obj
 0002:000007ec       ?RMSG_GETPCTRDATA$initializer$@@3P6AXXZA 100237ec     _GwanManager.obj
 0002:000007f0       ?RMSG_SETPCTRDATA$initializer$@@3P6AXXZA 100237f0     _GwanManager.obj
 0002:000007f4       ?RMSG_CONCERNHWND$initializer$@@3P6AXXZA 100237f4     _GwanManager.obj
 0002:000007f8       ?RMSG_INTREQUEST$initializer$@@3P6AXXZA 100237f8     _GwanManager.obj
 0002:000007fc       ?RMSG_GWANSIMREGISTER$initializer$@@3P6AXXZA 100237fc     _GwanManager.obj
 0002:00000800       ?RMSG_INTERFACE$initializer$@@3P6AXXZA 10023800     _MainExInfoManager.obj
 0002:00000804       ?RMSG_GETPCTRDATA$initializer$@@3P6AXXZA 10023804     _MainExInfoManager.obj
 0002:00000808       ?RMSG_SETPCTRDATA$initializer$@@3P6AXXZA 10023808     _MainExInfoManager.obj
 0002:0000080c       ?RMSG_CONCERNHWND$initializer$@@3P6AXXZA 1002380c     _MainExInfoManager.obj
 0002:00000810       ?RMSG_INTREQUEST$initializer$@@3P6AXXZA 10023810     _MainExInfoManager.obj
 0002:00000814       ?RMSG_GWANSIMREGISTER$initializer$@@3P6AXXZA 10023814     _MainExInfoManager.obj
 0002:00000818       ?RMSG_INTERFACE$initializer$@@3P6AXXZA 10023818     _MainInfoManager.obj
 0002:0000081c       ?RMSG_GETPCTRDATA$initializer$@@3P6AXXZA 1002381c     _MainInfoManager.obj
 0002:00000820       ?RMSG_SETPCTRDATA$initializer$@@3P6AXXZA 10023820     _MainInfoManager.obj
 0002:00000824       ?RMSG_CONCERNHWND$initializer$@@3P6AXXZA 10023824     _MainInfoManager.obj
 0002:00000828       ?RMSG_INTREQUEST$initializer$@@3P6AXXZA 10023828     _MainInfoManager.obj
 0002:0000082c       ?RMSG_GWANSIMREGISTER$initializer$@@3P6AXXZA 1002382c     _MainInfoManager.obj
 0002:00000830       ?RMSG_INTERFACE$initializer$@@3P6AXXZA 10023830     _MasterDataManager.obj
 0002:00000834       ?RMSG_GETPCTRDATA$initializer$@@3P6AXXZA 10023834     _MasterDataManager.obj
 0002:00000838       ?RMSG_SETPCTRDATA$initializer$@@3P6AXXZA 10023838     _MasterDataManager.obj
 0002:0000083c       ?RMSG_CONCERNHWND$initializer$@@3P6AXXZA 1002383c     _MasterDataManager.obj
 0002:00000840       ?RMSG_INTREQUEST$initializer$@@3P6AXXZA 10023840     _MasterDataManager.obj
 0002:00000844       ?RMSG_GWANSIMREGISTER$initializer$@@3P6AXXZA 10023844     _MasterDataManager.obj
 0002:00000848       ?RMSG_INTERFACE$initializer$@@3P6AXXZA 10023848     _NewSignalManager.obj
 0002:0000084c       ?RMSG_GETPCTRDATA$initializer$@@3P6AXXZA 1002384c     _NewSignalManager.obj
 0002:00000850       ?RMSG_SETPCTRDATA$initializer$@@3P6AXXZA 10023850     _NewSignalManager.obj
 0002:00000854       ?RMSG_CONCERNHWND$initializer$@@3P6AXXZA 10023854     _NewSignalManager.obj
 0002:00000858       ?RMSG_INTREQUEST$initializer$@@3P6AXXZA 10023858     _NewSignalManager.obj
 0002:0000085c       ?RMSG_GWANSIMREGISTER$initializer$@@3P6AXXZA 1002385c     _NewSignalManager.obj
 0002:00000860       ?RMSG_INTERFACE$initializer$@@3P6AXXZA 10023860     _PCTrManager.obj
 0002:00000864       ?RMSG_GETPCTRDATA$initializer$@@3P6AXXZA 10023864     _PCTrManager.obj
 0002:00000868       ?RMSG_SETPCTRDATA$initializer$@@3P6AXXZA 10023868     _PCTrManager.obj
 0002:0000086c       ?RMSG_CONCERNHWND$initializer$@@3P6AXXZA 1002386c     _PCTrManager.obj
 0002:00000870       ?RMSG_INTREQUEST$initializer$@@3P6AXXZA 10023870     _PCTrManager.obj
 0002:00000874       ?RMSG_GWANSIMREGISTER$initializer$@@3P6AXXZA 10023874     _PCTrManager.obj
 0002:00000878       ?RMSG_INTERFACE$initializer$@@3P6AXXZA 10023878     _RegistryManager.obj
 0002:0000087c       ?RMSG_GETPCTRDATA$initializer$@@3P6AXXZA 1002387c     _RegistryManager.obj
 0002:00000880       ?RMSG_SETPCTRDATA$initializer$@@3P6AXXZA 10023880     _RegistryManager.obj
 0002:00000884       ?RMSG_CONCERNHWND$initializer$@@3P6AXXZA 10023884     _RegistryManager.obj
 0002:00000888       ?RMSG_INTREQUEST$initializer$@@3P6AXXZA 10023888     _RegistryManager.obj
 0002:0000088c       ?RMSG_GWANSIMREGISTER$initializer$@@3P6AXXZA 1002388c     _RegistryManager.obj
 0002:00000890       ?RMSG_INTERFACE$initializer$@@3P6AXXZA 10023890     _SkinColorManager.obj
 0002:00000894       ?RMSG_GETPCTRDATA$initializer$@@3P6AXXZA 10023894     _SkinColorManager.obj
 0002:00000898       ?RMSG_SETPCTRDATA$initializer$@@3P6AXXZA 10023898     _SkinColorManager.obj
 0002:0000089c       ?RMSG_CONCERNHWND$initializer$@@3P6AXXZA 1002389c     _SkinColorManager.obj
 0002:000008a0       ?RMSG_INTREQUEST$initializer$@@3P6AXXZA 100238a0     _SkinColorManager.obj
 0002:000008a4       ?RMSG_GWANSIMREGISTER$initializer$@@3P6AXXZA 100238a4     _SkinColorManager.obj
 0002:000008a8       ?RMSG_INTERFACE$initializer$@@3P6AXXZA 100238a8     _STManager.obj
 0002:000008ac       ?RMSG_GETPCTRDATA$initializer$@@3P6AXXZA 100238ac     _STManager.obj
 0002:000008b0       ?RMSG_SETPCTRDATA$initializer$@@3P6AXXZA 100238b0     _STManager.obj
 0002:000008b4       ?RMSG_CONCERNHWND$initializer$@@3P6AXXZA 100238b4     _STManager.obj
 0002:000008b8       ?RMSG_INTREQUEST$initializer$@@3P6AXXZA 100238b8     _STManager.obj
 0002:000008bc       ?RMSG_GWANSIMREGISTER$initializer$@@3P6AXXZA 100238bc     _STManager.obj
 0002:000008c0       ?RMSG_INTERFACE$initializer$@@3P6AXXZA 100238c0     _SystemUtilManager.obj
 0002:000008c4       ?RMSG_GETPCTRDATA$initializer$@@3P6AXXZA 100238c4     _SystemUtilManager.obj
 0002:000008c8       ?RMSG_SETPCTRDATA$initializer$@@3P6AXXZA 100238c8     _SystemUtilManager.obj
 0002:000008cc       ?RMSG_CONCERNHWND$initializer$@@3P6AXXZA 100238cc     _SystemUtilManager.obj
 0002:000008d0       ?RMSG_INTREQUEST$initializer$@@3P6AXXZA 100238d0     _SystemUtilManager.obj
 0002:000008d4       ?RMSG_GWANSIMREGISTER$initializer$@@3P6AXXZA 100238d4     _SystemUtilManager.obj
 0002:000008d8       ?RMSG_INTERFACE$initializer$@@3P6AXXZA 100238d8     _TRCommManager.obj
 0002:000008dc       ?RMSG_GETPCTRDATA$initializer$@@3P6AXXZA 100238dc     _TRCommManager.obj
 0002:000008e0       ?RMSG_SETPCTRDATA$initializer$@@3P6AXXZA 100238e0     _TRCommManager.obj
 0002:000008e4       ?RMSG_CONCERNHWND$initializer$@@3P6AXXZA 100238e4     _TRCommManager.obj
 0002:000008e8       ?RMSG_INTREQUEST$initializer$@@3P6AXXZA 100238e8     _TRCommManager.obj
 0002:000008ec       ?RMSG_GWANSIMREGISTER$initializer$@@3P6AXXZA 100238ec     _TRCommManager.obj
 0002:000008f8       ?__scrt_initialize_tss_var@@3P6AHXZA 100238f8     msvcrt:thread_safe_statics.obj
 0002:00001cc0       ?_messageEntries@?1??GetThisMessageMap@CGwanWnd@@KGPBUAFX_MSGMAP@@XZ@4QBUAFX_MSGMAP_ENTRY@@B 10024cc0     GwanWnd.obj
 0002:00001cf0       ?messageMap@?1??GetThisMessageMap@CGwanWnd@@KGPBUAFX_MSGMAP@@XZ@4U3@B 10024cf0     GwanWnd.obj
 0002:00001e68       ?_messageEntries@?1??GetThisMessageMap@CNewsMoniterWnd@@KGPBUAFX_MSGMAP@@XZ@4QBUAFX_MSGMAP_ENTRY@@B 10024e68     NewsMoniterWnd.obj
 0002:00001eb0       ?messageMap@?1??GetThisMessageMap@CNewsMoniterWnd@@KGPBUAFX_MSGMAP@@XZ@4U3@B 10024eb0     NewsMoniterWnd.obj
 0002:000020f0       ?_messageEntries@?1??GetThisMessageMap@CPCtrMainWnd@@KGPBUAFX_MSGMAP@@XZ@4QBUAFX_MSGMAP_ENTRY@@B 100250f0     PCtrMainWnd.obj
 0002:00002108       ?messageMap@?1??GetThisMessageMap@CPCtrMainWnd@@KGPBUAFX_MSGMAP@@XZ@4U3@B 10025108     PCtrMainWnd.obj
 0002:000023c4       ?_messageEntries@?1??GetThisMessageMap@CPcTrMngApp@@KGPBUAFX_MSGMAP@@XZ@4QBUAFX_MSGMAP_ENTRY@@B 100253c4     PcTrMng.obj
 0002:000023dc       ?messageMap@?1??GetThisMessageMap@CPcTrMngApp@@KGPBUAFX_MSGMAP@@XZ@4U3@B 100253dc     PcTrMng.obj
 0002:00002870       ?_messageEntries@?1??GetThisMessageMap@CTRComm@@KGPBUAFX_MSGMAP@@XZ@4QBUAFX_MSGMAP_ENTRY@@B 10025870     TrComm.obj
 0002:000028b8       ?messageMap@?1??GetThisMessageMap@CTRComm@@KGPBUAFX_MSGMAP@@XZ@4U3@B 100258b8     TrComm.obj
 0002:00005bb0       _GS_ExceptionPointers      10028bb0     msvcrt:gs_report.obj
 0002:00008bc0       __unwindtable$??1CDispDesk@@QAE@XZ 1002bbc0     DispDesk.obj
 0002:00008bc8       __ehfuncinfo$??1CDispDesk@@QAE@XZ 1002bbc8     DispDesk.obj
 0002:00008bec       __unwindtable$?GetTrList@CDispDesk@@QAE?AV?$CStringT@DV?$StrTraitMFC_DLL@DV?$ChTraitsCRT@D@ATL@@@@@ATL@@XZ 1002bbec     DispDesk.obj
 0002:00008bf4       __ehfuncinfo$?GetTrList@CDispDesk@@QAE?AV?$CStringT@DV?$StrTraitMFC_DLL@DV?$ChTraitsCRT@D@ATL@@@@@ATL@@XZ 1002bbf4     DispDesk.obj
 0002:00008c18       __unwindtable$?GetMapName@CDispDesk@@QAE?AV?$CStringT@DV?$StrTraitMFC_DLL@DV?$ChTraitsCRT@D@ATL@@@@@ATL@@XZ 1002bc18     DispDesk.obj
 0002:00008c20       __ehfuncinfo$?GetMapName@CDispDesk@@QAE?AV?$CStringT@DV?$StrTraitMFC_DLL@DV?$ChTraitsCRT@D@ATL@@@@@ATL@@XZ 1002bc20     DispDesk.obj
 0002:00008c44       __unwindtable$?GetCtrlNameFromHwnd@CDispDesk@@QAE?AV?$CStringT@DV?$StrTraitMFC_DLL@DV?$ChTraitsCRT@D@ATL@@@@@ATL@@J@Z 1002bc44     DispDesk.obj
 0002:00008c4c       __ehfuncinfo$?GetCtrlNameFromHwnd@CDispDesk@@QAE?AV?$CStringT@DV?$StrTraitMFC_DLL@DV?$ChTraitsCRT@D@ATL@@@@@ATL@@J@Z 1002bc4c     DispDesk.obj
 0002:00008c70       __unwindtable$?GetCtrlTypeFromHwnd@CDispDesk@@QAE?AV?$CStringT@DV?$StrTraitMFC_DLL@DV?$ChTraitsCRT@D@ATL@@@@@ATL@@J@Z 1002bc70     DispDesk.obj
 0002:00008c78       __ehfuncinfo$?GetCtrlTypeFromHwnd@CDispDesk@@QAE?AV?$CStringT@DV?$StrTraitMFC_DLL@DV?$ChTraitsCRT@D@ATL@@@@@ATL@@J@Z 1002bc78     DispDesk.obj
 0002:00008c9c       __unwindtable$?GetCtrlTypeFromName@CDispDesk@@QAE?AV?$CStringT@DV?$StrTraitMFC_DLL@DV?$ChTraitsCRT@D@ATL@@@@@ATL@@PBD@Z 1002bc9c     DispDesk.obj
 0002:00008ca4       __ehfuncinfo$?GetCtrlTypeFromName@CDispDesk@@QAE?AV?$CStringT@DV?$StrTraitMFC_DLL@DV?$ChTraitsCRT@D@ATL@@@@@ATL@@PBD@Z 1002bca4     DispDesk.obj
 0002:00008cc8       __unwindtable$?GetRootPath@CDispDesk@@QAE?AV?$CStringT@DV?$StrTraitMFC_DLL@DV?$ChTraitsCRT@D@ATL@@@@@ATL@@PBD@Z 1002bcc8     DispDesk.obj
 0002:00008cd0       __ehfuncinfo$?GetRootPath@CDispDesk@@QAE?AV?$CStringT@DV?$StrTraitMFC_DLL@DV?$ChTraitsCRT@D@ATL@@@@@ATL@@PBD@Z 1002bcd0     DispDesk.obj
 0002:00008cf4       __unwindtable$?GetOpenMapData@CDispDesk@@QAE?AV?$CStringT@DV?$StrTraitMFC_DLL@DV?$ChTraitsCRT@D@ATL@@@@@ATL@@XZ 1002bcf4     DispDesk.obj
 0002:00008cfc       __ehfuncinfo$?GetOpenMapData@CDispDesk@@QAE?AV?$CStringT@DV?$StrTraitMFC_DLL@DV?$ChTraitsCRT@D@ATL@@@@@ATL@@XZ 1002bcfc     DispDesk.obj
 0002:00008d20       __unwindtable$?GetCurrentTrMessage@CDispDesk@@QAE?AV?$CStringT@DV?$StrTraitMFC_DLL@DV?$ChTraitsCRT@D@ATL@@@@@ATL@@XZ 1002bd20     DispDesk.obj
 0002:00008d28       __ehfuncinfo$?GetCurrentTrMessage@CDispDesk@@QAE?AV?$CStringT@DV?$StrTraitMFC_DLL@DV?$ChTraitsCRT@D@ATL@@@@@ATL@@XZ 1002bd28     DispDesk.obj
 0002:00008d4c       __unwindtable$?GetCurrentMsgCode@CDispDesk@@QAE?AV?$CStringT@DV?$StrTraitMFC_DLL@DV?$ChTraitsCRT@D@ATL@@@@@ATL@@XZ 1002bd4c     DispDesk.obj
 0002:00008d54       __ehfuncinfo$?GetCurrentMsgCode@CDispDesk@@QAE?AV?$CStringT@DV?$StrTraitMFC_DLL@DV?$ChTraitsCRT@D@ATL@@@@@ATL@@XZ 1002bd54     DispDesk.obj
 0002:00008d78       __unwindtable$?GetMapData@CDispDesk@@QAE?AV?$CStringT@DV?$StrTraitMFC_DLL@DV?$ChTraitsCRT@D@ATL@@@@@ATL@@XZ 1002bd78     DispDesk.obj
 0002:00008d80       __ehfuncinfo$?GetMapData@CDispDesk@@QAE?AV?$CStringT@DV?$StrTraitMFC_DLL@DV?$ChTraitsCRT@D@ATL@@@@@ATL@@XZ 1002bd80     DispDesk.obj
 0002:00008da4       __unwindtable$?GetMapCfgFile@CDispFormData@@QAE?AV?$CStringT@DV?$StrTraitMFC_DLL@DV?$ChTraitsCRT@D@ATL@@@@@ATL@@XZ 1002bda4     DispFormData.obj
