 STConfigureDlg

 Timestamp is 641272d6 (Thu Mar 16 10:37:26 2023)

 Preferred load address is 10000000

 Start         Length     Name                   Class
 0001:00000000 00000c20H .text$di                CODE
 0001:00000c20 00026ad0H .text$mn                CODE
 0001:000276f0 00003ba0H .text$x                 CODE
 0001:0002b290 000004dbH .text$yd                CODE
 0002:00000000 00000910H .idata$5                DATA
 0002:00000910 00000008H .00cfg                  DATA
 0002:00000918 00000004H .CRT$XCA                DATA
 0002:0000091c 00000008H .CRT$XCL                DATA
 0002:00000924 000000f0H .CRT$XCU                DATA
 0002:00000a14 00000004H .CRT$XCZ                DATA
 0002:00000a18 00000004H .CRT$XIA                DATA
 0002:00000a1c 00000004H .CRT$XIC                DATA
 0002:00000a20 00000004H .CRT$XIZ                DATA
 0002:00000a24 00000004H .CRT$XLA                DATA
 0002:00000a28 00000004H .CRT$XLZ                DATA
 0002:00000a2c 00000004H .CRT$XPA                DATA
 0002:00000a30 00000004H .CRT$XPZ                DATA
 0002:00000a34 00000004H .CRT$XTA                DATA
 0002:00000a38 00000008H .CRT$XTZ                DATA
 0002:00000a3c 00000000H .gfids$y                DATA
 0002:00000a40 00007e40H .rdata                  DATA
 0002:00008880 00000004H .rdata$CastGuardVftablesA DATA
 0002:00008884 00000004H .rdata$CastGuardVftablesC DATA
 0002:00008888 00000018H .rdata$T                DATA
 0002:000088a0 000013ecH .rdata$r                DATA
 0002:00009c8c 00000308H .rdata$sxdata           DATA
 0002:00009f94 00000040H .rdata$voltmd           DATA
 0002:00009fd4 00000438H .rdata$zzzdbg           DATA
 0002:0000a40c 00000004H .rtc$IAA                DATA
 0002:0000a410 00000004H .rtc$IZZ                DATA
 0002:0000a414 00000004H .rtc$TAA                DATA
 0002:0000a418 00000004H .rtc$TZZ                DATA
 0002:0000a41c 00000004H .tls                    DATA
 0002:0000a420 00000004H .tls$                   DATA
 0002:0000a424 00000004H .tls$ZZZ                DATA
 0002:0000a428 000030a4H .xdata$x                DATA
 0002:0000d4cc 00000004H ATL$__a                 DATA
 0002:0000d4d0 00000010H ATL$__z                 DATA
 0002:0000d4e0 00000218H .edata                  DATA
 0002:0000d6f8 00000140H .idata$2                DATA
 0002:0000d838 00000014H .idata$3                DATA
 0002:0000d84c 00000910H .idata$4                DATA
 0002:0000e15c 00000d8aH .idata$6                DATA
 0003:00000000 00000098H .data                   DATA
 0003:00000098 0000003cH .data$r                 DATA
 0003:000000d4 000006dcH .data$rs                DATA
 0003:000007b0 00000c38H .bss                    DATA
 0004:00000000 00000510H .rsrc$01                DATA
 0004:00000510 000081d0H .rsrc$02                DATA

  Address         Publics by Value              Rva+Base       Lib:Object

 0000:00000000       ___guard_eh_cont_count     00000000     <absolute>
 0000:00000000       ___enclave_config          00000000     <absolute>
 0000:00000000       ___hybrid_code_map         00000000     <absolute>
 0000:00000000       ___guard_longjmp_count     00000000     <absolute>
 0000:00000000       ___AbsoluteZero            00000000     <absolute>
 0000:00000000       ___guard_fids_table        00000000     <absolute>
 0000:00000000       ___guard_eh_cont_table     00000000     <absolute>
 0000:00000000       ___guard_check_icall_a64n_fptr 00000000     <absolute>
 0000:00000000       ___arm64x_extra_rfe_table_size 00000000     <absolute>
 0000:00000000       ___arm64x_redirection_metadata_count 00000000     <absolute>
 0000:00000000       ___arm64x_extra_rfe_table  00000000     <absolute>
 0000:00000000       ___guard_iat_count         00000000     <absolute>
 0000:00000000       ___arm64x_redirection_metadata 00000000     <absolute>
 0000:00000000       ___hybrid_code_map_count   00000000     <absolute>
 0000:00000000       ___arm64x_native_entrypoint 00000000     <absolute>
 0000:00000000       ___hybrid_auxiliary_iat    00000000     <absolute>
 0000:00000000       ___hybrid_auxiliary_iat_copy 00000000     <absolute>
 0000:00000000       ___dynamic_value_reloc_table 00000000     <absolute>
 0000:00000000       ___guard_fids_count        00000000     <absolute>
 0000:00000000       ___guard_longjmp_table     00000000     <absolute>
 0000:00000000       ___x64_code_ranges_to_entry_points_count 00000000     <absolute>
 0000:00000000       ___x64_code_ranges_to_entry_points 00000000     <absolute>
 0000:00000000       ___guard_iat_table         00000000     <absolute>
 0000:0000002c       __tls_array                0000002c     <absolute>
 0000:000000c2       ___safe_se_handler_count   000000c2     <absolute>
 0000:00000100       ___guard_flags             00000100     <absolute>
 0000:00000000       ___ImageBase               10000000     <linker-defined>
 0001:00000c20       ??0CBitmapItemComboBox@@QAE@XZ 10001c20 f   BitmapItemComboBox.obj
 0001:00000c50       ??1CBitmap@@UAE@XZ         10001c50 f i BitmapItemComboBox.obj
 0001:00000c60       ??1CBitmapItemComboBox@@UAE@XZ 10001c60 f   BitmapItemComboBox.obj
 0001:00000c90       ??1CBrush@@UAE@XZ          10001c90 f i BitmapItemComboBox.obj
 0001:00000ca0       ??1CGdiObject@@UAE@XZ      10001ca0 f i BitmapItemComboBox.obj
 0001:00000db0       ??1CObject@@UAE@XZ         10001db0 f i BitmapItemComboBox.obj
 0001:00000dc0       ??_ECBitmap@@UAEPAXI@Z     10001dc0 f i BitmapItemComboBox.obj
 0001:00000dc0       ??_GCBitmap@@UAEPAXI@Z     10001dc0 f i BitmapItemComboBox.obj
 0001:00000e00       ??_GCBitmapItemComboBox@@UAEPAXI@Z 10001e00 f i BitmapItemComboBox.obj
 0001:00000e00       ??_ECBitmapItemComboBox@@UAEPAXI@Z 10001e00 f i BitmapItemComboBox.obj
 0001:00000e60       ??_GCBrush@@UAEPAXI@Z      10001e60 f i BitmapItemComboBox.obj
 0001:00000e60       ??_ECBrush@@UAEPAXI@Z      10001e60 f i BitmapItemComboBox.obj
 0001:00000ea0       ??_ECComboBox@@UAEPAXI@Z   10001ea0 f i BitmapItemComboBox.obj
 0001:00000ea0       ??_GCComboBox@@UAEPAXI@Z   10001ea0 f i BitmapItemComboBox.obj
 0001:00000ee0       ??_ECGdiObject@@UAEPAXI@Z  10001ee0 f i BitmapItemComboBox.obj
 0001:00000ee0       ??_GCGdiObject@@UAEPAXI@Z  10001ee0 f i BitmapItemComboBox.obj
 0001:00000f20       ?AssertValid@CObject@@UBEXXZ 10001f20 f i BitmapItemComboBox.obj
 0001:00000f30       ?BeginModalState@CWnd@@UAEXXZ 10001f30 f i BitmapItemComboBox.obj
 0001:00000f40       ?DoDataExchange@CWnd@@MAEXPAVCDataExchange@@@Z 10001f40 f i BitmapItemComboBox.obj
 0001:00000f50       ?DrawItem@CBitmapItemComboBox@@UAEXPAUtagDRAWITEMSTRUCT@@@Z 10001f50 f   BitmapItemComboBox.obj
 0001:000010e0       ?Dump@CObject@@UBEXAAVCDumpContext@@@Z 100020e0 f i BitmapItemComboBox.obj
 0001:000010f0       ?EndModalState@CWnd@@UAEXXZ 100020f0 f i BitmapItemComboBox.obj
 0001:00001100       ?GetMessageMap@CBitmapItemComboBox@@MBEPBUAFX_MSGMAP@@XZ 10002100 f   BitmapItemComboBox.obj
 0001:00001110       ?GetThisMessageMap@CBitmapItemComboBox@@KGPBUAFX_MSGMAP@@XZ 10002110 f   BitmapItemComboBox.obj
 0001:00001120       ?MeasureItem@CBitmapItemComboBox@@UAEXPAUtagMEASUREITEMSTRUCT@@@Z 10002120 f   BitmapItemComboBox.obj
 0001:00001140       ?Serialize@CObject@@UAEXAAVCArchive@@@Z 10002140 f i BitmapItemComboBox.obj
 0001:00001150       ?__empty_global_delete@@YAXPAX@Z 10002150 f i BitmapItemComboBox.obj
 0001:00001160       ?__global_delete@@YAXPAXI@Z 10002160 f i BitmapItemComboBox.obj
 0001:00001160       ?__empty_global_delete@@YAXPAXI@Z 10002160 f i BitmapItemComboBox.obj
 0001:00001170       ??0CEtcColor@@QAE@ABK000000@Z 10002170 f   Color.obj
 0001:000011e0       ??0CEtcColor@@QAE@XZ       100021e0 f   Color.obj
 0001:00001220       ??0CEtcGraphColor@@QAE@ABK00000@Z 10002220 f   Color.obj
 0001:00001260       ??0CEtcGraphColor@@QAE@XZ  10002260 f   Color.obj
 0001:00001290       ??0CGraphColor@@QAE@ABK00000@Z 10002290 f   Color.obj
 0001:000012d0       ??0CGraphColor@@QAE@ABV0@@Z 100022d0 f   Color.obj
 0001:00001310       ??0CGraphColor@@QAE@ABV?$CStringT@DV?$StrTraitMFC_DLL@DV?$ChTraitsCRT@D@ATL@@@@@ATL@@@Z 10002310 f   Color.obj
 0001:00001360       ??0CGraphColor@@QAE@XZ     10002360 f   Color.obj
 0001:000013a0       ??0CGraphRegionColor@@QAE@ABK00@Z 100023a0 f   Color.obj
 0001:000013c0       ??0CGraphRegionColor@@QAE@XZ 100023c0 f   Color.obj
 0001:000013e0       ??0CScaleColor@@QAE@ABK00@Z 100023e0 f   Color.obj
 0001:00001400       ??0CScaleColor@@QAE@XZ     10002400 f   Color.obj
 0001:00001420       ??4CEtcColor@@QAEAAV0@ABV0@@Z 10002420 f   Color.obj
 0001:00001480       ??4CEtcGraphColor@@QAEAAV0@ABV0@@Z 10002480 f   Color.obj
 0001:000014c0       ??4CGraphColor@@QAEAAV0@ABV0@@Z 100024c0 f   Color.obj
 0001:00001500       ??4CGraphRegionColor@@QAEAAV0@ABV0@@Z 10002500 f   Color.obj
 0001:00001520       ??4CScaleColor@@QAEAAV0@ABV0@@Z 10002520 f   Color.obj
 0001:00001540       ?GetBackgroundColor@CGraphRegionColor@@QBEKXZ 10002540 f   Color.obj
 0001:00001550       ?GetColor1@CGraphColor@@QBEKXZ 10002550 f   Color.obj
 0001:00001560       ?GetColor2@CGraphColor@@QBEKXZ 10002560 f   Color.obj
 0001:00001570       ?GetColor3@CGraphColor@@QBEKXZ 10002570 f   Color.obj
 0001:00001580       ?GetColor4@CGraphColor@@QBEKXZ 10002580 f   Color.obj
 0001:00001590       ?GetColor5@CGraphColor@@QBEKXZ 10002590 f   Color.obj
 0001:000015a0       ?GetColor6@CGraphColor@@QBEKXZ 100025a0 f   Color.obj
 0001:000015b0       ?GetDownGraphFill@CGraphColor@@QBE_NXZ 100025b0 f   Color.obj
 0001:000015c0       ?GetEtcGraphColor@CEtcColor@@QBE?AVCEtcGraphColor@@XZ 100025c0 f   Color.obj
 0001:000015e0       ?GetFrameColor@CGraphRegionColor@@QBEKXZ 100025e0 f   Color.obj
 0001:000015f0       ?GetGraphColor1@CEtcGraphColor@@QBEKXZ 100025f0 f   Color.obj
 0001:00001600       ?GetGraphColor2@CEtcGraphColor@@QBEKXZ 10002600 f   Color.obj
 0001:00001610       ?GetGraphColor3@CEtcGraphColor@@QBEKXZ 10002610 f   Color.obj
 0001:00001620       ?GetGraphColor4@CEtcGraphColor@@QBEKXZ 10002620 f   Color.obj
 0001:00001630       ?GetGraphColor5@CEtcGraphColor@@QBEKXZ 10002630 f   Color.obj
 0001:00001640       ?GetGraphColor6@CEtcGraphColor@@QBEKXZ 10002640 f   Color.obj
 0001:00001650       ?GetHorzScaleColor@CScaleColor@@QAEAAKXZ 10002650 f   Color.obj
 0001:00001660       ?GetHorzScaleColor@CScaleColor@@QBEKXZ 10002660 f   Color.obj
 0001:00001670       ?GetLineColor@CGraphRegionColor@@QBEKXZ 10002670 f   Color.obj
 0001:00001680       ?GetScaleTextColor@CScaleColor@@QAEAAKXZ 10002680 f   Color.obj
 0001:00001690       ?GetScaleTextColor@CScaleColor@@QBEKXZ 10002690 f   Color.obj
 0001:000016a0       ?GetStringData@CGraphColor@@QBE?AV?$CStringT@DV?$StrTraitMFC_DLL@DV?$ChTraitsCRT@D@ATL@@@@@ATL@@XZ 100026a0 f   Color.obj
 0001:00001ab0       ?GetToolColor@CEtcColor@@QBEKXZ 10002ab0 f   Color.obj
 0001:00001ac0       ?GetUpGraphFill@CGraphColor@@QBE_NXZ 10002ac0 f   Color.obj
 0001:00001ad0       ?GetVertScaleColor@CScaleColor@@QAEAAKXZ 10002ad0 f   Color.obj
 0001:00001ae0       ?GetVertScaleColor@CScaleColor@@QBEKXZ 10002ae0 f   Color.obj
 0001:00001af0       ?SetBackgroundColor@CGraphRegionColor@@QAEXABK@Z 10002af0 f   Color.obj
 0001:00001b00       ?SetBoolData@CGraphColor@@AAEXABV?$CStringT@DV?$StrTraitMFC_DLL@DV?$ChTraitsCRT@D@ATL@@@@@ATL@@AA_N@Z 10002b00 f   Color.obj
 0001:00001b20       ?SetColor1@CGraphColor@@QAEXABK@Z 10002b20 f   Color.obj
 0001:00001b30       ?SetColor2@CGraphColor@@QAEXABK@Z 10002b30 f   Color.obj
 0001:00001b40       ?SetColor3@CGraphColor@@QAEXABK@Z 10002b40 f   Color.obj
 0001:00001b50       ?SetColor4@CGraphColor@@QAEXABK@Z 10002b50 f   Color.obj
 0001:00001b60       ?SetColor5@CGraphColor@@QAEXABK@Z 10002b60 f   Color.obj
 0001:00001b70       ?SetColor6@CGraphColor@@QAEXABK@Z 10002b70 f   Color.obj
 0001:00001b80       ?SetColor@CGraphColor@@QAEXABK00000@Z 10002b80 f   Color.obj
 0001:00001bc0       ?SetColorData@CGraphColor@@AAEXABV?$CStringT@DV?$StrTraitMFC_DLL@DV?$ChTraitsCRT@D@ATL@@@@@ATL@@AAK@Z 10002bc0 f   Color.obj
 0001:00001be0       ?SetData@CGraphColor@@QAEXABV1@@Z 10002be0 f   Color.obj
 0001:00001c20       ?SetData@CGraphColor@@QAEXABV?$CStringT@DV?$StrTraitMFC_DLL@DV?$ChTraitsCRT@D@ATL@@@@@ATL@@@Z 10002c20 f   Color.obj
 0001:00001f30       ?SetDownGraphFill@CGraphColor@@QAEX_N@Z 10002f30 f   Color.obj
 0001:00001f40       ?SetEtcGraphColor@CEtcColor@@QAEXABVCEtcGraphColor@@@Z 10002f40 f   Color.obj
 0001:00001f80       ?SetEtcGraphColor@CEtcColor@@QAEXHABK@Z 10002f80 f   Color.obj
 0001:00002000       ?SetFrameColor@CGraphRegionColor@@QAEXABK@Z 10003000 f   Color.obj
 0001:00002010       ?SetGraphColor1@CEtcGraphColor@@QAEXABK@Z 10003010 f   Color.obj
 0001:00002020       ?SetGraphColor2@CEtcGraphColor@@QAEXABK@Z 10003020 f   Color.obj
 0001:00002030       ?SetGraphColor3@CEtcGraphColor@@QAEXABK@Z 10003030 f   Color.obj
 0001:00002040       ?SetGraphColor4@CEtcGraphColor@@QAEXABK@Z 10003040 f   Color.obj
 0001:00002050       ?SetGraphColor5@CEtcGraphColor@@QAEXABK@Z 10003050 f   Color.obj
 0001:00002060       ?SetGraphColor6@CEtcGraphColor@@QAEXABK@Z 10003060 f   Color.obj
 0001:00002070       ?SetHorzScaleColor@CScaleColor@@QAEXABK@Z 10003070 f   Color.obj
 0001:00002080       ?SetLineColor@CGraphRegionColor@@QAEXABK@Z 10003080 f   Color.obj
 0001:00002090       ?SetScaleTextColor@CScaleColor@@QAEXABK@Z 10003090 f   Color.obj
 0001:000020a0       ?SetToolColor@CEtcColor@@QAEXABK@Z 100030a0 f   Color.obj
 0001:000020b0       ?SetUpGraphFill@CGraphColor@@QAEX_N@Z 100030b0 f   Color.obj
 0001:000020c0       ?SetVertScaleColor@CScaleColor@@QAEXABK@Z 100030c0 f   Color.obj
 0001:000020d0       ??0CColorButton@@QAE@XZ    100030d0 f   ColorButton.obj
 0001:00002150       ??1CColorButton@@UAE@XZ    10003150 f   ColorButton.obj
 0001:00002170       ??_GCButton@@UAEPAXI@Z     10003170 f i ColorButton.obj
 0001:00002170       ??_ECButton@@UAEPAXI@Z     10003170 f i ColorButton.obj
 0001:000021b0       ??_GCColorButton@@UAEPAXI@Z 100031b0 f i ColorButton.obj
 0001:000021b0       ??_ECColorButton@@UAEPAXI@Z 100031b0 f i ColorButton.obj
 0001:00002200       ?DrawItem@CColorButton@@UAEXPAUtagDRAWITEMSTRUCT@@@Z 10003200 f   ColorButton.obj
 0001:00002320       ?EnableWindow@CColorButton@@QAEHH@Z 10003320 f   ColorButton.obj
 0001:00002340       ?GetBtnText@CColorButton@@QAE?AV?$CStringT@DV?$StrTraitMFC_DLL@DV?$ChTraitsCRT@D@ATL@@@@@ATL@@XZ 10003340 f   ColorButton.obj
 0001:00002360       ?GetMessageMap@CColorButton@@MBEPBUAFX_MSGMAP@@XZ 10003360 f   ColorButton.obj
 0001:00002370       ?GetThisMessageMap@CColorButton@@KGPBUAFX_MSGMAP@@XZ 10003370 f   ColorButton.obj
 0001:00002380       ?SetBtnText@CColorButton@@QAEXPBD@Z 10003380 f   ColorButton.obj
 0001:000023a0       ?SetColor@CColorButton@@QAEXABK@Z 100033a0 f   ColorButton.obj
 0001:000023c0       ??1CRgn@@UAE@XZ            100033c0 f i Conversion.obj
 0001:000023d0       ??HATL@@YA?AV?$CStringT@DV?$StrTraitMFC_DLL@DV?$ChTraitsCRT@D@ATL@@@@@0@ABV10@0@Z 100033d0 f i Conversion.obj
 0001:00002450       ??HATL@@YA?AV?$CStringT@DV?$StrTraitMFC_DLL@DV?$ChTraitsCRT@D@ATL@@@@@0@DABV10@@Z 10003450 f i Conversion.obj
 0001:000024d0       ??_GCRgn@@UAEPAXI@Z        100034d0 f i Conversion.obj
 0001:000024d0       ??_ECRgn@@UAEPAXI@Z        100034d0 f i Conversion.obj
 0001:00002510       ?AbsoluteToRelative_X@CDataConversion@@SAHABVCRect@@HABN1@Z 10003510 f   Conversion.obj
 0001:00002580       ?AbsoluteToRelative_X@CDataConversion@@SAHABVCRect@@HH@Z 10003580 f   Conversion.obj
 0001:000025d0       ?AbsoluteToRelative_Y@CDataConversion@@SANABVCRect@@HABN1@Z 100035d0 f   Conversion.obj
 0001:00002670       ?Bool2Str@CDataConversion@@SA?AV?$CStringT@DV?$StrTraitMFC_DLL@DV?$ChTraitsCRT@D@ATL@@@@@ATL@@H@Z 10003670 f   Conversion.obj
 0001:000026e0       ?CalcDateFormat@CDataConversion@@SAHHHABV?$CStringT@DV?$StrTraitMFC_DLL@DV?$ChTraitsCRT@D@ATL@@@@@ATL@@HH@Z 100036e0 f   Conversion.obj
 0001:00002a50       ?CalcTimeFormat@CDataConversion@@CAHABV?$CStringT@DV?$StrTraitMFC_DLL@DV?$ChTraitsCRT@D@ATL@@@@@ATL@@00_N1@Z 10003a50 f   Conversion.obj
 0001:00002ab0       ?CalcTimeFormat@CDataConversion@@SAHHHABV?$CStringT@DV?$StrTraitMFC_DLL@DV?$ChTraitsCRT@D@ATL@@@@@ATL@@_N@Z 10003ab0 f   Conversion.obj
 0001:00002b70       ?CalcTimeFormat_Future@CDataConversion@@CAHABV?$CStringT@DV?$StrTraitMFC_DLL@DV?$ChTraitsCRT@D@ATL@@@@@ATL@@00_N@Z 10003b70 f   Conversion.obj
 0001:00002d00       ?CalcTimeFormat_Past@CDataConversion@@CAHABV?$CStringT@DV?$StrTraitMFC_DLL@DV?$ChTraitsCRT@D@ATL@@@@@ATL@@00_N@Z 10003d00 f   Conversion.obj
 0001:00002d40       ?CalcTimeFormatforCharge@CDataConversion@@SAHHHABV?$CStringT@DV?$StrTraitMFC_DLL@DV?$ChTraitsCRT@D@ATL@@@@@ATL@@H_N@Z 10003d40 f   Conversion.obj
 0001:00002e80       ?ChagneUprightData_Day@CDataConversion@@CAXAAH00@Z 10003e80 f   Conversion.obj
 0001:00002f10       ?ChagneUprightData_YearAndMonth@CDataConversion@@CAXAAH0@Z 10003f10 f   Conversion.obj
 0001:00002f80       ?DoubleToString@CDataConversion@@SA?AV?$CStringT@DV?$StrTraitMFC_DLL@DV?$ChTraitsCRT@D@ATL@@@@@ATL@@ABN@Z 10003f80 f   Conversion.obj
 0001:00003060       ?DoubleToString@CDataConversion@@SA?AV?$CStringT@DV?$StrTraitMFC_DLL@DV?$ChTraitsCRT@D@ATL@@@@@ATL@@ABNH@Z 10004060 f   Conversion.obj
 0001:00003220       ?FindIndex@CDataConversion@@SAHABV?$CStringT@DV?$StrTraitMFC_DLL@DV?$ChTraitsCRT@D@ATL@@@@@ATL@@0H@Z 10004220 f   Conversion.obj
 0001:00003270       ?GetAdditionDataInFormat@CDataConversion@@CA?AV?$CStringT@DV?$StrTraitMFC_DLL@DV?$ChTraitsCRT@D@ATL@@@@@ATL@@HHABV23@H@Z 10004270 f   Conversion.obj
 0001:000034c0       ?GetAllTime@CDataConversion@@CA_NHHABV?$CStringT@DV?$StrTraitMFC_DLL@DV?$ChTraitsCRT@D@ATL@@@@@ATL@@AAH1111@Z 100044c0 f   Conversion.obj
 0001:00003510       ?GetAllTime@CDataConversion@@CA_NHHHHHAAH0AA_N@Z 10004510 f   Conversion.obj
 0001:00003570       ?GetAllTime_DatePart@CDataConversion@@CA_NHHABV?$CStringT@DV?$StrTraitMFC_DLL@DV?$ChTraitsCRT@D@ATL@@@@@ATL@@AAH1@Z 10004570 f   Conversion.obj
 0001:000035b0       ?GetAllTime_Hour@CDataConversion@@CA_NHHABV?$CStringT@DV?$StrTraitMFC_DLL@DV?$ChTraitsCRT@D@ATL@@@@@ATL@@AAH1AA_N@Z 100045b0 f   Conversion.obj
 0001:00003640       ?GetAllTime_Minute@CDataConversion@@CA_NHHABV?$CStringT@DV?$StrTraitMFC_DLL@DV?$ChTraitsCRT@D@ATL@@@@@ATL@@AAH1AA_N@Z 10004640 f   Conversion.obj
 0001:000037b0       ?GetAllTime_Second@CDataConversion@@CA_NHHABV?$CStringT@DV?$StrTraitMFC_DLL@DV?$ChTraitsCRT@D@ATL@@@@@ATL@@AAH1AA_N@Z 100047b0 f   Conversion.obj
 0001:00003820       ?GetAllTime_TimePart@CDataConversion@@CA_NHHABV?$CStringT@DV?$StrTraitMFC_DLL@DV?$ChTraitsCRT@D@ATL@@@@@ATL@@AAH111@Z 10004820 f   Conversion.obj
 0001:00003a80       ?GetChangeFormat_NumCharUnit@CDataConversion@@SA?AV?$CStringT@DV?$StrTraitMFC_DLL@DV?$ChTraitsCRT@D@ATL@@@@@ATL@@ABV23@@Z 10004a80 f   Conversion.obj
 0001:00003c20       ?GetChangingPosition@CDataConversion@@CAHHHABN00@Z 10004c20 f   Conversion.obj
 0001:00003c80       ?GetChangingPosition@CDataConversion@@CAHHHABN_N@Z 10004c80 f   Conversion.obj
 0001:00003cf0       ?GetCompartType@CDataConversion@@SA?AV?$CStringT@DV?$StrTraitMFC_DLL@DV?$ChTraitsCRT@D@ATL@@@@@ATL@@ABV23@00@Z 10004cf0 f   Conversion.obj
 0001:00003e00       ?GetComplementColor@CDataConversion@@SAKK@Z 10004e00 f   Conversion.obj
 0001:00003fc0       ?GetDataInLimit@CDataConversion@@CAXHAAH0@Z 10004fc0 f   Conversion.obj
 0001:00003fe0       ?GetDataType@CDataConversion@@SANV?$CStringT@DV?$StrTraitMFC_DLL@DV?$ChTraitsCRT@D@ATL@@@@@ATL@@@Z 10004fe0 f   Conversion.obj
 0001:00004080       ?GetDecimalDownCount@CDataConversion@@SAHABV?$CStringT@DV?$StrTraitMFC_DLL@DV?$ChTraitsCRT@D@ATL@@@@@ATL@@_N@Z 10005080 f   Conversion.obj
 0001:00004200       ?GetHorizontalPoint@CDataConversion@@SA?AVCPoint@@ABVCRect@@HABN111@Z 10005200 f   Conversion.obj
 0001:00004300       ?GetHorizontalPoint_X@CDataConversion@@SAHABVCRect@@ABN11@Z 10005300 f   Conversion.obj
 0001:00004390       ?GetHourTime_Future@CDataConversion@@CAXHH_NAAH1@Z 10005390 f   Conversion.obj
 0001:000043f0       ?GetLeftToTrimDataIndex@CDataConversion@@SA?AV?$CStringT@DV?$StrTraitMFC_DLL@DV?$ChTraitsCRT@D@ATL@@@@@ATL@@ABV23@0H_N@Z 100053f0 f   Conversion.obj
 0001:00004440       ?GetMidToTrimDataEndIndex@CDataConversion@@SA?AV?$CStringT@DV?$StrTraitMFC_DLL@DV?$ChTraitsCRT@D@ATL@@@@@ATL@@ABV23@0H_N1@Z 10005440 f   Conversion.obj
 0001:00004560       ?GetMidToTrimDataIndex@CDataConversion@@SA?AV?$CStringT@DV?$StrTraitMFC_DLL@DV?$ChTraitsCRT@D@ATL@@@@@ATL@@ABV23@00H_N@Z 10005560 f   Conversion.obj
 0001:00004600       ?GetMidToTrimDataIndex@CDataConversion@@SA?AV?$CStringT@DV?$StrTraitMFC_DLL@DV?$ChTraitsCRT@D@ATL@@@@@ATL@@ABV23@0H_N@Z 10005600 f   Conversion.obj
 0001:00004710       ?GetMidToTrimDataStartIndex@CDataConversion@@SA?AV?$CStringT@DV?$StrTraitMFC_DLL@DV?$ChTraitsCRT@D@ATL@@@@@ATL@@ABV23@0H_N1@Z 10005710 f   Conversion.obj
 0001:000047b0       ?GetMonthFullDay@CDataConversion@@CAHHHH@Z 100057b0 f   Conversion.obj
 0001:00004800       ?GetPacketDataIndex_Date@CDataConversion@@SAHABVCRect@@ABVCPoint@@HH@Z 10005800 f   Conversion.obj
 0001:00004860       ?GetRealDailyInTimeFormat@CDataConversion@@CAHHABV?$CStringT@DV?$StrTraitMFC_DLL@DV?$ChTraitsCRT@D@ATL@@@@@ATL@@@Z 10005860 f   Conversion.obj
 0001:000049f0       ?GetRealDailyInTimeFormat@CDataConversion@@CA_NHAAH00@Z 100059f0 f   Conversion.obj
 0001:00004a60       ?GetRealWidth@CDataConversion@@SANABNH@Z 10005a60 f   Conversion.obj
 0001:00004aa0       ?GetSpecialTime@CDataConversion@@SA_NABV?$CStringT@DV?$StrTraitMFC_DLL@DV?$ChTraitsCRT@D@ATL@@@@@ATL@@0AAV23@@Z 10005aa0 f   Conversion.obj
 0001:00004b70       ?GetStringData@CDataConversion@@SA?AV?$CStringT@DV?$StrTraitMFC_DLL@DV?$ChTraitsCRT@D@ATL@@@@@ATL@@AAV23@ABV23@1_N@Z 10005b70 f   Conversion.obj
 0001:00004c70       ?GetStringData@CDataConversion@@SA?AV?$CStringT@DV?$StrTraitMFC_DLL@DV?$ChTraitsCRT@D@ATL@@@@@ATL@@AAV23@ABV23@H@Z 10005c70 f   Conversion.obj
 0001:00004db0       ?GetStringData@CDataConversion@@SA?AV?$CStringT@DV?$StrTraitMFC_DLL@DV?$ChTraitsCRT@D@ATL@@@@@ATL@@AAV23@ABV23@_N@Z 10005db0 f   Conversion.obj
 0001:00004ef0       ?GetStringDataCount@CDataConversion@@SAHABV?$CStringT@DV?$StrTraitMFC_DLL@DV?$ChTraitsCRT@D@ATL@@@@@ATL@@0@Z 10005ef0 f   Conversion.obj
 0001:00004fb0       ?GetStringFormatTrans@CDataConversion@@SA?AV?$CStringT@DV?$StrTraitMFC_DLL@DV?$ChTraitsCRT@D@ATL@@@@@ATL@@ABV23@000@Z 10005fb0 f   Conversion.obj
 0001:00005130       ?GetStringFormatTrans@CDataConversion@@SA?AV?$CStringT@DV?$StrTraitMFC_DLL@DV?$ChTraitsCRT@D@ATL@@@@@ATL@@ABV23@0@Z 10006130 f   Conversion.obj
 0001:00005550       ?GetStringFormatTransCutoff@CDataConversion@@SAHABN0AAV?$CStringT@DV?$StrTraitMFC_DLL@DV?$ChTraitsCRT@D@ATL@@@@@ATL@@1@Z 10006550 f   Conversion.obj
 0001:000055c0       ?GetStringFormatTransCutoff@CDataConversion@@SAHABNABV?$CStringT@DV?$StrTraitMFC_DLL@DV?$ChTraitsCRT@D@ATL@@@@@ATL@@AAV23@2@Z 100065c0 f   Conversion.obj
 0001:00005b10       ?GetStringFormatbyCompart@CDataConversion@@SA?AV?$CStringT@DV?$StrTraitMFC_DLL@DV?$ChTraitsCRT@D@ATL@@@@@ATL@@ABV23@AAV23@001@Z 10006b10 f   Conversion.obj
 0001:00005ee0       ?GetStringThousandFormat@CDataConversion@@SA?AV?$CStringT@DV?$StrTraitMFC_DLL@DV?$ChTraitsCRT@D@ATL@@@@@ATL@@ABN0@Z 10006ee0 f   Conversion.obj
 0001:00006150       ?GetStringThousandFormat@CDataConversion@@SA?AV?$CStringT@DV?$StrTraitMFC_DLL@DV?$ChTraitsCRT@D@ATL@@@@@ATL@@ABV23@@Z 10007150 f   Conversion.obj
 0001:00006440       ?GetTimeData@CDataConversion@@CA_NABV?$CStringT@DV?$StrTraitMFC_DLL@DV?$ChTraitsCRT@D@ATL@@@@@ATL@@000HAAH1@Z 10007440 f   Conversion.obj
 0001:00006520       ?GetTimeData@CDataConversion@@CA_NABV?$CStringT@DV?$StrTraitMFC_DLL@DV?$ChTraitsCRT@D@ATL@@@@@ATL@@00AAH1111111@Z 10007520 f   Conversion.obj
 0001:00006700       ?GetTimeInFormat@CDataConversion@@CAHABV?$CStringT@DV?$StrTraitMFC_DLL@DV?$ChTraitsCRT@D@ATL@@@@@ATL@@HHHH@Z 10007700 f   Conversion.obj
 0001:000068a0       ?GetVerticalPoint@CDataConversion@@SA?AVCPoint@@ABVCRect@@ABN11111@Z 100078a0 f   Conversion.obj
 0001:00006990       ?GetVerticalPoint@CDataConversion@@SA?AVCPoint@@ABVCRect@@HABN111_N@Z 10007990 f   Conversion.obj
 0001:00006a80       ?GetVerticalPointBox@CDataConversion@@SA?AVCPoint@@ABVCRect@@HABN111_N@Z 10007a80 f   Conversion.obj
 0001:00006b70       ?InsertString@CDataConversion@@SA?AV?$CStringT@DV?$StrTraitMFC_DLL@DV?$ChTraitsCRT@D@ATL@@@@@ATL@@ABV23@0HH@Z 10007b70 f   Conversion.obj
 0001:00006ca0       ?IntToString@CDataConversion@@SA?AV?$CStringT@DV?$StrTraitMFC_DLL@DV?$ChTraitsCRT@D@ATL@@@@@ATL@@H@Z 10007ca0 f   Conversion.obj
 0001:00006d10       ?IntToString@CDataConversion@@SA?AV?$CStringT@DV?$StrTraitMFC_DLL@DV?$ChTraitsCRT@D@ATL@@@@@ATL@@HH@Z 10007d10 f   Conversion.obj
 0001:00006eb0       ?InvertGraphDataPt@CDataConversion@@SAHABVCRect@@H@Z 10007eb0 f   Conversion.obj
 0001:00006ee0       ?IsCalUprightData@CDataConversion@@CA_NHHH@Z 10007ee0 f   Conversion.obj
 0001:00006f50       ?IsCalcTimeFormatforCharge@CDataConversion@@CA_NHHABV?$CStringT@DV?$StrTraitMFC_DLL@DV?$ChTraitsCRT@D@ATL@@@@@ATL@@H@Z 10007f50 f   Conversion.obj
 0001:00007040       ?IsPluse@CDataConversion@@CA_NABV?$CStringT@DV?$StrTraitMFC_DLL@DV?$ChTraitsCRT@D@ATL@@@@@ATL@@@Z 10008040 f   Conversion.obj
 0001:00007090       ?NormalNumberString@CDataConversion@@SA?AV?$CStringT@DV?$StrTraitMFC_DLL@DV?$ChTraitsCRT@D@ATL@@@@@ATL@@ABV23@@Z 10008090 f   Conversion.obj
 0001:00007150       ?OnPickoutDaily@CDataConversion@@CA_NHABV?$CStringT@DV?$StrTraitMFC_DLL@DV?$ChTraitsCRT@D@ATL@@@@@ATL@@AAH11@Z 10008150 f   Conversion.obj
 0001:00007290       ?OnPickoutDate@CDataConversion@@CA_NHABV?$CStringT@DV?$StrTraitMFC_DLL@DV?$ChTraitsCRT@D@ATL@@@@@ATL@@HAAH11@Z 10008290 f   Conversion.obj
 0001:00007570       ?OnPickoutMonthly@CDataConversion@@CA_NHABV?$CStringT@DV?$StrTraitMFC_DLL@DV?$ChTraitsCRT@D@ATL@@@@@ATL@@AAH11@Z 10008570 f   Conversion.obj
 0001:00007600       ?OnPickoutTime@CDataConversion@@CA_NHHABV?$CStringT@DV?$StrTraitMFC_DLL@DV?$ChTraitsCRT@D@ATL@@@@@ATL@@HAAH1111@Z 10008600 f   Conversion.obj
 0001:00007850       ?OnPickoutWeekley@CDataConversion@@CA_NHABV?$CStringT@DV?$StrTraitMFC_DLL@DV?$ChTraitsCRT@D@ATL@@@@@ATL@@AAH11@Z 10008850 f   Conversion.obj
 0001:00007940       ?RGB2Str@CDataConversion@@SA?AV?$CStringT@DV?$StrTraitMFC_DLL@DV?$ChTraitsCRT@D@ATL@@@@@ATL@@K@Z 10008940 f   Conversion.obj
 0001:000079d0       ?RelativeToAbsolute@CDataConversion@@SA?AVCPoint@@ABVCRect@@HHABN1H1@Z 100089d0 f   Conversion.obj
 0001:00007c50       ?RelativeToAbsoluteInDisplayIndex@CDataConversion@@CA?AVCPoint@@ABVCRect@@ABN11H1@Z 10008c50 f   Conversion.obj
 0001:00007d30       ?RelativeToAbsoluteInDisplayIndex_X@CDataConversion@@CAHABVCRect@@ABNH_N@Z 10008d30 f   Conversion.obj
 0001:00007db0       ?RelativeToAbsoluteInDisplayIndex_Y@CDataConversion@@CAHABVCRect@@ABN11@Z 10008db0 f   Conversion.obj
 0001:00007e20       ?RelativeToAbsoluteOutDisplayIndex@CDataConversion@@CA?AVCPoint@@ABVCRect@@ABN111HHH1@Z 10008e20 f   Conversion.obj
 0001:00007f70       ?RelativeToAbsoluteOutDisplayIndex_X@CDataConversion@@CAHABVCRect@@ABNHHH@Z 10008f70 f   Conversion.obj
 0001:00007fe0       ?RelativeToAbsoluteOutDisplayIndex_Y@CDataConversion@@CAHABVCRect@@ABN111@Z 10008fe0 f   Conversion.obj
 0001:000080b0       ?RelativeToAbsolute_X@CDataConversion@@SAHABVCRect@@HHH_N@Z 100090b0 f   Conversion.obj
 0001:00008170       ?RelativeToAbsolute_Y@CDataConversion@@SAHABVCRect@@ABN11@Z 10009170 f   Conversion.obj
 0001:000081d0       ?SelectClipRegion@CDataConversion@@SAXPAVCDC@@@Z 100091d0 f   Conversion.obj
 0001:000081e0       ?SelectClipRegion@CDataConversion@@SAXPAVCDC@@ABVCRect@@@Z 100091e0 f   Conversion.obj
 0001:00008270       ?Str2RGB@CDataConversion@@SAKABV?$CStringT@DV?$StrTraitMFC_DLL@DV?$ChTraitsCRT@D@ATL@@@@@ATL@@@Z 10009270 f   Conversion.obj
 0001:00008310       ?atob@CDataConversion@@SA_NH@Z 10009310 f   Conversion.obj
 0001:00008320       ?atob@CDataConversion@@SA_NPBD@Z 10009320 f   Conversion.obj
 0001:00008340       ?atod@CDataConversion@@SANM@Z 10009340 f   Conversion.obj
 0001:00008390       ___local_stdio_printf_options 10009390 f i Conversion.obj
 0001:000083a0       ___local_stdio_scanf_options 100093a0 f i Conversion.obj
 0001:000083b0       _sprintf                   100093b0 f i Conversion.obj
 0001:000083f0       _sscanf                    100093f0 f i Conversion.obj
 0001:00008420       ?Angle@CMath@@SANABN@Z     10009420 f   DataMath.obj
 0001:000084a0       ?Center@CMath@@SAHHH@Z     100094a0 f   DataMath.obj
 0001:000084f0       ?Distance@CMath@@SANABVCPoint@@0@Z 100094f0 f   DataMath.obj
 0001:00008580       ?Divide10@CMath@@SANABNH@Z 10009580 f   DataMath.obj
 0001:00008600       ?Exp@CMath@@SANABN@Z       10009600 f   DataMath.obj
 0001:00008660       ?Floor@CMath@@SAHHH@Z      10009660 f   DataMath.obj
 0001:000086d0       ?Floor@CMath@@SANABNH@Z    100096d0 f   DataMath.obj
 0001:00008750       ?Log@CMath@@SANABN@Z       10009750 f   DataMath.obj
 0001:000087b0       ?Modulus@CMath@@SANABN0@Z  100097b0 f   DataMath.obj
 0001:00008800       ?NumberCount@CMath@@SAHH@Z 10009800 f   DataMath.obj
 0001:00008870       ?Power@CMath@@SAHHH@Z      10009870 f   DataMath.obj
 0001:000088b0       ?Round@CMath@@SAHHH@Z      100098b0 f   DataMath.obj
 0001:00008930       ?Round@CMath@@SAHN@Z       10009930 f   DataMath.obj
 0001:00008960       ?Round@CMath@@SANABNH@Z    10009960 f   DataMath.obj
 0001:00008a10       ?Round_Double@CMath@@SANABN@Z 10009a10 f   DataMath.obj
 0001:00008a40       ?TanD@CMath@@SANABN@Z      10009a40 f   DataMath.obj
 0001:00008b00       ?TanI@CMath@@SAHH@Z        10009b00 f   DataMath.obj
 0001:00008bb0       ??0CXEdit@@QAE@XZ          10009bb0 f   XEdit.obj
 0001:00008be0       ??1CXEdit@@UAE@XZ          10009be0 f   XEdit.obj
 0001:00008bf0       ??_ECEdit@@UAEPAXI@Z       10009bf0 f i XEdit.obj
 0001:00008bf0       ??_GCEdit@@UAEPAXI@Z       10009bf0 f i XEdit.obj
 0001:00008c30       ??_ECXEdit@@UAEPAXI@Z      10009c30 f i XEdit.obj
 0001:00008c30       ??_GCXEdit@@UAEPAXI@Z      10009c30 f i XEdit.obj
 0001:00008c80       ?GetMessageMap@CXEdit@@MBEPBUAFX_MSGMAP@@XZ 10009c80 f   XEdit.obj
 0001:00008c90       ?GetThisMessageMap@CXEdit@@KGPBUAFX_MSGMAP@@XZ 10009c90 f   XEdit.obj
 0001:00008ca0       ?OnChar@CXEdit@@IAEXIII@Z  10009ca0 f   XEdit.obj
 0001:00008f70       ?OnKeyDown@CXEdit@@IAEXIII@Z 10009f70 f   XEdit.obj
 0001:00009050       ??0CXHeaderCtrl@@QAE@XZ    1000a050 f   XHeaderCtrl.obj
 0001:00009120       ??1CMemDC@@UAE@XZ          1000a120 f i XHeaderCtrl.obj
 0001:000091e0       ??1CPen@@UAE@XZ            1000a1e0 f i XHeaderCtrl.obj
 0001:000091f0       ??1CXHeaderCtrl@@UAE@XZ    1000a1f0 f   XHeaderCtrl.obj
 0001:00009200       ??3CObject@@SGXPAX@Z       1000a200 f i XHeaderCtrl.obj
 0001:00009220       ??_GCHeaderCtrl@@UAEPAXI@Z 1000a220 f i XHeaderCtrl.obj
 0001:00009220       ??_ECHeaderCtrl@@UAEPAXI@Z 1000a220 f i XHeaderCtrl.obj
 0001:00009260       ??_GCMemDC@@UAEPAXI@Z      1000a260 f i XHeaderCtrl.obj
 0001:00009260       ??_ECMemDC@@UAEPAXI@Z      1000a260 f i XHeaderCtrl.obj
 0001:000092a0       ??_ECPen@@UAEPAXI@Z        1000a2a0 f i XHeaderCtrl.obj
 0001:000092a0       ??_GCPen@@UAEPAXI@Z        1000a2a0 f i XHeaderCtrl.obj
 0001:000092e0       ??_ECXHeaderCtrl@@UAEPAXI@Z 1000a2e0 f i XHeaderCtrl.obj
 0001:000092e0       ??_GCXHeaderCtrl@@UAEPAXI@Z 1000a2e0 f i XHeaderCtrl.obj
 0001:00009330       ?CreateObject@CXHeaderCtrl@@SGPAVCObject@@XZ 1000a330 f   XHeaderCtrl.obj
 0001:00009450       ?DrawBitmap@CXHeaderCtrl@@IAEHPAVCDC@@VCRect@@PAU_HD_ITEMA@@PAVCBitmap@@PAUtagBITMAP@@H@Z 1000a450 f   XHeaderCtrl.obj
 0001:00009590       ?DrawCtrl@CXHeaderCtrl@@IAEXPAVCDC@@@Z 1000a590 f   XHeaderCtrl.obj
 0001:00009b00       ?DrawImage@CXHeaderCtrl@@IAEHPAVCDC@@VCRect@@PAU_HD_ITEMA@@H@Z 1000ab00 f   XHeaderCtrl.obj
 0001:00009c20       ?DrawItem@CXHeaderCtrl@@UAEXPAUtagDRAWITEMSTRUCT@@@Z 1000ac20 f   XHeaderCtrl.obj
 0001:00009c30       ?DrawItem@CXHeaderCtrl@@UAEXPAVCDC@@VCRect@@PAU_HD_ITEMA@@@Z 1000ac30 f   XHeaderCtrl.obj
 0001:00009f00       ?DrawTextA@CDC@@UAEHPBDHPAUtagRECT@@I@Z 1000af00 f i XHeaderCtrl.obj
 0001:00009f20       ?DrawTextA@CXHeaderCtrl@@IAEHPAVCDC@@VCRect@@PAU_HD_ITEMA@@@Z 1000af20 f   XHeaderCtrl.obj
 0001:00009fc0       ?DrawTextExA@CDC@@UAEHPADHPAUtagRECT@@IPAUtagDRAWTEXTPARAMS@@@Z 1000afc0 f i XHeaderCtrl.obj
 0001:00009fe0       ?Escape@CDC@@UAEHHHPBDPAX@Z 1000afe0 f i XHeaderCtrl.obj
 0001:0000a000       ?ExtTextOutA@CDC@@UAEHHHIPBUtagRECT@@PBDIPAH@Z 1000b000 f i XHeaderCtrl.obj
 0001:0000a030       ?GetMessageMap@CXHeaderCtrl@@MBEPBUAFX_MSGMAP@@XZ 1000b030 f   XHeaderCtrl.obj
 0001:0000a040       ?GetRuntimeClass@CXHeaderCtrl@@UBEPAUCRuntimeClass@@XZ 1000b040 f   XHeaderCtrl.obj
 0001:0000a050       ?GetThisClass@CXHeaderCtrl@@SGPAUCRuntimeClass@@XZ 1000b050 f   XHeaderCtrl.obj
 0001:0000a060       ?GetThisMessageMap@CXHeaderCtrl@@KGPBUAFX_MSGMAP@@XZ 1000b060 f   XHeaderCtrl.obj
 0001:0000a070       ?GrayStringA@CDC@@UAEHPAVCBrush@@P6GHPAUHDC__@@JH@ZJHHHHH@Z 1000b070 f i XHeaderCtrl.obj
 0001:0000a0a0       ?ModifyProperty@CXHeaderCtrl@@QAEHIJ@Z 1000b0a0 f   XHeaderCtrl.obj
 0001:0000a120       ?OnDeleteItem@CXHeaderCtrl@@IAEJIJ@Z 1000b120 f   XHeaderCtrl.obj
 0001:0000a130       ?OnEraseBkgnd@CXHeaderCtrl@@IAEHPAVCDC@@@Z 1000b130 f   XHeaderCtrl.obj
 0001:0000a140       ?OnInsertItem@CXHeaderCtrl@@IAEJIJ@Z 1000b140 f   XHeaderCtrl.obj
 0001:0000a150       ?OnLayout@CXHeaderCtrl@@IAEJIJ@Z 1000b150 f   XHeaderCtrl.obj
 0001:0000a190       ?OnPaint@CXHeaderCtrl@@IAEXXZ 1000b190 f   XHeaderCtrl.obj
 0001:0000a300       ?OnSetImageList@CXHeaderCtrl@@IAEJIJ@Z 1000b300 f   XHeaderCtrl.obj
 0001:0000a360       ?OnSysColorChange@CXHeaderCtrl@@IAEXXZ 1000b360 f   XHeaderCtrl.obj
 0001:0000a3a0       ?PtVisible@CDC@@UBEHHH@Z   1000b3a0 f i XHeaderCtrl.obj
 0001:0000a3c0       ?RectVisible@CDC@@UBEHPBUtagRECT@@@Z 1000b3c0 f i XHeaderCtrl.obj
 0001:0000a3e0       ?SetSortImage@CXHeaderCtrl@@QAEXHH@Z 1000b3e0 f   XHeaderCtrl.obj
 0001:0000a400       ?TabbedTextOutA@CDC@@UAE?AVCSize@@HHPBDHHPAHH@Z 1000b400 f i XHeaderCtrl.obj
 0001:0000a440       ?TextOutA@CDC@@UAEHHHPBDH@Z 1000b440 f i XHeaderCtrl.obj
 0001:0000a460       ?_GetBaseClass@CXHeaderCtrl@@KGPAUCRuntimeClass@@XZ 1000b460 f   XHeaderCtrl.obj
 0001:0000a470       ??0CXListCtrl@@QAE@XZ      1000b470 f   XListCtrl.obj
 0001:0000a5b0       ??0XLISTCTRLDATA@@QAE@XZ   1000b5b0 f i XListCtrl.obj
 0001:0000a690       ??1CFont@@UAE@XZ           1000b690 f i XListCtrl.obj
 0001:0000a6a0       ??1CXListCtrl@@UAE@XZ      1000b6a0 f   XListCtrl.obj
 0001:0000a6f0       ??1XLISTCTRLDATA@@QAE@XZ   1000b6f0 f i XListCtrl.obj
 0001:0000a700       ??_EXLISTCTRLDATA@@QAEPAXI@Z 1000b700 f i XListCtrl.obj
 0001:0000a7b0       ??_GCFont@@UAEPAXI@Z       1000b7b0 f i XListCtrl.obj
 0001:0000a7b0       ??_ECFont@@UAEPAXI@Z       1000b7b0 f i XListCtrl.obj
 0001:0000a7f0       ??_GCListCtrl@@UAEPAXI@Z   1000b7f0 f i XListCtrl.obj
 0001:0000a7f0       ??_ECListCtrl@@UAEPAXI@Z   1000b7f0 f i XListCtrl.obj
 0001:0000a830       ??_ECXListCtrl@@UAEPAXI@Z  1000b830 f i XListCtrl.obj
 0001:0000a830       ??_GCXListCtrl@@UAEPAXI@Z  1000b830 f i XListCtrl.obj
 0001:0000a8b0       ?CountCheckedItems@CXListCtrl@@QAEHH@Z 1000b8b0 f   XListCtrl.obj
 0001:0000a940       ?DeleteAllItems@CXListCtrl@@QAEHXZ 1000b940 f   XListCtrl.obj
 0001:0000aa20       ?DeleteItem@CXListCtrl@@QAEHH@Z 1000ba20 f   XListCtrl.obj
 0001:0000aa90       ?DeleteProgress@CXListCtrl@@QAEXHH@Z 1000ba90 f   XListCtrl.obj
 0001:0000ab10       ?DrawCheckbox@CXListCtrl@@IAEXHHPAVCDC@@KKAAVCRect@@PAUXLISTCTRLDATA@@@Z 1000bb10 f   XListCtrl.obj
 0001:0000adb0       ?DrawImage@CXListCtrl@@IAEHHHPAVCDC@@KKVCRect@@PAUXLISTCTRLDATA@@@Z 1000bdb0 f   XListCtrl.obj
 0001:0000af50       ?DrawProgress@CXListCtrl@@IAEXHHPAVCDC@@KKAAVCRect@@PAUXLISTCTRLDATA@@@Z 1000bf50 f   XListCtrl.obj
 0001:0000b300       ?DrawTextA@CXListCtrl@@IAEXHHPAVCDC@@KKAAVCRect@@PAUXLISTCTRLDATA@@@Z 1000c300 f   XListCtrl.obj
 0001:0000b4e0       ?GetBold@CXListCtrl@@QAEHHH@Z 1000c4e0 f   XListCtrl.obj
 0001:0000b560       ?GetCheckbox@CXListCtrl@@QAEHHH@Z 1000c560 f   XListCtrl.obj
 0001:0000b5e0       ?GetColumns@CXListCtrl@@QAEHXZ 1000c5e0 f   XListCtrl.obj
 0001:0000b600       ?GetComboText@CXListCtrl@@QAE?AV?$CStringT@DV?$StrTraitMFC_DLL@DV?$ChTraitsCRT@D@ATL@@@@@ATL@@HH@Z 1000c600 f   XListCtrl.obj
 0001:0000b700       ?GetCurSel@CXListCtrl@@QAEHXZ 1000c700 f   XListCtrl.obj
 0001:0000b740       ?GetDrawColors@CXListCtrl@@MAEXHHAAK0@Z 1000c740 f   XListCtrl.obj
 0001:0000b870       ?GetEnabled@CXListCtrl@@QAEHH@Z 1000c870 f   XListCtrl.obj
 0001:0000b8b0       ?GetHeaderCheckedState@CXListCtrl@@QAEHH@Z 1000c8b0 f   XListCtrl.obj
 0001:0000b910       ?GetItemCount@CListCtrl@@QBEHXZ 1000c910 f i XListCtrl.obj
 0001:0000b930       ?GetItemData@CXListCtrl@@QAEKH@Z 1000c930 f   XListCtrl.obj
 0001:0000b980       ?GetMessageMap@CXListCtrl@@MBEPBUAFX_MSGMAP@@XZ 1000c980 f   XListCtrl.obj
 0001:0000b990       ?GetSubItemRect@CXListCtrl@@QAEHHHHAAVCRect@@@Z 1000c990 f   XListCtrl.obj
 0001:0000ba60       ?GetThisMessageMap@CXListCtrl@@KGPBUAFX_MSGMAP@@XZ 1000ca60 f   XListCtrl.obj
 0001:0000ba70       ?InsertItem@CXListCtrl@@QAEHHPBD@Z 1000ca70 f   XListCtrl.obj
 0001:0000bbb0       ?InsertItem@CXListCtrl@@QAEHHPBDKK@Z 1000cbb0 f   XListCtrl.obj
 0001:0000bce0       ?InsertItem@CXListCtrl@@QAEHPBUtagLVITEMA@@@Z 1000cce0 f   XListCtrl.obj
 0001:0000be10       ?OnClick@CXListCtrl@@IAEHPAUtagNMHDR@@PAJ@Z 1000ce10 f   XListCtrl.obj
 0001:0000be80       ?OnColumnClick@CXListCtrl@@IAEHPAUtagNMHDR@@PAJ@Z 1000ce80 f   XListCtrl.obj
 0001:0000bf90       ?OnCreate@CXListCtrl@@IAEHPAUtagCREATESTRUCTA@@@Z 1000cf90 f   XListCtrl.obj
 0001:0000bfe0       ?OnCustomDraw@CXListCtrl@@IAEXPAUtagNMHDR@@PAJ@Z 1000cfe0 f   XListCtrl.obj
 0001:0000c2d0       ?OnDblclk@CXListCtrl@@IAEHPAUtagNMHDR@@PAJ@Z 1000d2d0 f   XListCtrl.obj
 0001:0000c590       ?OnDestroy@CXListCtrl@@IAEXXZ 1000d590 f   XListCtrl.obj
 0001:0000c660       ?OnEditEscape@CXListCtrl@@IAEJIJ@Z 1000d660 f   XListCtrl.obj
 0001:0000c720       ?OnEditReturn@CXListCtrl@@IAEJIJ@Z 1000d720 f   XListCtrl.obj
 0001:0000c7d0       ?OnLButtonDown@CXListCtrl@@IAEXIVCPoint@@@Z 1000d7d0 f   XListCtrl.obj
 0001:0000ca00       ?OnPaint@CXListCtrl@@IAEXXZ 1000da00 f   XListCtrl.obj
 0001:0000ca10       ?OnSysColorChange@CXListCtrl@@IAEXXZ 1000da10 f   XListCtrl.obj
 0001:0000cab0       ?PreSubclassWindow@CXListCtrl@@UAEXXZ 1000dab0 f   XListCtrl.obj
 0001:0000caf0       ?PreTranslateMessage@CXListCtrl@@UAEHPAUtagMSG@@@Z 1000daf0 f   XListCtrl.obj
 0001:0000cbd0       ?SetBold@CXListCtrl@@QAEHHHH@Z 1000dbd0 f   XListCtrl.obj
 0001:0000cc60       ?SetCheckbox@CXListCtrl@@QAEHHHH@Z 1000dc60 f   XListCtrl.obj
 0001:0000cd30       ?SetComboBox@CXListCtrl@@QAEHHHHPAVCStringArray@@HH@Z 1000dd30 f   XListCtrl.obj
 0001:0000ce90       ?SetCurSel@CXListCtrl@@QAEHHH@Z 1000de90 f   XListCtrl.obj
 0001:0000cec0       ?SetEditBox@CXListCtrl@@QAEHHHH@Z 1000dec0 f   XListCtrl.obj
 0001:0000cf50       ?SetEnabled@CXListCtrl@@QAEHHH@Z 1000df50 f   XListCtrl.obj
 0001:0000cff0       ?SetHeaderCheckedState@CXListCtrl@@QAEHHH@Z 1000dff0 f   XListCtrl.obj
 0001:0000d060       ?SetItem@CXListCtrl@@QAEHPBUtagLVITEMA@@@Z 1000e060 f   XListCtrl.obj
 0001:0000d0d0       ?SetItemData@CXListCtrl@@QAEHHK@Z 1000e0d0 f   XListCtrl.obj
 0001:0000d120       ?SetItemImage@CXListCtrl@@QAEHHHH@Z 1000e120 f   XListCtrl.obj
 0001:0000d1b0       ?SetItemText@CXListCtrl@@QAEHHHPBD@Z 1000e1b0 f   XListCtrl.obj
 0001:0000d230       ?SetItemText@CXListCtrl@@QAEHHHPBDKK@Z 1000e230 f   XListCtrl.obj
 0001:0000d300       ?SetProgress@CXListCtrl@@QAEHHHHPBD@Z 1000e300 f   XListCtrl.obj
 0001:0000d3b0       ?SetSortImage@CXListCtrl@@QAEXHH@Z 1000e3b0 f   XListCtrl.obj
 0001:0000d400       ?SubclassHeaderControl@CXListCtrl@@IAEXXZ 1000e400 f   XListCtrl.obj
 0001:0000d430       ?UnpressEditBox@CXListCtrl@@QAEXXZ 1000e430 f   XListCtrl.obj
 0001:0000d490       ?UpdateProgress@CXListCtrl@@QAEXHHH@Z 1000e490 f   XListCtrl.obj
 0001:0000d510       ?UpdateSubItem@CXListCtrl@@QAEXHH@Z 1000e510 f   XListCtrl.obj
 0001:0000d5b0       ??0CxSkinButton@@QAE@XZ    1000e5b0 f   xSkinButton.obj
 0001:0000d6c0       ??1CxSkinButton@@UAE@XZ    1000e6c0 f   xSkinButton.obj
 0001:0000d760       ??_GCxSkinButton@@UAEPAXI@Z 1000e760 f i xSkinButton.obj
 0001:0000d760       ??_ECxSkinButton@@UAEPAXI@Z 1000e760 f i xSkinButton.obj
 0001:0000d830       ?CreateRgnFromBitmap@CxSkinButton@@IAEPAUHRGN__@@PAUHBITMAP__@@K@Z 1000e830 f   xSkinButton.obj
 0001:0000dae0       ?DrawBitmap@CxSkinButton@@IAEXPAVCDC@@PAUHBITMAP__@@UtagRECT@@H@Z 1000eae0 f   xSkinButton.obj
 0001:0000df00       ?DrawItem@CxSkinButton@@UAEXPAUtagDRAWITEMSTRUCT@@@Z 1000ef00 f   xSkinButton.obj
 0001:0000e290       ?FillWithBitmap@CxSkinButton@@IAEXPAVCDC@@PAUHBITMAP__@@UtagRECT@@@Z 1000f290 f   xSkinButton.obj
 0001:0000e3c0       ?GetBitmapHeight@CxSkinButton@@IAEHPAUHBITMAP__@@@Z 1000f3c0 f   xSkinButton.obj
 0001:0000e3e0       ?GetBitmapWidth@CxSkinButton@@IAEHPAUHBITMAP__@@@Z 1000f3e0 f   xSkinButton.obj
 0001:0000e400       ?GetMessageMap@CxSkinButton@@MBEPBUAFX_MSGMAP@@XZ 1000f400 f   xSkinButton.obj
 0001:0000e410       ?GetThisMessageMap@CxSkinButton@@KGPBUAFX_MSGMAP@@XZ 1000f410 f   xSkinButton.obj
 0001:0000e420       ?OnBMGetCheck@CxSkinButton@@IAEJIJ@Z 1000f420 f   xSkinButton.obj
 0001:0000e430       ?OnBMSetCheck@CxSkinButton@@IAEJIJ@Z 1000f430 f   xSkinButton.obj
 0001:0000e4e0       ?OnClicked@CxSkinButton@@IAEHXZ 1000f4e0 f   xSkinButton.obj
 0001:0000e500       ?OnEraseBkgnd@CxSkinButton@@IAEHPAVCDC@@@Z 1000f500 f   xSkinButton.obj
 0001:0000e510       ?OnKeyDown@CxSkinButton@@IAEXIII@Z 1000f510 f   xSkinButton.obj
 0001:0000e570       ?OnKillFocus@CxSkinButton@@IAEXPAVCWnd@@@Z 1000f570 f   xSkinButton.obj
 0001:0000e5a0       ?OnLButtonDblClk@CxSkinButton@@IAEXIVCPoint@@@Z 1000f5a0 f   xSkinButton.obj
 0001:0000e5d0       ?OnLButtonDown@CxSkinButton@@IAEXIVCPoint@@@Z 1000f5d0 f   xSkinButton.obj
 0001:0000e680       ?OnLButtonUp@CxSkinButton@@IAEXIVCPoint@@@Z 1000f680 f   xSkinButton.obj
 0001:0000e770       ?OnMouseLeave@CxSkinButton@@IAEJIJ@Z 1000f770 f   xSkinButton.obj
 0001:0000e790       ?OnMouseMove@CxSkinButton@@IAEXIVCPoint@@@Z 1000f790 f   xSkinButton.obj
 0001:0000e8b0       ?OnRadioInfo@CxSkinButton@@IAEJIJ@Z 1000f8b0 f   xSkinButton.obj
 0001:0000e8e0       ?PreSubclassWindow@CxSkinButton@@MAEXXZ 1000f8e0 f   xSkinButton.obj
 0001:0000e940       ?RelayEvent@CxSkinButton@@IAEXIIJ@Z 1000f940 f   xSkinButton.obj
 0001:0000e9a0       ?SetSkin@CxSkinButton@@QAEXIIIIIIFFF@Z 1000f9a0 f   xSkinButton.obj
 0001:0000ebd0       ?SetSkin@CxSkinButton@@QAEXV?$CStringT@DV?$StrTraitMFC_DLL@DV?$ChTraitsCRT@D@ATL@@@@@ATL@@00000FFF@Z 1000fbd0 f   xSkinButton.obj
 0001:0000ee70       ?SetTextColor@CxSkinButton@@QAEKK@Z 1000fe70 f   xSkinButton.obj
 0001:0000ee90       ?SetToolTipText@CxSkinButton@@QAEXV?$CStringT@DV?$StrTraitMFC_DLL@DV?$ChTraitsCRT@D@ATL@@@@@ATL@@@Z 1000fe90 f   xSkinButton.obj
 0001:0000ef40       ??$SerializeElements@H@@YGXAAVCArchive@@PAHH@Z 1000ff40 f i XTabCtrl.obj
 0001:0000eff0       ??0?$CArray@HH@@QAE@XZ     1000fff0 f i XTabCtrl.obj
 0001:0000f020       ??0CXTabCtrl@@QAE@XZ       10010020 f   XTabCtrl.obj
 0001:0000f150       ??1?$CArray@HH@@UAE@XZ     10010150 f i XTabCtrl.obj
 0001:0000f170       ??1CXTabCtrl@@UAE@XZ       10010170 f   XTabCtrl.obj
 0001:0000f210       ??_E?$CArray@HH@@UAEPAXI@Z 10010210 f i XTabCtrl.obj
 0001:0000f210       ??_G?$CArray@HH@@UAEPAXI@Z 10010210 f i XTabCtrl.obj
 0001:0000f260       ??_GCTabCtrl@@UAEPAXI@Z    10010260 f i XTabCtrl.obj
 0001:0000f260       ??_ECTabCtrl@@UAEPAXI@Z    10010260 f i XTabCtrl.obj
 0001:0000f2a0       ??_ECXTabCtrl@@UAEPAXI@Z   100102a0 f i XTabCtrl.obj
 0001:0000f2a0       ??_GCXTabCtrl@@UAEPAXI@Z   100102a0 f i XTabCtrl.obj
 0001:0000f380       ?AddTab@CXTabCtrl@@QAEXPAVCWnd@@PADH@Z 10010380 f   XTabCtrl.obj
 0001:0000f460       ?AfxCrtErrorCheck@@YAHH@Z  10010460 f i XTabCtrl.obj
 0001:0000f4f0       ?ChangeTab@CXTabCtrl@@QAEXHPAVCWnd@@PADH@Z 100104f0 f   XTabCtrl.obj
 0001:0000f5b0       ?DeleteAllTabs@CXTabCtrl@@QAEXXZ 100105b0 f   XTabCtrl.obj
 0001:0000f600       ?DeleteTab@CXTabCtrl@@QAEXH@Z 10010600 f   XTabCtrl.obj
 0001:0000f6a0       ?DrawGradientTab@CXTabCtrl@@QAEXPAVCDC@@VCRect@@@Z 100106a0 f   XTabCtrl.obj
 0001:0000f850       ?DrawItem@CXTabCtrl@@MAEXPAUtagDRAWITEMSTRUCT@@@Z 10010850 f   XTabCtrl.obj
 0001:0000fe40       ?DrawLine@CXTabCtrl@@QAEXVCPoint@@0PAVCDC@@K@Z 10010e40 f   XTabCtrl.obj
 0001:0000ff00       ?EnableTab@CXTabCtrl@@QAEXHH@Z 10010f00 f   XTabCtrl.obj
 0001:0000ff80       ?GetMessageMap@CXTabCtrl@@MBEPBUAFX_MSGMAP@@XZ 10010f80 f   XTabCtrl.obj
 0001:0000ff90       ?GetThisMessageMap@CXTabCtrl@@KGPBUAFX_MSGMAP@@XZ 10010f90 f   XTabCtrl.obj
 0001:0000ffa0       ?IsTabEnabled@CXTabCtrl@@QAEHH@Z 10010fa0 f   XTabCtrl.obj
 0001:0000ffd0       ?OnEraseBkgnd@CXTabCtrl@@IAEHPAVCDC@@@Z 10010fd0 f   XTabCtrl.obj
 0001:00010030       ?OnLButtonDown@CXTabCtrl@@IAEXIVCPoint@@@Z 10011030 f   XTabCtrl.obj
 0001:00010070       ?OnLButtonUp@CXTabCtrl@@IAEXIVCPoint@@@Z 10011070 f   XTabCtrl.obj
 0001:000100b0       ?OnMouseMove@CXTabCtrl@@IAEXIVCPoint@@@Z 100110b0 f   XTabCtrl.obj
 0001:00010100       ?OnPaint@CXTabCtrl@@IAEXXZ 10011100 f   XTabCtrl.obj
 0001:000103c0       ?OnSelchange@CXTabCtrl@@IAEHPAUtagNMHDR@@PAJ@Z 100113c0 f   XTabCtrl.obj
 0001:00010500       ?OnSelchanging@CXTabCtrl@@IAEHPAUtagNMHDR@@PAJ@Z 10011500 f   XTabCtrl.obj
 0001:00010540       ?OnSize@CXTabCtrl@@IAEXIHH@Z 10011540 f   XTabCtrl.obj
 0001:000105c0       ?OnTimer@CXTabCtrl@@IAEXI@Z 100115c0 f   XTabCtrl.obj
 0001:00010670       ?PreSubclassWindow@CXTabCtrl@@MAEXXZ 10011670 f   XTabCtrl.obj
 0001:00010690       ?RemoveAt@?$CArray@HH@@QAEXHH@Z 10011690 f i XTabCtrl.obj
 0001:00010730       ?SelectNextTab@CXTabCtrl@@QAEHH@Z 10011730 f   XTabCtrl.obj
 0001:000107d0       ?SelectTab@CXTabCtrl@@QAEHH@Z 100117d0 f   XTabCtrl.obj
 0001:00010930       ?SelectTabByName@CXTabCtrl@@QAEHPBD@Z 10011930 f   XTabCtrl.obj
 0001:00010a10       ?Serialize@?$CArray@HH@@UAEXAAVCArchive@@@Z 10011a10 f i XTabCtrl.obj
 0001:00010af0       ?SetAtGrow@?$CArray@HH@@QAEXHH@Z 10011af0 f i XTabCtrl.obj
 0001:00010b30       ?SetDisabledColor@CXTabCtrl@@QAEXK@Z 10011b30 f   XTabCtrl.obj
 0001:00010b50       ?SetMouseOverColor@CXTabCtrl@@QAEXK@Z 10011b50 f   XTabCtrl.obj
 0001:00010b70       ?SetNormalColor@CXTabCtrl@@QAEXKKK@Z 10011b70 f   XTabCtrl.obj
 0001:00010ba0       ?SetPrevSelect@CXTabCtrl@@QAEXXZ 10011ba0 f   XTabCtrl.obj
 0001:00010bf0       ?SetSelectedColor@CXTabCtrl@@QAEXKK@Z 10011bf0 f   XTabCtrl.obj
 0001:00010c10       ?SetSize@?$CArray@HH@@QAEXHH@Z 10011c10 f i XTabCtrl.obj
 0001:00010df0       ?SetTopLeftCorner@CXTabCtrl@@QAEXVCPoint@@@Z 10011df0 f   XTabCtrl.obj
 0001:00010e10       ??$SerializeElements@PAVCRscDlg@@@@YGXAAVCArchive@@PAPAVCRscDlg@@H@Z 10011e10 f i DlgRunMain.obj
 0001:00010ec0       ??0?$CArray@PAVCRscDlg@@PAV1@@@QAE@XZ 10011ec0 f i DlgRunMain.obj
 0001:00010ef0       ??0CDlgRunMain@@QAE@PAUHWND__@@PBD1PAVCWnd@@@Z 10011ef0 f   DlgRunMain.obj
 0001:00011040       ??0CDlgRunMain@@QAE@PBD0PAVCWnd@@@Z 10012040 f   DlgRunMain.obj
 0001:00011190       ??1?$CArray@PAVCRscDlg@@PAV1@@@UAE@XZ 10012190 f i DlgRunMain.obj
 0001:000111b0       ??1CRscDlg@@UAE@XZ         100121b0 f i DlgRunMain.obj
 0001:000111e0       ??_G?$CArray@PAVCRscDlg@@PAV1@@@UAEPAXI@Z 100121e0 f i DlgRunMain.obj
 0001:000111e0       ??_E?$CArray@PAVCRscDlg@@PAV1@@@UAEPAXI@Z 100121e0 f i DlgRunMain.obj
 0001:00011230       ??_ECDlgRunMain@@UAEPAXI@Z 10012230 f i DlgRunMain.obj
 0001:00011230       ??_GCDlgRunMain@@UAEPAXI@Z 10012230 f i DlgRunMain.obj
 0001:00011310       ?DoDataExchange@CDlgRunMain@@MAEXPAVCDataExchange@@@Z 10012310 f   DlgRunMain.obj
 0001:00011380       ?GetDefaultFile@CDlgRunMain@@QAEHAAV?$CStringT@DV?$StrTraitMFC_DLL@DV?$ChTraitsCRT@D@ATL@@@@@ATL@@@Z 10012380 f   DlgRunMain.obj
 0001:00011480       ?GetMessageMap@CDlgRunMain@@MBEPBUAFX_MSGMAP@@XZ 10012480 f   DlgRunMain.obj
 0001:00011490       ?GetThisMessageMap@CDlgRunMain@@KGPBUAFX_MSGMAP@@XZ 10012490 f   DlgRunMain.obj
 0001:000114a0       ?InitControl@CDlgRunMain@@QAEXXZ 100124a0 f   DlgRunMain.obj
 0001:00011820       ?LoadInfo@CRscDlg@@UAEXXZ  10012820 f i DlgRunMain.obj
 0001:00011830       ?OnCancel@CDlgRunMain@@MAEXXZ 10012830 f   DlgRunMain.obj
 0001:00011860       ?OnCtlColor@CDlgRunMain@@IAEPAUHBRUSH__@@PAVCDC@@PAVCWnd@@I@Z 10012860 f   DlgRunMain.obj
 0001:000118b0       ?OnDestroy@CDlgRunMain@@IAEXXZ 100128b0 f   DlgRunMain.obj
 0001:00011950       ?OnInitDialog@CDlgRunMain@@MAEHXZ 10012950 f   DlgRunMain.obj
 0001:00011980       ?OnOK@CDlgRunMain@@MAEXXZ  10012980 f   DlgRunMain.obj
 0001:00011a40       ?OnSetdefault@CDlgRunMain@@QAEXXZ 10012a40 f   DlgRunMain.obj
 0001:00011b10       ?PreTranslateMessage@CDlgRunMain@@UAEHPAUtagMSG@@@Z 10012b10 f   DlgRunMain.obj
 0001:00011bd0       ?PreTranslateMessage@CRscDlg@@MAEHPAUtagMSG@@@Z 10012bd0 f i DlgRunMain.obj
 0001:00011c40       ?RemoveInfo@CRscDlg@@UAEXXZ 10012c40 f i DlgRunMain.obj
 0001:00011c50       ?SaveConfig@CDlgRunMain@@QAEHXZ 10012c50 f   DlgRunMain.obj
 0001:00011ce0       ?SaveInfo@CRscDlg@@UAEHXZ  10012ce0 f i DlgRunMain.obj
 0001:00011cf0       ?Serialize@?$CArray@PAVCRscDlg@@PAV1@@@UAEXAAVCArchive@@@Z 10012cf0 f i DlgRunMain.obj
 0001:00011dd0       ?SetAtGrow@?$CArray@PAVCRscDlg@@PAV1@@@QAEXHPAVCRscDlg@@@Z 10012dd0 f i DlgRunMain.obj
 0001:00011e10       ?SetDefault@CRscDlg@@UAEXXZ 10012e10 f i DlgRunMain.obj
 0001:00011e20       ?SetSize@?$CArray@PAVCRscDlg@@PAV1@@@QAEXHH@Z 10012e20 f i DlgRunMain.obj
 0001:00011fe0       ??0CDlgSTConfig@@QAE@PAVCWnd@@@Z 10012fe0 f   DlgSTConfig.obj
 0001:00012070       ??1CDlgSTConfig@@UAE@XZ    10013070 f   DlgSTConfig.obj
 0001:000120c0       ??_ECDlgSTConfig@@UAEPAXI@Z 100130c0 f i DlgSTConfig.obj
 0001:000120c0       ??_GCDlgSTConfig@@UAEPAXI@Z 100130c0 f i DlgSTConfig.obj
 0001:00012140       ?DoDataExchange@CDlgSTConfig@@MAEXPAVCDataExchange@@@Z 10013140 f   DlgSTConfig.obj
 0001:00012190       ?GetMessageMap@CDlgSTConfig@@MBEPBUAFX_MSGMAP@@XZ 10013190 f   DlgSTConfig.obj
 0001:000121a0       ?GetThisMessageMap@CDlgSTConfig@@KGPBUAFX_MSGMAP@@XZ 100131a0 f   DlgSTConfig.obj
 0001:000121b0       ?InitColumn@CDlgSTConfig@@IAEXXZ 100131b0 f   DlgSTConfig.obj
 0001:00012300       ?LoadInfo@CDlgSTConfig@@MAEXXZ 10013300 f   DlgSTConfig.obj
 0001:00012680       ?OnBnClickedButtonSaveconfig@CDlgSTConfig@@QAEXXZ 10013680 f   DlgSTConfig.obj
 0001:00012690       ?OnCtlColor@CDlgSTConfig@@QAEPAUHBRUSH__@@PAVCDC@@PAVCWnd@@I@Z 10013690 f   DlgSTConfig.obj
 0001:000126e0       ?OnInitDialog@CDlgSTConfig@@UAEHXZ 100136e0 f   DlgSTConfig.obj
 0001:00012840       ?ReloadInfo@CDlgSTConfig@@QAEXXZ 10013840 f   DlgSTConfig.obj
 0001:00012860       ?SaveInfo@CDlgSTConfig@@MAEHXZ 10013860 f   DlgSTConfig.obj
 0001:00012a40       ?WindowProc@CDlgSTConfig@@MAEJIIJ@Z 10013a40 f   DlgSTConfig.obj
 0001:00012a70       ??0CDlgSTOption@@QAE@PAVCWnd@@@Z 10013a70 f   DlgSTOption.obj
 0001:00012be0       ??_ECDlgSTOption@@UAEPAXI@Z 10013be0 f i DlgSTOption.obj
 0001:00012be0       ??_GCDlgSTOption@@UAEPAXI@Z 10013be0 f i DlgSTOption.obj
 0001:00012ce0       ?ApplyConfig@CDlgSTOption@@QAEXXZ 10013ce0 f   DlgSTOption.obj
 0001:00012e80       ?ChangeConfigureInfo@CDlgSTOption@@QAEXXZ 10013e80 f   DlgSTOption.obj
 0001:00012ee0       ?ChangeSfgPath@CDlgSTOption@@QAEXPBD@Z 10013ee0 f   DlgSTOption.obj
 0001:00013010       ?DeleteConfig@CDlgSTOption@@QAEXXZ 10014010 f   DlgSTOption.obj
 0001:00013070       ?DoDataExchange@CDlgSTOption@@MAEXPAVCDataExchange@@@Z 10014070 f   DlgSTOption.obj
 0001:000130c0       ?GetExpiredDate@CDlgSTOption@@QAE?AV?$CStringT@DV?$StrTraitMFC_DLL@DV?$ChTraitsCRT@D@ATL@@@@@ATL@@XZ 100140c0 f   DlgSTOption.obj
 0001:00013160       ?GetMessageMap@CDlgSTOption@@MBEPBUAFX_MSGMAP@@XZ 10014160 f   DlgSTOption.obj
 0001:00013170       ?GetPassword@CDlgSTOption@@QAE?AV?$CStringT@DV?$StrTraitMFC_DLL@DV?$ChTraitsCRT@D@ATL@@@@@ATL@@XZ 10014170 f   DlgSTOption.obj
 0001:000131b0       ?GetPrivateProfileStringInST@CDlgSTOption@@QAEKPBD00PADKH@Z 100141b0 f   DlgSTOption.obj
 0001:00013300       ?GetSTFile@CDlgSTOption@@QAEXPBD@Z 10014300 f   DlgSTOption.obj
 0001:000133c0       ?GetSdPath@CDlgSTOption@@QAE?AV?$CStringT@DV?$StrTraitMFC_DLL@DV?$ChTraitsCRT@D@ATL@@@@@ATL@@XZ 100143c0 f   DlgSTOption.obj
 0001:000134e0       ?GetSfgPath@CDlgSTOption@@QAE?AV?$CStringT@DV?$StrTraitMFC_DLL@DV?$ChTraitsCRT@D@ATL@@@@@ATL@@XZ 100144e0 f   DlgSTOption.obj
 0001:00013520       ?GetThisMessageMap@CDlgSTOption@@KGPBUAFX_MSGMAP@@XZ 10014520 f   DlgSTOption.obj
 0001:00013530       ?GetUseExpiredDate@CDlgSTOption@@QAEHXZ 10014530 f   DlgSTOption.obj
 0001:00013550       ?GetUsePassword@CDlgSTOption@@QAEHXZ 10014550 f   DlgSTOption.obj
 0001:00013570       ?GetUseUserID@CDlgSTOption@@QAEHXZ 10014570 f   DlgSTOption.obj
 0001:00013590       ?GetUserID@CDlgSTOption@@QAE?AV?$CStringT@DV?$StrTraitMFC_DLL@DV?$ChTraitsCRT@D@ATL@@@@@ATL@@XZ 10014590 f   DlgSTOption.obj
 0001:000135d0       ?OnCancel@CDlgSTOption@@MAEXXZ 100145d0 f   DlgSTOption.obj
 0001:00013630       ?OnCtlColor@CDlgSTOption@@IAEPAUHBRUSH__@@PAVCDC@@PAVCWnd@@I@Z 10014630 f   DlgSTOption.obj
 0001:00013680       ?OnDestroy@CDlgSTOption@@IAEXXZ 10014680 f   DlgSTOption.obj
 0001:00013750       ?OnInitDialog@CDlgSTOption@@MAEHXZ 10014750 f   DlgSTOption.obj
 0001:00013d30       ?OnOK@CDlgSTOption@@MAEXXZ 10014d30 f   DlgSTOption.obj
 0001:00013e90       ?SaveConfig@CDlgSTOption@@QAEXXZ 10014e90 f   DlgSTOption.obj
 0001:00013f30       ?WritePrivateProfileStringInST@CDlgSTOption@@QAEHPBD00H@Z 10014f30 f   DlgSTOption.obj
 0001:00014080       ??0CRscDlg@@QAE@IPAVCWnd@@@Z 10015080 f   RscDlg.obj
 0001:000140c0       ??_GCRscDlg@@UAEPAXI@Z     100150c0 f i RscDlg.obj
 0001:000140c0       ??_ECRscDlg@@UAEPAXI@Z     100150c0 f i RscDlg.obj
 0001:00014120       ?Create@CDialog@@UAEHIPAVCWnd@@@Z 10015120 f i RscDlg.obj
 0001:00014130       ?Create@CRscDlg@@UAEHIPAVCWnd@@@Z 10015130 f   RscDlg.obj
 0001:00014170       ?DoDataExchange@CRscDlg@@MAEXPAVCDataExchange@@@Z 10015170 f   RscDlg.obj
 0001:00014180       ?DoModal@CRscDlg@@UAEHXZ   10015180 f   RscDlg.obj
 0001:000141c0       ?GetMessageMap@CRscDlg@@MBEPBUAFX_MSGMAP@@XZ 100151c0 f   RscDlg.obj
 0001:000141d0       ?GetThisMessageMap@CRscDlg@@KGPBUAFX_MSGMAP@@XZ 100151d0 f   RscDlg.obj
 0001:000141e0       ??0CSTConfigureDlgApp@@QAE@XZ 100151e0 f   STConfigureDlg.obj
 0001:00014240       ??1CDlgRunMain@@UAE@XZ     10015240 f i STConfigureDlg.obj
 0001:000142f0       ??1CDlgSTOption@@UAE@XZ    100152f0 f i STConfigureDlg.obj
 0001:000143c0       ??_ECSTConfigureDlgApp@@UAEPAXI@Z 100153c0 f i STConfigureDlg.obj
 0001:000143c0       ??_GCSTConfigureDlgApp@@UAEPAXI@Z 100153c0 f i STConfigureDlg.obj
 0001:00014410       ?Dtos@@YA?AV?$CStringT@DV?$StrTraitMFC_DLL@DV?$ChTraitsCRT@D@ATL@@@@@ATL@@N@Z 10015410 f   STConfigureDlg.obj
 0001:000144c0       ?ExitInstance@CSTConfigureDlgApp@@UAEHXZ 100154c0 f   STConfigureDlg.obj
 0001:000144e0       ?GetApplicationRecoveryParameter@CWinApp@@UAEPAXXZ 100154e0 f i STConfigureDlg.obj
 0001:000144f0       ?GetApplicationRecoveryPingInterval@CWinApp@@UAEKXZ 100154f0 f i STConfigureDlg.obj
 0001:00014500       ?GetApplicationRestartFlags@CWinApp@@UAEKXZ 10015500 f i STConfigureDlg.obj
 0001:00014510       ?GetExpiredDate@CSTConfigureDlgApp@@QAE?AV?$CStringT@DV?$StrTraitMFC_DLL@DV?$ChTraitsCRT@D@ATL@@@@@ATL@@XZ 10015510 f   STConfigureDlg.obj
 0001:00014530       ?GetMessageMap@CSTConfigureDlgApp@@MBEPBUAFX_MSGMAP@@XZ 10015530 f   STConfigureDlg.obj
 0001:00014540       ?GetPassword@CSTConfigureDlgApp@@QAE?AV?$CStringT@DV?$StrTraitMFC_DLL@DV?$ChTraitsCRT@D@ATL@@@@@ATL@@XZ 10015540 f   STConfigureDlg.obj
 0001:00014560       ?GetThisMessageMap@CSTConfigureDlgApp@@KGPBUAFX_MSGMAP@@XZ 10015560 f   STConfigureDlg.obj
 0001:00014570       ?GetUseExpiredDate@CSTConfigureDlgApp@@QAEHXZ 10015570 f   STConfigureDlg.obj
 0001:00014580       ?GetUsePassword@CSTConfigureDlgApp@@QAEHXZ 10015580 f   STConfigureDlg.obj
 0001:00014590       ?GetUseUserID@CSTConfigureDlgApp@@QAEHXZ 10015590 f   STConfigureDlg.obj
 0001:000145a0       ?GetUserID@CSTConfigureDlgApp@@QAE?AV?$CStringT@DV?$StrTraitMFC_DLL@DV?$ChTraitsCRT@D@ATL@@@@@ATL@@XZ 100155a0 f   STConfigureDlg.obj
 0001:000145c0       ?InitInstance@CSTConfigureDlgApp@@UAEHXZ 100155c0 f   STConfigureDlg.obj
 0001:000145d0       ?Parser@@YA?AV?$CStringT@DV?$StrTraitMFC_DLL@DV?$ChTraitsCRT@D@ATL@@@@@ATL@@PBDPAH@Z 100155d0 f   STConfigureDlg.obj
 0001:000146c0       ?ReopenPreviousFilesAtRestart@CWinApp@@UBEHXZ 100156c0 f i STConfigureDlg.obj
 0001:000146d0       ?RestoreAutosavedFilesAtRestart@CWinApp@@UBEHXZ 100156d0 f i STConfigureDlg.obj
 0001:000146e0       ?SetExpiredDate@CSTConfigureDlgApp@@QAEXPBD@Z 100156e0 f   STConfigureDlg.obj
 0001:000146f0       ?SetPassword@CSTConfigureDlgApp@@QAEXPBD@Z 100156f0 f   STConfigureDlg.obj
 0001:00014700       ?SetUseExpiredDate@CSTConfigureDlgApp@@QAEXH@Z 10015700 f   STConfigureDlg.obj
 0001:00014710       ?SetUsePassword@CSTConfigureDlgApp@@QAEXH@Z 10015710 f   STConfigureDlg.obj
 0001:00014720       ?SetUseUserID@CSTConfigureDlgApp@@QAEXH@Z 10015720 f   STConfigureDlg.obj
 0001:00014730       ?SetUserID@CSTConfigureDlgApp@@QAEXPBD@Z 10015730 f   STConfigureDlg.obj
 0001:00014740       ?ShowConfigureDlg@CSTConfigureDlgApp@@QAEHPAUHWND__@@PAVCISTControllerD0001@@PBDH@Z 10015740 f   STConfigureDlg.obj
 0001:00014800       ?ShowconfigureDlgOnWizard@CSTConfigureDlgApp@@QAEHPAUHWND__@@PAVCISTControllerD0001@@PBDHPAVCRect@@@Z 10015800 f   STConfigureDlg.obj
 0001:00014910       ?SupportsApplicationRecovery@CWinApp@@UBEHXZ 10015910 f i STConfigureDlg.obj
 0001:00014920       ?SupportsAutosaveAtInterval@CWinApp@@UBEHXZ 10015920 f i STConfigureDlg.obj
 0001:00014930       ?SupportsAutosaveAtRestart@CWinApp@@UBEHXZ 10015930 f i STConfigureDlg.obj
 0001:00014940       ?SupportsRestartManager@CWinApp@@UBEHXZ 10015940 f i STConfigureDlg.obj
 0001:00014950       ?WriteConfigure@CSTConfigureDlgApp@@QAEHPAUHWND__@@PAVCISTControllerD0001@@PBDHH@Z 10015950 f   STConfigureDlg.obj
 0001:00014990       ?fnGetExpiredDate@@YG?AV?$CStringT@DV?$StrTraitMFC_DLL@DV?$ChTraitsCRT@D@ATL@@@@@ATL@@XZ 10015990 f   STConfigureDlg.obj
 0001:000149b0       ?fnGetPassword@@YG?AV?$CStringT@DV?$StrTraitMFC_DLL@DV?$ChTraitsCRT@D@ATL@@@@@ATL@@XZ 100159b0 f   STConfigureDlg.obj
 0001:000149d0       ?fnGetUseExpiredDate@@YGHXZ 100159d0 f   STConfigureDlg.obj
 0001:000149e0       ?fnGetUsePassword@@YGHXZ   100159e0 f   STConfigureDlg.obj
 0001:000149f0       ?fnGetUseUserID@@YGHXZ     100159f0 f   STConfigureDlg.obj
 0001:00014a00       ?fnGetUserID@@YG?AV?$CStringT@DV?$StrTraitMFC_DLL@DV?$ChTraitsCRT@D@ATL@@@@@ATL@@XZ 10015a00 f   STConfigureDlg.obj
 0001:00014a20       ?fnSetExpiredDate@@YGXPBD@Z 10015a20 f   STConfigureDlg.obj
 0001:00014a30       ?fnSetPassword@@YGXPBD@Z   10015a30 f   STConfigureDlg.obj
 0001:00014a40       ?fnSetUseExpiredDate@@YGXH@Z 10015a40 f   STConfigureDlg.obj
 0001:00014a50       ?fnSetUsePassword@@YGXH@Z  10015a50 f   STConfigureDlg.obj
 0001:00014a60       ?fnSetUseUserID@@YGXH@Z    10015a60 f   STConfigureDlg.obj
 0001:00014a70       ?fnSetUserID@@YGXPBD@Z     10015a70 f   STConfigureDlg.obj
 0001:00014a80       ?fnShowConfigureDlg@@YGHPAUHWND__@@PAVCISTControllerD0001@@PBDH@Z 10015a80 f   STConfigureDlg.obj
 0001:00014b30       ?fnShowConfigureDlgOnWizard@@YGHPAUHWND__@@PAVCISTControllerD0001@@PBDHPAVCRect@@@Z 10015b30 f   STConfigureDlg.obj
 0001:00014c40       ?fnWriteConfigure@@YGHPAUHWND__@@PAVCISTControllerD0001@@PBDHH@Z 10015c40 f   STConfigureDlg.obj
 0001:00014c80       _fnShowConfigureDlgRunMain 10015c80 f   STConfigureDlg.obj
 0001:00014d10       _fnShowConfigureDlgRunMainEx 10015d10 f   STConfigureDlg.obj
 0001:00014da0       ?Allocate@CAtlStringMgr@ATL@@UAEPAUCStringData@2@HH@Z 10015da0 f i StdAfx.obj
 0001:00014e10       ?Free@CAtlStringMgr@ATL@@UAEXPAUCStringData@2@@Z 10015e10 f i StdAfx.obj
 0001:00014e20       ?Reallocate@CAtlStringMgr@ATL@@UAEPAUCStringData@2@PAU32@HH@Z 10015e20 f i StdAfx.obj
 0001:00014e80       ?GetNilString@CAtlStringMgr@ATL@@UAEPAUCStringData@2@XZ 10015e80 f i StdAfx.obj
 0001:00014e90       ?Clone@CAtlStringMgr@ATL@@UAEPAUIAtlStringMgr@2@XZ 10015e90 f i StdAfx.obj
 0001:00014ea0       ??_GCAtlStringMgr@ATL@@UAEPAXI@Z 10015ea0 f i StdAfx.obj
 0001:00014ea0       ??_ECAtlStringMgr@ATL@@UAEPAXI@Z 10015ea0 f i StdAfx.obj
 0001:00014ed0       ?_AfxInitManaged@@YAHXZ    10015ed0 f i StdAfx.obj
 0001:00014ee0       ?Allocate@CWin32Heap@ATL@@UAEPAXI@Z 10015ee0 f i StdAfx.obj
 0001:00014f00       ?Free@CWin32Heap@ATL@@UAEXPAX@Z 10015f00 f i StdAfx.obj
 0001:00014f20       ?Reallocate@CWin32Heap@ATL@@UAEPAXPAXI@Z 10015f20 f i StdAfx.obj
 0001:00014f60       ?GetSize@CWin32Heap@ATL@@UAEIPAX@Z 10015f60 f i StdAfx.obj
 0001:00014f80       ??_ECWin32Heap@ATL@@UAEPAXI@Z 10015f80 f i StdAfx.obj
 0001:00014f80       ??_GCWin32Heap@ATL@@UAEPAXI@Z 10015f80 f i StdAfx.obj
 0001:00014fc0       ??1CAtlStringMgr@ATL@@UAE@XZ 10015fc0 f i StdAfx.obj
 0001:00014fd0       ??1CWin32Heap@ATL@@UAE@XZ  10015fd0 f i StdAfx.obj
 0001:00014ff0       ??_H@YGXPAXIIP6EPAX0@Z@Z   10015ff0 f i StdAfx.obj
 0001:00015020       ?EnsureLinked@CAtlStringMgrStaticInitializer@ATLImplementationDetails@ATL@@QAEPAXXZ 10016020 f i StdAfx.obj
 0001:00015030       ?_AtlInitializeCriticalSectionEx@ATL@@YAHPAU_RTL_CRITICAL_SECTION@@KK@Z 10016030 f i StdAfx.obj
 0001:00015050       ?_AtlRaiseException@ATL@@YAXKK@Z 10016050 f i StdAfx.obj
 0001:00015070       ??0CTabAuthority@@QAE@PAVCWnd@@@Z 10016070 f   TabAuthority.obj
 0001:00015250       ??_ECDateTimeCtrl@@UAEPAXI@Z 10016250 f i TabAuthority.obj
 0001:00015250       ??_GCDateTimeCtrl@@UAEPAXI@Z 10016250 f i TabAuthority.obj
 0001:00015290       ??_ECStatic@@UAEPAXI@Z     10016290 f i TabAuthority.obj
 0001:00015290       ??_GCStatic@@UAEPAXI@Z     10016290 f i TabAuthority.obj
 0001:000152d0       ??_ECTabAuthority@@UAEPAXI@Z 100162d0 f i TabAuthority.obj
 0001:000152d0       ??_GCTabAuthority@@UAEPAXI@Z 100162d0 f i TabAuthority.obj
 0001:000153b0       ?AtlThrowImpl@ATL@@YGXJ@Z  100163b0 f i TabAuthority.obj
 0001:000153d0       ?DoDataExchange@CTabAuthority@@MAEXPAVCDataExchange@@@Z 100163d0 f   TabAuthority.obj
 0001:00015500       ?GetMessageMap@CTabAuthority@@MBEPBUAFX_MSGMAP@@XZ 10016500 f   TabAuthority.obj
 0001:00015510       ?GetThisMessageMap@CTabAuthority@@KGPBUAFX_MSGMAP@@XZ 10016510 f   TabAuthority.obj
 0001:00015520       ?LoadInfo@CTabAuthority@@EAEXXZ 10016520 f   TabAuthority.obj
 0001:00015840       ?OnChkexpireddate@CTabAuthority@@IAEXXZ 10016840 f   TabAuthority.obj
 0001:00015870       ?OnChkpasswd@CTabAuthority@@IAEXXZ 10016870 f   TabAuthority.obj
 0001:000158b0       ?OnChkuserid@CTabAuthority@@IAEXXZ 100168b0 f   TabAuthority.obj
 0001:000158e0       ?OnCtlColor@CTabAuthority@@IAEPAUHBRUSH__@@PAVCDC@@PAVCWnd@@I@Z 100168e0 f   TabAuthority.obj
 0001:00015930       ?OnInitDialog@CTabAuthority@@MAEHXZ 10016930 f   TabAuthority.obj
 0001:00015950       ?SaveInfo@CTabAuthority@@EAEHXZ 10016950 f   TabAuthority.obj
 0001:00015ae0       ?WindowProc@CTabAuthority@@MAEJIIJ@Z 10016ae0 f   TabAuthority.obj
 0001:00015b10       ??0CTabBasic@@QAE@PAVCWnd@@@Z 10016b10 f   TabBasic.obj
 0001:00015bf0       ??_GCTabBasic@@UAEPAXI@Z   10016bf0 f i TabBasic.obj
 0001:00015bf0       ??_ECTabBasic@@UAEPAXI@Z   10016bf0 f i TabBasic.obj
 0001:00015c80       ?DoDataExchange@CTabBasic@@MAEXPAVCDataExchange@@@Z 10016c80 f   TabBasic.obj
 0001:00015cf0       ?GetMessageMap@CTabBasic@@MBEPBUAFX_MSGMAP@@XZ 10016cf0 f   TabBasic.obj
 0001:00015d00       ?GetThisMessageMap@CTabBasic@@KGPBUAFX_MSGMAP@@XZ 10016d00 f   TabBasic.obj
 0001:00015d10       ?LoadInfo@CTabBasic@@MAEXXZ 10016d10 f   TabBasic.obj
 0001:00015ed0       ?OnCtlColor@CTabBasic@@IAEPAUHBRUSH__@@PAVCDC@@PAVCWnd@@I@Z 10016ed0 f   TabBasic.obj
 0001:00015f20       ?OnInitDialog@CTabBasic@@MAEHXZ 10016f20 f   TabBasic.obj
 0001:00015f40       ?OnRadioLangtype0@CTabBasic@@IAEXXZ 10016f40 f   TabBasic.obj
 0001:00015f60       ?OnRadioLangtype1@CTabBasic@@IAEXXZ 10016f60 f   TabBasic.obj
 0001:00015f80       ?SaveInfo@CTabBasic@@MAEHXZ 10016f80 f   TabBasic.obj
 0001:000160b0       ?WindowProc@CTabBasic@@MAEJIIJ@Z 100170b0 f   TabBasic.obj
 0001:000160e0       ??$SerializeElements@VCIndexData@@@@YGXAAVCArchive@@PAVCIndexData@@H@Z 100170e0 f i TabIndex.obj
 0001:00016190       ??0?$CArray@VCIndexData@@V1@@@QAE@XZ 10017190 f i TabIndex.obj
 0001:000161c0       ??0CTabIndex@@QAE@PAVCWnd@@@Z 100171c0 f   TabIndex.obj
 0001:00016320       ??1?$CArray@VCIndexData@@V1@@@UAE@XZ 10017320 f i TabIndex.obj
 0001:00016340       ??1CColorDialog@@UAE@XZ    10017340 f i TabIndex.obj
 0001:00016350       ??1CCommonDialog@@UAE@XZ   10017350 f i TabIndex.obj
 0001:00016360       ??_G?$CArray@VCIndexData@@V1@@@UAEPAXI@Z 10017360 f i TabIndex.obj
 0001:00016360       ??_E?$CArray@VCIndexData@@V1@@@UAEPAXI@Z 10017360 f i TabIndex.obj
 0001:000163b0       ??_GCCommonDialog@@UAEPAXI@Z 100173b0 f i TabIndex.obj
 0001:000163b0       ??_ECCommonDialog@@UAEPAXI@Z 100173b0 f i TabIndex.obj
 0001:00016400       ??_ECTabIndex@@UAEPAXI@Z   10017400 f i TabIndex.obj
 0001:00016400       ??_GCTabIndex@@UAEPAXI@Z   10017400 f i TabIndex.obj
 0001:000164f0       ?DoDataExchange@CTabIndex@@MAEXPAVCDataExchange@@@Z 100174f0 f   TabIndex.obj
 0001:000165c0       ?GetMessageMap@CTabIndex@@MBEPBUAFX_MSGMAP@@XZ 100175c0 f   TabIndex.obj
 0001:000165d0       ?GetThisMessageMap@CTabIndex@@KGPBUAFX_MSGMAP@@XZ 100175d0 f   TabIndex.obj
 0001:000165e0       ?InitColumn@CTabIndex@@AAEXXZ 100175e0 f   TabIndex.obj
 0001:00016720       ?InitComboBox@CTabIndex@@AAEXXZ 10017720 f   TabIndex.obj
 0001:000168c0       ?LoadInfo@CTabIndex@@EAEXXZ 100178c0 f   TabIndex.obj
 0001:00017020       ?OnBtnClr@CTabIndex@@AAEXAAVCColorButton@@@Z 10018020 f   TabIndex.obj
 0001:000170c0       ?OnBtnClrBull@CTabIndex@@IAEXXZ 100180c0 f   TabIndex.obj
 0001:000170d0       ?OnBtnCltBear@CTabIndex@@IAEXXZ 100180d0 f   TabIndex.obj
 0001:000170e0       ?OnBtnGraphClr@CTabIndex@@IAEXXZ 100180e0 f   TabIndex.obj
 0001:00017150       ?OnCtlColor@CTabIndex@@IAEPAUHBRUSH__@@PAVCDC@@PAVCWnd@@I@Z 10018150 f   TabIndex.obj
 0001:000171a0       ?OnInitDialog@CTabIndex@@MAEHXZ 100181a0 f   TabIndex.obj
 0001:000173b0       ?OnItemchangedListGraph@CTabIndex@@IAEXPAUtagNMHDR@@PAJ@Z 100183b0 f   TabIndex.obj
 0001:00017500       ?OnSelchangeCbGraphShape@CTabIndex@@IAEXXZ 10018500 f   TabIndex.obj
 0001:000175e0       ?OnSelchangeCbGraphThick@CTabIndex@@IAEXXZ 100185e0 f   TabIndex.obj
 0001:00017670       ?OnSelchangeCbGraphType@CTabIndex@@IAEXXZ 10018670 f   TabIndex.obj
 0001:00017780       ?RemoveInfo@CTabIndex@@EAEXXZ 10018780 f   TabIndex.obj
 0001:000178e0       ?SaveInfo@CTabIndex@@EAEHXZ 100188e0 f   TabIndex.obj
 0001:00017b90       ?Serialize@?$CArray@VCIndexData@@V1@@@UAEXAAVCArchive@@@Z 10018b90 f i TabIndex.obj
 0001:00017c70       ?SetAtGrow@?$CArray@VCIndexData@@V1@@@QAEXHVCIndexData@@@Z 10018c70 f i TabIndex.obj
 0001:00017cb0       ?SetSize@?$CArray@VCIndexData@@V1@@@QAEXHH@Z 10018cb0 f i TabIndex.obj
 0001:00017f40       ?WindowProc@CTabIndex@@MAEJIIJ@Z 10018f40 f   TabIndex.obj
 0001:00017f80       ??0CSTConfigEnv_Clear@@QAE@XZ 10018f80 f i TabRunClear.obj
 0001:00018030       ??0CSTConfigEnv_Jumun@@QAE@XZ 10019030 f i TabRunClear.obj
 0001:000180c0       ??0CSTConfigEnv_Setup@@QAE@XZ 100190c0 f i TabRunClear.obj
 0001:00018290       ??0CSTConfigEnv_Signal@@QAE@XZ 10019290 f i TabRunClear.obj
 0001:00018340       ??0CTabRunClear@@QAE@PAVCWnd@@@Z 10019340 f   TabRunClear.obj
 0001:000183e0       ??1CSTConfigEnv@@QAE@XZ    100193e0 f i TabRunClear.obj
 0001:00018520       ??1CSTConfigEnv_Clear@@QAE@XZ 10019520 f i TabRunClear.obj
 0001:00018570       ??1CSTConfigEnv_Jumun@@QAE@XZ 10019570 f i TabRunClear.obj
 0001:000185c0       ??1CSTConfigEnv_Setup@@QAE@XZ 100195c0 f i TabRunClear.obj
 0001:000186b0       ??1CSTConfigEnv_Signal@@QAE@XZ 100196b0 f i TabRunClear.obj
 0001:00018700       ??_GCTabRunClear@@UAEPAXI@Z 10019700 f i TabRunClear.obj
 0001:00018700       ??_ECTabRunClear@@UAEPAXI@Z 10019700 f i TabRunClear.obj
 0001:00018790       ?DoDataExchange@CTabRunClear@@MAEXPAVCDataExchange@@@Z 10019790 f   TabRunClear.obj
 0001:000187f0       ?GetMessageMap@CTabRunClear@@MBEPBUAFX_MSGMAP@@XZ 100197f0 f   TabRunClear.obj
 0001:00018800       ?GetThisMessageMap@CTabRunClear@@KGPBUAFX_MSGMAP@@XZ 10019800 f   TabRunClear.obj
 0001:00018810       ?LoadInfo@CSTConfigEnv@@QAEXPBD0H@Z 10019810 f i TabRunClear.obj
 0001:00018a10       ?LoadInfo@CSTConfigEnv_Clear@@QAEXPBD@Z 10019a10 f i TabRunClear.obj
 0001:00018f00       ?LoadInfo@CSTConfigEnv_Jumun@@QAEXPBD@Z 10019f00 f i TabRunClear.obj
 0001:00019730       ?LoadInfo@CSTConfigEnv_Setup@@QAEXPBD@Z 1001a730 f i TabRunClear.obj
 0001:0001aa80       ?LoadInfo@CSTConfigEnv_Signal@@QAEXPBD@Z 1001ba80 f i TabRunClear.obj
 0001:0001ae80       ?LoadInfo@CTabRunClear@@UAEXXZ 1001be80 f   TabRunClear.obj
 0001:0001b120       ?OnCtlColor@CTabRunClear@@IAEPAUHBRUSH__@@PAVCDC@@PAVCWnd@@I@Z 1001c120 f   TabRunClear.obj
 0001:0001b170       ?OnInitDialog@CTabRunClear@@MAEHXZ 1001c170 f   TabRunClear.obj
 0001:0001b2a0       ?RemoveInfo@CTabRunClear@@UAEXXZ 1001c2a0 f   TabRunClear.obj
 0001:0001b2b0       ?SaveInfo@CTabRunClear@@UAEHXZ 1001c2b0 f   TabRunClear.obj
 0001:0001b5d0       ?SetDefault@CTabRunClear@@UAEXXZ 1001c5d0 f   TabRunClear.obj
 0001:0001b690       ??0CTabRunJumun@@QAE@PAVCWnd@@@Z 1001c690 f   TabRunJumun.obj
 0001:0001b7c0       ??_GCTabRunJumun@@UAEPAXI@Z 1001c7c0 f i TabRunJumun.obj
 0001:0001b7c0       ??_ECTabRunJumun@@UAEPAXI@Z 1001c7c0 f i TabRunJumun.obj
 0001:0001b890       ?CheckInputPwd@CTabRunJumun@@QAEHXZ 1001c890 f   TabRunJumun.obj
 0001:0001ba10       ?DoDataExchange@CTabRunJumun@@MAEXPAVCDataExchange@@@Z 1001ca10 f   TabRunJumun.obj
 0001:0001baf0       ?GetMessageMap@CTabRunJumun@@MBEPBUAFX_MSGMAP@@XZ 1001caf0 f   TabRunJumun.obj
 0001:0001bb00       ?GetThisMessageMap@CTabRunJumun@@KGPBUAFX_MSGMAP@@XZ 1001cb00 f   TabRunJumun.obj
 0001:0001bb10       ?IsTradableAcct@CTabRunJumun@@QAEHV?$CStringT@DV?$StrTraitMFC_DLL@DV?$ChTraitsCRT@D@ATL@@@@@ATL@@AAVCStringArray@@@Z 1001cb10 f   TabRunJumun.obj
 0001:0001bbd0       ?LoadAcctInfo@CTabRunJumun@@QAEXXZ 1001cbd0 f   TabRunJumun.obj
 0001:0001bd60       ?LoadInfo@CTabRunJumun@@UAEXXZ 1001cd60 f   TabRunJumun.obj
 0001:0001c180       ?OnBnClickedChkMarketpriceclear@CTabRunJumun@@QAEXXZ 1001d180 f   TabRunJumun.obj
 0001:0001c1c0       ?OnBnClickedChkMarketpriceentry@CTabRunJumun@@QAEXXZ 1001d1c0 f   TabRunJumun.obj
 0001:0001c200       ?OnBtnFileBuy@CTabRunJumun@@IAEXXZ 1001d200 f   TabRunJumun.obj
 0001:0001c210       ?OnBtnFileSell@CTabRunJumun@@IAEXXZ 1001d210 f   TabRunJumun.obj
 0001:0001c220       ?OnBtnPlayBuy@CTabRunJumun@@IAEXXZ 1001d220 f   TabRunJumun.obj
 0001:0001c2a0       ?OnBtnPlaySell@CTabRunJumun@@IAEXXZ 1001d2a0 f   TabRunJumun.obj
 0001:0001c320       ?OnCommand@CTabRunJumun@@MAEHIJ@Z 1001d320 f   TabRunJumun.obj
 0001:0001c330       ?OnCtlColor@CTabRunJumun@@IAEPAUHBRUSH__@@PAVCDC@@PAVCWnd@@I@Z 1001d330 f   TabRunJumun.obj
 0001:0001c380       ?OnDestroy@CTabRunJumun@@QAEXXZ 1001d380 f   TabRunJumun.obj
 0001:0001c390       ?OnInitDialog@CTabRunJumun@@MAEHXZ 1001d390 f   TabRunJumun.obj
 0001:0001c860       ?OnSelchangeCmbAcct@CTabRunJumun@@IAEXXZ 1001d860 f   TabRunJumun.obj
 0001:0001c950       ?OnSelchangeCmbMethod@CTabRunJumun@@IAEXXZ 1001d950 f   TabRunJumun.obj
 0001:0001ca30       ?ReadAccType@CTabRunJumun@@QAEXAAVCStringArray@@@Z 1001da30 f   TabRunJumun.obj
 0001:0001cd00       ?SaveInfo@CTabRunJumun@@UAEHXZ 1001dd00 f   TabRunJumun.obj
 0001:0001d410       ?SetDefault@CTabRunJumun@@UAEXXZ 1001e410 f   TabRunJumun.obj
 0001:0001d540       ?fnBtnFileSearch@CTabRunJumun@@IAEXI@Z 1001e540 f   TabRunJumun.obj
 0001:0001d6e0       ??0CTabRunSetup@@QAE@PAVCWnd@@@Z 1001e6e0 f   TabRunSetup.obj
 0001:0001d870       ??_GCTabRunSetup@@UAEPAXI@Z 1001e870 f i TabRunSetup.obj
 0001:0001d870       ??_ECTabRunSetup@@UAEPAXI@Z 1001e870 f i TabRunSetup.obj
 0001:0001d9a0       ?DoDataExchange@CTabRunSetup@@MAEXPAVCDataExchange@@@Z 1001e9a0 f   TabRunSetup.obj
 0001:0001db10       ?GetMessageMap@CTabRunSetup@@MBEPBUAFX_MSGMAP@@XZ 1001eb10 f   TabRunSetup.obj
 0001:0001db20       ?GetThisMessageMap@CTabRunSetup@@KGPBUAFX_MSGMAP@@XZ 1001eb20 f   TabRunSetup.obj
 0001:0001db30       ?LoadInfo@CTabRunSetup@@UAEXXZ 1001eb30 f   TabRunSetup.obj
 0001:0001e0c0       ?OnBnClickedBtC1@CTabRunSetup@@IAEXXZ 1001f0c0 f   TabRunSetup.obj
 0001:0001e0d0       ?OnBnClickedBtC2@CTabRunSetup@@IAEXXZ 1001f0d0 f   TabRunSetup.obj
 0001:0001e0e0       ?OnBnClickedBtC3@CTabRunSetup@@IAEXXZ 1001f0e0 f   TabRunSetup.obj
 0001:0001e0f0       ?OnBnClickedBtC4@CTabRunSetup@@IAEXXZ 1001f0f0 f   TabRunSetup.obj
 0001:0001e100       ?OnBnClickedBtC5@CTabRunSetup@@IAEXXZ 1001f100 f   TabRunSetup.obj
 0001:0001e110       ?OnBtnClr@CTabRunSetup@@QAEXAAVCColorButton@@@Z 1001f110 f   TabRunSetup.obj
 0001:0001e1b0       ?OnCtlColor@CTabRunSetup@@IAEPAUHBRUSH__@@PAVCDC@@PAVCWnd@@I@Z 1001f1b0 f   TabRunSetup.obj
 0001:0001e200       ?OnInitDialog@CTabRunSetup@@MAEHXZ 1001f200 f   TabRunSetup.obj
 0001:0001e440       ?RemoveInfo@CTabRunSetup@@UAEXXZ 1001f440 f   TabRunSetup.obj
 0001:0001e450       ?SaveInfo@CTabRunSetup@@UAEHXZ 1001f450 f   TabRunSetup.obj
 0001:0001ee80       ?SetDefault@CTabRunSetup@@UAEXXZ 1001fe80 f   TabRunSetup.obj
 0001:0001f140       ?cmStar@CConfigHelper@@SAHPAVCComboBox@@@Z 10020140 f i TabRunSetup.obj
 0001:0001f1e0       ??0CTabRunSignal@@QAE@PAVCWnd@@@Z 100201e0 f   TabRunSignal.obj
 0001:0001f2c0       ??_ECTabRunSignal@@UAEPAXI@Z 100202c0 f i TabRunSignal.obj
 0001:0001f2c0       ??_GCTabRunSignal@@UAEPAXI@Z 100202c0 f i TabRunSignal.obj
 0001:0001f370       ?DoDataExchange@CTabRunSignal@@MAEXPAVCDataExchange@@@Z 10020370 f   TabRunSignal.obj
 0001:0001f420       ?GetMessageMap@CTabRunSignal@@MBEPBUAFX_MSGMAP@@XZ 10020420 f   TabRunSignal.obj
 0001:0001f430       ?GetThisMessageMap@CTabRunSignal@@KGPBUAFX_MSGMAP@@XZ 10020430 f   TabRunSignal.obj
 0001:0001f440       ?LoadInfo@CTabRunSignal@@UAEXXZ 10020440 f   TabRunSignal.obj
 0001:0001f720       ?OnBtClrBuy@CTabRunSignal@@IAEXXZ 10020720 f   TabRunSignal.obj
 0001:0001f730       ?OnBtClrExitlong@CTabRunSignal@@IAEXXZ 10020730 f   TabRunSignal.obj
 0001:0001f740       ?OnBtClrExitshort@CTabRunSignal@@IAEXXZ 10020740 f   TabRunSignal.obj
 0001:0001f750       ?OnBtClrSell@CTabRunSignal@@IAEXXZ 10020750 f   TabRunSignal.obj
 0001:0001f760       ?OnBtnClr@CTabRunSignal@@QAEXAAVCColorButton@@@Z 10020760 f   TabRunSignal.obj
 0001:0001f800       ?OnCtlColor@CTabRunSignal@@IAEPAUHBRUSH__@@PAVCDC@@PAVCWnd@@I@Z 10020800 f   TabRunSignal.obj
 0001:0001f850       ?OnInitDialog@CTabRunSignal@@MAEHXZ 10020850 f   TabRunSignal.obj
 0001:0001f8b0       ?RemoveInfo@CTabRunSignal@@UAEXXZ 100208b0 f   TabRunSignal.obj
 0001:0001f8c0       ?SaveInfo@CTabRunSignal@@UAEHXZ 100208c0 f   TabRunSignal.obj
 0001:0001fb30       ?SetDefault@CTabRunSignal@@UAEXXZ 10020b30 f   TabRunSignal.obj
 0001:0001fc20       ?cmSignal@CConfigHelper@@SAHPAVCComboBox@@H@Z 10020c20 f i TabRunSignal.obj
 0001:0001fcc0       ??0CTabSignal@@QAE@PAVCWnd@@@Z 10020cc0 f   TabSignal.obj
 0001:0001fe10       ??_GCTabSignal@@UAEPAXI@Z  10020e10 f i TabSignal.obj
 0001:0001fe10       ??_ECTabSignal@@UAEPAXI@Z  10020e10 f i TabSignal.obj
 0001:0001fee0       ?DoDataExchange@CTabSignal@@MAEXPAVCDataExchange@@@Z 10020ee0 f   TabSignal.obj
 0001:0001ffc0       ?GetMessageMap@CTabSignal@@MBEPBUAFX_MSGMAP@@XZ 10020fc0 f   TabSignal.obj
 0001:0001ffd0       ?GetThisMessageMap@CTabSignal@@KGPBUAFX_MSGMAP@@XZ 10020fd0 f   TabSignal.obj
 0001:0001ffe0       ?LoadInfo@CTabSignal@@EAEXXZ 10020fe0 f   TabSignal.obj
 0001:000207a0       ?OnBtClrBuy@CTabSignal@@IAEXXZ 100217a0 f   TabSignal.obj
 0001:000207b0       ?OnBtClrExitlong@CTabSignal@@IAEXXZ 100217b0 f   TabSignal.obj
 0001:000207c0       ?OnBtClrExitshort@CTabSignal@@IAEXXZ 100217c0 f   TabSignal.obj
 0001:000207d0       ?OnBtClrSell@CTabSignal@@IAEXXZ 100217d0 f   TabSignal.obj
 0001:000207e0       ?OnBtnClr@CTabSignal@@QAEXAAVCColorButton@@@Z 100217e0 f   TabSignal.obj
 0001:00020880       ?OnCtlColor@CTabSignal@@IAEPAUHBRUSH__@@PAVCDC@@PAVCWnd@@I@Z 10021880 f   TabSignal.obj
 0001:000208d0       ?OnInitDialog@CTabSignal@@MAEHXZ 100218d0 f   TabSignal.obj
 0001:000209e0       ?RemoveInfo@CTabSignal@@EAEXXZ 100219e0 f   TabSignal.obj
 0001:00020b00       ?SaveInfo@CTabSignal@@EAEHXZ 10021b00 f   TabSignal.obj
 0001:00020dd0       ?SetCBSignal@CTabSignal@@AAEXAAVCBitmapItemComboBox@@@Z 10021dd0 f   TabSignal.obj
 0001:00020e90       ?WindowProc@CTabSignal@@MAEJIIJ@Z 10021e90 f   TabSignal.obj
 0001:00020ed0       ??0CTabVariables@@QAE@PAVCWnd@@@Z 10021ed0 f   TabVariables.obj
 0001:00020f90       ??_ECTabVariables@@UAEPAXI@Z 10021f90 f i TabVariables.obj
 0001:00020f90       ??_GCTabVariables@@UAEPAXI@Z 10021f90 f i TabVariables.obj
 0001:00021020       ?CheckWhetherHasSameName@CTabVariables@@IAEHPBD@Z 10022020 f   TabVariables.obj
 0001:000210f0       ?DoDataExchange@CTabVariables@@MAEXPAVCDataExchange@@@Z 100220f0 f   TabVariables.obj
 0001:00021150       ?GetMessageMap@CTabVariables@@MBEPBUAFX_MSGMAP@@XZ 10022150 f   TabVariables.obj
 0001:00021160       ?GetThisMessageMap@CTabVariables@@KGPBUAFX_MSGMAP@@XZ 10022160 f   TabVariables.obj
 0001:00021170       ?InitColumn@CTabVariables@@IAEXXZ 10022170 f   TabVariables.obj
 0001:000212c0       ?LoadInfo@CTabVariables@@MAEXXZ 100222c0 f   TabVariables.obj
 0001:00021610       ?OnBtnAdd@CTabVariables@@IAEXXZ 10022610 f   TabVariables.obj
 0001:000217b0       ?OnBtnDelete@CTabVariables@@IAEXXZ 100227b0 f   TabVariables.obj
 0001:00021810       ?OnCtlColor@CTabVariables@@IAEPAUHBRUSH__@@PAVCDC@@PAVCWnd@@I@Z 10022810 f   TabVariables.obj
 0001:00021860       ?OnInitDialog@CTabVariables@@MAEHXZ 10022860 f   TabVariables.obj
 0001:00021aa0       ?RemoveInfo@CTabVariables@@MAEXXZ 10022aa0 f   TabVariables.obj
 0001:00021bb0       ?SaveInfo@CTabVariables@@MAEHXZ 10022bb0 f   TabVariables.obj
 0001:00021d60       ?WindowProc@CTabVariables@@MAEJIIJ@Z 10022d60 f   TabVariables.obj
 0001:00021d9f       _sndPlaySoundA@8           10022d9f f   Winmm:WINMM.dll
 0001:00021db0       ??0CExDrawButton@@QAE@H@Z  10022db0 f   ExControl:ExDrawButton.obj
 0001:00021e40       ??0CLoaderDrawButton@@QAE@PAXH@Z 10022e40 f i ExControl:ExDrawButton.obj
 0001:00022160       ??1CExDrawButton@@UAE@XZ   10023160 f   ExControl:ExDrawButton.obj
 0001:00022210       ??1CExLoadLib@@QAE@XZ      10023210 f i ExControl:ExDrawButton.obj
 0001:00022230       ??_GCExDrawButton@@UAEPAXI@Z 10023230 f i ExControl:ExDrawButton.obj
 0001:00022230       ??_ECExDrawButton@@UAEPAXI@Z 10023230 f i ExControl:ExDrawButton.obj
 0001:00022300       ?ActionControl@CExDrawButton@@QAEJPAX@Z 10023300 f   ExControl:ExDrawButton.obj
 0001:00022330       ?AddToggleGroup@CExDrawButton@@QAAXPAV1@ZZ 10023330 f   ExControl:ExDrawButton.obj
 0001:000223a0       ?DrawItem@CExDrawButton@@UAEXPAUtagDRAWITEMSTRUCT@@@Z 100233a0 f   ExControl:ExDrawButton.obj
 0001:000223d0       ?GetMessageMap@CExDrawButton@@MBEPBUAFX_MSGMAP@@XZ 100233d0 f   ExControl:ExDrawButton.obj
 0001:000223e0       ?GetText@CExDrawButton@@QAEPBDXZ 100233e0 f   ExControl:ExDrawButton.obj
 0001:00022410       ?GetThisMessageMap@CExDrawButton@@KGPBUAFX_MSGMAP@@XZ 10023410 f   ExControl:ExDrawButton.obj
 0001:00022420       ?GetToggleState@CExDrawButton@@UAEHXZ 10023420 f   ExControl:ExDrawButton.obj
 0001:00022460       ?LoadProcAddress@CExLoadLib@@UAEHXZ 10023460 f i ExControl:ExDrawButton.obj
 0001:00022470       ?LoadProcAddress@CLoaderDrawButton@@UAEHXZ 10023470 f i ExControl:ExDrawButton.obj
 0001:00022540       ?OnClicked@CExDrawButton@@IAEHXZ 10023540 f   ExControl:ExDrawButton.obj
 0001:00022580       ?OnDestroy@CExDrawButton@@IAEXXZ 10023580 f   ExControl:ExDrawButton.obj
 0001:00022590       ?PreSubclassWindow@CExDrawButton@@MAEXXZ 10023590 f   ExControl:ExDrawButton.obj
 0001:000225c0       ?ReleasePushed@CExDrawButton@@UAEXXZ 100235c0 f   ExControl:ExDrawButton.obj
 0001:00022600       ?SetButtonColor@CExDrawButton@@QAEHI@Z 10023600 f   ExControl:ExDrawButton.obj
 0001:00022630       ?SetIconImage@CExDrawButton@@QAEHVCSize@@PAUHICON__@@1I@Z 10023630 f   ExControl:ExDrawButton.obj
 0001:00022670       ?SetText@CExDrawButton@@QAEXPBD@Z 10023670 f   ExControl:ExDrawButton.obj
 0001:000226a0       ?SetToggleState@CExDrawButton@@UAEXH@Z 100236a0 f   ExControl:ExDrawButton.obj
 0001:000226f0       ?UseToggleMode@CExDrawButton@@UAEXH@Z 100236f0 f   ExControl:ExDrawButton.obj
 0001:00022740       ??0CExEdit@@QAE@H@Z        10023740 f   ExControl:ExEdit.obj
 0001:000227e0       ??0CLoaderEdit@@QAE@PAXH@Z 100237e0 f i ExControl:ExEdit.obj
 0001:00022a90       ??1CExEdit@@UAE@XZ         10023a90 f   ExControl:ExEdit.obj
 0001:00022ac0       ??1CLoaderEdit@@UAE@XZ     10023ac0 f i ExControl:ExEdit.obj
 0001:00022b40       ??_GCExEdit@@UAEPAXI@Z     10023b40 f i ExControl:ExEdit.obj
 0001:00022b40       ??_ECExEdit@@UAEPAXI@Z     10023b40 f i ExControl:ExEdit.obj
 0001:00022ba0       ??_GCLoaderEdit@@UAEPAXI@Z 10023ba0 f i ExControl:ExEdit.obj
 0001:00022ba0       ??_ECLoaderEdit@@UAEPAXI@Z 10023ba0 f i ExControl:ExEdit.obj
 0001:00022c40       ?ActionControl@CExEdit@@QAEJPAX@Z 10023c40 f   ExControl:ExEdit.obj
 0001:00022c70       ?GetMessageMap@CExEdit@@MBEPBUAFX_MSGMAP@@XZ 10023c70 f   ExControl:ExEdit.obj
 0001:00022c80       ?GetRuntimeClass@CExEdit@@UBEPAUCRuntimeClass@@XZ 10023c80 f   ExControl:ExEdit.obj
 0001:00022c90       ?GetThisClass@CExEdit@@SGPAUCRuntimeClass@@XZ 10023c90 f   ExControl:ExEdit.obj
 0001:00022ca0       ?GetThisMessageMap@CExEdit@@KGPBUAFX_MSGMAP@@XZ 10023ca0 f   ExControl:ExEdit.obj
 0001:00022cb0       ?LoadProcAddress@CLoaderEdit@@UAEHXZ 10023cb0 f i ExControl:ExEdit.obj
 0001:00022d40       ?OnChar@CExEdit@@IAEXIII@Z 10023d40 f   ExControl:ExEdit.obj
 0001:00022d70       ?OnPaint@CExEdit@@IAEXXZ   10023d70 f   ExControl:ExEdit.obj
 0001:00022da0       ?PreSubclassWindow@CExEdit@@MAEXXZ 10023da0 f   ExControl:ExEdit.obj
 0001:00022dc0       ?PreTranslateMessage@CExEdit@@UAEHPAUtagMSG@@@Z 10023dc0 f   ExControl:ExEdit.obj
 0001:00022dd0       ?UseNumericType@CExEdit@@QAEXH@Z 10023dd0 f   ExControl:ExEdit.obj
 0001:00022e00       ?_GetBaseClass@CExEdit@@KGPAUCRuntimeClass@@XZ 10023e00 f   ExControl:ExEdit.obj
 0001:00022e10       ??0CExComboBox@@QAE@H@Z    10023e10 f   ExControl:ExComboBox.obj
 0001:00022eb0       ??0CLoaderComboBox@@QAE@PAXH@Z 10023eb0 f i ExControl:ExComboBox.obj
 0001:000231a0       ??1CExComboBox@@UAE@XZ     100241a0 f   ExControl:ExComboBox.obj
 0001:000231d0       ??1CLoaderComboBox@@UAE@XZ 100241d0 f i ExControl:ExComboBox.obj
 0001:00023250       ??_ECExComboBox@@UAEPAXI@Z 10024250 f i ExControl:ExComboBox.obj
 0001:00023250       ??_GCExComboBox@@UAEPAXI@Z 10024250 f i ExControl:ExComboBox.obj
 0001:000232b0       ??_ECLoaderComboBox@@UAEPAXI@Z 100242b0 f i ExControl:ExComboBox.obj
 0001:000232b0       ??_GCLoaderComboBox@@UAEPAXI@Z 100242b0 f i ExControl:ExComboBox.obj
 0001:00023350       ?CreateObject@CExComboBox@@SGPAVCObject@@XZ 10024350 f   ExControl:ExComboBox.obj
 0001:00023410       ?DrawItem@CExComboBox@@UAEXPAUtagDRAWITEMSTRUCT@@@Z 10024410 f   ExControl:ExComboBox.obj
 0001:00023440       ?GetMessageMap@CExComboBox@@MBEPBUAFX_MSGMAP@@XZ 10024440 f   ExControl:ExComboBox.obj
 0001:00023450       ?GetRuntimeClass@CExComboBox@@UBEPAUCRuntimeClass@@XZ 10024450 f   ExControl:ExComboBox.obj
 0001:00023460       ?GetThisClass@CExComboBox@@SGPAUCRuntimeClass@@XZ 10024460 f   ExControl:ExComboBox.obj
 0001:00023470       ?GetThisMessageMap@CExComboBox@@KGPBUAFX_MSGMAP@@XZ 10024470 f   ExControl:ExComboBox.obj
 0001:00023480       ?LoadProcAddress@CLoaderComboBox@@UAEHXZ 10024480 f i ExControl:ExComboBox.obj
 0001:00023550       ?OnLButtonDown@CExComboBox@@IAEXIVCPoint@@@Z 10024550 f   ExControl:ExComboBox.obj
 0001:00023580       ?OnLButtonUp@CExComboBox@@IAEXIVCPoint@@@Z 10024580 f   ExControl:ExComboBox.obj
 0001:000235b0       ?OnMouseMove@CExComboBox@@IAEXIVCPoint@@@Z 100245b0 f   ExControl:ExComboBox.obj
 0001:000235e0       ?OnPaint@CExComboBox@@IAEXXZ 100245e0 f   ExControl:ExComboBox.obj
 0001:00023610       ?OnTimer@CExComboBox@@IAEXI@Z 10024610 f   ExControl:ExComboBox.obj
 0001:00023640       ?PreSubclassWindow@CExComboBox@@MAEXXZ 10024640 f   ExControl:ExComboBox.obj
 0001:00023660       ?_GetBaseClass@CExComboBox@@KGPAUCRuntimeClass@@XZ 10024660 f   ExControl:ExComboBox.obj
 0001:00023670       ??0CExButton@@QAE@XZ       10024670 f   ExControl:ExButton.obj
 0001:000236a0       ??1CExButton@@UAE@XZ       100246a0 f   ExControl:ExButton.obj
 0001:000236b0       ??_GCExButton@@UAEPAXI@Z   100246b0 f i ExControl:ExButton.obj
 0001:000236b0       ??_ECExButton@@UAEPAXI@Z   100246b0 f i ExControl:ExButton.obj
 0001:00023700       ?DrawItem@CExButton@@UAEXPAUtagDRAWITEMSTRUCT@@@Z 10024700 f   ExControl:ExButton.obj
 0001:00023710       ?GetMessageMap@CExButton@@MBEPBUAFX_MSGMAP@@XZ 10024710 f   ExControl:ExButton.obj
 0001:00023720       ?GetThisMessageMap@CExButton@@KGPBUAFX_MSGMAP@@XZ 10024720 f   ExControl:ExButton.obj
 0001:00023730       ?PreSubclassWindow@CExButton@@MAEXXZ 10024730 f   ExControl:ExButton.obj
 0001:00023760       ?Serialize@?$CArray@PAXPAX@@UAEXAAVCArchive@@@Z 10024760 f i ExControl:StdAfx.obj
 0001:00023840       ??_E?$CArray@PAXPAX@@UAEPAXI@Z 10024840 f i ExControl:StdAfx.obj
 0001:00023840       ??_G?$CArray@PAXPAX@@UAEPAXI@Z 10024840 f i ExControl:StdAfx.obj
 0001:00023890       ??$SerializeElements@PAX@@YGXAAVCArchive@@PAPAXH@Z 10024890 f i ExControl:StdAfx.obj
 0001:00023940       ??0?$CArray@PAXPAX@@QAE@XZ 10024940 f i ExControl:StdAfx.obj
 0001:00023970       ??1?$CArray@PAXPAX@@UAE@XZ 10024970 f i ExControl:StdAfx.obj
 0001:00023990       ?CompareParamter@@YAHPADV?$CStringT@DV?$StrTraitMFC_DLL@DV?$ChTraitsCRT@D@ATL@@@@@ATL@@@Z 10024990 f   ExControl:StdAfx.obj
 0001:00023a50       ?CreateObject@?$CThreadLocal@VAFX_MODULE_THREAD_STATE@@@@SGPAVCNoTrackObject@@XZ 10024a50 f i ExControl:StdAfx.obj
 0001:00023ac0       ?GetParamterValue@@YAXPBDAAV?$CStringT@DV?$StrTraitMFC_DLL@DV?$ChTraitsCRT@D@ATL@@@@@ATL@@V12@@Z 10024ac0 f   ExControl:StdAfx.obj
 0001:00023bb0       ?RemovePermanentHandle@@YAXPAX@Z 10024bb0 f   ExControl:StdAfx.obj
 0001:00023bf0       ?SetAtGrow@?$CArray@PAXPAX@@QAEXHPAX@Z 10024bf0 f i ExControl:StdAfx.obj
 0001:00023c30       ?SetPermanentHandle@@YAXPAXPAVCObject@@@Z 10024c30 f   ExControl:StdAfx.obj
 0001:00023d00       ?SetSize@?$CArray@PAXPAX@@QAEXHH@Z 10024d00 f i ExControl:StdAfx.obj
 0001:00023edc       ??3@YAXPAX@Z               10024edc f   mfc140:mfc140.dll
 0001:00023ee2       ??0?$CStringT@DV?$StrTraitMFC_DLL@DV?$ChTraitsCRT@D@ATL@@@@@ATL@@QAE@XZ 10024ee2 f   mfc140:mfc140.dll
 0001:00023ee8       ??1?$CStringT@DV?$StrTraitMFC_DLL@DV?$ChTraitsCRT@D@ATL@@@@@ATL@@QAE@XZ 10024ee8 f   mfc140:mfc140.dll
 0001:00023eee       ?Format@?$CStringT@DV?$StrTraitMFC_DLL@DV?$ChTraitsCRT@D@ATL@@@@@ATL@@QAAXPBDZZ 10024eee f   mfc140:mfc140.dll
 0001:00023ef4       ?GetRuntimeClass@CGdiObject@@UBEPAUCRuntimeClass@@XZ 10024ef4 f   mfc140:mfc140.dll
 0001:00023efa       ?DeleteObject@CGdiObject@@QAEHXZ 10024efa f   mfc140:mfc140.dll
 0001:00023f00       ?GetRuntimeClass@CBrush@@UBEPAUCRuntimeClass@@XZ 10024f00 f   mfc140:mfc140.dll
 0001:00023f06       ??0CBrush@@QAE@K@Z         10024f06 f   mfc140:mfc140.dll
 0001:00023f0c       ?GetRuntimeClass@CBitmap@@UBEPAUCRuntimeClass@@XZ 10024f0c f   mfc140:mfc140.dll
 0001:00023f12       ?FromHandle@CDC@@SGPAV1@PAUHDC__@@@Z 10024f12 f   mfc140:mfc140.dll
 0001:00023f18       ?Attach@CDC@@QAEHPAUHDC__@@@Z 10024f18 f   mfc140:mfc140.dll
 0001:00023f1e       ??0CDC@@QAE@XZ             10024f1e f   mfc140:mfc140.dll
 0001:00023f24       ??1CDC@@UAE@XZ             10024f24 f   mfc140:mfc140.dll
 0001:00023f2a       ?SelectGdiObject@CDC@@KGPAVCGdiObject@@PAUHDC__@@PAX@Z 10024f2a f   mfc140:mfc140.dll
 0001:00023f30       ?OnCmdMsg@CCmdTarget@@UAEHIHPAXPAUAFX_CMDHANDLERINFO@@@Z 10024f30 f   mfc140:mfc140.dll
 0001:00023f36       ?IsInvokeAllowed@CCmdTarget@@UAEHJ@Z 10024f36 f   mfc140:mfc140.dll
 0001:00023f3c       ?GetDispatchIID@CCmdTarget@@UAEHPAU_GUID@@@Z 10024f3c f   mfc140:mfc140.dll
 0001:00023f42       ?GetTypeInfoCount@CCmdTarget@@UAEIXZ 10024f42 f   mfc140:mfc140.dll
 0001:00023f48       ?GetTypeLibCache@CCmdTarget@@UAEPAVCTypeLibCache@@XZ 10024f48 f   mfc140:mfc140.dll
 0001:00023f4e       ?GetTypeLib@CCmdTarget@@UAEJKPAPAUITypeLib@@@Z 10024f4e f   mfc140:mfc140.dll
 0001:00023f54       ?GetCommandMap@CCmdTarget@@MBEPBUAFX_OLECMDMAP@@XZ 10024f54 f   mfc140:mfc140.dll
 0001:00023f5a       ?GetDispatchMap@CCmdTarget@@MBEPBUAFX_DISPMAP@@XZ 10024f5a f   mfc140:mfc140.dll
 0001:00023f60       ?GetConnectionMap@CCmdTarget@@MBEPBUAFX_CONNECTIONMAP@@XZ 10024f60 f   mfc140:mfc140.dll
 0001:00023f66       ?GetEventSinkMap@CCmdTarget@@MBEPBUAFX_EVENTSINKMAP@@XZ 10024f66 f   mfc140:mfc140.dll
 0001:00023f6c       ?OnCreateAggregates@CCmdTarget@@UAEHXZ 10024f6c f   mfc140:mfc140.dll
 0001:00023f72       ?GetInterfaceHook@CCmdTarget@@UAEPAUIUnknown@@PBX@Z 10024f72 f   mfc140:mfc140.dll
 0001:00023f78       ?GetExtraConnectionPoints@CCmdTarget@@MAEHPAVCPtrArray@@@Z 10024f78 f   mfc140:mfc140.dll
 0001:00023f7e       ?GetConnectionHook@CCmdTarget@@MAEPAUIConnectionPoint@@ABU_GUID@@@Z 10024f7e f   mfc140:mfc140.dll
 0001:00023f84       ??0CWnd@@QAE@XZ            10024f84 f   mfc140:mfc140.dll
 0001:00023f8a       ?PreSubclassWindow@CWnd@@UAEXXZ 10024f8a f   mfc140:mfc140.dll
 0001:00023f90       ?Create@CWnd@@UAEHPBD0KABUtagRECT@@PAV1@IPAUCCreateContext@@@Z 10024f90 f   mfc140:mfc140.dll
 0001:00023f96       ?CreateEx@CWnd@@UAEHKPBD0KHHHHPAUHWND__@@PAUHMENU__@@PAX@Z 10024f96 f   mfc140:mfc140.dll
 0001:00023f9c       ?CreateEx@CWnd@@UAEHKPBD0KABUtagRECT@@PAV1@IPAX@Z 10024f9c f   mfc140:mfc140.dll
 0001:00023fa2       ?DestroyWindow@CWnd@@UAEHXZ 10024fa2 f   mfc140:mfc140.dll
 0001:00023fa8       ?PreCreateWindow@CWnd@@UAEHAAUtagCREATESTRUCTA@@@Z 10024fa8 f   mfc140:mfc140.dll
 0001:00023fae       ?CalcWindowRect@CWnd@@UAEXPAUtagRECT@@I@Z 10024fae f   mfc140:mfc140.dll
 0001:00023fb4       ?GetMenu@CWnd@@UBEPAVCMenu@@XZ 10024fb4 f   mfc140:mfc140.dll
 0001:00023fba       ?SetMenu@CWnd@@UAEHPAVCMenu@@@Z 10024fba f   mfc140:mfc140.dll
 0001:00023fc0       ?OnToolHitTest@CWnd@@UBEHVCPoint@@PAUtagTOOLINFOA@@@Z 10024fc0 f   mfc140:mfc140.dll
 0001:00023fc6       ?GetScrollBarCtrl@CWnd@@UBEPAVCScrollBar@@H@Z 10024fc6 f   mfc140:mfc140.dll
 0001:00023fcc       ?WinHelpA@CWnd@@UAEXKI@Z   10024fcc f   mfc140:mfc140.dll
 0001:00023fd2       ?HtmlHelpA@CWnd@@UAEXKI@Z  10024fd2 f   mfc140:mfc140.dll
 0001:00023fd8       ?WinHelpInternal@CWnd@@UAEXKI@Z 10024fd8 f   mfc140:mfc140.dll
 0001:00023fde       ?ContinueModal@CWnd@@UAEHXZ 10024fde f   mfc140:mfc140.dll
 0001:00023fe4       ?EndModalLoop@CWnd@@UAEXH@Z 10024fe4 f   mfc140:mfc140.dll
 0001:00023fea       ?OnDrawIconicThumbnailOrLivePreview@CWnd@@UAEXAAVCDC@@VCRect@@VCSize@@HAAH@Z 10024fea f   mfc140:mfc140.dll
 0001:00023ff0       ?GetInterfaceMap@CWnd@@MBEPBUAFX_INTERFACEMAP@@XZ 10024ff0 f   mfc140:mfc140.dll
 0001:00023ff6       ?EnsureStdObj@CWnd@@UAEJXZ 10024ff6 f   mfc140:mfc140.dll
 0001:00023ffe       ?get_accParent@CWnd@@UAEJPAPAUIDispatch@@@Z 10024ffe f   mfc140:mfc140.dll
 0001:00024004       ?get_accChildCount@CWnd@@UAEJPAJ@Z 10025004 f   mfc140:mfc140.dll
 0001:0002400a       ?get_accChild@CWnd@@UAEJUtagVARIANT@@PAPAUIDispatch@@@Z 1002500a f   mfc140:mfc140.dll
 0001:00024010       ?get_accName@CWnd@@UAEJUtagVARIANT@@PAPA_W@Z 10025010 f   mfc140:mfc140.dll
 0001:00024016       ?get_accValue@CWnd@@UAEJUtagVARIANT@@PAPA_W@Z 10025016 f   mfc140:mfc140.dll
 0001:0002401c       ?get_accDescription@CWnd@@UAEJUtagVARIANT@@PAPA_W@Z 1002501c f   mfc140:mfc140.dll
 0001:00024022       ?get_accRole@CWnd@@UAEJUtagVARIANT@@PAU2@@Z 10025022 f   mfc140:mfc140.dll
 0001:00024028       ?get_accState@CWnd@@UAEJUtagVARIANT@@PAU2@@Z 10025028 f   mfc140:mfc140.dll
 0001:0002402e       ?get_accHelp@CWnd@@UAEJUtagVARIANT@@PAPA_W@Z 1002502e f   mfc140:mfc140.dll
 0001:00024034       ?get_accHelpTopic@CWnd@@UAEJPAPA_WUtagVARIANT@@PAJ@Z 10025034 f   mfc140:mfc140.dll
 0001:0002403a       ?get_accKeyboardShortcut@CWnd@@UAEJUtagVARIANT@@PAPA_W@Z 1002503a f   mfc140:mfc140.dll
 0001:00024040       ?get_accFocus@CWnd@@UAEJPAUtagVARIANT@@@Z 10025040 f   mfc140:mfc140.dll
 0001:00024046       ?get_accSelection@CWnd@@UAEJPAUtagVARIANT@@@Z 10025046 f   mfc140:mfc140.dll
 0001:0002404c       ?get_accDefaultAction@CWnd@@UAEJUtagVARIANT@@PAPA_W@Z 1002504c f   mfc140:mfc140.dll
 0001:00024052       ?accSelect@CWnd@@UAEJJUtagVARIANT@@@Z 10025052 f   mfc140:mfc140.dll
 0001:00024058       ?accLocation@CWnd@@UAEJPAJ000UtagVARIANT@@@Z 10025058 f   mfc140:mfc140.dll
 0001:0002405e       ?accNavigate@CWnd@@UAEJJUtagVARIANT@@PAU2@@Z 1002505e f   mfc140:mfc140.dll
 0001:00024064       ?accHitTest@CWnd@@UAEJJJPAUtagVARIANT@@@Z 10025064 f   mfc140:mfc140.dll
 0001:0002406a       ?accDoDefaultAction@CWnd@@UAEJUtagVARIANT@@@Z 1002506a f   mfc140:mfc140.dll
 0001:00024070       ?put_accName@CWnd@@UAEJUtagVARIANT@@PA_W@Z 10025070 f   mfc140:mfc140.dll
 0001:00024076       ?put_accValue@CWnd@@UAEJUtagVARIANT@@PA_W@Z 10025076 f   mfc140:mfc140.dll
 0001:0002407c       ?SetProxy@CWnd@@UAEJPAUIAccessibleProxy@@@Z 1002507c f   mfc140:mfc140.dll
 0001:00024082       ?CreateAccessibleProxy@CWnd@@UAEJIJPAJ@Z 10025082 f   mfc140:mfc140.dll
 0001:00024088       ?OnCommand@CWnd@@MAEHIJ@Z  10025088 f   mfc140:mfc140.dll
 0001:0002408e       ?OnNotify@CWnd@@MAEHIJPAJ@Z 1002508e f   mfc140:mfc140.dll
 0001:00024094       ?GetSuperWndProcAddr@CWnd@@MAEPAP6GJPAUHWND__@@IIJ@ZXZ 10025094 f   mfc140:mfc140.dll
 0001:0002409a       ?PreTranslateMessage@CWnd@@UAEHPAUtagMSG@@@Z 1002509a f   mfc140:mfc140.dll
 0001:000240a0       ?OnAmbientProperty@CWnd@@UAEHPAVCOleControlSite@@JPAUtagVARIANT@@@Z 100250a0 f   mfc140:mfc140.dll
 0001:000240a6       ?WindowProc@CWnd@@MAEJIIJ@Z 100250a6 f   mfc140:mfc140.dll
 0001:000240ac       ?OnWndMsg@CWnd@@MAEHIIJPAJ@Z 100250ac f   mfc140:mfc140.dll
 0001:000240b2       ?DefWindowProcA@CWnd@@MAEJIIJ@Z 100250b2 f   mfc140:mfc140.dll
 0001:000240b8       ?PostNcDestroy@CWnd@@MAEXXZ 100250b8 f   mfc140:mfc140.dll
 0001:000240be       ?OnTouchInputs@CWnd@@MAEHIPAUtagTOUCHINPUT@@@Z 100250be f   mfc140:mfc140.dll
 0001:000240c4       ?OnTouchInput@CWnd@@MAEHVCPoint@@HHPAUtagTOUCHINPUT@@@Z 100250c4 f   mfc140:mfc140.dll
 0001:000240ca       ?GetGestureStatus@CWnd@@MAEKVCPoint@@@Z 100250ca f   mfc140:mfc140.dll
 0001:000240d0       ?OnGestureZoom@CWnd@@MAEHVCPoint@@J@Z 100250d0 f   mfc140:mfc140.dll
 0001:000240d6       ?OnGesturePan@CWnd@@MAEHVCPoint@@0@Z 100250d6 f   mfc140:mfc140.dll
 0001:000240dc       ?OnGestureRotate@CWnd@@MAEHVCPoint@@N@Z 100250dc f   mfc140:mfc140.dll
 0001:000240e2       ?OnGestureTwoFingerTap@CWnd@@MAEHVCPoint@@@Z 100250e2 f   mfc140:mfc140.dll
 0001:000240e8       ?OnGesturePressAndTap@CWnd@@MAEHVCPoint@@J@Z 100250e8 f   mfc140:mfc140.dll
 0001:000240ee       ?ResizeDynamicLayout@CWnd@@MAEXXZ 100250ee f   mfc140:mfc140.dll
 0001:000240f4       ?CheckAutoCenter@CWnd@@UAEHXZ 100250f4 f   mfc140:mfc140.dll
 0001:000240fa       ?IsFrameWnd@CWnd@@UBEHXZ   100250fa f   mfc140:mfc140.dll
 0001:00024100       ?OnFinalRelease@CWnd@@UAEXXZ 10025100 f   mfc140:mfc140.dll
 0001:00024106       ?CreateControlContainer@CWnd@@MAEHPAPAVCOleControlContainer@@@Z 10025106 f   mfc140:mfc140.dll
 0001:0002410c       ?CreateControlSite@CWnd@@MAEHPAVCOleControlContainer@@PAPAVCOleControlSite@@IABU_GUID@@@Z 1002510c f   mfc140:mfc140.dll
 0001:00024112       ?SetOccDialogInfo@CWnd@@MAEHPAU_AFX_OCC_DIALOG_INFO@@@Z 10025112 f   mfc140:mfc140.dll
 0001:00024118       ?GetOccDialogInfo@CWnd@@MAEPAU_AFX_OCC_DIALOG_INFO@@XZ 10025118 f   mfc140:mfc140.dll
 0001:0002411e       ?GetThisMessageMap@CWnd@@KGPBUAFX_MSGMAP@@XZ 1002511e f   mfc140:mfc140.dll
 0001:00024124       ?GetMessageMap@CWnd@@MBEPBUAFX_MSGMAP@@XZ 10025124 f   mfc140:mfc140.dll
 0001:0002412a       ?GetRuntimeClass@CComboBox@@UBEPAUCRuntimeClass@@XZ 1002512a f   mfc140:mfc140.dll
 0001:00024130       ?Create@CComboBox@@UAEHKABUtagRECT@@PAVCWnd@@I@Z 10025130 f   mfc140:mfc140.dll
 0001:00024136       ?DrawItem@CComboBox@@UAEXPAUtagDRAWITEMSTRUCT@@@Z 10025136 f   mfc140:mfc140.dll
 0001:0002413c       ?MeasureItem@CComboBox@@UAEXPAUtagMEASUREITEMSTRUCT@@@Z 1002513c f   mfc140:mfc140.dll
 0001:00024142       ?CompareItem@CComboBox@@UAEHPAUtagCOMPAREITEMSTRUCT@@@Z 10025142 f   mfc140:mfc140.dll
 0001:00024148       ?DeleteItem@CComboBox@@UAEXPAUtagDELETEITEMSTRUCT@@@Z 10025148 f   mfc140:mfc140.dll
 0001:0002414e       ??1CComboBox@@UAE@XZ       1002514e f   mfc140:mfc140.dll
 0001:00024154       ?OnChildNotify@CComboBox@@MAEHIIJPAJ@Z 10025154 f   mfc140:mfc140.dll
 0001:0002415a       ?AfxMessageBox@@YGHPBDII@Z 1002515a f   mfc140:mfc140.dll
 0001:00024160       ?Concatenate@?$CSimpleStringT@D$00@ATL@@KAXAAV12@PBDH1H@Z 10025160 f   mfc140:mfc140.dll
 0001:00024166       ??0?$CStringT@DV?$StrTraitMFC_DLL@DV?$ChTraitsCRT@D@ATL@@@@@ATL@@QAE@PAUIAtlStringMgr@1@@Z 10025166 f   mfc140:mfc140.dll
 0001:0002416c       ??0?$CStringT@DV?$StrTraitMFC_DLL@DV?$ChTraitsCRT@D@ATL@@@@@ATL@@QAE@ABV01@@Z 1002516c f   mfc140:mfc140.dll
 0001:00024172       ??0?$CStringT@DV?$StrTraitMFC_DLL@DV?$ChTraitsCRT@D@ATL@@@@@ATL@@QAE@PBD@Z 10025172 f   mfc140:mfc140.dll
 0001:00024178       ??4?$CStringT@DV?$StrTraitMFC_DLL@DV?$ChTraitsCRT@D@ATL@@@@@ATL@@QAEAAV01@ABV01@@Z 10025178 f   mfc140:mfc140.dll
 0001:0002417e       ??Y?$CStringT@DV?$StrTraitMFC_DLL@DV?$ChTraitsCRT@D@ATL@@@@@ATL@@QAEAAV01@ABV?$CSimpleStringT@D$00@1@@Z 1002517e f   mfc140:mfc140.dll
 0001:00024184       ?GetManager@?$CStringT@DV?$StrTraitMFC_DLL@DV?$ChTraitsCRT@D@ATL@@@@@ATL@@QBEPAUIAtlStringMgr@2@XZ 10025184 f   mfc140:mfc140.dll
 0001:0002418a       ??4?$CStringT@DV?$StrTraitMFC_DLL@DV?$ChTraitsCRT@D@ATL@@@@@ATL@@QAEAAV01@PBD@Z 1002518a f   mfc140:mfc140.dll
 0001:00024190       ?SelectObject@CDC@@QAEPAVCBrush@@PAV2@@Z 10025190 f   mfc140:mfc140.dll
 0001:00024196       ?EnableWindow@CWnd@@QAEHH@Z 10025196 f   mfc140:mfc140.dll
 0001:0002419c       ?GetRuntimeClass@CButton@@UBEPAUCRuntimeClass@@XZ 1002519c f   mfc140:mfc140.dll
 0001:000241a2       ?Create@CButton@@UAEHPBDKABUtagRECT@@PAVCWnd@@I@Z 100251a2 f   mfc140:mfc140.dll
 0001:000241a8       ?DrawItem@CButton@@UAEXPAUtagDRAWITEMSTRUCT@@@Z 100251a8 f   mfc140:mfc140.dll
 0001:000241ae       ??1CButton@@UAE@XZ         100251ae f   mfc140:mfc140.dll
 0001:000241b4       ?OnChildNotify@CButton@@MAEHIIJPAJ@Z 100251b4 f   mfc140:mfc140.dll
 0001:000241ba       ??A?$CSimpleStringT@D$00@ATL@@QBEDH@Z 100251ba f   mfc140:mfc140.dll
 0001:000241c0       ?Empty@?$CSimpleStringT@D$00@ATL@@QAEXXZ 100251c0 f   mfc140:mfc140.dll
 0001:000241c6       ??Y?$CStringT@DV?$StrTraitMFC_DLL@DV?$ChTraitsCRT@D@ATL@@@@@ATL@@QAEAAV01@PBD@Z 100251c6 f   mfc140:mfc140.dll
 0001:000241cc       ??Y?$CStringT@DV?$StrTraitMFC_DLL@DV?$ChTraitsCRT@D@ATL@@@@@ATL@@QAEAAV01@D@Z 100251cc f   mfc140:mfc140.dll
 0001:000241d2       ?Compare@?$CStringT@DV?$StrTraitMFC_DLL@DV?$ChTraitsCRT@D@ATL@@@@@ATL@@QBEHPBD@Z 100251d2 f   mfc140:mfc140.dll
 0001:000241d8       ?Delete@?$CStringT@DV?$StrTraitMFC_DLL@DV?$ChTraitsCRT@D@ATL@@@@@ATL@@QAEHHH@Z 100251d8 f   mfc140:mfc140.dll
 0001:000241de       ?Replace@?$CStringT@DV?$StrTraitMFC_DLL@DV?$ChTraitsCRT@D@ATL@@@@@ATL@@QAEHPBD0@Z 100251de f   mfc140:mfc140.dll
 0001:000241e4       ?Remove@?$CStringT@DV?$StrTraitMFC_DLL@DV?$ChTraitsCRT@D@ATL@@@@@ATL@@QAEHD@Z 100251e4 f   mfc140:mfc140.dll
 0001:000241ea       ?Find@?$CStringT@DV?$StrTraitMFC_DLL@DV?$ChTraitsCRT@D@ATL@@@@@ATL@@QBEHDH@Z 100251ea f   mfc140:mfc140.dll
 0001:000241f0       ?Find@?$CStringT@DV?$StrTraitMFC_DLL@DV?$ChTraitsCRT@D@ATL@@@@@ATL@@QBEHPBDH@Z 100251f0 f   mfc140:mfc140.dll
 0001:000241f6       ?TrimRight@?$CStringT@DV?$StrTraitMFC_DLL@DV?$ChTraitsCRT@D@ATL@@@@@ATL@@QAEAAV12@XZ 100251f6 f   mfc140:mfc140.dll
 0001:000241fc       ?TrimLeft@?$CStringT@DV?$StrTraitMFC_DLL@DV?$ChTraitsCRT@D@ATL@@@@@ATL@@QAEAAV12@XZ 100251fc f   mfc140:mfc140.dll
 0001:00024202       ?TrimRight@?$CStringT@DV?$StrTraitMFC_DLL@DV?$ChTraitsCRT@D@ATL@@@@@ATL@@QAEAAV12@PBD@Z 10025202 f   mfc140:mfc140.dll
 0001:00024208       ?TrimLeft@?$CStringT@DV?$StrTraitMFC_DLL@DV?$ChTraitsCRT@D@ATL@@@@@ATL@@QAEAAV12@D@Z 10025208 f   mfc140:mfc140.dll
 0001:0002420e       ?Mid@?$CStringT@DV?$StrTraitMFC_DLL@DV?$ChTraitsCRT@D@ATL@@@@@ATL@@QBE?AV12@HH@Z 1002520e f   mfc140:mfc140.dll
 0001:00024214       ?Right@?$CStringT@DV?$StrTraitMFC_DLL@DV?$ChTraitsCRT@D@ATL@@@@@ATL@@QBE?AV12@H@Z 10025214 f   mfc140:mfc140.dll
 0001:0002421a       ?Left@?$CStringT@DV?$StrTraitMFC_DLL@DV?$ChTraitsCRT@D@ATL@@@@@ATL@@QBE?AV12@H@Z 1002521a f   mfc140:mfc140.dll
 0001:00024220       ?Attach@CGdiObject@@QAEHPAX@Z 10025220 f   mfc140:mfc140.dll
 0001:00024226       ?GetRuntimeClass@CRgn@@UBEPAUCRuntimeClass@@XZ 10025226 f   mfc140:mfc140.dll
 0001:0002422c       ?SelectClipRgn@CDC@@QAEHPAVCRgn@@@Z 1002522c f   mfc140:mfc140.dll
 0001:00024232       ??0?$CStringT@DV?$StrTraitMFC_DLL@DV?$ChTraitsCRT@D@ATL@@@@@ATL@@QAE@DH@Z 10025232 f   mfc140:mfc140.dll
 0001:00024238       ?GetStyle@CWnd@@QBEKXZ     10025238 f   mfc140:mfc140.dll
 0001:0002423e       ?FromHandle@CWnd@@SGPAV1@PAUHWND__@@@Z 1002523e f   mfc140:mfc140.dll
 0001:00024244       ?SetWindowTextA@CWnd@@QAEXPBD@Z 10025244 f   mfc140:mfc140.dll
 0001:0002424a       ?GetWindowTextA@CWnd@@QBEXAAV?$CStringT@DV?$StrTraitMFC_DLL@DV?$ChTraitsCRT@D@ATL@@@@@ATL@@@Z 1002524a f   mfc140:mfc140.dll
 0001:00024250       ?Default@CWnd@@IAEJXZ      10025250 f   mfc140:mfc140.dll
 0001:00024256       ?OnChildNotify@CWnd@@MAEHIIJPAJ@Z 10025256 f   mfc140:mfc140.dll
 0001:0002425c       ?GetRuntimeClass@CEdit@@UBEPAUCRuntimeClass@@XZ 1002525c f   mfc140:mfc140.dll
 0001:00024262       ??1CEdit@@UAE@XZ           10025262 f   mfc140:mfc140.dll
 0001:00024268       ??2@YAPAXI@Z               10025268 f   mfc140:mfc140.dll
 0001:0002426e       ?FromHandle@CGdiObject@@SGPAV1@PAX@Z 1002526e f   mfc140:mfc140.dll
 0001:00024274       ?GetRuntimeClass@CPen@@UBEPAUCRuntimeClass@@XZ 10025274 f   mfc140:mfc140.dll
 0001:0002427a       ??0CPen@@QAE@HHK@Z         1002527a f   mfc140:mfc140.dll
 0001:00024280       ?GetRuntimeClass@CDC@@UBEPAUCRuntimeClass@@XZ 10025280 f   mfc140:mfc140.dll
 0001:00024286       ?SetAttribDC@CDC@@UAEXPAUHDC__@@@Z 10025286 f   mfc140:mfc140.dll
 0001:0002428c       ?SetOutputDC@CDC@@UAEXPAUHDC__@@@Z 1002528c f   mfc140:mfc140.dll
 0001:00024292       ?ReleaseAttribDC@CDC@@UAEXXZ 10025292 f   mfc140:mfc140.dll
 0001:00024298       ?ReleaseOutputDC@CDC@@UAEXXZ 10025298 f   mfc140:mfc140.dll
 0001:0002429e       ?SaveDC@CDC@@UAEHXZ        1002529e f   mfc140:mfc140.dll
 0001:000242a4       ?RestoreDC@CDC@@UAEHH@Z    100252a4 f   mfc140:mfc140.dll
 0001:000242aa       ?SelectStockObject@CDC@@UAEPAVCGdiObject@@H@Z 100252aa f   mfc140:mfc140.dll
 0001:000242b0       ?SelectObject@CDC@@QAEPAVCPen@@PAV2@@Z 100252b0 f   mfc140:mfc140.dll
 0001:000242b6       ?SelectObject@CDC@@UAEPAVCFont@@PAV2@@Z 100252b6 f   mfc140:mfc140.dll
 0001:000242bc       ?SetBkColor@CDC@@UAEKK@Z   100252bc f   mfc140:mfc140.dll
 0001:000242c2       ?SetTextColor@CDC@@UAEKK@Z 100252c2 f   mfc140:mfc140.dll
 0001:000242c8       ?SetMapMode@CDC@@UAEHH@Z   100252c8 f   mfc140:mfc140.dll
 0001:000242ce       ?SetViewportOrg@CDC@@UAE?AVCPoint@@HH@Z 100252ce f   mfc140:mfc140.dll
 0001:000242d4       ?OffsetViewportOrg@CDC@@UAE?AVCPoint@@HH@Z 100252d4 f   mfc140:mfc140.dll
 0001:000242da       ?SetViewportExt@CDC@@UAE?AVCSize@@HH@Z 100252da f   mfc140:mfc140.dll
 0001:000242e0       ?ScaleViewportExt@CDC@@UAE?AVCSize@@HHHH@Z 100252e0 f   mfc140:mfc140.dll
 0001:000242e6       ?SetWindowOrg@CDC@@QAE?AVCPoint@@HH@Z 100252e6 f   mfc140:mfc140.dll
 0001:000242ec       ?SetWindowExt@CDC@@UAE?AVCSize@@HH@Z 100252ec f   mfc140:mfc140.dll
 0001:000242f2       ?ScaleWindowExt@CDC@@UAE?AVCSize@@HHHH@Z 100252f2 f   mfc140:mfc140.dll
 0001:000242f8       ?GetClipBox@CDC@@UBEHPAUtagRECT@@@Z 100252f8 f   mfc140:mfc140.dll
 0001:000242fe       ?MoveTo@CDC@@QAE?AVCPoint@@HH@Z 100252fe f   mfc140:mfc140.dll
 0001:00024304       ?LineTo@CDC@@QAEHHH@Z      10025304 f   mfc140:mfc140.dll
 0001:0002430a       ?FillSolidRect@CDC@@QAEXPBUtagRECT@@K@Z 1002530a f   mfc140:mfc140.dll
 0001:00024310       ?Draw3dRect@CDC@@QAEXPBUtagRECT@@KK@Z 10025310 f   mfc140:mfc140.dll
 0001:00024316       ??0CPaintDC@@QAE@PAVCWnd@@@Z 10025316 f   mfc140:mfc140.dll
 0001:0002431c       ??1CPaintDC@@UAE@XZ        1002531c f   mfc140:mfc140.dll
 0001:00024322       ?FromHandle@CImageList@@SGPAV1@PAU_IMAGELIST@@@Z 10025322 f   mfc140:mfc140.dll
 0001:00024328       ?DrawIndirect@CImageList@@QAEHPAVCDC@@HUtagPOINT@@UtagSIZE@@1IKKKKKK@Z 10025328 f   mfc140:mfc140.dll
 0001:0002432e       ?GetDlgCtrlID@CWnd@@QBEHXZ 1002532e f   mfc140:mfc140.dll
 0001:00024334       ?OnSysColorChange@CWnd@@IAEXXZ 10025334 f   mfc140:mfc140.dll
 0001:0002433a       ?GetThisClass@CHeaderCtrl@@SGPAUCRuntimeClass@@XZ 1002533a f   mfc140:mfc140.dll
 0001:00024340       ?GetRuntimeClass@CHeaderCtrl@@UBEPAUCRuntimeClass@@XZ 10025340 f   mfc140:mfc140.dll
 0001:00024346       ?Create@CHeaderCtrl@@UAEHKABUtagRECT@@PAVCWnd@@I@Z 10025346 f   mfc140:mfc140.dll
 0001:0002434c       ?CreateEx@CHeaderCtrl@@UAEHKKABUtagRECT@@PAVCWnd@@I@Z 1002534c f   mfc140:mfc140.dll
 0001:00024352       ?DrawItem@CHeaderCtrl@@UAEXPAUtagDRAWITEMSTRUCT@@@Z 10025352 f   mfc140:mfc140.dll
 0001:00024358       ??1CHeaderCtrl@@UAE@XZ     10025358 f   mfc140:mfc140.dll
 0001:0002435e       ?OnChildNotify@CHeaderCtrl@@MAEHIIJPAJ@Z 1002535e f   mfc140:mfc140.dll
 0001:00024364       ??_U@YAPAXI@Z              10025364 f   mfc140:mfc140.dll
 0001:0002436a       ?AfxThrowInvalidArgException@@YGXXZ 1002536a f   mfc140:mfc140.dll
 0001:00024370       ?GetRuntimeClass@CFont@@UBEPAUCRuntimeClass@@XZ 10025370 f   mfc140:mfc140.dll
 0001:00024376       ?SetBkMode@CDC@@QAEHH@Z    10025376 f   mfc140:mfc140.dll
 0001:0002437c       ??0CImageList@@QAE@XZ      1002537c f   mfc140:mfc140.dll
 0001:00024382       ??1CImageList@@UAE@XZ      10025382 f   mfc140:mfc140.dll
 0001:00024388       ?SubclassWindow@CWnd@@QAEHPAUHWND__@@@Z 10025388 f   mfc140:mfc140.dll
 0001:0002438e       ?MoveWindow@CWnd@@QAEXHHHHH@Z 1002538e f   mfc140:mfc140.dll
 0001:00024394       ?SetFocus@CWnd@@QAEPAV1@XZ 10025394 f   mfc140:mfc140.dll
 0001:0002439a       ?OnDestroy@CWnd@@IAEXXZ    1002539a f   mfc140:mfc140.dll
 0001:000243a0       ?Create@CEdit@@QAEHKABUtagRECT@@PAVCWnd@@I@Z 100253a0 f   mfc140:mfc140.dll
 0001:000243a6       ?GetRuntimeClass@CListCtrl@@UBEPAUCRuntimeClass@@XZ 100253a6 f   mfc140:mfc140.dll
 0001:000243ac       ?SetItem@CListCtrl@@QAEHHHIPBDHIIJ@Z 100253ac f   mfc140:mfc140.dll
 0001:000243b2       ?GetItemRect@CListCtrl@@QBEHHPAUtagRECT@@I@Z 100253b2 f   mfc140:mfc140.dll
 0001:000243b8       ?SetItemState@CListCtrl@@QAEHHII@Z 100253b8 f   mfc140:mfc140.dll
 0001:000243be       ?GetItemText@CListCtrl@@QBE?AV?$CStringT@DV?$StrTraitMFC_DLL@DV?$ChTraitsCRT@D@ATL@@@@@ATL@@HH@Z 100253be f   mfc140:mfc140.dll
 0001:000243c4       ?SetItemText@CListCtrl@@QAEHHHPBD@Z 100253c4 f   mfc140:mfc140.dll
 0001:000243ca       ?GetItemData@CListCtrl@@QBEKH@Z 100253ca f   mfc140:mfc140.dll
 0001:000243d0       ?GetHeaderCtrl@CListCtrl@@QBEPAVCHeaderCtrl@@XZ 100253d0 f   mfc140:mfc140.dll
 0001:000243d6       ?GetSubItemRect@CListCtrl@@QBEHHHHAAVCRect@@@Z 100253d6 f   mfc140:mfc140.dll
 0001:000243dc       ?DrawItem@CListCtrl@@UAEXPAUtagDRAWITEMSTRUCT@@@Z 100253dc f   mfc140:mfc140.dll
 0001:000243e2       ?InsertItem@CListCtrl@@QAEHIHPBDIIHJ@Z 100253e2 f   mfc140:mfc140.dll
 0001:000243e8       ??1CListCtrl@@UAE@XZ       100253e8 f   mfc140:mfc140.dll
 0001:000243ee       ?OnChildNotify@CListCtrl@@MAEHIIJPAJ@Z 100253ee f   mfc140:mfc140.dll
 0001:000243f4       ?GetThisMessageMap@CListCtrl@@KGPBUAFX_MSGMAP@@XZ 100253f4 f   mfc140:mfc140.dll
 0001:000243fa       ?GetMessageMap@CListCtrl@@MBEPBUAFX_MSGMAP@@XZ 100253fa f   mfc140:mfc140.dll
 0001:00024400       ?DeleteDC@CDC@@QAEHXZ      10025400 f   mfc140:mfc140.dll
 0001:00024406       ?ModifyStyle@CWnd@@QAEHKKI@Z 10025406 f   mfc140:mfc140.dll
 0001:0002440c       ?SetWindowPos@CWnd@@QAEHPBV1@HHHHI@Z 1002540c f   mfc140:mfc140.dll
 0001:00024412       ?AfxFindResourceHandle@@YGPAUHINSTANCE__@@PBD0@Z 10025412 f   mfc140:mfc140.dll
 0001:00024418       ??0CToolTipCtrl@@QAE@XZ    10025418 f   mfc140:mfc140.dll
 0001:0002441e       ?AddTool@CToolTipCtrl@@QAEHPAVCWnd@@PBDPBUtagRECT@@I@Z 1002541e f   mfc140:mfc140.dll
 0001:00024424       ?UpdateTipText@CToolTipCtrl@@QAEXPBDPAVCWnd@@I@Z 10025424 f   mfc140:mfc140.dll
 0001:0002442a       ??1CToolTipCtrl@@UAE@XZ    1002542a f   mfc140:mfc140.dll
 0001:00024430       ??_V@YAXPAX@Z              10025430 f   mfc140:mfc140.dll
 0001:00024436       ?AfxThrowMemoryException@@YGXXZ 10025436 f   mfc140:mfc140.dll
 0001:0002443c       ?AfxThrowArchiveException@@YGXHPBD@Z 1002543c f   mfc140:mfc140.dll
 0001:00024442       ?GetRuntimeClass@CObject@@UBEPAUCRuntimeClass@@XZ 10025442 f   mfc140:mfc140.dll
 0001:00024448       ?Read@CArchive@@QAEIPAXI@Z 10025448 f   mfc140:mfc140.dll
 0001:0002444e       ?Write@CArchive@@QAEXPBXI@Z 1002544e f   mfc140:mfc140.dll
 0001:00024454       ?ReadCount@CArchive@@QAEKXZ 10025454 f   mfc140:mfc140.dll
 0001:0002445a       ?WriteCount@CArchive@@QAEXK@Z 1002545a f   mfc140:mfc140.dll
 0001:00024460       ?ClientToScreen@CWnd@@QBEXPAUtagRECT@@@Z 10025460 f   mfc140:mfc140.dll
 0001:00024466       ?ShowWindow@CWnd@@QAEHH@Z  10025466 f   mfc140:mfc140.dll
 0001:0002446c       ?GetRuntimeClass@CTabCtrl@@UBEPAUCRuntimeClass@@XZ 1002546c f   mfc140:mfc140.dll
 0001:00024472       ?Create@CTabCtrl@@UAEHKABUtagRECT@@PAVCWnd@@I@Z 10025472 f   mfc140:mfc140.dll
 0001:00024478       ?CreateEx@CTabCtrl@@UAEHKKABUtagRECT@@PAVCWnd@@I@Z 10025478 f   mfc140:mfc140.dll
 0001:0002447e       ?DrawItem@CTabCtrl@@UAEXPAUtagDRAWITEMSTRUCT@@@Z 1002547e f   mfc140:mfc140.dll
 0001:00024484       ??1CTabCtrl@@UAE@XZ        10025484 f   mfc140:mfc140.dll
 0001:0002448a       ?OnChildNotify@CTabCtrl@@MAEHIIJPAJ@Z 1002548a f   mfc140:mfc140.dll
 0001:00024490       ?GetThisMessageMap@CTabCtrl@@KGPBUAFX_MSGMAP@@XZ 10025490 f   mfc140:mfc140.dll
 0001:00024496       ?GetMessageMap@CTabCtrl@@MBEPBUAFX_MSGMAP@@XZ 10025496 f   mfc140:mfc140.dll
 0001:0002449c       ?DDX_Control@@YGXPAVCDataExchange@@HAAVCWnd@@@Z 1002549c f   mfc140:mfc140.dll
 0001:000244a2       ?OnCtlColor@CWnd@@IAEPAUHBRUSH__@@PAVCDC@@PAV1@I@Z 100254a2 f   mfc140:mfc140.dll
 0001:000244a8       ?GetRuntimeClass@CDialog@@UBEPAUCRuntimeClass@@XZ 100254a8 f   mfc140:mfc140.dll
 0001:000244ae       ?Create@CDialog@@UAEHPBDPAVCWnd@@@Z 100254ae f   mfc140:mfc140.dll
 0001:000244b4       ?CreateIndirect@CDialog@@UAEHPBUDLGTEMPLATE@@PAVCWnd@@PAX@Z 100254b4 f   mfc140:mfc140.dll
 0001:000244ba       ?CreateIndirect@CDialog@@UAEHPAXPAVCWnd@@@Z 100254ba f   mfc140:mfc140.dll
 0001:000244c0       ?OnInitDialog@CDialog@@UAEHXZ 100254c0 f   mfc140:mfc140.dll
 0001:000244c6       ?OnSetFont@CDialog@@UAEXPAVCFont@@@Z 100254c6 f   mfc140:mfc140.dll
 0001:000244cc       ?OnOK@CDialog@@MAEXXZ      100254cc f   mfc140:mfc140.dll
 0001:000244d2       ?OnCancel@CDialog@@MAEXXZ  100254d2 f   mfc140:mfc140.dll
 0001:000244d8       ??1CDialog@@UAE@XZ         100254d8 f   mfc140:mfc140.dll
 0001:000244de       ?PreTranslateMessage@CDialog@@UAEHPAUtagMSG@@@Z 100254de f   mfc140:mfc140.dll
 0001:000244e4       ?OnCmdMsg@CDialog@@UAEHIHPAXPAUAFX_CMDHANDLERINFO@@@Z 100254e4 f   mfc140:mfc140.dll
 0001:000244ea       ?CheckAutoCenter@CDialog@@UAEHXZ 100254ea f   mfc140:mfc140.dll
 0001:000244f0       ?SetOccDialogInfo@CDialog@@MAEHPAU_AFX_OCC_DIALOG_INFO@@@Z 100254f0 f   mfc140:mfc140.dll
 0001:000244f6       ?GetOccDialogInfo@CDialog@@MAEPAU_AFX_OCC_DIALOG_INFO@@XZ 100254f6 f   mfc140:mfc140.dll
 0001:000244fc       ?PreInitDialog@CDialog@@MAEXXZ 100254fc f   mfc140:mfc140.dll
 0001:00024502       ?TrimRight@?$CStringT@DV?$StrTraitMFC_DLL@DV?$ChTraitsCRT@D@ATL@@@@@ATL@@QAEAAV12@D@Z 10025502 f   mfc140:mfc140.dll
 0001:00024508       ?GetBuffer@?$CSimpleStringT@D$00@ATL@@QAEPADH@Z 10025508 f   mfc140:mfc140.dll
 0001:0002450e       ?ReleaseBuffer@?$CSimpleStringT@D$00@ATL@@QAEXH@Z 1002550e f   mfc140:mfc140.dll
 0001:00024514       ?ReverseFind@?$CStringT@DV?$StrTraitMFC_DLL@DV?$ChTraitsCRT@D@ATL@@@@@ATL@@QBEHD@Z 10025514 f   mfc140:mfc140.dll
 0001:0002451a       ?MakeUpper@?$CStringT@DV?$StrTraitMFC_DLL@DV?$ChTraitsCRT@D@ATL@@@@@ATL@@QAEAAV12@XZ 1002551a f   mfc140:mfc140.dll
 0001:00024520       ??0CFileFind@@QAE@XZ       10025520 f   mfc140:mfc140.dll
 0001:00024526       ??1CFileFind@@UAE@XZ       10025526 f   mfc140:mfc140.dll
 0001:0002452c       ?GetFilePath@CFileFind@@UBE?AV?$CStringT@DV?$StrTraitMFC_DLL@DV?$ChTraitsCRT@D@ATL@@@@@ATL@@XZ 1002552c f   mfc140:mfc140.dll
 0001:00024532       ?FindFile@CFileFind@@UAEHPBDK@Z 10025532 f   mfc140:mfc140.dll
 0001:00024538       ?FindNextFileA@CFileFind@@UAEHXZ 10025538 f   mfc140:mfc140.dll
 0001:0002453e       ?ScreenToClient@CWnd@@QBEXPAUtagRECT@@@Z 1002553e f   mfc140:mfc140.dll
 0001:00024544       ?MessageBoxA@CWnd@@QAEHPBD0I@Z 10025544 f   mfc140:mfc140.dll
 0001:0002454a       ?AfxGetModuleState@@YGPAVAFX_MODULE_STATE@@XZ 1002554a f   mfc140:mfc140.dll
 0001:00024550       ??0CDialog@@QAE@IPAVCWnd@@@Z 10025550 f   mfc140:mfc140.dll
 0001:00024556       ?DoModal@CDialog@@UAEHXZ   10025556 f   mfc140:mfc140.dll
 0001:0002455c       ?GetThisMessageMap@CDialog@@KGPBUAFX_MSGMAP@@XZ 1002555c f   mfc140:mfc140.dll
 0001:00024562       ?OnFinalRelease@CCmdTarget@@UAEXXZ 10025562 f   mfc140:mfc140.dll
 0001:00024568       ?GetInterfaceMap@CCmdTarget@@MBEPBUAFX_INTERFACEMAP@@XZ 10025568 f   mfc140:mfc140.dll
 0001:0002456e       ?PreTranslateMessage@CWinThread@@UAEHPAUtagMSG@@@Z 1002556e f   mfc140:mfc140.dll
 0001:00024574       ?PumpMessage@CWinThread@@UAEHXZ 10025574 f   mfc140:mfc140.dll
 0001:0002457a       ?IsIdleMessage@CWinThread@@UAEHPAUtagMSG@@@Z 1002557a f   mfc140:mfc140.dll
 0001:00024580       ?ProcessMessageFilter@CWinThread@@UAEHHPAUtagMSG@@@Z 10025580 f   mfc140:mfc140.dll
 0001:00024586       ?GetMainWnd@CWinThread@@UAEPAVCWnd@@XZ 10025586 f   mfc140:mfc140.dll
 0001:0002458c       ?Delete@CWinThread@@UAEXXZ 1002558c f   mfc140:mfc140.dll
 0001:00024592       ?GetRuntimeClass@CWinApp@@UBEPAUCRuntimeClass@@XZ 10025592 f   mfc140:mfc140.dll
 0001:00024598       ??0CWinApp@@QAE@PBD@Z      10025598 f   mfc140:mfc140.dll
 0001:0002459e       ?GetProfileIntA@CWinApp@@UAEIPBD0H@Z 1002559e f   mfc140:mfc140.dll
 0001:000245a4       ?WriteProfileInt@CWinApp@@UAEHPBD0H@Z 100255a4 f   mfc140:mfc140.dll
 0001:000245aa       ?GetProfileStringA@CWinApp@@UAE?AV?$CStringT@DV?$StrTraitMFC_DLL@DV?$ChTraitsCRT@D@ATL@@@@@ATL@@PBD00@Z 100255aa f   mfc140:mfc140.dll
 0001:000245b0       ?WriteProfileStringA@CWinApp@@UAEHPBD00@Z 100255b0 f   mfc140:mfc140.dll
 0001:000245b6       ?GetProfileBinary@CWinApp@@UAEHPBD0PAPAEPAI@Z 100255b6 f   mfc140:mfc140.dll
 0001:000245bc       ?WriteProfileBinary@CWinApp@@UAEHPBD0PAEI@Z 100255bc f   mfc140:mfc140.dll
 0001:000245c2       ?InitLibId@CWinApp@@UAEXXZ 100255c2 f   mfc140:mfc140.dll
 0001:000245c8       ?Register@CWinApp@@UAEHXZ  100255c8 f   mfc140:mfc140.dll
 0001:000245ce       ?Unregister@CWinApp@@UAEHXZ 100255ce f   mfc140:mfc140.dll
 0001:000245d4       ?OpenDocumentFile@CWinApp@@UAEPAVCDocument@@PBD@Z 100255d4 f   mfc140:mfc140.dll
 0001:000245da       ?OpenDocumentFile@CWinApp@@UAEPAVCDocument@@PBDH@Z 100255da f   mfc140:mfc140.dll
 0001:000245e0       ?AddToRecentFileList@CWinApp@@UAEXPBD@Z 100255e0 f   mfc140:mfc140.dll
 0001:000245e6       ?InitApplication@CWinApp@@UAEHXZ 100255e6 f   mfc140:mfc140.dll
 0001:000245ec       ?SaveAllModified@CWinApp@@UAEHXZ 100255ec f   mfc140:mfc140.dll
 0001:000245f2       ?DoMessageBox@CWinApp@@UAEHPBDII@Z 100255f2 f   mfc140:mfc140.dll
 0001:000245f8       ?DoWaitCursor@CWinApp@@UAEXH@Z 100255f8 f   mfc140:mfc140.dll
 0001:000245fe       ?OnDDECommand@CWinApp@@UAEHPAD@Z 100255fe f   mfc140:mfc140.dll
 0001:00024604       ?WinHelpA@CWinApp@@UAEXKI@Z 10025604 f   mfc140:mfc140.dll
 0001:0002460a       ?HtmlHelpA@CWinApp@@UAEXKI@Z 1002560a f   mfc140:mfc140.dll
 0001:00024610       ?WinHelpInternal@CWinApp@@UAEXKI@Z 10025610 f   mfc140:mfc140.dll
 0001:00024616       ?RegisterWithRestartManager@CWinApp@@UAEJHABV?$CStringT@DV?$StrTraitMFC_DLL@DV?$ChTraitsCRT@D@ATL@@@@@ATL@@@Z 10025616 f   mfc140:mfc140.dll
 0001:0002461c       ?RegisterWithRestartManager@CWinApp@@UAEJPB_WKP6GKPAX@Z1KK@Z 1002561c f   mfc140:mfc140.dll
 0001:00024622       ?ApplicationRecoveryCallback@CWinApp@@UAEKPAX@Z 10025622 f   mfc140:mfc140.dll
 0001:00024628       ?GetDataRecoveryHandler@CWinApp@@UAEPAVCDataRecoveryHandler@@XZ 10025628 f   mfc140:mfc140.dll
 0001:0002462e       ?IsTaskbarInteractionEnabled@CWinApp@@UAEHXZ 1002562e f   mfc140:mfc140.dll
 0001:00024634       ?InitInstance@CWinApp@@UAEHXZ 10025634 f   mfc140:mfc140.dll
 0001:0002463a       ?ExitInstance@CWinApp@@UAEHXZ 1002563a f   mfc140:mfc140.dll
 0001:00024640       ?RestartInstance@CWinApp@@UAEHXZ 10025640 f   mfc140:mfc140.dll
 0001:00024646       ?Run@CWinApp@@UAEHXZ       10025646 f   mfc140:mfc140.dll
 0001:0002464c       ?OnIdle@CWinApp@@UAEHJ@Z   1002564c f   mfc140:mfc140.dll
 0001:00024652       ?ProcessWndProcException@CWinApp@@UAEJPAVCException@@PBUtagMSG@@@Z 10025652 f   mfc140:mfc140.dll
 0001:00024658       ?LoadAppLangResourceDLL@CWinApp@@UAEPAUHINSTANCE__@@XZ 10025658 f   mfc140:mfc140.dll
 0001:0002465e       ??1CWinApp@@UAE@XZ         1002565e f   mfc140:mfc140.dll
 0001:00024664       ?GetThisMessageMap@CWinApp@@KGPBUAFX_MSGMAP@@XZ 10025664 f   mfc140:mfc140.dll
 0001:0002466a       ?LoadSysPolicies@CWinApp@@UAEHXZ 1002566a f   mfc140:mfc140.dll
 0001:00024670       ?AfxThrowOleException@@YGXJ@Z 10025670 f   mfc140:mfc140.dll
 0001:00024676       ?DDX_Text@@YGXPAVCDataExchange@@HAAV?$CStringT@DV?$StrTraitMFC_DLL@DV?$ChTraitsCRT@D@ATL@@@@@ATL@@@Z 10025676 f   mfc140:mfc140.dll
 0001:0002467c       ?DDX_Check@@YGXPAVCDataExchange@@HAAH@Z 1002567c f   mfc140:mfc140.dll
 0001:00024682       ?DDX_DateTimeCtrl@@YGXPAVCDataExchange@@HAAVCTime@ATL@@@Z 10025682 f   mfc140:mfc140.dll
 0001:00024688       ?UpdateData@CWnd@@QAEHH@Z  10025688 f   mfc140:mfc140.dll
 0001:0002468e       ?GetRuntimeClass@CStatic@@UBEPAUCRuntimeClass@@XZ 1002568e f   mfc140:mfc140.dll
 0001:00024694       ?Create@CStatic@@UAEHPBDKABUtagRECT@@PAVCWnd@@I@Z 10025694 f   mfc140:mfc140.dll
 0001:0002469a       ?DrawItem@CStatic@@UAEXPAUtagDRAWITEMSTRUCT@@@Z 1002569a f   mfc140:mfc140.dll
 0001:000246a0       ??1CStatic@@UAE@XZ         100256a0 f   mfc140:mfc140.dll
 0001:000246a6       ?OnChildNotify@CStatic@@MAEHIIJPAJ@Z 100256a6 f   mfc140:mfc140.dll
 0001:000246ac       ?GetRuntimeClass@CDateTimeCtrl@@UBEPAUCRuntimeClass@@XZ 100256ac f   mfc140:mfc140.dll
 0001:000246b2       ?Create@CDateTimeCtrl@@UAEHKABUtagRECT@@PAVCWnd@@I@Z 100256b2 f   mfc140:mfc140.dll
 0001:000246b8       ??1CDateTimeCtrl@@UAE@XZ   100256b8 f   mfc140:mfc140.dll
 0001:000246be       ?GetRuntimeClass@CCommonDialog@@UBEPAUCRuntimeClass@@XZ 100256be f   mfc140:mfc140.dll
 0001:000246c4       ?OnOK@CCommonDialog@@MAEXXZ 100256c4 f   mfc140:mfc140.dll
 0001:000246ca       ?OnCancel@CCommonDialog@@MAEXXZ 100256ca f   mfc140:mfc140.dll
 0001:000246d0       ?GetMessageMap@CCommonDialog@@MBEPBUAFX_MSGMAP@@XZ 100256d0 f   mfc140:mfc140.dll
 0001:000246d6       ??0CColorDialog@@QAE@KKPAVCWnd@@@Z 100256d6 f   mfc140:mfc140.dll
 0001:000246dc       ?DoModal@CColorDialog@@UAEHXZ 100256dc f   mfc140:mfc140.dll
 0001:000246e2       ?CheckRadioButton@CWnd@@QAEXHHH@Z 100256e2 f   mfc140:mfc140.dll
 0001:000246e8       ?GetCheckedRadioButton@CWnd@@QBEHHH@Z 100256e8 f   mfc140:mfc140.dll
 0001:000246ee       ?GetDlgItemTextA@CWnd@@QBEHHAAV?$CStringT@DV?$StrTraitMFC_DLL@DV?$ChTraitsCRT@D@ATL@@@@@ATL@@@Z 100256ee f   mfc140:mfc140.dll
 0001:000246f4       ?SetDlgItemInt@CWnd@@QAEXHIH@Z 100256f4 f   mfc140:mfc140.dll
 0001:000246fa       ?SetDlgItemTextA@CWnd@@QAEXHPBD@Z 100256fa f   mfc140:mfc140.dll
 0001:00024700       ?GetBufferSetLength@?$CSimpleStringT@D$00@ATL@@QAEPADH@Z 10025700 f   mfc140:mfc140.dll
 0001:00024706       ?CompareNoCase@?$CStringT@DV?$StrTraitMFC_DLL@DV?$ChTraitsCRT@D@ATL@@@@@ATL@@QBEHPBD@Z 10025706 f   mfc140:mfc140.dll
 0001:0002470c       ?Insert@?$CStringT@DV?$StrTraitMFC_DLL@DV?$ChTraitsCRT@D@ATL@@@@@ATL@@QAEHHD@Z 1002570c f   mfc140:mfc140.dll
 0001:00024712       ?Mid@?$CStringT@DV?$StrTraitMFC_DLL@DV?$ChTraitsCRT@D@ATL@@@@@ATL@@QBE?AV12@H@Z 10025712 f   mfc140:mfc140.dll
 0001:00024718       ??0CStringArray@@QAE@XZ    10025718 f   mfc140:mfc140.dll
 0001:0002471e       ?SetAtGrow@CStringArray@@QAEXHABV?$CStringT@DV?$StrTraitMFC_DLL@DV?$ChTraitsCRT@D@ATL@@@@@ATL@@@Z 1002571e f   mfc140:mfc140.dll
 0001:00024724       ??1CStringArray@@UAE@XZ    10025724 f   mfc140:mfc140.dll
 0001:0002472a       ?GetDlgItem@CWnd@@QBEPAV1@H@Z 1002572a f   mfc140:mfc140.dll
 0001:00024730       ?CheckDlgButton@CWnd@@QAEXHI@Z 10025730 f   mfc140:mfc140.dll
 0001:00024736       ?IsDlgButtonChecked@CWnd@@QBEIH@Z 10025736 f   mfc140:mfc140.dll
 0001:0002473c       ?GetLBText@CComboBox@@QBEXHAAV?$CStringT@DV?$StrTraitMFC_DLL@DV?$ChTraitsCRT@D@ATL@@@@@ATL@@@Z 1002573c f   mfc140:mfc140.dll
 0001:00024742       ??0CFileDialog@@QAE@HPBD0K0PAVCWnd@@KH@Z 10025742 f   mfc140:mfc140.dll
 0001:00024748       ??1CFileDialog@@UAE@XZ     10025748 f   mfc140:mfc140.dll
 0001:0002474e       ?DoModal@CFileDialog@@UAEHXZ 1002574e f   mfc140:mfc140.dll
 0001:00024754       ?GetPathName@CFileDialog@@QBE?AV?$CStringT@DV?$StrTraitMFC_DLL@DV?$ChTraitsCRT@D@ATL@@@@@ATL@@XZ 10025754 f   mfc140:mfc140.dll
 0001:0002475a       ?GetThisClass@CEdit@@SGPAUCRuntimeClass@@XZ 1002575a f   mfc140:mfc140.dll
 0001:00024760       ?GetThisClass@CComboBox@@SGPAUCRuntimeClass@@XZ 10025760 f   mfc140:mfc140.dll
 0001:00024766       ??ACMapPtrToPtr@@QAEAAPAXPAX@Z 10025766 f   mfc140:mfc140.dll
 0001:0002476c       ?RemoveKey@CMapPtrToPtr@@QAEHPAX@Z 1002576c f   mfc140:mfc140.dll
 0001:00024772       ??2CNoTrackObject@@SGPAXI@Z 10025772 f   mfc140:mfc140.dll
 0001:00024778       ??3CNoTrackObject@@SGXPAX@Z 10025778 f   mfc140:mfc140.dll
 0001:0002477e       ?GetData@CThreadLocalObject@@QAEPAVCNoTrackObject@@P6GPAV2@XZ@Z 1002577e f   mfc140:mfc140.dll
 0001:00024784       ??0AFX_MODULE_THREAD_STATE@@QAE@XZ 10025784 f   mfc140:mfc140.dll
 0001:0002478a       ?AfxGetAppModuleState@@YGPAVAFX_MODULE_STATE@@XZ 1002578a f   mfc140:mfc140.dll
 0001:00024790       ?AfxExtractSubString@@YGHAAV?$CStringT@DV?$StrTraitMFC_DLL@DV?$ChTraitsCRT@D@ATL@@@@@ATL@@PBDHD@Z 10025790 f   mfc140:mfc140.dll
 0001:00024796       ??$AtlAdd@H@ATL@@YAJPAHHH@Z 10025796 f i mfcs140:nolib.obj
 0001:000247bc       ??$AtlAdd@I@ATL@@YAJPAIII@Z 100257bc f i mfcs140:nolib.obj
 0001:000247df       ??$AtlAdd@K@ATL@@YAJPAKKK@Z 100257df f i mfcs140:nolib.obj
 0001:00024802       ??$AtlAlignUp@H@ATL@@YGHHK@Z 10025802 f i mfcs140:nolib.obj
 0001:00024816       ??$AtlMultiply@I@ATL@@YAJPAIII@Z 10025816 f i mfcs140:nolib.obj
 0001:00024838       ??$AtlMultiply@K@ATL@@YAJPAKKK@Z 10025838 f i mfcs140:nolib.obj
 0001:0002485a       ??0?$CSimpleArray@GV?$CSimpleArrayEqualHelper@G@ATL@@@ATL@@QAE@XZ 1002585a f i mfcs140:nolib.obj
 0001:00024867       ??0?$CTraceCategoryEx@$00$0A@@ATL@@QAE@PBD@Z 10025867 f i mfcs140:nolib.obj
 0001:0002486c       ??0?$CTraceCategoryEx@$01$0A@@ATL@@QAE@PBD@Z 1002586c f i mfcs140:nolib.obj
 0001:00024871       ??0?$CTraceCategoryEx@$03$0A@@ATL@@QAE@PBD@Z 10025871 f i mfcs140:nolib.obj
 0001:00024876       ??0?$CTraceCategoryEx@$07$0A@@ATL@@QAE@PBD@Z 10025876 f i mfcs140:nolib.obj
 0001:0002487b       ??0?$CTraceCategoryEx@$0BA@$0A@@ATL@@QAE@PBD@Z 1002587b f i mfcs140:nolib.obj
 0001:00024880       ??0?$CTraceCategoryEx@$0BAA@$0A@@ATL@@QAE@PBD@Z 10025880 f i mfcs140:nolib.obj
 0001:00024885       ??0?$CTraceCategoryEx@$0BAAA@$0A@@ATL@@QAE@PBD@Z 10025885 f i mfcs140:nolib.obj
 0001:0002488a       ??0?$CTraceCategoryEx@$0BAAAA@$0A@@ATL@@QAE@PBD@Z 1002588a f i mfcs140:nolib.obj
 0001:0002488f       ??0?$CTraceCategoryEx@$0BAAAAA@$0A@@ATL@@QAE@PBD@Z 1002588f f i mfcs140:nolib.obj
 0001:00024894       ??0?$CTraceCategoryEx@$0CA@$0A@@ATL@@QAE@PBD@Z 10025894 f i mfcs140:nolib.obj
 0001:00024899       ??0?$CTraceCategoryEx@$0CAA@$0A@@ATL@@QAE@PBD@Z 10025899 f i mfcs140:nolib.obj
 0001:0002489e       ??0?$CTraceCategoryEx@$0CAAA@$0A@@ATL@@QAE@PBD@Z 1002589e f i mfcs140:nolib.obj
 0001:000248a3       ??0?$CTraceCategoryEx@$0CAAAA@$0A@@ATL@@QAE@PBD@Z 100258a3 f i mfcs140:nolib.obj
 0001:000248a8       ??0?$CTraceCategoryEx@$0CAAAAA@$0A@@ATL@@QAE@PBD@Z 100258a8 f i mfcs140:nolib.obj
 0001:000248ad       ??0?$CTraceCategoryEx@$0EA@$0A@@ATL@@QAE@PBD@Z 100258ad f i mfcs140:nolib.obj
 0001:000248b2       ??0?$CTraceCategoryEx@$0EAA@$0A@@ATL@@QAE@PBD@Z 100258b2 f i mfcs140:nolib.obj
 0001:000248b7       ??0?$CTraceCategoryEx@$0EAAA@$0A@@ATL@@QAE@PBD@Z 100258b7 f i mfcs140:nolib.obj
 0001:000248bc       ??0?$CTraceCategoryEx@$0EAAAA@$0A@@ATL@@QAE@PBD@Z 100258bc f i mfcs140:nolib.obj
 0001:000248c1       ??0?$CTraceCategoryEx@$0EAAAAA@$0A@@ATL@@QAE@PBD@Z 100258c1 f i mfcs140:nolib.obj
 0001:000248c6       ??0?$CTraceCategoryEx@$0IA@$0A@@ATL@@QAE@PBD@Z 100258c6 f i mfcs140:nolib.obj
 0001:000248cb       ??0?$CTraceCategoryEx@$0IAA@$0A@@ATL@@QAE@PBD@Z 100258cb f i mfcs140:nolib.obj
 0001:000248d0       ??0?$CTraceCategoryEx@$0IAAA@$0A@@ATL@@QAE@PBD@Z 100258d0 f i mfcs140:nolib.obj
 0001:000248d5       ??0?$CTraceCategoryEx@$0IAAAA@$0A@@ATL@@QAE@PBD@Z 100258d5 f i mfcs140:nolib.obj
 0001:000248da       ??0CAtlComModule@ATL@@QAE@XZ 100258da f i mfcs140:nolib.obj
 0001:00024919       ??0CAtlStringMgr@ATL@@QAE@PAUIAtlMemMgr@1@@Z 10025919 f i mfcs140:nolib.obj
 0001:00024945       ??0CAtlStringMgrStaticInitializer@ATLImplementationDetails@ATL@@QAE@XZ 10025945 f i mfcs140:nolib.obj
 0001:00024951       ??0CAtlWinModule@ATL@@QAE@XZ 10025951 f i mfcs140:nolib.obj
 0001:0002497f       ??0CComCriticalSection@ATL@@QAE@XZ 1002597f f i mfcs140:nolib.obj
 0001:00024993       ??0CNilStringData@ATL@@QAE@XZ 10025993 f i mfcs140:nolib.obj
 0001:000249aa       ??0CWin32Heap@ATL@@QAE@PAX@Z 100259aa f i mfcs140:nolib.obj
 0001:000249c3       ??0_ATL_COM_MODULE70@ATL@@QAE@XZ 100259c3 f i mfcs140:nolib.obj
 0001:000249da       ??0_ATL_WIN_MODULE70@ATL@@QAE@XZ 100259da f i mfcs140:nolib.obj
 0001:00024a05       ??1?$CSimpleArray@GV?$CSimpleArrayEqualHelper@G@ATL@@@ATL@@QAE@XZ 10025a05 f i mfcs140:nolib.obj
 0001:00024a0a       ??1CAtlComModule@ATL@@QAE@XZ 10025a0a f i mfcs140:nolib.obj
 0001:00024a43       ??1CAtlWinModule@ATL@@QAE@XZ 10025a43 f i mfcs140:nolib.obj
 0001:00024a5b       ??1CComBSTR@ATL@@QAE@XZ    10025a5b f i mfcs140:nolib.obj
 0001:00024a64       ??1CComCriticalSection@ATL@@QAE@XZ 10025a64 f i mfcs140:nolib.obj
 0001:00024a67       ??1_ATL_COM_MODULE70@ATL@@QAE@XZ 10025a67 f i mfcs140:nolib.obj
 0001:00024a6a       ??1_ATL_WIN_MODULE70@ATL@@QAE@XZ 10025a6a f i mfcs140:nolib.obj
 0001:00024a72       ??1stringdispid@CComTypeInfoHolder@ATL@@QAE@XZ 10025a72 f i mfcs140:nolib.obj
 0001:00024a7b       ??A?$CSimpleArray@GV?$CSimpleArrayEqualHelper@G@ATL@@@ATL@@QAEAAGH@Z 10025a7b f i mfcs140:nolib.obj
 0001:00024aa0       ??_Estringdispid@CComTypeInfoHolder@ATL@@QAEPAXI@Z 10025aa0 f i mfcs140:nolib.obj
 0001:00024b2b       ?AddRef@CStringData@ATL@@QAEXXZ 10025b2b f i mfcs140:nolib.obj
 0001:00024b30       ?AtlWinModuleInit@ATL@@YGJPAU_ATL_WIN_MODULE70@1@@Z 10025b30 f i mfcs140:nolib.obj
 0001:00024b56       ?AtlWinModuleTerm@ATL@@YGJPAU_ATL_WIN_MODULE70@1@PAUHINSTANCE__@@@Z 10025b56 f i mfcs140:nolib.obj
 0001:00024bb8       ?GetInstance@CAtlStringMgr@ATL@@SAPAUIAtlStringMgr@2@XZ 10025bb8 f i mfcs140:nolib.obj
 0001:00024c22       ?GetModuleInstance@CAtlBaseModule@ATL@@QAEPAUHINSTANCE__@@XZ 10025c22 f i mfcs140:nolib.obj
 0001:00024c26       ?GetSize@?$CSimpleArray@GV?$CSimpleArrayEqualHelper@G@ATL@@@ATL@@QBEHXZ 10025c26 f i mfcs140:nolib.obj
 0001:00024c2a       ?Init@CComCriticalSection@ATL@@QAEJXZ 10025c2a f i mfcs140:nolib.obj
 0001:00024c52       ?RemoveAll@?$CSimpleArray@GV?$CSimpleArrayEqualHelper@G@ATL@@@ATL@@QAEXXZ 10025c52 f i mfcs140:nolib.obj
 0001:00024c70       ?SetManager@CNilStringData@ATL@@QAEXPAUIAtlStringMgr@2@@Z 10025c70 f i mfcs140:nolib.obj
 0001:00024c7c       ?Term@CAtlComModule@ATL@@QAEXXZ 10025c7c f i mfcs140:nolib.obj
 0001:00024cdb       ?Term@CAtlWinModule@ATL@@QAEXXZ 10025cdb f i mfcs140:nolib.obj
 0001:00024ce8       ?Term@CComCriticalSection@ATL@@QAEJXZ 10025ce8 f i mfcs140:nolib.obj
 0001:00024cf2       _HRESULT_FROM_WIN32        10025cf2 f i mfcs140:nolib.obj
 0001:00024d06       _IsolationAwareActivateActCtx@8 10025d06 f i mfcs140:nolib.obj
 0001:00024d49       _IsolationAwareCreateActCtxW@4 10025d49 f i mfcs140:nolib.obj
 0001:00024d8e       _IsolationAwareDeactivateActCtx@8 10025d8e f i mfcs140:nolib.obj
 0001:00024dd1       _IsolationAwareFindActCtxSectionStringW@20 10025dd1 f i mfcs140:nolib.obj
 0001:00024e1d       _IsolationAwarePrivatenPgViNgRzlnPgpgk@4 10025e1d f i mfcs140:nolib.obj
 0001:00024e98       _IsolationAwarePrivatezltRgCebPnQQeRff@12 10025e98 f i mfcs140:nolib.obj
 0001:00024ed6       _IsolationAwarePrivatezltRgzbQhYRuNaQYRJ@4 10025ed6 f i mfcs140:nolib.obj
 0001:00024ee0       _IsolationAwarePrivatezltRgzbQhYRuNaQYRn@4 10025ee0 f i mfcs140:nolib.obj
 0001:00024eea       _IsolationAwareQueryActCtxW@28 10025eea f i mfcs140:nolib.obj
 0001:00024f3c       _IsolationAwareUnregisterClassA@8 10025f3c f i mfcs140:nolib.obj
 0001:00024fe6       _WinbaseIsolationAwarePrivatetRgCebPnQQeRff_xReaRYQP_QYY@4 10025fe6 f i mfcs140:nolib.obj
 0001:00024fff       _WinbaseIsolationAwarePrivatetRgzlnPgpgk@0 10025fff f i mfcs140:nolib.obj
 0001:000251cb       _RawDllMain@12             100261cb f   mfcs140:dllmodul.obj
 0001:0002521e       ??0_AFX_DLL_MODULE_STATE@@QAE@XZ 1002621e f i mfcs140:dllmodul.obj
 0001:00025246       ??1_AFX_DLL_MODULE_STATE@@UAE@XZ 10026246 f i mfcs140:dllmodul.obj
 0001:0002524b       ??_G_AFX_DLL_MODULE_STATE@@UAEPAXI@Z 1002624b f i mfcs140:dllmodul.obj
 0001:0002524b       ??_E_AFX_DLL_MODULE_STATE@@UAEPAXI@Z 1002624b f i mfcs140:dllmodul.obj
 0001:0002527e       ?AfxGetStaticModuleState@@YGPAVAFX_MODULE_STATE@@XZ 1002627e f   mfcs140:dllmodul.obj
 0001:00025284       ?AfxWndProcDllStatic@@YGJPAUHWND__@@IIJ@Z 10026284 f   mfcs140:dllmodul.obj
 0001:000252cb       _DllMain@12                100262cb f   mfcs140:dllmodul.obj
 0001:00025314       _InternalDllMain@12        10026314 f   mfcs140:dllmodul.obj
 0001:0002549a       ??2CObject@@SGPAXI@Z       1002649a f i mfcs140:dllmodulx.obj
 0001:000254aa       ?AfxGetApp@@YGPAVCWinApp@@XZ 100264aa f i mfcs140:dllmodulx.obj
 0001:000254b3       __AfxDllModulHelper        100264b3 f   mfcs140:dllmodulx.obj
 0001:00025500       @__security_check_cookie@4 10026500 f   msvcrt:secchk.obj
 0001:0002550e       ??1type_info@@UAE@XZ       1002650e f   msvcrt:std_type_info_static.obj
 0001:00025515       ??_Gtype_info@@UAEPAXI@Z   10026515 f i msvcrt:std_type_info_static.obj
 0001:00025515       ??_Etype_info@@UAEPAXI@Z   10026515 f i msvcrt:std_type_info_static.obj
 0001:00025538       ??_L@YGXPAXIHP6EX0@Z1@Z    10026538 f   msvcrt:ehvecctr.obj
 0001:0002553d       ??_L@YGXPAXIIP6EX0@Z1@Z    1002653d f   msvcrt:ehvecctr.obj
 0001:000255b1       ??_M@YGXPAXIHP6EX0@Z@Z     100265b1 f   msvcrt:ehvecdtr.obj
 0001:000255b6       ??_M@YGXPAXIIP6EX0@Z@Z     100265b6 f   msvcrt:ehvecdtr.obj
 0001:0002566a       ?__ArrayUnwind@@YGXPAXIIP6EX0@Z@Z 1002666a f   msvcrt:ehvecdtr.obj
 0001:000256fa       ??3@YAXPAXI@Z              100266fa f   msvcrt:delete_scalar_size.obj
 0001:00025708       ??_V@YAXPAXI@Z             10026708 f   msvcrt:delete_array_size.obj
 0001:00025716       ?configure_argv@__scrt_narrow_argv_policy@@SAHXZ 10026716 f i msvcrt:utility.obj
 0001:00025767       ?initialize_environment@__scrt_narrow_environment_policy@@SAHXZ 10026767 f i msvcrt:utility.obj
 0001:000257a0       _NtCurrentTeb              100267a0 f i msvcrt:utility.obj
 0001:000257a7       ___scrt_acquire_startup_lock 100267a7 f   msvcrt:utility.obj
 0001:000257d9       ___scrt_dllmain_after_initialize_c 100267d9 f   msvcrt:utility.obj
 0001:00025804       ___scrt_dllmain_before_initialize_c 10026804 f   msvcrt:utility.obj
 0001:00025812       ___scrt_dllmain_crt_thread_attach 10026812 f   msvcrt:utility.obj
 0001:00025831       ___scrt_dllmain_crt_thread_detach 10026831 f   msvcrt:utility.obj
 0001:0002583e       ___scrt_dllmain_exception_filter 1002683e f   msvcrt:utility.obj
 0001:00025872       ___scrt_dllmain_uninitialize_c 10026872 f   msvcrt:utility.obj
 0001:00025895       ___scrt_dllmain_uninitialize_critical 10026895 f   msvcrt:utility.obj
 0001:000258a2       ___scrt_initialize_crt     100268a2 f   msvcrt:utility.obj
 0001:000258db       ___scrt_initialize_onexit_tables 100268db f   msvcrt:utility.obj
 0001:00025962       ___scrt_is_nonwritable_in_current_image 10026962 f   msvcrt:utility.obj
 0001:000259f6       ___scrt_release_startup_lock 100269f6 f   msvcrt:utility.obj
 0001:00025a13       ___scrt_uninitialize_crt   10026a13 f   msvcrt:utility.obj
 0001:00025a3b       __onexit                   10026a3b f   msvcrt:utility.obj
 0001:00025a68       _at_quick_exit             10026a68 f   msvcrt:utility.obj
 0001:00025a8b       _atexit                    10026a8b f   msvcrt:utility.obj
 0001:00025b65       __Init_thread_abort        10026b65 f   msvcrt:thread_safe_statics.obj
 0001:00025b89       __Init_thread_footer       10026b89 f   msvcrt:thread_safe_statics.obj
 0001:00025bd3       __Init_thread_header       10026bd3 f   msvcrt:thread_safe_statics.obj
 0001:00025c25       __Init_thread_lock         10026c25 f   msvcrt:thread_safe_statics.obj
 0001:00025c31       __Init_thread_notify       10026c31 f   msvcrt:thread_safe_statics.obj
 0001:00025c67       __Init_thread_unlock       10026c67 f   msvcrt:thread_safe_statics.obj
 0001:00025c73       __Init_thread_wait         10026c73 f   msvcrt:thread_safe_statics.obj
 0001:00026001       __CRT_INIT@12              10027001 f   msvcrt:dll_dllmain.obj
 0001:0002600a       __DllMainCRTStartup@12     1002700a f   msvcrt:dll_dllmain.obj
 0001:0002602d       __EH_epilog3               1002702d f   msvcrt:ehprolg3.obj
 0001:00026041       __EH_epilog3_GS            10027041 f   msvcrt:ehprolg3.obj
 0001:00026050       __EH_epilog3_catch_GS      10027050 f   msvcrt:ehprolg3.obj
 0001:0002605f       __EH_prolog3               1002705f f   msvcrt:ehprolg3.obj
 0001:00026092       __EH_prolog3_GS            10027092 f   msvcrt:ehprolg3.obj
 0001:000260c8       __EH_prolog3_catch         100270c8 f   msvcrt:ehprolg3.obj
 0001:000260fe       __EH_prolog3_catch_GS      100270fe f   msvcrt:ehprolg3.obj
 0001:00026140       __SEH_prolog4              10027140 f   msvcrt:sehprolg4.obj
 0001:00026190       __SEH_epilog4              10027190 f   msvcrt:sehprolg4.obj
 0001:000261b0       __SEH_prolog4_GS           100271b0 f   msvcrt:sehprolg4gs.obj
 0001:00026200       __SEH_epilog4_GS           10027200 f   msvcrt:sehprolg4gs.obj
 0001:0002620f       __except_handler4          1002720f f   msvcrt:chandler4gs.obj
 0001:0002623e       @_guard_check_icall_nop@4  1002723e f i msvcrt:guard_support.obj
 0001:00026241       _ReadNoFence               10027241 f i msvcrt:guard_support.obj
 0001:0002624b       _ReadPointerNoFence        1002724b f i msvcrt:guard_support.obj
 0001:00026255       ___castguard_check_failure_debugbreak 10027255 f i msvcrt:guard_support.obj
 0001:00026270       ___castguard_check_failure_fastfail 10027270 f i msvcrt:guard_support.obj
 0001:0002628f       ___castguard_check_failure_nop 1002728f f i msvcrt:guard_support.obj
 0001:00026292       ___castguard_check_failure_os_handled 10027292 f i msvcrt:guard_support.obj
 0001:000262e6       ___castguard_slow_path_check_debugbreak 100272e6 f i msvcrt:guard_support.obj
 0001:00026313       ___castguard_slow_path_check_fastfail 10027313 f i msvcrt:guard_support.obj
 0001:00026344       ___castguard_slow_path_check_nop 10027344 f i msvcrt:guard_support.obj
 0001:00026347       ___castguard_slow_path_check_os_handled 10027347 f i msvcrt:guard_support.obj
 0001:000263ad       __guard_icall_checks_enforced 100273ad f i msvcrt:guard_support.obj
 0001:000263bf       ___raise_securityfailure   100273bf f   msvcrt:gs_report.obj
 0001:000263e7       ___report_gsfailure        100273e7 f   msvcrt:gs_report.obj
 0001:000264e1       ___report_rangecheckfailure 100274e1 f   msvcrt:gs_report.obj
 0001:000264ed       ___report_securityfailure  100274ed f   msvcrt:gs_report.obj
 0001:000265bc       ___report_securityfailureEx 100275bc f   msvcrt:gs_report.obj
 0001:000266d1       ___isa_available_init      100276d1 f   msvcrt:cpu_disp.obj
 0001:000268a2       __get_startup_argv_mode    100278a2 f   msvcrt:argv_mode.obj
 0001:000268a6       ___scrt_is_ucrt_dll_in_use 100278a6 f   msvcrt:ucrt_detection.obj
 0001:000268b2       ___scrt_fastfail           100278b2 f   msvcrt:utility_desktop.obj
 0001:000269cd       ___scrt_get_show_window_mode 100279cd f   msvcrt:utility_desktop.obj
 0001:000269fe       ___scrt_initialize_mta     100279fe f   msvcrt:utility_desktop.obj
 0001:00026a03       ___scrt_initialize_winrt   10027a03 f   msvcrt:utility_desktop.obj
 0001:00026a06       ___scrt_is_managed_app     10027a06 f   msvcrt:utility_desktop.obj
 0001:00026a49       ___scrt_set_unhandled_exception_filter 10027a49 f   msvcrt:utility_desktop.obj
 0001:00026a55       ___scrt_stub_for_initialize_mta 10027a55 f   msvcrt:utility_desktop.obj
 0001:00026a55       ___scrt_exe_initialize_mta 10027a55 f   msvcrt:utility_desktop.obj
 0001:00026a58       ___scrt_unhandled_exception_filter@4 10027a58 f   msvcrt:utility_desktop.obj
 0001:00026aae       __crt_debugger_hook        10027aae f   msvcrt:utility_desktop.obj
 0001:00026b03       ___security_init_cookie    10027b03 f   msvcrt:gs_support.obj
 0001:00026b4e       ?__scrt_initialize_type_info@@YAXXZ 10027b4e f   msvcrt:tncleanup.obj
 0001:00026b5a       ?__scrt_uninitialize_type_info@@YAXXZ 10027b5a f   msvcrt:tncleanup.obj
 0001:00026b66       ___scrt_initialize_default_local_stdio_options 10027b66 f   msvcrt:default_local_stdio_options.obj
 0001:00026b83       ___scrt_get_dyn_tls_init_callback 10027b83 f   msvcrt:dyn_tls_init.obj
 0001:00026b89       __RTC_Initialize           10027b89 f   msvcrt:initsect.obj
 0001:00026bb5       __RTC_Terminate            10027bb5 f   msvcrt:initsect.obj
 0001:00026be1       _GetSystemTime@4           10027be1 f   kernel32:KERNEL32.dll
 0001:00026be7       _GetEnvironmentVariableA@12 10027be7 f   kernel32:KERNEL32.dll
 0001:00026bed       _GetModuleHandleA@4        10027bed f   kernel32:KERNEL32.dll
 0001:00026bf3       _GetPrivateProfileStringA@24 10027bf3 f   kernel32:KERNEL32.dll
 0001:00026bf9       _WritePrivateProfileStringA@16 10027bf9 f   kernel32:KERNEL32.dll
 0001:00026bff       _DecodePointer@4           10027bff f   kernel32:KERNEL32.dll
 0001:00026c05       _RaiseException@16         10027c05 f   kernel32:KERNEL32.dll
 0001:00026c0b       _GetLastError@0            10027c0b f   kernel32:KERNEL32.dll
 0001:00026c11       _HeapDestroy@4             10027c11 f   kernel32:KERNEL32.dll
 0001:00026c17       _HeapAlloc@12              10027c17 f   kernel32:KERNEL32.dll
 0001:00026c1d       _HeapReAlloc@16            10027c1d f   kernel32:KERNEL32.dll
 0001:00026c23       _HeapFree@12               10027c23 f   kernel32:KERNEL32.dll
 0001:00026c29       _HeapSize@12               10027c29 f   kernel32:KERNEL32.dll
 0001:00026c2f       _GetProcessHeap@0          10027c2f f   kernel32:KERNEL32.dll
 0001:00026c35       _InitializeCriticalSectionEx@12 10027c35 f   kernel32:KERNEL32.dll
 0001:00026c3b       _DeleteCriticalSection@4   10027c3b f   kernel32:KERNEL32.dll
 0001:00026c41       _GetWindowsDirectoryA@8    10027c41 f   kernel32:KERNEL32.dll
 0001:00026c47       _GetPrivateProfileIntA@16  10027c47 f   kernel32:KERNEL32.dll
 0001:00026c4d       _SetCurrentDirectoryA@4    10027c4d f   kernel32:KERNEL32.dll
 0001:00026c53       _GetCurrentDirectoryA@8    10027c53 f   kernel32:KERNEL32.dll
 0001:00026c59       _lstrcpynA@12              10027c59 f   kernel32:KERNEL32.dll
 0001:00026c5f       _lstrcatA@8                10027c5f f   kernel32:KERNEL32.dll
 0001:00026c65       _lstrlenA@4                10027c65 f   kernel32:KERNEL32.dll
 0001:00026c6b       _FreeLibrary@4             10027c6b f   kernel32:KERNEL32.dll
 0001:00026c71       _GetModuleFileNameA@12     10027c71 f   kernel32:KERNEL32.dll
 0001:00026c77       _GetProcAddress@8          10027c77 f   kernel32:KERNEL32.dll
 0001:00026c7d       _LoadLibraryA@4            10027c7d f   kernel32:KERNEL32.dll
 0001:00026c83       _OutputDebugStringA@4      10027c83 f   kernel32:KERNEL32.dll
 0001:00026c89       _SetLastError@4            10027c89 f   kernel32:KERNEL32.dll
 0001:00026c8f       _InitializeCriticalSectionAndSpinCount@8 10027c8f f   kernel32:KERNEL32.dll
 0001:00026c95       _GetModuleFileNameW@12     10027c95 f   kernel32:KERNEL32.dll
 0001:00026c9b       _GetModuleHandleW@4        10027c9b f   kernel32:KERNEL32.dll
 0001:00026ca1       _LoadLibraryW@4            10027ca1 f   kernel32:KERNEL32.dll
 0001:00026ca7       _LocalAlloc@8              10027ca7 f   kernel32:KERNEL32.dll
 0001:00026cad       _LocalFree@4               10027cad f   kernel32:KERNEL32.dll
 0001:00026cb3       _CloseHandle@4             10027cb3 f   kernel32:KERNEL32.dll
 0001:00026cb9       _EnterCriticalSection@4    10027cb9 f   kernel32:KERNEL32.dll
 0001:00026cbf       _LeaveCriticalSection@4    10027cbf f   kernel32:KERNEL32.dll
 0001:00026cc5       _SetEvent@4                10027cc5 f   kernel32:KERNEL32.dll
 0001:00026ccb       _ResetEvent@4              10027ccb f   kernel32:KERNEL32.dll
 0001:00026cd1       _WaitForSingleObjectEx@12  10027cd1 f   kernel32:KERNEL32.dll
 0001:00026cd7       _CreateEventW@16           10027cd7 f   kernel32:KERNEL32.dll
 0001:00026cdd       _UnhandledExceptionFilter@4 10027cdd f   kernel32:KERNEL32.dll
 0001:00026ce3       _SetUnhandledExceptionFilter@4 10027ce3 f   kernel32:KERNEL32.dll
 0001:00026ce9       _GetCurrentProcess@0       10027ce9 f   kernel32:KERNEL32.dll
 0001:00026cef       _TerminateProcess@8        10027cef f   kernel32:KERNEL32.dll
 0001:00026cf5       _IsProcessorFeaturePresent@4 10027cf5 f   kernel32:KERNEL32.dll
 0001:00026cfb       _IsDebuggerPresent@0       10027cfb f   kernel32:KERNEL32.dll
 0001:00026d01       _GetStartupInfoW@4         10027d01 f   kernel32:KERNEL32.dll
 0001:00026d07       _QueryPerformanceCounter@4 10027d07 f   kernel32:KERNEL32.dll
 0001:00026d0d       _GetCurrentProcessId@0     10027d0d f   kernel32:KERNEL32.dll
 0001:00026d13       _GetCurrentThreadId@0      10027d13 f   kernel32:KERNEL32.dll
 0001:00026d19       _GetSystemTimeAsFileTime@4 10027d19 f   kernel32:KERNEL32.dll
 0001:00026d1f       _InitializeSListHead@4     10027d1f f   kernel32:KERNEL32.dll
 0001:00026d25       _EnableWindow@8            10027d25 f   user32:USER32.dll
 0001:00026d2b       _FrameRect@12              10027d2b f   user32:USER32.dll
 0001:00026d31       _CopyRect@8                10027d31 f   user32:USER32.dll
 0001:00026d37       _DrawFrameControl@16       10027d37 f   user32:USER32.dll
 0001:00026d3d       _DrawTextA@20              10027d3d f   user32:USER32.dll
 0001:00026d43       _RegisterWindowMessageA@4  10027d43 f   user32:USER32.dll
 0001:00026d49       _SendMessageA@16           10027d49 f   user32:USER32.dll
 0001:00026d4f       _GetParent@4               10027d4f f   user32:USER32.dll
 0001:00026d55       _GetSystemMetrics@4        10027d55 f   user32:USER32.dll
 0001:00026d5b       _DrawTextExA@24            10027d5b f   user32:USER32.dll
 0001:00026d61       _GrayStringA@36            10027d61 f   user32:USER32.dll
 0001:00026d67       _TabbedTextOutA@32         10027d67 f   user32:USER32.dll
 0001:00026d6d       _InvalidateRect@12         10027d6d f   user32:USER32.dll
 0001:00026d73       _GetClientRect@8           10027d73 f   user32:USER32.dll
 0001:00026d79       _GetSysColor@4             10027d79 f   user32:USER32.dll
 0001:00026d7f       _InflateRect@12            10027d7f f   user32:USER32.dll
 0001:00026d85       _DrawEdge@16               10027d85 f   user32:USER32.dll
 0001:00026d8b       _IsWindow@4                10027d8b f   user32:USER32.dll
 0001:00026d91       _GetFocus@0                10027d91 f   user32:USER32.dll
 0001:00026d97       _UpdateWindow@4            10027d97 f   user32:USER32.dll
 0001:00026d9d       _PtInRect@12               10027d9d f   user32:USER32.dll
 0001:00026da3       _PostMessageA@16           10027da3 f   user32:USER32.dll
 0001:00026da9       _GetNextDlgGroupItem@12    10027da9 f   user32:USER32.dll
 0001:00026daf       _GetCapture@0              10027daf f   user32:USER32.dll
 0001:00026db5       _ReleaseCapture@0          10027db5 f   user32:USER32.dll
 0001:00026dbb       _GetDC@4                   10027dbb f   user32:USER32.dll
 0001:00026dc1       _SetWindowRgn@12           10027dc1 f   user32:USER32.dll
 0001:00026dc7       _GetCursorPos@4            10027dc7 f   user32:USER32.dll
 0001:00026dcd       _ClientToScreen@8          10027dcd f   user32:USER32.dll
 0001:00026dd3       _WindowFromPoint@8         10027dd3 f   user32:USER32.dll
 0001:00026dd9       _DrawFocusRect@8           10027dd9 f   user32:USER32.dll
 0001:00026ddf       _OffsetRect@12             10027ddf f   user32:USER32.dll
 0001:00026de5       _GetWindowLongA@8          10027de5 f   user32:USER32.dll
 0001:00026deb       _LoadBitmapW@8             10027deb f   user32:USER32.dll
 0001:00026df1       _LoadImageA@24             10027df1 f   user32:USER32.dll
 0001:00026df7       _SetCapture@4              10027df7 f   user32:USER32.dll
 0001:00026dfd       _SetTimer@16               10027dfd f   user32:USER32.dll
 0001:00026e03       _KillTimer@8               10027e03 f   user32:USER32.dll
 0001:00026e09       _GetWindowRect@8           10027e09 f   user32:USER32.dll
 0001:00026e0f       _ScreenToClient@8          10027e0f f   user32:USER32.dll
 0001:00026e15       _SetRect@20                10027e15 f   user32:USER32.dll
 0001:00026e1b       _GetKeyState@4             10027e1b f   user32:USER32.dll
 0001:00026e21       _UnregisterClassA@8        10027e21 f   user32:USER32.dll
 0001:00026e27       _BitBlt@36                 10027e27 f   gdi32:GDI32.dll
 0001:00026e2d       _CreateCompatibleDC@4      10027e2d f   gdi32:GDI32.dll
 0001:00026e33       _Rectangle@20              10027e33 f   gdi32:GDI32.dll
 0001:00026e39       _SetBkColor@8              10027e39 f   gdi32:GDI32.dll
 0001:00026e3f       _SetTextColor@8            10027e3f f   gdi32:GDI32.dll
 0001:00026e45       _CreateRectRgn@16          10027e45 f   gdi32:GDI32.dll
 0001:00026e4b       _CreateCompatibleBitmap@12 10027e4b f   gdi32:GDI32.dll
 0001:00026e51       _Escape@20                 10027e51 f   gdi32:GDI32.dll
 0001:00026e57       _GetBkColor@4              10027e57 f   gdi32:GDI32.dll
 0001:00026e5d       _GetCurrentObject@8        10027e5d f   gdi32:GDI32.dll
 0001:00026e63       _GetTextExtentPoint32A@16  10027e63 f   gdi32:GDI32.dll
 0001:00026e69       _PtVisible@12              10027e69 f   gdi32:GDI32.dll
 0001:00026e6f       _RectVisible@8             10027e6f f   gdi32:GDI32.dll
 0001:00026e75       _GetObjectA@12             10027e75 f   gdi32:GDI32.dll
 0001:00026e7b       _TextOutA@20               10027e7b f   gdi32:GDI32.dll
 0001:00026e81       _ExtTextOutA@32            10027e81 f   gdi32:GDI32.dll
 0001:00026e87       _CreateFontIndirectA@4     10027e87 f   gdi32:GDI32.dll
 0001:00026e8d       _CombineRgn@16             10027e8d f   gdi32:GDI32.dll
 0001:00026e93       _DeleteDC@4                10027e93 f   gdi32:GDI32.dll
 0001:00026e99       _DeleteObject@4            10027e99 f   gdi32:GDI32.dll
 0001:00026e9f       _GetPixel@12               10027e9f f   gdi32:GDI32.dll
 0001:00026ea5       _SelectClipRgn@8           10027ea5 f   gdi32:GDI32.dll
 0001:00026eab       _SelectObject@8            10027eab f   gdi32:GDI32.dll
 0001:00026eb1       _StretchBlt@44             10027eb1 f   gdi32:GDI32.dll
 0001:00026eb7       _CreateDCA@16              10027eb7 f   gdi32:GDI32.dll
 0001:00026ebd       _CreatePen@12              10027ebd f   gdi32:GDI32.dll
 0001:00026ec3       _CreateSolidBrush@4        10027ec3 f   gdi32:GDI32.dll
 0001:00026ec9       _ImageList_SetBkColor@8    10027ec9 f   comctl32:COMCTL32.dll
 0001:00026ecf       _ImageList_GetBkColor@4    10027ecf f   comctl32:COMCTL32.dll
 0001:00026ed5       _ImageList_GetImageInfo@12 10027ed5 f   comctl32:COMCTL32.dll
 0001:00026edb       __TrackMouseEvent@4        10027edb f   comctl32:COMCTL32.dll
 0001:00026ee1       _ImageList_Draw@24         10027ee1 f   comctl32:COMCTL32.dll
 0001:00026ee7       ??$?2PAUHINSTANCE__@@@Wrapper@?$CSimpleArray@PAUHINSTANCE__@@V?$CSimpleArrayEqualHelper@PAUHINSTANCE__@@@ATL@@@ATL@@SAPAXIPAPAUHINSTANCE__@@@Z 10027ee7 f i atls:atlbase.obj
 0001:00026eef       ??0?$CComCritSecLock@VCComCriticalSection@ATL@@@ATL@@QAE@AAVCComCriticalSection@1@_N@Z 10027eef f i atls:atlbase.obj
 0001:00026f16       ??0?$CSimpleArray@PAUHINSTANCE__@@V?$CSimpleArrayEqualHelper@PAUHINSTANCE__@@@ATL@@@ATL@@QAE@XZ 10027f16 f i atls:atlbase.obj
 0001:00026f23       ??0CAtlBaseModule@ATL@@QAE@XZ 10027f23 f   atls:atlbase.obj
 0001:00026f76       ??0Wrapper@?$CSimpleArray@PAUHINSTANCE__@@V?$CSimpleArrayEqualHelper@PAUHINSTANCE__@@@ATL@@@ATL@@QAE@ABQAUHINSTANCE__@@@Z 10027f76 f i atls:atlbase.obj
 0001:00026f86       ??0_ATL_BASE_MODULE70@ATL@@QAE@XZ 10027f86 f i atls:atlbase.obj
 0001:00026fa9       ??1?$CComCritSecLock@VCComCriticalSection@ATL@@@ATL@@QAE@XZ 10027fa9 f i atls:atlbase.obj
 0001:00026fc0       ??1?$CSimpleArray@PAUHINSTANCE__@@V?$CSimpleArrayEqualHelper@PAUHINSTANCE__@@@ATL@@@ATL@@QAE@XZ 10027fc0 f i atls:atlbase.obj
 0001:00026fc5       ??1CAtlBaseModule@ATL@@QAE@XZ 10027fc5 f   atls:atlbase.obj
 0001:00026fdb       ??1_ATL_BASE_MODULE70@ATL@@QAE@XZ 10027fdb f i atls:atlbase.obj
 0001:00026fe3       ??A?$CSimpleArray@PAUHINSTANCE__@@V?$CSimpleArrayEqualHelper@PAUHINSTANCE__@@@ATL@@@ATL@@QAEAAPAUHINSTANCE__@@H@Z 10027fe3 f i atls:atlbase.obj
 0001:00027008       ?Add@?$CSimpleArray@PAUHINSTANCE__@@V?$CSimpleArrayEqualHelper@PAUHINSTANCE__@@@ATL@@@ATL@@QAEHABQAUHINSTANCE__@@@Z 10028008 f i atls:atlbase.obj
 0001:0002708a       ?AddResourceInstance@CAtlBaseModule@ATL@@QAE_NPAUHINSTANCE__@@@Z 1002808a f   atls:atlbase.obj
 0001:000270bd       ?AtlCrtErrorCheck@ATL@@YAHH@Z 100280bd f i atls:atlbase.obj
 0001:000270f8       ?GetHInstanceAt@CAtlBaseModule@ATL@@QAEPAUHINSTANCE__@@H@Z 100280f8 f   atls:atlbase.obj
 0001:0002713d       ?GetSize@?$CSimpleArray@PAUHINSTANCE__@@V?$CSimpleArrayEqualHelper@PAUHINSTANCE__@@@ATL@@@ATL@@QBEHXZ 1002813d f i atls:atlbase.obj
 0001:00027141       ?InternalSetAtIndex@?$CSimpleArray@PAUHINSTANCE__@@V?$CSimpleArrayEqualHelper@PAUHINSTANCE__@@@ATL@@@ATL@@QAEXHABQAUHINSTANCE__@@@Z 10028141 f i atls:atlbase.obj
 0001:0002715b       ?Lock@?$CComCritSecLock@VCComCriticalSection@ATL@@@ATL@@QAEJXZ 1002815b f i atls:atlbase.obj
 0001:0002716e       ?Lock@CComCriticalSection@ATL@@QAEJXZ 1002816e f i atls:atlbase.obj
 0001:00027178       ?RemoveAll@?$CSimpleArray@PAUHINSTANCE__@@V?$CSimpleArrayEqualHelper@PAUHINSTANCE__@@@ATL@@@ATL@@QAEXXZ 10028178 f i atls:atlbase.obj
 0001:00027195       ?RemoveAt@?$CSimpleArray@PAUHINSTANCE__@@V?$CSimpleArrayEqualHelper@PAUHINSTANCE__@@@ATL@@@ATL@@QAEHH@Z 10028195 f i atls:atlbase.obj
 0001:000271e3       ?RemoveResourceInstance@CAtlBaseModule@ATL@@QAE_NPAUHINSTANCE__@@@Z 100281e3 f   atls:atlbase.obj
 0001:00027240       ?Unlock@?$CComCritSecLock@VCComCriticalSection@ATL@@@ATL@@QAEXXZ 10028240 f i atls:atlbase.obj
 0001:00027251       ?Unlock@CComCriticalSection@ATL@@QAEJXZ 10028251 f i atls:atlbase.obj
 0001:0002725b       ?memmove_s@Checked@ATL@@YAXPAXIPBXI@Z 1002825b f i atls:atlbase.obj
 0001:000272f8       ??0?$CTraceCategoryEx@$00$0A@@ATL@@QAE@PB_W@Z 100282f8 f i atls:stdafx.obj
 0001:000272fd       ??0?$CTraceCategoryEx@$01$0A@@ATL@@QAE@PB_W@Z 100282fd f i atls:stdafx.obj
 0001:00027302       ??0?$CTraceCategoryEx@$03$0A@@ATL@@QAE@PB_W@Z 10028302 f i atls:stdafx.obj
 0001:00027307       ??0?$CTraceCategoryEx@$07$0A@@ATL@@QAE@PB_W@Z 10028307 f i atls:stdafx.obj
 0001:0002730c       ??0?$CTraceCategoryEx@$0BA@$0A@@ATL@@QAE@PB_W@Z 1002830c f i atls:stdafx.obj
 0001:00027311       ??0?$CTraceCategoryEx@$0BAA@$0A@@ATL@@QAE@PB_W@Z 10028311 f i atls:stdafx.obj
 0001:00027316       ??0?$CTraceCategoryEx@$0BAAA@$0A@@ATL@@QAE@PB_W@Z 10028316 f i atls:stdafx.obj
 0001:0002731b       ??0?$CTraceCategoryEx@$0BAAAA@$0A@@ATL@@QAE@PB_W@Z 1002831b f i atls:stdafx.obj
 0001:00027320       ??0?$CTraceCategoryEx@$0BAAAAA@$0A@@ATL@@QAE@PB_W@Z 10028320 f i atls:stdafx.obj
 0001:00027325       ??0?$CTraceCategoryEx@$0CA@$0A@@ATL@@QAE@PB_W@Z 10028325 f i atls:stdafx.obj
 0001:0002732a       ??0?$CTraceCategoryEx@$0CAA@$0A@@ATL@@QAE@PB_W@Z 1002832a f i atls:stdafx.obj
 0001:0002732f       ??0?$CTraceCategoryEx@$0CAAA@$0A@@ATL@@QAE@PB_W@Z 1002832f f i atls:stdafx.obj
 0001:00027334       ??0?$CTraceCategoryEx@$0CAAAA@$0A@@ATL@@QAE@PB_W@Z 10028334 f i atls:stdafx.obj
 0001:00027339       ??0?$CTraceCategoryEx@$0CAAAAA@$0A@@ATL@@QAE@PB_W@Z 10028339 f i atls:stdafx.obj
 0001:0002733e       ??0?$CTraceCategoryEx@$0EA@$0A@@ATL@@QAE@PB_W@Z 1002833e f i atls:stdafx.obj
 0001:00027343       ??0?$CTraceCategoryEx@$0EAA@$0A@@ATL@@QAE@PB_W@Z 10028343 f i atls:stdafx.obj
 0001:00027348       ??0?$CTraceCategoryEx@$0EAAA@$0A@@ATL@@QAE@PB_W@Z 10028348 f i atls:stdafx.obj
 0001:0002734d       ??0?$CTraceCategoryEx@$0EAAAA@$0A@@ATL@@QAE@PB_W@Z 1002834d f i atls:stdafx.obj
 0001:00027352       ??0?$CTraceCategoryEx@$0EAAAAA@$0A@@ATL@@QAE@PB_W@Z 10028352 f i atls:stdafx.obj
 0001:00027357       ??0?$CTraceCategoryEx@$0IA@$0A@@ATL@@QAE@PB_W@Z 10028357 f i atls:stdafx.obj
 0001:0002735c       ??0?$CTraceCategoryEx@$0IAA@$0A@@ATL@@QAE@PB_W@Z 1002835c f i atls:stdafx.obj
 0001:00027361       ??0?$CTraceCategoryEx@$0IAAA@$0A@@ATL@@QAE@PB_W@Z 10028361 f i atls:stdafx.obj
 0001:00027366       ??0?$CTraceCategoryEx@$0IAAAA@$0A@@ATL@@QAE@PB_W@Z 10028366 f i atls:stdafx.obj
 0001:0002736b       ??_I@YGXPAXIIP6EX0@Z@Z     1002836b f i atls:stdafx.obj
 0001:0002739e       _SysFreeString@4           1002839e f   oleaut32:OLEAUT32.dll
 0001:000273a4       ___CxxFrameHandler3        100283a4 f   vcruntime:VCRUNTIME140.dll
 0001:000273aa       ___std_terminate           100283aa f   vcruntime:VCRUNTIME140.dll
 0001:000273b0       _memcpy                    100283b0 f   vcruntime:VCRUNTIME140.dll
 0001:000273b6       _memset                    100283b6 f   vcruntime:VCRUNTIME140.dll
 0001:000273bc       _memmove                   100283bc f   vcruntime:VCRUNTIME140.dll
 0001:000273c2       ___current_exception       100283c2 f   vcruntime:VCRUNTIME140.dll
 0001:000273c8       ___current_exception_context 100283c8 f   vcruntime:VCRUNTIME140.dll
 0001:000273ce       __except_handler4_common   100283ce f   vcruntime:VCRUNTIME140.dll
 0001:000273d4       ___std_type_info_destroy_list 100283d4 f   vcruntime:VCRUNTIME140.dll
 0001:000273da       _isdigit                   100283da f   ucrt:api-ms-win-crt-string-l1-1-0.dll
 0001:000273e0       ___stdio_common_vsprintf   100283e0 f   ucrt:api-ms-win-crt-stdio-l1-1-0.dll
 0001:000273e6       ___stdio_common_vsscanf    100283e6 f   ucrt:api-ms-win-crt-stdio-l1-1-0.dll
 0001:000273ec       _atof                      100283ec f   ucrt:api-ms-win-crt-convert-l1-1-0.dll
 0001:000273f2       _atoi                      100283f2 f   ucrt:api-ms-win-crt-convert-l1-1-0.dll
 0001:000273f8       __libm_sse2_atan_precise   100283f8 f   ucrt:api-ms-win-crt-math-l1-1-0.dll
 0001:000273fe       __libm_sse2_exp_precise    100283fe f   ucrt:api-ms-win-crt-math-l1-1-0.dll
 0001:00027404       __libm_sse2_log_precise    10028404 f   ucrt:api-ms-win-crt-math-l1-1-0.dll
 0001:0002740a       __libm_sse2_pow_precise    1002840a f   ucrt:api-ms-win-crt-math-l1-1-0.dll
 0001:00027410       __libm_sse2_sqrt_precise   10028410 f   ucrt:api-ms-win-crt-math-l1-1-0.dll
 0001:00027416       __libm_sse2_tan_precise    10028416 f   ucrt:api-ms-win-crt-math-l1-1-0.dll
 0001:0002741c       _floor                     1002841c f   ucrt:api-ms-win-crt-math-l1-1-0.dll
 0001:00027422       _atol                      10028422 f   ucrt:api-ms-win-crt-convert-l1-1-0.dll
 0001:00027428       __invalid_parameter_noinfo 10028428 f   ucrt:api-ms-win-crt-runtime-l1-1-0.dll
 0001:0002742e       __errno                    1002842e f   ucrt:api-ms-win-crt-runtime-l1-1-0.dll
 0001:00027434       _free                      10028434 f   ucrt:api-ms-win-crt-heap-l1-1-0.dll
 0001:0002743a       __localtime64_s            1002843a f   ucrt:api-ms-win-crt-time-l1-1-0.dll
 0001:00027440       __mktime64                 10028440 f   ucrt:api-ms-win-crt-time-l1-1-0.dll
 0001:00027446       _strftime                  10028446 f   ucrt:api-ms-win-crt-time-l1-1-0.dll
 0001:0002744c       __time64                   1002844c f   ucrt:api-ms-win-crt-time-l1-1-0.dll
 0001:00027452       _terminate                 10028452 f   ucrt:api-ms-win-crt-runtime-l1-1-0.dll
 0001:00027458       __seh_filter_dll           10028458 f   ucrt:api-ms-win-crt-runtime-l1-1-0.dll
 0001:0002745e       __configure_narrow_argv    1002845e f   ucrt:api-ms-win-crt-runtime-l1-1-0.dll
 0001:00027464       __initialize_narrow_environment 10028464 f   ucrt:api-ms-win-crt-runtime-l1-1-0.dll
 0001:0002746a       __initialize_onexit_table  1002846a f   ucrt:api-ms-win-crt-runtime-l1-1-0.dll
 0001:00027470       __register_onexit_function 10028470 f   ucrt:api-ms-win-crt-runtime-l1-1-0.dll
 0001:00027476       __execute_onexit_table     10028476 f   ucrt:api-ms-win-crt-runtime-l1-1-0.dll
 0001:0002747c       __crt_atexit               1002847c f   ucrt:api-ms-win-crt-runtime-l1-1-0.dll
 0001:00027482       __crt_at_quick_exit        10028482 f   ucrt:api-ms-win-crt-runtime-l1-1-0.dll
 0001:00027488       __cexit                    10028488 f   ucrt:api-ms-win-crt-runtime-l1-1-0.dll
 0001:0002748e       __initterm                 1002848e f   ucrt:api-ms-win-crt-runtime-l1-1-0.dll
 0001:00027494       __initterm_e               10028494 f   ucrt:api-ms-win-crt-runtime-l1-1-0.dll
 0001:0002749a       __recalloc                 1002849a f   ucrt:api-ms-win-crt-heap-l1-1-0.dll
 0001:000274a0       __chmod                    100284a0 f   ucrt:api-ms-win-crt-filesystem-l1-1-0.dll
 0001:000274a6       ?Delete@CException@@QAEXXZ 100284a6 f   mfc140:mfc140.dll
 0001:000274ac       ??0AFX_MODULE_STATE@@QAE@HP6GJPAUHWND__@@IIJ@ZKH@Z 100284ac f   mfc140:mfc140.dll
 0001:000274b2       ??1AFX_MODULE_STATE@@UAE@XZ 100284b2 f   mfc140:mfc140.dll
 0001:000274b8       ?AfxSetModuleState@@YGPAVAFX_MODULE_STATE@@PAV1@@Z 100284b8 f   mfc140:mfc140.dll
 0001:000274be       ??0AFX_MAINTAIN_STATE2@@QAE@PAVAFX_MODULE_STATE@@@Z 100284be f   mfc140:mfc140.dll
 0001:000274c4       ??1AFX_MAINTAIN_STATE2@@QAE@XZ 100284c4 f   mfc140:mfc140.dll
 0001:000274ca       ?AfxWinInit@@YGHPAUHINSTANCE__@@0PADH@Z 100284ca f   mfc140:mfc140.dll
 0001:000274d0       ?AfxWndProc@@YGJPAUHWND__@@IIJ@Z 100284d0 f   mfc140:mfc140.dll
 0001:000274d6       ?AfxTermThread@@YGXPAUHINSTANCE__@@@Z 100284d6 f   mfc140:mfc140.dll
 0001:000274dc       ?AfxWinTerm@@YGXXZ         100284dc f   mfc140:mfc140.dll
 0001:000274e2       ??0CDynLinkLibrary@@QAE@AAUAFX_EXTENSION_MODULE@@H@Z 100284e2 f   mfc140:mfc140.dll
 0001:000274e8       ?AfxInitExtensionModule@@YGHAAUAFX_EXTENSION_MODULE@@PAUHINSTANCE__@@@Z 100284e8 f   mfc140:mfc140.dll
 0001:000274ee       ?AfxTermExtensionModule@@YGXAAUAFX_EXTENSION_MODULE@@H@Z 100284ee f   mfc140:mfc140.dll
 0001:000274f4       ?AfxCoreInitModule@@YGXXZ  100284f4 f   mfc140:mfc140.dll
 0001:000274fa       ?AfxLockTempMaps@@YGXXZ    100284fa f   mfc140:mfc140.dll
 0001:00027500       ?AfxUnlockTempMaps@@YGHH@Z 10028500 f   mfc140:mfc140.dll
 0001:00027506       ??0CDynLinkLibrary@@QAE@PAUHINSTANCE__@@0@Z 10028506 f   mfc140:mfc140.dll
 0001:0002750c       __RawDllMainProxy@12       1002850c f   mfcs140:rawdllmainproxy.obj
 0001:00027657       _OutputDebugStringW@4      10028657 f   kernel32:KERNEL32.dll
 0001:0002765d       ___scrt_stub_for_acrt_initialize 1002865d f   msvcrt:ucrt_stubs.obj
 0001:0002765d       ___acrt_initialize         1002865d f   msvcrt:ucrt_stubs.obj
 0001:0002765d       ___vcrt_initialize         1002865d f   msvcrt:ucrt_stubs.obj
 0001:00027660       ___vcrt_thread_attach      10028660 f   msvcrt:ucrt_stubs.obj
 0001:00027660       ___acrt_thread_attach      10028660 f   msvcrt:ucrt_stubs.obj
 0001:00027660       ___scrt_stub_for_acrt_thread_attach 10028660 f   msvcrt:ucrt_stubs.obj
 0001:00027663       ___vcrt_thread_detach      10028663 f   msvcrt:ucrt_stubs.obj
 0001:00027663       ___scrt_stub_for_acrt_thread_detach 10028663 f   msvcrt:ucrt_stubs.obj
 0001:00027663       ___acrt_thread_detach      10028663 f   msvcrt:ucrt_stubs.obj
 0001:00027666       ___acrt_uninitialize       10028666 f   msvcrt:ucrt_stubs.obj
 0001:00027666       ___vcrt_uninitialize       10028666 f   msvcrt:ucrt_stubs.obj
 0001:00027666       ___scrt_stub_for_acrt_uninitialize 10028666 f   msvcrt:ucrt_stubs.obj
 0001:00027669       ___acrt_uninitialize_critical 10028669 f   msvcrt:ucrt_stubs.obj
 0001:00027669       ___vcrt_uninitialize_critical 10028669 f   msvcrt:ucrt_stubs.obj
 0001:00027669       ___scrt_stub_for_acrt_uninitialize_critical 10028669 f   msvcrt:ucrt_stubs.obj
 0001:0002766c       __is_c_termination_complete 1002866c f   msvcrt:ucrt_stubs.obj
 0001:0002766c       ___scrt_stub_for_is_c_termination_complete 1002866c f   msvcrt:ucrt_stubs.obj
 0001:0002766f       __filter_x86_sse2_floating_point_exception 1002866f f   msvcrt:x86_exception_filter.obj
 0001:0002766f       __filter_x86_sse2_floating_point_exception_default 1002866f f   msvcrt:x86_exception_filter.obj
 0001:0002b450       ??__FstrHeap@?1??GetInstance@CAtlStringMgr@ATL@@SAPAUIAtlStringMgr@2@XZ@YAXXZ 1002c450 f i StdAfx.obj
 0001:0002b480       ??__FstrMgr@?1??GetInstance@CAtlStringMgr@ATL@@SAPAUIAtlStringMgr@2@XZ@YAXXZ 1002c480 f i StdAfx.obj
 0002:00000000       __imp__ImageList_SetBkColor@8 1002d000     comctl32:COMCTL32.dll
 0002:00000004       __imp__ImageList_GetImageInfo@12 1002d004     comctl32:COMCTL32.dll
 0002:00000008       __imp___TrackMouseEvent@4  1002d008     comctl32:COMCTL32.dll
 0002:0000000c       __imp__ImageList_Draw@24   1002d00c     comctl32:COMCTL32.dll
 0002:00000010       __imp__ImageList_GetBkColor@4 1002d010     comctl32:COMCTL32.dll
 0002:00000014       \177COMCTL32_NULL_THUNK_DATA 1002d014     comctl32:COMCTL32.dll
 0002:00000018       __imp__CreateCompatibleBitmap@12 1002d018     gdi32:GDI32.dll
 0002:0000001c       __imp__Escape@20           1002d01c     gdi32:GDI32.dll
 0002:00000020       __imp__GetBkColor@4        1002d020     gdi32:GDI32.dll
 0002:00000024       __imp__SetTextColor@8      1002d024     gdi32:GDI32.dll
 0002:00000028       __imp__GetTextExtentPoint32A@16 1002d028     gdi32:GDI32.dll
 0002:0000002c       __imp__PtVisible@12        1002d02c     gdi32:GDI32.dll
 0002:00000030       __imp__RectVisible@8       1002d030     gdi32:GDI32.dll
 0002:00000034       __imp__CreateRectRgn@16    1002d034     gdi32:GDI32.dll
 0002:00000038       __imp__SetBkColor@8        1002d038     gdi32:GDI32.dll
 0002:0000003c       __imp__Rectangle@20        1002d03c     gdi32:GDI32.dll
 0002:00000040       __imp__CreateCompatibleDC@4 1002d040     gdi32:GDI32.dll
 0002:00000044       __imp__GetCurrentObject@8  1002d044     gdi32:GDI32.dll
 0002:00000048       __imp__StretchBlt@44       1002d048     gdi32:GDI32.dll
 0002:0000004c       __imp__GetObjectA@12       1002d04c     gdi32:GDI32.dll
 0002:00000050       __imp__CreateSolidBrush@4  1002d050     gdi32:GDI32.dll
 0002:00000054       __imp__CreatePen@12        1002d054     gdi32:GDI32.dll
 0002:00000058       __imp__CreateDCA@16        1002d058     gdi32:GDI32.dll
 0002:0000005c       __imp__BitBlt@36           1002d05c     gdi32:GDI32.dll
 0002:00000060       __imp__SelectObject@8      1002d060     gdi32:GDI32.dll
 0002:00000064       __imp__SelectClipRgn@8     1002d064     gdi32:GDI32.dll
 0002:00000068       __imp__GetPixel@12         1002d068     gdi32:GDI32.dll
 0002:0000006c       __imp__DeleteObject@4      1002d06c     gdi32:GDI32.dll
 0002:00000070       __imp__DeleteDC@4          1002d070     gdi32:GDI32.dll
 0002:00000074       __imp__CombineRgn@16       1002d074     gdi32:GDI32.dll
 0002:00000078       __imp__CreateFontIndirectA@4 1002d078     gdi32:GDI32.dll
 0002:0000007c       __imp__ExtTextOutA@32      1002d07c     gdi32:GDI32.dll
 0002:00000080       __imp__TextOutA@20         1002d080     gdi32:GDI32.dll
 0002:00000084       \177GDI32_NULL_THUNK_DATA  1002d084     gdi32:GDI32.dll
 0002:00000088       __imp__HeapSize@12         1002d088     kernel32:KERNEL32.dll
 0002:0000008c       __imp__HeapFree@12         1002d08c     kernel32:KERNEL32.dll
 0002:00000090       __imp__HeapReAlloc@16      1002d090     kernel32:KERNEL32.dll
 0002:00000094       __imp__HeapAlloc@12        1002d094     kernel32:KERNEL32.dll
 0002:00000098       __imp__HeapDestroy@4       1002d098     kernel32:KERNEL32.dll
 0002:0000009c       __imp__GetLastError@0      1002d09c     kernel32:KERNEL32.dll
 0002:000000a0       __imp__RaiseException@16   1002d0a0     kernel32:KERNEL32.dll
 0002:000000a4       __imp__DecodePointer@4     1002d0a4     kernel32:KERNEL32.dll
 0002:000000a8       __imp__WritePrivateProfileStringA@16 1002d0a8     kernel32:KERNEL32.dll
 0002:000000ac       __imp__GetPrivateProfileStringA@24 1002d0ac     kernel32:KERNEL32.dll
 0002:000000b0       __imp__GetModuleHandleA@4  1002d0b0     kernel32:KERNEL32.dll
 0002:000000b4       __imp__GetEnvironmentVariableA@12 1002d0b4     kernel32:KERNEL32.dll
 0002:000000b8       __imp__OutputDebugStringW@4 1002d0b8     kernel32:KERNEL32.dll
 0002:000000bc       __imp__GetProcessHeap@0    1002d0bc     kernel32:KERNEL32.dll
 0002:000000c0       __imp__InitializeCriticalSectionEx@12 1002d0c0     kernel32:KERNEL32.dll
 0002:000000c4       __imp__DeleteCriticalSection@4 1002d0c4     kernel32:KERNEL32.dll
 0002:000000c8       __imp__GetWindowsDirectoryA@8 1002d0c8     kernel32:KERNEL32.dll
 0002:000000cc       __imp__GetPrivateProfileIntA@16 1002d0cc     kernel32:KERNEL32.dll
 0002:000000d0       __imp__SetCurrentDirectoryA@4 1002d0d0     kernel32:KERNEL32.dll
 0002:000000d4       __imp__GetCurrentDirectoryA@8 1002d0d4     kernel32:KERNEL32.dll
 0002:000000d8       __imp__lstrcpynA@12        1002d0d8     kernel32:KERNEL32.dll
 0002:000000dc       __imp__lstrcatA@8          1002d0dc     kernel32:KERNEL32.dll
 0002:000000e0       __imp__lstrlenA@4          1002d0e0     kernel32:KERNEL32.dll
 0002:000000e4       __imp__FreeLibrary@4       1002d0e4     kernel32:KERNEL32.dll
 0002:000000e8       __imp__GetModuleFileNameA@12 1002d0e8     kernel32:KERNEL32.dll
 0002:000000ec       __imp__GetProcAddress@8    1002d0ec     kernel32:KERNEL32.dll
 0002:000000f0       __imp__LoadLibraryA@4      1002d0f0     kernel32:KERNEL32.dll
 0002:000000f4       __imp__OutputDebugStringA@4 1002d0f4     kernel32:KERNEL32.dll
 0002:000000f8       __imp__SetLastError@4      1002d0f8     kernel32:KERNEL32.dll
 0002:000000fc       __imp__InitializeCriticalSectionAndSpinCount@8 1002d0fc     kernel32:KERNEL32.dll
 0002:00000100       __imp__GetModuleFileNameW@12 1002d100     kernel32:KERNEL32.dll
 0002:00000104       __imp__GetModuleHandleW@4  1002d104     kernel32:KERNEL32.dll
 0002:00000108       __imp__LoadLibraryW@4      1002d108     kernel32:KERNEL32.dll
 0002:0000010c       __imp__LocalAlloc@8        1002d10c     kernel32:KERNEL32.dll
 0002:00000110       __imp__LocalFree@4         1002d110     kernel32:KERNEL32.dll
 0002:00000114       __imp__CloseHandle@4       1002d114     kernel32:KERNEL32.dll
 0002:00000118       __imp__EnterCriticalSection@4 1002d118     kernel32:KERNEL32.dll
 0002:0000011c       __imp__LeaveCriticalSection@4 1002d11c     kernel32:KERNEL32.dll
 0002:00000120       __imp__SetEvent@4          1002d120     kernel32:KERNEL32.dll
 0002:00000124       __imp__GetSystemTime@4     1002d124     kernel32:KERNEL32.dll
 0002:00000128       __imp__ResetEvent@4        1002d128     kernel32:KERNEL32.dll
 0002:0000012c       __imp__WaitForSingleObjectEx@12 1002d12c     kernel32:KERNEL32.dll
 0002:00000130       __imp__CreateEventW@16     1002d130     kernel32:KERNEL32.dll
 0002:00000134       __imp__UnhandledExceptionFilter@4 1002d134     kernel32:KERNEL32.dll
 0002:00000138       __imp__SetUnhandledExceptionFilter@4 1002d138     kernel32:KERNEL32.dll
 0002:0000013c       __imp__GetCurrentProcess@0 1002d13c     kernel32:KERNEL32.dll
 0002:00000140       __imp__TerminateProcess@8  1002d140     kernel32:KERNEL32.dll
 0002:00000144       __imp__IsProcessorFeaturePresent@4 1002d144     kernel32:KERNEL32.dll
 0002:00000148       __imp__IsDebuggerPresent@0 1002d148     kernel32:KERNEL32.dll
 0002:0000014c       __imp__GetStartupInfoW@4   1002d14c     kernel32:KERNEL32.dll
 0002:00000150       __imp__QueryPerformanceCounter@4 1002d150     kernel32:KERNEL32.dll
 0002:00000154       __imp__GetCurrentProcessId@0 1002d154     kernel32:KERNEL32.dll
 0002:00000158       __imp__GetCurrentThreadId@0 1002d158     kernel32:KERNEL32.dll
 0002:0000015c       __imp__GetSystemTimeAsFileTime@4 1002d15c     kernel32:KERNEL32.dll
 0002:00000160       __imp__InitializeSListHead@4 1002d160     kernel32:KERNEL32.dll
 0002:00000164       \177KERNEL32_NULL_THUNK_DATA 1002d164     kernel32:KERNEL32.dll
 0002:00000168       __imp__SysFreeString@4     1002d168     oleaut32:OLEAUT32.dll
 0002:0000016c       \177OLEAUT32_NULL_THUNK_DATA 1002d16c     oleaut32:OLEAUT32.dll
 0002:00000170       __imp__CopyRect@8          1002d170     user32:USER32.dll
 0002:00000174       __imp__DrawFrameControl@16 1002d174     user32:USER32.dll
 0002:00000178       __imp__DrawTextA@20        1002d178     user32:USER32.dll
 0002:0000017c       __imp__RegisterWindowMessageA@4 1002d17c     user32:USER32.dll
 0002:00000180       __imp__SendMessageA@16     1002d180     user32:USER32.dll
 0002:00000184       __imp__GetParent@4         1002d184     user32:USER32.dll
 0002:00000188       __imp__GetSystemMetrics@4  1002d188     user32:USER32.dll
 0002:0000018c       __imp__DrawTextExA@24      1002d18c     user32:USER32.dll
 0002:00000190       __imp__GrayStringA@36      1002d190     user32:USER32.dll
 0002:00000194       __imp__TabbedTextOutA@32   1002d194     user32:USER32.dll
 0002:00000198       __imp__InvalidateRect@12   1002d198     user32:USER32.dll
 0002:0000019c       __imp__GetClientRect@8     1002d19c     user32:USER32.dll
 0002:000001a0       __imp__GetSysColor@4       1002d1a0     user32:USER32.dll
 0002:000001a4       __imp__InflateRect@12      1002d1a4     user32:USER32.dll
 0002:000001a8       __imp__DrawEdge@16         1002d1a8     user32:USER32.dll
 0002:000001ac       __imp__GetFocus@0          1002d1ac     user32:USER32.dll
 0002:000001b0       __imp__UpdateWindow@4      1002d1b0     user32:USER32.dll
 0002:000001b4       __imp__PtInRect@12         1002d1b4     user32:USER32.dll
 0002:000001b8       __imp__PostMessageA@16     1002d1b8     user32:USER32.dll
 0002:000001bc       __imp__EnableWindow@8      1002d1bc     user32:USER32.dll
 0002:000001c0       __imp__GetCapture@0        1002d1c0     user32:USER32.dll
 0002:000001c4       __imp__ReleaseCapture@0    1002d1c4     user32:USER32.dll
 0002:000001c8       __imp__GetDC@4             1002d1c8     user32:USER32.dll
 0002:000001cc       __imp__SetWindowRgn@12     1002d1cc     user32:USER32.dll
 0002:000001d0       __imp__GetCursorPos@4      1002d1d0     user32:USER32.dll
 0002:000001d4       __imp__ClientToScreen@8    1002d1d4     user32:USER32.dll
 0002:000001d8       __imp__WindowFromPoint@8   1002d1d8     user32:USER32.dll
 0002:000001dc       __imp__DrawFocusRect@8     1002d1dc     user32:USER32.dll
 0002:000001e0       __imp__OffsetRect@12       1002d1e0     user32:USER32.dll
 0002:000001e4       __imp__GetWindowLongA@8    1002d1e4     user32:USER32.dll
 0002:000001e8       __imp__LoadBitmapW@8       1002d1e8     user32:USER32.dll
 0002:000001ec       __imp__LoadImageA@24       1002d1ec     user32:USER32.dll
 0002:000001f0       __imp__SetCapture@4        1002d1f0     user32:USER32.dll
 0002:000001f4       __imp__SetTimer@16         1002d1f4     user32:USER32.dll
 0002:000001f8       __imp__KillTimer@8         1002d1f8     user32:USER32.dll
 0002:000001fc       __imp__GetWindowRect@8     1002d1fc     user32:USER32.dll
 0002:00000200       __imp__ScreenToClient@8    1002d200     user32:USER32.dll
 0002:00000204       __imp__SetRect@20          1002d204     user32:USER32.dll
 0002:00000208       __imp__GetKeyState@4       1002d208     user32:USER32.dll
 0002:0000020c       __imp__UnregisterClassA@8  1002d20c     user32:USER32.dll
 0002:00000210       __imp__GetNextDlgGroupItem@12 1002d210     user32:USER32.dll
 0002:00000214       __imp__FrameRect@12        1002d214     user32:USER32.dll
 0002:00000218       __imp__IsWindow@4          1002d218     user32:USER32.dll
 0002:0000021c       \177USER32_NULL_THUNK_DATA 1002d21c     user32:USER32.dll
 0002:00000220       __imp____std_terminate     1002d220     vcruntime:VCRUNTIME140.dll
 0002:00000224       __imp__memcpy              1002d224     vcruntime:VCRUNTIME140.dll
 0002:00000228       __imp__memset              1002d228     vcruntime:VCRUNTIME140.dll
 0002:0000022c       __imp__memmove             1002d22c     vcruntime:VCRUNTIME140.dll
 0002:00000230       __imp____CxxFrameHandler3  1002d230     vcruntime:VCRUNTIME140.dll
 0002:00000234       __imp____current_exception_context 1002d234     vcruntime:VCRUNTIME140.dll
 0002:00000238       __imp___except_handler4_common 1002d238     vcruntime:VCRUNTIME140.dll
 0002:0000023c       __imp____std_type_info_destroy_list 1002d23c     vcruntime:VCRUNTIME140.dll
 0002:00000240       __imp____current_exception 1002d240     vcruntime:VCRUNTIME140.dll
 0002:00000244       \177VCRUNTIME140_NULL_THUNK_DATA 1002d244     vcruntime:VCRUNTIME140.dll
 0002:00000248       __imp__sndPlaySoundA@8     1002d248     Winmm:WINMM.dll
 0002:0000024c       \177WINMM_NULL_THUNK_DATA  1002d24c     Winmm:WINMM.dll
 0002:00000250       __imp__atoi                1002d250     ucrt:api-ms-win-crt-convert-l1-1-0.dll
 0002:00000254       __imp__atol                1002d254     ucrt:api-ms-win-crt-convert-l1-1-0.dll
 0002:00000258       __imp__atof                1002d258     ucrt:api-ms-win-crt-convert-l1-1-0.dll
 0002:0000025c       \177api-ms-win-crt-convert-l1-1-0_NULL_THUNK_DATA 1002d25c     ucrt:api-ms-win-crt-convert-l1-1-0.dll
 0002:00000260       __imp___chmod              1002d260     ucrt:api-ms-win-crt-filesystem-l1-1-0.dll
 0002:00000260       __imp__chmod               1002d260     ucrt:api-ms-win-crt-filesystem-l1-1-0.dll
 0002:00000264       \177api-ms-win-crt-filesystem-l1-1-0_NULL_THUNK_DATA 1002d264     ucrt:api-ms-win-crt-filesystem-l1-1-0.dll
 0002:00000268       __imp___recalloc           1002d268     ucrt:api-ms-win-crt-heap-l1-1-0.dll
 0002:0000026c       __imp__free                1002d26c     ucrt:api-ms-win-crt-heap-l1-1-0.dll
 0002:00000270       \177api-ms-win-crt-heap-l1-1-0_NULL_THUNK_DATA 1002d270     ucrt:api-ms-win-crt-heap-l1-1-0.dll
 0002:00000274       __imp___libm_sse2_sqrt_precise 1002d274     ucrt:api-ms-win-crt-math-l1-1-0.dll
 0002:00000278       __imp___libm_sse2_tan_precise 1002d278     ucrt:api-ms-win-crt-math-l1-1-0.dll
 0002:0000027c       __imp__floor               1002d27c     ucrt:api-ms-win-crt-math-l1-1-0.dll
 0002:00000280       __imp___libm_sse2_pow_precise 1002d280     ucrt:api-ms-win-crt-math-l1-1-0.dll
 0002:00000284       __imp___libm_sse2_log_precise 1002d284     ucrt:api-ms-win-crt-math-l1-1-0.dll
 0002:00000288       __imp___libm_sse2_atan_precise 1002d288     ucrt:api-ms-win-crt-math-l1-1-0.dll
 0002:0000028c       __imp___libm_sse2_exp_precise 1002d28c     ucrt:api-ms-win-crt-math-l1-1-0.dll
 0002:00000290       \177api-ms-win-crt-math-l1-1-0_NULL_THUNK_DATA 1002d290     ucrt:api-ms-win-crt-math-l1-1-0.dll
 0002:00000294       __imp___configure_narrow_argv 1002d294     ucrt:api-ms-win-crt-runtime-l1-1-0.dll
 0002:00000298       __imp___seh_filter_dll     1002d298     ucrt:api-ms-win-crt-runtime-l1-1-0.dll
 0002:0000029c       __imp__terminate           1002d29c     ucrt:api-ms-win-crt-runtime-l1-1-0.dll
 0002:000002a0       __imp___initialize_onexit_table 1002d2a0     ucrt:api-ms-win-crt-runtime-l1-1-0.dll
 0002:000002a4       __imp___initterm_e         1002d2a4     ucrt:api-ms-win-crt-runtime-l1-1-0.dll
 0002:000002a8       __imp___initterm           1002d2a8     ucrt:api-ms-win-crt-runtime-l1-1-0.dll
 0002:000002ac       __imp___register_onexit_function 1002d2ac     ucrt:api-ms-win-crt-runtime-l1-1-0.dll
 0002:000002b0       __imp___execute_onexit_table 1002d2b0     ucrt:api-ms-win-crt-runtime-l1-1-0.dll
 0002:000002b4       __imp___errno              1002d2b4     ucrt:api-ms-win-crt-runtime-l1-1-0.dll
 0002:000002b8       __imp___invalid_parameter_noinfo 1002d2b8     ucrt:api-ms-win-crt-runtime-l1-1-0.dll
 0002:000002bc       __imp___initialize_narrow_environment 1002d2bc     ucrt:api-ms-win-crt-runtime-l1-1-0.dll
 0002:000002c0       __imp___crt_atexit         1002d2c0     ucrt:api-ms-win-crt-runtime-l1-1-0.dll
 0002:000002c4       __imp___crt_at_quick_exit  1002d2c4     ucrt:api-ms-win-crt-runtime-l1-1-0.dll
 0002:000002c8       __imp___cexit              1002d2c8     ucrt:api-ms-win-crt-runtime-l1-1-0.dll
 0002:000002cc       \177api-ms-win-crt-runtime-l1-1-0_NULL_THUNK_DATA 1002d2cc     ucrt:api-ms-win-crt-runtime-l1-1-0.dll
 0002:000002d0       __imp____stdio_common_vsprintf 1002d2d0     ucrt:api-ms-win-crt-stdio-l1-1-0.dll
 0002:000002d4       __imp____stdio_common_vsscanf 1002d2d4     ucrt:api-ms-win-crt-stdio-l1-1-0.dll
 0002:000002d8       \177api-ms-win-crt-stdio-l1-1-0_NULL_THUNK_DATA 1002d2d8     ucrt:api-ms-win-crt-stdio-l1-1-0.dll
 0002:000002dc       __imp__isdigit             1002d2dc     ucrt:api-ms-win-crt-string-l1-1-0.dll
 0002:000002e0       \177api-ms-win-crt-string-l1-1-0_NULL_THUNK_DATA 1002d2e0     ucrt:api-ms-win-crt-string-l1-1-0.dll
 0002:000002e4       __imp__strftime            1002d2e4     ucrt:api-ms-win-crt-time-l1-1-0.dll
 0002:000002e8       __imp___localtime64_s      1002d2e8     ucrt:api-ms-win-crt-time-l1-1-0.dll
 0002:000002ec       __imp___mktime64           1002d2ec     ucrt:api-ms-win-crt-time-l1-1-0.dll
 0002:000002f0       __imp___time64             1002d2f0     ucrt:api-ms-win-crt-time-l1-1-0.dll
 0002:000002f4       \177api-ms-win-crt-time-l1-1-0_NULL_THUNK_DATA 1002d2f4     ucrt:api-ms-win-crt-time-l1-1-0.dll
 0002:000002f8       __imp_?Create@CHeaderCtrl@@UAEHKABUtagRECT@@PAVCWnd@@I@Z 1002d2f8     mfc140:mfc140.dll
 0002:000002fc       __imp_?CreateEx@CHeaderCtrl@@UAEHKKABUtagRECT@@PAVCWnd@@I@Z 1002d2fc     mfc140:mfc140.dll
 0002:00000300       __imp_?DrawItem@CHeaderCtrl@@UAEXPAUtagDRAWITEMSTRUCT@@@Z 1002d300     mfc140:mfc140.dll
 0002:00000304       __imp_??1CHeaderCtrl@@UAE@XZ 1002d304     mfc140:mfc140.dll
 0002:00000308       __imp_?OnChildNotify@CHeaderCtrl@@MAEHIIJPAJ@Z 1002d308     mfc140:mfc140.dll
 0002:0000030c       __imp_??_U@YAPAXI@Z        1002d30c     mfc140:mfc140.dll
 0002:00000310       __imp_?AfxThrowInvalidArgException@@YGXXZ 1002d310     mfc140:mfc140.dll
 0002:00000314       __imp_?GetRuntimeClass@CFont@@UBEPAUCRuntimeClass@@XZ 1002d314     mfc140:mfc140.dll
 0002:00000318       __imp_?SetBkMode@CDC@@QAEHH@Z 1002d318     mfc140:mfc140.dll
 0002:0000031c       __imp_??0CImageList@@QAE@XZ 1002d31c     mfc140:mfc140.dll
 0002:00000320       __imp_??1CImageList@@UAE@XZ 1002d320     mfc140:mfc140.dll
 0002:00000324       __imp_?SubclassWindow@CWnd@@QAEHPAUHWND__@@@Z 1002d324     mfc140:mfc140.dll
 0002:00000328       __imp_?MoveWindow@CWnd@@QAEXHHHHH@Z 1002d328     mfc140:mfc140.dll
 0002:0000032c       __imp_?SetFocus@CWnd@@QAEPAV1@XZ 1002d32c     mfc140:mfc140.dll
 0002:00000330       __imp_?OnDestroy@CWnd@@IAEXXZ 1002d330     mfc140:mfc140.dll
 0002:00000334       __imp_?Create@CEdit@@QAEHKABUtagRECT@@PAVCWnd@@I@Z 1002d334     mfc140:mfc140.dll
 0002:00000338       __imp_?GetRuntimeClass@CListCtrl@@UBEPAUCRuntimeClass@@XZ 1002d338     mfc140:mfc140.dll
 0002:0000033c       __imp_?SetItem@CListCtrl@@QAEHHHIPBDHIIJ@Z 1002d33c     mfc140:mfc140.dll
 0002:00000340       __imp_?GetItemRect@CListCtrl@@QBEHHPAUtagRECT@@I@Z 1002d340     mfc140:mfc140.dll
 0002:00000344       __imp_?SetItemState@CListCtrl@@QAEHHII@Z 1002d344     mfc140:mfc140.dll
 0002:00000348       __imp_?GetItemText@CListCtrl@@QBE?AV?$CStringT@DV?$StrTraitMFC_DLL@DV?$ChTraitsCRT@D@ATL@@@@@ATL@@HH@Z 1002d348     mfc140:mfc140.dll
 0002:0000034c       __imp_?SetItemText@CListCtrl@@QAEHHHPBD@Z 1002d34c     mfc140:mfc140.dll
 0002:00000350       __imp_?GetItemData@CListCtrl@@QBEKH@Z 1002d350     mfc140:mfc140.dll
 0002:00000354       __imp_?GetHeaderCtrl@CListCtrl@@QBEPAVCHeaderCtrl@@XZ 1002d354     mfc140:mfc140.dll
 0002:00000358       __imp_?GetSubItemRect@CListCtrl@@QBEHHHHAAVCRect@@@Z 1002d358     mfc140:mfc140.dll
 0002:0000035c       __imp_?DrawItem@CListCtrl@@UAEXPAUtagDRAWITEMSTRUCT@@@Z 1002d35c     mfc140:mfc140.dll
 0002:00000360       __imp_?InsertItem@CListCtrl@@QAEHIHPBDIIHJ@Z 1002d360     mfc140:mfc140.dll
 0002:00000364       __imp_??1CListCtrl@@UAE@XZ 1002d364     mfc140:mfc140.dll
 0002:00000368       __imp_?OnChildNotify@CListCtrl@@MAEHIIJPAJ@Z 1002d368     mfc140:mfc140.dll
 0002:0000036c       __imp_?GetThisMessageMap@CListCtrl@@KGPBUAFX_MSGMAP@@XZ 1002d36c     mfc140:mfc140.dll
 0002:00000370       __imp_?GetMessageMap@CListCtrl@@MBEPBUAFX_MSGMAP@@XZ 1002d370     mfc140:mfc140.dll
 0002:00000374       __imp_?DeleteDC@CDC@@QAEHXZ 1002d374     mfc140:mfc140.dll
 0002:00000378       __imp_?ModifyStyle@CWnd@@QAEHKKI@Z 1002d378     mfc140:mfc140.dll
 0002:0000037c       __imp_?SetWindowPos@CWnd@@QAEHPBV1@HHHHI@Z 1002d37c     mfc140:mfc140.dll
 0002:00000380       __imp_?AfxFindResourceHandle@@YGPAUHINSTANCE__@@PBD0@Z 1002d380     mfc140:mfc140.dll
 0002:00000384       __imp_??0CToolTipCtrl@@QAE@XZ 1002d384     mfc140:mfc140.dll
 0002:00000388       __imp_?AddTool@CToolTipCtrl@@QAEHPAVCWnd@@PBDPBUtagRECT@@I@Z 1002d388     mfc140:mfc140.dll
 0002:0000038c       __imp_?UpdateTipText@CToolTipCtrl@@QAEXPBDPAVCWnd@@I@Z 1002d38c     mfc140:mfc140.dll
 0002:00000390       __imp_??1CToolTipCtrl@@UAE@XZ 1002d390     mfc140:mfc140.dll
 0002:00000394       __imp_??_V@YAXPAX@Z        1002d394     mfc140:mfc140.dll
 0002:00000398       __imp_?AfxThrowMemoryException@@YGXXZ 1002d398     mfc140:mfc140.dll
 0002:0000039c       __imp_?AfxThrowArchiveException@@YGXHPBD@Z 1002d39c     mfc140:mfc140.dll
 0002:000003a0       __imp_?GetRuntimeClass@CObject@@UBEPAUCRuntimeClass@@XZ 1002d3a0     mfc140:mfc140.dll
 0002:000003a4       __imp_?Read@CArchive@@QAEIPAXI@Z 1002d3a4     mfc140:mfc140.dll
 0002:000003a8       __imp_?Write@CArchive@@QAEXPBXI@Z 1002d3a8     mfc140:mfc140.dll
 0002:000003ac       __imp_?ReadCount@CArchive@@QAEKXZ 1002d3ac     mfc140:mfc140.dll
 0002:000003b0       __imp_?WriteCount@CArchive@@QAEXK@Z 1002d3b0     mfc140:mfc140.dll
 0002:000003b4       __imp_?ClientToScreen@CWnd@@QBEXPAUtagRECT@@@Z 1002d3b4     mfc140:mfc140.dll
 0002:000003b8       __imp_?ShowWindow@CWnd@@QAEHH@Z 1002d3b8     mfc140:mfc140.dll
 0002:000003bc       __imp_?GetRuntimeClass@CTabCtrl@@UBEPAUCRuntimeClass@@XZ 1002d3bc     mfc140:mfc140.dll
 0002:000003c0       __imp_?Create@CTabCtrl@@UAEHKABUtagRECT@@PAVCWnd@@I@Z 1002d3c0     mfc140:mfc140.dll
 0002:000003c4       __imp_?CreateEx@CTabCtrl@@UAEHKKABUtagRECT@@PAVCWnd@@I@Z 1002d3c4     mfc140:mfc140.dll
 0002:000003c8       __imp_?DrawItem@CTabCtrl@@UAEXPAUtagDRAWITEMSTRUCT@@@Z 1002d3c8     mfc140:mfc140.dll
 0002:000003cc       __imp_??1CTabCtrl@@UAE@XZ  1002d3cc     mfc140:mfc140.dll
 0002:000003d0       __imp_?OnChildNotify@CTabCtrl@@MAEHIIJPAJ@Z 1002d3d0     mfc140:mfc140.dll
 0002:000003d4       __imp_?GetThisMessageMap@CTabCtrl@@KGPBUAFX_MSGMAP@@XZ 1002d3d4     mfc140:mfc140.dll
 0002:000003d8       __imp_?GetMessageMap@CTabCtrl@@MBEPBUAFX_MSGMAP@@XZ 1002d3d8     mfc140:mfc140.dll
 0002:000003dc       __imp_?DDX_Control@@YGXPAVCDataExchange@@HAAVCWnd@@@Z 1002d3dc     mfc140:mfc140.dll
 0002:000003e0       __imp_?OnCtlColor@CWnd@@IAEPAUHBRUSH__@@PAVCDC@@PAV1@I@Z 1002d3e0     mfc140:mfc140.dll
 0002:000003e4       __imp_?GetRuntimeClass@CDialog@@UBEPAUCRuntimeClass@@XZ 1002d3e4     mfc140:mfc140.dll
 0002:000003e8       __imp_?Create@CDialog@@UAEHPBDPAVCWnd@@@Z 1002d3e8     mfc140:mfc140.dll
 0002:000003ec       __imp_?CreateIndirect@CDialog@@UAEHPBUDLGTEMPLATE@@PAVCWnd@@PAX@Z 1002d3ec     mfc140:mfc140.dll
 0002:000003f0       __imp_?CreateIndirect@CDialog@@UAEHPAXPAVCWnd@@@Z 1002d3f0     mfc140:mfc140.dll
 0002:000003f4       __imp_?OnInitDialog@CDialog@@UAEHXZ 1002d3f4     mfc140:mfc140.dll
 0002:000003f8       __imp_?OnSetFont@CDialog@@UAEXPAVCFont@@@Z 1002d3f8     mfc140:mfc140.dll
 0002:000003fc       __imp_?OnOK@CDialog@@MAEXXZ 1002d3fc     mfc140:mfc140.dll
 0002:00000400       __imp_?OnCancel@CDialog@@MAEXXZ 1002d400     mfc140:mfc140.dll
 0002:00000404       __imp_??1CDialog@@UAE@XZ   1002d404     mfc140:mfc140.dll
 0002:00000408       __imp_?PreTranslateMessage@CDialog@@UAEHPAUtagMSG@@@Z 1002d408     mfc140:mfc140.dll
 0002:0000040c       __imp_?OnCmdMsg@CDialog@@UAEHIHPAXPAUAFX_CMDHANDLERINFO@@@Z 1002d40c     mfc140:mfc140.dll
 0002:00000410       __imp_?CheckAutoCenter@CDialog@@UAEHXZ 1002d410     mfc140:mfc140.dll
 0002:00000414       __imp_?SetOccDialogInfo@CDialog@@MAEHPAU_AFX_OCC_DIALOG_INFO@@@Z 1002d414     mfc140:mfc140.dll
 0002:00000418       __imp_?GetOccDialogInfo@CDialog@@MAEPAU_AFX_OCC_DIALOG_INFO@@XZ 1002d418     mfc140:mfc140.dll
 0002:0000041c       __imp_?PreInitDialog@CDialog@@MAEXXZ 1002d41c     mfc140:mfc140.dll
 0002:00000420       __imp_?TrimRight@?$CStringT@DV?$StrTraitMFC_DLL@DV?$ChTraitsCRT@D@ATL@@@@@ATL@@QAEAAV12@D@Z 1002d420     mfc140:mfc140.dll
 0002:00000424       __imp_?GetBuffer@?$CSimpleStringT@D$00@ATL@@QAEPADH@Z 1002d424     mfc140:mfc140.dll
 0002:00000428       __imp_?ReleaseBuffer@?$CSimpleStringT@D$00@ATL@@QAEXH@Z 1002d428     mfc140:mfc140.dll
 0002:0000042c       __imp_?ReverseFind@?$CStringT@DV?$StrTraitMFC_DLL@DV?$ChTraitsCRT@D@ATL@@@@@ATL@@QBEHD@Z 1002d42c     mfc140:mfc140.dll
 0002:00000430       __imp_?MakeUpper@?$CStringT@DV?$StrTraitMFC_DLL@DV?$ChTraitsCRT@D@ATL@@@@@ATL@@QAEAAV12@XZ 1002d430     mfc140:mfc140.dll
 0002:00000434       __imp_??0CFileFind@@QAE@XZ 1002d434     mfc140:mfc140.dll
 0002:00000438       __imp_??1CFileFind@@UAE@XZ 1002d438     mfc140:mfc140.dll
 0002:0000043c       __imp_?GetFilePath@CFileFind@@UBE?AV?$CStringT@DV?$StrTraitMFC_DLL@DV?$ChTraitsCRT@D@ATL@@@@@ATL@@XZ 1002d43c     mfc140:mfc140.dll
 0002:00000440       __imp_?FindFile@CFileFind@@UAEHPBDK@Z 1002d440     mfc140:mfc140.dll
 0002:00000444       __imp_?FindNextFileA@CFileFind@@UAEHXZ 1002d444     mfc140:mfc140.dll
 0002:00000448       __imp_?ScreenToClient@CWnd@@QBEXPAUtagRECT@@@Z 1002d448     mfc140:mfc140.dll
 0002:0000044c       __imp_?MessageBoxA@CWnd@@QAEHPBD0I@Z 1002d44c     mfc140:mfc140.dll
 0002:00000450       __imp_?AfxGetModuleState@@YGPAVAFX_MODULE_STATE@@XZ 1002d450     mfc140:mfc140.dll
 0002:00000454       __imp_??0CDialog@@QAE@IPAVCWnd@@@Z 1002d454     mfc140:mfc140.dll
 0002:00000458       __imp_?DoModal@CDialog@@UAEHXZ 1002d458     mfc140:mfc140.dll
 0002:0000045c       __imp_?GetThisMessageMap@CDialog@@KGPBUAFX_MSGMAP@@XZ 1002d45c     mfc140:mfc140.dll
 0002:00000460       __imp_?OnFinalRelease@CCmdTarget@@UAEXXZ 1002d460     mfc140:mfc140.dll
 0002:00000464       __imp_?GetInterfaceMap@CCmdTarget@@MBEPBUAFX_INTERFACEMAP@@XZ 1002d464     mfc140:mfc140.dll
 0002:00000468       __imp_?PreTranslateMessage@CWinThread@@UAEHPAUtagMSG@@@Z 1002d468     mfc140:mfc140.dll
 0002:0000046c       __imp_?PumpMessage@CWinThread@@UAEHXZ 1002d46c     mfc140:mfc140.dll
 0002:00000470       __imp_?IsIdleMessage@CWinThread@@UAEHPAUtagMSG@@@Z 1002d470     mfc140:mfc140.dll
 0002:00000474       __imp_?ProcessMessageFilter@CWinThread@@UAEHHPAUtagMSG@@@Z 1002d474     mfc140:mfc140.dll
 0002:00000478       __imp_?GetMainWnd@CWinThread@@UAEPAVCWnd@@XZ 1002d478     mfc140:mfc140.dll
 0002:0000047c       __imp_?Delete@CWinThread@@UAEXXZ 1002d47c     mfc140:mfc140.dll
 0002:00000480       __imp_?GetRuntimeClass@CWinApp@@UBEPAUCRuntimeClass@@XZ 1002d480     mfc140:mfc140.dll
 0002:00000484       __imp_??0CWinApp@@QAE@PBD@Z 1002d484     mfc140:mfc140.dll
 0002:00000488       __imp_?FromHandle@CWnd@@SGPAV1@PAUHWND__@@@Z 1002d488     mfc140:mfc140.dll
 0002:0000048c       __imp_?WriteProfileInt@CWinApp@@UAEHPBD0H@Z 1002d48c     mfc140:mfc140.dll
 0002:00000490       __imp_?GetProfileStringA@CWinApp@@UAE?AV?$CStringT@DV?$StrTraitMFC_DLL@DV?$ChTraitsCRT@D@ATL@@@@@ATL@@PBD00@Z 1002d490     mfc140:mfc140.dll
 0002:00000494       __imp_?WriteProfileStringA@CWinApp@@UAEHPBD00@Z 1002d494     mfc140:mfc140.dll
 0002:00000498       __imp_?GetProfileBinary@CWinApp@@UAEHPBD0PAPAEPAI@Z 1002d498     mfc140:mfc140.dll
 0002:0000049c       __imp_?WriteProfileBinary@CWinApp@@UAEHPBD0PAEI@Z 1002d49c     mfc140:mfc140.dll
 0002:000004a0       __imp_?InitLibId@CWinApp@@UAEXXZ 1002d4a0     mfc140:mfc140.dll
 0002:000004a4       __imp_?Register@CWinApp@@UAEHXZ 1002d4a4     mfc140:mfc140.dll
 0002:000004a8       __imp_?Unregister@CWinApp@@UAEHXZ 1002d4a8     mfc140:mfc140.dll
 0002:000004ac       __imp_?OpenDocumentFile@CWinApp@@UAEPAVCDocument@@PBD@Z 1002d4ac     mfc140:mfc140.dll
 0002:000004b0       __imp_?OpenDocumentFile@CWinApp@@UAEPAVCDocument@@PBDH@Z 1002d4b0     mfc140:mfc140.dll
 0002:000004b4       __imp_?AddToRecentFileList@CWinApp@@UAEXPBD@Z 1002d4b4     mfc140:mfc140.dll
 0002:000004b8       __imp_?InitApplication@CWinApp@@UAEHXZ 1002d4b8     mfc140:mfc140.dll
 0002:000004bc       __imp_?SaveAllModified@CWinApp@@UAEHXZ 1002d4bc     mfc140:mfc140.dll
 0002:000004c0       __imp_?DoMessageBox@CWinApp@@UAEHPBDII@Z 1002d4c0     mfc140:mfc140.dll
 0002:000004c4       __imp_?DoWaitCursor@CWinApp@@UAEXH@Z 1002d4c4     mfc140:mfc140.dll
 0002:000004c8       __imp_?OnDDECommand@CWinApp@@UAEHPAD@Z 1002d4c8     mfc140:mfc140.dll
 0002:000004cc       __imp_?WinHelpA@CWinApp@@UAEXKI@Z 1002d4cc     mfc140:mfc140.dll
 0002:000004d0       __imp_?HtmlHelpA@CWinApp@@UAEXKI@Z 1002d4d0     mfc140:mfc140.dll
 0002:000004d4       __imp_?WinHelpInternal@CWinApp@@UAEXKI@Z 1002d4d4     mfc140:mfc140.dll
 0002:000004d8       __imp_?RegisterWithRestartManager@CWinApp@@UAEJHABV?$CStringT@DV?$StrTraitMFC_DLL@DV?$ChTraitsCRT@D@ATL@@@@@ATL@@@Z 1002d4d8     mfc140:mfc140.dll
 0002:000004dc       __imp_?RegisterWithRestartManager@CWinApp@@UAEJPB_WKP6GKPAX@Z1KK@Z 1002d4dc     mfc140:mfc140.dll
 0002:000004e0       __imp_?ApplicationRecoveryCallback@CWinApp@@UAEKPAX@Z 1002d4e0     mfc140:mfc140.dll
 0002:000004e4       __imp_?GetDataRecoveryHandler@CWinApp@@UAEPAVCDataRecoveryHandler@@XZ 1002d4e4     mfc140:mfc140.dll
 0002:000004e8       __imp_?IsTaskbarInteractionEnabled@CWinApp@@UAEHXZ 1002d4e8     mfc140:mfc140.dll
 0002:000004ec       __imp_?InitInstance@CWinApp@@UAEHXZ 1002d4ec     mfc140:mfc140.dll
 0002:000004f0       __imp_?ExitInstance@CWinApp@@UAEHXZ 1002d4f0     mfc140:mfc140.dll
 0002:000004f4       __imp_?RestartInstance@CWinApp@@UAEHXZ 1002d4f4     mfc140:mfc140.dll
 0002:000004f8       __imp_?Run@CWinApp@@UAEHXZ 1002d4f8     mfc140:mfc140.dll
 0002:000004fc       __imp_?OnIdle@CWinApp@@UAEHJ@Z 1002d4fc     mfc140:mfc140.dll
 0002:00000500       __imp_?ProcessWndProcException@CWinApp@@UAEJPAVCException@@PBUtagMSG@@@Z 1002d500     mfc140:mfc140.dll
 0002:00000504       __imp_?LoadAppLangResourceDLL@CWinApp@@UAEPAUHINSTANCE__@@XZ 1002d504     mfc140:mfc140.dll
 0002:00000508       __imp_??1CWinApp@@UAE@XZ   1002d508     mfc140:mfc140.dll
 0002:0000050c       __imp_?GetThisMessageMap@CWinApp@@KGPBUAFX_MSGMAP@@XZ 1002d50c     mfc140:mfc140.dll
 0002:00000510       __imp_?LoadSysPolicies@CWinApp@@UAEHXZ 1002d510     mfc140:mfc140.dll
 0002:00000514       __imp_?AfxThrowOleException@@YGXJ@Z 1002d514     mfc140:mfc140.dll
 0002:00000518       __imp_?DDX_Text@@YGXPAVCDataExchange@@HAAV?$CStringT@DV?$StrTraitMFC_DLL@DV?$ChTraitsCRT@D@ATL@@@@@ATL@@@Z 1002d518     mfc140:mfc140.dll
 0002:0000051c       __imp_?DDX_Check@@YGXPAVCDataExchange@@HAAH@Z 1002d51c     mfc140:mfc140.dll
 0002:00000520       __imp_?DDX_DateTimeCtrl@@YGXPAVCDataExchange@@HAAVCTime@ATL@@@Z 1002d520     mfc140:mfc140.dll
 0002:00000524       __imp_?UpdateData@CWnd@@QAEHH@Z 1002d524     mfc140:mfc140.dll
 0002:00000528       __imp_?GetRuntimeClass@CStatic@@UBEPAUCRuntimeClass@@XZ 1002d528     mfc140:mfc140.dll
 0002:0000052c       __imp_?Create@CStatic@@UAEHPBDKABUtagRECT@@PAVCWnd@@I@Z 1002d52c     mfc140:mfc140.dll
 0002:00000530       __imp_?DrawItem@CStatic@@UAEXPAUtagDRAWITEMSTRUCT@@@Z 1002d530     mfc140:mfc140.dll
 0002:00000534       __imp_??1CStatic@@UAE@XZ   1002d534     mfc140:mfc140.dll
 0002:00000538       __imp_?OnChildNotify@CStatic@@MAEHIIJPAJ@Z 1002d538     mfc140:mfc140.dll
 0002:0000053c       __imp_?GetRuntimeClass@CDateTimeCtrl@@UBEPAUCRuntimeClass@@XZ 1002d53c     mfc140:mfc140.dll
 0002:00000540       __imp_?Create@CDateTimeCtrl@@UAEHKABUtagRECT@@PAVCWnd@@I@Z 1002d540     mfc140:mfc140.dll
 0002:00000544       __imp_??1CDateTimeCtrl@@UAE@XZ 1002d544     mfc140:mfc140.dll
 0002:00000548       __imp_?GetRuntimeClass@CCommonDialog@@UBEPAUCRuntimeClass@@XZ 1002d548     mfc140:mfc140.dll
 0002:0000054c       __imp_?OnOK@CCommonDialog@@MAEXXZ 1002d54c     mfc140:mfc140.dll
 0002:00000550       __imp_?OnCancel@CCommonDialog@@MAEXXZ 1002d550     mfc140:mfc140.dll
 0002:00000554       __imp_?GetMessageMap@CCommonDialog@@MBEPBUAFX_MSGMAP@@XZ 1002d554     mfc140:mfc140.dll
 0002:00000558       __imp_??0CColorDialog@@QAE@KKPAVCWnd@@@Z 1002d558     mfc140:mfc140.dll
 0002:0000055c       __imp_?DoModal@CColorDialog@@UAEHXZ 1002d55c     mfc140:mfc140.dll
 0002:00000560       __imp_?CheckRadioButton@CWnd@@QAEXHHH@Z 1002d560     mfc140:mfc140.dll
 0002:00000564       __imp_?GetCheckedRadioButton@CWnd@@QBEHHH@Z 1002d564     mfc140:mfc140.dll
 0002:00000568       __imp_?GetDlgItemTextA@CWnd@@QBEHHAAV?$CStringT@DV?$StrTraitMFC_DLL@DV?$ChTraitsCRT@D@ATL@@@@@ATL@@@Z 1002d568     mfc140:mfc140.dll
 0002:0000056c       __imp_?SetDlgItemInt@CWnd@@QAEXHIH@Z 1002d56c     mfc140:mfc140.dll
 0002:00000570       __imp_?SetDlgItemTextA@CWnd@@QAEXHPBD@Z 1002d570     mfc140:mfc140.dll
 0002:00000574       __imp_?GetBufferSetLength@?$CSimpleStringT@D$00@ATL@@QAEPADH@Z 1002d574     mfc140:mfc140.dll
 0002:00000578       __imp_?CompareNoCase@?$CStringT@DV?$StrTraitMFC_DLL@DV?$ChTraitsCRT@D@ATL@@@@@ATL@@QBEHPBD@Z 1002d578     mfc140:mfc140.dll
 0002:0000057c       __imp_?Insert@?$CStringT@DV?$StrTraitMFC_DLL@DV?$ChTraitsCRT@D@ATL@@@@@ATL@@QAEHHD@Z 1002d57c     mfc140:mfc140.dll
 0002:00000580       __imp_?Mid@?$CStringT@DV?$StrTraitMFC_DLL@DV?$ChTraitsCRT@D@ATL@@@@@ATL@@QBE?AV12@H@Z 1002d580     mfc140:mfc140.dll
 0002:00000584       __imp_??0CStringArray@@QAE@XZ 1002d584     mfc140:mfc140.dll
 0002:00000588       __imp_?GetRuntimeClass@CHeaderCtrl@@UBEPAUCRuntimeClass@@XZ 1002d588     mfc140:mfc140.dll
 0002:0000058c       __imp_??1CStringArray@@UAE@XZ 1002d58c     mfc140:mfc140.dll
 0002:00000590       __imp_?GetDlgItem@CWnd@@QBEPAV1@H@Z 1002d590     mfc140:mfc140.dll
 0002:00000594       __imp_?CheckDlgButton@CWnd@@QAEXHI@Z 1002d594     mfc140:mfc140.dll
 0002:00000598       __imp_?IsDlgButtonChecked@CWnd@@QBEIH@Z 1002d598     mfc140:mfc140.dll
 0002:0000059c       __imp_?GetLBText@CComboBox@@QBEXHAAV?$CStringT@DV?$StrTraitMFC_DLL@DV?$ChTraitsCRT@D@ATL@@@@@ATL@@@Z 1002d59c     mfc140:mfc140.dll
 0002:000005a0       __imp_??0CFileDialog@@QAE@HPBD0K0PAVCWnd@@KH@Z 1002d5a0     mfc140:mfc140.dll
 0002:000005a4       __imp_??1CFileDialog@@UAE@XZ 1002d5a4     mfc140:mfc140.dll
 0002:000005a8       __imp_?DoModal@CFileDialog@@UAEHXZ 1002d5a8     mfc140:mfc140.dll
 0002:000005ac       __imp_?GetPathName@CFileDialog@@QBE?AV?$CStringT@DV?$StrTraitMFC_DLL@DV?$ChTraitsCRT@D@ATL@@@@@ATL@@XZ 1002d5ac     mfc140:mfc140.dll
 0002:000005b0       __imp_?GetThisClass@CEdit@@SGPAUCRuntimeClass@@XZ 1002d5b0     mfc140:mfc140.dll
 0002:000005b4       __imp_?GetThisClass@CComboBox@@SGPAUCRuntimeClass@@XZ 1002d5b4     mfc140:mfc140.dll
 0002:000005b8       __imp_??ACMapPtrToPtr@@QAEAAPAXPAX@Z 1002d5b8     mfc140:mfc140.dll
 0002:000005bc       __imp_?RemoveKey@CMapPtrToPtr@@QAEHPAX@Z 1002d5bc     mfc140:mfc140.dll
 0002:000005c0       __imp_??2CNoTrackObject@@SGPAXI@Z 1002d5c0     mfc140:mfc140.dll
 0002:000005c4       __imp_??3CNoTrackObject@@SGXPAX@Z 1002d5c4     mfc140:mfc140.dll
 0002:000005c8       __imp_?GetData@CThreadLocalObject@@QAEPAVCNoTrackObject@@P6GPAV2@XZ@Z 1002d5c8     mfc140:mfc140.dll
 0002:000005cc       __imp_??0AFX_MODULE_THREAD_STATE@@QAE@XZ 1002d5cc     mfc140:mfc140.dll
 0002:000005d0       __imp_?AfxGetAppModuleState@@YGPAVAFX_MODULE_STATE@@XZ 1002d5d0     mfc140:mfc140.dll
 0002:000005d4       __imp_?AfxExtractSubString@@YGHAAV?$CStringT@DV?$StrTraitMFC_DLL@DV?$ChTraitsCRT@D@ATL@@@@@ATL@@PBDHD@Z 1002d5d4     mfc140:mfc140.dll
 0002:000005d8       __imp_??0CDynLinkLibrary@@QAE@PAUHINSTANCE__@@0@Z 1002d5d8     mfc140:mfc140.dll
 0002:000005dc       __imp_?GetStyle@CWnd@@QBEKXZ 1002d5dc     mfc140:mfc140.dll
 0002:000005e0       __imp_??0?$CStringT@DV?$StrTraitMFC_DLL@DV?$ChTraitsCRT@D@ATL@@@@@ATL@@QAE@DH@Z 1002d5e0     mfc140:mfc140.dll
 0002:000005e4       __imp_?SelectClipRgn@CDC@@QAEHPAVCRgn@@@Z 1002d5e4     mfc140:mfc140.dll
 0002:000005e8       __imp_?GetRuntimeClass@CRgn@@UBEPAUCRuntimeClass@@XZ 1002d5e8     mfc140:mfc140.dll
 0002:000005ec       __imp_?Attach@CGdiObject@@QAEHPAX@Z 1002d5ec     mfc140:mfc140.dll
 0002:000005f0       __imp_?Left@?$CStringT@DV?$StrTraitMFC_DLL@DV?$ChTraitsCRT@D@ATL@@@@@ATL@@QBE?AV12@H@Z 1002d5f0     mfc140:mfc140.dll
 0002:000005f4       __imp_?Right@?$CStringT@DV?$StrTraitMFC_DLL@DV?$ChTraitsCRT@D@ATL@@@@@ATL@@QBE?AV12@H@Z 1002d5f4     mfc140:mfc140.dll
 0002:000005f8       __imp_?Mid@?$CStringT@DV?$StrTraitMFC_DLL@DV?$ChTraitsCRT@D@ATL@@@@@ATL@@QBE?AV12@HH@Z 1002d5f8     mfc140:mfc140.dll
 0002:000005fc       __imp_?TrimLeft@?$CStringT@DV?$StrTraitMFC_DLL@DV?$ChTraitsCRT@D@ATL@@@@@ATL@@QAEAAV12@D@Z 1002d5fc     mfc140:mfc140.dll
 0002:00000600       __imp_?TrimRight@?$CStringT@DV?$StrTraitMFC_DLL@DV?$ChTraitsCRT@D@ATL@@@@@ATL@@QAEAAV12@PBD@Z 1002d600     mfc140:mfc140.dll
 0002:00000604       __imp_?TrimLeft@?$CStringT@DV?$StrTraitMFC_DLL@DV?$ChTraitsCRT@D@ATL@@@@@ATL@@QAEAAV12@XZ 1002d604     mfc140:mfc140.dll
 0002:00000608       __imp_?TrimRight@?$CStringT@DV?$StrTraitMFC_DLL@DV?$ChTraitsCRT@D@ATL@@@@@ATL@@QAEAAV12@XZ 1002d608     mfc140:mfc140.dll
 0002:0000060c       __imp_?Find@?$CStringT@DV?$StrTraitMFC_DLL@DV?$ChTraitsCRT@D@ATL@@@@@ATL@@QBEHPBDH@Z 1002d60c     mfc140:mfc140.dll
 0002:00000610       __imp_?Find@?$CStringT@DV?$StrTraitMFC_DLL@DV?$ChTraitsCRT@D@ATL@@@@@ATL@@QBEHDH@Z 1002d610     mfc140:mfc140.dll
 0002:00000614       __imp_?Remove@?$CStringT@DV?$StrTraitMFC_DLL@DV?$ChTraitsCRT@D@ATL@@@@@ATL@@QAEHD@Z 1002d614     mfc140:mfc140.dll
 0002:00000618       __imp_?Replace@?$CStringT@DV?$StrTraitMFC_DLL@DV?$ChTraitsCRT@D@ATL@@@@@ATL@@QAEHPBD0@Z 1002d618     mfc140:mfc140.dll
 0002:0000061c       __imp_?Delete@?$CStringT@DV?$StrTraitMFC_DLL@DV?$ChTraitsCRT@D@ATL@@@@@ATL@@QAEHHH@Z 1002d61c     mfc140:mfc140.dll
 0002:00000620       __imp_?Compare@?$CStringT@DV?$StrTraitMFC_DLL@DV?$ChTraitsCRT@D@ATL@@@@@ATL@@QBEHPBD@Z 1002d620     mfc140:mfc140.dll
 0002:00000624       __imp_??Y?$CStringT@DV?$StrTraitMFC_DLL@DV?$ChTraitsCRT@D@ATL@@@@@ATL@@QAEAAV01@D@Z 1002d624     mfc140:mfc140.dll
 0002:00000628       __imp_??Y?$CStringT@DV?$StrTraitMFC_DLL@DV?$ChTraitsCRT@D@ATL@@@@@ATL@@QAEAAV01@PBD@Z 1002d628     mfc140:mfc140.dll
 0002:0000062c       __imp_?Empty@?$CSimpleStringT@D$00@ATL@@QAEXXZ 1002d62c     mfc140:mfc140.dll
 0002:00000630       __imp_??A?$CSimpleStringT@D$00@ATL@@QBEDH@Z 1002d630     mfc140:mfc140.dll
 0002:00000634       __imp_?OnChildNotify@CButton@@MAEHIIJPAJ@Z 1002d634     mfc140:mfc140.dll
 0002:00000638       __imp_??1CButton@@UAE@XZ   1002d638     mfc140:mfc140.dll
 0002:0000063c       __imp_?DrawItem@CButton@@UAEXPAUtagDRAWITEMSTRUCT@@@Z 1002d63c     mfc140:mfc140.dll
 0002:00000640       __imp_?Create@CButton@@UAEHPBDKABUtagRECT@@PAVCWnd@@I@Z 1002d640     mfc140:mfc140.dll
 0002:00000644       __imp_?GetRuntimeClass@CButton@@UBEPAUCRuntimeClass@@XZ 1002d644     mfc140:mfc140.dll
 0002:00000648       __imp_?EnableWindow@CWnd@@QAEHH@Z 1002d648     mfc140:mfc140.dll
 0002:0000064c       __imp_?SelectObject@CDC@@QAEPAVCBrush@@PAV2@@Z 1002d64c     mfc140:mfc140.dll
 0002:00000650       __imp_??4?$CStringT@DV?$StrTraitMFC_DLL@DV?$ChTraitsCRT@D@ATL@@@@@ATL@@QAEAAV01@PBD@Z 1002d650     mfc140:mfc140.dll
 0002:00000654       __imp_?GetManager@?$CStringT@DV?$StrTraitMFC_DLL@DV?$ChTraitsCRT@D@ATL@@@@@ATL@@QBEPAUIAtlStringMgr@2@XZ 1002d654     mfc140:mfc140.dll
 0002:00000658       __imp_??Y?$CStringT@DV?$StrTraitMFC_DLL@DV?$ChTraitsCRT@D@ATL@@@@@ATL@@QAEAAV01@ABV?$CSimpleStringT@D$00@1@@Z 1002d658     mfc140:mfc140.dll
 0002:0000065c       __imp_??4?$CStringT@DV?$StrTraitMFC_DLL@DV?$ChTraitsCRT@D@ATL@@@@@ATL@@QAEAAV01@ABV01@@Z 1002d65c     mfc140:mfc140.dll
 0002:00000660       __imp_??0?$CStringT@DV?$StrTraitMFC_DLL@DV?$ChTraitsCRT@D@ATL@@@@@ATL@@QAE@PBD@Z 1002d660     mfc140:mfc140.dll
 0002:00000664       __imp_??0?$CStringT@DV?$StrTraitMFC_DLL@DV?$ChTraitsCRT@D@ATL@@@@@ATL@@QAE@ABV01@@Z 1002d664     mfc140:mfc140.dll
 0002:00000668       __imp_??0?$CStringT@DV?$StrTraitMFC_DLL@DV?$ChTraitsCRT@D@ATL@@@@@ATL@@QAE@PAUIAtlStringMgr@1@@Z 1002d668     mfc140:mfc140.dll
 0002:0000066c       __imp_?Concatenate@?$CSimpleStringT@D$00@ATL@@KAXAAV12@PBDH1H@Z 1002d66c     mfc140:mfc140.dll
 0002:00000670       __imp_?AfxMessageBox@@YGHPBDII@Z 1002d670     mfc140:mfc140.dll
 0002:00000674       __imp_?OnChildNotify@CComboBox@@MAEHIIJPAJ@Z 1002d674     mfc140:mfc140.dll
 0002:00000678       __imp_??1CComboBox@@UAE@XZ 1002d678     mfc140:mfc140.dll
 0002:0000067c       __imp_?DeleteItem@CComboBox@@UAEXPAUtagDELETEITEMSTRUCT@@@Z 1002d67c     mfc140:mfc140.dll
 0002:00000680       __imp_?CompareItem@CComboBox@@UAEHPAUtagCOMPAREITEMSTRUCT@@@Z 1002d680     mfc140:mfc140.dll
 0002:00000684       __imp_?MeasureItem@CComboBox@@UAEXPAUtagMEASUREITEMSTRUCT@@@Z 1002d684     mfc140:mfc140.dll
 0002:00000688       __imp_?DrawItem@CComboBox@@UAEXPAUtagDRAWITEMSTRUCT@@@Z 1002d688     mfc140:mfc140.dll
 0002:0000068c       __imp_?Create@CComboBox@@UAEHKABUtagRECT@@PAVCWnd@@I@Z 1002d68c     mfc140:mfc140.dll
 0002:00000690       __imp_?GetRuntimeClass@CComboBox@@UBEPAUCRuntimeClass@@XZ 1002d690     mfc140:mfc140.dll
 0002:00000694       __imp_?GetMessageMap@CWnd@@MBEPBUAFX_MSGMAP@@XZ 1002d694     mfc140:mfc140.dll
 0002:00000698       __imp_?GetThisMessageMap@CWnd@@KGPBUAFX_MSGMAP@@XZ 1002d698     mfc140:mfc140.dll
 0002:0000069c       __imp_?GetOccDialogInfo@CWnd@@MAEPAU_AFX_OCC_DIALOG_INFO@@XZ 1002d69c     mfc140:mfc140.dll
 0002:000006a0       __imp_?SetOccDialogInfo@CWnd@@MAEHPAU_AFX_OCC_DIALOG_INFO@@@Z 1002d6a0     mfc140:mfc140.dll
 0002:000006a4       __imp_?CreateControlSite@CWnd@@MAEHPAVCOleControlContainer@@PAPAVCOleControlSite@@IABU_GUID@@@Z 1002d6a4     mfc140:mfc140.dll
 0002:000006a8       __imp_?CreateControlContainer@CWnd@@MAEHPAPAVCOleControlContainer@@@Z 1002d6a8     mfc140:mfc140.dll
 0002:000006ac       __imp_?OnFinalRelease@CWnd@@UAEXXZ 1002d6ac     mfc140:mfc140.dll
 0002:000006b0       __imp_?IsFrameWnd@CWnd@@UBEHXZ 1002d6b0     mfc140:mfc140.dll
 0002:000006b4       __imp_?CheckAutoCenter@CWnd@@UAEHXZ 1002d6b4     mfc140:mfc140.dll
 0002:000006b8       __imp_?ResizeDynamicLayout@CWnd@@MAEXXZ 1002d6b8     mfc140:mfc140.dll
 0002:000006bc       __imp_?OnGesturePressAndTap@CWnd@@MAEHVCPoint@@J@Z 1002d6bc     mfc140:mfc140.dll
 0002:000006c0       __imp_?OnGestureTwoFingerTap@CWnd@@MAEHVCPoint@@@Z 1002d6c0     mfc140:mfc140.dll
 0002:000006c4       __imp_?OnGestureRotate@CWnd@@MAEHVCPoint@@N@Z 1002d6c4     mfc140:mfc140.dll
 0002:000006c8       __imp_?OnGesturePan@CWnd@@MAEHVCPoint@@0@Z 1002d6c8     mfc140:mfc140.dll
 0002:000006cc       __imp_?OnGestureZoom@CWnd@@MAEHVCPoint@@J@Z 1002d6cc     mfc140:mfc140.dll
 0002:000006d0       __imp_?GetGestureStatus@CWnd@@MAEKVCPoint@@@Z 1002d6d0     mfc140:mfc140.dll
 0002:000006d4       __imp_?OnTouchInput@CWnd@@MAEHVCPoint@@HHPAUtagTOUCHINPUT@@@Z 1002d6d4     mfc140:mfc140.dll
 0002:000006d8       __imp_?OnTouchInputs@CWnd@@MAEHIPAUtagTOUCHINPUT@@@Z 1002d6d8     mfc140:mfc140.dll
 0002:000006dc       __imp_?PostNcDestroy@CWnd@@MAEXXZ 1002d6dc     mfc140:mfc140.dll
 0002:000006e0       __imp_?DefWindowProcA@CWnd@@MAEJIIJ@Z 1002d6e0     mfc140:mfc140.dll
 0002:000006e4       __imp_?OnWndMsg@CWnd@@MAEHIIJPAJ@Z 1002d6e4     mfc140:mfc140.dll
 0002:000006e8       __imp_?WindowProc@CWnd@@MAEJIIJ@Z 1002d6e8     mfc140:mfc140.dll
 0002:000006ec       __imp_?OnAmbientProperty@CWnd@@UAEHPAVCOleControlSite@@JPAUtagVARIANT@@@Z 1002d6ec     mfc140:mfc140.dll
 0002:000006f0       __imp_?PreTranslateMessage@CWnd@@UAEHPAUtagMSG@@@Z 1002d6f0     mfc140:mfc140.dll
 0002:000006f4       __imp_?GetSuperWndProcAddr@CWnd@@MAEPAP6GJPAUHWND__@@IIJ@ZXZ 1002d6f4     mfc140:mfc140.dll
 0002:000006f8       __imp_?OnNotify@CWnd@@MAEHIJPAJ@Z 1002d6f8     mfc140:mfc140.dll
 0002:000006fc       __imp_?OnCommand@CWnd@@MAEHIJ@Z 1002d6fc     mfc140:mfc140.dll
 0002:00000700       __imp_?CreateAccessibleProxy@CWnd@@UAEJIJPAJ@Z 1002d700     mfc140:mfc140.dll
 0002:00000704       __imp_?SetProxy@CWnd@@UAEJPAUIAccessibleProxy@@@Z 1002d704     mfc140:mfc140.dll
 0002:00000708       __imp_?put_accValue@CWnd@@UAEJUtagVARIANT@@PA_W@Z 1002d708     mfc140:mfc140.dll
 0002:0000070c       __imp_?put_accName@CWnd@@UAEJUtagVARIANT@@PA_W@Z 1002d70c     mfc140:mfc140.dll
 0002:00000710       __imp_?accDoDefaultAction@CWnd@@UAEJUtagVARIANT@@@Z 1002d710     mfc140:mfc140.dll
 0002:00000714       __imp_?accHitTest@CWnd@@UAEJJJPAUtagVARIANT@@@Z 1002d714     mfc140:mfc140.dll
 0002:00000718       __imp_?accNavigate@CWnd@@UAEJJUtagVARIANT@@PAU2@@Z 1002d718     mfc140:mfc140.dll
 0002:0000071c       __imp_?accLocation@CWnd@@UAEJPAJ000UtagVARIANT@@@Z 1002d71c     mfc140:mfc140.dll
 0002:00000720       __imp_?accSelect@CWnd@@UAEJJUtagVARIANT@@@Z 1002d720     mfc140:mfc140.dll
 0002:00000724       __imp_?get_accDefaultAction@CWnd@@UAEJUtagVARIANT@@PAPA_W@Z 1002d724     mfc140:mfc140.dll
 0002:00000728       __imp_?get_accSelection@CWnd@@UAEJPAUtagVARIANT@@@Z 1002d728     mfc140:mfc140.dll
 0002:0000072c       __imp_?get_accFocus@CWnd@@UAEJPAUtagVARIANT@@@Z 1002d72c     mfc140:mfc140.dll
 0002:00000730       __imp_?get_accKeyboardShortcut@CWnd@@UAEJUtagVARIANT@@PAPA_W@Z 1002d730     mfc140:mfc140.dll
 0002:00000734       __imp_?get_accHelpTopic@CWnd@@UAEJPAPA_WUtagVARIANT@@PAJ@Z 1002d734     mfc140:mfc140.dll
 0002:00000738       __imp_?get_accHelp@CWnd@@UAEJUtagVARIANT@@PAPA_W@Z 1002d738     mfc140:mfc140.dll
 0002:0000073c       __imp_?get_accState@CWnd@@UAEJUtagVARIANT@@PAU2@@Z 1002d73c     mfc140:mfc140.dll
 0002:00000740       __imp_?get_accRole@CWnd@@UAEJUtagVARIANT@@PAU2@@Z 1002d740     mfc140:mfc140.dll
 0002:00000744       __imp_?get_accDescription@CWnd@@UAEJUtagVARIANT@@PAPA_W@Z 1002d744     mfc140:mfc140.dll
 0002:00000748       __imp_?get_accValue@CWnd@@UAEJUtagVARIANT@@PAPA_W@Z 1002d748     mfc140:mfc140.dll
 0002:0000074c       __imp_?get_accName@CWnd@@UAEJUtagVARIANT@@PAPA_W@Z 1002d74c     mfc140:mfc140.dll
 0002:00000750       __imp_?get_accChild@CWnd@@UAEJUtagVARIANT@@PAPAUIDispatch@@@Z 1002d750     mfc140:mfc140.dll
 0002:00000754       __imp_?get_accChildCount@CWnd@@UAEJPAJ@Z 1002d754     mfc140:mfc140.dll
 0002:00000758       __imp_?get_accParent@CWnd@@UAEJPAPAUIDispatch@@@Z 1002d758     mfc140:mfc140.dll
 0002:0000075c       __imp_?EnsureStdObj@CWnd@@UAEJXZ 1002d75c     mfc140:mfc140.dll
 0002:00000760       __imp_?GetInterfaceMap@CWnd@@MBEPBUAFX_INTERFACEMAP@@XZ 1002d760     mfc140:mfc140.dll
 0002:00000764       __imp_?OnDrawIconicThumbnailOrLivePreview@CWnd@@UAEXAAVCDC@@VCRect@@VCSize@@HAAH@Z 1002d764     mfc140:mfc140.dll
 0002:00000768       __imp_?EndModalLoop@CWnd@@UAEXH@Z 1002d768     mfc140:mfc140.dll
 0002:0000076c       __imp_?ContinueModal@CWnd@@UAEHXZ 1002d76c     mfc140:mfc140.dll
 0002:00000770       __imp_?WinHelpInternal@CWnd@@UAEXKI@Z 1002d770     mfc140:mfc140.dll
 0002:00000774       __imp_?HtmlHelpA@CWnd@@UAEXKI@Z 1002d774     mfc140:mfc140.dll
 0002:00000778       __imp_?WinHelpA@CWnd@@UAEXKI@Z 1002d778     mfc140:mfc140.dll
 0002:0000077c       __imp_?GetScrollBarCtrl@CWnd@@UBEPAVCScrollBar@@H@Z 1002d77c     mfc140:mfc140.dll
 0002:00000780       __imp_?OnToolHitTest@CWnd@@UBEHVCPoint@@PAUtagTOOLINFOA@@@Z 1002d780     mfc140:mfc140.dll
 0002:00000784       __imp_?SetMenu@CWnd@@UAEHPAVCMenu@@@Z 1002d784     mfc140:mfc140.dll
 0002:00000788       __imp_?GetMenu@CWnd@@UBEPAVCMenu@@XZ 1002d788     mfc140:mfc140.dll
 0002:0000078c       __imp_?CalcWindowRect@CWnd@@UAEXPAUtagRECT@@I@Z 1002d78c     mfc140:mfc140.dll
 0002:00000790       __imp_?PreCreateWindow@CWnd@@UAEHAAUtagCREATESTRUCTA@@@Z 1002d790     mfc140:mfc140.dll
 0002:00000794       __imp_?DestroyWindow@CWnd@@UAEHXZ 1002d794     mfc140:mfc140.dll
 0002:00000798       __imp_?CreateEx@CWnd@@UAEHKPBD0KABUtagRECT@@PAV1@IPAX@Z 1002d798     mfc140:mfc140.dll
 0002:0000079c       __imp_?CreateEx@CWnd@@UAEHKPBD0KHHHHPAUHWND__@@PAUHMENU__@@PAX@Z 1002d79c     mfc140:mfc140.dll
 0002:000007a0       __imp_?Create@CWnd@@UAEHPBD0KABUtagRECT@@PAV1@IPAUCCreateContext@@@Z 1002d7a0     mfc140:mfc140.dll
 0002:000007a4       __imp_?PreSubclassWindow@CWnd@@UAEXXZ 1002d7a4     mfc140:mfc140.dll
 0002:000007a8       __imp_??0CWnd@@QAE@XZ      1002d7a8     mfc140:mfc140.dll
 0002:000007ac       __imp_?GetConnectionHook@CCmdTarget@@MAEPAUIConnectionPoint@@ABU_GUID@@@Z 1002d7ac     mfc140:mfc140.dll
 0002:000007b0       __imp_?GetExtraConnectionPoints@CCmdTarget@@MAEHPAVCPtrArray@@@Z 1002d7b0     mfc140:mfc140.dll
 0002:000007b4       __imp_?GetInterfaceHook@CCmdTarget@@UAEPAUIUnknown@@PBX@Z 1002d7b4     mfc140:mfc140.dll
 0002:000007b8       __imp_?OnCreateAggregates@CCmdTarget@@UAEHXZ 1002d7b8     mfc140:mfc140.dll
 0002:000007bc       __imp_?GetEventSinkMap@CCmdTarget@@MBEPBUAFX_EVENTSINKMAP@@XZ 1002d7bc     mfc140:mfc140.dll
 0002:000007c0       __imp_?GetConnectionMap@CCmdTarget@@MBEPBUAFX_CONNECTIONMAP@@XZ 1002d7c0     mfc140:mfc140.dll
 0002:000007c4       __imp_?GetDispatchMap@CCmdTarget@@MBEPBUAFX_DISPMAP@@XZ 1002d7c4     mfc140:mfc140.dll
 0002:000007c8       __imp_?GetCommandMap@CCmdTarget@@MBEPBUAFX_OLECMDMAP@@XZ 1002d7c8     mfc140:mfc140.dll
 0002:000007cc       __imp_?GetTypeLib@CCmdTarget@@UAEJKPAPAUITypeLib@@@Z 1002d7cc     mfc140:mfc140.dll
 0002:000007d0       __imp_?GetTypeLibCache@CCmdTarget@@UAEPAVCTypeLibCache@@XZ 1002d7d0     mfc140:mfc140.dll
 0002:000007d4       __imp_?GetTypeInfoCount@CCmdTarget@@UAEIXZ 1002d7d4     mfc140:mfc140.dll
 0002:000007d8       __imp_?GetDispatchIID@CCmdTarget@@UAEHPAU_GUID@@@Z 1002d7d8     mfc140:mfc140.dll
 0002:000007dc       __imp_?IsInvokeAllowed@CCmdTarget@@UAEHJ@Z 1002d7dc     mfc140:mfc140.dll
 0002:000007e0       __imp_?OnCmdMsg@CCmdTarget@@UAEHIHPAXPAUAFX_CMDHANDLERINFO@@@Z 1002d7e0     mfc140:mfc140.dll
 0002:000007e4       __imp_?SelectGdiObject@CDC@@KGPAVCGdiObject@@PAUHDC__@@PAX@Z 1002d7e4     mfc140:mfc140.dll
 0002:000007e8       __imp_??1CDC@@UAE@XZ       1002d7e8     mfc140:mfc140.dll
 0002:000007ec       __imp_??0CDC@@QAE@XZ       1002d7ec     mfc140:mfc140.dll
 0002:000007f0       __imp_?Attach@CDC@@QAEHPAUHDC__@@@Z 1002d7f0     mfc140:mfc140.dll
 0002:000007f4       __imp_?FromHandle@CDC@@SGPAV1@PAUHDC__@@@Z 1002d7f4     mfc140:mfc140.dll
 0002:000007f8       __imp_?GetRuntimeClass@CBitmap@@UBEPAUCRuntimeClass@@XZ 1002d7f8     mfc140:mfc140.dll
 0002:000007fc       __imp_??0CBrush@@QAE@K@Z   1002d7fc     mfc140:mfc140.dll
 0002:00000800       __imp_?GetRuntimeClass@CBrush@@UBEPAUCRuntimeClass@@XZ 1002d800     mfc140:mfc140.dll
 0002:00000804       __imp_?DeleteObject@CGdiObject@@QAEHXZ 1002d804     mfc140:mfc140.dll
 0002:00000808       __imp_?GetRuntimeClass@CGdiObject@@UBEPAUCRuntimeClass@@XZ 1002d808     mfc140:mfc140.dll
 0002:0000080c       __imp_?Format@?$CStringT@DV?$StrTraitMFC_DLL@DV?$ChTraitsCRT@D@ATL@@@@@ATL@@QAAXPBDZZ 1002d80c     mfc140:mfc140.dll
 0002:00000810       __imp_??1?$CStringT@DV?$StrTraitMFC_DLL@DV?$ChTraitsCRT@D@ATL@@@@@ATL@@QAE@XZ 1002d810     mfc140:mfc140.dll
 0002:00000814       __imp_??0?$CStringT@DV?$StrTraitMFC_DLL@DV?$ChTraitsCRT@D@ATL@@@@@ATL@@QAE@XZ 1002d814     mfc140:mfc140.dll
 0002:00000818       __imp_??3@YAXPAX@Z         1002d818     mfc140:mfc140.dll
 0002:0000081c       __imp_?GetThisClass@CHeaderCtrl@@SGPAUCRuntimeClass@@XZ 1002d81c     mfc140:mfc140.dll
 0002:00000820       __imp_?OnSysColorChange@CWnd@@IAEXXZ 1002d820     mfc140:mfc140.dll
 0002:00000824       __imp_?GetDlgCtrlID@CWnd@@QBEHXZ 1002d824     mfc140:mfc140.dll
 0002:00000828       __imp_?DrawIndirect@CImageList@@QAEHPAVCDC@@HUtagPOINT@@UtagSIZE@@1IKKKKKK@Z 1002d828     mfc140:mfc140.dll
 0002:0000082c       __imp_?FromHandle@CImageList@@SGPAV1@PAU_IMAGELIST@@@Z 1002d82c     mfc140:mfc140.dll
 0002:00000830       __imp_??1CPaintDC@@UAE@XZ  1002d830     mfc140:mfc140.dll
 0002:00000834       __imp_??0CPaintDC@@QAE@PAVCWnd@@@Z 1002d834     mfc140:mfc140.dll
 0002:00000838       __imp_?Draw3dRect@CDC@@QAEXPBUtagRECT@@KK@Z 1002d838     mfc140:mfc140.dll
 0002:0000083c       __imp_?FillSolidRect@CDC@@QAEXPBUtagRECT@@K@Z 1002d83c     mfc140:mfc140.dll
 0002:00000840       __imp_?LineTo@CDC@@QAEHHH@Z 1002d840     mfc140:mfc140.dll
 0002:00000844       __imp_?MoveTo@CDC@@QAE?AVCPoint@@HH@Z 1002d844     mfc140:mfc140.dll
 0002:00000848       __imp_?GetClipBox@CDC@@UBEHPAUtagRECT@@@Z 1002d848     mfc140:mfc140.dll
 0002:0000084c       __imp_?ScaleWindowExt@CDC@@UAE?AVCSize@@HHHH@Z 1002d84c     mfc140:mfc140.dll
 0002:00000850       __imp_?SetWindowExt@CDC@@UAE?AVCSize@@HH@Z 1002d850     mfc140:mfc140.dll
 0002:00000854       __imp_?SetWindowOrg@CDC@@QAE?AVCPoint@@HH@Z 1002d854     mfc140:mfc140.dll
 0002:00000858       __imp_?ScaleViewportExt@CDC@@UAE?AVCSize@@HHHH@Z 1002d858     mfc140:mfc140.dll
 0002:0000085c       __imp_?SetViewportExt@CDC@@UAE?AVCSize@@HH@Z 1002d85c     mfc140:mfc140.dll
 0002:00000860       __imp_?OffsetViewportOrg@CDC@@UAE?AVCPoint@@HH@Z 1002d860     mfc140:mfc140.dll
 0002:00000864       __imp_?SetViewportOrg@CDC@@UAE?AVCPoint@@HH@Z 1002d864     mfc140:mfc140.dll
 0002:00000868       __imp_?SetMapMode@CDC@@UAEHH@Z 1002d868     mfc140:mfc140.dll
 0002:0000086c       __imp_?SetTextColor@CDC@@UAEKK@Z 1002d86c     mfc140:mfc140.dll
 0002:00000870       __imp_?SetBkColor@CDC@@UAEKK@Z 1002d870     mfc140:mfc140.dll
 0002:00000874       __imp_?SelectObject@CDC@@UAEPAVCFont@@PAV2@@Z 1002d874     mfc140:mfc140.dll
 0002:00000878       __imp_?SelectObject@CDC@@QAEPAVCPen@@PAV2@@Z 1002d878     mfc140:mfc140.dll
 0002:0000087c       __imp_?SelectStockObject@CDC@@UAEPAVCGdiObject@@H@Z 1002d87c     mfc140:mfc140.dll
 0002:00000880       __imp_?RestoreDC@CDC@@UAEHH@Z 1002d880     mfc140:mfc140.dll
 0002:00000884       __imp_?SaveDC@CDC@@UAEHXZ  1002d884     mfc140:mfc140.dll
 0002:00000888       __imp_?ReleaseOutputDC@CDC@@UAEXXZ 1002d888     mfc140:mfc140.dll
 0002:0000088c       __imp_?ReleaseAttribDC@CDC@@UAEXXZ 1002d88c     mfc140:mfc140.dll
 0002:00000890       __imp_?SetOutputDC@CDC@@UAEXPAUHDC__@@@Z 1002d890     mfc140:mfc140.dll
 0002:00000894       __imp_?SetAttribDC@CDC@@UAEXPAUHDC__@@@Z 1002d894     mfc140:mfc140.dll
 0002:00000898       __imp_?GetRuntimeClass@CDC@@UBEPAUCRuntimeClass@@XZ 1002d898     mfc140:mfc140.dll
 0002:0000089c       __imp_??0CPen@@QAE@HHK@Z   1002d89c     mfc140:mfc140.dll
 0002:000008a0       __imp_?GetRuntimeClass@CPen@@UBEPAUCRuntimeClass@@XZ 1002d8a0     mfc140:mfc140.dll
 0002:000008a4       __imp_?FromHandle@CGdiObject@@SGPAV1@PAX@Z 1002d8a4     mfc140:mfc140.dll
 0002:000008a8       __imp_??2@YAPAXI@Z         1002d8a8     mfc140:mfc140.dll
 0002:000008ac       __imp_??1CEdit@@UAE@XZ     1002d8ac     mfc140:mfc140.dll
 0002:000008b0       __imp_?GetRuntimeClass@CEdit@@UBEPAUCRuntimeClass@@XZ 1002d8b0     mfc140:mfc140.dll
 0002:000008b4       __imp_?OnChildNotify@CWnd@@MAEHIIJPAJ@Z 1002d8b4     mfc140:mfc140.dll
 0002:000008b8       __imp_?Default@CWnd@@IAEJXZ 1002d8b8     mfc140:mfc140.dll
 0002:000008bc       __imp_?GetWindowTextA@CWnd@@QBEXAAV?$CStringT@DV?$StrTraitMFC_DLL@DV?$ChTraitsCRT@D@ATL@@@@@ATL@@@Z 1002d8bc     mfc140:mfc140.dll
 0002:000008c0       __imp_?SetAtGrow@CStringArray@@QAEXHABV?$CStringT@DV?$StrTraitMFC_DLL@DV?$ChTraitsCRT@D@ATL@@@@@ATL@@@Z 1002d8c0     mfc140:mfc140.dll
 0002:000008c4       __imp_?SetWindowTextA@CWnd@@QAEXPBD@Z 1002d8c4     mfc140:mfc140.dll
 0002:000008c8       __imp_?Delete@CException@@QAEXXZ 1002d8c8     mfc140:mfc140.dll
 0002:000008cc       __imp_??0AFX_MODULE_STATE@@QAE@HP6GJPAUHWND__@@IIJ@ZKH@Z 1002d8cc     mfc140:mfc140.dll
 0002:000008d0       __imp_??1AFX_MODULE_STATE@@UAE@XZ 1002d8d0     mfc140:mfc140.dll
 0002:000008d4       __imp_?AfxSetModuleState@@YGPAVAFX_MODULE_STATE@@PAV1@@Z 1002d8d4     mfc140:mfc140.dll
 0002:000008d8       __imp_??0AFX_MAINTAIN_STATE2@@QAE@PAVAFX_MODULE_STATE@@@Z 1002d8d8     mfc140:mfc140.dll
 0002:000008dc       __imp_??1AFX_MAINTAIN_STATE2@@QAE@XZ 1002d8dc     mfc140:mfc140.dll
 0002:000008e0       __imp_?AfxWinInit@@YGHPAUHINSTANCE__@@0PADH@Z 1002d8e0     mfc140:mfc140.dll
 0002:000008e4       __imp_?AfxWndProc@@YGJPAUHWND__@@IIJ@Z 1002d8e4     mfc140:mfc140.dll
 0002:000008e8       __imp_?AfxTermThread@@YGXPAUHINSTANCE__@@@Z 1002d8e8     mfc140:mfc140.dll
 0002:000008ec       __imp_?AfxWinTerm@@YGXXZ   1002d8ec     mfc140:mfc140.dll
 0002:000008f0       __imp_??0CDynLinkLibrary@@QAE@AAUAFX_EXTENSION_MODULE@@H@Z 1002d8f0     mfc140:mfc140.dll
 0002:000008f4       __imp_?AfxInitExtensionModule@@YGHAAUAFX_EXTENSION_MODULE@@PAUHINSTANCE__@@@Z 1002d8f4     mfc140:mfc140.dll
 0002:000008f8       __imp_?AfxTermExtensionModule@@YGXAAUAFX_EXTENSION_MODULE@@H@Z 1002d8f8     mfc140:mfc140.dll
 0002:000008fc       __imp_?AfxCoreInitModule@@YGXXZ 1002d8fc     mfc140:mfc140.dll
 0002:00000900       __imp_?AfxLockTempMaps@@YGXXZ 1002d900     mfc140:mfc140.dll
 0002:00000904       __imp_?AfxUnlockTempMaps@@YGHH@Z 1002d904     mfc140:mfc140.dll
 0002:00000908       __imp_?GetProfileIntA@CWinApp@@UAEIPBD0H@Z 1002d908     mfc140:mfc140.dll
 0002:0000090c       \177mfc140_NULL_THUNK_DATA 1002d90c     mfc140:mfc140.dll
 0002:00000910       ___guard_check_icall_fptr  1002d910     msvcrt:guard_support.obj
 0002:00000914       ___guard_xfg_check_icall_fptr 1002d914     msvcrt:guard_support.obj
 0002:00000918       ___xc_a                    1002d918     msvcrt:initializers.obj
 0002:00000a14       ___xc_z                    1002da14     msvcrt:initializers.obj
 0002:00000a18       ___xi_a                    1002da18     msvcrt:initializers.obj
 0002:00000a20       ___xi_z                    1002da20     msvcrt:initializers.obj
 0002:00000a24       ___xl_a                    1002da24     msvcrt:tlssup.obj
 0002:00000a28       ___xl_z                    1002da28     msvcrt:tlssup.obj
 0002:00000a2c       ___xp_a                    1002da2c     msvcrt:initializers.obj
 0002:00000a30       ___xp_z                    1002da30     msvcrt:initializers.obj
 0002:00000a34       ___xt_a                    1002da34     msvcrt:initializers.obj
 0002:00000a38       ___xt_z                    1002da38     msvcrt:initializers.obj
 0002:00000a44       ??_7CGdiObject@@6B@        1002da44     BitmapItemComboBox.obj
 0002:00000a5c       ??_7CBrush@@6B@            1002da5c     BitmapItemComboBox.obj
 0002:00000a74       ??_7CBitmap@@6B@           1002da74     BitmapItemComboBox.obj
 0002:00000a8c       ??_7CComboBox@@6B@         1002da8c     BitmapItemComboBox.obj
 0002:00000c10       ??_C@_0HD@JJCHHHNK@C?3?2Program?5Files?5?$CIx86?$CJ?2Microsof@ 1002dc10     BitmapItemComboBox.obj
 0002:00000c84       ??_C@_0BP@OIEOKIDM@Exception?5thrown?5in?5destructor@ 1002dc84     BitmapItemComboBox.obj
 0002:00000ca4       ??_C@_0BB@HBOOMJBF@?$CFTs?5?$CI?$CFTs?3?$CFd?$CJ?6?$CFTs@ 1002dca4     BitmapItemComboBox.obj
 0002:00000cb8       ??_C@_0N@OMEMOKLE@?$CFTs?5?$CI?$CFTs?3?$CFd?$CJ@ 1002dcb8     BitmapItemComboBox.obj
 0002:00000ccc       ??_7CBitmapItemComboBox@@6B@ 1002dccc     BitmapItemComboBox.obj
 0002:00000e6c       ??_C@_01ICJEACDI@?$DL@     1002de6c     Color.obj
 0002:00000e74       ??_7CButton@@6B@           1002de74     ColorButton.obj
 0002:00000fe8       ??_C@_02DKCKIIND@?$CFs@    1002dfe8     ColorButton.obj
 0002:00000ff0       ??_7CColorButton@@6B@      1002dff0     ColorButton.obj
 0002:00001164       ??_C@_07JBLFGBEJ@?$LL?v?5?$LM?$LD?A?$KE@ 1002e164     ColorButton.obj
 0002:0000118c       ??_C@_02DPKJAMEF@?$CFd@    1002e18c     Conversion.obj
 0002:00001190       ??_C@_01CPLAODJH@S@        1002e190     Conversion.obj
 0002:00001194       ??_C@_01PLPBNMEI@M@        1002e194     Conversion.obj
 0002:00001198       ??_C@_01CKDDGHAB@D@        1002e198     Conversion.obj
 0002:0000119a       ??_C@_00CNPNBAHC@@         1002e19a     Conversion.obj
 0002:000011a0       ??_7CRgn@@6B@              1002e1a0     Conversion.obj
 0002:000011b4       ??_C@_08GDAMKODC@?$CFd?0?$CFd?0?$CFd@ 1002e1b4     Conversion.obj
 0002:000011c0       ??_C@_01HIHLOKLC@1@        1002e1c0     Conversion.obj
 0002:000011c4       ??_C@_02NJPGOMH@?$CFf@     1002e1c4     Conversion.obj
 0002:000011c8       ??_C@_01GBGANLPD@0@        1002e1c8     Conversion.obj
 0002:000011cc       ??_C@_01LFCBOECM@?4@       1002e1cc     Conversion.obj
 0002:000011d0       ??_C@_04GHNNFJCK@?$CF?40f@ 1002e1d0     Conversion.obj
 0002:000011d8       ??_C@_02ODDIIJPA@DD@       1002e1d8     Conversion.obj
 0002:000011dc       ??_C@_04BDEGLLOH@MMDD@     1002e1dc     Conversion.obj
 0002:000011e4       ??_C@_02EGJHDPJI@HH@       1002e1e4     Conversion.obj
 0002:000011e8       ??_C@_02DNCLAJDG@MM@       1002e1e8     Conversion.obj
 0002:000011ec       ??_C@_02PPNCLIJD@SS@       1002e1ec     Conversion.obj
 0002:000011f0       ??_C@_01NFFPALBN@Y@        1002e1f0     Conversion.obj
 0002:000011f4       ??_C@_06EBMMBHJD@YYYYMM@   1002e1f4     Conversion.obj
 0002:000011fc       ??_C@_04PKMIKIE@MMSS@      1002e1fc     Conversion.obj
 0002:00001204       ??_C@_04DCGLEEGD@HHMM@     1002e204     Conversion.obj
 0002:0000120c       ??_C@_02LLFJKDMN@?$KB?$LP@ 1002e20c     Conversion.obj
 0002:00001210       ??_C@_0O@OGJGJDOB@1000000000000@ 1002e210     Conversion.obj
 0002:00001220       ??_C@_02CCEMNDKE@?A?$LG@   1002e220     Conversion.obj
 0002:00001224       ??_C@_0N@NDBGNAOD@100000000000@ 1002e224     Conversion.obj
 0002:00001234       ??_C@_04KLOCBIHI@?C?$LF?$LO?o@ 1002e234     Conversion.obj
 0002:0000123c       ??_C@_0M@OGPNCIML@10000000000@ 1002e23c     Conversion.obj
 0002:00001248       ??_C@_04JJFLFAAM@?$LJ?i?$LO?o@ 1002e248     Conversion.obj
 0002:00001250       ??_C@_0L@LIKNPKOD@1000000000@ 1002e250     Conversion.obj
 0002:0000125c       ??_C@_04NOFMPGBM@?$LN?J?$LO?o@ 1002e25c     Conversion.obj
 0002:00001264       ??_C@_09DGIGNMJL@100000000@ 1002e264     Conversion.obj
 0002:00001270       ??_C@_02BGJIBKNE@?$LO?o@   1002e270     Conversion.obj
 0002:00001274       ??_C@_08KDEPFNAG@10000000@ 1002e274     Conversion.obj
 0002:00001280       ??_C@_04FKJFKPFJ@?C?$LF?$LI?$LI@ 1002e280     Conversion.obj
 0002:00001288       ??_C@_07NFIEECMO@1000000@  1002e288     Conversion.obj
 0002:00001290       ??_C@_04GICMOHCN@?$LJ?i?$LI?$LI@ 1002e290     Conversion.obj
 0002:00001298       ??_C@_06MCNKBKIO@100000@   1002e298     Conversion.obj
 0002:000012a0       ??_C@_04CPCLEBDN@?$LN?J?$LI?$LI@ 1002e2a0     Conversion.obj
 0002:000012a8       ??_C@_05CLDMBJBA@10000@    1002e2a8     Conversion.obj
 0002:000012b0       ??_C@_02OHOPKNPF@?$LI?$LI@ 1002e2b0     Conversion.obj
 0002:000012b4       ??_C@_01IHBHIGKO@?0@       1002e2b4     Conversion.obj
 0002:000012b8       ??_C@_01KMDKNFGN@?1@       1002e2b8     Conversion.obj
 0002:000012bc       ??_C@_01JLIPDDHJ@?3@       1002e2bc     Conversion.obj
 0002:000012c0       ??_C@_01IGIGCIAN@H@        1002e2c0     Conversion.obj
 0002:000012c4       ??_C@_04GLAGOKOO@6666@     1002e2c4     Conversion.obj
 0002:000012cc       ??_C@_08GKOAFHAP@?$MA?e?$MA?$PM?A?$LO?$LH?a@ 1002e2cc     Conversion.obj
 0002:000012d8       ??_C@_04PGADPPEN@7777@     1002e2d8     Conversion.obj
 0002:000012e0       ??_C@_0L@HMKJBHCK@?$MA?e?$LI?$LG?$LA?$KI?A?$LO?$LH?a@ 1002e2e0     Conversion.obj
 0002:000012ec       ??_C@_04KAPECDDI@8888@     1002e2ec     Conversion.obj
 0002:000012f4       ??_C@_06FDCJKPFJ@?$MA?e?$LI?$LG?$LA?$KI@ 1002e2f4     Conversion.obj
 0002:000012fc       ??_C@_04DNPBDGJL@9999@     1002e2fc     Conversion.obj
 0002:00001304       ??_C@_06BINLOPDK@?$LN?C?$LA?$KD?$LP?$NM@ 1002e304     Conversion.obj
 0002:00001310       __real@0000000000000000    1002e310     Conversion.obj
 0002:00001318       __real@3fe0000000000000    1002e318     Conversion.obj
 0002:00001320       __real@3ff0000000000000    1002e320     Conversion.obj
 0002:00001328       __real@4024000000000000    1002e328     Conversion.obj
 0002:00001330       __real@405e000000000000    1002e330     Conversion.obj
 0002:00001338       __real@406e000000000000    1002e338     Conversion.obj
 0002:00001340       __real@406fe00000000000    1002e340     Conversion.obj
 0002:00001348       __real@4000000000000000    1002e348     DataMath.obj
 0002:00001350       __real@400921fb54442d11    1002e350     DataMath.obj
 0002:00001358       __real@4046800000000000    1002e358     DataMath.obj
 0002:00001360       __real@4056800000000000    1002e360     DataMath.obj
 0002:00001368       __real@4060e00000000000    1002e368     DataMath.obj
 0002:00001370       __real@4066800000000000    1002e370     DataMath.obj
 0002:00001378       __real@4076800000000000    1002e378     DataMath.obj
 0002:00001380       __real@bff0000000000000    1002e380     DataMath.obj
 0002:00001390       __xmm@7fffffffffffffff7fffffffffffffff 1002e390     DataMath.obj
 0002:000013a0       __xmm@80000000000000008000000000000000 1002e3a0     DataMath.obj
 0002:000013b0       ??_C@_0BD@LPKGMEPL@WM_XEDIT_VK_RETURN@ 1002e3b0     XEdit.obj
 0002:000013c4       ??_C@_0BD@CFJLABMC@WM_XEDIT_VK_ESCAPE@ 1002e3c4     XEdit.obj
 0002:000013dc       ??_7CEdit@@6B@             1002e3dc     XEdit.obj
 0002:0000154c       ??_7CXEdit@@6B@            1002e54c     XEdit.obj
 0002:00001708       ??_C@_0DI@FCBICJNP@1000?5?$MA?L?$LL?s?$MA?G?5?$LA?$KK?$MA?$LK?5?$LL?g?$LP?k?G?R?5?$LM?v?5?$LO?x?$LN?$MA@ 1002e708     XEdit.obj
 0002:00001740       ??_C@_02HAOIJKIC@?$CFc@    1002e740     XEdit.obj
 0002:00001748       ??_7CPen@@6B@              1002e748     XHeaderCtrl.obj
 0002:00001760       ??_7CHeaderCtrl@@6B@       1002e760     XHeaderCtrl.obj
 0002:000018dc       ??_7CMemDC@@6B@            1002e8dc     XHeaderCtrl.obj
 0002:0000195c       ?classCXHeaderCtrl@CXHeaderCtrl@@2UCRuntimeClass@@B 1002e95c     XHeaderCtrl.obj
 0002:0000197c       ??_7CXHeaderCtrl@@6B@      1002e97c     XHeaderCtrl.obj
 0002:00001af8       ??_C@_0N@HEBACGJN@CXHeaderCtrl@ 1002eaf8     XHeaderCtrl.obj
 0002:00001be8       ??_C@_0BN@EIACCKJ@WM_XLISTCTRL_COMBO_SELECTION@ 1002ebe8     XListCtrl.obj
 0002:00001c08       ??_C@_0BO@GDHDGILD@WM_XLISTCTRL_CHECKBOX_CLICKED@ 1002ec08     XListCtrl.obj
 0002:00001c2c       ??_7CFont@@6B@             1002ec2c     XListCtrl.obj
 0002:00001c44       ??_7CListCtrl@@6B@         1002ec44     XListCtrl.obj
 0002:00001db8       ??_7CXListCtrl@@6B@        1002edb8     XListCtrl.obj
 0002:00002058       ??_C@_04FCMNJMCO@?$CFd?$CF?$CF@ 1002f058     XListCtrl.obj
 0002:00002064       ??_7CxSkinButton@@6B@      1002f064     xSkinButton.obj
 0002:00002304       ??_7CTabCtrl@@6B@          1002f304     XTabCtrl.obj
 0002:00002480       ??_7?$CArray@HH@@6B@       1002f480     XTabCtrl.obj
 0002:00002498       ??_7CXTabCtrl@@6B@         1002f498     XTabCtrl.obj
 0002:00002708       ??_C@_01CLKCMJKC@?5@       1002f708     XTabCtrl.obj
 0002:0000270c       ??_C@_0BF@PGCFFKKJ@RMSG_STCONFIGURENAME@ 1002f70c     DlgRunMain.obj
 0002:00002724       ??_C@_0BG@OOPLPPOA@RMSG_VERIFYSCRIPTNAME@ 1002f724     DlgRunMain.obj
 0002:0000273c       ??_C@_0P@BKKCOCLK@RMSG_INTERFACE@ 1002f73c     DlgRunMain.obj
 0002:0000274c       ??_C@_0M@CBBNGGHM@PcTrMng?4dll@ 1002f74c     DlgRunMain.obj
 0002:00002758       ??_C@_0P@IDMAJEGN@HANAROPCTRMAIN@ 1002f758     DlgRunMain.obj
 0002:00002768       ??_C@_06NDLAHCHE@?$CFs?$CF08X@ 1002f768     DlgRunMain.obj
 0002:00002770       ??_C@_02EMFKHFLK@?$CFX@    1002f770     DlgRunMain.obj
 0002:00002778       ??_7?$CArray@PAVCRscDlg@@PAV1@@@6B@ 1002f778     DlgRunMain.obj
 0002:00002790       ??_7CDlgRunMain@@6B@       1002f790     DlgRunMain.obj
 0002:000029a0       ??_C@_08HCBHLGJP@?$LN?E?H?$KD?$LM?$LD?A?$KE@ 1002f9a0     DlgRunMain.obj
 0002:000029ac       ??_C@_08GADFHINH@?A?V?$LJ?$KO?$LM?$LD?A?$KE@ 1002f9ac     DlgRunMain.obj
 0002:000029b8       ??_C@_08MMKJOOFK@?$LA?$KN?A?$KG?C?$LL?$LL?j@ 1002f9b8     DlgRunMain.obj
 0002:000029c4       ??_C@_08DCDJIGLN@?$LP?n?$LP?k?$LM?$LD?A?$KE@ 1002f9c4     DlgRunMain.obj
 0002:000029d0       ??_C@_0BM@PPCICKGL@?2Chart?2STData?2ConfigDef?4dat@ 1002f9d0     DlgRunMain.obj
 0002:000029f0       ??_7CDlgSTConfig@@6B@      1002f9f0     DlgSTConfig.obj
 0002:00002be8       ??_C@_08JFMIELNJ@InputCnt@ 1002fbe8     DlgSTConfig.obj
 0002:00002bf4       ??_C@_09IJIPICN@Variables@ 1002fbf4     DlgSTConfig.obj
 0002:00002c00       ??_C@_09FEBEHBMB@InputName@ 1002fc00     DlgSTConfig.obj
 0002:00002c0c       ??_C@_04HGGBINEM@?$CFs?$CFd@ 1002fc0c     DlgSTConfig.obj
 0002:00002c14       ??_C@_05DCDOHKAB@Input@    1002fc14     DlgSTConfig.obj
 0002:00002c1c       ??_C@_06FIHLBNDD@?$LK?$KP?$LM?v?$LI?m@ 1002fc1c     DlgSTConfig.obj
 0002:00002c24       ??_C@_06OJFAJFEJ@?$LK?$KP?$LM?v?$LA?$KK@ 1002fc24     DlgSTConfig.obj
 0002:00002c2c       ??_C@_0BE@ODKFPHJE@RMSG_STSAVETOUSERST@ 1002fc2c     DlgSTOption.obj
 0002:00002c44       ??_7CDlgSTOption@@6B@      1002fc44     DlgSTOption.obj
 0002:00002e38       ??_C@_0P@OFKHPJJP@?$LL?g?$LP?k?$MA?Z?G?T?$LM?v?$LP?I?$LM?G@ 1002fe38     DlgSTOption.obj
 0002:00002e48       ??_C@_0N@HDJNLEJM@?$LE?$NM?$MA?$KH?$MA?$PM?$LH?$KL?$LP?I?$LM?G@ 1002fe48     DlgSTOption.obj
 0002:00002e58       ??_C@_04KHPEKMEA@?$LB?b?$LK?$LL@ 1002fe58     DlgSTOption.obj
 0002:00002e60       ??_C@_04PIAAFAEL@?$LK?$KP?$LM?v@ 1002fe60     DlgSTOption.obj
 0002:00002e68       ??_C@_08PODAADFG@?$LN?E?H?$KD?G?$KF?$LN?C@ 1002fe68     DlgSTOption.obj
 0002:00002e74       ??_C@_08MDPEPEPN@?A?v?G?$KF?G?$KF?$LN?C@ 1002fe74     DlgSTOption.obj
 0002:00002e80       ??_C@_04HHIPPAHO@?$LK?$LI?$LO?H@ 1002fe80     DlgSTOption.obj
 0002:00002e88       ??_C@_01KICIPPFI@?2@       1002fe88     DlgSTOption.obj
 0002:00002e8c       ??_C@_05DAINAMK@?$FO?$CK?4ST@ 1002fe8c     DlgSTOption.obj
 0002:00002e94       ??_C@_01NBENCBCI@?$CK@     1002fe94     DlgSTOption.obj
 0002:00002e9c       ??_7CRscDlg@@6B@           1002fe9c     RscDlg.obj
 0002:00003064       ??_7CSTConfigureDlgApp@@6B@ 10030064     STConfigureDlg.obj
 0002:0000319c       ??_C@_0P@LNEGBOLO@atlTraceSnapin@ 1003019c     StdAfx.obj
 0002:000031ac       ??_C@_0BA@MCBFIDIC@atlTraceNotImpl@ 100301ac     StdAfx.obj
 0002:000031bc       ??_C@_0BD@PJPCCAKP@atlTraceAllocation@ 100301bc     StdAfx.obj
 0002:000031d0       ??_C@_0BC@PGMFNIFA@atlTraceException@ 100301d0     StdAfx.obj
 0002:000031e4       ??_C@_0N@BNNILHBE@atlTraceTime@ 100301e4     StdAfx.obj
 0002:000031f4       ??_C@_0O@MEOJAOKK@atlTraceCache@ 100301f4     StdAfx.obj
 0002:00003204       ??_C@_0BA@IDBKCKK@atlTraceStencil@ 10030204     StdAfx.obj
 0002:00003214       ??_C@_0P@MBNHGHMI@atlTraceString@ 10030214     StdAfx.obj
 0002:00003224       ??_C@_0M@IOBBMAHG@atlTraceMap@ 10030224     StdAfx.obj
 0002:00003230       ??_C@_0N@FEAAACHD@atlTraceUtil@ 10030230     StdAfx.obj
 0002:00003240       ??_C@_0BB@DNJDADMG@atlTraceSecurity@ 10030240     StdAfx.obj
 0002:00003254       ??_C@_0N@KLPNCFEE@atlTraceSync@ 10030254     StdAfx.obj
 0002:00003264       ??_C@_0O@KHOBHOBJ@atlTraceISAPI@ 10030264     StdAfx.obj
 0002:00003272       ?chDirSep@ATL@@3DB         10030272     StdAfx.obj
 0002:00003273       ?chRightBracket@ATL@@3DB   10030273     StdAfx.obj
 0002:00003274       ?chLeftBracket@ATL@@3DB    10030274     StdAfx.obj
 0002:00003275       ?chQuote@ATL@@3DB          10030275     StdAfx.obj
 0002:00003276       ?chEquals@ATL@@3DB         10030276     StdAfx.obj
 0002:00003278       ?szStringVal@ATL@@3QBDB    10030278     StdAfx.obj
 0002:0000327c       ?multiszStringVal@ATL@@3QBDB 1003027c     StdAfx.obj
 0002:00003280       ?szDwordVal@ATL@@3QBDB     10030280     StdAfx.obj
 0002:00003284       ?szBinaryVal@ATL@@3QBDB    10030284     StdAfx.obj
 0002:00003288       ??_C@_01HMGJMAIH@B@        10030288     StdAfx.obj
 0002:0000328c       ?szValToken@ATL@@3QBDB     1003028c     StdAfx.obj
 0002:00003290       ??_C@_03LAIAPFCB@Val@      10030290     StdAfx.obj
 0002:00003294       ?szForceRemove@ATL@@3QBDB  10030294     StdAfx.obj
 0002:00003298       ??_C@_0M@DBGDLGLL@ForceRemove@ 10030298     StdAfx.obj
 0002:000032a4       ?szNoRemove@ATL@@3QBDB     100302a4     StdAfx.obj
 0002:000032a8       ??_C@_08KAAPDIAN@NoRemove@ 100302a8     StdAfx.obj
 0002:000032b4       ?szDelete@ATL@@3QBDB       100302b4     StdAfx.obj
 0002:000032b8       ??_C@_06JBKGCNBB@Delete@   100302b8     StdAfx.obj
 0002:000032c0       _CLSID_Registrar           100302c0     StdAfx.obj
 0002:000032d0       _IID_IRegistrar            100302d0     StdAfx.obj
 0002:000032e0       _IID_IDocHostUIHandlerDispatch 100302e0     StdAfx.obj
 0002:000032f4       ??_7CAtlStringMgr@ATL@@6B@ 100302f4     StdAfx.obj
 0002:0000330c       _IID_IAxWinHostWindow      1003030c     StdAfx.obj
 0002:0000331c       _IID_IAxWinHostWindowLic   1003031c     StdAfx.obj
 0002:0000332c       _IID_IAxWinAmbientDispatch 1003032c     StdAfx.obj
 0002:0000333c       _IID_IAxWinAmbientDispatchEx 1003033c     StdAfx.obj
 0002:0000334c       _IID_IInternalConnection   1003034c     StdAfx.obj
 0002:0000335c       ?szInvalidDateTime@ATL@@3QBDB 1003035c     StdAfx.obj
 0002:00003360       ??_C@_0BB@KEKMKJPM@Invalid?5DateTime@ 10030360     StdAfx.obj
 0002:00003374       ?szInvalidDateTimeSpan@ATL@@3QBDB 10030374     StdAfx.obj
 0002:00003378       ??_C@_0BF@GPPHKJFN@Invalid?5DateTimeSpan@ 10030378     StdAfx.obj
 0002:00003390       ?CLSID_WinFormsControl@@3U_GUID@@B 10030390     StdAfx.obj
 0002:000033a0       _c_DwmMaxQueuedBuffers     100303a0     StdAfx.obj
 0002:000033a4       _c_DwmMaxMonitors          100303a4     StdAfx.obj
 0002:000033a8       _c_DwmMaxAdapters          100303a8     StdAfx.obj
 0002:000033ac       _LIBID_ATLLib              100303ac     StdAfx.obj
 0002:000033c0       ??_7CWin32Heap@ATL@@6B@    100303c0     StdAfx.obj
 0002:000033d4       ??_C@_0BK@FBLMOCPF@RMSG_FORMINITIALCOMPLETED@ 100303d4     StdAfx.obj
 0002:000033f0       ??_C@_0BF@JNMMFBNP@RMSG_EVENT_CODEINPUT@ 100303f0     StdAfx.obj
 0002:00003408       ??_C@_0BF@LEGBOMJF@RMSG_EVENT_ACCTINPUT@ 10030408     StdAfx.obj
 0002:00003420       ??_C@_0BF@FABJBMLM@RMSG_EVENT_SPININPUT@ 10030420     StdAfx.obj
 0002:00003438       ??_C@_0BC@PGMEIMOI@RMSG_EVENT_SIGNAL@ 10030438     StdAfx.obj
 0002:0000344c       ??_C@_0BF@FPLDPAEH@RMSG_FORMSTATECHANGE@ 1003044c     StdAfx.obj
 0002:00003464       ??_C@_0N@IMGBDGND@RMSG_TABSTOP@ 10030464     StdAfx.obj
 0002:00003474       ??_C@_0BC@MMIGKJED@RMSG_LBTNDBLCLICK@ 10030474     StdAfx.obj
 0002:00003488       ??_C@_0O@DGNCFOOP@RMSG_LBTNDOWN@ 10030488     StdAfx.obj
 0002:00003498       ??_C@_0BC@EMMLKNDL@RMSG_ENDSCROLLPOS@ 10030498     StdAfx.obj
 0002:000034ac       ??_C@_0BE@IEJDDJPC@RMSG_LSHAREDCHANGED@ 100304ac     StdAfx.obj
 0002:000034c0       ??_C@_0BA@MKMIKKJB@atlTraceGeneral@ 100304c0     StdAfx.obj
 0002:000034d0       ??_C@_0M@DGPFJEBB@atlTraceCOM@ 100304d0     StdAfx.obj
 0002:000034dc       ??_C@_0L@LHELAKBP@atlTraceQI@ 100304dc     StdAfx.obj
 0002:000034e8       ??_C@_0BC@MALHFBAO@atlTraceRegistrar@ 100304e8     StdAfx.obj
 0002:000034fc       ??_C@_0BB@ILPPDKFL@atlTraceRefcount@ 100304fc     StdAfx.obj
 0002:00003510       ??_C@_0BC@DGHHNKDC@atlTraceWindowing@ 10030510     StdAfx.obj
 0002:00003524       ??_C@_0BB@GHKJKKIE@atlTraceControls@ 10030524     StdAfx.obj
 0002:00003538       ??_C@_0BA@DKOAAGGM@atlTraceHosting@ 10030538     StdAfx.obj
 0002:00003548       ??_C@_0BB@BEBMGMDO@atlTraceDBClient@ 10030548     StdAfx.obj
 0002:0000355c       ??_C@_0BB@GOOPDKI@RMSG_GETPCTRDATA@ 1003055c     StdAfx.obj
 0002:00003570       ??_C@_0BB@JPACFCL@RMSG_SETPCTRDATA@ 10030570     StdAfx.obj
 0002:00003584       ??_C@_0BD@KOADKDIA@atlTraceDBProvider@ 10030584     StdAfx.obj
 0002:0000359c       ??_7CStatic@@6B@           1003059c     TabAuthority.obj
 0002:00003714       ??_7CDateTimeCtrl@@6B@     10030714     TabAuthority.obj
 0002:00003888       ??_7CTabAuthority@@6B@     10030888     TabAuthority.obj
 0002:00003ab0       ??_C@_0DG@LAFODEPF@2?$LA?$LD?$MA?G?5?$LK?q?$LJ?P?$LJ?x?H?$KD?$LA?$KB?5?$MA?O?D?$KB?G?O?A?v?5?$LO?J?$LN?$MA?$LE@ 10030ab0     TabAuthority.obj
 0002:00003ae8       ??_C@_06CLONMKIH@?$CFY?$CFm?$CFd@ 10030ae8     TabAuthority.obj
 0002:00003af4       ??_7CTabBasic@@6B@         10030af4     TabBasic.obj
 0002:00003d00       ??_C@_0M@NCPMMCDO@Explanation@ 10030d00     TabBasic.obj
 0002:00003d0c       ??_C@_05NIKDGMHP@Basic@    10030d0c     TabBasic.obj
 0002:00003d14       ??_C@_08GELGMCJC@LangType@ 10030d14     TabBasic.obj
 0002:00003d20       ??_C@_0CA@LDFJLPEP@Trade?5Station?$LP?$KB?$LM?$KN?5?$LL?g?$LP?k?$LF?G?$LE?B?5?$LJ?$KO?$LJ?$PN@ 10030d20     TabBasic.obj
 0002:00003d40       ??_C@_0BP@LKPENCMG@Yes?5Language?$LP?$KB?$LM?$KN?5?$LL?g?$LP?k?$LF?G?$LE?B?5?$LJ?$KO?$LJ?$PN@ 10030d40     TabBasic.obj
 0002:00003d64       ??_7CCommonDialog@@6B@     10030d64     TabIndex.obj
 0002:00003efc       ??_7?$CArray@VCIndexData@@V1@@@6B@ 10030efc     TabIndex.obj
 0002:00003f14       ??_7CTabIndex@@6B@         10030f14     TabIndex.obj
 0002:00004198       ??_C@_07PEPFMEAD@UseBull@  10031198     TabIndex.obj
 0002:000041a0       ??_C@_07HIHFDPBA@UseBear@  100311a0     TabIndex.obj
 0002:000041a8       ??_C@_05FNNGFGLF@Index@    100311a8     TabIndex.obj
 0002:000041b0       ??_C@_04FABLJDN@Name@      100311b0     TabIndex.obj
 0002:000041b8       ??_C@_04KOACHJEN@Type@     100311b8     TabIndex.obj
 0002:000041c0       ??_C@_05PDOBBJNA@Color@    100311c0     TabIndex.obj
 0002:000041c8       ??_C@_05KCIEHPFN@Shape@    100311c8     TabIndex.obj
 0002:000041d0       ??_C@_05PKNGFHKN@Thick@    100311d0     TabIndex.obj
 0002:000041d8       ??_C@_07MBGECCKL@ClrBull@  100311d8     TabIndex.obj
 0002:000041e0       ??_C@_07ENOENJLI@ClrBear@  100311e0     TabIndex.obj
 0002:000041e8       ??_C@_06MKCPLBEP@?A?v?G?$KF?$LI?m@ 100311e8     TabIndex.obj
 0002:000041f0       ??_C@_03EAIPFAE@255@       100311f0     TabRunClear.obj
 0002:000041f4       ??_C@_08HNMDJOHO@16711680@ 100311f4     TabRunClear.obj
 0002:00004200       ??_C@_03NKBOLEBK@0?41@     10031200     TabRunClear.obj
 0002:00004204       ??_C@_03KHGJEAFP@0?44@     10031204     TabRunClear.obj
 0002:00004208       ??_C@_08IFJCKPBE@RunJumun@ 10031208     TabRunClear.obj
 0002:00004214       ??_C@_04HEBPOIHN@Acct@     10031214     TabRunClear.obj
 0002:0000421c       ??_C@_08JIEKPDDN@AcctName@ 1003121c     TabRunClear.obj
 0002:00004228       ??_C@_09PBAMDNFG@MKPRC_ENT@ 10031228     TabRunClear.obj
 0002:00004234       ??_C@_09IBLJBBGC@MKPRC_CLR@ 10031234     TabRunClear.obj
 0002:00004240       ??_C@_07DKAPHGBA@JAmount@  10031240     TabRunClear.obj
 0002:00004248       ??_C@_08OPHLCDJG@BuyPrice@ 10031248     TabRunClear.obj
 0002:00004254       ??_C@_09IFJBEAG@SellPrice@ 10031254     TabRunClear.obj
 0002:00004260       ??_C@_07OPLPMPLO@JMethod@  10031260     TabRunClear.obj
 0002:00004268       ??_C@_05DDMGGBEF@JTime@    10031268     TabRunClear.obj
 0002:00004270       ??_C@_0N@PHFNPPGD@JStartSignal@ 10031270     TabRunClear.obj
 0002:00004280       ??_C@_0O@GGGJIOBG@Sound_Buy_Use@ 10031280     TabRunClear.obj
 0002:00004290       ??_C@_0P@PLANCCBL@Sound_Buy_File@ 10031290     TabRunClear.obj
 0002:000042a0       ??_C@_0P@ELHCNFMP@Sound_Sell_Use@ 100312a0     TabRunClear.obj
 0002:000042b0       ??_C@_0BA@ECPFDDA@Sound_Sell_File@ 100312b0     TabRunClear.obj
 0002:000042c0       ??_C@_09HGMEBGJP@?$CFs?2Media?2@ 100312c0     TabRunClear.obj
 0002:000042cc       ??_C@_08KBMMPOBE@ding?4wav@ 100312cc     TabRunClear.obj
 0002:000042d8       ??_C@_09JICOEDDI@chord?4wav@ 100312d8     TabRunClear.obj
 0002:000042e4       ??_C@_08LLMMGHPD@ShapeBuy@ 100312e4     TabRunClear.obj
 0002:000042f0       ??_C@_06CPODCDOI@Signal@   100312f0     TabRunClear.obj
 0002:000042f8       ??_C@_0O@GJJKDADC@ShapeExitlong@ 100312f8     TabRunClear.obj
 0002:00004308       ??_C@_09PKDDMDFM@ShapeSell@ 10031308     TabRunClear.obj
 0002:00004314       ??_C@_0P@GBBMBNOC@ShapeExitshort@ 10031314     TabRunClear.obj
 0002:00004324       ??_C@_06HGIOMLFJ@ClrBuy@   10031324     TabRunClear.obj
 0002:0000432c       ??_C@_0M@FJPKOBBF@ClrExitlong@ 1003132c     TabRunClear.obj
 0002:00004338       ??_C@_07MMPNMLAG@ClrSell@  10031338     TabRunClear.obj
 0002:00004340       ??_C@_0N@MECGMIFI@ClrExitshort@ 10031340     TabRunClear.obj
 0002:00004350       ??_C@_0L@DJJDHKPF@ClearPoint@ 10031350     TabRunClear.obj
 0002:0000435c       ??_C@_08DIPLEMAP@RunSetup@ 1003135c     TabRunClear.obj
 0002:00004368       ??_C@_04FKMDNGOE@Chk1@     10031368     TabRunClear.obj
 0002:00004370       ??_C@_03MDLPKKEC@ED1@      10031370     TabRunClear.obj
 0002:00004374       ??_C@_02KKFPAPOP@P1@       10031374     TabRunClear.obj
 0002:00004378       ??_C@_02KIBJLBLG@S1@       10031378     TabRunClear.obj
 0002:0000437c       ??_C@_06IEMDKIBD@CLR_?$CFs@ 1003137c     TabRunClear.obj
 0002:00004384       ??_C@_04HBOOIFCH@Chk2@     10031384     TabRunClear.obj
 0002:0000438c       ??_C@_03OIJCPJIB@ED2@      1003138c     TabRunClear.obj
 0002:00004390       ??_C@_02IBHCFMCM@P2@       10031390     TabRunClear.obj
 0002:00004394       ??_C@_02IDDEOCHF@S2@       10031394     TabRunClear.obj
 0002:00004398       ??_C@_01FDFGLJHB@2@        10031398     TabRunClear.obj
 0002:0000439c       ??_C@_04GIPFLEGG@Chk3@     1003139c     TabRunClear.obj
 0002:000043a4       ??_C@_03PBIJMIMA@ED3@      100313a4     TabRunClear.obj
 0002:000043a8       ??_C@_02JIGJGNGN@P3@       100313a8     TabRunClear.obj
 0002:000043ac       ??_C@_02JKCPNDDE@S3@       100313ac     TabRunClear.obj
 0002:000043b0       ??_C@_01EKENIIDA@3@        100313b0     TabRunClear.obj
 0002:000043b4       ??_C@_04CHLECCKB@Chk4@     100313b4     TabRunClear.obj
 0002:000043bc       ??_C@_03LOMIFOAH@ED4@      100313bc     TabRunClear.obj
 0002:000043c0       ??_C@_02NHCIPLKK@P4@       100313c0     TabRunClear.obj
 0002:000043c4       ??_C@_02NFGOEFPD@S4@       100313c4     TabRunClear.obj
 0002:000043c8       ??_C@_01FAMBOPH@4@         100313c8     TabRunClear.obj
 0002:000043cc       ??_C@_04DOKPBDOA@Chk5@     100313cc     TabRunClear.obj
 0002:000043d4       ??_C@_03KHNDGPEG@ED5@      100313d4     TabRunClear.obj
 0002:000043d8       ??_C@_02MODDMKOL@P5@       100313d8     TabRunClear.obj
 0002:000043dc       ??_C@_04BAFOPPNE@Bong@     100313dc     TabRunClear.obj
 0002:000043e4       ??_C@_04BFICEACD@Chk6@     100313e4     TabRunClear.obj
 0002:000043ec       ??_C@_05CDDCFJNA@TimeA@    100313ec     TabRunClear.obj
 0002:000043f4       ??_C@_07GFAEBBEE@ED_Time@  100313f4     TabRunClear.obj
 0002:000043fc       ??_C@_04MJJHBGC@Chk7@      100313fc     TabRunClear.obj
 0002:00004404       ??_C@_03IMPODMIF@ED6@      10031404     TabRunClear.obj
 0002:00004408       ??_C@_03JFOFANME@ED7@      10031408     TabRunClear.obj
 0002:0000440c       ??_C@_02OFBOJJCI@P6@       1003140c     TabRunClear.obj
 0002:00004410       ??_C@_02PMAFKIGJ@P7@       10031410     TabRunClear.obj
 0002:00004414       ??_C@_02MMHFHELC@S5@       10031414     TabRunClear.obj
 0002:00004418       ??_C@_01BMBHCPLG@5@        10031418     TabRunClear.obj
 0002:0000441c       ??_C@_02PKFBJPLJ@10@       1003141c     TabRunClear.obj
 0002:00004420       ??_C@_02PIBHCBOA@20@       10031420     TabRunClear.obj
 0002:00004424       ??_C@_02PJNFELNH@30@       10031424     TabRunClear.obj
 0002:00004428       ??_C@_05PFBNHJLB@02?300@   10031428     TabRunClear.obj
 0002:00004430       ??_C@_05IEPODGEO@Allow@    10031430     TabRunClear.obj
 0002:00004438       ??_C@_08PHIBHFDB@RunClear@ 10031438     TabRunClear.obj
 0002:00004444       ??_C@_06HJIMLMON@Repeat@   10031444     TabRunClear.obj
 0002:0000444c       ??_C@_06EFLNJIJO@JCount@   1003144c     TabRunClear.obj
 0002:00004454       ??_C@_06CCNJGCGG@TaxBuy@   10031454     TabRunClear.obj
 0002:0000445c       ??_C@_07HKMPLBJC@TaxSell@  1003145c     TabRunClear.obj
 0002:00004464       ??_C@_05MJDDMNJJ@cbTax@    10031464     TabRunClear.obj
 0002:0000446c       ??_C@_0L@IAKIPLHP@SlipigyBuy@ 1003146c     TabRunClear.obj
 0002:00004478       ??_C@_0M@BOAGGIML@SlipigySell@ 10031478     TabRunClear.obj
 0002:00004484       ??_C@_0L@KHLJBL@cbSplipigy@ 10031484     TabRunClear.obj
 0002:00004490       ??_C@_01FGNFDNOH@?$CF@     10031490     TabRunClear.obj
 0002:00004494       ??_C@_05BGOFFEGG@Point@    10031494     TabRunClear.obj
 0002:0000449c       ??_C@_0O@HHAMHAOB@?$LI?E?$LM?v?1?$LI?E?$LM?v?C?$LL?$LL?j@ 1003149c     TabRunClear.obj
 0002:000044ac       ??_C@_0O@LJFLAIIP@?$LI?E?$LF?$LF?1?$LI?E?$LF?$LF?C?$LL?$LL?j@ 100314ac     TabRunClear.obj
 0002:000044bc       ??_C@_09POENOPOK@?$LI?p?$LF?N?5?G?c?$LP?k@ 100314bc     TabRunClear.obj
 0002:000044c8       ??_C@_09OBMKPMON@?G?c?$LP?k?5?$LO?H?G?T@ 100314c8     TabRunClear.obj
 0002:000044d4       ??_C@_0BF@BKGKBDII@?$LE?Y?$LI?$KF?5?A?x?$MA?T?$LN?E?H?$KD?$LI?$LI?5?G?c?$LP?k@ 100314d4     TabRunClear.obj
 0002:000044f0       ??_7CTabRunClear@@6B@      100314f0     TabRunClear.obj
 0002:000046cc       ??_C@_04FOELEPEP@0?405@    100316cc     TabRunClear.obj
 0002:000046d4       ??_C@_0BH@KFIGLKAC@RMSG_GET_CONTROLHANDLE@ 100316d4     TabRunJumun.obj
 0002:000046ec       ??_C@_0CA@KGMJDKOL@RMSG_GET_DISPATCHER_ACCOUNTCTRL@ 100316ec     TabRunJumun.obj
 0002:0000470c       ??_C@_0BP@PKMKHKEC@RMSG_GET_INTERFACE_ACCOUNTCTRL@ 1003170c     TabRunJumun.obj
 0002:0000472c       ??_C@_0BF@FFOGLBCK@RMSG_GET_ACCOUNTINFO@ 1003172c     TabRunJumun.obj
 0002:00004744       ??_C@_0BO@DHIFIPBM@RMSG_GET_AVAILABLEFOR_STORDER@ 10031744     TabRunJumun.obj
 0002:00004764       ??_C@_06HIBNJJGC@?G?v?$MA?g?$LA?$KB@ 10031764     TabRunJumun.obj
 0002:0000476c       ??_C@_09MOCMGEAJ@?$LI?E?$LM?v1?H?$KD?$LA?$KB@ 1003176c     TabRunJumun.obj
 0002:00004778       ??_C@_09EILIBGKH@?$LI?E?$LM?v2?H?$KD?$LA?$KB@ 10031778     TabRunJumun.obj
 0002:00004784       ??_C@_09IDOEMFAC@?$LI?E?$LM?v3?H?$KD?$LA?$KB@ 10031784     TabRunJumun.obj
 0002:00004790       ??_C@_09KEIABAMG@?$LI?E?$LF?$LF1?H?$KD?$LA?$KB@ 10031790     TabRunJumun.obj
 0002:0000479c       ??_C@_09CCBEGCGI@?$LI?E?$LF?$LF2?H?$KD?$LA?$KB@ 1003179c     TabRunJumun.obj
 0002:000047a8       ??_C@_09OJEILBMN@?$LI?E?$LF?$LF3?H?$KD?$LA?$KB@ 100317a8     TabRunJumun.obj
 0002:000047b4       ??_C@_06GEHIMJOD@?$LL?s?G?Q?$LA?$KB@ 100317b4     TabRunJumun.obj
 0002:000047bc       ??_C@_06DMAILEGK@?G?O?G?Q?$LA?$KB@ 100317bc     TabRunJumun.obj
 0002:000047c4       ??_C@_0BD@EPJNIPEL@?A?V?$LJ?$KO?$LO?x?$MA?$LN?$CI?$LA?$KB?$LL?s?$MA?$PL?$LP?k?$CJ@ 100317c4     TabRunJumun.obj
 0002:000047d8       ??_C@_0BN@DMJIOJCK@?$LJ?$NN?$MA?Z?$LF?$LP?A?V?$LJ?$KO?$CI?H?$KO?$MA?N?5?H?D?5?A?V?$LJ?$KO?$MA?$PM?$LM?$NL?$CJ@ 100317d8     TabRunJumun.obj
 0002:000047f8       ??_C@_0M@MPLBFAJI@?A?$LG?$LA?G?5?$LI?$LI?A?$LH?$LN?C@ 100317f8     TabRunJumun.obj
 0002:00004804       ??_C@_09HIDKNMGK@?$LK?$MA?5?$LP?O?$LM?$LK?$LN?C@ 10031804     TabRunJumun.obj
 0002:00004810       ??_C@_08GMCEMIFE@?A?x?$MA?T?$LN?E?H?$KD@ 10031810     TabRunJumun.obj
 0002:0000481c       ??_C@_08NPHPCMOA@?$LI?p?$LF?g?$LN?E?H?$KD@ 1003181c     TabRunJumun.obj
 0002:0000482c       ??_7CTabRunJumun@@6B@      1003182c     TabRunJumun.obj
 0002:00004ae0       ??_C@_0N@LFDIAMLP@?2PcTrMng?4cfg@ 10031ae0     TabRunJumun.obj
 0002:00004af0       ??_C@_04HDOCAJNK@?$CFs?$CFs@ 10031af0     TabRunJumun.obj
 0002:00004af8       ??_C@_08PMDHELKD@ShowList@ 10031af8     TabRunJumun.obj
 0002:00004b04       ??_C@_07FENCDID@Account@   10031b04     TabRunJumun.obj
 0002:00004b0c       ??_C@_0CO@FNOGDLEH@Wav?5Files?5?$CI?$CK?4wav?$CJ?$HM?$CK?4wav?$HMAll?5Fil@ 10031b0c     TabRunJumun.obj
 0002:00004b3c       ??_C@_06GKPBHAJK@Media?2@  10031b3c     TabRunJumun.obj
 0002:00004b44       ??_C@_03BICDMHKB@wav@      10031b44     TabRunJumun.obj
 0002:00004b48       ??_C@_01DNKMNLPK@?$HM@     10031b48     TabRunJumun.obj
 0002:00004b4c       ??_C@_0DK@IPANFHKA@?A?V?$LJ?$KO?$LJ?f?$LN?D?$MA?L?5?$LJ?$NN?$MA?Z?$LF?$LP?A?V?$LJ?$KO?$MA?O?5?$LA?f?$LP?l?$LP?$KB?$LE@ 10031b4c     TabRunJumun.obj
 0002:00004b88       ??_C@_0DE@JMGPIA@?$LF?N?$LA?$LD?$MA?G?5?$LJ?x?H?$KD?$LA?$KB?5?$MA?O?D?$KB?G?O?A?v?5?$LO?J?$LN?$MA?$LE?O?$LE?Y@ 10031b88     TabRunJumun.obj
 0002:00004bbc       ??_C@_0CI@HMIENFKN@?$LK?q?$LJ?P?$LJ?x?H?$KD?$LA?$KB?5?$LE?Y?$LI?$KI?$LE?O?$LE?Y?4?5?$LE?Y?$LN?C?5?$MA?T?$LH?B?$LJ@ 10031bbc     TabRunJumun.obj
 0002:00004be4       ??_C@_04PEKBEBNA@?$LP?$MA?$MA?$PM@ 10031be4     TabRunSetup.obj
 0002:00004bec       ??_C@_04ONCNKMJD@?$LP?$MA?H?D@ 10031bec     TabRunSetup.obj
 0002:00004bf4       ??_C@_02KDNDDMCP@?$KB?Z@   10031bf4     TabRunSetup.obj
 0002:00004bf8       ??_C@_02IIPOGPOM@?$KB?Y@   10031bf8     TabRunSetup.obj
 0002:00004bfc       ??_C@_02BBLIHIKN@?$KC?$MA@ 10031bfc     TabRunSetup.obj
 0002:00004c00       ??_C@_02LJBPBNJE@?$KC?$LP@ 10031c00     TabRunSetup.obj
 0002:00004c04       ??_C@_02CDIOBKCP@?$KC?B@   10031c04     TabRunSetup.obj
 0002:00004c08       ??_C@_02DKJFCLGO@?$KC?C@   10031c08     TabRunSetup.obj
 0002:00004c0c       ??_C@_02JPGBNDBH@?$KB?a@   10031c0c     TabRunSetup.obj
 0002:00004c10       ??_C@_02IGHKOCFG@?$KB?$OA@ 10031c10     TabRunSetup.obj
 0002:00004c18       ??_7CTabRunSetup@@6B@      10031c18     TabRunSetup.obj
 0002:00004e70       ??_C@_03JALODAI@?$CFld@    10031e70     TabRunSetup.obj
 0002:00004e74       ??_C@_02EOKDGIFO@?$KB?h@   10031e74     TabRunSignal.obj
 0002:00004e78       ??_C@_02FHLIFJBP@?$KB?i@   10031e78     TabRunSignal.obj
 0002:00004e7c       ??_C@_02KNFHLBJF@?$KB?c@   10031e7c     TabRunSignal.obj
 0002:00004e80       ??_C@_02PLANBGBD@?$KB?e@   10031e80     TabRunSignal.obj
 0002:00004e84       ??_C@_02LEEMIANE@?$KB?b@   10031e84     TabRunSignal.obj
 0002:00004e88       ??_C@_02OCBGCHFC@?$KB?d@   10031e88     TabRunSignal.obj
 0002:00004e90       ??_7CTabRunSignal@@6B@     10031e90     TabRunSignal.obj
 0002:000050d4       ??_7CTabSignal@@6B@        100320d4     TabSignal.obj
 0002:00005310       ??_C@_06FCMAJJHB@UseBuy@   10032310     TabSignal.obj
 0002:00005318       ??_C@_07PJGMCNKO@UseSell@  10032318     TabSignal.obj
 0002:00005320       ??_C@_0M@ECKDADJF@UseExitlong@ 10032320     TabSignal.obj
 0002:0000532c       ??_C@_0N@CJIFBCJK@UseExitshort@ 1003232c     TabSignal.obj
 0002:0000533c       ??_C@_0P@COPLHHII@ShowSignalName@ 1003233c     TabSignal.obj
 0002:0000534c       ??_C@_0O@EOJLGNKN@ShowSignalQty@ 1003234c     TabSignal.obj
 0002:00005360       ??_7CTabVariables@@6B@     10032360     TabVariables.obj
 0002:00005570       ??_C@_0O@FPGHFDEA@NewVariable?$CFd@ 10032570     TabVariables.obj
 0002:00005584       ??_7CExDrawButton@@6B@     10032584     ExControl:ExDrawButton.obj
 0002:0000570c       ??_7CExLoadLib@@6B@        1003270c     ExControl:ExDrawButton.obj
 0002:00005710       ??_C@_0CD@INEDAMEN@DLL?$FL?$CFs?$FN?$MA?$LL?5Load?G?R?5?$LM?v?5?$LO?x?$LN?$MA?$LE?O?$LE?Y?4?5?$FL@ 10032710     ExControl:ExDrawButton.obj
 0002:00005734       ??_C@_04OHDBDCPJ@?2Dev@    10032734     ExControl:ExDrawButton.obj
 0002:00005740       ??_7CLoaderDrawButton@@6B@ 10032740     ExControl:ExDrawButton.obj
 0002:00005744       ??_C@_0N@GEEODKHG@ExButton?4dll@ 10032744     ExControl:ExDrawButton.obj
 0002:00005754       ??_C@_05BMGBEOOC@?$CFs?2?$CFs@ 10032754     ExControl:ExDrawButton.obj
 0002:0000575c       ??_C@_0BB@JBDOCKKP@Ex_ActionControl@ 1003275c     ExControl:ExDrawButton.obj
 0002:00005770       ??_C@_0BC@PGEAKCHE@Ex_InitDrawButton@ 10032770     ExControl:ExDrawButton.obj
 0002:00005784       ??_C@_0BD@LKOOKBPG@Ex_InitDrawButton2@ 10032784     ExControl:ExDrawButton.obj
 0002:00005798       ??_C@_0O@HJMOOLG@Ex_ExitButton@ 10032798     ExControl:ExDrawButton.obj
 0002:000057a8       ??_C@_0BB@CHEHMADH@Ex_SetDrawButton@ 100327a8     ExControl:ExDrawButton.obj
 0002:000057bc       ??_C@_0BC@BNIJDNAL@Ex_DrawItemButton@ 100327bc     ExControl:ExDrawButton.obj
 0002:000057d0       ??_C@_0L@DJFMIDOF@Ex_SetText@ 100327d0     ExControl:ExDrawButton.obj
 0002:000057dc       ??_C@_0L@CNADMACE@Ex_SetIcon@ 100327dc     ExControl:ExDrawButton.obj
 0002:000057e8       ??_C@_0BJ@LGMPMCJG@Ex_GetSkinNotifyFunction@ 100327e8     ExControl:ExDrawButton.obj
 0002:00005804       ??_C@_0CA@IAIBPFKD@Ex_PreSubclassWindow_DrawButton@ 10032804     ExControl:ExDrawButton.obj
 0002:00005824       ??_C@_0BG@EAFAMFDC@Ex_GetText_DrawButton@ 10032824     ExControl:ExDrawButton.obj
 0002:0000583c       ??_C@_0BM@HBHBHJMC@Ex_UseToggleMode_DrawButton@ 1003283c     ExControl:ExDrawButton.obj
 0002:00005858       ??_C@_0BN@KABDCPCN@Ex_GetToggleState_DrawButton@ 10032858     ExControl:ExDrawButton.obj
 0002:00005878       ??_C@_0BN@CANFOCIL@Ex_SetToggleState_DrawButton@ 10032878     ExControl:ExDrawButton.obj
 0002:00005898       ??_C@_0BM@KGOCHHHE@Ex_ReleasePushed_DrawButton@ 10032898     ExControl:ExDrawButton.obj
 0002:000058b4       ??_C@_0BI@HIINLFG@Ex_OnClicked_DrawButton@ 100328b4     ExControl:ExDrawButton.obj
 0002:000058cc       ??_C@_0BN@KLLBCGDD@Ex_AddToggleGroup_DrawButton@ 100328cc     ExControl:ExDrawButton.obj
 0002:00005924       ?classCExEdit@CExEdit@@2UCRuntimeClass@@B 10032924     ExControl:ExEdit.obj
 0002:00005944       ??_7CExEdit@@6B@           10032944     ExControl:ExEdit.obj
 0002:00005ab4       ??_7CLoaderEdit@@6B@       10032ab4     ExControl:ExEdit.obj
 0002:00005abc       ??_C@_0L@NKPAHHOE@ExEdit?4dll@ 10032abc     ExControl:ExEdit.obj
 0002:00005ac8       ??_C@_0M@DBNLCNAH@Ex_InitEdit@ 10032ac8     ExControl:ExEdit.obj
 0002:00005ad4       ??_C@_0N@HDCFBKPP@Ex_InitEdit2@ 10032ad4     ExControl:ExEdit.obj
 0002:00005ae4       ??_C@_0M@GNDLOGLP@Ex_ExitEdit@ 10032ae4     ExControl:ExEdit.obj
 0002:00005af0       ??_C@_0P@DIFJMIAG@Ex_OnPaintEdit@ 10032af0     ExControl:ExEdit.obj
 0002:00005b00       ??_C@_0BC@LHGGOIBI@Ex_UseNumericType@ 10032b00     ExControl:ExEdit.obj
 0002:00005b14       ??_C@_0P@EGJDFMEM@Ex_OnChar_Edit@ 10032b14     ExControl:ExEdit.obj
 0002:00005b24       ??_C@_07OEIPMLNK@CExEdit@  10032b24     ExControl:ExEdit.obj
 0002:00005b80       ?classCExComboBox@CExComboBox@@2UCRuntimeClass@@B 10032b80     ExControl:ExComboBox.obj
 0002:00005ba0       ??_7CExComboBox@@6B@       10032ba0     ExControl:ExComboBox.obj
 0002:00005d24       ??_7CLoaderComboBox@@6B@   10032d24     ExControl:ExComboBox.obj
 0002:00005d2c       ??_C@_0P@CMGIEKGI@ExComboBox?4dll@ 10032d2c     ExControl:ExComboBox.obj
 0002:00005d3c       ??_C@_0BA@BPPCFOGE@Ex_InitComboBox@ 10032d3c     ExControl:ExComboBox.obj
 0002:00005d4c       ??_C@_0BB@KHLAADGO@Ex_InitComboBox2@ 10032d4c     ExControl:ExComboBox.obj
 0002:00005d60       ??_C@_0BA@GGGNKPID@Ex_ExitComboBox@ 10032d60     ExControl:ExComboBox.obj
 0002:00005d70       ??_C@_0BO@LOKFHKHE@Ex_PreSubclassWindow_ComboBox@ 10032d70     ExControl:ExComboBox.obj
 0002:00005d90       ??_C@_0BF@LKLLAOJN@Ex_DrawItem_ComboBox@ 10032d90     ExControl:ExComboBox.obj
 0002:00005da8       ??_C@_0BE@GBFABFME@Ex_OnPaint_ComboBox@ 10032da8     ExControl:ExComboBox.obj
 0002:00005dbc       ??_C@_0BI@GLCEGIOC@Ex_OnMouseMove_ComboBox@ 10032dbc     ExControl:ExComboBox.obj
 0002:00005dd4       ??_C@_0BK@HFDECPLM@Ex_OnLButtonDown_ComboBox@ 10032dd4     ExControl:ExComboBox.obj
 0002:00005df0       ??_C@_0BI@FDNJCHMC@Ex_OnLButtonUp_ComboBox@ 10032df0     ExControl:ExComboBox.obj
 0002:00005e08       ??_C@_0BE@IBOLGKEK@Ex_OnTimer_ComboBox@ 10032e08     ExControl:ExComboBox.obj
 0002:00005e1c       ??_C@_0M@EOMNCNDJ@CExComboBox@ 10032e1c     ExControl:ExComboBox.obj
 0002:00005ec4       ??_7CExButton@@6B@         10032ec4     ExControl:ExButton.obj
 0002:0000605c       ??_7?$CArray@PAXPAX@@6B@   1003305c     ExControl:StdAfx.obj
 0002:00006070       ??_C@_0BN@HFGHFFIN@SetPermanentHandle?5?$CF08X?$DN?$CF0X?6@ 10033070     ExControl:StdAfx.obj
 0002:00006090       __pAtlLcidToLocaleNameTable 10033090     mfcs140:nolib.obj
 0002:000067b0       ??_C@_15EMKDOKLE@?$AAa?$AAr@ 100337b0     mfcs140:nolib.obj
 0002:000067b8       ??_C@_15KNPADPLH@?$AAb?$AAg@ 100337b8     mfcs140:nolib.obj
 0002:000067c0       ??_C@_15EDMHLDMO@?$AAc?$AAa@ 100337c0     mfcs140:nolib.obj
 0002:000067c8       ??_C@_1O@BPEAJADD@?$AAz?$AAh?$AA?9?$AAC?$AAH?$AAS@ 100337c8     mfcs140:nolib.obj
 0002:000067d8       ??_C@_15LJNHCMNK@?$AAc?$AAs@ 100337d8     mfcs140:nolib.obj
 0002:000067e0       ??_C@_15FOMCIDHG@?$AAd?$AAa@ 100337e0     mfcs140:nolib.obj
 0002:000067e8       ??_C@_15NBKABECB@?$AAd?$AAe@ 100337e8     mfcs140:nolib.obj
 0002:000067f0       ??_C@_15GHPEIIAO@?$AAe?$AAl@ 100337f0     mfcs140:nolib.obj
 0002:000067f8       ??_C@_15MNPNEAIF@?$AAe?$AAn@ 100337f8     mfcs140:nolib.obj
 0002:00006800       ??_C@_15GPIOMPMH@?$AAe?$AAs@ 10033800     mfcs140:nolib.obj
 0002:00006808       ??_C@_15NGLOAKJC@?$AAf?$AAi@ 10033808     mfcs140:nolib.obj
 0002:00006810       ??_C@_15FBKGNKAM@?$AAf?$AAr@ 10033810     mfcs140:nolib.obj
 0002:00006818       ??_C@_15KGGCNEFK@?$AAh?$AAe@ 10033818     mfcs140:nolib.obj
 0002:00006820       ??_C@_15PGHLIDMF@?$AAh?$AAu@ 10033820     mfcs140:nolib.obj
 0002:00006828       ??_C@_15BIEMAPLM@?$AAi?$AAs@ 10033828     mfcs140:nolib.obj
 0002:00006830       ??_C@_15IFJLDHAF@?$AAi?$AAt@ 10033830     mfcs140:nolib.obj
 0002:00006838       ??_C@_15GEMIOCAG@?$AAj?$AAa@ 10033838     mfcs140:nolib.obj
 0002:00006840       ??_C@_15EPELEGJA@?$AAk?$AAo@ 10033840     mfcs140:nolib.obj
 0002:00006848       ??_C@_15NDDHIMN@?$AAn?$AAl@ 10033848     mfcs140:nolib.obj
 0002:00006850       ??_C@_15BPIGNHCD@?$AAn?$AAo@ 10033850     mfcs140:nolib.obj
 0002:00006858       ??_C@_15DEOPBLCG@?$AAp?$AAl@ 10033858     mfcs140:nolib.obj
 0002:00006860       ??_C@_15KBECGEFG@?$AAp?$AAt@ 10033860     mfcs140:nolib.obj
 0002:00006868       ??_C@_15GLJCBFMD@?$AAr?$AAo@ 10033868     mfcs140:nolib.obj
 0002:00006870       ??_C@_15FEDGKCDI@?$AAr?$AAu@ 10033870     mfcs140:nolib.obj
 0002:00006878       ??_C@_15GLKMLLHM@?$AAh?$AAr@ 10033878     mfcs140:nolib.obj
 0002:00006880       ??_C@_15CPKMFBDB@?$AAs?$AAk@ 10033880     mfcs140:nolib.obj
 0002:00006888       ??_C@_15BAAIOGMK@?$AAs?$AAq@ 10033888     mfcs140:nolib.obj
 0002:00006890       ??_C@_15INNPNOHD@?$AAs?$AAv@ 10033890     mfcs140:nolib.obj
 0002:00006898       ??_C@_15CABMMOGH@?$AAt?$AAh@ 10033898     mfcs140:nolib.obj
 0002:000068a0       ??_C@_15BPLIHJJM@?$AAt?$AAr@ 100338a0     mfcs140:nolib.obj
 0002:000068a8       ??_C@_15NEOEKKDJ@?$AAu?$AAr@ 100338a8     mfcs140:nolib.obj
 0002:000068b0       ??_C@_15NFICGAJK@?$AAi?$AAd@ 100338b0     mfcs140:nolib.obj
 0002:000068b8       ??_C@_15PJPFLCCM@?$AAu?$AAk@ 100338b8     mfcs140:nolib.obj
 0002:000068c0       ??_C@_15HPJPHDM@?$AAb?$AAe@ 100338c0     mfcs140:nolib.obj
 0002:000068c8       ??_C@_15LCHLGJII@?$AAs?$AAl@ 100338c8     mfcs140:nolib.obj
 0002:000068d0       ??_C@_15PCFJPHHO@?$AAe?$AAt@ 100338d0     mfcs140:nolib.obj
 0002:000068d8       ??_C@_15HPFPGODN@?$AAl?$AAv@ 100338d8     mfcs140:nolib.obj
 0002:000068e0       ??_C@_15NFFGKGLG@?$AAl?$AAt@ 100338e0     mfcs140:nolib.obj
 0002:000068e8       ??_C@_15BDAKCCHN@?$AAf?$AAa@ 100338e8     mfcs140:nolib.obj
 0002:000068f0       ??_C@_15NFGIAIAJ@?$AAv?$AAi@ 100338f0     mfcs140:nolib.obj
 0002:000068f8       ??_C@_15LMKNDMHN@?$AAh?$AAy@ 100338f8     mfcs140:nolib.obj
 0002:00006900       ??_C@_15IJBHMCFL@?$AAa?$AAz@ 10033900     mfcs140:nolib.obj
 0002:00006908       ??_C@_15EKOFJABL@?$AAe?$AAu@ 10033908     mfcs140:nolib.obj
 0002:00006910       ??_C@_15BGHADCNK@?$AAm?$AAk@ 10033910     mfcs140:nolib.obj
 0002:00006918       ??_C@_15JDNICKHM@?$AAa?$AAf@ 10033918     mfcs140:nolib.obj
 0002:00006920       ??_C@_15KPJEDBKD@?$AAk?$AAa@ 10033920     mfcs140:nolib.obj
 0002:00006928       ??_C@_15PDNFFFEO@?$AAf?$AAo@ 10033928     mfcs140:nolib.obj
 0002:00006930       ??_C@_15OMLEGLOC@?$AAh?$AAi@ 10033930     mfcs140:nolib.obj
 0002:00006938       ??_C@_15IDNNENKK@?$AAm?$AAs@ 10033938     mfcs140:nolib.obj
 0002:00006940       ??_C@_15MACJNBMH@?$AAk?$AAk@ 10033940     mfcs140:nolib.obj
 0002:00006948       ??_C@_15DKDJEOND@?$AAk?$AAy@ 10033948     mfcs140:nolib.obj
 0002:00006950       ??_C@_15DFGDLJBG@?$AAs?$AAw@ 10033950     mfcs140:nolib.obj
 0002:00006958       ??_C@_15BBFAICNG@?$AAu?$AAz@ 10033958     mfcs140:nolib.obj
 0002:00006960       ??_C@_15DKNDCGEA@?$AAt?$AAt@ 10033960     mfcs140:nolib.obj
 0002:00006968       ??_C@_15MGIFMDPL@?$AAp?$AAa@ 10033968     mfcs140:nolib.obj
 0002:00006970       ??_C@_15HCNDBBA@?$AAg?$AAu@ 10033970     mfcs140:nolib.obj
 0002:00006978       ??_C@_15FNBEIBON@?$AAt?$AAa@ 10033978     mfcs140:nolib.obj
 0002:00006980       ??_C@_15NCHGBGLK@?$AAt?$AAe@ 10033980     mfcs140:nolib.obj
 0002:00006988       ??_C@_15PHPHCBPF@?$AAk?$AAn@ 10033988     mfcs140:nolib.obj
 0002:00006990       ??_C@_15DLGBCKMP@?$AAm?$AAr@ 10033990     mfcs140:nolib.obj
 0002:00006998       ??_C@_15EABBLBFF@?$AAs?$AAa@ 10033998     mfcs140:nolib.obj
 0002:000069a0       ??_C@_15CBKOMCOI@?$AAm?$AAn@ 100339a0     mfcs140:nolib.obj
 0002:000069a8       ??_C@_15CKDMCJAF@?$AAg?$AAl@ 100339a8     mfcs140:nolib.obj
 0002:000069b0       ??_C@_17CNJFBPG@?$AAk?$AAo?$AAk@ 100339b0     mfcs140:nolib.obj
 0002:000069b8       ??_C@_17FFBJICPL@?$AAs?$AAy?$AAr@ 100339b8     mfcs140:nolib.obj
 0002:000069c0       ??_C@_17KPNDCPAF@?$AAd?$AAi?$AAv@ 100339c0     mfcs140:nolib.obj
 0002:000069c8       ??_C@_11LOCGONAA@@         100339c8     mfcs140:nolib.obj
 0002:000069cc       ??_C@_1M@OKAHONE@?$AAa?$AAr?$AA?9?$AAS?$AAA@ 100339cc     mfcs140:nolib.obj
 0002:000069d8       ??_C@_1M@FFFIGIGK@?$AAb?$AAg?$AA?9?$AAB?$AAG@ 100339d8     mfcs140:nolib.obj
 0002:000069e4       ??_C@_1M@BJNKEDC@?$AAc?$AAa?$AA?9?$AAE?$AAS@ 100339e4     mfcs140:nolib.obj
 0002:000069f0       ??_C@_1M@CLNBBOPM@?$AAz?$AAh?$AA?9?$AAT?$AAW@ 100339f0     mfcs140:nolib.obj
 0002:000069fc       ??_C@_1M@IJJHFJHA@?$AAc?$AAs?$AA?9?$AAC?$AAZ@ 100339fc     mfcs140:nolib.obj
 0002:00006a08       ??_C@_1M@CLPEOBGI@?$AAd?$AAa?$AA?9?$AAD?$AAK@ 10033a08     mfcs140:nolib.obj
 0002:00006a14       ??_C@_1M@MCMADGCB@?$AAd?$AAe?$AA?9?$AAD?$AAE@ 10033a14     mfcs140:nolib.obj
 0002:00006a20       ??_C@_1M@OOCKEMAM@?$AAe?$AAl?$AA?9?$AAG?$AAR@ 10033a20     mfcs140:nolib.obj
 0002:00006a2c       ??_C@_1M@BMHNFIME@?$AAe?$AAn?$AA?9?$AAU?$AAS@ 10033a2c     mfcs140:nolib.obj
 0002:00006a38       ??_C@_1M@DDNJFGID@?$AAf?$AAi?$AA?9?$AAF?$AAI@ 10033a38     mfcs140:nolib.obj
 0002:00006a44       ??_C@_1M@GLIPPMAC@?$AAf?$AAr?$AA?9?$AAF?$AAR@ 10033a44     mfcs140:nolib.obj
 0002:00006a50       ??_C@_1M@GFMCHPE@?$AAh?$AAe?$AA?9?$AAI?$AAL@ 10033a50     mfcs140:nolib.obj
 0002:00006a5c       ??_C@_1M@MHLPGNKM@?$AAh?$AAu?$AA?9?$AAH?$AAU@ 10033a5c     mfcs140:nolib.obj
 0002:00006a68       ??_C@_1M@LPDDNNPN@?$AAi?$AAs?$AA?9?$AAI?$AAS@ 10033a68     mfcs140:nolib.obj
 0002:00006a74       ??_C@_1M@MADIPODN@?$AAi?$AAt?$AA?9?$AAI?$AAT@ 10033a74     mfcs140:nolib.obj
 0002:00006a80       ??_C@_1M@HPNHIDJI@?$AAj?$AAa?$AA?9?$AAJ?$AAP@ 10033a80     mfcs140:nolib.obj
 0002:00006a8c       ??_C@_1M@JLOOOEGK@?$AAk?$AAo?$AA?9?$AAK?$AAR@ 10033a8c     mfcs140:nolib.obj
 0002:00006a98       ??_C@_1M@IHBJJGG@?$AAn?$AAl?$AA?9?$AAN?$AAL@ 10033a98     mfcs140:nolib.obj
 0002:00006aa4       ??_C@_1M@EANAGDL@?$AAn?$AAb?$AA?9?$AAN?$AAO@ 10033aa4     mfcs140:nolib.obj
 0002:00006ab0       ??_C@_1M@NEIEMEGP@?$AAp?$AAl?$AA?9?$AAP?$AAL@ 10033ab0     mfcs140:nolib.obj
 0002:00006abc       ??_C@_1M@BOCFIGEP@?$AAp?$AAt?$AA?9?$AAB?$AAR@ 10033abc     mfcs140:nolib.obj
 0002:00006ac8       ??_C@_1M@IMPFOPBG@?$AAr?$AAo?$AA?9?$AAR?$AAO@ 10033ac8     mfcs140:nolib.obj
 0002:00006ad4       ??_C@_1M@IDNNEJMM@?$AAr?$AAu?$AA?9?$AAR?$AAU@ 10033ad4     mfcs140:nolib.obj
 0002:00006ae0       ??_C@_1M@LILEEOGM@?$AAh?$AAr?$AA?9?$AAH?$AAR@ 10033ae0     mfcs140:nolib.obj
 0002:00006aec       ??_C@_1M@FKIFEHPB@?$AAs?$AAk?$AA?9?$AAS?$AAK@ 10033aec     mfcs140:nolib.obj
 0002:00006af8       ??_C@_1M@LJMAMNPJ@?$AAs?$AAq?$AA?9?$AAA?$AAL@ 10033af8     mfcs140:nolib.obj
 0002:00006b04       ??_C@_1M@GIAKDKJK@?$AAs?$AAv?$AA?9?$AAS?$AAE@ 10033b04     mfcs140:nolib.obj
 0002:00006b10       ??_C@_1M@MKJKIKCL@?$AAt?$AAh?$AA?9?$AAT?$AAH@ 10033b10     mfcs140:nolib.obj
 0002:00006b1c       ??_C@_1M@MFLCCMPB@?$AAt?$AAr?$AA?9?$AAT?$AAR@ 10033b1c     mfcs140:nolib.obj
 0002:00006b28       ??_C@_1M@OIJHDKJN@?$AAu?$AAr?$AA?9?$AAP?$AAK@ 10033b28     mfcs140:nolib.obj
 0002:00006b34       ??_C@_1M@LHIPCIEK@?$AAi?$AAd?$AA?9?$AAI?$AAD@ 10033b34     mfcs140:nolib.obj
 0002:00006b40       ??_C@_1M@MFMOBGI@?$AAu?$AAk?$AA?9?$AAU?$AAA@ 10033b40     mfcs140:nolib.obj
 0002:00006b4c       ??_C@_1M@OBGLJIPL@?$AAb?$AAe?$AA?9?$AAB?$AAY@ 10033b4c     mfcs140:nolib.obj
 0002:00006b58       ??_C@_1M@BCFAJEAD@?$AAs?$AAl?$AA?9?$AAS?$AAI@ 10033b58     mfcs140:nolib.obj
 0002:00006b64       ??_C@_1M@FKFFEDDN@?$AAe?$AAt?$AA?9?$AAE?$AAE@ 10033b64     mfcs140:nolib.obj
 0002:00006b70       ??_C@_1M@KGKKAACI@?$AAl?$AAv?$AA?9?$AAL?$AAV@ 10033b70     mfcs140:nolib.obj
 0002:00006b7c       ??_C@_1M@IFGBIJO@?$AAl?$AAt?$AA?9?$AAL?$AAT@ 10033b7c     mfcs140:nolib.obj
 0002:00006b88       ??_C@_1M@FGEAHEDM@?$AAf?$AAa?$AA?9?$AAI?$AAR@ 10033b88     mfcs140:nolib.obj
 0002:00006b94       ??_C@_1M@KBMAIBFN@?$AAv?$AAi?$AA?9?$AAV?$AAN@ 10033b94     mfcs140:nolib.obj
 0002:00006ba0       ??_C@_1M@GPCBKDJK@?$AAh?$AAy?$AA?9?$AAA?$AAM@ 10033ba0     mfcs140:nolib.obj
 0002:00006bac       ??_C@_1BG@BECMDDJB@?$AAa?$AAz?$AA?9?$AAA?$AAZ?$AA?9?$AAL?$AAa?$AAt?$AAn@ 10033bac     mfcs140:nolib.obj
 0002:00006bc4       ??_C@_1M@MAOFCAEA@?$AAe?$AAu?$AA?9?$AAE?$AAS@ 10033bc4     mfcs140:nolib.obj
 0002:00006bd0       ??_C@_1M@IGHABKPI@?$AAm?$AAk?$AA?9?$AAM?$AAK@ 10033bd0     mfcs140:nolib.obj
 0002:00006bdc       ??_C@_1M@IAIGNEJG@?$AAt?$AAn?$AA?9?$AAZ?$AAA@ 10033bdc     mfcs140:nolib.obj
 0002:00006be8       ??_C@_1M@IIJCOJFA@?$AAx?$AAh?$AA?9?$AAZ?$AAA@ 10033be8     mfcs140:nolib.obj
 0002:00006bf4       ??_C@_1M@LGPJHNJH@?$AAz?$AAu?$AA?9?$AAZ?$AAA@ 10033bf4     mfcs140:nolib.obj
 0002:00006c00       ??_C@_1M@HOKAOIO@?$AAa?$AAf?$AA?9?$AAZ?$AAA@ 10033c00     mfcs140:nolib.obj
 0002:00006c0c       ??_C@_1M@DPCLHLIE@?$AAk?$AAa?$AA?9?$AAG?$AAE@ 10033c0c     mfcs140:nolib.obj
 0002:00006c18       ??_C@_1M@BLKMHJBI@?$AAf?$AAo?$AA?9?$AAF?$AAO@ 10033c18     mfcs140:nolib.obj
 0002:00006c24       ??_C@_1M@LGGJAPPB@?$AAh?$AAi?$AA?9?$AAI?$AAN@ 10033c24     mfcs140:nolib.obj
 0002:00006c30       ??_C@_1M@FIKPIHFE@?$AAm?$AAt?$AA?9?$AAM?$AAT@ 10033c30     mfcs140:nolib.obj
 0002:00006c3c       ??_C@_1M@HEGGPBFA@?$AAs?$AAe?$AA?9?$AAN?$AAO@ 10033c3c     mfcs140:nolib.obj
 0002:00006c48       ??_C@_1M@EIBJEEPA@?$AAm?$AAs?$AA?9?$AAM?$AAY@ 10033c48     mfcs140:nolib.obj
 0002:00006c54       ??_C@_1M@FHLBGMPP@?$AAk?$AAk?$AA?9?$AAK?$AAZ@ 10033c54     mfcs140:nolib.obj
 0002:00006c60       ??_C@_1M@NGJJLCGI@?$AAk?$AAy?$AA?9?$AAK?$AAG@ 10033c60     mfcs140:nolib.obj
 0002:00006c6c       ??_C@_1M@GIENNBFC@?$AAs?$AAw?$AA?9?$AAK?$AAE@ 10033c6c     mfcs140:nolib.obj
 0002:00006c78       ??_C@_1BG@NDGMJIMJ@?$AAu?$AAz?$AA?9?$AAU?$AAZ?$AA?9?$AAL?$AAa?$AAt?$AAn@ 10033c78     mfcs140:nolib.obj
 0002:00006c90       ??_C@_1M@IDCCIHBC@?$AAt?$AAt?$AA?9?$AAR?$AAU@ 10033c90     mfcs140:nolib.obj
 0002:00006c9c       ??_C@_1M@LOICPMOJ@?$AAb?$AAn?$AA?9?$AAI?$AAN@ 10033c9c     mfcs140:nolib.obj
 0002:00006ca8       ??_C@_1M@KPKKNEAH@?$AAp?$AAa?$AA?9?$AAI?$AAN@ 10033ca8     mfcs140:nolib.obj
 0002:00006cb4       ??_C@_1M@PJGPPBOG@?$AAg?$AAu?$AA?9?$AAI?$AAN@ 10033cb4     mfcs140:nolib.obj
 0002:00006cc0       ??_C@_1M@KMKMOPHI@?$AAt?$AAa?$AA?9?$AAI?$AAN@ 10033cc0     mfcs140:nolib.obj
 0002:00006ccc       ??_C@_1M@KFEHEPAC@?$AAt?$AAe?$AA?9?$AAI?$AAN@ 10033ccc     mfcs140:nolib.obj
 0002:00006cd8       ??_C@_1M@CDCLMGHI@?$AAk?$AAn?$AA?9?$AAI?$AAN@ 10033cd8     mfcs140:nolib.obj
 0002:00006ce4       ??_C@_1M@MIODLDKF@?$AAm?$AAl?$AA?9?$AAI?$AAN@ 10033ce4     mfcs140:nolib.obj
 0002:00006cf0       ??_C@_1M@PBIEACPO@?$AAm?$AAr?$AA?9?$AAI?$AAN@ 10033cf0     mfcs140:nolib.obj
 0002:00006cfc       ??_C@_1M@NIDEAGPH@?$AAs?$AAa?$AA?9?$AAI?$AAN@ 10033cfc     mfcs140:nolib.obj
 0002:00006d08       ??_C@_1M@FHIHCBIO@?$AAm?$AAn?$AA?9?$AAM?$AAN@ 10033d08     mfcs140:nolib.obj
 0002:00006d14       ??_C@_1M@JAIJPENP@?$AAc?$AAy?$AA?9?$AAG?$AAB@ 10033d14     mfcs140:nolib.obj
 0002:00006d20       ??_C@_1M@PHGFBEPN@?$AAg?$AAl?$AA?9?$AAE?$AAS@ 10033d20     mfcs140:nolib.obj
 0002:00006d2c       ??_C@_1O@KPIPDNCP@?$AAk?$AAo?$AAk?$AA?9?$AAI?$AAN@ 10033d2c     mfcs140:nolib.obj
 0002:00006d3c       ??_C@_1O@KNHJLDJA@?$AAs?$AAy?$AAr?$AA?9?$AAS?$AAY@ 10033d3c     mfcs140:nolib.obj
 0002:00006d4c       ??_C@_1O@MKEKBLAH@?$AAd?$AAi?$AAv?$AA?9?$AAM?$AAV@ 10033d4c     mfcs140:nolib.obj
 0002:00006d5c       ??_C@_1O@OHDCKDDF@?$AAq?$AAu?$AAz?$AA?9?$AAB?$AAO@ 10033d5c     mfcs140:nolib.obj
 0002:00006d6c       ??_C@_1M@LEPJNLFD@?$AAn?$AAs?$AA?9?$AAZ?$AAA@ 10033d6c     mfcs140:nolib.obj
 0002:00006d78       ??_C@_1M@OMLEIIJB@?$AAm?$AAi?$AA?9?$AAN?$AAZ@ 10033d78     mfcs140:nolib.obj
 0002:00006d84       ??_C@_1M@PMPEAILG@?$AAa?$AAr?$AA?9?$AAI?$AAQ@ 10033d84     mfcs140:nolib.obj
 0002:00006d90       ??_C@_1M@BIBDDEMK@?$AAz?$AAh?$AA?9?$AAC?$AAN@ 10033d90     mfcs140:nolib.obj
 0002:00006d9c       ??_C@_1M@CNKPNOEE@?$AAd?$AAe?$AA?9?$AAC?$AAH@ 10033d9c     mfcs140:nolib.obj
 0002:00006da8       ??_C@_1M@LKMGMLKO@?$AAe?$AAn?$AA?9?$AAG?$AAB@ 10033da8     mfcs140:nolib.obj
 0002:00006db4       ??_C@_1M@PGKJFFGL@?$AAe?$AAs?$AA?9?$AAM?$AAX@ 10033db4     mfcs140:nolib.obj
 0002:00006dc0       ??_C@_1M@DNNANBDC@?$AAf?$AAr?$AA?9?$AAB?$AAE@ 10033dc0     mfcs140:nolib.obj
 0002:00006dcc       ??_C@_1M@HLGMDFHM@?$AAi?$AAt?$AA?9?$AAC?$AAH@ 10033dcc     mfcs140:nolib.obj
 0002:00006dd8       ??_C@_1M@CLLBGJH@?$AAn?$AAl?$AA?9?$AAB?$AAE@ 10033dd8     mfcs140:nolib.obj
 0002:00006de4       ??_C@_1M@BODBOGLF@?$AAn?$AAn?$AA?9?$AAN?$AAO@ 10033de4     mfcs140:nolib.obj
 0002:00006df0       ??_C@_1M@HFFAHKAD@?$AAp?$AAt?$AA?9?$AAP?$AAT@ 10033df0     mfcs140:nolib.obj
 0002:00006dfc       ??_C@_1BG@LNOAKHIE@?$AAs?$AAr?$AA?9?$AAS?$AAP?$AA?9?$AAL?$AAa?$AAt?$AAn@ 10033dfc     mfcs140:nolib.obj
 0002:00006e14       ??_C@_1M@HBMHBGAK@?$AAs?$AAv?$AA?9?$AAF?$AAI@ 10033e14     mfcs140:nolib.obj
 0002:00006e20       ??_C@_1BG@DGCJGJBE@?$AAa?$AAz?$AA?9?$AAA?$AAZ?$AA?9?$AAC?$AAy?$AAr?$AAl@ 10033e20     mfcs140:nolib.obj
 0002:00006e38       ??_C@_1M@KEJDAAHB@?$AAs?$AAe?$AA?9?$AAS?$AAE@ 10033e38     mfcs140:nolib.obj
 0002:00006e44       ??_C@_1M@HEIBJJAD@?$AAm?$AAs?$AA?9?$AAB?$AAN@ 10033e44     mfcs140:nolib.obj
 0002:00006e50       ??_C@_1BG@PBGJMCEM@?$AAu?$AAz?$AA?9?$AAU?$AAZ?$AA?9?$AAC?$AAy?$AAr?$AAl@ 10033e50     mfcs140:nolib.obj
 0002:00006e68       ??_C@_1O@LAOBCMDF@?$AAq?$AAu?$AAz?$AA?9?$AAE?$AAC@ 10033e68     mfcs140:nolib.obj
 0002:00006e78       ??_C@_1M@POEEMAIO@?$AAa?$AAr?$AA?9?$AAE?$AAG@ 10033e78     mfcs140:nolib.obj
 0002:00006e84       ??_C@_1M@EFAKDEDL@?$AAz?$AAh?$AA?9?$AAH?$AAK@ 10033e84     mfcs140:nolib.obj
 0002:00006e90       ??_C@_1M@HKKIJHGI@?$AAd?$AAe?$AA?9?$AAA?$AAT@ 10033e90     mfcs140:nolib.obj
 0002:00006e9c       ??_C@_1M@KBFBEHJF@?$AAe?$AAn?$AA?9?$AAA?$AAU@ 10033e9c     mfcs140:nolib.obj
 0002:00006ea8       ??_C@_1M@MNPLFAAH@?$AAe?$AAs?$AA?9?$AAE?$AAS@ 10033ea8     mfcs140:nolib.obj
 0002:00006eb4       ??_C@_1M@HJOOJFMA@?$AAf?$AAr?$AA?9?$AAC?$AAA@ 10033eb4     mfcs140:nolib.obj
 0002:00006ec0       ??_C@_1BG@JPOFPNAB@?$AAs?$AAr?$AA?9?$AAS?$AAP?$AA?9?$AAC?$AAy?$AAr?$AAl@ 10033ec0     mfcs140:nolib.obj
 0002:00006ed8       ??_C@_1M@LNFOCMOB@?$AAs?$AAe?$AA?9?$AAF?$AAI@ 10033ed8     mfcs140:nolib.obj
 0002:00006ee4       ??_C@_1O@MGJBOAMB@?$AAq?$AAu?$AAz?$AA?9?$AAP?$AAE@ 10033ee4     mfcs140:nolib.obj
 0002:00006ef4       ??_C@_1M@GJINLBOK@?$AAa?$AAr?$AA?9?$AAL?$AAY@ 10033ef4     mfcs140:nolib.obj
 0002:00006f00       ??_C@_1M@GGMNHJNL@?$AAz?$AAh?$AA?9?$AAS?$AAG@ 10033f00     mfcs140:nolib.obj
 0002:00006f0c       ??_C@_1M@HOIKODND@?$AAd?$AAe?$AA?9?$AAL?$AAU@ 10033f0c     mfcs140:nolib.obj
 0002:00006f18       ??_C@_1M@DDOCCGFG@?$AAe?$AAn?$AA?9?$AAC?$AAA@ 10033f18     mfcs140:nolib.obj
 0002:00006f24       ??_C@_1M@BNOEMJLF@?$AAe?$AAs?$AA?9?$AAG?$AAT@ 10033f24     mfcs140:nolib.obj
 0002:00006f30       ??_C@_1M@EOGNKEK@?$AAf?$AAr?$AA?9?$AAC?$AAH@ 10033f30     mfcs140:nolib.obj
 0002:00006f3c       ??_C@_1M@FLIDJFHL@?$AAh?$AAr?$AA?9?$AAB?$AAA@ 10033f3c     mfcs140:nolib.obj
 0002:00006f48       ??_C@_1O@FMCELNAJ@?$AAs?$AAm?$AAj?$AA?9?$AAN?$AAO@ 10033f48     mfcs140:nolib.obj
 0002:00006f58       ??_C@_1M@JHGLJMGJ@?$AAa?$AAr?$AA?9?$AAD?$AAZ@ 10033f58     mfcs140:nolib.obj
 0002:00006f64       ??_C@_1M@JKKFDCNP@?$AAz?$AAh?$AA?9?$AAM?$AAO@ 10033f64     mfcs140:nolib.obj
 0002:00006f70       ??_C@_1M@GEEFALPE@?$AAd?$AAe?$AA?9?$AAL?$AAI@ 10033f70     mfcs140:nolib.obj
 0002:00006f7c       ??_C@_1M@IGEOFBG@?$AAe?$AAn?$AA?9?$AAN?$AAZ@ 10033f7c     mfcs140:nolib.obj
 0002:00006f88       ??_C@_1M@KDBONEHP@?$AAe?$AAs?$AA?9?$AAC?$AAR@ 10033f88     mfcs140:nolib.obj
 0002:00006f94       ??_C@_1M@FHMDOHNN@?$AAf?$AAr?$AA?9?$AAL?$AAU@ 10033f94     mfcs140:nolib.obj
 0002:00006fa0       ??_C@_1BG@NFKKMAFG@?$AAb?$AAs?$AA?9?$AAB?$AAA?$AA?9?$AAL?$AAa?$AAt?$AAn@ 10033fa0     mfcs140:nolib.obj
 0002:00006fb8       ??_C@_1O@IMNBEMCI@?$AAs?$AAm?$AAj?$AA?9?$AAS?$AAE@ 10033fb8     mfcs140:nolib.obj
 0002:00006fc8       ??_C@_1M@DHHMBNDP@?$AAa?$AAr?$AA?9?$AAM?$AAA@ 10033fc8     mfcs140:nolib.obj
 0002:00006fd4       ??_C@_1M@BNBLJCGH@?$AAe?$AAn?$AA?9?$AAI?$AAE@ 10033fd4     mfcs140:nolib.obj
 0002:00006fe0       ??_C@_1M@GEPAFMDL@?$AAe?$AAs?$AA?9?$AAP?$AAA@ 10033fe0     mfcs140:nolib.obj
 0002:00006fec       ??_C@_1M@OJONDMDL@?$AAf?$AAr?$AA?9?$AAM?$AAC@ 10033fec     mfcs140:nolib.obj
 0002:00006ff8       ??_C@_1BG@OBCNFJB@?$AAs?$AAr?$AA?9?$AAB?$AAA?$AA?9?$AAL?$AAa?$AAt?$AAn@ 10033ff8     mfcs140:nolib.obj
 0002:00007010       ??_C@_1O@KEMEEGPO@?$AAs?$AAm?$AAa?$AA?9?$AAN?$AAO@ 10034010     mfcs140:nolib.obj
 0002:00007020       ??_C@_1M@ELMGFODK@?$AAa?$AAr?$AA?9?$AAT?$AAN@ 10034020     mfcs140:nolib.obj
 0002:0000702c       ??_C@_1M@BHDLHFAF@?$AAe?$AAn?$AA?9?$AAZ?$AAA@ 1003402c     mfcs140:nolib.obj
 0002:00007038       ??_C@_1M@BMGIGLIF@?$AAe?$AAs?$AA?9?$AAD?$AAO@ 10034038     mfcs140:nolib.obj
 0002:00007044       ??_C@_1BG@CMBHIPBE@?$AAs?$AAr?$AA?9?$AAB?$AAA?$AA?9?$AAC?$AAy?$AAr?$AAl@ 10034044     mfcs140:nolib.obj
 0002:0000705c       ??_C@_1O@HEDBLHNP@?$AAs?$AAm?$AAa?$AA?9?$AAS?$AAE@ 1003405c     mfcs140:nolib.obj
 0002:0000706c       ??_C@_1M@DAGCADIM@?$AAa?$AAr?$AA?9?$AAO?$AAM@ 1003406c     mfcs140:nolib.obj
 0002:00007078       ??_C@_1M@FODLMICG@?$AAe?$AAn?$AA?9?$AAJ?$AAM@ 10034078     mfcs140:nolib.obj
 0002:00007084       ??_C@_1M@DNMLCIHB@?$AAe?$AAs?$AA?9?$AAV?$AAE@ 10034084     mfcs140:nolib.obj
 0002:00007090       ??_C@_1O@EOKHMKJK@?$AAs?$AAm?$AAs?$AA?9?$AAF?$AAI@ 10034090     mfcs140:nolib.obj
 0002:000070a0       ??_C@_1M@CAFJMKOF@?$AAa?$AAr?$AA?9?$AAY?$AAE@ 100340a0     mfcs140:nolib.obj
 0002:000070ac       ??_C@_1M@CBFHIJLI@?$AAe?$AAn?$AA?9?$AAC?$AAB@ 100340ac     mfcs140:nolib.obj
 0002:000070b8       ??_C@_1M@BGNFLDN@?$AAe?$AAs?$AA?9?$AAC?$AAO@ 100340b8     mfcs140:nolib.obj
 0002:000070c4       ??_C@_1O@JMPHMAMC@?$AAs?$AAm?$AAn?$AA?9?$AAF?$AAI@ 100340c4     mfcs140:nolib.obj
 0002:000070d4       ??_C@_1M@JLANABKE@?$AAa?$AAr?$AA?9?$AAS?$AAY@ 100340d4     mfcs140:nolib.obj
 0002:000070e0       ??_C@_1M@HPKGCFGN@?$AAe?$AAn?$AA?9?$AAB?$AAZ@ 100340e0     mfcs140:nolib.obj
 0002:000070ec       ??_C@_1M@OLJCMLGM@?$AAe?$AAs?$AA?9?$AAP?$AAE@ 100340ec     mfcs140:nolib.obj
 0002:000070f8       ??_C@_1M@MKKGFKLE@?$AAa?$AAr?$AA?9?$AAJ?$AAO@ 100340f8     mfcs140:nolib.obj
 0002:00007104       ??_C@_1M@EKPGLDNI@?$AAe?$AAn?$AA?9?$AAT?$AAT@ 10034104     mfcs140:nolib.obj
 0002:00007110       ??_C@_1M@OONGHFHE@?$AAe?$AAs?$AA?9?$AAA?$AAR@ 10034110     mfcs140:nolib.obj
 0002:0000711c       ??_C@_1M@OOJFGBHE@?$AAa?$AAr?$AA?9?$AAL?$AAB@ 1003411c     mfcs140:nolib.obj
 0002:00007128       ??_C@_1M@GCEJHNEG@?$AAe?$AAn?$AA?9?$AAZ?$AAW@ 10034128     mfcs140:nolib.obj
 0002:00007134       ??_C@_1M@JNOCAHJI@?$AAe?$AAs?$AA?9?$AAE?$AAC@ 10034134     mfcs140:nolib.obj
 0002:00007140       ??_C@_1M@JEFHPGGB@?$AAa?$AAr?$AA?9?$AAK?$AAW@ 10034140     mfcs140:nolib.obj
 0002:0000714c       ??_C@_1M@MLKIBJOJ@?$AAe?$AAn?$AA?9?$AAP?$AAH@ 1003414c     mfcs140:nolib.obj
 0002:00007158       ??_C@_1M@BDNIPEND@?$AAe?$AAs?$AA?9?$AAC?$AAL@ 10034158     mfcs140:nolib.obj
 0002:00007164       ??_C@_1M@MPNMEKBD@?$AAa?$AAr?$AA?9?$AAA?$AAE@ 10034164     mfcs140:nolib.obj
 0002:00007170       ??_C@_1M@KBJALCPI@?$AAe?$AAs?$AA?9?$AAU?$AAY@ 10034170     mfcs140:nolib.obj
 0002:0000717c       ??_C@_1M@LLCCOAGA@?$AAa?$AAr?$AA?9?$AAB?$AAH@ 1003417c     mfcs140:nolib.obj
 0002:00007188       ??_C@_1M@PBFNCDEL@?$AAe?$AAs?$AA?9?$AAP?$AAY@ 10034188     mfcs140:nolib.obj
 0002:00007194       ??_C@_1M@EDGINPNP@?$AAa?$AAr?$AA?9?$AAQ?$AAA@ 10034194     mfcs140:nolib.obj
 0002:000071a0       ??_C@_1M@MKDBIIJI@?$AAe?$AAs?$AA?9?$AAB?$AAO@ 100341a0     mfcs140:nolib.obj
 0002:000071ac       ??_C@_1M@CPKKEBLD@?$AAe?$AAs?$AA?9?$AAS?$AAV@ 100341ac     mfcs140:nolib.obj
 0002:000071b8       ??_C@_1M@NDBGMMJL@?$AAe?$AAs?$AA?9?$AAH?$AAN@ 100341b8     mfcs140:nolib.obj
 0002:000071c4       ??_C@_1M@JIJIBHDP@?$AAe?$AAs?$AA?9?$AAN?$AAI@ 100341c4     mfcs140:nolib.obj
 0002:000071d0       ??_C@_1M@CGFMKEEK@?$AAe?$AAs?$AA?9?$AAP?$AAR@ 100341d0     mfcs140:nolib.obj
 0002:000071dc       ??_C@_1O@ICJHKIIK@?$AAz?$AAh?$AA?9?$AAC?$AAH?$AAT@ 100341dc     mfcs140:nolib.obj
 0002:000071ec       ??_C@_15CLNEJCE@?$AAs?$AAr@ 100341ec     mfcs140:nolib.obj
 0002:000071f8       __pAtlLocaleNameToIndexTable 100341f8     mfcs140:nolib.obj
 0002:00007918       ??_C@_1M@KAHEKEIG@?$AAa?$AAf?$AA?9?$AAz?$AAa@ 10034918     mfcs140:nolib.obj
 0002:00007924       ??_C@_1M@GIECOABL@?$AAa?$AAr?$AA?9?$AAa?$AAe@ 10034924     mfcs140:nolib.obj
 0002:00007930       ??_C@_1M@BMLMEKGI@?$AAa?$AAr?$AA?9?$AAb?$AAh@ 10034930     mfcs140:nolib.obj
 0002:0000793c       ??_C@_1M@DAPFDGGB@?$AAa?$AAr?$AA?9?$AAd?$AAz@ 1003493c     mfcs140:nolib.obj
 0002:00007948       ??_C@_1M@FJNKGKIG@?$AAa?$AAr?$AA?9?$AAe?$AAg@ 10034948     mfcs140:nolib.obj
 0002:00007954       ??_C@_1M@FLGKKCLO@?$AAa?$AAr?$AA?9?$AAi?$AAq@ 10034954     mfcs140:nolib.obj
 0002:00007960       ??_C@_1M@GNDIPALM@?$AAa?$AAr?$AA?9?$AAj?$AAo@ 10034960     mfcs140:nolib.obj
 0002:0000796c       ??_C@_1M@DDMJFMGJ@?$AAa?$AAr?$AA?9?$AAk?$AAw@ 1003496c     mfcs140:nolib.obj
 0002:00007978       ??_C@_1M@EJALMLHM@?$AAa?$AAr?$AA?9?$AAl?$AAb@ 10034978     mfcs140:nolib.obj
 0002:00007984       ??_C@_1M@MOBDBLOC@?$AAa?$AAr?$AA?9?$AAl?$AAy@ 10034984     mfcs140:nolib.obj
 0002:00007990       ??_C@_1M@JAOCLHDH@?$AAa?$AAr?$AA?9?$AAm?$AAa@ 10034990     mfcs140:nolib.obj
 0002:0000799c       ??_C@_1M@JHPMKJIE@?$AAa?$AAr?$AA?9?$AAo?$AAm@ 1003499c     mfcs140:nolib.obj
 0002:000079a8       ??_C@_1M@OEPGHFNH@?$AAa?$AAr?$AA?9?$AAq?$AAa@ 100349a8     mfcs140:nolib.obj
 0002:000079b4       ??_C@_1M@KJDONENM@?$AAa?$AAr?$AA?9?$AAs?$AAa@ 100349b4     mfcs140:nolib.obj
 0002:000079c0       ??_C@_1M@DMJDKLKM@?$AAa?$AAr?$AA?9?$AAs?$AAy@ 100349c0     mfcs140:nolib.obj
 0002:000079cc       ??_C@_1M@OMFIPEDC@?$AAa?$AAr?$AA?9?$AAt?$AAn@ 100349cc     mfcs140:nolib.obj
 0002:000079d8       ??_C@_1M@IHMHGAON@?$AAa?$AAr?$AA?9?$AAy?$AAe@ 100349d8     mfcs140:nolib.obj
 0002:000079e4       ??_C@_1BG@KDCPGJGB@?$AAa?$AAz?$AA?9?$AAa?$AAz?$AA?9?$AAc?$AAy?$AAr?$AAl@ 100349e4     mfcs140:nolib.obj
 0002:000079fc       ??_C@_1BG@IBCKDDOE@?$AAa?$AAz?$AA?9?$AAa?$AAz?$AA?9?$AAl?$AAa?$AAt?$AAn@ 100349fc     mfcs140:nolib.obj
 0002:00007a14       ??_C@_1M@EGPFDCPD@?$AAb?$AAe?$AA?9?$AAb?$AAy@ 10034a14     mfcs140:nolib.obj
 0002:00007a20       ??_C@_1M@PCMGMCGC@?$AAb?$AAg?$AA?9?$AAb?$AAg@ 10034a20     mfcs140:nolib.obj
 0002:00007a2c       ??_C@_1M@BJBMFGOB@?$AAb?$AAn?$AA?9?$AAi?$AAn@ 10034a2c     mfcs140:nolib.obj
 0002:00007a38       ??_C@_1BG@EAKMMACD@?$AAb?$AAs?$AA?9?$AAb?$AAa?$AA?9?$AAl?$AAa?$AAt?$AAn@ 10034a38     mfcs140:nolib.obj
 0002:00007a50       ??_C@_1M@KGADAODK@?$AAc?$AAa?$AA?9?$AAe?$AAs@ 10034a50     mfcs140:nolib.obj
 0002:00007a5c       ??_C@_1M@COAJPDHI@?$AAc?$AAs?$AA?9?$AAc?$AAz@ 10034a5c     mfcs140:nolib.obj
 0002:00007a68       ??_C@_1M@DHBHFONH@?$AAc?$AAy?$AA?9?$AAg?$AAb@ 10034a68     mfcs140:nolib.obj
 0002:00007a74       ??_C@_1M@IMGKELGA@?$AAd?$AAa?$AA?9?$AAd?$AAk@ 10034a74     mfcs140:nolib.obj
 0002:00007a80       ??_C@_1M@NNDGDNGA@?$AAd?$AAe?$AA?9?$AAa?$AAt@ 10034a80     mfcs140:nolib.obj
 0002:00007a8c       ??_C@_1M@IKDBHEEM@?$AAd?$AAe?$AA?9?$AAc?$AAh@ 10034a8c     mfcs140:nolib.obj
 0002:00007a98       ??_C@_1M@GFFOJMCJ@?$AAd?$AAe?$AA?9?$AAd?$AAe@ 10034a98     mfcs140:nolib.obj
 0002:00007aa4       ??_C@_1M@MDNLKBPM@?$AAd?$AAe?$AA?9?$AAl?$AAi@ 10034aa4     mfcs140:nolib.obj
 0002:00007ab0       ??_C@_1M@NJBEEJNL@?$AAd?$AAe?$AA?9?$AAl?$AAu@ 10034ab0     mfcs140:nolib.obj
 0002:00007abc       ??_C@_1O@GNNELBAP@?$AAd?$AAi?$AAv?$AA?9?$AAm?$AAv@ 10034abc     mfcs140:nolib.obj
 0002:00007acc       ??_C@_1M@EJLEOGAE@?$AAe?$AAl?$AA?9?$AAg?$AAr@ 10034acc     mfcs140:nolib.obj
 0002:00007ad8       ??_C@_1M@GMPONJN@?$AAe?$AAn?$AA?9?$AAa?$AAu@ 10034ad8     mfcs140:nolib.obj
 0002:00007ae4       ??_C@_1M@NIDIIPGF@?$AAe?$AAn?$AA?9?$AAb?$AAz@ 10034ae4     mfcs140:nolib.obj
 0002:00007af0       ??_C@_1M@JEHMIMFO@?$AAe?$AAn?$AA?9?$AAc?$AAa@ 10034af0     mfcs140:nolib.obj
 0002:00007afc       ??_C@_1M@IGMJCDLA@?$AAe?$AAn?$AA?9?$AAc?$AAb@ 10034afc     mfcs140:nolib.obj
 0002:00007b08       ??_C@_1M@BNFIGBKG@?$AAe?$AAn?$AA?9?$AAg?$AAb@ 10034b08     mfcs140:nolib.obj
 0002:00007b14       ??_C@_1M@LKIFDIGP@?$AAe?$AAn?$AA?9?$AAi?$AAe@ 10034b14     mfcs140:nolib.obj
 0002:00007b20       ??_C@_1M@PJKFGCCO@?$AAe?$AAn?$AA?9?$AAj?$AAm@ 10034b20     mfcs140:nolib.obj
 0002:00007b2c       ??_C@_1M@KPPKEPBO@?$AAe?$AAn?$AA?9?$AAn?$AAz@ 10034b2c     mfcs140:nolib.obj
 0002:00007b38       ??_C@_1M@GMDGLDOB@?$AAe?$AAn?$AA?9?$AAp?$AAh@ 10034b38     mfcs140:nolib.obj
 0002:00007b44       ??_C@_1M@ONGIBJNA@?$AAe?$AAn?$AA?9?$AAt?$AAt@ 10034b44     mfcs140:nolib.obj
 0002:00007b50       ??_C@_1M@LLODPCMM@?$AAe?$AAn?$AA?9?$AAu?$AAs@ 10034b50     mfcs140:nolib.obj
 0002:00007b5c       ??_C@_1M@LAKFNPAN@?$AAe?$AAn?$AA?9?$AAz?$AAa@ 10034b5c     mfcs140:nolib.obj
 0002:00007b68       ??_C@_1M@MFNHNHEO@?$AAe?$AAn?$AA?9?$AAz?$AAw@ 10034b68     mfcs140:nolib.obj
 0002:00007b74       ??_C@_1M@EJEINPHM@?$AAe?$AAs?$AA?9?$AAa?$AAr@ 10034b74     mfcs140:nolib.obj
 0002:00007b80       ??_C@_1M@GNKPCCJA@?$AAe?$AAs?$AA?9?$AAb?$AAo@ 10034b80     mfcs140:nolib.obj
 0002:00007b8c       ??_C@_1M@LEEGFONL@?$AAe?$AAs?$AA?9?$AAc?$AAl@ 10034b8c     mfcs140:nolib.obj
 0002:00007b98       ??_C@_1M@KGPDPBDF@?$AAe?$AAs?$AA?9?$AAc?$AAo@ 10034b98     mfcs140:nolib.obj
 0002:00007ba4       ??_C@_1M@EIAHOHH@?$AAe?$AAs?$AA?9?$AAc?$AAr@ 10034ba4     mfcs140:nolib.obj
 0002:00007bb0       ??_C@_1M@LLPGMBIN@?$AAe?$AAs?$AA?9?$AAd?$AAo@ 10034bb0     mfcs140:nolib.obj
 0002:00007bbc       ??_C@_1M@DKHMKNJA@?$AAe?$AAs?$AA?9?$AAe?$AAc@ 10034bbc     mfcs140:nolib.obj
 0002:00007bc8       ??_C@_1M@GKGFPKAP@?$AAe?$AAs?$AA?9?$AAe?$AAs@ 10034bc8     mfcs140:nolib.obj
 0002:00007bd4       ??_C@_1M@LKHKGDLN@?$AAe?$AAs?$AA?9?$AAg?$AAt@ 10034bd4     mfcs140:nolib.obj
 0002:00007be0       ??_C@_1M@HEIIGGJD@?$AAe?$AAs?$AA?9?$AAh?$AAn@ 10034be0     mfcs140:nolib.obj
 0002:00007bec       ??_C@_1M@FBDHPPGD@?$AAe?$AAs?$AA?9?$AAm?$AAx@ 10034bec     mfcs140:nolib.obj
 0002:00007bf8       ??_C@_1M@DPAGLNDH@?$AAe?$AAs?$AA?9?$AAn?$AAi@ 10034bf8     mfcs140:nolib.obj
 0002:00007c04       ??_C@_1M@MDGOPGDD@?$AAe?$AAs?$AA?9?$AAp?$AAa@ 10034c04     mfcs140:nolib.obj
 0002:00007c10       ??_C@_1M@EMAMGBGE@?$AAe?$AAs?$AA?9?$AAp?$AAe@ 10034c10     mfcs140:nolib.obj
 0002:00007c1c       ??_C@_1M@IBMCAOEC@?$AAe?$AAs?$AA?9?$AAp?$AAr@ 10034c1c     mfcs140:nolib.obj
 0002:00007c28       ??_C@_1M@FGMDIJED@?$AAe?$AAs?$AA?9?$AAp?$AAy@ 10034c28     mfcs140:nolib.obj
 0002:00007c34       ??_C@_1M@IIDEOLLL@?$AAe?$AAs?$AA?9?$AAs?$AAv@ 10034c34     mfcs140:nolib.obj
 0002:00007c40       ??_C@_1M@GAOBIPA@?$AAe?$AAs?$AA?9?$AAu?$AAy@ 10034c40     mfcs140:nolib.obj
 0002:00007c4c       ??_C@_1M@JKFFICHJ@?$AAe?$AAs?$AA?9?$AAv?$AAe@ 10034c4c     mfcs140:nolib.obj
 0002:00007c58       ??_C@_1M@PNMLOJDF@?$AAe?$AAt?$AA?9?$AAe?$AAe@ 10034c58     mfcs140:nolib.obj
 0002:00007c64       ??_C@_1M@GHHLIKEI@?$AAe?$AAu?$AA?9?$AAe?$AAs@ 10034c64     mfcs140:nolib.obj
 0002:00007c70       ??_C@_1M@PBNONODE@?$AAf?$AAa?$AA?9?$AAi?$AAr@ 10034c70     mfcs140:nolib.obj
 0002:00007c7c       ??_C@_1M@JEEHPMIL@?$AAf?$AAi?$AA?9?$AAf?$AAi@ 10034c7c     mfcs140:nolib.obj
 0002:00007c88       ??_C@_1M@LMDCNDBA@?$AAf?$AAo?$AA?9?$AAf?$AAo@ 10034c88     mfcs140:nolib.obj
 0002:00007c94       ??_C@_1M@JKEOHLDK@?$AAf?$AAr?$AA?9?$AAb?$AAe@ 10034c94     mfcs140:nolib.obj
 0002:00007ca0       ??_C@_1M@NOHADPMI@?$AAf?$AAr?$AA?9?$AAc?$AAa@ 10034ca0     mfcs140:nolib.obj
 0002:00007cac       ??_C@_1M@KDHIHAEC@?$AAf?$AAr?$AA?9?$AAc?$AAh@ 10034cac     mfcs140:nolib.obj
 0002:00007cb8       ??_C@_1M@MMBBFGAK@?$AAf?$AAr?$AA?9?$AAf?$AAr@ 10034cb8     mfcs140:nolib.obj
 0002:00007cc4       ??_C@_1M@PAFNENNF@?$AAf?$AAr?$AA?9?$AAl?$AAu@ 10034cc4     mfcs140:nolib.obj
 0002:00007cd0       ??_C@_1M@EOHDJGDD@?$AAf?$AAr?$AA?9?$AAm?$AAc@ 10034cd0     mfcs140:nolib.obj
 0002:00007cdc       ??_C@_1M@FAPLLOPF@?$AAg?$AAl?$AA?9?$AAe?$AAs@ 10034cdc     mfcs140:nolib.obj
 0002:00007ce8       ??_C@_1M@FOPBFLOO@?$AAg?$AAu?$AA?9?$AAi?$AAn@ 10034ce8     mfcs140:nolib.obj
 0002:00007cf4       ??_C@_1M@KBMCINPM@?$AAh?$AAe?$AA?9?$AAi?$AAl@ 10034cf4     mfcs140:nolib.obj
 0002:00007d00       ??_C@_1M@BBPHKFPJ@?$AAh?$AAi?$AA?9?$AAi?$AAn@ 10034d00     mfcs140:nolib.obj
 0002:00007d0c       ??_C@_1M@PMBNDPHD@?$AAh?$AAr?$AA?9?$AAb?$AAa@ 10034d0c     mfcs140:nolib.obj
 0002:00007d18       ??_C@_1M@BPCKOEGE@?$AAh?$AAr?$AA?9?$AAh?$AAr@ 10034d18     mfcs140:nolib.obj
 0002:00007d24       ??_C@_1M@GACBMHKE@?$AAh?$AAu?$AA?9?$AAh?$AAu@ 10034d24     mfcs140:nolib.obj
 0002:00007d30       ??_C@_1M@MILPAJJC@?$AAh?$AAy?$AA?9?$AAa?$AAm@ 10034d30     mfcs140:nolib.obj
 0002:00007d3c       ??_C@_1M@BABBICEC@?$AAi?$AAd?$AA?9?$AAi?$AAd@ 10034d3c     mfcs140:nolib.obj
 0002:00007d48       ??_C@_1M@BIKNHHPF@?$AAi?$AAs?$AA?9?$AAi?$AAs@ 10034d48     mfcs140:nolib.obj
 0002:00007d54       ??_C@_1M@NMPCJPHE@?$AAi?$AAt?$AA?9?$AAc?$AAh@ 10034d54     mfcs140:nolib.obj
 0002:00007d60       ??_C@_1M@GHKGFEDF@?$AAi?$AAt?$AA?9?$AAi?$AAt@ 10034d60     mfcs140:nolib.obj
 0002:00007d6c       ??_C@_1M@NIEJCJJA@?$AAj?$AAa?$AA?9?$AAj?$AAp@ 10034d6c     mfcs140:nolib.obj
 0002:00007d78       ??_C@_1M@JILFNBIM@?$AAk?$AAa?$AA?9?$AAg?$AAe@ 10034d78     mfcs140:nolib.obj
 0002:00007d84       ??_C@_1M@PACPMGPH@?$AAk?$AAk?$AA?9?$AAk?$AAz@ 10034d84     mfcs140:nolib.obj
 0002:00007d90       ??_C@_1M@IELFGMHA@?$AAk?$AAn?$AA?9?$AAi?$AAn@ 10034d90     mfcs140:nolib.obj
 0002:00007d9c       ??_C@_1O@IBBJHCH@?$AAk?$AAo?$AAk?$AA?9?$AAi?$AAn@ 10034d9c     mfcs140:nolib.obj
 0002:00007dac       ??_C@_1M@DMHAEOGC@?$AAk?$AAo?$AA?9?$AAk?$AAr@ 10034dac     mfcs140:nolib.obj
 0002:00007db8       ??_C@_1M@HBAHBIGA@?$AAk?$AAy?$AA?9?$AAk?$AAg@ 10034db8     mfcs140:nolib.obj
 0002:00007dc4       ??_C@_1M@KPMILCJG@?$AAl?$AAt?$AA?9?$AAl?$AAt@ 10034dc4     mfcs140:nolib.obj
 0002:00007dd0       ??_C@_1M@BDEKKCA@?$AAl?$AAv?$AA?9?$AAl?$AAv@ 10034dd0     mfcs140:nolib.obj
 0002:00007ddc       ??_C@_1M@ELCKCCJJ@?$AAm?$AAi?$AA?9?$AAn?$AAz@ 10034ddc     mfcs140:nolib.obj
 0002:00007de8       ??_C@_1M@CBOOLAPA@?$AAm?$AAk?$AA?9?$AAm?$AAk@ 10034de8     mfcs140:nolib.obj
 0002:00007df4       ??_C@_1M@GPHNBJKN@?$AAm?$AAl?$AA?9?$AAi?$AAn@ 10034df4     mfcs140:nolib.obj
 0002:00007e00       ??_C@_1M@PABJILIG@?$AAm?$AAn?$AA?9?$AAm?$AAn@ 10034e00     mfcs140:nolib.obj
 0002:00007e0c       ??_C@_1M@FGBKKIPG@?$AAm?$AAr?$AA?9?$AAi?$AAn@ 10034e0c     mfcs140:nolib.obj
 0002:00007e18       ??_C@_1M@NDBPDDAL@?$AAm?$AAs?$AA?9?$AAb?$AAn@ 10034e18     mfcs140:nolib.obj
 0002:00007e24       ??_C@_1M@OPIHOOPI@?$AAm?$AAs?$AA?9?$AAm?$AAy@ 10034e24     mfcs140:nolib.obj
 0002:00007e30       ??_C@_1M@PPDBCNFM@?$AAm?$AAt?$AA?9?$AAm?$AAt@ 10034e30     mfcs140:nolib.obj
 0002:00007e3c       ??_C@_1M@KDJDKMDD@?$AAn?$AAb?$AA?9?$AAn?$AAo@ 10034e3c     mfcs140:nolib.obj
 0002:00007e48       ??_C@_1M@KFCFLMJP@?$AAn?$AAl?$AA?9?$AAb?$AAe@ 10034e48     mfcs140:nolib.obj
 0002:00007e54       ??_C@_1M@KPOPDDGO@?$AAn?$AAl?$AA?9?$AAn?$AAl@ 10034e54     mfcs140:nolib.obj
 0002:00007e60       ??_C@_1M@LJKPEMLN@?$AAn?$AAn?$AA?9?$AAn?$AAo@ 10034e60     mfcs140:nolib.obj
 0002:00007e6c       ??_C@_1M@BDGHHBFL@?$AAn?$AAs?$AA?9?$AAz?$AAa@ 10034e6c     mfcs140:nolib.obj
 0002:00007e78       ??_C@_1M@IDEHOAP@?$AAp?$AAa?$AA?9?$AAi?$AAn@ 10034e78     mfcs140:nolib.obj
 0002:00007e84       ??_C@_1M@HDBKGOGH@?$AAp?$AAl?$AA?9?$AAp?$AAl@ 10034e84     mfcs140:nolib.obj
 0002:00007e90       ??_C@_1M@LJLLCMEH@?$AAp?$AAt?$AA?9?$AAb?$AAr@ 10034e90     mfcs140:nolib.obj
 0002:00007e9c       ??_C@_1M@NCMONAAL@?$AAp?$AAt?$AA?9?$AAp?$AAt@ 10034e9c     mfcs140:nolib.obj
 0002:00007ea8       ??_C@_1O@EAKMAJDN@?$AAq?$AAu?$AAz?$AA?9?$AAb?$AAo@ 10034ea8     mfcs140:nolib.obj
 0002:00007eb8       ??_C@_1O@BHHPIGDN@?$AAq?$AAu?$AAz?$AA?9?$AAe?$AAc@ 10034eb8     mfcs140:nolib.obj
 0002:00007ec8       ??_C@_1O@GBAPEKMJ@?$AAq?$AAu?$AAz?$AA?9?$AAp?$AAe@ 10034ec8     mfcs140:nolib.obj
 0002:00007ed8       ??_C@_1M@CLGLEFBO@?$AAr?$AAo?$AA?9?$AAr?$AAo@ 10034ed8     mfcs140:nolib.obj
 0002:00007ee4       ??_C@_1M@CEEDODME@?$AAr?$AAu?$AA?9?$AAr?$AAu@ 10034ee4     mfcs140:nolib.obj
 0002:00007ef0       ??_C@_1M@HPKKKMPP@?$AAs?$AAa?$AA?9?$AAi?$AAn@ 10034ef0     mfcs140:nolib.obj
 0002:00007efc       ??_C@_1M@BKMAIGOJ@?$AAs?$AAe?$AA?9?$AAf?$AAi@ 10034efc     mfcs140:nolib.obj
 0002:00007f08       ??_C@_1M@NDPIFLFI@?$AAs?$AAe?$AA?9?$AAn?$AAo@ 10034f08     mfcs140:nolib.obj
 0002:00007f14       ??_C@_1M@DANKKHJ@?$AAs?$AAe?$AA?9?$AAs?$AAe@ 10034f14     mfcs140:nolib.obj
 0002:00007f20       ??_C@_1M@PNBLONPJ@?$AAs?$AAk?$AA?9?$AAs?$AAk@ 10034f20     mfcs140:nolib.obj
 0002:00007f2c       ??_C@_1M@LFMODOAL@?$AAs?$AAl?$AA?9?$AAs?$AAi@ 10034f2c     mfcs140:nolib.obj
 0002:00007f38       ??_C@_1O@DFKOMPG@?$AAs?$AAm?$AAa?$AA?9?$AAn?$AAo@ 10034f38     mfcs140:nolib.obj
 0002:00007f48       ??_C@_1O@NDKPBNNH@?$AAs?$AAm?$AAa?$AA?9?$AAs?$AAe@ 10034f48     mfcs140:nolib.obj
 0002:00007f58       ??_C@_1O@PLLKBHAB@?$AAs?$AAm?$AAj?$AA?9?$AAn?$AAo@ 10034f58     mfcs140:nolib.obj
 0002:00007f68       ??_C@_1O@CLEPOGCA@?$AAs?$AAm?$AAj?$AA?9?$AAs?$AAe@ 10034f68     mfcs140:nolib.obj
 0002:00007f78       ??_C@_1O@DLGJGKMK@?$AAs?$AAm?$AAn?$AA?9?$AAf?$AAi@ 10034f78     mfcs140:nolib.obj
 0002:00007f88       ??_C@_1O@OJDJGAJC@?$AAs?$AAm?$AAs?$AA?9?$AAf?$AAi@ 10034f88     mfcs140:nolib.obj
 0002:00007f98       ??_C@_1M@BOFOGHPB@?$AAs?$AAq?$AA?9?$AAa?$AAl@ 10034f98     mfcs140:nolib.obj
 0002:00007fa4       ??_C@_1BG@LJBBIPGB@?$AAs?$AAr?$AA?9?$AAb?$AAa?$AA?9?$AAc?$AAy?$AAr?$AAl@ 10034fa4     mfcs140:nolib.obj
 0002:00007fbc       ??_C@_1BG@JLBENFOE@?$AAs?$AAr?$AA?9?$AAb?$AAa?$AA?9?$AAl?$AAa?$AAt?$AAn@ 10034fbc     mfcs140:nolib.obj
 0002:00007fd4       ??_C@_1BG@KODPNHE@?$AAs?$AAr?$AA?9?$AAs?$AAp?$AA?9?$AAc?$AAy?$AAr?$AAl@ 10034fd4     mfcs140:nolib.obj
 0002:00007fec       ??_C@_1BG@CIOGKHPB@?$AAs?$AAr?$AA?9?$AAs?$AAp?$AA?9?$AAl?$AAa?$AAt?$AAn@ 10034fec     mfcs140:nolib.obj
 0002:00008004       ??_C@_1M@NGFJLMAC@?$AAs?$AAv?$AA?9?$AAf?$AAi@ 10035004     mfcs140:nolib.obj
 0002:00008010       ??_C@_1M@MPJEJAJC@?$AAs?$AAv?$AA?9?$AAs?$AAe@ 10035010     mfcs140:nolib.obj
 0002:0000801c       ??_C@_1M@MPNDHLFK@?$AAs?$AAw?$AA?9?$AAk?$AAe@ 1003501c     mfcs140:nolib.obj
 0002:00008028       ??_C@_1O@KOHBJJI@?$AAs?$AAy?$AAr?$AA?9?$AAs?$AAy@ 10035028     mfcs140:nolib.obj
 0002:00008038       ??_C@_1M@LDCEFHA@?$AAt?$AAa?$AA?9?$AAi?$AAn@ 10035038     mfcs140:nolib.obj
 0002:00008044       ??_C@_1M@CNJOFAK@?$AAt?$AAe?$AA?9?$AAi?$AAn@ 10035044     mfcs140:nolib.obj
 0002:00008050       ??_C@_1M@GNAECACD@?$AAt?$AAh?$AA?9?$AAt?$AAh@ 10035050     mfcs140:nolib.obj
 0002:0000805c       ??_C@_1M@CHBIHOJO@?$AAt?$AAn?$AA?9?$AAz?$AAa@ 1003505c     mfcs140:nolib.obj
 0002:00008068       ??_C@_1M@GCCMIGPJ@?$AAt?$AAr?$AA?9?$AAt?$AAr@ 10035068     mfcs140:nolib.obj
 0002:00008074       ??_C@_1M@CELMCNBK@?$AAt?$AAt?$AA?9?$AAr?$AAu@ 10035074     mfcs140:nolib.obj
 0002:00008080       ??_C@_1M@KLMCELGA@?$AAu?$AAk?$AA?9?$AAu?$AAa@ 10035080     mfcs140:nolib.obj
 0002:0000808c       ??_C@_1M@EPAJJAJF@?$AAu?$AAr?$AA?9?$AAp?$AAk@ 1003508c     mfcs140:nolib.obj
 0002:00008098       ??_C@_1BG@GEGPMCDJ@?$AAu?$AAz?$AA?9?$AAu?$AAz?$AA?9?$AAc?$AAy?$AAr?$AAl@ 10035098     mfcs140:nolib.obj
 0002:000080b0       ??_C@_1BG@EGGKJILM@?$AAu?$AAz?$AA?9?$AAu?$AAz?$AA?9?$AAl?$AAa?$AAt?$AAn@ 100350b0     mfcs140:nolib.obj
 0002:000080c8       ??_C@_1M@GFOCLFF@?$AAv?$AAi?$AA?9?$AAv?$AAn@ 100350c8     mfcs140:nolib.obj
 0002:000080d4       ??_C@_1M@CPAMEDFI@?$AAx?$AAh?$AA?9?$AAz?$AAa@ 100350d4     mfcs140:nolib.obj
 0002:000080e0       ??_C@_1O@EBKIFIGN@?$AAz?$AAh?$AA?9?$AAc?$AAh?$AAs@ 100350e0     mfcs140:nolib.obj
 0002:000080f0       ??_C@_1O@NMHPGANE@?$AAz?$AAh?$AA?9?$AAc?$AAh?$AAt@ 100350f0     mfcs140:nolib.obj
 0002:00008100       ??_C@_1M@LPINJOMC@?$AAz?$AAh?$AA?9?$AAc?$AAn@ 10035100     mfcs140:nolib.obj
 0002:0000810c       ??_C@_1M@OCJEJODD@?$AAz?$AAh?$AA?9?$AAh?$AAk@ 1003510c     mfcs140:nolib.obj
 0002:00008118       ??_C@_1M@DNDLJINH@?$AAz?$AAh?$AA?9?$AAm?$AAo@ 10035118     mfcs140:nolib.obj
 0002:00008124       ??_C@_1M@MBFDNDND@?$AAz?$AAh?$AA?9?$AAs?$AAg@ 10035124     mfcs140:nolib.obj
 0002:00008130       ??_C@_1M@IMEPLEPE@?$AAz?$AAh?$AA?9?$AAt?$AAw@ 10035130     mfcs140:nolib.obj
 0002:0000813c       ??_C@_1M@BBGHNHJP@?$AAz?$AAu?$AA?9?$AAz?$AAa@ 1003513c     mfcs140:nolib.obj
 0002:00008148       ??_C@_0O@JKAFBCMB@CreateActCtxW@ 10035148     mfcs140:nolib.obj
 0002:00008158       ??_C@_0P@CECBPMJL@ActivateActCtx@ 10035158     mfcs140:nolib.obj
 0002:00008168       ??_C@_0BB@NPIOCCPF@DeactivateActCtx@ 10035168     mfcs140:nolib.obj
 0002:0000817c       ??_C@_0BJ@MGNMALIC@FindActCtxSectionStringW@ 1003517c     mfcs140:nolib.obj
 0002:00008198       ??_C@_0N@IMINIHMJ@QueryActCtxW@ 10035198     mfcs140:nolib.obj
 0002:000081a8       ??_C@_0BD@GIGEJCNH@GetModuleHandleExW@ 100351a8     mfcs140:nolib.obj
 0002:000081bc       ??_C@_1BK@BFMCNHEO@?$AAC?$AAo?$AAm?$AAc?$AAt?$AAl?$AA3?$AA2?$AA?4?$AAd?$AAl?$AAl@ 100351bc     mfcs140:nolib.obj
 0002:000081d8       ?debugString@?4??IsolationAwarePrivatenPgViNgRzlnPgpgk@@9@4@4QBDB 100351d8     mfcs140:nolib.obj
 0002:00008214       ?c@?1??WinbaseIsolationAwarePrivatetRgCebPnQQeRff_xReaRYQP_QYY@@9@4@4UIsolationAwarePrivate_pBAFGnAG_zBqHyr_vAsB@@B 10035214     mfcs140:nolib.obj
 0002:00008224       ??_C@_1BK@EJBALEBG@?$AAK?$AAe?$AAr?$AAn?$AAe?$AAl?$AA3?$AA2?$AA?4?$AAd?$AAl?$AAl@ 10035224     mfcs140:nolib.obj
 0002:00008240       ??_C@_0N@HAOHNMDE@Kernel32?4dll@ 10035240     mfcs140:nolib.obj
 0002:00008250       __pActualRawDllMain        10035250     mfcs140:dllmodul.obj
 0002:00008258       ??_7_AFX_DLL_MODULE_STATE@@6B@ 10035258     mfcs140:dllmodul.obj
 0002:00008260       ??_7type_info@@6B@         10035260     msvcrt:std_type_info_static.obj
 0002:00008268       ??_C@_1EC@JIJBPKFM@?$AAa?$AAp?$AAi?$AA?9?$AAm?$AAs?$AA?9?$AAw?$AAi?$AAn?$AA?9?$AAc?$AAo?$AAr?$AAe@ 10035268     msvcrt:thread_safe_statics.obj
 0002:000082ac       ??_C@_1BK@MGMFAEKH@?$AAk?$AAe?$AAr?$AAn?$AAe?$AAl?$AA3?$AA2?$AA?4?$AAd?$AAl?$AAl@ 100352ac     msvcrt:thread_safe_statics.obj
 0002:000082c8       ??_C@_0BJ@JEBJOJFJ@SleepConditionVariableCS@ 100352c8     msvcrt:thread_safe_statics.obj
 0002:000082e4       ??_C@_0BJ@PGPPEPCC@WakeAllConditionVariable@ 100352e4     msvcrt:thread_safe_statics.obj
 0002:00008300       __pDefaultRawDllMain       10035300     msvcrt:dll_dllmain.obj
 0002:0000830c       _GUID_ATLVer30             1003530c     atls:atlbase.obj
 0002:0000831c       _GUID_ATLVer70             1003531c     atls:atlbase.obj
 0002:0000832c       _GUID_ATLVer100            1003532c     atls:atlbase.obj
 0002:0000833c       _GUID_ATLVer110            1003533c     atls:atlbase.obj
 0002:00008350       ??_C@_1IC@ONKHOIDK@?$AAE?$AAR?$AAR?$AAO?$AAR?$AA?5?$AA?3?$AA?5?$AAU?$AAn?$AAa?$AAb?$AAl?$AAe?$AA?5@ 10035350     atls:atlbase.obj
 0002:000083d4       ??_C@_1CA@ONGMEOAB@?$AAa?$AAt?$AAl?$AAT?$AAr?$AAa?$AAc?$AAe?$AAG?$AAe?$AAn?$AAe?$AAr?$AAa?$AAl@ 100353d4     atls:stdafx.obj
 0002:000083f4       ??_C@_1BI@MAFGHOEE@?$AAa?$AAt?$AAl?$AAT?$AAr?$AAa?$AAc?$AAe?$AAC?$AAO?$AAM@ 100353f4     atls:stdafx.obj
 0002:0000840c       ??_C@_1BG@FPLJJEMF@?$AAa?$AAt?$AAl?$AAT?$AAr?$AAa?$AAc?$AAe?$AAQ?$AAI@ 1003540c     atls:stdafx.obj
 0002:00008424       ??_C@_1CE@NIAEAIDK@?$AAa?$AAt?$AAl?$AAT?$AAr?$AAa?$AAc?$AAe?$AAR?$AAe?$AAg?$AAi?$AAs?$AAt?$AAr@ 10035424     atls:stdafx.obj
 0002:00008448       ??_C@_1CC@BNHGJFNK@?$AAa?$AAt?$AAl?$AAT?$AAr?$AAa?$AAc?$AAe?$AAR?$AAe?$AAf?$AAc?$AAo?$AAu?$AAn@ 10035448     atls:stdafx.obj
 0002:0000846c       ??_C@_1CE@NAJDPMNB@?$AAa?$AAt?$AAl?$AAT?$AAr?$AAa?$AAc?$AAe?$AAW?$AAi?$AAn?$AAd?$AAo?$AAw?$AAi@ 1003546c     atls:stdafx.obj
 0002:00008490       ??_C@_1CC@IMNJGBED@?$AAa?$AAt?$AAl?$AAT?$AAr?$AAa?$AAc?$AAe?$AAC?$AAo?$AAn?$AAt?$AAr?$AAo?$AAl@ 10035490     atls:stdafx.obj
 0002:000084b4       ??_C@_1CA@OMOMONMN@?$AAa?$AAt?$AAl?$AAT?$AAr?$AAa?$AAc?$AAe?$AAH?$AAo?$AAs?$AAt?$AAi?$AAn?$AAg@ 100354b4     atls:stdafx.obj
 0002:000084d4       ??_C@_1CC@JNJJDOOH@?$AAa?$AAt?$AAl?$AAT?$AAr?$AAa?$AAc?$AAe?$AAD?$AAB?$AAC?$AAl?$AAi?$AAe?$AAn@ 100354d4     atls:stdafx.obj
 0002:000084f8       ??_C@_1CG@MNMMIOOI@?$AAa?$AAt?$AAl?$AAT?$AAr?$AAa?$AAc?$AAe?$AAD?$AAB?$AAP?$AAr?$AAo?$AAv?$AAi@ 100354f8     atls:stdafx.obj
 0002:00008520       ??_C@_1BO@EFPHNHHN@?$AAa?$AAt?$AAl?$AAT?$AAr?$AAa?$AAc?$AAe?$AAS?$AAn?$AAa?$AAp?$AAi?$AAn@ 10035520     atls:stdafx.obj
 0002:00008540       ??_C@_1CA@DMHPIODO@?$AAa?$AAt?$AAl?$AAT?$AAr?$AAa?$AAc?$AAe?$AAN?$AAo?$AAt?$AAI?$AAm?$AAp?$AAl@ 10035540     atls:stdafx.obj
 0002:00008560       ??_C@_1CG@KFEEMCDH@?$AAa?$AAt?$AAl?$AAT?$AAr?$AAa?$AAc?$AAe?$AAA?$AAl?$AAl?$AAo?$AAc?$AAa?$AAt@ 10035560     atls:stdafx.obj
 0002:00008588       ??_C@_1CE@IMMADNAP@?$AAa?$AAt?$AAl?$AAT?$AAr?$AAa?$AAc?$AAe?$AAE?$AAx?$AAc?$AAe?$AAp?$AAt?$AAi@ 10035588     atls:stdafx.obj
 0002:000085ac       ??_C@_1BK@NCJHOFCL@?$AAa?$AAt?$AAl?$AAT?$AAr?$AAa?$AAc?$AAe?$AAT?$AAi?$AAm?$AAe@ 100355ac     atls:stdafx.obj
 0002:000085c8       ??_C@_1BM@GIKLHLFD@?$AAa?$AAt?$AAl?$AAT?$AAr?$AAa?$AAc?$AAe?$AAC?$AAa?$AAc?$AAh?$AAe@ 100355c8     atls:stdafx.obj
 0002:000085e4       ??_C@_1CA@PBPHANCD@?$AAa?$AAt?$AAl?$AAT?$AAr?$AAa?$AAc?$AAe?$AAS?$AAt?$AAe?$AAn?$AAc?$AAi?$AAl@ 100355e4     atls:stdafx.obj
 0002:00008604       ??_C@_1BO@GMLILNDJ@?$AAa?$AAt?$AAl?$AAT?$AAr?$AAa?$AAc?$AAe?$AAS?$AAt?$AAr?$AAi?$AAn?$AAg@ 10035604     atls:stdafx.obj
 0002:00008624       ??_C@_1BI@OKDLCIEM@?$AAa?$AAt?$AAl?$AAT?$AAr?$AAa?$AAc?$AAe?$AAM?$AAa?$AAp@ 10035624     atls:stdafx.obj
 0002:0000863c       ??_C@_1BK@DMHCKHHD@?$AAa?$AAt?$AAl?$AAT?$AAr?$AAa?$AAc?$AAe?$AAU?$AAt?$AAi?$AAl@ 1003563c     atls:stdafx.obj
 0002:00008658       ??_C@_1CC@DMMBNCFG@?$AAa?$AAt?$AAl?$AAT?$AAr?$AAa?$AAc?$AAe?$AAS?$AAe?$AAc?$AAu?$AAr?$AAi?$AAt@ 10035658     atls:stdafx.obj
 0002:0000867c       ??_C@_1BK@OPAPOCAL@?$AAa?$AAt?$AAl?$AAT?$AAr?$AAa?$AAc?$AAe?$AAS?$AAy?$AAn?$AAc@ 1003567c     atls:stdafx.obj
 0002:00008698       ??_C@_1BM@FHAEDBFK@?$AAa?$AAt?$AAl?$AAT?$AAr?$AAa?$AAc?$AAe?$AAI?$AAS?$AAA?$AAP?$AAI@ 10035698     atls:stdafx.obj
 0002:000086b4       ?chDirSep@ATL@@3_WB        100356b4     atls:stdafx.obj
 0002:000086b8       ?chRightBracket@ATL@@3_WB  100356b8     atls:stdafx.obj
 0002:000086bc       ?chLeftBracket@ATL@@3_WB   100356bc     atls:stdafx.obj
 0002:000086c0       ?chQuote@ATL@@3_WB         100356c0     atls:stdafx.obj
 0002:000086c4       ?chEquals@ATL@@3_WB        100356c4     atls:stdafx.obj
 0002:000086c8       ?szStringVal@ATL@@3QB_WB   100356c8     atls:stdafx.obj
 0002:000086cc       ??_C@_13HADIAKP@?$AAS@     100356cc     atls:stdafx.obj
 0002:000086d0       ?multiszStringVal@ATL@@3QB_WB 100356d0     atls:stdafx.obj
 0002:000086d4       ??_C@_13LHMFKAAD@?$AAM@    100356d4     atls:stdafx.obj
 0002:000086d8       ?szDwordVal@ATL@@3QB_WB    100356d8     atls:stdafx.obj
 0002:000086dc       ??_C@_13MKMNOPIJ@?$AAD@    100356dc     atls:stdafx.obj
 0002:000086e0       ?szBinaryVal@ATL@@3QB_WB   100356e0     atls:stdafx.obj
 0002:000086e4       ??_C@_13OPKGLAFF@?$AAB@    100356e4     atls:stdafx.obj
 0002:000086e8       ?szValToken@ATL@@3QB_WB    100356e8     atls:stdafx.obj
 0002:000086ec       ??_C@_17LLMMEOJD@?$AAV?$AAa?$AAl@ 100356ec     atls:stdafx.obj
 0002:000086f4       ?szForceRemove@ATL@@3QB_WB 100356f4     atls:stdafx.obj
 0002:000086f8       ??_C@_1BI@JFAIJMHL@?$AAF?$AAo?$AAr?$AAc?$AAe?$AAR?$AAe?$AAm?$AAo?$AAv?$AAe@ 100356f8     atls:stdafx.obj
 0002:00008710       ?szNoRemove@ATL@@3QB_WB    10035710     atls:stdafx.obj
 0002:00008714       ??_C@_1BC@GCKHIPE@?$AAN?$AAo?$AAR?$AAe?$AAm?$AAo?$AAv?$AAe@ 10035714     atls:stdafx.obj
 0002:00008728       ?szDelete@ATL@@3QB_WB      10035728     atls:stdafx.obj
 0002:0000872c       ??_C@_1O@JDLOHAN@?$AAD?$AAe?$AAl?$AAe?$AAt?$AAe@ 1003572c     atls:stdafx.obj
 0002:0000873c       __pRawDllMain              1003573c     mfcs140:rawdllmainproxy.obj
 0002:00008798       __load_config_used         10035798     msvcrt:loadcfg.obj
 0002:00008880       ___CastGuardVftablesStart  10035880     msvcrt:guard_support.obj
 0002:00008884       ___CastGuardVftablesEnd    10035884     msvcrt:guard_support.obj
 0002:00008888       __tls_used                 10035888     msvcrt:tlssup.obj
 0002:000088a0       ??_R3CObject@@8            100358a0     BitmapItemComboBox.obj
 0002:000088b0       ??_R2CObject@@8            100358b0     BitmapItemComboBox.obj
 0002:000088b8       ??_R1A@?0A@EA@CObject@@8   100358b8     BitmapItemComboBox.obj
 0002:000088d4       ??_R4CGdiObject@@6B@       100358d4     BitmapItemComboBox.obj
 0002:000088e8       ??_R3CGdiObject@@8         100358e8     BitmapItemComboBox.obj
 0002:000088f8       ??_R2CGdiObject@@8         100358f8     BitmapItemComboBox.obj
 0002:00008904       ??_R1A@?0A@EA@CGdiObject@@8 10035904     BitmapItemComboBox.obj
 0002:00008920       ??_R4CBrush@@6B@           10035920     BitmapItemComboBox.obj
 0002:00008934       ??_R3CBrush@@8             10035934     BitmapItemComboBox.obj
 0002:00008944       ??_R2CBrush@@8             10035944     BitmapItemComboBox.obj
 0002:00008954       ??_R1A@?0A@EA@CBrush@@8    10035954     BitmapItemComboBox.obj
 0002:00008970       ??_R4CBitmap@@6B@          10035970     BitmapItemComboBox.obj
 0002:00008984       ??_R3CBitmap@@8            10035984     BitmapItemComboBox.obj
 0002:00008994       ??_R2CBitmap@@8            10035994     BitmapItemComboBox.obj
 0002:000089a4       ??_R1A@?0A@EA@CBitmap@@8   100359a4     BitmapItemComboBox.obj
 0002:000089c0       ??_R1A@?0A@EA@CWnd@@8      100359c0     BitmapItemComboBox.obj
 0002:000089dc       ??_R3CWnd@@8               100359dc     BitmapItemComboBox.obj
 0002:000089ec       ??_R2CWnd@@8               100359ec     BitmapItemComboBox.obj
 0002:000089fc       ??_R1A@?0A@EA@CCmdTarget@@8 100359fc     BitmapItemComboBox.obj
 0002:00008a18       ??_R3CCmdTarget@@8         10035a18     BitmapItemComboBox.obj
 0002:00008a28       ??_R2CCmdTarget@@8         10035a28     BitmapItemComboBox.obj
 0002:00008a34       ??_R4CComboBox@@6B@        10035a34     BitmapItemComboBox.obj
 0002:00008a48       ??_R3CComboBox@@8          10035a48     BitmapItemComboBox.obj
 0002:00008a58       ??_R2CComboBox@@8          10035a58     BitmapItemComboBox.obj
 0002:00008a6c       ??_R1A@?0A@EA@CComboBox@@8 10035a6c     BitmapItemComboBox.obj
 0002:00008a88       ??_R4CBitmapItemComboBox@@6B@ 10035a88     BitmapItemComboBox.obj
 0002:00008a9c       ??_R3CBitmapItemComboBox@@8 10035a9c     BitmapItemComboBox.obj
 0002:00008aac       ??_R2CBitmapItemComboBox@@8 10035aac     BitmapItemComboBox.obj
 0002:00008ac4       ??_R1A@?0A@EA@CBitmapItemComboBox@@8 10035ac4     BitmapItemComboBox.obj
 0002:00008ae0       ??_R4CButton@@6B@          10035ae0     ColorButton.obj
 0002:00008af4       ??_R3CButton@@8            10035af4     ColorButton.obj
 0002:00008b04       ??_R2CButton@@8            10035b04     ColorButton.obj
 0002:00008b18       ??_R1A@?0A@EA@CButton@@8   10035b18     ColorButton.obj
 0002:00008b34       ??_R4CColorButton@@6B@     10035b34     ColorButton.obj
 0002:00008b48       ??_R3CColorButton@@8       10035b48     ColorButton.obj
 0002:00008b58       ??_R2CColorButton@@8       10035b58     ColorButton.obj
 0002:00008b70       ??_R1A@?0A@EA@CColorButton@@8 10035b70     ColorButton.obj
 0002:00008b8c       ??_R4CRgn@@6B@             10035b8c     Conversion.obj
 0002:00008ba0       ??_R3CRgn@@8               10035ba0     Conversion.obj
 0002:00008bb0       ??_R2CRgn@@8               10035bb0     Conversion.obj
 0002:00008bc0       ??_R1A@?0A@EA@CRgn@@8      10035bc0     Conversion.obj
 0002:00008bdc       ??_R4CEdit@@6B@            10035bdc     XEdit.obj
 0002:00008bf0       ??_R3CEdit@@8              10035bf0     XEdit.obj
 0002:00008c00       ??_R2CEdit@@8              10035c00     XEdit.obj
 0002:00008c14       ??_R1A@?0A@EA@CEdit@@8     10035c14     XEdit.obj
 0002:00008c30       ??_R4CXEdit@@6B@           10035c30     XEdit.obj
 0002:00008c44       ??_R3CXEdit@@8             10035c44     XEdit.obj
 0002:00008c54       ??_R2CXEdit@@8             10035c54     XEdit.obj
 0002:00008c6c       ??_R1A@?0A@EA@CXEdit@@8    10035c6c     XEdit.obj
 0002:00008c88       ??_R4CPen@@6B@             10035c88     XHeaderCtrl.obj
 0002:00008c9c       ??_R3CPen@@8               10035c9c     XHeaderCtrl.obj
 0002:00008cac       ??_R2CPen@@8               10035cac     XHeaderCtrl.obj
 0002:00008cbc       ??_R1A@?0A@EA@CPen@@8      10035cbc     XHeaderCtrl.obj
 0002:00008cd8       ??_R4CHeaderCtrl@@6B@      10035cd8     XHeaderCtrl.obj
 0002:00008cec       ??_R3CHeaderCtrl@@8        10035cec     XHeaderCtrl.obj
 0002:00008cfc       ??_R2CHeaderCtrl@@8        10035cfc     XHeaderCtrl.obj
 0002:00008d10       ??_R1A@?0A@EA@CHeaderCtrl@@8 10035d10     XHeaderCtrl.obj
 0002:00008d2c       ??_R4CMemDC@@6B@           10035d2c     XHeaderCtrl.obj
 0002:00008d40       ??_R3CMemDC@@8             10035d40     XHeaderCtrl.obj
 0002:00008d50       ??_R2CMemDC@@8             10035d50     XHeaderCtrl.obj
 0002:00008d60       ??_R1A@?0A@EA@CMemDC@@8    10035d60     XHeaderCtrl.obj
 0002:00008d7c       ??_R1A@?0A@EA@CDC@@8       10035d7c     XHeaderCtrl.obj
 0002:00008d98       ??_R3CDC@@8                10035d98     XHeaderCtrl.obj
 0002:00008da8       ??_R2CDC@@8                10035da8     XHeaderCtrl.obj
 0002:00008db4       ??_R4CXHeaderCtrl@@6B@     10035db4     XHeaderCtrl.obj
 0002:00008dc8       ??_R3CXHeaderCtrl@@8       10035dc8     XHeaderCtrl.obj
 0002:00008dd8       ??_R2CXHeaderCtrl@@8       10035dd8     XHeaderCtrl.obj
 0002:00008df0       ??_R1A@?0A@EA@CXHeaderCtrl@@8 10035df0     XHeaderCtrl.obj
 0002:00008e0c       ??_R4CFont@@6B@            10035e0c     XListCtrl.obj
 0002:00008e20       ??_R3CFont@@8              10035e20     XListCtrl.obj
 0002:00008e30       ??_R2CFont@@8              10035e30     XListCtrl.obj
 0002:00008e40       ??_R1A@?0A@EA@CFont@@8     10035e40     XListCtrl.obj
 0002:00008e5c       ??_R4CListCtrl@@6B@        10035e5c     XListCtrl.obj
 0002:00008e70       ??_R3CListCtrl@@8          10035e70     XListCtrl.obj
 0002:00008e80       ??_R2CListCtrl@@8          10035e80     XListCtrl.obj
 0002:00008e94       ??_R1A@?0A@EA@CListCtrl@@8 10035e94     XListCtrl.obj
 0002:00008eb0       ??_R4CXListCtrl@@6B@       10035eb0     XListCtrl.obj
 0002:00008ec4       ??_R3CXListCtrl@@8         10035ec4     XListCtrl.obj
 0002:00008ed4       ??_R2CXListCtrl@@8         10035ed4     XListCtrl.obj
 0002:00008eec       ??_R1A@?0A@EA@CXListCtrl@@8 10035eec     XListCtrl.obj
 0002:00008f08       ??_R4CxSkinButton@@6B@     10035f08     xSkinButton.obj
 0002:00008f1c       ??_R3CxSkinButton@@8       10035f1c     xSkinButton.obj
 0002:00008f2c       ??_R2CxSkinButton@@8       10035f2c     xSkinButton.obj
 0002:00008f44       ??_R1A@?0A@EA@CxSkinButton@@8 10035f44     xSkinButton.obj
 0002:00008f60       ??_R4CTabCtrl@@6B@         10035f60     XTabCtrl.obj
 0002:00008f74       ??_R3CTabCtrl@@8           10035f74     XTabCtrl.obj
 0002:00008f84       ??_R2CTabCtrl@@8           10035f84     XTabCtrl.obj
 0002:00008f98       ??_R1A@?0A@EA@CTabCtrl@@8  10035f98     XTabCtrl.obj
 0002:00008fb4       ??_R4CXTabCtrl@@6B@        10035fb4     XTabCtrl.obj
 0002:00008fc8       ??_R3CXTabCtrl@@8          10035fc8     XTabCtrl.obj
 0002:00008fd8       ??_R2CXTabCtrl@@8          10035fd8     XTabCtrl.obj
 0002:00008ff0       ??_R1A@?0A@EA@CXTabCtrl@@8 10035ff0     XTabCtrl.obj
 0002:0000900c       ??_R4?$CArray@HH@@6B@      1003600c     XTabCtrl.obj
 0002:00009020       ??_R3?$CArray@HH@@8        10036020     XTabCtrl.obj
 0002:00009030       ??_R2?$CArray@HH@@8        10036030     XTabCtrl.obj
 0002:0000903c       ??_R1A@?0A@EA@?$CArray@HH@@8 1003603c     XTabCtrl.obj
 0002:00009058       ??_R1A@?0A@EA@CDialog@@8   10036058     DlgRunMain.obj
 0002:00009074       ??_R3CDialog@@8            10036074     DlgRunMain.obj
 0002:00009084       ??_R2CDialog@@8            10036084     DlgRunMain.obj
 0002:00009098       ??_R4CDlgRunMain@@6B@      10036098     DlgRunMain.obj
 0002:000090ac       ??_R3CDlgRunMain@@8        100360ac     DlgRunMain.obj
 0002:000090bc       ??_R2CDlgRunMain@@8        100360bc     DlgRunMain.obj
 0002:000090d8       ??_R1A@?0A@EA@CDlgRunMain@@8 100360d8     DlgRunMain.obj
 0002:000090f4       ??_R1A@?0A@EA@CRscDlg@@8   100360f4     DlgRunMain.obj
 0002:00009110       ??_R3CRscDlg@@8            10036110     DlgRunMain.obj
 0002:00009120       ??_R2CRscDlg@@8            10036120     DlgRunMain.obj
 0002:00009138       ??_R4?$CArray@PAVCRscDlg@@PAV1@@@6B@ 10036138     DlgRunMain.obj
 0002:0000914c       ??_R3?$CArray@PAVCRscDlg@@PAV1@@@8 1003614c     DlgRunMain.obj
 0002:0000915c       ??_R2?$CArray@PAVCRscDlg@@PAV1@@@8 1003615c     DlgRunMain.obj
 0002:00009168       ??_R1A@?0A@EA@?$CArray@PAVCRscDlg@@PAV1@@@8 10036168     DlgRunMain.obj
 0002:00009184       ??_R4CDlgSTConfig@@6B@     10036184     DlgSTConfig.obj
 0002:00009198       ??_R3CDlgSTConfig@@8       10036198     DlgSTConfig.obj
 0002:000091a8       ??_R2CDlgSTConfig@@8       100361a8     DlgSTConfig.obj
 0002:000091c4       ??_R1A@?0A@EA@CDlgSTConfig@@8 100361c4     DlgSTConfig.obj
 0002:000091e0       ??_R4CDlgSTOption@@6B@     100361e0     DlgSTOption.obj
 0002:000091f4       ??_R3CDlgSTOption@@8       100361f4     DlgSTOption.obj
 0002:00009204       ??_R2CDlgSTOption@@8       10036204     DlgSTOption.obj
 0002:00009220       ??_R1A@?0A@EA@CDlgSTOption@@8 10036220     DlgSTOption.obj
 0002:0000923c       ??_R4CRscDlg@@6B@          1003623c     RscDlg.obj
 0002:00009250       ??_R4CSTConfigureDlgApp@@6B@ 10036250     STConfigureDlg.obj
 0002:00009264       ??_R3CSTConfigureDlgApp@@8 10036264     STConfigureDlg.obj
 0002:00009274       ??_R2CSTConfigureDlgApp@@8 10036274     STConfigureDlg.obj
 0002:0000928c       ??_R1A@?0A@EA@CSTConfigureDlgApp@@8 1003628c     STConfigureDlg.obj
 0002:000092a8       ??_R1A@?0A@EA@CWinApp@@8   100362a8     STConfigureDlg.obj
 0002:000092c4       ??_R3CWinApp@@8            100362c4     STConfigureDlg.obj
 0002:000092d4       ??_R2CWinApp@@8            100362d4     STConfigureDlg.obj
 0002:000092e8       ??_R1A@?0A@EA@CWinThread@@8 100362e8     STConfigureDlg.obj
 0002:00009304       ??_R3CWinThread@@8         10036304     STConfigureDlg.obj
 0002:00009314       ??_R2CWinThread@@8         10036314     STConfigureDlg.obj
 0002:00009324       ??_R4CWin32Heap@ATL@@6B@   10036324     StdAfx.obj
 0002:00009338       ??_R3CWin32Heap@ATL@@8     10036338     StdAfx.obj
 0002:00009348       ??_R2CWin32Heap@ATL@@8     10036348     StdAfx.obj
 0002:00009354       ??_R1A@?0A@EA@CWin32Heap@ATL@@8 10036354     StdAfx.obj
 0002:00009370       ??_R1A@?0A@EA@IAtlMemMgr@ATL@@8 10036370     StdAfx.obj
 0002:0000938c       ??_R3IAtlMemMgr@ATL@@8     1003638c     StdAfx.obj
 0002:0000939c       ??_R2IAtlMemMgr@ATL@@8     1003639c     StdAfx.obj
 0002:000093a4       ??_R1A@?0A@EA@IAtlStringMgr@ATL@@8 100363a4     StdAfx.obj
 0002:000093c0       ??_R3IAtlStringMgr@ATL@@8  100363c0     StdAfx.obj
 0002:000093d0       ??_R2IAtlStringMgr@ATL@@8  100363d0     StdAfx.obj
 0002:000093d8       ??_R4CAtlStringMgr@ATL@@6B@ 100363d8     StdAfx.obj
 0002:000093ec       ??_R3CAtlStringMgr@ATL@@8  100363ec     StdAfx.obj
 0002:000093fc       ??_R2CAtlStringMgr@ATL@@8  100363fc     StdAfx.obj
 0002:00009408       ??_R1A@?0A@EA@CAtlStringMgr@ATL@@8 10036408     StdAfx.obj
 0002:00009424       ??_R4CStatic@@6B@          10036424     TabAuthority.obj
 0002:00009438       ??_R3CStatic@@8            10036438     TabAuthority.obj
 0002:00009448       ??_R2CStatic@@8            10036448     TabAuthority.obj
 0002:0000945c       ??_R1A@?0A@EA@CStatic@@8   1003645c     TabAuthority.obj
 0002:00009478       ??_R4CDateTimeCtrl@@6B@    10036478     TabAuthority.obj
 0002:0000948c       ??_R3CDateTimeCtrl@@8      1003648c     TabAuthority.obj
 0002:0000949c       ??_R2CDateTimeCtrl@@8      1003649c     TabAuthority.obj
 0002:000094b0       ??_R1A@?0A@EA@CDateTimeCtrl@@8 100364b0     TabAuthority.obj
 0002:000094cc       ??_R4CTabAuthority@@6B@    100364cc     TabAuthority.obj
 0002:000094e0       ??_R3CTabAuthority@@8      100364e0     TabAuthority.obj
 0002:000094f0       ??_R2CTabAuthority@@8      100364f0     TabAuthority.obj
 0002:0000950c       ??_R1A@?0A@EA@CTabAuthority@@8 1003650c     TabAuthority.obj
 0002:00009528       ??_R4CTabBasic@@6B@        10036528     TabBasic.obj
 0002:0000953c       ??_R3CTabBasic@@8          1003653c     TabBasic.obj
 0002:0000954c       ??_R2CTabBasic@@8          1003654c     TabBasic.obj
 0002:00009568       ??_R1A@?0A@EA@CTabBasic@@8 10036568     TabBasic.obj
 0002:00009584       ??_R4CCommonDialog@@6B@    10036584     TabIndex.obj
 0002:00009598       ??_R3CCommonDialog@@8      10036598     TabIndex.obj
 0002:000095a8       ??_R2CCommonDialog@@8      100365a8     TabIndex.obj
 0002:000095c0       ??_R1A@?0A@EA@CCommonDialog@@8 100365c0     TabIndex.obj
 0002:000095dc       ??_R4CTabIndex@@6B@        100365dc     TabIndex.obj
 0002:000095f0       ??_R3CTabIndex@@8          100365f0     TabIndex.obj
 0002:00009600       ??_R2CTabIndex@@8          10036600     TabIndex.obj
 0002:0000961c       ??_R1A@?0A@EA@CTabIndex@@8 1003661c     TabIndex.obj
 0002:00009638       ??_R4?$CArray@VCIndexData@@V1@@@6B@ 10036638     TabIndex.obj
 0002:0000964c       ??_R3?$CArray@VCIndexData@@V1@@@8 1003664c     TabIndex.obj
 0002:0000965c       ??_R2?$CArray@VCIndexData@@V1@@@8 1003665c     TabIndex.obj
 0002:00009668       ??_R1A@?0A@EA@?$CArray@VCIndexData@@V1@@@8 10036668     TabIndex.obj
 0002:00009684       ??_R4CTabRunClear@@6B@     10036684     TabRunClear.obj
 0002:00009698       ??_R3CTabRunClear@@8       10036698     TabRunClear.obj
 0002:000096a8       ??_R2CTabRunClear@@8       100366a8     TabRunClear.obj
 0002:000096c4       ??_R1A@?0A@EA@CTabRunClear@@8 100366c4     TabRunClear.obj
 0002:000096e0       ??_R4CTabRunJumun@@6B@     100366e0     TabRunJumun.obj
 0002:000096f4       ??_R3CTabRunJumun@@8       100366f4     TabRunJumun.obj
 0002:00009704       ??_R2CTabRunJumun@@8       10036704     TabRunJumun.obj
 0002:00009720       ??_R1A@?0A@EA@CTabRunJumun@@8 10036720     TabRunJumun.obj
 0002:0000973c       ??_R4CTabRunSetup@@6B@     1003673c     TabRunSetup.obj
 0002:00009750       ??_R3CTabRunSetup@@8       10036750     TabRunSetup.obj
 0002:00009760       ??_R2CTabRunSetup@@8       10036760     TabRunSetup.obj
 0002:0000977c       ??_R1A@?0A@EA@CTabRunSetup@@8 1003677c     TabRunSetup.obj
 0002:00009798       ??_R4CTabRunSignal@@6B@    10036798     TabRunSignal.obj
 0002:000097ac       ??_R3CTabRunSignal@@8      100367ac     TabRunSignal.obj
 0002:000097bc       ??_R2CTabRunSignal@@8      100367bc     TabRunSignal.obj
 0002:000097d8       ??_R1A@?0A@EA@CTabRunSignal@@8 100367d8     TabRunSignal.obj
 0002:000097f4       ??_R4CTabSignal@@6B@       100367f4     TabSignal.obj
 0002:00009808       ??_R3CTabSignal@@8         10036808     TabSignal.obj
 0002:00009818       ??_R2CTabSignal@@8         10036818     TabSignal.obj
 0002:00009834       ??_R1A@?0A@EA@CTabSignal@@8 10036834     TabSignal.obj
 0002:00009850       ??_R4CTabVariables@@6B@    10036850     TabVariables.obj
 0002:00009864       ??_R3CTabVariables@@8      10036864     TabVariables.obj
 0002:00009874       ??_R2CTabVariables@@8      10036874     TabVariables.obj
 0002:00009890       ??_R1A@?0A@EA@CTabVariables@@8 10036890     TabVariables.obj
 0002:000098ac       ??_R4CLoaderDrawButton@@6B@ 100368ac     ExControl:ExDrawButton.obj
 0002:000098c0       ??_R3CLoaderDrawButton@@8  100368c0     ExControl:ExDrawButton.obj
 0002:000098d0       ??_R2CLoaderDrawButton@@8  100368d0     ExControl:ExDrawButton.obj
 0002:000098dc       ??_R1A@?0A@EA@CLoaderDrawButton@@8 100368dc     ExControl:ExDrawButton.obj
 0002:000098f8       ??_R1A@?0A@EA@CExLoadLib@@8 100368f8     ExControl:ExDrawButton.obj
 0002:00009914       ??_R3CExLoadLib@@8         10036914     ExControl:ExDrawButton.obj
 0002:00009924       ??_R2CExLoadLib@@8         10036924     ExControl:ExDrawButton.obj
 0002:0000992c       ??_R4CExDrawButton@@6B@    1003692c     ExControl:ExDrawButton.obj
 0002:00009940       ??_R3CExDrawButton@@8      10036940     ExControl:ExDrawButton.obj
 0002:00009950       ??_R2CExDrawButton@@8      10036950     ExControl:ExDrawButton.obj
 0002:0000996c       ??_R1A@?0A@EA@CExDrawButton@@8 1003696c     ExControl:ExDrawButton.obj
 0002:00009988       ??_R1A@?0A@EA@CExButton@@8 10036988     ExControl:ExDrawButton.obj
 0002:000099a4       ??_R3CExButton@@8          100369a4     ExControl:ExDrawButton.obj
 0002:000099b4       ??_R2CExButton@@8          100369b4     ExControl:ExDrawButton.obj
 0002:000099cc       ??_R4CExLoadLib@@6B@       100369cc     ExControl:ExDrawButton.obj
 0002:000099e0       ??_R4CLoaderEdit@@6B@      100369e0     ExControl:ExEdit.obj
 0002:000099f4       ??_R3CLoaderEdit@@8        100369f4     ExControl:ExEdit.obj
 0002:00009a04       ??_R2CLoaderEdit@@8        10036a04     ExControl:ExEdit.obj
 0002:00009a10       ??_R1A@?0A@EA@CLoaderEdit@@8 10036a10     ExControl:ExEdit.obj
 0002:00009a2c       ??_R4CExEdit@@6B@          10036a2c     ExControl:ExEdit.obj
 0002:00009a40       ??_R3CExEdit@@8            10036a40     ExControl:ExEdit.obj
 0002:00009a50       ??_R2CExEdit@@8            10036a50     ExControl:ExEdit.obj
 0002:00009a68       ??_R1A@?0A@EA@CExEdit@@8   10036a68     ExControl:ExEdit.obj
 0002:00009a84       ??_R4CLoaderComboBox@@6B@  10036a84     ExControl:ExComboBox.obj
 0002:00009a98       ??_R3CLoaderComboBox@@8    10036a98     ExControl:ExComboBox.obj
 0002:00009aa8       ??_R2CLoaderComboBox@@8    10036aa8     ExControl:ExComboBox.obj
 0002:00009ab4       ??_R1A@?0A@EA@CLoaderComboBox@@8 10036ab4     ExControl:ExComboBox.obj
 0002:00009ad0       ??_R4CExComboBox@@6B@      10036ad0     ExControl:ExComboBox.obj
 0002:00009ae4       ??_R3CExComboBox@@8        10036ae4     ExControl:ExComboBox.obj
 0002:00009af4       ??_R2CExComboBox@@8        10036af4     ExControl:ExComboBox.obj
 0002:00009b0c       ??_R1A@?0A@EA@CExComboBox@@8 10036b0c     ExControl:ExComboBox.obj
 0002:00009b28       ??_R4CExButton@@6B@        10036b28     ExControl:ExButton.obj
 0002:00009b3c       ??_R4?$CArray@PAXPAX@@6B@  10036b3c     ExControl:StdAfx.obj
 0002:00009b50       ??_R3?$CArray@PAXPAX@@8    10036b50     ExControl:StdAfx.obj
 0002:00009b60       ??_R2?$CArray@PAXPAX@@8    10036b60     ExControl:StdAfx.obj
 0002:00009b6c       ??_R1A@?0A@EA@?$CArray@PAXPAX@@8 10036b6c     ExControl:StdAfx.obj
 0002:00009b88       ??_R3CNoTrackObject@@8     10036b88     mfcs140:dllmodul.obj
 0002:00009b98       ??_R2CNoTrackObject@@8     10036b98     mfcs140:dllmodul.obj
 0002:00009ba0       ??_R1A@?0A@EA@CNoTrackObject@@8 10036ba0     mfcs140:dllmodul.obj
 0002:00009bbc       ??_R4_AFX_DLL_MODULE_STATE@@6B@ 10036bbc     mfcs140:dllmodul.obj
 0002:00009bd0       ??_R3_AFX_DLL_MODULE_STATE@@8 10036bd0     mfcs140:dllmodul.obj
 0002:00009be0       ??_R2_AFX_DLL_MODULE_STATE@@8 10036be0     mfcs140:dllmodul.obj
 0002:00009bf0       ??_R1A@?0A@EA@_AFX_DLL_MODULE_STATE@@8 10036bf0     mfcs140:dllmodul.obj
 0002:00009c0c       ??_R1A@?0A@EA@AFX_MODULE_STATE@@8 10036c0c     mfcs140:dllmodul.obj
 0002:00009c28       ??_R3AFX_MODULE_STATE@@8   10036c28     mfcs140:dllmodul.obj
 0002:00009c38       ??_R2AFX_MODULE_STATE@@8   10036c38     mfcs140:dllmodul.obj
 0002:00009c44       ??_R4type_info@@6B@        10036c44     msvcrt:std_type_info_static.obj
 0002:00009c58       ??_R3type_info@@8          10036c58     msvcrt:std_type_info_static.obj
 0002:00009c68       ??_R2type_info@@8          10036c68     msvcrt:std_type_info_static.obj
 0002:00009c70       ??_R1A@?0A@EA@type_info@@8 10036c70     msvcrt:std_type_info_static.obj
 0002:00009c8c       ___safe_se_handler_table   10036c8c     <linker-defined>
 0002:00009f94       ___volatile_metadata       10036f94     <linker-defined>
 0002:0000a40c       ___rtc_iaa                 1003740c     msvcrt:initsect.obj
 0002:0000a410       ___rtc_izz                 10037410     msvcrt:initsect.obj
 0002:0000a414       ___rtc_taa                 10037414     msvcrt:initsect.obj
 0002:0000a418       ___rtc_tzz                 10037418     msvcrt:initsect.obj
 0002:0000a41c       __tls_start                1003741c     msvcrt:tlssup.obj
 0002:0000a420       __Init_thread_epoch        10037420     msvcrt:thread_safe_statics.obj
 0002:0000a424       __tls_end                  10037424     msvcrt:tlssup.obj
 0002:0000d4cc       ___pobjMapEntryFirst       1003a4cc     StdAfx.obj
 0002:0000d4d0       ___pobjMapEntryLast        1003a4d0     StdAfx.obj
 0002:0000d6f8       __IMPORT_DESCRIPTOR_WINMM  1003a6f8     Winmm:WINMM.dll
 0002:0000d70c       __IMPORT_DESCRIPTOR_mfc140 1003a70c     mfc140:mfc140.dll
 0002:0000d720       __IMPORT_DESCRIPTOR_KERNEL32 1003a720     kernel32:KERNEL32.dll
 0002:0000d734       __IMPORT_DESCRIPTOR_USER32 1003a734     user32:USER32.dll
 0002:0000d748       __IMPORT_DESCRIPTOR_GDI32  1003a748     gdi32:GDI32.dll
 0002:0000d75c       __IMPORT_DESCRIPTOR_COMCTL32 1003a75c     comctl32:COMCTL32.dll
 0002:0000d770       __IMPORT_DESCRIPTOR_OLEAUT32 1003a770     oleaut32:OLEAUT32.dll
 0002:0000d784       __IMPORT_DESCRIPTOR_VCRUNTIME140 1003a784     vcruntime:VCRUNTIME140.dll
 0002:0000d798       __IMPORT_DESCRIPTOR_api-ms-win-crt-string-l1-1-0 1003a798     ucrt:api-ms-win-crt-string-l1-1-0.dll
 0002:0000d7ac       __IMPORT_DESCRIPTOR_api-ms-win-crt-stdio-l1-1-0 1003a7ac     ucrt:api-ms-win-crt-stdio-l1-1-0.dll
 0002:0000d7c0       __IMPORT_DESCRIPTOR_api-ms-win-crt-convert-l1-1-0 1003a7c0     ucrt:api-ms-win-crt-convert-l1-1-0.dll
 0002:0000d7d4       __IMPORT_DESCRIPTOR_api-ms-win-crt-math-l1-1-0 1003a7d4     ucrt:api-ms-win-crt-math-l1-1-0.dll
 0002:0000d7e8       __IMPORT_DESCRIPTOR_api-ms-win-crt-runtime-l1-1-0 1003a7e8     ucrt:api-ms-win-crt-runtime-l1-1-0.dll
 0002:0000d7fc       __IMPORT_DESCRIPTOR_api-ms-win-crt-heap-l1-1-0 1003a7fc     ucrt:api-ms-win-crt-heap-l1-1-0.dll
 0002:0000d810       __IMPORT_DESCRIPTOR_api-ms-win-crt-time-l1-1-0 1003a810     ucrt:api-ms-win-crt-time-l1-1-0.dll
 0002:0000d824       __IMPORT_DESCRIPTOR_api-ms-win-crt-filesystem-l1-1-0 1003a824     ucrt:api-ms-win-crt-filesystem-l1-1-0.dll
 0002:0000d838       __NULL_IMPORT_DESCRIPTOR   1003a838     Winmm:WINMM.dll
 0003:00000000       __pIncludeInitManaged      1003c000     StdAfx.obj
 0003:00000004       ?_AtlComModule@ATL@@3VCAtlComModule@1@A 1003c004     StdAfx.obj
 0003:0000002c       ?_AtlWinModule@ATL@@3VCAtlWinModule@1@A 1003c02c     StdAfx.obj
 0003:00000058       ?m_arPermanentHandle@@3V?$CArray@PAXPAX@@A 1003c058     ExControl:StdAfx.obj
 0003:0000006c       _WinbaseIsolationAwarePrivateT_UnPgpgk 1003c06c     mfcs140:nolib.obj
 0003:00000070       ___security_cookie_complement 1003c070     msvcrt:gs_cookie.obj
 0003:00000074       ___security_cookie         1003c074     msvcrt:gs_cookie.obj
 0003:00000078       __fltused                  1003c078     msvcrt:fltused.obj
 0003:0000007c       ___scrt_native_dllmain_reason 1003c07c     msvcrt:utility.obj
 0003:00000080       __Init_global_epoch        1003c080     msvcrt:thread_safe_statics.obj
 0003:00000090       ___isa_enabled             1003c090     msvcrt:cpu_disp.obj
 0003:00000094       ___scrt_ucrt_dll_is_in_use 1003c094     msvcrt:ucrt_stubs.obj
 0003:00000098       ??_R0PAVCException@@@8     1003c098     BitmapItemComboBox.obj
 0003:000000b4       ??_R0PAVCMemoryException@@@8 1003c0b4     mfcs140:dllmodul.obj
 0003:000000d4       ??_R0?AVCObject@@@8        1003c0d4     BitmapItemComboBox.obj
 0003:000000ec       ??_R0?AVCGdiObject@@@8     1003c0ec     BitmapItemComboBox.obj
 0003:00000108       ??_R0?AVCBrush@@@8         1003c108     BitmapItemComboBox.obj
 0003:00000120       ??_R0?AVCBitmap@@@8        1003c120     BitmapItemComboBox.obj
 0003:00000138       ??_R0?AVCWnd@@@8           1003c138     BitmapItemComboBox.obj
 0003:0000014c       ??_R0?AVCCmdTarget@@@8     1003c14c     BitmapItemComboBox.obj
 0003:00000168       ??_R0?AVCComboBox@@@8      1003c168     BitmapItemComboBox.obj
 0003:00000180       ??_R0?AVCBitmapItemComboBox@@@8 1003c180     BitmapItemComboBox.obj
 0003:000001a4       ??_R0?AVCButton@@@8        1003c1a4     ColorButton.obj
 0003:000001bc       ??_R0?AVCColorButton@@@8   1003c1bc     ColorButton.obj
 0003:000001d8       ??_R0?AVCRgn@@@8           1003c1d8     Conversion.obj
 0003:000001ec       ??_R0?AVCEdit@@@8          1003c1ec     XEdit.obj
 0003:00000200       ??_R0?AVCXEdit@@@8         1003c200     XEdit.obj
 0003:00000218       ??_R0?AVCPen@@@8           1003c218     XHeaderCtrl.obj
 0003:0000022c       ??_R0?AVCHeaderCtrl@@@8    1003c22c     XHeaderCtrl.obj
 0003:00000248       ??_R0?AVCMemDC@@@8         1003c248     XHeaderCtrl.obj
 0003:00000260       ??_R0?AVCDC@@@8            1003c260     XHeaderCtrl.obj
 0003:00000274       ??_R0?AVCXHeaderCtrl@@@8   1003c274     XHeaderCtrl.obj
 0003:00000290       ??_R0?AVCFont@@@8          1003c290     XListCtrl.obj
 0003:000002a4       ??_R0?AVCListCtrl@@@8      1003c2a4     XListCtrl.obj
 0003:000002bc       ??_R0?AVCXListCtrl@@@8     1003c2bc     XListCtrl.obj
 0003:000002d8       ??_R0?AVCxSkinButton@@@8   1003c2d8     xSkinButton.obj
 0003:000002f4       ??_R0?AVCTabCtrl@@@8       1003c2f4     XTabCtrl.obj
 0003:0000030c       ??_R0?AVCXTabCtrl@@@8      1003c30c     XTabCtrl.obj
 0003:00000324       ??_R0?AV?$CArray@HH@@@8    1003c324     XTabCtrl.obj
 0003:00000340       ??_R0?AVCDialog@@@8        1003c340     DlgRunMain.obj
 0003:00000358       ??_R0?AVCDlgRunMain@@@8    1003c358     DlgRunMain.obj
 0003:00000374       ??_R0?AVCRscDlg@@@8        1003c374     DlgRunMain.obj
 0003:0000038c       ??_R0?AV?$CArray@PAVCRscDlg@@PAV1@@@@8 1003c38c     DlgRunMain.obj
 0003:000003b8       ??_R0?AVCDlgSTConfig@@@8   1003c3b8     DlgSTConfig.obj
 0003:000003d4       ??_R0?AVCDlgSTOption@@@8   1003c3d4     DlgSTOption.obj
 0003:000003f0       ??_R0?AVCSTConfigureDlgApp@@@8 1003c3f0     STConfigureDlg.obj
 0003:00000414       ??_R0?AVCWinApp@@@8        1003c414     STConfigureDlg.obj
 0003:0000042c       ??_R0?AVCWinThread@@@8     1003c42c     STConfigureDlg.obj
 0003:00000448       ??_R0?AVCWin32Heap@ATL@@@8 1003c448     StdAfx.obj
 0003:00000468       ??_R0?AUIAtlMemMgr@ATL@@@8 1003c468     StdAfx.obj
 0003:00000488       ??_R0?AUIAtlStringMgr@ATL@@@8 1003c488     StdAfx.obj
 0003:000004a8       ??_R0?AVCAtlStringMgr@ATL@@@8 1003c4a8     StdAfx.obj
 0003:000004c8       ??_R0?AVCStatic@@@8        1003c4c8     TabAuthority.obj
 0003:000004e0       ??_R0?AVCDateTimeCtrl@@@8  1003c4e0     TabAuthority.obj
 0003:000004fc       ??_R0?AVCTabAuthority@@@8  1003c4fc     TabAuthority.obj
 0003:00000518       ??_R0?AVCTabBasic@@@8      1003c518     TabBasic.obj
 0003:00000530       ??_R0?AVCCommonDialog@@@8  1003c530     TabIndex.obj
 0003:0000054c       ??_R0?AVCTabIndex@@@8      1003c54c     TabIndex.obj
 0003:00000564       ??_R0?AV?$CArray@VCIndexData@@V1@@@@8 1003c564     TabIndex.obj
 0003:0000058c       ??_R0?AVCTabRunClear@@@8   1003c58c     TabRunClear.obj
 0003:000005a8       ??_R0?AVCTabRunJumun@@@8   1003c5a8     TabRunJumun.obj
 0003:000005c4       ??_R0?AVCTabRunSetup@@@8   1003c5c4     TabRunSetup.obj
 0003:000005e0       ??_R0?AVCTabRunSignal@@@8  1003c5e0     TabRunSignal.obj
 0003:000005fc       ??_R0?AVCTabSignal@@@8     1003c5fc     TabSignal.obj
 0003:00000618       ??_R0?AVCTabVariables@@@8  1003c618     TabVariables.obj
 0003:00000634       ??_R0?AVCLoaderDrawButton@@@8 1003c634     ExControl:ExDrawButton.obj
 0003:00000654       ??_R0?AVCExLoadLib@@@8     1003c654     ExControl:ExDrawButton.obj
 0003:00000670       ??_R0?AVCExDrawButton@@@8  1003c670     ExControl:ExDrawButton.obj
 0003:0000068c       ??_R0?AVCExButton@@@8      1003c68c     ExControl:ExDrawButton.obj
 0003:000006a4       ??_R0?AVCLoaderEdit@@@8    1003c6a4     ExControl:ExEdit.obj
 0003:000006c0       ??_R0?AVCExEdit@@@8        1003c6c0     ExControl:ExEdit.obj
 0003:000006d8       ??_R0?AVCLoaderComboBox@@@8 1003c6d8     ExControl:ExComboBox.obj
 0003:000006f8       ??_R0?AVCExComboBox@@@8    1003c6f8     ExControl:ExComboBox.obj
 0003:00000714       ??_R0?AV?$CArray@PAXPAX@@@8 1003c714     ExControl:StdAfx.obj
 0003:00000734       ??_R0?AVCNoTrackObject@@@8 1003c734     mfcs140:dllmodul.obj
 0003:00000754       ??_R0?AV_AFX_DLL_MODULE_STATE@@@8 1003c754     mfcs140:dllmodul.obj
 0003:00000778       ??_R0?AVAFX_MODULE_STATE@@@8 1003c778     mfcs140:dllmodul.obj
 0003:00000798       ??_R0?AVtype_info@@@8      1003c798     msvcrt:std_type_info_static.obj
 0003:000007b0       ?_OptionsStorage@?1??__local_stdio_printf_options@@9@4_KA 1003c7b0     Conversion.obj
 0003:000007b8       ?_OptionsStorage@?1??__local_stdio_scanf_options@@9@4_KA 1003c7b8     Conversion.obj
 0003:000007c0       ?WM_XEDIT_VK_RETURN@@3IA   1003c7c0     XEdit.obj
 0003:000007c4       ?WM_XEDIT_VK_ESCAPE@@3IA   1003c7c4     XEdit.obj
 0003:000007c8       ?WM_XLISTCTRL_COMBO_SELECTION@@3IA 1003c7c8     XListCtrl.obj
 0003:000007cc       ?WM_XLISTCTRL_CHECKBOX_CLICKED@@3IA 1003c7cc     XListCtrl.obj
 0003:000007e8       ?g_hInstance@@3PAUHINSTANCE__@@A 1003c7e8     STConfigureDlg.obj
 0003:000007f0       ?theApp@@3VCSTConfigureDlgApp@@A 1003c7f0     STConfigureDlg.obj
 0003:00000dc8       ___@@_PchSym_@00@UtrgUhixUrypUrypPwiumUKxwwiumRxhUPlyqUhgxlmurtfivwotUhgwzucOlyq@4B2008FD98C1DD4 1003cdc8     StdAfx.obj
 0003:00000dcc       ?strHeap@?1??GetInstance@CAtlStringMgr@ATL@@SAPAUIAtlStringMgr@3@XZ@4VCWin32Heap@3@A 1003cdcc     StdAfx.obj
 0003:00000dd8       ?$TSS0@?1??GetInstance@CAtlStringMgr@ATL@@SAPAUIAtlStringMgr@3@XZ@4HA 1003cdd8     StdAfx.obj
 0003:00000ddc       ?strMgr@?1??GetInstance@CAtlStringMgr@ATL@@SAPAUIAtlStringMgr@3@XZ@4V23@A 1003cddc     StdAfx.obj
 0003:00000df8       ?$TSS1@?1??GetInstance@CAtlStringMgr@ATL@@SAPAUIAtlStringMgr@3@XZ@4HA 1003cdf8     StdAfx.obj
 0003:00000dfc       ?m_bInitFailed@CAtlBaseModule@ATL@@2_NA 1003cdfc     StdAfx.obj
 0003:00000e00       ?_pPerfRegFunc@ATL@@3P6AJPAUHINSTANCE__@@@ZA 1003ce00     StdAfx.obj
 0003:00000e04       ?_pPerfUnRegFunc@ATL@@3P6AJXZA 1003ce04     StdAfx.obj
 0003:00000e08       ?_AtlRegisterPerUser@ATL@@3_NA 1003ce08     StdAfx.obj
 0003:00000e0c       ?_pAtlModule@ATL@@3PAVCAtlModule@1@A 1003ce0c     StdAfx.obj
 0003:00000e10       ?_pModule@ATL@@3PAVCComModule@1@A 1003ce10     StdAfx.obj
 0003:00000e14       ?_pAtlAutoThreadModule@ATL@@3PAUIAtlAutoThreadModule@1@A 1003ce14     StdAfx.obj
 0003:00000e18       ?atlTraceGeneral@ATL@@3V?$CTraceCategoryEx@$00$0A@@1@A 1003ce18     StdAfx.obj
 0003:00000e1c       ?atlTraceCOM@ATL@@3V?$CTraceCategoryEx@$01$0A@@1@A 1003ce1c     StdAfx.obj
 0003:00000e20       ?atlTraceQI@ATL@@3V?$CTraceCategoryEx@$03$0A@@1@A 1003ce20     StdAfx.obj
 0003:00000e24       ?atlTraceRegistrar@ATL@@3V?$CTraceCategoryEx@$07$0A@@1@A 1003ce24     StdAfx.obj
 0003:00000e28       ?atlTraceRefcount@ATL@@3V?$CTraceCategoryEx@$0BA@$0A@@1@A 1003ce28     StdAfx.obj
 0003:00000e2c       ?atlTraceWindowing@ATL@@3V?$CTraceCategoryEx@$0CA@$0A@@1@A 1003ce2c     StdAfx.obj
 0003:00000e30       ?atlTraceControls@ATL@@3V?$CTraceCategoryEx@$0EA@$0A@@1@A 1003ce30     StdAfx.obj
 0003:00000e34       ?atlTraceHosting@ATL@@3V?$CTraceCategoryEx@$0IA@$0A@@1@A 1003ce34     StdAfx.obj
 0003:00000e38       ?atlTraceDBClient@ATL@@3V?$CTraceCategoryEx@$0BAA@$0A@@1@A 1003ce38     StdAfx.obj
 0003:00000e3c       ?atlTraceDBProvider@ATL@@3V?$CTraceCategoryEx@$0CAA@$0A@@1@A 1003ce3c     StdAfx.obj
 0003:00000e40       ?atlTraceSnapin@ATL@@3V?$CTraceCategoryEx@$0EAA@$0A@@1@A 1003ce40     StdAfx.obj
 0003:00000e44       ?atlTraceNotImpl@ATL@@3V?$CTraceCategoryEx@$0IAA@$0A@@1@A 1003ce44     StdAfx.obj
 0003:00000e48       ?atlTraceAllocation@ATL@@3V?$CTraceCategoryEx@$0BAAA@$0A@@1@A 1003ce48     StdAfx.obj
 0003:00000e4c       ?atlTraceException@ATL@@3V?$CTraceCategoryEx@$0CAAA@$0A@@1@A 1003ce4c     StdAfx.obj
 0003:00000e50       ?atlTraceTime@ATL@@3V?$CTraceCategoryEx@$0EAAA@$0A@@1@A 1003ce50     StdAfx.obj
 0003:00000e54       ?atlTraceCache@ATL@@3V?$CTraceCategoryEx@$0IAAA@$0A@@1@A 1003ce54     StdAfx.obj
 0003:00000e58       ?atlTraceStencil@ATL@@3V?$CTraceCategoryEx@$0BAAAA@$0A@@1@A 1003ce58     StdAfx.obj
 0003:00000e5c       ?atlTraceString@ATL@@3V?$CTraceCategoryEx@$0CAAAA@$0A@@1@A 1003ce5c     StdAfx.obj
 0003:00000e60       ?atlTraceMap@ATL@@3V?$CTraceCategoryEx@$0EAAAA@$0A@@1@A 1003ce60     StdAfx.obj
 0003:00000e64       ?atlTraceUtil@ATL@@3V?$CTraceCategoryEx@$0IAAAA@$0A@@1@A 1003ce64     StdAfx.obj
 0003:00000e68       ?atlTraceSecurity@ATL@@3V?$CTraceCategoryEx@$0BAAAAA@$0A@@1@A 1003ce68     StdAfx.obj
 0003:00000e6c       ?atlTraceSync@ATL@@3V?$CTraceCategoryEx@$0CAAAAA@$0A@@1@A 1003ce6c     StdAfx.obj
 0003:00000e70       ?atlTraceISAPI@ATL@@3V?$CTraceCategoryEx@$0EAAAAA@$0A@@1@A 1003ce70     StdAfx.obj
 0003:00000e74       ?isInitialized@CAtlStringMgr@ATL@@0_NA 1003ce74     StdAfx.obj
 0003:00000e75       ?InitializeCAtlStringMgr@ATLImplementationDetails@ATL@@3UCAtlStringMgrStaticInitializer@12@A 1003ce75     StdAfx.obj
 0003:00000ef0       ___@@_PchSym_@00@UtrgUhixUrypUrypPwiumUKxwwiumRxhUPlyqUvcxlmgiloUhgwzucOlyq@4B2008FD98C1DD4 1003cef0     ExControl:StdAfx.obj
 0003:00000f2c       _IsolationAwarePrivateT_SqbjaYRiRY 1003cf2c     mfcs140:nolib.obj
 0003:00000f30       _IsolationAwarePrivateT_SAbnPgpgk 1003cf30     mfcs140:nolib.obj
 0003:00000f34       _WinbaseIsolationAwarePrivateT_SpeRNgRQnPgpgk 1003cf34     mfcs140:nolib.obj
 0003:00000f38       _WinbaseIsolationAwarePrivateT_SpYRNahcpNYYRQ 1003cf38     mfcs140:nolib.obj
 0003:00000f3c       __afxForceEXCLUDE          1003cf3c     mfcs140:nolib.obj
 0003:00000f40       ?s_pfn@?1??IsolationAwareCreateActCtxW@@9@4@4P6GPAXPBUtagACTCTXW@@@ZA 1003cf40     mfcs140:nolib.obj
 0003:00000f44       ?s_pfn@?1??IsolationAwareActivateActCtx@@9@8@4P6GHPAXPAK@ZA 1003cf44     mfcs140:nolib.obj
 0003:00000f48       ?s_pfn@?1??IsolationAwareDeactivateActCtx@@9@8@4P6GHKK@ZA 1003cf48     mfcs140:nolib.obj
 0003:00000f4c       ?s_pfn@?1??IsolationAwareFindActCtxSectionStringW@@9@20@4P6GHKPBU_GUID@@KPB_WPAUtagACTCTX_SECTION_KEYED_DATA@@@ZA 1003cf4c     mfcs140:nolib.obj
 0003:00000f50       ?s_pfn@?1??IsolationAwareQueryActCtxW@@9@28@4P6GHKPAX0K0KPAK@ZA 1003cf50     mfcs140:nolib.obj
 0003:00000f54       ?m@?1??WinbaseIsolationAwarePrivatetRgCebPnQQeRff_xReaRYQP_QYY@@9@4@4UIsolationAwarePrivate_zHGnoyr_zBqHyr_vAsB@@A 1003cf54     mfcs140:nolib.obj
 0003:00000f58       ??_B?1??GetInstance@CAtlStringMgr@ATL@@SAPAUIAtlStringMgr@2@XZ@51 1003cf58     mfcs140:nolib.obj
 0003:00000f60       __afxForceUSRDLL           1003cf60     mfcs140:dllmodul.obj
 0003:00001018       ?__mixedModuleStartup@@3HA 1003d018     mfcs140:dllmodul.obj
 0003:0000101c       __afxForceSTDAFX           1003d01c     mfcs140:stdafx.obj
 0003:00001020       ___scrt_current_native_startup_state 1003d020     msvcrt:utility.obj
 0003:00001024       ___scrt_native_startup_lock 1003d024     msvcrt:utility.obj
 0003:0000106c       __tls_index                1003d06c     msvcrt:tlssup.obj
 0003:00001074       ___castguard_check_failure_os_handled_fptr 1003d074     msvcrt:guard_support.obj
 0003:00001394       ___isa_available           1003d394     msvcrt:cpu_disp.obj
 0003:00001398       ___favor                   1003d398     msvcrt:cpu_disp.obj
 0003:0000139c       ___scrt_debugger_hook_flag 1003d39c     msvcrt:utility_desktop.obj
 0003:000013a0       ?__type_info_root_node@@3U__type_info_node@@A 1003d3a0     msvcrt:tncleanup.obj
 0003:000013a8       ?_AtlBaseModule@ATL@@3VCAtlBaseModule@1@A 1003d3a8     atls:atlbase.obj
 0003:000013e0       ___@@_PchSym_@00@UzUPdlipUBUhUrmgvinvwrzgvUexgllohUzgohOmzgrevkilqPBACIAJCBDBUlyqiUcIGUhgwzucOlyq@4B2008FD98C1DD4 1003d3e0     atls:stdafx.obj
 0003:000013e4       ___dyn_tls_init_callback   1003d3e4     <common>

 entry point at        0001:0002600a

 Static symbols

 0000:fffb2000       .debug$S                   10000000     STConfigureDlg.exp
 0002:fffd3000       __catchsym$??1CGdiObject@@UAE@XZ$3 10000000     ColorButton.obj
 0001:fffff000       __unwindfunclet$??1CGdiObject@@UAE@XZ$2 10000000 f   ColorButton.obj
 0002:fffd3000       __catchsym$??1CGdiObject@@UAE@XZ$3 10000000     Conversion.obj
 0001:fffff000       __unwindfunclet$??1CGdiObject@@UAE@XZ$2 10000000 f   Conversion.obj
 0002:fffd3000       __catchsym$??1CGdiObject@@UAE@XZ$3 10000000     DlgRunMain.obj
 0001:fffff000       __unwindfunclet$??1CGdiObject@@UAE@XZ$2 10000000 f   DlgRunMain.obj
 0002:fffd3000       __catchsym$??1CGdiObject@@UAE@XZ$3 10000000     DlgSTOption.obj
 0001:fffff000       __unwindfunclet$??1CGdiObject@@UAE@XZ$2 10000000 f   DlgSTOption.obj
 0002:fffd3000       __catchsym$??1CGdiObject@@UAE@XZ$3 10000000     STConfigureDlg.obj
 0001:fffff000       __unwindfunclet$??1CGdiObject@@UAE@XZ$2 10000000 f   STConfigureDlg.obj
 0002:fffd3000       __ehfuncinfo$??0CSTConfigEnv_Setup@@QAE@XZ 10000000     TabRunJumun.obj
 0002:fffd3000       __ehfuncinfo$?LoadInfo@CSTConfigEnv_Jumun@@QAEXPBD@Z 10000000     TabRunJumun.obj
 0001:fffff000       __unwindfunclet$??0CSTConfigEnv_Clear@@QAE@XZ$0 10000000 f   TabRunJumun.obj
 0001:fffff000       __unwindfunclet$??0CSTConfigEnv_Setup@@QAE@XZ$0 10000000 f   TabRunJumun.obj
 0001:fffff000       __unwindfunclet$??0CSTConfigEnv_Signal@@QAE@XZ$0 10000000 f   TabRunJumun.obj
 0001:fffff000       __unwindfunclet$?LoadInfo@CSTConfigEnv@@QAEXPBD0H@Z$1 10000000 f   TabRunJumun.obj
 0001:fffff000       __unwindfunclet$?LoadInfo@CSTConfigEnv_Clear@@QAEXPBD@Z$0 10000000 f   TabRunJumun.obj
 0001:fffff000       __unwindfunclet$?LoadInfo@CSTConfigEnv_Jumun@@QAEXPBD@Z$0 10000000 f   TabRunJumun.obj
 0001:fffff000       __unwindfunclet$?LoadInfo@CSTConfigEnv_Setup@@QAEXPBD@Z$0 10000000 f   TabRunJumun.obj
 0001:fffff000       __unwindfunclet$?LoadInfo@CSTConfigEnv_Signal@@QAEXPBD@Z$0 10000000 f   TabRunJumun.obj
 0002:fffd3000       __unwindtable$??0CSTConfigEnv_Clear@@QAE@XZ 10000000     TabRunJumun.obj
 0002:fffd3000       __unwindtable$??0CSTConfigEnv_Signal@@QAE@XZ 10000000     TabRunJumun.obj
 0002:fffd3000       __unwindtable$?LoadInfo@CSTConfigEnv@@QAEXPBD0H@Z 10000000     TabRunJumun.obj
 0002:fffd3000       __unwindtable$?LoadInfo@CSTConfigEnv_Clear@@QAEXPBD@Z 10000000     TabRunJumun.obj
 0002:fffd3000       __unwindtable$?LoadInfo@CSTConfigEnv_Setup@@QAEXPBD@Z 10000000     TabRunJumun.obj
 0002:fffd3000       __unwindtable$?LoadInfo@CSTConfigEnv_Signal@@QAEXPBD@Z 10000000     TabRunJumun.obj
 0002:fffd3000       __ehfuncinfo$??0CSTConfigEnv_Setup@@QAE@XZ 10000000     TabRunSetup.obj
 0002:fffd3000       __ehfuncinfo$?LoadInfo@CSTConfigEnv_Jumun@@QAEXPBD@Z 10000000     TabRunSetup.obj
 0001:fffff000       __unwindfunclet$??0CSTConfigEnv_Clear@@QAE@XZ$0 10000000 f   TabRunSetup.obj
 0001:fffff000       __unwindfunclet$??0CSTConfigEnv_Setup@@QAE@XZ$0 10000000 f   TabRunSetup.obj
 0001:fffff000       __unwindfunclet$??0CSTConfigEnv_Signal@@QAE@XZ$0 10000000 f   TabRunSetup.obj
 0001:fffff000       __unwindfunclet$?LoadInfo@CSTConfigEnv@@QAEXPBD0H@Z$1 10000000 f   TabRunSetup.obj
 0001:fffff000       __unwindfunclet$?LoadInfo@CSTConfigEnv_Clear@@QAEXPBD@Z$0 10000000 f   TabRunSetup.obj
 0001:fffff000       __unwindfunclet$?LoadInfo@CSTConfigEnv_Jumun@@QAEXPBD@Z$0 10000000 f   TabRunSetup.obj
 0001:fffff000       __unwindfunclet$?LoadInfo@CSTConfigEnv_Setup@@QAEXPBD@Z$0 10000000 f   TabRunSetup.obj
 0001:fffff000       __unwindfunclet$?LoadInfo@CSTConfigEnv_Signal@@QAEXPBD@Z$0 10000000 f   TabRunSetup.obj
 0002:fffd3000       __unwindtable$??0CSTConfigEnv_Clear@@QAE@XZ 10000000     TabRunSetup.obj
 0002:fffd3000       __unwindtable$??0CSTConfigEnv_Signal@@QAE@XZ 10000000     TabRunSetup.obj
 0002:fffd3000       __unwindtable$?LoadInfo@CSTConfigEnv@@QAEXPBD0H@Z 10000000     TabRunSetup.obj
 0002:fffd3000       __unwindtable$?LoadInfo@CSTConfigEnv_Clear@@QAEXPBD@Z 10000000     TabRunSetup.obj
 0002:fffd3000       __unwindtable$?LoadInfo@CSTConfigEnv_Setup@@QAEXPBD@Z 10000000     TabRunSetup.obj
 0002:fffd3000       __unwindtable$?LoadInfo@CSTConfigEnv_Signal@@QAEXPBD@Z 10000000     TabRunSetup.obj
 0002:fffd3000       __ehfuncinfo$??0CSTConfigEnv_Setup@@QAE@XZ 10000000     TabRunSignal.obj
 0002:fffd3000       __ehfuncinfo$?LoadInfo@CSTConfigEnv_Jumun@@QAEXPBD@Z 10000000     TabRunSignal.obj
 0001:fffff000       __unwindfunclet$??0CSTConfigEnv_Clear@@QAE@XZ$0 10000000 f   TabRunSignal.obj
 0001:fffff000       __unwindfunclet$??0CSTConfigEnv_Setup@@QAE@XZ$0 10000000 f   TabRunSignal.obj
 0001:fffff000       __unwindfunclet$??0CSTConfigEnv_Signal@@QAE@XZ$0 10000000 f   TabRunSignal.obj
 0001:fffff000       __unwindfunclet$?LoadInfo@CSTConfigEnv@@QAEXPBD0H@Z$1 10000000 f   TabRunSignal.obj
 0001:fffff000       __unwindfunclet$?LoadInfo@CSTConfigEnv_Clear@@QAEXPBD@Z$0 10000000 f   TabRunSignal.obj
 0001:fffff000       __unwindfunclet$?LoadInfo@CSTConfigEnv_Jumun@@QAEXPBD@Z$0 10000000 f   TabRunSignal.obj
 0001:fffff000       __unwindfunclet$?LoadInfo@CSTConfigEnv_Setup@@QAEXPBD@Z$0 10000000 f   TabRunSignal.obj
 0001:fffff000       __unwindfunclet$?LoadInfo@CSTConfigEnv_Signal@@QAEXPBD@Z$0 10000000 f   TabRunSignal.obj
 0002:fffd3000       __unwindtable$??0CSTConfigEnv_Clear@@QAE@XZ 10000000     TabRunSignal.obj
 0002:fffd3000       __unwindtable$??0CSTConfigEnv_Signal@@QAE@XZ 10000000     TabRunSignal.obj
 0002:fffd3000       __unwindtable$?LoadInfo@CSTConfigEnv@@QAEXPBD0H@Z 10000000     TabRunSignal.obj
 0002:fffd3000       __unwindtable$?LoadInfo@CSTConfigEnv_Clear@@QAEXPBD@Z 10000000     TabRunSignal.obj
 0002:fffd3000       __unwindtable$?LoadInfo@CSTConfigEnv_Setup@@QAEXPBD@Z 10000000     TabRunSignal.obj
 0002:fffd3000       __unwindtable$?LoadInfo@CSTConfigEnv_Signal@@QAEXPBD@Z 10000000     TabRunSignal.obj
 0002:fffd3000       __catchsym$??1CGdiObject@@UAE@XZ$3 10000000     XHeaderCtrl.obj
 0001:fffff000       __unwindfunclet$??1CGdiObject@@UAE@XZ$2 10000000 f   XHeaderCtrl.obj
 0002:fffd3000       __catchsym$??1CGdiObject@@UAE@XZ$3 10000000     XListCtrl.obj
 0001:fffff000       __unwindfunclet$??1CGdiObject@@UAE@XZ$2 10000000 f   XListCtrl.obj
 0002:fffd3000       __catchsym$??1CGdiObject@@UAE@XZ$3 10000000     XTabCtrl.obj
 0001:fffff000       __unwindfunclet$??1CGdiObject@@UAE@XZ$2 10000000 f   XTabCtrl.obj
 0002:fffd3000       __catchsym$??1CGdiObject@@UAE@XZ$3 10000000     xSkinButton.obj
 0001:fffff000       __unwindfunclet$??1CGdiObject@@UAE@XZ$2 10000000 f   xSkinButton.obj
 0002:fffd3000       ??isInitialized$initializer$@CAtlStringMgr@ATL@@0P6AXXZA@@3P6AXXZA 10000000     ExControl:StdAfx.obj
 0002:fffd3000       ?InitializeCAtlStringMgr$initializer$@ATLImplementationDetails@ATL@@3P6AXXZA 10000000     ExControl:StdAfx.obj
 0002:fffd3000       ?_AtlComModule$initializer$@ATL@@3P6AXXZA 10000000     ExControl:StdAfx.obj
 0002:fffd3000       ?_AtlWinModule$initializer$@ATL@@3P6AXXZA 10000000     ExControl:StdAfx.obj
 0002:fffd3000       __guard_fids_??__E_AtlBaseModule@ATL@@YAXXZ 10000000     atls:atlbase.obj
 0002:fffd3000       __guard_fids__             10000000     atls:atlbase.obj
 0000:fffb2000       .debug$S                   10000000     mfc140:mfc140.dll
 0000:fffb2000       .debug$S                   10000000     mfc140:mfc140.dll
 0000:fffb2000       .debug$S                   10000000     mfc140:mfc140.dll
 0000:fffb2000       .debug$S                   10000000     mfc140:mfc140.dll
 0000:fffb2000       .debug$S                   10000000     mfc140:mfc140.dll
 0000:fffb2000       .debug$S                   10000000     mfc140:mfc140.dll
 0000:fffb2000       .debug$S                   10000000     mfc140:mfc140.dll
 0000:fffb2000       .debug$S                   10000000     mfc140:mfc140.dll
 0000:fffb2000       .debug$S                   10000000     mfc140:mfc140.dll
 0000:fffb2000       .debug$S                   10000000     mfc140:mfc140.dll
 0000:fffb2000       .debug$S                   10000000     mfc140:mfc140.dll
 0000:fffb2000       .debug$S                   10000000     mfc140:mfc140.dll
 0000:fffb2000       .debug$S                   10000000     mfc140:mfc140.dll
 0000:fffb2000       .debug$S                   10000000     mfc140:mfc140.dll
 0000:fffb2000       .debug$S                   10000000     mfc140:mfc140.dll
 0000:fffb2000       .debug$S                   10000000     mfc140:mfc140.dll
 0000:fffb2000       .debug$S                   10000000     mfc140:mfc140.dll
 0000:fffb2000       .debug$S                   10000000     mfc140:mfc140.dll
 0000:fffb2000       .debug$S                   10000000     mfc140:mfc140.dll
 0000:fffb2000       .debug$S                   10000000     mfc140:mfc140.dll
 0000:fffb2000       .debug$S                   10000000     mfc140:mfc140.dll
 0000:fffb2000       .debug$S                   10000000     mfc140:mfc140.dll
 0000:fffb2000       .debug$S                   10000000     mfc140:mfc140.dll
 0000:fffb2000       .debug$S                   10000000     mfc140:mfc140.dll
 0000:fffb2000       .debug$S                   10000000     mfc140:mfc140.dll
 0000:fffb2000       .debug$S                   10000000     mfc140:mfc140.dll
 0000:fffb2000       .debug$S                   10000000     mfc140:mfc140.dll
 0000:fffb2000       .debug$S                   10000000     mfc140:mfc140.dll
 0000:fffb2000       .debug$S                   10000000     mfc140:mfc140.dll
 0000:fffb2000       .debug$S                   10000000     mfc140:mfc140.dll
 0000:fffb2000       .debug$S                   10000000     mfc140:mfc140.dll
 0000:fffb2000       .debug$S                   10000000     mfc140:mfc140.dll
 0000:fffb2000       .debug$S                   10000000     mfc140:mfc140.dll
 0000:fffb2000       .debug$S                   10000000     mfc140:mfc140.dll
 0000:fffb2000       .debug$S                   10000000     mfc140:mfc140.dll
 0000:fffb2000       .debug$S                   10000000     mfc140:mfc140.dll
 0000:fffb2000       .debug$S                   10000000     mfc140:mfc140.dll
 0000:fffb2000       .debug$S                   10000000     mfc140:mfc140.dll
 0000:fffb2000       .debug$S                   10000000     mfc140:mfc140.dll
 0000:fffb2000       .debug$S                   10000000     mfc140:mfc140.dll
 0000:fffb2000       .debug$S                   10000000     mfc140:mfc140.dll
 0000:fffb2000       .debug$S                   10000000     mfc140:mfc140.dll
 0000:fffb2000       .debug$S                   10000000     mfc140:mfc140.dll
 0000:fffb2000       .debug$S                   10000000     mfc140:mfc140.dll
 0000:fffb2000       .debug$S                   10000000     mfc140:mfc140.dll
 0000:fffb2000       .debug$S                   10000000     mfc140:mfc140.dll
 0000:fffb2000       .debug$S                   10000000     mfc140:mfc140.dll
 0000:fffb2000       .debug$S                   10000000     mfc140:mfc140.dll
 0000:fffb2000       .debug$S                   10000000     mfc140:mfc140.dll
 0000:fffb2000       .debug$S                   10000000     mfc140:mfc140.dll
 0000:fffb2000       .debug$S                   10000000     mfc140:mfc140.dll
 0000:fffb2000       .debug$S                   10000000     mfc140:mfc140.dll
 0000:fffb2000       .debug$S                   10000000     mfc140:mfc140.dll
 0000:fffb2000       .debug$S                   10000000     mfc140:mfc140.dll
 0000:fffb2000       .debug$S                   10000000     mfc140:mfc140.dll
 0000:fffb2000       .debug$S                   10000000     mfc140:mfc140.dll
 0000:fffb2000       .debug$S                   10000000     mfc140:mfc140.dll
 0000:fffb2000       .debug$S                   10000000     mfc140:mfc140.dll
 0000:fffb2000       .debug$S                   10000000     mfc140:mfc140.dll
 0000:fffb2000       .debug$S                   10000000     mfc140:mfc140.dll
 0000:fffb2000       .debug$S                   10000000     mfc140:mfc140.dll
 0000:fffb2000       .debug$S                   10000000     mfc140:mfc140.dll
 0000:fffb2000       .debug$S                   10000000     mfc140:mfc140.dll
 0000:fffb2000       .debug$S                   10000000     mfc140:mfc140.dll
 0000:fffb2000       .debug$S                   10000000     mfc140:mfc140.dll
 0000:fffb2000       .debug$S                   10000000     mfc140:mfc140.dll
 0000:fffb2000       .debug$S                   10000000     mfc140:mfc140.dll
 0000:fffb2000       .debug$S                   10000000     mfc140:mfc140.dll
 0000:fffb2000       .debug$S                   10000000     mfc140:mfc140.dll
 0000:fffb2000       .debug$S                   10000000     mfc140:mfc140.dll
 0000:fffb2000       .debug$S                   10000000     mfc140:mfc140.dll
 0000:fffb2000       .debug$S                   10000000     mfc140:mfc140.dll
 0000:fffb2000       .debug$S                   10000000     mfc140:mfc140.dll
 0000:fffb2000       .debug$S                   10000000     mfc140:mfc140.dll
 0000:fffb2000       .debug$S                   10000000     mfc140:mfc140.dll
 0000:fffb2000       .debug$S                   10000000     mfc140:mfc140.dll
 0000:fffb2000       .debug$S                   10000000     mfc140:mfc140.dll
 0000:fffb2000       .debug$S                   10000000     mfc140:mfc140.dll
 0000:fffb2000       .debug$S                   10000000     mfc140:mfc140.dll
 0000:fffb2000       .debug$S                   10000000     mfc140:mfc140.dll
 0000:fffb2000       .debug$S                   10000000     mfc140:mfc140.dll
 0000:fffb2000       .debug$S                   10000000     mfc140:mfc140.dll
 0000:fffb2000       .debug$S                   10000000     mfc140:mfc140.dll
 0000:fffb2000       .debug$S                   10000000     mfc140:mfc140.dll
 0000:fffb2000       .debug$S                   10000000     mfc140:mfc140.dll
 0000:fffb2000       .debug$S                   10000000     mfc140:mfc140.dll
 0000:fffb2000       .debug$S                   10000000     mfc140:mfc140.dll
 0000:fffb2000       .debug$S                   10000000     mfc140:mfc140.dll
 0000:fffb2000       .debug$S                   10000000     mfc140:mfc140.dll
 0000:fffb2000       .debug$S                   10000000     mfc140:mfc140.dll
 0000:fffb2000       .debug$S                   10000000     mfc140:mfc140.dll
 0000:fffb2000       .debug$S                   10000000     mfc140:mfc140.dll
 0000:fffb2000       .debug$S                   10000000     mfc140:mfc140.dll
 0000:fffb2000       .debug$S                   10000000     mfc140:mfc140.dll
 0000:fffb2000       .debug$S                   10000000     mfc140:mfc140.dll
 0000:fffb2000       .debug$S                   10000000     mfc140:mfc140.dll
 0000:fffb2000       .debug$S                   10000000     mfc140:mfc140.dll
 0000:fffb2000       .debug$S                   10000000     mfc140:mfc140.dll
 0000:fffb2000       .debug$S                   10000000     mfc140:mfc140.dll
 0000:fffb2000       .debug$S                   10000000     mfc140:mfc140.dll
 0000:fffb2000       .debug$S                   10000000     mfc140:mfc140.dll
 0000:fffb2000       .debug$S                   10000000     mfc140:mfc140.dll
 0000:fffb2000       .debug$S                   10000000     mfc140:mfc140.dll
 0000:fffb2000       .debug$S                   10000000     mfc140:mfc140.dll
 0000:fffb2000       .debug$S                   10000000     mfc140:mfc140.dll
 0000:fffb2000       .debug$S                   10000000     mfc140:mfc140.dll
 0000:fffb2000       .debug$S                   10000000     mfc140:mfc140.dll
 0000:fffb2000       .debug$S                   10000000     mfc140:mfc140.dll
 0000:fffb2000       .debug$S                   10000000     mfc140:mfc140.dll
 0000:fffb2000       .debug$S                   10000000     mfc140:mfc140.dll
 0000:fffb2000       .debug$S                   10000000     mfc140:mfc140.dll
 0000:fffb2000       .debug$S                   10000000     mfc140:mfc140.dll
 0000:fffb2000       .debug$S                   10000000     mfc140:mfc140.dll
 0000:fffb2000       .debug$S                   10000000     mfc140:mfc140.dll
 0000:fffb2000       .debug$S                   10000000     mfc140:mfc140.dll
 0000:fffb2000       .debug$S                   10000000     mfc140:mfc140.dll
 0000:fffb2000       .debug$S                   10000000     mfc140:mfc140.dll
 0000:fffb2000       .debug$S                   10000000     mfc140:mfc140.dll
 0000:fffb2000       .debug$S                   10000000     mfc140:mfc140.dll
 0000:fffb2000       .debug$S                   10000000     mfc140:mfc140.dll
 0000:fffb2000       .debug$S                   10000000     mfc140:mfc140.dll
 0000:fffb2000       .debug$S                   10000000     mfc140:mfc140.dll
 0000:fffb2000       .debug$S                   10000000     mfc140:mfc140.dll
 0000:fffb2000       .debug$S                   10000000     mfc140:mfc140.dll
 0000:fffb2000       .debug$S                   10000000     mfc140:mfc140.dll
 0000:fffb2000       .debug$S                   10000000     mfc140:mfc140.dll
 0000:fffb2000       .debug$S                   10000000     mfc140:mfc140.dll
 0000:fffb2000       .debug$S                   10000000     mfc140:mfc140.dll
 0000:fffb2000       .debug$S                   10000000     mfc140:mfc140.dll
 0000:fffb2000       .debug$S                   10000000     mfc140:mfc140.dll
 0000:fffb2000       .debug$S                   10000000     mfc140:mfc140.dll
 0000:fffb2000       .debug$S                   10000000     mfc140:mfc140.dll
 0000:fffb2000       .debug$S                   10000000     mfc140:mfc140.dll
 0000:fffb2000       .debug$S                   10000000     mfc140:mfc140.dll
 0000:fffb2000       .debug$S                   10000000     mfc140:mfc140.dll
 0000:fffb2000       .debug$S                   10000000     mfc140:mfc140.dll
 0000:fffb2000       .debug$S                   10000000     mfc140:mfc140.dll
 0000:fffb2000       .debug$S                   10000000     mfc140:mfc140.dll
 0000:fffb2000       .debug$S                   10000000     mfc140:mfc140.dll
 0000:fffb2000       .debug$S                   10000000     mfc140:mfc140.dll
 0000:fffb2000       .debug$S                   10000000     mfc140:mfc140.dll
 0000:fffb2000       .debug$S                   10000000     mfc140:mfc140.dll
 0000:fffb2000       .debug$S                   10000000     mfc140:mfc140.dll
 0000:fffb2000       .debug$S                   10000000     mfc140:mfc140.dll
 0000:fffb2000       .debug$S                   10000000     mfc140:mfc140.dll
 0000:fffb2000       .debug$S                   10000000     mfc140:mfc140.dll
 0000:fffb2000       .debug$S                   10000000     mfc140:mfc140.dll
 0000:fffb2000       .debug$S                   10000000     mfc140:mfc140.dll
 0000:fffb2000       .debug$S                   10000000     mfc140:mfc140.dll
 0000:fffb2000       .debug$S                   10000000     mfc140:mfc140.dll
 0000:fffb2000       .debug$S                   10000000     mfc140:mfc140.dll
 0000:fffb2000       .debug$S                   10000000     mfc140:mfc140.dll
 0000:fffb2000       .debug$S                   10000000     mfc140:mfc140.dll
 0000:fffb2000       .debug$S                   10000000     mfc140:mfc140.dll
 0000:fffb2000       .debug$S                   10000000     mfc140:mfc140.dll
 0000:fffb2000       .debug$S                   10000000     mfc140:mfc140.dll
 0000:fffb2000       .debug$S                   10000000     mfc140:mfc140.dll
 0000:fffb2000       .debug$S                   10000000     mfc140:mfc140.dll
 0000:fffb2000       .debug$S                   10000000     mfc140:mfc140.dll
 0000:fffb2000       .debug$S                   10000000     mfc140:mfc140.dll
 0000:fffb2000       .debug$S                   10000000     mfc140:mfc140.dll
 0000:fffb2000       .debug$S                   10000000     mfc140:mfc140.dll
 0000:fffb2000       .debug$S                   10000000     mfc140:mfc140.dll
 0000:fffb2000       .debug$S                   10000000     mfc140:mfc140.dll
 0000:fffb2000       .debug$S                   10000000     mfc140:mfc140.dll
 0000:fffb2000       .debug$S                   10000000     mfc140:mfc140.dll
 0000:fffb2000       .debug$S                   10000000     mfc140:mfc140.dll
 0000:fffb2000       .debug$S                   10000000     mfc140:mfc140.dll
 0000:fffb2000       .debug$S                   10000000     mfc140:mfc140.dll
 0000:fffb2000       .debug$S                   10000000     mfc140:mfc140.dll
 0000:fffb2000       .debug$S                   10000000     mfc140:mfc140.dll
 0000:fffb2000       .debug$S                   10000000     mfc140:mfc140.dll
 0000:fffb2000       .debug$S                   10000000     mfc140:mfc140.dll
 0000:fffb2000       .debug$S                   10000000     mfc140:mfc140.dll
 0000:fffb2000       .debug$S                   10000000     mfc140:mfc140.dll
 0000:fffb2000       .debug$S                   10000000     mfc140:mfc140.dll
 0000:fffb2000       .debug$S                   10000000     mfc140:mfc140.dll
 0000:fffb2000       .debug$S                   10000000     mfc140:mfc140.dll
 0000:fffb2000       .debug$S                   10000000     mfc140:mfc140.dll
 0000:fffb2000       .debug$S                   10000000     mfc140:mfc140.dll
 0000:fffb2000       .debug$S                   10000000     mfc140:mfc140.dll
 0000:fffb2000       .debug$S                   10000000     mfc140:mfc140.dll
 0000:fffb2000       .debug$S                   10000000     mfc140:mfc140.dll
 0000:fffb2000       .debug$S                   10000000     mfc140:mfc140.dll
 0000:fffb2000       .debug$S                   10000000     mfc140:mfc140.dll
 0000:fffb2000       .debug$S                   10000000     mfc140:mfc140.dll
 0000:fffb2000       .debug$S                   10000000     mfc140:mfc140.dll
 0000:fffb2000       .debug$S                   10000000     mfc140:mfc140.dll
 0000:fffb2000       .debug$S                   10000000     mfc140:mfc140.dll
 0000:fffb2000       .debug$S                   10000000     mfc140:mfc140.dll
 0000:fffb2000       .debug$S                   10000000     mfc140:mfc140.dll
 0000:fffb2000       .debug$S                   10000000     mfc140:mfc140.dll
 0000:fffb2000       .debug$S                   10000000     mfc140:mfc140.dll
 0000:fffb2000       .debug$S                   10000000     mfc140:mfc140.dll
 0000:fffb2000       .debug$S                   10000000     mfc140:mfc140.dll
 0000:fffb2000       .debug$S                   10000000     mfc140:mfc140.dll
 0000:fffb2000       .debug$S                   10000000     mfc140:mfc140.dll
 0000:fffb2000       .debug$S                   10000000     mfc140:mfc140.dll
 0000:fffb2000       .debug$S                   10000000     mfc140:mfc140.dll
 0000:fffb2000       .debug$S                   10000000     mfc140:mfc140.dll
 0000:fffb2000       .debug$S                   10000000     mfc140:mfc140.dll
 0000:fffb2000       .debug$S                   10000000     mfc140:mfc140.dll
 0000:fffb2000       .debug$S                   10000000     mfc140:mfc140.dll
 0000:fffb2000       .debug$S                   10000000     mfc140:mfc140.dll
 0000:fffb2000       .debug$S                   10000000     mfc140:mfc140.dll
 0000:fffb2000       .debug$S                   10000000     mfc140:mfc140.dll
 0000:fffb2000       .debug$S                   10000000     mfc140:mfc140.dll
 0000:fffb2000       .debug$S                   10000000     mfc140:mfc140.dll
 0000:fffb2000       .debug$S                   10000000     mfc140:mfc140.dll
 0000:fffb2000       .debug$S                   10000000     mfc140:mfc140.dll
 0000:fffb2000       .debug$S                   10000000     mfc140:mfc140.dll
 0000:fffb2000       .debug$S                   10000000     mfc140:mfc140.dll
 0000:fffb2000       .debug$S                   10000000     mfc140:mfc140.dll
 0000:fffb2000       .debug$S                   10000000     mfc140:mfc140.dll
 0000:fffb2000       .debug$S                   10000000     mfc140:mfc140.dll
 0000:fffb2000       .debug$S                   10000000     mfc140:mfc140.dll
 0000:fffb2000       .debug$S                   10000000     mfc140:mfc140.dll
 0000:fffb2000       .debug$S                   10000000     mfc140:mfc140.dll
 0000:fffb2000       .debug$S                   10000000     mfc140:mfc140.dll
 0000:fffb2000       .debug$S                   10000000     mfc140:mfc140.dll
 0000:fffb2000       .debug$S                   10000000     mfc140:mfc140.dll
 0000:fffb2000       .debug$S                   10000000     mfc140:mfc140.dll
 0000:fffb2000       .debug$S                   10000000     mfc140:mfc140.dll
 0000:fffb2000       .debug$S                   10000000     mfc140:mfc140.dll
 0000:fffb2000       .debug$S                   10000000     mfc140:mfc140.dll
 0000:fffb2000       .debug$S                   10000000     mfc140:mfc140.dll
 0000:fffb2000       .debug$S                   10000000     mfc140:mfc140.dll
 0000:fffb2000       .debug$S                   10000000     mfc140:mfc140.dll
 0000:fffb2000       .debug$S                   10000000     mfc140:mfc140.dll
 0000:fffb2000       .debug$S                   10000000     mfc140:mfc140.dll
 0000:fffb2000       .debug$S                   10000000     mfc140:mfc140.dll
 0000:fffb2000       .debug$S                   10000000     mfc140:mfc140.dll
 0000:fffb2000       .debug$S                   10000000     mfc140:mfc140.dll
 0000:fffb2000       .debug$S                   10000000     mfc140:mfc140.dll
 0000:fffb2000       .debug$S                   10000000     mfc140:mfc140.dll
 0000:fffb2000       .debug$S                   10000000     mfc140:mfc140.dll
 0000:fffb2000       .debug$S                   10000000     mfc140:mfc140.dll
 0000:fffb2000       .debug$S                   10000000     mfc140:mfc140.dll
 0000:fffb2000       .debug$S                   10000000     mfc140:mfc140.dll
 0000:fffb2000       .debug$S                   10000000     mfc140:mfc140.dll
 0000:fffb2000       .debug$S                   10000000     mfc140:mfc140.dll
 0000:fffb2000       .debug$S                   10000000     mfc140:mfc140.dll
 0000:fffb2000       .debug$S                   10000000     mfc140:mfc140.dll
 0000:fffb2000       .debug$S                   10000000     mfc140:mfc140.dll
 0000:fffb2000       .debug$S                   10000000     mfc140:mfc140.dll
 0000:fffb2000       .debug$S                   10000000     mfc140:mfc140.dll
 0000:fffb2000       .debug$S                   10000000     mfc140:mfc140.dll
 0000:fffb2000       .debug$S                   10000000     mfc140:mfc140.dll
 0000:fffb2000       .debug$S                   10000000     mfc140:mfc140.dll
 0000:fffb2000       .debug$S                   10000000     mfc140:mfc140.dll
 0000:fffb2000       .debug$S                   10000000     mfc140:mfc140.dll
 0000:fffb2000       .debug$S                   10000000     mfc140:mfc140.dll
 0000:fffb2000       .debug$S                   10000000     mfc140:mfc140.dll
 0000:fffb2000       .debug$S                   10000000     mfc140:mfc140.dll
 0000:fffb2000       .debug$S                   10000000     mfc140:mfc140.dll
 0000:fffb2000       .debug$S                   10000000     mfc140:mfc140.dll
 0000:fffb2000       .debug$S                   10000000     mfc140:mfc140.dll
 0000:fffb2000       .debug$S                   10000000     mfc140:mfc140.dll
 0000:fffb2000       .debug$S                   10000000     mfc140:mfc140.dll
 0000:fffb2000       .debug$S                   10000000     mfc140:mfc140.dll
 0000:fffb2000       .debug$S                   10000000     mfc140:mfc140.dll
 0000:fffb2000       .debug$S                   10000000     mfc140:mfc140.dll
 0000:fffb2000       .debug$S                   10000000     mfc140:mfc140.dll
 0000:fffb2000       .debug$S                   10000000     mfc140:mfc140.dll
 0000:fffb2000       .debug$S                   10000000     mfc140:mfc140.dll
 0000:fffb2000       .debug$S                   10000000     mfc140:mfc140.dll
 0000:fffb2000       .debug$S                   10000000     mfc140:mfc140.dll
 0000:fffb2000       .debug$S                   10000000     mfc140:mfc140.dll
 0000:fffb2000       .debug$S                   10000000     mfc140:mfc140.dll
 0000:fffb2000       .debug$S                   10000000     mfc140:mfc140.dll
 0000:fffb2000       .debug$S                   10000000     mfc140:mfc140.dll
 0000:fffb2000       .debug$S                   10000000     mfc140:mfc140.dll
 0000:fffb2000       .debug$S                   10000000     mfc140:mfc140.dll
 0000:fffb2000       .debug$S                   10000000     mfc140:mfc140.dll
 0000:fffb2000       .debug$S                   10000000     mfc140:mfc140.dll
 0000:fffb2000       .debug$S                   10000000     mfc140:mfc140.dll
 0000:fffb2000       .debug$S                   10000000     mfc140:mfc140.dll
 0000:fffb2000       .debug$S                   10000000     mfc140:mfc140.dll
 0000:fffb2000       .debug$S                   10000000     mfc140:mfc140.dll
 0000:fffb2000       .debug$S                   10000000     mfc140:mfc140.dll
 0000:fffb2000       .debug$S                   10000000     mfc140:mfc140.dll
 0000:fffb2000       .debug$S                   10000000     mfc140:mfc140.dll
 0000:fffb2000       .debug$S                   10000000     mfc140:mfc140.dll
 0000:fffb2000       .debug$S                   10000000     mfc140:mfc140.dll
 0000:fffb2000       .debug$S                   10000000     mfc140:mfc140.dll
 0000:fffb2000       .debug$S                   10000000     mfc140:mfc140.dll
 0000:fffb2000       .debug$S                   10000000     mfc140:mfc140.dll
 0000:fffb2000       .debug$S                   10000000     mfc140:mfc140.dll
 0000:fffb2000       .debug$S                   10000000     mfc140:mfc140.dll
 0000:fffb2000       .debug$S                   10000000     mfc140:mfc140.dll
 0000:fffb2000       .debug$S                   10000000     mfc140:mfc140.dll
 0000:fffb2000       .debug$S                   10000000     mfc140:mfc140.dll
 0000:fffb2000       .debug$S                   10000000     mfc140:mfc140.dll
 0000:fffb2000       .debug$S                   10000000     mfc140:mfc140.dll
 0000:fffb2000       .debug$S                   10000000     mfc140:mfc140.dll
 0000:fffb2000       .debug$S                   10000000     mfc140:mfc140.dll
 0000:fffb2000       .debug$S                   10000000     mfc140:mfc140.dll
 0000:fffb2000       .debug$S                   10000000     mfc140:mfc140.dll
 0000:fffb2000       .debug$S                   10000000     mfc140:mfc140.dll
 0000:fffb2000       .debug$S                   10000000     mfc140:mfc140.dll
 0000:fffb2000       .debug$S                   10000000     mfc140:mfc140.dll
 0000:fffb2000       .debug$S                   10000000     mfc140:mfc140.dll
 0000:fffb2000       .debug$S                   10000000     mfc140:mfc140.dll
 0000:fffb2000       .debug$S                   10000000     mfc140:mfc140.dll
 0000:fffb2000       .debug$S                   10000000     mfc140:mfc140.dll
 0000:fffb2000       .debug$S                   10000000     mfc140:mfc140.dll
 0000:fffb2000       .debug$S                   10000000     mfc140:mfc140.dll
 0000:fffb2000       .debug$S                   10000000     mfc140:mfc140.dll
 0000:fffb2000       .debug$S                   10000000     mfc140:mfc140.dll
 0000:fffb2000       .debug$S                   10000000     mfc140:mfc140.dll
 0000:fffb2000       .debug$S                   10000000     mfc140:mfc140.dll
 0000:fffb2000       .debug$S                   10000000     mfc140:mfc140.dll
 0000:fffb2000       .debug$S                   10000000     mfc140:mfc140.dll
 0000:fffb2000       .debug$S                   10000000     mfc140:mfc140.dll
 0000:fffb2000       .debug$S                   10000000     mfc140:mfc140.dll
 0000:fffb2000       .debug$S                   10000000     mfc140:mfc140.dll
 0000:fffb2000       .debug$S                   10000000     mfc140:mfc140.dll
 0000:fffb2000       .debug$S                   10000000     mfc140:mfc140.dll
 0000:fffb2000       .debug$S                   10000000     mfc140:mfc140.dll
 0000:fffb2000       .debug$S                   10000000     mfc140:mfc140.dll
 0000:fffb2000       .debug$S                   10000000     mfc140:mfc140.dll
 0000:fffb2000       .debug$S                   10000000     mfc140:mfc140.dll
 0000:fffb2000       .debug$S                   10000000     mfc140:mfc140.dll
 0000:fffb2000       .debug$S                   10000000     mfc140:mfc140.dll
 0000:fffb2000       .debug$S                   10000000     mfc140:mfc140.dll
 0000:fffb2000       .debug$S                   10000000     mfc140:mfc140.dll
 0000:fffb2000       .debug$S                   10000000     mfc140:mfc140.dll
 0000:fffb2000       .debug$S                   10000000     mfc140:mfc140.dll
 0000:fffb2000       .debug$S                   10000000     mfc140:mfc140.dll
 0000:fffb2000       .debug$S                   10000000     mfc140:mfc140.dll
 0000:fffb2000       .debug$S                   10000000     mfc140:mfc140.dll
 0000:fffb2000       .debug$S                   10000000     mfc140:mfc140.dll
 0000:fffb2000       .debug$S                   10000000     mfc140:mfc140.dll
 0000:fffb2000       .debug$S                   10000000     mfc140:mfc140.dll
 0000:fffb2000       .debug$S                   10000000     mfc140:mfc140.dll
 0000:fffb2000       .debug$S                   10000000     mfc140:mfc140.dll
 0000:fffb2000       .debug$S                   10000000     mfc140:mfc140.dll
 0000:fffb2000       .debug$S                   10000000     mfc140:mfc140.dll
 0000:fffb2000       .debug$S                   10000000     mfc140:mfc140.dll
 0000:fffb2000       .debug$S                   10000000     mfc140:mfc140.dll
 0000:fffb2000       .debug$S                   10000000     mfc140:mfc140.dll
 0000:fffb2000       .debug$S                   10000000     mfc140:mfc140.dll
 0000:fffb2000       .debug$S                   10000000     mfc140:mfc140.dll
 0000:fffb2000       .debug$S                   10000000     mfc140:mfc140.dll
 0000:fffb2000       .debug$S                   10000000     mfc140:mfc140.dll
 0000:fffb2000       .debug$S                   10000000     mfc140:mfc140.dll
 0000:fffb2000       .debug$S                   10000000     mfc140:mfc140.dll
 0000:fffb2000       .debug$S                   10000000     mfc140:mfc140.dll
 0000:fffb2000       .debug$S                   10000000     mfc140:mfc140.dll
 0000:fffb2000       .debug$S                   10000000     mfc140:mfc140.dll
 0000:fffb2000       .debug$S                   10000000     mfc140:mfc140.dll
 0000:fffb2000       .debug$S                   10000000     mfc140:mfc140.dll
 0000:fffb2000       .debug$S                   10000000     mfc140:mfc140.dll
 0000:fffb2000       .debug$S                   10000000     mfc140:mfc140.dll
 0000:fffb2000       .debug$S                   10000000     mfc140:mfc140.dll
 0000:fffb2000       .debug$S                   10000000     mfc140:mfc140.dll
 0000:fffb2000       .debug$S                   10000000     mfc140:mfc140.dll
 0000:fffb2000       .debug$S                   10000000     mfc140:mfc140.dll
 0000:fffb2000       .debug$S                   10000000     mfc140:mfc140.dll
 0000:fffb2000       .debug$S                   10000000     mfc140:mfc140.dll
 0000:fffb2000       .debug$S                   10000000     mfc140:mfc140.dll
 0000:fffb2000       .debug$S                   10000000     mfc140:mfc140.dll
 0000:fffb2000       .debug$S                   10000000     mfc140:mfc140.dll
 0000:fffb2000       .debug$S                   10000000     mfc140:mfc140.dll
 0000:fffb2000       .debug$S                   10000000     mfc140:mfc140.dll
 0000:fffb2000       .debug$S                   10000000     mfc140:mfc140.dll
 0000:fffb2000       .debug$S                   10000000     mfc140:mfc140.dll
 0000:fffb2000       .debug$S                   10000000     mfc140:mfc140.dll
 0000:fffb2000       .debug$S                   10000000     mfc140:mfc140.dll
 0000:fffb2000       .debug$S                   10000000     mfc140:mfc140.dll
 0000:fffb2000       .debug$S                   10000000     mfc140:mfc140.dll
 0000:fffb2000       .debug$S                   10000000     mfc140:mfc140.dll
 0000:fffb2000       .debug$S                   10000000     mfc140:mfc140.dll
 0000:fffb2000       .debug$S                   10000000     mfc140:mfc140.dll
 0000:fffb2000       .debug$S                   10000000     mfc140:mfc140.dll
 0000:fffb2000       .debug$S                   10000000     mfc140:mfc140.dll
 0000:fffb2000       .debug$S                   10000000     mfc140:mfc140.dll
 0000:fffb2000       .debug$S                   10000000     mfc140:mfc140.dll
 0000:fffb2000       .debug$S                   10000000     mfc140:mfc140.dll
 0000:fffb2000       .debug$S                   10000000     mfc140:mfc140.dll
 0000:fffb2000       .debug$S                   10000000     mfc140:mfc140.dll
 0000:fffb2000       .debug$S                   10000000     mfc140:mfc140.dll
 0000:fffb2000       .debug$S                   10000000     mfc140:mfc140.dll
 0000:fffb2000       .debug$S                   10000000     mfc140:mfc140.dll
 0000:fffb2000       .debug$S                   10000000     mfc140:mfc140.dll
 0000:fffb2000       .debug$S                   10000000     mfc140:mfc140.dll
 0000:fffb2000       .debug$S                   10000000     mfc140:mfc140.dll
 0000:fffb2000       .debug$S                   10000000     mfc140:mfc140.dll
 0000:fffb2000       .debug$S                   10000000     mfc140:mfc140.dll
 0002:fffd3000       ??isInitialized$initializer$@CAtlStringMgr@ATL@@0P6AXXZA@@3P6AXXZA 10000000     mfcs140:dllmodul.obj
 0002:fffd3000       ?InitializeCAtlStringMgr$initializer$@ATLImplementationDetails@ATL@@3P6AXXZA 10000000     mfcs140:dllmodul.obj
 0002:fffd3000       ?_AtlComModule$initializer$@ATL@@3P6AXXZA 10000000     mfcs140:dllmodul.obj
 0002:fffd3000       ?_AtlWinModule$initializer$@ATL@@3P6AXXZA 10000000     mfcs140:dllmodul.obj
 0002:fffd3000       __ehfuncinfo$??1CAtlComModule@ATL@@QAE@XZ 10000000     mfcs140:dllmodul.obj
 0002:fffd3000       __ehfuncinfo$??_Estringdispid@CComTypeInfoHolder@ATL@@QAEPAXI@Z 10000000     mfcs140:dllmodul.obj
 0001:fffff000       __ehhandler$??1CAtlComModule@ATL@@QAE@XZ 10000000 f   mfcs140:dllmodul.obj
 0001:fffff000       __ehhandler$??_Estringdispid@CComTypeInfoHolder@ATL@@QAEPAXI@Z 10000000 f   mfcs140:dllmodul.obj
 0002:fffd3000       __guard_fids_??0_AFX_DLL_MODULE_STATE@@QAE@XZ 10000000     mfcs140:dllmodul.obj
 0002:fffd3000       __guard_fids_??_Estringdispid@CComTypeInfoHolder@ATL@@QAEPAXI@Z 10000000     mfcs140:dllmodul.obj
 0002:fffd3000       __guard_fids_??__E_AtlComModule@ATL@@YAXXZ 10000000     mfcs140:dllmodul.obj
 0002:fffd3000       __guard_fids_??__E_AtlWinModule@ATL@@YAXXZ 10000000     mfcs140:dllmodul.obj
 0002:fffd3000       __guard_fids_??__EafxModuleState@@YAXXZ 10000000     mfcs140:dllmodul.obj
 0002:fffd3000       __guard_fids_?GetInstance@CAtlStringMgr@ATL@@SAPAUIAtlStringMgr@2@XZ 10000000     mfcs140:dllmodul.obj
 0002:fffd3000       __guard_fids__             10000000     mfcs140:dllmodul.obj
 0002:fffd3000       __guard_fids__             10000000     mfcs140:dllmodul.obj
 0002:fffd3000       __guard_fids__             10000000     mfcs140:dllmodul.obj
 0002:fffd3000       __guard_fids__             10000000     mfcs140:dllmodul.obj
 0002:fffd3000       __guard_fids__             10000000     mfcs140:dllmodul.obj
 0002:fffd3000       __guard_fids__             10000000     mfcs140:dllmodul.obj
 0002:fffd3000       __guard_fids__             10000000     mfcs140:dllmodul.obj
 0002:fffd3000       __guard_fids__             10000000     mfcs140:dllmodul.obj
 0002:fffd3000       __guard_fids__             10000000     mfcs140:dllmodul.obj
 0002:fffd3000       __guard_fids__             10000000     mfcs140:dllmodul.obj
 0002:fffd3000       __sehtable$_IsolationAwareUnregisterClassA@8 10000000     mfcs140:dllmodul.obj
 0002:fffd3000       __sehtable$_WinbaseIsolationAwarePrivatetRgzlnPgpgk@0 10000000     mfcs140:dllmodul.obj
 0002:fffd3000       ??isInitialized$initializer$@CAtlStringMgr@ATL@@0P6AXXZA@@3P6AXXZA 10000000     mfcs140:dllmodulx.obj
 0002:fffd3000       ?InitializeCAtlStringMgr$initializer$@ATLImplementationDetails@ATL@@3P6AXXZA 10000000     mfcs140:dllmodulx.obj
 0002:fffd3000       ?_AtlComModule$initializer$@ATL@@3P6AXXZA 10000000     mfcs140:dllmodulx.obj
 0002:fffd3000       ?_AtlWinModule$initializer$@ATL@@3P6AXXZA 10000000     mfcs140:dllmodulx.obj
 0002:fffd3000       __ehfuncinfo$??1CAtlComModule@ATL@@QAE@XZ 10000000     mfcs140:dllmodulx.obj
 0002:fffd3000       __ehfuncinfo$??_Estringdispid@CComTypeInfoHolder@ATL@@QAEPAXI@Z 10000000     mfcs140:dllmodulx.obj
 0001:fffff000       __ehhandler$??1CAtlComModule@ATL@@QAE@XZ 10000000 f   mfcs140:dllmodulx.obj
 0001:fffff000       __ehhandler$??_Estringdispid@CComTypeInfoHolder@ATL@@QAEPAXI@Z 10000000 f   mfcs140:dllmodulx.obj
 0002:fffd3000       __guard_fids_??_Estringdispid@CComTypeInfoHolder@ATL@@QAEPAXI@Z 10000000     mfcs140:dllmodulx.obj
 0002:fffd3000       __guard_fids_??__E_AtlComModule@ATL@@YAXXZ 10000000     mfcs140:dllmodulx.obj
 0002:fffd3000       __guard_fids_??__E_AtlWinModule@ATL@@YAXXZ 10000000     mfcs140:dllmodulx.obj
 0002:fffd3000       __guard_fids_?GetInstance@CAtlStringMgr@ATL@@SAPAUIAtlStringMgr@2@XZ 10000000     mfcs140:dllmodulx.obj
 0002:fffd3000       __guard_fids__             10000000     mfcs140:dllmodulx.obj
 0002:fffd3000       __guard_fids__             10000000     mfcs140:dllmodulx.obj
 0002:fffd3000       __guard_fids__             10000000     mfcs140:dllmodulx.obj
 0002:fffd3000       __guard_fids__             10000000     mfcs140:dllmodulx.obj
 0002:fffd3000       __guard_fids__             10000000     mfcs140:dllmodulx.obj
 0002:fffd3000       __guard_fids__             10000000     mfcs140:dllmodulx.obj
 0002:fffd3000       __guard_fids__             10000000     mfcs140:dllmodulx.obj
 0002:fffd3000       __guard_fids__             10000000     mfcs140:dllmodulx.obj
 0002:fffd3000       __guard_fids__             10000000     mfcs140:dllmodulx.obj
 0002:fffd3000       __sehtable$_IsolationAwareUnregisterClassA@8 10000000     mfcs140:dllmodulx.obj
 0002:fffd3000       __sehtable$_WinbaseIsolationAwarePrivatetRgzlnPgpgk@0 10000000     mfcs140:dllmodulx.obj
 0002:fffd3000       ??isInitialized$initializer$@CAtlStringMgr@ATL@@0P6AXXZA@@3P6AXXZA 10000000     mfcs140:nolib.obj
 0002:fffd3000       ?InitializeCAtlStringMgr$initializer$@ATLImplementationDetails@ATL@@3P6AXXZA 10000000     mfcs140:nolib.obj
 0002:fffd3000       ?_AtlComModule$initializer$@ATL@@3P6AXXZA 10000000     mfcs140:nolib.obj
 0002:fffd3000       ?_AtlWinModule$initializer$@ATL@@3P6AXXZA 10000000     mfcs140:nolib.obj
 0002:fffd3000       __guard_fids_??_Estringdispid@CComTypeInfoHolder@ATL@@QAEPAXI@Z 10000000     mfcs140:nolib.obj
 0002:fffd3000       __guard_fids_??__E_AtlComModule@ATL@@YAXXZ 10000000     mfcs140:nolib.obj
 0002:fffd3000       __guard_fids_??__E_AtlWinModule@ATL@@YAXXZ 10000000     mfcs140:nolib.obj
 0002:fffd3000       __guard_fids_?GetInstance@CAtlStringMgr@ATL@@SAPAUIAtlStringMgr@2@XZ 10000000     mfcs140:nolib.obj
 0002:fffd3000       __guard_fids__             10000000     mfcs140:nolib.obj
 0002:fffd3000       __guard_fids__             10000000     mfcs140:nolib.obj
 0002:fffd3000       __guard_fids__             10000000     mfcs140:nolib.obj
 0002:fffd3000       __guard_fids__             10000000     mfcs140:nolib.obj
 0002:fffd3000       __guard_fids__             10000000     mfcs140:nolib.obj
 0002:fffd3000       __guard_fids__             10000000     mfcs140:nolib.obj
 0002:fffd3000       __guard_fids__             10000000     mfcs140:nolib.obj
 0002:fffd3000       __guard_fids__             10000000     mfcs140:nolib.obj
 0002:fffd3000       __guard_fids__             10000000     mfcs140:nolib.obj
 0002:fffd3000       __guard_fids__             10000000     mfcs140:rawdllmainproxy.obj
 0002:fffd3000       ??isInitialized$initializer$@CAtlStringMgr@ATL@@0P6AXXZA@@3P6AXXZA 10000000     mfcs140:stdafx.obj
 0002:fffd3000       ?InitializeCAtlStringMgr$initializer$@ATLImplementationDetails@ATL@@3P6AXXZA 10000000     mfcs140:stdafx.obj
 0002:fffd3000       ?_AtlComModule$initializer$@ATL@@3P6AXXZA 10000000     mfcs140:stdafx.obj
 0002:fffd3000       ?_AtlWinModule$initializer$@ATL@@3P6AXXZA 10000000     mfcs140:stdafx.obj
 0002:fffd3000       __ehfuncinfo$??1CAtlComModule@ATL@@QAE@XZ 10000000     mfcs140:stdafx.obj
 0002:fffd3000       __ehfuncinfo$??_Estringdispid@CComTypeInfoHolder@ATL@@QAEPAXI@Z 10000000     mfcs140:stdafx.obj
 0001:fffff000       __ehhandler$??1CAtlComModule@ATL@@QAE@XZ 10000000 f   mfcs140:stdafx.obj
 0001:fffff000       __ehhandler$??_Estringdispid@CComTypeInfoHolder@ATL@@QAEPAXI@Z 10000000 f   mfcs140:stdafx.obj
 0002:fffd3000       __guard_fids_??_Estringdispid@CComTypeInfoHolder@ATL@@QAEPAXI@Z 10000000     mfcs140:stdafx.obj
 0002:fffd3000       __guard_fids_??__E_AtlComModule@ATL@@YAXXZ 10000000     mfcs140:stdafx.obj
 0002:fffd3000       __guard_fids_??__E_AtlWinModule@ATL@@YAXXZ 10000000     mfcs140:stdafx.obj
 0002:fffd3000       __guard_fids_?GetInstance@CAtlStringMgr@ATL@@SAPAUIAtlStringMgr@2@XZ 10000000     mfcs140:stdafx.obj
 0002:fffd3000       __guard_fids__             10000000     mfcs140:stdafx.obj
 0002:fffd3000       __guard_fids__             10000000     mfcs140:stdafx.obj
 0002:fffd3000       __guard_fids__             10000000     mfcs140:stdafx.obj
 0002:fffd3000       __guard_fids__             10000000     mfcs140:stdafx.obj
 0002:fffd3000       __guard_fids__             10000000     mfcs140:stdafx.obj
 0002:fffd3000       __guard_fids__             10000000     mfcs140:stdafx.obj
 0002:fffd3000       __guard_fids__             10000000     mfcs140:stdafx.obj
 0002:fffd3000       __guard_fids__             10000000     mfcs140:stdafx.obj
 0002:fffd3000       __guard_fids__             10000000     mfcs140:stdafx.obj
 0002:fffd3000       __sehtable$_IsolationAwareUnregisterClassA@8 10000000     mfcs140:stdafx.obj
 0002:fffd3000       __sehtable$_WinbaseIsolationAwarePrivatetRgzlnPgpgk@0 10000000     mfcs140:stdafx.obj
 0002:fffd3000       __guard_fids___except_handler4 10000000     msvcrt:chandler4gs.obj
 0002:fffd3000       __guard_fids_?dllmain_dispatch@@YAHQAUHINSTANCE__@@KQAX@Z 10000000     msvcrt:dll_dllmain.obj
 0002:fffd3000       __guard_fids__             10000000     msvcrt:guard_support.obj
 0002:fffd3000       __guard_fids__             10000000     msvcrt:guard_support.obj
 0002:fffd3000       __guard_fids___guard_icall_checks_enforced 10000000     msvcrt:guard_support.obj
 0002:fffd3000       __guard_fids__             10000000     msvcrt:std_type_info_static.obj
 0002:fffd3000       __guard_fids_?__scrt_initialize_thread_safe_statics@@YAHXZ 10000000     msvcrt:thread_safe_statics.obj
 0002:fffd3000       __guard_fids__             10000000     msvcrt:thread_safe_statics.obj
 0002:fffd3000       __guard_fids____scrt_set_unhandled_exception_filter 10000000     msvcrt:utility_desktop.obj
 0000:fffb2000       .debug$S                   10000000     vcruntime:VCRUNTIME140.dll
 0000:fffb2000       .debug$S                   10000000     vcruntime:VCRUNTIME140.dll
 0000:fffb2000       .debug$S                   10000000     vcruntime:VCRUNTIME140.dll
 0000:fffb2000       .debug$S                   10000000     vcruntime:VCRUNTIME140.dll
 0000:fffb2000       .debug$S                   10000000     vcruntime:VCRUNTIME140.dll
 0000:fffb2000       .debug$S                   10000000     vcruntime:VCRUNTIME140.dll
 0000:fffb2000       .debug$S                   10000000     vcruntime:VCRUNTIME140.dll
 0000:fffb2000       .debug$S                   10000000     vcruntime:VCRUNTIME140.dll
 0000:fffb2000       .debug$S                   10000000     vcruntime:VCRUNTIME140.dll
 0000:fffb2000       .debug$S                   10000000     ucrt:api-ms-win-crt-convert-l1-1-0.dll
 0000:fffb2000       .debug$S                   10000000     ucrt:api-ms-win-crt-convert-l1-1-0.dll
 0000:fffb2000       .debug$S                   10000000     ucrt:api-ms-win-crt-convert-l1-1-0.dll
 0000:fffb2000       .debug$S                   10000000     ucrt:api-ms-win-crt-filesystem-l1-1-0.dll
 0000:fffb2000       .debug$S                   10000000     ucrt:api-ms-win-crt-heap-l1-1-0.dll
 0000:fffb2000       .debug$S                   10000000     ucrt:api-ms-win-crt-heap-l1-1-0.dll
 0000:fffb2000       .debug$S                   10000000     ucrt:api-ms-win-crt-math-l1-1-0.dll
 0000:fffb2000       .debug$S                   10000000     ucrt:api-ms-win-crt-math-l1-1-0.dll
 0000:fffb2000       .debug$S                   10000000     ucrt:api-ms-win-crt-math-l1-1-0.dll
 0000:fffb2000       .debug$S                   10000000     ucrt:api-ms-win-crt-math-l1-1-0.dll
 0000:fffb2000       .debug$S                   10000000     ucrt:api-ms-win-crt-math-l1-1-0.dll
 0000:fffb2000       .debug$S                   10000000     ucrt:api-ms-win-crt-math-l1-1-0.dll
 0000:fffb2000       .debug$S                   10000000     ucrt:api-ms-win-crt-math-l1-1-0.dll
 0000:fffb2000       .debug$S                   10000000     ucrt:api-ms-win-crt-runtime-l1-1-0.dll
 0000:fffb2000       .debug$S                   10000000     ucrt:api-ms-win-crt-runtime-l1-1-0.dll
 0000:fffb2000       .debug$S                   10000000     ucrt:api-ms-win-crt-runtime-l1-1-0.dll
 0000:fffb2000       .debug$S                   10000000     ucrt:api-ms-win-crt-runtime-l1-1-0.dll
 0000:fffb2000       .debug$S                   10000000     ucrt:api-ms-win-crt-runtime-l1-1-0.dll
 0000:fffb2000       .debug$S                   10000000     ucrt:api-ms-win-crt-runtime-l1-1-0.dll
 0000:fffb2000       .debug$S                   10000000     ucrt:api-ms-win-crt-runtime-l1-1-0.dll
 0000:fffb2000       .debug$S                   10000000     ucrt:api-ms-win-crt-runtime-l1-1-0.dll
 0000:fffb2000       .debug$S                   10000000     ucrt:api-ms-win-crt-runtime-l1-1-0.dll
 0000:fffb2000       .debug$S                   10000000     ucrt:api-ms-win-crt-runtime-l1-1-0.dll
 0000:fffb2000       .debug$S                   10000000     ucrt:api-ms-win-crt-runtime-l1-1-0.dll
 0000:fffb2000       .debug$S                   10000000     ucrt:api-ms-win-crt-runtime-l1-1-0.dll
 0000:fffb2000       .debug$S                   10000000     ucrt:api-ms-win-crt-runtime-l1-1-0.dll
 0000:fffb2000       .debug$S                   10000000     ucrt:api-ms-win-crt-runtime-l1-1-0.dll
 0000:fffb2000       .debug$S                   10000000     ucrt:api-ms-win-crt-stdio-l1-1-0.dll
 0000:fffb2000       .debug$S                   10000000     ucrt:api-ms-win-crt-stdio-l1-1-0.dll
 0000:fffb2000       .debug$S                   10000000     ucrt:api-ms-win-crt-string-l1-1-0.dll
 0000:fffb2000       .debug$S                   10000000     ucrt:api-ms-win-crt-time-l1-1-0.dll
 0000:fffb2000       .debug$S                   10000000     ucrt:api-ms-win-crt-time-l1-1-0.dll
 0000:fffb2000       .debug$S                   10000000     ucrt:api-ms-win-crt-time-l1-1-0.dll
 0000:fffb2000       .debug$S                   10000000     ucrt:api-ms-win-crt-time-l1-1-0.dll
 0000:fffb2000       .debug$S                   10000000     Winmm:WINMM.dll
 0000:fffb2000       .debug$S                   10000000     comctl32:COMCTL32.dll
 0000:fffb2000       .debug$S                   10000000     comctl32:COMCTL32.dll
 0000:fffb2000       .debug$S                   10000000     comctl32:COMCTL32.dll
 0000:fffb2000       .debug$S                   10000000     comctl32:COMCTL32.dll
 0000:fffb2000       .debug$S                   10000000     comctl32:COMCTL32.dll
 0000:fffb2000       .debug$S                   10000000     gdi32:GDI32.dll
 0000:fffb2000       .debug$S                   10000000     gdi32:GDI32.dll
 0000:fffb2000       .debug$S                   10000000     gdi32:GDI32.dll
 0000:fffb2000       .debug$S                   10000000     gdi32:GDI32.dll
 0000:fffb2000       .debug$S                   10000000     gdi32:GDI32.dll
 0000:fffb2000       .debug$S                   10000000     gdi32:GDI32.dll
 0000:fffb2000       .debug$S                   10000000     gdi32:GDI32.dll
 0000:fffb2000       .debug$S                   10000000     gdi32:GDI32.dll
 0000:fffb2000       .debug$S                   10000000     gdi32:GDI32.dll
 0000:fffb2000       .debug$S                   10000000     gdi32:GDI32.dll
 0000:fffb2000       .debug$S                   10000000     gdi32:GDI32.dll
 0000:fffb2000       .debug$S                   10000000     gdi32:GDI32.dll
 0000:fffb2000       .debug$S                   10000000     gdi32:GDI32.dll
 0000:fffb2000       .debug$S                   10000000     gdi32:GDI32.dll
 0000:fffb2000       .debug$S                   10000000     gdi32:GDI32.dll
 0000:fffb2000       .debug$S                   10000000     gdi32:GDI32.dll
 0000:fffb2000       .debug$S                   10000000     gdi32:GDI32.dll
 0000:fffb2000       .debug$S                   10000000     gdi32:GDI32.dll
 0000:fffb2000       .debug$S                   10000000     gdi32:GDI32.dll
 0000:fffb2000       .debug$S                   10000000     gdi32:GDI32.dll
 0000:fffb2000       .debug$S                   10000000     gdi32:GDI32.dll
 0000:fffb2000       .debug$S                   10000000     gdi32:GDI32.dll
 0000:fffb2000       .debug$S                   10000000     gdi32:GDI32.dll
 0000:fffb2000       .debug$S                   10000000     gdi32:GDI32.dll
 0000:fffb2000       .debug$S                   10000000     gdi32:GDI32.dll
 0000:fffb2000       .debug$S                   10000000     gdi32:GDI32.dll
 0000:fffb2000       .debug$S                   10000000     gdi32:GDI32.dll
 0000:fffb2000       .debug$S                   10000000     kernel32:KERNEL32.dll
 0000:fffb2000       .debug$S                   10000000     kernel32:KERNEL32.dll
 0000:fffb2000       .debug$S                   10000000     kernel32:KERNEL32.dll
 0000:fffb2000       .debug$S                   10000000     kernel32:KERNEL32.dll
 0000:fffb2000       .debug$S                   10000000     kernel32:KERNEL32.dll
 0000:fffb2000       .debug$S                   10000000     kernel32:KERNEL32.dll
 0000:fffb2000       .debug$S                   10000000     kernel32:KERNEL32.dll
 0000:fffb2000       .debug$S                   10000000     kernel32:KERNEL32.dll
 0000:fffb2000       .debug$S                   10000000     kernel32:KERNEL32.dll
 0000:fffb2000       .debug$S                   10000000     kernel32:KERNEL32.dll
 0000:fffb2000       .debug$S                   10000000     kernel32:KERNEL32.dll
 0000:fffb2000       .debug$S                   10000000     kernel32:KERNEL32.dll
 0000:fffb2000       .debug$S                   10000000     kernel32:KERNEL32.dll
 0000:fffb2000       .debug$S                   10000000     kernel32:KERNEL32.dll
 0000:fffb2000       .debug$S                   10000000     kernel32:KERNEL32.dll
 0000:fffb2000       .debug$S                   10000000     kernel32:KERNEL32.dll
 0000:fffb2000       .debug$S                   10000000     kernel32:KERNEL32.dll
 0000:fffb2000       .debug$S                   10000000     kernel32:KERNEL32.dll
 0000:fffb2000       .debug$S                   10000000     kernel32:KERNEL32.dll
 0000:fffb2000       .debug$S                   10000000     kernel32:KERNEL32.dll
 0000:fffb2000       .debug$S                   10000000     kernel32:KERNEL32.dll
 0000:fffb2000       .debug$S                   10000000     kernel32:KERNEL32.dll
 0000:fffb2000       .debug$S                   10000000     kernel32:KERNEL32.dll
 0000:fffb2000       .debug$S                   10000000     kernel32:KERNEL32.dll
 0000:fffb2000       .debug$S                   10000000     kernel32:KERNEL32.dll
 0000:fffb2000       .debug$S                   10000000     kernel32:KERNEL32.dll
 0000:fffb2000       .debug$S                   10000000     kernel32:KERNEL32.dll
 0000:fffb2000       .debug$S                   10000000     kernel32:KERNEL32.dll
 0000:fffb2000       .debug$S                   10000000     kernel32:KERNEL32.dll
 0000:fffb2000       .debug$S                   10000000     kernel32:KERNEL32.dll
 0000:fffb2000       .debug$S                   10000000     kernel32:KERNEL32.dll
 0000:fffb2000       .debug$S                   10000000     kernel32:KERNEL32.dll
 0000:fffb2000       .debug$S                   10000000     kernel32:KERNEL32.dll
 0000:fffb2000       .debug$S                   10000000     kernel32:KERNEL32.dll
 0000:fffb2000       .debug$S                   10000000     kernel32:KERNEL32.dll
 0000:fffb2000       .debug$S                   10000000     kernel32:KERNEL32.dll
 0000:fffb2000       .debug$S                   10000000     kernel32:KERNEL32.dll
 0000:fffb2000       .debug$S                   10000000     kernel32:KERNEL32.dll
 0000:fffb2000       .debug$S                   10000000     kernel32:KERNEL32.dll
 0000:fffb2000       .debug$S                   10000000     kernel32:KERNEL32.dll
 0000:fffb2000       .debug$S                   10000000     kernel32:KERNEL32.dll
 0000:fffb2000       .debug$S                   10000000     kernel32:KERNEL32.dll
 0000:fffb2000       .debug$S                   10000000     kernel32:KERNEL32.dll
 0000:fffb2000       .debug$S                   10000000     kernel32:KERNEL32.dll
 0000:fffb2000       .debug$S                   10000000     kernel32:KERNEL32.dll
 0000:fffb2000       .debug$S                   10000000     kernel32:KERNEL32.dll
 0000:fffb2000       .debug$S                   10000000     kernel32:KERNEL32.dll
 0000:fffb2000       .debug$S                   10000000     kernel32:KERNEL32.dll
 0000:fffb2000       .debug$S                   10000000     kernel32:KERNEL32.dll
 0000:fffb2000       .debug$S                   10000000     kernel32:KERNEL32.dll
 0000:fffb2000       .debug$S                   10000000     kernel32:KERNEL32.dll
 0000:fffb2000       .debug$S                   10000000     kernel32:KERNEL32.dll
 0000:fffb2000       .debug$S                   10000000     kernel32:KERNEL32.dll
 0000:fffb2000       .debug$S                   10000000     kernel32:KERNEL32.dll
 0000:fffb2000       .debug$S                   10000000     kernel32:KERNEL32.dll
 0000:fffb2000       .debug$S                   10000000     oleaut32:OLEAUT32.dll
 0000:fffb2000       .debug$S                   10000000     user32:USER32.dll
 0000:fffb2000       .debug$S                   10000000     user32:USER32.dll
 0000:fffb2000       .debug$S                   10000000     user32:USER32.dll
 0000:fffb2000       .debug$S                   10000000     user32:USER32.dll
 0000:fffb2000       .debug$S                   10000000     user32:USER32.dll
 0000:fffb2000       .debug$S                   10000000     user32:USER32.dll
 0000:fffb2000       .debug$S                   10000000     user32:USER32.dll
 0000:fffb2000       .debug$S                   10000000     user32:USER32.dll
 0000:fffb2000       .debug$S                   10000000     user32:USER32.dll
 0000:fffb2000       .debug$S                   10000000     user32:USER32.dll
 0000:fffb2000       .debug$S                   10000000     user32:USER32.dll
 0000:fffb2000       .debug$S                   10000000     user32:USER32.dll
 0000:fffb2000       .debug$S                   10000000     user32:USER32.dll
 0000:fffb2000       .debug$S                   10000000     user32:USER32.dll
 0000:fffb2000       .debug$S                   10000000     user32:USER32.dll
 0000:fffb2000       .debug$S                   10000000     user32:USER32.dll
 0000:fffb2000       .debug$S                   10000000     user32:USER32.dll
 0000:fffb2000       .debug$S                   10000000     user32:USER32.dll
 0000:fffb2000       .debug$S                   10000000     user32:USER32.dll
 0000:fffb2000       .debug$S                   10000000     user32:USER32.dll
 0000:fffb2000       .debug$S                   10000000     user32:USER32.dll
 0000:fffb2000       .debug$S                   10000000     user32:USER32.dll
 0000:fffb2000       .debug$S                   10000000     user32:USER32.dll
 0000:fffb2000       .debug$S                   10000000     user32:USER32.dll
 0000:fffb2000       .debug$S                   10000000     user32:USER32.dll
 0000:fffb2000       .debug$S                   10000000     user32:USER32.dll
 0000:fffb2000       .debug$S                   10000000     user32:USER32.dll
 0000:fffb2000       .debug$S                   10000000     user32:USER32.dll
 0000:fffb2000       .debug$S                   10000000     user32:USER32.dll
 0000:fffb2000       .debug$S                   10000000     user32:USER32.dll
 0000:fffb2000       .debug$S                   10000000     user32:USER32.dll
 0000:fffb2000       .debug$S                   10000000     user32:USER32.dll
 0000:fffb2000       .debug$S                   10000000     user32:USER32.dll
 0000:fffb2000       .debug$S                   10000000     user32:USER32.dll
 0000:fffb2000       .debug$S                   10000000     user32:USER32.dll
 0000:fffb2000       .debug$S                   10000000     user32:USER32.dll
 0000:fffb2000       .debug$S                   10000000     user32:USER32.dll
 0000:fffb2000       .debug$S                   10000000     user32:USER32.dll
 0000:fffb2000       .debug$S                   10000000     user32:USER32.dll
 0000:fffb2000       .debug$S                   10000000     user32:USER32.dll
 0000:fffb2000       .debug$S                   10000000     user32:USER32.dll
 0000:fffb2000       .debug$S                   10000000     user32:USER32.dll
 0000:fffb2000       .debug$S                   10000000     user32:USER32.dll
 0002:fffd3004       __guard_fids__             10000004     mfcs140:dllmodul.obj
 0002:fffd3008       __ehfuncinfo$?LoadInfo@CSTConfigEnv_Clear@@QAEXPBD@Z 10000008     TabRunJumun.obj
 0002:fffd3008       __ehfuncinfo$?LoadInfo@CSTConfigEnv_Setup@@QAEXPBD@Z 10000008     TabRunJumun.obj
 0002:fffd3008       __ehfuncinfo$?LoadInfo@CSTConfigEnv_Signal@@QAEXPBD@Z 10000008     TabRunJumun.obj
 0002:fffd3008       __ehfuncinfo$?LoadInfo@CSTConfigEnv_Clear@@QAEXPBD@Z 10000008     TabRunSetup.obj
 0002:fffd3008       __ehfuncinfo$?LoadInfo@CSTConfigEnv_Setup@@QAEXPBD@Z 10000008     TabRunSetup.obj
 0002:fffd3008       __ehfuncinfo$?LoadInfo@CSTConfigEnv_Signal@@QAEXPBD@Z 10000008     TabRunSetup.obj
 0002:fffd3008       __ehfuncinfo$?LoadInfo@CSTConfigEnv_Clear@@QAEXPBD@Z 10000008     TabRunSignal.obj
 0002:fffd3008       __ehfuncinfo$?LoadInfo@CSTConfigEnv_Setup@@QAEXPBD@Z 10000008     TabRunSignal.obj
 0002:fffd3008       __ehfuncinfo$?LoadInfo@CSTConfigEnv_Signal@@QAEXPBD@Z 10000008     TabRunSignal.obj
 0002:fffd3008       __guard_fids__             10000008     mfcs140:dllmodul.obj
 0001:fffff00c       __unwindfunclet$??0CSTConfigEnv_Clear@@QAE@XZ$1 1000000c f   TabRunJumun.obj
 0001:fffff00c       __unwindfunclet$??0CSTConfigEnv_Setup@@QAE@XZ$1 1000000c f   TabRunJumun.obj
 0001:fffff00c       __unwindfunclet$??0CSTConfigEnv_Signal@@QAE@XZ$1 1000000c f   TabRunJumun.obj
 0001:fffff00c       __unwindfunclet$?LoadInfo@CSTConfigEnv_Jumun@@QAEXPBD@Z$1 1000000c f   TabRunJumun.obj
 0001:fffff00c       __unwindfunclet$??0CSTConfigEnv_Clear@@QAE@XZ$1 1000000c f   TabRunSetup.obj
 0001:fffff00c       __unwindfunclet$??0CSTConfigEnv_Setup@@QAE@XZ$1 1000000c f   TabRunSetup.obj
 0001:fffff00c       __unwindfunclet$??0CSTConfigEnv_Signal@@QAE@XZ$1 1000000c f   TabRunSetup.obj
 0001:fffff00c       __unwindfunclet$?LoadInfo@CSTConfigEnv_Jumun@@QAEXPBD@Z$1 1000000c f   TabRunSetup.obj
 0001:fffff00c       __unwindfunclet$??0CSTConfigEnv_Clear@@QAE@XZ$1 1000000c f   TabRunSignal.obj
 0001:fffff00c       __unwindfunclet$??0CSTConfigEnv_Setup@@QAE@XZ$1 1000000c f   TabRunSignal.obj
 0001:fffff00c       __unwindfunclet$??0CSTConfigEnv_Signal@@QAE@XZ$1 1000000c f   TabRunSignal.obj
 0001:fffff00c       __unwindfunclet$?LoadInfo@CSTConfigEnv_Jumun@@QAEXPBD@Z$1 1000000c f   TabRunSignal.obj
 0001:fffff00f       __unwindfunclet$?LoadInfo@CSTConfigEnv@@QAEXPBD0H@Z$2 1000000f f   TabRunJumun.obj
 0001:fffff00f       __unwindfunclet$?LoadInfo@CSTConfigEnv@@QAEXPBD0H@Z$2 1000000f f   TabRunSetup.obj
 0001:fffff00f       __unwindfunclet$?LoadInfo@CSTConfigEnv@@QAEXPBD0H@Z$2 1000000f f   TabRunSignal.obj
 0002:fffd3010       __tryblocktable$??1CGdiObject@@UAE@XZ 10000010     ColorButton.obj
 0002:fffd3010       __tryblocktable$??1CGdiObject@@UAE@XZ 10000010     Conversion.obj
 0002:fffd3010       __tryblocktable$??1CGdiObject@@UAE@XZ 10000010     DlgRunMain.obj
 0002:fffd3010       __tryblocktable$??1CGdiObject@@UAE@XZ 10000010     DlgSTOption.obj
 0002:fffd3010       __tryblocktable$??1CGdiObject@@UAE@XZ 10000010     STConfigureDlg.obj
 0002:fffd3010       __tryblocktable$??1CGdiObject@@UAE@XZ 10000010     XHeaderCtrl.obj
 0002:fffd3010       __tryblocktable$??1CGdiObject@@UAE@XZ 10000010     XListCtrl.obj
 0002:fffd3010       __tryblocktable$??1CGdiObject@@UAE@XZ 10000010     XTabCtrl.obj
 0002:fffd3010       __tryblocktable$??1CGdiObject@@UAE@XZ 10000010     xSkinButton.obj
 0001:fffff011       __ehhandler$??1CGdiObject@@UAE@XZ 10000011 f   ColorButton.obj
 0001:fffff011       __ehhandler$??1CGdiObject@@UAE@XZ 10000011 f   Conversion.obj
 0001:fffff011       __ehhandler$??1CGdiObject@@UAE@XZ 10000011 f   DlgRunMain.obj
 0001:fffff011       __ehhandler$??1CGdiObject@@UAE@XZ 10000011 f   DlgSTOption.obj
 0001:fffff011       __ehhandler$??1CGdiObject@@UAE@XZ 10000011 f   STConfigureDlg.obj
 0001:fffff011       __ehhandler$?LoadInfo@CSTConfigEnv_Clear@@QAEXPBD@Z 10000011 f   TabRunJumun.obj
 0001:fffff011       __ehhandler$?LoadInfo@CSTConfigEnv_Setup@@QAEXPBD@Z 10000011 f   TabRunJumun.obj
 0001:fffff011       __ehhandler$?LoadInfo@CSTConfigEnv_Signal@@QAEXPBD@Z 10000011 f   TabRunJumun.obj
 0001:fffff011       __ehhandler$?LoadInfo@CSTConfigEnv_Clear@@QAEXPBD@Z 10000011 f   TabRunSetup.obj
 0001:fffff011       __ehhandler$?LoadInfo@CSTConfigEnv_Setup@@QAEXPBD@Z 10000011 f   TabRunSetup.obj
 0001:fffff011       __ehhandler$?LoadInfo@CSTConfigEnv_Signal@@QAEXPBD@Z 10000011 f   TabRunSetup.obj
 0001:fffff011       __ehhandler$?LoadInfo@CSTConfigEnv_Clear@@QAEXPBD@Z 10000011 f   TabRunSignal.obj
 0001:fffff011       __ehhandler$?LoadInfo@CSTConfigEnv_Setup@@QAEXPBD@Z 10000011 f   TabRunSignal.obj
 0001:fffff011       __ehhandler$?LoadInfo@CSTConfigEnv_Signal@@QAEXPBD@Z 10000011 f   TabRunSignal.obj
 0001:fffff011       __ehhandler$??1CGdiObject@@UAE@XZ 10000011 f   XHeaderCtrl.obj
 0001:fffff011       __ehhandler$??1CGdiObject@@UAE@XZ 10000011 f   XListCtrl.obj
 0001:fffff011       __ehhandler$??1CGdiObject@@UAE@XZ 10000011 f   XTabCtrl.obj
 0001:fffff011       __ehhandler$??1CGdiObject@@UAE@XZ 10000011 f   xSkinButton.obj
 0002:fffd3018       __ehfuncinfo$??0CSTConfigEnv_Clear@@QAE@XZ 10000018     TabRunJumun.obj
 0002:fffd3018       __ehfuncinfo$??0CSTConfigEnv_Signal@@QAE@XZ 10000018     TabRunJumun.obj
 0002:fffd3018       __ehfuncinfo$?LoadInfo@CSTConfigEnv@@QAEXPBD0H@Z 10000018     TabRunJumun.obj
 0001:fffff018       __unwindfunclet$??0CSTConfigEnv_Clear@@QAE@XZ$2 10000018 f   TabRunJumun.obj
 0001:fffff018       __unwindfunclet$??0CSTConfigEnv_Setup@@QAE@XZ$2 10000018 f   TabRunJumun.obj
 0001:fffff018       __unwindfunclet$??0CSTConfigEnv_Signal@@QAE@XZ$2 10000018 f   TabRunJumun.obj
 0001:fffff018       __unwindfunclet$?LoadInfo@CSTConfigEnv_Jumun@@QAEXPBD@Z$2 10000018 f   TabRunJumun.obj
 0002:fffd3018       __ehfuncinfo$??0CSTConfigEnv_Clear@@QAE@XZ 10000018     TabRunSetup.obj
 0002:fffd3018       __ehfuncinfo$??0CSTConfigEnv_Signal@@QAE@XZ 10000018     TabRunSetup.obj
 0002:fffd3018       __ehfuncinfo$?LoadInfo@CSTConfigEnv@@QAEXPBD0H@Z 10000018     TabRunSetup.obj
 0001:fffff018       __unwindfunclet$??0CSTConfigEnv_Clear@@QAE@XZ$2 10000018 f   TabRunSetup.obj
 0001:fffff018       __unwindfunclet$??0CSTConfigEnv_Setup@@QAE@XZ$2 10000018 f   TabRunSetup.obj
 0001:fffff018       __unwindfunclet$??0CSTConfigEnv_Signal@@QAE@XZ$2 10000018 f   TabRunSetup.obj
 0001:fffff018       __unwindfunclet$?LoadInfo@CSTConfigEnv_Jumun@@QAEXPBD@Z$2 10000018 f   TabRunSetup.obj
 0002:fffd3018       __ehfuncinfo$??0CSTConfigEnv_Clear@@QAE@XZ 10000018     TabRunSignal.obj
 0002:fffd3018       __ehfuncinfo$??0CSTConfigEnv_Signal@@QAE@XZ 10000018     TabRunSignal.obj
 0002:fffd3018       __ehfuncinfo$?LoadInfo@CSTConfigEnv@@QAEXPBD0H@Z 10000018     TabRunSignal.obj
 0001:fffff018       __unwindfunclet$??0CSTConfigEnv_Clear@@QAE@XZ$2 10000018 f   TabRunSignal.obj
 0001:fffff018       __unwindfunclet$??0CSTConfigEnv_Setup@@QAE@XZ$2 10000018 f   TabRunSignal.obj
 0001:fffff018       __unwindfunclet$??0CSTConfigEnv_Signal@@QAE@XZ$2 10000018 f   TabRunSignal.obj
 0001:fffff018       __unwindfunclet$?LoadInfo@CSTConfigEnv_Jumun@@QAEXPBD@Z$2 10000018 f   TabRunSignal.obj
 0001:fffff021       __unwindfunclet$?LoadInfo@CSTConfigEnv@@QAEXPBD0H@Z$3 10000021 f   TabRunJumun.obj
 0001:fffff021       __unwindfunclet$?LoadInfo@CSTConfigEnv@@QAEXPBD0H@Z$3 10000021 f   TabRunSetup.obj
 0001:fffff021       __unwindfunclet$?LoadInfo@CSTConfigEnv@@QAEXPBD0H@Z$3 10000021 f   TabRunSignal.obj
 0002:fffd3024       __unwindtable$??1CGdiObject@@UAE@XZ 10000024     ColorButton.obj
 0002:fffd3024       __unwindtable$??1CGdiObject@@UAE@XZ 10000024     Conversion.obj
 0002:fffd3024       __unwindtable$??1CGdiObject@@UAE@XZ 10000024     DlgRunMain.obj
 0002:fffd3024       __unwindtable$??1CGdiObject@@UAE@XZ 10000024     DlgSTOption.obj
 0002:fffd3024       __unwindtable$??1CGdiObject@@UAE@XZ 10000024     STConfigureDlg.obj
 0001:fffff024       __unwindfunclet$??0CSTConfigEnv_Setup@@QAE@XZ$3 10000024 f   TabRunJumun.obj
 0001:fffff024       __unwindfunclet$?LoadInfo@CSTConfigEnv_Jumun@@QAEXPBD@Z$5 10000024 f   TabRunJumun.obj
 0002:fffd3024       __unwindtable$??0CSTConfigEnv_Setup@@QAE@XZ 10000024     TabRunJumun.obj
 0002:fffd3024       __unwindtable$?LoadInfo@CSTConfigEnv_Jumun@@QAEXPBD@Z 10000024     TabRunJumun.obj
 0001:fffff024       __unwindfunclet$??0CSTConfigEnv_Setup@@QAE@XZ$3 10000024 f   TabRunSetup.obj
 0001:fffff024       __unwindfunclet$?LoadInfo@CSTConfigEnv_Jumun@@QAEXPBD@Z$5 10000024 f   TabRunSetup.obj
 0002:fffd3024       __unwindtable$??0CSTConfigEnv_Setup@@QAE@XZ 10000024     TabRunSetup.obj
 0002:fffd3024       __unwindtable$?LoadInfo@CSTConfigEnv_Jumun@@QAEXPBD@Z 10000024     TabRunSetup.obj
 0001:fffff024       __unwindfunclet$??0CSTConfigEnv_Setup@@QAE@XZ$3 10000024 f   TabRunSignal.obj
 0001:fffff024       __unwindfunclet$?LoadInfo@CSTConfigEnv_Jumun@@QAEXPBD@Z$5 10000024 f   TabRunSignal.obj
 0002:fffd3024       __unwindtable$??0CSTConfigEnv_Setup@@QAE@XZ 10000024     TabRunSignal.obj
 0002:fffd3024       __unwindtable$?LoadInfo@CSTConfigEnv_Jumun@@QAEXPBD@Z 10000024     TabRunSignal.obj
 0002:fffd3024       __unwindtable$??1CGdiObject@@UAE@XZ 10000024     XHeaderCtrl.obj
 0002:fffd3024       __unwindtable$??1CGdiObject@@UAE@XZ 10000024     XListCtrl.obj
 0002:fffd3024       __unwindtable$??1CGdiObject@@UAE@XZ 10000024     XTabCtrl.obj
 0002:fffd3024       __unwindtable$??1CGdiObject@@UAE@XZ 10000024     xSkinButton.obj
 0001:fffff028       $LN12                      10000028     DlgSTOption.obj
 0001:fffff028       $LN12                      10000028     ExControl:StdAfx.obj
 0001:fffff029       __ehhandler$??0CSTConfigEnv_Clear@@QAE@XZ 10000029 f   TabRunJumun.obj
 0001:fffff029       __ehhandler$??0CSTConfigEnv_Signal@@QAE@XZ 10000029 f   TabRunJumun.obj
 0001:fffff029       __ehhandler$??0CSTConfigEnv_Clear@@QAE@XZ 10000029 f   TabRunSetup.obj
 0001:fffff029       __ehhandler$??0CSTConfigEnv_Signal@@QAE@XZ 10000029 f   TabRunSetup.obj
 0001:fffff029       __ehhandler$??0CSTConfigEnv_Clear@@QAE@XZ 10000029 f   TabRunSignal.obj
 0001:fffff029       __ehhandler$??0CSTConfigEnv_Signal@@QAE@XZ 10000029 f   TabRunSignal.obj
 0001:fffff030       __unwindfunclet$??0CSTConfigEnv_Setup@@QAE@XZ$4 10000030 f   TabRunJumun.obj
 0001:fffff030       __unwindfunclet$??0CSTConfigEnv_Setup@@QAE@XZ$4 10000030 f   TabRunSetup.obj
 0001:fffff030       __unwindfunclet$??0CSTConfigEnv_Setup@@QAE@XZ$4 10000030 f   TabRunSignal.obj
 0001:fffff035       __ehhandler$?LoadInfo@CSTConfigEnv@@QAEXPBD0H@Z 10000035 f   TabRunJumun.obj
 0001:fffff035       __ehhandler$?LoadInfo@CSTConfigEnv@@QAEXPBD0H@Z 10000035 f   TabRunSetup.obj
 0001:fffff035       __ehhandler$?LoadInfo@CSTConfigEnv@@QAEXPBD0H@Z 10000035 f   TabRunSignal.obj
 0001:fffff038       $LN11                      10000038     DlgSTOption.obj
 0001:fffff038       $LN11                      10000038     ExControl:StdAfx.obj
 0002:fffd303c       __ehfuncinfo$??1CGdiObject@@UAE@XZ 1000003c     ColorButton.obj
 0002:fffd303c       __ehfuncinfo$??1CGdiObject@@UAE@XZ 1000003c     Conversion.obj
 0002:fffd303c       __ehfuncinfo$??1CGdiObject@@UAE@XZ 1000003c     DlgRunMain.obj
 0002:fffd303c       __ehfuncinfo$??1CGdiObject@@UAE@XZ 1000003c     DlgSTOption.obj
 0002:fffd303c       __ehfuncinfo$??1CGdiObject@@UAE@XZ 1000003c     STConfigureDlg.obj
 0001:fffff03c       __unwindfunclet$??0CSTConfigEnv_Setup@@QAE@XZ$5 1000003c f   TabRunJumun.obj
 0001:fffff03c       __unwindfunclet$??0CSTConfigEnv_Setup@@QAE@XZ$5 1000003c f   TabRunSetup.obj
 0001:fffff03c       __unwindfunclet$??0CSTConfigEnv_Setup@@QAE@XZ$5 1000003c f   TabRunSignal.obj
 0002:fffd303c       __ehfuncinfo$??1CGdiObject@@UAE@XZ 1000003c     XHeaderCtrl.obj
 0002:fffd303c       __ehfuncinfo$??1CGdiObject@@UAE@XZ 1000003c     XListCtrl.obj
 0002:fffd303c       __ehfuncinfo$??1CGdiObject@@UAE@XZ 1000003c     XTabCtrl.obj
 0002:fffd303c       __ehfuncinfo$??1CGdiObject@@UAE@XZ 1000003c     xSkinButton.obj
 0001:fffff047       __unwindfunclet$?LoadInfo@CSTConfigEnv_Jumun@@QAEXPBD@Z$6 10000047 f   TabRunJumun.obj
 0001:fffff047       __unwindfunclet$?LoadInfo@CSTConfigEnv_Jumun@@QAEXPBD@Z$6 10000047 f   TabRunSetup.obj
 0001:fffff047       __unwindfunclet$?LoadInfo@CSTConfigEnv_Jumun@@QAEXPBD@Z$6 10000047 f   TabRunSignal.obj
 0001:fffff048       __unwindfunclet$??0CSTConfigEnv_Setup@@QAE@XZ$6 10000048 f   TabRunJumun.obj
 0001:fffff048       __unwindfunclet$??0CSTConfigEnv_Setup@@QAE@XZ$6 10000048 f   TabRunSetup.obj
 0001:fffff048       __unwindfunclet$??0CSTConfigEnv_Setup@@QAE@XZ$6 10000048 f   TabRunSignal.obj
 0001:fffff054       __unwindfunclet$??0CSTConfigEnv_Setup@@QAE@XZ$7 10000054 f   TabRunJumun.obj
 0001:fffff054       __unwindfunclet$??0CSTConfigEnv_Setup@@QAE@XZ$7 10000054 f   TabRunSetup.obj
 0001:fffff054       __unwindfunclet$??0CSTConfigEnv_Setup@@QAE@XZ$7 10000054 f   TabRunSignal.obj
 0001:fffff05f       __catch$??1CGdiObject@@UAE@XZ$0 1000005f f   ColorButton.obj
 0001:fffff05f       __catch$??1CGdiObject@@UAE@XZ$0 1000005f f   Conversion.obj
 0001:fffff05f       __catch$??1CGdiObject@@UAE@XZ$0 1000005f f   DlgRunMain.obj
 0001:fffff05f       __catch$??1CGdiObject@@UAE@XZ$0 1000005f f   DlgSTOption.obj
 0001:fffff05f       __catch$??1CGdiObject@@UAE@XZ$0 1000005f f   STConfigureDlg.obj
 0001:fffff05f       __catch$??1CGdiObject@@UAE@XZ$0 1000005f f   XHeaderCtrl.obj
 0001:fffff05f       __catch$??1CGdiObject@@UAE@XZ$0 1000005f f   XListCtrl.obj
 0001:fffff05f       __catch$??1CGdiObject@@UAE@XZ$0 1000005f f   XTabCtrl.obj
 0001:fffff05f       __catch$??1CGdiObject@@UAE@XZ$0 1000005f f   xSkinButton.obj
 0001:fffff060       __unwindfunclet$??0CSTConfigEnv_Setup@@QAE@XZ$8 10000060 f   TabRunJumun.obj
 0001:fffff060       __unwindfunclet$??0CSTConfigEnv_Setup@@QAE@XZ$8 10000060 f   TabRunSetup.obj
 0001:fffff060       __unwindfunclet$??0CSTConfigEnv_Setup@@QAE@XZ$8 10000060 f   TabRunSignal.obj
 0001:fffff06c       __unwindfunclet$??0CSTConfigEnv_Setup@@QAE@XZ$9 1000006c f   TabRunJumun.obj
 0001:fffff06c       __unwindfunclet$??0CSTConfigEnv_Setup@@QAE@XZ$9 1000006c f   TabRunSetup.obj
 0001:fffff06c       __unwindfunclet$??0CSTConfigEnv_Setup@@QAE@XZ$9 1000006c f   TabRunSignal.obj
 0001:fffff06f       __ehhandler$?LoadInfo@CSTConfigEnv_Jumun@@QAEXPBD@Z 1000006f f   TabRunJumun.obj
 0001:fffff06f       __ehhandler$?LoadInfo@CSTConfigEnv_Jumun@@QAEXPBD@Z 1000006f f   TabRunSetup.obj
 0001:fffff06f       __ehhandler$?LoadInfo@CSTConfigEnv_Jumun@@QAEXPBD@Z 1000006f f   TabRunSignal.obj
 0001:fffff078       __unwindfunclet$??0CSTConfigEnv_Setup@@QAE@XZ$10 10000078 f   TabRunJumun.obj
 0001:fffff078       __unwindfunclet$??0CSTConfigEnv_Setup@@QAE@XZ$10 10000078 f   TabRunSetup.obj
 0001:fffff078       __unwindfunclet$??0CSTConfigEnv_Setup@@QAE@XZ$10 10000078 f   TabRunSignal.obj
 0001:fffff084       __unwindfunclet$??0CSTConfigEnv_Setup@@QAE@XZ$11 10000084 f   TabRunJumun.obj
 0001:fffff084       __unwindfunclet$??0CSTConfigEnv_Setup@@QAE@XZ$11 10000084 f   TabRunSetup.obj
 0001:fffff084       __unwindfunclet$??0CSTConfigEnv_Setup@@QAE@XZ$11 10000084 f   TabRunSignal.obj
 0001:fffff090       __unwindfunclet$??0CSTConfigEnv_Setup@@QAE@XZ$12 10000090 f   TabRunJumun.obj
 0001:fffff090       __unwindfunclet$??0CSTConfigEnv_Setup@@QAE@XZ$12 10000090 f   TabRunSetup.obj
 0001:fffff090       __unwindfunclet$??0CSTConfigEnv_Setup@@QAE@XZ$12 10000090 f   TabRunSignal.obj
 0001:fffff09c       __unwindfunclet$??0CSTConfigEnv_Setup@@QAE@XZ$13 1000009c f   TabRunJumun.obj
 0001:fffff09c       __unwindfunclet$??0CSTConfigEnv_Setup@@QAE@XZ$13 1000009c f   TabRunSetup.obj
 0001:fffff09c       __unwindfunclet$??0CSTConfigEnv_Setup@@QAE@XZ$13 1000009c f   TabRunSignal.obj
 0001:fffff0a8       __unwindfunclet$??0CSTConfigEnv_Setup@@QAE@XZ$14 100000a8 f   TabRunJumun.obj
 0001:fffff0a8       __unwindfunclet$??0CSTConfigEnv_Setup@@QAE@XZ$14 100000a8 f   TabRunSetup.obj
 0001:fffff0a8       __unwindfunclet$??0CSTConfigEnv_Setup@@QAE@XZ$14 100000a8 f   TabRunSignal.obj
 0001:fffff0b4       __unwindfunclet$??0CSTConfigEnv_Setup@@QAE@XZ$15 100000b4 f   TabRunJumun.obj
 0001:fffff0b4       __unwindfunclet$??0CSTConfigEnv_Setup@@QAE@XZ$15 100000b4 f   TabRunSetup.obj
 0001:fffff0b4       __unwindfunclet$??0CSTConfigEnv_Setup@@QAE@XZ$15 100000b4 f   TabRunSignal.obj
 0001:fffff0c0       __unwindfunclet$??0CSTConfigEnv_Setup@@QAE@XZ$16 100000c0 f   TabRunJumun.obj
 0001:fffff0c0       __unwindfunclet$??0CSTConfigEnv_Setup@@QAE@XZ$16 100000c0 f   TabRunSetup.obj
 0001:fffff0c0       __unwindfunclet$??0CSTConfigEnv_Setup@@QAE@XZ$16 100000c0 f   TabRunSignal.obj
 0001:fffff0cc       __unwindfunclet$??0CSTConfigEnv_Setup@@QAE@XZ$17 100000cc f   TabRunJumun.obj
 0001:fffff0cc       __unwindfunclet$??0CSTConfigEnv_Setup@@QAE@XZ$17 100000cc f   TabRunSetup.obj
 0001:fffff0cc       __unwindfunclet$??0CSTConfigEnv_Setup@@QAE@XZ$17 100000cc f   TabRunSignal.obj
 0001:fffff0d8       __unwindfunclet$??0CSTConfigEnv_Setup@@QAE@XZ$18 100000d8 f   TabRunJumun.obj
 0001:fffff0d8       __unwindfunclet$??0CSTConfigEnv_Setup@@QAE@XZ$18 100000d8 f   TabRunSetup.obj
 0001:fffff0d8       __unwindfunclet$??0CSTConfigEnv_Setup@@QAE@XZ$18 100000d8 f   TabRunSignal.obj
 0001:fffff0e4       __unwindfunclet$??0CSTConfigEnv_Setup@@QAE@XZ$19 100000e4 f   TabRunJumun.obj
 0001:fffff0e4       __unwindfunclet$??0CSTConfigEnv_Setup@@QAE@XZ$19 100000e4 f   TabRunSetup.obj
 0001:fffff0e4       __unwindfunclet$??0CSTConfigEnv_Setup@@QAE@XZ$19 100000e4 f   TabRunSignal.obj
 0001:fffff0f0       __unwindfunclet$??0CSTConfigEnv_Setup@@QAE@XZ$20 100000f0 f   TabRunJumun.obj
 0001:fffff0f0       __unwindfunclet$??0CSTConfigEnv_Setup@@QAE@XZ$20 100000f0 f   TabRunSetup.obj
 0001:fffff0f0       __unwindfunclet$??0CSTConfigEnv_Setup@@QAE@XZ$20 100000f0 f   TabRunSignal.obj
 0001:fffff104       __ehhandler$??0CSTConfigEnv_Setup@@QAE@XZ 10000104 f   TabRunJumun.obj
 0001:fffff104       __ehhandler$??0CSTConfigEnv_Setup@@QAE@XZ 10000104 f   TabRunSetup.obj
 0001:fffff104       __ehhandler$??0CSTConfigEnv_Setup@@QAE@XZ 10000104 f   TabRunSignal.obj
 0001:00000000       ??__EWM_XEDIT_VK_ESCAPE@@YAXXZ 10001000 f   XEdit.obj
 0001:00000020       ??__EWM_XEDIT_VK_RETURN@@YAXXZ 10001020 f   XEdit.obj
 0001:00000040       ??__EWM_XLISTCTRL_CHECKBOX_CLICKED@@YAXXZ 10001040 f   XListCtrl.obj
 0001:00000060       ??__EWM_XLISTCTRL_COMBO_SELECTION@@YAXXZ 10001060 f   XListCtrl.obj
 0001:00000080       ??__ERMSG_INTERFACE@@YAXXZ 10001080 f   DlgRunMain.obj
 0001:000000a0       ??__ERMSG_STCONFIGURENAME@@YAXXZ 100010a0 f   DlgRunMain.obj
 0001:000000c0       ??__ERMSG_VERIFYSCRIPTNAME@@YAXXZ 100010c0 f   DlgRunMain.obj
 0001:000000e0       ??__ERMSG_STCONFIGURENAME@@YAXXZ 100010e0 f   DlgSTOption.obj
 0001:00000100       ??__ERMSG_STSAVETOUSERST@@YAXXZ 10001100 f   DlgSTOption.obj
 0001:00000120       ??__ERMSG_VERIFYSCRIPTNAME@@YAXXZ 10001120 f   DlgSTOption.obj
 0001:00000140       ??__EtheApp@@YAXXZ         10001140 f   STConfigureDlg.obj
 0001:000001b0       ??__E?isInitialized@CAtlStringMgr@ATL@@0_NA@@YAXXZ 100011b0 f   StdAfx.obj
 0001:000001d0       ??__EInitializeCAtlStringMgr@ATLImplementationDetails@ATL@@YAXXZ 100011d0 f   StdAfx.obj
 0001:000002c0       ??__ERMSG_ENDSCROLLPOS@@YAXXZ 100012c0 f   StdAfx.obj
 0001:000002e0       ??__ERMSG_EVENT_ACCTINPUT@@YAXXZ 100012e0 f   StdAfx.obj
 0001:00000300       ??__ERMSG_EVENT_CODEINPUT@@YAXXZ 10001300 f   StdAfx.obj
 0001:00000320       ??__ERMSG_EVENT_SIGNAL@@YAXXZ 10001320 f   StdAfx.obj
 0001:00000340       ??__ERMSG_EVENT_SPININPUT@@YAXXZ 10001340 f   StdAfx.obj
 0001:00000360       ??__ERMSG_FORMINITIALCOMPLETED@@YAXXZ 10001360 f   StdAfx.obj
 0001:00000380       ??__ERMSG_FORMSTATECHANGE@@YAXXZ 10001380 f   StdAfx.obj
 0001:000003a0       ??__ERMSG_GETPCTRDATA@@YAXXZ 100013a0 f   StdAfx.obj
 0001:000003c0       ??__ERMSG_INTERFACE@@YAXXZ 100013c0 f   StdAfx.obj
 0001:000003e0       ??__ERMSG_LBTNDBLCLICK@@YAXXZ 100013e0 f   StdAfx.obj
 0001:00000400       ??__ERMSG_LBTNDOWN@@YAXXZ  10001400 f   StdAfx.obj
 0001:00000420       ??__ERMSG_LSHAREDCHANGED@@YAXXZ 10001420 f   StdAfx.obj
 0001:00000440       ??__ERMSG_SETPCTRDATA@@YAXXZ 10001440 f   StdAfx.obj
 0001:00000460       ??__ERMSG_TABSTOP@@YAXXZ   10001460 f   StdAfx.obj
 0001:00000480       ??__E_AtlComModule@ATL@@YAXXZ 10001480 f   StdAfx.obj
 0001:000004e0       ??__E_AtlWinModule@ATL@@YAXXZ 100014e0 f   StdAfx.obj
 0001:00000530       ??__ERMSG_GETPCTRDATA@@YAXXZ 10001530 f   TabRunJumun.obj
 0001:00000550       ??__ERMSG_GET_ACCOUNTINFO@@YAXXZ 10001550 f   TabRunJumun.obj
 0001:00000570       ??__ERMSG_GET_AVAILABLEFOR_STORDER@@YAXXZ 10001570 f   TabRunJumun.obj
 0001:00000590       ??__ERMSG_GET_CONTROLHANDLE@@YAXXZ 10001590 f   TabRunJumun.obj
 0001:000005b0       ??__ERMSG_GET_DISPATCHER_ACCOUNTCTRL@@YAXXZ 100015b0 f   TabRunJumun.obj
 0001:000005d0       ??__ERMSG_GET_INTERFACE_ACCOUNTCTRL@@YAXXZ 100015d0 f   TabRunJumun.obj
 0001:000005f0       ??__ERMSG_INTERFACE@@YAXXZ 100015f0 f   TabRunJumun.obj
 0001:00000610       ??__ERMSG_GETPCTRDATA@@YAXXZ 10001610 f   ExControl:ExDrawButton.obj
 0001:00000630       ??__ERMSG_INTERFACE@@YAXXZ 10001630 f   ExControl:ExDrawButton.obj
 0001:00000650       ??__ERMSG_SETPCTRDATA@@YAXXZ 10001650 f   ExControl:ExDrawButton.obj
 0001:00000670       ??__ERMSG_GETPCTRDATA@@YAXXZ 10001670 f   ExControl:ExEdit.obj
 0001:00000690       ??__ERMSG_INTERFACE@@YAXXZ 10001690 f   ExControl:ExEdit.obj
 0001:000006b0       ??__ERMSG_SETPCTRDATA@@YAXXZ 100016b0 f   ExControl:ExEdit.obj
 0001:000006d0       ??__ERMSG_GETPCTRDATA@@YAXXZ 100016d0 f   ExControl:ExButton.obj
 0001:000006f0       ??__ERMSG_INTERFACE@@YAXXZ 100016f0 f   ExControl:ExButton.obj
 0001:00000710       ??__ERMSG_SETPCTRDATA@@YAXXZ 10001710 f   ExControl:ExButton.obj
 0001:00000730       ??__E?isInitialized@CAtlStringMgr@ATL@@0_NA@@YAXXZ 10001730 f   ExControl:StdAfx.obj
 0001:00000750       ??__EInitializeCAtlStringMgr@ATLImplementationDetails@ATL@@YAXXZ 10001750 f   ExControl:StdAfx.obj
 0001:00000840       ??__ERMSG_ENDSCROLLPOS@@YAXXZ 10001840 f   ExControl:StdAfx.obj
 0001:00000860       ??__ERMSG_EVENT_ACCTINPUT@@YAXXZ 10001860 f   ExControl:StdAfx.obj
 0001:00000880       ??__ERMSG_EVENT_CODEINPUT@@YAXXZ 10001880 f   ExControl:StdAfx.obj
 0001:000008a0       ??__ERMSG_EVENT_SIGNAL@@YAXXZ 100018a0 f   ExControl:StdAfx.obj
 0001:000008c0       ??__ERMSG_EVENT_SPININPUT@@YAXXZ 100018c0 f   ExControl:StdAfx.obj
 0001:000008e0       ??__ERMSG_FORMINITIALCOMPLETED@@YAXXZ 100018e0 f   ExControl:StdAfx.obj
 0001:00000900       ??__ERMSG_FORMSTATECHANGE@@YAXXZ 10001900 f   ExControl:StdAfx.obj
 0001:00000920       ??__ERMSG_GETPCTRDATA@@YAXXZ 10001920 f   ExControl:StdAfx.obj
 0001:00000940       ??__ERMSG_INTERFACE@@YAXXZ 10001940 f   ExControl:StdAfx.obj
 0001:00000960       ??__ERMSG_LBTNDBLCLICK@@YAXXZ 10001960 f   ExControl:StdAfx.obj
 0001:00000980       ??__ERMSG_LBTNDOWN@@YAXXZ  10001980 f   ExControl:StdAfx.obj
 0001:000009a0       ??__ERMSG_LSHAREDCHANGED@@YAXXZ 100019a0 f   ExControl:StdAfx.obj
 0001:000009c0       ??__ERMSG_SETPCTRDATA@@YAXXZ 100019c0 f   ExControl:StdAfx.obj
 0001:000009e0       ??__ERMSG_TABSTOP@@YAXXZ   100019e0 f   ExControl:StdAfx.obj
 0001:00000a00       ??__E_AtlComModule@ATL@@YAXXZ 10001a00 f   ExControl:StdAfx.obj
 0001:00000a60       ??__E_AtlWinModule@ATL@@YAXXZ 10001a60 f   ExControl:StdAfx.obj
 0001:00000ab0       ??__Em_arPermanentHandle@@YAXXZ 10001ab0 f   ExControl:StdAfx.obj
 0001:00000abc       ??__E?isInitialized@CAtlStringMgr@ATL@@0_NA@@YAXXZ 10001abc f   mfcs140:nolib.obj
 0001:00000ad0       ??__EInitializeCAtlStringMgr@ATLImplementationDetails@ATL@@YAXXZ 10001ad0 f   mfcs140:nolib.obj
 0001:00000ad5       ??__E_AtlComModule@ATL@@YAXXZ 10001ad5 f   mfcs140:nolib.obj
 0001:00000aeb       ??__E_AtlWinModule@ATL@@YAXXZ 10001aeb f   mfcs140:nolib.obj
 0001:00000b01       ??__E?isInitialized@CAtlStringMgr@ATL@@0_NA@@YAXXZ 10001b01 f   mfcs140:dllmodul.obj
 0001:00000b15       ??__EInitializeCAtlStringMgr@ATLImplementationDetails@ATL@@YAXXZ 10001b15 f   mfcs140:dllmodul.obj
 0001:00000b1a       ??__E_AtlComModule@ATL@@YAXXZ 10001b1a f   mfcs140:dllmodul.obj
 0001:00000b30       ??__E_AtlWinModule@ATL@@YAXXZ 10001b30 f   mfcs140:dllmodul.obj
 0001:00000b46       ??__EafxModuleState@@YAXXZ 10001b46 f   mfcs140:dllmodul.obj
 0001:00000b74       ??__E?isInitialized@CAtlStringMgr@ATL@@0_NA@@YAXXZ 10001b74 f   mfcs140:stdafx.obj
 0001:00000b88       ??__EInitializeCAtlStringMgr@ATLImplementationDetails@ATL@@YAXXZ 10001b88 f   mfcs140:stdafx.obj
 0001:00000b8d       ??__E_AtlComModule@ATL@@YAXXZ 10001b8d f   mfcs140:stdafx.obj
 0001:00000ba3       ??__E_AtlWinModule@ATL@@YAXXZ 10001ba3 f   mfcs140:stdafx.obj
 0001:00000bb9       ??__E?isInitialized@CAtlStringMgr@ATL@@0_NA@@YAXXZ 10001bb9 f   mfcs140:dllmodulx.obj
 0001:00000bcd       ??__EInitializeCAtlStringMgr@ATLImplementationDetails@ATL@@YAXXZ 10001bcd f   mfcs140:dllmodulx.obj
 0001:00000bd2       ??__E_AtlComModule@ATL@@YAXXZ 10001bd2 f   mfcs140:dllmodulx.obj
 0001:00000be8       ??__E_AtlWinModule@ATL@@YAXXZ 10001be8 f   mfcs140:dllmodulx.obj
 0001:00000bfe       ??__E_AtlBaseModule@ATL@@YAXXZ 10001bfe f   atls:atlbase.obj
 0001:00000cff       __catch$??1CGdiObject@@UAE@XZ$0 10001cff f i BitmapItemComboBox.obj
 0001:00001fdc       $LN12                      10002fdc     Color.obj
 0001:0000a108       $LN12                      1000b108     XHeaderCtrl.obj
 0001:0000f488       $LN12                      10010488     XTabCtrl.obj
 0001:0000f498       $LN11                      10010498     XTabCtrl.obj
 0001:000253ba       __catch$_InternalDllMain@12$2 100263ba f   mfcs140:dllmodul.obj
 0001:0002563b       ?ArrayUnwindFilter@@YAHPAU_EXCEPTION_POINTERS@@@Z 1002663b f   msvcrt:ehvecdtr.obj
 0001:00025723       ?find_pe_section@@YAPAU_IMAGE_SECTION_HEADER@@QAEI@Z 10026723 f   msvcrt:utility.obj
 0001:0002576c       ?is_potentially_valid_image_base@@YA_NQAX@Z 1002676c f   msvcrt:utility.obj
 0001:00025aa0       ?__scrt_initialize_thread_safe_statics@@YAHXZ 10026aa0 f   msvcrt:thread_safe_statics.obj
 0001:00025ac7       ?__scrt_initialize_thread_safe_statics_platform_specific@@YAXXZ 10026ac7 f   msvcrt:thread_safe_statics.obj
 0001:00025b49       ?__scrt_uninitialize_thread_safe_statics@@YAXXZ 10026b49 f   msvcrt:thread_safe_statics.obj
 0001:00025cc1       ?dllmain_crt_dispatch@@YGHQAUHINSTANCE__@@KQAX@Z 10026cc1 f   msvcrt:dll_dllmain.obj
 0001:00025d14       ?dllmain_crt_process_attach@@YAHQAUHINSTANCE__@@QAX@Z 10026d14 f   msvcrt:dll_dllmain.obj
 0001:00025e1b       ?dllmain_crt_process_detach@@YAH_N@Z 10026e1b f   msvcrt:dll_dllmain.obj
 0001:00025ecb       ?dllmain_dispatch@@YAHQAUHINSTANCE__@@KQAX@Z 10026ecb f   msvcrt:dll_dllmain.obj
 0001:00025fd6       ?dllmain_raw@@YGHQAUHINSTANCE__@@KQAX@Z 10026fd6 f   msvcrt:dll_dllmain.obj
 0001:00026140       $$000000                   10027140     msvcrt:sehprolg4.obj
 0001:00026190       $$000000                   10027190     msvcrt:sehprolg4.obj
 0001:000261b0       $$000000                   100271b0     msvcrt:sehprolg4gs.obj
 0001:00026200       $$000000                   10027200     msvcrt:sehprolg4gs.obj
 0001:000262cb       ___castguard_compat_check  100272cb f   msvcrt:guard_support.obj
 0001:00026393       ___castguard_slow_path_compat_check 10027393 f   msvcrt:guard_support.obj
 0001:00026ab6       ___get_entropy             10027ab6 f   msvcrt:gs_support.obj
 0001:000272ac       _memmove_s                 100282ac f   atls:atlbase.obj
 0001:0002754b       __FindPESection            1002854b f   mfcs140:rawdllmainproxy.obj
 0001:0002758f       __IsNonwritableInCurrentImage 1002858f f   mfcs140:rawdllmainproxy.obj
 0001:00027626       __ValidateImageBase        10028626 f   mfcs140:rawdllmainproxy.obj
 0001:000276f0       __unwindfunclet$??1CGdiObject@@UAE@XZ$2 100286f0 f   BitmapItemComboBox.obj
 0001:00027701       __ehhandler$??1CGdiObject@@UAE@XZ 10028701 f   BitmapItemComboBox.obj
 0001:00027730       __unwindfunclet$?DrawItem@CBitmapItemComboBox@@UAEXPAUtagDRAWITEMSTRUCT@@@Z$0 10028730 f   BitmapItemComboBox.obj
 0001:0002773d       __ehhandler$?DrawItem@CBitmapItemComboBox@@UAEXPAUtagDRAWITEMSTRUCT@@@Z 1002873d f   BitmapItemComboBox.obj
 0001:00027770       __unwindfunclet$?GetStringData@CGraphColor@@QBE?AV?$CStringT@DV?$StrTraitMFC_DLL@DV?$ChTraitsCRT@D@ATL@@@@@ATL@@XZ$0 10028770 f   Color.obj
 0001:0002778a       __unwindfunclet$?GetStringData@CGraphColor@@QBE?AV?$CStringT@DV?$StrTraitMFC_DLL@DV?$ChTraitsCRT@D@ATL@@@@@ATL@@XZ$1 1002878a f   Color.obj
 0001:00027793       __unwindfunclet$?GetStringData@CGraphColor@@QBE?AV?$CStringT@DV?$StrTraitMFC_DLL@DV?$ChTraitsCRT@D@ATL@@@@@ATL@@XZ$17 10028793 f   Color.obj
 0001:000277ad       __unwindfunclet$?GetStringData@CGraphColor@@QBE?AV?$CStringT@DV?$StrTraitMFC_DLL@DV?$ChTraitsCRT@D@ATL@@@@@ATL@@XZ$3 100287ad f   Color.obj
 0001:000277b6       __unwindfunclet$?GetStringData@CGraphColor@@QBE?AV?$CStringT@DV?$StrTraitMFC_DLL@DV?$ChTraitsCRT@D@ATL@@@@@ATL@@XZ$18 100287b6 f   Color.obj
 0001:000277d0       __unwindfunclet$?GetStringData@CGraphColor@@QBE?AV?$CStringT@DV?$StrTraitMFC_DLL@DV?$ChTraitsCRT@D@ATL@@@@@ATL@@XZ$5 100287d0 f   Color.obj
 0001:000277d9       __unwindfunclet$?GetStringData@CGraphColor@@QBE?AV?$CStringT@DV?$StrTraitMFC_DLL@DV?$ChTraitsCRT@D@ATL@@@@@ATL@@XZ$19 100287d9 f   Color.obj
 0001:000277f3       __unwindfunclet$?GetStringData@CGraphColor@@QBE?AV?$CStringT@DV?$StrTraitMFC_DLL@DV?$ChTraitsCRT@D@ATL@@@@@ATL@@XZ$7 100287f3 f   Color.obj
 0001:000277fc       __unwindfunclet$?GetStringData@CGraphColor@@QBE?AV?$CStringT@DV?$StrTraitMFC_DLL@DV?$ChTraitsCRT@D@ATL@@@@@ATL@@XZ$20 100287fc f   Color.obj
 0001:00027816       __unwindfunclet$?GetStringData@CGraphColor@@QBE?AV?$CStringT@DV?$StrTraitMFC_DLL@DV?$ChTraitsCRT@D@ATL@@@@@ATL@@XZ$9 10028816 f   Color.obj
 0001:0002781f       __unwindfunclet$?GetStringData@CGraphColor@@QBE?AV?$CStringT@DV?$StrTraitMFC_DLL@DV?$ChTraitsCRT@D@ATL@@@@@ATL@@XZ$21 1002881f f   Color.obj
 0001:00027839       __unwindfunclet$?GetStringData@CGraphColor@@QBE?AV?$CStringT@DV?$StrTraitMFC_DLL@DV?$ChTraitsCRT@D@ATL@@@@@ATL@@XZ$11 10028839 f   Color.obj
 0001:00027842       __unwindfunclet$?GetStringData@CGraphColor@@QBE?AV?$CStringT@DV?$StrTraitMFC_DLL@DV?$ChTraitsCRT@D@ATL@@@@@ATL@@XZ$22 10028842 f   Color.obj
 0001:0002785c       __unwindfunclet$?GetStringData@CGraphColor@@QBE?AV?$CStringT@DV?$StrTraitMFC_DLL@DV?$ChTraitsCRT@D@ATL@@@@@ATL@@XZ$13 1002885c f   Color.obj
 0001:00027865       __unwindfunclet$?GetStringData@CGraphColor@@QBE?AV?$CStringT@DV?$StrTraitMFC_DLL@DV?$ChTraitsCRT@D@ATL@@@@@ATL@@XZ$23 10028865 f   Color.obj
 0001:00027884       __unwindfunclet$?GetStringData@CGraphColor@@QBE?AV?$CStringT@DV?$StrTraitMFC_DLL@DV?$ChTraitsCRT@D@ATL@@@@@ATL@@XZ$15 10028884 f   Color.obj
 0001:0002788d       __unwindfunclet$?GetStringData@CGraphColor@@QBE?AV?$CStringT@DV?$StrTraitMFC_DLL@DV?$ChTraitsCRT@D@ATL@@@@@ATL@@XZ$24 1002888d f   Color.obj
 0001:000278b1       __ehhandler$?GetStringData@CGraphColor@@QBE?AV?$CStringT@DV?$StrTraitMFC_DLL@DV?$ChTraitsCRT@D@ATL@@@@@ATL@@XZ 100288b1 f   Color.obj
 0001:000278d0       __unwindfunclet$?SetData@CGraphColor@@QAEXABV?$CStringT@DV?$StrTraitMFC_DLL@DV?$ChTraitsCRT@D@ATL@@@@@ATL@@@Z$0 100288d0 f   Color.obj
 0001:000278d9       __unwindfunclet$?SetData@CGraphColor@@QAEXABV?$CStringT@DV?$StrTraitMFC_DLL@DV?$ChTraitsCRT@D@ATL@@@@@ATL@@@Z$1 100288d9 f   Color.obj
 0001:000278e2       __unwindfunclet$?SetData@CGraphColor@@QAEXABV?$CStringT@DV?$StrTraitMFC_DLL@DV?$ChTraitsCRT@D@ATL@@@@@ATL@@@Z$2 100288e2 f   Color.obj
 0001:000278eb       __unwindfunclet$?SetData@CGraphColor@@QAEXABV?$CStringT@DV?$StrTraitMFC_DLL@DV?$ChTraitsCRT@D@ATL@@@@@ATL@@@Z$3 100288eb f   Color.obj
 0001:000278f4       __unwindfunclet$?SetData@CGraphColor@@QAEXABV?$CStringT@DV?$StrTraitMFC_DLL@DV?$ChTraitsCRT@D@ATL@@@@@ATL@@@Z$4 100288f4 f   Color.obj
 0001:000278fd       __unwindfunclet$?SetData@CGraphColor@@QAEXABV?$CStringT@DV?$StrTraitMFC_DLL@DV?$ChTraitsCRT@D@ATL@@@@@ATL@@@Z$5 100288fd f   Color.obj
 0001:00027906       __unwindfunclet$?SetData@CGraphColor@@QAEXABV?$CStringT@DV?$StrTraitMFC_DLL@DV?$ChTraitsCRT@D@ATL@@@@@ATL@@@Z$6 10028906 f   Color.obj
 0001:0002790f       __unwindfunclet$?SetData@CGraphColor@@QAEXABV?$CStringT@DV?$StrTraitMFC_DLL@DV?$ChTraitsCRT@D@ATL@@@@@ATL@@@Z$7 1002890f f   Color.obj
 0001:00027918       __unwindfunclet$?SetData@CGraphColor@@QAEXABV?$CStringT@DV?$StrTraitMFC_DLL@DV?$ChTraitsCRT@D@ATL@@@@@ATL@@@Z$8 10028918 f   Color.obj
 0001:00027921       __unwindfunclet$?SetData@CGraphColor@@QAEXABV?$CStringT@DV?$StrTraitMFC_DLL@DV?$ChTraitsCRT@D@ATL@@@@@ATL@@@Z$9 10028921 f   Color.obj
 0001:0002792a       __unwindfunclet$?SetData@CGraphColor@@QAEXABV?$CStringT@DV?$StrTraitMFC_DLL@DV?$ChTraitsCRT@D@ATL@@@@@ATL@@@Z$10 1002892a f   Color.obj
 0001:00027933       __unwindfunclet$?SetData@CGraphColor@@QAEXABV?$CStringT@DV?$StrTraitMFC_DLL@DV?$ChTraitsCRT@D@ATL@@@@@ATL@@@Z$11 10028933 f   Color.obj
 0001:0002793c       __unwindfunclet$?SetData@CGraphColor@@QAEXABV?$CStringT@DV?$StrTraitMFC_DLL@DV?$ChTraitsCRT@D@ATL@@@@@ATL@@@Z$12 1002893c f   Color.obj
 0001:00027945       __unwindfunclet$?SetData@CGraphColor@@QAEXABV?$CStringT@DV?$StrTraitMFC_DLL@DV?$ChTraitsCRT@D@ATL@@@@@ATL@@@Z$13 10028945 f   Color.obj
 0001:0002794e       __unwindfunclet$?SetData@CGraphColor@@QAEXABV?$CStringT@DV?$StrTraitMFC_DLL@DV?$ChTraitsCRT@D@ATL@@@@@ATL@@@Z$14 1002894e f   Color.obj
 0001:00027957       __unwindfunclet$?SetData@CGraphColor@@QAEXABV?$CStringT@DV?$StrTraitMFC_DLL@DV?$ChTraitsCRT@D@ATL@@@@@ATL@@@Z$15 10028957 f   Color.obj
 0001:00027960       __unwindfunclet$?SetData@CGraphColor@@QAEXABV?$CStringT@DV?$StrTraitMFC_DLL@DV?$ChTraitsCRT@D@ATL@@@@@ATL@@@Z$16 10028960 f   Color.obj
 0001:0002796e       __ehhandler$?SetData@CGraphColor@@QAEXABV?$CStringT@DV?$StrTraitMFC_DLL@DV?$ChTraitsCRT@D@ATL@@@@@ATL@@@Z 1002896e f   Color.obj
 0001:00027990       __unwindfunclet$??0CColorButton@@QAE@XZ$0 10028990 f   ColorButton.obj
 0001:00027998       __unwindfunclet$??0CColorButton@@QAE@XZ$1 10028998 f   ColorButton.obj
 0001:000279ac       __ehhandler$??0CColorButton@@QAE@XZ 100289ac f   ColorButton.obj
 0001:000279d0       __unwindfunclet$?DrawItem@CColorButton@@UAEXPAUtagDRAWITEMSTRUCT@@@Z$0 100289d0 f   ColorButton.obj
 0001:000279dd       __ehhandler$?DrawItem@CColorButton@@UAEXPAUtagDRAWITEMSTRUCT@@@Z 100289dd f   ColorButton.obj
 0001:00027a00       __unwindfunclet$??HATL@@YA?AV?$CStringT@DV?$StrTraitMFC_DLL@DV?$ChTraitsCRT@D@ATL@@@@@0@ABV10@0@Z$0 10028a00 f   Conversion.obj
 0001:00027a1f       __ehhandler$??HATL@@YA?AV?$CStringT@DV?$StrTraitMFC_DLL@DV?$ChTraitsCRT@D@ATL@@@@@0@ABV10@0@Z 10028a1f f   Conversion.obj
 0001:00027a40       __unwindfunclet$??HATL@@YA?AV?$CStringT@DV?$StrTraitMFC_DLL@DV?$ChTraitsCRT@D@ATL@@@@@0@DABV10@@Z$0 10028a40 f   Conversion.obj
 0001:00027a5f       __ehhandler$??HATL@@YA?AV?$CStringT@DV?$StrTraitMFC_DLL@DV?$ChTraitsCRT@D@ATL@@@@@0@DABV10@@Z 10028a5f f   Conversion.obj
 0001:00027a80       __unwindfunclet$?Bool2Str@CDataConversion@@SA?AV?$CStringT@DV?$StrTraitMFC_DLL@DV?$ChTraitsCRT@D@ATL@@@@@ATL@@H@Z$1 10028a80 f   Conversion.obj
 0001:00027a9f       __ehhandler$?Bool2Str@CDataConversion@@SA?AV?$CStringT@DV?$StrTraitMFC_DLL@DV?$ChTraitsCRT@D@ATL@@@@@ATL@@H@Z 10028a9f f   Conversion.obj
 0001:00027ac0       __unwindfunclet$?CalcDateFormat@CDataConversion@@SAHHHABV?$CStringT@DV?$StrTraitMFC_DLL@DV?$ChTraitsCRT@D@ATL@@@@@ATL@@HH@Z$0 10028ac0 f   Conversion.obj
 0001:00027ac9       __unwindfunclet$?CalcDateFormat@CDataConversion@@SAHHHABV?$CStringT@DV?$StrTraitMFC_DLL@DV?$ChTraitsCRT@D@ATL@@@@@ATL@@HH@Z$1 10028ac9 f   Conversion.obj
 0001:00027ad2       __unwindfunclet$?CalcDateFormat@CDataConversion@@SAHHHABV?$CStringT@DV?$StrTraitMFC_DLL@DV?$ChTraitsCRT@D@ATL@@@@@ATL@@HH@Z$3 10028ad2 f   Conversion.obj
 0001:00027adb       __unwindfunclet$?CalcDateFormat@CDataConversion@@SAHHHABV?$CStringT@DV?$StrTraitMFC_DLL@DV?$ChTraitsCRT@D@ATL@@@@@ATL@@HH@Z$5 10028adb f   Conversion.obj
 0001:00027ae4       __unwindfunclet$?CalcDateFormat@CDataConversion@@SAHHHABV?$CStringT@DV?$StrTraitMFC_DLL@DV?$ChTraitsCRT@D@ATL@@@@@ATL@@HH@Z$7 10028ae4 f   Conversion.obj
 0001:00027aed       __unwindfunclet$?CalcDateFormat@CDataConversion@@SAHHHABV?$CStringT@DV?$StrTraitMFC_DLL@DV?$ChTraitsCRT@D@ATL@@@@@ATL@@HH@Z$8 10028aed f   Conversion.obj
 0001:00027af6       __unwindfunclet$?CalcDateFormat@CDataConversion@@SAHHHABV?$CStringT@DV?$StrTraitMFC_DLL@DV?$ChTraitsCRT@D@ATL@@@@@ATL@@HH@Z$9 10028af6 f   Conversion.obj
 0001:00027aff       __unwindfunclet$?CalcDateFormat@CDataConversion@@SAHHHABV?$CStringT@DV?$StrTraitMFC_DLL@DV?$ChTraitsCRT@D@ATL@@@@@ATL@@HH@Z$10 10028aff f   Conversion.obj
 0001:00027b08       __unwindfunclet$?CalcDateFormat@CDataConversion@@SAHHHABV?$CStringT@DV?$StrTraitMFC_DLL@DV?$ChTraitsCRT@D@ATL@@@@@ATL@@HH@Z$11 10028b08 f   Conversion.obj
 0001:00027b16       __ehhandler$?CalcDateFormat@CDataConversion@@SAHHHABV?$CStringT@DV?$StrTraitMFC_DLL@DV?$ChTraitsCRT@D@ATL@@@@@ATL@@HH@Z 10028b16 f   Conversion.obj
 0001:00027b40       __unwindfunclet$?CalcTimeFormat@CDataConversion@@SAHHHABV?$CStringT@DV?$StrTraitMFC_DLL@DV?$ChTraitsCRT@D@ATL@@@@@ATL@@_N@Z$0 10028b40 f   Conversion.obj
 0001:00027b49       __unwindfunclet$?CalcTimeFormat@CDataConversion@@SAHHHABV?$CStringT@DV?$StrTraitMFC_DLL@DV?$ChTraitsCRT@D@ATL@@@@@ATL@@_N@Z$1 10028b49 f   Conversion.obj
 0001:00027b57       __ehhandler$?CalcTimeFormat@CDataConversion@@SAHHHABV?$CStringT@DV?$StrTraitMFC_DLL@DV?$ChTraitsCRT@D@ATL@@@@@ATL@@_N@Z 10028b57 f   Conversion.obj
 0001:00027b80       __unwindfunclet$?CalcTimeFormatforCharge@CDataConversion@@SAHHHABV?$CStringT@DV?$StrTraitMFC_DLL@DV?$ChTraitsCRT@D@ATL@@@@@ATL@@H_N@Z$2 10028b80 f   Conversion.obj
 0001:00027b89       __unwindfunclet$?CalcTimeFormatforCharge@CDataConversion@@SAHHHABV?$CStringT@DV?$StrTraitMFC_DLL@DV?$ChTraitsCRT@D@ATL@@@@@ATL@@H_N@Z$0 10028b89 f   Conversion.obj
 0001:00027b92       __unwindfunclet$?CalcTimeFormatforCharge@CDataConversion@@SAHHHABV?$CStringT@DV?$StrTraitMFC_DLL@DV?$ChTraitsCRT@D@ATL@@@@@ATL@@H_N@Z$1 10028b92 f   Conversion.obj
 0001:00027ba0       __ehhandler$?CalcTimeFormatforCharge@CDataConversion@@SAHHHABV?$CStringT@DV?$StrTraitMFC_DLL@DV?$ChTraitsCRT@D@ATL@@@@@ATL@@H_N@Z 10028ba0 f   Conversion.obj
 0001:00027bc0       __unwindfunclet$?DoubleToString@CDataConversion@@SA?AV?$CStringT@DV?$StrTraitMFC_DLL@DV?$ChTraitsCRT@D@ATL@@@@@ATL@@ABN@Z$0 10028bc0 f   Conversion.obj
 0001:00027bdf       __ehhandler$?DoubleToString@CDataConversion@@SA?AV?$CStringT@DV?$StrTraitMFC_DLL@DV?$ChTraitsCRT@D@ATL@@@@@ATL@@ABN@Z 10028bdf f   Conversion.obj
 0001:00027c00       __unwindfunclet$?DoubleToString@CDataConversion@@SA?AV?$CStringT@DV?$StrTraitMFC_DLL@DV?$ChTraitsCRT@D@ATL@@@@@ATL@@ABNH@Z$1 10028c00 f   Conversion.obj
 0001:00027c09       __unwindfunclet$?DoubleToString@CDataConversion@@SA?AV?$CStringT@DV?$StrTraitMFC_DLL@DV?$ChTraitsCRT@D@ATL@@@@@ATL@@ABNH@Z$2 10028c09 f   Conversion.obj
 0001:00027c12       __unwindfunclet$?DoubleToString@CDataConversion@@SA?AV?$CStringT@DV?$StrTraitMFC_DLL@DV?$ChTraitsCRT@D@ATL@@@@@ATL@@ABNH@Z$3 10028c12 f   Conversion.obj
 0001:00027c1b       __unwindfunclet$?DoubleToString@CDataConversion@@SA?AV?$CStringT@DV?$StrTraitMFC_DLL@DV?$ChTraitsCRT@D@ATL@@@@@ATL@@ABNH@Z$4 10028c1b f   Conversion.obj
 0001:00027c29       __ehhandler$?DoubleToString@CDataConversion@@SA?AV?$CStringT@DV?$StrTraitMFC_DLL@DV?$ChTraitsCRT@D@ATL@@@@@ATL@@ABNH@Z 10028c29 f   Conversion.obj
 0001:00027c50       __unwindfunclet$?GetAdditionDataInFormat@CDataConversion@@CA?AV?$CStringT@DV?$StrTraitMFC_DLL@DV?$ChTraitsCRT@D@ATL@@@@@ATL@@HHABV23@H@Z$1 10028c50 f   Conversion.obj
 0001:00027c59       __unwindfunclet$?GetAdditionDataInFormat@CDataConversion@@CA?AV?$CStringT@DV?$StrTraitMFC_DLL@DV?$ChTraitsCRT@D@ATL@@@@@ATL@@HHABV23@H@Z$2 10028c59 f   Conversion.obj
 0001:00027c62       __unwindfunclet$?GetAdditionDataInFormat@CDataConversion@@CA?AV?$CStringT@DV?$StrTraitMFC_DLL@DV?$ChTraitsCRT@D@ATL@@@@@ATL@@HHABV23@H@Z$3 10028c62 f   Conversion.obj
 0001:00027c6b       __unwindfunclet$?GetAdditionDataInFormat@CDataConversion@@CA?AV?$CStringT@DV?$StrTraitMFC_DLL@DV?$ChTraitsCRT@D@ATL@@@@@ATL@@HHABV23@H@Z$4 10028c6b f   Conversion.obj
 0001:00027c74       __unwindfunclet$?GetAdditionDataInFormat@CDataConversion@@CA?AV?$CStringT@DV?$StrTraitMFC_DLL@DV?$ChTraitsCRT@D@ATL@@@@@ATL@@HHABV23@H@Z$5 10028c74 f   Conversion.obj
 0001:00027c7d       __unwindfunclet$?GetAdditionDataInFormat@CDataConversion@@CA?AV?$CStringT@DV?$StrTraitMFC_DLL@DV?$ChTraitsCRT@D@ATL@@@@@ATL@@HHABV23@H@Z$6 10028c7d f   Conversion.obj
 0001:00027c86       __unwindfunclet$?GetAdditionDataInFormat@CDataConversion@@CA?AV?$CStringT@DV?$StrTraitMFC_DLL@DV?$ChTraitsCRT@D@ATL@@@@@ATL@@HHABV23@H@Z$7 10028c86 f   Conversion.obj
 0001:00027c94       __ehhandler$?GetAdditionDataInFormat@CDataConversion@@CA?AV?$CStringT@DV?$StrTraitMFC_DLL@DV?$ChTraitsCRT@D@ATL@@@@@ATL@@HHABV23@H@Z 10028c94 f   Conversion.obj
 0001:00027cc0       __unwindfunclet$?GetAllTime_Minute@CDataConversion@@CA_NHHABV?$CStringT@DV?$StrTraitMFC_DLL@DV?$ChTraitsCRT@D@ATL@@@@@ATL@@AAH1AA_N@Z$0 10028cc0 f   Conversion.obj
 0001:00027cc9       __unwindfunclet$?GetAllTime_Minute@CDataConversion@@CA_NHHABV?$CStringT@DV?$StrTraitMFC_DLL@DV?$ChTraitsCRT@D@ATL@@@@@ATL@@AAH1AA_N@Z$1 10028cc9 f   Conversion.obj
 0001:00027cd7       __ehhandler$?GetAllTime_Minute@CDataConversion@@CA_NHHABV?$CStringT@DV?$StrTraitMFC_DLL@DV?$ChTraitsCRT@D@ATL@@@@@ATL@@AAH1AA_N@Z 10028cd7 f   Conversion.obj
 0001:00027d00       __unwindfunclet$?GetAllTime_TimePart@CDataConversion@@CA_NHHABV?$CStringT@DV?$StrTraitMFC_DLL@DV?$ChTraitsCRT@D@ATL@@@@@ATL@@AAH111@Z$0 10028d00 f   Conversion.obj
 0001:00027d09       __unwindfunclet$?GetAllTime_TimePart@CDataConversion@@CA_NHHABV?$CStringT@DV?$StrTraitMFC_DLL@DV?$ChTraitsCRT@D@ATL@@@@@ATL@@AAH111@Z$1 10028d09 f   Conversion.obj
 0001:00027d17       __ehhandler$?GetAllTime_TimePart@CDataConversion@@CA_NHHABV?$CStringT@DV?$StrTraitMFC_DLL@DV?$ChTraitsCRT@D@ATL@@@@@ATL@@AAH111@Z 10028d17 f   Conversion.obj
 0001:00027d40       __unwindfunclet$?GetChangeFormat_NumCharUnit@CDataConversion@@SA?AV?$CStringT@DV?$StrTraitMFC_DLL@DV?$ChTraitsCRT@D@ATL@@@@@ATL@@ABV23@@Z$0 10028d40 f   Conversion.obj
 0001:00027d5f       __ehhandler$?GetChangeFormat_NumCharUnit@CDataConversion@@SA?AV?$CStringT@DV?$StrTraitMFC_DLL@DV?$ChTraitsCRT@D@ATL@@@@@ATL@@ABV23@@Z 10028d5f f   Conversion.obj
 0001:00027d80       __unwindfunclet$?GetCompartType@CDataConversion@@SA?AV?$CStringT@DV?$StrTraitMFC_DLL@DV?$ChTraitsCRT@D@ATL@@@@@ATL@@ABV23@00@Z$0 10028d80 f   Conversion.obj
 0001:00027d89       __unwindfunclet$?GetCompartType@CDataConversion@@SA?AV?$CStringT@DV?$StrTraitMFC_DLL@DV?$ChTraitsCRT@D@ATL@@@@@ATL@@ABV23@00@Z$1 10028d89 f   Conversion.obj
 0001:00027d92       __unwindfunclet$?GetCompartType@CDataConversion@@SA?AV?$CStringT@DV?$StrTraitMFC_DLL@DV?$ChTraitsCRT@D@ATL@@@@@ATL@@ABV23@00@Z$2 10028d92 f   Conversion.obj
 0001:00027da0       __ehhandler$?GetCompartType@CDataConversion@@SA?AV?$CStringT@DV?$StrTraitMFC_DLL@DV?$ChTraitsCRT@D@ATL@@@@@ATL@@ABV23@00@Z 10028da0 f   Conversion.obj
 0001:00027dc0       __unwindfunclet$?GetDataType@CDataConversion@@SANV?$CStringT@DV?$StrTraitMFC_DLL@DV?$ChTraitsCRT@D@ATL@@@@@ATL@@@Z$0 10028dc0 f   Conversion.obj
 0001:00027dce       __ehhandler$?GetDataType@CDataConversion@@SANV?$CStringT@DV?$StrTraitMFC_DLL@DV?$ChTraitsCRT@D@ATL@@@@@ATL@@@Z 10028dce f   Conversion.obj
 0001:00027df0       __unwindfunclet$?GetDecimalDownCount@CDataConversion@@SAHABV?$CStringT@DV?$StrTraitMFC_DLL@DV?$ChTraitsCRT@D@ATL@@@@@ATL@@_N@Z$0 10028df0 f   Conversion.obj
 0001:00027df9       __unwindfunclet$?GetDecimalDownCount@CDataConversion@@SAHABV?$CStringT@DV?$StrTraitMFC_DLL@DV?$ChTraitsCRT@D@ATL@@@@@ATL@@_N@Z$3 10028df9 f   Conversion.obj
 0001:00027e02       __unwindfunclet$?GetDecimalDownCount@CDataConversion@@SAHABV?$CStringT@DV?$StrTraitMFC_DLL@DV?$ChTraitsCRT@D@ATL@@@@@ATL@@_N@Z$1 10028e02 f   Conversion.obj
 0001:00027e10       __ehhandler$?GetDecimalDownCount@CDataConversion@@SAHABV?$CStringT@DV?$StrTraitMFC_DLL@DV?$ChTraitsCRT@D@ATL@@@@@ATL@@_N@Z 10028e10 f   Conversion.obj
 0001:00027e30       __unwindfunclet$?GetMidToTrimDataEndIndex@CDataConversion@@SA?AV?$CStringT@DV?$StrTraitMFC_DLL@DV?$ChTraitsCRT@D@ATL@@@@@ATL@@ABV23@0H_N1@Z$1 10028e30 f   Conversion.obj
 0001:00027e4f       __ehhandler$?GetMidToTrimDataEndIndex@CDataConversion@@SA?AV?$CStringT@DV?$StrTraitMFC_DLL@DV?$ChTraitsCRT@D@ATL@@@@@ATL@@ABV23@0H_N1@Z 10028e4f f   Conversion.obj
 0001:00027e70       __unwindfunclet$?GetMidToTrimDataIndex@CDataConversion@@SA?AV?$CStringT@DV?$StrTraitMFC_DLL@DV?$ChTraitsCRT@D@ATL@@@@@ATL@@ABV23@0H_N@Z$2 10028e70 f   Conversion.obj
 0001:00027e8f       __ehhandler$?GetMidToTrimDataIndex@CDataConversion@@SA?AV?$CStringT@DV?$StrTraitMFC_DLL@DV?$ChTraitsCRT@D@ATL@@@@@ATL@@ABV23@0H_N@Z 10028e8f f   Conversion.obj
 0001:00027eb0       __unwindfunclet$?GetStringData@CDataConversion@@SA?AV?$CStringT@DV?$StrTraitMFC_DLL@DV?$ChTraitsCRT@D@ATL@@@@@ATL@@AAV23@ABV23@1_N@Z$2 10028eb0 f   Conversion.obj
 0001:00027eb9       __unwindfunclet$?GetStringData@CDataConversion@@SA?AV?$CStringT@DV?$StrTraitMFC_DLL@DV?$ChTraitsCRT@D@ATL@@@@@ATL@@AAV23@ABV23@1_N@Z$3 10028eb9 f   Conversion.obj
 0001:00027ec7       __ehhandler$?GetStringData@CDataConversion@@SA?AV?$CStringT@DV?$StrTraitMFC_DLL@DV?$ChTraitsCRT@D@ATL@@@@@ATL@@AAV23@ABV23@1_N@Z 10028ec7 f   Conversion.obj
 0001:00027ef0       __unwindfunclet$?GetStringData@CDataConversion@@SA?AV?$CStringT@DV?$StrTraitMFC_DLL@DV?$ChTraitsCRT@D@ATL@@@@@ATL@@AAV23@ABV23@H@Z$1 10028ef0 f   Conversion.obj
 0001:00027ef9       __unwindfunclet$?GetStringData@CDataConversion@@SA?AV?$CStringT@DV?$StrTraitMFC_DLL@DV?$ChTraitsCRT@D@ATL@@@@@ATL@@AAV23@ABV23@H@Z$2 10028ef9 f   Conversion.obj
 0001:00027f02       __unwindfunclet$?GetStringData@CDataConversion@@SA?AV?$CStringT@DV?$StrTraitMFC_DLL@DV?$ChTraitsCRT@D@ATL@@@@@ATL@@AAV23@ABV23@H@Z$3 10028f02 f   Conversion.obj
 0001:00027f0b       __unwindfunclet$?GetStringData@CDataConversion@@SA?AV?$CStringT@DV?$StrTraitMFC_DLL@DV?$ChTraitsCRT@D@ATL@@@@@ATL@@AAV23@ABV23@H@Z$4 10028f0b f   Conversion.obj
 0001:00027f19       __ehhandler$?GetStringData@CDataConversion@@SA?AV?$CStringT@DV?$StrTraitMFC_DLL@DV?$ChTraitsCRT@D@ATL@@@@@ATL@@AAV23@ABV23@H@Z 10028f19 f   Conversion.obj
 0001:00027f40       __unwindfunclet$?GetStringData@CDataConversion@@SA?AV?$CStringT@DV?$StrTraitMFC_DLL@DV?$ChTraitsCRT@D@ATL@@@@@ATL@@AAV23@ABV23@_N@Z$1 10028f40 f   Conversion.obj
 0001:00027f49       __unwindfunclet$?GetStringData@CDataConversion@@SA?AV?$CStringT@DV?$StrTraitMFC_DLL@DV?$ChTraitsCRT@D@ATL@@@@@ATL@@AAV23@ABV23@_N@Z$2 10028f49 f   Conversion.obj
 0001:00027f52       __unwindfunclet$?GetStringData@CDataConversion@@SA?AV?$CStringT@DV?$StrTraitMFC_DLL@DV?$ChTraitsCRT@D@ATL@@@@@ATL@@AAV23@ABV23@_N@Z$3 10028f52 f   Conversion.obj
 0001:00027f60       __ehhandler$?GetStringData@CDataConversion@@SA?AV?$CStringT@DV?$StrTraitMFC_DLL@DV?$ChTraitsCRT@D@ATL@@@@@ATL@@AAV23@ABV23@_N@Z 10028f60 f   Conversion.obj
 0001:00027f80       __unwindfunclet$?GetStringDataCount@CDataConversion@@SAHABV?$CStringT@DV?$StrTraitMFC_DLL@DV?$ChTraitsCRT@D@ATL@@@@@ATL@@0@Z$0 10028f80 f   Conversion.obj
 0001:00027f8e       __ehhandler$?GetStringDataCount@CDataConversion@@SAHABV?$CStringT@DV?$StrTraitMFC_DLL@DV?$ChTraitsCRT@D@ATL@@@@@ATL@@0@Z 10028f8e f   Conversion.obj
 0001:00027fc0       __unwindfunclet$?GetStringFormatTrans@CDataConversion@@SA?AV?$CStringT@DV?$StrTraitMFC_DLL@DV?$ChTraitsCRT@D@ATL@@@@@ATL@@ABV23@000@Z$0 10028fc0 f   Conversion.obj
 0001:00027fc9       __unwindfunclet$?GetStringFormatTrans@CDataConversion@@SA?AV?$CStringT@DV?$StrTraitMFC_DLL@DV?$ChTraitsCRT@D@ATL@@@@@ATL@@ABV23@000@Z$1 10028fc9 f   Conversion.obj
 0001:00027fd2       __unwindfunclet$?GetStringFormatTrans@CDataConversion@@SA?AV?$CStringT@DV?$StrTraitMFC_DLL@DV?$ChTraitsCRT@D@ATL@@@@@ATL@@ABV23@000@Z$2 10028fd2 f   Conversion.obj
 0001:00027fdb       __unwindfunclet$?GetStringFormatTrans@CDataConversion@@SA?AV?$CStringT@DV?$StrTraitMFC_DLL@DV?$ChTraitsCRT@D@ATL@@@@@ATL@@ABV23@000@Z$3 10028fdb f   Conversion.obj
 0001:00027fe4       __unwindfunclet$?GetStringFormatTrans@CDataConversion@@SA?AV?$CStringT@DV?$StrTraitMFC_DLL@DV?$ChTraitsCRT@D@ATL@@@@@ATL@@ABV23@000@Z$4 10028fe4 f   Conversion.obj
 0001:00027fed       __unwindfunclet$?GetStringFormatTrans@CDataConversion@@SA?AV?$CStringT@DV?$StrTraitMFC_DLL@DV?$ChTraitsCRT@D@ATL@@@@@ATL@@ABV23@000@Z$5 10028fed f   Conversion.obj
 0001:00027ffb       __ehhandler$?GetStringFormatTrans@CDataConversion@@SA?AV?$CStringT@DV?$StrTraitMFC_DLL@DV?$ChTraitsCRT@D@ATL@@@@@ATL@@ABV23@000@Z 10028ffb f   Conversion.obj
 0001:00028020       __unwindfunclet$?GetStringFormatTrans@CDataConversion@@SA?AV?$CStringT@DV?$StrTraitMFC_DLL@DV?$ChTraitsCRT@D@ATL@@@@@ATL@@ABV23@0@Z$1 10029020 f   Conversion.obj
 0001:00028029       __unwindfunclet$?GetStringFormatTrans@CDataConversion@@SA?AV?$CStringT@DV?$StrTraitMFC_DLL@DV?$ChTraitsCRT@D@ATL@@@@@ATL@@ABV23@0@Z$2 10029029 f   Conversion.obj
 0001:00028032       __unwindfunclet$?GetStringFormatTrans@CDataConversion@@SA?AV?$CStringT@DV?$StrTraitMFC_DLL@DV?$ChTraitsCRT@D@ATL@@@@@ATL@@ABV23@0@Z$8 10029032 f   Conversion.obj
 0001:0002803b       __unwindfunclet$?GetStringFormatTrans@CDataConversion@@SA?AV?$CStringT@DV?$StrTraitMFC_DLL@DV?$ChTraitsCRT@D@ATL@@@@@ATL@@ABV23@0@Z$9 1002903b f   Conversion.obj
 0001:00028044       __unwindfunclet$?GetStringFormatTrans@CDataConversion@@SA?AV?$CStringT@DV?$StrTraitMFC_DLL@DV?$ChTraitsCRT@D@ATL@@@@@ATL@@ABV23@0@Z$10 10029044 f   Conversion.obj
 0001:0002804d       __unwindfunclet$?GetStringFormatTrans@CDataConversion@@SA?AV?$CStringT@DV?$StrTraitMFC_DLL@DV?$ChTraitsCRT@D@ATL@@@@@ATL@@ABV23@0@Z$11 1002904d f   Conversion.obj
 0001:00028056       __unwindfunclet$?GetStringFormatTrans@CDataConversion@@SA?AV?$CStringT@DV?$StrTraitMFC_DLL@DV?$ChTraitsCRT@D@ATL@@@@@ATL@@ABV23@0@Z$12 10029056 f   Conversion.obj
 0001:0002805f       __unwindfunclet$?GetStringFormatTrans@CDataConversion@@SA?AV?$CStringT@DV?$StrTraitMFC_DLL@DV?$ChTraitsCRT@D@ATL@@@@@ATL@@ABV23@0@Z$13 1002905f f   Conversion.obj
 0001:00028068       __unwindfunclet$?GetStringFormatTrans@CDataConversion@@SA?AV?$CStringT@DV?$StrTraitMFC_DLL@DV?$ChTraitsCRT@D@ATL@@@@@ATL@@ABV23@0@Z$3 10029068 f   Conversion.obj
 0001:00028071       __unwindfunclet$?GetStringFormatTrans@CDataConversion@@SA?AV?$CStringT@DV?$StrTraitMFC_DLL@DV?$ChTraitsCRT@D@ATL@@@@@ATL@@ABV23@0@Z$4 10029071 f   Conversion.obj
 0001:0002808b       __unwindfunclet$?GetStringFormatTrans@CDataConversion@@SA?AV?$CStringT@DV?$StrTraitMFC_DLL@DV?$ChTraitsCRT@D@ATL@@@@@ATL@@ABV23@0@Z$5 1002908b f   Conversion.obj
 0001:00028094       __unwindfunclet$?GetStringFormatTrans@CDataConversion@@SA?AV?$CStringT@DV?$StrTraitMFC_DLL@DV?$ChTraitsCRT@D@ATL@@@@@ATL@@ABV23@0@Z$16 10029094 f   Conversion.obj
 0001:0002809d       __unwindfunclet$?GetStringFormatTrans@CDataConversion@@SA?AV?$CStringT@DV?$StrTraitMFC_DLL@DV?$ChTraitsCRT@D@ATL@@@@@ATL@@ABV23@0@Z$19 1002909d f   Conversion.obj
 0001:000280a6       __unwindfunclet$?GetStringFormatTrans@CDataConversion@@SA?AV?$CStringT@DV?$StrTraitMFC_DLL@DV?$ChTraitsCRT@D@ATL@@@@@ATL@@ABV23@0@Z$17 100290a6 f   Conversion.obj
 0001:000280af       __unwindfunclet$?GetStringFormatTrans@CDataConversion@@SA?AV?$CStringT@DV?$StrTraitMFC_DLL@DV?$ChTraitsCRT@D@ATL@@@@@ATL@@ABV23@0@Z$6 100290af f   Conversion.obj
 0001:000280b8       __unwindfunclet$?GetStringFormatTrans@CDataConversion@@SA?AV?$CStringT@DV?$StrTraitMFC_DLL@DV?$ChTraitsCRT@D@ATL@@@@@ATL@@ABV23@0@Z$7 100290b8 f   Conversion.obj
 0001:000280c6       __ehhandler$?GetStringFormatTrans@CDataConversion@@SA?AV?$CStringT@DV?$StrTraitMFC_DLL@DV?$ChTraitsCRT@D@ATL@@@@@ATL@@ABV23@0@Z 100290c6 f   Conversion.obj
 0001:000280f0       __unwindfunclet$?GetStringFormatTransCutoff@CDataConversion@@SAHABN0AAV?$CStringT@DV?$StrTraitMFC_DLL@DV?$ChTraitsCRT@D@ATL@@@@@ATL@@1@Z$0 100290f0 f   Conversion.obj
 0001:000280fe       __ehhandler$?GetStringFormatTransCutoff@CDataConversion@@SAHABN0AAV?$CStringT@DV?$StrTraitMFC_DLL@DV?$ChTraitsCRT@D@ATL@@@@@ATL@@1@Z 100290fe f   Conversion.obj
 0001:00028120       __unwindfunclet$?GetStringFormatTransCutoff@CDataConversion@@SAHABNABV?$CStringT@DV?$StrTraitMFC_DLL@DV?$ChTraitsCRT@D@ATL@@@@@ATL@@AAV23@2@Z$0 10029120 f   Conversion.obj
 0001:00028129       __unwindfunclet$?GetStringFormatTransCutoff@CDataConversion@@SAHABNABV?$CStringT@DV?$StrTraitMFC_DLL@DV?$ChTraitsCRT@D@ATL@@@@@ATL@@AAV23@2@Z$1 10029129 f   Conversion.obj
 0001:00028132       __unwindfunclet$?GetStringFormatTransCutoff@CDataConversion@@SAHABNABV?$CStringT@DV?$StrTraitMFC_DLL@DV?$ChTraitsCRT@D@ATL@@@@@ATL@@AAV23@2@Z$2 10029132 f   Conversion.obj
 0001:0002814c       __unwindfunclet$?GetStringFormatTransCutoff@CDataConversion@@SAHABNABV?$CStringT@DV?$StrTraitMFC_DLL@DV?$ChTraitsCRT@D@ATL@@@@@ATL@@AAV23@2@Z$3 1002914c f   Conversion.obj
 0001:00028166       __unwindfunclet$?GetStringFormatTransCutoff@CDataConversion@@SAHABNABV?$CStringT@DV?$StrTraitMFC_DLL@DV?$ChTraitsCRT@D@ATL@@@@@ATL@@AAV23@2@Z$4 10029166 f   Conversion.obj
 0001:0002816f       __unwindfunclet$?GetStringFormatTransCutoff@CDataConversion@@SAHABNABV?$CStringT@DV?$StrTraitMFC_DLL@DV?$ChTraitsCRT@D@ATL@@@@@ATL@@AAV23@2@Z$5 1002916f f   Conversion.obj
 0001:00028178       __unwindfunclet$?GetStringFormatTransCutoff@CDataConversion@@SAHABNABV?$CStringT@DV?$StrTraitMFC_DLL@DV?$ChTraitsCRT@D@ATL@@@@@ATL@@AAV23@2@Z$6 10029178 f   Conversion.obj
 0001:00028181       __unwindfunclet$?GetStringFormatTransCutoff@CDataConversion@@SAHABNABV?$CStringT@DV?$StrTraitMFC_DLL@DV?$ChTraitsCRT@D@ATL@@@@@ATL@@AAV23@2@Z$7 10029181 f   Conversion.obj
 0001:0002819b       __unwindfunclet$?GetStringFormatTransCutoff@CDataConversion@@SAHABNABV?$CStringT@DV?$StrTraitMFC_DLL@DV?$ChTraitsCRT@D@ATL@@@@@ATL@@AAV23@2@Z$8 1002919b f   Conversion.obj
 0001:000281a4       __unwindfunclet$?GetStringFormatTransCutoff@CDataConversion@@SAHABNABV?$CStringT@DV?$StrTraitMFC_DLL@DV?$ChTraitsCRT@D@ATL@@@@@ATL@@AAV23@2@Z$9 100291a4 f   Conversion.obj
 0001:000281ad       __unwindfunclet$?GetStringFormatTransCutoff@CDataConversion@@SAHABNABV?$CStringT@DV?$StrTraitMFC_DLL@DV?$ChTraitsCRT@D@ATL@@@@@ATL@@AAV23@2@Z$10 100291ad f   Conversion.obj
 0001:000281b6       __unwindfunclet$?GetStringFormatTransCutoff@CDataConversion@@SAHABNABV?$CStringT@DV?$StrTraitMFC_DLL@DV?$ChTraitsCRT@D@ATL@@@@@ATL@@AAV23@2@Z$11 100291b6 f   Conversion.obj
 0001:000281d0       __unwindfunclet$?GetStringFormatTransCutoff@CDataConversion@@SAHABNABV?$CStringT@DV?$StrTraitMFC_DLL@DV?$ChTraitsCRT@D@ATL@@@@@ATL@@AAV23@2@Z$13 100291d0 f   Conversion.obj
 0001:000281d9       __unwindfunclet$?GetStringFormatTransCutoff@CDataConversion@@SAHABNABV?$CStringT@DV?$StrTraitMFC_DLL@DV?$ChTraitsCRT@D@ATL@@@@@ATL@@AAV23@2@Z$14 100291d9 f   Conversion.obj
 0001:000281e2       __unwindfunclet$?GetStringFormatTransCutoff@CDataConversion@@SAHABNABV?$CStringT@DV?$StrTraitMFC_DLL@DV?$ChTraitsCRT@D@ATL@@@@@ATL@@AAV23@2@Z$15 100291e2 f   Conversion.obj
 0001:000281eb       __unwindfunclet$?GetStringFormatTransCutoff@CDataConversion@@SAHABNABV?$CStringT@DV?$StrTraitMFC_DLL@DV?$ChTraitsCRT@D@ATL@@@@@ATL@@AAV23@2@Z$16 100291eb f   Conversion.obj
 0001:000281f4       __unwindfunclet$?GetStringFormatTransCutoff@CDataConversion@@SAHABNABV?$CStringT@DV?$StrTraitMFC_DLL@DV?$ChTraitsCRT@D@ATL@@@@@ATL@@AAV23@2@Z$17 100291f4 f   Conversion.obj
 0001:000281fd       __unwindfunclet$?GetStringFormatTransCutoff@CDataConversion@@SAHABNABV?$CStringT@DV?$StrTraitMFC_DLL@DV?$ChTraitsCRT@D@ATL@@@@@ATL@@AAV23@2@Z$18 100291fd f   Conversion.obj
 0001:00028206       __unwindfunclet$?GetStringFormatTransCutoff@CDataConversion@@SAHABNABV?$CStringT@DV?$StrTraitMFC_DLL@DV?$ChTraitsCRT@D@ATL@@@@@ATL@@AAV23@2@Z$19 10029206 f   Conversion.obj
 0001:0002820f       __unwindfunclet$?GetStringFormatTransCutoff@CDataConversion@@SAHABNABV?$CStringT@DV?$StrTraitMFC_DLL@DV?$ChTraitsCRT@D@ATL@@@@@ATL@@AAV23@2@Z$20 1002920f f   Conversion.obj
 0001:0002821d       __ehhandler$?GetStringFormatTransCutoff@CDataConversion@@SAHABNABV?$CStringT@DV?$StrTraitMFC_DLL@DV?$ChTraitsCRT@D@ATL@@@@@ATL@@AAV23@2@Z 1002921d f   Conversion.obj
 0001:00028240       __unwindfunclet$?GetStringFormatbyCompart@CDataConversion@@SA?AV?$CStringT@DV?$StrTraitMFC_DLL@DV?$ChTraitsCRT@D@ATL@@@@@ATL@@ABV23@AAV23@001@Z$1 10029240 f   Conversion.obj
 0001:00028249       __unwindfunclet$?GetStringFormatbyCompart@CDataConversion@@SA?AV?$CStringT@DV?$StrTraitMFC_DLL@DV?$ChTraitsCRT@D@ATL@@@@@ATL@@ABV23@AAV23@001@Z$2 10029249 f   Conversion.obj
 0001:00028252       __unwindfunclet$?GetStringFormatbyCompart@CDataConversion@@SA?AV?$CStringT@DV?$StrTraitMFC_DLL@DV?$ChTraitsCRT@D@ATL@@@@@ATL@@ABV23@AAV23@001@Z$11 10029252 f   Conversion.obj
 0001:0002826c       __unwindfunclet$?GetStringFormatbyCompart@CDataConversion@@SA?AV?$CStringT@DV?$StrTraitMFC_DLL@DV?$ChTraitsCRT@D@ATL@@@@@ATL@@ABV23@AAV23@001@Z$4 1002926c f   Conversion.obj
 0001:00028275       __unwindfunclet$?GetStringFormatbyCompart@CDataConversion@@SA?AV?$CStringT@DV?$StrTraitMFC_DLL@DV?$ChTraitsCRT@D@ATL@@@@@ATL@@ABV23@AAV23@001@Z$5 10029275 f   Conversion.obj
 0001:0002827e       __unwindfunclet$?GetStringFormatbyCompart@CDataConversion@@SA?AV?$CStringT@DV?$StrTraitMFC_DLL@DV?$ChTraitsCRT@D@ATL@@@@@ATL@@ABV23@AAV23@001@Z$12 1002927e f   Conversion.obj
 0001:00028287       __unwindfunclet$?GetStringFormatbyCompart@CDataConversion@@SA?AV?$CStringT@DV?$StrTraitMFC_DLL@DV?$ChTraitsCRT@D@ATL@@@@@ATL@@ABV23@AAV23@001@Z$13 10029287 f   Conversion.obj
 0001:00028290       __unwindfunclet$?GetStringFormatbyCompart@CDataConversion@@SA?AV?$CStringT@DV?$StrTraitMFC_DLL@DV?$ChTraitsCRT@D@ATL@@@@@ATL@@ABV23@AAV23@001@Z$14 10029290 f   Conversion.obj
 0001:00028299       __unwindfunclet$?GetStringFormatbyCompart@CDataConversion@@SA?AV?$CStringT@DV?$StrTraitMFC_DLL@DV?$ChTraitsCRT@D@ATL@@@@@ATL@@ABV23@AAV23@001@Z$6 10029299 f   Conversion.obj
 0001:000282a2       __unwindfunclet$?GetStringFormatbyCompart@CDataConversion@@SA?AV?$CStringT@DV?$StrTraitMFC_DLL@DV?$ChTraitsCRT@D@ATL@@@@@ATL@@ABV23@AAV23@001@Z$7 100292a2 f   Conversion.obj
 0001:000282ab       __unwindfunclet$?GetStringFormatbyCompart@CDataConversion@@SA?AV?$CStringT@DV?$StrTraitMFC_DLL@DV?$ChTraitsCRT@D@ATL@@@@@ATL@@ABV23@AAV23@001@Z$16 100292ab f   Conversion.obj
 0001:000282c5       __unwindfunclet$?GetStringFormatbyCompart@CDataConversion@@SA?AV?$CStringT@DV?$StrTraitMFC_DLL@DV?$ChTraitsCRT@D@ATL@@@@@ATL@@ABV23@AAV23@001@Z$17 100292c5 f   Conversion.obj
 0001:000282df       __unwindfunclet$?GetStringFormatbyCompart@CDataConversion@@SA?AV?$CStringT@DV?$StrTraitMFC_DLL@DV?$ChTraitsCRT@D@ATL@@@@@ATL@@ABV23@AAV23@001@Z$10 100292df f   Conversion.obj
 0001:000282ed       __ehhandler$?GetStringFormatbyCompart@CDataConversion@@SA?AV?$CStringT@DV?$StrTraitMFC_DLL@DV?$ChTraitsCRT@D@ATL@@@@@ATL@@ABV23@AAV23@001@Z 100292ed f   Conversion.obj
 0001:00028310       __unwindfunclet$?GetStringThousandFormat@CDataConversion@@SA?AV?$CStringT@DV?$StrTraitMFC_DLL@DV?$ChTraitsCRT@D@ATL@@@@@ATL@@ABN0@Z$0 10029310 f   Conversion.obj
 0001:00028319       __unwindfunclet$?GetStringThousandFormat@CDataConversion@@SA?AV?$CStringT@DV?$StrTraitMFC_DLL@DV?$ChTraitsCRT@D@ATL@@@@@ATL@@ABN0@Z$1 10029319 f   Conversion.obj
 0001:00028322       __unwindfunclet$?GetStringThousandFormat@CDataConversion@@SA?AV?$CStringT@DV?$StrTraitMFC_DLL@DV?$ChTraitsCRT@D@ATL@@@@@ATL@@ABN0@Z$2 10029322 f   Conversion.obj
 0001:0002832b       __unwindfunclet$?GetStringThousandFormat@CDataConversion@@SA?AV?$CStringT@DV?$StrTraitMFC_DLL@DV?$ChTraitsCRT@D@ATL@@@@@ATL@@ABN0@Z$3 1002932b f   Conversion.obj
 0001:00028334       __unwindfunclet$?GetStringThousandFormat@CDataConversion@@SA?AV?$CStringT@DV?$StrTraitMFC_DLL@DV?$ChTraitsCRT@D@ATL@@@@@ATL@@ABN0@Z$4 10029334 f   Conversion.obj
 0001:0002833d       __unwindfunclet$?GetStringThousandFormat@CDataConversion@@SA?AV?$CStringT@DV?$StrTraitMFC_DLL@DV?$ChTraitsCRT@D@ATL@@@@@ATL@@ABN0@Z$6 1002933d f   Conversion.obj
 0001:00028346       __unwindfunclet$?GetStringThousandFormat@CDataConversion@@SA?AV?$CStringT@DV?$StrTraitMFC_DLL@DV?$ChTraitsCRT@D@ATL@@@@@ATL@@ABN0@Z$8 10029346 f   Conversion.obj
 0001:0002834f       __unwindfunclet$?GetStringThousandFormat@CDataConversion@@SA?AV?$CStringT@DV?$StrTraitMFC_DLL@DV?$ChTraitsCRT@D@ATL@@@@@ATL@@ABN0@Z$9 1002934f f   Conversion.obj
 0001:0002836e       __ehhandler$?GetStringThousandFormat@CDataConversion@@SA?AV?$CStringT@DV?$StrTraitMFC_DLL@DV?$ChTraitsCRT@D@ATL@@@@@ATL@@ABN0@Z 1002936e f   Conversion.obj
 0001:00028390       __unwindfunclet$?GetStringThousandFormat@CDataConversion@@SA?AV?$CStringT@DV?$StrTraitMFC_DLL@DV?$ChTraitsCRT@D@ATL@@@@@ATL@@ABV23@@Z$0 10029390 f   Conversion.obj
 0001:00028399       __unwindfunclet$?GetStringThousandFormat@CDataConversion@@SA?AV?$CStringT@DV?$StrTraitMFC_DLL@DV?$ChTraitsCRT@D@ATL@@@@@ATL@@ABV23@@Z$2 10029399 f   Conversion.obj
 0001:000283a2       __unwindfunclet$?GetStringThousandFormat@CDataConversion@@SA?AV?$CStringT@DV?$StrTraitMFC_DLL@DV?$ChTraitsCRT@D@ATL@@@@@ATL@@ABV23@@Z$3 100293a2 f   Conversion.obj
 0001:000283ab       __unwindfunclet$?GetStringThousandFormat@CDataConversion@@SA?AV?$CStringT@DV?$StrTraitMFC_DLL@DV?$ChTraitsCRT@D@ATL@@@@@ATL@@ABV23@@Z$4 100293ab f   Conversion.obj
 0001:000283b4       __unwindfunclet$?GetStringThousandFormat@CDataConversion@@SA?AV?$CStringT@DV?$StrTraitMFC_DLL@DV?$ChTraitsCRT@D@ATL@@@@@ATL@@ABV23@@Z$5 100293b4 f   Conversion.obj
 0001:000283bd       __unwindfunclet$?GetStringThousandFormat@CDataConversion@@SA?AV?$CStringT@DV?$StrTraitMFC_DLL@DV?$ChTraitsCRT@D@ATL@@@@@ATL@@ABV23@@Z$6 100293bd f   Conversion.obj
 0001:000283c6       __unwindfunclet$?GetStringThousandFormat@CDataConversion@@SA?AV?$CStringT@DV?$StrTraitMFC_DLL@DV?$ChTraitsCRT@D@ATL@@@@@ATL@@ABV23@@Z$11 100293c6 f   Conversion.obj
 0001:000283e0       __unwindfunclet$?GetStringThousandFormat@CDataConversion@@SA?AV?$CStringT@DV?$StrTraitMFC_DLL@DV?$ChTraitsCRT@D@ATL@@@@@ATL@@ABV23@@Z$12 100293e0 f   Conversion.obj
 0001:000283fa       __unwindfunclet$?GetStringThousandFormat@CDataConversion@@SA?AV?$CStringT@DV?$StrTraitMFC_DLL@DV?$ChTraitsCRT@D@ATL@@@@@ATL@@ABV23@@Z$13 100293fa f   Conversion.obj
 0001:00028414       __unwindfunclet$?GetStringThousandFormat@CDataConversion@@SA?AV?$CStringT@DV?$StrTraitMFC_DLL@DV?$ChTraitsCRT@D@ATL@@@@@ATL@@ABV23@@Z$10 10029414 f   Conversion.obj
 0001:00028422       __ehhandler$?GetStringThousandFormat@CDataConversion@@SA?AV?$CStringT@DV?$StrTraitMFC_DLL@DV?$ChTraitsCRT@D@ATL@@@@@ATL@@ABV23@@Z 10029422 f   Conversion.obj
 0001:00028440       __unwindfunclet$?GetTimeData@CDataConversion@@CA_NABV?$CStringT@DV?$StrTraitMFC_DLL@DV?$ChTraitsCRT@D@ATL@@@@@ATL@@000HAAH1@Z$0 10029440 f   Conversion.obj
 0001:00028449       __unwindfunclet$?GetTimeData@CDataConversion@@CA_NABV?$CStringT@DV?$StrTraitMFC_DLL@DV?$ChTraitsCRT@D@ATL@@@@@ATL@@000HAAH1@Z$1 10029449 f   Conversion.obj
 0001:00028457       __ehhandler$?GetTimeData@CDataConversion@@CA_NABV?$CStringT@DV?$StrTraitMFC_DLL@DV?$ChTraitsCRT@D@ATL@@@@@ATL@@000HAAH1@Z 10029457 f   Conversion.obj
 0001:00028480       __unwindfunclet$?GetTimeData@CDataConversion@@CA_NABV?$CStringT@DV?$StrTraitMFC_DLL@DV?$ChTraitsCRT@D@ATL@@@@@ATL@@00AAH1111111@Z$0 10029480 f   Conversion.obj
 0001:00028489       __unwindfunclet$?GetTimeData@CDataConversion@@CA_NABV?$CStringT@DV?$StrTraitMFC_DLL@DV?$ChTraitsCRT@D@ATL@@@@@ATL@@00AAH1111111@Z$1 10029489 f   Conversion.obj
 0001:00028492       __unwindfunclet$?GetTimeData@CDataConversion@@CA_NABV?$CStringT@DV?$StrTraitMFC_DLL@DV?$ChTraitsCRT@D@ATL@@@@@ATL@@00AAH1111111@Z$2 10029492 f   Conversion.obj
 0001:0002849b       __unwindfunclet$?GetTimeData@CDataConversion@@CA_NABV?$CStringT@DV?$StrTraitMFC_DLL@DV?$ChTraitsCRT@D@ATL@@@@@ATL@@00AAH1111111@Z$3 1002949b f   Conversion.obj
 0001:000284a4       __unwindfunclet$?GetTimeData@CDataConversion@@CA_NABV?$CStringT@DV?$StrTraitMFC_DLL@DV?$ChTraitsCRT@D@ATL@@@@@ATL@@00AAH1111111@Z$4 100294a4 f   Conversion.obj
 0001:000284b2       __ehhandler$?GetTimeData@CDataConversion@@CA_NABV?$CStringT@DV?$StrTraitMFC_DLL@DV?$ChTraitsCRT@D@ATL@@@@@ATL@@00AAH1111111@Z 100294b2 f   Conversion.obj
 0001:000284d0       __unwindfunclet$?GetTimeInFormat@CDataConversion@@CAHABV?$CStringT@DV?$StrTraitMFC_DLL@DV?$ChTraitsCRT@D@ATL@@@@@ATL@@HHHH@Z$0 100294d0 f   Conversion.obj
 0001:000284d9       __unwindfunclet$?GetTimeInFormat@CDataConversion@@CAHABV?$CStringT@DV?$StrTraitMFC_DLL@DV?$ChTraitsCRT@D@ATL@@@@@ATL@@HHHH@Z$1 100294d9 f   Conversion.obj
 0001:000284e2       __unwindfunclet$?GetTimeInFormat@CDataConversion@@CAHABV?$CStringT@DV?$StrTraitMFC_DLL@DV?$ChTraitsCRT@D@ATL@@@@@ATL@@HHHH@Z$2 100294e2 f   Conversion.obj
 0001:000284eb       __unwindfunclet$?GetTimeInFormat@CDataConversion@@CAHABV?$CStringT@DV?$StrTraitMFC_DLL@DV?$ChTraitsCRT@D@ATL@@@@@ATL@@HHHH@Z$3 100294eb f   Conversion.obj
 0001:000284f4       __unwindfunclet$?GetTimeInFormat@CDataConversion@@CAHABV?$CStringT@DV?$StrTraitMFC_DLL@DV?$ChTraitsCRT@D@ATL@@@@@ATL@@HHHH@Z$4 100294f4 f   Conversion.obj
 0001:000284fd       __unwindfunclet$?GetTimeInFormat@CDataConversion@@CAHABV?$CStringT@DV?$StrTraitMFC_DLL@DV?$ChTraitsCRT@D@ATL@@@@@ATL@@HHHH@Z$5 100294fd f   Conversion.obj
 0001:0002850b       __ehhandler$?GetTimeInFormat@CDataConversion@@CAHABV?$CStringT@DV?$StrTraitMFC_DLL@DV?$ChTraitsCRT@D@ATL@@@@@ATL@@HHHH@Z 1002950b f   Conversion.obj
 0001:00028530       __unwindfunclet$?InsertString@CDataConversion@@SA?AV?$CStringT@DV?$StrTraitMFC_DLL@DV?$ChTraitsCRT@D@ATL@@@@@ATL@@ABV23@0HH@Z$1 10029530 f   Conversion.obj
 0001:00028539       __unwindfunclet$?InsertString@CDataConversion@@SA?AV?$CStringT@DV?$StrTraitMFC_DLL@DV?$ChTraitsCRT@D@ATL@@@@@ATL@@ABV23@0HH@Z$2 10029539 f   Conversion.obj
 0001:00028542       __unwindfunclet$?InsertString@CDataConversion@@SA?AV?$CStringT@DV?$StrTraitMFC_DLL@DV?$ChTraitsCRT@D@ATL@@@@@ATL@@ABV23@0HH@Z$4 10029542 f   Conversion.obj
 0001:00028561       __ehhandler$?InsertString@CDataConversion@@SA?AV?$CStringT@DV?$StrTraitMFC_DLL@DV?$ChTraitsCRT@D@ATL@@@@@ATL@@ABV23@0HH@Z 10029561 f   Conversion.obj
 0001:00028580       __unwindfunclet$?IntToString@CDataConversion@@SA?AV?$CStringT@DV?$StrTraitMFC_DLL@DV?$ChTraitsCRT@D@ATL@@@@@ATL@@H@Z$0 10029580 f   Conversion.obj
 0001:0002859f       __ehhandler$?IntToString@CDataConversion@@SA?AV?$CStringT@DV?$StrTraitMFC_DLL@DV?$ChTraitsCRT@D@ATL@@@@@ATL@@H@Z 1002959f f   Conversion.obj
 0001:000285c0       __unwindfunclet$?IntToString@CDataConversion@@SA?AV?$CStringT@DV?$StrTraitMFC_DLL@DV?$ChTraitsCRT@D@ATL@@@@@ATL@@HH@Z$0 100295c0 f   Conversion.obj
 0001:000285c9       __unwindfunclet$?IntToString@CDataConversion@@SA?AV?$CStringT@DV?$StrTraitMFC_DLL@DV?$ChTraitsCRT@D@ATL@@@@@ATL@@HH@Z$2 100295c9 f   Conversion.obj
 0001:000285d2       __unwindfunclet$?IntToString@CDataConversion@@SA?AV?$CStringT@DV?$StrTraitMFC_DLL@DV?$ChTraitsCRT@D@ATL@@@@@ATL@@HH@Z$4 100295d2 f   Conversion.obj
 0001:000285ec       __unwindfunclet$?IntToString@CDataConversion@@SA?AV?$CStringT@DV?$StrTraitMFC_DLL@DV?$ChTraitsCRT@D@ATL@@@@@ATL@@HH@Z$3 100295ec f   Conversion.obj
 0001:000285f5       __unwindfunclet$?IntToString@CDataConversion@@SA?AV?$CStringT@DV?$StrTraitMFC_DLL@DV?$ChTraitsCRT@D@ATL@@@@@ATL@@HH@Z$5 100295f5 f   Conversion.obj
 0001:00028614       __ehhandler$?IntToString@CDataConversion@@SA?AV?$CStringT@DV?$StrTraitMFC_DLL@DV?$ChTraitsCRT@D@ATL@@@@@ATL@@HH@Z 10029614 f   Conversion.obj
 0001:00028640       __unwindfunclet$?IsCalcTimeFormatforCharge@CDataConversion@@CA_NHHABV?$CStringT@DV?$StrTraitMFC_DLL@DV?$ChTraitsCRT@D@ATL@@@@@ATL@@H@Z$0 10029640 f   Conversion.obj
 0001:0002864e       __ehhandler$?IsCalcTimeFormatforCharge@CDataConversion@@CA_NHHABV?$CStringT@DV?$StrTraitMFC_DLL@DV?$ChTraitsCRT@D@ATL@@@@@ATL@@H@Z 1002964e f   Conversion.obj
 0001:00028670       __unwindfunclet$?NormalNumberString@CDataConversion@@SA?AV?$CStringT@DV?$StrTraitMFC_DLL@DV?$ChTraitsCRT@D@ATL@@@@@ATL@@ABV23@@Z$1 10029670 f   Conversion.obj
 0001:0002867e       __ehhandler$?NormalNumberString@CDataConversion@@SA?AV?$CStringT@DV?$StrTraitMFC_DLL@DV?$ChTraitsCRT@D@ATL@@@@@ATL@@ABV23@@Z 1002967e f   Conversion.obj
 0001:000286a0       __unwindfunclet$?OnPickoutDaily@CDataConversion@@CA_NHABV?$CStringT@DV?$StrTraitMFC_DLL@DV?$ChTraitsCRT@D@ATL@@@@@ATL@@AAH11@Z$0 100296a0 f   Conversion.obj
 0001:000286ae       __ehhandler$?OnPickoutDaily@CDataConversion@@CA_NHABV?$CStringT@DV?$StrTraitMFC_DLL@DV?$ChTraitsCRT@D@ATL@@@@@ATL@@AAH11@Z 100296ae f   Conversion.obj
 0001:000286d0       __unwindfunclet$?OnPickoutDate@CDataConversion@@CA_NHABV?$CStringT@DV?$StrTraitMFC_DLL@DV?$ChTraitsCRT@D@ATL@@@@@ATL@@HAAH11@Z$0 100296d0 f   Conversion.obj
 0001:000286de       __ehhandler$?OnPickoutDate@CDataConversion@@CA_NHABV?$CStringT@DV?$StrTraitMFC_DLL@DV?$ChTraitsCRT@D@ATL@@@@@ATL@@HAAH11@Z 100296de f   Conversion.obj
 0001:00028700       __unwindfunclet$?OnPickoutTime@CDataConversion@@CA_NHHABV?$CStringT@DV?$StrTraitMFC_DLL@DV?$ChTraitsCRT@D@ATL@@@@@ATL@@HAAH1111@Z$1 10029700 f   Conversion.obj
 0001:00028709       __unwindfunclet$?OnPickoutTime@CDataConversion@@CA_NHHABV?$CStringT@DV?$StrTraitMFC_DLL@DV?$ChTraitsCRT@D@ATL@@@@@ATL@@HAAH1111@Z$2 10029709 f   Conversion.obj
 0001:00028712       __unwindfunclet$?OnPickoutTime@CDataConversion@@CA_NHHABV?$CStringT@DV?$StrTraitMFC_DLL@DV?$ChTraitsCRT@D@ATL@@@@@ATL@@HAAH1111@Z$3 10029712 f   Conversion.obj
 0001:00028720       __ehhandler$?OnPickoutTime@CDataConversion@@CA_NHHABV?$CStringT@DV?$StrTraitMFC_DLL@DV?$ChTraitsCRT@D@ATL@@@@@ATL@@HAAH1111@Z 10029720 f   Conversion.obj
 0001:00028740       __unwindfunclet$?RGB2Str@CDataConversion@@SA?AV?$CStringT@DV?$StrTraitMFC_DLL@DV?$ChTraitsCRT@D@ATL@@@@@ATL@@K@Z$0 10029740 f   Conversion.obj
 0001:0002875f       __ehhandler$?RGB2Str@CDataConversion@@SA?AV?$CStringT@DV?$StrTraitMFC_DLL@DV?$ChTraitsCRT@D@ATL@@@@@ATL@@K@Z 1002975f f   Conversion.obj
 0001:00028780       __unwindfunclet$?SelectClipRegion@CDataConversion@@SAXPAVCDC@@ABVCRect@@@Z$0 10029780 f   Conversion.obj
 0001:0002878d       __ehhandler$?SelectClipRegion@CDataConversion@@SAXPAVCDC@@ABVCRect@@@Z 1002978d f   Conversion.obj
 0001:000287b0       __unwindfunclet$?Str2RGB@CDataConversion@@SAKABV?$CStringT@DV?$StrTraitMFC_DLL@DV?$ChTraitsCRT@D@ATL@@@@@ATL@@@Z$0 100297b0 f   Conversion.obj
 0001:000287be       __ehhandler$?Str2RGB@CDataConversion@@SAKABV?$CStringT@DV?$StrTraitMFC_DLL@DV?$ChTraitsCRT@D@ATL@@@@@ATL@@@Z 100297be f   Conversion.obj
 0001:000287e0       __unwindfunclet$?NumberCount@CMath@@SAHH@Z$0 100297e0 f   DataMath.obj
 0001:000287ee       __ehhandler$?NumberCount@CMath@@SAHH@Z 100297ee f   DataMath.obj
 0001:00028810       __unwindfunclet$?OnChar@CXEdit@@IAEXIII@Z$0 10029810 f   XEdit.obj
 0001:00028819       __unwindfunclet$?OnChar@CXEdit@@IAEXIII@Z$1 10029819 f   XEdit.obj
 0001:00028822       __unwindfunclet$?OnChar@CXEdit@@IAEXIII@Z$5 10029822 f   XEdit.obj
 0001:0002883c       __unwindfunclet$?OnChar@CXEdit@@IAEXIII@Z$3 1002983c f   XEdit.obj
 0001:00028845       __unwindfunclet$?OnChar@CXEdit@@IAEXIII@Z$6 10029845 f   XEdit.obj
 0001:00028864       __ehhandler$?OnChar@CXEdit@@IAEXIII@Z 10029864 f   XEdit.obj
 0001:00028890       __unwindfunclet$?OnKeyDown@CXEdit@@IAEXIII@Z$0 10029890 f   XEdit.obj
 0001:0002889e       __ehhandler$?OnKeyDown@CXEdit@@IAEXIII@Z 1002989e f   XEdit.obj
 0001:000288c0       __ehhandler$??1CMemDC@@UAE@XZ 100298c0 f   XHeaderCtrl.obj
 0001:000288e0       __unwindfunclet$?CreateObject@CXHeaderCtrl@@SGPAVCObject@@XZ$0 100298e0 f   XHeaderCtrl.obj
 0001:000288ef       __ehhandler$?CreateObject@CXHeaderCtrl@@SGPAVCObject@@XZ 100298ef f   XHeaderCtrl.obj
 0001:00028910       __unwindfunclet$?DrawBitmap@CXHeaderCtrl@@IAEHPAVCDC@@VCRect@@PAU_HD_ITEMA@@PAVCBitmap@@PAUtagBITMAP@@H@Z$0 10029910 f   XHeaderCtrl.obj
 0001:0002891d       __ehhandler$?DrawBitmap@CXHeaderCtrl@@IAEHPAVCDC@@VCRect@@PAU_HD_ITEMA@@PAVCBitmap@@PAUtagBITMAP@@H@Z 1002991d f   XHeaderCtrl.obj
 0001:00028940       __unwindfunclet$?DrawCtrl@CXHeaderCtrl@@IAEXPAVCDC@@@Z$0 10029940 f   XHeaderCtrl.obj
 0001:0002894b       __unwindfunclet$?DrawCtrl@CXHeaderCtrl@@IAEXPAVCDC@@@Z$1 1002994b f   XHeaderCtrl.obj
 0001:00028956       __unwindfunclet$?DrawCtrl@CXHeaderCtrl@@IAEXPAVCDC@@@Z$2 10029956 f   XHeaderCtrl.obj
 0001:00028961       __unwindfunclet$?DrawCtrl@CXHeaderCtrl@@IAEXPAVCDC@@@Z$3 10029961 f   XHeaderCtrl.obj
 0001:00028971       __ehhandler$?DrawCtrl@CXHeaderCtrl@@IAEXPAVCDC@@@Z 10029971 f   XHeaderCtrl.obj
 0001:000289a0       __unwindfunclet$?DrawItem@CXHeaderCtrl@@UAEXPAVCDC@@VCRect@@PAU_HD_ITEMA@@@Z$0 100299a0 f   XHeaderCtrl.obj
 0001:000289ad       __ehhandler$?DrawItem@CXHeaderCtrl@@UAEXPAVCDC@@VCRect@@PAU_HD_ITEMA@@@Z 100299ad f   XHeaderCtrl.obj
 0001:000289d0       __unwindfunclet$?OnPaint@CXHeaderCtrl@@IAEXXZ$0 100299d0 f   XHeaderCtrl.obj
 0001:000289db       __unwindfunclet$?OnPaint@CXHeaderCtrl@@IAEXXZ$2 100299db f   XHeaderCtrl.obj
 0001:000289e3       __unwindfunclet$?OnPaint@CXHeaderCtrl@@IAEXXZ$3 100299e3 f   XHeaderCtrl.obj
 0001:000289eb       __unwindfunclet$?OnPaint@CXHeaderCtrl@@IAEXXZ$1 100299eb f   XHeaderCtrl.obj
 0001:000289f8       __ehhandler$?OnPaint@CXHeaderCtrl@@IAEXXZ 100299f8 f   XHeaderCtrl.obj
 0001:00028a30       __unwindfunclet$??0CXListCtrl@@QAE@XZ$0 10029a30 f   XListCtrl.obj
 0001:00028a38       __unwindfunclet$??0CXListCtrl@@QAE@XZ$1 10029a38 f   XListCtrl.obj
 0001:00028a4b       __ehhandler$??0CXListCtrl@@QAE@XZ 10029a4b f   XListCtrl.obj
 0001:00028a70       __unwindfunclet$??0XLISTCTRLDATA@@QAE@XZ$0 10029a70 f   XListCtrl.obj
 0001:00028a81       __ehhandler$??0XLISTCTRLDATA@@QAE@XZ 10029a81 f   XListCtrl.obj
 0001:00028aa0       __ehhandler$??_EXLISTCTRLDATA@@QAEPAXI@Z 10029aa0 f   XListCtrl.obj
 0001:00028ac0       __ehhandler$?DeleteAllItems@CXListCtrl@@QAEHXZ 10029ac0 f   XListCtrl.obj
 0001:00028ae0       __unwindfunclet$?DrawCheckbox@CXListCtrl@@IAEXHHPAVCDC@@KKAAVCRect@@PAUXLISTCTRLDATA@@@Z$0 10029ae0 f   XListCtrl.obj
 0001:00028ae9       __unwindfunclet$?DrawCheckbox@CXListCtrl@@IAEXHHPAVCDC@@KKAAVCRect@@PAUXLISTCTRLDATA@@@Z$1 10029ae9 f   XListCtrl.obj
 0001:00028af2       __unwindfunclet$?DrawCheckbox@CXListCtrl@@IAEXHHPAVCDC@@KKAAVCRect@@PAUXLISTCTRLDATA@@@Z$2 10029af2 f   XListCtrl.obj
 0001:00028afa       __unwindfunclet$?DrawCheckbox@CXListCtrl@@IAEXHHPAVCDC@@KKAAVCRect@@PAUXLISTCTRLDATA@@@Z$3 10029afa f   XListCtrl.obj
 0001:00028b07       __ehhandler$?DrawCheckbox@CXListCtrl@@IAEXHHPAVCDC@@KKAAVCRect@@PAUXLISTCTRLDATA@@@Z 10029b07 f   XListCtrl.obj
 0001:00028b30       __unwindfunclet$?DrawProgress@CXListCtrl@@IAEXHHPAVCDC@@KKAAVCRect@@PAUXLISTCTRLDATA@@@Z$0 10029b30 f   XListCtrl.obj
 0001:00028b38       __unwindfunclet$?DrawProgress@CXListCtrl@@IAEXHHPAVCDC@@KKAAVCRect@@PAUXLISTCTRLDATA@@@Z$1 10029b38 f   XListCtrl.obj
 0001:00028b40       __unwindfunclet$?DrawProgress@CXListCtrl@@IAEXHHPAVCDC@@KKAAVCRect@@PAUXLISTCTRLDATA@@@Z$2 10029b40 f   XListCtrl.obj
 0001:00028b49       __unwindfunclet$?DrawProgress@CXListCtrl@@IAEXHHPAVCDC@@KKAAVCRect@@PAUXLISTCTRLDATA@@@Z$3 10029b49 f   XListCtrl.obj
 0001:00028b52       __unwindfunclet$?DrawProgress@CXListCtrl@@IAEXHHPAVCDC@@KKAAVCRect@@PAUXLISTCTRLDATA@@@Z$4 10029b52 f   XListCtrl.obj
 0001:00028b5f       __ehhandler$?DrawProgress@CXListCtrl@@IAEXHHPAVCDC@@KKAAVCRect@@PAUXLISTCTRLDATA@@@Z 10029b5f f   XListCtrl.obj
 0001:00028b90       __unwindfunclet$?DrawTextA@CXListCtrl@@IAEXHHPAVCDC@@KKAAVCRect@@PAUXLISTCTRLDATA@@@Z$0 10029b90 f   XListCtrl.obj
 0001:00028b99       __unwindfunclet$?DrawTextA@CXListCtrl@@IAEXHHPAVCDC@@KKAAVCRect@@PAUXLISTCTRLDATA@@@Z$1 10029b99 f   XListCtrl.obj
 0001:00028ba2       __unwindfunclet$?DrawTextA@CXListCtrl@@IAEXHHPAVCDC@@KKAAVCRect@@PAUXLISTCTRLDATA@@@Z$2 10029ba2 f   XListCtrl.obj
 0001:00028baf       __ehhandler$?DrawTextA@CXListCtrl@@IAEXHHPAVCDC@@KKAAVCRect@@PAUXLISTCTRLDATA@@@Z 10029baf f   XListCtrl.obj
 0001:00028be0       __unwindfunclet$?GetComboText@CXListCtrl@@QAE?AV?$CStringT@DV?$StrTraitMFC_DLL@DV?$ChTraitsCRT@D@ATL@@@@@ATL@@HH@Z$1 10029be0 f   XListCtrl.obj
 0001:00028be9       __unwindfunclet$?GetComboText@CXListCtrl@@QAE?AV?$CStringT@DV?$StrTraitMFC_DLL@DV?$ChTraitsCRT@D@ATL@@@@@ATL@@HH@Z$2 10029be9 f   XListCtrl.obj
 0001:00028bf7       __ehhandler$?GetComboText@CXListCtrl@@QAE?AV?$CStringT@DV?$StrTraitMFC_DLL@DV?$ChTraitsCRT@D@ATL@@@@@ATL@@HH@Z 10029bf7 f   XListCtrl.obj
 0001:00028c20       __unwindfunclet$?InsertItem@CXListCtrl@@QAEHHPBD@Z$0 10029c20 f   XListCtrl.obj
 0001:00028c52       __ehhandler$?InsertItem@CXListCtrl@@QAEHHPBD@Z 10029c52 f   XListCtrl.obj
 0001:00028c70       __unwindfunclet$?InsertItem@CXListCtrl@@QAEHHPBDKK@Z$0 10029c70 f   XListCtrl.obj
 0001:00028ca2       __ehhandler$?InsertItem@CXListCtrl@@QAEHHPBDKK@Z 10029ca2 f   XListCtrl.obj
 0001:00028cc0       __unwindfunclet$?InsertItem@CXListCtrl@@QAEHPBUtagLVITEMA@@@Z$0 10029cc0 f   XListCtrl.obj
 0001:00028cf2       __ehhandler$?InsertItem@CXListCtrl@@QAEHPBUtagLVITEMA@@@Z 10029cf2 f   XListCtrl.obj
 0001:00028d10       __unwindfunclet$?OnDblclk@CXListCtrl@@IAEHPAUtagNMHDR@@PAJ@Z$0 10029d10 f   XListCtrl.obj
 0001:00028d19       __unwindfunclet$?OnDblclk@CXListCtrl@@IAEHPAUtagNMHDR@@PAJ@Z$1 10029d19 f   XListCtrl.obj
 0001:00028d23       __unwindfunclet$?OnDblclk@CXListCtrl@@IAEHPAUtagNMHDR@@PAJ@Z$2 10029d23 f   XListCtrl.obj
 0001:00028d31       __ehhandler$?OnDblclk@CXListCtrl@@IAEHPAUtagNMHDR@@PAJ@Z 10029d31 f   XListCtrl.obj
 0001:00028d60       __ehhandler$?OnDestroy@CXListCtrl@@IAEXXZ 10029d60 f   XListCtrl.obj
 0001:00028d80       __unwindfunclet$?OnEditEscape@CXListCtrl@@IAEJIJ@Z$0 10029d80 f   XListCtrl.obj
 0001:00028d8e       __ehhandler$?OnEditEscape@CXListCtrl@@IAEJIJ@Z 10029d8e f   XListCtrl.obj
 0001:00028db0       __unwindfunclet$?OnEditReturn@CXListCtrl@@IAEJIJ@Z$0 10029db0 f   XListCtrl.obj
 0001:00028dbe       __ehhandler$?OnEditReturn@CXListCtrl@@IAEJIJ@Z 10029dbe f   XListCtrl.obj
 0001:00028de0       __unwindfunclet$?PreTranslateMessage@CXListCtrl@@UAEHPAUtagMSG@@@Z$0 10029de0 f   XListCtrl.obj
 0001:00028dee       __ehhandler$?PreTranslateMessage@CXListCtrl@@UAEHPAUtagMSG@@@Z 10029dee f   XListCtrl.obj
 0001:00028e10       __unwindfunclet$?SetComboBox@CXListCtrl@@QAEHHHHPAVCStringArray@@HH@Z$0 10029e10 f   XListCtrl.obj
 0001:00028e1e       __ehhandler$?SetComboBox@CXListCtrl@@QAEHHHHPAVCStringArray@@HH@Z 10029e1e f   XListCtrl.obj
 0001:00028e40       __unwindfunclet$??0CxSkinButton@@QAE@XZ$0 10029e40 f   xSkinButton.obj
 0001:00028e4d       __ehhandler$??0CxSkinButton@@QAE@XZ 10029e4d f   xSkinButton.obj
 0001:00028e70       __unwindfunclet$?CreateRgnFromBitmap@CxSkinButton@@IAEPAUHRGN__@@PAUHBITMAP__@@K@Z$0 10029e70 f   xSkinButton.obj
 0001:00028e7d       __ehhandler$?CreateRgnFromBitmap@CxSkinButton@@IAEPAUHRGN__@@PAUHBITMAP__@@K@Z 10029e7d f   xSkinButton.obj
 0001:00028ea0       __unwindfunclet$?DrawBitmap@CxSkinButton@@IAEXPAVCDC@@PAUHBITMAP__@@UtagRECT@@H@Z$4 10029ea0 f   xSkinButton.obj
 0001:00028ea8       __unwindfunclet$?DrawBitmap@CxSkinButton@@IAEXPAVCDC@@PAUHBITMAP__@@UtagRECT@@H@Z$0 10029ea8 f   xSkinButton.obj
 0001:00028eb0       __unwindfunclet$?DrawBitmap@CxSkinButton@@IAEXPAVCDC@@PAUHBITMAP__@@UtagRECT@@H@Z$1 10029eb0 f   xSkinButton.obj
 0001:00028eb8       __unwindfunclet$?DrawBitmap@CxSkinButton@@IAEXPAVCDC@@PAUHBITMAP__@@UtagRECT@@H@Z$2 10029eb8 f   xSkinButton.obj
 0001:00028ec0       __unwindfunclet$?DrawBitmap@CxSkinButton@@IAEXPAVCDC@@PAUHBITMAP__@@UtagRECT@@H@Z$3 10029ec0 f   xSkinButton.obj
 0001:00028ecd       __ehhandler$?DrawBitmap@CxSkinButton@@IAEXPAVCDC@@PAUHBITMAP__@@UtagRECT@@H@Z 10029ecd f   xSkinButton.obj
 0001:00028ef0       __unwindfunclet$?DrawItem@CxSkinButton@@UAEXPAUtagDRAWITEMSTRUCT@@@Z$0 10029ef0 f   xSkinButton.obj
 0001:00028efe       __ehhandler$?DrawItem@CxSkinButton@@UAEXPAUtagDRAWITEMSTRUCT@@@Z 10029efe f   xSkinButton.obj
 0001:00028f30       __unwindfunclet$?FillWithBitmap@CxSkinButton@@IAEXPAVCDC@@PAUHBITMAP__@@UtagRECT@@@Z$0 10029f30 f   xSkinButton.obj
 0001:00028f3d       __ehhandler$?FillWithBitmap@CxSkinButton@@IAEXPAVCDC@@PAUHBITMAP__@@UtagRECT@@@Z 10029f3d f   xSkinButton.obj
 0001:00028f60       __unwindfunclet$?SetSkin@CxSkinButton@@QAEXV?$CStringT@DV?$StrTraitMFC_DLL@DV?$ChTraitsCRT@D@ATL@@@@@ATL@@00000FFF@Z$0 10029f60 f   xSkinButton.obj
 0001:00028f69       __unwindfunclet$?SetSkin@CxSkinButton@@QAEXV?$CStringT@DV?$StrTraitMFC_DLL@DV?$ChTraitsCRT@D@ATL@@@@@ATL@@00000FFF@Z$1 10029f69 f   xSkinButton.obj
 0001:00028f72       __unwindfunclet$?SetSkin@CxSkinButton@@QAEXV?$CStringT@DV?$StrTraitMFC_DLL@DV?$ChTraitsCRT@D@ATL@@@@@ATL@@00000FFF@Z$2 10029f72 f   xSkinButton.obj
 0001:00028f7b       __unwindfunclet$?SetSkin@CxSkinButton@@QAEXV?$CStringT@DV?$StrTraitMFC_DLL@DV?$ChTraitsCRT@D@ATL@@@@@ATL@@00000FFF@Z$3 10029f7b f   xSkinButton.obj
 0001:00028f84       __unwindfunclet$?SetSkin@CxSkinButton@@QAEXV?$CStringT@DV?$StrTraitMFC_DLL@DV?$ChTraitsCRT@D@ATL@@@@@ATL@@00000FFF@Z$4 10029f84 f   xSkinButton.obj
 0001:00028f8d       __unwindfunclet$?SetSkin@CxSkinButton@@QAEXV?$CStringT@DV?$StrTraitMFC_DLL@DV?$ChTraitsCRT@D@ATL@@@@@ATL@@00000FFF@Z$5 10029f8d f   xSkinButton.obj
 0001:00028f9b       __ehhandler$?SetSkin@CxSkinButton@@QAEXV?$CStringT@DV?$StrTraitMFC_DLL@DV?$ChTraitsCRT@D@ATL@@@@@ATL@@00000FFF@Z 10029f9b f   xSkinButton.obj
 0001:00028fc0       __unwindfunclet$?SetToolTipText@CxSkinButton@@QAEXV?$CStringT@DV?$StrTraitMFC_DLL@DV?$ChTraitsCRT@D@ATL@@@@@ATL@@@Z$0 10029fc0 f   xSkinButton.obj
 0001:00028fce       __ehhandler$?SetToolTipText@CxSkinButton@@QAEXV?$CStringT@DV?$StrTraitMFC_DLL@DV?$ChTraitsCRT@D@ATL@@@@@ATL@@@Z 10029fce f   xSkinButton.obj
 0001:00028ff0       __ehhandler$??1CXTabCtrl@@UAE@XZ 10029ff0 f   XTabCtrl.obj
 0001:00029010       __ehhandler$??_GCXTabCtrl@@UAEPAXI@Z 1002a010 f   XTabCtrl.obj
 0001:00029030       __unwindfunclet$?DrawItem@CXTabCtrl@@MAEXPAUtagDRAWITEMSTRUCT@@@Z$1 1002a030 f   XTabCtrl.obj
 0001:0002903c       __unwindfunclet$?DrawItem@CXTabCtrl@@MAEXPAUtagDRAWITEMSTRUCT@@@Z$2 1002a03c f   XTabCtrl.obj
 0001:0002904d       __ehhandler$?DrawItem@CXTabCtrl@@MAEXPAUtagDRAWITEMSTRUCT@@@Z 1002a04d f   XTabCtrl.obj
 0001:00029080       __unwindfunclet$?DrawLine@CXTabCtrl@@QAEXVCPoint@@0PAVCDC@@K@Z$0 1002a080 f   XTabCtrl.obj
 0001:0002908d       __ehhandler$?DrawLine@CXTabCtrl@@QAEXVCPoint@@0PAVCDC@@K@Z 1002a08d f   XTabCtrl.obj
 0001:000290b0       __ehhandler$?OnLButtonDown@CXTabCtrl@@IAEXIVCPoint@@@Z 1002a0b0 f   XTabCtrl.obj
 0001:000290d0       __ehhandler$?OnLButtonUp@CXTabCtrl@@IAEXIVCPoint@@@Z 1002a0d0 f   XTabCtrl.obj
 0001:000290f0       __ehhandler$?OnMouseMove@CXTabCtrl@@IAEXIVCPoint@@@Z 1002a0f0 f   XTabCtrl.obj
 0001:00029120       __unwindfunclet$?OnPaint@CXTabCtrl@@IAEXXZ$0 1002a120 f   XTabCtrl.obj
 0001:00029130       __ehhandler$?OnPaint@CXTabCtrl@@IAEXXZ 1002a130 f   XTabCtrl.obj
 0001:00029160       __unwindfunclet$??0CDlgRunMain@@QAE@PAUHWND__@@PBD1PAVCWnd@@@Z$0 1002a160 f   DlgRunMain.obj
 0001:00029168       __unwindfunclet$??0CDlgRunMain@@QAE@PAUHWND__@@PBD1PAVCWnd@@@Z$1 1002a168 f   DlgRunMain.obj
 0001:00029176       __unwindfunclet$??0CDlgRunMain@@QAE@PAUHWND__@@PBD1PAVCWnd@@@Z$2 1002a176 f   DlgRunMain.obj
 0001:00029184       __unwindfunclet$??0CDlgRunMain@@QAE@PAUHWND__@@PBD1PAVCWnd@@@Z$3 1002a184 f   DlgRunMain.obj
 0001:00029192       __unwindfunclet$??0CDlgRunMain@@QAE@PAUHWND__@@PBD1PAVCWnd@@@Z$4 1002a192 f   DlgRunMain.obj
 0001:000291a0       __unwindfunclet$??0CDlgRunMain@@QAE@PAUHWND__@@PBD1PAVCWnd@@@Z$5 1002a1a0 f   DlgRunMain.obj
 0001:000291ae       __unwindfunclet$??0CDlgRunMain@@QAE@PAUHWND__@@PBD1PAVCWnd@@@Z$6 1002a1ae f   DlgRunMain.obj
 0001:000291bd       __unwindfunclet$??0CDlgRunMain@@QAE@PAUHWND__@@PBD1PAVCWnd@@@Z$7 1002a1bd f   DlgRunMain.obj
 0001:000291cc       __unwindfunclet$??0CDlgRunMain@@QAE@PAUHWND__@@PBD1PAVCWnd@@@Z$8 1002a1cc f   DlgRunMain.obj
 0001:000291da       __unwindfunclet$??0CDlgRunMain@@QAE@PAUHWND__@@PBD1PAVCWnd@@@Z$9 1002a1da f   DlgRunMain.obj
 0001:000291ed       __ehhandler$??0CDlgRunMain@@QAE@PAUHWND__@@PBD1PAVCWnd@@@Z 1002a1ed f   DlgRunMain.obj
 0001:00029210       __unwindfunclet$??0CDlgRunMain@@QAE@PBD0PAVCWnd@@@Z$0 1002a210 f   DlgRunMain.obj
 0001:00029218       __unwindfunclet$??0CDlgRunMain@@QAE@PBD0PAVCWnd@@@Z$1 1002a218 f   DlgRunMain.obj
 0001:00029226       __unwindfunclet$??0CDlgRunMain@@QAE@PBD0PAVCWnd@@@Z$2 1002a226 f   DlgRunMain.obj
 0001:00029234       __unwindfunclet$??0CDlgRunMain@@QAE@PBD0PAVCWnd@@@Z$3 1002a234 f   DlgRunMain.obj
 0001:00029242       __unwindfunclet$??0CDlgRunMain@@QAE@PBD0PAVCWnd@@@Z$4 1002a242 f   DlgRunMain.obj
 0001:00029250       __unwindfunclet$??0CDlgRunMain@@QAE@PBD0PAVCWnd@@@Z$5 1002a250 f   DlgRunMain.obj
 0001:0002925e       __unwindfunclet$??0CDlgRunMain@@QAE@PBD0PAVCWnd@@@Z$6 1002a25e f   DlgRunMain.obj
 0001:0002926d       __unwindfunclet$??0CDlgRunMain@@QAE@PBD0PAVCWnd@@@Z$7 1002a26d f   DlgRunMain.obj
 0001:0002927c       __unwindfunclet$??0CDlgRunMain@@QAE@PBD0PAVCWnd@@@Z$8 1002a27c f   DlgRunMain.obj
 0001:0002928a       __unwindfunclet$??0CDlgRunMain@@QAE@PBD0PAVCWnd@@@Z$9 1002a28a f   DlgRunMain.obj
 0001:0002929d       __ehhandler$??0CDlgRunMain@@QAE@PBD0PAVCWnd@@@Z 1002a29d f   DlgRunMain.obj
 0001:000292c0       __unwindfunclet$?GetDefaultFile@CDlgRunMain@@QAEHAAV?$CStringT@DV?$StrTraitMFC_DLL@DV?$ChTraitsCRT@D@ATL@@@@@ATL@@@Z$0 1002a2c0 f   DlgRunMain.obj
 0001:000292ce       __ehhandler$?GetDefaultFile@CDlgRunMain@@QAEHAAV?$CStringT@DV?$StrTraitMFC_DLL@DV?$ChTraitsCRT@D@ATL@@@@@ATL@@@Z 1002a2ce f   DlgRunMain.obj
 0001:00029300       __unwindfunclet$?InitControl@CDlgRunMain@@QAEXXZ$0 1002a300 f   DlgRunMain.obj
 0001:00029309       __unwindfunclet$?InitControl@CDlgRunMain@@QAEXXZ$1 1002a309 f   DlgRunMain.obj
 0001:00029313       __unwindfunclet$?InitControl@CDlgRunMain@@QAEXXZ$2 1002a313 f   DlgRunMain.obj
 0001:0002931d       __unwindfunclet$?InitControl@CDlgRunMain@@QAEXXZ$3 1002a31d f   DlgRunMain.obj
 0001:00029327       __unwindfunclet$?InitControl@CDlgRunMain@@QAEXXZ$4 1002a327 f   DlgRunMain.obj
 0001:00029336       __ehhandler$?InitControl@CDlgRunMain@@QAEXXZ 1002a336 f   DlgRunMain.obj
 0001:00029360       __unwindfunclet$?OnSetdefault@CDlgRunMain@@QAEXXZ$0 1002a360 f   DlgRunMain.obj
 0001:0002936e       __ehhandler$?OnSetdefault@CDlgRunMain@@QAEXXZ 1002a36e f   DlgRunMain.obj
 0001:00029390       __unwindfunclet$??0CDlgSTConfig@@QAE@PAVCWnd@@@Z$0 1002a390 f   DlgSTConfig.obj
 0001:00029398       __unwindfunclet$??0CDlgSTConfig@@QAE@PAVCWnd@@@Z$1 1002a398 f   DlgSTConfig.obj
 0001:000293a6       __unwindfunclet$??0CDlgSTConfig@@QAE@PAVCWnd@@@Z$2 1002a3a6 f   DlgSTConfig.obj
 0001:000293b9       __ehhandler$??0CDlgSTConfig@@QAE@PAVCWnd@@@Z 1002a3b9 f   DlgSTConfig.obj
 0001:000293e0       __unwindfunclet$?LoadInfo@CDlgSTConfig@@MAEXXZ$0 1002a3e0 f   DlgSTConfig.obj
 0001:000293ec       __unwindfunclet$?LoadInfo@CDlgSTConfig@@MAEXXZ$1 1002a3ec f   DlgSTConfig.obj
 0001:000293f8       __unwindfunclet$?LoadInfo@CDlgSTConfig@@MAEXXZ$2 1002a3f8 f   DlgSTConfig.obj
 0001:00029404       __unwindfunclet$?LoadInfo@CDlgSTConfig@@MAEXXZ$3 1002a404 f   DlgSTConfig.obj
 0001:00029410       __unwindfunclet$?LoadInfo@CDlgSTConfig@@MAEXXZ$4 1002a410 f   DlgSTConfig.obj
 0001:0002941c       __unwindfunclet$?LoadInfo@CDlgSTConfig@@MAEXXZ$5 1002a41c f   DlgSTConfig.obj
 0001:00029428       __unwindfunclet$?LoadInfo@CDlgSTConfig@@MAEXXZ$6 1002a428 f   DlgSTConfig.obj
 0001:00029439       __ehhandler$?LoadInfo@CDlgSTConfig@@MAEXXZ 1002a439 f   DlgSTConfig.obj
 0001:00029470       __unwindfunclet$?SaveInfo@CDlgSTConfig@@MAEHXZ$0 1002a470 f   DlgSTConfig.obj
 0001:00029479       __unwindfunclet$?SaveInfo@CDlgSTConfig@@MAEHXZ$1 1002a479 f   DlgSTConfig.obj
 0001:00029482       __unwindfunclet$?SaveInfo@CDlgSTConfig@@MAEHXZ$2 1002a482 f   DlgSTConfig.obj
 0001:0002948b       __unwindfunclet$?SaveInfo@CDlgSTConfig@@MAEHXZ$3 1002a48b f   DlgSTConfig.obj
 0001:00029494       __unwindfunclet$?SaveInfo@CDlgSTConfig@@MAEHXZ$4 1002a494 f   DlgSTConfig.obj
 0001:000294a2       __ehhandler$?SaveInfo@CDlgSTConfig@@MAEHXZ 1002a4a2 f   DlgSTConfig.obj
 0001:000294c0       __unwindfunclet$??0CDlgSTOption@@QAE@PAVCWnd@@@Z$0 1002a4c0 f   DlgSTOption.obj
 0001:000294c8       __unwindfunclet$??0CDlgSTOption@@QAE@PAVCWnd@@@Z$1 1002a4c8 f   DlgSTOption.obj
 0001:000294d6       __unwindfunclet$??0CDlgSTOption@@QAE@PAVCWnd@@@Z$2 1002a4d6 f   DlgSTOption.obj
 0001:000294e9       __ehhandler$??0CDlgSTOption@@QAE@PAVCWnd@@@Z 1002a4e9 f   DlgSTOption.obj
 0001:00029510       __unwindfunclet$?ApplyConfig@CDlgSTOption@@QAEXXZ$0 1002a510 f   DlgSTOption.obj
 0001:00029519       __unwindfunclet$?ApplyConfig@CDlgSTOption@@QAEXXZ$3 1002a519 f   DlgSTOption.obj
 0001:00029522       __unwindfunclet$?ApplyConfig@CDlgSTOption@@QAEXXZ$4 1002a522 f   DlgSTOption.obj
 0001:0002952b       __unwindfunclet$?ApplyConfig@CDlgSTOption@@QAEXXZ$1 1002a52b f   DlgSTOption.obj
 0001:00029534       __unwindfunclet$?ApplyConfig@CDlgSTOption@@QAEXXZ$2 1002a534 f   DlgSTOption.obj
 0001:00029542       __ehhandler$?ApplyConfig@CDlgSTOption@@QAEXXZ 1002a542 f   DlgSTOption.obj
 0001:00029560       __unwindfunclet$?ChangeSfgPath@CDlgSTOption@@QAEXPBD@Z$0 1002a560 f   DlgSTOption.obj
 0001:00029569       __unwindfunclet$?ChangeSfgPath@CDlgSTOption@@QAEXPBD@Z$2 1002a569 f   DlgSTOption.obj
 0001:00029571       __unwindfunclet$?ChangeSfgPath@CDlgSTOption@@QAEXPBD@Z$3 1002a571 f   DlgSTOption.obj
 0001:0002957f       __ehhandler$?ChangeSfgPath@CDlgSTOption@@QAEXPBD@Z 1002a57f f   DlgSTOption.obj
 0001:000295a0       __unwindfunclet$?GetExpiredDate@CDlgSTOption@@QAE?AV?$CStringT@DV?$StrTraitMFC_DLL@DV?$ChTraitsCRT@D@ATL@@@@@ATL@@XZ$0 1002a5a0 f   DlgSTOption.obj
 0001:000295ae       __ehhandler$?GetExpiredDate@CDlgSTOption@@QAE?AV?$CStringT@DV?$StrTraitMFC_DLL@DV?$ChTraitsCRT@D@ATL@@@@@ATL@@XZ 1002a5ae f   DlgSTOption.obj
 0001:000295d0       __unwindfunclet$?GetPrivateProfileStringInST@CDlgSTOption@@QAEKPBD00PADKH@Z$0 1002a5d0 f   DlgSTOption.obj
 0001:000295d9       __unwindfunclet$?GetPrivateProfileStringInST@CDlgSTOption@@QAEKPBD00PADKH@Z$1 1002a5d9 f   DlgSTOption.obj
 0001:000295e7       __ehhandler$?GetPrivateProfileStringInST@CDlgSTOption@@QAEKPBD00PADKH@Z 1002a5e7 f   DlgSTOption.obj
 0001:00029610       __unwindfunclet$?GetSTFile@CDlgSTOption@@QAEXPBD@Z$0 1002a610 f   DlgSTOption.obj
 0001:00029618       __unwindfunclet$?GetSTFile@CDlgSTOption@@QAEXPBD@Z$1 1002a618 f   DlgSTOption.obj
 0001:00029626       __ehhandler$?GetSTFile@CDlgSTOption@@QAEXPBD@Z 1002a626 f   DlgSTOption.obj
 0001:00029650       __unwindfunclet$?GetSdPath@CDlgSTOption@@QAE?AV?$CStringT@DV?$StrTraitMFC_DLL@DV?$ChTraitsCRT@D@ATL@@@@@ATL@@XZ$0 1002a650 f   DlgSTOption.obj
 0001:0002966a       __unwindfunclet$?GetSdPath@CDlgSTOption@@QAE?AV?$CStringT@DV?$StrTraitMFC_DLL@DV?$ChTraitsCRT@D@ATL@@@@@ATL@@XZ$1 1002a66a f   DlgSTOption.obj
 0001:00029673       __unwindfunclet$?GetSdPath@CDlgSTOption@@QAE?AV?$CStringT@DV?$StrTraitMFC_DLL@DV?$ChTraitsCRT@D@ATL@@@@@ATL@@XZ$2 1002a673 f   DlgSTOption.obj
 0001:0002967c       __unwindfunclet$?GetSdPath@CDlgSTOption@@QAE?AV?$CStringT@DV?$StrTraitMFC_DLL@DV?$ChTraitsCRT@D@ATL@@@@@ATL@@XZ$3 1002a67c f   DlgSTOption.obj
 0001:00029685       __unwindfunclet$?GetSdPath@CDlgSTOption@@QAE?AV?$CStringT@DV?$StrTraitMFC_DLL@DV?$ChTraitsCRT@D@ATL@@@@@ATL@@XZ$4 1002a685 f   DlgSTOption.obj
 0001:00029693       __ehhandler$?GetSdPath@CDlgSTOption@@QAE?AV?$CStringT@DV?$StrTraitMFC_DLL@DV?$ChTraitsCRT@D@ATL@@@@@ATL@@XZ 1002a693 f   DlgSTOption.obj
 0001:000296b0       __unwindfunclet$?OnInitDialog@CDlgSTOption@@MAEHXZ$0 1002a6b0 f   DlgSTOption.obj
 0001:000296ba       __unwindfunclet$?OnInitDialog@CDlgSTOption@@MAEHXZ$1 1002a6ba f   DlgSTOption.obj
 0001:000296c4       __unwindfunclet$?OnInitDialog@CDlgSTOption@@MAEHXZ$2 1002a6c4 f   DlgSTOption.obj
 0001:000296ce       __unwindfunclet$?OnInitDialog@CDlgSTOption@@MAEHXZ$3 1002a6ce f   DlgSTOption.obj
 0001:000296d8       __unwindfunclet$?OnInitDialog@CDlgSTOption@@MAEHXZ$4 1002a6d8 f   DlgSTOption.obj
 0001:000296e2       __unwindfunclet$?OnInitDialog@CDlgSTOption@@MAEHXZ$5 1002a6e2 f   DlgSTOption.obj
 0001:000296f1       __ehhandler$?OnInitDialog@CDlgSTOption@@MAEHXZ 1002a6f1 f   DlgSTOption.obj
 0001:00029720       __unwindfunclet$?OnOK@CDlgSTOption@@MAEXXZ$2 1002a720 f   DlgSTOption.obj
 0001:00029729       __unwindfunclet$?OnOK@CDlgSTOption@@MAEXXZ$0 1002a729 f   DlgSTOption.obj
 0001:00029732       __unwindfunclet$?OnOK@CDlgSTOption@@MAEXXZ$1 1002a732 f   DlgSTOption.obj
 0001:00029740       __ehhandler$?OnOK@CDlgSTOption@@MAEXXZ 1002a740 f   DlgSTOption.obj
 0001:00029760       __unwindfunclet$?WritePrivateProfileStringInST@CDlgSTOption@@QAEHPBD00H@Z$0 1002a760 f   DlgSTOption.obj
 0001:00029769       __unwindfunclet$?WritePrivateProfileStringInST@CDlgSTOption@@QAEHPBD00H@Z$1 1002a769 f   DlgSTOption.obj
 0001:00029777       __ehhandler$?WritePrivateProfileStringInST@CDlgSTOption@@QAEHPBD00H@Z 1002a777 f   DlgSTOption.obj
 0001:000297a0       __unwindfunclet$??0CSTConfigureDlgApp@@QAE@XZ$0 1002a7a0 f   STConfigureDlg.obj
 0001:000297ad       __ehhandler$??0CSTConfigureDlgApp@@QAE@XZ 1002a7ad f   STConfigureDlg.obj
 0001:000297d0       __unwindfunclet$??__EtheApp@@YAXXZ$0 1002a7d0 f   STConfigureDlg.obj
 0001:000297df       __ehhandler$??__EtheApp@@YAXXZ 1002a7df f   STConfigureDlg.obj
 0001:00029800       __unwindfunclet$?Dtos@@YA?AV?$CStringT@DV?$StrTraitMFC_DLL@DV?$ChTraitsCRT@D@ATL@@@@@ATL@@N@Z$0 1002a800 f   STConfigureDlg.obj
 0001:0002981f       __ehhandler$?Dtos@@YA?AV?$CStringT@DV?$StrTraitMFC_DLL@DV?$ChTraitsCRT@D@ATL@@@@@ATL@@N@Z 1002a81f f   STConfigureDlg.obj
 0001:00029840       __unwindfunclet$?Parser@@YA?AV?$CStringT@DV?$StrTraitMFC_DLL@DV?$ChTraitsCRT@D@ATL@@@@@ATL@@PBDPAH@Z$1 1002a840 f   STConfigureDlg.obj
 0001:0002984e       __ehhandler$?Parser@@YA?AV?$CStringT@DV?$StrTraitMFC_DLL@DV?$ChTraitsCRT@D@ATL@@@@@ATL@@PBDPAH@Z 1002a84e f   STConfigureDlg.obj
 0001:00029870       __ehhandler$??__F_AtlComModule@ATL@@YAXXZ 1002a870 f   StdAfx.obj
 0001:00029890       __unwindfunclet$??0CTabAuthority@@QAE@PAVCWnd@@@Z$0 1002a890 f   TabAuthority.obj
 0001:00029898       __unwindfunclet$??0CTabAuthority@@QAE@PAVCWnd@@@Z$1 1002a898 f   TabAuthority.obj
 0001:000298a6       __unwindfunclet$??0CTabAuthority@@QAE@PAVCWnd@@@Z$2 1002a8a6 f   TabAuthority.obj
 0001:000298b4       __unwindfunclet$??0CTabAuthority@@QAE@PAVCWnd@@@Z$3 1002a8b4 f   TabAuthority.obj
 0001:000298c2       __unwindfunclet$??0CTabAuthority@@QAE@PAVCWnd@@@Z$4 1002a8c2 f   TabAuthority.obj
 0001:000298d0       __unwindfunclet$??0CTabAuthority@@QAE@PAVCWnd@@@Z$5 1002a8d0 f   TabAuthority.obj
 0001:000298de       __unwindfunclet$??0CTabAuthority@@QAE@PAVCWnd@@@Z$6 1002a8de f   TabAuthority.obj
 0001:000298ec       __unwindfunclet$??0CTabAuthority@@QAE@PAVCWnd@@@Z$7 1002a8ec f   TabAuthority.obj
 0001:000298fa       __unwindfunclet$??0CTabAuthority@@QAE@PAVCWnd@@@Z$8 1002a8fa f   TabAuthority.obj
 0001:00029908       __unwindfunclet$??0CTabAuthority@@QAE@PAVCWnd@@@Z$9 1002a908 f   TabAuthority.obj
 0001:00029917       __unwindfunclet$??0CTabAuthority@@QAE@PAVCWnd@@@Z$10 1002a917 f   TabAuthority.obj
 0001:00029926       __unwindfunclet$??0CTabAuthority@@QAE@PAVCWnd@@@Z$11 1002a926 f   TabAuthority.obj
 0001:0002993a       __ehhandler$??0CTabAuthority@@QAE@PAVCWnd@@@Z 1002a93a f   TabAuthority.obj
 0001:00029960       __unwindfunclet$?LoadInfo@CTabAuthority@@EAEXXZ$0 1002a960 f   TabAuthority.obj
 0001:00029969       __unwindfunclet$?LoadInfo@CTabAuthority@@EAEXXZ$1 1002a969 f   TabAuthority.obj
 0001:00029972       __unwindfunclet$?LoadInfo@CTabAuthority@@EAEXXZ$2 1002a972 f   TabAuthority.obj
 0001:0002997b       __unwindfunclet$?LoadInfo@CTabAuthority@@EAEXXZ$3 1002a97b f   TabAuthority.obj
 0001:00029984       __unwindfunclet$?LoadInfo@CTabAuthority@@EAEXXZ$4 1002a984 f   TabAuthority.obj
 0001:0002998d       __unwindfunclet$?LoadInfo@CTabAuthority@@EAEXXZ$5 1002a98d f   TabAuthority.obj
 0001:0002999b       __ehhandler$?LoadInfo@CTabAuthority@@EAEXXZ 1002a99b f   TabAuthority.obj
 0001:000299d0       __unwindfunclet$?SaveInfo@CTabAuthority@@EAEHXZ$0 1002a9d0 f   TabAuthority.obj
 0001:000299e1       __ehhandler$?SaveInfo@CTabAuthority@@EAEHXZ 1002a9e1 f   TabAuthority.obj
 0001:00029a10       __unwindfunclet$??0CTabBasic@@QAE@PAVCWnd@@@Z$0 1002aa10 f   TabBasic.obj
 0001:00029a18       __unwindfunclet$??0CTabBasic@@QAE@PAVCWnd@@@Z$1 1002aa18 f   TabBasic.obj
 0001:00029a26       __unwindfunclet$??0CTabBasic@@QAE@PAVCWnd@@@Z$2 1002aa26 f   TabBasic.obj
 0001:00029a34       __unwindfunclet$??0CTabBasic@@QAE@PAVCWnd@@@Z$3 1002aa34 f   TabBasic.obj
 0001:00029a42       __unwindfunclet$??0CTabBasic@@QAE@PAVCWnd@@@Z$4 1002aa42 f   TabBasic.obj
 0001:00029a55       __ehhandler$??0CTabBasic@@QAE@PAVCWnd@@@Z 1002aa55 f   TabBasic.obj
 0001:00029a80       __unwindfunclet$?LoadInfo@CTabBasic@@MAEXXZ$0 1002aa80 f   TabBasic.obj
 0001:00029a91       __ehhandler$?LoadInfo@CTabBasic@@MAEXXZ 1002aa91 f   TabBasic.obj
 0001:00029ac0       __unwindfunclet$?SaveInfo@CTabBasic@@MAEHXZ$0 1002aac0 f   TabBasic.obj
 0001:00029ac9       __unwindfunclet$?SaveInfo@CTabBasic@@MAEHXZ$1 1002aac9 f   TabBasic.obj
 0001:00029ad7       __ehhandler$?SaveInfo@CTabBasic@@MAEHXZ 1002aad7 f   TabBasic.obj
 0001:00029b00       __unwindfunclet$??0CTabIndex@@QAE@PAVCWnd@@@Z$0 1002ab00 f   TabIndex.obj
 0001:00029b08       __unwindfunclet$??0CTabIndex@@QAE@PAVCWnd@@@Z$1 1002ab08 f   TabIndex.obj
 0001:00029b16       __unwindfunclet$??0CTabIndex@@QAE@PAVCWnd@@@Z$2 1002ab16 f   TabIndex.obj
 0001:00029b24       __unwindfunclet$??0CTabIndex@@QAE@PAVCWnd@@@Z$3 1002ab24 f   TabIndex.obj
 0001:00029b32       __unwindfunclet$??0CTabIndex@@QAE@PAVCWnd@@@Z$4 1002ab32 f   TabIndex.obj
 0001:00029b40       __unwindfunclet$??0CTabIndex@@QAE@PAVCWnd@@@Z$5 1002ab40 f   TabIndex.obj
 0001:00029b4e       __unwindfunclet$??0CTabIndex@@QAE@PAVCWnd@@@Z$6 1002ab4e f   TabIndex.obj
 0001:00029b5c       __unwindfunclet$??0CTabIndex@@QAE@PAVCWnd@@@Z$7 1002ab5c f   TabIndex.obj
 0001:00029b6a       __unwindfunclet$??0CTabIndex@@QAE@PAVCWnd@@@Z$8 1002ab6a f   TabIndex.obj
 0001:00029b78       __unwindfunclet$??0CTabIndex@@QAE@PAVCWnd@@@Z$9 1002ab78 f   TabIndex.obj
 0001:00029b8b       __ehhandler$??0CTabIndex@@QAE@PAVCWnd@@@Z 1002ab8b f   TabIndex.obj
 0001:00029bb0       __unwindfunclet$?LoadInfo@CTabIndex@@EAEXXZ$0 1002abb0 f   TabIndex.obj
 0001:00029bbc       __unwindfunclet$?LoadInfo@CTabIndex@@EAEXXZ$1 1002abbc f   TabIndex.obj
