; Listing generated by Microsoft (R) Optimizing Compiler Version 19.29.30148.0 

	TITLE	D:\git\src\IBK\IBK_DRFN\#DRfn-CS\_Obj\PcTrMng\_CompanyManager.obj
	.686P
	.XMM
	include listing.inc
	.model	flat

INCLUDELIB MSVCRT
INCLUDELIB OLDNAMES

PUBLIC	??_C@_0P@BKKCOCLK@RMSG_INTERFACE@		; `string'
PUBLIC	??_C@_0BB@GOOPDKI@RMSG_GETPCTRDATA@		; `string'
PUBLIC	??_C@_0BB@JPACFCL@RMSG_SETPCTRDATA@		; `string'
PUBLIC	??_C@_0BB@EPGJDGDK@RMSG_CONCERNHWND@		; `string'
PUBLIC	??_C@_0BA@JHANHJCN@RMSG_INTREQUEST@		; `string'
PUBLIC	??_C@_0BF@MNPNIDPI@RMSG_GWANSIMREGISTER@	; `string'
;	COMDAT ??_C@_0BF@MNPNIDPI@RMSG_GWANSIMREGISTER@
CONST	SEGMENT
??_C@_0BF@MNPNIDPI@RMSG_GWANSIMREGISTER@ DB 'RMSG_GWANSIMREGISTER', 00H ; `string'
CONST	ENDS
;	COMDAT ??_C@_0BA@JHANHJCN@RMSG_INTREQUEST@
CONST	SEGMENT
??_C@_0BA@JHANHJCN@RMSG_INTREQUEST@ DB 'RMSG_INTREQUEST', 00H ; `string'
CONST	ENDS
;	COMDAT ??_C@_0BB@EPGJDGDK@RMSG_CONCERNHWND@
CONST	SEGMENT
??_C@_0BB@EPGJDGDK@RMSG_CONCERNHWND@ DB 'RMSG_CONCERNHWND', 00H ; `string'
CONST	ENDS
;	COMDAT ??_C@_0BB@JPACFCL@RMSG_SETPCTRDATA@
CONST	SEGMENT
??_C@_0BB@JPACFCL@RMSG_SETPCTRDATA@ DB 'RMSG_SETPCTRDATA', 00H ; `string'
CONST	ENDS
;	COMDAT ??_C@_0BB@GOOPDKI@RMSG_GETPCTRDATA@
CONST	SEGMENT
??_C@_0BB@GOOPDKI@RMSG_GETPCTRDATA@ DB 'RMSG_GETPCTRDATA', 00H ; `string'
CONST	ENDS
;	COMDAT ??_C@_0P@BKKCOCLK@RMSG_INTERFACE@
CONST	SEGMENT
??_C@_0P@BKKCOCLK@RMSG_INTERFACE@ DB 'RMSG_INTERFACE', 00H ; `string'
CONST	ENDS
PUBLIC	?__empty_global_delete@@YAXPAX@Z		; __empty_global_delete
PUBLIC	?__empty_global_delete@@YAXPAXI@Z		; __empty_global_delete
PUBLIC	??0CCompanyManager@@QAE@XZ			; CCompanyManager::CCompanyManager
PUBLIC	??1CCompanyManager@@QAE@XZ			; CCompanyManager::~CCompanyManager
PUBLIC	?GetID@CCompanyManager@@UAGHXZ			; CCompanyManager::GetID
PUBLIC	?GetName@CCompanyManager@@UAGPBDH@Z		; CCompanyManager::GetName
PUBLIC	?GetAcctCode@CCompanyManager@@UAGHAAVCStringList@@0@Z ; CCompanyManager::GetAcctCode
PUBLIC	?GetPwd@CCompanyManager@@UAG?AV?$CStringT@DV?$StrTraitMFC_DLL@DV?$ChTraitsCRT@D@ATL@@@@@ATL@@XZ ; CCompanyManager::GetPwd
PUBLIC	?GetSysEdu@CCompanyManager@@UAGHPBDJJP6GXJ0JJ@Z@Z ; CCompanyManager::GetSysEdu
PUBLIC	?RemoveSysEdu@CCompanyManager@@UAGXPBDJJP6GXJ0JJ@Z@Z ; CCompanyManager::RemoveSysEdu
PUBLIC	?GetAcctCodeEx@CCompanyManager@@UAGHAAV?$CList@PAUSTACC_SSDATA@@PAU1@@@H@Z ; CCompanyManager::GetAcctCodeEx
PUBLIC	?GetAcctInfo@CCompanyManager@@UAGPBDPBDHH@Z	; CCompanyManager::GetAcctInfo
PUBLIC	?GetSamsungAcctCode@CCompanyManager@@QAEHAAVCStringList@@0@Z ; CCompanyManager::GetSamsungAcctCode
PUBLIC	?GetSamsungAcctCodeEx@CCompanyManager@@QAEHAAV?$CList@PAUSTACC_SSDATA@@PAU1@@@H@Z ; CCompanyManager::GetSamsungAcctCodeEx
PUBLIC	?GetSamsungAcctInfo@CCompanyManager@@QAEPBDPBDHH@Z ; CCompanyManager::GetSamsungAcctInfo
PUBLIC	?GetEugeneAcctCode@CCompanyManager@@QAEHAAVCStringList@@0@Z ; CCompanyManager::GetEugeneAcctCode
PUBLIC	?GetEugeneAcctCodeEx@CCompanyManager@@QAEHAAV?$CList@PAUSTACC_SSDATA@@PAU1@@@H@Z ; CCompanyManager::GetEugeneAcctCodeEx
PUBLIC	?GetEugeneAcctInfo@CCompanyManager@@QAEPBDPBDHH@Z ; CCompanyManager::GetEugeneAcctInfo
PUBLIC	?CreateChkSysWnd@CCompanyManager@@QAEHXZ	; CCompanyManager::CreateChkSysWnd
PUBLIC	?AddTail@?$CList@PAUSTACC_SSDATA@@PAU1@@@QAEPAU__POSITION@@PAUSTACC_SSDATA@@@Z ; CList<STACC_SSDATA *,STACC_SSDATA *>::AddTail
PUBLIC	?NewNode@?$CList@PAUSTACC_SSDATA@@PAU1@@@IAEPAUCNode@1@PAU21@0@Z ; CList<STACC_SSDATA *,STACC_SSDATA *>::NewNode
PUBLIC	??_C@_02DPKJAMEF@?$CFd@				; `string'
PUBLIC	??_C@_00CNPNBAHC@@				; `string'
PUBLIC	??_7CCompanyManager@@6B@			; CCompanyManager::`vftable'
PUBLIC	??_C@_07MNIDNIOF@DAISHIN@			; `string'
PUBLIC	??_C@_06NMDNNBDH@DAEWOO@			; `string'
PUBLIC	??_C@_07CJPNPGBH@HYUNDAI@			; `string'
PUBLIC	??_C@_05IOBOPHC@WOORI@				; `string'
PUBLIC	??_C@_06PHIBLBFJ@HANWHA@			; `string'
PUBLIC	??_C@_06HJALLPEB@DONGBU@			; `string'
PUBLIC	??_C@_03KKAOFJMH@SK?7@				; `string'
PUBLIC	??_C@_05NJCJELEG@KYOBO@				; `string'
PUBLIC	??_C@_07BJCOJJDJ@DONGWON@			; `string'
PUBLIC	??_C@_06HLJNPKKD@KIWOOM@			; `string'
PUBLIC	??_C@_05KBPIFHAF@SEOUL@				; `string'
PUBLIC	??_C@_07FGJCIAEP@SAMSUNG@			; `string'
PUBLIC	??_C@_07DJDHCFCP@BOOKOOK@			; `string'
PUBLIC	??_C@_05BPBHKHNH@HANTU@				; `string'
PUBLIC	??_C@_0O@NOPFNLCJ@EUGENE_SYSEDU@		; `string'
PUBLIC	??_R0?AUICompanyManager@@@8			; ICompanyManager `RTTI Type Descriptor'
PUBLIC	??_R3ICompanyManager@@8				; ICompanyManager::`RTTI Class Hierarchy Descriptor'
PUBLIC	??_R2ICompanyManager@@8				; ICompanyManager::`RTTI Base Class Array'
PUBLIC	??_R1A@?0A@EA@ICompanyManager@@8		; ICompanyManager::`RTTI Base Class Descriptor at (0,-1,0,64)'
PUBLIC	??_R0?AUICompanyManager_SS@@@8			; ICompanyManager_SS `RTTI Type Descriptor'
PUBLIC	??_R3ICompanyManager_SS@@8			; ICompanyManager_SS::`RTTI Class Hierarchy Descriptor'
PUBLIC	??_R2ICompanyManager_SS@@8			; ICompanyManager_SS::`RTTI Base Class Array'
PUBLIC	??_R1A@?0A@EA@ICompanyManager_SS@@8		; ICompanyManager_SS::`RTTI Base Class Descriptor at (0,-1,0,64)'
PUBLIC	??_R4CCompanyManager@@6B@			; CCompanyManager::`RTTI Complete Object Locator'
PUBLIC	??_R0?AVCCompanyManager@@@8			; CCompanyManager `RTTI Type Descriptor'
PUBLIC	??_R3CCompanyManager@@8				; CCompanyManager::`RTTI Class Hierarchy Descriptor'
PUBLIC	??_R2CCompanyManager@@8				; CCompanyManager::`RTTI Base Class Array'
PUBLIC	??_R1A@?0A@EA@CCompanyManager@@8		; CCompanyManager::`RTTI Base Class Descriptor at (0,-1,0,64)'
EXTRN	??_L@YGXPAXIIP6EX0@Z1@Z:PROC			; `eh vector constructor iterator'
EXTRN	??_M@YGXPAXIIP6EX0@Z@Z:PROC			; `eh vector destructor iterator'
EXTRN	__imp__SetEnvironmentVariableA@8:PROC
EXTRN	__imp__RegisterWindowMessageA@4:PROC
EXTRN	?AfxThrowInvalidArgException@@YGXXZ:PROC	; AfxThrowInvalidArgException
EXTRN	__imp_?Concatenate@?$CSimpleStringT@D$00@ATL@@KAXAAV12@PBDH1H@Z:PROC
EXTRN	__imp_??0?$CStringT@DV?$StrTraitMFC_DLL@DV?$ChTraitsCRT@D@ATL@@@@@ATL@@QAE@XZ:PROC
EXTRN	__imp_??0?$CStringT@DV?$StrTraitMFC_DLL@DV?$ChTraitsCRT@D@ATL@@@@@ATL@@QAE@PAUIAtlStringMgr@1@@Z:PROC
EXTRN	__imp_??0?$CStringT@DV?$StrTraitMFC_DLL@DV?$ChTraitsCRT@D@ATL@@@@@ATL@@QAE@PBD@Z:PROC
EXTRN	__imp_??1?$CStringT@DV?$StrTraitMFC_DLL@DV?$ChTraitsCRT@D@ATL@@@@@ATL@@QAE@XZ:PROC
EXTRN	__imp_?GetManager@?$CStringT@DV?$StrTraitMFC_DLL@DV?$ChTraitsCRT@D@ATL@@@@@ATL@@QBEPAUIAtlStringMgr@2@XZ:PROC
EXTRN	__imp_?Format@?$CStringT@DV?$StrTraitMFC_DLL@DV?$ChTraitsCRT@D@ATL@@@@@ATL@@QAAXPBDZZ:PROC
EXTRN	?Create@CPlex@@SGPAU1@AAPAU1@II@Z:PROC		; CPlex::Create
EXTRN	@__security_check_cookie@4:PROC
EXTRN	___CxxFrameHandler3:PROC
EXTRN	??_7type_info@@6B@:QWORD			; type_info::`vftable'
EXTRN	?theApp@@3VCPcTrMngApp@@A:BYTE			; theApp
EXTRN	___security_cookie:DWORD
_BSS	SEGMENT
?RMSG_INTERFACE@@3IB DD 01H DUP (?)			; RMSG_INTERFACE
?RMSG_GETPCTRDATA@@3IB DD 01H DUP (?)			; RMSG_GETPCTRDATA
?RMSG_SETPCTRDATA@@3IB DD 01H DUP (?)			; RMSG_SETPCTRDATA
?RMSG_CONCERNHWND@@3IB DD 01H DUP (?)			; RMSG_CONCERNHWND
?RMSG_INTREQUEST@@3IB DD 01H DUP (?)			; RMSG_INTREQUEST
?RMSG_GWANSIMREGISTER@@3IB DD 01H DUP (?)		; RMSG_GWANSIMREGISTER
_BSS	ENDS
CRT$XCU	SEGMENT
?RMSG_INTERFACE$initializer$@@3P6AXXZA DD FLAT:??__ERMSG_INTERFACE@@YAXXZ ; RMSG_INTERFACE$initializer$
CRT$XCU	ENDS
;	COMDAT ??_R1A@?0A@EA@CCompanyManager@@8
rdata$r	SEGMENT
??_R1A@?0A@EA@CCompanyManager@@8 DD FLAT:??_R0?AVCCompanyManager@@@8 ; CCompanyManager::`RTTI Base Class Descriptor at (0,-1,0,64)'
	DD	02H
	DD	00H
	DD	0ffffffffH
	DD	00H
	DD	040H
	DD	FLAT:??_R3CCompanyManager@@8
rdata$r	ENDS
;	COMDAT ??_R2CCompanyManager@@8
rdata$r	SEGMENT
??_R2CCompanyManager@@8 DD FLAT:??_R1A@?0A@EA@CCompanyManager@@8 ; CCompanyManager::`RTTI Base Class Array'
	DD	FLAT:??_R1A@?0A@EA@ICompanyManager_SS@@8
	DD	FLAT:??_R1A@?0A@EA@ICompanyManager@@8
rdata$r	ENDS
;	COMDAT ??_R3CCompanyManager@@8
rdata$r	SEGMENT
??_R3CCompanyManager@@8 DD 00H				; CCompanyManager::`RTTI Class Hierarchy Descriptor'
	DD	00H
	DD	03H
	DD	FLAT:??_R2CCompanyManager@@8
rdata$r	ENDS
;	COMDAT ??_R0?AVCCompanyManager@@@8
data$rs	SEGMENT
??_R0?AVCCompanyManager@@@8 DD FLAT:??_7type_info@@6B@	; CCompanyManager `RTTI Type Descriptor'
	DD	00H
	DB	'.?AVCCompanyManager@@', 00H
data$rs	ENDS
;	COMDAT ??_R4CCompanyManager@@6B@
rdata$r	SEGMENT
??_R4CCompanyManager@@6B@ DD 00H			; CCompanyManager::`RTTI Complete Object Locator'
	DD	00H
	DD	00H
	DD	FLAT:??_R0?AVCCompanyManager@@@8
	DD	FLAT:??_R3CCompanyManager@@8
rdata$r	ENDS
;	COMDAT ??_R1A@?0A@EA@ICompanyManager_SS@@8
rdata$r	SEGMENT
??_R1A@?0A@EA@ICompanyManager_SS@@8 DD FLAT:??_R0?AUICompanyManager_SS@@@8 ; ICompanyManager_SS::`RTTI Base Class Descriptor at (0,-1,0,64)'
	DD	01H
	DD	00H
	DD	0ffffffffH
	DD	00H
	DD	040H
	DD	FLAT:??_R3ICompanyManager_SS@@8
rdata$r	ENDS
;	COMDAT ??_R2ICompanyManager_SS@@8
rdata$r	SEGMENT
??_R2ICompanyManager_SS@@8 DD FLAT:??_R1A@?0A@EA@ICompanyManager_SS@@8 ; ICompanyManager_SS::`RTTI Base Class Array'
	DD	FLAT:??_R1A@?0A@EA@ICompanyManager@@8
rdata$r	ENDS
;	COMDAT ??_R3ICompanyManager_SS@@8
rdata$r	SEGMENT
??_R3ICompanyManager_SS@@8 DD 00H			; ICompanyManager_SS::`RTTI Class Hierarchy Descriptor'
	DD	00H
	DD	02H
	DD	FLAT:??_R2ICompanyManager_SS@@8
rdata$r	ENDS
;	COMDAT ??_R0?AUICompanyManager_SS@@@8
data$rs	SEGMENT
??_R0?AUICompanyManager_SS@@@8 DD FLAT:??_7type_info@@6B@ ; ICompanyManager_SS `RTTI Type Descriptor'
	DD	00H
	DB	'.?AUICompanyManager_SS@@', 00H
data$rs	ENDS
;	COMDAT ??_R1A@?0A@EA@ICompanyManager@@8
rdata$r	SEGMENT
??_R1A@?0A@EA@ICompanyManager@@8 DD FLAT:??_R0?AUICompanyManager@@@8 ; ICompanyManager::`RTTI Base Class Descriptor at (0,-1,0,64)'
	DD	00H
	DD	00H
	DD	0ffffffffH
	DD	00H
	DD	040H
	DD	FLAT:??_R3ICompanyManager@@8
rdata$r	ENDS
;	COMDAT ??_R2ICompanyManager@@8
rdata$r	SEGMENT
??_R2ICompanyManager@@8 DD FLAT:??_R1A@?0A@EA@ICompanyManager@@8 ; ICompanyManager::`RTTI Base Class Array'
rdata$r	ENDS
;	COMDAT ??_R3ICompanyManager@@8
rdata$r	SEGMENT
??_R3ICompanyManager@@8 DD 00H				; ICompanyManager::`RTTI Class Hierarchy Descriptor'
	DD	00H
	DD	01H
	DD	FLAT:??_R2ICompanyManager@@8
rdata$r	ENDS
;	COMDAT ??_R0?AUICompanyManager@@@8
data$rs	SEGMENT
??_R0?AUICompanyManager@@@8 DD FLAT:??_7type_info@@6B@	; ICompanyManager `RTTI Type Descriptor'
	DD	00H
	DB	'.?AUICompanyManager@@', 00H
data$rs	ENDS
;	COMDAT ??_C@_0O@NOPFNLCJ@EUGENE_SYSEDU@
CONST	SEGMENT
??_C@_0O@NOPFNLCJ@EUGENE_SYSEDU@ DB 'EUGENE_SYSEDU', 00H ; `string'
CONST	ENDS
;	COMDAT ??_C@_05BPBHKHNH@HANTU@
CONST	SEGMENT
??_C@_05BPBHKHNH@HANTU@ DB 'HANTU', 00H			; `string'
CONST	ENDS
;	COMDAT ??_C@_07DJDHCFCP@BOOKOOK@
CONST	SEGMENT
??_C@_07DJDHCFCP@BOOKOOK@ DB 'BOOKOOK', 00H		; `string'
CONST	ENDS
;	COMDAT ??_C@_07FGJCIAEP@SAMSUNG@
CONST	SEGMENT
??_C@_07FGJCIAEP@SAMSUNG@ DB 'SAMSUNG', 00H		; `string'
CONST	ENDS
;	COMDAT ??_C@_05KBPIFHAF@SEOUL@
CONST	SEGMENT
??_C@_05KBPIFHAF@SEOUL@ DB 'SEOUL', 00H			; `string'
CONST	ENDS
;	COMDAT ??_C@_06HLJNPKKD@KIWOOM@
CONST	SEGMENT
??_C@_06HLJNPKKD@KIWOOM@ DB 'KIWOOM', 00H		; `string'
CONST	ENDS
;	COMDAT ??_C@_07BJCOJJDJ@DONGWON@
CONST	SEGMENT
??_C@_07BJCOJJDJ@DONGWON@ DB 'DONGWON', 00H		; `string'
CONST	ENDS
;	COMDAT ??_C@_05NJCJELEG@KYOBO@
CONST	SEGMENT
??_C@_05NJCJELEG@KYOBO@ DB 'KYOBO', 00H			; `string'
CONST	ENDS
;	COMDAT ??_C@_03KKAOFJMH@SK?7@
CONST	SEGMENT
??_C@_03KKAOFJMH@SK?7@ DB 'SK', 09H, 00H		; `string'
CONST	ENDS
;	COMDAT ??_C@_06HJALLPEB@DONGBU@
CONST	SEGMENT
??_C@_06HJALLPEB@DONGBU@ DB 'DONGBU', 00H		; `string'
CONST	ENDS
;	COMDAT ??_C@_06PHIBLBFJ@HANWHA@
CONST	SEGMENT
??_C@_06PHIBLBFJ@HANWHA@ DB 'HANWHA', 00H		; `string'
CONST	ENDS
;	COMDAT ??_C@_05IOBOPHC@WOORI@
CONST	SEGMENT
??_C@_05IOBOPHC@WOORI@ DB 'WOORI', 00H			; `string'
CONST	ENDS
;	COMDAT ??_C@_07CJPNPGBH@HYUNDAI@
CONST	SEGMENT
??_C@_07CJPNPGBH@HYUNDAI@ DB 'HYUNDAI', 00H		; `string'
CONST	ENDS
;	COMDAT ??_C@_06NMDNNBDH@DAEWOO@
CONST	SEGMENT
??_C@_06NMDNNBDH@DAEWOO@ DB 'DAEWOO', 00H		; `string'
CONST	ENDS
;	COMDAT ??_C@_07MNIDNIOF@DAISHIN@
CONST	SEGMENT
??_C@_07MNIDNIOF@DAISHIN@ DB 'DAISHIN', 00H		; `string'
CONST	ENDS
;	COMDAT ??_7CCompanyManager@@6B@
CONST	SEGMENT
??_7CCompanyManager@@6B@ DD FLAT:??_R4CCompanyManager@@6B@ ; CCompanyManager::`vftable'
	DD	FLAT:?GetID@CCompanyManager@@UAGHXZ
	DD	FLAT:?GetName@CCompanyManager@@UAGPBDH@Z
	DD	FLAT:?GetAcctCode@CCompanyManager@@UAGHAAVCStringList@@0@Z
	DD	FLAT:?GetPwd@CCompanyManager@@UAG?AV?$CStringT@DV?$StrTraitMFC_DLL@DV?$ChTraitsCRT@D@ATL@@@@@ATL@@XZ
	DD	FLAT:?GetSysEdu@CCompanyManager@@UAGHPBDJJP6GXJ0JJ@Z@Z
	DD	FLAT:?RemoveSysEdu@CCompanyManager@@UAGXPBDJJP6GXJ0JJ@Z@Z
	DD	FLAT:?GetAcctCodeEx@CCompanyManager@@UAGHAAV?$CList@PAUSTACC_SSDATA@@PAU1@@@H@Z
	DD	FLAT:?GetAcctInfo@CCompanyManager@@UAGPBDPBDHH@Z
CONST	ENDS
;	COMDAT ??_C@_00CNPNBAHC@@
CONST	SEGMENT
??_C@_00CNPNBAHC@@ DB 00H				; `string'
CONST	ENDS
;	COMDAT ??_C@_02DPKJAMEF@?$CFd@
CONST	SEGMENT
??_C@_02DPKJAMEF@?$CFd@ DB '%d', 00H			; `string'
CONST	ENDS
;	COMDAT xdata$x
xdata$x	SEGMENT
__unwindtable$?GetEugeneAcctCodeEx@CCompanyManager@@QAEHAAV?$CList@PAUSTACC_SSDATA@@PAU1@@@H@Z DD 0ffffffffH
	DD	FLAT:__unwindfunclet$?GetEugeneAcctCodeEx@CCompanyManager@@QAEHAAV?$CList@PAUSTACC_SSDATA@@PAU1@@@H@Z$0
	DD	00H
	DD	FLAT:__unwindfunclet$?GetEugeneAcctCodeEx@CCompanyManager@@QAEHAAV?$CList@PAUSTACC_SSDATA@@PAU1@@@H@Z$1
	DD	01H
	DD	00H
	DD	01H
	DD	00H
__ehfuncinfo$?GetEugeneAcctCodeEx@CCompanyManager@@QAEHAAV?$CList@PAUSTACC_SSDATA@@PAU1@@@H@Z DD 019930522H
	DD	04H
	DD	FLAT:__unwindtable$?GetEugeneAcctCodeEx@CCompanyManager@@QAEHAAV?$CList@PAUSTACC_SSDATA@@PAU1@@@H@Z
	DD	2 DUP(00H)
	DD	2 DUP(00H)
	DD	00H
	DD	01H
xdata$x	ENDS
;	COMDAT xdata$x
xdata$x	SEGMENT
__ehfuncinfo$?GetEugeneAcctCode@CCompanyManager@@QAEHAAVCStringList@@0@Z DD 019930522H
	DD	08H
	DD	FLAT:__unwindtable$?GetEugeneAcctCode@CCompanyManager@@QAEHAAVCStringList@@0@Z
	DD	2 DUP(00H)
	DD	2 DUP(00H)
	DD	00H
	DD	01H
__unwindtable$?GetEugeneAcctCode@CCompanyManager@@QAEHAAVCStringList@@0@Z DD 0ffffffffH
	DD	FLAT:__unwindfunclet$?GetEugeneAcctCode@CCompanyManager@@QAEHAAVCStringList@@0@Z$0
	DD	00H
	DD	FLAT:__unwindfunclet$?GetEugeneAcctCode@CCompanyManager@@QAEHAAVCStringList@@0@Z$1
	DD	01H
	DD	00H
	DD	02H
	DD	00H
	DD	03H
	DD	00H
	DD	04H
	DD	00H
	DD	05H
	DD	00H
	DD	06H
	DD	00H
xdata$x	ENDS
;	COMDAT xdata$x
xdata$x	SEGMENT
__unwindtable$?GetAcctCodeEx@CCompanyManager@@UAGHAAV?$CList@PAUSTACC_SSDATA@@PAU1@@@H@Z DD 0ffffffffH
	DD	00H
__ehfuncinfo$?GetAcctCodeEx@CCompanyManager@@UAGHAAV?$CList@PAUSTACC_SSDATA@@PAU1@@@H@Z DD 019930522H
	DD	01H
	DD	FLAT:__unwindtable$?GetAcctCodeEx@CCompanyManager@@UAGHAAV?$CList@PAUSTACC_SSDATA@@PAU1@@@H@Z
	DD	2 DUP(00H)
	DD	2 DUP(00H)
	DD	00H
	DD	01H
xdata$x	ENDS
;	COMDAT xdata$x
xdata$x	SEGMENT
__ehfuncinfo$??0STACC_SSDATA@@QAE@XZ DD 019930522H
	DD	00H
	DD	00H
	DD	2 DUP(00H)
	DD	2 DUP(00H)
	DD	00H
	DD	05H
xdata$x	ENDS
;	COMDAT xdata$x
xdata$x	SEGMENT
__unwindtable$??HATL@@YA?AV?$CStringT@DV?$StrTraitMFC_DLL@DV?$ChTraitsCRT@D@ATL@@@@@0@ABV10@PBD@Z DD 0ffffffffH
	DD	FLAT:__unwindfunclet$??HATL@@YA?AV?$CStringT@DV?$StrTraitMFC_DLL@DV?$ChTraitsCRT@D@ATL@@@@@0@ABV10@PBD@Z$0
__ehfuncinfo$??HATL@@YA?AV?$CStringT@DV?$StrTraitMFC_DLL@DV?$ChTraitsCRT@D@ATL@@@@@0@ABV10@PBD@Z DD 019930522H
	DD	01H
	DD	FLAT:__unwindtable$??HATL@@YA?AV?$CStringT@DV?$StrTraitMFC_DLL@DV?$ChTraitsCRT@D@ATL@@@@@0@ABV10@PBD@Z
	DD	2 DUP(00H)
	DD	2 DUP(00H)
	DD	00H
	DD	01H
xdata$x	ENDS
;	COMDAT xdata$x
xdata$x	SEGMENT
__unwindtable$??HATL@@YA?AV?$CStringT@DV?$StrTraitMFC_DLL@DV?$ChTraitsCRT@D@ATL@@@@@0@ABV10@0@Z DD 0ffffffffH
	DD	FLAT:__unwindfunclet$??HATL@@YA?AV?$CStringT@DV?$StrTraitMFC_DLL@DV?$ChTraitsCRT@D@ATL@@@@@0@ABV10@0@Z$0
__ehfuncinfo$??HATL@@YA?AV?$CStringT@DV?$StrTraitMFC_DLL@DV?$ChTraitsCRT@D@ATL@@@@@0@ABV10@0@Z DD 019930522H
	DD	01H
	DD	FLAT:__unwindtable$??HATL@@YA?AV?$CStringT@DV?$StrTraitMFC_DLL@DV?$ChTraitsCRT@D@ATL@@@@@0@ABV10@0@Z
	DD	2 DUP(00H)
	DD	2 DUP(00H)
	DD	00H
	DD	01H
xdata$x	ENDS
CRT$XCU	SEGMENT
?RMSG_GETPCTRDATA$initializer$@@3P6AXXZA DD FLAT:??__ERMSG_GETPCTRDATA@@YAXXZ ; RMSG_GETPCTRDATA$initializer$
CRT$XCU	ENDS
CRT$XCU	SEGMENT
?RMSG_SETPCTRDATA$initializer$@@3P6AXXZA DD FLAT:??__ERMSG_SETPCTRDATA@@YAXXZ ; RMSG_SETPCTRDATA$initializer$
CRT$XCU	ENDS
CRT$XCU	SEGMENT
?RMSG_CONCERNHWND$initializer$@@3P6AXXZA DD FLAT:??__ERMSG_CONCERNHWND@@YAXXZ ; RMSG_CONCERNHWND$initializer$
CRT$XCU	ENDS
CRT$XCU	SEGMENT
?RMSG_INTREQUEST$initializer$@@3P6AXXZA DD FLAT:??__ERMSG_INTREQUEST@@YAXXZ ; RMSG_INTREQUEST$initializer$
CRT$XCU	ENDS
CRT$XCU	SEGMENT
?RMSG_GWANSIMREGISTER$initializer$@@3P6AXXZA DD FLAT:??__ERMSG_GWANSIMREGISTER@@YAXXZ ; RMSG_GWANSIMREGISTER$initializer$
CRT$XCU	ENDS
; Function compile flags: /Ogtp
; File C:\Program Files (x86)\Microsoft Visual Studio\2019\Community\VC\Tools\MSVC\14.29.30133\atlmfc\include\afxtempl.h
;	COMDAT ?NewNode@?$CList@PAUSTACC_SSDATA@@PAU1@@@IAEPAUCNode@1@PAU21@0@Z
_TEXT	SEGMENT
_pPrev$ = 8						; size = 4
_pNext$ = 12						; size = 4
?NewNode@?$CList@PAUSTACC_SSDATA@@PAU1@@@IAEPAUCNode@1@PAU21@0@Z PROC ; CList<STACC_SSDATA *,STACC_SSDATA *>::NewNode, COMDAT
; _this$ = ecx

; 901  : {

  00000	55		 push	 ebp
  00001	8b ec		 mov	 ebp, esp
  00003	56		 push	 esi
  00004	8b f1		 mov	 esi, ecx

; 902  : 	if (m_pNodeFree == NULL)

  00006	83 7e 10 00	 cmp	 DWORD PTR [esi+16], 0
  0000a	75 34		 jne	 SHORT $LN7@NewNode

; 903  : 	{
; 904  : 		// add another block
; 905  : 		CPlex* pNewBlock = CPlex::Create(m_pBlocks, m_nBlockSize,

  0000c	6a 0c		 push	 12			; 0000000cH
  0000e	ff 76 18	 push	 DWORD PTR [esi+24]
  00011	8d 46 14	 lea	 eax, DWORD PTR [esi+20]
  00014	50		 push	 eax
  00015	e8 00 00 00 00	 call	 ?Create@CPlex@@SGPAU1@AAPAU1@II@Z ; CPlex::Create

; 906  : 				 sizeof(CNode));
; 907  : 
; 908  : 		// chain them into free list
; 909  : 		CNode* pNode = (CNode*) pNewBlock->data();
; 910  : 		// free in reverse order to make it easier to debug
; 911  : 		pNode += m_nBlockSize - 1;

  0001a	8b 56 18	 mov	 edx, DWORD PTR [esi+24]
  0001d	83 c0 08	 add	 eax, 8
  00020	8d 0c 52	 lea	 ecx, DWORD PTR [edx+edx*2]
  00023	8d 04 88	 lea	 eax, DWORD PTR [eax+ecx*4]
  00026	83 c0 f4	 add	 eax, -12		; fffffff4H

; 912  : 		for (INT_PTR i = m_nBlockSize-1; i >= 0; i--, pNode--)

  00029	83 c2 ff	 add	 edx, -1
  0002c	78 12		 js	 SHORT $LN7@NewNode
  0002e	66 90		 npad	 2
$LL4@NewNode:

; 913  : 		{
; 914  : 			pNode->pNext = m_pNodeFree;

  00030	8b 4e 10	 mov	 ecx, DWORD PTR [esi+16]
  00033	89 08		 mov	 DWORD PTR [eax], ecx

; 915  : 			m_pNodeFree = pNode;

  00035	89 46 10	 mov	 DWORD PTR [esi+16], eax
  00038	83 e8 0c	 sub	 eax, 12			; 0000000cH
  0003b	83 ea 01	 sub	 edx, 1
  0003e	79 f0		 jns	 SHORT $LL4@NewNode
$LN7@NewNode:

; 916  : 		}
; 917  : 	}
; 918  : 	ENSURE(m_pNodeFree != NULL);  // we must have something

  00040	8b 46 10	 mov	 eax, DWORD PTR [esi+16]
  00043	85 c0		 test	 eax, eax
  00045	74 18		 je	 SHORT $LN17@NewNode

; 919  : 
; 920  : 	CList::CNode* pNode = m_pNodeFree;
; 921  : 	m_pNodeFree = m_pNodeFree->pNext;

  00047	8b 08		 mov	 ecx, DWORD PTR [eax]
  00049	89 4e 10	 mov	 DWORD PTR [esi+16], ecx

; 922  : 	pNode->pPrev = pPrev;

  0004c	8b 4d 08	 mov	 ecx, DWORD PTR _pPrev$[ebp]
  0004f	89 48 04	 mov	 DWORD PTR [eax+4], ecx

; 923  : 	pNode->pNext = pNext;

  00052	8b 4d 0c	 mov	 ecx, DWORD PTR _pNext$[ebp]
  00055	89 08		 mov	 DWORD PTR [eax], ecx

; 924  : 	m_nCount++;

  00057	ff 46 0c	 inc	 DWORD PTR [esi+12]

; 925  : 	ASSERT(m_nCount > 0);  // make sure we don't overflow
; 926  : 
; 927  : #pragma push_macro("new")
; 928  : #undef new
; 929  : 	::new( (void*)( &pNode->data ) ) TYPE;
; 930  : #pragma pop_macro("new")
; 931  : 	return pNode;

  0005a	5e		 pop	 esi

; 932  : }

  0005b	5d		 pop	 ebp
  0005c	c2 08 00	 ret	 8
$LN17@NewNode:

; 916  : 		}
; 917  : 	}
; 918  : 	ENSURE(m_pNodeFree != NULL);  // we must have something

  0005f	e8 00 00 00 00	 call	 ?AfxThrowInvalidArgException@@YGXXZ ; AfxThrowInvalidArgException
$LN15@NewNode:
  00064	cc		 int	 3
?NewNode@?$CList@PAUSTACC_SSDATA@@PAU1@@@IAEPAUCNode@1@PAU21@0@Z ENDP ; CList<STACC_SSDATA *,STACC_SSDATA *>::NewNode
_TEXT	ENDS
; Function compile flags: /Ogtp
; File C:\Program Files (x86)\Microsoft Visual Studio\2019\Community\VC\Tools\MSVC\14.29.30133\atlmfc\include\afxtempl.h
;	COMDAT ?AddTail@?$CList@PAUSTACC_SSDATA@@PAU1@@@QAEPAU__POSITION@@PAUSTACC_SSDATA@@@Z
_TEXT	SEGMENT
_newElement$ = 8					; size = 4
?AddTail@?$CList@PAUSTACC_SSDATA@@PAU1@@@QAEPAU__POSITION@@PAUSTACC_SSDATA@@@Z PROC ; CList<STACC_SSDATA *,STACC_SSDATA *>::AddTail, COMDAT
; _this$ = ecx

; 965  : {

  00000	55		 push	 ebp
  00001	8b ec		 mov	 ebp, esp
  00003	56		 push	 esi
  00004	8b f1		 mov	 esi, ecx
  00006	57		 push	 edi

; 902  : 	if (m_pNodeFree == NULL)

  00007	83 7e 10 00	 cmp	 DWORD PTR [esi+16], 0

; 966  : 	ASSERT_VALID(this);
; 967  : 
; 968  : 	CNode* pNewNode = NewNode(m_pNodeTail, NULL);

  0000b	8b 7e 08	 mov	 edi, DWORD PTR [esi+8]

; 902  : 	if (m_pNodeFree == NULL)

  0000e	75 32		 jne	 SHORT $LN11@AddTail

; 903  : 	{
; 904  : 		// add another block
; 905  : 		CPlex* pNewBlock = CPlex::Create(m_pBlocks, m_nBlockSize,

  00010	6a 0c		 push	 12			; 0000000cH
  00012	ff 76 18	 push	 DWORD PTR [esi+24]
  00015	8d 46 14	 lea	 eax, DWORD PTR [esi+20]
  00018	50		 push	 eax
  00019	e8 00 00 00 00	 call	 ?Create@CPlex@@SGPAU1@AAPAU1@II@Z ; CPlex::Create

; 906  : 				 sizeof(CNode));
; 907  : 
; 908  : 		// chain them into free list
; 909  : 		CNode* pNode = (CNode*) pNewBlock->data();
; 910  : 		// free in reverse order to make it easier to debug
; 911  : 		pNode += m_nBlockSize - 1;

  0001e	8b 56 18	 mov	 edx, DWORD PTR [esi+24]
  00021	83 c0 08	 add	 eax, 8
  00024	8d 4a ff	 lea	 ecx, DWORD PTR [edx-1]

; 912  : 		for (INT_PTR i = m_nBlockSize-1; i >= 0; i--, pNode--)

  00027	83 c2 ff	 add	 edx, -1
  0002a	8d 0c 49	 lea	 ecx, DWORD PTR [ecx+ecx*2]
  0002d	8d 0c 88	 lea	 ecx, DWORD PTR [eax+ecx*4]
  00030	78 10		 js	 SHORT $LN11@AddTail
$LL8@AddTail:

; 913  : 		{
; 914  : 			pNode->pNext = m_pNodeFree;

  00032	8b 46 10	 mov	 eax, DWORD PTR [esi+16]
  00035	89 01		 mov	 DWORD PTR [ecx], eax

; 915  : 			m_pNodeFree = pNode;

  00037	89 4e 10	 mov	 DWORD PTR [esi+16], ecx
  0003a	83 e9 0c	 sub	 ecx, 12			; 0000000cH
  0003d	83 ea 01	 sub	 edx, 1
  00040	79 f0		 jns	 SHORT $LL8@AddTail
$LN11@AddTail:

; 916  : 		}
; 917  : 	}
; 918  : 	ENSURE(m_pNodeFree != NULL);  // we must have something

  00042	8b 4e 10	 mov	 ecx, DWORD PTR [esi+16]
  00045	85 c9		 test	 ecx, ecx
  00047	74 39		 je	 SHORT $LN22@AddTail

; 919  : 
; 920  : 	CList::CNode* pNode = m_pNodeFree;
; 921  : 	m_pNodeFree = m_pNodeFree->pNext;

  00049	8b 01		 mov	 eax, DWORD PTR [ecx]
  0004b	89 46 10	 mov	 DWORD PTR [esi+16], eax

; 969  : 	pNewNode->data = newElement;

  0004e	8b 45 08	 mov	 eax, DWORD PTR _newElement$[ebp]

; 922  : 	pNode->pPrev = pPrev;

  00051	89 79 04	 mov	 DWORD PTR [ecx+4], edi

; 923  : 	pNode->pNext = pNext;

  00054	c7 01 00 00 00
	00		 mov	 DWORD PTR [ecx], 0

; 924  : 	m_nCount++;

  0005a	ff 46 0c	 inc	 DWORD PTR [esi+12]

; 969  : 	pNewNode->data = newElement;

  0005d	89 41 08	 mov	 DWORD PTR [ecx+8], eax

; 970  : 	if (m_pNodeTail != NULL)

  00060	8b 46 08	 mov	 eax, DWORD PTR [esi+8]
  00063	85 c0		 test	 eax, eax
  00065	74 0d		 je	 SHORT $LN2@AddTail

; 971  : 		m_pNodeTail->pNext = pNewNode;

  00067	89 08		 mov	 DWORD PTR [eax], ecx

; 972  : 	else
; 973  : 		m_pNodeHead = pNewNode;
; 974  : 	m_pNodeTail = pNewNode;
; 975  : 	return (POSITION) pNewNode;

  00069	8b c1		 mov	 eax, ecx
  0006b	5f		 pop	 edi
  0006c	89 4e 08	 mov	 DWORD PTR [esi+8], ecx
  0006f	5e		 pop	 esi

; 976  : }

  00070	5d		 pop	 ebp
  00071	c2 04 00	 ret	 4
$LN2@AddTail:

; 972  : 	else
; 973  : 		m_pNodeHead = pNewNode;
; 974  : 	m_pNodeTail = pNewNode;
; 975  : 	return (POSITION) pNewNode;

  00074	5f		 pop	 edi
  00075	89 4e 04	 mov	 DWORD PTR [esi+4], ecx
  00078	8b c1		 mov	 eax, ecx
  0007a	89 4e 08	 mov	 DWORD PTR [esi+8], ecx
  0007d	5e		 pop	 esi

; 976  : }

  0007e	5d		 pop	 ebp
  0007f	c2 04 00	 ret	 4
$LN22@AddTail:

; 918  : 	ENSURE(m_pNodeFree != NULL);  // we must have something

  00082	e8 00 00 00 00	 call	 ?AfxThrowInvalidArgException@@YGXXZ ; AfxThrowInvalidArgException
$LN20@AddTail:
  00087	cc		 int	 3
?AddTail@?$CList@PAUSTACC_SSDATA@@PAU1@@@QAEPAU__POSITION@@PAUSTACC_SSDATA@@@Z ENDP ; CList<STACC_SSDATA *,STACC_SSDATA *>::AddTail
_TEXT	ENDS
; Function compile flags: /Ogtp
; File D:\git\src\IBK\IBK_DRFN\ProjSrc\SrcDrfn\DrCommon\PcTrMng\_CompanyManager.cpp
;	COMDAT ?CreateChkSysWnd@CCompanyManager@@QAEHXZ
_TEXT	SEGMENT
?CreateChkSysWnd@CCompanyManager@@QAEHXZ PROC		; CCompanyManager::CreateChkSysWnd, COMDAT
; _this$ = ecx

; 291  : 	return FALSE;

  00000	33 c0		 xor	 eax, eax

; 292  : //	return m_SysWnd.OpenWindow();
; 293  : }

  00002	c3		 ret	 0
?CreateChkSysWnd@CCompanyManager@@QAEHXZ ENDP		; CCompanyManager::CreateChkSysWnd
_TEXT	ENDS
; Function compile flags: /Ogtp
; File D:\git\src\IBK\IBK_DRFN\ProjSrc\SrcDrfn\DrCommon\PcTrMng\_CompanyManager.cpp
;	COMDAT ?GetEugeneAcctInfo@CCompanyManager@@QAEPBDPBDHH@Z
_TEXT	SEGMENT
_szAcct$ = 8						; size = 4
_strAccCode$1 = 12					; size = 4
_nAcctSize$ = 12					; size = 4
_nInfoType$ = 16					; size = 4
?GetEugeneAcctInfo@CCompanyManager@@QAEPBDPBDHH@Z PROC	; CCompanyManager::GetEugeneAcctInfo, COMDAT
; _this$ = ecx

; 373  : {

  00000	55		 push	 ebp
  00001	8b ec		 mov	 ebp, esp

; 374  : 	if(nAcctSize==11)

  00003	83 7d 0c 0b	 cmp	 DWORD PTR _nAcctSize$[ebp], 11 ; 0000000bH
  00007	75 09		 jne	 SHORT $LN5@GetEugeneA

; 375  : 	{
; 376  : //		theApp.m_szTemp = theApp.m_KSLibMng.Lib_KSLink_GetAccInfo( szAcct , nInfoType);
; 377  : 		return (LPCSTR)theApp.m_szTemp;

  00009	a1 d4 00 00 00	 mov	 eax, DWORD PTR ?theApp@@3VCPcTrMngApp@@A+212

; 394  : }

  0000e	5d		 pop	 ebp
  0000f	c2 0c 00	 ret	 12			; 0000000cH
$LN5@GetEugeneA:

; 378  : 	}
; 379  : 	else	// 전체계좌에서 확인
; 380  : 	{
; 381  : 		int nAccCount = 0;//theApp.m_KSLibMng.Lib_KSLink_GetAccountCount();
; 382  : 		CString		strAccCode;

  00012	8d 4d 0c	 lea	 ecx, DWORD PTR _strAccCode$1[ebp]
  00015	ff 15 00 00 00
	00		 call	 DWORD PTR __imp_??0?$CStringT@DV?$StrTraitMFC_DLL@DV?$ChTraitsCRT@D@ATL@@@@@ATL@@QAE@XZ

; 383  : 		for ( int i = 0; nAccCount > i ; i++)
; 384  : 		{
; 385  : //			strAccCode	= theApp.m_KSLibMng.Lib_KSLink_GetAccount( i );
; 386  : 			if(strncmp(strAccCode, szAcct, nAcctSize)==0)
; 387  : 			{
; 388  : //				theApp.m_szTemp = theApp.m_KSLibMng.Lib_KSLink_GetAccInfo( strAccCode , nInfoType);
; 389  : 				return (LPCSTR)theApp.m_szTemp;
; 390  : 			}
; 391  : 		}
; 392  : 	}

  0001b	8d 4d 0c	 lea	 ecx, DWORD PTR _strAccCode$1[ebp]
  0001e	ff 15 00 00 00
	00		 call	 DWORD PTR __imp_??1?$CStringT@DV?$StrTraitMFC_DLL@DV?$ChTraitsCRT@D@ATL@@@@@ATL@@QAE@XZ

; 393  : 	return "";

  00024	b8 00 00 00 00	 mov	 eax, OFFSET ??_C@_00CNPNBAHC@@

; 394  : }

  00029	5d		 pop	 ebp
  0002a	c2 0c 00	 ret	 12			; 0000000cH
?GetEugeneAcctInfo@CCompanyManager@@QAEPBDPBDHH@Z ENDP	; CCompanyManager::GetEugeneAcctInfo
_TEXT	ENDS
; Function compile flags: /Ogtp
; File D:\git\src\IBK\IBK_DRFN\ProjSrc\SrcDrfn\DrCommon\PcTrMng\_CompanyManager.cpp
;	COMDAT ?GetEugeneAcctCodeEx@CCompanyManager@@QAEHAAV?$CList@PAUSTACC_SSDATA@@PAU1@@@H@Z
_TEXT	SEGMENT
_strAccName$ = -72					; size = 4
_strInfo$ = -68						; size = 52
__$ArrayPad$ = -16					; size = 4
__$EHRec$ = -12						; size = 12
_ListAcctInfo$ = 8					; size = 4
_nReqType$ = 12						; size = 4
?GetEugeneAcctCodeEx@CCompanyManager@@QAEHAAV?$CList@PAUSTACC_SSDATA@@PAU1@@@H@Z PROC ; CCompanyManager::GetEugeneAcctCodeEx, COMDAT
; _this$ = ecx

; 349  : {

  00000	55		 push	 ebp
  00001	8b ec		 mov	 ebp, esp
  00003	6a ff		 push	 -1
  00005	68 00 00 00 00	 push	 __ehhandler$?GetEugeneAcctCodeEx@CCompanyManager@@QAEHAAV?$CList@PAUSTACC_SSDATA@@PAU1@@@H@Z
  0000a	64 a1 00 00 00
	00		 mov	 eax, DWORD PTR fs:0
  00010	50		 push	 eax
  00011	83 ec 3c	 sub	 esp, 60			; 0000003cH
  00014	a1 00 00 00 00	 mov	 eax, DWORD PTR ___security_cookie
  00019	33 c5		 xor	 eax, ebp
  0001b	89 45 f0	 mov	 DWORD PTR __$ArrayPad$[ebp], eax
  0001e	50		 push	 eax
  0001f	8d 45 f4	 lea	 eax, DWORD PTR __$EHRec$[ebp]
  00022	64 a3 00 00 00
	00		 mov	 DWORD PTR fs:0, eax

; 350  : //	if(nReqType==-1)
; 351  : //		return theApp.m_KSLibMng.Lib_KSLink_GetAccountCount();
; 352  : 
; 353  : 	int nAccCount = 0;//theApp.m_KSLibMng.Lib_KSLink_GetAccountCount();
; 354  : 	CString		strInfo[ACC_ISPWD+1];

  00028	ff 35 00 00 00
	00		 push	 DWORD PTR __imp_??1?$CStringT@DV?$StrTraitMFC_DLL@DV?$ChTraitsCRT@D@ATL@@@@@ATL@@QAE@XZ
  0002e	8d 45 bc	 lea	 eax, DWORD PTR _strInfo$[ebp]
  00031	ff 35 00 00 00
	00		 push	 DWORD PTR __imp_??0?$CStringT@DV?$StrTraitMFC_DLL@DV?$ChTraitsCRT@D@ATL@@@@@ATL@@QAE@XZ
  00037	6a 0d		 push	 13			; 0000000dH
  00039	6a 04		 push	 4
  0003b	50		 push	 eax
  0003c	e8 00 00 00 00	 call	 ??_L@YGXPAXIIP6EX0@Z1@Z

; 355  : 	CString		strAccName;

  00041	8d 4d b8	 lea	 ecx, DWORD PTR _strAccName$[ebp]
  00044	ff 15 00 00 00
	00		 call	 DWORD PTR __imp_??0?$CStringT@DV?$StrTraitMFC_DLL@DV?$ChTraitsCRT@D@ATL@@@@@ATL@@QAE@XZ

; 356  : 	for ( int i = 0; nAccCount > i ; i++)
; 357  : 	{
; 358  : 		STACC_SSDATA* pNewItem = new STACC_SSDATA;
; 359  : 		CString		strAccCode;
; 360  : //		strAccCode	= theApp.m_KSLibMng.Lib_KSLink_GetAccount( i );
; 361  : 		
; 362  : 		pNewItem->szAcct = strAccCode;
; 363  : //		for(int j=0; j<=ACC_ISPWD; j++)
; 364  : //			pNewItem->InData[j] = theApp.m_KSLibMng.Lib_KSLink_GetAccInfo( strAccCode , j);
; 365  : 
; 366  : 		ListAcctInfo.AddTail(pNewItem);
; 367  : 	}
; 368  : 
; 369  : 	return nAccCount;

  0004a	8d 4d b8	 lea	 ecx, DWORD PTR _strAccName$[ebp]
  0004d	ff 15 00 00 00
	00		 call	 DWORD PTR __imp_??1?$CStringT@DV?$StrTraitMFC_DLL@DV?$ChTraitsCRT@D@ATL@@@@@ATL@@QAE@XZ
  00053	ff 35 00 00 00
	00		 push	 DWORD PTR __imp_??1?$CStringT@DV?$StrTraitMFC_DLL@DV?$ChTraitsCRT@D@ATL@@@@@ATL@@QAE@XZ
  00059	8d 45 bc	 lea	 eax, DWORD PTR _strInfo$[ebp]
  0005c	c7 45 fc ff ff
	ff ff		 mov	 DWORD PTR __$EHRec$[ebp+8], -1
  00063	6a 0d		 push	 13			; 0000000dH
  00065	6a 04		 push	 4
  00067	50		 push	 eax
  00068	e8 00 00 00 00	 call	 ??_M@YGXPAXIIP6EX0@Z@Z
  0006d	33 c0		 xor	 eax, eax

; 370  : }

  0006f	8b 4d f4	 mov	 ecx, DWORD PTR __$EHRec$[ebp]
  00072	64 89 0d 00 00
	00 00		 mov	 DWORD PTR fs:0, ecx
  00079	59		 pop	 ecx
  0007a	8b 4d f0	 mov	 ecx, DWORD PTR __$ArrayPad$[ebp]
  0007d	33 cd		 xor	 ecx, ebp
  0007f	e8 00 00 00 00	 call	 @__security_check_cookie@4
  00084	8b e5		 mov	 esp, ebp
  00086	5d		 pop	 ebp
  00087	c2 08 00	 ret	 8
_TEXT	ENDS
;	COMDAT text$x
text$x	SEGMENT
__unwindfunclet$?GetEugeneAcctCodeEx@CCompanyManager@@QAEHAAV?$CList@PAUSTACC_SSDATA@@PAU1@@@H@Z$0:
  00000	a1 00 00 00 00	 mov	 eax, DWORD PTR __imp_??1?$CStringT@DV?$StrTraitMFC_DLL@DV?$ChTraitsCRT@D@ATL@@@@@ATL@@QAE@XZ
  00005	50		 push	 eax
  00006	6a 0d		 push	 13			; 0000000dH
  00008	6a 04		 push	 4
  0000a	8d 45 bc	 lea	 eax, DWORD PTR _strInfo$[ebp]
  0000d	50		 push	 eax
  0000e	e8 00 00 00 00	 call	 ??_M@YGXPAXIIP6EX0@Z@Z
  00013	c3		 ret	 0
__unwindfunclet$?GetEugeneAcctCodeEx@CCompanyManager@@QAEHAAV?$CList@PAUSTACC_SSDATA@@PAU1@@@H@Z$1:
  00014	8d 4d b8	 lea	 ecx, DWORD PTR _strAccName$[ebp]
  00017	ff 25 00 00 00
	00		 jmp	 DWORD PTR __imp_??1?$CStringT@DV?$StrTraitMFC_DLL@DV?$ChTraitsCRT@D@ATL@@@@@ATL@@QAE@XZ
  0001d	cc		 int	 3
  0001e	cc		 int	 3
  0001f	cc		 int	 3
  00020	cc		 int	 3
  00021	cc		 int	 3
__ehhandler$?GetEugeneAcctCodeEx@CCompanyManager@@QAEHAAV?$CList@PAUSTACC_SSDATA@@PAU1@@@H@Z:
  00022	90		 npad	 1
  00023	90		 npad	 1
  00024	8b 54 24 08	 mov	 edx, DWORD PTR [esp+8]
  00028	8d 42 0c	 lea	 eax, DWORD PTR [edx+12]
  0002b	8b 4a c0	 mov	 ecx, DWORD PTR [edx-64]
  0002e	33 c8		 xor	 ecx, eax
  00030	e8 00 00 00 00	 call	 @__security_check_cookie@4
  00035	8b 4a fc	 mov	 ecx, DWORD PTR [edx-4]
  00038	33 c8		 xor	 ecx, eax
  0003a	e8 00 00 00 00	 call	 @__security_check_cookie@4
  0003f	b8 00 00 00 00	 mov	 eax, OFFSET __ehfuncinfo$?GetEugeneAcctCodeEx@CCompanyManager@@QAEHAAV?$CList@PAUSTACC_SSDATA@@PAU1@@@H@Z
  00044	e9 00 00 00 00	 jmp	 ___CxxFrameHandler3
text$x	ENDS
?GetEugeneAcctCodeEx@CCompanyManager@@QAEHAAV?$CList@PAUSTACC_SSDATA@@PAU1@@@H@Z ENDP ; CCompanyManager::GetEugeneAcctCodeEx
; Function compile flags: /Ogtp
; File D:\git\src\IBK\IBK_DRFN\ProjSrc\SrcDrfn\DrCommon\PcTrMng\_CompanyManager.cpp
;	COMDAT ?GetEugeneAcctCode@CCompanyManager@@QAEHAAVCStringList@@0@Z
_TEXT	SEGMENT
_strAccName$ = -72					; size = 4
_strInfo$ = -68						; size = 52
__$ArrayPad$ = -16					; size = 4
__$EHRec$ = -12						; size = 12
_listAcct$ = 8						; size = 4
_listAcctName$ = 12					; size = 4
?GetEugeneAcctCode@CCompanyManager@@QAEHAAVCStringList@@0@Z PROC ; CCompanyManager::GetEugeneAcctCode, COMDAT
; _this$ = ecx

; 320  : {

  00000	55		 push	 ebp
  00001	8b ec		 mov	 ebp, esp
  00003	6a ff		 push	 -1
  00005	68 00 00 00 00	 push	 __ehhandler$?GetEugeneAcctCode@CCompanyManager@@QAEHAAVCStringList@@0@Z
  0000a	64 a1 00 00 00
	00		 mov	 eax, DWORD PTR fs:0
  00010	50		 push	 eax
  00011	83 ec 3c	 sub	 esp, 60			; 0000003cH
  00014	a1 00 00 00 00	 mov	 eax, DWORD PTR ___security_cookie
  00019	33 c5		 xor	 eax, ebp
  0001b	89 45 f0	 mov	 DWORD PTR __$ArrayPad$[ebp], eax
  0001e	56		 push	 esi
  0001f	50		 push	 eax
  00020	8d 45 f4	 lea	 eax, DWORD PTR __$EHRec$[ebp]
  00023	64 a3 00 00 00
	00		 mov	 DWORD PTR fs:0, eax

; 321  : 	int nAccCount = 0;//theApp.m_KSLibMng.Lib_KSLink_GetAccountCount();
; 322  : 	CString		strInfo[ACC_ISPWD+1];

  00029	ff 35 00 00 00
	00		 push	 DWORD PTR __imp_??1?$CStringT@DV?$StrTraitMFC_DLL@DV?$ChTraitsCRT@D@ATL@@@@@ATL@@QAE@XZ
  0002f	8b 75 0c	 mov	 esi, DWORD PTR _listAcctName$[ebp]
  00032	8d 45 bc	 lea	 eax, DWORD PTR _strInfo$[ebp]
  00035	ff 35 00 00 00
	00		 push	 DWORD PTR __imp_??0?$CStringT@DV?$StrTraitMFC_DLL@DV?$ChTraitsCRT@D@ATL@@@@@ATL@@QAE@XZ
  0003b	6a 0d		 push	 13			; 0000000dH
  0003d	6a 04		 push	 4
  0003f	50		 push	 eax
  00040	e8 00 00 00 00	 call	 ??_L@YGXPAXIIP6EX0@Z1@Z

; 323  : 	CString		strAccName;

  00045	8d 4d b8	 lea	 ecx, DWORD PTR _strAccName$[ebp]
  00048	ff 15 00 00 00
	00		 call	 DWORD PTR __imp_??0?$CStringT@DV?$StrTraitMFC_DLL@DV?$ChTraitsCRT@D@ATL@@@@@ATL@@QAE@XZ

; 324  : 	for ( int i = 0; nAccCount > i ; i++)
; 325  : 	{
; 326  : 		CString		strAccCode;
; 327  : 		strAccCode	= "";//theApp.m_KSLibMng.Lib_KSLink_GetAccount( i );
; 328  : 
; 329  : 		if(strAccCode.GetLength() == 11)
; 330  : 		{
; 331  : /*
; 332  : 			strInfo[ACC_CODE_NAME] = theApp.m_KSLibMng.Lib_KSLink_GetAccInfo( strAccCode , ACC_CODE_NAME);
; 333  : 			strInfo[ACC_PRODUCNAME] = theApp.m_KSLibMng.Lib_KSLink_GetAccInfo( strAccCode , ACC_PRODUCNAME);
; 334  : */
; 335  : 
; 336  : 
; 337  : 			strAccName = strInfo[ACC_CODE_NAME];
; 338  : 
; 339  : 			strAccCode = strAccCode.Left(8) + "[" + strInfo[4] + "]" + strAccName;
; 340  : 			listAcctName.AddTail(strAccName);
; 341  : 			listAcct.AddTail(strAccCode);
; 342  : 		}
; 343  : 	}
; 344  : 	return listAcctName.GetCount();

  0004e	8b 76 0c	 mov	 esi, DWORD PTR [esi+12]
  00051	8d 4d b8	 lea	 ecx, DWORD PTR _strAccName$[ebp]
  00054	ff 15 00 00 00
	00		 call	 DWORD PTR __imp_??1?$CStringT@DV?$StrTraitMFC_DLL@DV?$ChTraitsCRT@D@ATL@@@@@ATL@@QAE@XZ
  0005a	ff 35 00 00 00
	00		 push	 DWORD PTR __imp_??1?$CStringT@DV?$StrTraitMFC_DLL@DV?$ChTraitsCRT@D@ATL@@@@@ATL@@QAE@XZ
  00060	8d 45 bc	 lea	 eax, DWORD PTR _strInfo$[ebp]
  00063	c7 45 fc ff ff
	ff ff		 mov	 DWORD PTR __$EHRec$[ebp+8], -1
  0006a	6a 0d		 push	 13			; 0000000dH
  0006c	6a 04		 push	 4
  0006e	50		 push	 eax
  0006f	e8 00 00 00 00	 call	 ??_M@YGXPAXIIP6EX0@Z@Z
  00074	8b c6		 mov	 eax, esi

; 345  : }

  00076	8b 4d f4	 mov	 ecx, DWORD PTR __$EHRec$[ebp]
  00079	64 89 0d 00 00
	00 00		 mov	 DWORD PTR fs:0, ecx
  00080	59		 pop	 ecx
  00081	5e		 pop	 esi
  00082	8b 4d f0	 mov	 ecx, DWORD PTR __$ArrayPad$[ebp]
  00085	33 cd		 xor	 ecx, ebp
  00087	e8 00 00 00 00	 call	 @__security_check_cookie@4
  0008c	8b e5		 mov	 esp, ebp
  0008e	5d		 pop	 ebp
  0008f	c2 08 00	 ret	 8
_TEXT	ENDS
;	COMDAT text$x
text$x	SEGMENT
__unwindfunclet$?GetEugeneAcctCode@CCompanyManager@@QAEHAAVCStringList@@0@Z$0:
  00000	a1 00 00 00 00	 mov	 eax, DWORD PTR __imp_??1?$CStringT@DV?$StrTraitMFC_DLL@DV?$ChTraitsCRT@D@ATL@@@@@ATL@@QAE@XZ
  00005	50		 push	 eax
  00006	6a 0d		 push	 13			; 0000000dH
  00008	6a 04		 push	 4
  0000a	8d 45 bc	 lea	 eax, DWORD PTR _strInfo$[ebp]
  0000d	50		 push	 eax
  0000e	e8 00 00 00 00	 call	 ??_M@YGXPAXIIP6EX0@Z@Z
  00013	c3		 ret	 0
__unwindfunclet$?GetEugeneAcctCode@CCompanyManager@@QAEHAAVCStringList@@0@Z$1:
  00014	8d 4d b8	 lea	 ecx, DWORD PTR _strAccName$[ebp]
  00017	ff 25 00 00 00
	00		 jmp	 DWORD PTR __imp_??1?$CStringT@DV?$StrTraitMFC_DLL@DV?$ChTraitsCRT@D@ATL@@@@@ATL@@QAE@XZ
  0001d	cc		 int	 3
  0001e	cc		 int	 3
  0001f	cc		 int	 3
  00020	cc		 int	 3
  00021	cc		 int	 3
__ehhandler$?GetEugeneAcctCode@CCompanyManager@@QAEHAAVCStringList@@0@Z:
  00022	90		 npad	 1
  00023	90		 npad	 1
  00024	8b 54 24 08	 mov	 edx, DWORD PTR [esp+8]
  00028	8d 42 0c	 lea	 eax, DWORD PTR [edx+12]
  0002b	8b 4a bc	 mov	 ecx, DWORD PTR [edx-68]
  0002e	33 c8		 xor	 ecx, eax
  00030	e8 00 00 00 00	 call	 @__security_check_cookie@4
  00035	8b 4a fc	 mov	 ecx, DWORD PTR [edx-4]
  00038	33 c8		 xor	 ecx, eax
  0003a	e8 00 00 00 00	 call	 @__security_check_cookie@4
  0003f	b8 00 00 00 00	 mov	 eax, OFFSET __ehfuncinfo$?GetEugeneAcctCode@CCompanyManager@@QAEHAAVCStringList@@0@Z
  00044	e9 00 00 00 00	 jmp	 ___CxxFrameHandler3
text$x	ENDS
?GetEugeneAcctCode@CCompanyManager@@QAEHAAVCStringList@@0@Z ENDP ; CCompanyManager::GetEugeneAcctCode
; Function compile flags: /Ogtp
; File D:\git\src\IBK\IBK_DRFN\ProjSrc\SrcDrfn\DrCommon\PcTrMng\_CompanyManager.cpp
;	COMDAT ?GetSamsungAcctInfo@CCompanyManager@@QAEPBDPBDHH@Z
_TEXT	SEGMENT
_szAcct$ = 8						; size = 4
_nAcctSize$ = 12					; size = 4
_nInfoType$ = 16					; size = 4
?GetSamsungAcctInfo@CCompanyManager@@QAEPBDPBDHH@Z PROC	; CCompanyManager::GetSamsungAcctInfo, COMDAT
; _this$ = ecx

; 151  : //@유진삭제, 유진의 계좌체계에 맞게 수정해야함.
; 152  : /*	if(nAcctSize==11)
; 153  : 	{
; 154  : 		theApp.m_szTemp = theApp.m_KSLibMng.Lib_KSLink_GetAccInfo( szAcct , nInfoType);
; 155  : 		return (LPCSTR)theApp.m_szTemp;
; 156  : 	}
; 157  : 	else	// 전체계좌에서 확인
; 158  : 	{
; 159  : 		int nAccCount = theApp.m_KSLibMng.Lib_KSLink_GetAccountCount();
; 160  : 		CString		strAccCode;
; 161  : 		for ( int i = 0; nAccCount > i ; i++)
; 162  : 		{
; 163  : 			strAccCode	= theApp.m_KSLibMng.Lib_KSLink_GetAccount( i );
; 164  : 			if(strncmp(strAccCode, szAcct, nAcctSize)==0)
; 165  : 			{
; 166  : 				theApp.m_szTemp = theApp.m_KSLibMng.Lib_KSLink_GetAccInfo( strAccCode , nInfoType);
; 167  : 				return (LPCSTR)theApp.m_szTemp;
; 168  : 			}
; 169  : 		}
; 170  : 	}
; 171  : */	return "";

  00000	b8 00 00 00 00	 mov	 eax, OFFSET ??_C@_00CNPNBAHC@@

; 172  : }

  00005	c2 0c 00	 ret	 12			; 0000000cH
?GetSamsungAcctInfo@CCompanyManager@@QAEPBDPBDHH@Z ENDP	; CCompanyManager::GetSamsungAcctInfo
_TEXT	ENDS
; Function compile flags: /Ogtp
; File D:\git\src\IBK\IBK_DRFN\ProjSrc\SrcDrfn\DrCommon\PcTrMng\_CompanyManager.cpp
;	COMDAT ?GetSamsungAcctCodeEx@CCompanyManager@@QAEHAAV?$CList@PAUSTACC_SSDATA@@PAU1@@@H@Z
_TEXT	SEGMENT
_ListAcctInfo$ = 8					; size = 4
_nReqType$ = 12						; size = 4
?GetSamsungAcctCodeEx@CCompanyManager@@QAEHAAV?$CList@PAUSTACC_SSDATA@@PAU1@@@H@Z PROC ; CCompanyManager::GetSamsungAcctCodeEx, COMDAT
; _this$ = ecx

; 124  : //@유진삭제, 유진의 계좌체계에 맞게 수정해야함.
; 125  : /*	if(nReqType==-1)
; 126  : 		return theApp.m_KSLibMng.Lib_KSLink_GetAccountCount();
; 127  : 
; 128  : 	int nAccCount = theApp.m_KSLibMng.Lib_KSLink_GetAccountCount();
; 129  : 	CString		strInfo[ACC_ISPWD+1];
; 130  : 	CString		strAccName;
; 131  : 	for ( int i = 0; nAccCount > i ; i++)
; 132  : 	{
; 133  : 		STACC_SSDATA* pNewItem = new STACC_SSDATA;
; 134  : 		CString		strAccCode;
; 135  : 		strAccCode	= theApp.m_KSLibMng.Lib_KSLink_GetAccount( i );
; 136  : 		
; 137  : 		pNewItem->szAcct = strAccCode;
; 138  : 		for(int j=0; j<=ACC_ISPWD; j++)
; 139  : 			pNewItem->InData[j] = theApp.m_KSLibMng.Lib_KSLink_GetAccInfo( strAccCode , j);
; 140  : 
; 141  : 		ListAcctInfo.AddTail(pNewItem);
; 142  : 	}
; 143  : 
; 144  : 	return nAccCount;
; 145  : */
; 146  : 	return 0;

  00000	33 c0		 xor	 eax, eax

; 147  : }

  00002	c2 08 00	 ret	 8
?GetSamsungAcctCodeEx@CCompanyManager@@QAEHAAV?$CList@PAUSTACC_SSDATA@@PAU1@@@H@Z ENDP ; CCompanyManager::GetSamsungAcctCodeEx
_TEXT	ENDS
; Function compile flags: /Ogtp
; File D:\git\src\IBK\IBK_DRFN\ProjSrc\SrcDrfn\DrCommon\PcTrMng\_CompanyManager.cpp
;	COMDAT ?GetSamsungAcctCode@CCompanyManager@@QAEHAAVCStringList@@0@Z
_TEXT	SEGMENT
_listAcct$ = 8						; size = 4
_listAcctName$ = 12					; size = 4
?GetSamsungAcctCode@CCompanyManager@@QAEHAAVCStringList@@0@Z PROC ; CCompanyManager::GetSamsungAcctCode, COMDAT
; _this$ = ecx

; 95   : //@유진삭제, 유진의 계좌체계에 맞게 수정해야함.
; 96   : /*	int nAccCount = theApp.m_KSLibMng.Lib_KSLink_GetAccountCount();
; 97   : 	CString		strInfo[ACC_ISPWD+1];
; 98   : 	CString		strAccName;
; 99   : 	for ( int i = 0; nAccCount > i ; i++)
; 100  : 	{
; 101  : 		CString		strAccCode;
; 102  : 		strAccCode	= theApp.m_KSLibMng.Lib_KSLink_GetAccount( i );
; 103  : 
; 104  : 		if(strAccCode.GetLength() == 11)
; 105  : 		{
; 106  : 			strInfo[ACC_CODE_NAME] = theApp.m_KSLibMng.Lib_KSLink_GetAccInfo( strAccCode , ACC_CODE_NAME);
; 107  : 			strInfo[ACC_PRODUCNAME] = theApp.m_KSLibMng.Lib_KSLink_GetAccInfo( strAccCode , ACC_PRODUCNAME);
; 108  : 
; 109  : 
; 110  : 			strAccName = strInfo[ACC_CODE_NAME];
; 111  : 
; 112  : 			strAccCode = strAccCode.Left(8) + "[" + strInfo[4] + "]" + strAccName;
; 113  : 			listAcctName.AddTail(strAccName);
; 114  : 			listAcct.AddTail(strAccCode);
; 115  : 		}
; 116  : 	}
; 117  : 	return listAcctName.GetCount();
; 118  : */ return 0;

  00000	33 c0		 xor	 eax, eax

; 119  : }

  00002	c2 08 00	 ret	 8
?GetSamsungAcctCode@CCompanyManager@@QAEHAAVCStringList@@0@Z ENDP ; CCompanyManager::GetSamsungAcctCode
_TEXT	ENDS
; Function compile flags: /Ogtp
; File D:\git\src\IBK\IBK_DRFN\ProjSrc\SrcDrfn\DrCommon\PcTrMng\_CompanyManager.cpp
;	COMDAT ?GetAcctInfo@CCompanyManager@@UAGPBDPBDHH@Z
_TEXT	SEGMENT
_this$ = 8						; size = 4
_szAcct$ = 12						; size = 4
_strAccCode$1 = 16					; size = 4
_nAcctSize$ = 16					; size = 4
_nInfoType$ = 20					; size = 4
?GetAcctInfo@CCompanyManager@@UAGPBDPBDHH@Z PROC	; CCompanyManager::GetAcctInfo, COMDAT

; 68   : {

  00000	55		 push	 ebp
  00001	8b ec		 mov	 ebp, esp

; 374  : 	if(nAcctSize==11)

  00003	83 7d 10 0b	 cmp	 DWORD PTR _nAcctSize$[ebp], 11 ; 0000000bH
  00007	75 09		 jne	 SHORT $LN10@GetAcctInf

; 69   : 	if(gCURRENT_COMPANY_ID==nPCTRComID_SAMSUNG)
; 70   : 		return GetSamsungAcctInfo(szAcct, nAcctSize, nInfoType);
; 71   : 	else if(gCURRENT_COMPANY_ID==nPCTRComID_EUGENE)
; 72   : 		return GetEugeneAcctInfo(szAcct, nAcctSize, nInfoType);

  00009	a1 d4 00 00 00	 mov	 eax, DWORD PTR ?theApp@@3VCPcTrMngApp@@A+212

; 73   : 	return "";
; 74   : }

  0000e	5d		 pop	 ebp
  0000f	c2 10 00	 ret	 16			; 00000010H
$LN10@GetAcctInf:

; 382  : 		CString		strAccCode;

  00012	8d 4d 10	 lea	 ecx, DWORD PTR _strAccCode$1[ebp]
  00015	ff 15 00 00 00
	00		 call	 DWORD PTR __imp_??0?$CStringT@DV?$StrTraitMFC_DLL@DV?$ChTraitsCRT@D@ATL@@@@@ATL@@QAE@XZ

; 383  : 		for ( int i = 0; nAccCount > i ; i++)
; 384  : 		{
; 385  : //			strAccCode	= theApp.m_KSLibMng.Lib_KSLink_GetAccount( i );
; 386  : 			if(strncmp(strAccCode, szAcct, nAcctSize)==0)
; 387  : 			{
; 388  : //				theApp.m_szTemp = theApp.m_KSLibMng.Lib_KSLink_GetAccInfo( strAccCode , nInfoType);
; 389  : 				return (LPCSTR)theApp.m_szTemp;
; 390  : 			}
; 391  : 		}
; 392  : 	}

  0001b	8d 4d 10	 lea	 ecx, DWORD PTR _strAccCode$1[ebp]
  0001e	ff 15 00 00 00
	00		 call	 DWORD PTR __imp_??1?$CStringT@DV?$StrTraitMFC_DLL@DV?$ChTraitsCRT@D@ATL@@@@@ATL@@QAE@XZ

; 69   : 	if(gCURRENT_COMPANY_ID==nPCTRComID_SAMSUNG)
; 70   : 		return GetSamsungAcctInfo(szAcct, nAcctSize, nInfoType);
; 71   : 	else if(gCURRENT_COMPANY_ID==nPCTRComID_EUGENE)
; 72   : 		return GetEugeneAcctInfo(szAcct, nAcctSize, nInfoType);

  00024	b8 00 00 00 00	 mov	 eax, OFFSET ??_C@_00CNPNBAHC@@

; 73   : 	return "";
; 74   : }

  00029	5d		 pop	 ebp
  0002a	c2 10 00	 ret	 16			; 00000010H
?GetAcctInfo@CCompanyManager@@UAGPBDPBDHH@Z ENDP	; CCompanyManager::GetAcctInfo
_TEXT	ENDS
; Function compile flags: /Ogtp
; File D:\git\src\IBK\IBK_DRFN\ProjSrc\SrcDrfn\DrCommon\PcTrMng\_CompanyManager.cpp
;	COMDAT ?GetAcctCodeEx@CCompanyManager@@UAGHAAV?$CList@PAUSTACC_SSDATA@@PAU1@@@H@Z
_TEXT	SEGMENT
_strAccName$2 = -72					; size = 4
_strInfo$3 = -68					; size = 52
__$ArrayPad$ = -16					; size = 4
__$EHRec$ = -12						; size = 12
_this$ = 8						; size = 4
_ListAcctInfo$ = 12					; size = 4
_nReqType$ = 16						; size = 4
?GetAcctCodeEx@CCompanyManager@@UAGHAAV?$CList@PAUSTACC_SSDATA@@PAU1@@@H@Z PROC ; CCompanyManager::GetAcctCodeEx, COMDAT

; 58   : {

  00000	55		 push	 ebp
  00001	8b ec		 mov	 ebp, esp
  00003	6a ff		 push	 -1
  00005	68 00 00 00 00	 push	 __ehhandler$?GetAcctCodeEx@CCompanyManager@@UAGHAAV?$CList@PAUSTACC_SSDATA@@PAU1@@@H@Z
  0000a	64 a1 00 00 00
	00		 mov	 eax, DWORD PTR fs:0
  00010	50		 push	 eax
  00011	83 ec 3c	 sub	 esp, 60			; 0000003cH
  00014	a1 00 00 00 00	 mov	 eax, DWORD PTR ___security_cookie
  00019	33 c5		 xor	 eax, ebp
  0001b	89 45 f0	 mov	 DWORD PTR __$ArrayPad$[ebp], eax
  0001e	50		 push	 eax
  0001f	8d 45 f4	 lea	 eax, DWORD PTR __$EHRec$[ebp]
  00022	64 a3 00 00 00
	00		 mov	 DWORD PTR fs:0, eax

; 354  : 	CString		strInfo[ACC_ISPWD+1];

  00028	ff 35 00 00 00
	00		 push	 DWORD PTR __imp_??1?$CStringT@DV?$StrTraitMFC_DLL@DV?$ChTraitsCRT@D@ATL@@@@@ATL@@QAE@XZ
  0002e	8d 45 bc	 lea	 eax, DWORD PTR _strInfo$3[ebp]
  00031	ff 35 00 00 00
	00		 push	 DWORD PTR __imp_??0?$CStringT@DV?$StrTraitMFC_DLL@DV?$ChTraitsCRT@D@ATL@@@@@ATL@@QAE@XZ
  00037	6a 0d		 push	 13			; 0000000dH
  00039	6a 04		 push	 4
  0003b	50		 push	 eax
  0003c	e8 00 00 00 00	 call	 ??_L@YGXPAXIIP6EX0@Z1@Z

; 355  : 	CString		strAccName;

  00041	8d 4d b8	 lea	 ecx, DWORD PTR _strAccName$2[ebp]
  00044	ff 15 00 00 00
	00		 call	 DWORD PTR __imp_??0?$CStringT@DV?$StrTraitMFC_DLL@DV?$ChTraitsCRT@D@ATL@@@@@ATL@@QAE@XZ

; 356  : 	for ( int i = 0; nAccCount > i ; i++)
; 357  : 	{
; 358  : 		STACC_SSDATA* pNewItem = new STACC_SSDATA;
; 359  : 		CString		strAccCode;
; 360  : //		strAccCode	= theApp.m_KSLibMng.Lib_KSLink_GetAccount( i );
; 361  : 		
; 362  : 		pNewItem->szAcct = strAccCode;
; 363  : //		for(int j=0; j<=ACC_ISPWD; j++)
; 364  : //			pNewItem->InData[j] = theApp.m_KSLibMng.Lib_KSLink_GetAccInfo( strAccCode , j);
; 365  : 
; 366  : 		ListAcctInfo.AddTail(pNewItem);
; 367  : 	}
; 368  : 
; 369  : 	return nAccCount;

  0004a	8d 4d b8	 lea	 ecx, DWORD PTR _strAccName$2[ebp]
  0004d	ff 15 00 00 00
	00		 call	 DWORD PTR __imp_??1?$CStringT@DV?$StrTraitMFC_DLL@DV?$ChTraitsCRT@D@ATL@@@@@ATL@@QAE@XZ
  00053	ff 35 00 00 00
	00		 push	 DWORD PTR __imp_??1?$CStringT@DV?$StrTraitMFC_DLL@DV?$ChTraitsCRT@D@ATL@@@@@ATL@@QAE@XZ
  00059	8d 45 bc	 lea	 eax, DWORD PTR _strInfo$3[ebp]
  0005c	6a 0d		 push	 13			; 0000000dH
  0005e	6a 04		 push	 4
  00060	50		 push	 eax
  00061	e8 00 00 00 00	 call	 ??_M@YGXPAXIIP6EX0@Z@Z

; 59   : 	if(gCURRENT_COMPANY_ID==nPCTRComID_SAMSUNG)
; 60   : 		return GetSamsungAcctCodeEx(ListAcctInfo, nReqType);
; 61   : 	else if(gCURRENT_COMPANY_ID==nPCTRComID_EUGENE)
; 62   : 		return GetEugeneAcctCodeEx(ListAcctInfo, nReqType);

  00066	33 c0		 xor	 eax, eax

; 63   : 
; 64   : 	return 0;
; 65   : }

  00068	8b 4d f4	 mov	 ecx, DWORD PTR __$EHRec$[ebp]
  0006b	64 89 0d 00 00
	00 00		 mov	 DWORD PTR fs:0, ecx
  00072	59		 pop	 ecx
  00073	8b 4d f0	 mov	 ecx, DWORD PTR __$ArrayPad$[ebp]
  00076	33 cd		 xor	 ecx, ebp
  00078	e8 00 00 00 00	 call	 @__security_check_cookie@4
  0007d	8b e5		 mov	 esp, ebp
  0007f	5d		 pop	 ebp
  00080	c2 0c 00	 ret	 12			; 0000000cH
  00083	cc		 int	 3
  00084	cc		 int	 3
  00085	cc		 int	 3
  00086	cc		 int	 3
  00087	cc		 int	 3
_TEXT	ENDS
;	COMDAT text$x
text$x	SEGMENT
__ehhandler$?GetAcctCodeEx@CCompanyManager@@UAGHAAV?$CList@PAUSTACC_SSDATA@@PAU1@@@H@Z:
  00000	90		 npad	 1
  00001	90		 npad	 1
  00002	8b 54 24 08	 mov	 edx, DWORD PTR [esp+8]
  00006	8d 42 0c	 lea	 eax, DWORD PTR [edx+12]
  00009	8b 4a c0	 mov	 ecx, DWORD PTR [edx-64]
  0000c	33 c8		 xor	 ecx, eax
  0000e	e8 00 00 00 00	 call	 @__security_check_cookie@4
  00013	8b 4a fc	 mov	 ecx, DWORD PTR [edx-4]
  00016	33 c8		 xor	 ecx, eax
  00018	e8 00 00 00 00	 call	 @__security_check_cookie@4
  0001d	b8 00 00 00 00	 mov	 eax, OFFSET __ehfuncinfo$?GetAcctCodeEx@CCompanyManager@@UAGHAAV?$CList@PAUSTACC_SSDATA@@PAU1@@@H@Z
  00022	e9 00 00 00 00	 jmp	 ___CxxFrameHandler3
text$x	ENDS
?GetAcctCodeEx@CCompanyManager@@UAGHAAV?$CList@PAUSTACC_SSDATA@@PAU1@@@H@Z ENDP ; CCompanyManager::GetAcctCodeEx
; Function compile flags: /Ogtp
; File D:\git\src\IBK\IBK_DRFN\ProjSrc\SrcDrfn\DrCommon\PcTrMng\_CompanyManager.cpp
;	COMDAT ?RemoveSysEdu@CCompanyManager@@UAGXPBDJJP6GXJ0JJ@Z@Z
_TEXT	SEGMENT
_this$ = 8						; size = 4
_szKey$ = 12						; size = 4
_pThisPoint$ = 16					; size = 4
_dwKey$ = 20						; size = 4
_pCallFunc$ = 24					; size = 4
?RemoveSysEdu@CCompanyManager@@UAGXPBDJJP6GXJ0JJ@Z@Z PROC ; CCompanyManager::RemoveSysEdu, COMDAT

; 286  : //	m_SysWnd.RemoveSysEdu(szKey, pThisPoint, dwKey, pCallFunc);
; 287  : }

  00000	c2 14 00	 ret	 20			; 00000014H
?RemoveSysEdu@CCompanyManager@@UAGXPBDJJP6GXJ0JJ@Z@Z ENDP ; CCompanyManager::RemoveSysEdu
_TEXT	ENDS
; Function compile flags: /Ogtp
; File D:\git\src\IBK\IBK_DRFN\ProjSrc\SrcDrfn\DrCommon\PcTrMng\_CompanyManager.cpp
;	COMDAT ?GetSysEdu@CCompanyManager@@UAGHPBDJJP6GXJ0JJ@Z@Z
_TEXT	SEGMENT
_szTmp$1 = -4						; size = 4
_this$ = 8						; size = 4
_szMainKey$ = 12					; size = 4
_pThisPoint$ = 16					; size = 4
_dwSubKey$ = 20						; size = 4
_pCallFunc$ = 24					; size = 4
?GetSysEdu@CCompanyManager@@UAGHPBDJJP6GXJ0JJ@Z@Z PROC	; CCompanyManager::GetSysEdu, COMDAT

; 232  : {

  00000	55		 push	 ebp
  00001	8b ec		 mov	 ebp, esp
  00003	51		 push	 ecx
  00004	56		 push	 esi
  00005	8b 75 08	 mov	 esi, DWORD PTR _this$[ebp]

; 233  : 	// 시스템트레이딩 교육여부. 0이상이면 세팅됨. 0교육안함. 1교육함.
; 234  : 	//if(m_SysWnd.m_nSysEde>=0)
; 235  : 	if(gCURRENT_COMPANY_ID==nPCTRComID_SAMSUNG)
; 236  : 	{
; 237  : 		gGetSamsungSysEdu(m_nSysEdu);
; 238  : 	}
; 239  : 	else if(gCURRENT_COMPANY_ID==nPCTRComID_EUGENE)
; 240  : 	{
; 241  : //		gGetEugeneSysEdu(m_nSysEdu);
; 242  : 		m_nSysEdu = 1;		// 우선 교육이수처리
; 243  : //		m_nSysEdu = atoi(theApp.m_KSLibMng.Lib_KSLink_GetLoginInfo( "SYSTRAD_AGR" )); // 시스템 트레이딩사용동의여부
; 244  : 		CString szTmp; szTmp.Format("%d", m_nSysEdu);

  00008	8d 4d fc	 lea	 ecx, DWORD PTR _szTmp$1[ebp]
  0000b	c7 46 0c 01 00
	00 00		 mov	 DWORD PTR [esi+12], 1
  00012	ff 15 00 00 00
	00		 call	 DWORD PTR __imp_??0?$CStringT@DV?$StrTraitMFC_DLL@DV?$ChTraitsCRT@D@ATL@@@@@ATL@@QAE@XZ
  00018	ff 76 0c	 push	 DWORD PTR [esi+12]
  0001b	8d 45 fc	 lea	 eax, DWORD PTR _szTmp$1[ebp]
  0001e	68 00 00 00 00	 push	 OFFSET ??_C@_02DPKJAMEF@?$CFd@
  00023	50		 push	 eax
  00024	ff 15 00 00 00
	00		 call	 DWORD PTR __imp_?Format@?$CStringT@DV?$StrTraitMFC_DLL@DV?$ChTraitsCRT@D@ATL@@@@@ATL@@QAAXPBDZZ
  0002a	83 c4 0c	 add	 esp, 12			; 0000000cH

; 245  : 		::SetEnvironmentVariable(SZEUGENE_SYSEDU, szTmp);

  0002d	ff 75 fc	 push	 DWORD PTR _szTmp$1[ebp]
  00030	68 00 00 00 00	 push	 OFFSET ??_C@_0O@NOPFNLCJ@EUGENE_SYSEDU@
  00035	ff 15 00 00 00
	00		 call	 DWORD PTR __imp__SetEnvironmentVariableA@8

; 246  : 	}

  0003b	8d 4d fc	 lea	 ecx, DWORD PTR _szTmp$1[ebp]
  0003e	ff 15 00 00 00
	00		 call	 DWORD PTR __imp_??1?$CStringT@DV?$StrTraitMFC_DLL@DV?$ChTraitsCRT@D@ATL@@@@@ATL@@QAE@XZ

; 247  : 
; 248  : 	if(m_nSysEdu>=0)
; 249  : 	{
; 250  : 		//pCallFunc(pThisPoint, szMainKey, dwSubKey, m_SysWnd.m_nSysEde);
; 251  : 		//return m_SysWnd.m_nSysEde;
; 252  : 		return m_nSysEdu;
; 253  : 	}
; 254  : 
; 255  : /*
; 256  : 	if(m_SysWnd.m_hWnd==NULL)
; 257  : 	{
; 258  : 		if(!CreateChkSysWnd())
; 259  : 		{
; 260  : 			// 실패 Callback리턴
; 261  : 			//pCallFunc(pThisPoint, szMainKey, dwSubKey, m_SysWnd.m_nSysEde);
; 262  : 			//return m_SysWnd.m_nSysEde;
; 263  : 			return m_nSysEdu;
; 264  : 		}
; 265  : 	}
; 266  : 	m_SysWnd.SendV840Data();
; 267  : 
; 268  : 	if(pCallFunc)
; 269  : 	{
; 270  : 		STSysCallProcItem* pItem = new STSysCallProcItem;
; 271  : 		pItem->szMainKey = szMainKey;
; 272  : 		pItem->pThisPoint = pThisPoint;
; 273  : 		pItem->dwSubKey = dwSubKey;
; 274  : 		pItem->dwNotifyData = (long)pCallFunc;
; 275  : 		
; 276  : 		m_SysWnd.m_ListCallback.AddTail(pItem);
; 277  : 	}
; 278  : */
; 279  : 
; 280  : 	//return m_SysWnd.m_nSysEde;
; 281  : 	return m_nSysEdu;

  00044	8b 46 0c	 mov	 eax, DWORD PTR [esi+12]
  00047	5e		 pop	 esi

; 282  : }

  00048	8b e5		 mov	 esp, ebp
  0004a	5d		 pop	 ebp
  0004b	c2 14 00	 ret	 20			; 00000014H
?GetSysEdu@CCompanyManager@@UAGHPBDJJP6GXJ0JJ@Z@Z ENDP	; CCompanyManager::GetSysEdu
_TEXT	ENDS
; Function compile flags: /Ogtp
; File D:\git\src\IBK\IBK_DRFN\ProjSrc\SrcDrfn\DrCommon\PcTrMng\_CompanyManager.cpp
;	COMDAT ?GetPwd@CCompanyManager@@UAG?AV?$CStringT@DV?$StrTraitMFC_DLL@DV?$ChTraitsCRT@D@ATL@@@@@ATL@@XZ
_TEXT	SEGMENT
_this$ = 8						; size = 4
___$ReturnUdt$ = 12					; size = 4
?GetPwd@CCompanyManager@@UAG?AV?$CStringT@DV?$StrTraitMFC_DLL@DV?$ChTraitsCRT@D@ATL@@@@@ATL@@XZ PROC ; CCompanyManager::GetPwd, COMDAT

; 175  : {

  00000	55		 push	 ebp
  00001	8b ec		 mov	 ebp, esp

; 176  : 	return "";

  00003	8b 4d 0c	 mov	 ecx, DWORD PTR ___$ReturnUdt$[ebp]
  00006	68 00 00 00 00	 push	 OFFSET ??_C@_00CNPNBAHC@@
  0000b	ff 15 00 00 00
	00		 call	 DWORD PTR __imp_??0?$CStringT@DV?$StrTraitMFC_DLL@DV?$ChTraitsCRT@D@ATL@@@@@ATL@@QAE@PBD@Z
  00011	8b 45 0c	 mov	 eax, DWORD PTR ___$ReturnUdt$[ebp]

; 177  : //	return theApp.m_KSLibMng.Lib_KSLink_GetLoginInfo( "USER_PASSWORD" );
; 178  : }

  00014	5d		 pop	 ebp
  00015	c2 08 00	 ret	 8
?GetPwd@CCompanyManager@@UAG?AV?$CStringT@DV?$StrTraitMFC_DLL@DV?$ChTraitsCRT@D@ATL@@@@@ATL@@XZ ENDP ; CCompanyManager::GetPwd
_TEXT	ENDS
; Function compile flags: /Ogtp
; File D:\git\src\IBK\IBK_DRFN\ProjSrc\SrcDrfn\DrCommon\PcTrMng\_CompanyManager.cpp
;	COMDAT ?GetAcctCode@CCompanyManager@@UAGHAAVCStringList@@0@Z
_TEXT	SEGMENT
_strAccName$1 = -60					; size = 4
_strInfo$2 = -56					; size = 52
__$ArrayPad$ = -4					; size = 4
_this$ = 8						; size = 4
_listAcct$ = 12						; size = 4
_listAcctName$ = 16					; size = 4
?GetAcctCode@CCompanyManager@@UAGHAAVCStringList@@0@Z PROC ; CCompanyManager::GetAcctCode, COMDAT

; 49   : {

  00000	55		 push	 ebp
  00001	8b ec		 mov	 ebp, esp
  00003	83 ec 3c	 sub	 esp, 60			; 0000003cH
  00006	a1 00 00 00 00	 mov	 eax, DWORD PTR ___security_cookie
  0000b	33 c5		 xor	 eax, ebp
  0000d	89 45 fc	 mov	 DWORD PTR __$ArrayPad$[ebp], eax
  00010	56		 push	 esi

; 322  : 	CString		strInfo[ACC_ISPWD+1];

  00011	ff 35 00 00 00
	00		 push	 DWORD PTR __imp_??1?$CStringT@DV?$StrTraitMFC_DLL@DV?$ChTraitsCRT@D@ATL@@@@@ATL@@QAE@XZ

; 49   : {

  00017	8b 75 10	 mov	 esi, DWORD PTR _listAcctName$[ebp]

; 322  : 	CString		strInfo[ACC_ISPWD+1];

  0001a	8d 45 c8	 lea	 eax, DWORD PTR _strInfo$2[ebp]
  0001d	ff 35 00 00 00
	00		 push	 DWORD PTR __imp_??0?$CStringT@DV?$StrTraitMFC_DLL@DV?$ChTraitsCRT@D@ATL@@@@@ATL@@QAE@XZ
  00023	6a 0d		 push	 13			; 0000000dH
  00025	6a 04		 push	 4
  00027	50		 push	 eax
  00028	e8 00 00 00 00	 call	 ??_L@YGXPAXIIP6EX0@Z1@Z

; 323  : 	CString		strAccName;

  0002d	8d 4d c4	 lea	 ecx, DWORD PTR _strAccName$1[ebp]
  00030	ff 15 00 00 00
	00		 call	 DWORD PTR __imp_??0?$CStringT@DV?$StrTraitMFC_DLL@DV?$ChTraitsCRT@D@ATL@@@@@ATL@@QAE@XZ

; 324  : 	for ( int i = 0; nAccCount > i ; i++)
; 325  : 	{
; 326  : 		CString		strAccCode;
; 327  : 		strAccCode	= "";//theApp.m_KSLibMng.Lib_KSLink_GetAccount( i );
; 328  : 
; 329  : 		if(strAccCode.GetLength() == 11)
; 330  : 		{
; 331  : /*
; 332  : 			strInfo[ACC_CODE_NAME] = theApp.m_KSLibMng.Lib_KSLink_GetAccInfo( strAccCode , ACC_CODE_NAME);
; 333  : 			strInfo[ACC_PRODUCNAME] = theApp.m_KSLibMng.Lib_KSLink_GetAccInfo( strAccCode , ACC_PRODUCNAME);
; 334  : */
; 335  : 
; 336  : 
; 337  : 			strAccName = strInfo[ACC_CODE_NAME];
; 338  : 
; 339  : 			strAccCode = strAccCode.Left(8) + "[" + strInfo[4] + "]" + strAccName;
; 340  : 			listAcctName.AddTail(strAccName);
; 341  : 			listAcct.AddTail(strAccCode);
; 342  : 		}
; 343  : 	}
; 344  : 	return listAcctName.GetCount();

  00036	8b 76 0c	 mov	 esi, DWORD PTR [esi+12]
  00039	8d 4d c4	 lea	 ecx, DWORD PTR _strAccName$1[ebp]
  0003c	ff 15 00 00 00
	00		 call	 DWORD PTR __imp_??1?$CStringT@DV?$StrTraitMFC_DLL@DV?$ChTraitsCRT@D@ATL@@@@@ATL@@QAE@XZ
  00042	ff 35 00 00 00
	00		 push	 DWORD PTR __imp_??1?$CStringT@DV?$StrTraitMFC_DLL@DV?$ChTraitsCRT@D@ATL@@@@@ATL@@QAE@XZ
  00048	8d 45 c8	 lea	 eax, DWORD PTR _strInfo$2[ebp]
  0004b	6a 0d		 push	 13			; 0000000dH
  0004d	6a 04		 push	 4
  0004f	50		 push	 eax
  00050	e8 00 00 00 00	 call	 ??_M@YGXPAXIIP6EX0@Z@Z

; 50   : 	if(gCURRENT_COMPANY_ID==nPCTRComID_SAMSUNG) return GetSamsungAcctCode(listAcct, listAcctName);
; 51   : 	else if(gCURRENT_COMPANY_ID==nPCTRComID_EUGENE) return GetEugeneAcctCode(listAcct, listAcctName);
; 52   : 	return 0;
; 53   : }

  00055	8b 4d fc	 mov	 ecx, DWORD PTR __$ArrayPad$[ebp]
  00058	8b c6		 mov	 eax, esi
  0005a	33 cd		 xor	 ecx, ebp
  0005c	5e		 pop	 esi
  0005d	e8 00 00 00 00	 call	 @__security_check_cookie@4
  00062	8b e5		 mov	 esp, ebp
  00064	5d		 pop	 ebp
  00065	c2 0c 00	 ret	 12			; 0000000cH
?GetAcctCode@CCompanyManager@@UAGHAAVCStringList@@0@Z ENDP ; CCompanyManager::GetAcctCode
_TEXT	ENDS
; Function compile flags: /Ogtp
; File D:\git\src\IBK\IBK_DRFN\ProjSrc\SrcDrfn\DrCommon\PcTrMng\_CompanyManager.cpp
;	COMDAT ?GetName@CCompanyManager@@UAGPBDH@Z
_TEXT	SEGMENT
_aIDName$ = -60						; size = 56
__$ArrayPad$ = -4					; size = 4
_this$ = 8						; size = 4
_nID$ = 12						; size = 4
?GetName@CCompanyManager@@UAGPBDH@Z PROC		; CCompanyManager::GetName, COMDAT

; 23   : {

  00000	55		 push	 ebp
  00001	8b ec		 mov	 ebp, esp
  00003	83 ec 3c	 sub	 esp, 60			; 0000003cH
  00006	a1 00 00 00 00	 mov	 eax, DWORD PTR ___security_cookie
  0000b	33 c5		 xor	 eax, ebp
  0000d	89 45 fc	 mov	 DWORD PTR __$ArrayPad$[ebp], eax

; 24   : 	char *aIDName[]={"DAISHIN",
; 25   : 					"DAEWOO"	,	//
; 26   : 					"HYUNDAI"	,	//현대
; 27   : 					"WOORI"		,	//우리
; 28   : 					"HANWHA"	,	//한화
; 29   : 					"DONGBU"	,	//동부
; 30   : 					"SK	"		,	//SK	
; 31   : 					"KYOBO"		,	//교보
; 32   : 					"DONGWON"	,	//동원
; 33   : 					"KIWOOM"	,	//키움
; 34   : 					"SEOUL"		,	//서울
; 35   : 					"SAMSUNG"	,	//삼성
; 36   : 					"BOOKOOK"	,	//부국
; 37   : 					"HANTU"}	;	//한투
; 38   : 
; 39   : 	return aIDName[nID];

  00010	8b 45 0c	 mov	 eax, DWORD PTR _nID$[ebp]

; 40   : }

  00013	8b 4d fc	 mov	 ecx, DWORD PTR __$ArrayPad$[ebp]
  00016	c7 45 c4 00 00
	00 00		 mov	 DWORD PTR _aIDName$[ebp], OFFSET ??_C@_07MNIDNIOF@DAISHIN@
  0001d	33 cd		 xor	 ecx, ebp
  0001f	c7 45 c8 00 00
	00 00		 mov	 DWORD PTR _aIDName$[ebp+4], OFFSET ??_C@_06NMDNNBDH@DAEWOO@
  00026	c7 45 cc 00 00
	00 00		 mov	 DWORD PTR _aIDName$[ebp+8], OFFSET ??_C@_07CJPNPGBH@HYUNDAI@
  0002d	c7 45 d0 00 00
	00 00		 mov	 DWORD PTR _aIDName$[ebp+12], OFFSET ??_C@_05IOBOPHC@WOORI@
  00034	c7 45 d4 00 00
	00 00		 mov	 DWORD PTR _aIDName$[ebp+16], OFFSET ??_C@_06PHIBLBFJ@HANWHA@
  0003b	c7 45 d8 00 00
	00 00		 mov	 DWORD PTR _aIDName$[ebp+20], OFFSET ??_C@_06HJALLPEB@DONGBU@
  00042	c7 45 dc 00 00
	00 00		 mov	 DWORD PTR _aIDName$[ebp+24], OFFSET ??_C@_03KKAOFJMH@SK?7@
  00049	c7 45 e0 00 00
	00 00		 mov	 DWORD PTR _aIDName$[ebp+28], OFFSET ??_C@_05NJCJELEG@KYOBO@
  00050	c7 45 e4 00 00
	00 00		 mov	 DWORD PTR _aIDName$[ebp+32], OFFSET ??_C@_07BJCOJJDJ@DONGWON@
  00057	c7 45 e8 00 00
	00 00		 mov	 DWORD PTR _aIDName$[ebp+36], OFFSET ??_C@_06HLJNPKKD@KIWOOM@
  0005e	c7 45 ec 00 00
	00 00		 mov	 DWORD PTR _aIDName$[ebp+40], OFFSET ??_C@_05KBPIFHAF@SEOUL@
  00065	c7 45 f0 00 00
	00 00		 mov	 DWORD PTR _aIDName$[ebp+44], OFFSET ??_C@_07FGJCIAEP@SAMSUNG@
  0006c	c7 45 f4 00 00
	00 00		 mov	 DWORD PTR _aIDName$[ebp+48], OFFSET ??_C@_07DJDHCFCP@BOOKOOK@
  00073	c7 45 f8 00 00
	00 00		 mov	 DWORD PTR _aIDName$[ebp+52], OFFSET ??_C@_05BPBHKHNH@HANTU@
  0007a	8b 44 85 c4	 mov	 eax, DWORD PTR _aIDName$[ebp+eax*4]
  0007e	e8 00 00 00 00	 call	 @__security_check_cookie@4
  00083	8b e5		 mov	 esp, ebp
  00085	5d		 pop	 ebp
  00086	c2 08 00	 ret	 8
?GetName@CCompanyManager@@UAGPBDH@Z ENDP		; CCompanyManager::GetName
_TEXT	ENDS
; Function compile flags: /Ogtp
; File D:\git\src\IBK\IBK_DRFN\ProjSrc\SrcDrfn\DrCommon\PcTrMng\_CompanyManager.cpp
;	COMDAT ?GetID@CCompanyManager@@UAGHXZ
_TEXT	SEGMENT
_this$ = 8						; size = 4
?GetID@CCompanyManager@@UAGHXZ PROC			; CCompanyManager::GetID, COMDAT

; 19   : 	return gCURRENT_COMPANY_ID;

  00000	b8 10 00 00 00	 mov	 eax, 16			; 00000010H

; 20   : }

  00005	c2 04 00	 ret	 4
?GetID@CCompanyManager@@UAGHXZ ENDP			; CCompanyManager::GetID
_TEXT	ENDS
; Function compile flags: /Ogtp
; File D:\git\src\IBK\IBK_DRFN\ProjSrc\SrcDrfn\DrCommon\PcTrMng\_CompanyManager.cpp
;	COMDAT ??1CCompanyManager@@QAE@XZ
_TEXT	SEGMENT
??1CCompanyManager@@QAE@XZ PROC				; CCompanyManager::~CCompanyManager, COMDAT
; _this$ = ecx

; 14   : {

  00000	56		 push	 esi
  00001	8b f1		 mov	 esi, ecx

; 15   : }

  00003	8d 4e 08	 lea	 ecx, DWORD PTR [esi+8]
  00006	c7 06 00 00 00
	00		 mov	 DWORD PTR [esi], OFFSET ??_7CCompanyManager@@6B@
  0000c	ff 15 00 00 00
	00		 call	 DWORD PTR __imp_??1?$CStringT@DV?$StrTraitMFC_DLL@DV?$ChTraitsCRT@D@ATL@@@@@ATL@@QAE@XZ
  00012	8d 4e 04	 lea	 ecx, DWORD PTR [esi+4]
  00015	5e		 pop	 esi
  00016	ff 25 00 00 00
	00		 jmp	 DWORD PTR __imp_??1?$CStringT@DV?$StrTraitMFC_DLL@DV?$ChTraitsCRT@D@ATL@@@@@ATL@@QAE@XZ
??1CCompanyManager@@QAE@XZ ENDP				; CCompanyManager::~CCompanyManager
_TEXT	ENDS
; Function compile flags: /Ogtp
; File D:\git\src\IBK\IBK_DRFN\ProjSrc\SrcDrfn\DrCommon\PcTrMng\_CompanyManager.cpp
;	COMDAT ??0CCompanyManager@@QAE@XZ
_TEXT	SEGMENT
_this$ = -4						; size = 4
??0CCompanyManager@@QAE@XZ PROC				; CCompanyManager::CCompanyManager, COMDAT
; _this$ = ecx

; 8    : {

  00000	55		 push	 ebp
  00001	8b ec		 mov	 ebp, esp
  00003	51		 push	 ecx
  00004	56		 push	 esi
  00005	8b f1		 mov	 esi, ecx
  00007	89 75 fc	 mov	 DWORD PTR _this$[ebp], esi
  0000a	8d 4e 04	 lea	 ecx, DWORD PTR [esi+4]
  0000d	c7 06 00 00 00
	00		 mov	 DWORD PTR [esi], OFFSET ??_7CCompanyManager@@6B@
  00013	ff 15 00 00 00
	00		 call	 DWORD PTR __imp_??0?$CStringT@DV?$StrTraitMFC_DLL@DV?$ChTraitsCRT@D@ATL@@@@@ATL@@QAE@XZ
  00019	8d 4e 08	 lea	 ecx, DWORD PTR [esi+8]
  0001c	ff 15 00 00 00
	00		 call	 DWORD PTR __imp_??0?$CStringT@DV?$StrTraitMFC_DLL@DV?$ChTraitsCRT@D@ATL@@@@@ATL@@QAE@XZ

; 9    : //	m_SysWnd.m_nSysEde = -1;
; 10   : 	m_nSysEdu = -1;

  00022	c7 46 0c ff ff
	ff ff		 mov	 DWORD PTR [esi+12], -1

; 11   : }

  00029	8b c6		 mov	 eax, esi
  0002b	5e		 pop	 esi
  0002c	8b e5		 mov	 esp, ebp
  0002e	5d		 pop	 ebp
  0002f	c3		 ret	 0
??0CCompanyManager@@QAE@XZ ENDP				; CCompanyManager::CCompanyManager
_TEXT	ENDS
; Function compile flags: /Ogtp
; File D:\git\src\IBK\IBK_DRFN\ProjSrc\SrcDrfn\inc\IAUGwanMng.h
;	COMDAT ??__ERMSG_GWANSIMREGISTER@@YAXXZ
text$di	SEGMENT
??__ERMSG_GWANSIMREGISTER@@YAXXZ PROC			; `dynamic initializer for 'RMSG_GWANSIMREGISTER'', COMDAT

; 173  : const UINT RMSG_GWANSIMREGISTER		=   ::RegisterWindowMessage("RMSG_GWANSIMREGISTER");

  00000	68 00 00 00 00	 push	 OFFSET ??_C@_0BF@MNPNIDPI@RMSG_GWANSIMREGISTER@
  00005	ff 15 00 00 00
	00		 call	 DWORD PTR __imp__RegisterWindowMessageA@4
  0000b	a3 00 00 00 00	 mov	 DWORD PTR ?RMSG_GWANSIMREGISTER@@3IB, eax
  00010	c3		 ret	 0
??__ERMSG_GWANSIMREGISTER@@YAXXZ ENDP			; `dynamic initializer for 'RMSG_GWANSIMREGISTER''
text$di	ENDS
; Function compile flags: /Ogtp
; File D:\git\src\IBK\IBK_DRFN\ProjSrc\SrcDrfn\inc\Define_Gwansim.h
;	COMDAT ??__ERMSG_INTREQUEST@@YAXXZ
text$di	SEGMENT
??__ERMSG_INTREQUEST@@YAXXZ PROC			; `dynamic initializer for 'RMSG_INTREQUEST'', COMDAT

; 10   : const UINT RMSG_INTREQUEST = ::RegisterWindowMessage(_T("RMSG_INTREQUEST") );

  00000	68 00 00 00 00	 push	 OFFSET ??_C@_0BA@JHANHJCN@RMSG_INTREQUEST@
  00005	ff 15 00 00 00
	00		 call	 DWORD PTR __imp__RegisterWindowMessageA@4
  0000b	a3 00 00 00 00	 mov	 DWORD PTR ?RMSG_INTREQUEST@@3IB, eax
  00010	c3		 ret	 0
??__ERMSG_INTREQUEST@@YAXXZ ENDP			; `dynamic initializer for 'RMSG_INTREQUEST''
text$di	ENDS
; Function compile flags: /Ogtp
; File D:\git\src\IBK\IBK_DRFN\ProjSrc\SrcDrfn\inc\Define_Gwansim.h
;	COMDAT ??__ERMSG_CONCERNHWND@@YAXXZ
text$di	SEGMENT
??__ERMSG_CONCERNHWND@@YAXXZ PROC			; `dynamic initializer for 'RMSG_CONCERNHWND'', COMDAT

; 9    : const UINT RMSG_CONCERNHWND = ::RegisterWindowMessage(_T("RMSG_CONCERNHWND") );

  00000	68 00 00 00 00	 push	 OFFSET ??_C@_0BB@EPGJDGDK@RMSG_CONCERNHWND@
  00005	ff 15 00 00 00
	00		 call	 DWORD PTR __imp__RegisterWindowMessageA@4
  0000b	a3 00 00 00 00	 mov	 DWORD PTR ?RMSG_CONCERNHWND@@3IB, eax
  00010	c3		 ret	 0
??__ERMSG_CONCERNHWND@@YAXXZ ENDP			; `dynamic initializer for 'RMSG_CONCERNHWND''
text$di	ENDS
; Function compile flags: /Ogtp
; File D:\git\src\IBK\IBK_DRFN\ProjSrc\SrcDrfn\Inc\IBaseDefine.h
;	COMDAT ??__ERMSG_SETPCTRDATA@@YAXXZ
text$di	SEGMENT
??__ERMSG_SETPCTRDATA@@YAXXZ PROC			; `dynamic initializer for 'RMSG_SETPCTRDATA'', COMDAT

; 172  : const UINT RMSG_SETPCTRDATA = ::RegisterWindowMessage("RMSG_SETPCTRDATA");

  00000	68 00 00 00 00	 push	 OFFSET ??_C@_0BB@JPACFCL@RMSG_SETPCTRDATA@
  00005	ff 15 00 00 00
	00		 call	 DWORD PTR __imp__RegisterWindowMessageA@4
  0000b	a3 00 00 00 00	 mov	 DWORD PTR ?RMSG_SETPCTRDATA@@3IB, eax
  00010	c3		 ret	 0
??__ERMSG_SETPCTRDATA@@YAXXZ ENDP			; `dynamic initializer for 'RMSG_SETPCTRDATA''
text$di	ENDS
; Function compile flags: /Ogtp
; File D:\git\src\IBK\IBK_DRFN\ProjSrc\SrcDrfn\Inc\IBaseDefine.h
;	COMDAT ??__ERMSG_GETPCTRDATA@@YAXXZ
text$di	SEGMENT
??__ERMSG_GETPCTRDATA@@YAXXZ PROC			; `dynamic initializer for 'RMSG_GETPCTRDATA'', COMDAT

; 171  : const UINT RMSG_GETPCTRDATA = ::RegisterWindowMessage("RMSG_GETPCTRDATA");

  00000	68 00 00 00 00	 push	 OFFSET ??_C@_0BB@GOOPDKI@RMSG_GETPCTRDATA@
  00005	ff 15 00 00 00
	00		 call	 DWORD PTR __imp__RegisterWindowMessageA@4
  0000b	a3 00 00 00 00	 mov	 DWORD PTR ?RMSG_GETPCTRDATA@@3IB, eax
  00010	c3		 ret	 0
??__ERMSG_GETPCTRDATA@@YAXXZ ENDP			; `dynamic initializer for 'RMSG_GETPCTRDATA''
text$di	ENDS
; Function compile flags: /Ogtp
; File D:\git\src\IBK\IBK_DRFN\ProjSrc\SrcDrfn\Inc\IBaseDefine.h
;	COMDAT ??__ERMSG_INTERFACE@@YAXXZ
text$di	SEGMENT
??__ERMSG_INTERFACE@@YAXXZ PROC				; `dynamic initializer for 'RMSG_INTERFACE'', COMDAT

; 170  : const UINT RMSG_INTERFACE = ::RegisterWindowMessage("RMSG_INTERFACE");

  00000	68 00 00 00 00	 push	 OFFSET ??_C@_0P@BKKCOCLK@RMSG_INTERFACE@
  00005	ff 15 00 00 00
	00		 call	 DWORD PTR __imp__RegisterWindowMessageA@4
  0000b	a3 00 00 00 00	 mov	 DWORD PTR ?RMSG_INTERFACE@@3IB, eax
  00010	c3		 ret	 0
??__ERMSG_INTERFACE@@YAXXZ ENDP				; `dynamic initializer for 'RMSG_INTERFACE''
text$di	ENDS
; Function compile flags: /Ogtp
; File D:\git\src\IBK\IBK_DRFN\ProjSrc\SrcDrfn\DrCommon\PcTrMng\_CompanyManager.cpp
;	COMDAT ?__empty_global_delete@@YAXPAXI@Z
_TEXT	SEGMENT
___formal$ = 8						; size = 4
___formal$ = 12						; size = 4
?__empty_global_delete@@YAXPAXI@Z PROC			; __empty_global_delete, COMDAT

  00000	c2 00 00	 ret	 0
?__empty_global_delete@@YAXPAXI@Z ENDP			; __empty_global_delete
_TEXT	ENDS
; Function compile flags: /Ogtp
; File D:\git\src\IBK\IBK_DRFN\ProjSrc\SrcDrfn\DrCommon\PcTrMng\_CompanyManager.cpp
;	COMDAT ?__empty_global_delete@@YAXPAX@Z
_TEXT	SEGMENT
___formal$ = 8						; size = 4
?__empty_global_delete@@YAXPAX@Z PROC			; __empty_global_delete, COMDAT

  00000	c2 00 00	 ret	 0
?__empty_global_delete@@YAXPAX@Z ENDP			; __empty_global_delete
_TEXT	ENDS
END
