; Listing generated by Microsoft (R) Optimizing Compiler Version 19.29.30145.0 

	TITLE	D:\git\src\IBK\IBK_DRFN\#DRfn-CS\_Obj\PcTrMng\_DataUtilManager.obj
	.686P
	.XMM
	include listing.inc
	.model	flat

INCLUDELIB MSVCRT
INCLUDELIB OLDNAMES

PUBLIC	??_C@_0P@BKKCOCLK@RMSG_INTERFACE@		; `string'
PUBLIC	??_C@_0BB@GOOPDKI@RMSG_GETPCTRDATA@		; `string'
PUBLIC	??_C@_0BB@JPACFCL@RMSG_SETPCTRDATA@		; `string'
PUBLIC	??_C@_0BB@EPGJDGDK@RMSG_CONCERNHWND@		; `string'
PUBLIC	??_C@_0BA@JHANHJCN@RMSG_INTREQUEST@		; `string'
PUBLIC	??_C@_0BF@MNPNIDPI@RMSG_GWANSIMREGISTER@	; `string'
;	COMDAT ??_C@_0BF@MNPNIDPI@RMSG_GWANSIMREGISTER@
CONST	SEGMENT
??_C@_0BF@MNPNIDPI@RMSG_GWANSIMREGISTER@ DB 'RMSG_GWANSIMREGISTER', 00H ; `string'
CONST	ENDS
;	COMDAT ??_C@_0BA@JHANHJCN@RMSG_INTREQUEST@
CONST	SEGMENT
??_C@_0BA@JHANHJCN@RMSG_INTREQUEST@ DB 'RMSG_INTREQUEST', 00H ; `string'
CONST	ENDS
;	COMDAT ??_C@_0BB@EPGJDGDK@RMSG_CONCERNHWND@
CONST	SEGMENT
??_C@_0BB@EPGJDGDK@RMSG_CONCERNHWND@ DB 'RMSG_CONCERNHWND', 00H ; `string'
CONST	ENDS
;	COMDAT ??_C@_0BB@JPACFCL@RMSG_SETPCTRDATA@
CONST	SEGMENT
??_C@_0BB@JPACFCL@RMSG_SETPCTRDATA@ DB 'RMSG_SETPCTRDATA', 00H ; `string'
CONST	ENDS
;	COMDAT ??_C@_0BB@GOOPDKI@RMSG_GETPCTRDATA@
CONST	SEGMENT
??_C@_0BB@GOOPDKI@RMSG_GETPCTRDATA@ DB 'RMSG_GETPCTRDATA', 00H ; `string'
CONST	ENDS
;	COMDAT ??_C@_0P@BKKCOCLK@RMSG_INTERFACE@
CONST	SEGMENT
??_C@_0P@BKKCOCLK@RMSG_INTERFACE@ DB 'RMSG_INTERFACE', 00H ; `string'
CONST	ENDS
PUBLIC	?__empty_global_delete@@YAXPAX@Z		; __empty_global_delete
PUBLIC	?__empty_global_delete@@YAXPAXI@Z		; __empty_global_delete
PUBLIC	___local_stdio_printf_options
PUBLIC	___local_stdio_scanf_options
PUBLIC	_sprintf
PUBLIC	_sscanf
PUBLIC	??HATL@@YA?AV?$CStringT@DV?$StrTraitMFC_DLL@DV?$ChTraitsCRT@D@ATL@@@@@0@ABV10@0@Z ; ATL::operator+
PUBLIC	?GetFutureString@CDataUtilManager@@UAG?AV?$CStringT@DV?$StrTraitMFC_DLL@DV?$ChTraitsCRT@D@ATL@@@@@ATL@@V23@H@Z ; CDataUtilManager::GetFutureString
PUBLIC	?AddDashToAccount@CDataUtilManager@@UAGXPBDAAV?$CStringT@DV?$StrTraitMFC_DLL@DV?$ChTraitsCRT@D@ATL@@@@@ATL@@@Z ; CDataUtilManager::AddDashToAccount
PUBLIC	?GetSignSimbol@CDataUtilManager@@UAG?AV?$CStringT@DV?$StrTraitMFC_DLL@DV?$ChTraitsCRT@D@ATL@@@@@ATL@@H@Z ; CDataUtilManager::GetSignSimbol
PUBLIC	?GetRegKey@CDataUtilManager@@UAGHPBD0AAV?$CStringT@DV?$StrTraitMFC_DLL@DV?$ChTraitsCRT@D@ATL@@@@@ATL@@@Z ; CDataUtilManager::GetRegKey
PUBLIC	?AdjustMask@CDataUtilManager@@UAG?AV?$CStringT@DV?$StrTraitMFC_DLL@DV?$ChTraitsCRT@D@ATL@@@@@ATL@@V23@H@Z ; CDataUtilManager::AdjustMask
PUBLIC	?AdjustMask@CDataUtilManager@@UAG?AV?$CStringT@DV?$StrTraitMFC_DLL@DV?$ChTraitsCRT@D@ATL@@@@@ATL@@V23@0@Z ; CDataUtilManager::AdjustMask
PUBLIC	?TrimRight@CDataUtilManager@@UAGXPAD@Z		; CDataUtilManager::TrimRight
PUBLIC	?RemoveCharAll@CDataUtilManager@@UAGXAAV?$CStringT@DV?$StrTraitMFC_DLL@DV?$ChTraitsCRT@D@ATL@@@@@ATL@@D@Z ; CDataUtilManager::RemoveCharAll
PUBLIC	?ValidNumber@CDataUtilManager@@UAGHPBD@Z	; CDataUtilManager::ValidNumber
PUBLIC	?IsSign@CDataUtilManager@@UAGHPBD@Z		; CDataUtilManager::IsSign
PUBLIC	?GetWord@CDataUtilManager@@UAGXPAD0D@Z		; CDataUtilManager::GetWord
PUBLIC	?GetString@CDataUtilManager@@UAGHAAV?$CStringT@DV?$StrTraitMFC_DLL@DV?$ChTraitsCRT@D@ATL@@@@@ATL@@0D@Z ; CDataUtilManager::GetString
PUBLIC	?IsNumber@CDataUtilManager@@UAGHI@Z		; CDataUtilManager::IsNumber
PUBLIC	?IsOnlyNumber@CDataUtilManager@@UAGHPBD@Z	; CDataUtilManager::IsOnlyNumber
PUBLIC	?Remove@CDataUtilManager@@UAGHAAV?$CStringT@DV?$StrTraitMFC_DLL@DV?$ChTraitsCRT@D@ATL@@@@@ATL@@DH@Z ; CDataUtilManager::Remove
PUBLIC	?RemoveAll@CDataUtilManager@@UAGHAAV?$CStringT@DV?$StrTraitMFC_DLL@DV?$ChTraitsCRT@D@ATL@@@@@ATL@@D@Z ; CDataUtilManager::RemoveAll
PUBLIC	?RemoveFront@CDataUtilManager@@UAGPADPBDD@Z	; CDataUtilManager::RemoveFront
PUBLIC	?GetComma@CDataUtilManager@@UAG?AV?$CStringT@DV?$StrTraitMFC_DLL@DV?$ChTraitsCRT@D@ATL@@@@@ATL@@PBD@Z ; CDataUtilManager::GetComma
PUBLIC	?GetOnlyNumber@CDataUtilManager@@UAG?AV?$CStringT@DV?$StrTraitMFC_DLL@DV?$ChTraitsCRT@D@ATL@@@@@ATL@@PBD@Z ; CDataUtilManager::GetOnlyNumber
PUBLIC	?GetNumber@CDataUtilManager@@UAG?AV?$CStringT@DV?$StrTraitMFC_DLL@DV?$ChTraitsCRT@D@ATL@@@@@ATL@@PBD@Z ; CDataUtilManager::GetNumber
PUBLIC	?GetMakeText@CDataUtilManager@@UAG?AV?$CStringT@DV?$StrTraitMFC_DLL@DV?$ChTraitsCRT@D@ATL@@@@@ATL@@DH@Z ; CDataUtilManager::GetMakeText
PUBLIC	?SetLengthString@CDataUtilManager@@UAG?AV?$CStringT@DV?$StrTraitMFC_DLL@DV?$ChTraitsCRT@D@ATL@@@@@ATL@@PBDH@Z ; CDataUtilManager::SetLengthString
PUBLIC	?RemoveChar@CDataUtilManager@@UAG?AV?$CStringT@DV?$StrTraitMFC_DLL@DV?$ChTraitsCRT@D@ATL@@@@@ATL@@PBDD@Z ; CDataUtilManager::RemoveChar
PUBLIC	?Str2Int@CDataUtilManager@@UAGHAAV?$CStringT@DV?$StrTraitMFC_DLL@DV?$ChTraitsCRT@D@ATL@@@@@ATL@@@Z ; CDataUtilManager::Str2Int
PUBLIC	?Str2Long@CDataUtilManager@@UAGJAAV?$CStringT@DV?$StrTraitMFC_DLL@DV?$ChTraitsCRT@D@ATL@@@@@ATL@@@Z ; CDataUtilManager::Str2Long
PUBLIC	?Str2Rect@CDataUtilManager@@UAG?AVCRect@@AAV?$CStringT@DV?$StrTraitMFC_DLL@DV?$ChTraitsCRT@D@ATL@@@@@ATL@@@Z ; CDataUtilManager::Str2Rect
PUBLIC	?Str2RGBColor@CDataUtilManager@@UAGKAAV?$CStringT@DV?$StrTraitMFC_DLL@DV?$ChTraitsCRT@D@ATL@@@@@ATL@@@Z ; CDataUtilManager::Str2RGBColor
PUBLIC	?Str2RGBColor@CDataUtilManager@@UAGKPAD@Z	; CDataUtilManager::Str2RGBColor
PUBLIC	?Color2String@CDataUtilManager@@UAG?AV?$CStringT@DV?$StrTraitMFC_DLL@DV?$ChTraitsCRT@D@ATL@@@@@ATL@@K@Z ; CDataUtilManager::Color2String
PUBLIC	?Str2Boolean@CDataUtilManager@@UAGHAAV?$CStringT@DV?$StrTraitMFC_DLL@DV?$ChTraitsCRT@D@ATL@@@@@ATL@@@Z ; CDataUtilManager::Str2Boolean
PUBLIC	?Str2Size@CDataUtilManager@@UAG?AVCSize@@AAV?$CStringT@DV?$StrTraitMFC_DLL@DV?$ChTraitsCRT@D@ATL@@@@@ATL@@@Z ; CDataUtilManager::Str2Size
PUBLIC	?String2Olechar@CDataUtilManager@@UAGXPBDAA_WH@Z ; CDataUtilManager::String2Olechar
PUBLIC	?Str2LogFont@CDataUtilManager@@UAG?AUtagLOGFONTA@@AAV?$CStringT@DV?$StrTraitMFC_DLL@DV?$ChTraitsCRT@D@ATL@@@@@ATL@@@Z ; CDataUtilManager::Str2LogFont
PUBLIC	?ConvertIntToPoint@CDataUtilManager@@UAG?AV?$CStringT@DV?$StrTraitMFC_DLL@DV?$ChTraitsCRT@D@ATL@@@@@ATL@@V23@HH@Z ; CDataUtilManager::ConvertIntToPoint
PUBLIC	?ConvertPointToInt@CDataUtilManager@@UAG?AV?$CStringT@DV?$StrTraitMFC_DLL@DV?$ChTraitsCRT@D@ATL@@@@@ATL@@V23@H@Z ; CDataUtilManager::ConvertPointToInt
PUBLIC	?InsertComma@CDataUtilManager@@UAGXAAV?$CStringT@DV?$StrTraitMFC_DLL@DV?$ChTraitsCRT@D@ATL@@@@@ATL@@@Z ; CDataUtilManager::InsertComma
PUBLIC	?chars_atoi@CDataUtilManager@@UAGHPADI@Z	; CDataUtilManager::chars_atoi
PUBLIC	?chars_atof@CDataUtilManager@@UAGNPADI@Z	; CDataUtilManager::chars_atof
PUBLIC	?DoubleToStrComma@CDataUtilManager@@UAG?AV?$CStringT@DV?$StrTraitMFC_DLL@DV?$ChTraitsCRT@D@ATL@@@@@ATL@@NHH@Z ; CDataUtilManager::DoubleToStrComma
PUBLIC	?IntToStrComma@CDataUtilManager@@UAG?AV?$CStringT@DV?$StrTraitMFC_DLL@DV?$ChTraitsCRT@D@ATL@@@@@ATL@@HH@Z ; CDataUtilManager::IntToStrComma
PUBLIC	?Str2CommaStr@CDataUtilManager@@UAGHPAD0I@Z	; CDataUtilManager::Str2CommaStr
PUBLIC	?StrToStrComma@CDataUtilManager@@UAGXPBDAAV?$CStringT@DV?$StrTraitMFC_DLL@DV?$ChTraitsCRT@D@ATL@@@@@ATL@@@Z ; CDataUtilManager::StrToStrComma
PUBLIC	?GetStringData@CDataUtilManager@@UAG?AV?$CStringT@DV?$StrTraitMFC_DLL@DV?$ChTraitsCRT@D@ATL@@@@@ATL@@AAV23@ABV23@_N@Z ; CDataUtilManager::GetStringData
PUBLIC	?GetFillString@CDataUtilManager@@UAGHAAV?$CStringT@DV?$StrTraitMFC_DLL@DV?$ChTraitsCRT@D@ATL@@@@@ATL@@HHH@Z ; CDataUtilManager::GetFillString
PUBLIC	?DoParsing@CDataUtilManager@@UAGHDPADAAHH0@Z	; CDataUtilManager::DoParsing
PUBLIC	?_OptionsStorage@?1??__local_stdio_printf_options@@9@4_KA ; `__local_stdio_printf_options'::`2'::_OptionsStorage
PUBLIC	?_OptionsStorage@?1??__local_stdio_scanf_options@@9@4_KA ; `__local_stdio_scanf_options'::`2'::_OptionsStorage
PUBLIC	??_C@_0N@DOHINHCI@Advapi32?4dll@		; `string'
PUBLIC	??_C@_0BG@FGMNHMFJ@RegOpenKeyTransactedA@	; `string'
PUBLIC	??_C@_02DPKJAMEF@?$CFd@				; `string'
PUBLIC	??_C@_00CNPNBAHC@@				; `string'
PUBLIC	??_C@_01GBGANLPD@0@				; `string'
PUBLIC	??_C@_01HIHLOKLC@1@				; `string'
PUBLIC	??_C@_01LFCBOECM@?4@				; `string'
PUBLIC	??_C@_06LOHACGPJ@?$CF?9?$CK?4?$CKs@		; `string'
PUBLIC	??_C@_02EOKDGIFO@?$KB?h@			; `string'
PUBLIC	??_C@_02KNFHLBJF@?$KB?c@			; `string'
PUBLIC	??_C@_02FHLIFJBP@?$KB?i@			; `string'
PUBLIC	??_C@_02PLANBGBD@?$KB?e@			; `string'
PUBLIC	??_C@_01JOAMLHOP@?9@				; `string'
PUBLIC	??_C@_05FDCEOMOF@?$CF6?46s@			; `string'
PUBLIC	??_C@_02PLJDPFIO@00@				; `string'
PUBLIC	??_C@_08DFILJDFD@?$CF?903?403s@			; `string'
PUBLIC	??_C@_06MAHHELPF@?$CF?93?43s@			; `string'
PUBLIC	??_C@_01CLKCMJKC@?5@				; `string'
PUBLIC	??_C@_0M@MLCONGPP@?$CFd?0?$CFd?0?$CFd?0?$CFd@	; `string'
PUBLIC	??_C@_08GDAMKODC@?$CFd?0?$CFd?0?$CFd@		; `string'
PUBLIC	??_C@_04HCDDPBNL@TRUE@				; `string'
PUBLIC	??_C@_05KABNCBHK@?$CFd?0?$CFd@			; `string'
PUBLIC	??_C@_0BG@NLOOPDBJ@?$CF?$FL?$FO?0?$FN?0?$CFlf?0?$CFd?0?$CFd?0?$CFd?0?$CFd@ ; `string'
PUBLIC	??_C@_02CPNCMKFB@0?4@				; `string'
PUBLIC	??_C@_01IHBHIGKO@?0@				; `string'
PUBLIC	??_C@_04HGGMHPIM@?$CF?4?$CKf@			; `string'
PUBLIC	??_C@_02DKCKIIND@?$CFs@				; `string'
PUBLIC	??_C@_05OGILEIOE@?$CF?$CK?4?$CKd@		; `string'
PUBLIC	__real@0000000000000000
PUBLIC	__real@4024000000000000
EXTRN	??3@YAXPAXI@Z:PROC				; operator delete
EXTRN	??_U@YAPAXI@Z:PROC				; operator new[]
EXTRN	___report_rangecheckfailure:PROC
EXTRN	__imp__isspace:PROC
EXTRN	__imp__GetModuleHandleA@4:PROC
EXTRN	__imp__GetProcAddress@8:PROC
EXTRN	__imp__MulDiv@12:PROC
EXTRN	__imp__lstrcpyA@8:PROC
EXTRN	__imp__GetDeviceCaps@8:PROC
EXTRN	__imp__RegisterWindowMessageA@4:PROC
EXTRN	__imp__MultiByteToWideChar@24:PROC
EXTRN	__imp__RegCloseKey@4:PROC
EXTRN	__imp__RegOpenKeyExA@20:PROC
EXTRN	__imp__RegQueryValueExA@24:PROC
EXTRN	__imp____stdio_common_vsprintf:PROC
EXTRN	__imp____stdio_common_vsscanf:PROC
EXTRN	__imp__free:PROC
EXTRN	__imp__malloc:PROC
EXTRN	__imp__atof:PROC
EXTRN	__imp__atoi:PROC
EXTRN	__imp__atol:PROC
EXTRN	?AfxThrowMemoryException@@YGXXZ:PROC		; AfxThrowMemoryException
EXTRN	?AfxThrowOleException@@YGXJ@Z:PROC		; AfxThrowOleException
EXTRN	__imp_??A?$CSimpleStringT@D$00@ATL@@QBEDH@Z:PROC
EXTRN	__imp_?Empty@?$CSimpleStringT@D$00@ATL@@QAEXXZ:PROC
EXTRN	__imp_?GetAt@?$CSimpleStringT@D$00@ATL@@QBEDH@Z:PROC
EXTRN	__imp_?GetBuffer@?$CSimpleStringT@D$00@ATL@@QAEPADH@Z:PROC
EXTRN	__imp_?ReleaseBuffer@?$CSimpleStringT@D$00@ATL@@QAEXH@Z:PROC
EXTRN	__imp_?Concatenate@?$CSimpleStringT@D$00@ATL@@KAXAAV12@PBDH1H@Z:PROC
EXTRN	__imp_??0?$CStringT@DV?$StrTraitMFC_DLL@DV?$ChTraitsCRT@D@ATL@@@@@ATL@@QAE@XZ:PROC
EXTRN	__imp_??0?$CStringT@DV?$StrTraitMFC_DLL@DV?$ChTraitsCRT@D@ATL@@@@@ATL@@QAE@PAUIAtlStringMgr@1@@Z:PROC
EXTRN	__imp_??0?$CStringT@DV?$StrTraitMFC_DLL@DV?$ChTraitsCRT@D@ATL@@@@@ATL@@QAE@ABV01@@Z:PROC
EXTRN	__imp_??0?$CStringT@DV?$StrTraitMFC_DLL@DV?$ChTraitsCRT@D@ATL@@@@@ATL@@QAE@PBD@Z:PROC
EXTRN	__imp_??1?$CStringT@DV?$StrTraitMFC_DLL@DV?$ChTraitsCRT@D@ATL@@@@@ATL@@QAE@XZ:PROC
EXTRN	__imp_??4?$CStringT@DV?$StrTraitMFC_DLL@DV?$ChTraitsCRT@D@ATL@@@@@ATL@@QAEAAV01@ABV01@@Z:PROC
EXTRN	__imp_??4?$CStringT@DV?$StrTraitMFC_DLL@DV?$ChTraitsCRT@D@ATL@@@@@ATL@@QAEAAV01@PBD@Z:PROC
EXTRN	__imp_??4?$CStringT@DV?$StrTraitMFC_DLL@DV?$ChTraitsCRT@D@ATL@@@@@ATL@@QAEAAV01@D@Z:PROC
EXTRN	__imp_??Y?$CStringT@DV?$StrTraitMFC_DLL@DV?$ChTraitsCRT@D@ATL@@@@@ATL@@QAEAAV01@ABV?$CSimpleStringT@D$00@1@@Z:PROC
EXTRN	__imp_??Y?$CStringT@DV?$StrTraitMFC_DLL@DV?$ChTraitsCRT@D@ATL@@@@@ATL@@QAEAAV01@D@Z:PROC
EXTRN	__imp_?GetManager@?$CStringT@DV?$StrTraitMFC_DLL@DV?$ChTraitsCRT@D@ATL@@@@@ATL@@QBEPAUIAtlStringMgr@2@XZ:PROC
EXTRN	__imp_?Compare@?$CStringT@DV?$StrTraitMFC_DLL@DV?$ChTraitsCRT@D@ATL@@@@@ATL@@QBEHPBD@Z:PROC
EXTRN	__imp_?Insert@?$CStringT@DV?$StrTraitMFC_DLL@DV?$ChTraitsCRT@D@ATL@@@@@ATL@@QAEHHPBD@Z:PROC
EXTRN	__imp_?Replace@?$CStringT@DV?$StrTraitMFC_DLL@DV?$ChTraitsCRT@D@ATL@@@@@ATL@@QAEHDD@Z:PROC
EXTRN	__imp_?Remove@?$CStringT@DV?$StrTraitMFC_DLL@DV?$ChTraitsCRT@D@ATL@@@@@ATL@@QAEHD@Z:PROC
EXTRN	__imp_?Find@?$CStringT@DV?$StrTraitMFC_DLL@DV?$ChTraitsCRT@D@ATL@@@@@ATL@@QBEHDH@Z:PROC
EXTRN	__imp_?Find@?$CStringT@DV?$StrTraitMFC_DLL@DV?$ChTraitsCRT@D@ATL@@@@@ATL@@QBEHPBDH@Z:PROC
EXTRN	__imp_?MakeReverse@?$CStringT@DV?$StrTraitMFC_DLL@DV?$ChTraitsCRT@D@ATL@@@@@ATL@@QAEAAV12@XZ:PROC
EXTRN	__imp_?TrimRight@?$CStringT@DV?$StrTraitMFC_DLL@DV?$ChTraitsCRT@D@ATL@@@@@ATL@@QAEAAV12@XZ:PROC
EXTRN	__imp_?TrimLeft@?$CStringT@DV?$StrTraitMFC_DLL@DV?$ChTraitsCRT@D@ATL@@@@@ATL@@QAEAAV12@XZ:PROC
EXTRN	__imp_?Mid@?$CStringT@DV?$StrTraitMFC_DLL@DV?$ChTraitsCRT@D@ATL@@@@@ATL@@QBE?AV12@H@Z:PROC
EXTRN	__imp_?Mid@?$CStringT@DV?$StrTraitMFC_DLL@DV?$ChTraitsCRT@D@ATL@@@@@ATL@@QBE?AV12@HH@Z:PROC
EXTRN	__imp_?Right@?$CStringT@DV?$StrTraitMFC_DLL@DV?$ChTraitsCRT@D@ATL@@@@@ATL@@QBE?AV12@H@Z:PROC
EXTRN	__imp_?Left@?$CStringT@DV?$StrTraitMFC_DLL@DV?$ChTraitsCRT@D@ATL@@@@@ATL@@QBE?AV12@H@Z:PROC
EXTRN	__imp_?Format@?$CStringT@DV?$StrTraitMFC_DLL@DV?$ChTraitsCRT@D@ATL@@@@@ATL@@QAAXPBDZZ:PROC
EXTRN	??0CClientDC@@QAE@PAVCWnd@@@Z:PROC		; CClientDC::CClientDC
EXTRN	??1CClientDC@@UAE@XZ:PROC			; CClientDC::~CClientDC
EXTRN	@__security_check_cookie@4:PROC
EXTRN	___CxxFrameHandler3:PROC
EXTRN	_memcpy:PROC
EXTRN	_memset:PROC
EXTRN	___security_cookie:DWORD
EXTRN	__fltused:DWORD
;	COMDAT ?_OptionsStorage@?1??__local_stdio_printf_options@@9@4_KA
_BSS	SEGMENT
?_OptionsStorage@?1??__local_stdio_printf_options@@9@4_KA DQ 01H DUP (?) ; `__local_stdio_printf_options'::`2'::_OptionsStorage
_BSS	ENDS
;	COMDAT ?_OptionsStorage@?1??__local_stdio_scanf_options@@9@4_KA
_BSS	SEGMENT
?_OptionsStorage@?1??__local_stdio_scanf_options@@9@4_KA DQ 01H DUP (?) ; `__local_stdio_scanf_options'::`2'::_OptionsStorage
_BSS	ENDS
_BSS	SEGMENT
?RMSG_INTERFACE@@3IB DD 01H DUP (?)			; RMSG_INTERFACE
?RMSG_GETPCTRDATA@@3IB DD 01H DUP (?)			; RMSG_GETPCTRDATA
?RMSG_SETPCTRDATA@@3IB DD 01H DUP (?)			; RMSG_SETPCTRDATA
?RMSG_CONCERNHWND@@3IB DD 01H DUP (?)			; RMSG_CONCERNHWND
?RMSG_INTREQUEST@@3IB DD 01H DUP (?)			; RMSG_INTREQUEST
?RMSG_GWANSIMREGISTER@@3IB DD 01H DUP (?)		; RMSG_GWANSIMREGISTER
_BSS	ENDS
CRT$XCU	SEGMENT
?RMSG_INTERFACE$initializer$@@3P6AXXZA DD FLAT:??__ERMSG_INTERFACE@@YAXXZ ; RMSG_INTERFACE$initializer$
CRT$XCU	ENDS
;	COMDAT __real@4024000000000000
CONST	SEGMENT
__real@4024000000000000 DQ 04024000000000000r	; 10
CONST	ENDS
;	COMDAT __real@0000000000000000
CONST	SEGMENT
__real@0000000000000000 DQ 00000000000000000r	; 0
CONST	ENDS
;	COMDAT ??_C@_05OGILEIOE@?$CF?$CK?4?$CKd@
CONST	SEGMENT
??_C@_05OGILEIOE@?$CF?$CK?4?$CKd@ DB '%*.*d', 00H	; `string'
CONST	ENDS
;	COMDAT ??_C@_02DKCKIIND@?$CFs@
CONST	SEGMENT
??_C@_02DKCKIIND@?$CFs@ DB '%s', 00H			; `string'
CONST	ENDS
;	COMDAT ??_C@_04HGGMHPIM@?$CF?4?$CKf@
CONST	SEGMENT
??_C@_04HGGMHPIM@?$CF?4?$CKf@ DB '%.*f', 00H		; `string'
CONST	ENDS
;	COMDAT ??_C@_01IHBHIGKO@?0@
CONST	SEGMENT
??_C@_01IHBHIGKO@?0@ DB ',', 00H			; `string'
CONST	ENDS
;	COMDAT ??_C@_02CPNCMKFB@0?4@
CONST	SEGMENT
??_C@_02CPNCMKFB@0?4@ DB '0.', 00H			; `string'
CONST	ENDS
;	COMDAT ??_C@_0BG@NLOOPDBJ@?$CF?$FL?$FO?0?$FN?0?$CFlf?0?$CFd?0?$CFd?0?$CFd?0?$CFd@
CONST	SEGMENT
??_C@_0BG@NLOOPDBJ@?$CF?$FL?$FO?0?$FN?0?$CFlf?0?$CFd?0?$CFd?0?$CFd?0?$CFd@ DB '%'
	DB	'[^,],%lf,%d,%d,%d,%d', 00H			; `string'
CONST	ENDS
;	COMDAT ??_C@_05KABNCBHK@?$CFd?0?$CFd@
CONST	SEGMENT
??_C@_05KABNCBHK@?$CFd?0?$CFd@ DB '%d,%d', 00H		; `string'
CONST	ENDS
;	COMDAT ??_C@_04HCDDPBNL@TRUE@
CONST	SEGMENT
??_C@_04HCDDPBNL@TRUE@ DB 'TRUE', 00H			; `string'
CONST	ENDS
;	COMDAT ??_C@_08GDAMKODC@?$CFd?0?$CFd?0?$CFd@
CONST	SEGMENT
??_C@_08GDAMKODC@?$CFd?0?$CFd?0?$CFd@ DB '%d,%d,%d', 00H ; `string'
CONST	ENDS
;	COMDAT ??_C@_0M@MLCONGPP@?$CFd?0?$CFd?0?$CFd?0?$CFd@
CONST	SEGMENT
??_C@_0M@MLCONGPP@?$CFd?0?$CFd?0?$CFd?0?$CFd@ DB '%d,%d,%d,%d', 00H ; `string'
CONST	ENDS
;	COMDAT ??_C@_01CLKCMJKC@?5@
CONST	SEGMENT
??_C@_01CLKCMJKC@?5@ DB ' ', 00H			; `string'
CONST	ENDS
;	COMDAT ??_C@_06MAHHELPF@?$CF?93?43s@
CONST	SEGMENT
??_C@_06MAHHELPF@?$CF?93?43s@ DB '%-3.3s', 00H		; `string'
CONST	ENDS
;	COMDAT ??_C@_08DFILJDFD@?$CF?903?403s@
CONST	SEGMENT
??_C@_08DFILJDFD@?$CF?903?403s@ DB '%-03.03s', 00H	; `string'
CONST	ENDS
;	COMDAT ??_C@_02PLJDPFIO@00@
CONST	SEGMENT
??_C@_02PLJDPFIO@00@ DB '00', 00H			; `string'
CONST	ENDS
;	COMDAT ??_C@_05FDCEOMOF@?$CF6?46s@
CONST	SEGMENT
??_C@_05FDCEOMOF@?$CF6?46s@ DB '%6.6s', 00H		; `string'
CONST	ENDS
;	COMDAT ??_C@_01JOAMLHOP@?9@
CONST	SEGMENT
??_C@_01JOAMLHOP@?9@ DB '-', 00H			; `string'
CONST	ENDS
;	COMDAT ??_C@_02PLANBGBD@?$KB?e@
CONST	SEGMENT
??_C@_02PLANBGBD@?$KB?e@ DB 0a1H, 0e5H, 00H		; `string'
CONST	ENDS
;	COMDAT ??_C@_02FHLIFJBP@?$KB?i@
CONST	SEGMENT
??_C@_02FHLIFJBP@?$KB?i@ DB 0a1H, 0e9H, 00H		; `string'
CONST	ENDS
;	COMDAT ??_C@_02KNFHLBJF@?$KB?c@
CONST	SEGMENT
??_C@_02KNFHLBJF@?$KB?c@ DB 0a1H, 0e3H, 00H		; `string'
CONST	ENDS
;	COMDAT ??_C@_02EOKDGIFO@?$KB?h@
CONST	SEGMENT
??_C@_02EOKDGIFO@?$KB?h@ DB 0a1H, 0e8H, 00H		; `string'
CONST	ENDS
;	COMDAT ??_C@_06LOHACGPJ@?$CF?9?$CK?4?$CKs@
CONST	SEGMENT
??_C@_06LOHACGPJ@?$CF?9?$CK?4?$CKs@ DB '%-*.*s', 00H	; `string'
CONST	ENDS
;	COMDAT ??_C@_01LFCBOECM@?4@
CONST	SEGMENT
??_C@_01LFCBOECM@?4@ DB '.', 00H			; `string'
CONST	ENDS
;	COMDAT ??_C@_01HIHLOKLC@1@
CONST	SEGMENT
??_C@_01HIHLOKLC@1@ DB '1', 00H				; `string'
CONST	ENDS
;	COMDAT ??_C@_01GBGANLPD@0@
CONST	SEGMENT
??_C@_01GBGANLPD@0@ DB '0', 00H				; `string'
CONST	ENDS
;	COMDAT ??_C@_00CNPNBAHC@@
CONST	SEGMENT
??_C@_00CNPNBAHC@@ DB 00H				; `string'
CONST	ENDS
;	COMDAT ??_C@_02DPKJAMEF@?$CFd@
CONST	SEGMENT
??_C@_02DPKJAMEF@?$CFd@ DB '%d', 00H			; `string'
CONST	ENDS
;	COMDAT ??_C@_0BG@FGMNHMFJ@RegOpenKeyTransactedA@
CONST	SEGMENT
??_C@_0BG@FGMNHMFJ@RegOpenKeyTransactedA@ DB 'RegOpenKeyTransactedA', 00H ; `string'
CONST	ENDS
;	COMDAT ??_C@_0N@DOHINHCI@Advapi32?4dll@
CONST	SEGMENT
??_C@_0N@DOHINHCI@Advapi32?4dll@ DB 'Advapi32.dll', 00H	; `string'
CONST	ENDS
;	COMDAT xdata$x
xdata$x	SEGMENT
__unwindtable$??HATL@@YA?AV?$CStringT@DV?$StrTraitMFC_DLL@DV?$ChTraitsCRT@D@ATL@@@@@0@DABV10@@Z DD 0ffffffffH
	DD	FLAT:__unwindfunclet$??HATL@@YA?AV?$CStringT@DV?$StrTraitMFC_DLL@DV?$ChTraitsCRT@D@ATL@@@@@0@DABV10@@Z$0
__ehfuncinfo$??HATL@@YA?AV?$CStringT@DV?$StrTraitMFC_DLL@DV?$ChTraitsCRT@D@ATL@@@@@0@DABV10@@Z DD 019930522H
	DD	01H
	DD	FLAT:__unwindtable$??HATL@@YA?AV?$CStringT@DV?$StrTraitMFC_DLL@DV?$ChTraitsCRT@D@ATL@@@@@0@DABV10@@Z
	DD	2 DUP(00H)
	DD	2 DUP(00H)
	DD	00H
	DD	01H
xdata$x	ENDS
;	COMDAT xdata$x
xdata$x	SEGMENT
__unwindtable$??HATL@@YA?AV?$CStringT@DV?$StrTraitMFC_DLL@DV?$ChTraitsCRT@D@ATL@@@@@0@PBDABV10@@Z DD 0ffffffffH
	DD	FLAT:__unwindfunclet$??HATL@@YA?AV?$CStringT@DV?$StrTraitMFC_DLL@DV?$ChTraitsCRT@D@ATL@@@@@0@PBDABV10@@Z$0
__ehfuncinfo$??HATL@@YA?AV?$CStringT@DV?$StrTraitMFC_DLL@DV?$ChTraitsCRT@D@ATL@@@@@0@PBDABV10@@Z DD 019930522H
	DD	01H
	DD	FLAT:__unwindtable$??HATL@@YA?AV?$CStringT@DV?$StrTraitMFC_DLL@DV?$ChTraitsCRT@D@ATL@@@@@0@PBDABV10@@Z
	DD	2 DUP(00H)
	DD	2 DUP(00H)
	DD	00H
	DD	01H
xdata$x	ENDS
;	COMDAT xdata$x
xdata$x	SEGMENT
__unwindtable$??HATL@@YA?AV?$CStringT@DV?$StrTraitMFC_DLL@DV?$ChTraitsCRT@D@ATL@@@@@0@ABV10@PBD@Z DD 0ffffffffH
	DD	FLAT:__unwindfunclet$??HATL@@YA?AV?$CStringT@DV?$StrTraitMFC_DLL@DV?$ChTraitsCRT@D@ATL@@@@@0@ABV10@PBD@Z$0
__ehfuncinfo$??HATL@@YA?AV?$CStringT@DV?$StrTraitMFC_DLL@DV?$ChTraitsCRT@D@ATL@@@@@0@ABV10@PBD@Z DD 019930522H
	DD	01H
	DD	FLAT:__unwindtable$??HATL@@YA?AV?$CStringT@DV?$StrTraitMFC_DLL@DV?$ChTraitsCRT@D@ATL@@@@@0@ABV10@PBD@Z
	DD	2 DUP(00H)
	DD	2 DUP(00H)
	DD	00H
	DD	01H
xdata$x	ENDS
;	COMDAT xdata$x
xdata$x	SEGMENT
__unwindtable$??HATL@@YA?AV?$CStringT@DV?$StrTraitMFC_DLL@DV?$ChTraitsCRT@D@ATL@@@@@0@ABV10@0@Z DD 0ffffffffH
	DD	FLAT:__unwindfunclet$??HATL@@YA?AV?$CStringT@DV?$StrTraitMFC_DLL@DV?$ChTraitsCRT@D@ATL@@@@@0@ABV10@0@Z$0
__ehfuncinfo$??HATL@@YA?AV?$CStringT@DV?$StrTraitMFC_DLL@DV?$ChTraitsCRT@D@ATL@@@@@0@ABV10@0@Z DD 019930522H
	DD	01H
	DD	FLAT:__unwindtable$??HATL@@YA?AV?$CStringT@DV?$StrTraitMFC_DLL@DV?$ChTraitsCRT@D@ATL@@@@@0@ABV10@0@Z
	DD	2 DUP(00H)
	DD	2 DUP(00H)
	DD	00H
	DD	01H
xdata$x	ENDS
CRT$XCU	SEGMENT
?RMSG_GETPCTRDATA$initializer$@@3P6AXXZA DD FLAT:??__ERMSG_GETPCTRDATA@@YAXXZ ; RMSG_GETPCTRDATA$initializer$
CRT$XCU	ENDS
CRT$XCU	SEGMENT
?RMSG_SETPCTRDATA$initializer$@@3P6AXXZA DD FLAT:??__ERMSG_SETPCTRDATA@@YAXXZ ; RMSG_SETPCTRDATA$initializer$
CRT$XCU	ENDS
CRT$XCU	SEGMENT
?RMSG_CONCERNHWND$initializer$@@3P6AXXZA DD FLAT:??__ERMSG_CONCERNHWND@@YAXXZ ; RMSG_CONCERNHWND$initializer$
CRT$XCU	ENDS
CRT$XCU	SEGMENT
?RMSG_INTREQUEST$initializer$@@3P6AXXZA DD FLAT:??__ERMSG_INTREQUEST@@YAXXZ ; RMSG_INTREQUEST$initializer$
CRT$XCU	ENDS
CRT$XCU	SEGMENT
?RMSG_GWANSIMREGISTER$initializer$@@3P6AXXZA DD FLAT:??__ERMSG_GWANSIMREGISTER@@YAXXZ ; RMSG_GWANSIMREGISTER$initializer$
CRT$XCU	ENDS
; Function compile flags: /Ogtp
; File D:\git\src\IBK\IBK_DRFN\ProjSrc\SrcDrfn\DrCommon\PcTrMng\_DataUtilManager.cpp
;	COMDAT ?DoParsing@CDataUtilManager@@UAGHDPADAAHH0@Z
_TEXT	SEGMENT
_this$ = 8						; size = 4
_cParser$ = 12						; size = 1
_pData$ = 16						; size = 4
_nPos$ = 20						; size = 4
_nEndPos$ = 24						; size = 4
_aString$ = 28						; size = 4
?DoParsing@CDataUtilManager@@UAGHDPADAAHH0@Z PROC	; CDataUtilManager::DoParsing, COMDAT

; 1048 : {

  00000	55		 push	 ebp
  00001	8b ec		 mov	 ebp, esp
  00003	53		 push	 ebx
  00004	56		 push	 esi

; 1049 : 	int nDataIdx=0;
; 1050 : 	while (pData[nPos] != 0x00)

  00005	8b 75 10	 mov	 esi, DWORD PTR _pData$[ebp]
  00008	33 d2		 xor	 edx, edx
  0000a	57		 push	 edi
  0000b	8b 7d 14	 mov	 edi, DWORD PTR _nPos$[ebp]
  0000e	8b 07		 mov	 eax, DWORD PTR [edi]
  00010	38 14 30	 cmp	 BYTE PTR [eax+esi], dl
  00013	74 28		 je	 SHORT $LN3@DoParsing
  00015	8b 5d 18	 mov	 ebx, DWORD PTR _nEndPos$[ebp]
  00018	8a 6d 0c	 mov	 ch, BYTE PTR _cParser$[ebp]
  0001b	0f 1f 44 00 00	 npad	 5
$LL2@DoParsing:

; 1051 : 	{
; 1052 : 		if (pData[nPos] == cParser || nPos>=nEndPos)

  00020	8a 0c 30	 mov	 cl, BYTE PTR [eax+esi]
  00023	3a cd		 cmp	 cl, ch
  00025	74 20		 je	 SHORT $LN9@DoParsing
  00027	3b c3		 cmp	 eax, ebx
  00029	7d 1c		 jge	 SHORT $LN9@DoParsing

; 1056 : 			return nDataIdx;
; 1057 : 		}
; 1058 : 		else
; 1059 : 			aString[nDataIdx++] = pData[nPos++];

  0002b	8b 45 1c	 mov	 eax, DWORD PTR _aString$[ebp]
  0002e	88 0c 02	 mov	 BYTE PTR [edx+eax], cl
  00031	42		 inc	 edx
  00032	8b 07		 mov	 eax, DWORD PTR [edi]
  00034	40		 inc	 eax
  00035	89 07		 mov	 DWORD PTR [edi], eax
  00037	80 3c 30 00	 cmp	 BYTE PTR [eax+esi], 0
  0003b	75 e3		 jne	 SHORT $LL2@DoParsing
$LN3@DoParsing:
  0003d	5f		 pop	 edi

; 1060 : 	}
; 1061 : 	return -1;
; 1062 : }

  0003e	5e		 pop	 esi
  0003f	83 c8 ff	 or	 eax, -1
  00042	5b		 pop	 ebx
  00043	5d		 pop	 ebp
  00044	c2 18 00	 ret	 24			; 00000018H
$LN9@DoParsing:

; 1053 : 		{
; 1054 : 			nPos++;

  00047	40		 inc	 eax
  00048	89 07		 mov	 DWORD PTR [edi], eax

; 1055 : 			aString[nDataIdx] = 0;

  0004a	8b 45 1c	 mov	 eax, DWORD PTR _aString$[ebp]
  0004d	5f		 pop	 edi

; 1060 : 	}
; 1061 : 	return -1;
; 1062 : }

  0004e	5e		 pop	 esi
  0004f	5b		 pop	 ebx
  00050	c6 04 02 00	 mov	 BYTE PTR [edx+eax], 0
  00054	8b c2		 mov	 eax, edx
  00056	5d		 pop	 ebp
  00057	c2 18 00	 ret	 24			; 00000018H
?DoParsing@CDataUtilManager@@UAGHDPADAAHH0@Z ENDP	; CDataUtilManager::DoParsing
_TEXT	ENDS
; Function compile flags: /Ogtp
; File D:\git\src\IBK\IBK_DRFN\ProjSrc\SrcDrfn\DrCommon\PcTrMng\_DataUtilManager.cpp
;	COMDAT ?GetFillString@CDataUtilManager@@UAGHAAV?$CStringT@DV?$StrTraitMFC_DLL@DV?$ChTraitsCRT@D@ATL@@@@@ATL@@HHH@Z
_TEXT	SEGMENT
_nLen$1$ = -8						; size = 4
_szGetStr$1$ = -4					; size = 4
_this$ = 8						; size = 4
__szGetStr$ = 12					; size = 4
_szOneWord$1$ = 16					; size = 4
_nStart$ = 16						; size = 4
_nEnd$ = 20						; size = 4
_nOneWordSize$ = 24					; size = 4
?GetFillString@CDataUtilManager@@UAGHAAV?$CStringT@DV?$StrTraitMFC_DLL@DV?$ChTraitsCRT@D@ATL@@@@@ATL@@HHH@Z PROC ; CDataUtilManager::GetFillString, COMDAT

; 1023 : {

  00000	55		 push	 ebp
  00001	8b ec		 mov	 ebp, esp
  00003	83 ec 08	 sub	 esp, 8
  00006	53		 push	 ebx

; 1024 : 	int nLen = nEnd-nStart+1;

  00007	8b 5d 14	 mov	 ebx, DWORD PTR _nEnd$[ebp]
  0000a	56		 push	 esi
  0000b	8b 75 10	 mov	 esi, DWORD PTR _nStart$[ebp]
  0000e	2b de		 sub	 ebx, esi
  00010	43		 inc	 ebx

; 1025 : 	if(nLen<=0) return 0;

  00011	85 db		 test	 ebx, ebx
  00013	7f 0a		 jg	 SHORT $LN5@GetFillStr
  00015	5e		 pop	 esi
  00016	33 c0		 xor	 eax, eax

; 1045 : }

  00018	5b		 pop	 ebx
  00019	8b e5		 mov	 esp, ebp
  0001b	5d		 pop	 ebp
  0001c	c2 14 00	 ret	 20			; 00000014H
$LN5@GetFillStr:

; 1026 : 
; 1027 : 	_szGetStr.Empty();

  0001f	8b 4d 0c	 mov	 ecx, DWORD PTR __szGetStr$[ebp]
  00022	57		 push	 edi
  00023	ff 15 00 00 00
	00		 call	 DWORD PTR __imp_?Empty@?$CSimpleStringT@D$00@ATL@@QAEXXZ

; 1028 : 
; 1029 : 	char *szGetStr = (char*)malloc((nLen*nOneWordSize)+1);

  00029	8b 7d 18	 mov	 edi, DWORD PTR _nOneWordSize$[ebp]
  0002c	0f af df	 imul	 ebx, edi
  0002f	89 5d f8	 mov	 DWORD PTR _nLen$1$[ebp], ebx
  00032	8d 43 01	 lea	 eax, DWORD PTR [ebx+1]
  00035	8b 1d 00 00 00
	00		 mov	 ebx, DWORD PTR __imp__malloc
  0003b	50		 push	 eax
  0003c	ff d3		 call	 ebx

; 1030 : 	char *szOneWord = (char*)malloc(nOneWordSize+1);

  0003e	47		 inc	 edi
  0003f	89 45 fc	 mov	 DWORD PTR _szGetStr$1$[ebp], eax
  00042	57		 push	 edi
  00043	ff d3		 call	 ebx

; 1031 : 	memset(szOneWord, 0, nOneWordSize+1);

  00045	57		 push	 edi
  00046	6a 00		 push	 0
  00048	50		 push	 eax
  00049	89 45 10	 mov	 DWORD PTR _szOneWord$1$[ebp], eax
  0004c	e8 00 00 00 00	 call	 _memset
  00051	83 c4 14	 add	 esp, 20			; 00000014H

; 1032 : 
; 1033 : 	for(int i=nStart; i<=nEnd; i++)

  00054	3b 75 14	 cmp	 esi, DWORD PTR _nEnd$[ebp]
  00057	7f 30		 jg	 SHORT $LN3@GetFillStr

; 1026 : 
; 1027 : 	_szGetStr.Empty();

  00059	8b 5d 18	 mov	 ebx, DWORD PTR _nOneWordSize$[ebp]
  0005c	8b fe		 mov	 edi, esi
  0005e	0f af fb	 imul	 edi, ebx
  00061	03 7d fc	 add	 edi, DWORD PTR _szGetStr$1$[ebp]
$LL4@GetFillStr:

; 1034 : 	{
; 1035 : 		sprintf(szOneWord, "%*.*d", nOneWordSize, nOneWordSize, i);

  00064	56		 push	 esi
  00065	53		 push	 ebx
  00066	53		 push	 ebx
  00067	68 00 00 00 00	 push	 OFFSET ??_C@_05OGILEIOE@?$CF?$CK?4?$CKd@
  0006c	ff 75 10	 push	 DWORD PTR _szOneWord$1$[ebp]
  0006f	e8 00 00 00 00	 call	 _sprintf

; 1036 : 		memcpy(&szGetStr[nOneWordSize*i], szOneWord, nOneWordSize);

  00074	53		 push	 ebx
  00075	ff 75 10	 push	 DWORD PTR _szOneWord$1$[ebp]
  00078	57		 push	 edi
  00079	e8 00 00 00 00	 call	 _memcpy
  0007e	46		 inc	 esi
  0007f	83 c4 20	 add	 esp, 32			; 00000020H
  00082	03 fb		 add	 edi, ebx
  00084	3b 75 14	 cmp	 esi, DWORD PTR _nEnd$[ebp]
  00087	7e db		 jle	 SHORT $LL4@GetFillStr
$LN3@GetFillStr:

; 1037 : 	}
; 1038 : 
; 1039 : 	szGetStr[nLen*nOneWordSize] = 0;

  00089	8b 45 f8	 mov	 eax, DWORD PTR _nLen$1$[ebp]
  0008c	8b 5d fc	 mov	 ebx, DWORD PTR _szGetStr$1$[ebp]

; 1040 : 	_szGetStr = szGetStr;

  0008f	8b 7d 0c	 mov	 edi, DWORD PTR __szGetStr$[ebp]
  00092	8b cf		 mov	 ecx, edi
  00094	53		 push	 ebx
  00095	c6 04 18 00	 mov	 BYTE PTR [eax+ebx], 0
  00099	ff 15 00 00 00
	00		 call	 DWORD PTR __imp_??4?$CStringT@DV?$StrTraitMFC_DLL@DV?$ChTraitsCRT@D@ATL@@@@@ATL@@QAEAAV01@PBD@Z

; 1041 : 	free(szOneWord);

  0009f	ff 75 10	 push	 DWORD PTR _szOneWord$1$[ebp]
  000a2	8b 35 00 00 00
	00		 mov	 esi, DWORD PTR __imp__free
  000a8	ff d6		 call	 esi

; 1042 : 	free(szGetStr);

  000aa	53		 push	 ebx
  000ab	ff d6		 call	 esi

; 1043 : 
; 1044 : 	return _szGetStr.GetLength();

  000ad	8b 07		 mov	 eax, DWORD PTR [edi]
  000af	83 c4 08	 add	 esp, 8
  000b2	8b 40 f4	 mov	 eax, DWORD PTR [eax-12]
  000b5	5f		 pop	 edi
  000b6	5e		 pop	 esi

; 1045 : }

  000b7	5b		 pop	 ebx
  000b8	8b e5		 mov	 esp, ebp
  000ba	5d		 pop	 ebp
  000bb	c2 14 00	 ret	 20			; 00000014H
?GetFillString@CDataUtilManager@@UAGHAAV?$CStringT@DV?$StrTraitMFC_DLL@DV?$ChTraitsCRT@D@ATL@@@@@ATL@@HHH@Z ENDP ; CDataUtilManager::GetFillString
_TEXT	ENDS
; Function compile flags: /Ogtp
; File D:\git\src\IBK\IBK_DRFN\ProjSrc\SrcDrfn\DrCommon\PcTrMng\_DataUtilManager.cpp
; File C:\Program Files (x86)\Microsoft Visual Studio\2019\Community\VC\Tools\MSVC\14.29.30133\atlmfc\include\atlsimpstr.h
; File D:\git\src\IBK\IBK_DRFN\ProjSrc\SrcDrfn\DrCommon\PcTrMng\_DataUtilManager.cpp
; File C:\Program Files (x86)\Microsoft Visual Studio\2019\Community\VC\Tools\MSVC\14.29.30133\atlmfc\include\atlsimpstr.h
; File D:\git\src\IBK\IBK_DRFN\ProjSrc\SrcDrfn\DrCommon\PcTrMng\_DataUtilManager.cpp
; File C:\Program Files (x86)\Microsoft Visual Studio\2019\Community\VC\Tools\MSVC\14.29.30133\atlmfc\include\atlsimpstr.h
; File D:\git\src\IBK\IBK_DRFN\ProjSrc\SrcDrfn\DrCommon\PcTrMng\_DataUtilManager.cpp
; File C:\Program Files (x86)\Microsoft Visual Studio\2019\Community\VC\Tools\MSVC\14.29.30133\atlmfc\include\atlsimpstr.h
; File D:\git\src\IBK\IBK_DRFN\ProjSrc\SrcDrfn\DrCommon\PcTrMng\_DataUtilManager.cpp
; File C:\Program Files (x86)\Microsoft Visual Studio\2019\Community\VC\Tools\MSVC\14.29.30133\atlmfc\include\atlsimpstr.h
; File D:\git\src\IBK\IBK_DRFN\ProjSrc\SrcDrfn\DrCommon\PcTrMng\_DataUtilManager.cpp
; File C:\Program Files (x86)\Microsoft Visual Studio\2019\Community\VC\Tools\MSVC\14.29.30133\atlmfc\include\atlsimpstr.h
; File D:\git\src\IBK\IBK_DRFN\ProjSrc\SrcDrfn\DrCommon\PcTrMng\_DataUtilManager.cpp
; File C:\Program Files (x86)\Microsoft Visual Studio\2019\Community\VC\Tools\MSVC\14.29.30133\atlmfc\include\atlsimpstr.h
; File D:\git\src\IBK\IBK_DRFN\ProjSrc\SrcDrfn\DrCommon\PcTrMng\_DataUtilManager.cpp
;	COMDAT ?GetStringData@CDataUtilManager@@UAG?AV?$CStringT@DV?$StrTraitMFC_DLL@DV?$ChTraitsCRT@D@ATL@@@@@ATL@@AAV23@ABV23@_N@Z
_TEXT	SEGMENT
_length$1$ = -4						; size = 4
_this$ = 8						; size = 4
___$ReturnUdt$ = 12					; size = 4
_retData$ = 16						; size = 4
_data$ = 16						; size = 4
$T1 = 20						; size = 4
$T2 = 20						; size = 4
_trimData$ = 20						; size = 4
_bIsInside$ = 24					; size = 1
?GetStringData@CDataUtilManager@@UAG?AV?$CStringT@DV?$StrTraitMFC_DLL@DV?$ChTraitsCRT@D@ATL@@@@@ATL@@AAV23@ABV23@_N@Z PROC ; CDataUtilManager::GetStringData, COMDAT

; 1003 : {

  00000	55		 push	 ebp
  00001	8b ec		 mov	 ebp, esp
  00003	51		 push	 ecx
  00004	53		 push	 ebx
  00005	56		 push	 esi
; File C:\Program Files (x86)\Microsoft Visual Studio\2019\Community\VC\Tools\MSVC\14.29.30133\atlmfc\include\atlsimpstr.h

; 533  : 		return( GetLength() == 0 );

  00006	8b 75 10	 mov	 esi, DWORD PTR _data$[ebp]
; File D:\git\src\IBK\IBK_DRFN\ProjSrc\SrcDrfn\DrCommon\PcTrMng\_DataUtilManager.cpp

; 1003 : {

  00009	57		 push	 edi
; File C:\Program Files (x86)\Microsoft Visual Studio\2019\Community\VC\Tools\MSVC\14.29.30133\atlmfc\include\atlsimpstr.h

; 533  : 		return( GetLength() == 0 );

  0000a	8b 06		 mov	 eax, DWORD PTR [esi]
  0000c	83 78 f4 00	 cmp	 DWORD PTR [eax-12], 0
; File D:\git\src\IBK\IBK_DRFN\ProjSrc\SrcDrfn\DrCommon\PcTrMng\_DataUtilManager.cpp

; 1004 : 	if(data.IsEmpty())

  00010	0f 84 c4 00 00
	00		 je	 $LN23@GetStringD
; File C:\Program Files (x86)\Microsoft Visual Studio\2019\Community\VC\Tools\MSVC\14.29.30133\atlmfc\include\atlsimpstr.h

; 377  : 		return( m_pszData );

  00016	8b 5d 14	 mov	 ebx, DWORD PTR _trimData$[ebp]
; File D:\git\src\IBK\IBK_DRFN\ProjSrc\SrcDrfn\DrCommon\PcTrMng\_DataUtilManager.cpp

; 1007 : 	int count = data.Find(trimData);

  00019	8b ce		 mov	 ecx, esi
  0001b	6a 00		 push	 0
  0001d	ff 33		 push	 DWORD PTR [ebx]
  0001f	ff 15 00 00 00
	00		 call	 DWORD PTR __imp_?Find@?$CStringT@DV?$StrTraitMFC_DLL@DV?$ChTraitsCRT@D@ATL@@@@@ATL@@QBEHPBDH@Z
  00025	8b f8		 mov	 edi, eax

; 1008 : 	if(count < 0)

  00027	85 ff		 test	 edi, edi
  00029	0f 88 ab 00 00
	00		 js	 $LN23@GetStringD
; File C:\Program Files (x86)\Microsoft Visual Studio\2019\Community\VC\Tools\MSVC\14.29.30133\atlmfc\include\atlsimpstr.h

; 519  : 		return( GetData()->nDataLength );

  0002f	8b 0e		 mov	 ecx, DWORD PTR [esi]
  00031	8b 41 f4	 mov	 eax, DWORD PTR [ecx-12]
; File D:\git\src\IBK\IBK_DRFN\ProjSrc\SrcDrfn\DrCommon\PcTrMng\_DataUtilManager.cpp

; 1012 : 	CString retData;

  00034	8d 4d 10	 lea	 ecx, DWORD PTR _retData$[ebp]
; File C:\Program Files (x86)\Microsoft Visual Studio\2019\Community\VC\Tools\MSVC\14.29.30133\atlmfc\include\atlsimpstr.h

; 519  : 		return( GetData()->nDataLength );

  00037	89 45 fc	 mov	 DWORD PTR _length$1$[ebp], eax
; File D:\git\src\IBK\IBK_DRFN\ProjSrc\SrcDrfn\DrCommon\PcTrMng\_DataUtilManager.cpp

; 1012 : 	CString retData;

  0003a	ff 15 00 00 00
	00		 call	 DWORD PTR __imp_??0?$CStringT@DV?$StrTraitMFC_DLL@DV?$ChTraitsCRT@D@ATL@@@@@ATL@@QAE@XZ

; 1013 : 	if(count > 0)

  00040	85 ff		 test	 edi, edi
  00042	7e 20		 jle	 SHORT $LN4@GetStringD

; 1014 : 		retData = data.Left(count);

  00044	57		 push	 edi
  00045	8d 45 14	 lea	 eax, DWORD PTR $T2[ebp]
  00048	8b ce		 mov	 ecx, esi
  0004a	50		 push	 eax
  0004b	ff 15 00 00 00
	00		 call	 DWORD PTR __imp_?Left@?$CStringT@DV?$StrTraitMFC_DLL@DV?$ChTraitsCRT@D@ATL@@@@@ATL@@QBE?AV12@H@Z
  00051	50		 push	 eax
  00052	8d 4d 10	 lea	 ecx, DWORD PTR _retData$[ebp]
  00055	ff 15 00 00 00
	00		 call	 DWORD PTR __imp_??4?$CStringT@DV?$StrTraitMFC_DLL@DV?$ChTraitsCRT@D@ATL@@@@@ATL@@QAEAAV01@ABV01@@Z
  0005b	8d 4d 14	 lea	 ecx, DWORD PTR $T2[ebp]
  0005e	ff 15 00 00 00
	00		 call	 DWORD PTR __imp_??1?$CStringT@DV?$StrTraitMFC_DLL@DV?$ChTraitsCRT@D@ATL@@@@@ATL@@QAE@XZ
$LN4@GetStringD:
; File C:\Program Files (x86)\Microsoft Visual Studio\2019\Community\VC\Tools\MSVC\14.29.30133\atlmfc\include\atlsimpstr.h

; 519  : 		return( GetData()->nDataLength );

  00064	8b 03		 mov	 eax, DWORD PTR [ebx]
; File D:\git\src\IBK\IBK_DRFN\ProjSrc\SrcDrfn\DrCommon\PcTrMng\_DataUtilManager.cpp

; 1015 : 	data = data.Mid(count+trimData.GetLength(), length - count);

  00066	8b 4d fc	 mov	 ecx, DWORD PTR _length$1$[ebp]
  00069	2b cf		 sub	 ecx, edi
  0006b	51		 push	 ecx
; File C:\Program Files (x86)\Microsoft Visual Studio\2019\Community\VC\Tools\MSVC\14.29.30133\atlmfc\include\atlsimpstr.h

; 519  : 		return( GetData()->nDataLength );

  0006c	8b 40 f4	 mov	 eax, DWORD PTR [eax-12]
; File D:\git\src\IBK\IBK_DRFN\ProjSrc\SrcDrfn\DrCommon\PcTrMng\_DataUtilManager.cpp

; 1015 : 	data = data.Mid(count+trimData.GetLength(), length - count);

  0006f	8b ce		 mov	 ecx, esi
  00071	03 c7		 add	 eax, edi
  00073	50		 push	 eax
  00074	8d 45 14	 lea	 eax, DWORD PTR $T1[ebp]
  00077	50		 push	 eax
  00078	ff 15 00 00 00
	00		 call	 DWORD PTR __imp_?Mid@?$CStringT@DV?$StrTraitMFC_DLL@DV?$ChTraitsCRT@D@ATL@@@@@ATL@@QBE?AV12@HH@Z
  0007e	50		 push	 eax
  0007f	8b ce		 mov	 ecx, esi
  00081	ff 15 00 00 00
	00		 call	 DWORD PTR __imp_??4?$CStringT@DV?$StrTraitMFC_DLL@DV?$ChTraitsCRT@D@ATL@@@@@ATL@@QAEAAV01@ABV01@@Z
  00087	8d 4d 14	 lea	 ecx, DWORD PTR $T1[ebp]
  0008a	ff 15 00 00 00
	00		 call	 DWORD PTR __imp_??1?$CStringT@DV?$StrTraitMFC_DLL@DV?$ChTraitsCRT@D@ATL@@@@@ATL@@QAE@XZ

; 1016 : 
; 1017 : 	if(bIsInside)

  00090	80 7d 18 00	 cmp	 BYTE PTR _bIsInside$[ebp], 0
  00094	8d 45 10	 lea	 eax, DWORD PTR _retData$[ebp]
  00097	74 1f		 je	 SHORT $LN5@GetStringD

; 1018 : 		return retData;

  00099	8b 4d 0c	 mov	 ecx, DWORD PTR ___$ReturnUdt$[ebp]
  0009c	50		 push	 eax
  0009d	ff 15 00 00 00
	00		 call	 DWORD PTR __imp_??0?$CStringT@DV?$StrTraitMFC_DLL@DV?$ChTraitsCRT@D@ATL@@@@@ATL@@QAE@ABV01@@Z
  000a3	8d 4d 10	 lea	 ecx, DWORD PTR _retData$[ebp]
  000a6	ff 15 00 00 00
	00		 call	 DWORD PTR __imp_??1?$CStringT@DV?$StrTraitMFC_DLL@DV?$ChTraitsCRT@D@ATL@@@@@ATL@@QAE@XZ

; 1020 : }

  000ac	8b 45 0c	 mov	 eax, DWORD PTR ___$ReturnUdt$[ebp]
  000af	5f		 pop	 edi
  000b0	5e		 pop	 esi
  000b1	5b		 pop	 ebx
  000b2	8b e5		 mov	 esp, ebp
  000b4	5d		 pop	 ebp
  000b5	c2 14 00	 ret	 20			; 00000014H
$LN5@GetStringD:

; 1019 : 	return (retData + trimData);

  000b8	8b 75 0c	 mov	 esi, DWORD PTR ___$ReturnUdt$[ebp]
  000bb	53		 push	 ebx
  000bc	50		 push	 eax
  000bd	56		 push	 esi
  000be	e8 00 00 00 00	 call	 ??HATL@@YA?AV?$CStringT@DV?$StrTraitMFC_DLL@DV?$ChTraitsCRT@D@ATL@@@@@0@ABV10@0@Z ; ATL::operator+
  000c3	83 c4 0c	 add	 esp, 12			; 0000000cH
  000c6	8d 4d 10	 lea	 ecx, DWORD PTR _retData$[ebp]
  000c9	ff 15 00 00 00
	00		 call	 DWORD PTR __imp_??1?$CStringT@DV?$StrTraitMFC_DLL@DV?$ChTraitsCRT@D@ATL@@@@@ATL@@QAE@XZ
  000cf	5f		 pop	 edi
  000d0	8b c6		 mov	 eax, esi

; 1020 : }

  000d2	5e		 pop	 esi
  000d3	5b		 pop	 ebx
  000d4	8b e5		 mov	 esp, ebp
  000d6	5d		 pop	 ebp
  000d7	c2 14 00	 ret	 20			; 00000014H
$LN23@GetStringD:

; 1009 : 		return "";

  000da	8b 4d 0c	 mov	 ecx, DWORD PTR ___$ReturnUdt$[ebp]
  000dd	68 00 00 00 00	 push	 OFFSET ??_C@_00CNPNBAHC@@
  000e2	ff 15 00 00 00
	00		 call	 DWORD PTR __imp_??0?$CStringT@DV?$StrTraitMFC_DLL@DV?$ChTraitsCRT@D@ATL@@@@@ATL@@QAE@PBD@Z

; 1020 : }

  000e8	8b 45 0c	 mov	 eax, DWORD PTR ___$ReturnUdt$[ebp]
  000eb	5f		 pop	 edi
  000ec	5e		 pop	 esi
  000ed	5b		 pop	 ebx
  000ee	8b e5		 mov	 esp, ebp
  000f0	5d		 pop	 ebp
  000f1	c2 14 00	 ret	 20			; 00000014H
?GetStringData@CDataUtilManager@@UAG?AV?$CStringT@DV?$StrTraitMFC_DLL@DV?$ChTraitsCRT@D@ATL@@@@@ATL@@AAV23@ABV23@_N@Z ENDP ; CDataUtilManager::GetStringData
_TEXT	ENDS
; Function compile flags: /Ogtp
; File D:\git\src\IBK\IBK_DRFN\ProjSrc\SrcDrfn\DrCommon\PcTrMng\_DataUtilManager.cpp
; File C:\Program Files (x86)\Microsoft Visual Studio\2019\Community\VC\Tools\MSVC\14.29.30133\atlmfc\include\atlsimpstr.h
; File D:\git\src\IBK\IBK_DRFN\ProjSrc\SrcDrfn\DrCommon\PcTrMng\_DataUtilManager.cpp
; File C:\Program Files (x86)\Microsoft Visual Studio\2019\Community\VC\Tools\MSVC\14.29.30133\atlmfc\include\atlsimpstr.h
; File D:\git\src\IBK\IBK_DRFN\ProjSrc\SrcDrfn\DrCommon\PcTrMng\_DataUtilManager.cpp
; File C:\Program Files (x86)\Microsoft Visual Studio\2019\Community\VC\Tools\MSVC\14.29.30133\atlmfc\include\atlsimpstr.h
; File D:\git\src\IBK\IBK_DRFN\ProjSrc\SrcDrfn\DrCommon\PcTrMng\_DataUtilManager.cpp
;	COMDAT ?StrToStrComma@CDataUtilManager@@UAGXPBDAAV?$CStringT@DV?$StrTraitMFC_DLL@DV?$ChTraitsCRT@D@ATL@@@@@ATL@@@Z
_TEXT	SEGMENT
$T1 = -4						; size = 4
_this$ = 8						; size = 4
_ch$1$ = 11						; size = 1
_szTmp$ = 12						; size = 4
_lpstrSrc$ = 12						; size = 4
_strReturn$ = 16					; size = 4
?StrToStrComma@CDataUtilManager@@UAGXPBDAAV?$CStringT@DV?$StrTraitMFC_DLL@DV?$ChTraitsCRT@D@ATL@@@@@ATL@@@Z PROC ; CDataUtilManager::StrToStrComma, COMDAT

; 973  : {

  00000	55		 push	 ebp
  00001	8b ec		 mov	 ebp, esp
  00003	51		 push	 ecx

; 974  : 	CString szTmp = GetNumber(lpstrSrc);

  00004	8b 45 08	 mov	 eax, DWORD PTR _this$[ebp]
  00007	8d 55 0c	 lea	 edx, DWORD PTR _szTmp$[ebp]
  0000a	ff 75 0c	 push	 DWORD PTR _lpstrSrc$[ebp]
  0000d	52		 push	 edx
  0000e	8b 08		 mov	 ecx, DWORD PTR [eax]
  00010	50		 push	 eax
  00011	ff 51 4c	 call	 DWORD PTR [ecx+76]
; File C:\Program Files (x86)\Microsoft Visual Studio\2019\Community\VC\Tools\MSVC\14.29.30133\atlmfc\include\atlsimpstr.h

; 533  : 		return( GetLength() == 0 );

  00014	8b 45 0c	 mov	 eax, DWORD PTR _szTmp$[ebp]
  00017	83 78 f4 00	 cmp	 DWORD PTR [eax-12], 0
; File D:\git\src\IBK\IBK_DRFN\ProjSrc\SrcDrfn\DrCommon\PcTrMng\_DataUtilManager.cpp

; 976  : 	if(szTmp.IsEmpty())	

  0001b	75 1d		 jne	 SHORT $LN5@StrToStrCo

; 977  : 	{
; 978  : 		strReturn = "0";

  0001d	8b 4d 10	 mov	 ecx, DWORD PTR _strReturn$[ebp]
  00020	68 00 00 00 00	 push	 OFFSET ??_C@_01GBGANLPD@0@
  00025	ff 15 00 00 00
	00		 call	 DWORD PTR __imp_??4?$CStringT@DV?$StrTraitMFC_DLL@DV?$ChTraitsCRT@D@ATL@@@@@ATL@@QAEAAV01@PBD@Z

; 999  : 	}
; 1000 : }

  0002b	8d 4d 0c	 lea	 ecx, DWORD PTR _szTmp$[ebp]
  0002e	ff 15 00 00 00
	00		 call	 DWORD PTR __imp_??1?$CStringT@DV?$StrTraitMFC_DLL@DV?$ChTraitsCRT@D@ATL@@@@@ATL@@QAE@XZ
  00034	8b e5		 mov	 esp, ebp
  00036	5d		 pop	 ebp
  00037	c2 0c 00	 ret	 12			; 0000000cH
$LN5@StrToStrCo:

; 979  : 	}
; 980  : 	else
; 981  : 	{
; 982  : 		TCHAR ch = ' ';
; 983  : 		if(szTmp[0]=='+' ||szTmp[0]=='-') 

  0003a	6a 00		 push	 0
  0003c	8d 4d 0c	 lea	 ecx, DWORD PTR _szTmp$[ebp]
  0003f	c6 45 0b 20	 mov	 BYTE PTR _ch$1$[ebp], 32 ; 00000020H
  00043	ff 15 00 00 00
	00		 call	 DWORD PTR __imp_??A?$CSimpleStringT@D$00@ATL@@QBEDH@Z
  00049	3c 2b		 cmp	 al, 43			; 0000002bH
  0004b	74 0f		 je	 SHORT $LN8@StrToStrCo
  0004d	6a 00		 push	 0
  0004f	8d 4d 0c	 lea	 ecx, DWORD PTR _szTmp$[ebp]
  00052	ff 15 00 00 00
	00		 call	 DWORD PTR __imp_??A?$CSimpleStringT@D$00@ATL@@QBEDH@Z
  00058	3c 2d		 cmp	 al, 45			; 0000002dH
  0005a	75 30		 jne	 SHORT $LN7@StrToStrCo
$LN8@StrToStrCo:

; 984  : 		{
; 985  : 			ch = szTmp[0];

  0005c	6a 00		 push	 0
  0005e	8d 4d 0c	 lea	 ecx, DWORD PTR _szTmp$[ebp]
  00061	ff 15 00 00 00
	00		 call	 DWORD PTR __imp_??A?$CSimpleStringT@D$00@ATL@@QBEDH@Z
  00067	88 45 0b	 mov	 BYTE PTR _ch$1$[ebp], al

; 986  : 			szTmp = szTmp.Mid(1);

  0006a	8d 4d 0c	 lea	 ecx, DWORD PTR _szTmp$[ebp]
  0006d	6a 01		 push	 1
  0006f	8d 45 fc	 lea	 eax, DWORD PTR $T1[ebp]
  00072	50		 push	 eax
  00073	ff 15 00 00 00
	00		 call	 DWORD PTR __imp_?Mid@?$CStringT@DV?$StrTraitMFC_DLL@DV?$ChTraitsCRT@D@ATL@@@@@ATL@@QBE?AV12@H@Z
  00079	50		 push	 eax
  0007a	8d 4d 0c	 lea	 ecx, DWORD PTR _szTmp$[ebp]
  0007d	ff 15 00 00 00
	00		 call	 DWORD PTR __imp_??4?$CStringT@DV?$StrTraitMFC_DLL@DV?$ChTraitsCRT@D@ATL@@@@@ATL@@QAEAAV01@ABV01@@Z
  00083	8d 4d fc	 lea	 ecx, DWORD PTR $T1[ebp]
  00086	ff 15 00 00 00
	00		 call	 DWORD PTR __imp_??1?$CStringT@DV?$StrTraitMFC_DLL@DV?$ChTraitsCRT@D@ATL@@@@@ATL@@QAE@XZ
$LN7@StrToStrCo:

; 987  : 		}
; 988  : 
; 989  : 		szTmp.MakeReverse();

  0008c	53		 push	 ebx
  0008d	56		 push	 esi
  0008e	57		 push	 edi
  0008f	8d 4d 0c	 lea	 ecx, DWORD PTR _szTmp$[ebp]
  00092	ff 15 00 00 00
	00		 call	 DWORD PTR __imp_?MakeReverse@?$CStringT@DV?$StrTraitMFC_DLL@DV?$ChTraitsCRT@D@ATL@@@@@ATL@@QAEAAV12@XZ
; File C:\Program Files (x86)\Microsoft Visual Studio\2019\Community\VC\Tools\MSVC\14.29.30133\atlmfc\include\atlsimpstr.h

; 519  : 		return( GetData()->nDataLength );

  00098	8b 45 0c	 mov	 eax, DWORD PTR _szTmp$[ebp]
; File D:\git\src\IBK\IBK_DRFN\ProjSrc\SrcDrfn\DrCommon\PcTrMng\_DataUtilManager.cpp

; 991  : 		strReturn = _T("");

  0009b	8b 7d 10	 mov	 edi, DWORD PTR _strReturn$[ebp]
  0009e	8b cf		 mov	 ecx, edi
  000a0	68 00 00 00 00	 push	 OFFSET ??_C@_00CNPNBAHC@@
; File C:\Program Files (x86)\Microsoft Visual Studio\2019\Community\VC\Tools\MSVC\14.29.30133\atlmfc\include\atlsimpstr.h

; 519  : 		return( GetData()->nDataLength );

  000a5	8b 58 f4	 mov	 ebx, DWORD PTR [eax-12]
; File D:\git\src\IBK\IBK_DRFN\ProjSrc\SrcDrfn\DrCommon\PcTrMng\_DataUtilManager.cpp

; 991  : 		strReturn = _T("");

  000a8	ff 15 00 00 00
	00		 call	 DWORD PTR __imp_??4?$CStringT@DV?$StrTraitMFC_DLL@DV?$ChTraitsCRT@D@ATL@@@@@ATL@@QAEAAV01@PBD@Z
  000ae	33 f6		 xor	 esi, esi

; 992  :  		for(int i = 0; i < nLen; i++) 

  000b0	85 db		 test	 ebx, ebx
  000b2	7e 3b		 jle	 SHORT $LN3@StrToStrCo
$LL4@StrToStrCo:

; 993  : 		{
; 994  : 			if(i!=0 && !(i%3))	strReturn += ',';

  000b4	85 f6		 test	 esi, esi
  000b6	74 1c		 je	 SHORT $LN9@StrToStrCo
  000b8	b8 ab aa aa aa	 mov	 eax, -1431655765	; aaaaaaabH
  000bd	8b ce		 mov	 ecx, esi
  000bf	f7 e6		 mul	 esi
  000c1	d1 ea		 shr	 edx, 1
  000c3	8d 04 52	 lea	 eax, DWORD PTR [edx+edx*2]
  000c6	2b c8		 sub	 ecx, eax
  000c8	75 0a		 jne	 SHORT $LN9@StrToStrCo
  000ca	6a 2c		 push	 44			; 0000002cH
  000cc	8b cf		 mov	 ecx, edi
  000ce	ff 15 00 00 00
	00		 call	 DWORD PTR __imp_??Y?$CStringT@DV?$StrTraitMFC_DLL@DV?$ChTraitsCRT@D@ATL@@@@@ATL@@QAEAAV01@D@Z
$LN9@StrToStrCo:

; 995  : 			strReturn += szTmp[i];

  000d4	56		 push	 esi
  000d5	8d 4d 0c	 lea	 ecx, DWORD PTR _szTmp$[ebp]
  000d8	ff 15 00 00 00
	00		 call	 DWORD PTR __imp_??A?$CSimpleStringT@D$00@ATL@@QBEDH@Z
  000de	0f b6 c0	 movzx	 eax, al
  000e1	8b cf		 mov	 ecx, edi
  000e3	50		 push	 eax
  000e4	ff 15 00 00 00
	00		 call	 DWORD PTR __imp_??Y?$CStringT@DV?$StrTraitMFC_DLL@DV?$ChTraitsCRT@D@ATL@@@@@ATL@@QAEAAV01@D@Z
  000ea	46		 inc	 esi
  000eb	3b f3		 cmp	 esi, ebx
  000ed	7c c5		 jl	 SHORT $LL4@StrToStrCo
$LN3@StrToStrCo:

; 996  : 		}
; 997  : 		if(ch=='-') strReturn += ch;

  000ef	80 7d 0b 2d	 cmp	 BYTE PTR _ch$1$[ebp], 45 ; 0000002dH
  000f3	75 0a		 jne	 SHORT $LN10@StrToStrCo
  000f5	6a 2d		 push	 45			; 0000002dH
  000f7	8b cf		 mov	 ecx, edi
  000f9	ff 15 00 00 00
	00		 call	 DWORD PTR __imp_??Y?$CStringT@DV?$StrTraitMFC_DLL@DV?$ChTraitsCRT@D@ATL@@@@@ATL@@QAEAAV01@D@Z
$LN10@StrToStrCo:

; 998  : 		strReturn.MakeReverse();	

  000ff	8b cf		 mov	 ecx, edi
  00101	ff 15 00 00 00
	00		 call	 DWORD PTR __imp_?MakeReverse@?$CStringT@DV?$StrTraitMFC_DLL@DV?$ChTraitsCRT@D@ATL@@@@@ATL@@QAEAAV12@XZ
  00107	5f		 pop	 edi
  00108	5e		 pop	 esi
  00109	5b		 pop	 ebx

; 999  : 	}
; 1000 : }

  0010a	8d 4d 0c	 lea	 ecx, DWORD PTR _szTmp$[ebp]
  0010d	ff 15 00 00 00
	00		 call	 DWORD PTR __imp_??1?$CStringT@DV?$StrTraitMFC_DLL@DV?$ChTraitsCRT@D@ATL@@@@@ATL@@QAE@XZ
  00113	8b e5		 mov	 esp, ebp
  00115	5d		 pop	 ebp
  00116	c2 0c 00	 ret	 12			; 0000000cH
?StrToStrComma@CDataUtilManager@@UAGXPBDAAV?$CStringT@DV?$StrTraitMFC_DLL@DV?$ChTraitsCRT@D@ATL@@@@@ATL@@@Z ENDP ; CDataUtilManager::StrToStrComma
_TEXT	ENDS
; Function compile flags: /Ogtp
; File D:\git\src\IBK\IBK_DRFN\ProjSrc\SrcDrfn\DrCommon\PcTrMng\_DataUtilManager.cpp
;	COMDAT ?Str2CommaStr@CDataUtilManager@@UAGHPAD0I@Z
_TEXT	SEGMENT
tv224 = -36						; size = 4
tv220 = -32						; size = 4
_dest$GSCopy$1$ = -28					; size = 4
_tmp$ = -24						; size = 20
__$ArrayPad$ = -4					; size = 4
_this$ = 8						; size = 4
_dest$ = 12						; size = 4
_src$ = 16						; size = 4
_uSize$ = 20						; size = 4
?Str2CommaStr@CDataUtilManager@@UAGHPAD0I@Z PROC	; CDataUtilManager::Str2CommaStr, COMDAT

; 946  : {

  00000	55		 push	 ebp
  00001	8b ec		 mov	 ebp, esp
  00003	83 ec 24	 sub	 esp, 36			; 00000024H
  00006	a1 00 00 00 00	 mov	 eax, DWORD PTR ___security_cookie
  0000b	33 c5		 xor	 eax, ebp
  0000d	89 45 fc	 mov	 DWORD PTR __$ArrayPad$[ebp], eax

; 947  :     if(uSize <=0 || uSize > 20) return -1;

  00010	8b 4d 14	 mov	 ecx, DWORD PTR _uSize$[ebp]
  00013	8b 55 08	 mov	 edx, DWORD PTR _this$[ebp]
  00016	53		 push	 ebx
  00017	8b 5d 0c	 mov	 ebx, DWORD PTR _dest$[ebp]
  0001a	8d 41 ff	 lea	 eax, DWORD PTR [ecx-1]
  0001d	89 5d e4	 mov	 DWORD PTR _dest$GSCopy$1$[ebp], ebx
  00020	56		 push	 esi
  00021	8b 75 10	 mov	 esi, DWORD PTR _src$[ebp]
  00024	83 f8 13	 cmp	 eax, 19			; 00000013H
  00027	0f 87 c0 00 00
	00		 ja	 $LN6@Str2CommaS

; 948  : 
; 949  : 	int nValue = chars_atoi(src,uSize);

  0002d	8b 02		 mov	 eax, DWORD PTR [edx]
  0002f	51		 push	 ecx
  00030	56		 push	 esi
  00031	52		 push	 edx
  00032	ff 90 90 00 00
	00		 call	 DWORD PTR [eax+144]

; 950  : 
; 951  :     char tmp[20];
; 952  : 	sprintf(tmp,"%d",nValue);

  00038	50		 push	 eax
  00039	8d 45 e8	 lea	 eax, DWORD PTR _tmp$[ebp]
  0003c	68 00 00 00 00	 push	 OFFSET ??_C@_02DPKJAMEF@?$CFd@
  00041	50		 push	 eax
  00042	e8 00 00 00 00	 call	 _sprintf

; 953  : 
; 954  : 	uSize = strlen(tmp);

  00047	8d 4d e8	 lea	 ecx, DWORD PTR _tmp$[ebp]
  0004a	83 c4 0c	 add	 esp, 12			; 0000000cH
  0004d	8d 51 01	 lea	 edx, DWORD PTR [ecx+1]
$LL14@Str2CommaS:
  00050	8a 01		 mov	 al, BYTE PTR [ecx]
  00052	41		 inc	 ecx
  00053	84 c0		 test	 al, al
  00055	75 f9		 jne	 SHORT $LL14@Str2CommaS
  00057	2b ca		 sub	 ecx, edx

; 955  : 
; 956  : 	if (uSize <=3 )

  00059	83 f9 03	 cmp	 ecx, 3
  0005c	77 29		 ja	 SHORT $LN7@Str2CommaS

; 957  : 	{
; 958  : 		sprintf(dest,"%s",tmp);

  0005e	8d 45 e8	 lea	 eax, DWORD PTR _tmp$[ebp]
  00061	50		 push	 eax
  00062	68 00 00 00 00	 push	 OFFSET ??_C@_02DKCKIIND@?$CFs@
  00067	53		 push	 ebx
  00068	e8 00 00 00 00	 call	 _sprintf
  0006d	83 c4 0c	 add	 esp, 12			; 0000000cH

; 959  : 		return 1;

  00070	b8 01 00 00 00	 mov	 eax, 1
  00075	5e		 pop	 esi

; 970  : }

  00076	5b		 pop	 ebx
  00077	8b 4d fc	 mov	 ecx, DWORD PTR __$ArrayPad$[ebp]
  0007a	33 cd		 xor	 ecx, ebp
  0007c	e8 00 00 00 00	 call	 @__security_check_cookie@4
  00081	8b e5		 mov	 esp, ebp
  00083	5d		 pop	 ebp
  00084	c2 10 00	 ret	 16			; 00000010H
$LN7@Str2CommaS:
  00087	57		 push	 edi

; 960  : 	}
; 961  :     int i,p,index=0, nSize = uSize;

  00088	33 f6		 xor	 esi, esi
  0008a	33 ff		 xor	 edi, edi

; 962  :     for(i=0,p=nSize; i < nSize;i++,p--){

  0008c	8b d9		 mov	 ebx, ecx
  0008e	85 c9		 test	 ecx, ecx
  00090	7e 3c		 jle	 SHORT $LN3@Str2CommaS
  00092	c7 45 e0 03 00
	00 00		 mov	 DWORD PTR tv220[ebp], 3
  00099	0f 1f 80 00 00
	00 00		 npad	 7
$LL4@Str2CommaS:

; 963  :         dest[index++] = tmp[i];

  000a0	8b 55 e4	 mov	 edx, DWORD PTR _dest$GSCopy$1$[ebp]
  000a3	8a 44 3d e8	 mov	 al, BYTE PTR _tmp$[ebp+edi]
  000a7	88 04 32	 mov	 BYTE PTR [edx+esi], al

; 964  :         if(!((p-1)%3) && p > 3) {

  000aa	8d 43 ff	 lea	 eax, DWORD PTR [ebx-1]
  000ad	89 45 dc	 mov	 DWORD PTR tv224[ebp], eax
  000b0	46		 inc	 esi
  000b1	99		 cdq
  000b2	f7 7d e0	 idiv	 DWORD PTR tv220[ebp]
  000b5	85 d2		 test	 edx, edx
  000b7	75 0d		 jne	 SHORT $LN2@Str2CommaS
  000b9	83 fb 03	 cmp	 ebx, 3
  000bc	7e 08		 jle	 SHORT $LN2@Str2CommaS

; 965  :             dest[index++]=',';

  000be	8b 45 e4	 mov	 eax, DWORD PTR _dest$GSCopy$1$[ebp]
  000c1	c6 04 30 2c	 mov	 BYTE PTR [eax+esi], 44	; 0000002cH
  000c5	46		 inc	 esi
$LN2@Str2CommaS:

; 962  :     for(i=0,p=nSize; i < nSize;i++,p--){

  000c6	8b 5d dc	 mov	 ebx, DWORD PTR tv224[ebp]
  000c9	47		 inc	 edi
  000ca	3b f9		 cmp	 edi, ecx
  000cc	7c d2		 jl	 SHORT $LL4@Str2CommaS
$LN3@Str2CommaS:

; 966  :         }
; 967  :     }
; 968  :     dest[index]=0;

  000ce	8b 45 e4	 mov	 eax, DWORD PTR _dest$GSCopy$1$[ebp]

; 969  :     return 1;

  000d1	5f		 pop	 edi
  000d2	c6 04 30 00	 mov	 BYTE PTR [eax+esi], 0
  000d6	b8 01 00 00 00	 mov	 eax, 1
  000db	5e		 pop	 esi

; 970  : }

  000dc	5b		 pop	 ebx
  000dd	8b 4d fc	 mov	 ecx, DWORD PTR __$ArrayPad$[ebp]
  000e0	33 cd		 xor	 ecx, ebp
  000e2	e8 00 00 00 00	 call	 @__security_check_cookie@4
  000e7	8b e5		 mov	 esp, ebp
  000e9	5d		 pop	 ebp
  000ea	c2 10 00	 ret	 16			; 00000010H
$LN6@Str2CommaS:
  000ed	8b 4d fc	 mov	 ecx, DWORD PTR __$ArrayPad$[ebp]
  000f0	83 c8 ff	 or	 eax, -1
  000f3	5e		 pop	 esi
  000f4	33 cd		 xor	 ecx, ebp
  000f6	5b		 pop	 ebx
  000f7	e8 00 00 00 00	 call	 @__security_check_cookie@4
  000fc	8b e5		 mov	 esp, ebp
  000fe	5d		 pop	 ebp
  000ff	c2 10 00	 ret	 16			; 00000010H
?Str2CommaStr@CDataUtilManager@@UAGHPAD0I@Z ENDP	; CDataUtilManager::Str2CommaStr
_TEXT	ENDS
; Function compile flags: /Ogtp
; File D:\git\src\IBK\IBK_DRFN\ProjSrc\SrcDrfn\DrCommon\PcTrMng\_DataUtilManager.cpp
;	COMDAT ?IntToStrComma@CDataUtilManager@@UAG?AV?$CStringT@DV?$StrTraitMFC_DLL@DV?$ChTraitsCRT@D@ATL@@@@@ATL@@HH@Z
_TEXT	SEGMENT
_this$ = 8						; size = 4
_strData$1 = 12						; size = 4
___$ReturnUdt$ = 12					; size = 4
_nVal$ = 16						; size = 4
_bShowZero$ = 20					; size = 4
?IntToStrComma@CDataUtilManager@@UAG?AV?$CStringT@DV?$StrTraitMFC_DLL@DV?$ChTraitsCRT@D@ATL@@@@@ATL@@HH@Z PROC ; CDataUtilManager::IntToStrComma, COMDAT

; 928  : {

  00000	55		 push	 ebp
  00001	8b ec		 mov	 ebp, esp
  00003	56		 push	 esi

; 929  : 	CString strReturn = _T("");

  00004	8b 75 0c	 mov	 esi, DWORD PTR ___$ReturnUdt$[ebp]
  00007	8b ce		 mov	 ecx, esi
  00009	68 00 00 00 00	 push	 OFFSET ??_C@_00CNPNBAHC@@
  0000e	ff 15 00 00 00
	00		 call	 DWORD PTR __imp_??0?$CStringT@DV?$StrTraitMFC_DLL@DV?$ChTraitsCRT@D@ATL@@@@@ATL@@QAE@PBD@Z

; 930  : 	if(nVal == 0)

  00014	83 7d 10 00	 cmp	 DWORD PTR _nVal$[ebp], 0
  00018	75 2c		 jne	 SHORT $LN2@IntToStrCo

; 931  : 	{
; 932  : 		if(bShowZero == FALSE)	strReturn = _T("");

  0001a	83 7d 14 00	 cmp	 DWORD PTR _bShowZero$[ebp], 0
  0001e	8b ce		 mov	 ecx, esi
  00020	75 12		 jne	 SHORT $LN4@IntToStrCo
  00022	68 00 00 00 00	 push	 OFFSET ??_C@_00CNPNBAHC@@
  00027	ff 15 00 00 00
	00		 call	 DWORD PTR __imp_??4?$CStringT@DV?$StrTraitMFC_DLL@DV?$ChTraitsCRT@D@ATL@@@@@ATL@@QAEAAV01@PBD@Z

; 941  : 	return strReturn;
; 942  : }

  0002d	8b c6		 mov	 eax, esi
  0002f	5e		 pop	 esi
  00030	5d		 pop	 ebp
  00031	c2 10 00	 ret	 16			; 00000010H
$LN4@IntToStrCo:

; 933  : 		else					strReturn = _T("0");

  00034	68 00 00 00 00	 push	 OFFSET ??_C@_01GBGANLPD@0@
  00039	ff 15 00 00 00
	00		 call	 DWORD PTR __imp_??4?$CStringT@DV?$StrTraitMFC_DLL@DV?$ChTraitsCRT@D@ATL@@@@@ATL@@QAEAAV01@PBD@Z

; 941  : 	return strReturn;
; 942  : }

  0003f	8b c6		 mov	 eax, esi
  00041	5e		 pop	 esi
  00042	5d		 pop	 ebp
  00043	c2 10 00	 ret	 16			; 00000010H
$LN2@IntToStrCo:

; 934  : 	}
; 935  : 	else
; 936  : 	{
; 937  : 		CString strData; 

  00046	8d 4d 0c	 lea	 ecx, DWORD PTR _strData$1[ebp]
  00049	ff 15 00 00 00
	00		 call	 DWORD PTR __imp_??0?$CStringT@DV?$StrTraitMFC_DLL@DV?$ChTraitsCRT@D@ATL@@@@@ATL@@QAE@XZ

; 938  : 		strData.Format("%d", nVal);

  0004f	ff 75 10	 push	 DWORD PTR _nVal$[ebp]
  00052	8d 45 0c	 lea	 eax, DWORD PTR _strData$1[ebp]
  00055	68 00 00 00 00	 push	 OFFSET ??_C@_02DPKJAMEF@?$CFd@
  0005a	50		 push	 eax
  0005b	ff 15 00 00 00
	00		 call	 DWORD PTR __imp_?Format@?$CStringT@DV?$StrTraitMFC_DLL@DV?$ChTraitsCRT@D@ATL@@@@@ATL@@QAAXPBDZZ

; 939  : 		StrToStrComma(strData, strReturn);

  00061	8b 45 08	 mov	 eax, DWORD PTR _this$[ebp]
  00064	83 c4 0c	 add	 esp, 12			; 0000000cH
  00067	8b 08		 mov	 ecx, DWORD PTR [eax]
  00069	56		 push	 esi
  0006a	ff 75 0c	 push	 DWORD PTR _strData$1[ebp]
  0006d	50		 push	 eax
  0006e	ff 91 a4 00 00
	00		 call	 DWORD PTR [ecx+164]

; 940  : 	}

  00074	8d 4d 0c	 lea	 ecx, DWORD PTR _strData$1[ebp]
  00077	ff 15 00 00 00
	00		 call	 DWORD PTR __imp_??1?$CStringT@DV?$StrTraitMFC_DLL@DV?$ChTraitsCRT@D@ATL@@@@@ATL@@QAE@XZ

; 941  : 	return strReturn;
; 942  : }

  0007d	8b c6		 mov	 eax, esi
  0007f	5e		 pop	 esi
  00080	5d		 pop	 ebp
  00081	c2 10 00	 ret	 16			; 00000010H
?IntToStrComma@CDataUtilManager@@UAG?AV?$CStringT@DV?$StrTraitMFC_DLL@DV?$ChTraitsCRT@D@ATL@@@@@ATL@@HH@Z ENDP ; CDataUtilManager::IntToStrComma
_TEXT	ENDS
; Function compile flags: /Ogtp
; File D:\git\src\IBK\IBK_DRFN\ProjSrc\SrcDrfn\DrCommon\PcTrMng\_DataUtilManager.cpp
; File C:\Program Files (x86)\Microsoft Visual Studio\2019\Community\VC\Tools\MSVC\14.29.30133\atlmfc\include\atlsimpstr.h
; File D:\git\src\IBK\IBK_DRFN\ProjSrc\SrcDrfn\DrCommon\PcTrMng\_DataUtilManager.cpp
; File C:\Program Files (x86)\Microsoft Visual Studio\2019\Community\VC\Tools\MSVC\14.29.30133\atlmfc\include\atlsimpstr.h
; File D:\git\src\IBK\IBK_DRFN\ProjSrc\SrcDrfn\DrCommon\PcTrMng\_DataUtilManager.cpp
; File C:\Program Files (x86)\Microsoft Visual Studio\2019\Community\VC\Tools\MSVC\14.29.30133\atlmfc\include\cstringt.h
; File D:\git\src\IBK\IBK_DRFN\ProjSrc\SrcDrfn\DrCommon\PcTrMng\_DataUtilManager.cpp
;	COMDAT ?DoubleToStrComma@CDataUtilManager@@UAG?AV?$CStringT@DV?$StrTraitMFC_DLL@DV?$ChTraitsCRT@D@ATL@@@@@ATL@@NHH@Z
_TEXT	SEGMENT
_strDecimal$ = -12					; size = 4
_strData$ = -8						; size = 4
_strNonDecimal$ = -4					; size = 4
$T1 = 8							; size = 4
_this$ = 8						; size = 4
$T2 = 12						; size = 4
$T3 = 12						; size = 4
___$ReturnUdt$ = 12					; size = 4
tv270 = 16						; size = 8
_dVal$ = 16						; size = 8
_nSosu$ = 24						; size = 4
_bShowZero$ = 28					; size = 4
?DoubleToStrComma@CDataUtilManager@@UAG?AV?$CStringT@DV?$StrTraitMFC_DLL@DV?$ChTraitsCRT@D@ATL@@@@@ATL@@NHH@Z PROC ; CDataUtilManager::DoubleToStrComma, COMDAT

; 901  : {

  00000	55		 push	 ebp
  00001	8b ec		 mov	 ebp, esp
  00003	83 ec 0c	 sub	 esp, 12			; 0000000cH

; 902  : 	CString strData, strDecimal, strNonDecimal, strReturn = _T("");

  00006	8d 4d f8	 lea	 ecx, DWORD PTR _strData$[ebp]
  00009	56		 push	 esi
  0000a	57		 push	 edi
  0000b	ff 15 00 00 00
	00		 call	 DWORD PTR __imp_??0?$CStringT@DV?$StrTraitMFC_DLL@DV?$ChTraitsCRT@D@ATL@@@@@ATL@@QAE@XZ
  00011	8d 4d f4	 lea	 ecx, DWORD PTR _strDecimal$[ebp]
  00014	ff 15 00 00 00
	00		 call	 DWORD PTR __imp_??0?$CStringT@DV?$StrTraitMFC_DLL@DV?$ChTraitsCRT@D@ATL@@@@@ATL@@QAE@XZ
  0001a	8d 4d fc	 lea	 ecx, DWORD PTR _strNonDecimal$[ebp]
  0001d	ff 15 00 00 00
	00		 call	 DWORD PTR __imp_??0?$CStringT@DV?$StrTraitMFC_DLL@DV?$ChTraitsCRT@D@ATL@@@@@ATL@@QAE@XZ
  00023	8b 75 0c	 mov	 esi, DWORD PTR ___$ReturnUdt$[ebp]
  00026	8b ce		 mov	 ecx, esi
  00028	68 00 00 00 00	 push	 OFFSET ??_C@_00CNPNBAHC@@
  0002d	ff 15 00 00 00
	00		 call	 DWORD PTR __imp_??0?$CStringT@DV?$StrTraitMFC_DLL@DV?$ChTraitsCRT@D@ATL@@@@@ATL@@QAE@PBD@Z

; 903  : 	strData.Format("%.*f", nSosu, dVal);

  00033	f2 0f 10 45 10	 movsd	 xmm0, QWORD PTR _dVal$[ebp]
  00038	8d 45 f8	 lea	 eax, DWORD PTR _strData$[ebp]
  0003b	8b 7d 18	 mov	 edi, DWORD PTR _nSosu$[ebp]
  0003e	83 ec 08	 sub	 esp, 8
  00041	f2 0f 11 04 24	 movsd	 QWORD PTR [esp], xmm0
  00046	57		 push	 edi
  00047	68 00 00 00 00	 push	 OFFSET ??_C@_04HGGMHPIM@?$CF?4?$CKf@
  0004c	50		 push	 eax
  0004d	ff 15 00 00 00
	00		 call	 DWORD PTR __imp_?Format@?$CStringT@DV?$StrTraitMFC_DLL@DV?$ChTraitsCRT@D@ATL@@@@@ATL@@QAAXPBDZZ
  00053	83 c4 14	 add	 esp, 20			; 00000014H

; 904  : 
; 905  : 	if(nSosu == 0)

  00056	85 ff		 test	 edi, edi
  00058	75 15		 jne	 SHORT $LN2@DoubleToSt

; 906  : 	{
; 907  : 		StrToStrComma(strData, strReturn);

  0005a	8b 45 08	 mov	 eax, DWORD PTR _this$[ebp]
  0005d	56		 push	 esi
  0005e	ff 75 f8	 push	 DWORD PTR _strData$[ebp]
  00061	8b 08		 mov	 ecx, DWORD PTR [eax]
  00063	50		 push	 eax
  00064	ff 91 a4 00 00
	00		 call	 DWORD PTR [ecx+164]

; 908  : 	}

  0006a	e9 a4 00 00 00	 jmp	 $LN3@DoubleToSt
$LN2@DoubleToSt:
; File C:\Program Files (x86)\Microsoft Visual Studio\2019\Community\VC\Tools\MSVC\14.29.30133\atlmfc\include\atlsimpstr.h

; 519  : 		return( GetData()->nDataLength );

  0006f	8b 45 f8	 mov	 eax, DWORD PTR _strData$[ebp]
; File D:\git\src\IBK\IBK_DRFN\ProjSrc\SrcDrfn\DrCommon\PcTrMng\_DataUtilManager.cpp

; 912  : 		strNonDecimal = strData.Left(nLen-nSosu-1);

  00072	8d 4d f8	 lea	 ecx, DWORD PTR _strData$[ebp]
; File C:\Program Files (x86)\Microsoft Visual Studio\2019\Community\VC\Tools\MSVC\14.29.30133\atlmfc\include\atlsimpstr.h

; 519  : 		return( GetData()->nDataLength );

  00075	8b 40 f4	 mov	 eax, DWORD PTR [eax-12]
; File D:\git\src\IBK\IBK_DRFN\ProjSrc\SrcDrfn\DrCommon\PcTrMng\_DataUtilManager.cpp

; 912  : 		strNonDecimal = strData.Left(nLen-nSosu-1);

  00078	2b c7		 sub	 eax, edi
  0007a	48		 dec	 eax
  0007b	50		 push	 eax
  0007c	8d 45 0c	 lea	 eax, DWORD PTR $T3[ebp]
  0007f	50		 push	 eax
  00080	ff 15 00 00 00
	00		 call	 DWORD PTR __imp_?Left@?$CStringT@DV?$StrTraitMFC_DLL@DV?$ChTraitsCRT@D@ATL@@@@@ATL@@QBE?AV12@H@Z
  00086	50		 push	 eax
  00087	8d 4d fc	 lea	 ecx, DWORD PTR _strNonDecimal$[ebp]
  0008a	ff 15 00 00 00
	00		 call	 DWORD PTR __imp_??4?$CStringT@DV?$StrTraitMFC_DLL@DV?$ChTraitsCRT@D@ATL@@@@@ATL@@QAEAAV01@ABV01@@Z
  00090	8d 4d 0c	 lea	 ecx, DWORD PTR $T3[ebp]
  00093	ff 15 00 00 00
	00		 call	 DWORD PTR __imp_??1?$CStringT@DV?$StrTraitMFC_DLL@DV?$ChTraitsCRT@D@ATL@@@@@ATL@@QAE@XZ

; 913  : 		strDecimal = strData.Right(nSosu+1);

  00099	8d 47 01	 lea	 eax, DWORD PTR [edi+1]
  0009c	50		 push	 eax
  0009d	8d 45 0c	 lea	 eax, DWORD PTR $T2[ebp]
  000a0	50		 push	 eax
  000a1	8d 4d f8	 lea	 ecx, DWORD PTR _strData$[ebp]
  000a4	ff 15 00 00 00
	00		 call	 DWORD PTR __imp_?Right@?$CStringT@DV?$StrTraitMFC_DLL@DV?$ChTraitsCRT@D@ATL@@@@@ATL@@QBE?AV12@H@Z
  000aa	50		 push	 eax
  000ab	8d 4d f4	 lea	 ecx, DWORD PTR _strDecimal$[ebp]
  000ae	ff 15 00 00 00
	00		 call	 DWORD PTR __imp_??4?$CStringT@DV?$StrTraitMFC_DLL@DV?$ChTraitsCRT@D@ATL@@@@@ATL@@QAEAAV01@ABV01@@Z
  000b4	8d 4d 0c	 lea	 ecx, DWORD PTR $T2[ebp]
  000b7	ff 15 00 00 00
	00		 call	 DWORD PTR __imp_??1?$CStringT@DV?$StrTraitMFC_DLL@DV?$ChTraitsCRT@D@ATL@@@@@ATL@@QAE@XZ

; 914  : 		StrToStrComma(strNonDecimal, strNonDecimal);

  000bd	8b 45 08	 mov	 eax, DWORD PTR _this$[ebp]
  000c0	8d 55 fc	 lea	 edx, DWORD PTR _strNonDecimal$[ebp]
  000c3	52		 push	 edx
  000c4	ff 75 fc	 push	 DWORD PTR _strNonDecimal$[ebp]
  000c7	8b 08		 mov	 ecx, DWORD PTR [eax]
  000c9	50		 push	 eax
  000ca	ff 91 a4 00 00
	00		 call	 DWORD PTR [ecx+164]
; File C:\Program Files (x86)\Microsoft Visual Studio\2019\Community\VC\Tools\MSVC\14.29.30133\atlmfc\include\cstringt.h

; 2390 : 		CStringT strResult( str1.GetManager() );

  000d0	8d 4d fc	 lea	 ecx, DWORD PTR _strNonDecimal$[ebp]
  000d3	ff 15 00 00 00
	00		 call	 DWORD PTR __imp_?GetManager@?$CStringT@DV?$StrTraitMFC_DLL@DV?$ChTraitsCRT@D@ATL@@@@@ATL@@QBEPAUIAtlStringMgr@2@XZ
  000d9	50		 push	 eax
  000da	8d 4d 08	 lea	 ecx, DWORD PTR $T1[ebp]
  000dd	ff 15 00 00 00
	00		 call	 DWORD PTR __imp_??0?$CStringT@DV?$StrTraitMFC_DLL@DV?$ChTraitsCRT@D@ATL@@@@@ATL@@QAE@PAUIAtlStringMgr@1@@Z

; 2391 : 
; 2392 : 		CThisSimpleString::Concatenate( strResult, str1, str1.GetLength(), str2, str2.GetLength() );

  000e3	8b 45 f4	 mov	 eax, DWORD PTR _strDecimal$[ebp]
  000e6	ff 70 f4	 push	 DWORD PTR [eax-12]
  000e9	50		 push	 eax
  000ea	8b 45 fc	 mov	 eax, DWORD PTR _strNonDecimal$[ebp]
  000ed	ff 70 f4	 push	 DWORD PTR [eax-12]
  000f0	50		 push	 eax
  000f1	8d 45 08	 lea	 eax, DWORD PTR $T1[ebp]
  000f4	50		 push	 eax
  000f5	ff 15 00 00 00
	00		 call	 DWORD PTR __imp_?Concatenate@?$CSimpleStringT@D$00@ATL@@KAXAAV12@PBDH1H@Z
  000fb	83 c4 14	 add	 esp, 20			; 00000014H
; File D:\git\src\IBK\IBK_DRFN\ProjSrc\SrcDrfn\DrCommon\PcTrMng\_DataUtilManager.cpp

; 915  : 		strReturn = strNonDecimal+strDecimal;

  000fe	8d 45 08	 lea	 eax, DWORD PTR $T1[ebp]
  00101	8b ce		 mov	 ecx, esi
  00103	50		 push	 eax
  00104	ff 15 00 00 00
	00		 call	 DWORD PTR __imp_??4?$CStringT@DV?$StrTraitMFC_DLL@DV?$ChTraitsCRT@D@ATL@@@@@ATL@@QAEAAV01@ABV01@@Z
  0010a	8d 4d 08	 lea	 ecx, DWORD PTR $T1[ebp]
  0010d	ff 15 00 00 00
	00		 call	 DWORD PTR __imp_??1?$CStringT@DV?$StrTraitMFC_DLL@DV?$ChTraitsCRT@D@ATL@@@@@ATL@@QAE@XZ
$LN3@DoubleToSt:

; 916  : 	}
; 917  : 
; 918  : 	if(bShowZero == FALSE)

  00113	83 7d 1c 00	 cmp	 DWORD PTR _bShowZero$[ebp], 0
  00117	75 2e		 jne	 SHORT $LN5@DoubleToSt

; 919  : 	{
; 920  : 		if(atof(strReturn) == 0.)	strReturn = _T(" ");

  00119	ff 36		 push	 DWORD PTR [esi]
  0011b	ff 15 00 00 00
	00		 call	 DWORD PTR __imp__atof
  00121	dd 5d 10	 fstp	 QWORD PTR tv270[ebp]
  00124	f2 0f 10 45 10	 movsd	 xmm0, QWORD PTR tv270[ebp]
  00129	83 c4 04	 add	 esp, 4
  0012c	66 0f 2e 05 00
	00 00 00	 ucomisd xmm0, QWORD PTR __real@0000000000000000
  00134	9f		 lahf
  00135	f6 c4 44	 test	 ah, 68			; 00000044H
  00138	7a 0d		 jp	 SHORT $LN5@DoubleToSt
  0013a	68 00 00 00 00	 push	 OFFSET ??_C@_01CLKCMJKC@?5@
  0013f	8b ce		 mov	 ecx, esi
  00141	ff 15 00 00 00
	00		 call	 DWORD PTR __imp_??4?$CStringT@DV?$StrTraitMFC_DLL@DV?$ChTraitsCRT@D@ATL@@@@@ATL@@QAEAAV01@PBD@Z
$LN5@DoubleToSt:

; 921  : 	}
; 922  : 
; 923  : 	return strReturn;

  00147	8d 4d fc	 lea	 ecx, DWORD PTR _strNonDecimal$[ebp]
  0014a	ff 15 00 00 00
	00		 call	 DWORD PTR __imp_??1?$CStringT@DV?$StrTraitMFC_DLL@DV?$ChTraitsCRT@D@ATL@@@@@ATL@@QAE@XZ
  00150	8d 4d f4	 lea	 ecx, DWORD PTR _strDecimal$[ebp]
  00153	ff 15 00 00 00
	00		 call	 DWORD PTR __imp_??1?$CStringT@DV?$StrTraitMFC_DLL@DV?$ChTraitsCRT@D@ATL@@@@@ATL@@QAE@XZ
  00159	8d 4d f8	 lea	 ecx, DWORD PTR _strData$[ebp]
  0015c	ff 15 00 00 00
	00		 call	 DWORD PTR __imp_??1?$CStringT@DV?$StrTraitMFC_DLL@DV?$ChTraitsCRT@D@ATL@@@@@ATL@@QAE@XZ
  00162	5f		 pop	 edi
  00163	8b c6		 mov	 eax, esi
  00165	5e		 pop	 esi

; 924  : }

  00166	8b e5		 mov	 esp, ebp
  00168	5d		 pop	 ebp
  00169	c2 18 00	 ret	 24			; 00000018H
?DoubleToStrComma@CDataUtilManager@@UAG?AV?$CStringT@DV?$StrTraitMFC_DLL@DV?$ChTraitsCRT@D@ATL@@@@@ATL@@NHH@Z ENDP ; CDataUtilManager::DoubleToStrComma
_TEXT	ENDS
; Function compile flags: /Ogtp
; File D:\git\src\IBK\IBK_DRFN\ProjSrc\SrcDrfn\DrCommon\PcTrMng\_DataUtilManager.cpp
;	COMDAT ?chars_atof@CDataUtilManager@@UAGNPADI@Z
_TEXT	SEGMENT
_tmp$ = -24						; size = 20
__$ArrayPad$ = -4					; size = 4
_this$ = 8						; size = 4
_lpstrSrc$ = 12						; size = 4
_uSize$ = 16						; size = 4
?chars_atof@CDataUtilManager@@UAGNPADI@Z PROC		; CDataUtilManager::chars_atof, COMDAT

; 892  : {

  00000	55		 push	 ebp
  00001	8b ec		 mov	 ebp, esp
  00003	83 ec 18	 sub	 esp, 24			; 00000018H
  00006	a1 00 00 00 00	 mov	 eax, DWORD PTR ___security_cookie
  0000b	33 c5		 xor	 eax, ebp
  0000d	89 45 fc	 mov	 DWORD PTR __$ArrayPad$[ebp], eax
  00010	8b 45 0c	 mov	 eax, DWORD PTR _lpstrSrc$[ebp]
  00013	56		 push	 esi

; 893  :     char tmp[20];
; 894  : 	memcpy(tmp, lpstrSrc, uSize);

  00014	8b 75 10	 mov	 esi, DWORD PTR _uSize$[ebp]
  00017	56		 push	 esi
  00018	50		 push	 eax
  00019	8d 45 e8	 lea	 eax, DWORD PTR _tmp$[ebp]
  0001c	50		 push	 eax
  0001d	e8 00 00 00 00	 call	 _memcpy
  00022	83 c4 0c	 add	 esp, 12			; 0000000cH

; 895  : 	tmp[uSize] = 0;

  00025	83 fe 14	 cmp	 esi, 20			; 00000014H
  00028	73 23		 jae	 SHORT $LN3@chars_atof

; 896  : 	double dRetValue = atof(tmp);

  0002a	8d 45 e8	 lea	 eax, DWORD PTR _tmp$[ebp]
  0002d	c6 44 35 e8 00	 mov	 BYTE PTR _tmp$[ebp+esi], 0
  00032	50		 push	 eax
  00033	ff 15 00 00 00
	00		 call	 DWORD PTR __imp__atof

; 897  : 	return dRetValue;
; 898  : }

  00039	8b 4d fc	 mov	 ecx, DWORD PTR __$ArrayPad$[ebp]
  0003c	83 c4 04	 add	 esp, 4
  0003f	33 cd		 xor	 ecx, ebp
  00041	5e		 pop	 esi
  00042	e8 00 00 00 00	 call	 @__security_check_cookie@4
  00047	8b e5		 mov	 esp, ebp
  00049	5d		 pop	 ebp
  0004a	c2 0c 00	 ret	 12			; 0000000cH
$LN3@chars_atof:

; 895  : 	tmp[uSize] = 0;

  0004d	e8 00 00 00 00	 call	 ___report_rangecheckfailure
$LN5@chars_atof:
  00052	cc		 int	 3
?chars_atof@CDataUtilManager@@UAGNPADI@Z ENDP		; CDataUtilManager::chars_atof
_TEXT	ENDS
; Function compile flags: /Ogtp
; File D:\git\src\IBK\IBK_DRFN\ProjSrc\SrcDrfn\DrCommon\PcTrMng\_DataUtilManager.cpp
;	COMDAT ?chars_atoi@CDataUtilManager@@UAGHPADI@Z
_TEXT	SEGMENT
_tmp$ = -24						; size = 20
__$ArrayPad$ = -4					; size = 4
_this$ = 8						; size = 4
_lpstrSrc$ = 12						; size = 4
_uSize$ = 16						; size = 4
?chars_atoi@CDataUtilManager@@UAGHPADI@Z PROC		; CDataUtilManager::chars_atoi, COMDAT

; 883  : {

  00000	55		 push	 ebp
  00001	8b ec		 mov	 ebp, esp
  00003	83 ec 18	 sub	 esp, 24			; 00000018H
  00006	a1 00 00 00 00	 mov	 eax, DWORD PTR ___security_cookie
  0000b	33 c5		 xor	 eax, ebp
  0000d	89 45 fc	 mov	 DWORD PTR __$ArrayPad$[ebp], eax
  00010	8b 45 0c	 mov	 eax, DWORD PTR _lpstrSrc$[ebp]
  00013	56		 push	 esi

; 884  :     char tmp[20];
; 885  : 	memcpy(tmp, lpstrSrc, uSize);

  00014	8b 75 10	 mov	 esi, DWORD PTR _uSize$[ebp]
  00017	56		 push	 esi
  00018	50		 push	 eax
  00019	8d 45 e8	 lea	 eax, DWORD PTR _tmp$[ebp]
  0001c	50		 push	 eax
  0001d	e8 00 00 00 00	 call	 _memcpy
  00022	83 c4 0c	 add	 esp, 12			; 0000000cH

; 886  : 	tmp[uSize] = 0;

  00025	83 fe 14	 cmp	 esi, 20			; 00000014H
  00028	73 23		 jae	 SHORT $LN3@chars_atoi

; 887  : 	int nRetValue = atoi(tmp);

  0002a	8d 45 e8	 lea	 eax, DWORD PTR _tmp$[ebp]
  0002d	c6 44 35 e8 00	 mov	 BYTE PTR _tmp$[ebp+esi], 0
  00032	50		 push	 eax
  00033	ff 15 00 00 00
	00		 call	 DWORD PTR __imp__atoi

; 888  : 	return nRetValue;
; 889  : }

  00039	8b 4d fc	 mov	 ecx, DWORD PTR __$ArrayPad$[ebp]
  0003c	83 c4 04	 add	 esp, 4
  0003f	33 cd		 xor	 ecx, ebp
  00041	5e		 pop	 esi
  00042	e8 00 00 00 00	 call	 @__security_check_cookie@4
  00047	8b e5		 mov	 esp, ebp
  00049	5d		 pop	 ebp
  0004a	c2 0c 00	 ret	 12			; 0000000cH
$LN3@chars_atoi:

; 886  : 	tmp[uSize] = 0;

  0004d	e8 00 00 00 00	 call	 ___report_rangecheckfailure
$LN5@chars_atoi:
  00052	cc		 int	 3
?chars_atoi@CDataUtilManager@@UAGHPADI@Z ENDP		; CDataUtilManager::chars_atoi
_TEXT	ENDS
; Function compile flags: /Ogtp
; File D:\git\src\IBK\IBK_DRFN\ProjSrc\SrcDrfn\DrCommon\PcTrMng\_DataUtilManager.cpp
; File C:\Program Files (x86)\Microsoft Visual Studio\2019\Community\VC\Tools\MSVC\14.29.30133\atlmfc\include\atlsimpstr.h
; File D:\git\src\IBK\IBK_DRFN\ProjSrc\SrcDrfn\DrCommon\PcTrMng\_DataUtilManager.cpp
; File C:\Program Files (x86)\Microsoft Visual Studio\2019\Community\VC\Tools\MSVC\14.29.30133\atlmfc\include\atlsimpstr.h
; File D:\git\src\IBK\IBK_DRFN\ProjSrc\SrcDrfn\DrCommon\PcTrMng\_DataUtilManager.cpp
; File C:\Program Files (x86)\Microsoft Visual Studio\2019\Community\VC\Tools\MSVC\14.29.30133\atlmfc\include\cstringt.h
; File C:\Program Files (x86)\Microsoft Visual Studio\2019\Community\VC\Tools\MSVC\14.29.30133\atlmfc\include\atlsimpstr.h
; File C:\Program Files (x86)\Microsoft Visual Studio\2019\Community\VC\Tools\MSVC\14.29.30133\atlmfc\include\cstringt.h
; File D:\git\src\IBK\IBK_DRFN\ProjSrc\SrcDrfn\DrCommon\PcTrMng\_DataUtilManager.cpp
; File C:\Program Files (x86)\Microsoft Visual Studio\2019\Community\VC\Tools\MSVC\14.29.30133\atlmfc\include\cstringt.h
; File D:\git\src\IBK\IBK_DRFN\ProjSrc\SrcDrfn\DrCommon\PcTrMng\_DataUtilManager.cpp
; File C:\Program Files (x86)\Microsoft Visual Studio\2019\Community\VC\Tools\MSVC\14.29.30133\atlmfc\include\cstringt.h
; File C:\Program Files (x86)\Microsoft Visual Studio\2019\Community\VC\Tools\MSVC\14.29.30133\atlmfc\include\atlsimpstr.h
; File C:\Program Files (x86)\Microsoft Visual Studio\2019\Community\VC\Tools\MSVC\14.29.30133\atlmfc\include\cstringt.h
; File D:\git\src\IBK\IBK_DRFN\ProjSrc\SrcDrfn\DrCommon\PcTrMng\_DataUtilManager.cpp
; File C:\Program Files (x86)\Microsoft Visual Studio\2019\Community\VC\Tools\MSVC\14.29.30133\atlmfc\include\cstringt.h
; File C:\Program Files (x86)\Microsoft Visual Studio\2019\Community\VC\Tools\MSVC\14.29.30133\atlmfc\include\atlsimpstr.h
; File C:\Program Files (x86)\Microsoft Visual Studio\2019\Community\VC\Tools\MSVC\14.29.30133\atlmfc\include\cstringt.h
; File D:\git\src\IBK\IBK_DRFN\ProjSrc\SrcDrfn\DrCommon\PcTrMng\_DataUtilManager.cpp
; File C:\Program Files (x86)\Microsoft Visual Studio\2019\Community\VC\Tools\MSVC\14.29.30133\atlmfc\include\cstringt.h
; File D:\git\src\IBK\IBK_DRFN\ProjSrc\SrcDrfn\DrCommon\PcTrMng\_DataUtilManager.cpp
; File C:\Program Files (x86)\Microsoft Visual Studio\2019\Community\VC\Tools\MSVC\14.29.30133\atlmfc\include\cstringt.h
; File C:\Program Files (x86)\Microsoft Visual Studio\2019\Community\VC\Tools\MSVC\14.29.30133\atlmfc\include\atlsimpstr.h
; File C:\Program Files (x86)\Microsoft Visual Studio\2019\Community\VC\Tools\MSVC\14.29.30133\atlmfc\include\cstringt.h
; File D:\git\src\IBK\IBK_DRFN\ProjSrc\SrcDrfn\DrCommon\PcTrMng\_DataUtilManager.cpp
; File C:\Program Files (x86)\Microsoft Visual Studio\2019\Community\VC\Tools\MSVC\14.29.30133\atlmfc\include\cstringt.h
; File D:\git\src\IBK\IBK_DRFN\ProjSrc\SrcDrfn\DrCommon\PcTrMng\_DataUtilManager.cpp
; File C:\Program Files (x86)\Microsoft Visual Studio\2019\Community\VC\Tools\MSVC\14.29.30133\atlmfc\include\cstringt.h
; File D:\git\src\IBK\IBK_DRFN\ProjSrc\SrcDrfn\DrCommon\PcTrMng\_DataUtilManager.cpp
;	COMDAT ?InsertComma@CDataUtilManager@@UAGXAAV?$CStringT@DV?$StrTraitMFC_DLL@DV?$ChTraitsCRT@D@ATL@@@@@ATL@@@Z
_TEXT	SEGMENT
_strTemp2$ = -52					; size = 4
_nLength$1$ = -48					; size = 4
$T1 = -44						; size = 4
$T2 = -40						; size = 4
$T3 = -36						; size = 4
$T4 = -32						; size = 4
_strTemp3$ = -28					; size = 4
$T5 = -24						; size = 4
$T6 = -24						; size = 4
$T7 = -24						; size = 4
$T8 = -24						; size = 4
$T9 = -24						; size = 4
$T10 = -24						; size = 4
$T11 = -20						; size = 4
_strTemp1$ = -16					; size = 4
$T12 = -12						; size = 4
$T13 = -12						; size = 4
$T14 = -8						; size = 4
_str$ = -4						; size = 4
_this$ = 8						; size = 4
_max$ = 12						; size = 4
_str1$ = 12						; size = 4
?InsertComma@CDataUtilManager@@UAGXAAV?$CStringT@DV?$StrTraitMFC_DLL@DV?$ChTraitsCRT@D@ATL@@@@@ATL@@@Z PROC ; CDataUtilManager::InsertComma, COMDAT

; 834  : {

  00000	55		 push	 ebp
  00001	8b ec		 mov	 ebp, esp
  00003	83 ec 34	 sub	 esp, 52			; 00000034H

; 835  : 		CString str,strTemp1,strTemp2,strTemp3;

  00006	8d 4d fc	 lea	 ecx, DWORD PTR _str$[ebp]
  00009	ff 15 00 00 00
	00		 call	 DWORD PTR __imp_??0?$CStringT@DV?$StrTraitMFC_DLL@DV?$ChTraitsCRT@D@ATL@@@@@ATL@@QAE@XZ
  0000f	8d 4d f0	 lea	 ecx, DWORD PTR _strTemp1$[ebp]
  00012	ff 15 00 00 00
	00		 call	 DWORD PTR __imp_??0?$CStringT@DV?$StrTraitMFC_DLL@DV?$ChTraitsCRT@D@ATL@@@@@ATL@@QAE@XZ
  00018	8d 4d cc	 lea	 ecx, DWORD PTR _strTemp2$[ebp]
  0001b	ff 15 00 00 00
	00		 call	 DWORD PTR __imp_??0?$CStringT@DV?$StrTraitMFC_DLL@DV?$ChTraitsCRT@D@ATL@@@@@ATL@@QAE@XZ
  00021	8d 4d e4	 lea	 ecx, DWORD PTR _strTemp3$[ebp]
  00024	ff 15 00 00 00
	00		 call	 DWORD PTR __imp_??0?$CStringT@DV?$StrTraitMFC_DLL@DV?$ChTraitsCRT@D@ATL@@@@@ATL@@QAE@XZ

; 836  : 		str = str1;

  0002a	ff 75 0c	 push	 DWORD PTR _str1$[ebp]
  0002d	8d 4d fc	 lea	 ecx, DWORD PTR _str$[ebp]
  00030	ff 15 00 00 00
	00		 call	 DWORD PTR __imp_??4?$CStringT@DV?$StrTraitMFC_DLL@DV?$ChTraitsCRT@D@ATL@@@@@ATL@@QAEAAV01@ABV01@@Z

; 837  : 		// .
; 838  : 		if(str.GetLength() > 0)

  00036	8b 45 fc	 mov	 eax, DWORD PTR _str$[ebp]
  00039	83 78 f4 00	 cmp	 DWORD PTR [eax-12], 0
  0003d	7e 62		 jle	 SHORT $LN6@InsertComm

; 839  : 		{
; 840  : 			if(str.GetAt(0) == '-' || str.GetAt(0) == '+')

  0003f	6a 00		 push	 0
  00041	8d 4d fc	 lea	 ecx, DWORD PTR _str$[ebp]
  00044	ff 15 00 00 00
	00		 call	 DWORD PTR __imp_?GetAt@?$CSimpleStringT@D$00@ATL@@QBEDH@Z
  0004a	3c 2d		 cmp	 al, 45			; 0000002dH
  0004c	74 0f		 je	 SHORT $LN7@InsertComm
  0004e	6a 00		 push	 0
  00050	8d 4d fc	 lea	 ecx, DWORD PTR _str$[ebp]
  00053	ff 15 00 00 00
	00		 call	 DWORD PTR __imp_?GetAt@?$CSimpleStringT@D$00@ATL@@QBEDH@Z
  00059	3c 2b		 cmp	 al, 43			; 0000002bH
  0005b	75 44		 jne	 SHORT $LN6@InsertComm
$LN7@InsertComm:

; 841  : 			{
; 842  : 				strTemp1 = str.Left(1);

  0005d	6a 01		 push	 1
  0005f	8d 45 e8	 lea	 eax, DWORD PTR $T10[ebp]
  00062	50		 push	 eax
  00063	8d 4d fc	 lea	 ecx, DWORD PTR _str$[ebp]
  00066	ff 15 00 00 00
	00		 call	 DWORD PTR __imp_?Left@?$CStringT@DV?$StrTraitMFC_DLL@DV?$ChTraitsCRT@D@ATL@@@@@ATL@@QBE?AV12@H@Z
  0006c	50		 push	 eax
  0006d	8d 4d f0	 lea	 ecx, DWORD PTR _strTemp1$[ebp]
  00070	ff 15 00 00 00
	00		 call	 DWORD PTR __imp_??4?$CStringT@DV?$StrTraitMFC_DLL@DV?$ChTraitsCRT@D@ATL@@@@@ATL@@QAEAAV01@ABV01@@Z
  00076	8d 4d e8	 lea	 ecx, DWORD PTR $T10[ebp]
  00079	ff 15 00 00 00
	00		 call	 DWORD PTR __imp_??1?$CStringT@DV?$StrTraitMFC_DLL@DV?$ChTraitsCRT@D@ATL@@@@@ATL@@QAE@XZ

; 843  : 				str = str.Mid(1);// .

  0007f	6a 01		 push	 1
  00081	8d 45 e8	 lea	 eax, DWORD PTR $T9[ebp]
  00084	50		 push	 eax
  00085	8d 4d fc	 lea	 ecx, DWORD PTR _str$[ebp]
  00088	ff 15 00 00 00
	00		 call	 DWORD PTR __imp_?Mid@?$CStringT@DV?$StrTraitMFC_DLL@DV?$ChTraitsCRT@D@ATL@@@@@ATL@@QBE?AV12@H@Z
  0008e	50		 push	 eax
  0008f	8d 4d fc	 lea	 ecx, DWORD PTR _str$[ebp]
  00092	ff 15 00 00 00
	00		 call	 DWORD PTR __imp_??4?$CStringT@DV?$StrTraitMFC_DLL@DV?$ChTraitsCRT@D@ATL@@@@@ATL@@QAEAAV01@ABV01@@Z
  00098	8d 4d e8	 lea	 ecx, DWORD PTR $T9[ebp]
  0009b	ff 15 00 00 00
	00		 call	 DWORD PTR __imp_??1?$CStringT@DV?$StrTraitMFC_DLL@DV?$ChTraitsCRT@D@ATL@@@@@ATL@@QAE@XZ
$LN6@InsertComm:

; 844  : 			}
; 845  : 		}
; 846  : 
; 847  : 		int pos ;
; 848  : 		int x,y,i;
; 849  : 		//  .
; 850  : 		if((pos = str.Find(".")) != -1)

  000a1	53		 push	 ebx
  000a2	56		 push	 esi
  000a3	6a 00		 push	 0
  000a5	68 00 00 00 00	 push	 OFFSET ??_C@_01LFCBOECM@?4@
  000aa	8d 4d fc	 lea	 ecx, DWORD PTR _str$[ebp]
  000ad	ff 15 00 00 00
	00		 call	 DWORD PTR __imp_?Find@?$CStringT@DV?$StrTraitMFC_DLL@DV?$ChTraitsCRT@D@ATL@@@@@ATL@@QBEHPBDH@Z
  000b3	8b f0		 mov	 esi, eax
  000b5	83 fe ff	 cmp	 esi, -1
  000b8	74 42		 je	 SHORT $LN8@InsertComm

; 851  : 		{
; 852  : 			strTemp3 = str.Mid(pos);//    .

  000ba	56		 push	 esi
  000bb	8d 45 e8	 lea	 eax, DWORD PTR $T8[ebp]
  000be	50		 push	 eax
  000bf	8d 4d fc	 lea	 ecx, DWORD PTR _str$[ebp]
  000c2	ff 15 00 00 00
	00		 call	 DWORD PTR __imp_?Mid@?$CStringT@DV?$StrTraitMFC_DLL@DV?$ChTraitsCRT@D@ATL@@@@@ATL@@QBE?AV12@H@Z
  000c8	50		 push	 eax
  000c9	8d 4d e4	 lea	 ecx, DWORD PTR _strTemp3$[ebp]
  000cc	ff 15 00 00 00
	00		 call	 DWORD PTR __imp_??4?$CStringT@DV?$StrTraitMFC_DLL@DV?$ChTraitsCRT@D@ATL@@@@@ATL@@QAEAAV01@ABV01@@Z
  000d2	8d 4d e8	 lea	 ecx, DWORD PTR $T8[ebp]
  000d5	ff 15 00 00 00
	00		 call	 DWORD PTR __imp_??1?$CStringT@DV?$StrTraitMFC_DLL@DV?$ChTraitsCRT@D@ATL@@@@@ATL@@QAE@XZ

; 853  : 			str = str.Left(pos);//    .

  000db	56		 push	 esi
  000dc	8d 45 e8	 lea	 eax, DWORD PTR $T7[ebp]
  000df	50		 push	 eax
  000e0	8d 4d fc	 lea	 ecx, DWORD PTR _str$[ebp]
  000e3	ff 15 00 00 00
	00		 call	 DWORD PTR __imp_?Left@?$CStringT@DV?$StrTraitMFC_DLL@DV?$ChTraitsCRT@D@ATL@@@@@ATL@@QBE?AV12@H@Z
  000e9	50		 push	 eax
  000ea	8d 4d fc	 lea	 ecx, DWORD PTR _str$[ebp]
  000ed	ff 15 00 00 00
	00		 call	 DWORD PTR __imp_??4?$CStringT@DV?$StrTraitMFC_DLL@DV?$ChTraitsCRT@D@ATL@@@@@ATL@@QAEAAV01@ABV01@@Z
  000f3	8d 4d e8	 lea	 ecx, DWORD PTR $T7[ebp]
  000f6	ff 15 00 00 00
	00		 call	 DWORD PTR __imp_??1?$CStringT@DV?$StrTraitMFC_DLL@DV?$ChTraitsCRT@D@ATL@@@@@ATL@@QAE@XZ
$LN8@InsertComm:
; File C:\Program Files (x86)\Microsoft Visual Studio\2019\Community\VC\Tools\MSVC\14.29.30133\atlmfc\include\atlsimpstr.h

; 519  : 		return( GetData()->nDataLength );

  000fc	8b 45 fc	 mov	 eax, DWORD PTR _str$[ebp]
  000ff	8b 70 f4	 mov	 esi, DWORD PTR [eax-12]
; File D:\git\src\IBK\IBK_DRFN\ProjSrc\SrcDrfn\DrCommon\PcTrMng\_DataUtilManager.cpp

; 860  : 		if((x = nLength / 3) > 0)//->x

  00102	b8 56 55 55 55	 mov	 eax, 1431655766		; 55555556H
  00107	f7 ee		 imul	 esi
; File C:\Program Files (x86)\Microsoft Visual Studio\2019\Community\VC\Tools\MSVC\14.29.30133\atlmfc\include\atlsimpstr.h

; 519  : 		return( GetData()->nDataLength );

  00109	89 75 d0	 mov	 DWORD PTR _nLength$1$[ebp], esi
; File D:\git\src\IBK\IBK_DRFN\ProjSrc\SrcDrfn\DrCommon\PcTrMng\_DataUtilManager.cpp

; 860  : 		if((x = nLength / 3) > 0)//->x

  0010c	8b da		 mov	 ebx, edx
  0010e	c1 eb 1f	 shr	 ebx, 31			; 0000001fH
  00111	03 da		 add	 ebx, edx
  00113	85 db		 test	 ebx, ebx
  00115	0f 8e 10 02 00
	00		 jle	 $LN9@InsertComm

; 861  : 		{
; 862  : 			if((y = nLength % 3) > 0) //    .

  0011b	8d 04 5b	 lea	 eax, DWORD PTR [ebx+ebx*2]
  0011e	8b ce		 mov	 ecx, esi
  00120	2b c8		 sub	 ecx, eax
  00122	85 c9		 test	 ecx, ecx
  00124	7f 10		 jg	 SHORT $LN108@InsertComm

; 863  : 				max = x;
; 864  : 			else if(y == 0)

  00126	75 03		 jne	 SHORT $LN107@InsertComm

; 865  : 				max = x-1;

  00128	4b		 dec	 ebx
  00129	eb 03		 jmp	 SHORT $LN12@InsertComm
$LN107@InsertComm:

; 863  : 				max = x;
; 864  : 			else if(y == 0)

  0012b	8b 5d 0c	 mov	 ebx, DWORD PTR _max$[ebp]
$LN12@InsertComm:

; 866  : 			
; 867  : 			for(i = 0 ; i < max ; i++)//   .

  0012e	85 db		 test	 ebx, ebx
  00130	0f 8e 7a 01 00
	00		 jle	 $LN3@InsertComm
$LN108@InsertComm:
  00136	57		 push	 edi
$LL106@InsertComm:

; 868  : 			{
; 869  : 				if((pos = str.Find(','))== -1)//   .

  00137	6a 00		 push	 0
  00139	6a 2c		 push	 44			; 0000002cH
  0013b	8d 4d fc	 lea	 ecx, DWORD PTR _str$[ebp]
  0013e	ff 15 00 00 00
	00		 call	 DWORD PTR __imp_?Find@?$CStringT@DV?$StrTraitMFC_DLL@DV?$ChTraitsCRT@D@ATL@@@@@ATL@@QBEHDH@Z
  00144	8d 4d fc	 lea	 ecx, DWORD PTR _str$[ebp]
  00147	83 f8 ff	 cmp	 eax, -1
  0014a	0f 85 a9 00 00
	00		 jne	 $LN13@InsertComm

; 871  : 					str = str.Left(nLength-3)+","+str.Mid(nLength-3);					

  00150	8d 7e fd	 lea	 edi, DWORD PTR [esi-3]
  00153	57		 push	 edi
  00154	8d 45 e0	 lea	 eax, DWORD PTR $T4[ebp]
  00157	50		 push	 eax
  00158	ff 15 00 00 00
	00		 call	 DWORD PTR __imp_?Left@?$CStringT@DV?$StrTraitMFC_DLL@DV?$ChTraitsCRT@D@ATL@@@@@ATL@@QBE?AV12@H@Z
  0015e	8b f0		 mov	 esi, eax
; File C:\Program Files (x86)\Microsoft Visual Studio\2019\Community\VC\Tools\MSVC\14.29.30133\atlmfc\include\cstringt.h

; 2401 : 		CStringT strResult( str1.GetManager() );

  00160	8b ce		 mov	 ecx, esi
  00162	ff 15 00 00 00
	00		 call	 DWORD PTR __imp_?GetManager@?$CStringT@DV?$StrTraitMFC_DLL@DV?$ChTraitsCRT@D@ATL@@@@@ATL@@QBEPAUIAtlStringMgr@2@XZ
  00168	50		 push	 eax
  00169	8d 4d f8	 lea	 ecx, DWORD PTR $T14[ebp]
  0016c	ff 15 00 00 00
	00		 call	 DWORD PTR __imp_??0?$CStringT@DV?$StrTraitMFC_DLL@DV?$ChTraitsCRT@D@ATL@@@@@ATL@@QAE@PAUIAtlStringMgr@1@@Z
; File C:\Program Files (x86)\Microsoft Visual Studio\2019\Community\VC\Tools\MSVC\14.29.30133\atlmfc\include\atlsimpstr.h

; 519  : 		return( GetData()->nDataLength );

  00172	8b 06		 mov	 eax, DWORD PTR [esi]
; File C:\Program Files (x86)\Microsoft Visual Studio\2019\Community\VC\Tools\MSVC\14.29.30133\atlmfc\include\cstringt.h

; 2403 : 		CThisSimpleString::Concatenate( strResult, str1, str1.GetLength(), psz2, CThisSimpleString::StringLength( psz2 ) );

  00174	6a 01		 push	 1
  00176	68 00 00 00 00	 push	 OFFSET ??_C@_01IHBHIGKO@?0@
  0017b	ff 70 f4	 push	 DWORD PTR [eax-12]
  0017e	50		 push	 eax
  0017f	8d 45 f8	 lea	 eax, DWORD PTR $T14[ebp]
  00182	50		 push	 eax
  00183	ff 15 00 00 00
	00		 call	 DWORD PTR __imp_?Concatenate@?$CSimpleStringT@D$00@ATL@@KAXAAV12@PBDH1H@Z
  00189	83 c4 14	 add	 esp, 20			; 00000014H
; File D:\git\src\IBK\IBK_DRFN\ProjSrc\SrcDrfn\DrCommon\PcTrMng\_DataUtilManager.cpp

; 871  : 					str = str.Left(nLength-3)+","+str.Mid(nLength-3);					

  0018c	8d 45 dc	 lea	 eax, DWORD PTR $T3[ebp]
  0018f	8d 4d fc	 lea	 ecx, DWORD PTR _str$[ebp]
  00192	57		 push	 edi
  00193	50		 push	 eax
  00194	ff 15 00 00 00
	00		 call	 DWORD PTR __imp_?Mid@?$CStringT@DV?$StrTraitMFC_DLL@DV?$ChTraitsCRT@D@ATL@@@@@ATL@@QBE?AV12@H@Z
; File C:\Program Files (x86)\Microsoft Visual Studio\2019\Community\VC\Tools\MSVC\14.29.30133\atlmfc\include\cstringt.h

; 2390 : 		CStringT strResult( str1.GetManager() );

  0019a	8d 4d f8	 lea	 ecx, DWORD PTR $T14[ebp]
; File D:\git\src\IBK\IBK_DRFN\ProjSrc\SrcDrfn\DrCommon\PcTrMng\_DataUtilManager.cpp

; 871  : 					str = str.Left(nLength-3)+","+str.Mid(nLength-3);					

  0019d	8b f0		 mov	 esi, eax
; File C:\Program Files (x86)\Microsoft Visual Studio\2019\Community\VC\Tools\MSVC\14.29.30133\atlmfc\include\cstringt.h

; 2390 : 		CStringT strResult( str1.GetManager() );

  0019f	ff 15 00 00 00
	00		 call	 DWORD PTR __imp_?GetManager@?$CStringT@DV?$StrTraitMFC_DLL@DV?$ChTraitsCRT@D@ATL@@@@@ATL@@QBEPAUIAtlStringMgr@2@XZ
  001a5	50		 push	 eax
  001a6	8d 4d ec	 lea	 ecx, DWORD PTR $T11[ebp]
  001a9	ff 15 00 00 00
	00		 call	 DWORD PTR __imp_??0?$CStringT@DV?$StrTraitMFC_DLL@DV?$ChTraitsCRT@D@ATL@@@@@ATL@@QAE@PAUIAtlStringMgr@1@@Z
; File C:\Program Files (x86)\Microsoft Visual Studio\2019\Community\VC\Tools\MSVC\14.29.30133\atlmfc\include\atlsimpstr.h

; 519  : 		return( GetData()->nDataLength );

  001af	8b 06		 mov	 eax, DWORD PTR [esi]
; File C:\Program Files (x86)\Microsoft Visual Studio\2019\Community\VC\Tools\MSVC\14.29.30133\atlmfc\include\cstringt.h

; 2392 : 		CThisSimpleString::Concatenate( strResult, str1, str1.GetLength(), str2, str2.GetLength() );

  001b1	ff 70 f4	 push	 DWORD PTR [eax-12]
  001b4	50		 push	 eax
  001b5	8b 45 f8	 mov	 eax, DWORD PTR $T14[ebp]
  001b8	ff 70 f4	 push	 DWORD PTR [eax-12]
  001bb	50		 push	 eax
  001bc	8d 45 ec	 lea	 eax, DWORD PTR $T11[ebp]
  001bf	50		 push	 eax
  001c0	ff 15 00 00 00
	00		 call	 DWORD PTR __imp_?Concatenate@?$CSimpleStringT@D$00@ATL@@KAXAAV12@PBDH1H@Z
  001c6	83 c4 14	 add	 esp, 20			; 00000014H
; File D:\git\src\IBK\IBK_DRFN\ProjSrc\SrcDrfn\DrCommon\PcTrMng\_DataUtilManager.cpp

; 871  : 					str = str.Left(nLength-3)+","+str.Mid(nLength-3);					

  001c9	8d 45 ec	 lea	 eax, DWORD PTR $T11[ebp]
  001cc	8d 4d fc	 lea	 ecx, DWORD PTR _str$[ebp]
  001cf	50		 push	 eax
  001d0	ff 15 00 00 00
	00		 call	 DWORD PTR __imp_??4?$CStringT@DV?$StrTraitMFC_DLL@DV?$ChTraitsCRT@D@ATL@@@@@ATL@@QAEAAV01@ABV01@@Z
  001d6	8d 4d ec	 lea	 ecx, DWORD PTR $T11[ebp]
  001d9	ff 15 00 00 00
	00		 call	 DWORD PTR __imp_??1?$CStringT@DV?$StrTraitMFC_DLL@DV?$ChTraitsCRT@D@ATL@@@@@ATL@@QAE@XZ
  001df	8d 4d f8	 lea	 ecx, DWORD PTR $T14[ebp]
  001e2	ff 15 00 00 00
	00		 call	 DWORD PTR __imp_??1?$CStringT@DV?$StrTraitMFC_DLL@DV?$ChTraitsCRT@D@ATL@@@@@ATL@@QAE@XZ
  001e8	8d 4d e0	 lea	 ecx, DWORD PTR $T4[ebp]
  001eb	ff 15 00 00 00
	00		 call	 DWORD PTR __imp_??1?$CStringT@DV?$StrTraitMFC_DLL@DV?$ChTraitsCRT@D@ATL@@@@@ATL@@QAE@XZ
  001f1	8d 4d dc	 lea	 ecx, DWORD PTR $T3[ebp]

; 872  : 				}

  001f4	e9 a4 00 00 00	 jmp	 $LN109@InsertComm
$LN13@InsertComm:

; 875  : 					str = str.Left(pos-3)+","+str.Mid(pos-3);					

  001f9	8d 78 fd	 lea	 edi, DWORD PTR [eax-3]
  001fc	57		 push	 edi
  001fd	8d 45 d8	 lea	 eax, DWORD PTR $T2[ebp]
  00200	50		 push	 eax
  00201	ff 15 00 00 00
	00		 call	 DWORD PTR __imp_?Left@?$CStringT@DV?$StrTraitMFC_DLL@DV?$ChTraitsCRT@D@ATL@@@@@ATL@@QBE?AV12@H@Z
  00207	8b f0		 mov	 esi, eax
; File C:\Program Files (x86)\Microsoft Visual Studio\2019\Community\VC\Tools\MSVC\14.29.30133\atlmfc\include\cstringt.h

; 2401 : 		CStringT strResult( str1.GetManager() );

  00209	8b ce		 mov	 ecx, esi
  0020b	ff 15 00 00 00
	00		 call	 DWORD PTR __imp_?GetManager@?$CStringT@DV?$StrTraitMFC_DLL@DV?$ChTraitsCRT@D@ATL@@@@@ATL@@QBEPAUIAtlStringMgr@2@XZ
  00211	50		 push	 eax
  00212	8d 4d f4	 lea	 ecx, DWORD PTR $T13[ebp]
  00215	ff 15 00 00 00
	00		 call	 DWORD PTR __imp_??0?$CStringT@DV?$StrTraitMFC_DLL@DV?$ChTraitsCRT@D@ATL@@@@@ATL@@QAE@PAUIAtlStringMgr@1@@Z
; File C:\Program Files (x86)\Microsoft Visual Studio\2019\Community\VC\Tools\MSVC\14.29.30133\atlmfc\include\atlsimpstr.h

; 519  : 		return( GetData()->nDataLength );

  0021b	8b 06		 mov	 eax, DWORD PTR [esi]
; File C:\Program Files (x86)\Microsoft Visual Studio\2019\Community\VC\Tools\MSVC\14.29.30133\atlmfc\include\cstringt.h

; 2403 : 		CThisSimpleString::Concatenate( strResult, str1, str1.GetLength(), psz2, CThisSimpleString::StringLength( psz2 ) );

  0021d	6a 01		 push	 1
  0021f	68 00 00 00 00	 push	 OFFSET ??_C@_01IHBHIGKO@?0@
  00224	ff 70 f4	 push	 DWORD PTR [eax-12]
  00227	50		 push	 eax
  00228	8d 45 f4	 lea	 eax, DWORD PTR $T13[ebp]
  0022b	50		 push	 eax
  0022c	ff 15 00 00 00
	00		 call	 DWORD PTR __imp_?Concatenate@?$CSimpleStringT@D$00@ATL@@KAXAAV12@PBDH1H@Z
  00232	83 c4 14	 add	 esp, 20			; 00000014H
; File D:\git\src\IBK\IBK_DRFN\ProjSrc\SrcDrfn\DrCommon\PcTrMng\_DataUtilManager.cpp

; 875  : 					str = str.Left(pos-3)+","+str.Mid(pos-3);					

  00235	8d 45 d4	 lea	 eax, DWORD PTR $T1[ebp]
  00238	8d 4d fc	 lea	 ecx, DWORD PTR _str$[ebp]
  0023b	57		 push	 edi
  0023c	50		 push	 eax
  0023d	ff 15 00 00 00
	00		 call	 DWORD PTR __imp_?Mid@?$CStringT@DV?$StrTraitMFC_DLL@DV?$ChTraitsCRT@D@ATL@@@@@ATL@@QBE?AV12@H@Z
; File C:\Program Files (x86)\Microsoft Visual Studio\2019\Community\VC\Tools\MSVC\14.29.30133\atlmfc\include\cstringt.h

; 2390 : 		CStringT strResult( str1.GetManager() );

  00243	8d 4d f4	 lea	 ecx, DWORD PTR $T13[ebp]
; File D:\git\src\IBK\IBK_DRFN\ProjSrc\SrcDrfn\DrCommon\PcTrMng\_DataUtilManager.cpp

; 875  : 					str = str.Left(pos-3)+","+str.Mid(pos-3);					

  00246	8b f0		 mov	 esi, eax
; File C:\Program Files (x86)\Microsoft Visual Studio\2019\Community\VC\Tools\MSVC\14.29.30133\atlmfc\include\cstringt.h

; 2390 : 		CStringT strResult( str1.GetManager() );

  00248	ff 15 00 00 00
	00		 call	 DWORD PTR __imp_?GetManager@?$CStringT@DV?$StrTraitMFC_DLL@DV?$ChTraitsCRT@D@ATL@@@@@ATL@@QBEPAUIAtlStringMgr@2@XZ
  0024e	50		 push	 eax
  0024f	8d 4d e8	 lea	 ecx, DWORD PTR $T6[ebp]
  00252	ff 15 00 00 00
	00		 call	 DWORD PTR __imp_??0?$CStringT@DV?$StrTraitMFC_DLL@DV?$ChTraitsCRT@D@ATL@@@@@ATL@@QAE@PAUIAtlStringMgr@1@@Z
; File C:\Program Files (x86)\Microsoft Visual Studio\2019\Community\VC\Tools\MSVC\14.29.30133\atlmfc\include\atlsimpstr.h

; 519  : 		return( GetData()->nDataLength );

  00258	8b 06		 mov	 eax, DWORD PTR [esi]
; File C:\Program Files (x86)\Microsoft Visual Studio\2019\Community\VC\Tools\MSVC\14.29.30133\atlmfc\include\cstringt.h

; 2392 : 		CThisSimpleString::Concatenate( strResult, str1, str1.GetLength(), str2, str2.GetLength() );

  0025a	ff 70 f4	 push	 DWORD PTR [eax-12]
  0025d	50		 push	 eax
  0025e	8b 45 f4	 mov	 eax, DWORD PTR $T13[ebp]
  00261	ff 70 f4	 push	 DWORD PTR [eax-12]
  00264	50		 push	 eax
  00265	8d 45 e8	 lea	 eax, DWORD PTR $T6[ebp]
  00268	50		 push	 eax
  00269	ff 15 00 00 00
	00		 call	 DWORD PTR __imp_?Concatenate@?$CSimpleStringT@D$00@ATL@@KAXAAV12@PBDH1H@Z
  0026f	83 c4 14	 add	 esp, 20			; 00000014H
; File D:\git\src\IBK\IBK_DRFN\ProjSrc\SrcDrfn\DrCommon\PcTrMng\_DataUtilManager.cpp

; 875  : 					str = str.Left(pos-3)+","+str.Mid(pos-3);					

  00272	8d 45 e8	 lea	 eax, DWORD PTR $T6[ebp]
  00275	8d 4d fc	 lea	 ecx, DWORD PTR _str$[ebp]
  00278	50		 push	 eax
  00279	ff 15 00 00 00
	00		 call	 DWORD PTR __imp_??4?$CStringT@DV?$StrTraitMFC_DLL@DV?$ChTraitsCRT@D@ATL@@@@@ATL@@QAEAAV01@ABV01@@Z
  0027f	8d 4d e8	 lea	 ecx, DWORD PTR $T6[ebp]
  00282	ff 15 00 00 00
	00		 call	 DWORD PTR __imp_??1?$CStringT@DV?$StrTraitMFC_DLL@DV?$ChTraitsCRT@D@ATL@@@@@ATL@@QAE@XZ
  00288	8d 4d f4	 lea	 ecx, DWORD PTR $T13[ebp]
  0028b	ff 15 00 00 00
	00		 call	 DWORD PTR __imp_??1?$CStringT@DV?$StrTraitMFC_DLL@DV?$ChTraitsCRT@D@ATL@@@@@ATL@@QAE@XZ
  00291	8d 4d d8	 lea	 ecx, DWORD PTR $T2[ebp]
  00294	ff 15 00 00 00
	00		 call	 DWORD PTR __imp_??1?$CStringT@DV?$StrTraitMFC_DLL@DV?$ChTraitsCRT@D@ATL@@@@@ATL@@QAE@XZ
  0029a	8d 4d d4	 lea	 ecx, DWORD PTR $T1[ebp]
$LN109@InsertComm:

; 866  : 			
; 867  : 			for(i = 0 ; i < max ; i++)//   .

  0029d	ff 15 00 00 00
	00		 call	 DWORD PTR __imp_??1?$CStringT@DV?$StrTraitMFC_DLL@DV?$ChTraitsCRT@D@ATL@@@@@ATL@@QAE@XZ
  002a3	8b 75 d0	 mov	 esi, DWORD PTR _nLength$1$[ebp]
  002a6	83 eb 01	 sub	 ebx, 1
  002a9	0f 85 88 fe ff
	ff		 jne	 $LL106@InsertComm
  002af	5f		 pop	 edi
$LN3@InsertComm:
; File C:\Program Files (x86)\Microsoft Visual Studio\2019\Community\VC\Tools\MSVC\14.29.30133\atlmfc\include\cstringt.h

; 2390 : 		CStringT strResult( str1.GetManager() );

  002b0	8d 4d f0	 lea	 ecx, DWORD PTR _strTemp1$[ebp]
  002b3	ff 15 00 00 00
	00		 call	 DWORD PTR __imp_?GetManager@?$CStringT@DV?$StrTraitMFC_DLL@DV?$ChTraitsCRT@D@ATL@@@@@ATL@@QBEPAUIAtlStringMgr@2@XZ
  002b9	50		 push	 eax
  002ba	8d 4d f4	 lea	 ecx, DWORD PTR $T12[ebp]
  002bd	ff 15 00 00 00
	00		 call	 DWORD PTR __imp_??0?$CStringT@DV?$StrTraitMFC_DLL@DV?$ChTraitsCRT@D@ATL@@@@@ATL@@QAE@PAUIAtlStringMgr@1@@Z

; 2392 : 		CThisSimpleString::Concatenate( strResult, str1, str1.GetLength(), str2, str2.GetLength() );

  002c3	8b 45 fc	 mov	 eax, DWORD PTR _str$[ebp]
  002c6	ff 70 f4	 push	 DWORD PTR [eax-12]
  002c9	50		 push	 eax
  002ca	8b 45 f0	 mov	 eax, DWORD PTR _strTemp1$[ebp]
  002cd	ff 70 f4	 push	 DWORD PTR [eax-12]
  002d0	50		 push	 eax
  002d1	8d 45 f4	 lea	 eax, DWORD PTR $T12[ebp]
  002d4	50		 push	 eax
  002d5	ff 15 00 00 00
	00		 call	 DWORD PTR __imp_?Concatenate@?$CSimpleStringT@D$00@ATL@@KAXAAV12@PBDH1H@Z
  002db	83 c4 14	 add	 esp, 20			; 00000014H

; 2390 : 		CStringT strResult( str1.GetManager() );

  002de	8d 4d f4	 lea	 ecx, DWORD PTR $T12[ebp]
  002e1	ff 15 00 00 00
	00		 call	 DWORD PTR __imp_?GetManager@?$CStringT@DV?$StrTraitMFC_DLL@DV?$ChTraitsCRT@D@ATL@@@@@ATL@@QBEPAUIAtlStringMgr@2@XZ
  002e7	50		 push	 eax
  002e8	8d 4d e8	 lea	 ecx, DWORD PTR $T5[ebp]
  002eb	ff 15 00 00 00
	00		 call	 DWORD PTR __imp_??0?$CStringT@DV?$StrTraitMFC_DLL@DV?$ChTraitsCRT@D@ATL@@@@@ATL@@QAE@PAUIAtlStringMgr@1@@Z

; 2392 : 		CThisSimpleString::Concatenate( strResult, str1, str1.GetLength(), str2, str2.GetLength() );

  002f1	8b 45 e4	 mov	 eax, DWORD PTR _strTemp3$[ebp]
  002f4	ff 70 f4	 push	 DWORD PTR [eax-12]
  002f7	50		 push	 eax
  002f8	8b 45 f4	 mov	 eax, DWORD PTR $T12[ebp]
  002fb	ff 70 f4	 push	 DWORD PTR [eax-12]
  002fe	50		 push	 eax
  002ff	8d 45 e8	 lea	 eax, DWORD PTR $T5[ebp]
  00302	50		 push	 eax
  00303	ff 15 00 00 00
	00		 call	 DWORD PTR __imp_?Concatenate@?$CSimpleStringT@D$00@ATL@@KAXAAV12@PBDH1H@Z
; File D:\git\src\IBK\IBK_DRFN\ProjSrc\SrcDrfn\DrCommon\PcTrMng\_DataUtilManager.cpp

; 878  : 			str1 = strTemp1 + str + strTemp3;		

  00309	8b 4d 0c	 mov	 ecx, DWORD PTR _str1$[ebp]
  0030c	8d 45 e8	 lea	 eax, DWORD PTR $T5[ebp]
; File C:\Program Files (x86)\Microsoft Visual Studio\2019\Community\VC\Tools\MSVC\14.29.30133\atlmfc\include\cstringt.h

; 2392 : 		CThisSimpleString::Concatenate( strResult, str1, str1.GetLength(), str2, str2.GetLength() );

  0030f	83 c4 14	 add	 esp, 20			; 00000014H
; File D:\git\src\IBK\IBK_DRFN\ProjSrc\SrcDrfn\DrCommon\PcTrMng\_DataUtilManager.cpp

; 878  : 			str1 = strTemp1 + str + strTemp3;		

  00312	50		 push	 eax
  00313	ff 15 00 00 00
	00		 call	 DWORD PTR __imp_??4?$CStringT@DV?$StrTraitMFC_DLL@DV?$ChTraitsCRT@D@ATL@@@@@ATL@@QAEAAV01@ABV01@@Z
  00319	8d 4d e8	 lea	 ecx, DWORD PTR $T5[ebp]
  0031c	ff 15 00 00 00
	00		 call	 DWORD PTR __imp_??1?$CStringT@DV?$StrTraitMFC_DLL@DV?$ChTraitsCRT@D@ATL@@@@@ATL@@QAE@XZ
  00322	8d 4d f4	 lea	 ecx, DWORD PTR $T12[ebp]
  00325	ff 15 00 00 00
	00		 call	 DWORD PTR __imp_??1?$CStringT@DV?$StrTraitMFC_DLL@DV?$ChTraitsCRT@D@ATL@@@@@ATL@@QAE@XZ
$LN9@InsertComm:

; 879  : 		}
; 880  : }

  0032b	8d 4d e4	 lea	 ecx, DWORD PTR _strTemp3$[ebp]
  0032e	ff 15 00 00 00
	00		 call	 DWORD PTR __imp_??1?$CStringT@DV?$StrTraitMFC_DLL@DV?$ChTraitsCRT@D@ATL@@@@@ATL@@QAE@XZ
  00334	8d 4d cc	 lea	 ecx, DWORD PTR _strTemp2$[ebp]
  00337	ff 15 00 00 00
	00		 call	 DWORD PTR __imp_??1?$CStringT@DV?$StrTraitMFC_DLL@DV?$ChTraitsCRT@D@ATL@@@@@ATL@@QAE@XZ
  0033d	8d 4d f0	 lea	 ecx, DWORD PTR _strTemp1$[ebp]
  00340	ff 15 00 00 00
	00		 call	 DWORD PTR __imp_??1?$CStringT@DV?$StrTraitMFC_DLL@DV?$ChTraitsCRT@D@ATL@@@@@ATL@@QAE@XZ
  00346	8d 4d fc	 lea	 ecx, DWORD PTR _str$[ebp]
  00349	ff 15 00 00 00
	00		 call	 DWORD PTR __imp_??1?$CStringT@DV?$StrTraitMFC_DLL@DV?$ChTraitsCRT@D@ATL@@@@@ATL@@QAE@XZ
  0034f	5e		 pop	 esi
  00350	5b		 pop	 ebx
  00351	8b e5		 mov	 esp, ebp
  00353	5d		 pop	 ebp
  00354	c2 08 00	 ret	 8
?InsertComma@CDataUtilManager@@UAGXAAV?$CStringT@DV?$StrTraitMFC_DLL@DV?$ChTraitsCRT@D@ATL@@@@@ATL@@@Z ENDP ; CDataUtilManager::InsertComma
_TEXT	ENDS
; Function compile flags: /Ogtp
; File D:\git\src\IBK\IBK_DRFN\ProjSrc\SrcDrfn\DrCommon\PcTrMng\_DataUtilManager.cpp
; File C:\Program Files (x86)\Microsoft Visual Studio\2019\Community\VC\Tools\MSVC\14.29.30133\atlmfc\include\atlsimpstr.h
; File D:\git\src\IBK\IBK_DRFN\ProjSrc\SrcDrfn\DrCommon\PcTrMng\_DataUtilManager.cpp
; File C:\Program Files (x86)\Microsoft Visual Studio\2019\Community\VC\Tools\MSVC\14.29.30133\atlmfc\include\atlsimpstr.h
; File D:\git\src\IBK\IBK_DRFN\ProjSrc\SrcDrfn\DrCommon\PcTrMng\_DataUtilManager.cpp
; File C:\Program Files (x86)\Microsoft Visual Studio\2019\Community\VC\Tools\MSVC\14.29.30133\atlmfc\include\cstringt.h
; File C:\Program Files (x86)\Microsoft Visual Studio\2019\Community\VC\Tools\MSVC\14.29.30133\atlmfc\include\atlsimpstr.h
; File C:\Program Files (x86)\Microsoft Visual Studio\2019\Community\VC\Tools\MSVC\14.29.30133\atlmfc\include\cstringt.h
; File D:\git\src\IBK\IBK_DRFN\ProjSrc\SrcDrfn\DrCommon\PcTrMng\_DataUtilManager.cpp
; File C:\Program Files (x86)\Microsoft Visual Studio\2019\Community\VC\Tools\MSVC\14.29.30133\atlmfc\include\cstringt.h
; File D:\git\src\IBK\IBK_DRFN\ProjSrc\SrcDrfn\DrCommon\PcTrMng\_DataUtilManager.cpp
; File C:\Program Files (x86)\Microsoft Visual Studio\2019\Community\VC\Tools\MSVC\14.29.30133\atlmfc\include\cstringt.h
; File C:\Program Files (x86)\Microsoft Visual Studio\2019\Community\VC\Tools\MSVC\14.29.30133\atlmfc\include\atlsimpstr.h
; File C:\Program Files (x86)\Microsoft Visual Studio\2019\Community\VC\Tools\MSVC\14.29.30133\atlmfc\include\cstringt.h
; File D:\git\src\IBK\IBK_DRFN\ProjSrc\SrcDrfn\DrCommon\PcTrMng\_DataUtilManager.cpp
; File C:\Program Files (x86)\Microsoft Visual Studio\2019\Community\VC\Tools\MSVC\14.29.30133\atlmfc\include\cstringt.h
; File D:\git\src\IBK\IBK_DRFN\ProjSrc\SrcDrfn\DrCommon\PcTrMng\_DataUtilManager.cpp
;	COMDAT ?ConvertPointToInt@CDataUtilManager@@UAG?AV?$CStringT@DV?$StrTraitMFC_DLL@DV?$ChTraitsCRT@D@ATL@@@@@ATL@@V23@H@Z
_TEXT	SEGMENT
_nDif$1$ = -20						; size = 4
$T1 = -20						; size = 4
$T2 = -16						; size = 4
$T3 = -16						; size = 4
$T4 = -12						; size = 4
_nSize$1$ = -8						; size = 4
$T5 = -4						; size = 4
$T6 = -4						; size = 4
$T7 = -4						; size = 4
_this$ = 8						; size = 4
___$ReturnUdt$ = 12					; size = 4
_strData$ = 16						; size = 4
$T8 = 20						; size = 4
_nPointPositoin$ = 20					; size = 4
?ConvertPointToInt@CDataUtilManager@@UAG?AV?$CStringT@DV?$StrTraitMFC_DLL@DV?$ChTraitsCRT@D@ATL@@@@@ATL@@V23@H@Z PROC ; CDataUtilManager::ConvertPointToInt, COMDAT

; 800  : {

  00000	55		 push	 ebp
  00001	8b ec		 mov	 ebp, esp
  00003	83 ec 14	 sub	 esp, 20			; 00000014H
; File C:\Program Files (x86)\Microsoft Visual Studio\2019\Community\VC\Tools\MSVC\14.29.30133\atlmfc\include\atlsimpstr.h

; 519  : 		return( GetData()->nDataLength );

  00006	8b 45 10	 mov	 eax, DWORD PTR _strData$[ebp]
; File D:\git\src\IBK\IBK_DRFN\ProjSrc\SrcDrfn\DrCommon\PcTrMng\_DataUtilManager.cpp

; 800  : {

  00009	53		 push	 ebx
  0000a	56		 push	 esi

; 803  : 	for(i=0 ; i < nSize ; i++)

  0000b	33 f6		 xor	 esi, esi
; File C:\Program Files (x86)\Microsoft Visual Studio\2019\Community\VC\Tools\MSVC\14.29.30133\atlmfc\include\atlsimpstr.h

; 519  : 		return( GetData()->nDataLength );

  0000d	8b 58 f4	 mov	 ebx, DWORD PTR [eax-12]
  00010	89 5d f8	 mov	 DWORD PTR _nSize$1$[ebp], ebx
; File D:\git\src\IBK\IBK_DRFN\ProjSrc\SrcDrfn\DrCommon\PcTrMng\_DataUtilManager.cpp

; 803  : 	for(i=0 ; i < nSize ; i++)

  00013	85 db		 test	 ebx, ebx
  00015	0f 8e 75 01 00
	00		 jle	 $LN13@ConvertPoi
  0001b	57		 push	 edi
  0001c	0f 1f 40 00	 npad	 4
$LL4@ConvertPoi:

; 804  : 	{
; 805  : 		if(strData.GetAt(i) == '.')

  00020	56		 push	 esi
  00021	8d 4d 10	 lea	 ecx, DWORD PTR _strData$[ebp]
  00024	8d 7e 01	 lea	 edi, DWORD PTR [esi+1]
  00027	ff 15 00 00 00
	00		 call	 DWORD PTR __imp_?GetAt@?$CSimpleStringT@D$00@ATL@@QBEDH@Z
  0002d	3c 2e		 cmp	 al, 46			; 0000002eH
  0002f	74 0b		 je	 SHORT $LN73@ConvertPoi

; 803  : 	for(i=0 ; i < nSize ; i++)

  00031	8b f7		 mov	 esi, edi
  00033	3b f3		 cmp	 esi, ebx
  00035	7c e9		 jl	 SHORT $LL4@ConvertPoi

; 804  : 	{
; 805  : 		if(strData.GetAt(i) == '.')

  00037	e9 53 01 00 00	 jmp	 $LN94@ConvertPoi
$LN73@ConvertPoi:

; 806  : 		{
; 807  : 			int nPointSize = (nSize-1) - i;
; 808  : 			if((nDif = nPointPositoin - nPointSize) >=0)

  0003c	8b 4d 14	 mov	 ecx, DWORD PTR _nPointPositoin$[ebp]
  0003f	8b c6		 mov	 eax, esi
  00041	2b c3		 sub	 eax, ebx
  00043	40		 inc	 eax
  00044	03 c1		 add	 eax, ecx
  00046	89 45 ec	 mov	 DWORD PTR _nDif$1$[ebp], eax
  00049	8d 45 f0	 lea	 eax, DWORD PTR $T3[ebp]
  0004c	0f 88 c9 00 00
	00		 js	 $LN12@ConvertPoi

; 810  : 				strData = strData.Left(i) + strData.Mid(i+1);

  00052	57		 push	 edi
  00053	50		 push	 eax
  00054	8d 4d 10	 lea	 ecx, DWORD PTR _strData$[ebp]
  00057	ff 15 00 00 00
	00		 call	 DWORD PTR __imp_?Mid@?$CStringT@DV?$StrTraitMFC_DLL@DV?$ChTraitsCRT@D@ATL@@@@@ATL@@QBE?AV12@H@Z
  0005d	8b d8		 mov	 ebx, eax
  0005f	8d 4d 10	 lea	 ecx, DWORD PTR _strData$[ebp]
  00062	56		 push	 esi
  00063	8d 45 f4	 lea	 eax, DWORD PTR $T4[ebp]
  00066	50		 push	 eax
  00067	ff 15 00 00 00
	00		 call	 DWORD PTR __imp_?Left@?$CStringT@DV?$StrTraitMFC_DLL@DV?$ChTraitsCRT@D@ATL@@@@@ATL@@QBE?AV12@H@Z
  0006d	8b f8		 mov	 edi, eax
; File C:\Program Files (x86)\Microsoft Visual Studio\2019\Community\VC\Tools\MSVC\14.29.30133\atlmfc\include\cstringt.h

; 2390 : 		CStringT strResult( str1.GetManager() );

  0006f	8b cf		 mov	 ecx, edi
  00071	ff 15 00 00 00
	00		 call	 DWORD PTR __imp_?GetManager@?$CStringT@DV?$StrTraitMFC_DLL@DV?$ChTraitsCRT@D@ATL@@@@@ATL@@QBEPAUIAtlStringMgr@2@XZ
  00077	50		 push	 eax
  00078	8d 4d fc	 lea	 ecx, DWORD PTR $T7[ebp]
  0007b	ff 15 00 00 00
	00		 call	 DWORD PTR __imp_??0?$CStringT@DV?$StrTraitMFC_DLL@DV?$ChTraitsCRT@D@ATL@@@@@ATL@@QAE@PAUIAtlStringMgr@1@@Z
; File C:\Program Files (x86)\Microsoft Visual Studio\2019\Community\VC\Tools\MSVC\14.29.30133\atlmfc\include\atlsimpstr.h

; 519  : 		return( GetData()->nDataLength );

  00081	8b 0b		 mov	 ecx, DWORD PTR [ebx]
  00083	8b 07		 mov	 eax, DWORD PTR [edi]
; File C:\Program Files (x86)\Microsoft Visual Studio\2019\Community\VC\Tools\MSVC\14.29.30133\atlmfc\include\cstringt.h

; 2392 : 		CThisSimpleString::Concatenate( strResult, str1, str1.GetLength(), str2, str2.GetLength() );

  00085	ff 71 f4	 push	 DWORD PTR [ecx-12]
  00088	51		 push	 ecx
  00089	ff 70 f4	 push	 DWORD PTR [eax-12]
  0008c	50		 push	 eax
  0008d	8d 45 fc	 lea	 eax, DWORD PTR $T7[ebp]
  00090	50		 push	 eax
  00091	ff 15 00 00 00
	00		 call	 DWORD PTR __imp_?Concatenate@?$CSimpleStringT@D$00@ATL@@KAXAAV12@PBDH1H@Z
  00097	83 c4 14	 add	 esp, 20			; 00000014H
; File D:\git\src\IBK\IBK_DRFN\ProjSrc\SrcDrfn\DrCommon\PcTrMng\_DataUtilManager.cpp

; 810  : 				strData = strData.Left(i) + strData.Mid(i+1);

  0009a	8d 45 fc	 lea	 eax, DWORD PTR $T7[ebp]
  0009d	8d 4d 10	 lea	 ecx, DWORD PTR _strData$[ebp]
  000a0	50		 push	 eax
  000a1	ff 15 00 00 00
	00		 call	 DWORD PTR __imp_??4?$CStringT@DV?$StrTraitMFC_DLL@DV?$ChTraitsCRT@D@ATL@@@@@ATL@@QAEAAV01@ABV01@@Z
  000a7	8d 4d fc	 lea	 ecx, DWORD PTR $T7[ebp]
  000aa	ff 15 00 00 00
	00		 call	 DWORD PTR __imp_??1?$CStringT@DV?$StrTraitMFC_DLL@DV?$ChTraitsCRT@D@ATL@@@@@ATL@@QAE@XZ
  000b0	8d 4d f4	 lea	 ecx, DWORD PTR $T4[ebp]
  000b3	ff 15 00 00 00
	00		 call	 DWORD PTR __imp_??1?$CStringT@DV?$StrTraitMFC_DLL@DV?$ChTraitsCRT@D@ATL@@@@@ATL@@QAE@XZ
  000b9	8d 4d f0	 lea	 ecx, DWORD PTR $T3[ebp]
  000bc	ff 15 00 00 00
	00		 call	 DWORD PTR __imp_??1?$CStringT@DV?$StrTraitMFC_DLL@DV?$ChTraitsCRT@D@ATL@@@@@ATL@@QAE@XZ

; 811  : 				for(j = 0 ; j < nDif ; j++)

  000c2	8b 5d ec	 mov	 ebx, DWORD PTR _nDif$1$[ebp]
  000c5	85 db		 test	 ebx, ebx
  000c7	0f 8e bf 00 00
	00		 jle	 $LN93@ConvertPoi
  000cd	0f 1f 00	 npad	 3
$LL77@ConvertPoi:
; File C:\Program Files (x86)\Microsoft Visual Studio\2019\Community\VC\Tools\MSVC\14.29.30133\atlmfc\include\cstringt.h

; 2401 : 		CStringT strResult( str1.GetManager() );

  000d0	8d 4d 10	 lea	 ecx, DWORD PTR _strData$[ebp]
  000d3	ff 15 00 00 00
	00		 call	 DWORD PTR __imp_?GetManager@?$CStringT@DV?$StrTraitMFC_DLL@DV?$ChTraitsCRT@D@ATL@@@@@ATL@@QBEPAUIAtlStringMgr@2@XZ
  000d9	50		 push	 eax
  000da	8d 4d fc	 lea	 ecx, DWORD PTR $T6[ebp]
  000dd	ff 15 00 00 00
	00		 call	 DWORD PTR __imp_??0?$CStringT@DV?$StrTraitMFC_DLL@DV?$ChTraitsCRT@D@ATL@@@@@ATL@@QAE@PAUIAtlStringMgr@1@@Z

; 2402 : 
; 2403 : 		CThisSimpleString::Concatenate( strResult, str1, str1.GetLength(), psz2, CThisSimpleString::StringLength( psz2 ) );

  000e3	8b 45 10	 mov	 eax, DWORD PTR _strData$[ebp]
  000e6	6a 01		 push	 1
  000e8	68 00 00 00 00	 push	 OFFSET ??_C@_01GBGANLPD@0@
  000ed	ff 70 f4	 push	 DWORD PTR [eax-12]
  000f0	50		 push	 eax
  000f1	8d 45 fc	 lea	 eax, DWORD PTR $T6[ebp]
  000f4	50		 push	 eax
  000f5	ff 15 00 00 00
	00		 call	 DWORD PTR __imp_?Concatenate@?$CSimpleStringT@D$00@ATL@@KAXAAV12@PBDH1H@Z
  000fb	83 c4 14	 add	 esp, 20			; 00000014H
; File D:\git\src\IBK\IBK_DRFN\ProjSrc\SrcDrfn\DrCommon\PcTrMng\_DataUtilManager.cpp

; 813  : 					strData = strData + "0";

  000fe	8d 45 fc	 lea	 eax, DWORD PTR $T6[ebp]
  00101	8d 4d 10	 lea	 ecx, DWORD PTR _strData$[ebp]
  00104	50		 push	 eax
  00105	ff 15 00 00 00
	00		 call	 DWORD PTR __imp_??4?$CStringT@DV?$StrTraitMFC_DLL@DV?$ChTraitsCRT@D@ATL@@@@@ATL@@QAEAAV01@ABV01@@Z
  0010b	8d 4d fc	 lea	 ecx, DWORD PTR $T6[ebp]
  0010e	ff 15 00 00 00
	00		 call	 DWORD PTR __imp_??1?$CStringT@DV?$StrTraitMFC_DLL@DV?$ChTraitsCRT@D@ATL@@@@@ATL@@QAE@XZ
  00114	83 eb 01	 sub	 ebx, 1
  00117	75 b7		 jne	 SHORT $LL77@ConvertPoi

; 814  : 				}
; 815  : 			}

  00119	eb 71		 jmp	 SHORT $LN93@ConvertPoi
$LN12@ConvertPoi:

; 818  : 				strData = strData.Left(i) + strData.Mid(i+1,nPointPositoin);

  0011b	51		 push	 ecx
  0011c	57		 push	 edi
  0011d	50		 push	 eax
  0011e	8d 4d 10	 lea	 ecx, DWORD PTR _strData$[ebp]
  00121	ff 15 00 00 00
	00		 call	 DWORD PTR __imp_?Mid@?$CStringT@DV?$StrTraitMFC_DLL@DV?$ChTraitsCRT@D@ATL@@@@@ATL@@QBE?AV12@HH@Z
  00127	8b d8		 mov	 ebx, eax
  00129	8d 4d 10	 lea	 ecx, DWORD PTR _strData$[ebp]
  0012c	56		 push	 esi
  0012d	8d 45 ec	 lea	 eax, DWORD PTR $T1[ebp]
  00130	50		 push	 eax
  00131	ff 15 00 00 00
	00		 call	 DWORD PTR __imp_?Left@?$CStringT@DV?$StrTraitMFC_DLL@DV?$ChTraitsCRT@D@ATL@@@@@ATL@@QBE?AV12@H@Z
  00137	8b f8		 mov	 edi, eax
; File C:\Program Files (x86)\Microsoft Visual Studio\2019\Community\VC\Tools\MSVC\14.29.30133\atlmfc\include\cstringt.h

; 2390 : 		CStringT strResult( str1.GetManager() );

  00139	8b cf		 mov	 ecx, edi
  0013b	ff 15 00 00 00
	00		 call	 DWORD PTR __imp_?GetManager@?$CStringT@DV?$StrTraitMFC_DLL@DV?$ChTraitsCRT@D@ATL@@@@@ATL@@QBEPAUIAtlStringMgr@2@XZ
  00141	50		 push	 eax
  00142	8d 4d fc	 lea	 ecx, DWORD PTR $T5[ebp]
  00145	ff 15 00 00 00
	00		 call	 DWORD PTR __imp_??0?$CStringT@DV?$StrTraitMFC_DLL@DV?$ChTraitsCRT@D@ATL@@@@@ATL@@QAE@PAUIAtlStringMgr@1@@Z
; File C:\Program Files (x86)\Microsoft Visual Studio\2019\Community\VC\Tools\MSVC\14.29.30133\atlmfc\include\atlsimpstr.h

; 519  : 		return( GetData()->nDataLength );

  0014b	8b 0b		 mov	 ecx, DWORD PTR [ebx]
  0014d	8b 07		 mov	 eax, DWORD PTR [edi]
; File C:\Program Files (x86)\Microsoft Visual Studio\2019\Community\VC\Tools\MSVC\14.29.30133\atlmfc\include\cstringt.h

; 2392 : 		CThisSimpleString::Concatenate( strResult, str1, str1.GetLength(), str2, str2.GetLength() );

  0014f	ff 71 f4	 push	 DWORD PTR [ecx-12]
  00152	51		 push	 ecx
  00153	ff 70 f4	 push	 DWORD PTR [eax-12]
  00156	50		 push	 eax
  00157	8d 45 fc	 lea	 eax, DWORD PTR $T5[ebp]
  0015a	50		 push	 eax
  0015b	ff 15 00 00 00
	00		 call	 DWORD PTR __imp_?Concatenate@?$CSimpleStringT@D$00@ATL@@KAXAAV12@PBDH1H@Z
  00161	83 c4 14	 add	 esp, 20			; 00000014H
; File D:\git\src\IBK\IBK_DRFN\ProjSrc\SrcDrfn\DrCommon\PcTrMng\_DataUtilManager.cpp

; 818  : 				strData = strData.Left(i) + strData.Mid(i+1,nPointPositoin);

  00164	8d 45 fc	 lea	 eax, DWORD PTR $T5[ebp]
  00167	8d 4d 10	 lea	 ecx, DWORD PTR _strData$[ebp]
  0016a	50		 push	 eax
  0016b	ff 15 00 00 00
	00		 call	 DWORD PTR __imp_??4?$CStringT@DV?$StrTraitMFC_DLL@DV?$ChTraitsCRT@D@ATL@@@@@ATL@@QAEAAV01@ABV01@@Z
  00171	8d 4d fc	 lea	 ecx, DWORD PTR $T5[ebp]
  00174	ff 15 00 00 00
	00		 call	 DWORD PTR __imp_??1?$CStringT@DV?$StrTraitMFC_DLL@DV?$ChTraitsCRT@D@ATL@@@@@ATL@@QAE@XZ
  0017a	8d 4d ec	 lea	 ecx, DWORD PTR $T1[ebp]
  0017d	ff 15 00 00 00
	00		 call	 DWORD PTR __imp_??1?$CStringT@DV?$StrTraitMFC_DLL@DV?$ChTraitsCRT@D@ATL@@@@@ATL@@QAE@XZ
  00183	8d 4d f0	 lea	 ecx, DWORD PTR $T2[ebp]
  00186	ff 15 00 00 00
	00		 call	 DWORD PTR __imp_??1?$CStringT@DV?$StrTraitMFC_DLL@DV?$ChTraitsCRT@D@ATL@@@@@ATL@@QAE@XZ
$LN93@ConvertPoi:

; 811  : 				for(j = 0 ; j < nDif ; j++)

  0018c	8b 5d f8	 mov	 ebx, DWORD PTR _nSize$1$[ebp]
$LN94@ConvertPoi:
  0018f	5f		 pop	 edi
$LN13@ConvertPoi:

; 819  : 			}
; 820  : 			break;
; 821  : 		}
; 822  : 	}
; 823  : 
; 824  : 	if(i==nSize)

  00190	3b f3		 cmp	 esi, ebx
  00192	75 55		 jne	 SHORT $LN82@ConvertPoi

; 825  : 	{
; 826  : 		for(i = 0 ;i < nPointPositoin ; i++)

  00194	8b 5d 14	 mov	 ebx, DWORD PTR _nPointPositoin$[ebp]
  00197	85 db		 test	 ebx, ebx
  00199	7e 4e		 jle	 SHORT $LN82@ConvertPoi
  0019b	0f 1f 44 00 00	 npad	 5
$LL78@ConvertPoi:
; File C:\Program Files (x86)\Microsoft Visual Studio\2019\Community\VC\Tools\MSVC\14.29.30133\atlmfc\include\cstringt.h

; 2401 : 		CStringT strResult( str1.GetManager() );

  001a0	8d 4d 10	 lea	 ecx, DWORD PTR _strData$[ebp]
  001a3	ff 15 00 00 00
	00		 call	 DWORD PTR __imp_?GetManager@?$CStringT@DV?$StrTraitMFC_DLL@DV?$ChTraitsCRT@D@ATL@@@@@ATL@@QBEPAUIAtlStringMgr@2@XZ
  001a9	50		 push	 eax
  001aa	8d 4d 14	 lea	 ecx, DWORD PTR $T8[ebp]
  001ad	ff 15 00 00 00
	00		 call	 DWORD PTR __imp_??0?$CStringT@DV?$StrTraitMFC_DLL@DV?$ChTraitsCRT@D@ATL@@@@@ATL@@QAE@PAUIAtlStringMgr@1@@Z

; 2402 : 
; 2403 : 		CThisSimpleString::Concatenate( strResult, str1, str1.GetLength(), psz2, CThisSimpleString::StringLength( psz2 ) );

  001b3	8b 45 10	 mov	 eax, DWORD PTR _strData$[ebp]
  001b6	6a 01		 push	 1
  001b8	68 00 00 00 00	 push	 OFFSET ??_C@_01GBGANLPD@0@
  001bd	ff 70 f4	 push	 DWORD PTR [eax-12]
  001c0	50		 push	 eax
  001c1	8d 45 14	 lea	 eax, DWORD PTR $T8[ebp]
  001c4	50		 push	 eax
  001c5	ff 15 00 00 00
	00		 call	 DWORD PTR __imp_?Concatenate@?$CSimpleStringT@D$00@ATL@@KAXAAV12@PBDH1H@Z
  001cb	83 c4 14	 add	 esp, 20			; 00000014H
; File D:\git\src\IBK\IBK_DRFN\ProjSrc\SrcDrfn\DrCommon\PcTrMng\_DataUtilManager.cpp

; 827  : 		strData = strData + "0";

  001ce	8d 45 14	 lea	 eax, DWORD PTR $T8[ebp]
  001d1	8d 4d 10	 lea	 ecx, DWORD PTR _strData$[ebp]
  001d4	50		 push	 eax
  001d5	ff 15 00 00 00
	00		 call	 DWORD PTR __imp_??4?$CStringT@DV?$StrTraitMFC_DLL@DV?$ChTraitsCRT@D@ATL@@@@@ATL@@QAEAAV01@ABV01@@Z
  001db	8d 4d 14	 lea	 ecx, DWORD PTR $T8[ebp]
  001de	ff 15 00 00 00
	00		 call	 DWORD PTR __imp_??1?$CStringT@DV?$StrTraitMFC_DLL@DV?$ChTraitsCRT@D@ATL@@@@@ATL@@QAE@XZ
  001e4	83 eb 01	 sub	 ebx, 1
  001e7	75 b7		 jne	 SHORT $LL78@ConvertPoi
$LN82@ConvertPoi:

; 828  : 	}
; 829  : 	
; 830  : 	return strData;

  001e9	8b 4d 0c	 mov	 ecx, DWORD PTR ___$ReturnUdt$[ebp]
  001ec	8d 45 10	 lea	 eax, DWORD PTR _strData$[ebp]
  001ef	50		 push	 eax
  001f0	ff 15 00 00 00
	00		 call	 DWORD PTR __imp_??0?$CStringT@DV?$StrTraitMFC_DLL@DV?$ChTraitsCRT@D@ATL@@@@@ATL@@QAE@ABV01@@Z
  001f6	8d 4d 10	 lea	 ecx, DWORD PTR _strData$[ebp]
  001f9	ff 15 00 00 00
	00		 call	 DWORD PTR __imp_??1?$CStringT@DV?$StrTraitMFC_DLL@DV?$ChTraitsCRT@D@ATL@@@@@ATL@@QAE@XZ
  001ff	8b 45 0c	 mov	 eax, DWORD PTR ___$ReturnUdt$[ebp]
  00202	5e		 pop	 esi
  00203	5b		 pop	 ebx

; 831  : }

  00204	8b e5		 mov	 esp, ebp
  00206	5d		 pop	 ebp
  00207	c2 10 00	 ret	 16			; 00000010H
?ConvertPointToInt@CDataUtilManager@@UAG?AV?$CStringT@DV?$StrTraitMFC_DLL@DV?$ChTraitsCRT@D@ATL@@@@@ATL@@V23@H@Z ENDP ; CDataUtilManager::ConvertPointToInt
_TEXT	ENDS
; Function compile flags: /Ogtp
; File D:\git\src\IBK\IBK_DRFN\ProjSrc\SrcDrfn\DrCommon\PcTrMng\_DataUtilManager.cpp
; File C:\Program Files (x86)\Microsoft Visual Studio\2019\Community\VC\Tools\MSVC\14.29.30133\atlmfc\include\cstringt.h
; File D:\git\src\IBK\IBK_DRFN\ProjSrc\SrcDrfn\DrCommon\PcTrMng\_DataUtilManager.cpp
; File C:\Program Files (x86)\Microsoft Visual Studio\2019\Community\VC\Tools\MSVC\14.29.30133\atlmfc\include\cstringt.h
; File D:\git\src\IBK\IBK_DRFN\ProjSrc\SrcDrfn\DrCommon\PcTrMng\_DataUtilManager.cpp
; File C:\Program Files (x86)\Microsoft Visual Studio\2019\Community\VC\Tools\MSVC\14.29.30133\atlmfc\include\atlsimpstr.h
; File D:\git\src\IBK\IBK_DRFN\ProjSrc\SrcDrfn\DrCommon\PcTrMng\_DataUtilManager.cpp
; File C:\Program Files (x86)\Microsoft Visual Studio\2019\Community\VC\Tools\MSVC\14.29.30133\atlmfc\include\atlsimpstr.h
; File D:\git\src\IBK\IBK_DRFN\ProjSrc\SrcDrfn\DrCommon\PcTrMng\_DataUtilManager.cpp
; File C:\Program Files (x86)\Microsoft Visual Studio\2019\Community\VC\Tools\MSVC\14.29.30133\atlmfc\include\cstringt.h
; File D:\git\src\IBK\IBK_DRFN\ProjSrc\SrcDrfn\DrCommon\PcTrMng\_DataUtilManager.cpp
; File C:\Program Files (x86)\Microsoft Visual Studio\2019\Community\VC\Tools\MSVC\14.29.30133\atlmfc\include\cstringt.h
; File D:\git\src\IBK\IBK_DRFN\ProjSrc\SrcDrfn\DrCommon\PcTrMng\_DataUtilManager.cpp
; File C:\Program Files (x86)\Microsoft Visual Studio\2019\Community\VC\Tools\MSVC\14.29.30133\atlmfc\include\cstringt.h
; File D:\git\src\IBK\IBK_DRFN\ProjSrc\SrcDrfn\DrCommon\PcTrMng\_DataUtilManager.cpp
; File C:\Program Files (x86)\Microsoft Visual Studio\2019\Community\VC\Tools\MSVC\14.29.30133\atlmfc\include\cstringt.h
; File D:\git\src\IBK\IBK_DRFN\ProjSrc\SrcDrfn\DrCommon\PcTrMng\_DataUtilManager.cpp
; File C:\Program Files (x86)\Microsoft Visual Studio\2019\Community\VC\Tools\MSVC\14.29.30133\atlmfc\include\cstringt.h
; File D:\git\src\IBK\IBK_DRFN\ProjSrc\SrcDrfn\DrCommon\PcTrMng\_DataUtilManager.cpp
; File C:\Program Files (x86)\Microsoft Visual Studio\2019\Community\VC\Tools\MSVC\14.29.30133\atlmfc\include\cstringt.h
; File D:\git\src\IBK\IBK_DRFN\ProjSrc\SrcDrfn\DrCommon\PcTrMng\_DataUtilManager.cpp
; File C:\Program Files (x86)\Microsoft Visual Studio\2019\Community\VC\Tools\MSVC\14.29.30133\atlmfc\include\atlsimpstr.h
; File D:\git\src\IBK\IBK_DRFN\ProjSrc\SrcDrfn\DrCommon\PcTrMng\_DataUtilManager.cpp
; File C:\Program Files (x86)\Microsoft Visual Studio\2019\Community\VC\Tools\MSVC\14.29.30133\atlmfc\include\atlsimpstr.h
; File D:\git\src\IBK\IBK_DRFN\ProjSrc\SrcDrfn\DrCommon\PcTrMng\_DataUtilManager.cpp
; File C:\Program Files (x86)\Microsoft Visual Studio\2019\Community\VC\Tools\MSVC\14.29.30133\atlmfc\include\cstringt.h
; File D:\git\src\IBK\IBK_DRFN\ProjSrc\SrcDrfn\DrCommon\PcTrMng\_DataUtilManager.cpp
; File C:\Program Files (x86)\Microsoft Visual Studio\2019\Community\VC\Tools\MSVC\14.29.30133\atlmfc\include\cstringt.h
; File D:\git\src\IBK\IBK_DRFN\ProjSrc\SrcDrfn\DrCommon\PcTrMng\_DataUtilManager.cpp
; File C:\Program Files (x86)\Microsoft Visual Studio\2019\Community\VC\Tools\MSVC\14.29.30133\atlmfc\include\cstringt.h
; File D:\git\src\IBK\IBK_DRFN\ProjSrc\SrcDrfn\DrCommon\PcTrMng\_DataUtilManager.cpp
; File C:\Program Files (x86)\Microsoft Visual Studio\2019\Community\VC\Tools\MSVC\14.29.30133\atlmfc\include\cstringt.h
; File D:\git\src\IBK\IBK_DRFN\ProjSrc\SrcDrfn\DrCommon\PcTrMng\_DataUtilManager.cpp
; File C:\Program Files (x86)\Microsoft Visual Studio\2019\Community\VC\Tools\MSVC\14.29.30133\atlmfc\include\cstringt.h
; File D:\git\src\IBK\IBK_DRFN\ProjSrc\SrcDrfn\DrCommon\PcTrMng\_DataUtilManager.cpp
; File C:\Program Files (x86)\Microsoft Visual Studio\2019\Community\VC\Tools\MSVC\14.29.30133\atlmfc\include\cstringt.h
; File D:\git\src\IBK\IBK_DRFN\ProjSrc\SrcDrfn\DrCommon\PcTrMng\_DataUtilManager.cpp
; File C:\Program Files (x86)\Microsoft Visual Studio\2019\Community\VC\Tools\MSVC\14.29.30133\atlmfc\include\cstringt.h
; File D:\git\src\IBK\IBK_DRFN\ProjSrc\SrcDrfn\DrCommon\PcTrMng\_DataUtilManager.cpp
; File C:\Program Files (x86)\Microsoft Visual Studio\2019\Community\VC\Tools\MSVC\14.29.30133\atlmfc\include\cstringt.h
; File D:\git\src\IBK\IBK_DRFN\ProjSrc\SrcDrfn\DrCommon\PcTrMng\_DataUtilManager.cpp
; File C:\Program Files (x86)\Microsoft Visual Studio\2019\Community\VC\Tools\MSVC\14.29.30133\atlmfc\include\cstringt.h
; File D:\git\src\IBK\IBK_DRFN\ProjSrc\SrcDrfn\DrCommon\PcTrMng\_DataUtilManager.cpp
;	COMDAT ?ConvertIntToPoint@CDataUtilManager@@UAG?AV?$CStringT@DV?$StrTraitMFC_DLL@DV?$ChTraitsCRT@D@ATL@@@@@ATL@@V23@HH@Z
_TEXT	SEGMENT
$T1 = -8						; size = 4
$T2 = -8						; size = 4
$T3 = -4						; size = 4
$T4 = -4						; size = 4
$T5 = -4						; size = 4
_strAfter$6 = -4					; size = 4
$T7 = -4						; size = 4
$T8 = -4						; size = 4
$T9 = -4						; size = 4
_strAfter$10 = 8					; size = 4
$T11 = 8						; size = 4
_strAfter$12 = 8					; size = 4
_this$ = 8						; size = 4
___$ReturnUdt$ = 12					; size = 4
_strData$ = 16						; size = 4
$T13 = 20						; size = 4
$T14 = 20						; size = 4
$T15 = 20						; size = 4
$T16 = 20						; size = 4
$T17 = 20						; size = 4
_strBefore$18 = 20					; size = 4
_strBefore$19 = 20					; size = 4
_nPointPosition$ = 20					; size = 4
_strBefore$20 = 24					; size = 4
_strBefore$21 = 24					; size = 4
$T22 = 24						; size = 4
$T23 = 24						; size = 4
$T24 = 24						; size = 4
$T25 = 24						; size = 4
$T26 = 24						; size = 4
$T27 = 24						; size = 4
$T28 = 24						; size = 4
_nPointCurPosition$ = 24				; size = 4
?ConvertIntToPoint@CDataUtilManager@@UAG?AV?$CStringT@DV?$StrTraitMFC_DLL@DV?$ChTraitsCRT@D@ATL@@@@@ATL@@V23@HH@Z PROC ; CDataUtilManager::ConvertIntToPoint, COMDAT

; 734  : {

  00000	55		 push	 ebp
  00001	8b ec		 mov	 ebp, esp

; 735  : 	int i;
; 736  : 	CString strResult;

  00003	8b 4d 0c	 mov	 ecx, DWORD PTR ___$ReturnUdt$[ebp]
  00006	83 ec 08	 sub	 esp, 8
  00009	53		 push	 ebx
  0000a	56		 push	 esi
  0000b	57		 push	 edi
  0000c	ff 15 00 00 00
	00		 call	 DWORD PTR __imp_??0?$CStringT@DV?$StrTraitMFC_DLL@DV?$ChTraitsCRT@D@ATL@@@@@ATL@@QAE@XZ

; 737  : 	BOOL bMinus = FALSE;
; 738  : 	strData.Remove(',');

  00012	6a 2c		 push	 44			; 0000002cH
  00014	8d 4d 10	 lea	 ecx, DWORD PTR _strData$[ebp]
  00017	33 db		 xor	 ebx, ebx
  00019	ff 15 00 00 00
	00		 call	 DWORD PTR __imp_?Remove@?$CStringT@DV?$StrTraitMFC_DLL@DV?$ChTraitsCRT@D@ATL@@@@@ATL@@QAEHD@Z

; 739  : 	strData.TrimLeft();

  0001f	8d 4d 10	 lea	 ecx, DWORD PTR _strData$[ebp]
  00022	ff 15 00 00 00
	00		 call	 DWORD PTR __imp_?TrimLeft@?$CStringT@DV?$StrTraitMFC_DLL@DV?$ChTraitsCRT@D@ATL@@@@@ATL@@QAEAAV12@XZ

; 740  : 	strData.TrimRight();

  00028	8d 4d 10	 lea	 ecx, DWORD PTR _strData$[ebp]
  0002b	ff 15 00 00 00
	00		 call	 DWORD PTR __imp_?TrimRight@?$CStringT@DV?$StrTraitMFC_DLL@DV?$ChTraitsCRT@D@ATL@@@@@ATL@@QAEAAV12@XZ

; 742  : 	if(strData.Left(1) == "-")

  00031	6a 01		 push	 1
  00033	8d 45 fc	 lea	 eax, DWORD PTR $T9[ebp]
  00036	50		 push	 eax
  00037	8d 4d 10	 lea	 ecx, DWORD PTR _strData$[ebp]
  0003a	ff 15 00 00 00
	00		 call	 DWORD PTR __imp_?Left@?$CStringT@DV?$StrTraitMFC_DLL@DV?$ChTraitsCRT@D@ATL@@@@@ATL@@QBE?AV12@H@Z
; File C:\Program Files (x86)\Microsoft Visual Studio\2019\Community\VC\Tools\MSVC\14.29.30133\atlmfc\include\cstringt.h

; 2486 : 		return(str1.Compare(psz2) == 0);

  00040	68 00 00 00 00	 push	 OFFSET ??_C@_01JOAMLHOP@?9@
  00045	8b c8		 mov	 ecx, eax
  00047	ff 15 00 00 00
	00		 call	 DWORD PTR __imp_?Compare@?$CStringT@DV?$StrTraitMFC_DLL@DV?$ChTraitsCRT@D@ATL@@@@@ATL@@QBEHPBD@Z
; File D:\git\src\IBK\IBK_DRFN\ProjSrc\SrcDrfn\DrCommon\PcTrMng\_DataUtilManager.cpp

; 742  : 	if(strData.Left(1) == "-")

  0004d	8d 4d fc	 lea	 ecx, DWORD PTR $T9[ebp]
; File C:\Program Files (x86)\Microsoft Visual Studio\2019\Community\VC\Tools\MSVC\14.29.30133\atlmfc\include\cstringt.h

; 2486 : 		return(str1.Compare(psz2) == 0);

  00050	8b f0		 mov	 esi, eax
; File D:\git\src\IBK\IBK_DRFN\ProjSrc\SrcDrfn\DrCommon\PcTrMng\_DataUtilManager.cpp

; 742  : 	if(strData.Left(1) == "-")

  00052	ff 15 00 00 00
	00		 call	 DWORD PTR __imp_??1?$CStringT@DV?$StrTraitMFC_DLL@DV?$ChTraitsCRT@D@ATL@@@@@ATL@@QAE@XZ
  00058	85 f6		 test	 esi, esi
  0005a	75 24		 jne	 SHORT $LN14@ConvertInt

; 743  : 	{
; 744  : 		bMinus = TRUE;

  0005c	8d 5e 01	 lea	 ebx, DWORD PTR [esi+1]

; 745  : 		strData = strData.Mid(1);

  0005f	53		 push	 ebx
  00060	8d 45 fc	 lea	 eax, DWORD PTR $T8[ebp]
  00063	50		 push	 eax
  00064	8d 4d 10	 lea	 ecx, DWORD PTR _strData$[ebp]
  00067	ff 15 00 00 00
	00		 call	 DWORD PTR __imp_?Mid@?$CStringT@DV?$StrTraitMFC_DLL@DV?$ChTraitsCRT@D@ATL@@@@@ATL@@QBE?AV12@H@Z
  0006d	50		 push	 eax
  0006e	8d 4d 10	 lea	 ecx, DWORD PTR _strData$[ebp]
  00071	ff 15 00 00 00
	00		 call	 DWORD PTR __imp_??4?$CStringT@DV?$StrTraitMFC_DLL@DV?$ChTraitsCRT@D@ATL@@@@@ATL@@QAEAAV01@ABV01@@Z
  00077	8d 4d fc	 lea	 ecx, DWORD PTR $T8[ebp]
  0007a	ff 15 00 00 00
	00		 call	 DWORD PTR __imp_??1?$CStringT@DV?$StrTraitMFC_DLL@DV?$ChTraitsCRT@D@ATL@@@@@ATL@@QAE@XZ
$LN14@ConvertInt:

; 746  : 	}	
; 747  : 
; 748  : 	if(nPointCurPosition == -1)

  00080	8b 45 10	 mov	 eax, DWORD PTR _strData$[ebp]
  00083	8b 7d 18	 mov	 edi, DWORD PTR _nPointCurPosition$[ebp]
  00086	8b 40 f4	 mov	 eax, DWORD PTR [eax-12]
  00089	83 ff ff	 cmp	 edi, -1
  0008c	0f 85 0d 02 00
	00		 jne	 $LN15@ConvertInt

; 749  : 	{
; 750  : 		if(strData.GetLength() > nPointPosition)

  00092	8b 75 14	 mov	 esi, DWORD PTR _nPointPosition$[ebp]
  00095	8d 4d 14	 lea	 ecx, DWORD PTR _strBefore$19[ebp]
  00098	3b c6		 cmp	 eax, esi
  0009a	0f 8e 0f 01 00
	00		 jle	 $LN17@ConvertInt

; 751  : 		{
; 752  : 			CString strBefore , strAfter;

  000a0	ff 15 00 00 00
	00		 call	 DWORD PTR __imp_??0?$CStringT@DV?$StrTraitMFC_DLL@DV?$ChTraitsCRT@D@ATL@@@@@ATL@@QAE@XZ
  000a6	8d 4d 08	 lea	 ecx, DWORD PTR _strAfter$12[ebp]
  000a9	ff 15 00 00 00
	00		 call	 DWORD PTR __imp_??0?$CStringT@DV?$StrTraitMFC_DLL@DV?$ChTraitsCRT@D@ATL@@@@@ATL@@QAE@XZ
; File C:\Program Files (x86)\Microsoft Visual Studio\2019\Community\VC\Tools\MSVC\14.29.30133\atlmfc\include\atlsimpstr.h

; 519  : 		return( GetData()->nDataLength );

  000af	8b 45 10	 mov	 eax, DWORD PTR _strData$[ebp]
; File D:\git\src\IBK\IBK_DRFN\ProjSrc\SrcDrfn\DrCommon\PcTrMng\_DataUtilManager.cpp

; 753  : 			strBefore = strData.Left(strData.GetLength() - nPointPosition);

  000b2	8d 4d 10	 lea	 ecx, DWORD PTR _strData$[ebp]
; File C:\Program Files (x86)\Microsoft Visual Studio\2019\Community\VC\Tools\MSVC\14.29.30133\atlmfc\include\atlsimpstr.h

; 519  : 		return( GetData()->nDataLength );

  000b5	8b 40 f4	 mov	 eax, DWORD PTR [eax-12]
; File D:\git\src\IBK\IBK_DRFN\ProjSrc\SrcDrfn\DrCommon\PcTrMng\_DataUtilManager.cpp

; 753  : 			strBefore = strData.Left(strData.GetLength() - nPointPosition);

  000b8	2b c6		 sub	 eax, esi
  000ba	50		 push	 eax
  000bb	8d 45 18	 lea	 eax, DWORD PTR $T28[ebp]
  000be	50		 push	 eax
  000bf	ff 15 00 00 00
	00		 call	 DWORD PTR __imp_?Left@?$CStringT@DV?$StrTraitMFC_DLL@DV?$ChTraitsCRT@D@ATL@@@@@ATL@@QBE?AV12@H@Z
  000c5	50		 push	 eax
  000c6	8d 4d 14	 lea	 ecx, DWORD PTR _strBefore$19[ebp]
  000c9	ff 15 00 00 00
	00		 call	 DWORD PTR __imp_??4?$CStringT@DV?$StrTraitMFC_DLL@DV?$ChTraitsCRT@D@ATL@@@@@ATL@@QAEAAV01@ABV01@@Z
  000cf	8d 4d 18	 lea	 ecx, DWORD PTR $T28[ebp]
  000d2	ff 15 00 00 00
	00		 call	 DWORD PTR __imp_??1?$CStringT@DV?$StrTraitMFC_DLL@DV?$ChTraitsCRT@D@ATL@@@@@ATL@@QAE@XZ

; 754  : 			strAfter  = strData.Right(nPointPosition);

  000d8	56		 push	 esi
  000d9	8d 45 18	 lea	 eax, DWORD PTR $T27[ebp]
  000dc	50		 push	 eax
  000dd	8d 4d 10	 lea	 ecx, DWORD PTR _strData$[ebp]
  000e0	ff 15 00 00 00
	00		 call	 DWORD PTR __imp_?Right@?$CStringT@DV?$StrTraitMFC_DLL@DV?$ChTraitsCRT@D@ATL@@@@@ATL@@QBE?AV12@H@Z
  000e6	50		 push	 eax
  000e7	8d 4d 08	 lea	 ecx, DWORD PTR _strAfter$12[ebp]
  000ea	ff 15 00 00 00
	00		 call	 DWORD PTR __imp_??4?$CStringT@DV?$StrTraitMFC_DLL@DV?$ChTraitsCRT@D@ATL@@@@@ATL@@QAEAAV01@ABV01@@Z
  000f0	8d 4d 18	 lea	 ecx, DWORD PTR $T27[ebp]
  000f3	ff 15 00 00 00
	00		 call	 DWORD PTR __imp_??1?$CStringT@DV?$StrTraitMFC_DLL@DV?$ChTraitsCRT@D@ATL@@@@@ATL@@QAE@XZ

; 756  : 			if(bMinus) strBefore = "-" + strBefore;

  000f9	85 db		 test	 ebx, ebx
  000fb	74 44		 je	 SHORT $LN19@ConvertInt
; File C:\Program Files (x86)\Microsoft Visual Studio\2019\Community\VC\Tools\MSVC\14.29.30133\atlmfc\include\cstringt.h

; 2412 : 		CStringT strResult( str2.GetManager() );

  000fd	8d 4d 14	 lea	 ecx, DWORD PTR _strBefore$19[ebp]
  00100	ff 15 00 00 00
	00		 call	 DWORD PTR __imp_?GetManager@?$CStringT@DV?$StrTraitMFC_DLL@DV?$ChTraitsCRT@D@ATL@@@@@ATL@@QBEPAUIAtlStringMgr@2@XZ
  00106	50		 push	 eax
  00107	8d 4d 18	 lea	 ecx, DWORD PTR $T26[ebp]
  0010a	ff 15 00 00 00
	00		 call	 DWORD PTR __imp_??0?$CStringT@DV?$StrTraitMFC_DLL@DV?$ChTraitsCRT@D@ATL@@@@@ATL@@QAE@PAUIAtlStringMgr@1@@Z

; 2413 : 
; 2414 : 		CThisSimpleString::Concatenate( strResult, psz1, CThisSimpleString::StringLength( psz1 ), str2, str2.GetLength() );

  00110	8b 45 14	 mov	 eax, DWORD PTR _strBefore$19[ebp]
  00113	ff 70 f4	 push	 DWORD PTR [eax-12]
  00116	50		 push	 eax
  00117	6a 01		 push	 1
  00119	8d 45 18	 lea	 eax, DWORD PTR $T26[ebp]
  0011c	68 00 00 00 00	 push	 OFFSET ??_C@_01JOAMLHOP@?9@
  00121	50		 push	 eax
  00122	ff 15 00 00 00
	00		 call	 DWORD PTR __imp_?Concatenate@?$CSimpleStringT@D$00@ATL@@KAXAAV12@PBDH1H@Z
  00128	83 c4 14	 add	 esp, 20			; 00000014H
; File D:\git\src\IBK\IBK_DRFN\ProjSrc\SrcDrfn\DrCommon\PcTrMng\_DataUtilManager.cpp

; 756  : 			if(bMinus) strBefore = "-" + strBefore;

  0012b	8d 45 18	 lea	 eax, DWORD PTR $T26[ebp]
  0012e	8d 4d 14	 lea	 ecx, DWORD PTR _strBefore$19[ebp]
  00131	50		 push	 eax
  00132	ff 15 00 00 00
	00		 call	 DWORD PTR __imp_??4?$CStringT@DV?$StrTraitMFC_DLL@DV?$ChTraitsCRT@D@ATL@@@@@ATL@@QAEAAV01@ABV01@@Z
  00138	8d 4d 18	 lea	 ecx, DWORD PTR $T26[ebp]
  0013b	ff 15 00 00 00
	00		 call	 DWORD PTR __imp_??1?$CStringT@DV?$StrTraitMFC_DLL@DV?$ChTraitsCRT@D@ATL@@@@@ATL@@QAE@XZ
$LN19@ConvertInt:
; File C:\Program Files (x86)\Microsoft Visual Studio\2019\Community\VC\Tools\MSVC\14.29.30133\atlmfc\include\cstringt.h

; 2401 : 		CStringT strResult( str1.GetManager() );

  00141	8d 4d 14	 lea	 ecx, DWORD PTR _strBefore$19[ebp]
  00144	ff 15 00 00 00
	00		 call	 DWORD PTR __imp_?GetManager@?$CStringT@DV?$StrTraitMFC_DLL@DV?$ChTraitsCRT@D@ATL@@@@@ATL@@QBEPAUIAtlStringMgr@2@XZ
  0014a	50		 push	 eax
  0014b	8d 4d 18	 lea	 ecx, DWORD PTR $T25[ebp]
  0014e	ff 15 00 00 00
	00		 call	 DWORD PTR __imp_??0?$CStringT@DV?$StrTraitMFC_DLL@DV?$ChTraitsCRT@D@ATL@@@@@ATL@@QAE@PAUIAtlStringMgr@1@@Z

; 2402 : 
; 2403 : 		CThisSimpleString::Concatenate( strResult, str1, str1.GetLength(), psz2, CThisSimpleString::StringLength( psz2 ) );

  00154	8b 45 14	 mov	 eax, DWORD PTR _strBefore$19[ebp]
  00157	6a 01		 push	 1
  00159	68 00 00 00 00	 push	 OFFSET ??_C@_01LFCBOECM@?4@
  0015e	ff 70 f4	 push	 DWORD PTR [eax-12]
  00161	50		 push	 eax
  00162	8d 45 18	 lea	 eax, DWORD PTR $T25[ebp]
  00165	50		 push	 eax
  00166	ff 15 00 00 00
	00		 call	 DWORD PTR __imp_?Concatenate@?$CSimpleStringT@D$00@ATL@@KAXAAV12@PBDH1H@Z
; File D:\git\src\IBK\IBK_DRFN\ProjSrc\SrcDrfn\DrCommon\PcTrMng\_DataUtilManager.cpp

; 757  : 			strResult   = strBefore + "." + strAfter;

  0016c	8d 45 08	 lea	 eax, DWORD PTR _strAfter$12[ebp]
  0016f	50		 push	 eax
  00170	8d 45 18	 lea	 eax, DWORD PTR $T25[ebp]
  00173	50		 push	 eax
  00174	8d 45 fc	 lea	 eax, DWORD PTR $T7[ebp]
  00177	50		 push	 eax
  00178	e8 00 00 00 00	 call	 ??HATL@@YA?AV?$CStringT@DV?$StrTraitMFC_DLL@DV?$ChTraitsCRT@D@ATL@@@@@0@ABV10@0@Z ; ATL::operator+
  0017d	8b 75 0c	 mov	 esi, DWORD PTR ___$ReturnUdt$[ebp]
  00180	83 c4 20	 add	 esp, 32			; 00000020H
  00183	8b ce		 mov	 ecx, esi
  00185	50		 push	 eax
  00186	ff 15 00 00 00
	00		 call	 DWORD PTR __imp_??4?$CStringT@DV?$StrTraitMFC_DLL@DV?$ChTraitsCRT@D@ATL@@@@@ATL@@QAEAAV01@ABV01@@Z
  0018c	8d 4d fc	 lea	 ecx, DWORD PTR $T7[ebp]
  0018f	ff 15 00 00 00
	00		 call	 DWORD PTR __imp_??1?$CStringT@DV?$StrTraitMFC_DLL@DV?$ChTraitsCRT@D@ATL@@@@@ATL@@QAE@XZ
  00195	8d 4d 18	 lea	 ecx, DWORD PTR $T25[ebp]
  00198	ff 15 00 00 00
	00		 call	 DWORD PTR __imp_??1?$CStringT@DV?$StrTraitMFC_DLL@DV?$ChTraitsCRT@D@ATL@@@@@ATL@@QAE@XZ

; 758  : 		}

  0019e	8d 4d 08	 lea	 ecx, DWORD PTR _strAfter$12[ebp]
  001a1	ff 15 00 00 00
	00		 call	 DWORD PTR __imp_??1?$CStringT@DV?$StrTraitMFC_DLL@DV?$ChTraitsCRT@D@ATL@@@@@ATL@@QAE@XZ
  001a7	8d 4d 14	 lea	 ecx, DWORD PTR _strBefore$19[ebp]
  001aa	e9 13 04 00 00	 jmp	 $LN254@ConvertInt
$LN17@ConvertInt:

; 759  : 		else
; 760  : 		{
; 761  : 			int nDif = nPointPosition - strData.GetLength();
; 762  : 			CString strBefore = "0.";

  001af	68 00 00 00 00	 push	 OFFSET ??_C@_02CPNCMKFB@0?4@
  001b4	2b f0		 sub	 esi, eax
  001b6	ff 15 00 00 00
	00		 call	 DWORD PTR __imp_??0?$CStringT@DV?$StrTraitMFC_DLL@DV?$ChTraitsCRT@D@ATL@@@@@ATL@@QAE@PBD@Z

; 763  : 			for(i = 0; i < nDif ; i++)			

  001bc	85 f6		 test	 esi, esi
  001be	7e 49		 jle	 SHORT $LN231@ConvertInt
$LL226@ConvertInt:
; File C:\Program Files (x86)\Microsoft Visual Studio\2019\Community\VC\Tools\MSVC\14.29.30133\atlmfc\include\cstringt.h

; 2401 : 		CStringT strResult( str1.GetManager() );

  001c0	8d 4d 14	 lea	 ecx, DWORD PTR _strBefore$18[ebp]
  001c3	ff 15 00 00 00
	00		 call	 DWORD PTR __imp_?GetManager@?$CStringT@DV?$StrTraitMFC_DLL@DV?$ChTraitsCRT@D@ATL@@@@@ATL@@QBEPAUIAtlStringMgr@2@XZ
  001c9	50		 push	 eax
  001ca	8d 4d 18	 lea	 ecx, DWORD PTR $T24[ebp]
  001cd	ff 15 00 00 00
	00		 call	 DWORD PTR __imp_??0?$CStringT@DV?$StrTraitMFC_DLL@DV?$ChTraitsCRT@D@ATL@@@@@ATL@@QAE@PAUIAtlStringMgr@1@@Z

; 2402 : 
; 2403 : 		CThisSimpleString::Concatenate( strResult, str1, str1.GetLength(), psz2, CThisSimpleString::StringLength( psz2 ) );

  001d3	8b 45 14	 mov	 eax, DWORD PTR _strBefore$18[ebp]
  001d6	6a 01		 push	 1
  001d8	68 00 00 00 00	 push	 OFFSET ??_C@_01GBGANLPD@0@
  001dd	ff 70 f4	 push	 DWORD PTR [eax-12]
  001e0	50		 push	 eax
  001e1	8d 45 18	 lea	 eax, DWORD PTR $T24[ebp]
  001e4	50		 push	 eax
  001e5	ff 15 00 00 00
	00		 call	 DWORD PTR __imp_?Concatenate@?$CSimpleStringT@D$00@ATL@@KAXAAV12@PBDH1H@Z
  001eb	83 c4 14	 add	 esp, 20			; 00000014H
; File D:\git\src\IBK\IBK_DRFN\ProjSrc\SrcDrfn\DrCommon\PcTrMng\_DataUtilManager.cpp

; 764  : 				strBefore = strBefore + "0";

  001ee	8d 45 18	 lea	 eax, DWORD PTR $T24[ebp]
  001f1	8d 4d 14	 lea	 ecx, DWORD PTR _strBefore$18[ebp]
  001f4	50		 push	 eax
  001f5	ff 15 00 00 00
	00		 call	 DWORD PTR __imp_??4?$CStringT@DV?$StrTraitMFC_DLL@DV?$ChTraitsCRT@D@ATL@@@@@ATL@@QAEAAV01@ABV01@@Z
  001fb	8d 4d 18	 lea	 ecx, DWORD PTR $T24[ebp]
  001fe	ff 15 00 00 00
	00		 call	 DWORD PTR __imp_??1?$CStringT@DV?$StrTraitMFC_DLL@DV?$ChTraitsCRT@D@ATL@@@@@ATL@@QAE@XZ
  00204	83 ee 01	 sub	 esi, 1
  00207	75 b7		 jne	 SHORT $LL226@ConvertInt
$LN231@ConvertInt:

; 766  : 			if(bMinus) strBefore = "-" + strBefore;

  00209	85 db		 test	 ebx, ebx
  0020b	74 44		 je	 SHORT $LN20@ConvertInt
; File C:\Program Files (x86)\Microsoft Visual Studio\2019\Community\VC\Tools\MSVC\14.29.30133\atlmfc\include\cstringt.h

; 2412 : 		CStringT strResult( str2.GetManager() );

  0020d	8d 4d 14	 lea	 ecx, DWORD PTR _strBefore$18[ebp]
  00210	ff 15 00 00 00
	00		 call	 DWORD PTR __imp_?GetManager@?$CStringT@DV?$StrTraitMFC_DLL@DV?$ChTraitsCRT@D@ATL@@@@@ATL@@QBEPAUIAtlStringMgr@2@XZ
  00216	50		 push	 eax
  00217	8d 4d 18	 lea	 ecx, DWORD PTR $T23[ebp]
  0021a	ff 15 00 00 00
	00		 call	 DWORD PTR __imp_??0?$CStringT@DV?$StrTraitMFC_DLL@DV?$ChTraitsCRT@D@ATL@@@@@ATL@@QAE@PAUIAtlStringMgr@1@@Z

; 2413 : 
; 2414 : 		CThisSimpleString::Concatenate( strResult, psz1, CThisSimpleString::StringLength( psz1 ), str2, str2.GetLength() );

  00220	8b 45 14	 mov	 eax, DWORD PTR _strBefore$18[ebp]
  00223	ff 70 f4	 push	 DWORD PTR [eax-12]
  00226	50		 push	 eax
  00227	6a 01		 push	 1
  00229	8d 45 18	 lea	 eax, DWORD PTR $T23[ebp]
  0022c	68 00 00 00 00	 push	 OFFSET ??_C@_01JOAMLHOP@?9@
  00231	50		 push	 eax
  00232	ff 15 00 00 00
	00		 call	 DWORD PTR __imp_?Concatenate@?$CSimpleStringT@D$00@ATL@@KAXAAV12@PBDH1H@Z
  00238	83 c4 14	 add	 esp, 20			; 00000014H
; File D:\git\src\IBK\IBK_DRFN\ProjSrc\SrcDrfn\DrCommon\PcTrMng\_DataUtilManager.cpp

; 766  : 			if(bMinus) strBefore = "-" + strBefore;

  0023b	8d 45 18	 lea	 eax, DWORD PTR $T23[ebp]
  0023e	8d 4d 14	 lea	 ecx, DWORD PTR _strBefore$18[ebp]
  00241	50		 push	 eax
  00242	ff 15 00 00 00
	00		 call	 DWORD PTR __imp_??4?$CStringT@DV?$StrTraitMFC_DLL@DV?$ChTraitsCRT@D@ATL@@@@@ATL@@QAEAAV01@ABV01@@Z
  00248	8d 4d 18	 lea	 ecx, DWORD PTR $T23[ebp]
  0024b	ff 15 00 00 00
	00		 call	 DWORD PTR __imp_??1?$CStringT@DV?$StrTraitMFC_DLL@DV?$ChTraitsCRT@D@ATL@@@@@ATL@@QAE@XZ
$LN20@ConvertInt:
; File C:\Program Files (x86)\Microsoft Visual Studio\2019\Community\VC\Tools\MSVC\14.29.30133\atlmfc\include\cstringt.h

; 2390 : 		CStringT strResult( str1.GetManager() );

  00251	8d 4d 14	 lea	 ecx, DWORD PTR _strBefore$18[ebp]
  00254	ff 15 00 00 00
	00		 call	 DWORD PTR __imp_?GetManager@?$CStringT@DV?$StrTraitMFC_DLL@DV?$ChTraitsCRT@D@ATL@@@@@ATL@@QBEPAUIAtlStringMgr@2@XZ
  0025a	50		 push	 eax
  0025b	8d 4d 18	 lea	 ecx, DWORD PTR $T22[ebp]
  0025e	ff 15 00 00 00
	00		 call	 DWORD PTR __imp_??0?$CStringT@DV?$StrTraitMFC_DLL@DV?$ChTraitsCRT@D@ATL@@@@@ATL@@QAE@PAUIAtlStringMgr@1@@Z

; 2392 : 		CThisSimpleString::Concatenate( strResult, str1, str1.GetLength(), str2, str2.GetLength() );

  00264	8b 45 10	 mov	 eax, DWORD PTR _strData$[ebp]
  00267	ff 70 f4	 push	 DWORD PTR [eax-12]
  0026a	50		 push	 eax
  0026b	8b 45 14	 mov	 eax, DWORD PTR _strBefore$18[ebp]
  0026e	ff 70 f4	 push	 DWORD PTR [eax-12]
  00271	50		 push	 eax
  00272	8d 45 18	 lea	 eax, DWORD PTR $T22[ebp]
  00275	50		 push	 eax
  00276	ff 15 00 00 00
	00		 call	 DWORD PTR __imp_?Concatenate@?$CSimpleStringT@D$00@ATL@@KAXAAV12@PBDH1H@Z
; File D:\git\src\IBK\IBK_DRFN\ProjSrc\SrcDrfn\DrCommon\PcTrMng\_DataUtilManager.cpp

; 767  : 			strResult = strBefore + strData;

  0027c	8b 75 0c	 mov	 esi, DWORD PTR ___$ReturnUdt$[ebp]
  0027f	8d 45 18	 lea	 eax, DWORD PTR $T22[ebp]
; File C:\Program Files (x86)\Microsoft Visual Studio\2019\Community\VC\Tools\MSVC\14.29.30133\atlmfc\include\cstringt.h

; 2392 : 		CThisSimpleString::Concatenate( strResult, str1, str1.GetLength(), str2, str2.GetLength() );

  00282	83 c4 14	 add	 esp, 20			; 00000014H
; File D:\git\src\IBK\IBK_DRFN\ProjSrc\SrcDrfn\DrCommon\PcTrMng\_DataUtilManager.cpp

; 767  : 			strResult = strBefore + strData;

  00285	8b ce		 mov	 ecx, esi
  00287	50		 push	 eax
  00288	ff 15 00 00 00
	00		 call	 DWORD PTR __imp_??4?$CStringT@DV?$StrTraitMFC_DLL@DV?$ChTraitsCRT@D@ATL@@@@@ATL@@QAEAAV01@ABV01@@Z
  0028e	8d 4d 18	 lea	 ecx, DWORD PTR $T22[ebp]
  00291	ff 15 00 00 00
	00		 call	 DWORD PTR __imp_??1?$CStringT@DV?$StrTraitMFC_DLL@DV?$ChTraitsCRT@D@ATL@@@@@ATL@@QAE@XZ

; 768  : 		}

  00297	8d 4d 14	 lea	 ecx, DWORD PTR _strBefore$18[ebp]

; 769  : 	}

  0029a	e9 23 03 00 00	 jmp	 $LN254@ConvertInt
$LN15@ConvertInt:

; 770  : 	else
; 771  : 	{
; 772  : 		if(strData.GetLength() > nPointCurPosition)

  0029f	8d 4d 18	 lea	 ecx, DWORD PTR _strBefore$21[ebp]
  002a2	3b c7		 cmp	 eax, edi
  002a4	0f 8e 8c 01 00
	00		 jle	 $LN21@ConvertInt

; 773  : 		{
; 774  : 			CString strBefore, strAfter;

  002aa	ff 15 00 00 00
	00		 call	 DWORD PTR __imp_??0?$CStringT@DV?$StrTraitMFC_DLL@DV?$ChTraitsCRT@D@ATL@@@@@ATL@@QAE@XZ
  002b0	8d 4d fc	 lea	 ecx, DWORD PTR _strAfter$6[ebp]
  002b3	ff 15 00 00 00
	00		 call	 DWORD PTR __imp_??0?$CStringT@DV?$StrTraitMFC_DLL@DV?$ChTraitsCRT@D@ATL@@@@@ATL@@QAE@XZ
; File C:\Program Files (x86)\Microsoft Visual Studio\2019\Community\VC\Tools\MSVC\14.29.30133\atlmfc\include\atlsimpstr.h

; 519  : 		return( GetData()->nDataLength );

  002b9	8b 45 10	 mov	 eax, DWORD PTR _strData$[ebp]
; File D:\git\src\IBK\IBK_DRFN\ProjSrc\SrcDrfn\DrCommon\PcTrMng\_DataUtilManager.cpp

; 775  : 			strBefore = strData.Left(strData.GetLength() - nPointCurPosition);

  002bc	8d 4d 10	 lea	 ecx, DWORD PTR _strData$[ebp]
; File C:\Program Files (x86)\Microsoft Visual Studio\2019\Community\VC\Tools\MSVC\14.29.30133\atlmfc\include\atlsimpstr.h

; 519  : 		return( GetData()->nDataLength );

  002bf	8b 40 f4	 mov	 eax, DWORD PTR [eax-12]
; File D:\git\src\IBK\IBK_DRFN\ProjSrc\SrcDrfn\DrCommon\PcTrMng\_DataUtilManager.cpp

; 775  : 			strBefore = strData.Left(strData.GetLength() - nPointCurPosition);

  002c2	2b c7		 sub	 eax, edi
  002c4	50		 push	 eax
  002c5	8d 45 f8	 lea	 eax, DWORD PTR $T2[ebp]
  002c8	50		 push	 eax
  002c9	ff 15 00 00 00
	00		 call	 DWORD PTR __imp_?Left@?$CStringT@DV?$StrTraitMFC_DLL@DV?$ChTraitsCRT@D@ATL@@@@@ATL@@QBE?AV12@H@Z
  002cf	50		 push	 eax
  002d0	8d 4d 18	 lea	 ecx, DWORD PTR _strBefore$21[ebp]
  002d3	ff 15 00 00 00
	00		 call	 DWORD PTR __imp_??4?$CStringT@DV?$StrTraitMFC_DLL@DV?$ChTraitsCRT@D@ATL@@@@@ATL@@QAEAAV01@ABV01@@Z
  002d9	8d 4d f8	 lea	 ecx, DWORD PTR $T2[ebp]
  002dc	ff 15 00 00 00
	00		 call	 DWORD PTR __imp_??1?$CStringT@DV?$StrTraitMFC_DLL@DV?$ChTraitsCRT@D@ATL@@@@@ATL@@QAE@XZ

; 776  : 			strAfter  = strData.Right(nPointCurPosition);

  002e2	57		 push	 edi
  002e3	8d 45 f8	 lea	 eax, DWORD PTR $T1[ebp]
  002e6	50		 push	 eax
  002e7	8d 4d 10	 lea	 ecx, DWORD PTR _strData$[ebp]
  002ea	ff 15 00 00 00
	00		 call	 DWORD PTR __imp_?Right@?$CStringT@DV?$StrTraitMFC_DLL@DV?$ChTraitsCRT@D@ATL@@@@@ATL@@QBE?AV12@H@Z
  002f0	50		 push	 eax
  002f1	8d 4d fc	 lea	 ecx, DWORD PTR _strAfter$6[ebp]
  002f4	ff 15 00 00 00
	00		 call	 DWORD PTR __imp_??4?$CStringT@DV?$StrTraitMFC_DLL@DV?$ChTraitsCRT@D@ATL@@@@@ATL@@QAEAAV01@ABV01@@Z
  002fa	8d 4d f8	 lea	 ecx, DWORD PTR $T1[ebp]
  002fd	ff 15 00 00 00
	00		 call	 DWORD PTR __imp_??1?$CStringT@DV?$StrTraitMFC_DLL@DV?$ChTraitsCRT@D@ATL@@@@@ATL@@QAE@XZ

; 777  : 			for( i = 0; i < nPointPosition - nPointCurPosition ; i++)

  00303	8b 75 14	 mov	 esi, DWORD PTR _nPointPosition$[ebp]
  00306	2b f7		 sub	 esi, edi
  00308	85 f6		 test	 esi, esi
  0030a	7e 4d		 jle	 SHORT $LN233@ConvertInt
  0030c	0f 1f 40 00	 npad	 4
$LL227@ConvertInt:
; File C:\Program Files (x86)\Microsoft Visual Studio\2019\Community\VC\Tools\MSVC\14.29.30133\atlmfc\include\cstringt.h

; 2401 : 		CStringT strResult( str1.GetManager() );

  00310	8d 4d fc	 lea	 ecx, DWORD PTR _strAfter$6[ebp]
  00313	ff 15 00 00 00
	00		 call	 DWORD PTR __imp_?GetManager@?$CStringT@DV?$StrTraitMFC_DLL@DV?$ChTraitsCRT@D@ATL@@@@@ATL@@QBEPAUIAtlStringMgr@2@XZ
  00319	50		 push	 eax
  0031a	8d 4d 14	 lea	 ecx, DWORD PTR $T17[ebp]
  0031d	ff 15 00 00 00
	00		 call	 DWORD PTR __imp_??0?$CStringT@DV?$StrTraitMFC_DLL@DV?$ChTraitsCRT@D@ATL@@@@@ATL@@QAE@PAUIAtlStringMgr@1@@Z

; 2402 : 
; 2403 : 		CThisSimpleString::Concatenate( strResult, str1, str1.GetLength(), psz2, CThisSimpleString::StringLength( psz2 ) );

  00323	8b 45 fc	 mov	 eax, DWORD PTR _strAfter$6[ebp]
  00326	6a 01		 push	 1
  00328	68 00 00 00 00	 push	 OFFSET ??_C@_01GBGANLPD@0@
  0032d	ff 70 f4	 push	 DWORD PTR [eax-12]
  00330	50		 push	 eax
  00331	8d 45 14	 lea	 eax, DWORD PTR $T17[ebp]
  00334	50		 push	 eax
  00335	ff 15 00 00 00
	00		 call	 DWORD PTR __imp_?Concatenate@?$CSimpleStringT@D$00@ATL@@KAXAAV12@PBDH1H@Z
  0033b	83 c4 14	 add	 esp, 20			; 00000014H
; File D:\git\src\IBK\IBK_DRFN\ProjSrc\SrcDrfn\DrCommon\PcTrMng\_DataUtilManager.cpp

; 778  : 				strAfter = strAfter + "0";

  0033e	8d 45 14	 lea	 eax, DWORD PTR $T17[ebp]
  00341	8d 4d fc	 lea	 ecx, DWORD PTR _strAfter$6[ebp]
  00344	50		 push	 eax
  00345	ff 15 00 00 00
	00		 call	 DWORD PTR __imp_??4?$CStringT@DV?$StrTraitMFC_DLL@DV?$ChTraitsCRT@D@ATL@@@@@ATL@@QAEAAV01@ABV01@@Z
  0034b	8d 4d 14	 lea	 ecx, DWORD PTR $T17[ebp]
  0034e	ff 15 00 00 00
	00		 call	 DWORD PTR __imp_??1?$CStringT@DV?$StrTraitMFC_DLL@DV?$ChTraitsCRT@D@ATL@@@@@ATL@@QAE@XZ
  00354	83 ee 01	 sub	 esi, 1
  00357	75 b7		 jne	 SHORT $LL227@ConvertInt
$LN233@ConvertInt:

; 779  : 			InsertComma(strBefore);

  00359	8b 45 08	 mov	 eax, DWORD PTR _this$[ebp]
  0035c	8d 55 18	 lea	 edx, DWORD PTR _strBefore$21[ebp]
  0035f	52		 push	 edx
  00360	50		 push	 eax
  00361	8b 08		 mov	 ecx, DWORD PTR [eax]
  00363	ff 91 8c 00 00
	00		 call	 DWORD PTR [ecx+140]

; 780  : 			if(bMinus) strBefore = "-" + strBefore;

  00369	85 db		 test	 ebx, ebx
  0036b	74 44		 je	 SHORT $LN23@ConvertInt
; File C:\Program Files (x86)\Microsoft Visual Studio\2019\Community\VC\Tools\MSVC\14.29.30133\atlmfc\include\cstringt.h

; 2412 : 		CStringT strResult( str2.GetManager() );

  0036d	8d 4d 18	 lea	 ecx, DWORD PTR _strBefore$21[ebp]
  00370	ff 15 00 00 00
	00		 call	 DWORD PTR __imp_?GetManager@?$CStringT@DV?$StrTraitMFC_DLL@DV?$ChTraitsCRT@D@ATL@@@@@ATL@@QBEPAUIAtlStringMgr@2@XZ
  00376	50		 push	 eax
  00377	8d 4d 14	 lea	 ecx, DWORD PTR $T16[ebp]
  0037a	ff 15 00 00 00
	00		 call	 DWORD PTR __imp_??0?$CStringT@DV?$StrTraitMFC_DLL@DV?$ChTraitsCRT@D@ATL@@@@@ATL@@QAE@PAUIAtlStringMgr@1@@Z

; 2413 : 
; 2414 : 		CThisSimpleString::Concatenate( strResult, psz1, CThisSimpleString::StringLength( psz1 ), str2, str2.GetLength() );

  00380	8b 45 18	 mov	 eax, DWORD PTR _strBefore$21[ebp]
  00383	ff 70 f4	 push	 DWORD PTR [eax-12]
  00386	50		 push	 eax
  00387	6a 01		 push	 1
  00389	8d 45 14	 lea	 eax, DWORD PTR $T16[ebp]
  0038c	68 00 00 00 00	 push	 OFFSET ??_C@_01JOAMLHOP@?9@
  00391	50		 push	 eax
  00392	ff 15 00 00 00
	00		 call	 DWORD PTR __imp_?Concatenate@?$CSimpleStringT@D$00@ATL@@KAXAAV12@PBDH1H@Z
  00398	83 c4 14	 add	 esp, 20			; 00000014H
; File D:\git\src\IBK\IBK_DRFN\ProjSrc\SrcDrfn\DrCommon\PcTrMng\_DataUtilManager.cpp

; 780  : 			if(bMinus) strBefore = "-" + strBefore;

  0039b	8d 45 14	 lea	 eax, DWORD PTR $T16[ebp]
  0039e	8d 4d 18	 lea	 ecx, DWORD PTR _strBefore$21[ebp]
  003a1	50		 push	 eax
  003a2	ff 15 00 00 00
	00		 call	 DWORD PTR __imp_??4?$CStringT@DV?$StrTraitMFC_DLL@DV?$ChTraitsCRT@D@ATL@@@@@ATL@@QAEAAV01@ABV01@@Z
  003a8	8d 4d 14	 lea	 ecx, DWORD PTR $T16[ebp]
  003ab	ff 15 00 00 00
	00		 call	 DWORD PTR __imp_??1?$CStringT@DV?$StrTraitMFC_DLL@DV?$ChTraitsCRT@D@ATL@@@@@ATL@@QAE@XZ
$LN23@ConvertInt:
; File C:\Program Files (x86)\Microsoft Visual Studio\2019\Community\VC\Tools\MSVC\14.29.30133\atlmfc\include\cstringt.h

; 2401 : 		CStringT strResult( str1.GetManager() );

  003b1	8d 4d 18	 lea	 ecx, DWORD PTR _strBefore$21[ebp]
  003b4	ff 15 00 00 00
	00		 call	 DWORD PTR __imp_?GetManager@?$CStringT@DV?$StrTraitMFC_DLL@DV?$ChTraitsCRT@D@ATL@@@@@ATL@@QBEPAUIAtlStringMgr@2@XZ
  003ba	50		 push	 eax
  003bb	8d 4d 14	 lea	 ecx, DWORD PTR $T15[ebp]
  003be	ff 15 00 00 00
	00		 call	 DWORD PTR __imp_??0?$CStringT@DV?$StrTraitMFC_DLL@DV?$ChTraitsCRT@D@ATL@@@@@ATL@@QAE@PAUIAtlStringMgr@1@@Z

; 2402 : 
; 2403 : 		CThisSimpleString::Concatenate( strResult, str1, str1.GetLength(), psz2, CThisSimpleString::StringLength( psz2 ) );

  003c4	8b 45 18	 mov	 eax, DWORD PTR _strBefore$21[ebp]
  003c7	6a 01		 push	 1
  003c9	68 00 00 00 00	 push	 OFFSET ??_C@_01LFCBOECM@?4@
  003ce	ff 70 f4	 push	 DWORD PTR [eax-12]
  003d1	50		 push	 eax
  003d2	8d 45 14	 lea	 eax, DWORD PTR $T15[ebp]
  003d5	50		 push	 eax
  003d6	ff 15 00 00 00
	00		 call	 DWORD PTR __imp_?Concatenate@?$CSimpleStringT@D$00@ATL@@KAXAAV12@PBDH1H@Z
  003dc	83 c4 14	 add	 esp, 20			; 00000014H

; 2390 : 		CStringT strResult( str1.GetManager() );

  003df	8d 4d 14	 lea	 ecx, DWORD PTR $T15[ebp]
  003e2	ff 15 00 00 00
	00		 call	 DWORD PTR __imp_?GetManager@?$CStringT@DV?$StrTraitMFC_DLL@DV?$ChTraitsCRT@D@ATL@@@@@ATL@@QBEPAUIAtlStringMgr@2@XZ
  003e8	50		 push	 eax
  003e9	8d 4d 08	 lea	 ecx, DWORD PTR $T11[ebp]
  003ec	ff 15 00 00 00
	00		 call	 DWORD PTR __imp_??0?$CStringT@DV?$StrTraitMFC_DLL@DV?$ChTraitsCRT@D@ATL@@@@@ATL@@QAE@PAUIAtlStringMgr@1@@Z

; 2392 : 		CThisSimpleString::Concatenate( strResult, str1, str1.GetLength(), str2, str2.GetLength() );

  003f2	8b 45 fc	 mov	 eax, DWORD PTR _strAfter$6[ebp]
  003f5	ff 70 f4	 push	 DWORD PTR [eax-12]
  003f8	50		 push	 eax
  003f9	8b 45 14	 mov	 eax, DWORD PTR $T15[ebp]
  003fc	ff 70 f4	 push	 DWORD PTR [eax-12]
  003ff	50		 push	 eax
  00400	8d 45 08	 lea	 eax, DWORD PTR $T11[ebp]
  00403	50		 push	 eax
  00404	ff 15 00 00 00
	00		 call	 DWORD PTR __imp_?Concatenate@?$CSimpleStringT@D$00@ATL@@KAXAAV12@PBDH1H@Z
; File D:\git\src\IBK\IBK_DRFN\ProjSrc\SrcDrfn\DrCommon\PcTrMng\_DataUtilManager.cpp

; 781  : 			strResult   = strBefore + "." + strAfter;

  0040a	8b 75 0c	 mov	 esi, DWORD PTR ___$ReturnUdt$[ebp]
  0040d	8d 45 08	 lea	 eax, DWORD PTR $T11[ebp]
; File C:\Program Files (x86)\Microsoft Visual Studio\2019\Community\VC\Tools\MSVC\14.29.30133\atlmfc\include\cstringt.h

; 2392 : 		CThisSimpleString::Concatenate( strResult, str1, str1.GetLength(), str2, str2.GetLength() );

  00410	83 c4 14	 add	 esp, 20			; 00000014H
; File D:\git\src\IBK\IBK_DRFN\ProjSrc\SrcDrfn\DrCommon\PcTrMng\_DataUtilManager.cpp

; 781  : 			strResult   = strBefore + "." + strAfter;

  00413	8b ce		 mov	 ecx, esi
  00415	50		 push	 eax
  00416	ff 15 00 00 00
	00		 call	 DWORD PTR __imp_??4?$CStringT@DV?$StrTraitMFC_DLL@DV?$ChTraitsCRT@D@ATL@@@@@ATL@@QAEAAV01@ABV01@@Z
  0041c	8d 4d 08	 lea	 ecx, DWORD PTR $T11[ebp]
  0041f	ff 15 00 00 00
	00		 call	 DWORD PTR __imp_??1?$CStringT@DV?$StrTraitMFC_DLL@DV?$ChTraitsCRT@D@ATL@@@@@ATL@@QAE@XZ
  00425	8d 4d 14	 lea	 ecx, DWORD PTR $T15[ebp]
  00428	ff 15 00 00 00
	00		 call	 DWORD PTR __imp_??1?$CStringT@DV?$StrTraitMFC_DLL@DV?$ChTraitsCRT@D@ATL@@@@@ATL@@QAE@XZ

; 782  : 		}

  0042e	8d 4d fc	 lea	 ecx, DWORD PTR _strAfter$6[ebp]
  00431	e9 83 01 00 00	 jmp	 $LN255@ConvertInt
$LN21@ConvertInt:

; 783  : 		else
; 784  : 		{
; 785  : 			int nDif = nPointCurPosition - strData.GetLength();

  00436	8b f7		 mov	 esi, edi

; 786  : 			CString strBefore = "0.", strAfter;

  00438	68 00 00 00 00	 push	 OFFSET ??_C@_02CPNCMKFB@0?4@
  0043d	2b f0		 sub	 esi, eax
  0043f	ff 15 00 00 00
	00		 call	 DWORD PTR __imp_??0?$CStringT@DV?$StrTraitMFC_DLL@DV?$ChTraitsCRT@D@ATL@@@@@ATL@@QAE@PBD@Z
  00445	8d 4d 08	 lea	 ecx, DWORD PTR _strAfter$10[ebp]
  00448	ff 15 00 00 00
	00		 call	 DWORD PTR __imp_??0?$CStringT@DV?$StrTraitMFC_DLL@DV?$ChTraitsCRT@D@ATL@@@@@ATL@@QAE@XZ

; 787  : 			for(i = 0 ; i < nDif; i++)

  0044e	85 f6		 test	 esi, esi
  00450	7e 49		 jle	 SHORT $LN235@ConvertInt
$LL228@ConvertInt:
; File C:\Program Files (x86)\Microsoft Visual Studio\2019\Community\VC\Tools\MSVC\14.29.30133\atlmfc\include\cstringt.h

; 2401 : 		CStringT strResult( str1.GetManager() );

  00452	8d 4d 18	 lea	 ecx, DWORD PTR _strBefore$20[ebp]
  00455	ff 15 00 00 00
	00		 call	 DWORD PTR __imp_?GetManager@?$CStringT@DV?$StrTraitMFC_DLL@DV?$ChTraitsCRT@D@ATL@@@@@ATL@@QBEPAUIAtlStringMgr@2@XZ
  0045b	50		 push	 eax
  0045c	8d 4d fc	 lea	 ecx, DWORD PTR $T5[ebp]
  0045f	ff 15 00 00 00
	00		 call	 DWORD PTR __imp_??0?$CStringT@DV?$StrTraitMFC_DLL@DV?$ChTraitsCRT@D@ATL@@@@@ATL@@QAE@PAUIAtlStringMgr@1@@Z

; 2402 : 
; 2403 : 		CThisSimpleString::Concatenate( strResult, str1, str1.GetLength(), psz2, CThisSimpleString::StringLength( psz2 ) );

  00465	8b 45 18	 mov	 eax, DWORD PTR _strBefore$20[ebp]
  00468	6a 01		 push	 1
  0046a	68 00 00 00 00	 push	 OFFSET ??_C@_01GBGANLPD@0@
  0046f	ff 70 f4	 push	 DWORD PTR [eax-12]
  00472	50		 push	 eax
  00473	8d 45 fc	 lea	 eax, DWORD PTR $T5[ebp]
  00476	50		 push	 eax
  00477	ff 15 00 00 00
	00		 call	 DWORD PTR __imp_?Concatenate@?$CSimpleStringT@D$00@ATL@@KAXAAV12@PBDH1H@Z
  0047d	83 c4 14	 add	 esp, 20			; 00000014H
; File D:\git\src\IBK\IBK_DRFN\ProjSrc\SrcDrfn\DrCommon\PcTrMng\_DataUtilManager.cpp

; 788  : 				strBefore = strBefore + "0";

  00480	8d 45 fc	 lea	 eax, DWORD PTR $T5[ebp]
  00483	8d 4d 18	 lea	 ecx, DWORD PTR _strBefore$20[ebp]
  00486	50		 push	 eax
  00487	ff 15 00 00 00
	00		 call	 DWORD PTR __imp_??4?$CStringT@DV?$StrTraitMFC_DLL@DV?$ChTraitsCRT@D@ATL@@@@@ATL@@QAEAAV01@ABV01@@Z
  0048d	8d 4d fc	 lea	 ecx, DWORD PTR $T5[ebp]
  00490	ff 15 00 00 00
	00		 call	 DWORD PTR __imp_??1?$CStringT@DV?$StrTraitMFC_DLL@DV?$ChTraitsCRT@D@ATL@@@@@ATL@@QAE@XZ
  00496	83 ee 01	 sub	 esi, 1
  00499	75 b7		 jne	 SHORT $LL228@ConvertInt
$LN235@ConvertInt:

; 790  : 			if(bMinus) strBefore = "-" + strBefore;

  0049b	85 db		 test	 ebx, ebx
  0049d	74 44		 je	 SHORT $LN24@ConvertInt
; File C:\Program Files (x86)\Microsoft Visual Studio\2019\Community\VC\Tools\MSVC\14.29.30133\atlmfc\include\cstringt.h

; 2412 : 		CStringT strResult( str2.GetManager() );

  0049f	8d 4d 18	 lea	 ecx, DWORD PTR _strBefore$20[ebp]
  004a2	ff 15 00 00 00
	00		 call	 DWORD PTR __imp_?GetManager@?$CStringT@DV?$StrTraitMFC_DLL@DV?$ChTraitsCRT@D@ATL@@@@@ATL@@QBEPAUIAtlStringMgr@2@XZ
  004a8	50		 push	 eax
  004a9	8d 4d fc	 lea	 ecx, DWORD PTR $T4[ebp]
  004ac	ff 15 00 00 00
	00		 call	 DWORD PTR __imp_??0?$CStringT@DV?$StrTraitMFC_DLL@DV?$ChTraitsCRT@D@ATL@@@@@ATL@@QAE@PAUIAtlStringMgr@1@@Z

; 2413 : 
; 2414 : 		CThisSimpleString::Concatenate( strResult, psz1, CThisSimpleString::StringLength( psz1 ), str2, str2.GetLength() );

  004b2	8b 45 18	 mov	 eax, DWORD PTR _strBefore$20[ebp]
  004b5	ff 70 f4	 push	 DWORD PTR [eax-12]
  004b8	50		 push	 eax
  004b9	6a 01		 push	 1
  004bb	8d 45 fc	 lea	 eax, DWORD PTR $T4[ebp]
  004be	68 00 00 00 00	 push	 OFFSET ??_C@_01JOAMLHOP@?9@
  004c3	50		 push	 eax
  004c4	ff 15 00 00 00
	00		 call	 DWORD PTR __imp_?Concatenate@?$CSimpleStringT@D$00@ATL@@KAXAAV12@PBDH1H@Z
  004ca	83 c4 14	 add	 esp, 20			; 00000014H
; File D:\git\src\IBK\IBK_DRFN\ProjSrc\SrcDrfn\DrCommon\PcTrMng\_DataUtilManager.cpp

; 790  : 			if(bMinus) strBefore = "-" + strBefore;

  004cd	8d 45 fc	 lea	 eax, DWORD PTR $T4[ebp]
  004d0	8d 4d 18	 lea	 ecx, DWORD PTR _strBefore$20[ebp]
  004d3	50		 push	 eax
  004d4	ff 15 00 00 00
	00		 call	 DWORD PTR __imp_??4?$CStringT@DV?$StrTraitMFC_DLL@DV?$ChTraitsCRT@D@ATL@@@@@ATL@@QAEAAV01@ABV01@@Z
  004da	8d 4d fc	 lea	 ecx, DWORD PTR $T4[ebp]
  004dd	ff 15 00 00 00
	00		 call	 DWORD PTR __imp_??1?$CStringT@DV?$StrTraitMFC_DLL@DV?$ChTraitsCRT@D@ATL@@@@@ATL@@QAE@XZ
$LN24@ConvertInt:

; 791  : 			for( i = 0; i < nPointPosition - nPointCurPosition ; i++)

  004e3	8b 75 14	 mov	 esi, DWORD PTR _nPointPosition$[ebp]
  004e6	2b f7		 sub	 esi, edi
  004e8	85 f6		 test	 esi, esi
  004ea	7e 4d		 jle	 SHORT $LN237@ConvertInt
  004ec	0f 1f 40 00	 npad	 4
$LL229@ConvertInt:
; File C:\Program Files (x86)\Microsoft Visual Studio\2019\Community\VC\Tools\MSVC\14.29.30133\atlmfc\include\cstringt.h

; 2401 : 		CStringT strResult( str1.GetManager() );

  004f0	8d 4d 08	 lea	 ecx, DWORD PTR _strAfter$10[ebp]
  004f3	ff 15 00 00 00
	00		 call	 DWORD PTR __imp_?GetManager@?$CStringT@DV?$StrTraitMFC_DLL@DV?$ChTraitsCRT@D@ATL@@@@@ATL@@QBEPAUIAtlStringMgr@2@XZ
  004f9	50		 push	 eax
  004fa	8d 4d 14	 lea	 ecx, DWORD PTR $T14[ebp]
  004fd	ff 15 00 00 00
	00		 call	 DWORD PTR __imp_??0?$CStringT@DV?$StrTraitMFC_DLL@DV?$ChTraitsCRT@D@ATL@@@@@ATL@@QAE@PAUIAtlStringMgr@1@@Z

; 2402 : 
; 2403 : 		CThisSimpleString::Concatenate( strResult, str1, str1.GetLength(), psz2, CThisSimpleString::StringLength( psz2 ) );

  00503	8b 45 08	 mov	 eax, DWORD PTR _strAfter$10[ebp]
  00506	6a 01		 push	 1
  00508	68 00 00 00 00	 push	 OFFSET ??_C@_01GBGANLPD@0@
  0050d	ff 70 f4	 push	 DWORD PTR [eax-12]
  00510	50		 push	 eax
  00511	8d 45 14	 lea	 eax, DWORD PTR $T14[ebp]
  00514	50		 push	 eax
  00515	ff 15 00 00 00
	00		 call	 DWORD PTR __imp_?Concatenate@?$CSimpleStringT@D$00@ATL@@KAXAAV12@PBDH1H@Z
  0051b	83 c4 14	 add	 esp, 20			; 00000014H
; File D:\git\src\IBK\IBK_DRFN\ProjSrc\SrcDrfn\DrCommon\PcTrMng\_DataUtilManager.cpp

; 792  : 				strAfter = strAfter + "0";

  0051e	8d 45 14	 lea	 eax, DWORD PTR $T14[ebp]
  00521	8d 4d 08	 lea	 ecx, DWORD PTR _strAfter$10[ebp]
  00524	50		 push	 eax
  00525	ff 15 00 00 00
	00		 call	 DWORD PTR __imp_??4?$CStringT@DV?$StrTraitMFC_DLL@DV?$ChTraitsCRT@D@ATL@@@@@ATL@@QAEAAV01@ABV01@@Z
  0052b	8d 4d 14	 lea	 ecx, DWORD PTR $T14[ebp]
  0052e	ff 15 00 00 00
	00		 call	 DWORD PTR __imp_??1?$CStringT@DV?$StrTraitMFC_DLL@DV?$ChTraitsCRT@D@ATL@@@@@ATL@@QAE@XZ
  00534	83 ee 01	 sub	 esi, 1
  00537	75 b7		 jne	 SHORT $LL229@ConvertInt
$LN237@ConvertInt:
; File C:\Program Files (x86)\Microsoft Visual Studio\2019\Community\VC\Tools\MSVC\14.29.30133\atlmfc\include\cstringt.h

; 2390 : 		CStringT strResult( str1.GetManager() );

  00539	8d 4d 18	 lea	 ecx, DWORD PTR _strBefore$20[ebp]
  0053c	ff 15 00 00 00
	00		 call	 DWORD PTR __imp_?GetManager@?$CStringT@DV?$StrTraitMFC_DLL@DV?$ChTraitsCRT@D@ATL@@@@@ATL@@QBEPAUIAtlStringMgr@2@XZ
  00542	50		 push	 eax
  00543	8d 4d 14	 lea	 ecx, DWORD PTR $T13[ebp]
  00546	ff 15 00 00 00
	00		 call	 DWORD PTR __imp_??0?$CStringT@DV?$StrTraitMFC_DLL@DV?$ChTraitsCRT@D@ATL@@@@@ATL@@QAE@PAUIAtlStringMgr@1@@Z

; 2392 : 		CThisSimpleString::Concatenate( strResult, str1, str1.GetLength(), str2, str2.GetLength() );

  0054c	8b 45 10	 mov	 eax, DWORD PTR _strData$[ebp]
  0054f	ff 70 f4	 push	 DWORD PTR [eax-12]
  00552	50		 push	 eax
  00553	8b 45 18	 mov	 eax, DWORD PTR _strBefore$20[ebp]
  00556	ff 70 f4	 push	 DWORD PTR [eax-12]
  00559	50		 push	 eax
  0055a	8d 45 14	 lea	 eax, DWORD PTR $T13[ebp]
  0055d	50		 push	 eax
  0055e	ff 15 00 00 00
	00		 call	 DWORD PTR __imp_?Concatenate@?$CSimpleStringT@D$00@ATL@@KAXAAV12@PBDH1H@Z
  00564	83 c4 14	 add	 esp, 20			; 00000014H

; 2390 : 		CStringT strResult( str1.GetManager() );

  00567	8d 4d 14	 lea	 ecx, DWORD PTR $T13[ebp]
  0056a	ff 15 00 00 00
	00		 call	 DWORD PTR __imp_?GetManager@?$CStringT@DV?$StrTraitMFC_DLL@DV?$ChTraitsCRT@D@ATL@@@@@ATL@@QBEPAUIAtlStringMgr@2@XZ
  00570	50		 push	 eax
  00571	8d 4d fc	 lea	 ecx, DWORD PTR $T3[ebp]
  00574	ff 15 00 00 00
	00		 call	 DWORD PTR __imp_??0?$CStringT@DV?$StrTraitMFC_DLL@DV?$ChTraitsCRT@D@ATL@@@@@ATL@@QAE@PAUIAtlStringMgr@1@@Z

; 2392 : 		CThisSimpleString::Concatenate( strResult, str1, str1.GetLength(), str2, str2.GetLength() );

  0057a	8b 45 08	 mov	 eax, DWORD PTR _strAfter$10[ebp]
  0057d	ff 70 f4	 push	 DWORD PTR [eax-12]
  00580	50		 push	 eax
  00581	8b 45 14	 mov	 eax, DWORD PTR $T13[ebp]
  00584	ff 70 f4	 push	 DWORD PTR [eax-12]
  00587	50		 push	 eax
  00588	8d 45 fc	 lea	 eax, DWORD PTR $T3[ebp]
  0058b	50		 push	 eax
  0058c	ff 15 00 00 00
	00		 call	 DWORD PTR __imp_?Concatenate@?$CSimpleStringT@D$00@ATL@@KAXAAV12@PBDH1H@Z
; File D:\git\src\IBK\IBK_DRFN\ProjSrc\SrcDrfn\DrCommon\PcTrMng\_DataUtilManager.cpp

; 793  : 			strResult = strBefore + strData + strAfter;

  00592	8b 75 0c	 mov	 esi, DWORD PTR ___$ReturnUdt$[ebp]
  00595	8d 45 fc	 lea	 eax, DWORD PTR $T3[ebp]
; File C:\Program Files (x86)\Microsoft Visual Studio\2019\Community\VC\Tools\MSVC\14.29.30133\atlmfc\include\cstringt.h

; 2392 : 		CThisSimpleString::Concatenate( strResult, str1, str1.GetLength(), str2, str2.GetLength() );

  00598	83 c4 14	 add	 esp, 20			; 00000014H
; File D:\git\src\IBK\IBK_DRFN\ProjSrc\SrcDrfn\DrCommon\PcTrMng\_DataUtilManager.cpp

; 793  : 			strResult = strBefore + strData + strAfter;

  0059b	8b ce		 mov	 ecx, esi
  0059d	50		 push	 eax
  0059e	ff 15 00 00 00
	00		 call	 DWORD PTR __imp_??4?$CStringT@DV?$StrTraitMFC_DLL@DV?$ChTraitsCRT@D@ATL@@@@@ATL@@QAEAAV01@ABV01@@Z
  005a4	8d 4d fc	 lea	 ecx, DWORD PTR $T3[ebp]
  005a7	ff 15 00 00 00
	00		 call	 DWORD PTR __imp_??1?$CStringT@DV?$StrTraitMFC_DLL@DV?$ChTraitsCRT@D@ATL@@@@@ATL@@QAE@XZ
  005ad	8d 4d 14	 lea	 ecx, DWORD PTR $T13[ebp]
  005b0	ff 15 00 00 00
	00		 call	 DWORD PTR __imp_??1?$CStringT@DV?$StrTraitMFC_DLL@DV?$ChTraitsCRT@D@ATL@@@@@ATL@@QAE@XZ

; 794  : 		}

  005b6	8d 4d 08	 lea	 ecx, DWORD PTR _strAfter$10[ebp]
$LN255@ConvertInt:

; 795  : 	}
; 796  : 	return strResult;

  005b9	ff 15 00 00 00
	00		 call	 DWORD PTR __imp_??1?$CStringT@DV?$StrTraitMFC_DLL@DV?$ChTraitsCRT@D@ATL@@@@@ATL@@QAE@XZ
  005bf	8d 4d 18	 lea	 ecx, DWORD PTR _strBefore$20[ebp]
$LN254@ConvertInt:
  005c2	ff 15 00 00 00
	00		 call	 DWORD PTR __imp_??1?$CStringT@DV?$StrTraitMFC_DLL@DV?$ChTraitsCRT@D@ATL@@@@@ATL@@QAE@XZ
  005c8	8d 4d 10	 lea	 ecx, DWORD PTR _strData$[ebp]
  005cb	ff 15 00 00 00
	00		 call	 DWORD PTR __imp_??1?$CStringT@DV?$StrTraitMFC_DLL@DV?$ChTraitsCRT@D@ATL@@@@@ATL@@QAE@XZ
  005d1	5f		 pop	 edi
  005d2	8b c6		 mov	 eax, esi
  005d4	5e		 pop	 esi
  005d5	5b		 pop	 ebx

; 797  : }

  005d6	8b e5		 mov	 esp, ebp
  005d8	5d		 pop	 ebp
  005d9	c2 14 00	 ret	 20			; 00000014H
?ConvertIntToPoint@CDataUtilManager@@UAG?AV?$CStringT@DV?$StrTraitMFC_DLL@DV?$ChTraitsCRT@D@ATL@@@@@ATL@@V23@HH@Z ENDP ; CDataUtilManager::ConvertIntToPoint
_TEXT	ENDS
; Function compile flags: /Ogtp
; File D:\git\src\IBK\IBK_DRFN\ProjSrc\SrcDrfn\DrCommon\PcTrMng\_DataUtilManager.cpp
; File C:\Program Files (x86)\Microsoft Visual Studio\2019\Community\VC\Tools\MSVC\14.29.30133\atlmfc\include\afxwin1.inl
; File D:\git\src\IBK\IBK_DRFN\ProjSrc\SrcDrfn\DrCommon\PcTrMng\_DataUtilManager.cpp
;	COMDAT ?Str2LogFont@CDataUtilManager@@UAG?AUtagLOGFONTA@@AAV?$CStringT@DV?$StrTraitMFC_DLL@DV?$ChTraitsCRT@D@ATL@@@@@ATL@@@Z
_TEXT	SEGMENT
_dc$ = -80						; size = 20
_size$ = -60						; size = 8
_strikeout$ = -52					; size = 4
_underline$ = -48					; size = 4
_italic$ = -44						; size = 4
_weight$ = -40						; size = 4
_szFontName$ = -36					; size = 32
__$ArrayPad$ = -4					; size = 4
_this$ = 8						; size = 4
___$ReturnUdt$ = 12					; size = 4
_str$ = 16						; size = 4
?Str2LogFont@CDataUtilManager@@UAG?AUtagLOGFONTA@@AAV?$CStringT@DV?$StrTraitMFC_DLL@DV?$ChTraitsCRT@D@ATL@@@@@ATL@@@Z PROC ; CDataUtilManager::Str2LogFont, COMDAT

; 698  : {

  00000	55		 push	 ebp
  00001	8b ec		 mov	 ebp, esp
  00003	83 ec 50	 sub	 esp, 80			; 00000050H
  00006	a1 00 00 00 00	 mov	 eax, DWORD PTR ___security_cookie
  0000b	33 c5		 xor	 eax, ebp
  0000d	89 45 fc	 mov	 DWORD PTR __$ArrayPad$[ebp], eax
  00010	56		 push	 esi
  00011	8b 75 10	 mov	 esi, DWORD PTR _str$[ebp]

; 699  : 	str.TrimLeft();

  00014	8b ce		 mov	 ecx, esi
  00016	57		 push	 edi
  00017	8b 7d 0c	 mov	 edi, DWORD PTR ___$ReturnUdt$[ebp]
  0001a	ff 15 00 00 00
	00		 call	 DWORD PTR __imp_?TrimLeft@?$CStringT@DV?$StrTraitMFC_DLL@DV?$ChTraitsCRT@D@ATL@@@@@ATL@@QAEAAV12@XZ

; 700  : 	str.TrimRight();

  00020	8b ce		 mov	 ecx, esi
  00022	ff 15 00 00 00
	00		 call	 DWORD PTR __imp_?TrimRight@?$CStringT@DV?$StrTraitMFC_DLL@DV?$ChTraitsCRT@D@ATL@@@@@ATL@@QAEAAV12@XZ

; 701  : 	
; 702  : 	char szFontName[LF_FACESIZE] = {0,};
; 703  : 	double size = 10;
; 704  : 	int italic,underline,strikeout,weight;
; 705  : 	italic = underline = strikeout = weight = 0;
; 706  : 	
; 707  : 	//FontName/Size/Italic/UnderLine/StrikeOut/Weight
; 708  : 	int nFieldCount = sscanf(str,"%[^,],%lf,%d,%d,%d,%d", szFontName,&size,&italic,&underline,&strikeout,&weight);

  00028	8d 45 d8	 lea	 eax, DWORD PTR _weight$[ebp]
  0002b	c7 45 d8 00 00
	00 00		 mov	 DWORD PTR _weight$[ebp], 0
  00032	50		 push	 eax
  00033	8d 45 cc	 lea	 eax, DWORD PTR _strikeout$[ebp]
  00036	c7 45 cc 00 00
	00 00		 mov	 DWORD PTR _strikeout$[ebp], 0
  0003d	50		 push	 eax
  0003e	8d 45 d0	 lea	 eax, DWORD PTR _underline$[ebp]
  00041	c7 45 d0 00 00
	00 00		 mov	 DWORD PTR _underline$[ebp], 0
  00048	50		 push	 eax
  00049	8d 45 d4	 lea	 eax, DWORD PTR _italic$[ebp]
  0004c	c7 45 d4 00 00
	00 00		 mov	 DWORD PTR _italic$[ebp], 0
  00053	50		 push	 eax
  00054	8d 45 c4	 lea	 eax, DWORD PTR _size$[ebp]
  00057	0f 57 c0	 xorps	 xmm0, xmm0
  0005a	50		 push	 eax
  0005b	8d 45 dc	 lea	 eax, DWORD PTR _szFontName$[ebp]
  0005e	50		 push	 eax
  0005f	0f 11 45 dc	 movups	 XMMWORD PTR _szFontName$[ebp], xmm0
  00063	68 00 00 00 00	 push	 OFFSET ??_C@_0BG@NLOOPDBJ@?$CF?$FL?$FO?0?$FN?0?$CFlf?0?$CFd?0?$CFd?0?$CFd?0?$CFd@
  00068	ff 36		 push	 DWORD PTR [esi]
  0006a	0f 11 45 ec	 movups	 XMMWORD PTR _szFontName$[ebp+16], xmm0
  0006e	f2 0f 10 05 00
	00 00 00	 movsd	 xmm0, QWORD PTR __real@4024000000000000
  00076	f2 0f 11 45 c4	 movsd	 QWORD PTR _size$[ebp], xmm0
  0007b	e8 00 00 00 00	 call	 _sscanf
  00080	83 c4 20	 add	 esp, 32			; 00000020H

; 709  : 	
; 710  : 	CClientDC dc(NULL);

  00083	8d 4d b0	 lea	 ecx, DWORD PTR _dc$[ebp]
  00086	6a 00		 push	 0
  00088	e8 00 00 00 00	 call	 ??0CClientDC@@QAE@PAVCWnd@@@Z ; CClientDC::CClientDC

; 711  : 	LOGFONT lf;
; 712  : 	lstrcpy(lf.lfFaceName, (LPCTSTR)szFontName);

  0008d	8d 45 dc	 lea	 eax, DWORD PTR _szFontName$[ebp]
  00090	50		 push	 eax
  00091	8d 47 1c	 lea	 eax, DWORD PTR [edi+28]
  00094	50		 push	 eax
  00095	ff 15 00 00 00
	00		 call	 DWORD PTR __imp__lstrcpyA@8
; File C:\Program Files (x86)\Microsoft Visual Studio\2019\Community\VC\Tools\MSVC\14.29.30133\atlmfc\include\afxwin1.inl

; 334  : 	{ ASSERT(m_hAttribDC != NULL); return ::GetDeviceCaps(m_hAttribDC, nIndex); }

  0009b	6a 5a		 push	 90			; 0000005aH
  0009d	ff 75 b8	 push	 DWORD PTR _dc$[ebp+8]
  000a0	ff 15 00 00 00
	00		 call	 DWORD PTR __imp__GetDeviceCaps@8
; File D:\git\src\IBK\IBK_DRFN\ProjSrc\SrcDrfn\DrCommon\PcTrMng\_DataUtilManager.cpp

; 713  : 	lf.lfHeight = MulDiv((int)size, dc.GetDeviceCaps(LOGPIXELSY), 72);

  000a6	6a 48		 push	 72			; 00000048H
  000a8	50		 push	 eax
  000a9	f2 0f 2c 45 c4	 cvttsd2si eax, QWORD PTR _size$[ebp]
  000ae	50		 push	 eax
  000af	ff 15 00 00 00
	00		 call	 DWORD PTR __imp__MulDiv@12
  000b5	89 07		 mov	 DWORD PTR [edi], eax

; 714  : 	lf.lfWidth = 0;
; 715  : 	lf.lfWeight = weight;
; 716  : 	
; 717  : 	lf.lfItalic = italic;
; 718  : 	lf.lfUnderline = underline;
; 719  : 	lf.lfStrikeOut = strikeout;
; 720  : 	
; 721  : 	lf.lfEscapement = 0;
; 722  : 	lf.lfOrientation = 0;
; 723  : 	lf.lfPitchAndFamily = DEFAULT_PITCH; 
; 724  : 	lf.lfQuality = DEFAULT_QUALITY;
; 725  : 	lf.lfCharSet = HANGEUL_CHARSET;                                                
; 726  : 	lf.lfOutPrecision = OUT_DEFAULT_PRECIS;
; 727  : 	lf.lfClipPrecision = CLIP_DEFAULT_PRECIS;
; 728  : 	
; 729  : 	return lf;	

  000b7	8d 4d b0	 lea	 ecx, DWORD PTR _dc$[ebp]
  000ba	8b 45 d8	 mov	 eax, DWORD PTR _weight$[ebp]
  000bd	89 47 10	 mov	 DWORD PTR [edi+16], eax
  000c0	0f b6 45 d4	 movzx	 eax, BYTE PTR _italic$[ebp]
  000c4	88 47 14	 mov	 BYTE PTR [edi+20], al
  000c7	0f b6 45 d0	 movzx	 eax, BYTE PTR _underline$[ebp]
  000cb	88 47 15	 mov	 BYTE PTR [edi+21], al
  000ce	0f b6 45 cc	 movzx	 eax, BYTE PTR _strikeout$[ebp]
  000d2	c7 47 04 00 00
	00 00		 mov	 DWORD PTR [edi+4], 0
  000d9	88 47 16	 mov	 BYTE PTR [edi+22], al
  000dc	c7 47 08 00 00
	00 00		 mov	 DWORD PTR [edi+8], 0
  000e3	c7 47 0c 00 00
	00 00		 mov	 DWORD PTR [edi+12], 0
  000ea	66 c7 47 1a 00
	00		 mov	 WORD PTR [edi+26], 0
  000f0	66 c7 47 17 81
	00		 mov	 WORD PTR [edi+23], 129	; 00000081H
  000f6	c6 47 19 00	 mov	 BYTE PTR [edi+25], 0
  000fa	e8 00 00 00 00	 call	 ??1CClientDC@@UAE@XZ	; CClientDC::~CClientDC

; 730  : }

  000ff	8b 4d fc	 mov	 ecx, DWORD PTR __$ArrayPad$[ebp]
  00102	8b c7		 mov	 eax, edi
  00104	5f		 pop	 edi
  00105	33 cd		 xor	 ecx, ebp
  00107	5e		 pop	 esi
  00108	e8 00 00 00 00	 call	 @__security_check_cookie@4
  0010d	8b e5		 mov	 esp, ebp
  0010f	5d		 pop	 ebp
  00110	c2 0c 00	 ret	 12			; 0000000cH
?Str2LogFont@CDataUtilManager@@UAG?AUtagLOGFONTA@@AAV?$CStringT@DV?$StrTraitMFC_DLL@DV?$ChTraitsCRT@D@ATL@@@@@ATL@@@Z ENDP ; CDataUtilManager::Str2LogFont
_TEXT	ENDS
; Function compile flags: /Ogtp
; File D:\git\src\IBK\IBK_DRFN\ProjSrc\SrcDrfn\DrCommon\PcTrMng\_DataUtilManager.cpp
;	COMDAT ?String2Olechar@CDataUtilManager@@UAGXPBDAA_WH@Z
_TEXT	SEGMENT
_this$ = 8						; size = 4
__szFrom$ = 12						; size = 4
_szTo$ = 16						; size = 4
_nLen$ = 20						; size = 4
?String2Olechar@CDataUtilManager@@UAGXPBDAA_WH@Z PROC	; CDataUtilManager::String2Olechar, COMDAT

; 693  : {

  00000	55		 push	 ebp
  00001	8b ec		 mov	 ebp, esp

; 694  : 	MultiByteToWideChar(CP_ACP, 0, (char*)_szFrom, -1, &szTo, nLen);

  00003	ff 75 14	 push	 DWORD PTR _nLen$[ebp]
  00006	ff 75 10	 push	 DWORD PTR _szTo$[ebp]
  00009	6a ff		 push	 -1
  0000b	ff 75 0c	 push	 DWORD PTR __szFrom$[ebp]
  0000e	6a 00		 push	 0
  00010	6a 00		 push	 0
  00012	ff 15 00 00 00
	00		 call	 DWORD PTR __imp__MultiByteToWideChar@24

; 695  : }

  00018	5d		 pop	 ebp
  00019	c2 10 00	 ret	 16			; 00000010H
?String2Olechar@CDataUtilManager@@UAGXPBDAA_WH@Z ENDP	; CDataUtilManager::String2Olechar
_TEXT	ENDS
; Function compile flags: /Ogtp
; File D:\git\src\IBK\IBK_DRFN\ProjSrc\SrcDrfn\DrCommon\PcTrMng\_DataUtilManager.cpp
; File C:\Program Files (x86)\Microsoft Visual Studio\2019\Community\VC\Tools\MSVC\14.29.30133\atlmfc\include\atltypes.h
; File D:\git\src\IBK\IBK_DRFN\ProjSrc\SrcDrfn\DrCommon\PcTrMng\_DataUtilManager.cpp
; File C:\Program Files (x86)\Microsoft Visual Studio\2019\Community\VC\Tools\MSVC\14.29.30133\atlmfc\include\atltypes.h
; File D:\git\src\IBK\IBK_DRFN\ProjSrc\SrcDrfn\DrCommon\PcTrMng\_DataUtilManager.cpp
; File C:\Program Files (x86)\Microsoft Visual Studio\2019\Community\VC\Tools\MSVC\14.29.30133\atlmfc\include\atltypes.h
; File D:\git\src\IBK\IBK_DRFN\ProjSrc\SrcDrfn\DrCommon\PcTrMng\_DataUtilManager.cpp
;	COMDAT ?Str2Size@CDataUtilManager@@UAG?AVCSize@@AAV?$CStringT@DV?$StrTraitMFC_DLL@DV?$ChTraitsCRT@D@ATL@@@@@ATL@@@Z
_TEXT	SEGMENT
_cy$ = -4						; size = 4
_this$ = 8						; size = 4
___$ReturnUdt$ = 12					; size = 4
_cx$ = 16						; size = 4
_str$ = 16						; size = 4
?Str2Size@CDataUtilManager@@UAG?AVCSize@@AAV?$CStringT@DV?$StrTraitMFC_DLL@DV?$ChTraitsCRT@D@ATL@@@@@ATL@@@Z PROC ; CDataUtilManager::Str2Size, COMDAT

; 678  : {

  00000	55		 push	 ebp
  00001	8b ec		 mov	 ebp, esp
  00003	51		 push	 ecx
  00004	56		 push	 esi

; 679  : 	str.TrimLeft();

  00005	8b 75 10	 mov	 esi, DWORD PTR _str$[ebp]
  00008	8b ce		 mov	 ecx, esi
  0000a	57		 push	 edi
  0000b	ff 15 00 00 00
	00		 call	 DWORD PTR __imp_?TrimLeft@?$CStringT@DV?$StrTraitMFC_DLL@DV?$ChTraitsCRT@D@ATL@@@@@ATL@@QAEAAV12@XZ

; 680  : 	str.TrimRight();

  00011	8b ce		 mov	 ecx, esi
  00013	ff 15 00 00 00
	00		 call	 DWORD PTR __imp_?TrimRight@?$CStringT@DV?$StrTraitMFC_DLL@DV?$ChTraitsCRT@D@ATL@@@@@ATL@@QAEAAV12@XZ
; File C:\Program Files (x86)\Microsoft Visual Studio\2019\Community\VC\Tools\MSVC\14.29.30133\atlmfc\include\atltypes.h

; 312  : 	cx = initCX;

  00019	8b 7d 0c	 mov	 edi, DWORD PTR ___$ReturnUdt$[ebp]
; File D:\git\src\IBK\IBK_DRFN\ProjSrc\SrcDrfn\DrCommon\PcTrMng\_DataUtilManager.cpp

; 685  : 	int nRet = sscanf(str, "%d,%d", &cx, &cy);

  0001c	8d 45 fc	 lea	 eax, DWORD PTR _cy$[ebp]
  0001f	50		 push	 eax
  00020	8d 45 10	 lea	 eax, DWORD PTR _cx$[ebp]
  00023	50		 push	 eax
  00024	68 00 00 00 00	 push	 OFFSET ??_C@_05KABNCBHK@?$CFd?0?$CFd@
  00029	ff 36		 push	 DWORD PTR [esi]
; File C:\Program Files (x86)\Microsoft Visual Studio\2019\Community\VC\Tools\MSVC\14.29.30133\atlmfc\include\atltypes.h

; 312  : 	cx = initCX;

  0002b	c7 07 00 00 00
	00		 mov	 DWORD PTR [edi], 0

; 313  : 	cy = initCY;

  00031	c7 47 04 00 00
	00 00		 mov	 DWORD PTR [edi+4], 0
; File D:\git\src\IBK\IBK_DRFN\ProjSrc\SrcDrfn\DrCommon\PcTrMng\_DataUtilManager.cpp

; 685  : 	int nRet = sscanf(str, "%d,%d", &cx, &cy);

  00038	e8 00 00 00 00	 call	 _sscanf
  0003d	83 c4 10	 add	 esp, 16			; 00000010H

; 686  : 	
; 687  : 	if(nRet == 2)

  00040	83 f8 02	 cmp	 eax, 2
  00043	8b c7		 mov	 eax, edi
  00045	75 0b		 jne	 SHORT $LN2@Str2Size
; File C:\Program Files (x86)\Microsoft Visual Studio\2019\Community\VC\Tools\MSVC\14.29.30133\atlmfc\include\atltypes.h

; 312  : 	cx = initCX;

  00047	8b 4d 10	 mov	 ecx, DWORD PTR _cx$[ebp]

; 313  : 	cy = initCY;

  0004a	8b 55 fc	 mov	 edx, DWORD PTR _cy$[ebp]
; File D:\git\src\IBK\IBK_DRFN\ProjSrc\SrcDrfn\DrCommon\PcTrMng\_DataUtilManager.cpp

; 688  : 		size = CSize(cx,cy);

  0004d	89 0f		 mov	 DWORD PTR [edi], ecx
  0004f	89 57 04	 mov	 DWORD PTR [edi+4], edx
$LN2@Str2Size:

; 689  : 	return size;
; 690  : }

  00052	5f		 pop	 edi
  00053	5e		 pop	 esi
  00054	8b e5		 mov	 esp, ebp
  00056	5d		 pop	 ebp
  00057	c2 0c 00	 ret	 12			; 0000000cH
?Str2Size@CDataUtilManager@@UAG?AVCSize@@AAV?$CStringT@DV?$StrTraitMFC_DLL@DV?$ChTraitsCRT@D@ATL@@@@@ATL@@@Z ENDP ; CDataUtilManager::Str2Size
_TEXT	ENDS
; Function compile flags: /Ogtp
; File D:\git\src\IBK\IBK_DRFN\ProjSrc\SrcDrfn\DrCommon\PcTrMng\_DataUtilManager.cpp
; File C:\Program Files (x86)\Microsoft Visual Studio\2019\Community\VC\Tools\MSVC\14.29.30133\atlmfc\include\cstringt.h
; File D:\git\src\IBK\IBK_DRFN\ProjSrc\SrcDrfn\DrCommon\PcTrMng\_DataUtilManager.cpp
; File C:\Program Files (x86)\Microsoft Visual Studio\2019\Community\VC\Tools\MSVC\14.29.30133\atlmfc\include\cstringt.h
; File D:\git\src\IBK\IBK_DRFN\ProjSrc\SrcDrfn\DrCommon\PcTrMng\_DataUtilManager.cpp
;	COMDAT ?Str2Boolean@CDataUtilManager@@UAGHAAV?$CStringT@DV?$StrTraitMFC_DLL@DV?$ChTraitsCRT@D@ATL@@@@@ATL@@@Z
_TEXT	SEGMENT
_this$ = 8						; size = 4
_str$ = 12						; size = 4
?Str2Boolean@CDataUtilManager@@UAGHAAV?$CStringT@DV?$StrTraitMFC_DLL@DV?$ChTraitsCRT@D@ATL@@@@@ATL@@@Z PROC ; CDataUtilManager::Str2Boolean, COMDAT

; 667  : {

  00000	55		 push	 ebp
  00001	8b ec		 mov	 ebp, esp
  00003	56		 push	 esi

; 668  : 	str.TrimLeft();

  00004	8b 75 0c	 mov	 esi, DWORD PTR _str$[ebp]
  00007	8b ce		 mov	 ecx, esi
  00009	ff 15 00 00 00
	00		 call	 DWORD PTR __imp_?TrimLeft@?$CStringT@DV?$StrTraitMFC_DLL@DV?$ChTraitsCRT@D@ATL@@@@@ATL@@QAEAAV12@XZ

; 669  : 	str.TrimRight();

  0000f	8b ce		 mov	 ecx, esi
  00011	ff 15 00 00 00
	00		 call	 DWORD PTR __imp_?TrimRight@?$CStringT@DV?$StrTraitMFC_DLL@DV?$ChTraitsCRT@D@ATL@@@@@ATL@@QAEAAV12@XZ
; File C:\Program Files (x86)\Microsoft Visual Studio\2019\Community\VC\Tools\MSVC\14.29.30133\atlmfc\include\cstringt.h

; 2486 : 		return(str1.Compare(psz2) == 0);

  00017	68 00 00 00 00	 push	 OFFSET ??_C@_04HCDDPBNL@TRUE@
  0001c	8b ce		 mov	 ecx, esi
  0001e	ff 15 00 00 00
	00		 call	 DWORD PTR __imp_?Compare@?$CStringT@DV?$StrTraitMFC_DLL@DV?$ChTraitsCRT@D@ATL@@@@@ATL@@QBEHPBD@Z
  00024	85 c0		 test	 eax, eax
; File D:\git\src\IBK\IBK_DRFN\ProjSrc\SrcDrfn\DrCommon\PcTrMng\_DataUtilManager.cpp

; 671  : 	if(str == _T("TRUE") || str == _T("1"))

  00026	74 18		 je	 SHORT $LN4@Str2Boolea
; File C:\Program Files (x86)\Microsoft Visual Studio\2019\Community\VC\Tools\MSVC\14.29.30133\atlmfc\include\cstringt.h

; 2486 : 		return(str1.Compare(psz2) == 0);

  00028	68 00 00 00 00	 push	 OFFSET ??_C@_01HIHLOKLC@1@
  0002d	8b ce		 mov	 ecx, esi
  0002f	ff 15 00 00 00
	00		 call	 DWORD PTR __imp_?Compare@?$CStringT@DV?$StrTraitMFC_DLL@DV?$ChTraitsCRT@D@ATL@@@@@ATL@@QBEHPBD@Z
  00035	85 c0		 test	 eax, eax
; File D:\git\src\IBK\IBK_DRFN\ProjSrc\SrcDrfn\DrCommon\PcTrMng\_DataUtilManager.cpp

; 671  : 	if(str == _T("TRUE") || str == _T("1"))

  00037	74 07		 je	 SHORT $LN4@Str2Boolea

; 673  : 	else
; 674  : 		return FALSE;

  00039	33 c0		 xor	 eax, eax
  0003b	5e		 pop	 esi

; 675  : }

  0003c	5d		 pop	 ebp
  0003d	c2 08 00	 ret	 8
$LN4@Str2Boolea:

; 672  : 		return TRUE;

  00040	b8 01 00 00 00	 mov	 eax, 1
  00045	5e		 pop	 esi

; 675  : }

  00046	5d		 pop	 ebp
  00047	c2 08 00	 ret	 8
?Str2Boolean@CDataUtilManager@@UAGHAAV?$CStringT@DV?$StrTraitMFC_DLL@DV?$ChTraitsCRT@D@ATL@@@@@ATL@@@Z ENDP ; CDataUtilManager::Str2Boolean
_TEXT	ENDS
; Function compile flags: /Ogtp
; File D:\git\src\IBK\IBK_DRFN\ProjSrc\SrcDrfn\DrCommon\PcTrMng\_DataUtilManager.cpp
;	COMDAT ?Color2String@CDataUtilManager@@UAG?AV?$CStringT@DV?$StrTraitMFC_DLL@DV?$ChTraitsCRT@D@ATL@@@@@ATL@@K@Z
_TEXT	SEGMENT
_this$ = 8						; size = 4
___$ReturnUdt$ = 12					; size = 4
_color$ = 16						; size = 4
?Color2String@CDataUtilManager@@UAG?AV?$CStringT@DV?$StrTraitMFC_DLL@DV?$ChTraitsCRT@D@ATL@@@@@ATL@@K@Z PROC ; CDataUtilManager::Color2String, COMDAT

; 658  : {

  00000	55		 push	 ebp
  00001	8b ec		 mov	 ebp, esp
  00003	56		 push	 esi

; 659  : 	CString szReturn;

  00004	8b 75 0c	 mov	 esi, DWORD PTR ___$ReturnUdt$[ebp]
  00007	8b ce		 mov	 ecx, esi
  00009	ff 15 00 00 00
	00		 call	 DWORD PTR __imp_??0?$CStringT@DV?$StrTraitMFC_DLL@DV?$ChTraitsCRT@D@ATL@@@@@ATL@@QAE@XZ

; 660  : 	
; 661  : 	szReturn.Format("%d,%d,%d",GetRValue(color),GetGValue(color), GetBValue(color));

  0000f	8b 55 10	 mov	 edx, DWORD PTR _color$[ebp]
  00012	8b c2		 mov	 eax, edx
  00014	c1 e8 10	 shr	 eax, 16			; 00000010H
  00017	0f b6 c0	 movzx	 eax, al
  0001a	50		 push	 eax
  0001b	0f b7 ca	 movzx	 ecx, dx
  0001e	c1 e9 08	 shr	 ecx, 8
  00021	51		 push	 ecx
  00022	0f b6 ca	 movzx	 ecx, dl
  00025	51		 push	 ecx
  00026	68 00 00 00 00	 push	 OFFSET ??_C@_08GDAMKODC@?$CFd?0?$CFd?0?$CFd@
  0002b	56		 push	 esi
  0002c	ff 15 00 00 00
	00		 call	 DWORD PTR __imp_?Format@?$CStringT@DV?$StrTraitMFC_DLL@DV?$ChTraitsCRT@D@ATL@@@@@ATL@@QAAXPBDZZ
  00032	83 c4 14	 add	 esp, 20			; 00000014H

; 662  : 	
; 663  : 	return szReturn;

  00035	8b c6		 mov	 eax, esi
  00037	5e		 pop	 esi

; 664  : }

  00038	5d		 pop	 ebp
  00039	c2 0c 00	 ret	 12			; 0000000cH
?Color2String@CDataUtilManager@@UAG?AV?$CStringT@DV?$StrTraitMFC_DLL@DV?$ChTraitsCRT@D@ATL@@@@@ATL@@K@Z ENDP ; CDataUtilManager::Color2String
_TEXT	ENDS
; Function compile flags: /Ogtp
; File D:\git\src\IBK\IBK_DRFN\ProjSrc\SrcDrfn\DrCommon\PcTrMng\_DataUtilManager.cpp
;	COMDAT ?Str2RGBColor@CDataUtilManager@@UAGKPAD@Z
_TEXT	SEGMENT
_red$ = -12						; size = 4
_green$ = -8						; size = 4
_blue$ = -4						; size = 4
_this$ = 8						; size = 4
_pchData$ = 12						; size = 4
?Str2RGBColor@CDataUtilManager@@UAGKPAD@Z PROC		; CDataUtilManager::Str2RGBColor, COMDAT

; 649  : {

  00000	55		 push	 ebp
  00001	8b ec		 mov	 ebp, esp
  00003	83 ec 0c	 sub	 esp, 12			; 0000000cH

; 650  : 	int red,green, blue;
; 651  : 	sscanf(pchData, "%d,%d,%d", &red, &green, &blue);

  00006	8d 45 fc	 lea	 eax, DWORD PTR _blue$[ebp]
  00009	50		 push	 eax
  0000a	8d 45 f8	 lea	 eax, DWORD PTR _green$[ebp]
  0000d	50		 push	 eax
  0000e	8d 45 f4	 lea	 eax, DWORD PTR _red$[ebp]
  00011	50		 push	 eax
  00012	68 00 00 00 00	 push	 OFFSET ??_C@_08GDAMKODC@?$CFd?0?$CFd?0?$CFd@
  00017	ff 75 0c	 push	 DWORD PTR _pchData$[ebp]
  0001a	e8 00 00 00 00	 call	 _sscanf

; 652  : 	
; 653  : 	COLORREF tmpColor = RGB(red,green,blue);

  0001f	0f b6 45 fc	 movzx	 eax, BYTE PTR _blue$[ebp]
  00023	83 c4 14	 add	 esp, 20			; 00000014H
  00026	0f b6 4d f8	 movzx	 ecx, BYTE PTR _green$[ebp]
  0002a	c1 e0 08	 shl	 eax, 8
  0002d	0b c1		 or	 eax, ecx
  0002f	0f b6 4d f4	 movzx	 ecx, BYTE PTR _red$[ebp]
  00033	c1 e0 08	 shl	 eax, 8
  00036	0b c1		 or	 eax, ecx

; 654  : 	return tmpColor;
; 655  : }

  00038	8b e5		 mov	 esp, ebp
  0003a	5d		 pop	 ebp
  0003b	c2 08 00	 ret	 8
?Str2RGBColor@CDataUtilManager@@UAGKPAD@Z ENDP		; CDataUtilManager::Str2RGBColor
_TEXT	ENDS
; Function compile flags: /Ogtp
; File D:\git\src\IBK\IBK_DRFN\ProjSrc\SrcDrfn\DrCommon\PcTrMng\_DataUtilManager.cpp
;	COMDAT ?Str2RGBColor@CDataUtilManager@@UAGKAAV?$CStringT@DV?$StrTraitMFC_DLL@DV?$ChTraitsCRT@D@ATL@@@@@ATL@@@Z
_TEXT	SEGMENT
_red$ = -12						; size = 4
_green$ = -8						; size = 4
_blue$ = -4						; size = 4
_this$ = 8						; size = 4
_str$ = 12						; size = 4
?Str2RGBColor@CDataUtilManager@@UAGKAAV?$CStringT@DV?$StrTraitMFC_DLL@DV?$ChTraitsCRT@D@ATL@@@@@ATL@@@Z PROC ; CDataUtilManager::Str2RGBColor, COMDAT

; 640  : {

  00000	55		 push	 ebp
  00001	8b ec		 mov	 ebp, esp
  00003	83 ec 0c	 sub	 esp, 12			; 0000000cH

; 641  : 	int red,green, blue;
; 642  : 	sscanf(str, "%d,%d,%d", &red, &green, &blue);

  00006	8d 45 fc	 lea	 eax, DWORD PTR _blue$[ebp]
  00009	50		 push	 eax
  0000a	8d 45 f8	 lea	 eax, DWORD PTR _green$[ebp]
  0000d	50		 push	 eax
  0000e	8d 45 f4	 lea	 eax, DWORD PTR _red$[ebp]
  00011	50		 push	 eax
  00012	8b 45 0c	 mov	 eax, DWORD PTR _str$[ebp]
  00015	68 00 00 00 00	 push	 OFFSET ??_C@_08GDAMKODC@?$CFd?0?$CFd?0?$CFd@
  0001a	ff 30		 push	 DWORD PTR [eax]
  0001c	e8 00 00 00 00	 call	 _sscanf

; 643  : 	
; 644  : 	COLORREF tmpColor = RGB(red,green,blue);

  00021	0f b6 45 fc	 movzx	 eax, BYTE PTR _blue$[ebp]
  00025	83 c4 14	 add	 esp, 20			; 00000014H
  00028	0f b6 4d f8	 movzx	 ecx, BYTE PTR _green$[ebp]
  0002c	c1 e0 08	 shl	 eax, 8
  0002f	0b c1		 or	 eax, ecx
  00031	0f b6 4d f4	 movzx	 ecx, BYTE PTR _red$[ebp]
  00035	c1 e0 08	 shl	 eax, 8
  00038	0b c1		 or	 eax, ecx

; 645  : 	return tmpColor;
; 646  : }

  0003a	8b e5		 mov	 esp, ebp
  0003c	5d		 pop	 ebp
  0003d	c2 08 00	 ret	 8
?Str2RGBColor@CDataUtilManager@@UAGKAAV?$CStringT@DV?$StrTraitMFC_DLL@DV?$ChTraitsCRT@D@ATL@@@@@ATL@@@Z ENDP ; CDataUtilManager::Str2RGBColor
_TEXT	ENDS
; Function compile flags: /Ogtp
; File D:\git\src\IBK\IBK_DRFN\ProjSrc\SrcDrfn\DrCommon\PcTrMng\_DataUtilManager.cpp
; File C:\Program Files (x86)\Microsoft Visual Studio\2019\Community\VC\Tools\MSVC\14.29.30133\atlmfc\include\atltypes.h
; File D:\git\src\IBK\IBK_DRFN\ProjSrc\SrcDrfn\DrCommon\PcTrMng\_DataUtilManager.cpp
; File C:\Program Files (x86)\Microsoft Visual Studio\2019\Community\VC\Tools\MSVC\14.29.30133\atlmfc\include\atltypes.h
; File D:\git\src\IBK\IBK_DRFN\ProjSrc\SrcDrfn\DrCommon\PcTrMng\_DataUtilManager.cpp
;	COMDAT ?Str2Rect@CDataUtilManager@@UAG?AVCRect@@AAV?$CStringT@DV?$StrTraitMFC_DLL@DV?$ChTraitsCRT@D@ATL@@@@@ATL@@@Z
_TEXT	SEGMENT
_bottom$ = -12						; size = 4
_right$ = -8						; size = 4
_top$ = -4						; size = 4
_this$ = 8						; size = 4
___$ReturnUdt$ = 12					; size = 4
_left$ = 16						; size = 4
_str$ = 16						; size = 4
?Str2Rect@CDataUtilManager@@UAG?AVCRect@@AAV?$CStringT@DV?$StrTraitMFC_DLL@DV?$ChTraitsCRT@D@ATL@@@@@ATL@@@Z PROC ; CDataUtilManager::Str2Rect, COMDAT

; 629  : {

  00000	55		 push	 ebp
  00001	8b ec		 mov	 ebp, esp
  00003	83 ec 0c	 sub	 esp, 12			; 0000000cH
  00006	56		 push	 esi

; 630  : 	str.TrimLeft();

  00007	8b 75 10	 mov	 esi, DWORD PTR _str$[ebp]
  0000a	8b ce		 mov	 ecx, esi
  0000c	ff 15 00 00 00
	00		 call	 DWORD PTR __imp_?TrimLeft@?$CStringT@DV?$StrTraitMFC_DLL@DV?$ChTraitsCRT@D@ATL@@@@@ATL@@QAEAAV12@XZ

; 631  : 	str.TrimRight();

  00012	8b ce		 mov	 ecx, esi
  00014	ff 15 00 00 00
	00		 call	 DWORD PTR __imp_?TrimRight@?$CStringT@DV?$StrTraitMFC_DLL@DV?$ChTraitsCRT@D@ATL@@@@@ATL@@QAEAAV12@XZ

; 634  : 	sscanf(str,"%d,%d,%d,%d", &left, &top, &right, &bottom);

  0001a	8d 45 f4	 lea	 eax, DWORD PTR _bottom$[ebp]
  0001d	50		 push	 eax
  0001e	8d 45 f8	 lea	 eax, DWORD PTR _right$[ebp]
  00021	50		 push	 eax
  00022	8d 45 fc	 lea	 eax, DWORD PTR _top$[ebp]
  00025	50		 push	 eax
  00026	8d 45 10	 lea	 eax, DWORD PTR _left$[ebp]
  00029	50		 push	 eax
  0002a	68 00 00 00 00	 push	 OFFSET ??_C@_0M@MLCONGPP@?$CFd?0?$CFd?0?$CFd?0?$CFd@
  0002f	ff 36		 push	 DWORD PTR [esi]
  00031	e8 00 00 00 00	 call	 _sscanf
; File C:\Program Files (x86)\Microsoft Visual Studio\2019\Community\VC\Tools\MSVC\14.29.30133\atlmfc\include\atltypes.h

; 540  : 	left = l;

  00036	8b 45 0c	 mov	 eax, DWORD PTR ___$ReturnUdt$[ebp]
; File D:\git\src\IBK\IBK_DRFN\ProjSrc\SrcDrfn\DrCommon\PcTrMng\_DataUtilManager.cpp

; 634  : 	sscanf(str,"%d,%d,%d,%d", &left, &top, &right, &bottom);

  00039	83 c4 18	 add	 esp, 24			; 00000018H
; File C:\Program Files (x86)\Microsoft Visual Studio\2019\Community\VC\Tools\MSVC\14.29.30133\atlmfc\include\atltypes.h

; 540  : 	left = l;

  0003c	8b 4d 10	 mov	 ecx, DWORD PTR _left$[ebp]
  0003f	89 08		 mov	 DWORD PTR [eax], ecx

; 541  : 	top = t;

  00041	8b 4d fc	 mov	 ecx, DWORD PTR _top$[ebp]
  00044	89 48 04	 mov	 DWORD PTR [eax+4], ecx

; 542  : 	right = r;

  00047	8b 4d f8	 mov	 ecx, DWORD PTR _right$[ebp]
  0004a	89 48 08	 mov	 DWORD PTR [eax+8], ecx

; 543  : 	bottom = b;

  0004d	8b 4d f4	 mov	 ecx, DWORD PTR _bottom$[ebp]
  00050	89 48 0c	 mov	 DWORD PTR [eax+12], ecx
; File D:\git\src\IBK\IBK_DRFN\ProjSrc\SrcDrfn\DrCommon\PcTrMng\_DataUtilManager.cpp

; 636  : 	return tmpRect;

  00053	5e		 pop	 esi

; 637  : }

  00054	8b e5		 mov	 esp, ebp
  00056	5d		 pop	 ebp
  00057	c2 0c 00	 ret	 12			; 0000000cH
?Str2Rect@CDataUtilManager@@UAG?AVCRect@@AAV?$CStringT@DV?$StrTraitMFC_DLL@DV?$ChTraitsCRT@D@ATL@@@@@ATL@@@Z ENDP ; CDataUtilManager::Str2Rect
_TEXT	ENDS
; Function compile flags: /Ogtp
; File D:\git\src\IBK\IBK_DRFN\ProjSrc\SrcDrfn\DrCommon\PcTrMng\_DataUtilManager.cpp
; File C:\Program Files (x86)\Microsoft Visual Studio\2019\Community\VC\Tools\MSVC\14.29.30133\atlmfc\include\atlsimpstr.h
; File D:\git\src\IBK\IBK_DRFN\ProjSrc\SrcDrfn\DrCommon\PcTrMng\_DataUtilManager.cpp
;	COMDAT ?Str2Long@CDataUtilManager@@UAGJAAV?$CStringT@DV?$StrTraitMFC_DLL@DV?$ChTraitsCRT@D@ATL@@@@@ATL@@@Z
_TEXT	SEGMENT
_this$ = 8						; size = 4
_str$ = 12						; size = 4
?Str2Long@CDataUtilManager@@UAGJAAV?$CStringT@DV?$StrTraitMFC_DLL@DV?$ChTraitsCRT@D@ATL@@@@@ATL@@@Z PROC ; CDataUtilManager::Str2Long, COMDAT

; 619  : {

  00000	55		 push	 ebp
  00001	8b ec		 mov	 ebp, esp
  00003	56		 push	 esi

; 620  : 	str.TrimLeft();

  00004	8b 75 0c	 mov	 esi, DWORD PTR _str$[ebp]
  00007	8b ce		 mov	 ecx, esi
  00009	ff 15 00 00 00
	00		 call	 DWORD PTR __imp_?TrimLeft@?$CStringT@DV?$StrTraitMFC_DLL@DV?$ChTraitsCRT@D@ATL@@@@@ATL@@QAEAAV12@XZ

; 621  : 	str.TrimRight();

  0000f	8b ce		 mov	 ecx, esi
  00011	ff 15 00 00 00
	00		 call	 DWORD PTR __imp_?TrimRight@?$CStringT@DV?$StrTraitMFC_DLL@DV?$ChTraitsCRT@D@ATL@@@@@ATL@@QAEAAV12@XZ
; File C:\Program Files (x86)\Microsoft Visual Studio\2019\Community\VC\Tools\MSVC\14.29.30133\atlmfc\include\atlsimpstr.h

; 519  : 		return( GetData()->nDataLength );

  00017	8b 06		 mov	 eax, DWORD PTR [esi]
  00019	5e		 pop	 esi
; File D:\git\src\IBK\IBK_DRFN\ProjSrc\SrcDrfn\DrCommon\PcTrMng\_DataUtilManager.cpp

; 623  : 	if(str.GetLength()>0)

  0001a	83 78 f4 00	 cmp	 DWORD PTR [eax-12], 0
  0001e	7e 0e		 jle	 SHORT $LN2@Str2Long

; 624  : 		return atol(str);

  00020	50		 push	 eax
  00021	ff 15 00 00 00
	00		 call	 DWORD PTR __imp__atol
  00027	83 c4 04	 add	 esp, 4

; 626  : }

  0002a	5d		 pop	 ebp
  0002b	c2 08 00	 ret	 8
$LN2@Str2Long:

; 625  : 	return 0L;//

  0002e	33 c0		 xor	 eax, eax

; 626  : }

  00030	5d		 pop	 ebp
  00031	c2 08 00	 ret	 8
?Str2Long@CDataUtilManager@@UAGJAAV?$CStringT@DV?$StrTraitMFC_DLL@DV?$ChTraitsCRT@D@ATL@@@@@ATL@@@Z ENDP ; CDataUtilManager::Str2Long
_TEXT	ENDS
; Function compile flags: /Ogtp
; File D:\git\src\IBK\IBK_DRFN\ProjSrc\SrcDrfn\DrCommon\PcTrMng\_DataUtilManager.cpp
; File C:\Program Files (x86)\Microsoft Visual Studio\2019\Community\VC\Tools\MSVC\14.29.30133\atlmfc\include\atlsimpstr.h
; File D:\git\src\IBK\IBK_DRFN\ProjSrc\SrcDrfn\DrCommon\PcTrMng\_DataUtilManager.cpp
;	COMDAT ?Str2Int@CDataUtilManager@@UAGHAAV?$CStringT@DV?$StrTraitMFC_DLL@DV?$ChTraitsCRT@D@ATL@@@@@ATL@@@Z
_TEXT	SEGMENT
_this$ = 8						; size = 4
_str$ = 12						; size = 4
?Str2Int@CDataUtilManager@@UAGHAAV?$CStringT@DV?$StrTraitMFC_DLL@DV?$ChTraitsCRT@D@ATL@@@@@ATL@@@Z PROC ; CDataUtilManager::Str2Int, COMDAT

; 609  : {

  00000	55		 push	 ebp
  00001	8b ec		 mov	 ebp, esp
  00003	56		 push	 esi

; 610  : 	str.TrimLeft();

  00004	8b 75 0c	 mov	 esi, DWORD PTR _str$[ebp]
  00007	8b ce		 mov	 ecx, esi
  00009	ff 15 00 00 00
	00		 call	 DWORD PTR __imp_?TrimLeft@?$CStringT@DV?$StrTraitMFC_DLL@DV?$ChTraitsCRT@D@ATL@@@@@ATL@@QAEAAV12@XZ

; 611  : 	str.TrimRight();

  0000f	8b ce		 mov	 ecx, esi
  00011	ff 15 00 00 00
	00		 call	 DWORD PTR __imp_?TrimRight@?$CStringT@DV?$StrTraitMFC_DLL@DV?$ChTraitsCRT@D@ATL@@@@@ATL@@QAEAAV12@XZ
; File C:\Program Files (x86)\Microsoft Visual Studio\2019\Community\VC\Tools\MSVC\14.29.30133\atlmfc\include\atlsimpstr.h

; 519  : 		return( GetData()->nDataLength );

  00017	8b 06		 mov	 eax, DWORD PTR [esi]
  00019	5e		 pop	 esi
; File D:\git\src\IBK\IBK_DRFN\ProjSrc\SrcDrfn\DrCommon\PcTrMng\_DataUtilManager.cpp

; 613  : 	if(str.GetLength()>0)

  0001a	83 78 f4 00	 cmp	 DWORD PTR [eax-12], 0
  0001e	7e 0e		 jle	 SHORT $LN2@Str2Int

; 614  : 		return atoi(str);

  00020	50		 push	 eax
  00021	ff 15 00 00 00
	00		 call	 DWORD PTR __imp__atoi
  00027	83 c4 04	 add	 esp, 4

; 616  : }

  0002a	5d		 pop	 ebp
  0002b	c2 08 00	 ret	 8
$LN2@Str2Int:

; 615  : 	return 0;

  0002e	33 c0		 xor	 eax, eax

; 616  : }

  00030	5d		 pop	 ebp
  00031	c2 08 00	 ret	 8
?Str2Int@CDataUtilManager@@UAGHAAV?$CStringT@DV?$StrTraitMFC_DLL@DV?$ChTraitsCRT@D@ATL@@@@@ATL@@@Z ENDP ; CDataUtilManager::Str2Int
_TEXT	ENDS
; Function compile flags: /Ogtp
; File D:\git\src\IBK\IBK_DRFN\ProjSrc\SrcDrfn\DrCommon\PcTrMng\_DataUtilManager.cpp
;	COMDAT ?RemoveChar@CDataUtilManager@@UAG?AV?$CStringT@DV?$StrTraitMFC_DLL@DV?$ChTraitsCRT@D@ATL@@@@@ATL@@PBDD@Z
_TEXT	SEGMENT
_this$ = 8						; size = 4
___$ReturnUdt$ = 12					; size = 4
_pData$ = 16						; size = 4
_ch$ = 20						; size = 1
?RemoveChar@CDataUtilManager@@UAG?AV?$CStringT@DV?$StrTraitMFC_DLL@DV?$ChTraitsCRT@D@ATL@@@@@ATL@@PBDD@Z PROC ; CDataUtilManager::RemoveChar, COMDAT

; 315  : {

  00000	55		 push	 ebp
  00001	8b ec		 mov	 ebp, esp
  00003	56		 push	 esi
  00004	57		 push	 edi

; 316  : 	CString szNew;

  00005	8b 7d 0c	 mov	 edi, DWORD PTR ___$ReturnUdt$[ebp]
  00008	8b cf		 mov	 ecx, edi
  0000a	ff 15 00 00 00
	00		 call	 DWORD PTR __imp_??0?$CStringT@DV?$StrTraitMFC_DLL@DV?$ChTraitsCRT@D@ATL@@@@@ATL@@QAE@XZ

; 317  : 
; 318  : 	for( int i=0; *(pData+i); i++)

  00010	8b 75 10	 mov	 esi, DWORD PTR _pData$[ebp]
  00013	8a 06		 mov	 al, BYTE PTR [esi]
  00015	84 c0		 test	 al, al
  00017	74 1d		 je	 SHORT $LN11@RemoveChar

; 316  : 	CString szNew;

  00019	53		 push	 ebx
  0001a	8a 5d 14	 mov	 bl, BYTE PTR _ch$[ebp]
  0001d	0f 1f 00	 npad	 3
$LL4@RemoveChar:

; 319  : 		if((pData[i])!=ch) szNew += pData[i];

  00020	3a c3		 cmp	 al, bl
  00022	74 09		 je	 SHORT $LN2@RemoveChar
  00024	50		 push	 eax
  00025	8b cf		 mov	 ecx, edi
  00027	ff 15 00 00 00
	00		 call	 DWORD PTR __imp_??Y?$CStringT@DV?$StrTraitMFC_DLL@DV?$ChTraitsCRT@D@ATL@@@@@ATL@@QAEAAV01@D@Z
$LN2@RemoveChar:

; 317  : 
; 318  : 	for( int i=0; *(pData+i); i++)

  0002d	8a 46 01	 mov	 al, BYTE PTR [esi+1]
  00030	46		 inc	 esi
  00031	84 c0		 test	 al, al
  00033	75 eb		 jne	 SHORT $LL4@RemoveChar

; 320  : 
; 321  : 	return szNew;

  00035	5b		 pop	 ebx
$LN11@RemoveChar:

; 322  : }

  00036	8b c7		 mov	 eax, edi
  00038	5f		 pop	 edi
  00039	5e		 pop	 esi
  0003a	5d		 pop	 ebp
  0003b	c2 10 00	 ret	 16			; 00000010H
?RemoveChar@CDataUtilManager@@UAG?AV?$CStringT@DV?$StrTraitMFC_DLL@DV?$ChTraitsCRT@D@ATL@@@@@ATL@@PBDD@Z ENDP ; CDataUtilManager::RemoveChar
_TEXT	ENDS
; Function compile flags: /Ogtp
; File D:\git\src\IBK\IBK_DRFN\ProjSrc\SrcDrfn\DrCommon\PcTrMng\_DataUtilManager.cpp
;	COMDAT ?SetLengthString@CDataUtilManager@@UAG?AV?$CStringT@DV?$StrTraitMFC_DLL@DV?$ChTraitsCRT@D@ATL@@@@@ATL@@PBDH@Z
_TEXT	SEGMENT
_this$ = 8						; size = 4
___$ReturnUdt$ = 12					; size = 4
_pData$ = 16						; size = 4
_nCnt$ = 20						; size = 4
?SetLengthString@CDataUtilManager@@UAG?AV?$CStringT@DV?$StrTraitMFC_DLL@DV?$ChTraitsCRT@D@ATL@@@@@ATL@@PBDH@Z PROC ; CDataUtilManager::SetLengthString, COMDAT

; 307  : {

  00000	55		 push	 ebp
  00001	8b ec		 mov	 ebp, esp
  00003	56		 push	 esi

; 308  : 	CString strReturn;

  00004	8b 75 0c	 mov	 esi, DWORD PTR ___$ReturnUdt$[ebp]
  00007	8b ce		 mov	 ecx, esi
  00009	ff 15 00 00 00
	00		 call	 DWORD PTR __imp_??0?$CStringT@DV?$StrTraitMFC_DLL@DV?$ChTraitsCRT@D@ATL@@@@@ATL@@QAE@XZ

; 309  : 	strReturn.Format("%-*.*s",nCnt,nCnt,pData);

  0000f	ff 75 10	 push	 DWORD PTR _pData$[ebp]
  00012	8b 4d 14	 mov	 ecx, DWORD PTR _nCnt$[ebp]
  00015	51		 push	 ecx
  00016	51		 push	 ecx
  00017	68 00 00 00 00	 push	 OFFSET ??_C@_06LOHACGPJ@?$CF?9?$CK?4?$CKs@
  0001c	56		 push	 esi
  0001d	ff 15 00 00 00
	00		 call	 DWORD PTR __imp_?Format@?$CStringT@DV?$StrTraitMFC_DLL@DV?$ChTraitsCRT@D@ATL@@@@@ATL@@QAAXPBDZZ
  00023	83 c4 14	 add	 esp, 20			; 00000014H

; 310  : 	return strReturn;

  00026	8b c6		 mov	 eax, esi
  00028	5e		 pop	 esi

; 311  : 	
; 312  : }

  00029	5d		 pop	 ebp
  0002a	c2 10 00	 ret	 16			; 00000010H
?SetLengthString@CDataUtilManager@@UAG?AV?$CStringT@DV?$StrTraitMFC_DLL@DV?$ChTraitsCRT@D@ATL@@@@@ATL@@PBDH@Z ENDP ; CDataUtilManager::SetLengthString
_TEXT	ENDS
; Function compile flags: /Ogtp
; File D:\git\src\IBK\IBK_DRFN\ProjSrc\SrcDrfn\DrCommon\PcTrMng\_DataUtilManager.cpp
;	COMDAT ?GetMakeText@CDataUtilManager@@UAG?AV?$CStringT@DV?$StrTraitMFC_DLL@DV?$ChTraitsCRT@D@ATL@@@@@ATL@@DH@Z
_TEXT	SEGMENT
_this$ = 8						; size = 4
___$ReturnUdt$ = 12					; size = 4
_ch$ = 16						; size = 1
_nCnt$ = 20						; size = 4
?GetMakeText@CDataUtilManager@@UAG?AV?$CStringT@DV?$StrTraitMFC_DLL@DV?$ChTraitsCRT@D@ATL@@@@@ATL@@DH@Z PROC ; CDataUtilManager::GetMakeText, COMDAT

; 299  : {

  00000	55		 push	 ebp
  00001	8b ec		 mov	 ebp, esp
  00003	56		 push	 esi
  00004	57		 push	 edi

; 300  : 	CString szRet;

  00005	8b 7d 0c	 mov	 edi, DWORD PTR ___$ReturnUdt$[ebp]
  00008	8b cf		 mov	 ecx, edi
  0000a	ff 15 00 00 00
	00		 call	 DWORD PTR __imp_??0?$CStringT@DV?$StrTraitMFC_DLL@DV?$ChTraitsCRT@D@ATL@@@@@ATL@@QAE@XZ

; 301  : 	for(int j=0; j<nCnt; j++)	

  00010	8b 75 14	 mov	 esi, DWORD PTR _nCnt$[ebp]
  00013	85 f6		 test	 esi, esi
  00015	7e 18		 jle	 SHORT $LN10@GetMakeTex

; 300  : 	CString szRet;

  00017	53		 push	 ebx
  00018	8b 5d 10	 mov	 ebx, DWORD PTR _ch$[ebp]
  0001b	0f 1f 44 00 00	 npad	 5
$LL4@GetMakeTex:

; 302  : 		szRet += ch ;

  00020	53		 push	 ebx
  00021	8b cf		 mov	 ecx, edi
  00023	ff 15 00 00 00
	00		 call	 DWORD PTR __imp_??Y?$CStringT@DV?$StrTraitMFC_DLL@DV?$ChTraitsCRT@D@ATL@@@@@ATL@@QAEAAV01@D@Z
  00029	83 ee 01	 sub	 esi, 1
  0002c	75 f2		 jne	 SHORT $LL4@GetMakeTex

; 303  : 	return szRet;

  0002e	5b		 pop	 ebx
$LN10@GetMakeTex:

; 304  : }

  0002f	8b c7		 mov	 eax, edi
  00031	5f		 pop	 edi
  00032	5e		 pop	 esi
  00033	5d		 pop	 ebp
  00034	c2 10 00	 ret	 16			; 00000010H
?GetMakeText@CDataUtilManager@@UAG?AV?$CStringT@DV?$StrTraitMFC_DLL@DV?$ChTraitsCRT@D@ATL@@@@@ATL@@DH@Z ENDP ; CDataUtilManager::GetMakeText
_TEXT	ENDS
; Function compile flags: /Ogtp
; File D:\git\src\IBK\IBK_DRFN\ProjSrc\SrcDrfn\DrCommon\PcTrMng\_DataUtilManager.cpp
;	COMDAT ?GetNumber@CDataUtilManager@@UAG?AV?$CStringT@DV?$StrTraitMFC_DLL@DV?$ChTraitsCRT@D@ATL@@@@@ATL@@PBD@Z
_TEXT	SEGMENT
_this$ = 8						; size = 4
_ch$ = 12						; size = 1
___$ReturnUdt$ = 12					; size = 4
_pData$ = 16						; size = 4
?GetNumber@CDataUtilManager@@UAG?AV?$CStringT@DV?$StrTraitMFC_DLL@DV?$ChTraitsCRT@D@ATL@@@@@ATL@@PBD@Z PROC ; CDataUtilManager::GetNumber, COMDAT

; 152  : {

  00000	55		 push	 ebp
  00001	8b ec		 mov	 ebp, esp
  00003	53		 push	 ebx

; 153  : 	CString szRet=_T("");

  00004	8b 5d 0c	 mov	 ebx, DWORD PTR ___$ReturnUdt$[ebp]
  00007	8b cb		 mov	 ecx, ebx
  00009	56		 push	 esi
  0000a	57		 push	 edi
  0000b	68 00 00 00 00	 push	 OFFSET ??_C@_00CNPNBAHC@@
  00010	ff 15 00 00 00
	00		 call	 DWORD PTR __imp_??0?$CStringT@DV?$StrTraitMFC_DLL@DV?$ChTraitsCRT@D@ATL@@@@@ATL@@QAE@PBD@Z

; 154  : 	int nLen = strlen(pData);

  00016	8b 4d 10	 mov	 ecx, DWORD PTR _pData$[ebp]
  00019	8b f9		 mov	 edi, ecx
  0001b	8d 57 01	 lea	 edx, DWORD PTR [edi+1]
  0001e	66 90		 npad	 2
$LL13@GetNumber:
  00020	8a 07		 mov	 al, BYTE PTR [edi]
  00022	47		 inc	 edi
  00023	84 c0		 test	 al, al
  00025	75 f9		 jne	 SHORT $LL13@GetNumber
  00027	2b fa		 sub	 edi, edx
  00029	33 f6		 xor	 esi, esi

; 155  : 	char	ch;
; 156  : 
; 157  : 	for(int i=0;  i<nLen ; i++) {

  0002b	85 ff		 test	 edi, edi
  0002d	7e 2e		 jle	 SHORT $LN14@GetNumber
  0002f	90		 npad	 1
$LL4@GetNumber:

; 158  : 		ch = pData[i];

  00030	8a 04 0e	 mov	 al, BYTE PTR [esi+ecx]
  00033	88 45 0c	 mov	 BYTE PTR _ch$[ebp], al

; 159  : 		if(ch >= '0' && ch <= '9'||ch == '.' || ch == '-' || ch== '+') 

  00036	3c 30		 cmp	 al, 48			; 00000030H
  00038	7c 04		 jl	 SHORT $LN7@GetNumber
  0003a	3c 39		 cmp	 al, 57			; 00000039H
  0003c	7e 0c		 jle	 SHORT $LN6@GetNumber
$LN7@GetNumber:
  0003e	3c 2e		 cmp	 al, 46			; 0000002eH
  00040	74 08		 je	 SHORT $LN6@GetNumber
  00042	3c 2d		 cmp	 al, 45			; 0000002dH
  00044	74 04		 je	 SHORT $LN6@GetNumber
  00046	3c 2b		 cmp	 al, 43			; 0000002bH
  00048	75 0e		 jne	 SHORT $LN2@GetNumber
$LN6@GetNumber:

; 160  : 			szRet += ch;

  0004a	ff 75 0c	 push	 DWORD PTR _ch$[ebp]
  0004d	8b cb		 mov	 ecx, ebx
  0004f	ff 15 00 00 00
	00		 call	 DWORD PTR __imp_??Y?$CStringT@DV?$StrTraitMFC_DLL@DV?$ChTraitsCRT@D@ATL@@@@@ATL@@QAEAAV01@D@Z
  00055	8b 4d 10	 mov	 ecx, DWORD PTR _pData$[ebp]
$LN2@GetNumber:

; 155  : 	char	ch;
; 156  : 
; 157  : 	for(int i=0;  i<nLen ; i++) {

  00058	46		 inc	 esi
  00059	3b f7		 cmp	 esi, edi
  0005b	7c d3		 jl	 SHORT $LL4@GetNumber
$LN14@GetNumber:
  0005d	5f		 pop	 edi

; 161  : 	}
; 162  : 	return szRet;
; 163  : }

  0005e	5e		 pop	 esi
  0005f	8b c3		 mov	 eax, ebx
  00061	5b		 pop	 ebx
  00062	5d		 pop	 ebp
  00063	c2 0c 00	 ret	 12			; 0000000cH
?GetNumber@CDataUtilManager@@UAG?AV?$CStringT@DV?$StrTraitMFC_DLL@DV?$ChTraitsCRT@D@ATL@@@@@ATL@@PBD@Z ENDP ; CDataUtilManager::GetNumber
_TEXT	ENDS
; Function compile flags: /Ogtp
; File D:\git\src\IBK\IBK_DRFN\ProjSrc\SrcDrfn\DrCommon\PcTrMng\_DataUtilManager.cpp
;	COMDAT ?GetOnlyNumber@CDataUtilManager@@UAG?AV?$CStringT@DV?$StrTraitMFC_DLL@DV?$ChTraitsCRT@D@ATL@@@@@ATL@@PBD@Z
_TEXT	SEGMENT
_this$ = 8						; size = 4
___$ReturnUdt$ = 12					; size = 4
_szData$ = 16						; size = 4
?GetOnlyNumber@CDataUtilManager@@UAG?AV?$CStringT@DV?$StrTraitMFC_DLL@DV?$ChTraitsCRT@D@ATL@@@@@ATL@@PBD@Z PROC ; CDataUtilManager::GetOnlyNumber, COMDAT

; 138  : {

  00000	55		 push	 ebp
  00001	8b ec		 mov	 ebp, esp
  00003	56		 push	 esi
  00004	57		 push	 edi

; 139  : 	CString szRet=_T("");

  00005	8b 7d 0c	 mov	 edi, DWORD PTR ___$ReturnUdt$[ebp]
  00008	8b cf		 mov	 ecx, edi
  0000a	68 00 00 00 00	 push	 OFFSET ??_C@_00CNPNBAHC@@
  0000f	ff 15 00 00 00
	00		 call	 DWORD PTR __imp_??0?$CStringT@DV?$StrTraitMFC_DLL@DV?$ChTraitsCRT@D@ATL@@@@@ATL@@QAE@PBD@Z

; 140  : 
; 141  : 	for(int x=0; (szData[x]); x++) {

  00015	8b 75 10	 mov	 esi, DWORD PTR _szData$[ebp]
  00018	8a 06		 mov	 al, BYTE PTR [esi]
  0001a	84 c0		 test	 al, al
  0001c	74 1c		 je	 SHORT $LN11@GetOnlyNum
  0001e	66 90		 npad	 2
$LL4@GetOnlyNum:

; 142  : 		if( szData[x] >= '0' && szData[x] <= '9')

  00020	8a c8		 mov	 cl, al
  00022	8d 41 d0	 lea	 eax, DWORD PTR [ecx-48]
  00025	3c 09		 cmp	 al, 9
  00027	77 09		 ja	 SHORT $LN2@GetOnlyNum

; 143  : 			szRet += szData[x];

  00029	51		 push	 ecx
  0002a	8b cf		 mov	 ecx, edi
  0002c	ff 15 00 00 00
	00		 call	 DWORD PTR __imp_??Y?$CStringT@DV?$StrTraitMFC_DLL@DV?$ChTraitsCRT@D@ATL@@@@@ATL@@QAEAAV01@D@Z
$LN2@GetOnlyNum:

; 140  : 
; 141  : 	for(int x=0; (szData[x]); x++) {

  00032	8a 46 01	 mov	 al, BYTE PTR [esi+1]
  00035	46		 inc	 esi
  00036	84 c0		 test	 al, al
  00038	75 e6		 jne	 SHORT $LL4@GetOnlyNum
$LN11@GetOnlyNum:

; 144  : 	}
; 145  : 
; 146  : 	return szRet;
; 147  : }

  0003a	8b c7		 mov	 eax, edi
  0003c	5f		 pop	 edi
  0003d	5e		 pop	 esi
  0003e	5d		 pop	 ebp
  0003f	c2 0c 00	 ret	 12			; 0000000cH
?GetOnlyNumber@CDataUtilManager@@UAG?AV?$CStringT@DV?$StrTraitMFC_DLL@DV?$ChTraitsCRT@D@ATL@@@@@ATL@@PBD@Z ENDP ; CDataUtilManager::GetOnlyNumber
_TEXT	ENDS
; Function compile flags: /Ogtp
; File D:\git\src\IBK\IBK_DRFN\ProjSrc\SrcDrfn\DrCommon\PcTrMng\_DataUtilManager.cpp
; File C:\Program Files (x86)\Microsoft Visual Studio\2019\Community\VC\Tools\MSVC\14.29.30133\atlmfc\include\atlsimpstr.h
; File D:\git\src\IBK\IBK_DRFN\ProjSrc\SrcDrfn\DrCommon\PcTrMng\_DataUtilManager.cpp
; File C:\Program Files (x86)\Microsoft Visual Studio\2019\Community\VC\Tools\MSVC\14.29.30133\atlmfc\include\atlsimpstr.h
; File D:\git\src\IBK\IBK_DRFN\ProjSrc\SrcDrfn\DrCommon\PcTrMng\_DataUtilManager.cpp
; File C:\Program Files (x86)\Microsoft Visual Studio\2019\Community\VC\Tools\MSVC\14.29.30133\atlmfc\include\atlsimpstr.h
; File D:\git\src\IBK\IBK_DRFN\ProjSrc\SrcDrfn\DrCommon\PcTrMng\_DataUtilManager.cpp
; File C:\Program Files (x86)\Microsoft Visual Studio\2019\Community\VC\Tools\MSVC\14.29.30133\atlmfc\include\cstringt.h
; File D:\git\src\IBK\IBK_DRFN\ProjSrc\SrcDrfn\DrCommon\PcTrMng\_DataUtilManager.cpp
;	COMDAT ?GetComma@CDataUtilManager@@UAG?AV?$CStringT@DV?$StrTraitMFC_DLL@DV?$ChTraitsCRT@D@ATL@@@@@ATL@@PBD@Z
_TEXT	SEGMENT
_sTemp1$ = -16						; size = 4
_sTemp$ = -12						; size = 4
_szRet$ = -8						; size = 4
_szTmp$ = -4						; size = 4
$T1 = 8							; size = 4
$T2 = 8							; size = 4
$T3 = 8							; size = 4
$T4 = 8							; size = 4
_this$ = 8						; size = 4
___$ReturnUdt$ = 12					; size = 4
$T5 = 16						; size = 4
$T6 = 16						; size = 4
_pData$ = 16						; size = 4
_ch$1$ = 19						; size = 1
?GetComma@CDataUtilManager@@UAG?AV?$CStringT@DV?$StrTraitMFC_DLL@DV?$ChTraitsCRT@D@ATL@@@@@ATL@@PBD@Z PROC ; CDataUtilManager::GetComma, COMDAT

; 178  : {

  00000	55		 push	 ebp
  00001	8b ec		 mov	 ebp, esp
  00003	83 ec 10	 sub	 esp, 16			; 00000010H
  00006	56		 push	 esi

; 179  : 	CString szRet=_T("");

  00007	68 00 00 00 00	 push	 OFFSET ??_C@_00CNPNBAHC@@
  0000c	8d 4d f8	 lea	 ecx, DWORD PTR _szRet$[ebp]
  0000f	ff 15 00 00 00
	00		 call	 DWORD PTR __imp_??0?$CStringT@DV?$StrTraitMFC_DLL@DV?$ChTraitsCRT@D@ATL@@@@@ATL@@QAE@PBD@Z

; 180  : 	CString szTmp = pData;

  00015	ff 75 10	 push	 DWORD PTR _pData$[ebp]
  00018	8d 4d fc	 lea	 ecx, DWORD PTR _szTmp$[ebp]
  0001b	ff 15 00 00 00
	00		 call	 DWORD PTR __imp_??0?$CStringT@DV?$StrTraitMFC_DLL@DV?$ChTraitsCRT@D@ATL@@@@@ATL@@QAE@PBD@Z

; 181  : 	szTmp.TrimLeft();

  00021	8d 4d fc	 lea	 ecx, DWORD PTR _szTmp$[ebp]
  00024	ff 15 00 00 00
	00		 call	 DWORD PTR __imp_?TrimLeft@?$CStringT@DV?$StrTraitMFC_DLL@DV?$ChTraitsCRT@D@ATL@@@@@ATL@@QAEAAV12@XZ

; 182  : 	szTmp.TrimRight();

  0002a	8d 4d fc	 lea	 ecx, DWORD PTR _szTmp$[ebp]
  0002d	ff 15 00 00 00
	00		 call	 DWORD PTR __imp_?TrimRight@?$CStringT@DV?$StrTraitMFC_DLL@DV?$ChTraitsCRT@D@ATL@@@@@ATL@@QAEAAV12@XZ

; 183  : 
; 184  : 	szTmp = GetNumber(szTmp);

  00033	8b 75 08	 mov	 esi, DWORD PTR _this$[ebp]
  00036	8d 4d 10	 lea	 ecx, DWORD PTR $T6[ebp]
  00039	ff 75 fc	 push	 DWORD PTR _szTmp$[ebp]
  0003c	51		 push	 ecx
  0003d	8b 06		 mov	 eax, DWORD PTR [esi]
  0003f	56		 push	 esi
  00040	ff 50 4c	 call	 DWORD PTR [eax+76]
  00043	50		 push	 eax
  00044	8d 4d fc	 lea	 ecx, DWORD PTR _szTmp$[ebp]
  00047	ff 15 00 00 00
	00		 call	 DWORD PTR __imp_??4?$CStringT@DV?$StrTraitMFC_DLL@DV?$ChTraitsCRT@D@ATL@@@@@ATL@@QAEAAV01@ABV01@@Z
  0004d	8d 4d 10	 lea	 ecx, DWORD PTR $T6[ebp]
  00050	ff 15 00 00 00
	00		 call	 DWORD PTR __imp_??1?$CStringT@DV?$StrTraitMFC_DLL@DV?$ChTraitsCRT@D@ATL@@@@@ATL@@QAE@XZ
; File C:\Program Files (x86)\Microsoft Visual Studio\2019\Community\VC\Tools\MSVC\14.29.30133\atlmfc\include\atlsimpstr.h

; 533  : 		return( GetLength() == 0 );

  00056	8b 45 fc	 mov	 eax, DWORD PTR _szTmp$[ebp]
  00059	83 78 f4 00	 cmp	 DWORD PTR [eax-12], 0
; File D:\git\src\IBK\IBK_DRFN\ProjSrc\SrcDrfn\DrCommon\PcTrMng\_DataUtilManager.cpp

; 186  : 	if(szTmp.IsEmpty())	return "" ;

  0005d	75 13		 jne	 SHORT $LN5@GetComma
  0005f	8b 4d 0c	 mov	 ecx, DWORD PTR ___$ReturnUdt$[ebp]
  00062	68 00 00 00 00	 push	 OFFSET ??_C@_00CNPNBAHC@@
  00067	ff 15 00 00 00
	00		 call	 DWORD PTR __imp_??0?$CStringT@DV?$StrTraitMFC_DLL@DV?$ChTraitsCRT@D@ATL@@@@@ATL@@QAE@PBD@Z
  0006d	e9 15 02 00 00	 jmp	 $LN62@GetComma
$LN5@GetComma:

; 187  : 	TCHAR ch=' ';
; 188  : 	if(szTmp[0]=='+' ||szTmp[0]=='-') 

  00072	6a 00		 push	 0
  00074	8d 4d fc	 lea	 ecx, DWORD PTR _szTmp$[ebp]
  00077	c6 45 13 20	 mov	 BYTE PTR _ch$1$[ebp], 32 ; 00000020H
  0007b	ff 15 00 00 00
	00		 call	 DWORD PTR __imp_??A?$CSimpleStringT@D$00@ATL@@QBEDH@Z
  00081	3c 2b		 cmp	 al, 43			; 0000002bH
  00083	74 0f		 je	 SHORT $LN7@GetComma
  00085	6a 00		 push	 0
  00087	8d 4d fc	 lea	 ecx, DWORD PTR _szTmp$[ebp]
  0008a	ff 15 00 00 00
	00		 call	 DWORD PTR __imp_??A?$CSimpleStringT@D$00@ATL@@QBEDH@Z
  00090	3c 2d		 cmp	 al, 45			; 0000002dH
  00092	75 30		 jne	 SHORT $LN6@GetComma
$LN7@GetComma:

; 189  : 	{
; 190  : 		ch = szTmp[0];

  00094	6a 00		 push	 0
  00096	8d 4d fc	 lea	 ecx, DWORD PTR _szTmp$[ebp]
  00099	ff 15 00 00 00
	00		 call	 DWORD PTR __imp_??A?$CSimpleStringT@D$00@ATL@@QBEDH@Z
  0009f	88 45 13	 mov	 BYTE PTR _ch$1$[ebp], al

; 191  : 		szTmp = szTmp.Mid(1);

  000a2	8d 4d fc	 lea	 ecx, DWORD PTR _szTmp$[ebp]
  000a5	6a 01		 push	 1
  000a7	8d 45 08	 lea	 eax, DWORD PTR $T4[ebp]
  000aa	50		 push	 eax
  000ab	ff 15 00 00 00
	00		 call	 DWORD PTR __imp_?Mid@?$CStringT@DV?$StrTraitMFC_DLL@DV?$ChTraitsCRT@D@ATL@@@@@ATL@@QBE?AV12@H@Z
  000b1	50		 push	 eax
  000b2	8d 4d fc	 lea	 ecx, DWORD PTR _szTmp$[ebp]
  000b5	ff 15 00 00 00
	00		 call	 DWORD PTR __imp_??4?$CStringT@DV?$StrTraitMFC_DLL@DV?$ChTraitsCRT@D@ATL@@@@@ATL@@QAEAAV01@ABV01@@Z
  000bb	8d 4d 08	 lea	 ecx, DWORD PTR $T4[ebp]
  000be	ff 15 00 00 00
	00		 call	 DWORD PTR __imp_??1?$CStringT@DV?$StrTraitMFC_DLL@DV?$ChTraitsCRT@D@ATL@@@@@ATL@@QAE@XZ
$LN6@GetComma:

; 192  : 	}
; 193  : 
; 194  : 	//  0 
; 195  : 	CString sTemp;

  000c4	53		 push	 ebx
  000c5	8d 4d f4	 lea	 ecx, DWORD PTR _sTemp$[ebp]
  000c8	ff 15 00 00 00
	00		 call	 DWORD PTR __imp_??0?$CStringT@DV?$StrTraitMFC_DLL@DV?$ChTraitsCRT@D@ATL@@@@@ATL@@QAE@XZ

; 196  : 	TCHAR chTemp = '0';
; 197  : 	sTemp = RemoveFront(szTmp, chTemp);

  000ce	8b 06		 mov	 eax, DWORD PTR [esi]
  000d0	6a 30		 push	 48			; 00000030H
  000d2	ff 75 fc	 push	 DWORD PTR _szTmp$[ebp]
  000d5	56		 push	 esi
  000d6	ff 50 40	 call	 DWORD PTR [eax+64]
  000d9	50		 push	 eax
  000da	8d 4d f4	 lea	 ecx, DWORD PTR _sTemp$[ebp]
  000dd	ff 15 00 00 00
	00		 call	 DWORD PTR __imp_??4?$CStringT@DV?$StrTraitMFC_DLL@DV?$ChTraitsCRT@D@ATL@@@@@ATL@@QAEAAV01@PBD@Z

; 198  : 	
; 199  : 	//   
; 200  : 	CString sTemp1;

  000e3	8d 4d f0	 lea	 ecx, DWORD PTR _sTemp1$[ebp]
  000e6	ff 15 00 00 00
	00		 call	 DWORD PTR __imp_??0?$CStringT@DV?$StrTraitMFC_DLL@DV?$ChTraitsCRT@D@ATL@@@@@ATL@@QAE@XZ

; 201  : 	int nIndex = sTemp.Find(".");

  000ec	6a 00		 push	 0
  000ee	68 00 00 00 00	 push	 OFFSET ??_C@_01LFCBOECM@?4@
  000f3	8d 4d f4	 lea	 ecx, DWORD PTR _sTemp$[ebp]
  000f6	ff 15 00 00 00
	00		 call	 DWORD PTR __imp_?Find@?$CStringT@DV?$StrTraitMFC_DLL@DV?$ChTraitsCRT@D@ATL@@@@@ATL@@QBEHPBDH@Z
  000fc	8b d8		 mov	 ebx, eax

; 202  : 	if( nIndex >= 0 )

  000fe	85 db		 test	 ebx, ebx
  00100	78 47		 js	 SHORT $LN8@GetComma

; 203  : 	{
; 204  : 		sTemp1 = sTemp.Mid(nIndex+1);

  00102	8d 4b 01	 lea	 ecx, DWORD PTR [ebx+1]
  00105	51		 push	 ecx
  00106	8d 45 08	 lea	 eax, DWORD PTR $T3[ebp]
  00109	50		 push	 eax
  0010a	8d 4d f4	 lea	 ecx, DWORD PTR _sTemp$[ebp]
  0010d	ff 15 00 00 00
	00		 call	 DWORD PTR __imp_?Mid@?$CStringT@DV?$StrTraitMFC_DLL@DV?$ChTraitsCRT@D@ATL@@@@@ATL@@QBE?AV12@H@Z
  00113	50		 push	 eax
  00114	8d 4d f0	 lea	 ecx, DWORD PTR _sTemp1$[ebp]
  00117	ff 15 00 00 00
	00		 call	 DWORD PTR __imp_??4?$CStringT@DV?$StrTraitMFC_DLL@DV?$ChTraitsCRT@D@ATL@@@@@ATL@@QAEAAV01@ABV01@@Z
  0011d	8d 4d 08	 lea	 ecx, DWORD PTR $T3[ebp]
  00120	ff 15 00 00 00
	00		 call	 DWORD PTR __imp_??1?$CStringT@DV?$StrTraitMFC_DLL@DV?$ChTraitsCRT@D@ATL@@@@@ATL@@QAE@XZ

; 205  : 		szTmp = sTemp.Left(nIndex);

  00126	53		 push	 ebx
  00127	8d 45 08	 lea	 eax, DWORD PTR $T2[ebp]
  0012a	50		 push	 eax
  0012b	8d 4d f4	 lea	 ecx, DWORD PTR _sTemp$[ebp]
  0012e	ff 15 00 00 00
	00		 call	 DWORD PTR __imp_?Left@?$CStringT@DV?$StrTraitMFC_DLL@DV?$ChTraitsCRT@D@ATL@@@@@ATL@@QBE?AV12@H@Z
  00134	50		 push	 eax
  00135	8d 4d fc	 lea	 ecx, DWORD PTR _szTmp$[ebp]
  00138	ff 15 00 00 00
	00		 call	 DWORD PTR __imp_??4?$CStringT@DV?$StrTraitMFC_DLL@DV?$ChTraitsCRT@D@ATL@@@@@ATL@@QAEAAV01@ABV01@@Z
  0013e	8d 4d 08	 lea	 ecx, DWORD PTR $T2[ebp]
  00141	ff 15 00 00 00
	00		 call	 DWORD PTR __imp_??1?$CStringT@DV?$StrTraitMFC_DLL@DV?$ChTraitsCRT@D@ATL@@@@@ATL@@QAE@XZ

; 206  : 	}

  00147	eb 0d		 jmp	 SHORT $LN9@GetComma
$LN8@GetComma:

; 207  : 	else
; 208  : 		szTmp = sTemp;		

  00149	8d 45 f4	 lea	 eax, DWORD PTR _sTemp$[ebp]
  0014c	50		 push	 eax
  0014d	8d 4d fc	 lea	 ecx, DWORD PTR _szTmp$[ebp]
  00150	ff 15 00 00 00
	00		 call	 DWORD PTR __imp_??4?$CStringT@DV?$StrTraitMFC_DLL@DV?$ChTraitsCRT@D@ATL@@@@@ATL@@QAEAAV01@ABV01@@Z
$LN9@GetComma:

; 209  : 	//
; 210  : 
; 211  : 	//  0  0 
; 212  : 	if( szTmp.GetLength() == 0 )

  00156	8b 45 fc	 mov	 eax, DWORD PTR _szTmp$[ebp]
  00159	83 78 f4 00	 cmp	 DWORD PTR [eax-12], 0
  0015d	75 0e		 jne	 SHORT $LN10@GetComma

; 213  : 		szTmp = "0";

  0015f	68 00 00 00 00	 push	 OFFSET ??_C@_01GBGANLPD@0@
  00164	8d 4d fc	 lea	 ecx, DWORD PTR _szTmp$[ebp]
  00167	ff 15 00 00 00
	00		 call	 DWORD PTR __imp_??4?$CStringT@DV?$StrTraitMFC_DLL@DV?$ChTraitsCRT@D@ATL@@@@@ATL@@QAEAAV01@PBD@Z
$LN10@GetComma:

; 214  : 	
; 215  : 	szTmp.MakeReverse();

  0016d	57		 push	 edi
  0016e	8d 4d fc	 lea	 ecx, DWORD PTR _szTmp$[ebp]
  00171	ff 15 00 00 00
	00		 call	 DWORD PTR __imp_?MakeReverse@?$CStringT@DV?$StrTraitMFC_DLL@DV?$ChTraitsCRT@D@ATL@@@@@ATL@@QAEAAV12@XZ
; File C:\Program Files (x86)\Microsoft Visual Studio\2019\Community\VC\Tools\MSVC\14.29.30133\atlmfc\include\atlsimpstr.h

; 519  : 		return( GetData()->nDataLength );

  00177	8b 45 fc	 mov	 eax, DWORD PTR _szTmp$[ebp]
; File D:\git\src\IBK\IBK_DRFN\ProjSrc\SrcDrfn\DrCommon\PcTrMng\_DataUtilManager.cpp

; 217  : 	szRet.Empty();

  0017a	8d 4d f8	 lea	 ecx, DWORD PTR _szRet$[ebp]
; File C:\Program Files (x86)\Microsoft Visual Studio\2019\Community\VC\Tools\MSVC\14.29.30133\atlmfc\include\atlsimpstr.h

; 519  : 		return( GetData()->nDataLength );

  0017d	8b 78 f4	 mov	 edi, DWORD PTR [eax-12]
; File D:\git\src\IBK\IBK_DRFN\ProjSrc\SrcDrfn\DrCommon\PcTrMng\_DataUtilManager.cpp

; 217  : 	szRet.Empty();

  00180	ff 15 00 00 00
	00		 call	 DWORD PTR __imp_?Empty@?$CSimpleStringT@D$00@ATL@@QAEXXZ
  00186	33 f6		 xor	 esi, esi

; 218  :  	for(int i=0;   i<nLen;   i++) 

  00188	85 ff		 test	 edi, edi
  0018a	7e 41		 jle	 SHORT $LN3@GetComma
  0018c	0f 1f 40 00	 npad	 4
$LL4@GetComma:

; 219  : 	{
; 220  : 		if(i!=0 && !(i%3))	szRet += ',';

  00190	85 f6		 test	 esi, esi
  00192	74 1d		 je	 SHORT $LN11@GetComma
  00194	b8 ab aa aa aa	 mov	 eax, -1431655765	; aaaaaaabH
  00199	8b ce		 mov	 ecx, esi
  0019b	f7 e6		 mul	 esi
  0019d	d1 ea		 shr	 edx, 1
  0019f	8d 04 52	 lea	 eax, DWORD PTR [edx+edx*2]
  001a2	2b c8		 sub	 ecx, eax
  001a4	75 0b		 jne	 SHORT $LN11@GetComma
  001a6	6a 2c		 push	 44			; 0000002cH
  001a8	8d 4d f8	 lea	 ecx, DWORD PTR _szRet$[ebp]
  001ab	ff 15 00 00 00
	00		 call	 DWORD PTR __imp_??Y?$CStringT@DV?$StrTraitMFC_DLL@DV?$ChTraitsCRT@D@ATL@@@@@ATL@@QAEAAV01@D@Z
$LN11@GetComma:

; 221  : 		szRet += szTmp[i];

  001b1	56		 push	 esi
  001b2	8d 4d fc	 lea	 ecx, DWORD PTR _szTmp$[ebp]
  001b5	ff 15 00 00 00
	00		 call	 DWORD PTR __imp_??A?$CSimpleStringT@D$00@ATL@@QBEDH@Z
  001bb	0f b6 c0	 movzx	 eax, al
  001be	8d 4d f8	 lea	 ecx, DWORD PTR _szRet$[ebp]
  001c1	50		 push	 eax
  001c2	ff 15 00 00 00
	00		 call	 DWORD PTR __imp_??Y?$CStringT@DV?$StrTraitMFC_DLL@DV?$ChTraitsCRT@D@ATL@@@@@ATL@@QAEAAV01@D@Z
  001c8	46		 inc	 esi
  001c9	3b f7		 cmp	 esi, edi
  001cb	7c c3		 jl	 SHORT $LL4@GetComma
$LN3@GetComma:

; 222  : 	}
; 223  : 	if(ch=='-') szRet += ch;

  001cd	80 7d 13 2d	 cmp	 BYTE PTR _ch$1$[ebp], 45 ; 0000002dH
  001d1	5f		 pop	 edi
  001d2	75 0b		 jne	 SHORT $LN12@GetComma
  001d4	6a 2d		 push	 45			; 0000002dH
  001d6	8d 4d f8	 lea	 ecx, DWORD PTR _szRet$[ebp]
  001d9	ff 15 00 00 00
	00		 call	 DWORD PTR __imp_??Y?$CStringT@DV?$StrTraitMFC_DLL@DV?$ChTraitsCRT@D@ATL@@@@@ATL@@QAEAAV01@D@Z
$LN12@GetComma:

; 224  : 	szRet.MakeReverse();	

  001df	8d 4d f8	 lea	 ecx, DWORD PTR _szRet$[ebp]
  001e2	ff 15 00 00 00
	00		 call	 DWORD PTR __imp_?MakeReverse@?$CStringT@DV?$StrTraitMFC_DLL@DV?$ChTraitsCRT@D@ATL@@@@@ATL@@QAEAAV12@XZ

; 225  : 
; 226  : 	//    
; 227  : 	if( nIndex >= 0 )

  001e8	85 db		 test	 ebx, ebx
  001ea	5b		 pop	 ebx
  001eb	78 7b		 js	 SHORT $LN13@GetComma
; File C:\Program Files (x86)\Microsoft Visual Studio\2019\Community\VC\Tools\MSVC\14.29.30133\atlmfc\include\cstringt.h

; 2401 : 		CStringT strResult( str1.GetManager() );

  001ed	8d 4d f8	 lea	 ecx, DWORD PTR _szRet$[ebp]
  001f0	ff 15 00 00 00
	00		 call	 DWORD PTR __imp_?GetManager@?$CStringT@DV?$StrTraitMFC_DLL@DV?$ChTraitsCRT@D@ATL@@@@@ATL@@QBEPAUIAtlStringMgr@2@XZ
  001f6	50		 push	 eax
  001f7	8d 4d 10	 lea	 ecx, DWORD PTR $T5[ebp]
  001fa	ff 15 00 00 00
	00		 call	 DWORD PTR __imp_??0?$CStringT@DV?$StrTraitMFC_DLL@DV?$ChTraitsCRT@D@ATL@@@@@ATL@@QAE@PAUIAtlStringMgr@1@@Z

; 2402 : 
; 2403 : 		CThisSimpleString::Concatenate( strResult, str1, str1.GetLength(), psz2, CThisSimpleString::StringLength( psz2 ) );

  00200	8b 45 f8	 mov	 eax, DWORD PTR _szRet$[ebp]
  00203	6a 01		 push	 1
  00205	68 00 00 00 00	 push	 OFFSET ??_C@_01LFCBOECM@?4@
  0020a	ff 70 f4	 push	 DWORD PTR [eax-12]
  0020d	50		 push	 eax
  0020e	8d 45 10	 lea	 eax, DWORD PTR $T5[ebp]
  00211	50		 push	 eax
  00212	ff 15 00 00 00
	00		 call	 DWORD PTR __imp_?Concatenate@?$CSimpleStringT@D$00@ATL@@KAXAAV12@PBDH1H@Z
  00218	83 c4 14	 add	 esp, 20			; 00000014H

; 2390 : 		CStringT strResult( str1.GetManager() );

  0021b	8d 4d 10	 lea	 ecx, DWORD PTR $T5[ebp]
  0021e	ff 15 00 00 00
	00		 call	 DWORD PTR __imp_?GetManager@?$CStringT@DV?$StrTraitMFC_DLL@DV?$ChTraitsCRT@D@ATL@@@@@ATL@@QBEPAUIAtlStringMgr@2@XZ
  00224	50		 push	 eax
  00225	8d 4d 08	 lea	 ecx, DWORD PTR $T1[ebp]
  00228	ff 15 00 00 00
	00		 call	 DWORD PTR __imp_??0?$CStringT@DV?$StrTraitMFC_DLL@DV?$ChTraitsCRT@D@ATL@@@@@ATL@@QAE@PAUIAtlStringMgr@1@@Z

; 2391 : 
; 2392 : 		CThisSimpleString::Concatenate( strResult, str1, str1.GetLength(), str2, str2.GetLength() );

  0022e	8b 45 f0	 mov	 eax, DWORD PTR _sTemp1$[ebp]
  00231	ff 70 f4	 push	 DWORD PTR [eax-12]
  00234	50		 push	 eax
  00235	8b 45 10	 mov	 eax, DWORD PTR $T5[ebp]
  00238	ff 70 f4	 push	 DWORD PTR [eax-12]
  0023b	50		 push	 eax
  0023c	8d 45 08	 lea	 eax, DWORD PTR $T1[ebp]
  0023f	50		 push	 eax
  00240	ff 15 00 00 00
	00		 call	 DWORD PTR __imp_?Concatenate@?$CSimpleStringT@D$00@ATL@@KAXAAV12@PBDH1H@Z
  00246	83 c4 14	 add	 esp, 20			; 00000014H
; File D:\git\src\IBK\IBK_DRFN\ProjSrc\SrcDrfn\DrCommon\PcTrMng\_DataUtilManager.cpp

; 229  : 		szRet = szRet + "." +sTemp1;

  00249	8d 45 08	 lea	 eax, DWORD PTR $T1[ebp]
  0024c	8d 4d f8	 lea	 ecx, DWORD PTR _szRet$[ebp]
  0024f	50		 push	 eax
  00250	ff 15 00 00 00
	00		 call	 DWORD PTR __imp_??4?$CStringT@DV?$StrTraitMFC_DLL@DV?$ChTraitsCRT@D@ATL@@@@@ATL@@QAEAAV01@ABV01@@Z
  00256	8d 4d 08	 lea	 ecx, DWORD PTR $T1[ebp]
  00259	ff 15 00 00 00
	00		 call	 DWORD PTR __imp_??1?$CStringT@DV?$StrTraitMFC_DLL@DV?$ChTraitsCRT@D@ATL@@@@@ATL@@QAE@XZ
  0025f	8d 4d 10	 lea	 ecx, DWORD PTR $T5[ebp]
  00262	ff 15 00 00 00
	00		 call	 DWORD PTR __imp_??1?$CStringT@DV?$StrTraitMFC_DLL@DV?$ChTraitsCRT@D@ATL@@@@@ATL@@QAE@XZ
$LN13@GetComma:

; 230  : 	}
; 231  : 
; 232  : 	return szRet;

  00268	8b 4d 0c	 mov	 ecx, DWORD PTR ___$ReturnUdt$[ebp]
  0026b	8d 45 f8	 lea	 eax, DWORD PTR _szRet$[ebp]
  0026e	50		 push	 eax
  0026f	ff 15 00 00 00
	00		 call	 DWORD PTR __imp_??0?$CStringT@DV?$StrTraitMFC_DLL@DV?$ChTraitsCRT@D@ATL@@@@@ATL@@QAE@ABV01@@Z
  00275	8d 4d f0	 lea	 ecx, DWORD PTR _sTemp1$[ebp]
  00278	ff 15 00 00 00
	00		 call	 DWORD PTR __imp_??1?$CStringT@DV?$StrTraitMFC_DLL@DV?$ChTraitsCRT@D@ATL@@@@@ATL@@QAE@XZ
  0027e	8d 4d f4	 lea	 ecx, DWORD PTR _sTemp$[ebp]
  00281	ff 15 00 00 00
	00		 call	 DWORD PTR __imp_??1?$CStringT@DV?$StrTraitMFC_DLL@DV?$ChTraitsCRT@D@ATL@@@@@ATL@@QAE@XZ
$LN62@GetComma:

; 233  : 
; 234  : }

  00287	8d 4d fc	 lea	 ecx, DWORD PTR _szTmp$[ebp]
  0028a	ff 15 00 00 00
	00		 call	 DWORD PTR __imp_??1?$CStringT@DV?$StrTraitMFC_DLL@DV?$ChTraitsCRT@D@ATL@@@@@ATL@@QAE@XZ
  00290	8d 4d f8	 lea	 ecx, DWORD PTR _szRet$[ebp]
  00293	ff 15 00 00 00
	00		 call	 DWORD PTR __imp_??1?$CStringT@DV?$StrTraitMFC_DLL@DV?$ChTraitsCRT@D@ATL@@@@@ATL@@QAE@XZ
  00299	8b 45 0c	 mov	 eax, DWORD PTR ___$ReturnUdt$[ebp]
  0029c	5e		 pop	 esi
  0029d	8b e5		 mov	 esp, ebp
  0029f	5d		 pop	 ebp
  002a0	c2 0c 00	 ret	 12			; 0000000cH
?GetComma@CDataUtilManager@@UAG?AV?$CStringT@DV?$StrTraitMFC_DLL@DV?$ChTraitsCRT@D@ATL@@@@@ATL@@PBD@Z ENDP ; CDataUtilManager::GetComma
_TEXT	ENDS
; Function compile flags: /Ogtp
; File D:\git\src\IBK\IBK_DRFN\ProjSrc\SrcDrfn\DrCommon\PcTrMng\_DataUtilManager.cpp
;	COMDAT ?RemoveFront@CDataUtilManager@@UAGPADPBDD@Z
_TEXT	SEGMENT
_this$ = 8						; size = 4
_pData$ = 12						; size = 4
_ch$ = 16						; size = 1
?RemoveFront@CDataUtilManager@@UAGPADPBDD@Z PROC	; CDataUtilManager::RemoveFront, COMDAT

; 81   : {

  00000	55		 push	 ebp
  00001	8b ec		 mov	 ebp, esp
  00003	53		 push	 ebx
  00004	56		 push	 esi
  00005	57		 push	 edi

; 82   : 	int nLen = strlen(pData);

  00006	8b 7d 0c	 mov	 edi, DWORD PTR _pData$[ebp]
  00009	8b c7		 mov	 eax, edi
  0000b	8d 50 01	 lea	 edx, DWORD PTR [eax+1]
  0000e	66 90		 npad	 2
$LL13@RemoveFron:
  00010	8a 08		 mov	 cl, BYTE PTR [eax]
  00012	40		 inc	 eax
  00013	84 c9		 test	 cl, cl
  00015	75 f9		 jne	 SHORT $LL13@RemoveFron

; 83   : 	int nSameCharCnt = 0;
; 84   : 
; 85   : 	for(int i=0;  i<nLen ; i++) 

  00017	8a 5d 10	 mov	 bl, BYTE PTR _ch$[ebp]
  0001a	2b c2		 sub	 eax, edx
  0001c	33 d2		 xor	 edx, edx
  0001e	33 c9		 xor	 ecx, ecx
  00020	85 c0		 test	 eax, eax
  00022	7e 0e		 jle	 SHORT $LN3@RemoveFron
$LL4@RemoveFron:

; 86   : 	{  
; 87   : 		if(pData[i]!=ch) return (char *)&pData[i];

  00024	38 1c 39	 cmp	 BYTE PTR [ecx+edi], bl
  00027	8d 34 39	 lea	 esi, DWORD PTR [ecx+edi]
  0002a	75 19		 jne	 SHORT $LN9@RemoveFron

; 88   : 		nSameCharCnt++;

  0002c	41		 inc	 ecx
  0002d	42		 inc	 edx
  0002e	3b c8		 cmp	 ecx, eax
  00030	7c f2		 jl	 SHORT $LL4@RemoveFron
$LN3@RemoveFron:

; 89   : 	}
; 90   : 
; 91   : 	//   
; 92   : 	if(ch == '0' && nSameCharCnt == nLen)

  00032	80 fb 30	 cmp	 bl, 48			; 00000030H
  00035	75 17		 jne	 SHORT $LN6@RemoveFron
  00037	3b d0		 cmp	 edx, eax
  00039	75 13		 jne	 SHORT $LN6@RemoveFron

; 93   : 	{
; 94   : 		return (char*)&pData[nLen-1] ;

  0003b	48		 dec	 eax
  0003c	03 c7		 add	 eax, edi
  0003e	5f		 pop	 edi

; 98   : }

  0003f	5e		 pop	 esi
  00040	5b		 pop	 ebx
  00041	5d		 pop	 ebp
  00042	c2 0c 00	 ret	 12			; 0000000cH
$LN9@RemoveFron:
  00045	5f		 pop	 edi

; 86   : 	{  
; 87   : 		if(pData[i]!=ch) return (char *)&pData[i];

  00046	8b c6		 mov	 eax, esi

; 98   : }

  00048	5e		 pop	 esi
  00049	5b		 pop	 ebx
  0004a	5d		 pop	 ebp
  0004b	c2 0c 00	 ret	 12			; 0000000cH
$LN6@RemoveFron:

; 95   : 	}
; 96   : 
; 97   : 	return (char *)pData;

  0004e	8b c7		 mov	 eax, edi
  00050	5f		 pop	 edi

; 98   : }

  00051	5e		 pop	 esi
  00052	5b		 pop	 ebx
  00053	5d		 pop	 ebp
  00054	c2 0c 00	 ret	 12			; 0000000cH
?RemoveFront@CDataUtilManager@@UAGPADPBDD@Z ENDP	; CDataUtilManager::RemoveFront
_TEXT	ENDS
; Function compile flags: /Ogtp
; File D:\git\src\IBK\IBK_DRFN\ProjSrc\SrcDrfn\DrCommon\PcTrMng\_DataUtilManager.cpp
; File C:\Program Files (x86)\Microsoft Visual Studio\2019\Community\VC\Tools\MSVC\14.29.30133\atlmfc\include\atlsimpstr.h
; File D:\git\src\IBK\IBK_DRFN\ProjSrc\SrcDrfn\DrCommon\PcTrMng\_DataUtilManager.cpp
; File C:\Program Files (x86)\Microsoft Visual Studio\2019\Community\VC\Tools\MSVC\14.29.30133\atlmfc\include\atlsimpstr.h
; File D:\git\src\IBK\IBK_DRFN\ProjSrc\SrcDrfn\DrCommon\PcTrMng\_DataUtilManager.cpp
;	COMDAT ?RemoveAll@CDataUtilManager@@UAGHAAV?$CStringT@DV?$StrTraitMFC_DLL@DV?$ChTraitsCRT@D@ATL@@@@@ATL@@D@Z
_TEXT	SEGMENT
_nRemove$1$ = -8					; size = 4
_szTmp$ = -4						; size = 4
_this$ = 8						; size = 4
_strIn$ = 12						; size = 4
_ch$ = 16						; size = 1
?RemoveAll@CDataUtilManager@@UAGHAAV?$CStringT@DV?$StrTraitMFC_DLL@DV?$ChTraitsCRT@D@ATL@@@@@ATL@@D@Z PROC ; CDataUtilManager::RemoveAll, COMDAT

; 61   : {

  00000	55		 push	 ebp
  00001	8b ec		 mov	 ebp, esp
  00003	83 ec 08	 sub	 esp, 8
  00006	53		 push	 ebx
  00007	56		 push	 esi
  00008	57		 push	 edi

; 62   : 	CString	szTmp;

  00009	8d 4d fc	 lea	 ecx, DWORD PTR _szTmp$[ebp]
  0000c	ff 15 00 00 00
	00		 call	 DWORD PTR __imp_??0?$CStringT@DV?$StrTraitMFC_DLL@DV?$ChTraitsCRT@D@ATL@@@@@ATL@@QAE@XZ
; File C:\Program Files (x86)\Microsoft Visual Studio\2019\Community\VC\Tools\MSVC\14.29.30133\atlmfc\include\atlsimpstr.h

; 519  : 		return( GetData()->nDataLength );

  00012	8b 7d 0c	 mov	 edi, DWORD PTR _strIn$[ebp]
; File D:\git\src\IBK\IBK_DRFN\ProjSrc\SrcDrfn\DrCommon\PcTrMng\_DataUtilManager.cpp

; 62   : 	CString	szTmp;

  00015	33 f6		 xor	 esi, esi

; 63   : 	int	nRemove=0;

  00017	c7 45 f8 00 00
	00 00		 mov	 DWORD PTR _nRemove$1$[ebp], 0
; File C:\Program Files (x86)\Microsoft Visual Studio\2019\Community\VC\Tools\MSVC\14.29.30133\atlmfc\include\atlsimpstr.h

; 519  : 		return( GetData()->nDataLength );

  0001e	8b 07		 mov	 eax, DWORD PTR [edi]
  00020	8b 58 f4	 mov	 ebx, DWORD PTR [eax-12]
; File D:\git\src\IBK\IBK_DRFN\ProjSrc\SrcDrfn\DrCommon\PcTrMng\_DataUtilManager.cpp

; 66   : 	for(int i=0;   i<nLen;  i++) {

  00023	85 db		 test	 ebx, ebx
  00025	7e 2c		 jle	 SHORT $LN3@RemoveAll
$LL4@RemoveAll:

; 67   : 		if(strIn[i]!=ch) {

  00027	56		 push	 esi
  00028	8b cf		 mov	 ecx, edi
  0002a	ff 15 00 00 00
	00		 call	 DWORD PTR __imp_??A?$CSimpleStringT@D$00@ATL@@QBEDH@Z
  00030	3a 45 10	 cmp	 al, BYTE PTR _ch$[ebp]
  00033	74 19		 je	 SHORT $LN2@RemoveAll

; 68   : 			szTmp += strIn[i];

  00035	56		 push	 esi
  00036	8b cf		 mov	 ecx, edi
  00038	ff 15 00 00 00
	00		 call	 DWORD PTR __imp_??A?$CSimpleStringT@D$00@ATL@@QBEDH@Z
  0003e	0f b6 c0	 movzx	 eax, al
  00041	8d 4d fc	 lea	 ecx, DWORD PTR _szTmp$[ebp]
  00044	50		 push	 eax
  00045	ff 15 00 00 00
	00		 call	 DWORD PTR __imp_??Y?$CStringT@DV?$StrTraitMFC_DLL@DV?$ChTraitsCRT@D@ATL@@@@@ATL@@QAEAAV01@D@Z

; 69   : 			nRemove++;

  0004b	ff 45 f8	 inc	 DWORD PTR _nRemove$1$[ebp]
$LN2@RemoveAll:

; 66   : 	for(int i=0;   i<nLen;  i++) {

  0004e	46		 inc	 esi
  0004f	3b f3		 cmp	 esi, ebx
  00051	7c d4		 jl	 SHORT $LL4@RemoveAll
$LN3@RemoveAll:

; 70   : 		}
; 71   : 	}
; 72   : 
; 73   : 	strIn.Empty();

  00053	8b cf		 mov	 ecx, edi
  00055	ff 15 00 00 00
	00		 call	 DWORD PTR __imp_?Empty@?$CSimpleStringT@D$00@ATL@@QAEXXZ

; 74   : 	strIn = szTmp;

  0005b	8d 45 fc	 lea	 eax, DWORD PTR _szTmp$[ebp]
  0005e	8b cf		 mov	 ecx, edi
  00060	50		 push	 eax
  00061	ff 15 00 00 00
	00		 call	 DWORD PTR __imp_??4?$CStringT@DV?$StrTraitMFC_DLL@DV?$ChTraitsCRT@D@ATL@@@@@ATL@@QAEAAV01@ABV01@@Z

; 75   : 	szTmp.Empty();

  00067	8d 4d fc	 lea	 ecx, DWORD PTR _szTmp$[ebp]
  0006a	ff 15 00 00 00
	00		 call	 DWORD PTR __imp_?Empty@?$CSimpleStringT@D$00@ATL@@QAEXXZ

; 76   : 
; 77   : 	return nRemove;

  00070	8d 4d fc	 lea	 ecx, DWORD PTR _szTmp$[ebp]
  00073	ff 15 00 00 00
	00		 call	 DWORD PTR __imp_??1?$CStringT@DV?$StrTraitMFC_DLL@DV?$ChTraitsCRT@D@ATL@@@@@ATL@@QAE@XZ
  00079	8b 45 f8	 mov	 eax, DWORD PTR _nRemove$1$[ebp]
  0007c	5f		 pop	 edi
  0007d	5e		 pop	 esi
  0007e	5b		 pop	 ebx

; 78   : }

  0007f	8b e5		 mov	 esp, ebp
  00081	5d		 pop	 ebp
  00082	c2 0c 00	 ret	 12			; 0000000cH
?RemoveAll@CDataUtilManager@@UAGHAAV?$CStringT@DV?$StrTraitMFC_DLL@DV?$ChTraitsCRT@D@ATL@@@@@ATL@@D@Z ENDP ; CDataUtilManager::RemoveAll
_TEXT	ENDS
; Function compile flags: /Ogtp
; File D:\git\src\IBK\IBK_DRFN\ProjSrc\SrcDrfn\DrCommon\PcTrMng\_DataUtilManager.cpp
; File C:\Program Files (x86)\Microsoft Visual Studio\2019\Community\VC\Tools\MSVC\14.29.30133\atlmfc\include\atlsimpstr.h
; File D:\git\src\IBK\IBK_DRFN\ProjSrc\SrcDrfn\DrCommon\PcTrMng\_DataUtilManager.cpp
; File C:\Program Files (x86)\Microsoft Visual Studio\2019\Community\VC\Tools\MSVC\14.29.30133\atlmfc\include\atlsimpstr.h
; File D:\git\src\IBK\IBK_DRFN\ProjSrc\SrcDrfn\DrCommon\PcTrMng\_DataUtilManager.cpp
;	COMDAT ?Remove@CDataUtilManager@@UAGHAAV?$CStringT@DV?$StrTraitMFC_DLL@DV?$ChTraitsCRT@D@ATL@@@@@ATL@@DH@Z
_TEXT	SEGMENT
_szTmp$ = 8						; size = 4
_this$ = 8						; size = 4
_nLen$1$ = 12						; size = 4
_strIn$ = 12						; size = 4
_ch$ = 16						; size = 1
_nIndex$ = 20						; size = 4
?Remove@CDataUtilManager@@UAGHAAV?$CStringT@DV?$StrTraitMFC_DLL@DV?$ChTraitsCRT@D@ATL@@@@@ATL@@DH@Z PROC ; CDataUtilManager::Remove, COMDAT

; 37   : {

  00000	55		 push	 ebp
  00001	8b ec		 mov	 ebp, esp

; 38   : 	if(nIndex==0)	return 0;

  00003	8b 45 14	 mov	 eax, DWORD PTR _nIndex$[ebp]
  00006	85 c0		 test	 eax, eax
  00008	75 04		 jne	 SHORT $LN5@Remove

; 58   : }

  0000a	5d		 pop	 ebp
  0000b	c2 10 00	 ret	 16			; 00000010H
$LN5@Remove:

; 39   : 	if( nIndex == -1) return RemoveAll( strIn, ch );

  0000e	83 f8 ff	 cmp	 eax, -1
  00011	75 13		 jne	 SHORT $LN6@Remove
  00013	8b 45 08	 mov	 eax, DWORD PTR _this$[ebp]
  00016	ff 75 10	 push	 DWORD PTR _ch$[ebp]
  00019	ff 75 0c	 push	 DWORD PTR _strIn$[ebp]
  0001c	8b 08		 mov	 ecx, DWORD PTR [eax]
  0001e	50		 push	 eax
  0001f	ff 51 3c	 call	 DWORD PTR [ecx+60]

; 58   : }

  00022	5d		 pop	 ebp
  00023	c2 10 00	 ret	 16			; 00000010H
$LN6@Remove:
  00026	53		 push	 ebx
  00027	56		 push	 esi
  00028	57		 push	 edi

; 40   : 
; 41   : 	CString szTmp;

  00029	8d 4d 08	 lea	 ecx, DWORD PTR _szTmp$[ebp]
  0002c	ff 15 00 00 00
	00		 call	 DWORD PTR __imp_??0?$CStringT@DV?$StrTraitMFC_DLL@DV?$ChTraitsCRT@D@ATL@@@@@ATL@@QAE@XZ
; File C:\Program Files (x86)\Microsoft Visual Studio\2019\Community\VC\Tools\MSVC\14.29.30133\atlmfc\include\atlsimpstr.h

; 519  : 		return( GetData()->nDataLength );

  00032	8b 5d 0c	 mov	 ebx, DWORD PTR _strIn$[ebp]
; File D:\git\src\IBK\IBK_DRFN\ProjSrc\SrcDrfn\DrCommon\PcTrMng\_DataUtilManager.cpp

; 43   : 	int	nFoundIndex=0;

  00035	33 ff		 xor	 edi, edi
  00037	33 f6		 xor	 esi, esi
; File C:\Program Files (x86)\Microsoft Visual Studio\2019\Community\VC\Tools\MSVC\14.29.30133\atlmfc\include\atlsimpstr.h

; 519  : 		return( GetData()->nDataLength );

  00039	8b 03		 mov	 eax, DWORD PTR [ebx]
  0003b	8b 40 f4	 mov	 eax, DWORD PTR [eax-12]
  0003e	89 45 0c	 mov	 DWORD PTR _nLen$1$[ebp], eax
; File D:\git\src\IBK\IBK_DRFN\ProjSrc\SrcDrfn\DrCommon\PcTrMng\_DataUtilManager.cpp

; 45   : 	for(int i=0;   i<nLen;	i++) {

  00041	85 c0		 test	 eax, eax
  00043	7e 46		 jle	 SHORT $LN3@Remove
$LL4@Remove:

; 46   : 		if( strIn[i]==ch ) {

  00045	56		 push	 esi
  00046	8b cb		 mov	 ecx, ebx
  00048	ff 15 00 00 00
	00		 call	 DWORD PTR __imp_??A?$CSimpleStringT@D$00@ATL@@QBEDH@Z
  0004e	3a 45 10	 cmp	 al, BYTE PTR _ch$[ebp]
  00051	75 1c		 jne	 SHORT $LN8@Remove

; 47   : 			nFoundIndex ++;

  00053	47		 inc	 edi

; 48   : 			if(nFoundIndex != nIndex) szTmp += strIn[i];

  00054	3b 7d 14	 cmp	 edi, DWORD PTR _nIndex$[ebp]
  00057	74 16		 je	 SHORT $LN8@Remove
  00059	56		 push	 esi
  0005a	8b cb		 mov	 ecx, ebx
  0005c	ff 15 00 00 00
	00		 call	 DWORD PTR __imp_??A?$CSimpleStringT@D$00@ATL@@QBEDH@Z
  00062	0f b6 c0	 movzx	 eax, al
  00065	8d 4d 08	 lea	 ecx, DWORD PTR _szTmp$[ebp]
  00068	50		 push	 eax
  00069	ff 15 00 00 00
	00		 call	 DWORD PTR __imp_??Y?$CStringT@DV?$StrTraitMFC_DLL@DV?$ChTraitsCRT@D@ATL@@@@@ATL@@QAEAAV01@D@Z
$LN8@Remove:

; 49   : 		}
; 50   : 		szTmp += strIn[i];

  0006f	56		 push	 esi
  00070	8b cb		 mov	 ecx, ebx
  00072	ff 15 00 00 00
	00		 call	 DWORD PTR __imp_??A?$CSimpleStringT@D$00@ATL@@QBEDH@Z
  00078	0f b6 c0	 movzx	 eax, al
  0007b	8d 4d 08	 lea	 ecx, DWORD PTR _szTmp$[ebp]
  0007e	50		 push	 eax
  0007f	ff 15 00 00 00
	00		 call	 DWORD PTR __imp_??Y?$CStringT@DV?$StrTraitMFC_DLL@DV?$ChTraitsCRT@D@ATL@@@@@ATL@@QAEAAV01@D@Z
  00085	46		 inc	 esi
  00086	3b 75 0c	 cmp	 esi, DWORD PTR _nLen$1$[ebp]
  00089	7c ba		 jl	 SHORT $LL4@Remove
$LN3@Remove:

; 51   : 	}
; 52   : 
; 53   : 	strIn.Empty();

  0008b	8b cb		 mov	 ecx, ebx
  0008d	ff 15 00 00 00
	00		 call	 DWORD PTR __imp_?Empty@?$CSimpleStringT@D$00@ATL@@QAEXXZ

; 54   : 	strIn = szTmp;

  00093	8d 45 08	 lea	 eax, DWORD PTR _szTmp$[ebp]
  00096	8b cb		 mov	 ecx, ebx
  00098	50		 push	 eax
  00099	ff 15 00 00 00
	00		 call	 DWORD PTR __imp_??4?$CStringT@DV?$StrTraitMFC_DLL@DV?$ChTraitsCRT@D@ATL@@@@@ATL@@QAEAAV01@ABV01@@Z

; 55   : 	szTmp.Empty();

  0009f	8d 4d 08	 lea	 ecx, DWORD PTR _szTmp$[ebp]
  000a2	ff 15 00 00 00
	00		 call	 DWORD PTR __imp_?Empty@?$CSimpleStringT@D$00@ATL@@QAEXXZ

; 56   : 
; 57   : 	return (nFoundIndex>0)? 1:0 ;

  000a8	8d 4d 08	 lea	 ecx, DWORD PTR _szTmp$[ebp]
  000ab	ff 15 00 00 00
	00		 call	 DWORD PTR __imp_??1?$CStringT@DV?$StrTraitMFC_DLL@DV?$ChTraitsCRT@D@ATL@@@@@ATL@@QAE@XZ
  000b1	33 c0		 xor	 eax, eax
  000b3	85 ff		 test	 edi, edi
  000b5	5f		 pop	 edi
  000b6	5e		 pop	 esi
  000b7	0f 9f c0	 setg	 al
  000ba	5b		 pop	 ebx

; 58   : }

  000bb	5d		 pop	 ebp
  000bc	c2 10 00	 ret	 16			; 00000010H
?Remove@CDataUtilManager@@UAGHAAV?$CStringT@DV?$StrTraitMFC_DLL@DV?$ChTraitsCRT@D@ATL@@@@@ATL@@DH@Z ENDP ; CDataUtilManager::Remove
_TEXT	ENDS
; Function compile flags: /Ogtp
; File D:\git\src\IBK\IBK_DRFN\ProjSrc\SrcDrfn\DrCommon\PcTrMng\_DataUtilManager.cpp
;	COMDAT ?IsOnlyNumber@CDataUtilManager@@UAGHPBD@Z
_TEXT	SEGMENT
_this$ = 8						; size = 4
tv66 = 12						; size = 4
_szData$ = 12						; size = 4
?IsOnlyNumber@CDataUtilManager@@UAGHPBD@Z PROC		; CDataUtilManager::IsOnlyNumber, COMDAT

; 127  : {

  00000	55		 push	 ebp
  00001	8b ec		 mov	 ebp, esp

; 128  : 	if(strlen(szData)==0) return TRUE;

  00003	8b 4d 0c	 mov	 ecx, DWORD PTR _szData$[ebp]
  00006	8b d1		 mov	 edx, ecx
  00008	56		 push	 esi
  00009	8d 72 01	 lea	 esi, DWORD PTR [edx+1]
  0000c	0f 1f 40 00	 npad	 4
$LL14@IsOnlyNumb:
  00010	8a 02		 mov	 al, BYTE PTR [edx]
  00012	42		 inc	 edx
  00013	84 c0		 test	 al, al
  00015	75 f9		 jne	 SHORT $LL14@IsOnlyNumb
  00017	2b d6		 sub	 edx, esi
  00019	5e		 pop	 esi
  0001a	74 14		 je	 SHORT $LN3@IsOnlyNumb

; 129  : 
; 130  : 	for(int x=0; (szData[x]); x++)

  0001c	8a 01		 mov	 al, BYTE PTR [ecx]
  0001e	84 c0		 test	 al, al
  00020	74 0e		 je	 SHORT $LN3@IsOnlyNumb
$LL4@IsOnlyNumb:

; 131  : 		if( szData[x] > '9' || szData[x] < '0')  return FALSE;

  00022	2c 30		 sub	 al, 48			; 00000030H
  00024	3c 09		 cmp	 al, 9
  00026	77 11		 ja	 SHORT $LN10@IsOnlyNumb

; 129  : 
; 130  : 	for(int x=0; (szData[x]); x++)

  00028	8a 41 01	 mov	 al, BYTE PTR [ecx+1]
  0002b	41		 inc	 ecx
  0002c	84 c0		 test	 al, al
  0002e	75 f2		 jne	 SHORT $LL4@IsOnlyNumb
$LN3@IsOnlyNumb:

; 132  : 
; 133  : 	return TRUE;

  00030	b8 01 00 00 00	 mov	 eax, 1

; 134  : }

  00035	5d		 pop	 ebp
  00036	c2 08 00	 ret	 8
$LN10@IsOnlyNumb:

; 131  : 		if( szData[x] > '9' || szData[x] < '0')  return FALSE;

  00039	33 c0		 xor	 eax, eax

; 134  : }

  0003b	5d		 pop	 ebp
  0003c	c2 08 00	 ret	 8
?IsOnlyNumber@CDataUtilManager@@UAGHPBD@Z ENDP		; CDataUtilManager::IsOnlyNumber
_TEXT	ENDS
; Function compile flags: /Ogtp
; File D:\git\src\IBK\IBK_DRFN\ProjSrc\SrcDrfn\DrCommon\PcTrMng\_DataUtilManager.cpp
;	COMDAT ?IsNumber@CDataUtilManager@@UAGHI@Z
_TEXT	SEGMENT
_this$ = 8						; size = 4
_nChar$ = 12						; size = 4
?IsNumber@CDataUtilManager@@UAGHI@Z PROC		; CDataUtilManager::IsNumber, COMDAT

; 18   : {

  00000	55		 push	 ebp
  00001	8b ec		 mov	 ebp, esp

; 19   : 
; 20   : 	if( nChar >= '0' && nChar <= '9')  return TRUE;

  00003	8b 45 0c	 mov	 eax, DWORD PTR _nChar$[ebp]
  00006	b9 09 00 00 00	 mov	 ecx, 9
  0000b	83 c0 d0	 add	 eax, -48		; ffffffd0H
  0000e	3b c8		 cmp	 ecx, eax
  00010	1b c0		 sbb	 eax, eax
  00012	40		 inc	 eax

; 21   : 	else return FALSE;
; 22   : }

  00013	5d		 pop	 ebp
  00014	c2 08 00	 ret	 8
?IsNumber@CDataUtilManager@@UAGHI@Z ENDP		; CDataUtilManager::IsNumber
_TEXT	ENDS
; Function compile flags: /Ogtp
; File D:\git\src\IBK\IBK_DRFN\ProjSrc\SrcDrfn\DrCommon\PcTrMng\_DataUtilManager.cpp
;	COMDAT ?GetString@CDataUtilManager@@UAGHAAV?$CStringT@DV?$StrTraitMFC_DLL@DV?$ChTraitsCRT@D@ATL@@@@@ATL@@0D@Z
_TEXT	SEGMENT
_this$ = 8						; size = 4
_szAB$ = 12						; size = 4
_szCD$ = 16						; size = 4
_chStop$ = 20						; size = 1
$T1 = 20						; size = 4
$T2 = 20						; size = 4
?GetString@CDataUtilManager@@UAGHAAV?$CStringT@DV?$StrTraitMFC_DLL@DV?$ChTraitsCRT@D@ATL@@@@@ATL@@0D@Z PROC ; CDataUtilManager::GetString, COMDAT

; 115  : {

  00000	55		 push	 ebp
  00001	8b ec		 mov	 ebp, esp
  00003	56		 push	 esi

; 116  : 	int nIndex=-1;
; 117  : 	nIndex = szCD.Find(chStop);

  00004	8b 75 10	 mov	 esi, DWORD PTR _szCD$[ebp]
  00007	8b ce		 mov	 ecx, esi
  00009	57		 push	 edi
  0000a	6a 00		 push	 0
  0000c	ff 75 14	 push	 DWORD PTR _chStop$[ebp]
  0000f	ff 15 00 00 00
	00		 call	 DWORD PTR __imp_?Find@?$CStringT@DV?$StrTraitMFC_DLL@DV?$ChTraitsCRT@D@ATL@@@@@ATL@@QBEHDH@Z
  00015	8b f8		 mov	 edi, eax

; 118  : 	if(nIndex==-1) return nIndex;

  00017	83 ff ff	 cmp	 edi, -1
  0001a	75 08		 jne	 SHORT $LN2@GetString
  0001c	5f		 pop	 edi
  0001d	0b c0		 or	 eax, eax

; 124  : }

  0001f	5e		 pop	 esi
  00020	5d		 pop	 ebp
  00021	c2 10 00	 ret	 16			; 00000010H
$LN2@GetString:

; 119  : 
; 120  : 	szAB = szCD.Mid(0, nIndex);

  00024	57		 push	 edi
  00025	6a 00		 push	 0
  00027	8d 45 14	 lea	 eax, DWORD PTR $T2[ebp]
  0002a	8b ce		 mov	 ecx, esi
  0002c	50		 push	 eax
  0002d	ff 15 00 00 00
	00		 call	 DWORD PTR __imp_?Mid@?$CStringT@DV?$StrTraitMFC_DLL@DV?$ChTraitsCRT@D@ATL@@@@@ATL@@QBE?AV12@HH@Z
  00033	8b 4d 0c	 mov	 ecx, DWORD PTR _szAB$[ebp]
  00036	50		 push	 eax
  00037	ff 15 00 00 00
	00		 call	 DWORD PTR __imp_??4?$CStringT@DV?$StrTraitMFC_DLL@DV?$ChTraitsCRT@D@ATL@@@@@ATL@@QAEAAV01@ABV01@@Z
  0003d	8d 4d 14	 lea	 ecx, DWORD PTR $T2[ebp]
  00040	ff 15 00 00 00
	00		 call	 DWORD PTR __imp_??1?$CStringT@DV?$StrTraitMFC_DLL@DV?$ChTraitsCRT@D@ATL@@@@@ATL@@QAE@XZ

; 121  : 	szCD = szCD.Mid( nIndex+1);

  00046	8d 47 01	 lea	 eax, DWORD PTR [edi+1]
  00049	8b ce		 mov	 ecx, esi
  0004b	50		 push	 eax
  0004c	8d 45 14	 lea	 eax, DWORD PTR $T1[ebp]
  0004f	50		 push	 eax
  00050	ff 15 00 00 00
	00		 call	 DWORD PTR __imp_?Mid@?$CStringT@DV?$StrTraitMFC_DLL@DV?$ChTraitsCRT@D@ATL@@@@@ATL@@QBE?AV12@H@Z
  00056	50		 push	 eax
  00057	8b ce		 mov	 ecx, esi
  00059	ff 15 00 00 00
	00		 call	 DWORD PTR __imp_??4?$CStringT@DV?$StrTraitMFC_DLL@DV?$ChTraitsCRT@D@ATL@@@@@ATL@@QAEAAV01@ABV01@@Z
  0005f	8d 4d 14	 lea	 ecx, DWORD PTR $T1[ebp]
  00062	ff 15 00 00 00
	00		 call	 DWORD PTR __imp_??1?$CStringT@DV?$StrTraitMFC_DLL@DV?$ChTraitsCRT@D@ATL@@@@@ATL@@QAE@XZ

; 122  : 	
; 123  : 	return nIndex;

  00068	8b c7		 mov	 eax, edi
  0006a	5f		 pop	 edi

; 124  : }

  0006b	5e		 pop	 esi
  0006c	5d		 pop	 ebp
  0006d	c2 10 00	 ret	 16			; 00000010H
?GetString@CDataUtilManager@@UAGHAAV?$CStringT@DV?$StrTraitMFC_DLL@DV?$ChTraitsCRT@D@ATL@@@@@ATL@@0D@Z ENDP ; CDataUtilManager::GetString
_TEXT	ENDS
; Function compile flags: /Ogtp
; File D:\git\src\IBK\IBK_DRFN\ProjSrc\SrcDrfn\DrCommon\PcTrMng\_DataUtilManager.cpp
;	COMDAT ?GetWord@CDataUtilManager@@UAGXPAD0D@Z
_TEXT	SEGMENT
_this$ = 8						; size = 4
_pWord$ = 12						; size = 4
_pLine$ = 16						; size = 4
_chStop$ = 20						; size = 1
?GetWord@CDataUtilManager@@UAGXPAD0D@Z PROC		; CDataUtilManager::GetWord, COMDAT

; 101  : {

  00000	55		 push	 ebp
  00001	8b ec		 mov	 ebp, esp

; 102  : 	int x = 0,y;
; 103  : 
; 104  : 	for(x=0;((pLine[x]) && (pLine[x] != chStop));x++)

  00003	8b 45 10	 mov	 eax, DWORD PTR _pLine$[ebp]
  00006	56		 push	 esi
  00007	33 f6		 xor	 esi, esi
  00009	8a 08		 mov	 cl, BYTE PTR [eax]
  0000b	84 c9		 test	 cl, cl
  0000d	74 23		 je	 SHORT $LN16@GetWord
  0000f	53		 push	 ebx
  00010	8a 5d 14	 mov	 bl, BYTE PTR _chStop$[ebp]
  00013	8b d0		 mov	 edx, eax
  00015	57		 push	 edi
  00016	8b 7d 0c	 mov	 edi, DWORD PTR _pWord$[ebp]
  00019	2b f8		 sub	 edi, eax
  0001b	0f 1f 44 00 00	 npad	 5
$LL4@GetWord:
  00020	3a cb		 cmp	 cl, bl
  00022	74 0c		 je	 SHORT $LN17@GetWord

; 105  : 		pWord[x] = pLine[x];

  00024	88 0c 17	 mov	 BYTE PTR [edi+edx], cl
  00027	46		 inc	 esi
  00028	8a 4a 01	 mov	 cl, BYTE PTR [edx+1]
  0002b	42		 inc	 edx
  0002c	84 c9		 test	 cl, cl
  0002e	75 f0		 jne	 SHORT $LL4@GetWord
$LN17@GetWord:
  00030	5f		 pop	 edi
  00031	5b		 pop	 ebx
$LN16@GetWord:

; 106  : 
; 107  : 	pWord[x] = '\0';

  00032	8b 4d 0c	 mov	 ecx, DWORD PTR _pWord$[ebp]

; 108  : 	if(pLine[x]) ++x;
; 109  : 	y=0;

  00035	8d 56 01	 lea	 edx, DWORD PTR [esi+1]
  00038	c6 04 0e 00	 mov	 BYTE PTR [esi+ecx], 0
  0003c	80 3c 06 00	 cmp	 BYTE PTR [esi+eax], 0
  00040	0f 44 d6	 cmove	 edx, esi
  00043	03 d0		 add	 edx, eax
  00045	5e		 pop	 esi
$LL5@GetWord:

; 110  : 
; 111  : 	while(pLine[y++] = pLine[x++]);

  00046	8a 0a		 mov	 cl, BYTE PTR [edx]
  00048	8d 40 01	 lea	 eax, DWORD PTR [eax+1]
  0004b	88 48 ff	 mov	 BYTE PTR [eax-1], cl
  0004e	8d 52 01	 lea	 edx, DWORD PTR [edx+1]
  00051	84 c9		 test	 cl, cl
  00053	75 f1		 jne	 SHORT $LL5@GetWord

; 112  : }

  00055	5d		 pop	 ebp
  00056	c2 10 00	 ret	 16			; 00000010H
?GetWord@CDataUtilManager@@UAGXPAD0D@Z ENDP		; CDataUtilManager::GetWord
_TEXT	ENDS
; Function compile flags: /Ogtp
; File D:\git\src\IBK\IBK_DRFN\ProjSrc\SrcDrfn\DrCommon\PcTrMng\_DataUtilManager.cpp
;	COMDAT ?IsSign@CDataUtilManager@@UAGHPBD@Z
_TEXT	SEGMENT
_this$ = 8						; size = 4
_pData$ = 12						; size = 4
?IsSign@CDataUtilManager@@UAGHPBD@Z PROC		; CDataUtilManager::IsSign, COMDAT

; 248  : {

  00000	55		 push	 ebp
  00001	8b ec		 mov	 ebp, esp

; 249  : 	if(pData[0]=='+' || pData[0]=='-') return TRUE;

  00003	8b 45 0c	 mov	 eax, DWORD PTR _pData$[ebp]
  00006	8a 00		 mov	 al, BYTE PTR [eax]
  00008	3c 2b		 cmp	 al, 43			; 0000002bH
  0000a	74 0a		 je	 SHORT $LN3@IsSign
  0000c	3c 2d		 cmp	 al, 45			; 0000002dH
  0000e	74 06		 je	 SHORT $LN3@IsSign

; 250  : 	return FALSE;

  00010	33 c0		 xor	 eax, eax

; 251  : }

  00012	5d		 pop	 ebp
  00013	c2 08 00	 ret	 8
$LN3@IsSign:

; 249  : 	if(pData[0]=='+' || pData[0]=='-') return TRUE;

  00016	b8 01 00 00 00	 mov	 eax, 1

; 251  : }

  0001b	5d		 pop	 ebp
  0001c	c2 08 00	 ret	 8
?IsSign@CDataUtilManager@@UAGHPBD@Z ENDP		; CDataUtilManager::IsSign
_TEXT	ENDS
; Function compile flags: /Ogtp
; File D:\git\src\IBK\IBK_DRFN\ProjSrc\SrcDrfn\DrCommon\PcTrMng\_DataUtilManager.cpp
;	COMDAT ?ValidNumber@CDataUtilManager@@UAGHPBD@Z
_TEXT	SEGMENT
_chTmp$1 = -4						; size = 4
$T2 = -4						; size = 4
_this$ = 8						; size = 4
_strTmp$ = 12						; size = 4
_strIn$ = 12						; size = 4
?ValidNumber@CDataUtilManager@@UAGHPBD@Z PROC		; CDataUtilManager::ValidNumber, COMDAT

; 326  : {                                       

  00000	55		 push	 ebp
  00001	8b ec		 mov	 ebp, esp
  00003	51		 push	 ecx

; 327  : 	CString strTmp = strIn;

  00004	ff 75 0c	 push	 DWORD PTR _strIn$[ebp]
  00007	8d 4d 0c	 lea	 ecx, DWORD PTR _strTmp$[ebp]
  0000a	ff 15 00 00 00
	00		 call	 DWORD PTR __imp_??0?$CStringT@DV?$StrTraitMFC_DLL@DV?$ChTraitsCRT@D@ATL@@@@@ATL@@QAE@PBD@Z

; 328  : 	strTmp.TrimLeft();

  00010	8d 4d 0c	 lea	 ecx, DWORD PTR _strTmp$[ebp]
  00013	ff 15 00 00 00
	00		 call	 DWORD PTR __imp_?TrimLeft@?$CStringT@DV?$StrTraitMFC_DLL@DV?$ChTraitsCRT@D@ATL@@@@@ATL@@QAEAAV12@XZ

; 329  : 	strTmp.TrimRight();

  00019	8d 4d 0c	 lea	 ecx, DWORD PTR _strTmp$[ebp]
  0001c	ff 15 00 00 00
	00		 call	 DWORD PTR __imp_?TrimRight@?$CStringT@DV?$StrTraitMFC_DLL@DV?$ChTraitsCRT@D@ATL@@@@@ATL@@QAEAAV12@XZ

; 330  : 
; 331  : 	if(strTmp[0]=='+' ||strTmp[0]=='-')

  00022	6a 00		 push	 0
  00024	8d 4d 0c	 lea	 ecx, DWORD PTR _strTmp$[ebp]
  00027	ff 15 00 00 00
	00		 call	 DWORD PTR __imp_??A?$CSimpleStringT@D$00@ATL@@QBEDH@Z
  0002d	3c 2b		 cmp	 al, 43			; 0000002bH
  0002f	74 0f		 je	 SHORT $LN6@ValidNumbe
  00031	6a 00		 push	 0
  00033	8d 4d 0c	 lea	 ecx, DWORD PTR _strTmp$[ebp]
  00036	ff 15 00 00 00
	00		 call	 DWORD PTR __imp_??A?$CSimpleStringT@D$00@ATL@@QBEDH@Z
  0003c	3c 2d		 cmp	 al, 45			; 0000002dH
  0003e	75 22		 jne	 SHORT $LN5@ValidNumbe
$LN6@ValidNumbe:

; 332  : 		strTmp = strTmp.Mid(1);

  00040	6a 01		 push	 1
  00042	8d 45 fc	 lea	 eax, DWORD PTR $T2[ebp]
  00045	50		 push	 eax
  00046	8d 4d 0c	 lea	 ecx, DWORD PTR _strTmp$[ebp]
  00049	ff 15 00 00 00
	00		 call	 DWORD PTR __imp_?Mid@?$CStringT@DV?$StrTraitMFC_DLL@DV?$ChTraitsCRT@D@ATL@@@@@ATL@@QBE?AV12@H@Z
  0004f	50		 push	 eax
  00050	8d 4d 0c	 lea	 ecx, DWORD PTR _strTmp$[ebp]
  00053	ff 15 00 00 00
	00		 call	 DWORD PTR __imp_??4?$CStringT@DV?$StrTraitMFC_DLL@DV?$ChTraitsCRT@D@ATL@@@@@ATL@@QAEAAV01@ABV01@@Z
  00059	8d 4d fc	 lea	 ecx, DWORD PTR $T2[ebp]
  0005c	ff 15 00 00 00
	00		 call	 DWORD PTR __imp_??1?$CStringT@DV?$StrTraitMFC_DLL@DV?$ChTraitsCRT@D@ATL@@@@@ATL@@QAE@XZ
$LN5@ValidNumbe:

; 333  : 
; 334  : 	int nIndex = strTmp.Find(".");

  00062	56		 push	 esi
  00063	6a 00		 push	 0
  00065	68 00 00 00 00	 push	 OFFSET ??_C@_01LFCBOECM@?4@
  0006a	8d 4d 0c	 lea	 ecx, DWORD PTR _strTmp$[ebp]
  0006d	ff 15 00 00 00
	00		 call	 DWORD PTR __imp_?Find@?$CStringT@DV?$StrTraitMFC_DLL@DV?$ChTraitsCRT@D@ATL@@@@@ATL@@QBEHPBDH@Z

; 335  : 	if(nIndex!=-1) {

  00073	83 f8 ff	 cmp	 eax, -1
  00076	74 47		 je	 SHORT $LN7@ValidNumbe

; 336  : 		CString chTmp=strTmp.Mid(nIndex+1);

  00078	40		 inc	 eax
  00079	8d 4d 0c	 lea	 ecx, DWORD PTR _strTmp$[ebp]
  0007c	50		 push	 eax
  0007d	8d 45 fc	 lea	 eax, DWORD PTR _chTmp$1[ebp]
  00080	50		 push	 eax
  00081	ff 15 00 00 00
	00		 call	 DWORD PTR __imp_?Mid@?$CStringT@DV?$StrTraitMFC_DLL@DV?$ChTraitsCRT@D@ATL@@@@@ATL@@QBE?AV12@H@Z

; 337  : 		nIndex = chTmp.Find(".");

  00087	6a 00		 push	 0
  00089	68 00 00 00 00	 push	 OFFSET ??_C@_01LFCBOECM@?4@
  0008e	8d 4d fc	 lea	 ecx, DWORD PTR _chTmp$1[ebp]
  00091	ff 15 00 00 00
	00		 call	 DWORD PTR __imp_?Find@?$CStringT@DV?$StrTraitMFC_DLL@DV?$ChTraitsCRT@D@ATL@@@@@ATL@@QBEHPBDH@Z

; 338  : 		if(nIndex!=-1) return FALSE;

  00097	8d 4d fc	 lea	 ecx, DWORD PTR _chTmp$1[ebp]
  0009a	83 f8 ff	 cmp	 eax, -1
  0009d	74 1a		 je	 SHORT $LN8@ValidNumbe
  0009f	ff 15 00 00 00
	00		 call	 DWORD PTR __imp_??1?$CStringT@DV?$StrTraitMFC_DLL@DV?$ChTraitsCRT@D@ATL@@@@@ATL@@QAE@XZ
$LN20@ValidNumbe:

; 344  : 			return FALSE;
; 345  : 	}
; 346  : 	
; 347  : 	return TRUE;

  000a5	8d 4d 0c	 lea	 ecx, DWORD PTR _strTmp$[ebp]
  000a8	33 f6		 xor	 esi, esi
  000aa	ff 15 00 00 00
	00		 call	 DWORD PTR __imp_??1?$CStringT@DV?$StrTraitMFC_DLL@DV?$ChTraitsCRT@D@ATL@@@@@ATL@@QAE@XZ
  000b0	8b c6		 mov	 eax, esi
  000b2	5e		 pop	 esi

; 348  : }

  000b3	8b e5		 mov	 esp, ebp
  000b5	5d		 pop	 ebp
  000b6	c2 08 00	 ret	 8
$LN8@ValidNumbe:

; 339  : 	}

  000b9	ff 15 00 00 00
	00		 call	 DWORD PTR __imp_??1?$CStringT@DV?$StrTraitMFC_DLL@DV?$ChTraitsCRT@D@ATL@@@@@ATL@@QAE@XZ
$LN7@ValidNumbe:

; 340  : 
; 341  : 	for(int i=0;i<strTmp.GetLength();i++) {

  000bf	8b 45 0c	 mov	 eax, DWORD PTR _strTmp$[ebp]
  000c2	33 f6		 xor	 esi, esi
  000c4	39 70 f4	 cmp	 DWORD PTR [eax-12], esi
  000c7	7e 64		 jle	 SHORT $LN24@ValidNumbe
  000c9	0f 1f 80 00 00
	00 00		 npad	 7
$LL4@ValidNumbe:

; 342  : 		if(strTmp[i]=='.') continue;

  000d0	56		 push	 esi
  000d1	8d 4d 0c	 lea	 ecx, DWORD PTR _strTmp$[ebp]
  000d4	ff 15 00 00 00
	00		 call	 DWORD PTR __imp_??A?$CSimpleStringT@D$00@ATL@@QBEDH@Z
  000da	3c 2e		 cmp	 al, 46			; 0000002eH
  000dc	74 46		 je	 SHORT $LN2@ValidNumbe

; 343  : 		if(!((strTmp[i] >= '0' && strTmp[i] <= '9') || strTmp[i] == '-' || strTmp[i] == '+'	|| strTmp[i] == ',')) 

  000de	56		 push	 esi
  000df	8d 4d 0c	 lea	 ecx, DWORD PTR _strTmp$[ebp]
  000e2	ff 15 00 00 00
	00		 call	 DWORD PTR __imp_??A?$CSimpleStringT@D$00@ATL@@QBEDH@Z
  000e8	3c 30		 cmp	 al, 48			; 00000030H
  000ea	7c 0e		 jl	 SHORT $LN11@ValidNumbe
  000ec	56		 push	 esi
  000ed	8d 4d 0c	 lea	 ecx, DWORD PTR _strTmp$[ebp]
  000f0	ff 15 00 00 00
	00		 call	 DWORD PTR __imp_??A?$CSimpleStringT@D$00@ATL@@QBEDH@Z
  000f6	3c 39		 cmp	 al, 57			; 00000039H
  000f8	7e 2a		 jle	 SHORT $LN2@ValidNumbe
$LN11@ValidNumbe:
  000fa	56		 push	 esi
  000fb	8d 4d 0c	 lea	 ecx, DWORD PTR _strTmp$[ebp]
  000fe	ff 15 00 00 00
	00		 call	 DWORD PTR __imp_??A?$CSimpleStringT@D$00@ATL@@QBEDH@Z
  00104	3c 2d		 cmp	 al, 45			; 0000002dH
  00106	74 1c		 je	 SHORT $LN2@ValidNumbe
  00108	56		 push	 esi
  00109	8d 4d 0c	 lea	 ecx, DWORD PTR _strTmp$[ebp]
  0010c	ff 15 00 00 00
	00		 call	 DWORD PTR __imp_??A?$CSimpleStringT@D$00@ATL@@QBEDH@Z
  00112	3c 2b		 cmp	 al, 43			; 0000002bH
  00114	74 0e		 je	 SHORT $LN2@ValidNumbe
  00116	56		 push	 esi
  00117	8d 4d 0c	 lea	 ecx, DWORD PTR _strTmp$[ebp]
  0011a	ff 15 00 00 00
	00		 call	 DWORD PTR __imp_??A?$CSimpleStringT@D$00@ATL@@QBEDH@Z
  00120	3c 2c		 cmp	 al, 44			; 0000002cH
  00122	75 81		 jne	 SHORT $LN20@ValidNumbe
$LN2@ValidNumbe:

; 340  : 
; 341  : 	for(int i=0;i<strTmp.GetLength();i++) {

  00124	8b 45 0c	 mov	 eax, DWORD PTR _strTmp$[ebp]
  00127	46		 inc	 esi
  00128	3b 70 f4	 cmp	 esi, DWORD PTR [eax-12]
  0012b	7c a3		 jl	 SHORT $LL4@ValidNumbe
$LN24@ValidNumbe:

; 344  : 			return FALSE;
; 345  : 	}
; 346  : 	
; 347  : 	return TRUE;

  0012d	8d 4d 0c	 lea	 ecx, DWORD PTR _strTmp$[ebp]
  00130	be 01 00 00 00	 mov	 esi, 1
  00135	ff 15 00 00 00
	00		 call	 DWORD PTR __imp_??1?$CStringT@DV?$StrTraitMFC_DLL@DV?$ChTraitsCRT@D@ATL@@@@@ATL@@QAE@XZ
  0013b	8b c6		 mov	 eax, esi
  0013d	5e		 pop	 esi

; 348  : }

  0013e	8b e5		 mov	 esp, ebp
  00140	5d		 pop	 ebp
  00141	c2 08 00	 ret	 8
?ValidNumber@CDataUtilManager@@UAGHPBD@Z ENDP		; CDataUtilManager::ValidNumber
_TEXT	ENDS
; Function compile flags: /Ogtp
; File D:\git\src\IBK\IBK_DRFN\ProjSrc\SrcDrfn\DrCommon\PcTrMng\_DataUtilManager.cpp
; File C:\Program Files (x86)\Microsoft Visual Studio\2019\Community\VC\Tools\MSVC\14.29.30133\atlmfc\include\atlsimpstr.h
; File D:\git\src\IBK\IBK_DRFN\ProjSrc\SrcDrfn\DrCommon\PcTrMng\_DataUtilManager.cpp
; File C:\Program Files (x86)\Microsoft Visual Studio\2019\Community\VC\Tools\MSVC\14.29.30133\atlmfc\include\atlsimpstr.h
; File D:\git\src\IBK\IBK_DRFN\ProjSrc\SrcDrfn\DrCommon\PcTrMng\_DataUtilManager.cpp
; File C:\Program Files (x86)\Microsoft Visual Studio\2019\Community\VC\Tools\MSVC\14.29.30133\atlmfc\include\atlsimpstr.h
; File D:\git\src\IBK\IBK_DRFN\ProjSrc\SrcDrfn\DrCommon\PcTrMng\_DataUtilManager.cpp
;	COMDAT ?RemoveCharAll@CDataUtilManager@@UAGXAAV?$CStringT@DV?$StrTraitMFC_DLL@DV?$ChTraitsCRT@D@ATL@@@@@ATL@@D@Z
_TEXT	SEGMENT
_nLen$1$ = -4						; size = 4
_this$ = 8						; size = 4
_pData$1$ = 12						; size = 4
_szData$ = 12						; size = 4
_ch$ = 16						; size = 1
?RemoveCharAll@CDataUtilManager@@UAGXAAV?$CStringT@DV?$StrTraitMFC_DLL@DV?$ChTraitsCRT@D@ATL@@@@@ATL@@D@Z PROC ; CDataUtilManager::RemoveCharAll, COMDAT

; 365  : {

  00000	55		 push	 ebp
  00001	8b ec		 mov	 ebp, esp
  00003	51		 push	 ecx
  00004	53		 push	 ebx
; File C:\Program Files (x86)\Microsoft Visual Studio\2019\Community\VC\Tools\MSVC\14.29.30133\atlmfc\include\atlsimpstr.h

; 519  : 		return( GetData()->nDataLength );

  00005	8b 5d 0c	 mov	 ebx, DWORD PTR _szData$[ebp]
; File D:\git\src\IBK\IBK_DRFN\ProjSrc\SrcDrfn\DrCommon\PcTrMng\_DataUtilManager.cpp

; 365  : {

  00008	56		 push	 esi
  00009	57		 push	 edi
; File C:\Program Files (x86)\Microsoft Visual Studio\2019\Community\VC\Tools\MSVC\14.29.30133\atlmfc\include\atlsimpstr.h

; 519  : 		return( GetData()->nDataLength );

  0000a	8b 03		 mov	 eax, DWORD PTR [ebx]
  0000c	8b 40 f4	 mov	 eax, DWORD PTR [eax-12]
  0000f	89 45 fc	 mov	 DWORD PTR _nLen$1$[ebp], eax
; File D:\git\src\IBK\IBK_DRFN\ProjSrc\SrcDrfn\DrCommon\PcTrMng\_DataUtilManager.cpp

; 367  : 	char* pData = new char[nLen+1];

  00012	40		 inc	 eax
  00013	50		 push	 eax
  00014	e8 00 00 00 00	 call	 ??_U@YAPAXI@Z		; operator new[]
; File C:\Program Files (x86)\Microsoft Visual Studio\2019\Community\VC\Tools\MSVC\14.29.30133\atlmfc\include\atlsimpstr.h

; 800  : 		return( reinterpret_cast< CStringData* >( m_pszData )-1 );

  00019	33 f6		 xor	 esi, esi
; File D:\git\src\IBK\IBK_DRFN\ProjSrc\SrcDrfn\DrCommon\PcTrMng\_DataUtilManager.cpp

; 367  : 	char* pData = new char[nLen+1];

  0001b	89 45 0c	 mov	 DWORD PTR _pData$1$[ebp], eax
  0001e	83 c4 04	 add	 esp, 4

; 368  : 	int i = 0, j = 0;
; 369  : 	for( i=0, j=0; i<nLen; i++){

  00021	33 ff		 xor	 edi, edi
  00023	39 75 fc	 cmp	 DWORD PTR _nLen$1$[ebp], esi
  00026	7e 2f		 jle	 SHORT $LN3@RemoveChar
  00028	0f 1f 84 00 00
	00 00 00	 npad	 8
$LL4@RemoveChar:

; 370  : 		if(szData[i]!=ch)

  00030	56		 push	 esi
  00031	8b cb		 mov	 ecx, ebx
  00033	ff 15 00 00 00
	00		 call	 DWORD PTR __imp_??A?$CSimpleStringT@D$00@ATL@@QBEDH@Z
  00039	3a 45 10	 cmp	 al, BYTE PTR _ch$[ebp]
  0003c	74 10		 je	 SHORT $LN2@RemoveChar

; 371  : 			pData[j++] = szData[i];

  0003e	56		 push	 esi
  0003f	8b cb		 mov	 ecx, ebx
  00041	ff 15 00 00 00
	00		 call	 DWORD PTR __imp_??A?$CSimpleStringT@D$00@ATL@@QBEDH@Z
  00047	8b 4d 0c	 mov	 ecx, DWORD PTR _pData$1$[ebp]
  0004a	88 04 0f	 mov	 BYTE PTR [edi+ecx], al
  0004d	47		 inc	 edi
$LN2@RemoveChar:

; 368  : 	int i = 0, j = 0;
; 369  : 	for( i=0, j=0; i<nLen; i++){

  0004e	46		 inc	 esi
  0004f	3b 75 fc	 cmp	 esi, DWORD PTR _nLen$1$[ebp]
  00052	7c dc		 jl	 SHORT $LL4@RemoveChar
  00054	8b 45 0c	 mov	 eax, DWORD PTR _pData$1$[ebp]
$LN3@RemoveChar:

; 372  : 	}
; 373  : 	pData[j]='\0';
; 374  : 	szData = pData;

  00057	50		 push	 eax
  00058	8b cb		 mov	 ecx, ebx
  0005a	c6 04 07 00	 mov	 BYTE PTR [edi+eax], 0
  0005e	ff 15 00 00 00
	00		 call	 DWORD PTR __imp_??4?$CStringT@DV?$StrTraitMFC_DLL@DV?$ChTraitsCRT@D@ATL@@@@@ATL@@QAEAAV01@PBD@Z

; 375  : 	delete pData;

  00064	6a 01		 push	 1
  00066	ff 75 0c	 push	 DWORD PTR _pData$1$[ebp]
  00069	e8 00 00 00 00	 call	 ??3@YAXPAXI@Z		; operator delete
  0006e	83 c4 08	 add	 esp, 8
  00071	5f		 pop	 edi
  00072	5e		 pop	 esi
  00073	5b		 pop	 ebx

; 376  : }

  00074	8b e5		 mov	 esp, ebp
  00076	5d		 pop	 ebp
  00077	c2 0c 00	 ret	 12			; 0000000cH
?RemoveCharAll@CDataUtilManager@@UAGXAAV?$CStringT@DV?$StrTraitMFC_DLL@DV?$ChTraitsCRT@D@ATL@@@@@ATL@@D@Z ENDP ; CDataUtilManager::RemoveCharAll
_TEXT	ENDS
; Function compile flags: /Ogtp
; File D:\git\src\IBK\IBK_DRFN\ProjSrc\SrcDrfn\DrCommon\PcTrMng\_DataUtilManager.cpp
;	COMDAT ?TrimRight@CDataUtilManager@@UAGXPAD@Z
_TEXT	SEGMENT
_nOld$1$ = -4						; size = 4
_this$ = 8						; size = 4
_pIn$ = 12						; size = 4
?TrimRight@CDataUtilManager@@UAGXPAD@Z PROC		; CDataUtilManager::TrimRight, COMDAT

; 353  : {

  00000	55		 push	 ebp
  00001	8b ec		 mov	 ebp, esp
  00003	51		 push	 ecx

; 354  : 	int nLen = strlen(pIn);

  00004	8b 4d 0c	 mov	 ecx, DWORD PTR _pIn$[ebp]
  00007	53		 push	 ebx
  00008	56		 push	 esi
  00009	8b f1		 mov	 esi, ecx
  0000b	57		 push	 edi
  0000c	8d 56 01	 lea	 edx, DWORD PTR [esi+1]
  0000f	90		 npad	 1
$LL10@TrimRight:
  00010	8a 06		 mov	 al, BYTE PTR [esi]
  00012	46		 inc	 esi
  00013	84 c0		 test	 al, al
  00015	75 f9		 jne	 SHORT $LL10@TrimRight

; 355  : 	int nOld = nLen;
; 356  : 	while( ::isspace(*(pIn+nLen-1)))

  00017	8b 1d 00 00 00
	00		 mov	 ebx, DWORD PTR __imp__isspace
  0001d	8d 79 ff	 lea	 edi, DWORD PTR [ecx-1]
  00020	2b f2		 sub	 esi, edx
  00022	03 fe		 add	 edi, esi
  00024	89 75 fc	 mov	 DWORD PTR _nOld$1$[ebp], esi
  00027	0f be 07	 movsx	 eax, BYTE PTR [edi]
  0002a	50		 push	 eax
  0002b	ff d3		 call	 ebx
  0002d	83 c4 04	 add	 esp, 4
  00030	85 c0		 test	 eax, eax
  00032	74 1e		 je	 SHORT $LN1@TrimRight
$LL2@TrimRight:
  00034	0f be 47 ff	 movsx	 eax, BYTE PTR [edi-1]

; 357  : 	{
; 358  : 		nLen--;

  00038	8d 7f ff	 lea	 edi, DWORD PTR [edi-1]
  0003b	50		 push	 eax
  0003c	4e		 dec	 esi
  0003d	ff d3		 call	 ebx
  0003f	83 c4 04	 add	 esp, 4
  00042	85 c0		 test	 eax, eax
  00044	75 ee		 jne	 SHORT $LL2@TrimRight

; 359  : 	}
; 360  : 	if(nLen==nOld)	return;

  00046	3b 75 fc	 cmp	 esi, DWORD PTR _nOld$1$[ebp]
  00049	74 07		 je	 SHORT $LN1@TrimRight

; 361  : 	pIn[nLen] = '\0';

  0004b	8b 45 0c	 mov	 eax, DWORD PTR _pIn$[ebp]
  0004e	c6 04 06 00	 mov	 BYTE PTR [esi+eax], 0
$LN1@TrimRight:

; 362  : }

  00052	5f		 pop	 edi
  00053	5e		 pop	 esi
  00054	5b		 pop	 ebx
  00055	8b e5		 mov	 esp, ebp
  00057	5d		 pop	 ebp
  00058	c2 08 00	 ret	 8
?TrimRight@CDataUtilManager@@UAGXPAD@Z ENDP		; CDataUtilManager::TrimRight
_TEXT	ENDS
; Function compile flags: /Ogtp
; File D:\git\src\IBK\IBK_DRFN\ProjSrc\SrcDrfn\DrCommon\PcTrMng\_DataUtilManager.cpp
; File C:\Program Files (x86)\Microsoft Visual Studio\2019\Community\VC\Tools\MSVC\14.29.30133\atlmfc\include\cstringt.h
; File D:\git\src\IBK\IBK_DRFN\ProjSrc\SrcDrfn\DrCommon\PcTrMng\_DataUtilManager.cpp
; File C:\Program Files (x86)\Microsoft Visual Studio\2019\Community\VC\Tools\MSVC\14.29.30133\atlmfc\include\cstringt.h
; File D:\git\src\IBK\IBK_DRFN\ProjSrc\SrcDrfn\DrCommon\PcTrMng\_DataUtilManager.cpp
; File C:\Program Files (x86)\Microsoft Visual Studio\2019\Community\VC\Tools\MSVC\14.29.30133\atlmfc\include\cstringt.h
; File D:\git\src\IBK\IBK_DRFN\ProjSrc\SrcDrfn\DrCommon\PcTrMng\_DataUtilManager.cpp
; File C:\Program Files (x86)\Microsoft Visual Studio\2019\Community\VC\Tools\MSVC\14.29.30133\atlmfc\include\cstringt.h
; File D:\git\src\IBK\IBK_DRFN\ProjSrc\SrcDrfn\DrCommon\PcTrMng\_DataUtilManager.cpp
; File C:\Program Files (x86)\Microsoft Visual Studio\2019\Community\VC\Tools\MSVC\14.29.30133\atlmfc\include\cstringt.h
; File D:\git\src\IBK\IBK_DRFN\ProjSrc\SrcDrfn\DrCommon\PcTrMng\_DataUtilManager.cpp
; File C:\Program Files (x86)\Microsoft Visual Studio\2019\Community\VC\Tools\MSVC\14.29.30133\atlmfc\include\cstringt.h
; File D:\git\src\IBK\IBK_DRFN\ProjSrc\SrcDrfn\DrCommon\PcTrMng\_DataUtilManager.cpp
; File C:\Program Files (x86)\Microsoft Visual Studio\2019\Community\VC\Tools\MSVC\14.29.30133\atlmfc\include\cstringt.h
; File D:\git\src\IBK\IBK_DRFN\ProjSrc\SrcDrfn\DrCommon\PcTrMng\_DataUtilManager.cpp
; File C:\Program Files (x86)\Microsoft Visual Studio\2019\Community\VC\Tools\MSVC\14.29.30133\atlmfc\include\cstringt.h
; File D:\git\src\IBK\IBK_DRFN\ProjSrc\SrcDrfn\DrCommon\PcTrMng\_DataUtilManager.cpp
; File C:\Program Files (x86)\Microsoft Visual Studio\2019\Community\VC\Tools\MSVC\14.29.30133\atlmfc\include\cstringt.h
; File D:\git\src\IBK\IBK_DRFN\ProjSrc\SrcDrfn\DrCommon\PcTrMng\_DataUtilManager.cpp
; File C:\Program Files (x86)\Microsoft Visual Studio\2019\Community\VC\Tools\MSVC\14.29.30133\atlmfc\include\cstringt.h
; File D:\git\src\IBK\IBK_DRFN\ProjSrc\SrcDrfn\DrCommon\PcTrMng\_DataUtilManager.cpp
;	COMDAT ?AdjustMask@CDataUtilManager@@UAG?AV?$CStringT@DV?$StrTraitMFC_DLL@DV?$ChTraitsCRT@D@ATL@@@@@ATL@@V23@0@Z
_TEXT	SEGMENT
$T1 = -40						; size = 4
$T2 = -36						; size = 4
$T3 = -32						; size = 4
$T4 = -28						; size = 4
$T5 = -24						; size = 4
tv599 = -20						; size = 4
_i$1$ = -16						; size = 4
_str$6 = -12						; size = 4
_result$ = -8						; size = 4
_chTemp$7 = -3						; size = 1
_chTemp$8 = -2						; size = 1
_chTemp$9 = -1						; size = 1
_this$ = 8						; size = 4
___$ReturnUdt$ = 12					; size = 4
_mask$ = 16						; size = 4
_str$ = 20						; size = 4
?AdjustMask@CDataUtilManager@@UAG?AV?$CStringT@DV?$StrTraitMFC_DLL@DV?$ChTraitsCRT@D@ATL@@@@@ATL@@V23@0@Z PROC ; CDataUtilManager::AdjustMask, COMDAT

; 379  : {	

  00000	55		 push	 ebp
  00001	8b ec		 mov	 ebp, esp
  00003	83 ec 28	 sub	 esp, 40			; 00000028H
; File C:\Program Files (x86)\Microsoft Visual Studio\2019\Community\VC\Tools\MSVC\14.29.30133\atlmfc\include\cstringt.h

; 2486 : 		return(str1.Compare(psz2) == 0);

  00006	8d 4d 14	 lea	 ecx, DWORD PTR _str$[ebp]
; File D:\git\src\IBK\IBK_DRFN\ProjSrc\SrcDrfn\DrCommon\PcTrMng\_DataUtilManager.cpp

; 379  : {	

  00009	56		 push	 esi
; File C:\Program Files (x86)\Microsoft Visual Studio\2019\Community\VC\Tools\MSVC\14.29.30133\atlmfc\include\cstringt.h

; 2486 : 		return(str1.Compare(psz2) == 0);

  0000a	68 00 00 00 00	 push	 OFFSET ??_C@_00CNPNBAHC@@
  0000f	ff 15 00 00 00
	00		 call	 DWORD PTR __imp_?Compare@?$CStringT@DV?$StrTraitMFC_DLL@DV?$ChTraitsCRT@D@ATL@@@@@ATL@@QBEHPBD@Z
  00015	85 c0		 test	 eax, eax
; File D:\git\src\IBK\IBK_DRFN\ProjSrc\SrcDrfn\DrCommon\PcTrMng\_DataUtilManager.cpp

; 381  : 	if(str == "")

  00017	75 2a		 jne	 SHORT $LN4@AdjustMask

; 382  : 	{
; 383  : 		return "";

  00019	8b 4d 0c	 mov	 ecx, DWORD PTR ___$ReturnUdt$[ebp]
  0001c	68 00 00 00 00	 push	 OFFSET ??_C@_00CNPNBAHC@@
  00021	ff 15 00 00 00
	00		 call	 DWORD PTR __imp_??0?$CStringT@DV?$StrTraitMFC_DLL@DV?$ChTraitsCRT@D@ATL@@@@@ATL@@QAE@PBD@Z
  00027	8d 4d 10	 lea	 ecx, DWORD PTR _mask$[ebp]
  0002a	ff 15 00 00 00
	00		 call	 DWORD PTR __imp_??1?$CStringT@DV?$StrTraitMFC_DLL@DV?$ChTraitsCRT@D@ATL@@@@@ATL@@QAE@XZ
  00030	8d 4d 14	 lea	 ecx, DWORD PTR _str$[ebp]
  00033	ff 15 00 00 00
	00		 call	 DWORD PTR __imp_??1?$CStringT@DV?$StrTraitMFC_DLL@DV?$ChTraitsCRT@D@ATL@@@@@ATL@@QAE@XZ

; 444  : }

  00039	8b 45 0c	 mov	 eax, DWORD PTR ___$ReturnUdt$[ebp]
  0003c	5e		 pop	 esi
  0003d	8b e5		 mov	 esp, ebp
  0003f	5d		 pop	 ebp
  00040	c2 10 00	 ret	 16			; 00000010H
$LN4@AdjustMask:
  00043	53		 push	 ebx

; 384  : 	}
; 385  : 	// end
; 386  : 
; 387  : 	int nTemp = atoi(str);

  00044	ff 75 14	 push	 DWORD PTR _str$[ebp]
  00047	ff 15 00 00 00
	00		 call	 DWORD PTR __imp__atoi

; 388  : 	str.Format("%d",nTemp);	

  0004d	50		 push	 eax
  0004e	8d 45 14	 lea	 eax, DWORD PTR _str$[ebp]
  00051	68 00 00 00 00	 push	 OFFSET ??_C@_02DPKJAMEF@?$CFd@
  00056	50		 push	 eax
  00057	ff 15 00 00 00
	00		 call	 DWORD PTR __imp_?Format@?$CStringT@DV?$StrTraitMFC_DLL@DV?$ChTraitsCRT@D@ATL@@@@@ATL@@QAAXPBDZZ
  0005d	83 c4 10	 add	 esp, 16			; 00000010H

; 389  : 	
; 390  : 	CString result=""; 

  00060	8d 4d f8	 lea	 ecx, DWORD PTR _result$[ebp]
  00063	68 00 00 00 00	 push	 OFFSET ??_C@_00CNPNBAHC@@
  00068	ff 15 00 00 00
	00		 call	 DWORD PTR __imp_??0?$CStringT@DV?$StrTraitMFC_DLL@DV?$ChTraitsCRT@D@ATL@@@@@ATL@@QAE@PBD@Z

; 391  : 	
; 392  : 	int j=mask.GetLength()-1;

  0006e	8b 45 10	 mov	 eax, DWORD PTR _mask$[ebp]
  00071	8b 58 f4	 mov	 ebx, DWORD PTR [eax-12]

; 393  : 	int i=str.GetLength()-1;

  00074	8b 45 14	 mov	 eax, DWORD PTR _str$[ebp]
  00077	89 5d ec	 mov	 DWORD PTR tv599[ebp], ebx
  0007a	8d 73 ff	 lea	 esi, DWORD PTR [ebx-1]
  0007d	8b 40 f4	 mov	 eax, DWORD PTR [eax-12]
  00080	48		 dec	 eax
  00081	89 45 f0	 mov	 DWORD PTR _i$1$[ebp], eax

; 394  : 	if(j<=0)

  00084	85 f6		 test	 esi, esi
  00086	7f 33		 jg	 SHORT $LN90@AdjustMask

; 395  : 	{	
; 396  : 		return str;

  00088	8b 4d 0c	 mov	 ecx, DWORD PTR ___$ReturnUdt$[ebp]
  0008b	8d 45 14	 lea	 eax, DWORD PTR _str$[ebp]
  0008e	50		 push	 eax
  0008f	ff 15 00 00 00
	00		 call	 DWORD PTR __imp_??0?$CStringT@DV?$StrTraitMFC_DLL@DV?$ChTraitsCRT@D@ATL@@@@@ATL@@QAE@ABV01@@Z
  00095	8d 4d f8	 lea	 ecx, DWORD PTR _result$[ebp]
  00098	ff 15 00 00 00
	00		 call	 DWORD PTR __imp_??1?$CStringT@DV?$StrTraitMFC_DLL@DV?$ChTraitsCRT@D@ATL@@@@@ATL@@QAE@XZ
  0009e	8d 4d 10	 lea	 ecx, DWORD PTR _mask$[ebp]
  000a1	ff 15 00 00 00
	00		 call	 DWORD PTR __imp_??1?$CStringT@DV?$StrTraitMFC_DLL@DV?$ChTraitsCRT@D@ATL@@@@@ATL@@QAE@XZ
  000a7	8d 4d 14	 lea	 ecx, DWORD PTR _str$[ebp]
  000aa	ff 15 00 00 00
	00		 call	 DWORD PTR __imp_??1?$CStringT@DV?$StrTraitMFC_DLL@DV?$ChTraitsCRT@D@ATL@@@@@ATL@@QAE@XZ

; 444  : }

  000b0	8b 45 0c	 mov	 eax, DWORD PTR ___$ReturnUdt$[ebp]
  000b3	5b		 pop	 ebx
  000b4	5e		 pop	 esi
  000b5	8b e5		 mov	 esp, ebp
  000b7	5d		 pop	 ebp
  000b8	c2 10 00	 ret	 16			; 00000010H
$LN90@AdjustMask:
  000bb	57		 push	 edi
  000bc	8d 7e ff	 lea	 edi, DWORD PTR [esi-1]
  000bf	90		 npad	 1
$LL2@AdjustMask:

; 400  : 	{
; 401  : 		if(i>=0)

  000c0	85 c0		 test	 eax, eax
  000c2	0f 88 e7 00 00
	00		 js	 $LN6@AdjustMask

; 402  : 		{
; 403  : 			if((mask[j] == '9') || (mask[j] == 'Z') || (mask[j] == 'z'))

  000c8	56		 push	 esi
  000c9	8d 4d 10	 lea	 ecx, DWORD PTR _mask$[ebp]
  000cc	ff 15 00 00 00
	00		 call	 DWORD PTR __imp_??A?$CSimpleStringT@D$00@ATL@@QBEDH@Z
  000d2	3c 39		 cmp	 al, 57			; 00000039H
  000d4	74 76		 je	 SHORT $LN10@AdjustMask
  000d6	56		 push	 esi
  000d7	8d 4d 10	 lea	 ecx, DWORD PTR _mask$[ebp]
  000da	ff 15 00 00 00
	00		 call	 DWORD PTR __imp_??A?$CSimpleStringT@D$00@ATL@@QBEDH@Z
  000e0	3c 5a		 cmp	 al, 90			; 0000005aH
  000e2	74 68		 je	 SHORT $LN10@AdjustMask
  000e4	56		 push	 esi
  000e5	8d 4d 10	 lea	 ecx, DWORD PTR _mask$[ebp]
  000e8	ff 15 00 00 00
	00		 call	 DWORD PTR __imp_??A?$CSimpleStringT@D$00@ATL@@QBEDH@Z
  000ee	3c 7a		 cmp	 al, 122			; 0000007aH
  000f0	74 5a		 je	 SHORT $LN10@AdjustMask

; 410  : 				result=mask[j]+result;

  000f2	56		 push	 esi
  000f3	8d 4d 10	 lea	 ecx, DWORD PTR _mask$[ebp]
  000f6	ff 15 00 00 00
	00		 call	 DWORD PTR __imp_??A?$CSimpleStringT@D$00@ATL@@QBEDH@Z
; File C:\Program Files (x86)\Microsoft Visual Studio\2019\Community\VC\Tools\MSVC\14.29.30133\atlmfc\include\cstringt.h

; 2441 : 		CStringT strResult( str2.GetManager() );

  000fc	8d 4d f8	 lea	 ecx, DWORD PTR _result$[ebp]
; File D:\git\src\IBK\IBK_DRFN\ProjSrc\SrcDrfn\DrCommon\PcTrMng\_DataUtilManager.cpp

; 410  : 				result=mask[j]+result;

  000ff	8a d8		 mov	 bl, al
; File C:\Program Files (x86)\Microsoft Visual Studio\2019\Community\VC\Tools\MSVC\14.29.30133\atlmfc\include\cstringt.h

; 2441 : 		CStringT strResult( str2.GetManager() );

  00101	ff 15 00 00 00
	00		 call	 DWORD PTR __imp_?GetManager@?$CStringT@DV?$StrTraitMFC_DLL@DV?$ChTraitsCRT@D@ATL@@@@@ATL@@QBEPAUIAtlStringMgr@2@XZ
  00107	50		 push	 eax
  00108	8d 4d e8	 lea	 ecx, DWORD PTR $T5[ebp]
  0010b	ff 15 00 00 00
	00		 call	 DWORD PTR __imp_??0?$CStringT@DV?$StrTraitMFC_DLL@DV?$ChTraitsCRT@D@ATL@@@@@ATL@@QAE@PAUIAtlStringMgr@1@@Z

; 2442 : 		XCHAR chTemp = XCHAR( ch1 );
; 2443 : 
; 2444 : 		CThisSimpleString::Concatenate( strResult, &chTemp, 1, str2, str2.GetLength() );

  00111	8b 45 f8	 mov	 eax, DWORD PTR _result$[ebp]
  00114	88 5d ff	 mov	 BYTE PTR _chTemp$9[ebp], bl
  00117	ff 70 f4	 push	 DWORD PTR [eax-12]
  0011a	50		 push	 eax
  0011b	6a 01		 push	 1
  0011d	8d 45 ff	 lea	 eax, DWORD PTR _chTemp$9[ebp]
  00120	50		 push	 eax
  00121	8d 45 e8	 lea	 eax, DWORD PTR $T5[ebp]
  00124	50		 push	 eax
  00125	ff 15 00 00 00
	00		 call	 DWORD PTR __imp_?Concatenate@?$CSimpleStringT@D$00@ATL@@KAXAAV12@PBDH1H@Z
  0012b	83 c4 14	 add	 esp, 20			; 00000014H
; File D:\git\src\IBK\IBK_DRFN\ProjSrc\SrcDrfn\DrCommon\PcTrMng\_DataUtilManager.cpp

; 410  : 				result=mask[j]+result;

  0012e	8d 45 e8	 lea	 eax, DWORD PTR $T5[ebp]
  00131	8d 4d f8	 lea	 ecx, DWORD PTR _result$[ebp]
  00134	50		 push	 eax
  00135	ff 15 00 00 00
	00		 call	 DWORD PTR __imp_??4?$CStringT@DV?$StrTraitMFC_DLL@DV?$ChTraitsCRT@D@ATL@@@@@ATL@@QAEAAV01@ABV01@@Z
  0013b	8d 4d e8	 lea	 ecx, DWORD PTR $T5[ebp]
  0013e	ff 15 00 00 00
	00		 call	 DWORD PTR __imp_??1?$CStringT@DV?$StrTraitMFC_DLL@DV?$ChTraitsCRT@D@ATL@@@@@ATL@@QAE@XZ

; 411  : 				j--;

  00144	8b 5d ec	 mov	 ebx, DWORD PTR tv599[ebp]
  00147	e9 dc 01 00 00	 jmp	 $LN93@AdjustMask
$LN10@AdjustMask:

; 405  : 				result=str[i]+result;

  0014c	ff 75 f0	 push	 DWORD PTR _i$1$[ebp]
  0014f	8d 4d 14	 lea	 ecx, DWORD PTR _str$[ebp]
  00152	ff 15 00 00 00
	00		 call	 DWORD PTR __imp_??A?$CSimpleStringT@D$00@ATL@@QBEDH@Z
; File C:\Program Files (x86)\Microsoft Visual Studio\2019\Community\VC\Tools\MSVC\14.29.30133\atlmfc\include\cstringt.h

; 2441 : 		CStringT strResult( str2.GetManager() );

  00158	8d 4d f8	 lea	 ecx, DWORD PTR _result$[ebp]
; File D:\git\src\IBK\IBK_DRFN\ProjSrc\SrcDrfn\DrCommon\PcTrMng\_DataUtilManager.cpp

; 405  : 				result=str[i]+result;

  0015b	8a d8		 mov	 bl, al
; File C:\Program Files (x86)\Microsoft Visual Studio\2019\Community\VC\Tools\MSVC\14.29.30133\atlmfc\include\cstringt.h

; 2441 : 		CStringT strResult( str2.GetManager() );

  0015d	ff 15 00 00 00
	00		 call	 DWORD PTR __imp_?GetManager@?$CStringT@DV?$StrTraitMFC_DLL@DV?$ChTraitsCRT@D@ATL@@@@@ATL@@QBEPAUIAtlStringMgr@2@XZ
  00163	50		 push	 eax
  00164	8d 4d e4	 lea	 ecx, DWORD PTR $T4[ebp]
  00167	ff 15 00 00 00
	00		 call	 DWORD PTR __imp_??0?$CStringT@DV?$StrTraitMFC_DLL@DV?$ChTraitsCRT@D@ATL@@@@@ATL@@QAE@PAUIAtlStringMgr@1@@Z

; 2442 : 		XCHAR chTemp = XCHAR( ch1 );
; 2443 : 
; 2444 : 		CThisSimpleString::Concatenate( strResult, &chTemp, 1, str2, str2.GetLength() );

  0016d	8b 45 f8	 mov	 eax, DWORD PTR _result$[ebp]
  00170	88 5d fe	 mov	 BYTE PTR _chTemp$8[ebp], bl
  00173	ff 70 f4	 push	 DWORD PTR [eax-12]
  00176	50		 push	 eax
  00177	6a 01		 push	 1
  00179	8d 45 fe	 lea	 eax, DWORD PTR _chTemp$8[ebp]
  0017c	50		 push	 eax
  0017d	8d 45 e4	 lea	 eax, DWORD PTR $T4[ebp]
  00180	50		 push	 eax
  00181	ff 15 00 00 00
	00		 call	 DWORD PTR __imp_?Concatenate@?$CSimpleStringT@D$00@ATL@@KAXAAV12@PBDH1H@Z
  00187	83 c4 14	 add	 esp, 20			; 00000014H
; File D:\git\src\IBK\IBK_DRFN\ProjSrc\SrcDrfn\DrCommon\PcTrMng\_DataUtilManager.cpp

; 405  : 				result=str[i]+result;

  0018a	8d 45 e4	 lea	 eax, DWORD PTR $T4[ebp]
  0018d	8d 4d f8	 lea	 ecx, DWORD PTR _result$[ebp]
  00190	50		 push	 eax
  00191	ff 15 00 00 00
	00		 call	 DWORD PTR __imp_??4?$CStringT@DV?$StrTraitMFC_DLL@DV?$ChTraitsCRT@D@ATL@@@@@ATL@@QAEAAV01@ABV01@@Z
  00197	8d 4d e4	 lea	 ecx, DWORD PTR $T4[ebp]
  0019a	ff 15 00 00 00
	00		 call	 DWORD PTR __imp_??1?$CStringT@DV?$StrTraitMFC_DLL@DV?$ChTraitsCRT@D@ATL@@@@@ATL@@QAE@XZ

; 406  : 				j--; i--;

  001a0	8b 45 f0	 mov	 eax, DWORD PTR _i$1$[ebp]

; 412  : 			}
; 413  : 			
; 414  : 		}

  001a3	8b 5d ec	 mov	 ebx, DWORD PTR tv599[ebp]
  001a6	48		 dec	 eax
  001a7	89 45 f0	 mov	 DWORD PTR _i$1$[ebp], eax
  001aa	e9 7c 01 00 00	 jmp	 $LN7@AdjustMask
$LN6@AdjustMask:

; 415  : 		else
; 416  : 		{
; 417  : 			CString str;

  001af	8d 4d f4	 lea	 ecx, DWORD PTR _str$6[ebp]
  001b2	ff 15 00 00 00
	00		 call	 DWORD PTR __imp_??0?$CStringT@DV?$StrTraitMFC_DLL@DV?$ChTraitsCRT@D@ATL@@@@@ATL@@QAE@XZ

; 418  : 			if(mask[j] == '9')

  001b8	56		 push	 esi
  001b9	8d 4d 10	 lea	 ecx, DWORD PTR _mask$[ebp]
  001bc	ff 15 00 00 00
	00		 call	 DWORD PTR __imp_??A?$CSimpleStringT@D$00@ATL@@QBEDH@Z
  001c2	3c 39		 cmp	 al, 57			; 00000039H
  001c4	75 51		 jne	 SHORT $LN11@AdjustMask

; 419  : 			{
; 420  : 				str="0";

  001c6	68 00 00 00 00	 push	 OFFSET ??_C@_01GBGANLPD@0@
  001cb	8d 4d f4	 lea	 ecx, DWORD PTR _str$6[ebp]
  001ce	ff 15 00 00 00
	00		 call	 DWORD PTR __imp_??4?$CStringT@DV?$StrTraitMFC_DLL@DV?$ChTraitsCRT@D@ATL@@@@@ATL@@QAEAAV01@PBD@Z
; File C:\Program Files (x86)\Microsoft Visual Studio\2019\Community\VC\Tools\MSVC\14.29.30133\atlmfc\include\cstringt.h

; 2390 : 		CStringT strResult( str1.GetManager() );

  001d4	8d 4d f4	 lea	 ecx, DWORD PTR _str$6[ebp]
  001d7	ff 15 00 00 00
	00		 call	 DWORD PTR __imp_?GetManager@?$CStringT@DV?$StrTraitMFC_DLL@DV?$ChTraitsCRT@D@ATL@@@@@ATL@@QBEPAUIAtlStringMgr@2@XZ
  001dd	50		 push	 eax
  001de	8d 4d e0	 lea	 ecx, DWORD PTR $T3[ebp]
  001e1	ff 15 00 00 00
	00		 call	 DWORD PTR __imp_??0?$CStringT@DV?$StrTraitMFC_DLL@DV?$ChTraitsCRT@D@ATL@@@@@ATL@@QAE@PAUIAtlStringMgr@1@@Z

; 2391 : 
; 2392 : 		CThisSimpleString::Concatenate( strResult, str1, str1.GetLength(), str2, str2.GetLength() );

  001e7	8b 45 f8	 mov	 eax, DWORD PTR _result$[ebp]
  001ea	ff 70 f4	 push	 DWORD PTR [eax-12]
  001ed	50		 push	 eax
  001ee	8b 45 f4	 mov	 eax, DWORD PTR _str$6[ebp]
  001f1	ff 70 f4	 push	 DWORD PTR [eax-12]
  001f4	50		 push	 eax
  001f5	8d 45 e0	 lea	 eax, DWORD PTR $T3[ebp]
  001f8	50		 push	 eax
  001f9	ff 15 00 00 00
	00		 call	 DWORD PTR __imp_?Concatenate@?$CSimpleStringT@D$00@ATL@@KAXAAV12@PBDH1H@Z
  001ff	83 c4 14	 add	 esp, 20			; 00000014H
; File D:\git\src\IBK\IBK_DRFN\ProjSrc\SrcDrfn\DrCommon\PcTrMng\_DataUtilManager.cpp

; 421  : 				result=str+result;

  00202	8d 45 e0	 lea	 eax, DWORD PTR $T3[ebp]
  00205	8d 4d f8	 lea	 ecx, DWORD PTR _result$[ebp]
  00208	50		 push	 eax
  00209	ff 15 00 00 00
	00		 call	 DWORD PTR __imp_??4?$CStringT@DV?$StrTraitMFC_DLL@DV?$ChTraitsCRT@D@ATL@@@@@ATL@@QAEAAV01@ABV01@@Z
  0020f	8d 4d e0	 lea	 ecx, DWORD PTR $T3[ebp]

; 422  : 				j--;
; 423  : 			}

  00212	e9 02 01 00 00	 jmp	 $LN94@AdjustMask
$LN11@AdjustMask:

; 424  : 			else if((mask[j] == 'z') || (mask[j] == 'Z'))

  00217	56		 push	 esi
  00218	8d 4d 10	 lea	 ecx, DWORD PTR _mask$[ebp]
  0021b	ff 15 00 00 00
	00		 call	 DWORD PTR __imp_??A?$CSimpleStringT@D$00@ATL@@QBEDH@Z
  00221	3c 7a		 cmp	 al, 122			; 0000007aH
  00223	0f 84 a4 00 00
	00		 je	 $LN15@AdjustMask
  00229	56		 push	 esi
  0022a	8d 4d 10	 lea	 ecx, DWORD PTR _mask$[ebp]
  0022d	ff 15 00 00 00
	00		 call	 DWORD PTR __imp_??A?$CSimpleStringT@D$00@ATL@@QBEDH@Z
  00233	3c 5a		 cmp	 al, 90			; 0000005aH
  00235	0f 84 92 00 00
	00		 je	 $LN15@AdjustMask

; 428  : 				j--;
; 429  : 			}
; 430  : 			else
; 431  : 			{
; 432  : 				if((j+1< mask.GetLength()-1) && (j-1 >= 0))

  0023b	8b 45 10	 mov	 eax, DWORD PTR _mask$[ebp]
  0023e	8b 40 f4	 mov	 eax, DWORD PTR [eax-12]
  00241	48		 dec	 eax
  00242	3b d8		 cmp	 ebx, eax
  00244	0f 8d d5 00 00
	00		 jge	 $LN14@AdjustMask
  0024a	85 f6		 test	 esi, esi
  0024c	0f 8e cd 00 00
	00		 jle	 $LN14@AdjustMask

; 433  : 				{
; 434  : 					if((mask[j-1] != 'z') && (mask[j-1] != 'Z'))

  00252	57		 push	 edi
  00253	8d 4d 10	 lea	 ecx, DWORD PTR _mask$[ebp]
  00256	ff 15 00 00 00
	00		 call	 DWORD PTR __imp_??A?$CSimpleStringT@D$00@ATL@@QBEDH@Z
  0025c	3c 7a		 cmp	 al, 122			; 0000007aH
  0025e	0f 84 bb 00 00
	00		 je	 $LN14@AdjustMask
  00264	57		 push	 edi
  00265	8d 4d 10	 lea	 ecx, DWORD PTR _mask$[ebp]
  00268	ff 15 00 00 00
	00		 call	 DWORD PTR __imp_??A?$CSimpleStringT@D$00@ATL@@QBEDH@Z
  0026e	3c 5a		 cmp	 al, 90			; 0000005aH
  00270	0f 84 a9 00 00
	00		 je	 $LN14@AdjustMask

; 436  : 						result=mask[j]+result;

  00276	56		 push	 esi
  00277	8d 4d 10	 lea	 ecx, DWORD PTR _mask$[ebp]
  0027a	ff 15 00 00 00
	00		 call	 DWORD PTR __imp_??A?$CSimpleStringT@D$00@ATL@@QBEDH@Z
; File C:\Program Files (x86)\Microsoft Visual Studio\2019\Community\VC\Tools\MSVC\14.29.30133\atlmfc\include\cstringt.h

; 2441 : 		CStringT strResult( str2.GetManager() );

  00280	8d 4d f8	 lea	 ecx, DWORD PTR _result$[ebp]
; File D:\git\src\IBK\IBK_DRFN\ProjSrc\SrcDrfn\DrCommon\PcTrMng\_DataUtilManager.cpp

; 436  : 						result=mask[j]+result;

  00283	8a d8		 mov	 bl, al
; File C:\Program Files (x86)\Microsoft Visual Studio\2019\Community\VC\Tools\MSVC\14.29.30133\atlmfc\include\cstringt.h

; 2441 : 		CStringT strResult( str2.GetManager() );

  00285	ff 15 00 00 00
	00		 call	 DWORD PTR __imp_?GetManager@?$CStringT@DV?$StrTraitMFC_DLL@DV?$ChTraitsCRT@D@ATL@@@@@ATL@@QBEPAUIAtlStringMgr@2@XZ
  0028b	50		 push	 eax
  0028c	8d 4d dc	 lea	 ecx, DWORD PTR $T2[ebp]
  0028f	ff 15 00 00 00
	00		 call	 DWORD PTR __imp_??0?$CStringT@DV?$StrTraitMFC_DLL@DV?$ChTraitsCRT@D@ATL@@@@@ATL@@QAE@PAUIAtlStringMgr@1@@Z

; 2442 : 		XCHAR chTemp = XCHAR( ch1 );
; 2443 : 
; 2444 : 		CThisSimpleString::Concatenate( strResult, &chTemp, 1, str2, str2.GetLength() );

  00295	8b 45 f8	 mov	 eax, DWORD PTR _result$[ebp]
  00298	88 5d fd	 mov	 BYTE PTR _chTemp$7[ebp], bl
  0029b	ff 70 f4	 push	 DWORD PTR [eax-12]
  0029e	50		 push	 eax
  0029f	6a 01		 push	 1
  002a1	8d 45 fd	 lea	 eax, DWORD PTR _chTemp$7[ebp]
  002a4	50		 push	 eax
  002a5	8d 45 dc	 lea	 eax, DWORD PTR $T2[ebp]
  002a8	50		 push	 eax
  002a9	ff 15 00 00 00
	00		 call	 DWORD PTR __imp_?Concatenate@?$CSimpleStringT@D$00@ATL@@KAXAAV12@PBDH1H@Z
  002af	83 c4 14	 add	 esp, 20			; 00000014H
; File D:\git\src\IBK\IBK_DRFN\ProjSrc\SrcDrfn\DrCommon\PcTrMng\_DataUtilManager.cpp

; 436  : 						result=mask[j]+result;

  002b2	8d 45 dc	 lea	 eax, DWORD PTR $T2[ebp]
  002b5	8d 4d f8	 lea	 ecx, DWORD PTR _result$[ebp]
  002b8	50		 push	 eax
  002b9	ff 15 00 00 00
	00		 call	 DWORD PTR __imp_??4?$CStringT@DV?$StrTraitMFC_DLL@DV?$ChTraitsCRT@D@ATL@@@@@ATL@@QAEAAV01@ABV01@@Z
  002bf	8d 4d dc	 lea	 ecx, DWORD PTR $T2[ebp]
  002c2	ff 15 00 00 00
	00		 call	 DWORD PTR __imp_??1?$CStringT@DV?$StrTraitMFC_DLL@DV?$ChTraitsCRT@D@ATL@@@@@ATL@@QAE@XZ

; 437  : 					}
; 438  : 				}
; 439  : 				j--;

  002c8	8b 5d ec	 mov	 ebx, DWORD PTR tv599[ebp]
  002cb	eb 52		 jmp	 SHORT $LN14@AdjustMask
$LN15@AdjustMask:

; 425  : 			{
; 426  : 				str="";

  002cd	68 00 00 00 00	 push	 OFFSET ??_C@_00CNPNBAHC@@
  002d2	8d 4d f4	 lea	 ecx, DWORD PTR _str$6[ebp]
  002d5	ff 15 00 00 00
	00		 call	 DWORD PTR __imp_??4?$CStringT@DV?$StrTraitMFC_DLL@DV?$ChTraitsCRT@D@ATL@@@@@ATL@@QAEAAV01@PBD@Z
; File C:\Program Files (x86)\Microsoft Visual Studio\2019\Community\VC\Tools\MSVC\14.29.30133\atlmfc\include\cstringt.h

; 2390 : 		CStringT strResult( str1.GetManager() );

  002db	8d 4d f4	 lea	 ecx, DWORD PTR _str$6[ebp]
  002de	ff 15 00 00 00
	00		 call	 DWORD PTR __imp_?GetManager@?$CStringT@DV?$StrTraitMFC_DLL@DV?$ChTraitsCRT@D@ATL@@@@@ATL@@QBEPAUIAtlStringMgr@2@XZ
  002e4	50		 push	 eax
  002e5	8d 4d d8	 lea	 ecx, DWORD PTR $T1[ebp]
  002e8	ff 15 00 00 00
	00		 call	 DWORD PTR __imp_??0?$CStringT@DV?$StrTraitMFC_DLL@DV?$ChTraitsCRT@D@ATL@@@@@ATL@@QAE@PAUIAtlStringMgr@1@@Z

; 2391 : 
; 2392 : 		CThisSimpleString::Concatenate( strResult, str1, str1.GetLength(), str2, str2.GetLength() );

  002ee	8b 45 f8	 mov	 eax, DWORD PTR _result$[ebp]
  002f1	ff 70 f4	 push	 DWORD PTR [eax-12]
  002f4	50		 push	 eax
  002f5	8b 45 f4	 mov	 eax, DWORD PTR _str$6[ebp]
  002f8	ff 70 f4	 push	 DWORD PTR [eax-12]
  002fb	50		 push	 eax
  002fc	8d 45 d8	 lea	 eax, DWORD PTR $T1[ebp]
  002ff	50		 push	 eax
  00300	ff 15 00 00 00
	00		 call	 DWORD PTR __imp_?Concatenate@?$CSimpleStringT@D$00@ATL@@KAXAAV12@PBDH1H@Z
  00306	83 c4 14	 add	 esp, 20			; 00000014H
; File D:\git\src\IBK\IBK_DRFN\ProjSrc\SrcDrfn\DrCommon\PcTrMng\_DataUtilManager.cpp

; 427  : 				result=str+result;

  00309	8d 45 d8	 lea	 eax, DWORD PTR $T1[ebp]
  0030c	8d 4d f8	 lea	 ecx, DWORD PTR _result$[ebp]
  0030f	50		 push	 eax
  00310	ff 15 00 00 00
	00		 call	 DWORD PTR __imp_??4?$CStringT@DV?$StrTraitMFC_DLL@DV?$ChTraitsCRT@D@ATL@@@@@ATL@@QAEAAV01@ABV01@@Z
  00316	8d 4d d8	 lea	 ecx, DWORD PTR $T1[ebp]
$LN94@AdjustMask:

; 440  : 			}
; 441  : 		}

  00319	ff 15 00 00 00
	00		 call	 DWORD PTR __imp_??1?$CStringT@DV?$StrTraitMFC_DLL@DV?$ChTraitsCRT@D@ATL@@@@@ATL@@QAE@XZ
$LN14@AdjustMask:
  0031f	8d 4d f4	 lea	 ecx, DWORD PTR _str$6[ebp]
  00322	ff 15 00 00 00
	00		 call	 DWORD PTR __imp_??1?$CStringT@DV?$StrTraitMFC_DLL@DV?$ChTraitsCRT@D@ATL@@@@@ATL@@QAE@XZ
$LN93@AdjustMask:

; 397  : 	}
; 398  : 	
; 399  : 	while( j >= 0)

  00328	8b 45 f0	 mov	 eax, DWORD PTR _i$1$[ebp]
$LN7@AdjustMask:
  0032b	4b		 dec	 ebx
  0032c	4f		 dec	 edi
  0032d	83 c6 ff	 add	 esi, -1
  00330	89 5d ec	 mov	 DWORD PTR tv599[ebp], ebx
  00333	0f 89 87 fd ff
	ff		 jns	 $LL2@AdjustMask

; 442  : 	}
; 443  : 	return result;

  00339	8b 4d 0c	 mov	 ecx, DWORD PTR ___$ReturnUdt$[ebp]
  0033c	8d 45 f8	 lea	 eax, DWORD PTR _result$[ebp]
  0033f	50		 push	 eax
  00340	ff 15 00 00 00
	00		 call	 DWORD PTR __imp_??0?$CStringT@DV?$StrTraitMFC_DLL@DV?$ChTraitsCRT@D@ATL@@@@@ATL@@QAE@ABV01@@Z
  00346	8d 4d f8	 lea	 ecx, DWORD PTR _result$[ebp]
  00349	ff 15 00 00 00
	00		 call	 DWORD PTR __imp_??1?$CStringT@DV?$StrTraitMFC_DLL@DV?$ChTraitsCRT@D@ATL@@@@@ATL@@QAE@XZ
  0034f	8d 4d 10	 lea	 ecx, DWORD PTR _mask$[ebp]
  00352	ff 15 00 00 00
	00		 call	 DWORD PTR __imp_??1?$CStringT@DV?$StrTraitMFC_DLL@DV?$ChTraitsCRT@D@ATL@@@@@ATL@@QAE@XZ
  00358	8d 4d 14	 lea	 ecx, DWORD PTR _str$[ebp]
  0035b	ff 15 00 00 00
	00		 call	 DWORD PTR __imp_??1?$CStringT@DV?$StrTraitMFC_DLL@DV?$ChTraitsCRT@D@ATL@@@@@ATL@@QAE@XZ

; 444  : }

  00361	8b 45 0c	 mov	 eax, DWORD PTR ___$ReturnUdt$[ebp]
  00364	5f		 pop	 edi
  00365	5b		 pop	 ebx
  00366	5e		 pop	 esi
  00367	8b e5		 mov	 esp, ebp
  00369	5d		 pop	 ebp
  0036a	c2 10 00	 ret	 16			; 00000010H
?AdjustMask@CDataUtilManager@@UAG?AV?$CStringT@DV?$StrTraitMFC_DLL@DV?$ChTraitsCRT@D@ATL@@@@@ATL@@V23@0@Z ENDP ; CDataUtilManager::AdjustMask
_TEXT	ENDS
; Function compile flags: /Ogtp
; File D:\git\src\IBK\IBK_DRFN\ProjSrc\SrcDrfn\DrCommon\PcTrMng\_DataUtilManager.cpp
;	COMDAT ?AdjustMask@CDataUtilManager@@UAG?AV?$CStringT@DV?$StrTraitMFC_DLL@DV?$ChTraitsCRT@D@ATL@@@@@ATL@@V23@H@Z
_TEXT	SEGMENT
_szT$ = -4						; size = 4
_this$ = 8						; size = 4
___$ReturnUdt$ = 12					; size = 4
_mask$ = 16						; size = 4
_nValue$ = 20						; size = 4
?AdjustMask@CDataUtilManager@@UAG?AV?$CStringT@DV?$StrTraitMFC_DLL@DV?$ChTraitsCRT@D@ATL@@@@@ATL@@V23@H@Z PROC ; CDataUtilManager::AdjustMask, COMDAT

; 447  : {

  00000	55		 push	 ebp
  00001	8b ec		 mov	 ebp, esp
  00003	51		 push	 ecx

; 448  : 	CString szT;

  00004	8d 4d fc	 lea	 ecx, DWORD PTR _szT$[ebp]
  00007	ff 15 00 00 00
	00		 call	 DWORD PTR __imp_??0?$CStringT@DV?$StrTraitMFC_DLL@DV?$ChTraitsCRT@D@ATL@@@@@ATL@@QAE@XZ

; 449  : 	szT.Format("%d", nValue);

  0000d	ff 75 14	 push	 DWORD PTR _nValue$[ebp]
  00010	8d 45 fc	 lea	 eax, DWORD PTR _szT$[ebp]
  00013	68 00 00 00 00	 push	 OFFSET ??_C@_02DPKJAMEF@?$CFd@
  00018	50		 push	 eax
  00019	ff 15 00 00 00
	00		 call	 DWORD PTR __imp_?Format@?$CStringT@DV?$StrTraitMFC_DLL@DV?$ChTraitsCRT@D@ATL@@@@@ATL@@QAAXPBDZZ

; 450  : 	return AdjustMask(mask, szT);		

  0001f	83 c4 08	 add	 esp, 8
  00022	8d 45 fc	 lea	 eax, DWORD PTR _szT$[ebp]
  00025	8b cc		 mov	 ecx, esp
  00027	50		 push	 eax
  00028	ff 15 00 00 00
	00		 call	 DWORD PTR __imp_??0?$CStringT@DV?$StrTraitMFC_DLL@DV?$ChTraitsCRT@D@ATL@@@@@ATL@@QAE@ABV01@@Z
  0002e	51		 push	 ecx
  0002f	8d 45 10	 lea	 eax, DWORD PTR _mask$[ebp]
  00032	8b cc		 mov	 ecx, esp
  00034	50		 push	 eax
  00035	ff 15 00 00 00
	00		 call	 DWORD PTR __imp_??0?$CStringT@DV?$StrTraitMFC_DLL@DV?$ChTraitsCRT@D@ATL@@@@@ATL@@QAE@ABV01@@Z
  0003b	8b 4d 08	 mov	 ecx, DWORD PTR _this$[ebp]
  0003e	ff 75 0c	 push	 DWORD PTR ___$ReturnUdt$[ebp]
  00041	51		 push	 ecx
  00042	8b 09		 mov	 ecx, DWORD PTR [ecx]
  00044	ff 51 10	 call	 DWORD PTR [ecx+16]
  00047	8d 4d fc	 lea	 ecx, DWORD PTR _szT$[ebp]
  0004a	ff 15 00 00 00
	00		 call	 DWORD PTR __imp_??1?$CStringT@DV?$StrTraitMFC_DLL@DV?$ChTraitsCRT@D@ATL@@@@@ATL@@QAE@XZ
  00050	8d 4d 10	 lea	 ecx, DWORD PTR _mask$[ebp]
  00053	ff 15 00 00 00
	00		 call	 DWORD PTR __imp_??1?$CStringT@DV?$StrTraitMFC_DLL@DV?$ChTraitsCRT@D@ATL@@@@@ATL@@QAE@XZ
  00059	8b 45 0c	 mov	 eax, DWORD PTR ___$ReturnUdt$[ebp]

; 451  : }

  0005c	8b e5		 mov	 esp, ebp
  0005e	5d		 pop	 ebp
  0005f	c2 10 00	 ret	 16			; 00000010H
?AdjustMask@CDataUtilManager@@UAG?AV?$CStringT@DV?$StrTraitMFC_DLL@DV?$ChTraitsCRT@D@ATL@@@@@ATL@@V23@H@Z ENDP ; CDataUtilManager::AdjustMask
_TEXT	ENDS
; Function compile flags: /Ogtp
; File D:\git\src\IBK\IBK_DRFN\ProjSrc\SrcDrfn\DrCommon\PcTrMng\_DataUtilManager.cpp
; File C:\Program Files (x86)\Microsoft Visual Studio\2019\Community\VC\Tools\MSVC\14.29.30133\atlmfc\include\atlbase.h
; File D:\git\src\IBK\IBK_DRFN\ProjSrc\SrcDrfn\DrCommon\PcTrMng\_DataUtilManager.cpp
; File C:\Program Files (x86)\Microsoft Visual Studio\2019\Community\VC\Tools\MSVC\14.29.30133\atlmfc\include\atlbase.h
; File D:\git\src\IBK\IBK_DRFN\ProjSrc\SrcDrfn\DrCommon\PcTrMng\_DataUtilManager.cpp
; File C:\Program Files (x86)\Microsoft Visual Studio\2019\Community\VC\Tools\MSVC\14.29.30133\atlmfc\include\atlbase.h
; File D:\git\src\IBK\IBK_DRFN\ProjSrc\SrcDrfn\DrCommon\PcTrMng\_DataUtilManager.cpp
; File C:\Program Files (x86)\Microsoft Visual Studio\2019\Community\VC\Tools\MSVC\14.29.30133\atlmfc\include\atlsimpstr.h
; File C:\Program Files (x86)\Microsoft Visual Studio\2019\Community\VC\Tools\MSVC\14.29.30133\atlmfc\include\atlbase.h
; File D:\git\src\IBK\IBK_DRFN\ProjSrc\SrcDrfn\DrCommon\PcTrMng\_DataUtilManager.cpp
; File C:\Program Files (x86)\Microsoft Visual Studio\2019\Community\VC\Tools\MSVC\14.29.30133\atlmfc\include\atlbase.h
; File D:\git\src\IBK\IBK_DRFN\ProjSrc\SrcDrfn\DrCommon\PcTrMng\_DataUtilManager.cpp
; File C:\Program Files (x86)\Microsoft Visual Studio\2019\Community\VC\Tools\MSVC\14.29.30133\atlmfc\include\atlbase.h
; File D:\git\src\IBK\IBK_DRFN\ProjSrc\SrcDrfn\DrCommon\PcTrMng\_DataUtilManager.cpp
; File C:\Program Files (x86)\Microsoft Visual Studio\2019\Community\VC\Tools\MSVC\14.29.30133\atlmfc\include\atlbase.h
; File D:\git\src\IBK\IBK_DRFN\ProjSrc\SrcDrfn\DrCommon\PcTrMng\_DataUtilManager.cpp
;	COMDAT ?GetRegKey@CDataUtilManager@@UAGHPBD0AAV?$CStringT@DV?$StrTraitMFC_DLL@DV?$ChTraitsCRT@D@ATL@@@@@ATL@@@Z
_TEXT	SEGMENT
_regkey$$sroa$135$1$ = -12				; size = 4
_dwCount$ = -8						; size = 4
_hKey$1 = -4						; size = 4
_this$ = 8						; size = 4
_dwType$2 = 12						; size = 4
_szSection$ = 12					; size = 4
_szKey$ = 16						; size = 4
_rData$ = 20						; size = 4
?GetRegKey@CDataUtilManager@@UAGHPBD0AAV?$CStringT@DV?$StrTraitMFC_DLL@DV?$ChTraitsCRT@D@ATL@@@@@ATL@@@Z PROC ; CDataUtilManager::GetRegKey, COMDAT

; 484  : {

  00000	55		 push	 ebp
  00001	8b ec		 mov	 ebp, esp
  00003	83 ec 0c	 sub	 esp, 12			; 0000000cH
; File C:\Program Files (x86)\Microsoft Visual Studio\2019\Community\VC\Tools\MSVC\14.29.30133\atlmfc\include\atlbase.h

; 5885 : 	LONG lRes = m_pTM != NULL ?

  00006	8d 45 fc	 lea	 eax, DWORD PTR _hKey$1[ebp]
  00009	c7 45 fc 00 00
	00 00		 mov	 DWORD PTR _hKey$1[ebp], 0
  00010	50		 push	 eax
  00011	68 1f 00 02 00	 push	 131103			; 0002001fH
  00016	6a 00		 push	 0
  00018	ff 75 0c	 push	 DWORD PTR _szSection$[ebp]
  0001b	68 01 00 00 80	 push	 -2147483647		; 80000001H
  00020	ff 15 00 00 00
	00		 call	 DWORD PTR __imp__RegOpenKeyExA@20

; 5886 : 		m_pTM->RegOpenKeyEx(hKeyParent, lpszKeyName, 0, samDesired, &hKey) :
; 5887 : 		RegOpenKeyEx(hKeyParent, lpszKeyName, 0, samDesired, &hKey);
; 5888 : 	if (lRes == ERROR_SUCCESS)

  00026	85 c0		 test	 eax, eax
  00028	0f 85 b1 00 00
	00		 jne	 $LN61@GetRegKey

; 5892 : 		m_hKey = hKey;

  0002e	53		 push	 ebx
  0002f	8b 5d fc	 mov	 ebx, DWORD PTR _hKey$1[ebp]
  00032	56		 push	 esi
; File D:\git\src\IBK\IBK_DRFN\ProjSrc\SrcDrfn\DrCommon\PcTrMng\_DataUtilManager.cpp

; 489  : 	rData.GetBuffer(MAX_PATH);

  00033	8b 75 14	 mov	 esi, DWORD PTR _rData$[ebp]
  00036	8b ce		 mov	 ecx, esi
; File C:\Program Files (x86)\Microsoft Visual Studio\2019\Community\VC\Tools\MSVC\14.29.30133\atlmfc\include\atlbase.h

; 5892 : 		m_hKey = hKey;

  00038	57		 push	 edi
; File D:\git\src\IBK\IBK_DRFN\ProjSrc\SrcDrfn\DrCommon\PcTrMng\_DataUtilManager.cpp

; 489  : 	rData.GetBuffer(MAX_PATH);

  00039	68 04 01 00 00	 push	 260			; 00000104H
; File C:\Program Files (x86)\Microsoft Visual Studio\2019\Community\VC\Tools\MSVC\14.29.30133\atlmfc\include\atlbase.h

; 5892 : 		m_hKey = hKey;

  0003e	89 5d f4	 mov	 DWORD PTR _regkey$$sroa$135$1$[ebp], ebx
; File D:\git\src\IBK\IBK_DRFN\ProjSrc\SrcDrfn\DrCommon\PcTrMng\_DataUtilManager.cpp

; 489  : 	rData.GetBuffer(MAX_PATH);

  00041	ff 15 00 00 00
	00		 call	 DWORD PTR __imp_?GetBuffer@?$CSimpleStringT@D$00@ATL@@QAEPADH@Z
; File C:\Program Files (x86)\Microsoft Visual Studio\2019\Community\VC\Tools\MSVC\14.29.30133\atlmfc\include\atlsimpstr.h

; 377  : 		return( m_pszData );

  00047	8b 36		 mov	 esi, DWORD PTR [esi]
; File C:\Program Files (x86)\Microsoft Visual Studio\2019\Community\VC\Tools\MSVC\14.29.30133\atlmfc\include\atlbase.h

; 5926 : 	LONG lRes = RegQueryValueEx(m_hKey, lpszValueName, NULL, &dwType, (LPBYTE)pszValue, pdwCount);

  00049	8d 45 f8	 lea	 eax, DWORD PTR _dwCount$[ebp]
  0004c	50		 push	 eax
  0004d	56		 push	 esi
  0004e	8d 45 0c	 lea	 eax, DWORD PTR _dwType$2[ebp]
; File D:\git\src\IBK\IBK_DRFN\ProjSrc\SrcDrfn\DrCommon\PcTrMng\_DataUtilManager.cpp

; 490  : 	DWORD	dwCount = MAX_PATH;

  00051	c7 45 f8 04 01
	00 00		 mov	 DWORD PTR _dwCount$[ebp], 260 ; 00000104H
; File C:\Program Files (x86)\Microsoft Visual Studio\2019\Community\VC\Tools\MSVC\14.29.30133\atlmfc\include\atlbase.h

; 5926 : 	LONG lRes = RegQueryValueEx(m_hKey, lpszValueName, NULL, &dwType, (LPBYTE)pszValue, pdwCount);

  00058	50		 push	 eax
  00059	6a 00		 push	 0
  0005b	ff 75 10	 push	 DWORD PTR _szKey$[ebp]
  0005e	c7 45 0c 00 00
	00 00		 mov	 DWORD PTR _dwType$2[ebp], 0
  00065	53		 push	 ebx
  00066	ff 15 00 00 00
	00		 call	 DWORD PTR __imp__RegQueryValueExA@24
  0006c	8b f8		 mov	 edi, eax

; 5927 : 	ATLASSERT((lRes!=ERROR_SUCCESS) || (dwType == REG_SZ) ||
; 5928 : 			 (dwType == REG_MULTI_SZ) || (dwType == REG_EXPAND_SZ));
; 5929 : 	if (lRes == ERROR_SUCCESS && pszValue != NULL)

  0006e	85 ff		 test	 edi, edi
  00070	75 42		 jne	 SHORT $LN45@GetRegKey
  00072	85 f6		 test	 esi, esi
  00074	74 3e		 je	 SHORT $LN45@GetRegKey

; 5930 : 	{
; 5931 : 		if(*pdwCount>0)

  00076	8b 4d f8	 mov	 ecx, DWORD PTR _dwCount$[ebp]
  00079	85 c9		 test	 ecx, ecx
  0007b	74 34		 je	 SHORT $LN44@GetRegKey

; 5932 : 		{
; 5933 : 			switch(dwType)

  0007d	8b 45 0c	 mov	 eax, DWORD PTR _dwType$2[ebp]
  00080	83 e8 01	 sub	 eax, 1
  00083	74 20		 je	 SHORT $LN46@GetRegKey
  00085	83 e8 01	 sub	 eax, 1
  00088	74 1b		 je	 SHORT $LN46@GetRegKey
  0008a	83 e8 05	 sub	 eax, 5
  0008d	75 1d		 jne	 SHORT $LN64@GetRegKey

; 5938 : 					{
; 5939 : 						pszValue[0]=_T('\0');
; 5940 : 		 				return ERROR_INVALID_DATA;
; 5941 : 					}
; 5942 : 					break;
; 5943 : 				case REG_MULTI_SZ:
; 5944 : 					if ((*pdwCount) % sizeof(TCHAR) != 0 || (*pdwCount) / sizeof(TCHAR) < 1 || pszValue[(*pdwCount) / sizeof(TCHAR) -1] != 0 || (((*pdwCount) / sizeof(TCHAR))>1 && pszValue[(*pdwCount) / sizeof(TCHAR) - 2] != 0) )

  0008f	83 f9 01	 cmp	 ecx, 1
  00092	72 18		 jb	 SHORT $LN64@GetRegKey
  00094	38 44 0e ff	 cmp	 BYTE PTR [esi+ecx-1], al
  00098	75 12		 jne	 SHORT $LN64@GetRegKey
  0009a	83 f9 01	 cmp	 ecx, 1
  0009d	76 15		 jbe	 SHORT $LN45@GetRegKey
  0009f	38 44 0e fe	 cmp	 BYTE PTR [esi+ecx-2], al

; 5945 : 					{
; 5946 : 						pszValue[0]=_T('\0');
; 5947 : 						return ERROR_INVALID_DATA;

  000a3	eb 05		 jmp	 SHORT $LN65@GetRegKey
$LN46@GetRegKey:

; 5934 : 			{
; 5935 : 				case REG_SZ:
; 5936 : 				case REG_EXPAND_SZ:
; 5937 : 					if ((*pdwCount) % sizeof(TCHAR) != 0 || pszValue[(*pdwCount) / sizeof(TCHAR) - 1] != 0)

  000a5	80 7c 0e ff 00	 cmp	 BYTE PTR [esi+ecx-1], 0
$LN65@GetRegKey:
; File D:\git\src\IBK\IBK_DRFN\ProjSrc\SrcDrfn\DrCommon\PcTrMng\_DataUtilManager.cpp

; 494  : 	rData.ReleaseBuffer();

  000aa	74 08		 je	 SHORT $LN45@GetRegKey
$LN64@GetRegKey:
  000ac	bf 0d 00 00 00	 mov	 edi, 13			; 0000000dH
$LN44@GetRegKey:
  000b1	c6 06 00	 mov	 BYTE PTR [esi], 0
$LN45@GetRegKey:
  000b4	8b 4d 14	 mov	 ecx, DWORD PTR _rData$[ebp]
  000b7	6a ff		 push	 -1
  000b9	ff 15 00 00 00
	00		 call	 DWORD PTR __imp_?ReleaseBuffer@?$CSimpleStringT@D$00@ATL@@QAEXH@Z
; File C:\Program Files (x86)\Microsoft Visual Studio\2019\Community\VC\Tools\MSVC\14.29.30133\atlmfc\include\atlbase.h

; 5804 : 	if (m_hKey != NULL)

  000bf	8b 45 f4	 mov	 eax, DWORD PTR _regkey$$sroa$135$1$[ebp]
; File D:\git\src\IBK\IBK_DRFN\ProjSrc\SrcDrfn\DrCommon\PcTrMng\_DataUtilManager.cpp

; 494  : 	rData.ReleaseBuffer();

  000c2	33 db		 xor	 ebx, ebx
  000c4	85 ff		 test	 edi, edi
  000c6	0f 94 c3	 sete	 bl
; File C:\Program Files (x86)\Microsoft Visual Studio\2019\Community\VC\Tools\MSVC\14.29.30133\atlmfc\include\atlbase.h

; 5804 : 	if (m_hKey != NULL)

  000c9	85 c0		 test	 eax, eax
  000cb	74 07		 je	 SHORT $LN62@GetRegKey

; 5805 : 	{
; 5806 : 		lRes = RegCloseKey(m_hKey);

  000cd	50		 push	 eax
  000ce	ff 15 00 00 00
	00		 call	 DWORD PTR __imp__RegCloseKey@4
$LN62@GetRegKey:
  000d4	5f		 pop	 edi
  000d5	5e		 pop	 esi
; File D:\git\src\IBK\IBK_DRFN\ProjSrc\SrcDrfn\DrCommon\PcTrMng\_DataUtilManager.cpp

; 496  : 	return bRet;

  000d6	8b c3		 mov	 eax, ebx
  000d8	5b		 pop	 ebx

; 497  : }

  000d9	8b e5		 mov	 esp, ebp
  000db	5d		 pop	 ebp
  000dc	c2 10 00	 ret	 16			; 00000010H
$LN61@GetRegKey:

; 496  : 	return bRet;

  000df	33 c0		 xor	 eax, eax

; 497  : }

  000e1	8b e5		 mov	 esp, ebp
  000e3	5d		 pop	 ebp
  000e4	c2 10 00	 ret	 16			; 00000010H
?GetRegKey@CDataUtilManager@@UAGHPBD0AAV?$CStringT@DV?$StrTraitMFC_DLL@DV?$ChTraitsCRT@D@ATL@@@@@ATL@@@Z ENDP ; CDataUtilManager::GetRegKey
_TEXT	ENDS
; Function compile flags: /Ogtp
; File D:\git\src\IBK\IBK_DRFN\ProjSrc\SrcDrfn\DrCommon\PcTrMng\_DataUtilManager.cpp
;	COMDAT ?GetSignSimbol@CDataUtilManager@@UAG?AV?$CStringT@DV?$StrTraitMFC_DLL@DV?$ChTraitsCRT@D@ATL@@@@@ATL@@H@Z
_TEXT	SEGMENT
_this$ = 8						; size = 4
___$ReturnUdt$ = 12					; size = 4
_sign$ = 16						; size = 4
?GetSignSimbol@CDataUtilManager@@UAG?AV?$CStringT@DV?$StrTraitMFC_DLL@DV?$ChTraitsCRT@D@ATL@@@@@ATL@@H@Z PROC ; CDataUtilManager::GetSignSimbol, COMDAT

; 454  : {

  00000	55		 push	 ebp
  00001	8b ec		 mov	 ebp, esp

; 455  : 	switch(sign)

  00003	8b 45 10	 mov	 eax, DWORD PTR _sign$[ebp]
  00006	48		 dec	 eax
  00007	56		 push	 esi
  00008	83 f8 04	 cmp	 eax, 4
  0000b	77 5f		 ja	 SHORT $LN2@GetSignSim
  0000d	ff 24 85 00 00
	00 00		 jmp	 DWORD PTR $LN10@GetSignSim[eax*4]
$LN4@GetSignSim:

; 456  : 	{
; 457  : 	case 1:
; 458  : 		return "";
; 459  : 	case 2: 
; 460  : 		return "";
; 461  : 	case 3:
; 462  : 		//return "";
; 463  : 		return "";
; 464  : 	case 4:
; 465  : 		return "";
; 466  : 	case 5:
; 467  : 		return "";
; 468  : 	}
; 469  : 	return "";
; 470  : }

  00014	8b 4d 0c	 mov	 ecx, DWORD PTR ___$ReturnUdt$[ebp]
  00017	68 00 00 00 00	 push	 OFFSET ??_C@_02EOKDGIFO@?$KB?h@
  0001c	ff 15 00 00 00
	00		 call	 DWORD PTR __imp_??0?$CStringT@DV?$StrTraitMFC_DLL@DV?$ChTraitsCRT@D@ATL@@@@@ATL@@QAE@PBD@Z
  00022	8b 45 0c	 mov	 eax, DWORD PTR ___$ReturnUdt$[ebp]
  00025	5e		 pop	 esi
  00026	5d		 pop	 ebp
  00027	c2 0c 00	 ret	 12			; 0000000cH
$LN5@GetSignSim:
  0002a	8b 4d 0c	 mov	 ecx, DWORD PTR ___$ReturnUdt$[ebp]
  0002d	68 00 00 00 00	 push	 OFFSET ??_C@_02KNFHLBJF@?$KB?c@
  00032	ff 15 00 00 00
	00		 call	 DWORD PTR __imp_??0?$CStringT@DV?$StrTraitMFC_DLL@DV?$ChTraitsCRT@D@ATL@@@@@ATL@@QAE@PBD@Z
  00038	8b 45 0c	 mov	 eax, DWORD PTR ___$ReturnUdt$[ebp]
  0003b	5e		 pop	 esi
  0003c	5d		 pop	 ebp
  0003d	c2 0c 00	 ret	 12			; 0000000cH
$LN7@GetSignSim:
  00040	8b 4d 0c	 mov	 ecx, DWORD PTR ___$ReturnUdt$[ebp]
  00043	68 00 00 00 00	 push	 OFFSET ??_C@_02FHLIFJBP@?$KB?i@
  00048	ff 15 00 00 00
	00		 call	 DWORD PTR __imp_??0?$CStringT@DV?$StrTraitMFC_DLL@DV?$ChTraitsCRT@D@ATL@@@@@ATL@@QAE@PBD@Z
  0004e	8b 45 0c	 mov	 eax, DWORD PTR ___$ReturnUdt$[ebp]
  00051	5e		 pop	 esi
  00052	5d		 pop	 ebp
  00053	c2 0c 00	 ret	 12			; 0000000cH
$LN8@GetSignSim:
  00056	8b 4d 0c	 mov	 ecx, DWORD PTR ___$ReturnUdt$[ebp]
  00059	68 00 00 00 00	 push	 OFFSET ??_C@_02PLANBGBD@?$KB?e@
  0005e	ff 15 00 00 00
	00		 call	 DWORD PTR __imp_??0?$CStringT@DV?$StrTraitMFC_DLL@DV?$ChTraitsCRT@D@ATL@@@@@ATL@@QAE@PBD@Z
  00064	8b 45 0c	 mov	 eax, DWORD PTR ___$ReturnUdt$[ebp]
  00067	5e		 pop	 esi
  00068	5d		 pop	 ebp
  00069	c2 0c 00	 ret	 12			; 0000000cH
$LN2@GetSignSim:
  0006c	8b 4d 0c	 mov	 ecx, DWORD PTR ___$ReturnUdt$[ebp]
  0006f	68 00 00 00 00	 push	 OFFSET ??_C@_00CNPNBAHC@@
  00074	ff 15 00 00 00
	00		 call	 DWORD PTR __imp_??0?$CStringT@DV?$StrTraitMFC_DLL@DV?$ChTraitsCRT@D@ATL@@@@@ATL@@QAE@PBD@Z
  0007a	8b 45 0c	 mov	 eax, DWORD PTR ___$ReturnUdt$[ebp]
  0007d	5e		 pop	 esi
  0007e	5d		 pop	 ebp
  0007f	c2 0c 00	 ret	 12			; 0000000cH
  00082	66 90		 npad	 2
$LN10@GetSignSim:
  00084	00 00 00 00	 DD	 $LN4@GetSignSim
  00088	00 00 00 00	 DD	 $LN5@GetSignSim
  0008c	00 00 00 00	 DD	 $LN2@GetSignSim
  00090	00 00 00 00	 DD	 $LN7@GetSignSim
  00094	00 00 00 00	 DD	 $LN8@GetSignSim
?GetSignSimbol@CDataUtilManager@@UAG?AV?$CStringT@DV?$StrTraitMFC_DLL@DV?$ChTraitsCRT@D@ATL@@@@@ATL@@H@Z ENDP ; CDataUtilManager::GetSignSimbol
_TEXT	ENDS
; Function compile flags: /Ogtp
; File D:\git\src\IBK\IBK_DRFN\ProjSrc\SrcDrfn\DrCommon\PcTrMng\_DataUtilManager.cpp
;	COMDAT ?AddDashToAccount@CDataUtilManager@@UAGXPBDAAV?$CStringT@DV?$StrTraitMFC_DLL@DV?$ChTraitsCRT@D@ATL@@@@@ATL@@@Z
_TEXT	SEGMENT
_this$ = 8						; size = 4
_szIn$ = 12						; size = 4
__lpIn$ = 12						; size = 4
_szOut$ = 16						; size = 4
?AddDashToAccount@CDataUtilManager@@UAGXPBDAAV?$CStringT@DV?$StrTraitMFC_DLL@DV?$ChTraitsCRT@D@ATL@@@@@ATL@@@Z PROC ; CDataUtilManager::AddDashToAccount, COMDAT

; 473  : {

  00000	55		 push	 ebp
  00001	8b ec		 mov	 ebp, esp

; 474  : 	CString szIn = _lpIn;

  00003	ff 75 0c	 push	 DWORD PTR __lpIn$[ebp]
  00006	8d 4d 0c	 lea	 ecx, DWORD PTR _szIn$[ebp]
  00009	ff 15 00 00 00
	00		 call	 DWORD PTR __imp_??0?$CStringT@DV?$StrTraitMFC_DLL@DV?$ChTraitsCRT@D@ATL@@@@@ATL@@QAE@PBD@Z

; 475  : 	ASSERT(szIn.GetLength()==11);
; 476  : 
; 477  : 	szIn.Insert(3, "-");

  0000f	68 00 00 00 00	 push	 OFFSET ??_C@_01JOAMLHOP@?9@
  00014	6a 03		 push	 3
  00016	8d 4d 0c	 lea	 ecx, DWORD PTR _szIn$[ebp]
  00019	ff 15 00 00 00
	00		 call	 DWORD PTR __imp_?Insert@?$CStringT@DV?$StrTraitMFC_DLL@DV?$ChTraitsCRT@D@ATL@@@@@ATL@@QAEHHPBD@Z

; 478  : 	szIn.Insert(6, "-");

  0001f	68 00 00 00 00	 push	 OFFSET ??_C@_01JOAMLHOP@?9@
  00024	6a 06		 push	 6
  00026	8d 4d 0c	 lea	 ecx, DWORD PTR _szIn$[ebp]
  00029	ff 15 00 00 00
	00		 call	 DWORD PTR __imp_?Insert@?$CStringT@DV?$StrTraitMFC_DLL@DV?$ChTraitsCRT@D@ATL@@@@@ATL@@QAEHHPBD@Z

; 479  : 	szOut = szIn;

  0002f	8b 4d 10	 mov	 ecx, DWORD PTR _szOut$[ebp]
  00032	8d 45 0c	 lea	 eax, DWORD PTR _szIn$[ebp]
  00035	50		 push	 eax
  00036	ff 15 00 00 00
	00		 call	 DWORD PTR __imp_??4?$CStringT@DV?$StrTraitMFC_DLL@DV?$ChTraitsCRT@D@ATL@@@@@ATL@@QAEAAV01@ABV01@@Z

; 480  : }

  0003c	8d 4d 0c	 lea	 ecx, DWORD PTR _szIn$[ebp]
  0003f	ff 15 00 00 00
	00		 call	 DWORD PTR __imp_??1?$CStringT@DV?$StrTraitMFC_DLL@DV?$ChTraitsCRT@D@ATL@@@@@ATL@@QAE@XZ
  00045	5d		 pop	 ebp
  00046	c2 0c 00	 ret	 12			; 0000000cH
?AddDashToAccount@CDataUtilManager@@UAGXPBDAAV?$CStringT@DV?$StrTraitMFC_DLL@DV?$ChTraitsCRT@D@ATL@@@@@ATL@@@Z ENDP ; CDataUtilManager::AddDashToAccount
_TEXT	ENDS
; Function compile flags: /Ogtp
; File D:\git\src\IBK\IBK_DRFN\ProjSrc\SrcDrfn\DrCommon\PcTrMng\_DataUtilManager.cpp
; File C:\Program Files (x86)\Microsoft Visual Studio\2019\Community\VC\Tools\MSVC\14.29.30133\atlmfc\include\cstringt.h
; File D:\git\src\IBK\IBK_DRFN\ProjSrc\SrcDrfn\DrCommon\PcTrMng\_DataUtilManager.cpp
; File C:\Program Files (x86)\Microsoft Visual Studio\2019\Community\VC\Tools\MSVC\14.29.30133\atlmfc\include\cstringt.h
; File D:\git\src\IBK\IBK_DRFN\ProjSrc\SrcDrfn\DrCommon\PcTrMng\_DataUtilManager.cpp
; File C:\Program Files (x86)\Microsoft Visual Studio\2019\Community\VC\Tools\MSVC\14.29.30133\atlmfc\include\cstringt.h
; File D:\git\src\IBK\IBK_DRFN\ProjSrc\SrcDrfn\DrCommon\PcTrMng\_DataUtilManager.cpp
; File C:\Program Files (x86)\Microsoft Visual Studio\2019\Community\VC\Tools\MSVC\14.29.30133\atlmfc\include\cstringt.h
; File D:\git\src\IBK\IBK_DRFN\ProjSrc\SrcDrfn\DrCommon\PcTrMng\_DataUtilManager.cpp
; File C:\Program Files (x86)\Microsoft Visual Studio\2019\Community\VC\Tools\MSVC\14.29.30133\atlmfc\include\cstringt.h
; File D:\git\src\IBK\IBK_DRFN\ProjSrc\SrcDrfn\DrCommon\PcTrMng\_DataUtilManager.cpp
; File C:\Program Files (x86)\Microsoft Visual Studio\2019\Community\VC\Tools\MSVC\14.29.30133\atlmfc\include\cstringt.h
; File D:\git\src\IBK\IBK_DRFN\ProjSrc\SrcDrfn\DrCommon\PcTrMng\_DataUtilManager.cpp
;	COMDAT ?GetFutureString@CDataUtilManager@@UAG?AV?$CStringT@DV?$StrTraitMFC_DLL@DV?$ChTraitsCRT@D@ATL@@@@@ATL@@V23@H@Z
_TEXT	SEGMENT
_szNonPoint$1 = -28					; size = 4
$T2 = -28						; size = 4
$T3 = -28						; size = 4
$T4 = -28						; size = 4
_bSign$1$ = -24						; size = 4
_szSign$5 = -20						; size = 4
_szNonPoint$6 = -16					; size = 4
$T7 = -12						; size = 4
$T8 = -12						; size = 4
$T9 = -12						; size = 4
$T10 = -12						; size = 4
$T11 = -12						; size = 4
$T12 = -12						; size = 4
$T13 = -12						; size = 4
_szTail$14 = -8						; size = 4
_strTemp$ = -4						; size = 4
$T15 = 8						; size = 4
$T16 = 8						; size = 4
$T17 = 8						; size = 4
$T18 = 8						; size = 4
$T19 = 8						; size = 4
$T20 = 8						; size = 4
_szHead$21 = 8						; size = 4
$T22 = 8						; size = 4
$T23 = 8						; size = 4
_this$ = 8						; size = 4
_szRtn$24 = 12						; size = 4
_szRtn$25 = 12						; size = 4
___$ReturnUdt$ = 12					; size = 4
_strData$ = 16						; size = 4
_szSign$26 = 20						; size = 4
_szPoint$27 = 20					; size = 4
_bJisu$ = 20						; size = 4
?GetFutureString@CDataUtilManager@@UAG?AV?$CStringT@DV?$StrTraitMFC_DLL@DV?$ChTraitsCRT@D@ATL@@@@@ATL@@V23@H@Z PROC ; CDataUtilManager::GetFutureString, COMDAT

; 500  : {

  00000	55		 push	 ebp
  00001	8b ec		 mov	 ebp, esp
  00003	83 ec 1c	 sub	 esp, 28			; 0000001cH

; 501  : 	strData.TrimLeft();

  00006	8d 4d 10	 lea	 ecx, DWORD PTR _strData$[ebp]
  00009	53		 push	 ebx
  0000a	56		 push	 esi
  0000b	57		 push	 edi
  0000c	ff 15 00 00 00
	00		 call	 DWORD PTR __imp_?TrimLeft@?$CStringT@DV?$StrTraitMFC_DLL@DV?$ChTraitsCRT@D@ATL@@@@@ATL@@QAEAAV12@XZ

; 502  : 	strData.TrimRight();

  00012	8d 4d 10	 lea	 ecx, DWORD PTR _strData$[ebp]
  00015	ff 15 00 00 00
	00		 call	 DWORD PTR __imp_?TrimRight@?$CStringT@DV?$StrTraitMFC_DLL@DV?$ChTraitsCRT@D@ATL@@@@@ATL@@QAEAAV12@XZ

; 503  : 	
; 504  : 	CString strRet;

  0001b	8b 7d 0c	 mov	 edi, DWORD PTR ___$ReturnUdt$[ebp]
  0001e	8b cf		 mov	 ecx, edi
  00020	ff 15 00 00 00
	00		 call	 DWORD PTR __imp_??0?$CStringT@DV?$StrTraitMFC_DLL@DV?$ChTraitsCRT@D@ATL@@@@@ATL@@QAE@XZ

; 505  : 	CString strTemp;

  00026	8d 4d fc	 lea	 ecx, DWORD PTR _strTemp$[ebp]
  00029	ff 15 00 00 00
	00		 call	 DWORD PTR __imp_??0?$CStringT@DV?$StrTraitMFC_DLL@DV?$ChTraitsCRT@D@ATL@@@@@ATL@@QAE@XZ

; 506  : 	
; 507  : 	if( bJisu == TRUE )

  0002f	83 7d 14 01	 cmp	 DWORD PTR _bJisu$[ebp], 1
  00033	8d 4d 0c	 lea	 ecx, DWORD PTR _szRtn$25[ebp]
  00036	0f 85 22 04 00
	00		 jne	 $LN2@GetFutureS

; 508  : 	{
; 509  : 		BOOL bSign = FALSE;

  0003c	c7 45 e8 00 00
	00 00		 mov	 DWORD PTR _bSign$1$[ebp], 0

; 510  : 		CString szRtn, szSign, szPoint, szNonPoint;

  00043	ff 15 00 00 00
	00		 call	 DWORD PTR __imp_??0?$CStringT@DV?$StrTraitMFC_DLL@DV?$ChTraitsCRT@D@ATL@@@@@ATL@@QAE@XZ
  00049	8d 4d ec	 lea	 ecx, DWORD PTR _szSign$5[ebp]
  0004c	ff 15 00 00 00
	00		 call	 DWORD PTR __imp_??0?$CStringT@DV?$StrTraitMFC_DLL@DV?$ChTraitsCRT@D@ATL@@@@@ATL@@QAE@XZ
  00052	8d 4d 14	 lea	 ecx, DWORD PTR _szPoint$27[ebp]
  00055	ff 15 00 00 00
	00		 call	 DWORD PTR __imp_??0?$CStringT@DV?$StrTraitMFC_DLL@DV?$ChTraitsCRT@D@ATL@@@@@ATL@@QAE@XZ
  0005b	8d 4d f0	 lea	 ecx, DWORD PTR _szNonPoint$6[ebp]
  0005e	ff 15 00 00 00
	00		 call	 DWORD PTR __imp_??0?$CStringT@DV?$StrTraitMFC_DLL@DV?$ChTraitsCRT@D@ATL@@@@@ATL@@QAE@XZ

; 511  : 		szRtn = RemoveFront(strData,'0');		//  0 .

  00064	8b 5d 08	 mov	 ebx, DWORD PTR _this$[ebp]
  00067	6a 30		 push	 48			; 00000030H
  00069	ff 75 10	 push	 DWORD PTR _strData$[ebp]
  0006c	8b 03		 mov	 eax, DWORD PTR [ebx]
  0006e	53		 push	 ebx
  0006f	ff 50 40	 call	 DWORD PTR [eax+64]
  00072	50		 push	 eax
  00073	8d 4d 0c	 lea	 ecx, DWORD PTR _szRtn$25[ebp]
  00076	ff 15 00 00 00
	00		 call	 DWORD PTR __imp_??4?$CStringT@DV?$StrTraitMFC_DLL@DV?$ChTraitsCRT@D@ATL@@@@@ATL@@QAEAAV01@PBD@Z

; 512  : 		if(IsSign(szRtn))						//     

  0007c	ff 75 0c	 push	 DWORD PTR _szRtn$25[ebp]
  0007f	8b 03		 mov	 eax, DWORD PTR [ebx]
  00081	53		 push	 ebx
  00082	ff 50 24	 call	 DWORD PTR [eax+36]
  00085	85 c0		 test	 eax, eax
  00087	74 41		 je	 SHORT $LN4@GetFutureS

; 513  : 		{
; 514  : 			szSign = szRtn[0];

  00089	6a 00		 push	 0
  0008b	8d 4d 0c	 lea	 ecx, DWORD PTR _szRtn$25[ebp]
  0008e	ff 15 00 00 00
	00		 call	 DWORD PTR __imp_??A?$CSimpleStringT@D$00@ATL@@QBEDH@Z
  00094	0f b6 c0	 movzx	 eax, al
  00097	8d 4d ec	 lea	 ecx, DWORD PTR _szSign$5[ebp]
  0009a	50		 push	 eax
  0009b	ff 15 00 00 00
	00		 call	 DWORD PTR __imp_??4?$CStringT@DV?$StrTraitMFC_DLL@DV?$ChTraitsCRT@D@ATL@@@@@ATL@@QAEAAV01@D@Z

; 515  : 			szRtn = szRtn.Mid(1);

  000a1	6a 01		 push	 1
  000a3	8d 45 08	 lea	 eax, DWORD PTR $T23[ebp]
  000a6	50		 push	 eax
  000a7	8d 4d 0c	 lea	 ecx, DWORD PTR _szRtn$25[ebp]
  000aa	ff 15 00 00 00
	00		 call	 DWORD PTR __imp_?Mid@?$CStringT@DV?$StrTraitMFC_DLL@DV?$ChTraitsCRT@D@ATL@@@@@ATL@@QBE?AV12@H@Z
  000b0	50		 push	 eax
  000b1	8d 4d 0c	 lea	 ecx, DWORD PTR _szRtn$25[ebp]
  000b4	ff 15 00 00 00
	00		 call	 DWORD PTR __imp_??4?$CStringT@DV?$StrTraitMFC_DLL@DV?$ChTraitsCRT@D@ATL@@@@@ATL@@QAEAAV01@ABV01@@Z
  000ba	8d 4d 08	 lea	 ecx, DWORD PTR $T23[ebp]
  000bd	ff 15 00 00 00
	00		 call	 DWORD PTR __imp_??1?$CStringT@DV?$StrTraitMFC_DLL@DV?$ChTraitsCRT@D@ATL@@@@@ATL@@QAE@XZ

; 516  : 			bSign = TRUE;

  000c3	c7 45 e8 01 00
	00 00		 mov	 DWORD PTR _bSign$1$[ebp], 1
$LN4@GetFutureS:

; 517  : 		}				
; 518  : 		
; 519  : 		if (szRtn.GetLength() < 6)

  000ca	8b 45 0c	 mov	 eax, DWORD PTR _szRtn$25[ebp]
  000cd	83 78 f4 06	 cmp	 DWORD PTR [eax-12], 6
  000d1	7d 2b		 jge	 SHORT $LN5@GetFutureS

; 520  : 		{
; 521  : 			szPoint.Format("%6.6s", szRtn);

  000d3	50		 push	 eax
  000d4	8d 45 14	 lea	 eax, DWORD PTR _szPoint$27[ebp]
  000d7	68 00 00 00 00	 push	 OFFSET ??_C@_05FDCEOMOF@?$CF6?46s@
  000dc	50		 push	 eax
  000dd	ff 15 00 00 00
	00		 call	 DWORD PTR __imp_?Format@?$CStringT@DV?$StrTraitMFC_DLL@DV?$ChTraitsCRT@D@ATL@@@@@ATL@@QAAXPBDZZ
  000e3	83 c4 0c	 add	 esp, 12			; 0000000cH

; 522  : 			szRtn = szPoint;

  000e6	8d 45 14	 lea	 eax, DWORD PTR _szPoint$27[ebp]
  000e9	8d 4d 0c	 lea	 ecx, DWORD PTR _szRtn$25[ebp]
  000ec	50		 push	 eax
  000ed	ff 15 00 00 00
	00		 call	 DWORD PTR __imp_??4?$CStringT@DV?$StrTraitMFC_DLL@DV?$ChTraitsCRT@D@ATL@@@@@ATL@@QAEAAV01@ABV01@@Z

; 523  : 			szPoint.Empty();

  000f3	8d 4d 14	 lea	 ecx, DWORD PTR _szPoint$27[ebp]
  000f6	ff 15 00 00 00
	00		 call	 DWORD PTR __imp_?Empty@?$CSimpleStringT@D$00@ATL@@QAEXXZ

; 524  : 		}

  000fc	eb 24		 jmp	 SHORT $LN122@GetFutureS
$LN5@GetFutureS:

; 525  : 		else if (szRtn.GetLength() > 6)

  000fe	7e 25		 jle	 SHORT $LN7@GetFutureS

; 526  : 		{
; 527  : 			szRtn = szRtn.Left(6);

  00100	6a 06		 push	 6
  00102	8d 45 08	 lea	 eax, DWORD PTR $T22[ebp]
  00105	50		 push	 eax
  00106	8d 4d 0c	 lea	 ecx, DWORD PTR _szRtn$25[ebp]
  00109	ff 15 00 00 00
	00		 call	 DWORD PTR __imp_?Left@?$CStringT@DV?$StrTraitMFC_DLL@DV?$ChTraitsCRT@D@ATL@@@@@ATL@@QBE?AV12@H@Z
  0010f	50		 push	 eax
  00110	8d 4d 0c	 lea	 ecx, DWORD PTR _szRtn$25[ebp]
  00113	ff 15 00 00 00
	00		 call	 DWORD PTR __imp_??4?$CStringT@DV?$StrTraitMFC_DLL@DV?$ChTraitsCRT@D@ATL@@@@@ATL@@QAEAAV01@ABV01@@Z
  00119	8d 4d 08	 lea	 ecx, DWORD PTR $T22[ebp]
  0011c	ff 15 00 00 00
	00		 call	 DWORD PTR __imp_??1?$CStringT@DV?$StrTraitMFC_DLL@DV?$ChTraitsCRT@D@ATL@@@@@ATL@@QAE@XZ
$LN122@GetFutureS:

; 528  : 		}		
; 529  : 		
; 530  : 		if(szRtn.GetLength() == 6)

  00122	8b 45 0c	 mov	 eax, DWORD PTR _szRtn$25[ebp]
$LN7@GetFutureS:
  00125	83 78 f4 06	 cmp	 DWORD PTR [eax-12], 6
  00129	0f 85 a9 02 00
	00		 jne	 $LN8@GetFutureS

; 531  : 		{			
; 532  : 			szRtn.Replace(0x20, '0');			

  0012f	6a 30		 push	 48			; 00000030H
  00131	6a 20		 push	 32			; 00000020H
  00133	8d 4d 0c	 lea	 ecx, DWORD PTR _szRtn$25[ebp]
  00136	ff 15 00 00 00
	00		 call	 DWORD PTR __imp_?Replace@?$CStringT@DV?$StrTraitMFC_DLL@DV?$ChTraitsCRT@D@ATL@@@@@ATL@@QAEHDD@Z

; 533  : 			CString szTail;

  0013c	8d 4d f8	 lea	 ecx, DWORD PTR _szTail$14[ebp]
  0013f	ff 15 00 00 00
	00		 call	 DWORD PTR __imp_??0?$CStringT@DV?$StrTraitMFC_DLL@DV?$ChTraitsCRT@D@ATL@@@@@ATL@@QAE@XZ

; 534  : 			CString szHead;				

  00145	8d 4d 08	 lea	 ecx, DWORD PTR _szHead$21[ebp]
  00148	ff 15 00 00 00
	00		 call	 DWORD PTR __imp_??0?$CStringT@DV?$StrTraitMFC_DLL@DV?$ChTraitsCRT@D@ATL@@@@@ATL@@QAE@XZ

; 535  : 			int is_dotindex = szRtn.Find('.');

  0014e	6a 00		 push	 0
  00150	6a 2e		 push	 46			; 0000002eH
  00152	8d 4d 0c	 lea	 ecx, DWORD PTR _szRtn$25[ebp]
  00155	ff 15 00 00 00
	00		 call	 DWORD PTR __imp_?Find@?$CStringT@DV?$StrTraitMFC_DLL@DV?$ChTraitsCRT@D@ATL@@@@@ATL@@QBEHDH@Z
  0015b	8b f0		 mov	 esi, eax

; 536  : 			if (is_dotindex >= 0)

  0015d	8d 4d 0c	 lea	 ecx, DWORD PTR _szRtn$25[ebp]
  00160	8d 45 f4	 lea	 eax, DWORD PTR $T13[ebp]
  00163	85 f6		 test	 esi, esi
  00165	78 23		 js	 SHORT $LN9@GetFutureS

; 537  : 			{
; 538  : 				szHead = szRtn.Left(is_dotindex);

  00167	56		 push	 esi
  00168	50		 push	 eax
  00169	ff 15 00 00 00
	00		 call	 DWORD PTR __imp_?Left@?$CStringT@DV?$StrTraitMFC_DLL@DV?$ChTraitsCRT@D@ATL@@@@@ATL@@QBE?AV12@H@Z
  0016f	50		 push	 eax
  00170	8d 4d 08	 lea	 ecx, DWORD PTR _szHead$21[ebp]
  00173	ff 15 00 00 00
	00		 call	 DWORD PTR __imp_??4?$CStringT@DV?$StrTraitMFC_DLL@DV?$ChTraitsCRT@D@ATL@@@@@ATL@@QAEAAV01@ABV01@@Z
  00179	8d 4d f4	 lea	 ecx, DWORD PTR $T13[ebp]
  0017c	ff 15 00 00 00
	00		 call	 DWORD PTR __imp_??1?$CStringT@DV?$StrTraitMFC_DLL@DV?$ChTraitsCRT@D@ATL@@@@@ATL@@QAE@XZ

; 539  : 				szTail = szRtn.Mid(is_dotindex+1, 2);				

  00182	6a 02		 push	 2
  00184	8d 46 01	 lea	 eax, DWORD PTR [esi+1]
  00187	50		 push	 eax

; 540  : 			}

  00188	eb 20		 jmp	 SHORT $LN123@GetFutureS
$LN9@GetFutureS:

; 541  : 			else
; 542  : 			{
; 543  : 				szHead = szRtn.Left(4);

  0018a	6a 04		 push	 4
  0018c	50		 push	 eax
  0018d	ff 15 00 00 00
	00		 call	 DWORD PTR __imp_?Left@?$CStringT@DV?$StrTraitMFC_DLL@DV?$ChTraitsCRT@D@ATL@@@@@ATL@@QBE?AV12@H@Z
  00193	50		 push	 eax
  00194	8d 4d 08	 lea	 ecx, DWORD PTR _szHead$21[ebp]
  00197	ff 15 00 00 00
	00		 call	 DWORD PTR __imp_??4?$CStringT@DV?$StrTraitMFC_DLL@DV?$ChTraitsCRT@D@ATL@@@@@ATL@@QAEAAV01@ABV01@@Z
  0019d	8d 4d f4	 lea	 ecx, DWORD PTR $T12[ebp]
  001a0	ff 15 00 00 00
	00		 call	 DWORD PTR __imp_??1?$CStringT@DV?$StrTraitMFC_DLL@DV?$ChTraitsCRT@D@ATL@@@@@ATL@@QAE@XZ

; 544  : 				szTail = szRtn.Mid(4,2);

  001a6	6a 02		 push	 2
  001a8	6a 04		 push	 4
$LN123@GetFutureS:
; File C:\Program Files (x86)\Microsoft Visual Studio\2019\Community\VC\Tools\MSVC\14.29.30133\atlmfc\include\cstringt.h

; 2401 : 		CStringT strResult( str1.GetManager() );

  001aa	8d 45 f4	 lea	 eax, DWORD PTR $T11[ebp]
  001ad	50		 push	 eax
  001ae	8d 4d 0c	 lea	 ecx, DWORD PTR _szRtn$25[ebp]
  001b1	ff 15 00 00 00
	00		 call	 DWORD PTR __imp_?Mid@?$CStringT@DV?$StrTraitMFC_DLL@DV?$ChTraitsCRT@D@ATL@@@@@ATL@@QBE?AV12@HH@Z
  001b7	50		 push	 eax
  001b8	8d 4d f8	 lea	 ecx, DWORD PTR _szTail$14[ebp]
  001bb	ff 15 00 00 00
	00		 call	 DWORD PTR __imp_??4?$CStringT@DV?$StrTraitMFC_DLL@DV?$ChTraitsCRT@D@ATL@@@@@ATL@@QAEAAV01@ABV01@@Z
  001c1	8d 4d f4	 lea	 ecx, DWORD PTR $T11[ebp]
  001c4	ff 15 00 00 00
	00		 call	 DWORD PTR __imp_??1?$CStringT@DV?$StrTraitMFC_DLL@DV?$ChTraitsCRT@D@ATL@@@@@ATL@@QAE@XZ
  001ca	8d 4d 08	 lea	 ecx, DWORD PTR _szHead$21[ebp]
  001cd	ff 15 00 00 00
	00		 call	 DWORD PTR __imp_?GetManager@?$CStringT@DV?$StrTraitMFC_DLL@DV?$ChTraitsCRT@D@ATL@@@@@ATL@@QBEPAUIAtlStringMgr@2@XZ
  001d3	50		 push	 eax
  001d4	8d 4d f4	 lea	 ecx, DWORD PTR $T10[ebp]
  001d7	ff 15 00 00 00
	00		 call	 DWORD PTR __imp_??0?$CStringT@DV?$StrTraitMFC_DLL@DV?$ChTraitsCRT@D@ATL@@@@@ATL@@QAE@PAUIAtlStringMgr@1@@Z

; 2402 : 
; 2403 : 		CThisSimpleString::Concatenate( strResult, str1, str1.GetLength(), psz2, CThisSimpleString::StringLength( psz2 ) );

  001dd	8b 45 08	 mov	 eax, DWORD PTR _szHead$21[ebp]
  001e0	6a 01		 push	 1
  001e2	68 00 00 00 00	 push	 OFFSET ??_C@_01LFCBOECM@?4@
  001e7	ff 70 f4	 push	 DWORD PTR [eax-12]
  001ea	50		 push	 eax
  001eb	8d 45 f4	 lea	 eax, DWORD PTR $T10[ebp]
  001ee	50		 push	 eax
  001ef	ff 15 00 00 00
	00		 call	 DWORD PTR __imp_?Concatenate@?$CSimpleStringT@D$00@ATL@@KAXAAV12@PBDH1H@Z
; File D:\git\src\IBK\IBK_DRFN\ProjSrc\SrcDrfn\DrCommon\PcTrMng\_DataUtilManager.cpp

; 546  : 			szRtn = szHead + "." + szTail;

  001f5	8d 45 f8	 lea	 eax, DWORD PTR _szTail$14[ebp]
  001f8	50		 push	 eax
  001f9	8d 45 f4	 lea	 eax, DWORD PTR $T10[ebp]
  001fc	50		 push	 eax
  001fd	8d 45 e4	 lea	 eax, DWORD PTR $T4[ebp]
  00200	50		 push	 eax
  00201	e8 00 00 00 00	 call	 ??HATL@@YA?AV?$CStringT@DV?$StrTraitMFC_DLL@DV?$ChTraitsCRT@D@ATL@@@@@0@ABV10@0@Z ; ATL::operator+
  00206	83 c4 20	 add	 esp, 32			; 00000020H
  00209	8d 4d 0c	 lea	 ecx, DWORD PTR _szRtn$25[ebp]
  0020c	50		 push	 eax
  0020d	ff 15 00 00 00
	00		 call	 DWORD PTR __imp_??4?$CStringT@DV?$StrTraitMFC_DLL@DV?$ChTraitsCRT@D@ATL@@@@@ATL@@QAEAAV01@ABV01@@Z
  00213	8d 4d e4	 lea	 ecx, DWORD PTR $T4[ebp]
  00216	ff 15 00 00 00
	00		 call	 DWORD PTR __imp_??1?$CStringT@DV?$StrTraitMFC_DLL@DV?$ChTraitsCRT@D@ATL@@@@@ATL@@QAE@XZ
  0021c	8d 4d f4	 lea	 ecx, DWORD PTR $T10[ebp]
  0021f	ff 15 00 00 00
	00		 call	 DWORD PTR __imp_??1?$CStringT@DV?$StrTraitMFC_DLL@DV?$ChTraitsCRT@D@ATL@@@@@ATL@@QAE@XZ

; 547  : 			szRtn = RemoveFront(szRtn, '0');

  00225	8b 03		 mov	 eax, DWORD PTR [ebx]
  00227	6a 30		 push	 48			; 00000030H
  00229	ff 75 0c	 push	 DWORD PTR _szRtn$25[ebp]
  0022c	53		 push	 ebx
  0022d	ff 50 40	 call	 DWORD PTR [eax+64]
  00230	50		 push	 eax
  00231	8d 4d 0c	 lea	 ecx, DWORD PTR _szRtn$25[ebp]
  00234	ff 15 00 00 00
	00		 call	 DWORD PTR __imp_??4?$CStringT@DV?$StrTraitMFC_DLL@DV?$ChTraitsCRT@D@ATL@@@@@ATL@@QAEAAV01@PBD@Z

; 548  : 			
; 549  : 			int index = szRtn.Find('.');

  0023a	6a 00		 push	 0
  0023c	6a 2e		 push	 46			; 0000002eH
  0023e	8d 4d 0c	 lea	 ecx, DWORD PTR _szRtn$25[ebp]
  00241	ff 15 00 00 00
	00		 call	 DWORD PTR __imp_?Find@?$CStringT@DV?$StrTraitMFC_DLL@DV?$ChTraitsCRT@D@ATL@@@@@ATL@@QBEHDH@Z
  00247	8b f0		 mov	 esi, eax

; 550  : 			if(index >0)

  00249	85 f6		 test	 esi, esi
  0024b	0f 8e c8 00 00
	00		 jle	 $LN124@GetFutureS

; 551  : 			{
; 552  : 				szPoint = szRtn.Mid(index, 3);

  00251	6a 03		 push	 3
  00253	56		 push	 esi
  00254	8d 45 e4	 lea	 eax, DWORD PTR $T3[ebp]
  00257	50		 push	 eax
  00258	8d 4d 0c	 lea	 ecx, DWORD PTR _szRtn$25[ebp]
  0025b	ff 15 00 00 00
	00		 call	 DWORD PTR __imp_?Mid@?$CStringT@DV?$StrTraitMFC_DLL@DV?$ChTraitsCRT@D@ATL@@@@@ATL@@QBE?AV12@HH@Z
  00261	50		 push	 eax
  00262	8d 4d 14	 lea	 ecx, DWORD PTR _szPoint$27[ebp]
  00265	ff 15 00 00 00
	00		 call	 DWORD PTR __imp_??4?$CStringT@DV?$StrTraitMFC_DLL@DV?$ChTraitsCRT@D@ATL@@@@@ATL@@QAEAAV01@ABV01@@Z
  0026b	8d 4d e4	 lea	 ecx, DWORD PTR $T3[ebp]
  0026e	ff 15 00 00 00
	00		 call	 DWORD PTR __imp_??1?$CStringT@DV?$StrTraitMFC_DLL@DV?$ChTraitsCRT@D@ATL@@@@@ATL@@QAE@XZ

; 553  : 				szNonPoint = szRtn.Mid(0,index);

  00274	56		 push	 esi
  00275	6a 00		 push	 0
  00277	8d 45 e4	 lea	 eax, DWORD PTR $T2[ebp]
  0027a	50		 push	 eax
  0027b	8d 4d 0c	 lea	 ecx, DWORD PTR _szRtn$25[ebp]
  0027e	ff 15 00 00 00
	00		 call	 DWORD PTR __imp_?Mid@?$CStringT@DV?$StrTraitMFC_DLL@DV?$ChTraitsCRT@D@ATL@@@@@ATL@@QBE?AV12@HH@Z
  00284	50		 push	 eax
  00285	8d 4d f0	 lea	 ecx, DWORD PTR _szNonPoint$6[ebp]
  00288	ff 15 00 00 00
	00		 call	 DWORD PTR __imp_??4?$CStringT@DV?$StrTraitMFC_DLL@DV?$ChTraitsCRT@D@ATL@@@@@ATL@@QAEAAV01@ABV01@@Z
  0028e	8d 4d e4	 lea	 ecx, DWORD PTR $T2[ebp]
  00291	ff 15 00 00 00
	00		 call	 DWORD PTR __imp_??1?$CStringT@DV?$StrTraitMFC_DLL@DV?$ChTraitsCRT@D@ATL@@@@@ATL@@QAE@XZ

; 554  : 				szRtn = szNonPoint;

  00297	8d 45 f0	 lea	 eax, DWORD PTR _szNonPoint$6[ebp]
  0029a	50		 push	 eax
  0029b	8d 4d 0c	 lea	 ecx, DWORD PTR _szRtn$25[ebp]
  0029e	ff 15 00 00 00
	00		 call	 DWORD PTR __imp_??4?$CStringT@DV?$StrTraitMFC_DLL@DV?$ChTraitsCRT@D@ATL@@@@@ATL@@QAEAAV01@ABV01@@Z

; 555  : 				
; 556  : 				if (szPoint.GetLength() < 3)

  002a4	8b 45 14	 mov	 eax, DWORD PTR _szPoint$27[ebp]
  002a7	83 78 f4 03	 cmp	 DWORD PTR [eax-12], 3
  002ab	7d 5a		 jge	 SHORT $LN13@GetFutureS
; File C:\Program Files (x86)\Microsoft Visual Studio\2019\Community\VC\Tools\MSVC\14.29.30133\atlmfc\include\cstringt.h

; 2401 : 		CStringT strResult( str1.GetManager() );

  002ad	8d 4d 14	 lea	 ecx, DWORD PTR _szPoint$27[ebp]
  002b0	ff 15 00 00 00
	00		 call	 DWORD PTR __imp_?GetManager@?$CStringT@DV?$StrTraitMFC_DLL@DV?$ChTraitsCRT@D@ATL@@@@@ATL@@QBEPAUIAtlStringMgr@2@XZ
  002b6	50		 push	 eax
  002b7	8d 4d f4	 lea	 ecx, DWORD PTR $T9[ebp]
  002ba	ff 15 00 00 00
	00		 call	 DWORD PTR __imp_??0?$CStringT@DV?$StrTraitMFC_DLL@DV?$ChTraitsCRT@D@ATL@@@@@ATL@@QAE@PAUIAtlStringMgr@1@@Z

; 2402 : 
; 2403 : 		CThisSimpleString::Concatenate( strResult, str1, str1.GetLength(), psz2, CThisSimpleString::StringLength( psz2 ) );

  002c0	8b 45 14	 mov	 eax, DWORD PTR _szPoint$27[ebp]
  002c3	6a 02		 push	 2
  002c5	68 00 00 00 00	 push	 OFFSET ??_C@_02PLJDPFIO@00@
  002ca	ff 70 f4	 push	 DWORD PTR [eax-12]
  002cd	50		 push	 eax
  002ce	8d 45 f4	 lea	 eax, DWORD PTR $T9[ebp]
  002d1	50		 push	 eax
  002d2	ff 15 00 00 00
	00		 call	 DWORD PTR __imp_?Concatenate@?$CSimpleStringT@D$00@ATL@@KAXAAV12@PBDH1H@Z
  002d8	83 c4 14	 add	 esp, 20			; 00000014H
; File D:\git\src\IBK\IBK_DRFN\ProjSrc\SrcDrfn\DrCommon\PcTrMng\_DataUtilManager.cpp

; 558  : 					szPoint = szPoint + "00";

  002db	8d 45 f4	 lea	 eax, DWORD PTR $T9[ebp]
  002de	8d 4d 14	 lea	 ecx, DWORD PTR _szPoint$27[ebp]
  002e1	50		 push	 eax
  002e2	ff 15 00 00 00
	00		 call	 DWORD PTR __imp_??4?$CStringT@DV?$StrTraitMFC_DLL@DV?$ChTraitsCRT@D@ATL@@@@@ATL@@QAEAAV01@ABV01@@Z
  002e8	8d 4d f4	 lea	 ecx, DWORD PTR $T9[ebp]
  002eb	ff 15 00 00 00
	00		 call	 DWORD PTR __imp_??1?$CStringT@DV?$StrTraitMFC_DLL@DV?$ChTraitsCRT@D@ATL@@@@@ATL@@QAE@XZ

; 559  : 					szPoint.Format("%-03.03s", szPoint);

  002f1	ff 75 14	 push	 DWORD PTR _szPoint$27[ebp]
  002f4	8d 45 14	 lea	 eax, DWORD PTR _szPoint$27[ebp]
  002f7	68 00 00 00 00	 push	 OFFSET ??_C@_08DFILJDFD@?$CF?903?403s@
  002fc	50		 push	 eax
  002fd	a1 00 00 00 00	 mov	 eax, DWORD PTR __imp_?Format@?$CStringT@DV?$StrTraitMFC_DLL@DV?$ChTraitsCRT@D@ATL@@@@@ATL@@QAAXPBDZZ
  00302	ff d0		 call	 eax
  00304	83 c4 0c	 add	 esp, 12			; 0000000cH
$LN13@GetFutureS:

; 560  : 				}
; 561  : 				szRtn += szPoint;

  00307	8d 45 14	 lea	 eax, DWORD PTR _szPoint$27[ebp]
  0030a	50		 push	 eax
  0030b	8d 4d 0c	 lea	 ecx, DWORD PTR _szRtn$25[ebp]
  0030e	ff 15 00 00 00
	00		 call	 DWORD PTR __imp_??Y?$CStringT@DV?$StrTraitMFC_DLL@DV?$ChTraitsCRT@D@ATL@@@@@ATL@@QAEAAV01@ABV?$CSimpleStringT@D$00@1@@Z

; 562  : 			}

  00314	e9 ad 00 00 00	 jmp	 $LN14@GetFutureS
$LN124@GetFutureS:

; 563  : 			else if(index == 0)

  00319	0f 85 a7 00 00
	00		 jne	 $LN14@GetFutureS

; 564  : 			{
; 565  : 				if (szRtn.GetLength() < 3)

  0031f	8b 45 0c	 mov	 eax, DWORD PTR _szRtn$25[ebp]
  00322	83 78 f4 03	 cmp	 DWORD PTR [eax-12], 3
  00326	7d 5a		 jge	 SHORT $LN15@GetFutureS
; File C:\Program Files (x86)\Microsoft Visual Studio\2019\Community\VC\Tools\MSVC\14.29.30133\atlmfc\include\cstringt.h

; 2401 : 		CStringT strResult( str1.GetManager() );

  00328	8d 4d 0c	 lea	 ecx, DWORD PTR _szRtn$25[ebp]
  0032b	ff 15 00 00 00
	00		 call	 DWORD PTR __imp_?GetManager@?$CStringT@DV?$StrTraitMFC_DLL@DV?$ChTraitsCRT@D@ATL@@@@@ATL@@QBEPAUIAtlStringMgr@2@XZ
  00331	50		 push	 eax
  00332	8d 4d f4	 lea	 ecx, DWORD PTR $T8[ebp]
  00335	ff 15 00 00 00
	00		 call	 DWORD PTR __imp_??0?$CStringT@DV?$StrTraitMFC_DLL@DV?$ChTraitsCRT@D@ATL@@@@@ATL@@QAE@PAUIAtlStringMgr@1@@Z

; 2402 : 
; 2403 : 		CThisSimpleString::Concatenate( strResult, str1, str1.GetLength(), psz2, CThisSimpleString::StringLength( psz2 ) );

  0033b	8b 45 0c	 mov	 eax, DWORD PTR _szRtn$25[ebp]
  0033e	6a 02		 push	 2
  00340	68 00 00 00 00	 push	 OFFSET ??_C@_02PLJDPFIO@00@
  00345	ff 70 f4	 push	 DWORD PTR [eax-12]
  00348	50		 push	 eax
  00349	8d 45 f4	 lea	 eax, DWORD PTR $T8[ebp]
  0034c	50		 push	 eax
  0034d	ff 15 00 00 00
	00		 call	 DWORD PTR __imp_?Concatenate@?$CSimpleStringT@D$00@ATL@@KAXAAV12@PBDH1H@Z
  00353	83 c4 14	 add	 esp, 20			; 00000014H
; File D:\git\src\IBK\IBK_DRFN\ProjSrc\SrcDrfn\DrCommon\PcTrMng\_DataUtilManager.cpp

; 567  : 					szRtn = szRtn + "00";

  00356	8d 45 f4	 lea	 eax, DWORD PTR $T8[ebp]
  00359	8d 4d 0c	 lea	 ecx, DWORD PTR _szRtn$25[ebp]
  0035c	50		 push	 eax
  0035d	ff 15 00 00 00
	00		 call	 DWORD PTR __imp_??4?$CStringT@DV?$StrTraitMFC_DLL@DV?$ChTraitsCRT@D@ATL@@@@@ATL@@QAEAAV01@ABV01@@Z
  00363	8d 4d f4	 lea	 ecx, DWORD PTR $T8[ebp]
  00366	ff 15 00 00 00
	00		 call	 DWORD PTR __imp_??1?$CStringT@DV?$StrTraitMFC_DLL@DV?$ChTraitsCRT@D@ATL@@@@@ATL@@QAE@XZ

; 568  : 					szRtn.Format("%-3.3s", szRtn);

  0036c	ff 75 0c	 push	 DWORD PTR _szRtn$25[ebp]
  0036f	8d 45 0c	 lea	 eax, DWORD PTR _szRtn$25[ebp]
  00372	68 00 00 00 00	 push	 OFFSET ??_C@_06MAHHELPF@?$CF?93?43s@
  00377	50		 push	 eax
  00378	a1 00 00 00 00	 mov	 eax, DWORD PTR __imp_?Format@?$CStringT@DV?$StrTraitMFC_DLL@DV?$ChTraitsCRT@D@ATL@@@@@ATL@@QAAXPBDZZ
  0037d	ff d0		 call	 eax
  0037f	83 c4 0c	 add	 esp, 12			; 0000000cH
$LN15@GetFutureS:
; File C:\Program Files (x86)\Microsoft Visual Studio\2019\Community\VC\Tools\MSVC\14.29.30133\atlmfc\include\cstringt.h

; 2412 : 		CStringT strResult( str2.GetManager() );

  00382	8d 4d 0c	 lea	 ecx, DWORD PTR _szRtn$25[ebp]
  00385	ff 15 00 00 00
	00		 call	 DWORD PTR __imp_?GetManager@?$CStringT@DV?$StrTraitMFC_DLL@DV?$ChTraitsCRT@D@ATL@@@@@ATL@@QBEPAUIAtlStringMgr@2@XZ
  0038b	50		 push	 eax
  0038c	8d 4d f4	 lea	 ecx, DWORD PTR $T7[ebp]
  0038f	ff 15 00 00 00
	00		 call	 DWORD PTR __imp_??0?$CStringT@DV?$StrTraitMFC_DLL@DV?$ChTraitsCRT@D@ATL@@@@@ATL@@QAE@PAUIAtlStringMgr@1@@Z

; 2413 : 
; 2414 : 		CThisSimpleString::Concatenate( strResult, psz1, CThisSimpleString::StringLength( psz1 ), str2, str2.GetLength() );

  00395	8b 45 0c	 mov	 eax, DWORD PTR _szRtn$25[ebp]
  00398	ff 70 f4	 push	 DWORD PTR [eax-12]
  0039b	50		 push	 eax
  0039c	6a 01		 push	 1
  0039e	8d 45 f4	 lea	 eax, DWORD PTR $T7[ebp]
  003a1	68 00 00 00 00	 push	 OFFSET ??_C@_01GBGANLPD@0@
  003a6	50		 push	 eax
  003a7	ff 15 00 00 00
	00		 call	 DWORD PTR __imp_?Concatenate@?$CSimpleStringT@D$00@ATL@@KAXAAV12@PBDH1H@Z
  003ad	83 c4 14	 add	 esp, 20			; 00000014H
; File D:\git\src\IBK\IBK_DRFN\ProjSrc\SrcDrfn\DrCommon\PcTrMng\_DataUtilManager.cpp

; 571  : 				szRtn = "0"+ szRtn;

  003b0	8d 45 f4	 lea	 eax, DWORD PTR $T7[ebp]
  003b3	8d 4d 0c	 lea	 ecx, DWORD PTR _szRtn$25[ebp]
  003b6	50		 push	 eax
  003b7	ff 15 00 00 00
	00		 call	 DWORD PTR __imp_??4?$CStringT@DV?$StrTraitMFC_DLL@DV?$ChTraitsCRT@D@ATL@@@@@ATL@@QAEAAV01@ABV01@@Z
  003bd	8d 4d f4	 lea	 ecx, DWORD PTR $T7[ebp]
  003c0	ff 15 00 00 00
	00		 call	 DWORD PTR __imp_??1?$CStringT@DV?$StrTraitMFC_DLL@DV?$ChTraitsCRT@D@ATL@@@@@ATL@@QAE@XZ
$LN14@GetFutureS:

; 572  : 			}
; 573  : 		}

  003c6	8d 4d 08	 lea	 ecx, DWORD PTR _szHead$21[ebp]
  003c9	ff 15 00 00 00
	00		 call	 DWORD PTR __imp_??1?$CStringT@DV?$StrTraitMFC_DLL@DV?$ChTraitsCRT@D@ATL@@@@@ATL@@QAE@XZ
  003cf	8d 4d f8	 lea	 ecx, DWORD PTR _szTail$14[ebp]
  003d2	ff 15 00 00 00
	00		 call	 DWORD PTR __imp_??1?$CStringT@DV?$StrTraitMFC_DLL@DV?$ChTraitsCRT@D@ATL@@@@@ATL@@QAE@XZ
$LN8@GetFutureS:

; 574  : 		
; 575  : 		if( bSign == TRUE )  

  003d8	83 7d e8 01	 cmp	 DWORD PTR _bSign$1$[ebp], 1
  003dc	75 16		 jne	 SHORT $LN16@GetFutureS

; 576  : 			szRtn = szSign + szRtn;

  003de	8d 45 0c	 lea	 eax, DWORD PTR _szRtn$25[ebp]
  003e1	50		 push	 eax
  003e2	8d 45 ec	 lea	 eax, DWORD PTR _szSign$5[ebp]
  003e5	50		 push	 eax
  003e6	8d 45 08	 lea	 eax, DWORD PTR $T20[ebp]
  003e9	50		 push	 eax
  003ea	e8 00 00 00 00	 call	 ??HATL@@YA?AV?$CStringT@DV?$StrTraitMFC_DLL@DV?$ChTraitsCRT@D@ATL@@@@@0@ABV10@0@Z ; ATL::operator+
  003ef	83 c4 0c	 add	 esp, 12			; 0000000cH
  003f2	eb 31		 jmp	 SHORT $LN125@GetFutureS
$LN16@GetFutureS:
; File C:\Program Files (x86)\Microsoft Visual Studio\2019\Community\VC\Tools\MSVC\14.29.30133\atlmfc\include\cstringt.h

; 2412 : 		CStringT strResult( str2.GetManager() );

  003f4	8d 4d 0c	 lea	 ecx, DWORD PTR _szRtn$25[ebp]
  003f7	ff 15 00 00 00
	00		 call	 DWORD PTR __imp_?GetManager@?$CStringT@DV?$StrTraitMFC_DLL@DV?$ChTraitsCRT@D@ATL@@@@@ATL@@QBEPAUIAtlStringMgr@2@XZ
  003fd	50		 push	 eax
  003fe	8d 4d 08	 lea	 ecx, DWORD PTR $T19[ebp]
  00401	ff 15 00 00 00
	00		 call	 DWORD PTR __imp_??0?$CStringT@DV?$StrTraitMFC_DLL@DV?$ChTraitsCRT@D@ATL@@@@@ATL@@QAE@PAUIAtlStringMgr@1@@Z

; 2413 : 
; 2414 : 		CThisSimpleString::Concatenate( strResult, psz1, CThisSimpleString::StringLength( psz1 ), str2, str2.GetLength() );

  00407	8b 45 0c	 mov	 eax, DWORD PTR _szRtn$25[ebp]
  0040a	ff 70 f4	 push	 DWORD PTR [eax-12]
  0040d	50		 push	 eax
  0040e	6a 01		 push	 1
  00410	8d 45 08	 lea	 eax, DWORD PTR $T19[ebp]
  00413	68 00 00 00 00	 push	 OFFSET ??_C@_01CLKCMJKC@?5@
  00418	50		 push	 eax
  00419	ff 15 00 00 00
	00		 call	 DWORD PTR __imp_?Concatenate@?$CSimpleStringT@D$00@ATL@@KAXAAV12@PBDH1H@Z
  0041f	83 c4 14	 add	 esp, 20			; 00000014H
; File D:\git\src\IBK\IBK_DRFN\ProjSrc\SrcDrfn\DrCommon\PcTrMng\_DataUtilManager.cpp

; 578  : 			szRtn = " " + szRtn;	

  00422	8d 45 08	 lea	 eax, DWORD PTR $T19[ebp]
$LN125@GetFutureS:

; 579  : 		
; 580  : 		strRet = szRtn;

  00425	50		 push	 eax
  00426	8d 4d 0c	 lea	 ecx, DWORD PTR _szRtn$25[ebp]
  00429	ff 15 00 00 00
	00		 call	 DWORD PTR __imp_??4?$CStringT@DV?$StrTraitMFC_DLL@DV?$ChTraitsCRT@D@ATL@@@@@ATL@@QAEAAV01@ABV01@@Z
  0042f	8d 4d 08	 lea	 ecx, DWORD PTR $T19[ebp]
  00432	ff 15 00 00 00
	00		 call	 DWORD PTR __imp_??1?$CStringT@DV?$StrTraitMFC_DLL@DV?$ChTraitsCRT@D@ATL@@@@@ATL@@QAE@XZ
  00438	8d 45 0c	 lea	 eax, DWORD PTR _szRtn$25[ebp]
  0043b	8b cf		 mov	 ecx, edi
  0043d	50		 push	 eax
  0043e	ff 15 00 00 00
	00		 call	 DWORD PTR __imp_??4?$CStringT@DV?$StrTraitMFC_DLL@DV?$ChTraitsCRT@D@ATL@@@@@ATL@@QAEAAV01@ABV01@@Z

; 581  : 	}

  00444	8d 4d f0	 lea	 ecx, DWORD PTR _szNonPoint$6[ebp]
  00447	ff 15 00 00 00
	00		 call	 DWORD PTR __imp_??1?$CStringT@DV?$StrTraitMFC_DLL@DV?$ChTraitsCRT@D@ATL@@@@@ATL@@QAE@XZ
  0044d	8d 4d 14	 lea	 ecx, DWORD PTR _szPoint$27[ebp]
  00450	ff 15 00 00 00
	00		 call	 DWORD PTR __imp_??1?$CStringT@DV?$StrTraitMFC_DLL@DV?$ChTraitsCRT@D@ATL@@@@@ATL@@QAE@XZ
  00456	8d 4d ec	 lea	 ecx, DWORD PTR _szSign$5[ebp]
  00459	e9 1c 01 00 00	 jmp	 $LN126@GetFutureS
$LN2@GetFutureS:

; 582  : 	else
; 583  : 	{
; 584  : 		BOOL bSign = FALSE;

  0045e	33 db		 xor	 ebx, ebx

; 585  : 		CString szRtn, szSign, szNonPoint;

  00460	ff 15 00 00 00
	00		 call	 DWORD PTR __imp_??0?$CStringT@DV?$StrTraitMFC_DLL@DV?$ChTraitsCRT@D@ATL@@@@@ATL@@QAE@XZ
  00466	8d 4d 14	 lea	 ecx, DWORD PTR _szSign$26[ebp]
  00469	ff 15 00 00 00
	00		 call	 DWORD PTR __imp_??0?$CStringT@DV?$StrTraitMFC_DLL@DV?$ChTraitsCRT@D@ATL@@@@@ATL@@QAE@XZ
  0046f	8d 4d e4	 lea	 ecx, DWORD PTR _szNonPoint$1[ebp]
  00472	ff 15 00 00 00
	00		 call	 DWORD PTR __imp_??0?$CStringT@DV?$StrTraitMFC_DLL@DV?$ChTraitsCRT@D@ATL@@@@@ATL@@QAE@XZ

; 586  : 		szRtn = RemoveFront(strData,'0');		//  0 .

  00478	8b 75 08	 mov	 esi, DWORD PTR _this$[ebp]
  0047b	6a 30		 push	 48			; 00000030H
  0047d	ff 75 10	 push	 DWORD PTR _strData$[ebp]
  00480	8b 06		 mov	 eax, DWORD PTR [esi]
  00482	56		 push	 esi
  00483	ff 50 40	 call	 DWORD PTR [eax+64]
  00486	50		 push	 eax
  00487	8d 4d 0c	 lea	 ecx, DWORD PTR _szRtn$24[ebp]
  0048a	ff 15 00 00 00
	00		 call	 DWORD PTR __imp_??4?$CStringT@DV?$StrTraitMFC_DLL@DV?$ChTraitsCRT@D@ATL@@@@@ATL@@QAEAAV01@PBD@Z

; 587  : 		if(IsSign(szRtn))						//     

  00490	ff 75 0c	 push	 DWORD PTR _szRtn$24[ebp]
  00493	8b 06		 mov	 eax, DWORD PTR [esi]
  00495	56		 push	 esi
  00496	ff 50 24	 call	 DWORD PTR [eax+36]
  00499	85 c0		 test	 eax, eax
  0049b	74 3e		 je	 SHORT $LN18@GetFutureS

; 588  : 		{
; 589  : 			szSign = szRtn[0];

  0049d	53		 push	 ebx
  0049e	8d 4d 0c	 lea	 ecx, DWORD PTR _szRtn$24[ebp]
  004a1	ff 15 00 00 00
	00		 call	 DWORD PTR __imp_??A?$CSimpleStringT@D$00@ATL@@QBEDH@Z
  004a7	0f b6 c0	 movzx	 eax, al
  004aa	8d 4d 14	 lea	 ecx, DWORD PTR _szSign$26[ebp]
  004ad	50		 push	 eax
  004ae	ff 15 00 00 00
	00		 call	 DWORD PTR __imp_??4?$CStringT@DV?$StrTraitMFC_DLL@DV?$ChTraitsCRT@D@ATL@@@@@ATL@@QAEAAV01@D@Z

; 590  : 			szRtn = szRtn.Mid(1);

  004b4	6a 01		 push	 1
  004b6	8d 45 08	 lea	 eax, DWORD PTR $T18[ebp]
  004b9	50		 push	 eax
  004ba	8d 4d 0c	 lea	 ecx, DWORD PTR _szRtn$24[ebp]
  004bd	ff 15 00 00 00
	00		 call	 DWORD PTR __imp_?Mid@?$CStringT@DV?$StrTraitMFC_DLL@DV?$ChTraitsCRT@D@ATL@@@@@ATL@@QBE?AV12@H@Z
  004c3	50		 push	 eax
  004c4	8d 4d 0c	 lea	 ecx, DWORD PTR _szRtn$24[ebp]
  004c7	ff 15 00 00 00
	00		 call	 DWORD PTR __imp_??4?$CStringT@DV?$StrTraitMFC_DLL@DV?$ChTraitsCRT@D@ATL@@@@@ATL@@QAEAAV01@ABV01@@Z
  004cd	8d 4d 08	 lea	 ecx, DWORD PTR $T18[ebp]
  004d0	ff 15 00 00 00
	00		 call	 DWORD PTR __imp_??1?$CStringT@DV?$StrTraitMFC_DLL@DV?$ChTraitsCRT@D@ATL@@@@@ATL@@QAE@XZ

; 591  : 			bSign = TRUE;

  004d6	bb 01 00 00 00	 mov	 ebx, 1
$LN18@GetFutureS:

; 592  : 		}						
; 593  : 		strTemp = RemoveFront(szRtn, '0');

  004db	8b 06		 mov	 eax, DWORD PTR [esi]
  004dd	6a 30		 push	 48			; 00000030H
  004df	ff 75 0c	 push	 DWORD PTR _szRtn$24[ebp]
  004e2	56		 push	 esi
  004e3	ff 50 40	 call	 DWORD PTR [eax+64]
  004e6	50		 push	 eax
  004e7	8d 4d fc	 lea	 ecx, DWORD PTR _strTemp$[ebp]
  004ea	ff 15 00 00 00
	00		 call	 DWORD PTR __imp_??4?$CStringT@DV?$StrTraitMFC_DLL@DV?$ChTraitsCRT@D@ATL@@@@@ATL@@QAEAAV01@PBD@Z

; 594  : 		
; 595  : 		if( bSign == TRUE )  

  004f0	83 fb 01	 cmp	 ebx, 1
  004f3	75 16		 jne	 SHORT $LN19@GetFutureS

; 596  : 			szRtn = szSign + strTemp;

  004f5	8d 45 fc	 lea	 eax, DWORD PTR _strTemp$[ebp]
  004f8	50		 push	 eax
  004f9	8d 45 14	 lea	 eax, DWORD PTR _szSign$26[ebp]
  004fc	50		 push	 eax
  004fd	8d 45 08	 lea	 eax, DWORD PTR $T17[ebp]
  00500	50		 push	 eax
  00501	e8 00 00 00 00	 call	 ??HATL@@YA?AV?$CStringT@DV?$StrTraitMFC_DLL@DV?$ChTraitsCRT@D@ATL@@@@@0@ABV10@0@Z ; ATL::operator+
  00506	83 c4 0c	 add	 esp, 12			; 0000000cH
  00509	eb 31		 jmp	 SHORT $LN127@GetFutureS
$LN19@GetFutureS:
; File C:\Program Files (x86)\Microsoft Visual Studio\2019\Community\VC\Tools\MSVC\14.29.30133\atlmfc\include\cstringt.h

; 2412 : 		CStringT strResult( str2.GetManager() );

  0050b	8d 4d fc	 lea	 ecx, DWORD PTR _strTemp$[ebp]
  0050e	ff 15 00 00 00
	00		 call	 DWORD PTR __imp_?GetManager@?$CStringT@DV?$StrTraitMFC_DLL@DV?$ChTraitsCRT@D@ATL@@@@@ATL@@QBEPAUIAtlStringMgr@2@XZ
  00514	50		 push	 eax
  00515	8d 4d 08	 lea	 ecx, DWORD PTR $T16[ebp]
  00518	ff 15 00 00 00
	00		 call	 DWORD PTR __imp_??0?$CStringT@DV?$StrTraitMFC_DLL@DV?$ChTraitsCRT@D@ATL@@@@@ATL@@QAE@PAUIAtlStringMgr@1@@Z

; 2413 : 
; 2414 : 		CThisSimpleString::Concatenate( strResult, psz1, CThisSimpleString::StringLength( psz1 ), str2, str2.GetLength() );

  0051e	8b 45 fc	 mov	 eax, DWORD PTR _strTemp$[ebp]
  00521	ff 70 f4	 push	 DWORD PTR [eax-12]
  00524	50		 push	 eax
  00525	6a 01		 push	 1
  00527	8d 45 08	 lea	 eax, DWORD PTR $T16[ebp]
  0052a	68 00 00 00 00	 push	 OFFSET ??_C@_01CLKCMJKC@?5@
  0052f	50		 push	 eax
  00530	ff 15 00 00 00
	00		 call	 DWORD PTR __imp_?Concatenate@?$CSimpleStringT@D$00@ATL@@KAXAAV12@PBDH1H@Z
  00536	83 c4 14	 add	 esp, 20			; 00000014H
; File D:\git\src\IBK\IBK_DRFN\ProjSrc\SrcDrfn\DrCommon\PcTrMng\_DataUtilManager.cpp

; 598  : 			szRtn = " " + strTemp;	

  00539	8d 45 08	 lea	 eax, DWORD PTR $T16[ebp]
$LN127@GetFutureS:

; 599  : 		
; 600  : 		strRet = GetComma(szRtn);

  0053c	50		 push	 eax
  0053d	8d 4d 0c	 lea	 ecx, DWORD PTR _szRtn$24[ebp]
  00540	ff 15 00 00 00
	00		 call	 DWORD PTR __imp_??4?$CStringT@DV?$StrTraitMFC_DLL@DV?$ChTraitsCRT@D@ATL@@@@@ATL@@QAEAAV01@ABV01@@Z
  00546	8d 4d 08	 lea	 ecx, DWORD PTR $T16[ebp]
  00549	ff 15 00 00 00
	00		 call	 DWORD PTR __imp_??1?$CStringT@DV?$StrTraitMFC_DLL@DV?$ChTraitsCRT@D@ATL@@@@@ATL@@QAE@XZ
  0054f	ff 75 0c	 push	 DWORD PTR _szRtn$24[ebp]
  00552	8b 06		 mov	 eax, DWORD PTR [esi]
  00554	8d 4d 08	 lea	 ecx, DWORD PTR $T15[ebp]
  00557	51		 push	 ecx
  00558	56		 push	 esi
  00559	ff 50 44	 call	 DWORD PTR [eax+68]
  0055c	50		 push	 eax
  0055d	8b cf		 mov	 ecx, edi
  0055f	ff 15 00 00 00
	00		 call	 DWORD PTR __imp_??4?$CStringT@DV?$StrTraitMFC_DLL@DV?$ChTraitsCRT@D@ATL@@@@@ATL@@QAEAAV01@ABV01@@Z
  00565	8d 4d 08	 lea	 ecx, DWORD PTR $T15[ebp]
  00568	ff 15 00 00 00
	00		 call	 DWORD PTR __imp_??1?$CStringT@DV?$StrTraitMFC_DLL@DV?$ChTraitsCRT@D@ATL@@@@@ATL@@QAE@XZ

; 601  : 	}

  0056e	8d 4d e4	 lea	 ecx, DWORD PTR _szNonPoint$1[ebp]
  00571	ff 15 00 00 00
	00		 call	 DWORD PTR __imp_??1?$CStringT@DV?$StrTraitMFC_DLL@DV?$ChTraitsCRT@D@ATL@@@@@ATL@@QAE@XZ
  00577	8d 4d 14	 lea	 ecx, DWORD PTR _szSign$26[ebp]
$LN126@GetFutureS:

; 602  : 	
; 603  : 	return strRet;

  0057a	ff 15 00 00 00
	00		 call	 DWORD PTR __imp_??1?$CStringT@DV?$StrTraitMFC_DLL@DV?$ChTraitsCRT@D@ATL@@@@@ATL@@QAE@XZ
  00580	8d 4d 0c	 lea	 ecx, DWORD PTR _szRtn$24[ebp]
  00583	ff 15 00 00 00
	00		 call	 DWORD PTR __imp_??1?$CStringT@DV?$StrTraitMFC_DLL@DV?$ChTraitsCRT@D@ATL@@@@@ATL@@QAE@XZ
  00589	8d 4d fc	 lea	 ecx, DWORD PTR _strTemp$[ebp]
  0058c	ff 15 00 00 00
	00		 call	 DWORD PTR __imp_??1?$CStringT@DV?$StrTraitMFC_DLL@DV?$ChTraitsCRT@D@ATL@@@@@ATL@@QAE@XZ
  00592	8d 4d 10	 lea	 ecx, DWORD PTR _strData$[ebp]
  00595	ff 15 00 00 00
	00		 call	 DWORD PTR __imp_??1?$CStringT@DV?$StrTraitMFC_DLL@DV?$ChTraitsCRT@D@ATL@@@@@ATL@@QAE@XZ
  0059b	8b c7		 mov	 eax, edi
  0059d	5f		 pop	 edi
  0059e	5e		 pop	 esi
  0059f	5b		 pop	 ebx

; 604  : }

  005a0	8b e5		 mov	 esp, ebp
  005a2	5d		 pop	 ebp
  005a3	c2 10 00	 ret	 16			; 00000010H
?GetFutureString@CDataUtilManager@@UAG?AV?$CStringT@DV?$StrTraitMFC_DLL@DV?$ChTraitsCRT@D@ATL@@@@@ATL@@V23@H@Z ENDP ; CDataUtilManager::GetFutureString
_TEXT	ENDS
; Function compile flags: /Ogtp
; File D:\git\src\IBK\IBK_DRFN\ProjSrc\SrcDrfn\inc\IAUGwanMng.h
;	COMDAT ??__ERMSG_GWANSIMREGISTER@@YAXXZ
text$di	SEGMENT
??__ERMSG_GWANSIMREGISTER@@YAXXZ PROC			; `dynamic initializer for 'RMSG_GWANSIMREGISTER'', COMDAT

; 173  : const UINT RMSG_GWANSIMREGISTER		=   ::RegisterWindowMessage("RMSG_GWANSIMREGISTER");

  00000	68 00 00 00 00	 push	 OFFSET ??_C@_0BF@MNPNIDPI@RMSG_GWANSIMREGISTER@
  00005	ff 15 00 00 00
	00		 call	 DWORD PTR __imp__RegisterWindowMessageA@4
  0000b	a3 00 00 00 00	 mov	 DWORD PTR ?RMSG_GWANSIMREGISTER@@3IB, eax
  00010	c3		 ret	 0
??__ERMSG_GWANSIMREGISTER@@YAXXZ ENDP			; `dynamic initializer for 'RMSG_GWANSIMREGISTER''
text$di	ENDS
; Function compile flags: /Ogtp
; File D:\git\src\IBK\IBK_DRFN\ProjSrc\SrcDrfn\inc\Define_Gwansim.h
;	COMDAT ??__ERMSG_INTREQUEST@@YAXXZ
text$di	SEGMENT
??__ERMSG_INTREQUEST@@YAXXZ PROC			; `dynamic initializer for 'RMSG_INTREQUEST'', COMDAT

; 10   : const UINT RMSG_INTREQUEST = ::RegisterWindowMessage(_T("RMSG_INTREQUEST") );

  00000	68 00 00 00 00	 push	 OFFSET ??_C@_0BA@JHANHJCN@RMSG_INTREQUEST@
  00005	ff 15 00 00 00
	00		 call	 DWORD PTR __imp__RegisterWindowMessageA@4
  0000b	a3 00 00 00 00	 mov	 DWORD PTR ?RMSG_INTREQUEST@@3IB, eax
  00010	c3		 ret	 0
??__ERMSG_INTREQUEST@@YAXXZ ENDP			; `dynamic initializer for 'RMSG_INTREQUEST''
text$di	ENDS
; Function compile flags: /Ogtp
; File D:\git\src\IBK\IBK_DRFN\ProjSrc\SrcDrfn\inc\Define_Gwansim.h
;	COMDAT ??__ERMSG_CONCERNHWND@@YAXXZ
text$di	SEGMENT
??__ERMSG_CONCERNHWND@@YAXXZ PROC			; `dynamic initializer for 'RMSG_CONCERNHWND'', COMDAT

; 9    : const UINT RMSG_CONCERNHWND = ::RegisterWindowMessage(_T("RMSG_CONCERNHWND") );

  00000	68 00 00 00 00	 push	 OFFSET ??_C@_0BB@EPGJDGDK@RMSG_CONCERNHWND@
  00005	ff 15 00 00 00
	00		 call	 DWORD PTR __imp__RegisterWindowMessageA@4
  0000b	a3 00 00 00 00	 mov	 DWORD PTR ?RMSG_CONCERNHWND@@3IB, eax
  00010	c3		 ret	 0
??__ERMSG_CONCERNHWND@@YAXXZ ENDP			; `dynamic initializer for 'RMSG_CONCERNHWND''
text$di	ENDS
; Function compile flags: /Ogtp
; File D:\git\src\IBK\IBK_DRFN\ProjSrc\SrcDrfn\Inc\IBaseDefine.h
;	COMDAT ??__ERMSG_SETPCTRDATA@@YAXXZ
text$di	SEGMENT
??__ERMSG_SETPCTRDATA@@YAXXZ PROC			; `dynamic initializer for 'RMSG_SETPCTRDATA'', COMDAT

; 172  : const UINT RMSG_SETPCTRDATA = ::RegisterWindowMessage("RMSG_SETPCTRDATA");

  00000	68 00 00 00 00	 push	 OFFSET ??_C@_0BB@JPACFCL@RMSG_SETPCTRDATA@
  00005	ff 15 00 00 00
	00		 call	 DWORD PTR __imp__RegisterWindowMessageA@4
  0000b	a3 00 00 00 00	 mov	 DWORD PTR ?RMSG_SETPCTRDATA@@3IB, eax
  00010	c3		 ret	 0
??__ERMSG_SETPCTRDATA@@YAXXZ ENDP			; `dynamic initializer for 'RMSG_SETPCTRDATA''
text$di	ENDS
; Function compile flags: /Ogtp
; File D:\git\src\IBK\IBK_DRFN\ProjSrc\SrcDrfn\Inc\IBaseDefine.h
;	COMDAT ??__ERMSG_GETPCTRDATA@@YAXXZ
text$di	SEGMENT
??__ERMSG_GETPCTRDATA@@YAXXZ PROC			; `dynamic initializer for 'RMSG_GETPCTRDATA'', COMDAT

; 171  : const UINT RMSG_GETPCTRDATA = ::RegisterWindowMessage("RMSG_GETPCTRDATA");

  00000	68 00 00 00 00	 push	 OFFSET ??_C@_0BB@GOOPDKI@RMSG_GETPCTRDATA@
  00005	ff 15 00 00 00
	00		 call	 DWORD PTR __imp__RegisterWindowMessageA@4
  0000b	a3 00 00 00 00	 mov	 DWORD PTR ?RMSG_GETPCTRDATA@@3IB, eax
  00010	c3		 ret	 0
??__ERMSG_GETPCTRDATA@@YAXXZ ENDP			; `dynamic initializer for 'RMSG_GETPCTRDATA''
text$di	ENDS
; Function compile flags: /Ogtp
; File D:\git\src\IBK\IBK_DRFN\ProjSrc\SrcDrfn\Inc\IBaseDefine.h
;	COMDAT ??__ERMSG_INTERFACE@@YAXXZ
text$di	SEGMENT
??__ERMSG_INTERFACE@@YAXXZ PROC				; `dynamic initializer for 'RMSG_INTERFACE'', COMDAT

; 170  : const UINT RMSG_INTERFACE = ::RegisterWindowMessage("RMSG_INTERFACE");

  00000	68 00 00 00 00	 push	 OFFSET ??_C@_0P@BKKCOCLK@RMSG_INTERFACE@
  00005	ff 15 00 00 00
	00		 call	 DWORD PTR __imp__RegisterWindowMessageA@4
  0000b	a3 00 00 00 00	 mov	 DWORD PTR ?RMSG_INTERFACE@@3IB, eax
  00010	c3		 ret	 0
??__ERMSG_INTERFACE@@YAXXZ ENDP				; `dynamic initializer for 'RMSG_INTERFACE''
text$di	ENDS
; Function compile flags: /Ogtp
; File C:\Program Files (x86)\Microsoft Visual Studio\2019\Community\VC\Tools\MSVC\14.29.30133\atlmfc\include\cstringt.h
; File C:\Program Files (x86)\Microsoft Visual Studio\2019\Community\VC\Tools\MSVC\14.29.30133\atlmfc\include\atlsimpstr.h
; File C:\Program Files (x86)\Microsoft Visual Studio\2019\Community\VC\Tools\MSVC\14.29.30133\atlmfc\include\cstringt.h
; File C:\Program Files (x86)\Microsoft Visual Studio\2019\Community\VC\Tools\MSVC\14.29.30133\atlmfc\include\atlsimpstr.h
; File C:\Program Files (x86)\Microsoft Visual Studio\2019\Community\VC\Tools\MSVC\14.29.30133\atlmfc\include\cstringt.h
;	COMDAT ??HATL@@YA?AV?$CStringT@DV?$StrTraitMFC_DLL@DV?$ChTraitsCRT@D@ATL@@@@@0@ABV10@0@Z
_TEXT	SEGMENT
$T2 = -16						; size = 4
__$EHRec$ = -12						; size = 12
___$ReturnUdt$ = 8					; size = 4
_str1$ = 12						; size = 4
_str2$ = 16						; size = 4
??HATL@@YA?AV?$CStringT@DV?$StrTraitMFC_DLL@DV?$ChTraitsCRT@D@ATL@@@@@0@ABV10@0@Z PROC ; ATL::operator+, COMDAT

; 2389 : 	{

  00000	55		 push	 ebp
  00001	8b ec		 mov	 ebp, esp
  00003	6a ff		 push	 -1
  00005	68 00 00 00 00	 push	 __ehhandler$??HATL@@YA?AV?$CStringT@DV?$StrTraitMFC_DLL@DV?$ChTraitsCRT@D@ATL@@@@@0@ABV10@0@Z
  0000a	64 a1 00 00 00
	00		 mov	 eax, DWORD PTR fs:0
  00010	50		 push	 eax
  00011	51		 push	 ecx
  00012	56		 push	 esi
  00013	57		 push	 edi
  00014	a1 00 00 00 00	 mov	 eax, DWORD PTR ___security_cookie
  00019	33 c5		 xor	 eax, ebp
  0001b	50		 push	 eax
  0001c	8d 45 f4	 lea	 eax, DWORD PTR __$EHRec$[ebp]
  0001f	64 a3 00 00 00
	00		 mov	 DWORD PTR fs:0, eax

; 2390 : 		CStringT strResult( str1.GetManager() );

  00025	8b 75 0c	 mov	 esi, DWORD PTR _str1$[ebp]
  00028	8b ce		 mov	 ecx, esi
  0002a	c7 45 f0 00 00
	00 00		 mov	 DWORD PTR $T2[ebp], 0
  00031	ff 15 00 00 00
	00		 call	 DWORD PTR __imp_?GetManager@?$CStringT@DV?$StrTraitMFC_DLL@DV?$ChTraitsCRT@D@ATL@@@@@ATL@@QBEPAUIAtlStringMgr@2@XZ
  00037	8b 7d 08	 mov	 edi, DWORD PTR ___$ReturnUdt$[ebp]
  0003a	8b cf		 mov	 ecx, edi
  0003c	50		 push	 eax
  0003d	ff 15 00 00 00
	00		 call	 DWORD PTR __imp_??0?$CStringT@DV?$StrTraitMFC_DLL@DV?$ChTraitsCRT@D@ATL@@@@@ATL@@QAE@PAUIAtlStringMgr@1@@Z
; File C:\Program Files (x86)\Microsoft Visual Studio\2019\Community\VC\Tools\MSVC\14.29.30133\atlmfc\include\atlsimpstr.h

; 519  : 		return( GetData()->nDataLength );

  00043	8b 45 10	 mov	 eax, DWORD PTR _str2$[ebp]
  00046	8b 16		 mov	 edx, DWORD PTR [esi]
; File C:\Program Files (x86)\Microsoft Visual Studio\2019\Community\VC\Tools\MSVC\14.29.30133\atlmfc\include\cstringt.h

; 2394 : 		return( strResult );

  00048	c7 45 fc 00 00
	00 00		 mov	 DWORD PTR __$EHRec$[ebp+8], 0
  0004f	c7 45 f0 01 00
	00 00		 mov	 DWORD PTR $T2[ebp], 1
; File C:\Program Files (x86)\Microsoft Visual Studio\2019\Community\VC\Tools\MSVC\14.29.30133\atlmfc\include\atlsimpstr.h

; 519  : 		return( GetData()->nDataLength );

  00056	8b 08		 mov	 ecx, DWORD PTR [eax]
; File C:\Program Files (x86)\Microsoft Visual Studio\2019\Community\VC\Tools\MSVC\14.29.30133\atlmfc\include\cstringt.h

; 2392 : 		CThisSimpleString::Concatenate( strResult, str1, str1.GetLength(), str2, str2.GetLength() );

  00058	ff 71 f4	 push	 DWORD PTR [ecx-12]
  0005b	51		 push	 ecx
  0005c	ff 72 f4	 push	 DWORD PTR [edx-12]
  0005f	52		 push	 edx
  00060	57		 push	 edi
  00061	ff 15 00 00 00
	00		 call	 DWORD PTR __imp_?Concatenate@?$CSimpleStringT@D$00@ATL@@KAXAAV12@PBDH1H@Z
  00067	83 c4 14	 add	 esp, 20			; 00000014H

; 2394 : 		return( strResult );

  0006a	8b c7		 mov	 eax, edi

; 2395 : 	}

  0006c	8b 4d f4	 mov	 ecx, DWORD PTR __$EHRec$[ebp]
  0006f	64 89 0d 00 00
	00 00		 mov	 DWORD PTR fs:0, ecx
  00076	59		 pop	 ecx
  00077	5f		 pop	 edi
  00078	5e		 pop	 esi
  00079	8b e5		 mov	 esp, ebp
  0007b	5d		 pop	 ebp
  0007c	c3		 ret	 0
_TEXT	ENDS
;	COMDAT text$x
text$x	SEGMENT
__unwindfunclet$??HATL@@YA?AV?$CStringT@DV?$StrTraitMFC_DLL@DV?$ChTraitsCRT@D@ATL@@@@@0@ABV10@0@Z$0:
  00000	8b 45 f0	 mov	 eax, DWORD PTR $T2[ebp]
  00003	83 e0 01	 and	 eax, 1
  00006	0f 84 0d 00 00
	00		 je	 $LN4@operator
  0000c	83 65 f0 fe	 and	 DWORD PTR $T2[ebp], -2	; fffffffeH
  00010	8b 4d 08	 mov	 ecx, DWORD PTR ___$ReturnUdt$[ebp]
  00013	ff 25 00 00 00
	00		 jmp	 DWORD PTR __imp_??1?$CStringT@DV?$StrTraitMFC_DLL@DV?$ChTraitsCRT@D@ATL@@@@@ATL@@QAE@XZ
$LN4@operator:
  00019	c3		 ret	 0
  0001a	cc		 int	 3
  0001b	cc		 int	 3
  0001c	cc		 int	 3
  0001d	cc		 int	 3
  0001e	cc		 int	 3
__ehhandler$??HATL@@YA?AV?$CStringT@DV?$StrTraitMFC_DLL@DV?$ChTraitsCRT@D@ATL@@@@@0@ABV10@0@Z:
  0001f	90		 npad	 1
  00020	90		 npad	 1
  00021	8b 54 24 08	 mov	 edx, DWORD PTR [esp+8]
  00025	8d 42 0c	 lea	 eax, DWORD PTR [edx+12]
  00028	8b 4a f0	 mov	 ecx, DWORD PTR [edx-16]
  0002b	33 c8		 xor	 ecx, eax
  0002d	e8 00 00 00 00	 call	 @__security_check_cookie@4
  00032	b8 00 00 00 00	 mov	 eax, OFFSET __ehfuncinfo$??HATL@@YA?AV?$CStringT@DV?$StrTraitMFC_DLL@DV?$ChTraitsCRT@D@ATL@@@@@0@ABV10@0@Z
  00037	e9 00 00 00 00	 jmp	 ___CxxFrameHandler3
text$x	ENDS
??HATL@@YA?AV?$CStringT@DV?$StrTraitMFC_DLL@DV?$ChTraitsCRT@D@ATL@@@@@0@ABV10@0@Z ENDP ; ATL::operator+
; Function compile flags: /Ogtp
; File C:\Program Files (x86)\Windows Kits\10\Include\10.0.22000.0\ucrt\stdio.h
;	COMDAT _sscanf
_TEXT	SEGMENT
__Buffer$ = 8						; size = 4
__Format$ = 12						; size = 4
_sscanf	PROC						; COMDAT

; 2247 :     {

  00000	55		 push	 ebp
  00001	8b ec		 mov	 ebp, esp

; 2153 :         return __stdio_common_vsscanf(

  00003	8d 45 10	 lea	 eax, DWORD PTR __Format$[ebp+4]
  00006	50		 push	 eax
  00007	6a 00		 push	 0
  00009	ff 75 0c	 push	 DWORD PTR __Format$[ebp]
  0000c	6a ff		 push	 -1
  0000e	ff 75 08	 push	 DWORD PTR __Buffer$[ebp]
  00011	e8 00 00 00 00	 call	 ___local_stdio_scanf_options
  00016	ff 70 04	 push	 DWORD PTR [eax+4]
  00019	ff 30		 push	 DWORD PTR [eax]
  0001b	ff 15 00 00 00
	00		 call	 DWORD PTR __imp____stdio_common_vsscanf
  00021	83 c4 1c	 add	 esp, 28			; 0000001cH

; 2248 :         int _Result;
; 2249 :         va_list _ArgList;
; 2250 :         __crt_va_start(_ArgList, _Format);
; 2251 :         _Result = _vsscanf_l(_Buffer, _Format, NULL, _ArgList);
; 2252 :         __crt_va_end(_ArgList);
; 2253 :         return _Result;
; 2254 :     }

  00024	5d		 pop	 ebp
  00025	c3		 ret	 0
_sscanf	ENDP
_TEXT	ENDS
; Function compile flags: /Ogtp
; File C:\Program Files (x86)\Windows Kits\10\Include\10.0.22000.0\ucrt\stdio.h
;	COMDAT _sprintf
_TEXT	SEGMENT
__Buffer$ = 8						; size = 4
__Format$ = 12						; size = 4
_sprintf PROC						; COMDAT

; 1771 :     {

  00000	55		 push	 ebp
  00001	8b ec		 mov	 ebp, esp

; 1392 :         int const _Result = __stdio_common_vsprintf(

  00003	8d 45 10	 lea	 eax, DWORD PTR __Format$[ebp+4]
  00006	50		 push	 eax
  00007	6a 00		 push	 0
  00009	ff 75 0c	 push	 DWORD PTR __Format$[ebp]
  0000c	6a ff		 push	 -1
  0000e	ff 75 08	 push	 DWORD PTR __Buffer$[ebp]
  00011	e8 00 00 00 00	 call	 ___local_stdio_printf_options
  00016	8b 08		 mov	 ecx, DWORD PTR [eax]
  00018	ff 70 04	 push	 DWORD PTR [eax+4]
  0001b	83 c9 01	 or	 ecx, 1
  0001e	51		 push	 ecx
  0001f	ff 15 00 00 00
	00		 call	 DWORD PTR __imp____stdio_common_vsprintf

; 1393 :             _CRT_INTERNAL_LOCAL_PRINTF_OPTIONS | _CRT_INTERNAL_PRINTF_LEGACY_VSPRINTF_NULL_TERMINATION,
; 1394 :             _Buffer, _BufferCount, _Format, _Locale, _ArgList);
; 1395 : 
; 1396 :         return _Result < 0 ? -1 : _Result;

  00025	83 c9 ff	 or	 ecx, -1
  00028	83 c4 1c	 add	 esp, 28			; 0000001cH
  0002b	85 c0		 test	 eax, eax
  0002d	0f 48 c1	 cmovs	 eax, ecx

; 1772 :         int _Result;
; 1773 :         va_list _ArgList;
; 1774 :         __crt_va_start(_ArgList, _Format);
; 1775 : 
; 1776 :         _Result = _vsprintf_l(_Buffer, _Format, NULL, _ArgList);
; 1777 : 
; 1778 :         __crt_va_end(_ArgList);
; 1779 :         return _Result;
; 1780 :     }

  00030	5d		 pop	 ebp
  00031	c3		 ret	 0
_sprintf ENDP
_TEXT	ENDS
; Function compile flags: /Ogtp
; File C:\Program Files (x86)\Windows Kits\10\Include\10.0.22000.0\ucrt\corecrt_stdio_config.h
;	COMDAT ___local_stdio_scanf_options
_TEXT	SEGMENT
___local_stdio_scanf_options PROC			; COMDAT

; 101  :         static unsigned __int64 _OptionsStorage;
; 102  :         return &_OptionsStorage;

  00000	b8 00 00 00 00	 mov	 eax, OFFSET ?_OptionsStorage@?1??__local_stdio_scanf_options@@9@4_KA ; `__local_stdio_scanf_options'::`2'::_OptionsStorage

; 103  :     }

  00005	c3		 ret	 0
___local_stdio_scanf_options ENDP
_TEXT	ENDS
; Function compile flags: /Ogtp
; File C:\Program Files (x86)\Windows Kits\10\Include\10.0.22000.0\ucrt\corecrt_stdio_config.h
;	COMDAT ___local_stdio_printf_options
_TEXT	SEGMENT
___local_stdio_printf_options PROC			; COMDAT

; 91   :         static unsigned __int64 _OptionsStorage;
; 92   :         return &_OptionsStorage;

  00000	b8 00 00 00 00	 mov	 eax, OFFSET ?_OptionsStorage@?1??__local_stdio_printf_options@@9@4_KA ; `__local_stdio_printf_options'::`2'::_OptionsStorage

; 93   :     }

  00005	c3		 ret	 0
___local_stdio_printf_options ENDP
_TEXT	ENDS
; Function compile flags: /Ogtp
; File D:\git\src\IBK\IBK_DRFN\ProjSrc\SrcDrfn\DrCommon\PcTrMng\_DataUtilManager.cpp
;	COMDAT ?__empty_global_delete@@YAXPAXI@Z
_TEXT	SEGMENT
___formal$ = 8						; size = 4
___formal$ = 12						; size = 4
?__empty_global_delete@@YAXPAXI@Z PROC			; __empty_global_delete, COMDAT

  00000	c2 00 00	 ret	 0
?__empty_global_delete@@YAXPAXI@Z ENDP			; __empty_global_delete
_TEXT	ENDS
; Function compile flags: /Ogtp
; File D:\git\src\IBK\IBK_DRFN\ProjSrc\SrcDrfn\DrCommon\PcTrMng\_DataUtilManager.cpp
;	COMDAT ?__empty_global_delete@@YAXPAX@Z
_TEXT	SEGMENT
___formal$ = 8						; size = 4
?__empty_global_delete@@YAXPAX@Z PROC			; __empty_global_delete, COMDAT

  00000	c2 00 00	 ret	 0
?__empty_global_delete@@YAXPAX@Z ENDP			; __empty_global_delete
_TEXT	ENDS
END
