; Listing generated by Microsoft (R) Optimizing Compiler Version 19.29.30145.0 

	TITLE	D:\git\src\IBK\IBK_DRFN\#DRfn-CS\_Obj\PcTrMng\_DebugManager.obj
	.686P
	.XMM
	include listing.inc
	.model	flat

INCLUDELIB MSVCRT
INCLUDELIB OLDNAMES

PUBLIC	??_C@_0P@BKKCOCLK@RMSG_INTERFACE@		; `string'
PUBLIC	??_C@_0BB@GOOPDKI@RMSG_GETPCTRDATA@		; `string'
PUBLIC	??_C@_0BB@JPACFCL@RMSG_SETPCTRDATA@		; `string'
PUBLIC	??_C@_0BB@EPGJDGDK@RMSG_CONCERNHWND@		; `string'
PUBLIC	??_C@_0BA@JHANHJCN@RMSG_INTREQUEST@		; `string'
PUBLIC	??_C@_0BF@MNPNIDPI@RMSG_GWANSIMREGISTER@	; `string'
PUBLIC	??_C@_0BD@ILNAFPGE@RMSG_HandleToDebug@		; `string'
;	COMDAT ??_C@_0BD@ILNAFPGE@RMSG_HandleToDebug@
CONST	SEGMENT
??_C@_0BD@ILNAFPGE@RMSG_HandleToDebug@ DB 'RMSG_HandleToDebug', 00H ; `string'
CONST	ENDS
;	COMDAT ??_C@_0BF@MNPNIDPI@RMSG_GWANSIMREGISTER@
CONST	SEGMENT
??_C@_0BF@MNPNIDPI@RMSG_GWANSIMREGISTER@ DB 'RMSG_GWANSIMREGISTER', 00H ; `string'
CONST	ENDS
;	COMDAT ??_C@_0BA@JHANHJCN@RMSG_INTREQUEST@
CONST	SEGMENT
??_C@_0BA@JHANHJCN@RMSG_INTREQUEST@ DB 'RMSG_INTREQUEST', 00H ; `string'
CONST	ENDS
;	COMDAT ??_C@_0BB@EPGJDGDK@RMSG_CONCERNHWND@
CONST	SEGMENT
??_C@_0BB@EPGJDGDK@RMSG_CONCERNHWND@ DB 'RMSG_CONCERNHWND', 00H ; `string'
CONST	ENDS
;	COMDAT ??_C@_0BB@JPACFCL@RMSG_SETPCTRDATA@
CONST	SEGMENT
??_C@_0BB@JPACFCL@RMSG_SETPCTRDATA@ DB 'RMSG_SETPCTRDATA', 00H ; `string'
CONST	ENDS
;	COMDAT ??_C@_0BB@GOOPDKI@RMSG_GETPCTRDATA@
CONST	SEGMENT
??_C@_0BB@GOOPDKI@RMSG_GETPCTRDATA@ DB 'RMSG_GETPCTRDATA', 00H ; `string'
CONST	ENDS
;	COMDAT ??_C@_0P@BKKCOCLK@RMSG_INTERFACE@
CONST	SEGMENT
??_C@_0P@BKKCOCLK@RMSG_INTERFACE@ DB 'RMSG_INTERFACE', 00H ; `string'
CONST	ENDS
PUBLIC	?__empty_global_delete@@YAXPAX@Z		; __empty_global_delete
PUBLIC	?__empty_global_delete@@YAXPAXI@Z		; __empty_global_delete
PUBLIC	___local_stdio_printf_options
PUBLIC	?LoadLib@CDRDebugerLoader@@QAEPAUHINSTANCE__@@XZ ; CDRDebugerLoader::LoadLib
PUBLIC	?Trace@CDebugManager@@UAAXPBDZZ			; CDebugManager::Trace
PUBLIC	?Trace@CDebugManager@@UAAXHPBDZZ		; CDebugManager::Trace
PUBLIC	?WriteLogFile@CDebugManager@@UAGXPAXHPBDH1@Z	; CDebugManager::WriteLogFile
PUBLIC	?TraceEx@CDebugManager@@UAGXEEPBDKPAE@Z		; CDebugManager::TraceEx
PUBLIC	?TraceTran@CDebugManager@@UAGXEPBDKPAE@Z	; CDebugManager::TraceTran
PUBLIC	?TraceReal@CDebugManager@@UAGXPBDKPAE@Z		; CDebugManager::TraceReal
PUBLIC	?TraceSR@CDebugManager@@UAGXEEPBDPAUHWND__@@G@Z	; CDebugManager::TraceSR
PUBLIC	?ShowOutputDebugString@CDebugManager@@UAAXPBDZZ	; CDebugManager::ShowOutputDebugString
PUBLIC	?TraceCompData@CDebugManager@@UAGHEPBDKPAE@Z	; CDebugManager::TraceCompData
PUBLIC	?GetDRDebuger@CDebugManager@@UAGJXZ		; CDebugManager::GetDRDebuger
PUBLIC	??0CDebugManager@@QAE@XZ			; CDebugManager::CDebugManager
PUBLIC	??1CDebugManager@@QAE@XZ			; CDebugManager::~CDebugManager
PUBLIC	?DoMessageToDebugWnd@CDebugManager@@QAEXEEPBDKPAE@Z ; CDebugManager::DoMessageToDebugWnd
PUBLIC	?DoMessageToCompDataWnd@CDebugManager@@QAEHEEPBDKPAE@Z ; CDebugManager::DoMessageToCompDataWnd
PUBLIC	?_OptionsStorage@?1??__local_stdio_printf_options@@9@4_KA ; `__local_stdio_printf_options'::`2'::_OptionsStorage
PUBLIC	??_C@_01KICIPPFI@?2@				; `string'
PUBLIC	??_C@_0O@GFDNBJDO@DRDebuger?4dll@		; `string'
PUBLIC	??_C@_0CF@IGNKKJMG@?$FLdrfn?$FNDLL?$CI?$CFs?$CJ?$MA?$LL?5Load?G?R?5?$LM?v?5?$LO?x?$LN?$MA?$LE@ ; `string'
PUBLIC	??_C@_0O@PJEIPGOG@DRLog_Message@		; `string'
PUBLIC	??_C@_0BC@GJFJNGJF@DRLog_RequestData@		; `string'
PUBLIC	??_C@_0BD@ENGDDGEF@DRLog_ResponseData@		; `string'
PUBLIC	??_C@_0P@HFGANDLL@DRLog_RealData@		; `string'
PUBLIC	??_7CDebugManager@@6B@				; CDebugManager::`vftable'
PUBLIC	?m_uRMSG_HandleToDebug@@3IA			; m_uRMSG_HandleToDebug
PUBLIC	??_C@_05BMGBEOOC@?$CFs?2?$CFs@			; `string'
PUBLIC	??_C@_02CJNFGIML@aw@				; `string'
PUBLIC	??_C@_02PCIJFNDE@?$AN?6@			; `string'
PUBLIC	??_R0?AUIDebugManager@@@8			; IDebugManager `RTTI Type Descriptor'
PUBLIC	??_R3IDebugManager@@8				; IDebugManager::`RTTI Class Hierarchy Descriptor'
PUBLIC	??_R2IDebugManager@@8				; IDebugManager::`RTTI Base Class Array'
PUBLIC	??_R1A@?0A@EA@IDebugManager@@8			; IDebugManager::`RTTI Base Class Descriptor at (0,-1,0,64)'
PUBLIC	??_R0?AUIDebugManager2@@@8			; IDebugManager2 `RTTI Type Descriptor'
PUBLIC	??_R3IDebugManager2@@8				; IDebugManager2::`RTTI Class Hierarchy Descriptor'
PUBLIC	??_R2IDebugManager2@@8				; IDebugManager2::`RTTI Base Class Array'
PUBLIC	??_R1A@?0A@EA@IDebugManager2@@8			; IDebugManager2::`RTTI Base Class Descriptor at (0,-1,0,64)'
PUBLIC	??_R0?AUIDebugManager3@@@8			; IDebugManager3 `RTTI Type Descriptor'
PUBLIC	??_R3IDebugManager3@@8				; IDebugManager3::`RTTI Class Hierarchy Descriptor'
PUBLIC	??_R2IDebugManager3@@8				; IDebugManager3::`RTTI Base Class Array'
PUBLIC	??_R1A@?0A@EA@IDebugManager3@@8			; IDebugManager3::`RTTI Base Class Descriptor at (0,-1,0,64)'
PUBLIC	??_R4CDebugManager@@6B@				; CDebugManager::`RTTI Complete Object Locator'
PUBLIC	??_R0?AVCDebugManager@@@8			; CDebugManager `RTTI Type Descriptor'
PUBLIC	??_R3CDebugManager@@8				; CDebugManager::`RTTI Class Hierarchy Descriptor'
PUBLIC	??_R2CDebugManager@@8				; CDebugManager::`RTTI Base Class Array'
PUBLIC	??_R1A@?0A@EA@CDebugManager@@8			; CDebugManager::`RTTI Base Class Descriptor at (0,-1,0,64)'
PUBLIC	__real@3ff0000000000000
EXTRN	??2@YAPAXI@Z:PROC				; operator new
EXTRN	??3@YAXPAXI@Z:PROC				; operator delete
EXTRN	__imp__OutputDebugStringA@4:PROC
EXTRN	__imp__FreeLibrary@4:PROC
EXTRN	__imp__GetModuleFileNameA@12:PROC
EXTRN	__imp__GetProcAddress@8:PROC
EXTRN	__imp__LoadLibraryA@4:PROC
EXTRN	__imp__RegisterWindowMessageA@4:PROC
EXTRN	__imp__fclose:PROC
EXTRN	__imp__fopen:PROC
EXTRN	__imp__fwrite:PROC
EXTRN	__imp____stdio_common_vsprintf:PROC
EXTRN	__imp_??0?$CStringT@DV?$StrTraitMFC_DLL@DV?$ChTraitsCRT@D@ATL@@@@@ATL@@QAE@XZ:PROC
EXTRN	__imp_??0?$CStringT@DV?$StrTraitMFC_DLL@DV?$ChTraitsCRT@D@ATL@@@@@ATL@@QAE@PBD@Z:PROC
EXTRN	__imp_??1?$CStringT@DV?$StrTraitMFC_DLL@DV?$ChTraitsCRT@D@ATL@@@@@ATL@@QAE@XZ:PROC
EXTRN	__imp_??4?$CStringT@DV?$StrTraitMFC_DLL@DV?$ChTraitsCRT@D@ATL@@@@@ATL@@QAEAAV01@ABV01@@Z:PROC
EXTRN	__imp_??Y?$CStringT@DV?$StrTraitMFC_DLL@DV?$ChTraitsCRT@D@ATL@@@@@ATL@@QAEAAV01@PBD@Z:PROC
EXTRN	__imp_?ReverseFind@?$CStringT@DV?$StrTraitMFC_DLL@DV?$ChTraitsCRT@D@ATL@@@@@ATL@@QBEHD@Z:PROC
EXTRN	__imp_?Left@?$CStringT@DV?$StrTraitMFC_DLL@DV?$ChTraitsCRT@D@ATL@@@@@ATL@@QBE?AV12@H@Z:PROC
EXTRN	__imp_?Format@?$CStringT@DV?$StrTraitMFC_DLL@DV?$ChTraitsCRT@D@ATL@@@@@ATL@@QAAXPBDZZ:PROC
EXTRN	@__security_check_cookie@4:PROC
EXTRN	___CxxFrameHandler3:PROC
EXTRN	__chkstk:PROC
EXTRN	_memset:PROC
EXTRN	??_7type_info@@6B@:QWORD			; type_info::`vftable'
EXTRN	___security_cookie:DWORD
EXTRN	__fltused:DWORD
;	COMDAT ?_OptionsStorage@?1??__local_stdio_printf_options@@9@4_KA
_BSS	SEGMENT
?_OptionsStorage@?1??__local_stdio_printf_options@@9@4_KA DQ 01H DUP (?) ; `__local_stdio_printf_options'::`2'::_OptionsStorage
_BSS	ENDS
_BSS	SEGMENT
?RMSG_INTERFACE@@3IB DD 01H DUP (?)			; RMSG_INTERFACE
?RMSG_GETPCTRDATA@@3IB DD 01H DUP (?)			; RMSG_GETPCTRDATA
?RMSG_SETPCTRDATA@@3IB DD 01H DUP (?)			; RMSG_SETPCTRDATA
?RMSG_CONCERNHWND@@3IB DD 01H DUP (?)			; RMSG_CONCERNHWND
?RMSG_INTREQUEST@@3IB DD 01H DUP (?)			; RMSG_INTREQUEST
?RMSG_GWANSIMREGISTER@@3IB DD 01H DUP (?)		; RMSG_GWANSIMREGISTER
?m_uRMSG_HandleToDebug@@3IA DD 01H DUP (?)		; m_uRMSG_HandleToDebug
_BSS	ENDS
CRT$XCU	SEGMENT
?RMSG_INTERFACE$initializer$@@3P6AXXZA DD FLAT:??__ERMSG_INTERFACE@@YAXXZ ; RMSG_INTERFACE$initializer$
CRT$XCU	ENDS
;	COMDAT __real@3ff0000000000000
CONST	SEGMENT
__real@3ff0000000000000 DQ 03ff0000000000000r	; 1
CONST	ENDS
;	COMDAT ??_R1A@?0A@EA@CDebugManager@@8
rdata$r	SEGMENT
??_R1A@?0A@EA@CDebugManager@@8 DD FLAT:??_R0?AVCDebugManager@@@8 ; CDebugManager::`RTTI Base Class Descriptor at (0,-1,0,64)'
	DD	03H
	DD	00H
	DD	0ffffffffH
	DD	00H
	DD	040H
	DD	FLAT:??_R3CDebugManager@@8
rdata$r	ENDS
;	COMDAT ??_R2CDebugManager@@8
rdata$r	SEGMENT
??_R2CDebugManager@@8 DD FLAT:??_R1A@?0A@EA@CDebugManager@@8 ; CDebugManager::`RTTI Base Class Array'
	DD	FLAT:??_R1A@?0A@EA@IDebugManager3@@8
	DD	FLAT:??_R1A@?0A@EA@IDebugManager2@@8
	DD	FLAT:??_R1A@?0A@EA@IDebugManager@@8
rdata$r	ENDS
;	COMDAT ??_R3CDebugManager@@8
rdata$r	SEGMENT
??_R3CDebugManager@@8 DD 00H				; CDebugManager::`RTTI Class Hierarchy Descriptor'
	DD	00H
	DD	04H
	DD	FLAT:??_R2CDebugManager@@8
rdata$r	ENDS
;	COMDAT ??_R0?AVCDebugManager@@@8
data$rs	SEGMENT
??_R0?AVCDebugManager@@@8 DD FLAT:??_7type_info@@6B@	; CDebugManager `RTTI Type Descriptor'
	DD	00H
	DB	'.?AVCDebugManager@@', 00H
data$rs	ENDS
;	COMDAT ??_R4CDebugManager@@6B@
rdata$r	SEGMENT
??_R4CDebugManager@@6B@ DD 00H				; CDebugManager::`RTTI Complete Object Locator'
	DD	00H
	DD	00H
	DD	FLAT:??_R0?AVCDebugManager@@@8
	DD	FLAT:??_R3CDebugManager@@8
rdata$r	ENDS
;	COMDAT ??_R1A@?0A@EA@IDebugManager3@@8
rdata$r	SEGMENT
??_R1A@?0A@EA@IDebugManager3@@8 DD FLAT:??_R0?AUIDebugManager3@@@8 ; IDebugManager3::`RTTI Base Class Descriptor at (0,-1,0,64)'
	DD	02H
	DD	00H
	DD	0ffffffffH
	DD	00H
	DD	040H
	DD	FLAT:??_R3IDebugManager3@@8
rdata$r	ENDS
;	COMDAT ??_R2IDebugManager3@@8
rdata$r	SEGMENT
??_R2IDebugManager3@@8 DD FLAT:??_R1A@?0A@EA@IDebugManager3@@8 ; IDebugManager3::`RTTI Base Class Array'
	DD	FLAT:??_R1A@?0A@EA@IDebugManager2@@8
	DD	FLAT:??_R1A@?0A@EA@IDebugManager@@8
rdata$r	ENDS
;	COMDAT ??_R3IDebugManager3@@8
rdata$r	SEGMENT
??_R3IDebugManager3@@8 DD 00H				; IDebugManager3::`RTTI Class Hierarchy Descriptor'
	DD	00H
	DD	03H
	DD	FLAT:??_R2IDebugManager3@@8
rdata$r	ENDS
;	COMDAT ??_R0?AUIDebugManager3@@@8
data$rs	SEGMENT
??_R0?AUIDebugManager3@@@8 DD FLAT:??_7type_info@@6B@	; IDebugManager3 `RTTI Type Descriptor'
	DD	00H
	DB	'.?AUIDebugManager3@@', 00H
data$rs	ENDS
;	COMDAT ??_R1A@?0A@EA@IDebugManager2@@8
rdata$r	SEGMENT
??_R1A@?0A@EA@IDebugManager2@@8 DD FLAT:??_R0?AUIDebugManager2@@@8 ; IDebugManager2::`RTTI Base Class Descriptor at (0,-1,0,64)'
	DD	01H
	DD	00H
	DD	0ffffffffH
	DD	00H
	DD	040H
	DD	FLAT:??_R3IDebugManager2@@8
rdata$r	ENDS
;	COMDAT ??_R2IDebugManager2@@8
rdata$r	SEGMENT
??_R2IDebugManager2@@8 DD FLAT:??_R1A@?0A@EA@IDebugManager2@@8 ; IDebugManager2::`RTTI Base Class Array'
	DD	FLAT:??_R1A@?0A@EA@IDebugManager@@8
rdata$r	ENDS
;	COMDAT ??_R3IDebugManager2@@8
rdata$r	SEGMENT
??_R3IDebugManager2@@8 DD 00H				; IDebugManager2::`RTTI Class Hierarchy Descriptor'
	DD	00H
	DD	02H
	DD	FLAT:??_R2IDebugManager2@@8
rdata$r	ENDS
;	COMDAT ??_R0?AUIDebugManager2@@@8
data$rs	SEGMENT
??_R0?AUIDebugManager2@@@8 DD FLAT:??_7type_info@@6B@	; IDebugManager2 `RTTI Type Descriptor'
	DD	00H
	DB	'.?AUIDebugManager2@@', 00H
data$rs	ENDS
;	COMDAT ??_R1A@?0A@EA@IDebugManager@@8
rdata$r	SEGMENT
??_R1A@?0A@EA@IDebugManager@@8 DD FLAT:??_R0?AUIDebugManager@@@8 ; IDebugManager::`RTTI Base Class Descriptor at (0,-1,0,64)'
	DD	00H
	DD	00H
	DD	0ffffffffH
	DD	00H
	DD	040H
	DD	FLAT:??_R3IDebugManager@@8
rdata$r	ENDS
;	COMDAT ??_R2IDebugManager@@8
rdata$r	SEGMENT
??_R2IDebugManager@@8 DD FLAT:??_R1A@?0A@EA@IDebugManager@@8 ; IDebugManager::`RTTI Base Class Array'
rdata$r	ENDS
;	COMDAT ??_R3IDebugManager@@8
rdata$r	SEGMENT
??_R3IDebugManager@@8 DD 00H				; IDebugManager::`RTTI Class Hierarchy Descriptor'
	DD	00H
	DD	01H
	DD	FLAT:??_R2IDebugManager@@8
rdata$r	ENDS
;	COMDAT ??_R0?AUIDebugManager@@@8
data$rs	SEGMENT
??_R0?AUIDebugManager@@@8 DD FLAT:??_7type_info@@6B@	; IDebugManager `RTTI Type Descriptor'
	DD	00H
	DB	'.?AUIDebugManager@@', 00H
data$rs	ENDS
;	COMDAT ??_C@_02PCIJFNDE@?$AN?6@
CONST	SEGMENT
??_C@_02PCIJFNDE@?$AN?6@ DB 0dH, 0aH, 00H		; `string'
CONST	ENDS
;	COMDAT ??_C@_02CJNFGIML@aw@
CONST	SEGMENT
??_C@_02CJNFGIML@aw@ DB 'aw', 00H			; `string'
CONST	ENDS
;	COMDAT ??_C@_05BMGBEOOC@?$CFs?2?$CFs@
CONST	SEGMENT
??_C@_05BMGBEOOC@?$CFs?2?$CFs@ DB '%s\%s', 00H		; `string'
CONST	ENDS
;	COMDAT ??_7CDebugManager@@6B@
CONST	SEGMENT
??_7CDebugManager@@6B@ DD FLAT:??_R4CDebugManager@@6B@	; CDebugManager::`vftable'
	DD	FLAT:?Trace@CDebugManager@@UAAXHPBDZZ
	DD	FLAT:?Trace@CDebugManager@@UAAXPBDZZ
	DD	FLAT:?WriteLogFile@CDebugManager@@UAGXPAXHPBDH1@Z
	DD	FLAT:?TraceEx@CDebugManager@@UAGXEEPBDKPAE@Z
	DD	FLAT:?TraceTran@CDebugManager@@UAGXEPBDKPAE@Z
	DD	FLAT:?TraceReal@CDebugManager@@UAGXPBDKPAE@Z
	DD	FLAT:?TraceSR@CDebugManager@@UAGXEEPBDPAUHWND__@@G@Z
	DD	FLAT:?ShowOutputDebugString@CDebugManager@@UAAXPBDZZ
	DD	FLAT:?TraceCompData@CDebugManager@@UAGHEPBDKPAE@Z
	DD	FLAT:?GetDRDebuger@CDebugManager@@UAGJXZ
CONST	ENDS
;	COMDAT ??_C@_0P@HFGANDLL@DRLog_RealData@
CONST	SEGMENT
??_C@_0P@HFGANDLL@DRLog_RealData@ DB 'DRLog_RealData', 00H ; `string'
CONST	ENDS
;	COMDAT ??_C@_0BD@ENGDDGEF@DRLog_ResponseData@
CONST	SEGMENT
??_C@_0BD@ENGDDGEF@DRLog_ResponseData@ DB 'DRLog_ResponseData', 00H ; `string'
CONST	ENDS
;	COMDAT ??_C@_0BC@GJFJNGJF@DRLog_RequestData@
CONST	SEGMENT
??_C@_0BC@GJFJNGJF@DRLog_RequestData@ DB 'DRLog_RequestData', 00H ; `string'
CONST	ENDS
;	COMDAT ??_C@_0O@PJEIPGOG@DRLog_Message@
CONST	SEGMENT
??_C@_0O@PJEIPGOG@DRLog_Message@ DB 'DRLog_Message', 00H ; `string'
CONST	ENDS
;	COMDAT ??_C@_0CF@IGNKKJMG@?$FLdrfn?$FNDLL?$CI?$CFs?$CJ?$MA?$LL?5Load?G?R?5?$LM?v?5?$LO?x?$LN?$MA?$LE@
CONST	SEGMENT
??_C@_0CF@IGNKKJMG@?$FLdrfn?$FNDLL?$CI?$CFs?$CJ?$MA?$LL?5Load?G?R?5?$LM?v?5?$LO?x?$LN?$MA?$LE@ DB '['
	DB	'drfn]DLL(%s)', 0c0H, 0bbH, ' Load', 0c7H, 0d2H, ' ', 0bcH, 0f6H
	DB	' ', 0beH, 0f8H, 0bdH, 0c0H, 0b4H, 0cfH, 0b4H, 0d9H, '.', 0aH, 00H ; `string'
CONST	ENDS
;	COMDAT ??_C@_0O@GFDNBJDO@DRDebuger?4dll@
CONST	SEGMENT
??_C@_0O@GFDNBJDO@DRDebuger?4dll@ DB 'DRDebuger.dll', 00H ; `string'
CONST	ENDS
;	COMDAT ??_C@_01KICIPPFI@?2@
CONST	SEGMENT
??_C@_01KICIPPFI@?2@ DB '\', 00H			; `string'
CONST	ENDS
;	COMDAT xdata$x
xdata$x	SEGMENT
__unwindtable$?LoadLib@CDRDebugerLoader@@QAEPAUHINSTANCE__@@XZ DD 0ffffffffH
	DD	FLAT:__unwindfunclet$?LoadLib@CDRDebugerLoader@@QAEPAUHINSTANCE__@@XZ$0
__ehfuncinfo$?LoadLib@CDRDebugerLoader@@QAEPAUHINSTANCE__@@XZ DD 019930522H
	DD	01H
	DD	FLAT:__unwindtable$?LoadLib@CDRDebugerLoader@@QAEPAUHINSTANCE__@@XZ
	DD	2 DUP(00H)
	DD	2 DUP(00H)
	DD	00H
	DD	01H
xdata$x	ENDS
;	COMDAT xdata$x
xdata$x	SEGMENT
__unwindtable$?GetExeDir@CDRDebugerLoader@@QAEXAAV?$CStringT@DV?$StrTraitMFC_DLL@DV?$ChTraitsCRT@D@ATL@@@@@ATL@@@Z DD 0ffffffffH
	DD	FLAT:__unwindfunclet$?GetExeDir@CDRDebugerLoader@@QAEXAAV?$CStringT@DV?$StrTraitMFC_DLL@DV?$ChTraitsCRT@D@ATL@@@@@ATL@@@Z$0
	DD	00H
	DD	FLAT:__unwindfunclet$?GetExeDir@CDRDebugerLoader@@QAEXAAV?$CStringT@DV?$StrTraitMFC_DLL@DV?$ChTraitsCRT@D@ATL@@@@@ATL@@@Z$1
__ehfuncinfo$?GetExeDir@CDRDebugerLoader@@QAEXAAV?$CStringT@DV?$StrTraitMFC_DLL@DV?$ChTraitsCRT@D@ATL@@@@@ATL@@@Z DD 019930522H
	DD	02H
	DD	FLAT:__unwindtable$?GetExeDir@CDRDebugerLoader@@QAEXAAV?$CStringT@DV?$StrTraitMFC_DLL@DV?$ChTraitsCRT@D@ATL@@@@@ATL@@@Z
	DD	2 DUP(00H)
	DD	2 DUP(00H)
	DD	00H
	DD	01H
xdata$x	ENDS
;	COMDAT xdata$x
xdata$x	SEGMENT
__unwindtable$??0CDRDebugerLoader@@QAE@H@Z DD 0ffffffffH
	DD	FLAT:__unwindfunclet$??0CDRDebugerLoader@@QAE@H@Z$0
	DD	00H
	DD	FLAT:__unwindfunclet$??0CDRDebugerLoader@@QAE@H@Z$1
	DD	01H
	DD	FLAT:__unwindfunclet$??0CDRDebugerLoader@@QAE@H@Z$2
	DD	02H
	DD	FLAT:__unwindfunclet$??0CDRDebugerLoader@@QAE@H@Z$3
__ehfuncinfo$??0CDRDebugerLoader@@QAE@H@Z DD 019930522H
	DD	04H
	DD	FLAT:__unwindtable$??0CDRDebugerLoader@@QAE@H@Z
	DD	2 DUP(00H)
	DD	2 DUP(00H)
	DD	00H
	DD	01H
xdata$x	ENDS
CRT$XCU	SEGMENT
?RMSG_GETPCTRDATA$initializer$@@3P6AXXZA DD FLAT:??__ERMSG_GETPCTRDATA@@YAXXZ ; RMSG_GETPCTRDATA$initializer$
CRT$XCU	ENDS
CRT$XCU	SEGMENT
?RMSG_SETPCTRDATA$initializer$@@3P6AXXZA DD FLAT:??__ERMSG_SETPCTRDATA@@YAXXZ ; RMSG_SETPCTRDATA$initializer$
CRT$XCU	ENDS
CRT$XCU	SEGMENT
?RMSG_CONCERNHWND$initializer$@@3P6AXXZA DD FLAT:??__ERMSG_CONCERNHWND@@YAXXZ ; RMSG_CONCERNHWND$initializer$
CRT$XCU	ENDS
CRT$XCU	SEGMENT
?RMSG_INTREQUEST$initializer$@@3P6AXXZA DD FLAT:??__ERMSG_INTREQUEST@@YAXXZ ; RMSG_INTREQUEST$initializer$
CRT$XCU	ENDS
CRT$XCU	SEGMENT
?RMSG_GWANSIMREGISTER$initializer$@@3P6AXXZA DD FLAT:??__ERMSG_GWANSIMREGISTER@@YAXXZ ; RMSG_GWANSIMREGISTER$initializer$
CRT$XCU	ENDS
CRT$XCU	SEGMENT
?m_uRMSG_HandleToDebug$initializer$@@3P6AXXZA DD FLAT:??__Em_uRMSG_HandleToDebug@@YAXXZ ; m_uRMSG_HandleToDebug$initializer$
CRT$XCU	ENDS
; Function compile flags: /Ogtp
; File D:\git\src\IBK\IBK_DRFN\ProjSrc\SrcDrfn\DrCommon\PcTrMng\_DebugManager.cpp
;	COMDAT ??__Em_uRMSG_HandleToDebug@@YAXXZ
text$di	SEGMENT
??__Em_uRMSG_HandleToDebug@@YAXXZ PROC			; `dynamic initializer for 'm_uRMSG_HandleToDebug'', COMDAT

; 8    : UINT m_uRMSG_HandleToDebug = ::RegisterWindowMessage("RMSG_HandleToDebug");

  00000	68 00 00 00 00	 push	 OFFSET ??_C@_0BD@ILNAFPGE@RMSG_HandleToDebug@
  00005	ff 15 00 00 00
	00		 call	 DWORD PTR __imp__RegisterWindowMessageA@4
  0000b	a3 00 00 00 00	 mov	 DWORD PTR ?m_uRMSG_HandleToDebug@@3IA, eax ; m_uRMSG_HandleToDebug
  00010	c3		 ret	 0
??__Em_uRMSG_HandleToDebug@@YAXXZ ENDP			; `dynamic initializer for 'm_uRMSG_HandleToDebug''
text$di	ENDS
; Function compile flags: /Ogtp
; File D:\git\src\IBK\IBK_DRFN\ProjSrc\SrcDrfn\DrCommon\PcTrMng\_DebugManager.cpp
;	COMDAT ?DoMessageToCompDataWnd@CDebugManager@@QAEHEEPBDKPAE@Z
_TEXT	SEGMENT
_nType$ = 8						; size = 1
_cIO$ = 12						; size = 1
_pDataName$ = 16					; size = 4
_dwSize$ = 20						; size = 4
_pData$ = 24						; size = 4
?DoMessageToCompDataWnd@CDebugManager@@QAEHEEPBDKPAE@Z PROC ; CDebugManager::DoMessageToCompDataWnd, COMDAT
; _this$ = ecx

; 109  : BOOL CDebugManager::DoMessageToCompDataWnd(BYTE nType, BYTE cIO, LPCSTR pDataName, DWORD dwSize, LPBYTE pData){	return TRUE;}

  00000	b8 01 00 00 00	 mov	 eax, 1
  00005	c2 14 00	 ret	 20			; 00000014H
?DoMessageToCompDataWnd@CDebugManager@@QAEHEEPBDKPAE@Z ENDP ; CDebugManager::DoMessageToCompDataWnd
_TEXT	ENDS
; Function compile flags: /Ogtp
; File D:\git\src\IBK\IBK_DRFN\ProjSrc\SrcDrfn\DrCommon\PcTrMng\_DebugManager.cpp
;	COMDAT ?DoMessageToDebugWnd@CDebugManager@@QAEXEEPBDKPAE@Z
_TEXT	SEGMENT
_nType$ = 8						; size = 1
_cIO$ = 12						; size = 1
_pDataName$ = 16					; size = 4
_dwSize$ = 20						; size = 4
_pData$ = 24						; size = 4
?DoMessageToDebugWnd@CDebugManager@@QAEXEEPBDKPAE@Z PROC ; CDebugManager::DoMessageToDebugWnd, COMDAT
; _this$ = ecx

; 66   : void CDebugManager::DoMessageToDebugWnd(BYTE nType, BYTE cIO, LPCSTR pDataName, DWORD dwSize, LPBYTE pData){}

  00000	c2 14 00	 ret	 20			; 00000014H
?DoMessageToDebugWnd@CDebugManager@@QAEXEEPBDKPAE@Z ENDP ; CDebugManager::DoMessageToDebugWnd
_TEXT	ENDS
; Function compile flags: /Ogtp
; File D:\git\src\IBK\IBK_DRFN\ProjSrc\SrcDrfn\DrCommon\PcTrMng\_DebugManager.cpp
; File D:\git\src\IBK\IBK_DRFN\ProjSrc\SrcDrfn\inc\LoadDRDebuger.h
; File D:\git\src\IBK\IBK_DRFN\ProjSrc\SrcDrfn\DrCommon\PcTrMng\_DebugManager.cpp
;	COMDAT ??1CDebugManager@@QAE@XZ
_TEXT	SEGMENT
??1CDebugManager@@QAE@XZ PROC				; CDebugManager::~CDebugManager, COMDAT
; _this$ = ecx

; 17   : {

  00000	56		 push	 esi
  00001	57		 push	 edi
  00002	8b f9		 mov	 edi, ecx

; 18   : 	if(m_pDRDebuger)

  00004	8b 77 04	 mov	 esi, DWORD PTR [edi+4]
  00007	c7 07 00 00 00
	00		 mov	 DWORD PTR [edi], OFFSET ??_7CDebugManager@@6B@
  0000d	85 f6		 test	 esi, esi
  0000f	74 3e		 je	 SHORT $LN2@CDebugMana
; File D:\git\src\IBK\IBK_DRFN\ProjSrc\SrcDrfn\inc\LoadDRDebuger.h

; 178  : 		if(m_hLib == NULL)  return TRUE;

  00011	8b 06		 mov	 eax, DWORD PTR [esi]
  00013	85 c0		 test	 eax, eax
  00015	74 14		 je	 SHORT $LN12@CDebugMana

; 179  : 
; 180  : 		BOOL bResult = ::FreeLibrary(m_hLib);

  00017	50		 push	 eax
  00018	ff 15 00 00 00
	00		 call	 DWORD PTR __imp__FreeLibrary@4

; 181  : 		m_hLib = NULL;

  0001e	c7 06 00 00 00
	00		 mov	 DWORD PTR [esi], 0

; 182  : 		m_nLoadTry = 0;

  00024	c7 46 68 00 00
	00 00		 mov	 DWORD PTR [esi+104], 0
$LN12@CDebugMana:

; 119  : 	}

  0002b	8d 4e 5c	 lea	 ecx, DWORD PTR [esi+92]
  0002e	ff 15 00 00 00
	00		 call	 DWORD PTR __imp_??1?$CStringT@DV?$StrTraitMFC_DLL@DV?$ChTraitsCRT@D@ATL@@@@@ATL@@QAE@XZ
  00034	8d 4e 04	 lea	 ecx, DWORD PTR [esi+4]
  00037	ff 15 00 00 00
	00		 call	 DWORD PTR __imp_??1?$CStringT@DV?$StrTraitMFC_DLL@DV?$ChTraitsCRT@D@ATL@@@@@ATL@@QAE@XZ
  0003d	6a 70		 push	 112			; 00000070H
  0003f	56		 push	 esi
  00040	e8 00 00 00 00	 call	 ??3@YAXPAXI@Z		; operator delete
  00045	83 c4 08	 add	 esp, 8
; File D:\git\src\IBK\IBK_DRFN\ProjSrc\SrcDrfn\DrCommon\PcTrMng\_DebugManager.cpp

; 21   : 		m_pDRDebuger = NULL;

  00048	c7 47 04 00 00
	00 00		 mov	 DWORD PTR [edi+4], 0
$LN2@CDebugMana:

; 22   : 	}
; 23   : }

  0004f	5f		 pop	 edi
  00050	5e		 pop	 esi
  00051	c3		 ret	 0
??1CDebugManager@@QAE@XZ ENDP				; CDebugManager::~CDebugManager
_TEXT	ENDS
; Function compile flags: /Ogtp
; File D:\git\src\IBK\IBK_DRFN\ProjSrc\SrcDrfn\DrCommon\PcTrMng\_DebugManager.cpp
;	COMDAT ??0CDebugManager@@QAE@XZ
_TEXT	SEGMENT
??0CDebugManager@@QAE@XZ PROC				; CDebugManager::CDebugManager, COMDAT
; _this$ = ecx

; 13   : {	

  00000	c7 01 00 00 00
	00		 mov	 DWORD PTR [ecx], OFFSET ??_7CDebugManager@@6B@

; 14   : }

  00006	8b c1		 mov	 eax, ecx
  00008	c7 41 04 00 00
	00 00		 mov	 DWORD PTR [ecx+4], 0
  0000f	c3		 ret	 0
??0CDebugManager@@QAE@XZ ENDP				; CDebugManager::CDebugManager
_TEXT	ENDS
; Function compile flags: /Ogtp
; File D:\git\src\IBK\IBK_DRFN\ProjSrc\SrcDrfn\DrCommon\PcTrMng\_DebugManager.cpp
; File D:\git\src\IBK\IBK_DRFN\ProjSrc\SrcDrfn\inc\LoadDRDebuger.h
; File D:\git\src\IBK\IBK_DRFN\ProjSrc\SrcDrfn\DrCommon\PcTrMng\_DebugManager.cpp
; File D:\git\src\IBK\IBK_DRFN\ProjSrc\SrcDrfn\inc\LoadDRDebuger.h
; File D:\git\src\IBK\IBK_DRFN\ProjSrc\SrcDrfn\DrCommon\PcTrMng\_DebugManager.cpp
; File D:\git\src\IBK\IBK_DRFN\ProjSrc\SrcDrfn\inc\LoadDRDebuger.h
; File D:\git\src\IBK\IBK_DRFN\ProjSrc\SrcDrfn\DrCommon\PcTrMng\_DebugManager.cpp
;	COMDAT ?GetDRDebuger@CDebugManager@@UAGJXZ
_TEXT	SEGMENT
$T1 = -268						; size = 4
__strRoot_$2 = -264					; size = 4
__szBuf_$3 = -260					; size = 255
__$ArrayPad$ = -4					; size = 4
_this$ = 8						; size = 4
?GetDRDebuger@CDebugManager@@UAGJXZ PROC		; CDebugManager::GetDRDebuger, COMDAT

; 26   : {

  00000	55		 push	 ebp
  00001	8b ec		 mov	 ebp, esp
  00003	81 ec 0c 01 00
	00		 sub	 esp, 268		; 0000010cH
  00009	a1 00 00 00 00	 mov	 eax, DWORD PTR ___security_cookie
  0000e	33 c5		 xor	 eax, ebp
  00010	89 45 fc	 mov	 DWORD PTR __$ArrayPad$[ebp], eax
  00013	57		 push	 edi
  00014	8b 7d 08	 mov	 edi, DWORD PTR _this$[ebp]

; 27   : 	if(m_pDRDebuger)

  00017	8b 47 04	 mov	 eax, DWORD PTR [edi+4]
  0001a	85 c0		 test	 eax, eax
  0001c	0f 85 fc 01 00
	00		 jne	 $LN1@GetDRDebug

; 30   : 	m_pDRDebuger = new CDRDebugerLoader();

  00022	56		 push	 esi
  00023	6a 70		 push	 112			; 00000070H
  00025	e8 00 00 00 00	 call	 ??2@YAPAXI@Z		; operator new
  0002a	8b f0		 mov	 esi, eax
  0002c	83 c4 04	 add	 esp, 4
  0002f	85 f6		 test	 esi, esi
  00031	0f 84 dc 01 00
	00		 je	 $LN6@GetDRDebug
; File D:\git\src\IBK\IBK_DRFN\ProjSrc\SrcDrfn\inc\LoadDRDebuger.h

; 80   : 	CDRDebugerLoader(BOOL bAutoLoad=TRUE)

  00037	53		 push	 ebx
  00038	8d 4e 04	 lea	 ecx, DWORD PTR [esi+4]
  0003b	ff 15 00 00 00
	00		 call	 DWORD PTR __imp_??0?$CStringT@DV?$StrTraitMFC_DLL@DV?$ChTraitsCRT@D@ATL@@@@@ATL@@QAE@XZ
  00041	8d 4e 5c	 lea	 ecx, DWORD PTR [esi+92]
  00044	ff 15 00 00 00
	00		 call	 DWORD PTR __imp_??0?$CStringT@DV?$StrTraitMFC_DLL@DV?$ChTraitsCRT@D@ATL@@@@@ATL@@QAE@XZ

; 84   : 		m_dLoaderVersion = g_dCDRDebugerLoader_Version;

  0004a	f2 0f 10 05 00
	00 00 00	 movsd	 xmm0, QWORD PTR __real@3ff0000000000000

; 138  : 		char _szBuf_[255] = {0,};

  00052	8d 85 fc fe ff
	ff		 lea	 eax, DWORD PTR __szBuf_$3[ebp]
  00058	68 ff 00 00 00	 push	 255			; 000000ffH
  0005d	6a 00		 push	 0
  0005f	50		 push	 eax

; 82   : 		m_nLoadTry = 0;

  00060	c7 46 68 00 00
	00 00		 mov	 DWORD PTR [esi+104], 0

; 83   : 		m_hLib = NULL;

  00067	c7 06 00 00 00
	00		 mov	 DWORD PTR [esi], 0

; 84   : 		m_dLoaderVersion = g_dCDRDebugerLoader_Version;

  0006d	f2 0f 11 46 60	 movsd	 QWORD PTR [esi+96], xmm0

; 138  : 		char _szBuf_[255] = {0,};

  00072	e8 00 00 00 00	 call	 _memset
  00077	83 c4 0c	 add	 esp, 12			; 0000000cH

; 139  : 		::GetModuleFileName(NULL, _szBuf_, 255);

  0007a	8d 85 fc fe ff
	ff		 lea	 eax, DWORD PTR __szBuf_$3[ebp]
  00080	68 ff 00 00 00	 push	 255			; 000000ffH
  00085	50		 push	 eax
  00086	6a 00		 push	 0
  00088	ff 15 00 00 00
	00		 call	 DWORD PTR __imp__GetModuleFileNameA@12

; 140  : 			
; 141  : 		CString	_strRoot_ = _szBuf_;

  0008e	8d 85 fc fe ff
	ff		 lea	 eax, DWORD PTR __szBuf_$3[ebp]
  00094	50		 push	 eax
  00095	8d 8d f8 fe ff
	ff		 lea	 ecx, DWORD PTR __strRoot_$2[ebp]
  0009b	ff 15 00 00 00
	00		 call	 DWORD PTR __imp_??0?$CStringT@DV?$StrTraitMFC_DLL@DV?$ChTraitsCRT@D@ATL@@@@@ATL@@QAE@PBD@Z

; 142  : 		
; 143  : 		int _loc_ = _strRoot_.ReverseFind('\\');

  000a1	6a 5c		 push	 92			; 0000005cH
  000a3	8d 8d f8 fe ff
	ff		 lea	 ecx, DWORD PTR __strRoot_$2[ebp]
  000a9	ff 15 00 00 00
	00		 call	 DWORD PTR __imp_?ReverseFind@?$CStringT@DV?$StrTraitMFC_DLL@DV?$ChTraitsCRT@D@ATL@@@@@ATL@@QBEHD@Z

; 144  : 		if( _loc_ > 0)

  000af	85 c0		 test	 eax, eax
  000b1	7e 2d		 jle	 SHORT $LN14@GetDRDebug

; 145  : 			_strRoot_ = _strRoot_.Left(_loc_);

  000b3	50		 push	 eax
  000b4	8d 85 f4 fe ff
	ff		 lea	 eax, DWORD PTR $T1[ebp]
  000ba	50		 push	 eax
  000bb	8d 8d f8 fe ff
	ff		 lea	 ecx, DWORD PTR __strRoot_$2[ebp]
  000c1	ff 15 00 00 00
	00		 call	 DWORD PTR __imp_?Left@?$CStringT@DV?$StrTraitMFC_DLL@DV?$ChTraitsCRT@D@ATL@@@@@ATL@@QBE?AV12@H@Z
  000c7	50		 push	 eax
  000c8	8d 8d f8 fe ff
	ff		 lea	 ecx, DWORD PTR __strRoot_$2[ebp]
  000ce	ff 15 00 00 00
	00		 call	 DWORD PTR __imp_??4?$CStringT@DV?$StrTraitMFC_DLL@DV?$ChTraitsCRT@D@ATL@@@@@ATL@@QAEAAV01@ABV01@@Z
  000d4	8d 8d f4 fe ff
	ff		 lea	 ecx, DWORD PTR $T1[ebp]
  000da	ff 15 00 00 00
	00		 call	 DWORD PTR __imp_??1?$CStringT@DV?$StrTraitMFC_DLL@DV?$ChTraitsCRT@D@ATL@@@@@ATL@@QAE@XZ
$LN14@GetDRDebug:

; 146  : 
; 147  : 		strDir = _strRoot_;

  000e0	8d 85 f8 fe ff
	ff		 lea	 eax, DWORD PTR __strRoot_$2[ebp]
  000e6	50		 push	 eax
  000e7	8d 4e 04	 lea	 ecx, DWORD PTR [esi+4]
  000ea	ff 15 00 00 00
	00		 call	 DWORD PTR __imp_??4?$CStringT@DV?$StrTraitMFC_DLL@DV?$ChTraitsCRT@D@ATL@@@@@ATL@@QAEAAV01@ABV01@@Z

; 148  : 	}

  000f0	8d 8d f8 fe ff
	ff		 lea	 ecx, DWORD PTR __strRoot_$2[ebp]
  000f6	ff 15 00 00 00
	00		 call	 DWORD PTR __imp_??1?$CStringT@DV?$StrTraitMFC_DLL@DV?$ChTraitsCRT@D@ATL@@@@@ATL@@QAE@XZ

; 87   : 		m_szLibName += "\\";

  000fc	68 00 00 00 00	 push	 OFFSET ??_C@_01KICIPPFI@?2@
  00101	8d 4e 04	 lea	 ecx, DWORD PTR [esi+4]
  00104	ff 15 00 00 00
	00		 call	 DWORD PTR __imp_??Y?$CStringT@DV?$StrTraitMFC_DLL@DV?$ChTraitsCRT@D@ATL@@@@@ATL@@QAEAAV01@PBD@Z

; 88   : 		m_szLibName += g_DRDebugerLoader_DLL;	//exe와 같은 위치에 존재.

  0010a	68 00 00 00 00	 push	 OFFSET ??_C@_0O@GFDNBJDO@DRDebuger?4dll@
  0010f	8d 4e 04	 lea	 ecx, DWORD PTR [esi+4]
  00112	ff 15 00 00 00
	00		 call	 DWORD PTR __imp_??Y?$CStringT@DV?$StrTraitMFC_DLL@DV?$ChTraitsCRT@D@ATL@@@@@ATL@@QAEAAV01@PBD@Z

; 89   : 		//OutputDebugString(m_szLibName);
; 90   : 
; 91   : 		m_fpGetInferface = NULL;
; 92   : 		m_fpSetInferface = NULL;
; 93   : 		m_fpMessage = NULL;
; 94   : 		m_fpMessageEx = NULL;
; 95   : 		m_fpRequestData = NULL;
; 96   : 		m_fpResponseData = NULL;
; 97   : 		m_fpRealAdvise = NULL;
; 98   : 		m_fpRealUnAdvise = NULL;
; 99   : 		m_fpRealData = NULL;
; 100  : 		m_fpDebugData = NULL;
; 101  : 		m_fpDebugDataEx = NULL;
; 102  : 		m_fpLogData = NULL;
; 103  : 		m_fpOutputDebugString = NULL;
; 104  : 		m_fpRequestSR = NULL;
; 105  : 		m_fpRequestFileData = NULL;
; 106  : 		m_fpResponseFileData = NULL;
; 107  : 		m_fpRequestStringsData = NULL;
; 108  : 		m_fpResponseStringsData = NULL;
; 109  : 		m_fpFileTranWithData1 = NULL;
; 110  : 		m_fpFileTranWithData2 = NULL;
; 111  : 		m_fpFileTranWithDirect = NULL;
; 112  : 
; 113  : 		if(bAutoLoad)	LoadLib();

  00118	8b ce		 mov	 ecx, esi
  0011a	c7 46 08 00 00
	00 00		 mov	 DWORD PTR [esi+8], 0
  00121	c7 46 0c 00 00
	00 00		 mov	 DWORD PTR [esi+12], 0
  00128	c7 46 10 00 00
	00 00		 mov	 DWORD PTR [esi+16], 0
  0012f	c7 46 14 00 00
	00 00		 mov	 DWORD PTR [esi+20], 0
  00136	c7 46 18 00 00
	00 00		 mov	 DWORD PTR [esi+24], 0
  0013d	c7 46 1c 00 00
	00 00		 mov	 DWORD PTR [esi+28], 0
  00144	c7 46 20 00 00
	00 00		 mov	 DWORD PTR [esi+32], 0
  0014b	c7 46 24 00 00
	00 00		 mov	 DWORD PTR [esi+36], 0
  00152	c7 46 28 00 00
	00 00		 mov	 DWORD PTR [esi+40], 0
  00159	c7 46 2c 00 00
	00 00		 mov	 DWORD PTR [esi+44], 0
  00160	c7 46 30 00 00
	00 00		 mov	 DWORD PTR [esi+48], 0
  00167	c7 46 34 00 00
	00 00		 mov	 DWORD PTR [esi+52], 0
  0016e	c7 46 38 00 00
	00 00		 mov	 DWORD PTR [esi+56], 0
  00175	c7 46 3c 00 00
	00 00		 mov	 DWORD PTR [esi+60], 0
  0017c	c7 46 40 00 00
	00 00		 mov	 DWORD PTR [esi+64], 0
  00183	c7 46 44 00 00
	00 00		 mov	 DWORD PTR [esi+68], 0
  0018a	c7 46 48 00 00
	00 00		 mov	 DWORD PTR [esi+72], 0
  00191	c7 46 4c 00 00
	00 00		 mov	 DWORD PTR [esi+76], 0
  00198	c7 46 50 00 00
	00 00		 mov	 DWORD PTR [esi+80], 0
  0019f	c7 46 54 00 00
	00 00		 mov	 DWORD PTR [esi+84], 0
  001a6	c7 46 58 00 00
	00 00		 mov	 DWORD PTR [esi+88], 0
  001ad	e8 00 00 00 00	 call	 ?LoadLib@CDRDebugerLoader@@QAEPAUHINSTANCE__@@XZ ; CDRDebugerLoader::LoadLib
; File D:\git\src\IBK\IBK_DRFN\ProjSrc\SrcDrfn\DrCommon\PcTrMng\_DebugManager.cpp

; 30   : 	m_pDRDebuger = new CDRDebugerLoader();

  001b2	89 77 04	 mov	 DWORD PTR [edi+4], esi
; File D:\git\src\IBK\IBK_DRFN\ProjSrc\SrcDrfn\inc\LoadDRDebuger.h

; 122  : 		if(m_hLib) return TRUE;

  001b5	83 3e 00	 cmp	 DWORD PTR [esi], 0
  001b8	5b		 pop	 ebx
  001b9	75 5f		 jne	 SHORT $LN4@GetDRDebug

; 123  : 
; 124  : 		if(m_nLoadTry<g_DRDebugerLoader_TryCount) {

  001bb	8b 46 68	 mov	 eax, DWORD PTR [esi+104]
  001be	83 f8 0a	 cmp	 eax, 10			; 0000000aH
  001c1	7d 06		 jge	 SHORT $LN18@GetDRDebug

; 125  : 			m_nLoadTry++;

  001c3	40		 inc	 eax
  001c4	89 46 68	 mov	 DWORD PTR [esi+104], eax

; 126  : 			return FALSE;

  001c7	eb 0c		 jmp	 SHORT $LN30@GetDRDebug
$LN18@GetDRDebug:

; 127  : 		}
; 128  : 		else {
; 129  : 			LoadLib();			

  001c9	8b ce		 mov	 ecx, esi
  001cb	e8 00 00 00 00	 call	 ?LoadLib@CDRDebugerLoader@@QAEPAUHINSTANCE__@@XZ ; CDRDebugerLoader::LoadLib
; File D:\git\src\IBK\IBK_DRFN\ProjSrc\SrcDrfn\DrCommon\PcTrMng\_DebugManager.cpp

; 33   : 		if(m_pDRDebuger->IsLoaded()==FALSE)

  001d0	83 3e 00	 cmp	 DWORD PTR [esi], 0
  001d3	75 45		 jne	 SHORT $LN4@GetDRDebug
$LN30@GetDRDebug:

; 34   : 		{
; 35   : 			delete m_pDRDebuger;

  001d5	8b 77 04	 mov	 esi, DWORD PTR [edi+4]
  001d8	85 f6		 test	 esi, esi
  001da	74 37		 je	 SHORT $LN6@GetDRDebug
; File D:\git\src\IBK\IBK_DRFN\ProjSrc\SrcDrfn\inc\LoadDRDebuger.h

; 178  : 		if(m_hLib == NULL)  return TRUE;

  001dc	8b 06		 mov	 eax, DWORD PTR [esi]
  001de	85 c0		 test	 eax, eax
  001e0	74 14		 je	 SHORT $LN27@GetDRDebug

; 179  : 
; 180  : 		BOOL bResult = ::FreeLibrary(m_hLib);

  001e2	50		 push	 eax
  001e3	ff 15 00 00 00
	00		 call	 DWORD PTR __imp__FreeLibrary@4

; 181  : 		m_hLib = NULL;

  001e9	c7 06 00 00 00
	00		 mov	 DWORD PTR [esi], 0

; 182  : 		m_nLoadTry = 0;

  001ef	c7 46 68 00 00
	00 00		 mov	 DWORD PTR [esi+104], 0
$LN27@GetDRDebug:

; 119  : 	}

  001f6	8d 4e 5c	 lea	 ecx, DWORD PTR [esi+92]
  001f9	ff 15 00 00 00
	00		 call	 DWORD PTR __imp_??1?$CStringT@DV?$StrTraitMFC_DLL@DV?$ChTraitsCRT@D@ATL@@@@@ATL@@QAE@XZ
  001ff	8d 4e 04	 lea	 ecx, DWORD PTR [esi+4]
  00202	ff 15 00 00 00
	00		 call	 DWORD PTR __imp_??1?$CStringT@DV?$StrTraitMFC_DLL@DV?$ChTraitsCRT@D@ATL@@@@@ATL@@QAE@XZ
  00208	6a 70		 push	 112			; 00000070H
  0020a	56		 push	 esi
  0020b	e8 00 00 00 00	 call	 ??3@YAXPAXI@Z		; operator delete
  00210	83 c4 08	 add	 esp, 8
$LN6@GetDRDebug:
; File D:\git\src\IBK\IBK_DRFN\ProjSrc\SrcDrfn\DrCommon\PcTrMng\_DebugManager.cpp

; 39   : 	return (LONG)m_pDRDebuger;

  00213	c7 47 04 00 00
	00 00		 mov	 DWORD PTR [edi+4], 0
$LN4@GetDRDebug:
  0021a	8b 47 04	 mov	 eax, DWORD PTR [edi+4]
  0021d	5e		 pop	 esi
$LN1@GetDRDebug:

; 40   : }

  0021e	8b 4d fc	 mov	 ecx, DWORD PTR __$ArrayPad$[ebp]
  00221	33 cd		 xor	 ecx, ebp
  00223	5f		 pop	 edi
  00224	e8 00 00 00 00	 call	 @__security_check_cookie@4
  00229	8b e5		 mov	 esp, ebp
  0022b	5d		 pop	 ebp
  0022c	c2 04 00	 ret	 4
?GetDRDebuger@CDebugManager@@UAGJXZ ENDP		; CDebugManager::GetDRDebuger
_TEXT	ENDS
; Function compile flags: /Ogtp
; File D:\git\src\IBK\IBK_DRFN\ProjSrc\SrcDrfn\DrCommon\PcTrMng\_DebugManager.cpp
;	COMDAT ?TraceCompData@CDebugManager@@UAGHEPBDKPAE@Z
_TEXT	SEGMENT
_this$ = 8						; size = 4
_cIO$ = 12						; size = 1
_pTranName$ = 16					; size = 4
_dwSize$ = 20						; size = 4
_pData$ = 24						; size = 4
?TraceCompData@CDebugManager@@UAGHEPBDKPAE@Z PROC	; CDebugManager::TraceCompData, COMDAT

; 108  : BOOL CDebugManager::TraceCompData(BYTE cIO, LPCSTR pTranName, DWORD dwSize, LPBYTE pData) { return FALSE; }

  00000	33 c0		 xor	 eax, eax
  00002	c2 14 00	 ret	 20			; 00000014H
?TraceCompData@CDebugManager@@UAGHEPBDKPAE@Z ENDP	; CDebugManager::TraceCompData
_TEXT	ENDS
; Function compile flags: /Ogtp
; File D:\git\src\IBK\IBK_DRFN\ProjSrc\SrcDrfn\DrCommon\PcTrMng\_DebugManager.cpp
; File C:\Program Files (x86)\Windows Kits\10\Include\10.0.22000.0\ucrt\stdio.h
; File D:\git\src\IBK\IBK_DRFN\ProjSrc\SrcDrfn\DrCommon\PcTrMng\_DebugManager.cpp
;	COMDAT ?ShowOutputDebugString@CDebugManager@@UAAXPBDZZ
_TEXT	SEGMENT
_szBuffer$ = -4104					; size = 4097
__$ArrayPad$ = -4					; size = 4
_this$ = 8						; size = 4
_lpszFormat$ = 12					; size = 4
?ShowOutputDebugString@CDebugManager@@UAAXPBDZZ PROC	; CDebugManager::ShowOutputDebugString, COMDAT

; 112  : {

  00000	55		 push	 ebp
  00001	8b ec		 mov	 ebp, esp
  00003	b8 08 10 00 00	 mov	 eax, 4104		; 00001008H
  00008	e8 00 00 00 00	 call	 __chkstk
  0000d	a1 00 00 00 00	 mov	 eax, DWORD PTR ___security_cookie
  00012	33 c5		 xor	 eax, ebp
  00014	89 45 fc	 mov	 DWORD PTR __$ArrayPad$[ebp], eax

; 113  : 	ASSERT(AfxIsValidString(lpszFormat));
; 114  : 	
; 115  : 	va_list args;
; 116  : 	va_start(args, lpszFormat);
; 117  : 	
; 118  : 	int nBuf;
; 119  : 	TCHAR szBuffer[4096+1]={0,};

  00017	68 01 10 00 00	 push	 4097			; 00001001H
  0001c	8d 85 f8 ef ff
	ff		 lea	 eax, DWORD PTR _szBuffer$[ebp]
  00022	6a 00		 push	 0
  00024	50		 push	 eax
  00025	e8 00 00 00 00	 call	 _memset
  0002a	83 c4 0c	 add	 esp, 12			; 0000000cH
; File C:\Program Files (x86)\Windows Kits\10\Include\10.0.22000.0\ucrt\stdio.h

; 1392 :         int const _Result = __stdio_common_vsprintf(

  0002d	8d 45 10	 lea	 eax, DWORD PTR _lpszFormat$[ebp+4]
  00030	50		 push	 eax
  00031	6a 00		 push	 0
  00033	ff 75 0c	 push	 DWORD PTR _lpszFormat$[ebp]
  00036	8d 85 f8 ef ff
	ff		 lea	 eax, DWORD PTR _szBuffer$[ebp]
  0003c	68 01 10 00 00	 push	 4097			; 00001001H
  00041	50		 push	 eax
  00042	e8 00 00 00 00	 call	 ___local_stdio_printf_options
  00047	8b 08		 mov	 ecx, DWORD PTR [eax]
  00049	ff 70 04	 push	 DWORD PTR [eax+4]
  0004c	83 c9 01	 or	 ecx, 1
  0004f	51		 push	 ecx
  00050	ff 15 00 00 00
	00		 call	 DWORD PTR __imp____stdio_common_vsprintf

; 1393 :             _CRT_INTERNAL_LOCAL_PRINTF_OPTIONS | _CRT_INTERNAL_PRINTF_LEGACY_VSPRINTF_NULL_TERMINATION,
; 1394 :             _Buffer, _BufferCount, _Format, _Locale, _ArgList);
; 1395 : 
; 1396 :         return _Result < 0 ? -1 : _Result;

  00056	83 c9 ff	 or	 ecx, -1
  00059	83 c4 1c	 add	 esp, 28			; 0000001cH
  0005c	85 c0		 test	 eax, eax
  0005e	0f 48 c1	 cmovs	 eax, ecx
; File D:\git\src\IBK\IBK_DRFN\ProjSrc\SrcDrfn\DrCommon\PcTrMng\_DebugManager.cpp

; 122  : 	if(nBuf<=0) return;

  00061	85 c0		 test	 eax, eax
  00063	7e 0d		 jle	 SHORT $LN1@ShowOutput

; 123  : 	ASSERT(nBuf >= 0);
; 124  : 	
; 125  : 	va_end(args);
; 126  : 
; 127  : 	OutputDebugString(szBuffer);

  00065	8d 85 f8 ef ff
	ff		 lea	 eax, DWORD PTR _szBuffer$[ebp]
  0006b	50		 push	 eax
  0006c	ff 15 00 00 00
	00		 call	 DWORD PTR __imp__OutputDebugStringA@4
$LN1@ShowOutput:

; 128  : }

  00072	8b 4d fc	 mov	 ecx, DWORD PTR __$ArrayPad$[ebp]
  00075	33 cd		 xor	 ecx, ebp
  00077	e8 00 00 00 00	 call	 @__security_check_cookie@4
  0007c	8b e5		 mov	 esp, ebp
  0007e	5d		 pop	 ebp
  0007f	c3		 ret	 0
?ShowOutputDebugString@CDebugManager@@UAAXPBDZZ ENDP	; CDebugManager::ShowOutputDebugString
_TEXT	ENDS
; Function compile flags: /Ogtp
; File D:\git\src\IBK\IBK_DRFN\ProjSrc\SrcDrfn\DrCommon\PcTrMng\_DebugManager.cpp
;	COMDAT ?TraceSR@CDebugManager@@UAGXEEPBDPAUHWND__@@G@Z
_TEXT	SEGMENT
_this$ = 8						; size = 4
_cAU$ = 12						; size = 1
_cIO$ = 16						; size = 1
_pTranName$ = 20					; size = 4
_hReceiver$ = 24					; size = 4
_dwOnCopyDataKey$ = 28					; size = 2
?TraceSR@CDebugManager@@UAGXEEPBDPAUHWND__@@G@Z PROC	; CDebugManager::TraceSR, COMDAT

; 107  : void CDebugManager::TraceSR(BYTE cAU, BYTE cIO, LPCSTR pTranName, HWND hReceiver, WORD dwOnCopyDataKey){}

  00000	c2 18 00	 ret	 24			; 00000018H
?TraceSR@CDebugManager@@UAGXEEPBDPAUHWND__@@G@Z ENDP	; CDebugManager::TraceSR
_TEXT	ENDS
; Function compile flags: /Ogtp
; File D:\git\src\IBK\IBK_DRFN\ProjSrc\SrcDrfn\DrCommon\PcTrMng\_DebugManager.cpp
; File D:\git\src\IBK\IBK_DRFN\ProjSrc\SrcDrfn\inc\LoadDRDebuger.h
; File D:\git\src\IBK\IBK_DRFN\ProjSrc\SrcDrfn\DrCommon\PcTrMng\_DebugManager.cpp
;	COMDAT ?TraceReal@CDebugManager@@UAGXPBDKPAE@Z
_TEXT	SEGMENT
_this$ = 8						; size = 4
_pDataName$ = 12					; size = 4
_dwSize$ = 16						; size = 4
_pData$ = 20						; size = 4
?TraceReal@CDebugManager@@UAGXPBDKPAE@Z PROC		; CDebugManager::TraceReal, COMDAT

; 100  : {

  00000	55		 push	 ebp
  00001	8b ec		 mov	 ebp, esp
  00003	56		 push	 esi
  00004	57		 push	 edi

; 101  : 	if(!m_pDRDebuger) GetDRDebuger();

  00005	8b 7d 08	 mov	 edi, DWORD PTR _this$[ebp]
  00008	8b 77 04	 mov	 esi, DWORD PTR [edi+4]
  0000b	85 f6		 test	 esi, esi
  0000d	75 0d		 jne	 SHORT $LN11@TraceReal
  0000f	8b 07		 mov	 eax, DWORD PTR [edi]
  00011	57		 push	 edi
  00012	ff 50 24	 call	 DWORD PTR [eax+36]
  00015	8b 77 04	 mov	 esi, DWORD PTR [edi+4]

; 102  : 	if(!m_pDRDebuger)	return;

  00018	85 f6		 test	 esi, esi
  0001a	74 2d		 je	 SHORT $LN5@TraceReal
$LN11@TraceReal:
; File D:\git\src\IBK\IBK_DRFN\ProjSrc\SrcDrfn\inc\LoadDRDebuger.h

; 264  : 		def_DRDebuger_GetProc(m_fpRealData			, FpDRLog_RealData			, "DRLog_RealData");

  0001c	8b 0e		 mov	 ecx, DWORD PTR [esi]
  0001e	85 c9		 test	 ecx, ecx
  00020	74 27		 je	 SHORT $LN5@TraceReal
  00022	8b 46 28	 mov	 eax, DWORD PTR [esi+40]
  00025	85 c0		 test	 eax, eax
  00027	75 13		 jne	 SHORT $LN8@TraceReal
  00029	68 00 00 00 00	 push	 OFFSET ??_C@_0P@HFGANDLL@DRLog_RealData@
  0002e	51		 push	 ecx
  0002f	ff 15 00 00 00
	00		 call	 DWORD PTR __imp__GetProcAddress@8
  00035	89 46 28	 mov	 DWORD PTR [esi+40], eax
  00038	85 c0		 test	 eax, eax
  0003a	74 0d		 je	 SHORT $LN5@TraceReal
$LN8@TraceReal:

; 265  : 		m_fpRealData(p_szRealKey, p_Data, p_DataLen, szExtraData);

  0003c	6a 00		 push	 0
  0003e	ff 75 10	 push	 DWORD PTR _dwSize$[ebp]
  00041	ff 75 14	 push	 DWORD PTR _pData$[ebp]
  00044	ff 75 0c	 push	 DWORD PTR _pDataName$[ebp]
  00047	ff d0		 call	 eax
$LN5@TraceReal:
  00049	5f		 pop	 edi
; File D:\git\src\IBK\IBK_DRFN\ProjSrc\SrcDrfn\DrCommon\PcTrMng\_DebugManager.cpp

; 105  : }

  0004a	5e		 pop	 esi
  0004b	5d		 pop	 ebp
  0004c	c2 10 00	 ret	 16			; 00000010H
?TraceReal@CDebugManager@@UAGXPBDKPAE@Z ENDP		; CDebugManager::TraceReal
_TEXT	ENDS
; Function compile flags: /Ogtp
; File D:\git\src\IBK\IBK_DRFN\ProjSrc\SrcDrfn\DrCommon\PcTrMng\_DebugManager.cpp
; File D:\git\src\IBK\IBK_DRFN\ProjSrc\SrcDrfn\inc\LoadDRDebuger.h
; File D:\git\src\IBK\IBK_DRFN\ProjSrc\SrcDrfn\DrCommon\PcTrMng\_DebugManager.cpp
;	COMDAT ?TraceTran@CDebugManager@@UAGXEPBDKPAE@Z
_TEXT	SEGMENT
_this$ = 8						; size = 4
_cIO$ = 12						; size = 1
_pTranName$ = 16					; size = 4
_dwSize$ = 20						; size = 4
_pData$ = 24						; size = 4
?TraceTran@CDebugManager@@UAGXEPBDKPAE@Z PROC		; CDebugManager::TraceTran, COMDAT

; 84   : {

  00000	55		 push	 ebp
  00001	8b ec		 mov	 ebp, esp
  00003	56		 push	 esi
  00004	57		 push	 edi

; 85   : 	if(!m_pDRDebuger) GetDRDebuger();

  00005	8b 7d 08	 mov	 edi, DWORD PTR _this$[ebp]
  00008	8b 77 04	 mov	 esi, DWORD PTR [edi+4]
  0000b	85 f6		 test	 esi, esi
  0000d	75 0d		 jne	 SHORT $LN20@TraceTran
  0000f	8b 07		 mov	 eax, DWORD PTR [edi]
  00011	57		 push	 edi
  00012	ff 50 24	 call	 DWORD PTR [eax+36]
  00015	8b 77 04	 mov	 esi, DWORD PTR [edi+4]

; 86   : 	if(!m_pDRDebuger)	return;

  00018	85 f6		 test	 esi, esi
  0001a	74 56		 je	 SHORT $LN9@TraceTran
$LN20@TraceTran:

; 87   : 
; 88   : 	switch(cIO)

  0001c	8a 45 0c	 mov	 al, BYTE PTR _cIO$[ebp]
  0001f	3c 49		 cmp	 al, 73			; 00000049H
  00021	74 22		 je	 SHORT $LN6@TraceTran
  00023	3c 4f		 cmp	 al, 79			; 0000004fH
  00025	75 4b		 jne	 SHORT $LN9@TraceTran
; File D:\git\src\IBK\IBK_DRFN\ProjSrc\SrcDrfn\inc\LoadDRDebuger.h

; 238  : 		def_DRDebuger_GetProc(m_fpResponseData		, FpDRLog_ResponseData		, "DRLog_ResponseData");

  00027	8b 0e		 mov	 ecx, DWORD PTR [esi]
  00029	85 c9		 test	 ecx, ecx
  0002b	74 45		 je	 SHORT $LN9@TraceTran
  0002d	8b 46 1c	 mov	 eax, DWORD PTR [esi+28]
  00030	85 c0		 test	 eax, eax
  00032	75 31		 jne	 SHORT $LN12@TraceTran
  00034	68 00 00 00 00	 push	 OFFSET ??_C@_0BD@ENGDDGEF@DRLog_ResponseData@
  00039	51		 push	 ecx
  0003a	ff 15 00 00 00
	00		 call	 DWORD PTR __imp__GetProcAddress@8
  00040	89 46 1c	 mov	 DWORD PTR [esi+28], eax

; 239  : 		m_fpResponseData(p_szIOKey, p_Data, p_DataLen, szExtraData);

  00043	eb 1c		 jmp	 SHORT $LN22@TraceTran
$LN6@TraceTran:

; 227  : 		def_DRDebuger_GetProc(m_fpRequestData		, FpDRLog_RequestData		, "DRLog_RequestData");

  00045	8b 0e		 mov	 ecx, DWORD PTR [esi]
  00047	85 c9		 test	 ecx, ecx
  00049	74 27		 je	 SHORT $LN9@TraceTran
  0004b	8b 46 18	 mov	 eax, DWORD PTR [esi+24]
  0004e	85 c0		 test	 eax, eax
  00050	75 13		 jne	 SHORT $LN12@TraceTran
  00052	68 00 00 00 00	 push	 OFFSET ??_C@_0BC@GJFJNGJF@DRLog_RequestData@
  00057	51		 push	 ecx
  00058	ff 15 00 00 00
	00		 call	 DWORD PTR __imp__GetProcAddress@8
  0005e	89 46 18	 mov	 DWORD PTR [esi+24], eax
$LN22@TraceTran:
; File D:\git\src\IBK\IBK_DRFN\ProjSrc\SrcDrfn\DrCommon\PcTrMng\_DebugManager.cpp

; 97   : }

  00061	85 c0		 test	 eax, eax
  00063	74 0d		 je	 SHORT $LN9@TraceTran
$LN12@TraceTran:
  00065	6a 00		 push	 0
  00067	ff 75 14	 push	 DWORD PTR _dwSize$[ebp]
  0006a	ff 75 18	 push	 DWORD PTR _pData$[ebp]
  0006d	ff 75 10	 push	 DWORD PTR _pTranName$[ebp]
  00070	ff d0		 call	 eax
$LN9@TraceTran:
  00072	5f		 pop	 edi
  00073	5e		 pop	 esi
  00074	5d		 pop	 ebp
  00075	c2 14 00	 ret	 20			; 00000014H
?TraceTran@CDebugManager@@UAGXEPBDKPAE@Z ENDP		; CDebugManager::TraceTran
_TEXT	ENDS
; Function compile flags: /Ogtp
; File D:\git\src\IBK\IBK_DRFN\ProjSrc\SrcDrfn\DrCommon\PcTrMng\_DebugManager.cpp
;	COMDAT ?TraceEx@CDebugManager@@UAGXEEPBDKPAE@Z
_TEXT	SEGMENT
_this$ = 8						; size = 4
_cMessageTag$ = 12					; size = 1
_cIO$ = 16						; size = 1
_pDataName$ = 20					; size = 4
_lDataSize$ = 24					; size = 4
_pData$ = 28						; size = 4
?TraceEx@CDebugManager@@UAGXEEPBDKPAE@Z PROC		; CDebugManager::TraceEx, COMDAT

; 82   : void CDebugManager::TraceEx(BYTE cMessageTag, BYTE cIO, LPCSTR pDataName, DWORD lDataSize, LPBYTE pData) {}

  00000	c2 18 00	 ret	 24			; 00000018H
?TraceEx@CDebugManager@@UAGXEEPBDKPAE@Z ENDP		; CDebugManager::TraceEx
_TEXT	ENDS
; Function compile flags: /Ogtp
; File D:\git\src\IBK\IBK_DRFN\ProjSrc\SrcDrfn\DrCommon\PcTrMng\_DebugManager.cpp
;	COMDAT ?WriteLogFile@CDebugManager@@UAGXPAXHPBDH1@Z
_TEXT	SEGMENT
_szFile$ = -4						; size = 4
_this$ = 8						; size = 4
_sData$ = 12						; size = 4
_nDataLen$ = 16						; size = 4
_szFileName$ = 20					; size = 4
_bInsertCR$ = 24					; size = 4
_szLogDir$ = 28						; size = 4
?WriteLogFile@CDebugManager@@UAGXPAXHPBDH1@Z PROC	; CDebugManager::WriteLogFile, COMDAT

; 69   : {

  00000	55		 push	 ebp
  00001	8b ec		 mov	 ebp, esp
  00003	51		 push	 ecx
  00004	56		 push	 esi

; 70   : 	CString szFile;

  00005	8d 4d fc	 lea	 ecx, DWORD PTR _szFile$[ebp]
  00008	ff 15 00 00 00
	00		 call	 DWORD PTR __imp_??0?$CStringT@DV?$StrTraitMFC_DLL@DV?$ChTraitsCRT@D@ATL@@@@@ATL@@QAE@XZ

; 71   : 	szFile.Format("%s\\%s", szLogDir, szFileName);

  0000e	ff 75 14	 push	 DWORD PTR _szFileName$[ebp]
  00011	8d 45 fc	 lea	 eax, DWORD PTR _szFile$[ebp]
  00014	ff 75 1c	 push	 DWORD PTR _szLogDir$[ebp]
  00017	68 00 00 00 00	 push	 OFFSET ??_C@_05BMGBEOOC@?$CFs?2?$CFs@
  0001c	50		 push	 eax
  0001d	ff 15 00 00 00
	00		 call	 DWORD PTR __imp_?Format@?$CStringT@DV?$StrTraitMFC_DLL@DV?$ChTraitsCRT@D@ATL@@@@@ATL@@QAAXPBDZZ

; 72   : 
; 73   : 	FILE* fp = fopen(szFile, "aw");

  00023	68 00 00 00 00	 push	 OFFSET ??_C@_02CJNFGIML@aw@
  00028	ff 75 fc	 push	 DWORD PTR _szFile$[ebp]
  0002b	ff 15 00 00 00
	00		 call	 DWORD PTR __imp__fopen
  00031	8b f0		 mov	 esi, eax
  00033	83 c4 18	 add	 esp, 24			; 00000018H

; 74   : 	if(fp)

  00036	85 f6		 test	 esi, esi
  00038	74 35		 je	 SHORT $LN2@WriteLogFi

; 75   : 	{
; 76   : 		fwrite(sData, nDataLen, 1, fp);

  0003a	56		 push	 esi
  0003b	6a 01		 push	 1
  0003d	ff 75 10	 push	 DWORD PTR _nDataLen$[ebp]
  00040	ff 75 0c	 push	 DWORD PTR _sData$[ebp]
  00043	ff 15 00 00 00
	00		 call	 DWORD PTR __imp__fwrite
  00049	83 c4 10	 add	 esp, 16			; 00000010H

; 77   : 		if(bInsertCR) fwrite("\r\n", 2, 1, fp);

  0004c	83 7d 18 00	 cmp	 DWORD PTR _bInsertCR$[ebp], 0
  00050	74 13		 je	 SHORT $LN3@WriteLogFi
  00052	56		 push	 esi
  00053	6a 01		 push	 1
  00055	6a 02		 push	 2
  00057	68 00 00 00 00	 push	 OFFSET ??_C@_02PCIJFNDE@?$AN?6@
  0005c	ff 15 00 00 00
	00		 call	 DWORD PTR __imp__fwrite
  00062	83 c4 10	 add	 esp, 16			; 00000010H
$LN3@WriteLogFi:

; 78   : 		fclose(fp);

  00065	56		 push	 esi
  00066	ff 15 00 00 00
	00		 call	 DWORD PTR __imp__fclose
  0006c	83 c4 04	 add	 esp, 4
$LN2@WriteLogFi:

; 79   : 	}
; 80   : }

  0006f	8d 4d fc	 lea	 ecx, DWORD PTR _szFile$[ebp]
  00072	ff 15 00 00 00
	00		 call	 DWORD PTR __imp_??1?$CStringT@DV?$StrTraitMFC_DLL@DV?$ChTraitsCRT@D@ATL@@@@@ATL@@QAE@XZ
  00078	5e		 pop	 esi
  00079	8b e5		 mov	 esp, ebp
  0007b	5d		 pop	 ebp
  0007c	c2 18 00	 ret	 24			; 00000018H
?WriteLogFile@CDebugManager@@UAGXPAXHPBDH1@Z ENDP	; CDebugManager::WriteLogFile
_TEXT	ENDS
; Function compile flags: /Ogtp
; File D:\git\src\IBK\IBK_DRFN\ProjSrc\SrcDrfn\DrCommon\PcTrMng\_DebugManager.cpp
;	COMDAT ?Trace@CDebugManager@@UAAXHPBDZZ
_TEXT	SEGMENT
_this$ = 8						; size = 4
_nMessagKey$ = 12					; size = 4
_lpszFormat$ = 16					; size = 4
?Trace@CDebugManager@@UAAXHPBDZZ PROC			; CDebugManager::Trace, COMDAT

; 65   : void CDebugManager::Trace(int nMessagKey, LPCTSTR lpszFormat, ...){	}

  00000	c2 00 00	 ret	 0
?Trace@CDebugManager@@UAAXHPBDZZ ENDP			; CDebugManager::Trace
_TEXT	ENDS
; Function compile flags: /Ogtp
; File D:\git\src\IBK\IBK_DRFN\ProjSrc\SrcDrfn\DrCommon\PcTrMng\_DebugManager.cpp
; File C:\Program Files (x86)\Windows Kits\10\Include\10.0.22000.0\ucrt\stdio.h
; File D:\git\src\IBK\IBK_DRFN\ProjSrc\SrcDrfn\DrCommon\PcTrMng\_DebugManager.cpp
; File D:\git\src\IBK\IBK_DRFN\ProjSrc\SrcDrfn\inc\LoadDRDebuger.h
; File D:\git\src\IBK\IBK_DRFN\ProjSrc\SrcDrfn\DrCommon\PcTrMng\_DebugManager.cpp
;	COMDAT ?Trace@CDebugManager@@UAAXPBDZZ
_TEXT	SEGMENT
_szBuffer$ = -4104					; size = 4097
__$ArrayPad$ = -4					; size = 4
_this$ = 8						; size = 4
_lpszFormat$ = 12					; size = 4
?Trace@CDebugManager@@UAAXPBDZZ PROC			; CDebugManager::Trace, COMDAT

; 43   : {

  00000	55		 push	 ebp
  00001	8b ec		 mov	 ebp, esp
  00003	b8 08 10 00 00	 mov	 eax, 4104		; 00001008H
  00008	e8 00 00 00 00	 call	 __chkstk
  0000d	a1 00 00 00 00	 mov	 eax, DWORD PTR ___security_cookie
  00012	33 c5		 xor	 eax, ebp
  00014	89 45 fc	 mov	 DWORD PTR __$ArrayPad$[ebp], eax
  00017	56		 push	 esi
  00018	8b 75 08	 mov	 esi, DWORD PTR _this$[ebp]

; 44   : 	if(!m_pDRDebuger) GetDRDebuger();

  0001b	8b 46 04	 mov	 eax, DWORD PTR [esi+4]
  0001e	85 c0		 test	 eax, eax
  00020	75 0d		 jne	 SHORT $LN20@Trace
  00022	8b 06		 mov	 eax, DWORD PTR [esi]
  00024	56		 push	 esi
  00025	ff 50 24	 call	 DWORD PTR [eax+36]
  00028	8b 46 04	 mov	 eax, DWORD PTR [esi+4]

; 45   : 	if(!m_pDRDebuger) return;

  0002b	85 c0		 test	 eax, eax
  0002d	74 7a		 je	 SHORT $LN15@Trace
$LN20@Trace:

; 46   : 
; 47   : 	ASSERT(AfxIsValidString(lpszFormat));
; 48   : 
; 49   : 	va_list args;
; 50   : 	va_start(args, lpszFormat);
; 51   : 	
; 52   : 	int nBuf;
; 53   : 	TCHAR szBuffer[4096+1]={0,};

  0002f	68 01 10 00 00	 push	 4097			; 00001001H
  00034	8d 85 f8 ef ff
	ff		 lea	 eax, DWORD PTR _szBuffer$[ebp]
  0003a	6a 00		 push	 0
  0003c	50		 push	 eax
  0003d	e8 00 00 00 00	 call	 _memset
  00042	83 c4 0c	 add	 esp, 12			; 0000000cH
; File C:\Program Files (x86)\Windows Kits\10\Include\10.0.22000.0\ucrt\stdio.h

; 1392 :         int const _Result = __stdio_common_vsprintf(

  00045	8d 45 10	 lea	 eax, DWORD PTR _lpszFormat$[ebp+4]
  00048	50		 push	 eax
  00049	6a 00		 push	 0
  0004b	ff 75 0c	 push	 DWORD PTR _lpszFormat$[ebp]
  0004e	8d 85 f8 ef ff
	ff		 lea	 eax, DWORD PTR _szBuffer$[ebp]
  00054	68 01 10 00 00	 push	 4097			; 00001001H
  00059	50		 push	 eax
  0005a	e8 00 00 00 00	 call	 ___local_stdio_printf_options
  0005f	8b 08		 mov	 ecx, DWORD PTR [eax]
  00061	ff 70 04	 push	 DWORD PTR [eax+4]
  00064	83 c9 01	 or	 ecx, 1
  00067	51		 push	 ecx
  00068	ff 15 00 00 00
	00		 call	 DWORD PTR __imp____stdio_common_vsprintf

; 1393 :             _CRT_INTERNAL_LOCAL_PRINTF_OPTIONS | _CRT_INTERNAL_PRINTF_LEGACY_VSPRINTF_NULL_TERMINATION,
; 1394 :             _Buffer, _BufferCount, _Format, _Locale, _ArgList);
; 1395 : 
; 1396 :         return _Result < 0 ? -1 : _Result;

  0006e	83 c9 ff	 or	 ecx, -1
  00071	83 c4 1c	 add	 esp, 28			; 0000001cH
  00074	85 c0		 test	 eax, eax
  00076	0f 48 c1	 cmovs	 eax, ecx
; File D:\git\src\IBK\IBK_DRFN\ProjSrc\SrcDrfn\DrCommon\PcTrMng\_DebugManager.cpp

; 56   : 	if(nBuf<=0) return;

  00079	85 c0		 test	 eax, eax
  0007b	7e 2c		 jle	 SHORT $LN15@Trace

; 57   : 	ASSERT(nBuf >= 0);
; 58   : 	
; 59   : 	va_end(args);
; 60   : 
; 61   : 	//DoMessageToDebugWnd(IDM2_TAG_UM, '*', "*", nBuf, (LPBYTE)szBuffer);
; 62   : 	m_pDRDebuger->DRLog_Message(szBuffer);

  0007d	8b 76 04	 mov	 esi, DWORD PTR [esi+4]
; File D:\git\src\IBK\IBK_DRFN\ProjSrc\SrcDrfn\inc\LoadDRDebuger.h

; 205  : 		def_DRDebuger_GetProc(m_fpMessage			, FpDRLog_Message			, "DRLog_Message");

  00080	8b 0e		 mov	 ecx, DWORD PTR [esi]
  00082	85 c9		 test	 ecx, ecx
  00084	74 23		 je	 SHORT $LN15@Trace
  00086	8b 46 10	 mov	 eax, DWORD PTR [esi+16]
  00089	85 c0		 test	 eax, eax
  0008b	75 13		 jne	 SHORT $LN13@Trace
  0008d	68 00 00 00 00	 push	 OFFSET ??_C@_0O@PJEIPGOG@DRLog_Message@
  00092	51		 push	 ecx
  00093	ff 15 00 00 00
	00		 call	 DWORD PTR __imp__GetProcAddress@8
  00099	89 46 10	 mov	 DWORD PTR [esi+16], eax
  0009c	85 c0		 test	 eax, eax
  0009e	74 09		 je	 SHORT $LN15@Trace
$LN13@Trace:

; 206  : 		if(p_szMessage==NULL)
; 207  : 			m_fpMessage(m_szMessage);
; 208  : 		else
; 209  : 			m_fpMessage(p_szMessage);

  000a0	8d 8d f8 ef ff
	ff		 lea	 ecx, DWORD PTR _szBuffer$[ebp]
  000a6	51		 push	 ecx
  000a7	ff d0		 call	 eax
$LN15@Trace:
; File D:\git\src\IBK\IBK_DRFN\ProjSrc\SrcDrfn\DrCommon\PcTrMng\_DebugManager.cpp

; 63   : }

  000a9	8b 4d fc	 mov	 ecx, DWORD PTR __$ArrayPad$[ebp]
  000ac	33 cd		 xor	 ecx, ebp
  000ae	5e		 pop	 esi
  000af	e8 00 00 00 00	 call	 @__security_check_cookie@4
  000b4	8b e5		 mov	 esp, ebp
  000b6	5d		 pop	 ebp
  000b7	c3		 ret	 0
?Trace@CDebugManager@@UAAXPBDZZ ENDP			; CDebugManager::Trace
_TEXT	ENDS
; Function compile flags: /Ogtp
; File D:\git\src\IBK\IBK_DRFN\ProjSrc\SrcDrfn\inc\LoadDRDebuger.h
;	COMDAT ?LoadLib@CDRDebugerLoader@@QAEPAUHINSTANCE__@@XZ
_TEXT	SEGMENT
_szMsg$2 = -16						; size = 4
__$EHRec$ = -12						; size = 12
?LoadLib@CDRDebugerLoader@@QAEPAUHINSTANCE__@@XZ PROC	; CDRDebugerLoader::LoadLib, COMDAT
; _this$ = ecx

; 151  : 	{

  00000	55		 push	 ebp
  00001	8b ec		 mov	 ebp, esp
  00003	6a ff		 push	 -1
  00005	68 00 00 00 00	 push	 __ehhandler$?LoadLib@CDRDebugerLoader@@QAEPAUHINSTANCE__@@XZ
  0000a	64 a1 00 00 00
	00		 mov	 eax, DWORD PTR fs:0
  00010	50		 push	 eax
  00011	51		 push	 ecx
  00012	56		 push	 esi
  00013	a1 00 00 00 00	 mov	 eax, DWORD PTR ___security_cookie
  00018	33 c5		 xor	 eax, ebp
  0001a	50		 push	 eax
  0001b	8d 45 f4	 lea	 eax, DWORD PTR __$EHRec$[ebp]
  0001e	64 a3 00 00 00
	00		 mov	 DWORD PTR fs:0, eax
  00024	8b f1		 mov	 esi, ecx

; 152  : 		m_nLoadTry = 0;
; 153  : 		HINSTANCE hLib = NULL;
; 154  : 		hLib  = (HINSTANCE) ::LoadLibrary((LPCTSTR)m_szLibName);

  00026	ff 76 04	 push	 DWORD PTR [esi+4]
  00029	c7 46 68 00 00
	00 00		 mov	 DWORD PTR [esi+104], 0
  00030	ff 15 00 00 00
	00		 call	 DWORD PTR __imp__LoadLibraryA@4

; 155  : 		if( hLib == NULL)

  00036	85 c0		 test	 eax, eax
  00038	75 40		 jne	 SHORT $LN2@LoadLib

; 156  : 		{
; 157  : 			CString szMsg;

  0003a	8d 4d f0	 lea	 ecx, DWORD PTR _szMsg$2[ebp]
  0003d	ff 15 00 00 00
	00		 call	 DWORD PTR __imp_??0?$CStringT@DV?$StrTraitMFC_DLL@DV?$ChTraitsCRT@D@ATL@@@@@ATL@@QAE@XZ

; 158  : 			szMsg.Format("[drfn]DLL(%s)을 Load할 수 없습니다.\n", m_szLibName);

  00043	ff 76 04	 push	 DWORD PTR [esi+4]
  00046	8d 45 f0	 lea	 eax, DWORD PTR _szMsg$2[ebp]
  00049	c7 45 fc 00 00
	00 00		 mov	 DWORD PTR __$EHRec$[ebp+8], 0
  00050	68 00 00 00 00	 push	 OFFSET ??_C@_0CF@IGNKKJMG@?$FLdrfn?$FNDLL?$CI?$CFs?$CJ?$MA?$LL?5Load?G?R?5?$LM?v?5?$LO?x?$LN?$MA?$LE@
  00055	50		 push	 eax
  00056	ff 15 00 00 00
	00		 call	 DWORD PTR __imp_?Format@?$CStringT@DV?$StrTraitMFC_DLL@DV?$ChTraitsCRT@D@ATL@@@@@ATL@@QAAXPBDZZ
  0005c	83 c4 0c	 add	 esp, 12			; 0000000cH

; 159  : 			//OutputDebugString(szMsg);
; 160  : 			// AfxMessageBox(szMsg);
; 161  : 
; 162  : 			//CString szCLibName;
; 163  : 			//szCLibName.Format("C:\\DRfn\\%s", g_DRDebugerLoader_DLL);
; 164  : 			//hLib  = (HINSTANCE) ::LoadLibrary((LPCTSTR)szCLibName);
; 165  : 
; 166  : 			if( hLib == NULL)
; 167  : 				return NULL;

  0005f	8d 4d f0	 lea	 ecx, DWORD PTR _szMsg$2[ebp]
  00062	ff 15 00 00 00
	00		 call	 DWORD PTR __imp_??1?$CStringT@DV?$StrTraitMFC_DLL@DV?$ChTraitsCRT@D@ATL@@@@@ATL@@QAE@XZ
  00068	33 c0		 xor	 eax, eax

; 172  : 
; 173  : 		return hLib;
; 174  : 	}

  0006a	8b 4d f4	 mov	 ecx, DWORD PTR __$EHRec$[ebp]
  0006d	64 89 0d 00 00
	00 00		 mov	 DWORD PTR fs:0, ecx
  00074	59		 pop	 ecx
  00075	5e		 pop	 esi
  00076	8b e5		 mov	 esp, ebp
  00078	5d		 pop	 ebp
  00079	c3		 ret	 0
$LN2@LoadLib:

; 168  : 		}
; 169  : 
; 170  : 		m_hLib = hLib;

  0007a	89 06		 mov	 DWORD PTR [esi], eax

; 171  : 		m_nLoadTry = g_DRDebugerLoader_TryCount;

  0007c	c7 46 68 0a 00
	00 00		 mov	 DWORD PTR [esi+104], 10	; 0000000aH

; 172  : 
; 173  : 		return hLib;
; 174  : 	}

  00083	8b 4d f4	 mov	 ecx, DWORD PTR __$EHRec$[ebp]
  00086	64 89 0d 00 00
	00 00		 mov	 DWORD PTR fs:0, ecx
  0008d	59		 pop	 ecx
  0008e	5e		 pop	 esi
  0008f	8b e5		 mov	 esp, ebp
  00091	5d		 pop	 ebp
  00092	c3		 ret	 0
_TEXT	ENDS
;	COMDAT text$x
text$x	SEGMENT
__unwindfunclet$?LoadLib@CDRDebugerLoader@@QAEPAUHINSTANCE__@@XZ$0:
  00000	8d 4d f0	 lea	 ecx, DWORD PTR _szMsg$2[ebp]
  00003	ff 25 00 00 00
	00		 jmp	 DWORD PTR __imp_??1?$CStringT@DV?$StrTraitMFC_DLL@DV?$ChTraitsCRT@D@ATL@@@@@ATL@@QAE@XZ
  00009	cc		 int	 3
  0000a	cc		 int	 3
  0000b	cc		 int	 3
  0000c	cc		 int	 3
  0000d	cc		 int	 3
__ehhandler$?LoadLib@CDRDebugerLoader@@QAEPAUHINSTANCE__@@XZ:
  0000e	90		 npad	 1
  0000f	90		 npad	 1
  00010	8b 54 24 08	 mov	 edx, DWORD PTR [esp+8]
  00014	8d 42 0c	 lea	 eax, DWORD PTR [edx+12]
  00017	8b 4a f4	 mov	 ecx, DWORD PTR [edx-12]
  0001a	33 c8		 xor	 ecx, eax
  0001c	e8 00 00 00 00	 call	 @__security_check_cookie@4
  00021	b8 00 00 00 00	 mov	 eax, OFFSET __ehfuncinfo$?LoadLib@CDRDebugerLoader@@QAEPAUHINSTANCE__@@XZ
  00026	e9 00 00 00 00	 jmp	 ___CxxFrameHandler3
text$x	ENDS
?LoadLib@CDRDebugerLoader@@QAEPAUHINSTANCE__@@XZ ENDP	; CDRDebugerLoader::LoadLib
; Function compile flags: /Ogtp
; File D:\git\src\IBK\IBK_DRFN\ProjSrc\SrcDrfn\inc\IAUGwanMng.h
;	COMDAT ??__ERMSG_GWANSIMREGISTER@@YAXXZ
text$di	SEGMENT
??__ERMSG_GWANSIMREGISTER@@YAXXZ PROC			; `dynamic initializer for 'RMSG_GWANSIMREGISTER'', COMDAT

; 173  : const UINT RMSG_GWANSIMREGISTER		=   ::RegisterWindowMessage("RMSG_GWANSIMREGISTER");

  00000	68 00 00 00 00	 push	 OFFSET ??_C@_0BF@MNPNIDPI@RMSG_GWANSIMREGISTER@
  00005	ff 15 00 00 00
	00		 call	 DWORD PTR __imp__RegisterWindowMessageA@4
  0000b	a3 00 00 00 00	 mov	 DWORD PTR ?RMSG_GWANSIMREGISTER@@3IB, eax
  00010	c3		 ret	 0
??__ERMSG_GWANSIMREGISTER@@YAXXZ ENDP			; `dynamic initializer for 'RMSG_GWANSIMREGISTER''
text$di	ENDS
; Function compile flags: /Ogtp
; File D:\git\src\IBK\IBK_DRFN\ProjSrc\SrcDrfn\inc\Define_Gwansim.h
;	COMDAT ??__ERMSG_INTREQUEST@@YAXXZ
text$di	SEGMENT
??__ERMSG_INTREQUEST@@YAXXZ PROC			; `dynamic initializer for 'RMSG_INTREQUEST'', COMDAT

; 10   : const UINT RMSG_INTREQUEST = ::RegisterWindowMessage(_T("RMSG_INTREQUEST") );

  00000	68 00 00 00 00	 push	 OFFSET ??_C@_0BA@JHANHJCN@RMSG_INTREQUEST@
  00005	ff 15 00 00 00
	00		 call	 DWORD PTR __imp__RegisterWindowMessageA@4
  0000b	a3 00 00 00 00	 mov	 DWORD PTR ?RMSG_INTREQUEST@@3IB, eax
  00010	c3		 ret	 0
??__ERMSG_INTREQUEST@@YAXXZ ENDP			; `dynamic initializer for 'RMSG_INTREQUEST''
text$di	ENDS
; Function compile flags: /Ogtp
; File D:\git\src\IBK\IBK_DRFN\ProjSrc\SrcDrfn\inc\Define_Gwansim.h
;	COMDAT ??__ERMSG_CONCERNHWND@@YAXXZ
text$di	SEGMENT
??__ERMSG_CONCERNHWND@@YAXXZ PROC			; `dynamic initializer for 'RMSG_CONCERNHWND'', COMDAT

; 9    : const UINT RMSG_CONCERNHWND = ::RegisterWindowMessage(_T("RMSG_CONCERNHWND") );

  00000	68 00 00 00 00	 push	 OFFSET ??_C@_0BB@EPGJDGDK@RMSG_CONCERNHWND@
  00005	ff 15 00 00 00
	00		 call	 DWORD PTR __imp__RegisterWindowMessageA@4
  0000b	a3 00 00 00 00	 mov	 DWORD PTR ?RMSG_CONCERNHWND@@3IB, eax
  00010	c3		 ret	 0
??__ERMSG_CONCERNHWND@@YAXXZ ENDP			; `dynamic initializer for 'RMSG_CONCERNHWND''
text$di	ENDS
; Function compile flags: /Ogtp
; File D:\git\src\IBK\IBK_DRFN\ProjSrc\SrcDrfn\Inc\IBaseDefine.h
;	COMDAT ??__ERMSG_SETPCTRDATA@@YAXXZ
text$di	SEGMENT
??__ERMSG_SETPCTRDATA@@YAXXZ PROC			; `dynamic initializer for 'RMSG_SETPCTRDATA'', COMDAT

; 172  : const UINT RMSG_SETPCTRDATA = ::RegisterWindowMessage("RMSG_SETPCTRDATA");

  00000	68 00 00 00 00	 push	 OFFSET ??_C@_0BB@JPACFCL@RMSG_SETPCTRDATA@
  00005	ff 15 00 00 00
	00		 call	 DWORD PTR __imp__RegisterWindowMessageA@4
  0000b	a3 00 00 00 00	 mov	 DWORD PTR ?RMSG_SETPCTRDATA@@3IB, eax
  00010	c3		 ret	 0
??__ERMSG_SETPCTRDATA@@YAXXZ ENDP			; `dynamic initializer for 'RMSG_SETPCTRDATA''
text$di	ENDS
; Function compile flags: /Ogtp
; File D:\git\src\IBK\IBK_DRFN\ProjSrc\SrcDrfn\Inc\IBaseDefine.h
;	COMDAT ??__ERMSG_GETPCTRDATA@@YAXXZ
text$di	SEGMENT
??__ERMSG_GETPCTRDATA@@YAXXZ PROC			; `dynamic initializer for 'RMSG_GETPCTRDATA'', COMDAT

; 171  : const UINT RMSG_GETPCTRDATA = ::RegisterWindowMessage("RMSG_GETPCTRDATA");

  00000	68 00 00 00 00	 push	 OFFSET ??_C@_0BB@GOOPDKI@RMSG_GETPCTRDATA@
  00005	ff 15 00 00 00
	00		 call	 DWORD PTR __imp__RegisterWindowMessageA@4
  0000b	a3 00 00 00 00	 mov	 DWORD PTR ?RMSG_GETPCTRDATA@@3IB, eax
  00010	c3		 ret	 0
??__ERMSG_GETPCTRDATA@@YAXXZ ENDP			; `dynamic initializer for 'RMSG_GETPCTRDATA''
text$di	ENDS
; Function compile flags: /Ogtp
; File D:\git\src\IBK\IBK_DRFN\ProjSrc\SrcDrfn\Inc\IBaseDefine.h
;	COMDAT ??__ERMSG_INTERFACE@@YAXXZ
text$di	SEGMENT
??__ERMSG_INTERFACE@@YAXXZ PROC				; `dynamic initializer for 'RMSG_INTERFACE'', COMDAT

; 170  : const UINT RMSG_INTERFACE = ::RegisterWindowMessage("RMSG_INTERFACE");

  00000	68 00 00 00 00	 push	 OFFSET ??_C@_0P@BKKCOCLK@RMSG_INTERFACE@
  00005	ff 15 00 00 00
	00		 call	 DWORD PTR __imp__RegisterWindowMessageA@4
  0000b	a3 00 00 00 00	 mov	 DWORD PTR ?RMSG_INTERFACE@@3IB, eax
  00010	c3		 ret	 0
??__ERMSG_INTERFACE@@YAXXZ ENDP				; `dynamic initializer for 'RMSG_INTERFACE''
text$di	ENDS
; Function compile flags: /Ogtp
; File C:\Program Files (x86)\Windows Kits\10\Include\10.0.22000.0\ucrt\corecrt_stdio_config.h
;	COMDAT ___local_stdio_printf_options
_TEXT	SEGMENT
___local_stdio_printf_options PROC			; COMDAT

; 91   :         static unsigned __int64 _OptionsStorage;
; 92   :         return &_OptionsStorage;

  00000	b8 00 00 00 00	 mov	 eax, OFFSET ?_OptionsStorage@?1??__local_stdio_printf_options@@9@4_KA ; `__local_stdio_printf_options'::`2'::_OptionsStorage

; 93   :     }

  00005	c3		 ret	 0
___local_stdio_printf_options ENDP
_TEXT	ENDS
; Function compile flags: /Ogtp
; File D:\git\src\IBK\IBK_DRFN\ProjSrc\SrcDrfn\DrCommon\PcTrMng\_DebugManager.cpp
;	COMDAT ?__empty_global_delete@@YAXPAXI@Z
_TEXT	SEGMENT
___formal$ = 8						; size = 4
___formal$ = 12						; size = 4
?__empty_global_delete@@YAXPAXI@Z PROC			; __empty_global_delete, COMDAT

  00000	c2 00 00	 ret	 0
?__empty_global_delete@@YAXPAXI@Z ENDP			; __empty_global_delete
_TEXT	ENDS
; Function compile flags: /Ogtp
; File D:\git\src\IBK\IBK_DRFN\ProjSrc\SrcDrfn\DrCommon\PcTrMng\_DebugManager.cpp
;	COMDAT ?__empty_global_delete@@YAXPAX@Z
_TEXT	SEGMENT
___formal$ = 8						; size = 4
?__empty_global_delete@@YAXPAX@Z PROC			; __empty_global_delete, COMDAT

  00000	c2 00 00	 ret	 0
?__empty_global_delete@@YAXPAX@Z ENDP			; __empty_global_delete
_TEXT	ENDS
END
