; Listing generated by Microsoft (R) Optimizing Compiler Version 19.29.30148.0 

	TITLE	D:\git\src\IBK\IBK_DRFN\#DRfn-CS\_Obj\PcTrMng\_DrdsManager.obj
	.686P
	.XMM
	include listing.inc
	.model	flat

INCLUDELIB MSVCRT
INCLUDELIB OLDNAMES

PUBLIC	??_C@_0P@BKKCOCLK@RMSG_INTERFACE@		; `string'
PUBLIC	??_C@_0BB@GOOPDKI@RMSG_GETPCTRDATA@		; `string'
PUBLIC	??_C@_0BB@JPACFCL@RMSG_SETPCTRDATA@		; `string'
PUBLIC	??_C@_0BB@EPGJDGDK@RMSG_CONCERNHWND@		; `string'
PUBLIC	??_C@_0BA@JHANHJCN@RMSG_INTREQUEST@		; `string'
PUBLIC	??_C@_0BF@MNPNIDPI@RMSG_GWANSIMREGISTER@	; `string'
;	COMDAT ??_C@_0BF@MNPNIDPI@RMSG_GWANSIMREGISTER@
CONST	SEGMENT
??_C@_0BF@MNPNIDPI@RMSG_GWANSIMREGISTER@ DB 'RMSG_GWANSIMREGISTER', 00H ; `string'
CONST	ENDS
;	COMDAT ??_C@_0BA@JHANHJCN@RMSG_INTREQUEST@
CONST	SEGMENT
??_C@_0BA@JHANHJCN@RMSG_INTREQUEST@ DB 'RMSG_INTREQUEST', 00H ; `string'
CONST	ENDS
;	COMDAT ??_C@_0BB@EPGJDGDK@RMSG_CONCERNHWND@
CONST	SEGMENT
??_C@_0BB@EPGJDGDK@RMSG_CONCERNHWND@ DB 'RMSG_CONCERNHWND', 00H ; `string'
CONST	ENDS
;	COMDAT ??_C@_0BB@JPACFCL@RMSG_SETPCTRDATA@
CONST	SEGMENT
??_C@_0BB@JPACFCL@RMSG_SETPCTRDATA@ DB 'RMSG_SETPCTRDATA', 00H ; `string'
CONST	ENDS
;	COMDAT ??_C@_0BB@GOOPDKI@RMSG_GETPCTRDATA@
CONST	SEGMENT
??_C@_0BB@GOOPDKI@RMSG_GETPCTRDATA@ DB 'RMSG_GETPCTRDATA', 00H ; `string'
CONST	ENDS
;	COMDAT ??_C@_0P@BKKCOCLK@RMSG_INTERFACE@
CONST	SEGMENT
??_C@_0P@BKKCOCLK@RMSG_INTERFACE@ DB 'RMSG_INTERFACE', 00H ; `string'
CONST	ENDS
PUBLIC	?__empty_global_delete@@YAXPAX@Z		; __empty_global_delete
PUBLIC	?__empty_global_delete@@YAXPAXI@Z		; __empty_global_delete
PUBLIC	___local_stdio_printf_options
PUBLIC	_sprintf
PUBLIC	??1CObject@@UAE@XZ				; CObject::~CObject
PUBLIC	?Serialize@CObject@@UAEXAAVCArchive@@@Z		; CObject::Serialize
PUBLIC	?AssertValid@CObject@@UBEXXZ			; CObject::AssertValid
PUBLIC	?Dump@CObject@@UBEXAAVCDumpContext@@@Z		; CObject::Dump
PUBLIC	??0CAUDrdsManager@@QAE@XZ			; CAUDrdsManager::CAUDrdsManager
PUBLIC	??1CAUDrdsManager@@QAE@XZ			; CAUDrdsManager::~CAUDrdsManager
PUBLIC	??0?$CList@PAUIDrdsLib@@PAU1@@@QAE@H@Z		; CList<IDrdsLib *,IDrdsLib *>::CList<IDrdsLib *,IDrdsLib *>
PUBLIC	?AddTail@?$CList@PAUIDrdsLib@@PAU1@@@QAEPAU__POSITION@@PAUIDrdsLib@@@Z ; CList<IDrdsLib *,IDrdsLib *>::AddTail
PUBLIC	?RemoveAll@?$CList@PAUIDrdsLib@@PAU1@@@QAEXXZ	; CList<IDrdsLib *,IDrdsLib *>::RemoveAll
PUBLIC	?NewNode@?$CList@PAUIDrdsLib@@PAU1@@@IAEPAUCNode@1@PAU21@0@Z ; CList<IDrdsLib *,IDrdsLib *>::NewNode
PUBLIC	??1?$CList@PAUIDrdsLib@@PAU1@@@UAE@XZ		; CList<IDrdsLib *,IDrdsLib *>::~CList<IDrdsLib *,IDrdsLib *>
PUBLIC	?Serialize@?$CList@PAUIDrdsLib@@PAU1@@@UAEXAAVCArchive@@@Z ; CList<IDrdsLib *,IDrdsLib *>::Serialize
PUBLIC	??_G?$CList@PAUIDrdsLib@@PAU1@@@UAEPAXI@Z	; CList<IDrdsLib *,IDrdsLib *>::`scalar deleting destructor'
PUBLIC	?AdviseDrdsLib@CAUDrdsManager@@UAGPAUIDrdsLib@@XZ ; CAUDrdsManager::AdviseDrdsLib
PUBLIC	?UnadviseDrdsLib@CAUDrdsManager@@UAGXPAUIDrdsLib@@@Z ; CAUDrdsManager::UnadviseDrdsLib
PUBLIC	??0CDrdsLib@@QAE@XZ				; CDrdsLib::CDrdsLib
PUBLIC	??1CDrdsLib@@QAE@XZ				; CDrdsLib::~CDrdsLib
PUBLIC	?DrdsInit@CDrdsLib@@UAGPAXPAUHWND__@@@Z		; CDrdsLib::DrdsInit
PUBLIC	?DrdsTerm@CDrdsLib@@UAGHXZ			; CDrdsLib::DrdsTerm
PUBLIC	?DrdsConnect@CDrdsLib@@UAGHPAD@Z		; CDrdsLib::DrdsConnect
PUBLIC	?DrdsClose@CDrdsLib@@UAGHPAD@Z			; CDrdsLib::DrdsClose
PUBLIC	?DrdsAdvise@CDrdsLib@@UAGHIPAD00@Z		; CDrdsLib::DrdsAdvise
PUBLIC	?DrdsUnadvise@CDrdsLib@@UAGHIPAD00@Z		; CDrdsLib::DrdsUnadvise
PUBLIC	?DrdsSetSocketHandle@CDrdsLib@@UAGHPAUHWND__@@@Z ; CDrdsLib::DrdsSetSocketHandle
PUBLIC	?DrdsSendCode@CDrdsLib@@UAGXXZ			; CDrdsLib::DrdsSendCode
PUBLIC	?AdviseRealCodeData@CDrdsLib@@UAGHHHPAD0@Z	; CDrdsLib::AdviseRealCodeData
PUBLIC	?SetNewRealData@CDrdsLib@@UAGHPADHHH@Z		; CDrdsLib::SetNewRealData
PUBLIC	?DrdsAdviseEx@CDrdsLib@@UAGHHPAUHWND__@@IPAD111@Z ; CDrdsLib::DrdsAdviseEx
PUBLIC	?DrdsUnadviseEx@CDrdsLib@@UAGHHPAUHWND__@@IPAD111@Z ; CDrdsLib::DrdsUnadviseEx
PUBLIC	?DrdsRequest@CDrdsLib@@UAGHPAXPAUHWND__@@IPAD22@Z ; CDrdsLib::DrdsRequest
PUBLIC	?DrdsPropertySet@CDrdsLib@@UAGXXZ		; CDrdsLib::DrdsPropertySet
PUBLIC	?DrdsTraceOn@CDrdsLib@@UAGXXZ			; CDrdsLib::DrdsTraceOn
PUBLIC	?DrdsTraceOff@CDrdsLib@@UAGXXZ			; CDrdsLib::DrdsTraceOff
PUBLIC	?DrdsSetFlag@CDrdsLib@@UAGX_N@Z			; CDrdsLib::DrdsSetFlag
PUBLIC	?UDPCreate@CDrdsLib@@UAGXXZ			; CDrdsLib::UDPCreate
PUBLIC	?UDPCreate2@CDrdsLib@@UAGXPAD0@Z		; CDrdsLib::UDPCreate2
PUBLIC	?UDPDestroy@CDrdsLib@@UAGXXZ			; CDrdsLib::UDPDestroy
PUBLIC	?UdpCreate3@CDrdsLib@@UAGXPAD@Z			; CDrdsLib::UdpCreate3
PUBLIC	?SetUserDefData@CDrdsLib@@UAGHPAD0@Z		; CDrdsLib::SetUserDefData
PUBLIC	?Drds_OpenSignalMng@CDrdsLib@@UAGHPADJ@Z	; CDrdsLib::Drds_OpenSignalMng
PUBLIC	?Drds_SignalMng_SetNewRealData@CDrdsLib@@UAGHPADHHH@Z ; CDrdsLib::Drds_SignalMng_SetNewRealData
PUBLIC	?Drds_GetInterface@CDrdsLib@@UAGJI@Z		; CDrdsLib::Drds_GetInterface
PUBLIC	?Drds_SetInterface@CDrdsLib@@UAGHIJ@Z		; CDrdsLib::Drds_SetInterface
PUBLIC	?ConvertToRealStruct@CDrdsLib@@UAGHIJPADH@Z	; CDrdsLib::ConvertToRealStruct
PUBLIC	?GetRealStructData@CDrdsLib@@UAGHIJAAPADAAH@Z	; CDrdsLib::GetRealStructData
PUBLIC	??$SerializeElements@PAUIDrdsLib@@@@YGXAAVCArchive@@PAPAUIDrdsLib@@H@Z ; SerializeElements<IDrdsLib *>
PUBLIC	?_OptionsStorage@?1??__local_stdio_printf_options@@9@4_KA ; `__local_stdio_printf_options'::`2'::_OptionsStorage
PUBLIC	??_R0?AVCObject@@@8				; CObject `RTTI Type Descriptor'
PUBLIC	??_R3CObject@@8					; CObject::`RTTI Class Hierarchy Descriptor'
PUBLIC	??_R2CObject@@8					; CObject::`RTTI Base Class Array'
PUBLIC	??_R1A@?0A@EA@CObject@@8			; CObject::`RTTI Base Class Descriptor at (0,-1,0,64)'
PUBLIC	??_7?$CList@PAUIDrdsLib@@PAU1@@@6B@		; CList<IDrdsLib *,IDrdsLib *>::`vftable'
PUBLIC	??_7CAUDrdsManager@@6B@				; CAUDrdsManager::`vftable'
PUBLIC	??_7CDrdsLib@@6B@				; CDrdsLib::`vftable'
PUBLIC	??_C@_04JIMNDDED@?$CF08X@			; `string'
PUBLIC	??_R0?AUIDrdsLib@@@8				; IDrdsLib `RTTI Type Descriptor'
PUBLIC	??_R3IDrdsLib@@8				; IDrdsLib::`RTTI Class Hierarchy Descriptor'
PUBLIC	??_R2IDrdsLib@@8				; IDrdsLib::`RTTI Base Class Array'
PUBLIC	??_R1A@?0A@EA@IDrdsLib@@8			; IDrdsLib::`RTTI Base Class Descriptor at (0,-1,0,64)'
PUBLIC	??_R0?AUIAUDrdsManager@@@8			; IAUDrdsManager `RTTI Type Descriptor'
PUBLIC	??_R3IAUDrdsManager@@8				; IAUDrdsManager::`RTTI Class Hierarchy Descriptor'
PUBLIC	??_R2IAUDrdsManager@@8				; IAUDrdsManager::`RTTI Base Class Array'
PUBLIC	??_R1A@?0A@EA@IAUDrdsManager@@8			; IAUDrdsManager::`RTTI Base Class Descriptor at (0,-1,0,64)'
PUBLIC	??_R4?$CList@PAUIDrdsLib@@PAU1@@@6B@		; CList<IDrdsLib *,IDrdsLib *>::`RTTI Complete Object Locator'
PUBLIC	??_R0?AV?$CList@PAUIDrdsLib@@PAU1@@@@8		; CList<IDrdsLib *,IDrdsLib *> `RTTI Type Descriptor'
PUBLIC	??_R3?$CList@PAUIDrdsLib@@PAU1@@@8		; CList<IDrdsLib *,IDrdsLib *>::`RTTI Class Hierarchy Descriptor'
PUBLIC	??_R2?$CList@PAUIDrdsLib@@PAU1@@@8		; CList<IDrdsLib *,IDrdsLib *>::`RTTI Base Class Array'
PUBLIC	??_R1A@?0A@EA@?$CList@PAUIDrdsLib@@PAU1@@@8	; CList<IDrdsLib *,IDrdsLib *>::`RTTI Base Class Descriptor at (0,-1,0,64)'
PUBLIC	??_R4CAUDrdsManager@@6B@			; CAUDrdsManager::`RTTI Complete Object Locator'
PUBLIC	??_R0?AVCAUDrdsManager@@@8			; CAUDrdsManager `RTTI Type Descriptor'
PUBLIC	??_R3CAUDrdsManager@@8				; CAUDrdsManager::`RTTI Class Hierarchy Descriptor'
PUBLIC	??_R2CAUDrdsManager@@8				; CAUDrdsManager::`RTTI Base Class Array'
PUBLIC	??_R1A@?0A@EA@CAUDrdsManager@@8			; CAUDrdsManager::`RTTI Base Class Descriptor at (0,-1,0,64)'
PUBLIC	??_R4CDrdsLib@@6B@				; CDrdsLib::`RTTI Complete Object Locator'
PUBLIC	??_R0?AVCDrdsLib@@@8				; CDrdsLib `RTTI Type Descriptor'
PUBLIC	??_R3CDrdsLib@@8				; CDrdsLib::`RTTI Class Hierarchy Descriptor'
PUBLIC	??_R2CDrdsLib@@8				; CDrdsLib::`RTTI Base Class Array'
PUBLIC	??_R1A@?0A@EA@CDrdsLib@@8			; CDrdsLib::`RTTI Base Class Descriptor at (0,-1,0,64)'
EXTRN	??2@YAPAXI@Z:PROC				; operator new
EXTRN	??3@YAXPAX@Z:PROC				; operator delete
EXTRN	??3@YAXPAXI@Z:PROC				; operator delete
EXTRN	?__global_delete@@YAXPAXI@Z:PROC		; __global_delete
EXTRN	??_U@YAPAXI@Z:PROC				; operator new[]
EXTRN	??_V@YAXPAX@Z:PROC				; operator delete[]
EXTRN	___std_terminate:PROC
EXTRN	__imp__RegisterWindowMessageA@4:PROC
EXTRN	__imp____stdio_common_vsprintf:PROC
EXTRN	?AfxThrowInvalidArgException@@YGXXZ:PROC	; AfxThrowInvalidArgException
EXTRN	?AfxThrowArchiveException@@YGXHPBD@Z:PROC	; AfxThrowArchiveException
EXTRN	?GetRuntimeClass@CObject@@UBEPAUCRuntimeClass@@XZ:PROC ; CObject::GetRuntimeClass
EXTRN	?Read@CArchive@@QAEIPAXI@Z:PROC			; CArchive::Read
EXTRN	?Write@CArchive@@QAEXPBXI@Z:PROC		; CArchive::Write
EXTRN	?ReadCount@CArchive@@QAEKXZ:PROC		; CArchive::ReadCount
EXTRN	?WriteCount@CArchive@@QAEXK@Z:PROC		; CArchive::WriteCount
EXTRN	?Create@CPlex@@SGPAU1@AAPAU1@II@Z:PROC		; CPlex::Create
EXTRN	?FreeDataChain@CPlex@@QAEXXZ:PROC		; CPlex::FreeDataChain
EXTRN	??_E?$CList@PAUIDrdsLib@@PAU1@@@UAEPAXI@Z:PROC	; CList<IDrdsLib *,IDrdsLib *>::`vector deleting destructor'
EXTRN	?TraceEx@CDebugManager@@UAGXEEPBDKPAE@Z:PROC	; CDebugManager::TraceEx
EXTRN	@__security_check_cookie@4:PROC
EXTRN	___CxxFrameHandler3:PROC
EXTRN	_memcpy:PROC
EXTRN	_memset:PROC
EXTRN	??_7type_info@@6B@:QWORD			; type_info::`vftable'
EXTRN	?theApp@@3VCPcTrMngApp@@A:BYTE			; theApp
EXTRN	___security_cookie:DWORD
;	COMDAT ?_OptionsStorage@?1??__local_stdio_printf_options@@9@4_KA
_BSS	SEGMENT
?_OptionsStorage@?1??__local_stdio_printf_options@@9@4_KA DQ 01H DUP (?) ; `__local_stdio_printf_options'::`2'::_OptionsStorage
_BSS	ENDS
_BSS	SEGMENT
?RMSG_INTERFACE@@3IB DD 01H DUP (?)			; RMSG_INTERFACE
?RMSG_GETPCTRDATA@@3IB DD 01H DUP (?)			; RMSG_GETPCTRDATA
?RMSG_SETPCTRDATA@@3IB DD 01H DUP (?)			; RMSG_SETPCTRDATA
?RMSG_CONCERNHWND@@3IB DD 01H DUP (?)			; RMSG_CONCERNHWND
?RMSG_INTREQUEST@@3IB DD 01H DUP (?)			; RMSG_INTREQUEST
?RMSG_GWANSIMREGISTER@@3IB DD 01H DUP (?)		; RMSG_GWANSIMREGISTER
_BSS	ENDS
CRT$XCU	SEGMENT
?RMSG_INTERFACE$initializer$@@3P6AXXZA DD FLAT:??__ERMSG_INTERFACE@@YAXXZ ; RMSG_INTERFACE$initializer$
CRT$XCU	ENDS
;	COMDAT ??_R1A@?0A@EA@CDrdsLib@@8
rdata$r	SEGMENT
??_R1A@?0A@EA@CDrdsLib@@8 DD FLAT:??_R0?AVCDrdsLib@@@8	; CDrdsLib::`RTTI Base Class Descriptor at (0,-1,0,64)'
	DD	01H
	DD	00H
	DD	0ffffffffH
	DD	00H
	DD	040H
	DD	FLAT:??_R3CDrdsLib@@8
rdata$r	ENDS
;	COMDAT ??_R2CDrdsLib@@8
rdata$r	SEGMENT
??_R2CDrdsLib@@8 DD FLAT:??_R1A@?0A@EA@CDrdsLib@@8	; CDrdsLib::`RTTI Base Class Array'
	DD	FLAT:??_R1A@?0A@EA@IDrdsLib@@8
rdata$r	ENDS
;	COMDAT ??_R3CDrdsLib@@8
rdata$r	SEGMENT
??_R3CDrdsLib@@8 DD 00H					; CDrdsLib::`RTTI Class Hierarchy Descriptor'
	DD	00H
	DD	02H
	DD	FLAT:??_R2CDrdsLib@@8
rdata$r	ENDS
;	COMDAT ??_R0?AVCDrdsLib@@@8
data$rs	SEGMENT
??_R0?AVCDrdsLib@@@8 DD FLAT:??_7type_info@@6B@		; CDrdsLib `RTTI Type Descriptor'
	DD	00H
	DB	'.?AVCDrdsLib@@', 00H
data$rs	ENDS
;	COMDAT ??_R4CDrdsLib@@6B@
rdata$r	SEGMENT
??_R4CDrdsLib@@6B@ DD 00H				; CDrdsLib::`RTTI Complete Object Locator'
	DD	00H
	DD	00H
	DD	FLAT:??_R0?AVCDrdsLib@@@8
	DD	FLAT:??_R3CDrdsLib@@8
rdata$r	ENDS
;	COMDAT ??_R1A@?0A@EA@CAUDrdsManager@@8
rdata$r	SEGMENT
??_R1A@?0A@EA@CAUDrdsManager@@8 DD FLAT:??_R0?AVCAUDrdsManager@@@8 ; CAUDrdsManager::`RTTI Base Class Descriptor at (0,-1,0,64)'
	DD	01H
	DD	00H
	DD	0ffffffffH
	DD	00H
	DD	040H
	DD	FLAT:??_R3CAUDrdsManager@@8
rdata$r	ENDS
;	COMDAT ??_R2CAUDrdsManager@@8
rdata$r	SEGMENT
??_R2CAUDrdsManager@@8 DD FLAT:??_R1A@?0A@EA@CAUDrdsManager@@8 ; CAUDrdsManager::`RTTI Base Class Array'
	DD	FLAT:??_R1A@?0A@EA@IAUDrdsManager@@8
rdata$r	ENDS
;	COMDAT ??_R3CAUDrdsManager@@8
rdata$r	SEGMENT
??_R3CAUDrdsManager@@8 DD 00H				; CAUDrdsManager::`RTTI Class Hierarchy Descriptor'
	DD	00H
	DD	02H
	DD	FLAT:??_R2CAUDrdsManager@@8
rdata$r	ENDS
;	COMDAT ??_R0?AVCAUDrdsManager@@@8
data$rs	SEGMENT
??_R0?AVCAUDrdsManager@@@8 DD FLAT:??_7type_info@@6B@	; CAUDrdsManager `RTTI Type Descriptor'
	DD	00H
	DB	'.?AVCAUDrdsManager@@', 00H
data$rs	ENDS
;	COMDAT ??_R4CAUDrdsManager@@6B@
rdata$r	SEGMENT
??_R4CAUDrdsManager@@6B@ DD 00H				; CAUDrdsManager::`RTTI Complete Object Locator'
	DD	00H
	DD	00H
	DD	FLAT:??_R0?AVCAUDrdsManager@@@8
	DD	FLAT:??_R3CAUDrdsManager@@8
rdata$r	ENDS
;	COMDAT ??_R1A@?0A@EA@?$CList@PAUIDrdsLib@@PAU1@@@8
rdata$r	SEGMENT
??_R1A@?0A@EA@?$CList@PAUIDrdsLib@@PAU1@@@8 DD FLAT:??_R0?AV?$CList@PAUIDrdsLib@@PAU1@@@@8 ; CList<IDrdsLib *,IDrdsLib *>::`RTTI Base Class Descriptor at (0,-1,0,64)'
	DD	01H
	DD	00H
	DD	0ffffffffH
	DD	00H
	DD	040H
	DD	FLAT:??_R3?$CList@PAUIDrdsLib@@PAU1@@@8
rdata$r	ENDS
;	COMDAT ??_R2?$CList@PAUIDrdsLib@@PAU1@@@8
rdata$r	SEGMENT
??_R2?$CList@PAUIDrdsLib@@PAU1@@@8 DD FLAT:??_R1A@?0A@EA@?$CList@PAUIDrdsLib@@PAU1@@@8 ; CList<IDrdsLib *,IDrdsLib *>::`RTTI Base Class Array'
	DD	FLAT:??_R1A@?0A@EA@CObject@@8
rdata$r	ENDS
;	COMDAT ??_R3?$CList@PAUIDrdsLib@@PAU1@@@8
rdata$r	SEGMENT
??_R3?$CList@PAUIDrdsLib@@PAU1@@@8 DD 00H		; CList<IDrdsLib *,IDrdsLib *>::`RTTI Class Hierarchy Descriptor'
	DD	00H
	DD	02H
	DD	FLAT:??_R2?$CList@PAUIDrdsLib@@PAU1@@@8
rdata$r	ENDS
;	COMDAT ??_R0?AV?$CList@PAUIDrdsLib@@PAU1@@@@8
data$rs	SEGMENT
??_R0?AV?$CList@PAUIDrdsLib@@PAU1@@@@8 DD FLAT:??_7type_info@@6B@ ; CList<IDrdsLib *,IDrdsLib *> `RTTI Type Descriptor'
	DD	00H
	DB	'.?AV?$CList@PAUIDrdsLib@@PAU1@@@', 00H
data$rs	ENDS
;	COMDAT ??_R4?$CList@PAUIDrdsLib@@PAU1@@@6B@
rdata$r	SEGMENT
??_R4?$CList@PAUIDrdsLib@@PAU1@@@6B@ DD 00H		; CList<IDrdsLib *,IDrdsLib *>::`RTTI Complete Object Locator'
	DD	00H
	DD	00H
	DD	FLAT:??_R0?AV?$CList@PAUIDrdsLib@@PAU1@@@@8
	DD	FLAT:??_R3?$CList@PAUIDrdsLib@@PAU1@@@8
rdata$r	ENDS
;	COMDAT ??_R1A@?0A@EA@IAUDrdsManager@@8
rdata$r	SEGMENT
??_R1A@?0A@EA@IAUDrdsManager@@8 DD FLAT:??_R0?AUIAUDrdsManager@@@8 ; IAUDrdsManager::`RTTI Base Class Descriptor at (0,-1,0,64)'
	DD	00H
	DD	00H
	DD	0ffffffffH
	DD	00H
	DD	040H
	DD	FLAT:??_R3IAUDrdsManager@@8
rdata$r	ENDS
;	COMDAT ??_R2IAUDrdsManager@@8
rdata$r	SEGMENT
??_R2IAUDrdsManager@@8 DD FLAT:??_R1A@?0A@EA@IAUDrdsManager@@8 ; IAUDrdsManager::`RTTI Base Class Array'
rdata$r	ENDS
;	COMDAT ??_R3IAUDrdsManager@@8
rdata$r	SEGMENT
??_R3IAUDrdsManager@@8 DD 00H				; IAUDrdsManager::`RTTI Class Hierarchy Descriptor'
	DD	00H
	DD	01H
	DD	FLAT:??_R2IAUDrdsManager@@8
rdata$r	ENDS
;	COMDAT ??_R0?AUIAUDrdsManager@@@8
data$rs	SEGMENT
??_R0?AUIAUDrdsManager@@@8 DD FLAT:??_7type_info@@6B@	; IAUDrdsManager `RTTI Type Descriptor'
	DD	00H
	DB	'.?AUIAUDrdsManager@@', 00H
data$rs	ENDS
;	COMDAT ??_R1A@?0A@EA@IDrdsLib@@8
rdata$r	SEGMENT
??_R1A@?0A@EA@IDrdsLib@@8 DD FLAT:??_R0?AUIDrdsLib@@@8	; IDrdsLib::`RTTI Base Class Descriptor at (0,-1,0,64)'
	DD	00H
	DD	00H
	DD	0ffffffffH
	DD	00H
	DD	040H
	DD	FLAT:??_R3IDrdsLib@@8
rdata$r	ENDS
;	COMDAT ??_R2IDrdsLib@@8
rdata$r	SEGMENT
??_R2IDrdsLib@@8 DD FLAT:??_R1A@?0A@EA@IDrdsLib@@8	; IDrdsLib::`RTTI Base Class Array'
rdata$r	ENDS
;	COMDAT ??_R3IDrdsLib@@8
rdata$r	SEGMENT
??_R3IDrdsLib@@8 DD 00H					; IDrdsLib::`RTTI Class Hierarchy Descriptor'
	DD	00H
	DD	01H
	DD	FLAT:??_R2IDrdsLib@@8
rdata$r	ENDS
;	COMDAT ??_R0?AUIDrdsLib@@@8
data$rs	SEGMENT
??_R0?AUIDrdsLib@@@8 DD FLAT:??_7type_info@@6B@		; IDrdsLib `RTTI Type Descriptor'
	DD	00H
	DB	'.?AUIDrdsLib@@', 00H
data$rs	ENDS
;	COMDAT ??_C@_04JIMNDDED@?$CF08X@
CONST	SEGMENT
??_C@_04JIMNDDED@?$CF08X@ DB '%08X', 00H		; `string'
CONST	ENDS
;	COMDAT ??_7CDrdsLib@@6B@
CONST	SEGMENT
??_7CDrdsLib@@6B@ DD FLAT:??_R4CDrdsLib@@6B@		; CDrdsLib::`vftable'
	DD	FLAT:?DrdsInit@CDrdsLib@@UAGPAXPAUHWND__@@@Z
	DD	FLAT:?DrdsTerm@CDrdsLib@@UAGHXZ
	DD	FLAT:?DrdsConnect@CDrdsLib@@UAGHPAD@Z
	DD	FLAT:?DrdsClose@CDrdsLib@@UAGHPAD@Z
	DD	FLAT:?DrdsAdvise@CDrdsLib@@UAGHIPAD00@Z
	DD	FLAT:?DrdsUnadvise@CDrdsLib@@UAGHIPAD00@Z
	DD	FLAT:?DrdsSetSocketHandle@CDrdsLib@@UAGHPAUHWND__@@@Z
	DD	FLAT:?DrdsSendCode@CDrdsLib@@UAGXXZ
	DD	FLAT:?AdviseRealCodeData@CDrdsLib@@UAGHHHPAD0@Z
	DD	FLAT:?SetNewRealData@CDrdsLib@@UAGHPADHHH@Z
	DD	FLAT:?DrdsAdviseEx@CDrdsLib@@UAGHHPAUHWND__@@IPAD111@Z
	DD	FLAT:?DrdsUnadviseEx@CDrdsLib@@UAGHHPAUHWND__@@IPAD111@Z
	DD	FLAT:?DrdsRequest@CDrdsLib@@UAGHPAXPAUHWND__@@IPAD22@Z
	DD	FLAT:?DrdsPropertySet@CDrdsLib@@UAGXXZ
	DD	FLAT:?DrdsTraceOn@CDrdsLib@@UAGXXZ
	DD	FLAT:?DrdsTraceOff@CDrdsLib@@UAGXXZ
	DD	FLAT:?DrdsSetFlag@CDrdsLib@@UAGX_N@Z
	DD	FLAT:?UDPCreate@CDrdsLib@@UAGXXZ
	DD	FLAT:?UDPCreate2@CDrdsLib@@UAGXPAD0@Z
	DD	FLAT:?UDPDestroy@CDrdsLib@@UAGXXZ
	DD	FLAT:?UdpCreate3@CDrdsLib@@UAGXPAD@Z
	DD	FLAT:?SetUserDefData@CDrdsLib@@UAGHPAD0@Z
	DD	FLAT:?Drds_OpenSignalMng@CDrdsLib@@UAGHPADJ@Z
	DD	FLAT:?Drds_SignalMng_SetNewRealData@CDrdsLib@@UAGHPADHHH@Z
	DD	FLAT:?Drds_GetInterface@CDrdsLib@@UAGJI@Z
	DD	FLAT:?Drds_SetInterface@CDrdsLib@@UAGHIJ@Z
	DD	FLAT:?ConvertToRealStruct@CDrdsLib@@UAGHIJPADH@Z
	DD	FLAT:?GetRealStructData@CDrdsLib@@UAGHIJAAPADAAH@Z
CONST	ENDS
;	COMDAT ??_7CAUDrdsManager@@6B@
CONST	SEGMENT
??_7CAUDrdsManager@@6B@ DD FLAT:??_R4CAUDrdsManager@@6B@ ; CAUDrdsManager::`vftable'
	DD	FLAT:?AdviseDrdsLib@CAUDrdsManager@@UAGPAUIDrdsLib@@XZ
	DD	FLAT:?UnadviseDrdsLib@CAUDrdsManager@@UAGXPAUIDrdsLib@@@Z
CONST	ENDS
;	COMDAT ??_7?$CList@PAUIDrdsLib@@PAU1@@@6B@
CONST	SEGMENT
??_7?$CList@PAUIDrdsLib@@PAU1@@@6B@ DD FLAT:??_R4?$CList@PAUIDrdsLib@@PAU1@@@6B@ ; CList<IDrdsLib *,IDrdsLib *>::`vftable'
	DD	FLAT:?GetRuntimeClass@CObject@@UBEPAUCRuntimeClass@@XZ
	DD	FLAT:??_E?$CList@PAUIDrdsLib@@PAU1@@@UAEPAXI@Z
	DD	FLAT:?Serialize@?$CList@PAUIDrdsLib@@PAU1@@@UAEXAAVCArchive@@@Z
	DD	FLAT:?AssertValid@CObject@@UBEXXZ
	DD	FLAT:?Dump@CObject@@UBEXAAVCDumpContext@@@Z
CONST	ENDS
;	COMDAT ??_R1A@?0A@EA@CObject@@8
rdata$r	SEGMENT
??_R1A@?0A@EA@CObject@@8 DD FLAT:??_R0?AVCObject@@@8	; CObject::`RTTI Base Class Descriptor at (0,-1,0,64)'
	DD	00H
	DD	00H
	DD	0ffffffffH
	DD	00H
	DD	040H
	DD	FLAT:??_R3CObject@@8
rdata$r	ENDS
;	COMDAT ??_R2CObject@@8
rdata$r	SEGMENT
??_R2CObject@@8 DD FLAT:??_R1A@?0A@EA@CObject@@8	; CObject::`RTTI Base Class Array'
rdata$r	ENDS
;	COMDAT ??_R3CObject@@8
rdata$r	SEGMENT
??_R3CObject@@8 DD 00H					; CObject::`RTTI Class Hierarchy Descriptor'
	DD	00H
	DD	01H
	DD	FLAT:??_R2CObject@@8
rdata$r	ENDS
;	COMDAT ??_R0?AVCObject@@@8
data$rs	SEGMENT
??_R0?AVCObject@@@8 DD FLAT:??_7type_info@@6B@		; CObject `RTTI Type Descriptor'
	DD	00H
	DB	'.?AVCObject@@', 00H
data$rs	ENDS
;	COMDAT xdata$x
xdata$x	SEGMENT
__unwindtable$??_G?$CList@PAUIDrdsLib@@PAU1@@@UAEPAXI@Z DD 0ffffffffH
	DD	FLAT:___std_terminate
__ehfuncinfo$??_G?$CList@PAUIDrdsLib@@PAU1@@@UAEPAXI@Z DD 019930522H
	DD	01H
	DD	FLAT:__unwindtable$??_G?$CList@PAUIDrdsLib@@PAU1@@@UAEPAXI@Z
	DD	2 DUP(00H)
	DD	2 DUP(00H)
	DD	00H
	DD	05H
xdata$x	ENDS
;	COMDAT xdata$x
xdata$x	SEGMENT
__ehfuncinfo$??1?$CList@PAUIDrdsLib@@PAU1@@@UAE@XZ DD 019930522H
	DD	00H
	DD	00H
	DD	2 DUP(00H)
	DD	2 DUP(00H)
	DD	00H
	DD	05H
xdata$x	ENDS
;	COMDAT xdata$x
xdata$x	SEGMENT
__unwindtable$??1CAUDrdsManager@@QAE@XZ DD 0ffffffffH
	DD	FLAT:___std_terminate
__ehfuncinfo$??1CAUDrdsManager@@QAE@XZ DD 019930522H
	DD	01H
	DD	FLAT:__unwindtable$??1CAUDrdsManager@@QAE@XZ
	DD	2 DUP(00H)
	DD	2 DUP(00H)
	DD	00H
	DD	05H
xdata$x	ENDS
CRT$XCU	SEGMENT
?RMSG_GETPCTRDATA$initializer$@@3P6AXXZA DD FLAT:??__ERMSG_GETPCTRDATA@@YAXXZ ; RMSG_GETPCTRDATA$initializer$
CRT$XCU	ENDS
CRT$XCU	SEGMENT
?RMSG_SETPCTRDATA$initializer$@@3P6AXXZA DD FLAT:??__ERMSG_SETPCTRDATA@@YAXXZ ; RMSG_SETPCTRDATA$initializer$
CRT$XCU	ENDS
CRT$XCU	SEGMENT
?RMSG_CONCERNHWND$initializer$@@3P6AXXZA DD FLAT:??__ERMSG_CONCERNHWND@@YAXXZ ; RMSG_CONCERNHWND$initializer$
CRT$XCU	ENDS
CRT$XCU	SEGMENT
?RMSG_INTREQUEST$initializer$@@3P6AXXZA DD FLAT:??__ERMSG_INTREQUEST@@YAXXZ ; RMSG_INTREQUEST$initializer$
CRT$XCU	ENDS
CRT$XCU	SEGMENT
?RMSG_GWANSIMREGISTER$initializer$@@3P6AXXZA DD FLAT:??__ERMSG_GWANSIMREGISTER@@YAXXZ ; RMSG_GWANSIMREGISTER$initializer$
CRT$XCU	ENDS
; Function compile flags: /Ogtp
; File C:\Program Files (x86)\Microsoft Visual Studio\2019\Community\VC\Tools\MSVC\14.29.30133\atlmfc\include\afxtempl.h
; File C:\Program Files (x86)\Microsoft Visual Studio\2019\Community\VC\Tools\MSVC\14.29.30133\atlmfc\include\afx.inl
; File C:\Program Files (x86)\Microsoft Visual Studio\2019\Community\VC\Tools\MSVC\14.29.30133\atlmfc\include\afxtempl.h
; File C:\Program Files (x86)\Microsoft Visual Studio\2019\Community\VC\Tools\MSVC\14.29.30133\atlmfc\include\afx.inl
; File C:\Program Files (x86)\Microsoft Visual Studio\2019\Community\VC\Tools\MSVC\14.29.30133\atlmfc\include\afxtempl.h
; File C:\Program Files (x86)\Microsoft Visual Studio\2019\Community\VC\Tools\MSVC\14.29.30133\atlmfc\include\afx.inl
; File C:\Program Files (x86)\Microsoft Visual Studio\2019\Community\VC\Tools\MSVC\14.29.30133\atlmfc\include\afxtempl.h
;	COMDAT ??$SerializeElements@PAUIDrdsLib@@@@YGXAAVCArchive@@PAPAUIDrdsLib@@H@Z
_TEXT	SEGMENT
_ar$ = 8						; size = 4
_pElements$ = 12					; size = 4
_nCount$ = 16						; size = 4
??$SerializeElements@PAUIDrdsLib@@@@YGXAAVCArchive@@PAPAUIDrdsLib@@H@Z PROC ; SerializeElements<IDrdsLib *>, COMDAT

; 67   : {

  00000	55		 push	 ebp
  00001	8b ec		 mov	 ebp, esp

; 68   : 	ENSURE(nCount == 0 || pElements != NULL);

  00003	8b 4d 0c	 mov	 ecx, DWORD PTR _pElements$[ebp]
  00006	53		 push	 ebx
  00007	56		 push	 esi
  00008	8b 75 10	 mov	 esi, DWORD PTR _nCount$[ebp]
  0000b	57		 push	 edi
  0000c	85 f6		 test	 esi, esi
  0000e	74 08		 je	 SHORT $LN2@SerializeE
  00010	85 c9		 test	 ecx, ecx
  00012	0f 84 89 00 00
	00		 je	 $LN34@SerializeE
$LN2@SerializeE:
; File C:\Program Files (x86)\Microsoft Visual Studio\2019\Community\VC\Tools\MSVC\14.29.30133\atlmfc\include\afx.inl

; 212  : 	{ return (m_nMode & CArchive::load) == 0; }

  00018	8b 55 08	 mov	 edx, DWORD PTR _ar$[ebp]
  0001b	8b 42 18	 mov	 eax, DWORD PTR [edx+24]
  0001e	f7 d0		 not	 eax
  00020	a8 01		 test	 al, 1
; File C:\Program Files (x86)\Microsoft Visual Studio\2019\Community\VC\Tools\MSVC\14.29.30133\atlmfc\include\afxtempl.h

; 73   : 	if (ar.IsStoring())

  00022	74 3c		 je	 SHORT $LN10@SerializeE

; 74   : 	{
; 75   : 		TYPE* pData;
; 76   : 		UINT_PTR nElementsLeft;
; 77   : 
; 78   : 		nElementsLeft = nCount;
; 79   : 		pData = pElements;
; 80   : 		while( nElementsLeft > 0 )

  00024	85 f6		 test	 esi, esi
  00026	74 31		 je	 SHORT $LN8@SerializeE
  00028	0f 1f 84 00 00
	00 00 00	 npad	 8
$LL5@SerializeE:

; 81   : 		{
; 82   : 			UINT nElementsToWrite;
; 83   : 
; 84   : 			nElementsToWrite = UINT(__min(nElementsLeft, INT_MAX/sizeof(TYPE)));

  00030	bb ff ff ff 1f	 mov	 ebx, 536870911		; 1fffffffH
  00035	3b f3		 cmp	 esi, ebx
  00037	0f 42 de	 cmovb	 ebx, esi

; 85   : 			ar.Write(pData, nElementsToWrite*sizeof(TYPE));

  0003a	8d 3c 9d 00 00
	00 00		 lea	 edi, DWORD PTR [ebx*4]
  00041	57		 push	 edi
  00042	51		 push	 ecx
  00043	8b ca		 mov	 ecx, edx
  00045	e8 00 00 00 00	 call	 ?Write@CArchive@@QAEXPBXI@Z ; CArchive::Write

; 86   : 			nElementsLeft -= nElementsToWrite;
; 87   : 			pData += nElementsToWrite;

  0004a	8b 4d 0c	 mov	 ecx, DWORD PTR _pElements$[ebp]
  0004d	8b 55 08	 mov	 edx, DWORD PTR _ar$[ebp]
  00050	03 cf		 add	 ecx, edi
  00052	89 4d 0c	 mov	 DWORD PTR _pElements$[ebp], ecx
  00055	2b f3		 sub	 esi, ebx
  00057	75 d7		 jne	 SHORT $LL5@SerializeE
$LN8@SerializeE:
  00059	5f		 pop	 edi

; 105  : 		}
; 106  : 	}
; 107  : }

  0005a	5e		 pop	 esi
  0005b	5b		 pop	 ebx
  0005c	5d		 pop	 ebp
  0005d	c2 0c 00	 ret	 12			; 0000000cH
$LN10@SerializeE:

; 97   : 		while( nElementsLeft > 0 )

  00060	85 f6		 test	 esi, esi
  00062	74 f5		 je	 SHORT $LN8@SerializeE
$LL7@SerializeE:

; 98   : 		{
; 99   : 			UINT nElementsToRead;
; 100  : 
; 101  : 			nElementsToRead = UINT(__min(nElementsLeft, INT_MAX/sizeof(TYPE)));

  00064	bf ff ff ff 1f	 mov	 edi, 536870911		; 1fffffffH
  00069	3b f7		 cmp	 esi, edi
  0006b	0f 42 fe	 cmovb	 edi, esi

; 102  : 			ar.EnsureRead(pData, nElementsToRead*sizeof(TYPE));

  0006e	8d 1c bd 00 00
	00 00		 lea	 ebx, DWORD PTR [edi*4]
; File C:\Program Files (x86)\Microsoft Visual Studio\2019\Community\VC\Tools\MSVC\14.29.30133\atlmfc\include\afx.inl

; 399  : 	UINT nRead=Read(lpBuf, nCount);

  00075	53		 push	 ebx
  00076	51		 push	 ecx
  00077	8b ca		 mov	 ecx, edx
  00079	e8 00 00 00 00	 call	 ?Read@CArchive@@QAEIPAXI@Z ; CArchive::Read

; 400  : 	if(nRead!=nCount)

  0007e	3b c3		 cmp	 eax, ebx
  00080	75 16		 jne	 SHORT $LN23@SerializeE
; File C:\Program Files (x86)\Microsoft Visual Studio\2019\Community\VC\Tools\MSVC\14.29.30133\atlmfc\include\afxtempl.h

; 97   : 		while( nElementsLeft > 0 )

  00082	8b 4d 0c	 mov	 ecx, DWORD PTR _pElements$[ebp]
  00085	8b 55 08	 mov	 edx, DWORD PTR _ar$[ebp]

; 103  : 			nElementsLeft -= nElementsToRead;
; 104  : 			pData += nElementsToRead;

  00088	03 cb		 add	 ecx, ebx
  0008a	89 4d 0c	 mov	 DWORD PTR _pElements$[ebp], ecx
  0008d	2b f7		 sub	 esi, edi
  0008f	75 d3		 jne	 SHORT $LL7@SerializeE

; 105  : 		}
; 106  : 	}
; 107  : }

  00091	5f		 pop	 edi
  00092	5e		 pop	 esi
  00093	5b		 pop	 ebx
  00094	5d		 pop	 ebp
  00095	c2 0c 00	 ret	 12			; 0000000cH
$LN23@SerializeE:
; File C:\Program Files (x86)\Microsoft Visual Studio\2019\Community\VC\Tools\MSVC\14.29.30133\atlmfc\include\afx.inl

; 402  : 		AfxThrowArchiveException(CArchiveException::endOfFile);

  00098	6a 00		 push	 0
  0009a	6a 03		 push	 3
  0009c	e8 00 00 00 00	 call	 ?AfxThrowArchiveException@@YGXHPBD@Z ; AfxThrowArchiveException
$LN34@SerializeE:
; File C:\Program Files (x86)\Microsoft Visual Studio\2019\Community\VC\Tools\MSVC\14.29.30133\atlmfc\include\afxtempl.h

; 68   : 	ENSURE(nCount == 0 || pElements != NULL);

  000a1	e8 00 00 00 00	 call	 ?AfxThrowInvalidArgException@@YGXXZ ; AfxThrowInvalidArgException
$LN32@SerializeE:
  000a6	cc		 int	 3
??$SerializeElements@PAUIDrdsLib@@@@YGXAAVCArchive@@PAPAUIDrdsLib@@H@Z ENDP ; SerializeElements<IDrdsLib *>
_TEXT	ENDS
; Function compile flags: /Ogtp
; File D:\git\src\IBK\IBK_DRFN\ProjSrc\SrcDrfn\DrCommon\PcTrMng\_DrdsManager.cpp
;	COMDAT ?GetRealStructData@CDrdsLib@@UAGHIJAAPADAAH@Z
_TEXT	SEGMENT
_this$ = 8						; size = 4
_wParam$ = 12						; size = 4
_lParam$ = 16						; size = 4
_prValue$ = 20						; size = 4
_nRealType$ = 24					; size = 4
?GetRealStructData@CDrdsLib@@UAGHIJAAPADAAH@Z PROC	; CDrdsLib::GetRealStructData, COMDAT

; 237  : //@신영수정
; 238  : //	LPREALDATA lpRealData = (LPREALDATA)lParam;
; 239  : //	LPSTR lpRpData  = lpRealData->pDataBuf;						// 실제데이터 
; 240  : //	prValue = lpRealData->pDataBuf;
; 241  : //	nRealType = (int)lpRealData->chRealType;
; 242  : 	return TRUE;

  00000	b8 01 00 00 00	 mov	 eax, 1

; 243  : }

  00005	c2 14 00	 ret	 20			; 00000014H
?GetRealStructData@CDrdsLib@@UAGHIJAAPADAAH@Z ENDP	; CDrdsLib::GetRealStructData
_TEXT	ENDS
; Function compile flags: /Ogtp
; File D:\git\src\IBK\IBK_DRFN\ProjSrc\SrcDrfn\DrCommon\PcTrMng\_DrdsManager.cpp
;	COMDAT ?ConvertToRealStruct@CDrdsLib@@UAGHIJPADH@Z
_TEXT	SEGMENT
_this$ = 8						; size = 4
_wParam$ = 12						; size = 4
_lParam$ = 16						; size = 4
_pStruct$ = 20						; size = 4
_nRealType$ = 24					; size = 4
?ConvertToRealStruct@CDrdsLib@@UAGHIJPADH@Z PROC	; CDrdsLib::ConvertToRealStruct, COMDAT

; 231  : 	return 0;

  00000	33 c0		 xor	 eax, eax

; 232  : }

  00002	c2 14 00	 ret	 20			; 00000014H
?ConvertToRealStruct@CDrdsLib@@UAGHIJPADH@Z ENDP	; CDrdsLib::ConvertToRealStruct
_TEXT	ENDS
; Function compile flags: /Ogtp
; File D:\git\src\IBK\IBK_DRFN\ProjSrc\SrcDrfn\DrCommon\PcTrMng\_DrdsManager.cpp
;	COMDAT ?Drds_SetInterface@CDrdsLib@@UAGHIJ@Z
_TEXT	SEGMENT
_this$ = 8						; size = 4
_nID$ = 12						; size = 4
_dwData$ = 16						; size = 4
?Drds_SetInterface@CDrdsLib@@UAGHIJ@Z PROC		; CDrdsLib::Drds_SetInterface, COMDAT

; 226  : 	return 1;

  00000	b8 01 00 00 00	 mov	 eax, 1

; 227  : }

  00005	c2 0c 00	 ret	 12			; 0000000cH
?Drds_SetInterface@CDrdsLib@@UAGHIJ@Z ENDP		; CDrdsLib::Drds_SetInterface
_TEXT	ENDS
; Function compile flags: /Ogtp
; File D:\git\src\IBK\IBK_DRFN\ProjSrc\SrcDrfn\DrCommon\PcTrMng\_DrdsManager.cpp
;	COMDAT ?Drds_GetInterface@CDrdsLib@@UAGJI@Z
_TEXT	SEGMENT
_this$ = 8						; size = 4
_nID$ = 12						; size = 4
?Drds_GetInterface@CDrdsLib@@UAGJI@Z PROC		; CDrdsLib::Drds_GetInterface, COMDAT

; 221  : 	return 1;

  00000	b8 01 00 00 00	 mov	 eax, 1

; 222  : }

  00005	c2 08 00	 ret	 8
?Drds_GetInterface@CDrdsLib@@UAGJI@Z ENDP		; CDrdsLib::Drds_GetInterface
_TEXT	ENDS
; Function compile flags: /Ogtp
; File D:\git\src\IBK\IBK_DRFN\ProjSrc\SrcDrfn\DrCommon\PcTrMng\_DrdsManager.cpp
;	COMDAT ?Drds_SignalMng_SetNewRealData@CDrdsLib@@UAGHPADHHH@Z
_TEXT	SEGMENT
_this$ = 8						; size = 4
_pPacket$ = 12						; size = 4
_nPacketLen$ = 16					; size = 4
_nComponentType$ = 20					; size = 4
_nBrocastType$ = 24					; size = 4
?Drds_SignalMng_SetNewRealData@CDrdsLib@@UAGHPADHHH@Z PROC ; CDrdsLib::Drds_SignalMng_SetNewRealData, COMDAT

; 216  : 	return 1;

  00000	b8 01 00 00 00	 mov	 eax, 1

; 217  : }

  00005	c2 14 00	 ret	 20			; 00000014H
?Drds_SignalMng_SetNewRealData@CDrdsLib@@UAGHPADHHH@Z ENDP ; CDrdsLib::Drds_SignalMng_SetNewRealData
_TEXT	ENDS
; Function compile flags: /Ogtp
; File D:\git\src\IBK\IBK_DRFN\ProjSrc\SrcDrfn\DrCommon\PcTrMng\_DrdsManager.cpp
;	COMDAT ?Drds_OpenSignalMng@CDrdsLib@@UAGHPADJ@Z
_TEXT	SEGMENT
_this$ = 8						; size = 4
_sCfgFullPathName$ = 12					; size = 4
_lMainHwnd$ = 16					; size = 4
?Drds_OpenSignalMng@CDrdsLib@@UAGHPADJ@Z PROC		; CDrdsLib::Drds_OpenSignalMng, COMDAT

; 211  : 	return 1;

  00000	b8 01 00 00 00	 mov	 eax, 1

; 212  : }

  00005	c2 0c 00	 ret	 12			; 0000000cH
?Drds_OpenSignalMng@CDrdsLib@@UAGHPADJ@Z ENDP		; CDrdsLib::Drds_OpenSignalMng
_TEXT	ENDS
; Function compile flags: /Ogtp
; File D:\git\src\IBK\IBK_DRFN\ProjSrc\SrcDrfn\DrCommon\PcTrMng\_DrdsManager.cpp
;	COMDAT ?SetUserDefData@CDrdsLib@@UAGHPAD0@Z
_TEXT	SEGMENT
_this$ = 8						; size = 4
_sKeyName$ = 12						; size = 4
_sData$ = 16						; size = 4
?SetUserDefData@CDrdsLib@@UAGHPAD0@Z PROC		; CDrdsLib::SetUserDefData, COMDAT

; 206  : 	return 1;

  00000	b8 01 00 00 00	 mov	 eax, 1

; 207  : }

  00005	c2 0c 00	 ret	 12			; 0000000cH
?SetUserDefData@CDrdsLib@@UAGHPAD0@Z ENDP		; CDrdsLib::SetUserDefData
_TEXT	ENDS
; Function compile flags: /Ogtp
; File D:\git\src\IBK\IBK_DRFN\ProjSrc\SrcDrfn\DrCommon\PcTrMng\_DrdsManager.cpp
;	COMDAT ?UdpCreate3@CDrdsLib@@UAGXPAD@Z
_TEXT	SEGMENT
_this$ = 8						; size = 4
_sCfgFullPathName$ = 12					; size = 4
?UdpCreate3@CDrdsLib@@UAGXPAD@Z PROC			; CDrdsLib::UdpCreate3, COMDAT

; 202  : }

  00000	c2 08 00	 ret	 8
?UdpCreate3@CDrdsLib@@UAGXPAD@Z ENDP			; CDrdsLib::UdpCreate3
_TEXT	ENDS
; Function compile flags: /Ogtp
; File D:\git\src\IBK\IBK_DRFN\ProjSrc\SrcDrfn\DrCommon\PcTrMng\_DrdsManager.cpp
;	COMDAT ?UDPDestroy@CDrdsLib@@UAGXXZ
_TEXT	SEGMENT
_this$ = 8						; size = 4
?UDPDestroy@CDrdsLib@@UAGXXZ PROC			; CDrdsLib::UDPDestroy, COMDAT

; 198  : }

  00000	c2 04 00	 ret	 4
?UDPDestroy@CDrdsLib@@UAGXXZ ENDP			; CDrdsLib::UDPDestroy
_TEXT	ENDS
; Function compile flags: /Ogtp
; File D:\git\src\IBK\IBK_DRFN\ProjSrc\SrcDrfn\DrCommon\PcTrMng\_DrdsManager.cpp
;	COMDAT ?UDPCreate2@CDrdsLib@@UAGXPAD0@Z
_TEXT	SEGMENT
_this$ = 8						; size = 4
_strIP$ = 12						; size = 4
_strPort$ = 16						; size = 4
?UDPCreate2@CDrdsLib@@UAGXPAD0@Z PROC			; CDrdsLib::UDPCreate2, COMDAT

; 194  : }

  00000	c2 0c 00	 ret	 12			; 0000000cH
?UDPCreate2@CDrdsLib@@UAGXPAD0@Z ENDP			; CDrdsLib::UDPCreate2
_TEXT	ENDS
; Function compile flags: /Ogtp
; File D:\git\src\IBK\IBK_DRFN\ProjSrc\SrcDrfn\DrCommon\PcTrMng\_DrdsManager.cpp
;	COMDAT ?UDPCreate@CDrdsLib@@UAGXXZ
_TEXT	SEGMENT
_this$ = 8						; size = 4
?UDPCreate@CDrdsLib@@UAGXXZ PROC			; CDrdsLib::UDPCreate, COMDAT

; 190  : }

  00000	c2 04 00	 ret	 4
?UDPCreate@CDrdsLib@@UAGXXZ ENDP			; CDrdsLib::UDPCreate
_TEXT	ENDS
; Function compile flags: /Ogtp
; File D:\git\src\IBK\IBK_DRFN\ProjSrc\SrcDrfn\DrCommon\PcTrMng\_DrdsManager.cpp
;	COMDAT ?DrdsSetFlag@CDrdsLib@@UAGX_N@Z
_TEXT	SEGMENT
_this$ = 8						; size = 4
_bTrace$ = 12						; size = 1
?DrdsSetFlag@CDrdsLib@@UAGX_N@Z PROC			; CDrdsLib::DrdsSetFlag, COMDAT

; 186  : }

  00000	c2 08 00	 ret	 8
?DrdsSetFlag@CDrdsLib@@UAGX_N@Z ENDP			; CDrdsLib::DrdsSetFlag
_TEXT	ENDS
; Function compile flags: /Ogtp
; File D:\git\src\IBK\IBK_DRFN\ProjSrc\SrcDrfn\DrCommon\PcTrMng\_DrdsManager.cpp
;	COMDAT ?DrdsTraceOff@CDrdsLib@@UAGXXZ
_TEXT	SEGMENT
_this$ = 8						; size = 4
?DrdsTraceOff@CDrdsLib@@UAGXXZ PROC			; CDrdsLib::DrdsTraceOff, COMDAT

; 182  : }

  00000	c2 04 00	 ret	 4
?DrdsTraceOff@CDrdsLib@@UAGXXZ ENDP			; CDrdsLib::DrdsTraceOff
_TEXT	ENDS
; Function compile flags: /Ogtp
; File D:\git\src\IBK\IBK_DRFN\ProjSrc\SrcDrfn\DrCommon\PcTrMng\_DrdsManager.cpp
;	COMDAT ?DrdsTraceOn@CDrdsLib@@UAGXXZ
_TEXT	SEGMENT
_this$ = 8						; size = 4
?DrdsTraceOn@CDrdsLib@@UAGXXZ PROC			; CDrdsLib::DrdsTraceOn, COMDAT

; 178  : }

  00000	c2 04 00	 ret	 4
?DrdsTraceOn@CDrdsLib@@UAGXXZ ENDP			; CDrdsLib::DrdsTraceOn
_TEXT	ENDS
; Function compile flags: /Ogtp
; File D:\git\src\IBK\IBK_DRFN\ProjSrc\SrcDrfn\DrCommon\PcTrMng\_DrdsManager.cpp
;	COMDAT ?DrdsPropertySet@CDrdsLib@@UAGXXZ
_TEXT	SEGMENT
_this$ = 8						; size = 4
?DrdsPropertySet@CDrdsLib@@UAGXXZ PROC			; CDrdsLib::DrdsPropertySet, COMDAT

; 174  : }

  00000	c2 04 00	 ret	 4
?DrdsPropertySet@CDrdsLib@@UAGXXZ ENDP			; CDrdsLib::DrdsPropertySet
_TEXT	ENDS
; Function compile flags: /Ogtp
; File D:\git\src\IBK\IBK_DRFN\ProjSrc\SrcDrfn\DrCommon\PcTrMng\_DrdsManager.cpp
;	COMDAT ?DrdsRequest@CDrdsLib@@UAGHPAXPAUHWND__@@IPAD22@Z
_TEXT	SEGMENT
_this$ = 8						; size = 4
_Link$ = 12						; size = 4
_hWnd$ = 16						; size = 4
_id$ = 20						; size = 4
_DataName$ = 24						; size = 4
_FieldName$ = 28					; size = 4
_KeyName$ = 32						; size = 4
?DrdsRequest@CDrdsLib@@UAGHPAXPAUHWND__@@IPAD22@Z PROC	; CDrdsLib::DrdsRequest, COMDAT

; 169  : 	return 1;

  00000	b8 01 00 00 00	 mov	 eax, 1

; 170  : }

  00005	c2 1c 00	 ret	 28			; 0000001cH
?DrdsRequest@CDrdsLib@@UAGHPAXPAUHWND__@@IPAD22@Z ENDP	; CDrdsLib::DrdsRequest
_TEXT	ENDS
; Function compile flags: /Ogtp
; File D:\git\src\IBK\IBK_DRFN\ProjSrc\SrcDrfn\DrCommon\PcTrMng\_DrdsManager.cpp
;	COMDAT ?DrdsUnadviseEx@CDrdsLib@@UAGHHPAUHWND__@@IPAD111@Z
_TEXT	SEGMENT
_this$ = 8						; size = 4
_nComponentType$ = 12					; size = 4
_hWnd$ = 16						; size = 4
_id$ = 20						; size = 4
_DataName$ = 24						; size = 4
_FieldName$ = 28					; size = 4
_KeyName$ = 32						; size = 4
_ObjectName$ = 36					; size = 4
?DrdsUnadviseEx@CDrdsLib@@UAGHHPAUHWND__@@IPAD111@Z PROC ; CDrdsLib::DrdsUnadviseEx, COMDAT

; 164  : 	return 1;

  00000	b8 01 00 00 00	 mov	 eax, 1

; 165  : }

  00005	c2 20 00	 ret	 32			; 00000020H
?DrdsUnadviseEx@CDrdsLib@@UAGHHPAUHWND__@@IPAD111@Z ENDP ; CDrdsLib::DrdsUnadviseEx
_TEXT	ENDS
; Function compile flags: /Ogtp
; File D:\git\src\IBK\IBK_DRFN\ProjSrc\SrcDrfn\DrCommon\PcTrMng\_DrdsManager.cpp
;	COMDAT ?DrdsAdviseEx@CDrdsLib@@UAGHHPAUHWND__@@IPAD111@Z
_TEXT	SEGMENT
_this$ = 8						; size = 4
_nComponentType$ = 12					; size = 4
_hWnd$ = 16						; size = 4
_id$ = 20						; size = 4
_DataName$ = 24						; size = 4
_FieldName$ = 28					; size = 4
_KeyName$ = 32						; size = 4
_ObjectName$ = 36					; size = 4
?DrdsAdviseEx@CDrdsLib@@UAGHHPAUHWND__@@IPAD111@Z PROC	; CDrdsLib::DrdsAdviseEx, COMDAT

; 159  : 	return 1;

  00000	b8 01 00 00 00	 mov	 eax, 1

; 160  : }

  00005	c2 20 00	 ret	 32			; 00000020H
?DrdsAdviseEx@CDrdsLib@@UAGHHPAUHWND__@@IPAD111@Z ENDP	; CDrdsLib::DrdsAdviseEx
_TEXT	ENDS
; Function compile flags: /Ogtp
; File D:\git\src\IBK\IBK_DRFN\ProjSrc\SrcDrfn\DrCommon\PcTrMng\_DrdsManager.cpp
;	COMDAT ?SetNewRealData@CDrdsLib@@UAGHPADHHH@Z
_TEXT	SEGMENT
_this$ = 8						; size = 4
_pPacket$ = 12						; size = 4
_nPacketLen$ = 16					; size = 4
_nComponentType$ = 20					; size = 4
_nBrocastType$ = 24					; size = 4
?SetNewRealData@CDrdsLib@@UAGHPADHHH@Z PROC		; CDrdsLib::SetNewRealData, COMDAT

; 154  : 	return 1;

  00000	b8 01 00 00 00	 mov	 eax, 1

; 155  : }

  00005	c2 14 00	 ret	 20			; 00000014H
?SetNewRealData@CDrdsLib@@UAGHPADHHH@Z ENDP		; CDrdsLib::SetNewRealData
_TEXT	ENDS
; Function compile flags: /Ogtp
; File D:\git\src\IBK\IBK_DRFN\ProjSrc\SrcDrfn\DrCommon\PcTrMng\_DrdsManager.cpp
;	COMDAT ?AdviseRealCodeData@CDrdsLib@@UAGHHHPAD0@Z
_TEXT	SEGMENT
_this$ = 8						; size = 4
_bIsAdd$ = 12						; size = 4
_nCount$ = 16						; size = 4
_sPacketName$ = 20					; size = 4
_sCodeList$ = 24					; size = 4
?AdviseRealCodeData@CDrdsLib@@UAGHHHPAD0@Z PROC		; CDrdsLib::AdviseRealCodeData, COMDAT

; 149  : 	return 1;

  00000	b8 01 00 00 00	 mov	 eax, 1

; 150  : }

  00005	c2 14 00	 ret	 20			; 00000014H
?AdviseRealCodeData@CDrdsLib@@UAGHHHPAD0@Z ENDP		; CDrdsLib::AdviseRealCodeData
_TEXT	ENDS
; Function compile flags: /Ogtp
; File D:\git\src\IBK\IBK_DRFN\ProjSrc\SrcDrfn\DrCommon\PcTrMng\_DrdsManager.cpp
;	COMDAT ?DrdsSendCode@CDrdsLib@@UAGXXZ
_TEXT	SEGMENT
_this$ = 8						; size = 4
?DrdsSendCode@CDrdsLib@@UAGXXZ PROC			; CDrdsLib::DrdsSendCode, COMDAT

; 145  : }

  00000	c2 04 00	 ret	 4
?DrdsSendCode@CDrdsLib@@UAGXXZ ENDP			; CDrdsLib::DrdsSendCode
_TEXT	ENDS
; Function compile flags: /Ogtp
; File D:\git\src\IBK\IBK_DRFN\ProjSrc\SrcDrfn\DrCommon\PcTrMng\_DrdsManager.cpp
;	COMDAT ?DrdsSetSocketHandle@CDrdsLib@@UAGHPAUHWND__@@@Z
_TEXT	SEGMENT
_this$ = 8						; size = 4
_hWnd$ = 12						; size = 4
?DrdsSetSocketHandle@CDrdsLib@@UAGHPAUHWND__@@@Z PROC	; CDrdsLib::DrdsSetSocketHandle, COMDAT

; 140  : 	return 1;

  00000	b8 01 00 00 00	 mov	 eax, 1

; 141  : }

  00005	c2 08 00	 ret	 8
?DrdsSetSocketHandle@CDrdsLib@@UAGHPAUHWND__@@@Z ENDP	; CDrdsLib::DrdsSetSocketHandle
_TEXT	ENDS
; Function compile flags: /Ogtp
; File D:\git\src\IBK\IBK_DRFN\ProjSrc\SrcDrfn\DrCommon\PcTrMng\_DrdsManager.cpp
;	COMDAT ?DrdsUnadvise@CDrdsLib@@UAGHIPAD00@Z
_TEXT	SEGMENT
_this$ = 8						; size = 4
_id$ = 12						; size = 4
_szDataName$ = 16					; size = 4
_FieldName$ = 20					; size = 4
_nSize$1$ = 24						; size = 4
_KeyName$ = 24						; size = 4
?DrdsUnadvise@CDrdsLib@@UAGHIPAD00@Z PROC		; CDrdsLib::DrdsUnadvise, COMDAT

; 108  : {

  00000	55		 push	 ebp
  00001	8b ec		 mov	 ebp, esp
  00003	53		 push	 ebx
  00004	56		 push	 esi
  00005	57		 push	 edi

; 109  : //@신영제거
; 110  : //	BYTE pPBID[2] = { 0x32, 0 };
; 111  : //	pPBID[0] = id;
; 112  : //
; 113  : //	CommRemoveBrod( m_hHandle, pPBID, 1, 'U',  (BYTE *) KeyName );
; 114  : //@Solomon090819	m_pCommApiHelper->CommSBC(m_hHandle, szDataName, KeyName, strlen(KeyName), 1, m_nConnectID);
; 115  : 
; 116  : 	{
; 117  : 		int nSize = sizeof(STIDM2Info_RA) + strlen(KeyName)-sizeof(char);

  00006	8b 7d 18	 mov	 edi, DWORD PTR _KeyName$[ebp]
  00009	8b cf		 mov	 ecx, edi
  0000b	8d 51 01	 lea	 edx, DWORD PTR [ecx+1]
  0000e	66 90		 npad	 2
$LL3@DrdsUnadvi:
  00010	8a 01		 mov	 al, BYTE PTR [ecx]
  00012	41		 inc	 ecx
  00013	84 c0		 test	 al, al
  00015	75 f9		 jne	 SHORT $LL3@DrdsUnadvi
  00017	2b ca		 sub	 ecx, edx
  00019	8d 59 51	 lea	 ebx, DWORD PTR [ecx+81]

; 118  : 		LPBYTE pInfoBuf = new BYTE[nSize+1];

  0001c	8d 43 01	 lea	 eax, DWORD PTR [ebx+1]
  0001f	89 5d 18	 mov	 DWORD PTR _nSize$1$[ebp], ebx
  00022	50		 push	 eax
  00023	e8 00 00 00 00	 call	 ??_U@YAPAXI@Z		; operator new[]

; 119  : 		STIDM2Info_RA* pRA = (STIDM2Info_RA*)pInfoBuf;
; 120  : 		ZeroMemory(pRA, nSize);

  00028	53		 push	 ebx
  00029	8b f0		 mov	 esi, eax
  0002b	6a 00		 push	 0
  0002d	56		 push	 esi
  0002e	e8 00 00 00 00	 call	 _memset

; 121  : 		
; 122  : 		pRA->nInfoSize = nSize;
; 123  : 		sprintf(pRA->aKey, "%08X", this);

  00033	ff 75 08	 push	 DWORD PTR _this$[ebp]
  00036	8d 46 04	 lea	 eax, DWORD PTR [esi+4]
  00039	89 1e		 mov	 DWORD PTR [esi], ebx
  0003b	68 00 00 00 00	 push	 OFFSET ??_C@_04JIMNDDED@?$CF08X@
  00040	50		 push	 eax
  00041	e8 00 00 00 00	 call	 _sprintf

; 124  : 		memcpy(pRA->aDataName, szDataName, strlen(szDataName));

  00046	8b 55 10	 mov	 edx, DWORD PTR _szDataName$[ebp]
  00049	83 c4 1c	 add	 esp, 28			; 0000001cH
  0004c	8b ca		 mov	 ecx, edx
  0004e	8d 59 01	 lea	 ebx, DWORD PTR [ecx+1]
$LL4@DrdsUnadvi:
  00051	8a 01		 mov	 al, BYTE PTR [ecx]
  00053	41		 inc	 ecx
  00054	84 c0		 test	 al, al
  00056	75 f9		 jne	 SHORT $LL4@DrdsUnadvi
  00058	2b cb		 sub	 ecx, ebx
  0005a	8d 46 19	 lea	 eax, DWORD PTR [esi+25]
  0005d	51		 push	 ecx
  0005e	52		 push	 edx
  0005f	50		 push	 eax
  00060	e8 00 00 00 00	 call	 _memcpy

; 125  : 		memcpy(pRA->aFieldName, FieldName, strlen(FieldName));

  00065	8b 55 14	 mov	 edx, DWORD PTR _FieldName$[ebp]
  00068	83 c4 0c	 add	 esp, 12			; 0000000cH
  0006b	8b ca		 mov	 ecx, edx
  0006d	8d 59 01	 lea	 ebx, DWORD PTR [ecx+1]
$LL5@DrdsUnadvi:
  00070	8a 01		 mov	 al, BYTE PTR [ecx]
  00072	41		 inc	 ecx
  00073	84 c0		 test	 al, al
  00075	75 f9		 jne	 SHORT $LL5@DrdsUnadvi
  00077	2b cb		 sub	 ecx, ebx
  00079	8d 46 2e	 lea	 eax, DWORD PTR [esi+46]
  0007c	51		 push	 ecx
  0007d	52		 push	 edx
  0007e	50		 push	 eax
  0007f	e8 00 00 00 00	 call	 _memcpy

; 126  : 		pRA->nKeyNameSize = strlen(KeyName);

  00084	8b cf		 mov	 ecx, edi
  00086	83 c4 0c	 add	 esp, 12			; 0000000cH
  00089	8d 51 01	 lea	 edx, DWORD PTR [ecx+1]
  0008c	0f 1f 40 00	 npad	 4
$LL6@DrdsUnadvi:
  00090	8a 01		 mov	 al, BYTE PTR [ecx]
  00092	41		 inc	 ecx
  00093	84 c0		 test	 al, al
  00095	75 f9		 jne	 SHORT $LL6@DrdsUnadvi
  00097	2b ca		 sub	 ecx, edx

; 127  : 		memcpy(pRA->aKeyName, KeyName, pRA->nKeyNameSize);

  00099	8d 46 51	 lea	 eax, DWORD PTR [esi+81]
  0009c	51		 push	 ecx
  0009d	57		 push	 edi
  0009e	50		 push	 eax
  0009f	89 4e 4d	 mov	 DWORD PTR [esi+77], ecx
  000a2	e8 00 00 00 00	 call	 _memcpy
  000a7	83 c4 0c	 add	 esp, 12			; 0000000cH

; 128  : 		
; 129  : 		//theApp.m_DebugMng.TraceEx(IDM2_TAG_RU, nSize, pInfoBuf);
; 130  : 		theApp.m_DebugMng.TraceEx(IDM2_TAG_RU, '*', szDataName, nSize, pInfoBuf);

  000aa	56		 push	 esi
  000ab	ff 75 18	 push	 DWORD PTR _nSize$1$[ebp]
  000ae	ff 75 10	 push	 DWORD PTR _szDataName$[ebp]
  000b1	6a 2a		 push	 42			; 0000002aH
  000b3	6a 04		 push	 4
  000b5	68 e8 01 00 00	 push	 OFFSET ?theApp@@3VCPcTrMngApp@@A+488
  000ba	e8 00 00 00 00	 call	 ?TraceEx@CDebugManager@@UAGXEEPBDKPAE@Z ; CDebugManager::TraceEx

; 131  : 		
; 132  : 		delete[] pInfoBuf;

  000bf	56		 push	 esi
  000c0	e8 00 00 00 00	 call	 ??_V@YAXPAX@Z		; operator delete[]
  000c5	83 c4 04	 add	 esp, 4

; 133  : 	}
; 134  : 
; 135  : 	return TRUE;

  000c8	b8 01 00 00 00	 mov	 eax, 1
  000cd	5f		 pop	 edi
  000ce	5e		 pop	 esi
  000cf	5b		 pop	 ebx

; 136  : }

  000d0	5d		 pop	 ebp
  000d1	c2 14 00	 ret	 20			; 00000014H
?DrdsUnadvise@CDrdsLib@@UAGHIPAD00@Z ENDP		; CDrdsLib::DrdsUnadvise
_TEXT	ENDS
; Function compile flags: /Ogtp
; File D:\git\src\IBK\IBK_DRFN\ProjSrc\SrcDrfn\DrCommon\PcTrMng\_DrdsManager.cpp
;	COMDAT ?DrdsAdvise@CDrdsLib@@UAGHIPAD00@Z
_TEXT	SEGMENT
_this$ = 8						; size = 4
_id$ = 12						; size = 4
_szDataName$ = 16					; size = 4
_FieldName$ = 20					; size = 4
_nSize$1$ = 24						; size = 4
_KeyName$ = 24						; size = 4
?DrdsAdvise@CDrdsLib@@UAGHIPAD00@Z PROC			; CDrdsLib::DrdsAdvise, COMDAT

; 77   : {

  00000	55		 push	 ebp
  00001	8b ec		 mov	 ebp, esp
  00003	53		 push	 ebx
  00004	56		 push	 esi
  00005	57		 push	 edi

; 78   : //@신영제거
; 79   : //	BYTE pPBID[2] = { 0x32, 0 };
; 80   : //	pPBID[0] = id;
; 81   : //	
; 82   : //	CommSetBrod( m_hHandle, pPBID, 1, 'U',  (BYTE *) KeyName );
; 83   : //@Solomon090819	m_pCommApiHelper->CommSB(m_hHandle, szDataName, KeyName, strlen(KeyName), 1, m_nConnectID);
; 84   : 
; 85   : 	{
; 86   : 		int nSize = sizeof(STIDM2Info_RA) + strlen(KeyName)-sizeof(char);

  00006	8b 7d 18	 mov	 edi, DWORD PTR _KeyName$[ebp]
  00009	8b cf		 mov	 ecx, edi
  0000b	8d 51 01	 lea	 edx, DWORD PTR [ecx+1]
  0000e	66 90		 npad	 2
$LL3@DrdsAdvise:
  00010	8a 01		 mov	 al, BYTE PTR [ecx]
  00012	41		 inc	 ecx
  00013	84 c0		 test	 al, al
  00015	75 f9		 jne	 SHORT $LL3@DrdsAdvise
  00017	2b ca		 sub	 ecx, edx
  00019	8d 59 51	 lea	 ebx, DWORD PTR [ecx+81]

; 87   : 		LPBYTE pInfoBuf = new BYTE[nSize+1];

  0001c	8d 43 01	 lea	 eax, DWORD PTR [ebx+1]
  0001f	89 5d 18	 mov	 DWORD PTR _nSize$1$[ebp], ebx
  00022	50		 push	 eax
  00023	e8 00 00 00 00	 call	 ??_U@YAPAXI@Z		; operator new[]

; 88   : 		STIDM2Info_RA* pRA = (STIDM2Info_RA*)pInfoBuf;
; 89   : 		ZeroMemory(pRA, nSize);

  00028	53		 push	 ebx
  00029	8b f0		 mov	 esi, eax
  0002b	6a 00		 push	 0
  0002d	56		 push	 esi
  0002e	e8 00 00 00 00	 call	 _memset

; 90   : 		
; 91   : 		pRA->nInfoSize = nSize;
; 92   : 		sprintf(pRA->aKey, "%08X", this);

  00033	ff 75 08	 push	 DWORD PTR _this$[ebp]
  00036	8d 46 04	 lea	 eax, DWORD PTR [esi+4]
  00039	89 1e		 mov	 DWORD PTR [esi], ebx
  0003b	68 00 00 00 00	 push	 OFFSET ??_C@_04JIMNDDED@?$CF08X@
  00040	50		 push	 eax
  00041	e8 00 00 00 00	 call	 _sprintf

; 93   : 		memcpy(pRA->aDataName, szDataName, strlen(szDataName));

  00046	8b 55 10	 mov	 edx, DWORD PTR _szDataName$[ebp]
  00049	83 c4 1c	 add	 esp, 28			; 0000001cH
  0004c	8b ca		 mov	 ecx, edx
  0004e	8d 59 01	 lea	 ebx, DWORD PTR [ecx+1]
$LL4@DrdsAdvise:
  00051	8a 01		 mov	 al, BYTE PTR [ecx]
  00053	41		 inc	 ecx
  00054	84 c0		 test	 al, al
  00056	75 f9		 jne	 SHORT $LL4@DrdsAdvise
  00058	2b cb		 sub	 ecx, ebx
  0005a	8d 46 19	 lea	 eax, DWORD PTR [esi+25]
  0005d	51		 push	 ecx
  0005e	52		 push	 edx
  0005f	50		 push	 eax
  00060	e8 00 00 00 00	 call	 _memcpy

; 94   : 		memcpy(pRA->aFieldName, FieldName, strlen(FieldName));

  00065	8b 55 14	 mov	 edx, DWORD PTR _FieldName$[ebp]
  00068	83 c4 0c	 add	 esp, 12			; 0000000cH
  0006b	8b ca		 mov	 ecx, edx
  0006d	8d 59 01	 lea	 ebx, DWORD PTR [ecx+1]
$LL5@DrdsAdvise:
  00070	8a 01		 mov	 al, BYTE PTR [ecx]
  00072	41		 inc	 ecx
  00073	84 c0		 test	 al, al
  00075	75 f9		 jne	 SHORT $LL5@DrdsAdvise
  00077	2b cb		 sub	 ecx, ebx
  00079	8d 46 2e	 lea	 eax, DWORD PTR [esi+46]
  0007c	51		 push	 ecx
  0007d	52		 push	 edx
  0007e	50		 push	 eax
  0007f	e8 00 00 00 00	 call	 _memcpy

; 95   : 		pRA->nKeyNameSize = strlen(KeyName);

  00084	8b cf		 mov	 ecx, edi
  00086	83 c4 0c	 add	 esp, 12			; 0000000cH
  00089	8d 51 01	 lea	 edx, DWORD PTR [ecx+1]
  0008c	0f 1f 40 00	 npad	 4
$LL6@DrdsAdvise:
  00090	8a 01		 mov	 al, BYTE PTR [ecx]
  00092	41		 inc	 ecx
  00093	84 c0		 test	 al, al
  00095	75 f9		 jne	 SHORT $LL6@DrdsAdvise
  00097	2b ca		 sub	 ecx, edx

; 96   : 		memcpy(pRA->aKeyName, KeyName, pRA->nKeyNameSize);

  00099	8d 46 51	 lea	 eax, DWORD PTR [esi+81]
  0009c	51		 push	 ecx
  0009d	57		 push	 edi
  0009e	50		 push	 eax
  0009f	89 4e 4d	 mov	 DWORD PTR [esi+77], ecx
  000a2	e8 00 00 00 00	 call	 _memcpy
  000a7	83 c4 0c	 add	 esp, 12			; 0000000cH

; 97   : 		
; 98   : 		//theApp.m_DebugMng.TraceEx(IDM2_TAG_RA, nSize, pInfoBuf);
; 99   : 		theApp.m_DebugMng.TraceEx(IDM2_TAG_RA, '*', szDataName, nSize, pInfoBuf);

  000aa	56		 push	 esi
  000ab	ff 75 18	 push	 DWORD PTR _nSize$1$[ebp]
  000ae	ff 75 10	 push	 DWORD PTR _szDataName$[ebp]
  000b1	6a 2a		 push	 42			; 0000002aH
  000b3	6a 03		 push	 3
  000b5	68 e8 01 00 00	 push	 OFFSET ?theApp@@3VCPcTrMngApp@@A+488
  000ba	e8 00 00 00 00	 call	 ?TraceEx@CDebugManager@@UAGXEEPBDKPAE@Z ; CDebugManager::TraceEx

; 100  : 		
; 101  : 		delete[] pInfoBuf;

  000bf	56		 push	 esi
  000c0	e8 00 00 00 00	 call	 ??_V@YAXPAX@Z		; operator delete[]
  000c5	83 c4 04	 add	 esp, 4

; 102  : 	}
; 103  : 
; 104  : 	return TRUE;

  000c8	b8 01 00 00 00	 mov	 eax, 1
  000cd	5f		 pop	 edi
  000ce	5e		 pop	 esi
  000cf	5b		 pop	 ebx

; 105  : }

  000d0	5d		 pop	 ebp
  000d1	c2 14 00	 ret	 20			; 00000014H
?DrdsAdvise@CDrdsLib@@UAGHIPAD00@Z ENDP			; CDrdsLib::DrdsAdvise
_TEXT	ENDS
; Function compile flags: /Ogtp
; File D:\git\src\IBK\IBK_DRFN\ProjSrc\SrcDrfn\DrCommon\PcTrMng\_DrdsManager.cpp
;	COMDAT ?DrdsClose@CDrdsLib@@UAGHPAD@Z
_TEXT	SEGMENT
_this$ = 8						; size = 4
_szDataName$ = 12					; size = 4
?DrdsClose@CDrdsLib@@UAGHPAD@Z PROC			; CDrdsLib::DrdsClose, COMDAT

; 72   : 	//return m_DrdsDLL.DrdsClose(m_pDrds, m_hHandle, szDataName);
; 73   : 	return TRUE;

  00000	b8 01 00 00 00	 mov	 eax, 1

; 74   : }

  00005	c2 08 00	 ret	 8
?DrdsClose@CDrdsLib@@UAGHPAD@Z ENDP			; CDrdsLib::DrdsClose
_TEXT	ENDS
; Function compile flags: /Ogtp
; File D:\git\src\IBK\IBK_DRFN\ProjSrc\SrcDrfn\DrCommon\PcTrMng\_DrdsManager.cpp
;	COMDAT ?DrdsConnect@CDrdsLib@@UAGHPAD@Z
_TEXT	SEGMENT
_this$ = 8						; size = 4
_szDataName$ = 12					; size = 4
?DrdsConnect@CDrdsLib@@UAGHPAD@Z PROC			; CDrdsLib::DrdsConnect, COMDAT

; 67   : 	return TRUE;

  00000	b8 01 00 00 00	 mov	 eax, 1

; 68   : }

  00005	c2 08 00	 ret	 8
?DrdsConnect@CDrdsLib@@UAGHPAD@Z ENDP			; CDrdsLib::DrdsConnect
_TEXT	ENDS
; Function compile flags: /Ogtp
; File D:\git\src\IBK\IBK_DRFN\ProjSrc\SrcDrfn\DrCommon\PcTrMng\_DrdsManager.cpp
;	COMDAT ?DrdsTerm@CDrdsLib@@UAGHXZ
_TEXT	SEGMENT
_this$ = 8						; size = 4
?DrdsTerm@CDrdsLib@@UAGHXZ PROC				; CDrdsLib::DrdsTerm, COMDAT

; 62   : 	return TRUE;

  00000	b8 01 00 00 00	 mov	 eax, 1

; 63   : }

  00005	c2 04 00	 ret	 4
?DrdsTerm@CDrdsLib@@UAGHXZ ENDP				; CDrdsLib::DrdsTerm
_TEXT	ENDS
; Function compile flags: /Ogtp
; File D:\git\src\IBK\IBK_DRFN\ProjSrc\SrcDrfn\DrCommon\PcTrMng\_DrdsManager.cpp
;	COMDAT ?DrdsInit@CDrdsLib@@UAGPAXPAUHWND__@@@Z
_TEXT	SEGMENT
_this$ = 8						; size = 4
_hWnd$ = 12						; size = 4
?DrdsInit@CDrdsLib@@UAGPAXPAUHWND__@@@Z PROC		; CDrdsLib::DrdsInit, COMDAT

; 55   : {

  00000	55		 push	 ebp
  00001	8b ec		 mov	 ebp, esp

; 56   : 	m_hHandle = hWnd;

  00003	8b 4d 08	 mov	 ecx, DWORD PTR _this$[ebp]
  00006	8b 45 0c	 mov	 eax, DWORD PTR _hWnd$[ebp]
  00009	89 41 04	 mov	 DWORD PTR [ecx+4], eax

; 57   : 	return NULL;

  0000c	33 c0		 xor	 eax, eax

; 58   : }

  0000e	5d		 pop	 ebp
  0000f	c2 08 00	 ret	 8
?DrdsInit@CDrdsLib@@UAGPAXPAUHWND__@@@Z ENDP		; CDrdsLib::DrdsInit
_TEXT	ENDS
; Function compile flags: /Ogtp
; File D:\git\src\IBK\IBK_DRFN\ProjSrc\SrcDrfn\DrCommon\PcTrMng\_DrdsManager.cpp
;	COMDAT ??1CDrdsLib@@QAE@XZ
_TEXT	SEGMENT
??1CDrdsLib@@QAE@XZ PROC				; CDrdsLib::~CDrdsLib, COMDAT
; _this$ = ecx

; 51   : {

  00000	c7 01 00 00 00
	00		 mov	 DWORD PTR [ecx], OFFSET ??_7CDrdsLib@@6B@

; 52   : }

  00006	c3		 ret	 0
??1CDrdsLib@@QAE@XZ ENDP				; CDrdsLib::~CDrdsLib
_TEXT	ENDS
; Function compile flags: /Ogtp
; File D:\git\src\IBK\IBK_DRFN\ProjSrc\SrcDrfn\DrCommon\PcTrMng\_DrdsManager.cpp
;	COMDAT ??0CDrdsLib@@QAE@XZ
_TEXT	SEGMENT
??0CDrdsLib@@QAE@XZ PROC				; CDrdsLib::CDrdsLib, COMDAT
; _this$ = ecx

; 41   : {

  00000	c7 01 00 00 00
	00		 mov	 DWORD PTR [ecx], OFFSET ??_7CDrdsLib@@6B@

; 42   : 	m_hHandle = NULL;
; 43   : 	m_pDrds = NULL;
; 44   : 
; 45   : //@Solomon090819	m_pCommApiHelper = new CCommApiHelper;
; 46   : //@Solomon090819	m_pCommApiHelper->LoadCommHelper();
; 47   : //@Solomon090819	m_nConnectID = m_pCommApiHelper->CommGetConnectionID(CONNECT_ID_RQ);
; 48   : }

  00006	8b c1		 mov	 eax, ecx
  00008	c7 41 04 00 00
	00 00		 mov	 DWORD PTR [ecx+4], 0
  0000f	c7 41 08 00 00
	00 00		 mov	 DWORD PTR [ecx+8], 0
  00016	c3		 ret	 0
??0CDrdsLib@@QAE@XZ ENDP				; CDrdsLib::CDrdsLib
_TEXT	ENDS
; Function compile flags: /Ogtp
; File D:\git\src\IBK\IBK_DRFN\ProjSrc\SrcDrfn\DrCommon\PcTrMng\_DrdsManager.cpp
;	COMDAT ?UnadviseDrdsLib@CAUDrdsManager@@UAGXPAUIDrdsLib@@@Z
_TEXT	SEGMENT
_this$ = 8						; size = 4
_pDrds$ = 12						; size = 4
?UnadviseDrdsLib@CAUDrdsManager@@UAGXPAUIDrdsLib@@@Z PROC ; CAUDrdsManager::UnadviseDrdsLib, COMDAT

; 30   : {

  00000	55		 push	 ebp
  00001	8b ec		 mov	 ebp, esp

; 31   : 	if(pDrds) 

  00003	8b 45 0c	 mov	 eax, DWORD PTR _pDrds$[ebp]
  00006	85 c0		 test	 eax, eax
  00008	74 11		 je	 SHORT $LN7@UnadviseDr
  0000a	6a 0c		 push	 12			; 0000000cH
  0000c	50		 push	 eax
  0000d	c7 00 00 00 00
	00		 mov	 DWORD PTR [eax], OFFSET ??_7CDrdsLib@@6B@
  00013	e8 00 00 00 00	 call	 ??3@YAXPAXI@Z		; operator delete
  00018	83 c4 08	 add	 esp, 8
$LN7@UnadviseDr:

; 32   : 	{
; 33   : 		CDrdsLib* pTDrds = (CDrdsLib*)pDrds;
; 34   : 		delete pTDrds;
; 35   : 	}
; 36   : }

  0001b	5d		 pop	 ebp
  0001c	c2 08 00	 ret	 8
?UnadviseDrdsLib@CAUDrdsManager@@UAGXPAUIDrdsLib@@@Z ENDP ; CAUDrdsManager::UnadviseDrdsLib
_TEXT	ENDS
; Function compile flags: /Ogtp
; File D:\git\src\IBK\IBK_DRFN\ProjSrc\SrcDrfn\DrCommon\PcTrMng\_DrdsManager.cpp
;	COMDAT ?AdviseDrdsLib@CAUDrdsManager@@UAGPAUIDrdsLib@@XZ
_TEXT	SEGMENT
_this$ = 8						; size = 4
?AdviseDrdsLib@CAUDrdsManager@@UAGPAUIDrdsLib@@XZ PROC	; CAUDrdsManager::AdviseDrdsLib, COMDAT

; 24   : 	CDrdsLib* pDrds = new CDrdsLib;

  00000	6a 0c		 push	 12			; 0000000cH
  00002	e8 00 00 00 00	 call	 ??2@YAPAXI@Z		; operator new
  00007	83 c4 04	 add	 esp, 4
  0000a	85 c0		 test	 eax, eax
  0000c	74 17		 je	 SHORT $LN3@AdviseDrds

; 41   : {

  0000e	c7 00 00 00 00
	00		 mov	 DWORD PTR [eax], OFFSET ??_7CDrdsLib@@6B@

; 42   : 	m_hHandle = NULL;

  00014	c7 40 04 00 00
	00 00		 mov	 DWORD PTR [eax+4], 0

; 43   : 	m_pDrds = NULL;

  0001b	c7 40 08 00 00
	00 00		 mov	 DWORD PTR [eax+8], 0

; 27   : }

  00022	c2 04 00	 ret	 4
$LN3@AdviseDrds:

; 25   : 	
; 26   : 	return pDrds;

  00025	33 c0		 xor	 eax, eax

; 27   : }

  00027	c2 04 00	 ret	 4
?AdviseDrdsLib@CAUDrdsManager@@UAGPAUIDrdsLib@@XZ ENDP	; CAUDrdsManager::AdviseDrdsLib
_TEXT	ENDS
; Function compile flags: /Ogtp
; File C:\Program Files (x86)\Microsoft Visual Studio\2019\Community\VC\Tools\MSVC\14.29.30133\atlmfc\include\afxtempl.h
; File C:\Program Files (x86)\Microsoft Visual Studio\2019\Community\VC\Tools\MSVC\14.29.30133\atlmfc\include\afx.inl
;	COMDAT ??_G?$CList@PAUIDrdsLib@@PAU1@@@UAEPAXI@Z
_TEXT	SEGMENT
__$EHRec$ = -12						; size = 12
___flags$ = 8						; size = 4
??_G?$CList@PAUIDrdsLib@@PAU1@@@UAEPAXI@Z PROC		; CList<IDrdsLib *,IDrdsLib *>::`scalar deleting destructor', COMDAT
; _this$ = ecx
  00000	55		 push	 ebp
  00001	8b ec		 mov	 ebp, esp
  00003	6a ff		 push	 -1
  00005	68 00 00 00 00	 push	 __ehhandler$??_G?$CList@PAUIDrdsLib@@PAU1@@@UAEPAXI@Z
  0000a	64 a1 00 00 00
	00		 mov	 eax, DWORD PTR fs:0
  00010	50		 push	 eax
  00011	56		 push	 esi
  00012	a1 00 00 00 00	 mov	 eax, DWORD PTR ___security_cookie
  00017	33 c5		 xor	 eax, ebp
  00019	50		 push	 eax
  0001a	8d 45 f4	 lea	 eax, DWORD PTR __$EHRec$[ebp]
  0001d	64 a3 00 00 00
	00		 mov	 DWORD PTR fs:0, eax
  00023	8b f1		 mov	 esi, ecx
; File C:\Program Files (x86)\Microsoft Visual Studio\2019\Community\VC\Tools\MSVC\14.29.30133\atlmfc\include\afxtempl.h

; 872  : 	m_pBlocks->FreeDataChain();

  00025	8b 4e 14	 mov	 ecx, DWORD PTR [esi+20]

; 878  : {

  00028	c7 45 fc 00 00
	00 00		 mov	 DWORD PTR __$EHRec$[ebp+8], 0
  0002f	c7 06 00 00 00
	00		 mov	 DWORD PTR [esi], OFFSET ??_7?$CList@PAUIDrdsLib@@PAU1@@@6B@

; 870  : 	m_nCount = 0;

  00035	c7 46 0c 00 00
	00 00		 mov	 DWORD PTR [esi+12], 0

; 871  : 	m_pNodeHead = m_pNodeTail = m_pNodeFree = NULL;

  0003c	c7 46 10 00 00
	00 00		 mov	 DWORD PTR [esi+16], 0
  00043	c7 46 08 00 00
	00 00		 mov	 DWORD PTR [esi+8], 0
  0004a	c7 46 04 00 00
	00 00		 mov	 DWORD PTR [esi+4], 0

; 872  : 	m_pBlocks->FreeDataChain();

  00051	e8 00 00 00 00	 call	 ?FreeDataChain@CPlex@@QAEXXZ ; CPlex::FreeDataChain

; 873  : 	m_pBlocks = NULL;

  00056	8b 45 08	 mov	 eax, DWORD PTR ___flags$[ebp]
  00059	c7 46 14 00 00
	00 00		 mov	 DWORD PTR [esi+20], 0
  00060	a8 01		 test	 al, 1
  00062	74 2c		 je	 SHORT $LN22@scalar
  00064	a8 04		 test	 al, 4
  00066	75 1d		 jne	 SHORT $LN3@scalar
; File C:\Program Files (x86)\Microsoft Visual Studio\2019\Community\VC\Tools\MSVC\14.29.30133\atlmfc\include\afx.inl

; 112  : 	{ ::operator delete(p); }

  00068	56		 push	 esi
  00069	e8 00 00 00 00	 call	 ??3@YAXPAX@Z		; operator delete
  0006e	83 c4 04	 add	 esp, 4
  00071	8b c6		 mov	 eax, esi
  00073	8b 4d f4	 mov	 ecx, DWORD PTR __$EHRec$[ebp]
  00076	64 89 0d 00 00
	00 00		 mov	 DWORD PTR fs:0, ecx
  0007d	59		 pop	 ecx
  0007e	5e		 pop	 esi
  0007f	8b e5		 mov	 esp, ebp
  00081	5d		 pop	 ebp
  00082	c2 04 00	 ret	 4
$LN3@scalar:
  00085	6a 1c		 push	 28			; 0000001cH
  00087	56		 push	 esi
  00088	e8 00 00 00 00	 call	 ?__global_delete@@YAXPAXI@Z ; __global_delete
  0008d	83 c4 08	 add	 esp, 8
$LN22@scalar:
  00090	8b c6		 mov	 eax, esi
  00092	8b 4d f4	 mov	 ecx, DWORD PTR __$EHRec$[ebp]
  00095	64 89 0d 00 00
	00 00		 mov	 DWORD PTR fs:0, ecx
  0009c	59		 pop	 ecx
  0009d	5e		 pop	 esi
  0009e	8b e5		 mov	 esp, ebp
  000a0	5d		 pop	 ebp
  000a1	c2 04 00	 ret	 4
  000a4	cc		 int	 3
  000a5	cc		 int	 3
  000a6	cc		 int	 3
  000a7	cc		 int	 3
  000a8	cc		 int	 3
_TEXT	ENDS
;	COMDAT text$x
text$x	SEGMENT
__ehhandler$??_G?$CList@PAUIDrdsLib@@PAU1@@@UAEPAXI@Z:
  00000	90		 npad	 1
  00001	90		 npad	 1
  00002	8b 54 24 08	 mov	 edx, DWORD PTR [esp+8]
  00006	8d 42 0c	 lea	 eax, DWORD PTR [edx+12]
  00009	8b 4a f8	 mov	 ecx, DWORD PTR [edx-8]
  0000c	33 c8		 xor	 ecx, eax
  0000e	e8 00 00 00 00	 call	 @__security_check_cookie@4
  00013	b8 00 00 00 00	 mov	 eax, OFFSET __ehfuncinfo$??_G?$CList@PAUIDrdsLib@@PAU1@@@UAEPAXI@Z
  00018	e9 00 00 00 00	 jmp	 ___CxxFrameHandler3
text$x	ENDS
??_G?$CList@PAUIDrdsLib@@PAU1@@@UAEPAXI@Z ENDP		; CList<IDrdsLib *,IDrdsLib *>::`scalar deleting destructor'
; Function compile flags: /Ogtp
; File C:\Program Files (x86)\Microsoft Visual Studio\2019\Community\VC\Tools\MSVC\14.29.30133\atlmfc\include\afxtempl.h
; File C:\Program Files (x86)\Microsoft Visual Studio\2019\Community\VC\Tools\MSVC\14.29.30133\atlmfc\include\afx.inl
; File C:\Program Files (x86)\Microsoft Visual Studio\2019\Community\VC\Tools\MSVC\14.29.30133\atlmfc\include\afxtempl.h
; File C:\Program Files (x86)\Microsoft Visual Studio\2019\Community\VC\Tools\MSVC\14.29.30133\atlmfc\include\afx.inl
; File C:\Program Files (x86)\Microsoft Visual Studio\2019\Community\VC\Tools\MSVC\14.29.30133\atlmfc\include\afxtempl.h
; File C:\Program Files (x86)\Microsoft Visual Studio\2019\Community\VC\Tools\MSVC\14.29.30133\atlmfc\include\afx.inl
; File C:\Program Files (x86)\Microsoft Visual Studio\2019\Community\VC\Tools\MSVC\14.29.30133\atlmfc\include\afxtempl.h
; File C:\Program Files (x86)\Microsoft Visual Studio\2019\Community\VC\Tools\MSVC\14.29.30133\atlmfc\include\afx.inl
; File C:\Program Files (x86)\Microsoft Visual Studio\2019\Community\VC\Tools\MSVC\14.29.30133\atlmfc\include\afxtempl.h
; File C:\Program Files (x86)\Microsoft Visual Studio\2019\Community\VC\Tools\MSVC\14.29.30133\atlmfc\include\afx.inl
; File C:\Program Files (x86)\Microsoft Visual Studio\2019\Community\VC\Tools\MSVC\14.29.30133\atlmfc\include\afxtempl.h
; File C:\Program Files (x86)\Microsoft Visual Studio\2019\Community\VC\Tools\MSVC\14.29.30133\atlmfc\include\afx.inl
; File C:\Program Files (x86)\Microsoft Visual Studio\2019\Community\VC\Tools\MSVC\14.29.30133\atlmfc\include\afxtempl.h
;	COMDAT ?Serialize@?$CList@PAUIDrdsLib@@PAU1@@@UAEXAAVCArchive@@@Z
_TEXT	SEGMENT
_nNewCount$1$ = -16					; size = 4
_newData$1 = -12					; size = 4
_pData$1$ = -8						; size = 4
_pData$1$ = -8						; size = 4
_pNode$1$ = -8						; size = 4
_nElementsLeft$1$ = -4					; size = 4
_this$1$ = -4						; size = 4
_ar$ = 8						; size = 4
?Serialize@?$CList@PAUIDrdsLib@@PAU1@@@UAEXAAVCArchive@@@Z PROC ; CList<IDrdsLib *,IDrdsLib *>::Serialize, COMDAT
; _this$ = ecx

; 1169 : {

  00000	55		 push	 ebp
  00001	8b ec		 mov	 ebp, esp
  00003	83 ec 10	 sub	 esp, 16			; 00000010H
  00006	53		 push	 ebx
  00007	8b d9		 mov	 ebx, ecx
; File C:\Program Files (x86)\Microsoft Visual Studio\2019\Community\VC\Tools\MSVC\14.29.30133\atlmfc\include\afx.inl

; 212  : 	{ return (m_nMode & CArchive::load) == 0; }

  00009	8b 4d 08	 mov	 ecx, DWORD PTR _ar$[ebp]
; File C:\Program Files (x86)\Microsoft Visual Studio\2019\Community\VC\Tools\MSVC\14.29.30133\atlmfc\include\afxtempl.h

; 1169 : {

  0000c	56		 push	 esi
  0000d	57		 push	 edi
  0000e	89 5d fc	 mov	 DWORD PTR _this$1$[ebp], ebx
; File C:\Program Files (x86)\Microsoft Visual Studio\2019\Community\VC\Tools\MSVC\14.29.30133\atlmfc\include\afx.inl

; 212  : 	{ return (m_nMode & CArchive::load) == 0; }

  00011	8b 41 18	 mov	 eax, DWORD PTR [ecx+24]
  00014	f7 d0		 not	 eax
  00016	a8 01		 test	 al, 1
; File C:\Program Files (x86)\Microsoft Visual Studio\2019\Community\VC\Tools\MSVC\14.29.30133\atlmfc\include\afxtempl.h

; 1174 : 	if (ar.IsStoring())

  00018	0f 84 ae 00 00
	00		 je	 $LN7@Serialize

; 1175 : 	{
; 1176 : 		ar.WriteCount(m_nCount);

  0001e	ff 73 0c	 push	 DWORD PTR [ebx+12]
  00021	e8 00 00 00 00	 call	 ?WriteCount@CArchive@@QAEXK@Z ; CArchive::WriteCount

; 1177 : 		for (CNode* pNode = m_pNodeHead; pNode != NULL; pNode = pNode->pNext)

  00026	8b 43 04	 mov	 eax, DWORD PTR [ebx+4]
  00029	89 45 f8	 mov	 DWORD PTR _pNode$1$[ebp], eax
  0002c	85 c0		 test	 eax, eax
  0002e	0f 84 b9 01 00
	00		 je	 $LN86@Serialize
$LL4@Serialize:

; 1178 : 		{
; 1179 : 			ASSERT(AfxIsValidAddress(pNode, sizeof(CNode)));
; 1180 : 			TYPE* pData;
; 1181 : 			/*
; 1182 : 			 * in some cases the & operator might be overloaded, and we cannot use it to obtain
; 1183 : 			 * the address of a given object.  We then use the following trick to get the address
; 1184 : 			 */
; 1185 : 			pData = reinterpret_cast< TYPE* >( &reinterpret_cast< int& >( static_cast< TYPE& >( pNode->data ) ) );

  00034	8d 70 08	 lea	 esi, DWORD PTR [eax+8]

; 68   : 	ENSURE(nCount == 0 || pElements != NULL);

  00037	85 f6		 test	 esi, esi
  00039	0f 84 c0 01 00
	00		 je	 $LN76@Serialize
; File C:\Program Files (x86)\Microsoft Visual Studio\2019\Community\VC\Tools\MSVC\14.29.30133\atlmfc\include\afx.inl

; 212  : 	{ return (m_nMode & CArchive::load) == 0; }

  0003f	8b 4d 08	 mov	 ecx, DWORD PTR _ar$[ebp]
  00042	8b 41 18	 mov	 eax, DWORD PTR [ecx+24]
  00045	f7 d0		 not	 eax
  00047	a8 01		 test	 al, 1
; File C:\Program Files (x86)\Microsoft Visual Studio\2019\Community\VC\Tools\MSVC\14.29.30133\atlmfc\include\afxtempl.h

; 73   : 	if (ar.IsStoring())

  00049	74 33		 je	 SHORT $LN21@Serialize

; 74   : 	{
; 75   : 		TYPE* pData;
; 76   : 		UINT_PTR nElementsLeft;
; 77   : 
; 78   : 		nElementsLeft = nCount;

  0004b	b8 01 00 00 00	 mov	 eax, 1
  00050	89 45 fc	 mov	 DWORD PTR _nElementsLeft$1$[ebp], eax
$LL16@Serialize:

; 80   : 		while( nElementsLeft > 0 )
; 81   : 		{
; 82   : 			UINT nElementsToWrite;
; 83   : 
; 84   : 			nElementsToWrite = UINT(__min(nElementsLeft, INT_MAX/sizeof(TYPE)));

  00053	bb ff ff ff 1f	 mov	 ebx, 536870911		; 1fffffffH
  00058	3b c3		 cmp	 eax, ebx
  0005a	0f 42 d8	 cmovb	 ebx, eax

; 85   : 			ar.Write(pData, nElementsToWrite*sizeof(TYPE));

  0005d	8d 3c 9d 00 00
	00 00		 lea	 edi, DWORD PTR [ebx*4]
  00064	57		 push	 edi
  00065	56		 push	 esi
  00066	e8 00 00 00 00	 call	 ?Write@CArchive@@QAEXPBXI@Z ; CArchive::Write

; 86   : 			nElementsLeft -= nElementsToWrite;

  0006b	8b 45 fc	 mov	 eax, DWORD PTR _nElementsLeft$1$[ebp]

; 87   : 			pData += nElementsToWrite;

  0006e	03 f7		 add	 esi, edi
  00070	8b 4d 08	 mov	 ecx, DWORD PTR _ar$[ebp]
  00073	2b c3		 sub	 eax, ebx
  00075	89 45 fc	 mov	 DWORD PTR _nElementsLeft$1$[ebp], eax
  00078	85 c0		 test	 eax, eax
  0007a	75 d7		 jne	 SHORT $LL16@Serialize

; 88   : 		}
; 89   : 	}

  0007c	eb 35		 jmp	 SHORT $LN2@Serialize
$LN21@Serialize:

; 90   : 	else
; 91   : 	{
; 92   : 		TYPE* pData;
; 93   : 		UINT_PTR nElementsLeft;
; 94   : 
; 95   : 		nElementsLeft = nCount;

  0007e	bf 01 00 00 00	 mov	 edi, 1
$LL18@Serialize:

; 98   : 		{
; 99   : 			UINT nElementsToRead;
; 100  : 
; 101  : 			nElementsToRead = UINT(__min(nElementsLeft, INT_MAX/sizeof(TYPE)));

  00083	bb ff ff ff 1f	 mov	 ebx, 536870911		; 1fffffffH
  00088	3b fb		 cmp	 edi, ebx
  0008a	0f 42 df	 cmovb	 ebx, edi

; 102  : 			ar.EnsureRead(pData, nElementsToRead*sizeof(TYPE));

  0008d	8d 04 9d 00 00
	00 00		 lea	 eax, DWORD PTR [ebx*4]
; File C:\Program Files (x86)\Microsoft Visual Studio\2019\Community\VC\Tools\MSVC\14.29.30133\atlmfc\include\afx.inl

; 399  : 	UINT nRead=Read(lpBuf, nCount);

  00094	50		 push	 eax
  00095	56		 push	 esi
  00096	e8 00 00 00 00	 call	 ?Read@CArchive@@QAEIPAXI@Z ; CArchive::Read

; 400  : 	if(nRead!=nCount)

  0009b	8d 0c 9d 00 00
	00 00		 lea	 ecx, DWORD PTR [ebx*4]
  000a2	3b c1		 cmp	 eax, ecx
  000a4	0f 85 4c 01 00
	00		 jne	 $LN75@Serialize
; File C:\Program Files (x86)\Microsoft Visual Studio\2019\Community\VC\Tools\MSVC\14.29.30133\atlmfc\include\afxtempl.h

; 97   : 		while( nElementsLeft > 0 )

  000aa	03 f1		 add	 esi, ecx
  000ac	8b 4d 08	 mov	 ecx, DWORD PTR _ar$[ebp]

; 103  : 			nElementsLeft -= nElementsToRead;

  000af	2b fb		 sub	 edi, ebx
  000b1	75 d0		 jne	 SHORT $LL18@Serialize
$LN2@Serialize:

; 1177 : 		for (CNode* pNode = m_pNodeHead; pNode != NULL; pNode = pNode->pNext)

  000b3	8b 45 f8	 mov	 eax, DWORD PTR _pNode$1$[ebp]
  000b6	8b 00		 mov	 eax, DWORD PTR [eax]
  000b8	89 45 f8	 mov	 DWORD PTR _pNode$1$[ebp], eax
  000bb	85 c0		 test	 eax, eax
  000bd	0f 85 71 ff ff
	ff		 jne	 $LL4@Serialize

; 1197 : 		}
; 1198 : 	}
; 1199 : }

  000c3	5f		 pop	 edi
  000c4	5e		 pop	 esi
  000c5	5b		 pop	 ebx
  000c6	8b e5		 mov	 esp, ebp
  000c8	5d		 pop	 ebp
  000c9	c2 04 00	 ret	 4
$LN7@Serialize:

; 1186 : 			SerializeElements<TYPE>(ar, pData, 1);
; 1187 : 		}
; 1188 : 	}
; 1189 : 	else
; 1190 : 	{
; 1191 : 		DWORD_PTR nNewCount = ar.ReadCount();

  000cc	e8 00 00 00 00	 call	 ?ReadCount@CArchive@@QAEKXZ ; CArchive::ReadCount

; 1192 : 		while (nNewCount--)

  000d1	85 c0		 test	 eax, eax
  000d3	0f 84 14 01 00
	00		 je	 $LN86@Serialize
  000d9	0f 1f 80 00 00
	00 00		 npad	 7
$LL5@Serialize:
  000e0	48		 dec	 eax
  000e1	89 45 f0	 mov	 DWORD PTR _nNewCount$1$[ebp], eax
; File C:\Program Files (x86)\Microsoft Visual Studio\2019\Community\VC\Tools\MSVC\14.29.30133\atlmfc\include\afx.inl

; 212  : 	{ return (m_nMode & CArchive::load) == 0; }

  000e4	8b 45 08	 mov	 eax, DWORD PTR _ar$[ebp]
  000e7	8b 48 18	 mov	 ecx, DWORD PTR [eax+24]
  000ea	f7 d1		 not	 ecx
  000ec	f6 c1 01	 test	 cl, 1
; File C:\Program Files (x86)\Microsoft Visual Studio\2019\Community\VC\Tools\MSVC\14.29.30133\atlmfc\include\afxtempl.h

; 73   : 	if (ar.IsStoring())

  000ef	74 3d		 je	 SHORT $LN42@Serialize

; 79   : 		pData = pElements;

  000f1	8d 4d f4	 lea	 ecx, DWORD PTR _newData$1[ebp]
  000f4	bb 01 00 00 00	 mov	 ebx, 1
  000f9	89 4d f8	 mov	 DWORD PTR _pData$1$[ebp], ecx
  000fc	0f 1f 40 00	 npad	 4
$LL37@Serialize:

; 80   : 		while( nElementsLeft > 0 )
; 81   : 		{
; 82   : 			UINT nElementsToWrite;
; 83   : 
; 84   : 			nElementsToWrite = UINT(__min(nElementsLeft, INT_MAX/sizeof(TYPE)));

  00100	bf ff ff ff 1f	 mov	 edi, 536870911		; 1fffffffH
  00105	3b df		 cmp	 ebx, edi
  00107	0f 42 fb	 cmovb	 edi, ebx

; 85   : 			ar.Write(pData, nElementsToWrite*sizeof(TYPE));

  0010a	8d 34 bd 00 00
	00 00		 lea	 esi, DWORD PTR [edi*4]
  00111	56		 push	 esi
  00112	51		 push	 ecx
  00113	8b c8		 mov	 ecx, eax
  00115	e8 00 00 00 00	 call	 ?Write@CArchive@@QAEXPBXI@Z ; CArchive::Write

; 87   : 			pData += nElementsToWrite;

  0011a	8b 4d f8	 mov	 ecx, DWORD PTR _pData$1$[ebp]
  0011d	8b 45 08	 mov	 eax, DWORD PTR _ar$[ebp]
  00120	03 ce		 add	 ecx, esi
  00122	89 4d f8	 mov	 DWORD PTR _pData$1$[ebp], ecx
  00125	2b df		 sub	 ebx, edi
  00127	75 d7		 jne	 SHORT $LL37@Serialize

; 88   : 		}
; 89   : 	}

  00129	8b 5d fc	 mov	 ebx, DWORD PTR _this$1$[ebp]
  0012c	eb 4a		 jmp	 SHORT $LN40@Serialize
$LN42@Serialize:

; 96   : 		pData = pElements;

  0012e	8d 55 f4	 lea	 edx, DWORD PTR _newData$1[ebp]
  00131	be 01 00 00 00	 mov	 esi, 1
  00136	89 55 f8	 mov	 DWORD PTR _pData$1$[ebp], edx
  00139	0f 1f 80 00 00
	00 00		 npad	 7
$LL39@Serialize:

; 98   : 		{
; 99   : 			UINT nElementsToRead;
; 100  : 
; 101  : 			nElementsToRead = UINT(__min(nElementsLeft, INT_MAX/sizeof(TYPE)));

  00140	bf ff ff ff 1f	 mov	 edi, 536870911		; 1fffffffH
  00145	3b f7		 cmp	 esi, edi
  00147	0f 42 fe	 cmovb	 edi, esi

; 102  : 			ar.EnsureRead(pData, nElementsToRead*sizeof(TYPE));

  0014a	8d 0c bd 00 00
	00 00		 lea	 ecx, DWORD PTR [edi*4]
; File C:\Program Files (x86)\Microsoft Visual Studio\2019\Community\VC\Tools\MSVC\14.29.30133\atlmfc\include\afx.inl

; 399  : 	UINT nRead=Read(lpBuf, nCount);

  00151	51		 push	 ecx
  00152	52		 push	 edx
  00153	8b c8		 mov	 ecx, eax
  00155	e8 00 00 00 00	 call	 ?Read@CArchive@@QAEIPAXI@Z ; CArchive::Read

; 400  : 	if(nRead!=nCount)

  0015a	8d 0c bd 00 00
	00 00		 lea	 ecx, DWORD PTR [edi*4]
  00161	3b c1		 cmp	 eax, ecx
  00163	0f 85 8d 00 00
	00		 jne	 $LN75@Serialize
; File C:\Program Files (x86)\Microsoft Visual Studio\2019\Community\VC\Tools\MSVC\14.29.30133\atlmfc\include\afxtempl.h

; 97   : 		while( nElementsLeft > 0 )

  00169	8b 55 f8	 mov	 edx, DWORD PTR _pData$1$[ebp]
  0016c	8b 45 08	 mov	 eax, DWORD PTR _ar$[ebp]

; 104  : 			pData += nElementsToRead;

  0016f	03 d1		 add	 edx, ecx
  00171	89 55 f8	 mov	 DWORD PTR _pData$1$[ebp], edx
  00174	2b f7		 sub	 esi, edi
  00176	75 c8		 jne	 SHORT $LL39@Serialize
$LN40@Serialize:

; 902  : 	if (m_pNodeFree == NULL)

  00178	83 7b 10 00	 cmp	 DWORD PTR [ebx+16], 0

; 1193 : 		{
; 1194 : 			TYPE newData[1];
; 1195 : 			SerializeElements<TYPE>(ar, newData, 1);
; 1196 : 			AddTail(newData[0]);

  0017c	8b 75 f4	 mov	 esi, DWORD PTR _newData$1[ebp]

; 968  : 	CNode* pNewNode = NewNode(m_pNodeTail, NULL);

  0017f	8b 7b 08	 mov	 edi, DWORD PTR [ebx+8]

; 902  : 	if (m_pNodeFree == NULL)

  00182	75 32		 jne	 SHORT $LN63@Serialize

; 903  : 	{
; 904  : 		// add another block
; 905  : 		CPlex* pNewBlock = CPlex::Create(m_pBlocks, m_nBlockSize,

  00184	6a 0c		 push	 12			; 0000000cH
  00186	ff 73 18	 push	 DWORD PTR [ebx+24]
  00189	8d 43 14	 lea	 eax, DWORD PTR [ebx+20]
  0018c	50		 push	 eax
  0018d	e8 00 00 00 00	 call	 ?Create@CPlex@@SGPAU1@AAPAU1@II@Z ; CPlex::Create

; 906  : 				 sizeof(CNode));
; 907  : 
; 908  : 		// chain them into free list
; 909  : 		CNode* pNode = (CNode*) pNewBlock->data();
; 910  : 		// free in reverse order to make it easier to debug
; 911  : 		pNode += m_nBlockSize - 1;

  00192	8b 53 18	 mov	 edx, DWORD PTR [ebx+24]
  00195	83 c0 08	 add	 eax, 8
  00198	8d 4a ff	 lea	 ecx, DWORD PTR [edx-1]

; 912  : 		for (INT_PTR i = m_nBlockSize-1; i >= 0; i--, pNode--)

  0019b	83 c2 ff	 add	 edx, -1
  0019e	8d 0c 49	 lea	 ecx, DWORD PTR [ecx+ecx*2]
  001a1	8d 0c 88	 lea	 ecx, DWORD PTR [eax+ecx*4]
  001a4	78 10		 js	 SHORT $LN63@Serialize
$LL60@Serialize:

; 913  : 		{
; 914  : 			pNode->pNext = m_pNodeFree;

  001a6	8b 43 10	 mov	 eax, DWORD PTR [ebx+16]
  001a9	89 01		 mov	 DWORD PTR [ecx], eax

; 915  : 			m_pNodeFree = pNode;

  001ab	89 4b 10	 mov	 DWORD PTR [ebx+16], ecx
  001ae	83 e9 0c	 sub	 ecx, 12			; 0000000cH
  001b1	83 ea 01	 sub	 edx, 1
  001b4	79 f0		 jns	 SHORT $LL60@Serialize
$LN63@Serialize:

; 916  : 		}
; 917  : 	}
; 918  : 	ENSURE(m_pNodeFree != NULL);  // we must have something

  001b6	8b 4b 10	 mov	 ecx, DWORD PTR [ebx+16]
  001b9	85 c9		 test	 ecx, ecx
  001bb	74 42		 je	 SHORT $LN76@Serialize

; 919  : 
; 920  : 	CList::CNode* pNode = m_pNodeFree;
; 921  : 	m_pNodeFree = m_pNodeFree->pNext;

  001bd	8b 01		 mov	 eax, DWORD PTR [ecx]
  001bf	89 43 10	 mov	 DWORD PTR [ebx+16], eax

; 922  : 	pNode->pPrev = pPrev;

  001c2	89 79 04	 mov	 DWORD PTR [ecx+4], edi

; 923  : 	pNode->pNext = pNext;

  001c5	c7 01 00 00 00
	00		 mov	 DWORD PTR [ecx], 0

; 924  : 	m_nCount++;

  001cb	ff 43 0c	 inc	 DWORD PTR [ebx+12]

; 969  : 	pNewNode->data = newElement;

  001ce	89 71 08	 mov	 DWORD PTR [ecx+8], esi

; 970  : 	if (m_pNodeTail != NULL)

  001d1	8b 43 08	 mov	 eax, DWORD PTR [ebx+8]
  001d4	85 c0		 test	 eax, eax
  001d6	74 04		 je	 SHORT $LN54@Serialize

; 971  : 		m_pNodeTail->pNext = pNewNode;

  001d8	89 08		 mov	 DWORD PTR [eax], ecx
  001da	eb 03		 jmp	 SHORT $LN55@Serialize
$LN54@Serialize:

; 972  : 	else
; 973  : 		m_pNodeHead = pNewNode;

  001dc	89 4b 04	 mov	 DWORD PTR [ebx+4], ecx
$LN55@Serialize:

; 1192 : 		while (nNewCount--)

  001df	8b 45 f0	 mov	 eax, DWORD PTR _nNewCount$1$[ebp]

; 974  : 	m_pNodeTail = pNewNode;

  001e2	89 4b 08	 mov	 DWORD PTR [ebx+8], ecx

; 1192 : 		while (nNewCount--)

  001e5	85 c0		 test	 eax, eax
  001e7	0f 85 f3 fe ff
	ff		 jne	 $LL5@Serialize
$LN86@Serialize:
  001ed	5f		 pop	 edi

; 1197 : 		}
; 1198 : 	}
; 1199 : }

  001ee	5e		 pop	 esi
  001ef	5b		 pop	 ebx
  001f0	8b e5		 mov	 esp, ebp
  001f2	5d		 pop	 ebp
  001f3	c2 04 00	 ret	 4
$LN75@Serialize:
  001f6	6a 00		 push	 0
  001f8	6a 03		 push	 3
  001fa	e8 00 00 00 00	 call	 ?AfxThrowArchiveException@@YGXHPBD@Z ; AfxThrowArchiveException
$LN76@Serialize:
  001ff	e8 00 00 00 00	 call	 ?AfxThrowInvalidArgException@@YGXXZ ; AfxThrowInvalidArgException
$LN105@Serialize:
  00204	cc		 int	 3
?Serialize@?$CList@PAUIDrdsLib@@PAU1@@@UAEXAAVCArchive@@@Z ENDP ; CList<IDrdsLib *,IDrdsLib *>::Serialize
_TEXT	ENDS
; Function compile flags: /Ogtp
; File C:\Program Files (x86)\Microsoft Visual Studio\2019\Community\VC\Tools\MSVC\14.29.30133\atlmfc\include\afxtempl.h
;	COMDAT ??1?$CList@PAUIDrdsLib@@PAU1@@@UAE@XZ
_TEXT	SEGMENT
__$EHRec$ = -12						; size = 12
??1?$CList@PAUIDrdsLib@@PAU1@@@UAE@XZ PROC		; CList<IDrdsLib *,IDrdsLib *>::~CList<IDrdsLib *,IDrdsLib *>, COMDAT
; _this$ = ecx

; 878  : {

  00000	55		 push	 ebp
  00001	8b ec		 mov	 ebp, esp
  00003	6a ff		 push	 -1
  00005	68 00 00 00 00	 push	 __ehhandler$??1?$CList@PAUIDrdsLib@@PAU1@@@UAE@XZ
  0000a	64 a1 00 00 00
	00		 mov	 eax, DWORD PTR fs:0
  00010	50		 push	 eax
  00011	56		 push	 esi
  00012	a1 00 00 00 00	 mov	 eax, DWORD PTR ___security_cookie
  00017	33 c5		 xor	 eax, ebp
  00019	50		 push	 eax
  0001a	8d 45 f4	 lea	 eax, DWORD PTR __$EHRec$[ebp]
  0001d	64 a3 00 00 00
	00		 mov	 DWORD PTR fs:0, eax
  00023	8b f1		 mov	 esi, ecx

; 872  : 	m_pBlocks->FreeDataChain();

  00025	8b 4e 14	 mov	 ecx, DWORD PTR [esi+20]

; 878  : {

  00028	c7 06 00 00 00
	00		 mov	 DWORD PTR [esi], OFFSET ??_7?$CList@PAUIDrdsLib@@PAU1@@@6B@

; 870  : 	m_nCount = 0;

  0002e	c7 46 0c 00 00
	00 00		 mov	 DWORD PTR [esi+12], 0

; 871  : 	m_pNodeHead = m_pNodeTail = m_pNodeFree = NULL;

  00035	c7 46 10 00 00
	00 00		 mov	 DWORD PTR [esi+16], 0
  0003c	c7 46 08 00 00
	00 00		 mov	 DWORD PTR [esi+8], 0
  00043	c7 46 04 00 00
	00 00		 mov	 DWORD PTR [esi+4], 0

; 872  : 	m_pBlocks->FreeDataChain();

  0004a	e8 00 00 00 00	 call	 ?FreeDataChain@CPlex@@QAEXXZ ; CPlex::FreeDataChain

; 873  : 	m_pBlocks = NULL;

  0004f	c7 46 14 00 00
	00 00		 mov	 DWORD PTR [esi+20], 0

; 879  : 	RemoveAll();
; 880  : 	ASSERT(m_nCount == 0);
; 881  : }

  00056	8b 4d f4	 mov	 ecx, DWORD PTR __$EHRec$[ebp]
  00059	64 89 0d 00 00
	00 00		 mov	 DWORD PTR fs:0, ecx
  00060	59		 pop	 ecx
  00061	5e		 pop	 esi
  00062	8b e5		 mov	 esp, ebp
  00064	5d		 pop	 ebp
  00065	c3		 ret	 0
  00066	cc		 int	 3
  00067	cc		 int	 3
  00068	cc		 int	 3
  00069	cc		 int	 3
  0006a	cc		 int	 3
_TEXT	ENDS
;	COMDAT text$x
text$x	SEGMENT
__ehhandler$??1?$CList@PAUIDrdsLib@@PAU1@@@UAE@XZ:
  00000	90		 npad	 1
  00001	90		 npad	 1
  00002	8b 54 24 08	 mov	 edx, DWORD PTR [esp+8]
  00006	8d 42 0c	 lea	 eax, DWORD PTR [edx+12]
  00009	8b 4a f8	 mov	 ecx, DWORD PTR [edx-8]
  0000c	33 c8		 xor	 ecx, eax
  0000e	e8 00 00 00 00	 call	 @__security_check_cookie@4
  00013	b8 00 00 00 00	 mov	 eax, OFFSET __ehfuncinfo$??1?$CList@PAUIDrdsLib@@PAU1@@@UAE@XZ
  00018	e9 00 00 00 00	 jmp	 ___CxxFrameHandler3
text$x	ENDS
??1?$CList@PAUIDrdsLib@@PAU1@@@UAE@XZ ENDP		; CList<IDrdsLib *,IDrdsLib *>::~CList<IDrdsLib *,IDrdsLib *>
; Function compile flags: /Ogtp
; File C:\Program Files (x86)\Microsoft Visual Studio\2019\Community\VC\Tools\MSVC\14.29.30133\atlmfc\include\afxtempl.h
;	COMDAT ?NewNode@?$CList@PAUIDrdsLib@@PAU1@@@IAEPAUCNode@1@PAU21@0@Z
_TEXT	SEGMENT
_pPrev$ = 8						; size = 4
_pNext$ = 12						; size = 4
?NewNode@?$CList@PAUIDrdsLib@@PAU1@@@IAEPAUCNode@1@PAU21@0@Z PROC ; CList<IDrdsLib *,IDrdsLib *>::NewNode, COMDAT
; _this$ = ecx

; 901  : {

  00000	55		 push	 ebp
  00001	8b ec		 mov	 ebp, esp
  00003	56		 push	 esi
  00004	8b f1		 mov	 esi, ecx

; 902  : 	if (m_pNodeFree == NULL)

  00006	83 7e 10 00	 cmp	 DWORD PTR [esi+16], 0
  0000a	75 34		 jne	 SHORT $LN7@NewNode

; 903  : 	{
; 904  : 		// add another block
; 905  : 		CPlex* pNewBlock = CPlex::Create(m_pBlocks, m_nBlockSize,

  0000c	6a 0c		 push	 12			; 0000000cH
  0000e	ff 76 18	 push	 DWORD PTR [esi+24]
  00011	8d 46 14	 lea	 eax, DWORD PTR [esi+20]
  00014	50		 push	 eax
  00015	e8 00 00 00 00	 call	 ?Create@CPlex@@SGPAU1@AAPAU1@II@Z ; CPlex::Create

; 906  : 				 sizeof(CNode));
; 907  : 
; 908  : 		// chain them into free list
; 909  : 		CNode* pNode = (CNode*) pNewBlock->data();
; 910  : 		// free in reverse order to make it easier to debug
; 911  : 		pNode += m_nBlockSize - 1;

  0001a	8b 56 18	 mov	 edx, DWORD PTR [esi+24]
  0001d	83 c0 08	 add	 eax, 8
  00020	8d 0c 52	 lea	 ecx, DWORD PTR [edx+edx*2]
  00023	8d 04 88	 lea	 eax, DWORD PTR [eax+ecx*4]
  00026	83 c0 f4	 add	 eax, -12		; fffffff4H

; 912  : 		for (INT_PTR i = m_nBlockSize-1; i >= 0; i--, pNode--)

  00029	83 c2 ff	 add	 edx, -1
  0002c	78 12		 js	 SHORT $LN7@NewNode
  0002e	66 90		 npad	 2
$LL4@NewNode:

; 913  : 		{
; 914  : 			pNode->pNext = m_pNodeFree;

  00030	8b 4e 10	 mov	 ecx, DWORD PTR [esi+16]
  00033	89 08		 mov	 DWORD PTR [eax], ecx

; 915  : 			m_pNodeFree = pNode;

  00035	89 46 10	 mov	 DWORD PTR [esi+16], eax
  00038	83 e8 0c	 sub	 eax, 12			; 0000000cH
  0003b	83 ea 01	 sub	 edx, 1
  0003e	79 f0		 jns	 SHORT $LL4@NewNode
$LN7@NewNode:

; 916  : 		}
; 917  : 	}
; 918  : 	ENSURE(m_pNodeFree != NULL);  // we must have something

  00040	8b 46 10	 mov	 eax, DWORD PTR [esi+16]
  00043	85 c0		 test	 eax, eax
  00045	74 18		 je	 SHORT $LN17@NewNode

; 919  : 
; 920  : 	CList::CNode* pNode = m_pNodeFree;
; 921  : 	m_pNodeFree = m_pNodeFree->pNext;

  00047	8b 08		 mov	 ecx, DWORD PTR [eax]
  00049	89 4e 10	 mov	 DWORD PTR [esi+16], ecx

; 922  : 	pNode->pPrev = pPrev;

  0004c	8b 4d 08	 mov	 ecx, DWORD PTR _pPrev$[ebp]
  0004f	89 48 04	 mov	 DWORD PTR [eax+4], ecx

; 923  : 	pNode->pNext = pNext;

  00052	8b 4d 0c	 mov	 ecx, DWORD PTR _pNext$[ebp]
  00055	89 08		 mov	 DWORD PTR [eax], ecx

; 924  : 	m_nCount++;

  00057	ff 46 0c	 inc	 DWORD PTR [esi+12]

; 925  : 	ASSERT(m_nCount > 0);  // make sure we don't overflow
; 926  : 
; 927  : #pragma push_macro("new")
; 928  : #undef new
; 929  : 	::new( (void*)( &pNode->data ) ) TYPE;
; 930  : #pragma pop_macro("new")
; 931  : 	return pNode;

  0005a	5e		 pop	 esi

; 932  : }

  0005b	5d		 pop	 ebp
  0005c	c2 08 00	 ret	 8
$LN17@NewNode:

; 916  : 		}
; 917  : 	}
; 918  : 	ENSURE(m_pNodeFree != NULL);  // we must have something

  0005f	e8 00 00 00 00	 call	 ?AfxThrowInvalidArgException@@YGXXZ ; AfxThrowInvalidArgException
$LN15@NewNode:
  00064	cc		 int	 3
?NewNode@?$CList@PAUIDrdsLib@@PAU1@@@IAEPAUCNode@1@PAU21@0@Z ENDP ; CList<IDrdsLib *,IDrdsLib *>::NewNode
_TEXT	ENDS
; Function compile flags: /Ogtp
; File C:\Program Files (x86)\Microsoft Visual Studio\2019\Community\VC\Tools\MSVC\14.29.30133\atlmfc\include\afxtempl.h
;	COMDAT ?RemoveAll@?$CList@PAUIDrdsLib@@PAU1@@@QAEXXZ
_TEXT	SEGMENT
?RemoveAll@?$CList@PAUIDrdsLib@@PAU1@@@QAEXXZ PROC	; CList<IDrdsLib *,IDrdsLib *>::RemoveAll, COMDAT
; _this$ = ecx

; 862  : {

  00000	56		 push	 esi
  00001	8b f1		 mov	 esi, ecx

; 863  : 	ASSERT_VALID(this);
; 864  : 
; 865  : 	// destroy elements
; 866  : 	CNode* pNode;
; 867  : 	for (pNode = m_pNodeHead; pNode != NULL; pNode = pNode->pNext)
; 868  : 		pNode->data.~TYPE();
; 869  : 
; 870  : 	m_nCount = 0;
; 871  : 	m_pNodeHead = m_pNodeTail = m_pNodeFree = NULL;
; 872  : 	m_pBlocks->FreeDataChain();

  00003	8b 4e 14	 mov	 ecx, DWORD PTR [esi+20]
  00006	c7 46 0c 00 00
	00 00		 mov	 DWORD PTR [esi+12], 0
  0000d	c7 46 10 00 00
	00 00		 mov	 DWORD PTR [esi+16], 0
  00014	c7 46 08 00 00
	00 00		 mov	 DWORD PTR [esi+8], 0
  0001b	c7 46 04 00 00
	00 00		 mov	 DWORD PTR [esi+4], 0
  00022	e8 00 00 00 00	 call	 ?FreeDataChain@CPlex@@QAEXXZ ; CPlex::FreeDataChain

; 873  : 	m_pBlocks = NULL;

  00027	c7 46 14 00 00
	00 00		 mov	 DWORD PTR [esi+20], 0
  0002e	5e		 pop	 esi

; 874  : }

  0002f	c3		 ret	 0
?RemoveAll@?$CList@PAUIDrdsLib@@PAU1@@@QAEXXZ ENDP	; CList<IDrdsLib *,IDrdsLib *>::RemoveAll
_TEXT	ENDS
; Function compile flags: /Ogtp
; File C:\Program Files (x86)\Microsoft Visual Studio\2019\Community\VC\Tools\MSVC\14.29.30133\atlmfc\include\afxtempl.h
;	COMDAT ?AddTail@?$CList@PAUIDrdsLib@@PAU1@@@QAEPAU__POSITION@@PAUIDrdsLib@@@Z
_TEXT	SEGMENT
_newElement$ = 8					; size = 4
?AddTail@?$CList@PAUIDrdsLib@@PAU1@@@QAEPAU__POSITION@@PAUIDrdsLib@@@Z PROC ; CList<IDrdsLib *,IDrdsLib *>::AddTail, COMDAT
; _this$ = ecx

; 965  : {

  00000	55		 push	 ebp
  00001	8b ec		 mov	 ebp, esp
  00003	56		 push	 esi
  00004	8b f1		 mov	 esi, ecx
  00006	57		 push	 edi

; 902  : 	if (m_pNodeFree == NULL)

  00007	83 7e 10 00	 cmp	 DWORD PTR [esi+16], 0

; 966  : 	ASSERT_VALID(this);
; 967  : 
; 968  : 	CNode* pNewNode = NewNode(m_pNodeTail, NULL);

  0000b	8b 7e 08	 mov	 edi, DWORD PTR [esi+8]

; 902  : 	if (m_pNodeFree == NULL)

  0000e	75 32		 jne	 SHORT $LN11@AddTail

; 903  : 	{
; 904  : 		// add another block
; 905  : 		CPlex* pNewBlock = CPlex::Create(m_pBlocks, m_nBlockSize,

  00010	6a 0c		 push	 12			; 0000000cH
  00012	ff 76 18	 push	 DWORD PTR [esi+24]
  00015	8d 46 14	 lea	 eax, DWORD PTR [esi+20]
  00018	50		 push	 eax
  00019	e8 00 00 00 00	 call	 ?Create@CPlex@@SGPAU1@AAPAU1@II@Z ; CPlex::Create

; 906  : 				 sizeof(CNode));
; 907  : 
; 908  : 		// chain them into free list
; 909  : 		CNode* pNode = (CNode*) pNewBlock->data();
; 910  : 		// free in reverse order to make it easier to debug
; 911  : 		pNode += m_nBlockSize - 1;

  0001e	8b 56 18	 mov	 edx, DWORD PTR [esi+24]
  00021	83 c0 08	 add	 eax, 8
  00024	8d 4a ff	 lea	 ecx, DWORD PTR [edx-1]

; 912  : 		for (INT_PTR i = m_nBlockSize-1; i >= 0; i--, pNode--)

  00027	83 c2 ff	 add	 edx, -1
  0002a	8d 0c 49	 lea	 ecx, DWORD PTR [ecx+ecx*2]
  0002d	8d 0c 88	 lea	 ecx, DWORD PTR [eax+ecx*4]
  00030	78 10		 js	 SHORT $LN11@AddTail
$LL8@AddTail:

; 913  : 		{
; 914  : 			pNode->pNext = m_pNodeFree;

  00032	8b 46 10	 mov	 eax, DWORD PTR [esi+16]
  00035	89 01		 mov	 DWORD PTR [ecx], eax

; 915  : 			m_pNodeFree = pNode;

  00037	89 4e 10	 mov	 DWORD PTR [esi+16], ecx
  0003a	83 e9 0c	 sub	 ecx, 12			; 0000000cH
  0003d	83 ea 01	 sub	 edx, 1
  00040	79 f0		 jns	 SHORT $LL8@AddTail
$LN11@AddTail:

; 916  : 		}
; 917  : 	}
; 918  : 	ENSURE(m_pNodeFree != NULL);  // we must have something

  00042	8b 4e 10	 mov	 ecx, DWORD PTR [esi+16]
  00045	85 c9		 test	 ecx, ecx
  00047	74 39		 je	 SHORT $LN22@AddTail

; 919  : 
; 920  : 	CList::CNode* pNode = m_pNodeFree;
; 921  : 	m_pNodeFree = m_pNodeFree->pNext;

  00049	8b 01		 mov	 eax, DWORD PTR [ecx]
  0004b	89 46 10	 mov	 DWORD PTR [esi+16], eax

; 969  : 	pNewNode->data = newElement;

  0004e	8b 45 08	 mov	 eax, DWORD PTR _newElement$[ebp]

; 922  : 	pNode->pPrev = pPrev;

  00051	89 79 04	 mov	 DWORD PTR [ecx+4], edi

; 923  : 	pNode->pNext = pNext;

  00054	c7 01 00 00 00
	00		 mov	 DWORD PTR [ecx], 0

; 924  : 	m_nCount++;

  0005a	ff 46 0c	 inc	 DWORD PTR [esi+12]

; 969  : 	pNewNode->data = newElement;

  0005d	89 41 08	 mov	 DWORD PTR [ecx+8], eax

; 970  : 	if (m_pNodeTail != NULL)

  00060	8b 46 08	 mov	 eax, DWORD PTR [esi+8]
  00063	85 c0		 test	 eax, eax
  00065	74 0d		 je	 SHORT $LN2@AddTail

; 971  : 		m_pNodeTail->pNext = pNewNode;

  00067	89 08		 mov	 DWORD PTR [eax], ecx

; 972  : 	else
; 973  : 		m_pNodeHead = pNewNode;
; 974  : 	m_pNodeTail = pNewNode;
; 975  : 	return (POSITION) pNewNode;

  00069	8b c1		 mov	 eax, ecx
  0006b	5f		 pop	 edi
  0006c	89 4e 08	 mov	 DWORD PTR [esi+8], ecx
  0006f	5e		 pop	 esi

; 976  : }

  00070	5d		 pop	 ebp
  00071	c2 04 00	 ret	 4
$LN2@AddTail:

; 972  : 	else
; 973  : 		m_pNodeHead = pNewNode;
; 974  : 	m_pNodeTail = pNewNode;
; 975  : 	return (POSITION) pNewNode;

  00074	5f		 pop	 edi
  00075	89 4e 04	 mov	 DWORD PTR [esi+4], ecx
  00078	8b c1		 mov	 eax, ecx
  0007a	89 4e 08	 mov	 DWORD PTR [esi+8], ecx
  0007d	5e		 pop	 esi

; 976  : }

  0007e	5d		 pop	 ebp
  0007f	c2 04 00	 ret	 4
$LN22@AddTail:

; 918  : 	ENSURE(m_pNodeFree != NULL);  // we must have something

  00082	e8 00 00 00 00	 call	 ?AfxThrowInvalidArgException@@YGXXZ ; AfxThrowInvalidArgException
$LN20@AddTail:
  00087	cc		 int	 3
?AddTail@?$CList@PAUIDrdsLib@@PAU1@@@QAEPAU__POSITION@@PAUIDrdsLib@@@Z ENDP ; CList<IDrdsLib *,IDrdsLib *>::AddTail
_TEXT	ENDS
; Function compile flags: /Ogtp
; File C:\Program Files (x86)\Microsoft Visual Studio\2019\Community\VC\Tools\MSVC\14.29.30133\atlmfc\include\afxtempl.h
;	COMDAT ??0?$CList@PAUIDrdsLib@@PAU1@@@QAE@H@Z
_TEXT	SEGMENT
_nBlockSize$ = 8					; size = 4
??0?$CList@PAUIDrdsLib@@PAU1@@@QAE@H@Z PROC		; CList<IDrdsLib *,IDrdsLib *>::CList<IDrdsLib *,IDrdsLib *>, COMDAT
; _this$ = ecx

; 851  : {

  00000	55		 push	 ebp
  00001	8b ec		 mov	 ebp, esp

; 852  : 	ASSERT(nBlockSize > 0);
; 853  : 
; 854  : 	m_nCount = 0;
; 855  : 	m_pNodeHead = m_pNodeTail = m_pNodeFree = NULL;
; 856  : 	m_pBlocks = NULL;
; 857  : 	m_nBlockSize = nBlockSize;

  00003	8b 45 08	 mov	 eax, DWORD PTR _nBlockSize$[ebp]
  00006	89 41 18	 mov	 DWORD PTR [ecx+24], eax

; 858  : }

  00009	8b c1		 mov	 eax, ecx
  0000b	c7 01 00 00 00
	00		 mov	 DWORD PTR [ecx], OFFSET ??_7?$CList@PAUIDrdsLib@@PAU1@@@6B@
  00011	c7 41 0c 00 00
	00 00		 mov	 DWORD PTR [ecx+12], 0
  00018	c7 41 10 00 00
	00 00		 mov	 DWORD PTR [ecx+16], 0
  0001f	c7 41 08 00 00
	00 00		 mov	 DWORD PTR [ecx+8], 0
  00026	c7 41 04 00 00
	00 00		 mov	 DWORD PTR [ecx+4], 0
  0002d	c7 41 14 00 00
	00 00		 mov	 DWORD PTR [ecx+20], 0
  00034	5d		 pop	 ebp
  00035	c2 04 00	 ret	 4
??0?$CList@PAUIDrdsLib@@PAU1@@@QAE@H@Z ENDP		; CList<IDrdsLib *,IDrdsLib *>::CList<IDrdsLib *,IDrdsLib *>
_TEXT	ENDS
; Function compile flags: /Ogtp
; File D:\git\src\IBK\IBK_DRFN\ProjSrc\SrcDrfn\DrCommon\PcTrMng\_DrdsManager.cpp
; File C:\Program Files (x86)\Microsoft Visual Studio\2019\Community\VC\Tools\MSVC\14.29.30133\atlmfc\include\afxtempl.h
; File D:\git\src\IBK\IBK_DRFN\ProjSrc\SrcDrfn\DrCommon\PcTrMng\_DrdsManager.cpp
;	COMDAT ??1CAUDrdsManager@@QAE@XZ
_TEXT	SEGMENT
__$EHRec$ = -12						; size = 12
??1CAUDrdsManager@@QAE@XZ PROC				; CAUDrdsManager::~CAUDrdsManager, COMDAT
; _this$ = ecx

; 19   : {

  00000	55		 push	 ebp
  00001	8b ec		 mov	 ebp, esp
  00003	6a ff		 push	 -1
  00005	68 00 00 00 00	 push	 __ehhandler$??1CAUDrdsManager@@QAE@XZ
  0000a	64 a1 00 00 00
	00		 mov	 eax, DWORD PTR fs:0
  00010	50		 push	 eax
  00011	56		 push	 esi
  00012	a1 00 00 00 00	 mov	 eax, DWORD PTR ___security_cookie
  00017	33 c5		 xor	 eax, ebp
  00019	50		 push	 eax
  0001a	8d 45 f4	 lea	 eax, DWORD PTR __$EHRec$[ebp]
  0001d	64 a3 00 00 00
	00		 mov	 DWORD PTR fs:0, eax
  00023	8b f1		 mov	 esi, ecx
  00025	c7 06 00 00 00
	00		 mov	 DWORD PTR [esi], OFFSET ??_7CAUDrdsManager@@6B@
; File C:\Program Files (x86)\Microsoft Visual Studio\2019\Community\VC\Tools\MSVC\14.29.30133\atlmfc\include\afxtempl.h

; 872  : 	m_pBlocks->FreeDataChain();

  0002b	8b 4e 18	 mov	 ecx, DWORD PTR [esi+24]

; 878  : {

  0002e	c7 45 fc 00 00
	00 00		 mov	 DWORD PTR __$EHRec$[ebp+8], 0
  00035	c7 46 04 00 00
	00 00		 mov	 DWORD PTR [esi+4], OFFSET ??_7?$CList@PAUIDrdsLib@@PAU1@@@6B@

; 870  : 	m_nCount = 0;

  0003c	c7 46 10 00 00
	00 00		 mov	 DWORD PTR [esi+16], 0

; 871  : 	m_pNodeHead = m_pNodeTail = m_pNodeFree = NULL;

  00043	c7 46 14 00 00
	00 00		 mov	 DWORD PTR [esi+20], 0
  0004a	c7 46 0c 00 00
	00 00		 mov	 DWORD PTR [esi+12], 0
  00051	c7 46 08 00 00
	00 00		 mov	 DWORD PTR [esi+8], 0

; 872  : 	m_pBlocks->FreeDataChain();

  00058	e8 00 00 00 00	 call	 ?FreeDataChain@CPlex@@QAEXXZ ; CPlex::FreeDataChain

; 873  : 	m_pBlocks = NULL;

  0005d	c7 46 18 00 00
	00 00		 mov	 DWORD PTR [esi+24], 0
; File D:\git\src\IBK\IBK_DRFN\ProjSrc\SrcDrfn\DrCommon\PcTrMng\_DrdsManager.cpp

; 20   : }

  00064	8b 4d f4	 mov	 ecx, DWORD PTR __$EHRec$[ebp]
  00067	64 89 0d 00 00
	00 00		 mov	 DWORD PTR fs:0, ecx
  0006e	59		 pop	 ecx
  0006f	5e		 pop	 esi
  00070	8b e5		 mov	 esp, ebp
  00072	5d		 pop	 ebp
  00073	c3		 ret	 0
  00074	cc		 int	 3
  00075	cc		 int	 3
  00076	cc		 int	 3
  00077	cc		 int	 3
  00078	cc		 int	 3
_TEXT	ENDS
;	COMDAT text$x
text$x	SEGMENT
__ehhandler$??1CAUDrdsManager@@QAE@XZ:
  00000	90		 npad	 1
  00001	90		 npad	 1
  00002	8b 54 24 08	 mov	 edx, DWORD PTR [esp+8]
  00006	8d 42 0c	 lea	 eax, DWORD PTR [edx+12]
  00009	8b 4a f8	 mov	 ecx, DWORD PTR [edx-8]
  0000c	33 c8		 xor	 ecx, eax
  0000e	e8 00 00 00 00	 call	 @__security_check_cookie@4
  00013	b8 00 00 00 00	 mov	 eax, OFFSET __ehfuncinfo$??1CAUDrdsManager@@QAE@XZ
  00018	e9 00 00 00 00	 jmp	 ___CxxFrameHandler3
text$x	ENDS
??1CAUDrdsManager@@QAE@XZ ENDP				; CAUDrdsManager::~CAUDrdsManager
; Function compile flags: /Ogtp
; File D:\git\src\IBK\IBK_DRFN\ProjSrc\SrcDrfn\DrCommon\PcTrMng\_DrdsManager.cpp
; File C:\Program Files (x86)\Microsoft Visual Studio\2019\Community\VC\Tools\MSVC\14.29.30133\atlmfc\include\afxtempl.h
; File D:\git\src\IBK\IBK_DRFN\ProjSrc\SrcDrfn\DrCommon\PcTrMng\_DrdsManager.cpp
;	COMDAT ??0CAUDrdsManager@@QAE@XZ
_TEXT	SEGMENT
_this$ = -4						; size = 4
??0CAUDrdsManager@@QAE@XZ PROC				; CAUDrdsManager::CAUDrdsManager, COMDAT
; _this$ = ecx

; 15   : {

  00000	55		 push	 ebp
  00001	8b ec		 mov	 ebp, esp
  00003	51		 push	 ecx
  00004	c7 01 00 00 00
	00		 mov	 DWORD PTR [ecx], OFFSET ??_7CAUDrdsManager@@6B@

; 16   : }

  0000a	8b c1		 mov	 eax, ecx
  0000c	89 4d fc	 mov	 DWORD PTR _this$[ebp], ecx
; File C:\Program Files (x86)\Microsoft Visual Studio\2019\Community\VC\Tools\MSVC\14.29.30133\atlmfc\include\afxtempl.h

; 851  : {

  0000f	c7 41 04 00 00
	00 00		 mov	 DWORD PTR [ecx+4], OFFSET ??_7?$CList@PAUIDrdsLib@@PAU1@@@6B@

; 852  : 	ASSERT(nBlockSize > 0);
; 853  : 
; 854  : 	m_nCount = 0;

  00016	c7 41 10 00 00
	00 00		 mov	 DWORD PTR [ecx+16], 0

; 855  : 	m_pNodeHead = m_pNodeTail = m_pNodeFree = NULL;

  0001d	c7 41 14 00 00
	00 00		 mov	 DWORD PTR [ecx+20], 0
  00024	c7 41 0c 00 00
	00 00		 mov	 DWORD PTR [ecx+12], 0
  0002b	c7 41 08 00 00
	00 00		 mov	 DWORD PTR [ecx+8], 0

; 856  : 	m_pBlocks = NULL;

  00032	c7 41 18 00 00
	00 00		 mov	 DWORD PTR [ecx+24], 0

; 857  : 	m_nBlockSize = nBlockSize;

  00039	c7 41 1c 0a 00
	00 00		 mov	 DWORD PTR [ecx+28], 10	; 0000000aH
; File D:\git\src\IBK\IBK_DRFN\ProjSrc\SrcDrfn\DrCommon\PcTrMng\_DrdsManager.cpp

; 16   : }

  00040	8b e5		 mov	 esp, ebp
  00042	5d		 pop	 ebp
  00043	c3		 ret	 0
??0CAUDrdsManager@@QAE@XZ ENDP				; CAUDrdsManager::CAUDrdsManager
_TEXT	ENDS
; Function compile flags: /Ogtp
; File D:\git\src\IBK\IBK_DRFN\ProjSrc\SrcDrfn\inc\IAUGwanMng.h
;	COMDAT ??__ERMSG_GWANSIMREGISTER@@YAXXZ
text$di	SEGMENT
??__ERMSG_GWANSIMREGISTER@@YAXXZ PROC			; `dynamic initializer for 'RMSG_GWANSIMREGISTER'', COMDAT

; 173  : const UINT RMSG_GWANSIMREGISTER		=   ::RegisterWindowMessage("RMSG_GWANSIMREGISTER");

  00000	68 00 00 00 00	 push	 OFFSET ??_C@_0BF@MNPNIDPI@RMSG_GWANSIMREGISTER@
  00005	ff 15 00 00 00
	00		 call	 DWORD PTR __imp__RegisterWindowMessageA@4
  0000b	a3 00 00 00 00	 mov	 DWORD PTR ?RMSG_GWANSIMREGISTER@@3IB, eax
  00010	c3		 ret	 0
??__ERMSG_GWANSIMREGISTER@@YAXXZ ENDP			; `dynamic initializer for 'RMSG_GWANSIMREGISTER''
text$di	ENDS
; Function compile flags: /Ogtp
; File D:\git\src\IBK\IBK_DRFN\ProjSrc\SrcDrfn\inc\Define_Gwansim.h
;	COMDAT ??__ERMSG_INTREQUEST@@YAXXZ
text$di	SEGMENT
??__ERMSG_INTREQUEST@@YAXXZ PROC			; `dynamic initializer for 'RMSG_INTREQUEST'', COMDAT

; 10   : const UINT RMSG_INTREQUEST = ::RegisterWindowMessage(_T("RMSG_INTREQUEST") );

  00000	68 00 00 00 00	 push	 OFFSET ??_C@_0BA@JHANHJCN@RMSG_INTREQUEST@
  00005	ff 15 00 00 00
	00		 call	 DWORD PTR __imp__RegisterWindowMessageA@4
  0000b	a3 00 00 00 00	 mov	 DWORD PTR ?RMSG_INTREQUEST@@3IB, eax
  00010	c3		 ret	 0
??__ERMSG_INTREQUEST@@YAXXZ ENDP			; `dynamic initializer for 'RMSG_INTREQUEST''
text$di	ENDS
; Function compile flags: /Ogtp
; File D:\git\src\IBK\IBK_DRFN\ProjSrc\SrcDrfn\inc\Define_Gwansim.h
;	COMDAT ??__ERMSG_CONCERNHWND@@YAXXZ
text$di	SEGMENT
??__ERMSG_CONCERNHWND@@YAXXZ PROC			; `dynamic initializer for 'RMSG_CONCERNHWND'', COMDAT

; 9    : const UINT RMSG_CONCERNHWND = ::RegisterWindowMessage(_T("RMSG_CONCERNHWND") );

  00000	68 00 00 00 00	 push	 OFFSET ??_C@_0BB@EPGJDGDK@RMSG_CONCERNHWND@
  00005	ff 15 00 00 00
	00		 call	 DWORD PTR __imp__RegisterWindowMessageA@4
  0000b	a3 00 00 00 00	 mov	 DWORD PTR ?RMSG_CONCERNHWND@@3IB, eax
  00010	c3		 ret	 0
??__ERMSG_CONCERNHWND@@YAXXZ ENDP			; `dynamic initializer for 'RMSG_CONCERNHWND''
text$di	ENDS
; Function compile flags: /Ogtp
; File D:\git\src\IBK\IBK_DRFN\ProjSrc\SrcDrfn\Inc\IBaseDefine.h
;	COMDAT ??__ERMSG_SETPCTRDATA@@YAXXZ
text$di	SEGMENT
??__ERMSG_SETPCTRDATA@@YAXXZ PROC			; `dynamic initializer for 'RMSG_SETPCTRDATA'', COMDAT

; 172  : const UINT RMSG_SETPCTRDATA = ::RegisterWindowMessage("RMSG_SETPCTRDATA");

  00000	68 00 00 00 00	 push	 OFFSET ??_C@_0BB@JPACFCL@RMSG_SETPCTRDATA@
  00005	ff 15 00 00 00
	00		 call	 DWORD PTR __imp__RegisterWindowMessageA@4
  0000b	a3 00 00 00 00	 mov	 DWORD PTR ?RMSG_SETPCTRDATA@@3IB, eax
  00010	c3		 ret	 0
??__ERMSG_SETPCTRDATA@@YAXXZ ENDP			; `dynamic initializer for 'RMSG_SETPCTRDATA''
text$di	ENDS
; Function compile flags: /Ogtp
; File D:\git\src\IBK\IBK_DRFN\ProjSrc\SrcDrfn\Inc\IBaseDefine.h
;	COMDAT ??__ERMSG_GETPCTRDATA@@YAXXZ
text$di	SEGMENT
??__ERMSG_GETPCTRDATA@@YAXXZ PROC			; `dynamic initializer for 'RMSG_GETPCTRDATA'', COMDAT

; 171  : const UINT RMSG_GETPCTRDATA = ::RegisterWindowMessage("RMSG_GETPCTRDATA");

  00000	68 00 00 00 00	 push	 OFFSET ??_C@_0BB@GOOPDKI@RMSG_GETPCTRDATA@
  00005	ff 15 00 00 00
	00		 call	 DWORD PTR __imp__RegisterWindowMessageA@4
  0000b	a3 00 00 00 00	 mov	 DWORD PTR ?RMSG_GETPCTRDATA@@3IB, eax
  00010	c3		 ret	 0
??__ERMSG_GETPCTRDATA@@YAXXZ ENDP			; `dynamic initializer for 'RMSG_GETPCTRDATA''
text$di	ENDS
; Function compile flags: /Ogtp
; File D:\git\src\IBK\IBK_DRFN\ProjSrc\SrcDrfn\Inc\IBaseDefine.h
;	COMDAT ??__ERMSG_INTERFACE@@YAXXZ
text$di	SEGMENT
??__ERMSG_INTERFACE@@YAXXZ PROC				; `dynamic initializer for 'RMSG_INTERFACE'', COMDAT

; 170  : const UINT RMSG_INTERFACE = ::RegisterWindowMessage("RMSG_INTERFACE");

  00000	68 00 00 00 00	 push	 OFFSET ??_C@_0P@BKKCOCLK@RMSG_INTERFACE@
  00005	ff 15 00 00 00
	00		 call	 DWORD PTR __imp__RegisterWindowMessageA@4
  0000b	a3 00 00 00 00	 mov	 DWORD PTR ?RMSG_INTERFACE@@3IB, eax
  00010	c3		 ret	 0
??__ERMSG_INTERFACE@@YAXXZ ENDP				; `dynamic initializer for 'RMSG_INTERFACE''
text$di	ENDS
; Function compile flags: /Ogtp
; File C:\Program Files (x86)\Microsoft Visual Studio\2019\Community\VC\Tools\MSVC\14.29.30133\atlmfc\include\afx.inl
;	COMDAT ?Dump@CObject@@UBEXAAVCDumpContext@@@Z
_TEXT	SEGMENT
___formal$ = 8						; size = 4
?Dump@CObject@@UBEXAAVCDumpContext@@@Z PROC		; CObject::Dump, COMDAT
; _this$ = ecx

; 122  : 	{ /* no dumping in release builds */ }

  00000	c2 04 00	 ret	 4
?Dump@CObject@@UBEXAAVCDumpContext@@@Z ENDP		; CObject::Dump
_TEXT	ENDS
; Function compile flags: /Ogtp
; File C:\Program Files (x86)\Microsoft Visual Studio\2019\Community\VC\Tools\MSVC\14.29.30133\atlmfc\include\afx.inl
;	COMDAT ?AssertValid@CObject@@UBEXXZ
_TEXT	SEGMENT
?AssertValid@CObject@@UBEXXZ PROC			; CObject::AssertValid, COMDAT
; _this$ = ecx

; 120  : 	{ /* no asserts in release builds */ }

  00000	c2 00 00	 ret	 0
?AssertValid@CObject@@UBEXXZ ENDP			; CObject::AssertValid
_TEXT	ENDS
; Function compile flags: /Ogtp
; File C:\Program Files (x86)\Microsoft Visual Studio\2019\Community\VC\Tools\MSVC\14.29.30133\atlmfc\include\afx.inl
;	COMDAT ?Serialize@CObject@@UAEXAAVCArchive@@@Z
_TEXT	SEGMENT
___formal$ = 8						; size = 4
?Serialize@CObject@@UAEXAAVCArchive@@@Z PROC		; CObject::Serialize, COMDAT
; _this$ = ecx

; 106  : 	{ /* CObject does not serialize anything by default */ }

  00000	c2 04 00	 ret	 4
?Serialize@CObject@@UAEXAAVCArchive@@@Z ENDP		; CObject::Serialize
_TEXT	ENDS
; Function compile flags: /Ogtp
; File C:\Program Files (x86)\Microsoft Visual Studio\2019\Community\VC\Tools\MSVC\14.29.30133\atlmfc\include\afx.inl
;	COMDAT ??1CObject@@UAE@XZ
_TEXT	SEGMENT
??1CObject@@UAE@XZ PROC					; CObject::~CObject, COMDAT
; _this$ = ecx

; 104  : 	{ }

  00000	c2 00 00	 ret	 0
??1CObject@@UAE@XZ ENDP					; CObject::~CObject
_TEXT	ENDS
; Function compile flags: /Ogtp
; File C:\Program Files (x86)\Windows Kits\10\Include\10.0.22000.0\ucrt\stdio.h
;	COMDAT _sprintf
_TEXT	SEGMENT
__Buffer$ = 8						; size = 4
__Format$ = 12						; size = 4
_sprintf PROC						; COMDAT

; 1771 :     {

  00000	55		 push	 ebp
  00001	8b ec		 mov	 ebp, esp

; 1392 :         int const _Result = __stdio_common_vsprintf(

  00003	8d 45 10	 lea	 eax, DWORD PTR __Format$[ebp+4]
  00006	50		 push	 eax
  00007	6a 00		 push	 0
  00009	ff 75 0c	 push	 DWORD PTR __Format$[ebp]
  0000c	6a ff		 push	 -1
  0000e	ff 75 08	 push	 DWORD PTR __Buffer$[ebp]
  00011	e8 00 00 00 00	 call	 ___local_stdio_printf_options
  00016	8b 08		 mov	 ecx, DWORD PTR [eax]
  00018	ff 70 04	 push	 DWORD PTR [eax+4]
  0001b	83 c9 01	 or	 ecx, 1
  0001e	51		 push	 ecx
  0001f	ff 15 00 00 00
	00		 call	 DWORD PTR __imp____stdio_common_vsprintf

; 1393 :             _CRT_INTERNAL_LOCAL_PRINTF_OPTIONS | _CRT_INTERNAL_PRINTF_LEGACY_VSPRINTF_NULL_TERMINATION,
; 1394 :             _Buffer, _BufferCount, _Format, _Locale, _ArgList);
; 1395 : 
; 1396 :         return _Result < 0 ? -1 : _Result;

  00025	83 c9 ff	 or	 ecx, -1
  00028	83 c4 1c	 add	 esp, 28			; 0000001cH
  0002b	85 c0		 test	 eax, eax
  0002d	0f 48 c1	 cmovs	 eax, ecx

; 1772 :         int _Result;
; 1773 :         va_list _ArgList;
; 1774 :         __crt_va_start(_ArgList, _Format);
; 1775 : 
; 1776 :         _Result = _vsprintf_l(_Buffer, _Format, NULL, _ArgList);
; 1777 : 
; 1778 :         __crt_va_end(_ArgList);
; 1779 :         return _Result;
; 1780 :     }

  00030	5d		 pop	 ebp
  00031	c3		 ret	 0
_sprintf ENDP
_TEXT	ENDS
; Function compile flags: /Ogtp
; File C:\Program Files (x86)\Windows Kits\10\Include\10.0.22000.0\ucrt\corecrt_stdio_config.h
;	COMDAT ___local_stdio_printf_options
_TEXT	SEGMENT
___local_stdio_printf_options PROC			; COMDAT

; 91   :         static unsigned __int64 _OptionsStorage;
; 92   :         return &_OptionsStorage;

  00000	b8 00 00 00 00	 mov	 eax, OFFSET ?_OptionsStorage@?1??__local_stdio_printf_options@@9@4_KA ; `__local_stdio_printf_options'::`2'::_OptionsStorage

; 93   :     }

  00005	c3		 ret	 0
___local_stdio_printf_options ENDP
_TEXT	ENDS
; Function compile flags: /Ogtp
; File D:\git\src\IBK\IBK_DRFN\ProjSrc\SrcDrfn\DrCommon\PcTrMng\_DrdsManager.cpp
;	COMDAT ?__empty_global_delete@@YAXPAXI@Z
_TEXT	SEGMENT
___formal$ = 8						; size = 4
___formal$ = 12						; size = 4
?__empty_global_delete@@YAXPAXI@Z PROC			; __empty_global_delete, COMDAT

  00000	c2 00 00	 ret	 0
?__empty_global_delete@@YAXPAXI@Z ENDP			; __empty_global_delete
_TEXT	ENDS
; Function compile flags: /Ogtp
; File D:\git\src\IBK\IBK_DRFN\ProjSrc\SrcDrfn\DrCommon\PcTrMng\_DrdsManager.cpp
;	COMDAT ?__empty_global_delete@@YAXPAX@Z
_TEXT	SEGMENT
___formal$ = 8						; size = 4
?__empty_global_delete@@YAXPAX@Z PROC			; __empty_global_delete, COMDAT

  00000	c2 00 00	 ret	 0
?__empty_global_delete@@YAXPAX@Z ENDP			; __empty_global_delete
_TEXT	ENDS
END
