; Listing generated by Microsoft (R) Optimizing Compiler Version 19.29.30148.0 

	TITLE	D:\git\src\IBK\IBK_DRFN\#DRfn-CS\_Obj\PcTrMng\_SkinColorManager.obj
	.686P
	.XMM
	include listing.inc
	.model	flat

INCLUDELIB MSVCRT
INCLUDELIB OLDNAMES

PUBLIC	??_C@_0P@BKKCOCLK@RMSG_INTERFACE@		; `string'
PUBLIC	??_C@_0BB@GOOPDKI@RMSG_GETPCTRDATA@		; `string'
PUBLIC	??_C@_0BB@JPACFCL@RMSG_SETPCTRDATA@		; `string'
PUBLIC	??_C@_0BB@EPGJDGDK@RMSG_CONCERNHWND@		; `string'
PUBLIC	??_C@_0BA@JHANHJCN@RMSG_INTREQUEST@		; `string'
PUBLIC	??_C@_0BF@MNPNIDPI@RMSG_GWANSIMREGISTER@	; `string'
;	COMDAT ??_C@_0BF@MNPNIDPI@RMSG_GWANSIMREGISTER@
CONST	SEGMENT
??_C@_0BF@MNPNIDPI@RMSG_GWANSIMREGISTER@ DB 'RMSG_GWANSIMREGISTER', 00H ; `string'
CONST	ENDS
;	COMDAT ??_C@_0BA@JHANHJCN@RMSG_INTREQUEST@
CONST	SEGMENT
??_C@_0BA@JHANHJCN@RMSG_INTREQUEST@ DB 'RMSG_INTREQUEST', 00H ; `string'
CONST	ENDS
;	COMDAT ??_C@_0BB@EPGJDGDK@RMSG_CONCERNHWND@
CONST	SEGMENT
??_C@_0BB@EPGJDGDK@RMSG_CONCERNHWND@ DB 'RMSG_CONCERNHWND', 00H ; `string'
CONST	ENDS
;	COMDAT ??_C@_0BB@JPACFCL@RMSG_SETPCTRDATA@
CONST	SEGMENT
??_C@_0BB@JPACFCL@RMSG_SETPCTRDATA@ DB 'RMSG_SETPCTRDATA', 00H ; `string'
CONST	ENDS
;	COMDAT ??_C@_0BB@GOOPDKI@RMSG_GETPCTRDATA@
CONST	SEGMENT
??_C@_0BB@GOOPDKI@RMSG_GETPCTRDATA@ DB 'RMSG_GETPCTRDATA', 00H ; `string'
CONST	ENDS
;	COMDAT ??_C@_0P@BKKCOCLK@RMSG_INTERFACE@
CONST	SEGMENT
??_C@_0P@BKKCOCLK@RMSG_INTERFACE@ DB 'RMSG_INTERFACE', 00H ; `string'
CONST	ENDS
PUBLIC	?__empty_global_delete@@YAXPAX@Z		; __empty_global_delete
PUBLIC	?__empty_global_delete@@YAXPAXI@Z		; __empty_global_delete
PUBLIC	___local_stdio_printf_options
PUBLIC	___local_stdio_scanf_options
PUBLIC	_sprintf
PUBLIC	_sscanf
PUBLIC	?AfxCrtErrorCheck@@YAHH@Z			; AfxCrtErrorCheck
PUBLIC	??1CObject@@UAE@XZ				; CObject::~CObject
PUBLIC	?Serialize@CObject@@UAEXAAVCArchive@@@Z		; CObject::Serialize
PUBLIC	?AssertValid@CObject@@UBEXXZ			; CObject::AssertValid
PUBLIC	?Dump@CObject@@UBEXAAVCDumpContext@@@Z		; CObject::Dump
PUBLIC	??1ST_SKININFO@@QAE@XZ				; ST_SKININFO::~ST_SKININFO
PUBLIC	??4ST_SKININFO@@QAEAAU0@ABU0@@Z			; ST_SKININFO::operator=
PUBLIC	??0CSkinColorManager@@QAE@XZ			; CSkinColorManager::CSkinColorManager
PUBLIC	??1CSkinColorManager@@QAE@XZ			; CSkinColorManager::~CSkinColorManager
PUBLIC	?LoadSkinInfo@CSkinColorManager@@QAEXXZ		; CSkinColorManager::LoadSkinInfo
PUBLIC	?GetColor@CSkinColorManager@@UAGKPBD@Z		; CSkinColorManager::GetColor
PUBLIC	?GetIndex@CSkinColorManager@@UAGHPBD@Z		; CSkinColorManager::GetIndex
PUBLIC	?GetColor@CSkinColorManager@@UAGKH@Z		; CSkinColorManager::GetColor
PUBLIC	?GetColorTableArray@CSkinColorManager@@UAGJXZ	; CSkinColorManager::GetColorTableArray
PUBLIC	?AdviseSite@CSkinColorManager@@UAGJPAUISkinColorSite@@@Z ; CSkinColorManager::AdviseSite
PUBLIC	?UnadviseSite@CSkinColorManager@@UAGHJ@Z	; CSkinColorManager::UnadviseSite
PUBLIC	?LoadColorTable@CSkinColorManager@@UAGHPBDH@Z	; CSkinColorManager::LoadColorTable
PUBLIC	?LoadDefaultColorTable@CSkinColorManager@@UAGHPBD@Z ; CSkinColorManager::LoadDefaultColorTable
PUBLIC	?NotifyToSite@CSkinColorManager@@UAGXXZ		; CSkinColorManager::NotifyToSite
PUBLIC	?SetSkinConfig@CSkinColorManager@@UAGHPBD@Z	; CSkinColorManager::SetSkinConfig
PUBLIC	?GetSkinCount@CSkinColorManager@@UAGHXZ		; CSkinColorManager::GetSkinCount
PUBLIC	?GetSkinInfo@CSkinColorManager@@UAGHHAAUST_SKININFO@@@Z ; CSkinColorManager::GetSkinInfo
PUBLIC	?GetDefaultColor@CSkinColorManager@@UAGKPBD@Z	; CSkinColorManager::GetDefaultColor
PUBLIC	?GetDefaultIndex@CSkinColorManager@@UAGHPBD@Z	; CSkinColorManager::GetDefaultIndex
PUBLIC	?GetDefaultColor@CSkinColorManager@@UAGKH@Z	; CSkinColorManager::GetDefaultColor
PUBLIC	?GetDefaultColorTableArray@CSkinColorManager@@UAGJXZ ; CSkinColorManager::GetDefaultColorTableArray
PUBLIC	??0?$CArray@U_tabUserColorTable@@U1@@@QAE@XZ	; CArray<_tabUserColorTable,_tabUserColorTable>::CArray<_tabUserColorTable,_tabUserColorTable>
PUBLIC	?SetSize@?$CArray@U_tabUserColorTable@@U1@@@QAEXHH@Z ; CArray<_tabUserColorTable,_tabUserColorTable>::SetSize
PUBLIC	?RemoveAll@?$CArray@U_tabUserColorTable@@U1@@@QAEXXZ ; CArray<_tabUserColorTable,_tabUserColorTable>::RemoveAll
PUBLIC	??1?$CArray@U_tabUserColorTable@@U1@@@UAE@XZ	; CArray<_tabUserColorTable,_tabUserColorTable>::~CArray<_tabUserColorTable,_tabUserColorTable>
PUBLIC	?Serialize@?$CArray@U_tabUserColorTable@@U1@@@UAEXAAVCArchive@@@Z ; CArray<_tabUserColorTable,_tabUserColorTable>::Serialize
PUBLIC	??_G?$CArray@U_tabUserColorTable@@U1@@@UAEPAXI@Z ; CArray<_tabUserColorTable,_tabUserColorTable>::`scalar deleting destructor'
PUBLIC	??0?$CList@PAUISkinColorSite@@PAU1@@@QAE@H@Z	; CList<ISkinColorSite *,ISkinColorSite *>::CList<ISkinColorSite *,ISkinColorSite *>
PUBLIC	?AddTail@?$CList@PAUISkinColorSite@@PAU1@@@QAEPAU__POSITION@@PAUISkinColorSite@@@Z ; CList<ISkinColorSite *,ISkinColorSite *>::AddTail
PUBLIC	?RemoveAll@?$CList@PAUISkinColorSite@@PAU1@@@QAEXXZ ; CList<ISkinColorSite *,ISkinColorSite *>::RemoveAll
PUBLIC	?RemoveAt@?$CList@PAUISkinColorSite@@PAU1@@@QAEXPAU__POSITION@@@Z ; CList<ISkinColorSite *,ISkinColorSite *>::RemoveAt
PUBLIC	?NewNode@?$CList@PAUISkinColorSite@@PAU1@@@IAEPAUCNode@1@PAU21@0@Z ; CList<ISkinColorSite *,ISkinColorSite *>::NewNode
PUBLIC	?FreeNode@?$CList@PAUISkinColorSite@@PAU1@@@IAEXPAUCNode@1@@Z ; CList<ISkinColorSite *,ISkinColorSite *>::FreeNode
PUBLIC	??1?$CList@PAUISkinColorSite@@PAU1@@@UAE@XZ	; CList<ISkinColorSite *,ISkinColorSite *>::~CList<ISkinColorSite *,ISkinColorSite *>
PUBLIC	?Serialize@?$CList@PAUISkinColorSite@@PAU1@@@UAEXAAVCArchive@@@Z ; CList<ISkinColorSite *,ISkinColorSite *>::Serialize
PUBLIC	??_G?$CList@PAUISkinColorSite@@PAU1@@@UAEPAXI@Z	; CList<ISkinColorSite *,ISkinColorSite *>::`scalar deleting destructor'
PUBLIC	??0?$CArray@UST_SKININFO@@U1@@@QAE@XZ		; CArray<ST_SKININFO,ST_SKININFO>::CArray<ST_SKININFO,ST_SKININFO>
PUBLIC	?SetSize@?$CArray@UST_SKININFO@@U1@@@QAEXHH@Z	; CArray<ST_SKININFO,ST_SKININFO>::SetSize
PUBLIC	??1?$CArray@UST_SKININFO@@U1@@@UAE@XZ		; CArray<ST_SKININFO,ST_SKININFO>::~CArray<ST_SKININFO,ST_SKININFO>
PUBLIC	?Serialize@?$CArray@UST_SKININFO@@U1@@@UAEXAAVCArchive@@@Z ; CArray<ST_SKININFO,ST_SKININFO>::Serialize
PUBLIC	??_G?$CArray@UST_SKININFO@@U1@@@UAEPAXI@Z	; CArray<ST_SKININFO,ST_SKININFO>::`scalar deleting destructor'
PUBLIC	??$SerializeElements@UST_SKININFO@@@@YGXAAVCArchive@@PAUST_SKININFO@@H@Z ; SerializeElements<ST_SKININFO>
PUBLIC	??$SerializeElements@U_tabUserColorTable@@@@YGXAAVCArchive@@PAU_tabUserColorTable@@H@Z ; SerializeElements<_tabUserColorTable>
PUBLIC	??$SerializeElements@PAUISkinColorSite@@@@YGXAAVCArchive@@PAPAUISkinColorSite@@H@Z ; SerializeElements<ISkinColorSite *>
PUBLIC	?_OptionsStorage@?1??__local_stdio_printf_options@@9@4_KA ; `__local_stdio_printf_options'::`2'::_OptionsStorage
PUBLIC	?_OptionsStorage@?1??__local_stdio_scanf_options@@9@4_KA ; `__local_stdio_scanf_options'::`2'::_OptionsStorage
PUBLIC	??_C@_02DPKJAMEF@?$CFd@				; `string'
PUBLIC	??_C@_00CNPNBAHC@@				; `string'
PUBLIC	??_R0?AVCObject@@@8				; CObject `RTTI Type Descriptor'
PUBLIC	??_R3CObject@@8					; CObject::`RTTI Class Hierarchy Descriptor'
PUBLIC	??_R2CObject@@8					; CObject::`RTTI Base Class Array'
PUBLIC	??_R1A@?0A@EA@CObject@@8			; CObject::`RTTI Base Class Descriptor at (0,-1,0,64)'
PUBLIC	??_C@_04LJDDIHIK@?4bmp@				; `string'
PUBLIC	??_7?$CArray@U_tabUserColorTable@@U1@@@6B@	; CArray<_tabUserColorTable,_tabUserColorTable>::`vftable'
PUBLIC	??_7?$CList@PAUISkinColorSite@@PAU1@@@6B@	; CList<ISkinColorSite *,ISkinColorSite *>::`vftable'
PUBLIC	??_7?$CArray@UST_SKININFO@@U1@@@6B@		; CArray<ST_SKININFO,ST_SKININFO>::`vftable'
PUBLIC	??_7CSkinColorManager@@6B@			; CSkinColorManager::`vftable'
PUBLIC	??_C@_04KIHPKAMN@?$LA?$LD?$LM?v@		; `string'
PUBLIC	??_C@_08JEMOIDPL@?D?C?$LH?$KP?$LA?$LD?$LM?v@	; `string'
PUBLIC	??_C@_0DB@OKFKJJJD@?F?D?$MA?O?$FL?$CFs?$FN?$LP?$KB?$LM?$KN?5?D?$KO?$LG?s?E?W?$MA?L?$LK?m?5?A?$KE?$LK?$LI?$LI?$KG?5@ ; `string'
PUBLIC	??_C@_0L@MNJMPGLE@?D?C?$LH?$KP?$MA?N?$LF?$KG?$LN?$LK@ ; `string'
PUBLIC	??_C@_0BC@HNKKLCOJ@?$CF?$FL?$FO?0?$FN?0?5?$CFd?0?5?$CFd?0?5?$CFd@ ; `string'
PUBLIC	??_C@_0BA@NMCBNOGD@Data?2Config?4cfg@		; `string'
PUBLIC	??_C@_05BMGBEOOC@?$CFs?2?$CFs@			; `string'
PUBLIC	??_C@_04BLMKLGAB@SKIN@				; `string'
PUBLIC	??_C@_05IJGIMMHE@Count@				; `string'
PUBLIC	??_C@_04OGKJMPGK@?$CF02d@			; `string'
PUBLIC	??_C@_0EK@KHAKBPBF@?$LN?$LK?E?$LC?$LA?m?$MA?$PM?$HMDefaultColorTable?4cfg?$HM@ ; `string'
PUBLIC	??_R4?$CArray@UST_SKININFO@@U1@@@6B@		; CArray<ST_SKININFO,ST_SKININFO>::`RTTI Complete Object Locator'
PUBLIC	??_R0?AV?$CArray@UST_SKININFO@@U1@@@@8		; CArray<ST_SKININFO,ST_SKININFO> `RTTI Type Descriptor'
PUBLIC	??_R3?$CArray@UST_SKININFO@@U1@@@8		; CArray<ST_SKININFO,ST_SKININFO>::`RTTI Class Hierarchy Descriptor'
PUBLIC	??_R2?$CArray@UST_SKININFO@@U1@@@8		; CArray<ST_SKININFO,ST_SKININFO>::`RTTI Base Class Array'
PUBLIC	??_R1A@?0A@EA@?$CArray@UST_SKININFO@@U1@@@8	; CArray<ST_SKININFO,ST_SKININFO>::`RTTI Base Class Descriptor at (0,-1,0,64)'
PUBLIC	??_R0?AUISkinColorManager@@@8			; ISkinColorManager `RTTI Type Descriptor'
PUBLIC	??_R3ISkinColorManager@@8			; ISkinColorManager::`RTTI Class Hierarchy Descriptor'
PUBLIC	??_R2ISkinColorManager@@8			; ISkinColorManager::`RTTI Base Class Array'
PUBLIC	??_R1A@?0A@EA@ISkinColorManager@@8		; ISkinColorManager::`RTTI Base Class Descriptor at (0,-1,0,64)'
PUBLIC	??_R4?$CArray@U_tabUserColorTable@@U1@@@6B@	; CArray<_tabUserColorTable,_tabUserColorTable>::`RTTI Complete Object Locator'
PUBLIC	??_R0?AV?$CArray@U_tabUserColorTable@@U1@@@@8	; CArray<_tabUserColorTable,_tabUserColorTable> `RTTI Type Descriptor'
PUBLIC	??_R3?$CArray@U_tabUserColorTable@@U1@@@8	; CArray<_tabUserColorTable,_tabUserColorTable>::`RTTI Class Hierarchy Descriptor'
PUBLIC	??_R2?$CArray@U_tabUserColorTable@@U1@@@8	; CArray<_tabUserColorTable,_tabUserColorTable>::`RTTI Base Class Array'
PUBLIC	??_R1A@?0A@EA@?$CArray@U_tabUserColorTable@@U1@@@8 ; CArray<_tabUserColorTable,_tabUserColorTable>::`RTTI Base Class Descriptor at (0,-1,0,64)'
PUBLIC	??_R4?$CList@PAUISkinColorSite@@PAU1@@@6B@	; CList<ISkinColorSite *,ISkinColorSite *>::`RTTI Complete Object Locator'
PUBLIC	??_R0?AV?$CList@PAUISkinColorSite@@PAU1@@@@8	; CList<ISkinColorSite *,ISkinColorSite *> `RTTI Type Descriptor'
PUBLIC	??_R3?$CList@PAUISkinColorSite@@PAU1@@@8	; CList<ISkinColorSite *,ISkinColorSite *>::`RTTI Class Hierarchy Descriptor'
PUBLIC	??_R2?$CList@PAUISkinColorSite@@PAU1@@@8	; CList<ISkinColorSite *,ISkinColorSite *>::`RTTI Base Class Array'
PUBLIC	??_R1A@?0A@EA@?$CList@PAUISkinColorSite@@PAU1@@@8 ; CList<ISkinColorSite *,ISkinColorSite *>::`RTTI Base Class Descriptor at (0,-1,0,64)'
PUBLIC	??_R4CSkinColorManager@@6B@			; CSkinColorManager::`RTTI Complete Object Locator'
PUBLIC	??_R0?AVCSkinColorManager@@@8			; CSkinColorManager `RTTI Type Descriptor'
PUBLIC	??_R3CSkinColorManager@@8			; CSkinColorManager::`RTTI Class Hierarchy Descriptor'
PUBLIC	??_R2CSkinColorManager@@8			; CSkinColorManager::`RTTI Base Class Array'
PUBLIC	??_R1A@?0A@EA@CSkinColorManager@@8		; CSkinColorManager::`RTTI Base Class Descriptor at (0,-1,0,64)'
EXTRN	??3@YAXPAX@Z:PROC				; operator delete
EXTRN	??3@YAXPAXI@Z:PROC				; operator delete
EXTRN	?__global_delete@@YAXPAXI@Z:PROC		; __global_delete
EXTRN	??_U@YAPAXI@Z:PROC				; operator new[]
EXTRN	??_V@YAXPAX@Z:PROC				; operator delete[]
EXTRN	___std_terminate:PROC
EXTRN	__imp___invalid_parameter_noinfo:PROC
EXTRN	__imp___errno:PROC
EXTRN	__imp__GetPrivateProfileIntA@16:PROC
EXTRN	__imp__GetPrivateProfileStringA@24:PROC
EXTRN	__imp__RegisterWindowMessageA@4:PROC
EXTRN	__imp____stdio_common_vsprintf:PROC
EXTRN	__imp____stdio_common_vsscanf:PROC
EXTRN	?AfxThrowMemoryException@@YGXXZ:PROC		; AfxThrowMemoryException
EXTRN	?AfxThrowInvalidArgException@@YGXXZ:PROC	; AfxThrowInvalidArgException
EXTRN	?AfxThrowArchiveException@@YGXHPBD@Z:PROC	; AfxThrowArchiveException
EXTRN	?GetRuntimeClass@CObject@@UBEPAUCRuntimeClass@@XZ:PROC ; CObject::GetRuntimeClass
EXTRN	__imp_??0?$CStringT@DV?$StrTraitMFC_DLL@DV?$ChTraitsCRT@D@ATL@@@@@ATL@@QAE@XZ:PROC
EXTRN	__imp_??0?$CStringT@DV?$StrTraitMFC_DLL@DV?$ChTraitsCRT@D@ATL@@@@@ATL@@QAE@ABV01@@Z:PROC
EXTRN	__imp_??1?$CStringT@DV?$StrTraitMFC_DLL@DV?$ChTraitsCRT@D@ATL@@@@@ATL@@QAE@XZ:PROC
EXTRN	__imp_??4?$CStringT@DV?$StrTraitMFC_DLL@DV?$ChTraitsCRT@D@ATL@@@@@ATL@@QAEAAV01@ABV01@@Z:PROC
EXTRN	__imp_??4?$CStringT@DV?$StrTraitMFC_DLL@DV?$ChTraitsCRT@D@ATL@@@@@ATL@@QAEAAV01@PBD@Z:PROC
EXTRN	__imp_??Y?$CStringT@DV?$StrTraitMFC_DLL@DV?$ChTraitsCRT@D@ATL@@@@@ATL@@QAEAAV01@PBD@Z:PROC
EXTRN	__imp_?Compare@?$CStringT@DV?$StrTraitMFC_DLL@DV?$ChTraitsCRT@D@ATL@@@@@ATL@@QBEHPBD@Z:PROC
EXTRN	__imp_?Format@?$CStringT@DV?$StrTraitMFC_DLL@DV?$ChTraitsCRT@D@ATL@@@@@ATL@@QAAXPBDZZ:PROC
EXTRN	??0CFileFind@@QAE@XZ:PROC			; CFileFind::CFileFind
EXTRN	??1CFileFind@@UAE@XZ:PROC			; CFileFind::~CFileFind
EXTRN	?FindFile@CFileFind@@UAEHPBDK@Z:PROC		; CFileFind::FindFile
EXTRN	?Read@CArchive@@QAEIPAXI@Z:PROC			; CArchive::Read
EXTRN	?Write@CArchive@@QAEXPBXI@Z:PROC		; CArchive::Write
EXTRN	?ReadCount@CArchive@@QAEKXZ:PROC		; CArchive::ReadCount
EXTRN	?WriteCount@CArchive@@QAEXK@Z:PROC		; CArchive::WriteCount
EXTRN	?Create@CPlex@@SGPAU1@AAPAU1@II@Z:PROC		; CPlex::Create
EXTRN	?FreeDataChain@CPlex@@QAEXXZ:PROC		; CPlex::FreeDataChain
EXTRN	?AfxExtractSubString@@YGHAAV?$CStringT@DV?$StrTraitMFC_DLL@DV?$ChTraitsCRT@D@ATL@@@@@ATL@@PBDHD@Z:PROC ; AfxExtractSubString
EXTRN	??_E?$CArray@U_tabUserColorTable@@U1@@@UAEPAXI@Z:PROC ; CArray<_tabUserColorTable,_tabUserColorTable>::`vector deleting destructor'
EXTRN	??_E?$CList@PAUISkinColorSite@@PAU1@@@UAEPAXI@Z:PROC ; CList<ISkinColorSite *,ISkinColorSite *>::`vector deleting destructor'
EXTRN	??_E?$CArray@UST_SKININFO@@U1@@@UAEPAXI@Z:PROC	; CArray<ST_SKININFO,ST_SKININFO>::`vector deleting destructor'
EXTRN	@__security_check_cookie@4:PROC
EXTRN	___CxxFrameHandler3:PROC
EXTRN	_memcpy:PROC
EXTRN	_memset:PROC
EXTRN	??_7type_info@@6B@:QWORD			; type_info::`vftable'
EXTRN	?theApp@@3VCPcTrMngApp@@A:BYTE			; theApp
EXTRN	___security_cookie:DWORD
;	COMDAT ?_OptionsStorage@?1??__local_stdio_printf_options@@9@4_KA
_BSS	SEGMENT
?_OptionsStorage@?1??__local_stdio_printf_options@@9@4_KA DQ 01H DUP (?) ; `__local_stdio_printf_options'::`2'::_OptionsStorage
_BSS	ENDS
;	COMDAT ?_OptionsStorage@?1??__local_stdio_scanf_options@@9@4_KA
_BSS	SEGMENT
?_OptionsStorage@?1??__local_stdio_scanf_options@@9@4_KA DQ 01H DUP (?) ; `__local_stdio_scanf_options'::`2'::_OptionsStorage
_BSS	ENDS
_BSS	SEGMENT
?RMSG_INTERFACE@@3IB DD 01H DUP (?)			; RMSG_INTERFACE
?RMSG_GETPCTRDATA@@3IB DD 01H DUP (?)			; RMSG_GETPCTRDATA
?RMSG_SETPCTRDATA@@3IB DD 01H DUP (?)			; RMSG_SETPCTRDATA
?RMSG_CONCERNHWND@@3IB DD 01H DUP (?)			; RMSG_CONCERNHWND
?RMSG_INTREQUEST@@3IB DD 01H DUP (?)			; RMSG_INTREQUEST
?RMSG_GWANSIMREGISTER@@3IB DD 01H DUP (?)		; RMSG_GWANSIMREGISTER
_BSS	ENDS
CRT$XCU	SEGMENT
?RMSG_INTERFACE$initializer$@@3P6AXXZA DD FLAT:??__ERMSG_INTERFACE@@YAXXZ ; RMSG_INTERFACE$initializer$
CRT$XCU	ENDS
;	COMDAT ??_R1A@?0A@EA@CSkinColorManager@@8
rdata$r	SEGMENT
??_R1A@?0A@EA@CSkinColorManager@@8 DD FLAT:??_R0?AVCSkinColorManager@@@8 ; CSkinColorManager::`RTTI Base Class Descriptor at (0,-1,0,64)'
	DD	01H
	DD	00H
	DD	0ffffffffH
	DD	00H
	DD	040H
	DD	FLAT:??_R3CSkinColorManager@@8
rdata$r	ENDS
;	COMDAT ??_R2CSkinColorManager@@8
rdata$r	SEGMENT
??_R2CSkinColorManager@@8 DD FLAT:??_R1A@?0A@EA@CSkinColorManager@@8 ; CSkinColorManager::`RTTI Base Class Array'
	DD	FLAT:??_R1A@?0A@EA@ISkinColorManager@@8
rdata$r	ENDS
;	COMDAT ??_R3CSkinColorManager@@8
rdata$r	SEGMENT
??_R3CSkinColorManager@@8 DD 00H			; CSkinColorManager::`RTTI Class Hierarchy Descriptor'
	DD	00H
	DD	02H
	DD	FLAT:??_R2CSkinColorManager@@8
rdata$r	ENDS
;	COMDAT ??_R0?AVCSkinColorManager@@@8
data$rs	SEGMENT
??_R0?AVCSkinColorManager@@@8 DD FLAT:??_7type_info@@6B@ ; CSkinColorManager `RTTI Type Descriptor'
	DD	00H
	DB	'.?AVCSkinColorManager@@', 00H
data$rs	ENDS
;	COMDAT ??_R4CSkinColorManager@@6B@
rdata$r	SEGMENT
??_R4CSkinColorManager@@6B@ DD 00H			; CSkinColorManager::`RTTI Complete Object Locator'
	DD	00H
	DD	00H
	DD	FLAT:??_R0?AVCSkinColorManager@@@8
	DD	FLAT:??_R3CSkinColorManager@@8
rdata$r	ENDS
;	COMDAT ??_R1A@?0A@EA@?$CList@PAUISkinColorSite@@PAU1@@@8
rdata$r	SEGMENT
??_R1A@?0A@EA@?$CList@PAUISkinColorSite@@PAU1@@@8 DD FLAT:??_R0?AV?$CList@PAUISkinColorSite@@PAU1@@@@8 ; CList<ISkinColorSite *,ISkinColorSite *>::`RTTI Base Class Descriptor at (0,-1,0,64)'
	DD	01H
	DD	00H
	DD	0ffffffffH
	DD	00H
	DD	040H
	DD	FLAT:??_R3?$CList@PAUISkinColorSite@@PAU1@@@8
rdata$r	ENDS
;	COMDAT ??_R2?$CList@PAUISkinColorSite@@PAU1@@@8
rdata$r	SEGMENT
??_R2?$CList@PAUISkinColorSite@@PAU1@@@8 DD FLAT:??_R1A@?0A@EA@?$CList@PAUISkinColorSite@@PAU1@@@8 ; CList<ISkinColorSite *,ISkinColorSite *>::`RTTI Base Class Array'
	DD	FLAT:??_R1A@?0A@EA@CObject@@8
rdata$r	ENDS
;	COMDAT ??_R3?$CList@PAUISkinColorSite@@PAU1@@@8
rdata$r	SEGMENT
??_R3?$CList@PAUISkinColorSite@@PAU1@@@8 DD 00H		; CList<ISkinColorSite *,ISkinColorSite *>::`RTTI Class Hierarchy Descriptor'
	DD	00H
	DD	02H
	DD	FLAT:??_R2?$CList@PAUISkinColorSite@@PAU1@@@8
rdata$r	ENDS
;	COMDAT ??_R0?AV?$CList@PAUISkinColorSite@@PAU1@@@@8
data$rs	SEGMENT
??_R0?AV?$CList@PAUISkinColorSite@@PAU1@@@@8 DD FLAT:??_7type_info@@6B@ ; CList<ISkinColorSite *,ISkinColorSite *> `RTTI Type Descriptor'
	DD	00H
	DB	'.?AV?$CList@PAUISkinColorSite@@PAU1@@@', 00H
data$rs	ENDS
;	COMDAT ??_R4?$CList@PAUISkinColorSite@@PAU1@@@6B@
rdata$r	SEGMENT
??_R4?$CList@PAUISkinColorSite@@PAU1@@@6B@ DD 00H	; CList<ISkinColorSite *,ISkinColorSite *>::`RTTI Complete Object Locator'
	DD	00H
	DD	00H
	DD	FLAT:??_R0?AV?$CList@PAUISkinColorSite@@PAU1@@@@8
	DD	FLAT:??_R3?$CList@PAUISkinColorSite@@PAU1@@@8
rdata$r	ENDS
;	COMDAT ??_R1A@?0A@EA@?$CArray@U_tabUserColorTable@@U1@@@8
rdata$r	SEGMENT
??_R1A@?0A@EA@?$CArray@U_tabUserColorTable@@U1@@@8 DD FLAT:??_R0?AV?$CArray@U_tabUserColorTable@@U1@@@@8 ; CArray<_tabUserColorTable,_tabUserColorTable>::`RTTI Base Class Descriptor at (0,-1,0,64)'
	DD	01H
	DD	00H
	DD	0ffffffffH
	DD	00H
	DD	040H
	DD	FLAT:??_R3?$CArray@U_tabUserColorTable@@U1@@@8
rdata$r	ENDS
;	COMDAT ??_R2?$CArray@U_tabUserColorTable@@U1@@@8
rdata$r	SEGMENT
??_R2?$CArray@U_tabUserColorTable@@U1@@@8 DD FLAT:??_R1A@?0A@EA@?$CArray@U_tabUserColorTable@@U1@@@8 ; CArray<_tabUserColorTable,_tabUserColorTable>::`RTTI Base Class Array'
	DD	FLAT:??_R1A@?0A@EA@CObject@@8
rdata$r	ENDS
;	COMDAT ??_R3?$CArray@U_tabUserColorTable@@U1@@@8
rdata$r	SEGMENT
??_R3?$CArray@U_tabUserColorTable@@U1@@@8 DD 00H	; CArray<_tabUserColorTable,_tabUserColorTable>::`RTTI Class Hierarchy Descriptor'
	DD	00H
	DD	02H
	DD	FLAT:??_R2?$CArray@U_tabUserColorTable@@U1@@@8
rdata$r	ENDS
;	COMDAT ??_R0?AV?$CArray@U_tabUserColorTable@@U1@@@@8
data$rs	SEGMENT
??_R0?AV?$CArray@U_tabUserColorTable@@U1@@@@8 DD FLAT:??_7type_info@@6B@ ; CArray<_tabUserColorTable,_tabUserColorTable> `RTTI Type Descriptor'
	DD	00H
	DB	'.?AV?$CArray@U_tabUserColorTable@@U1@@@', 00H
data$rs	ENDS
;	COMDAT ??_R4?$CArray@U_tabUserColorTable@@U1@@@6B@
rdata$r	SEGMENT
??_R4?$CArray@U_tabUserColorTable@@U1@@@6B@ DD 00H	; CArray<_tabUserColorTable,_tabUserColorTable>::`RTTI Complete Object Locator'
	DD	00H
	DD	00H
	DD	FLAT:??_R0?AV?$CArray@U_tabUserColorTable@@U1@@@@8
	DD	FLAT:??_R3?$CArray@U_tabUserColorTable@@U1@@@8
rdata$r	ENDS
;	COMDAT ??_R1A@?0A@EA@ISkinColorManager@@8
rdata$r	SEGMENT
??_R1A@?0A@EA@ISkinColorManager@@8 DD FLAT:??_R0?AUISkinColorManager@@@8 ; ISkinColorManager::`RTTI Base Class Descriptor at (0,-1,0,64)'
	DD	00H
	DD	00H
	DD	0ffffffffH
	DD	00H
	DD	040H
	DD	FLAT:??_R3ISkinColorManager@@8
rdata$r	ENDS
;	COMDAT ??_R2ISkinColorManager@@8
rdata$r	SEGMENT
??_R2ISkinColorManager@@8 DD FLAT:??_R1A@?0A@EA@ISkinColorManager@@8 ; ISkinColorManager::`RTTI Base Class Array'
rdata$r	ENDS
;	COMDAT ??_R3ISkinColorManager@@8
rdata$r	SEGMENT
??_R3ISkinColorManager@@8 DD 00H			; ISkinColorManager::`RTTI Class Hierarchy Descriptor'
	DD	00H
	DD	01H
	DD	FLAT:??_R2ISkinColorManager@@8
rdata$r	ENDS
;	COMDAT ??_R0?AUISkinColorManager@@@8
data$rs	SEGMENT
??_R0?AUISkinColorManager@@@8 DD FLAT:??_7type_info@@6B@ ; ISkinColorManager `RTTI Type Descriptor'
	DD	00H
	DB	'.?AUISkinColorManager@@', 00H
data$rs	ENDS
;	COMDAT ??_R1A@?0A@EA@?$CArray@UST_SKININFO@@U1@@@8
rdata$r	SEGMENT
??_R1A@?0A@EA@?$CArray@UST_SKININFO@@U1@@@8 DD FLAT:??_R0?AV?$CArray@UST_SKININFO@@U1@@@@8 ; CArray<ST_SKININFO,ST_SKININFO>::`RTTI Base Class Descriptor at (0,-1,0,64)'
	DD	01H
	DD	00H
	DD	0ffffffffH
	DD	00H
	DD	040H
	DD	FLAT:??_R3?$CArray@UST_SKININFO@@U1@@@8
rdata$r	ENDS
;	COMDAT ??_R2?$CArray@UST_SKININFO@@U1@@@8
rdata$r	SEGMENT
??_R2?$CArray@UST_SKININFO@@U1@@@8 DD FLAT:??_R1A@?0A@EA@?$CArray@UST_SKININFO@@U1@@@8 ; CArray<ST_SKININFO,ST_SKININFO>::`RTTI Base Class Array'
	DD	FLAT:??_R1A@?0A@EA@CObject@@8
rdata$r	ENDS
;	COMDAT ??_R3?$CArray@UST_SKININFO@@U1@@@8
rdata$r	SEGMENT
??_R3?$CArray@UST_SKININFO@@U1@@@8 DD 00H		; CArray<ST_SKININFO,ST_SKININFO>::`RTTI Class Hierarchy Descriptor'
	DD	00H
	DD	02H
	DD	FLAT:??_R2?$CArray@UST_SKININFO@@U1@@@8
rdata$r	ENDS
;	COMDAT ??_R0?AV?$CArray@UST_SKININFO@@U1@@@@8
data$rs	SEGMENT
??_R0?AV?$CArray@UST_SKININFO@@U1@@@@8 DD FLAT:??_7type_info@@6B@ ; CArray<ST_SKININFO,ST_SKININFO> `RTTI Type Descriptor'
	DD	00H
	DB	'.?AV?$CArray@UST_SKININFO@@U1@@@', 00H
data$rs	ENDS
;	COMDAT ??_R4?$CArray@UST_SKININFO@@U1@@@6B@
rdata$r	SEGMENT
??_R4?$CArray@UST_SKININFO@@U1@@@6B@ DD 00H		; CArray<ST_SKININFO,ST_SKININFO>::`RTTI Complete Object Locator'
	DD	00H
	DD	00H
	DD	FLAT:??_R0?AV?$CArray@UST_SKININFO@@U1@@@@8
	DD	FLAT:??_R3?$CArray@UST_SKININFO@@U1@@@8
rdata$r	ENDS
;	COMDAT ??_C@_0EK@KHAKBPBF@?$LN?$LK?E?$LC?$LA?m?$MA?$PM?$HMDefaultColorTable?4cfg?$HM@
CONST	SEGMENT
??_C@_0EK@KHAKBPBF@?$LN?$LK?E?$LC?$LA?m?$MA?$PM?$HMDefaultColorTable?4cfg?$HM@ DB 0bdH
	DB	0baH, 0c5H, 0b2H, 0b0H, 0edH, 0c0H, 0fcH, '|DefaultColorTable.'
	DB	'cfg|Main_bg|116,112,159|Treeicon.bmp|1|default', 00H ; `string'
CONST	ENDS
;	COMDAT ??_C@_04OGKJMPGK@?$CF02d@
CONST	SEGMENT
??_C@_04OGKJMPGK@?$CF02d@ DB '%02d', 00H		; `string'
CONST	ENDS
;	COMDAT ??_C@_05IJGIMMHE@Count@
CONST	SEGMENT
??_C@_05IJGIMMHE@Count@ DB 'Count', 00H			; `string'
CONST	ENDS
;	COMDAT ??_C@_04BLMKLGAB@SKIN@
CONST	SEGMENT
??_C@_04BLMKLGAB@SKIN@ DB 'SKIN', 00H			; `string'
CONST	ENDS
;	COMDAT ??_C@_05BMGBEOOC@?$CFs?2?$CFs@
CONST	SEGMENT
??_C@_05BMGBEOOC@?$CFs?2?$CFs@ DB '%s\%s', 00H		; `string'
CONST	ENDS
;	COMDAT ??_C@_0BA@NMCBNOGD@Data?2Config?4cfg@
CONST	SEGMENT
??_C@_0BA@NMCBNOGD@Data?2Config?4cfg@ DB 'Data\Config.cfg', 00H ; `string'
CONST	ENDS
;	COMDAT ??_C@_0BC@HNKKLCOJ@?$CF?$FL?$FO?0?$FN?0?5?$CFd?0?5?$CFd?0?5?$CFd@
CONST	SEGMENT
??_C@_0BC@HNKKLCOJ@?$CF?$FL?$FO?0?$FN?0?5?$CFd?0?5?$CFd?0?5?$CFd@ DB '%[^'
	DB	',], %d, %d, %d', 00H			; `string'
CONST	ENDS
;	COMDAT ??_C@_0L@MNJMPGLE@?D?C?$LH?$KP?$MA?N?$LF?$KG?$LN?$LK@
CONST	SEGMENT
??_C@_0L@MNJMPGLE@?D?C?$LH?$KP?$MA?N?$LF?$KG?$LN?$LK@ DB 0c4H, 0c3H, 0b7H
	DB	0afH, 0c0H, 0ceH, 0b5H, 0a6H, 0bdH, 0baH, 00H ; `string'
CONST	ENDS
;	COMDAT ??_C@_0DB@OKFKJJJD@?F?D?$MA?O?$FL?$CFs?$FN?$LP?$KB?$LM?$KN?5?D?$KO?$LG?s?E?W?$MA?L?$LK?m?5?A?$KE?$LK?$LI?$LI?$KG?5@
CONST	SEGMENT
??_C@_0DB@OKFKJJJD@?F?D?$MA?O?$FL?$CFs?$FN?$LP?$KB?$LM?$KN?5?D?$KO?$LG?s?E?W?$MA?L?$LK?m?5?A?$KE?$LK?$LI?$LI?$KG?5@ DB 0c6H
	DB	0c4H, 0c0H, 0cfH, '[%s]', 0bfH, 0a1H, 0bcH, 0adH, ' ', 0c4H, 0aeH
	DB	0b6H, 0f3H, 0c5H, 0d7H, 0c0H, 0ccH, 0baH, 0edH, ' ', 0c1H, 0a4H
	DB	0baH, 0b8H, 0b8H, 0a6H, ' ', 0c0H, 0d0H, 0c0H, 0bbH, ' ', 0bcH
	DB	0f6H, ' ', 0beH, 0f8H, 0bdH, 0c0H, 0b4H, 0cfH, 0b4H, 0d9H, '.', 00H ; `string'
CONST	ENDS
;	COMDAT ??_C@_08JEMOIDPL@?D?C?$LH?$KP?$LA?$LD?$LM?v@
CONST	SEGMENT
??_C@_08JEMOIDPL@?D?C?$LH?$KP?$LA?$LD?$LM?v@ DB 0c4H, 0c3H, 0b7H, 0afH, 0b0H
	DB	0b3H, 0bcH, 0f6H, 00H			; `string'
CONST	ENDS
;	COMDAT ??_C@_04KIHPKAMN@?$LA?$LD?$LM?v@
CONST	SEGMENT
??_C@_04KIHPKAMN@?$LA?$LD?$LM?v@ DB 0b0H, 0b3H, 0bcH, 0f6H, 00H ; `string'
CONST	ENDS
;	COMDAT ??_7CSkinColorManager@@6B@
CONST	SEGMENT
??_7CSkinColorManager@@6B@ DD FLAT:??_R4CSkinColorManager@@6B@ ; CSkinColorManager::`vftable'
	DD	FLAT:?GetColor@CSkinColorManager@@UAGKH@Z
	DD	FLAT:?GetColor@CSkinColorManager@@UAGKPBD@Z
	DD	FLAT:?GetIndex@CSkinColorManager@@UAGHPBD@Z
	DD	FLAT:?GetColorTableArray@CSkinColorManager@@UAGJXZ
	DD	FLAT:?AdviseSite@CSkinColorManager@@UAGJPAUISkinColorSite@@@Z
	DD	FLAT:?UnadviseSite@CSkinColorManager@@UAGHJ@Z
	DD	FLAT:?LoadColorTable@CSkinColorManager@@UAGHPBDH@Z
	DD	FLAT:?NotifyToSite@CSkinColorManager@@UAGXXZ
	DD	FLAT:?SetSkinConfig@CSkinColorManager@@UAGHPBD@Z
	DD	FLAT:?GetSkinCount@CSkinColorManager@@UAGHXZ
	DD	FLAT:?GetSkinInfo@CSkinColorManager@@UAGHHAAUST_SKININFO@@@Z
	DD	FLAT:?GetDefaultColor@CSkinColorManager@@UAGKH@Z
	DD	FLAT:?GetDefaultColor@CSkinColorManager@@UAGKPBD@Z
	DD	FLAT:?GetDefaultIndex@CSkinColorManager@@UAGHPBD@Z
	DD	FLAT:?GetDefaultColorTableArray@CSkinColorManager@@UAGJXZ
	DD	FLAT:?LoadDefaultColorTable@CSkinColorManager@@UAGHPBD@Z
CONST	ENDS
;	COMDAT ??_7?$CArray@UST_SKININFO@@U1@@@6B@
CONST	SEGMENT
??_7?$CArray@UST_SKININFO@@U1@@@6B@ DD FLAT:??_R4?$CArray@UST_SKININFO@@U1@@@6B@ ; CArray<ST_SKININFO,ST_SKININFO>::`vftable'
	DD	FLAT:?GetRuntimeClass@CObject@@UBEPAUCRuntimeClass@@XZ
	DD	FLAT:??_E?$CArray@UST_SKININFO@@U1@@@UAEPAXI@Z
	DD	FLAT:?Serialize@?$CArray@UST_SKININFO@@U1@@@UAEXAAVCArchive@@@Z
	DD	FLAT:?AssertValid@CObject@@UBEXXZ
	DD	FLAT:?Dump@CObject@@UBEXAAVCDumpContext@@@Z
CONST	ENDS
;	COMDAT ??_7?$CList@PAUISkinColorSite@@PAU1@@@6B@
CONST	SEGMENT
??_7?$CList@PAUISkinColorSite@@PAU1@@@6B@ DD FLAT:??_R4?$CList@PAUISkinColorSite@@PAU1@@@6B@ ; CList<ISkinColorSite *,ISkinColorSite *>::`vftable'
	DD	FLAT:?GetRuntimeClass@CObject@@UBEPAUCRuntimeClass@@XZ
	DD	FLAT:??_E?$CList@PAUISkinColorSite@@PAU1@@@UAEPAXI@Z
	DD	FLAT:?Serialize@?$CList@PAUISkinColorSite@@PAU1@@@UAEXAAVCArchive@@@Z
	DD	FLAT:?AssertValid@CObject@@UBEXXZ
	DD	FLAT:?Dump@CObject@@UBEXAAVCDumpContext@@@Z
CONST	ENDS
;	COMDAT ??_7?$CArray@U_tabUserColorTable@@U1@@@6B@
CONST	SEGMENT
??_7?$CArray@U_tabUserColorTable@@U1@@@6B@ DD FLAT:??_R4?$CArray@U_tabUserColorTable@@U1@@@6B@ ; CArray<_tabUserColorTable,_tabUserColorTable>::`vftable'
	DD	FLAT:?GetRuntimeClass@CObject@@UBEPAUCRuntimeClass@@XZ
	DD	FLAT:??_E?$CArray@U_tabUserColorTable@@U1@@@UAEPAXI@Z
	DD	FLAT:?Serialize@?$CArray@U_tabUserColorTable@@U1@@@UAEXAAVCArchive@@@Z
	DD	FLAT:?AssertValid@CObject@@UBEXXZ
	DD	FLAT:?Dump@CObject@@UBEXAAVCDumpContext@@@Z
CONST	ENDS
;	COMDAT ??_C@_04LJDDIHIK@?4bmp@
CONST	SEGMENT
??_C@_04LJDDIHIK@?4bmp@ DB '.bmp', 00H			; `string'
CONST	ENDS
;	COMDAT ??_R1A@?0A@EA@CObject@@8
rdata$r	SEGMENT
??_R1A@?0A@EA@CObject@@8 DD FLAT:??_R0?AVCObject@@@8	; CObject::`RTTI Base Class Descriptor at (0,-1,0,64)'
	DD	00H
	DD	00H
	DD	0ffffffffH
	DD	00H
	DD	040H
	DD	FLAT:??_R3CObject@@8
rdata$r	ENDS
;	COMDAT ??_R2CObject@@8
rdata$r	SEGMENT
??_R2CObject@@8 DD FLAT:??_R1A@?0A@EA@CObject@@8	; CObject::`RTTI Base Class Array'
rdata$r	ENDS
;	COMDAT ??_R3CObject@@8
rdata$r	SEGMENT
??_R3CObject@@8 DD 00H					; CObject::`RTTI Class Hierarchy Descriptor'
	DD	00H
	DD	01H
	DD	FLAT:??_R2CObject@@8
rdata$r	ENDS
;	COMDAT ??_R0?AVCObject@@@8
data$rs	SEGMENT
??_R0?AVCObject@@@8 DD FLAT:??_7type_info@@6B@		; CObject `RTTI Type Descriptor'
	DD	00H
	DB	'.?AVCObject@@', 00H
data$rs	ENDS
;	COMDAT ??_C@_00CNPNBAHC@@
CONST	SEGMENT
??_C@_00CNPNBAHC@@ DB 00H				; `string'
CONST	ENDS
;	COMDAT ??_C@_02DPKJAMEF@?$CFd@
CONST	SEGMENT
??_C@_02DPKJAMEF@?$CFd@ DB '%d', 00H			; `string'
CONST	ENDS
;	COMDAT xdata$x
xdata$x	SEGMENT
__unwindtable$?SetAt@?$CArray@UST_SKININFO@@U1@@@QAEXHUST_SKININFO@@@Z DD 0ffffffffH
	DD	FLAT:__unwindfunclet$?SetAt@?$CArray@UST_SKININFO@@U1@@@QAEXHUST_SKININFO@@@Z$0
__ehfuncinfo$?SetAt@?$CArray@UST_SKININFO@@U1@@@QAEXHUST_SKININFO@@@Z DD 019930522H
	DD	01H
	DD	FLAT:__unwindtable$?SetAt@?$CArray@UST_SKININFO@@U1@@@QAEXHUST_SKININFO@@@Z
	DD	2 DUP(00H)
	DD	2 DUP(00H)
	DD	00H
	DD	01H
xdata$x	ENDS
;	COMDAT xdata$x
xdata$x	SEGMENT
__unwindtable$??_G?$CList@PAUISkinColorSite@@PAU1@@@UAEPAXI@Z DD 0ffffffffH
	DD	FLAT:___std_terminate
__ehfuncinfo$??_G?$CList@PAUISkinColorSite@@PAU1@@@UAEPAXI@Z DD 019930522H
	DD	01H
	DD	FLAT:__unwindtable$??_G?$CList@PAUISkinColorSite@@PAU1@@@UAEPAXI@Z
	DD	2 DUP(00H)
	DD	2 DUP(00H)
	DD	00H
	DD	05H
xdata$x	ENDS
;	COMDAT xdata$x
xdata$x	SEGMENT
__ehfuncinfo$??1?$CList@PAUISkinColorSite@@PAU1@@@UAE@XZ DD 019930522H
	DD	00H
	DD	00H
	DD	2 DUP(00H)
	DD	2 DUP(00H)
	DD	00H
	DD	05H
xdata$x	ENDS
;	COMDAT xdata$x
xdata$x	SEGMENT
__unwindtable$?SetAt@?$CArray@U_tabUserColorTable@@U1@@@QAEXHU_tabUserColorTable@@@Z DD 0ffffffffH
	DD	FLAT:__unwindfunclet$?SetAt@?$CArray@U_tabUserColorTable@@U1@@@QAEXHU_tabUserColorTable@@@Z$0
__ehfuncinfo$?SetAt@?$CArray@U_tabUserColorTable@@U1@@@QAEXHU_tabUserColorTable@@@Z DD 019930522H
	DD	01H
	DD	FLAT:__unwindtable$?SetAt@?$CArray@U_tabUserColorTable@@U1@@@QAEXHU_tabUserColorTable@@@Z
	DD	2 DUP(00H)
	DD	2 DUP(00H)
	DD	00H
	DD	01H
xdata$x	ENDS
;	COMDAT xdata$x
xdata$x	SEGMENT
__ehfuncinfo$?LoadSkinInfo@CSkinColorManager@@QAEXXZ DD 019930522H
	DD	08H
	DD	FLAT:__unwindtable$?LoadSkinInfo@CSkinColorManager@@QAEXXZ
	DD	2 DUP(00H)
	DD	2 DUP(00H)
	DD	00H
	DD	01H
__unwindtable$?LoadSkinInfo@CSkinColorManager@@QAEXXZ DD 0ffffffffH
	DD	FLAT:__unwindfunclet$?LoadSkinInfo@CSkinColorManager@@QAEXXZ$0
	DD	00H
	DD	FLAT:__unwindfunclet$?LoadSkinInfo@CSkinColorManager@@QAEXXZ$3
	DD	01H
	DD	FLAT:__unwindfunclet$?LoadSkinInfo@CSkinColorManager@@QAEXXZ$4
	DD	02H
	DD	FLAT:__unwindfunclet$?LoadSkinInfo@CSkinColorManager@@QAEXXZ$5
	DD	03H
	DD	FLAT:__unwindfunclet$?LoadSkinInfo@CSkinColorManager@@QAEXXZ$6
	DD	04H
	DD	FLAT:__unwindfunclet$?LoadSkinInfo@CSkinColorManager@@QAEXXZ$7
	DD	05H
	DD	FLAT:__unwindfunclet$?LoadSkinInfo@CSkinColorManager@@QAEXXZ$8
	DD	00H
	DD	FLAT:__unwindfunclet$?LoadSkinInfo@CSkinColorManager@@QAEXXZ$10
xdata$x	ENDS
;	COMDAT xdata$x
xdata$x	SEGMENT
__unwindtable$??1CSkinColorManager@@QAE@XZ DD 0ffffffffH
	DD	FLAT:___std_terminate
__ehfuncinfo$??1CSkinColorManager@@QAE@XZ DD 019930522H
	DD	01H
	DD	FLAT:__unwindtable$??1CSkinColorManager@@QAE@XZ
	DD	2 DUP(00H)
	DD	2 DUP(00H)
	DD	00H
	DD	05H
xdata$x	ENDS
;	COMDAT xdata$x
xdata$x	SEGMENT
__ehfuncinfo$??0ST_SKININFO@@QAE@ABU0@@Z DD 019930522H
	DD	06H
	DD	FLAT:__unwindtable$??0ST_SKININFO@@QAE@ABU0@@Z
	DD	2 DUP(00H)
	DD	2 DUP(00H)
	DD	00H
	DD	01H
__unwindtable$??0ST_SKININFO@@QAE@ABU0@@Z DD 0ffffffffH
	DD	FLAT:__unwindfunclet$??0ST_SKININFO@@QAE@ABU0@@Z$0
	DD	00H
	DD	FLAT:__unwindfunclet$??0ST_SKININFO@@QAE@ABU0@@Z$1
	DD	01H
	DD	FLAT:__unwindfunclet$??0ST_SKININFO@@QAE@ABU0@@Z$2
	DD	02H
	DD	FLAT:__unwindfunclet$??0ST_SKININFO@@QAE@ABU0@@Z$3
	DD	03H
	DD	FLAT:__unwindfunclet$??0ST_SKININFO@@QAE@ABU0@@Z$4
	DD	04H
	DD	FLAT:__unwindfunclet$??0ST_SKININFO@@QAE@ABU0@@Z$5
xdata$x	ENDS
CRT$XCU	SEGMENT
?RMSG_GETPCTRDATA$initializer$@@3P6AXXZA DD FLAT:??__ERMSG_GETPCTRDATA@@YAXXZ ; RMSG_GETPCTRDATA$initializer$
CRT$XCU	ENDS
CRT$XCU	SEGMENT
?RMSG_SETPCTRDATA$initializer$@@3P6AXXZA DD FLAT:??__ERMSG_SETPCTRDATA@@YAXXZ ; RMSG_SETPCTRDATA$initializer$
CRT$XCU	ENDS
CRT$XCU	SEGMENT
?RMSG_CONCERNHWND$initializer$@@3P6AXXZA DD FLAT:??__ERMSG_CONCERNHWND@@YAXXZ ; RMSG_CONCERNHWND$initializer$
CRT$XCU	ENDS
CRT$XCU	SEGMENT
?RMSG_INTREQUEST$initializer$@@3P6AXXZA DD FLAT:??__ERMSG_INTREQUEST@@YAXXZ ; RMSG_INTREQUEST$initializer$
CRT$XCU	ENDS
CRT$XCU	SEGMENT
?RMSG_GWANSIMREGISTER$initializer$@@3P6AXXZA DD FLAT:??__ERMSG_GWANSIMREGISTER@@YAXXZ ; RMSG_GWANSIMREGISTER$initializer$
CRT$XCU	ENDS
; Function compile flags: /Ogtp
; File C:\Program Files (x86)\Microsoft Visual Studio\2019\Community\VC\Tools\MSVC\14.29.30133\atlmfc\include\afxtempl.h
; File C:\Program Files (x86)\Microsoft Visual Studio\2019\Community\VC\Tools\MSVC\14.29.30133\atlmfc\include\afx.inl
; File C:\Program Files (x86)\Microsoft Visual Studio\2019\Community\VC\Tools\MSVC\14.29.30133\atlmfc\include\afxtempl.h
; File C:\Program Files (x86)\Microsoft Visual Studio\2019\Community\VC\Tools\MSVC\14.29.30133\atlmfc\include\afx.inl
; File C:\Program Files (x86)\Microsoft Visual Studio\2019\Community\VC\Tools\MSVC\14.29.30133\atlmfc\include\afxtempl.h
; File C:\Program Files (x86)\Microsoft Visual Studio\2019\Community\VC\Tools\MSVC\14.29.30133\atlmfc\include\afx.inl
; File C:\Program Files (x86)\Microsoft Visual Studio\2019\Community\VC\Tools\MSVC\14.29.30133\atlmfc\include\afxtempl.h
;	COMDAT ??$SerializeElements@PAUISkinColorSite@@@@YGXAAVCArchive@@PAPAUISkinColorSite@@H@Z
_TEXT	SEGMENT
_ar$ = 8						; size = 4
_pElements$ = 12					; size = 4
_nCount$ = 16						; size = 4
??$SerializeElements@PAUISkinColorSite@@@@YGXAAVCArchive@@PAPAUISkinColorSite@@H@Z PROC ; SerializeElements<ISkinColorSite *>, COMDAT

; 67   : {

  00000	55		 push	 ebp
  00001	8b ec		 mov	 ebp, esp

; 68   : 	ENSURE(nCount == 0 || pElements != NULL);

  00003	8b 4d 0c	 mov	 ecx, DWORD PTR _pElements$[ebp]
  00006	53		 push	 ebx
  00007	56		 push	 esi
  00008	8b 75 10	 mov	 esi, DWORD PTR _nCount$[ebp]
  0000b	57		 push	 edi
  0000c	85 f6		 test	 esi, esi
  0000e	74 08		 je	 SHORT $LN2@SerializeE
  00010	85 c9		 test	 ecx, ecx
  00012	0f 84 89 00 00
	00		 je	 $LN34@SerializeE
$LN2@SerializeE:
; File C:\Program Files (x86)\Microsoft Visual Studio\2019\Community\VC\Tools\MSVC\14.29.30133\atlmfc\include\afx.inl

; 212  : 	{ return (m_nMode & CArchive::load) == 0; }

  00018	8b 55 08	 mov	 edx, DWORD PTR _ar$[ebp]
  0001b	8b 42 18	 mov	 eax, DWORD PTR [edx+24]
  0001e	f7 d0		 not	 eax
  00020	a8 01		 test	 al, 1
; File C:\Program Files (x86)\Microsoft Visual Studio\2019\Community\VC\Tools\MSVC\14.29.30133\atlmfc\include\afxtempl.h

; 73   : 	if (ar.IsStoring())

  00022	74 3c		 je	 SHORT $LN10@SerializeE

; 74   : 	{
; 75   : 		TYPE* pData;
; 76   : 		UINT_PTR nElementsLeft;
; 77   : 
; 78   : 		nElementsLeft = nCount;
; 79   : 		pData = pElements;
; 80   : 		while( nElementsLeft > 0 )

  00024	85 f6		 test	 esi, esi
  00026	74 31		 je	 SHORT $LN8@SerializeE
  00028	0f 1f 84 00 00
	00 00 00	 npad	 8
$LL5@SerializeE:

; 81   : 		{
; 82   : 			UINT nElementsToWrite;
; 83   : 
; 84   : 			nElementsToWrite = UINT(__min(nElementsLeft, INT_MAX/sizeof(TYPE)));

  00030	bb ff ff ff 1f	 mov	 ebx, 536870911		; 1fffffffH
  00035	3b f3		 cmp	 esi, ebx
  00037	0f 42 de	 cmovb	 ebx, esi

; 85   : 			ar.Write(pData, nElementsToWrite*sizeof(TYPE));

  0003a	8d 3c 9d 00 00
	00 00		 lea	 edi, DWORD PTR [ebx*4]
  00041	57		 push	 edi
  00042	51		 push	 ecx
  00043	8b ca		 mov	 ecx, edx
  00045	e8 00 00 00 00	 call	 ?Write@CArchive@@QAEXPBXI@Z ; CArchive::Write

; 86   : 			nElementsLeft -= nElementsToWrite;
; 87   : 			pData += nElementsToWrite;

  0004a	8b 4d 0c	 mov	 ecx, DWORD PTR _pElements$[ebp]
  0004d	8b 55 08	 mov	 edx, DWORD PTR _ar$[ebp]
  00050	03 cf		 add	 ecx, edi
  00052	89 4d 0c	 mov	 DWORD PTR _pElements$[ebp], ecx
  00055	2b f3		 sub	 esi, ebx
  00057	75 d7		 jne	 SHORT $LL5@SerializeE
$LN8@SerializeE:
  00059	5f		 pop	 edi

; 105  : 		}
; 106  : 	}
; 107  : }

  0005a	5e		 pop	 esi
  0005b	5b		 pop	 ebx
  0005c	5d		 pop	 ebp
  0005d	c2 0c 00	 ret	 12			; 0000000cH
$LN10@SerializeE:

; 97   : 		while( nElementsLeft > 0 )

  00060	85 f6		 test	 esi, esi
  00062	74 f5		 je	 SHORT $LN8@SerializeE
$LL7@SerializeE:

; 98   : 		{
; 99   : 			UINT nElementsToRead;
; 100  : 
; 101  : 			nElementsToRead = UINT(__min(nElementsLeft, INT_MAX/sizeof(TYPE)));

  00064	bf ff ff ff 1f	 mov	 edi, 536870911		; 1fffffffH
  00069	3b f7		 cmp	 esi, edi
  0006b	0f 42 fe	 cmovb	 edi, esi

; 102  : 			ar.EnsureRead(pData, nElementsToRead*sizeof(TYPE));

  0006e	8d 1c bd 00 00
	00 00		 lea	 ebx, DWORD PTR [edi*4]
; File C:\Program Files (x86)\Microsoft Visual Studio\2019\Community\VC\Tools\MSVC\14.29.30133\atlmfc\include\afx.inl

; 399  : 	UINT nRead=Read(lpBuf, nCount);

  00075	53		 push	 ebx
  00076	51		 push	 ecx
  00077	8b ca		 mov	 ecx, edx
  00079	e8 00 00 00 00	 call	 ?Read@CArchive@@QAEIPAXI@Z ; CArchive::Read

; 400  : 	if(nRead!=nCount)

  0007e	3b c3		 cmp	 eax, ebx
  00080	75 16		 jne	 SHORT $LN23@SerializeE
; File C:\Program Files (x86)\Microsoft Visual Studio\2019\Community\VC\Tools\MSVC\14.29.30133\atlmfc\include\afxtempl.h

; 97   : 		while( nElementsLeft > 0 )

  00082	8b 4d 0c	 mov	 ecx, DWORD PTR _pElements$[ebp]
  00085	8b 55 08	 mov	 edx, DWORD PTR _ar$[ebp]

; 103  : 			nElementsLeft -= nElementsToRead;
; 104  : 			pData += nElementsToRead;

  00088	03 cb		 add	 ecx, ebx
  0008a	89 4d 0c	 mov	 DWORD PTR _pElements$[ebp], ecx
  0008d	2b f7		 sub	 esi, edi
  0008f	75 d3		 jne	 SHORT $LL7@SerializeE

; 105  : 		}
; 106  : 	}
; 107  : }

  00091	5f		 pop	 edi
  00092	5e		 pop	 esi
  00093	5b		 pop	 ebx
  00094	5d		 pop	 ebp
  00095	c2 0c 00	 ret	 12			; 0000000cH
$LN23@SerializeE:
; File C:\Program Files (x86)\Microsoft Visual Studio\2019\Community\VC\Tools\MSVC\14.29.30133\atlmfc\include\afx.inl

; 402  : 		AfxThrowArchiveException(CArchiveException::endOfFile);

  00098	6a 00		 push	 0
  0009a	6a 03		 push	 3
  0009c	e8 00 00 00 00	 call	 ?AfxThrowArchiveException@@YGXHPBD@Z ; AfxThrowArchiveException
$LN34@SerializeE:
; File C:\Program Files (x86)\Microsoft Visual Studio\2019\Community\VC\Tools\MSVC\14.29.30133\atlmfc\include\afxtempl.h

; 68   : 	ENSURE(nCount == 0 || pElements != NULL);

  000a1	e8 00 00 00 00	 call	 ?AfxThrowInvalidArgException@@YGXXZ ; AfxThrowInvalidArgException
$LN32@SerializeE:
  000a6	cc		 int	 3
??$SerializeElements@PAUISkinColorSite@@@@YGXAAVCArchive@@PAPAUISkinColorSite@@H@Z ENDP ; SerializeElements<ISkinColorSite *>
_TEXT	ENDS
; Function compile flags: /Ogtp
; File C:\Program Files (x86)\Microsoft Visual Studio\2019\Community\VC\Tools\MSVC\14.29.30133\atlmfc\include\afxtempl.h
; File C:\Program Files (x86)\Microsoft Visual Studio\2019\Community\VC\Tools\MSVC\14.29.30133\atlmfc\include\afx.inl
; File C:\Program Files (x86)\Microsoft Visual Studio\2019\Community\VC\Tools\MSVC\14.29.30133\atlmfc\include\afxtempl.h
; File C:\Program Files (x86)\Microsoft Visual Studio\2019\Community\VC\Tools\MSVC\14.29.30133\atlmfc\include\afx.inl
; File C:\Program Files (x86)\Microsoft Visual Studio\2019\Community\VC\Tools\MSVC\14.29.30133\atlmfc\include\afxtempl.h
; File C:\Program Files (x86)\Microsoft Visual Studio\2019\Community\VC\Tools\MSVC\14.29.30133\atlmfc\include\afx.inl
; File C:\Program Files (x86)\Microsoft Visual Studio\2019\Community\VC\Tools\MSVC\14.29.30133\atlmfc\include\afxtempl.h
;	COMDAT ??$SerializeElements@U_tabUserColorTable@@@@YGXAAVCArchive@@PAU_tabUserColorTable@@H@Z
_TEXT	SEGMENT
_ar$ = 8						; size = 4
_pElements$ = 12					; size = 4
_nCount$ = 16						; size = 4
??$SerializeElements@U_tabUserColorTable@@@@YGXAAVCArchive@@PAU_tabUserColorTable@@H@Z PROC ; SerializeElements<_tabUserColorTable>, COMDAT

; 67   : {

  00000	55		 push	 ebp
  00001	8b ec		 mov	 ebp, esp

; 68   : 	ENSURE(nCount == 0 || pElements != NULL);

  00003	8b 4d 0c	 mov	 ecx, DWORD PTR _pElements$[ebp]
  00006	53		 push	 ebx
  00007	56		 push	 esi
  00008	8b 75 10	 mov	 esi, DWORD PTR _nCount$[ebp]
  0000b	57		 push	 edi
  0000c	85 f6		 test	 esi, esi
  0000e	74 08		 je	 SHORT $LN2@SerializeE
  00010	85 c9		 test	 ecx, ecx
  00012	0f 84 89 00 00
	00		 je	 $LN34@SerializeE
$LN2@SerializeE:
; File C:\Program Files (x86)\Microsoft Visual Studio\2019\Community\VC\Tools\MSVC\14.29.30133\atlmfc\include\afx.inl

; 212  : 	{ return (m_nMode & CArchive::load) == 0; }

  00018	8b 55 08	 mov	 edx, DWORD PTR _ar$[ebp]
  0001b	8b 42 18	 mov	 eax, DWORD PTR [edx+24]
  0001e	f7 d0		 not	 eax
  00020	a8 01		 test	 al, 1
; File C:\Program Files (x86)\Microsoft Visual Studio\2019\Community\VC\Tools\MSVC\14.29.30133\atlmfc\include\afxtempl.h

; 73   : 	if (ar.IsStoring())

  00022	74 3c		 je	 SHORT $LN10@SerializeE

; 74   : 	{
; 75   : 		TYPE* pData;
; 76   : 		UINT_PTR nElementsLeft;
; 77   : 
; 78   : 		nElementsLeft = nCount;
; 79   : 		pData = pElements;
; 80   : 		while( nElementsLeft > 0 )

  00024	85 f6		 test	 esi, esi
  00026	74 31		 je	 SHORT $LN8@SerializeE
  00028	0f 1f 84 00 00
	00 00 00	 npad	 8
$LL5@SerializeE:

; 81   : 		{
; 82   : 			UINT nElementsToWrite;
; 83   : 
; 84   : 			nElementsToWrite = UINT(__min(nElementsLeft, INT_MAX/sizeof(TYPE)));

  00030	bb ff ff ff 0f	 mov	 ebx, 268435455		; 0fffffffH
  00035	3b f3		 cmp	 esi, ebx
  00037	0f 42 de	 cmovb	 ebx, esi

; 85   : 			ar.Write(pData, nElementsToWrite*sizeof(TYPE));

  0003a	8d 3c dd 00 00
	00 00		 lea	 edi, DWORD PTR [ebx*8]
  00041	57		 push	 edi
  00042	51		 push	 ecx
  00043	8b ca		 mov	 ecx, edx
  00045	e8 00 00 00 00	 call	 ?Write@CArchive@@QAEXPBXI@Z ; CArchive::Write

; 86   : 			nElementsLeft -= nElementsToWrite;
; 87   : 			pData += nElementsToWrite;

  0004a	8b 4d 0c	 mov	 ecx, DWORD PTR _pElements$[ebp]
  0004d	8b 55 08	 mov	 edx, DWORD PTR _ar$[ebp]
  00050	03 cf		 add	 ecx, edi
  00052	89 4d 0c	 mov	 DWORD PTR _pElements$[ebp], ecx
  00055	2b f3		 sub	 esi, ebx
  00057	75 d7		 jne	 SHORT $LL5@SerializeE
$LN8@SerializeE:
  00059	5f		 pop	 edi

; 105  : 		}
; 106  : 	}
; 107  : }

  0005a	5e		 pop	 esi
  0005b	5b		 pop	 ebx
  0005c	5d		 pop	 ebp
  0005d	c2 0c 00	 ret	 12			; 0000000cH
$LN10@SerializeE:

; 97   : 		while( nElementsLeft > 0 )

  00060	85 f6		 test	 esi, esi
  00062	74 f5		 je	 SHORT $LN8@SerializeE
$LL7@SerializeE:

; 98   : 		{
; 99   : 			UINT nElementsToRead;
; 100  : 
; 101  : 			nElementsToRead = UINT(__min(nElementsLeft, INT_MAX/sizeof(TYPE)));

  00064	bf ff ff ff 0f	 mov	 edi, 268435455		; 0fffffffH
  00069	3b f7		 cmp	 esi, edi
  0006b	0f 42 fe	 cmovb	 edi, esi

; 102  : 			ar.EnsureRead(pData, nElementsToRead*sizeof(TYPE));

  0006e	8d 1c fd 00 00
	00 00		 lea	 ebx, DWORD PTR [edi*8]
; File C:\Program Files (x86)\Microsoft Visual Studio\2019\Community\VC\Tools\MSVC\14.29.30133\atlmfc\include\afx.inl

; 399  : 	UINT nRead=Read(lpBuf, nCount);

  00075	53		 push	 ebx
  00076	51		 push	 ecx
  00077	8b ca		 mov	 ecx, edx
  00079	e8 00 00 00 00	 call	 ?Read@CArchive@@QAEIPAXI@Z ; CArchive::Read

; 400  : 	if(nRead!=nCount)

  0007e	3b c3		 cmp	 eax, ebx
  00080	75 16		 jne	 SHORT $LN23@SerializeE
; File C:\Program Files (x86)\Microsoft Visual Studio\2019\Community\VC\Tools\MSVC\14.29.30133\atlmfc\include\afxtempl.h

; 97   : 		while( nElementsLeft > 0 )

  00082	8b 4d 0c	 mov	 ecx, DWORD PTR _pElements$[ebp]
  00085	8b 55 08	 mov	 edx, DWORD PTR _ar$[ebp]

; 103  : 			nElementsLeft -= nElementsToRead;
; 104  : 			pData += nElementsToRead;

  00088	03 cb		 add	 ecx, ebx
  0008a	89 4d 0c	 mov	 DWORD PTR _pElements$[ebp], ecx
  0008d	2b f7		 sub	 esi, edi
  0008f	75 d3		 jne	 SHORT $LL7@SerializeE

; 105  : 		}
; 106  : 	}
; 107  : }

  00091	5f		 pop	 edi
  00092	5e		 pop	 esi
  00093	5b		 pop	 ebx
  00094	5d		 pop	 ebp
  00095	c2 0c 00	 ret	 12			; 0000000cH
$LN23@SerializeE:
; File C:\Program Files (x86)\Microsoft Visual Studio\2019\Community\VC\Tools\MSVC\14.29.30133\atlmfc\include\afx.inl

; 402  : 		AfxThrowArchiveException(CArchiveException::endOfFile);

  00098	6a 00		 push	 0
  0009a	6a 03		 push	 3
  0009c	e8 00 00 00 00	 call	 ?AfxThrowArchiveException@@YGXHPBD@Z ; AfxThrowArchiveException
$LN34@SerializeE:
; File C:\Program Files (x86)\Microsoft Visual Studio\2019\Community\VC\Tools\MSVC\14.29.30133\atlmfc\include\afxtempl.h

; 68   : 	ENSURE(nCount == 0 || pElements != NULL);

  000a1	e8 00 00 00 00	 call	 ?AfxThrowInvalidArgException@@YGXXZ ; AfxThrowInvalidArgException
$LN32@SerializeE:
  000a6	cc		 int	 3
??$SerializeElements@U_tabUserColorTable@@@@YGXAAVCArchive@@PAU_tabUserColorTable@@H@Z ENDP ; SerializeElements<_tabUserColorTable>
_TEXT	ENDS
; Function compile flags: /Ogtp
; File C:\Program Files (x86)\Microsoft Visual Studio\2019\Community\VC\Tools\MSVC\14.29.30133\atlmfc\include\afxtempl.h
; File C:\Program Files (x86)\Microsoft Visual Studio\2019\Community\VC\Tools\MSVC\14.29.30133\atlmfc\include\afx.inl
; File C:\Program Files (x86)\Microsoft Visual Studio\2019\Community\VC\Tools\MSVC\14.29.30133\atlmfc\include\afxtempl.h
; File C:\Program Files (x86)\Microsoft Visual Studio\2019\Community\VC\Tools\MSVC\14.29.30133\atlmfc\include\afx.inl
; File C:\Program Files (x86)\Microsoft Visual Studio\2019\Community\VC\Tools\MSVC\14.29.30133\atlmfc\include\afxtempl.h
; File C:\Program Files (x86)\Microsoft Visual Studio\2019\Community\VC\Tools\MSVC\14.29.30133\atlmfc\include\afx.inl
; File C:\Program Files (x86)\Microsoft Visual Studio\2019\Community\VC\Tools\MSVC\14.29.30133\atlmfc\include\afxtempl.h
;	COMDAT ??$SerializeElements@UST_SKININFO@@@@YGXAAVCArchive@@PAUST_SKININFO@@H@Z
_TEXT	SEGMENT
_ar$ = 8						; size = 4
_pElements$ = 12					; size = 4
_nCount$ = 16						; size = 4
??$SerializeElements@UST_SKININFO@@@@YGXAAVCArchive@@PAUST_SKININFO@@H@Z PROC ; SerializeElements<ST_SKININFO>, COMDAT

; 67   : {

  00000	55		 push	 ebp
  00001	8b ec		 mov	 ebp, esp

; 68   : 	ENSURE(nCount == 0 || pElements != NULL);

  00003	8b 4d 0c	 mov	 ecx, DWORD PTR _pElements$[ebp]
  00006	53		 push	 ebx
  00007	56		 push	 esi
  00008	8b 75 10	 mov	 esi, DWORD PTR _nCount$[ebp]
  0000b	57		 push	 edi
  0000c	85 f6		 test	 esi, esi
  0000e	74 08		 je	 SHORT $LN2@SerializeE
  00010	85 c9		 test	 ecx, ecx
  00012	0f 84 9a 00 00
	00		 je	 $LN34@SerializeE
$LN2@SerializeE:
; File C:\Program Files (x86)\Microsoft Visual Studio\2019\Community\VC\Tools\MSVC\14.29.30133\atlmfc\include\afx.inl

; 212  : 	{ return (m_nMode & CArchive::load) == 0; }

  00018	8b 55 08	 mov	 edx, DWORD PTR _ar$[ebp]
  0001b	8b 42 18	 mov	 eax, DWORD PTR [edx+24]
  0001e	f7 d0		 not	 eax
  00020	a8 01		 test	 al, 1
; File C:\Program Files (x86)\Microsoft Visual Studio\2019\Community\VC\Tools\MSVC\14.29.30133\atlmfc\include\afxtempl.h

; 73   : 	if (ar.IsStoring())

  00022	74 41		 je	 SHORT $LN10@SerializeE

; 74   : 	{
; 75   : 		TYPE* pData;
; 76   : 		UINT_PTR nElementsLeft;
; 77   : 
; 78   : 		nElementsLeft = nCount;
; 79   : 		pData = pElements;
; 80   : 		while( nElementsLeft > 0 )

  00024	85 f6		 test	 esi, esi
  00026	74 36		 je	 SHORT $LN8@SerializeE
  00028	0f 1f 84 00 00
	00 00 00	 npad	 8
$LL5@SerializeE:

; 81   : 		{
; 82   : 			UINT nElementsToWrite;
; 83   : 
; 84   : 			nElementsToWrite = UINT(__min(nElementsLeft, INT_MAX/sizeof(TYPE)));

  00030	bb 24 49 92 04	 mov	 ebx, 76695844		; 04924924H
  00035	3b f3		 cmp	 esi, ebx
  00037	0f 42 de	 cmovb	 ebx, esi

; 85   : 			ar.Write(pData, nElementsToWrite*sizeof(TYPE));

  0003a	8d 3c dd 00 00
	00 00		 lea	 edi, DWORD PTR [ebx*8]
  00041	2b fb		 sub	 edi, ebx
  00043	c1 e7 02	 shl	 edi, 2
  00046	57		 push	 edi
  00047	51		 push	 ecx
  00048	8b ca		 mov	 ecx, edx
  0004a	e8 00 00 00 00	 call	 ?Write@CArchive@@QAEXPBXI@Z ; CArchive::Write

; 86   : 			nElementsLeft -= nElementsToWrite;
; 87   : 			pData += nElementsToWrite;

  0004f	8b 4d 0c	 mov	 ecx, DWORD PTR _pElements$[ebp]
  00052	8b 55 08	 mov	 edx, DWORD PTR _ar$[ebp]
  00055	03 cf		 add	 ecx, edi
  00057	89 4d 0c	 mov	 DWORD PTR _pElements$[ebp], ecx
  0005a	2b f3		 sub	 esi, ebx
  0005c	75 d2		 jne	 SHORT $LL5@SerializeE
$LN8@SerializeE:
  0005e	5f		 pop	 edi

; 105  : 		}
; 106  : 	}
; 107  : }

  0005f	5e		 pop	 esi
  00060	5b		 pop	 ebx
  00061	5d		 pop	 ebp
  00062	c2 0c 00	 ret	 12			; 0000000cH
$LN10@SerializeE:

; 97   : 		while( nElementsLeft > 0 )

  00065	85 f6		 test	 esi, esi
  00067	74 f5		 je	 SHORT $LN8@SerializeE
  00069	0f 1f 80 00 00
	00 00		 npad	 7
$LL7@SerializeE:

; 98   : 		{
; 99   : 			UINT nElementsToRead;
; 100  : 
; 101  : 			nElementsToRead = UINT(__min(nElementsLeft, INT_MAX/sizeof(TYPE)));

  00070	bb 24 49 92 04	 mov	 ebx, 76695844		; 04924924H
  00075	3b f3		 cmp	 esi, ebx
  00077	0f 42 de	 cmovb	 ebx, esi

; 102  : 			ar.EnsureRead(pData, nElementsToRead*sizeof(TYPE));

  0007a	8d 3c dd 00 00
	00 00		 lea	 edi, DWORD PTR [ebx*8]
  00081	2b fb		 sub	 edi, ebx
  00083	c1 e7 02	 shl	 edi, 2
; File C:\Program Files (x86)\Microsoft Visual Studio\2019\Community\VC\Tools\MSVC\14.29.30133\atlmfc\include\afx.inl

; 399  : 	UINT nRead=Read(lpBuf, nCount);

  00086	57		 push	 edi
  00087	51		 push	 ecx
  00088	8b ca		 mov	 ecx, edx
  0008a	e8 00 00 00 00	 call	 ?Read@CArchive@@QAEIPAXI@Z ; CArchive::Read

; 400  : 	if(nRead!=nCount)

  0008f	3b c7		 cmp	 eax, edi
  00091	75 16		 jne	 SHORT $LN23@SerializeE
; File C:\Program Files (x86)\Microsoft Visual Studio\2019\Community\VC\Tools\MSVC\14.29.30133\atlmfc\include\afxtempl.h

; 97   : 		while( nElementsLeft > 0 )

  00093	8b 4d 0c	 mov	 ecx, DWORD PTR _pElements$[ebp]
  00096	8b 55 08	 mov	 edx, DWORD PTR _ar$[ebp]

; 103  : 			nElementsLeft -= nElementsToRead;
; 104  : 			pData += nElementsToRead;

  00099	03 cf		 add	 ecx, edi
  0009b	89 4d 0c	 mov	 DWORD PTR _pElements$[ebp], ecx
  0009e	2b f3		 sub	 esi, ebx
  000a0	75 ce		 jne	 SHORT $LL7@SerializeE

; 105  : 		}
; 106  : 	}
; 107  : }

  000a2	5f		 pop	 edi
  000a3	5e		 pop	 esi
  000a4	5b		 pop	 ebx
  000a5	5d		 pop	 ebp
  000a6	c2 0c 00	 ret	 12			; 0000000cH
$LN23@SerializeE:
; File C:\Program Files (x86)\Microsoft Visual Studio\2019\Community\VC\Tools\MSVC\14.29.30133\atlmfc\include\afx.inl

; 402  : 		AfxThrowArchiveException(CArchiveException::endOfFile);

  000a9	6a 00		 push	 0
  000ab	6a 03		 push	 3
  000ad	e8 00 00 00 00	 call	 ?AfxThrowArchiveException@@YGXHPBD@Z ; AfxThrowArchiveException
$LN34@SerializeE:
; File C:\Program Files (x86)\Microsoft Visual Studio\2019\Community\VC\Tools\MSVC\14.29.30133\atlmfc\include\afxtempl.h

; 68   : 	ENSURE(nCount == 0 || pElements != NULL);

  000b2	e8 00 00 00 00	 call	 ?AfxThrowInvalidArgException@@YGXXZ ; AfxThrowInvalidArgException
$LN32@SerializeE:
  000b7	cc		 int	 3
??$SerializeElements@UST_SKININFO@@@@YGXAAVCArchive@@PAUST_SKININFO@@H@Z ENDP ; SerializeElements<ST_SKININFO>
_TEXT	ENDS
; Function compile flags: /Ogtp
; File C:\Program Files (x86)\Microsoft Visual Studio\2019\Community\VC\Tools\MSVC\14.29.30133\atlmfc\include\afx.inl
;	COMDAT ??_G?$CArray@UST_SKININFO@@U1@@@UAEPAXI@Z
_TEXT	SEGMENT
___flags$ = 8						; size = 4
??_G?$CArray@UST_SKININFO@@U1@@@UAEPAXI@Z PROC		; CArray<ST_SKININFO,ST_SKININFO>::`scalar deleting destructor', COMDAT
; _this$ = ecx
  00000	55		 push	 ebp
  00001	8b ec		 mov	 ebp, esp
  00003	56		 push	 esi
  00004	8b f1		 mov	 esi, ecx
  00006	e8 00 00 00 00	 call	 ??1?$CArray@UST_SKININFO@@U1@@@UAE@XZ ; CArray<ST_SKININFO,ST_SKININFO>::~CArray<ST_SKININFO,ST_SKININFO>
  0000b	8b 45 08	 mov	 eax, DWORD PTR ___flags$[ebp]
  0000e	a8 01		 test	 al, 1
  00010	74 1f		 je	 SHORT $LN9@scalar
  00012	a8 04		 test	 al, 4
  00014	75 10		 jne	 SHORT $LN3@scalar

; 112  : 	{ ::operator delete(p); }

  00016	56		 push	 esi
  00017	e8 00 00 00 00	 call	 ??3@YAXPAX@Z		; operator delete
  0001c	83 c4 04	 add	 esp, 4
  0001f	8b c6		 mov	 eax, esi
  00021	5e		 pop	 esi
  00022	5d		 pop	 ebp
  00023	c2 04 00	 ret	 4
$LN3@scalar:
  00026	6a 14		 push	 20			; 00000014H
  00028	56		 push	 esi
  00029	e8 00 00 00 00	 call	 ?__global_delete@@YAXPAXI@Z ; __global_delete
  0002e	83 c4 08	 add	 esp, 8
$LN9@scalar:
  00031	8b c6		 mov	 eax, esi
  00033	5e		 pop	 esi
  00034	5d		 pop	 ebp
  00035	c2 04 00	 ret	 4
??_G?$CArray@UST_SKININFO@@U1@@@UAEPAXI@Z ENDP		; CArray<ST_SKININFO,ST_SKININFO>::`scalar deleting destructor'
_TEXT	ENDS
; Function compile flags: /Ogtp
; File C:\Program Files (x86)\Microsoft Visual Studio\2019\Community\VC\Tools\MSVC\14.29.30133\atlmfc\include\afxtempl.h
; File C:\Program Files (x86)\Microsoft Visual Studio\2019\Community\VC\Tools\MSVC\14.29.30133\atlmfc\include\afx.inl
; File C:\Program Files (x86)\Microsoft Visual Studio\2019\Community\VC\Tools\MSVC\14.29.30133\atlmfc\include\afxtempl.h
; File C:\Program Files (x86)\Microsoft Visual Studio\2019\Community\VC\Tools\MSVC\14.29.30133\atlmfc\include\afx.inl
; File C:\Program Files (x86)\Microsoft Visual Studio\2019\Community\VC\Tools\MSVC\14.29.30133\atlmfc\include\afxtempl.h
; File C:\Program Files (x86)\Microsoft Visual Studio\2019\Community\VC\Tools\MSVC\14.29.30133\atlmfc\include\afx.inl
; File C:\Program Files (x86)\Microsoft Visual Studio\2019\Community\VC\Tools\MSVC\14.29.30133\atlmfc\include\afxtempl.h
; File C:\Program Files (x86)\Microsoft Visual Studio\2019\Community\VC\Tools\MSVC\14.29.30133\atlmfc\include\afx.inl
; File C:\Program Files (x86)\Microsoft Visual Studio\2019\Community\VC\Tools\MSVC\14.29.30133\atlmfc\include\afxtempl.h
;	COMDAT ?Serialize@?$CArray@UST_SKININFO@@U1@@@UAEXAAVCArchive@@@Z
_TEXT	SEGMENT
_pData$1$ = -4						; size = 4
_ar$ = 8						; size = 4
?Serialize@?$CArray@UST_SKININFO@@U1@@@UAEXAAVCArchive@@@Z PROC ; CArray<ST_SKININFO,ST_SKININFO>::Serialize, COMDAT
; _this$ = ecx

; 633  : {

  00000	55		 push	 ebp
  00001	8b ec		 mov	 ebp, esp
  00003	51		 push	 ecx
  00004	53		 push	 ebx
  00005	56		 push	 esi
  00006	57		 push	 edi
  00007	8b f9		 mov	 edi, ecx
; File C:\Program Files (x86)\Microsoft Visual Studio\2019\Community\VC\Tools\MSVC\14.29.30133\atlmfc\include\afx.inl

; 212  : 	{ return (m_nMode & CArchive::load) == 0; }

  00009	8b 4d 08	 mov	 ecx, DWORD PTR _ar$[ebp]
  0000c	8b 41 18	 mov	 eax, DWORD PTR [ecx+24]
  0000f	f7 d0		 not	 eax
  00011	a8 01		 test	 al, 1
; File C:\Program Files (x86)\Microsoft Visual Studio\2019\Community\VC\Tools\MSVC\14.29.30133\atlmfc\include\afxtempl.h

; 637  : 	if (ar.IsStoring())

  00013	74 0a		 je	 SHORT $LN2@Serialize

; 638  : 	{
; 639  : 		ar.WriteCount(m_nSize);

  00015	ff 77 08	 push	 DWORD PTR [edi+8]
  00018	e8 00 00 00 00	 call	 ?WriteCount@CArchive@@QAEXK@Z ; CArchive::WriteCount

; 640  : 	}

  0001d	eb 0f		 jmp	 SHORT $LN3@Serialize
$LN2@Serialize:

; 641  : 	else
; 642  : 	{
; 643  : 		DWORD_PTR nOldSize = ar.ReadCount();

  0001f	e8 00 00 00 00	 call	 ?ReadCount@CArchive@@QAEKXZ ; CArchive::ReadCount

; 644  : 		SetSize(nOldSize, -1);

  00024	6a ff		 push	 -1
  00026	50		 push	 eax
  00027	8b cf		 mov	 ecx, edi
  00029	e8 00 00 00 00	 call	 ?SetSize@?$CArray@UST_SKININFO@@U1@@@QAEXHH@Z ; CArray<ST_SKININFO,ST_SKININFO>::SetSize
$LN3@Serialize:

; 645  : 	}
; 646  : 	SerializeElements<TYPE>(ar, m_pData, m_nSize);

  0002e	8b 77 08	 mov	 esi, DWORD PTR [edi+8]
  00031	8b 4f 04	 mov	 ecx, DWORD PTR [edi+4]
  00034	89 4d fc	 mov	 DWORD PTR _pData$1$[ebp], ecx

; 68   : 	ENSURE(nCount == 0 || pElements != NULL);

  00037	85 f6		 test	 esi, esi
  00039	74 08		 je	 SHORT $LN8@Serialize
  0003b	85 c9		 test	 ecx, ecx
  0003d	0f 84 91 00 00
	00		 je	 $LN40@Serialize
$LN8@Serialize:
; File C:\Program Files (x86)\Microsoft Visual Studio\2019\Community\VC\Tools\MSVC\14.29.30133\atlmfc\include\afx.inl

; 212  : 	{ return (m_nMode & CArchive::load) == 0; }

  00043	8b 55 08	 mov	 edx, DWORD PTR _ar$[ebp]
  00046	8b 42 18	 mov	 eax, DWORD PTR [edx+24]
  00049	f7 d0		 not	 eax
  0004b	a8 01		 test	 al, 1
; File C:\Program Files (x86)\Microsoft Visual Studio\2019\Community\VC\Tools\MSVC\14.29.30133\atlmfc\include\afxtempl.h

; 73   : 	if (ar.IsStoring())

  0004d	74 3b		 je	 SHORT $LN16@Serialize

; 74   : 	{
; 75   : 		TYPE* pData;
; 76   : 		UINT_PTR nElementsLeft;
; 77   : 
; 78   : 		nElementsLeft = nCount;
; 79   : 		pData = pElements;
; 80   : 		while( nElementsLeft > 0 )

  0004f	85 f6		 test	 esi, esi
  00051	74 2e		 je	 SHORT $LN14@Serialize
$LL11@Serialize:

; 81   : 		{
; 82   : 			UINT nElementsToWrite;
; 83   : 
; 84   : 			nElementsToWrite = UINT(__min(nElementsLeft, INT_MAX/sizeof(TYPE)));

  00053	bb 24 49 92 04	 mov	 ebx, 76695844		; 04924924H
  00058	3b f3		 cmp	 esi, ebx
  0005a	0f 42 de	 cmovb	 ebx, esi

; 85   : 			ar.Write(pData, nElementsToWrite*sizeof(TYPE));

  0005d	8d 3c dd 00 00
	00 00		 lea	 edi, DWORD PTR [ebx*8]
  00064	2b fb		 sub	 edi, ebx
  00066	c1 e7 02	 shl	 edi, 2
  00069	57		 push	 edi
  0006a	51		 push	 ecx
  0006b	8b ca		 mov	 ecx, edx
  0006d	e8 00 00 00 00	 call	 ?Write@CArchive@@QAEXPBXI@Z ; CArchive::Write

; 86   : 			nElementsLeft -= nElementsToWrite;
; 87   : 			pData += nElementsToWrite;

  00072	8b 4d fc	 mov	 ecx, DWORD PTR _pData$1$[ebp]
  00075	8b 55 08	 mov	 edx, DWORD PTR _ar$[ebp]
  00078	03 cf		 add	 ecx, edi
  0007a	89 4d fc	 mov	 DWORD PTR _pData$1$[ebp], ecx
  0007d	2b f3		 sub	 esi, ebx
  0007f	75 d2		 jne	 SHORT $LL11@Serialize
$LN14@Serialize:
  00081	5f		 pop	 edi

; 647  : }

  00082	5e		 pop	 esi
  00083	5b		 pop	 ebx
  00084	8b e5		 mov	 esp, ebp
  00086	5d		 pop	 ebp
  00087	c2 04 00	 ret	 4
$LN16@Serialize:

; 97   : 		while( nElementsLeft > 0 )

  0008a	85 f6		 test	 esi, esi
  0008c	74 f3		 je	 SHORT $LN14@Serialize
  0008e	66 90		 npad	 2
$LL13@Serialize:

; 98   : 		{
; 99   : 			UINT nElementsToRead;
; 100  : 
; 101  : 			nElementsToRead = UINT(__min(nElementsLeft, INT_MAX/sizeof(TYPE)));

  00090	bb 24 49 92 04	 mov	 ebx, 76695844		; 04924924H
  00095	3b f3		 cmp	 esi, ebx
  00097	0f 42 de	 cmovb	 ebx, esi

; 102  : 			ar.EnsureRead(pData, nElementsToRead*sizeof(TYPE));

  0009a	8d 3c dd 00 00
	00 00		 lea	 edi, DWORD PTR [ebx*8]
  000a1	2b fb		 sub	 edi, ebx
  000a3	c1 e7 02	 shl	 edi, 2
; File C:\Program Files (x86)\Microsoft Visual Studio\2019\Community\VC\Tools\MSVC\14.29.30133\atlmfc\include\afx.inl

; 399  : 	UINT nRead=Read(lpBuf, nCount);

  000a6	57		 push	 edi
  000a7	51		 push	 ecx
  000a8	8b ca		 mov	 ecx, edx
  000aa	e8 00 00 00 00	 call	 ?Read@CArchive@@QAEIPAXI@Z ; CArchive::Read

; 400  : 	if(nRead!=nCount)

  000af	3b c7		 cmp	 eax, edi
  000b1	75 18		 jne	 SHORT $LN30@Serialize
; File C:\Program Files (x86)\Microsoft Visual Studio\2019\Community\VC\Tools\MSVC\14.29.30133\atlmfc\include\afxtempl.h

; 97   : 		while( nElementsLeft > 0 )

  000b3	8b 4d fc	 mov	 ecx, DWORD PTR _pData$1$[ebp]
  000b6	8b 55 08	 mov	 edx, DWORD PTR _ar$[ebp]

; 103  : 			nElementsLeft -= nElementsToRead;
; 104  : 			pData += nElementsToRead;

  000b9	03 cf		 add	 ecx, edi
  000bb	89 4d fc	 mov	 DWORD PTR _pData$1$[ebp], ecx
  000be	2b f3		 sub	 esi, ebx
  000c0	75 ce		 jne	 SHORT $LL13@Serialize

; 647  : }

  000c2	5f		 pop	 edi
  000c3	5e		 pop	 esi
  000c4	5b		 pop	 ebx
  000c5	8b e5		 mov	 esp, ebp
  000c7	5d		 pop	 ebp
  000c8	c2 04 00	 ret	 4
$LN30@Serialize:
; File C:\Program Files (x86)\Microsoft Visual Studio\2019\Community\VC\Tools\MSVC\14.29.30133\atlmfc\include\afx.inl

; 402  : 		AfxThrowArchiveException(CArchiveException::endOfFile);

  000cb	6a 00		 push	 0
  000cd	6a 03		 push	 3
  000cf	e8 00 00 00 00	 call	 ?AfxThrowArchiveException@@YGXHPBD@Z ; AfxThrowArchiveException
$LN40@Serialize:
; File C:\Program Files (x86)\Microsoft Visual Studio\2019\Community\VC\Tools\MSVC\14.29.30133\atlmfc\include\afxtempl.h

; 68   : 	ENSURE(nCount == 0 || pElements != NULL);

  000d4	e8 00 00 00 00	 call	 ?AfxThrowInvalidArgException@@YGXXZ ; AfxThrowInvalidArgException
$LN38@Serialize:
  000d9	cc		 int	 3
?Serialize@?$CArray@UST_SKININFO@@U1@@@UAEXAAVCArchive@@@Z ENDP ; CArray<ST_SKININFO,ST_SKININFO>::Serialize
_TEXT	ENDS
; Function compile flags: /Ogtp
; File C:\Program Files (x86)\Microsoft Visual Studio\2019\Community\VC\Tools\MSVC\14.29.30133\atlmfc\include\afxtempl.h
;	COMDAT ??1?$CArray@UST_SKININFO@@U1@@@UAE@XZ
_TEXT	SEGMENT
_i$1$ = -4						; size = 4
??1?$CArray@UST_SKININFO@@U1@@@UAE@XZ PROC		; CArray<ST_SKININFO,ST_SKININFO>::~CArray<ST_SKININFO,ST_SKININFO>, COMDAT
; _this$ = ecx

; 355  : {

  00000	55		 push	 ebp
  00001	8b ec		 mov	 ebp, esp
  00003	51		 push	 ecx
  00004	56		 push	 esi
  00005	8b f1		 mov	 esi, ecx

; 356  : 	ASSERT_VALID(this);
; 357  : 
; 358  : 	if (m_pData != NULL)

  00007	8b 46 04	 mov	 eax, DWORD PTR [esi+4]
  0000a	c7 06 00 00 00
	00		 mov	 DWORD PTR [esi], OFFSET ??_7?$CArray@UST_SKININFO@@U1@@@6B@
  00010	85 c0		 test	 eax, eax
  00012	74 71		 je	 SHORT $LN5@CArray

; 359  : 	{
; 360  : 		for( int i = 0; i < m_nSize; i++ )

  00014	83 7e 08 00	 cmp	 DWORD PTR [esi+8], 0
  00018	c7 45 fc 00 00
	00 00		 mov	 DWORD PTR _i$1$[ebp], 0
  0001f	7e 5b		 jle	 SHORT $LN3@CArray
  00021	53		 push	 ebx
  00022	57		 push	 edi
  00023	33 db		 xor	 ebx, ebx
$LL4@CArray:

; 361  : 			(m_pData + i)->~TYPE();

  00025	8b 7e 04	 mov	 edi, DWORD PTR [esi+4]
  00028	03 fb		 add	 edi, ebx
  0002a	8d 4f 18	 lea	 ecx, DWORD PTR [edi+24]
  0002d	ff 15 00 00 00
	00		 call	 DWORD PTR __imp_??1?$CStringT@DV?$StrTraitMFC_DLL@DV?$ChTraitsCRT@D@ATL@@@@@ATL@@QAE@XZ
  00033	8d 4f 14	 lea	 ecx, DWORD PTR [edi+20]
  00036	ff 15 00 00 00
	00		 call	 DWORD PTR __imp_??1?$CStringT@DV?$StrTraitMFC_DLL@DV?$ChTraitsCRT@D@ATL@@@@@ATL@@QAE@XZ
  0003c	8d 4f 10	 lea	 ecx, DWORD PTR [edi+16]
  0003f	ff 15 00 00 00
	00		 call	 DWORD PTR __imp_??1?$CStringT@DV?$StrTraitMFC_DLL@DV?$ChTraitsCRT@D@ATL@@@@@ATL@@QAE@XZ
  00045	8d 4f 0c	 lea	 ecx, DWORD PTR [edi+12]
  00048	ff 15 00 00 00
	00		 call	 DWORD PTR __imp_??1?$CStringT@DV?$StrTraitMFC_DLL@DV?$ChTraitsCRT@D@ATL@@@@@ATL@@QAE@XZ
  0004e	8d 4f 08	 lea	 ecx, DWORD PTR [edi+8]
  00051	ff 15 00 00 00
	00		 call	 DWORD PTR __imp_??1?$CStringT@DV?$StrTraitMFC_DLL@DV?$ChTraitsCRT@D@ATL@@@@@ATL@@QAE@XZ
  00057	8d 4f 04	 lea	 ecx, DWORD PTR [edi+4]
  0005a	ff 15 00 00 00
	00		 call	 DWORD PTR __imp_??1?$CStringT@DV?$StrTraitMFC_DLL@DV?$ChTraitsCRT@D@ATL@@@@@ATL@@QAE@XZ
  00060	8b cf		 mov	 ecx, edi
  00062	ff 15 00 00 00
	00		 call	 DWORD PTR __imp_??1?$CStringT@DV?$StrTraitMFC_DLL@DV?$ChTraitsCRT@D@ATL@@@@@ATL@@QAE@XZ
  00068	8b 45 fc	 mov	 eax, DWORD PTR _i$1$[ebp]
  0006b	83 c3 1c	 add	 ebx, 28			; 0000001cH
  0006e	40		 inc	 eax
  0006f	89 45 fc	 mov	 DWORD PTR _i$1$[ebp], eax
  00072	3b 46 08	 cmp	 eax, DWORD PTR [esi+8]
  00075	7c ae		 jl	 SHORT $LL4@CArray
  00077	8b 46 04	 mov	 eax, DWORD PTR [esi+4]
  0007a	5f		 pop	 edi
  0007b	5b		 pop	 ebx
$LN3@CArray:

; 362  : 		delete[] (BYTE*)m_pData;

  0007c	50		 push	 eax
  0007d	e8 00 00 00 00	 call	 ??_V@YAXPAX@Z		; operator delete[]
  00082	83 c4 04	 add	 esp, 4
$LN5@CArray:
  00085	5e		 pop	 esi

; 363  : 	}
; 364  : }

  00086	8b e5		 mov	 esp, ebp
  00088	5d		 pop	 ebp
  00089	c3		 ret	 0
??1?$CArray@UST_SKININFO@@U1@@@UAE@XZ ENDP		; CArray<ST_SKININFO,ST_SKININFO>::~CArray<ST_SKININFO,ST_SKININFO>
_TEXT	ENDS
; Function compile flags: /Ogtp
; File C:\Program Files (x86)\Microsoft Visual Studio\2019\Community\VC\Tools\MSVC\14.29.30133\atlmfc\include\afxtempl.h
; File C:\Program Files (x86)\Windows Kits\10\Include\10.0.22000.0\ucrt\corecrt_memcpy_s.h
; File C:\Program Files (x86)\Microsoft Visual Studio\2019\Community\VC\Tools\MSVC\14.29.30133\atlmfc\include\atlchecked.h
; File C:\Program Files (x86)\Microsoft Visual Studio\2019\Community\VC\Tools\MSVC\14.29.30133\atlmfc\include\afxtempl.h
; File C:\Program Files (x86)\Windows Kits\10\Include\10.0.22000.0\ucrt\corecrt_memcpy_s.h
; File C:\Program Files (x86)\Microsoft Visual Studio\2019\Community\VC\Tools\MSVC\14.29.30133\atlmfc\include\afxtempl.h
;	COMDAT ?SetSize@?$CArray@UST_SKININFO@@U1@@@QAEXHH@Z
_TEXT	SEGMENT
__N$1$ = -8						; size = 4
_nNewMax$1$ = -4					; size = 4
_nAllocSize$1$ = -4					; size = 4
_pNewData$1$ = 8					; size = 4
_i$1$ = 8						; size = 4
_i$1$ = 8						; size = 4
_i$1$ = 8						; size = 4
_nNewSize$ = 8						; size = 4
__S2$1$ = 12						; size = 4
_i$1$ = 12						; size = 4
tv663 = 12						; size = 4
tv639 = 12						; size = 4
_nGrowBy$ = 12						; size = 4
?SetSize@?$CArray@UST_SKININFO@@U1@@@QAEXHH@Z PROC	; CArray<ST_SKININFO,ST_SKININFO>::SetSize, COMDAT
; _this$ = ecx

; 368  : {

  00000	55		 push	 ebp
  00001	8b ec		 mov	 ebp, esp
  00003	83 ec 08	 sub	 esp, 8
  00006	53		 push	 ebx
  00007	8b 5d 08	 mov	 ebx, DWORD PTR _nNewSize$[ebp]
  0000a	56		 push	 esi
  0000b	57		 push	 edi
  0000c	8b f9		 mov	 edi, ecx

; 369  : 	ASSERT_VALID(this);
; 370  : 	ASSERT(nNewSize >= 0);
; 371  : 
; 372  : 	if(nNewSize < 0 )

  0000e	85 db		 test	 ebx, ebx
  00010	0f 88 35 04 00
	00		 js	 $LN91@SetSize

; 373  : 		AfxThrowInvalidArgException();
; 374  : 
; 375  : 	if (nGrowBy >= 0)

  00016	8b 45 0c	 mov	 eax, DWORD PTR _nGrowBy$[ebp]
  00019	85 c0		 test	 eax, eax
  0001b	78 03		 js	 SHORT $LN90@SetSize

; 376  : 		m_nGrowBy = nGrowBy;  // set new size

  0001d	89 47 10	 mov	 DWORD PTR [edi+16], eax
$LN90@SetSize:

; 377  : 
; 378  : 	if (nNewSize == 0)

  00020	8b 77 04	 mov	 esi, DWORD PTR [edi+4]
  00023	85 db		 test	 ebx, ebx
  00025	0f 85 88 00 00
	00		 jne	 $LN19@SetSize

; 379  : 	{
; 380  : 		// shrink to nothing
; 381  : 		if (m_pData != NULL)

  0002b	85 f6		 test	 esi, esi
  0002d	74 6d		 je	 SHORT $LN21@SetSize

; 382  : 		{
; 383  : 			for( int i = 0; i < m_nSize; i++ )

  0002f	89 5d 08	 mov	 DWORD PTR _i$1$[ebp], ebx
  00032	39 5f 08	 cmp	 DWORD PTR [edi+8], ebx
  00035	7e 55		 jle	 SHORT $LN3@SetSize
$LL4@SetSize:

; 384  : 				(m_pData + i)->~TYPE();

  00037	8b 77 04	 mov	 esi, DWORD PTR [edi+4]
  0003a	03 f3		 add	 esi, ebx
  0003c	8d 4e 18	 lea	 ecx, DWORD PTR [esi+24]
  0003f	ff 15 00 00 00
	00		 call	 DWORD PTR __imp_??1?$CStringT@DV?$StrTraitMFC_DLL@DV?$ChTraitsCRT@D@ATL@@@@@ATL@@QAE@XZ
  00045	8d 4e 14	 lea	 ecx, DWORD PTR [esi+20]
  00048	ff 15 00 00 00
	00		 call	 DWORD PTR __imp_??1?$CStringT@DV?$StrTraitMFC_DLL@DV?$ChTraitsCRT@D@ATL@@@@@ATL@@QAE@XZ
  0004e	8d 4e 10	 lea	 ecx, DWORD PTR [esi+16]
  00051	ff 15 00 00 00
	00		 call	 DWORD PTR __imp_??1?$CStringT@DV?$StrTraitMFC_DLL@DV?$ChTraitsCRT@D@ATL@@@@@ATL@@QAE@XZ
  00057	8d 4e 0c	 lea	 ecx, DWORD PTR [esi+12]
  0005a	ff 15 00 00 00
	00		 call	 DWORD PTR __imp_??1?$CStringT@DV?$StrTraitMFC_DLL@DV?$ChTraitsCRT@D@ATL@@@@@ATL@@QAE@XZ
  00060	8d 4e 08	 lea	 ecx, DWORD PTR [esi+8]
  00063	ff 15 00 00 00
	00		 call	 DWORD PTR __imp_??1?$CStringT@DV?$StrTraitMFC_DLL@DV?$ChTraitsCRT@D@ATL@@@@@ATL@@QAE@XZ
  00069	8d 4e 04	 lea	 ecx, DWORD PTR [esi+4]
  0006c	ff 15 00 00 00
	00		 call	 DWORD PTR __imp_??1?$CStringT@DV?$StrTraitMFC_DLL@DV?$ChTraitsCRT@D@ATL@@@@@ATL@@QAE@XZ
  00072	8b ce		 mov	 ecx, esi
  00074	ff 15 00 00 00
	00		 call	 DWORD PTR __imp_??1?$CStringT@DV?$StrTraitMFC_DLL@DV?$ChTraitsCRT@D@ATL@@@@@ATL@@QAE@XZ
  0007a	8b 45 08	 mov	 eax, DWORD PTR _i$1$[ebp]
  0007d	83 c3 1c	 add	 ebx, 28			; 0000001cH
  00080	40		 inc	 eax
  00081	89 45 08	 mov	 DWORD PTR _i$1$[ebp], eax
  00084	3b 47 08	 cmp	 eax, DWORD PTR [edi+8]
  00087	7c ae		 jl	 SHORT $LL4@SetSize
  00089	8b 77 04	 mov	 esi, DWORD PTR [edi+4]
$LN3@SetSize:

; 385  : 			delete[] (BYTE*)m_pData;

  0008c	56		 push	 esi
  0008d	e8 00 00 00 00	 call	 ??_V@YAXPAX@Z		; operator delete[]
  00092	83 c4 04	 add	 esp, 4

; 386  : 			m_pData = NULL;

  00095	c7 47 04 00 00
	00 00		 mov	 DWORD PTR [edi+4], 0
$LN21@SetSize:

; 387  : 		}
; 388  : 		m_nSize = m_nMaxSize = 0;

  0009c	c7 47 0c 00 00
	00 00		 mov	 DWORD PTR [edi+12], 0
  000a3	c7 47 08 00 00
	00 00		 mov	 DWORD PTR [edi+8], 0
  000aa	5f		 pop	 edi

; 471  : 		m_pData = pNewData;
; 472  : 		m_nSize = nNewSize;
; 473  : 		m_nMaxSize = nNewMax;
; 474  : 	}
; 475  : }

  000ab	5e		 pop	 esi
  000ac	5b		 pop	 ebx
  000ad	8b e5		 mov	 esp, ebp
  000af	5d		 pop	 ebp
  000b0	c2 08 00	 ret	 8
$LN19@SetSize:

; 389  : 	}
; 390  : 	else if (m_pData == NULL)

  000b3	85 f6		 test	 esi, esi
  000b5	0f 85 96 00 00
	00		 jne	 $LN22@SetSize

; 391  : 	{
; 392  : 		// create buffer big enough to hold number of requested elements or
; 393  : 		// m_nGrowBy elements, whichever is larger.
; 394  : #ifdef SIZE_T_MAX
; 395  : 		ASSERT(nNewSize <= SIZE_T_MAX/sizeof(TYPE));    // no overflow
; 396  : #endif
; 397  : 		size_t nAllocSize = __max(nNewSize, m_nGrowBy);

  000bb	8b 47 10	 mov	 eax, DWORD PTR [edi+16]
  000be	3b d8		 cmp	 ebx, eax
  000c0	0f 4f c3	 cmovg	 eax, ebx
  000c3	89 45 fc	 mov	 DWORD PTR _nAllocSize$1$[ebp], eax

; 398  : 		m_pData = (TYPE*) new BYTE[(size_t)nAllocSize * sizeof(TYPE)];

  000c6	8d 34 c5 00 00
	00 00		 lea	 esi, DWORD PTR [eax*8]
  000cd	2b f0		 sub	 esi, eax
  000cf	c1 e6 02	 shl	 esi, 2
  000d2	56		 push	 esi
  000d3	e8 00 00 00 00	 call	 ??_U@YAPAXI@Z		; operator new[]

; 399  : 		memset((void*)m_pData, 0, (size_t)nAllocSize * sizeof(TYPE));

  000d8	56		 push	 esi
  000d9	6a 00		 push	 0
  000db	50		 push	 eax
  000dc	89 47 04	 mov	 DWORD PTR [edi+4], eax
  000df	e8 00 00 00 00	 call	 _memset
  000e4	83 c4 10	 add	 esp, 16			; 00000010H

; 400  : 		for( int i = 0; i < nNewSize; i++ )

  000e7	85 db		 test	 ebx, ebx
  000e9	7e 54		 jle	 SHORT $LN6@SetSize

; 398  : 		m_pData = (TYPE*) new BYTE[(size_t)nAllocSize * sizeof(TYPE)];

  000eb	89 5d 0c	 mov	 DWORD PTR tv663[ebp], ebx
  000ee	33 db		 xor	 ebx, ebx
$LL7@SetSize:

; 401  : #pragma push_macro("new")
; 402  : #undef new
; 403  : 			::new( (void*)( m_pData + i ) ) TYPE;

  000f0	8b 77 04	 mov	 esi, DWORD PTR [edi+4]
  000f3	03 f3		 add	 esi, ebx
  000f5	8b ce		 mov	 ecx, esi
  000f7	ff 15 00 00 00
	00		 call	 DWORD PTR __imp_??0?$CStringT@DV?$StrTraitMFC_DLL@DV?$ChTraitsCRT@D@ATL@@@@@ATL@@QAE@XZ
  000fd	8d 4e 04	 lea	 ecx, DWORD PTR [esi+4]
  00100	ff 15 00 00 00
	00		 call	 DWORD PTR __imp_??0?$CStringT@DV?$StrTraitMFC_DLL@DV?$ChTraitsCRT@D@ATL@@@@@ATL@@QAE@XZ
  00106	8d 4e 08	 lea	 ecx, DWORD PTR [esi+8]
  00109	ff 15 00 00 00
	00		 call	 DWORD PTR __imp_??0?$CStringT@DV?$StrTraitMFC_DLL@DV?$ChTraitsCRT@D@ATL@@@@@ATL@@QAE@XZ
  0010f	8d 4e 0c	 lea	 ecx, DWORD PTR [esi+12]
  00112	ff 15 00 00 00
	00		 call	 DWORD PTR __imp_??0?$CStringT@DV?$StrTraitMFC_DLL@DV?$ChTraitsCRT@D@ATL@@@@@ATL@@QAE@XZ
  00118	8d 4e 10	 lea	 ecx, DWORD PTR [esi+16]
  0011b	ff 15 00 00 00
	00		 call	 DWORD PTR __imp_??0?$CStringT@DV?$StrTraitMFC_DLL@DV?$ChTraitsCRT@D@ATL@@@@@ATL@@QAE@XZ
  00121	8d 4e 14	 lea	 ecx, DWORD PTR [esi+20]
  00124	ff 15 00 00 00
	00		 call	 DWORD PTR __imp_??0?$CStringT@DV?$StrTraitMFC_DLL@DV?$ChTraitsCRT@D@ATL@@@@@ATL@@QAE@XZ
  0012a	8d 4e 18	 lea	 ecx, DWORD PTR [esi+24]
  0012d	ff 15 00 00 00
	00		 call	 DWORD PTR __imp_??0?$CStringT@DV?$StrTraitMFC_DLL@DV?$ChTraitsCRT@D@ATL@@@@@ATL@@QAE@XZ
  00133	83 c3 1c	 add	 ebx, 28			; 0000001cH
  00136	83 6d 0c 01	 sub	 DWORD PTR tv663[ebp], 1
  0013a	75 b4		 jne	 SHORT $LL7@SetSize
  0013c	8b 5d 08	 mov	 ebx, DWORD PTR _nNewSize$[ebp]
$LN6@SetSize:

; 471  : 		m_pData = pNewData;
; 472  : 		m_nSize = nNewSize;
; 473  : 		m_nMaxSize = nNewMax;
; 474  : 	}
; 475  : }

  0013f	8b 45 fc	 mov	 eax, DWORD PTR _nNewMax$1$[ebp]
  00142	89 47 0c	 mov	 DWORD PTR [edi+12], eax
$LN12@SetSize:
  00145	89 5f 08	 mov	 DWORD PTR [edi+8], ebx
  00148	5f		 pop	 edi
  00149	5e		 pop	 esi
  0014a	5b		 pop	 ebx
  0014b	8b e5		 mov	 esp, ebp
  0014d	5d		 pop	 ebp
  0014e	c2 08 00	 ret	 8
$LN22@SetSize:

; 404  : #pragma pop_macro("new")
; 405  : 		m_nSize = nNewSize;
; 406  : 		m_nMaxSize = nAllocSize;
; 407  : 	}
; 408  : 	else if (nNewSize <= m_nMaxSize)

  00151	8b 4f 0c	 mov	 ecx, DWORD PTR [edi+12]
  00154	3b d9		 cmp	 ebx, ecx
  00156	0f 8f 40 01 00
	00		 jg	 $LN24@SetSize

; 409  : 	{
; 410  : 		// it fits
; 411  : 		if (nNewSize > m_nSize)

  0015c	8b 57 08	 mov	 edx, DWORD PTR [edi+8]
  0015f	3b da		 cmp	 ebx, edx
  00161	0f 8e a7 00 00
	00		 jle	 $LN26@SetSize

; 412  : 		{
; 413  : 			// initialize the new elements
; 414  : 			memset((void*)(m_pData + m_nSize), 0, (size_t)(nNewSize-m_nSize) * sizeof(TYPE));

  00167	8b cb		 mov	 ecx, ebx
  00169	2b ca		 sub	 ecx, edx
  0016b	8d 04 cd 00 00
	00 00		 lea	 eax, DWORD PTR [ecx*8]
  00172	2b c1		 sub	 eax, ecx
  00174	c1 e0 02	 shl	 eax, 2
  00177	50		 push	 eax
  00178	8d 04 d5 00 00
	00 00		 lea	 eax, DWORD PTR [edx*8]
  0017f	2b c2		 sub	 eax, edx
  00181	6a 00		 push	 0
  00183	8d 04 86	 lea	 eax, DWORD PTR [esi+eax*4]
  00186	50		 push	 eax
  00187	e8 00 00 00 00	 call	 _memset

; 415  : 			for( int i = 0; i < nNewSize-m_nSize; i++ )

  0018c	8b c3		 mov	 eax, ebx
  0018e	33 c9		 xor	 ecx, ecx
  00190	2b 47 08	 sub	 eax, DWORD PTR [edi+8]
  00193	83 c4 0c	 add	 esp, 12			; 0000000cH
  00196	89 4d 08	 mov	 DWORD PTR _i$1$[ebp], ecx
  00199	85 c0		 test	 eax, eax
  0019b	7e a8		 jle	 SHORT $LN12@SetSize
  0019d	0f 1f 00	 npad	 3
$LL10@SetSize:

; 416  : #pragma push_macro("new")
; 417  : #undef new
; 418  : 				::new( (void*)( m_pData + m_nSize + i ) ) TYPE;

  001a0	8b 47 08	 mov	 eax, DWORD PTR [edi+8]
  001a3	03 c1		 add	 eax, ecx
  001a5	8d 0c c5 00 00
	00 00		 lea	 ecx, DWORD PTR [eax*8]
  001ac	2b c8		 sub	 ecx, eax
  001ae	8b 47 04	 mov	 eax, DWORD PTR [edi+4]
  001b1	8d 34 88	 lea	 esi, DWORD PTR [eax+ecx*4]
  001b4	8b ce		 mov	 ecx, esi
  001b6	ff 15 00 00 00
	00		 call	 DWORD PTR __imp_??0?$CStringT@DV?$StrTraitMFC_DLL@DV?$ChTraitsCRT@D@ATL@@@@@ATL@@QAE@XZ
  001bc	8d 4e 04	 lea	 ecx, DWORD PTR [esi+4]
  001bf	ff 15 00 00 00
	00		 call	 DWORD PTR __imp_??0?$CStringT@DV?$StrTraitMFC_DLL@DV?$ChTraitsCRT@D@ATL@@@@@ATL@@QAE@XZ
  001c5	8d 4e 08	 lea	 ecx, DWORD PTR [esi+8]
  001c8	ff 15 00 00 00
	00		 call	 DWORD PTR __imp_??0?$CStringT@DV?$StrTraitMFC_DLL@DV?$ChTraitsCRT@D@ATL@@@@@ATL@@QAE@XZ
  001ce	8d 4e 0c	 lea	 ecx, DWORD PTR [esi+12]
  001d1	ff 15 00 00 00
	00		 call	 DWORD PTR __imp_??0?$CStringT@DV?$StrTraitMFC_DLL@DV?$ChTraitsCRT@D@ATL@@@@@ATL@@QAE@XZ
  001d7	8d 4e 10	 lea	 ecx, DWORD PTR [esi+16]
  001da	ff 15 00 00 00
	00		 call	 DWORD PTR __imp_??0?$CStringT@DV?$StrTraitMFC_DLL@DV?$ChTraitsCRT@D@ATL@@@@@ATL@@QAE@XZ
  001e0	8d 4e 14	 lea	 ecx, DWORD PTR [esi+20]
  001e3	ff 15 00 00 00
	00		 call	 DWORD PTR __imp_??0?$CStringT@DV?$StrTraitMFC_DLL@DV?$ChTraitsCRT@D@ATL@@@@@ATL@@QAE@XZ
  001e9	8d 4e 18	 lea	 ecx, DWORD PTR [esi+24]
  001ec	ff 15 00 00 00
	00		 call	 DWORD PTR __imp_??0?$CStringT@DV?$StrTraitMFC_DLL@DV?$ChTraitsCRT@D@ATL@@@@@ATL@@QAE@XZ
  001f2	8b 4d 08	 mov	 ecx, DWORD PTR _i$1$[ebp]
  001f5	8b c3		 mov	 eax, ebx
  001f7	2b 47 08	 sub	 eax, DWORD PTR [edi+8]
  001fa	41		 inc	 ecx
  001fb	89 4d 08	 mov	 DWORD PTR _i$1$[ebp], ecx
  001fe	3b c8		 cmp	 ecx, eax
  00200	7c 9e		 jl	 SHORT $LL10@SetSize

; 471  : 		m_pData = pNewData;
; 472  : 		m_nSize = nNewSize;
; 473  : 		m_nMaxSize = nNewMax;
; 474  : 	}
; 475  : }

  00202	89 5f 08	 mov	 DWORD PTR [edi+8], ebx
  00205	5f		 pop	 edi
  00206	5e		 pop	 esi
  00207	5b		 pop	 ebx
  00208	8b e5		 mov	 esp, ebp
  0020a	5d		 pop	 ebp
  0020b	c2 08 00	 ret	 8
$LN26@SetSize:

; 419  : #pragma pop_macro("new")
; 420  : 		}
; 421  : 		else if (m_nSize > nNewSize)

  0020e	0f 8d 31 ff ff
	ff		 jge	 $LN12@SetSize

; 422  : 		{
; 423  : 			// destroy the old elements
; 424  : 			for( int i = 0; i < m_nSize-nNewSize; i++ )

  00214	2b d3		 sub	 edx, ebx
  00216	c7 45 08 00 00
	00 00		 mov	 DWORD PTR _i$1$[ebp], 0
  0021d	85 d2		 test	 edx, edx
  0021f	0f 8e 20 ff ff
	ff		 jle	 $LN12@SetSize
  00225	8d 0c dd 00 00
	00 00		 lea	 ecx, DWORD PTR [ebx*8]
  0022c	2b cb		 sub	 ecx, ebx
  0022e	c1 e1 02	 shl	 ecx, 2
  00231	89 4d 0c	 mov	 DWORD PTR tv639[ebp], ecx
$LL13@SetSize:

; 425  : 				(m_pData + nNewSize + i)->~TYPE();

  00234	8b 77 04	 mov	 esi, DWORD PTR [edi+4]
  00237	03 f1		 add	 esi, ecx
  00239	8d 4e 18	 lea	 ecx, DWORD PTR [esi+24]
  0023c	ff 15 00 00 00
	00		 call	 DWORD PTR __imp_??1?$CStringT@DV?$StrTraitMFC_DLL@DV?$ChTraitsCRT@D@ATL@@@@@ATL@@QAE@XZ
  00242	8d 4e 14	 lea	 ecx, DWORD PTR [esi+20]
  00245	ff 15 00 00 00
	00		 call	 DWORD PTR __imp_??1?$CStringT@DV?$StrTraitMFC_DLL@DV?$ChTraitsCRT@D@ATL@@@@@ATL@@QAE@XZ
  0024b	8d 4e 10	 lea	 ecx, DWORD PTR [esi+16]
  0024e	ff 15 00 00 00
	00		 call	 DWORD PTR __imp_??1?$CStringT@DV?$StrTraitMFC_DLL@DV?$ChTraitsCRT@D@ATL@@@@@ATL@@QAE@XZ
  00254	8d 4e 0c	 lea	 ecx, DWORD PTR [esi+12]
  00257	ff 15 00 00 00
	00		 call	 DWORD PTR __imp_??1?$CStringT@DV?$StrTraitMFC_DLL@DV?$ChTraitsCRT@D@ATL@@@@@ATL@@QAE@XZ
  0025d	8d 4e 08	 lea	 ecx, DWORD PTR [esi+8]
  00260	ff 15 00 00 00
	00		 call	 DWORD PTR __imp_??1?$CStringT@DV?$StrTraitMFC_DLL@DV?$ChTraitsCRT@D@ATL@@@@@ATL@@QAE@XZ
  00266	8d 4e 04	 lea	 ecx, DWORD PTR [esi+4]
  00269	ff 15 00 00 00
	00		 call	 DWORD PTR __imp_??1?$CStringT@DV?$StrTraitMFC_DLL@DV?$ChTraitsCRT@D@ATL@@@@@ATL@@QAE@XZ
  0026f	8b ce		 mov	 ecx, esi
  00271	ff 15 00 00 00
	00		 call	 DWORD PTR __imp_??1?$CStringT@DV?$StrTraitMFC_DLL@DV?$ChTraitsCRT@D@ATL@@@@@ATL@@QAE@XZ
  00277	8b 55 08	 mov	 edx, DWORD PTR _i$1$[ebp]
  0027a	8b 4d 0c	 mov	 ecx, DWORD PTR tv639[ebp]
  0027d	42		 inc	 edx
  0027e	8b 47 08	 mov	 eax, DWORD PTR [edi+8]
  00281	83 c1 1c	 add	 ecx, 28			; 0000001cH
  00284	2b c3		 sub	 eax, ebx
  00286	89 55 08	 mov	 DWORD PTR _i$1$[ebp], edx
  00289	89 4d 0c	 mov	 DWORD PTR tv639[ebp], ecx
  0028c	3b d0		 cmp	 edx, eax
  0028e	7c a4		 jl	 SHORT $LL13@SetSize

; 471  : 		m_pData = pNewData;
; 472  : 		m_nSize = nNewSize;
; 473  : 		m_nMaxSize = nNewMax;
; 474  : 	}
; 475  : }

  00290	89 5f 08	 mov	 DWORD PTR [edi+8], ebx
  00293	5f		 pop	 edi
  00294	5e		 pop	 esi
  00295	5b		 pop	 ebx
  00296	8b e5		 mov	 esp, ebp
  00298	5d		 pop	 ebp
  00299	c2 08 00	 ret	 8
$LN24@SetSize:

; 426  : 		}
; 427  : 		m_nSize = nNewSize;
; 428  : 	}
; 429  : 	else
; 430  : 	{
; 431  : 		// otherwise, grow array
; 432  : 		nGrowBy = m_nGrowBy;

  0029c	8b 47 10	 mov	 eax, DWORD PTR [edi+16]

; 433  : 		if (nGrowBy == 0)

  0029f	85 c0		 test	 eax, eax
  002a1	75 22		 jne	 SHORT $LN37@SetSize

; 434  : 		{
; 435  : 			// heuristically determine growth when nGrowBy == 0
; 436  : 			//  (this avoids heap fragmentation in many situations)
; 437  : 			nGrowBy = m_nSize / 8;

  002a3	8b 47 08	 mov	 eax, DWORD PTR [edi+8]
  002a6	99		 cdq
  002a7	83 e2 07	 and	 edx, 7
  002aa	03 c2		 add	 eax, edx
  002ac	c1 f8 03	 sar	 eax, 3

; 438  : 			nGrowBy = (nGrowBy < 4) ? 4 : ((nGrowBy > 1024) ? 1024 : nGrowBy);

  002af	83 f8 04	 cmp	 eax, 4
  002b2	7d 07		 jge	 SHORT $LN36@SetSize
  002b4	b8 04 00 00 00	 mov	 eax, 4
  002b9	eb 0a		 jmp	 SHORT $LN37@SetSize
$LN36@SetSize:
  002bb	ba 00 04 00 00	 mov	 edx, 1024		; 00000400H
  002c0	3b c2		 cmp	 eax, edx
  002c2	0f 4f c2	 cmovg	 eax, edx
$LN37@SetSize:

; 439  : 		}
; 440  : 		INT_PTR nNewMax;
; 441  : 		if (nNewSize < m_nMaxSize + nGrowBy)

  002c5	03 c1		 add	 eax, ecx
  002c7	89 45 fc	 mov	 DWORD PTR _nNewMax$1$[ebp], eax
  002ca	3b d8		 cmp	 ebx, eax
  002cc	7d 0a		 jge	 SHORT $LN30@SetSize

; 445  : 
; 446  : 		ASSERT(nNewMax >= m_nMaxSize);  // no wrap around
; 447  : 
; 448  : 		if(nNewMax  < m_nMaxSize)

  002ce	3b c1		 cmp	 eax, ecx
  002d0	0f 8c 75 01 00
	00		 jl	 $LN91@SetSize
  002d6	eb 05		 jmp	 SHORT $LN32@SetSize
$LN30@SetSize:

; 442  : 			nNewMax = m_nMaxSize + nGrowBy;  // granularity
; 443  : 		else
; 444  : 			nNewMax = nNewSize;  // no slush

  002d8	8b c3		 mov	 eax, ebx
  002da	89 5d fc	 mov	 DWORD PTR _nNewMax$1$[ebp], ebx
$LN32@SetSize:

; 450  : 
; 451  : #ifdef SIZE_T_MAX
; 452  : 		ASSERT(nNewMax <= SIZE_T_MAX/sizeof(TYPE)); // no overflow
; 453  : #endif
; 454  : 		TYPE* pNewData = (TYPE*) new BYTE[(size_t)nNewMax * sizeof(TYPE)];

  002dd	8d 34 c5 00 00
	00 00		 lea	 esi, DWORD PTR [eax*8]
  002e4	2b f0		 sub	 esi, eax
  002e6	c1 e6 02	 shl	 esi, 2
  002e9	56		 push	 esi
  002ea	e8 00 00 00 00	 call	 ??_U@YAPAXI@Z		; operator new[]

; 455  : 
; 456  : 		// copy new data from old
; 457  : 		::ATL::Checked::memcpy_s(pNewData, (size_t)nNewMax * sizeof(TYPE),

  002ef	8b 4f 08	 mov	 ecx, DWORD PTR [edi+8]
  002f2	8b d0		 mov	 edx, eax
  002f4	83 c4 04	 add	 esp, 4
  002f7	89 55 08	 mov	 DWORD PTR _pNewData$1$[ebp], edx
  002fa	8d 04 cd 00 00
	00 00		 lea	 eax, DWORD PTR [ecx*8]
  00301	2b c1		 sub	 eax, ecx
  00303	8b 4f 04	 mov	 ecx, DWORD PTR [edi+4]
  00306	c1 e0 02	 shl	 eax, 2
  00309	89 45 f8	 mov	 DWORD PTR __N$1$[ebp], eax
  0030c	89 4d 0c	 mov	 DWORD PTR __S2$1$[ebp], ecx
; File C:\Program Files (x86)\Windows Kits\10\Include\10.0.22000.0\ucrt\corecrt_memcpy_s.h

; 46   :         if (_SourceSize == 0)

  0030f	85 c0		 test	 eax, eax
  00311	74 1f		 je	 SHORT $LN58@SetSize
$LN59@SetSize:

; 47   :         {
; 48   :             return 0;
; 49   :         }
; 50   : 
; 51   :         _CRT_MEMCPY_S_VALIDATE_RETURN_ERRCODE(_Destination != NULL, EINVAL);

  00313	85 d2		 test	 edx, edx
  00315	0f 85 db 00 00
	00		 jne	 $LN60@SetSize
$LN93@SetSize:
; File C:\Program Files (x86)\Microsoft Visual Studio\2019\Community\VC\Tools\MSVC\14.29.30133\atlmfc\include\atlchecked.h

; 69   : 	ATLMFC_CRT_ERRORCHECK(::memcpy_s(_S1, _S1max, _S2, _N));

  0031b	ff 15 00 00 00
	00		 call	 DWORD PTR __imp___errno
  00321	c7 00 16 00 00
	00		 mov	 DWORD PTR [eax], 22	; 00000016H
  00327	ff 15 00 00 00
	00		 call	 DWORD PTR __imp___invalid_parameter_noinfo
$LN64@SetSize:
  0032d	b8 16 00 00 00	 mov	 eax, 22			; 00000016H
$LN58@SetSize:
  00332	50		 push	 eax
  00333	e8 00 00 00 00	 call	 ?AfxCrtErrorCheck@@YAHH@Z ; AfxCrtErrorCheck
; File C:\Program Files (x86)\Microsoft Visual Studio\2019\Community\VC\Tools\MSVC\14.29.30133\atlmfc\include\afxtempl.h

; 462  : 		memset((void*)(pNewData + m_nSize), 0, (size_t)(nNewSize-m_nSize) * sizeof(TYPE));

  00338	8b 57 08	 mov	 edx, DWORD PTR [edi+8]
  0033b	8b cb		 mov	 ecx, ebx
  0033d	8b 75 08	 mov	 esi, DWORD PTR _pNewData$1$[ebp]
  00340	2b ca		 sub	 ecx, edx
  00342	8d 04 cd 00 00
	00 00		 lea	 eax, DWORD PTR [ecx*8]
  00349	2b c1		 sub	 eax, ecx
  0034b	c1 e0 02	 shl	 eax, 2
  0034e	50		 push	 eax
  0034f	8d 04 d5 00 00
	00 00		 lea	 eax, DWORD PTR [edx*8]
  00356	2b c2		 sub	 eax, edx
  00358	6a 00		 push	 0
  0035a	8d 04 86	 lea	 eax, DWORD PTR [esi+eax*4]
  0035d	50		 push	 eax
  0035e	e8 00 00 00 00	 call	 _memset

; 463  : 		for( int i = 0; i < nNewSize-m_nSize; i++ )

  00363	8b c3		 mov	 eax, ebx
  00365	33 d2		 xor	 edx, edx
  00367	2b 47 08	 sub	 eax, DWORD PTR [edi+8]
  0036a	83 c4 10	 add	 esp, 16			; 00000010H
  0036d	89 55 0c	 mov	 DWORD PTR _i$1$[ebp], edx
  00370	85 c0		 test	 eax, eax
  00372	7e 62		 jle	 SHORT $LN15@SetSize
$LL16@SetSize:

; 464  : #pragma push_macro("new")
; 465  : #undef new
; 466  : 			::new( (void*)( pNewData + m_nSize + i ) ) TYPE;

  00374	8b 4f 08	 mov	 ecx, DWORD PTR [edi+8]
  00377	03 ca		 add	 ecx, edx
  00379	8d 04 cd 00 00
	00 00		 lea	 eax, DWORD PTR [ecx*8]
  00380	2b c1		 sub	 eax, ecx
  00382	8d 34 86	 lea	 esi, DWORD PTR [esi+eax*4]
  00385	8b ce		 mov	 ecx, esi
  00387	ff 15 00 00 00
	00		 call	 DWORD PTR __imp_??0?$CStringT@DV?$StrTraitMFC_DLL@DV?$ChTraitsCRT@D@ATL@@@@@ATL@@QAE@XZ
  0038d	8d 4e 04	 lea	 ecx, DWORD PTR [esi+4]
  00390	ff 15 00 00 00
	00		 call	 DWORD PTR __imp_??0?$CStringT@DV?$StrTraitMFC_DLL@DV?$ChTraitsCRT@D@ATL@@@@@ATL@@QAE@XZ
  00396	8d 4e 08	 lea	 ecx, DWORD PTR [esi+8]
  00399	ff 15 00 00 00
	00		 call	 DWORD PTR __imp_??0?$CStringT@DV?$StrTraitMFC_DLL@DV?$ChTraitsCRT@D@ATL@@@@@ATL@@QAE@XZ
  0039f	8d 4e 0c	 lea	 ecx, DWORD PTR [esi+12]
  003a2	ff 15 00 00 00
	00		 call	 DWORD PTR __imp_??0?$CStringT@DV?$StrTraitMFC_DLL@DV?$ChTraitsCRT@D@ATL@@@@@ATL@@QAE@XZ
  003a8	8d 4e 10	 lea	 ecx, DWORD PTR [esi+16]
  003ab	ff 15 00 00 00
	00		 call	 DWORD PTR __imp_??0?$CStringT@DV?$StrTraitMFC_DLL@DV?$ChTraitsCRT@D@ATL@@@@@ATL@@QAE@XZ
  003b1	8d 4e 14	 lea	 ecx, DWORD PTR [esi+20]
  003b4	ff 15 00 00 00
	00		 call	 DWORD PTR __imp_??0?$CStringT@DV?$StrTraitMFC_DLL@DV?$ChTraitsCRT@D@ATL@@@@@ATL@@QAE@XZ
  003ba	8d 4e 18	 lea	 ecx, DWORD PTR [esi+24]
  003bd	ff 15 00 00 00
	00		 call	 DWORD PTR __imp_??0?$CStringT@DV?$StrTraitMFC_DLL@DV?$ChTraitsCRT@D@ATL@@@@@ATL@@QAE@XZ
  003c3	8b 55 0c	 mov	 edx, DWORD PTR _i$1$[ebp]
  003c6	8b c3		 mov	 eax, ebx
  003c8	2b 47 08	 sub	 eax, DWORD PTR [edi+8]
  003cb	42		 inc	 edx
  003cc	8b 75 08	 mov	 esi, DWORD PTR _pNewData$1$[ebp]
  003cf	89 55 0c	 mov	 DWORD PTR _i$1$[ebp], edx
  003d2	3b d0		 cmp	 edx, eax
  003d4	7c 9e		 jl	 SHORT $LL16@SetSize
$LN15@SetSize:

; 467  : #pragma pop_macro("new")
; 468  : 
; 469  : 		// get rid of old stuff (note: no destructors called)
; 470  : 		delete[] (BYTE*)m_pData;

  003d6	ff 77 04	 push	 DWORD PTR [edi+4]
  003d9	e8 00 00 00 00	 call	 ??_V@YAXPAX@Z		; operator delete[]

; 471  : 		m_pData = pNewData;
; 472  : 		m_nSize = nNewSize;
; 473  : 		m_nMaxSize = nNewMax;
; 474  : 	}
; 475  : }

  003de	8b 45 fc	 mov	 eax, DWORD PTR _nNewMax$1$[ebp]
  003e1	83 c4 04	 add	 esp, 4
  003e4	89 77 04	 mov	 DWORD PTR [edi+4], esi
  003e7	89 5f 08	 mov	 DWORD PTR [edi+8], ebx
  003ea	89 47 0c	 mov	 DWORD PTR [edi+12], eax
  003ed	5f		 pop	 edi
  003ee	5e		 pop	 esi
  003ef	5b		 pop	 ebx
  003f0	8b e5		 mov	 esp, ebp
  003f2	5d		 pop	 ebp
  003f3	c2 08 00	 ret	 8
$LN60@SetSize:
; File C:\Program Files (x86)\Windows Kits\10\Include\10.0.22000.0\ucrt\corecrt_memcpy_s.h

; 52   :         if (_Source == NULL || _DestinationSize < _SourceSize)

  003f6	85 c9		 test	 ecx, ecx
  003f8	74 16		 je	 SHORT $LN62@SetSize
  003fa	3b f0		 cmp	 esi, eax
  003fc	72 12		 jb	 SHORT $LN62@SetSize

; 58   : 
; 59   :             // Unreachable, but required to suppress /analyze warnings:
; 60   :             return EINVAL;
; 61   :         }
; 62   :         memcpy(_Destination, _Source, _SourceSize);

  003fe	50		 push	 eax
  003ff	51		 push	 ecx
  00400	52		 push	 edx
  00401	e8 00 00 00 00	 call	 _memcpy
  00406	83 c4 0c	 add	 esp, 12			; 0000000cH

; 63   :         return 0;

  00409	33 c0		 xor	 eax, eax
  0040b	e9 22 ff ff ff	 jmp	 $LN58@SetSize
$LN62@SetSize:

; 53   :         {
; 54   :             memset(_Destination, 0, _DestinationSize);

  00410	56		 push	 esi
  00411	6a 00		 push	 0
  00413	52		 push	 edx
  00414	e8 00 00 00 00	 call	 _memset
  00419	83 c4 0c	 add	 esp, 12			; 0000000cH

; 55   : 
; 56   :             _CRT_MEMCPY_S_VALIDATE_RETURN_ERRCODE(_Source != NULL,                 EINVAL);

  0041c	83 7d 0c 00	 cmp	 DWORD PTR __S2$1$[ebp], 0
  00420	0f 84 f5 fe ff
	ff		 je	 $LN93@SetSize

; 57   :             _CRT_MEMCPY_S_VALIDATE_RETURN_ERRCODE(_DestinationSize >= _SourceSize, ERANGE);

  00426	3b 75 f8	 cmp	 esi, DWORD PTR __N$1$[ebp]
  00429	0f 83 fe fe ff
	ff		 jae	 $LN64@SetSize
  0042f	ff 15 00 00 00
	00		 call	 DWORD PTR __imp___errno
  00435	c7 00 22 00 00
	00		 mov	 DWORD PTR [eax], 34	; 00000022H
  0043b	ff 15 00 00 00
	00		 call	 DWORD PTR __imp___invalid_parameter_noinfo
  00441	b8 22 00 00 00	 mov	 eax, 34			; 00000022H
  00446	e9 e7 fe ff ff	 jmp	 $LN58@SetSize
$LN91@SetSize:
; File C:\Program Files (x86)\Microsoft Visual Studio\2019\Community\VC\Tools\MSVC\14.29.30133\atlmfc\include\afxtempl.h

; 449  : 			AfxThrowInvalidArgException();

  0044b	e8 00 00 00 00	 call	 ?AfxThrowInvalidArgException@@YGXXZ ; AfxThrowInvalidArgException
$LN92@SetSize:
  00450	cc		 int	 3
?SetSize@?$CArray@UST_SKININFO@@U1@@@QAEXHH@Z ENDP	; CArray<ST_SKININFO,ST_SKININFO>::SetSize
_TEXT	ENDS
; Function compile flags: /Ogtp
; File C:\Program Files (x86)\Microsoft Visual Studio\2019\Community\VC\Tools\MSVC\14.29.30133\atlmfc\include\afxtempl.h
;	COMDAT ??0?$CArray@UST_SKININFO@@U1@@@QAE@XZ
_TEXT	SEGMENT
??0?$CArray@UST_SKININFO@@U1@@@QAE@XZ PROC		; CArray<ST_SKININFO,ST_SKININFO>::CArray<ST_SKININFO,ST_SKININFO>, COMDAT
; _this$ = ecx

; 348  : {

  00000	c7 01 00 00 00
	00		 mov	 DWORD PTR [ecx], OFFSET ??_7?$CArray@UST_SKININFO@@U1@@@6B@

; 349  : 	m_pData = NULL;
; 350  : 	m_nSize = m_nMaxSize = m_nGrowBy = 0;
; 351  : }

  00006	8b c1		 mov	 eax, ecx
  00008	c7 41 04 00 00
	00 00		 mov	 DWORD PTR [ecx+4], 0
  0000f	c7 41 10 00 00
	00 00		 mov	 DWORD PTR [ecx+16], 0
  00016	c7 41 0c 00 00
	00 00		 mov	 DWORD PTR [ecx+12], 0
  0001d	c7 41 08 00 00
	00 00		 mov	 DWORD PTR [ecx+8], 0
  00024	c3		 ret	 0
??0?$CArray@UST_SKININFO@@U1@@@QAE@XZ ENDP		; CArray<ST_SKININFO,ST_SKININFO>::CArray<ST_SKININFO,ST_SKININFO>
_TEXT	ENDS
; Function compile flags: /Ogtp
; File C:\Program Files (x86)\Microsoft Visual Studio\2019\Community\VC\Tools\MSVC\14.29.30133\atlmfc\include\afxtempl.h
; File C:\Program Files (x86)\Microsoft Visual Studio\2019\Community\VC\Tools\MSVC\14.29.30133\atlmfc\include\afx.inl
;	COMDAT ??_G?$CList@PAUISkinColorSite@@PAU1@@@UAEPAXI@Z
_TEXT	SEGMENT
__$EHRec$ = -12						; size = 12
___flags$ = 8						; size = 4
??_G?$CList@PAUISkinColorSite@@PAU1@@@UAEPAXI@Z PROC	; CList<ISkinColorSite *,ISkinColorSite *>::`scalar deleting destructor', COMDAT
; _this$ = ecx
  00000	55		 push	 ebp
  00001	8b ec		 mov	 ebp, esp
  00003	6a ff		 push	 -1
  00005	68 00 00 00 00	 push	 __ehhandler$??_G?$CList@PAUISkinColorSite@@PAU1@@@UAEPAXI@Z
  0000a	64 a1 00 00 00
	00		 mov	 eax, DWORD PTR fs:0
  00010	50		 push	 eax
  00011	56		 push	 esi
  00012	a1 00 00 00 00	 mov	 eax, DWORD PTR ___security_cookie
  00017	33 c5		 xor	 eax, ebp
  00019	50		 push	 eax
  0001a	8d 45 f4	 lea	 eax, DWORD PTR __$EHRec$[ebp]
  0001d	64 a3 00 00 00
	00		 mov	 DWORD PTR fs:0, eax
  00023	8b f1		 mov	 esi, ecx
; File C:\Program Files (x86)\Microsoft Visual Studio\2019\Community\VC\Tools\MSVC\14.29.30133\atlmfc\include\afxtempl.h

; 872  : 	m_pBlocks->FreeDataChain();

  00025	8b 4e 14	 mov	 ecx, DWORD PTR [esi+20]

; 878  : {

  00028	c7 45 fc 00 00
	00 00		 mov	 DWORD PTR __$EHRec$[ebp+8], 0
  0002f	c7 06 00 00 00
	00		 mov	 DWORD PTR [esi], OFFSET ??_7?$CList@PAUISkinColorSite@@PAU1@@@6B@

; 870  : 	m_nCount = 0;

  00035	c7 46 0c 00 00
	00 00		 mov	 DWORD PTR [esi+12], 0

; 871  : 	m_pNodeHead = m_pNodeTail = m_pNodeFree = NULL;

  0003c	c7 46 10 00 00
	00 00		 mov	 DWORD PTR [esi+16], 0
  00043	c7 46 08 00 00
	00 00		 mov	 DWORD PTR [esi+8], 0
  0004a	c7 46 04 00 00
	00 00		 mov	 DWORD PTR [esi+4], 0

; 872  : 	m_pBlocks->FreeDataChain();

  00051	e8 00 00 00 00	 call	 ?FreeDataChain@CPlex@@QAEXXZ ; CPlex::FreeDataChain

; 873  : 	m_pBlocks = NULL;

  00056	8b 45 08	 mov	 eax, DWORD PTR ___flags$[ebp]
  00059	c7 46 14 00 00
	00 00		 mov	 DWORD PTR [esi+20], 0
  00060	a8 01		 test	 al, 1
  00062	74 2c		 je	 SHORT $LN22@scalar
  00064	a8 04		 test	 al, 4
  00066	75 1d		 jne	 SHORT $LN3@scalar
; File C:\Program Files (x86)\Microsoft Visual Studio\2019\Community\VC\Tools\MSVC\14.29.30133\atlmfc\include\afx.inl

; 112  : 	{ ::operator delete(p); }

  00068	56		 push	 esi
  00069	e8 00 00 00 00	 call	 ??3@YAXPAX@Z		; operator delete
  0006e	83 c4 04	 add	 esp, 4
  00071	8b c6		 mov	 eax, esi
  00073	8b 4d f4	 mov	 ecx, DWORD PTR __$EHRec$[ebp]
  00076	64 89 0d 00 00
	00 00		 mov	 DWORD PTR fs:0, ecx
  0007d	59		 pop	 ecx
  0007e	5e		 pop	 esi
  0007f	8b e5		 mov	 esp, ebp
  00081	5d		 pop	 ebp
  00082	c2 04 00	 ret	 4
$LN3@scalar:
  00085	6a 1c		 push	 28			; 0000001cH
  00087	56		 push	 esi
  00088	e8 00 00 00 00	 call	 ?__global_delete@@YAXPAXI@Z ; __global_delete
  0008d	83 c4 08	 add	 esp, 8
$LN22@scalar:
  00090	8b c6		 mov	 eax, esi
  00092	8b 4d f4	 mov	 ecx, DWORD PTR __$EHRec$[ebp]
  00095	64 89 0d 00 00
	00 00		 mov	 DWORD PTR fs:0, ecx
  0009c	59		 pop	 ecx
  0009d	5e		 pop	 esi
  0009e	8b e5		 mov	 esp, ebp
  000a0	5d		 pop	 ebp
  000a1	c2 04 00	 ret	 4
  000a4	cc		 int	 3
  000a5	cc		 int	 3
  000a6	cc		 int	 3
  000a7	cc		 int	 3
  000a8	cc		 int	 3
_TEXT	ENDS
;	COMDAT text$x
text$x	SEGMENT
__ehhandler$??_G?$CList@PAUISkinColorSite@@PAU1@@@UAEPAXI@Z:
  00000	90		 npad	 1
  00001	90		 npad	 1
  00002	8b 54 24 08	 mov	 edx, DWORD PTR [esp+8]
  00006	8d 42 0c	 lea	 eax, DWORD PTR [edx+12]
  00009	8b 4a f8	 mov	 ecx, DWORD PTR [edx-8]
  0000c	33 c8		 xor	 ecx, eax
  0000e	e8 00 00 00 00	 call	 @__security_check_cookie@4
  00013	b8 00 00 00 00	 mov	 eax, OFFSET __ehfuncinfo$??_G?$CList@PAUISkinColorSite@@PAU1@@@UAEPAXI@Z
  00018	e9 00 00 00 00	 jmp	 ___CxxFrameHandler3
text$x	ENDS
??_G?$CList@PAUISkinColorSite@@PAU1@@@UAEPAXI@Z ENDP	; CList<ISkinColorSite *,ISkinColorSite *>::`scalar deleting destructor'
; Function compile flags: /Ogtp
; File C:\Program Files (x86)\Microsoft Visual Studio\2019\Community\VC\Tools\MSVC\14.29.30133\atlmfc\include\afxtempl.h
; File C:\Program Files (x86)\Microsoft Visual Studio\2019\Community\VC\Tools\MSVC\14.29.30133\atlmfc\include\afx.inl
; File C:\Program Files (x86)\Microsoft Visual Studio\2019\Community\VC\Tools\MSVC\14.29.30133\atlmfc\include\afxtempl.h
; File C:\Program Files (x86)\Microsoft Visual Studio\2019\Community\VC\Tools\MSVC\14.29.30133\atlmfc\include\afx.inl
; File C:\Program Files (x86)\Microsoft Visual Studio\2019\Community\VC\Tools\MSVC\14.29.30133\atlmfc\include\afxtempl.h
; File C:\Program Files (x86)\Microsoft Visual Studio\2019\Community\VC\Tools\MSVC\14.29.30133\atlmfc\include\afx.inl
; File C:\Program Files (x86)\Microsoft Visual Studio\2019\Community\VC\Tools\MSVC\14.29.30133\atlmfc\include\afxtempl.h
; File C:\Program Files (x86)\Microsoft Visual Studio\2019\Community\VC\Tools\MSVC\14.29.30133\atlmfc\include\afx.inl
; File C:\Program Files (x86)\Microsoft Visual Studio\2019\Community\VC\Tools\MSVC\14.29.30133\atlmfc\include\afxtempl.h
; File C:\Program Files (x86)\Microsoft Visual Studio\2019\Community\VC\Tools\MSVC\14.29.30133\atlmfc\include\afx.inl
; File C:\Program Files (x86)\Microsoft Visual Studio\2019\Community\VC\Tools\MSVC\14.29.30133\atlmfc\include\afxtempl.h
; File C:\Program Files (x86)\Microsoft Visual Studio\2019\Community\VC\Tools\MSVC\14.29.30133\atlmfc\include\afx.inl
; File C:\Program Files (x86)\Microsoft Visual Studio\2019\Community\VC\Tools\MSVC\14.29.30133\atlmfc\include\afxtempl.h
;	COMDAT ?Serialize@?$CList@PAUISkinColorSite@@PAU1@@@UAEXAAVCArchive@@@Z
_TEXT	SEGMENT
_nNewCount$1$ = -16					; size = 4
_newData$1 = -12					; size = 4
_pData$1$ = -8						; size = 4
_pNode$1$ = -8						; size = 4
_nElementsLeft$1$ = -4					; size = 4
_this$1$ = -4						; size = 4
_ar$ = 8						; size = 4
?Serialize@?$CList@PAUISkinColorSite@@PAU1@@@UAEXAAVCArchive@@@Z PROC ; CList<ISkinColorSite *,ISkinColorSite *>::Serialize, COMDAT
; _this$ = ecx

; 1169 : {

  00000	55		 push	 ebp
  00001	8b ec		 mov	 ebp, esp
  00003	83 ec 10	 sub	 esp, 16			; 00000010H
  00006	53		 push	 ebx
  00007	8b d9		 mov	 ebx, ecx
; File C:\Program Files (x86)\Microsoft Visual Studio\2019\Community\VC\Tools\MSVC\14.29.30133\atlmfc\include\afx.inl

; 212  : 	{ return (m_nMode & CArchive::load) == 0; }

  00009	8b 4d 08	 mov	 ecx, DWORD PTR _ar$[ebp]
; File C:\Program Files (x86)\Microsoft Visual Studio\2019\Community\VC\Tools\MSVC\14.29.30133\atlmfc\include\afxtempl.h

; 1169 : {

  0000c	56		 push	 esi
  0000d	57		 push	 edi
  0000e	89 5d fc	 mov	 DWORD PTR _this$1$[ebp], ebx
; File C:\Program Files (x86)\Microsoft Visual Studio\2019\Community\VC\Tools\MSVC\14.29.30133\atlmfc\include\afx.inl

; 212  : 	{ return (m_nMode & CArchive::load) == 0; }

  00011	8b 41 18	 mov	 eax, DWORD PTR [ecx+24]
  00014	f7 d0		 not	 eax
  00016	a8 01		 test	 al, 1
; File C:\Program Files (x86)\Microsoft Visual Studio\2019\Community\VC\Tools\MSVC\14.29.30133\atlmfc\include\afxtempl.h

; 1174 : 	if (ar.IsStoring())

  00018	0f 84 ae 00 00
	00		 je	 $LN7@Serialize

; 1175 : 	{
; 1176 : 		ar.WriteCount(m_nCount);

  0001e	ff 73 0c	 push	 DWORD PTR [ebx+12]
  00021	e8 00 00 00 00	 call	 ?WriteCount@CArchive@@QAEXK@Z ; CArchive::WriteCount

; 1177 : 		for (CNode* pNode = m_pNodeHead; pNode != NULL; pNode = pNode->pNext)

  00026	8b 43 04	 mov	 eax, DWORD PTR [ebx+4]
  00029	89 45 f8	 mov	 DWORD PTR _pNode$1$[ebp], eax
  0002c	85 c0		 test	 eax, eax
  0002e	0f 84 43 01 00
	00		 je	 $LN68@Serialize
$LL4@Serialize:

; 1178 : 		{
; 1179 : 			ASSERT(AfxIsValidAddress(pNode, sizeof(CNode)));
; 1180 : 			TYPE* pData;
; 1181 : 			/*
; 1182 : 			 * in some cases the & operator might be overloaded, and we cannot use it to obtain
; 1183 : 			 * the address of a given object.  We then use the following trick to get the address
; 1184 : 			 */
; 1185 : 			pData = reinterpret_cast< TYPE* >( &reinterpret_cast< int& >( static_cast< TYPE& >( pNode->data ) ) );

  00034	8d 70 08	 lea	 esi, DWORD PTR [eax+8]

; 68   : 	ENSURE(nCount == 0 || pElements != NULL);

  00037	85 f6		 test	 esi, esi
  00039	0f 84 4a 01 00
	00		 je	 $LN60@Serialize
; File C:\Program Files (x86)\Microsoft Visual Studio\2019\Community\VC\Tools\MSVC\14.29.30133\atlmfc\include\afx.inl

; 212  : 	{ return (m_nMode & CArchive::load) == 0; }

  0003f	8b 4d 08	 mov	 ecx, DWORD PTR _ar$[ebp]
  00042	8b 41 18	 mov	 eax, DWORD PTR [ecx+24]
  00045	f7 d0		 not	 eax
  00047	a8 01		 test	 al, 1
; File C:\Program Files (x86)\Microsoft Visual Studio\2019\Community\VC\Tools\MSVC\14.29.30133\atlmfc\include\afxtempl.h

; 73   : 	if (ar.IsStoring())

  00049	74 33		 je	 SHORT $LN21@Serialize

; 74   : 	{
; 75   : 		TYPE* pData;
; 76   : 		UINT_PTR nElementsLeft;
; 77   : 
; 78   : 		nElementsLeft = nCount;

  0004b	b8 01 00 00 00	 mov	 eax, 1
  00050	89 45 fc	 mov	 DWORD PTR _nElementsLeft$1$[ebp], eax
$LL16@Serialize:

; 80   : 		while( nElementsLeft > 0 )
; 81   : 		{
; 82   : 			UINT nElementsToWrite;
; 83   : 
; 84   : 			nElementsToWrite = UINT(__min(nElementsLeft, INT_MAX/sizeof(TYPE)));

  00053	bb ff ff ff 1f	 mov	 ebx, 536870911		; 1fffffffH
  00058	3b c3		 cmp	 eax, ebx
  0005a	0f 42 d8	 cmovb	 ebx, eax

; 85   : 			ar.Write(pData, nElementsToWrite*sizeof(TYPE));

  0005d	8d 3c 9d 00 00
	00 00		 lea	 edi, DWORD PTR [ebx*4]
  00064	57		 push	 edi
  00065	56		 push	 esi
  00066	e8 00 00 00 00	 call	 ?Write@CArchive@@QAEXPBXI@Z ; CArchive::Write

; 86   : 			nElementsLeft -= nElementsToWrite;

  0006b	8b 45 fc	 mov	 eax, DWORD PTR _nElementsLeft$1$[ebp]

; 87   : 			pData += nElementsToWrite;

  0006e	03 f7		 add	 esi, edi
  00070	8b 4d 08	 mov	 ecx, DWORD PTR _ar$[ebp]
  00073	2b c3		 sub	 eax, ebx
  00075	89 45 fc	 mov	 DWORD PTR _nElementsLeft$1$[ebp], eax
  00078	85 c0		 test	 eax, eax
  0007a	75 d7		 jne	 SHORT $LL16@Serialize

; 88   : 		}
; 89   : 	}

  0007c	eb 35		 jmp	 SHORT $LN2@Serialize
$LN21@Serialize:

; 90   : 	else
; 91   : 	{
; 92   : 		TYPE* pData;
; 93   : 		UINT_PTR nElementsLeft;
; 94   : 
; 95   : 		nElementsLeft = nCount;

  0007e	bf 01 00 00 00	 mov	 edi, 1
$LL18@Serialize:

; 98   : 		{
; 99   : 			UINT nElementsToRead;
; 100  : 
; 101  : 			nElementsToRead = UINT(__min(nElementsLeft, INT_MAX/sizeof(TYPE)));

  00083	bb ff ff ff 1f	 mov	 ebx, 536870911		; 1fffffffH
  00088	3b fb		 cmp	 edi, ebx
  0008a	0f 42 df	 cmovb	 ebx, edi

; 102  : 			ar.EnsureRead(pData, nElementsToRead*sizeof(TYPE));

  0008d	8d 04 9d 00 00
	00 00		 lea	 eax, DWORD PTR [ebx*4]
; File C:\Program Files (x86)\Microsoft Visual Studio\2019\Community\VC\Tools\MSVC\14.29.30133\atlmfc\include\afx.inl

; 399  : 	UINT nRead=Read(lpBuf, nCount);

  00094	50		 push	 eax
  00095	56		 push	 esi
  00096	e8 00 00 00 00	 call	 ?Read@CArchive@@QAEIPAXI@Z ; CArchive::Read

; 400  : 	if(nRead!=nCount)

  0009b	8d 0c 9d 00 00
	00 00		 lea	 ecx, DWORD PTR [ebx*4]
  000a2	3b c1		 cmp	 eax, ecx
  000a4	0f 85 d6 00 00
	00		 jne	 $LN59@Serialize
; File C:\Program Files (x86)\Microsoft Visual Studio\2019\Community\VC\Tools\MSVC\14.29.30133\atlmfc\include\afxtempl.h

; 97   : 		while( nElementsLeft > 0 )

  000aa	03 f1		 add	 esi, ecx
  000ac	8b 4d 08	 mov	 ecx, DWORD PTR _ar$[ebp]

; 103  : 			nElementsLeft -= nElementsToRead;

  000af	2b fb		 sub	 edi, ebx
  000b1	75 d0		 jne	 SHORT $LL18@Serialize
$LN2@Serialize:

; 1177 : 		for (CNode* pNode = m_pNodeHead; pNode != NULL; pNode = pNode->pNext)

  000b3	8b 45 f8	 mov	 eax, DWORD PTR _pNode$1$[ebp]
  000b6	8b 00		 mov	 eax, DWORD PTR [eax]
  000b8	89 45 f8	 mov	 DWORD PTR _pNode$1$[ebp], eax
  000bb	85 c0		 test	 eax, eax
  000bd	0f 85 71 ff ff
	ff		 jne	 $LL4@Serialize

; 1197 : 		}
; 1198 : 	}
; 1199 : }

  000c3	5f		 pop	 edi
  000c4	5e		 pop	 esi
  000c5	5b		 pop	 ebx
  000c6	8b e5		 mov	 esp, ebp
  000c8	5d		 pop	 ebp
  000c9	c2 04 00	 ret	 4
$LN7@Serialize:

; 1186 : 			SerializeElements<TYPE>(ar, pData, 1);
; 1187 : 		}
; 1188 : 	}
; 1189 : 	else
; 1190 : 	{
; 1191 : 		DWORD_PTR nNewCount = ar.ReadCount();

  000cc	e8 00 00 00 00	 call	 ?ReadCount@CArchive@@QAEKXZ ; CArchive::ReadCount

; 1192 : 		while (nNewCount--)

  000d1	85 c0		 test	 eax, eax
  000d3	0f 84 9e 00 00
	00		 je	 $LN68@Serialize
  000d9	0f 1f 80 00 00
	00 00		 npad	 7
$LL5@Serialize:
  000e0	48		 dec	 eax
  000e1	89 45 f0	 mov	 DWORD PTR _nNewCount$1$[ebp], eax
; File C:\Program Files (x86)\Microsoft Visual Studio\2019\Community\VC\Tools\MSVC\14.29.30133\atlmfc\include\afx.inl

; 212  : 	{ return (m_nMode & CArchive::load) == 0; }

  000e4	8b 45 08	 mov	 eax, DWORD PTR _ar$[ebp]
  000e7	8b 48 18	 mov	 ecx, DWORD PTR [eax+24]
  000ea	f7 d1		 not	 ecx
  000ec	f6 c1 01	 test	 cl, 1
; File C:\Program Files (x86)\Microsoft Visual Studio\2019\Community\VC\Tools\MSVC\14.29.30133\atlmfc\include\afxtempl.h

; 73   : 	if (ar.IsStoring())

  000ef	74 3a		 je	 SHORT $LN42@Serialize

; 79   : 		pData = pElements;

  000f1	8d 4d f4	 lea	 ecx, DWORD PTR _newData$1[ebp]
  000f4	bb 01 00 00 00	 mov	 ebx, 1
  000f9	89 4d f8	 mov	 DWORD PTR _pData$1$[ebp], ecx
  000fc	0f 1f 40 00	 npad	 4
$LL37@Serialize:

; 80   : 		while( nElementsLeft > 0 )
; 81   : 		{
; 82   : 			UINT nElementsToWrite;
; 83   : 
; 84   : 			nElementsToWrite = UINT(__min(nElementsLeft, INT_MAX/sizeof(TYPE)));

  00100	bf ff ff ff 1f	 mov	 edi, 536870911		; 1fffffffH
  00105	3b df		 cmp	 ebx, edi
  00107	0f 42 fb	 cmovb	 edi, ebx

; 85   : 			ar.Write(pData, nElementsToWrite*sizeof(TYPE));

  0010a	8d 34 bd 00 00
	00 00		 lea	 esi, DWORD PTR [edi*4]
  00111	56		 push	 esi
  00112	51		 push	 ecx
  00113	8b c8		 mov	 ecx, eax
  00115	e8 00 00 00 00	 call	 ?Write@CArchive@@QAEXPBXI@Z ; CArchive::Write

; 87   : 			pData += nElementsToWrite;

  0011a	8b 4d f8	 mov	 ecx, DWORD PTR _pData$1$[ebp]
  0011d	8b 45 08	 mov	 eax, DWORD PTR _ar$[ebp]
  00120	03 ce		 add	 ecx, esi
  00122	89 4d f8	 mov	 DWORD PTR _pData$1$[ebp], ecx
  00125	2b df		 sub	 ebx, edi
  00127	75 d7		 jne	 SHORT $LL37@Serialize

; 88   : 		}
; 89   : 	}

  00129	eb 36		 jmp	 SHORT $LN40@Serialize
$LN42@Serialize:

; 90   : 	else
; 91   : 	{
; 92   : 		TYPE* pData;
; 93   : 		UINT_PTR nElementsLeft;
; 94   : 
; 95   : 		nElementsLeft = nCount;

  0012b	be 01 00 00 00	 mov	 esi, 1

; 96   : 		pData = pElements;

  00130	8d 5d f4	 lea	 ebx, DWORD PTR _newData$1[ebp]
$LL39@Serialize:

; 98   : 		{
; 99   : 			UINT nElementsToRead;
; 100  : 
; 101  : 			nElementsToRead = UINT(__min(nElementsLeft, INT_MAX/sizeof(TYPE)));

  00133	bf ff ff ff 1f	 mov	 edi, 536870911		; 1fffffffH
  00138	3b f7		 cmp	 esi, edi
  0013a	0f 42 fe	 cmovb	 edi, esi

; 102  : 			ar.EnsureRead(pData, nElementsToRead*sizeof(TYPE));

  0013d	8d 0c bd 00 00
	00 00		 lea	 ecx, DWORD PTR [edi*4]
; File C:\Program Files (x86)\Microsoft Visual Studio\2019\Community\VC\Tools\MSVC\14.29.30133\atlmfc\include\afx.inl

; 399  : 	UINT nRead=Read(lpBuf, nCount);

  00144	51		 push	 ecx
  00145	53		 push	 ebx
  00146	8b c8		 mov	 ecx, eax
  00148	e8 00 00 00 00	 call	 ?Read@CArchive@@QAEIPAXI@Z ; CArchive::Read

; 400  : 	if(nRead!=nCount)

  0014d	8d 0c bd 00 00
	00 00		 lea	 ecx, DWORD PTR [edi*4]
  00154	3b c1		 cmp	 eax, ecx
  00156	75 28		 jne	 SHORT $LN59@Serialize
; File C:\Program Files (x86)\Microsoft Visual Studio\2019\Community\VC\Tools\MSVC\14.29.30133\atlmfc\include\afxtempl.h

; 104  : 			pData += nElementsToRead;

  00158	8b 45 08	 mov	 eax, DWORD PTR _ar$[ebp]
  0015b	03 d9		 add	 ebx, ecx
  0015d	2b f7		 sub	 esi, edi
  0015f	75 d2		 jne	 SHORT $LL39@Serialize
$LN40@Serialize:

; 1193 : 		{
; 1194 : 			TYPE newData[1];
; 1195 : 			SerializeElements<TYPE>(ar, newData, 1);
; 1196 : 			AddTail(newData[0]);

  00161	ff 75 f4	 push	 DWORD PTR _newData$1[ebp]
  00164	8b 4d fc	 mov	 ecx, DWORD PTR _this$1$[ebp]
  00167	e8 00 00 00 00	 call	 ?AddTail@?$CList@PAUISkinColorSite@@PAU1@@@QAEPAU__POSITION@@PAUISkinColorSite@@@Z ; CList<ISkinColorSite *,ISkinColorSite *>::AddTail
  0016c	8b 45 f0	 mov	 eax, DWORD PTR _nNewCount$1$[ebp]
  0016f	85 c0		 test	 eax, eax
  00171	0f 85 69 ff ff
	ff		 jne	 $LL5@Serialize
$LN68@Serialize:
  00177	5f		 pop	 edi

; 1197 : 		}
; 1198 : 	}
; 1199 : }

  00178	5e		 pop	 esi
  00179	5b		 pop	 ebx
  0017a	8b e5		 mov	 esp, ebp
  0017c	5d		 pop	 ebp
  0017d	c2 04 00	 ret	 4
$LN59@Serialize:
  00180	6a 00		 push	 0
  00182	6a 03		 push	 3
  00184	e8 00 00 00 00	 call	 ?AfxThrowArchiveException@@YGXHPBD@Z ; AfxThrowArchiveException
$LN60@Serialize:

; 68   : 	ENSURE(nCount == 0 || pElements != NULL);

  00189	e8 00 00 00 00	 call	 ?AfxThrowInvalidArgException@@YGXXZ ; AfxThrowInvalidArgException
$LN85@Serialize:
  0018e	cc		 int	 3
?Serialize@?$CList@PAUISkinColorSite@@PAU1@@@UAEXAAVCArchive@@@Z ENDP ; CList<ISkinColorSite *,ISkinColorSite *>::Serialize
_TEXT	ENDS
; Function compile flags: /Ogtp
; File C:\Program Files (x86)\Microsoft Visual Studio\2019\Community\VC\Tools\MSVC\14.29.30133\atlmfc\include\afxtempl.h
;	COMDAT ??1?$CList@PAUISkinColorSite@@PAU1@@@UAE@XZ
_TEXT	SEGMENT
__$EHRec$ = -12						; size = 12
??1?$CList@PAUISkinColorSite@@PAU1@@@UAE@XZ PROC	; CList<ISkinColorSite *,ISkinColorSite *>::~CList<ISkinColorSite *,ISkinColorSite *>, COMDAT
; _this$ = ecx

; 878  : {

  00000	55		 push	 ebp
  00001	8b ec		 mov	 ebp, esp
  00003	6a ff		 push	 -1
  00005	68 00 00 00 00	 push	 __ehhandler$??1?$CList@PAUISkinColorSite@@PAU1@@@UAE@XZ
  0000a	64 a1 00 00 00
	00		 mov	 eax, DWORD PTR fs:0
  00010	50		 push	 eax
  00011	56		 push	 esi
  00012	a1 00 00 00 00	 mov	 eax, DWORD PTR ___security_cookie
  00017	33 c5		 xor	 eax, ebp
  00019	50		 push	 eax
  0001a	8d 45 f4	 lea	 eax, DWORD PTR __$EHRec$[ebp]
  0001d	64 a3 00 00 00
	00		 mov	 DWORD PTR fs:0, eax
  00023	8b f1		 mov	 esi, ecx

; 872  : 	m_pBlocks->FreeDataChain();

  00025	8b 4e 14	 mov	 ecx, DWORD PTR [esi+20]

; 878  : {

  00028	c7 06 00 00 00
	00		 mov	 DWORD PTR [esi], OFFSET ??_7?$CList@PAUISkinColorSite@@PAU1@@@6B@

; 870  : 	m_nCount = 0;

  0002e	c7 46 0c 00 00
	00 00		 mov	 DWORD PTR [esi+12], 0

; 871  : 	m_pNodeHead = m_pNodeTail = m_pNodeFree = NULL;

  00035	c7 46 10 00 00
	00 00		 mov	 DWORD PTR [esi+16], 0
  0003c	c7 46 08 00 00
	00 00		 mov	 DWORD PTR [esi+8], 0
  00043	c7 46 04 00 00
	00 00		 mov	 DWORD PTR [esi+4], 0

; 872  : 	m_pBlocks->FreeDataChain();

  0004a	e8 00 00 00 00	 call	 ?FreeDataChain@CPlex@@QAEXXZ ; CPlex::FreeDataChain

; 873  : 	m_pBlocks = NULL;

  0004f	c7 46 14 00 00
	00 00		 mov	 DWORD PTR [esi+20], 0

; 879  : 	RemoveAll();
; 880  : 	ASSERT(m_nCount == 0);
; 881  : }

  00056	8b 4d f4	 mov	 ecx, DWORD PTR __$EHRec$[ebp]
  00059	64 89 0d 00 00
	00 00		 mov	 DWORD PTR fs:0, ecx
  00060	59		 pop	 ecx
  00061	5e		 pop	 esi
  00062	8b e5		 mov	 esp, ebp
  00064	5d		 pop	 ebp
  00065	c3		 ret	 0
  00066	cc		 int	 3
  00067	cc		 int	 3
  00068	cc		 int	 3
  00069	cc		 int	 3
  0006a	cc		 int	 3
_TEXT	ENDS
;	COMDAT text$x
text$x	SEGMENT
__ehhandler$??1?$CList@PAUISkinColorSite@@PAU1@@@UAE@XZ:
  00000	90		 npad	 1
  00001	90		 npad	 1
  00002	8b 54 24 08	 mov	 edx, DWORD PTR [esp+8]
  00006	8d 42 0c	 lea	 eax, DWORD PTR [edx+12]
  00009	8b 4a f8	 mov	 ecx, DWORD PTR [edx-8]
  0000c	33 c8		 xor	 ecx, eax
  0000e	e8 00 00 00 00	 call	 @__security_check_cookie@4
  00013	b8 00 00 00 00	 mov	 eax, OFFSET __ehfuncinfo$??1?$CList@PAUISkinColorSite@@PAU1@@@UAE@XZ
  00018	e9 00 00 00 00	 jmp	 ___CxxFrameHandler3
text$x	ENDS
??1?$CList@PAUISkinColorSite@@PAU1@@@UAE@XZ ENDP	; CList<ISkinColorSite *,ISkinColorSite *>::~CList<ISkinColorSite *,ISkinColorSite *>
; Function compile flags: /Ogtp
; File C:\Program Files (x86)\Microsoft Visual Studio\2019\Community\VC\Tools\MSVC\14.29.30133\atlmfc\include\afxtempl.h
;	COMDAT ?FreeNode@?$CList@PAUISkinColorSite@@PAU1@@@IAEXPAUCNode@1@@Z
_TEXT	SEGMENT
_pNode$ = 8						; size = 4
?FreeNode@?$CList@PAUISkinColorSite@@PAU1@@@IAEXPAUCNode@1@@Z PROC ; CList<ISkinColorSite *,ISkinColorSite *>::FreeNode, COMDAT
; _this$ = ecx

; 936  : {

  00000	55		 push	 ebp
  00001	8b ec		 mov	 ebp, esp

; 937  : 	pNode->data.~TYPE();
; 938  : 	pNode->pNext = m_pNodeFree;

  00003	8b 55 08	 mov	 edx, DWORD PTR _pNode$[ebp]
  00006	56		 push	 esi
  00007	8b f1		 mov	 esi, ecx
  00009	8b 46 10	 mov	 eax, DWORD PTR [esi+16]
  0000c	89 02		 mov	 DWORD PTR [edx], eax

; 939  : 	m_pNodeFree = pNode;
; 940  : 	m_nCount--;

  0000e	83 46 0c ff	 add	 DWORD PTR [esi+12], -1
  00012	89 56 10	 mov	 DWORD PTR [esi+16], edx

; 941  : 	ASSERT(m_nCount >= 0);  // make sure we don't underflow
; 942  : 
; 943  : 	// if no more elements, cleanup completely
; 944  : 	if (m_nCount == 0)

  00015	75 2b		 jne	 SHORT $LN2@FreeNode

; 872  : 	m_pBlocks->FreeDataChain();

  00017	8b 4e 14	 mov	 ecx, DWORD PTR [esi+20]
  0001a	c7 46 0c 00 00
	00 00		 mov	 DWORD PTR [esi+12], 0
  00021	c7 46 10 00 00
	00 00		 mov	 DWORD PTR [esi+16], 0
  00028	c7 46 08 00 00
	00 00		 mov	 DWORD PTR [esi+8], 0
  0002f	c7 46 04 00 00
	00 00		 mov	 DWORD PTR [esi+4], 0
  00036	e8 00 00 00 00	 call	 ?FreeDataChain@CPlex@@QAEXXZ ; CPlex::FreeDataChain

; 873  : 	m_pBlocks = NULL;

  0003b	c7 46 14 00 00
	00 00		 mov	 DWORD PTR [esi+20], 0
$LN2@FreeNode:
  00042	5e		 pop	 esi

; 945  : 		RemoveAll();
; 946  : }

  00043	5d		 pop	 ebp
  00044	c2 04 00	 ret	 4
?FreeNode@?$CList@PAUISkinColorSite@@PAU1@@@IAEXPAUCNode@1@@Z ENDP ; CList<ISkinColorSite *,ISkinColorSite *>::FreeNode
_TEXT	ENDS
; Function compile flags: /Ogtp
; File C:\Program Files (x86)\Microsoft Visual Studio\2019\Community\VC\Tools\MSVC\14.29.30133\atlmfc\include\afxtempl.h
;	COMDAT ?NewNode@?$CList@PAUISkinColorSite@@PAU1@@@IAEPAUCNode@1@PAU21@0@Z
_TEXT	SEGMENT
_pPrev$ = 8						; size = 4
_pNext$ = 12						; size = 4
?NewNode@?$CList@PAUISkinColorSite@@PAU1@@@IAEPAUCNode@1@PAU21@0@Z PROC ; CList<ISkinColorSite *,ISkinColorSite *>::NewNode, COMDAT
; _this$ = ecx

; 901  : {

  00000	55		 push	 ebp
  00001	8b ec		 mov	 ebp, esp
  00003	56		 push	 esi
  00004	8b f1		 mov	 esi, ecx

; 902  : 	if (m_pNodeFree == NULL)

  00006	83 7e 10 00	 cmp	 DWORD PTR [esi+16], 0
  0000a	75 34		 jne	 SHORT $LN7@NewNode

; 903  : 	{
; 904  : 		// add another block
; 905  : 		CPlex* pNewBlock = CPlex::Create(m_pBlocks, m_nBlockSize,

  0000c	6a 0c		 push	 12			; 0000000cH
  0000e	ff 76 18	 push	 DWORD PTR [esi+24]
  00011	8d 46 14	 lea	 eax, DWORD PTR [esi+20]
  00014	50		 push	 eax
  00015	e8 00 00 00 00	 call	 ?Create@CPlex@@SGPAU1@AAPAU1@II@Z ; CPlex::Create

; 906  : 				 sizeof(CNode));
; 907  : 
; 908  : 		// chain them into free list
; 909  : 		CNode* pNode = (CNode*) pNewBlock->data();
; 910  : 		// free in reverse order to make it easier to debug
; 911  : 		pNode += m_nBlockSize - 1;

  0001a	8b 56 18	 mov	 edx, DWORD PTR [esi+24]
  0001d	83 c0 08	 add	 eax, 8
  00020	8d 0c 52	 lea	 ecx, DWORD PTR [edx+edx*2]
  00023	8d 04 88	 lea	 eax, DWORD PTR [eax+ecx*4]
  00026	83 c0 f4	 add	 eax, -12		; fffffff4H

; 912  : 		for (INT_PTR i = m_nBlockSize-1; i >= 0; i--, pNode--)

  00029	83 c2 ff	 add	 edx, -1
  0002c	78 12		 js	 SHORT $LN7@NewNode
  0002e	66 90		 npad	 2
$LL4@NewNode:

; 913  : 		{
; 914  : 			pNode->pNext = m_pNodeFree;

  00030	8b 4e 10	 mov	 ecx, DWORD PTR [esi+16]
  00033	89 08		 mov	 DWORD PTR [eax], ecx

; 915  : 			m_pNodeFree = pNode;

  00035	89 46 10	 mov	 DWORD PTR [esi+16], eax
  00038	83 e8 0c	 sub	 eax, 12			; 0000000cH
  0003b	83 ea 01	 sub	 edx, 1
  0003e	79 f0		 jns	 SHORT $LL4@NewNode
$LN7@NewNode:

; 916  : 		}
; 917  : 	}
; 918  : 	ENSURE(m_pNodeFree != NULL);  // we must have something

  00040	8b 46 10	 mov	 eax, DWORD PTR [esi+16]
  00043	85 c0		 test	 eax, eax
  00045	74 18		 je	 SHORT $LN17@NewNode

; 919  : 
; 920  : 	CList::CNode* pNode = m_pNodeFree;
; 921  : 	m_pNodeFree = m_pNodeFree->pNext;

  00047	8b 08		 mov	 ecx, DWORD PTR [eax]
  00049	89 4e 10	 mov	 DWORD PTR [esi+16], ecx

; 922  : 	pNode->pPrev = pPrev;

  0004c	8b 4d 08	 mov	 ecx, DWORD PTR _pPrev$[ebp]
  0004f	89 48 04	 mov	 DWORD PTR [eax+4], ecx

; 923  : 	pNode->pNext = pNext;

  00052	8b 4d 0c	 mov	 ecx, DWORD PTR _pNext$[ebp]
  00055	89 08		 mov	 DWORD PTR [eax], ecx

; 924  : 	m_nCount++;

  00057	ff 46 0c	 inc	 DWORD PTR [esi+12]

; 925  : 	ASSERT(m_nCount > 0);  // make sure we don't overflow
; 926  : 
; 927  : #pragma push_macro("new")
; 928  : #undef new
; 929  : 	::new( (void*)( &pNode->data ) ) TYPE;
; 930  : #pragma pop_macro("new")
; 931  : 	return pNode;

  0005a	5e		 pop	 esi

; 932  : }

  0005b	5d		 pop	 ebp
  0005c	c2 08 00	 ret	 8
$LN17@NewNode:

; 916  : 		}
; 917  : 	}
; 918  : 	ENSURE(m_pNodeFree != NULL);  // we must have something

  0005f	e8 00 00 00 00	 call	 ?AfxThrowInvalidArgException@@YGXXZ ; AfxThrowInvalidArgException
$LN15@NewNode:
  00064	cc		 int	 3
?NewNode@?$CList@PAUISkinColorSite@@PAU1@@@IAEPAUCNode@1@PAU21@0@Z ENDP ; CList<ISkinColorSite *,ISkinColorSite *>::NewNode
_TEXT	ENDS
; Function compile flags: /Ogtp
; File C:\Program Files (x86)\Microsoft Visual Studio\2019\Community\VC\Tools\MSVC\14.29.30133\atlmfc\include\afxtempl.h
;	COMDAT ?RemoveAt@?$CList@PAUISkinColorSite@@PAU1@@@QAEXPAU__POSITION@@@Z
_TEXT	SEGMENT
_position$ = 8						; size = 4
?RemoveAt@?$CList@PAUISkinColorSite@@PAU1@@@QAEXPAU__POSITION@@@Z PROC ; CList<ISkinColorSite *,ISkinColorSite *>::RemoveAt, COMDAT
; _this$ = ecx

; 1100 : {

  00000	55		 push	 ebp
  00001	8b ec		 mov	 ebp, esp
  00003	56		 push	 esi
  00004	8b f1		 mov	 esi, ecx

; 1101 : 	ASSERT_VALID(this);
; 1102 : 
; 1103 : 	CNode* pOldNode = (CNode*) position;
; 1104 : 	ASSERT(AfxIsValidAddress(pOldNode, sizeof(CNode)));
; 1105 : 
; 1106 : 	// remove pOldNode from list
; 1107 : 	if (pOldNode == m_pNodeHead)

  00006	8b 4d 08	 mov	 ecx, DWORD PTR _position$[ebp]
  00009	8b 11		 mov	 edx, DWORD PTR [ecx]
  0000b	3b 4e 04	 cmp	 ecx, DWORD PTR [esi+4]
  0000e	75 05		 jne	 SHORT $LN2@RemoveAt

; 1108 : 	{
; 1109 : 		m_pNodeHead = pOldNode->pNext;

  00010	89 56 04	 mov	 DWORD PTR [esi+4], edx

; 1110 : 	}

  00013	eb 05		 jmp	 SHORT $LN3@RemoveAt
$LN2@RemoveAt:

; 1111 : 	else
; 1112 : 	{
; 1113 : 		ASSERT(AfxIsValidAddress(pOldNode->pPrev, sizeof(CNode)));
; 1114 : 		pOldNode->pPrev->pNext = pOldNode->pNext;

  00015	8b 41 04	 mov	 eax, DWORD PTR [ecx+4]
  00018	89 10		 mov	 DWORD PTR [eax], edx
$LN3@RemoveAt:

; 1115 : 	}
; 1116 : 	if (pOldNode == m_pNodeTail)

  0001a	8b 51 04	 mov	 edx, DWORD PTR [ecx+4]
  0001d	3b 4e 08	 cmp	 ecx, DWORD PTR [esi+8]
  00020	75 05		 jne	 SHORT $LN4@RemoveAt

; 1117 : 	{
; 1118 : 		m_pNodeTail = pOldNode->pPrev;

  00022	89 56 08	 mov	 DWORD PTR [esi+8], edx

; 1119 : 	}

  00025	eb 05		 jmp	 SHORT $LN5@RemoveAt
$LN4@RemoveAt:

; 1120 : 	else
; 1121 : 	{
; 1122 : 		ASSERT(AfxIsValidAddress(pOldNode->pNext, sizeof(CNode)));
; 1123 : 		pOldNode->pNext->pPrev = pOldNode->pPrev;

  00027	8b 01		 mov	 eax, DWORD PTR [ecx]
  00029	89 50 04	 mov	 DWORD PTR [eax+4], edx
$LN5@RemoveAt:

; 938  : 	pNode->pNext = m_pNodeFree;

  0002c	8b 46 10	 mov	 eax, DWORD PTR [esi+16]
  0002f	89 01		 mov	 DWORD PTR [ecx], eax

; 939  : 	m_pNodeFree = pNode;
; 940  : 	m_nCount--;

  00031	83 46 0c ff	 add	 DWORD PTR [esi+12], -1
  00035	89 4e 10	 mov	 DWORD PTR [esi+16], ecx

; 941  : 	ASSERT(m_nCount >= 0);  // make sure we don't underflow
; 942  : 
; 943  : 	// if no more elements, cleanup completely
; 944  : 	if (m_nCount == 0)

  00038	75 2b		 jne	 SHORT $LN8@RemoveAt

; 872  : 	m_pBlocks->FreeDataChain();

  0003a	8b 4e 14	 mov	 ecx, DWORD PTR [esi+20]
  0003d	c7 46 0c 00 00
	00 00		 mov	 DWORD PTR [esi+12], 0
  00044	c7 46 10 00 00
	00 00		 mov	 DWORD PTR [esi+16], 0
  0004b	c7 46 08 00 00
	00 00		 mov	 DWORD PTR [esi+8], 0
  00052	c7 46 04 00 00
	00 00		 mov	 DWORD PTR [esi+4], 0
  00059	e8 00 00 00 00	 call	 ?FreeDataChain@CPlex@@QAEXXZ ; CPlex::FreeDataChain

; 873  : 	m_pBlocks = NULL;

  0005e	c7 46 14 00 00
	00 00		 mov	 DWORD PTR [esi+20], 0
$LN8@RemoveAt:
  00065	5e		 pop	 esi

; 1124 : 	}
; 1125 : 	FreeNode(pOldNode);
; 1126 : }

  00066	5d		 pop	 ebp
  00067	c2 04 00	 ret	 4
?RemoveAt@?$CList@PAUISkinColorSite@@PAU1@@@QAEXPAU__POSITION@@@Z ENDP ; CList<ISkinColorSite *,ISkinColorSite *>::RemoveAt
_TEXT	ENDS
; Function compile flags: /Ogtp
; File C:\Program Files (x86)\Microsoft Visual Studio\2019\Community\VC\Tools\MSVC\14.29.30133\atlmfc\include\afxtempl.h
;	COMDAT ?RemoveAll@?$CList@PAUISkinColorSite@@PAU1@@@QAEXXZ
_TEXT	SEGMENT
?RemoveAll@?$CList@PAUISkinColorSite@@PAU1@@@QAEXXZ PROC ; CList<ISkinColorSite *,ISkinColorSite *>::RemoveAll, COMDAT
; _this$ = ecx

; 862  : {

  00000	56		 push	 esi
  00001	8b f1		 mov	 esi, ecx

; 863  : 	ASSERT_VALID(this);
; 864  : 
; 865  : 	// destroy elements
; 866  : 	CNode* pNode;
; 867  : 	for (pNode = m_pNodeHead; pNode != NULL; pNode = pNode->pNext)
; 868  : 		pNode->data.~TYPE();
; 869  : 
; 870  : 	m_nCount = 0;
; 871  : 	m_pNodeHead = m_pNodeTail = m_pNodeFree = NULL;
; 872  : 	m_pBlocks->FreeDataChain();

  00003	8b 4e 14	 mov	 ecx, DWORD PTR [esi+20]
  00006	c7 46 0c 00 00
	00 00		 mov	 DWORD PTR [esi+12], 0
  0000d	c7 46 10 00 00
	00 00		 mov	 DWORD PTR [esi+16], 0
  00014	c7 46 08 00 00
	00 00		 mov	 DWORD PTR [esi+8], 0
  0001b	c7 46 04 00 00
	00 00		 mov	 DWORD PTR [esi+4], 0
  00022	e8 00 00 00 00	 call	 ?FreeDataChain@CPlex@@QAEXXZ ; CPlex::FreeDataChain

; 873  : 	m_pBlocks = NULL;

  00027	c7 46 14 00 00
	00 00		 mov	 DWORD PTR [esi+20], 0
  0002e	5e		 pop	 esi

; 874  : }

  0002f	c3		 ret	 0
?RemoveAll@?$CList@PAUISkinColorSite@@PAU1@@@QAEXXZ ENDP ; CList<ISkinColorSite *,ISkinColorSite *>::RemoveAll
_TEXT	ENDS
; Function compile flags: /Ogtp
; File C:\Program Files (x86)\Microsoft Visual Studio\2019\Community\VC\Tools\MSVC\14.29.30133\atlmfc\include\afxtempl.h
;	COMDAT ?AddTail@?$CList@PAUISkinColorSite@@PAU1@@@QAEPAU__POSITION@@PAUISkinColorSite@@@Z
_TEXT	SEGMENT
_newElement$ = 8					; size = 4
?AddTail@?$CList@PAUISkinColorSite@@PAU1@@@QAEPAU__POSITION@@PAUISkinColorSite@@@Z PROC ; CList<ISkinColorSite *,ISkinColorSite *>::AddTail, COMDAT
; _this$ = ecx

; 965  : {

  00000	55		 push	 ebp
  00001	8b ec		 mov	 ebp, esp
  00003	56		 push	 esi
  00004	8b f1		 mov	 esi, ecx
  00006	57		 push	 edi

; 902  : 	if (m_pNodeFree == NULL)

  00007	83 7e 10 00	 cmp	 DWORD PTR [esi+16], 0

; 966  : 	ASSERT_VALID(this);
; 967  : 
; 968  : 	CNode* pNewNode = NewNode(m_pNodeTail, NULL);

  0000b	8b 7e 08	 mov	 edi, DWORD PTR [esi+8]

; 902  : 	if (m_pNodeFree == NULL)

  0000e	75 32		 jne	 SHORT $LN11@AddTail

; 903  : 	{
; 904  : 		// add another block
; 905  : 		CPlex* pNewBlock = CPlex::Create(m_pBlocks, m_nBlockSize,

  00010	6a 0c		 push	 12			; 0000000cH
  00012	ff 76 18	 push	 DWORD PTR [esi+24]
  00015	8d 46 14	 lea	 eax, DWORD PTR [esi+20]
  00018	50		 push	 eax
  00019	e8 00 00 00 00	 call	 ?Create@CPlex@@SGPAU1@AAPAU1@II@Z ; CPlex::Create

; 906  : 				 sizeof(CNode));
; 907  : 
; 908  : 		// chain them into free list
; 909  : 		CNode* pNode = (CNode*) pNewBlock->data();
; 910  : 		// free in reverse order to make it easier to debug
; 911  : 		pNode += m_nBlockSize - 1;

  0001e	8b 56 18	 mov	 edx, DWORD PTR [esi+24]
  00021	83 c0 08	 add	 eax, 8
  00024	8d 4a ff	 lea	 ecx, DWORD PTR [edx-1]

; 912  : 		for (INT_PTR i = m_nBlockSize-1; i >= 0; i--, pNode--)

  00027	83 c2 ff	 add	 edx, -1
  0002a	8d 0c 49	 lea	 ecx, DWORD PTR [ecx+ecx*2]
  0002d	8d 0c 88	 lea	 ecx, DWORD PTR [eax+ecx*4]
  00030	78 10		 js	 SHORT $LN11@AddTail
$LL8@AddTail:

; 913  : 		{
; 914  : 			pNode->pNext = m_pNodeFree;

  00032	8b 46 10	 mov	 eax, DWORD PTR [esi+16]
  00035	89 01		 mov	 DWORD PTR [ecx], eax

; 915  : 			m_pNodeFree = pNode;

  00037	89 4e 10	 mov	 DWORD PTR [esi+16], ecx
  0003a	83 e9 0c	 sub	 ecx, 12			; 0000000cH
  0003d	83 ea 01	 sub	 edx, 1
  00040	79 f0		 jns	 SHORT $LL8@AddTail
$LN11@AddTail:

; 916  : 		}
; 917  : 	}
; 918  : 	ENSURE(m_pNodeFree != NULL);  // we must have something

  00042	8b 4e 10	 mov	 ecx, DWORD PTR [esi+16]
  00045	85 c9		 test	 ecx, ecx
  00047	74 39		 je	 SHORT $LN22@AddTail

; 919  : 
; 920  : 	CList::CNode* pNode = m_pNodeFree;
; 921  : 	m_pNodeFree = m_pNodeFree->pNext;

  00049	8b 01		 mov	 eax, DWORD PTR [ecx]
  0004b	89 46 10	 mov	 DWORD PTR [esi+16], eax

; 969  : 	pNewNode->data = newElement;

  0004e	8b 45 08	 mov	 eax, DWORD PTR _newElement$[ebp]

; 922  : 	pNode->pPrev = pPrev;

  00051	89 79 04	 mov	 DWORD PTR [ecx+4], edi

; 923  : 	pNode->pNext = pNext;

  00054	c7 01 00 00 00
	00		 mov	 DWORD PTR [ecx], 0

; 924  : 	m_nCount++;

  0005a	ff 46 0c	 inc	 DWORD PTR [esi+12]

; 969  : 	pNewNode->data = newElement;

  0005d	89 41 08	 mov	 DWORD PTR [ecx+8], eax

; 970  : 	if (m_pNodeTail != NULL)

  00060	8b 46 08	 mov	 eax, DWORD PTR [esi+8]
  00063	85 c0		 test	 eax, eax
  00065	74 0d		 je	 SHORT $LN2@AddTail

; 971  : 		m_pNodeTail->pNext = pNewNode;

  00067	89 08		 mov	 DWORD PTR [eax], ecx

; 972  : 	else
; 973  : 		m_pNodeHead = pNewNode;
; 974  : 	m_pNodeTail = pNewNode;
; 975  : 	return (POSITION) pNewNode;

  00069	8b c1		 mov	 eax, ecx
  0006b	5f		 pop	 edi
  0006c	89 4e 08	 mov	 DWORD PTR [esi+8], ecx
  0006f	5e		 pop	 esi

; 976  : }

  00070	5d		 pop	 ebp
  00071	c2 04 00	 ret	 4
$LN2@AddTail:

; 972  : 	else
; 973  : 		m_pNodeHead = pNewNode;
; 974  : 	m_pNodeTail = pNewNode;
; 975  : 	return (POSITION) pNewNode;

  00074	5f		 pop	 edi
  00075	89 4e 04	 mov	 DWORD PTR [esi+4], ecx
  00078	8b c1		 mov	 eax, ecx
  0007a	89 4e 08	 mov	 DWORD PTR [esi+8], ecx
  0007d	5e		 pop	 esi

; 976  : }

  0007e	5d		 pop	 ebp
  0007f	c2 04 00	 ret	 4
$LN22@AddTail:

; 918  : 	ENSURE(m_pNodeFree != NULL);  // we must have something

  00082	e8 00 00 00 00	 call	 ?AfxThrowInvalidArgException@@YGXXZ ; AfxThrowInvalidArgException
$LN20@AddTail:
  00087	cc		 int	 3
?AddTail@?$CList@PAUISkinColorSite@@PAU1@@@QAEPAU__POSITION@@PAUISkinColorSite@@@Z ENDP ; CList<ISkinColorSite *,ISkinColorSite *>::AddTail
_TEXT	ENDS
; Function compile flags: /Ogtp
; File C:\Program Files (x86)\Microsoft Visual Studio\2019\Community\VC\Tools\MSVC\14.29.30133\atlmfc\include\afxtempl.h
;	COMDAT ??0?$CList@PAUISkinColorSite@@PAU1@@@QAE@H@Z
_TEXT	SEGMENT
_nBlockSize$ = 8					; size = 4
??0?$CList@PAUISkinColorSite@@PAU1@@@QAE@H@Z PROC	; CList<ISkinColorSite *,ISkinColorSite *>::CList<ISkinColorSite *,ISkinColorSite *>, COMDAT
; _this$ = ecx

; 851  : {

  00000	55		 push	 ebp
  00001	8b ec		 mov	 ebp, esp

; 852  : 	ASSERT(nBlockSize > 0);
; 853  : 
; 854  : 	m_nCount = 0;
; 855  : 	m_pNodeHead = m_pNodeTail = m_pNodeFree = NULL;
; 856  : 	m_pBlocks = NULL;
; 857  : 	m_nBlockSize = nBlockSize;

  00003	8b 45 08	 mov	 eax, DWORD PTR _nBlockSize$[ebp]
  00006	89 41 18	 mov	 DWORD PTR [ecx+24], eax

; 858  : }

  00009	8b c1		 mov	 eax, ecx
  0000b	c7 01 00 00 00
	00		 mov	 DWORD PTR [ecx], OFFSET ??_7?$CList@PAUISkinColorSite@@PAU1@@@6B@
  00011	c7 41 0c 00 00
	00 00		 mov	 DWORD PTR [ecx+12], 0
  00018	c7 41 10 00 00
	00 00		 mov	 DWORD PTR [ecx+16], 0
  0001f	c7 41 08 00 00
	00 00		 mov	 DWORD PTR [ecx+8], 0
  00026	c7 41 04 00 00
	00 00		 mov	 DWORD PTR [ecx+4], 0
  0002d	c7 41 14 00 00
	00 00		 mov	 DWORD PTR [ecx+20], 0
  00034	5d		 pop	 ebp
  00035	c2 04 00	 ret	 4
??0?$CList@PAUISkinColorSite@@PAU1@@@QAE@H@Z ENDP	; CList<ISkinColorSite *,ISkinColorSite *>::CList<ISkinColorSite *,ISkinColorSite *>
_TEXT	ENDS
; Function compile flags: /Ogtp
; File C:\Program Files (x86)\Microsoft Visual Studio\2019\Community\VC\Tools\MSVC\14.29.30133\atlmfc\include\afx.inl
;	COMDAT ??_G?$CArray@U_tabUserColorTable@@U1@@@UAEPAXI@Z
_TEXT	SEGMENT
___flags$ = 8						; size = 4
??_G?$CArray@U_tabUserColorTable@@U1@@@UAEPAXI@Z PROC	; CArray<_tabUserColorTable,_tabUserColorTable>::`scalar deleting destructor', COMDAT
; _this$ = ecx
  00000	55		 push	 ebp
  00001	8b ec		 mov	 ebp, esp
  00003	56		 push	 esi
  00004	8b f1		 mov	 esi, ecx
  00006	e8 00 00 00 00	 call	 ??1?$CArray@U_tabUserColorTable@@U1@@@UAE@XZ ; CArray<_tabUserColorTable,_tabUserColorTable>::~CArray<_tabUserColorTable,_tabUserColorTable>
  0000b	8b 45 08	 mov	 eax, DWORD PTR ___flags$[ebp]
  0000e	a8 01		 test	 al, 1
  00010	74 1f		 je	 SHORT $LN9@scalar
  00012	a8 04		 test	 al, 4
  00014	75 10		 jne	 SHORT $LN3@scalar

; 112  : 	{ ::operator delete(p); }

  00016	56		 push	 esi
  00017	e8 00 00 00 00	 call	 ??3@YAXPAX@Z		; operator delete
  0001c	83 c4 04	 add	 esp, 4
  0001f	8b c6		 mov	 eax, esi
  00021	5e		 pop	 esi
  00022	5d		 pop	 ebp
  00023	c2 04 00	 ret	 4
$LN3@scalar:
  00026	6a 14		 push	 20			; 00000014H
  00028	56		 push	 esi
  00029	e8 00 00 00 00	 call	 ?__global_delete@@YAXPAXI@Z ; __global_delete
  0002e	83 c4 08	 add	 esp, 8
$LN9@scalar:
  00031	8b c6		 mov	 eax, esi
  00033	5e		 pop	 esi
  00034	5d		 pop	 ebp
  00035	c2 04 00	 ret	 4
??_G?$CArray@U_tabUserColorTable@@U1@@@UAEPAXI@Z ENDP	; CArray<_tabUserColorTable,_tabUserColorTable>::`scalar deleting destructor'
_TEXT	ENDS
; Function compile flags: /Ogtp
; File C:\Program Files (x86)\Microsoft Visual Studio\2019\Community\VC\Tools\MSVC\14.29.30133\atlmfc\include\afxtempl.h
; File C:\Program Files (x86)\Microsoft Visual Studio\2019\Community\VC\Tools\MSVC\14.29.30133\atlmfc\include\afx.inl
; File C:\Program Files (x86)\Microsoft Visual Studio\2019\Community\VC\Tools\MSVC\14.29.30133\atlmfc\include\afxtempl.h
; File C:\Program Files (x86)\Microsoft Visual Studio\2019\Community\VC\Tools\MSVC\14.29.30133\atlmfc\include\afx.inl
; File C:\Program Files (x86)\Microsoft Visual Studio\2019\Community\VC\Tools\MSVC\14.29.30133\atlmfc\include\afxtempl.h
; File C:\Program Files (x86)\Microsoft Visual Studio\2019\Community\VC\Tools\MSVC\14.29.30133\atlmfc\include\afx.inl
; File C:\Program Files (x86)\Microsoft Visual Studio\2019\Community\VC\Tools\MSVC\14.29.30133\atlmfc\include\afxtempl.h
; File C:\Program Files (x86)\Microsoft Visual Studio\2019\Community\VC\Tools\MSVC\14.29.30133\atlmfc\include\afx.inl
; File C:\Program Files (x86)\Microsoft Visual Studio\2019\Community\VC\Tools\MSVC\14.29.30133\atlmfc\include\afxtempl.h
;	COMDAT ?Serialize@?$CArray@U_tabUserColorTable@@U1@@@UAEXAAVCArchive@@@Z
_TEXT	SEGMENT
_pData$1$ = -4						; size = 4
_ar$ = 8						; size = 4
?Serialize@?$CArray@U_tabUserColorTable@@U1@@@UAEXAAVCArchive@@@Z PROC ; CArray<_tabUserColorTable,_tabUserColorTable>::Serialize, COMDAT
; _this$ = ecx

; 633  : {

  00000	55		 push	 ebp
  00001	8b ec		 mov	 ebp, esp
  00003	51		 push	 ecx
  00004	53		 push	 ebx
  00005	56		 push	 esi
  00006	57		 push	 edi
  00007	8b f9		 mov	 edi, ecx
; File C:\Program Files (x86)\Microsoft Visual Studio\2019\Community\VC\Tools\MSVC\14.29.30133\atlmfc\include\afx.inl

; 212  : 	{ return (m_nMode & CArchive::load) == 0; }

  00009	8b 4d 08	 mov	 ecx, DWORD PTR _ar$[ebp]
  0000c	8b 41 18	 mov	 eax, DWORD PTR [ecx+24]
  0000f	f7 d0		 not	 eax
  00011	a8 01		 test	 al, 1
; File C:\Program Files (x86)\Microsoft Visual Studio\2019\Community\VC\Tools\MSVC\14.29.30133\atlmfc\include\afxtempl.h

; 637  : 	if (ar.IsStoring())

  00013	74 0a		 je	 SHORT $LN2@Serialize

; 638  : 	{
; 639  : 		ar.WriteCount(m_nSize);

  00015	ff 77 08	 push	 DWORD PTR [edi+8]
  00018	e8 00 00 00 00	 call	 ?WriteCount@CArchive@@QAEXK@Z ; CArchive::WriteCount

; 640  : 	}

  0001d	eb 0f		 jmp	 SHORT $LN3@Serialize
$LN2@Serialize:

; 641  : 	else
; 642  : 	{
; 643  : 		DWORD_PTR nOldSize = ar.ReadCount();

  0001f	e8 00 00 00 00	 call	 ?ReadCount@CArchive@@QAEKXZ ; CArchive::ReadCount

; 644  : 		SetSize(nOldSize, -1);

  00024	6a ff		 push	 -1
  00026	50		 push	 eax
  00027	8b cf		 mov	 ecx, edi
  00029	e8 00 00 00 00	 call	 ?SetSize@?$CArray@U_tabUserColorTable@@U1@@@QAEXHH@Z ; CArray<_tabUserColorTable,_tabUserColorTable>::SetSize
$LN3@Serialize:

; 645  : 	}
; 646  : 	SerializeElements<TYPE>(ar, m_pData, m_nSize);

  0002e	8b 77 08	 mov	 esi, DWORD PTR [edi+8]
  00031	8b 4f 04	 mov	 ecx, DWORD PTR [edi+4]
  00034	89 4d fc	 mov	 DWORD PTR _pData$1$[ebp], ecx

; 68   : 	ENSURE(nCount == 0 || pElements != NULL);

  00037	85 f6		 test	 esi, esi
  00039	74 08		 je	 SHORT $LN8@Serialize
  0003b	85 c9		 test	 ecx, ecx
  0003d	0f 84 8c 00 00
	00		 je	 $LN40@Serialize
$LN8@Serialize:
; File C:\Program Files (x86)\Microsoft Visual Studio\2019\Community\VC\Tools\MSVC\14.29.30133\atlmfc\include\afx.inl

; 212  : 	{ return (m_nMode & CArchive::load) == 0; }

  00043	8b 55 08	 mov	 edx, DWORD PTR _ar$[ebp]
  00046	8b 42 18	 mov	 eax, DWORD PTR [edx+24]
  00049	f7 d0		 not	 eax
  0004b	a8 01		 test	 al, 1
; File C:\Program Files (x86)\Microsoft Visual Studio\2019\Community\VC\Tools\MSVC\14.29.30133\atlmfc\include\afxtempl.h

; 73   : 	if (ar.IsStoring())

  0004d	74 36		 je	 SHORT $LN16@Serialize

; 74   : 	{
; 75   : 		TYPE* pData;
; 76   : 		UINT_PTR nElementsLeft;
; 77   : 
; 78   : 		nElementsLeft = nCount;
; 79   : 		pData = pElements;
; 80   : 		while( nElementsLeft > 0 )

  0004f	85 f6		 test	 esi, esi
  00051	74 29		 je	 SHORT $LN14@Serialize
$LL11@Serialize:

; 81   : 		{
; 82   : 			UINT nElementsToWrite;
; 83   : 
; 84   : 			nElementsToWrite = UINT(__min(nElementsLeft, INT_MAX/sizeof(TYPE)));

  00053	bb ff ff ff 0f	 mov	 ebx, 268435455		; 0fffffffH
  00058	3b f3		 cmp	 esi, ebx
  0005a	0f 42 de	 cmovb	 ebx, esi

; 85   : 			ar.Write(pData, nElementsToWrite*sizeof(TYPE));

  0005d	8d 3c dd 00 00
	00 00		 lea	 edi, DWORD PTR [ebx*8]
  00064	57		 push	 edi
  00065	51		 push	 ecx
  00066	8b ca		 mov	 ecx, edx
  00068	e8 00 00 00 00	 call	 ?Write@CArchive@@QAEXPBXI@Z ; CArchive::Write

; 86   : 			nElementsLeft -= nElementsToWrite;
; 87   : 			pData += nElementsToWrite;

  0006d	8b 4d fc	 mov	 ecx, DWORD PTR _pData$1$[ebp]
  00070	8b 55 08	 mov	 edx, DWORD PTR _ar$[ebp]
  00073	03 cf		 add	 ecx, edi
  00075	89 4d fc	 mov	 DWORD PTR _pData$1$[ebp], ecx
  00078	2b f3		 sub	 esi, ebx
  0007a	75 d7		 jne	 SHORT $LL11@Serialize
$LN14@Serialize:
  0007c	5f		 pop	 edi

; 647  : }

  0007d	5e		 pop	 esi
  0007e	5b		 pop	 ebx
  0007f	8b e5		 mov	 esp, ebp
  00081	5d		 pop	 ebp
  00082	c2 04 00	 ret	 4
$LN16@Serialize:

; 97   : 		while( nElementsLeft > 0 )

  00085	85 f6		 test	 esi, esi
  00087	74 f3		 je	 SHORT $LN14@Serialize
  00089	0f 1f 80 00 00
	00 00		 npad	 7
$LL13@Serialize:

; 98   : 		{
; 99   : 			UINT nElementsToRead;
; 100  : 
; 101  : 			nElementsToRead = UINT(__min(nElementsLeft, INT_MAX/sizeof(TYPE)));

  00090	bf ff ff ff 0f	 mov	 edi, 268435455		; 0fffffffH
  00095	3b f7		 cmp	 esi, edi
  00097	0f 42 fe	 cmovb	 edi, esi

; 102  : 			ar.EnsureRead(pData, nElementsToRead*sizeof(TYPE));

  0009a	8d 1c fd 00 00
	00 00		 lea	 ebx, DWORD PTR [edi*8]
; File C:\Program Files (x86)\Microsoft Visual Studio\2019\Community\VC\Tools\MSVC\14.29.30133\atlmfc\include\afx.inl

; 399  : 	UINT nRead=Read(lpBuf, nCount);

  000a1	53		 push	 ebx
  000a2	51		 push	 ecx
  000a3	8b ca		 mov	 ecx, edx
  000a5	e8 00 00 00 00	 call	 ?Read@CArchive@@QAEIPAXI@Z ; CArchive::Read

; 400  : 	if(nRead!=nCount)

  000aa	3b c3		 cmp	 eax, ebx
  000ac	75 18		 jne	 SHORT $LN30@Serialize
; File C:\Program Files (x86)\Microsoft Visual Studio\2019\Community\VC\Tools\MSVC\14.29.30133\atlmfc\include\afxtempl.h

; 97   : 		while( nElementsLeft > 0 )

  000ae	8b 4d fc	 mov	 ecx, DWORD PTR _pData$1$[ebp]
  000b1	8b 55 08	 mov	 edx, DWORD PTR _ar$[ebp]

; 103  : 			nElementsLeft -= nElementsToRead;
; 104  : 			pData += nElementsToRead;

  000b4	03 cb		 add	 ecx, ebx
  000b6	89 4d fc	 mov	 DWORD PTR _pData$1$[ebp], ecx
  000b9	2b f7		 sub	 esi, edi
  000bb	75 d3		 jne	 SHORT $LL13@Serialize

; 647  : }

  000bd	5f		 pop	 edi
  000be	5e		 pop	 esi
  000bf	5b		 pop	 ebx
  000c0	8b e5		 mov	 esp, ebp
  000c2	5d		 pop	 ebp
  000c3	c2 04 00	 ret	 4
$LN30@Serialize:
; File C:\Program Files (x86)\Microsoft Visual Studio\2019\Community\VC\Tools\MSVC\14.29.30133\atlmfc\include\afx.inl

; 402  : 		AfxThrowArchiveException(CArchiveException::endOfFile);

  000c6	6a 00		 push	 0
  000c8	6a 03		 push	 3
  000ca	e8 00 00 00 00	 call	 ?AfxThrowArchiveException@@YGXHPBD@Z ; AfxThrowArchiveException
$LN40@Serialize:
; File C:\Program Files (x86)\Microsoft Visual Studio\2019\Community\VC\Tools\MSVC\14.29.30133\atlmfc\include\afxtempl.h

; 68   : 	ENSURE(nCount == 0 || pElements != NULL);

  000cf	e8 00 00 00 00	 call	 ?AfxThrowInvalidArgException@@YGXXZ ; AfxThrowInvalidArgException
$LN38@Serialize:
  000d4	cc		 int	 3
?Serialize@?$CArray@U_tabUserColorTable@@U1@@@UAEXAAVCArchive@@@Z ENDP ; CArray<_tabUserColorTable,_tabUserColorTable>::Serialize
_TEXT	ENDS
; Function compile flags: /Ogtp
; File C:\Program Files (x86)\Microsoft Visual Studio\2019\Community\VC\Tools\MSVC\14.29.30133\atlmfc\include\afxtempl.h
;	COMDAT ??1?$CArray@U_tabUserColorTable@@U1@@@UAE@XZ
_TEXT	SEGMENT
??1?$CArray@U_tabUserColorTable@@U1@@@UAE@XZ PROC	; CArray<_tabUserColorTable,_tabUserColorTable>::~CArray<_tabUserColorTable,_tabUserColorTable>, COMDAT
; _this$ = ecx

; 355  : {

  00000	57		 push	 edi
  00001	8b f9		 mov	 edi, ecx

; 356  : 	ASSERT_VALID(this);
; 357  : 
; 358  : 	if (m_pData != NULL)

  00003	8b 47 04	 mov	 eax, DWORD PTR [edi+4]
  00006	c7 07 00 00 00
	00		 mov	 DWORD PTR [edi], OFFSET ??_7?$CArray@U_tabUserColorTable@@U1@@@6B@
  0000c	85 c0		 test	 eax, eax
  0000e	74 2f		 je	 SHORT $LN5@CArray

; 359  : 	{
; 360  : 		for( int i = 0; i < m_nSize; i++ )

  00010	56		 push	 esi
  00011	33 f6		 xor	 esi, esi
  00013	39 77 08	 cmp	 DWORD PTR [edi+8], esi
  00016	7e 1d		 jle	 SHORT $LN3@CArray
  00018	0f 1f 84 00 00
	00 00 00	 npad	 8
$LL4@CArray:

; 361  : 			(m_pData + i)->~TYPE();

  00020	8b 47 04	 mov	 eax, DWORD PTR [edi+4]
  00023	8d 0c f0	 lea	 ecx, DWORD PTR [eax+esi*8]
  00026	ff 15 00 00 00
	00		 call	 DWORD PTR __imp_??1?$CStringT@DV?$StrTraitMFC_DLL@DV?$ChTraitsCRT@D@ATL@@@@@ATL@@QAE@XZ
  0002c	46		 inc	 esi
  0002d	3b 77 08	 cmp	 esi, DWORD PTR [edi+8]
  00030	7c ee		 jl	 SHORT $LL4@CArray
  00032	8b 47 04	 mov	 eax, DWORD PTR [edi+4]
$LN3@CArray:

; 362  : 		delete[] (BYTE*)m_pData;

  00035	50		 push	 eax
  00036	e8 00 00 00 00	 call	 ??_V@YAXPAX@Z		; operator delete[]
  0003b	83 c4 04	 add	 esp, 4
  0003e	5e		 pop	 esi
$LN5@CArray:

; 363  : 	}
; 364  : }

  0003f	5f		 pop	 edi
  00040	c3		 ret	 0
??1?$CArray@U_tabUserColorTable@@U1@@@UAE@XZ ENDP	; CArray<_tabUserColorTable,_tabUserColorTable>::~CArray<_tabUserColorTable,_tabUserColorTable>
_TEXT	ENDS
; Function compile flags: /Ogtp
; File C:\Program Files (x86)\Microsoft Visual Studio\2019\Community\VC\Tools\MSVC\14.29.30133\atlmfc\include\afxtempl.h
;	COMDAT ?RemoveAll@?$CArray@U_tabUserColorTable@@U1@@@QAEXXZ
_TEXT	SEGMENT
?RemoveAll@?$CArray@U_tabUserColorTable@@U1@@@QAEXXZ PROC ; CArray<_tabUserColorTable,_tabUserColorTable>::RemoveAll, COMDAT
; _this$ = ecx

; 283  : 	{ SetSize(0, -1); }

  00000	56		 push	 esi
  00001	8b f1		 mov	 esi, ecx

; 381  : 		if (m_pData != NULL)

  00003	8b 46 04	 mov	 eax, DWORD PTR [esi+4]
  00006	85 c0		 test	 eax, eax
  00008	74 2e		 je	 SHORT $LN76@RemoveAll

; 382  : 		{
; 383  : 			for( int i = 0; i < m_nSize; i++ )

  0000a	57		 push	 edi
  0000b	33 ff		 xor	 edi, edi
  0000d	39 7e 08	 cmp	 DWORD PTR [esi+8], edi
  00010	7e 15		 jle	 SHORT $LN5@RemoveAll
$LL6@RemoveAll:

; 384  : 				(m_pData + i)->~TYPE();

  00012	8b 46 04	 mov	 eax, DWORD PTR [esi+4]
  00015	8d 0c f8	 lea	 ecx, DWORD PTR [eax+edi*8]
  00018	ff 15 00 00 00
	00		 call	 DWORD PTR __imp_??1?$CStringT@DV?$StrTraitMFC_DLL@DV?$ChTraitsCRT@D@ATL@@@@@ATL@@QAE@XZ

; 382  : 		{
; 383  : 			for( int i = 0; i < m_nSize; i++ )

  0001e	47		 inc	 edi
  0001f	3b 7e 08	 cmp	 edi, DWORD PTR [esi+8]
  00022	7c ee		 jl	 SHORT $LL6@RemoveAll
  00024	8b 46 04	 mov	 eax, DWORD PTR [esi+4]
$LN5@RemoveAll:

; 385  : 			delete[] (BYTE*)m_pData;

  00027	50		 push	 eax
  00028	e8 00 00 00 00	 call	 ??_V@YAXPAX@Z		; operator delete[]
  0002d	83 c4 04	 add	 esp, 4

; 386  : 			m_pData = NULL;

  00030	c7 46 04 00 00
	00 00		 mov	 DWORD PTR [esi+4], 0

; 387  : 		}
; 388  : 		m_nSize = m_nMaxSize = 0;

  00037	5f		 pop	 edi
$LN76@RemoveAll:

; 283  : 	{ SetSize(0, -1); }

  00038	c7 46 08 00 00
	00 00		 mov	 DWORD PTR [esi+8], 0
  0003f	c7 46 0c 00 00
	00 00		 mov	 DWORD PTR [esi+12], 0
  00046	5e		 pop	 esi
  00047	c3		 ret	 0
?RemoveAll@?$CArray@U_tabUserColorTable@@U1@@@QAEXXZ ENDP ; CArray<_tabUserColorTable,_tabUserColorTable>::RemoveAll
_TEXT	ENDS
; Function compile flags: /Ogtp
; File C:\Program Files (x86)\Microsoft Visual Studio\2019\Community\VC\Tools\MSVC\14.29.30133\atlmfc\include\afxtempl.h
; File C:\Program Files (x86)\Windows Kits\10\Include\10.0.22000.0\ucrt\corecrt_memcpy_s.h
; File C:\Program Files (x86)\Microsoft Visual Studio\2019\Community\VC\Tools\MSVC\14.29.30133\atlmfc\include\atlchecked.h
; File C:\Program Files (x86)\Microsoft Visual Studio\2019\Community\VC\Tools\MSVC\14.29.30133\atlmfc\include\afxtempl.h
; File C:\Program Files (x86)\Windows Kits\10\Include\10.0.22000.0\ucrt\corecrt_memcpy_s.h
; File C:\Program Files (x86)\Microsoft Visual Studio\2019\Community\VC\Tools\MSVC\14.29.30133\atlmfc\include\afxtempl.h
;	COMDAT ?SetSize@?$CArray@U_tabUserColorTable@@U1@@@QAEXHH@Z
_TEXT	SEGMENT
__N$1$ = -12						; size = 4
__S2$1$ = -8						; size = 4
_nNewMax$1$ = -4					; size = 4
__S1max$1$ = 8						; size = 4
_i$1$ = 8						; size = 4
_nAllocSize$1$ = 8					; size = 4
_nNewSize$ = 8						; size = 4
_pNewData$1$ = 12					; size = 4
_nGrowBy$ = 12						; size = 4
?SetSize@?$CArray@U_tabUserColorTable@@U1@@@QAEXHH@Z PROC ; CArray<_tabUserColorTable,_tabUserColorTable>::SetSize, COMDAT
; _this$ = ecx

; 368  : {

  00000	55		 push	 ebp
  00001	8b ec		 mov	 ebp, esp
  00003	83 ec 0c	 sub	 esp, 12			; 0000000cH
  00006	53		 push	 ebx
  00007	8b 5d 08	 mov	 ebx, DWORD PTR _nNewSize$[ebp]
  0000a	56		 push	 esi
  0000b	57		 push	 edi
  0000c	8b f9		 mov	 edi, ecx

; 369  : 	ASSERT_VALID(this);
; 370  : 	ASSERT(nNewSize >= 0);
; 371  : 
; 372  : 	if(nNewSize < 0 )

  0000e	85 db		 test	 ebx, ebx
  00010	0f 88 93 02 00
	00		 js	 $LN91@SetSize

; 373  : 		AfxThrowInvalidArgException();
; 374  : 
; 375  : 	if (nGrowBy >= 0)

  00016	8b 45 0c	 mov	 eax, DWORD PTR _nGrowBy$[ebp]
  00019	85 c0		 test	 eax, eax
  0001b	78 03		 js	 SHORT $LN90@SetSize

; 376  : 		m_nGrowBy = nGrowBy;  // set new size

  0001d	89 47 10	 mov	 DWORD PTR [edi+16], eax
$LN90@SetSize:

; 377  : 
; 378  : 	if (nNewSize == 0)

  00020	8b 57 04	 mov	 edx, DWORD PTR [edi+4]
  00023	85 db		 test	 ebx, ebx
  00025	75 47		 jne	 SHORT $LN19@SetSize

; 379  : 	{
; 380  : 		// shrink to nothing
; 381  : 		if (m_pData != NULL)

  00027	85 d2		 test	 edx, edx
  00029	74 2c		 je	 SHORT $LN21@SetSize

; 382  : 		{
; 383  : 			for( int i = 0; i < m_nSize; i++ )

  0002b	33 f6		 xor	 esi, esi
  0002d	39 77 08	 cmp	 DWORD PTR [edi+8], esi
  00030	7e 15		 jle	 SHORT $LN3@SetSize
$LL4@SetSize:

; 384  : 				(m_pData + i)->~TYPE();

  00032	8b 47 04	 mov	 eax, DWORD PTR [edi+4]
  00035	8d 0c f0	 lea	 ecx, DWORD PTR [eax+esi*8]
  00038	ff 15 00 00 00
	00		 call	 DWORD PTR __imp_??1?$CStringT@DV?$StrTraitMFC_DLL@DV?$ChTraitsCRT@D@ATL@@@@@ATL@@QAE@XZ
  0003e	46		 inc	 esi
  0003f	3b 77 08	 cmp	 esi, DWORD PTR [edi+8]
  00042	7c ee		 jl	 SHORT $LL4@SetSize
  00044	8b 57 04	 mov	 edx, DWORD PTR [edi+4]
$LN3@SetSize:

; 385  : 			delete[] (BYTE*)m_pData;

  00047	52		 push	 edx
  00048	e8 00 00 00 00	 call	 ??_V@YAXPAX@Z		; operator delete[]
  0004d	83 c4 04	 add	 esp, 4

; 386  : 			m_pData = NULL;

  00050	c7 47 04 00 00
	00 00		 mov	 DWORD PTR [edi+4], 0
$LN21@SetSize:

; 387  : 		}
; 388  : 		m_nSize = m_nMaxSize = 0;

  00057	c7 47 0c 00 00
	00 00		 mov	 DWORD PTR [edi+12], 0
  0005e	c7 47 08 00 00
	00 00		 mov	 DWORD PTR [edi+8], 0
  00065	5f		 pop	 edi

; 474  : 	}
; 475  : }

  00066	5e		 pop	 esi
  00067	5b		 pop	 ebx
  00068	8b e5		 mov	 esp, ebp
  0006a	5d		 pop	 ebp
  0006b	c2 08 00	 ret	 8
$LN19@SetSize:

; 389  : 	}
; 390  : 	else if (m_pData == NULL)

  0006e	85 d2		 test	 edx, edx
  00070	75 51		 jne	 SHORT $LN22@SetSize

; 391  : 	{
; 392  : 		// create buffer big enough to hold number of requested elements or
; 393  : 		// m_nGrowBy elements, whichever is larger.
; 394  : #ifdef SIZE_T_MAX
; 395  : 		ASSERT(nNewSize <= SIZE_T_MAX/sizeof(TYPE));    // no overflow
; 396  : #endif
; 397  : 		size_t nAllocSize = __max(nNewSize, m_nGrowBy);

  00072	8b 47 10	 mov	 eax, DWORD PTR [edi+16]
  00075	3b d8		 cmp	 ebx, eax
  00077	0f 4f c3	 cmovg	 eax, ebx
  0007a	89 45 08	 mov	 DWORD PTR _nAllocSize$1$[ebp], eax

; 398  : 		m_pData = (TYPE*) new BYTE[(size_t)nAllocSize * sizeof(TYPE)];

  0007d	8d 34 c5 00 00
	00 00		 lea	 esi, DWORD PTR [eax*8]
  00084	56		 push	 esi
  00085	e8 00 00 00 00	 call	 ??_U@YAPAXI@Z		; operator new[]

; 399  : 		memset((void*)m_pData, 0, (size_t)nAllocSize * sizeof(TYPE));

  0008a	56		 push	 esi
  0008b	6a 00		 push	 0
  0008d	50		 push	 eax
  0008e	89 47 04	 mov	 DWORD PTR [edi+4], eax
  00091	e8 00 00 00 00	 call	 _memset
  00096	83 c4 10	 add	 esp, 16			; 00000010H
  00099	33 f6		 xor	 esi, esi

; 400  : 		for( int i = 0; i < nNewSize; i++ )

  0009b	85 db		 test	 ebx, ebx
  0009d	7e 12		 jle	 SHORT $LN6@SetSize
  0009f	90		 npad	 1
$LL7@SetSize:

; 401  : #pragma push_macro("new")
; 402  : #undef new
; 403  : 			::new( (void*)( m_pData + i ) ) TYPE;

  000a0	8b 47 04	 mov	 eax, DWORD PTR [edi+4]
  000a3	8d 0c f0	 lea	 ecx, DWORD PTR [eax+esi*8]
  000a6	ff 15 00 00 00
	00		 call	 DWORD PTR __imp_??0?$CStringT@DV?$StrTraitMFC_DLL@DV?$ChTraitsCRT@D@ATL@@@@@ATL@@QAE@XZ
  000ac	46		 inc	 esi
  000ad	3b f3		 cmp	 esi, ebx
  000af	7c ef		 jl	 SHORT $LL7@SetSize
$LN6@SetSize:

; 404  : #pragma pop_macro("new")
; 405  : 		m_nSize = nNewSize;
; 406  : 		m_nMaxSize = nAllocSize;

  000b1	8b 45 08	 mov	 eax, DWORD PTR _nAllocSize$1$[ebp]
  000b4	89 5f 08	 mov	 DWORD PTR [edi+8], ebx

; 474  : 	}
; 475  : }

  000b7	89 47 0c	 mov	 DWORD PTR [edi+12], eax
  000ba	5f		 pop	 edi
  000bb	5e		 pop	 esi
  000bc	5b		 pop	 ebx
  000bd	8b e5		 mov	 esp, ebp
  000bf	5d		 pop	 ebp
  000c0	c2 08 00	 ret	 8
$LN22@SetSize:

; 407  : 	}
; 408  : 	else if (nNewSize <= m_nMaxSize)

  000c3	8b 4f 0c	 mov	 ecx, DWORD PTR [edi+12]
  000c6	3b d9		 cmp	 ebx, ecx
  000c8	0f 8f 8f 00 00
	00		 jg	 $LN24@SetSize

; 409  : 	{
; 410  : 		// it fits
; 411  : 		if (nNewSize > m_nSize)

  000ce	8b 4f 08	 mov	 ecx, DWORD PTR [edi+8]
  000d1	3b d9		 cmp	 ebx, ecx
  000d3	7e 48		 jle	 SHORT $LN26@SetSize

; 412  : 		{
; 413  : 			// initialize the new elements
; 414  : 			memset((void*)(m_pData + m_nSize), 0, (size_t)(nNewSize-m_nSize) * sizeof(TYPE));

  000d5	8b c3		 mov	 eax, ebx
  000d7	2b c1		 sub	 eax, ecx
  000d9	c1 e0 03	 shl	 eax, 3
  000dc	50		 push	 eax
  000dd	8d 04 ca	 lea	 eax, DWORD PTR [edx+ecx*8]
  000e0	6a 00		 push	 0
  000e2	50		 push	 eax
  000e3	e8 00 00 00 00	 call	 _memset

; 415  : 			for( int i = 0; i < nNewSize-m_nSize; i++ )

  000e8	8b c3		 mov	 eax, ebx
  000ea	83 c4 0c	 add	 esp, 12			; 0000000cH
  000ed	2b 47 08	 sub	 eax, DWORD PTR [edi+8]
  000f0	33 f6		 xor	 esi, esi
  000f2	85 c0		 test	 eax, eax
  000f4	7e 5b		 jle	 SHORT $LN12@SetSize
$LL10@SetSize:

; 416  : #pragma push_macro("new")
; 417  : #undef new
; 418  : 				::new( (void*)( m_pData + m_nSize + i ) ) TYPE;

  000f6	8b 4f 08	 mov	 ecx, DWORD PTR [edi+8]
  000f9	8b 47 04	 mov	 eax, DWORD PTR [edi+4]
  000fc	03 ce		 add	 ecx, esi
  000fe	8d 0c c8	 lea	 ecx, DWORD PTR [eax+ecx*8]
  00101	ff 15 00 00 00
	00		 call	 DWORD PTR __imp_??0?$CStringT@DV?$StrTraitMFC_DLL@DV?$ChTraitsCRT@D@ATL@@@@@ATL@@QAE@XZ
  00107	8b c3		 mov	 eax, ebx
  00109	46		 inc	 esi
  0010a	2b 47 08	 sub	 eax, DWORD PTR [edi+8]
  0010d	3b f0		 cmp	 esi, eax
  0010f	7c e5		 jl	 SHORT $LL10@SetSize

; 426  : 		}
; 427  : 		m_nSize = nNewSize;

  00111	89 5f 08	 mov	 DWORD PTR [edi+8], ebx
  00114	5f		 pop	 edi

; 474  : 	}
; 475  : }

  00115	5e		 pop	 esi
  00116	5b		 pop	 ebx
  00117	8b e5		 mov	 esp, ebp
  00119	5d		 pop	 ebp
  0011a	c2 08 00	 ret	 8
$LN26@SetSize:

; 419  : #pragma pop_macro("new")
; 420  : 		}
; 421  : 		else if (m_nSize > nNewSize)

  0011d	7d 32		 jge	 SHORT $LN12@SetSize

; 422  : 		{
; 423  : 			// destroy the old elements
; 424  : 			for( int i = 0; i < m_nSize-nNewSize; i++ )

  0011f	2b cb		 sub	 ecx, ebx
  00121	c7 45 08 00 00
	00 00		 mov	 DWORD PTR _i$1$[ebp], 0
  00128	85 c9		 test	 ecx, ecx
  0012a	7e 25		 jle	 SHORT $LN12@SetSize
  0012c	8d 34 dd 00 00
	00 00		 lea	 esi, DWORD PTR [ebx*8]
$LL13@SetSize:

; 425  : 				(m_pData + nNewSize + i)->~TYPE();

  00133	8b 4f 04	 mov	 ecx, DWORD PTR [edi+4]
  00136	03 ce		 add	 ecx, esi
  00138	ff 15 00 00 00
	00		 call	 DWORD PTR __imp_??1?$CStringT@DV?$StrTraitMFC_DLL@DV?$ChTraitsCRT@D@ATL@@@@@ATL@@QAE@XZ
  0013e	8b 4d 08	 mov	 ecx, DWORD PTR _i$1$[ebp]
  00141	83 c6 08	 add	 esi, 8
  00144	8b 47 08	 mov	 eax, DWORD PTR [edi+8]
  00147	41		 inc	 ecx
  00148	2b c3		 sub	 eax, ebx
  0014a	89 4d 08	 mov	 DWORD PTR _i$1$[ebp], ecx
  0014d	3b c8		 cmp	 ecx, eax
  0014f	7c e2		 jl	 SHORT $LL13@SetSize
$LN12@SetSize:

; 426  : 		}
; 427  : 		m_nSize = nNewSize;

  00151	89 5f 08	 mov	 DWORD PTR [edi+8], ebx
  00154	5f		 pop	 edi

; 474  : 	}
; 475  : }

  00155	5e		 pop	 esi
  00156	5b		 pop	 ebx
  00157	8b e5		 mov	 esp, ebp
  00159	5d		 pop	 ebp
  0015a	c2 08 00	 ret	 8
$LN24@SetSize:

; 428  : 	}
; 429  : 	else
; 430  : 	{
; 431  : 		// otherwise, grow array
; 432  : 		nGrowBy = m_nGrowBy;

  0015d	8b 47 10	 mov	 eax, DWORD PTR [edi+16]

; 433  : 		if (nGrowBy == 0)

  00160	85 c0		 test	 eax, eax
  00162	75 22		 jne	 SHORT $LN37@SetSize

; 434  : 		{
; 435  : 			// heuristically determine growth when nGrowBy == 0
; 436  : 			//  (this avoids heap fragmentation in many situations)
; 437  : 			nGrowBy = m_nSize / 8;

  00164	8b 47 08	 mov	 eax, DWORD PTR [edi+8]
  00167	99		 cdq
  00168	83 e2 07	 and	 edx, 7
  0016b	03 c2		 add	 eax, edx
  0016d	c1 f8 03	 sar	 eax, 3

; 438  : 			nGrowBy = (nGrowBy < 4) ? 4 : ((nGrowBy > 1024) ? 1024 : nGrowBy);

  00170	83 f8 04	 cmp	 eax, 4
  00173	7d 07		 jge	 SHORT $LN36@SetSize
  00175	b8 04 00 00 00	 mov	 eax, 4
  0017a	eb 0a		 jmp	 SHORT $LN37@SetSize
$LN36@SetSize:
  0017c	ba 00 04 00 00	 mov	 edx, 1024		; 00000400H
  00181	3b c2		 cmp	 eax, edx
  00183	0f 4f c2	 cmovg	 eax, edx
$LN37@SetSize:

; 439  : 		}
; 440  : 		INT_PTR nNewMax;
; 441  : 		if (nNewSize < m_nMaxSize + nGrowBy)

  00186	03 c1		 add	 eax, ecx
  00188	89 45 fc	 mov	 DWORD PTR _nNewMax$1$[ebp], eax
  0018b	3b d8		 cmp	 ebx, eax
  0018d	7d 0a		 jge	 SHORT $LN30@SetSize

; 445  : 
; 446  : 		ASSERT(nNewMax >= m_nMaxSize);  // no wrap around
; 447  : 
; 448  : 		if(nNewMax  < m_nMaxSize)

  0018f	3b c1		 cmp	 eax, ecx
  00191	0f 8c 12 01 00
	00		 jl	 $LN91@SetSize
  00197	eb 05		 jmp	 SHORT $LN32@SetSize
$LN30@SetSize:

; 442  : 			nNewMax = m_nMaxSize + nGrowBy;  // granularity
; 443  : 		else
; 444  : 			nNewMax = nNewSize;  // no slush

  00199	8b c3		 mov	 eax, ebx
  0019b	89 5d fc	 mov	 DWORD PTR _nNewMax$1$[ebp], ebx
$LN32@SetSize:

; 450  : 
; 451  : #ifdef SIZE_T_MAX
; 452  : 		ASSERT(nNewMax <= SIZE_T_MAX/sizeof(TYPE)); // no overflow
; 453  : #endif
; 454  : 		TYPE* pNewData = (TYPE*) new BYTE[(size_t)nNewMax * sizeof(TYPE)];

  0019e	c1 e0 03	 shl	 eax, 3
  001a1	50		 push	 eax
  001a2	89 45 08	 mov	 DWORD PTR __S1max$1$[ebp], eax
  001a5	e8 00 00 00 00	 call	 ??_U@YAPAXI@Z		; operator new[]

; 455  : 
; 456  : 		// copy new data from old
; 457  : 		::ATL::Checked::memcpy_s(pNewData, (size_t)nNewMax * sizeof(TYPE),

  001aa	8b 57 04	 mov	 edx, DWORD PTR [edi+4]
  001ad	8b f0		 mov	 esi, eax
  001af	8b 47 08	 mov	 eax, DWORD PTR [edi+8]
  001b2	83 c4 04	 add	 esp, 4
  001b5	c1 e0 03	 shl	 eax, 3
  001b8	89 75 0c	 mov	 DWORD PTR _pNewData$1$[ebp], esi
  001bb	89 45 f4	 mov	 DWORD PTR __N$1$[ebp], eax
  001be	89 55 f8	 mov	 DWORD PTR __S2$1$[ebp], edx
; File C:\Program Files (x86)\Windows Kits\10\Include\10.0.22000.0\ucrt\corecrt_memcpy_s.h

; 46   :         if (_SourceSize == 0)

  001c1	85 c0		 test	 eax, eax
  001c3	74 1f		 je	 SHORT $LN58@SetSize
$LN59@SetSize:

; 47   :         {
; 48   :             return 0;
; 49   :         }
; 50   : 
; 51   :         _CRT_MEMCPY_S_VALIDATE_RETURN_ERRCODE(_Destination != NULL, EINVAL);

  001c5	85 f6		 test	 esi, esi
  001c7	0f 85 81 00 00
	00		 jne	 $LN60@SetSize
$LN94@SetSize:
; File C:\Program Files (x86)\Microsoft Visual Studio\2019\Community\VC\Tools\MSVC\14.29.30133\atlmfc\include\atlchecked.h

; 69   : 	ATLMFC_CRT_ERRORCHECK(::memcpy_s(_S1, _S1max, _S2, _N));

  001cd	ff 15 00 00 00
	00		 call	 DWORD PTR __imp___errno
  001d3	c7 00 16 00 00
	00		 mov	 DWORD PTR [eax], 22	; 00000016H
  001d9	ff 15 00 00 00
	00		 call	 DWORD PTR __imp___invalid_parameter_noinfo
$LN64@SetSize:
  001df	b8 16 00 00 00	 mov	 eax, 22			; 00000016H
$LN58@SetSize:
  001e4	50		 push	 eax
  001e5	e8 00 00 00 00	 call	 ?AfxCrtErrorCheck@@YAHH@Z ; AfxCrtErrorCheck
; File C:\Program Files (x86)\Microsoft Visual Studio\2019\Community\VC\Tools\MSVC\14.29.30133\atlmfc\include\afxtempl.h

; 462  : 		memset((void*)(pNewData + m_nSize), 0, (size_t)(nNewSize-m_nSize) * sizeof(TYPE));

  001ea	8b 4f 08	 mov	 ecx, DWORD PTR [edi+8]
  001ed	8b c3		 mov	 eax, ebx
  001ef	2b c1		 sub	 eax, ecx
  001f1	c1 e0 03	 shl	 eax, 3
  001f4	50		 push	 eax
  001f5	8d 04 ce	 lea	 eax, DWORD PTR [esi+ecx*8]
  001f8	6a 00		 push	 0
  001fa	50		 push	 eax
  001fb	e8 00 00 00 00	 call	 _memset

; 463  : 		for( int i = 0; i < nNewSize-m_nSize; i++ )

  00200	8b c3		 mov	 eax, ebx
  00202	83 c4 10	 add	 esp, 16			; 00000010H
  00205	2b 47 08	 sub	 eax, DWORD PTR [edi+8]
  00208	33 f6		 xor	 esi, esi
  0020a	85 c0		 test	 eax, eax
  0020c	7e 1d		 jle	 SHORT $LN15@SetSize
  0020e	66 90		 npad	 2
$LL16@SetSize:

; 464  : #pragma push_macro("new")
; 465  : #undef new
; 466  : 			::new( (void*)( pNewData + m_nSize + i ) ) TYPE;

  00210	8b 47 08	 mov	 eax, DWORD PTR [edi+8]
  00213	8b 4d 0c	 mov	 ecx, DWORD PTR _pNewData$1$[ebp]
  00216	03 c6		 add	 eax, esi
  00218	8d 0c c1	 lea	 ecx, DWORD PTR [ecx+eax*8]
  0021b	ff 15 00 00 00
	00		 call	 DWORD PTR __imp_??0?$CStringT@DV?$StrTraitMFC_DLL@DV?$ChTraitsCRT@D@ATL@@@@@ATL@@QAE@XZ
  00221	8b c3		 mov	 eax, ebx
  00223	46		 inc	 esi
  00224	2b 47 08	 sub	 eax, DWORD PTR [edi+8]
  00227	3b f0		 cmp	 esi, eax
  00229	7c e5		 jl	 SHORT $LL16@SetSize
$LN15@SetSize:

; 467  : #pragma pop_macro("new")
; 468  : 
; 469  : 		// get rid of old stuff (note: no destructors called)
; 470  : 		delete[] (BYTE*)m_pData;

  0022b	ff 77 04	 push	 DWORD PTR [edi+4]
  0022e	e8 00 00 00 00	 call	 ??_V@YAXPAX@Z		; operator delete[]

; 471  : 		m_pData = pNewData;

  00233	8b 45 0c	 mov	 eax, DWORD PTR _pNewData$1$[ebp]
  00236	83 c4 04	 add	 esp, 4
  00239	89 47 04	 mov	 DWORD PTR [edi+4], eax

; 472  : 		m_nSize = nNewSize;
; 473  : 		m_nMaxSize = nNewMax;

  0023c	8b 45 fc	 mov	 eax, DWORD PTR _nNewMax$1$[ebp]
  0023f	89 5f 08	 mov	 DWORD PTR [edi+8], ebx

; 474  : 	}
; 475  : }

  00242	89 47 0c	 mov	 DWORD PTR [edi+12], eax
  00245	5f		 pop	 edi
  00246	5e		 pop	 esi
  00247	5b		 pop	 ebx
  00248	8b e5		 mov	 esp, ebp
  0024a	5d		 pop	 ebp
  0024b	c2 08 00	 ret	 8
$LN60@SetSize:
; File C:\Program Files (x86)\Windows Kits\10\Include\10.0.22000.0\ucrt\corecrt_memcpy_s.h

; 52   :         if (_Source == NULL || _DestinationSize < _SourceSize)

  0024e	8b 4d 08	 mov	 ecx, DWORD PTR __S1max$1$[ebp]
  00251	85 d2		 test	 edx, edx
  00253	74 16		 je	 SHORT $LN62@SetSize
  00255	3b c8		 cmp	 ecx, eax
  00257	72 12		 jb	 SHORT $LN62@SetSize

; 58   : 
; 59   :             // Unreachable, but required to suppress /analyze warnings:
; 60   :             return EINVAL;
; 61   :         }
; 62   :         memcpy(_Destination, _Source, _SourceSize);

  00259	50		 push	 eax
  0025a	52		 push	 edx
  0025b	56		 push	 esi
  0025c	e8 00 00 00 00	 call	 _memcpy
  00261	83 c4 0c	 add	 esp, 12			; 0000000cH

; 63   :         return 0;

  00264	33 c0		 xor	 eax, eax
  00266	e9 79 ff ff ff	 jmp	 $LN58@SetSize
$LN62@SetSize:

; 53   :         {
; 54   :             memset(_Destination, 0, _DestinationSize);

  0026b	51		 push	 ecx
  0026c	6a 00		 push	 0
  0026e	56		 push	 esi
  0026f	e8 00 00 00 00	 call	 _memset
  00274	83 c4 0c	 add	 esp, 12			; 0000000cH

; 55   : 
; 56   :             _CRT_MEMCPY_S_VALIDATE_RETURN_ERRCODE(_Source != NULL,                 EINVAL);

  00277	83 7d f8 00	 cmp	 DWORD PTR __S2$1$[ebp], 0
  0027b	0f 84 4c ff ff
	ff		 je	 $LN94@SetSize

; 57   :             _CRT_MEMCPY_S_VALIDATE_RETURN_ERRCODE(_DestinationSize >= _SourceSize, ERANGE);

  00281	8b 45 08	 mov	 eax, DWORD PTR __S1max$1$[ebp]
  00284	3b 45 f4	 cmp	 eax, DWORD PTR __N$1$[ebp]
  00287	0f 83 52 ff ff
	ff		 jae	 $LN64@SetSize
  0028d	ff 15 00 00 00
	00		 call	 DWORD PTR __imp___errno
  00293	c7 00 22 00 00
	00		 mov	 DWORD PTR [eax], 34	; 00000022H
  00299	ff 15 00 00 00
	00		 call	 DWORD PTR __imp___invalid_parameter_noinfo
  0029f	b8 22 00 00 00	 mov	 eax, 34			; 00000022H
  002a4	e9 3b ff ff ff	 jmp	 $LN58@SetSize
$LN91@SetSize:
; File C:\Program Files (x86)\Microsoft Visual Studio\2019\Community\VC\Tools\MSVC\14.29.30133\atlmfc\include\afxtempl.h

; 449  : 			AfxThrowInvalidArgException();

  002a9	e8 00 00 00 00	 call	 ?AfxThrowInvalidArgException@@YGXXZ ; AfxThrowInvalidArgException
$LN93@SetSize:
  002ae	cc		 int	 3
?SetSize@?$CArray@U_tabUserColorTable@@U1@@@QAEXHH@Z ENDP ; CArray<_tabUserColorTable,_tabUserColorTable>::SetSize
_TEXT	ENDS
; Function compile flags: /Ogtp
; File C:\Program Files (x86)\Microsoft Visual Studio\2019\Community\VC\Tools\MSVC\14.29.30133\atlmfc\include\afxtempl.h
;	COMDAT ??0?$CArray@U_tabUserColorTable@@U1@@@QAE@XZ
_TEXT	SEGMENT
??0?$CArray@U_tabUserColorTable@@U1@@@QAE@XZ PROC	; CArray<_tabUserColorTable,_tabUserColorTable>::CArray<_tabUserColorTable,_tabUserColorTable>, COMDAT
; _this$ = ecx

; 348  : {

  00000	c7 01 00 00 00
	00		 mov	 DWORD PTR [ecx], OFFSET ??_7?$CArray@U_tabUserColorTable@@U1@@@6B@

; 349  : 	m_pData = NULL;
; 350  : 	m_nSize = m_nMaxSize = m_nGrowBy = 0;
; 351  : }

  00006	8b c1		 mov	 eax, ecx
  00008	c7 41 04 00 00
	00 00		 mov	 DWORD PTR [ecx+4], 0
  0000f	c7 41 10 00 00
	00 00		 mov	 DWORD PTR [ecx+16], 0
  00016	c7 41 0c 00 00
	00 00		 mov	 DWORD PTR [ecx+12], 0
  0001d	c7 41 08 00 00
	00 00		 mov	 DWORD PTR [ecx+8], 0
  00024	c3		 ret	 0
??0?$CArray@U_tabUserColorTable@@U1@@@QAE@XZ ENDP	; CArray<_tabUserColorTable,_tabUserColorTable>::CArray<_tabUserColorTable,_tabUserColorTable>
_TEXT	ENDS
; Function compile flags: /Ogtp
; File D:\git\src\IBK\IBK_DRFN\ProjSrc\SrcDrfn\DrCommon\PcTrMng\_SkinColorManager.cpp
;	COMDAT ?GetDefaultColorTableArray@CSkinColorManager@@UAGJXZ
_TEXT	SEGMENT
_this$ = 8						; size = 4
?GetDefaultColorTableArray@CSkinColorManager@@UAGJXZ PROC ; CSkinColorManager::GetDefaultColorTableArray, COMDAT

; 157  : //@	
; 158  : return NULL;

  00000	33 c0		 xor	 eax, eax

; 159  : /*
; 160  : 	if(!m_ArrColorTableDefault.GetSize())
; 161  : 	{
; 162  : 		char szTableFile[MAX_PATH]  = {NULL, };
; 163  : 		::sprintf(szTableFile, _T("%s\\%s"), theApp.m_szRootDir, ISkinColor_default_File);
; 164  : 
; 165  : 		LoadDefaultColorTable(szTableFile);
; 166  : 	}
; 167  : 	return (long)&m_ArrColorTableDefault;
; 168  : */
; 169  : }

  00002	c2 04 00	 ret	 4
?GetDefaultColorTableArray@CSkinColorManager@@UAGJXZ ENDP ; CSkinColorManager::GetDefaultColorTableArray
_TEXT	ENDS
; Function compile flags: /Ogtp
; File D:\git\src\IBK\IBK_DRFN\ProjSrc\SrcDrfn\DrCommon\PcTrMng\_SkinColorManager.cpp
;	COMDAT ?GetDefaultColor@CSkinColorManager@@UAGKH@Z
_TEXT	SEGMENT
_this$ = 8						; size = 4
_nIndex$ = 12						; size = 4
?GetDefaultColor@CSkinColorManager@@UAGKH@Z PROC	; CSkinColorManager::GetDefaultColor, COMDAT

; 129  : //@	
; 130  : /*	if(!m_ArrColorTableDefault.GetSize())
; 131  : 	{
; 132  : 		char szTableFile[MAX_PATH]  = {NULL, };
; 133  : 		::sprintf(szTableFile, _T("%s\\%s"), theApp.m_szRootDir, ISkinColor_default_File);
; 134  : 
; 135  : 		LoadDefaultColorTable(szTableFile);
; 136  : 	}
; 137  : 
; 138  : 	if(nIndex<0 || m_ArrColorTableDefault.GetSize()<nIndex)
; 139  : 		return RGB(0,0,0);
; 140  : 	
; 141  : 	STUSERCOLORTABLE info = m_ArrColorTableDefault.GetAt(nIndex);
; 142  : 	return info.rgb;
; 143  : */
; 144  : 	return RGB(255, 255, 255);

  00000	b8 ff ff ff 00	 mov	 eax, 16777215		; 00ffffffH

; 145  : }

  00005	c2 08 00	 ret	 8
?GetDefaultColor@CSkinColorManager@@UAGKH@Z ENDP	; CSkinColorManager::GetDefaultColor
_TEXT	ENDS
; Function compile flags: /Ogtp
; File D:\git\src\IBK\IBK_DRFN\ProjSrc\SrcDrfn\DrCommon\PcTrMng\_SkinColorManager.cpp
;	COMDAT ?GetDefaultIndex@CSkinColorManager@@UAGHPBD@Z
_TEXT	SEGMENT
_this$ = 8						; size = 4
_szKeyName$ = 12					; size = 4
?GetDefaultIndex@CSkinColorManager@@UAGHPBD@Z PROC	; CSkinColorManager::GetDefaultIndex, COMDAT

; 94   : //@	
; 95   : /*
; 96   : 	if(!m_ArrColorTableDefault.GetSize())
; 97   : 	{
; 98   : 		char szTableFile[MAX_PATH]  = {NULL, };
; 99   : 		::sprintf(szTableFile, _T("%s\\%s"), theApp.m_szRootDir, ISkinColor_default_File);
; 100  : 
; 101  : 		LoadDefaultColorTable(szTableFile);
; 102  : 	}
; 103  : 
; 104  : 	for(int i=0; i<m_ArrColorTableDefault.GetSize(); i++)
; 105  : 	{
; 106  : 		STUSERCOLORTABLE info = m_ArrColorTableDefault.GetAt(i);
; 107  : 		if(info.szName.Compare(szKeyName)==0)
; 108  : 		{
; 109  : 			return i;
; 110  : 		}
; 111  : 	}
; 112  : */	
; 113  : 	return -1;

  00000	83 c8 ff	 or	 eax, -1

; 114  : }

  00003	c2 08 00	 ret	 8
?GetDefaultIndex@CSkinColorManager@@UAGHPBD@Z ENDP	; CSkinColorManager::GetDefaultIndex
_TEXT	ENDS
; Function compile flags: /Ogtp
; File D:\git\src\IBK\IBK_DRFN\ProjSrc\SrcDrfn\DrCommon\PcTrMng\_SkinColorManager.cpp
;	COMDAT ?GetDefaultColor@CSkinColorManager@@UAGKPBD@Z
_TEXT	SEGMENT
_this$ = 8						; size = 4
_szKeyName$ = 12					; size = 4
?GetDefaultColor@CSkinColorManager@@UAGKPBD@Z PROC	; CSkinColorManager::GetDefaultColor, COMDAT

; 55   : //@	
; 56   : /*
; 57   : 	if(!m_ArrColorTableDefault.GetSize())
; 58   : 	{
; 59   : 		char szTableFile[MAX_PATH]  = {NULL, };
; 60   : 		::sprintf(szTableFile, _T("%s\\%s"), theApp.m_szRootDir, ISkinColor_default_File);
; 61   : 
; 62   : 		LoadDefaultColorTable(szTableFile);
; 63   : 	}
; 64   : 
; 65   : 	for(int i=0; i<m_ArrColorTableDefault.GetSize(); i++)
; 66   : 	{
; 67   : 		STUSERCOLORTABLE info = m_ArrColorTableDefault.GetAt(i);
; 68   : 		if(info.szName.Compare(szKeyName)==0)
; 69   : 		{
; 70   : 			return info.rgb;
; 71   : 		}
; 72   : 	}
; 73   : */
; 74   : 	return RGB(0,0,0);

  00000	33 c0		 xor	 eax, eax

; 75   : }

  00002	c2 08 00	 ret	 8
?GetDefaultColor@CSkinColorManager@@UAGKPBD@Z ENDP	; CSkinColorManager::GetDefaultColor
_TEXT	ENDS
; Function compile flags: /Ogtp
; File D:\git\src\IBK\IBK_DRFN\ProjSrc\SrcDrfn\DrCommon\PcTrMng\_SkinColorManager.cpp
; File C:\Program Files (x86)\Microsoft Visual Studio\2019\Community\VC\Tools\MSVC\14.29.30133\atlmfc\include\afxtempl.h
; File D:\git\src\IBK\IBK_DRFN\ProjSrc\SrcDrfn\DrCommon\PcTrMng\_SkinColorManager.cpp
;	COMDAT ?GetSkinInfo@CSkinColorManager@@UAGHHAAUST_SKININFO@@@Z
_TEXT	SEGMENT
_this$ = 8						; size = 4
_nIndex$ = 12						; size = 4
_skInfo$ = 16						; size = 4
?GetSkinInfo@CSkinColorManager@@UAGHHAAUST_SKININFO@@@Z PROC ; CSkinColorManager::GetSkinInfo, COMDAT

; 259  : {

  00000	55		 push	 ebp
  00001	8b ec		 mov	 ebp, esp
  00003	56		 push	 esi

; 260  : 	if(m_bLoadedCfgInfo==FALSE) LoadSkinInfo();

  00004	8b 75 08	 mov	 esi, DWORD PTR _this$[ebp]
  00007	83 7e 48 00	 cmp	 DWORD PTR [esi+72], 0
  0000b	75 07		 jne	 SHORT $LN2@GetSkinInf
  0000d	8b ce		 mov	 ecx, esi
  0000f	e8 00 00 00 00	 call	 ?LoadSkinInfo@CSkinColorManager@@QAEXXZ ; CSkinColorManager::LoadSkinInfo
$LN2@GetSkinInf:

; 261  : 
; 262  : 	if(nIndex<0 || m_ArrSkinInfo.GetSize()<=nIndex)

  00014	8b 45 0c	 mov	 eax, DWORD PTR _nIndex$[ebp]
  00017	85 c0		 test	 eax, eax
  00019	78 27		 js	 SHORT $LN4@GetSkinInf
  0001b	39 46 3c	 cmp	 DWORD PTR [esi+60], eax
  0001e	7e 22		 jle	 SHORT $LN4@GetSkinInf
; File C:\Program Files (x86)\Microsoft Visual Studio\2019\Community\VC\Tools\MSVC\14.29.30133\atlmfc\include\afxtempl.h

; 289  : 		return m_pData[nIndex];

  00020	8d 0c c5 00 00
	00 00		 lea	 ecx, DWORD PTR [eax*8]
  00027	2b c8		 sub	 ecx, eax
  00029	8b 46 38	 mov	 eax, DWORD PTR [esi+56]
  0002c	8d 04 88	 lea	 eax, DWORD PTR [eax+ecx*4]
; File D:\git\src\IBK\IBK_DRFN\ProjSrc\SrcDrfn\DrCommon\PcTrMng\_SkinColorManager.cpp

; 265  : 	skInfo = m_ArrSkinInfo.GetAt(nIndex);

  0002f	8b 4d 10	 mov	 ecx, DWORD PTR _skInfo$[ebp]
  00032	50		 push	 eax
  00033	e8 00 00 00 00	 call	 ??4ST_SKININFO@@QAEAAU0@ABU0@@Z

; 266  : 	return TRUE;

  00038	b8 01 00 00 00	 mov	 eax, 1
  0003d	5e		 pop	 esi

; 267  : }

  0003e	5d		 pop	 ebp
  0003f	c2 0c 00	 ret	 12			; 0000000cH
$LN4@GetSkinInf:

; 263  : 		return FALSE;

  00042	33 c0		 xor	 eax, eax
  00044	5e		 pop	 esi

; 267  : }

  00045	5d		 pop	 ebp
  00046	c2 0c 00	 ret	 12			; 0000000cH
?GetSkinInfo@CSkinColorManager@@UAGHHAAUST_SKININFO@@@Z ENDP ; CSkinColorManager::GetSkinInfo
_TEXT	ENDS
; Function compile flags: /Ogtp
; File D:\git\src\IBK\IBK_DRFN\ProjSrc\SrcDrfn\DrCommon\PcTrMng\_SkinColorManager.cpp
;	COMDAT ?GetSkinCount@CSkinColorManager@@UAGHXZ
_TEXT	SEGMENT
_this$ = 8						; size = 4
?GetSkinCount@CSkinColorManager@@UAGHXZ PROC		; CSkinColorManager::GetSkinCount, COMDAT

; 251  : {

  00000	55		 push	 ebp
  00001	8b ec		 mov	 ebp, esp
  00003	56		 push	 esi

; 252  : 	if(m_bLoadedCfgInfo==FALSE) LoadSkinInfo();

  00004	8b 75 08	 mov	 esi, DWORD PTR _this$[ebp]
  00007	83 7e 48 00	 cmp	 DWORD PTR [esi+72], 0
  0000b	75 07		 jne	 SHORT $LN4@GetSkinCou
  0000d	8b ce		 mov	 ecx, esi
  0000f	e8 00 00 00 00	 call	 ?LoadSkinInfo@CSkinColorManager@@QAEXXZ ; CSkinColorManager::LoadSkinInfo
$LN4@GetSkinCou:

; 253  : 
; 254  : 	int nCount = m_ArrSkinInfo.GetSize();
; 255  : 	return nCount;
; 256  : }

  00014	8b 46 3c	 mov	 eax, DWORD PTR [esi+60]
  00017	5e		 pop	 esi
  00018	5d		 pop	 ebp
  00019	c2 04 00	 ret	 4
?GetSkinCount@CSkinColorManager@@UAGHXZ ENDP		; CSkinColorManager::GetSkinCount
_TEXT	ENDS
; Function compile flags: /Ogtp
; File D:\git\src\IBK\IBK_DRFN\ProjSrc\SrcDrfn\DrCommon\PcTrMng\_SkinColorManager.cpp
;	COMDAT ?SetSkinConfig@CSkinColorManager@@UAGHPBD@Z
_TEXT	SEGMENT
_file$ = -28						; size = 28
_this$ = 8						; size = 4
_szCfgFileName$ = 12					; size = 4
?SetSkinConfig@CSkinColorManager@@UAGHPBD@Z PROC	; CSkinColorManager::SetSkinConfig, COMDAT

; 241  : {

  00000	55		 push	 ebp
  00001	8b ec		 mov	 ebp, esp
  00003	83 ec 1c	 sub	 esp, 28			; 0000001cH

; 242  : 	CFileFind file;

  00006	8d 4d e4	 lea	 ecx, DWORD PTR _file$[ebp]
  00009	56		 push	 esi
  0000a	e8 00 00 00 00	 call	 ??0CFileFind@@QAE@XZ	; CFileFind::CFileFind

; 243  : 	if(file.FindFile(szCfgFileName)==FALSE)

  0000f	8b 75 0c	 mov	 esi, DWORD PTR _szCfgFileName$[ebp]
  00012	8d 4d e4	 lea	 ecx, DWORD PTR _file$[ebp]
  00015	6a 00		 push	 0
  00017	56		 push	 esi
  00018	e8 00 00 00 00	 call	 ?FindFile@CFileFind@@UAEHPBDK@Z ; CFileFind::FindFile
  0001d	85 c0		 test	 eax, eax
  0001f	75 13		 jne	 SHORT $LN2@SetSkinCon

; 247  : 	return TRUE;

  00021	8d 4d e4	 lea	 ecx, DWORD PTR _file$[ebp]
  00024	33 f6		 xor	 esi, esi
  00026	e8 00 00 00 00	 call	 ??1CFileFind@@UAE@XZ	; CFileFind::~CFileFind
  0002b	8b c6		 mov	 eax, esi
  0002d	5e		 pop	 esi

; 248  : }

  0002e	8b e5		 mov	 esp, ebp
  00030	5d		 pop	 ebp
  00031	c2 08 00	 ret	 8
$LN2@SetSkinCon:

; 244  : 		return FALSE;
; 245  : 
; 246  : 	m_szSkinCfgFile = szCfgFileName;

  00034	8b 4d 08	 mov	 ecx, DWORD PTR _this$[ebp]
  00037	56		 push	 esi
  00038	8d 49 4c	 lea	 ecx, DWORD PTR [ecx+76]
  0003b	ff 15 00 00 00
	00		 call	 DWORD PTR __imp_??4?$CStringT@DV?$StrTraitMFC_DLL@DV?$ChTraitsCRT@D@ATL@@@@@ATL@@QAEAAV01@PBD@Z

; 247  : 	return TRUE;

  00041	8d 4d e4	 lea	 ecx, DWORD PTR _file$[ebp]
  00044	be 01 00 00 00	 mov	 esi, 1
  00049	e8 00 00 00 00	 call	 ??1CFileFind@@UAE@XZ	; CFileFind::~CFileFind
  0004e	8b c6		 mov	 eax, esi
  00050	5e		 pop	 esi

; 248  : }

  00051	8b e5		 mov	 esp, ebp
  00053	5d		 pop	 ebp
  00054	c2 08 00	 ret	 8
?SetSkinConfig@CSkinColorManager@@UAGHPBD@Z ENDP	; CSkinColorManager::SetSkinConfig
_TEXT	ENDS
; Function compile flags: /Ogtp
; File D:\git\src\IBK\IBK_DRFN\ProjSrc\SrcDrfn\DrCommon\PcTrMng\_SkinColorManager.cpp
; File C:\Program Files (x86)\Microsoft Visual Studio\2019\Community\VC\Tools\MSVC\14.29.30133\atlmfc\include\afxtempl.h
; File D:\git\src\IBK\IBK_DRFN\ProjSrc\SrcDrfn\DrCommon\PcTrMng\_SkinColorManager.cpp
;	COMDAT ?NotifyToSite@CSkinColorManager@@UAGXXZ
_TEXT	SEGMENT
_this$ = 8						; size = 4
?NotifyToSite@CSkinColorManager@@UAGXXZ PROC		; CSkinColorManager::NotifyToSite, COMDAT

; 229  : {

  00000	55		 push	 ebp
  00001	8b ec		 mov	 ebp, esp
  00003	56		 push	 esi

; 230  : 	for(POSITION pos=m_ListSkinSite.GetHeadPosition(); pos; )

  00004	8b 75 08	 mov	 esi, DWORD PTR _this$[ebp]
  00007	8b 76 1c	 mov	 esi, DWORD PTR [esi+28]
  0000a	85 f6		 test	 esi, esi
  0000c	74 14		 je	 SHORT $LN3@NotifyToSi
  0000e	66 90		 npad	 2
$LL2@NotifyToSi:

; 231  : 	{
; 232  : 		ISkinColorSite *pSite = m_ListSkinSite.GetNext(pos);

  00010	8b 4e 08	 mov	 ecx, DWORD PTR [esi+8]
; File C:\Program Files (x86)\Microsoft Visual Studio\2019\Community\VC\Tools\MSVC\14.29.30133\atlmfc\include\afxtempl.h

; 813  : 		rPosition = (POSITION) pNode->pNext;

  00013	8b 36		 mov	 esi, DWORD PTR [esi]
; File D:\git\src\IBK\IBK_DRFN\ProjSrc\SrcDrfn\DrCommon\PcTrMng\_SkinColorManager.cpp

; 233  : 		if(pSite)

  00015	85 c9		 test	 ecx, ecx
  00017	74 05		 je	 SHORT $LN5@NotifyToSi

; 234  : 		{
; 235  : 			pSite->ColorTableChanged();

  00019	8b 01		 mov	 eax, DWORD PTR [ecx]
  0001b	51		 push	 ecx
  0001c	ff 10		 call	 DWORD PTR [eax]
$LN5@NotifyToSi:

; 230  : 	for(POSITION pos=m_ListSkinSite.GetHeadPosition(); pos; )

  0001e	85 f6		 test	 esi, esi
  00020	75 ee		 jne	 SHORT $LL2@NotifyToSi
$LN3@NotifyToSi:
  00022	5e		 pop	 esi

; 236  : 		}
; 237  : 	}
; 238  : }

  00023	5d		 pop	 ebp
  00024	c2 04 00	 ret	 4
?NotifyToSite@CSkinColorManager@@UAGXXZ ENDP		; CSkinColorManager::NotifyToSite
_TEXT	ENDS
; Function compile flags: /Ogtp
; File D:\git\src\IBK\IBK_DRFN\ProjSrc\SrcDrfn\DrCommon\PcTrMng\_SkinColorManager.cpp
;	COMDAT ?LoadDefaultColorTable@CSkinColorManager@@UAGHPBD@Z
_TEXT	SEGMENT
_this$ = 8						; size = 4
_szTableFile$ = 12					; size = 4
?LoadDefaultColorTable@CSkinColorManager@@UAGHPBD@Z PROC ; CSkinColorManager::LoadDefaultColorTable, COMDAT

; 309  : //@	
; 310  : /*	
; 311  : 	if(m_ArrColorTableDefault.GetSize())
; 312  : 		return TRUE;
; 313  : 
; 314  : 	int nCnt = ::GetPrivateProfileInt("", "", 0, szTableFile);
; 315  : 	if(nCnt==0)
; 316  : 	{
; 317  : 		CString szMsg;
; 318  : 		szMsg.Format("[%s]     .", szTableFile);
; 319  : 		TRACE("%s\n", szMsg);
; 320  : 		AfxMessageBox(szMsg);
; 321  : 		return FALSE;
; 322  : 	}
; 323  : 
; 324  : 	m_ArrColorTableDefault.SetSize(nCnt);
; 325  : 
; 326  : 	char tmp[4+1]={0,}, key1[120+1]={0,}, sColorName[50+1]={0,};
; 327  : 	int bRGB[3];
; 328  : 
; 329  : 	for(int i=0; i < nCnt; i++)
; 330  : 	{
; 331  : 		sprintf(tmp, "%d", i);
; 332  : 		::GetPrivateProfileString("", tmp, "", key1, 120, szTableFile);
; 333  : 		sscanf(key1, "%[^,], %d, %d, %d", sColorName, &bRGB[0], &bRGB[1], &bRGB[2]);
; 334  : 		
; 335  : 		STUSERCOLORTABLE info;
; 336  : 		info.szName = sColorName;
; 337  : 		info.rgb = RGB(bRGB[0], bRGB[1], bRGB[2]);
; 338  : 		m_ArrColorTableDefault.SetAt(i, info);
; 339  : 	}
; 340  : */
; 341  : 	return TRUE;

  00000	b8 01 00 00 00	 mov	 eax, 1

; 342  : }

  00005	c2 08 00	 ret	 8
?LoadDefaultColorTable@CSkinColorManager@@UAGHPBD@Z ENDP ; CSkinColorManager::LoadDefaultColorTable
_TEXT	ENDS
; Function compile flags: /Ogtp
; File D:\git\src\IBK\IBK_DRFN\ProjSrc\SrcDrfn\DrCommon\PcTrMng\_SkinColorManager.cpp
; File C:\Program Files (x86)\Microsoft Visual Studio\2019\Community\VC\Tools\MSVC\14.29.30133\atlmfc\include\afxtempl.h
; File D:\git\src\IBK\IBK_DRFN\ProjSrc\SrcDrfn\DrCommon\PcTrMng\_SkinColorManager.cpp
; File C:\Program Files (x86)\Microsoft Visual Studio\2019\Community\VC\Tools\MSVC\14.29.30133\atlmfc\include\afxtempl.h
; File D:\git\src\IBK\IBK_DRFN\ProjSrc\SrcDrfn\DrCommon\PcTrMng\_SkinColorManager.cpp
;	COMDAT ?LoadColorTable@CSkinColorManager@@UAGHPBDH@Z
_TEXT	SEGMENT
_nCnt$1$ = -224						; size = 4
$T1 = -220						; size = 8
_info$2 = -212						; size = 8
_szTableFile$GSCopy$1$ = -204				; size = 4
_szMsg$3 = -204						; size = 4
_bRGB$ = -200						; size = 12
_key1$ = -188						; size = 121
_sColorName$ = -64					; size = 51
_tmp$ = -12						; size = 5
__$ArrayPad$ = -4					; size = 4
_this$ = 8						; size = 4
_szTableFile$ = 12					; size = 4
_bNotify$ = 16						; size = 4
?LoadColorTable@CSkinColorManager@@UAGHPBDH@Z PROC	; CSkinColorManager::LoadColorTable, COMDAT

; 192  : {

  00000	55		 push	 ebp
  00001	8b ec		 mov	 ebp, esp
  00003	81 ec e0 00 00
	00		 sub	 esp, 224		; 000000e0H
  00009	a1 00 00 00 00	 mov	 eax, DWORD PTR ___security_cookie
  0000e	33 c5		 xor	 eax, ebp
  00010	89 45 fc	 mov	 DWORD PTR __$ArrayPad$[ebp], eax
  00013	53		 push	 ebx
  00014	8b 5d 08	 mov	 ebx, DWORD PTR _this$[ebp]
  00017	56		 push	 esi
  00018	8b 75 0c	 mov	 esi, DWORD PTR _szTableFile$[ebp]
  0001b	57		 push	 edi

; 193  : 	if(m_ArrColorTable.GetSize()>0) return TRUE;

  0001c	83 7b 0c 00	 cmp	 DWORD PTR [ebx+12], 0
  00020	89 b5 34 ff ff
	ff		 mov	 DWORD PTR _szTableFile$GSCopy$1$[ebp], esi
  00026	0f 8f b8 01 00
	00		 jg	 $LN3@LoadColorT

; 194  : 	
; 195  : 	m_ArrColorTable.RemoveAll();

  0002c	8d 4b 04	 lea	 ecx, DWORD PTR [ebx+4]
  0002f	e8 00 00 00 00	 call	 ?RemoveAll@?$CArray@U_tabUserColorTable@@U1@@@QAEXXZ ; CArray<_tabUserColorTable,_tabUserColorTable>::RemoveAll

; 196  : 
; 197  : 	int nCnt = ::GetPrivateProfileInt("", "", 0, szTableFile);

  00034	56		 push	 esi
  00035	6a 00		 push	 0
  00037	68 00 00 00 00	 push	 OFFSET ??_C@_04KIHPKAMN@?$LA?$LD?$LM?v@
  0003c	68 00 00 00 00	 push	 OFFSET ??_C@_08JEMOIDPL@?D?C?$LH?$KP?$LA?$LD?$LM?v@
  00041	ff 15 00 00 00
	00		 call	 DWORD PTR __imp__GetPrivateProfileIntA@16
  00047	8b f8		 mov	 edi, eax
  00049	89 bd 20 ff ff
	ff		 mov	 DWORD PTR _nCnt$1$[ebp], edi

; 198  : 	if(nCnt==0)

  0004f	85 ff		 test	 edi, edi
  00051	75 43		 jne	 SHORT $LN6@LoadColorT

; 199  : 	{
; 200  : 		CString szMsg;

  00053	8d 8d 34 ff ff
	ff		 lea	 ecx, DWORD PTR _szMsg$3[ebp]
  00059	ff 15 00 00 00
	00		 call	 DWORD PTR __imp_??0?$CStringT@DV?$StrTraitMFC_DLL@DV?$ChTraitsCRT@D@ATL@@@@@ATL@@QAE@XZ

; 201  : 		szMsg.Format("[%s]     .", szTableFile);

  0005f	56		 push	 esi
  00060	8d 85 34 ff ff
	ff		 lea	 eax, DWORD PTR _szMsg$3[ebp]
  00066	68 00 00 00 00	 push	 OFFSET ??_C@_0DB@OKFKJJJD@?F?D?$MA?O?$FL?$CFs?$FN?$LP?$KB?$LM?$KN?5?D?$KO?$LG?s?E?W?$MA?L?$LK?m?5?A?$KE?$LK?$LI?$LI?$KG?5@
  0006b	50		 push	 eax
  0006c	ff 15 00 00 00
	00		 call	 DWORD PTR __imp_?Format@?$CStringT@DV?$StrTraitMFC_DLL@DV?$ChTraitsCRT@D@ATL@@@@@ATL@@QAAXPBDZZ
  00072	83 c4 0c	 add	 esp, 12			; 0000000cH

; 202  : 		TRACE("%s\n", szMsg);
; 203  : 		//AfxMessageBox(szMsg);
; 204  : 		return FALSE;

  00075	8d 8d 34 ff ff
	ff		 lea	 ecx, DWORD PTR _szMsg$3[ebp]
  0007b	ff 15 00 00 00
	00		 call	 DWORD PTR __imp_??1?$CStringT@DV?$StrTraitMFC_DLL@DV?$ChTraitsCRT@D@ATL@@@@@ATL@@QAE@XZ
  00081	33 c0		 xor	 eax, eax

; 225  : }

  00083	5f		 pop	 edi
  00084	5e		 pop	 esi
  00085	5b		 pop	 ebx
  00086	8b 4d fc	 mov	 ecx, DWORD PTR __$ArrayPad$[ebp]
  00089	33 cd		 xor	 ecx, ebp
  0008b	e8 00 00 00 00	 call	 @__security_check_cookie@4
  00090	8b e5		 mov	 esp, ebp
  00092	5d		 pop	 ebp
  00093	c2 0c 00	 ret	 12			; 0000000cH
$LN6@LoadColorT:

; 205  : 	}
; 206  : 
; 207  : 	m_ArrColorTable.SetSize(nCnt);

  00096	6a ff		 push	 -1
  00098	57		 push	 edi
  00099	8d 4b 04	 lea	 ecx, DWORD PTR [ebx+4]
  0009c	e8 00 00 00 00	 call	 ?SetSize@?$CArray@U_tabUserColorTable@@U1@@@QAEXHH@Z ; CArray<_tabUserColorTable,_tabUserColorTable>::SetSize

; 208  : 
; 209  : 	char tmp[4+1]={0,}, key1[120+1]={0,}, sColorName[50+1]={0,};

  000a1	6a 79		 push	 121			; 00000079H
  000a3	8d 85 44 ff ff
	ff		 lea	 eax, DWORD PTR _key1$[ebp]
  000a9	c7 45 f4 00 00
	00 00		 mov	 DWORD PTR _tmp$[ebp], 0
  000b0	6a 00		 push	 0
  000b2	50		 push	 eax
  000b3	c6 45 f8 00	 mov	 BYTE PTR _tmp$[ebp+4], 0
  000b7	e8 00 00 00 00	 call	 _memset
  000bc	6a 33		 push	 51			; 00000033H
  000be	8d 45 c0	 lea	 eax, DWORD PTR _sColorName$[ebp]
  000c1	6a 00		 push	 0
  000c3	50		 push	 eax
  000c4	e8 00 00 00 00	 call	 _memset
  000c9	83 c4 18	 add	 esp, 24			; 00000018H

; 212  : 	for(int i=0; i < nCnt; i++)

  000cc	33 f6		 xor	 esi, esi
  000ce	85 ff		 test	 edi, edi
  000d0	0f 8e 0e 01 00
	00		 jle	 $LN3@LoadColorT
$LL4@LoadColorT:

; 213  : 	{
; 214  : 		sprintf(tmp, "%d", i);

  000d6	56		 push	 esi
  000d7	8d 45 f4	 lea	 eax, DWORD PTR _tmp$[ebp]
  000da	68 00 00 00 00	 push	 OFFSET ??_C@_02DPKJAMEF@?$CFd@
  000df	50		 push	 eax
  000e0	e8 00 00 00 00	 call	 _sprintf
  000e5	83 c4 0c	 add	 esp, 12			; 0000000cH

; 215  : 		::GetPrivateProfileString("", tmp, "", key1, 120, szTableFile);

  000e8	8d 85 44 ff ff
	ff		 lea	 eax, DWORD PTR _key1$[ebp]
  000ee	ff b5 34 ff ff
	ff		 push	 DWORD PTR _szTableFile$GSCopy$1$[ebp]
  000f4	6a 78		 push	 120			; 00000078H
  000f6	50		 push	 eax
  000f7	68 00 00 00 00	 push	 OFFSET ??_C@_00CNPNBAHC@@
  000fc	8d 45 f4	 lea	 eax, DWORD PTR _tmp$[ebp]
  000ff	50		 push	 eax
  00100	68 00 00 00 00	 push	 OFFSET ??_C@_0L@MNJMPGLE@?D?C?$LH?$KP?$MA?N?$LF?$KG?$LN?$LK@
  00105	ff 15 00 00 00
	00		 call	 DWORD PTR __imp__GetPrivateProfileStringA@24

; 216  : 		sscanf(key1, "%[^,], %d, %d, %d", sColorName, &bRGB[0], &bRGB[1], &bRGB[2]);

  0010b	8d 85 40 ff ff
	ff		 lea	 eax, DWORD PTR _bRGB$[ebp+8]
  00111	50		 push	 eax
  00112	8d 85 3c ff ff
	ff		 lea	 eax, DWORD PTR _bRGB$[ebp+4]
  00118	50		 push	 eax
  00119	8d 85 38 ff ff
	ff		 lea	 eax, DWORD PTR _bRGB$[ebp]
  0011f	50		 push	 eax
  00120	8d 45 c0	 lea	 eax, DWORD PTR _sColorName$[ebp]
  00123	50		 push	 eax
  00124	8d 85 44 ff ff
	ff		 lea	 eax, DWORD PTR _key1$[ebp]
  0012a	68 00 00 00 00	 push	 OFFSET ??_C@_0BC@HNKKLCOJ@?$CF?$FL?$FO?0?$FN?0?5?$CFd?0?5?$CFd?0?5?$CFd@
  0012f	50		 push	 eax
  00130	e8 00 00 00 00	 call	 _sscanf
  00135	83 c4 18	 add	 esp, 24			; 00000018H
  00138	8d 8d 2c ff ff
	ff		 lea	 ecx, DWORD PTR _info$2[ebp]
  0013e	ff 15 00 00 00
	00		 call	 DWORD PTR __imp_??0?$CStringT@DV?$StrTraitMFC_DLL@DV?$ChTraitsCRT@D@ATL@@@@@ATL@@QAE@XZ

; 217  : 		
; 218  : 		STUSERCOLORTABLE info;
; 219  : 		info.szName = sColorName;

  00144	8d 45 c0	 lea	 eax, DWORD PTR _sColorName$[ebp]
  00147	50		 push	 eax
  00148	8d 8d 2c ff ff
	ff		 lea	 ecx, DWORD PTR _info$2[ebp]
  0014e	ff 15 00 00 00
	00		 call	 DWORD PTR __imp_??4?$CStringT@DV?$StrTraitMFC_DLL@DV?$ChTraitsCRT@D@ATL@@@@@ATL@@QAEAAV01@PBD@Z

; 220  : 		info.rgb = RGB(bRGB[0], bRGB[1], bRGB[2]);

  00154	0f b6 8d 40 ff
	ff ff		 movzx	 ecx, BYTE PTR _bRGB$[ebp+8]
  0015b	0f b6 85 3c ff
	ff ff		 movzx	 eax, BYTE PTR _bRGB$[ebp+4]
  00162	c1 e1 08	 shl	 ecx, 8
  00165	0b c8		 or	 ecx, eax
  00167	0f b6 85 38 ff
	ff ff		 movzx	 eax, BYTE PTR _bRGB$[ebp]
  0016e	c1 e1 08	 shl	 ecx, 8
  00171	0b c8		 or	 ecx, eax
  00173	8d 85 2c ff ff
	ff		 lea	 eax, DWORD PTR _info$2[ebp]
  00179	89 8d 30 ff ff
	ff		 mov	 DWORD PTR _info$2[ebp+4], ecx
  0017f	8d 8d 24 ff ff
	ff		 lea	 ecx, DWORD PTR $T1[ebp]
  00185	50		 push	 eax
  00186	ff 15 00 00 00
	00		 call	 DWORD PTR __imp_??0?$CStringT@DV?$StrTraitMFC_DLL@DV?$ChTraitsCRT@D@ATL@@@@@ATL@@QAE@ABV01@@Z
  0018c	8b 85 30 ff ff
	ff		 mov	 eax, DWORD PTR _info$2[ebp+4]
  00192	89 85 28 ff ff
	ff		 mov	 DWORD PTR $T1[ebp+4], eax
; File C:\Program Files (x86)\Microsoft Visual Studio\2019\Community\VC\Tools\MSVC\14.29.30133\atlmfc\include\afxtempl.h

; 304  : 	if(nIndex >= 0 && nIndex < m_nSize)

  00198	85 f6		 test	 esi, esi
  0019a	78 60		 js	 SHORT $LN14@LoadColorT
  0019c	3b 73 0c	 cmp	 esi, DWORD PTR [ebx+12]
  0019f	7d 5b		 jge	 SHORT $LN14@LoadColorT

; 305  : 		m_pData[nIndex] = newElement;

  001a1	8b 43 08	 mov	 eax, DWORD PTR [ebx+8]
  001a4	8d 3c f0	 lea	 edi, DWORD PTR [eax+esi*8]
  001a7	8d 85 24 ff ff
	ff		 lea	 eax, DWORD PTR $T1[ebp]
  001ad	8b cf		 mov	 ecx, edi
  001af	50		 push	 eax
  001b0	ff 15 00 00 00
	00		 call	 DWORD PTR __imp_??4?$CStringT@DV?$StrTraitMFC_DLL@DV?$ChTraitsCRT@D@ATL@@@@@ATL@@QAEAAV01@ABV01@@Z
  001b6	8b 85 28 ff ff
	ff		 mov	 eax, DWORD PTR $T1[ebp+4]
  001bc	8d 8d 24 ff ff
	ff		 lea	 ecx, DWORD PTR $T1[ebp]
  001c2	89 47 04	 mov	 DWORD PTR [edi+4], eax
  001c5	ff 15 00 00 00
	00		 call	 DWORD PTR __imp_??1?$CStringT@DV?$StrTraitMFC_DLL@DV?$ChTraitsCRT@D@ATL@@@@@ATL@@QAE@XZ
  001cb	8d 8d 2c ff ff
	ff		 lea	 ecx, DWORD PTR _info$2[ebp]
  001d1	ff 15 00 00 00
	00		 call	 DWORD PTR __imp_??1?$CStringT@DV?$StrTraitMFC_DLL@DV?$ChTraitsCRT@D@ATL@@@@@ATL@@QAE@XZ
; File D:\git\src\IBK\IBK_DRFN\ProjSrc\SrcDrfn\DrCommon\PcTrMng\_SkinColorManager.cpp

; 212  : 	for(int i=0; i < nCnt; i++)

  001d7	46		 inc	 esi
  001d8	3b b5 20 ff ff
	ff		 cmp	 esi, DWORD PTR _nCnt$1$[ebp]
  001de	0f 8c f2 fe ff
	ff		 jl	 $LL4@LoadColorT
$LN3@LoadColorT:

; 225  : }

  001e4	8b 4d fc	 mov	 ecx, DWORD PTR __$ArrayPad$[ebp]
  001e7	b8 01 00 00 00	 mov	 eax, 1
  001ec	5f		 pop	 edi
  001ed	5e		 pop	 esi
  001ee	33 cd		 xor	 ecx, ebp
  001f0	5b		 pop	 ebx
  001f1	e8 00 00 00 00	 call	 @__security_check_cookie@4
  001f6	8b e5		 mov	 esp, ebp
  001f8	5d		 pop	 ebp
  001f9	c2 0c 00	 ret	 12			; 0000000cH
$LN14@LoadColorT:
; File C:\Program Files (x86)\Microsoft Visual Studio\2019\Community\VC\Tools\MSVC\14.29.30133\atlmfc\include\afxtempl.h

; 307  : 		AfxThrowInvalidArgException();

  001fc	e8 00 00 00 00	 call	 ?AfxThrowInvalidArgException@@YGXXZ ; AfxThrowInvalidArgException
$LN30@LoadColorT:
  00201	cc		 int	 3
?LoadColorTable@CSkinColorManager@@UAGHPBDH@Z ENDP	; CSkinColorManager::LoadColorTable
_TEXT	ENDS
; Function compile flags: /Ogtp
; File D:\git\src\IBK\IBK_DRFN\ProjSrc\SrcDrfn\DrCommon\PcTrMng\_SkinColorManager.cpp
; File C:\Program Files (x86)\Microsoft Visual Studio\2019\Community\VC\Tools\MSVC\14.29.30133\atlmfc\include\afxtempl.h
; File D:\git\src\IBK\IBK_DRFN\ProjSrc\SrcDrfn\DrCommon\PcTrMng\_SkinColorManager.cpp
;	COMDAT ?UnadviseSite@CSkinColorManager@@UAGHJ@Z
_TEXT	SEGMENT
_this$ = 8						; size = 4
_dwKey$ = 12						; size = 4
?UnadviseSite@CSkinColorManager@@UAGHJ@Z PROC		; CSkinColorManager::UnadviseSite, COMDAT

; 180  : {

  00000	55		 push	 ebp
  00001	8b ec		 mov	 ebp, esp

; 181  : 	POSITION pos = (POSITION)dwKey;
; 182  : 	if(pos) {

  00003	8b 4d 0c	 mov	 ecx, DWORD PTR _dwKey$[ebp]
  00006	85 c9		 test	 ecx, ecx
  00008	74 6a		 je	 SHORT $LN2@UnadviseSi
; File C:\Program Files (x86)\Microsoft Visual Studio\2019\Community\VC\Tools\MSVC\14.29.30133\atlmfc\include\afxtempl.h

; 1107 : 	if (pOldNode == m_pNodeHead)

  0000a	8b 11		 mov	 edx, DWORD PTR [ecx]
  0000c	56		 push	 esi
  0000d	8b 75 08	 mov	 esi, DWORD PTR _this$[ebp]
  00010	3b 4e 1c	 cmp	 ecx, DWORD PTR [esi+28]
  00013	75 05		 jne	 SHORT $LN5@UnadviseSi

; 1108 : 	{
; 1109 : 		m_pNodeHead = pOldNode->pNext;

  00015	89 56 1c	 mov	 DWORD PTR [esi+28], edx

; 1110 : 	}

  00018	eb 05		 jmp	 SHORT $LN6@UnadviseSi
$LN5@UnadviseSi:

; 1111 : 	else
; 1112 : 	{
; 1113 : 		ASSERT(AfxIsValidAddress(pOldNode->pPrev, sizeof(CNode)));
; 1114 : 		pOldNode->pPrev->pNext = pOldNode->pNext;

  0001a	8b 41 04	 mov	 eax, DWORD PTR [ecx+4]
  0001d	89 10		 mov	 DWORD PTR [eax], edx
$LN6@UnadviseSi:

; 1115 : 	}
; 1116 : 	if (pOldNode == m_pNodeTail)

  0001f	8b 51 04	 mov	 edx, DWORD PTR [ecx+4]
  00022	3b 4e 20	 cmp	 ecx, DWORD PTR [esi+32]
  00025	75 05		 jne	 SHORT $LN7@UnadviseSi

; 1117 : 	{
; 1118 : 		m_pNodeTail = pOldNode->pPrev;

  00027	89 56 20	 mov	 DWORD PTR [esi+32], edx

; 1119 : 	}

  0002a	eb 05		 jmp	 SHORT $LN8@UnadviseSi
$LN7@UnadviseSi:

; 1120 : 	else
; 1121 : 	{
; 1122 : 		ASSERT(AfxIsValidAddress(pOldNode->pNext, sizeof(CNode)));
; 1123 : 		pOldNode->pNext->pPrev = pOldNode->pPrev;

  0002c	8b 01		 mov	 eax, DWORD PTR [ecx]
  0002e	89 50 04	 mov	 DWORD PTR [eax+4], edx
$LN8@UnadviseSi:

; 938  : 	pNode->pNext = m_pNodeFree;

  00031	8b 46 28	 mov	 eax, DWORD PTR [esi+40]
  00034	89 01		 mov	 DWORD PTR [ecx], eax

; 939  : 	m_pNodeFree = pNode;
; 940  : 	m_nCount--;

  00036	83 46 24 ff	 add	 DWORD PTR [esi+36], -1
  0003a	89 4e 28	 mov	 DWORD PTR [esi+40], ecx

; 941  : 	ASSERT(m_nCount >= 0);  // make sure we don't underflow
; 942  : 
; 943  : 	// if no more elements, cleanup completely
; 944  : 	if (m_nCount == 0)

  0003d	75 2b		 jne	 SHORT $LN11@UnadviseSi

; 872  : 	m_pBlocks->FreeDataChain();

  0003f	8b 4e 2c	 mov	 ecx, DWORD PTR [esi+44]
  00042	c7 46 24 00 00
	00 00		 mov	 DWORD PTR [esi+36], 0
  00049	c7 46 28 00 00
	00 00		 mov	 DWORD PTR [esi+40], 0
  00050	c7 46 20 00 00
	00 00		 mov	 DWORD PTR [esi+32], 0
  00057	c7 46 1c 00 00
	00 00		 mov	 DWORD PTR [esi+28], 0
  0005e	e8 00 00 00 00	 call	 ?FreeDataChain@CPlex@@QAEXXZ ; CPlex::FreeDataChain

; 873  : 	m_pBlocks = NULL;

  00063	c7 46 2c 00 00
	00 00		 mov	 DWORD PTR [esi+44], 0
$LN11@UnadviseSi:
; File D:\git\src\IBK\IBK_DRFN\ProjSrc\SrcDrfn\DrCommon\PcTrMng\_SkinColorManager.cpp

; 184  : 		return TRUE;

  0006a	b8 01 00 00 00	 mov	 eax, 1
  0006f	5e		 pop	 esi

; 187  : }

  00070	5d		 pop	 ebp
  00071	c2 08 00	 ret	 8
$LN2@UnadviseSi:

; 185  : 	}
; 186  : 	return FALSE;

  00074	33 c0		 xor	 eax, eax

; 187  : }

  00076	5d		 pop	 ebp
  00077	c2 08 00	 ret	 8
?UnadviseSite@CSkinColorManager@@UAGHJ@Z ENDP		; CSkinColorManager::UnadviseSite
_TEXT	ENDS
; Function compile flags: /Ogtp
; File D:\git\src\IBK\IBK_DRFN\ProjSrc\SrcDrfn\DrCommon\PcTrMng\_SkinColorManager.cpp
;	COMDAT ?AdviseSite@CSkinColorManager@@UAGJPAUISkinColorSite@@@Z
_TEXT	SEGMENT
_this$ = 8						; size = 4
_pSite$ = 12						; size = 4
?AdviseSite@CSkinColorManager@@UAGJPAUISkinColorSite@@@Z PROC ; CSkinColorManager::AdviseSite, COMDAT

; 173  : {

  00000	55		 push	 ebp
  00001	8b ec		 mov	 ebp, esp

; 174  : 	POSITION pos = m_ListSkinSite.AddTail(pSite);

  00003	8b 4d 08	 mov	 ecx, DWORD PTR _this$[ebp]
  00006	ff 75 0c	 push	 DWORD PTR _pSite$[ebp]
  00009	8d 49 18	 lea	 ecx, DWORD PTR [ecx+24]
  0000c	e8 00 00 00 00	 call	 ?AddTail@?$CList@PAUISkinColorSite@@PAU1@@@QAEPAU__POSITION@@PAUISkinColorSite@@@Z ; CList<ISkinColorSite *,ISkinColorSite *>::AddTail

; 175  : 	return (long)pos;
; 176  : }

  00011	5d		 pop	 ebp
  00012	c2 08 00	 ret	 8
?AdviseSite@CSkinColorManager@@UAGJPAUISkinColorSite@@@Z ENDP ; CSkinColorManager::AdviseSite
_TEXT	ENDS
; Function compile flags: /Ogtp
; File D:\git\src\IBK\IBK_DRFN\ProjSrc\SrcDrfn\DrCommon\PcTrMng\_SkinColorManager.cpp
;	COMDAT ?GetColorTableArray@CSkinColorManager@@UAGJXZ
_TEXT	SEGMENT
_this$ = 8						; size = 4
?GetColorTableArray@CSkinColorManager@@UAGJXZ PROC	; CSkinColorManager::GetColorTableArray, COMDAT

; 149  : {

  00000	55		 push	 ebp
  00001	8b ec		 mov	 ebp, esp

; 150  : 	return (long)&m_ArrColorTable;

  00003	8b 45 08	 mov	 eax, DWORD PTR _this$[ebp]
  00006	83 c0 04	 add	 eax, 4

; 151  : }

  00009	5d		 pop	 ebp
  0000a	c2 04 00	 ret	 4
?GetColorTableArray@CSkinColorManager@@UAGJXZ ENDP	; CSkinColorManager::GetColorTableArray
_TEXT	ENDS
; Function compile flags: /Ogtp
; File D:\git\src\IBK\IBK_DRFN\ProjSrc\SrcDrfn\DrCommon\PcTrMng\_SkinColorManager.cpp
; File C:\Program Files (x86)\Microsoft Visual Studio\2019\Community\VC\Tools\MSVC\14.29.30133\atlmfc\include\afxtempl.h
; File D:\git\src\IBK\IBK_DRFN\ProjSrc\SrcDrfn\DrCommon\PcTrMng\_SkinColorManager.cpp
; File C:\Program Files (x86)\Microsoft Visual Studio\2019\Community\VC\Tools\MSVC\14.29.30133\atlmfc\include\afxtempl.h
; File D:\git\src\IBK\IBK_DRFN\ProjSrc\SrcDrfn\DrCommon\PcTrMng\_SkinColorManager.cpp
;	COMDAT ?GetColor@CSkinColorManager@@UAGKH@Z
_TEXT	SEGMENT
_info$ = -8						; size = 8
_this$ = 8						; size = 4
_nIndex$ = 12						; size = 4
?GetColor@CSkinColorManager@@UAGKH@Z PROC		; CSkinColorManager::GetColor, COMDAT

; 118  : {

  00000	55		 push	 ebp
  00001	8b ec		 mov	 ebp, esp

; 119  : 	if(nIndex<0 || m_ArrColorTable.GetSize()<nIndex)

  00003	8b 4d 0c	 mov	 ecx, DWORD PTR _nIndex$[ebp]
  00006	83 ec 08	 sub	 esp, 8
  00009	85 c9		 test	 ecx, ecx
  0000b	78 33		 js	 SHORT $LN3@GetColor
  0000d	8b 55 08	 mov	 edx, DWORD PTR _this$[ebp]
  00010	39 4a 0c	 cmp	 DWORD PTR [edx+12], ecx
  00013	7c 2b		 jl	 SHORT $LN3@GetColor
; File C:\Program Files (x86)\Microsoft Visual Studio\2019\Community\VC\Tools\MSVC\14.29.30133\atlmfc\include\afxtempl.h

; 288  : 	if(nIndex >= 0 && nIndex < m_nSize)

  00015	7e 31		 jle	 SHORT $LN6@GetColor

; 289  : 		return m_pData[nIndex];

  00017	8b 42 08	 mov	 eax, DWORD PTR [edx+8]
  0001a	56		 push	 esi
  0001b	8d 34 c8	 lea	 esi, DWORD PTR [eax+ecx*8]
  0001e	56		 push	 esi
  0001f	8d 4d f8	 lea	 ecx, DWORD PTR _info$[ebp]
  00022	ff 15 00 00 00
	00		 call	 DWORD PTR __imp_??0?$CStringT@DV?$StrTraitMFC_DLL@DV?$ChTraitsCRT@D@ATL@@@@@ATL@@QAE@ABV01@@Z
  00028	8b 76 04	 mov	 esi, DWORD PTR [esi+4]
  0002b	8d 4d f8	 lea	 ecx, DWORD PTR _info$[ebp]
  0002e	89 75 fc	 mov	 DWORD PTR _info$[ebp+4], esi
  00031	ff 15 00 00 00
	00		 call	 DWORD PTR __imp_??1?$CStringT@DV?$StrTraitMFC_DLL@DV?$ChTraitsCRT@D@ATL@@@@@ATL@@QAE@XZ
; File D:\git\src\IBK\IBK_DRFN\ProjSrc\SrcDrfn\DrCommon\PcTrMng\_SkinColorManager.cpp

; 123  : 	return info.rgb;

  00037	8b c6		 mov	 eax, esi
  00039	5e		 pop	 esi

; 124  : }

  0003a	8b e5		 mov	 esp, ebp
  0003c	5d		 pop	 ebp
  0003d	c2 08 00	 ret	 8
$LN3@GetColor:

; 120  : 		return RGB(0,0,0);

  00040	33 c0		 xor	 eax, eax

; 124  : }

  00042	8b e5		 mov	 esp, ebp
  00044	5d		 pop	 ebp
  00045	c2 08 00	 ret	 8
$LN6@GetColor:
; File C:\Program Files (x86)\Microsoft Visual Studio\2019\Community\VC\Tools\MSVC\14.29.30133\atlmfc\include\afxtempl.h

; 290  : 	AfxThrowInvalidArgException();

  00048	e8 00 00 00 00	 call	 ?AfxThrowInvalidArgException@@YGXXZ ; AfxThrowInvalidArgException
$LN14@GetColor:
  0004d	cc		 int	 3
?GetColor@CSkinColorManager@@UAGKH@Z ENDP		; CSkinColorManager::GetColor
_TEXT	ENDS
; Function compile flags: /Ogtp
; File D:\git\src\IBK\IBK_DRFN\ProjSrc\SrcDrfn\DrCommon\PcTrMng\_SkinColorManager.cpp
; File C:\Program Files (x86)\Microsoft Visual Studio\2019\Community\VC\Tools\MSVC\14.29.30133\atlmfc\include\afxtempl.h
; File D:\git\src\IBK\IBK_DRFN\ProjSrc\SrcDrfn\DrCommon\PcTrMng\_SkinColorManager.cpp
; File C:\Program Files (x86)\Microsoft Visual Studio\2019\Community\VC\Tools\MSVC\14.29.30133\atlmfc\include\afxtempl.h
; File D:\git\src\IBK\IBK_DRFN\ProjSrc\SrcDrfn\DrCommon\PcTrMng\_SkinColorManager.cpp
;	COMDAT ?GetIndex@CSkinColorManager@@UAGHPBD@Z
_TEXT	SEGMENT
_info$1 = -8						; size = 8
_this$ = 8						; size = 4
_szKeyName$ = 12					; size = 4
?GetIndex@CSkinColorManager@@UAGHPBD@Z PROC		; CSkinColorManager::GetIndex, COMDAT

; 78   : {

  00000	55		 push	 ebp
  00001	8b ec		 mov	 ebp, esp
  00003	83 ec 08	 sub	 esp, 8
  00006	53		 push	 ebx

; 79   : 	for(int i=0; i<m_ArrColorTable.GetSize(); i++)

  00007	8b 5d 08	 mov	 ebx, DWORD PTR _this$[ebp]
  0000a	56		 push	 esi
  0000b	33 f6		 xor	 esi, esi
  0000d	57		 push	 edi
  0000e	8b 43 0c	 mov	 eax, DWORD PTR [ebx+12]
  00011	85 c0		 test	 eax, eax
  00013	7e 3f		 jle	 SHORT $LN3@GetIndex
$LL4@GetIndex:
; File C:\Program Files (x86)\Microsoft Visual Studio\2019\Community\VC\Tools\MSVC\14.29.30133\atlmfc\include\afxtempl.h

; 288  : 	if(nIndex >= 0 && nIndex < m_nSize)

  00015	85 f6		 test	 esi, esi
  00017	78 58		 js	 SHORT $LN8@GetIndex
  00019	3b f0		 cmp	 esi, eax
  0001b	7d 54		 jge	 SHORT $LN8@GetIndex

; 289  : 		return m_pData[nIndex];

  0001d	8b 43 08	 mov	 eax, DWORD PTR [ebx+8]
  00020	8d 4d f8	 lea	 ecx, DWORD PTR _info$1[ebp]
  00023	8d 3c f0	 lea	 edi, DWORD PTR [eax+esi*8]
  00026	57		 push	 edi
  00027	ff 15 00 00 00
	00		 call	 DWORD PTR __imp_??0?$CStringT@DV?$StrTraitMFC_DLL@DV?$ChTraitsCRT@D@ATL@@@@@ATL@@QAE@ABV01@@Z
  0002d	8b 47 04	 mov	 eax, DWORD PTR [edi+4]
; File D:\git\src\IBK\IBK_DRFN\ProjSrc\SrcDrfn\DrCommon\PcTrMng\_SkinColorManager.cpp

; 82   : 		if(info.szName.Compare(szKeyName)==0)

  00030	8d 4d f8	 lea	 ecx, DWORD PTR _info$1[ebp]
  00033	ff 75 0c	 push	 DWORD PTR _szKeyName$[ebp]
  00036	89 45 fc	 mov	 DWORD PTR _info$1[ebp+4], eax
  00039	ff 15 00 00 00
	00		 call	 DWORD PTR __imp_?Compare@?$CStringT@DV?$StrTraitMFC_DLL@DV?$ChTraitsCRT@D@ATL@@@@@ATL@@QBEHPBD@Z
  0003f	8d 4d f8	 lea	 ecx, DWORD PTR _info$1[ebp]
  00042	85 c0		 test	 eax, eax
  00044	74 1a		 je	 SHORT $LN20@GetIndex

; 79   : 	for(int i=0; i<m_ArrColorTable.GetSize(); i++)

  00046	ff 15 00 00 00
	00		 call	 DWORD PTR __imp_??1?$CStringT@DV?$StrTraitMFC_DLL@DV?$ChTraitsCRT@D@ATL@@@@@ATL@@QAE@XZ
  0004c	8b 43 0c	 mov	 eax, DWORD PTR [ebx+12]
  0004f	46		 inc	 esi
  00050	3b f0		 cmp	 esi, eax
  00052	7c c1		 jl	 SHORT $LL4@GetIndex
$LN3@GetIndex:
  00054	5f		 pop	 edi

; 89   : }

  00055	5e		 pop	 esi
  00056	83 c8 ff	 or	 eax, -1
  00059	5b		 pop	 ebx
  0005a	8b e5		 mov	 esp, ebp
  0005c	5d		 pop	 ebp
  0005d	c2 08 00	 ret	 8
$LN20@GetIndex:
  00060	ff 15 00 00 00
	00		 call	 DWORD PTR __imp_??1?$CStringT@DV?$StrTraitMFC_DLL@DV?$ChTraitsCRT@D@ATL@@@@@ATL@@QAE@XZ
  00066	5f		 pop	 edi

; 83   : 		{
; 84   : 			return i;

  00067	8b c6		 mov	 eax, esi

; 89   : }

  00069	5e		 pop	 esi
  0006a	5b		 pop	 ebx
  0006b	8b e5		 mov	 esp, ebp
  0006d	5d		 pop	 ebp
  0006e	c2 08 00	 ret	 8
$LN8@GetIndex:
; File C:\Program Files (x86)\Microsoft Visual Studio\2019\Community\VC\Tools\MSVC\14.29.30133\atlmfc\include\afxtempl.h

; 290  : 	AfxThrowInvalidArgException();

  00071	e8 00 00 00 00	 call	 ?AfxThrowInvalidArgException@@YGXXZ ; AfxThrowInvalidArgException
$LN24@GetIndex:
  00076	cc		 int	 3
?GetIndex@CSkinColorManager@@UAGHPBD@Z ENDP		; CSkinColorManager::GetIndex
_TEXT	ENDS
; Function compile flags: /Ogtp
; File D:\git\src\IBK\IBK_DRFN\ProjSrc\SrcDrfn\DrCommon\PcTrMng\_SkinColorManager.cpp
; File C:\Program Files (x86)\Microsoft Visual Studio\2019\Community\VC\Tools\MSVC\14.29.30133\atlmfc\include\afxtempl.h
; File D:\git\src\IBK\IBK_DRFN\ProjSrc\SrcDrfn\DrCommon\PcTrMng\_SkinColorManager.cpp
; File C:\Program Files (x86)\Microsoft Visual Studio\2019\Community\VC\Tools\MSVC\14.29.30133\atlmfc\include\afxtempl.h
; File D:\git\src\IBK\IBK_DRFN\ProjSrc\SrcDrfn\DrCommon\PcTrMng\_SkinColorManager.cpp
;	COMDAT ?GetColor@CSkinColorManager@@UAGKPBD@Z
_TEXT	SEGMENT
_info$1 = -8						; size = 8
_this$ = 8						; size = 4
_szKeyName$ = 12					; size = 4
?GetColor@CSkinColorManager@@UAGKPBD@Z PROC		; CSkinColorManager::GetColor, COMDAT

; 39   : {

  00000	55		 push	 ebp
  00001	8b ec		 mov	 ebp, esp
  00003	83 ec 08	 sub	 esp, 8
  00006	53		 push	 ebx

; 40   : 	for(int i=0; i<m_ArrColorTable.GetSize(); i++)

  00007	8b 5d 08	 mov	 ebx, DWORD PTR _this$[ebp]
  0000a	56		 push	 esi
  0000b	33 f6		 xor	 esi, esi
  0000d	57		 push	 edi
  0000e	8b 43 0c	 mov	 eax, DWORD PTR [ebx+12]
  00011	85 c0		 test	 eax, eax
  00013	7e 3f		 jle	 SHORT $LN3@GetColor
$LL4@GetColor:
; File C:\Program Files (x86)\Microsoft Visual Studio\2019\Community\VC\Tools\MSVC\14.29.30133\atlmfc\include\afxtempl.h

; 288  : 	if(nIndex >= 0 && nIndex < m_nSize)

  00015	85 f6		 test	 esi, esi
  00017	78 5a		 js	 SHORT $LN8@GetColor
  00019	3b f0		 cmp	 esi, eax
  0001b	7d 56		 jge	 SHORT $LN8@GetColor

; 289  : 		return m_pData[nIndex];

  0001d	8b 43 08	 mov	 eax, DWORD PTR [ebx+8]
  00020	8d 4d f8	 lea	 ecx, DWORD PTR _info$1[ebp]
  00023	8d 3c f0	 lea	 edi, DWORD PTR [eax+esi*8]
  00026	57		 push	 edi
  00027	ff 15 00 00 00
	00		 call	 DWORD PTR __imp_??0?$CStringT@DV?$StrTraitMFC_DLL@DV?$ChTraitsCRT@D@ATL@@@@@ATL@@QAE@ABV01@@Z
  0002d	8b 47 04	 mov	 eax, DWORD PTR [edi+4]
; File D:\git\src\IBK\IBK_DRFN\ProjSrc\SrcDrfn\DrCommon\PcTrMng\_SkinColorManager.cpp

; 43   : 		if(info.szName.Compare(szKeyName)==0)

  00030	8d 4d f8	 lea	 ecx, DWORD PTR _info$1[ebp]
  00033	ff 75 0c	 push	 DWORD PTR _szKeyName$[ebp]
  00036	89 45 fc	 mov	 DWORD PTR _info$1[ebp+4], eax
  00039	ff 15 00 00 00
	00		 call	 DWORD PTR __imp_?Compare@?$CStringT@DV?$StrTraitMFC_DLL@DV?$ChTraitsCRT@D@ATL@@@@@ATL@@QBEHPBD@Z
  0003f	8d 4d f8	 lea	 ecx, DWORD PTR _info$1[ebp]
  00042	85 c0		 test	 eax, eax
  00044	74 19		 je	 SHORT $LN20@GetColor

; 40   : 	for(int i=0; i<m_ArrColorTable.GetSize(); i++)

  00046	ff 15 00 00 00
	00		 call	 DWORD PTR __imp_??1?$CStringT@DV?$StrTraitMFC_DLL@DV?$ChTraitsCRT@D@ATL@@@@@ATL@@QAE@XZ
  0004c	8b 43 0c	 mov	 eax, DWORD PTR [ebx+12]
  0004f	46		 inc	 esi
  00050	3b f0		 cmp	 esi, eax
  00052	7c c1		 jl	 SHORT $LL4@GetColor
$LN3@GetColor:
  00054	5f		 pop	 edi

; 50   : }

  00055	5e		 pop	 esi
  00056	33 c0		 xor	 eax, eax
  00058	5b		 pop	 ebx
  00059	8b e5		 mov	 esp, ebp
  0005b	5d		 pop	 ebp
  0005c	c2 08 00	 ret	 8
$LN20@GetColor:

; 44   : 		{
; 45   : 			return info.rgb;

  0005f	8b 75 fc	 mov	 esi, DWORD PTR _info$1[ebp+4]
  00062	ff 15 00 00 00
	00		 call	 DWORD PTR __imp_??1?$CStringT@DV?$StrTraitMFC_DLL@DV?$ChTraitsCRT@D@ATL@@@@@ATL@@QAE@XZ
  00068	5f		 pop	 edi
  00069	8b c6		 mov	 eax, esi

; 50   : }

  0006b	5e		 pop	 esi
  0006c	5b		 pop	 ebx
  0006d	8b e5		 mov	 esp, ebp
  0006f	5d		 pop	 ebp
  00070	c2 08 00	 ret	 8
$LN8@GetColor:
; File C:\Program Files (x86)\Microsoft Visual Studio\2019\Community\VC\Tools\MSVC\14.29.30133\atlmfc\include\afxtempl.h

; 290  : 	AfxThrowInvalidArgException();

  00073	e8 00 00 00 00	 call	 ?AfxThrowInvalidArgException@@YGXXZ ; AfxThrowInvalidArgException
$LN24@GetColor:
  00078	cc		 int	 3
?GetColor@CSkinColorManager@@UAGKPBD@Z ENDP		; CSkinColorManager::GetColor
_TEXT	ENDS
; Function compile flags: /Ogtp
; File D:\git\src\IBK\IBK_DRFN\ProjSrc\SrcDrfn\DrCommon\PcTrMng\_SkinColorManager.cpp
; File C:\Program Files (x86)\Microsoft Visual Studio\2019\Community\VC\Tools\MSVC\14.29.30133\atlmfc\include\afxtempl.h
; File C:\Program Files (x86)\Microsoft Visual Studio\2019\Community\VC\Tools\MSVC\14.29.30133\atlmfc\include\atlsimpstr.h
; File D:\git\src\IBK\IBK_DRFN\ProjSrc\SrcDrfn\DrCommon\PcTrMng\_SkinColorManager.cpp
; File D:\git\src\IBK\IBK_DRFN\ProjSrc\SrcDrfn\inc\ISkinColorMng.h
; File D:\git\src\IBK\IBK_DRFN\ProjSrc\SrcDrfn\DrCommon\PcTrMng\_SkinColorManager.cpp
; File C:\Program Files (x86)\Microsoft Visual Studio\2019\Community\VC\Tools\MSVC\14.29.30133\atlmfc\include\afxtempl.h
; File D:\git\src\IBK\IBK_DRFN\ProjSrc\SrcDrfn\DrCommon\PcTrMng\_SkinColorManager.cpp
; File C:\Program Files (x86)\Microsoft Visual Studio\2019\Community\VC\Tools\MSVC\14.29.30133\atlmfc\include\afxtempl.h
; File D:\git\src\IBK\IBK_DRFN\ProjSrc\SrcDrfn\DrCommon\PcTrMng\_SkinColorManager.cpp
;	COMDAT ?LoadSkinInfo@CSkinColorManager@@QAEXXZ
_TEXT	SEGMENT
_this$ = -240						; size = 4
_nCount$1$ = -236					; size = 4
tv487 = -232						; size = 4
$T2 = -228						; size = 28
_aTmp$ = -200						; size = 3
_stSkinInfo$ = -196					; size = 28
_aBuffer$ = -168					; size = 151
__$ArrayPad$ = -16					; size = 4
__$EHRec$ = -12						; size = 12
?LoadSkinInfo@CSkinColorManager@@QAEXXZ PROC		; CSkinColorManager::LoadSkinInfo, COMDAT
; _this$ = ecx

; 273  : {

  00000	55		 push	 ebp
  00001	8b ec		 mov	 ebp, esp
  00003	6a ff		 push	 -1
  00005	68 00 00 00 00	 push	 __ehhandler$?LoadSkinInfo@CSkinColorManager@@QAEXXZ
  0000a	64 a1 00 00 00
	00		 mov	 eax, DWORD PTR fs:0
  00010	50		 push	 eax
  00011	81 ec e4 00 00
	00		 sub	 esp, 228		; 000000e4H
  00017	a1 00 00 00 00	 mov	 eax, DWORD PTR ___security_cookie
  0001c	33 c5		 xor	 eax, ebp
  0001e	89 45 f0	 mov	 DWORD PTR __$ArrayPad$[ebp], eax
  00021	53		 push	 ebx
  00022	56		 push	 esi
  00023	57		 push	 edi
  00024	50		 push	 eax
  00025	8d 45 f4	 lea	 eax, DWORD PTR __$EHRec$[ebp]
  00028	64 a3 00 00 00
	00		 mov	 DWORD PTR fs:0, eax
  0002e	8b f1		 mov	 esi, ecx
; File C:\Program Files (x86)\Microsoft Visual Studio\2019\Community\VC\Tools\MSVC\14.29.30133\atlmfc\include\afxtempl.h

; 283  : 	{ SetSize(0, -1); }

  00030	6a ff		 push	 -1
  00032	6a 00		 push	 0
  00034	8d 4e 34	 lea	 ecx, DWORD PTR [esi+52]
  00037	e8 00 00 00 00	 call	 ?SetSize@?$CArray@UST_SKININFO@@U1@@@QAEXHH@Z ; CArray<ST_SKININFO,ST_SKININFO>::SetSize
; File C:\Program Files (x86)\Microsoft Visual Studio\2019\Community\VC\Tools\MSVC\14.29.30133\atlmfc\include\atlsimpstr.h

; 519  : 		return( GetData()->nDataLength );

  0003c	8b 46 4c	 mov	 eax, DWORD PTR [esi+76]

; 800  : 		return( reinterpret_cast< CStringData* >( m_pszData )-1 );

  0003f	8d 4e 4c	 lea	 ecx, DWORD PTR [esi+76]
; File D:\git\src\IBK\IBK_DRFN\ProjSrc\SrcDrfn\DrCommon\PcTrMng\_SkinColorManager.cpp

; 276  : 	if(m_szSkinCfgFile.GetLength()==0)

  00042	83 78 f4 00	 cmp	 DWORD PTR [eax-12], 0
  00046	75 1d		 jne	 SHORT $LN5@LoadSkinIn

; 277  : 	{
; 278  : 		//ISkinColorSite_SkinInfo_File -> ISkinColorMng.h
; 279  : 		m_szSkinCfgFile.Format("%s\\%s", theApp.m_szRootDir, ISkinColorSite_SkinInfo_File);

  00048	68 00 00 00 00	 push	 OFFSET ??_C@_0BA@NMCBNOGD@Data?2Config?4cfg@
  0004d	ff 35 cc 00 00
	00		 push	 DWORD PTR ?theApp@@3VCPcTrMngApp@@A+204
  00053	68 00 00 00 00	 push	 OFFSET ??_C@_05BMGBEOOC@?$CFs?2?$CFs@
  00058	51		 push	 ecx
  00059	ff 15 00 00 00
	00		 call	 DWORD PTR __imp_?Format@?$CStringT@DV?$StrTraitMFC_DLL@DV?$ChTraitsCRT@D@ATL@@@@@ATL@@QAAXPBDZZ
  0005f	8b 46 4c	 mov	 eax, DWORD PTR [esi+76]
  00062	83 c4 10	 add	 esp, 16			; 00000010H
$LN5@LoadSkinIn:

; 280  : 	}
; 281  : 
; 282  : 	LPCSTR szSect="SKIN",
; 283  : 		   szCount = "Count";
; 284  : 
; 285  : 	int nCount = ::GetPrivateProfileInt(szSect, szCount, 0, m_szSkinCfgFile);

  00065	50		 push	 eax
  00066	6a 00		 push	 0
  00068	68 00 00 00 00	 push	 OFFSET ??_C@_05IJGIMMHE@Count@
  0006d	68 00 00 00 00	 push	 OFFSET ??_C@_04BLMKLGAB@SKIN@
  00072	ff 15 00 00 00
	00		 call	 DWORD PTR __imp__GetPrivateProfileIntA@16
  00078	8b d8		 mov	 ebx, eax
  0007a	89 9d 14 ff ff
	ff		 mov	 DWORD PTR _nCount$1$[ebp], ebx

; 286  : 	if(nCount>0) m_ArrSkinInfo.SetSize(nCount);

  00080	85 db		 test	 ebx, ebx
  00082	7e 0b		 jle	 SHORT $LN6@LoadSkinIn
  00084	6a ff		 push	 -1
  00086	53		 push	 ebx
  00087	8d 4e 34	 lea	 ecx, DWORD PTR [esi+52]
  0008a	e8 00 00 00 00	 call	 ?SetSize@?$CArray@UST_SKININFO@@U1@@@QAEXHH@Z ; CArray<ST_SKININFO,ST_SKININFO>::SetSize
$LN6@LoadSkinIn:

; 287  : 
; 288  : 	char aTmp[3], aBuffer[150+1]={0,};

  0008f	68 97 00 00 00	 push	 151			; 00000097H
  00094	8d 85 58 ff ff
	ff		 lea	 eax, DWORD PTR _aBuffer$[ebp]
  0009a	6a 00		 push	 0
  0009c	50		 push	 eax
  0009d	e8 00 00 00 00	 call	 _memset
  000a2	83 c4 0c	 add	 esp, 12			; 0000000cH
  000a5	8d 8d 3c ff ff
	ff		 lea	 ecx, DWORD PTR _stSkinInfo$[ebp]
  000ab	ff 15 00 00 00
	00		 call	 DWORD PTR __imp_??0?$CStringT@DV?$StrTraitMFC_DLL@DV?$ChTraitsCRT@D@ATL@@@@@ATL@@QAE@XZ
  000b1	8d 8d 40 ff ff
	ff		 lea	 ecx, DWORD PTR _stSkinInfo$[ebp+4]
  000b7	ff 15 00 00 00
	00		 call	 DWORD PTR __imp_??0?$CStringT@DV?$StrTraitMFC_DLL@DV?$ChTraitsCRT@D@ATL@@@@@ATL@@QAE@XZ
  000bd	8d 8d 44 ff ff
	ff		 lea	 ecx, DWORD PTR _stSkinInfo$[ebp+8]
  000c3	ff 15 00 00 00
	00		 call	 DWORD PTR __imp_??0?$CStringT@DV?$StrTraitMFC_DLL@DV?$ChTraitsCRT@D@ATL@@@@@ATL@@QAE@XZ
  000c9	8d 8d 48 ff ff
	ff		 lea	 ecx, DWORD PTR _stSkinInfo$[ebp+12]
  000cf	ff 15 00 00 00
	00		 call	 DWORD PTR __imp_??0?$CStringT@DV?$StrTraitMFC_DLL@DV?$ChTraitsCRT@D@ATL@@@@@ATL@@QAE@XZ
  000d5	8d 8d 4c ff ff
	ff		 lea	 ecx, DWORD PTR _stSkinInfo$[ebp+16]
  000db	ff 15 00 00 00
	00		 call	 DWORD PTR __imp_??0?$CStringT@DV?$StrTraitMFC_DLL@DV?$ChTraitsCRT@D@ATL@@@@@ATL@@QAE@XZ
  000e1	8d 8d 50 ff ff
	ff		 lea	 ecx, DWORD PTR _stSkinInfo$[ebp+20]
  000e7	ff 15 00 00 00
	00		 call	 DWORD PTR __imp_??0?$CStringT@DV?$StrTraitMFC_DLL@DV?$ChTraitsCRT@D@ATL@@@@@ATL@@QAE@XZ
  000ed	8d 8d 54 ff ff
	ff		 lea	 ecx, DWORD PTR _stSkinInfo$[ebp+24]
  000f3	ff 15 00 00 00
	00		 call	 DWORD PTR __imp_??0?$CStringT@DV?$StrTraitMFC_DLL@DV?$ChTraitsCRT@D@ATL@@@@@ATL@@QAE@XZ

; 290  : 	for(int i=0; i<nCount; i++)

  000f9	33 ff		 xor	 edi, edi
  000fb	c7 45 fc 00 00
	00 00		 mov	 DWORD PTR __$EHRec$[ebp+8], 0
  00102	85 db		 test	 ebx, ebx
  00104	0f 8e 38 02 00
	00		 jle	 $LN3@LoadSkinIn

; 287  : 
; 288  : 	char aTmp[3], aBuffer[150+1]={0,};

  0010a	33 db		 xor	 ebx, ebx
  0010c	0f 1f 40 00	 npad	 4
$LL4@LoadSkinIn:

; 291  : 	{
; 292  : 		sprintf(aTmp, "%02d", i+1);

  00110	8d 47 01	 lea	 eax, DWORD PTR [edi+1]
  00113	50		 push	 eax
  00114	89 85 18 ff ff
	ff		 mov	 DWORD PTR tv487[ebp], eax
  0011a	8d 85 38 ff ff
	ff		 lea	 eax, DWORD PTR _aTmp$[ebp]
  00120	68 00 00 00 00	 push	 OFFSET ??_C@_04OGKJMPGK@?$CF02d@
  00125	50		 push	 eax
  00126	e8 00 00 00 00	 call	 _sprintf
  0012b	83 c4 0c	 add	 esp, 12			; 0000000cH

; 293  : 		::GetPrivateProfileString(szSect, aTmp,

  0012e	8d 85 58 ff ff
	ff		 lea	 eax, DWORD PTR _aBuffer$[ebp]
  00134	ff 76 4c	 push	 DWORD PTR [esi+76]
  00137	68 96 00 00 00	 push	 150			; 00000096H
  0013c	50		 push	 eax
  0013d	68 00 00 00 00	 push	 OFFSET ??_C@_0EK@KHAKBPBF@?$LN?$LK?E?$LC?$LA?m?$MA?$PM?$HMDefaultColorTable?4cfg?$HM@
  00142	8d 85 38 ff ff
	ff		 lea	 eax, DWORD PTR _aTmp$[ebp]
  00148	50		 push	 eax
  00149	68 00 00 00 00	 push	 OFFSET ??_C@_04BLMKLGAB@SKIN@
  0014e	ff 15 00 00 00
	00		 call	 DWORD PTR __imp__GetPrivateProfileStringA@24
; File D:\git\src\IBK\IBK_DRFN\ProjSrc\SrcDrfn\inc\ISkinColorMng.h

; 167  : 		AfxExtractSubString(stSkinInfo.m_szName, szInoBuf, nCol++, '|');

  00154	6a 7c		 push	 124			; 0000007cH
  00156	6a 00		 push	 0
  00158	8d 85 58 ff ff
	ff		 lea	 eax, DWORD PTR _aBuffer$[ebp]
  0015e	50		 push	 eax
  0015f	8d 85 3c ff ff
	ff		 lea	 eax, DWORD PTR _stSkinInfo$[ebp]
  00165	50		 push	 eax
  00166	e8 00 00 00 00	 call	 ?AfxExtractSubString@@YGHAAV?$CStringT@DV?$StrTraitMFC_DLL@DV?$ChTraitsCRT@D@ATL@@@@@ATL@@PBDHD@Z ; AfxExtractSubString

; 168  : 		AfxExtractSubString(stSkinInfo.m_szColorTable, szInoBuf, nCol++, '|');

  0016b	6a 7c		 push	 124			; 0000007cH
  0016d	6a 01		 push	 1
  0016f	8d 85 58 ff ff
	ff		 lea	 eax, DWORD PTR _aBuffer$[ebp]
  00175	50		 push	 eax
  00176	8d 85 40 ff ff
	ff		 lea	 eax, DWORD PTR _stSkinInfo$[ebp+4]
  0017c	50		 push	 eax
  0017d	e8 00 00 00 00	 call	 ?AfxExtractSubString@@YGHAAV?$CStringT@DV?$StrTraitMFC_DLL@DV?$ChTraitsCRT@D@ATL@@@@@ATL@@PBDHD@Z ; AfxExtractSubString

; 169  : 		AfxExtractSubString(stSkinInfo.m_szBKImage, szInoBuf, nCol++, '|');

  00182	6a 7c		 push	 124			; 0000007cH
  00184	6a 02		 push	 2
  00186	8d 85 58 ff ff
	ff		 lea	 eax, DWORD PTR _aBuffer$[ebp]
  0018c	50		 push	 eax
  0018d	8d 85 44 ff ff
	ff		 lea	 eax, DWORD PTR _stSkinInfo$[ebp+8]
  00193	50		 push	 eax
  00194	e8 00 00 00 00	 call	 ?AfxExtractSubString@@YGHAAV?$CStringT@DV?$StrTraitMFC_DLL@DV?$ChTraitsCRT@D@ATL@@@@@ATL@@PBDHD@Z ; AfxExtractSubString

; 170  : 		AfxExtractSubString(stSkinInfo.m_szBKColor, szInoBuf, nCol++, '|');

  00199	6a 7c		 push	 124			; 0000007cH
  0019b	6a 03		 push	 3
  0019d	8d 85 58 ff ff
	ff		 lea	 eax, DWORD PTR _aBuffer$[ebp]
  001a3	50		 push	 eax
  001a4	8d 85 48 ff ff
	ff		 lea	 eax, DWORD PTR _stSkinInfo$[ebp+12]
  001aa	50		 push	 eax
  001ab	e8 00 00 00 00	 call	 ?AfxExtractSubString@@YGHAAV?$CStringT@DV?$StrTraitMFC_DLL@DV?$ChTraitsCRT@D@ATL@@@@@ATL@@PBDHD@Z ; AfxExtractSubString

; 171  : 		AfxExtractSubString(stSkinInfo.m_szTreeIconImage, szInoBuf, nCol++, '|');

  001b0	6a 7c		 push	 124			; 0000007cH
  001b2	6a 04		 push	 4
  001b4	8d 85 58 ff ff
	ff		 lea	 eax, DWORD PTR _aBuffer$[ebp]
  001ba	50		 push	 eax
  001bb	8d 85 4c ff ff
	ff		 lea	 eax, DWORD PTR _stSkinInfo$[ebp+16]
  001c1	50		 push	 eax
  001c2	e8 00 00 00 00	 call	 ?AfxExtractSubString@@YGHAAV?$CStringT@DV?$StrTraitMFC_DLL@DV?$ChTraitsCRT@D@ATL@@@@@ATL@@PBDHD@Z ; AfxExtractSubString

; 172  : 		AfxExtractSubString(stSkinInfo.m_szVScreenImageIndex, szInoBuf, nCol++, '|');

  001c7	6a 7c		 push	 124			; 0000007cH
  001c9	6a 05		 push	 5
  001cb	8d 85 58 ff ff
	ff		 lea	 eax, DWORD PTR _aBuffer$[ebp]
  001d1	50		 push	 eax
  001d2	8d 85 50 ff ff
	ff		 lea	 eax, DWORD PTR _stSkinInfo$[ebp+20]
  001d8	50		 push	 eax
  001d9	e8 00 00 00 00	 call	 ?AfxExtractSubString@@YGHAAV?$CStringT@DV?$StrTraitMFC_DLL@DV?$ChTraitsCRT@D@ATL@@@@@ATL@@PBDHD@Z ; AfxExtractSubString

; 173  : 		AfxExtractSubString(stSkinInfo.m_szSubColorTableInfo, szInoBuf, nCol++, '|');

  001de	6a 7c		 push	 124			; 0000007cH
  001e0	6a 06		 push	 6
  001e2	8d 85 58 ff ff
	ff		 lea	 eax, DWORD PTR _aBuffer$[ebp]
  001e8	50		 push	 eax
  001e9	8d 85 54 ff ff
	ff		 lea	 eax, DWORD PTR _stSkinInfo$[ebp+24]
  001ef	50		 push	 eax
  001f0	e8 00 00 00 00	 call	 ?AfxExtractSubString@@YGHAAV?$CStringT@DV?$StrTraitMFC_DLL@DV?$ChTraitsCRT@D@ATL@@@@@ATL@@PBDHD@Z ; AfxExtractSubString

; 174  : 
; 175  : 		stSkinInfo.m_szBKImage += ".bmp";

  001f5	68 00 00 00 00	 push	 OFFSET ??_C@_04LJDDIHIK@?4bmp@
  001fa	8d 8d 44 ff ff
	ff		 lea	 ecx, DWORD PTR _stSkinInfo$[ebp+8]
  00200	ff 15 00 00 00
	00		 call	 DWORD PTR __imp_??Y?$CStringT@DV?$StrTraitMFC_DLL@DV?$ChTraitsCRT@D@ATL@@@@@ATL@@QAEAAV01@PBD@Z
; File D:\git\src\IBK\IBK_DRFN\ProjSrc\SrcDrfn\DrCommon\PcTrMng\_SkinColorManager.cpp

; 299  : 		m_ArrSkinInfo.SetAt(i, stSkinInfo);

  00206	8d 85 1c ff ff
	ff		 lea	 eax, DWORD PTR $T2[ebp]
  0020c	89 85 10 ff ff
	ff		 mov	 DWORD PTR _this$[ebp], eax
  00212	8d 8d 1c ff ff
	ff		 lea	 ecx, DWORD PTR $T2[ebp]
  00218	8d 85 3c ff ff
	ff		 lea	 eax, DWORD PTR _stSkinInfo$[ebp]
  0021e	50		 push	 eax
  0021f	ff 15 00 00 00
	00		 call	 DWORD PTR __imp_??0?$CStringT@DV?$StrTraitMFC_DLL@DV?$ChTraitsCRT@D@ATL@@@@@ATL@@QAE@ABV01@@Z
  00225	8d 85 40 ff ff
	ff		 lea	 eax, DWORD PTR _stSkinInfo$[ebp+4]
  0022b	c6 45 fc 01	 mov	 BYTE PTR __$EHRec$[ebp+8], 1
  0022f	50		 push	 eax
  00230	8d 8d 20 ff ff
	ff		 lea	 ecx, DWORD PTR $T2[ebp+4]
  00236	ff 15 00 00 00
	00		 call	 DWORD PTR __imp_??0?$CStringT@DV?$StrTraitMFC_DLL@DV?$ChTraitsCRT@D@ATL@@@@@ATL@@QAE@ABV01@@Z
  0023c	8d 85 44 ff ff
	ff		 lea	 eax, DWORD PTR _stSkinInfo$[ebp+8]
  00242	c6 45 fc 02	 mov	 BYTE PTR __$EHRec$[ebp+8], 2
  00246	50		 push	 eax
  00247	8d 8d 24 ff ff
	ff		 lea	 ecx, DWORD PTR $T2[ebp+8]
  0024d	ff 15 00 00 00
	00		 call	 DWORD PTR __imp_??0?$CStringT@DV?$StrTraitMFC_DLL@DV?$ChTraitsCRT@D@ATL@@@@@ATL@@QAE@ABV01@@Z
  00253	8d 85 48 ff ff
	ff		 lea	 eax, DWORD PTR _stSkinInfo$[ebp+12]
  00259	c6 45 fc 03	 mov	 BYTE PTR __$EHRec$[ebp+8], 3
  0025d	50		 push	 eax
  0025e	8d 8d 28 ff ff
	ff		 lea	 ecx, DWORD PTR $T2[ebp+12]
  00264	ff 15 00 00 00
	00		 call	 DWORD PTR __imp_??0?$CStringT@DV?$StrTraitMFC_DLL@DV?$ChTraitsCRT@D@ATL@@@@@ATL@@QAE@ABV01@@Z
  0026a	8d 85 4c ff ff
	ff		 lea	 eax, DWORD PTR _stSkinInfo$[ebp+16]
  00270	c6 45 fc 04	 mov	 BYTE PTR __$EHRec$[ebp+8], 4
  00274	50		 push	 eax
  00275	8d 8d 2c ff ff
	ff		 lea	 ecx, DWORD PTR $T2[ebp+16]
  0027b	ff 15 00 00 00
	00		 call	 DWORD PTR __imp_??0?$CStringT@DV?$StrTraitMFC_DLL@DV?$ChTraitsCRT@D@ATL@@@@@ATL@@QAE@ABV01@@Z
  00281	8d 85 50 ff ff
	ff		 lea	 eax, DWORD PTR _stSkinInfo$[ebp+20]
  00287	c6 45 fc 05	 mov	 BYTE PTR __$EHRec$[ebp+8], 5
  0028b	50		 push	 eax
  0028c	8d 8d 30 ff ff
	ff		 lea	 ecx, DWORD PTR $T2[ebp+20]
  00292	ff 15 00 00 00
	00		 call	 DWORD PTR __imp_??0?$CStringT@DV?$StrTraitMFC_DLL@DV?$ChTraitsCRT@D@ATL@@@@@ATL@@QAE@ABV01@@Z
  00298	8d 85 54 ff ff
	ff		 lea	 eax, DWORD PTR _stSkinInfo$[ebp+24]
  0029e	c6 45 fc 06	 mov	 BYTE PTR __$EHRec$[ebp+8], 6
  002a2	50		 push	 eax
  002a3	8d 8d 34 ff ff
	ff		 lea	 ecx, DWORD PTR $T2[ebp+24]
  002a9	ff 15 00 00 00
	00		 call	 DWORD PTR __imp_??0?$CStringT@DV?$StrTraitMFC_DLL@DV?$ChTraitsCRT@D@ATL@@@@@ATL@@QAE@ABV01@@Z
; File C:\Program Files (x86)\Microsoft Visual Studio\2019\Community\VC\Tools\MSVC\14.29.30133\atlmfc\include\afxtempl.h

; 302  : {

  002af	c6 45 fc 07	 mov	 BYTE PTR __$EHRec$[ebp+8], 7

; 303  : 	ASSERT(nIndex >= 0 && nIndex < m_nSize);
; 304  : 	if(nIndex >= 0 && nIndex < m_nSize)

  002b3	85 db		 test	 ebx, ebx
  002b5	0f 88 02 01 00
	00		 js	 $LN37@LoadSkinIn
  002bb	3b 7e 3c	 cmp	 edi, DWORD PTR [esi+60]
  002be	0f 8d f9 00 00
	00		 jge	 $LN37@LoadSkinIn

; 305  : 		m_pData[nIndex] = newElement;

  002c4	8b 4e 38	 mov	 ecx, DWORD PTR [esi+56]
  002c7	8d 85 1c ff ff
	ff		 lea	 eax, DWORD PTR $T2[ebp]
  002cd	50		 push	 eax
  002ce	03 cb		 add	 ecx, ebx
  002d0	e8 00 00 00 00	 call	 ??4ST_SKININFO@@QAEAAU0@ABU0@@Z
  002d5	8d 8d 34 ff ff
	ff		 lea	 ecx, DWORD PTR $T2[ebp+24]

; 308  : }

  002db	c6 45 fc 00	 mov	 BYTE PTR __$EHRec$[ebp+8], 0
  002df	ff 15 00 00 00
	00		 call	 DWORD PTR __imp_??1?$CStringT@DV?$StrTraitMFC_DLL@DV?$ChTraitsCRT@D@ATL@@@@@ATL@@QAE@XZ
  002e5	8d 8d 30 ff ff
	ff		 lea	 ecx, DWORD PTR $T2[ebp+20]
  002eb	ff 15 00 00 00
	00		 call	 DWORD PTR __imp_??1?$CStringT@DV?$StrTraitMFC_DLL@DV?$ChTraitsCRT@D@ATL@@@@@ATL@@QAE@XZ
  002f1	8d 8d 2c ff ff
	ff		 lea	 ecx, DWORD PTR $T2[ebp+16]
  002f7	ff 15 00 00 00
	00		 call	 DWORD PTR __imp_??1?$CStringT@DV?$StrTraitMFC_DLL@DV?$ChTraitsCRT@D@ATL@@@@@ATL@@QAE@XZ
  002fd	8d 8d 28 ff ff
	ff		 lea	 ecx, DWORD PTR $T2[ebp+12]
  00303	ff 15 00 00 00
	00		 call	 DWORD PTR __imp_??1?$CStringT@DV?$StrTraitMFC_DLL@DV?$ChTraitsCRT@D@ATL@@@@@ATL@@QAE@XZ
  00309	8d 8d 24 ff ff
	ff		 lea	 ecx, DWORD PTR $T2[ebp+8]
  0030f	ff 15 00 00 00
	00		 call	 DWORD PTR __imp_??1?$CStringT@DV?$StrTraitMFC_DLL@DV?$ChTraitsCRT@D@ATL@@@@@ATL@@QAE@XZ
  00315	8d 8d 20 ff ff
	ff		 lea	 ecx, DWORD PTR $T2[ebp+4]
  0031b	ff 15 00 00 00
	00		 call	 DWORD PTR __imp_??1?$CStringT@DV?$StrTraitMFC_DLL@DV?$ChTraitsCRT@D@ATL@@@@@ATL@@QAE@XZ
  00321	8d 8d 1c ff ff
	ff		 lea	 ecx, DWORD PTR $T2[ebp]
  00327	ff 15 00 00 00
	00		 call	 DWORD PTR __imp_??1?$CStringT@DV?$StrTraitMFC_DLL@DV?$ChTraitsCRT@D@ATL@@@@@ATL@@QAE@XZ
; File D:\git\src\IBK\IBK_DRFN\ProjSrc\SrcDrfn\DrCommon\PcTrMng\_SkinColorManager.cpp

; 290  : 	for(int i=0; i<nCount; i++)

  0032d	8b bd 18 ff ff
	ff		 mov	 edi, DWORD PTR tv487[ebp]
  00333	83 c3 1c	 add	 ebx, 28			; 0000001cH
  00336	3b bd 14 ff ff
	ff		 cmp	 edi, DWORD PTR _nCount$1$[ebp]
  0033c	0f 8c ce fd ff
	ff		 jl	 $LL4@LoadSkinIn
$LN3@LoadSkinIn:
  00342	33 c0		 xor	 eax, eax
  00344	8d 8d 54 ff ff
	ff		 lea	 ecx, DWORD PTR _stSkinInfo$[ebp+24]
  0034a	39 46 3c	 cmp	 DWORD PTR [esi+60], eax
  0034d	0f 9f c0	 setg	 al
  00350	89 46 48	 mov	 DWORD PTR [esi+72], eax
  00353	ff 15 00 00 00
	00		 call	 DWORD PTR __imp_??1?$CStringT@DV?$StrTraitMFC_DLL@DV?$ChTraitsCRT@D@ATL@@@@@ATL@@QAE@XZ
  00359	8d 8d 50 ff ff
	ff		 lea	 ecx, DWORD PTR _stSkinInfo$[ebp+20]
  0035f	ff 15 00 00 00
	00		 call	 DWORD PTR __imp_??1?$CStringT@DV?$StrTraitMFC_DLL@DV?$ChTraitsCRT@D@ATL@@@@@ATL@@QAE@XZ
  00365	8d 8d 4c ff ff
	ff		 lea	 ecx, DWORD PTR _stSkinInfo$[ebp+16]
  0036b	ff 15 00 00 00
	00		 call	 DWORD PTR __imp_??1?$CStringT@DV?$StrTraitMFC_DLL@DV?$ChTraitsCRT@D@ATL@@@@@ATL@@QAE@XZ
  00371	8d 8d 48 ff ff
	ff		 lea	 ecx, DWORD PTR _stSkinInfo$[ebp+12]
  00377	ff 15 00 00 00
	00		 call	 DWORD PTR __imp_??1?$CStringT@DV?$StrTraitMFC_DLL@DV?$ChTraitsCRT@D@ATL@@@@@ATL@@QAE@XZ
  0037d	8d 8d 44 ff ff
	ff		 lea	 ecx, DWORD PTR _stSkinInfo$[ebp+8]
  00383	ff 15 00 00 00
	00		 call	 DWORD PTR __imp_??1?$CStringT@DV?$StrTraitMFC_DLL@DV?$ChTraitsCRT@D@ATL@@@@@ATL@@QAE@XZ
  00389	8d 8d 40 ff ff
	ff		 lea	 ecx, DWORD PTR _stSkinInfo$[ebp+4]
  0038f	ff 15 00 00 00
	00		 call	 DWORD PTR __imp_??1?$CStringT@DV?$StrTraitMFC_DLL@DV?$ChTraitsCRT@D@ATL@@@@@ATL@@QAE@XZ
  00395	8d 8d 3c ff ff
	ff		 lea	 ecx, DWORD PTR _stSkinInfo$[ebp]
  0039b	ff 15 00 00 00
	00		 call	 DWORD PTR __imp_??1?$CStringT@DV?$StrTraitMFC_DLL@DV?$ChTraitsCRT@D@ATL@@@@@ATL@@QAE@XZ

; 304  : }

  003a1	8b 4d f4	 mov	 ecx, DWORD PTR __$EHRec$[ebp]
  003a4	64 89 0d 00 00
	00 00		 mov	 DWORD PTR fs:0, ecx
  003ab	59		 pop	 ecx
  003ac	5f		 pop	 edi
  003ad	5e		 pop	 esi
  003ae	5b		 pop	 ebx
  003af	8b 4d f0	 mov	 ecx, DWORD PTR __$ArrayPad$[ebp]
  003b2	33 cd		 xor	 ecx, ebp
  003b4	e8 00 00 00 00	 call	 @__security_check_cookie@4
  003b9	8b e5		 mov	 esp, ebp
  003bb	5d		 pop	 ebp
  003bc	c3		 ret	 0
$LN37@LoadSkinIn:
; File C:\Program Files (x86)\Microsoft Visual Studio\2019\Community\VC\Tools\MSVC\14.29.30133\atlmfc\include\afxtempl.h

; 307  : 		AfxThrowInvalidArgException();

  003bd	e8 00 00 00 00	 call	 ?AfxThrowInvalidArgException@@YGXXZ ; AfxThrowInvalidArgException
$LN53@LoadSkinIn:
  003c2	cc		 int	 3
_TEXT	ENDS
;	COMDAT text$x
text$x	SEGMENT
__unwindfunclet$?LoadSkinInfo@CSkinColorManager@@QAEXXZ$0:
  00000	8d 8d 3c ff ff
	ff		 lea	 ecx, DWORD PTR _stSkinInfo$[ebp]
  00006	e9 00 00 00 00	 jmp	 ??1ST_SKININFO@@QAE@XZ
__unwindfunclet$?LoadSkinInfo@CSkinColorManager@@QAEXXZ$3:
  0000b	8b 8d 10 ff ff
	ff		 mov	 ecx, DWORD PTR _this$[ebp]
  00011	ff 25 00 00 00
	00		 jmp	 DWORD PTR __imp_??1?$CStringT@DV?$StrTraitMFC_DLL@DV?$ChTraitsCRT@D@ATL@@@@@ATL@@QAE@XZ
__unwindfunclet$?LoadSkinInfo@CSkinColorManager@@QAEXXZ$4:
  00017	8b 8d 10 ff ff
	ff		 mov	 ecx, DWORD PTR _this$[ebp]
  0001d	83 c1 04	 add	 ecx, 4
  00020	ff 25 00 00 00
	00		 jmp	 DWORD PTR __imp_??1?$CStringT@DV?$StrTraitMFC_DLL@DV?$ChTraitsCRT@D@ATL@@@@@ATL@@QAE@XZ
__unwindfunclet$?LoadSkinInfo@CSkinColorManager@@QAEXXZ$5:
  00026	8b 8d 10 ff ff
	ff		 mov	 ecx, DWORD PTR _this$[ebp]
  0002c	83 c1 08	 add	 ecx, 8
  0002f	ff 25 00 00 00
	00		 jmp	 DWORD PTR __imp_??1?$CStringT@DV?$StrTraitMFC_DLL@DV?$ChTraitsCRT@D@ATL@@@@@ATL@@QAE@XZ
__unwindfunclet$?LoadSkinInfo@CSkinColorManager@@QAEXXZ$6:
  00035	8b 8d 10 ff ff
	ff		 mov	 ecx, DWORD PTR _this$[ebp]
  0003b	83 c1 0c	 add	 ecx, 12			; 0000000cH
  0003e	ff 25 00 00 00
	00		 jmp	 DWORD PTR __imp_??1?$CStringT@DV?$StrTraitMFC_DLL@DV?$ChTraitsCRT@D@ATL@@@@@ATL@@QAE@XZ
__unwindfunclet$?LoadSkinInfo@CSkinColorManager@@QAEXXZ$7:
  00044	8b 8d 10 ff ff
	ff		 mov	 ecx, DWORD PTR _this$[ebp]
  0004a	83 c1 10	 add	 ecx, 16			; 00000010H
  0004d	ff 25 00 00 00
	00		 jmp	 DWORD PTR __imp_??1?$CStringT@DV?$StrTraitMFC_DLL@DV?$ChTraitsCRT@D@ATL@@@@@ATL@@QAE@XZ
__unwindfunclet$?LoadSkinInfo@CSkinColorManager@@QAEXXZ$8:
  00053	8b 8d 10 ff ff
	ff		 mov	 ecx, DWORD PTR _this$[ebp]
  00059	83 c1 14	 add	 ecx, 20			; 00000014H
  0005c	ff 25 00 00 00
	00		 jmp	 DWORD PTR __imp_??1?$CStringT@DV?$StrTraitMFC_DLL@DV?$ChTraitsCRT@D@ATL@@@@@ATL@@QAE@XZ
__unwindfunclet$?LoadSkinInfo@CSkinColorManager@@QAEXXZ$10:
  00062	8d 8d 1c ff ff
	ff		 lea	 ecx, DWORD PTR $T2[ebp]
  00068	e9 00 00 00 00	 jmp	 ??1ST_SKININFO@@QAE@XZ
  0006d	cc		 int	 3
  0006e	cc		 int	 3
  0006f	cc		 int	 3
  00070	cc		 int	 3
  00071	cc		 int	 3
__ehhandler$?LoadSkinInfo@CSkinColorManager@@QAEXXZ:
  00072	90		 npad	 1
  00073	90		 npad	 1
  00074	8b 54 24 08	 mov	 edx, DWORD PTR [esp+8]
  00078	8d 42 0c	 lea	 eax, DWORD PTR [edx+12]
  0007b	8b 8a 0c ff ff
	ff		 mov	 ecx, DWORD PTR [edx-244]
  00081	33 c8		 xor	 ecx, eax
  00083	e8 00 00 00 00	 call	 @__security_check_cookie@4
  00088	8b 4a fc	 mov	 ecx, DWORD PTR [edx-4]
  0008b	33 c8		 xor	 ecx, eax
  0008d	e8 00 00 00 00	 call	 @__security_check_cookie@4
  00092	b8 00 00 00 00	 mov	 eax, OFFSET __ehfuncinfo$?LoadSkinInfo@CSkinColorManager@@QAEXXZ
  00097	e9 00 00 00 00	 jmp	 ___CxxFrameHandler3
text$x	ENDS
?LoadSkinInfo@CSkinColorManager@@QAEXXZ ENDP		; CSkinColorManager::LoadSkinInfo
; Function compile flags: /Ogtp
; File D:\git\src\IBK\IBK_DRFN\ProjSrc\SrcDrfn\DrCommon\PcTrMng\_SkinColorManager.cpp
; File C:\Program Files (x86)\Microsoft Visual Studio\2019\Community\VC\Tools\MSVC\14.29.30133\atlmfc\include\afxtempl.h
; File D:\git\src\IBK\IBK_DRFN\ProjSrc\SrcDrfn\DrCommon\PcTrMng\_SkinColorManager.cpp
; File C:\Program Files (x86)\Microsoft Visual Studio\2019\Community\VC\Tools\MSVC\14.29.30133\atlmfc\include\afxtempl.h
; File D:\git\src\IBK\IBK_DRFN\ProjSrc\SrcDrfn\DrCommon\PcTrMng\_SkinColorManager.cpp
; File C:\Program Files (x86)\Microsoft Visual Studio\2019\Community\VC\Tools\MSVC\14.29.30133\atlmfc\include\afxtempl.h
; File D:\git\src\IBK\IBK_DRFN\ProjSrc\SrcDrfn\DrCommon\PcTrMng\_SkinColorManager.cpp
; File C:\Program Files (x86)\Microsoft Visual Studio\2019\Community\VC\Tools\MSVC\14.29.30133\atlmfc\include\afxtempl.h
; File D:\git\src\IBK\IBK_DRFN\ProjSrc\SrcDrfn\DrCommon\PcTrMng\_SkinColorManager.cpp
;	COMDAT ??1CSkinColorManager@@QAE@XZ
_TEXT	SEGMENT
__$EHRec$ = -12						; size = 12
??1CSkinColorManager@@QAE@XZ PROC			; CSkinColorManager::~CSkinColorManager, COMDAT
; _this$ = ecx

; 15   : {

  00000	55		 push	 ebp
  00001	8b ec		 mov	 ebp, esp
  00003	6a ff		 push	 -1
  00005	68 00 00 00 00	 push	 __ehhandler$??1CSkinColorManager@@QAE@XZ
  0000a	64 a1 00 00 00
	00		 mov	 eax, DWORD PTR fs:0
  00010	50		 push	 eax
  00011	53		 push	 ebx
  00012	56		 push	 esi
  00013	57		 push	 edi
  00014	a1 00 00 00 00	 mov	 eax, DWORD PTR ___security_cookie
  00019	33 c5		 xor	 eax, ebp
  0001b	50		 push	 eax
  0001c	8d 45 f4	 lea	 eax, DWORD PTR __$EHRec$[ebp]
  0001f	64 a3 00 00 00
	00		 mov	 DWORD PTR fs:0, eax
  00025	8b f1		 mov	 esi, ecx

; 16   : 	m_ArrColorTable.RemoveAll();

  00027	8d 5e 04	 lea	 ebx, DWORD PTR [esi+4]
  0002a	c7 06 00 00 00
	00		 mov	 DWORD PTR [esi], OFFSET ??_7CSkinColorManager@@6B@
  00030	8b cb		 mov	 ecx, ebx
  00032	e8 00 00 00 00	 call	 ?RemoveAll@?$CArray@U_tabUserColorTable@@U1@@@QAEXXZ ; CArray<_tabUserColorTable,_tabUserColorTable>::RemoveAll
; File C:\Program Files (x86)\Microsoft Visual Studio\2019\Community\VC\Tools\MSVC\14.29.30133\atlmfc\include\afxtempl.h

; 872  : 	m_pBlocks->FreeDataChain();

  00037	8b 4e 2c	 mov	 ecx, DWORD PTR [esi+44]
  0003a	c7 46 24 00 00
	00 00		 mov	 DWORD PTR [esi+36], 0
  00041	c7 46 28 00 00
	00 00		 mov	 DWORD PTR [esi+40], 0
  00048	c7 46 20 00 00
	00 00		 mov	 DWORD PTR [esi+32], 0
  0004f	c7 46 1c 00 00
	00 00		 mov	 DWORD PTR [esi+28], 0
  00056	e8 00 00 00 00	 call	 ?FreeDataChain@CPlex@@QAEXXZ ; CPlex::FreeDataChain

; 283  : 	{ SetSize(0, -1); }

  0005b	6a ff		 push	 -1
; File D:\git\src\IBK\IBK_DRFN\ProjSrc\SrcDrfn\DrCommon\PcTrMng\_SkinColorManager.cpp

; 20   : 	m_ArrSkinInfo.RemoveAll();

  0005d	8d 7e 34	 lea	 edi, DWORD PTR [esi+52]
; File C:\Program Files (x86)\Microsoft Visual Studio\2019\Community\VC\Tools\MSVC\14.29.30133\atlmfc\include\afxtempl.h

; 873  : 	m_pBlocks = NULL;

  00060	c7 46 2c 00 00
	00 00		 mov	 DWORD PTR [esi+44], 0

; 283  : 	{ SetSize(0, -1); }

  00067	6a 00		 push	 0
  00069	8b cf		 mov	 ecx, edi
  0006b	e8 00 00 00 00	 call	 ?SetSize@?$CArray@UST_SKININFO@@U1@@@QAEXHH@Z ; CArray<ST_SKININFO,ST_SKININFO>::SetSize

; 381  : 		if (m_pData != NULL)

  00070	8b 46 08	 mov	 eax, DWORD PTR [esi+8]
  00073	85 c0		 test	 eax, eax
  00075	74 31		 je	 SHORT $LN30@CSkinColor

; 382  : 		{
; 383  : 			for( int i = 0; i < m_nSize; i++ )

  00077	33 ff		 xor	 edi, edi
  00079	39 7e 0c	 cmp	 DWORD PTR [esi+12], edi
  0007c	7e 17		 jle	 SHORT $LN12@CSkinColor
  0007e	66 90		 npad	 2
$LL13@CSkinColor:

; 384  : 				(m_pData + i)->~TYPE();

  00080	8b 46 08	 mov	 eax, DWORD PTR [esi+8]
  00083	8d 0c f8	 lea	 ecx, DWORD PTR [eax+edi*8]
  00086	ff 15 00 00 00
	00		 call	 DWORD PTR __imp_??1?$CStringT@DV?$StrTraitMFC_DLL@DV?$ChTraitsCRT@D@ATL@@@@@ATL@@QAE@XZ

; 382  : 		{
; 383  : 			for( int i = 0; i < m_nSize; i++ )

  0008c	47		 inc	 edi
  0008d	3b 7e 0c	 cmp	 edi, DWORD PTR [esi+12]
  00090	7c ee		 jl	 SHORT $LL13@CSkinColor
  00092	8b 46 08	 mov	 eax, DWORD PTR [esi+8]
$LN12@CSkinColor:

; 385  : 			delete[] (BYTE*)m_pData;

  00095	50		 push	 eax
  00096	e8 00 00 00 00	 call	 ??_V@YAXPAX@Z		; operator delete[]
  0009b	83 c4 04	 add	 esp, 4

; 386  : 			m_pData = NULL;

  0009e	c7 46 08 00 00
	00 00		 mov	 DWORD PTR [esi+8], 0
  000a5	8d 7e 34	 lea	 edi, DWORD PTR [esi+52]
$LN30@CSkinColor:
; File D:\git\src\IBK\IBK_DRFN\ProjSrc\SrcDrfn\DrCommon\PcTrMng\_SkinColorManager.cpp

; 24   : 	m_ArrSkinInfo.SetSize(0);

  000a8	6a ff		 push	 -1
  000aa	6a 00		 push	 0
  000ac	8b cf		 mov	 ecx, edi
; File C:\Program Files (x86)\Microsoft Visual Studio\2019\Community\VC\Tools\MSVC\14.29.30133\atlmfc\include\afxtempl.h

; 388  : 		m_nSize = m_nMaxSize = 0;

  000ae	c7 46 10 00 00
	00 00		 mov	 DWORD PTR [esi+16], 0
  000b5	c7 46 0c 00 00
	00 00		 mov	 DWORD PTR [esi+12], 0
; File D:\git\src\IBK\IBK_DRFN\ProjSrc\SrcDrfn\DrCommon\PcTrMng\_SkinColorManager.cpp

; 24   : 	m_ArrSkinInfo.SetSize(0);

  000bc	e8 00 00 00 00	 call	 ?SetSize@?$CArray@UST_SKININFO@@U1@@@QAEXHH@Z ; CArray<ST_SKININFO,ST_SKININFO>::SetSize

; 25   : }

  000c1	8d 4e 4c	 lea	 ecx, DWORD PTR [esi+76]
  000c4	ff 15 00 00 00
	00		 call	 DWORD PTR __imp_??1?$CStringT@DV?$StrTraitMFC_DLL@DV?$ChTraitsCRT@D@ATL@@@@@ATL@@QAE@XZ
  000ca	8b cf		 mov	 ecx, edi
  000cc	e8 00 00 00 00	 call	 ??1?$CArray@UST_SKININFO@@U1@@@UAE@XZ ; CArray<ST_SKININFO,ST_SKININFO>::~CArray<ST_SKININFO,ST_SKININFO>
; File C:\Program Files (x86)\Microsoft Visual Studio\2019\Community\VC\Tools\MSVC\14.29.30133\atlmfc\include\afxtempl.h

; 872  : 	m_pBlocks->FreeDataChain();

  000d1	8b 4e 2c	 mov	 ecx, DWORD PTR [esi+44]

; 878  : {

  000d4	c7 45 fc 00 00
	00 00		 mov	 DWORD PTR __$EHRec$[ebp+8], 0
  000db	c7 46 18 00 00
	00 00		 mov	 DWORD PTR [esi+24], OFFSET ??_7?$CList@PAUISkinColorSite@@PAU1@@@6B@

; 870  : 	m_nCount = 0;

  000e2	c7 46 24 00 00
	00 00		 mov	 DWORD PTR [esi+36], 0

; 871  : 	m_pNodeHead = m_pNodeTail = m_pNodeFree = NULL;

  000e9	c7 46 28 00 00
	00 00		 mov	 DWORD PTR [esi+40], 0
  000f0	c7 46 20 00 00
	00 00		 mov	 DWORD PTR [esi+32], 0
  000f7	c7 46 1c 00 00
	00 00		 mov	 DWORD PTR [esi+28], 0

; 872  : 	m_pBlocks->FreeDataChain();

  000fe	e8 00 00 00 00	 call	 ?FreeDataChain@CPlex@@QAEXXZ ; CPlex::FreeDataChain

; 873  : 	m_pBlocks = NULL;

  00103	c7 46 2c 00 00
	00 00		 mov	 DWORD PTR [esi+44], 0

; 358  : 	if (m_pData != NULL)

  0010a	8b 43 04	 mov	 eax, DWORD PTR [ebx+4]
  0010d	c7 03 00 00 00
	00		 mov	 DWORD PTR [ebx], OFFSET ??_7?$CArray@U_tabUserColorTable@@U1@@@6B@
  00113	85 c0		 test	 eax, eax
  00115	74 27		 je	 SHORT $LN91@CSkinColor

; 359  : 	{
; 360  : 		for( int i = 0; i < m_nSize; i++ )

  00117	33 f6		 xor	 esi, esi
  00119	39 73 08	 cmp	 DWORD PTR [ebx+8], esi
  0011c	7e 17		 jle	 SHORT $LN89@CSkinColor
  0011e	66 90		 npad	 2
$LL90@CSkinColor:

; 361  : 			(m_pData + i)->~TYPE();

  00120	8b 43 04	 mov	 eax, DWORD PTR [ebx+4]
  00123	8d 0c f0	 lea	 ecx, DWORD PTR [eax+esi*8]
  00126	ff 15 00 00 00
	00		 call	 DWORD PTR __imp_??1?$CStringT@DV?$StrTraitMFC_DLL@DV?$ChTraitsCRT@D@ATL@@@@@ATL@@QAE@XZ

; 359  : 	{
; 360  : 		for( int i = 0; i < m_nSize; i++ )

  0012c	46		 inc	 esi
  0012d	3b 73 08	 cmp	 esi, DWORD PTR [ebx+8]
  00130	7c ee		 jl	 SHORT $LL90@CSkinColor
  00132	8b 43 04	 mov	 eax, DWORD PTR [ebx+4]
$LN89@CSkinColor:

; 362  : 		delete[] (BYTE*)m_pData;

  00135	50		 push	 eax
  00136	e8 00 00 00 00	 call	 ??_V@YAXPAX@Z		; operator delete[]
  0013b	83 c4 04	 add	 esp, 4
$LN91@CSkinColor:
; File D:\git\src\IBK\IBK_DRFN\ProjSrc\SrcDrfn\DrCommon\PcTrMng\_SkinColorManager.cpp

; 25   : }

  0013e	8b 4d f4	 mov	 ecx, DWORD PTR __$EHRec$[ebp]
  00141	64 89 0d 00 00
	00 00		 mov	 DWORD PTR fs:0, ecx
  00148	59		 pop	 ecx
  00149	5f		 pop	 edi
  0014a	5e		 pop	 esi
  0014b	5b		 pop	 ebx
  0014c	8b e5		 mov	 esp, ebp
  0014e	5d		 pop	 ebp
  0014f	c3		 ret	 0
  00150	cc		 int	 3
  00151	cc		 int	 3
  00152	cc		 int	 3
  00153	cc		 int	 3
  00154	cc		 int	 3
_TEXT	ENDS
;	COMDAT text$x
text$x	SEGMENT
__ehhandler$??1CSkinColorManager@@QAE@XZ:
  00000	90		 npad	 1
  00001	90		 npad	 1
  00002	8b 54 24 08	 mov	 edx, DWORD PTR [esp+8]
  00006	8d 42 0c	 lea	 eax, DWORD PTR [edx+12]
  00009	8b 4a f0	 mov	 ecx, DWORD PTR [edx-16]
  0000c	33 c8		 xor	 ecx, eax
  0000e	e8 00 00 00 00	 call	 @__security_check_cookie@4
  00013	b8 00 00 00 00	 mov	 eax, OFFSET __ehfuncinfo$??1CSkinColorManager@@QAE@XZ
  00018	e9 00 00 00 00	 jmp	 ___CxxFrameHandler3
text$x	ENDS
??1CSkinColorManager@@QAE@XZ ENDP			; CSkinColorManager::~CSkinColorManager
; Function compile flags: /Ogtp
; File D:\git\src\IBK\IBK_DRFN\ProjSrc\SrcDrfn\DrCommon\PcTrMng\_SkinColorManager.cpp
; File C:\Program Files (x86)\Microsoft Visual Studio\2019\Community\VC\Tools\MSVC\14.29.30133\atlmfc\include\afxtempl.h
; File D:\git\src\IBK\IBK_DRFN\ProjSrc\SrcDrfn\DrCommon\PcTrMng\_SkinColorManager.cpp
;	COMDAT ??0CSkinColorManager@@QAE@XZ
_TEXT	SEGMENT
_this$ = -4						; size = 4
??0CSkinColorManager@@QAE@XZ PROC			; CSkinColorManager::CSkinColorManager, COMDAT
; _this$ = ecx

; 10   : {

  00000	55		 push	 ebp
  00001	8b ec		 mov	 ebp, esp
  00003	51		 push	 ecx
  00004	56		 push	 esi
  00005	8b f1		 mov	 esi, ecx
  00007	89 75 fc	 mov	 DWORD PTR _this$[ebp], esi
  0000a	c7 06 00 00 00
	00		 mov	 DWORD PTR [esi], OFFSET ??_7CSkinColorManager@@6B@
  00010	8d 4e 4c	 lea	 ecx, DWORD PTR [esi+76]
; File C:\Program Files (x86)\Microsoft Visual Studio\2019\Community\VC\Tools\MSVC\14.29.30133\atlmfc\include\afxtempl.h

; 348  : {

  00013	c7 46 04 00 00
	00 00		 mov	 DWORD PTR [esi+4], OFFSET ??_7?$CArray@U_tabUserColorTable@@U1@@@6B@

; 349  : 	m_pData = NULL;

  0001a	c7 46 08 00 00
	00 00		 mov	 DWORD PTR [esi+8], 0

; 350  : 	m_nSize = m_nMaxSize = m_nGrowBy = 0;

  00021	c7 46 14 00 00
	00 00		 mov	 DWORD PTR [esi+20], 0
  00028	c7 46 10 00 00
	00 00		 mov	 DWORD PTR [esi+16], 0
  0002f	c7 46 0c 00 00
	00 00		 mov	 DWORD PTR [esi+12], 0

; 851  : {

  00036	c7 46 18 00 00
	00 00		 mov	 DWORD PTR [esi+24], OFFSET ??_7?$CList@PAUISkinColorSite@@PAU1@@@6B@

; 852  : 	ASSERT(nBlockSize > 0);
; 853  : 
; 854  : 	m_nCount = 0;

  0003d	c7 46 24 00 00
	00 00		 mov	 DWORD PTR [esi+36], 0

; 855  : 	m_pNodeHead = m_pNodeTail = m_pNodeFree = NULL;

  00044	c7 46 28 00 00
	00 00		 mov	 DWORD PTR [esi+40], 0
  0004b	c7 46 20 00 00
	00 00		 mov	 DWORD PTR [esi+32], 0
  00052	c7 46 1c 00 00
	00 00		 mov	 DWORD PTR [esi+28], 0

; 856  : 	m_pBlocks = NULL;

  00059	c7 46 2c 00 00
	00 00		 mov	 DWORD PTR [esi+44], 0

; 857  : 	m_nBlockSize = nBlockSize;

  00060	c7 46 30 0a 00
	00 00		 mov	 DWORD PTR [esi+48], 10	; 0000000aH

; 348  : {

  00067	c7 46 34 00 00
	00 00		 mov	 DWORD PTR [esi+52], OFFSET ??_7?$CArray@UST_SKININFO@@U1@@@6B@

; 349  : 	m_pData = NULL;

  0006e	c7 46 38 00 00
	00 00		 mov	 DWORD PTR [esi+56], 0

; 350  : 	m_nSize = m_nMaxSize = m_nGrowBy = 0;

  00075	c7 46 44 00 00
	00 00		 mov	 DWORD PTR [esi+68], 0
  0007c	c7 46 40 00 00
	00 00		 mov	 DWORD PTR [esi+64], 0
  00083	c7 46 3c 00 00
	00 00		 mov	 DWORD PTR [esi+60], 0
; File D:\git\src\IBK\IBK_DRFN\ProjSrc\SrcDrfn\DrCommon\PcTrMng\_SkinColorManager.cpp

; 10   : {

  0008a	ff 15 00 00 00
	00		 call	 DWORD PTR __imp_??0?$CStringT@DV?$StrTraitMFC_DLL@DV?$ChTraitsCRT@D@ATL@@@@@ATL@@QAE@XZ

; 11   : 	m_bLoadedCfgInfo = FALSE;

  00090	c7 46 48 00 00
	00 00		 mov	 DWORD PTR [esi+72], 0

; 12   : }

  00097	8b c6		 mov	 eax, esi
  00099	5e		 pop	 esi
  0009a	8b e5		 mov	 esp, ebp
  0009c	5d		 pop	 ebp
  0009d	c3		 ret	 0
??0CSkinColorManager@@QAE@XZ ENDP			; CSkinColorManager::CSkinColorManager
_TEXT	ENDS
; Function compile flags: /Ogtp
;	COMDAT ??4ST_SKININFO@@QAEAAU0@ABU0@@Z
_TEXT	SEGMENT
___that$ = 8						; size = 4
??4ST_SKININFO@@QAEAAU0@ABU0@@Z PROC			; ST_SKININFO::operator=, COMDAT
; _this$ = ecx
  00000	55		 push	 ebp
  00001	8b ec		 mov	 ebp, esp
  00003	56		 push	 esi
  00004	8b 75 08	 mov	 esi, DWORD PTR ___that$[ebp]
  00007	57		 push	 edi
  00008	56		 push	 esi
  00009	8b f9		 mov	 edi, ecx
  0000b	ff 15 00 00 00
	00		 call	 DWORD PTR __imp_??4?$CStringT@DV?$StrTraitMFC_DLL@DV?$ChTraitsCRT@D@ATL@@@@@ATL@@QAEAAV01@ABV01@@Z
  00011	8d 46 04	 lea	 eax, DWORD PTR [esi+4]
  00014	50		 push	 eax
  00015	8d 4f 04	 lea	 ecx, DWORD PTR [edi+4]
  00018	ff 15 00 00 00
	00		 call	 DWORD PTR __imp_??4?$CStringT@DV?$StrTraitMFC_DLL@DV?$ChTraitsCRT@D@ATL@@@@@ATL@@QAEAAV01@ABV01@@Z
  0001e	8d 46 08	 lea	 eax, DWORD PTR [esi+8]
  00021	50		 push	 eax
  00022	8d 4f 08	 lea	 ecx, DWORD PTR [edi+8]
  00025	ff 15 00 00 00
	00		 call	 DWORD PTR __imp_??4?$CStringT@DV?$StrTraitMFC_DLL@DV?$ChTraitsCRT@D@ATL@@@@@ATL@@QAEAAV01@ABV01@@Z
  0002b	8d 46 0c	 lea	 eax, DWORD PTR [esi+12]
  0002e	50		 push	 eax
  0002f	8d 4f 0c	 lea	 ecx, DWORD PTR [edi+12]
  00032	ff 15 00 00 00
	00		 call	 DWORD PTR __imp_??4?$CStringT@DV?$StrTraitMFC_DLL@DV?$ChTraitsCRT@D@ATL@@@@@ATL@@QAEAAV01@ABV01@@Z
  00038	8d 46 10	 lea	 eax, DWORD PTR [esi+16]
  0003b	50		 push	 eax
  0003c	8d 4f 10	 lea	 ecx, DWORD PTR [edi+16]
  0003f	ff 15 00 00 00
	00		 call	 DWORD PTR __imp_??4?$CStringT@DV?$StrTraitMFC_DLL@DV?$ChTraitsCRT@D@ATL@@@@@ATL@@QAEAAV01@ABV01@@Z
  00045	8d 46 14	 lea	 eax, DWORD PTR [esi+20]
  00048	50		 push	 eax
  00049	8d 4f 14	 lea	 ecx, DWORD PTR [edi+20]
  0004c	ff 15 00 00 00
	00		 call	 DWORD PTR __imp_??4?$CStringT@DV?$StrTraitMFC_DLL@DV?$ChTraitsCRT@D@ATL@@@@@ATL@@QAEAAV01@ABV01@@Z
  00052	8d 46 18	 lea	 eax, DWORD PTR [esi+24]
  00055	50		 push	 eax
  00056	8d 4f 18	 lea	 ecx, DWORD PTR [edi+24]
  00059	ff 15 00 00 00
	00		 call	 DWORD PTR __imp_??4?$CStringT@DV?$StrTraitMFC_DLL@DV?$ChTraitsCRT@D@ATL@@@@@ATL@@QAEAAV01@ABV01@@Z
  0005f	8b c7		 mov	 eax, edi
  00061	5f		 pop	 edi
  00062	5e		 pop	 esi
  00063	5d		 pop	 ebp
  00064	c2 04 00	 ret	 4
??4ST_SKININFO@@QAEAAU0@ABU0@@Z ENDP			; ST_SKININFO::operator=
_TEXT	ENDS
; Function compile flags: /Ogtp
;	COMDAT ??1ST_SKININFO@@QAE@XZ
_TEXT	SEGMENT
??1ST_SKININFO@@QAE@XZ PROC				; ST_SKININFO::~ST_SKININFO, COMDAT
; _this$ = ecx
  00000	56		 push	 esi
  00001	8b f1		 mov	 esi, ecx
  00003	8d 4e 18	 lea	 ecx, DWORD PTR [esi+24]
  00006	ff 15 00 00 00
	00		 call	 DWORD PTR __imp_??1?$CStringT@DV?$StrTraitMFC_DLL@DV?$ChTraitsCRT@D@ATL@@@@@ATL@@QAE@XZ
  0000c	8d 4e 14	 lea	 ecx, DWORD PTR [esi+20]
  0000f	ff 15 00 00 00
	00		 call	 DWORD PTR __imp_??1?$CStringT@DV?$StrTraitMFC_DLL@DV?$ChTraitsCRT@D@ATL@@@@@ATL@@QAE@XZ
  00015	8d 4e 10	 lea	 ecx, DWORD PTR [esi+16]
  00018	ff 15 00 00 00
	00		 call	 DWORD PTR __imp_??1?$CStringT@DV?$StrTraitMFC_DLL@DV?$ChTraitsCRT@D@ATL@@@@@ATL@@QAE@XZ
  0001e	8d 4e 0c	 lea	 ecx, DWORD PTR [esi+12]
  00021	ff 15 00 00 00
	00		 call	 DWORD PTR __imp_??1?$CStringT@DV?$StrTraitMFC_DLL@DV?$ChTraitsCRT@D@ATL@@@@@ATL@@QAE@XZ
  00027	8d 4e 08	 lea	 ecx, DWORD PTR [esi+8]
  0002a	ff 15 00 00 00
	00		 call	 DWORD PTR __imp_??1?$CStringT@DV?$StrTraitMFC_DLL@DV?$ChTraitsCRT@D@ATL@@@@@ATL@@QAE@XZ
  00030	8d 4e 04	 lea	 ecx, DWORD PTR [esi+4]
  00033	ff 15 00 00 00
	00		 call	 DWORD PTR __imp_??1?$CStringT@DV?$StrTraitMFC_DLL@DV?$ChTraitsCRT@D@ATL@@@@@ATL@@QAE@XZ
  00039	8b ce		 mov	 ecx, esi
  0003b	5e		 pop	 esi
  0003c	ff 25 00 00 00
	00		 jmp	 DWORD PTR __imp_??1?$CStringT@DV?$StrTraitMFC_DLL@DV?$ChTraitsCRT@D@ATL@@@@@ATL@@QAE@XZ
??1ST_SKININFO@@QAE@XZ ENDP				; ST_SKININFO::~ST_SKININFO
_TEXT	ENDS
; Function compile flags: /Ogtp
; File D:\git\src\IBK\IBK_DRFN\ProjSrc\SrcDrfn\inc\IAUGwanMng.h
;	COMDAT ??__ERMSG_GWANSIMREGISTER@@YAXXZ
text$di	SEGMENT
??__ERMSG_GWANSIMREGISTER@@YAXXZ PROC			; `dynamic initializer for 'RMSG_GWANSIMREGISTER'', COMDAT

; 173  : const UINT RMSG_GWANSIMREGISTER		=   ::RegisterWindowMessage("RMSG_GWANSIMREGISTER");

  00000	68 00 00 00 00	 push	 OFFSET ??_C@_0BF@MNPNIDPI@RMSG_GWANSIMREGISTER@
  00005	ff 15 00 00 00
	00		 call	 DWORD PTR __imp__RegisterWindowMessageA@4
  0000b	a3 00 00 00 00	 mov	 DWORD PTR ?RMSG_GWANSIMREGISTER@@3IB, eax
  00010	c3		 ret	 0
??__ERMSG_GWANSIMREGISTER@@YAXXZ ENDP			; `dynamic initializer for 'RMSG_GWANSIMREGISTER''
text$di	ENDS
; Function compile flags: /Ogtp
; File D:\git\src\IBK\IBK_DRFN\ProjSrc\SrcDrfn\inc\Define_Gwansim.h
;	COMDAT ??__ERMSG_INTREQUEST@@YAXXZ
text$di	SEGMENT
??__ERMSG_INTREQUEST@@YAXXZ PROC			; `dynamic initializer for 'RMSG_INTREQUEST'', COMDAT

; 10   : const UINT RMSG_INTREQUEST = ::RegisterWindowMessage(_T("RMSG_INTREQUEST") );

  00000	68 00 00 00 00	 push	 OFFSET ??_C@_0BA@JHANHJCN@RMSG_INTREQUEST@
  00005	ff 15 00 00 00
	00		 call	 DWORD PTR __imp__RegisterWindowMessageA@4
  0000b	a3 00 00 00 00	 mov	 DWORD PTR ?RMSG_INTREQUEST@@3IB, eax
  00010	c3		 ret	 0
??__ERMSG_INTREQUEST@@YAXXZ ENDP			; `dynamic initializer for 'RMSG_INTREQUEST''
text$di	ENDS
; Function compile flags: /Ogtp
; File D:\git\src\IBK\IBK_DRFN\ProjSrc\SrcDrfn\inc\Define_Gwansim.h
;	COMDAT ??__ERMSG_CONCERNHWND@@YAXXZ
text$di	SEGMENT
??__ERMSG_CONCERNHWND@@YAXXZ PROC			; `dynamic initializer for 'RMSG_CONCERNHWND'', COMDAT

; 9    : const UINT RMSG_CONCERNHWND = ::RegisterWindowMessage(_T("RMSG_CONCERNHWND") );

  00000	68 00 00 00 00	 push	 OFFSET ??_C@_0BB@EPGJDGDK@RMSG_CONCERNHWND@
  00005	ff 15 00 00 00
	00		 call	 DWORD PTR __imp__RegisterWindowMessageA@4
  0000b	a3 00 00 00 00	 mov	 DWORD PTR ?RMSG_CONCERNHWND@@3IB, eax
  00010	c3		 ret	 0
??__ERMSG_CONCERNHWND@@YAXXZ ENDP			; `dynamic initializer for 'RMSG_CONCERNHWND''
text$di	ENDS
; Function compile flags: /Ogtp
; File D:\git\src\IBK\IBK_DRFN\ProjSrc\SrcDrfn\Inc\IBaseDefine.h
;	COMDAT ??__ERMSG_SETPCTRDATA@@YAXXZ
text$di	SEGMENT
??__ERMSG_SETPCTRDATA@@YAXXZ PROC			; `dynamic initializer for 'RMSG_SETPCTRDATA'', COMDAT

; 172  : const UINT RMSG_SETPCTRDATA = ::RegisterWindowMessage("RMSG_SETPCTRDATA");

  00000	68 00 00 00 00	 push	 OFFSET ??_C@_0BB@JPACFCL@RMSG_SETPCTRDATA@
  00005	ff 15 00 00 00
	00		 call	 DWORD PTR __imp__RegisterWindowMessageA@4
  0000b	a3 00 00 00 00	 mov	 DWORD PTR ?RMSG_SETPCTRDATA@@3IB, eax
  00010	c3		 ret	 0
??__ERMSG_SETPCTRDATA@@YAXXZ ENDP			; `dynamic initializer for 'RMSG_SETPCTRDATA''
text$di	ENDS
; Function compile flags: /Ogtp
; File D:\git\src\IBK\IBK_DRFN\ProjSrc\SrcDrfn\Inc\IBaseDefine.h
;	COMDAT ??__ERMSG_GETPCTRDATA@@YAXXZ
text$di	SEGMENT
??__ERMSG_GETPCTRDATA@@YAXXZ PROC			; `dynamic initializer for 'RMSG_GETPCTRDATA'', COMDAT

; 171  : const UINT RMSG_GETPCTRDATA = ::RegisterWindowMessage("RMSG_GETPCTRDATA");

  00000	68 00 00 00 00	 push	 OFFSET ??_C@_0BB@GOOPDKI@RMSG_GETPCTRDATA@
  00005	ff 15 00 00 00
	00		 call	 DWORD PTR __imp__RegisterWindowMessageA@4
  0000b	a3 00 00 00 00	 mov	 DWORD PTR ?RMSG_GETPCTRDATA@@3IB, eax
  00010	c3		 ret	 0
??__ERMSG_GETPCTRDATA@@YAXXZ ENDP			; `dynamic initializer for 'RMSG_GETPCTRDATA''
text$di	ENDS
; Function compile flags: /Ogtp
; File D:\git\src\IBK\IBK_DRFN\ProjSrc\SrcDrfn\Inc\IBaseDefine.h
;	COMDAT ??__ERMSG_INTERFACE@@YAXXZ
text$di	SEGMENT
??__ERMSG_INTERFACE@@YAXXZ PROC				; `dynamic initializer for 'RMSG_INTERFACE'', COMDAT

; 170  : const UINT RMSG_INTERFACE = ::RegisterWindowMessage("RMSG_INTERFACE");

  00000	68 00 00 00 00	 push	 OFFSET ??_C@_0P@BKKCOCLK@RMSG_INTERFACE@
  00005	ff 15 00 00 00
	00		 call	 DWORD PTR __imp__RegisterWindowMessageA@4
  0000b	a3 00 00 00 00	 mov	 DWORD PTR ?RMSG_INTERFACE@@3IB, eax
  00010	c3		 ret	 0
??__ERMSG_INTERFACE@@YAXXZ ENDP				; `dynamic initializer for 'RMSG_INTERFACE''
text$di	ENDS
; Function compile flags: /Ogtp
; File C:\Program Files (x86)\Microsoft Visual Studio\2019\Community\VC\Tools\MSVC\14.29.30133\atlmfc\include\afx.inl
;	COMDAT ?Dump@CObject@@UBEXAAVCDumpContext@@@Z
_TEXT	SEGMENT
___formal$ = 8						; size = 4
?Dump@CObject@@UBEXAAVCDumpContext@@@Z PROC		; CObject::Dump, COMDAT
; _this$ = ecx

; 122  : 	{ /* no dumping in release builds */ }

  00000	c2 04 00	 ret	 4
?Dump@CObject@@UBEXAAVCDumpContext@@@Z ENDP		; CObject::Dump
_TEXT	ENDS
; Function compile flags: /Ogtp
; File C:\Program Files (x86)\Microsoft Visual Studio\2019\Community\VC\Tools\MSVC\14.29.30133\atlmfc\include\afx.inl
;	COMDAT ?AssertValid@CObject@@UBEXXZ
_TEXT	SEGMENT
?AssertValid@CObject@@UBEXXZ PROC			; CObject::AssertValid, COMDAT
; _this$ = ecx

; 120  : 	{ /* no asserts in release builds */ }

  00000	c2 00 00	 ret	 0
?AssertValid@CObject@@UBEXXZ ENDP			; CObject::AssertValid
_TEXT	ENDS
; Function compile flags: /Ogtp
; File C:\Program Files (x86)\Microsoft Visual Studio\2019\Community\VC\Tools\MSVC\14.29.30133\atlmfc\include\afx.inl
;	COMDAT ?Serialize@CObject@@UAEXAAVCArchive@@@Z
_TEXT	SEGMENT
___formal$ = 8						; size = 4
?Serialize@CObject@@UAEXAAVCArchive@@@Z PROC		; CObject::Serialize, COMDAT
; _this$ = ecx

; 106  : 	{ /* CObject does not serialize anything by default */ }

  00000	c2 04 00	 ret	 4
?Serialize@CObject@@UAEXAAVCArchive@@@Z ENDP		; CObject::Serialize
_TEXT	ENDS
; Function compile flags: /Ogtp
; File C:\Program Files (x86)\Microsoft Visual Studio\2019\Community\VC\Tools\MSVC\14.29.30133\atlmfc\include\afx.inl
;	COMDAT ??1CObject@@UAE@XZ
_TEXT	SEGMENT
??1CObject@@UAE@XZ PROC					; CObject::~CObject, COMDAT
; _this$ = ecx

; 104  : 	{ }

  00000	c2 00 00	 ret	 0
??1CObject@@UAE@XZ ENDP					; CObject::~CObject
_TEXT	ENDS
; Function compile flags: /Ogtp
; File C:\Program Files (x86)\Microsoft Visual Studio\2019\Community\VC\Tools\MSVC\14.29.30133\atlmfc\include\afx.h
;	COMDAT ?AfxCrtErrorCheck@@YAHH@Z
_TEXT	SEGMENT
_error$ = 8						; size = 4
?AfxCrtErrorCheck@@YAHH@Z PROC				; AfxCrtErrorCheck, COMDAT

; 503  : {

  00000	55		 push	 ebp
  00001	8b ec		 mov	 ebp, esp

; 504  : 	switch(error)

  00003	8b 4d 08	 mov	 ecx, DWORD PTR _error$[ebp]
  00006	83 f9 50	 cmp	 ecx, 80			; 00000050H
  00009	77 17		 ja	 SHORT $LN9@AfxCrtErro
  0000b	0f b6 81 00 00
	00 00		 movzx	 eax, BYTE PTR $LN11@AfxCrtErro[ecx]
  00012	ff 24 85 00 00
	00 00		 jmp	 DWORD PTR $LN12@AfxCrtErro[eax*4]
$LN4@AfxCrtErro:

; 505  : 	{
; 506  : 	case ENOMEM:
; 507  : 		AfxThrowMemoryException();

  00019	e9 00 00 00 00	 jmp	 ?AfxThrowMemoryException@@YGXXZ ; AfxThrowMemoryException
$LN7@AfxCrtErro:

; 518  : 		break;
; 519  : 	}
; 520  : 	return error;

  0001e	8b c1		 mov	 eax, ecx

; 521  : }

  00020	5d		 pop	 ebp
  00021	c3		 ret	 0
$LN9@AfxCrtErro:

; 508  : 		break;
; 509  : 	case EINVAL:
; 510  : 	case ERANGE:
; 511  : 		AfxThrowInvalidArgException();
; 512  : 		break;
; 513  : 	case STRUNCATE:
; 514  : 	case 0:
; 515  : 		break;
; 516  : 	default:
; 517  : 		AfxThrowInvalidArgException();

  00022	e9 00 00 00 00	 jmp	 ?AfxThrowInvalidArgException@@YGXXZ ; AfxThrowInvalidArgException
  00027	90		 npad	 1
$LN12@AfxCrtErro:

; 521  : }

  00028	00 00 00 00	 DD	 $LN7@AfxCrtErro
  0002c	00 00 00 00	 DD	 $LN4@AfxCrtErro
  00030	00 00 00 00	 DD	 $LN9@AfxCrtErro
  00034	00 00 00 00	 DD	 $LN9@AfxCrtErro
$LN11@AfxCrtErro:
  00038	00		 DB	 0
  00039	03		 DB	 3
  0003a	03		 DB	 3
  0003b	03		 DB	 3
  0003c	03		 DB	 3
  0003d	03		 DB	 3
  0003e	03		 DB	 3
  0003f	03		 DB	 3
  00040	03		 DB	 3
  00041	03		 DB	 3
  00042	03		 DB	 3
  00043	03		 DB	 3
  00044	01		 DB	 1
  00045	03		 DB	 3
  00046	03		 DB	 3
  00047	03		 DB	 3
  00048	03		 DB	 3
  00049	03		 DB	 3
  0004a	03		 DB	 3
  0004b	03		 DB	 3
  0004c	03		 DB	 3
  0004d	03		 DB	 3
  0004e	02		 DB	 2
  0004f	03		 DB	 3
  00050	03		 DB	 3
  00051	03		 DB	 3
  00052	03		 DB	 3
  00053	03		 DB	 3
  00054	03		 DB	 3
  00055	03		 DB	 3
  00056	03		 DB	 3
  00057	03		 DB	 3
  00058	03		 DB	 3
  00059	03		 DB	 3
  0005a	02		 DB	 2
  0005b	03		 DB	 3
  0005c	03		 DB	 3
  0005d	03		 DB	 3
  0005e	03		 DB	 3
  0005f	03		 DB	 3
  00060	03		 DB	 3
  00061	03		 DB	 3
  00062	03		 DB	 3
  00063	03		 DB	 3
  00064	03		 DB	 3
  00065	03		 DB	 3
  00066	03		 DB	 3
  00067	03		 DB	 3
  00068	03		 DB	 3
  00069	03		 DB	 3
  0006a	03		 DB	 3
  0006b	03		 DB	 3
  0006c	03		 DB	 3
  0006d	03		 DB	 3
  0006e	03		 DB	 3
  0006f	03		 DB	 3
  00070	03		 DB	 3
  00071	03		 DB	 3
  00072	03		 DB	 3
  00073	03		 DB	 3
  00074	03		 DB	 3
  00075	03		 DB	 3
  00076	03		 DB	 3
  00077	03		 DB	 3
  00078	03		 DB	 3
  00079	03		 DB	 3
  0007a	03		 DB	 3
  0007b	03		 DB	 3
  0007c	03		 DB	 3
  0007d	03		 DB	 3
  0007e	03		 DB	 3
  0007f	03		 DB	 3
  00080	03		 DB	 3
  00081	03		 DB	 3
  00082	03		 DB	 3
  00083	03		 DB	 3
  00084	03		 DB	 3
  00085	03		 DB	 3
  00086	03		 DB	 3
  00087	03		 DB	 3
  00088	00		 DB	 0
?AfxCrtErrorCheck@@YAHH@Z ENDP				; AfxCrtErrorCheck
_TEXT	ENDS
; Function compile flags: /Ogtp
; File C:\Program Files (x86)\Windows Kits\10\Include\10.0.22000.0\ucrt\stdio.h
;	COMDAT _sscanf
_TEXT	SEGMENT
__Buffer$ = 8						; size = 4
__Format$ = 12						; size = 4
_sscanf	PROC						; COMDAT

; 2247 :     {

  00000	55		 push	 ebp
  00001	8b ec		 mov	 ebp, esp

; 2153 :         return __stdio_common_vsscanf(

  00003	8d 45 10	 lea	 eax, DWORD PTR __Format$[ebp+4]
  00006	50		 push	 eax
  00007	6a 00		 push	 0
  00009	ff 75 0c	 push	 DWORD PTR __Format$[ebp]
  0000c	6a ff		 push	 -1
  0000e	ff 75 08	 push	 DWORD PTR __Buffer$[ebp]
  00011	e8 00 00 00 00	 call	 ___local_stdio_scanf_options
  00016	ff 70 04	 push	 DWORD PTR [eax+4]
  00019	ff 30		 push	 DWORD PTR [eax]
  0001b	ff 15 00 00 00
	00		 call	 DWORD PTR __imp____stdio_common_vsscanf
  00021	83 c4 1c	 add	 esp, 28			; 0000001cH

; 2248 :         int _Result;
; 2249 :         va_list _ArgList;
; 2250 :         __crt_va_start(_ArgList, _Format);
; 2251 :         _Result = _vsscanf_l(_Buffer, _Format, NULL, _ArgList);
; 2252 :         __crt_va_end(_ArgList);
; 2253 :         return _Result;
; 2254 :     }

  00024	5d		 pop	 ebp
  00025	c3		 ret	 0
_sscanf	ENDP
_TEXT	ENDS
; Function compile flags: /Ogtp
; File C:\Program Files (x86)\Windows Kits\10\Include\10.0.22000.0\ucrt\stdio.h
;	COMDAT _sprintf
_TEXT	SEGMENT
__Buffer$ = 8						; size = 4
__Format$ = 12						; size = 4
_sprintf PROC						; COMDAT

; 1771 :     {

  00000	55		 push	 ebp
  00001	8b ec		 mov	 ebp, esp

; 1392 :         int const _Result = __stdio_common_vsprintf(

  00003	8d 45 10	 lea	 eax, DWORD PTR __Format$[ebp+4]
  00006	50		 push	 eax
  00007	6a 00		 push	 0
  00009	ff 75 0c	 push	 DWORD PTR __Format$[ebp]
  0000c	6a ff		 push	 -1
  0000e	ff 75 08	 push	 DWORD PTR __Buffer$[ebp]
  00011	e8 00 00 00 00	 call	 ___local_stdio_printf_options
  00016	8b 08		 mov	 ecx, DWORD PTR [eax]
  00018	ff 70 04	 push	 DWORD PTR [eax+4]
  0001b	83 c9 01	 or	 ecx, 1
  0001e	51		 push	 ecx
  0001f	ff 15 00 00 00
	00		 call	 DWORD PTR __imp____stdio_common_vsprintf

; 1393 :             _CRT_INTERNAL_LOCAL_PRINTF_OPTIONS | _CRT_INTERNAL_PRINTF_LEGACY_VSPRINTF_NULL_TERMINATION,
; 1394 :             _Buffer, _BufferCount, _Format, _Locale, _ArgList);
; 1395 : 
; 1396 :         return _Result < 0 ? -1 : _Result;

  00025	83 c9 ff	 or	 ecx, -1
  00028	83 c4 1c	 add	 esp, 28			; 0000001cH
  0002b	85 c0		 test	 eax, eax
  0002d	0f 48 c1	 cmovs	 eax, ecx

; 1772 :         int _Result;
; 1773 :         va_list _ArgList;
; 1774 :         __crt_va_start(_ArgList, _Format);
; 1775 : 
; 1776 :         _Result = _vsprintf_l(_Buffer, _Format, NULL, _ArgList);
; 1777 : 
; 1778 :         __crt_va_end(_ArgList);
; 1779 :         return _Result;
; 1780 :     }

  00030	5d		 pop	 ebp
  00031	c3		 ret	 0
_sprintf ENDP
_TEXT	ENDS
; Function compile flags: /Ogtp
; File C:\Program Files (x86)\Windows Kits\10\Include\10.0.22000.0\ucrt\corecrt_stdio_config.h
;	COMDAT ___local_stdio_scanf_options
_TEXT	SEGMENT
___local_stdio_scanf_options PROC			; COMDAT

; 101  :         static unsigned __int64 _OptionsStorage;
; 102  :         return &_OptionsStorage;

  00000	b8 00 00 00 00	 mov	 eax, OFFSET ?_OptionsStorage@?1??__local_stdio_scanf_options@@9@4_KA ; `__local_stdio_scanf_options'::`2'::_OptionsStorage

; 103  :     }

  00005	c3		 ret	 0
___local_stdio_scanf_options ENDP
_TEXT	ENDS
; Function compile flags: /Ogtp
; File C:\Program Files (x86)\Windows Kits\10\Include\10.0.22000.0\ucrt\corecrt_stdio_config.h
;	COMDAT ___local_stdio_printf_options
_TEXT	SEGMENT
___local_stdio_printf_options PROC			; COMDAT

; 91   :         static unsigned __int64 _OptionsStorage;
; 92   :         return &_OptionsStorage;

  00000	b8 00 00 00 00	 mov	 eax, OFFSET ?_OptionsStorage@?1??__local_stdio_printf_options@@9@4_KA ; `__local_stdio_printf_options'::`2'::_OptionsStorage

; 93   :     }

  00005	c3		 ret	 0
___local_stdio_printf_options ENDP
_TEXT	ENDS
; Function compile flags: /Ogtp
; File D:\git\src\IBK\IBK_DRFN\ProjSrc\SrcDrfn\DrCommon\PcTrMng\_SkinColorManager.cpp
;	COMDAT ?__empty_global_delete@@YAXPAXI@Z
_TEXT	SEGMENT
___formal$ = 8						; size = 4
___formal$ = 12						; size = 4
?__empty_global_delete@@YAXPAXI@Z PROC			; __empty_global_delete, COMDAT

  00000	c2 00 00	 ret	 0
?__empty_global_delete@@YAXPAXI@Z ENDP			; __empty_global_delete
_TEXT	ENDS
; Function compile flags: /Ogtp
; File D:\git\src\IBK\IBK_DRFN\ProjSrc\SrcDrfn\DrCommon\PcTrMng\_SkinColorManager.cpp
;	COMDAT ?__empty_global_delete@@YAXPAX@Z
_TEXT	SEGMENT
___formal$ = 8						; size = 4
?__empty_global_delete@@YAXPAX@Z PROC			; __empty_global_delete, COMDAT

  00000	c2 00 00	 ret	 0
?__empty_global_delete@@YAXPAX@Z ENDP			; __empty_global_delete
_TEXT	ENDS
END
