; Listing generated by Microsoft (R) Optimizing Compiler Version 19.29.30148.0 

	TITLE	D:\git\src\IBK\IBK_DRFN\#DRfn-CS\_Obj\PcTrMng\ControlPos.obj
	.686P
	.XMM
	include listing.inc
	.model	flat

INCLUDELIB MSVCRT
INCLUDELIB OLDNAMES

PUBLIC	?__empty_global_delete@@YAXPAX@Z		; __empty_global_delete
PUBLIC	?__empty_global_delete@@YAXPAXI@Z		; __empty_global_delete
PUBLIC	?GetSafeHwnd@CWnd@@QBEPAUHWND__@@XZ		; CWnd::GetSafeHwnd
PUBLIC	??0CControlPos@@QAE@PAVCWnd@@@Z			; CControlPos::CControlPos
PUBLIC	??1CControlPos@@UAE@XZ				; CControlPos::~CControlPos
PUBLIC	?SetParent@CControlPos@@QAEXPAVCWnd@@PAVCSize@@@Z ; CControlPos::SetParent
PUBLIC	?AddControl@CControlPos@@QAEHPAVCWnd@@ABK@Z	; CControlPos::AddControl
PUBLIC	?AddControl@CControlPos@@QAEHABIABK@Z		; CControlPos::AddControl
PUBLIC	?AddControl@CControlPos@@QAEHPAVCWnd@@ABKV?$CStringT@DV?$StrTraitMFC_DLL@DV?$ChTraitsCRT@D@ATL@@@@@ATL@@@Z ; CControlPos::AddControl
PUBLIC	?AddControl@CControlPos@@QAEHABIABKV?$CStringT@DV?$StrTraitMFC_DLL@DV?$ChTraitsCRT@D@ATL@@@@@ATL@@@Z ; CControlPos::AddControl
PUBLIC	?RemoveControl@CControlPos@@QAEHPAVCWnd@@@Z	; CControlPos::RemoveControl
PUBLIC	?RemoveControl@CControlPos@@QAEHABI@Z		; CControlPos::RemoveControl
PUBLIC	?ResetControls@CControlPos@@QAEXXZ		; CControlPos::ResetControls
PUBLIC	?MoveControls@CControlPos@@UAEXXZ		; CControlPos::MoveControls
PUBLIC	?ResizeControls@CControlPos@@QAEXHHHH@Z		; CControlPos::ResizeControls
PUBLIC	?SetNegativeMoves@CControlPos@@QAEXABH@Z	; CControlPos::SetNegativeMoves
PUBLIC	?GetNegativeMoves@CControlPos@@QBEHXZ		; CControlPos::GetNegativeMoves
PUBLIC	?UpdateParentSize@CControlPos@@MAEXXZ		; CControlPos::UpdateParentSize
PUBLIC	??_GCControlPos@@UAEPAXI@Z			; CControlPos::`scalar deleting destructor'
PUBLIC	??_7CControlPos@@6B@				; CControlPos::`vftable'
PUBLIC	??_C@_0CI@KPJJDAPL@CControlPos?3?3MoveControls?5?$LP?V?$LK?N?$LI@ ; `string'
PUBLIC	??_R4CControlPos@@6B@				; CControlPos::`RTTI Complete Object Locator'
PUBLIC	??_R0?AVCControlPos@@@8				; CControlPos `RTTI Type Descriptor'
PUBLIC	??_R3CControlPos@@8				; CControlPos::`RTTI Class Hierarchy Descriptor'
PUBLIC	??_R2CControlPos@@8				; CControlPos::`RTTI Base Class Array'
PUBLIC	??_R1A@?0A@EA@CControlPos@@8			; CControlPos::`RTTI Base Class Descriptor at (0,-1,0,64)'
PUBLIC	__real@3fe0000000000000
PUBLIC	__real@3ff0000000000000
EXTRN	??2@YAPAXI@Z:PROC				; operator new
EXTRN	??3@YAXPAXI@Z:PROC				; operator delete
EXTRN	___std_terminate:PROC
EXTRN	__imp__InvalidateRect@12:PROC
EXTRN	__imp__GetClientRect@8:PROC
EXTRN	__imp__GetWindowRect@8:PROC
EXTRN	__imp__SetRect@20:PROC
EXTRN	?AfxThrowInvalidArgException@@YGXXZ:PROC	; AfxThrowInvalidArgException
EXTRN	__imp_??0?$CStringT@DV?$StrTraitMFC_DLL@DV?$ChTraitsCRT@D@ATL@@@@@ATL@@QAE@ABV01@@Z:PROC
EXTRN	__imp_??1?$CStringT@DV?$StrTraitMFC_DLL@DV?$ChTraitsCRT@D@ATL@@@@@ATL@@QAE@XZ:PROC
EXTRN	??0CObArray@@QAE@XZ:PROC			; CObArray::CObArray
EXTRN	?SetAtGrow@CObArray@@QAEXHPAVCObject@@@Z:PROC	; CObArray::SetAtGrow
EXTRN	?RemoveAt@CObArray@@QAEXHH@Z:PROC		; CObArray::RemoveAt
EXTRN	??1CObArray@@UAE@XZ:PROC			; CObArray::~CObArray
EXTRN	?FromHandle@CWnd@@SGPAV1@PAUHWND__@@@Z:PROC	; CWnd::FromHandle
EXTRN	?GetDlgItem@CWnd@@QBEPAV1@H@Z:PROC		; CWnd::GetDlgItem
EXTRN	?MoveWindow@CWnd@@QAEXHHHHH@Z:PROC		; CWnd::MoveWindow
EXTRN	?ClientToScreen@CWnd@@QBEXPAUtagRECT@@@Z:PROC	; CWnd::ClientToScreen
EXTRN	?ScreenToClient@CWnd@@QBEXPAUtagRECT@@@Z:PROC	; CWnd::ScreenToClient
EXTRN	?AfxMessageBox@@YGHPBDII@Z:PROC			; AfxMessageBox
EXTRN	??_ECControlPos@@UAEPAXI@Z:PROC			; CControlPos::`vector deleting destructor'
EXTRN	@__security_check_cookie@4:PROC
EXTRN	___CxxFrameHandler3:PROC
EXTRN	_memcpy:PROC
EXTRN	??_7type_info@@6B@:QWORD			; type_info::`vftable'
EXTRN	___security_cookie:DWORD
EXTRN	__fltused:DWORD
;	COMDAT __real@3ff0000000000000
CONST	SEGMENT
__real@3ff0000000000000 DQ 03ff0000000000000r	; 1
CONST	ENDS
;	COMDAT __real@3fe0000000000000
CONST	SEGMENT
__real@3fe0000000000000 DQ 03fe0000000000000r	; 0.5
CONST	ENDS
;	COMDAT ??_R1A@?0A@EA@CControlPos@@8
rdata$r	SEGMENT
??_R1A@?0A@EA@CControlPos@@8 DD FLAT:??_R0?AVCControlPos@@@8 ; CControlPos::`RTTI Base Class Descriptor at (0,-1,0,64)'
	DD	00H
	DD	00H
	DD	0ffffffffH
	DD	00H
	DD	040H
	DD	FLAT:??_R3CControlPos@@8
rdata$r	ENDS
;	COMDAT ??_R2CControlPos@@8
rdata$r	SEGMENT
??_R2CControlPos@@8 DD FLAT:??_R1A@?0A@EA@CControlPos@@8 ; CControlPos::`RTTI Base Class Array'
rdata$r	ENDS
;	COMDAT ??_R3CControlPos@@8
rdata$r	SEGMENT
??_R3CControlPos@@8 DD 00H				; CControlPos::`RTTI Class Hierarchy Descriptor'
	DD	00H
	DD	01H
	DD	FLAT:??_R2CControlPos@@8
rdata$r	ENDS
;	COMDAT ??_R0?AVCControlPos@@@8
data$rs	SEGMENT
??_R0?AVCControlPos@@@8 DD FLAT:??_7type_info@@6B@	; CControlPos `RTTI Type Descriptor'
	DD	00H
	DB	'.?AVCControlPos@@', 00H
data$rs	ENDS
;	COMDAT ??_R4CControlPos@@6B@
rdata$r	SEGMENT
??_R4CControlPos@@6B@ DD 00H				; CControlPos::`RTTI Complete Object Locator'
	DD	00H
	DD	00H
	DD	FLAT:??_R0?AVCControlPos@@@8
	DD	FLAT:??_R3CControlPos@@8
rdata$r	ENDS
;	COMDAT ??_C@_0CI@KPJJDAPL@CControlPos?3?3MoveControls?5?$LP?V?$LK?N?$LI@
CONST	SEGMENT
??_C@_0CI@KPJJDAPL@CControlPos?3?3MoveControls?5?$LP?V?$LK?N?$LI@ DB 'CCo'
	DB	'ntrolPos::MoveControls ', 0bfH, 0d6H, 0baH, 0ceH, 0b8H, 0a3H, 0bdH
	DB	0c3H, 0b3H, 0aaH, 0bfH, 0e4H, '?', 00H	; `string'
CONST	ENDS
;	COMDAT ??_7CControlPos@@6B@
CONST	SEGMENT
??_7CControlPos@@6B@ DD FLAT:??_R4CControlPos@@6B@	; CControlPos::`vftable'
	DD	FLAT:??_ECControlPos@@UAEPAXI@Z
	DD	FLAT:?MoveControls@CControlPos@@UAEXXZ
	DD	FLAT:?UpdateParentSize@CControlPos@@MAEXXZ
CONST	ENDS
;	COMDAT xdata$x
xdata$x	SEGMENT
__unwindtable$??_GCControlPos@@UAEPAXI@Z DD 0ffffffffH
	DD	FLAT:___std_terminate
__ehfuncinfo$??_GCControlPos@@UAEPAXI@Z DD 019930522H
	DD	01H
	DD	FLAT:__unwindtable$??_GCControlPos@@UAEPAXI@Z
	DD	2 DUP(00H)
	DD	2 DUP(00H)
	DD	00H
	DD	05H
xdata$x	ENDS
;	COMDAT xdata$x
xdata$x	SEGMENT
__unwindtable$?AddControl@CControlPos@@QAEHABIABKV?$CStringT@DV?$StrTraitMFC_DLL@DV?$ChTraitsCRT@D@ATL@@@@@ATL@@@Z DD 0ffffffffH
	DD	FLAT:__unwindfunclet$?AddControl@CControlPos@@QAEHABIABKV?$CStringT@DV?$StrTraitMFC_DLL@DV?$ChTraitsCRT@D@ATL@@@@@ATL@@@Z$0
	DD	00H
	DD	FLAT:__unwindfunclet$?AddControl@CControlPos@@QAEHABIABKV?$CStringT@DV?$StrTraitMFC_DLL@DV?$ChTraitsCRT@D@ATL@@@@@ATL@@@Z$2
__ehfuncinfo$?AddControl@CControlPos@@QAEHABIABKV?$CStringT@DV?$StrTraitMFC_DLL@DV?$ChTraitsCRT@D@ATL@@@@@ATL@@@Z DD 019930522H
	DD	02H
	DD	FLAT:__unwindtable$?AddControl@CControlPos@@QAEHABIABKV?$CStringT@DV?$StrTraitMFC_DLL@DV?$ChTraitsCRT@D@ATL@@@@@ATL@@@Z
	DD	2 DUP(00H)
	DD	2 DUP(00H)
	DD	00H
	DD	01H
xdata$x	ENDS
;	COMDAT xdata$x
xdata$x	SEGMENT
__unwindtable$?AddControl@CControlPos@@QAEHPAVCWnd@@ABKV?$CStringT@DV?$StrTraitMFC_DLL@DV?$ChTraitsCRT@D@ATL@@@@@ATL@@@Z DD 0ffffffffH
	DD	FLAT:__unwindfunclet$?AddControl@CControlPos@@QAEHPAVCWnd@@ABKV?$CStringT@DV?$StrTraitMFC_DLL@DV?$ChTraitsCRT@D@ATL@@@@@ATL@@@Z$0
__ehfuncinfo$?AddControl@CControlPos@@QAEHPAVCWnd@@ABKV?$CStringT@DV?$StrTraitMFC_DLL@DV?$ChTraitsCRT@D@ATL@@@@@ATL@@@Z DD 019930522H
	DD	01H
	DD	FLAT:__unwindtable$?AddControl@CControlPos@@QAEHPAVCWnd@@ABKV?$CStringT@DV?$StrTraitMFC_DLL@DV?$ChTraitsCRT@D@ATL@@@@@ATL@@@Z
	DD	2 DUP(00H)
	DD	2 DUP(00H)
	DD	00H
	DD	01H
xdata$x	ENDS
;	COMDAT xdata$x
xdata$x	SEGMENT
__ehfuncinfo$??1CControlPos@@UAE@XZ DD 019930522H
	DD	00H
	DD	00H
	DD	2 DUP(00H)
	DD	2 DUP(00H)
	DD	00H
	DD	05H
xdata$x	ENDS
;	COMDAT xdata$x
xdata$x	SEGMENT
__unwindtable$??0CControlPos@@QAE@PAVCWnd@@@Z DD 0ffffffffH
	DD	FLAT:__unwindfunclet$??0CControlPos@@QAE@PAVCWnd@@@Z$0
__ehfuncinfo$??0CControlPos@@QAE@PAVCWnd@@@Z DD 019930522H
	DD	01H
	DD	FLAT:__unwindtable$??0CControlPos@@QAE@PAVCWnd@@@Z
	DD	2 DUP(00H)
	DD	2 DUP(00H)
	DD	00H
	DD	01H
xdata$x	ENDS
; Function compile flags: /Ogtp
; File D:\git\src\IBK\IBK_DRFN\ProjSrc\SrcDrfn\DrCommon\PcTrMng\ControlPos.cpp
;	COMDAT ??_GCControlPos@@UAEPAXI@Z
_TEXT	SEGMENT
__$EHRec$ = -12						; size = 12
___flags$ = 8						; size = 4
??_GCControlPos@@UAEPAXI@Z PROC				; CControlPos::`scalar deleting destructor', COMDAT
; _this$ = ecx
  00000	55		 push	 ebp
  00001	8b ec		 mov	 ebp, esp
  00003	6a ff		 push	 -1
  00005	68 00 00 00 00	 push	 __ehhandler$??_GCControlPos@@UAEPAXI@Z
  0000a	64 a1 00 00 00
	00		 mov	 eax, DWORD PTR fs:0
  00010	50		 push	 eax
  00011	56		 push	 esi
  00012	a1 00 00 00 00	 mov	 eax, DWORD PTR ___security_cookie
  00017	33 c5		 xor	 eax, ebp
  00019	50		 push	 eax
  0001a	8d 45 f4	 lea	 eax, DWORD PTR __$EHRec$[ebp]
  0001d	64 a3 00 00 00
	00		 mov	 DWORD PTR fs:0, eax
  00023	8b f1		 mov	 esi, ecx

; 56   : {

  00025	c7 45 fc 00 00
	00 00		 mov	 DWORD PTR __$EHRec$[ebp+8], 0
  0002c	c7 06 00 00 00
	00		 mov	 DWORD PTR [esi], OFFSET ??_7CControlPos@@6B@

; 57   : 	ResetControls();

  00032	e8 00 00 00 00	 call	 ?ResetControls@CControlPos@@QAEXXZ ; CControlPos::ResetControls

; 58   : }

  00037	8d 4e 4c	 lea	 ecx, DWORD PTR [esi+76]
  0003a	e8 00 00 00 00	 call	 ??1CObArray@@UAE@XZ	; CObArray::~CObArray
  0003f	f6 45 08 01	 test	 BYTE PTR ___flags$[ebp], 1
  00043	74 0b		 je	 SHORT $LN7@scalar
  00045	6a 68		 push	 104			; 00000068H
  00047	56		 push	 esi
  00048	e8 00 00 00 00	 call	 ??3@YAXPAXI@Z		; operator delete
  0004d	83 c4 08	 add	 esp, 8
$LN7@scalar:
  00050	8b c6		 mov	 eax, esi
  00052	8b 4d f4	 mov	 ecx, DWORD PTR __$EHRec$[ebp]
  00055	64 89 0d 00 00
	00 00		 mov	 DWORD PTR fs:0, ecx
  0005c	59		 pop	 ecx
  0005d	5e		 pop	 esi
  0005e	8b e5		 mov	 esp, ebp
  00060	5d		 pop	 ebp
  00061	c2 04 00	 ret	 4
  00064	cc		 int	 3
  00065	cc		 int	 3
  00066	cc		 int	 3
  00067	cc		 int	 3
  00068	cc		 int	 3
_TEXT	ENDS
;	COMDAT text$x
text$x	SEGMENT
__ehhandler$??_GCControlPos@@UAEPAXI@Z:
  00000	90		 npad	 1
  00001	90		 npad	 1
  00002	8b 54 24 08	 mov	 edx, DWORD PTR [esp+8]
  00006	8d 42 0c	 lea	 eax, DWORD PTR [edx+12]
  00009	8b 4a f8	 mov	 ecx, DWORD PTR [edx-8]
  0000c	33 c8		 xor	 ecx, eax
  0000e	e8 00 00 00 00	 call	 @__security_check_cookie@4
  00013	b8 00 00 00 00	 mov	 eax, OFFSET __ehfuncinfo$??_GCControlPos@@UAEPAXI@Z
  00018	e9 00 00 00 00	 jmp	 ___CxxFrameHandler3
text$x	ENDS
??_GCControlPos@@UAEPAXI@Z ENDP				; CControlPos::`scalar deleting destructor'
; Function compile flags: /Ogtp
; File D:\git\src\IBK\IBK_DRFN\ProjSrc\SrcDrfn\DrCommon\PcTrMng\ControlPos.cpp
;	COMDAT ?UpdateParentSize@CControlPos@@MAEXXZ
_TEXT	SEGMENT
?UpdateParentSize@CControlPos@@MAEXXZ PROC		; CControlPos::UpdateParentSize, COMDAT
; _this$ = ecx

; 716  : 	return;
; 717  : 
; 718  : 	if (m_pParent)
; 719  : 	{
; 720  : 		CRect rcBounds;
; 721  : 		m_pParent->GetClientRect(rcBounds);
; 722  : 
; 723  : 		m_nOldParentWidth = rcBounds.Width();
; 724  : 		m_nOldParentHeight = rcBounds.Height();
; 725  : 	}
; 726  : }

  00000	c2 00 00	 ret	 0
?UpdateParentSize@CControlPos@@MAEXXZ ENDP		; CControlPos::UpdateParentSize
_TEXT	ENDS
; Function compile flags: /Ogtp
; File D:\git\src\IBK\IBK_DRFN\ProjSrc\SrcDrfn\DrCommon\PcTrMng\ControlPos.cpp
;	COMDAT ?GetNegativeMoves@CControlPos@@QBEHXZ
_TEXT	SEGMENT
?GetNegativeMoves@CControlPos@@QBEHXZ PROC		; CControlPos::GetNegativeMoves, COMDAT
; _this$ = ecx

; 696  : 	return (m_fNegativeMoves);

  00000	8b 41 18	 mov	 eax, DWORD PTR [ecx+24]

; 697  : }

  00003	c3		 ret	 0
?GetNegativeMoves@CControlPos@@QBEHXZ ENDP		; CControlPos::GetNegativeMoves
_TEXT	ENDS
; Function compile flags: /Ogtp
; File D:\git\src\IBK\IBK_DRFN\ProjSrc\SrcDrfn\DrCommon\PcTrMng\ControlPos.cpp
;	COMDAT ?SetNegativeMoves@CControlPos@@QAEXABH@Z
_TEXT	SEGMENT
_fNegativeMoves$ = 8					; size = 4
?SetNegativeMoves@CControlPos@@QAEXABH@Z PROC		; CControlPos::SetNegativeMoves, COMDAT
; _this$ = ecx

; 677  : {

  00000	55		 push	 ebp
  00001	8b ec		 mov	 ebp, esp

; 678  : 	m_fNegativeMoves = fNegativeMoves;

  00003	8b 45 08	 mov	 eax, DWORD PTR _fNegativeMoves$[ebp]
  00006	8b 00		 mov	 eax, DWORD PTR [eax]
  00008	89 41 18	 mov	 DWORD PTR [ecx+24], eax

; 679  : }

  0000b	5d		 pop	 ebp
  0000c	c2 04 00	 ret	 4
?SetNegativeMoves@CControlPos@@QAEXABH@Z ENDP		; CControlPos::SetNegativeMoves
_TEXT	ENDS
; Function compile flags: /Ogtp
; File D:\git\src\IBK\IBK_DRFN\ProjSrc\SrcDrfn\DrCommon\PcTrMng\ControlPos.cpp
; File C:\Program Files (x86)\Microsoft Visual Studio\2019\Community\VC\Tools\MSVC\14.29.30133\atlmfc\include\atltypes.h
; File D:\git\src\IBK\IBK_DRFN\ProjSrc\SrcDrfn\DrCommon\PcTrMng\ControlPos.cpp
; File C:\Program Files (x86)\Microsoft Visual Studio\2019\Community\VC\Tools\MSVC\14.29.30133\atlmfc\include\atltypes.h
; File D:\git\src\IBK\IBK_DRFN\ProjSrc\SrcDrfn\DrCommon\PcTrMng\ControlPos.cpp
; File C:\Program Files (x86)\Microsoft Visual Studio\2019\Community\VC\Tools\MSVC\14.29.30133\atlmfc\include\afxcoll.inl
; File D:\git\src\IBK\IBK_DRFN\ProjSrc\SrcDrfn\DrCommon\PcTrMng\ControlPos.cpp
; File C:\Program Files (x86)\Microsoft Visual Studio\2019\Community\VC\Tools\MSVC\14.29.30133\atlmfc\include\afxwin2.inl
; File D:\git\src\IBK\IBK_DRFN\ProjSrc\SrcDrfn\DrCommon\PcTrMng\ControlPos.cpp
; File C:\Program Files (x86)\Microsoft Visual Studio\2019\Community\VC\Tools\MSVC\14.29.30133\atlmfc\include\afxcoll.inl
; File C:\Program Files (x86)\Microsoft Visual Studio\2019\Community\VC\Tools\MSVC\14.29.30133\atlmfc\include\afxwin2.inl
; File D:\git\src\IBK\IBK_DRFN\ProjSrc\SrcDrfn\DrCommon\PcTrMng\ControlPos.cpp
; File C:\Program Files (x86)\Microsoft Visual Studio\2019\Community\VC\Tools\MSVC\14.29.30133\atlmfc\include\afxcoll.inl
; File D:\git\src\IBK\IBK_DRFN\ProjSrc\SrcDrfn\DrCommon\PcTrMng\ControlPos.cpp
;	COMDAT ?ResizeControls@CControlPos@@QAEXHHHH@Z
_TEXT	SEGMENT
_dWRate$1$ = -44					; size = 8
_dHRate$1$ = -36					; size = 8
tv1048 = -28						; size = 4
_pControl$1$ = -24					; size = 4
tv1051 = -20						; size = 4
tv1032 = -16						; size = 4
tv1038 = -12						; size = 4
tv1045 = -8						; size = 4
_pstControl$1$ = -4					; size = 4
_oldwidth$ = 8						; size = 4
_oldheight$ = 12					; size = 4
_i$1$ = 16						; size = 4
_newwidth$ = 16						; size = 4
tv1047 = 20						; size = 4
_newheight$ = 20					; size = 4
?ResizeControls@CControlPos@@QAEXHHHH@Z PROC		; CControlPos::ResizeControls, COMDAT
; _this$ = ecx

; 368  : {

  00000	55		 push	 ebp
  00001	8b ec		 mov	 ebp, esp

; 369  : //////////////////////////////////////////////////////////////////////////
; 370  : // 2004.11.15 리사이즈 룰 수정(DefaultRect /ModifyRect 적용) - 추가삽입
; 371  : 	if(newwidth)

  00003	8b 45 10	 mov	 eax, DWORD PTR _newwidth$[ebp]
  00006	83 ec 2c	 sub	 esp, 44			; 0000002cH
  00009	56		 push	 esi
  0000a	8b f1		 mov	 esi, ecx
  0000c	85 c0		 test	 eax, eax
  0000e	74 05		 je	 SHORT $LN5@ResizeCont

; 372  : 		mp_nSavedWidth = newwidth;

  00010	89 46 60	 mov	 DWORD PTR [esi+96], eax
  00013	eb 03		 jmp	 SHORT $LN6@ResizeCont
$LN5@ResizeCont:

; 373  : 	else
; 374  : 		newwidth = mp_nSavedWidth;

  00015	8b 46 60	 mov	 eax, DWORD PTR [esi+96]
$LN6@ResizeCont:

; 375  : 
; 376  : 	if(newheight)

  00018	8b 4d 14	 mov	 ecx, DWORD PTR _newheight$[ebp]
  0001b	85 c9		 test	 ecx, ecx
  0001d	74 05		 je	 SHORT $LN7@ResizeCont

; 377  : 		mp_nSavedHeight = newheight;

  0001f	89 4e 64	 mov	 DWORD PTR [esi+100], ecx
  00022	eb 03		 jmp	 SHORT $LN8@ResizeCont
$LN7@ResizeCont:

; 378  : 	else
; 379  : 		newheight = mp_nSavedHeight;

  00024	8b 4e 64	 mov	 ecx, DWORD PTR [esi+100]
$LN8@ResizeCont:

; 380  : 		
; 381  : 
; 382  : 	if(m_pParent) 

  00027	8b 56 04	 mov	 edx, DWORD PTR [esi+4]
  0002a	85 d2		 test	 edx, edx
  0002c	0f 84 d0 01 00
	00		 je	 $LN9@ResizeCont

; 385  : 		double dWRate = (double)newwidth / (double)m_PaRect.right;

  00032	66 0f 6e 46 24	 movd	 xmm0, DWORD PTR [esi+36]
  00037	66 0f 6e c8	 movd	 xmm1, eax
  0003b	f3 0f e6 c9	 cvtdq2pd xmm1, xmm1

; 386  : 		double dHRate = (double)newheight / (double)m_PaRect.bottom;

  0003f	8b 46 28	 mov	 eax, DWORD PTR [esi+40]
  00042	53		 push	 ebx
; File C:\Program Files (x86)\Microsoft Visual Studio\2019\Community\VC\Tools\MSVC\14.29.30133\atlmfc\include\atltypes.h

; 581  : 	return bottom - top;

  00043	8b 5e 38	 mov	 ebx, DWORD PTR [esi+56]
  00046	03 5e 20	 add	 ebx, DWORD PTR [esi+32]
  00049	2b d8		 sub	 ebx, eax
; File D:\git\src\IBK\IBK_DRFN\ProjSrc\SrcDrfn\DrCommon\PcTrMng\ControlPos.cpp

; 385  : 		double dWRate = (double)newwidth / (double)m_PaRect.right;

  0004b	f3 0f e6 c0	 cvtdq2pd xmm0, xmm0

; 387  : 
; 388  : 		int topGap  = ( m_PaWRect.Height() - m_PaRect.Height() );

  0004f	2b 5e 30	 sub	 ebx, DWORD PTR [esi+48]
  00052	89 5d e4	 mov	 DWORD PTR tv1048[ebp], ebx
  00055	f2 0f 5e c8	 divsd	 xmm1, xmm0
  00059	66 0f 6e c0	 movd	 xmm0, eax
  0005d	f2 0f 11 4d d4	 movsd	 QWORD PTR _dWRate$1$[ebp], xmm1
  00062	66 0f 6e c9	 movd	 xmm1, ecx

; 396  : 		for(int i = 0; i < m_awndControls.GetSize(); i++) 

  00066	33 c9		 xor	 ecx, ecx
  00068	f3 0f e6 c9	 cvtdq2pd xmm1, xmm1
; File C:\Program Files (x86)\Microsoft Visual Studio\2019\Community\VC\Tools\MSVC\14.29.30133\atlmfc\include\atltypes.h

; 576  : 	return right - left;

  0006c	8b 46 34	 mov	 eax, DWORD PTR [esi+52]
  0006f	2b 46 24	 sub	 eax, DWORD PTR [esi+36]
  00072	2b 46 2c	 sub	 eax, DWORD PTR [esi+44]
; File D:\git\src\IBK\IBK_DRFN\ProjSrc\SrcDrfn\DrCommon\PcTrMng\ControlPos.cpp

; 389  : 		int leftGap = ( m_PaWRect.Width() - m_PaRect.Width() );

  00075	03 46 1c	 add	 eax, DWORD PTR [esi+28]
  00078	89 45 14	 mov	 DWORD PTR tv1047[ebp], eax
  0007b	f3 0f e6 c0	 cvtdq2pd xmm0, xmm0

; 396  : 		for(int i = 0; i < m_awndControls.GetSize(); i++) 

  0007f	8b 46 54	 mov	 eax, DWORD PTR [esi+84]
  00082	89 4d 10	 mov	 DWORD PTR _i$1$[ebp], ecx
  00085	f2 0f 5e c8	 divsd	 xmm1, xmm0
  00089	f2 0f 11 4d dc	 movsd	 QWORD PTR _dHRate$1$[ebp], xmm1
  0008e	85 c0		 test	 eax, eax
  00090	0f 8e 5e 01 00
	00		 jle	 $LN3@ResizeCont
  00096	57		 push	 edi
$LL4@ResizeCont:
; File C:\Program Files (x86)\Microsoft Visual Studio\2019\Community\VC\Tools\MSVC\14.29.30133\atlmfc\include\afxcoll.inl

; 246  : 		if( nIndex < 0 || nIndex >= m_nSize )

  00097	85 c9		 test	 ecx, ecx
  00099	0f 88 6a 01 00
	00		 js	 $LN51@ResizeCont
  0009f	3b c8		 cmp	 ecx, eax
  000a1	0f 8d 62 01 00
	00		 jge	 $LN51@ResizeCont

; 248  : 		return m_pData[nIndex]; }

  000a7	8b 46 50	 mov	 eax, DWORD PTR [esi+80]
  000aa	8b 3c 88	 mov	 edi, DWORD PTR [eax+ecx*4]
  000ad	89 7d fc	 mov	 DWORD PTR _pstControl$1$[ebp], edi
; File D:\git\src\IBK\IBK_DRFN\ProjSrc\SrcDrfn\DrCommon\PcTrMng\ControlPos.cpp

; 399  : 			CWnd* pControl = m_pParent->FromHandle(pstControl->hControl);

  000b0	ff 37		 push	 DWORD PTR [edi]
  000b2	e8 00 00 00 00	 call	 ?FromHandle@CWnd@@SGPAV1@PAUHWND__@@@Z ; CWnd::FromHandle

; 400  : 
; 401  : 			if ((pstControl->dwStyle & (CP_MOVE_VERTICAL)) == (CP_MOVE_VERTICAL))

  000b7	8b 57 0c	 mov	 edx, DWORD PTR [edi+12]
  000ba	f2 0f 10 65 dc	 movsd	 xmm4, QWORD PTR _dHRate$1$[ebp]
  000bf	2b d3		 sub	 edx, ebx
  000c1	2b 56 30	 sub	 edx, DWORD PTR [esi+48]
  000c4	f2 0f 10 15 00
	00 00 00	 movsd	 xmm2, QWORD PTR __real@3fe0000000000000
  000cc	89 45 e8	 mov	 DWORD PTR _pControl$1$[ebp], eax
  000cf	8b 47 04	 mov	 eax, DWORD PTR [edi+4]
  000d2	8b c8		 mov	 ecx, eax
  000d4	66 0f 6e ca	 movd	 xmm1, edx
  000d8	89 45 f4	 mov	 DWORD PTR tv1038[ebp], eax
  000db	f3 0f e6 c9	 cvtdq2pd xmm1, xmm1
  000df	83 e1 02	 and	 ecx, 2
  000e2	74 0f		 je	 SHORT $LN11@ResizeCont

; 402  : 				rect.top	= (int)(dHRate * (pstControl->m_ChRect.top-m_PaWRect.top-topGap) + 0.5);

  000e4	0f 28 c1	 movaps	 xmm0, xmm1
  000e7	f2 0f 59 c4	 mulsd	 xmm0, xmm4
  000eb	f2 0f 58 c2	 addsd	 xmm0, xmm2
  000ef	f2 0f 2c d0	 cvttsd2si edx, xmm0
$LN11@ResizeCont:

; 403  : 			else
; 404  : 				rect.top	= pstControl->m_ChRect.top-m_PaWRect.top-topGap;
; 405  : 
; 406  : 			if ((pstControl->dwStyle & (CP_MOVE_HORIZONTAL)) == (CP_MOVE_HORIZONTAL))

  000f3	f2 0f 10 5d d4	 movsd	 xmm3, QWORD PTR _dWRate$1$[ebp]
  000f8	8b d8		 mov	 ebx, eax
  000fa	8b 47 08	 mov	 eax, DWORD PTR [edi+8]
  000fd	83 e3 01	 and	 ebx, 1
  00100	89 45 f8	 mov	 DWORD PTR tv1045[ebp], eax
  00103	2b 46 2c	 sub	 eax, DWORD PTR [esi+44]
  00106	2b 45 14	 sub	 eax, DWORD PTR tv1047[ebp]
  00109	89 5d f0	 mov	 DWORD PTR tv1032[ebp], ebx
  0010c	89 45 ec	 mov	 DWORD PTR tv1051[ebp], eax
  0010f	85 db		 test	 ebx, ebx
  00111	74 16		 je	 SHORT $LN12@ResizeCont

; 407  : 				rect.left	= (int)(dWRate * (pstControl->m_ChRect.left-m_PaWRect.left-leftGap) + 0.5);

  00113	66 0f 6e c0	 movd	 xmm0, eax
  00117	f3 0f e6 c0	 cvtdq2pd xmm0, xmm0
  0011b	f2 0f 59 c3	 mulsd	 xmm0, xmm3
  0011f	f2 0f 58 c2	 addsd	 xmm0, xmm2
  00123	f2 0f 2c d8	 cvttsd2si ebx, xmm0
  00127	eb 02		 jmp	 SHORT $LN13@ResizeCont
$LN12@ResizeCont:

; 408  : 			else
; 409  : 				rect.left	= pstControl->m_ChRect.left-m_PaWRect.left-leftGap;

  00129	8b d8		 mov	 ebx, eax
$LN13@ResizeCont:

; 410  : 
; 411  : 			
; 412  : 			int nHeigtht = pstControl->m_ChRect.Height();
; 413  : 			if ((pstControl->dwStyle & (CP_RESIZE_VERTICAL)) == (CP_RESIZE_VERTICAL))

  0012b	8b 47 14	 mov	 eax, DWORD PTR [edi+20]
  0012e	2b 47 0c	 sub	 eax, DWORD PTR [edi+12]
  00131	f6 47 04 08	 test	 BYTE PTR [edi+4], 8
  00135	74 39		 je	 SHORT $LN14@ResizeCont

; 414  : 			{
; 415  : 				rect.bottom	= rect.top + (int)(dHRate * (pstControl->m_ChRect.Height()) + 0.5);

  00137	66 0f 6e c0	 movd	 xmm0, eax
  0013b	f3 0f e6 c0	 cvtdq2pd xmm0, xmm0
  0013f	f2 0f 59 c4	 mulsd	 xmm0, xmm4
  00143	f2 0f 58 c2	 addsd	 xmm0, xmm2
  00147	f2 0f 2c f8	 cvttsd2si edi, xmm0
  0014b	03 fa		 add	 edi, edx

; 416  : 				// 이동이 고정되면서 발생한 오차 보정
; 417  : 				if( (pstControl->dwStyle & (CP_MOVE_VERTICAL)) != (CP_MOVE_VERTICAL) )

  0014d	85 c9		 test	 ecx, ecx
  0014f	75 22		 jne	 SHORT $LN57@ResizeCont

; 418  : 					rect.bottom += (int)((dHRate-1)*(pstControl->m_ChRect.top-m_PaWRect.top-topGap)+0.5);

  00151	0f 28 c4	 movaps	 xmm0, xmm4
  00154	f2 0f 10 25 00
	00 00 00	 movsd	 xmm4, QWORD PTR __real@3ff0000000000000
  0015c	f2 0f 5c c4	 subsd	 xmm0, xmm4
  00160	f2 0f 59 c1	 mulsd	 xmm0, xmm1
  00164	f2 0f 58 c2	 addsd	 xmm0, xmm2
  00168	f2 0f 2c c0	 cvttsd2si eax, xmm0
  0016c	03 f8		 add	 edi, eax

; 419  : 			}

  0016e	eb 0b		 jmp	 SHORT $LN15@ResizeCont
$LN14@ResizeCont:

; 420  : 			else
; 421  : 				rect.bottom	= rect.top + pstControl->m_ChRect.Height();

  00170	8d 3c 10	 lea	 edi, DWORD PTR [eax+edx]
$LN57@ResizeCont:

; 422  : 
; 423  : 			if ((pstControl->dwStyle & (CP_RESIZE_HORIZONTAL)) == (CP_RESIZE_HORIZONTAL))

  00173	f2 0f 10 25 00
	00 00 00	 movsd	 xmm4, QWORD PTR __real@3ff0000000000000
$LN15@ResizeCont:
  0017b	8b 45 fc	 mov	 eax, DWORD PTR _pstControl$1$[ebp]
  0017e	8b 40 10	 mov	 eax, DWORD PTR [eax+16]
  00181	2b 45 f8	 sub	 eax, DWORD PTR tv1045[ebp]
  00184	f6 45 f4 04	 test	 BYTE PTR tv1038[ebp], 4
  00188	74 3c		 je	 SHORT $LN17@ResizeCont

; 424  : 			{
; 425  : 				rect.right	= rect.left + (int)(dWRate * (pstControl->m_ChRect.Width()) + 0.5);

  0018a	66 0f 6e c0	 movd	 xmm0, eax
  0018e	f3 0f e6 c0	 cvtdq2pd xmm0, xmm0
  00192	f2 0f 59 c3	 mulsd	 xmm0, xmm3
  00196	f2 0f 58 c2	 addsd	 xmm0, xmm2
  0019a	f2 0f 2c c8	 cvttsd2si ecx, xmm0
  0019e	03 cb		 add	 ecx, ebx

; 426  : 				// 이동이 고정되면서 발생한 오차 보정
; 427  : 				if( (pstControl->dwStyle & (CP_MOVE_HORIZONTAL)) != (CP_MOVE_HORIZONTAL) )

  001a0	83 7d f0 00	 cmp	 DWORD PTR tv1032[ebp], 0
  001a4	75 23		 jne	 SHORT $LN18@ResizeCont

; 428  : 					rect.right += (int)((dWRate-1)*(pstControl->m_ChRect.left-m_PaWRect.left-leftGap)+0.5);

  001a6	66 0f 6e 45 ec	 movd	 xmm0, DWORD PTR tv1051[ebp]
  001ab	0f 28 cb	 movaps	 xmm1, xmm3
  001ae	f3 0f e6 c0	 cvtdq2pd xmm0, xmm0
  001b2	f2 0f 5c cc	 subsd	 xmm1, xmm4
  001b6	f2 0f 59 c8	 mulsd	 xmm1, xmm0
  001ba	f2 0f 58 ca	 addsd	 xmm1, xmm2
  001be	f2 0f 2c c1	 cvttsd2si eax, xmm1
  001c2	03 c8		 add	 ecx, eax

; 429  : 			}

  001c4	eb 03		 jmp	 SHORT $LN18@ResizeCont
$LN17@ResizeCont:

; 430  : 			else
; 431  : 				rect.right	= rect.left + pstControl->m_ChRect.Width();

  001c6	8d 0c 18	 lea	 ecx, DWORD PTR [eax+ebx]
$LN18@ResizeCont:
; File C:\Program Files (x86)\Microsoft Visual Studio\2019\Community\VC\Tools\MSVC\14.29.30133\atlmfc\include\afxwin2.inl

; 73   : 	{ MoveWindow(lpRect->left, lpRect->top, lpRect->right - lpRect->left,

  001c9	6a 01		 push	 1
  001cb	2b fa		 sub	 edi, edx
  001cd	2b cb		 sub	 ecx, ebx
  001cf	57		 push	 edi
  001d0	51		 push	 ecx
  001d1	8b 4d e8	 mov	 ecx, DWORD PTR _pControl$1$[ebp]
  001d4	52		 push	 edx
  001d5	53		 push	 ebx
  001d6	e8 00 00 00 00	 call	 ?MoveWindow@CWnd@@QAEXHHHHH@Z ; CWnd::MoveWindow
; File D:\git\src\IBK\IBK_DRFN\ProjSrc\SrcDrfn\DrCommon\PcTrMng\ControlPos.cpp

; 396  : 		for(int i = 0; i < m_awndControls.GetSize(); i++) 

  001db	8b 4d 10	 mov	 ecx, DWORD PTR _i$1$[ebp]
  001de	8b 46 54	 mov	 eax, DWORD PTR [esi+84]
  001e1	41		 inc	 ecx
  001e2	8b 5d e4	 mov	 ebx, DWORD PTR tv1048[ebp]
  001e5	89 4d 10	 mov	 DWORD PTR _i$1$[ebp], ecx
  001e8	3b c8		 cmp	 ecx, eax
  001ea	0f 8c a7 fe ff
	ff		 jl	 $LL4@ResizeCont
; File C:\Program Files (x86)\Microsoft Visual Studio\2019\Community\VC\Tools\MSVC\14.29.30133\atlmfc\include\afxcoll.inl

; 246  : 		if( nIndex < 0 || nIndex >= m_nSize )

  001f0	8b 56 04	 mov	 edx, DWORD PTR [esi+4]
  001f3	5f		 pop	 edi
$LN3@ResizeCont:
; File C:\Program Files (x86)\Microsoft Visual Studio\2019\Community\VC\Tools\MSVC\14.29.30133\atlmfc\include\afxwin2.inl

; 116  : 	{ ASSERT(::IsWindow(m_hWnd)); ::InvalidateRect(m_hWnd, lpRect, bErase); }

  001f4	6a 01		 push	 1
  001f6	6a 00		 push	 0
  001f8	ff 72 20	 push	 DWORD PTR [edx+32]
  001fb	ff 15 00 00 00
	00		 call	 DWORD PTR __imp__InvalidateRect@12
  00201	5b		 pop	 ebx
$LN9@ResizeCont:
  00202	5e		 pop	 esi
; File D:\git\src\IBK\IBK_DRFN\ProjSrc\SrcDrfn\DrCommon\PcTrMng\ControlPos.cpp

; 485  : }

  00203	8b e5		 mov	 esp, ebp
  00205	5d		 pop	 ebp
  00206	c2 10 00	 ret	 16			; 00000010H
$LN51@ResizeCont:
; File C:\Program Files (x86)\Microsoft Visual Studio\2019\Community\VC\Tools\MSVC\14.29.30133\atlmfc\include\afxcoll.inl

; 247  : 			AfxThrowInvalidArgException();

  00209	e8 00 00 00 00	 call	 ?AfxThrowInvalidArgException@@YGXXZ ; AfxThrowInvalidArgException
$LN58@ResizeCont:
  0020e	cc		 int	 3
?ResizeControls@CControlPos@@QAEXHHHH@Z ENDP		; CControlPos::ResizeControls
_TEXT	ENDS
; Function compile flags: /Ogtp
; File D:\git\src\IBK\IBK_DRFN\ProjSrc\SrcDrfn\DrCommon\PcTrMng\ControlPos.cpp
; File C:\Program Files (x86)\Microsoft Visual Studio\2019\Community\VC\Tools\MSVC\14.29.30133\atlmfc\include\afxcoll.inl
; File C:\Program Files (x86)\Microsoft Visual Studio\2019\Community\VC\Tools\MSVC\14.29.30133\atlmfc\include\atltypes.h
; File C:\Program Files (x86)\Microsoft Visual Studio\2019\Community\VC\Tools\MSVC\14.29.30133\atlmfc\include\afxcoll.inl
; File C:\Program Files (x86)\Microsoft Visual Studio\2019\Community\VC\Tools\MSVC\14.29.30133\atlmfc\include\atltypes.h
; File D:\git\src\IBK\IBK_DRFN\ProjSrc\SrcDrfn\DrCommon\PcTrMng\ControlPos.cpp
; File C:\Program Files (x86)\Microsoft Visual Studio\2019\Community\VC\Tools\MSVC\14.29.30133\atlmfc\include\afxwin2.inl
; File D:\git\src\IBK\IBK_DRFN\ProjSrc\SrcDrfn\DrCommon\PcTrMng\ControlPos.cpp
; File C:\Program Files (x86)\Microsoft Visual Studio\2019\Community\VC\Tools\MSVC\14.29.30133\atlmfc\include\afxwin2.inl
; File D:\git\src\IBK\IBK_DRFN\ProjSrc\SrcDrfn\DrCommon\PcTrMng\ControlPos.cpp
; File C:\Program Files (x86)\Microsoft Visual Studio\2019\Community\VC\Tools\MSVC\14.29.30133\atlmfc\include\afxwin2.inl
; File D:\git\src\IBK\IBK_DRFN\ProjSrc\SrcDrfn\DrCommon\PcTrMng\ControlPos.cpp
; File C:\Program Files (x86)\Microsoft Visual Studio\2019\Community\VC\Tools\MSVC\14.29.30133\atlmfc\include\afxcoll.inl
; File D:\git\src\IBK\IBK_DRFN\ProjSrc\SrcDrfn\DrCommon\PcTrMng\ControlPos.cpp
; File C:\Program Files (x86)\Microsoft Visual Studio\2019\Community\VC\Tools\MSVC\14.29.30133\atlmfc\include\afxcoll.inl
; File D:\git\src\IBK\IBK_DRFN\ProjSrc\SrcDrfn\DrCommon\PcTrMng\ControlPos.cpp
;	COMDAT ?MoveControls@CControlPos@@UAEXXZ
_TEXT	SEGMENT
_pControl$1$ = -56					; size = 4
tv907 = -52						; size = 4
_i$1$ = -48						; size = 4
_pstControl$1$ = -44					; size = 4
tv930 = -40						; size = 4
_rcParentBounds$1$ = -40				; size = 4
_rcParentBounds$1 = -36					; size = 16
_rcBounds$2 = -20					; size = 16
__$ArrayPad$ = -4					; size = 4
?MoveControls@CControlPos@@UAEXXZ PROC			; CControlPos::MoveControls, COMDAT
; _this$ = ecx

; 503  : {

  00000	55		 push	 ebp
  00001	8b ec		 mov	 ebp, esp
  00003	83 ec 38	 sub	 esp, 56			; 00000038H
  00006	a1 00 00 00 00	 mov	 eax, DWORD PTR ___security_cookie
  0000b	33 c5		 xor	 eax, ebp
  0000d	89 45 fc	 mov	 DWORD PTR __$ArrayPad$[ebp], eax
  00010	56		 push	 esi

; 504  : 	AfxMessageBox("CControlPos::MoveControls 왜부르시나요?");

  00011	6a 00		 push	 0
  00013	6a 00		 push	 0
  00015	68 00 00 00 00	 push	 OFFSET ??_C@_0CI@KPJJDAPL@CControlPos?3?3MoveControls?5?$LP?V?$LK?N?$LI@
  0001a	8b f1		 mov	 esi, ecx
  0001c	e8 00 00 00 00	 call	 ?AfxMessageBox@@YGHPBDII@Z ; AfxMessageBox

; 505  : 	if (m_pParent)

  00021	83 7e 04 00	 cmp	 DWORD PTR [esi+4], 0
  00025	0f 84 01 02 00
	00		 je	 $LN5@MoveContro

; 517  : 		for (int i = 0; i < m_awndControls.GetSize(); i++)

  0002b	8b 46 54	 mov	 eax, DWORD PTR [esi+84]
  0002e	33 c9		 xor	 ecx, ecx
  00030	89 4d d0	 mov	 DWORD PTR _i$1$[ebp], ecx
  00033	85 c0		 test	 eax, eax
  00035	0f 8e ea 01 00
	00		 jle	 $LN3@MoveContro
  0003b	53		 push	 ebx
  0003c	57		 push	 edi
  0003d	0f 1f 00	 npad	 3
$LL4@MoveContro:
; File C:\Program Files (x86)\Microsoft Visual Studio\2019\Community\VC\Tools\MSVC\14.29.30133\atlmfc\include\afxcoll.inl

; 246  : 		if( nIndex < 0 || nIndex >= m_nSize )

  00040	85 c9		 test	 ecx, ecx
  00042	0f 88 f3 01 00
	00		 js	 $LN55@MoveContro
  00048	3b c8		 cmp	 ecx, eax
  0004a	0f 8d eb 01 00
	00		 jge	 $LN55@MoveContro

; 248  : 		return m_pData[nIndex]; }

  00050	8b 46 50	 mov	 eax, DWORD PTR [esi+80]
  00053	0f 57 c0	 xorps	 xmm0, xmm0
  00056	8b 1c 88	 mov	 ebx, DWORD PTR [eax+ecx*4]
; File C:\Program Files (x86)\Microsoft Visual Studio\2019\Community\VC\Tools\MSVC\14.29.30133\atlmfc\include\atltypes.h

; 528  : 	left = 0;

  00059	0f 11 45 dc	 movups	 XMMWORD PTR _rcParentBounds$1[ebp], xmm0
; File C:\Program Files (x86)\Microsoft Visual Studio\2019\Community\VC\Tools\MSVC\14.29.30133\atlmfc\include\afxcoll.inl

; 248  : 		return m_pData[nIndex]; }

  0005d	89 5d d4	 mov	 DWORD PTR _pstControl$1$[ebp], ebx
; File C:\Program Files (x86)\Microsoft Visual Studio\2019\Community\VC\Tools\MSVC\14.29.30133\atlmfc\include\atltypes.h

; 528  : 	left = 0;

  00060	0f 11 45 ec	 movups	 XMMWORD PTR _rcBounds$2[ebp], xmm0
; File D:\git\src\IBK\IBK_DRFN\ProjSrc\SrcDrfn\DrCommon\PcTrMng\ControlPos.cpp

; 522  : 			CWnd* pControl = m_pParent->FromHandle(pstControl->hControl);

  00064	ff 33		 push	 DWORD PTR [ebx]
  00066	e8 00 00 00 00	 call	 ?FromHandle@CWnd@@SGPAV1@PAUHWND__@@@Z ; CWnd::FromHandle
; File C:\Program Files (x86)\Microsoft Visual Studio\2019\Community\VC\Tools\MSVC\14.29.30133\atlmfc\include\afxwin2.inl

; 84   : 	{ ASSERT(::IsWindow(m_hWnd)); ::GetWindowRect(m_hWnd, lpRect); }

  0006b	8d 4d ec	 lea	 ecx, DWORD PTR _rcBounds$2[ebp]
; File D:\git\src\IBK\IBK_DRFN\ProjSrc\SrcDrfn\DrCommon\PcTrMng\ControlPos.cpp

; 522  : 			CWnd* pControl = m_pParent->FromHandle(pstControl->hControl);

  0006e	89 45 c8	 mov	 DWORD PTR _pControl$1$[ebp], eax
; File C:\Program Files (x86)\Microsoft Visual Studio\2019\Community\VC\Tools\MSVC\14.29.30133\atlmfc\include\afxwin2.inl

; 84   : 	{ ASSERT(::IsWindow(m_hWnd)); ::GetWindowRect(m_hWnd, lpRect); }

  00071	51		 push	 ecx
  00072	ff 70 20	 push	 DWORD PTR [eax+32]
  00075	ff 15 00 00 00
	00		 call	 DWORD PTR __imp__GetWindowRect@8

; 86   : 	{ ASSERT(::IsWindow(m_hWnd)); ::GetClientRect(m_hWnd, lpRect); }

  0007b	8b 4e 04	 mov	 ecx, DWORD PTR [esi+4]
  0007e	8d 45 dc	 lea	 eax, DWORD PTR _rcParentBounds$1[ebp]
  00081	50		 push	 eax
  00082	ff 71 20	 push	 DWORD PTR [ecx+32]
  00085	ff 15 00 00 00
	00		 call	 DWORD PTR __imp__GetClientRect@8
; File D:\git\src\IBK\IBK_DRFN\ProjSrc\SrcDrfn\DrCommon\PcTrMng\ControlPos.cpp

; 527  : 			if ((pstControl->dwStyle & (CP_RESIZE_VERTICAL)) == (CP_RESIZE_VERTICAL))

  0008b	f6 43 04 08	 test	 BYTE PTR [ebx+4], 8
  0008f	8b 4d e8	 mov	 ecx, DWORD PTR _rcParentBounds$1[ebp+12]
  00092	89 4d d8	 mov	 DWORD PTR _rcParentBounds$1$[ebp], ecx
  00095	74 4d		 je	 SHORT $LN59@MoveContro

; 528  : 			{
; 529  : 				if (!m_fNegativeMoves)

  00097	83 7e 18 00	 cmp	 DWORD PTR [esi+24], 0
  0009b	75 38		 jne	 SHORT $LN7@MoveContro

; 530  : 				{
; 531  : 					if (rcParentBounds.bottom > m_nOriginalParentHeight)

  0009d	8b 56 14	 mov	 edx, DWORD PTR [esi+20]
  000a0	8b 7e 0c	 mov	 edi, DWORD PTR [esi+12]
  000a3	3b ca		 cmp	 ecx, edx
  000a5	7e 1e		 jle	 SHORT $LN9@MoveContro

; 532  : 					{
; 533  : 						if (m_nOriginalParentHeight <= m_nOldParentHeight)

  000a7	8b c1		 mov	 eax, ecx
  000a9	3b d7		 cmp	 edx, edi
  000ab	7f 0c		 jg	 SHORT $LN11@MoveContro

; 534  : 						{
; 535  : 							rcBounds.bottom += rcParentBounds.bottom - m_nOldParentHeight;

  000ad	2b c7		 sub	 eax, edi
  000af	8b 7d f8	 mov	 edi, DWORD PTR _rcBounds$2[ebp+12]
  000b2	03 f8		 add	 edi, eax
  000b4	89 7d f8	 mov	 DWORD PTR _rcBounds$2[ebp+12], edi

; 536  : 						}

  000b7	eb 2e		 jmp	 SHORT $LN8@MoveContro
$LN11@MoveContro:

; 537  : 						else
; 538  : 						{
; 539  : 							rcBounds.bottom += rcParentBounds.bottom - m_nOriginalParentHeight;

  000b9	8b 7d f8	 mov	 edi, DWORD PTR _rcBounds$2[ebp+12]
  000bc	2b c2		 sub	 eax, edx
  000be	03 f8		 add	 edi, eax
  000c0	89 7d f8	 mov	 DWORD PTR _rcBounds$2[ebp+12], edi

; 540  : 						}
; 541  : 					}

  000c3	eb 22		 jmp	 SHORT $LN8@MoveContro
$LN9@MoveContro:

; 542  : 					else
; 543  : 					{
; 544  : 						if (m_nOldParentHeight > m_nOriginalParentHeight)

  000c5	3b fa		 cmp	 edi, edx
  000c7	7e 1b		 jle	 SHORT $LN59@MoveContro

; 545  : 						{
; 546  : 							rcBounds.bottom += m_nOriginalParentHeight - m_nOldParentHeight;

  000c9	2b d7		 sub	 edx, edi
  000cb	8b 7d f8	 mov	 edi, DWORD PTR _rcBounds$2[ebp+12]
  000ce	03 fa		 add	 edi, edx
  000d0	89 7d f8	 mov	 DWORD PTR _rcBounds$2[ebp+12], edi

; 547  : 						}
; 548  : 					}
; 549  : 				}

  000d3	eb 12		 jmp	 SHORT $LN8@MoveContro
$LN7@MoveContro:

; 550  : 				else
; 551  : 				{
; 552  : 					rcBounds.bottom += rcParentBounds.bottom - m_nOldParentHeight;

  000d5	8b 7d f8	 mov	 edi, DWORD PTR _rcBounds$2[ebp+12]
  000d8	8b c1		 mov	 eax, ecx
  000da	2b 46 0c	 sub	 eax, DWORD PTR [esi+12]
  000dd	03 f8		 add	 edi, eax
  000df	89 7d f8	 mov	 DWORD PTR _rcBounds$2[ebp+12], edi
  000e2	eb 03		 jmp	 SHORT $LN8@MoveContro
$LN59@MoveContro:

; 527  : 			if ((pstControl->dwStyle & (CP_RESIZE_VERTICAL)) == (CP_RESIZE_VERTICAL))

  000e4	8b 7d f8	 mov	 edi, DWORD PTR _rcBounds$2[ebp+12]
$LN8@MoveContro:

; 553  : 				}
; 554  : 			}
; 555  : 
; 556  : 			if ((pstControl->dwStyle & (CP_RESIZE_HORIZONTAL)) == (CP_RESIZE_HORIZONTAL))

  000e7	f6 43 04 04	 test	 BYTE PTR [ebx+4], 4
  000eb	8b 5d e4	 mov	 ebx, DWORD PTR _rcParentBounds$1[ebp+8]
  000ee	74 51		 je	 SHORT $LN60@MoveContro

; 557  : 			{
; 558  : 				if (!m_fNegativeMoves)

  000f0	83 7e 18 00	 cmp	 DWORD PTR [esi+24], 0
  000f4	75 3c		 jne	 SHORT $LN15@MoveContro

; 559  : 				{
; 560  : 					if (rcParentBounds.right > m_nOriginalParentWidth)

  000f6	8b 46 10	 mov	 eax, DWORD PTR [esi+16]
  000f9	8b 56 08	 mov	 edx, DWORD PTR [esi+8]
  000fc	89 45 cc	 mov	 DWORD PTR tv907[ebp], eax
  000ff	3b d8		 cmp	 ebx, eax
  00101	7e 1f		 jle	 SHORT $LN17@MoveContro

; 561  : 					{
; 562  : 						if (m_nOriginalParentWidth <= m_nOldParentWidth)

  00103	3b c2		 cmp	 eax, edx
  00105	8b c3		 mov	 eax, ebx
  00107	7f 0c		 jg	 SHORT $LN19@MoveContro

; 563  : 						{
; 564  : 							rcBounds.right += rcParentBounds.right - m_nOldParentWidth;

  00109	2b c2		 sub	 eax, edx
  0010b	8b 55 f4	 mov	 edx, DWORD PTR _rcBounds$2[ebp+8]
  0010e	03 d0		 add	 edx, eax
  00110	89 55 f4	 mov	 DWORD PTR _rcBounds$2[ebp+8], edx

; 565  : 						}

  00113	eb 2f		 jmp	 SHORT $LN16@MoveContro
$LN19@MoveContro:

; 566  : 						else
; 567  : 						{
; 568  : 							rcBounds.right += rcParentBounds.right - m_nOriginalParentWidth;

  00115	8b 55 f4	 mov	 edx, DWORD PTR _rcBounds$2[ebp+8]
  00118	2b 45 cc	 sub	 eax, DWORD PTR tv907[ebp]
  0011b	03 d0		 add	 edx, eax
  0011d	89 55 f4	 mov	 DWORD PTR _rcBounds$2[ebp+8], edx

; 569  : 						}
; 570  : 					}

  00120	eb 22		 jmp	 SHORT $LN16@MoveContro
$LN17@MoveContro:

; 571  : 					else
; 572  : 					{
; 573  : 						if (m_nOldParentWidth > m_nOriginalParentWidth)

  00122	3b d0		 cmp	 edx, eax
  00124	7e 1b		 jle	 SHORT $LN60@MoveContro

; 574  : 						{
; 575  : 							rcBounds.right += m_nOriginalParentWidth - m_nOldParentWidth;

  00126	2b c2		 sub	 eax, edx
  00128	8b 55 f4	 mov	 edx, DWORD PTR _rcBounds$2[ebp+8]
  0012b	03 d0		 add	 edx, eax
  0012d	89 55 f4	 mov	 DWORD PTR _rcBounds$2[ebp+8], edx

; 576  : 						}
; 577  : 					}
; 578  : 				}

  00130	eb 12		 jmp	 SHORT $LN16@MoveContro
$LN15@MoveContro:

; 579  : 				else
; 580  : 				{
; 581  : 					rcBounds.right += rcParentBounds.right - m_nOldParentWidth;

  00132	8b 55 f4	 mov	 edx, DWORD PTR _rcBounds$2[ebp+8]
  00135	8b c3		 mov	 eax, ebx
  00137	2b 46 08	 sub	 eax, DWORD PTR [esi+8]
  0013a	03 d0		 add	 edx, eax
  0013c	89 55 f4	 mov	 DWORD PTR _rcBounds$2[ebp+8], edx
  0013f	eb 03		 jmp	 SHORT $LN16@MoveContro
$LN60@MoveContro:

; 553  : 				}
; 554  : 			}
; 555  : 
; 556  : 			if ((pstControl->dwStyle & (CP_RESIZE_HORIZONTAL)) == (CP_RESIZE_HORIZONTAL))

  00141	8b 55 f4	 mov	 edx, DWORD PTR _rcBounds$2[ebp+8]
$LN16@MoveContro:

; 582  : 				}
; 583  : 			}
; 584  : 
; 585  : 			if ((pstControl->dwStyle & (CP_MOVE_VERTICAL)) == (CP_MOVE_VERTICAL))

  00144	8b 45 d4	 mov	 eax, DWORD PTR _pstControl$1$[ebp]
  00147	f6 40 04 02	 test	 BYTE PTR [eax+4], 2
  0014b	74 52		 je	 SHORT $LN24@MoveContro

; 586  : 			{
; 587  : 				if (!m_fNegativeMoves)

  0014d	83 7e 18 00	 cmp	 DWORD PTR [esi+24], 0
  00151	75 38		 jne	 SHORT $LN23@MoveContro

; 588  : 				{
; 589  : 					if (rcParentBounds.bottom > m_nOriginalParentHeight)

  00153	8b 46 14	 mov	 eax, DWORD PTR [esi+20]
  00156	89 45 d8	 mov	 DWORD PTR tv930[ebp], eax
  00159	3b c8		 cmp	 ecx, eax
  0015b	7e 21		 jle	 SHORT $LN25@MoveContro

; 590  : 					{
; 591  : 						if (m_nOriginalParentHeight <= m_nOldParentHeight)

  0015d	3b 46 0c	 cmp	 eax, DWORD PTR [esi+12]
  00160	8b c1		 mov	 eax, ecx
  00162	7f 0d		 jg	 SHORT $LN27@MoveContro

; 592  : 						{
; 593  : 							rcBounds.bottom += rcParentBounds.bottom - m_nOldParentHeight;

  00164	2b 46 0c	 sub	 eax, DWORD PTR [esi+12]

; 594  : 							rcBounds.top += rcParentBounds.bottom - m_nOldParentHeight;

  00167	2b 4e 0c	 sub	 ecx, DWORD PTR [esi+12]
  0016a	03 f8		 add	 edi, eax
  0016c	01 4d f0	 add	 DWORD PTR _rcBounds$2[ebp+4], ecx

; 595  : 						}

  0016f	eb 2b		 jmp	 SHORT $LN62@MoveContro
$LN27@MoveContro:

; 596  : 						else
; 597  : 						{
; 598  : 							rcBounds.bottom += rcParentBounds.bottom - m_nOriginalParentHeight;

  00171	2b 45 d8	 sub	 eax, DWORD PTR tv930[ebp]

; 599  : 							rcBounds.top += rcParentBounds.bottom - m_nOriginalParentHeight;

  00174	2b 4d d8	 sub	 ecx, DWORD PTR tv930[ebp]
  00177	03 f8		 add	 edi, eax
  00179	01 4d f0	 add	 DWORD PTR _rcBounds$2[ebp+4], ecx

; 600  : 						}
; 601  : 					}

  0017c	eb 1e		 jmp	 SHORT $LN62@MoveContro
$LN25@MoveContro:

; 602  : 					else
; 603  : 					{
; 604  : 						if (m_nOldParentHeight > m_nOriginalParentHeight)

  0017e	8b 4e 0c	 mov	 ecx, DWORD PTR [esi+12]
  00181	3b c8		 cmp	 ecx, eax
  00183	7e 1a		 jle	 SHORT $LN24@MoveContro

; 605  : 						{
; 606  : 							rcBounds.bottom += m_nOriginalParentHeight - m_nOldParentHeight;

  00185	2b c1		 sub	 eax, ecx
  00187	03 f8		 add	 edi, eax

; 607  : 							rcBounds.top += m_nOriginalParentHeight - m_nOldParentHeight;
; 608  : 						}
; 609  : 					}
; 610  : 				}

  00189	eb 0e		 jmp	 SHORT $LN63@MoveContro
$LN23@MoveContro:

; 611  : 				else
; 612  : 				{
; 613  : 					rcBounds.bottom += rcParentBounds.bottom - m_nOldParentHeight;

  0018b	8b 45 d8	 mov	 eax, DWORD PTR _rcParentBounds$1$[ebp]
  0018e	2b 46 0c	 sub	 eax, DWORD PTR [esi+12]
  00191	03 f8		 add	 edi, eax

; 614  : 					rcBounds.top += rcParentBounds.bottom - m_nOldParentHeight;

  00193	8b 45 d8	 mov	 eax, DWORD PTR _rcParentBounds$1$[ebp]
  00196	2b 46 0c	 sub	 eax, DWORD PTR [esi+12]
$LN63@MoveContro:

; 615  : 				}
; 616  : 			}
; 617  : 
; 618  : 			if ((pstControl->dwStyle & (CP_MOVE_HORIZONTAL)) == (CP_MOVE_HORIZONTAL))

  00199	01 45 f0	 add	 DWORD PTR _rcBounds$2[ebp+4], eax
$LN62@MoveContro:
  0019c	89 7d f8	 mov	 DWORD PTR _rcBounds$2[ebp+12], edi
$LN24@MoveContro:
  0019f	8b 4d d4	 mov	 ecx, DWORD PTR _pstControl$1$[ebp]
  001a2	f6 41 04 01	 test	 BYTE PTR [ecx+4], 1
  001a6	74 3f		 je	 SHORT $LN32@MoveContro

; 619  : 			{
; 620  : 				if (!m_fNegativeMoves)

  001a8	83 7e 18 00	 cmp	 DWORD PTR [esi+24], 0
  001ac	75 29		 jne	 SHORT $LN31@MoveContro

; 621  : 				{
; 622  : 					if (rcParentBounds.right > m_nOriginalParentWidth)

  001ae	8b 4e 10	 mov	 ecx, DWORD PTR [esi+16]
  001b1	8b 7e 08	 mov	 edi, DWORD PTR [esi+8]
  001b4	3b d9		 cmp	 ebx, ecx
  001b6	7e 12		 jle	 SHORT $LN33@MoveContro

; 623  : 					{
; 624  : 						if (m_nOriginalParentWidth <= m_nOldParentWidth)

  001b8	8b c3		 mov	 eax, ebx
  001ba	3b cf		 cmp	 ecx, edi
  001bc	7f 06		 jg	 SHORT $LN35@MoveContro

; 625  : 						{
; 626  : 							rcBounds.right += rcParentBounds.right - m_nOldParentWidth;

  001be	2b c7		 sub	 eax, edi

; 627  : 							rcBounds.left += rcParentBounds.right - m_nOldParentWidth;

  001c0	2b df		 sub	 ebx, edi

; 628  : 						}

  001c2	eb 1b		 jmp	 SHORT $LN64@MoveContro
$LN35@MoveContro:

; 629  : 						else
; 630  : 						{
; 631  : 							rcBounds.right += rcParentBounds.right - m_nOriginalParentWidth;

  001c4	2b c1		 sub	 eax, ecx

; 632  : 							rcBounds.left += rcParentBounds.right - m_nOriginalParentWidth;

  001c6	2b d9		 sub	 ebx, ecx

; 633  : 						}
; 634  : 					}

  001c8	eb 15		 jmp	 SHORT $LN64@MoveContro
$LN33@MoveContro:

; 635  : 					else
; 636  : 					{
; 637  : 						if (m_nOldParentWidth > m_nOriginalParentWidth)

  001ca	3b f9		 cmp	 edi, ecx
  001cc	7e 19		 jle	 SHORT $LN32@MoveContro

; 638  : 						{
; 639  : 							rcBounds.right += m_nOriginalParentWidth - m_nOldParentWidth;

  001ce	2b cf		 sub	 ecx, edi
  001d0	03 d1		 add	 edx, ecx

; 640  : 							rcBounds.left += m_nOriginalParentWidth - m_nOldParentWidth;

  001d2	01 4d ec	 add	 DWORD PTR _rcBounds$2[ebp], ecx

; 641  : 						}
; 642  : 					}
; 643  : 				}

  001d5	eb 0d		 jmp	 SHORT $LN65@MoveContro
$LN31@MoveContro:

; 644  : 				else
; 645  : 				{
; 646  : 					rcBounds.right += rcParentBounds.right - m_nOldParentWidth;

  001d7	8b c3		 mov	 eax, ebx
  001d9	2b 46 08	 sub	 eax, DWORD PTR [esi+8]

; 647  : 					rcBounds.left += rcParentBounds.right - m_nOldParentWidth;

  001dc	2b 5e 08	 sub	 ebx, DWORD PTR [esi+8]
$LN64@MoveContro:

; 648  : 				}
; 649  : 			}
; 650  : 
; 651  : 			m_pParent->ScreenToClient(rcBounds);

  001df	03 d0		 add	 edx, eax
  001e1	01 5d ec	 add	 DWORD PTR _rcBounds$2[ebp], ebx
$LN65@MoveContro:
  001e4	89 55 f4	 mov	 DWORD PTR _rcBounds$2[ebp+8], edx
$LN32@MoveContro:
  001e7	8b 4e 04	 mov	 ecx, DWORD PTR [esi+4]
  001ea	8d 45 ec	 lea	 eax, DWORD PTR _rcBounds$2[ebp]
  001ed	50		 push	 eax
  001ee	e8 00 00 00 00	 call	 ?ScreenToClient@CWnd@@QBEXPAUtagRECT@@@Z ; CWnd::ScreenToClient
; File C:\Program Files (x86)\Microsoft Visual Studio\2019\Community\VC\Tools\MSVC\14.29.30133\atlmfc\include\afxwin2.inl

; 73   : 	{ MoveWindow(lpRect->left, lpRect->top, lpRect->right - lpRect->left,

  001f3	8b 45 f8	 mov	 eax, DWORD PTR _rcBounds$2[ebp+12]
  001f6	8b 55 f0	 mov	 edx, DWORD PTR _rcBounds$2[ebp+4]
  001f9	2b c2		 sub	 eax, edx
  001fb	8b 4d ec	 mov	 ecx, DWORD PTR _rcBounds$2[ebp]
  001fe	6a 01		 push	 1
  00200	50		 push	 eax
  00201	8b 45 f4	 mov	 eax, DWORD PTR _rcBounds$2[ebp+8]
  00204	2b c1		 sub	 eax, ecx
  00206	50		 push	 eax
  00207	52		 push	 edx
  00208	51		 push	 ecx
  00209	8b 4d c8	 mov	 ecx, DWORD PTR _pControl$1$[ebp]
  0020c	e8 00 00 00 00	 call	 ?MoveWindow@CWnd@@QAEXHHHHH@Z ; CWnd::MoveWindow
; File D:\git\src\IBK\IBK_DRFN\ProjSrc\SrcDrfn\DrCommon\PcTrMng\ControlPos.cpp

; 517  : 		for (int i = 0; i < m_awndControls.GetSize(); i++)

  00211	8b 4d d0	 mov	 ecx, DWORD PTR _i$1$[ebp]
  00214	8b 46 54	 mov	 eax, DWORD PTR [esi+84]
  00217	41		 inc	 ecx
  00218	89 4d d0	 mov	 DWORD PTR _i$1$[ebp], ecx
  0021b	3b c8		 cmp	 ecx, eax
  0021d	0f 8c 1d fe ff
	ff		 jl	 $LL4@MoveContro
; File C:\Program Files (x86)\Microsoft Visual Studio\2019\Community\VC\Tools\MSVC\14.29.30133\atlmfc\include\afxcoll.inl

; 246  : 		if( nIndex < 0 || nIndex >= m_nSize )

  00223	5f		 pop	 edi
  00224	5b		 pop	 ebx
$LN3@MoveContro:
; File D:\git\src\IBK\IBK_DRFN\ProjSrc\SrcDrfn\DrCommon\PcTrMng\ControlPos.cpp

; 655  : 		UpdateParentSize();

  00225	8b 06		 mov	 eax, DWORD PTR [esi]
  00227	8b ce		 mov	 ecx, esi
  00229	ff 50 08	 call	 DWORD PTR [eax+8]
$LN5@MoveContro:

; 657  : }

  0022c	8b 4d fc	 mov	 ecx, DWORD PTR __$ArrayPad$[ebp]
  0022f	33 cd		 xor	 ecx, ebp
  00231	5e		 pop	 esi
  00232	e8 00 00 00 00	 call	 @__security_check_cookie@4
  00237	8b e5		 mov	 esp, ebp
  00239	5d		 pop	 ebp
  0023a	c3		 ret	 0
$LN55@MoveContro:
; File C:\Program Files (x86)\Microsoft Visual Studio\2019\Community\VC\Tools\MSVC\14.29.30133\atlmfc\include\afxcoll.inl

; 247  : 			AfxThrowInvalidArgException();

  0023b	e8 00 00 00 00	 call	 ?AfxThrowInvalidArgException@@YGXXZ ; AfxThrowInvalidArgException
$LN61@MoveContro:
  00240	cc		 int	 3
?MoveControls@CControlPos@@UAEXXZ ENDP			; CControlPos::MoveControls
_TEXT	ENDS
; Function compile flags: /Ogtp
; File D:\git\src\IBK\IBK_DRFN\ProjSrc\SrcDrfn\DrCommon\PcTrMng\ControlPos.cpp
; File C:\Program Files (x86)\Microsoft Visual Studio\2019\Community\VC\Tools\MSVC\14.29.30133\atlmfc\include\afxcoll.inl
; File D:\git\src\IBK\IBK_DRFN\ProjSrc\SrcDrfn\DrCommon\PcTrMng\ControlPos.cpp
; File C:\Program Files (x86)\Microsoft Visual Studio\2019\Community\VC\Tools\MSVC\14.29.30133\atlmfc\include\afxcoll.inl
; File D:\git\src\IBK\IBK_DRFN\ProjSrc\SrcDrfn\DrCommon\PcTrMng\ControlPos.cpp
; File C:\Program Files (x86)\Microsoft Visual Studio\2019\Community\VC\Tools\MSVC\14.29.30133\atlmfc\include\afxcoll.inl
; File D:\git\src\IBK\IBK_DRFN\ProjSrc\SrcDrfn\DrCommon\PcTrMng\ControlPos.cpp
;	COMDAT ?ResetControls@CControlPos@@QAEXXZ
_TEXT	SEGMENT
?ResetControls@CControlPos@@QAEXXZ PROC			; CControlPos::ResetControls, COMDAT
; _this$ = ecx

; 354  : {

  00000	53		 push	 ebx
  00001	8b d9		 mov	 ebx, ecx
  00003	56		 push	 esi

; 355  : 	while (m_awndControls.GetSize() > 0)

  00004	8b 73 54	 mov	 esi, DWORD PTR [ebx+84]
  00007	85 f6		 test	 esi, esi
  00009	7e 3a		 jle	 SHORT $LN3@ResetContr
  0000b	8b d6		 mov	 edx, esi
  0000d	57		 push	 edi
  0000e	66 90		 npad	 2
$LL2@ResetContr:
; File C:\Program Files (x86)\Microsoft Visual Studio\2019\Community\VC\Tools\MSVC\14.29.30133\atlmfc\include\afxcoll.inl

; 241  : 	{ return m_nSize-1; }

  00010	8d 4a ff	 lea	 ecx, DWORD PTR [edx-1]

; 246  : 		if( nIndex < 0 || nIndex >= m_nSize )

  00013	85 c9		 test	 ecx, ecx
  00015	78 31		 js	 SHORT $LN14@ResetContr
  00017	3b ce		 cmp	 ecx, esi
  00019	7d 2d		 jge	 SHORT $LN14@ResetContr

; 248  : 		return m_pData[nIndex]; }

  0001b	8b 43 50	 mov	 eax, DWORD PTR [ebx+80]
  0001e	8b 3c 88	 mov	 edi, DWORD PTR [eax+ecx*4]
; File D:\git\src\IBK\IBK_DRFN\ProjSrc\SrcDrfn\DrCommon\PcTrMng\ControlPos.cpp

; 359  : 		if (pstControl)

  00021	85 ff		 test	 edi, edi
  00023	74 1b		 je	 SHORT $LN4@ResetContr

; 360  : 		{
; 361  : 			m_awndControls.RemoveAt(nHighIdx);

  00025	6a 01		 push	 1
  00027	51		 push	 ecx
  00028	8d 4b 4c	 lea	 ecx, DWORD PTR [ebx+76]
  0002b	e8 00 00 00 00	 call	 ?RemoveAt@CObArray@@QAEXHH@Z ; CObArray::RemoveAt

; 362  : 			delete pstControl;

  00030	6a 2c		 push	 44			; 0000002cH
  00032	57		 push	 edi
  00033	e8 00 00 00 00	 call	 ??3@YAXPAXI@Z		; operator delete
  00038	8b 73 54	 mov	 esi, DWORD PTR [ebx+84]
  0003b	83 c4 08	 add	 esp, 8
  0003e	8b d6		 mov	 edx, esi
$LN4@ResetContr:

; 355  : 	while (m_awndControls.GetSize() > 0)

  00040	85 d2		 test	 edx, edx
  00042	7f cc		 jg	 SHORT $LL2@ResetContr
; File C:\Program Files (x86)\Microsoft Visual Studio\2019\Community\VC\Tools\MSVC\14.29.30133\atlmfc\include\afxcoll.inl

; 246  : 		if( nIndex < 0 || nIndex >= m_nSize )

  00044	5f		 pop	 edi
$LN3@ResetContr:
  00045	5e		 pop	 esi
; File D:\git\src\IBK\IBK_DRFN\ProjSrc\SrcDrfn\DrCommon\PcTrMng\ControlPos.cpp

; 365  : }

  00046	5b		 pop	 ebx
  00047	c3		 ret	 0
$LN14@ResetContr:
; File C:\Program Files (x86)\Microsoft Visual Studio\2019\Community\VC\Tools\MSVC\14.29.30133\atlmfc\include\afxcoll.inl

; 247  : 			AfxThrowInvalidArgException();

  00048	e8 00 00 00 00	 call	 ?AfxThrowInvalidArgException@@YGXXZ ; AfxThrowInvalidArgException
$LN17@ResetContr:
  0004d	cc		 int	 3
?ResetControls@CControlPos@@QAEXXZ ENDP			; CControlPos::ResetControls
_TEXT	ENDS
; Function compile flags: /Ogtp
; File D:\git\src\IBK\IBK_DRFN\ProjSrc\SrcDrfn\DrCommon\PcTrMng\ControlPos.cpp
; File C:\Program Files (x86)\Microsoft Visual Studio\2019\Community\VC\Tools\MSVC\14.29.30133\atlmfc\include\afxcoll.inl
; File D:\git\src\IBK\IBK_DRFN\ProjSrc\SrcDrfn\DrCommon\PcTrMng\ControlPos.cpp
; File C:\Program Files (x86)\Microsoft Visual Studio\2019\Community\VC\Tools\MSVC\14.29.30133\atlmfc\include\afxcoll.inl
; File D:\git\src\IBK\IBK_DRFN\ProjSrc\SrcDrfn\DrCommon\PcTrMng\ControlPos.cpp
;	COMDAT ?RemoveControl@CControlPos@@QAEHABI@Z
_TEXT	SEGMENT
tv246 = -8						; size = 4
_this$1$ = -4						; size = 4
_pControl$1$ = 8					; size = 4
_unId$ = 8						; size = 4
?RemoveControl@CControlPos@@QAEHABI@Z PROC		; CControlPos::RemoveControl, COMDAT
; _this$ = ecx

; 326  : {

  00000	55		 push	 ebp
  00001	8b ec		 mov	 ebp, esp
  00003	83 ec 08	 sub	 esp, 8
  00006	53		 push	 ebx
  00007	8b d9		 mov	 ebx, ecx
  00009	89 5d fc	 mov	 DWORD PTR _this$1$[ebp], ebx

; 327  : 	CWnd* pControl;
; 328  : 
; 329  : 	if (m_pParent)

  0000c	8b 4b 04	 mov	 ecx, DWORD PTR [ebx+4]
  0000f	85 c9		 test	 ecx, ecx
  00011	74 73		 je	 SHORT $LN2@RemoveCont

; 330  : 	{
; 331  : 		pControl = m_pParent->GetDlgItem(unId);

  00013	8b 45 08	 mov	 eax, DWORD PTR _unId$[ebp]
  00016	56		 push	 esi
  00017	57		 push	 edi
  00018	ff 30		 push	 DWORD PTR [eax]
  0001a	e8 00 00 00 00	 call	 ?GetDlgItem@CWnd@@QBEPAV1@H@Z ; CWnd::GetDlgItem

; 294  : 	for (int i = 0; i < m_awndControls.GetSize(); i++)

  0001f	8b 7b 54	 mov	 edi, DWORD PTR [ebx+84]

; 330  : 	{
; 331  : 		pControl = m_pParent->GetDlgItem(unId);

  00022	8b c8		 mov	 ecx, eax

; 292  : 	BOOL fReturnValue = FALSE;

  00024	33 c0		 xor	 eax, eax

; 330  : 	{
; 331  : 		pControl = m_pParent->GetDlgItem(unId);

  00026	89 4d 08	 mov	 DWORD PTR _pControl$1$[ebp], ecx

; 294  : 	for (int i = 0; i < m_awndControls.GetSize(); i++)

  00029	33 f6		 xor	 esi, esi
  0002b	85 ff		 test	 edi, edi
  0002d	7e 2a		 jle	 SHORT $LN7@RemoveCont
  0002f	8d 43 4c	 lea	 eax, DWORD PTR [ebx+76]
  00032	89 45 f8	 mov	 DWORD PTR tv246[ebp], eax
$LL8@RemoveCont:
; File C:\Program Files (x86)\Microsoft Visual Studio\2019\Community\VC\Tools\MSVC\14.29.30133\atlmfc\include\afxcoll.inl

; 246  : 		if( nIndex < 0 || nIndex >= m_nSize )

  00035	85 f6		 test	 esi, esi
  00037	78 56		 js	 SHORT $LN13@RemoveCont
  00039	3b f7		 cmp	 esi, edi
  0003b	7d 52		 jge	 SHORT $LN13@RemoveCont

; 248  : 		return m_pData[nIndex]; }

  0003d	8b 43 50	 mov	 eax, DWORD PTR [ebx+80]
  00040	8b 1c b0	 mov	 ebx, DWORD PTR [eax+esi*4]
; File D:\git\src\IBK\IBK_DRFN\ProjSrc\SrcDrfn\DrCommon\PcTrMng\ControlPos.cpp

; 298  : 		if (pstControl->hControl == pControl->GetSafeHwnd())

  00043	e8 00 00 00 00	 call	 ?GetSafeHwnd@CWnd@@QBEPAUHWND__@@XZ ; CWnd::GetSafeHwnd
  00048	39 03		 cmp	 DWORD PTR [ebx], eax
  0004a	74 16		 je	 SHORT $LN19@RemoveCont

; 293  : 
; 294  : 	for (int i = 0; i < m_awndControls.GetSize(); i++)

  0004c	8b 5d fc	 mov	 ebx, DWORD PTR _this$1$[ebp]
  0004f	46		 inc	 esi
  00050	8b 4d 08	 mov	 ecx, DWORD PTR _pControl$1$[ebp]
  00053	3b f7		 cmp	 esi, edi
  00055	7c de		 jl	 SHORT $LL8@RemoveCont

; 298  : 		if (pstControl->hControl == pControl->GetSafeHwnd())

  00057	33 c0		 xor	 eax, eax
$LN7@RemoveCont:

; 332  : 		return (RemoveControl(pControl));

  00059	5f		 pop	 edi
  0005a	5e		 pop	 esi
  0005b	5b		 pop	 ebx

; 338  : }

  0005c	8b e5		 mov	 esp, ebp
  0005e	5d		 pop	 ebp
  0005f	c2 04 00	 ret	 4
$LN19@RemoveCont:

; 300  : 			m_awndControls.RemoveAt(i);

  00062	8b 4d f8	 mov	 ecx, DWORD PTR tv246[ebp]
  00065	6a 01		 push	 1
  00067	56		 push	 esi
  00068	e8 00 00 00 00	 call	 ?RemoveAt@CObArray@@QAEXHH@Z ; CObArray::RemoveAt

; 301  : 			delete pstControl;

  0006d	6a 2c		 push	 44			; 0000002cH
  0006f	53		 push	 ebx
  00070	e8 00 00 00 00	 call	 ??3@YAXPAXI@Z		; operator delete
  00075	83 c4 08	 add	 esp, 8

; 302  : 			fReturnValue = TRUE;

  00078	b8 01 00 00 00	 mov	 eax, 1

; 332  : 		return (RemoveControl(pControl));

  0007d	5f		 pop	 edi
  0007e	5e		 pop	 esi
  0007f	5b		 pop	 ebx

; 338  : }

  00080	8b e5		 mov	 esp, ebp
  00082	5d		 pop	 ebp
  00083	c2 04 00	 ret	 4
$LN2@RemoveCont:

; 333  : 	}
; 334  : 	else
; 335  : 	{
; 336  : 		return (FALSE);

  00086	33 c0		 xor	 eax, eax
  00088	5b		 pop	 ebx

; 338  : }

  00089	8b e5		 mov	 esp, ebp
  0008b	5d		 pop	 ebp
  0008c	c2 04 00	 ret	 4
$LN13@RemoveCont:
; File C:\Program Files (x86)\Microsoft Visual Studio\2019\Community\VC\Tools\MSVC\14.29.30133\atlmfc\include\afxcoll.inl

; 247  : 			AfxThrowInvalidArgException();

  0008f	e8 00 00 00 00	 call	 ?AfxThrowInvalidArgException@@YGXXZ ; AfxThrowInvalidArgException
$LN23@RemoveCont:
  00094	cc		 int	 3
?RemoveControl@CControlPos@@QAEHABI@Z ENDP		; CControlPos::RemoveControl
_TEXT	ENDS
; Function compile flags: /Ogtp
; File D:\git\src\IBK\IBK_DRFN\ProjSrc\SrcDrfn\DrCommon\PcTrMng\ControlPos.cpp
; File C:\Program Files (x86)\Microsoft Visual Studio\2019\Community\VC\Tools\MSVC\14.29.30133\atlmfc\include\afxcoll.inl
; File D:\git\src\IBK\IBK_DRFN\ProjSrc\SrcDrfn\DrCommon\PcTrMng\ControlPos.cpp
; File C:\Program Files (x86)\Microsoft Visual Studio\2019\Community\VC\Tools\MSVC\14.29.30133\atlmfc\include\afxcoll.inl
; File D:\git\src\IBK\IBK_DRFN\ProjSrc\SrcDrfn\DrCommon\PcTrMng\ControlPos.cpp
; File C:\Program Files (x86)\Microsoft Visual Studio\2019\Community\VC\Tools\MSVC\14.29.30133\atlmfc\include\afxcoll.inl
; File D:\git\src\IBK\IBK_DRFN\ProjSrc\SrcDrfn\DrCommon\PcTrMng\ControlPos.cpp
;	COMDAT ?RemoveControl@CControlPos@@QAEHPAVCWnd@@@Z
_TEXT	SEGMENT
tv235 = -8						; size = 4
_this$1$ = -4						; size = 4
_pControl$ = 8						; size = 4
?RemoveControl@CControlPos@@QAEHPAVCWnd@@@Z PROC	; CControlPos::RemoveControl, COMDAT
; _this$ = ecx

; 291  : {

  00000	55		 push	 ebp
  00001	8b ec		 mov	 ebp, esp
  00003	83 ec 08	 sub	 esp, 8
  00006	8b c1		 mov	 eax, ecx

; 292  : 	BOOL fReturnValue = FALSE;

  00008	33 c9		 xor	 ecx, ecx
  0000a	56		 push	 esi
  0000b	57		 push	 edi

; 293  : 
; 294  : 	for (int i = 0; i < m_awndControls.GetSize(); i++)

  0000c	33 f6		 xor	 esi, esi
  0000e	89 45 fc	 mov	 DWORD PTR _this$1$[ebp], eax
  00011	8b 78 54	 mov	 edi, DWORD PTR [eax+84]
  00014	85 ff		 test	 edi, edi
  00016	7e 2d		 jle	 SHORT $LN3@RemoveCont
  00018	8d 48 4c	 lea	 ecx, DWORD PTR [eax+76]
  0001b	89 4d f8	 mov	 DWORD PTR tv235[ebp], ecx
  0001e	53		 push	 ebx
  0001f	90		 npad	 1
$LL4@RemoveCont:
; File C:\Program Files (x86)\Microsoft Visual Studio\2019\Community\VC\Tools\MSVC\14.29.30133\atlmfc\include\afxcoll.inl

; 246  : 		if( nIndex < 0 || nIndex >= m_nSize )

  00020	85 f6		 test	 esi, esi
  00022	78 51		 js	 SHORT $LN9@RemoveCont
  00024	3b f7		 cmp	 esi, edi
  00026	7d 4d		 jge	 SHORT $LN9@RemoveCont

; 248  : 		return m_pData[nIndex]; }

  00028	8b 40 50	 mov	 eax, DWORD PTR [eax+80]
; File D:\git\src\IBK\IBK_DRFN\ProjSrc\SrcDrfn\DrCommon\PcTrMng\ControlPos.cpp

; 298  : 		if (pstControl->hControl == pControl->GetSafeHwnd())

  0002b	8b 4d 08	 mov	 ecx, DWORD PTR _pControl$[ebp]
; File C:\Program Files (x86)\Microsoft Visual Studio\2019\Community\VC\Tools\MSVC\14.29.30133\atlmfc\include\afxcoll.inl

; 248  : 		return m_pData[nIndex]; }

  0002e	8b 1c b0	 mov	 ebx, DWORD PTR [eax+esi*4]
; File D:\git\src\IBK\IBK_DRFN\ProjSrc\SrcDrfn\DrCommon\PcTrMng\ControlPos.cpp

; 298  : 		if (pstControl->hControl == pControl->GetSafeHwnd())

  00031	e8 00 00 00 00	 call	 ?GetSafeHwnd@CWnd@@QBEPAUHWND__@@XZ ; CWnd::GetSafeHwnd
  00036	39 03		 cmp	 DWORD PTR [ebx], eax
  00038	74 15		 je	 SHORT $LN14@RemoveCont

; 293  : 
; 294  : 	for (int i = 0; i < m_awndControls.GetSize(); i++)

  0003a	8b 45 fc	 mov	 eax, DWORD PTR _this$1$[ebp]
  0003d	46		 inc	 esi
  0003e	3b f7		 cmp	 esi, edi
  00040	7c de		 jl	 SHORT $LL4@RemoveCont

; 298  : 		if (pstControl->hControl == pControl->GetSafeHwnd())

  00042	33 c9		 xor	 ecx, ecx
  00044	5b		 pop	 ebx
$LN3@RemoveCont:

; 303  : 			break;
; 304  : 		}
; 305  : 	}
; 306  : 
; 307  : 	return (fReturnValue);

  00045	5f		 pop	 edi
  00046	8b c1		 mov	 eax, ecx
  00048	5e		 pop	 esi

; 308  : }

  00049	8b e5		 mov	 esp, ebp
  0004b	5d		 pop	 ebp
  0004c	c2 04 00	 ret	 4
$LN14@RemoveCont:

; 299  : 		{
; 300  : 			m_awndControls.RemoveAt(i);

  0004f	8b 4d f8	 mov	 ecx, DWORD PTR tv235[ebp]
  00052	6a 01		 push	 1
  00054	56		 push	 esi
  00055	e8 00 00 00 00	 call	 ?RemoveAt@CObArray@@QAEXHH@Z ; CObArray::RemoveAt

; 301  : 			delete pstControl;

  0005a	6a 2c		 push	 44			; 0000002cH
  0005c	53		 push	 ebx
  0005d	e8 00 00 00 00	 call	 ??3@YAXPAXI@Z		; operator delete
  00062	83 c4 08	 add	 esp, 8

; 302  : 			fReturnValue = TRUE;

  00065	b9 01 00 00 00	 mov	 ecx, 1

; 303  : 			break;
; 304  : 		}
; 305  : 	}
; 306  : 
; 307  : 	return (fReturnValue);

  0006a	8b c1		 mov	 eax, ecx
  0006c	5b		 pop	 ebx
  0006d	5f		 pop	 edi
  0006e	5e		 pop	 esi

; 308  : }

  0006f	8b e5		 mov	 esp, ebp
  00071	5d		 pop	 ebp
  00072	c2 04 00	 ret	 4
$LN9@RemoveCont:
; File C:\Program Files (x86)\Microsoft Visual Studio\2019\Community\VC\Tools\MSVC\14.29.30133\atlmfc\include\afxcoll.inl

; 247  : 			AfxThrowInvalidArgException();

  00075	e8 00 00 00 00	 call	 ?AfxThrowInvalidArgException@@YGXXZ ; AfxThrowInvalidArgException
$LN19@RemoveCont:
  0007a	cc		 int	 3
?RemoveControl@CControlPos@@QAEHPAVCWnd@@@Z ENDP	; CControlPos::RemoveControl
_TEXT	ENDS
; Function compile flags: /Ogtp
; File D:\git\src\IBK\IBK_DRFN\ProjSrc\SrcDrfn\DrCommon\PcTrMng\ControlPos.cpp
; File C:\Program Files (x86)\Microsoft Visual Studio\2019\Community\VC\Tools\MSVC\14.29.30133\atlmfc\include\atltypes.h
; File D:\git\src\IBK\IBK_DRFN\ProjSrc\SrcDrfn\DrCommon\PcTrMng\ControlPos.cpp
; File C:\Program Files (x86)\Microsoft Visual Studio\2019\Community\VC\Tools\MSVC\14.29.30133\atlmfc\include\afxwin2.inl
; File D:\git\src\IBK\IBK_DRFN\ProjSrc\SrcDrfn\DrCommon\PcTrMng\ControlPos.cpp
; File C:\Program Files (x86)\Microsoft Visual Studio\2019\Community\VC\Tools\MSVC\14.29.30133\atlmfc\include\afxcoll.inl
; File D:\git\src\IBK\IBK_DRFN\ProjSrc\SrcDrfn\DrCommon\PcTrMng\ControlPos.cpp
; File C:\Program Files (x86)\Microsoft Visual Studio\2019\Community\VC\Tools\MSVC\14.29.30133\atlmfc\include\afxcoll.inl
; File D:\git\src\IBK\IBK_DRFN\ProjSrc\SrcDrfn\DrCommon\PcTrMng\ControlPos.cpp
;	COMDAT ?AddControl@CControlPos@@QAEHABIABKV?$CStringT@DV?$StrTraitMFC_DLL@DV?$ChTraitsCRT@D@ATL@@@@@ATL@@@Z
_TEXT	SEGMENT
_pControl$1$ = -16					; size = 4
__$EHRec$ = -12						; size = 12
$T2 = 8							; size = 4
_unId$ = 8						; size = 4
_dwStyle$ = 12						; size = 4
_csVBName$ = 16						; size = 4
?AddControl@CControlPos@@QAEHABIABKV?$CStringT@DV?$StrTraitMFC_DLL@DV?$ChTraitsCRT@D@ATL@@@@@ATL@@@Z PROC ; CControlPos::AddControl, COMDAT
; _this$ = ecx

; 146  : {

  00000	55		 push	 ebp
  00001	8b ec		 mov	 ebp, esp
  00003	6a ff		 push	 -1
  00005	68 00 00 00 00	 push	 __ehhandler$?AddControl@CControlPos@@QAEHABIABKV?$CStringT@DV?$StrTraitMFC_DLL@DV?$ChTraitsCRT@D@ATL@@@@@ATL@@@Z
  0000a	64 a1 00 00 00
	00		 mov	 eax, DWORD PTR fs:0
  00010	50		 push	 eax
  00011	51		 push	 ecx
  00012	53		 push	 ebx
  00013	56		 push	 esi
  00014	57		 push	 edi
  00015	a1 00 00 00 00	 mov	 eax, DWORD PTR ___security_cookie
  0001a	33 c5		 xor	 eax, ebp
  0001c	50		 push	 eax
  0001d	8d 45 f4	 lea	 eax, DWORD PTR __$EHRec$[ebp]
  00020	64 a3 00 00 00
	00		 mov	 DWORD PTR fs:0, eax
  00026	8b d9		 mov	 ebx, ecx

; 147  : 	CWnd* pControl;
; 148  : 
; 149  : 	if (m_pParent)

  00028	8b 4b 04	 mov	 ecx, DWORD PTR [ebx+4]
  0002b	c7 45 fc 00 00
	00 00		 mov	 DWORD PTR __$EHRec$[ebp+8], 0
  00032	85 c9		 test	 ecx, ecx
  00034	0f 84 c6 00 00
	00		 je	 $LN2@AddControl

; 150  : 	{
; 151  : 		pControl = m_pParent->GetDlgItem(unId);

  0003a	8b 45 08	 mov	 eax, DWORD PTR _unId$[ebp]
  0003d	ff 30		 push	 DWORD PTR [eax]
  0003f	e8 00 00 00 00	 call	 ?GetDlgItem@CWnd@@QBEPAV1@H@Z ; CWnd::GetDlgItem
  00044	8b f0		 mov	 esi, eax

; 152  : 		return (AddControl(pControl, dwStyle, csVBName));

  00046	8d 4d 08	 lea	 ecx, DWORD PTR $T2[ebp]
  00049	8d 45 10	 lea	 eax, DWORD PTR _csVBName$[ebp]
  0004c	89 75 f0	 mov	 DWORD PTR _pControl$1$[ebp], esi
  0004f	50		 push	 eax
  00050	ff 15 00 00 00
	00		 call	 DWORD PTR __imp_??0?$CStringT@DV?$StrTraitMFC_DLL@DV?$ChTraitsCRT@D@ATL@@@@@ATL@@QAE@ABV01@@Z

; 161  : {

  00056	c6 45 fc 01	 mov	 BYTE PTR __$EHRec$[ebp+8], 1

; 162  : 	BOOL fReturnValue = TRUE;

  0005a	bf 01 00 00 00	 mov	 edi, 1

; 163  : 
; 164  : 	if (pControl && m_pParent)

  0005f	85 f6		 test	 esi, esi
  00061	0f 84 8c 00 00
	00		 je	 $LN9@AddControl
  00067	83 7b 04 00	 cmp	 DWORD PTR [ebx+4], 0
  0006b	0f 84 82 00 00
	00		 je	 $LN9@AddControl

; 167  : 		LPCONTROLDATA pstControl = new CONTROLDATA;

  00071	6a 2c		 push	 44			; 0000002cH
  00073	e8 00 00 00 00	 call	 ??2@YAPAXI@Z		; operator new
  00078	8b f0		 mov	 esi, eax
  0007a	83 c4 04	 add	 esp, 4
  0007d	85 f6		 test	 esi, esi
  0007f	74 1e		 je	 SHORT $LN12@AddControl
; File C:\Program Files (x86)\Microsoft Visual Studio\2019\Community\VC\Tools\MSVC\14.29.30133\atlmfc\include\atltypes.h

; 528  : 	left = 0;

  00081	c7 46 08 00 00
	00 00		 mov	 DWORD PTR [esi+8], 0

; 529  : 	top = 0;

  00088	c7 46 0c 00 00
	00 00		 mov	 DWORD PTR [esi+12], 0

; 530  : 	right = 0;

  0008f	c7 46 10 00 00
	00 00		 mov	 DWORD PTR [esi+16], 0

; 531  : 	bottom = 0;

  00096	c7 46 14 00 00
	00 00		 mov	 DWORD PTR [esi+20], 0
; File D:\git\src\IBK\IBK_DRFN\ProjSrc\SrcDrfn\DrCommon\PcTrMng\ControlPos.cpp

; 167  : 		LPCONTROLDATA pstControl = new CONTROLDATA;

  0009d	eb 02		 jmp	 SHORT $LN13@AddControl
$LN12@AddControl:
  0009f	33 f6		 xor	 esi, esi
$LN13@AddControl:

; 168  : 		pstControl->hControl = pControl->GetSafeHwnd();

  000a1	8b 4d f0	 mov	 ecx, DWORD PTR _pControl$1$[ebp]
  000a4	8b 41 20	 mov	 eax, DWORD PTR [ecx+32]
  000a7	89 06		 mov	 DWORD PTR [esi], eax

; 169  : 		pstControl->dwStyle = dwStyle;

  000a9	8b 45 0c	 mov	 eax, DWORD PTR _dwStyle$[ebp]
  000ac	8b 00		 mov	 eax, DWORD PTR [eax]
  000ae	89 46 04	 mov	 DWORD PTR [esi+4], eax

; 170  : 		pControl->GetWindowRect(pstControl->m_ChRect);

  000b1	8d 46 08	 lea	 eax, DWORD PTR [esi+8]
; File C:\Program Files (x86)\Microsoft Visual Studio\2019\Community\VC\Tools\MSVC\14.29.30133\atlmfc\include\afxwin2.inl

; 84   : 	{ ASSERT(::IsWindow(m_hWnd)); ::GetWindowRect(m_hWnd, lpRect); }

  000b4	50		 push	 eax
  000b5	ff 71 20	 push	 DWORD PTR [ecx+32]
  000b8	ff 15 00 00 00
	00		 call	 DWORD PTR __imp__GetWindowRect@8
; File D:\git\src\IBK\IBK_DRFN\ProjSrc\SrcDrfn\DrCommon\PcTrMng\ControlPos.cpp

; 173  : 		memcpy((LPSTR)pstControl->pCtrlName, (LPSTR)(LPCTSTR)csVBName, csVBName.GetLength());

  000be	8b 45 08	 mov	 eax, DWORD PTR $T2[ebp]
  000c1	ff 70 f4	 push	 DWORD PTR [eax-12]
  000c4	50		 push	 eax
  000c5	8d 46 18	 lea	 eax, DWORD PTR [esi+24]
  000c8	50		 push	 eax
  000c9	e8 00 00 00 00	 call	 _memcpy

; 174  : 		pstControl->pCtrlName[csVBName.GetLength()] = 0;

  000ce	8b 45 08	 mov	 eax, DWORD PTR $T2[ebp]

; 175  : 		
; 176  : 		
; 177  : 		m_awndControls.Add(((CObject*)pstControl));

  000d1	8d 4b 4c	 lea	 ecx, DWORD PTR [ebx+76]
  000d4	83 c4 0c	 add	 esp, 12			; 0000000cH
  000d7	8b 40 f4	 mov	 eax, DWORD PTR [eax-12]
; File C:\Program Files (x86)\Microsoft Visual Studio\2019\Community\VC\Tools\MSVC\14.29.30133\atlmfc\include\afxcoll.inl

; 266  : 		SetAtGrow(nIndex, newElement);

  000da	56		 push	 esi
; File D:\git\src\IBK\IBK_DRFN\ProjSrc\SrcDrfn\DrCommon\PcTrMng\ControlPos.cpp

; 174  : 		pstControl->pCtrlName[csVBName.GetLength()] = 0;

  000db	c6 44 30 18 00	 mov	 BYTE PTR [eax+esi+24], 0
; File C:\Program Files (x86)\Microsoft Visual Studio\2019\Community\VC\Tools\MSVC\14.29.30133\atlmfc\include\afxcoll.inl

; 266  : 		SetAtGrow(nIndex, newElement);

  000e0	ff 71 08	 push	 DWORD PTR [ecx+8]
  000e3	e8 00 00 00 00	 call	 ?SetAtGrow@CObArray@@QAEXHPAVCObject@@@Z ; CObArray::SetAtGrow
; File D:\git\src\IBK\IBK_DRFN\ProjSrc\SrcDrfn\DrCommon\PcTrMng\ControlPos.cpp

; 184  : 	return (fReturnValue);

  000e8	8d 4d 08	 lea	 ecx, DWORD PTR $T2[ebp]
  000eb	ff 15 00 00 00
	00		 call	 DWORD PTR __imp_??1?$CStringT@DV?$StrTraitMFC_DLL@DV?$ChTraitsCRT@D@ATL@@@@@ATL@@QAE@XZ
  000f1	eb 0f		 jmp	 SHORT $LN7@AddControl
$LN9@AddControl:
  000f3	8d 4d 08	 lea	 ecx, DWORD PTR $T2[ebp]
  000f6	33 ff		 xor	 edi, edi
  000f8	ff 15 00 00 00
	00		 call	 DWORD PTR __imp_??1?$CStringT@DV?$StrTraitMFC_DLL@DV?$ChTraitsCRT@D@ATL@@@@@ATL@@QAE@XZ
  000fe	eb 02		 jmp	 SHORT $LN7@AddControl
$LN2@AddControl:

; 153  : 	}
; 154  : 	else
; 155  : 	{
; 156  : 		return (FALSE);

  00100	33 ff		 xor	 edi, edi
$LN7@AddControl:
  00102	8d 4d 10	 lea	 ecx, DWORD PTR _csVBName$[ebp]
  00105	ff 15 00 00 00
	00		 call	 DWORD PTR __imp_??1?$CStringT@DV?$StrTraitMFC_DLL@DV?$ChTraitsCRT@D@ATL@@@@@ATL@@QAE@XZ
  0010b	8b c7		 mov	 eax, edi

; 157  : 	}
; 158  : }

  0010d	8b 4d f4	 mov	 ecx, DWORD PTR __$EHRec$[ebp]
  00110	64 89 0d 00 00
	00 00		 mov	 DWORD PTR fs:0, ecx
  00117	59		 pop	 ecx
  00118	5f		 pop	 edi
  00119	5e		 pop	 esi
  0011a	5b		 pop	 ebx
  0011b	8b e5		 mov	 esp, ebp
  0011d	5d		 pop	 ebp
  0011e	c2 0c 00	 ret	 12			; 0000000cH
_TEXT	ENDS
;	COMDAT text$x
text$x	SEGMENT
__unwindfunclet$?AddControl@CControlPos@@QAEHABIABKV?$CStringT@DV?$StrTraitMFC_DLL@DV?$ChTraitsCRT@D@ATL@@@@@ATL@@@Z$0:
  00000	8d 4d 10	 lea	 ecx, DWORD PTR _csVBName$[ebp]
  00003	ff 25 00 00 00
	00		 jmp	 DWORD PTR __imp_??1?$CStringT@DV?$StrTraitMFC_DLL@DV?$ChTraitsCRT@D@ATL@@@@@ATL@@QAE@XZ
__unwindfunclet$?AddControl@CControlPos@@QAEHABIABKV?$CStringT@DV?$StrTraitMFC_DLL@DV?$ChTraitsCRT@D@ATL@@@@@ATL@@@Z$2:
  00009	8d 4d 08	 lea	 ecx, DWORD PTR $T2[ebp]
  0000c	ff 25 00 00 00
	00		 jmp	 DWORD PTR __imp_??1?$CStringT@DV?$StrTraitMFC_DLL@DV?$ChTraitsCRT@D@ATL@@@@@ATL@@QAE@XZ
  00012	cc		 int	 3
  00013	cc		 int	 3
  00014	cc		 int	 3
  00015	cc		 int	 3
  00016	cc		 int	 3
__ehhandler$?AddControl@CControlPos@@QAEHABIABKV?$CStringT@DV?$StrTraitMFC_DLL@DV?$ChTraitsCRT@D@ATL@@@@@ATL@@@Z:
  00017	90		 npad	 1
  00018	90		 npad	 1
  00019	8b 54 24 08	 mov	 edx, DWORD PTR [esp+8]
  0001d	8d 42 0c	 lea	 eax, DWORD PTR [edx+12]
  00020	8b 4a ec	 mov	 ecx, DWORD PTR [edx-20]
  00023	33 c8		 xor	 ecx, eax
  00025	e8 00 00 00 00	 call	 @__security_check_cookie@4
  0002a	b8 00 00 00 00	 mov	 eax, OFFSET __ehfuncinfo$?AddControl@CControlPos@@QAEHABIABKV?$CStringT@DV?$StrTraitMFC_DLL@DV?$ChTraitsCRT@D@ATL@@@@@ATL@@@Z
  0002f	e9 00 00 00 00	 jmp	 ___CxxFrameHandler3
text$x	ENDS
?AddControl@CControlPos@@QAEHABIABKV?$CStringT@DV?$StrTraitMFC_DLL@DV?$ChTraitsCRT@D@ATL@@@@@ATL@@@Z ENDP ; CControlPos::AddControl
; Function compile flags: /Ogtp
; File D:\git\src\IBK\IBK_DRFN\ProjSrc\SrcDrfn\DrCommon\PcTrMng\ControlPos.cpp
; File C:\Program Files (x86)\Microsoft Visual Studio\2019\Community\VC\Tools\MSVC\14.29.30133\atlmfc\include\atltypes.h
; File D:\git\src\IBK\IBK_DRFN\ProjSrc\SrcDrfn\DrCommon\PcTrMng\ControlPos.cpp
; File C:\Program Files (x86)\Microsoft Visual Studio\2019\Community\VC\Tools\MSVC\14.29.30133\atlmfc\include\afxwin2.inl
; File D:\git\src\IBK\IBK_DRFN\ProjSrc\SrcDrfn\DrCommon\PcTrMng\ControlPos.cpp
; File C:\Program Files (x86)\Microsoft Visual Studio\2019\Community\VC\Tools\MSVC\14.29.30133\atlmfc\include\afxcoll.inl
; File D:\git\src\IBK\IBK_DRFN\ProjSrc\SrcDrfn\DrCommon\PcTrMng\ControlPos.cpp
; File C:\Program Files (x86)\Microsoft Visual Studio\2019\Community\VC\Tools\MSVC\14.29.30133\atlmfc\include\afxcoll.inl
; File D:\git\src\IBK\IBK_DRFN\ProjSrc\SrcDrfn\DrCommon\PcTrMng\ControlPos.cpp
;	COMDAT ?AddControl@CControlPos@@QAEHPAVCWnd@@ABKV?$CStringT@DV?$StrTraitMFC_DLL@DV?$ChTraitsCRT@D@ATL@@@@@ATL@@@Z
_TEXT	SEGMENT
_this$1$ = -16						; size = 4
__$EHRec$ = -12						; size = 12
_pControl$ = 8						; size = 4
_dwStyle$ = 12						; size = 4
_csVBName$ = 16						; size = 4
?AddControl@CControlPos@@QAEHPAVCWnd@@ABKV?$CStringT@DV?$StrTraitMFC_DLL@DV?$ChTraitsCRT@D@ATL@@@@@ATL@@@Z PROC ; CControlPos::AddControl, COMDAT
; _this$ = ecx

; 161  : {

  00000	55		 push	 ebp
  00001	8b ec		 mov	 ebp, esp
  00003	6a ff		 push	 -1
  00005	68 00 00 00 00	 push	 __ehhandler$?AddControl@CControlPos@@QAEHPAVCWnd@@ABKV?$CStringT@DV?$StrTraitMFC_DLL@DV?$ChTraitsCRT@D@ATL@@@@@ATL@@@Z
  0000a	64 a1 00 00 00
	00		 mov	 eax, DWORD PTR fs:0
  00010	50		 push	 eax
  00011	51		 push	 ecx
  00012	53		 push	 ebx
  00013	56		 push	 esi
  00014	57		 push	 edi
  00015	a1 00 00 00 00	 mov	 eax, DWORD PTR ___security_cookie
  0001a	33 c5		 xor	 eax, ebp
  0001c	50		 push	 eax
  0001d	8d 45 f4	 lea	 eax, DWORD PTR __$EHRec$[ebp]
  00020	64 a3 00 00 00
	00		 mov	 DWORD PTR fs:0, eax
  00026	8b c1		 mov	 eax, ecx
  00028	89 45 f0	 mov	 DWORD PTR _this$1$[ebp], eax

; 162  : 	BOOL fReturnValue = TRUE;
; 163  : 
; 164  : 	if (pControl && m_pParent)

  0002b	8b 5d 08	 mov	 ebx, DWORD PTR _pControl$[ebp]
  0002e	bf 01 00 00 00	 mov	 edi, 1
  00033	c7 45 fc 00 00
	00 00		 mov	 DWORD PTR __$EHRec$[ebp+8], 0
  0003a	85 db		 test	 ebx, ebx
  0003c	74 7f		 je	 SHORT $LN2@AddControl
  0003e	83 78 04 00	 cmp	 DWORD PTR [eax+4], 0
  00042	74 79		 je	 SHORT $LN2@AddControl

; 167  : 		LPCONTROLDATA pstControl = new CONTROLDATA;

  00044	6a 2c		 push	 44			; 0000002cH
  00046	e8 00 00 00 00	 call	 ??2@YAPAXI@Z		; operator new
  0004b	8b f0		 mov	 esi, eax
  0004d	83 c4 04	 add	 esp, 4
  00050	85 f6		 test	 esi, esi
  00052	74 1e		 je	 SHORT $LN5@AddControl
; File C:\Program Files (x86)\Microsoft Visual Studio\2019\Community\VC\Tools\MSVC\14.29.30133\atlmfc\include\atltypes.h

; 528  : 	left = 0;

  00054	c7 46 08 00 00
	00 00		 mov	 DWORD PTR [esi+8], 0

; 529  : 	top = 0;

  0005b	c7 46 0c 00 00
	00 00		 mov	 DWORD PTR [esi+12], 0

; 530  : 	right = 0;

  00062	c7 46 10 00 00
	00 00		 mov	 DWORD PTR [esi+16], 0

; 531  : 	bottom = 0;

  00069	c7 46 14 00 00
	00 00		 mov	 DWORD PTR [esi+20], 0
; File D:\git\src\IBK\IBK_DRFN\ProjSrc\SrcDrfn\DrCommon\PcTrMng\ControlPos.cpp

; 167  : 		LPCONTROLDATA pstControl = new CONTROLDATA;

  00070	eb 02		 jmp	 SHORT $LN6@AddControl
$LN5@AddControl:
  00072	33 f6		 xor	 esi, esi
$LN6@AddControl:

; 168  : 		pstControl->hControl = pControl->GetSafeHwnd();

  00074	8b 43 20	 mov	 eax, DWORD PTR [ebx+32]
  00077	89 06		 mov	 DWORD PTR [esi], eax

; 169  : 		pstControl->dwStyle = dwStyle;

  00079	8b 45 0c	 mov	 eax, DWORD PTR _dwStyle$[ebp]
  0007c	8b 00		 mov	 eax, DWORD PTR [eax]
  0007e	89 46 04	 mov	 DWORD PTR [esi+4], eax

; 170  : 		pControl->GetWindowRect(pstControl->m_ChRect);

  00081	8d 46 08	 lea	 eax, DWORD PTR [esi+8]
; File C:\Program Files (x86)\Microsoft Visual Studio\2019\Community\VC\Tools\MSVC\14.29.30133\atlmfc\include\afxwin2.inl

; 84   : 	{ ASSERT(::IsWindow(m_hWnd)); ::GetWindowRect(m_hWnd, lpRect); }

  00084	50		 push	 eax
  00085	ff 73 20	 push	 DWORD PTR [ebx+32]
  00088	ff 15 00 00 00
	00		 call	 DWORD PTR __imp__GetWindowRect@8
; File D:\git\src\IBK\IBK_DRFN\ProjSrc\SrcDrfn\DrCommon\PcTrMng\ControlPos.cpp

; 173  : 		memcpy((LPSTR)pstControl->pCtrlName, (LPSTR)(LPCTSTR)csVBName, csVBName.GetLength());

  0008e	8b 45 10	 mov	 eax, DWORD PTR _csVBName$[ebp]
  00091	ff 70 f4	 push	 DWORD PTR [eax-12]
  00094	50		 push	 eax
  00095	8d 46 18	 lea	 eax, DWORD PTR [esi+24]
  00098	50		 push	 eax
  00099	e8 00 00 00 00	 call	 _memcpy

; 174  : 		pstControl->pCtrlName[csVBName.GetLength()] = 0;

  0009e	8b 45 10	 mov	 eax, DWORD PTR _csVBName$[ebp]
  000a1	83 c4 0c	 add	 esp, 12			; 0000000cH

; 175  : 		
; 176  : 		
; 177  : 		m_awndControls.Add(((CObject*)pstControl));

  000a4	8b 4d f0	 mov	 ecx, DWORD PTR _this$1$[ebp]
  000a7	83 c1 4c	 add	 ecx, 76			; 0000004cH
  000aa	8b 40 f4	 mov	 eax, DWORD PTR [eax-12]
; File C:\Program Files (x86)\Microsoft Visual Studio\2019\Community\VC\Tools\MSVC\14.29.30133\atlmfc\include\afxcoll.inl

; 266  : 		SetAtGrow(nIndex, newElement);

  000ad	56		 push	 esi
; File D:\git\src\IBK\IBK_DRFN\ProjSrc\SrcDrfn\DrCommon\PcTrMng\ControlPos.cpp

; 174  : 		pstControl->pCtrlName[csVBName.GetLength()] = 0;

  000ae	c6 44 30 18 00	 mov	 BYTE PTR [eax+esi+24], 0
; File C:\Program Files (x86)\Microsoft Visual Studio\2019\Community\VC\Tools\MSVC\14.29.30133\atlmfc\include\afxcoll.inl

; 266  : 		SetAtGrow(nIndex, newElement);

  000b3	ff 71 08	 push	 DWORD PTR [ecx+8]
  000b6	e8 00 00 00 00	 call	 ?SetAtGrow@CObArray@@QAEXHPAVCObject@@@Z ; CObArray::SetAtGrow
; File D:\git\src\IBK\IBK_DRFN\ProjSrc\SrcDrfn\DrCommon\PcTrMng\ControlPos.cpp

; 178  : 	}

  000bb	eb 02		 jmp	 SHORT $LN3@AddControl
$LN2@AddControl:

; 179  : 	else
; 180  : 	{
; 181  : 		fReturnValue = FALSE;

  000bd	33 ff		 xor	 edi, edi
$LN3@AddControl:

; 182  : 	}
; 183  : 
; 184  : 	return (fReturnValue);

  000bf	8d 4d 10	 lea	 ecx, DWORD PTR _csVBName$[ebp]
  000c2	ff 15 00 00 00
	00		 call	 DWORD PTR __imp_??1?$CStringT@DV?$StrTraitMFC_DLL@DV?$ChTraitsCRT@D@ATL@@@@@ATL@@QAE@XZ
  000c8	8b c7		 mov	 eax, edi

; 185  : }

  000ca	8b 4d f4	 mov	 ecx, DWORD PTR __$EHRec$[ebp]
  000cd	64 89 0d 00 00
	00 00		 mov	 DWORD PTR fs:0, ecx
  000d4	59		 pop	 ecx
  000d5	5f		 pop	 edi
  000d6	5e		 pop	 esi
  000d7	5b		 pop	 ebx
  000d8	8b e5		 mov	 esp, ebp
  000da	5d		 pop	 ebp
  000db	c2 0c 00	 ret	 12			; 0000000cH
_TEXT	ENDS
;	COMDAT text$x
text$x	SEGMENT
__unwindfunclet$?AddControl@CControlPos@@QAEHPAVCWnd@@ABKV?$CStringT@DV?$StrTraitMFC_DLL@DV?$ChTraitsCRT@D@ATL@@@@@ATL@@@Z$0:
  00000	8d 4d 10	 lea	 ecx, DWORD PTR _csVBName$[ebp]
  00003	ff 25 00 00 00
	00		 jmp	 DWORD PTR __imp_??1?$CStringT@DV?$StrTraitMFC_DLL@DV?$ChTraitsCRT@D@ATL@@@@@ATL@@QAE@XZ
  00009	cc		 int	 3
  0000a	cc		 int	 3
  0000b	cc		 int	 3
  0000c	cc		 int	 3
  0000d	cc		 int	 3
__ehhandler$?AddControl@CControlPos@@QAEHPAVCWnd@@ABKV?$CStringT@DV?$StrTraitMFC_DLL@DV?$ChTraitsCRT@D@ATL@@@@@ATL@@@Z:
  0000e	90		 npad	 1
  0000f	90		 npad	 1
  00010	8b 54 24 08	 mov	 edx, DWORD PTR [esp+8]
  00014	8d 42 0c	 lea	 eax, DWORD PTR [edx+12]
  00017	8b 4a ec	 mov	 ecx, DWORD PTR [edx-20]
  0001a	33 c8		 xor	 ecx, eax
  0001c	e8 00 00 00 00	 call	 @__security_check_cookie@4
  00021	b8 00 00 00 00	 mov	 eax, OFFSET __ehfuncinfo$?AddControl@CControlPos@@QAEHPAVCWnd@@ABKV?$CStringT@DV?$StrTraitMFC_DLL@DV?$ChTraitsCRT@D@ATL@@@@@ATL@@@Z
  00026	e9 00 00 00 00	 jmp	 ___CxxFrameHandler3
text$x	ENDS
?AddControl@CControlPos@@QAEHPAVCWnd@@ABKV?$CStringT@DV?$StrTraitMFC_DLL@DV?$ChTraitsCRT@D@ATL@@@@@ATL@@@Z ENDP ; CControlPos::AddControl
; Function compile flags: /Ogtp
; File D:\git\src\IBK\IBK_DRFN\ProjSrc\SrcDrfn\DrCommon\PcTrMng\ControlPos.cpp
; File C:\Program Files (x86)\Microsoft Visual Studio\2019\Community\VC\Tools\MSVC\14.29.30133\atlmfc\include\atltypes.h
; File D:\git\src\IBK\IBK_DRFN\ProjSrc\SrcDrfn\DrCommon\PcTrMng\ControlPos.cpp
; File C:\Program Files (x86)\Microsoft Visual Studio\2019\Community\VC\Tools\MSVC\14.29.30133\atlmfc\include\afxwin2.inl
; File D:\git\src\IBK\IBK_DRFN\ProjSrc\SrcDrfn\DrCommon\PcTrMng\ControlPos.cpp
; File C:\Program Files (x86)\Microsoft Visual Studio\2019\Community\VC\Tools\MSVC\14.29.30133\atlmfc\include\afxcoll.inl
; File D:\git\src\IBK\IBK_DRFN\ProjSrc\SrcDrfn\DrCommon\PcTrMng\ControlPos.cpp
;	COMDAT ?AddControl@CControlPos@@QAEHABIABK@Z
_TEXT	SEGMENT
_pControl$1$ = 8					; size = 4
_unId$ = 8						; size = 4
_dwStyle$ = 12						; size = 4
?AddControl@CControlPos@@QAEHABIABK@Z PROC		; CControlPos::AddControl, COMDAT
; _this$ = ecx

; 240  : {

  00000	55		 push	 ebp
  00001	8b ec		 mov	 ebp, esp
  00003	57		 push	 edi
  00004	8b f9		 mov	 edi, ecx

; 241  : 	CWnd* pControl;
; 242  : 
; 243  : 	if (m_pParent)

  00006	8b 4f 04	 mov	 ecx, DWORD PTR [edi+4]
  00009	85 c9		 test	 ecx, ecx
  0000b	0f 84 8a 00 00
	00		 je	 $LN2@AddControl

; 244  : 	{
; 245  : 		pControl = m_pParent->GetDlgItem(unId);

  00011	8b 45 08	 mov	 eax, DWORD PTR _unId$[ebp]
  00014	53		 push	 ebx
  00015	ff 30		 push	 DWORD PTR [eax]
  00017	e8 00 00 00 00	 call	 ?GetDlgItem@CWnd@@QBEPAV1@H@Z ; CWnd::GetDlgItem
  0001c	89 45 08	 mov	 DWORD PTR _pControl$1$[ebp], eax

; 204  : 	BOOL fReturnValue = TRUE;

  0001f	bb 01 00 00 00	 mov	 ebx, 1

; 205  : 
; 206  : 	if (pControl && m_pParent)

  00024	85 c0		 test	 eax, eax
  00026	74 69		 je	 SHORT $LN6@AddControl
  00028	83 7f 04 00	 cmp	 DWORD PTR [edi+4], 0
  0002c	74 63		 je	 SHORT $LN6@AddControl

; 209  : 		LPCONTROLDATA pstControl = new CONTROLDATA;

  0002e	56		 push	 esi
  0002f	6a 2c		 push	 44			; 0000002cH
  00031	e8 00 00 00 00	 call	 ??2@YAPAXI@Z		; operator new
  00036	8b f0		 mov	 esi, eax
  00038	83 c4 04	 add	 esp, 4
  0003b	85 f6		 test	 esi, esi
  0003d	74 1e		 je	 SHORT $LN9@AddControl
; File C:\Program Files (x86)\Microsoft Visual Studio\2019\Community\VC\Tools\MSVC\14.29.30133\atlmfc\include\atltypes.h

; 528  : 	left = 0;

  0003f	c7 46 08 00 00
	00 00		 mov	 DWORD PTR [esi+8], 0

; 529  : 	top = 0;

  00046	c7 46 0c 00 00
	00 00		 mov	 DWORD PTR [esi+12], 0

; 530  : 	right = 0;

  0004d	c7 46 10 00 00
	00 00		 mov	 DWORD PTR [esi+16], 0

; 531  : 	bottom = 0;

  00054	c7 46 14 00 00
	00 00		 mov	 DWORD PTR [esi+20], 0
; File D:\git\src\IBK\IBK_DRFN\ProjSrc\SrcDrfn\DrCommon\PcTrMng\ControlPos.cpp

; 209  : 		LPCONTROLDATA pstControl = new CONTROLDATA;

  0005b	eb 02		 jmp	 SHORT $LN10@AddControl
$LN9@AddControl:
  0005d	33 f6		 xor	 esi, esi
$LN10@AddControl:

; 210  : 		pstControl->hControl = pControl->GetSafeHwnd();

  0005f	8b 4d 08	 mov	 ecx, DWORD PTR _pControl$1$[ebp]
  00062	8b 41 20	 mov	 eax, DWORD PTR [ecx+32]
  00065	89 06		 mov	 DWORD PTR [esi], eax

; 211  : 		pstControl->dwStyle = dwStyle;

  00067	8b 45 0c	 mov	 eax, DWORD PTR _dwStyle$[ebp]
  0006a	8b 00		 mov	 eax, DWORD PTR [eax]
  0006c	89 46 04	 mov	 DWORD PTR [esi+4], eax

; 212  : 		pControl->GetWindowRect(pstControl->m_ChRect);

  0006f	8d 46 08	 lea	 eax, DWORD PTR [esi+8]
; File C:\Program Files (x86)\Microsoft Visual Studio\2019\Community\VC\Tools\MSVC\14.29.30133\atlmfc\include\afxwin2.inl

; 84   : 	{ ASSERT(::IsWindow(m_hWnd)); ::GetWindowRect(m_hWnd, lpRect); }

  00072	50		 push	 eax
  00073	ff 71 20	 push	 DWORD PTR [ecx+32]
  00076	ff 15 00 00 00
	00		 call	 DWORD PTR __imp__GetWindowRect@8
; File D:\git\src\IBK\IBK_DRFN\ProjSrc\SrcDrfn\DrCommon\PcTrMng\ControlPos.cpp

; 214  : 		m_awndControls.Add(((CObject*)pstControl));

  0007c	8d 4f 4c	 lea	 ecx, DWORD PTR [edi+76]
; File C:\Program Files (x86)\Microsoft Visual Studio\2019\Community\VC\Tools\MSVC\14.29.30133\atlmfc\include\afxcoll.inl

; 266  : 		SetAtGrow(nIndex, newElement);

  0007f	56		 push	 esi
  00080	ff 71 08	 push	 DWORD PTR [ecx+8]
  00083	e8 00 00 00 00	 call	 ?SetAtGrow@CObArray@@QAEXHPAVCObject@@@Z ; CObArray::SetAtGrow
  00088	5e		 pop	 esi
; File D:\git\src\IBK\IBK_DRFN\ProjSrc\SrcDrfn\DrCommon\PcTrMng\ControlPos.cpp

; 246  : 		return (AddControl(pControl, dwStyle));

  00089	8b c3		 mov	 eax, ebx
  0008b	5b		 pop	 ebx
  0008c	5f		 pop	 edi

; 251  : 	}
; 252  : }

  0008d	5d		 pop	 ebp
  0008e	c2 08 00	 ret	 8
$LN6@AddControl:

; 218  : 		fReturnValue = FALSE;

  00091	33 db		 xor	 ebx, ebx

; 246  : 		return (AddControl(pControl, dwStyle));

  00093	8b c3		 mov	 eax, ebx
  00095	5b		 pop	 ebx
  00096	5f		 pop	 edi

; 251  : 	}
; 252  : }

  00097	5d		 pop	 ebp
  00098	c2 08 00	 ret	 8
$LN2@AddControl:

; 247  : 	}
; 248  : 	else
; 249  : 	{
; 250  : 		return (FALSE);

  0009b	33 c0		 xor	 eax, eax
  0009d	5f		 pop	 edi

; 251  : 	}
; 252  : }

  0009e	5d		 pop	 ebp
  0009f	c2 08 00	 ret	 8
?AddControl@CControlPos@@QAEHABIABK@Z ENDP		; CControlPos::AddControl
_TEXT	ENDS
; Function compile flags: /Ogtp
; File D:\git\src\IBK\IBK_DRFN\ProjSrc\SrcDrfn\DrCommon\PcTrMng\ControlPos.cpp
; File C:\Program Files (x86)\Microsoft Visual Studio\2019\Community\VC\Tools\MSVC\14.29.30133\atlmfc\include\atltypes.h
; File D:\git\src\IBK\IBK_DRFN\ProjSrc\SrcDrfn\DrCommon\PcTrMng\ControlPos.cpp
; File C:\Program Files (x86)\Microsoft Visual Studio\2019\Community\VC\Tools\MSVC\14.29.30133\atlmfc\include\afxwin2.inl
; File D:\git\src\IBK\IBK_DRFN\ProjSrc\SrcDrfn\DrCommon\PcTrMng\ControlPos.cpp
; File C:\Program Files (x86)\Microsoft Visual Studio\2019\Community\VC\Tools\MSVC\14.29.30133\atlmfc\include\afxcoll.inl
; File D:\git\src\IBK\IBK_DRFN\ProjSrc\SrcDrfn\DrCommon\PcTrMng\ControlPos.cpp
;	COMDAT ?AddControl@CControlPos@@QAEHPAVCWnd@@ABK@Z
_TEXT	SEGMENT
_pControl$ = 8						; size = 4
_dwStyle$ = 12						; size = 4
?AddControl@CControlPos@@QAEHPAVCWnd@@ABK@Z PROC	; CControlPos::AddControl, COMDAT
; _this$ = ecx

; 203  : {

  00000	55		 push	 ebp
  00001	8b ec		 mov	 ebp, esp
  00003	53		 push	 ebx
  00004	57		 push	 edi

; 204  : 	BOOL fReturnValue = TRUE;
; 205  : 
; 206  : 	if (pControl && m_pParent)

  00005	8b 7d 08	 mov	 edi, DWORD PTR _pControl$[ebp]
  00008	8b d9		 mov	 ebx, ecx
  0000a	85 ff		 test	 edi, edi
  0000c	74 69		 je	 SHORT $LN2@AddControl
  0000e	83 7b 04 00	 cmp	 DWORD PTR [ebx+4], 0
  00012	74 63		 je	 SHORT $LN2@AddControl

; 209  : 		LPCONTROLDATA pstControl = new CONTROLDATA;

  00014	56		 push	 esi
  00015	6a 2c		 push	 44			; 0000002cH
  00017	e8 00 00 00 00	 call	 ??2@YAPAXI@Z		; operator new
  0001c	8b f0		 mov	 esi, eax
  0001e	83 c4 04	 add	 esp, 4
  00021	85 f6		 test	 esi, esi
  00023	74 1e		 je	 SHORT $LN5@AddControl
; File C:\Program Files (x86)\Microsoft Visual Studio\2019\Community\VC\Tools\MSVC\14.29.30133\atlmfc\include\atltypes.h

; 528  : 	left = 0;

  00025	c7 46 08 00 00
	00 00		 mov	 DWORD PTR [esi+8], 0

; 529  : 	top = 0;

  0002c	c7 46 0c 00 00
	00 00		 mov	 DWORD PTR [esi+12], 0

; 530  : 	right = 0;

  00033	c7 46 10 00 00
	00 00		 mov	 DWORD PTR [esi+16], 0

; 531  : 	bottom = 0;

  0003a	c7 46 14 00 00
	00 00		 mov	 DWORD PTR [esi+20], 0
; File D:\git\src\IBK\IBK_DRFN\ProjSrc\SrcDrfn\DrCommon\PcTrMng\ControlPos.cpp

; 209  : 		LPCONTROLDATA pstControl = new CONTROLDATA;

  00041	eb 02		 jmp	 SHORT $LN6@AddControl
$LN5@AddControl:
  00043	33 f6		 xor	 esi, esi
$LN6@AddControl:

; 210  : 		pstControl->hControl = pControl->GetSafeHwnd();

  00045	8b 47 20	 mov	 eax, DWORD PTR [edi+32]
  00048	89 06		 mov	 DWORD PTR [esi], eax

; 211  : 		pstControl->dwStyle = dwStyle;

  0004a	8b 45 0c	 mov	 eax, DWORD PTR _dwStyle$[ebp]
  0004d	8b 00		 mov	 eax, DWORD PTR [eax]
  0004f	89 46 04	 mov	 DWORD PTR [esi+4], eax

; 212  : 		pControl->GetWindowRect(pstControl->m_ChRect);

  00052	8d 46 08	 lea	 eax, DWORD PTR [esi+8]
; File C:\Program Files (x86)\Microsoft Visual Studio\2019\Community\VC\Tools\MSVC\14.29.30133\atlmfc\include\afxwin2.inl

; 84   : 	{ ASSERT(::IsWindow(m_hWnd)); ::GetWindowRect(m_hWnd, lpRect); }

  00055	50		 push	 eax
  00056	ff 77 20	 push	 DWORD PTR [edi+32]
  00059	ff 15 00 00 00
	00		 call	 DWORD PTR __imp__GetWindowRect@8
; File D:\git\src\IBK\IBK_DRFN\ProjSrc\SrcDrfn\DrCommon\PcTrMng\ControlPos.cpp

; 214  : 		m_awndControls.Add(((CObject*)pstControl));

  0005f	8d 4b 4c	 lea	 ecx, DWORD PTR [ebx+76]
; File C:\Program Files (x86)\Microsoft Visual Studio\2019\Community\VC\Tools\MSVC\14.29.30133\atlmfc\include\afxcoll.inl

; 266  : 		SetAtGrow(nIndex, newElement);

  00062	56		 push	 esi
  00063	ff 71 08	 push	 DWORD PTR [ecx+8]
  00066	e8 00 00 00 00	 call	 ?SetAtGrow@CObArray@@QAEXHPAVCObject@@@Z ; CObArray::SetAtGrow
; File D:\git\src\IBK\IBK_DRFN\ProjSrc\SrcDrfn\DrCommon\PcTrMng\ControlPos.cpp

; 221  : 	return (fReturnValue);

  0006b	5e		 pop	 esi
  0006c	5f		 pop	 edi
  0006d	b8 01 00 00 00	 mov	 eax, 1

; 222  : }

  00072	5b		 pop	 ebx
  00073	5d		 pop	 ebp
  00074	c2 08 00	 ret	 8
$LN2@AddControl:
  00077	5f		 pop	 edi

; 221  : 	return (fReturnValue);

  00078	33 c0		 xor	 eax, eax

; 222  : }

  0007a	5b		 pop	 ebx
  0007b	5d		 pop	 ebp
  0007c	c2 08 00	 ret	 8
?AddControl@CControlPos@@QAEHPAVCWnd@@ABK@Z ENDP	; CControlPos::AddControl
_TEXT	ENDS
; Function compile flags: /Ogtp
; File D:\git\src\IBK\IBK_DRFN\ProjSrc\SrcDrfn\DrCommon\PcTrMng\ControlPos.cpp
; File C:\Program Files (x86)\Microsoft Visual Studio\2019\Community\VC\Tools\MSVC\14.29.30133\atlmfc\include\atltypes.h
; File D:\git\src\IBK\IBK_DRFN\ProjSrc\SrcDrfn\DrCommon\PcTrMng\ControlPos.cpp
; File C:\Program Files (x86)\Microsoft Visual Studio\2019\Community\VC\Tools\MSVC\14.29.30133\atlmfc\include\atltypes.h
; File D:\git\src\IBK\IBK_DRFN\ProjSrc\SrcDrfn\DrCommon\PcTrMng\ControlPos.cpp
; File C:\Program Files (x86)\Microsoft Visual Studio\2019\Community\VC\Tools\MSVC\14.29.30133\atlmfc\include\atltypes.h
; File D:\git\src\IBK\IBK_DRFN\ProjSrc\SrcDrfn\DrCommon\PcTrMng\ControlPos.cpp
; File C:\Program Files (x86)\Microsoft Visual Studio\2019\Community\VC\Tools\MSVC\14.29.30133\atlmfc\include\atltypes.h
; File D:\git\src\IBK\IBK_DRFN\ProjSrc\SrcDrfn\DrCommon\PcTrMng\ControlPos.cpp
; File C:\Program Files (x86)\Microsoft Visual Studio\2019\Community\VC\Tools\MSVC\14.29.30133\atlmfc\include\atltypes.h
; File D:\git\src\IBK\IBK_DRFN\ProjSrc\SrcDrfn\DrCommon\PcTrMng\ControlPos.cpp
; File C:\Program Files (x86)\Microsoft Visual Studio\2019\Community\VC\Tools\MSVC\14.29.30133\atlmfc\include\atltypes.h
; File D:\git\src\IBK\IBK_DRFN\ProjSrc\SrcDrfn\DrCommon\PcTrMng\ControlPos.cpp
; File C:\Program Files (x86)\Microsoft Visual Studio\2019\Community\VC\Tools\MSVC\14.29.30133\atlmfc\include\afxwin2.inl
; File D:\git\src\IBK\IBK_DRFN\ProjSrc\SrcDrfn\DrCommon\PcTrMng\ControlPos.cpp
; File C:\Program Files (x86)\Microsoft Visual Studio\2019\Community\VC\Tools\MSVC\14.29.30133\atlmfc\include\afxwin2.inl
; File D:\git\src\IBK\IBK_DRFN\ProjSrc\SrcDrfn\DrCommon\PcTrMng\ControlPos.cpp
;	COMDAT ?SetParent@CControlPos@@QAEXPAVCWnd@@PAVCSize@@@Z
_TEXT	SEGMENT
_rcParentOriginalSize$ = -20				; size = 16
__$ArrayPad$ = -4					; size = 4
_pParent$ = 8						; size = 4
_pSize$ = 12						; size = 4
?SetParent@CControlPos@@QAEXPAVCWnd@@PAVCSize@@@Z PROC	; CControlPos::SetParent, COMDAT
; _this$ = ecx

; 75   : {

  00000	55		 push	 ebp
  00001	8b ec		 mov	 ebp, esp
  00003	83 ec 14	 sub	 esp, 20			; 00000014H
  00006	a1 00 00 00 00	 mov	 eax, DWORD PTR ___security_cookie
  0000b	33 c5		 xor	 eax, ebp
  0000d	89 45 fc	 mov	 DWORD PTR __$ArrayPad$[ebp], eax

; 79   : 	if(pParent == m_pParent)

  00010	8b 45 08	 mov	 eax, DWORD PTR _pParent$[ebp]
  00013	0f 57 c0	 xorps	 xmm0, xmm0
  00016	56		 push	 esi
  00017	57		 push	 edi
  00018	8b f9		 mov	 edi, ecx
  0001a	8b 4d 0c	 mov	 ecx, DWORD PTR _pSize$[ebp]
; File C:\Program Files (x86)\Microsoft Visual Studio\2019\Community\VC\Tools\MSVC\14.29.30133\atlmfc\include\atltypes.h

; 528  : 	left = 0;

  0001d	0f 11 45 ec	 movups	 XMMWORD PTR _rcParentOriginalSize$[ebp], xmm0
; File D:\git\src\IBK\IBK_DRFN\ProjSrc\SrcDrfn\DrCommon\PcTrMng\ControlPos.cpp

; 79   : 	if(pParent == m_pParent)

  00021	3b 47 04	 cmp	 eax, DWORD PTR [edi+4]
  00024	75 37		 jne	 SHORT $LN2@SetParent

; 80   : 	{
; 81   : 		m_PaWRect.right = m_PaWRect.right + pSize->cx - m_PaRect.right;

  00026	8b 01		 mov	 eax, DWORD PTR [ecx]

; 82   : 		m_PaWRect.bottom = m_PaWRect.bottom + pSize->cy - m_PaRect.bottom;
; 83   : 		m_PaRect.SetRect(0, 0, pSize->cx, pSize->cy);

  00028	8d 77 1c	 lea	 esi, DWORD PTR [edi+28]
  0002b	2b 47 24	 sub	 eax, DWORD PTR [edi+36]
  0002e	01 47 34	 add	 DWORD PTR [edi+52], eax
  00031	8b 41 04	 mov	 eax, DWORD PTR [ecx+4]
  00034	2b 47 28	 sub	 eax, DWORD PTR [edi+40]
  00037	01 47 38	 add	 DWORD PTR [edi+56], eax
; File C:\Program Files (x86)\Microsoft Visual Studio\2019\Community\VC\Tools\MSVC\14.29.30133\atlmfc\include\atltypes.h

; 657  : 	::SetRect(this, x1, y1, x2, y2);

  0003a	ff 71 04	 push	 DWORD PTR [ecx+4]
  0003d	ff 31		 push	 DWORD PTR [ecx]
  0003f	6a 00		 push	 0
  00041	6a 00		 push	 0
  00043	56		 push	 esi
  00044	ff 15 00 00 00
	00		 call	 DWORD PTR __imp__SetRect@20

; 576  : 	return right - left;

  0004a	8b 4e 08	 mov	 ecx, DWORD PTR [esi+8]
  0004d	2b 0e		 sub	 ecx, DWORD PTR [esi]
; File D:\git\src\IBK\IBK_DRFN\ProjSrc\SrcDrfn\DrCommon\PcTrMng\ControlPos.cpp

; 85   : 		m_nOriginalParentWidth = m_PaRect.Width();

  0004f	89 4f 10	 mov	 DWORD PTR [edi+16], ecx
; File C:\Program Files (x86)\Microsoft Visual Studio\2019\Community\VC\Tools\MSVC\14.29.30133\atlmfc\include\atltypes.h

; 581  : 	return bottom - top;

  00052	8b 47 28	 mov	 eax, DWORD PTR [edi+40]
  00055	2b 47 20	 sub	 eax, DWORD PTR [edi+32]
; File D:\git\src\IBK\IBK_DRFN\ProjSrc\SrcDrfn\DrCommon\PcTrMng\ControlPos.cpp

; 86   : 		m_nOriginalParentHeight = m_PaRect.Height();

  00058	89 47 14	 mov	 DWORD PTR [edi+20], eax

; 87   : 		m_nOldParentWidth = m_nOriginalParentWidth ;
; 88   : 		m_nOldParentHeight = m_nOriginalParentHeight;
; 89   : 	}

  0005b	eb 7c		 jmp	 SHORT $LN5@SetParent
$LN2@SetParent:

; 90   : 	else
; 91   : 	{
; 92   : 	
; 93   : 		m_pParent = pParent;

  0005d	89 47 04	 mov	 DWORD PTR [edi+4], eax
  00060	8d 77 2c	 lea	 esi, DWORD PTR [edi+44]
  00063	53		 push	 ebx
  00064	8d 5f 1c	 lea	 ebx, DWORD PTR [edi+28]

; 94   : 		if(pSize)

  00067	85 c9		 test	 ecx, ecx
  00069	74 33		 je	 SHORT $LN4@SetParent
; File C:\Program Files (x86)\Microsoft Visual Studio\2019\Community\VC\Tools\MSVC\14.29.30133\atlmfc\include\atltypes.h

; 657  : 	::SetRect(this, x1, y1, x2, y2);

  0006b	ff 71 04	 push	 DWORD PTR [ecx+4]
  0006e	ff 31		 push	 DWORD PTR [ecx]
  00070	6a 00		 push	 0
  00072	6a 00		 push	 0
  00074	53		 push	 ebx
  00075	ff 15 00 00 00
	00		 call	 DWORD PTR __imp__SetRect@20
; File D:\git\src\IBK\IBK_DRFN\ProjSrc\SrcDrfn\DrCommon\PcTrMng\ControlPos.cpp

; 97   : 			m_PaWRect = m_PaRect;

  0007b	0f 10 47 1c	 movups	 xmm0, XMMWORD PTR [edi+28]

; 98   : 			m_pParent->ClientToScreen(&m_PaWRect);

  0007f	8b 4f 04	 mov	 ecx, DWORD PTR [edi+4]
  00082	56		 push	 esi
  00083	0f 11 06	 movups	 XMMWORD PTR [esi], xmm0
  00086	e8 00 00 00 00	 call	 ?ClientToScreen@CWnd@@QBEXPAUtagRECT@@@Z ; CWnd::ClientToScreen
; File C:\Program Files (x86)\Microsoft Visual Studio\2019\Community\VC\Tools\MSVC\14.29.30133\atlmfc\include\atltypes.h

; 576  : 	return right - left;

  0008b	8b 4b 08	 mov	 ecx, DWORD PTR [ebx+8]
  0008e	2b 0b		 sub	 ecx, DWORD PTR [ebx]
; File D:\git\src\IBK\IBK_DRFN\ProjSrc\SrcDrfn\DrCommon\PcTrMng\ControlPos.cpp

; 99   : 			m_nOriginalParentWidth = m_PaRect.Width();

  00090	89 4f 10	 mov	 DWORD PTR [edi+16], ecx
; File C:\Program Files (x86)\Microsoft Visual Studio\2019\Community\VC\Tools\MSVC\14.29.30133\atlmfc\include\atltypes.h

; 581  : 	return bottom - top;

  00093	8b 47 28	 mov	 eax, DWORD PTR [edi+40]
  00096	2b 47 20	 sub	 eax, DWORD PTR [edi+32]
; File D:\git\src\IBK\IBK_DRFN\ProjSrc\SrcDrfn\DrCommon\PcTrMng\ControlPos.cpp

; 100  : 			m_nOriginalParentHeight = m_PaRect.Height();

  00099	89 47 14	 mov	 DWORD PTR [edi+20], eax

; 101  : 			m_nOldParentWidth = m_nOriginalParentWidth ;
; 102  : 			m_nOldParentHeight = m_nOriginalParentHeight;
; 103  : 		}

  0009c	eb 3a		 jmp	 SHORT $LN27@SetParent
$LN4@SetParent:
; File C:\Program Files (x86)\Microsoft Visual Studio\2019\Community\VC\Tools\MSVC\14.29.30133\atlmfc\include\afxwin2.inl

; 86   : 	{ ASSERT(::IsWindow(m_hWnd)); ::GetClientRect(m_hWnd, lpRect); }

  0009e	8b 35 00 00 00
	00		 mov	 esi, DWORD PTR __imp__GetClientRect@8
  000a4	8d 4d ec	 lea	 ecx, DWORD PTR _rcParentOriginalSize$[ebp]
  000a7	51		 push	 ecx
  000a8	ff 70 20	 push	 DWORD PTR [eax+32]
  000ab	ff d6		 call	 esi
; File D:\git\src\IBK\IBK_DRFN\ProjSrc\SrcDrfn\DrCommon\PcTrMng\ControlPos.cpp

; 107  : 			m_nOriginalParentWidth = rcParentOriginalSize.right;

  000ad	8b 45 f4	 mov	 eax, DWORD PTR _rcParentOriginalSize$[ebp+8]
  000b0	89 47 10	 mov	 DWORD PTR [edi+16], eax

; 108  : 			m_nOriginalParentHeight = rcParentOriginalSize.bottom;

  000b3	8b 45 f8	 mov	 eax, DWORD PTR _rcParentOriginalSize$[ebp+12]
  000b6	89 47 14	 mov	 DWORD PTR [edi+20], eax
; File C:\Program Files (x86)\Microsoft Visual Studio\2019\Community\VC\Tools\MSVC\14.29.30133\atlmfc\include\afxwin2.inl

; 84   : 	{ ASSERT(::IsWindow(m_hWnd)); ::GetWindowRect(m_hWnd, lpRect); }

  000b9	8d 47 2c	 lea	 eax, DWORD PTR [edi+44]
  000bc	50		 push	 eax
  000bd	8b 47 04	 mov	 eax, DWORD PTR [edi+4]
  000c0	ff 70 20	 push	 DWORD PTR [eax+32]
  000c3	ff 15 00 00 00
	00		 call	 DWORD PTR __imp__GetWindowRect@8

; 86   : 	{ ASSERT(::IsWindow(m_hWnd)); ::GetClientRect(m_hWnd, lpRect); }

  000c9	8b 47 04	 mov	 eax, DWORD PTR [edi+4]
  000cc	53		 push	 ebx
  000cd	ff 70 20	 push	 DWORD PTR [eax+32]
  000d0	ff d6		 call	 esi
; File D:\git\src\IBK\IBK_DRFN\ProjSrc\SrcDrfn\DrCommon\PcTrMng\ControlPos.cpp

; 112  : 			m_nOldParentHeight = m_nOriginalParentHeight;

  000d2	8b 47 14	 mov	 eax, DWORD PTR [edi+20]
  000d5	8b 4f 10	 mov	 ecx, DWORD PTR [edi+16]
$LN27@SetParent:
  000d8	5b		 pop	 ebx
$LN5@SetParent:

; 113  : 		}
; 114  : 	}	
; 115  : 	
; 116  : 	//CRect rcParentOriginalSize;
; 117  : 	//
; 118  : 	//m_pParent = pParent;
; 119  : 	//if(pSize)
; 120  : 	//{
; 121  : 	//	m_PaRect.SetRect(0, 0, pSize->cx, pSize->cy);
; 122  : 	//	m_PaWRect = m_PaRect;
; 123  : 	//	m_pParent->ClientToScreen(&m_PaWRect);
; 124  : 	//	m_nOriginalParentWidth = m_PaRect.Width();
; 125  : 	//	m_nOriginalParentHeight = m_PaRect.Height();
; 126  : 	//	m_nOldParentWidth = m_nOriginalParentWidth ;
; 127  : 	//	m_nOldParentHeight = m_nOriginalParentHeight;
; 128  : 	//}
; 129  : 	//else 
; 130  : 	//{
; 131  : 	//	m_pParent->GetClientRect(rcParentOriginalSize);
; 132  : 	//	m_nOriginalParentWidth = rcParentOriginalSize.right;
; 133  : 	//	m_nOriginalParentHeight = rcParentOriginalSize.bottom;
; 134  : 	//	m_pParent->GetWindowRect(&m_PaWRect);
; 135  : 	//	m_pParent->GetClientRect(&m_PaRect);
; 136  : 	//	m_nOldParentWidth = m_nOriginalParentWidth ;
; 137  : 	//	m_nOldParentHeight = m_nOriginalParentHeight;
; 138  : 	//}
; 139  : 	
; 140  : 	//////////////////////////////////////////////////////////////////////////
; 141  : 	
; 142  : 
; 143  : }

  000d9	89 4f 08	 mov	 DWORD PTR [edi+8], ecx
  000dc	8b 4d fc	 mov	 ecx, DWORD PTR __$ArrayPad$[ebp]
  000df	89 47 0c	 mov	 DWORD PTR [edi+12], eax
  000e2	33 cd		 xor	 ecx, ebp
  000e4	5f		 pop	 edi
  000e5	5e		 pop	 esi
  000e6	e8 00 00 00 00	 call	 @__security_check_cookie@4
  000eb	8b e5		 mov	 esp, ebp
  000ed	5d		 pop	 ebp
  000ee	c2 08 00	 ret	 8
?SetParent@CControlPos@@QAEXPAVCWnd@@PAVCSize@@@Z ENDP	; CControlPos::SetParent
_TEXT	ENDS
; Function compile flags: /Ogtp
; File D:\git\src\IBK\IBK_DRFN\ProjSrc\SrcDrfn\DrCommon\PcTrMng\ControlPos.cpp
;	COMDAT ??1CControlPos@@UAE@XZ
_TEXT	SEGMENT
__$EHRec$ = -12						; size = 12
??1CControlPos@@UAE@XZ PROC				; CControlPos::~CControlPos, COMDAT
; _this$ = ecx

; 56   : {

  00000	55		 push	 ebp
  00001	8b ec		 mov	 ebp, esp
  00003	6a ff		 push	 -1
  00005	68 00 00 00 00	 push	 __ehhandler$??1CControlPos@@UAE@XZ
  0000a	64 a1 00 00 00
	00		 mov	 eax, DWORD PTR fs:0
  00010	50		 push	 eax
  00011	56		 push	 esi
  00012	a1 00 00 00 00	 mov	 eax, DWORD PTR ___security_cookie
  00017	33 c5		 xor	 eax, ebp
  00019	50		 push	 eax
  0001a	8d 45 f4	 lea	 eax, DWORD PTR __$EHRec$[ebp]
  0001d	64 a3 00 00 00
	00		 mov	 DWORD PTR fs:0, eax
  00023	8b f1		 mov	 esi, ecx
  00025	c7 06 00 00 00
	00		 mov	 DWORD PTR [esi], OFFSET ??_7CControlPos@@6B@

; 57   : 	ResetControls();

  0002b	e8 00 00 00 00	 call	 ?ResetControls@CControlPos@@QAEXXZ ; CControlPos::ResetControls

; 58   : }

  00030	8d 4e 4c	 lea	 ecx, DWORD PTR [esi+76]
  00033	e8 00 00 00 00	 call	 ??1CObArray@@UAE@XZ	; CObArray::~CObArray
  00038	8b 4d f4	 mov	 ecx, DWORD PTR __$EHRec$[ebp]
  0003b	64 89 0d 00 00
	00 00		 mov	 DWORD PTR fs:0, ecx
  00042	59		 pop	 ecx
  00043	5e		 pop	 esi
  00044	8b e5		 mov	 esp, ebp
  00046	5d		 pop	 ebp
  00047	c3		 ret	 0
  00048	cc		 int	 3
  00049	cc		 int	 3
  0004a	cc		 int	 3
  0004b	cc		 int	 3
  0004c	cc		 int	 3
_TEXT	ENDS
;	COMDAT text$x
text$x	SEGMENT
__ehhandler$??1CControlPos@@UAE@XZ:
  00000	90		 npad	 1
  00001	90		 npad	 1
  00002	8b 54 24 08	 mov	 edx, DWORD PTR [esp+8]
  00006	8d 42 0c	 lea	 eax, DWORD PTR [edx+12]
  00009	8b 4a f8	 mov	 ecx, DWORD PTR [edx-8]
  0000c	33 c8		 xor	 ecx, eax
  0000e	e8 00 00 00 00	 call	 @__security_check_cookie@4
  00013	b8 00 00 00 00	 mov	 eax, OFFSET __ehfuncinfo$??1CControlPos@@UAE@XZ
  00018	e9 00 00 00 00	 jmp	 ___CxxFrameHandler3
text$x	ENDS
??1CControlPos@@UAE@XZ ENDP				; CControlPos::~CControlPos
; Function compile flags: /Ogtp
; File D:\git\src\IBK\IBK_DRFN\ProjSrc\SrcDrfn\DrCommon\PcTrMng\ControlPos.cpp
; File C:\Program Files (x86)\Microsoft Visual Studio\2019\Community\VC\Tools\MSVC\14.29.30133\atlmfc\include\atltypes.h
; File D:\git\src\IBK\IBK_DRFN\ProjSrc\SrcDrfn\DrCommon\PcTrMng\ControlPos.cpp
;	COMDAT ??0CControlPos@@QAE@PAVCWnd@@@Z
_TEXT	SEGMENT
_this$GSCopy$ = -20					; size = 4
_this$ = -16						; size = 4
__$EHRec$ = -12						; size = 12
_pParent$ = 8						; size = 4
??0CControlPos@@QAE@PAVCWnd@@@Z PROC			; CControlPos::CControlPos, COMDAT
; _this$ = ecx

; 30   : {

  00000	55		 push	 ebp
  00001	8b ec		 mov	 ebp, esp
  00003	6a ff		 push	 -1
  00005	68 00 00 00 00	 push	 __ehhandler$??0CControlPos@@QAE@PAVCWnd@@@Z
  0000a	64 a1 00 00 00
	00		 mov	 eax, DWORD PTR fs:0
  00010	50		 push	 eax
  00011	83 ec 08	 sub	 esp, 8
  00014	56		 push	 esi
  00015	a1 00 00 00 00	 mov	 eax, DWORD PTR ___security_cookie
  0001a	33 c5		 xor	 eax, ebp
  0001c	50		 push	 eax
  0001d	8d 45 f4	 lea	 eax, DWORD PTR __$EHRec$[ebp]
  00020	64 a3 00 00 00
	00		 mov	 DWORD PTR fs:0, eax
  00026	8b f1		 mov	 esi, ecx
  00028	89 75 f0	 mov	 DWORD PTR _this$[ebp], esi
  0002b	89 75 ec	 mov	 DWORD PTR _this$GSCopy$[ebp], esi
  0002e	8d 4e 4c	 lea	 ecx, DWORD PTR [esi+76]
  00031	c7 06 00 00 00
	00		 mov	 DWORD PTR [esi], OFFSET ??_7CControlPos@@6B@
; File C:\Program Files (x86)\Microsoft Visual Studio\2019\Community\VC\Tools\MSVC\14.29.30133\atlmfc\include\atltypes.h

; 528  : 	left = 0;

  00037	c7 46 1c 00 00
	00 00		 mov	 DWORD PTR [esi+28], 0

; 529  : 	top = 0;

  0003e	c7 46 20 00 00
	00 00		 mov	 DWORD PTR [esi+32], 0

; 530  : 	right = 0;

  00045	c7 46 24 00 00
	00 00		 mov	 DWORD PTR [esi+36], 0

; 531  : 	bottom = 0;

  0004c	c7 46 28 00 00
	00 00		 mov	 DWORD PTR [esi+40], 0

; 528  : 	left = 0;

  00053	c7 46 2c 00 00
	00 00		 mov	 DWORD PTR [esi+44], 0

; 529  : 	top = 0;

  0005a	c7 46 30 00 00
	00 00		 mov	 DWORD PTR [esi+48], 0

; 530  : 	right = 0;

  00061	c7 46 34 00 00
	00 00		 mov	 DWORD PTR [esi+52], 0

; 531  : 	bottom = 0;

  00068	c7 46 38 00 00
	00 00		 mov	 DWORD PTR [esi+56], 0

; 528  : 	left = 0;

  0006f	c7 46 3c 00 00
	00 00		 mov	 DWORD PTR [esi+60], 0

; 529  : 	top = 0;

  00076	c7 46 40 00 00
	00 00		 mov	 DWORD PTR [esi+64], 0

; 530  : 	right = 0;

  0007d	c7 46 44 00 00
	00 00		 mov	 DWORD PTR [esi+68], 0

; 531  : 	bottom = 0;

  00084	c7 46 48 00 00
	00 00		 mov	 DWORD PTR [esi+72], 0
; File D:\git\src\IBK\IBK_DRFN\ProjSrc\SrcDrfn\DrCommon\PcTrMng\ControlPos.cpp

; 30   : {

  0008b	e8 00 00 00 00	 call	 ??0CObArray@@QAE@XZ	; CObArray::CObArray

; 31   : 	m_pParent = pParent;

  00090	8b 4d 08	 mov	 ecx, DWORD PTR _pParent$[ebp]
  00093	89 4e 04	 mov	 DWORD PTR [esi+4], ecx

; 32   : 	UpdateParentSize();
; 33   : 
; 34   : 	m_nOldParentHeight = 0;
; 35   : 	m_nOldParentWidth = 0;
; 36   : 	
; 37   : 	SetNegativeMoves(FALSE);
; 38   : 
; 39   : 	ResetControls();

  00096	8b ce		 mov	 ecx, esi
  00098	c7 45 fc 00 00
	00 00		 mov	 DWORD PTR __$EHRec$[ebp+8], 0
  0009f	c7 46 0c 00 00
	00 00		 mov	 DWORD PTR [esi+12], 0
  000a6	c7 46 08 00 00
	00 00		 mov	 DWORD PTR [esi+8], 0
  000ad	c7 46 18 00 00
	00 00		 mov	 DWORD PTR [esi+24], 0
  000b4	e8 00 00 00 00	 call	 ?ResetControls@CControlPos@@QAEXXZ ; CControlPos::ResetControls

; 40   : }

  000b9	8b c6		 mov	 eax, esi
  000bb	8b 4d f4	 mov	 ecx, DWORD PTR __$EHRec$[ebp]
  000be	64 89 0d 00 00
	00 00		 mov	 DWORD PTR fs:0, ecx
  000c5	59		 pop	 ecx
  000c6	5e		 pop	 esi
  000c7	8b e5		 mov	 esp, ebp
  000c9	5d		 pop	 ebp
  000ca	c2 04 00	 ret	 4
_TEXT	ENDS
;	COMDAT text$x
text$x	SEGMENT
__unwindfunclet$??0CControlPos@@QAE@PAVCWnd@@@Z$0:
  00000	8b 4d ec	 mov	 ecx, DWORD PTR _this$GSCopy$[ebp]
  00003	83 c1 4c	 add	 ecx, 76			; 0000004cH
  00006	e9 00 00 00 00	 jmp	 ??1CObArray@@UAE@XZ	; CObArray::~CObArray
  0000b	cc		 int	 3
  0000c	cc		 int	 3
  0000d	cc		 int	 3
  0000e	cc		 int	 3
  0000f	cc		 int	 3
__ehhandler$??0CControlPos@@QAE@PAVCWnd@@@Z:
  00010	90		 npad	 1
  00011	90		 npad	 1
  00012	8b 54 24 08	 mov	 edx, DWORD PTR [esp+8]
  00016	8d 42 0c	 lea	 eax, DWORD PTR [edx+12]
  00019	8b 4a f0	 mov	 ecx, DWORD PTR [edx-16]
  0001c	33 c8		 xor	 ecx, eax
  0001e	e8 00 00 00 00	 call	 @__security_check_cookie@4
  00023	b8 00 00 00 00	 mov	 eax, OFFSET __ehfuncinfo$??0CControlPos@@QAE@PAVCWnd@@@Z
  00028	e9 00 00 00 00	 jmp	 ___CxxFrameHandler3
text$x	ENDS
??0CControlPos@@QAE@PAVCWnd@@@Z ENDP			; CControlPos::CControlPos
; Function compile flags: /Ogtp
; File C:\Program Files (x86)\Microsoft Visual Studio\2019\Community\VC\Tools\MSVC\14.29.30133\atlmfc\include\afxwin2.inl
;	COMDAT ?GetSafeHwnd@CWnd@@QBEPAUHWND__@@XZ
_TEXT	SEGMENT
?GetSafeHwnd@CWnd@@QBEPAUHWND__@@XZ PROC		; CWnd::GetSafeHwnd, COMDAT
; _this$ = ecx

; 25   : 	{ return this == NULL ? NULL : m_hWnd; }

  00000	85 c9		 test	 ecx, ecx
  00002	75 03		 jne	 SHORT $LN3@GetSafeHwn
  00004	33 c0		 xor	 eax, eax
  00006	c3		 ret	 0
$LN3@GetSafeHwn:
  00007	8b 41 20	 mov	 eax, DWORD PTR [ecx+32]
  0000a	c3		 ret	 0
?GetSafeHwnd@CWnd@@QBEPAUHWND__@@XZ ENDP		; CWnd::GetSafeHwnd
_TEXT	ENDS
; Function compile flags: /Ogtp
; File D:\git\src\IBK\IBK_DRFN\ProjSrc\SrcDrfn\DrCommon\PcTrMng\ControlPos.cpp
;	COMDAT ?__empty_global_delete@@YAXPAXI@Z
_TEXT	SEGMENT
___formal$ = 8						; size = 4
___formal$ = 12						; size = 4
?__empty_global_delete@@YAXPAXI@Z PROC			; __empty_global_delete, COMDAT

  00000	c2 00 00	 ret	 0
?__empty_global_delete@@YAXPAXI@Z ENDP			; __empty_global_delete
_TEXT	ENDS
; Function compile flags: /Ogtp
; File D:\git\src\IBK\IBK_DRFN\ProjSrc\SrcDrfn\DrCommon\PcTrMng\ControlPos.cpp
;	COMDAT ?__empty_global_delete@@YAXPAX@Z
_TEXT	SEGMENT
___formal$ = 8						; size = 4
?__empty_global_delete@@YAXPAX@Z PROC			; __empty_global_delete, COMDAT

  00000	c2 00 00	 ret	 0
?__empty_global_delete@@YAXPAX@Z ENDP			; __empty_global_delete
_TEXT	ENDS
END
