; Listing generated by Microsoft (R) Optimizing Compiler Version 19.29.30145.0 

	TITLE	D:\git\src\IBK\IBK_DRFN\#DRfn-CS\_Obj\PcTrMng\DispView.obj
	.686P
	.XMM
	include listing.inc
	.model	flat

INCLUDELIB MSVCRT
INCLUDELIB OLDNAMES

PUBLIC	?m_osInterfaceName@CDispView@@2PAPA_WA		; CDispView::m_osInterfaceName
PUBLIC	??_C@_1BG@IHDPANNO@?$AAS?$AAh?$AAo?$AAw?$AAD?$AAi?$AAa?$AAl?$AAo?$AAg@ ; `string'
PUBLIC	??_C@_1BC@HBFMMFEC@?$AAM?$AAs?$AAg?$AAB?$AAo?$AAx?$AAI?$AAD@ ; `string'
;	COMDAT ??_C@_1BC@HBFMMFEC@?$AAM?$AAs?$AAg?$AAB?$AAo?$AAx?$AAI?$AAD@
CONST	SEGMENT
??_C@_1BC@HBFMMFEC@?$AAM?$AAs?$AAg?$AAB?$AAo?$AAx?$AAI?$AAD@ DB 'M', 00H, 's'
	DB	00H, 'g', 00H, 'B', 00H, 'o', 00H, 'x', 00H, 'I', 00H, 'D', 00H
	DB	00H, 00H					; `string'
CONST	ENDS
;	COMDAT ??_C@_1BG@IHDPANNO@?$AAS?$AAh?$AAo?$AAw?$AAD?$AAi?$AAa?$AAl?$AAo?$AAg@
CONST	SEGMENT
??_C@_1BG@IHDPANNO@?$AAS?$AAh?$AAo?$AAw?$AAD?$AAi?$AAa?$AAl?$AAo?$AAg@ DB 'S'
	DB	00H, 'h', 00H, 'o', 00H, 'w', 00H, 'D', 00H, 'i', 00H, 'a', 00H
	DB	'l', 00H, 'o', 00H, 'g', 00H, 00H, 00H	; `string'
CONST	ENDS
_DATA	SEGMENT
?m_osInterfaceName@CDispView@@2PAPA_WA DD FLAT:??_C@_1BG@IHDPANNO@?$AAS?$AAh?$AAo?$AAw?$AAD?$AAi?$AAa?$AAl?$AAo?$AAg@ ; CDispView::m_osInterfaceName
	DD	FLAT:??_C@_1BC@HBFMMFEC@?$AAM?$AAs?$AAg?$AAB?$AAo?$AAx?$AAI?$AAD@
_DATA	ENDS
PUBLIC	?__empty_global_delete@@YAXPAX@Z		; __empty_global_delete
PUBLIC	?__empty_global_delete@@YAXPAXI@Z		; __empty_global_delete
PUBLIC	??0CDispView@@QAE@XZ				; CDispView::CDispView
PUBLIC	?InitInterfaceName@CDispView@@QAEXPAUIDispatch@@@Z ; CDispView::InitInterfaceName
PUBLIC	?ShowDialog@CDispView@@QAEFPBDF@Z		; CDispView::ShowDialog
PUBLIC	?MsgBoxID@CDispView@@QAEFFPBD0F@Z		; CDispView::MsgBoxID
EXTRN	??_U@YAPAXI@Z:PROC				; operator new[]
EXTRN	??0COleDispatchDriver@@QAE@XZ:PROC		; COleDispatchDriver::COleDispatchDriver
EXTRN	?ReleaseDispatch@COleDispatchDriver@@QAEXXZ:PROC ; COleDispatchDriver::ReleaseDispatch
EXTRN	?InvokeHelper@COleDispatchDriver@@QAAXJGGPAXPBEZZ:PROC ; COleDispatchDriver::InvokeHelper
EXTRN	@__security_check_cookie@4:PROC
EXTRN	___CxxFrameHandler3:PROC
EXTRN	_GUID_NULL:BYTE
EXTRN	___security_cookie:DWORD
;	COMDAT ?parms@?1??MsgBoxID@CDispView@@QAEFFPBD0F@Z@4PAEA
_DATA	SEGMENT
?parms@?1??MsgBoxID@CDispView@@QAEFFPBD0F@Z@4PAEA DB 02H, 0eH, 0eH, 02H, 00H ; `CDispView::MsgBoxID'::`2'::parms
_DATA	ENDS
;	COMDAT ?parms@?1??ShowDialog@CDispView@@QAEFPBDF@Z@4PAEA
_DATA	SEGMENT
?parms@?1??ShowDialog@CDispView@@QAEFPBDF@Z@4PAEA DB 03H, 0eH, 02H, 00H ; `CDispView::ShowDialog'::`2'::parms
_DATA	ENDS
;	COMDAT xdata$x
xdata$x	SEGMENT
__ehfuncinfo$??1COleDispatchDriver@@QAE@XZ DD 019930522H
	DD	00H
	DD	00H
	DD	2 DUP(00H)
	DD	2 DUP(00H)
	DD	00H
	DD	05H
xdata$x	ENDS
; Function compile flags: /Ogtp
; File D:\git\src\IBK\IBK_DRFN\ProjSrc\SrcDrfn\inc\DispView.cpp
;	COMDAT ?MsgBoxID@CDispView@@QAEFFPBD0F@Z
_TEXT	SEGMENT
_nID$ = 8						; size = 2
_szMessage$ = 12					; size = 4
_szCaption$ = 16					; size = 4
_result$ = 20						; size = 2
_nFlags$ = 20						; size = 2
?MsgBoxID@CDispView@@QAEFFPBD0F@Z PROC			; CDispView::MsgBoxID, COMDAT
; _this$ = ecx

; 43   : {

  00000	55		 push	 ebp
  00001	8b ec		 mov	 ebp, esp

; 44   : 	short result;
; 45   : 	static BYTE parms[] =
; 46   : 		VTS_I2 VTS_BSTR VTS_BSTR VTS_I2;
; 47   : 	InvokeHelper(m_pdID[IIx_MsgBoxID], DISPATCH_METHOD, VT_I2, (void*)&result, parms,

  00003	0f bf 45 14	 movsx	 eax, WORD PTR _nFlags$[ebp]
  00007	50		 push	 eax
  00008	ff 75 10	 push	 DWORD PTR _szCaption$[ebp]
  0000b	0f bf 45 08	 movsx	 eax, WORD PTR _nID$[ebp]
  0000f	ff 75 0c	 push	 DWORD PTR _szMessage$[ebp]
  00012	50		 push	 eax
  00013	68 00 00 00 00	 push	 OFFSET ?parms@?1??MsgBoxID@CDispView@@QAEFFPBD0F@Z@4PAEA
  00018	8d 45 14	 lea	 eax, DWORD PTR _result$[ebp]
  0001b	50		 push	 eax
  0001c	8b 41 0c	 mov	 eax, DWORD PTR [ecx+12]
  0001f	6a 02		 push	 2
  00021	6a 01		 push	 1
  00023	ff 70 04	 push	 DWORD PTR [eax+4]
  00026	51		 push	 ecx
  00027	e8 00 00 00 00	 call	 ?InvokeHelper@COleDispatchDriver@@QAAXJGGPAXPBEZZ ; COleDispatchDriver::InvokeHelper

; 48   : 		nID ,szMessage ,szCaption ,nFlags);
; 49   : 	return result;

  0002c	66 8b 45 14	 mov	 ax, WORD PTR _result$[ebp]
  00030	83 c4 28	 add	 esp, 40			; 00000028H

; 50   : }

  00033	5d		 pop	 ebp
  00034	c2 10 00	 ret	 16			; 00000010H
?MsgBoxID@CDispView@@QAEFFPBD0F@Z ENDP			; CDispView::MsgBoxID
_TEXT	ENDS
; Function compile flags: /Ogtp
; File D:\git\src\IBK\IBK_DRFN\ProjSrc\SrcDrfn\inc\DispView.cpp
;	COMDAT ?ShowDialog@CDispView@@QAEFPBDF@Z
_TEXT	SEGMENT
_szKey$ = 8						; size = 4
_result$ = 12						; size = 2
_nIndex$ = 12						; size = 2
?ShowDialog@CDispView@@QAEFPBDF@Z PROC			; CDispView::ShowDialog, COMDAT
; _this$ = ecx

; 33   : {

  00000	55		 push	 ebp
  00001	8b ec		 mov	 ebp, esp

; 34   : 	short result;
; 35   : 	static BYTE parms[] =
; 36   : 		VTS_I4 VTS_BSTR VTS_I2;
; 37   : 	InvokeHelper(m_pdID[IIx_ShowDialog], DISPATCH_METHOD, VT_I2, (void*)&result, parms,

  00003	0f bf 45 0c	 movsx	 eax, WORD PTR _nIndex$[ebp]
  00007	50		 push	 eax
  00008	ff 75 08	 push	 DWORD PTR _szKey$[ebp]
  0000b	8d 45 0c	 lea	 eax, DWORD PTR _result$[ebp]
  0000e	68 00 00 00 00	 push	 OFFSET ?parms@?1??ShowDialog@CDispView@@QAEFPBDF@Z@4PAEA
  00013	50		 push	 eax
  00014	8b 41 0c	 mov	 eax, DWORD PTR [ecx+12]
  00017	6a 02		 push	 2
  00019	6a 01		 push	 1
  0001b	ff 30		 push	 DWORD PTR [eax]
  0001d	51		 push	 ecx
  0001e	e8 00 00 00 00	 call	 ?InvokeHelper@COleDispatchDriver@@QAAXJGGPAXPBEZZ ; COleDispatchDriver::InvokeHelper

; 38   : 		szKey, nIndex);
; 39   : 	return result;

  00023	66 8b 45 0c	 mov	 ax, WORD PTR _result$[ebp]
  00027	83 c4 20	 add	 esp, 32			; 00000020H

; 40   : }

  0002a	5d		 pop	 ebp
  0002b	c2 08 00	 ret	 8
?ShowDialog@CDispView@@QAEFPBDF@Z ENDP			; CDispView::ShowDialog
_TEXT	ENDS
; Function compile flags: /Ogtp
; File D:\git\src\IBK\IBK_DRFN\ProjSrc\SrcDrfn\inc\DispView.cpp
;	COMDAT ?InitInterfaceName@CDispView@@QAEXPAUIDispatch@@@Z
_TEXT	SEGMENT
_pDisp$ = 8						; size = 4
?InitInterfaceName@CDispView@@QAEXPAUIDispatch@@@Z PROC	; CDispView::InitInterfaceName, COMDAT
; _this$ = ecx

; 21   : {

  00000	55		 push	 ebp
  00001	8b ec		 mov	 ebp, esp
  00003	53		 push	 ebx
  00004	56		 push	 esi
  00005	57		 push	 edi

; 22   : 	int i, nCount = sizeof( m_osInterfaceName) / sizeof( OLECHAR *);
; 23   : 	m_pdID = new DISPID[ nCount];

  00006	6a 08		 push	 8
  00008	8b d9		 mov	 ebx, ecx
  0000a	e8 00 00 00 00	 call	 ??_U@YAPAXI@Z		; operator new[]
  0000f	8b 7d 08	 mov	 edi, DWORD PTR _pDisp$[ebp]
  00012	83 c4 04	 add	 esp, 4
  00015	89 43 0c	 mov	 DWORD PTR [ebx+12], eax
  00018	33 f6		 xor	 esi, esi
  0001a	66 0f 1f 44 00
	00		 npad	 6
$LL4@InitInterf:

; 24   : 	for( i = 0; i < nCount; i++)
; 25   : 		pDisp->GetIDsOfNames( IID_NULL, &m_osInterfaceName[ i], 1, LOCALE_USER_DEFAULT, m_pdID + i);

  00020	8b 43 0c	 mov	 eax, DWORD PTR [ebx+12]
  00023	8b 0f		 mov	 ecx, DWORD PTR [edi]
  00025	03 c6		 add	 eax, esi
  00027	50		 push	 eax
  00028	68 00 04 00 00	 push	 1024			; 00000400H
  0002d	6a 01		 push	 1
  0002f	8d 86 00 00 00
	00		 lea	 eax, DWORD PTR ?m_osInterfaceName@CDispView@@2PAPA_WA[esi]
  00035	50		 push	 eax
  00036	68 00 00 00 00	 push	 OFFSET _GUID_NULL
  0003b	57		 push	 edi
  0003c	ff 51 14	 call	 DWORD PTR [ecx+20]
  0003f	83 c6 04	 add	 esi, 4
  00042	83 fe 08	 cmp	 esi, 8
  00045	7c d9		 jl	 SHORT $LL4@InitInterf

; 26   : }

  00047	5f		 pop	 edi
  00048	5e		 pop	 esi
  00049	5b		 pop	 ebx
  0004a	5d		 pop	 ebp
  0004b	c2 04 00	 ret	 4
?InitInterfaceName@CDispView@@QAEXPAUIDispatch@@@Z ENDP	; CDispView::InitInterfaceName
_TEXT	ENDS
; Function compile flags: /Ogtp
; File D:\git\src\IBK\IBK_DRFN\ProjSrc\SrcDrfn\inc\DispView.cpp
;	COMDAT ??0CDispView@@QAE@XZ
_TEXT	SEGMENT
_this$ = -4						; size = 4
??0CDispView@@QAE@XZ PROC				; CDispView::CDispView, COMDAT
; _this$ = ecx

; 16   : {

  00000	55		 push	 ebp
  00001	8b ec		 mov	 ebp, esp
  00003	51		 push	 ecx
  00004	56		 push	 esi
  00005	8b f1		 mov	 esi, ecx
  00007	89 75 fc	 mov	 DWORD PTR _this$[ebp], esi
  0000a	e8 00 00 00 00	 call	 ??0COleDispatchDriver@@QAE@XZ ; COleDispatchDriver::COleDispatchDriver

; 17   : 	m_pdispatch = NULL;

  0000f	c7 46 08 00 00
	00 00		 mov	 DWORD PTR [esi+8], 0

; 18   : }

  00016	8b c6		 mov	 eax, esi
  00018	5e		 pop	 esi
  00019	8b e5		 mov	 esp, ebp
  0001b	5d		 pop	 ebp
  0001c	c3		 ret	 0
??0CDispView@@QAE@XZ ENDP				; CDispView::CDispView
_TEXT	ENDS
; Function compile flags: /Ogtp
; File D:\git\src\IBK\IBK_DRFN\ProjSrc\SrcDrfn\inc\DispView.cpp
;	COMDAT ?__empty_global_delete@@YAXPAXI@Z
_TEXT	SEGMENT
___formal$ = 8						; size = 4
___formal$ = 12						; size = 4
?__empty_global_delete@@YAXPAXI@Z PROC			; __empty_global_delete, COMDAT

  00000	c2 00 00	 ret	 0
?__empty_global_delete@@YAXPAXI@Z ENDP			; __empty_global_delete
_TEXT	ENDS
; Function compile flags: /Ogtp
; File D:\git\src\IBK\IBK_DRFN\ProjSrc\SrcDrfn\inc\DispView.cpp
;	COMDAT ?__empty_global_delete@@YAXPAX@Z
_TEXT	SEGMENT
___formal$ = 8						; size = 4
?__empty_global_delete@@YAXPAX@Z PROC			; __empty_global_delete, COMDAT

  00000	c2 00 00	 ret	 0
?__empty_global_delete@@YAXPAX@Z ENDP			; __empty_global_delete
_TEXT	ENDS
END
