; Listing generated by Microsoft (R) Optimizing Compiler Version 19.29.30148.0 

	TITLE	D:\git\src\IBK\IBK_DRFN\#DRfn-CS\_Obj\PcTrMng\DispMain.obj
	.686P
	.XMM
	include listing.inc
	.model	flat

INCLUDELIB MSVCRT
INCLUDELIB OLDNAMES

PUBLIC	?m_osInterfaceName@CDispMain@@2PAPA_WA		; CDispMain::m_osInterfaceName
PUBLIC	??_C@_1BG@DGIFPOCN@?$AAG?$AAe?$AAt?$AAM?$AAa?$AAp?$AAI?$AAn?$AAf?$AAo@ ; `string'
PUBLIC	??_C@_1BI@JPNOCPBC@?$AAG?$AAe?$AAt?$AAU?$AAs?$AAe?$AAr?$AAI?$AAn?$AAf?$AAo@ ; `string'
PUBLIC	??_C@_1O@IEHJLNPD@?$AAM?$AAs?$AAg?$AAB?$AAo?$AAx@ ; `string'
PUBLIC	??_C@_1CE@CCKAJBGG@?$AAC?$AAh?$AAa?$AAn?$AAg?$AAe?$AAT?$AAa?$AAb?$AAP?$AAr?$AAo?$AAp?$AAe?$AAr@ ; `string'
PUBLIC	??_C@_1BM@NCOKIOFN@?$AAS?$AAe?$AAt?$AAG?$AAS?$AAh?$AAa?$AAr?$AAe?$AAD?$AAa?$AAt?$AAa@ ; `string'
PUBLIC	??_C@_1BM@MPGCKLPJ@?$AAG?$AAe?$AAt?$AAG?$AAS?$AAh?$AAa?$AAr?$AAe?$AAD?$AAa?$AAt?$AAa@ ; `string'
PUBLIC	??_C@_1CC@MKFNFKJO@?$AAS?$AAe?$AAt?$AAF?$AAr?$AAa?$AAm?$AAe?$AAV?$AAa?$AAr?$AAi?$AAa?$AAb?$AAl@ ; `string'
PUBLIC	??_C@_1CC@HNOCAHOF@?$AAG?$AAe?$AAt?$AAF?$AAr?$AAa?$AAm?$AAe?$AAV?$AAa?$AAr?$AAi?$AAa?$AAb?$AAl@ ; `string'
PUBLIC	??_C@_1CC@GDGABKIG@?$AAR?$AAe?$AAm?$AAo?$AAv?$AAe?$AAG?$AAl?$AAo?$AAb?$AAa?$AAl?$AAD?$AAa?$AAt@ ; `string'
PUBLIC	??_C@_1BE@IDBKKNFI@?$AAC?$AAl?$AAo?$AAs?$AAe?$AAM?$AAa?$AAi?$AAn@ ; `string'
PUBLIC	??_C@_1BA@EGEDPFCL@?$AAR?$AAe?$AAs?$AAt?$AAa?$AAr?$AAt@ ; `string'
PUBLIC	??_C@_1BI@HDOCPFCP@?$AAG?$AAe?$AAt?$AAA?$AAc?$AAc?$AAt?$AAL?$AAi?$AAs?$AAt@ ; `string'
PUBLIC	??_C@_1CA@KEGHBPBJ@?$AAS?$AAe?$AAt?$AAO?$AAp?$AAe?$AAn?$AAM?$AAa?$AAp?$AAS?$AAt?$AAy?$AAl?$AAe@ ; `string'
PUBLIC	??_C@_1BI@EIMJPKID@?$AAG?$AAe?$AAt?$AAG?$AAw?$AAa?$AAn?$AAL?$AAi?$AAs?$AAt@ ; `string'
PUBLIC	??_C@_1BI@IJNLKKFA@?$AAG?$AAe?$AAt?$AAG?$AAw?$AAa?$AAn?$AAC?$AAo?$AAd?$AAe@ ; `string'
PUBLIC	??_C@_1CA@BODDOHAE@?$AAC?$AAl?$AAe?$AAa?$AAr?$AAM?$AAe?$AAs?$AAs?$AAa?$AAg?$AAe?$AAB?$AAa?$AAr@ ; `string'
PUBLIC	??_C@_1BG@IHDPANNO@?$AAS?$AAh?$AAo?$AAw?$AAD?$AAi?$AAa?$AAl?$AAo?$AAg@ ; `string'
PUBLIC	??_C@_1BI@CLKIACHL@?$AAN?$AAo?$AAt?$AAi?$AAf?$AAy?$AAE?$AAv?$AAe?$AAn?$AAt@ ; `string'
PUBLIC	??_C@_1CI@HHLIIAHJ@?$AAG?$AAe?$AAt?$AAG?$AAw?$AAa?$AAn?$AAC?$AAo?$AAd?$AAe?$AAO?$AAn?$AAe?$AAG@ ; `string'
PUBLIC	??_C@_1BM@BBHPBFJE@?$AAS?$AAe?$AAt?$AAA?$AAc?$AAc?$AAt?$AAP?$AAa?$AAs?$AAs?$AAw?$AAd@ ; `string'
PUBLIC	??_C@_1BM@MPHDADA@?$AAG?$AAe?$AAt?$AAA?$AAc?$AAc?$AAt?$AAP?$AAa?$AAs?$AAs?$AAw?$AAd@ ; `string'
PUBLIC	??_C@_1CC@JKAADBHM@?$AAS?$AAe?$AAt?$AAB?$AAa?$AAt?$AAc?$AAh?$AAA?$AAc?$AAc?$AAt?$AAI?$AAn?$AAf@ ; `string'
PUBLIC	??_C@_1CC@CNLPGMAH@?$AAG?$AAe?$AAt?$AAB?$AAa?$AAt?$AAc?$AAh?$AAA?$AAc?$AAc?$AAt?$AAI?$AAn?$AAf@ ; `string'
PUBLIC	??_C@_1BM@FMHAJHPK@?$AAG?$AAe?$AAt?$AAM?$AAa?$AAs?$AAt?$AAe?$AAr?$AAD?$AAa?$AAt?$AAa@ ; `string'
PUBLIC	??_C@_1CC@EMCKDAKA@?$AAS?$AAe?$AAt?$AAO?$AAp?$AAe?$AAn?$AAM?$AAa?$AAp?$AAS?$AAt?$AAy?$AAl?$AAe@ ; `string'
PUBLIC	??_C@_1CG@JDCOEDEM@?$AAI?$AAH?$AAW?$AAr?$AAi?$AAt?$AAe?$AAS?$AAe?$AAc?$AAt?$AAi?$AAo?$AAn?$AAD@ ; `string'
PUBLIC	??_C@_1CC@HCPLEHIB@?$AAI?$AAH?$AAG?$AAe?$AAt?$AAS?$AAe?$AAc?$AAt?$AAi?$AAo?$AAn?$AAD?$AAa?$AAt@ ; `string'
PUBLIC	??_C@_1CE@KBPIIAMH@?$AAI?$AAH?$AAG?$AAe?$AAt?$AAS?$AAe?$AAc?$AAt?$AAi?$AAo?$AAn?$AAN?$AAa?$AAm@ ; `string'
PUBLIC	??_C@_1BK@CGLOKIDM@?$AAI?$AAH?$AAA?$AAd?$AAd?$AAS?$AAe?$AAc?$AAt?$AAi?$AAo?$AAn@ ; `string'
PUBLIC	??_C@_1CA@POOFHE@?$AAI?$AAH?$AAD?$AAe?$AAl?$AAe?$AAt?$AAe?$AAS?$AAe?$AAc?$AAt?$AAi?$AAo?$AAn@ ; `string'
PUBLIC	??_C@_1CA@IDPNCDDE@?$AAI?$AAH?$AAR?$AAe?$AAn?$AAa?$AAm?$AAe?$AAS?$AAe?$AAc?$AAt?$AAi?$AAo?$AAn@ ; `string'
PUBLIC	??_C@_1CA@FKHJFHCC@?$AAC?$AAh?$AAa?$AAn?$AAg?$AAe?$AAF?$AAr?$AAa?$AAm?$AAe?$AAS?$AAi?$AAz?$AAe@ ; `string'
PUBLIC	??_C@_1BK@JBPKFPAD@?$AAG?$AAe?$AAt?$AAF?$AAr?$AAa?$AAm?$AAe?$AAS?$AAi?$AAz?$AAe@ ; `string'
PUBLIC	??_C@_1BG@CLDFOGJB@?$AAR?$AAe?$AAp?$AAo?$AAr?$AAt?$AAC?$AAa?$AAl?$AAl@ ; `string'
;	COMDAT ??_C@_1BG@CLDFOGJB@?$AAR?$AAe?$AAp?$AAo?$AAr?$AAt?$AAC?$AAa?$AAl?$AAl@
CONST	SEGMENT
??_C@_1BG@CLDFOGJB@?$AAR?$AAe?$AAp?$AAo?$AAr?$AAt?$AAC?$AAa?$AAl?$AAl@ DB 'R'
	DB	00H, 'e', 00H, 'p', 00H, 'o', 00H, 'r', 00H, 't', 00H, 'C', 00H
	DB	'a', 00H, 'l', 00H, 'l', 00H, 00H, 00H	; `string'
CONST	ENDS
;	COMDAT ??_C@_1BK@JBPKFPAD@?$AAG?$AAe?$AAt?$AAF?$AAr?$AAa?$AAm?$AAe?$AAS?$AAi?$AAz?$AAe@
CONST	SEGMENT
??_C@_1BK@JBPKFPAD@?$AAG?$AAe?$AAt?$AAF?$AAr?$AAa?$AAm?$AAe?$AAS?$AAi?$AAz?$AAe@ DB 'G'
	DB	00H, 'e', 00H, 't', 00H, 'F', 00H, 'r', 00H, 'a', 00H, 'm', 00H
	DB	'e', 00H, 'S', 00H, 'i', 00H, 'z', 00H, 'e', 00H, 00H, 00H ; `string'
CONST	ENDS
;	COMDAT ??_C@_1CA@FKHJFHCC@?$AAC?$AAh?$AAa?$AAn?$AAg?$AAe?$AAF?$AAr?$AAa?$AAm?$AAe?$AAS?$AAi?$AAz?$AAe@
CONST	SEGMENT
??_C@_1CA@FKHJFHCC@?$AAC?$AAh?$AAa?$AAn?$AAg?$AAe?$AAF?$AAr?$AAa?$AAm?$AAe?$AAS?$AAi?$AAz?$AAe@ DB 'C'
	DB	00H, 'h', 00H, 'a', 00H, 'n', 00H, 'g', 00H, 'e', 00H, 'F', 00H
	DB	'r', 00H, 'a', 00H, 'm', 00H, 'e', 00H, 'S', 00H, 'i', 00H, 'z'
	DB	00H, 'e', 00H, 00H, 00H			; `string'
CONST	ENDS
;	COMDAT ??_C@_1CA@IDPNCDDE@?$AAI?$AAH?$AAR?$AAe?$AAn?$AAa?$AAm?$AAe?$AAS?$AAe?$AAc?$AAt?$AAi?$AAo?$AAn@
CONST	SEGMENT
??_C@_1CA@IDPNCDDE@?$AAI?$AAH?$AAR?$AAe?$AAn?$AAa?$AAm?$AAe?$AAS?$AAe?$AAc?$AAt?$AAi?$AAo?$AAn@ DB 'I'
	DB	00H, 'H', 00H, 'R', 00H, 'e', 00H, 'n', 00H, 'a', 00H, 'm', 00H
	DB	'e', 00H, 'S', 00H, 'e', 00H, 'c', 00H, 't', 00H, 'i', 00H, 'o'
	DB	00H, 'n', 00H, 00H, 00H			; `string'
CONST	ENDS
;	COMDAT ??_C@_1CA@POOFHE@?$AAI?$AAH?$AAD?$AAe?$AAl?$AAe?$AAt?$AAe?$AAS?$AAe?$AAc?$AAt?$AAi?$AAo?$AAn@
CONST	SEGMENT
??_C@_1CA@POOFHE@?$AAI?$AAH?$AAD?$AAe?$AAl?$AAe?$AAt?$AAe?$AAS?$AAe?$AAc?$AAt?$AAi?$AAo?$AAn@ DB 'I'
	DB	00H, 'H', 00H, 'D', 00H, 'e', 00H, 'l', 00H, 'e', 00H, 't', 00H
	DB	'e', 00H, 'S', 00H, 'e', 00H, 'c', 00H, 't', 00H, 'i', 00H, 'o'
	DB	00H, 'n', 00H, 00H, 00H			; `string'
CONST	ENDS
;	COMDAT ??_C@_1BK@CGLOKIDM@?$AAI?$AAH?$AAA?$AAd?$AAd?$AAS?$AAe?$AAc?$AAt?$AAi?$AAo?$AAn@
CONST	SEGMENT
??_C@_1BK@CGLOKIDM@?$AAI?$AAH?$AAA?$AAd?$AAd?$AAS?$AAe?$AAc?$AAt?$AAi?$AAo?$AAn@ DB 'I'
	DB	00H, 'H', 00H, 'A', 00H, 'd', 00H, 'd', 00H, 'S', 00H, 'e', 00H
	DB	'c', 00H, 't', 00H, 'i', 00H, 'o', 00H, 'n', 00H, 00H, 00H ; `string'
CONST	ENDS
;	COMDAT ??_C@_1CE@KBPIIAMH@?$AAI?$AAH?$AAG?$AAe?$AAt?$AAS?$AAe?$AAc?$AAt?$AAi?$AAo?$AAn?$AAN?$AAa?$AAm@
CONST	SEGMENT
??_C@_1CE@KBPIIAMH@?$AAI?$AAH?$AAG?$AAe?$AAt?$AAS?$AAe?$AAc?$AAt?$AAi?$AAo?$AAn?$AAN?$AAa?$AAm@ DB 'I'
	DB	00H, 'H', 00H, 'G', 00H, 'e', 00H, 't', 00H, 'S', 00H, 'e', 00H
	DB	'c', 00H, 't', 00H, 'i', 00H, 'o', 00H, 'n', 00H, 'N', 00H, 'a'
	DB	00H, 'm', 00H, 'e', 00H, 's', 00H, 00H, 00H	; `string'
CONST	ENDS
;	COMDAT ??_C@_1CC@HCPLEHIB@?$AAI?$AAH?$AAG?$AAe?$AAt?$AAS?$AAe?$AAc?$AAt?$AAi?$AAo?$AAn?$AAD?$AAa?$AAt@
CONST	SEGMENT
??_C@_1CC@HCPLEHIB@?$AAI?$AAH?$AAG?$AAe?$AAt?$AAS?$AAe?$AAc?$AAt?$AAi?$AAo?$AAn?$AAD?$AAa?$AAt@ DB 'I'
	DB	00H, 'H', 00H, 'G', 00H, 'e', 00H, 't', 00H, 'S', 00H, 'e', 00H
	DB	'c', 00H, 't', 00H, 'i', 00H, 'o', 00H, 'n', 00H, 'D', 00H, 'a'
	DB	00H, 't', 00H, 'a', 00H, 00H, 00H		; `string'
CONST	ENDS
;	COMDAT ??_C@_1CG@JDCOEDEM@?$AAI?$AAH?$AAW?$AAr?$AAi?$AAt?$AAe?$AAS?$AAe?$AAc?$AAt?$AAi?$AAo?$AAn?$AAD@
CONST	SEGMENT
??_C@_1CG@JDCOEDEM@?$AAI?$AAH?$AAW?$AAr?$AAi?$AAt?$AAe?$AAS?$AAe?$AAc?$AAt?$AAi?$AAo?$AAn?$AAD@ DB 'I'
	DB	00H, 'H', 00H, 'W', 00H, 'r', 00H, 'i', 00H, 't', 00H, 'e', 00H
	DB	'S', 00H, 'e', 00H, 'c', 00H, 't', 00H, 'i', 00H, 'o', 00H, 'n'
	DB	00H, 'D', 00H, 'a', 00H, 't', 00H, 'a', 00H, 00H, 00H ; `string'
CONST	ENDS
;	COMDAT ??_C@_1CC@EMCKDAKA@?$AAS?$AAe?$AAt?$AAO?$AAp?$AAe?$AAn?$AAM?$AAa?$AAp?$AAS?$AAt?$AAy?$AAl?$AAe@
CONST	SEGMENT
??_C@_1CC@EMCKDAKA@?$AAS?$AAe?$AAt?$AAO?$AAp?$AAe?$AAn?$AAM?$AAa?$AAp?$AAS?$AAt?$AAy?$AAl?$AAe@ DB 'S'
	DB	00H, 'e', 00H, 't', 00H, 'O', 00H, 'p', 00H, 'e', 00H, 'n', 00H
	DB	'M', 00H, 'a', 00H, 'p', 00H, 'S', 00H, 't', 00H, 'y', 00H, 'l'
	DB	00H, 'e', 00H, '2', 00H, 00H, 00H		; `string'
CONST	ENDS
;	COMDAT ??_C@_1BM@FMHAJHPK@?$AAG?$AAe?$AAt?$AAM?$AAa?$AAs?$AAt?$AAe?$AAr?$AAD?$AAa?$AAt?$AAa@
CONST	SEGMENT
??_C@_1BM@FMHAJHPK@?$AAG?$AAe?$AAt?$AAM?$AAa?$AAs?$AAt?$AAe?$AAr?$AAD?$AAa?$AAt?$AAa@ DB 'G'
	DB	00H, 'e', 00H, 't', 00H, 'M', 00H, 'a', 00H, 's', 00H, 't', 00H
	DB	'e', 00H, 'r', 00H, 'D', 00H, 'a', 00H, 't', 00H, 'a', 00H, 00H
	DB	00H						; `string'
CONST	ENDS
;	COMDAT ??_C@_1CC@CNLPGMAH@?$AAG?$AAe?$AAt?$AAB?$AAa?$AAt?$AAc?$AAh?$AAA?$AAc?$AAc?$AAt?$AAI?$AAn?$AAf@
CONST	SEGMENT
??_C@_1CC@CNLPGMAH@?$AAG?$AAe?$AAt?$AAB?$AAa?$AAt?$AAc?$AAh?$AAA?$AAc?$AAc?$AAt?$AAI?$AAn?$AAf@ DB 'G'
	DB	00H, 'e', 00H, 't', 00H, 'B', 00H, 'a', 00H, 't', 00H, 'c', 00H
	DB	'h', 00H, 'A', 00H, 'c', 00H, 'c', 00H, 't', 00H, 'I', 00H, 'n'
	DB	00H, 'f', 00H, 'o', 00H, 00H, 00H		; `string'
CONST	ENDS
;	COMDAT ??_C@_1CC@JKAADBHM@?$AAS?$AAe?$AAt?$AAB?$AAa?$AAt?$AAc?$AAh?$AAA?$AAc?$AAc?$AAt?$AAI?$AAn?$AAf@
CONST	SEGMENT
??_C@_1CC@JKAADBHM@?$AAS?$AAe?$AAt?$AAB?$AAa?$AAt?$AAc?$AAh?$AAA?$AAc?$AAc?$AAt?$AAI?$AAn?$AAf@ DB 'S'
	DB	00H, 'e', 00H, 't', 00H, 'B', 00H, 'a', 00H, 't', 00H, 'c', 00H
	DB	'h', 00H, 'A', 00H, 'c', 00H, 'c', 00H, 't', 00H, 'I', 00H, 'n'
	DB	00H, 'f', 00H, 'o', 00H, 00H, 00H		; `string'
CONST	ENDS
;	COMDAT ??_C@_1BM@MPHDADA@?$AAG?$AAe?$AAt?$AAA?$AAc?$AAc?$AAt?$AAP?$AAa?$AAs?$AAs?$AAw?$AAd@
CONST	SEGMENT
??_C@_1BM@MPHDADA@?$AAG?$AAe?$AAt?$AAA?$AAc?$AAc?$AAt?$AAP?$AAa?$AAs?$AAs?$AAw?$AAd@ DB 'G'
	DB	00H, 'e', 00H, 't', 00H, 'A', 00H, 'c', 00H, 'c', 00H, 't', 00H
	DB	'P', 00H, 'a', 00H, 's', 00H, 's', 00H, 'w', 00H, 'd', 00H, 00H
	DB	00H						; `string'
CONST	ENDS
;	COMDAT ??_C@_1BM@BBHPBFJE@?$AAS?$AAe?$AAt?$AAA?$AAc?$AAc?$AAt?$AAP?$AAa?$AAs?$AAs?$AAw?$AAd@
CONST	SEGMENT
??_C@_1BM@BBHPBFJE@?$AAS?$AAe?$AAt?$AAA?$AAc?$AAc?$AAt?$AAP?$AAa?$AAs?$AAs?$AAw?$AAd@ DB 'S'
	DB	00H, 'e', 00H, 't', 00H, 'A', 00H, 'c', 00H, 'c', 00H, 't', 00H
	DB	'P', 00H, 'a', 00H, 's', 00H, 's', 00H, 'w', 00H, 'd', 00H, 00H
	DB	00H						; `string'
CONST	ENDS
;	COMDAT ??_C@_1CI@HHLIIAHJ@?$AAG?$AAe?$AAt?$AAG?$AAw?$AAa?$AAn?$AAC?$AAo?$AAd?$AAe?$AAO?$AAn?$AAe?$AAG@
CONST	SEGMENT
??_C@_1CI@HHLIIAHJ@?$AAG?$AAe?$AAt?$AAG?$AAw?$AAa?$AAn?$AAC?$AAo?$AAd?$AAe?$AAO?$AAn?$AAe?$AAG@ DB 'G'
	DB	00H, 'e', 00H, 't', 00H, 'G', 00H, 'w', 00H, 'a', 00H, 'n', 00H
	DB	'C', 00H, 'o', 00H, 'd', 00H, 'e', 00H, 'O', 00H, 'n', 00H, 'e'
	DB	00H, 'G', 00H, 'r', 00H, 'o', 00H, 'u', 00H, 'p', 00H, 00H, 00H ; `string'
CONST	ENDS
;	COMDAT ??_C@_1BI@CLKIACHL@?$AAN?$AAo?$AAt?$AAi?$AAf?$AAy?$AAE?$AAv?$AAe?$AAn?$AAt@
CONST	SEGMENT
??_C@_1BI@CLKIACHL@?$AAN?$AAo?$AAt?$AAi?$AAf?$AAy?$AAE?$AAv?$AAe?$AAn?$AAt@ DB 'N'
	DB	00H, 'o', 00H, 't', 00H, 'i', 00H, 'f', 00H, 'y', 00H, 'E', 00H
	DB	'v', 00H, 'e', 00H, 'n', 00H, 't', 00H, 00H, 00H ; `string'
CONST	ENDS
;	COMDAT ??_C@_1BG@IHDPANNO@?$AAS?$AAh?$AAo?$AAw?$AAD?$AAi?$AAa?$AAl?$AAo?$AAg@
CONST	SEGMENT
??_C@_1BG@IHDPANNO@?$AAS?$AAh?$AAo?$AAw?$AAD?$AAi?$AAa?$AAl?$AAo?$AAg@ DB 'S'
	DB	00H, 'h', 00H, 'o', 00H, 'w', 00H, 'D', 00H, 'i', 00H, 'a', 00H
	DB	'l', 00H, 'o', 00H, 'g', 00H, 00H, 00H	; `string'
CONST	ENDS
;	COMDAT ??_C@_1CA@BODDOHAE@?$AAC?$AAl?$AAe?$AAa?$AAr?$AAM?$AAe?$AAs?$AAs?$AAa?$AAg?$AAe?$AAB?$AAa?$AAr@
CONST	SEGMENT
??_C@_1CA@BODDOHAE@?$AAC?$AAl?$AAe?$AAa?$AAr?$AAM?$AAe?$AAs?$AAs?$AAa?$AAg?$AAe?$AAB?$AAa?$AAr@ DB 'C'
	DB	00H, 'l', 00H, 'e', 00H, 'a', 00H, 'r', 00H, 'M', 00H, 'e', 00H
	DB	's', 00H, 's', 00H, 'a', 00H, 'g', 00H, 'e', 00H, 'B', 00H, 'a'
	DB	00H, 'r', 00H, 00H, 00H			; `string'
CONST	ENDS
;	COMDAT ??_C@_1BI@IJNLKKFA@?$AAG?$AAe?$AAt?$AAG?$AAw?$AAa?$AAn?$AAC?$AAo?$AAd?$AAe@
CONST	SEGMENT
??_C@_1BI@IJNLKKFA@?$AAG?$AAe?$AAt?$AAG?$AAw?$AAa?$AAn?$AAC?$AAo?$AAd?$AAe@ DB 'G'
	DB	00H, 'e', 00H, 't', 00H, 'G', 00H, 'w', 00H, 'a', 00H, 'n', 00H
	DB	'C', 00H, 'o', 00H, 'd', 00H, 'e', 00H, 00H, 00H ; `string'
CONST	ENDS
;	COMDAT ??_C@_1BI@EIMJPKID@?$AAG?$AAe?$AAt?$AAG?$AAw?$AAa?$AAn?$AAL?$AAi?$AAs?$AAt@
CONST	SEGMENT
??_C@_1BI@EIMJPKID@?$AAG?$AAe?$AAt?$AAG?$AAw?$AAa?$AAn?$AAL?$AAi?$AAs?$AAt@ DB 'G'
	DB	00H, 'e', 00H, 't', 00H, 'G', 00H, 'w', 00H, 'a', 00H, 'n', 00H
	DB	'L', 00H, 'i', 00H, 's', 00H, 't', 00H, 00H, 00H ; `string'
CONST	ENDS
;	COMDAT ??_C@_1CA@KEGHBPBJ@?$AAS?$AAe?$AAt?$AAO?$AAp?$AAe?$AAn?$AAM?$AAa?$AAp?$AAS?$AAt?$AAy?$AAl?$AAe@
CONST	SEGMENT
??_C@_1CA@KEGHBPBJ@?$AAS?$AAe?$AAt?$AAO?$AAp?$AAe?$AAn?$AAM?$AAa?$AAp?$AAS?$AAt?$AAy?$AAl?$AAe@ DB 'S'
	DB	00H, 'e', 00H, 't', 00H, 'O', 00H, 'p', 00H, 'e', 00H, 'n', 00H
	DB	'M', 00H, 'a', 00H, 'p', 00H, 'S', 00H, 't', 00H, 'y', 00H, 'l'
	DB	00H, 'e', 00H, 00H, 00H			; `string'
CONST	ENDS
;	COMDAT ??_C@_1BI@HDOCPFCP@?$AAG?$AAe?$AAt?$AAA?$AAc?$AAc?$AAt?$AAL?$AAi?$AAs?$AAt@
CONST	SEGMENT
??_C@_1BI@HDOCPFCP@?$AAG?$AAe?$AAt?$AAA?$AAc?$AAc?$AAt?$AAL?$AAi?$AAs?$AAt@ DB 'G'
	DB	00H, 'e', 00H, 't', 00H, 'A', 00H, 'c', 00H, 'c', 00H, 't', 00H
	DB	'L', 00H, 'i', 00H, 's', 00H, 't', 00H, 00H, 00H ; `string'
CONST	ENDS
;	COMDAT ??_C@_1BA@EGEDPFCL@?$AAR?$AAe?$AAs?$AAt?$AAa?$AAr?$AAt@
CONST	SEGMENT
??_C@_1BA@EGEDPFCL@?$AAR?$AAe?$AAs?$AAt?$AAa?$AAr?$AAt@ DB 'R', 00H, 'e', 00H
	DB	's', 00H, 't', 00H, 'a', 00H, 'r', 00H, 't', 00H, 00H, 00H ; `string'
CONST	ENDS
;	COMDAT ??_C@_1BE@IDBKKNFI@?$AAC?$AAl?$AAo?$AAs?$AAe?$AAM?$AAa?$AAi?$AAn@
CONST	SEGMENT
??_C@_1BE@IDBKKNFI@?$AAC?$AAl?$AAo?$AAs?$AAe?$AAM?$AAa?$AAi?$AAn@ DB 'C', 00H
	DB	'l', 00H, 'o', 00H, 's', 00H, 'e', 00H, 'M', 00H, 'a', 00H, 'i'
	DB	00H, 'n', 00H, 00H, 00H			; `string'
CONST	ENDS
;	COMDAT ??_C@_1CC@GDGABKIG@?$AAR?$AAe?$AAm?$AAo?$AAv?$AAe?$AAG?$AAl?$AAo?$AAb?$AAa?$AAl?$AAD?$AAa?$AAt@
CONST	SEGMENT
??_C@_1CC@GDGABKIG@?$AAR?$AAe?$AAm?$AAo?$AAv?$AAe?$AAG?$AAl?$AAo?$AAb?$AAa?$AAl?$AAD?$AAa?$AAt@ DB 'R'
	DB	00H, 'e', 00H, 'm', 00H, 'o', 00H, 'v', 00H, 'e', 00H, 'G', 00H
	DB	'l', 00H, 'o', 00H, 'b', 00H, 'a', 00H, 'l', 00H, 'D', 00H, 'a'
	DB	00H, 't', 00H, 'a', 00H, 00H, 00H		; `string'
CONST	ENDS
;	COMDAT ??_C@_1CC@HNOCAHOF@?$AAG?$AAe?$AAt?$AAF?$AAr?$AAa?$AAm?$AAe?$AAV?$AAa?$AAr?$AAi?$AAa?$AAb?$AAl@
CONST	SEGMENT
??_C@_1CC@HNOCAHOF@?$AAG?$AAe?$AAt?$AAF?$AAr?$AAa?$AAm?$AAe?$AAV?$AAa?$AAr?$AAi?$AAa?$AAb?$AAl@ DB 'G'
	DB	00H, 'e', 00H, 't', 00H, 'F', 00H, 'r', 00H, 'a', 00H, 'm', 00H
	DB	'e', 00H, 'V', 00H, 'a', 00H, 'r', 00H, 'i', 00H, 'a', 00H, 'b'
	DB	00H, 'l', 00H, 'e', 00H, 00H, 00H		; `string'
CONST	ENDS
;	COMDAT ??_C@_1CC@MKFNFKJO@?$AAS?$AAe?$AAt?$AAF?$AAr?$AAa?$AAm?$AAe?$AAV?$AAa?$AAr?$AAi?$AAa?$AAb?$AAl@
CONST	SEGMENT
??_C@_1CC@MKFNFKJO@?$AAS?$AAe?$AAt?$AAF?$AAr?$AAa?$AAm?$AAe?$AAV?$AAa?$AAr?$AAi?$AAa?$AAb?$AAl@ DB 'S'
	DB	00H, 'e', 00H, 't', 00H, 'F', 00H, 'r', 00H, 'a', 00H, 'm', 00H
	DB	'e', 00H, 'V', 00H, 'a', 00H, 'r', 00H, 'i', 00H, 'a', 00H, 'b'
	DB	00H, 'l', 00H, 'e', 00H, 00H, 00H		; `string'
CONST	ENDS
;	COMDAT ??_C@_1BM@MPGCKLPJ@?$AAG?$AAe?$AAt?$AAG?$AAS?$AAh?$AAa?$AAr?$AAe?$AAD?$AAa?$AAt?$AAa@
CONST	SEGMENT
??_C@_1BM@MPGCKLPJ@?$AAG?$AAe?$AAt?$AAG?$AAS?$AAh?$AAa?$AAr?$AAe?$AAD?$AAa?$AAt?$AAa@ DB 'G'
	DB	00H, 'e', 00H, 't', 00H, 'G', 00H, 'S', 00H, 'h', 00H, 'a', 00H
	DB	'r', 00H, 'e', 00H, 'D', 00H, 'a', 00H, 't', 00H, 'a', 00H, 00H
	DB	00H						; `string'
CONST	ENDS
;	COMDAT ??_C@_1BM@NCOKIOFN@?$AAS?$AAe?$AAt?$AAG?$AAS?$AAh?$AAa?$AAr?$AAe?$AAD?$AAa?$AAt?$AAa@
CONST	SEGMENT
??_C@_1BM@NCOKIOFN@?$AAS?$AAe?$AAt?$AAG?$AAS?$AAh?$AAa?$AAr?$AAe?$AAD?$AAa?$AAt?$AAa@ DB 'S'
	DB	00H, 'e', 00H, 't', 00H, 'G', 00H, 'S', 00H, 'h', 00H, 'a', 00H
	DB	'r', 00H, 'e', 00H, 'D', 00H, 'a', 00H, 't', 00H, 'a', 00H, 00H
	DB	00H						; `string'
CONST	ENDS
;	COMDAT ??_C@_1CE@CCKAJBGG@?$AAC?$AAh?$AAa?$AAn?$AAg?$AAe?$AAT?$AAa?$AAb?$AAP?$AAr?$AAo?$AAp?$AAe?$AAr@
CONST	SEGMENT
??_C@_1CE@CCKAJBGG@?$AAC?$AAh?$AAa?$AAn?$AAg?$AAe?$AAT?$AAa?$AAb?$AAP?$AAr?$AAo?$AAp?$AAe?$AAr@ DB 'C'
	DB	00H, 'h', 00H, 'a', 00H, 'n', 00H, 'g', 00H, 'e', 00H, 'T', 00H
	DB	'a', 00H, 'b', 00H, 'P', 00H, 'r', 00H, 'o', 00H, 'p', 00H, 'e'
	DB	00H, 'r', 00H, 't', 00H, 'y', 00H, 00H, 00H	; `string'
CONST	ENDS
;	COMDAT ??_C@_1O@IEHJLNPD@?$AAM?$AAs?$AAg?$AAB?$AAo?$AAx@
CONST	SEGMENT
??_C@_1O@IEHJLNPD@?$AAM?$AAs?$AAg?$AAB?$AAo?$AAx@ DB 'M', 00H, 's', 00H, 'g'
	DB	00H, 'B', 00H, 'o', 00H, 'x', 00H, 00H, 00H	; `string'
CONST	ENDS
;	COMDAT ??_C@_1BI@JPNOCPBC@?$AAG?$AAe?$AAt?$AAU?$AAs?$AAe?$AAr?$AAI?$AAn?$AAf?$AAo@
CONST	SEGMENT
??_C@_1BI@JPNOCPBC@?$AAG?$AAe?$AAt?$AAU?$AAs?$AAe?$AAr?$AAI?$AAn?$AAf?$AAo@ DB 'G'
	DB	00H, 'e', 00H, 't', 00H, 'U', 00H, 's', 00H, 'e', 00H, 'r', 00H
	DB	'I', 00H, 'n', 00H, 'f', 00H, 'o', 00H, 00H, 00H ; `string'
CONST	ENDS
;	COMDAT ??_C@_1BG@DGIFPOCN@?$AAG?$AAe?$AAt?$AAM?$AAa?$AAp?$AAI?$AAn?$AAf?$AAo@
CONST	SEGMENT
??_C@_1BG@DGIFPOCN@?$AAG?$AAe?$AAt?$AAM?$AAa?$AAp?$AAI?$AAn?$AAf?$AAo@ DB 'G'
	DB	00H, 'e', 00H, 't', 00H, 'M', 00H, 'a', 00H, 'p', 00H, 'I', 00H
	DB	'n', 00H, 'f', 00H, 'o', 00H, 00H, 00H	; `string'
CONST	ENDS
_DATA	SEGMENT
?m_osInterfaceName@CDispMain@@2PAPA_WA DD FLAT:??_C@_1BG@DGIFPOCN@?$AAG?$AAe?$AAt?$AAM?$AAa?$AAp?$AAI?$AAn?$AAf?$AAo@ ; CDispMain::m_osInterfaceName
	DD	FLAT:??_C@_1BI@JPNOCPBC@?$AAG?$AAe?$AAt?$AAU?$AAs?$AAe?$AAr?$AAI?$AAn?$AAf?$AAo@
	DD	FLAT:??_C@_1O@IEHJLNPD@?$AAM?$AAs?$AAg?$AAB?$AAo?$AAx@
	DD	FLAT:??_C@_1CE@CCKAJBGG@?$AAC?$AAh?$AAa?$AAn?$AAg?$AAe?$AAT?$AAa?$AAb?$AAP?$AAr?$AAo?$AAp?$AAe?$AAr@
	DD	FLAT:??_C@_1BM@NCOKIOFN@?$AAS?$AAe?$AAt?$AAG?$AAS?$AAh?$AAa?$AAr?$AAe?$AAD?$AAa?$AAt?$AAa@
	DD	FLAT:??_C@_1BM@MPGCKLPJ@?$AAG?$AAe?$AAt?$AAG?$AAS?$AAh?$AAa?$AAr?$AAe?$AAD?$AAa?$AAt?$AAa@
	DD	FLAT:??_C@_1CC@MKFNFKJO@?$AAS?$AAe?$AAt?$AAF?$AAr?$AAa?$AAm?$AAe?$AAV?$AAa?$AAr?$AAi?$AAa?$AAb?$AAl@
	DD	FLAT:??_C@_1CC@HNOCAHOF@?$AAG?$AAe?$AAt?$AAF?$AAr?$AAa?$AAm?$AAe?$AAV?$AAa?$AAr?$AAi?$AAa?$AAb?$AAl@
	DD	FLAT:??_C@_1CC@GDGABKIG@?$AAR?$AAe?$AAm?$AAo?$AAv?$AAe?$AAG?$AAl?$AAo?$AAb?$AAa?$AAl?$AAD?$AAa?$AAt@
	DD	FLAT:??_C@_1BE@IDBKKNFI@?$AAC?$AAl?$AAo?$AAs?$AAe?$AAM?$AAa?$AAi?$AAn@
	DD	FLAT:??_C@_1BA@EGEDPFCL@?$AAR?$AAe?$AAs?$AAt?$AAa?$AAr?$AAt@
	DD	FLAT:??_C@_1BI@HDOCPFCP@?$AAG?$AAe?$AAt?$AAA?$AAc?$AAc?$AAt?$AAL?$AAi?$AAs?$AAt@
	DD	FLAT:??_C@_1CA@KEGHBPBJ@?$AAS?$AAe?$AAt?$AAO?$AAp?$AAe?$AAn?$AAM?$AAa?$AAp?$AAS?$AAt?$AAy?$AAl?$AAe@
	DD	FLAT:??_C@_1BI@EIMJPKID@?$AAG?$AAe?$AAt?$AAG?$AAw?$AAa?$AAn?$AAL?$AAi?$AAs?$AAt@
	DD	FLAT:??_C@_1BI@IJNLKKFA@?$AAG?$AAe?$AAt?$AAG?$AAw?$AAa?$AAn?$AAC?$AAo?$AAd?$AAe@
	DD	FLAT:??_C@_1CA@BODDOHAE@?$AAC?$AAl?$AAe?$AAa?$AAr?$AAM?$AAe?$AAs?$AAs?$AAa?$AAg?$AAe?$AAB?$AAa?$AAr@
	DD	FLAT:??_C@_1BG@IHDPANNO@?$AAS?$AAh?$AAo?$AAw?$AAD?$AAi?$AAa?$AAl?$AAo?$AAg@
	DD	FLAT:??_C@_1BI@CLKIACHL@?$AAN?$AAo?$AAt?$AAi?$AAf?$AAy?$AAE?$AAv?$AAe?$AAn?$AAt@
	DD	FLAT:??_C@_1CI@HHLIIAHJ@?$AAG?$AAe?$AAt?$AAG?$AAw?$AAa?$AAn?$AAC?$AAo?$AAd?$AAe?$AAO?$AAn?$AAe?$AAG@
	DD	FLAT:??_C@_1BM@BBHPBFJE@?$AAS?$AAe?$AAt?$AAA?$AAc?$AAc?$AAt?$AAP?$AAa?$AAs?$AAs?$AAw?$AAd@
	DD	FLAT:??_C@_1BM@MPHDADA@?$AAG?$AAe?$AAt?$AAA?$AAc?$AAc?$AAt?$AAP?$AAa?$AAs?$AAs?$AAw?$AAd@
	DD	FLAT:??_C@_1CC@JKAADBHM@?$AAS?$AAe?$AAt?$AAB?$AAa?$AAt?$AAc?$AAh?$AAA?$AAc?$AAc?$AAt?$AAI?$AAn?$AAf@
	DD	FLAT:??_C@_1CC@CNLPGMAH@?$AAG?$AAe?$AAt?$AAB?$AAa?$AAt?$AAc?$AAh?$AAA?$AAc?$AAc?$AAt?$AAI?$AAn?$AAf@
	DD	FLAT:??_C@_1BM@FMHAJHPK@?$AAG?$AAe?$AAt?$AAM?$AAa?$AAs?$AAt?$AAe?$AAr?$AAD?$AAa?$AAt?$AAa@
	DD	FLAT:??_C@_1CC@EMCKDAKA@?$AAS?$AAe?$AAt?$AAO?$AAp?$AAe?$AAn?$AAM?$AAa?$AAp?$AAS?$AAt?$AAy?$AAl?$AAe@
	DD	FLAT:??_C@_1CG@JDCOEDEM@?$AAI?$AAH?$AAW?$AAr?$AAi?$AAt?$AAe?$AAS?$AAe?$AAc?$AAt?$AAi?$AAo?$AAn?$AAD@
	DD	FLAT:??_C@_1CC@HCPLEHIB@?$AAI?$AAH?$AAG?$AAe?$AAt?$AAS?$AAe?$AAc?$AAt?$AAi?$AAo?$AAn?$AAD?$AAa?$AAt@
	DD	FLAT:??_C@_1CE@KBPIIAMH@?$AAI?$AAH?$AAG?$AAe?$AAt?$AAS?$AAe?$AAc?$AAt?$AAi?$AAo?$AAn?$AAN?$AAa?$AAm@
	DD	FLAT:??_C@_1BK@CGLOKIDM@?$AAI?$AAH?$AAA?$AAd?$AAd?$AAS?$AAe?$AAc?$AAt?$AAi?$AAo?$AAn@
	DD	FLAT:??_C@_1CA@POOFHE@?$AAI?$AAH?$AAD?$AAe?$AAl?$AAe?$AAt?$AAe?$AAS?$AAe?$AAc?$AAt?$AAi?$AAo?$AAn@
	DD	FLAT:??_C@_1CA@IDPNCDDE@?$AAI?$AAH?$AAR?$AAe?$AAn?$AAa?$AAm?$AAe?$AAS?$AAe?$AAc?$AAt?$AAi?$AAo?$AAn@
	DD	FLAT:??_C@_1CA@FKHJFHCC@?$AAC?$AAh?$AAa?$AAn?$AAg?$AAe?$AAF?$AAr?$AAa?$AAm?$AAe?$AAS?$AAi?$AAz?$AAe@
	DD	FLAT:??_C@_1BK@JBPKFPAD@?$AAG?$AAe?$AAt?$AAF?$AAr?$AAa?$AAm?$AAe?$AAS?$AAi?$AAz?$AAe@
	DD	FLAT:??_C@_1BG@CLDFOGJB@?$AAR?$AAe?$AAp?$AAo?$AAr?$AAt?$AAC?$AAa?$AAl?$AAl@
_DATA	ENDS
PUBLIC	?__empty_global_delete@@YAXPAX@Z		; __empty_global_delete
PUBLIC	?__empty_global_delete@@YAXPAXI@Z		; __empty_global_delete
PUBLIC	??0CDispMain@@QAE@XZ				; CDispMain::CDispMain
PUBLIC	?InitInterfaceName@CDispMain@@QAEXPAUIDispatch@@@Z ; CDispMain::InitInterfaceName
PUBLIC	?GetMapInfo@CDispMain@@QAE?AV?$CStringT@DV?$StrTraitMFC_DLL@DV?$ChTraitsCRT@D@ATL@@@@@ATL@@F@Z ; CDispMain::GetMapInfo
PUBLIC	?GetUserInfo@CDispMain@@QAE?AV?$CStringT@DV?$StrTraitMFC_DLL@DV?$ChTraitsCRT@D@ATL@@@@@ATL@@F@Z ; CDispMain::GetUserInfo
PUBLIC	?MsgBox@CDispMain@@QAEFPBD0F@Z			; CDispMain::MsgBox
PUBLIC	?ChangeTabProperty@CDispMain@@QAEHFFFF@Z	; CDispMain::ChangeTabProperty
PUBLIC	?SetGShareData@CDispMain@@QAEXPBD0F@Z		; CDispMain::SetGShareData
PUBLIC	?GetGShareData@CDispMain@@QAE?AV?$CStringT@DV?$StrTraitMFC_DLL@DV?$ChTraitsCRT@D@ATL@@@@@ATL@@PBD@Z ; CDispMain::GetGShareData
PUBLIC	?SetFrameVariable@CDispMain@@QAEXPBD0@Z		; CDispMain::SetFrameVariable
PUBLIC	?GetFrameVariable@CDispMain@@QAE?AV?$CStringT@DV?$StrTraitMFC_DLL@DV?$ChTraitsCRT@D@ATL@@@@@ATL@@PBD@Z ; CDispMain::GetFrameVariable
PUBLIC	?RemoveGlobalData@CDispMain@@QAEHPBD0@Z		; CDispMain::RemoveGlobalData
PUBLIC	?CloseMain@CDispMain@@QAEXF@Z			; CDispMain::CloseMain
PUBLIC	?Restart@CDispMain@@QAEXXZ			; CDispMain::Restart
PUBLIC	?GetAcctList@CDispMain@@QAE?AV?$CStringT@DV?$StrTraitMFC_DLL@DV?$ChTraitsCRT@D@ATL@@@@@ATL@@XZ ; CDispMain::GetAcctList
PUBLIC	?SetOpenMapStyle@CDispMain@@QAEXFFFF@Z		; CDispMain::SetOpenMapStyle
PUBLIC	?GetGwanList@CDispMain@@QAE?AV?$CStringT@DV?$StrTraitMFC_DLL@DV?$ChTraitsCRT@D@ATL@@@@@ATL@@XZ ; CDispMain::GetGwanList
PUBLIC	?GetGwanCode@CDispMain@@QAE?AV?$CStringT@DV?$StrTraitMFC_DLL@DV?$ChTraitsCRT@D@ATL@@@@@ATL@@PBD@Z ; CDispMain::GetGwanCode
PUBLIC	?ClearMessageBar@CDispMain@@QAEXXZ		; CDispMain::ClearMessageBar
PUBLIC	?ShowDialog@CDispMain@@QAEFPBDFF@Z		; CDispMain::ShowDialog
PUBLIC	?NotifyEvent@CDispMain@@QAEXPBD0@Z		; CDispMain::NotifyEvent
PUBLIC	?GetGwanCodeOneGroup@CDispMain@@QAE?AV?$CStringT@DV?$StrTraitMFC_DLL@DV?$ChTraitsCRT@D@ATL@@@@@ATL@@PBD0@Z ; CDispMain::GetGwanCodeOneGroup
PUBLIC	?SetAcctPasswd@CDispMain@@QAEXPBD0@Z		; CDispMain::SetAcctPasswd
PUBLIC	?GetAcctPasswd@CDispMain@@QAE?AV?$CStringT@DV?$StrTraitMFC_DLL@DV?$ChTraitsCRT@D@ATL@@@@@ATL@@PBD@Z ; CDispMain::GetAcctPasswd
PUBLIC	?SetBatchAcctInfo@CDispMain@@QAEXPBD@Z		; CDispMain::SetBatchAcctInfo
PUBLIC	?GetBatchAcctInfo@CDispMain@@QAE?AV?$CStringT@DV?$StrTraitMFC_DLL@DV?$ChTraitsCRT@D@ATL@@@@@ATL@@PBD@Z ; CDispMain::GetBatchAcctInfo
PUBLIC	?GetMasterData@CDispMain@@QAE?AV?$CStringT@DV?$StrTraitMFC_DLL@DV?$ChTraitsCRT@D@ATL@@@@@ATL@@F@Z ; CDispMain::GetMasterData
PUBLIC	?SetOpenMapStyle2@CDispMain@@QAEXFFFFF@Z	; CDispMain::SetOpenMapStyle2
PUBLIC	?IHWriteSectionData@CDispMain@@QAEFPBD0000@Z	; CDispMain::IHWriteSectionData
PUBLIC	?IHGetSectionData@CDispMain@@QAE?AV?$CStringT@DV?$StrTraitMFC_DLL@DV?$ChTraitsCRT@D@ATL@@@@@ATL@@PBD0000@Z ; CDispMain::IHGetSectionData
PUBLIC	?IHGetSectionNames@CDispMain@@QAE?AV?$CStringT@DV?$StrTraitMFC_DLL@DV?$ChTraitsCRT@D@ATL@@@@@ATL@@PBD0@Z ; CDispMain::IHGetSectionNames
PUBLIC	?IHAddSection@CDispMain@@QAEFPBD00@Z		; CDispMain::IHAddSection
PUBLIC	?IHDeleteSection@CDispMain@@QAEFPBD00@Z		; CDispMain::IHDeleteSection
PUBLIC	?IHRenameSection@CDispMain@@QAEFPBD000@Z	; CDispMain::IHRenameSection
PUBLIC	?ChangeFrameSize@CDispMain@@QAEXFFF@Z		; CDispMain::ChangeFrameSize
PUBLIC	?GetFrameSize@CDispMain@@QAE?AV?$CStringT@DV?$StrTraitMFC_DLL@DV?$ChTraitsCRT@D@ATL@@@@@ATL@@F@Z ; CDispMain::GetFrameSize
PUBLIC	?ReportCall@CDispMain@@QAEXPBDJ0@Z		; CDispMain::ReportCall
EXTRN	??_U@YAPAXI@Z:PROC				; operator new[]
EXTRN	__imp_??0?$CStringT@DV?$StrTraitMFC_DLL@DV?$ChTraitsCRT@D@ATL@@@@@ATL@@QAE@XZ:PROC
EXTRN	__imp_??1?$CStringT@DV?$StrTraitMFC_DLL@DV?$ChTraitsCRT@D@ATL@@@@@ATL@@QAE@XZ:PROC
EXTRN	??0COleDispatchDriver@@QAE@XZ:PROC		; COleDispatchDriver::COleDispatchDriver
EXTRN	?ReleaseDispatch@COleDispatchDriver@@QAEXXZ:PROC ; COleDispatchDriver::ReleaseDispatch
EXTRN	?InvokeHelper@COleDispatchDriver@@QAAXJGGPAXPBEZZ:PROC ; COleDispatchDriver::InvokeHelper
EXTRN	@__security_check_cookie@4:PROC
EXTRN	___CxxFrameHandler3:PROC
EXTRN	_GUID_NULL:BYTE
EXTRN	___security_cookie:DWORD
;	COMDAT ?parms@?1??ReportCall@CDispMain@@QAEXPBDJ0@Z@4PAEA
_DATA	SEGMENT
?parms@?1??ReportCall@CDispMain@@QAEXPBDJ0@Z@4PAEA DB 0eH, 03H, 0eH, 00H ; `CDispMain::ReportCall'::`2'::parms
_DATA	ENDS
;	COMDAT ?parms@?1??GetFrameSize@CDispMain@@QAE?AV?$CStringT@DV?$StrTraitMFC_DLL@DV?$ChTraitsCRT@D@ATL@@@@@ATL@@F@Z@4PAEA
_DATA	SEGMENT
?parms@?1??GetFrameSize@CDispMain@@QAE?AV?$CStringT@DV?$StrTraitMFC_DLL@DV?$ChTraitsCRT@D@ATL@@@@@ATL@@F@Z@4PAEA DB 02H
	DB	00H						; `CDispMain::GetFrameSize'::`2'::parms
_DATA	ENDS
;	COMDAT ?parms@?1??ChangeFrameSize@CDispMain@@QAEXFFF@Z@4PAEA
_DATA	SEGMENT
?parms@?1??ChangeFrameSize@CDispMain@@QAEXFFF@Z@4PAEA DB 02H, 02H, 02H, 00H ; `CDispMain::ChangeFrameSize'::`2'::parms
_DATA	ENDS
;	COMDAT ?parms@?1??IHRenameSection@CDispMain@@QAEFPBD000@Z@4PAEA
_DATA	SEGMENT
?parms@?1??IHRenameSection@CDispMain@@QAEFPBD000@Z@4PAEA DB 0eH, 0eH, 0eH
	DB	0eH, 00H					; `CDispMain::IHRenameSection'::`2'::parms
_DATA	ENDS
;	COMDAT ?parms@?1??IHDeleteSection@CDispMain@@QAEFPBD00@Z@4PAEA
_DATA	SEGMENT
?parms@?1??IHDeleteSection@CDispMain@@QAEFPBD00@Z@4PAEA DB 0eH, 0eH, 0eH, 00H ; `CDispMain::IHDeleteSection'::`2'::parms
_DATA	ENDS
;	COMDAT ?parms@?1??IHAddSection@CDispMain@@QAEFPBD00@Z@4PAEA
_DATA	SEGMENT
?parms@?1??IHAddSection@CDispMain@@QAEFPBD00@Z@4PAEA DB 0eH, 0eH, 0eH, 00H ; `CDispMain::IHAddSection'::`2'::parms
_DATA	ENDS
;	COMDAT ?parms@?1??IHGetSectionNames@CDispMain@@QAE?AV?$CStringT@DV?$StrTraitMFC_DLL@DV?$ChTraitsCRT@D@ATL@@@@@ATL@@PBD0@Z@4PAEA
_DATA	SEGMENT
?parms@?1??IHGetSectionNames@CDispMain@@QAE?AV?$CStringT@DV?$StrTraitMFC_DLL@DV?$ChTraitsCRT@D@ATL@@@@@ATL@@PBD0@Z@4PAEA DB 0eH
	DB	0eH, 00H					; `CDispMain::IHGetSectionNames'::`2'::parms
_DATA	ENDS
;	COMDAT ?parms@?1??IHGetSectionData@CDispMain@@QAE?AV?$CStringT@DV?$StrTraitMFC_DLL@DV?$ChTraitsCRT@D@ATL@@@@@ATL@@PBD0000@Z@4PAEA
_DATA	SEGMENT
?parms@?1??IHGetSectionData@CDispMain@@QAE?AV?$CStringT@DV?$StrTraitMFC_DLL@DV?$ChTraitsCRT@D@ATL@@@@@ATL@@PBD0000@Z@4PAEA DB 0eH
	DB	0eH, 0eH, 0eH, 0eH, 00H			; `CDispMain::IHGetSectionData'::`2'::parms
_DATA	ENDS
;	COMDAT ?parms@?1??IHWriteSectionData@CDispMain@@QAEFPBD0000@Z@4PAEA
_DATA	SEGMENT
?parms@?1??IHWriteSectionData@CDispMain@@QAEFPBD0000@Z@4PAEA DB 0eH, 0eH, 0eH
	DB	0eH, 0eH, 00H				; `CDispMain::IHWriteSectionData'::`2'::parms
_DATA	ENDS
;	COMDAT ?parms@?1??SetOpenMapStyle2@CDispMain@@QAEXFFFFF@Z@4PAEA
_DATA	SEGMENT
?parms@?1??SetOpenMapStyle2@CDispMain@@QAEXFFFFF@Z@4PAEA DB 02H, 02H, 02H
	DB	02H, 02H, 00H				; `CDispMain::SetOpenMapStyle2'::`2'::parms
_DATA	ENDS
;	COMDAT ?parms@?1??GetMasterData@CDispMain@@QAE?AV?$CStringT@DV?$StrTraitMFC_DLL@DV?$ChTraitsCRT@D@ATL@@@@@ATL@@F@Z@4PAEA
_DATA	SEGMENT
?parms@?1??GetMasterData@CDispMain@@QAE?AV?$CStringT@DV?$StrTraitMFC_DLL@DV?$ChTraitsCRT@D@ATL@@@@@ATL@@F@Z@4PAEA DB 02H
	DB	00H						; `CDispMain::GetMasterData'::`2'::parms
_DATA	ENDS
;	COMDAT ?parms@?1??GetBatchAcctInfo@CDispMain@@QAE?AV?$CStringT@DV?$StrTraitMFC_DLL@DV?$ChTraitsCRT@D@ATL@@@@@ATL@@PBD@Z@4PAEA
_DATA	SEGMENT
?parms@?1??GetBatchAcctInfo@CDispMain@@QAE?AV?$CStringT@DV?$StrTraitMFC_DLL@DV?$ChTraitsCRT@D@ATL@@@@@ATL@@PBD@Z@4PAEA DB 0eH
	DB	00H						; `CDispMain::GetBatchAcctInfo'::`2'::parms
_DATA	ENDS
;	COMDAT ?parms@?1??SetBatchAcctInfo@CDispMain@@QAEXPBD@Z@4PAEA
_DATA	SEGMENT
?parms@?1??SetBatchAcctInfo@CDispMain@@QAEXPBD@Z@4PAEA DB 0eH, 00H ; `CDispMain::SetBatchAcctInfo'::`2'::parms
_DATA	ENDS
;	COMDAT ?parms@?1??GetAcctPasswd@CDispMain@@QAE?AV?$CStringT@DV?$StrTraitMFC_DLL@DV?$ChTraitsCRT@D@ATL@@@@@ATL@@PBD@Z@4PAEA
_DATA	SEGMENT
?parms@?1??GetAcctPasswd@CDispMain@@QAE?AV?$CStringT@DV?$StrTraitMFC_DLL@DV?$ChTraitsCRT@D@ATL@@@@@ATL@@PBD@Z@4PAEA DB 0eH
	DB	00H						; `CDispMain::GetAcctPasswd'::`2'::parms
_DATA	ENDS
;	COMDAT ?parms@?1??SetAcctPasswd@CDispMain@@QAEXPBD0@Z@4PAEA
_DATA	SEGMENT
?parms@?1??SetAcctPasswd@CDispMain@@QAEXPBD0@Z@4PAEA DB 0eH, 0eH, 00H ; `CDispMain::SetAcctPasswd'::`2'::parms
_DATA	ENDS
;	COMDAT ?parms@?1??GetGwanCodeOneGroup@CDispMain@@QAE?AV?$CStringT@DV?$StrTraitMFC_DLL@DV?$ChTraitsCRT@D@ATL@@@@@ATL@@PBD0@Z@4PAEA
_DATA	SEGMENT
?parms@?1??GetGwanCodeOneGroup@CDispMain@@QAE?AV?$CStringT@DV?$StrTraitMFC_DLL@DV?$ChTraitsCRT@D@ATL@@@@@ATL@@PBD0@Z@4PAEA DB 0eH
	DB	0eH, 00H					; `CDispMain::GetGwanCodeOneGroup'::`2'::parms
_DATA	ENDS
;	COMDAT ?parms@?1??NotifyEvent@CDispMain@@QAEXPBD0@Z@4PAEA
_DATA	SEGMENT
?parms@?1??NotifyEvent@CDispMain@@QAEXPBD0@Z@4PAEA DB 0eH, 0eH, 00H ; `CDispMain::NotifyEvent'::`2'::parms
_DATA	ENDS
;	COMDAT ?parms@?1??ShowDialog@CDispMain@@QAEFPBDFF@Z@4PAEA
_DATA	SEGMENT
?parms@?1??ShowDialog@CDispMain@@QAEFPBDFF@Z@4PAEA DB 0eH, 02H, 02H, 00H ; `CDispMain::ShowDialog'::`2'::parms
_DATA	ENDS
;	COMDAT ?parms@?1??GetGwanCode@CDispMain@@QAE?AV?$CStringT@DV?$StrTraitMFC_DLL@DV?$ChTraitsCRT@D@ATL@@@@@ATL@@PBD@Z@4PAEA
_DATA	SEGMENT
?parms@?1??GetGwanCode@CDispMain@@QAE?AV?$CStringT@DV?$StrTraitMFC_DLL@DV?$ChTraitsCRT@D@ATL@@@@@ATL@@PBD@Z@4PAEA DB 0eH
	DB	00H						; `CDispMain::GetGwanCode'::`2'::parms
_DATA	ENDS
;	COMDAT ?parms@?1??SetOpenMapStyle@CDispMain@@QAEXFFFF@Z@4PAEA
_DATA	SEGMENT
?parms@?1??SetOpenMapStyle@CDispMain@@QAEXFFFF@Z@4PAEA DB 02H, 02H, 02H, 02H
	DB	00H						; `CDispMain::SetOpenMapStyle'::`2'::parms
_DATA	ENDS
;	COMDAT ?parms@?1??CloseMain@CDispMain@@QAEXF@Z@4PAEA
_DATA	SEGMENT
?parms@?1??CloseMain@CDispMain@@QAEXF@Z@4PAEA DB 02H, 00H ; `CDispMain::CloseMain'::`2'::parms
_DATA	ENDS
;	COMDAT ?parms@?1??RemoveGlobalData@CDispMain@@QAEHPBD0@Z@4PAEA
_DATA	SEGMENT
?parms@?1??RemoveGlobalData@CDispMain@@QAEHPBD0@Z@4PAEA DB 0eH, 0eH, 00H ; `CDispMain::RemoveGlobalData'::`2'::parms
_DATA	ENDS
;	COMDAT ?parms@?1??GetFrameVariable@CDispMain@@QAE?AV?$CStringT@DV?$StrTraitMFC_DLL@DV?$ChTraitsCRT@D@ATL@@@@@ATL@@PBD@Z@4PAEA
_DATA	SEGMENT
?parms@?1??GetFrameVariable@CDispMain@@QAE?AV?$CStringT@DV?$StrTraitMFC_DLL@DV?$ChTraitsCRT@D@ATL@@@@@ATL@@PBD@Z@4PAEA DB 0eH
	DB	00H						; `CDispMain::GetFrameVariable'::`2'::parms
_DATA	ENDS
;	COMDAT ?parms@?1??SetFrameVariable@CDispMain@@QAEXPBD0@Z@4PAEA
_DATA	SEGMENT
?parms@?1??SetFrameVariable@CDispMain@@QAEXPBD0@Z@4PAEA DB 0eH, 0eH, 00H ; `CDispMain::SetFrameVariable'::`2'::parms
_DATA	ENDS
;	COMDAT ?parms@?1??GetGShareData@CDispMain@@QAE?AV?$CStringT@DV?$StrTraitMFC_DLL@DV?$ChTraitsCRT@D@ATL@@@@@ATL@@PBD@Z@4PAEA
_DATA	SEGMENT
?parms@?1??GetGShareData@CDispMain@@QAE?AV?$CStringT@DV?$StrTraitMFC_DLL@DV?$ChTraitsCRT@D@ATL@@@@@ATL@@PBD@Z@4PAEA DB 0eH
	DB	00H						; `CDispMain::GetGShareData'::`2'::parms
_DATA	ENDS
;	COMDAT ?parms@?1??SetGShareData@CDispMain@@QAEXPBD0F@Z@4PAEA
_DATA	SEGMENT
?parms@?1??SetGShareData@CDispMain@@QAEXPBD0F@Z@4PAEA DB 0eH, 0eH, 02H, 00H ; `CDispMain::SetGShareData'::`2'::parms
_DATA	ENDS
;	COMDAT ?parms@?1??ChangeTabProperty@CDispMain@@QAEHFFFF@Z@4PAEA
_DATA	SEGMENT
?parms@?1??ChangeTabProperty@CDispMain@@QAEHFFFF@Z@4PAEA DB 02H, 02H, 02H
	DB	02H, 00H					; `CDispMain::ChangeTabProperty'::`2'::parms
_DATA	ENDS
;	COMDAT ?parms@?1??MsgBox@CDispMain@@QAEFPBD0F@Z@4PAEA
_DATA	SEGMENT
?parms@?1??MsgBox@CDispMain@@QAEFPBD0F@Z@4PAEA DB 0eH, 0eH, 02H, 00H ; `CDispMain::MsgBox'::`2'::parms
_DATA	ENDS
;	COMDAT ?parms@?1??GetUserInfo@CDispMain@@QAE?AV?$CStringT@DV?$StrTraitMFC_DLL@DV?$ChTraitsCRT@D@ATL@@@@@ATL@@F@Z@4PAEA
_DATA	SEGMENT
?parms@?1??GetUserInfo@CDispMain@@QAE?AV?$CStringT@DV?$StrTraitMFC_DLL@DV?$ChTraitsCRT@D@ATL@@@@@ATL@@F@Z@4PAEA DB 02H
	DB	00H						; `CDispMain::GetUserInfo'::`2'::parms
_DATA	ENDS
;	COMDAT ?parms@?1??GetMapInfo@CDispMain@@QAE?AV?$CStringT@DV?$StrTraitMFC_DLL@DV?$ChTraitsCRT@D@ATL@@@@@ATL@@F@Z@4PAEA
_DATA	SEGMENT
?parms@?1??GetMapInfo@CDispMain@@QAE?AV?$CStringT@DV?$StrTraitMFC_DLL@DV?$ChTraitsCRT@D@ATL@@@@@ATL@@F@Z@4PAEA DB 02H
	DB	00H						; `CDispMain::GetMapInfo'::`2'::parms
_DATA	ENDS
;	COMDAT xdata$x
xdata$x	SEGMENT
__unwindtable$?GetFrameSize@CDispMain@@QAE?AV?$CStringT@DV?$StrTraitMFC_DLL@DV?$ChTraitsCRT@D@ATL@@@@@ATL@@F@Z DD 0ffffffffH
	DD	FLAT:__unwindfunclet$?GetFrameSize@CDispMain@@QAE?AV?$CStringT@DV?$StrTraitMFC_DLL@DV?$ChTraitsCRT@D@ATL@@@@@ATL@@F@Z$0
__ehfuncinfo$?GetFrameSize@CDispMain@@QAE?AV?$CStringT@DV?$StrTraitMFC_DLL@DV?$ChTraitsCRT@D@ATL@@@@@ATL@@F@Z DD 019930522H
	DD	01H
	DD	FLAT:__unwindtable$?GetFrameSize@CDispMain@@QAE?AV?$CStringT@DV?$StrTraitMFC_DLL@DV?$ChTraitsCRT@D@ATL@@@@@ATL@@F@Z
	DD	2 DUP(00H)
	DD	2 DUP(00H)
	DD	00H
	DD	01H
xdata$x	ENDS
;	COMDAT xdata$x
xdata$x	SEGMENT
__unwindtable$?IHGetSectionNames@CDispMain@@QAE?AV?$CStringT@DV?$StrTraitMFC_DLL@DV?$ChTraitsCRT@D@ATL@@@@@ATL@@PBD0@Z DD 0ffffffffH
	DD	FLAT:__unwindfunclet$?IHGetSectionNames@CDispMain@@QAE?AV?$CStringT@DV?$StrTraitMFC_DLL@DV?$ChTraitsCRT@D@ATL@@@@@ATL@@PBD0@Z$0
__ehfuncinfo$?IHGetSectionNames@CDispMain@@QAE?AV?$CStringT@DV?$StrTraitMFC_DLL@DV?$ChTraitsCRT@D@ATL@@@@@ATL@@PBD0@Z DD 019930522H
	DD	01H
	DD	FLAT:__unwindtable$?IHGetSectionNames@CDispMain@@QAE?AV?$CStringT@DV?$StrTraitMFC_DLL@DV?$ChTraitsCRT@D@ATL@@@@@ATL@@PBD0@Z
	DD	2 DUP(00H)
	DD	2 DUP(00H)
	DD	00H
	DD	01H
xdata$x	ENDS
;	COMDAT xdata$x
xdata$x	SEGMENT
__unwindtable$?IHGetSectionData@CDispMain@@QAE?AV?$CStringT@DV?$StrTraitMFC_DLL@DV?$ChTraitsCRT@D@ATL@@@@@ATL@@PBD0000@Z DD 0ffffffffH
	DD	FLAT:__unwindfunclet$?IHGetSectionData@CDispMain@@QAE?AV?$CStringT@DV?$StrTraitMFC_DLL@DV?$ChTraitsCRT@D@ATL@@@@@ATL@@PBD0000@Z$0
__ehfuncinfo$?IHGetSectionData@CDispMain@@QAE?AV?$CStringT@DV?$StrTraitMFC_DLL@DV?$ChTraitsCRT@D@ATL@@@@@ATL@@PBD0000@Z DD 019930522H
	DD	01H
	DD	FLAT:__unwindtable$?IHGetSectionData@CDispMain@@QAE?AV?$CStringT@DV?$StrTraitMFC_DLL@DV?$ChTraitsCRT@D@ATL@@@@@ATL@@PBD0000@Z
	DD	2 DUP(00H)
	DD	2 DUP(00H)
	DD	00H
	DD	01H
xdata$x	ENDS
;	COMDAT xdata$x
xdata$x	SEGMENT
__unwindtable$?GetMasterData@CDispMain@@QAE?AV?$CStringT@DV?$StrTraitMFC_DLL@DV?$ChTraitsCRT@D@ATL@@@@@ATL@@F@Z DD 0ffffffffH
	DD	FLAT:__unwindfunclet$?GetMasterData@CDispMain@@QAE?AV?$CStringT@DV?$StrTraitMFC_DLL@DV?$ChTraitsCRT@D@ATL@@@@@ATL@@F@Z$0
__ehfuncinfo$?GetMasterData@CDispMain@@QAE?AV?$CStringT@DV?$StrTraitMFC_DLL@DV?$ChTraitsCRT@D@ATL@@@@@ATL@@F@Z DD 019930522H
	DD	01H
	DD	FLAT:__unwindtable$?GetMasterData@CDispMain@@QAE?AV?$CStringT@DV?$StrTraitMFC_DLL@DV?$ChTraitsCRT@D@ATL@@@@@ATL@@F@Z
	DD	2 DUP(00H)
	DD	2 DUP(00H)
	DD	00H
	DD	01H
xdata$x	ENDS
;	COMDAT xdata$x
xdata$x	SEGMENT
__unwindtable$?GetBatchAcctInfo@CDispMain@@QAE?AV?$CStringT@DV?$StrTraitMFC_DLL@DV?$ChTraitsCRT@D@ATL@@@@@ATL@@PBD@Z DD 0ffffffffH
	DD	FLAT:__unwindfunclet$?GetBatchAcctInfo@CDispMain@@QAE?AV?$CStringT@DV?$StrTraitMFC_DLL@DV?$ChTraitsCRT@D@ATL@@@@@ATL@@PBD@Z$0
__ehfuncinfo$?GetBatchAcctInfo@CDispMain@@QAE?AV?$CStringT@DV?$StrTraitMFC_DLL@DV?$ChTraitsCRT@D@ATL@@@@@ATL@@PBD@Z DD 019930522H
	DD	01H
	DD	FLAT:__unwindtable$?GetBatchAcctInfo@CDispMain@@QAE?AV?$CStringT@DV?$StrTraitMFC_DLL@DV?$ChTraitsCRT@D@ATL@@@@@ATL@@PBD@Z
	DD	2 DUP(00H)
	DD	2 DUP(00H)
	DD	00H
	DD	01H
xdata$x	ENDS
;	COMDAT xdata$x
xdata$x	SEGMENT
__unwindtable$?GetAcctPasswd@CDispMain@@QAE?AV?$CStringT@DV?$StrTraitMFC_DLL@DV?$ChTraitsCRT@D@ATL@@@@@ATL@@PBD@Z DD 0ffffffffH
	DD	FLAT:__unwindfunclet$?GetAcctPasswd@CDispMain@@QAE?AV?$CStringT@DV?$StrTraitMFC_DLL@DV?$ChTraitsCRT@D@ATL@@@@@ATL@@PBD@Z$0
__ehfuncinfo$?GetAcctPasswd@CDispMain@@QAE?AV?$CStringT@DV?$StrTraitMFC_DLL@DV?$ChTraitsCRT@D@ATL@@@@@ATL@@PBD@Z DD 019930522H
	DD	01H
	DD	FLAT:__unwindtable$?GetAcctPasswd@CDispMain@@QAE?AV?$CStringT@DV?$StrTraitMFC_DLL@DV?$ChTraitsCRT@D@ATL@@@@@ATL@@PBD@Z
	DD	2 DUP(00H)
	DD	2 DUP(00H)
	DD	00H
	DD	01H
xdata$x	ENDS
;	COMDAT xdata$x
xdata$x	SEGMENT
__unwindtable$?GetGwanCodeOneGroup@CDispMain@@QAE?AV?$CStringT@DV?$StrTraitMFC_DLL@DV?$ChTraitsCRT@D@ATL@@@@@ATL@@PBD0@Z DD 0ffffffffH
	DD	FLAT:__unwindfunclet$?GetGwanCodeOneGroup@CDispMain@@QAE?AV?$CStringT@DV?$StrTraitMFC_DLL@DV?$ChTraitsCRT@D@ATL@@@@@ATL@@PBD0@Z$0
__ehfuncinfo$?GetGwanCodeOneGroup@CDispMain@@QAE?AV?$CStringT@DV?$StrTraitMFC_DLL@DV?$ChTraitsCRT@D@ATL@@@@@ATL@@PBD0@Z DD 019930522H
	DD	01H
	DD	FLAT:__unwindtable$?GetGwanCodeOneGroup@CDispMain@@QAE?AV?$CStringT@DV?$StrTraitMFC_DLL@DV?$ChTraitsCRT@D@ATL@@@@@ATL@@PBD0@Z
	DD	2 DUP(00H)
	DD	2 DUP(00H)
	DD	00H
	DD	01H
xdata$x	ENDS
;	COMDAT xdata$x
xdata$x	SEGMENT
__unwindtable$?GetGwanCode@CDispMain@@QAE?AV?$CStringT@DV?$StrTraitMFC_DLL@DV?$ChTraitsCRT@D@ATL@@@@@ATL@@PBD@Z DD 0ffffffffH
	DD	FLAT:__unwindfunclet$?GetGwanCode@CDispMain@@QAE?AV?$CStringT@DV?$StrTraitMFC_DLL@DV?$ChTraitsCRT@D@ATL@@@@@ATL@@PBD@Z$0
__ehfuncinfo$?GetGwanCode@CDispMain@@QAE?AV?$CStringT@DV?$StrTraitMFC_DLL@DV?$ChTraitsCRT@D@ATL@@@@@ATL@@PBD@Z DD 019930522H
	DD	01H
	DD	FLAT:__unwindtable$?GetGwanCode@CDispMain@@QAE?AV?$CStringT@DV?$StrTraitMFC_DLL@DV?$ChTraitsCRT@D@ATL@@@@@ATL@@PBD@Z
	DD	2 DUP(00H)
	DD	2 DUP(00H)
	DD	00H
	DD	01H
xdata$x	ENDS
;	COMDAT xdata$x
xdata$x	SEGMENT
__unwindtable$?GetGwanList@CDispMain@@QAE?AV?$CStringT@DV?$StrTraitMFC_DLL@DV?$ChTraitsCRT@D@ATL@@@@@ATL@@XZ DD 0ffffffffH
	DD	FLAT:__unwindfunclet$?GetGwanList@CDispMain@@QAE?AV?$CStringT@DV?$StrTraitMFC_DLL@DV?$ChTraitsCRT@D@ATL@@@@@ATL@@XZ$0
__ehfuncinfo$?GetGwanList@CDispMain@@QAE?AV?$CStringT@DV?$StrTraitMFC_DLL@DV?$ChTraitsCRT@D@ATL@@@@@ATL@@XZ DD 019930522H
	DD	01H
	DD	FLAT:__unwindtable$?GetGwanList@CDispMain@@QAE?AV?$CStringT@DV?$StrTraitMFC_DLL@DV?$ChTraitsCRT@D@ATL@@@@@ATL@@XZ
	DD	2 DUP(00H)
	DD	2 DUP(00H)
	DD	00H
	DD	01H
xdata$x	ENDS
;	COMDAT xdata$x
xdata$x	SEGMENT
__unwindtable$?GetAcctList@CDispMain@@QAE?AV?$CStringT@DV?$StrTraitMFC_DLL@DV?$ChTraitsCRT@D@ATL@@@@@ATL@@XZ DD 0ffffffffH
	DD	FLAT:__unwindfunclet$?GetAcctList@CDispMain@@QAE?AV?$CStringT@DV?$StrTraitMFC_DLL@DV?$ChTraitsCRT@D@ATL@@@@@ATL@@XZ$0
__ehfuncinfo$?GetAcctList@CDispMain@@QAE?AV?$CStringT@DV?$StrTraitMFC_DLL@DV?$ChTraitsCRT@D@ATL@@@@@ATL@@XZ DD 019930522H
	DD	01H
	DD	FLAT:__unwindtable$?GetAcctList@CDispMain@@QAE?AV?$CStringT@DV?$StrTraitMFC_DLL@DV?$ChTraitsCRT@D@ATL@@@@@ATL@@XZ
	DD	2 DUP(00H)
	DD	2 DUP(00H)
	DD	00H
	DD	01H
xdata$x	ENDS
;	COMDAT xdata$x
xdata$x	SEGMENT
__unwindtable$?GetFrameVariable@CDispMain@@QAE?AV?$CStringT@DV?$StrTraitMFC_DLL@DV?$ChTraitsCRT@D@ATL@@@@@ATL@@PBD@Z DD 0ffffffffH
	DD	FLAT:__unwindfunclet$?GetFrameVariable@CDispMain@@QAE?AV?$CStringT@DV?$StrTraitMFC_DLL@DV?$ChTraitsCRT@D@ATL@@@@@ATL@@PBD@Z$0
__ehfuncinfo$?GetFrameVariable@CDispMain@@QAE?AV?$CStringT@DV?$StrTraitMFC_DLL@DV?$ChTraitsCRT@D@ATL@@@@@ATL@@PBD@Z DD 019930522H
	DD	01H
	DD	FLAT:__unwindtable$?GetFrameVariable@CDispMain@@QAE?AV?$CStringT@DV?$StrTraitMFC_DLL@DV?$ChTraitsCRT@D@ATL@@@@@ATL@@PBD@Z
	DD	2 DUP(00H)
	DD	2 DUP(00H)
	DD	00H
	DD	01H
xdata$x	ENDS
;	COMDAT xdata$x
xdata$x	SEGMENT
__unwindtable$?GetGShareData@CDispMain@@QAE?AV?$CStringT@DV?$StrTraitMFC_DLL@DV?$ChTraitsCRT@D@ATL@@@@@ATL@@PBD@Z DD 0ffffffffH
	DD	FLAT:__unwindfunclet$?GetGShareData@CDispMain@@QAE?AV?$CStringT@DV?$StrTraitMFC_DLL@DV?$ChTraitsCRT@D@ATL@@@@@ATL@@PBD@Z$0
__ehfuncinfo$?GetGShareData@CDispMain@@QAE?AV?$CStringT@DV?$StrTraitMFC_DLL@DV?$ChTraitsCRT@D@ATL@@@@@ATL@@PBD@Z DD 019930522H
	DD	01H
	DD	FLAT:__unwindtable$?GetGShareData@CDispMain@@QAE?AV?$CStringT@DV?$StrTraitMFC_DLL@DV?$ChTraitsCRT@D@ATL@@@@@ATL@@PBD@Z
	DD	2 DUP(00H)
	DD	2 DUP(00H)
	DD	00H
	DD	01H
xdata$x	ENDS
;	COMDAT xdata$x
xdata$x	SEGMENT
__unwindtable$?GetUserInfo@CDispMain@@QAE?AV?$CStringT@DV?$StrTraitMFC_DLL@DV?$ChTraitsCRT@D@ATL@@@@@ATL@@F@Z DD 0ffffffffH
	DD	FLAT:__unwindfunclet$?GetUserInfo@CDispMain@@QAE?AV?$CStringT@DV?$StrTraitMFC_DLL@DV?$ChTraitsCRT@D@ATL@@@@@ATL@@F@Z$0
__ehfuncinfo$?GetUserInfo@CDispMain@@QAE?AV?$CStringT@DV?$StrTraitMFC_DLL@DV?$ChTraitsCRT@D@ATL@@@@@ATL@@F@Z DD 019930522H
	DD	01H
	DD	FLAT:__unwindtable$?GetUserInfo@CDispMain@@QAE?AV?$CStringT@DV?$StrTraitMFC_DLL@DV?$ChTraitsCRT@D@ATL@@@@@ATL@@F@Z
	DD	2 DUP(00H)
	DD	2 DUP(00H)
	DD	00H
	DD	01H
xdata$x	ENDS
;	COMDAT xdata$x
xdata$x	SEGMENT
__unwindtable$?GetMapInfo@CDispMain@@QAE?AV?$CStringT@DV?$StrTraitMFC_DLL@DV?$ChTraitsCRT@D@ATL@@@@@ATL@@F@Z DD 0ffffffffH
	DD	FLAT:__unwindfunclet$?GetMapInfo@CDispMain@@QAE?AV?$CStringT@DV?$StrTraitMFC_DLL@DV?$ChTraitsCRT@D@ATL@@@@@ATL@@F@Z$0
__ehfuncinfo$?GetMapInfo@CDispMain@@QAE?AV?$CStringT@DV?$StrTraitMFC_DLL@DV?$ChTraitsCRT@D@ATL@@@@@ATL@@F@Z DD 019930522H
	DD	01H
	DD	FLAT:__unwindtable$?GetMapInfo@CDispMain@@QAE?AV?$CStringT@DV?$StrTraitMFC_DLL@DV?$ChTraitsCRT@D@ATL@@@@@ATL@@F@Z
	DD	2 DUP(00H)
	DD	2 DUP(00H)
	DD	00H
	DD	01H
xdata$x	ENDS
;	COMDAT xdata$x
xdata$x	SEGMENT
__ehfuncinfo$??1COleDispatchDriver@@QAE@XZ DD 019930522H
	DD	00H
	DD	00H
	DD	2 DUP(00H)
	DD	2 DUP(00H)
	DD	00H
	DD	05H
xdata$x	ENDS
; Function compile flags: /Ogtp
; File D:\git\src\IBK\IBK_DRFN\ProjSrc\SrcDrfn\inc\DispMain.cpp
;	COMDAT ?ReportCall@CDispMain@@QAEXPBDJ0@Z
_TEXT	SEGMENT
_szFile$ = 8						; size = 4
_lStreamID$ = 12					; size = 4
_szData$ = 16						; size = 4
?ReportCall@CDispMain@@QAEXPBDJ0@Z PROC			; CDispMain::ReportCall, COMDAT
; _this$ = ecx

; 361  : {

  00000	55		 push	 ebp
  00001	8b ec		 mov	 ebp, esp

; 362  : 	static BYTE parms[] =
; 363  : 		VTS_BSTR VTS_I4 VTS_BSTR;
; 364  : 	InvokeHelper(m_pdID[IIx_ReportCall], DISPATCH_METHOD, VT_EMPTY, NULL, parms,

  00003	ff 75 10	 push	 DWORD PTR _szData$[ebp]
  00006	8b 41 0c	 mov	 eax, DWORD PTR [ecx+12]
  00009	ff 75 0c	 push	 DWORD PTR _lStreamID$[ebp]
  0000c	ff 75 08	 push	 DWORD PTR _szFile$[ebp]
  0000f	68 00 00 00 00	 push	 OFFSET ?parms@?1??ReportCall@CDispMain@@QAEXPBDJ0@Z@4PAEA
  00014	6a 00		 push	 0
  00016	6a 00		 push	 0
  00018	6a 01		 push	 1
  0001a	ff b0 88 00 00
	00		 push	 DWORD PTR [eax+136]
  00020	51		 push	 ecx
  00021	e8 00 00 00 00	 call	 ?InvokeHelper@COleDispatchDriver@@QAAXJGGPAXPBEZZ ; COleDispatchDriver::InvokeHelper
  00026	83 c4 24	 add	 esp, 36			; 00000024H

; 365  : 		 szFile, lStreamID, szData);
; 366  : }

  00029	5d		 pop	 ebp
  0002a	c2 0c 00	 ret	 12			; 0000000cH
?ReportCall@CDispMain@@QAEXPBDJ0@Z ENDP			; CDispMain::ReportCall
_TEXT	ENDS
; Function compile flags: /Ogtp
; File D:\git\src\IBK\IBK_DRFN\ProjSrc\SrcDrfn\inc\DispMain.cpp
;	COMDAT ?GetFrameSize@CDispMain@@QAE?AV?$CStringT@DV?$StrTraitMFC_DLL@DV?$ChTraitsCRT@D@ATL@@@@@ATL@@F@Z
_TEXT	SEGMENT
$T2 = -16						; size = 4
__$EHRec$ = -12						; size = 12
___$ReturnUdt$ = 8					; size = 4
_nFlag$ = 12						; size = 2
?GetFrameSize@CDispMain@@QAE?AV?$CStringT@DV?$StrTraitMFC_DLL@DV?$ChTraitsCRT@D@ATL@@@@@ATL@@F@Z PROC ; CDispMain::GetFrameSize, COMDAT
; _this$ = ecx

; 351  : {

  00000	55		 push	 ebp
  00001	8b ec		 mov	 ebp, esp
  00003	6a ff		 push	 -1
  00005	68 00 00 00 00	 push	 __ehhandler$?GetFrameSize@CDispMain@@QAE?AV?$CStringT@DV?$StrTraitMFC_DLL@DV?$ChTraitsCRT@D@ATL@@@@@ATL@@F@Z
  0000a	64 a1 00 00 00
	00		 mov	 eax, DWORD PTR fs:0
  00010	50		 push	 eax
  00011	51		 push	 ecx
  00012	56		 push	 esi
  00013	57		 push	 edi
  00014	a1 00 00 00 00	 mov	 eax, DWORD PTR ___security_cookie
  00019	33 c5		 xor	 eax, ebp
  0001b	50		 push	 eax
  0001c	8d 45 f4	 lea	 eax, DWORD PTR __$EHRec$[ebp]
  0001f	64 a3 00 00 00
	00		 mov	 DWORD PTR fs:0, eax
  00025	8b f1		 mov	 esi, ecx
  00027	c7 45 f0 00 00
	00 00		 mov	 DWORD PTR $T2[ebp], 0

; 352  : 	CString result;

  0002e	8b 7d 08	 mov	 edi, DWORD PTR ___$ReturnUdt$[ebp]
  00031	8b cf		 mov	 ecx, edi
  00033	ff 15 00 00 00
	00		 call	 DWORD PTR __imp_??0?$CStringT@DV?$StrTraitMFC_DLL@DV?$ChTraitsCRT@D@ATL@@@@@ATL@@QAE@XZ

; 353  : 	static BYTE parms[] =
; 354  : 		VTS_I2;
; 355  : 	InvokeHelper(m_pdID[IIx_GetFrameSize], DISPATCH_METHOD, VT_BSTR, (void*)&result, parms,
; 356  : 		nFlag);
; 357  : 	return result;

  00039	0f bf 45 0c	 movsx	 eax, WORD PTR _nFlag$[ebp]
  0003d	8b 4e 0c	 mov	 ecx, DWORD PTR [esi+12]
  00040	50		 push	 eax
  00041	68 00 00 00 00	 push	 OFFSET ?parms@?1??GetFrameSize@CDispMain@@QAE?AV?$CStringT@DV?$StrTraitMFC_DLL@DV?$ChTraitsCRT@D@ATL@@@@@ATL@@F@Z@4PAEA
  00046	57		 push	 edi
  00047	6a 08		 push	 8
  00049	6a 01		 push	 1
  0004b	ff b1 84 00 00
	00		 push	 DWORD PTR [ecx+132]
  00051	c7 45 fc 00 00
	00 00		 mov	 DWORD PTR __$EHRec$[ebp+8], 0
  00058	56		 push	 esi
  00059	c7 45 f0 01 00
	00 00		 mov	 DWORD PTR $T2[ebp], 1
  00060	e8 00 00 00 00	 call	 ?InvokeHelper@COleDispatchDriver@@QAAXJGGPAXPBEZZ ; COleDispatchDriver::InvokeHelper
  00065	83 c4 1c	 add	 esp, 28			; 0000001cH
  00068	8b c7		 mov	 eax, edi

; 358  : }

  0006a	8b 4d f4	 mov	 ecx, DWORD PTR __$EHRec$[ebp]
  0006d	64 89 0d 00 00
	00 00		 mov	 DWORD PTR fs:0, ecx
  00074	59		 pop	 ecx
  00075	5f		 pop	 edi
  00076	5e		 pop	 esi
  00077	8b e5		 mov	 esp, ebp
  00079	5d		 pop	 ebp
  0007a	c2 08 00	 ret	 8
_TEXT	ENDS
;	COMDAT text$x
text$x	SEGMENT
__unwindfunclet$?GetFrameSize@CDispMain@@QAE?AV?$CStringT@DV?$StrTraitMFC_DLL@DV?$ChTraitsCRT@D@ATL@@@@@ATL@@F@Z$0:
  00000	8b 45 f0	 mov	 eax, DWORD PTR $T2[ebp]
  00003	83 e0 01	 and	 eax, 1
  00006	0f 84 0d 00 00
	00		 je	 $LN4@GetFrameSi
  0000c	83 65 f0 fe	 and	 DWORD PTR $T2[ebp], -2	; fffffffeH
  00010	8b 4d 08	 mov	 ecx, DWORD PTR ___$ReturnUdt$[ebp]
  00013	ff 25 00 00 00
	00		 jmp	 DWORD PTR __imp_??1?$CStringT@DV?$StrTraitMFC_DLL@DV?$ChTraitsCRT@D@ATL@@@@@ATL@@QAE@XZ
$LN4@GetFrameSi:
  00019	c3		 ret	 0
  0001a	cc		 int	 3
  0001b	cc		 int	 3
  0001c	cc		 int	 3
  0001d	cc		 int	 3
  0001e	cc		 int	 3
__ehhandler$?GetFrameSize@CDispMain@@QAE?AV?$CStringT@DV?$StrTraitMFC_DLL@DV?$ChTraitsCRT@D@ATL@@@@@ATL@@F@Z:
  0001f	90		 npad	 1
  00020	90		 npad	 1
  00021	8b 54 24 08	 mov	 edx, DWORD PTR [esp+8]
  00025	8d 42 0c	 lea	 eax, DWORD PTR [edx+12]
  00028	8b 4a f0	 mov	 ecx, DWORD PTR [edx-16]
  0002b	33 c8		 xor	 ecx, eax
  0002d	e8 00 00 00 00	 call	 @__security_check_cookie@4
  00032	b8 00 00 00 00	 mov	 eax, OFFSET __ehfuncinfo$?GetFrameSize@CDispMain@@QAE?AV?$CStringT@DV?$StrTraitMFC_DLL@DV?$ChTraitsCRT@D@ATL@@@@@ATL@@F@Z
  00037	e9 00 00 00 00	 jmp	 ___CxxFrameHandler3
text$x	ENDS
?GetFrameSize@CDispMain@@QAE?AV?$CStringT@DV?$StrTraitMFC_DLL@DV?$ChTraitsCRT@D@ATL@@@@@ATL@@F@Z ENDP ; CDispMain::GetFrameSize
; Function compile flags: /Ogtp
; File D:\git\src\IBK\IBK_DRFN\ProjSrc\SrcDrfn\inc\DispMain.cpp
;	COMDAT ?ChangeFrameSize@CDispMain@@QAEXFFF@Z
_TEXT	SEGMENT
_nFlag$ = 8						; size = 2
_nParam1$ = 12						; size = 2
_nParam2$ = 16						; size = 2
?ChangeFrameSize@CDispMain@@QAEXFFF@Z PROC		; CDispMain::ChangeFrameSize, COMDAT
; _this$ = ecx

; 343  : {

  00000	55		 push	 ebp
  00001	8b ec		 mov	 ebp, esp

; 344  : 	static BYTE parms[] =
; 345  : 		VTS_I2 VTS_I2 VTS_I2;
; 346  : 	InvokeHelper(m_pdID[IIx_ChangeFrameSize], DISPATCH_METHOD, VT_EMPTY, NULL, parms,

  00003	0f bf 45 10	 movsx	 eax, WORD PTR _nParam2$[ebp]
  00007	50		 push	 eax
  00008	0f bf 45 0c	 movsx	 eax, WORD PTR _nParam1$[ebp]
  0000c	50		 push	 eax
  0000d	0f bf 45 08	 movsx	 eax, WORD PTR _nFlag$[ebp]
  00011	50		 push	 eax
  00012	8b 41 0c	 mov	 eax, DWORD PTR [ecx+12]
  00015	68 00 00 00 00	 push	 OFFSET ?parms@?1??ChangeFrameSize@CDispMain@@QAEXFFF@Z@4PAEA
  0001a	6a 00		 push	 0
  0001c	6a 00		 push	 0
  0001e	6a 01		 push	 1
  00020	ff b0 80 00 00
	00		 push	 DWORD PTR [eax+128]
  00026	51		 push	 ecx
  00027	e8 00 00 00 00	 call	 ?InvokeHelper@COleDispatchDriver@@QAAXJGGPAXPBEZZ ; COleDispatchDriver::InvokeHelper
  0002c	83 c4 24	 add	 esp, 36			; 00000024H

; 347  : 		 nFlag, nParam1, nParam2);
; 348  : }

  0002f	5d		 pop	 ebp
  00030	c2 0c 00	 ret	 12			; 0000000cH
?ChangeFrameSize@CDispMain@@QAEXFFF@Z ENDP		; CDispMain::ChangeFrameSize
_TEXT	ENDS
; Function compile flags: /Ogtp
; File D:\git\src\IBK\IBK_DRFN\ProjSrc\SrcDrfn\inc\DispMain.cpp
;	COMDAT ?IHRenameSection@CDispMain@@QAEFPBD000@Z
_TEXT	SEGMENT
_szGroup$ = 8						; size = 4
_szOldSecName$ = 12					; size = 4
_szNewSecName$ = 16					; size = 4
_result$ = 20						; size = 2
_szFile$ = 20						; size = 4
?IHRenameSection@CDispMain@@QAEFPBD000@Z PROC		; CDispMain::IHRenameSection, COMDAT
; _this$ = ecx

; 333  : {

  00000	55		 push	 ebp
  00001	8b ec		 mov	 ebp, esp

; 334  : 	short result;
; 335  : 	static BYTE parms[] =
; 336  : 		VTS_BSTR VTS_BSTR VTS_BSTR VTS_BSTR;
; 337  : 	InvokeHelper(m_pdID[IIx_IHRenameSection], DISPATCH_METHOD, VT_I2, (void*)&result, parms,

  00003	ff 75 14	 push	 DWORD PTR _szFile$[ebp]
  00006	8d 45 14	 lea	 eax, DWORD PTR _result$[ebp]
  00009	ff 75 10	 push	 DWORD PTR _szNewSecName$[ebp]
  0000c	ff 75 0c	 push	 DWORD PTR _szOldSecName$[ebp]
  0000f	ff 75 08	 push	 DWORD PTR _szGroup$[ebp]
  00012	68 00 00 00 00	 push	 OFFSET ?parms@?1??IHRenameSection@CDispMain@@QAEFPBD000@Z@4PAEA
  00017	50		 push	 eax
  00018	8b 41 0c	 mov	 eax, DWORD PTR [ecx+12]
  0001b	6a 02		 push	 2
  0001d	6a 01		 push	 1
  0001f	ff 70 78	 push	 DWORD PTR [eax+120]
  00022	51		 push	 ecx
  00023	e8 00 00 00 00	 call	 ?InvokeHelper@COleDispatchDriver@@QAAXJGGPAXPBEZZ ; COleDispatchDriver::InvokeHelper

; 338  : 		szGroup, szOldSecName, szNewSecName, szFile);
; 339  : 	return result;

  00028	66 8b 45 14	 mov	 ax, WORD PTR _result$[ebp]
  0002c	83 c4 28	 add	 esp, 40			; 00000028H

; 340  : }

  0002f	5d		 pop	 ebp
  00030	c2 10 00	 ret	 16			; 00000010H
?IHRenameSection@CDispMain@@QAEFPBD000@Z ENDP		; CDispMain::IHRenameSection
_TEXT	ENDS
; Function compile flags: /Ogtp
; File D:\git\src\IBK\IBK_DRFN\ProjSrc\SrcDrfn\inc\DispMain.cpp
;	COMDAT ?IHDeleteSection@CDispMain@@QAEFPBD00@Z
_TEXT	SEGMENT
_szGroup$ = 8						; size = 4
_szSection$ = 12					; size = 4
_result$ = 16						; size = 2
_szFile$ = 16						; size = 4
?IHDeleteSection@CDispMain@@QAEFPBD00@Z PROC		; CDispMain::IHDeleteSection, COMDAT
; _this$ = ecx

; 323  : {

  00000	55		 push	 ebp
  00001	8b ec		 mov	 ebp, esp

; 324  : 	short result;
; 325  : 	static BYTE parms[] =
; 326  : 		VTS_BSTR VTS_BSTR VTS_BSTR;
; 327  : 	InvokeHelper(m_pdID[IIx_IHDeleteSection], DISPATCH_METHOD, VT_I2, (void*)&result, parms,

  00003	ff 75 10	 push	 DWORD PTR _szFile$[ebp]
  00006	8d 45 10	 lea	 eax, DWORD PTR _result$[ebp]
  00009	ff 75 0c	 push	 DWORD PTR _szSection$[ebp]
  0000c	ff 75 08	 push	 DWORD PTR _szGroup$[ebp]
  0000f	68 00 00 00 00	 push	 OFFSET ?parms@?1??IHDeleteSection@CDispMain@@QAEFPBD00@Z@4PAEA
  00014	50		 push	 eax
  00015	8b 41 0c	 mov	 eax, DWORD PTR [ecx+12]
  00018	6a 02		 push	 2
  0001a	6a 01		 push	 1
  0001c	ff 70 74	 push	 DWORD PTR [eax+116]
  0001f	51		 push	 ecx
  00020	e8 00 00 00 00	 call	 ?InvokeHelper@COleDispatchDriver@@QAAXJGGPAXPBEZZ ; COleDispatchDriver::InvokeHelper

; 328  : 		szGroup, szSection, szFile);
; 329  : 	return result;

  00025	66 8b 45 10	 mov	 ax, WORD PTR _result$[ebp]
  00029	83 c4 24	 add	 esp, 36			; 00000024H

; 330  : }

  0002c	5d		 pop	 ebp
  0002d	c2 0c 00	 ret	 12			; 0000000cH
?IHDeleteSection@CDispMain@@QAEFPBD00@Z ENDP		; CDispMain::IHDeleteSection
_TEXT	ENDS
; Function compile flags: /Ogtp
; File D:\git\src\IBK\IBK_DRFN\ProjSrc\SrcDrfn\inc\DispMain.cpp
;	COMDAT ?IHAddSection@CDispMain@@QAEFPBD00@Z
_TEXT	SEGMENT
_szGroup$ = 8						; size = 4
_szSection$ = 12					; size = 4
_result$ = 16						; size = 2
_szFile$ = 16						; size = 4
?IHAddSection@CDispMain@@QAEFPBD00@Z PROC		; CDispMain::IHAddSection, COMDAT
; _this$ = ecx

; 313  : {

  00000	55		 push	 ebp
  00001	8b ec		 mov	 ebp, esp

; 314  : 	short result;
; 315  : 	static BYTE parms[] =
; 316  : 		VTS_BSTR VTS_BSTR VTS_BSTR;
; 317  : 	InvokeHelper(m_pdID[IIx_IHAddSection], DISPATCH_METHOD, VT_I2, (void*)&result, parms,

  00003	ff 75 10	 push	 DWORD PTR _szFile$[ebp]
  00006	8d 45 10	 lea	 eax, DWORD PTR _result$[ebp]
  00009	ff 75 0c	 push	 DWORD PTR _szSection$[ebp]
  0000c	ff 75 08	 push	 DWORD PTR _szGroup$[ebp]
  0000f	68 00 00 00 00	 push	 OFFSET ?parms@?1??IHAddSection@CDispMain@@QAEFPBD00@Z@4PAEA
  00014	50		 push	 eax
  00015	8b 41 0c	 mov	 eax, DWORD PTR [ecx+12]
  00018	6a 02		 push	 2
  0001a	6a 01		 push	 1
  0001c	ff 70 70	 push	 DWORD PTR [eax+112]
  0001f	51		 push	 ecx
  00020	e8 00 00 00 00	 call	 ?InvokeHelper@COleDispatchDriver@@QAAXJGGPAXPBEZZ ; COleDispatchDriver::InvokeHelper

; 318  : 		szGroup, szSection, szFile);
; 319  : 	return result;

  00025	66 8b 45 10	 mov	 ax, WORD PTR _result$[ebp]
  00029	83 c4 24	 add	 esp, 36			; 00000024H

; 320  : }

  0002c	5d		 pop	 ebp
  0002d	c2 0c 00	 ret	 12			; 0000000cH
?IHAddSection@CDispMain@@QAEFPBD00@Z ENDP		; CDispMain::IHAddSection
_TEXT	ENDS
; Function compile flags: /Ogtp
; File D:\git\src\IBK\IBK_DRFN\ProjSrc\SrcDrfn\inc\DispMain.cpp
;	COMDAT ?IHGetSectionNames@CDispMain@@QAE?AV?$CStringT@DV?$StrTraitMFC_DLL@DV?$ChTraitsCRT@D@ATL@@@@@ATL@@PBD0@Z
_TEXT	SEGMENT
$T2 = -16						; size = 4
__$EHRec$ = -12						; size = 12
___$ReturnUdt$ = 8					; size = 4
_szGroup$ = 12						; size = 4
_szFile$ = 16						; size = 4
?IHGetSectionNames@CDispMain@@QAE?AV?$CStringT@DV?$StrTraitMFC_DLL@DV?$ChTraitsCRT@D@ATL@@@@@ATL@@PBD0@Z PROC ; CDispMain::IHGetSectionNames, COMDAT
; _this$ = ecx

; 303  : {

  00000	55		 push	 ebp
  00001	8b ec		 mov	 ebp, esp
  00003	6a ff		 push	 -1
  00005	68 00 00 00 00	 push	 __ehhandler$?IHGetSectionNames@CDispMain@@QAE?AV?$CStringT@DV?$StrTraitMFC_DLL@DV?$ChTraitsCRT@D@ATL@@@@@ATL@@PBD0@Z
  0000a	64 a1 00 00 00
	00		 mov	 eax, DWORD PTR fs:0
  00010	50		 push	 eax
  00011	51		 push	 ecx
  00012	56		 push	 esi
  00013	57		 push	 edi
  00014	a1 00 00 00 00	 mov	 eax, DWORD PTR ___security_cookie
  00019	33 c5		 xor	 eax, ebp
  0001b	50		 push	 eax
  0001c	8d 45 f4	 lea	 eax, DWORD PTR __$EHRec$[ebp]
  0001f	64 a3 00 00 00
	00		 mov	 DWORD PTR fs:0, eax
  00025	8b f1		 mov	 esi, ecx
  00027	c7 45 f0 00 00
	00 00		 mov	 DWORD PTR $T2[ebp], 0

; 304  : 	CString result;

  0002e	8b 7d 08	 mov	 edi, DWORD PTR ___$ReturnUdt$[ebp]
  00031	8b cf		 mov	 ecx, edi
  00033	ff 15 00 00 00
	00		 call	 DWORD PTR __imp_??0?$CStringT@DV?$StrTraitMFC_DLL@DV?$ChTraitsCRT@D@ATL@@@@@ATL@@QAE@XZ

; 305  : 	static BYTE parms[] =
; 306  : 		VTS_BSTR VTS_BSTR;
; 307  : 	InvokeHelper(m_pdID[IIx_IHGetSectionNames], DISPATCH_METHOD, VT_BSTR, (void*)&result, parms,
; 308  : 		szGroup, szFile);
; 309  : 	return result;

  00039	ff 75 10	 push	 DWORD PTR _szFile$[ebp]
  0003c	8b 4e 0c	 mov	 ecx, DWORD PTR [esi+12]
  0003f	ff 75 0c	 push	 DWORD PTR _szGroup$[ebp]
  00042	c7 45 fc 00 00
	00 00		 mov	 DWORD PTR __$EHRec$[ebp+8], 0
  00049	68 00 00 00 00	 push	 OFFSET ?parms@?1??IHGetSectionNames@CDispMain@@QAE?AV?$CStringT@DV?$StrTraitMFC_DLL@DV?$ChTraitsCRT@D@ATL@@@@@ATL@@PBD0@Z@4PAEA
  0004e	57		 push	 edi
  0004f	6a 08		 push	 8
  00051	6a 01		 push	 1
  00053	ff 71 6c	 push	 DWORD PTR [ecx+108]
  00056	c7 45 f0 01 00
	00 00		 mov	 DWORD PTR $T2[ebp], 1
  0005d	56		 push	 esi
  0005e	e8 00 00 00 00	 call	 ?InvokeHelper@COleDispatchDriver@@QAAXJGGPAXPBEZZ ; COleDispatchDriver::InvokeHelper
  00063	83 c4 20	 add	 esp, 32			; 00000020H
  00066	8b c7		 mov	 eax, edi

; 310  : }

  00068	8b 4d f4	 mov	 ecx, DWORD PTR __$EHRec$[ebp]
  0006b	64 89 0d 00 00
	00 00		 mov	 DWORD PTR fs:0, ecx
  00072	59		 pop	 ecx
  00073	5f		 pop	 edi
  00074	5e		 pop	 esi
  00075	8b e5		 mov	 esp, ebp
  00077	5d		 pop	 ebp
  00078	c2 0c 00	 ret	 12			; 0000000cH
_TEXT	ENDS
;	COMDAT text$x
text$x	SEGMENT
__unwindfunclet$?IHGetSectionNames@CDispMain@@QAE?AV?$CStringT@DV?$StrTraitMFC_DLL@DV?$ChTraitsCRT@D@ATL@@@@@ATL@@PBD0@Z$0:
  00000	8b 45 f0	 mov	 eax, DWORD PTR $T2[ebp]
  00003	83 e0 01	 and	 eax, 1
  00006	0f 84 0d 00 00
	00		 je	 $LN4@IHGetSecti
  0000c	83 65 f0 fe	 and	 DWORD PTR $T2[ebp], -2	; fffffffeH
  00010	8b 4d 08	 mov	 ecx, DWORD PTR ___$ReturnUdt$[ebp]
  00013	ff 25 00 00 00
	00		 jmp	 DWORD PTR __imp_??1?$CStringT@DV?$StrTraitMFC_DLL@DV?$ChTraitsCRT@D@ATL@@@@@ATL@@QAE@XZ
$LN4@IHGetSecti:
  00019	c3		 ret	 0
  0001a	cc		 int	 3
  0001b	cc		 int	 3
  0001c	cc		 int	 3
  0001d	cc		 int	 3
  0001e	cc		 int	 3
__ehhandler$?IHGetSectionNames@CDispMain@@QAE?AV?$CStringT@DV?$StrTraitMFC_DLL@DV?$ChTraitsCRT@D@ATL@@@@@ATL@@PBD0@Z:
  0001f	90		 npad	 1
  00020	90		 npad	 1
  00021	8b 54 24 08	 mov	 edx, DWORD PTR [esp+8]
  00025	8d 42 0c	 lea	 eax, DWORD PTR [edx+12]
  00028	8b 4a f0	 mov	 ecx, DWORD PTR [edx-16]
  0002b	33 c8		 xor	 ecx, eax
  0002d	e8 00 00 00 00	 call	 @__security_check_cookie@4
  00032	b8 00 00 00 00	 mov	 eax, OFFSET __ehfuncinfo$?IHGetSectionNames@CDispMain@@QAE?AV?$CStringT@DV?$StrTraitMFC_DLL@DV?$ChTraitsCRT@D@ATL@@@@@ATL@@PBD0@Z
  00037	e9 00 00 00 00	 jmp	 ___CxxFrameHandler3
text$x	ENDS
?IHGetSectionNames@CDispMain@@QAE?AV?$CStringT@DV?$StrTraitMFC_DLL@DV?$ChTraitsCRT@D@ATL@@@@@ATL@@PBD0@Z ENDP ; CDispMain::IHGetSectionNames
; Function compile flags: /Ogtp
; File D:\git\src\IBK\IBK_DRFN\ProjSrc\SrcDrfn\inc\DispMain.cpp
;	COMDAT ?IHGetSectionData@CDispMain@@QAE?AV?$CStringT@DV?$StrTraitMFC_DLL@DV?$ChTraitsCRT@D@ATL@@@@@ATL@@PBD0000@Z
_TEXT	SEGMENT
$T2 = -16						; size = 4
__$EHRec$ = -12						; size = 12
___$ReturnUdt$ = 8					; size = 4
_szGroup$ = 12						; size = 4
_szSection$ = 16					; size = 4
_szKey$ = 20						; size = 4
_szDefault$ = 24					; size = 4
_szFile$ = 28						; size = 4
?IHGetSectionData@CDispMain@@QAE?AV?$CStringT@DV?$StrTraitMFC_DLL@DV?$ChTraitsCRT@D@ATL@@@@@ATL@@PBD0000@Z PROC ; CDispMain::IHGetSectionData, COMDAT
; _this$ = ecx

; 293  : {

  00000	55		 push	 ebp
  00001	8b ec		 mov	 ebp, esp
  00003	6a ff		 push	 -1
  00005	68 00 00 00 00	 push	 __ehhandler$?IHGetSectionData@CDispMain@@QAE?AV?$CStringT@DV?$StrTraitMFC_DLL@DV?$ChTraitsCRT@D@ATL@@@@@ATL@@PBD0000@Z
  0000a	64 a1 00 00 00
	00		 mov	 eax, DWORD PTR fs:0
  00010	50		 push	 eax
  00011	51		 push	 ecx
  00012	56		 push	 esi
  00013	57		 push	 edi
  00014	a1 00 00 00 00	 mov	 eax, DWORD PTR ___security_cookie
  00019	33 c5		 xor	 eax, ebp
  0001b	50		 push	 eax
  0001c	8d 45 f4	 lea	 eax, DWORD PTR __$EHRec$[ebp]
  0001f	64 a3 00 00 00
	00		 mov	 DWORD PTR fs:0, eax
  00025	8b f1		 mov	 esi, ecx
  00027	c7 45 f0 00 00
	00 00		 mov	 DWORD PTR $T2[ebp], 0

; 294  : 	CString result;

  0002e	8b 7d 08	 mov	 edi, DWORD PTR ___$ReturnUdt$[ebp]
  00031	8b cf		 mov	 ecx, edi
  00033	ff 15 00 00 00
	00		 call	 DWORD PTR __imp_??0?$CStringT@DV?$StrTraitMFC_DLL@DV?$ChTraitsCRT@D@ATL@@@@@ATL@@QAE@XZ

; 295  : 	static BYTE parms[] =
; 296  : 		VTS_BSTR VTS_BSTR VTS_BSTR VTS_BSTR VTS_BSTR;
; 297  : 	InvokeHelper(m_pdID[IIx_IHGetSectionData], DISPATCH_METHOD, VT_BSTR, (void*)&result, parms,
; 298  : 		szGroup, szSection, szKey, szDefault, szFile);
; 299  : 	return result;

  00039	ff 75 1c	 push	 DWORD PTR _szFile$[ebp]
  0003c	8b 4e 0c	 mov	 ecx, DWORD PTR [esi+12]
  0003f	ff 75 18	 push	 DWORD PTR _szDefault$[ebp]
  00042	c7 45 fc 00 00
	00 00		 mov	 DWORD PTR __$EHRec$[ebp+8], 0
  00049	ff 75 14	 push	 DWORD PTR _szKey$[ebp]
  0004c	c7 45 f0 01 00
	00 00		 mov	 DWORD PTR $T2[ebp], 1
  00053	ff 75 10	 push	 DWORD PTR _szSection$[ebp]
  00056	ff 75 0c	 push	 DWORD PTR _szGroup$[ebp]
  00059	68 00 00 00 00	 push	 OFFSET ?parms@?1??IHGetSectionData@CDispMain@@QAE?AV?$CStringT@DV?$StrTraitMFC_DLL@DV?$ChTraitsCRT@D@ATL@@@@@ATL@@PBD0000@Z@4PAEA
  0005e	57		 push	 edi
  0005f	6a 08		 push	 8
  00061	6a 01		 push	 1
  00063	ff 71 68	 push	 DWORD PTR [ecx+104]
  00066	56		 push	 esi
  00067	e8 00 00 00 00	 call	 ?InvokeHelper@COleDispatchDriver@@QAAXJGGPAXPBEZZ ; COleDispatchDriver::InvokeHelper
  0006c	83 c4 2c	 add	 esp, 44			; 0000002cH
  0006f	8b c7		 mov	 eax, edi

; 300  : }

  00071	8b 4d f4	 mov	 ecx, DWORD PTR __$EHRec$[ebp]
  00074	64 89 0d 00 00
	00 00		 mov	 DWORD PTR fs:0, ecx
  0007b	59		 pop	 ecx
  0007c	5f		 pop	 edi
  0007d	5e		 pop	 esi
  0007e	8b e5		 mov	 esp, ebp
  00080	5d		 pop	 ebp
  00081	c2 18 00	 ret	 24			; 00000018H
_TEXT	ENDS
;	COMDAT text$x
text$x	SEGMENT
__unwindfunclet$?IHGetSectionData@CDispMain@@QAE?AV?$CStringT@DV?$StrTraitMFC_DLL@DV?$ChTraitsCRT@D@ATL@@@@@ATL@@PBD0000@Z$0:
  00000	8b 45 f0	 mov	 eax, DWORD PTR $T2[ebp]
  00003	83 e0 01	 and	 eax, 1
  00006	0f 84 0d 00 00
	00		 je	 $LN4@IHGetSecti
  0000c	83 65 f0 fe	 and	 DWORD PTR $T2[ebp], -2	; fffffffeH
  00010	8b 4d 08	 mov	 ecx, DWORD PTR ___$ReturnUdt$[ebp]
  00013	ff 25 00 00 00
	00		 jmp	 DWORD PTR __imp_??1?$CStringT@DV?$StrTraitMFC_DLL@DV?$ChTraitsCRT@D@ATL@@@@@ATL@@QAE@XZ
$LN4@IHGetSecti:
  00019	c3		 ret	 0
  0001a	cc		 int	 3
  0001b	cc		 int	 3
  0001c	cc		 int	 3
  0001d	cc		 int	 3
  0001e	cc		 int	 3
__ehhandler$?IHGetSectionData@CDispMain@@QAE?AV?$CStringT@DV?$StrTraitMFC_DLL@DV?$ChTraitsCRT@D@ATL@@@@@ATL@@PBD0000@Z:
  0001f	90		 npad	 1
  00020	90		 npad	 1
  00021	8b 54 24 08	 mov	 edx, DWORD PTR [esp+8]
  00025	8d 42 0c	 lea	 eax, DWORD PTR [edx+12]
  00028	8b 4a f0	 mov	 ecx, DWORD PTR [edx-16]
  0002b	33 c8		 xor	 ecx, eax
  0002d	e8 00 00 00 00	 call	 @__security_check_cookie@4
  00032	b8 00 00 00 00	 mov	 eax, OFFSET __ehfuncinfo$?IHGetSectionData@CDispMain@@QAE?AV?$CStringT@DV?$StrTraitMFC_DLL@DV?$ChTraitsCRT@D@ATL@@@@@ATL@@PBD0000@Z
  00037	e9 00 00 00 00	 jmp	 ___CxxFrameHandler3
text$x	ENDS
?IHGetSectionData@CDispMain@@QAE?AV?$CStringT@DV?$StrTraitMFC_DLL@DV?$ChTraitsCRT@D@ATL@@@@@ATL@@PBD0000@Z ENDP ; CDispMain::IHGetSectionData
; Function compile flags: /Ogtp
; File D:\git\src\IBK\IBK_DRFN\ProjSrc\SrcDrfn\inc\DispMain.cpp
;	COMDAT ?IHWriteSectionData@CDispMain@@QAEFPBD0000@Z
_TEXT	SEGMENT
_szGroup$ = 8						; size = 4
_szSection$ = 12					; size = 4
_szKey$ = 16						; size = 4
_szData$ = 20						; size = 4
_result$ = 24						; size = 2
_szFile$ = 24						; size = 4
?IHWriteSectionData@CDispMain@@QAEFPBD0000@Z PROC	; CDispMain::IHWriteSectionData, COMDAT
; _this$ = ecx

; 283  : {

  00000	55		 push	 ebp
  00001	8b ec		 mov	 ebp, esp

; 284  : 	short result;
; 285  : 	static BYTE parms[] =
; 286  : 		VTS_BSTR VTS_BSTR VTS_BSTR VTS_BSTR VTS_BSTR;
; 287  : 	InvokeHelper(m_pdID[IIx_IHWriteSectionData], DISPATCH_METHOD, VT_I2, (void*)&result, parms,

  00003	ff 75 18	 push	 DWORD PTR _szFile$[ebp]
  00006	8d 45 18	 lea	 eax, DWORD PTR _result$[ebp]
  00009	ff 75 14	 push	 DWORD PTR _szData$[ebp]
  0000c	ff 75 10	 push	 DWORD PTR _szKey$[ebp]
  0000f	ff 75 0c	 push	 DWORD PTR _szSection$[ebp]
  00012	ff 75 08	 push	 DWORD PTR _szGroup$[ebp]
  00015	68 00 00 00 00	 push	 OFFSET ?parms@?1??IHWriteSectionData@CDispMain@@QAEFPBD0000@Z@4PAEA
  0001a	50		 push	 eax
  0001b	8b 41 0c	 mov	 eax, DWORD PTR [ecx+12]
  0001e	6a 02		 push	 2
  00020	6a 01		 push	 1
  00022	ff 70 64	 push	 DWORD PTR [eax+100]
  00025	51		 push	 ecx
  00026	e8 00 00 00 00	 call	 ?InvokeHelper@COleDispatchDriver@@QAAXJGGPAXPBEZZ ; COleDispatchDriver::InvokeHelper

; 288  : 		szGroup, szSection, szKey, szData, szFile);
; 289  : 	return result;

  0002b	66 8b 45 18	 mov	 ax, WORD PTR _result$[ebp]
  0002f	83 c4 2c	 add	 esp, 44			; 0000002cH

; 290  : }

  00032	5d		 pop	 ebp
  00033	c2 14 00	 ret	 20			; 00000014H
?IHWriteSectionData@CDispMain@@QAEFPBD0000@Z ENDP	; CDispMain::IHWriteSectionData
_TEXT	ENDS
; Function compile flags: /Ogtp
; File D:\git\src\IBK\IBK_DRFN\ProjSrc\SrcDrfn\inc\DispMain.cpp
;	COMDAT ?SetOpenMapStyle2@CDispMain@@QAEXFFFFF@Z
_TEXT	SEGMENT
_nType$ = 8						; size = 2
_nInfo1$ = 12						; size = 2
_nInfo2$ = 16						; size = 2
_nMessageBar$ = 20					; size = 2
_nPostOpen$ = 24					; size = 2
?SetOpenMapStyle2@CDispMain@@QAEXFFFFF@Z PROC		; CDispMain::SetOpenMapStyle2, COMDAT
; _this$ = ecx

; 275  : {

  00000	55		 push	 ebp
  00001	8b ec		 mov	 ebp, esp

; 276  : 	static BYTE parms[] =
; 277  : 		VTS_I2 VTS_I2 VTS_I2 VTS_I2 VTS_I2;
; 278  : 	InvokeHelper(m_pdID[IIx_SetOpenMapStyle2], DISPATCH_METHOD, VT_EMPTY, NULL, parms,

  00003	0f bf 45 18	 movsx	 eax, WORD PTR _nPostOpen$[ebp]
  00007	50		 push	 eax
  00008	0f bf 45 14	 movsx	 eax, WORD PTR _nMessageBar$[ebp]
  0000c	50		 push	 eax
  0000d	0f bf 45 10	 movsx	 eax, WORD PTR _nInfo2$[ebp]
  00011	50		 push	 eax
  00012	0f bf 45 0c	 movsx	 eax, WORD PTR _nInfo1$[ebp]
  00016	50		 push	 eax
  00017	0f bf 45 08	 movsx	 eax, WORD PTR _nType$[ebp]
  0001b	50		 push	 eax
  0001c	8b 41 0c	 mov	 eax, DWORD PTR [ecx+12]
  0001f	68 00 00 00 00	 push	 OFFSET ?parms@?1??SetOpenMapStyle2@CDispMain@@QAEXFFFFF@Z@4PAEA
  00024	6a 00		 push	 0
  00026	6a 00		 push	 0
  00028	6a 01		 push	 1
  0002a	ff 70 60	 push	 DWORD PTR [eax+96]
  0002d	51		 push	 ecx
  0002e	e8 00 00 00 00	 call	 ?InvokeHelper@COleDispatchDriver@@QAAXJGGPAXPBEZZ ; COleDispatchDriver::InvokeHelper
  00033	83 c4 2c	 add	 esp, 44			; 0000002cH

; 279  : 		 nType, nInfo1, nInfo2, nMessageBar, nPostOpen);
; 280  : }

  00036	5d		 pop	 ebp
  00037	c2 14 00	 ret	 20			; 00000014H
?SetOpenMapStyle2@CDispMain@@QAEXFFFFF@Z ENDP		; CDispMain::SetOpenMapStyle2
_TEXT	ENDS
; Function compile flags: /Ogtp
; File D:\git\src\IBK\IBK_DRFN\ProjSrc\SrcDrfn\inc\DispMain.cpp
;	COMDAT ?GetMasterData@CDispMain@@QAE?AV?$CStringT@DV?$StrTraitMFC_DLL@DV?$ChTraitsCRT@D@ATL@@@@@ATL@@F@Z
_TEXT	SEGMENT
$T2 = -16						; size = 4
__$EHRec$ = -12						; size = 12
___$ReturnUdt$ = 8					; size = 4
_nFlag$ = 12						; size = 2
?GetMasterData@CDispMain@@QAE?AV?$CStringT@DV?$StrTraitMFC_DLL@DV?$ChTraitsCRT@D@ATL@@@@@ATL@@F@Z PROC ; CDispMain::GetMasterData, COMDAT
; _this$ = ecx

; 265  : {

  00000	55		 push	 ebp
  00001	8b ec		 mov	 ebp, esp
  00003	6a ff		 push	 -1
  00005	68 00 00 00 00	 push	 __ehhandler$?GetMasterData@CDispMain@@QAE?AV?$CStringT@DV?$StrTraitMFC_DLL@DV?$ChTraitsCRT@D@ATL@@@@@ATL@@F@Z
  0000a	64 a1 00 00 00
	00		 mov	 eax, DWORD PTR fs:0
  00010	50		 push	 eax
  00011	51		 push	 ecx
  00012	56		 push	 esi
  00013	57		 push	 edi
  00014	a1 00 00 00 00	 mov	 eax, DWORD PTR ___security_cookie
  00019	33 c5		 xor	 eax, ebp
  0001b	50		 push	 eax
  0001c	8d 45 f4	 lea	 eax, DWORD PTR __$EHRec$[ebp]
  0001f	64 a3 00 00 00
	00		 mov	 DWORD PTR fs:0, eax
  00025	8b f1		 mov	 esi, ecx
  00027	c7 45 f0 00 00
	00 00		 mov	 DWORD PTR $T2[ebp], 0

; 266  : 	CString result;

  0002e	8b 7d 08	 mov	 edi, DWORD PTR ___$ReturnUdt$[ebp]
  00031	8b cf		 mov	 ecx, edi
  00033	ff 15 00 00 00
	00		 call	 DWORD PTR __imp_??0?$CStringT@DV?$StrTraitMFC_DLL@DV?$ChTraitsCRT@D@ATL@@@@@ATL@@QAE@XZ

; 267  : 	static BYTE parms[] =
; 268  : 		VTS_I2;
; 269  : 	InvokeHelper(m_pdID[IIx_GetMasterData], DISPATCH_METHOD, VT_BSTR, (void*)&result, parms,
; 270  : 		nFlag);
; 271  : 	return result;

  00039	0f bf 45 0c	 movsx	 eax, WORD PTR _nFlag$[ebp]
  0003d	8b 4e 0c	 mov	 ecx, DWORD PTR [esi+12]
  00040	50		 push	 eax
  00041	68 00 00 00 00	 push	 OFFSET ?parms@?1??GetMasterData@CDispMain@@QAE?AV?$CStringT@DV?$StrTraitMFC_DLL@DV?$ChTraitsCRT@D@ATL@@@@@ATL@@F@Z@4PAEA
  00046	57		 push	 edi
  00047	6a 08		 push	 8
  00049	6a 01		 push	 1
  0004b	ff 71 5c	 push	 DWORD PTR [ecx+92]
  0004e	c7 45 fc 00 00
	00 00		 mov	 DWORD PTR __$EHRec$[ebp+8], 0
  00055	56		 push	 esi
  00056	c7 45 f0 01 00
	00 00		 mov	 DWORD PTR $T2[ebp], 1
  0005d	e8 00 00 00 00	 call	 ?InvokeHelper@COleDispatchDriver@@QAAXJGGPAXPBEZZ ; COleDispatchDriver::InvokeHelper
  00062	83 c4 1c	 add	 esp, 28			; 0000001cH
  00065	8b c7		 mov	 eax, edi

; 272  : }

  00067	8b 4d f4	 mov	 ecx, DWORD PTR __$EHRec$[ebp]
  0006a	64 89 0d 00 00
	00 00		 mov	 DWORD PTR fs:0, ecx
  00071	59		 pop	 ecx
  00072	5f		 pop	 edi
  00073	5e		 pop	 esi
  00074	8b e5		 mov	 esp, ebp
  00076	5d		 pop	 ebp
  00077	c2 08 00	 ret	 8
_TEXT	ENDS
;	COMDAT text$x
text$x	SEGMENT
__unwindfunclet$?GetMasterData@CDispMain@@QAE?AV?$CStringT@DV?$StrTraitMFC_DLL@DV?$ChTraitsCRT@D@ATL@@@@@ATL@@F@Z$0:
  00000	8b 45 f0	 mov	 eax, DWORD PTR $T2[ebp]
  00003	83 e0 01	 and	 eax, 1
  00006	0f 84 0d 00 00
	00		 je	 $LN4@GetMasterD
  0000c	83 65 f0 fe	 and	 DWORD PTR $T2[ebp], -2	; fffffffeH
  00010	8b 4d 08	 mov	 ecx, DWORD PTR ___$ReturnUdt$[ebp]
  00013	ff 25 00 00 00
	00		 jmp	 DWORD PTR __imp_??1?$CStringT@DV?$StrTraitMFC_DLL@DV?$ChTraitsCRT@D@ATL@@@@@ATL@@QAE@XZ
$LN4@GetMasterD:
  00019	c3		 ret	 0
  0001a	cc		 int	 3
  0001b	cc		 int	 3
  0001c	cc		 int	 3
  0001d	cc		 int	 3
  0001e	cc		 int	 3
__ehhandler$?GetMasterData@CDispMain@@QAE?AV?$CStringT@DV?$StrTraitMFC_DLL@DV?$ChTraitsCRT@D@ATL@@@@@ATL@@F@Z:
  0001f	90		 npad	 1
  00020	90		 npad	 1
  00021	8b 54 24 08	 mov	 edx, DWORD PTR [esp+8]
  00025	8d 42 0c	 lea	 eax, DWORD PTR [edx+12]
  00028	8b 4a f0	 mov	 ecx, DWORD PTR [edx-16]
  0002b	33 c8		 xor	 ecx, eax
  0002d	e8 00 00 00 00	 call	 @__security_check_cookie@4
  00032	b8 00 00 00 00	 mov	 eax, OFFSET __ehfuncinfo$?GetMasterData@CDispMain@@QAE?AV?$CStringT@DV?$StrTraitMFC_DLL@DV?$ChTraitsCRT@D@ATL@@@@@ATL@@F@Z
  00037	e9 00 00 00 00	 jmp	 ___CxxFrameHandler3
text$x	ENDS
?GetMasterData@CDispMain@@QAE?AV?$CStringT@DV?$StrTraitMFC_DLL@DV?$ChTraitsCRT@D@ATL@@@@@ATL@@F@Z ENDP ; CDispMain::GetMasterData
; Function compile flags: /Ogtp
; File D:\git\src\IBK\IBK_DRFN\ProjSrc\SrcDrfn\inc\DispMain.cpp
;	COMDAT ?GetBatchAcctInfo@CDispMain@@QAE?AV?$CStringT@DV?$StrTraitMFC_DLL@DV?$ChTraitsCRT@D@ATL@@@@@ATL@@PBD@Z
_TEXT	SEGMENT
$T2 = -16						; size = 4
__$EHRec$ = -12						; size = 12
___$ReturnUdt$ = 8					; size = 4
_szAcct$ = 12						; size = 4
?GetBatchAcctInfo@CDispMain@@QAE?AV?$CStringT@DV?$StrTraitMFC_DLL@DV?$ChTraitsCRT@D@ATL@@@@@ATL@@PBD@Z PROC ; CDispMain::GetBatchAcctInfo, COMDAT
; _this$ = ecx

; 255  : {

  00000	55		 push	 ebp
  00001	8b ec		 mov	 ebp, esp
  00003	6a ff		 push	 -1
  00005	68 00 00 00 00	 push	 __ehhandler$?GetBatchAcctInfo@CDispMain@@QAE?AV?$CStringT@DV?$StrTraitMFC_DLL@DV?$ChTraitsCRT@D@ATL@@@@@ATL@@PBD@Z
  0000a	64 a1 00 00 00
	00		 mov	 eax, DWORD PTR fs:0
  00010	50		 push	 eax
  00011	51		 push	 ecx
  00012	56		 push	 esi
  00013	57		 push	 edi
  00014	a1 00 00 00 00	 mov	 eax, DWORD PTR ___security_cookie
  00019	33 c5		 xor	 eax, ebp
  0001b	50		 push	 eax
  0001c	8d 45 f4	 lea	 eax, DWORD PTR __$EHRec$[ebp]
  0001f	64 a3 00 00 00
	00		 mov	 DWORD PTR fs:0, eax
  00025	8b f1		 mov	 esi, ecx
  00027	c7 45 f0 00 00
	00 00		 mov	 DWORD PTR $T2[ebp], 0

; 256  : 	CString result;

  0002e	8b 7d 08	 mov	 edi, DWORD PTR ___$ReturnUdt$[ebp]
  00031	8b cf		 mov	 ecx, edi
  00033	ff 15 00 00 00
	00		 call	 DWORD PTR __imp_??0?$CStringT@DV?$StrTraitMFC_DLL@DV?$ChTraitsCRT@D@ATL@@@@@ATL@@QAE@XZ

; 257  : 	static BYTE parms[] =
; 258  : 		VTS_BSTR;
; 259  : 	InvokeHelper(m_pdID[IIx_GetBatchAcctInfo], DISPATCH_METHOD, VT_BSTR, (void*)&result, parms,
; 260  : 		szAcct);
; 261  : 	return result;

  00039	ff 75 0c	 push	 DWORD PTR _szAcct$[ebp]
  0003c	8b 4e 0c	 mov	 ecx, DWORD PTR [esi+12]
  0003f	68 00 00 00 00	 push	 OFFSET ?parms@?1??GetBatchAcctInfo@CDispMain@@QAE?AV?$CStringT@DV?$StrTraitMFC_DLL@DV?$ChTraitsCRT@D@ATL@@@@@ATL@@PBD@Z@4PAEA
  00044	57		 push	 edi
  00045	6a 08		 push	 8
  00047	6a 01		 push	 1
  00049	ff 71 58	 push	 DWORD PTR [ecx+88]
  0004c	c7 45 fc 00 00
	00 00		 mov	 DWORD PTR __$EHRec$[ebp+8], 0
  00053	56		 push	 esi
  00054	c7 45 f0 01 00
	00 00		 mov	 DWORD PTR $T2[ebp], 1
  0005b	e8 00 00 00 00	 call	 ?InvokeHelper@COleDispatchDriver@@QAAXJGGPAXPBEZZ ; COleDispatchDriver::InvokeHelper
  00060	83 c4 1c	 add	 esp, 28			; 0000001cH
  00063	8b c7		 mov	 eax, edi

; 262  : }

  00065	8b 4d f4	 mov	 ecx, DWORD PTR __$EHRec$[ebp]
  00068	64 89 0d 00 00
	00 00		 mov	 DWORD PTR fs:0, ecx
  0006f	59		 pop	 ecx
  00070	5f		 pop	 edi
  00071	5e		 pop	 esi
  00072	8b e5		 mov	 esp, ebp
  00074	5d		 pop	 ebp
  00075	c2 08 00	 ret	 8
_TEXT	ENDS
;	COMDAT text$x
text$x	SEGMENT
__unwindfunclet$?GetBatchAcctInfo@CDispMain@@QAE?AV?$CStringT@DV?$StrTraitMFC_DLL@DV?$ChTraitsCRT@D@ATL@@@@@ATL@@PBD@Z$0:
  00000	8b 45 f0	 mov	 eax, DWORD PTR $T2[ebp]
  00003	83 e0 01	 and	 eax, 1
  00006	0f 84 0d 00 00
	00		 je	 $LN4@GetBatchAc
  0000c	83 65 f0 fe	 and	 DWORD PTR $T2[ebp], -2	; fffffffeH
  00010	8b 4d 08	 mov	 ecx, DWORD PTR ___$ReturnUdt$[ebp]
  00013	ff 25 00 00 00
	00		 jmp	 DWORD PTR __imp_??1?$CStringT@DV?$StrTraitMFC_DLL@DV?$ChTraitsCRT@D@ATL@@@@@ATL@@QAE@XZ
$LN4@GetBatchAc:
  00019	c3		 ret	 0
  0001a	cc		 int	 3
  0001b	cc		 int	 3
  0001c	cc		 int	 3
  0001d	cc		 int	 3
  0001e	cc		 int	 3
__ehhandler$?GetBatchAcctInfo@CDispMain@@QAE?AV?$CStringT@DV?$StrTraitMFC_DLL@DV?$ChTraitsCRT@D@ATL@@@@@ATL@@PBD@Z:
  0001f	90		 npad	 1
  00020	90		 npad	 1
  00021	8b 54 24 08	 mov	 edx, DWORD PTR [esp+8]
  00025	8d 42 0c	 lea	 eax, DWORD PTR [edx+12]
  00028	8b 4a f0	 mov	 ecx, DWORD PTR [edx-16]
  0002b	33 c8		 xor	 ecx, eax
  0002d	e8 00 00 00 00	 call	 @__security_check_cookie@4
  00032	b8 00 00 00 00	 mov	 eax, OFFSET __ehfuncinfo$?GetBatchAcctInfo@CDispMain@@QAE?AV?$CStringT@DV?$StrTraitMFC_DLL@DV?$ChTraitsCRT@D@ATL@@@@@ATL@@PBD@Z
  00037	e9 00 00 00 00	 jmp	 ___CxxFrameHandler3
text$x	ENDS
?GetBatchAcctInfo@CDispMain@@QAE?AV?$CStringT@DV?$StrTraitMFC_DLL@DV?$ChTraitsCRT@D@ATL@@@@@ATL@@PBD@Z ENDP ; CDispMain::GetBatchAcctInfo
; Function compile flags: /Ogtp
; File D:\git\src\IBK\IBK_DRFN\ProjSrc\SrcDrfn\inc\DispMain.cpp
;	COMDAT ?SetBatchAcctInfo@CDispMain@@QAEXPBD@Z
_TEXT	SEGMENT
_szAcctInfo$ = 8					; size = 4
?SetBatchAcctInfo@CDispMain@@QAEXPBD@Z PROC		; CDispMain::SetBatchAcctInfo, COMDAT
; _this$ = ecx

; 247  : {

  00000	55		 push	 ebp
  00001	8b ec		 mov	 ebp, esp

; 248  : 	static BYTE parms[] =
; 249  : 		VTS_BSTR;
; 250  : 	InvokeHelper(m_pdID[IIx_SetBatchAcctInfo], DISPATCH_METHOD, VT_EMPTY, NULL, parms,

  00003	ff 75 08	 push	 DWORD PTR _szAcctInfo$[ebp]
  00006	8b 41 0c	 mov	 eax, DWORD PTR [ecx+12]
  00009	68 00 00 00 00	 push	 OFFSET ?parms@?1??SetBatchAcctInfo@CDispMain@@QAEXPBD@Z@4PAEA
  0000e	6a 00		 push	 0
  00010	6a 00		 push	 0
  00012	6a 01		 push	 1
  00014	ff 70 54	 push	 DWORD PTR [eax+84]
  00017	51		 push	 ecx
  00018	e8 00 00 00 00	 call	 ?InvokeHelper@COleDispatchDriver@@QAAXJGGPAXPBEZZ ; COleDispatchDriver::InvokeHelper
  0001d	83 c4 1c	 add	 esp, 28			; 0000001cH

; 251  : 		 szAcctInfo);
; 252  : }

  00020	5d		 pop	 ebp
  00021	c2 04 00	 ret	 4
?SetBatchAcctInfo@CDispMain@@QAEXPBD@Z ENDP		; CDispMain::SetBatchAcctInfo
_TEXT	ENDS
; Function compile flags: /Ogtp
; File D:\git\src\IBK\IBK_DRFN\ProjSrc\SrcDrfn\inc\DispMain.cpp
;	COMDAT ?GetAcctPasswd@CDispMain@@QAE?AV?$CStringT@DV?$StrTraitMFC_DLL@DV?$ChTraitsCRT@D@ATL@@@@@ATL@@PBD@Z
_TEXT	SEGMENT
$T2 = -16						; size = 4
__$EHRec$ = -12						; size = 12
___$ReturnUdt$ = 8					; size = 4
_szAcct$ = 12						; size = 4
?GetAcctPasswd@CDispMain@@QAE?AV?$CStringT@DV?$StrTraitMFC_DLL@DV?$ChTraitsCRT@D@ATL@@@@@ATL@@PBD@Z PROC ; CDispMain::GetAcctPasswd, COMDAT
; _this$ = ecx

; 237  : {

  00000	55		 push	 ebp
  00001	8b ec		 mov	 ebp, esp
  00003	6a ff		 push	 -1
  00005	68 00 00 00 00	 push	 __ehhandler$?GetAcctPasswd@CDispMain@@QAE?AV?$CStringT@DV?$StrTraitMFC_DLL@DV?$ChTraitsCRT@D@ATL@@@@@ATL@@PBD@Z
  0000a	64 a1 00 00 00
	00		 mov	 eax, DWORD PTR fs:0
  00010	50		 push	 eax
  00011	51		 push	 ecx
  00012	56		 push	 esi
  00013	57		 push	 edi
  00014	a1 00 00 00 00	 mov	 eax, DWORD PTR ___security_cookie
  00019	33 c5		 xor	 eax, ebp
  0001b	50		 push	 eax
  0001c	8d 45 f4	 lea	 eax, DWORD PTR __$EHRec$[ebp]
  0001f	64 a3 00 00 00
	00		 mov	 DWORD PTR fs:0, eax
  00025	8b f1		 mov	 esi, ecx
  00027	c7 45 f0 00 00
	00 00		 mov	 DWORD PTR $T2[ebp], 0

; 238  : 	CString result;

  0002e	8b 7d 08	 mov	 edi, DWORD PTR ___$ReturnUdt$[ebp]
  00031	8b cf		 mov	 ecx, edi
  00033	ff 15 00 00 00
	00		 call	 DWORD PTR __imp_??0?$CStringT@DV?$StrTraitMFC_DLL@DV?$ChTraitsCRT@D@ATL@@@@@ATL@@QAE@XZ

; 239  : 	static BYTE parms[] =
; 240  : 		VTS_BSTR;
; 241  : 	InvokeHelper(m_pdID[IIx_GetAcctPasswd], DISPATCH_METHOD, VT_BSTR, (void*)&result, parms,
; 242  : 		szAcct);
; 243  : 	return result;

  00039	ff 75 0c	 push	 DWORD PTR _szAcct$[ebp]
  0003c	8b 4e 0c	 mov	 ecx, DWORD PTR [esi+12]
  0003f	68 00 00 00 00	 push	 OFFSET ?parms@?1??GetAcctPasswd@CDispMain@@QAE?AV?$CStringT@DV?$StrTraitMFC_DLL@DV?$ChTraitsCRT@D@ATL@@@@@ATL@@PBD@Z@4PAEA
  00044	57		 push	 edi
  00045	6a 08		 push	 8
  00047	6a 01		 push	 1
  00049	ff 71 50	 push	 DWORD PTR [ecx+80]
  0004c	c7 45 fc 00 00
	00 00		 mov	 DWORD PTR __$EHRec$[ebp+8], 0
  00053	56		 push	 esi
  00054	c7 45 f0 01 00
	00 00		 mov	 DWORD PTR $T2[ebp], 1
  0005b	e8 00 00 00 00	 call	 ?InvokeHelper@COleDispatchDriver@@QAAXJGGPAXPBEZZ ; COleDispatchDriver::InvokeHelper
  00060	83 c4 1c	 add	 esp, 28			; 0000001cH
  00063	8b c7		 mov	 eax, edi

; 244  : }

  00065	8b 4d f4	 mov	 ecx, DWORD PTR __$EHRec$[ebp]
  00068	64 89 0d 00 00
	00 00		 mov	 DWORD PTR fs:0, ecx
  0006f	59		 pop	 ecx
  00070	5f		 pop	 edi
  00071	5e		 pop	 esi
  00072	8b e5		 mov	 esp, ebp
  00074	5d		 pop	 ebp
  00075	c2 08 00	 ret	 8
_TEXT	ENDS
;	COMDAT text$x
text$x	SEGMENT
__unwindfunclet$?GetAcctPasswd@CDispMain@@QAE?AV?$CStringT@DV?$StrTraitMFC_DLL@DV?$ChTraitsCRT@D@ATL@@@@@ATL@@PBD@Z$0:
  00000	8b 45 f0	 mov	 eax, DWORD PTR $T2[ebp]
  00003	83 e0 01	 and	 eax, 1
  00006	0f 84 0d 00 00
	00		 je	 $LN4@GetAcctPas
  0000c	83 65 f0 fe	 and	 DWORD PTR $T2[ebp], -2	; fffffffeH
  00010	8b 4d 08	 mov	 ecx, DWORD PTR ___$ReturnUdt$[ebp]
  00013	ff 25 00 00 00
	00		 jmp	 DWORD PTR __imp_??1?$CStringT@DV?$StrTraitMFC_DLL@DV?$ChTraitsCRT@D@ATL@@@@@ATL@@QAE@XZ
$LN4@GetAcctPas:
  00019	c3		 ret	 0
  0001a	cc		 int	 3
  0001b	cc		 int	 3
  0001c	cc		 int	 3
  0001d	cc		 int	 3
  0001e	cc		 int	 3
__ehhandler$?GetAcctPasswd@CDispMain@@QAE?AV?$CStringT@DV?$StrTraitMFC_DLL@DV?$ChTraitsCRT@D@ATL@@@@@ATL@@PBD@Z:
  0001f	90		 npad	 1
  00020	90		 npad	 1
  00021	8b 54 24 08	 mov	 edx, DWORD PTR [esp+8]
  00025	8d 42 0c	 lea	 eax, DWORD PTR [edx+12]
  00028	8b 4a f0	 mov	 ecx, DWORD PTR [edx-16]
  0002b	33 c8		 xor	 ecx, eax
  0002d	e8 00 00 00 00	 call	 @__security_check_cookie@4
  00032	b8 00 00 00 00	 mov	 eax, OFFSET __ehfuncinfo$?GetAcctPasswd@CDispMain@@QAE?AV?$CStringT@DV?$StrTraitMFC_DLL@DV?$ChTraitsCRT@D@ATL@@@@@ATL@@PBD@Z
  00037	e9 00 00 00 00	 jmp	 ___CxxFrameHandler3
text$x	ENDS
?GetAcctPasswd@CDispMain@@QAE?AV?$CStringT@DV?$StrTraitMFC_DLL@DV?$ChTraitsCRT@D@ATL@@@@@ATL@@PBD@Z ENDP ; CDispMain::GetAcctPasswd
; Function compile flags: /Ogtp
; File D:\git\src\IBK\IBK_DRFN\ProjSrc\SrcDrfn\inc\DispMain.cpp
;	COMDAT ?SetAcctPasswd@CDispMain@@QAEXPBD0@Z
_TEXT	SEGMENT
_szAcct$ = 8						; size = 4
_szPasswd$ = 12						; size = 4
?SetAcctPasswd@CDispMain@@QAEXPBD0@Z PROC		; CDispMain::SetAcctPasswd, COMDAT
; _this$ = ecx

; 229  : {

  00000	55		 push	 ebp
  00001	8b ec		 mov	 ebp, esp

; 230  : 	static BYTE parms[] =
; 231  : 		VTS_BSTR VTS_BSTR;
; 232  : 	InvokeHelper(m_pdID[IIx_SetAcctPasswd], DISPATCH_METHOD, VT_EMPTY, NULL, parms,

  00003	ff 75 0c	 push	 DWORD PTR _szPasswd$[ebp]
  00006	8b 41 0c	 mov	 eax, DWORD PTR [ecx+12]
  00009	ff 75 08	 push	 DWORD PTR _szAcct$[ebp]
  0000c	68 00 00 00 00	 push	 OFFSET ?parms@?1??SetAcctPasswd@CDispMain@@QAEXPBD0@Z@4PAEA
  00011	6a 00		 push	 0
  00013	6a 00		 push	 0
  00015	6a 01		 push	 1
  00017	ff 70 4c	 push	 DWORD PTR [eax+76]
  0001a	51		 push	 ecx
  0001b	e8 00 00 00 00	 call	 ?InvokeHelper@COleDispatchDriver@@QAAXJGGPAXPBEZZ ; COleDispatchDriver::InvokeHelper
  00020	83 c4 20	 add	 esp, 32			; 00000020H

; 233  : 		 szAcct, szPasswd);
; 234  : }

  00023	5d		 pop	 ebp
  00024	c2 08 00	 ret	 8
?SetAcctPasswd@CDispMain@@QAEXPBD0@Z ENDP		; CDispMain::SetAcctPasswd
_TEXT	ENDS
; Function compile flags: /Ogtp
; File D:\git\src\IBK\IBK_DRFN\ProjSrc\SrcDrfn\inc\DispMain.cpp
;	COMDAT ?GetGwanCodeOneGroup@CDispMain@@QAE?AV?$CStringT@DV?$StrTraitMFC_DLL@DV?$ChTraitsCRT@D@ATL@@@@@ATL@@PBD0@Z
_TEXT	SEGMENT
$T2 = -16						; size = 4
__$EHRec$ = -12						; size = 12
___$ReturnUdt$ = 8					; size = 4
_szKey$ = 12						; size = 4
_szOption$ = 16						; size = 4
?GetGwanCodeOneGroup@CDispMain@@QAE?AV?$CStringT@DV?$StrTraitMFC_DLL@DV?$ChTraitsCRT@D@ATL@@@@@ATL@@PBD0@Z PROC ; CDispMain::GetGwanCodeOneGroup, COMDAT
; _this$ = ecx

; 219  : {

  00000	55		 push	 ebp
  00001	8b ec		 mov	 ebp, esp
  00003	6a ff		 push	 -1
  00005	68 00 00 00 00	 push	 __ehhandler$?GetGwanCodeOneGroup@CDispMain@@QAE?AV?$CStringT@DV?$StrTraitMFC_DLL@DV?$ChTraitsCRT@D@ATL@@@@@ATL@@PBD0@Z
  0000a	64 a1 00 00 00
	00		 mov	 eax, DWORD PTR fs:0
  00010	50		 push	 eax
  00011	51		 push	 ecx
  00012	56		 push	 esi
  00013	57		 push	 edi
  00014	a1 00 00 00 00	 mov	 eax, DWORD PTR ___security_cookie
  00019	33 c5		 xor	 eax, ebp
  0001b	50		 push	 eax
  0001c	8d 45 f4	 lea	 eax, DWORD PTR __$EHRec$[ebp]
  0001f	64 a3 00 00 00
	00		 mov	 DWORD PTR fs:0, eax
  00025	8b f1		 mov	 esi, ecx
  00027	c7 45 f0 00 00
	00 00		 mov	 DWORD PTR $T2[ebp], 0

; 220  : 	CString result;

  0002e	8b 7d 08	 mov	 edi, DWORD PTR ___$ReturnUdt$[ebp]
  00031	8b cf		 mov	 ecx, edi
  00033	ff 15 00 00 00
	00		 call	 DWORD PTR __imp_??0?$CStringT@DV?$StrTraitMFC_DLL@DV?$ChTraitsCRT@D@ATL@@@@@ATL@@QAE@XZ

; 221  : 	static BYTE parms[] =
; 222  : 		VTS_BSTR VTS_BSTR;
; 223  : 	InvokeHelper(m_pdID[IIx_GetGwanCodeOneGroup], DISPATCH_METHOD, VT_BSTR, (void*)&result, parms,
; 224  : 		szKey, szOption);
; 225  : 	return result;

  00039	ff 75 10	 push	 DWORD PTR _szOption$[ebp]
  0003c	8b 4e 0c	 mov	 ecx, DWORD PTR [esi+12]
  0003f	ff 75 0c	 push	 DWORD PTR _szKey$[ebp]
  00042	c7 45 fc 00 00
	00 00		 mov	 DWORD PTR __$EHRec$[ebp+8], 0
  00049	68 00 00 00 00	 push	 OFFSET ?parms@?1??GetGwanCodeOneGroup@CDispMain@@QAE?AV?$CStringT@DV?$StrTraitMFC_DLL@DV?$ChTraitsCRT@D@ATL@@@@@ATL@@PBD0@Z@4PAEA
  0004e	57		 push	 edi
  0004f	6a 08		 push	 8
  00051	6a 01		 push	 1
  00053	ff 71 48	 push	 DWORD PTR [ecx+72]
  00056	c7 45 f0 01 00
	00 00		 mov	 DWORD PTR $T2[ebp], 1
  0005d	56		 push	 esi
  0005e	e8 00 00 00 00	 call	 ?InvokeHelper@COleDispatchDriver@@QAAXJGGPAXPBEZZ ; COleDispatchDriver::InvokeHelper
  00063	83 c4 20	 add	 esp, 32			; 00000020H
  00066	8b c7		 mov	 eax, edi

; 226  : }

  00068	8b 4d f4	 mov	 ecx, DWORD PTR __$EHRec$[ebp]
  0006b	64 89 0d 00 00
	00 00		 mov	 DWORD PTR fs:0, ecx
  00072	59		 pop	 ecx
  00073	5f		 pop	 edi
  00074	5e		 pop	 esi
  00075	8b e5		 mov	 esp, ebp
  00077	5d		 pop	 ebp
  00078	c2 0c 00	 ret	 12			; 0000000cH
_TEXT	ENDS
;	COMDAT text$x
text$x	SEGMENT
__unwindfunclet$?GetGwanCodeOneGroup@CDispMain@@QAE?AV?$CStringT@DV?$StrTraitMFC_DLL@DV?$ChTraitsCRT@D@ATL@@@@@ATL@@PBD0@Z$0:
  00000	8b 45 f0	 mov	 eax, DWORD PTR $T2[ebp]
  00003	83 e0 01	 and	 eax, 1
  00006	0f 84 0d 00 00
	00		 je	 $LN4@GetGwanCod
  0000c	83 65 f0 fe	 and	 DWORD PTR $T2[ebp], -2	; fffffffeH
  00010	8b 4d 08	 mov	 ecx, DWORD PTR ___$ReturnUdt$[ebp]
  00013	ff 25 00 00 00
	00		 jmp	 DWORD PTR __imp_??1?$CStringT@DV?$StrTraitMFC_DLL@DV?$ChTraitsCRT@D@ATL@@@@@ATL@@QAE@XZ
$LN4@GetGwanCod:
  00019	c3		 ret	 0
  0001a	cc		 int	 3
  0001b	cc		 int	 3
  0001c	cc		 int	 3
  0001d	cc		 int	 3
  0001e	cc		 int	 3
__ehhandler$?GetGwanCodeOneGroup@CDispMain@@QAE?AV?$CStringT@DV?$StrTraitMFC_DLL@DV?$ChTraitsCRT@D@ATL@@@@@ATL@@PBD0@Z:
  0001f	90		 npad	 1
  00020	90		 npad	 1
  00021	8b 54 24 08	 mov	 edx, DWORD PTR [esp+8]
  00025	8d 42 0c	 lea	 eax, DWORD PTR [edx+12]
  00028	8b 4a f0	 mov	 ecx, DWORD PTR [edx-16]
  0002b	33 c8		 xor	 ecx, eax
  0002d	e8 00 00 00 00	 call	 @__security_check_cookie@4
  00032	b8 00 00 00 00	 mov	 eax, OFFSET __ehfuncinfo$?GetGwanCodeOneGroup@CDispMain@@QAE?AV?$CStringT@DV?$StrTraitMFC_DLL@DV?$ChTraitsCRT@D@ATL@@@@@ATL@@PBD0@Z
  00037	e9 00 00 00 00	 jmp	 ___CxxFrameHandler3
text$x	ENDS
?GetGwanCodeOneGroup@CDispMain@@QAE?AV?$CStringT@DV?$StrTraitMFC_DLL@DV?$ChTraitsCRT@D@ATL@@@@@ATL@@PBD0@Z ENDP ; CDispMain::GetGwanCodeOneGroup
; Function compile flags: /Ogtp
; File D:\git\src\IBK\IBK_DRFN\ProjSrc\SrcDrfn\inc\DispMain.cpp
;	COMDAT ?NotifyEvent@CDispMain@@QAEXPBD0@Z
_TEXT	SEGMENT
_szKey$ = 8						; size = 4
_szData$ = 12						; size = 4
?NotifyEvent@CDispMain@@QAEXPBD0@Z PROC			; CDispMain::NotifyEvent, COMDAT
; _this$ = ecx

; 211  : {

  00000	55		 push	 ebp
  00001	8b ec		 mov	 ebp, esp

; 212  : 	static BYTE parms[] =
; 213  : 		VTS_BSTR VTS_BSTR;
; 214  : 	InvokeHelper(m_pdID[IIx_NotifyEvent], DISPATCH_METHOD, VT_EMPTY, NULL, parms,

  00003	ff 75 0c	 push	 DWORD PTR _szData$[ebp]
  00006	8b 41 0c	 mov	 eax, DWORD PTR [ecx+12]
  00009	ff 75 08	 push	 DWORD PTR _szKey$[ebp]
  0000c	68 00 00 00 00	 push	 OFFSET ?parms@?1??NotifyEvent@CDispMain@@QAEXPBD0@Z@4PAEA
  00011	6a 00		 push	 0
  00013	6a 00		 push	 0
  00015	6a 01		 push	 1
  00017	ff 70 44	 push	 DWORD PTR [eax+68]
  0001a	51		 push	 ecx
  0001b	e8 00 00 00 00	 call	 ?InvokeHelper@COleDispatchDriver@@QAAXJGGPAXPBEZZ ; COleDispatchDriver::InvokeHelper
  00020	83 c4 20	 add	 esp, 32			; 00000020H

; 215  : 		 szKey, szData);
; 216  : }

  00023	5d		 pop	 ebp
  00024	c2 08 00	 ret	 8
?NotifyEvent@CDispMain@@QAEXPBD0@Z ENDP			; CDispMain::NotifyEvent
_TEXT	ENDS
; Function compile flags: /Ogtp
; File D:\git\src\IBK\IBK_DRFN\ProjSrc\SrcDrfn\inc\DispMain.cpp
;	COMDAT ?ShowDialog@CDispMain@@QAEFPBDFF@Z
_TEXT	SEGMENT
_szKey$ = 8						; size = 4
_nParam1$ = 12						; size = 2
_result$ = 16						; size = 2
_nParam2$ = 16						; size = 2
?ShowDialog@CDispMain@@QAEFPBDFF@Z PROC			; CDispMain::ShowDialog, COMDAT
; _this$ = ecx

; 201  : {

  00000	55		 push	 ebp
  00001	8b ec		 mov	 ebp, esp

; 202  : 	short result;
; 203  : 	static BYTE parms[] =
; 204  : 		VTS_BSTR VTS_I2 VTS_I2;
; 205  : 	InvokeHelper(m_pdID[IIx_ShowDialog], DISPATCH_METHOD, VT_I2, (void*)&result, parms,

  00003	0f bf 45 10	 movsx	 eax, WORD PTR _nParam2$[ebp]
  00007	50		 push	 eax
  00008	0f bf 45 0c	 movsx	 eax, WORD PTR _nParam1$[ebp]
  0000c	50		 push	 eax
  0000d	68 00 00 00 00	 push	 OFFSET ?parms@?1??ShowDialog@CDispMain@@QAEFPBDFF@Z@4PAEA
  00012	8d 45 10	 lea	 eax, DWORD PTR _result$[ebp]
  00015	50		 push	 eax
  00016	8b 41 0c	 mov	 eax, DWORD PTR [ecx+12]
  00019	6a 02		 push	 2
  0001b	6a 01		 push	 1
  0001d	ff 70 40	 push	 DWORD PTR [eax+64]
  00020	51		 push	 ecx
  00021	e8 00 00 00 00	 call	 ?InvokeHelper@COleDispatchDriver@@QAAXJGGPAXPBEZZ ; COleDispatchDriver::InvokeHelper

; 206  : 		nParam1, nParam2);
; 207  : 	return result;

  00026	66 8b 45 10	 mov	 ax, WORD PTR _result$[ebp]
  0002a	83 c4 20	 add	 esp, 32			; 00000020H

; 208  : }

  0002d	5d		 pop	 ebp
  0002e	c2 0c 00	 ret	 12			; 0000000cH
?ShowDialog@CDispMain@@QAEFPBDFF@Z ENDP			; CDispMain::ShowDialog
_TEXT	ENDS
; Function compile flags: /Ogtp
; File D:\git\src\IBK\IBK_DRFN\ProjSrc\SrcDrfn\inc\DispMain.cpp
;	COMDAT ?ClearMessageBar@CDispMain@@QAEXXZ
_TEXT	SEGMENT
?ClearMessageBar@CDispMain@@QAEXXZ PROC			; CDispMain::ClearMessageBar, COMDAT
; _this$ = ecx

; 197  : 	InvokeHelper(m_pdID[IIx_ClearMessageBar], DISPATCH_METHOD, VT_EMPTY, NULL, NULL);

  00000	8b 41 0c	 mov	 eax, DWORD PTR [ecx+12]
  00003	6a 00		 push	 0
  00005	6a 00		 push	 0
  00007	6a 00		 push	 0
  00009	6a 01		 push	 1
  0000b	ff 70 3c	 push	 DWORD PTR [eax+60]
  0000e	51		 push	 ecx
  0000f	e8 00 00 00 00	 call	 ?InvokeHelper@COleDispatchDriver@@QAAXJGGPAXPBEZZ ; COleDispatchDriver::InvokeHelper
  00014	83 c4 18	 add	 esp, 24			; 00000018H

; 198  : }

  00017	c3		 ret	 0
?ClearMessageBar@CDispMain@@QAEXXZ ENDP			; CDispMain::ClearMessageBar
_TEXT	ENDS
; Function compile flags: /Ogtp
; File D:\git\src\IBK\IBK_DRFN\ProjSrc\SrcDrfn\inc\DispMain.cpp
;	COMDAT ?GetGwanCode@CDispMain@@QAE?AV?$CStringT@DV?$StrTraitMFC_DLL@DV?$ChTraitsCRT@D@ATL@@@@@ATL@@PBD@Z
_TEXT	SEGMENT
$T2 = -16						; size = 4
__$EHRec$ = -12						; size = 12
___$ReturnUdt$ = 8					; size = 4
_szKey$ = 12						; size = 4
?GetGwanCode@CDispMain@@QAE?AV?$CStringT@DV?$StrTraitMFC_DLL@DV?$ChTraitsCRT@D@ATL@@@@@ATL@@PBD@Z PROC ; CDispMain::GetGwanCode, COMDAT
; _this$ = ecx

; 186  : {

  00000	55		 push	 ebp
  00001	8b ec		 mov	 ebp, esp
  00003	6a ff		 push	 -1
  00005	68 00 00 00 00	 push	 __ehhandler$?GetGwanCode@CDispMain@@QAE?AV?$CStringT@DV?$StrTraitMFC_DLL@DV?$ChTraitsCRT@D@ATL@@@@@ATL@@PBD@Z
  0000a	64 a1 00 00 00
	00		 mov	 eax, DWORD PTR fs:0
  00010	50		 push	 eax
  00011	51		 push	 ecx
  00012	56		 push	 esi
  00013	57		 push	 edi
  00014	a1 00 00 00 00	 mov	 eax, DWORD PTR ___security_cookie
  00019	33 c5		 xor	 eax, ebp
  0001b	50		 push	 eax
  0001c	8d 45 f4	 lea	 eax, DWORD PTR __$EHRec$[ebp]
  0001f	64 a3 00 00 00
	00		 mov	 DWORD PTR fs:0, eax
  00025	8b f1		 mov	 esi, ecx
  00027	c7 45 f0 00 00
	00 00		 mov	 DWORD PTR $T2[ebp], 0

; 187  : 	CString result;

  0002e	8b 7d 08	 mov	 edi, DWORD PTR ___$ReturnUdt$[ebp]
  00031	8b cf		 mov	 ecx, edi
  00033	ff 15 00 00 00
	00		 call	 DWORD PTR __imp_??0?$CStringT@DV?$StrTraitMFC_DLL@DV?$ChTraitsCRT@D@ATL@@@@@ATL@@QAE@XZ

; 188  : 	static BYTE parms[] =
; 189  : 		VTS_BSTR;
; 190  : 	InvokeHelper(m_pdID[IIx_GetGwanCode], DISPATCH_METHOD, VT_BSTR, (void*)&result, parms,
; 191  : 		szKey);
; 192  : 	return result;

  00039	ff 75 0c	 push	 DWORD PTR _szKey$[ebp]
  0003c	8b 4e 0c	 mov	 ecx, DWORD PTR [esi+12]
  0003f	68 00 00 00 00	 push	 OFFSET ?parms@?1??GetGwanCode@CDispMain@@QAE?AV?$CStringT@DV?$StrTraitMFC_DLL@DV?$ChTraitsCRT@D@ATL@@@@@ATL@@PBD@Z@4PAEA
  00044	57		 push	 edi
  00045	6a 08		 push	 8
  00047	6a 01		 push	 1
  00049	ff 71 38	 push	 DWORD PTR [ecx+56]
  0004c	c7 45 fc 00 00
	00 00		 mov	 DWORD PTR __$EHRec$[ebp+8], 0
  00053	56		 push	 esi
  00054	c7 45 f0 01 00
	00 00		 mov	 DWORD PTR $T2[ebp], 1
  0005b	e8 00 00 00 00	 call	 ?InvokeHelper@COleDispatchDriver@@QAAXJGGPAXPBEZZ ; COleDispatchDriver::InvokeHelper
  00060	83 c4 1c	 add	 esp, 28			; 0000001cH
  00063	8b c7		 mov	 eax, edi

; 193  : }

  00065	8b 4d f4	 mov	 ecx, DWORD PTR __$EHRec$[ebp]
  00068	64 89 0d 00 00
	00 00		 mov	 DWORD PTR fs:0, ecx
  0006f	59		 pop	 ecx
  00070	5f		 pop	 edi
  00071	5e		 pop	 esi
  00072	8b e5		 mov	 esp, ebp
  00074	5d		 pop	 ebp
  00075	c2 08 00	 ret	 8
_TEXT	ENDS
;	COMDAT text$x
text$x	SEGMENT
__unwindfunclet$?GetGwanCode@CDispMain@@QAE?AV?$CStringT@DV?$StrTraitMFC_DLL@DV?$ChTraitsCRT@D@ATL@@@@@ATL@@PBD@Z$0:
  00000	8b 45 f0	 mov	 eax, DWORD PTR $T2[ebp]
  00003	83 e0 01	 and	 eax, 1
  00006	0f 84 0d 00 00
	00		 je	 $LN4@GetGwanCod
  0000c	83 65 f0 fe	 and	 DWORD PTR $T2[ebp], -2	; fffffffeH
  00010	8b 4d 08	 mov	 ecx, DWORD PTR ___$ReturnUdt$[ebp]
  00013	ff 25 00 00 00
	00		 jmp	 DWORD PTR __imp_??1?$CStringT@DV?$StrTraitMFC_DLL@DV?$ChTraitsCRT@D@ATL@@@@@ATL@@QAE@XZ
$LN4@GetGwanCod:
  00019	c3		 ret	 0
  0001a	cc		 int	 3
  0001b	cc		 int	 3
  0001c	cc		 int	 3
  0001d	cc		 int	 3
  0001e	cc		 int	 3
__ehhandler$?GetGwanCode@CDispMain@@QAE?AV?$CStringT@DV?$StrTraitMFC_DLL@DV?$ChTraitsCRT@D@ATL@@@@@ATL@@PBD@Z:
  0001f	90		 npad	 1
  00020	90		 npad	 1
  00021	8b 54 24 08	 mov	 edx, DWORD PTR [esp+8]
  00025	8d 42 0c	 lea	 eax, DWORD PTR [edx+12]
  00028	8b 4a f0	 mov	 ecx, DWORD PTR [edx-16]
  0002b	33 c8		 xor	 ecx, eax
  0002d	e8 00 00 00 00	 call	 @__security_check_cookie@4
  00032	b8 00 00 00 00	 mov	 eax, OFFSET __ehfuncinfo$?GetGwanCode@CDispMain@@QAE?AV?$CStringT@DV?$StrTraitMFC_DLL@DV?$ChTraitsCRT@D@ATL@@@@@ATL@@PBD@Z
  00037	e9 00 00 00 00	 jmp	 ___CxxFrameHandler3
text$x	ENDS
?GetGwanCode@CDispMain@@QAE?AV?$CStringT@DV?$StrTraitMFC_DLL@DV?$ChTraitsCRT@D@ATL@@@@@ATL@@PBD@Z ENDP ; CDispMain::GetGwanCode
; Function compile flags: /Ogtp
; File D:\git\src\IBK\IBK_DRFN\ProjSrc\SrcDrfn\inc\DispMain.cpp
;	COMDAT ?GetGwanList@CDispMain@@QAE?AV?$CStringT@DV?$StrTraitMFC_DLL@DV?$ChTraitsCRT@D@ATL@@@@@ATL@@XZ
_TEXT	SEGMENT
$T2 = -16						; size = 4
__$EHRec$ = -12						; size = 12
___$ReturnUdt$ = 8					; size = 4
?GetGwanList@CDispMain@@QAE?AV?$CStringT@DV?$StrTraitMFC_DLL@DV?$ChTraitsCRT@D@ATL@@@@@ATL@@XZ PROC ; CDispMain::GetGwanList, COMDAT
; _this$ = ecx

; 179  : {

  00000	55		 push	 ebp
  00001	8b ec		 mov	 ebp, esp
  00003	6a ff		 push	 -1
  00005	68 00 00 00 00	 push	 __ehhandler$?GetGwanList@CDispMain@@QAE?AV?$CStringT@DV?$StrTraitMFC_DLL@DV?$ChTraitsCRT@D@ATL@@@@@ATL@@XZ
  0000a	64 a1 00 00 00
	00		 mov	 eax, DWORD PTR fs:0
  00010	50		 push	 eax
  00011	51		 push	 ecx
  00012	56		 push	 esi
  00013	57		 push	 edi
  00014	a1 00 00 00 00	 mov	 eax, DWORD PTR ___security_cookie
  00019	33 c5		 xor	 eax, ebp
  0001b	50		 push	 eax
  0001c	8d 45 f4	 lea	 eax, DWORD PTR __$EHRec$[ebp]
  0001f	64 a3 00 00 00
	00		 mov	 DWORD PTR fs:0, eax
  00025	8b f1		 mov	 esi, ecx
  00027	c7 45 f0 00 00
	00 00		 mov	 DWORD PTR $T2[ebp], 0

; 180  : 	CString result;

  0002e	8b 7d 08	 mov	 edi, DWORD PTR ___$ReturnUdt$[ebp]
  00031	8b cf		 mov	 ecx, edi
  00033	ff 15 00 00 00
	00		 call	 DWORD PTR __imp_??0?$CStringT@DV?$StrTraitMFC_DLL@DV?$ChTraitsCRT@D@ATL@@@@@ATL@@QAE@XZ

; 181  : 	InvokeHelper(m_pdID[IIx_GetGwanList], DISPATCH_METHOD, VT_BSTR, (void*)&result, NULL);
; 182  : 	return result;

  00039	8b 4e 0c	 mov	 ecx, DWORD PTR [esi+12]
  0003c	6a 00		 push	 0
  0003e	57		 push	 edi
  0003f	6a 08		 push	 8
  00041	6a 01		 push	 1
  00043	ff 71 34	 push	 DWORD PTR [ecx+52]
  00046	c7 45 fc 00 00
	00 00		 mov	 DWORD PTR __$EHRec$[ebp+8], 0
  0004d	56		 push	 esi
  0004e	c7 45 f0 01 00
	00 00		 mov	 DWORD PTR $T2[ebp], 1
  00055	e8 00 00 00 00	 call	 ?InvokeHelper@COleDispatchDriver@@QAAXJGGPAXPBEZZ ; COleDispatchDriver::InvokeHelper
  0005a	83 c4 18	 add	 esp, 24			; 00000018H
  0005d	8b c7		 mov	 eax, edi

; 183  : }

  0005f	8b 4d f4	 mov	 ecx, DWORD PTR __$EHRec$[ebp]
  00062	64 89 0d 00 00
	00 00		 mov	 DWORD PTR fs:0, ecx
  00069	59		 pop	 ecx
  0006a	5f		 pop	 edi
  0006b	5e		 pop	 esi
  0006c	8b e5		 mov	 esp, ebp
  0006e	5d		 pop	 ebp
  0006f	c2 04 00	 ret	 4
_TEXT	ENDS
;	COMDAT text$x
text$x	SEGMENT
__unwindfunclet$?GetGwanList@CDispMain@@QAE?AV?$CStringT@DV?$StrTraitMFC_DLL@DV?$ChTraitsCRT@D@ATL@@@@@ATL@@XZ$0:
  00000	8b 45 f0	 mov	 eax, DWORD PTR $T2[ebp]
  00003	83 e0 01	 and	 eax, 1
  00006	0f 84 0d 00 00
	00		 je	 $LN4@GetGwanLis
  0000c	83 65 f0 fe	 and	 DWORD PTR $T2[ebp], -2	; fffffffeH
  00010	8b 4d 08	 mov	 ecx, DWORD PTR ___$ReturnUdt$[ebp]
  00013	ff 25 00 00 00
	00		 jmp	 DWORD PTR __imp_??1?$CStringT@DV?$StrTraitMFC_DLL@DV?$ChTraitsCRT@D@ATL@@@@@ATL@@QAE@XZ
$LN4@GetGwanLis:
  00019	c3		 ret	 0
  0001a	cc		 int	 3
  0001b	cc		 int	 3
  0001c	cc		 int	 3
  0001d	cc		 int	 3
  0001e	cc		 int	 3
__ehhandler$?GetGwanList@CDispMain@@QAE?AV?$CStringT@DV?$StrTraitMFC_DLL@DV?$ChTraitsCRT@D@ATL@@@@@ATL@@XZ:
  0001f	90		 npad	 1
  00020	90		 npad	 1
  00021	8b 54 24 08	 mov	 edx, DWORD PTR [esp+8]
  00025	8d 42 0c	 lea	 eax, DWORD PTR [edx+12]
  00028	8b 4a f0	 mov	 ecx, DWORD PTR [edx-16]
  0002b	33 c8		 xor	 ecx, eax
  0002d	e8 00 00 00 00	 call	 @__security_check_cookie@4
  00032	b8 00 00 00 00	 mov	 eax, OFFSET __ehfuncinfo$?GetGwanList@CDispMain@@QAE?AV?$CStringT@DV?$StrTraitMFC_DLL@DV?$ChTraitsCRT@D@ATL@@@@@ATL@@XZ
  00037	e9 00 00 00 00	 jmp	 ___CxxFrameHandler3
text$x	ENDS
?GetGwanList@CDispMain@@QAE?AV?$CStringT@DV?$StrTraitMFC_DLL@DV?$ChTraitsCRT@D@ATL@@@@@ATL@@XZ ENDP ; CDispMain::GetGwanList
; Function compile flags: /Ogtp
; File D:\git\src\IBK\IBK_DRFN\ProjSrc\SrcDrfn\inc\DispMain.cpp
;	COMDAT ?SetOpenMapStyle@CDispMain@@QAEXFFFF@Z
_TEXT	SEGMENT
_nType$ = 8						; size = 2
_nInfo1$ = 12						; size = 2
_nInfo2$ = 16						; size = 2
_nMessageBar$ = 20					; size = 2
?SetOpenMapStyle@CDispMain@@QAEXFFFF@Z PROC		; CDispMain::SetOpenMapStyle, COMDAT
; _this$ = ecx

; 171  : {

  00000	55		 push	 ebp
  00001	8b ec		 mov	 ebp, esp

; 172  : 	static BYTE parms[] =
; 173  : 		VTS_I2 VTS_I2 VTS_I2 VTS_I2;
; 174  : 	InvokeHelper(m_pdID[IIx_SetOpenMapStyle], DISPATCH_METHOD, VT_EMPTY, NULL, parms,

  00003	0f bf 45 14	 movsx	 eax, WORD PTR _nMessageBar$[ebp]
  00007	50		 push	 eax
  00008	0f bf 45 10	 movsx	 eax, WORD PTR _nInfo2$[ebp]
  0000c	50		 push	 eax
  0000d	0f bf 45 0c	 movsx	 eax, WORD PTR _nInfo1$[ebp]
  00011	50		 push	 eax
  00012	0f bf 45 08	 movsx	 eax, WORD PTR _nType$[ebp]
  00016	50		 push	 eax
  00017	8b 41 0c	 mov	 eax, DWORD PTR [ecx+12]
  0001a	68 00 00 00 00	 push	 OFFSET ?parms@?1??SetOpenMapStyle@CDispMain@@QAEXFFFF@Z@4PAEA
  0001f	6a 00		 push	 0
  00021	6a 00		 push	 0
  00023	6a 01		 push	 1
  00025	ff 70 30	 push	 DWORD PTR [eax+48]
  00028	51		 push	 ecx
  00029	e8 00 00 00 00	 call	 ?InvokeHelper@COleDispatchDriver@@QAAXJGGPAXPBEZZ ; COleDispatchDriver::InvokeHelper
  0002e	83 c4 28	 add	 esp, 40			; 00000028H

; 175  : 		 nType, nInfo1, nInfo2, nMessageBar);
; 176  : }

  00031	5d		 pop	 ebp
  00032	c2 10 00	 ret	 16			; 00000010H
?SetOpenMapStyle@CDispMain@@QAEXFFFF@Z ENDP		; CDispMain::SetOpenMapStyle
_TEXT	ENDS
; Function compile flags: /Ogtp
; File D:\git\src\IBK\IBK_DRFN\ProjSrc\SrcDrfn\inc\DispMain.cpp
;	COMDAT ?GetAcctList@CDispMain@@QAE?AV?$CStringT@DV?$StrTraitMFC_DLL@DV?$ChTraitsCRT@D@ATL@@@@@ATL@@XZ
_TEXT	SEGMENT
$T2 = -16						; size = 4
__$EHRec$ = -12						; size = 12
___$ReturnUdt$ = 8					; size = 4
?GetAcctList@CDispMain@@QAE?AV?$CStringT@DV?$StrTraitMFC_DLL@DV?$ChTraitsCRT@D@ATL@@@@@ATL@@XZ PROC ; CDispMain::GetAcctList, COMDAT
; _this$ = ecx

; 164  : {

  00000	55		 push	 ebp
  00001	8b ec		 mov	 ebp, esp
  00003	6a ff		 push	 -1
  00005	68 00 00 00 00	 push	 __ehhandler$?GetAcctList@CDispMain@@QAE?AV?$CStringT@DV?$StrTraitMFC_DLL@DV?$ChTraitsCRT@D@ATL@@@@@ATL@@XZ
  0000a	64 a1 00 00 00
	00		 mov	 eax, DWORD PTR fs:0
  00010	50		 push	 eax
  00011	51		 push	 ecx
  00012	56		 push	 esi
  00013	57		 push	 edi
  00014	a1 00 00 00 00	 mov	 eax, DWORD PTR ___security_cookie
  00019	33 c5		 xor	 eax, ebp
  0001b	50		 push	 eax
  0001c	8d 45 f4	 lea	 eax, DWORD PTR __$EHRec$[ebp]
  0001f	64 a3 00 00 00
	00		 mov	 DWORD PTR fs:0, eax
  00025	8b f1		 mov	 esi, ecx
  00027	c7 45 f0 00 00
	00 00		 mov	 DWORD PTR $T2[ebp], 0

; 165  : 	CString result;

  0002e	8b 7d 08	 mov	 edi, DWORD PTR ___$ReturnUdt$[ebp]
  00031	8b cf		 mov	 ecx, edi
  00033	ff 15 00 00 00
	00		 call	 DWORD PTR __imp_??0?$CStringT@DV?$StrTraitMFC_DLL@DV?$ChTraitsCRT@D@ATL@@@@@ATL@@QAE@XZ

; 166  : 	InvokeHelper(m_pdID[IIx_GetAcctList], DISPATCH_METHOD, VT_BSTR, (void*)&result, NULL);
; 167  : 	return result;

  00039	8b 4e 0c	 mov	 ecx, DWORD PTR [esi+12]
  0003c	6a 00		 push	 0
  0003e	57		 push	 edi
  0003f	6a 08		 push	 8
  00041	6a 01		 push	 1
  00043	ff 71 2c	 push	 DWORD PTR [ecx+44]
  00046	c7 45 fc 00 00
	00 00		 mov	 DWORD PTR __$EHRec$[ebp+8], 0
  0004d	56		 push	 esi
  0004e	c7 45 f0 01 00
	00 00		 mov	 DWORD PTR $T2[ebp], 1
  00055	e8 00 00 00 00	 call	 ?InvokeHelper@COleDispatchDriver@@QAAXJGGPAXPBEZZ ; COleDispatchDriver::InvokeHelper
  0005a	83 c4 18	 add	 esp, 24			; 00000018H
  0005d	8b c7		 mov	 eax, edi

; 168  : }

  0005f	8b 4d f4	 mov	 ecx, DWORD PTR __$EHRec$[ebp]
  00062	64 89 0d 00 00
	00 00		 mov	 DWORD PTR fs:0, ecx
  00069	59		 pop	 ecx
  0006a	5f		 pop	 edi
  0006b	5e		 pop	 esi
  0006c	8b e5		 mov	 esp, ebp
  0006e	5d		 pop	 ebp
  0006f	c2 04 00	 ret	 4
_TEXT	ENDS
;	COMDAT text$x
text$x	SEGMENT
__unwindfunclet$?GetAcctList@CDispMain@@QAE?AV?$CStringT@DV?$StrTraitMFC_DLL@DV?$ChTraitsCRT@D@ATL@@@@@ATL@@XZ$0:
  00000	8b 45 f0	 mov	 eax, DWORD PTR $T2[ebp]
  00003	83 e0 01	 and	 eax, 1
  00006	0f 84 0d 00 00
	00		 je	 $LN4@GetAcctLis
  0000c	83 65 f0 fe	 and	 DWORD PTR $T2[ebp], -2	; fffffffeH
  00010	8b 4d 08	 mov	 ecx, DWORD PTR ___$ReturnUdt$[ebp]
  00013	ff 25 00 00 00
	00		 jmp	 DWORD PTR __imp_??1?$CStringT@DV?$StrTraitMFC_DLL@DV?$ChTraitsCRT@D@ATL@@@@@ATL@@QAE@XZ
$LN4@GetAcctLis:
  00019	c3		 ret	 0
  0001a	cc		 int	 3
  0001b	cc		 int	 3
  0001c	cc		 int	 3
  0001d	cc		 int	 3
  0001e	cc		 int	 3
__ehhandler$?GetAcctList@CDispMain@@QAE?AV?$CStringT@DV?$StrTraitMFC_DLL@DV?$ChTraitsCRT@D@ATL@@@@@ATL@@XZ:
  0001f	90		 npad	 1
  00020	90		 npad	 1
  00021	8b 54 24 08	 mov	 edx, DWORD PTR [esp+8]
  00025	8d 42 0c	 lea	 eax, DWORD PTR [edx+12]
  00028	8b 4a f0	 mov	 ecx, DWORD PTR [edx-16]
  0002b	33 c8		 xor	 ecx, eax
  0002d	e8 00 00 00 00	 call	 @__security_check_cookie@4
  00032	b8 00 00 00 00	 mov	 eax, OFFSET __ehfuncinfo$?GetAcctList@CDispMain@@QAE?AV?$CStringT@DV?$StrTraitMFC_DLL@DV?$ChTraitsCRT@D@ATL@@@@@ATL@@XZ
  00037	e9 00 00 00 00	 jmp	 ___CxxFrameHandler3
text$x	ENDS
?GetAcctList@CDispMain@@QAE?AV?$CStringT@DV?$StrTraitMFC_DLL@DV?$ChTraitsCRT@D@ATL@@@@@ATL@@XZ ENDP ; CDispMain::GetAcctList
; Function compile flags: /Ogtp
; File D:\git\src\IBK\IBK_DRFN\ProjSrc\SrcDrfn\inc\DispMain.cpp
;	COMDAT ?Restart@CDispMain@@QAEXXZ
_TEXT	SEGMENT
?Restart@CDispMain@@QAEXXZ PROC				; CDispMain::Restart, COMDAT
; _this$ = ecx

; 160  : 	InvokeHelper(m_pdID[IIx_Restart], DISPATCH_METHOD, VT_EMPTY, NULL, NULL);

  00000	8b 41 0c	 mov	 eax, DWORD PTR [ecx+12]
  00003	6a 00		 push	 0
  00005	6a 00		 push	 0
  00007	6a 00		 push	 0
  00009	6a 01		 push	 1
  0000b	ff 70 28	 push	 DWORD PTR [eax+40]
  0000e	51		 push	 ecx
  0000f	e8 00 00 00 00	 call	 ?InvokeHelper@COleDispatchDriver@@QAAXJGGPAXPBEZZ ; COleDispatchDriver::InvokeHelper
  00014	83 c4 18	 add	 esp, 24			; 00000018H

; 161  : }

  00017	c3		 ret	 0
?Restart@CDispMain@@QAEXXZ ENDP				; CDispMain::Restart
_TEXT	ENDS
; Function compile flags: /Ogtp
; File D:\git\src\IBK\IBK_DRFN\ProjSrc\SrcDrfn\inc\DispMain.cpp
;	COMDAT ?CloseMain@CDispMain@@QAEXF@Z
_TEXT	SEGMENT
_nFlag$ = 8						; size = 2
?CloseMain@CDispMain@@QAEXF@Z PROC			; CDispMain::CloseMain, COMDAT
; _this$ = ecx

; 151  : {

  00000	55		 push	 ebp
  00001	8b ec		 mov	 ebp, esp

; 152  : 	static BYTE parms[] =
; 153  : 		VTS_I2;
; 154  : 	InvokeHelper(m_pdID[IIx_CloseMain], DISPATCH_METHOD, VT_EMPTY, NULL, parms,

  00003	0f bf 45 08	 movsx	 eax, WORD PTR _nFlag$[ebp]
  00007	50		 push	 eax
  00008	8b 41 0c	 mov	 eax, DWORD PTR [ecx+12]
  0000b	68 00 00 00 00	 push	 OFFSET ?parms@?1??CloseMain@CDispMain@@QAEXF@Z@4PAEA
  00010	6a 00		 push	 0
  00012	6a 00		 push	 0
  00014	6a 01		 push	 1
  00016	ff 70 24	 push	 DWORD PTR [eax+36]
  00019	51		 push	 ecx
  0001a	e8 00 00 00 00	 call	 ?InvokeHelper@COleDispatchDriver@@QAAXJGGPAXPBEZZ ; COleDispatchDriver::InvokeHelper
  0001f	83 c4 1c	 add	 esp, 28			; 0000001cH

; 155  : 		 nFlag);
; 156  : }

  00022	5d		 pop	 ebp
  00023	c2 04 00	 ret	 4
?CloseMain@CDispMain@@QAEXF@Z ENDP			; CDispMain::CloseMain
_TEXT	ENDS
; Function compile flags: /Ogtp
; File D:\git\src\IBK\IBK_DRFN\ProjSrc\SrcDrfn\inc\DispMain.cpp
;	COMDAT ?RemoveGlobalData@CDispMain@@QAEHPBD0@Z
_TEXT	SEGMENT
_szKey$ = 8						; size = 4
_result$ = 12						; size = 4
_szValue$ = 12						; size = 4
?RemoveGlobalData@CDispMain@@QAEHPBD0@Z PROC		; CDispMain::RemoveGlobalData, COMDAT
; _this$ = ecx

; 141  : {

  00000	55		 push	 ebp
  00001	8b ec		 mov	 ebp, esp

; 142  : 	BOOL result;
; 143  : 	static BYTE parms[] =
; 144  : 		VTS_BSTR VTS_BSTR;
; 145  : 	InvokeHelper(m_pdID[IIx_RemoveGlobalData], DISPATCH_METHOD, VT_BOOL, (void*)&result, parms,

  00003	ff 75 0c	 push	 DWORD PTR _szValue$[ebp]
  00006	8d 45 0c	 lea	 eax, DWORD PTR _result$[ebp]
  00009	ff 75 08	 push	 DWORD PTR _szKey$[ebp]
  0000c	68 00 00 00 00	 push	 OFFSET ?parms@?1??RemoveGlobalData@CDispMain@@QAEHPBD0@Z@4PAEA
  00011	50		 push	 eax
  00012	8b 41 0c	 mov	 eax, DWORD PTR [ecx+12]
  00015	6a 0b		 push	 11			; 0000000bH
  00017	6a 01		 push	 1
  00019	ff 70 20	 push	 DWORD PTR [eax+32]
  0001c	51		 push	 ecx
  0001d	e8 00 00 00 00	 call	 ?InvokeHelper@COleDispatchDriver@@QAAXJGGPAXPBEZZ ; COleDispatchDriver::InvokeHelper

; 146  : 		szKey, szValue);
; 147  : 	return result;

  00022	8b 45 0c	 mov	 eax, DWORD PTR _result$[ebp]
  00025	83 c4 20	 add	 esp, 32			; 00000020H

; 148  : }

  00028	5d		 pop	 ebp
  00029	c2 08 00	 ret	 8
?RemoveGlobalData@CDispMain@@QAEHPBD0@Z ENDP		; CDispMain::RemoveGlobalData
_TEXT	ENDS
; Function compile flags: /Ogtp
; File D:\git\src\IBK\IBK_DRFN\ProjSrc\SrcDrfn\inc\DispMain.cpp
;	COMDAT ?GetFrameVariable@CDispMain@@QAE?AV?$CStringT@DV?$StrTraitMFC_DLL@DV?$ChTraitsCRT@D@ATL@@@@@ATL@@PBD@Z
_TEXT	SEGMENT
$T2 = -16						; size = 4
__$EHRec$ = -12						; size = 12
___$ReturnUdt$ = 8					; size = 4
_szKey$ = 12						; size = 4
?GetFrameVariable@CDispMain@@QAE?AV?$CStringT@DV?$StrTraitMFC_DLL@DV?$ChTraitsCRT@D@ATL@@@@@ATL@@PBD@Z PROC ; CDispMain::GetFrameVariable, COMDAT
; _this$ = ecx

; 131  : {

  00000	55		 push	 ebp
  00001	8b ec		 mov	 ebp, esp
  00003	6a ff		 push	 -1
  00005	68 00 00 00 00	 push	 __ehhandler$?GetFrameVariable@CDispMain@@QAE?AV?$CStringT@DV?$StrTraitMFC_DLL@DV?$ChTraitsCRT@D@ATL@@@@@ATL@@PBD@Z
  0000a	64 a1 00 00 00
	00		 mov	 eax, DWORD PTR fs:0
  00010	50		 push	 eax
  00011	51		 push	 ecx
  00012	56		 push	 esi
  00013	57		 push	 edi
  00014	a1 00 00 00 00	 mov	 eax, DWORD PTR ___security_cookie
  00019	33 c5		 xor	 eax, ebp
  0001b	50		 push	 eax
  0001c	8d 45 f4	 lea	 eax, DWORD PTR __$EHRec$[ebp]
  0001f	64 a3 00 00 00
	00		 mov	 DWORD PTR fs:0, eax
  00025	8b f1		 mov	 esi, ecx
  00027	c7 45 f0 00 00
	00 00		 mov	 DWORD PTR $T2[ebp], 0

; 132  : 	CString result;

  0002e	8b 7d 08	 mov	 edi, DWORD PTR ___$ReturnUdt$[ebp]
  00031	8b cf		 mov	 ecx, edi
  00033	ff 15 00 00 00
	00		 call	 DWORD PTR __imp_??0?$CStringT@DV?$StrTraitMFC_DLL@DV?$ChTraitsCRT@D@ATL@@@@@ATL@@QAE@XZ

; 133  : 	static BYTE parms[] =
; 134  : 		VTS_BSTR;
; 135  : 	InvokeHelper(m_pdID[IIx_GetFrameVariable], DISPATCH_METHOD, VT_BSTR, (void*)&result, parms,
; 136  : 		szKey);
; 137  : 	return result;

  00039	ff 75 0c	 push	 DWORD PTR _szKey$[ebp]
  0003c	8b 4e 0c	 mov	 ecx, DWORD PTR [esi+12]
  0003f	68 00 00 00 00	 push	 OFFSET ?parms@?1??GetFrameVariable@CDispMain@@QAE?AV?$CStringT@DV?$StrTraitMFC_DLL@DV?$ChTraitsCRT@D@ATL@@@@@ATL@@PBD@Z@4PAEA
  00044	57		 push	 edi
  00045	6a 08		 push	 8
  00047	6a 01		 push	 1
  00049	ff 71 1c	 push	 DWORD PTR [ecx+28]
  0004c	c7 45 fc 00 00
	00 00		 mov	 DWORD PTR __$EHRec$[ebp+8], 0
  00053	56		 push	 esi
  00054	c7 45 f0 01 00
	00 00		 mov	 DWORD PTR $T2[ebp], 1
  0005b	e8 00 00 00 00	 call	 ?InvokeHelper@COleDispatchDriver@@QAAXJGGPAXPBEZZ ; COleDispatchDriver::InvokeHelper
  00060	83 c4 1c	 add	 esp, 28			; 0000001cH
  00063	8b c7		 mov	 eax, edi

; 138  : }

  00065	8b 4d f4	 mov	 ecx, DWORD PTR __$EHRec$[ebp]
  00068	64 89 0d 00 00
	00 00		 mov	 DWORD PTR fs:0, ecx
  0006f	59		 pop	 ecx
  00070	5f		 pop	 edi
  00071	5e		 pop	 esi
  00072	8b e5		 mov	 esp, ebp
  00074	5d		 pop	 ebp
  00075	c2 08 00	 ret	 8
_TEXT	ENDS
;	COMDAT text$x
text$x	SEGMENT
__unwindfunclet$?GetFrameVariable@CDispMain@@QAE?AV?$CStringT@DV?$StrTraitMFC_DLL@DV?$ChTraitsCRT@D@ATL@@@@@ATL@@PBD@Z$0:
  00000	8b 45 f0	 mov	 eax, DWORD PTR $T2[ebp]
  00003	83 e0 01	 and	 eax, 1
  00006	0f 84 0d 00 00
	00		 je	 $LN4@GetFrameVa
  0000c	83 65 f0 fe	 and	 DWORD PTR $T2[ebp], -2	; fffffffeH
  00010	8b 4d 08	 mov	 ecx, DWORD PTR ___$ReturnUdt$[ebp]
  00013	ff 25 00 00 00
	00		 jmp	 DWORD PTR __imp_??1?$CStringT@DV?$StrTraitMFC_DLL@DV?$ChTraitsCRT@D@ATL@@@@@ATL@@QAE@XZ
$LN4@GetFrameVa:
  00019	c3		 ret	 0
  0001a	cc		 int	 3
  0001b	cc		 int	 3
  0001c	cc		 int	 3
  0001d	cc		 int	 3
  0001e	cc		 int	 3
__ehhandler$?GetFrameVariable@CDispMain@@QAE?AV?$CStringT@DV?$StrTraitMFC_DLL@DV?$ChTraitsCRT@D@ATL@@@@@ATL@@PBD@Z:
  0001f	90		 npad	 1
  00020	90		 npad	 1
  00021	8b 54 24 08	 mov	 edx, DWORD PTR [esp+8]
  00025	8d 42 0c	 lea	 eax, DWORD PTR [edx+12]
  00028	8b 4a f0	 mov	 ecx, DWORD PTR [edx-16]
  0002b	33 c8		 xor	 ecx, eax
  0002d	e8 00 00 00 00	 call	 @__security_check_cookie@4
  00032	b8 00 00 00 00	 mov	 eax, OFFSET __ehfuncinfo$?GetFrameVariable@CDispMain@@QAE?AV?$CStringT@DV?$StrTraitMFC_DLL@DV?$ChTraitsCRT@D@ATL@@@@@ATL@@PBD@Z
  00037	e9 00 00 00 00	 jmp	 ___CxxFrameHandler3
text$x	ENDS
?GetFrameVariable@CDispMain@@QAE?AV?$CStringT@DV?$StrTraitMFC_DLL@DV?$ChTraitsCRT@D@ATL@@@@@ATL@@PBD@Z ENDP ; CDispMain::GetFrameVariable
; Function compile flags: /Ogtp
; File D:\git\src\IBK\IBK_DRFN\ProjSrc\SrcDrfn\inc\DispMain.cpp
;	COMDAT ?SetFrameVariable@CDispMain@@QAEXPBD0@Z
_TEXT	SEGMENT
_szKey$ = 8						; size = 4
_szValue$ = 12						; size = 4
?SetFrameVariable@CDispMain@@QAEXPBD0@Z PROC		; CDispMain::SetFrameVariable, COMDAT
; _this$ = ecx

; 123  : {

  00000	55		 push	 ebp
  00001	8b ec		 mov	 ebp, esp

; 124  : 	static BYTE parms[] =
; 125  : 		VTS_BSTR VTS_BSTR;
; 126  : 	InvokeHelper(m_pdID[IIx_SetFrameVariable], DISPATCH_METHOD, VT_EMPTY, NULL, parms,

  00003	ff 75 0c	 push	 DWORD PTR _szValue$[ebp]
  00006	8b 41 0c	 mov	 eax, DWORD PTR [ecx+12]
  00009	ff 75 08	 push	 DWORD PTR _szKey$[ebp]
  0000c	68 00 00 00 00	 push	 OFFSET ?parms@?1??SetFrameVariable@CDispMain@@QAEXPBD0@Z@4PAEA
  00011	6a 00		 push	 0
  00013	6a 00		 push	 0
  00015	6a 01		 push	 1
  00017	ff 70 18	 push	 DWORD PTR [eax+24]
  0001a	51		 push	 ecx
  0001b	e8 00 00 00 00	 call	 ?InvokeHelper@COleDispatchDriver@@QAAXJGGPAXPBEZZ ; COleDispatchDriver::InvokeHelper
  00020	83 c4 20	 add	 esp, 32			; 00000020H

; 127  : 		 szKey, szValue);
; 128  : }

  00023	5d		 pop	 ebp
  00024	c2 08 00	 ret	 8
?SetFrameVariable@CDispMain@@QAEXPBD0@Z ENDP		; CDispMain::SetFrameVariable
_TEXT	ENDS
; Function compile flags: /Ogtp
; File D:\git\src\IBK\IBK_DRFN\ProjSrc\SrcDrfn\inc\DispMain.cpp
;	COMDAT ?GetGShareData@CDispMain@@QAE?AV?$CStringT@DV?$StrTraitMFC_DLL@DV?$ChTraitsCRT@D@ATL@@@@@ATL@@PBD@Z
_TEXT	SEGMENT
$T2 = -16						; size = 4
__$EHRec$ = -12						; size = 12
___$ReturnUdt$ = 8					; size = 4
_szKey$ = 12						; size = 4
?GetGShareData@CDispMain@@QAE?AV?$CStringT@DV?$StrTraitMFC_DLL@DV?$ChTraitsCRT@D@ATL@@@@@ATL@@PBD@Z PROC ; CDispMain::GetGShareData, COMDAT
; _this$ = ecx

; 113  : {

  00000	55		 push	 ebp
  00001	8b ec		 mov	 ebp, esp
  00003	6a ff		 push	 -1
  00005	68 00 00 00 00	 push	 __ehhandler$?GetGShareData@CDispMain@@QAE?AV?$CStringT@DV?$StrTraitMFC_DLL@DV?$ChTraitsCRT@D@ATL@@@@@ATL@@PBD@Z
  0000a	64 a1 00 00 00
	00		 mov	 eax, DWORD PTR fs:0
  00010	50		 push	 eax
  00011	51		 push	 ecx
  00012	56		 push	 esi
  00013	57		 push	 edi
  00014	a1 00 00 00 00	 mov	 eax, DWORD PTR ___security_cookie
  00019	33 c5		 xor	 eax, ebp
  0001b	50		 push	 eax
  0001c	8d 45 f4	 lea	 eax, DWORD PTR __$EHRec$[ebp]
  0001f	64 a3 00 00 00
	00		 mov	 DWORD PTR fs:0, eax
  00025	8b f1		 mov	 esi, ecx
  00027	c7 45 f0 00 00
	00 00		 mov	 DWORD PTR $T2[ebp], 0

; 114  : 	CString result;

  0002e	8b 7d 08	 mov	 edi, DWORD PTR ___$ReturnUdt$[ebp]
  00031	8b cf		 mov	 ecx, edi
  00033	ff 15 00 00 00
	00		 call	 DWORD PTR __imp_??0?$CStringT@DV?$StrTraitMFC_DLL@DV?$ChTraitsCRT@D@ATL@@@@@ATL@@QAE@XZ

; 115  : 	static BYTE parms[] =
; 116  : 		VTS_BSTR;
; 117  : 	InvokeHelper(m_pdID[IIx_GetGShareData], DISPATCH_METHOD, VT_BSTR, (void*)&result, parms,
; 118  : 		szKey);
; 119  : 	return result;

  00039	ff 75 0c	 push	 DWORD PTR _szKey$[ebp]
  0003c	8b 4e 0c	 mov	 ecx, DWORD PTR [esi+12]
  0003f	68 00 00 00 00	 push	 OFFSET ?parms@?1??GetGShareData@CDispMain@@QAE?AV?$CStringT@DV?$StrTraitMFC_DLL@DV?$ChTraitsCRT@D@ATL@@@@@ATL@@PBD@Z@4PAEA
  00044	57		 push	 edi
  00045	6a 08		 push	 8
  00047	6a 01		 push	 1
  00049	ff 71 14	 push	 DWORD PTR [ecx+20]
  0004c	c7 45 fc 00 00
	00 00		 mov	 DWORD PTR __$EHRec$[ebp+8], 0
  00053	56		 push	 esi
  00054	c7 45 f0 01 00
	00 00		 mov	 DWORD PTR $T2[ebp], 1
  0005b	e8 00 00 00 00	 call	 ?InvokeHelper@COleDispatchDriver@@QAAXJGGPAXPBEZZ ; COleDispatchDriver::InvokeHelper
  00060	83 c4 1c	 add	 esp, 28			; 0000001cH
  00063	8b c7		 mov	 eax, edi

; 120  : }

  00065	8b 4d f4	 mov	 ecx, DWORD PTR __$EHRec$[ebp]
  00068	64 89 0d 00 00
	00 00		 mov	 DWORD PTR fs:0, ecx
  0006f	59		 pop	 ecx
  00070	5f		 pop	 edi
  00071	5e		 pop	 esi
  00072	8b e5		 mov	 esp, ebp
  00074	5d		 pop	 ebp
  00075	c2 08 00	 ret	 8
_TEXT	ENDS
;	COMDAT text$x
text$x	SEGMENT
__unwindfunclet$?GetGShareData@CDispMain@@QAE?AV?$CStringT@DV?$StrTraitMFC_DLL@DV?$ChTraitsCRT@D@ATL@@@@@ATL@@PBD@Z$0:
  00000	8b 45 f0	 mov	 eax, DWORD PTR $T2[ebp]
  00003	83 e0 01	 and	 eax, 1
  00006	0f 84 0d 00 00
	00		 je	 $LN4@GetGShareD
  0000c	83 65 f0 fe	 and	 DWORD PTR $T2[ebp], -2	; fffffffeH
  00010	8b 4d 08	 mov	 ecx, DWORD PTR ___$ReturnUdt$[ebp]
  00013	ff 25 00 00 00
	00		 jmp	 DWORD PTR __imp_??1?$CStringT@DV?$StrTraitMFC_DLL@DV?$ChTraitsCRT@D@ATL@@@@@ATL@@QAE@XZ
$LN4@GetGShareD:
  00019	c3		 ret	 0
  0001a	cc		 int	 3
  0001b	cc		 int	 3
  0001c	cc		 int	 3
  0001d	cc		 int	 3
  0001e	cc		 int	 3
__ehhandler$?GetGShareData@CDispMain@@QAE?AV?$CStringT@DV?$StrTraitMFC_DLL@DV?$ChTraitsCRT@D@ATL@@@@@ATL@@PBD@Z:
  0001f	90		 npad	 1
  00020	90		 npad	 1
  00021	8b 54 24 08	 mov	 edx, DWORD PTR [esp+8]
  00025	8d 42 0c	 lea	 eax, DWORD PTR [edx+12]
  00028	8b 4a f0	 mov	 ecx, DWORD PTR [edx-16]
  0002b	33 c8		 xor	 ecx, eax
  0002d	e8 00 00 00 00	 call	 @__security_check_cookie@4
  00032	b8 00 00 00 00	 mov	 eax, OFFSET __ehfuncinfo$?GetGShareData@CDispMain@@QAE?AV?$CStringT@DV?$StrTraitMFC_DLL@DV?$ChTraitsCRT@D@ATL@@@@@ATL@@PBD@Z
  00037	e9 00 00 00 00	 jmp	 ___CxxFrameHandler3
text$x	ENDS
?GetGShareData@CDispMain@@QAE?AV?$CStringT@DV?$StrTraitMFC_DLL@DV?$ChTraitsCRT@D@ATL@@@@@ATL@@PBD@Z ENDP ; CDispMain::GetGShareData
; Function compile flags: /Ogtp
; File D:\git\src\IBK\IBK_DRFN\ProjSrc\SrcDrfn\inc\DispMain.cpp
;	COMDAT ?SetGShareData@CDispMain@@QAEXPBD0F@Z
_TEXT	SEGMENT
_szKey$ = 8						; size = 4
_szValue$ = 12						; size = 4
_nFlag$ = 16						; size = 2
?SetGShareData@CDispMain@@QAEXPBD0F@Z PROC		; CDispMain::SetGShareData, COMDAT
; _this$ = ecx

; 105  : {

  00000	55		 push	 ebp
  00001	8b ec		 mov	 ebp, esp

; 106  : 	static BYTE parms[] =
; 107  : 		VTS_BSTR VTS_BSTR VTS_I2;
; 108  : 	InvokeHelper(m_pdID[IIx_SetGShareData], DISPATCH_METHOD, VT_EMPTY, NULL, parms,

  00003	0f bf 45 10	 movsx	 eax, WORD PTR _nFlag$[ebp]
  00007	50		 push	 eax
  00008	ff 75 0c	 push	 DWORD PTR _szValue$[ebp]
  0000b	8b 41 0c	 mov	 eax, DWORD PTR [ecx+12]
  0000e	ff 75 08	 push	 DWORD PTR _szKey$[ebp]
  00011	68 00 00 00 00	 push	 OFFSET ?parms@?1??SetGShareData@CDispMain@@QAEXPBD0F@Z@4PAEA
  00016	6a 00		 push	 0
  00018	6a 00		 push	 0
  0001a	6a 01		 push	 1
  0001c	ff 70 10	 push	 DWORD PTR [eax+16]
  0001f	51		 push	 ecx
  00020	e8 00 00 00 00	 call	 ?InvokeHelper@COleDispatchDriver@@QAAXJGGPAXPBEZZ ; COleDispatchDriver::InvokeHelper
  00025	83 c4 24	 add	 esp, 36			; 00000024H

; 109  : 		 szKey, szValue, nFlag);
; 110  : }

  00028	5d		 pop	 ebp
  00029	c2 0c 00	 ret	 12			; 0000000cH
?SetGShareData@CDispMain@@QAEXPBD0F@Z ENDP		; CDispMain::SetGShareData
_TEXT	ENDS
; Function compile flags: /Ogtp
; File D:\git\src\IBK\IBK_DRFN\ProjSrc\SrcDrfn\inc\DispMain.cpp
;	COMDAT ?ChangeTabProperty@CDispMain@@QAEHFFFF@Z
_TEXT	SEGMENT
_nUnitScr$ = 8						; size = 2
_nTabPage$ = 12						; size = 2
_nType$ = 16						; size = 2
_result$ = 20						; size = 4
_nValue$ = 20						; size = 2
?ChangeTabProperty@CDispMain@@QAEHFFFF@Z PROC		; CDispMain::ChangeTabProperty, COMDAT
; _this$ = ecx

; 95   : {

  00000	55		 push	 ebp
  00001	8b ec		 mov	 ebp, esp

; 96   : 	BOOL result;
; 97   : 	static BYTE parms[] =
; 98   : 		VTS_I2 VTS_I2 VTS_I2 VTS_I2;
; 99   : 	InvokeHelper(m_pdID[IIx_ChangeTabProperty], DISPATCH_METHOD, VT_BOOL, (void*)&result, parms,

  00003	0f bf 45 14	 movsx	 eax, WORD PTR _nValue$[ebp]
  00007	50		 push	 eax
  00008	0f bf 45 10	 movsx	 eax, WORD PTR _nType$[ebp]
  0000c	50		 push	 eax
  0000d	0f bf 45 0c	 movsx	 eax, WORD PTR _nTabPage$[ebp]
  00011	50		 push	 eax
  00012	0f bf 45 08	 movsx	 eax, WORD PTR _nUnitScr$[ebp]
  00016	50		 push	 eax
  00017	68 00 00 00 00	 push	 OFFSET ?parms@?1??ChangeTabProperty@CDispMain@@QAEHFFFF@Z@4PAEA
  0001c	8d 45 14	 lea	 eax, DWORD PTR _result$[ebp]
  0001f	50		 push	 eax
  00020	8b 41 0c	 mov	 eax, DWORD PTR [ecx+12]
  00023	6a 0b		 push	 11			; 0000000bH
  00025	6a 01		 push	 1
  00027	ff 70 0c	 push	 DWORD PTR [eax+12]
  0002a	51		 push	 ecx
  0002b	e8 00 00 00 00	 call	 ?InvokeHelper@COleDispatchDriver@@QAAXJGGPAXPBEZZ ; COleDispatchDriver::InvokeHelper

; 100  : 		nUnitScr, nTabPage, nType, nValue);
; 101  : 	return result;

  00030	8b 45 14	 mov	 eax, DWORD PTR _result$[ebp]
  00033	83 c4 28	 add	 esp, 40			; 00000028H

; 102  : }

  00036	5d		 pop	 ebp
  00037	c2 10 00	 ret	 16			; 00000010H
?ChangeTabProperty@CDispMain@@QAEHFFFF@Z ENDP		; CDispMain::ChangeTabProperty
_TEXT	ENDS
; Function compile flags: /Ogtp
; File D:\git\src\IBK\IBK_DRFN\ProjSrc\SrcDrfn\inc\DispMain.cpp
;	COMDAT ?MsgBox@CDispMain@@QAEFPBD0F@Z
_TEXT	SEGMENT
_szMessage$ = 8						; size = 4
_szCaption$ = 12					; size = 4
_result$ = 16						; size = 2
_nFlags$ = 16						; size = 2
?MsgBox@CDispMain@@QAEFPBD0F@Z PROC			; CDispMain::MsgBox, COMDAT
; _this$ = ecx

; 85   : {

  00000	55		 push	 ebp
  00001	8b ec		 mov	 ebp, esp

; 86   : 	short result;
; 87   : 	static BYTE parms[] =
; 88   : 		VTS_BSTR VTS_BSTR VTS_I2;
; 89   : 	InvokeHelper(m_pdID[IIx_MsgBox], DISPATCH_METHOD, VT_I2, (void*)&result, parms,

  00003	0f bf 45 10	 movsx	 eax, WORD PTR _nFlags$[ebp]
  00007	50		 push	 eax
  00008	ff 75 0c	 push	 DWORD PTR _szCaption$[ebp]
  0000b	8d 45 10	 lea	 eax, DWORD PTR _result$[ebp]
  0000e	ff 75 08	 push	 DWORD PTR _szMessage$[ebp]
  00011	68 00 00 00 00	 push	 OFFSET ?parms@?1??MsgBox@CDispMain@@QAEFPBD0F@Z@4PAEA
  00016	50		 push	 eax
  00017	8b 41 0c	 mov	 eax, DWORD PTR [ecx+12]
  0001a	6a 02		 push	 2
  0001c	6a 01		 push	 1
  0001e	ff 70 08	 push	 DWORD PTR [eax+8]
  00021	51		 push	 ecx
  00022	e8 00 00 00 00	 call	 ?InvokeHelper@COleDispatchDriver@@QAAXJGGPAXPBEZZ ; COleDispatchDriver::InvokeHelper

; 90   : 		szMessage, szCaption, nFlags);
; 91   : 	return result;

  00027	66 8b 45 10	 mov	 ax, WORD PTR _result$[ebp]
  0002b	83 c4 24	 add	 esp, 36			; 00000024H

; 92   : }

  0002e	5d		 pop	 ebp
  0002f	c2 0c 00	 ret	 12			; 0000000cH
?MsgBox@CDispMain@@QAEFPBD0F@Z ENDP			; CDispMain::MsgBox
_TEXT	ENDS
; Function compile flags: /Ogtp
; File D:\git\src\IBK\IBK_DRFN\ProjSrc\SrcDrfn\inc\DispMain.cpp
;	COMDAT ?GetUserInfo@CDispMain@@QAE?AV?$CStringT@DV?$StrTraitMFC_DLL@DV?$ChTraitsCRT@D@ATL@@@@@ATL@@F@Z
_TEXT	SEGMENT
$T2 = -16						; size = 4
__$EHRec$ = -12						; size = 12
___$ReturnUdt$ = 8					; size = 4
_nType$ = 12						; size = 2
?GetUserInfo@CDispMain@@QAE?AV?$CStringT@DV?$StrTraitMFC_DLL@DV?$ChTraitsCRT@D@ATL@@@@@ATL@@F@Z PROC ; CDispMain::GetUserInfo, COMDAT
; _this$ = ecx

; 75   : {

  00000	55		 push	 ebp
  00001	8b ec		 mov	 ebp, esp
  00003	6a ff		 push	 -1
  00005	68 00 00 00 00	 push	 __ehhandler$?GetUserInfo@CDispMain@@QAE?AV?$CStringT@DV?$StrTraitMFC_DLL@DV?$ChTraitsCRT@D@ATL@@@@@ATL@@F@Z
  0000a	64 a1 00 00 00
	00		 mov	 eax, DWORD PTR fs:0
  00010	50		 push	 eax
  00011	51		 push	 ecx
  00012	56		 push	 esi
  00013	57		 push	 edi
  00014	a1 00 00 00 00	 mov	 eax, DWORD PTR ___security_cookie
  00019	33 c5		 xor	 eax, ebp
  0001b	50		 push	 eax
  0001c	8d 45 f4	 lea	 eax, DWORD PTR __$EHRec$[ebp]
  0001f	64 a3 00 00 00
	00		 mov	 DWORD PTR fs:0, eax
  00025	8b f1		 mov	 esi, ecx
  00027	c7 45 f0 00 00
	00 00		 mov	 DWORD PTR $T2[ebp], 0

; 76   : 	CString result;

  0002e	8b 7d 08	 mov	 edi, DWORD PTR ___$ReturnUdt$[ebp]
  00031	8b cf		 mov	 ecx, edi
  00033	ff 15 00 00 00
	00		 call	 DWORD PTR __imp_??0?$CStringT@DV?$StrTraitMFC_DLL@DV?$ChTraitsCRT@D@ATL@@@@@ATL@@QAE@XZ

; 77   : 	static BYTE parms[] =
; 78   : 		VTS_I2;
; 79   : 	InvokeHelper(m_pdID[IIx_GetUserInfo], DISPATCH_METHOD, VT_BSTR, (void*)&result, parms,
; 80   : 		nType);
; 81   : 	return result;

  00039	0f bf 45 0c	 movsx	 eax, WORD PTR _nType$[ebp]
  0003d	8b 4e 0c	 mov	 ecx, DWORD PTR [esi+12]
  00040	50		 push	 eax
  00041	68 00 00 00 00	 push	 OFFSET ?parms@?1??GetUserInfo@CDispMain@@QAE?AV?$CStringT@DV?$StrTraitMFC_DLL@DV?$ChTraitsCRT@D@ATL@@@@@ATL@@F@Z@4PAEA
  00046	57		 push	 edi
  00047	6a 08		 push	 8
  00049	6a 01		 push	 1
  0004b	ff 71 04	 push	 DWORD PTR [ecx+4]
  0004e	c7 45 fc 00 00
	00 00		 mov	 DWORD PTR __$EHRec$[ebp+8], 0
  00055	56		 push	 esi
  00056	c7 45 f0 01 00
	00 00		 mov	 DWORD PTR $T2[ebp], 1
  0005d	e8 00 00 00 00	 call	 ?InvokeHelper@COleDispatchDriver@@QAAXJGGPAXPBEZZ ; COleDispatchDriver::InvokeHelper
  00062	83 c4 1c	 add	 esp, 28			; 0000001cH
  00065	8b c7		 mov	 eax, edi

; 82   : }

  00067	8b 4d f4	 mov	 ecx, DWORD PTR __$EHRec$[ebp]
  0006a	64 89 0d 00 00
	00 00		 mov	 DWORD PTR fs:0, ecx
  00071	59		 pop	 ecx
  00072	5f		 pop	 edi
  00073	5e		 pop	 esi
  00074	8b e5		 mov	 esp, ebp
  00076	5d		 pop	 ebp
  00077	c2 08 00	 ret	 8
_TEXT	ENDS
;	COMDAT text$x
text$x	SEGMENT
__unwindfunclet$?GetUserInfo@CDispMain@@QAE?AV?$CStringT@DV?$StrTraitMFC_DLL@DV?$ChTraitsCRT@D@ATL@@@@@ATL@@F@Z$0:
  00000	8b 45 f0	 mov	 eax, DWORD PTR $T2[ebp]
  00003	83 e0 01	 and	 eax, 1
  00006	0f 84 0d 00 00
	00		 je	 $LN4@GetUserInf
  0000c	83 65 f0 fe	 and	 DWORD PTR $T2[ebp], -2	; fffffffeH
  00010	8b 4d 08	 mov	 ecx, DWORD PTR ___$ReturnUdt$[ebp]
  00013	ff 25 00 00 00
	00		 jmp	 DWORD PTR __imp_??1?$CStringT@DV?$StrTraitMFC_DLL@DV?$ChTraitsCRT@D@ATL@@@@@ATL@@QAE@XZ
$LN4@GetUserInf:
  00019	c3		 ret	 0
  0001a	cc		 int	 3
  0001b	cc		 int	 3
  0001c	cc		 int	 3
  0001d	cc		 int	 3
  0001e	cc		 int	 3
__ehhandler$?GetUserInfo@CDispMain@@QAE?AV?$CStringT@DV?$StrTraitMFC_DLL@DV?$ChTraitsCRT@D@ATL@@@@@ATL@@F@Z:
  0001f	90		 npad	 1
  00020	90		 npad	 1
  00021	8b 54 24 08	 mov	 edx, DWORD PTR [esp+8]
  00025	8d 42 0c	 lea	 eax, DWORD PTR [edx+12]
  00028	8b 4a f0	 mov	 ecx, DWORD PTR [edx-16]
  0002b	33 c8		 xor	 ecx, eax
  0002d	e8 00 00 00 00	 call	 @__security_check_cookie@4
  00032	b8 00 00 00 00	 mov	 eax, OFFSET __ehfuncinfo$?GetUserInfo@CDispMain@@QAE?AV?$CStringT@DV?$StrTraitMFC_DLL@DV?$ChTraitsCRT@D@ATL@@@@@ATL@@F@Z
  00037	e9 00 00 00 00	 jmp	 ___CxxFrameHandler3
text$x	ENDS
?GetUserInfo@CDispMain@@QAE?AV?$CStringT@DV?$StrTraitMFC_DLL@DV?$ChTraitsCRT@D@ATL@@@@@ATL@@F@Z ENDP ; CDispMain::GetUserInfo
; Function compile flags: /Ogtp
; File D:\git\src\IBK\IBK_DRFN\ProjSrc\SrcDrfn\inc\DispMain.cpp
;	COMDAT ?GetMapInfo@CDispMain@@QAE?AV?$CStringT@DV?$StrTraitMFC_DLL@DV?$ChTraitsCRT@D@ATL@@@@@ATL@@F@Z
_TEXT	SEGMENT
$T2 = -16						; size = 4
__$EHRec$ = -12						; size = 12
___$ReturnUdt$ = 8					; size = 4
_nFlag$ = 12						; size = 2
?GetMapInfo@CDispMain@@QAE?AV?$CStringT@DV?$StrTraitMFC_DLL@DV?$ChTraitsCRT@D@ATL@@@@@ATL@@F@Z PROC ; CDispMain::GetMapInfo, COMDAT
; _this$ = ecx

; 65   : {

  00000	55		 push	 ebp
  00001	8b ec		 mov	 ebp, esp
  00003	6a ff		 push	 -1
  00005	68 00 00 00 00	 push	 __ehhandler$?GetMapInfo@CDispMain@@QAE?AV?$CStringT@DV?$StrTraitMFC_DLL@DV?$ChTraitsCRT@D@ATL@@@@@ATL@@F@Z
  0000a	64 a1 00 00 00
	00		 mov	 eax, DWORD PTR fs:0
  00010	50		 push	 eax
  00011	51		 push	 ecx
  00012	56		 push	 esi
  00013	57		 push	 edi
  00014	a1 00 00 00 00	 mov	 eax, DWORD PTR ___security_cookie
  00019	33 c5		 xor	 eax, ebp
  0001b	50		 push	 eax
  0001c	8d 45 f4	 lea	 eax, DWORD PTR __$EHRec$[ebp]
  0001f	64 a3 00 00 00
	00		 mov	 DWORD PTR fs:0, eax
  00025	8b f1		 mov	 esi, ecx
  00027	c7 45 f0 00 00
	00 00		 mov	 DWORD PTR $T2[ebp], 0

; 66   : 	CString result;

  0002e	8b 7d 08	 mov	 edi, DWORD PTR ___$ReturnUdt$[ebp]
  00031	8b cf		 mov	 ecx, edi
  00033	ff 15 00 00 00
	00		 call	 DWORD PTR __imp_??0?$CStringT@DV?$StrTraitMFC_DLL@DV?$ChTraitsCRT@D@ATL@@@@@ATL@@QAE@XZ

; 67   : 	static BYTE parms[] =
; 68   : 		VTS_I2;
; 69   : 	InvokeHelper(m_pdID[IIx_GetMapInfo], DISPATCH_METHOD, VT_BSTR, (void*)&result, parms,
; 70   : 		nFlag);
; 71   : 	return result;

  00039	0f bf 45 0c	 movsx	 eax, WORD PTR _nFlag$[ebp]
  0003d	8b 4e 0c	 mov	 ecx, DWORD PTR [esi+12]
  00040	50		 push	 eax
  00041	68 00 00 00 00	 push	 OFFSET ?parms@?1??GetMapInfo@CDispMain@@QAE?AV?$CStringT@DV?$StrTraitMFC_DLL@DV?$ChTraitsCRT@D@ATL@@@@@ATL@@F@Z@4PAEA
  00046	57		 push	 edi
  00047	6a 08		 push	 8
  00049	6a 01		 push	 1
  0004b	ff 31		 push	 DWORD PTR [ecx]
  0004d	c7 45 fc 00 00
	00 00		 mov	 DWORD PTR __$EHRec$[ebp+8], 0
  00054	56		 push	 esi
  00055	c7 45 f0 01 00
	00 00		 mov	 DWORD PTR $T2[ebp], 1
  0005c	e8 00 00 00 00	 call	 ?InvokeHelper@COleDispatchDriver@@QAAXJGGPAXPBEZZ ; COleDispatchDriver::InvokeHelper
  00061	83 c4 1c	 add	 esp, 28			; 0000001cH
  00064	8b c7		 mov	 eax, edi

; 72   : }

  00066	8b 4d f4	 mov	 ecx, DWORD PTR __$EHRec$[ebp]
  00069	64 89 0d 00 00
	00 00		 mov	 DWORD PTR fs:0, ecx
  00070	59		 pop	 ecx
  00071	5f		 pop	 edi
  00072	5e		 pop	 esi
  00073	8b e5		 mov	 esp, ebp
  00075	5d		 pop	 ebp
  00076	c2 08 00	 ret	 8
_TEXT	ENDS
;	COMDAT text$x
text$x	SEGMENT
__unwindfunclet$?GetMapInfo@CDispMain@@QAE?AV?$CStringT@DV?$StrTraitMFC_DLL@DV?$ChTraitsCRT@D@ATL@@@@@ATL@@F@Z$0:
  00000	8b 45 f0	 mov	 eax, DWORD PTR $T2[ebp]
  00003	83 e0 01	 and	 eax, 1
  00006	0f 84 0d 00 00
	00		 je	 $LN4@GetMapInfo
  0000c	83 65 f0 fe	 and	 DWORD PTR $T2[ebp], -2	; fffffffeH
  00010	8b 4d 08	 mov	 ecx, DWORD PTR ___$ReturnUdt$[ebp]
  00013	ff 25 00 00 00
	00		 jmp	 DWORD PTR __imp_??1?$CStringT@DV?$StrTraitMFC_DLL@DV?$ChTraitsCRT@D@ATL@@@@@ATL@@QAE@XZ
$LN4@GetMapInfo:
  00019	c3		 ret	 0
  0001a	cc		 int	 3
  0001b	cc		 int	 3
  0001c	cc		 int	 3
  0001d	cc		 int	 3
  0001e	cc		 int	 3
__ehhandler$?GetMapInfo@CDispMain@@QAE?AV?$CStringT@DV?$StrTraitMFC_DLL@DV?$ChTraitsCRT@D@ATL@@@@@ATL@@F@Z:
  0001f	90		 npad	 1
  00020	90		 npad	 1
  00021	8b 54 24 08	 mov	 edx, DWORD PTR [esp+8]
  00025	8d 42 0c	 lea	 eax, DWORD PTR [edx+12]
  00028	8b 4a f0	 mov	 ecx, DWORD PTR [edx-16]
  0002b	33 c8		 xor	 ecx, eax
  0002d	e8 00 00 00 00	 call	 @__security_check_cookie@4
  00032	b8 00 00 00 00	 mov	 eax, OFFSET __ehfuncinfo$?GetMapInfo@CDispMain@@QAE?AV?$CStringT@DV?$StrTraitMFC_DLL@DV?$ChTraitsCRT@D@ATL@@@@@ATL@@F@Z
  00037	e9 00 00 00 00	 jmp	 ___CxxFrameHandler3
text$x	ENDS
?GetMapInfo@CDispMain@@QAE?AV?$CStringT@DV?$StrTraitMFC_DLL@DV?$ChTraitsCRT@D@ATL@@@@@ATL@@F@Z ENDP ; CDispMain::GetMapInfo
; Function compile flags: /Ogtp
; File D:\git\src\IBK\IBK_DRFN\ProjSrc\SrcDrfn\inc\DispMain.cpp
;	COMDAT ?InitInterfaceName@CDispMain@@QAEXPAUIDispatch@@@Z
_TEXT	SEGMENT
_pDisp$ = 8						; size = 4
?InitInterfaceName@CDispMain@@QAEXPAUIDispatch@@@Z PROC	; CDispMain::InitInterfaceName, COMDAT
; _this$ = ecx

; 53   : {

  00000	55		 push	 ebp
  00001	8b ec		 mov	 ebp, esp
  00003	53		 push	 ebx
  00004	56		 push	 esi
  00005	57		 push	 edi

; 54   : 	int i, nCount = sizeof( m_osInterfaceName) / sizeof( OLECHAR *);
; 55   : 	m_pdID = new DISPID[ nCount];

  00006	68 88 00 00 00	 push	 136			; 00000088H
  0000b	8b d9		 mov	 ebx, ecx
  0000d	e8 00 00 00 00	 call	 ??_U@YAPAXI@Z		; operator new[]
  00012	8b 7d 08	 mov	 edi, DWORD PTR _pDisp$[ebp]
  00015	83 c4 04	 add	 esp, 4
  00018	89 43 0c	 mov	 DWORD PTR [ebx+12], eax
  0001b	33 f6		 xor	 esi, esi
  0001d	0f 1f 00	 npad	 3
$LL4@InitInterf:

; 56   : 	for( i = 0; i < nCount; i++)
; 57   : 		pDisp->GetIDsOfNames( IID_NULL, &m_osInterfaceName[ i], 1, LOCALE_USER_DEFAULT, m_pdID + i);

  00020	8b 43 0c	 mov	 eax, DWORD PTR [ebx+12]
  00023	8b 0f		 mov	 ecx, DWORD PTR [edi]
  00025	03 c6		 add	 eax, esi
  00027	50		 push	 eax
  00028	68 00 04 00 00	 push	 1024			; 00000400H
  0002d	6a 01		 push	 1
  0002f	8d 86 00 00 00
	00		 lea	 eax, DWORD PTR ?m_osInterfaceName@CDispMain@@2PAPA_WA[esi]
  00035	50		 push	 eax
  00036	68 00 00 00 00	 push	 OFFSET _GUID_NULL
  0003b	57		 push	 edi
  0003c	ff 51 14	 call	 DWORD PTR [ecx+20]
  0003f	83 c6 04	 add	 esi, 4
  00042	81 fe 88 00 00
	00		 cmp	 esi, 136		; 00000088H
  00048	7c d6		 jl	 SHORT $LL4@InitInterf

; 58   : }

  0004a	5f		 pop	 edi
  0004b	5e		 pop	 esi
  0004c	5b		 pop	 ebx
  0004d	5d		 pop	 ebp
  0004e	c2 04 00	 ret	 4
?InitInterfaceName@CDispMain@@QAEXPAUIDispatch@@@Z ENDP	; CDispMain::InitInterfaceName
_TEXT	ENDS
; Function compile flags: /Ogtp
; File D:\git\src\IBK\IBK_DRFN\ProjSrc\SrcDrfn\inc\DispMain.cpp
;	COMDAT ??0CDispMain@@QAE@XZ
_TEXT	SEGMENT
_this$ = -4						; size = 4
??0CDispMain@@QAE@XZ PROC				; CDispMain::CDispMain, COMDAT
; _this$ = ecx

; 48   : {

  00000	55		 push	 ebp
  00001	8b ec		 mov	 ebp, esp
  00003	51		 push	 ecx
  00004	56		 push	 esi
  00005	8b f1		 mov	 esi, ecx
  00007	89 75 fc	 mov	 DWORD PTR _this$[ebp], esi
  0000a	e8 00 00 00 00	 call	 ??0COleDispatchDriver@@QAE@XZ ; COleDispatchDriver::COleDispatchDriver

; 49   : 	m_pdispatch = NULL;

  0000f	c7 46 08 00 00
	00 00		 mov	 DWORD PTR [esi+8], 0

; 50   : }

  00016	8b c6		 mov	 eax, esi
  00018	5e		 pop	 esi
  00019	8b e5		 mov	 esp, ebp
  0001b	5d		 pop	 ebp
  0001c	c3		 ret	 0
??0CDispMain@@QAE@XZ ENDP				; CDispMain::CDispMain
_TEXT	ENDS
; Function compile flags: /Ogtp
; File D:\git\src\IBK\IBK_DRFN\ProjSrc\SrcDrfn\inc\DispMain.cpp
;	COMDAT ?__empty_global_delete@@YAXPAXI@Z
_TEXT	SEGMENT
___formal$ = 8						; size = 4
___formal$ = 12						; size = 4
?__empty_global_delete@@YAXPAXI@Z PROC			; __empty_global_delete, COMDAT

  00000	c2 00 00	 ret	 0
?__empty_global_delete@@YAXPAXI@Z ENDP			; __empty_global_delete
_TEXT	ENDS
; Function compile flags: /Ogtp
; File D:\git\src\IBK\IBK_DRFN\ProjSrc\SrcDrfn\inc\DispMain.cpp
;	COMDAT ?__empty_global_delete@@YAXPAX@Z
_TEXT	SEGMENT
___formal$ = 8						; size = 4
?__empty_global_delete@@YAXPAX@Z PROC			; __empty_global_delete, COMDAT

  00000	c2 00 00	 ret	 0
?__empty_global_delete@@YAXPAX@Z ENDP			; __empty_global_delete
_TEXT	ENDS
END
