; Listing generated by Microsoft (R) Optimizing Compiler Version 19.29.30148.0 

	TITLE	D:\git\src\IBK\IBK_DRFN\#DRfn-CS\_Obj\PcTrMng\DispFrame.obj
	.686P
	.XMM
	include listing.inc
	.model	flat

INCLUDELIB MSVCRT
INCLUDELIB OLDNAMES

PUBLIC	?m_osInterfaceName@CDispFrame@@2PAPA_WA		; CDispFrame::m_osInterfaceName
PUBLIC	??_C@_1CA@FMNFLINH@?$AAG?$AAe?$AAt?$AAD?$AAa?$AAt?$AAa?$AAS?$AAa?$AAv?$AAe?$AAT?$AAy?$AAp?$AAe@ ; `string'
PUBLIC	??_C@_1CC@ELBMIKMH@?$AAG?$AAe?$AAt?$AAF?$AAr?$AAa?$AAm?$AAe?$AAI?$AAn?$AAf?$AAo?$AAF?$AAi?$AAl@ ; `string'
PUBLIC	??_C@_1BI@JLBLOHIP@?$AAG?$AAe?$AAt?$AAF?$AAo?$AAn?$AAt?$AAS?$AAi?$AAz?$AAe@ ; `string'
PUBLIC	??_C@_1BO@NDFBAJLP@?$AAG?$AAe?$AAt?$AAF?$AAr?$AAa?$AAm?$AAe?$AAS?$AAc?$AAr?$AAN?$AAu?$AAm@ ; `string'
PUBLIC	??_C@_1CA@FKHJFHCC@?$AAC?$AAh?$AAa?$AAn?$AAg?$AAe?$AAF?$AAr?$AAa?$AAm?$AAe?$AAS?$AAi?$AAz?$AAe@ ; `string'
;	COMDAT ??_C@_1CA@FKHJFHCC@?$AAC?$AAh?$AAa?$AAn?$AAg?$AAe?$AAF?$AAr?$AAa?$AAm?$AAe?$AAS?$AAi?$AAz?$AAe@
CONST	SEGMENT
??_C@_1CA@FKHJFHCC@?$AAC?$AAh?$AAa?$AAn?$AAg?$AAe?$AAF?$AAr?$AAa?$AAm?$AAe?$AAS?$AAi?$AAz?$AAe@ DB 'C'
	DB	00H, 'h', 00H, 'a', 00H, 'n', 00H, 'g', 00H, 'e', 00H, 'F', 00H
	DB	'r', 00H, 'a', 00H, 'm', 00H, 'e', 00H, 'S', 00H, 'i', 00H, 'z'
	DB	00H, 'e', 00H, 00H, 00H			; `string'
CONST	ENDS
;	COMDAT ??_C@_1BO@NDFBAJLP@?$AAG?$AAe?$AAt?$AAF?$AAr?$AAa?$AAm?$AAe?$AAS?$AAc?$AAr?$AAN?$AAu?$AAm@
CONST	SEGMENT
??_C@_1BO@NDFBAJLP@?$AAG?$AAe?$AAt?$AAF?$AAr?$AAa?$AAm?$AAe?$AAS?$AAc?$AAr?$AAN?$AAu?$AAm@ DB 'G'
	DB	00H, 'e', 00H, 't', 00H, 'F', 00H, 'r', 00H, 'a', 00H, 'm', 00H
	DB	'e', 00H, 'S', 00H, 'c', 00H, 'r', 00H, 'N', 00H, 'u', 00H, 'm'
	DB	00H, 00H, 00H				; `string'
CONST	ENDS
;	COMDAT ??_C@_1BI@JLBLOHIP@?$AAG?$AAe?$AAt?$AAF?$AAo?$AAn?$AAt?$AAS?$AAi?$AAz?$AAe@
CONST	SEGMENT
??_C@_1BI@JLBLOHIP@?$AAG?$AAe?$AAt?$AAF?$AAo?$AAn?$AAt?$AAS?$AAi?$AAz?$AAe@ DB 'G'
	DB	00H, 'e', 00H, 't', 00H, 'F', 00H, 'o', 00H, 'n', 00H, 't', 00H
	DB	'S', 00H, 'i', 00H, 'z', 00H, 'e', 00H, 00H, 00H ; `string'
CONST	ENDS
;	COMDAT ??_C@_1CC@ELBMIKMH@?$AAG?$AAe?$AAt?$AAF?$AAr?$AAa?$AAm?$AAe?$AAI?$AAn?$AAf?$AAo?$AAF?$AAi?$AAl@
CONST	SEGMENT
??_C@_1CC@ELBMIKMH@?$AAG?$AAe?$AAt?$AAF?$AAr?$AAa?$AAm?$AAe?$AAI?$AAn?$AAf?$AAo?$AAF?$AAi?$AAl@ DB 'G'
	DB	00H, 'e', 00H, 't', 00H, 'F', 00H, 'r', 00H, 'a', 00H, 'm', 00H
	DB	'e', 00H, 'I', 00H, 'n', 00H, 'f', 00H, 'o', 00H, 'F', 00H, 'i'
	DB	00H, 'l', 00H, 'e', 00H, 00H, 00H		; `string'
CONST	ENDS
;	COMDAT ??_C@_1CA@FMNFLINH@?$AAG?$AAe?$AAt?$AAD?$AAa?$AAt?$AAa?$AAS?$AAa?$AAv?$AAe?$AAT?$AAy?$AAp?$AAe@
CONST	SEGMENT
??_C@_1CA@FMNFLINH@?$AAG?$AAe?$AAt?$AAD?$AAa?$AAt?$AAa?$AAS?$AAa?$AAv?$AAe?$AAT?$AAy?$AAp?$AAe@ DB 'G'
	DB	00H, 'e', 00H, 't', 00H, 'D', 00H, 'a', 00H, 't', 00H, 'a', 00H
	DB	'S', 00H, 'a', 00H, 'v', 00H, 'e', 00H, 'T', 00H, 'y', 00H, 'p'
	DB	00H, 'e', 00H, 00H, 00H			; `string'
CONST	ENDS
_DATA	SEGMENT
?m_osInterfaceName@CDispFrame@@2PAPA_WA DD FLAT:??_C@_1CA@FMNFLINH@?$AAG?$AAe?$AAt?$AAD?$AAa?$AAt?$AAa?$AAS?$AAa?$AAv?$AAe?$AAT?$AAy?$AAp?$AAe@ ; CDispFrame::m_osInterfaceName
	DD	FLAT:??_C@_1CC@ELBMIKMH@?$AAG?$AAe?$AAt?$AAF?$AAr?$AAa?$AAm?$AAe?$AAI?$AAn?$AAf?$AAo?$AAF?$AAi?$AAl@
	DD	FLAT:??_C@_1BI@JLBLOHIP@?$AAG?$AAe?$AAt?$AAF?$AAo?$AAn?$AAt?$AAS?$AAi?$AAz?$AAe@
	DD	FLAT:??_C@_1BO@NDFBAJLP@?$AAG?$AAe?$AAt?$AAF?$AAr?$AAa?$AAm?$AAe?$AAS?$AAc?$AAr?$AAN?$AAu?$AAm@
	DD	FLAT:??_C@_1CA@FKHJFHCC@?$AAC?$AAh?$AAa?$AAn?$AAg?$AAe?$AAF?$AAr?$AAa?$AAm?$AAe?$AAS?$AAi?$AAz?$AAe@
_DATA	ENDS
PUBLIC	?__empty_global_delete@@YAXPAX@Z		; __empty_global_delete
PUBLIC	?__empty_global_delete@@YAXPAXI@Z		; __empty_global_delete
PUBLIC	??0CDispFrame@@QAE@XZ				; CDispFrame::CDispFrame
PUBLIC	?InitInterfaceName@CDispFrame@@QAEXPAUIDispatch@@@Z ; CDispFrame::InitInterfaceName
PUBLIC	?GetDataSaveType@CDispFrame@@QAEFXZ		; CDispFrame::GetDataSaveType
PUBLIC	?GetFrameInfoFile@CDispFrame@@QAE?AV?$CStringT@DV?$StrTraitMFC_DLL@DV?$ChTraitsCRT@D@ATL@@@@@ATL@@XZ ; CDispFrame::GetFrameInfoFile
PUBLIC	?GetFontSize@CDispFrame@@QAEFXZ			; CDispFrame::GetFontSize
PUBLIC	?GetFrameScrNum@CDispFrame@@QAE?AV?$CStringT@DV?$StrTraitMFC_DLL@DV?$ChTraitsCRT@D@ATL@@@@@ATL@@XZ ; CDispFrame::GetFrameScrNum
PUBLIC	?ChangeFrameSize@CDispFrame@@QAEXFFF@Z		; CDispFrame::ChangeFrameSize
EXTRN	??_U@YAPAXI@Z:PROC				; operator new[]
EXTRN	__imp_??0?$CStringT@DV?$StrTraitMFC_DLL@DV?$ChTraitsCRT@D@ATL@@@@@ATL@@QAE@XZ:PROC
EXTRN	__imp_??1?$CStringT@DV?$StrTraitMFC_DLL@DV?$ChTraitsCRT@D@ATL@@@@@ATL@@QAE@XZ:PROC
EXTRN	??0COleDispatchDriver@@QAE@XZ:PROC		; COleDispatchDriver::COleDispatchDriver
EXTRN	?ReleaseDispatch@COleDispatchDriver@@QAEXXZ:PROC ; COleDispatchDriver::ReleaseDispatch
EXTRN	?InvokeHelper@COleDispatchDriver@@QAAXJGGPAXPBEZZ:PROC ; COleDispatchDriver::InvokeHelper
EXTRN	@__security_check_cookie@4:PROC
EXTRN	___CxxFrameHandler3:PROC
EXTRN	_GUID_NULL:BYTE
EXTRN	___security_cookie:DWORD
;	COMDAT ?parms@?1??ChangeFrameSize@CDispFrame@@QAEXFFF@Z@4PAEA
_DATA	SEGMENT
?parms@?1??ChangeFrameSize@CDispFrame@@QAEXFFF@Z@4PAEA DB 02H, 02H, 02H, 00H ; `CDispFrame::ChangeFrameSize'::`2'::parms
_DATA	ENDS
;	COMDAT xdata$x
xdata$x	SEGMENT
__unwindtable$?GetFrameScrNum@CDispFrame@@QAE?AV?$CStringT@DV?$StrTraitMFC_DLL@DV?$ChTraitsCRT@D@ATL@@@@@ATL@@XZ DD 0ffffffffH
	DD	FLAT:__unwindfunclet$?GetFrameScrNum@CDispFrame@@QAE?AV?$CStringT@DV?$StrTraitMFC_DLL@DV?$ChTraitsCRT@D@ATL@@@@@ATL@@XZ$0
__ehfuncinfo$?GetFrameScrNum@CDispFrame@@QAE?AV?$CStringT@DV?$StrTraitMFC_DLL@DV?$ChTraitsCRT@D@ATL@@@@@ATL@@XZ DD 019930522H
	DD	01H
	DD	FLAT:__unwindtable$?GetFrameScrNum@CDispFrame@@QAE?AV?$CStringT@DV?$StrTraitMFC_DLL@DV?$ChTraitsCRT@D@ATL@@@@@ATL@@XZ
	DD	2 DUP(00H)
	DD	2 DUP(00H)
	DD	00H
	DD	01H
xdata$x	ENDS
;	COMDAT xdata$x
xdata$x	SEGMENT
__unwindtable$?GetFrameInfoFile@CDispFrame@@QAE?AV?$CStringT@DV?$StrTraitMFC_DLL@DV?$ChTraitsCRT@D@ATL@@@@@ATL@@XZ DD 0ffffffffH
	DD	FLAT:__unwindfunclet$?GetFrameInfoFile@CDispFrame@@QAE?AV?$CStringT@DV?$StrTraitMFC_DLL@DV?$ChTraitsCRT@D@ATL@@@@@ATL@@XZ$0
__ehfuncinfo$?GetFrameInfoFile@CDispFrame@@QAE?AV?$CStringT@DV?$StrTraitMFC_DLL@DV?$ChTraitsCRT@D@ATL@@@@@ATL@@XZ DD 019930522H
	DD	01H
	DD	FLAT:__unwindtable$?GetFrameInfoFile@CDispFrame@@QAE?AV?$CStringT@DV?$StrTraitMFC_DLL@DV?$ChTraitsCRT@D@ATL@@@@@ATL@@XZ
	DD	2 DUP(00H)
	DD	2 DUP(00H)
	DD	00H
	DD	01H
xdata$x	ENDS
;	COMDAT xdata$x
xdata$x	SEGMENT
__ehfuncinfo$??1COleDispatchDriver@@QAE@XZ DD 019930522H
	DD	00H
	DD	00H
	DD	2 DUP(00H)
	DD	2 DUP(00H)
	DD	00H
	DD	05H
xdata$x	ENDS
; Function compile flags: /Ogtp
; File D:\git\src\IBK\IBK_DRFN\ProjSrc\SrcDrfn\inc\DispFrame.cpp
;	COMDAT ?ChangeFrameSize@CDispFrame@@QAEXFFF@Z
_TEXT	SEGMENT
_nFlag$ = 8						; size = 2
_nParam1$ = 12						; size = 2
_nParam2$ = 16						; size = 2
?ChangeFrameSize@CDispFrame@@QAEXFFF@Z PROC		; CDispFrame::ChangeFrameSize, COMDAT
; _this$ = ecx

; 65   : {

  00000	55		 push	 ebp
  00001	8b ec		 mov	 ebp, esp

; 66   : 	static BYTE parms[] =
; 67   : 		VTS_I2 VTS_I2 VTS_I2;
; 68   : 	InvokeHelper(m_pdID[IIx_ChangeFrameSize], DISPATCH_METHOD, VT_EMPTY, NULL, parms,

  00003	0f bf 45 10	 movsx	 eax, WORD PTR _nParam2$[ebp]
  00007	50		 push	 eax
  00008	0f bf 45 0c	 movsx	 eax, WORD PTR _nParam1$[ebp]
  0000c	50		 push	 eax
  0000d	0f bf 45 08	 movsx	 eax, WORD PTR _nFlag$[ebp]
  00011	50		 push	 eax
  00012	8b 41 0c	 mov	 eax, DWORD PTR [ecx+12]
  00015	68 00 00 00 00	 push	 OFFSET ?parms@?1??ChangeFrameSize@CDispFrame@@QAEXFFF@Z@4PAEA
  0001a	6a 00		 push	 0
  0001c	6a 00		 push	 0
  0001e	6a 01		 push	 1
  00020	ff 70 10	 push	 DWORD PTR [eax+16]
  00023	51		 push	 ecx
  00024	e8 00 00 00 00	 call	 ?InvokeHelper@COleDispatchDriver@@QAAXJGGPAXPBEZZ ; COleDispatchDriver::InvokeHelper
  00029	83 c4 24	 add	 esp, 36			; 00000024H

; 69   : 		 nFlag ,nParam1 ,nParam2);
; 70   : }

  0002c	5d		 pop	 ebp
  0002d	c2 0c 00	 ret	 12			; 0000000cH
?ChangeFrameSize@CDispFrame@@QAEXFFF@Z ENDP		; CDispFrame::ChangeFrameSize
_TEXT	ENDS
; Function compile flags: /Ogtp
; File D:\git\src\IBK\IBK_DRFN\ProjSrc\SrcDrfn\inc\DispFrame.cpp
;	COMDAT ?GetFrameScrNum@CDispFrame@@QAE?AV?$CStringT@DV?$StrTraitMFC_DLL@DV?$ChTraitsCRT@D@ATL@@@@@ATL@@XZ
_TEXT	SEGMENT
$T2 = -16						; size = 4
__$EHRec$ = -12						; size = 12
___$ReturnUdt$ = 8					; size = 4
?GetFrameScrNum@CDispFrame@@QAE?AV?$CStringT@DV?$StrTraitMFC_DLL@DV?$ChTraitsCRT@D@ATL@@@@@ATL@@XZ PROC ; CDispFrame::GetFrameScrNum, COMDAT
; _this$ = ecx

; 58   : {

  00000	55		 push	 ebp
  00001	8b ec		 mov	 ebp, esp
  00003	6a ff		 push	 -1
  00005	68 00 00 00 00	 push	 __ehhandler$?GetFrameScrNum@CDispFrame@@QAE?AV?$CStringT@DV?$StrTraitMFC_DLL@DV?$ChTraitsCRT@D@ATL@@@@@ATL@@XZ
  0000a	64 a1 00 00 00
	00		 mov	 eax, DWORD PTR fs:0
  00010	50		 push	 eax
  00011	51		 push	 ecx
  00012	56		 push	 esi
  00013	57		 push	 edi
  00014	a1 00 00 00 00	 mov	 eax, DWORD PTR ___security_cookie
  00019	33 c5		 xor	 eax, ebp
  0001b	50		 push	 eax
  0001c	8d 45 f4	 lea	 eax, DWORD PTR __$EHRec$[ebp]
  0001f	64 a3 00 00 00
	00		 mov	 DWORD PTR fs:0, eax
  00025	8b f1		 mov	 esi, ecx
  00027	c7 45 f0 00 00
	00 00		 mov	 DWORD PTR $T2[ebp], 0

; 59   : 	CString result;

  0002e	8b 7d 08	 mov	 edi, DWORD PTR ___$ReturnUdt$[ebp]
  00031	8b cf		 mov	 ecx, edi
  00033	ff 15 00 00 00
	00		 call	 DWORD PTR __imp_??0?$CStringT@DV?$StrTraitMFC_DLL@DV?$ChTraitsCRT@D@ATL@@@@@ATL@@QAE@XZ

; 60   : 	InvokeHelper(m_pdID[IIx_GetFrameScrNum], DISPATCH_METHOD, VT_BSTR, (void*)&result, NULL);
; 61   : 	return result;

  00039	8b 4e 0c	 mov	 ecx, DWORD PTR [esi+12]
  0003c	6a 00		 push	 0
  0003e	57		 push	 edi
  0003f	6a 08		 push	 8
  00041	6a 01		 push	 1
  00043	ff 71 0c	 push	 DWORD PTR [ecx+12]
  00046	c7 45 fc 00 00
	00 00		 mov	 DWORD PTR __$EHRec$[ebp+8], 0
  0004d	56		 push	 esi
  0004e	c7 45 f0 01 00
	00 00		 mov	 DWORD PTR $T2[ebp], 1
  00055	e8 00 00 00 00	 call	 ?InvokeHelper@COleDispatchDriver@@QAAXJGGPAXPBEZZ ; COleDispatchDriver::InvokeHelper
  0005a	83 c4 18	 add	 esp, 24			; 00000018H
  0005d	8b c7		 mov	 eax, edi

; 62   : }

  0005f	8b 4d f4	 mov	 ecx, DWORD PTR __$EHRec$[ebp]
  00062	64 89 0d 00 00
	00 00		 mov	 DWORD PTR fs:0, ecx
  00069	59		 pop	 ecx
  0006a	5f		 pop	 edi
  0006b	5e		 pop	 esi
  0006c	8b e5		 mov	 esp, ebp
  0006e	5d		 pop	 ebp
  0006f	c2 04 00	 ret	 4
_TEXT	ENDS
;	COMDAT text$x
text$x	SEGMENT
__unwindfunclet$?GetFrameScrNum@CDispFrame@@QAE?AV?$CStringT@DV?$StrTraitMFC_DLL@DV?$ChTraitsCRT@D@ATL@@@@@ATL@@XZ$0:
  00000	8b 45 f0	 mov	 eax, DWORD PTR $T2[ebp]
  00003	83 e0 01	 and	 eax, 1
  00006	0f 84 0d 00 00
	00		 je	 $LN4@GetFrameSc
  0000c	83 65 f0 fe	 and	 DWORD PTR $T2[ebp], -2	; fffffffeH
  00010	8b 4d 08	 mov	 ecx, DWORD PTR ___$ReturnUdt$[ebp]
  00013	ff 25 00 00 00
	00		 jmp	 DWORD PTR __imp_??1?$CStringT@DV?$StrTraitMFC_DLL@DV?$ChTraitsCRT@D@ATL@@@@@ATL@@QAE@XZ
$LN4@GetFrameSc:
  00019	c3		 ret	 0
  0001a	cc		 int	 3
  0001b	cc		 int	 3
  0001c	cc		 int	 3
  0001d	cc		 int	 3
  0001e	cc		 int	 3
__ehhandler$?GetFrameScrNum@CDispFrame@@QAE?AV?$CStringT@DV?$StrTraitMFC_DLL@DV?$ChTraitsCRT@D@ATL@@@@@ATL@@XZ:
  0001f	90		 npad	 1
  00020	90		 npad	 1
  00021	8b 54 24 08	 mov	 edx, DWORD PTR [esp+8]
  00025	8d 42 0c	 lea	 eax, DWORD PTR [edx+12]
  00028	8b 4a f0	 mov	 ecx, DWORD PTR [edx-16]
  0002b	33 c8		 xor	 ecx, eax
  0002d	e8 00 00 00 00	 call	 @__security_check_cookie@4
  00032	b8 00 00 00 00	 mov	 eax, OFFSET __ehfuncinfo$?GetFrameScrNum@CDispFrame@@QAE?AV?$CStringT@DV?$StrTraitMFC_DLL@DV?$ChTraitsCRT@D@ATL@@@@@ATL@@XZ
  00037	e9 00 00 00 00	 jmp	 ___CxxFrameHandler3
text$x	ENDS
?GetFrameScrNum@CDispFrame@@QAE?AV?$CStringT@DV?$StrTraitMFC_DLL@DV?$ChTraitsCRT@D@ATL@@@@@ATL@@XZ ENDP ; CDispFrame::GetFrameScrNum
; Function compile flags: /Ogtp
; File D:\git\src\IBK\IBK_DRFN\ProjSrc\SrcDrfn\inc\DispFrame.cpp
;	COMDAT ?GetFontSize@CDispFrame@@QAEFXZ
_TEXT	SEGMENT
_result$ = -4						; size = 2
?GetFontSize@CDispFrame@@QAEFXZ PROC			; CDispFrame::GetFontSize, COMDAT
; _this$ = ecx

; 51   : {

  00000	55		 push	 ebp
  00001	8b ec		 mov	 ebp, esp
  00003	51		 push	 ecx

; 52   : 	short result;
; 53   : 	InvokeHelper(m_pdID[IIx_GetFontSize], DISPATCH_METHOD, VT_I2, (void*)&result, NULL);

  00004	6a 00		 push	 0
  00006	8d 45 fc	 lea	 eax, DWORD PTR _result$[ebp]
  00009	50		 push	 eax
  0000a	8b 41 0c	 mov	 eax, DWORD PTR [ecx+12]
  0000d	6a 02		 push	 2
  0000f	6a 01		 push	 1
  00011	ff 70 08	 push	 DWORD PTR [eax+8]
  00014	51		 push	 ecx
  00015	e8 00 00 00 00	 call	 ?InvokeHelper@COleDispatchDriver@@QAAXJGGPAXPBEZZ ; COleDispatchDriver::InvokeHelper

; 54   : 	return result;

  0001a	66 8b 45 fc	 mov	 ax, WORD PTR _result$[ebp]
  0001e	83 c4 18	 add	 esp, 24			; 00000018H

; 55   : }

  00021	8b e5		 mov	 esp, ebp
  00023	5d		 pop	 ebp
  00024	c3		 ret	 0
?GetFontSize@CDispFrame@@QAEFXZ ENDP			; CDispFrame::GetFontSize
_TEXT	ENDS
; Function compile flags: /Ogtp
; File D:\git\src\IBK\IBK_DRFN\ProjSrc\SrcDrfn\inc\DispFrame.cpp
;	COMDAT ?GetFrameInfoFile@CDispFrame@@QAE?AV?$CStringT@DV?$StrTraitMFC_DLL@DV?$ChTraitsCRT@D@ATL@@@@@ATL@@XZ
_TEXT	SEGMENT
$T2 = -16						; size = 4
__$EHRec$ = -12						; size = 12
___$ReturnUdt$ = 8					; size = 4
?GetFrameInfoFile@CDispFrame@@QAE?AV?$CStringT@DV?$StrTraitMFC_DLL@DV?$ChTraitsCRT@D@ATL@@@@@ATL@@XZ PROC ; CDispFrame::GetFrameInfoFile, COMDAT
; _this$ = ecx

; 43   : {

  00000	55		 push	 ebp
  00001	8b ec		 mov	 ebp, esp
  00003	6a ff		 push	 -1
  00005	68 00 00 00 00	 push	 __ehhandler$?GetFrameInfoFile@CDispFrame@@QAE?AV?$CStringT@DV?$StrTraitMFC_DLL@DV?$ChTraitsCRT@D@ATL@@@@@ATL@@XZ
  0000a	64 a1 00 00 00
	00		 mov	 eax, DWORD PTR fs:0
  00010	50		 push	 eax
  00011	51		 push	 ecx
  00012	56		 push	 esi
  00013	57		 push	 edi
  00014	a1 00 00 00 00	 mov	 eax, DWORD PTR ___security_cookie
  00019	33 c5		 xor	 eax, ebp
  0001b	50		 push	 eax
  0001c	8d 45 f4	 lea	 eax, DWORD PTR __$EHRec$[ebp]
  0001f	64 a3 00 00 00
	00		 mov	 DWORD PTR fs:0, eax
  00025	8b f1		 mov	 esi, ecx
  00027	c7 45 f0 00 00
	00 00		 mov	 DWORD PTR $T2[ebp], 0

; 44   : 	CString result;

  0002e	8b 7d 08	 mov	 edi, DWORD PTR ___$ReturnUdt$[ebp]
  00031	8b cf		 mov	 ecx, edi
  00033	ff 15 00 00 00
	00		 call	 DWORD PTR __imp_??0?$CStringT@DV?$StrTraitMFC_DLL@DV?$ChTraitsCRT@D@ATL@@@@@ATL@@QAE@XZ

; 45   : 	InvokeHelper(m_pdID[IIx_GetFrameInfoFile], DISPATCH_METHOD, VT_BSTR, (void*)&result, NULL);
; 46   : 	return result;

  00039	8b 4e 0c	 mov	 ecx, DWORD PTR [esi+12]
  0003c	6a 00		 push	 0
  0003e	57		 push	 edi
  0003f	6a 08		 push	 8
  00041	6a 01		 push	 1
  00043	ff 71 04	 push	 DWORD PTR [ecx+4]
  00046	c7 45 fc 00 00
	00 00		 mov	 DWORD PTR __$EHRec$[ebp+8], 0
  0004d	56		 push	 esi
  0004e	c7 45 f0 01 00
	00 00		 mov	 DWORD PTR $T2[ebp], 1
  00055	e8 00 00 00 00	 call	 ?InvokeHelper@COleDispatchDriver@@QAAXJGGPAXPBEZZ ; COleDispatchDriver::InvokeHelper
  0005a	83 c4 18	 add	 esp, 24			; 00000018H
  0005d	8b c7		 mov	 eax, edi

; 47   : }

  0005f	8b 4d f4	 mov	 ecx, DWORD PTR __$EHRec$[ebp]
  00062	64 89 0d 00 00
	00 00		 mov	 DWORD PTR fs:0, ecx
  00069	59		 pop	 ecx
  0006a	5f		 pop	 edi
  0006b	5e		 pop	 esi
  0006c	8b e5		 mov	 esp, ebp
  0006e	5d		 pop	 ebp
  0006f	c2 04 00	 ret	 4
_TEXT	ENDS
;	COMDAT text$x
text$x	SEGMENT
__unwindfunclet$?GetFrameInfoFile@CDispFrame@@QAE?AV?$CStringT@DV?$StrTraitMFC_DLL@DV?$ChTraitsCRT@D@ATL@@@@@ATL@@XZ$0:
  00000	8b 45 f0	 mov	 eax, DWORD PTR $T2[ebp]
  00003	83 e0 01	 and	 eax, 1
  00006	0f 84 0d 00 00
	00		 je	 $LN4@GetFrameIn
  0000c	83 65 f0 fe	 and	 DWORD PTR $T2[ebp], -2	; fffffffeH
  00010	8b 4d 08	 mov	 ecx, DWORD PTR ___$ReturnUdt$[ebp]
  00013	ff 25 00 00 00
	00		 jmp	 DWORD PTR __imp_??1?$CStringT@DV?$StrTraitMFC_DLL@DV?$ChTraitsCRT@D@ATL@@@@@ATL@@QAE@XZ
$LN4@GetFrameIn:
  00019	c3		 ret	 0
  0001a	cc		 int	 3
  0001b	cc		 int	 3
  0001c	cc		 int	 3
  0001d	cc		 int	 3
  0001e	cc		 int	 3
__ehhandler$?GetFrameInfoFile@CDispFrame@@QAE?AV?$CStringT@DV?$StrTraitMFC_DLL@DV?$ChTraitsCRT@D@ATL@@@@@ATL@@XZ:
  0001f	90		 npad	 1
  00020	90		 npad	 1
  00021	8b 54 24 08	 mov	 edx, DWORD PTR [esp+8]
  00025	8d 42 0c	 lea	 eax, DWORD PTR [edx+12]
  00028	8b 4a f0	 mov	 ecx, DWORD PTR [edx-16]
  0002b	33 c8		 xor	 ecx, eax
  0002d	e8 00 00 00 00	 call	 @__security_check_cookie@4
  00032	b8 00 00 00 00	 mov	 eax, OFFSET __ehfuncinfo$?GetFrameInfoFile@CDispFrame@@QAE?AV?$CStringT@DV?$StrTraitMFC_DLL@DV?$ChTraitsCRT@D@ATL@@@@@ATL@@XZ
  00037	e9 00 00 00 00	 jmp	 ___CxxFrameHandler3
text$x	ENDS
?GetFrameInfoFile@CDispFrame@@QAE?AV?$CStringT@DV?$StrTraitMFC_DLL@DV?$ChTraitsCRT@D@ATL@@@@@ATL@@XZ ENDP ; CDispFrame::GetFrameInfoFile
; Function compile flags: /Ogtp
; File D:\git\src\IBK\IBK_DRFN\ProjSrc\SrcDrfn\inc\DispFrame.cpp
;	COMDAT ?GetDataSaveType@CDispFrame@@QAEFXZ
_TEXT	SEGMENT
_result$ = -4						; size = 2
?GetDataSaveType@CDispFrame@@QAEFXZ PROC		; CDispFrame::GetDataSaveType, COMDAT
; _this$ = ecx

; 36   : {

  00000	55		 push	 ebp
  00001	8b ec		 mov	 ebp, esp
  00003	51		 push	 ecx

; 37   : 	short result;
; 38   : 	InvokeHelper(m_pdID[IIx_GetDataSaveType], DISPATCH_METHOD, VT_I2, (void*)&result, NULL);

  00004	6a 00		 push	 0
  00006	8d 45 fc	 lea	 eax, DWORD PTR _result$[ebp]
  00009	50		 push	 eax
  0000a	8b 41 0c	 mov	 eax, DWORD PTR [ecx+12]
  0000d	6a 02		 push	 2
  0000f	6a 01		 push	 1
  00011	ff 30		 push	 DWORD PTR [eax]
  00013	51		 push	 ecx
  00014	e8 00 00 00 00	 call	 ?InvokeHelper@COleDispatchDriver@@QAAXJGGPAXPBEZZ ; COleDispatchDriver::InvokeHelper

; 39   : 	return result;

  00019	66 8b 45 fc	 mov	 ax, WORD PTR _result$[ebp]
  0001d	83 c4 18	 add	 esp, 24			; 00000018H

; 40   : }

  00020	8b e5		 mov	 esp, ebp
  00022	5d		 pop	 ebp
  00023	c3		 ret	 0
?GetDataSaveType@CDispFrame@@QAEFXZ ENDP		; CDispFrame::GetDataSaveType
_TEXT	ENDS
; Function compile flags: /Ogtp
; File D:\git\src\IBK\IBK_DRFN\ProjSrc\SrcDrfn\inc\DispFrame.cpp
;	COMDAT ?InitInterfaceName@CDispFrame@@QAEXPAUIDispatch@@@Z
_TEXT	SEGMENT
_pDisp$ = 8						; size = 4
?InitInterfaceName@CDispFrame@@QAEXPAUIDispatch@@@Z PROC ; CDispFrame::InitInterfaceName, COMDAT
; _this$ = ecx

; 24   : {

  00000	55		 push	 ebp
  00001	8b ec		 mov	 ebp, esp
  00003	53		 push	 ebx
  00004	56		 push	 esi
  00005	57		 push	 edi

; 25   : 	int i, nCount = sizeof( m_osInterfaceName) / sizeof( OLECHAR *);
; 26   : 	m_pdID = new DISPID[ nCount];

  00006	6a 14		 push	 20			; 00000014H
  00008	8b d9		 mov	 ebx, ecx
  0000a	e8 00 00 00 00	 call	 ??_U@YAPAXI@Z		; operator new[]
  0000f	8b 7d 08	 mov	 edi, DWORD PTR _pDisp$[ebp]
  00012	83 c4 04	 add	 esp, 4
  00015	89 43 0c	 mov	 DWORD PTR [ebx+12], eax
  00018	33 f6		 xor	 esi, esi
  0001a	66 0f 1f 44 00
	00		 npad	 6
$LL4@InitInterf:

; 27   : 	for( i = 0; i < nCount; i++)
; 28   : 		pDisp->GetIDsOfNames( IID_NULL, &m_osInterfaceName[ i], 1, LOCALE_USER_DEFAULT, m_pdID + i);

  00020	8b 43 0c	 mov	 eax, DWORD PTR [ebx+12]
  00023	8b 0f		 mov	 ecx, DWORD PTR [edi]
  00025	03 c6		 add	 eax, esi
  00027	50		 push	 eax
  00028	68 00 04 00 00	 push	 1024			; 00000400H
  0002d	6a 01		 push	 1
  0002f	8d 86 00 00 00
	00		 lea	 eax, DWORD PTR ?m_osInterfaceName@CDispFrame@@2PAPA_WA[esi]
  00035	50		 push	 eax
  00036	68 00 00 00 00	 push	 OFFSET _GUID_NULL
  0003b	57		 push	 edi
  0003c	ff 51 14	 call	 DWORD PTR [ecx+20]
  0003f	83 c6 04	 add	 esi, 4
  00042	83 fe 14	 cmp	 esi, 20			; 00000014H
  00045	7c d9		 jl	 SHORT $LL4@InitInterf

; 29   : }

  00047	5f		 pop	 edi
  00048	5e		 pop	 esi
  00049	5b		 pop	 ebx
  0004a	5d		 pop	 ebp
  0004b	c2 04 00	 ret	 4
?InitInterfaceName@CDispFrame@@QAEXPAUIDispatch@@@Z ENDP ; CDispFrame::InitInterfaceName
_TEXT	ENDS
; Function compile flags: /Ogtp
; File D:\git\src\IBK\IBK_DRFN\ProjSrc\SrcDrfn\inc\DispFrame.cpp
;	COMDAT ??0CDispFrame@@QAE@XZ
_TEXT	SEGMENT
_this$ = -4						; size = 4
??0CDispFrame@@QAE@XZ PROC				; CDispFrame::CDispFrame, COMDAT
; _this$ = ecx

; 19   : {

  00000	55		 push	 ebp
  00001	8b ec		 mov	 ebp, esp
  00003	51		 push	 ecx
  00004	56		 push	 esi
  00005	8b f1		 mov	 esi, ecx
  00007	89 75 fc	 mov	 DWORD PTR _this$[ebp], esi
  0000a	e8 00 00 00 00	 call	 ??0COleDispatchDriver@@QAE@XZ ; COleDispatchDriver::COleDispatchDriver

; 20   : 	m_pdispatch = NULL;

  0000f	c7 46 08 00 00
	00 00		 mov	 DWORD PTR [esi+8], 0

; 21   : }

  00016	8b c6		 mov	 eax, esi
  00018	5e		 pop	 esi
  00019	8b e5		 mov	 esp, ebp
  0001b	5d		 pop	 ebp
  0001c	c3		 ret	 0
??0CDispFrame@@QAE@XZ ENDP				; CDispFrame::CDispFrame
_TEXT	ENDS
; Function compile flags: /Ogtp
; File D:\git\src\IBK\IBK_DRFN\ProjSrc\SrcDrfn\inc\DispFrame.cpp
;	COMDAT ?__empty_global_delete@@YAXPAXI@Z
_TEXT	SEGMENT
___formal$ = 8						; size = 4
___formal$ = 12						; size = 4
?__empty_global_delete@@YAXPAXI@Z PROC			; __empty_global_delete, COMDAT

  00000	c2 00 00	 ret	 0
?__empty_global_delete@@YAXPAXI@Z ENDP			; __empty_global_delete
_TEXT	ENDS
; Function compile flags: /Ogtp
; File D:\git\src\IBK\IBK_DRFN\ProjSrc\SrcDrfn\inc\DispFrame.cpp
;	COMDAT ?__empty_global_delete@@YAXPAX@Z
_TEXT	SEGMENT
___formal$ = 8						; size = 4
?__empty_global_delete@@YAXPAX@Z PROC			; __empty_global_delete, COMDAT

  00000	c2 00 00	 ret	 0
?__empty_global_delete@@YAXPAX@Z ENDP			; __empty_global_delete
_TEXT	ENDS
END
