; Listing generated by Microsoft (R) Optimizing Compiler Version 19.29.30148.0 

	TITLE	D:\git\src\IBK\IBK_DRFN\#DRfn-CS\_Obj\PcTrMng\EtcUtil.obj
	.686P
	.XMM
	include listing.inc
	.model	flat

INCLUDELIB MSVCRT
INCLUDELIB OLDNAMES

PUBLIC	??_C@_0P@BKKCOCLK@RMSG_INTERFACE@		; `string'
PUBLIC	??_C@_0BB@GOOPDKI@RMSG_GETPCTRDATA@		; `string'
PUBLIC	??_C@_0BB@JPACFCL@RMSG_SETPCTRDATA@		; `string'
PUBLIC	??_C@_0BB@EPGJDGDK@RMSG_CONCERNHWND@		; `string'
PUBLIC	??_C@_0BA@JHANHJCN@RMSG_INTREQUEST@		; `string'
PUBLIC	??_C@_0BF@MNPNIDPI@RMSG_GWANSIMREGISTER@	; `string'
;	COMDAT ??_C@_0BF@MNPNIDPI@RMSG_GWANSIMREGISTER@
CONST	SEGMENT
??_C@_0BF@MNPNIDPI@RMSG_GWANSIMREGISTER@ DB 'RMSG_GWANSIMREGISTER', 00H ; `string'
CONST	ENDS
;	COMDAT ??_C@_0BA@JHANHJCN@RMSG_INTREQUEST@
CONST	SEGMENT
??_C@_0BA@JHANHJCN@RMSG_INTREQUEST@ DB 'RMSG_INTREQUEST', 00H ; `string'
CONST	ENDS
;	COMDAT ??_C@_0BB@EPGJDGDK@RMSG_CONCERNHWND@
CONST	SEGMENT
??_C@_0BB@EPGJDGDK@RMSG_CONCERNHWND@ DB 'RMSG_CONCERNHWND', 00H ; `string'
CONST	ENDS
;	COMDAT ??_C@_0BB@JPACFCL@RMSG_SETPCTRDATA@
CONST	SEGMENT
??_C@_0BB@JPACFCL@RMSG_SETPCTRDATA@ DB 'RMSG_SETPCTRDATA', 00H ; `string'
CONST	ENDS
;	COMDAT ??_C@_0BB@GOOPDKI@RMSG_GETPCTRDATA@
CONST	SEGMENT
??_C@_0BB@GOOPDKI@RMSG_GETPCTRDATA@ DB 'RMSG_GETPCTRDATA', 00H ; `string'
CONST	ENDS
;	COMDAT ??_C@_0P@BKKCOCLK@RMSG_INTERFACE@
CONST	SEGMENT
??_C@_0P@BKKCOCLK@RMSG_INTERFACE@ DB 'RMSG_INTERFACE', 00H ; `string'
CONST	ENDS
PUBLIC	?__empty_global_delete@@YAXPAX@Z		; __empty_global_delete
PUBLIC	?__empty_global_delete@@YAXPAXI@Z		; __empty_global_delete
PUBLIC	?GetPcIP@CSystemInfo@@SA?AV?$CStringT@DV?$StrTraitMFC_DLL@DV?$ChTraitsCRT@D@ATL@@@@@ATL@@XZ ; CSystemInfo::GetPcIP
PUBLIC	?RegGetIP@CSystemInfo@@SA?AV?$CStringT@DV?$StrTraitMFC_DLL@DV?$ChTraitsCRT@D@ATL@@@@@ATL@@XZ ; CSystemInfo::RegGetIP
PUBLIC	??_7CRegistryManager@@6B@			; CRegistryManager::`vftable'
PUBLIC	??_C@_09PFCHIMEP@127?40?40?41@			; `string'
PUBLIC	??_C@_0DB@FADPGINO@System?2CurrentControlSet?2Servic@ ; `string'
PUBLIC	??_C@_07FGHOPFKE@?$CFs?2?$CF04d@		; `string'
PUBLIC	??_C@_01CLKCMJKC@?5@				; `string'
PUBLIC	??_C@_09NIGMFFPO@IPAddress@			; `string'
PUBLIC	??_C@_07OHKHACFK@0?40?40?40@			; `string'
PUBLIC	??_R0?AUIRegistryManager@@@8			; IRegistryManager `RTTI Type Descriptor'
PUBLIC	??_R3IRegistryManager@@8			; IRegistryManager::`RTTI Class Hierarchy Descriptor'
PUBLIC	??_R2IRegistryManager@@8			; IRegistryManager::`RTTI Base Class Array'
PUBLIC	??_R1A@?0A@EA@IRegistryManager@@8		; IRegistryManager::`RTTI Base Class Descriptor at (0,-1,0,64)'
PUBLIC	??_R4CRegistryManager@@6B@			; CRegistryManager::`RTTI Complete Object Locator'
PUBLIC	??_R0?AVCRegistryManager@@@8			; CRegistryManager `RTTI Type Descriptor'
PUBLIC	??_R3CRegistryManager@@8			; CRegistryManager::`RTTI Class Hierarchy Descriptor'
PUBLIC	??_R2CRegistryManager@@8			; CRegistryManager::`RTTI Base Class Array'
PUBLIC	??_R1A@?0A@EA@CRegistryManager@@8		; CRegistryManager::`RTTI Base Class Descriptor at (0,-1,0,64)'
EXTRN	__imp__RegisterWindowMessageA@4:PROC
EXTRN	__imp_??0?$CStringT@DV?$StrTraitMFC_DLL@DV?$ChTraitsCRT@D@ATL@@@@@ATL@@QAE@XZ:PROC
EXTRN	__imp_??0?$CStringT@DV?$StrTraitMFC_DLL@DV?$ChTraitsCRT@D@ATL@@@@@ATL@@QAE@PBD@Z:PROC
EXTRN	__imp_??1?$CStringT@DV?$StrTraitMFC_DLL@DV?$ChTraitsCRT@D@ATL@@@@@ATL@@QAE@XZ:PROC
EXTRN	__imp_??4?$CStringT@DV?$StrTraitMFC_DLL@DV?$ChTraitsCRT@D@ATL@@@@@ATL@@QAEAAV01@PBD@Z:PROC
EXTRN	__imp_?CompareNoCase@?$CStringT@DV?$StrTraitMFC_DLL@DV?$ChTraitsCRT@D@ATL@@@@@ATL@@QBEHPBD@Z:PROC
EXTRN	__imp_?Format@?$CStringT@DV?$StrTraitMFC_DLL@DV?$ChTraitsCRT@D@ATL@@@@@ATL@@QAAXPBDZZ:PROC
EXTRN	?SetStrValue@CRegistryManager@@UAGXPAUHKEY__@@PBD11@Z:PROC ; CRegistryManager::SetStrValue
EXTRN	?GetStrValue@CRegistryManager@@UAGPBDPAUHKEY__@@PBD11@Z:PROC ; CRegistryManager::GetStrValue
EXTRN	@__security_check_cookie@4:PROC
EXTRN	___CxxFrameHandler3:PROC
EXTRN	??_7type_info@@6B@:QWORD			; type_info::`vftable'
EXTRN	___security_cookie:DWORD
_BSS	SEGMENT
?RMSG_INTERFACE@@3IB DD 01H DUP (?)			; RMSG_INTERFACE
?RMSG_GETPCTRDATA@@3IB DD 01H DUP (?)			; RMSG_GETPCTRDATA
?RMSG_SETPCTRDATA@@3IB DD 01H DUP (?)			; RMSG_SETPCTRDATA
?RMSG_CONCERNHWND@@3IB DD 01H DUP (?)			; RMSG_CONCERNHWND
?RMSG_INTREQUEST@@3IB DD 01H DUP (?)			; RMSG_INTREQUEST
?RMSG_GWANSIMREGISTER@@3IB DD 01H DUP (?)		; RMSG_GWANSIMREGISTER
_BSS	ENDS
CRT$XCU	SEGMENT
?RMSG_INTERFACE$initializer$@@3P6AXXZA DD FLAT:??__ERMSG_INTERFACE@@YAXXZ ; RMSG_INTERFACE$initializer$
CRT$XCU	ENDS
;	COMDAT ??_R1A@?0A@EA@CRegistryManager@@8
rdata$r	SEGMENT
??_R1A@?0A@EA@CRegistryManager@@8 DD FLAT:??_R0?AVCRegistryManager@@@8 ; CRegistryManager::`RTTI Base Class Descriptor at (0,-1,0,64)'
	DD	01H
	DD	00H
	DD	0ffffffffH
	DD	00H
	DD	040H
	DD	FLAT:??_R3CRegistryManager@@8
rdata$r	ENDS
;	COMDAT ??_R2CRegistryManager@@8
rdata$r	SEGMENT
??_R2CRegistryManager@@8 DD FLAT:??_R1A@?0A@EA@CRegistryManager@@8 ; CRegistryManager::`RTTI Base Class Array'
	DD	FLAT:??_R1A@?0A@EA@IRegistryManager@@8
rdata$r	ENDS
;	COMDAT ??_R3CRegistryManager@@8
rdata$r	SEGMENT
??_R3CRegistryManager@@8 DD 00H				; CRegistryManager::`RTTI Class Hierarchy Descriptor'
	DD	00H
	DD	02H
	DD	FLAT:??_R2CRegistryManager@@8
rdata$r	ENDS
;	COMDAT ??_R0?AVCRegistryManager@@@8
data$rs	SEGMENT
??_R0?AVCRegistryManager@@@8 DD FLAT:??_7type_info@@6B@	; CRegistryManager `RTTI Type Descriptor'
	DD	00H
	DB	'.?AVCRegistryManager@@', 00H
data$rs	ENDS
;	COMDAT ??_R4CRegistryManager@@6B@
rdata$r	SEGMENT
??_R4CRegistryManager@@6B@ DD 00H			; CRegistryManager::`RTTI Complete Object Locator'
	DD	00H
	DD	00H
	DD	FLAT:??_R0?AVCRegistryManager@@@8
	DD	FLAT:??_R3CRegistryManager@@8
rdata$r	ENDS
;	COMDAT ??_R1A@?0A@EA@IRegistryManager@@8
rdata$r	SEGMENT
??_R1A@?0A@EA@IRegistryManager@@8 DD FLAT:??_R0?AUIRegistryManager@@@8 ; IRegistryManager::`RTTI Base Class Descriptor at (0,-1,0,64)'
	DD	00H
	DD	00H
	DD	0ffffffffH
	DD	00H
	DD	040H
	DD	FLAT:??_R3IRegistryManager@@8
rdata$r	ENDS
;	COMDAT ??_R2IRegistryManager@@8
rdata$r	SEGMENT
??_R2IRegistryManager@@8 DD FLAT:??_R1A@?0A@EA@IRegistryManager@@8 ; IRegistryManager::`RTTI Base Class Array'
rdata$r	ENDS
;	COMDAT ??_R3IRegistryManager@@8
rdata$r	SEGMENT
??_R3IRegistryManager@@8 DD 00H				; IRegistryManager::`RTTI Class Hierarchy Descriptor'
	DD	00H
	DD	01H
	DD	FLAT:??_R2IRegistryManager@@8
rdata$r	ENDS
;	COMDAT ??_R0?AUIRegistryManager@@@8
data$rs	SEGMENT
??_R0?AUIRegistryManager@@@8 DD FLAT:??_7type_info@@6B@	; IRegistryManager `RTTI Type Descriptor'
	DD	00H
	DB	'.?AUIRegistryManager@@', 00H
data$rs	ENDS
;	COMDAT ??_C@_07OHKHACFK@0?40?40?40@
CONST	SEGMENT
??_C@_07OHKHACFK@0?40?40?40@ DB '0.0.0.0', 00H		; `string'
CONST	ENDS
;	COMDAT ??_C@_09NIGMFFPO@IPAddress@
CONST	SEGMENT
??_C@_09NIGMFFPO@IPAddress@ DB 'IPAddress', 00H		; `string'
CONST	ENDS
;	COMDAT ??_C@_01CLKCMJKC@?5@
CONST	SEGMENT
??_C@_01CLKCMJKC@?5@ DB ' ', 00H			; `string'
CONST	ENDS
;	COMDAT ??_C@_07FGHOPFKE@?$CFs?2?$CF04d@
CONST	SEGMENT
??_C@_07FGHOPFKE@?$CFs?2?$CF04d@ DB '%s\%04d', 00H	; `string'
CONST	ENDS
;	COMDAT ??_C@_0DB@FADPGINO@System?2CurrentControlSet?2Servic@
CONST	SEGMENT
??_C@_0DB@FADPGINO@System?2CurrentControlSet?2Servic@ DB 'System\CurrentC'
	DB	'ontrolSet\Services\Class\NetTrans', 00H	; `string'
CONST	ENDS
;	COMDAT ??_C@_09PFCHIMEP@127?40?40?41@
CONST	SEGMENT
??_C@_09PFCHIMEP@127?40?40?41@ DB '127.0.0.1', 00H	; `string'
CONST	ENDS
;	COMDAT ??_7CRegistryManager@@6B@
CONST	SEGMENT
??_7CRegistryManager@@6B@ DD FLAT:??_R4CRegistryManager@@6B@ ; CRegistryManager::`vftable'
	DD	FLAT:?SetStrValue@CRegistryManager@@UAGXPAUHKEY__@@PBD11@Z
	DD	FLAT:?GetStrValue@CRegistryManager@@UAGPBDPAUHKEY__@@PBD11@Z
CONST	ENDS
;	COMDAT xdata$x
xdata$x	SEGMENT
__unwindtable$?RegGetIP@CSystemInfo@@SA?AV?$CStringT@DV?$StrTraitMFC_DLL@DV?$ChTraitsCRT@D@ATL@@@@@ATL@@XZ DD 0ffffffffH
	DD	FLAT:__unwindfunclet$?RegGetIP@CSystemInfo@@SA?AV?$CStringT@DV?$StrTraitMFC_DLL@DV?$ChTraitsCRT@D@ATL@@@@@ATL@@XZ$0
	DD	00H
	DD	FLAT:__unwindfunclet$?RegGetIP@CSystemInfo@@SA?AV?$CStringT@DV?$StrTraitMFC_DLL@DV?$ChTraitsCRT@D@ATL@@@@@ATL@@XZ$1
	DD	01H
	DD	FLAT:__unwindfunclet$?RegGetIP@CSystemInfo@@SA?AV?$CStringT@DV?$StrTraitMFC_DLL@DV?$ChTraitsCRT@D@ATL@@@@@ATL@@XZ$2
__ehfuncinfo$?RegGetIP@CSystemInfo@@SA?AV?$CStringT@DV?$StrTraitMFC_DLL@DV?$ChTraitsCRT@D@ATL@@@@@ATL@@XZ DD 019930522H
	DD	03H
	DD	FLAT:__unwindtable$?RegGetIP@CSystemInfo@@SA?AV?$CStringT@DV?$StrTraitMFC_DLL@DV?$ChTraitsCRT@D@ATL@@@@@ATL@@XZ
	DD	2 DUP(00H)
	DD	2 DUP(00H)
	DD	00H
	DD	01H
xdata$x	ENDS
CRT$XCU	SEGMENT
?RMSG_GETPCTRDATA$initializer$@@3P6AXXZA DD FLAT:??__ERMSG_GETPCTRDATA@@YAXXZ ; RMSG_GETPCTRDATA$initializer$
CRT$XCU	ENDS
CRT$XCU	SEGMENT
?RMSG_SETPCTRDATA$initializer$@@3P6AXXZA DD FLAT:??__ERMSG_SETPCTRDATA@@YAXXZ ; RMSG_SETPCTRDATA$initializer$
CRT$XCU	ENDS
CRT$XCU	SEGMENT
?RMSG_CONCERNHWND$initializer$@@3P6AXXZA DD FLAT:??__ERMSG_CONCERNHWND@@YAXXZ ; RMSG_CONCERNHWND$initializer$
CRT$XCU	ENDS
CRT$XCU	SEGMENT
?RMSG_INTREQUEST$initializer$@@3P6AXXZA DD FLAT:??__ERMSG_INTREQUEST@@YAXXZ ; RMSG_INTREQUEST$initializer$
CRT$XCU	ENDS
CRT$XCU	SEGMENT
?RMSG_GWANSIMREGISTER$initializer$@@3P6AXXZA DD FLAT:??__ERMSG_GWANSIMREGISTER@@YAXXZ ; RMSG_GWANSIMREGISTER$initializer$
CRT$XCU	ENDS
; Function compile flags: /Ogtp
; File D:\git\src\IBK\IBK_DRFN\ProjSrc\SrcDrfn\DrCommon\PcTrMng\EtcUtil.cpp
;	COMDAT ?RegGetIP@CSystemInfo@@SA?AV?$CStringT@DV?$StrTraitMFC_DLL@DV?$ChTraitsCRT@D@ATL@@@@@ATL@@XZ
_TEXT	SEGMENT
_RegMng$ = -28						; size = 4
$T2 = -24						; size = 4
_strPath$ = -20						; size = 4
_strKey$ = -16						; size = 4
__$EHRec$ = -12						; size = 12
___$ReturnUdt$ = 8					; size = 4
?RegGetIP@CSystemInfo@@SA?AV?$CStringT@DV?$StrTraitMFC_DLL@DV?$ChTraitsCRT@D@ATL@@@@@ATL@@XZ PROC ; CSystemInfo::RegGetIP, COMDAT

; 36   : {

  00000	55		 push	 ebp
  00001	8b ec		 mov	 ebp, esp
  00003	6a ff		 push	 -1
  00005	68 00 00 00 00	 push	 __ehhandler$?RegGetIP@CSystemInfo@@SA?AV?$CStringT@DV?$StrTraitMFC_DLL@DV?$ChTraitsCRT@D@ATL@@@@@ATL@@XZ
  0000a	64 a1 00 00 00
	00		 mov	 eax, DWORD PTR fs:0
  00010	50		 push	 eax
  00011	83 ec 10	 sub	 esp, 16			; 00000010H
  00014	53		 push	 ebx
  00015	56		 push	 esi
  00016	57		 push	 edi
  00017	a1 00 00 00 00	 mov	 eax, DWORD PTR ___security_cookie
  0001c	33 c5		 xor	 eax, ebp
  0001e	50		 push	 eax
  0001f	8d 45 f4	 lea	 eax, DWORD PTR __$EHRec$[ebp]
  00022	64 a3 00 00 00
	00		 mov	 DWORD PTR fs:0, eax
  00028	c7 45 e8 00 00
	00 00		 mov	 DWORD PTR $T2[ebp], 0

; 37   : 	int i = 0;

  0002f	33 f6		 xor	 esi, esi

; 38   : 	CString ip, strPath, strKey;

  00031	8b 7d 08	 mov	 edi, DWORD PTR ___$ReturnUdt$[ebp]
  00034	8b cf		 mov	 ecx, edi
  00036	ff 15 00 00 00
	00		 call	 DWORD PTR __imp_??0?$CStringT@DV?$StrTraitMFC_DLL@DV?$ChTraitsCRT@D@ATL@@@@@ATL@@QAE@XZ

; 51   : 		else  
; 52   : 			break;
; 53   : 	}
; 54   : 
; 55   : 	return ip;

  0003c	8d 4d ec	 lea	 ecx, DWORD PTR _strPath$[ebp]
  0003f	c7 45 e8 01 00
	00 00		 mov	 DWORD PTR $T2[ebp], 1
  00046	ff 15 00 00 00
	00		 call	 DWORD PTR __imp_??0?$CStringT@DV?$StrTraitMFC_DLL@DV?$ChTraitsCRT@D@ATL@@@@@ATL@@QAE@XZ
  0004c	8d 4d f0	 lea	 ecx, DWORD PTR _strKey$[ebp]
  0004f	c7 45 fc 01 00
	00 00		 mov	 DWORD PTR __$EHRec$[ebp+8], 1
  00056	ff 15 00 00 00
	00		 call	 DWORD PTR __imp_??0?$CStringT@DV?$StrTraitMFC_DLL@DV?$ChTraitsCRT@D@ATL@@@@@ATL@@QAE@XZ
  0005c	68 00 00 00 00	 push	 OFFSET ??_C@_0DB@FADPGINO@System?2CurrentControlSet?2Servic@
  00061	8d 4d ec	 lea	 ecx, DWORD PTR _strPath$[ebp]
  00064	c6 45 fc 02	 mov	 BYTE PTR __$EHRec$[ebp+8], 2
  00068	ff 15 00 00 00
	00		 call	 DWORD PTR __imp_??4?$CStringT@DV?$StrTraitMFC_DLL@DV?$ChTraitsCRT@D@ATL@@@@@ATL@@QAEAAV01@PBD@Z
  0006e	8b 1d 00 00 00
	00		 mov	 ebx, DWORD PTR __imp_?Format@?$CStringT@DV?$StrTraitMFC_DLL@DV?$ChTraitsCRT@D@ATL@@@@@ATL@@QAAXPBDZZ
  00074	c7 45 e4 00 00
	00 00		 mov	 DWORD PTR _RegMng$[ebp], OFFSET ??_7CRegistryManager@@6B@
  0007b	0f 1f 44 00 00	 npad	 5
$LL2@RegGetIP:

; 39   : 
; 40   : 	strPath = "System\\CurrentControlSet\\Services\\Class\\NetTrans";
; 41   : 	CRegistryManager RegMng;
; 42   : 	while( i <= 8)
; 43   : 	{
; 44   : 		strKey.Format("%s\\%04d", strPath, i);

  00080	56		 push	 esi
  00081	ff 75 ec	 push	 DWORD PTR _strPath$[ebp]
  00084	8d 45 f0	 lea	 eax, DWORD PTR _strKey$[ebp]
  00087	68 00 00 00 00	 push	 OFFSET ??_C@_07FGHOPFKE@?$CFs?2?$CF04d@
  0008c	50		 push	 eax
  0008d	ff d3		 call	 ebx
  0008f	83 c4 10	 add	 esp, 16			; 00000010H

; 45   : 		
; 46   : 		ip = RegMng.GetStrValue(HKEY_LOCAL_MACHINE, strKey, "IPAddress", " ");

  00092	8d 45 e4	 lea	 eax, DWORD PTR _RegMng$[ebp]
  00095	68 00 00 00 00	 push	 OFFSET ??_C@_01CLKCMJKC@?5@
  0009a	68 00 00 00 00	 push	 OFFSET ??_C@_09NIGMFFPO@IPAddress@
  0009f	ff 75 f0	 push	 DWORD PTR _strKey$[ebp]
  000a2	68 02 00 00 80	 push	 -2147483646		; 80000002H
  000a7	50		 push	 eax
  000a8	e8 00 00 00 00	 call	 ?GetStrValue@CRegistryManager@@UAGPBDPAUHKEY__@@PBD11@Z ; CRegistryManager::GetStrValue
  000ad	50		 push	 eax
  000ae	8b cf		 mov	 ecx, edi
  000b0	ff 15 00 00 00
	00		 call	 DWORD PTR __imp_??4?$CStringT@DV?$StrTraitMFC_DLL@DV?$ChTraitsCRT@D@ATL@@@@@ATL@@QAEAAV01@PBD@Z

; 47   : 		
; 48   : 		if( ip.CompareNoCase(" ") == 0 || ip.CompareNoCase("0.0.0.0") == 0 ||

  000b6	68 00 00 00 00	 push	 OFFSET ??_C@_01CLKCMJKC@?5@
  000bb	8b cf		 mov	 ecx, edi
  000bd	ff 15 00 00 00
	00		 call	 DWORD PTR __imp_?CompareNoCase@?$CStringT@DV?$StrTraitMFC_DLL@DV?$ChTraitsCRT@D@ATL@@@@@ATL@@QBEHPBD@Z
  000c3	85 c0		 test	 eax, eax
  000c5	74 22		 je	 SHORT $LN6@RegGetIP
  000c7	68 00 00 00 00	 push	 OFFSET ??_C@_07OHKHACFK@0?40?40?40@
  000cc	8b cf		 mov	 ecx, edi
  000ce	ff 15 00 00 00
	00		 call	 DWORD PTR __imp_?CompareNoCase@?$CStringT@DV?$StrTraitMFC_DLL@DV?$ChTraitsCRT@D@ATL@@@@@ATL@@QBEHPBD@Z
  000d4	85 c0		 test	 eax, eax
  000d6	74 11		 je	 SHORT $LN6@RegGetIP
  000d8	68 00 00 00 00	 push	 OFFSET ??_C@_09PFCHIMEP@127?40?40?41@
  000dd	8b cf		 mov	 ecx, edi
  000df	ff 15 00 00 00
	00		 call	 DWORD PTR __imp_?CompareNoCase@?$CStringT@DV?$StrTraitMFC_DLL@DV?$ChTraitsCRT@D@ATL@@@@@ATL@@QBEHPBD@Z
  000e5	85 c0		 test	 eax, eax
  000e7	75 06		 jne	 SHORT $LN4@RegGetIP
$LN6@RegGetIP:

; 49   : 			ip.CompareNoCase("127.0.0.1") == 0) 
; 50   : 			i++;

  000e9	46		 inc	 esi
  000ea	83 fe 08	 cmp	 esi, 8
  000ed	7e 91		 jle	 SHORT $LL2@RegGetIP
$LN4@RegGetIP:

; 51   : 		else  
; 52   : 			break;
; 53   : 	}
; 54   : 
; 55   : 	return ip;

  000ef	8d 4d f0	 lea	 ecx, DWORD PTR _strKey$[ebp]
  000f2	ff 15 00 00 00
	00		 call	 DWORD PTR __imp_??1?$CStringT@DV?$StrTraitMFC_DLL@DV?$ChTraitsCRT@D@ATL@@@@@ATL@@QAE@XZ
  000f8	8d 4d ec	 lea	 ecx, DWORD PTR _strPath$[ebp]
  000fb	ff 15 00 00 00
	00		 call	 DWORD PTR __imp_??1?$CStringT@DV?$StrTraitMFC_DLL@DV?$ChTraitsCRT@D@ATL@@@@@ATL@@QAE@XZ
  00101	8b c7		 mov	 eax, edi

; 56   : }

  00103	8b 4d f4	 mov	 ecx, DWORD PTR __$EHRec$[ebp]
  00106	64 89 0d 00 00
	00 00		 mov	 DWORD PTR fs:0, ecx
  0010d	59		 pop	 ecx
  0010e	5f		 pop	 edi
  0010f	5e		 pop	 esi
  00110	5b		 pop	 ebx
  00111	8b e5		 mov	 esp, ebp
  00113	5d		 pop	 ebp
  00114	c3		 ret	 0
_TEXT	ENDS
;	COMDAT text$x
text$x	SEGMENT
__unwindfunclet$?RegGetIP@CSystemInfo@@SA?AV?$CStringT@DV?$StrTraitMFC_DLL@DV?$ChTraitsCRT@D@ATL@@@@@ATL@@XZ$0:
  00000	8b 45 e8	 mov	 eax, DWORD PTR $T2[ebp]
  00003	83 e0 01	 and	 eax, 1
  00006	0f 84 0d 00 00
	00		 je	 $LN9@RegGetIP
  0000c	83 65 e8 fe	 and	 DWORD PTR $T2[ebp], -2	; fffffffeH
  00010	8b 4d 08	 mov	 ecx, DWORD PTR ___$ReturnUdt$[ebp]
  00013	ff 25 00 00 00
	00		 jmp	 DWORD PTR __imp_??1?$CStringT@DV?$StrTraitMFC_DLL@DV?$ChTraitsCRT@D@ATL@@@@@ATL@@QAE@XZ
$LN9@RegGetIP:
  00019	c3		 ret	 0
__unwindfunclet$?RegGetIP@CSystemInfo@@SA?AV?$CStringT@DV?$StrTraitMFC_DLL@DV?$ChTraitsCRT@D@ATL@@@@@ATL@@XZ$1:
  0001a	8d 4d ec	 lea	 ecx, DWORD PTR _strPath$[ebp]
  0001d	ff 25 00 00 00
	00		 jmp	 DWORD PTR __imp_??1?$CStringT@DV?$StrTraitMFC_DLL@DV?$ChTraitsCRT@D@ATL@@@@@ATL@@QAE@XZ
__unwindfunclet$?RegGetIP@CSystemInfo@@SA?AV?$CStringT@DV?$StrTraitMFC_DLL@DV?$ChTraitsCRT@D@ATL@@@@@ATL@@XZ$2:
  00023	8d 4d f0	 lea	 ecx, DWORD PTR _strKey$[ebp]
  00026	ff 25 00 00 00
	00		 jmp	 DWORD PTR __imp_??1?$CStringT@DV?$StrTraitMFC_DLL@DV?$ChTraitsCRT@D@ATL@@@@@ATL@@QAE@XZ
  0002c	cc		 int	 3
  0002d	cc		 int	 3
  0002e	cc		 int	 3
  0002f	cc		 int	 3
  00030	cc		 int	 3
__ehhandler$?RegGetIP@CSystemInfo@@SA?AV?$CStringT@DV?$StrTraitMFC_DLL@DV?$ChTraitsCRT@D@ATL@@@@@ATL@@XZ:
  00031	90		 npad	 1
  00032	90		 npad	 1
  00033	8b 54 24 08	 mov	 edx, DWORD PTR [esp+8]
  00037	8d 42 0c	 lea	 eax, DWORD PTR [edx+12]
  0003a	8b 4a e0	 mov	 ecx, DWORD PTR [edx-32]
  0003d	33 c8		 xor	 ecx, eax
  0003f	e8 00 00 00 00	 call	 @__security_check_cookie@4
  00044	b8 00 00 00 00	 mov	 eax, OFFSET __ehfuncinfo$?RegGetIP@CSystemInfo@@SA?AV?$CStringT@DV?$StrTraitMFC_DLL@DV?$ChTraitsCRT@D@ATL@@@@@ATL@@XZ
  00049	e9 00 00 00 00	 jmp	 ___CxxFrameHandler3
text$x	ENDS
?RegGetIP@CSystemInfo@@SA?AV?$CStringT@DV?$StrTraitMFC_DLL@DV?$ChTraitsCRT@D@ATL@@@@@ATL@@XZ ENDP ; CSystemInfo::RegGetIP
; Function compile flags: /Ogtp
; File D:\git\src\IBK\IBK_DRFN\ProjSrc\SrcDrfn\DrCommon\PcTrMng\EtcUtil.cpp
;	COMDAT ?GetPcIP@CSystemInfo@@SA?AV?$CStringT@DV?$StrTraitMFC_DLL@DV?$ChTraitsCRT@D@ATL@@@@@ATL@@XZ
_TEXT	SEGMENT
___$ReturnUdt$ = 8					; size = 4
?GetPcIP@CSystemInfo@@SA?AV?$CStringT@DV?$StrTraitMFC_DLL@DV?$ChTraitsCRT@D@ATL@@@@@ATL@@XZ PROC ; CSystemInfo::GetPcIP, COMDAT

; 6    : {

  00000	55		 push	 ebp
  00001	8b ec		 mov	 ebp, esp

; 7    : //@Solomon090819-->
; 8    : // 	WORD wVersionRequested;
; 9    : // 	WSADATA wsaData;
; 10   : // 	char name[255];
; 11   : // 	CString ip;
; 12   : // 	PHOSTENT hostinfo;
; 13   : // 	wVersionRequested = MAKEWORD( 2, 0 );
; 14   : // 
; 15   : // 	if(WSAStartup(wVersionRequested, &wsaData) == 0)
; 16   : // 	{
; 17   : // 		if(gethostname(name, 255) == 0 && (hostinfo = gethostbyname(name)) != NULL)
; 18   : // 		{
; 19   : // 			ip = inet_ntoa (*(struct in_addr *)*hostinfo->h_addr_list);
; 20   : // 			WSACleanup( );
; 21   : // 			return ip;
; 22   : // 		}
; 23   : // 
; 24   : // 		WSACleanup( );
; 25   : // 	} 
; 26   : // 
; 27   : // 	ip = RegGetIP();
; 28   : // 
; 29   : // 	return ip;
; 30   : 
; 31   : 	return "127.0.0.1"; //@Solomon090819

  00003	8b 4d 08	 mov	 ecx, DWORD PTR ___$ReturnUdt$[ebp]
  00006	68 00 00 00 00	 push	 OFFSET ??_C@_09PFCHIMEP@127?40?40?41@
  0000b	ff 15 00 00 00
	00		 call	 DWORD PTR __imp_??0?$CStringT@DV?$StrTraitMFC_DLL@DV?$ChTraitsCRT@D@ATL@@@@@ATL@@QAE@PBD@Z
  00011	8b 45 08	 mov	 eax, DWORD PTR ___$ReturnUdt$[ebp]

; 32   : }

  00014	5d		 pop	 ebp
  00015	c3		 ret	 0
?GetPcIP@CSystemInfo@@SA?AV?$CStringT@DV?$StrTraitMFC_DLL@DV?$ChTraitsCRT@D@ATL@@@@@ATL@@XZ ENDP ; CSystemInfo::GetPcIP
_TEXT	ENDS
; Function compile flags: /Ogtp
; File D:\git\src\IBK\IBK_DRFN\ProjSrc\SrcDrfn\inc\IAUGwanMng.h
;	COMDAT ??__ERMSG_GWANSIMREGISTER@@YAXXZ
text$di	SEGMENT
??__ERMSG_GWANSIMREGISTER@@YAXXZ PROC			; `dynamic initializer for 'RMSG_GWANSIMREGISTER'', COMDAT

; 173  : const UINT RMSG_GWANSIMREGISTER		=   ::RegisterWindowMessage("RMSG_GWANSIMREGISTER");

  00000	68 00 00 00 00	 push	 OFFSET ??_C@_0BF@MNPNIDPI@RMSG_GWANSIMREGISTER@
  00005	ff 15 00 00 00
	00		 call	 DWORD PTR __imp__RegisterWindowMessageA@4
  0000b	a3 00 00 00 00	 mov	 DWORD PTR ?RMSG_GWANSIMREGISTER@@3IB, eax
  00010	c3		 ret	 0
??__ERMSG_GWANSIMREGISTER@@YAXXZ ENDP			; `dynamic initializer for 'RMSG_GWANSIMREGISTER''
text$di	ENDS
; Function compile flags: /Ogtp
; File D:\git\src\IBK\IBK_DRFN\ProjSrc\SrcDrfn\inc\Define_Gwansim.h
;	COMDAT ??__ERMSG_INTREQUEST@@YAXXZ
text$di	SEGMENT
??__ERMSG_INTREQUEST@@YAXXZ PROC			; `dynamic initializer for 'RMSG_INTREQUEST'', COMDAT

; 10   : const UINT RMSG_INTREQUEST = ::RegisterWindowMessage(_T("RMSG_INTREQUEST") );

  00000	68 00 00 00 00	 push	 OFFSET ??_C@_0BA@JHANHJCN@RMSG_INTREQUEST@
  00005	ff 15 00 00 00
	00		 call	 DWORD PTR __imp__RegisterWindowMessageA@4
  0000b	a3 00 00 00 00	 mov	 DWORD PTR ?RMSG_INTREQUEST@@3IB, eax
  00010	c3		 ret	 0
??__ERMSG_INTREQUEST@@YAXXZ ENDP			; `dynamic initializer for 'RMSG_INTREQUEST''
text$di	ENDS
; Function compile flags: /Ogtp
; File D:\git\src\IBK\IBK_DRFN\ProjSrc\SrcDrfn\inc\Define_Gwansim.h
;	COMDAT ??__ERMSG_CONCERNHWND@@YAXXZ
text$di	SEGMENT
??__ERMSG_CONCERNHWND@@YAXXZ PROC			; `dynamic initializer for 'RMSG_CONCERNHWND'', COMDAT

; 9    : const UINT RMSG_CONCERNHWND = ::RegisterWindowMessage(_T("RMSG_CONCERNHWND") );

  00000	68 00 00 00 00	 push	 OFFSET ??_C@_0BB@EPGJDGDK@RMSG_CONCERNHWND@
  00005	ff 15 00 00 00
	00		 call	 DWORD PTR __imp__RegisterWindowMessageA@4
  0000b	a3 00 00 00 00	 mov	 DWORD PTR ?RMSG_CONCERNHWND@@3IB, eax
  00010	c3		 ret	 0
??__ERMSG_CONCERNHWND@@YAXXZ ENDP			; `dynamic initializer for 'RMSG_CONCERNHWND''
text$di	ENDS
; Function compile flags: /Ogtp
; File D:\git\src\IBK\IBK_DRFN\ProjSrc\SrcDrfn\Inc\IBaseDefine.h
;	COMDAT ??__ERMSG_SETPCTRDATA@@YAXXZ
text$di	SEGMENT
??__ERMSG_SETPCTRDATA@@YAXXZ PROC			; `dynamic initializer for 'RMSG_SETPCTRDATA'', COMDAT

; 172  : const UINT RMSG_SETPCTRDATA = ::RegisterWindowMessage("RMSG_SETPCTRDATA");

  00000	68 00 00 00 00	 push	 OFFSET ??_C@_0BB@JPACFCL@RMSG_SETPCTRDATA@
  00005	ff 15 00 00 00
	00		 call	 DWORD PTR __imp__RegisterWindowMessageA@4
  0000b	a3 00 00 00 00	 mov	 DWORD PTR ?RMSG_SETPCTRDATA@@3IB, eax
  00010	c3		 ret	 0
??__ERMSG_SETPCTRDATA@@YAXXZ ENDP			; `dynamic initializer for 'RMSG_SETPCTRDATA''
text$di	ENDS
; Function compile flags: /Ogtp
; File D:\git\src\IBK\IBK_DRFN\ProjSrc\SrcDrfn\Inc\IBaseDefine.h
;	COMDAT ??__ERMSG_GETPCTRDATA@@YAXXZ
text$di	SEGMENT
??__ERMSG_GETPCTRDATA@@YAXXZ PROC			; `dynamic initializer for 'RMSG_GETPCTRDATA'', COMDAT

; 171  : const UINT RMSG_GETPCTRDATA = ::RegisterWindowMessage("RMSG_GETPCTRDATA");

  00000	68 00 00 00 00	 push	 OFFSET ??_C@_0BB@GOOPDKI@RMSG_GETPCTRDATA@
  00005	ff 15 00 00 00
	00		 call	 DWORD PTR __imp__RegisterWindowMessageA@4
  0000b	a3 00 00 00 00	 mov	 DWORD PTR ?RMSG_GETPCTRDATA@@3IB, eax
  00010	c3		 ret	 0
??__ERMSG_GETPCTRDATA@@YAXXZ ENDP			; `dynamic initializer for 'RMSG_GETPCTRDATA''
text$di	ENDS
; Function compile flags: /Ogtp
; File D:\git\src\IBK\IBK_DRFN\ProjSrc\SrcDrfn\Inc\IBaseDefine.h
;	COMDAT ??__ERMSG_INTERFACE@@YAXXZ
text$di	SEGMENT
??__ERMSG_INTERFACE@@YAXXZ PROC				; `dynamic initializer for 'RMSG_INTERFACE'', COMDAT

; 170  : const UINT RMSG_INTERFACE = ::RegisterWindowMessage("RMSG_INTERFACE");

  00000	68 00 00 00 00	 push	 OFFSET ??_C@_0P@BKKCOCLK@RMSG_INTERFACE@
  00005	ff 15 00 00 00
	00		 call	 DWORD PTR __imp__RegisterWindowMessageA@4
  0000b	a3 00 00 00 00	 mov	 DWORD PTR ?RMSG_INTERFACE@@3IB, eax
  00010	c3		 ret	 0
??__ERMSG_INTERFACE@@YAXXZ ENDP				; `dynamic initializer for 'RMSG_INTERFACE''
text$di	ENDS
; Function compile flags: /Ogtp
; File D:\git\src\IBK\IBK_DRFN\ProjSrc\SrcDrfn\DrCommon\PcTrMng\EtcUtil.cpp
;	COMDAT ?__empty_global_delete@@YAXPAXI@Z
_TEXT	SEGMENT
___formal$ = 8						; size = 4
___formal$ = 12						; size = 4
?__empty_global_delete@@YAXPAXI@Z PROC			; __empty_global_delete, COMDAT

  00000	c2 00 00	 ret	 0
?__empty_global_delete@@YAXPAXI@Z ENDP			; __empty_global_delete
_TEXT	ENDS
; Function compile flags: /Ogtp
; File D:\git\src\IBK\IBK_DRFN\ProjSrc\SrcDrfn\DrCommon\PcTrMng\EtcUtil.cpp
;	COMDAT ?__empty_global_delete@@YAXPAX@Z
_TEXT	SEGMENT
___formal$ = 8						; size = 4
?__empty_global_delete@@YAXPAX@Z PROC			; __empty_global_delete, COMDAT

  00000	c2 00 00	 ret	 0
?__empty_global_delete@@YAXPAX@Z ENDP			; __empty_global_delete
_TEXT	ENDS
END
