; Listing generated by Microsoft (R) Optimizing Compiler Version 19.29.30145.0 

	TITLE	D:\git\src\IBK\IBK_DRFN\#DRfn-CS\_Obj\PartnerMng\_ChartBozoManager.obj
	.686P
	.XMM
	include listing.inc
	.model	flat

INCLUDELIB MSVCRT
INCLUDELIB OLDNAMES

PUBLIC	?gChtTDC_RATE@@3PAPADA				; gChtTDC_RATE
PUBLIC	??_C@_04DKCHIKEL@0?401@				; `string'
PUBLIC	??_C@_01HIHLOKLC@1@				; `string'
PUBLIC	?gChtRDC_RATE@@3PAPADA				; gChtRDC_RATE
PUBLIC	?gChRATE_DATA@@3PAHA				; gChRATE_DATA
PUBLIC	??_C@_0P@BKKCOCLK@RMSG_INTERFACE@		; `string'
PUBLIC	??_C@_0BB@GOOPDKI@RMSG_GETPCTRDATA@		; `string'
PUBLIC	??_C@_0BB@JPACFCL@RMSG_SETPCTRDATA@		; `string'
PUBLIC	??_C@_0BE@FJPKENOB@RMSG_GETSIGNAL_REAL@		; `string'
;	COMDAT ??_C@_0BE@FJPKENOB@RMSG_GETSIGNAL_REAL@
CONST	SEGMENT
??_C@_0BE@FJPKENOB@RMSG_GETSIGNAL_REAL@ DB 'RMSG_GETSIGNAL_REAL', 00H ; `string'
CONST	ENDS
;	COMDAT ??_C@_0BB@JPACFCL@RMSG_SETPCTRDATA@
CONST	SEGMENT
??_C@_0BB@JPACFCL@RMSG_SETPCTRDATA@ DB 'RMSG_SETPCTRDATA', 00H ; `string'
CONST	ENDS
;	COMDAT ??_C@_0BB@GOOPDKI@RMSG_GETPCTRDATA@
CONST	SEGMENT
??_C@_0BB@GOOPDKI@RMSG_GETPCTRDATA@ DB 'RMSG_GETPCTRDATA', 00H ; `string'
CONST	ENDS
;	COMDAT ??_C@_0P@BKKCOCLK@RMSG_INTERFACE@
CONST	SEGMENT
??_C@_0P@BKKCOCLK@RMSG_INTERFACE@ DB 'RMSG_INTERFACE', 00H ; `string'
CONST	ENDS
;	COMDAT ??_C@_01HIHLOKLC@1@
CONST	SEGMENT
??_C@_01HIHLOKLC@1@ DB '1', 00H				; `string'
CONST	ENDS
;	COMDAT ??_C@_04DKCHIKEL@0?401@
CONST	SEGMENT
??_C@_04DKCHIKEL@0?401@ DB '0.01', 00H			; `string'
CONST	ENDS
_DATA	SEGMENT
?gChtTDC_RATE@@3PAPADA DD FLAT:??_C@_04DKCHIKEL@0?401@	; gChtTDC_RATE
	DD	FLAT:??_C@_01HIHLOKLC@1@
?gChtRDC_RATE@@3PAPADA DD FLAT:??_C@_04DKCHIKEL@0?401@	; gChtRDC_RATE
	DD	FLAT:??_C@_01HIHLOKLC@1@
?gChRATE_DATA@@3PAHA DD 064H				; gChRATE_DATA
	DD	01H
_DATA	ENDS
PUBLIC	?__empty_global_delete@@YAXPAX@Z		; __empty_global_delete
PUBLIC	?__empty_global_delete@@YAXPAXI@Z		; __empty_global_delete
PUBLIC	___local_stdio_printf_options
PUBLIC	_sprintf
PUBLIC	?GetChartBozoMsg@CChartBozoManager@@UAGHPBDPAVCChartBozoInput@@AAV?$CStringT@DV?$StrTraitMFC_DLL@DV?$ChTraitsCRT@D@ATL@@@@@ATL@@H@Z ; CChartBozoManager::GetChartBozoMsg
PUBLIC	?ChangeChartBozoMsg@CChartBozoManager@@UAGHAAV?$CStringT@DV?$StrTraitMFC_DLL@DV?$ChTraitsCRT@D@ATL@@@@@ATL@@PAV?$CList@PAVCChartBozoItem@@PAV1@@@@Z ; CChartBozoManager::ChangeChartBozoMsg
PUBLIC	?GetFidType@CChartBozoManager@@UAGHPBD@Z	; CChartBozoManager::GetFidType
PUBLIC	?GetFidType@CChartBozoManager@@UAGHH@Z		; CChartBozoManager::GetFidType
PUBLIC	?GetTrType@CChartBozoManager@@UAGHPBD@Z		; CChartBozoManager::GetTrType
PUBLIC	?MakeChtBojo_ctstk@CChartBozoManager@@UAGHPAVCChartBozoInput@@AAV?$CStringT@DV?$StrTraitMFC_DLL@DV?$ChTraitsCRT@D@ATL@@@@@ATL@@H@Z ; CChartBozoManager::MakeChtBojo_ctstk
PUBLIC	?MakeChtBojo_ctup@CChartBozoManager@@UAGHPAVCChartBozoInput@@AAV?$CStringT@DV?$StrTraitMFC_DLL@DV?$ChTraitsCRT@D@ATL@@@@@ATL@@H@Z ; CChartBozoManager::MakeChtBojo_ctup
PUBLIC	?MakeChtBojo_ctsfo@CChartBozoManager@@UAGHPAVCChartBozoInput@@AAV?$CStringT@DV?$StrTraitMFC_DLL@DV?$ChTraitsCRT@D@ATL@@@@@ATL@@H@Z ; CChartBozoManager::MakeChtBojo_ctsfo
PUBLIC	?MakeChtBojo_ctfo@CChartBozoManager@@UAGHPAVCChartBozoInput@@AAV?$CStringT@DV?$StrTraitMFC_DLL@DV?$ChTraitsCRT@D@ATL@@@@@ATL@@H@Z ; CChartBozoManager::MakeChtBojo_ctfo
PUBLIC	?MakeChtBojo_ctfrn@CChartBozoManager@@UAGHPAVCChartBozoInput@@AAV?$CStringT@DV?$StrTraitMFC_DLL@DV?$ChTraitsCRT@D@ATL@@@@@ATL@@H@Z ; CChartBozoManager::MakeChtBojo_ctfrn
PUBLIC	?MakeChtBojo_market@CChartBozoManager@@UAGHPAVCChartBozoInput@@AAV?$CStringT@DV?$StrTraitMFC_DLL@DV?$ChTraitsCRT@D@ATL@@@@@ATL@@H@Z ; CChartBozoManager::MakeChtBojo_market
PUBLIC	?MakeChtBojo_ctfofor@CChartBozoManager@@UAGHPAVCChartBozoInput@@AAV?$CStringT@DV?$StrTraitMFC_DLL@DV?$ChTraitsCRT@D@ATL@@@@@ATL@@H@Z ; CChartBozoManager::MakeChtBojo_ctfofor
PUBLIC	?MakeChtBojo_ctfx@CChartBozoManager@@UAGHPAVCChartBozoInput@@AAV?$CStringT@DV?$StrTraitMFC_DLL@DV?$ChTraitsCRT@D@ATL@@@@@ATL@@H@Z ; CChartBozoManager::MakeChtBojo_ctfx
PUBLIC	?MakeChtBojo_ctcme@CChartBozoManager@@UAGHPAVCChartBozoInput@@AAV?$CStringT@DV?$StrTraitMFC_DLL@DV?$ChTraitsCRT@D@ATL@@@@@ATL@@H@Z ; CChartBozoManager::MakeChtBojo_ctcme
PUBLIC	??0CChartBozoManager@@QAE@XZ			; CChartBozoManager::CChartBozoManager
PUBLIC	?_DoCalcBozoSize@CChartBozoManager@@IAEHAAV?$CStringT@DV?$StrTraitMFC_DLL@DV?$ChTraitsCRT@D@ATL@@@@@ATL@@@Z ; CChartBozoManager::_DoCalcBozoSize
PUBLIC	?_FindKeyInBozoString@CChartBozoManager@@IAEHAAV?$CStringT@DV?$StrTraitMFC_DLL@DV?$ChTraitsCRT@D@ATL@@@@@ATL@@PBDAAH2@Z ; CChartBozoManager::_FindKeyInBozoString
PUBLIC	?_DoPre_GetChartBozoMsg@CChartBozoManager@@IAEXPAVCChartBozoInput@@@Z ; CChartBozoManager::_DoPre_GetChartBozoMsg
PUBLIC	?_OptionsStorage@?1??__local_stdio_printf_options@@9@4_KA ; `__local_stdio_printf_options'::`2'::_OptionsStorage
PUBLIC	??_C@_0O@PJEIPGOG@DRLog_Message@		; `string'
PUBLIC	??_7CChartBozoManager@@6B@			; CChartBozoManager::`vftable'
PUBLIC	??_C@_04OCCELDNI@?$CF04d@			; `string'
PUBLIC	??_C@_06BKDDPDOC@?$CFs?$DN?$CFs?$EA@		; `string'
PUBLIC	??_C@_01NEMOKFLO@?$DN@				; `string'
PUBLIC	??_C@_02PLJDPFIO@00@				; `string'
PUBLIC	??_C@_04JDPKJLKG@0000@				; `string'
PUBLIC	??_C@_0BI@MKMDCDBM@ChartBozo?5size?$DN?$CFd?5?$FL?$CFs?$FN?6@ ; `string'
PUBLIC	??_C@_0II@OOILGDEE@BOUNDMARK?$DN?$LA?$KB?$LA?$NN?B?w?F?$KO?3?$CFld?0?$CFld?3?$CF?46s@ ; `string'
PUBLIC	??_C@_0BAI@EAMGALPA@BOUNDMARK?$DN?$LE?$NO?$LH?$KP?B?w?F?$KO?3?$CF?42f?0?$CF?42f?3?$CF?4@ ; `string'
PUBLIC	??_C@_0ON@KHKHJFCL@BOUNDMARK?$DN?$LE?$NO?$LH?$KP?B?w?F?$KO?3?$CF?42f?0?$CF?42f?3?$CF?4@ ; `string'
PUBLIC	??_C@_0PG@JMCCFOJJ@BOUNDMARK?$DN?$LE?k?$LK?q?B?w?F?$KO?3?$CF?42f?0?$CF?42f?3?$CF?4@ ; `string'
PUBLIC	??_C@_0EP@KAFACABJ@?$CD?$CD?$CD?$CDUM?$DN?$CFc?$EAUD?$DN5?$EAUT?$DN?$CFld?$EARDATET?$DNDD@ ; `string'
PUBLIC	??_C@_0EP@OOAAPMPD@?$CD?$CD?$CD?$CDUM?$DN?$CFc?$EAUD?$DN4?$EAUT?$DN?$CFld?$EARDATET?$DNMM@ ; `string'
PUBLIC	??_C@_0BB@BNNNBIJD@RELPSA?$DN?$CF?46s?3?$CF?46s@ ; `string'
PUBLIC	??_C@_0EL@HGJGADMD@?$CD?$CD?$CD?$CDUM?$DN?$CFc?$EAUD?$DN1?$EARDATET?$DNYYYYMMDD?$EA@ ; `string'
PUBLIC	??_C@_0EI@CBJPMLJE@?$CD?$CD?$CD?$CDUM?$DN?$CFc?$EAUD?$DN1?$EARDATET?$DNYYYYMMDD?$EA@ ; `string'
PUBLIC	??_C@_0EJ@KGPLDGKH@?$CD?$CD?$CD?$CDUM?$DN?$CFc?$EAUD?$DN2?$EARDATET?$DNYYYYMMDD?$EA@ ; `string'
PUBLIC	??_C@_0EH@KKDEEOPA@?$CD?$CD?$CD?$CDUM?$DN?$CFc?$EAUD?$DN3?$EARDATET?$DNYYYYMM?$EARE@ ; `string'
PUBLIC	??_C@_0EP@MIPGKENG@?$CD?$CD?$CD?$CDUM?$DN?$CFc?$EAUD?$DN3?$EARDATET?$DNYYYYMM?$EARE@ ; `string'
PUBLIC	??_C@_0EP@OJLJINAG@?$CD?$CD?$CD?$CDUM?$DN?$CFc?$EAUD?$DN4?$EAUT?$DN?$CFld?$EARDATET?$DNDD@ ; `string'
PUBLIC	??_C@_0P@PGBOBNFI@MARKETTIME?$DN?$CFs?$EA@	; `string'
PUBLIC	??_C@_0N@BEOFONCO@BASETIME?$DN?$CFs?$EA@	; `string'
PUBLIC	??_C@_0N@JENAIHAK@DATATIME?$DN?$CFs?$EA@	; `string'
PUBLIC	??_C@_0OB@HFJAHOEB@?$CD?$CD?$CD?$CDUM?$DN?$CFc?$EAUD?$DN5?$EAUT?$DN?$CFld?$EARDATET?$DNDD@ ; `string'
PUBLIC	??_C@_0OA@GKJPGFLL@?$CD?$CD?$CD?$CDUM?$DN?$CFc?$EAUD?$DN4?$EAUT?$DN?$CFld?$EARDATET?$DNMM@ ; `string'
PUBLIC	??_C@_0BB@BOFJMMPN@RELPSA?$DN?$CF?46s?3?$CF?44s@ ; `string'
PUBLIC	??_C@_0LF@JEMNOOFL@?$CD?$CD?$CD?$CDUM?$DN?$CFc?$EAUD?$DN1?$EARDATET?$DNYYYYMMDD?$EA@ ; `string'
PUBLIC	??_C@_0LD@GJEOEOBG@?$CD?$CD?$CD?$CDUM?$DN?$CFc?$EAUD?$DN1?$EARDATET?$DNYYYYMMDD?$EA@ ; `string'
PUBLIC	??_C@_0MK@KBKLMIDJ@?$CD?$CD?$CD?$CDUM?$DN?$CFc?$EAUD?$DN2?$EARDATET?$DNYYYYMMDD?$EA@ ; `string'
PUBLIC	??_C@_0MI@PFGFFMKF@?$CD?$CD?$CD?$CDUM?$DN?$CFc?$EAUD?$DN3?$EARDATET?$DNYYYYMM?$EACB@ ; `string'
PUBLIC	??_C@_0FP@NCGPFHCO@BOUNDMARK?$DN?$LA?$KB?$LA?$NN?B?w?F?$KO?3?$CFld?0?$CFld?3?$CF?48s@ ; `string'
PUBLIC	??_C@_0ML@LKEBHBOM@BOUNDMARK?$DN?$LE?k?$LK?q?B?w?F?$KO?3?$CF?42f?0?$CF?42f?3?$CF?4@ ; `string'
PUBLIC	??_C@_0HD@KEEBLBP@?$CD?$CD?$CD?$CDUM?$DN?$CFc?$EAUD?$DN5?$EAUT?$DN?$CFld?$EARDATET?$DNDD@ ; `string'
PUBLIC	??_C@_0HD@IFDJFODJ@?$CD?$CD?$CD?$CDUM?$DN?$CFc?$EAUD?$DN4?$EAUT?$DN?$CFld?$EARDATET?$DNMM@ ; `string'
PUBLIC	??_C@_0BC@HJLNCHNA@RELPSA?$DN?$CF?46s?3?$CF?48s?$EA@ ; `string'
PUBLIC	??_C@_0EJ@CCPOKDHH@?$CD?$CD?$CD?$CDUM?$DN?$CFc?$EAUD?$DN1?$EARDATET?$DNYYYYMMDD?$EA@ ; `string'
PUBLIC	??_C@_0EI@JKELMFIH@?$CD?$CD?$CD?$CDUM?$DN?$CFc?$EAUD?$DN2?$EARDATET?$DNYYYYMMDD?$EA@ ; `string'
PUBLIC	??_C@_0EG@ODCIKKEM@?$CD?$CD?$CD?$CDUM?$DN?$CFc?$EAUD?$DN3?$EARDATET?$DNYYYYMM?$EARE@ ; `string'
PUBLIC	??_C@_0HE@BLDCANEH@?$CD?$CD?$CD?$CDUM?$DN?$CFc?$EAUD?$DN4?$EAUT?$DN?$CFld?$EARDATET?$DNDD@ ; `string'
PUBLIC	??_C@_0BBJ@FBCAGBNM@?$CD?$CD?$CD?$CDUM?$DN?$CFc?$EABOUNDMARK?$DN?$LA?$KB?$LA?$NN?B?w?F?$KO?3?$CF?4@ ; `string'
PUBLIC	??_C@_0BBJ@NPHDBNNN@?$CD?$CD?$CD?$CDUM?$DN?$CFc?$EABOUNDMARK?$DN?$LA?$KB?$LA?$NN?B?w?F?$KO?3?$CF?4@ ; `string'
PUBLIC	??_C@_0BBJ@CJIMFCEH@?$CD?$CD?$CD?$CDUM?$DN?$CFc?$EABOUNDMARK?$DN?$LA?$KB?$LA?$NN?B?w?F?$KO?3?$CF?4@ ; `string'
PUBLIC	??_C@_0BB@BHEDDFJJ@RELPSA?$DN?$CF?46s?3?$CF?48s@ ; `string'
PUBLIC	??_C@_0BAF@DOMNDJJA@?$CD?$CD?$CD?$CDUM?$DN?$CFc?$EABOUNDMARK?$DN?$LA?$KB?$LA?$NN?B?w?F?$KO?3?$CF?4@ ; `string'
PUBLIC	??_C@_0BAD@OKPIANHP@?$CD?$CD?$CD?$CDUM?$DN?$CFc?$EABOUNDMARK?$DN?$LA?$KB?$LA?$NN?B?w?F?$KO?3?$CF?4@ ; `string'
PUBLIC	??_C@_0BAC@MLJKMKML@?$CD?$CD?$CD?$CDUM?$DN?$CFc?$EABOUNDMARK?$DN?$LA?$KB?$LA?$NN?B?w?F?$KO?3?$CF?4@ ; `string'
PUBLIC	??_C@_0BAA@CCOHAGBM@?$CD?$CD?$CD?$CDUM?$DN?$CFc?$EABOUNDMARK?$DN?$LA?$KB?$LA?$NN?B?w?F?$KO?3?$CF?4@ ; `string'
PUBLIC	??_C@_0BBJ@NOFDPNGI@?$CD?$CD?$CD?$CDUM?$DN?$CFc?$EABOUNDMARK?$DN?$LA?$KB?$LA?$NN?B?w?F?$KO?3?$CF?4@ ; `string'
PUBLIC	??_C@_0NI@FDFJIIBH@?$CD?$CD?$CD?$CDUM?$DN?$CFc?$EAUD?$DN5?$EAUT?$DN?$CFld?$EARDATET?$DNDD@ ; `string'
PUBLIC	??_C@_0NH@KCALLDHK@?$CD?$CD?$CD?$CDUM?$DN?$CFc?$EAUD?$DN4?$EAUT?$DN?$CFld?$EARDATET?$DNMM@ ; `string'
PUBLIC	??_C@_0KN@PDECNFCF@?$CD?$CD?$CD?$CDUM?$DN?$CFc?$EAUD?$DN1?$EARDATET?$DNYYYYMMDD?$EA@ ; `string'
PUBLIC	??_C@_0MD@IMKMEPAH@?$CD?$CD?$CD?$CDUM?$DN?$CFc?$EAUD?$DN1?$EARDATET?$DNYYYYMMDD?$EA@ ; `string'
PUBLIC	??_C@_0MC@BDFEIOLD@?$CD?$CD?$CD?$CDUM?$DN?$CFc?$EAUD?$DN2?$EARDATET?$DNYYYYMMDD?$EA@ ; `string'
PUBLIC	??_C@_0MA@JCOHCJA@?$CD?$CD?$CD?$CDUM?$DN?$CFc?$EAUD?$DN3?$EARDATET?$DNYYYYMM?$EACB@ ; `string'
PUBLIC	??_C@_0L@EIHINGKC@0396UM?$DN?$CFc?$EA@		; `string'
PUBLIC	??_C@_04HGGMHPIM@?$CF?4?$CKf@			; `string'
PUBLIC	??_C@_08JFMBEEDE@DDHHMMSS@			; `string'
PUBLIC	??_C@_0P@IMPIBBAB@YYYYMMDDHHMMSS@		; `string'
PUBLIC	??_C@_0BBC@NPPOPJCN@?$CD?$CD?$CD?$CDUM?$DN?$CFc?$EABOUNDMARK?$DN?$LA?$KB?$LA?$NN?B?w?F?$KO?3?$CFs@ ; `string'
PUBLIC	??_C@_0BBE@CMGOCDEB@?$CD?$CD?$CD?$CDUM?$DN?$CFc?$EABOUNDMARK?$DN?$LA?$KB?$LA?$NN?B?w?F?$KO?3?$CFs@ ; `string'
PUBLIC	??_C@_08KLIIINKM@MMDDHHMM@			; `string'
PUBLIC	??_C@_0BBC@CIOGPLEJ@?$CD?$CD?$CD?$CDUM?$DN?$CFc?$EABOUNDMARK?$DN?$LA?$KB?$LA?$NN?B?w?F?$KO?3?$CFs@ ; `string'
PUBLIC	??_C@_08DKDJLCMP@YYYYMMDD@			; `string'
PUBLIC	??_C@_0PO@FAPKIOBH@?$CD?$CD?$CD?$CDUM?$DN?$CFc?$EABOUNDMARK?$DN?$LA?$KB?$LA?$NN?B?w?F?$KO?3?$CFs@ ; `string'
PUBLIC	??_C@_0PL@EGCBFIOB@?$CD?$CD?$CD?$CDUM?$DN?$CFc?$EABOUNDMARK?$DN?$LA?$KB?$LA?$NN?B?w?F?$KO?3?$CFs@ ; `string'
PUBLIC	??_C@_0PL@CIOONNG@?$CD?$CD?$CD?$CDUM?$DN?$CFc?$EABOUNDMARK?$DN?$LA?$KB?$LA?$NN?B?w?F?$KO?3?$CFs@ ; `string'
PUBLIC	??_C@_06EBMMBHJD@YYYYMM@			; `string'
PUBLIC	??_C@_0PL@DOOLIBDL@?$CD?$CD?$CD?$CDUM?$DN?$CFc?$EABOUNDMARK?$DN?$LA?$KB?$LA?$NN?B?w?F?$KO?3?$CFs@ ; `string'
PUBLIC	??_C@_0CJ@CALGHGEA@REALTIMET?$DNYYYYMMDDHHMMSS?$EARESETU@ ; `string'
PUBLIC	??_C@_0GE@JIELKBPF@BOUNDMARK?$DN?$LA?$KB?$LA?$NN?B?w?F?$KO?3?$CFld?0?$CFld?3?$CF?46s@ ; `string'
PUBLIC	??_C@_06PFAJMMJF@x?5?$CF?4?$CKf@		; `string'
PUBLIC	??_C@_0EB@FAKBLPPL@RESETPACKET?$DN_Close_?310?3?$CFs?$HM_Open@ ; `string'
PUBLIC	??_C@_0EI@EOHDKAAA@?$CD?$CD?$CD?$CDUM?$DN?$CFc?$EAUD?$DN5?$EAUT?$DN?$CFld?$EARDATET?$DN?$CFs@ ; `string'
PUBLIC	??_C@_0EI@CHDPKFPB@?$CD?$CD?$CD?$CDUM?$DN?$CFc?$EAUD?$DN4?$EAUT?$DN?$CFld?$EARDATET?$DN?$CFs@ ; `string'
PUBLIC	??_C@_0EE@OICAFPDE@?$CD?$CD?$CD?$CDUM?$DN?$CFc?$EAUD?$DN1?$EARDATET?$DN?$CFs?$EARESETU@ ; `string'
PUBLIC	??_C@_0EC@JMKCPHNL@?$CD?$CD?$CD?$CDUM?$DN?$CFc?$EAUD?$DN1?$EARDATET?$DN?$CFs?$EARESETU@ ; `string'
PUBLIC	??_C@_0EC@BPMLCHBI@?$CD?$CD?$CD?$CDUM?$DN?$CFc?$EAUD?$DN2?$EARDATET?$DN?$CFs?$EARESETU@ ; `string'
PUBLIC	??_C@_0EC@GBBDJHFJ@?$CD?$CD?$CD?$CDUM?$DN?$CFc?$EAUD?$DN3?$EARDATET?$DN?$CFs?$EARESETU@ ; `string'
PUBLIC	??_C@_0GD@BAOLIJAJ@BOUNDMARK?$DN_PriceChart_?3?$CFs?0?$CFs?3?$CFs@ ; `string'
PUBLIC	??_R0?AUIChartBozoMsgManager@@@8		; IChartBozoMsgManager `RTTI Type Descriptor'
PUBLIC	??_R3IChartBozoMsgManager@@8			; IChartBozoMsgManager::`RTTI Class Hierarchy Descriptor'
PUBLIC	??_R2IChartBozoMsgManager@@8			; IChartBozoMsgManager::`RTTI Base Class Array'
PUBLIC	??_R1A@?0A@EA@IChartBozoMsgManager@@8		; IChartBozoMsgManager::`RTTI Base Class Descriptor at (0,-1,0,64)'
PUBLIC	??_R4CChartBozoManager@@6B@			; CChartBozoManager::`RTTI Complete Object Locator'
PUBLIC	??_R0?AVCChartBozoManager@@@8			; CChartBozoManager `RTTI Type Descriptor'
PUBLIC	??_R3CChartBozoManager@@8			; CChartBozoManager::`RTTI Class Hierarchy Descriptor'
PUBLIC	??_R2CChartBozoManager@@8			; CChartBozoManager::`RTTI Base Class Array'
PUBLIC	??_R1A@?0A@EA@CChartBozoManager@@8		; CChartBozoManager::`RTTI Base Class Descriptor at (0,-1,0,64)'
PUBLIC	__real@3ff0000000000000
PUBLIC	__real@4024000000000000
PUBLIC	__real@4059000000000000
EXTRN	__imp__GetProcAddress@8:PROC
EXTRN	__imp__RegisterWindowMessageA@4:PROC
EXTRN	__imp____stdio_common_vsprintf:PROC
EXTRN	__imp__atof:PROC
EXTRN	__imp__atoi:PROC
EXTRN	__imp__atol:PROC
EXTRN	__imp_?Empty@?$CSimpleStringT@D$00@ATL@@QAEXXZ:PROC
EXTRN	__imp_?SetAt@?$CSimpleStringT@D$00@ATL@@QAEXHD@Z:PROC
EXTRN	__imp_??0?$CStringT@DV?$StrTraitMFC_DLL@DV?$ChTraitsCRT@D@ATL@@@@@ATL@@QAE@XZ:PROC
EXTRN	__imp_??0?$CStringT@DV?$StrTraitMFC_DLL@DV?$ChTraitsCRT@D@ATL@@@@@ATL@@QAE@PBD@Z:PROC
EXTRN	__imp_??1?$CStringT@DV?$StrTraitMFC_DLL@DV?$ChTraitsCRT@D@ATL@@@@@ATL@@QAE@XZ:PROC
EXTRN	__imp_??4?$CStringT@DV?$StrTraitMFC_DLL@DV?$ChTraitsCRT@D@ATL@@@@@ATL@@QAEAAV01@ABV01@@Z:PROC
EXTRN	__imp_??4?$CStringT@DV?$StrTraitMFC_DLL@DV?$ChTraitsCRT@D@ATL@@@@@ATL@@QAEAAV01@PBD@Z:PROC
EXTRN	__imp_??Y?$CStringT@DV?$StrTraitMFC_DLL@DV?$ChTraitsCRT@D@ATL@@@@@ATL@@QAEAAV01@ABV?$CSimpleStringT@D$00@1@@Z:PROC
EXTRN	__imp_??Y?$CStringT@DV?$StrTraitMFC_DLL@DV?$ChTraitsCRT@D@ATL@@@@@ATL@@QAEAAV01@PBD@Z:PROC
EXTRN	__imp_?Compare@?$CStringT@DV?$StrTraitMFC_DLL@DV?$ChTraitsCRT@D@ATL@@@@@ATL@@QBEHPBD@Z:PROC
EXTRN	__imp_?Delete@?$CStringT@DV?$StrTraitMFC_DLL@DV?$ChTraitsCRT@D@ATL@@@@@ATL@@QAEHHH@Z:PROC
EXTRN	__imp_?Replace@?$CStringT@DV?$StrTraitMFC_DLL@DV?$ChTraitsCRT@D@ATL@@@@@ATL@@QAEHPBD0@Z:PROC
EXTRN	__imp_?Find@?$CStringT@DV?$StrTraitMFC_DLL@DV?$ChTraitsCRT@D@ATL@@@@@ATL@@QBEHDH@Z:PROC
EXTRN	__imp_?Find@?$CStringT@DV?$StrTraitMFC_DLL@DV?$ChTraitsCRT@D@ATL@@@@@ATL@@QBEHPBDH@Z:PROC
EXTRN	__imp_?Mid@?$CStringT@DV?$StrTraitMFC_DLL@DV?$ChTraitsCRT@D@ATL@@@@@ATL@@QBE?AV12@HH@Z:PROC
EXTRN	__imp_?Format@?$CStringT@DV?$StrTraitMFC_DLL@DV?$ChTraitsCRT@D@ATL@@@@@ATL@@QAAXPBDZZ:PROC
EXTRN	@__security_check_cookie@4:PROC
EXTRN	___CxxFrameHandler3:PROC
EXTRN	__libm_sse2_log10_precise:PROC
EXTRN	__libm_sse2_pow_precise:PROC
EXTRN	_memcpy:PROC
EXTRN	_memset:PROC
EXTRN	??_7type_info@@6B@:QWORD			; type_info::`vftable'
EXTRN	?g_pDRDebuger@@3PAVCDRDebugerLoader@@A:DWORD	; g_pDRDebuger
EXTRN	___security_cookie:DWORD
EXTRN	__fltused:DWORD
;	COMDAT ?_OptionsStorage@?1??__local_stdio_printf_options@@9@4_KA
_BSS	SEGMENT
?_OptionsStorage@?1??__local_stdio_printf_options@@9@4_KA DQ 01H DUP (?) ; `__local_stdio_printf_options'::`2'::_OptionsStorage
_BSS	ENDS
_BSS	SEGMENT
?RMSG_INTERFACE@@3IB DD 01H DUP (?)			; RMSG_INTERFACE
?RMSG_GETPCTRDATA@@3IB DD 01H DUP (?)			; RMSG_GETPCTRDATA
?RMSG_SETPCTRDATA@@3IB DD 01H DUP (?)			; RMSG_SETPCTRDATA
?RMSG_GETSIGNAL_REAL@@3IB DD 01H DUP (?)		; RMSG_GETSIGNAL_REAL
_BSS	ENDS
CRT$XCU	SEGMENT
?RMSG_INTERFACE$initializer$@@3P6AXXZA DD FLAT:??__ERMSG_INTERFACE@@YAXXZ ; RMSG_INTERFACE$initializer$
CRT$XCU	ENDS
;	COMDAT __real@4059000000000000
CONST	SEGMENT
__real@4059000000000000 DQ 04059000000000000r	; 100
CONST	ENDS
;	COMDAT __real@4024000000000000
CONST	SEGMENT
__real@4024000000000000 DQ 04024000000000000r	; 10
CONST	ENDS
;	COMDAT __real@3ff0000000000000
CONST	SEGMENT
__real@3ff0000000000000 DQ 03ff0000000000000r	; 1
CONST	ENDS
;	COMDAT ??_R1A@?0A@EA@CChartBozoManager@@8
rdata$r	SEGMENT
??_R1A@?0A@EA@CChartBozoManager@@8 DD FLAT:??_R0?AVCChartBozoManager@@@8 ; CChartBozoManager::`RTTI Base Class Descriptor at (0,-1,0,64)'
	DD	01H
	DD	00H
	DD	0ffffffffH
	DD	00H
	DD	040H
	DD	FLAT:??_R3CChartBozoManager@@8
rdata$r	ENDS
;	COMDAT ??_R2CChartBozoManager@@8
rdata$r	SEGMENT
??_R2CChartBozoManager@@8 DD FLAT:??_R1A@?0A@EA@CChartBozoManager@@8 ; CChartBozoManager::`RTTI Base Class Array'
	DD	FLAT:??_R1A@?0A@EA@IChartBozoMsgManager@@8
rdata$r	ENDS
;	COMDAT ??_R3CChartBozoManager@@8
rdata$r	SEGMENT
??_R3CChartBozoManager@@8 DD 00H			; CChartBozoManager::`RTTI Class Hierarchy Descriptor'
	DD	00H
	DD	02H
	DD	FLAT:??_R2CChartBozoManager@@8
rdata$r	ENDS
;	COMDAT ??_R0?AVCChartBozoManager@@@8
data$rs	SEGMENT
??_R0?AVCChartBozoManager@@@8 DD FLAT:??_7type_info@@6B@ ; CChartBozoManager `RTTI Type Descriptor'
	DD	00H
	DB	'.?AVCChartBozoManager@@', 00H
data$rs	ENDS
;	COMDAT ??_R4CChartBozoManager@@6B@
rdata$r	SEGMENT
??_R4CChartBozoManager@@6B@ DD 00H			; CChartBozoManager::`RTTI Complete Object Locator'
	DD	00H
	DD	00H
	DD	FLAT:??_R0?AVCChartBozoManager@@@8
	DD	FLAT:??_R3CChartBozoManager@@8
rdata$r	ENDS
;	COMDAT ??_R1A@?0A@EA@IChartBozoMsgManager@@8
rdata$r	SEGMENT
??_R1A@?0A@EA@IChartBozoMsgManager@@8 DD FLAT:??_R0?AUIChartBozoMsgManager@@@8 ; IChartBozoMsgManager::`RTTI Base Class Descriptor at (0,-1,0,64)'
	DD	00H
	DD	00H
	DD	0ffffffffH
	DD	00H
	DD	040H
	DD	FLAT:??_R3IChartBozoMsgManager@@8
rdata$r	ENDS
;	COMDAT ??_R2IChartBozoMsgManager@@8
rdata$r	SEGMENT
??_R2IChartBozoMsgManager@@8 DD FLAT:??_R1A@?0A@EA@IChartBozoMsgManager@@8 ; IChartBozoMsgManager::`RTTI Base Class Array'
rdata$r	ENDS
;	COMDAT ??_R3IChartBozoMsgManager@@8
rdata$r	SEGMENT
??_R3IChartBozoMsgManager@@8 DD 00H			; IChartBozoMsgManager::`RTTI Class Hierarchy Descriptor'
	DD	00H
	DD	01H
	DD	FLAT:??_R2IChartBozoMsgManager@@8
rdata$r	ENDS
;	COMDAT ??_R0?AUIChartBozoMsgManager@@@8
data$rs	SEGMENT
??_R0?AUIChartBozoMsgManager@@@8 DD FLAT:??_7type_info@@6B@ ; IChartBozoMsgManager `RTTI Type Descriptor'
	DD	00H
	DB	'.?AUIChartBozoMsgManager@@', 00H
data$rs	ENDS
;	COMDAT ??_C@_0GD@BAOLIJAJ@BOUNDMARK?$DN_PriceChart_?3?$CFs?0?$CFs?3?$CFs@
CONST	SEGMENT
??_C@_0GD@BAOLIJAJ@BOUNDMARK?$DN_PriceChart_?3?$CFs?0?$CFs?3?$CFs@ DB 'BO'
	DB	'UNDMARK=_PriceChart_:%s,%s:%s:1:%ld:%c@PREVPRICE=_Close_:%s@O'
	DB	'HL=:%s:%s:%s@PREVPRICE2=%s:%s:%s:%s', 00H	; `string'
CONST	ENDS
;	COMDAT ??_C@_0EC@GBBDJHFJ@?$CD?$CD?$CD?$CDUM?$DN?$CFc?$EAUD?$DN3?$EARDATET?$DN?$CFs?$EARESETU@
CONST	SEGMENT
??_C@_0EC@GBBDJHFJ@?$CD?$CD?$CD?$CDUM?$DN?$CFc?$EAUD?$DN3?$EARDATET?$DN?$CFs?$EARESETU@ DB '#'
	DB	'###UM=%c@UD=3@RDATET=%s@RESETUSEREAL=1@%s@@CB=_Close_:0|@SCD='
	DB	'%s@', 00H					; `string'
CONST	ENDS
;	COMDAT ??_C@_0EC@BPMLCHBI@?$CD?$CD?$CD?$CDUM?$DN?$CFc?$EAUD?$DN2?$EARDATET?$DN?$CFs?$EARESETU@
CONST	SEGMENT
??_C@_0EC@BPMLCHBI@?$CD?$CD?$CD?$CDUM?$DN?$CFc?$EAUD?$DN2?$EARDATET?$DN?$CFs?$EARESETU@ DB '#'
	DB	'###UM=%c@UD=2@RDATET=%s@RESETUSEREAL=1@%s@@CB=_Close_:0|@SCD='
	DB	'%s@', 00H					; `string'
CONST	ENDS
;	COMDAT ??_C@_0EC@JMKCPHNL@?$CD?$CD?$CD?$CDUM?$DN?$CFc?$EAUD?$DN1?$EARDATET?$DN?$CFs?$EARESETU@
CONST	SEGMENT
??_C@_0EC@JMKCPHNL@?$CD?$CD?$CD?$CDUM?$DN?$CFc?$EAUD?$DN1?$EARDATET?$DN?$CFs?$EARESETU@ DB '#'
	DB	'###UM=%c@UD=1@RDATET=%s@RESETUSEREAL=1@%s@@CB=_Close_:0|@SCD='
	DB	'%s@', 00H					; `string'
CONST	ENDS
;	COMDAT ??_C@_0EE@OICAFPDE@?$CD?$CD?$CD?$CDUM?$DN?$CFc?$EAUD?$DN1?$EARDATET?$DN?$CFs?$EARESETU@
CONST	SEGMENT
??_C@_0EE@OICAFPDE@?$CD?$CD?$CD?$CDUM?$DN?$CFc?$EAUD?$DN1?$EARDATET?$DN?$CFs?$EARESETU@ DB '#'
	DB	'###UM=%c@UD=1@RDATET=%s@RESETUSEREAL=1@%s@%s@CB=_Close_:0|@SC'
	DB	'D=%s@', 00H					; `string'
CONST	ENDS
;	COMDAT ??_C@_0EI@CHDPKFPB@?$CD?$CD?$CD?$CDUM?$DN?$CFc?$EAUD?$DN4?$EAUT?$DN?$CFld?$EARDATET?$DN?$CFs@
CONST	SEGMENT
??_C@_0EI@CHDPKFPB@?$CD?$CD?$CD?$CDUM?$DN?$CFc?$EAUD?$DN4?$EAUT?$DN?$CFld?$EARDATET?$DN?$CFs@ DB '#'
	DB	'###UM=%c@UD=4@UT=%ld@RDATET=%s@RESETUSEREAL=1@%s@CB=_Close_:0'
	DB	'|@SCD=%s@', 00H				; `string'
CONST	ENDS
;	COMDAT ??_C@_0EI@EOHDKAAA@?$CD?$CD?$CD?$CDUM?$DN?$CFc?$EAUD?$DN5?$EAUT?$DN?$CFld?$EARDATET?$DN?$CFs@
CONST	SEGMENT
??_C@_0EI@EOHDKAAA@?$CD?$CD?$CD?$CDUM?$DN?$CFc?$EAUD?$DN5?$EAUT?$DN?$CFld?$EARDATET?$DN?$CFs@ DB '#'
	DB	'###UM=%c@UD=5@UT=%ld@RDATET=%s@RESETUSEREAL=1@%s@CB=_Close_:0'
	DB	'|@SCD=%s@', 00H				; `string'
CONST	ENDS
;	COMDAT ??_C@_0EB@FAKBLPPL@RESETPACKET?$DN_Close_?310?3?$CFs?$HM_Open@
CONST	SEGMENT
??_C@_0EB@FAKBLPPL@RESETPACKET?$DN_Close_?310?3?$CFs?$HM_Open@ DB 'RESETP'
	DB	'ACKET=_Close_:10:%s|_Open_:10:%s|_High_:10:%s|_Low_:10:%s@', 00H ; `string'
CONST	ENDS
;	COMDAT ??_C@_06PFAJMMJF@x?5?$CF?4?$CKf@
CONST	SEGMENT
??_C@_06PFAJMMJF@x?5?$CF?4?$CKf@ DB 'x %.*f', 00H	; `string'
CONST	ENDS
;	COMDAT ??_C@_0GE@JIELKBPF@BOUNDMARK?$DN?$LA?$KB?$LA?$NN?B?w?F?$KO?3?$CFld?0?$CFld?3?$CF?46s@
CONST	SEGMENT
??_C@_0GE@JIELKBPF@BOUNDMARK?$DN?$LA?$KB?$LA?$NN?B?w?F?$KO?3?$CFld?0?$CFld?3?$CF?46s@ DB 'B'
	DB	'OUNDMARK=', 0b0H, 0a1H, 0b0H, 0ddH, 0c2H, 0f7H, 0c6H, 0aeH, ':'
	DB	'%ld,%ld:%.6s:1:%ld:%c@PREVPRICE=_Close_:%s@OHL=:%s:%s:%s@PREV'
	DB	'PRICE2=%s:%s:%s:%s@', 00H			; `string'
CONST	ENDS
;	COMDAT ??_C@_0CJ@CALGHGEA@REALTIMET?$DNYYYYMMDDHHMMSS?$EARESETU@
CONST	SEGMENT
??_C@_0CJ@CALGHGEA@REALTIMET?$DNYYYYMMDDHHMMSS?$EARESETU@ DB 'REALTIMET=Y'
	DB	'YYYMMDDHHMMSS@RESETUSEREAL=1@', 00H		; `string'
CONST	ENDS
;	COMDAT ??_C@_0PL@DOOLIBDL@?$CD?$CD?$CD?$CDUM?$DN?$CFc?$EABOUNDMARK?$DN?$LA?$KB?$LA?$NN?B?w?F?$KO?3?$CFs@
CONST	SEGMENT
??_C@_0PL@DOOLIBDL@?$CD?$CD?$CD?$CDUM?$DN?$CFc?$EABOUNDMARK?$DN?$LA?$KB?$LA?$NN?B?w?F?$KO?3?$CFs@ DB '#'
	DB	'###UM=%c@BOUNDMARK=', 0b0H, 0a1H, 0b0H, 0ddH, 0c2H, 0f7H, 0c6H
	DB	0aeH, ':%s,%s:%s:1:%.2f:%c@UD=3@RDATET=%s@CB=_Close_:2|_Volume'
	DB	'_:6|@PREVPRICE=_Close_:%s@TDC=%s:_Open_,|%s:_High_,|%s:_Low_,'
	DB	'|%s:_Close_,@RDC=%s:-1:_Open_,|%s:-1:_High_,|%s:-1:_Low_,|%s:'
	DB	'-1:_Close_,@SCD=%s@OHL=:%s:%s:%s@DATATIME=%s@', 00H ; `string'
CONST	ENDS
;	COMDAT ??_C@_06EBMMBHJD@YYYYMM@
CONST	SEGMENT
??_C@_06EBMMBHJD@YYYYMM@ DB 'YYYYMM', 00H		; `string'
CONST	ENDS
;	COMDAT ??_C@_0PL@CIOONNG@?$CD?$CD?$CD?$CDUM?$DN?$CFc?$EABOUNDMARK?$DN?$LA?$KB?$LA?$NN?B?w?F?$KO?3?$CFs@
CONST	SEGMENT
??_C@_0PL@CIOONNG@?$CD?$CD?$CD?$CDUM?$DN?$CFc?$EABOUNDMARK?$DN?$LA?$KB?$LA?$NN?B?w?F?$KO?3?$CFs@ DB '#'
	DB	'###UM=%c@BOUNDMARK=', 0b0H, 0a1H, 0b0H, 0ddH, 0c2H, 0f7H, 0c6H
	DB	0aeH, ':%s,%s:%s:1:%.2f:%c@UD=2@RDATET=%s@CB=_Close_:2|_Volume'
	DB	'_:6|@PREVPRICE=_Close_:%s@TDC=%s:_Open_,|%s:_High_,|%s:_Low_,'
	DB	'|%s:_Close_,@RDC=%s:-1:_Open_,|%s:-1:_High_,|%s:-1:_Low_,|%s:'
	DB	'-1:_Close_,@SCD=%s@OHL=:%s:%s:%s@DATATIME=%s@', 00H ; `string'
CONST	ENDS
;	COMDAT ??_C@_0PL@EGCBFIOB@?$CD?$CD?$CD?$CDUM?$DN?$CFc?$EABOUNDMARK?$DN?$LA?$KB?$LA?$NN?B?w?F?$KO?3?$CFs@
CONST	SEGMENT
??_C@_0PL@EGCBFIOB@?$CD?$CD?$CD?$CDUM?$DN?$CFc?$EABOUNDMARK?$DN?$LA?$KB?$LA?$NN?B?w?F?$KO?3?$CFs@ DB '#'
	DB	'###UM=%c@BOUNDMARK=', 0b0H, 0a1H, 0b0H, 0ddH, 0c2H, 0f7H, 0c6H
	DB	0aeH, ':%s,%s:%s:1:%.2f:%c@UD=1@RDATET=%s@CB=_Close_:2|_Volume'
	DB	'_:6|@PREVPRICE=_Close_:%s@TDC=%s:_Open_,|%s:_High_,|%s:_Low_,'
	DB	'|%s:_Close_,@RDC=%s:-1:_Open_,|%s:-1:_High_,|%s:-1:_Low_,|%s:'
	DB	'-1:_Close_,@SCD=%s@OHL=:%s:%s:%s@DATATIME=%s@', 00H ; `string'
CONST	ENDS
;	COMDAT ??_C@_0PO@FAPKIOBH@?$CD?$CD?$CD?$CDUM?$DN?$CFc?$EABOUNDMARK?$DN?$LA?$KB?$LA?$NN?B?w?F?$KO?3?$CFs@
CONST	SEGMENT
??_C@_0PO@FAPKIOBH@?$CD?$CD?$CD?$CDUM?$DN?$CFc?$EABOUNDMARK?$DN?$LA?$KB?$LA?$NN?B?w?F?$KO?3?$CFs@ DB '#'
	DB	'###UM=%c@BOUNDMARK=', 0b0H, 0a1H, 0b0H, 0ddH, 0c2H, 0f7H, 0c6H
	DB	0aeH, ':%s,%s:%s:1:%.2f:%c@UD=1@RDATET=%s@CB=_Close_:2|_Volume'
	DB	'_:6|@%s@PREVPRICE=_Close_:%s@TDC=%s:_Open_,|%s:_High_,|%s:_Lo'
	DB	'w_,|%s:_Close_,@RDC=%s:-1:_Open_,|%s:-1:_High_,|%s:-1:_Low_,|'
	DB	'%s:-1:_Close_,@SCD=%s@OHL=:%s:%s:%s@DATATIME=%s@', 00H ; `string'
CONST	ENDS
;	COMDAT ??_C@_08DKDJLCMP@YYYYMMDD@
CONST	SEGMENT
??_C@_08DKDJLCMP@YYYYMMDD@ DB 'YYYYMMDD', 00H		; `string'
CONST	ENDS
;	COMDAT ??_C@_0BBC@CIOGPLEJ@?$CD?$CD?$CD?$CDUM?$DN?$CFc?$EABOUNDMARK?$DN?$LA?$KB?$LA?$NN?B?w?F?$KO?3?$CFs@
CONST	SEGMENT
??_C@_0BBC@CIOGPLEJ@?$CD?$CD?$CD?$CDUM?$DN?$CFc?$EABOUNDMARK?$DN?$LA?$KB?$LA?$NN?B?w?F?$KO?3?$CFs@ DB '#'
	DB	'###UM=%c@BOUNDMARK=', 0b0H, 0a1H, 0b0H, 0ddH, 0c2H, 0f7H, 0c6H
	DB	0aeH, ':%s,%s:%s:1:%.2f:%c@UD=4@UT=%ld@RDATET=%s@CB=_Close_:2|'
	DB	'_Volume_:6|@PREVPRICE=_Close_:%s|_Volume_:%12.0f@TDC=%s:_Open'
	DB	'_,|%s:_High_,|%s:_Low_,|%s:_Close_,@RDC=%s:-1:_Open_,|%s:-1:_'
	DB	'High_,|%s:-1:_Low_,|%s:-1:_Close_,@SCD=%s@OHL=:%s:%s:%s@DATAT'
	DB	'IME=%s@', 00H				; `string'
CONST	ENDS
;	COMDAT ??_C@_08KLIIINKM@MMDDHHMM@
CONST	SEGMENT
??_C@_08KLIIINKM@MMDDHHMM@ DB 'MMDDHHMM', 00H		; `string'
CONST	ENDS
;	COMDAT ??_C@_0BBE@CMGOCDEB@?$CD?$CD?$CD?$CDUM?$DN?$CFc?$EABOUNDMARK?$DN?$LA?$KB?$LA?$NN?B?w?F?$KO?3?$CFs@
CONST	SEGMENT
??_C@_0BBE@CMGOCDEB@?$CD?$CD?$CD?$CDUM?$DN?$CFc?$EABOUNDMARK?$DN?$LA?$KB?$LA?$NN?B?w?F?$KO?3?$CFs@ DB '#'
	DB	'###UM=%c@BOUNDMARK=', 0b0H, 0a1H, 0b0H, 0ddH, 0c2H, 0f7H, 0c6H
	DB	0aeH, ':%s,%s:%s:1:%.2f:%c@UD=4@UT=%d0@RDATET=%s@CB=_Close_:2|'
	DB	'_Volume_:6|@PREVPRICE=_Close_:%s|_Volume_:%12.0f@TDC=%s:_Open'
	DB	'_,|%s:_High_,|%s:_Low_,|%s:_Close_,@RDC=%s:-1:_Open_,|%s:-1:_'
	DB	'High_,|%s:-1:_Low_,|%s:-1:_Close_,@SCD=%.2f@OHL=:%s:%s:%s@DAT'
	DB	'ATIME=%s@', 00H				; `string'
CONST	ENDS
;	COMDAT ??_C@_0BBC@NPPOPJCN@?$CD?$CD?$CD?$CDUM?$DN?$CFc?$EABOUNDMARK?$DN?$LA?$KB?$LA?$NN?B?w?F?$KO?3?$CFs@
CONST	SEGMENT
??_C@_0BBC@NPPOPJCN@?$CD?$CD?$CD?$CDUM?$DN?$CFc?$EABOUNDMARK?$DN?$LA?$KB?$LA?$NN?B?w?F?$KO?3?$CFs@ DB '#'
	DB	'###UM=%c@BOUNDMARK=', 0b0H, 0a1H, 0b0H, 0ddH, 0c2H, 0f7H, 0c6H
	DB	0aeH, ':%s,%s:%s:1:%.2f:%c@UD=5@UT=%ld@RDATET=%s@CB=_Close_:2|'
	DB	'_Volume_:6|@PREVPRICE=_Close_:%s|_Volume_:%12.0f@TDC=%s:_Open'
	DB	'_,|%s:_High_,|%s:_Low_,|%s:_Close_,@RDC=%s:-1:_Open_,|%s:-1:_'
	DB	'High_,|%s:-1:_Low_,|%s:-1:_Close_,@SCD=%s@OHL=:%s:%s:%s@DATAT'
	DB	'IME=%s@', 00H				; `string'
CONST	ENDS
;	COMDAT ??_C@_0P@IMPIBBAB@YYYYMMDDHHMMSS@
CONST	SEGMENT
??_C@_0P@IMPIBBAB@YYYYMMDDHHMMSS@ DB 'YYYYMMDDHHMMSS', 00H ; `string'
CONST	ENDS
;	COMDAT ??_C@_08JFMBEEDE@DDHHMMSS@
CONST	SEGMENT
??_C@_08JFMBEEDE@DDHHMMSS@ DB 'DDHHMMSS', 00H		; `string'
CONST	ENDS
;	COMDAT ??_C@_04HGGMHPIM@?$CF?4?$CKf@
CONST	SEGMENT
??_C@_04HGGMHPIM@?$CF?4?$CKf@ DB '%.*f', 00H		; `string'
CONST	ENDS
;	COMDAT ??_C@_0L@EIHINGKC@0396UM?$DN?$CFc?$EA@
CONST	SEGMENT
??_C@_0L@EIHINGKC@0396UM?$DN?$CFc?$EA@ DB '0396UM=%c@', 00H ; `string'
CONST	ENDS
;	COMDAT ??_C@_0MA@JCOHCJA@?$CD?$CD?$CD?$CDUM?$DN?$CFc?$EAUD?$DN3?$EARDATET?$DNYYYYMM?$EACB@
CONST	SEGMENT
??_C@_0MA@JCOHCJA@?$CD?$CD?$CD?$CDUM?$DN?$CFc?$EAUD?$DN3?$EARDATET?$DNYYYYMM?$EACB@ DB '#'
	DB	'###UM=%c@UD=3@RDATET=YYYYMM@CB=_Close_:1|@PREVPRICE=_Close_:%'
	DB	'.2f|@TDC=%s:_Open_,|%s:_High_,|%s:_Low_,|%s:_Close_,@RDC=%s:3'
	DB	':_Open_,|%s:3:_High_,|%s:3:_Low_,|%s:3:_Close_,@OHL=:%.2f:%.2'
	DB	'f:%.2f@', 00H				; `string'
CONST	ENDS
;	COMDAT ??_C@_0MC@BDFEIOLD@?$CD?$CD?$CD?$CDUM?$DN?$CFc?$EAUD?$DN2?$EARDATET?$DNYYYYMMDD?$EA@
CONST	SEGMENT
??_C@_0MC@BDFEIOLD@?$CD?$CD?$CD?$CDUM?$DN?$CFc?$EAUD?$DN2?$EARDATET?$DNYYYYMMDD?$EA@ DB '#'
	DB	'###UM=%c@UD=2@RDATET=YYYYMMDD@CB=_Close_:1|@PREVPRICE=_Close_'
	DB	':%.2f|@TDC=%s:_Open_,|%s:_High_,|%s:_Low_,|%s:_Close_,@RDC=%s'
	DB	':3:_Open_,|%s:3:_High_,|%s:3:_Low_,|%s:3:_Close_,@OHL=:%.2f:%'
	DB	'.2f:%.2f@', 00H				; `string'
CONST	ENDS
;	COMDAT ??_C@_0MD@IMKMEPAH@?$CD?$CD?$CD?$CDUM?$DN?$CFc?$EAUD?$DN1?$EARDATET?$DNYYYYMMDD?$EA@
CONST	SEGMENT
??_C@_0MD@IMKMEPAH@?$CD?$CD?$CD?$CDUM?$DN?$CFc?$EAUD?$DN1?$EARDATET?$DNYYYYMMDD?$EA@ DB '#'
	DB	'###UM=%c@UD=1@RDATET=YYYYMMDD@@CB=_Close_:1|@PREVPRICE=_Close'
	DB	'_:%.2f|@TDC=%s:_Open_,|%s:_High_,|%s:_Low_,|%s:_Close_,@RDC=%'
	DB	's:3:_Open_,|%s:3:_High_,|%s:3:_Low_,|%s:3:_Close_,@OHL=:%.2f:'
	DB	'%.2f:%.2f@', 00H				; `string'
CONST	ENDS
;	COMDAT ??_C@_0KN@PDECNFCF@?$CD?$CD?$CD?$CDUM?$DN?$CFc?$EAUD?$DN1?$EARDATET?$DNYYYYMMDD?$EA@
CONST	SEGMENT
??_C@_0KN@PDECNFCF@?$CD?$CD?$CD?$CDUM?$DN?$CFc?$EAUD?$DN1?$EARDATET?$DNYYYYMMDD?$EA@ DB '#'
	DB	'###UM=%c@UD=1@RDATET=YYYYMMDD@%s@CB=_Close_:1|@TDC=%s:_Open_,'
	DB	'|%s:_High_,|%s:_Low_,|%s:_Close_,@RDC=%s:3:_Open_,|%s:3:_High'
	DB	'_,|%s:3:_Low_,|%s:3:_Close_,@OHL=:%.2f:%.2f:%.2f@', 00H ; `string'
CONST	ENDS
;	COMDAT ??_C@_0NH@KCALLDHK@?$CD?$CD?$CD?$CDUM?$DN?$CFc?$EAUD?$DN4?$EAUT?$DN?$CFld?$EARDATET?$DNMM@
CONST	SEGMENT
??_C@_0NH@KCALLDHK@?$CD?$CD?$CD?$CDUM?$DN?$CFc?$EAUD?$DN4?$EAUT?$DN?$CFld?$EARDATET?$DNMM@ DB '#'
	DB	'###UM=%c@UD=4@UT=%ld@RDATET=MMDDHHMM@CB=_Close_:1|@PREVPRICE='
	DB	'_Close_:%.2f|_Volume_:%12ld@TDC=%s:_Open_,|%s:_High_,|%s:_Low'
	DB	'_,|%s:_Close_,@RDC=%s:3:_Open_,|%s:3:_High_,|%s:3:_Low_,|%s:3'
	DB	':_Close_,@OHL=:%.2f:%.2f:%.2f@', 00H	; `string'
CONST	ENDS
;	COMDAT ??_C@_0NI@FDFJIIBH@?$CD?$CD?$CD?$CDUM?$DN?$CFc?$EAUD?$DN5?$EAUT?$DN?$CFld?$EARDATET?$DNDD@
CONST	SEGMENT
??_C@_0NI@FDFJIIBH@?$CD?$CD?$CD?$CDUM?$DN?$CFc?$EAUD?$DN5?$EAUT?$DN?$CFld?$EARDATET?$DNDD@ DB '#'
	DB	'###UM=%c@UD=5@UT=%ld@RDATET=DDHHMMSS@@CB=_Close_:1|@PREVPRICE'
	DB	'=_Close_:%.2f|_Volume_:%12ld@TDC=%s:_Open_,|%s:_High_,|%s:_Lo'
	DB	'w_,|%s:_Close_,@RDC=%s:3:_Open_,|%s:3:_High_,|%s:3:_Low_,|%s:'
	DB	'3:_Close_,@OHL=:%.2f:%.2f:%.2f@', 00H	; `string'
CONST	ENDS
;	COMDAT ??_C@_0BBJ@NOFDPNGI@?$CD?$CD?$CD?$CDUM?$DN?$CFc?$EABOUNDMARK?$DN?$LA?$KB?$LA?$NN?B?w?F?$KO?3?$CF?4@
CONST	SEGMENT
??_C@_0BBJ@NOFDPNGI@?$CD?$CD?$CD?$CDUM?$DN?$CFc?$EABOUNDMARK?$DN?$LA?$KB?$LA?$NN?B?w?F?$KO?3?$CF?4@ DB '#'
	DB	'###UM=%c@BOUNDMARK=', 0b0H, 0a1H, 0b0H, 0ddH, 0c2H, 0f7H, 0c6H
	DB	0aeH, ':%.2f,%.2f:%s:1:%s:%c@UD=4@UT=%ld@RDATET=DDHHMMSS@CB=_C'
	DB	'lose_:2|@PREVPRICE=_Close_:%s|_Volume_:%12.0f,_VolumeAmount_:'
	DB	'%s@TDC=%s:_Open_,|%s:_High_,|%s:_Low_,|%s:_Close_,@RDC=%s:3:_'
	DB	'Open_,|%s:3:_High_,|%s:3:_Low_,|%s:3:_Close_,@SCD=%.2f@OHL=:%'
	DB	'.2f:%.2f:%.2f@', 00H			; `string'
CONST	ENDS
;	COMDAT ??_C@_0BAA@CCOHAGBM@?$CD?$CD?$CD?$CDUM?$DN?$CFc?$EABOUNDMARK?$DN?$LA?$KB?$LA?$NN?B?w?F?$KO?3?$CF?4@
CONST	SEGMENT
??_C@_0BAA@CCOHAGBM@?$CD?$CD?$CD?$CDUM?$DN?$CFc?$EABOUNDMARK?$DN?$LA?$KB?$LA?$NN?B?w?F?$KO?3?$CF?4@ DB '#'
	DB	'###UM=%c@BOUNDMARK=', 0b0H, 0a1H, 0b0H, 0ddH, 0c2H, 0f7H, 0c6H
	DB	0aeH, ':%.2f,%.2f:%s:1:%s:%c@UD=3@RDATET=YYYYMM@CB=_Close_:2|@'
	DB	'PREVPRICE=_Close_:%s,_VolumeAmount_:%s@TDC=%s:_Open_,|%s:_Hig'
	DB	'h_,|%s:_Low_,|%s:_Close_,@RDC=%s:3:_Open_,|%s:3:_High_,|%s:3:'
	DB	'_Low_,|%s:3:_Close_,@SCD=%.2f@OHL=:%.2f:%.2f:%.2f@', 00H ; `string'
CONST	ENDS
;	COMDAT ??_C@_0BAC@MLJKMKML@?$CD?$CD?$CD?$CDUM?$DN?$CFc?$EABOUNDMARK?$DN?$LA?$KB?$LA?$NN?B?w?F?$KO?3?$CF?4@
CONST	SEGMENT
??_C@_0BAC@MLJKMKML@?$CD?$CD?$CD?$CDUM?$DN?$CFc?$EABOUNDMARK?$DN?$LA?$KB?$LA?$NN?B?w?F?$KO?3?$CF?4@ DB '#'
	DB	'###UM=%c@BOUNDMARK=', 0b0H, 0a1H, 0b0H, 0ddH, 0c2H, 0f7H, 0c6H
	DB	0aeH, ':%.2f,%.2f:%s:1:%s:%c@UD=2@RDATET=YYYYMMDD@CB=_Close_:2'
	DB	'|@PREVPRICE=_Close_:%s,_VolumeAmount_:%s@TDC=%s:_Open_,|%s:_H'
	DB	'igh_,|%s:_Low_,|%s:_Close_,@RDC=%s:3:_Open_,|%s:3:_High_,|%s:'
	DB	'3:_Low_,|%s:3:_Close_,@SCD=%.2f@OHL=:%.2f:%.2f:%.2f@', 00H ; `string'
CONST	ENDS
;	COMDAT ??_C@_0BAD@OKPIANHP@?$CD?$CD?$CD?$CDUM?$DN?$CFc?$EABOUNDMARK?$DN?$LA?$KB?$LA?$NN?B?w?F?$KO?3?$CF?4@
CONST	SEGMENT
??_C@_0BAD@OKPIANHP@?$CD?$CD?$CD?$CDUM?$DN?$CFc?$EABOUNDMARK?$DN?$LA?$KB?$LA?$NN?B?w?F?$KO?3?$CF?4@ DB '#'
	DB	'###UM=%c@BOUNDMARK=', 0b0H, 0a1H, 0b0H, 0ddH, 0c2H, 0f7H, 0c6H
	DB	0aeH, ':%.2f,%.2f:%s:1:%s:%c@UD=1@RDATET=YYYYMMDD@CB=_Close_:2'
	DB	'|@@PREVPRICE=_Close_:%s,_VolumeAmount_:%s@TDC=%s:_Open_,|%s:_'
	DB	'High_,|%s:_Low_,|%s:_Close_,@RDC=%s:3:_Open_,|%s:3:_High_,|%s'
	DB	':3:_Low_,|%s:3:_Close_,@SCD=%.2f@OHL=:%.2f:%.2f:%.2f@', 00H ; `string'
CONST	ENDS
;	COMDAT ??_C@_0BAF@DOMNDJJA@?$CD?$CD?$CD?$CDUM?$DN?$CFc?$EABOUNDMARK?$DN?$LA?$KB?$LA?$NN?B?w?F?$KO?3?$CF?4@
CONST	SEGMENT
??_C@_0BAF@DOMNDJJA@?$CD?$CD?$CD?$CDUM?$DN?$CFc?$EABOUNDMARK?$DN?$LA?$KB?$LA?$NN?B?w?F?$KO?3?$CF?4@ DB '#'
	DB	'###UM=%c@BOUNDMARK=', 0b0H, 0a1H, 0b0H, 0ddH, 0c2H, 0f7H, 0c6H
	DB	0aeH, ':%.2f,%.2f:%s:1:%s:%c@UD=1@RDATET=YYYYMMDD@CB=_Close_:2'
	DB	'|@%s@PREVPRICE=_Close_:%s,_VolumeAmount_:%s@TDC=%s:_Open_,|%s'
	DB	':_High_,|%s:_Low_,|%s:_Close_,@RDC=%s:3:_Open_,|%s:3:_High_,|'
	DB	'%s:3:_Low_,|%s:3:_Close_,@SCD=%.2f@OHL=:%.2f:%.2f:%.2f@', 00H ; `string'
CONST	ENDS
;	COMDAT ??_C@_0BB@BHEDDFJJ@RELPSA?$DN?$CF?46s?3?$CF?48s@
CONST	SEGMENT
??_C@_0BB@BHEDDFJJ@RELPSA?$DN?$CF?46s?3?$CF?48s@ DB 'RELPSA=%.6s:%.8s', 00H ; `string'
CONST	ENDS
;	COMDAT ??_C@_0BBJ@CJIMFCEH@?$CD?$CD?$CD?$CDUM?$DN?$CFc?$EABOUNDMARK?$DN?$LA?$KB?$LA?$NN?B?w?F?$KO?3?$CF?4@
CONST	SEGMENT
??_C@_0BBJ@CJIMFCEH@?$CD?$CD?$CD?$CDUM?$DN?$CFc?$EABOUNDMARK?$DN?$LA?$KB?$LA?$NN?B?w?F?$KO?3?$CF?4@ DB '#'
	DB	'###UM=%c@BOUNDMARK=', 0b0H, 0a1H, 0b0H, 0ddH, 0c2H, 0f7H, 0c6H
	DB	0aeH, ':%.2f,%.2f:%s:1:%s:%c@UD=4@UT=%ld@RDATET=MMDDHHMM@CB=_C'
	DB	'lose_:2|@PREVPRICE=_Close_:%s|_Volume_:%12.0f,_VolumeAmount_:'
	DB	'%s@TDC=%s:_Open_,|%s:_High_,|%s:_Low_,|%s:_Close_,@RDC=%s:3:_'
	DB	'Open_,|%s:3:_High_,|%s:3:_Low_,|%s:3:_Close_,@SCD=%.2f@OHL=:%'
	DB	'.2f:%.2f:%.2f@', 00H			; `string'
CONST	ENDS
;	COMDAT ??_C@_0BBJ@NPHDBNNN@?$CD?$CD?$CD?$CDUM?$DN?$CFc?$EABOUNDMARK?$DN?$LA?$KB?$LA?$NN?B?w?F?$KO?3?$CF?4@
CONST	SEGMENT
??_C@_0BBJ@NPHDBNNN@?$CD?$CD?$CD?$CDUM?$DN?$CFc?$EABOUNDMARK?$DN?$LA?$KB?$LA?$NN?B?w?F?$KO?3?$CF?4@ DB '#'
	DB	'###UM=%c@BOUNDMARK=', 0b0H, 0a1H, 0b0H, 0ddH, 0c2H, 0f7H, 0c6H
	DB	0aeH, ':%.2f,%.2f:%s:1:%s:%c@UD=4@UT=%d0@RDATET=DDHHMMSS@CB=_C'
	DB	'lose_:2|@PREVPRICE=_Close_:%s|_Volume_:%12.0f,_VolumeAmount_:'
	DB	'%s@TDC=%s:_Open_,|%s:_High_,|%s:_Low_,|%s:_Close_,@RDC=%s:3:_'
	DB	'Open_,|%s:3:_High_,|%s:3:_Low_,|%s:3:_Close_,@SCD=%.2f@OHL=:%'
	DB	'.2f:%.2f:%.2f@', 00H			; `string'
CONST	ENDS
;	COMDAT ??_C@_0BBJ@FBCAGBNM@?$CD?$CD?$CD?$CDUM?$DN?$CFc?$EABOUNDMARK?$DN?$LA?$KB?$LA?$NN?B?w?F?$KO?3?$CF?4@
CONST	SEGMENT
??_C@_0BBJ@FBCAGBNM@?$CD?$CD?$CD?$CDUM?$DN?$CFc?$EABOUNDMARK?$DN?$LA?$KB?$LA?$NN?B?w?F?$KO?3?$CF?4@ DB '#'
	DB	'###UM=%c@BOUNDMARK=', 0b0H, 0a1H, 0b0H, 0ddH, 0c2H, 0f7H, 0c6H
	DB	0aeH, ':%.2f,%.2f:%s:1:%s:%c@UD=5@UT=%ld@RDATET=DDHHMMSS@CB=_C'
	DB	'lose_:2|@PREVPRICE=_Close_:%s|_Volume_:%12.0f,_VolumeAmount_:'
	DB	'%s@TDC=%s:_Open_,|%s:_High_,|%s:_Low_,|%s:_Close_,@RDC=%s:3:_'
	DB	'Open_,|%s:3:_High_,|%s:3:_Low_,|%s:3:_Close_,@SCD=%.2f@OHL=:%'
	DB	'.2f:%.2f:%.2f@', 00H			; `string'
CONST	ENDS
;	COMDAT ??_C@_0HE@BLDCANEH@?$CD?$CD?$CD?$CDUM?$DN?$CFc?$EAUD?$DN4?$EAUT?$DN?$CFld?$EARDATET?$DNDD@
CONST	SEGMENT
??_C@_0HE@BLDCANEH@?$CD?$CD?$CD?$CDUM?$DN?$CFc?$EAUD?$DN4?$EAUT?$DN?$CFld?$EARDATET?$DNDD@ DB '#'
	DB	'###UM=%c@UD=4@UT=%ld@RDATET=DDHHMMSS@RESETUSEREAL=1@%s@CB=_Cl'
	DB	'ose_:0|@PREVPRICE=_Close_:%ld|_Volume_:%10ld@SCD=%ld@', 00H ; `string'
CONST	ENDS
;	COMDAT ??_C@_0EG@ODCIKKEM@?$CD?$CD?$CD?$CDUM?$DN?$CFc?$EAUD?$DN3?$EARDATET?$DNYYYYMM?$EARE@
CONST	SEGMENT
??_C@_0EG@ODCIKKEM@?$CD?$CD?$CD?$CDUM?$DN?$CFc?$EAUD?$DN3?$EARDATET?$DNYYYYMM?$EARE@ DB '#'
	DB	'###UM=%c@UD=3@RDATET=YYYYMM@RESETUSEREAL=1@%s@CB=_Close_:0|@S'
	DB	'CD=%ld@', 00H				; `string'
CONST	ENDS
;	COMDAT ??_C@_0EI@JKELMFIH@?$CD?$CD?$CD?$CDUM?$DN?$CFc?$EAUD?$DN2?$EARDATET?$DNYYYYMMDD?$EA@
CONST	SEGMENT
??_C@_0EI@JKELMFIH@?$CD?$CD?$CD?$CDUM?$DN?$CFc?$EAUD?$DN2?$EARDATET?$DNYYYYMMDD?$EA@ DB '#'
	DB	'###UM=%c@UD=2@RDATET=YYYYMMDD@RESETUSEREAL=1@%s@CB=_Close_:0|'
	DB	'@SCD=%ld@', 00H				; `string'
CONST	ENDS
;	COMDAT ??_C@_0EJ@CCPOKDHH@?$CD?$CD?$CD?$CDUM?$DN?$CFc?$EAUD?$DN1?$EARDATET?$DNYYYYMMDD?$EA@
CONST	SEGMENT
??_C@_0EJ@CCPOKDHH@?$CD?$CD?$CD?$CDUM?$DN?$CFc?$EAUD?$DN1?$EARDATET?$DNYYYYMMDD?$EA@ DB '#'
	DB	'###UM=%c@UD=1@RDATET=YYYYMMDD@RESETUSEREAL=1@%s@@CB=_Close_:0'
	DB	'|@SCD=%ld@', 00H				; `string'
CONST	ENDS
;	COMDAT ??_C@_0BC@HJLNCHNA@RELPSA?$DN?$CF?46s?3?$CF?48s?$EA@
CONST	SEGMENT
??_C@_0BC@HJLNCHNA@RELPSA?$DN?$CF?46s?3?$CF?48s?$EA@ DB 'RELPSA=%.6s:%.8s'
	DB	'@', 00H					; `string'
CONST	ENDS
;	COMDAT ??_C@_0HD@IFDJFODJ@?$CD?$CD?$CD?$CDUM?$DN?$CFc?$EAUD?$DN4?$EAUT?$DN?$CFld?$EARDATET?$DNMM@
CONST	SEGMENT
??_C@_0HD@IFDJFODJ@?$CD?$CD?$CD?$CDUM?$DN?$CFc?$EAUD?$DN4?$EAUT?$DN?$CFld?$EARDATET?$DNMM@ DB '#'
	DB	'###UM=%c@UD=4@UT=%ld@RDATET=MMDDHHMM@RESETUSEREAL=1@%s@CB=_Cl'
	DB	'ose_:0|@PREVPRICE=_Close_:%s|_Volume_:%10ld@SCD=%ld@', 00H ; `string'
CONST	ENDS
;	COMDAT ??_C@_0HD@KEEBLBP@?$CD?$CD?$CD?$CDUM?$DN?$CFc?$EAUD?$DN5?$EAUT?$DN?$CFld?$EARDATET?$DNDD@
CONST	SEGMENT
??_C@_0HD@KEEBLBP@?$CD?$CD?$CD?$CDUM?$DN?$CFc?$EAUD?$DN5?$EAUT?$DN?$CFld?$EARDATET?$DNDD@ DB '#'
	DB	'###UM=%c@UD=5@UT=%ld@RDATET=DDHHMMSS@RESETUSEREAL=1@%s@CB=_Cl'
	DB	'ose_:0|@PREVPRICE=_Close_:%s|_Volume_:%10ld@SCD=%ld@', 00H ; `string'
CONST	ENDS
;	COMDAT ??_C@_0ML@LKEBHBOM@BOUNDMARK?$DN?$LE?k?$LK?q?B?w?F?$KO?3?$CF?42f?0?$CF?42f?3?$CF?4@
CONST	SEGMENT
??_C@_0ML@LKEBHBOM@BOUNDMARK?$DN?$LE?k?$LK?q?B?w?F?$KO?3?$CF?42f?0?$CF?42f?3?$CF?4@ DB 'B'
	DB	'OUNDMARK=', 0b4H, 0ebH, 0baH, 0f1H, 0c2H, 0f7H, 0c6H, 0aeH, ':'
	DB	'%.2f,%.2f:%.8s:%.2f:%c@PREVPRICE=_Close_:%s,_VolumeAmount_:%s'
	DB	'@TDC=%s:_Open_,|%s:_High_,|%s:_Low_,|%s:_Close_,@RDC=%s:3:_Op'
	DB	'en_,|%s:3:_High_,|%s:3:_Low_,|%s:3:_Close_,@OHL=:%ld:%ld:%ld@'
	DB	00H						; `string'
CONST	ENDS
;	COMDAT ??_C@_0FP@NCGPFHCO@BOUNDMARK?$DN?$LA?$KB?$LA?$NN?B?w?F?$KO?3?$CFld?0?$CFld?3?$CF?48s@
CONST	SEGMENT
??_C@_0FP@NCGPFHCO@BOUNDMARK?$DN?$LA?$KB?$LA?$NN?B?w?F?$KO?3?$CFld?0?$CFld?3?$CF?48s@ DB 'B'
	DB	'OUNDMARK=', 0b0H, 0a1H, 0b0H, 0ddH, 0c2H, 0f7H, 0c6H, 0aeH, ':'
	DB	'%ld,%ld:%.8s:%s:%c@PREVPRICE=_Close_:%s,_VolumeAmount_:%s@OHL'
	DB	'=:%ld:%ld:%ld@', 00H			; `string'
CONST	ENDS
;	COMDAT ??_C@_0MI@PFGFFMKF@?$CD?$CD?$CD?$CDUM?$DN?$CFc?$EAUD?$DN3?$EARDATET?$DNYYYYMM?$EACB@
CONST	SEGMENT
??_C@_0MI@PFGFFMKF@?$CD?$CD?$CD?$CDUM?$DN?$CFc?$EAUD?$DN3?$EARDATET?$DNYYYYMM?$EACB@ DB '#'
	DB	'###UM=%c@UD=3@RDATET=YYYYMM@CB=_Close_:1|@PREVPRICE=_Close_:%'
	DB	'.2f|@TDC=%s:_Open_,|%s:_High_,|%s:_Low_,|%s:_Close_,@RDC=%s:3'
	DB	':_Open_,|%s:3:_High_,|%s:3:_Low_,|%s:3:_Close_,@SCD=%ld@OHL=:'
	DB	'%.2f:%.2f:%.2f@', 00H			; `string'
CONST	ENDS
;	COMDAT ??_C@_0MK@KBKLMIDJ@?$CD?$CD?$CD?$CDUM?$DN?$CFc?$EAUD?$DN2?$EARDATET?$DNYYYYMMDD?$EA@
CONST	SEGMENT
??_C@_0MK@KBKLMIDJ@?$CD?$CD?$CD?$CDUM?$DN?$CFc?$EAUD?$DN2?$EARDATET?$DNYYYYMMDD?$EA@ DB '#'
	DB	'###UM=%c@UD=2@RDATET=YYYYMMDD@CB=_Close_:1|@PREVPRICE=_Close_'
	DB	':%.2f|@TDC=%s:_Open_,|%s:_High_,|%s:_Low_,|%s:_Close_,@RDC=%s'
	DB	':3:_Open_,|%s:3:_High_,|%s:3:_Low_,|%s:3:_Close_,@SCD=%ld@OHL'
	DB	'=:%.2f:%.2f:%.2f@', 00H			; `string'
CONST	ENDS
;	COMDAT ??_C@_0LD@GJEOEOBG@?$CD?$CD?$CD?$CDUM?$DN?$CFc?$EAUD?$DN1?$EARDATET?$DNYYYYMMDD?$EA@
CONST	SEGMENT
??_C@_0LD@GJEOEOBG@?$CD?$CD?$CD?$CDUM?$DN?$CFc?$EAUD?$DN1?$EARDATET?$DNYYYYMMDD?$EA@ DB '#'
	DB	'###UM=%c@UD=1@RDATET=YYYYMMDD@@CB=_Close_:1|@TDC=%s:_Open_,|%'
	DB	's:_High_,|%s:_Low_,|%s:_Close_,@RDC=%s:3:_Open_,|%s:3:_High_,'
	DB	'|%s:3:_Low_,|%s:3:_Close_,@SCD=%ld@OHL=:%.2f:%.2f:%.2f@', 00H ; `string'
CONST	ENDS
;	COMDAT ??_C@_0LF@JEMNOOFL@?$CD?$CD?$CD?$CDUM?$DN?$CFc?$EAUD?$DN1?$EARDATET?$DNYYYYMMDD?$EA@
CONST	SEGMENT
??_C@_0LF@JEMNOOFL@?$CD?$CD?$CD?$CDUM?$DN?$CFc?$EAUD?$DN1?$EARDATET?$DNYYYYMMDD?$EA@ DB '#'
	DB	'###UM=%c@UD=1@RDATET=YYYYMMDD@%s@CB=_Close_:1|@TDC=%s:_Open_,'
	DB	'|%s:_High_,|%s:_Low_,|%s:_Close_,@RDC=%s:3:_Open_,|%s:3:_High'
	DB	'_,|%s:3:_Low_,|%s:3:_Close_,@SCD=%ld@OHL=:%.2f:%.2f:%.2f@', 00H ; `string'
CONST	ENDS
;	COMDAT ??_C@_0BB@BOFJMMPN@RELPSA?$DN?$CF?46s?3?$CF?44s@
CONST	SEGMENT
??_C@_0BB@BOFJMMPN@RELPSA?$DN?$CF?46s?3?$CF?44s@ DB 'RELPSA=%.6s:%.4s', 00H ; `string'
CONST	ENDS
;	COMDAT ??_C@_0OA@GKJPGFLL@?$CD?$CD?$CD?$CDUM?$DN?$CFc?$EAUD?$DN4?$EAUT?$DN?$CFld?$EARDATET?$DNMM@
CONST	SEGMENT
??_C@_0OA@GKJPGFLL@?$CD?$CD?$CD?$CDUM?$DN?$CFc?$EAUD?$DN4?$EAUT?$DN?$CFld?$EARDATET?$DNMM@ DB '#'
	DB	'###UM=%c@UD=4@UT=%ld@RDATET=MMDDHHMM@CB=_Close_:1|@PREVPRICE='
	DB	'_Close_:%.2f|_Volume_:%12.0f@TDC=%s:_Open_,|%s:_High_,|%s:_Lo'
	DB	'w_,|%s:_Close_,@RDC=%s:3:_Open_,|%s:3:_High_,|%s:3:_Low_,|%s:'
	DB	'3:_Close_,@SCD=%ld@OHL=:%.2f:%.2f:%.2f@', 00H ; `string'
CONST	ENDS
;	COMDAT ??_C@_0OB@HFJAHOEB@?$CD?$CD?$CD?$CDUM?$DN?$CFc?$EAUD?$DN5?$EAUT?$DN?$CFld?$EARDATET?$DNDD@
CONST	SEGMENT
??_C@_0OB@HFJAHOEB@?$CD?$CD?$CD?$CDUM?$DN?$CFc?$EAUD?$DN5?$EAUT?$DN?$CFld?$EARDATET?$DNDD@ DB '#'
	DB	'###UM=%c@UD=5@UT=%ld@RDATET=DDHHMMSS@@CB=_Close_:1|@PREVPRICE'
	DB	'=_Close_:%.2f|_Volume_:%12.0f@TDC=%s:_Open_,|%s:_High_,|%s:_L'
	DB	'ow_,|%s:_Close_,@RDC=%s:3:_Open_,|%s:3:_High_,|%s:3:_Low_,|%s'
	DB	':3:_Close_,@SCD=%ld@OHL=:%.2f:%.2f:%.2f@', 00H ; `string'
CONST	ENDS
;	COMDAT ??_C@_0N@JENAIHAK@DATATIME?$DN?$CFs?$EA@
CONST	SEGMENT
??_C@_0N@JENAIHAK@DATATIME?$DN?$CFs?$EA@ DB 'DATATIME=%s@', 00H ; `string'
CONST	ENDS
;	COMDAT ??_C@_0N@BEOFONCO@BASETIME?$DN?$CFs?$EA@
CONST	SEGMENT
??_C@_0N@BEOFONCO@BASETIME?$DN?$CFs?$EA@ DB 'BASETIME=%s@', 00H ; `string'
CONST	ENDS
;	COMDAT ??_C@_0P@PGBOBNFI@MARKETTIME?$DN?$CFs?$EA@
CONST	SEGMENT
??_C@_0P@PGBOBNFI@MARKETTIME?$DN?$CFs?$EA@ DB 'MARKETTIME=%s@', 00H ; `string'
CONST	ENDS
;	COMDAT ??_C@_0EP@OJLJINAG@?$CD?$CD?$CD?$CDUM?$DN?$CFc?$EAUD?$DN4?$EAUT?$DN?$CFld?$EARDATET?$DNDD@
CONST	SEGMENT
??_C@_0EP@OJLJINAG@?$CD?$CD?$CD?$CDUM?$DN?$CFc?$EAUD?$DN4?$EAUT?$DN?$CFld?$EARDATET?$DNDD@ DB '#'
	DB	'###UM=%c@UD=4@UT=%ld@RDATET=DDHHMMSS@RESETUSEREAL=1@%s@CB=_Cl'
	DB	'ose_:0|@SCD=%ld@', 00H			; `string'
CONST	ENDS
;	COMDAT ??_C@_0EP@MIPGKENG@?$CD?$CD?$CD?$CDUM?$DN?$CFc?$EAUD?$DN3?$EARDATET?$DNYYYYMM?$EARE@
CONST	SEGMENT
??_C@_0EP@MIPGKENG@?$CD?$CD?$CD?$CDUM?$DN?$CFc?$EAUD?$DN3?$EARDATET?$DNYYYYMM?$EARE@ DB '#'
	DB	'###UM=%c@UD=3@RDATET=YYYYMM@RESETUSEREAL=1@%s@@CB=_Close_:0|@'
	DB	'SCD=%ld@DATE=%s@', 00H			; `string'
CONST	ENDS
;	COMDAT ??_C@_0EH@KKDEEOPA@?$CD?$CD?$CD?$CDUM?$DN?$CFc?$EAUD?$DN3?$EARDATET?$DNYYYYMM?$EARE@
CONST	SEGMENT
??_C@_0EH@KKDEEOPA@?$CD?$CD?$CD?$CDUM?$DN?$CFc?$EAUD?$DN3?$EARDATET?$DNYYYYMM?$EARE@ DB '#'
	DB	'###UM=%c@UD=3@RDATET=YYYYMM@RESETUSEREAL=1@%s@@CB=_Close_:0|@'
	DB	'SCD=%ld@', 00H				; `string'
CONST	ENDS
;	COMDAT ??_C@_0EJ@KGPLDGKH@?$CD?$CD?$CD?$CDUM?$DN?$CFc?$EAUD?$DN2?$EARDATET?$DNYYYYMMDD?$EA@
CONST	SEGMENT
??_C@_0EJ@KGPLDGKH@?$CD?$CD?$CD?$CDUM?$DN?$CFc?$EAUD?$DN2?$EARDATET?$DNYYYYMMDD?$EA@ DB '#'
	DB	'###UM=%c@UD=2@RDATET=YYYYMMDD@RESETUSEREAL=1@%s@@CB=_Close_:0'
	DB	'|@SCD=%ld@', 00H				; `string'
CONST	ENDS
;	COMDAT ??_C@_0EI@CBJPMLJE@?$CD?$CD?$CD?$CDUM?$DN?$CFc?$EAUD?$DN1?$EARDATET?$DNYYYYMMDD?$EA@
CONST	SEGMENT
??_C@_0EI@CBJPMLJE@?$CD?$CD?$CD?$CDUM?$DN?$CFc?$EAUD?$DN1?$EARDATET?$DNYYYYMMDD?$EA@ DB '#'
	DB	'###UM=%c@UD=1@RDATET=YYYYMMDD@RESETUSEREAL=1@%s@CB=_Close_:0|'
	DB	'@SCD=%ld@', 00H				; `string'
CONST	ENDS
;	COMDAT ??_C@_0EL@HGJGADMD@?$CD?$CD?$CD?$CDUM?$DN?$CFc?$EAUD?$DN1?$EARDATET?$DNYYYYMMDD?$EA@
CONST	SEGMENT
??_C@_0EL@HGJGADMD@?$CD?$CD?$CD?$CDUM?$DN?$CFc?$EAUD?$DN1?$EARDATET?$DNYYYYMMDD?$EA@ DB '#'
	DB	'###UM=%c@UD=1@RDATET=YYYYMMDD@RESETUSEREAL=1@%s@%s@CB=_Close_'
	DB	':0|@SCD=%ld@', 00H				; `string'
CONST	ENDS
;	COMDAT ??_C@_0BB@BNNNBIJD@RELPSA?$DN?$CF?46s?3?$CF?46s@
CONST	SEGMENT
??_C@_0BB@BNNNBIJD@RELPSA?$DN?$CF?46s?3?$CF?46s@ DB 'RELPSA=%.6s:%.6s', 00H ; `string'
CONST	ENDS
;	COMDAT ??_C@_0EP@OOAAPMPD@?$CD?$CD?$CD?$CDUM?$DN?$CFc?$EAUD?$DN4?$EAUT?$DN?$CFld?$EARDATET?$DNMM@
CONST	SEGMENT
??_C@_0EP@OOAAPMPD@?$CD?$CD?$CD?$CDUM?$DN?$CFc?$EAUD?$DN4?$EAUT?$DN?$CFld?$EARDATET?$DNMM@ DB '#'
	DB	'###UM=%c@UD=4@UT=%ld@RDATET=MMDDHHMM@RESETUSEREAL=1@%s@CB=_Cl'
	DB	'ose_:0|@SCD=%ld@', 00H			; `string'
CONST	ENDS
;	COMDAT ??_C@_0EP@KAFACABJ@?$CD?$CD?$CD?$CDUM?$DN?$CFc?$EAUD?$DN5?$EAUT?$DN?$CFld?$EARDATET?$DNDD@
CONST	SEGMENT
??_C@_0EP@KAFACABJ@?$CD?$CD?$CD?$CDUM?$DN?$CFc?$EAUD?$DN5?$EAUT?$DN?$CFld?$EARDATET?$DNDD@ DB '#'
	DB	'###UM=%c@UD=5@UT=%ld@RDATET=DDHHMMSS@RESETUSEREAL=1@%s@CB=_Cl'
	DB	'ose_:0|@SCD=%ld@', 00H			; `string'
CONST	ENDS
;	COMDAT ??_C@_0PG@JMCCFOJJ@BOUNDMARK?$DN?$LE?k?$LK?q?B?w?F?$KO?3?$CF?42f?0?$CF?42f?3?$CF?4@
CONST	SEGMENT
??_C@_0PG@JMCCFOJJ@BOUNDMARK?$DN?$LE?k?$LK?q?B?w?F?$KO?3?$CF?42f?0?$CF?42f?3?$CF?4@ DB 'B'
	DB	'OUNDMARK=', 0b4H, 0ebH, 0baH, 0f1H, 0c2H, 0f7H, 0c6H, 0aeH, ':'
	DB	'%.2f,%.2f:%.6s:1:%.2f:%c@PREVPRICE=_Close_:0.00|_Volume_:%s|_'
	DB	'VolumeAmount_:%s@TDC=%s:_Open_,|%s:_High_,|%s:_Low_,|%s:_Clos'
	DB	'e_,@RDC=%s:3:_Open_,|%s:3:_High_,|%s:3:_Low_,|%s:3:_Close_,@O'
	DB	'HL=:%ld:%ld:%ld@PREVPRICE2=%ld:%ld:%ld:%ld@', 00H ; `string'
CONST	ENDS
;	COMDAT ??_C@_0ON@KHKHJFCL@BOUNDMARK?$DN?$LE?$NO?$LH?$KP?B?w?F?$KO?3?$CF?42f?0?$CF?42f?3?$CF?4@
CONST	SEGMENT
??_C@_0ON@KHKHJFCL@BOUNDMARK?$DN?$LE?$NO?$LH?$KP?B?w?F?$KO?3?$CF?42f?0?$CF?42f?3?$CF?4@ DB 'B'
	DB	'OUNDMARK=', 0b4H, 0deH, 0b7H, 0afH, 0c2H, 0f7H, 0c6H, 0aeH, ':'
	DB	'%.2f,%.2f:%.6s:1:%.2f:2@ER=%.0f:3:_Close_,@PREVPRICE=_Close_:'
	DB	'%.2f|_Volume_:%s|_VolumeAmount_:%s@TDC=%s:_Open_,|%s:_High_,|'
	DB	'%s:_Low_,|%s:_Close_,@RDC=%s:3:_Open_,|%s:3:_High_,|%s:3:_Low'
	DB	'_,|%s:3:_Close_,@OHL=:%ld:%ld:%ld@', 00H	; `string'
CONST	ENDS
;	COMDAT ??_C@_0BAI@EAMGALPA@BOUNDMARK?$DN?$LE?$NO?$LH?$KP?B?w?F?$KO?3?$CF?42f?0?$CF?42f?3?$CF?4@
CONST	SEGMENT
??_C@_0BAI@EAMGALPA@BOUNDMARK?$DN?$LE?$NO?$LH?$KP?B?w?F?$KO?3?$CF?42f?0?$CF?42f?3?$CF?4@ DB 'B'
	DB	'OUNDMARK=', 0b4H, 0deH, 0b7H, 0afH, 0c2H, 0f7H, 0c6H, 0aeH, ':'
	DB	'%.2f,%.2f:%.6s:1:%.2f:2@ER=%.0f:3:_Close_,@PREVPRICE=_Close_:'
	DB	'%.2f|_Volume_:%s|_VolumeAmount_:%s@TDC=%s:_Open_,|%s:_High_,|'
	DB	'%s:_Low_,|%s:_Close_,@RDC=%s:3:_Open_,|%s:3:_High_,|%s:3:_Low'
	DB	'_,|%s:3:_Close_,@OHL=:%ld:%ld:%ld@PREVPRICE2=%ld:%ld:%ld:%ld@'
	DB	00H						; `string'
CONST	ENDS
;	COMDAT ??_C@_0II@OOILGDEE@BOUNDMARK?$DN?$LA?$KB?$LA?$NN?B?w?F?$KO?3?$CFld?0?$CFld?3?$CF?46s@
CONST	SEGMENT
??_C@_0II@OOILGDEE@BOUNDMARK?$DN?$LA?$KB?$LA?$NN?B?w?F?$KO?3?$CFld?0?$CFld?3?$CF?46s@ DB 'B'
	DB	'OUNDMARK=', 0b0H, 0a1H, 0b0H, 0ddH, 0c2H, 0f7H, 0c6H, 0aeH, ':'
	DB	'%ld,%ld:%.6s:1:%s:%c@PREVPRICE=_Close_:%s|_Volume_:%s|_Volume'
	DB	'Amount_:%s@OHL=:%ld:%ld:%ld@PREVPRICE2=%ld:%ld:%ld:%ld@', 00H ; `string'
CONST	ENDS
;	COMDAT ??_C@_0BI@MKMDCDBM@ChartBozo?5size?$DN?$CFd?5?$FL?$CFs?$FN?6@
CONST	SEGMENT
??_C@_0BI@MKMDCDBM@ChartBozo?5size?$DN?$CFd?5?$FL?$CFs?$FN?6@ DB 'ChartBo'
	DB	'zo size=%d [%s]', 0aH, 00H			; `string'
CONST	ENDS
;	COMDAT ??_C@_04JDPKJLKG@0000@
CONST	SEGMENT
??_C@_04JDPKJLKG@0000@ DB '0000', 00H			; `string'
CONST	ENDS
;	COMDAT ??_C@_02PLJDPFIO@00@
CONST	SEGMENT
??_C@_02PLJDPFIO@00@ DB '00', 00H			; `string'
CONST	ENDS
;	COMDAT ??_C@_01NEMOKFLO@?$DN@
CONST	SEGMENT
??_C@_01NEMOKFLO@?$DN@ DB '=', 00H			; `string'
CONST	ENDS
;	COMDAT ??_C@_06BKDDPDOC@?$CFs?$DN?$CFs?$EA@
CONST	SEGMENT
??_C@_06BKDDPDOC@?$CFs?$DN?$CFs?$EA@ DB '%s=%s@', 00H	; `string'
CONST	ENDS
;	COMDAT ??_C@_04OCCELDNI@?$CF04d@
CONST	SEGMENT
??_C@_04OCCELDNI@?$CF04d@ DB '%04d', 00H		; `string'
CONST	ENDS
;	COMDAT ??_7CChartBozoManager@@6B@
CONST	SEGMENT
??_7CChartBozoManager@@6B@ DD FLAT:??_R4CChartBozoManager@@6B@ ; CChartBozoManager::`vftable'
	DD	FLAT:?GetChartBozoMsg@CChartBozoManager@@UAGHPBDPAVCChartBozoInput@@AAV?$CStringT@DV?$StrTraitMFC_DLL@DV?$ChTraitsCRT@D@ATL@@@@@ATL@@H@Z
	DD	FLAT:?ChangeChartBozoMsg@CChartBozoManager@@UAGHAAV?$CStringT@DV?$StrTraitMFC_DLL@DV?$ChTraitsCRT@D@ATL@@@@@ATL@@PAV?$CList@PAVCChartBozoItem@@PAV1@@@@Z
	DD	FLAT:?GetFidType@CChartBozoManager@@UAGHH@Z
	DD	FLAT:?GetFidType@CChartBozoManager@@UAGHPBD@Z
	DD	FLAT:?GetTrType@CChartBozoManager@@UAGHPBD@Z
	DD	FLAT:?MakeChtBojo_ctstk@CChartBozoManager@@UAGHPAVCChartBozoInput@@AAV?$CStringT@DV?$StrTraitMFC_DLL@DV?$ChTraitsCRT@D@ATL@@@@@ATL@@H@Z
	DD	FLAT:?MakeChtBojo_ctup@CChartBozoManager@@UAGHPAVCChartBozoInput@@AAV?$CStringT@DV?$StrTraitMFC_DLL@DV?$ChTraitsCRT@D@ATL@@@@@ATL@@H@Z
	DD	FLAT:?MakeChtBojo_ctsfo@CChartBozoManager@@UAGHPAVCChartBozoInput@@AAV?$CStringT@DV?$StrTraitMFC_DLL@DV?$ChTraitsCRT@D@ATL@@@@@ATL@@H@Z
	DD	FLAT:?MakeChtBojo_ctfo@CChartBozoManager@@UAGHPAVCChartBozoInput@@AAV?$CStringT@DV?$StrTraitMFC_DLL@DV?$ChTraitsCRT@D@ATL@@@@@ATL@@H@Z
	DD	FLAT:?MakeChtBojo_ctfrn@CChartBozoManager@@UAGHPAVCChartBozoInput@@AAV?$CStringT@DV?$StrTraitMFC_DLL@DV?$ChTraitsCRT@D@ATL@@@@@ATL@@H@Z
	DD	FLAT:?MakeChtBojo_market@CChartBozoManager@@UAGHPAVCChartBozoInput@@AAV?$CStringT@DV?$StrTraitMFC_DLL@DV?$ChTraitsCRT@D@ATL@@@@@ATL@@H@Z
	DD	FLAT:?MakeChtBojo_ctfofor@CChartBozoManager@@UAGHPAVCChartBozoInput@@AAV?$CStringT@DV?$StrTraitMFC_DLL@DV?$ChTraitsCRT@D@ATL@@@@@ATL@@H@Z
	DD	FLAT:?MakeChtBojo_ctfx@CChartBozoManager@@UAGHPAVCChartBozoInput@@AAV?$CStringT@DV?$StrTraitMFC_DLL@DV?$ChTraitsCRT@D@ATL@@@@@ATL@@H@Z
	DD	FLAT:?MakeChtBojo_ctcme@CChartBozoManager@@UAGHPAVCChartBozoInput@@AAV?$CStringT@DV?$StrTraitMFC_DLL@DV?$ChTraitsCRT@D@ATL@@@@@ATL@@H@Z
CONST	ENDS
;	COMDAT ??_C@_0O@PJEIPGOG@DRLog_Message@
CONST	SEGMENT
??_C@_0O@PJEIPGOG@DRLog_Message@ DB 'DRLog_Message', 00H ; `string'
CONST	ENDS
;	COMDAT xdata$x
xdata$x	SEGMENT
__unwindtable$?_FindKeyInBozoString@CChartBozoManager@@IAEHAAV?$CStringT@DV?$StrTraitMFC_DLL@DV?$ChTraitsCRT@D@ATL@@@@@ATL@@PBDAAH2@Z DD 0ffffffffH
	DD	FLAT:__unwindfunclet$?_FindKeyInBozoString@CChartBozoManager@@IAEHAAV?$CStringT@DV?$StrTraitMFC_DLL@DV?$ChTraitsCRT@D@ATL@@@@@ATL@@PBDAAH2@Z$0
__ehfuncinfo$?_FindKeyInBozoString@CChartBozoManager@@IAEHAAV?$CStringT@DV?$StrTraitMFC_DLL@DV?$ChTraitsCRT@D@ATL@@@@@ATL@@PBDAAH2@Z DD 019930522H
	DD	01H
	DD	FLAT:__unwindtable$?_FindKeyInBozoString@CChartBozoManager@@IAEHAAV?$CStringT@DV?$StrTraitMFC_DLL@DV?$ChTraitsCRT@D@ATL@@@@@ATL@@PBDAAH2@Z
	DD	2 DUP(00H)
	DD	2 DUP(00H)
	DD	00H
	DD	01H
xdata$x	ENDS
CRT$XCU	SEGMENT
?RMSG_GETPCTRDATA$initializer$@@3P6AXXZA DD FLAT:??__ERMSG_GETPCTRDATA@@YAXXZ ; RMSG_GETPCTRDATA$initializer$
CRT$XCU	ENDS
CRT$XCU	SEGMENT
?RMSG_SETPCTRDATA$initializer$@@3P6AXXZA DD FLAT:??__ERMSG_SETPCTRDATA@@YAXXZ ; RMSG_SETPCTRDATA$initializer$
CRT$XCU	ENDS
CRT$XCU	SEGMENT
?RMSG_GETSIGNAL_REAL$initializer$@@3P6AXXZA DD FLAT:??__ERMSG_GETSIGNAL_REAL@@YAXXZ ; RMSG_GETSIGNAL_REAL$initializer$
CRT$XCU	ENDS
; Function compile flags: /Ogtp
; File D:\git\src\IBK\IBK_DRFN\ProjSrc\SrcDrfn\DrCommon\PartnerMng\_ChartBozoManager.cpp
; File C:\Program Files (x86)\Microsoft Visual Studio\2019\Community\VC\Tools\MSVC\14.29.30133\atlmfc\include\atlsimpstr.h
; File D:\git\src\IBK\IBK_DRFN\ProjSrc\SrcDrfn\DrCommon\PartnerMng\_ChartBozoManager.cpp
;	COMDAT ?_DoPre_GetChartBozoMsg@CChartBozoManager@@IAEXPAVCChartBozoInput@@@Z
_TEXT	SEGMENT
_pChartBInput$ = 8					; size = 4
?_DoPre_GetChartBozoMsg@CChartBozoManager@@IAEXPAVCChartBozoInput@@@Z PROC ; CChartBozoManager::_DoPre_GetChartBozoMsg, COMDAT
; _this$ = ecx

; 106  : {

  00000	55		 push	 ebp
  00001	8b ec		 mov	 ebp, esp
; File C:\Program Files (x86)\Microsoft Visual Studio\2019\Community\VC\Tools\MSVC\14.29.30133\atlmfc\include\atlsimpstr.h

; 800  : 		return( reinterpret_cast< CStringData* >( m_pszData )-1 );

  00003	8b 4d 08	 mov	 ecx, DWORD PTR _pChartBInput$[ebp]
  00006	83 c1 40	 add	 ecx, 64			; 00000040H
; File D:\git\src\IBK\IBK_DRFN\ProjSrc\SrcDrfn\DrCommon\PartnerMng\_ChartBozoManager.cpp

; 107  : 	if(pChartBInput->m_sStartTime.GetLength()==4)

  00009	8b 01		 mov	 eax, DWORD PTR [ecx]
  0000b	83 78 f4 04	 cmp	 DWORD PTR [eax-12], 4
  0000f	75 0e		 jne	 SHORT $LN2@DoPre_GetC

; 108  : 		pChartBInput->m_sStartTime += _T("00");

  00011	c7 45 08 00 00
	00 00		 mov	 DWORD PTR _pChartBInput$[ebp], OFFSET ??_C@_02PLJDPFIO@00@

; 109  : }

  00018	5d		 pop	 ebp

; 108  : 		pChartBInput->m_sStartTime += _T("00");

  00019	ff 25 00 00 00
	00		 jmp	 DWORD PTR __imp_??Y?$CStringT@DV?$StrTraitMFC_DLL@DV?$ChTraitsCRT@D@ATL@@@@@ATL@@QAEAAV01@PBD@Z
$LN2@DoPre_GetC:

; 109  : }

  0001f	5d		 pop	 ebp
  00020	c2 04 00	 ret	 4
?_DoPre_GetChartBozoMsg@CChartBozoManager@@IAEXPAVCChartBozoInput@@@Z ENDP ; CChartBozoManager::_DoPre_GetChartBozoMsg
_TEXT	ENDS
; Function compile flags: /Ogtp
; File D:\git\src\IBK\IBK_DRFN\ProjSrc\SrcDrfn\DrCommon\PartnerMng\_ChartBozoManager.cpp
;	COMDAT ?_FindKeyInBozoString@CChartBozoManager@@IAEHAAV?$CStringT@DV?$StrTraitMFC_DLL@DV?$ChTraitsCRT@D@ATL@@@@@ATL@@PBDAAH2@Z
_TEXT	SEGMENT
__$EHRec$ = -12						; size = 12
_rString$ = 8						; size = 4
_szFindKey$ = 12					; size = 4
_szKey$ = 12						; size = 4
_nStart$ = 16						; size = 4
_nLength$ = 20						; size = 4
?_FindKeyInBozoString@CChartBozoManager@@IAEHAAV?$CStringT@DV?$StrTraitMFC_DLL@DV?$ChTraitsCRT@D@ATL@@@@@ATL@@PBDAAH2@Z PROC ; CChartBozoManager::_FindKeyInBozoString, COMDAT
; _this$ = ecx

; 90   : {

  00000	55		 push	 ebp
  00001	8b ec		 mov	 ebp, esp
  00003	6a ff		 push	 -1
  00005	68 00 00 00 00	 push	 __ehhandler$?_FindKeyInBozoString@CChartBozoManager@@IAEHAAV?$CStringT@DV?$StrTraitMFC_DLL@DV?$ChTraitsCRT@D@ATL@@@@@ATL@@PBDAAH2@Z
  0000a	64 a1 00 00 00
	00		 mov	 eax, DWORD PTR fs:0
  00010	50		 push	 eax
  00011	56		 push	 esi
  00012	a1 00 00 00 00	 mov	 eax, DWORD PTR ___security_cookie
  00017	33 c5		 xor	 eax, ebp
  00019	50		 push	 eax
  0001a	8d 45 f4	 lea	 eax, DWORD PTR __$EHRec$[ebp]
  0001d	64 a3 00 00 00
	00		 mov	 DWORD PTR fs:0, eax

; 91   : 	CString szFindKey(szKey);

  00023	ff 75 0c	 push	 DWORD PTR _szKey$[ebp]
  00026	8d 4d 0c	 lea	 ecx, DWORD PTR _szFindKey$[ebp]
  00029	ff 15 00 00 00
	00		 call	 DWORD PTR __imp_??0?$CStringT@DV?$StrTraitMFC_DLL@DV?$ChTraitsCRT@D@ATL@@@@@ATL@@QAE@PBD@Z

; 92   : 	szFindKey += "=";

  0002f	68 00 00 00 00	 push	 OFFSET ??_C@_01NEMOKFLO@?$DN@
  00034	8d 4d 0c	 lea	 ecx, DWORD PTR _szFindKey$[ebp]
  00037	c7 45 fc 00 00
	00 00		 mov	 DWORD PTR __$EHRec$[ebp+8], 0
  0003e	ff 15 00 00 00
	00		 call	 DWORD PTR __imp_??Y?$CStringT@DV?$StrTraitMFC_DLL@DV?$ChTraitsCRT@D@ATL@@@@@ATL@@QAEAAV01@PBD@Z

; 93   : 
; 94   : 	int nPos = rString.Find(szFindKey);

  00044	8b 4d 08	 mov	 ecx, DWORD PTR _rString$[ebp]
  00047	6a 00		 push	 0
  00049	ff 75 0c	 push	 DWORD PTR _szFindKey$[ebp]
  0004c	ff 15 00 00 00
	00		 call	 DWORD PTR __imp_?Find@?$CStringT@DV?$StrTraitMFC_DLL@DV?$ChTraitsCRT@D@ATL@@@@@ATL@@QBEHPBDH@Z
  00052	8b f0		 mov	 esi, eax

; 95   : 	if(nPos<0) return FALSE;

  00054	85 f6		 test	 esi, esi
  00056	78 27		 js	 SHORT $LN6@FindKeyInB

; 96   : 
; 97   : 	int nPos2 = rString.Find('@', nPos+1);

  00058	8b 4d 08	 mov	 ecx, DWORD PTR _rString$[ebp]
  0005b	8d 56 01	 lea	 edx, DWORD PTR [esi+1]
  0005e	52		 push	 edx
  0005f	6a 40		 push	 64			; 00000040H
  00061	ff 15 00 00 00
	00		 call	 DWORD PTR __imp_?Find@?$CStringT@DV?$StrTraitMFC_DLL@DV?$ChTraitsCRT@D@ATL@@@@@ATL@@QBEHDH@Z

; 98   : 	if(nPos2<0) return FALSE;

  00067	85 c0		 test	 eax, eax
  00069	78 14		 js	 SHORT $LN6@FindKeyInB

; 99   : 
; 100  : 	nStart = nPos;

  0006b	8b 4d 10	 mov	 ecx, DWORD PTR _nStart$[ebp]

; 101  : 	nLength = nPos2 - nPos +1;

  0006e	2b c6		 sub	 eax, esi
  00070	40		 inc	 eax
  00071	89 31		 mov	 DWORD PTR [ecx], esi

; 102  : 	return TRUE;

  00073	be 01 00 00 00	 mov	 esi, 1
  00078	8b 4d 14	 mov	 ecx, DWORD PTR _nLength$[ebp]
  0007b	89 01		 mov	 DWORD PTR [ecx], eax
  0007d	eb 02		 jmp	 SHORT $LN7@FindKeyInB
$LN6@FindKeyInB:
  0007f	33 f6		 xor	 esi, esi
$LN7@FindKeyInB:
  00081	8d 4d 0c	 lea	 ecx, DWORD PTR _szFindKey$[ebp]
  00084	ff 15 00 00 00
	00		 call	 DWORD PTR __imp_??1?$CStringT@DV?$StrTraitMFC_DLL@DV?$ChTraitsCRT@D@ATL@@@@@ATL@@QAE@XZ
  0008a	8b c6		 mov	 eax, esi

; 103  : }

  0008c	8b 4d f4	 mov	 ecx, DWORD PTR __$EHRec$[ebp]
  0008f	64 89 0d 00 00
	00 00		 mov	 DWORD PTR fs:0, ecx
  00096	59		 pop	 ecx
  00097	5e		 pop	 esi
  00098	8b e5		 mov	 esp, ebp
  0009a	5d		 pop	 ebp
  0009b	c2 10 00	 ret	 16			; 00000010H
_TEXT	ENDS
;	COMDAT text$x
text$x	SEGMENT
__unwindfunclet$?_FindKeyInBozoString@CChartBozoManager@@IAEHAAV?$CStringT@DV?$StrTraitMFC_DLL@DV?$ChTraitsCRT@D@ATL@@@@@ATL@@PBDAAH2@Z$0:
  00000	8d 4d 0c	 lea	 ecx, DWORD PTR _szFindKey$[ebp]
  00003	ff 25 00 00 00
	00		 jmp	 DWORD PTR __imp_??1?$CStringT@DV?$StrTraitMFC_DLL@DV?$ChTraitsCRT@D@ATL@@@@@ATL@@QAE@XZ
  00009	cc		 int	 3
  0000a	cc		 int	 3
  0000b	cc		 int	 3
  0000c	cc		 int	 3
  0000d	cc		 int	 3
__ehhandler$?_FindKeyInBozoString@CChartBozoManager@@IAEHAAV?$CStringT@DV?$StrTraitMFC_DLL@DV?$ChTraitsCRT@D@ATL@@@@@ATL@@PBDAAH2@Z:
  0000e	90		 npad	 1
  0000f	90		 npad	 1
  00010	8b 54 24 08	 mov	 edx, DWORD PTR [esp+8]
  00014	8d 42 0c	 lea	 eax, DWORD PTR [edx+12]
  00017	8b 4a f8	 mov	 ecx, DWORD PTR [edx-8]
  0001a	33 c8		 xor	 ecx, eax
  0001c	e8 00 00 00 00	 call	 @__security_check_cookie@4
  00021	b8 00 00 00 00	 mov	 eax, OFFSET __ehfuncinfo$?_FindKeyInBozoString@CChartBozoManager@@IAEHAAV?$CStringT@DV?$StrTraitMFC_DLL@DV?$ChTraitsCRT@D@ATL@@@@@ATL@@PBDAAH2@Z
  00026	e9 00 00 00 00	 jmp	 ___CxxFrameHandler3
text$x	ENDS
?_FindKeyInBozoString@CChartBozoManager@@IAEHAAV?$CStringT@DV?$StrTraitMFC_DLL@DV?$ChTraitsCRT@D@ATL@@@@@ATL@@PBDAAH2@Z ENDP ; CChartBozoManager::_FindKeyInBozoString
; Function compile flags: /Ogtp
; File D:\git\src\IBK\IBK_DRFN\ProjSrc\SrcDrfn\DrCommon\PartnerMng\_ChartBozoManager.cpp
; File C:\Program Files (x86)\Microsoft Visual Studio\2019\Community\VC\Tools\MSVC\14.29.30133\atlmfc\include\atlsimpstr.h
; File D:\git\src\IBK\IBK_DRFN\ProjSrc\SrcDrfn\DrCommon\PartnerMng\_ChartBozoManager.cpp
;	COMDAT ?_DoCalcBozoSize@CChartBozoManager@@IAEHAAV?$CStringT@DV?$StrTraitMFC_DLL@DV?$ChTraitsCRT@D@ATL@@@@@ATL@@@Z
_TEXT	SEGMENT
_aSize$ = -12						; size = 5
__$ArrayPad$ = -4					; size = 4
_rString$ = 8						; size = 4
?_DoCalcBozoSize@CChartBozoManager@@IAEHAAV?$CStringT@DV?$StrTraitMFC_DLL@DV?$ChTraitsCRT@D@ATL@@@@@ATL@@@Z PROC ; CChartBozoManager::_DoCalcBozoSize, COMDAT
; _this$ = ecx

; 35   : {

  00000	55		 push	 ebp
  00001	8b ec		 mov	 ebp, esp
  00003	83 ec 0c	 sub	 esp, 12			; 0000000cH
  00006	a1 00 00 00 00	 mov	 eax, DWORD PTR ___security_cookie
  0000b	33 c5		 xor	 eax, ebp
  0000d	89 45 fc	 mov	 DWORD PTR __$ArrayPad$[ebp], eax
  00010	53		 push	 ebx
  00011	56		 push	 esi
  00012	57		 push	 edi
  00013	8b 7d 08	 mov	 edi, DWORD PTR _rString$[ebp]
; File C:\Program Files (x86)\Microsoft Visual Studio\2019\Community\VC\Tools\MSVC\14.29.30133\atlmfc\include\atlsimpstr.h

; 519  : 		return( GetData()->nDataLength );

  00016	8b 07		 mov	 eax, DWORD PTR [edi]
  00018	8b 58 f4	 mov	 ebx, DWORD PTR [eax-12]
; File D:\git\src\IBK\IBK_DRFN\ProjSrc\SrcDrfn\DrCommon\PartnerMng\_ChartBozoManager.cpp

; 37   : 	char aSize[5] = {0,};

  0001b	c7 45 f4 00 00
	00 00		 mov	 DWORD PTR _aSize$[ebp], 0
  00022	c6 45 f8 00	 mov	 BYTE PTR _aSize$[ebp+4], 0

; 38   : 	sprintf(aSize, "%04d", nLen -4);

  00026	8d 43 fc	 lea	 eax, DWORD PTR [ebx-4]
  00029	50		 push	 eax
  0002a	8d 45 f4	 lea	 eax, DWORD PTR _aSize$[ebp]
  0002d	68 00 00 00 00	 push	 OFFSET ??_C@_04OCCELDNI@?$CF04d@
  00032	50		 push	 eax
  00033	e8 00 00 00 00	 call	 _sprintf
  00038	83 c4 0c	 add	 esp, 12			; 0000000cH
  0003b	33 f6		 xor	 esi, esi
  0003d	0f 1f 00	 npad	 3
$LL4@DoCalcBozo:

; 39   : 
; 40   : 	for(int i=0; i<4; i++)	rString.SetAt(i, aSize[i]);

  00040	0f b6 4c 35 f4	 movzx	 ecx, BYTE PTR _aSize$[ebp+esi]
  00045	51		 push	 ecx
  00046	56		 push	 esi
  00047	8b cf		 mov	 ecx, edi
  00049	ff 15 00 00 00
	00		 call	 DWORD PTR __imp_?SetAt@?$CSimpleStringT@D$00@ATL@@QAEXHD@Z
  0004f	46		 inc	 esi
  00050	83 fe 04	 cmp	 esi, 4
  00053	7c eb		 jl	 SHORT $LL4@DoCalcBozo

; 41   : 
; 42   : 	return nLen;
; 43   : }

  00055	8b 4d fc	 mov	 ecx, DWORD PTR __$ArrayPad$[ebp]
  00058	8b c3		 mov	 eax, ebx
  0005a	5f		 pop	 edi
  0005b	5e		 pop	 esi
  0005c	33 cd		 xor	 ecx, ebp
  0005e	5b		 pop	 ebx
  0005f	e8 00 00 00 00	 call	 @__security_check_cookie@4
  00064	8b e5		 mov	 esp, ebp
  00066	5d		 pop	 ebp
  00067	c2 04 00	 ret	 4
?_DoCalcBozoSize@CChartBozoManager@@IAEHAAV?$CStringT@DV?$StrTraitMFC_DLL@DV?$ChTraitsCRT@D@ATL@@@@@ATL@@@Z ENDP ; CChartBozoManager::_DoCalcBozoSize
_TEXT	ENDS
; Function compile flags: /Ogtp
; File D:\git\src\IBK\IBK_DRFN\ProjSrc\SrcDrfn\DrCommon\PartnerMng\_ChartBozoManager.cpp
;	COMDAT ??0CChartBozoManager@@QAE@XZ
_TEXT	SEGMENT
??0CChartBozoManager@@QAE@XZ PROC			; CChartBozoManager::CChartBozoManager, COMDAT
; _this$ = ecx

; 31   : {

  00000	c7 01 00 00 00
	00		 mov	 DWORD PTR [ecx], OFFSET ??_7CChartBozoManager@@6B@

; 32   : }

  00006	8b c1		 mov	 eax, ecx
  00008	c3		 ret	 0
??0CChartBozoManager@@QAE@XZ ENDP			; CChartBozoManager::CChartBozoManager
_TEXT	ENDS
; Function compile flags: /Ogtp
; File D:\git\src\IBK\IBK_DRFN\ProjSrc\SrcDrfn\DrCommon\PartnerMng\_ChartBozoManager.cpp
; File C:\Program Files (x86)\Microsoft Visual Studio\2019\Community\VC\Tools\MSVC\14.29.30133\atlmfc\include\atlsimpstr.h
; File D:\git\src\IBK\IBK_DRFN\ProjSrc\SrcDrfn\DrCommon\PartnerMng\_ChartBozoManager.cpp
; File C:\Program Files (x86)\Microsoft Visual Studio\2019\Community\VC\Tools\MSVC\14.29.30133\atlmfc\include\atlsimpstr.h
; File D:\git\src\IBK\IBK_DRFN\ProjSrc\SrcDrfn\DrCommon\PartnerMng\_ChartBozoManager.cpp
; File C:\Program Files (x86)\Microsoft Visual Studio\2019\Community\VC\Tools\MSVC\14.29.30133\atlmfc\include\atlsimpstr.h
; File D:\git\src\IBK\IBK_DRFN\ProjSrc\SrcDrfn\DrCommon\PartnerMng\_ChartBozoManager.cpp
; File C:\Program Files (x86)\Microsoft Visual Studio\2019\Community\VC\Tools\MSVC\14.29.30133\atlmfc\include\atlsimpstr.h
; File D:\git\src\IBK\IBK_DRFN\ProjSrc\SrcDrfn\DrCommon\PartnerMng\_ChartBozoManager.cpp
; File C:\Program Files (x86)\Microsoft Visual Studio\2019\Community\VC\Tools\MSVC\14.29.30133\atlmfc\include\atlsimpstr.h
; File D:\git\src\IBK\IBK_DRFN\ProjSrc\SrcDrfn\DrCommon\PartnerMng\_ChartBozoManager.cpp
; File C:\Program Files (x86)\Microsoft Visual Studio\2019\Community\VC\Tools\MSVC\14.29.30133\atlmfc\include\atlsimpstr.h
; File D:\git\src\IBK\IBK_DRFN\ProjSrc\SrcDrfn\DrCommon\PartnerMng\_ChartBozoManager.cpp
;	COMDAT ?MakeChtBojo_ctcme@CChartBozoManager@@UAGHPAVCChartBozoInput@@AAV?$CStringT@DV?$StrTraitMFC_DLL@DV?$ChTraitsCRT@D@ATL@@@@@ATL@@H@Z
_TEXT	SEGMENT
_rString$GSCopy$1$ = -1756				; size = 4
_strPacketType$1 = -1752				; size = 4
_strBMsg$2 = -1748					; size = 4
_szTmpExt$ = -1744					; size = 4
_strPacketTime$ = -1740					; size = 4
tv544 = -1733						; size = 1
_lsBojo$ = -1732					; size = 800
_lsBMrk$ = -932						; size = 800
_lsRelpsa$ = -132					; size = 128
__$ArrayPad$ = -4					; size = 4
_this$ = 8						; size = 4
_pChartBInput$ = 12					; size = 4
_rString$ = 16						; size = 4
_nOption$ = 20						; size = 4
?MakeChtBojo_ctcme@CChartBozoManager@@UAGHPAVCChartBozoInput@@AAV?$CStringT@DV?$StrTraitMFC_DLL@DV?$ChTraitsCRT@D@ATL@@@@@ATL@@H@Z PROC ; CChartBozoManager::MakeChtBojo_ctcme, COMDAT

; 1372 : {

  00000	55		 push	 ebp
  00001	8b ec		 mov	 ebp, esp
  00003	81 ec dc 06 00
	00		 sub	 esp, 1756		; 000006dcH
  00009	a1 00 00 00 00	 mov	 eax, DWORD PTR ___security_cookie
  0000e	33 c5		 xor	 eax, ebp
  00010	89 45 fc	 mov	 DWORD PTR __$ArrayPad$[ebp], eax
  00013	53		 push	 ebx
  00014	8b 5d 0c	 mov	 ebx, DWORD PTR _pChartBInput$[ebp]

; 1373 : 	char    lsBMrk[800], lsBojo[800], lsRelpsa[128], lcChtAE;
; 1374 : 	long    lsrecprice=0;
; 1375 : 
; 1376 :     memset(lsBMrk      , 0x20, sizeof(lsBMrk      ));

  00017	8d 85 5c fc ff
	ff		 lea	 eax, DWORD PTR _lsBMrk$[ebp]
  0001d	56		 push	 esi
  0001e	8b 75 10	 mov	 esi, DWORD PTR _rString$[ebp]
  00021	57		 push	 edi
  00022	68 20 03 00 00	 push	 800			; 00000320H
  00027	6a 20		 push	 32			; 00000020H
  00029	50		 push	 eax
  0002a	89 b5 24 f9 ff
	ff		 mov	 DWORD PTR _rString$GSCopy$1$[ebp], esi
  00030	e8 00 00 00 00	 call	 _memset

; 1377 :     memset(lsBojo      , 0x20, sizeof(lsBojo      ));

  00035	68 20 03 00 00	 push	 800			; 00000320H
  0003a	8d 85 3c f9 ff
	ff		 lea	 eax, DWORD PTR _lsBojo$[ebp]
  00040	6a 20		 push	 32			; 00000020H
  00042	50		 push	 eax
  00043	e8 00 00 00 00	 call	 _memset

; 1378 :     memset(lsRelpsa    , 0x20, sizeof(lsRelpsa    ));

  00048	68 80 00 00 00	 push	 128			; 00000080H
  0004d	8d 85 7c ff ff
	ff		 lea	 eax, DWORD PTR _lsRelpsa$[ebp]
  00053	6a 20		 push	 32			; 00000020H
  00055	50		 push	 eax
  00056	e8 00 00 00 00	 call	 _memset

; 1379 : 
; 1380 : 	if (pChartBInput->sNxtFlg[0] == '1')	lcChtAE = 'A';

  0005b	8a 43 7d	 mov	 al, BYTE PTR [ebx+125]
  0005e	83 c4 24	 add	 esp, 36			; 00000024H

; 1381 : 	else									lcChtAE = 'E';
; 1382 : 
; 1383 : 	if(pChartBInput->sDataType[0] == '5') lsrecprice = 0;

  00061	80 7b 7e 35	 cmp	 BYTE PTR [ebx+126], 53	; 00000035H
  00065	88 85 3b f9 ff
	ff		 mov	 BYTE PTR tv544[ebp], al
  0006b	75 04		 jne	 SHORT $LN4@MakeChtBoj
  0006d	33 c0		 xor	 eax, eax
  0006f	eb 06		 jmp	 SHORT $LN5@MakeChtBoj
$LN4@MakeChtBoj:

; 1384 : 	else	 lsrecprice   = pChartBInput->lPrice;

  00071	8b 83 80 00 00
	00		 mov	 eax, DWORD PTR [ebx+128]
$LN5@MakeChtBoj:

; 1385 : 
; 1386 : 	pChartBInput->nMarket = 1; //    .
; 1387 : 
; 1388 : 	{
; 1389 : 		sprintf(lsBMrk, "BOUNDMARK=_PriceChart_:%s,%s:%s:1:%ld:%c@PREVPRICE=_Close_:%s@OHL=:%s:%s:%s@PREVPRICE2=%s:%s:%s:%s",

  00077	ff 73 50	 push	 DWORD PTR [ebx+80]
  0007a	8d 4b 68	 lea	 ecx, DWORD PTR [ebx+104]
  0007d	c7 83 b4 00 00
	00 01 00 00 00	 mov	 DWORD PTR [ebx+180], 1
  00087	ff 73 38	 push	 DWORD PTR [ebx+56]
  0008a	ff 73 48	 push	 DWORD PTR [ebx+72]
  0008d	ff 73 4c	 push	 DWORD PTR [ebx+76]
  00090	ff 73 34	 push	 DWORD PTR [ebx+52]
  00093	ff 73 30	 push	 DWORD PTR [ebx+48]
  00096	ff 73 2c	 push	 DWORD PTR [ebx+44]
  00099	ff 73 38	 push	 DWORD PTR [ebx+56]
  0009c	6a 31		 push	 49			; 00000031H
  0009e	50		 push	 eax
  0009f	51		 push	 ecx
  000a0	ff 73 28	 push	 DWORD PTR [ebx+40]
  000a3	8d 85 5c fc ff
	ff		 lea	 eax, DWORD PTR _lsBMrk$[ebp]
  000a9	ff 73 24	 push	 DWORD PTR [ebx+36]
  000ac	68 00 00 00 00	 push	 OFFSET ??_C@_0GD@BAOLIJAJ@BOUNDMARK?$DN_PriceChart_?3?$CFs?0?$CFs?3?$CFs@
  000b1	50		 push	 eax
  000b2	e8 00 00 00 00	 call	 _sprintf

; 1390 : 						pChartBInput->m_sUpLmtPrice, 
; 1391 : 						pChartBInput->m_sDnLmtPrice, 
; 1392 : 						pChartBInput->sShcode, 
; 1393 : 						lsrecprice,
; 1394 : 						'1', 
; 1395 : 						pChartBInput->m_sPreprice,
; 1396 : 						pChartBInput->m_sOpen, pChartBInput->m_sHigh, pChartBInput->m_sLow,
; 1397 : 						pChartBInput->m_sPreHigh, pChartBInput->m_sPreOpen, pChartBInput->m_sPreprice, pChartBInput->m_sPreLow);
; 1398 : 
; 1399 : 		if( nOption > 1 )

  000b7	8b 7d 14	 mov	 edi, DWORD PTR _nOption$[ebp]
  000ba	83 c4 3c	 add	 esp, 60			; 0000003cH
  000bd	83 ff 01	 cmp	 edi, 1
  000c0	0f 8e be 00 00
	00		 jle	 $LN6@MakeChtBoj

; 1400 : 		{
; 1401 : 			CString strPacketType;

  000c6	8d 8d 28 f9 ff
	ff		 lea	 ecx, DWORD PTR _strPacketType$1[ebp]
  000cc	ff 15 00 00 00
	00		 call	 DWORD PTR __imp_??0?$CStringT@DV?$StrTraitMFC_DLL@DV?$ChTraitsCRT@D@ATL@@@@@ATL@@QAE@XZ

; 1402 : 			strPacketType.Format("x %.*f", (int)log10(nOption), (double)1/(double)nOption); 

  000d2	f2 0f 10 0d 00
	00 00 00	 movsd	 xmm1, QWORD PTR __real@3ff0000000000000
  000da	83 ec 08	 sub	 esp, 8
  000dd	66 0f 6e c7	 movd	 xmm0, edi
  000e1	f3 0f e6 c0	 cvtdq2pd xmm0, xmm0
  000e5	f2 0f 5e c8	 divsd	 xmm1, xmm0
  000e9	f2 0f 11 0c 24	 movsd	 QWORD PTR [esp], xmm1
  000ee	e8 00 00 00 00	 call	 __libm_sse2_log10_precise
  000f3	8b 35 00 00 00
	00		 mov	 esi, DWORD PTR __imp_?Format@?$CStringT@DV?$StrTraitMFC_DLL@DV?$ChTraitsCRT@D@ATL@@@@@ATL@@QAAXPBDZZ
  000f9	f2 0f 2c c0	 cvttsd2si eax, xmm0
  000fd	50		 push	 eax
  000fe	8d 85 28 f9 ff
	ff		 lea	 eax, DWORD PTR _strPacketType$1[ebp]
  00104	68 00 00 00 00	 push	 OFFSET ??_C@_06PFAJMMJF@x?5?$CF?4?$CKf@
  00109	50		 push	 eax
  0010a	ff d6		 call	 esi
  0010c	83 c4 14	 add	 esp, 20			; 00000014H

; 1403 : 
; 1404 : 			CString strBMsg;

  0010f	8d 8d 2c f9 ff
	ff		 lea	 ecx, DWORD PTR _strBMsg$2[ebp]
  00115	ff 15 00 00 00
	00		 call	 DWORD PTR __imp_??0?$CStringT@DV?$StrTraitMFC_DLL@DV?$ChTraitsCRT@D@ATL@@@@@ATL@@QAE@XZ

; 1405 : 			strBMsg.Format("RESETPACKET=_Close_:10:%s|_Open_:10:%s|_High_:10:%s|_Low_:10:%s@", strPacketType, strPacketType, strPacketType, strPacketType);

  0011b	8b 85 28 f9 ff
	ff		 mov	 eax, DWORD PTR _strPacketType$1[ebp]
  00121	50		 push	 eax
  00122	50		 push	 eax
  00123	50		 push	 eax
  00124	50		 push	 eax
  00125	8d 85 2c f9 ff
	ff		 lea	 eax, DWORD PTR _strBMsg$2[ebp]
  0012b	68 00 00 00 00	 push	 OFFSET ??_C@_0EB@FAKBLPPL@RESETPACKET?$DN_Close_?310?3?$CFs?$HM_Open@
  00130	50		 push	 eax
  00131	ff d6		 call	 esi

; 1406 : 			strcat(lsBMrk, strBMsg);

  00133	8b 95 2c f9 ff
	ff		 mov	 edx, DWORD PTR _strBMsg$2[ebp]
  00139	83 c4 18	 add	 esp, 24			; 00000018H
  0013c	8b f2		 mov	 esi, edx
  0013e	66 90		 npad	 2
$LL64@MakeChtBoj:
  00140	8a 02		 mov	 al, BYTE PTR [edx]
  00142	42		 inc	 edx
  00143	84 c0		 test	 al, al
  00145	75 f9		 jne	 SHORT $LL64@MakeChtBoj
  00147	8d bd 5c fc ff
	ff		 lea	 edi, DWORD PTR _lsBMrk$[ebp]
  0014d	2b d6		 sub	 edx, esi
  0014f	4f		 dec	 edi
$LL65@MakeChtBoj:
  00150	8a 47 01	 mov	 al, BYTE PTR [edi+1]
  00153	47		 inc	 edi
  00154	84 c0		 test	 al, al
  00156	75 f8		 jne	 SHORT $LL65@MakeChtBoj
  00158	8b ca		 mov	 ecx, edx
  0015a	c1 e9 02	 shr	 ecx, 2
  0015d	f3 a5		 rep movsd
  0015f	8b ca		 mov	 ecx, edx
  00161	83 e1 03	 and	 ecx, 3
  00164	f3 a4		 rep movsb

; 1407 : 		}

  00166	8d 8d 2c f9 ff
	ff		 lea	 ecx, DWORD PTR _strBMsg$2[ebp]
  0016c	ff 15 00 00 00
	00		 call	 DWORD PTR __imp_??1?$CStringT@DV?$StrTraitMFC_DLL@DV?$ChTraitsCRT@D@ATL@@@@@ATL@@QAE@XZ
  00172	8d 8d 28 f9 ff
	ff		 lea	 ecx, DWORD PTR _strPacketType$1[ebp]
  00178	ff 15 00 00 00
	00		 call	 DWORD PTR __imp_??1?$CStringT@DV?$StrTraitMFC_DLL@DV?$ChTraitsCRT@D@ATL@@@@@ATL@@QAE@XZ
  0017e	8b b5 24 f9 ff
	ff		 mov	 esi, DWORD PTR _rString$GSCopy$1$[ebp]
$LN6@MakeChtBoj:

; 1408 : 	} 
; 1409 : 
; 1410 : 	CString strPacketTime;

  00184	8d 8d 34 f9 ff
	ff		 lea	 ecx, DWORD PTR _strPacketTime$[ebp]
  0018a	ff 15 00 00 00
	00		 call	 DWORD PTR __imp_??0?$CStringT@DV?$StrTraitMFC_DLL@DV?$ChTraitsCRT@D@ATL@@@@@ATL@@QAE@XZ

; 1411 : 	//  
; 1412 : 	if 		(pChartBInput->sTerm[0] == '0')	//(0:/1:/2:/3:/4:/6:)

  00190	8a 43 7c	 mov	 al, BYTE PTR [ebx+124]
  00193	3c 30		 cmp	 al, 48			; 00000030H
  00195	75 52		 jne	 SHORT $LN7@MakeChtBoj

; 1413 : 	{
; 1414 : 		if(pChartBInput->nPacketType==1)

  00197	83 bb bc 00 00
	00 01		 cmp	 DWORD PTR [ebx+188], 1
  0019e	8d 8d 34 f9 ff
	ff		 lea	 ecx, DWORD PTR _strPacketTime$[ebp]
  001a4	75 07		 jne	 SHORT $LN9@MakeChtBoj

; 1415 : 			strPacketTime = "DDHHMMSS";

  001a6	68 00 00 00 00	 push	 OFFSET ??_C@_08JFMBEEDE@DDHHMMSS@
  001ab	eb 05		 jmp	 SHORT $LN67@MakeChtBoj
$LN9@MakeChtBoj:

; 1416 : 		else
; 1417 : 			strPacketTime = "YYYYMMDDHHMMSS";

  001ad	68 00 00 00 00	 push	 OFFSET ??_C@_0P@IMPIBBAB@YYYYMMDDHHMMSS@
$LN67@MakeChtBoj:

; 1418 : 
; 1419 : 		sprintf(lsBojo, "####UM=%c@UD=5@UT=%ld@RDATET=%s@RESETUSEREAL=1@%s@CB=_Close_:0|@SCD=%s@",

  001b2	ff 15 00 00 00
	00		 call	 DWORD PTR __imp_??4?$CStringT@DV?$StrTraitMFC_DLL@DV?$ChTraitsCRT@D@ATL@@@@@ATL@@QAEAAV01@PBD@Z
  001b8	ff 73 44	 push	 DWORD PTR [ebx+68]
  001bb	8d 85 5c fc ff
	ff		 lea	 eax, DWORD PTR _lsBMrk$[ebp]
  001c1	50		 push	 eax
  001c2	ff b5 34 f9 ff
	ff		 push	 DWORD PTR _strPacketTime$[ebp]
  001c8	33 c0		 xor	 eax, eax
  001ca	80 bd 3b f9 ff
	ff 31		 cmp	 BYTE PTR tv544[ebp], 49	; 00000031H
  001d1	ff 73 78	 push	 DWORD PTR [ebx+120]
  001d4	0f 95 c0	 setne	 al
  001d7	8d 04 85 41 00
	00 00		 lea	 eax, DWORD PTR [eax*4+65]
  001de	50		 push	 eax
  001df	68 00 00 00 00	 push	 OFFSET ??_C@_0EI@EOHDKAAA@?$CD?$CD?$CD?$CDUM?$DN?$CFc?$EAUD?$DN5?$EAUT?$DN?$CFld?$EARDATET?$DN?$CFs@

; 1420 : 	       	lcChtAE, pChartBInput->lTick, strPacketTime, lsBMrk, pChartBInput->m_sFirstClose);
; 1421 : 	}

  001e4	e9 28 02 00 00	 jmp	 $LN68@MakeChtBoj
$LN7@MakeChtBoj:

; 1422 : 	else if (pChartBInput->sTerm[0] == '1' )

  001e9	3c 31		 cmp	 al, 49			; 00000031H
  001eb	75 1d		 jne	 SHORT $LN11@MakeChtBoj

; 1423 : 	{
; 1424 : 		//  
; 1425 : 		if(pChartBInput->nPacketType==1)

  001ed	83 bb bc 00 00
	00 01		 cmp	 DWORD PTR [ebx+188], 1
  001f4	8d 8d 34 f9 ff
	ff		 lea	 ecx, DWORD PTR _strPacketTime$[ebp]
  001fa	0f 85 da 01 00
	00		 jne	 $LN13@MakeChtBoj

; 1426 : 			strPacketTime = "MMDDHHMM";

  00200	68 00 00 00 00	 push	 OFFSET ??_C@_08KLIIINKM@MMDDHHMM@
  00205	e9 d5 01 00 00	 jmp	 $LN69@MakeChtBoj
$LN11@MakeChtBoj:

; 1427 : 		else
; 1428 : 			strPacketTime = "YYYYMMDDHHMMSS";
; 1429 : 
; 1430 : 		sprintf(lsBojo, "####UM=%c@UD=4@UT=%ld@RDATET=%s@RESETUSEREAL=1@%s@CB=_Close_:0|@SCD=%s@",
; 1431 : 	       	lcChtAE, pChartBInput->lTick, strPacketTime, lsBMrk, pChartBInput->m_sFirstClose);
; 1432 : 	}
; 1433 : 	else if (pChartBInput->sTerm[0] == '2')

  0020a	3c 32		 cmp	 al, 50			; 00000032H
  0020c	0f 85 ed 00 00
	00		 jne	 $LN15@MakeChtBoj

; 1434 : 	{
; 1435 : 		//  
; 1436 : 		BOOL bMarket = (pChartBInput->nMarket == 1 )|| 

  00212	8b 83 b4 00 00
	00		 mov	 eax, DWORD PTR [ebx+180]
  00218	83 f8 01	 cmp	 eax, 1
  0021b	74 0a		 je	 SHORT $LN37@MakeChtBoj
  0021d	83 f8 02	 cmp	 eax, 2
  00220	74 05		 je	 SHORT $LN37@MakeChtBoj
  00222	83 f8 03	 cmp	 eax, 3
  00225	75 7a		 jne	 SHORT $LN17@MakeChtBoj
$LN37@MakeChtBoj:
; File C:\Program Files (x86)\Microsoft Visual Studio\2019\Community\VC\Tools\MSVC\14.29.30133\atlmfc\include\atlsimpstr.h

; 533  : 		return( GetLength() == 0 );

  00227	8b 43 40	 mov	 eax, DWORD PTR [ebx+64]
  0022a	83 78 f4 00	 cmp	 DWORD PTR [eax-12], 0
; File D:\git\src\IBK\IBK_DRFN\ProjSrc\SrcDrfn\DrCommon\PartnerMng\_ChartBozoManager.cpp

; 1440 :         if (bMarket && pChartBInput->m_sStartTime.IsEmpty()==FALSE)

  0022e	74 71		 je	 SHORT $LN17@MakeChtBoj

; 1441 :         {
; 1442 :             sprintf(lsRelpsa, "RELPSA=%.6s:%.6s", 

  00230	8d 43 68	 lea	 eax, DWORD PTR [ebx+104]
  00233	50		 push	 eax
  00234	ff 73 40	 push	 DWORD PTR [ebx+64]
  00237	8d 85 7c ff ff
	ff		 lea	 eax, DWORD PTR _lsRelpsa$[ebp]
  0023d	68 00 00 00 00	 push	 OFFSET ??_C@_0BB@BNNNBIJD@RELPSA?$DN?$CF?46s?3?$CF?46s@
  00242	50		 push	 eax
  00243	e8 00 00 00 00	 call	 _sprintf
  00248	83 c4 10	 add	 esp, 16			; 00000010H

; 1443 : 				pChartBInput->m_sStartTime, 
; 1444 : 				pChartBInput->sShcode);
; 1445 :            	
; 1446 : 			if(pChartBInput->nPacketType==1)

  0024b	8d 8d 34 f9 ff
	ff		 lea	 ecx, DWORD PTR _strPacketTime$[ebp]
  00251	83 bb bc 00 00
	00 01		 cmp	 DWORD PTR [ebx+188], 1
  00258	75 07		 jne	 SHORT $LN19@MakeChtBoj

; 1447 : 				strPacketTime = "YYYYMMDD";

  0025a	68 00 00 00 00	 push	 OFFSET ??_C@_08DKDJLCMP@YYYYMMDD@
  0025f	eb 05		 jmp	 SHORT $LN70@MakeChtBoj
$LN19@MakeChtBoj:

; 1448 : 			else
; 1449 : 				strPacketTime = "YYYYMMDDHHMMSS";

  00261	68 00 00 00 00	 push	 OFFSET ??_C@_0P@IMPIBBAB@YYYYMMDDHHMMSS@
$LN70@MakeChtBoj:

; 1450 : 
; 1451 : 			sprintf(lsBojo, "####UM=%c@UD=1@RDATET=%s@RESETUSEREAL=1@%s@%s@CB=_Close_:0|@SCD=%s@",

  00266	ff 15 00 00 00
	00		 call	 DWORD PTR __imp_??4?$CStringT@DV?$StrTraitMFC_DLL@DV?$ChTraitsCRT@D@ATL@@@@@ATL@@QAEAAV01@PBD@Z
  0026c	ff 73 44	 push	 DWORD PTR [ebx+68]
  0026f	8d 85 7c ff ff
	ff		 lea	 eax, DWORD PTR _lsRelpsa$[ebp]
  00275	50		 push	 eax
  00276	8d 85 5c fc ff
	ff		 lea	 eax, DWORD PTR _lsBMrk$[ebp]
  0027c	50		 push	 eax
  0027d	ff b5 34 f9 ff
	ff		 push	 DWORD PTR _strPacketTime$[ebp]
  00283	33 c0		 xor	 eax, eax
  00285	80 bd 3b f9 ff
	ff 31		 cmp	 BYTE PTR tv544[ebp], 49	; 00000031H
  0028c	0f 95 c0	 setne	 al
  0028f	8d 04 85 41 00
	00 00		 lea	 eax, DWORD PTR [eax*4+65]
  00296	50		 push	 eax
  00297	68 00 00 00 00	 push	 OFFSET ??_C@_0EE@OICAFPDE@?$CD?$CD?$CD?$CDUM?$DN?$CFc?$EAUD?$DN1?$EARDATET?$DN?$CFs?$EARESETU@

; 1452 : 				lcChtAE, strPacketTime, lsBMrk, lsRelpsa, pChartBInput->m_sFirstClose);
; 1453 :         }

  0029c	e9 70 01 00 00	 jmp	 $LN68@MakeChtBoj
$LN17@MakeChtBoj:

; 1454 : 		else
; 1455 :         {
; 1456 : 			if(pChartBInput->nPacketType==1)

  002a1	83 bb bc 00 00
	00 01		 cmp	 DWORD PTR [ebx+188], 1
  002a8	8d 8d 34 f9 ff
	ff		 lea	 ecx, DWORD PTR _strPacketTime$[ebp]
  002ae	75 07		 jne	 SHORT $LN21@MakeChtBoj

; 1457 : 				strPacketTime = "YYYYMMDD";

  002b0	68 00 00 00 00	 push	 OFFSET ??_C@_08DKDJLCMP@YYYYMMDD@
  002b5	eb 05		 jmp	 SHORT $LN71@MakeChtBoj
$LN21@MakeChtBoj:

; 1458 : 			else
; 1459 : 				strPacketTime = "YYYYMMDDHHMMSS";

  002b7	68 00 00 00 00	 push	 OFFSET ??_C@_0P@IMPIBBAB@YYYYMMDDHHMMSS@
$LN71@MakeChtBoj:

; 1460 : 
; 1461 : 			sprintf(lsBojo, "####UM=%c@UD=1@RDATET=%s@RESETUSEREAL=1@%s@@CB=_Close_:0|@SCD=%s@",

  002bc	ff 15 00 00 00
	00		 call	 DWORD PTR __imp_??4?$CStringT@DV?$StrTraitMFC_DLL@DV?$ChTraitsCRT@D@ATL@@@@@ATL@@QAEAAV01@PBD@Z
  002c2	ff 73 44	 push	 DWORD PTR [ebx+68]
  002c5	8d 85 5c fc ff
	ff		 lea	 eax, DWORD PTR _lsBMrk$[ebp]
  002cb	50		 push	 eax
  002cc	ff b5 34 f9 ff
	ff		 push	 DWORD PTR _strPacketTime$[ebp]
  002d2	33 c0		 xor	 eax, eax
  002d4	80 bd 3b f9 ff
	ff 31		 cmp	 BYTE PTR tv544[ebp], 49	; 00000031H
  002db	0f 95 c0	 setne	 al
  002de	8d 04 85 41 00
	00 00		 lea	 eax, DWORD PTR [eax*4+65]
  002e5	50		 push	 eax
  002e6	8d 85 3c f9 ff
	ff		 lea	 eax, DWORD PTR _lsBojo$[ebp]
  002ec	68 00 00 00 00	 push	 OFFSET ??_C@_0EC@JMKCPHNL@?$CD?$CD?$CD?$CDUM?$DN?$CFc?$EAUD?$DN1?$EARDATET?$DN?$CFs?$EARESETU@
  002f1	50		 push	 eax
  002f2	e8 00 00 00 00	 call	 _sprintf
  002f7	83 c4 18	 add	 esp, 24			; 00000018H

; 1462 : 				lcChtAE, strPacketTime, lsBMrk, pChartBInput->m_sFirstClose);
; 1463 :         }
; 1464 : 
; 1465 : 	}

  002fa	e9 21 01 00 00	 jmp	 $LN31@MakeChtBoj
$LN15@MakeChtBoj:

; 1466 : 	else if (pChartBInput->sTerm[0] == '3')

  002ff	3c 33		 cmp	 al, 51			; 00000033H
  00301	75 5e		 jne	 SHORT $LN23@MakeChtBoj

; 1467 : 	{
; 1468 : 		//  
; 1469 : 		if(pChartBInput->nPacketType==1)

  00303	83 bb bc 00 00
	00 01		 cmp	 DWORD PTR [ebx+188], 1
  0030a	8d 8d 34 f9 ff
	ff		 lea	 ecx, DWORD PTR _strPacketTime$[ebp]
  00310	75 07		 jne	 SHORT $LN25@MakeChtBoj

; 1470 : 			strPacketTime = "YYYYMMDD";

  00312	68 00 00 00 00	 push	 OFFSET ??_C@_08DKDJLCMP@YYYYMMDD@
  00317	eb 05		 jmp	 SHORT $LN72@MakeChtBoj
$LN25@MakeChtBoj:

; 1471 : 		else
; 1472 : 			strPacketTime = "YYYYMMDDHHMMSS";

  00319	68 00 00 00 00	 push	 OFFSET ??_C@_0P@IMPIBBAB@YYYYMMDDHHMMSS@
$LN72@MakeChtBoj:

; 1473 : 
; 1474 : 		sprintf(lsBojo, "####UM=%c@UD=2@RDATET=%s@RESETUSEREAL=1@%s@@CB=_Close_:0|@SCD=%s@",

  0031e	ff 15 00 00 00
	00		 call	 DWORD PTR __imp_??4?$CStringT@DV?$StrTraitMFC_DLL@DV?$ChTraitsCRT@D@ATL@@@@@ATL@@QAEAAV01@PBD@Z
  00324	ff 73 44	 push	 DWORD PTR [ebx+68]
  00327	8d 85 5c fc ff
	ff		 lea	 eax, DWORD PTR _lsBMrk$[ebp]
  0032d	50		 push	 eax
  0032e	ff b5 34 f9 ff
	ff		 push	 DWORD PTR _strPacketTime$[ebp]
  00334	33 c0		 xor	 eax, eax
  00336	80 bd 3b f9 ff
	ff 31		 cmp	 BYTE PTR tv544[ebp], 49	; 00000031H
  0033d	0f 95 c0	 setne	 al
  00340	8d 04 85 41 00
	00 00		 lea	 eax, DWORD PTR [eax*4+65]
  00347	50		 push	 eax
  00348	8d 85 3c f9 ff
	ff		 lea	 eax, DWORD PTR _lsBojo$[ebp]
  0034e	68 00 00 00 00	 push	 OFFSET ??_C@_0EC@BPMLCHBI@?$CD?$CD?$CD?$CDUM?$DN?$CFc?$EAUD?$DN2?$EARDATET?$DN?$CFs?$EARESETU@
  00353	50		 push	 eax
  00354	e8 00 00 00 00	 call	 _sprintf
  00359	83 c4 18	 add	 esp, 24			; 00000018H

; 1475 : 		lcChtAE, strPacketTime, lsBMrk, pChartBInput->m_sFirstClose);
; 1476 : 	}

  0035c	e9 bf 00 00 00	 jmp	 $LN31@MakeChtBoj
$LN23@MakeChtBoj:

; 1477 : 	else if (pChartBInput->sTerm[0] == '4')

  00361	3c 34		 cmp	 al, 52			; 00000034H
  00363	75 5b		 jne	 SHORT $LN27@MakeChtBoj

; 1478 : 	{
; 1479 : 		//  
; 1480 : 		if(pChartBInput->nPacketType==1)

  00365	83 bb bc 00 00
	00 01		 cmp	 DWORD PTR [ebx+188], 1
  0036c	8d 8d 34 f9 ff
	ff		 lea	 ecx, DWORD PTR _strPacketTime$[ebp]
  00372	75 07		 jne	 SHORT $LN29@MakeChtBoj

; 1481 : 			strPacketTime = "YYYYMM";

  00374	68 00 00 00 00	 push	 OFFSET ??_C@_06EBMMBHJD@YYYYMM@
  00379	eb 05		 jmp	 SHORT $LN73@MakeChtBoj
$LN29@MakeChtBoj:

; 1482 : 		else
; 1483 : 			strPacketTime = "YYYYMMDDHHMMSS";

  0037b	68 00 00 00 00	 push	 OFFSET ??_C@_0P@IMPIBBAB@YYYYMMDDHHMMSS@
$LN73@MakeChtBoj:

; 1484 : 
; 1485 : 		sprintf(lsBojo, "####UM=%c@UD=3@RDATET=%s@RESETUSEREAL=1@%s@@CB=_Close_:0|@SCD=%s@",

  00380	ff 15 00 00 00
	00		 call	 DWORD PTR __imp_??4?$CStringT@DV?$StrTraitMFC_DLL@DV?$ChTraitsCRT@D@ATL@@@@@ATL@@QAEAAV01@PBD@Z
  00386	ff 73 44	 push	 DWORD PTR [ebx+68]
  00389	8d 85 5c fc ff
	ff		 lea	 eax, DWORD PTR _lsBMrk$[ebp]
  0038f	50		 push	 eax
  00390	ff b5 34 f9 ff
	ff		 push	 DWORD PTR _strPacketTime$[ebp]
  00396	33 c0		 xor	 eax, eax
  00398	80 bd 3b f9 ff
	ff 31		 cmp	 BYTE PTR tv544[ebp], 49	; 00000031H
  0039f	0f 95 c0	 setne	 al
  003a2	8d 04 85 41 00
	00 00		 lea	 eax, DWORD PTR [eax*4+65]
  003a9	50		 push	 eax
  003aa	8d 85 3c f9 ff
	ff		 lea	 eax, DWORD PTR _lsBojo$[ebp]
  003b0	68 00 00 00 00	 push	 OFFSET ??_C@_0EC@GBBDJHFJ@?$CD?$CD?$CD?$CDUM?$DN?$CFc?$EAUD?$DN3?$EARDATET?$DN?$CFs?$EARESETU@
  003b5	50		 push	 eax
  003b6	e8 00 00 00 00	 call	 _sprintf
  003bb	83 c4 18	 add	 esp, 24			; 00000018H

; 1486 : 		lcChtAE, strPacketTime, lsBMrk, pChartBInput->m_sFirstClose);
; 1487 : 	}

  003be	eb 60		 jmp	 SHORT $LN31@MakeChtBoj
$LN27@MakeChtBoj:

; 1488 : 	else if (pChartBInput->sTerm[0] == '6')

  003c0	3c 36		 cmp	 al, 54			; 00000036H
  003c2	75 5c		 jne	 SHORT $LN31@MakeChtBoj

; 1489 : 	{
; 1490 : 		//  
; 1491 : 		if(pChartBInput->nPacketType==1)

  003c4	83 bb bc 00 00
	00 01		 cmp	 DWORD PTR [ebx+188], 1
  003cb	8d 8d 34 f9 ff
	ff		 lea	 ecx, DWORD PTR _strPacketTime$[ebp]
  003d1	75 07		 jne	 SHORT $LN13@MakeChtBoj

; 1492 : 			strPacketTime = "DDHHMMSS";

  003d3	68 00 00 00 00	 push	 OFFSET ??_C@_08JFMBEEDE@DDHHMMSS@
  003d8	eb 05		 jmp	 SHORT $LN69@MakeChtBoj
$LN13@MakeChtBoj:

; 1493 : 		else
; 1494 : 			strPacketTime = "YYYYMMDDHHMMSS";
; 1495 : 
; 1496 : 		sprintf(lsBojo, "####UM=%c@UD=4@UT=%ld@RDATET=%s@RESETUSEREAL=1@%s@CB=_Close_:0|@SCD=%s@",
; 1497 : 	       	lcChtAE, pChartBInput->lTick, strPacketTime, lsBMrk, pChartBInput->m_sFirstClose);
; 1498 : 	}
; 1499 : 
; 1500 : 	
; 1501 : 
; 1502 : 	rString = lsBojo;

  003da	68 00 00 00 00	 push	 OFFSET ??_C@_0P@IMPIBBAB@YYYYMMDDHHMMSS@
$LN69@MakeChtBoj:
  003df	ff 15 00 00 00
	00		 call	 DWORD PTR __imp_??4?$CStringT@DV?$StrTraitMFC_DLL@DV?$ChTraitsCRT@D@ATL@@@@@ATL@@QAEAAV01@PBD@Z
  003e5	ff 73 44	 push	 DWORD PTR [ebx+68]
  003e8	8d 85 5c fc ff
	ff		 lea	 eax, DWORD PTR _lsBMrk$[ebp]
  003ee	50		 push	 eax
  003ef	ff b5 34 f9 ff
	ff		 push	 DWORD PTR _strPacketTime$[ebp]
  003f5	33 c0		 xor	 eax, eax
  003f7	80 bd 3b f9 ff
	ff 31		 cmp	 BYTE PTR tv544[ebp], 49	; 00000031H
  003fe	ff 73 78	 push	 DWORD PTR [ebx+120]
  00401	0f 95 c0	 setne	 al
  00404	8d 04 85 41 00
	00 00		 lea	 eax, DWORD PTR [eax*4+65]
  0040b	50		 push	 eax
  0040c	68 00 00 00 00	 push	 OFFSET ??_C@_0EI@CHDPKFPB@?$CD?$CD?$CD?$CDUM?$DN?$CFc?$EAUD?$DN4?$EAUT?$DN?$CFld?$EARDATET?$DN?$CFs@
$LN68@MakeChtBoj:
  00411	8d 85 3c f9 ff
	ff		 lea	 eax, DWORD PTR _lsBojo$[ebp]
  00417	50		 push	 eax
  00418	e8 00 00 00 00	 call	 _sprintf
  0041d	83 c4 1c	 add	 esp, 28			; 0000001cH
$LN31@MakeChtBoj:
  00420	8d 85 3c f9 ff
	ff		 lea	 eax, DWORD PTR _lsBojo$[ebp]
  00426	8b ce		 mov	 ecx, esi
  00428	50		 push	 eax
  00429	ff 15 00 00 00
	00		 call	 DWORD PTR __imp_??4?$CStringT@DV?$StrTraitMFC_DLL@DV?$ChTraitsCRT@D@ATL@@@@@ATL@@QAEAAV01@PBD@Z

; 1503 : 
; 1504 : 	CString szTmpExt;

  0042f	8d 8d 30 f9 ff
	ff		 lea	 ecx, DWORD PTR _szTmpExt$[ebp]
  00435	ff 15 00 00 00
	00		 call	 DWORD PTR __imp_??0?$CStringT@DV?$StrTraitMFC_DLL@DV?$ChTraitsCRT@D@ATL@@@@@ATL@@QAE@XZ
; File C:\Program Files (x86)\Microsoft Visual Studio\2019\Community\VC\Tools\MSVC\14.29.30133\atlmfc\include\atlsimpstr.h

; 533  : 		return( GetLength() == 0 );

  0043b	8b 43 60	 mov	 eax, DWORD PTR [ebx+96]
; File D:\git\src\IBK\IBK_DRFN\ProjSrc\SrcDrfn\DrCommon\PartnerMng\_ChartBozoManager.cpp

; 1505 : 	if(pChartBInput->m_szMarketTime.IsEmpty()==FALSE)

  0043e	8b 3d 00 00 00
	00		 mov	 edi, DWORD PTR __imp_?Format@?$CStringT@DV?$StrTraitMFC_DLL@DV?$ChTraitsCRT@D@ATL@@@@@ATL@@QAAXPBDZZ
; File C:\Program Files (x86)\Microsoft Visual Studio\2019\Community\VC\Tools\MSVC\14.29.30133\atlmfc\include\atlsimpstr.h

; 533  : 		return( GetLength() == 0 );

  00444	83 78 f4 00	 cmp	 DWORD PTR [eax-12], 0
; File D:\git\src\IBK\IBK_DRFN\ProjSrc\SrcDrfn\DrCommon\PartnerMng\_ChartBozoManager.cpp

; 1505 : 	if(pChartBInput->m_szMarketTime.IsEmpty()==FALSE)

  00448	74 21		 je	 SHORT $LN34@MakeChtBoj

; 1506 : 	{
; 1507 : 		szTmpExt.Format("MARKETTIME=%s@", pChartBInput->m_szMarketTime);

  0044a	50		 push	 eax
  0044b	8d 85 30 f9 ff
	ff		 lea	 eax, DWORD PTR _szTmpExt$[ebp]
  00451	68 00 00 00 00	 push	 OFFSET ??_C@_0P@PGBOBNFI@MARKETTIME?$DN?$CFs?$EA@
  00456	50		 push	 eax
  00457	ff d7		 call	 edi
  00459	83 c4 0c	 add	 esp, 12			; 0000000cH

; 1508 : 		rString += szTmpExt;

  0045c	8d 85 30 f9 ff
	ff		 lea	 eax, DWORD PTR _szTmpExt$[ebp]
  00462	8b ce		 mov	 ecx, esi
  00464	50		 push	 eax
  00465	ff 15 00 00 00
	00		 call	 DWORD PTR __imp_??Y?$CStringT@DV?$StrTraitMFC_DLL@DV?$ChTraitsCRT@D@ATL@@@@@ATL@@QAEAAV01@ABV?$CSimpleStringT@D$00@1@@Z
$LN34@MakeChtBoj:
; File C:\Program Files (x86)\Microsoft Visual Studio\2019\Community\VC\Tools\MSVC\14.29.30133\atlmfc\include\atlsimpstr.h

; 533  : 		return( GetLength() == 0 );

  0046b	8b 43 64	 mov	 eax, DWORD PTR [ebx+100]
  0046e	83 78 f4 00	 cmp	 DWORD PTR [eax-12], 0
; File D:\git\src\IBK\IBK_DRFN\ProjSrc\SrcDrfn\DrCommon\PartnerMng\_ChartBozoManager.cpp

; 1511 : 	if(pChartBInput->m_szBaseTime.IsEmpty()==FALSE)

  00472	74 21		 je	 SHORT $LN35@MakeChtBoj

; 1512 : 	{
; 1513 : 		szTmpExt.Format("BASETIME=%s@", pChartBInput->m_szBaseTime);

  00474	50		 push	 eax
  00475	8d 85 30 f9 ff
	ff		 lea	 eax, DWORD PTR _szTmpExt$[ebp]
  0047b	68 00 00 00 00	 push	 OFFSET ??_C@_0N@BEOFONCO@BASETIME?$DN?$CFs?$EA@
  00480	50		 push	 eax
  00481	ff d7		 call	 edi
  00483	83 c4 0c	 add	 esp, 12			; 0000000cH

; 1514 : 		rString += szTmpExt;		

  00486	8d 85 30 f9 ff
	ff		 lea	 eax, DWORD PTR _szTmpExt$[ebp]
  0048c	8b ce		 mov	 ecx, esi
  0048e	50		 push	 eax
  0048f	ff 15 00 00 00
	00		 call	 DWORD PTR __imp_??Y?$CStringT@DV?$StrTraitMFC_DLL@DV?$ChTraitsCRT@D@ATL@@@@@ATL@@QAEAAV01@ABV?$CSimpleStringT@D$00@1@@Z
$LN35@MakeChtBoj:

; 1515 : 	}
; 1516 : 
; 1517 : 	// 20130222  :      .(   )
; 1518 : 	szTmpExt.Format("DATATIME=%s@", pChartBInput->m_sLastDataTime);

  00495	ff b3 c0 00 00
	00		 push	 DWORD PTR [ebx+192]
  0049b	8d 85 30 f9 ff
	ff		 lea	 eax, DWORD PTR _szTmpExt$[ebp]
  004a1	68 00 00 00 00	 push	 OFFSET ??_C@_0N@JENAIHAK@DATATIME?$DN?$CFs?$EA@
  004a6	50		 push	 eax
  004a7	ff d7		 call	 edi
  004a9	83 c4 0c	 add	 esp, 12			; 0000000cH

; 1519 : 	rString += szTmpExt;		

  004ac	8d 85 30 f9 ff
	ff		 lea	 eax, DWORD PTR _szTmpExt$[ebp]
  004b2	8b ce		 mov	 ecx, esi
  004b4	50		 push	 eax
  004b5	ff 15 00 00 00
	00		 call	 DWORD PTR __imp_??Y?$CStringT@DV?$StrTraitMFC_DLL@DV?$ChTraitsCRT@D@ATL@@@@@ATL@@QAEAAV01@ABV?$CSimpleStringT@D$00@1@@Z
; File C:\Program Files (x86)\Microsoft Visual Studio\2019\Community\VC\Tools\MSVC\14.29.30133\atlmfc\include\atlsimpstr.h

; 519  : 		return( GetData()->nDataLength );

  004bb	8b 06		 mov	 eax, DWORD PTR [esi]
; File D:\git\src\IBK\IBK_DRFN\ProjSrc\SrcDrfn\DrCommon\PartnerMng\_ChartBozoManager.cpp

; 1521 :     return rString.GetLength();

  004bd	8d 8d 30 f9 ff
	ff		 lea	 ecx, DWORD PTR _szTmpExt$[ebp]
; File C:\Program Files (x86)\Microsoft Visual Studio\2019\Community\VC\Tools\MSVC\14.29.30133\atlmfc\include\atlsimpstr.h

; 519  : 		return( GetData()->nDataLength );

  004c3	8b 70 f4	 mov	 esi, DWORD PTR [eax-12]
; File D:\git\src\IBK\IBK_DRFN\ProjSrc\SrcDrfn\DrCommon\PartnerMng\_ChartBozoManager.cpp

; 1521 :     return rString.GetLength();

  004c6	ff 15 00 00 00
	00		 call	 DWORD PTR __imp_??1?$CStringT@DV?$StrTraitMFC_DLL@DV?$ChTraitsCRT@D@ATL@@@@@ATL@@QAE@XZ
  004cc	8d 8d 34 f9 ff
	ff		 lea	 ecx, DWORD PTR _strPacketTime$[ebp]
  004d2	ff 15 00 00 00
	00		 call	 DWORD PTR __imp_??1?$CStringT@DV?$StrTraitMFC_DLL@DV?$ChTraitsCRT@D@ATL@@@@@ATL@@QAE@XZ

; 1522 : }

  004d8	8b 4d fc	 mov	 ecx, DWORD PTR __$ArrayPad$[ebp]
  004db	8b c6		 mov	 eax, esi
  004dd	5f		 pop	 edi
  004de	5e		 pop	 esi
  004df	33 cd		 xor	 ecx, ebp
  004e1	5b		 pop	 ebx
  004e2	e8 00 00 00 00	 call	 @__security_check_cookie@4
  004e7	8b e5		 mov	 esp, ebp
  004e9	5d		 pop	 ebp
  004ea	c2 10 00	 ret	 16			; 00000010H
?MakeChtBojo_ctcme@CChartBozoManager@@UAGHPAVCChartBozoInput@@AAV?$CStringT@DV?$StrTraitMFC_DLL@DV?$ChTraitsCRT@D@ATL@@@@@ATL@@H@Z ENDP ; CChartBozoManager::MakeChtBojo_ctcme
_TEXT	ENDS
; Function compile flags: /Ogtp
; File D:\git\src\IBK\IBK_DRFN\ProjSrc\SrcDrfn\DrCommon\PartnerMng\_ChartBozoManager.cpp
; File C:\Program Files (x86)\Microsoft Visual Studio\2019\Community\VC\Tools\MSVC\14.29.30133\atlmfc\include\atlsimpstr.h
; File D:\git\src\IBK\IBK_DRFN\ProjSrc\SrcDrfn\DrCommon\PartnerMng\_ChartBozoManager.cpp
; File C:\Program Files (x86)\Microsoft Visual Studio\2019\Community\VC\Tools\MSVC\14.29.30133\atlmfc\include\atlsimpstr.h
; File D:\git\src\IBK\IBK_DRFN\ProjSrc\SrcDrfn\DrCommon\PartnerMng\_ChartBozoManager.cpp
; File C:\Program Files (x86)\Microsoft Visual Studio\2019\Community\VC\Tools\MSVC\14.29.30133\atlmfc\include\atlsimpstr.h
; File D:\git\src\IBK\IBK_DRFN\ProjSrc\SrcDrfn\DrCommon\PartnerMng\_ChartBozoManager.cpp
;	COMDAT ?MakeChtBojo_ctfx@CChartBozoManager@@UAGHPAVCChartBozoInput@@AAV?$CStringT@DV?$StrTraitMFC_DLL@DV?$ChTraitsCRT@D@ATL@@@@@ATL@@H@Z
_TEXT	SEGMENT
_rString$GSCopy$1$ = -1756				; size = 4
_szTmpExt$ = -1752					; size = 4
_strPacketType$1 = -1748				; size = 4
_strBMsg$2 = -1744					; size = 4
_strPacketTime$ = -1740					; size = 4
tv482 = -1733						; size = 1
_lsBojo$ = -1732					; size = 800
_lsBMrk$ = -932						; size = 800
_lsRelpsa$ = -132					; size = 128
__$ArrayPad$ = -4					; size = 4
_this$ = 8						; size = 4
_pChartBInput$ = 12					; size = 4
_rString$ = 16						; size = 4
_nOption$ = 20						; size = 4
?MakeChtBojo_ctfx@CChartBozoManager@@UAGHPAVCChartBozoInput@@AAV?$CStringT@DV?$StrTraitMFC_DLL@DV?$ChTraitsCRT@D@ATL@@@@@ATL@@H@Z PROC ; CChartBozoManager::MakeChtBojo_ctfx, COMDAT

; 1188 : {

  00000	55		 push	 ebp
  00001	8b ec		 mov	 ebp, esp
  00003	81 ec dc 06 00
	00		 sub	 esp, 1756		; 000006dcH
  00009	a1 00 00 00 00	 mov	 eax, DWORD PTR ___security_cookie
  0000e	33 c5		 xor	 eax, ebp
  00010	89 45 fc	 mov	 DWORD PTR __$ArrayPad$[ebp], eax
  00013	8b 45 10	 mov	 eax, DWORD PTR _rString$[ebp]
  00016	53		 push	 ebx
  00017	8b 5d 0c	 mov	 ebx, DWORD PTR _pChartBInput$[ebp]
  0001a	56		 push	 esi
  0001b	57		 push	 edi

; 1189 : 	char    lsBMrk[800], lsBojo[800], lsRelpsa[128], lcChtAE;
; 1190 : 	long    lsrecprice=0;
; 1191 : 
; 1192 :     memset(lsBMrk      , 0x20, sizeof(lsBMrk      ));

  0001c	68 20 03 00 00	 push	 800			; 00000320H
  00021	89 85 24 f9 ff
	ff		 mov	 DWORD PTR _rString$GSCopy$1$[ebp], eax
  00027	8d 85 5c fc ff
	ff		 lea	 eax, DWORD PTR _lsBMrk$[ebp]
  0002d	6a 20		 push	 32			; 00000020H
  0002f	50		 push	 eax
  00030	e8 00 00 00 00	 call	 _memset

; 1193 :     memset(lsBojo      , 0x20, sizeof(lsBojo      ));

  00035	68 20 03 00 00	 push	 800			; 00000320H
  0003a	8d 85 3c f9 ff
	ff		 lea	 eax, DWORD PTR _lsBojo$[ebp]
  00040	6a 20		 push	 32			; 00000020H
  00042	50		 push	 eax
  00043	e8 00 00 00 00	 call	 _memset

; 1194 :     memset(lsRelpsa    , 0x20, sizeof(lsRelpsa    ));

  00048	68 80 00 00 00	 push	 128			; 00000080H
  0004d	8d 85 7c ff ff
	ff		 lea	 eax, DWORD PTR _lsRelpsa$[ebp]
  00053	6a 20		 push	 32			; 00000020H
  00055	50		 push	 eax
  00056	e8 00 00 00 00	 call	 _memset

; 1195 : 
; 1196 : 	if (pChartBInput->sNxtFlg[0] == '1')	lcChtAE = 'A';

  0005b	8a 43 7d	 mov	 al, BYTE PTR [ebx+125]
  0005e	83 c4 24	 add	 esp, 36			; 00000024H

; 1197 : 	else									lcChtAE = 'E';
; 1198 : 
; 1199 : 	if(pChartBInput->sDataType[0] == '5') lsrecprice = 0;

  00061	80 7b 7e 35	 cmp	 BYTE PTR [ebx+126], 53	; 00000035H
  00065	88 85 3b f9 ff
	ff		 mov	 BYTE PTR tv482[ebp], al
  0006b	75 04		 jne	 SHORT $LN4@MakeChtBoj
  0006d	33 c0		 xor	 eax, eax
  0006f	eb 06		 jmp	 SHORT $LN5@MakeChtBoj
$LN4@MakeChtBoj:

; 1200 : 	else	 lsrecprice   = pChartBInput->lPrice;

  00071	8b 83 80 00 00
	00		 mov	 eax, DWORD PTR [ebx+128]
$LN5@MakeChtBoj:

; 1201 : 
; 1202 : 	pChartBInput->nMarket = 1; //    .
; 1203 : 
; 1204 : 	//	 : 0-, 1-, 2-, 3-, 4-_Open_
; 1205 : //	if(pChartBInput->sDataType[0] == '0')
; 1206 : 	{
; 1207 : 		sprintf(lsBMrk, "BOUNDMARK=:%ld,%ld:%.6s:1:%ld:%c@PREVPRICE=_Close_:%s@OHL=:%s:%s:%s@PREVPRICE2=%s:%s:%s:%s@",

  00077	ff 73 50	 push	 DWORD PTR [ebx+80]
  0007a	8d 7b 68	 lea	 edi, DWORD PTR [ebx+104]
  0007d	c7 83 b4 00 00
	00 01 00 00 00	 mov	 DWORD PTR [ebx+180], 1
  00087	ff 73 38	 push	 DWORD PTR [ebx+56]
  0008a	ff 73 48	 push	 DWORD PTR [ebx+72]
  0008d	ff 73 4c	 push	 DWORD PTR [ebx+76]
  00090	ff 73 34	 push	 DWORD PTR [ebx+52]
  00093	ff 73 30	 push	 DWORD PTR [ebx+48]
  00096	ff 73 2c	 push	 DWORD PTR [ebx+44]
  00099	ff 73 38	 push	 DWORD PTR [ebx+56]
  0009c	6a 31		 push	 49			; 00000031H
  0009e	50		 push	 eax
  0009f	57		 push	 edi
  000a0	ff b3 8c 00 00
	00		 push	 DWORD PTR [ebx+140]
  000a6	8d 85 5c fc ff
	ff		 lea	 eax, DWORD PTR _lsBMrk$[ebp]
  000ac	ff b3 88 00 00
	00		 push	 DWORD PTR [ebx+136]
  000b2	68 00 00 00 00	 push	 OFFSET ??_C@_0GE@JIELKBPF@BOUNDMARK?$DN?$LA?$KB?$LA?$NN?B?w?F?$KO?3?$CFld?0?$CFld?3?$CF?46s@
  000b7	50		 push	 eax
  000b8	e8 00 00 00 00	 call	 _sprintf

; 1208 : 			//>>
; 1209 : 			pChartBInput->lUpLmtPrice, 
; 1210 : 			pChartBInput->lDnLmtPrice, 
; 1211 : 			pChartBInput->sShcode, 
; 1212 : 			lsrecprice,
; 1213 : 			'1', 
; 1214 : 			pChartBInput->m_sPreprice, //JS.Kim  StandartValue   y    
; 1215 : 			pChartBInput->m_sOpen, pChartBInput->m_sHigh, pChartBInput->m_sLow,
; 1216 : 						pChartBInput->m_sPreHigh, pChartBInput->m_sPreOpen, pChartBInput->m_sPreprice, pChartBInput->m_sPreLow);
; 1217 : 
; 1218 : 		if( nOption > 1 )

  000bd	8b 75 14	 mov	 esi, DWORD PTR _nOption$[ebp]
  000c0	83 c4 3c	 add	 esp, 60			; 0000003cH
  000c3	83 fe 01	 cmp	 esi, 1
  000c6	0f 8e b9 00 00
	00		 jle	 $LN6@MakeChtBoj

; 1219 : 		{
; 1220 : 			CString strPacketType;

  000cc	8d 8d 2c f9 ff
	ff		 lea	 ecx, DWORD PTR _strPacketType$1[ebp]
  000d2	ff 15 00 00 00
	00		 call	 DWORD PTR __imp_??0?$CStringT@DV?$StrTraitMFC_DLL@DV?$ChTraitsCRT@D@ATL@@@@@ATL@@QAE@XZ

; 1221 : 			strPacketType.Format("x %.*f", (int)log10(nOption), (double)1/(double)nOption); 

  000d8	f2 0f 10 0d 00
	00 00 00	 movsd	 xmm1, QWORD PTR __real@3ff0000000000000
  000e0	83 ec 08	 sub	 esp, 8
  000e3	66 0f 6e c6	 movd	 xmm0, esi
  000e7	f3 0f e6 c0	 cvtdq2pd xmm0, xmm0
  000eb	f2 0f 5e c8	 divsd	 xmm1, xmm0
  000ef	f2 0f 11 0c 24	 movsd	 QWORD PTR [esp], xmm1
  000f4	e8 00 00 00 00	 call	 __libm_sse2_log10_precise
  000f9	8b 35 00 00 00
	00		 mov	 esi, DWORD PTR __imp_?Format@?$CStringT@DV?$StrTraitMFC_DLL@DV?$ChTraitsCRT@D@ATL@@@@@ATL@@QAAXPBDZZ
  000ff	f2 0f 2c c0	 cvttsd2si eax, xmm0
  00103	50		 push	 eax
  00104	8d 85 2c f9 ff
	ff		 lea	 eax, DWORD PTR _strPacketType$1[ebp]
  0010a	68 00 00 00 00	 push	 OFFSET ??_C@_06PFAJMMJF@x?5?$CF?4?$CKf@
  0010f	50		 push	 eax
  00110	ff d6		 call	 esi
  00112	83 c4 14	 add	 esp, 20			; 00000014H

; 1222 : 
; 1223 : 			CString strBMsg;

  00115	8d 8d 30 f9 ff
	ff		 lea	 ecx, DWORD PTR _strBMsg$2[ebp]
  0011b	ff 15 00 00 00
	00		 call	 DWORD PTR __imp_??0?$CStringT@DV?$StrTraitMFC_DLL@DV?$ChTraitsCRT@D@ATL@@@@@ATL@@QAE@XZ

; 1224 : 			strBMsg.Format("RESETPACKET=_Close_:10:%s|_Open_:10:%s|_High_:10:%s|_Low_:10:%s@", strPacketType, strPacketType, strPacketType, strPacketType);

  00121	8b 85 2c f9 ff
	ff		 mov	 eax, DWORD PTR _strPacketType$1[ebp]
  00127	50		 push	 eax
  00128	50		 push	 eax
  00129	50		 push	 eax
  0012a	50		 push	 eax
  0012b	8d 85 30 f9 ff
	ff		 lea	 eax, DWORD PTR _strBMsg$2[ebp]
  00131	68 00 00 00 00	 push	 OFFSET ??_C@_0EB@FAKBLPPL@RESETPACKET?$DN_Close_?310?3?$CFs?$HM_Open@
  00136	50		 push	 eax
  00137	ff d6		 call	 esi

; 1225 : 			strcat(lsBMrk, strBMsg);

  00139	8b 95 30 f9 ff
	ff		 mov	 edx, DWORD PTR _strBMsg$2[ebp]
  0013f	83 c4 18	 add	 esp, 24			; 00000018H
  00142	8b f2		 mov	 esi, edx
$LL50@MakeChtBoj:
  00144	8a 02		 mov	 al, BYTE PTR [edx]
  00146	42		 inc	 edx
  00147	84 c0		 test	 al, al
  00149	75 f9		 jne	 SHORT $LL50@MakeChtBoj
  0014b	8d bd 5c fc ff
	ff		 lea	 edi, DWORD PTR _lsBMrk$[ebp]
  00151	2b d6		 sub	 edx, esi
  00153	4f		 dec	 edi
$LL51@MakeChtBoj:
  00154	8a 47 01	 mov	 al, BYTE PTR [edi+1]
  00157	47		 inc	 edi
  00158	84 c0		 test	 al, al
  0015a	75 f8		 jne	 SHORT $LL51@MakeChtBoj
  0015c	8b ca		 mov	 ecx, edx
  0015e	c1 e9 02	 shr	 ecx, 2
  00161	f3 a5		 rep movsd
  00163	8b ca		 mov	 ecx, edx
  00165	83 e1 03	 and	 ecx, 3
  00168	f3 a4		 rep movsb

; 1226 : 		}

  0016a	8d 8d 30 f9 ff
	ff		 lea	 ecx, DWORD PTR _strBMsg$2[ebp]
  00170	ff 15 00 00 00
	00		 call	 DWORD PTR __imp_??1?$CStringT@DV?$StrTraitMFC_DLL@DV?$ChTraitsCRT@D@ATL@@@@@ATL@@QAE@XZ
  00176	8d 8d 2c f9 ff
	ff		 lea	 ecx, DWORD PTR _strPacketType$1[ebp]
  0017c	ff 15 00 00 00
	00		 call	 DWORD PTR __imp_??1?$CStringT@DV?$StrTraitMFC_DLL@DV?$ChTraitsCRT@D@ATL@@@@@ATL@@QAE@XZ
  00182	8d 7b 68	 lea	 edi, DWORD PTR [ebx+104]
$LN6@MakeChtBoj:

; 1227 : 	} 
; 1228 : 
; 1229 : //vntsorl_20110420:[A00000410]      
; 1230 : 	CString strPacketTime;

  00185	8d 8d 34 f9 ff
	ff		 lea	 ecx, DWORD PTR _strPacketTime$[ebp]
  0018b	ff 15 00 00 00
	00		 call	 DWORD PTR __imp_??0?$CStringT@DV?$StrTraitMFC_DLL@DV?$ChTraitsCRT@D@ATL@@@@@ATL@@QAE@XZ

; 1231 : 	//  
; 1232 : 	if 		(pChartBInput->sTerm[0] == '0')	//(0:/1:/2:/3:/4:/6:)

  00191	8a 43 7c	 mov	 al, BYTE PTR [ebx+124]
  00194	3c 30		 cmp	 al, 48			; 00000030H
  00196	75 52		 jne	 SHORT $LN7@MakeChtBoj

; 1233 : 	{
; 1234 : 		//  
; 1235 : 		// 2011.01.24 by SYS >>  YYYY()  : / 14Byte  (YYYYMMDDhhmmss)
; 1236 : 		//sprintf(lsBojo, "####UM=%c@UD=5@UT=%ld@RDATET=DDHHMMSS@RESETUSEREAL=1@%s@CB=_Close_:0|@SCD=%s@",
; 1237 : 		//sprintf(lsBojo, "####UM=%c@UD=5@UT=%ld@RDATET=YYYYMMDDHHMMSS@RESETUSEREAL=1@%s@CB=_Close_:0|@SCD=%s@",
; 1238 : 
; 1239 : 		if(pChartBInput->nPacketType==1)

  00198	83 bb bc 00 00
	00 01		 cmp	 DWORD PTR [ebx+188], 1
  0019f	8d 8d 34 f9 ff
	ff		 lea	 ecx, DWORD PTR _strPacketTime$[ebp]
  001a5	75 07		 jne	 SHORT $LN9@MakeChtBoj

; 1240 : 			strPacketTime = "DDHHMMSS";

  001a7	68 00 00 00 00	 push	 OFFSET ??_C@_08JFMBEEDE@DDHHMMSS@
  001ac	eb 05		 jmp	 SHORT $LN52@MakeChtBoj
$LN9@MakeChtBoj:

; 1241 : 		else
; 1242 : 			strPacketTime = "YYYYMMDDHHMMSS";

  001ae	68 00 00 00 00	 push	 OFFSET ??_C@_0P@IMPIBBAB@YYYYMMDDHHMMSS@
$LN52@MakeChtBoj:

; 1243 : 
; 1244 : 		sprintf(lsBojo, "####UM=%c@UD=5@UT=%ld@RDATET=%s@RESETUSEREAL=1@%s@CB=_Close_:0|@SCD=%s@",

  001b3	ff 15 00 00 00
	00		 call	 DWORD PTR __imp_??4?$CStringT@DV?$StrTraitMFC_DLL@DV?$ChTraitsCRT@D@ATL@@@@@ATL@@QAEAAV01@PBD@Z
  001b9	ff 73 44	 push	 DWORD PTR [ebx+68]
  001bc	8d 85 5c fc ff
	ff		 lea	 eax, DWORD PTR _lsBMrk$[ebp]
  001c2	50		 push	 eax
  001c3	ff b5 34 f9 ff
	ff		 push	 DWORD PTR _strPacketTime$[ebp]
  001c9	33 c0		 xor	 eax, eax
  001cb	80 bd 3b f9 ff
	ff 31		 cmp	 BYTE PTR tv482[ebp], 49	; 00000031H
  001d2	ff 73 78	 push	 DWORD PTR [ebx+120]
  001d5	0f 95 c0	 setne	 al
  001d8	8d 04 85 41 00
	00 00		 lea	 eax, DWORD PTR [eax*4+65]
  001df	50		 push	 eax
  001e0	68 00 00 00 00	 push	 OFFSET ??_C@_0EI@EOHDKAAA@?$CD?$CD?$CD?$CDUM?$DN?$CFc?$EAUD?$DN5?$EAUT?$DN?$CFld?$EARDATET?$DN?$CFs@

; 1245 : 		// 2011.01.24 by SYS <<
; 1246 : 	       	lcChtAE, pChartBInput->lTick, strPacketTime, lsBMrk, pChartBInput->m_sFirstClose);
; 1247 : 	}

  001e5	e9 23 02 00 00	 jmp	 $LN53@MakeChtBoj
$LN7@MakeChtBoj:

; 1248 : 	else if (pChartBInput->sTerm[0] == '1' )

  001ea	3c 31		 cmp	 al, 49			; 00000031H
  001ec	75 1d		 jne	 SHORT $LN11@MakeChtBoj

; 1249 : 	{
; 1250 : 		//  
; 1251 : 		// 2011.01.17 by SYS >>  YYYY()  : / 14Byte  (YYYYMMDDhhmmss)
; 1252 : 		//sprintf(lsBojo, "####UM=%c@UD=4@UT=%ld@RDATET=MMDDHHMM@RESETUSEREAL=1@%s@CB=_Close_:0|@SCD=%s@",
; 1253 : 		//sprintf(lsBojo, "####UM=%c@UD=4@UT=%ld@RDATET=YYYYMMDDHHMMSS@RESETUSEREAL=1@%s@CB=_Close_:0|@SCD=%s@",
; 1254 : 
; 1255 : 		if(pChartBInput->nPacketType==1)

  001ee	83 bb bc 00 00
	00 01		 cmp	 DWORD PTR [ebx+188], 1
  001f5	8d 8d 34 f9 ff
	ff		 lea	 ecx, DWORD PTR _strPacketTime$[ebp]
  001fb	0f 85 d5 01 00
	00		 jne	 $LN13@MakeChtBoj

; 1256 : 			strPacketTime = "MMDDHHMM";

  00201	68 00 00 00 00	 push	 OFFSET ??_C@_08KLIIINKM@MMDDHHMM@
  00206	e9 d0 01 00 00	 jmp	 $LN54@MakeChtBoj
$LN11@MakeChtBoj:

; 1257 : 		else
; 1258 : 			strPacketTime = "YYYYMMDDHHMMSS";
; 1259 : 
; 1260 : 		sprintf(lsBojo, "####UM=%c@UD=4@UT=%ld@RDATET=%s@RESETUSEREAL=1@%s@CB=_Close_:0|@SCD=%s@",
; 1261 : 		// 2011.01.17 by SYS <<
; 1262 : 	       	lcChtAE, pChartBInput->lTick, strPacketTime, lsBMrk, pChartBInput->m_sFirstClose);
; 1263 : 	}
; 1264 : 	else if (pChartBInput->sTerm[0] == '2')

  0020b	3c 32		 cmp	 al, 50			; 00000032H
  0020d	0f 85 e8 00 00
	00		 jne	 $LN15@MakeChtBoj

; 1265 : 	{
; 1266 : 		//  
; 1267 : 		BOOL bMarket = (pChartBInput->nMarket == 1 )|| 

  00213	8b 83 b4 00 00
	00		 mov	 eax, DWORD PTR [ebx+180]
  00219	83 f8 01	 cmp	 eax, 1
  0021c	74 0a		 je	 SHORT $LN35@MakeChtBoj
  0021e	83 f8 02	 cmp	 eax, 2
  00221	74 05		 je	 SHORT $LN35@MakeChtBoj
  00223	83 f8 03	 cmp	 eax, 3
  00226	75 75		 jne	 SHORT $LN17@MakeChtBoj
$LN35@MakeChtBoj:
; File C:\Program Files (x86)\Microsoft Visual Studio\2019\Community\VC\Tools\MSVC\14.29.30133\atlmfc\include\atlsimpstr.h

; 533  : 		return( GetLength() == 0 );

  00228	8b 43 40	 mov	 eax, DWORD PTR [ebx+64]
  0022b	83 78 f4 00	 cmp	 DWORD PTR [eax-12], 0
; File D:\git\src\IBK\IBK_DRFN\ProjSrc\SrcDrfn\DrCommon\PartnerMng\_ChartBozoManager.cpp

; 1271 :         if (bMarket && pChartBInput->m_sStartTime.IsEmpty()==FALSE)

  0022f	74 6c		 je	 SHORT $LN17@MakeChtBoj

; 1272 :         {
; 1273 :             sprintf(lsRelpsa, "RELPSA=%.6s:%.6s", 

  00231	57		 push	 edi
  00232	50		 push	 eax
  00233	8d 85 7c ff ff
	ff		 lea	 eax, DWORD PTR _lsRelpsa$[ebp]
  00239	68 00 00 00 00	 push	 OFFSET ??_C@_0BB@BNNNBIJD@RELPSA?$DN?$CF?46s?3?$CF?46s@
  0023e	50		 push	 eax
  0023f	e8 00 00 00 00	 call	 _sprintf
  00244	83 c4 10	 add	 esp, 16			; 00000010H

; 1274 : 				pChartBInput->m_sStartTime, 
; 1275 : 				pChartBInput->sShcode);
; 1276 :            	
; 1277 : 			// 2011.01.20 by SYS >>  YYYY()  : / 14Byte  (YYYYMMDDhhmmss)
; 1278 : 			//sprintf(lsBojo, "####UM=%c@UD=1@RDATET=YYYYMMDD@RESETUSEREAL=1@%s@%s@CB=_Close_:0|@SCD=%s@",
; 1279 : 			//sprintf(lsBojo, "####UM=%c@UD=1@RDATET=YYYYMMDDHHMMSS@RESETUSEREAL=1@%s@%s@CB=_Close_:0|@SCD=%s@",
; 1280 : 
; 1281 : 			if(pChartBInput->nPacketType==1)

  00247	8d 8d 34 f9 ff
	ff		 lea	 ecx, DWORD PTR _strPacketTime$[ebp]
  0024d	83 bb bc 00 00
	00 01		 cmp	 DWORD PTR [ebx+188], 1
  00254	75 07		 jne	 SHORT $LN19@MakeChtBoj

; 1282 : 				strPacketTime = "YYYYMMDD";

  00256	68 00 00 00 00	 push	 OFFSET ??_C@_08DKDJLCMP@YYYYMMDD@
  0025b	eb 05		 jmp	 SHORT $LN55@MakeChtBoj
$LN19@MakeChtBoj:

; 1283 : 			else
; 1284 : 				strPacketTime = "YYYYMMDDHHMMSS";

  0025d	68 00 00 00 00	 push	 OFFSET ??_C@_0P@IMPIBBAB@YYYYMMDDHHMMSS@
$LN55@MakeChtBoj:

; 1285 : 
; 1286 : 			sprintf(lsBojo, "####UM=%c@UD=1@RDATET=%s@RESETUSEREAL=1@%s@%s@CB=_Close_:0|@SCD=%s@",

  00262	ff 15 00 00 00
	00		 call	 DWORD PTR __imp_??4?$CStringT@DV?$StrTraitMFC_DLL@DV?$ChTraitsCRT@D@ATL@@@@@ATL@@QAEAAV01@PBD@Z
  00268	ff 73 44	 push	 DWORD PTR [ebx+68]
  0026b	8d 85 7c ff ff
	ff		 lea	 eax, DWORD PTR _lsRelpsa$[ebp]
  00271	50		 push	 eax
  00272	8d 85 5c fc ff
	ff		 lea	 eax, DWORD PTR _lsBMrk$[ebp]
  00278	50		 push	 eax
  00279	ff b5 34 f9 ff
	ff		 push	 DWORD PTR _strPacketTime$[ebp]
  0027f	33 c0		 xor	 eax, eax
  00281	80 bd 3b f9 ff
	ff 31		 cmp	 BYTE PTR tv482[ebp], 49	; 00000031H
  00288	0f 95 c0	 setne	 al
  0028b	8d 04 85 41 00
	00 00		 lea	 eax, DWORD PTR [eax*4+65]
  00292	50		 push	 eax
  00293	68 00 00 00 00	 push	 OFFSET ??_C@_0EE@OICAFPDE@?$CD?$CD?$CD?$CDUM?$DN?$CFc?$EAUD?$DN1?$EARDATET?$DN?$CFs?$EARESETU@

; 1287 : 				lcChtAE, strPacketTime, lsBMrk, lsRelpsa, pChartBInput->m_sFirstClose);
; 1288 : 			// 2011.01.20 by SYS 
; 1289 :         }

  00298	e9 70 01 00 00	 jmp	 $LN53@MakeChtBoj
$LN17@MakeChtBoj:

; 1290 : 		else
; 1291 :         {
; 1292 : 			// 2011.01.20 by SYS >>  YYYY()  : / 14Byte  (YYYYMMDDhhmmss)
; 1293 :            	//sprintf(lsBojo, "####UM=%c@UD=1@RDATET=YYYYMMDD@RESETUSEREAL=1@%s@@CB=_Close_:0|@SCD=%s@",
; 1294 : 			//sprintf(lsBojo, "####UM=%c@UD=1@RDATET=YYYYMMDDHHMMSS@RESETUSEREAL=1@%s@@CB=_Close_:0|@SCD=%s@",
; 1295 : 
; 1296 : 			if(pChartBInput->nPacketType==1)

  0029d	83 bb bc 00 00
	00 01		 cmp	 DWORD PTR [ebx+188], 1
  002a4	8d 8d 34 f9 ff
	ff		 lea	 ecx, DWORD PTR _strPacketTime$[ebp]
  002aa	75 07		 jne	 SHORT $LN21@MakeChtBoj

; 1297 : 				strPacketTime = "YYYYMMDD";

  002ac	68 00 00 00 00	 push	 OFFSET ??_C@_08DKDJLCMP@YYYYMMDD@
  002b1	eb 05		 jmp	 SHORT $LN56@MakeChtBoj
$LN21@MakeChtBoj:

; 1298 : 			else
; 1299 : 				strPacketTime = "YYYYMMDDHHMMSS";

  002b3	68 00 00 00 00	 push	 OFFSET ??_C@_0P@IMPIBBAB@YYYYMMDDHHMMSS@
$LN56@MakeChtBoj:

; 1300 : 
; 1301 : 			sprintf(lsBojo, "####UM=%c@UD=1@RDATET=%s@RESETUSEREAL=1@%s@@CB=_Close_:0|@SCD=%s@",

  002b8	ff 15 00 00 00
	00		 call	 DWORD PTR __imp_??4?$CStringT@DV?$StrTraitMFC_DLL@DV?$ChTraitsCRT@D@ATL@@@@@ATL@@QAEAAV01@PBD@Z
  002be	ff 73 44	 push	 DWORD PTR [ebx+68]
  002c1	8d 85 5c fc ff
	ff		 lea	 eax, DWORD PTR _lsBMrk$[ebp]
  002c7	50		 push	 eax
  002c8	ff b5 34 f9 ff
	ff		 push	 DWORD PTR _strPacketTime$[ebp]
  002ce	33 c0		 xor	 eax, eax
  002d0	80 bd 3b f9 ff
	ff 31		 cmp	 BYTE PTR tv482[ebp], 49	; 00000031H
  002d7	0f 95 c0	 setne	 al
  002da	8d 04 85 41 00
	00 00		 lea	 eax, DWORD PTR [eax*4+65]
  002e1	50		 push	 eax
  002e2	8d 85 3c f9 ff
	ff		 lea	 eax, DWORD PTR _lsBojo$[ebp]
  002e8	68 00 00 00 00	 push	 OFFSET ??_C@_0EC@JMKCPHNL@?$CD?$CD?$CD?$CDUM?$DN?$CFc?$EAUD?$DN1?$EARDATET?$DN?$CFs?$EARESETU@
  002ed	50		 push	 eax
  002ee	e8 00 00 00 00	 call	 _sprintf
  002f3	83 c4 18	 add	 esp, 24			; 00000018H

; 1302 : 				lcChtAE, strPacketTime, lsBMrk, pChartBInput->m_sFirstClose);
; 1303 : 			// 2011.01.20 by SYS 
; 1304 :         }
; 1305 : 
; 1306 : 	}

  002f6	e9 21 01 00 00	 jmp	 $LN31@MakeChtBoj
$LN15@MakeChtBoj:

; 1307 : 	else if (pChartBInput->sTerm[0] == '3')

  002fb	3c 33		 cmp	 al, 51			; 00000033H
  002fd	75 5e		 jne	 SHORT $LN23@MakeChtBoj

; 1308 : 	{
; 1309 : 		//  
; 1310 : 		// 2011.01.24 by SYS >>  YYYY()  : / 14Byte  (YYYYMMDDhhmmss)
; 1311 : 		//sprintf(lsBojo, "####UM=%c@UD=2@RDATET=YYYYMMDD@RESETUSEREAL=1@%s@@CB=_Close_:0|@SCD=%s@",
; 1312 : 		//sprintf(lsBojo, "####UM=%c@UD=2@RDATET=YYYYMMDDHHMMSS@RESETUSEREAL=1@%s@@CB=_Close_:0|@SCD=%s@",
; 1313 : 
; 1314 : 		if(pChartBInput->nPacketType==1)

  002ff	83 bb bc 00 00
	00 01		 cmp	 DWORD PTR [ebx+188], 1
  00306	8d 8d 34 f9 ff
	ff		 lea	 ecx, DWORD PTR _strPacketTime$[ebp]
  0030c	75 07		 jne	 SHORT $LN25@MakeChtBoj

; 1315 : 			strPacketTime = "YYYYMMDD";

  0030e	68 00 00 00 00	 push	 OFFSET ??_C@_08DKDJLCMP@YYYYMMDD@
  00313	eb 05		 jmp	 SHORT $LN57@MakeChtBoj
$LN25@MakeChtBoj:

; 1316 : 		else
; 1317 : 			strPacketTime = "YYYYMMDDHHMMSS";

  00315	68 00 00 00 00	 push	 OFFSET ??_C@_0P@IMPIBBAB@YYYYMMDDHHMMSS@
$LN57@MakeChtBoj:

; 1318 : 
; 1319 : 		sprintf(lsBojo, "####UM=%c@UD=2@RDATET=%s@RESETUSEREAL=1@%s@@CB=_Close_:0|@SCD=%s@",

  0031a	ff 15 00 00 00
	00		 call	 DWORD PTR __imp_??4?$CStringT@DV?$StrTraitMFC_DLL@DV?$ChTraitsCRT@D@ATL@@@@@ATL@@QAEAAV01@PBD@Z
  00320	ff 73 44	 push	 DWORD PTR [ebx+68]
  00323	8d 85 5c fc ff
	ff		 lea	 eax, DWORD PTR _lsBMrk$[ebp]
  00329	50		 push	 eax
  0032a	ff b5 34 f9 ff
	ff		 push	 DWORD PTR _strPacketTime$[ebp]
  00330	33 c0		 xor	 eax, eax
  00332	80 bd 3b f9 ff
	ff 31		 cmp	 BYTE PTR tv482[ebp], 49	; 00000031H
  00339	0f 95 c0	 setne	 al
  0033c	8d 04 85 41 00
	00 00		 lea	 eax, DWORD PTR [eax*4+65]
  00343	50		 push	 eax
  00344	8d 85 3c f9 ff
	ff		 lea	 eax, DWORD PTR _lsBojo$[ebp]
  0034a	68 00 00 00 00	 push	 OFFSET ??_C@_0EC@BPMLCHBI@?$CD?$CD?$CD?$CDUM?$DN?$CFc?$EAUD?$DN2?$EARDATET?$DN?$CFs?$EARESETU@
  0034f	50		 push	 eax
  00350	e8 00 00 00 00	 call	 _sprintf
  00355	83 c4 18	 add	 esp, 24			; 00000018H

; 1320 : 		// 2011.01.24 by SYS <<
; 1321 : 		lcChtAE, strPacketTime, lsBMrk, pChartBInput->m_sFirstClose);
; 1322 : 	}

  00358	e9 bf 00 00 00	 jmp	 $LN31@MakeChtBoj
$LN23@MakeChtBoj:

; 1323 : 	else if (pChartBInput->sTerm[0] == '4')

  0035d	3c 34		 cmp	 al, 52			; 00000034H
  0035f	75 5b		 jne	 SHORT $LN27@MakeChtBoj

; 1324 : 	{
; 1325 : 		//  
; 1326 : 		// 2011.01.24 by SYS >>  YYYY()  : / 14Byte  (YYYYMMDDhhmmss)
; 1327 : 		//sprintf(lsBojo, "####UM=%c@UD=3@RDATET=YYYYMM@RESETUSEREAL=1@%s@@CB=_Close_:0|@SCD=%s@",
; 1328 : 		//sprintf(lsBojo, "####UM=%c@UD=3@RDATET=YYYYMMDDHHMMSS@RESETUSEREAL=1@%s@@CB=_Close_:0|@SCD=%s@",
; 1329 : 
; 1330 : 		if(pChartBInput->nPacketType==1)

  00361	83 bb bc 00 00
	00 01		 cmp	 DWORD PTR [ebx+188], 1
  00368	8d 8d 34 f9 ff
	ff		 lea	 ecx, DWORD PTR _strPacketTime$[ebp]
  0036e	75 07		 jne	 SHORT $LN29@MakeChtBoj

; 1331 : 			strPacketTime = "YYYYMM";

  00370	68 00 00 00 00	 push	 OFFSET ??_C@_06EBMMBHJD@YYYYMM@
  00375	eb 05		 jmp	 SHORT $LN58@MakeChtBoj
$LN29@MakeChtBoj:

; 1332 : 		else
; 1333 : 			strPacketTime = "YYYYMMDDHHMMSS";

  00377	68 00 00 00 00	 push	 OFFSET ??_C@_0P@IMPIBBAB@YYYYMMDDHHMMSS@
$LN58@MakeChtBoj:

; 1334 : 
; 1335 : 		sprintf(lsBojo, "####UM=%c@UD=3@RDATET=%s@RESETUSEREAL=1@%s@@CB=_Close_:0|@SCD=%s@",

  0037c	ff 15 00 00 00
	00		 call	 DWORD PTR __imp_??4?$CStringT@DV?$StrTraitMFC_DLL@DV?$ChTraitsCRT@D@ATL@@@@@ATL@@QAEAAV01@PBD@Z
  00382	ff 73 44	 push	 DWORD PTR [ebx+68]
  00385	8d 85 5c fc ff
	ff		 lea	 eax, DWORD PTR _lsBMrk$[ebp]
  0038b	50		 push	 eax
  0038c	ff b5 34 f9 ff
	ff		 push	 DWORD PTR _strPacketTime$[ebp]
  00392	33 c0		 xor	 eax, eax
  00394	80 bd 3b f9 ff
	ff 31		 cmp	 BYTE PTR tv482[ebp], 49	; 00000031H
  0039b	0f 95 c0	 setne	 al
  0039e	8d 04 85 41 00
	00 00		 lea	 eax, DWORD PTR [eax*4+65]
  003a5	50		 push	 eax
  003a6	8d 85 3c f9 ff
	ff		 lea	 eax, DWORD PTR _lsBojo$[ebp]
  003ac	68 00 00 00 00	 push	 OFFSET ??_C@_0EC@GBBDJHFJ@?$CD?$CD?$CD?$CDUM?$DN?$CFc?$EAUD?$DN3?$EARDATET?$DN?$CFs?$EARESETU@
  003b1	50		 push	 eax
  003b2	e8 00 00 00 00	 call	 _sprintf
  003b7	83 c4 18	 add	 esp, 24			; 00000018H

; 1336 : 		// 2011.01.24 by SYS <<
; 1337 : 		lcChtAE, strPacketTime, lsBMrk, pChartBInput->m_sFirstClose);
; 1338 : 	}

  003ba	eb 60		 jmp	 SHORT $LN31@MakeChtBoj
$LN27@MakeChtBoj:

; 1339 : 	else if (pChartBInput->sTerm[0] == '6')

  003bc	3c 36		 cmp	 al, 54			; 00000036H
  003be	75 5c		 jne	 SHORT $LN31@MakeChtBoj

; 1340 : 	{
; 1341 : 		//  
; 1342 : 		// 2011.01.24 by SYS >>  YYYY()  : / 14Byte  (YYYYMMDDhhmmss)
; 1343 : 		//sprintf(lsBojo, "####UM=%c@UD=4@UT=%ld@RDATET=DDHHMMSS@RESETUSEREAL=1@%s@CB=_Close_:0|@SCD=%s@",
; 1344 : 		//sprintf(lsBojo, "####UM=%c@UD=4@UT=%ld@RDATET=YYYYMMDDHHMMSS@RESETUSEREAL=1@%s@CB=_Close_:0|@SCD=%s@",
; 1345 : 
; 1346 : 		if(pChartBInput->nPacketType==1)

  003c0	83 bb bc 00 00
	00 01		 cmp	 DWORD PTR [ebx+188], 1
  003c7	8d 8d 34 f9 ff
	ff		 lea	 ecx, DWORD PTR _strPacketTime$[ebp]
  003cd	75 07		 jne	 SHORT $LN13@MakeChtBoj

; 1347 : 			strPacketTime = "DDHHMMSS";

  003cf	68 00 00 00 00	 push	 OFFSET ??_C@_08JFMBEEDE@DDHHMMSS@
  003d4	eb 05		 jmp	 SHORT $LN54@MakeChtBoj
$LN13@MakeChtBoj:

; 1348 : 		else
; 1349 : 			strPacketTime = "YYYYMMDDHHMMSS";
; 1350 : 
; 1351 : 		sprintf(lsBojo, "####UM=%c@UD=4@UT=%ld@RDATET=%s@RESETUSEREAL=1@%s@CB=_Close_:0|@SCD=%s@",
; 1352 : 		// 2011.01.24 by SYS <<
; 1353 : 	       	lcChtAE, pChartBInput->lTick, strPacketTime, lsBMrk, pChartBInput->m_sFirstClose);
; 1354 : 	}
; 1355 : 
; 1356 : 	rString = lsBojo;

  003d6	68 00 00 00 00	 push	 OFFSET ??_C@_0P@IMPIBBAB@YYYYMMDDHHMMSS@
$LN54@MakeChtBoj:
  003db	ff 15 00 00 00
	00		 call	 DWORD PTR __imp_??4?$CStringT@DV?$StrTraitMFC_DLL@DV?$ChTraitsCRT@D@ATL@@@@@ATL@@QAEAAV01@PBD@Z
  003e1	ff 73 44	 push	 DWORD PTR [ebx+68]
  003e4	8d 85 5c fc ff
	ff		 lea	 eax, DWORD PTR _lsBMrk$[ebp]
  003ea	50		 push	 eax
  003eb	ff b5 34 f9 ff
	ff		 push	 DWORD PTR _strPacketTime$[ebp]
  003f1	33 c0		 xor	 eax, eax
  003f3	80 bd 3b f9 ff
	ff 31		 cmp	 BYTE PTR tv482[ebp], 49	; 00000031H
  003fa	ff 73 78	 push	 DWORD PTR [ebx+120]
  003fd	0f 95 c0	 setne	 al
  00400	8d 04 85 41 00
	00 00		 lea	 eax, DWORD PTR [eax*4+65]
  00407	50		 push	 eax
  00408	68 00 00 00 00	 push	 OFFSET ??_C@_0EI@CHDPKFPB@?$CD?$CD?$CD?$CDUM?$DN?$CFc?$EAUD?$DN4?$EAUT?$DN?$CFld?$EARDATET?$DN?$CFs@
$LN53@MakeChtBoj:
  0040d	8d 85 3c f9 ff
	ff		 lea	 eax, DWORD PTR _lsBojo$[ebp]
  00413	50		 push	 eax
  00414	e8 00 00 00 00	 call	 _sprintf
  00419	83 c4 1c	 add	 esp, 28			; 0000001cH
$LN31@MakeChtBoj:
  0041c	8b b5 24 f9 ff
	ff		 mov	 esi, DWORD PTR _rString$GSCopy$1$[ebp]
  00422	8d 85 3c f9 ff
	ff		 lea	 eax, DWORD PTR _lsBojo$[ebp]
  00428	50		 push	 eax
  00429	8b ce		 mov	 ecx, esi
  0042b	ff 15 00 00 00
	00		 call	 DWORD PTR __imp_??4?$CStringT@DV?$StrTraitMFC_DLL@DV?$ChTraitsCRT@D@ATL@@@@@ATL@@QAEAAV01@PBD@Z

; 1357 : 
; 1358 : 	// 20130222  :      .(   )
; 1359 : 	CString szTmpExt;

  00431	8d 8d 28 f9 ff
	ff		 lea	 ecx, DWORD PTR _szTmpExt$[ebp]
  00437	ff 15 00 00 00
	00		 call	 DWORD PTR __imp_??0?$CStringT@DV?$StrTraitMFC_DLL@DV?$ChTraitsCRT@D@ATL@@@@@ATL@@QAE@XZ

; 1360 : 	szTmpExt.Format("DATATIME=%s@", pChartBInput->m_sLastDataTime);

  0043d	ff b3 c0 00 00
	00		 push	 DWORD PTR [ebx+192]
  00443	8d 85 28 f9 ff
	ff		 lea	 eax, DWORD PTR _szTmpExt$[ebp]
  00449	68 00 00 00 00	 push	 OFFSET ??_C@_0N@JENAIHAK@DATATIME?$DN?$CFs?$EA@
  0044e	50		 push	 eax
  0044f	ff 15 00 00 00
	00		 call	 DWORD PTR __imp_?Format@?$CStringT@DV?$StrTraitMFC_DLL@DV?$ChTraitsCRT@D@ATL@@@@@ATL@@QAAXPBDZZ
  00455	83 c4 0c	 add	 esp, 12			; 0000000cH

; 1361 : 	rString += szTmpExt;		

  00458	8d 85 28 f9 ff
	ff		 lea	 eax, DWORD PTR _szTmpExt$[ebp]
  0045e	8b ce		 mov	 ecx, esi
  00460	50		 push	 eax
  00461	ff 15 00 00 00
	00		 call	 DWORD PTR __imp_??Y?$CStringT@DV?$StrTraitMFC_DLL@DV?$ChTraitsCRT@D@ATL@@@@@ATL@@QAEAAV01@ABV?$CSimpleStringT@D$00@1@@Z
; File C:\Program Files (x86)\Microsoft Visual Studio\2019\Community\VC\Tools\MSVC\14.29.30133\atlmfc\include\atlsimpstr.h

; 519  : 		return( GetData()->nDataLength );

  00467	8b 06		 mov	 eax, DWORD PTR [esi]
; File D:\git\src\IBK\IBK_DRFN\ProjSrc\SrcDrfn\DrCommon\PartnerMng\_ChartBozoManager.cpp

; 1363 :     return rString.GetLength();

  00469	8d 8d 28 f9 ff
	ff		 lea	 ecx, DWORD PTR _szTmpExt$[ebp]
; File C:\Program Files (x86)\Microsoft Visual Studio\2019\Community\VC\Tools\MSVC\14.29.30133\atlmfc\include\atlsimpstr.h

; 519  : 		return( GetData()->nDataLength );

  0046f	8b 70 f4	 mov	 esi, DWORD PTR [eax-12]
; File D:\git\src\IBK\IBK_DRFN\ProjSrc\SrcDrfn\DrCommon\PartnerMng\_ChartBozoManager.cpp

; 1363 :     return rString.GetLength();

  00472	ff 15 00 00 00
	00		 call	 DWORD PTR __imp_??1?$CStringT@DV?$StrTraitMFC_DLL@DV?$ChTraitsCRT@D@ATL@@@@@ATL@@QAE@XZ
  00478	8d 8d 34 f9 ff
	ff		 lea	 ecx, DWORD PTR _strPacketTime$[ebp]
  0047e	ff 15 00 00 00
	00		 call	 DWORD PTR __imp_??1?$CStringT@DV?$StrTraitMFC_DLL@DV?$ChTraitsCRT@D@ATL@@@@@ATL@@QAE@XZ

; 1364 : }

  00484	8b 4d fc	 mov	 ecx, DWORD PTR __$ArrayPad$[ebp]
  00487	8b c6		 mov	 eax, esi
  00489	5f		 pop	 edi
  0048a	5e		 pop	 esi
  0048b	33 cd		 xor	 ecx, ebp
  0048d	5b		 pop	 ebx
  0048e	e8 00 00 00 00	 call	 @__security_check_cookie@4
  00493	8b e5		 mov	 esp, ebp
  00495	5d		 pop	 ebp
  00496	c2 10 00	 ret	 16			; 00000010H
?MakeChtBojo_ctfx@CChartBozoManager@@UAGHPAVCChartBozoInput@@AAV?$CStringT@DV?$StrTraitMFC_DLL@DV?$ChTraitsCRT@D@ATL@@@@@ATL@@H@Z ENDP ; CChartBozoManager::MakeChtBojo_ctfx
_TEXT	ENDS
; Function compile flags: /Ogtp
; File D:\git\src\IBK\IBK_DRFN\ProjSrc\SrcDrfn\DrCommon\PartnerMng\_ChartBozoManager.cpp
; File C:\Program Files (x86)\Microsoft Visual Studio\2019\Community\VC\Tools\MSVC\14.29.30133\atlmfc\include\atlsimpstr.h
; File D:\git\src\IBK\IBK_DRFN\ProjSrc\SrcDrfn\DrCommon\PartnerMng\_ChartBozoManager.cpp
; File C:\Program Files (x86)\Microsoft Visual Studio\2019\Community\VC\Tools\MSVC\14.29.30133\atlmfc\include\atlsimpstr.h
; File D:\git\src\IBK\IBK_DRFN\ProjSrc\SrcDrfn\DrCommon\PartnerMng\_ChartBozoManager.cpp
;	COMDAT ?MakeChtBojo_ctfofor@CChartBozoManager@@UAGHPAVCChartBozoInput@@AAV?$CStringT@DV?$StrTraitMFC_DLL@DV?$ChTraitsCRT@D@ATL@@@@@ATL@@H@Z
_TEXT	SEGMENT
_rString$GSCopy$1$ = -960				; size = 4
_volume$1$ = -956					; size = 8
_recprice$1$ = -948					; size = 8
_strTDC$ = -940						; size = 4
_strPacketTime$ = -936					; size = 4
_lsBojo$ = -932						; size = 800
_lsRelpsa$ = -132					; size = 128
__$ArrayPad$ = -4					; size = 4
_this$ = 8						; size = 4
_pChartBInput$ = 12					; size = 4
_rString$ = 16						; size = 4
_nOption$ = 20						; size = 4
?MakeChtBojo_ctfofor@CChartBozoManager@@UAGHPAVCChartBozoInput@@AAV?$CStringT@DV?$StrTraitMFC_DLL@DV?$ChTraitsCRT@D@ATL@@@@@ATL@@H@Z PROC ; CChartBozoManager::MakeChtBojo_ctfofor, COMDAT

; 893  : {

  00000	55		 push	 ebp
  00001	8b ec		 mov	 ebp, esp
  00003	81 ec c0 03 00
	00		 sub	 esp, 960		; 000003c0H
  00009	a1 00 00 00 00	 mov	 eax, DWORD PTR ___security_cookie
  0000e	33 c5		 xor	 eax, ebp
  00010	89 45 fc	 mov	 DWORD PTR __$ArrayPad$[ebp], eax
  00013	8b 45 10	 mov	 eax, DWORD PTR _rString$[ebp]
  00016	53		 push	 ebx
  00017	56		 push	 esi
  00018	57		 push	 edi
  00019	8b 7d 0c	 mov	 edi, DWORD PTR _pChartBInput$[ebp]

; 894  : 	char 	lsBojo[800], lsRelpsa[128], lcChtAE;
; 895  : 	double 	recprice=0.0, volume=0.0, price=0.0, high=0.0, low=0.0;
; 896  : 
; 897  : 	recprice = (double)pChartBInput->lPrice;
; 898  : 	volume	 = (double)pChartBInput->lVolume;
; 899  : 
; 900  : 	memset(lsBojo      , 0x20, sizeof(lsBojo      ));

  0001c	68 20 03 00 00	 push	 800			; 00000320H
  00021	89 85 40 fc ff
	ff		 mov	 DWORD PTR _rString$GSCopy$1$[ebp], eax
  00027	8d 85 5c fc ff
	ff		 lea	 eax, DWORD PTR _lsBojo$[ebp]
  0002d	6a 20		 push	 32			; 00000020H
  0002f	66 0f 6e 87 80
	00 00 00	 movd	 xmm0, DWORD PTR [edi+128]
  00037	f3 0f e6 c0	 cvtdq2pd xmm0, xmm0
  0003b	50		 push	 eax
  0003c	f2 0f 11 85 4c
	fc ff ff	 movsd	 QWORD PTR _recprice$1$[ebp], xmm0
  00044	66 0f 6e 87 84
	00 00 00	 movd	 xmm0, DWORD PTR [edi+132]
  0004c	f3 0f e6 c0	 cvtdq2pd xmm0, xmm0
  00050	f2 0f 11 85 44
	fc ff ff	 movsd	 QWORD PTR _volume$1$[ebp], xmm0
  00058	e8 00 00 00 00	 call	 _memset

; 901  : 	memset(lsRelpsa    , 0x20, sizeof(lsRelpsa    ));

  0005d	68 80 00 00 00	 push	 128			; 00000080H
  00062	8d 85 7c ff ff
	ff		 lea	 eax, DWORD PTR _lsRelpsa$[ebp]
  00068	6a 20		 push	 32			; 00000020H
  0006a	50		 push	 eax
  0006b	e8 00 00 00 00	 call	 _memset

; 902  : 
; 903  : 	if (pChartBInput->sNxtFlg[0] == '1')	lcChtAE = 'A';

  00070	8a 5f 7d	 mov	 bl, BYTE PTR [edi+125]

; 904  : 	else									lcChtAE = 'E';
; 905  : 
; 906  : //vntsorl_20110420:[A00000410]      
; 907  : 	CString strPacketTime;

  00073	8d 8d 58 fc ff
	ff		 lea	 ecx, DWORD PTR _strPacketTime$[ebp]
  00079	83 c4 18	 add	 esp, 24			; 00000018H
  0007c	ff 15 00 00 00
	00		 call	 DWORD PTR __imp_??0?$CStringT@DV?$StrTraitMFC_DLL@DV?$ChTraitsCRT@D@ATL@@@@@ATL@@QAE@XZ

; 908  : 	CString strTDC;

  00082	8d 8d 54 fc ff
	ff		 lea	 ecx, DWORD PTR _strTDC$[ebp]
  00088	ff 15 00 00 00
	00		 call	 DWORD PTR __imp_??0?$CStringT@DV?$StrTraitMFC_DLL@DV?$ChTraitsCRT@D@ATL@@@@@ATL@@QAE@XZ

; 909  : 	strTDC.Format(_T("%.*f"), nOption, 1.0/pow(10, nOption));

  0008e	8b 75 14	 mov	 esi, DWORD PTR _nOption$[ebp]
  00091	f2 0f 10 05 00
	00 00 00	 movsd	 xmm0, QWORD PTR __real@4024000000000000
  00099	66 0f 6e ce	 movd	 xmm1, esi
  0009d	f3 0f e6 c9	 cvtdq2pd xmm1, xmm1
  000a1	e8 00 00 00 00	 call	 __libm_sse2_pow_precise
  000a6	f2 0f 10 0d 00
	00 00 00	 movsd	 xmm1, QWORD PTR __real@3ff0000000000000
  000ae	8d 85 54 fc ff
	ff		 lea	 eax, DWORD PTR _strTDC$[ebp]
  000b4	f2 0f 5e c8	 divsd	 xmm1, xmm0
  000b8	83 ec 08	 sub	 esp, 8
  000bb	f2 0f 11 0c 24	 movsd	 QWORD PTR [esp], xmm1
  000c0	56		 push	 esi
  000c1	68 00 00 00 00	 push	 OFFSET ??_C@_04HGGMHPIM@?$CF?4?$CKf@
  000c6	50		 push	 eax
  000c7	ff 15 00 00 00
	00		 call	 DWORD PTR __imp_?Format@?$CStringT@DV?$StrTraitMFC_DLL@DV?$ChTraitsCRT@D@ATL@@@@@ATL@@QAAXPBDZZ

; 910  : 	if 	(pChartBInput->sTerm[0] == '0')

  000cd	8a 47 7c	 mov	 al, BYTE PTR [edi+124]
  000d0	83 c4 14	 add	 esp, 20			; 00000014H
  000d3	3c 30		 cmp	 al, 48			; 00000030H
  000d5	0f 85 9b 00 00
	00		 jne	 $LN4@MakeChtBoj

; 911  : 	{
; 912  : 		// 
; 913  : 		//<<JS.Kim_20101012  StandartValue   y    
; 914  : 		//sprintf(lsBojo, "####UM=%c@BOUNDMARK=:%s,%s:%s:1:%.2f:%c@UD=5@UT=%ld@RDATET=DDHHMMSS@CB=_Close_:2|_Volume_:6|@PREVPRICE=_Close_:%s|_Volume_:%12.0f@TDC=%s:_Open_,|%s:_High_,|%s:_Low_,|%s:_Close_,@RDC=%s:-1:_Open_,|%s:-1:_High_,|%s:-1:_Low_,|%s:-1:_Close_,@SCD=%s@OHL=:%s:%s:%s@",
; 915  :     	
; 916  : 		// 2011.01.24 by SYS >>  YYYY()  : / 14Byte  (YYYYMMDDhhmmss)
; 917  : 		//sprintf(lsBojo, "####UM=%c@BOUNDMARK=:%s,%s:%s:1:%.2f:%c@UD=5@UT=%ld@RDATET=DDHHMMSS@CB=_Close_:2|_Volume_:6|@TDC=%s:_Open_,|%s:_High_,|%s:_Low_,|%s:_Close_,@RDC=%s:-1:_Open_,|%s:-1:_High_,|%s:-1:_Low_,|%s:-1:_Close_,@SCD=%s@OHL=:%s:%s:%s@",
; 918  : 		//sprintf(lsBojo, "####UM=%c@BOUNDMARK=:%s,%s:%s:1:%.2f:%c@UD=5@UT=%ld@RDATET=YYYYMMDDHHMMSS@CB=_Close_:2|_Volume_:6|@TDC=%s:_Open_,|%s:_High_,|%s:_Low_,|%s:_Close_,@RDC=%s:-1:_Open_,|%s:-1:_High_,|%s:-1:_Low_,|%s:-1:_Close_,@SCD=%s@OHL=:%s:%s:%s@",
; 919  : 
; 920  : 		if(pChartBInput->nPacketType==1)

  000db	83 bf bc 00 00
	00 01		 cmp	 DWORD PTR [edi+188], 1
  000e2	8d 8d 58 fc ff
	ff		 lea	 ecx, DWORD PTR _strPacketTime$[ebp]
  000e8	75 07		 jne	 SHORT $LN6@MakeChtBoj

; 921  : 			strPacketTime = "DDHHMMSS";

  000ea	68 00 00 00 00	 push	 OFFSET ??_C@_08JFMBEEDE@DDHHMMSS@
  000ef	eb 05		 jmp	 SHORT $LN48@MakeChtBoj
$LN6@MakeChtBoj:

; 922  : 		else
; 923  : 			strPacketTime = "YYYYMMDDHHMMSS";

  000f1	68 00 00 00 00	 push	 OFFSET ??_C@_0P@IMPIBBAB@YYYYMMDDHHMMSS@
$LN48@MakeChtBoj:

; 924  : 
; 925  : 		sprintf(lsBojo, "####UM=%c@BOUNDMARK=:%s,%s:%s:1:%.2f:%c@UD=5@UT=%ld@RDATET=%s@CB=_Close_:2|_Volume_:6|@PREVPRICE=_Close_:%s|_Volume_:%12.0f@TDC=%s:_Open_,|%s:_High_,|%s:_Low_,|%s:_Close_,@RDC=%s:-1:_Open_,|%s:-1:_High_,|%s:-1:_Low_,|%s:-1:_Close_,@SCD=%s@OHL=:%s:%s:%s@DATATIME=%s@",

  000f6	ff 15 00 00 00
	00		 call	 DWORD PTR __imp_??4?$CStringT@DV?$StrTraitMFC_DLL@DV?$ChTraitsCRT@D@ATL@@@@@ATL@@QAEAAV01@PBD@Z
  000fc	ff b7 c0 00 00
	00		 push	 DWORD PTR [edi+192]
  00102	8b 85 54 fc ff
	ff		 mov	 eax, DWORD PTR _strTDC$[ebp]
  00108	ff 77 34	 push	 DWORD PTR [edi+52]
  0010b	f2 0f 10 85 44
	fc ff ff	 movsd	 xmm0, QWORD PTR _volume$1$[ebp]
  00113	ff 77 30	 push	 DWORD PTR [edi+48]
  00116	ff 77 2c	 push	 DWORD PTR [edi+44]
  00119	ff 77 44	 push	 DWORD PTR [edi+68]
  0011c	50		 push	 eax
  0011d	50		 push	 eax
  0011e	50		 push	 eax
  0011f	50		 push	 eax
  00120	50		 push	 eax
  00121	50		 push	 eax
  00122	50		 push	 eax
  00123	50		 push	 eax
  00124	83 ec 08	 sub	 esp, 8
  00127	8d 47 68	 lea	 eax, DWORD PTR [edi+104]
  0012a	f2 0f 11 04 24	 movsd	 QWORD PTR [esp], xmm0
  0012f	f2 0f 10 85 4c
	fc ff ff	 movsd	 xmm0, QWORD PTR _recprice$1$[ebp]
  00137	f2 0f 5e 05 00
	00 00 00	 divsd	 xmm0, QWORD PTR __real@4059000000000000
  0013f	ff 77 38	 push	 DWORD PTR [edi+56]
  00142	ff b5 58 fc ff
	ff		 push	 DWORD PTR _strPacketTime$[ebp]
  00148	ff 77 78	 push	 DWORD PTR [edi+120]
  0014b	6a 31		 push	 49			; 00000031H
  0014d	83 ec 08	 sub	 esp, 8
  00150	f2 0f 11 04 24	 movsd	 QWORD PTR [esp], xmm0
  00155	50		 push	 eax
  00156	ff 77 28	 push	 DWORD PTR [edi+40]
  00159	33 c0		 xor	 eax, eax
  0015b	80 fb 31	 cmp	 bl, 49			; 00000031H
  0015e	ff 77 24	 push	 DWORD PTR [edi+36]
  00161	0f 95 c0	 setne	 al
  00164	8d 04 85 41 00
	00 00		 lea	 eax, DWORD PTR [eax*4+65]
  0016b	50		 push	 eax
  0016c	68 00 00 00 00	 push	 OFFSET ??_C@_0BBC@NPPOPJCN@?$CD?$CD?$CD?$CDUM?$DN?$CFc?$EABOUNDMARK?$DN?$LA?$KB?$LA?$NN?B?w?F?$KO?3?$CFs@

; 926  : 		// 2011.01.24 by SYS <<
; 927  : 		//>>
; 928  : 			lcChtAE, 
; 929  : 			pChartBInput->m_sUpLmtPrice, 
; 930  : 			pChartBInput->m_sDnLmtPrice, 
; 931  : 			pChartBInput->sShcode,
; 932  : 			recprice/100.0, 
; 933  : 			'1',
; 934  : 			pChartBInput->lTick, 
; 935  : 			strPacketTime,
; 936  : 			//<<JS.Kim_20101012  StandartValue   y    
; 937  : 			pChartBInput->m_sPreprice,//(double)pChartBInput->lPreprice/100.0,
; 938  : 			volume, 
; 939  : 			//>>
; 940  : 			strTDC, strTDC, strTDC, strTDC, strTDC, strTDC, strTDC, strTDC,
; 941  : 			pChartBInput->m_sFirstClose,//(double)pChartBInput->lFirstClose/100.0, 
; 942  : 			pChartBInput->m_sOpen, pChartBInput->m_sHigh, pChartBInput->m_sLow,
; 943  : 			pChartBInput->m_sLastDataTime);
; 944  : 	}

  00171	e9 fd 03 00 00	 jmp	 $LN49@MakeChtBoj
$LN4@MakeChtBoj:

; 945  : 	else if (pChartBInput->sTerm[0] == '1')

  00176	3c 31		 cmp	 al, 49			; 00000031H
  00178	0f 85 b9 00 00
	00		 jne	 $LN8@MakeChtBoj

; 946  : 	{
; 947  : 		if(pChartBInput->lTick == 0)

  0017e	83 7f 78 00	 cmp	 DWORD PTR [edi+120], 0
  00182	8d 8d 58 fc ff
	ff		 lea	 ecx, DWORD PTR _strPacketTime$[ebp]
  00188	8b 87 bc 00 00
	00		 mov	 eax, DWORD PTR [edi+188]
  0018e	0f 85 90 00 00
	00		 jne	 $LN10@MakeChtBoj

; 948  : 		{
; 949  : 			//<<JS.Kim_20101012  StandartValue   y    
; 950  : 			//sprintf(lsBojo, "####UM=%c@BOUNDMARK=:%s,%s:%s:1:%.2f:%c@UD=4@UT=%d0@RDATET=DDHHMMSS@CB=_Close_:2|_Volume_:6|@PREVPRICE=_Close_:%s|_Volume_:%12.0f@TDC=%s:_Open_,|%s:_High_,|%s:_Low_,|%s:_Close_,@RDC=%s:-1:_Open_,|%s:-1:_High_,|%s:-1:_Low_,|%s:-1:_Close_,@SCD=%.2f@OHL=:%s:%s:%s@", 
; 951  : 			// 2011.01.24 by SYS >>  YYYY()  : / 14Byte  (YYYYMMDDhhmmss)
; 952  : 			//sprintf(lsBojo, "####UM=%c@BOUNDMARK=:%s,%s:%s:1:%.2f:%c@UD=4@UT=%d0@RDATET=DDHHMMSS@CB=_Close_:2|_Volume_:6|@TDC=%s:_Open_,|%s:_High_,|%s:_Low_,|%s:_Close_,@RDC=%s:-1:_Open_,|%s:-1:_High_,|%s:-1:_Low_,|%s:-1:_Close_,@SCD=%.2f@OHL=:%s:%s:%s@", 
; 953  : 			//sprintf(lsBojo, "####UM=%c@BOUNDMARK=:%s,%s:%s:1:%.2f:%c@UD=4@UT=%d0@RDATET=YYYYMMDDHHMMSS@CB=_Close_:2|_Volume_:6|@TDC=%s:_Open_,|%s:_High_,|%s:_Low_,|%s:_Close_,@RDC=%s:-1:_Open_,|%s:-1:_High_,|%s:-1:_Low_,|%s:-1:_Close_,@SCD=%.2f@OHL=:%s:%s:%s@", 
; 954  : 
; 955  : 			if(pChartBInput->nPacketType==1)

  00194	83 f8 01	 cmp	 eax, 1
  00197	75 07		 jne	 SHORT $LN12@MakeChtBoj

; 956  : 				strPacketTime = "DDHHMMSS";

  00199	68 00 00 00 00	 push	 OFFSET ??_C@_08JFMBEEDE@DDHHMMSS@
  0019e	eb 05		 jmp	 SHORT $LN50@MakeChtBoj
$LN12@MakeChtBoj:

; 957  : 			else
; 958  : 				strPacketTime = "YYYYMMDDHHMMSS";

  001a0	68 00 00 00 00	 push	 OFFSET ??_C@_0P@IMPIBBAB@YYYYMMDDHHMMSS@
$LN50@MakeChtBoj:

; 959  : 
; 960  : 			sprintf(lsBojo, "####UM=%c@BOUNDMARK=:%s,%s:%s:1:%.2f:%c@UD=4@UT=%d0@RDATET=%s@CB=_Close_:2|_Volume_:6|@PREVPRICE=_Close_:%s|_Volume_:%12.0f@TDC=%s:_Open_,|%s:_High_,|%s:_Low_,|%s:_Close_,@RDC=%s:-1:_Open_,|%s:-1:_High_,|%s:-1:_Low_,|%s:-1:_Close_,@SCD=%.2f@OHL=:%s:%s:%s@DATATIME=%s@", 

  001a5	ff 15 00 00 00
	00		 call	 DWORD PTR __imp_??4?$CStringT@DV?$StrTraitMFC_DLL@DV?$ChTraitsCRT@D@ATL@@@@@ATL@@QAEAAV01@PBD@Z
  001ab	ff b7 c0 00 00
	00		 push	 DWORD PTR [edi+192]
  001b1	8b 85 54 fc ff
	ff		 mov	 eax, DWORD PTR _strTDC$[ebp]
  001b7	ff 77 34	 push	 DWORD PTR [edi+52]
  001ba	f2 0f 10 85 44
	fc ff ff	 movsd	 xmm0, QWORD PTR _volume$1$[ebp]
  001c2	ff 77 30	 push	 DWORD PTR [edi+48]
  001c5	ff 77 2c	 push	 DWORD PTR [edi+44]
  001c8	ff 77 44	 push	 DWORD PTR [edi+68]
  001cb	50		 push	 eax
  001cc	50		 push	 eax
  001cd	50		 push	 eax
  001ce	50		 push	 eax
  001cf	50		 push	 eax
  001d0	50		 push	 eax
  001d1	50		 push	 eax
  001d2	50		 push	 eax
  001d3	83 ec 08	 sub	 esp, 8
  001d6	8d 47 68	 lea	 eax, DWORD PTR [edi+104]
  001d9	f2 0f 11 04 24	 movsd	 QWORD PTR [esp], xmm0
  001de	f2 0f 10 85 4c
	fc ff ff	 movsd	 xmm0, QWORD PTR _recprice$1$[ebp]
  001e6	f2 0f 5e 05 00
	00 00 00	 divsd	 xmm0, QWORD PTR __real@4059000000000000
  001ee	ff 77 38	 push	 DWORD PTR [edi+56]
  001f1	ff b5 58 fc ff
	ff		 push	 DWORD PTR _strPacketTime$[ebp]
  001f7	6a 05		 push	 5
  001f9	6a 31		 push	 49			; 00000031H
  001fb	83 ec 08	 sub	 esp, 8
  001fe	f2 0f 11 04 24	 movsd	 QWORD PTR [esp], xmm0
  00203	50		 push	 eax
  00204	ff 77 28	 push	 DWORD PTR [edi+40]
  00207	33 c0		 xor	 eax, eax
  00209	80 fb 31	 cmp	 bl, 49			; 00000031H
  0020c	ff 77 24	 push	 DWORD PTR [edi+36]
  0020f	0f 95 c0	 setne	 al
  00212	8d 04 85 41 00
	00 00		 lea	 eax, DWORD PTR [eax*4+65]
  00219	50		 push	 eax
  0021a	68 00 00 00 00	 push	 OFFSET ??_C@_0BBE@CMGOCDEB@?$CD?$CD?$CD?$CDUM?$DN?$CFc?$EABOUNDMARK?$DN?$LA?$KB?$LA?$NN?B?w?F?$KO?3?$CFs@

; 961  : 			// 2011.01.24 by SYS <<
; 962  : 			//>>
; 963  : 				lcChtAE,
; 964  : 				pChartBInput->m_sUpLmtPrice, 
; 965  : 				pChartBInput->m_sDnLmtPrice, 
; 966  : 				pChartBInput->sShcode,
; 967  : 				recprice/100.0,
; 968  : 				'1',
; 969  : 				5,
; 970  : 				strPacketTime,
; 971  : 				//<<JS.Kim_20101012  StandartValue   y    
; 972  : 				pChartBInput->m_sPreprice,	
; 973  : 				volume,
; 974  : 				//>>
; 975  : 				strTDC, strTDC, strTDC, strTDC, strTDC, strTDC, strTDC, strTDC,
; 976  : 				pChartBInput->m_sFirstClose,//(double)pChartBInput->lFirstClose/100.0, 
; 977  : 				pChartBInput->m_sOpen, pChartBInput->m_sHigh, pChartBInput->m_sLow,
; 978  : 				pChartBInput->m_sLastDataTime);
; 979  : 		}

  0021f	e9 4f 03 00 00	 jmp	 $LN49@MakeChtBoj
$LN10@MakeChtBoj:

; 980  : 		else
; 981  : 		{
; 982  : 			// 
; 983  : 			//<<JS.Kim_20101012  StandartValue   y    
; 984  : 			//sprintf(lsBojo, "####UM=%c@BOUNDMARK=:%s,%s:%s:1:%.2f:%c@UD=4@UT=%ld@RDATET=MMDDHHMM@CB=_Close_:2|_Volume_:6|@PREVPRICE=_Close_:%s|_Volume_:%12.0f@TDC=%s:_Open_,|%s:_High_,|%s:_Low_,|%s:_Close_,@RDC=%s:-1:_Open_,|%s:-1:_High_,|%s:-1:_Low_,|%s:-1:_Close_,@SCD=%s@OHL=:%s:%s:%s@",
; 985  : 			
; 986  : 			// 2011.01.17 by SYS >>  YYYY()  : / 14Byte  (YYYYMMDDhhmmss)
; 987  : 			//sprintf(lsBojo, "####UM=%c@BOUNDMARK=:%s,%s:%s:1:%.2f:%c@UD=4@UT=%ld@RDATET=MMDDHHMM@CB=_Close_:2|_Volume_:6|@TDC=%s:_Open_,|%s:_High_,|%s:_Low_,|%s:_Close_,@RDC=%s:-1:_Open_,|%s:-1:_High_,|%s:-1:_Low_,|%s:-1:_Close_,@SCD=%s@OHL=:%s:%s:%s@",
; 988  : 			//sprintf(lsBojo, "####UM=%c@BOUNDMARK=:%s,%s:%s:1:%.2f:%c@UD=4@UT=%ld@RDATET=YYYYMMDDHHMMSS@CB=_Close_:2|_Volume_:6|@TDC=%s:_Open_,|%s:_High_,|%s:_Low_,|%s:_Close_,@RDC=%s:-1:_Open_,|%s:-1:_High_,|%s:-1:_Low_,|%s:-1:_Close_,@SCD=%s@OHL=:%s:%s:%s@",
; 989  : 
; 990  : 			if(pChartBInput->nPacketType==1)

  00224	83 f8 01	 cmp	 eax, 1
  00227	0f 85 c6 02 00
	00		 jne	 $LN14@MakeChtBoj

; 991  : 				strPacketTime = "MMDDHHMM";

  0022d	68 00 00 00 00	 push	 OFFSET ??_C@_08KLIIINKM@MMDDHHMM@
  00232	e9 c1 02 00 00	 jmp	 $LN51@MakeChtBoj
$LN8@MakeChtBoj:

; 992  : 			else
; 993  : 				strPacketTime = "YYYYMMDDHHMMSS";
; 994  : 
; 995  : 			sprintf(lsBojo, "####UM=%c@BOUNDMARK=:%s,%s:%s:1:%.2f:%c@UD=4@UT=%ld@RDATET=%s@CB=_Close_:2|_Volume_:6|@PREVPRICE=_Close_:%s|_Volume_:%12.0f@TDC=%s:_Open_,|%s:_High_,|%s:_Low_,|%s:_Close_,@RDC=%s:-1:_Open_,|%s:-1:_High_,|%s:-1:_Low_,|%s:-1:_Close_,@SCD=%s@OHL=:%s:%s:%s@DATATIME=%s@",
; 996  : 			// 2011.01.17 by SYS <<
; 997  : 			
; 998  : 			//>>
; 999  : 				lcChtAE,
; 1000 : 				pChartBInput->m_sUpLmtPrice, 
; 1001 : 				pChartBInput->m_sDnLmtPrice, 
; 1002 : 				pChartBInput->sShcode,
; 1003 : 				recprice/100.0,
; 1004 : 				'1',
; 1005 : 				pChartBInput->lTick,
; 1006 : 				strPacketTime,
; 1007 : 				//<<JS.Kim_20101012  StandartValue   y    
; 1008 : 				pChartBInput->m_sPreprice,//(double)pChartBInput->lPreprice/100.0,
; 1009 : 				volume,
; 1010 : 				//>>
; 1011 : 				strTDC, strTDC, strTDC, strTDC, strTDC, strTDC, strTDC, strTDC,
; 1012 : 				pChartBInput->m_sFirstClose,
; 1013 : 				pChartBInput->m_sOpen, pChartBInput->m_sHigh, pChartBInput->m_sLow,
; 1014 : 				pChartBInput->m_sLastDataTime);
; 1015 : 		}
; 1016 : 	}
; 1017 : 	else if (pChartBInput->sTerm[0] == '2')

  00237	3c 32		 cmp	 al, 50			; 00000032H
  00239	0f 85 58 01 00
	00		 jne	 $LN16@MakeChtBoj
; File C:\Program Files (x86)\Microsoft Visual Studio\2019\Community\VC\Tools\MSVC\14.29.30133\atlmfc\include\atlsimpstr.h

; 533  : 		return( GetLength() == 0 );

  0023f	8b 47 40	 mov	 eax, DWORD PTR [edi+64]
  00242	83 78 f4 00	 cmp	 DWORD PTR [eax-12], 0
; File D:\git\src\IBK\IBK_DRFN\ProjSrc\SrcDrfn\DrCommon\PartnerMng\_ChartBozoManager.cpp

; 1021 : 		if(pChartBInput->m_sStartTime.IsEmpty()==FALSE)

  00246	0f 84 b4 00 00
	00		 je	 $LN18@MakeChtBoj

; 1022 : 		{
; 1023 : 			sprintf(lsRelpsa, "RELPSA=%.6s:%.8s", pChartBInput->m_sStartTime, pChartBInput->sShcode);

  0024c	8d 77 68	 lea	 esi, DWORD PTR [edi+104]
  0024f	56		 push	 esi
  00250	50		 push	 eax
  00251	8d 85 7c ff ff
	ff		 lea	 eax, DWORD PTR _lsRelpsa$[ebp]
  00257	68 00 00 00 00	 push	 OFFSET ??_C@_0BB@BHEDDFJJ@RELPSA?$DN?$CF?46s?3?$CF?48s@
  0025c	50		 push	 eax
  0025d	e8 00 00 00 00	 call	 _sprintf
  00262	83 c4 10	 add	 esp, 16			; 00000010H

; 1024 : 			// 2011.01.20 by SYS >>  YYYY()  : / 14Byte  (YYYYMMDDhhmmss)
; 1025 : 			//sprintf(lsBojo, "####UM=%c@BOUNDMARK=:%s,%s:%s:1:%.2f:%c@UD=1@RDATET=YYYYMMDD@CB=_Close_:2|_Volume_:6|@%s@TDC=%s:_Open_,|%s:_High_,|%s:_Low_,|%s:_Close_,@RDC=%s:-1:_Open_,|%s:-1:_High_,|%s:-1:_Low_,|%s:-1:_Close_,@SCD=%s@OHL=:%s:%s:%s@",
; 1026 : 			//sprintf(lsBojo, "####UM=%c@BOUNDMARK=:%s,%s:%s:1:%.2f:%c@UD=1@RDATET=YYYYMMDDHHMMSS@CB=_Close_:2|_Volume_:6|@%s@TDC=%s:_Open_,|%s:_High_,|%s:_Low_,|%s:_Close_,@RDC=%s:-1:_Open_,|%s:-1:_High_,|%s:-1:_Low_,|%s:-1:_Close_,@SCD=%s@OHL=:%s:%s:%s@",
; 1027 : 
; 1028 : 			if(pChartBInput->nPacketType==1)

  00265	8d 8d 58 fc ff
	ff		 lea	 ecx, DWORD PTR _strPacketTime$[ebp]
  0026b	83 bf bc 00 00
	00 01		 cmp	 DWORD PTR [edi+188], 1
  00272	75 07		 jne	 SHORT $LN20@MakeChtBoj

; 1029 : 				strPacketTime = "YYYYMMDD";

  00274	68 00 00 00 00	 push	 OFFSET ??_C@_08DKDJLCMP@YYYYMMDD@
  00279	eb 05		 jmp	 SHORT $LN53@MakeChtBoj
$LN20@MakeChtBoj:

; 1030 : 			else
; 1031 : 				strPacketTime = "YYYYMMDDHHMMSS";

  0027b	68 00 00 00 00	 push	 OFFSET ??_C@_0P@IMPIBBAB@YYYYMMDDHHMMSS@
$LN53@MakeChtBoj:

; 1032 : 
; 1033 : 			sprintf(lsBojo, "####UM=%c@BOUNDMARK=:%s,%s:%s:1:%.2f:%c@UD=1@RDATET=%s@CB=_Close_:2|_Volume_:6|@%s@PREVPRICE=_Close_:%s@TDC=%s:_Open_,|%s:_High_,|%s:_Low_,|%s:_Close_,@RDC=%s:-1:_Open_,|%s:-1:_High_,|%s:-1:_Low_,|%s:-1:_Close_,@SCD=%s@OHL=:%s:%s:%s@DATATIME=%s@",

  00280	ff 15 00 00 00
	00		 call	 DWORD PTR __imp_??4?$CStringT@DV?$StrTraitMFC_DLL@DV?$ChTraitsCRT@D@ATL@@@@@ATL@@QAEAAV01@PBD@Z
  00286	ff b7 c0 00 00
	00		 push	 DWORD PTR [edi+192]
  0028c	f2 0f 10 85 4c
	fc ff ff	 movsd	 xmm0, QWORD PTR _recprice$1$[ebp]
  00294	ff 77 34	 push	 DWORD PTR [edi+52]
  00297	f2 0f 5e 05 00
	00 00 00	 divsd	 xmm0, QWORD PTR __real@4059000000000000
  0029f	8b 85 54 fc ff
	ff		 mov	 eax, DWORD PTR _strTDC$[ebp]
  002a5	ff 77 30	 push	 DWORD PTR [edi+48]
  002a8	ff 77 2c	 push	 DWORD PTR [edi+44]
  002ab	ff 77 44	 push	 DWORD PTR [edi+68]
  002ae	50		 push	 eax
  002af	50		 push	 eax
  002b0	50		 push	 eax
  002b1	50		 push	 eax
  002b2	50		 push	 eax
  002b3	50		 push	 eax
  002b4	50		 push	 eax
  002b5	50		 push	 eax
  002b6	ff 77 38	 push	 DWORD PTR [edi+56]
  002b9	8d 85 7c ff ff
	ff		 lea	 eax, DWORD PTR _lsRelpsa$[ebp]
  002bf	50		 push	 eax
  002c0	ff b5 58 fc ff
	ff		 push	 DWORD PTR _strPacketTime$[ebp]
  002c6	33 c0		 xor	 eax, eax
  002c8	6a 31		 push	 49			; 00000031H
  002ca	83 ec 08	 sub	 esp, 8
  002cd	80 fb 31	 cmp	 bl, 49			; 00000031H
  002d0	0f 95 c0	 setne	 al
  002d3	f2 0f 11 04 24	 movsd	 QWORD PTR [esp], xmm0
  002d8	56		 push	 esi
  002d9	ff 77 28	 push	 DWORD PTR [edi+40]
  002dc	8d 04 85 41 00
	00 00		 lea	 eax, DWORD PTR [eax*4+65]
  002e3	ff 77 24	 push	 DWORD PTR [edi+36]
  002e6	50		 push	 eax
  002e7	8d 85 5c fc ff
	ff		 lea	 eax, DWORD PTR _lsBojo$[ebp]
  002ed	68 00 00 00 00	 push	 OFFSET ??_C@_0PO@FAPKIOBH@?$CD?$CD?$CD?$CDUM?$DN?$CFc?$EABOUNDMARK?$DN?$LA?$KB?$LA?$NN?B?w?F?$KO?3?$CFs@
  002f2	50		 push	 eax
  002f3	e8 00 00 00 00	 call	 _sprintf
  002f8	83 c4 64	 add	 esp, 100		; 00000064H

; 1034 : 			// 2011.01.20 by SYS <<
; 1035 : 				lcChtAE,
; 1036 : 				pChartBInput->m_sUpLmtPrice, 
; 1037 : 				pChartBInput->m_sDnLmtPrice, 
; 1038 : 				pChartBInput->sShcode,
; 1039 : 				recprice/100.0,
; 1040 : 				'1',
; 1041 : 				strPacketTime,
; 1042 : 				lsRelpsa,
; 1043 : 				pChartBInput->m_sPreprice,//JS.Kim_20101012  StandartValue   y    
; 1044 : 				strTDC, strTDC, strTDC, strTDC, strTDC, strTDC, strTDC, strTDC,
; 1045 : 				pChartBInput->m_sFirstClose,//(double)pChartBInput->lFirstClose/100.0, 
; 1046 : 				pChartBInput->m_sOpen, pChartBInput->m_sHigh, pChartBInput->m_sLow,
; 1047 : 				pChartBInput->m_sLastDataTime);
; 1048 : 		}

  002fb	e9 82 02 00 00	 jmp	 $LN33@MakeChtBoj
$LN18@MakeChtBoj:

; 1049 : 		else
; 1050 : 		{
; 1051 : 			//<<JS.Kim_20101012  StandartValue   y    
; 1052 : 			//sprintf(lsBojo, "####UM=%c@BOUNDMARK=:%s,%s:%s:1:%.2f:%c@UD=1@RDATET=YYYYMMDD@CB=_Close_:2|_Volume_:6|@@PREVPRICE=_Close_:%s@TDC=%s:_Open_,|%s:_High_,|%s:_Low_,|%s:_Close_,@RDC=%s:-1:_Open_,|%s:-1:_High_,|%s:-1:_Low_,|%s:-1:_Close_,@SCD=%s@OHL=:%s:%s:%s@",
; 1053 : 			// 2011.01.20 by SYS >>  YYYY()  : / 14Byte  (YYYYMMDDhhmmss)
; 1054 : 			//sprintf(lsBojo, "####UM=%c@BOUNDMARK=:%s,%s:%s:1:%.2f:%c@UD=1@RDATET=YYYYMMDD@CB=_Close_:2|_Volume_:6|@@TDC=%s:_Open_,|%s:_High_,|%s:_Low_,|%s:_Close_,@RDC=%s:-1:_Open_,|%s:-1:_High_,|%s:-1:_Low_,|%s:-1:_Close_,@SCD=%s@OHL=:%s:%s:%s@",
; 1055 : 			//sprintf(lsBojo, "####UM=%c@BOUNDMARK=:%s,%s:%s:1:%.2f:%c@UD=1@RDATET=YYYYMMDDHHMMSS@CB=_Close_:2|_Volume_:6|@@TDC=%s:_Open_,|%s:_High_,|%s:_Low_,|%s:_Close_,@RDC=%s:-1:_Open_,|%s:-1:_High_,|%s:-1:_Low_,|%s:-1:_Close_,@SCD=%s@OHL=:%s:%s:%s@",
; 1056 : 
; 1057 : 			if(pChartBInput->nPacketType==1)

  00300	83 bf bc 00 00
	00 01		 cmp	 DWORD PTR [edi+188], 1
  00307	8d 8d 58 fc ff
	ff		 lea	 ecx, DWORD PTR _strPacketTime$[ebp]
  0030d	75 07		 jne	 SHORT $LN22@MakeChtBoj

; 1058 : 				strPacketTime = "YYYYMMDD";

  0030f	68 00 00 00 00	 push	 OFFSET ??_C@_08DKDJLCMP@YYYYMMDD@
  00314	eb 05		 jmp	 SHORT $LN54@MakeChtBoj
$LN22@MakeChtBoj:

; 1059 : 			else
; 1060 : 				strPacketTime = "YYYYMMDDHHMMSS";

  00316	68 00 00 00 00	 push	 OFFSET ??_C@_0P@IMPIBBAB@YYYYMMDDHHMMSS@
$LN54@MakeChtBoj:

; 1061 : 
; 1062 : 			sprintf(lsBojo, "####UM=%c@BOUNDMARK=:%s,%s:%s:1:%.2f:%c@UD=1@RDATET=%s@CB=_Close_:2|_Volume_:6|@PREVPRICE=_Close_:%s@TDC=%s:_Open_,|%s:_High_,|%s:_Low_,|%s:_Close_,@RDC=%s:-1:_Open_,|%s:-1:_High_,|%s:-1:_Low_,|%s:-1:_Close_,@SCD=%s@OHL=:%s:%s:%s@DATATIME=%s@",

  0031b	ff 15 00 00 00
	00		 call	 DWORD PTR __imp_??4?$CStringT@DV?$StrTraitMFC_DLL@DV?$ChTraitsCRT@D@ATL@@@@@ATL@@QAEAAV01@PBD@Z
  00321	ff b7 c0 00 00
	00		 push	 DWORD PTR [edi+192]
  00327	f2 0f 10 85 4c
	fc ff ff	 movsd	 xmm0, QWORD PTR _recprice$1$[ebp]
  0032f	f2 0f 5e 05 00
	00 00 00	 divsd	 xmm0, QWORD PTR __real@4059000000000000
  00337	8b 85 54 fc ff
	ff		 mov	 eax, DWORD PTR _strTDC$[ebp]
  0033d	ff 77 34	 push	 DWORD PTR [edi+52]
  00340	ff 77 30	 push	 DWORD PTR [edi+48]
  00343	ff 77 2c	 push	 DWORD PTR [edi+44]
  00346	ff 77 44	 push	 DWORD PTR [edi+68]
  00349	50		 push	 eax
  0034a	50		 push	 eax
  0034b	50		 push	 eax
  0034c	50		 push	 eax
  0034d	50		 push	 eax
  0034e	50		 push	 eax
  0034f	50		 push	 eax
  00350	50		 push	 eax
  00351	ff 77 38	 push	 DWORD PTR [edi+56]
  00354	8d 47 68	 lea	 eax, DWORD PTR [edi+104]
  00357	ff b5 58 fc ff
	ff		 push	 DWORD PTR _strPacketTime$[ebp]
  0035d	6a 31		 push	 49			; 00000031H
  0035f	83 ec 08	 sub	 esp, 8
  00362	f2 0f 11 04 24	 movsd	 QWORD PTR [esp], xmm0
  00367	50		 push	 eax
  00368	ff 77 28	 push	 DWORD PTR [edi+40]
  0036b	33 c0		 xor	 eax, eax
  0036d	80 fb 31	 cmp	 bl, 49			; 00000031H
  00370	ff 77 24	 push	 DWORD PTR [edi+36]
  00373	0f 95 c0	 setne	 al
  00376	8d 04 85 41 00
	00 00		 lea	 eax, DWORD PTR [eax*4+65]
  0037d	50		 push	 eax
  0037e	8d 85 5c fc ff
	ff		 lea	 eax, DWORD PTR _lsBojo$[ebp]
  00384	68 00 00 00 00	 push	 OFFSET ??_C@_0PL@EGCBFIOB@?$CD?$CD?$CD?$CDUM?$DN?$CFc?$EABOUNDMARK?$DN?$LA?$KB?$LA?$NN?B?w?F?$KO?3?$CFs@
  00389	50		 push	 eax
  0038a	e8 00 00 00 00	 call	 _sprintf
  0038f	83 c4 60	 add	 esp, 96			; 00000060H

; 1063 : 			// 2011.01.20 by SYS 
; 1064 : 			//>>
; 1065 : 				lcChtAE,
; 1066 : 				pChartBInput->m_sUpLmtPrice, 
; 1067 : 				pChartBInput->m_sDnLmtPrice, 
; 1068 : 				pChartBInput->sShcode,
; 1069 : 				recprice/100.0,
; 1070 : 				'1',
; 1071 : 				strPacketTime,
; 1072 : 				pChartBInput->m_sPreprice,//JS.Kim_20101012  StandartValue   y    
; 1073 : 				strTDC, strTDC, strTDC, strTDC, strTDC, strTDC, strTDC, strTDC,
; 1074 : 				pChartBInput->m_sFirstClose,//(double)pChartBInput->lFirstClose/100.0, 
; 1075 : 				pChartBInput->m_sOpen, pChartBInput->m_sHigh, pChartBInput->m_sLow,
; 1076 : 				pChartBInput->m_sLastDataTime);
; 1077 : 		}
; 1078 : 	}

  00392	e9 eb 01 00 00	 jmp	 $LN33@MakeChtBoj
$LN16@MakeChtBoj:

; 1079 : 	else if (pChartBInput->sTerm[0] == '3')

  00397	3c 33		 cmp	 al, 51			; 00000033H
  00399	0f 85 97 00 00
	00		 jne	 $LN24@MakeChtBoj

; 1080 : 	{
; 1081 : 		//<<JS.Kim_20101012  StandartValue   y    
; 1082 :    		//sprintf(lsBojo, "####UM=%c@BOUNDMARK=:%s,%s:%s:1:%.2f:%c@UD=2@RDATET=YYYYMMDD@CB=_Close_:2|_Volume_:6|@PREVPRICE=_Close_:%s@TDC=%s:_Open_,|%s:_High_,|%s:_Low_,|%s:_Close_,@RDC=%s:-1:_Open_,|%s:-1:_High_,|%s:-1:_Low_,|%s:-1:_Close_,@SCD=%s@OHL=:%s:%s:%s@",
; 1083 : 		// 2011.01.24 by SYS >>  YYYY()  : / 14Byte  (YYYYMMDDhhmmss)
; 1084 :    		//sprintf(lsBojo, "####UM=%c@BOUNDMARK=:%s,%s:%s:1:%.2f:%c@UD=2@RDATET=YYYYMMDD@CB=_Close_:2|_Volume_:6|@TDC=%s:_Open_,|%s:_High_,|%s:_Low_,|%s:_Close_,@RDC=%s:-1:_Open_,|%s:-1:_High_,|%s:-1:_Low_,|%s:-1:_Close_,@SCD=%s@OHL=:%s:%s:%s@",
; 1085 : 		//sprintf(lsBojo, "####UM=%c@BOUNDMARK=:%s,%s:%s:1:%.2f:%c@UD=2@RDATET=YYYYMMDDHHMMSS@CB=_Close_:2|_Volume_:6|@TDC=%s:_Open_,|%s:_High_,|%s:_Low_,|%s:_Close_,@RDC=%s:-1:_Open_,|%s:-1:_High_,|%s:-1:_Low_,|%s:-1:_Close_,@SCD=%s@OHL=:%s:%s:%s@",
; 1086 : 
; 1087 : 		if(pChartBInput->nPacketType==1)

  0039f	83 bf bc 00 00
	00 01		 cmp	 DWORD PTR [edi+188], 1
  003a6	8d 8d 58 fc ff
	ff		 lea	 ecx, DWORD PTR _strPacketTime$[ebp]
  003ac	75 07		 jne	 SHORT $LN26@MakeChtBoj

; 1088 : 			strPacketTime = "YYYYMMDD";

  003ae	68 00 00 00 00	 push	 OFFSET ??_C@_08DKDJLCMP@YYYYMMDD@
  003b3	eb 05		 jmp	 SHORT $LN55@MakeChtBoj
$LN26@MakeChtBoj:

; 1089 : 		else
; 1090 : 			strPacketTime = "YYYYMMDDHHMMSS";

  003b5	68 00 00 00 00	 push	 OFFSET ??_C@_0P@IMPIBBAB@YYYYMMDDHHMMSS@
$LN55@MakeChtBoj:

; 1091 : 
; 1092 : 		sprintf(lsBojo, "####UM=%c@BOUNDMARK=:%s,%s:%s:1:%.2f:%c@UD=2@RDATET=%s@CB=_Close_:2|_Volume_:6|@PREVPRICE=_Close_:%s@TDC=%s:_Open_,|%s:_High_,|%s:_Low_,|%s:_Close_,@RDC=%s:-1:_Open_,|%s:-1:_High_,|%s:-1:_Low_,|%s:-1:_Close_,@SCD=%s@OHL=:%s:%s:%s@DATATIME=%s@",

  003ba	ff 15 00 00 00
	00		 call	 DWORD PTR __imp_??4?$CStringT@DV?$StrTraitMFC_DLL@DV?$ChTraitsCRT@D@ATL@@@@@ATL@@QAEAAV01@PBD@Z
  003c0	ff b7 c0 00 00
	00		 push	 DWORD PTR [edi+192]
  003c6	f2 0f 10 85 4c
	fc ff ff	 movsd	 xmm0, QWORD PTR _recprice$1$[ebp]
  003ce	f2 0f 5e 05 00
	00 00 00	 divsd	 xmm0, QWORD PTR __real@4059000000000000
  003d6	8b 85 54 fc ff
	ff		 mov	 eax, DWORD PTR _strTDC$[ebp]
  003dc	ff 77 34	 push	 DWORD PTR [edi+52]
  003df	ff 77 30	 push	 DWORD PTR [edi+48]
  003e2	ff 77 2c	 push	 DWORD PTR [edi+44]
  003e5	ff 77 44	 push	 DWORD PTR [edi+68]
  003e8	50		 push	 eax
  003e9	50		 push	 eax
  003ea	50		 push	 eax
  003eb	50		 push	 eax
  003ec	50		 push	 eax
  003ed	50		 push	 eax
  003ee	50		 push	 eax
  003ef	50		 push	 eax
  003f0	ff 77 38	 push	 DWORD PTR [edi+56]
  003f3	8d 47 68	 lea	 eax, DWORD PTR [edi+104]
  003f6	ff b5 58 fc ff
	ff		 push	 DWORD PTR _strPacketTime$[ebp]
  003fc	6a 31		 push	 49			; 00000031H
  003fe	83 ec 08	 sub	 esp, 8
  00401	f2 0f 11 04 24	 movsd	 QWORD PTR [esp], xmm0
  00406	50		 push	 eax
  00407	ff 77 28	 push	 DWORD PTR [edi+40]
  0040a	33 c0		 xor	 eax, eax
  0040c	80 fb 31	 cmp	 bl, 49			; 00000031H
  0040f	ff 77 24	 push	 DWORD PTR [edi+36]
  00412	0f 95 c0	 setne	 al
  00415	8d 04 85 41 00
	00 00		 lea	 eax, DWORD PTR [eax*4+65]
  0041c	50		 push	 eax
  0041d	8d 85 5c fc ff
	ff		 lea	 eax, DWORD PTR _lsBojo$[ebp]
  00423	68 00 00 00 00	 push	 OFFSET ??_C@_0PL@CIOONNG@?$CD?$CD?$CD?$CDUM?$DN?$CFc?$EABOUNDMARK?$DN?$LA?$KB?$LA?$NN?B?w?F?$KO?3?$CFs@
  00428	50		 push	 eax
  00429	e8 00 00 00 00	 call	 _sprintf
  0042e	83 c4 60	 add	 esp, 96			; 00000060H

; 1093 : 		// 2011.01.24 by SYS <<
; 1094 : 		//>>
; 1095 : 			lcChtAE,
; 1096 : 			pChartBInput->m_sUpLmtPrice, 
; 1097 : 			pChartBInput->m_sDnLmtPrice, 
; 1098 : 			pChartBInput->sShcode,
; 1099 : 			recprice/100.0,
; 1100 : 			'1',
; 1101 : 			strPacketTime,
; 1102 : 			pChartBInput->m_sPreprice,//JS.Kim_20101012  StandartValue   y    
; 1103 : 			strTDC, strTDC, strTDC, strTDC, strTDC, strTDC, strTDC, strTDC,
; 1104 : 			pChartBInput->m_sFirstClose,//(double)pChartBInput->lFirstClose/100.0, 
; 1105 : 			pChartBInput->m_sOpen, pChartBInput->m_sHigh, pChartBInput->m_sLow,
; 1106 : 			pChartBInput->m_sLastDataTime);
; 1107 : 	}

  00431	e9 4c 01 00 00	 jmp	 $LN33@MakeChtBoj
$LN24@MakeChtBoj:

; 1108 : 	else if (pChartBInput->sTerm[0] == '4')

  00436	3c 34		 cmp	 al, 52			; 00000034H
  00438	0f 85 97 00 00
	00		 jne	 $LN28@MakeChtBoj

; 1109 : 	{
; 1110 : 		//<<JS.Kim_20101012  StandartValue   y    
; 1111 : 		//sprintf(lsBojo, "####UM=%c@BOUNDMARK=:%s,%s:%s:1:%.2f:%c@UD=3@RDATET=YYYYMM@CB=_Close_:2|_Volume_:6|@PREVPRICE=_Close_:%s@TDC=%s:_Open_,|%s:_High_,|%s:_Low_,|%s:_Close_,@RDC=%s:-1:_Open_,|%s:-1:_High_,|%s:-1:_Low_,|%s:-1:_Close_,@SCD=%s@OHL=:%s:%s:%s@",
; 1112 : 		// 2011.01.24 by SYS >>  YYYY()  : / 14Byte  (YYYYMMDDhhmmss)
; 1113 : 		//sprintf(lsBojo, "####UM=%c@BOUNDMARK=:%s,%s:%s:1:%.2f:%c@UD=3@RDATET=YYYYMM@CB=_Close_:2|_Volume_:6|@TDC=%s:_Open_,|%s:_High_,|%s:_Low_,|%s:_Close_,@RDC=%s:-1:_Open_,|%s:-1:_High_,|%s:-1:_Low_,|%s:-1:_Close_,@SCD=%s@OHL=:%s:%s:%s@",
; 1114 : 		//sprintf(lsBojo, "####UM=%c@BOUNDMARK=:%s,%s:%s:1:%.2f:%c@UD=3@RDATET=YYYYMMDDHHMMSS@CB=_Close_:2|_Volume_:6|@TDC=%s:_Open_,|%s:_High_,|%s:_Low_,|%s:_Close_,@RDC=%s:-1:_Open_,|%s:-1:_High_,|%s:-1:_Low_,|%s:-1:_Close_,@SCD=%s@OHL=:%s:%s:%s@",
; 1115 : 
; 1116 : 		if(pChartBInput->nPacketType==1)

  0043e	83 bf bc 00 00
	00 01		 cmp	 DWORD PTR [edi+188], 1
  00445	8d 8d 58 fc ff
	ff		 lea	 ecx, DWORD PTR _strPacketTime$[ebp]
  0044b	75 07		 jne	 SHORT $LN30@MakeChtBoj

; 1117 : 			strPacketTime = "YYYYMM";

  0044d	68 00 00 00 00	 push	 OFFSET ??_C@_06EBMMBHJD@YYYYMM@
  00452	eb 05		 jmp	 SHORT $LN56@MakeChtBoj
$LN30@MakeChtBoj:

; 1118 : 		else
; 1119 : 			strPacketTime = "YYYYMMDDHHMMSS";

  00454	68 00 00 00 00	 push	 OFFSET ??_C@_0P@IMPIBBAB@YYYYMMDDHHMMSS@
$LN56@MakeChtBoj:

; 1120 : 
; 1121 : 		sprintf(lsBojo, "####UM=%c@BOUNDMARK=:%s,%s:%s:1:%.2f:%c@UD=3@RDATET=%s@CB=_Close_:2|_Volume_:6|@PREVPRICE=_Close_:%s@TDC=%s:_Open_,|%s:_High_,|%s:_Low_,|%s:_Close_,@RDC=%s:-1:_Open_,|%s:-1:_High_,|%s:-1:_Low_,|%s:-1:_Close_,@SCD=%s@OHL=:%s:%s:%s@DATATIME=%s@",

  00459	ff 15 00 00 00
	00		 call	 DWORD PTR __imp_??4?$CStringT@DV?$StrTraitMFC_DLL@DV?$ChTraitsCRT@D@ATL@@@@@ATL@@QAEAAV01@PBD@Z
  0045f	ff b7 c0 00 00
	00		 push	 DWORD PTR [edi+192]
  00465	f2 0f 10 85 4c
	fc ff ff	 movsd	 xmm0, QWORD PTR _recprice$1$[ebp]
  0046d	f2 0f 5e 05 00
	00 00 00	 divsd	 xmm0, QWORD PTR __real@4059000000000000
  00475	8b 85 54 fc ff
	ff		 mov	 eax, DWORD PTR _strTDC$[ebp]
  0047b	ff 77 34	 push	 DWORD PTR [edi+52]
  0047e	ff 77 30	 push	 DWORD PTR [edi+48]
  00481	ff 77 2c	 push	 DWORD PTR [edi+44]
  00484	ff 77 44	 push	 DWORD PTR [edi+68]
  00487	50		 push	 eax
  00488	50		 push	 eax
  00489	50		 push	 eax
  0048a	50		 push	 eax
  0048b	50		 push	 eax
  0048c	50		 push	 eax
  0048d	50		 push	 eax
  0048e	50		 push	 eax
  0048f	ff 77 38	 push	 DWORD PTR [edi+56]
  00492	8d 47 68	 lea	 eax, DWORD PTR [edi+104]
  00495	ff b5 58 fc ff
	ff		 push	 DWORD PTR _strPacketTime$[ebp]
  0049b	6a 31		 push	 49			; 00000031H
  0049d	83 ec 08	 sub	 esp, 8
  004a0	f2 0f 11 04 24	 movsd	 QWORD PTR [esp], xmm0
  004a5	50		 push	 eax
  004a6	ff 77 28	 push	 DWORD PTR [edi+40]
  004a9	33 c0		 xor	 eax, eax
  004ab	80 fb 31	 cmp	 bl, 49			; 00000031H
  004ae	ff 77 24	 push	 DWORD PTR [edi+36]
  004b1	0f 95 c0	 setne	 al
  004b4	8d 04 85 41 00
	00 00		 lea	 eax, DWORD PTR [eax*4+65]
  004bb	50		 push	 eax
  004bc	8d 85 5c fc ff
	ff		 lea	 eax, DWORD PTR _lsBojo$[ebp]
  004c2	68 00 00 00 00	 push	 OFFSET ??_C@_0PL@DOOLIBDL@?$CD?$CD?$CD?$CDUM?$DN?$CFc?$EABOUNDMARK?$DN?$LA?$KB?$LA?$NN?B?w?F?$KO?3?$CFs@
  004c7	50		 push	 eax
  004c8	e8 00 00 00 00	 call	 _sprintf
  004cd	83 c4 60	 add	 esp, 96			; 00000060H

; 1122 : 		// 2011.01.24 by SYS <<
; 1123 : 		//>>
; 1124 : 			lcChtAE,
; 1125 : 			pChartBInput->m_sUpLmtPrice, 
; 1126 : 			pChartBInput->m_sDnLmtPrice, 
; 1127 : 			pChartBInput->sShcode,
; 1128 : 			recprice/100.0,
; 1129 : 			'1',
; 1130 : 			strPacketTime,
; 1131 : 			pChartBInput->m_sPreprice,//JS.Kim_20101012  StandartValue   y    
; 1132 : 			strTDC, strTDC, strTDC, strTDC, strTDC, strTDC, strTDC, strTDC,
; 1133 : 			pChartBInput->m_sFirstClose,//(double)pChartBInput->lFirstClose/100.0, 
; 1134 : 			pChartBInput->m_sOpen, pChartBInput->m_sHigh, pChartBInput->m_sLow,
; 1135 : 			pChartBInput->m_sLastDataTime);
; 1136 : 	}

  004d0	e9 ad 00 00 00	 jmp	 $LN33@MakeChtBoj
$LN28@MakeChtBoj:

; 1137 : 	else if (pChartBInput->sTerm[0] == '6')

  004d5	3c 36		 cmp	 al, 54			; 00000036H
  004d7	0f 85 ce 00 00
	00		 jne	 $LN32@MakeChtBoj

; 1138 : 	{
; 1139 : 		//<<JS.Kim_20101012  StandartValue   y    
; 1140 : 		//sprintf(lsBojo, "####UM=%c@BOUNDMARK=:%s,%s:%s:1:%.2f:%c@UD=4@UT=%ld@RDATET=DDHHMMSS@CB=_Close_:2|_Volume_:6|@PREVPRICE=_Close_:%s|_Volume_:%12.0f@TDC=%s:_Open_,|%s:_High_,|%s:_Low_,|%s:_Close_,@RDC=%s:-1:_Open_,|%s:-1:_High_,|%s:-1:_Low_,|%s:-1:_Close_,@SCD=%s@OHL=:%s:%s:%s@",
; 1141 : 		// 2011.01.24 by SYS >>  YYYY()  : / 14Byte  (YYYYMMDDhhmmss)
; 1142 : 		//sprintf(lsBojo, "####UM=%c@BOUNDMARK=:%s,%s:%s:1:%.2f:%c@UD=4@UT=%ld@RDATET=DDHHMMSS@CB=_Close_:2|_Volume_:6|@TDC=%s:_Open_,|%s:_High_,|%s:_Low_,|%s:_Close_,@RDC=%s:-1:_Open_,|%s:-1:_High_,|%s:-1:_Low_,|%s:-1:_Close_,@SCD=%s@OHL=:%s:%s:%s@",
; 1143 : 		//sprintf(lsBojo, "####UM=%c@BOUNDMARK=:%s,%s:%s:1:%.2f:%c@UD=4@UT=%ld@RDATET=YYYYMMDDHHMMSS@CB=_Close_:2|_Volume_:6|@TDC=%s:_Open_,|%s:_High_,|%s:_Low_,|%s:_Close_,@RDC=%s:-1:_Open_,|%s:-1:_High_,|%s:-1:_Low_,|%s:-1:_Close_,@SCD=%s@OHL=:%s:%s:%s@",
; 1144 : 
; 1145 : 		if(pChartBInput->nPacketType==1)

  004dd	83 bf bc 00 00
	00 01		 cmp	 DWORD PTR [edi+188], 1
  004e4	8d 8d 58 fc ff
	ff		 lea	 ecx, DWORD PTR _strPacketTime$[ebp]
  004ea	75 07		 jne	 SHORT $LN14@MakeChtBoj

; 1146 : 			strPacketTime = "DDHHMMSS";

  004ec	68 00 00 00 00	 push	 OFFSET ??_C@_08JFMBEEDE@DDHHMMSS@
  004f1	eb 05		 jmp	 SHORT $LN51@MakeChtBoj
$LN14@MakeChtBoj:

; 1147 : 		else
; 1148 : 			strPacketTime = "YYYYMMDDHHMMSS";
; 1149 : 
; 1150 : 		sprintf(lsBojo, "####UM=%c@BOUNDMARK=:%s,%s:%s:1:%.2f:%c@UD=4@UT=%ld@RDATET=%s@CB=_Close_:2|_Volume_:6|@PREVPRICE=_Close_:%s|_Volume_:%12.0f@TDC=%s:_Open_,|%s:_High_,|%s:_Low_,|%s:_Close_,@RDC=%s:-1:_Open_,|%s:-1:_High_,|%s:-1:_Low_,|%s:-1:_Close_,@SCD=%s@OHL=:%s:%s:%s@DATATIME=%s@",
; 1151 : 		// 2011.01.24 by SYS <<
; 1152 : 		//>>
; 1153 : 			lcChtAE,
; 1154 : 			pChartBInput->m_sUpLmtPrice, 
; 1155 : 			pChartBInput->m_sDnLmtPrice, 
; 1156 : 			pChartBInput->sShcode,
; 1157 : 			recprice/100.0,
; 1158 : 			'1',
; 1159 : 			pChartBInput->lTick,
; 1160 : 			strPacketTime,
; 1161 : 			//<<JS.Kim_20101012  StandartValue   y    
; 1162 : 			pChartBInput->m_sPreprice,
; 1163 : 			volume,
; 1164 : 			//>>
; 1165 : 			strTDC, strTDC, strTDC, strTDC, strTDC, strTDC, strTDC, strTDC,
; 1166 : 			pChartBInput->m_sFirstClose,//(double)pChartBInput->lFirstClose/100.0, 
; 1167 : 			pChartBInput->m_sOpen, pChartBInput->m_sHigh, pChartBInput->m_sLow,
; 1168 : 			pChartBInput->m_sLastDataTime);
; 1169 : 	}
; 1170 : 	else
; 1171 : 	{
; 1172 : 		return 0;
; 1173 : 	}
; 1174 : 
; 1175 : 
; 1176 : 	rString = lsBojo;

  004f3	68 00 00 00 00	 push	 OFFSET ??_C@_0P@IMPIBBAB@YYYYMMDDHHMMSS@
$LN51@MakeChtBoj:
  004f8	ff 15 00 00 00
	00		 call	 DWORD PTR __imp_??4?$CStringT@DV?$StrTraitMFC_DLL@DV?$ChTraitsCRT@D@ATL@@@@@ATL@@QAEAAV01@PBD@Z
  004fe	ff b7 c0 00 00
	00		 push	 DWORD PTR [edi+192]
  00504	8b 85 54 fc ff
	ff		 mov	 eax, DWORD PTR _strTDC$[ebp]
  0050a	ff 77 34	 push	 DWORD PTR [edi+52]
  0050d	f2 0f 10 85 44
	fc ff ff	 movsd	 xmm0, QWORD PTR _volume$1$[ebp]
  00515	ff 77 30	 push	 DWORD PTR [edi+48]
  00518	ff 77 2c	 push	 DWORD PTR [edi+44]
  0051b	ff 77 44	 push	 DWORD PTR [edi+68]
  0051e	50		 push	 eax
  0051f	50		 push	 eax
  00520	50		 push	 eax
  00521	50		 push	 eax
  00522	50		 push	 eax
  00523	50		 push	 eax
  00524	50		 push	 eax
  00525	50		 push	 eax
  00526	83 ec 08	 sub	 esp, 8
  00529	8d 47 68	 lea	 eax, DWORD PTR [edi+104]
  0052c	f2 0f 11 04 24	 movsd	 QWORD PTR [esp], xmm0
  00531	f2 0f 10 85 4c
	fc ff ff	 movsd	 xmm0, QWORD PTR _recprice$1$[ebp]
  00539	f2 0f 5e 05 00
	00 00 00	 divsd	 xmm0, QWORD PTR __real@4059000000000000
  00541	ff 77 38	 push	 DWORD PTR [edi+56]
  00544	ff b5 58 fc ff
	ff		 push	 DWORD PTR _strPacketTime$[ebp]
  0054a	ff 77 78	 push	 DWORD PTR [edi+120]
  0054d	6a 31		 push	 49			; 00000031H
  0054f	83 ec 08	 sub	 esp, 8
  00552	f2 0f 11 04 24	 movsd	 QWORD PTR [esp], xmm0
  00557	50		 push	 eax
  00558	ff 77 28	 push	 DWORD PTR [edi+40]
  0055b	33 c0		 xor	 eax, eax
  0055d	80 fb 31	 cmp	 bl, 49			; 00000031H
  00560	ff 77 24	 push	 DWORD PTR [edi+36]
  00563	0f 95 c0	 setne	 al
  00566	8d 04 85 41 00
	00 00		 lea	 eax, DWORD PTR [eax*4+65]
  0056d	50		 push	 eax
  0056e	68 00 00 00 00	 push	 OFFSET ??_C@_0BBC@CIOGPLEJ@?$CD?$CD?$CD?$CDUM?$DN?$CFc?$EABOUNDMARK?$DN?$LA?$KB?$LA?$NN?B?w?F?$KO?3?$CFs@
$LN49@MakeChtBoj:
  00573	8d 85 5c fc ff
	ff		 lea	 eax, DWORD PTR _lsBojo$[ebp]
  00579	50		 push	 eax
  0057a	e8 00 00 00 00	 call	 _sprintf
  0057f	83 c4 6c	 add	 esp, 108		; 0000006cH
$LN33@MakeChtBoj:
  00582	8b 9d 40 fc ff
	ff		 mov	 ebx, DWORD PTR _rString$GSCopy$1$[ebp]
  00588	8d 85 5c fc ff
	ff		 lea	 eax, DWORD PTR _lsBojo$[ebp]
  0058e	50		 push	 eax
  0058f	8b cb		 mov	 ecx, ebx
  00591	ff 15 00 00 00
	00		 call	 DWORD PTR __imp_??4?$CStringT@DV?$StrTraitMFC_DLL@DV?$ChTraitsCRT@D@ATL@@@@@ATL@@QAEAAV01@PBD@Z

; 1177 : 	rString += _T("REALTIMET=YYYYMMDDHHMMSS@RESETUSEREAL=1@");

  00597	68 00 00 00 00	 push	 OFFSET ??_C@_0CJ@CALGHGEA@REALTIMET?$DNYYYYMMDDHHMMSS?$EARESETU@
  0059c	8b cb		 mov	 ecx, ebx
  0059e	ff 15 00 00 00
	00		 call	 DWORD PTR __imp_??Y?$CStringT@DV?$StrTraitMFC_DLL@DV?$ChTraitsCRT@D@ATL@@@@@ATL@@QAEAAV01@PBD@Z
; File C:\Program Files (x86)\Microsoft Visual Studio\2019\Community\VC\Tools\MSVC\14.29.30133\atlmfc\include\atlsimpstr.h

; 519  : 		return( GetData()->nDataLength );

  005a4	8b 03		 mov	 eax, DWORD PTR [ebx]
  005a6	8b 70 f4	 mov	 esi, DWORD PTR [eax-12]
  005a9	eb 02		 jmp	 SHORT $LN37@MakeChtBoj
$LN32@MakeChtBoj:
  005ab	33 f6		 xor	 esi, esi
$LN37@MakeChtBoj:
; File D:\git\src\IBK\IBK_DRFN\ProjSrc\SrcDrfn\DrCommon\PartnerMng\_ChartBozoManager.cpp

; 1179 : 	return rString.GetLength();

  005ad	8d 8d 54 fc ff
	ff		 lea	 ecx, DWORD PTR _strTDC$[ebp]
  005b3	ff 15 00 00 00
	00		 call	 DWORD PTR __imp_??1?$CStringT@DV?$StrTraitMFC_DLL@DV?$ChTraitsCRT@D@ATL@@@@@ATL@@QAE@XZ
  005b9	8d 8d 58 fc ff
	ff		 lea	 ecx, DWORD PTR _strPacketTime$[ebp]
  005bf	ff 15 00 00 00
	00		 call	 DWORD PTR __imp_??1?$CStringT@DV?$StrTraitMFC_DLL@DV?$ChTraitsCRT@D@ATL@@@@@ATL@@QAE@XZ

; 1180 : }

  005c5	8b 4d fc	 mov	 ecx, DWORD PTR __$ArrayPad$[ebp]
  005c8	8b c6		 mov	 eax, esi
  005ca	5f		 pop	 edi
  005cb	5e		 pop	 esi
  005cc	33 cd		 xor	 ecx, ebp
  005ce	5b		 pop	 ebx
  005cf	e8 00 00 00 00	 call	 @__security_check_cookie@4
  005d4	8b e5		 mov	 esp, ebp
  005d6	5d		 pop	 ebp
  005d7	c2 10 00	 ret	 16			; 00000010H
?MakeChtBojo_ctfofor@CChartBozoManager@@UAGHPAVCChartBozoInput@@AAV?$CStringT@DV?$StrTraitMFC_DLL@DV?$ChTraitsCRT@D@ATL@@@@@ATL@@H@Z ENDP ; CChartBozoManager::MakeChtBojo_ctfofor
_TEXT	ENDS
; Function compile flags: /Ogtp
; File D:\git\src\IBK\IBK_DRFN\ProjSrc\SrcDrfn\DrCommon\PartnerMng\_ChartBozoManager.cpp
;	COMDAT ?MakeChtBojo_market@CChartBozoManager@@UAGHPAVCChartBozoInput@@AAV?$CStringT@DV?$StrTraitMFC_DLL@DV?$ChTraitsCRT@D@ATL@@@@@ATL@@H@Z
_TEXT	SEGMENT
_this$ = 8						; size = 4
_pChartBInput$ = 12					; size = 4
_rString$ = 16						; size = 4
_nOption$ = 20						; size = 4
?MakeChtBojo_market@CChartBozoManager@@UAGHPAVCChartBozoInput@@AAV?$CStringT@DV?$StrTraitMFC_DLL@DV?$ChTraitsCRT@D@ATL@@@@@ATL@@H@Z PROC ; CChartBozoManager::MakeChtBojo_market, COMDAT

; 878  : {

  00000	55		 push	 ebp
  00001	8b ec		 mov	 ebp, esp

; 879  : 	char cDec = '0', cChtAP;
; 880  : 
; 881  : 	if (pChartBInput->sNxtFlg[0] == '1')	cChtAP = 'A';
; 882  : 	else									cChtAP = 'P';
; 883  : 
; 884  : 	rString.Format(_T("0396UM=%c@"), cChtAP);

  00003	8b 45 0c	 mov	 eax, DWORD PTR _pChartBInput$[ebp]
  00006	ba 50 00 00 00	 mov	 edx, 80			; 00000050H
  0000b	56		 push	 esi
  0000c	8b 75 10	 mov	 esi, DWORD PTR _rString$[ebp]
  0000f	b9 41 00 00 00	 mov	 ecx, 65			; 00000041H
  00014	80 78 7d 31	 cmp	 BYTE PTR [eax+125], 49	; 00000031H
  00018	0f 45 ca	 cmovne	 ecx, edx
  0001b	51		 push	 ecx
  0001c	68 00 00 00 00	 push	 OFFSET ??_C@_0L@EIHINGKC@0396UM?$DN?$CFc?$EA@
  00021	56		 push	 esi
  00022	ff 15 00 00 00
	00		 call	 DWORD PTR __imp_?Format@?$CStringT@DV?$StrTraitMFC_DLL@DV?$ChTraitsCRT@D@ATL@@@@@ATL@@QAAXPBDZZ

; 885  : 
; 886  : 	return rString.GetLength();

  00028	8b 06		 mov	 eax, DWORD PTR [esi]
  0002a	83 c4 0c	 add	 esp, 12			; 0000000cH
  0002d	8b 40 f4	 mov	 eax, DWORD PTR [eax-12]
  00030	5e		 pop	 esi

; 887  : }

  00031	5d		 pop	 ebp
  00032	c2 10 00	 ret	 16			; 00000010H
?MakeChtBojo_market@CChartBozoManager@@UAGHPAVCChartBozoInput@@AAV?$CStringT@DV?$StrTraitMFC_DLL@DV?$ChTraitsCRT@D@ATL@@@@@ATL@@H@Z ENDP ; CChartBozoManager::MakeChtBojo_market
_TEXT	ENDS
; Function compile flags: /Ogtp
; File D:\git\src\IBK\IBK_DRFN\ProjSrc\SrcDrfn\DrCommon\PartnerMng\_ChartBozoManager.cpp
; File C:\Program Files (x86)\Microsoft Visual Studio\2019\Community\VC\Tools\MSVC\14.29.30133\atlmfc\include\atlsimpstr.h
; File D:\git\src\IBK\IBK_DRFN\ProjSrc\SrcDrfn\DrCommon\PartnerMng\_ChartBozoManager.cpp
; File C:\Program Files (x86)\Microsoft Visual Studio\2019\Community\VC\Tools\MSVC\14.29.30133\atlmfc\include\atlsimpstr.h
; File D:\git\src\IBK\IBK_DRFN\ProjSrc\SrcDrfn\DrCommon\PartnerMng\_ChartBozoManager.cpp
; File C:\Program Files (x86)\Microsoft Visual Studio\2019\Community\VC\Tools\MSVC\14.29.30133\atlmfc\include\atlsimpstr.h
; File D:\git\src\IBK\IBK_DRFN\ProjSrc\SrcDrfn\DrCommon\PartnerMng\_ChartBozoManager.cpp
; File C:\Program Files (x86)\Microsoft Visual Studio\2019\Community\VC\Tools\MSVC\14.29.30133\atlmfc\include\atlsimpstr.h
; File D:\git\src\IBK\IBK_DRFN\ProjSrc\SrcDrfn\DrCommon\PartnerMng\_ChartBozoManager.cpp
; File C:\Program Files (x86)\Microsoft Visual Studio\2019\Community\VC\Tools\MSVC\14.29.30133\atlmfc\include\atlsimpstr.h
; File D:\git\src\IBK\IBK_DRFN\ProjSrc\SrcDrfn\DrCommon\PartnerMng\_ChartBozoManager.cpp
; File C:\Program Files (x86)\Microsoft Visual Studio\2019\Community\VC\Tools\MSVC\14.29.30133\atlmfc\include\atlsimpstr.h
; File D:\git\src\IBK\IBK_DRFN\ProjSrc\SrcDrfn\DrCommon\PartnerMng\_ChartBozoManager.cpp
; File C:\Program Files (x86)\Microsoft Visual Studio\2019\Community\VC\Tools\MSVC\14.29.30133\atlmfc\include\atlsimpstr.h
; File D:\git\src\IBK\IBK_DRFN\ProjSrc\SrcDrfn\DrCommon\PartnerMng\_ChartBozoManager.cpp
; File C:\Program Files (x86)\Microsoft Visual Studio\2019\Community\VC\Tools\MSVC\14.29.30133\atlmfc\include\atlsimpstr.h
; File D:\git\src\IBK\IBK_DRFN\ProjSrc\SrcDrfn\DrCommon\PartnerMng\_ChartBozoManager.cpp
; File C:\Program Files (x86)\Microsoft Visual Studio\2019\Community\VC\Tools\MSVC\14.29.30133\atlmfc\include\atlsimpstr.h
; File D:\git\src\IBK\IBK_DRFN\ProjSrc\SrcDrfn\DrCommon\PartnerMng\_ChartBozoManager.cpp
; File C:\Program Files (x86)\Microsoft Visual Studio\2019\Community\VC\Tools\MSVC\14.29.30133\atlmfc\include\atlsimpstr.h
; File D:\git\src\IBK\IBK_DRFN\ProjSrc\SrcDrfn\DrCommon\PartnerMng\_ChartBozoManager.cpp
;	COMDAT ?MakeChtBojo_ctfrn@CChartBozoManager@@UAGHPAVCChartBozoInput@@AAV?$CStringT@DV?$StrTraitMFC_DLL@DV?$ChTraitsCRT@D@ATL@@@@@ATL@@H@Z
_TEXT	SEGMENT
_rString$GSCopy$1$ = -960				; size = 4
_szTmpExt$ = -956					; size = 4
tv742 = -952						; size = 4
tv741 = -952						; size = 4
tv730 = -952						; size = 4
tv754 = -948						; size = 4
tv744 = -948						; size = 4
tv743 = -948						; size = 4
_pChartBInput$GSCopy$1$ = -944				; size = 4
tv731 = -940						; size = 4
_nOption$GSCopy$1$ = -940				; size = 4
tv755 = -933						; size = 1
_lsBojo$ = -932						; size = 800
_lsRelpsa$ = -132					; size = 128
__$ArrayPad$ = -4					; size = 4
_this$ = 8						; size = 4
_pChartBInput$ = 12					; size = 4
_rString$ = 16						; size = 4
_nOption$ = 20						; size = 4
?MakeChtBojo_ctfrn@CChartBozoManager@@UAGHPAVCChartBozoInput@@AAV?$CStringT@DV?$StrTraitMFC_DLL@DV?$ChTraitsCRT@D@ATL@@@@@ATL@@H@Z PROC ; CChartBozoManager::MakeChtBojo_ctfrn, COMDAT

; 791  : {

  00000	55		 push	 ebp
  00001	8b ec		 mov	 ebp, esp
  00003	81 ec c0 03 00
	00		 sub	 esp, 960		; 000003c0H
  00009	a1 00 00 00 00	 mov	 eax, DWORD PTR ___security_cookie
  0000e	33 c5		 xor	 eax, ebp
  00010	89 45 fc	 mov	 DWORD PTR __$ArrayPad$[ebp], eax
  00013	8b 45 10	 mov	 eax, DWORD PTR _rString$[ebp]
  00016	53		 push	 ebx
  00017	8b 5d 14	 mov	 ebx, DWORD PTR _nOption$[ebp]
  0001a	56		 push	 esi
  0001b	8b 75 0c	 mov	 esi, DWORD PTR _pChartBInput$[ebp]
  0001e	57		 push	 edi

; 792  :  	char lsBojo[800], lsRelpsa[128], lcChtAE;
; 793  :  	
; 794  :  	memset(lsBojo      , 0x20, sizeof(lsBojo      ));

  0001f	68 20 03 00 00	 push	 800			; 00000320H
  00024	89 85 40 fc ff
	ff		 mov	 DWORD PTR _rString$GSCopy$1$[ebp], eax
  0002a	8d 85 5c fc ff
	ff		 lea	 eax, DWORD PTR _lsBojo$[ebp]
  00030	6a 20		 push	 32			; 00000020H
  00032	50		 push	 eax
  00033	89 b5 50 fc ff
	ff		 mov	 DWORD PTR _pChartBInput$GSCopy$1$[ebp], esi
  00039	89 9d 54 fc ff
	ff		 mov	 DWORD PTR _nOption$GSCopy$1$[ebp], ebx
  0003f	e8 00 00 00 00	 call	 _memset

; 795  :  	memset(lsRelpsa    , 0x20, sizeof(lsRelpsa    ));

  00044	68 80 00 00 00	 push	 128			; 00000080H
  00049	8d 85 7c ff ff
	ff		 lea	 eax, DWORD PTR _lsRelpsa$[ebp]
  0004f	6a 20		 push	 32			; 00000020H
  00051	50		 push	 eax
  00052	e8 00 00 00 00	 call	 _memset

; 796  : 
; 797  : 	if (pChartBInput->sNxtFlg[0] == '1')	lcChtAE = 'A';

  00057	8b ce		 mov	 ecx, esi
  00059	83 c4 18	 add	 esp, 24			; 00000018H

; 798  : 	else									lcChtAE = 'E';
; 799  : 	
; 800  : 	if	(pChartBInput->sTerm[0] == '0')

  0005c	8a 41 7c	 mov	 al, BYTE PTR [ecx+124]
  0005f	8a 51 7d	 mov	 dl, BYTE PTR [ecx+125]
  00062	88 95 5b fc ff
	ff		 mov	 BYTE PTR tv755[ebp], dl
  00068	3c 30		 cmp	 al, 48			; 00000030H
  0006a	0f 85 be 00 00
	00		 jne	 $LN4@MakeChtBoj

; 802  : 		sprintf(lsBojo, "####UM=%c@UD=5@UT=%ld@RDATET=DDHHMMSS@@CB=_Close_:1|@PREVPRICE=_Close_:%.2f|_Volume_:%12ld@TDC=%s:_Open_,|%s:_High_,|%s:_Low_,|%s:_Close_,@RDC=%s:3:_Open_,|%s:3:_High_,|%s:3:_Low_,|%s:3:_Close_,@OHL=:%.2f:%.2f:%.2f@",

  00070	8b 85 54 fc ff
	ff		 mov	 eax, DWORD PTR _nOption$GSCopy$1$[ebp]
  00076	ff 71 34	 push	 DWORD PTR [ecx+52]
; File C:\Program Files (x86)\Microsoft Visual Studio\2019\Community\VC\Tools\MSVC\14.29.30133\atlmfc\include\atlsimpstr.h

; 377  : 		return( m_pszData );

  00079	8b 71 30	 mov	 esi, DWORD PTR [ecx+48]
  0007c	8b 79 2c	 mov	 edi, DWORD PTR [ecx+44]
; File D:\git\src\IBK\IBK_DRFN\ProjSrc\SrcDrfn\DrCommon\PartnerMng\_ChartBozoManager.cpp

; 802  : 		sprintf(lsBojo, "####UM=%c@UD=5@UT=%ld@RDATET=DDHHMMSS@@CB=_Close_:1|@PREVPRICE=_Close_:%.2f|_Volume_:%12ld@TDC=%s:_Open_,|%s:_High_,|%s:_Low_,|%s:_Close_,@RDC=%s:3:_Open_,|%s:3:_High_,|%s:3:_Low_,|%s:3:_Close_,@OHL=:%.2f:%.2f:%.2f@",

  0007f	8b 04 85 00 00
	00 00		 mov	 eax, DWORD PTR ?gChtTDC_RATE@@3PAPADA[eax*4]
  00086	8b 1c 9d 00 00
	00 00		 mov	 ebx, DWORD PTR ?gChtRDC_RATE@@3PAPADA[ebx*4]
  0008d	89 85 4c fc ff
	ff		 mov	 DWORD PTR tv744[ebp], eax
  00093	ff 15 00 00 00
	00		 call	 DWORD PTR __imp__atof
  00099	51		 push	 ecx
  0009a	dd 1c 24	 fstp	 QWORD PTR [esp]
  0009d	56		 push	 esi
  0009e	ff 15 00 00 00
	00		 call	 DWORD PTR __imp__atof
  000a4	51		 push	 ecx
  000a5	dd 1c 24	 fstp	 QWORD PTR [esp]
  000a8	57		 push	 edi
  000a9	ff 15 00 00 00
	00		 call	 DWORD PTR __imp__atof
  000af	8b 85 4c fc ff
	ff		 mov	 eax, DWORD PTR tv744[ebp]
  000b5	51		 push	 ecx
  000b6	8b 8d 54 fc ff
	ff		 mov	 ecx, DWORD PTR _nOption$GSCopy$1$[ebp]
  000bc	dd 1c 24	 fstp	 QWORD PTR [esp]
  000bf	53		 push	 ebx
  000c0	53		 push	 ebx
  000c1	66 0f 6e 04 8d
	00 00 00 00	 movd	 xmm0, DWORD PTR ?gChRATE_DATA@@3PAHA[ecx*4]
  000ca	53		 push	 ebx
  000cb	53		 push	 ebx
  000cc	50		 push	 eax
  000cd	50		 push	 eax
  000ce	50		 push	 eax
  000cf	50		 push	 eax
  000d0	8b 85 50 fc ff
	ff		 mov	 eax, DWORD PTR _pChartBInput$GSCopy$1$[ebp]
  000d6	f3 0f e6 c0	 cvtdq2pd xmm0, xmm0
  000da	66 0f 6e 88 9c
	00 00 00	 movd	 xmm1, DWORD PTR [eax+156]
  000e2	f3 0f e6 c9	 cvtdq2pd xmm1, xmm1
  000e6	ff b0 84 00 00
	00		 push	 DWORD PTR [eax+132]
  000ec	f2 0f 5e c8	 divsd	 xmm1, xmm0
  000f0	83 ec 08	 sub	 esp, 8
  000f3	f2 0f 11 0c 24	 movsd	 QWORD PTR [esp], xmm1
  000f8	ff 70 78	 push	 DWORD PTR [eax+120]
  000fb	33 c0		 xor	 eax, eax
  000fd	80 bd 5b fc ff
	ff 31		 cmp	 BYTE PTR tv755[ebp], 49	; 00000031H
  00104	0f 95 c0	 setne	 al
  00107	8d 04 85 41 00
	00 00		 lea	 eax, DWORD PTR [eax*4+65]
  0010e	50		 push	 eax
  0010f	8d 85 5c fc ff
	ff		 lea	 eax, DWORD PTR _lsBojo$[ebp]
  00115	68 00 00 00 00	 push	 OFFSET ??_C@_0NI@FDFJIIBH@?$CD?$CD?$CD?$CDUM?$DN?$CFc?$EAUD?$DN5?$EAUT?$DN?$CFld?$EARDATET?$DNDD@
  0011a	50		 push	 eax
  0011b	e8 00 00 00 00	 call	 _sprintf
  00120	8b b5 50 fc ff
	ff		 mov	 esi, DWORD PTR _pChartBInput$GSCopy$1$[ebp]
  00126	83 c4 54	 add	 esp, 84			; 00000054H
  00129	e9 75 03 00 00	 jmp	 $LN15@MakeChtBoj
$LN4@MakeChtBoj:

; 803  : 		lcChtAE,
; 804  : 		pChartBInput->lTick,
; 805  : 		(double)pChartBInput->lPreprice/gChRATE_DATA[nOption],
; 806  : 		pChartBInput->lVolume,
; 807  : 		gChtTDC_RATE[nOption], gChtTDC_RATE[nOption], gChtTDC_RATE[nOption], gChtTDC_RATE[nOption], gChtRDC_RATE[nOption], gChtRDC_RATE[nOption], gChtRDC_RATE[nOption], gChtRDC_RATE[nOption],
; 808  : 		atof(pChartBInput->m_sOpen), atof(pChartBInput->m_sHigh), atof(pChartBInput->m_sLow));
; 809  : 	else if (pChartBInput->sTerm[0] == '1')

  0012e	3c 31		 cmp	 al, 49			; 00000031H
  00130	0f 85 be 00 00
	00		 jne	 $LN6@MakeChtBoj

; 811  : 		sprintf(lsBojo, "####UM=%c@UD=4@UT=%ld@RDATET=MMDDHHMM@CB=_Close_:1|@PREVPRICE=_Close_:%.2f|_Volume_:%12ld@TDC=%s:_Open_,|%s:_High_,|%s:_Low_,|%s:_Close_,@RDC=%s:3:_Open_,|%s:3:_High_,|%s:3:_Low_,|%s:3:_Close_,@OHL=:%.2f:%.2f:%.2f@",

  00136	8b 85 54 fc ff
	ff		 mov	 eax, DWORD PTR _nOption$GSCopy$1$[ebp]
  0013c	ff 71 34	 push	 DWORD PTR [ecx+52]
; File C:\Program Files (x86)\Microsoft Visual Studio\2019\Community\VC\Tools\MSVC\14.29.30133\atlmfc\include\atlsimpstr.h

; 377  : 		return( m_pszData );

  0013f	8b 71 30	 mov	 esi, DWORD PTR [ecx+48]
  00142	8b 79 2c	 mov	 edi, DWORD PTR [ecx+44]
; File D:\git\src\IBK\IBK_DRFN\ProjSrc\SrcDrfn\DrCommon\PartnerMng\_ChartBozoManager.cpp

; 811  : 		sprintf(lsBojo, "####UM=%c@UD=4@UT=%ld@RDATET=MMDDHHMM@CB=_Close_:1|@PREVPRICE=_Close_:%.2f|_Volume_:%12ld@TDC=%s:_Open_,|%s:_High_,|%s:_Low_,|%s:_Close_,@RDC=%s:3:_Open_,|%s:3:_High_,|%s:3:_Low_,|%s:3:_Close_,@OHL=:%.2f:%.2f:%.2f@",

  00145	8b 04 85 00 00
	00 00		 mov	 eax, DWORD PTR ?gChtTDC_RATE@@3PAPADA[eax*4]
  0014c	8b 1c 9d 00 00
	00 00		 mov	 ebx, DWORD PTR ?gChtRDC_RATE@@3PAPADA[ebx*4]
  00153	89 85 4c fc ff
	ff		 mov	 DWORD PTR tv743[ebp], eax
  00159	ff 15 00 00 00
	00		 call	 DWORD PTR __imp__atof
  0015f	51		 push	 ecx
  00160	dd 1c 24	 fstp	 QWORD PTR [esp]
  00163	56		 push	 esi
  00164	ff 15 00 00 00
	00		 call	 DWORD PTR __imp__atof
  0016a	51		 push	 ecx
  0016b	dd 1c 24	 fstp	 QWORD PTR [esp]
  0016e	57		 push	 edi
  0016f	ff 15 00 00 00
	00		 call	 DWORD PTR __imp__atof
  00175	8b 85 4c fc ff
	ff		 mov	 eax, DWORD PTR tv743[ebp]
  0017b	51		 push	 ecx
  0017c	8b 8d 54 fc ff
	ff		 mov	 ecx, DWORD PTR _nOption$GSCopy$1$[ebp]
  00182	dd 1c 24	 fstp	 QWORD PTR [esp]
  00185	53		 push	 ebx
  00186	53		 push	 ebx
  00187	66 0f 6e 04 8d
	00 00 00 00	 movd	 xmm0, DWORD PTR ?gChRATE_DATA@@3PAHA[ecx*4]
  00190	53		 push	 ebx
  00191	53		 push	 ebx
  00192	50		 push	 eax
  00193	50		 push	 eax
  00194	50		 push	 eax
  00195	50		 push	 eax
  00196	8b 85 50 fc ff
	ff		 mov	 eax, DWORD PTR _pChartBInput$GSCopy$1$[ebp]
  0019c	f3 0f e6 c0	 cvtdq2pd xmm0, xmm0
  001a0	66 0f 6e 88 9c
	00 00 00	 movd	 xmm1, DWORD PTR [eax+156]
  001a8	f3 0f e6 c9	 cvtdq2pd xmm1, xmm1
  001ac	ff b0 84 00 00
	00		 push	 DWORD PTR [eax+132]
  001b2	f2 0f 5e c8	 divsd	 xmm1, xmm0
  001b6	83 ec 08	 sub	 esp, 8
  001b9	f2 0f 11 0c 24	 movsd	 QWORD PTR [esp], xmm1
  001be	ff 70 78	 push	 DWORD PTR [eax+120]
  001c1	33 c0		 xor	 eax, eax
  001c3	80 bd 5b fc ff
	ff 31		 cmp	 BYTE PTR tv755[ebp], 49	; 00000031H
  001ca	0f 95 c0	 setne	 al
  001cd	8d 04 85 41 00
	00 00		 lea	 eax, DWORD PTR [eax*4+65]
  001d4	50		 push	 eax
  001d5	8d 85 5c fc ff
	ff		 lea	 eax, DWORD PTR _lsBojo$[ebp]
  001db	68 00 00 00 00	 push	 OFFSET ??_C@_0NH@KCALLDHK@?$CD?$CD?$CD?$CDUM?$DN?$CFc?$EAUD?$DN4?$EAUT?$DN?$CFld?$EARDATET?$DNMM@
  001e0	50		 push	 eax
  001e1	e8 00 00 00 00	 call	 _sprintf
  001e6	8b b5 50 fc ff
	ff		 mov	 esi, DWORD PTR _pChartBInput$GSCopy$1$[ebp]
  001ec	83 c4 54	 add	 esp, 84			; 00000054H
  001ef	e9 af 02 00 00	 jmp	 $LN15@MakeChtBoj
$LN6@MakeChtBoj:

; 812  : 		lcChtAE,
; 813  : 		pChartBInput->lTick, 
; 814  : 		(double)pChartBInput->lPreprice/gChRATE_DATA[nOption],
; 815  : 		pChartBInput->lVolume, 
; 816  : 		gChtTDC_RATE[nOption], gChtTDC_RATE[nOption], gChtTDC_RATE[nOption], gChtTDC_RATE[nOption], gChtRDC_RATE[nOption], gChtRDC_RATE[nOption], gChtRDC_RATE[nOption], gChtRDC_RATE[nOption],
; 817  : 		atof(pChartBInput->m_sOpen), atof(pChartBInput->m_sHigh), atof(pChartBInput->m_sLow));
; 818  : 	else if (pChartBInput->sTerm[0] == '2')

  001f4	3c 32		 cmp	 al, 50			; 00000032H
  001f6	0f 85 4d 01 00
	00		 jne	 $LN8@MakeChtBoj
; File C:\Program Files (x86)\Microsoft Visual Studio\2019\Community\VC\Tools\MSVC\14.29.30133\atlmfc\include\atlsimpstr.h

; 533  : 		return( GetLength() == 0 );

  001fc	33 c0		 xor	 eax, eax
  001fe	80 fa 31	 cmp	 dl, 49			; 00000031H
  00201	0f 95 c0	 setne	 al
  00204	8d 04 85 41 00
	00 00		 lea	 eax, DWORD PTR [eax*4+65]
  0020b	89 85 4c fc ff
	ff		 mov	 DWORD PTR tv754[ebp], eax
  00211	8b 41 40	 mov	 eax, DWORD PTR [ecx+64]
  00214	83 78 f4 00	 cmp	 DWORD PTR [eax-12], 0
; File D:\git\src\IBK\IBK_DRFN\ProjSrc\SrcDrfn\DrCommon\PartnerMng\_ChartBozoManager.cpp

; 824  : 		if(pChartBInput->m_sStartTime.IsEmpty()==FALSE)

  00218	0f 84 99 00 00
	00		 je	 $LN10@MakeChtBoj

; 825  : 		{
; 826  : 			sprintf(lsRelpsa, "RELPSA=%.6s:%.4s", pChartBInput->m_sStartTime, pChartBInput->sShcode);

  0021e	8d 41 68	 lea	 eax, DWORD PTR [ecx+104]
  00221	50		 push	 eax
  00222	ff 71 40	 push	 DWORD PTR [ecx+64]
  00225	8d 85 7c ff ff
	ff		 lea	 eax, DWORD PTR _lsRelpsa$[ebp]
  0022b	68 00 00 00 00	 push	 OFFSET ??_C@_0BB@BOFJMMPN@RELPSA?$DN?$CF?46s?3?$CF?44s@
  00230	50		 push	 eax
  00231	e8 00 00 00 00	 call	 _sprintf

; 828  : 			sprintf(lsBojo, "####UM=%c@UD=1@RDATET=YYYYMMDD@%s@CB=_Close_:1|@TDC=%s:_Open_,|%s:_High_,|%s:_Low_,|%s:_Close_,@RDC=%s:3:_Open_,|%s:3:_High_,|%s:3:_Low_,|%s:3:_Close_,@OHL=:%.2f:%.2f:%.2f@",

  00236	8b 85 54 fc ff
	ff		 mov	 eax, DWORD PTR _nOption$GSCopy$1$[ebp]
; File C:\Program Files (x86)\Microsoft Visual Studio\2019\Community\VC\Tools\MSVC\14.29.30133\atlmfc\include\atlsimpstr.h

; 377  : 		return( m_pszData );

  0023c	8b ce		 mov	 ecx, esi
; File D:\git\src\IBK\IBK_DRFN\ProjSrc\SrcDrfn\DrCommon\PartnerMng\_ChartBozoManager.cpp

; 828  : 			sprintf(lsBojo, "####UM=%c@UD=1@RDATET=YYYYMMDD@%s@CB=_Close_:1|@TDC=%s:_Open_,|%s:_High_,|%s:_Low_,|%s:_Close_,@RDC=%s:3:_Open_,|%s:3:_High_,|%s:3:_Low_,|%s:3:_Close_,@OHL=:%.2f:%.2f:%.2f@",

  0023e	8b 1c 9d 00 00
	00 00		 mov	 ebx, DWORD PTR ?gChtRDC_RATE@@3PAPADA[ebx*4]
  00245	8b 04 85 00 00
	00 00		 mov	 eax, DWORD PTR ?gChtTDC_RATE@@3PAPADA[eax*4]
  0024c	ff 71 34	 push	 DWORD PTR [ecx+52]
; File C:\Program Files (x86)\Microsoft Visual Studio\2019\Community\VC\Tools\MSVC\14.29.30133\atlmfc\include\atlsimpstr.h

; 377  : 		return( m_pszData );

  0024f	8b 71 30	 mov	 esi, DWORD PTR [ecx+48]
  00252	8b 79 2c	 mov	 edi, DWORD PTR [ecx+44]
; File D:\git\src\IBK\IBK_DRFN\ProjSrc\SrcDrfn\DrCommon\PartnerMng\_ChartBozoManager.cpp

; 828  : 			sprintf(lsBojo, "####UM=%c@UD=1@RDATET=YYYYMMDD@%s@CB=_Close_:1|@TDC=%s:_Open_,|%s:_High_,|%s:_Low_,|%s:_Close_,@RDC=%s:3:_Open_,|%s:3:_High_,|%s:3:_Low_,|%s:3:_Close_,@OHL=:%.2f:%.2f:%.2f@",

  00255	89 85 54 fc ff
	ff		 mov	 DWORD PTR tv731[ebp], eax
  0025b	ff 15 00 00 00
	00		 call	 DWORD PTR __imp__atof
  00261	83 c4 0c	 add	 esp, 12			; 0000000cH
  00264	dd 1c 24	 fstp	 QWORD PTR [esp]
  00267	56		 push	 esi
  00268	ff 15 00 00 00
	00		 call	 DWORD PTR __imp__atof
  0026e	51		 push	 ecx
  0026f	dd 1c 24	 fstp	 QWORD PTR [esp]
  00272	57		 push	 edi
  00273	ff 15 00 00 00
	00		 call	 DWORD PTR __imp__atof
  00279	8b 85 54 fc ff
	ff		 mov	 eax, DWORD PTR tv731[ebp]
  0027f	51		 push	 ecx
  00280	dd 1c 24	 fstp	 QWORD PTR [esp]
  00283	53		 push	 ebx
  00284	53		 push	 ebx
  00285	53		 push	 ebx
  00286	53		 push	 ebx
  00287	50		 push	 eax
  00288	50		 push	 eax
  00289	50		 push	 eax
  0028a	50		 push	 eax
  0028b	8d 85 7c ff ff
	ff		 lea	 eax, DWORD PTR _lsRelpsa$[ebp]
  00291	50		 push	 eax
  00292	ff b5 4c fc ff
	ff		 push	 DWORD PTR tv754[ebp]
  00298	8d 85 5c fc ff
	ff		 lea	 eax, DWORD PTR _lsBojo$[ebp]
  0029e	68 00 00 00 00	 push	 OFFSET ??_C@_0KN@PDECNFCF@?$CD?$CD?$CD?$CDUM?$DN?$CFc?$EAUD?$DN1?$EARDATET?$DNYYYYMMDD?$EA@
  002a3	50		 push	 eax
  002a4	e8 00 00 00 00	 call	 _sprintf

; 829  : 				lcChtAE, lsRelpsa, 
; 830  : 				gChtTDC_RATE[nOption], gChtTDC_RATE[nOption], gChtTDC_RATE[nOption], gChtTDC_RATE[nOption], gChtRDC_RATE[nOption], gChtRDC_RATE[nOption], gChtRDC_RATE[nOption], gChtRDC_RATE[nOption],
; 831  : 				atof(pChartBInput->m_sOpen), atof(pChartBInput->m_sHigh), atof(pChartBInput->m_sLow));
; 832  : 		}

  002a9	8b b5 50 fc ff
	ff		 mov	 esi, DWORD PTR _pChartBInput$GSCopy$1$[ebp]
  002af	83 c4 48	 add	 esp, 72			; 00000048H
  002b2	e9 ec 01 00 00	 jmp	 $LN15@MakeChtBoj
$LN10@MakeChtBoj:

; 836  : 			sprintf(lsBojo, "####UM=%c@UD=1@RDATET=YYYYMMDD@@CB=_Close_:1|@PREVPRICE=_Close_:%.2f|@TDC=%s:_Open_,|%s:_High_,|%s:_Low_,|%s:_Close_,@RDC=%s:3:_Open_,|%s:3:_High_,|%s:3:_Low_,|%s:3:_Close_,@OHL=:%.2f:%.2f:%.2f@",

  002b7	8b 85 54 fc ff
	ff		 mov	 eax, DWORD PTR _nOption$GSCopy$1$[ebp]
  002bd	ff 71 34	 push	 DWORD PTR [ecx+52]
; File C:\Program Files (x86)\Microsoft Visual Studio\2019\Community\VC\Tools\MSVC\14.29.30133\atlmfc\include\atlsimpstr.h

; 377  : 		return( m_pszData );

  002c0	8b 71 30	 mov	 esi, DWORD PTR [ecx+48]
  002c3	8b 79 2c	 mov	 edi, DWORD PTR [ecx+44]
; File D:\git\src\IBK\IBK_DRFN\ProjSrc\SrcDrfn\DrCommon\PartnerMng\_ChartBozoManager.cpp

; 836  : 			sprintf(lsBojo, "####UM=%c@UD=1@RDATET=YYYYMMDD@@CB=_Close_:1|@PREVPRICE=_Close_:%.2f|@TDC=%s:_Open_,|%s:_High_,|%s:_Low_,|%s:_Close_,@RDC=%s:3:_Open_,|%s:3:_High_,|%s:3:_Low_,|%s:3:_Close_,@OHL=:%.2f:%.2f:%.2f@",

  002c6	8b 04 85 00 00
	00 00		 mov	 eax, DWORD PTR ?gChtTDC_RATE@@3PAPADA[eax*4]
  002cd	8b 1c 9d 00 00
	00 00		 mov	 ebx, DWORD PTR ?gChtRDC_RATE@@3PAPADA[ebx*4]
  002d4	89 85 48 fc ff
	ff		 mov	 DWORD PTR tv730[ebp], eax
  002da	ff 15 00 00 00
	00		 call	 DWORD PTR __imp__atof
  002e0	51		 push	 ecx
  002e1	dd 1c 24	 fstp	 QWORD PTR [esp]
  002e4	56		 push	 esi
  002e5	ff 15 00 00 00
	00		 call	 DWORD PTR __imp__atof
  002eb	51		 push	 ecx
  002ec	dd 1c 24	 fstp	 QWORD PTR [esp]
  002ef	57		 push	 edi
  002f0	ff 15 00 00 00
	00		 call	 DWORD PTR __imp__atof
  002f6	8b 85 48 fc ff
	ff		 mov	 eax, DWORD PTR tv730[ebp]
  002fc	8b b5 50 fc ff
	ff		 mov	 esi, DWORD PTR _pChartBInput$GSCopy$1$[ebp]
  00302	51		 push	 ecx
  00303	dd 1c 24	 fstp	 QWORD PTR [esp]
  00306	53		 push	 ebx
  00307	66 0f 6e 8e 9c
	00 00 00	 movd	 xmm1, DWORD PTR [esi+156]
  0030f	53		 push	 ebx
  00310	53		 push	 ebx
  00311	53		 push	 ebx
  00312	50		 push	 eax
  00313	50		 push	 eax
  00314	50		 push	 eax
  00315	50		 push	 eax
  00316	8b 85 54 fc ff
	ff		 mov	 eax, DWORD PTR _nOption$GSCopy$1$[ebp]
  0031c	83 ec 08	 sub	 esp, 8
  0031f	f3 0f e6 c9	 cvtdq2pd xmm1, xmm1
  00323	66 0f 6e 04 85
	00 00 00 00	 movd	 xmm0, DWORD PTR ?gChRATE_DATA@@3PAHA[eax*4]
  0032c	f3 0f e6 c0	 cvtdq2pd xmm0, xmm0
  00330	f2 0f 5e c8	 divsd	 xmm1, xmm0
  00334	f2 0f 11 0c 24	 movsd	 QWORD PTR [esp], xmm1
  00339	ff b5 4c fc ff
	ff		 push	 DWORD PTR tv754[ebp]
  0033f	68 00 00 00 00	 push	 OFFSET ??_C@_0MD@IMKMEPAH@?$CD?$CD?$CD?$CDUM?$DN?$CFc?$EAUD?$DN1?$EARDATET?$DNYYYYMMDD?$EA@

; 837  : 				lcChtAE, (double)pChartBInput->lPreprice/gChRATE_DATA[nOption], 
; 838  : 				gChtTDC_RATE[nOption], gChtTDC_RATE[nOption], gChtTDC_RATE[nOption], gChtTDC_RATE[nOption], gChtRDC_RATE[nOption], gChtRDC_RATE[nOption], gChtRDC_RATE[nOption], gChtRDC_RATE[nOption],
; 839  : 				atof(pChartBInput->m_sOpen), atof(pChartBInput->m_sHigh), atof(pChartBInput->m_sLow));
; 840  : 		}
; 841  : 	}

  00344	e9 4b 01 00 00	 jmp	 $LN63@MakeChtBoj
$LN8@MakeChtBoj:

; 842  : 	else if (pChartBInput->sTerm[0] == '3')

  00349	3c 33		 cmp	 al, 51			; 00000033H
  0034b	0f 85 a0 00 00
	00		 jne	 $LN12@MakeChtBoj

; 845  : 		sprintf(lsBojo, "####UM=%c@UD=2@RDATET=YYYYMMDD@CB=_Close_:1|@PREVPRICE=_Close_:%.2f|@TDC=%s:_Open_,|%s:_High_,|%s:_Low_,|%s:_Close_,@RDC=%s:3:_Open_,|%s:3:_High_,|%s:3:_Low_,|%s:3:_Close_,@OHL=:%.2f:%.2f:%.2f@",

  00351	8b 85 54 fc ff
	ff		 mov	 eax, DWORD PTR _nOption$GSCopy$1$[ebp]
  00357	ff 71 34	 push	 DWORD PTR [ecx+52]
; File C:\Program Files (x86)\Microsoft Visual Studio\2019\Community\VC\Tools\MSVC\14.29.30133\atlmfc\include\atlsimpstr.h

; 377  : 		return( m_pszData );

  0035a	8b 71 30	 mov	 esi, DWORD PTR [ecx+48]
  0035d	8b 79 2c	 mov	 edi, DWORD PTR [ecx+44]
; File D:\git\src\IBK\IBK_DRFN\ProjSrc\SrcDrfn\DrCommon\PartnerMng\_ChartBozoManager.cpp

; 845  : 		sprintf(lsBojo, "####UM=%c@UD=2@RDATET=YYYYMMDD@CB=_Close_:1|@PREVPRICE=_Close_:%.2f|@TDC=%s:_Open_,|%s:_High_,|%s:_Low_,|%s:_Close_,@RDC=%s:3:_Open_,|%s:3:_High_,|%s:3:_Low_,|%s:3:_Close_,@OHL=:%.2f:%.2f:%.2f@",

  00360	8b 04 85 00 00
	00 00		 mov	 eax, DWORD PTR ?gChtTDC_RATE@@3PAPADA[eax*4]
  00367	8b 1c 9d 00 00
	00 00		 mov	 ebx, DWORD PTR ?gChtRDC_RATE@@3PAPADA[ebx*4]
  0036e	89 85 48 fc ff
	ff		 mov	 DWORD PTR tv742[ebp], eax
  00374	ff 15 00 00 00
	00		 call	 DWORD PTR __imp__atof
  0037a	51		 push	 ecx
  0037b	dd 1c 24	 fstp	 QWORD PTR [esp]
  0037e	56		 push	 esi
  0037f	ff 15 00 00 00
	00		 call	 DWORD PTR __imp__atof
  00385	51		 push	 ecx
  00386	dd 1c 24	 fstp	 QWORD PTR [esp]
  00389	57		 push	 edi
  0038a	ff 15 00 00 00
	00		 call	 DWORD PTR __imp__atof
  00390	8b 85 48 fc ff
	ff		 mov	 eax, DWORD PTR tv742[ebp]
  00396	8b b5 50 fc ff
	ff		 mov	 esi, DWORD PTR _pChartBInput$GSCopy$1$[ebp]
  0039c	51		 push	 ecx
  0039d	dd 1c 24	 fstp	 QWORD PTR [esp]
  003a0	53		 push	 ebx
  003a1	66 0f 6e 8e 9c
	00 00 00	 movd	 xmm1, DWORD PTR [esi+156]
  003a9	53		 push	 ebx
  003aa	53		 push	 ebx
  003ab	53		 push	 ebx
  003ac	50		 push	 eax
  003ad	50		 push	 eax
  003ae	50		 push	 eax
  003af	50		 push	 eax
  003b0	8b 85 54 fc ff
	ff		 mov	 eax, DWORD PTR _nOption$GSCopy$1$[ebp]
  003b6	83 ec 08	 sub	 esp, 8
  003b9	f3 0f e6 c9	 cvtdq2pd xmm1, xmm1
  003bd	66 0f 6e 04 85
	00 00 00 00	 movd	 xmm0, DWORD PTR ?gChRATE_DATA@@3PAHA[eax*4]
  003c6	33 c0		 xor	 eax, eax
  003c8	f3 0f e6 c0	 cvtdq2pd xmm0, xmm0
  003cc	80 bd 5b fc ff
	ff 31		 cmp	 BYTE PTR tv755[ebp], 49	; 00000031H
  003d3	0f 95 c0	 setne	 al
  003d6	f2 0f 5e c8	 divsd	 xmm1, xmm0
  003da	8d 04 85 41 00
	00 00		 lea	 eax, DWORD PTR [eax*4+65]
  003e1	f2 0f 11 0c 24	 movsd	 QWORD PTR [esp], xmm1
  003e6	50		 push	 eax
  003e7	68 00 00 00 00	 push	 OFFSET ??_C@_0MC@BDFEIOLD@?$CD?$CD?$CD?$CDUM?$DN?$CFc?$EAUD?$DN2?$EARDATET?$DNYYYYMMDD?$EA@

; 846  : 			lcChtAE, (double)pChartBInput->lPreprice/gChRATE_DATA[nOption], 
; 847  : 			gChtTDC_RATE[nOption], gChtTDC_RATE[nOption], gChtTDC_RATE[nOption], gChtTDC_RATE[nOption], gChtRDC_RATE[nOption], gChtRDC_RATE[nOption], gChtRDC_RATE[nOption], gChtRDC_RATE[nOption],
; 848  : 			atof(pChartBInput->m_sOpen), atof(pChartBInput->m_sHigh), atof(pChartBInput->m_sLow));
; 849  : 	}

  003ec	e9 a3 00 00 00	 jmp	 $LN63@MakeChtBoj
$LN12@MakeChtBoj:

; 850  : 	else if (pChartBInput->sTerm[0] == '4')

  003f1	3c 34		 cmp	 al, 52			; 00000034H
  003f3	0f 85 1b 01 00
	00		 jne	 $LN14@MakeChtBoj

; 853  : 		sprintf(lsBojo, "####UM=%c@UD=3@RDATET=YYYYMM@CB=_Close_:1|@PREVPRICE=_Close_:%.2f|@TDC=%s:_Open_,|%s:_High_,|%s:_Low_,|%s:_Close_,@RDC=%s:3:_Open_,|%s:3:_High_,|%s:3:_Low_,|%s:3:_Close_,@OHL=:%.2f:%.2f:%.2f@",

  003f9	8b 85 54 fc ff
	ff		 mov	 eax, DWORD PTR _nOption$GSCopy$1$[ebp]
  003ff	ff 71 34	 push	 DWORD PTR [ecx+52]
; File C:\Program Files (x86)\Microsoft Visual Studio\2019\Community\VC\Tools\MSVC\14.29.30133\atlmfc\include\atlsimpstr.h

; 377  : 		return( m_pszData );

  00402	8b 71 30	 mov	 esi, DWORD PTR [ecx+48]
  00405	8b 79 2c	 mov	 edi, DWORD PTR [ecx+44]
; File D:\git\src\IBK\IBK_DRFN\ProjSrc\SrcDrfn\DrCommon\PartnerMng\_ChartBozoManager.cpp

; 853  : 		sprintf(lsBojo, "####UM=%c@UD=3@RDATET=YYYYMM@CB=_Close_:1|@PREVPRICE=_Close_:%.2f|@TDC=%s:_Open_,|%s:_High_,|%s:_Low_,|%s:_Close_,@RDC=%s:3:_Open_,|%s:3:_High_,|%s:3:_Low_,|%s:3:_Close_,@OHL=:%.2f:%.2f:%.2f@",

  00408	8b 04 85 00 00
	00 00		 mov	 eax, DWORD PTR ?gChtTDC_RATE@@3PAPADA[eax*4]
  0040f	8b 1c 9d 00 00
	00 00		 mov	 ebx, DWORD PTR ?gChtRDC_RATE@@3PAPADA[ebx*4]
  00416	89 85 48 fc ff
	ff		 mov	 DWORD PTR tv741[ebp], eax
  0041c	ff 15 00 00 00
	00		 call	 DWORD PTR __imp__atof
  00422	51		 push	 ecx
  00423	dd 1c 24	 fstp	 QWORD PTR [esp]
  00426	56		 push	 esi
  00427	ff 15 00 00 00
	00		 call	 DWORD PTR __imp__atof
  0042d	51		 push	 ecx
  0042e	dd 1c 24	 fstp	 QWORD PTR [esp]
  00431	57		 push	 edi
  00432	ff 15 00 00 00
	00		 call	 DWORD PTR __imp__atof
  00438	8b 85 48 fc ff
	ff		 mov	 eax, DWORD PTR tv741[ebp]
  0043e	8b b5 50 fc ff
	ff		 mov	 esi, DWORD PTR _pChartBInput$GSCopy$1$[ebp]
  00444	51		 push	 ecx
  00445	dd 1c 24	 fstp	 QWORD PTR [esp]
  00448	53		 push	 ebx
  00449	66 0f 6e 8e 9c
	00 00 00	 movd	 xmm1, DWORD PTR [esi+156]
  00451	53		 push	 ebx
  00452	53		 push	 ebx
  00453	53		 push	 ebx
  00454	50		 push	 eax
  00455	50		 push	 eax
  00456	50		 push	 eax
  00457	50		 push	 eax
  00458	8b 85 54 fc ff
	ff		 mov	 eax, DWORD PTR _nOption$GSCopy$1$[ebp]
  0045e	83 ec 08	 sub	 esp, 8
  00461	f3 0f e6 c9	 cvtdq2pd xmm1, xmm1
  00465	66 0f 6e 04 85
	00 00 00 00	 movd	 xmm0, DWORD PTR ?gChRATE_DATA@@3PAHA[eax*4]
  0046e	33 c0		 xor	 eax, eax
  00470	f3 0f e6 c0	 cvtdq2pd xmm0, xmm0
  00474	80 bd 5b fc ff
	ff 31		 cmp	 BYTE PTR tv755[ebp], 49	; 00000031H
  0047b	0f 95 c0	 setne	 al
  0047e	f2 0f 5e c8	 divsd	 xmm1, xmm0
  00482	8d 04 85 41 00
	00 00		 lea	 eax, DWORD PTR [eax*4+65]
  00489	f2 0f 11 0c 24	 movsd	 QWORD PTR [esp], xmm1
  0048e	50		 push	 eax
  0048f	68 00 00 00 00	 push	 OFFSET ??_C@_0MA@JCOHCJA@?$CD?$CD?$CD?$CDUM?$DN?$CFc?$EAUD?$DN3?$EARDATET?$DNYYYYMM?$EACB@
$LN63@MakeChtBoj:

; 854  : 			lcChtAE,
; 855  : 			(double)pChartBInput->lPreprice/gChRATE_DATA[nOption], 
; 856  : 			gChtTDC_RATE[nOption], gChtTDC_RATE[nOption], gChtTDC_RATE[nOption], gChtTDC_RATE[nOption], gChtRDC_RATE[nOption], gChtRDC_RATE[nOption], gChtRDC_RATE[nOption], gChtRDC_RATE[nOption],
; 857  : 			atof(pChartBInput->m_sOpen), atof(pChartBInput->m_sHigh), atof(pChartBInput->m_sLow));
; 858  : 	}
; 859  : 	else
; 860  : 	{
; 861  : 		return 0;
; 862  : 	}
; 863  : 	rString = lsBojo;

  00494	8d 85 5c fc ff
	ff		 lea	 eax, DWORD PTR _lsBojo$[ebp]
  0049a	50		 push	 eax
  0049b	e8 00 00 00 00	 call	 _sprintf
  004a0	83 c4 4c	 add	 esp, 76			; 0000004cH
$LN15@MakeChtBoj:
  004a3	8b 9d 40 fc ff
	ff		 mov	 ebx, DWORD PTR _rString$GSCopy$1$[ebp]
  004a9	8d 85 5c fc ff
	ff		 lea	 eax, DWORD PTR _lsBojo$[ebp]
  004af	50		 push	 eax
  004b0	8b cb		 mov	 ecx, ebx
  004b2	ff 15 00 00 00
	00		 call	 DWORD PTR __imp_??4?$CStringT@DV?$StrTraitMFC_DLL@DV?$ChTraitsCRT@D@ATL@@@@@ATL@@QAEAAV01@PBD@Z

; 864  : 	
; 865  : 	// 20130222  :      .(   )
; 866  : 	CString szTmpExt;

  004b8	8d 8d 44 fc ff
	ff		 lea	 ecx, DWORD PTR _szTmpExt$[ebp]
  004be	ff 15 00 00 00
	00		 call	 DWORD PTR __imp_??0?$CStringT@DV?$StrTraitMFC_DLL@DV?$ChTraitsCRT@D@ATL@@@@@ATL@@QAE@XZ

; 867  : 	szTmpExt.Format("DATATIME=%s@", pChartBInput->m_sLastDataTime);

  004c4	ff b6 c0 00 00
	00		 push	 DWORD PTR [esi+192]
  004ca	8d 85 44 fc ff
	ff		 lea	 eax, DWORD PTR _szTmpExt$[ebp]
  004d0	68 00 00 00 00	 push	 OFFSET ??_C@_0N@JENAIHAK@DATATIME?$DN?$CFs?$EA@
  004d5	50		 push	 eax
  004d6	ff 15 00 00 00
	00		 call	 DWORD PTR __imp_?Format@?$CStringT@DV?$StrTraitMFC_DLL@DV?$ChTraitsCRT@D@ATL@@@@@ATL@@QAAXPBDZZ
  004dc	83 c4 0c	 add	 esp, 12			; 0000000cH

; 868  : 	rString += szTmpExt;		

  004df	8d 85 44 fc ff
	ff		 lea	 eax, DWORD PTR _szTmpExt$[ebp]
  004e5	8b cb		 mov	 ecx, ebx
  004e7	50		 push	 eax
  004e8	ff 15 00 00 00
	00		 call	 DWORD PTR __imp_??Y?$CStringT@DV?$StrTraitMFC_DLL@DV?$ChTraitsCRT@D@ATL@@@@@ATL@@QAEAAV01@ABV?$CSimpleStringT@D$00@1@@Z
; File C:\Program Files (x86)\Microsoft Visual Studio\2019\Community\VC\Tools\MSVC\14.29.30133\atlmfc\include\atlsimpstr.h

; 519  : 		return( GetData()->nDataLength );

  004ee	8b 03		 mov	 eax, DWORD PTR [ebx]
; File D:\git\src\IBK\IBK_DRFN\ProjSrc\SrcDrfn\DrCommon\PartnerMng\_ChartBozoManager.cpp

; 870  : 	return rString.GetLength();

  004f0	8d 8d 44 fc ff
	ff		 lea	 ecx, DWORD PTR _szTmpExt$[ebp]
; File C:\Program Files (x86)\Microsoft Visual Studio\2019\Community\VC\Tools\MSVC\14.29.30133\atlmfc\include\atlsimpstr.h

; 519  : 		return( GetData()->nDataLength );

  004f6	8b 70 f4	 mov	 esi, DWORD PTR [eax-12]
; File D:\git\src\IBK\IBK_DRFN\ProjSrc\SrcDrfn\DrCommon\PartnerMng\_ChartBozoManager.cpp

; 870  : 	return rString.GetLength();

  004f9	ff 15 00 00 00
	00		 call	 DWORD PTR __imp_??1?$CStringT@DV?$StrTraitMFC_DLL@DV?$ChTraitsCRT@D@ATL@@@@@ATL@@QAE@XZ
  004ff	5f		 pop	 edi
  00500	8b c6		 mov	 eax, esi

; 871  : }

  00502	5e		 pop	 esi
  00503	5b		 pop	 ebx
  00504	8b 4d fc	 mov	 ecx, DWORD PTR __$ArrayPad$[ebp]
  00507	33 cd		 xor	 ecx, ebp
  00509	e8 00 00 00 00	 call	 @__security_check_cookie@4
  0050e	8b e5		 mov	 esp, ebp
  00510	5d		 pop	 ebp
  00511	c2 10 00	 ret	 16			; 00000010H
$LN14@MakeChtBoj:
  00514	8b 4d fc	 mov	 ecx, DWORD PTR __$ArrayPad$[ebp]
  00517	33 c0		 xor	 eax, eax
  00519	5f		 pop	 edi
  0051a	5e		 pop	 esi
  0051b	33 cd		 xor	 ecx, ebp
  0051d	5b		 pop	 ebx
  0051e	e8 00 00 00 00	 call	 @__security_check_cookie@4
  00523	8b e5		 mov	 esp, ebp
  00525	5d		 pop	 ebp
  00526	c2 10 00	 ret	 16			; 00000010H
?MakeChtBojo_ctfrn@CChartBozoManager@@UAGHPAVCChartBozoInput@@AAV?$CStringT@DV?$StrTraitMFC_DLL@DV?$ChTraitsCRT@D@ATL@@@@@ATL@@H@Z ENDP ; CChartBozoManager::MakeChtBojo_ctfrn
_TEXT	ENDS
; Function compile flags: /Ogtp
; File D:\git\src\IBK\IBK_DRFN\ProjSrc\SrcDrfn\DrCommon\PartnerMng\_ChartBozoManager.cpp
; File C:\Program Files (x86)\Microsoft Visual Studio\2019\Community\VC\Tools\MSVC\14.29.30133\atlmfc\include\atlsimpstr.h
; File D:\git\src\IBK\IBK_DRFN\ProjSrc\SrcDrfn\DrCommon\PartnerMng\_ChartBozoManager.cpp
; File C:\Program Files (x86)\Microsoft Visual Studio\2019\Community\VC\Tools\MSVC\14.29.30133\atlmfc\include\atlsimpstr.h
; File D:\git\src\IBK\IBK_DRFN\ProjSrc\SrcDrfn\DrCommon\PartnerMng\_ChartBozoManager.cpp
; File C:\Program Files (x86)\Microsoft Visual Studio\2019\Community\VC\Tools\MSVC\14.29.30133\atlmfc\include\atlsimpstr.h
; File D:\git\src\IBK\IBK_DRFN\ProjSrc\SrcDrfn\DrCommon\PartnerMng\_ChartBozoManager.cpp
; File C:\Program Files (x86)\Microsoft Visual Studio\2019\Community\VC\Tools\MSVC\14.29.30133\atlmfc\include\atlsimpstr.h
; File D:\git\src\IBK\IBK_DRFN\ProjSrc\SrcDrfn\DrCommon\PartnerMng\_ChartBozoManager.cpp
; File C:\Program Files (x86)\Microsoft Visual Studio\2019\Community\VC\Tools\MSVC\14.29.30133\atlmfc\include\atlsimpstr.h
; File D:\git\src\IBK\IBK_DRFN\ProjSrc\SrcDrfn\DrCommon\PartnerMng\_ChartBozoManager.cpp
; File C:\Program Files (x86)\Microsoft Visual Studio\2019\Community\VC\Tools\MSVC\14.29.30133\atlmfc\include\atlsimpstr.h
; File D:\git\src\IBK\IBK_DRFN\ProjSrc\SrcDrfn\DrCommon\PartnerMng\_ChartBozoManager.cpp
; File C:\Program Files (x86)\Microsoft Visual Studio\2019\Community\VC\Tools\MSVC\14.29.30133\atlmfc\include\atlsimpstr.h
; File D:\git\src\IBK\IBK_DRFN\ProjSrc\SrcDrfn\DrCommon\PartnerMng\_ChartBozoManager.cpp
; File C:\Program Files (x86)\Microsoft Visual Studio\2019\Community\VC\Tools\MSVC\14.29.30133\atlmfc\include\atlsimpstr.h
; File D:\git\src\IBK\IBK_DRFN\ProjSrc\SrcDrfn\DrCommon\PartnerMng\_ChartBozoManager.cpp
; File C:\Program Files (x86)\Microsoft Visual Studio\2019\Community\VC\Tools\MSVC\14.29.30133\atlmfc\include\atlsimpstr.h
; File D:\git\src\IBK\IBK_DRFN\ProjSrc\SrcDrfn\DrCommon\PartnerMng\_ChartBozoManager.cpp
; File C:\Program Files (x86)\Microsoft Visual Studio\2019\Community\VC\Tools\MSVC\14.29.30133\atlmfc\include\atlsimpstr.h
; File D:\git\src\IBK\IBK_DRFN\ProjSrc\SrcDrfn\DrCommon\PartnerMng\_ChartBozoManager.cpp
; File C:\Program Files (x86)\Microsoft Visual Studio\2019\Community\VC\Tools\MSVC\14.29.30133\atlmfc\include\atlsimpstr.h
; File D:\git\src\IBK\IBK_DRFN\ProjSrc\SrcDrfn\DrCommon\PartnerMng\_ChartBozoManager.cpp
; File C:\Program Files (x86)\Microsoft Visual Studio\2019\Community\VC\Tools\MSVC\14.29.30133\atlmfc\include\atlsimpstr.h
; File D:\git\src\IBK\IBK_DRFN\ProjSrc\SrcDrfn\DrCommon\PartnerMng\_ChartBozoManager.cpp
; File C:\Program Files (x86)\Microsoft Visual Studio\2019\Community\VC\Tools\MSVC\14.29.30133\atlmfc\include\atlsimpstr.h
; File D:\git\src\IBK\IBK_DRFN\ProjSrc\SrcDrfn\DrCommon\PartnerMng\_ChartBozoManager.cpp
; File C:\Program Files (x86)\Microsoft Visual Studio\2019\Community\VC\Tools\MSVC\14.29.30133\atlmfc\include\atlsimpstr.h
; File D:\git\src\IBK\IBK_DRFN\ProjSrc\SrcDrfn\DrCommon\PartnerMng\_ChartBozoManager.cpp
; File C:\Program Files (x86)\Microsoft Visual Studio\2019\Community\VC\Tools\MSVC\14.29.30133\atlmfc\include\atlsimpstr.h
; File D:\git\src\IBK\IBK_DRFN\ProjSrc\SrcDrfn\DrCommon\PartnerMng\_ChartBozoManager.cpp
; File C:\Program Files (x86)\Microsoft Visual Studio\2019\Community\VC\Tools\MSVC\14.29.30133\atlmfc\include\atlsimpstr.h
; File D:\git\src\IBK\IBK_DRFN\ProjSrc\SrcDrfn\DrCommon\PartnerMng\_ChartBozoManager.cpp
; File C:\Program Files (x86)\Microsoft Visual Studio\2019\Community\VC\Tools\MSVC\14.29.30133\atlmfc\include\atlsimpstr.h
; File D:\git\src\IBK\IBK_DRFN\ProjSrc\SrcDrfn\DrCommon\PartnerMng\_ChartBozoManager.cpp
; File C:\Program Files (x86)\Microsoft Visual Studio\2019\Community\VC\Tools\MSVC\14.29.30133\atlmfc\include\atlsimpstr.h
; File D:\git\src\IBK\IBK_DRFN\ProjSrc\SrcDrfn\DrCommon\PartnerMng\_ChartBozoManager.cpp
; File C:\Program Files (x86)\Microsoft Visual Studio\2019\Community\VC\Tools\MSVC\14.29.30133\atlmfc\include\atlsimpstr.h
; File D:\git\src\IBK\IBK_DRFN\ProjSrc\SrcDrfn\DrCommon\PartnerMng\_ChartBozoManager.cpp
; File C:\Program Files (x86)\Microsoft Visual Studio\2019\Community\VC\Tools\MSVC\14.29.30133\atlmfc\include\atlsimpstr.h
; File D:\git\src\IBK\IBK_DRFN\ProjSrc\SrcDrfn\DrCommon\PartnerMng\_ChartBozoManager.cpp
; File C:\Program Files (x86)\Microsoft Visual Studio\2019\Community\VC\Tools\MSVC\14.29.30133\atlmfc\include\atlsimpstr.h
; File D:\git\src\IBK\IBK_DRFN\ProjSrc\SrcDrfn\DrCommon\PartnerMng\_ChartBozoManager.cpp
; File C:\Program Files (x86)\Microsoft Visual Studio\2019\Community\VC\Tools\MSVC\14.29.30133\atlmfc\include\atlsimpstr.h
; File D:\git\src\IBK\IBK_DRFN\ProjSrc\SrcDrfn\DrCommon\PartnerMng\_ChartBozoManager.cpp
; File C:\Program Files (x86)\Microsoft Visual Studio\2019\Community\VC\Tools\MSVC\14.29.30133\atlmfc\include\atlsimpstr.h
; File D:\git\src\IBK\IBK_DRFN\ProjSrc\SrcDrfn\DrCommon\PartnerMng\_ChartBozoManager.cpp
; File C:\Program Files (x86)\Microsoft Visual Studio\2019\Community\VC\Tools\MSVC\14.29.30133\atlmfc\include\atlsimpstr.h
; File D:\git\src\IBK\IBK_DRFN\ProjSrc\SrcDrfn\DrCommon\PartnerMng\_ChartBozoManager.cpp
;	COMDAT ?MakeChtBojo_ctfo@CChartBozoManager@@UAGHPAVCChartBozoInput@@AAV?$CStringT@DV?$StrTraitMFC_DLL@DV?$ChTraitsCRT@D@ATL@@@@@ATL@@H@Z
_TEXT	SEGMENT
_rString$GSCopy$1$ = -980				; size = 4
_volume$1$ = -976					; size = 8
_szTmpExt$ = -968					; size = 4
tv1254 = -964						; size = 4
$T1 = -964						; size = 4
$T2 = -964						; size = 4
$T3 = -964						; size = 4
tv1232 = -960						; size = 4
tv1231 = -960						; size = 4
tv1230 = -960						; size = 4
tv1198 = -960						; size = 4
$T4 = -960						; size = 4
_nOption$GSCopy$1$ = -956				; size = 4
tv1252 = -956						; size = 4
tv1241 = -952						; size = 4
tv1240 = -952						; size = 4
tv1233 = -952						; size = 4
tv1228 = -952						; size = 4
tv1227 = -952						; size = 4
tv1226 = -952						; size = 4
$T5 = -948						; size = 4
$T6 = -948						; size = 4
$T7 = -948						; size = 4
tv1256 = -948						; size = 4
tv1229 = -948						; size = 4
tv1199 = -948						; size = 4
tv1196 = -948						; size = 4
$T8 = -944						; size = 4
$T9 = -944						; size = 4
$T10 = -944						; size = 4
tv1255 = -944						; size = 4
tv1197 = -944						; size = 4
$T11 = -944						; size = 4
$T12 = -944						; size = 4
_pChartBInput$GSCopy$1$ = -940				; size = 4
tv1253 = -940						; size = 4
tv1239 = -933						; size = 1
_lsBojo$ = -932						; size = 800
_lsRelpsa$ = -132					; size = 128
__$ArrayPad$ = -4					; size = 4
_this$ = 8						; size = 4
_pChartBInput$ = 12					; size = 4
_rString$ = 16						; size = 4
_nOption$ = 20						; size = 4
?MakeChtBojo_ctfo@CChartBozoManager@@UAGHPAVCChartBozoInput@@AAV?$CStringT@DV?$StrTraitMFC_DLL@DV?$ChTraitsCRT@D@ATL@@@@@ATL@@H@Z PROC ; CChartBozoManager::MakeChtBojo_ctfo, COMDAT

; 610  : {

  00000	55		 push	 ebp
  00001	8b ec		 mov	 ebp, esp
  00003	81 ec d4 03 00
	00		 sub	 esp, 980		; 000003d4H
  00009	a1 00 00 00 00	 mov	 eax, DWORD PTR ___security_cookie
  0000e	33 c5		 xor	 eax, ebp
  00010	89 45 fc	 mov	 DWORD PTR __$ArrayPad$[ebp], eax
  00013	8b 45 10	 mov	 eax, DWORD PTR _rString$[ebp]
  00016	53		 push	 ebx
  00017	8b 5d 0c	 mov	 ebx, DWORD PTR _pChartBInput$[ebp]
  0001a	56		 push	 esi
  0001b	8b 75 14	 mov	 esi, DWORD PTR _nOption$[ebp]
  0001e	57		 push	 edi
  0001f	66 0f 6e 83 84
	00 00 00	 movd	 xmm0, DWORD PTR [ebx+132]

; 611  : 	char 	lsBojo[800], lsRelpsa[128], lcChtAE;
; 612  : 	double 	recprice=0.0, volume=0.0, price=0.0, high=0.0, low=0.0;
; 613  : 
; 614  : 	recprice = (double)pChartBInput->lPrice;
; 615  : 	volume	 = (double)pChartBInput->lVolume;

  00027	f3 0f e6 c0	 cvtdq2pd xmm0, xmm0

; 616  : 
; 617  : 	memset(lsBojo      , 0x20, sizeof(lsBojo      ));

  0002b	68 20 03 00 00	 push	 800			; 00000320H
  00030	89 85 2c fc ff
	ff		 mov	 DWORD PTR _rString$GSCopy$1$[ebp], eax
  00036	8d 85 5c fc ff
	ff		 lea	 eax, DWORD PTR _lsBojo$[ebp]
  0003c	6a 20		 push	 32			; 00000020H
  0003e	50		 push	 eax
  0003f	89 9d 54 fc ff
	ff		 mov	 DWORD PTR _pChartBInput$GSCopy$1$[ebp], ebx
  00045	89 b5 44 fc ff
	ff		 mov	 DWORD PTR _nOption$GSCopy$1$[ebp], esi
  0004b	f2 0f 11 85 30
	fc ff ff	 movsd	 QWORD PTR _volume$1$[ebp], xmm0
  00053	e8 00 00 00 00	 call	 _memset

; 618  : 	memset(lsRelpsa    , 0x20, sizeof(lsRelpsa    ));

  00058	68 80 00 00 00	 push	 128			; 00000080H
  0005d	8d 85 7c ff ff
	ff		 lea	 eax, DWORD PTR _lsRelpsa$[ebp]
  00063	6a 20		 push	 32			; 00000020H
  00065	50		 push	 eax
  00066	e8 00 00 00 00	 call	 _memset

; 619  : 
; 620  : 	if (pChartBInput->sNxtFlg[0] == '1')	lcChtAE = 'A';
; 621  : 	else									lcChtAE = 'E';
; 622  : 
; 623  : 	if 	(pChartBInput->sTerm[0] == '0')

  0006b	8a 43 7c	 mov	 al, BYTE PTR [ebx+124]
  0006e	83 c4 18	 add	 esp, 24			; 00000018H
  00071	8a 4b 7d	 mov	 cl, BYTE PTR [ebx+125]
  00074	88 8d 5b fc ff
	ff		 mov	 BYTE PTR tv1239[ebp], cl
  0007a	3c 30		 cmp	 al, 48			; 00000030H
  0007c	0f 85 e9 00 00
	00		 jne	 $LN4@MakeChtBoj
; File C:\Program Files (x86)\Microsoft Visual Studio\2019\Community\VC\Tools\MSVC\14.29.30133\atlmfc\include\atlsimpstr.h

; 377  : 		return( m_pszData );

  00082	8b 8d 54 fc ff
	ff		 mov	 ecx, DWORD PTR _pChartBInput$GSCopy$1$[ebp]
; File D:\git\src\IBK\IBK_DRFN\ProjSrc\SrcDrfn\DrCommon\PartnerMng\_ChartBozoManager.cpp

; 625  : 		sprintf(lsBojo, "####UM=%c@BOUNDMARK=:%.2f,%.2f:%s:1:%s:%c@UD=5@UT=%ld@RDATET=DDHHMMSS@CB=_Close_:2|@PREVPRICE=_Close_:%s|_Volume_:%12.0f,_VolumeAmount_:%s@TDC=%s:_Open_,|%s:_High_,|%s:_Low_,|%s:_Close_,@RDC=%s:3:_Open_,|%s:3:_High_,|%s:3:_Low_,|%s:3:_Close_,@SCD=%.2f@OHL=:%.2f:%.2f:%.2f@",

  00088	8b 95 44 fc ff
	ff		 mov	 edx, DWORD PTR _nOption$GSCopy$1$[ebp]
; File C:\Program Files (x86)\Microsoft Visual Studio\2019\Community\VC\Tools\MSVC\14.29.30133\atlmfc\include\atlsimpstr.h

; 377  : 		return( m_pszData );

  0008e	8b 73 30	 mov	 esi, DWORD PTR [ebx+48]
  00091	8b 7b 2c	 mov	 edi, DWORD PTR [ebx+44]
  00094	8b 41 28	 mov	 eax, DWORD PTR [ecx+40]
; File D:\git\src\IBK\IBK_DRFN\ProjSrc\SrcDrfn\DrCommon\PartnerMng\_ChartBozoManager.cpp

; 625  : 		sprintf(lsBojo, "####UM=%c@BOUNDMARK=:%.2f,%.2f:%s:1:%s:%c@UD=5@UT=%ld@RDATET=DDHHMMSS@CB=_Close_:2|@PREVPRICE=_Close_:%s|_Volume_:%12.0f,_VolumeAmount_:%s@TDC=%s:_Open_,|%s:_High_,|%s:_Low_,|%s:_Close_,@RDC=%s:3:_Open_,|%s:3:_High_,|%s:3:_Low_,|%s:3:_Close_,@SCD=%.2f@OHL=:%.2f:%.2f:%.2f@",

  00097	ff 71 34	 push	 DWORD PTR [ecx+52]
; File C:\Program Files (x86)\Microsoft Visual Studio\2019\Community\VC\Tools\MSVC\14.29.30133\atlmfc\include\atlsimpstr.h

; 377  : 		return( m_pszData );

  0009a	8b 5b 44	 mov	 ebx, DWORD PTR [ebx+68]
  0009d	89 85 50 fc ff
	ff		 mov	 DWORD PTR $T12[ebp], eax
  000a3	8b 41 24	 mov	 eax, DWORD PTR [ecx+36]
  000a6	89 85 3c fc ff
	ff		 mov	 DWORD PTR $T3[ebp], eax
; File D:\git\src\IBK\IBK_DRFN\ProjSrc\SrcDrfn\DrCommon\PartnerMng\_ChartBozoManager.cpp

; 625  : 		sprintf(lsBojo, "####UM=%c@BOUNDMARK=:%.2f,%.2f:%s:1:%s:%c@UD=5@UT=%ld@RDATET=DDHHMMSS@CB=_Close_:2|@PREVPRICE=_Close_:%s|_Volume_:%12.0f,_VolumeAmount_:%s@TDC=%s:_Open_,|%s:_High_,|%s:_Low_,|%s:_Close_,@RDC=%s:3:_Open_,|%s:3:_High_,|%s:3:_Low_,|%s:3:_Close_,@SCD=%.2f@OHL=:%.2f:%.2f:%.2f@",

  000ac	8b 04 95 00 00
	00 00		 mov	 eax, DWORD PTR ?gChtRDC_RATE@@3PAPADA[edx*4]
  000b3	89 85 48 fc ff
	ff		 mov	 DWORD PTR tv1233[ebp], eax
  000b9	8b 04 95 00 00
	00 00		 mov	 eax, DWORD PTR ?gChtTDC_RATE@@3PAPADA[edx*4]
  000c0	89 85 4c fc ff
	ff		 mov	 DWORD PTR tv1229[ebp], eax
  000c6	ff 15 00 00 00
	00		 call	 DWORD PTR __imp__atof
  000cc	51		 push	 ecx
  000cd	dd 1c 24	 fstp	 QWORD PTR [esp]
  000d0	56		 push	 esi
  000d1	ff 15 00 00 00
	00		 call	 DWORD PTR __imp__atof
  000d7	51		 push	 ecx
  000d8	dd 1c 24	 fstp	 QWORD PTR [esp]
  000db	57		 push	 edi
  000dc	ff 15 00 00 00
	00		 call	 DWORD PTR __imp__atof
  000e2	51		 push	 ecx
  000e3	dd 1c 24	 fstp	 QWORD PTR [esp]
  000e6	53		 push	 ebx
  000e7	ff 15 00 00 00
	00		 call	 DWORD PTR __imp__atof
  000ed	8b 85 48 fc ff
	ff		 mov	 eax, DWORD PTR tv1233[ebp]
  000f3	8b 9d 54 fc ff
	ff		 mov	 ebx, DWORD PTR _pChartBInput$GSCopy$1$[ebp]
  000f9	51		 push	 ecx
  000fa	dd 1c 24	 fstp	 QWORD PTR [esp]
  000fd	50		 push	 eax
  000fe	50		 push	 eax
  000ff	50		 push	 eax
  00100	f2 0f 10 85 30
	fc ff ff	 movsd	 xmm0, QWORD PTR _volume$1$[ebp]
  00108	50		 push	 eax
  00109	8b 85 4c fc ff
	ff		 mov	 eax, DWORD PTR tv1229[ebp]
  0010f	50		 push	 eax
  00110	50		 push	 eax
  00111	50		 push	 eax
  00112	50		 push	 eax
  00113	ff 73 58	 push	 DWORD PTR [ebx+88]
  00116	8d 43 68	 lea	 eax, DWORD PTR [ebx+104]
  00119	83 ec 08	 sub	 esp, 8
  0011c	f2 0f 11 04 24	 movsd	 QWORD PTR [esp], xmm0
  00121	ff 73 38	 push	 DWORD PTR [ebx+56]
  00124	ff 73 78	 push	 DWORD PTR [ebx+120]
  00127	6a 31		 push	 49			; 00000031H
  00129	ff 73 38	 push	 DWORD PTR [ebx+56]
  0012c	50		 push	 eax
  0012d	ff b5 50 fc ff
	ff		 push	 DWORD PTR $T12[ebp]
  00133	ff 15 00 00 00
	00		 call	 DWORD PTR __imp__atof
  00139	51		 push	 ecx
  0013a	dd 1c 24	 fstp	 QWORD PTR [esp]
  0013d	ff b5 3c fc ff
	ff		 push	 DWORD PTR $T3[ebp]
  00143	ff 15 00 00 00
	00		 call	 DWORD PTR __imp__atof
  00149	33 c0		 xor	 eax, eax
  0014b	80 bd 5b fc ff
	ff 31		 cmp	 BYTE PTR tv1239[ebp], 49 ; 00000031H
  00152	51		 push	 ecx
  00153	0f 95 c0	 setne	 al
  00156	dd 1c 24	 fstp	 QWORD PTR [esp]
  00159	8d 04 85 41 00
	00 00		 lea	 eax, DWORD PTR [eax*4+65]
  00160	50		 push	 eax
  00161	68 00 00 00 00	 push	 OFFSET ??_C@_0BBJ@FBCAGBNM@?$CD?$CD?$CD?$CDUM?$DN?$CFc?$EABOUNDMARK?$DN?$LA?$KB?$LA?$NN?B?w?F?$KO?3?$CF?4@

; 626  : 			lcChtAE, 
; 627  : 			atof(pChartBInput->m_sUpLmtPrice), 
; 628  : 			atof(pChartBInput->m_sDnLmtPrice), 
; 629  : 			pChartBInput->sShcode,
; 630  : 			pChartBInput->m_sPreprice,	//recprice/100.0, 
; 631  : 			'1',
; 632  : 			pChartBInput->lTick, 
; 633  : 			pChartBInput->m_sPreprice,	//(double)pChartBInput->lPreprice,
; 634  : 			volume, 
; 635  : 			pChartBInput->m_sVolAmt, //[A00000651][A00000652].
; 636  : 			gChtTDC_RATE[nOption], gChtTDC_RATE[nOption], gChtTDC_RATE[nOption], gChtTDC_RATE[nOption], gChtRDC_RATE[nOption], gChtRDC_RATE[nOption], gChtRDC_RATE[nOption], gChtRDC_RATE[nOption],
; 637  : 			atof(pChartBInput->m_sFirstClose), 
; 638  : 			atof(pChartBInput->m_sOpen), atof(pChartBInput->m_sHigh), atof(pChartBInput->m_sLow));
; 639  : 	}

  00166	e9 4a 06 00 00	 jmp	 $LN141@MakeChtBoj
$LN4@MakeChtBoj:

; 640  : 	else if (pChartBInput->sTerm[0] == '1')

  0016b	3c 31		 cmp	 al, 49			; 00000031H
  0016d	0f 85 85 01 00
	00		 jne	 $LN6@MakeChtBoj

; 641  : 	{
; 642  : 		if(pChartBInput->lTick == 0)

  00173	8b 3c b5 00 00
	00 00		 mov	 edi, DWORD PTR ?gChtRDC_RATE@@3PAPADA[esi*4]
  0017a	33 c0		 xor	 eax, eax
  0017c	8b 34 b5 00 00
	00 00		 mov	 esi, DWORD PTR ?gChtTDC_RATE@@3PAPADA[esi*4]
  00183	80 f9 31	 cmp	 cl, 49			; 00000031H
  00186	8b 4b 30	 mov	 ecx, DWORD PTR [ebx+48]
  00189	0f 95 c0	 setne	 al
  0018c	89 8d 44 fc ff
	ff		 mov	 DWORD PTR tv1252[ebp], ecx
  00192	83 7b 78 00	 cmp	 DWORD PTR [ebx+120], 0
  00196	8b 4b 2c	 mov	 ecx, DWORD PTR [ebx+44]
  00199	89 8d 54 fc ff
	ff		 mov	 DWORD PTR tv1253[ebp], ecx
  0019f	8b 4b 44	 mov	 ecx, DWORD PTR [ebx+68]
  001a2	8d 04 85 41 00
	00 00		 lea	 eax, DWORD PTR [eax*4+65]
  001a9	89 8d 3c fc ff
	ff		 mov	 DWORD PTR tv1254[ebp], ecx
  001af	8b 4b 28	 mov	 ecx, DWORD PTR [ebx+40]
  001b2	89 85 48 fc ff
	ff		 mov	 DWORD PTR tv1240[ebp], eax
  001b8	8b 43 34	 mov	 eax, DWORD PTR [ebx+52]
  001bb	89 8d 50 fc ff
	ff		 mov	 DWORD PTR tv1255[ebp], ecx
  001c1	8b 4b 24	 mov	 ecx, DWORD PTR [ebx+36]
  001c4	89 8d 4c fc ff
	ff		 mov	 DWORD PTR tv1256[ebp], ecx
  001ca	50		 push	 eax
  001cb	0f 85 93 00 00
	00		 jne	 $LN8@MakeChtBoj

; 643  : 		{
; 644  : 			sprintf(lsBojo, "####UM=%c@BOUNDMARK=:%.2f,%.2f:%s:1:%s:%c@UD=4@UT=%d0@RDATET=DDHHMMSS@CB=_Close_:2|@PREVPRICE=_Close_:%s|_Volume_:%12.0f,_VolumeAmount_:%s@TDC=%s:_Open_,|%s:_High_,|%s:_Low_,|%s:_Close_,@RDC=%s:3:_Open_,|%s:3:_High_,|%s:3:_Low_,|%s:3:_Close_,@SCD=%.2f@OHL=:%.2f:%.2f:%.2f@", 

  001d1	ff 15 00 00 00
	00		 call	 DWORD PTR __imp__atof
  001d7	51		 push	 ecx
  001d8	dd 1c 24	 fstp	 QWORD PTR [esp]
  001db	ff b5 44 fc ff
	ff		 push	 DWORD PTR tv1252[ebp]
  001e1	ff 15 00 00 00
	00		 call	 DWORD PTR __imp__atof
  001e7	51		 push	 ecx
  001e8	dd 1c 24	 fstp	 QWORD PTR [esp]
  001eb	ff b5 54 fc ff
	ff		 push	 DWORD PTR tv1253[ebp]
  001f1	ff 15 00 00 00
	00		 call	 DWORD PTR __imp__atof
  001f7	51		 push	 ecx
  001f8	dd 1c 24	 fstp	 QWORD PTR [esp]
  001fb	ff b5 3c fc ff
	ff		 push	 DWORD PTR tv1254[ebp]
  00201	ff 15 00 00 00
	00		 call	 DWORD PTR __imp__atof
  00207	51		 push	 ecx
  00208	dd 1c 24	 fstp	 QWORD PTR [esp]
  0020b	57		 push	 edi
  0020c	57		 push	 edi
  0020d	f2 0f 10 85 30
	fc ff ff	 movsd	 xmm0, QWORD PTR _volume$1$[ebp]
  00215	8d 43 68	 lea	 eax, DWORD PTR [ebx+104]
  00218	57		 push	 edi
  00219	57		 push	 edi
  0021a	56		 push	 esi
  0021b	56		 push	 esi
  0021c	56		 push	 esi
  0021d	56		 push	 esi
  0021e	ff 73 58	 push	 DWORD PTR [ebx+88]
  00221	83 ec 08	 sub	 esp, 8
  00224	f2 0f 11 04 24	 movsd	 QWORD PTR [esp], xmm0
  00229	ff 73 38	 push	 DWORD PTR [ebx+56]
  0022c	6a 05		 push	 5
  0022e	6a 31		 push	 49			; 00000031H
  00230	ff 73 38	 push	 DWORD PTR [ebx+56]
  00233	50		 push	 eax
  00234	ff b5 50 fc ff
	ff		 push	 DWORD PTR tv1255[ebp]
  0023a	ff 15 00 00 00
	00		 call	 DWORD PTR __imp__atof
  00240	51		 push	 ecx
  00241	dd 1c 24	 fstp	 QWORD PTR [esp]
  00244	ff b5 4c fc ff
	ff		 push	 DWORD PTR tv1256[ebp]
  0024a	ff 15 00 00 00
	00		 call	 DWORD PTR __imp__atof
  00250	51		 push	 ecx
  00251	dd 1c 24	 fstp	 QWORD PTR [esp]
  00254	ff b5 48 fc ff
	ff		 push	 DWORD PTR tv1240[ebp]
  0025a	68 00 00 00 00	 push	 OFFSET ??_C@_0BBJ@NPHDBNNN@?$CD?$CD?$CD?$CDUM?$DN?$CFc?$EABOUNDMARK?$DN?$LA?$KB?$LA?$NN?B?w?F?$KO?3?$CF?4@

; 645  : 				lcChtAE,
; 646  : 				atof(pChartBInput->m_sUpLmtPrice), 
; 647  : 				atof(pChartBInput->m_sDnLmtPrice), 
; 648  : 				pChartBInput->sShcode,
; 649  : 				pChartBInput->m_sPreprice,	//(double)pChartBInput->lPreprice,	//recprice/100.0,
; 650  : 				'1',
; 651  : 				5,
; 652  : 				pChartBInput->m_sPreprice,	//(double)pChartBInput->lPreprice,
; 653  : 				volume,
; 654  : 				pChartBInput->m_sVolAmt, //[A00000651][A00000652].
; 655  : 				gChtTDC_RATE[nOption], gChtTDC_RATE[nOption], gChtTDC_RATE[nOption], gChtTDC_RATE[nOption], gChtRDC_RATE[nOption], gChtRDC_RATE[nOption], gChtRDC_RATE[nOption], gChtRDC_RATE[nOption],
; 656  : 				atof(pChartBInput->m_sFirstClose),
; 657  : 				atof(pChartBInput->m_sOpen), atof(pChartBInput->m_sHigh), atof(pChartBInput->m_sLow));
; 658  : 		}

  0025f	e9 51 05 00 00	 jmp	 $LN141@MakeChtBoj
$LN8@MakeChtBoj:

; 659  : 		else
; 660  : 		{
; 661  : 			sprintf(lsBojo, "####UM=%c@BOUNDMARK=:%.2f,%.2f:%s:1:%s:%c@UD=4@UT=%ld@RDATET=MMDDHHMM@CB=_Close_:2|@PREVPRICE=_Close_:%s|_Volume_:%12.0f,_VolumeAmount_:%s@TDC=%s:_Open_,|%s:_High_,|%s:_Low_,|%s:_Close_,@RDC=%s:3:_Open_,|%s:3:_High_,|%s:3:_Low_,|%s:3:_Close_,@SCD=%.2f@OHL=:%.2f:%.2f:%.2f@",

  00264	ff 15 00 00 00
	00		 call	 DWORD PTR __imp__atof
  0026a	51		 push	 ecx
  0026b	dd 1c 24	 fstp	 QWORD PTR [esp]
  0026e	ff b5 44 fc ff
	ff		 push	 DWORD PTR tv1252[ebp]
  00274	ff 15 00 00 00
	00		 call	 DWORD PTR __imp__atof
  0027a	51		 push	 ecx
  0027b	dd 1c 24	 fstp	 QWORD PTR [esp]
  0027e	ff b5 54 fc ff
	ff		 push	 DWORD PTR tv1253[ebp]
  00284	ff 15 00 00 00
	00		 call	 DWORD PTR __imp__atof
  0028a	51		 push	 ecx
  0028b	dd 1c 24	 fstp	 QWORD PTR [esp]
  0028e	ff b5 3c fc ff
	ff		 push	 DWORD PTR tv1254[ebp]
  00294	ff 15 00 00 00
	00		 call	 DWORD PTR __imp__atof
  0029a	51		 push	 ecx
  0029b	dd 1c 24	 fstp	 QWORD PTR [esp]
  0029e	57		 push	 edi
  0029f	57		 push	 edi
  002a0	f2 0f 10 85 30
	fc ff ff	 movsd	 xmm0, QWORD PTR _volume$1$[ebp]
  002a8	8d 43 68	 lea	 eax, DWORD PTR [ebx+104]
  002ab	57		 push	 edi
  002ac	57		 push	 edi
  002ad	56		 push	 esi
  002ae	56		 push	 esi
  002af	56		 push	 esi
  002b0	56		 push	 esi
  002b1	ff 73 58	 push	 DWORD PTR [ebx+88]
  002b4	83 ec 08	 sub	 esp, 8
  002b7	f2 0f 11 04 24	 movsd	 QWORD PTR [esp], xmm0
  002bc	ff 73 38	 push	 DWORD PTR [ebx+56]
  002bf	ff 73 78	 push	 DWORD PTR [ebx+120]
  002c2	6a 31		 push	 49			; 00000031H
  002c4	ff 73 38	 push	 DWORD PTR [ebx+56]
  002c7	50		 push	 eax
  002c8	ff b5 50 fc ff
	ff		 push	 DWORD PTR tv1255[ebp]
  002ce	ff 15 00 00 00
	00		 call	 DWORD PTR __imp__atof
  002d4	51		 push	 ecx
  002d5	dd 1c 24	 fstp	 QWORD PTR [esp]
  002d8	ff b5 4c fc ff
	ff		 push	 DWORD PTR tv1256[ebp]
  002de	ff 15 00 00 00
	00		 call	 DWORD PTR __imp__atof
  002e4	51		 push	 ecx
  002e5	dd 1c 24	 fstp	 QWORD PTR [esp]
  002e8	ff b5 48 fc ff
	ff		 push	 DWORD PTR tv1240[ebp]
  002ee	68 00 00 00 00	 push	 OFFSET ??_C@_0BBJ@CJIMFCEH@?$CD?$CD?$CD?$CDUM?$DN?$CFc?$EABOUNDMARK?$DN?$LA?$KB?$LA?$NN?B?w?F?$KO?3?$CF?4@

; 662  : 				lcChtAE,
; 663  : 				atof(pChartBInput->m_sUpLmtPrice), 
; 664  : 				atof(pChartBInput->m_sDnLmtPrice), 
; 665  : 				pChartBInput->sShcode,
; 666  : 				pChartBInput->m_sPreprice,	//(double)pChartBInput->lPreprice,	//recprice/100.0,
; 667  : 				'1',
; 668  : 				pChartBInput->lTick,
; 669  : 				pChartBInput->m_sPreprice,	//(double)pChartBInput->lPreprice,
; 670  : 				volume,
; 671  : 				pChartBInput->m_sVolAmt, //[A00000651][A00000652].
; 672  : 				gChtTDC_RATE[nOption], gChtTDC_RATE[nOption], gChtTDC_RATE[nOption], gChtTDC_RATE[nOption], gChtRDC_RATE[nOption], gChtRDC_RATE[nOption], gChtRDC_RATE[nOption], gChtRDC_RATE[nOption],
; 673  : 				atof(pChartBInput->m_sFirstClose),
; 674  : 				atof(pChartBInput->m_sOpen), atof(pChartBInput->m_sHigh), atof(pChartBInput->m_sLow));
; 675  : 		}
; 676  : 	}

  002f3	e9 bd 04 00 00	 jmp	 $LN141@MakeChtBoj
$LN6@MakeChtBoj:

; 677  : 	else if (pChartBInput->sTerm[0] == '2')

  002f8	3c 32		 cmp	 al, 50			; 00000032H
  002fa	0f 85 ef 01 00
	00		 jne	 $LN10@MakeChtBoj
; File C:\Program Files (x86)\Microsoft Visual Studio\2019\Community\VC\Tools\MSVC\14.29.30133\atlmfc\include\atlsimpstr.h

; 533  : 		return( GetLength() == 0 );

  00300	33 c0		 xor	 eax, eax
  00302	8d 53 68	 lea	 edx, DWORD PTR [ebx+104]
  00305	80 f9 31	 cmp	 cl, 49			; 00000031H
  00308	0f 95 c0	 setne	 al
  0030b	8d 04 85 41 00
	00 00		 lea	 eax, DWORD PTR [eax*4+65]
  00312	89 85 48 fc ff
	ff		 mov	 DWORD PTR tv1241[ebp], eax
  00318	8b 43 40	 mov	 eax, DWORD PTR [ebx+64]
  0031b	83 78 f4 00	 cmp	 DWORD PTR [eax-12], 0
; File D:\git\src\IBK\IBK_DRFN\ProjSrc\SrcDrfn\DrCommon\PartnerMng\_ChartBozoManager.cpp

; 680  : 		if(pChartBInput->m_sStartTime.IsEmpty()==FALSE)

  0031f	0f 84 f3 00 00
	00		 je	 $LN12@MakeChtBoj

; 681  : 		{
; 682  : 			sprintf(lsRelpsa, "RELPSA=%.6s:%.8s", pChartBInput->m_sStartTime, pChartBInput->sShcode);

  00325	52		 push	 edx
  00326	50		 push	 eax
  00327	8d 85 7c ff ff
	ff		 lea	 eax, DWORD PTR _lsRelpsa$[ebp]
  0032d	68 00 00 00 00	 push	 OFFSET ??_C@_0BB@BHEDDFJJ@RELPSA?$DN?$CF?46s?3?$CF?48s@
  00332	50		 push	 eax
  00333	e8 00 00 00 00	 call	 _sprintf
; File C:\Program Files (x86)\Microsoft Visual Studio\2019\Community\VC\Tools\MSVC\14.29.30133\atlmfc\include\atlsimpstr.h

; 377  : 		return( m_pszData );

  00338	8b 8d 54 fc ff
	ff		 mov	 ecx, DWORD PTR _pChartBInput$GSCopy$1$[ebp]
; File D:\git\src\IBK\IBK_DRFN\ProjSrc\SrcDrfn\DrCommon\PartnerMng\_ChartBozoManager.cpp

; 683  : 			sprintf(lsBojo, "####UM=%c@BOUNDMARK=:%.2f,%.2f:%s:1:%s:%c@UD=1@RDATET=YYYYMMDD@CB=_Close_:2|@%s@PREVPRICE=_Close_:%s,_VolumeAmount_:%s@TDC=%s:_Open_,|%s:_High_,|%s:_Low_,|%s:_Close_,@RDC=%s:3:_Open_,|%s:3:_High_,|%s:3:_Low_,|%s:3:_Close_,@SCD=%.2f@OHL=:%.2f:%.2f:%.2f@",

  0033e	8b 95 44 fc ff
	ff		 mov	 edx, DWORD PTR _nOption$GSCopy$1$[ebp]
; File C:\Program Files (x86)\Microsoft Visual Studio\2019\Community\VC\Tools\MSVC\14.29.30133\atlmfc\include\atlsimpstr.h

; 377  : 		return( m_pszData );

  00344	8b 73 30	 mov	 esi, DWORD PTR [ebx+48]
  00347	8b 7b 2c	 mov	 edi, DWORD PTR [ebx+44]
  0034a	8b 41 28	 mov	 eax, DWORD PTR [ecx+40]
; File D:\git\src\IBK\IBK_DRFN\ProjSrc\SrcDrfn\DrCommon\PartnerMng\_ChartBozoManager.cpp

; 683  : 			sprintf(lsBojo, "####UM=%c@BOUNDMARK=:%.2f,%.2f:%s:1:%s:%c@UD=1@RDATET=YYYYMMDD@CB=_Close_:2|@%s@PREVPRICE=_Close_:%s,_VolumeAmount_:%s@TDC=%s:_Open_,|%s:_High_,|%s:_Low_,|%s:_Close_,@RDC=%s:3:_Open_,|%s:3:_High_,|%s:3:_Low_,|%s:3:_Close_,@SCD=%.2f@OHL=:%.2f:%.2f:%.2f@",

  0034d	ff 71 34	 push	 DWORD PTR [ecx+52]
; File C:\Program Files (x86)\Microsoft Visual Studio\2019\Community\VC\Tools\MSVC\14.29.30133\atlmfc\include\atlsimpstr.h

; 377  : 		return( m_pszData );

  00350	8b 5b 44	 mov	 ebx, DWORD PTR [ebx+68]
  00353	89 85 3c fc ff
	ff		 mov	 DWORD PTR $T2[ebp], eax
  00359	8b 41 24	 mov	 eax, DWORD PTR [ecx+36]
  0035c	89 85 40 fc ff
	ff		 mov	 DWORD PTR $T4[ebp], eax
; File D:\git\src\IBK\IBK_DRFN\ProjSrc\SrcDrfn\DrCommon\PartnerMng\_ChartBozoManager.cpp

; 683  : 			sprintf(lsBojo, "####UM=%c@BOUNDMARK=:%.2f,%.2f:%s:1:%s:%c@UD=1@RDATET=YYYYMMDD@CB=_Close_:2|@%s@PREVPRICE=_Close_:%s,_VolumeAmount_:%s@TDC=%s:_Open_,|%s:_High_,|%s:_Low_,|%s:_Close_,@RDC=%s:3:_Open_,|%s:3:_High_,|%s:3:_Low_,|%s:3:_Close_,@SCD=%.2f@OHL=:%.2f:%.2f:%.2f@",

  00362	8b 04 95 00 00
	00 00		 mov	 eax, DWORD PTR ?gChtRDC_RATE@@3PAPADA[edx*4]
  00369	89 85 4c fc ff
	ff		 mov	 DWORD PTR tv1199[ebp], eax
  0036f	8b 04 95 00 00
	00 00		 mov	 eax, DWORD PTR ?gChtTDC_RATE@@3PAPADA[edx*4]
  00376	89 85 50 fc ff
	ff		 mov	 DWORD PTR tv1197[ebp], eax
  0037c	ff 15 00 00 00
	00		 call	 DWORD PTR __imp__atof
  00382	83 c4 0c	 add	 esp, 12			; 0000000cH
  00385	dd 1c 24	 fstp	 QWORD PTR [esp]
  00388	56		 push	 esi
  00389	ff 15 00 00 00
	00		 call	 DWORD PTR __imp__atof
  0038f	51		 push	 ecx
  00390	dd 1c 24	 fstp	 QWORD PTR [esp]
  00393	57		 push	 edi
  00394	ff 15 00 00 00
	00		 call	 DWORD PTR __imp__atof
  0039a	51		 push	 ecx
  0039b	dd 1c 24	 fstp	 QWORD PTR [esp]
  0039e	53		 push	 ebx
  0039f	ff 15 00 00 00
	00		 call	 DWORD PTR __imp__atof
  003a5	8b 85 4c fc ff
	ff		 mov	 eax, DWORD PTR tv1199[ebp]
  003ab	8b 9d 54 fc ff
	ff		 mov	 ebx, DWORD PTR _pChartBInput$GSCopy$1$[ebp]
  003b1	51		 push	 ecx
  003b2	dd 1c 24	 fstp	 QWORD PTR [esp]
  003b5	50		 push	 eax
  003b6	50		 push	 eax
  003b7	50		 push	 eax
  003b8	50		 push	 eax
  003b9	8b 85 50 fc ff
	ff		 mov	 eax, DWORD PTR tv1197[ebp]
  003bf	50		 push	 eax
  003c0	50		 push	 eax
  003c1	50		 push	 eax
  003c2	50		 push	 eax
  003c3	ff 73 58	 push	 DWORD PTR [ebx+88]
  003c6	8d 85 7c ff ff
	ff		 lea	 eax, DWORD PTR _lsRelpsa$[ebp]
  003cc	ff 73 38	 push	 DWORD PTR [ebx+56]
  003cf	50		 push	 eax
  003d0	6a 31		 push	 49			; 00000031H
  003d2	ff 73 38	 push	 DWORD PTR [ebx+56]
  003d5	8d 43 68	 lea	 eax, DWORD PTR [ebx+104]
  003d8	50		 push	 eax
  003d9	ff b5 3c fc ff
	ff		 push	 DWORD PTR $T2[ebp]
  003df	ff 15 00 00 00
	00		 call	 DWORD PTR __imp__atof
  003e5	51		 push	 ecx
  003e6	dd 1c 24	 fstp	 QWORD PTR [esp]
  003e9	ff b5 40 fc ff
	ff		 push	 DWORD PTR $T4[ebp]
  003ef	ff 15 00 00 00
	00		 call	 DWORD PTR __imp__atof
  003f5	51		 push	 ecx
  003f6	dd 1c 24	 fstp	 QWORD PTR [esp]
  003f9	ff b5 48 fc ff
	ff		 push	 DWORD PTR tv1241[ebp]
  003ff	8d 85 5c fc ff
	ff		 lea	 eax, DWORD PTR _lsBojo$[ebp]
  00405	68 00 00 00 00	 push	 OFFSET ??_C@_0BAF@DOMNDJJA@?$CD?$CD?$CD?$CDUM?$DN?$CFc?$EABOUNDMARK?$DN?$LA?$KB?$LA?$NN?B?w?F?$KO?3?$CF?4@
  0040a	50		 push	 eax
  0040b	e8 00 00 00 00	 call	 _sprintf
  00410	83 c4 74	 add	 esp, 116		; 00000074H

; 684  : 				lcChtAE,
; 685  : 				atof(pChartBInput->m_sUpLmtPrice), 
; 686  : 				atof(pChartBInput->m_sDnLmtPrice), 
; 687  : 				pChartBInput->sShcode,
; 688  : 				pChartBInput->m_sPreprice,	//(double)pChartBInput->lPreprice,	//recprice/100.0,
; 689  : 				'1',
; 690  : 				lsRelpsa,
; 691  : 				pChartBInput->m_sPreprice,	//(double)pChartBInput->lPreprice,
; 692  : 				pChartBInput->m_sVolAmt, //[A00000651][A00000652].
; 693  : 				gChtTDC_RATE[nOption], gChtTDC_RATE[nOption], gChtTDC_RATE[nOption], gChtTDC_RATE[nOption], gChtRDC_RATE[nOption], gChtRDC_RATE[nOption], gChtRDC_RATE[nOption], gChtRDC_RATE[nOption],
; 694  : 				atof(pChartBInput->m_sFirstClose),
; 695  : 				atof(pChartBInput->m_sOpen), atof(pChartBInput->m_sHigh), atof(pChartBInput->m_sLow));
; 696  : 		}

  00413	e9 ac 03 00 00	 jmp	 $LN19@MakeChtBoj
$LN12@MakeChtBoj:
; File C:\Program Files (x86)\Microsoft Visual Studio\2019\Community\VC\Tools\MSVC\14.29.30133\atlmfc\include\atlsimpstr.h

; 377  : 		return( m_pszData );

  00418	8b 8d 54 fc ff
	ff		 mov	 ecx, DWORD PTR _pChartBInput$GSCopy$1$[ebp]
; File D:\git\src\IBK\IBK_DRFN\ProjSrc\SrcDrfn\DrCommon\PartnerMng\_ChartBozoManager.cpp

; 699  : 			sprintf(lsBojo, "####UM=%c@BOUNDMARK=:%.2f,%.2f:%s:1:%s:%c@UD=1@RDATET=YYYYMMDD@CB=_Close_:2|@@PREVPRICE=_Close_:%s,_VolumeAmount_:%s@TDC=%s:_Open_,|%s:_High_,|%s:_Low_,|%s:_Close_,@RDC=%s:3:_Open_,|%s:3:_High_,|%s:3:_Low_,|%s:3:_Close_,@SCD=%.2f@OHL=:%.2f:%.2f:%.2f@",

  0041e	8b 95 44 fc ff
	ff		 mov	 edx, DWORD PTR _nOption$GSCopy$1$[ebp]
; File C:\Program Files (x86)\Microsoft Visual Studio\2019\Community\VC\Tools\MSVC\14.29.30133\atlmfc\include\atlsimpstr.h

; 377  : 		return( m_pszData );

  00424	8b 73 30	 mov	 esi, DWORD PTR [ebx+48]
  00427	8b 7b 2c	 mov	 edi, DWORD PTR [ebx+44]
  0042a	8b 41 28	 mov	 eax, DWORD PTR [ecx+40]
; File D:\git\src\IBK\IBK_DRFN\ProjSrc\SrcDrfn\DrCommon\PartnerMng\_ChartBozoManager.cpp

; 699  : 			sprintf(lsBojo, "####UM=%c@BOUNDMARK=:%.2f,%.2f:%s:1:%s:%c@UD=1@RDATET=YYYYMMDD@CB=_Close_:2|@@PREVPRICE=_Close_:%s,_VolumeAmount_:%s@TDC=%s:_Open_,|%s:_High_,|%s:_Low_,|%s:_Close_,@RDC=%s:3:_Open_,|%s:3:_High_,|%s:3:_Low_,|%s:3:_Close_,@SCD=%.2f@OHL=:%.2f:%.2f:%.2f@",

  0042d	ff 71 34	 push	 DWORD PTR [ecx+52]
; File C:\Program Files (x86)\Microsoft Visual Studio\2019\Community\VC\Tools\MSVC\14.29.30133\atlmfc\include\atlsimpstr.h

; 377  : 		return( m_pszData );

  00430	8b 5b 44	 mov	 ebx, DWORD PTR [ebx+68]
  00433	89 85 50 fc ff
	ff		 mov	 DWORD PTR $T11[ebp], eax
  00439	8b 41 24	 mov	 eax, DWORD PTR [ecx+36]
  0043c	89 85 3c fc ff
	ff		 mov	 DWORD PTR $T1[ebp], eax
; File D:\git\src\IBK\IBK_DRFN\ProjSrc\SrcDrfn\DrCommon\PartnerMng\_ChartBozoManager.cpp

; 699  : 			sprintf(lsBojo, "####UM=%c@BOUNDMARK=:%.2f,%.2f:%s:1:%s:%c@UD=1@RDATET=YYYYMMDD@CB=_Close_:2|@@PREVPRICE=_Close_:%s,_VolumeAmount_:%s@TDC=%s:_Open_,|%s:_High_,|%s:_Low_,|%s:_Close_,@RDC=%s:3:_Open_,|%s:3:_High_,|%s:3:_Low_,|%s:3:_Close_,@SCD=%.2f@OHL=:%.2f:%.2f:%.2f@",

  00442	8b 04 95 00 00
	00 00		 mov	 eax, DWORD PTR ?gChtRDC_RATE@@3PAPADA[edx*4]
  00449	89 85 40 fc ff
	ff		 mov	 DWORD PTR tv1198[ebp], eax
  0044f	8b 04 95 00 00
	00 00		 mov	 eax, DWORD PTR ?gChtTDC_RATE@@3PAPADA[edx*4]
  00456	89 85 4c fc ff
	ff		 mov	 DWORD PTR tv1196[ebp], eax
  0045c	ff 15 00 00 00
	00		 call	 DWORD PTR __imp__atof
  00462	51		 push	 ecx
  00463	dd 1c 24	 fstp	 QWORD PTR [esp]
  00466	56		 push	 esi
  00467	ff 15 00 00 00
	00		 call	 DWORD PTR __imp__atof
  0046d	51		 push	 ecx
  0046e	dd 1c 24	 fstp	 QWORD PTR [esp]
  00471	57		 push	 edi
  00472	ff 15 00 00 00
	00		 call	 DWORD PTR __imp__atof
  00478	51		 push	 ecx
  00479	dd 1c 24	 fstp	 QWORD PTR [esp]
  0047c	53		 push	 ebx
  0047d	ff 15 00 00 00
	00		 call	 DWORD PTR __imp__atof
  00483	8b 85 40 fc ff
	ff		 mov	 eax, DWORD PTR tv1198[ebp]
  00489	8b 9d 54 fc ff
	ff		 mov	 ebx, DWORD PTR _pChartBInput$GSCopy$1$[ebp]
  0048f	51		 push	 ecx
  00490	dd 1c 24	 fstp	 QWORD PTR [esp]
  00493	50		 push	 eax
  00494	50		 push	 eax
  00495	50		 push	 eax
  00496	50		 push	 eax
  00497	8b 85 4c fc ff
	ff		 mov	 eax, DWORD PTR tv1196[ebp]
  0049d	50		 push	 eax
  0049e	50		 push	 eax
  0049f	50		 push	 eax
  004a0	50		 push	 eax
  004a1	ff 73 58	 push	 DWORD PTR [ebx+88]
  004a4	8d 43 68	 lea	 eax, DWORD PTR [ebx+104]
  004a7	ff 73 38	 push	 DWORD PTR [ebx+56]
  004aa	6a 31		 push	 49			; 00000031H
  004ac	ff 73 38	 push	 DWORD PTR [ebx+56]
  004af	50		 push	 eax
  004b0	ff b5 50 fc ff
	ff		 push	 DWORD PTR $T11[ebp]
  004b6	ff 15 00 00 00
	00		 call	 DWORD PTR __imp__atof
  004bc	51		 push	 ecx
  004bd	dd 1c 24	 fstp	 QWORD PTR [esp]
  004c0	ff b5 3c fc ff
	ff		 push	 DWORD PTR $T1[ebp]
  004c6	ff 15 00 00 00
	00		 call	 DWORD PTR __imp__atof
  004cc	51		 push	 ecx
  004cd	dd 1c 24	 fstp	 QWORD PTR [esp]
  004d0	ff b5 48 fc ff
	ff		 push	 DWORD PTR tv1241[ebp]
  004d6	8d 85 5c fc ff
	ff		 lea	 eax, DWORD PTR _lsBojo$[ebp]
  004dc	68 00 00 00 00	 push	 OFFSET ??_C@_0BAD@OKPIANHP@?$CD?$CD?$CD?$CDUM?$DN?$CFc?$EABOUNDMARK?$DN?$LA?$KB?$LA?$NN?B?w?F?$KO?3?$CF?4@
  004e1	50		 push	 eax
  004e2	e8 00 00 00 00	 call	 _sprintf
  004e7	83 c4 70	 add	 esp, 112		; 00000070H

; 700  : 				lcChtAE,
; 701  : 				atof(pChartBInput->m_sUpLmtPrice), 
; 702  : 				atof(pChartBInput->m_sDnLmtPrice), 
; 703  : 				pChartBInput->sShcode,
; 704  : 				pChartBInput->m_sPreprice,	//(double)pChartBInput->lPreprice,	//recprice/100.0,
; 705  : 				'1',
; 706  : 				pChartBInput->m_sPreprice,	//(double)pChartBInput->lPreprice,
; 707  : 				pChartBInput->m_sVolAmt, //[A00000651][A00000652].
; 708  : 				gChtTDC_RATE[nOption], gChtTDC_RATE[nOption], gChtTDC_RATE[nOption], gChtTDC_RATE[nOption], gChtRDC_RATE[nOption], gChtRDC_RATE[nOption], gChtRDC_RATE[nOption], gChtRDC_RATE[nOption],
; 709  : 				atof(pChartBInput->m_sFirstClose),
; 710  : 				atof(pChartBInput->m_sOpen), atof(pChartBInput->m_sHigh), atof(pChartBInput->m_sLow));
; 711  : 		}
; 712  : 	}

  004ea	e9 d5 02 00 00	 jmp	 $LN19@MakeChtBoj
$LN10@MakeChtBoj:

; 713  : 	else if (pChartBInput->sTerm[0] == '3')

  004ef	3c 33		 cmp	 al, 51			; 00000033H
  004f1	0f 85 e5 00 00
	00		 jne	 $LN14@MakeChtBoj
; File C:\Program Files (x86)\Microsoft Visual Studio\2019\Community\VC\Tools\MSVC\14.29.30133\atlmfc\include\atlsimpstr.h

; 377  : 		return( m_pszData );

  004f7	8b 8d 54 fc ff
	ff		 mov	 ecx, DWORD PTR _pChartBInput$GSCopy$1$[ebp]
; File D:\git\src\IBK\IBK_DRFN\ProjSrc\SrcDrfn\DrCommon\PartnerMng\_ChartBozoManager.cpp

; 715  : 		sprintf(lsBojo, "####UM=%c@BOUNDMARK=:%.2f,%.2f:%s:1:%s:%c@UD=2@RDATET=YYYYMMDD@CB=_Close_:2|@PREVPRICE=_Close_:%s,_VolumeAmount_:%s@TDC=%s:_Open_,|%s:_High_,|%s:_Low_,|%s:_Close_,@RDC=%s:3:_Open_,|%s:3:_High_,|%s:3:_Low_,|%s:3:_Close_,@SCD=%.2f@OHL=:%.2f:%.2f:%.2f@",

  004fd	8b 95 44 fc ff
	ff		 mov	 edx, DWORD PTR _nOption$GSCopy$1$[ebp]
; File C:\Program Files (x86)\Microsoft Visual Studio\2019\Community\VC\Tools\MSVC\14.29.30133\atlmfc\include\atlsimpstr.h

; 377  : 		return( m_pszData );

  00503	8b 73 30	 mov	 esi, DWORD PTR [ebx+48]
  00506	8b 7b 2c	 mov	 edi, DWORD PTR [ebx+44]
  00509	8b 41 28	 mov	 eax, DWORD PTR [ecx+40]
; File D:\git\src\IBK\IBK_DRFN\ProjSrc\SrcDrfn\DrCommon\PartnerMng\_ChartBozoManager.cpp

; 715  : 		sprintf(lsBojo, "####UM=%c@BOUNDMARK=:%.2f,%.2f:%s:1:%s:%c@UD=2@RDATET=YYYYMMDD@CB=_Close_:2|@PREVPRICE=_Close_:%s,_VolumeAmount_:%s@TDC=%s:_Open_,|%s:_High_,|%s:_Low_,|%s:_Close_,@RDC=%s:3:_Open_,|%s:3:_High_,|%s:3:_Low_,|%s:3:_Close_,@SCD=%.2f@OHL=:%.2f:%.2f:%.2f@",

  0050c	ff 71 34	 push	 DWORD PTR [ecx+52]
; File C:\Program Files (x86)\Microsoft Visual Studio\2019\Community\VC\Tools\MSVC\14.29.30133\atlmfc\include\atlsimpstr.h

; 377  : 		return( m_pszData );

  0050f	8b 5b 44	 mov	 ebx, DWORD PTR [ebx+68]
  00512	89 85 4c fc ff
	ff		 mov	 DWORD PTR $T7[ebp], eax
  00518	8b 41 24	 mov	 eax, DWORD PTR [ecx+36]
  0051b	89 85 50 fc ff
	ff		 mov	 DWORD PTR $T10[ebp], eax
; File D:\git\src\IBK\IBK_DRFN\ProjSrc\SrcDrfn\DrCommon\PartnerMng\_ChartBozoManager.cpp

; 715  : 		sprintf(lsBojo, "####UM=%c@BOUNDMARK=:%.2f,%.2f:%s:1:%s:%c@UD=2@RDATET=YYYYMMDD@CB=_Close_:2|@PREVPRICE=_Close_:%s,_VolumeAmount_:%s@TDC=%s:_Open_,|%s:_High_,|%s:_Low_,|%s:_Close_,@RDC=%s:3:_Open_,|%s:3:_High_,|%s:3:_Low_,|%s:3:_Close_,@SCD=%.2f@OHL=:%.2f:%.2f:%.2f@",

  00521	8b 04 95 00 00
	00 00		 mov	 eax, DWORD PTR ?gChtRDC_RATE@@3PAPADA[edx*4]
  00528	89 85 40 fc ff
	ff		 mov	 DWORD PTR tv1232[ebp], eax
  0052e	8b 04 95 00 00
	00 00		 mov	 eax, DWORD PTR ?gChtTDC_RATE@@3PAPADA[edx*4]
  00535	89 85 48 fc ff
	ff		 mov	 DWORD PTR tv1228[ebp], eax
  0053b	ff 15 00 00 00
	00		 call	 DWORD PTR __imp__atof
  00541	51		 push	 ecx
  00542	dd 1c 24	 fstp	 QWORD PTR [esp]
  00545	56		 push	 esi
  00546	ff 15 00 00 00
	00		 call	 DWORD PTR __imp__atof
  0054c	51		 push	 ecx
  0054d	dd 1c 24	 fstp	 QWORD PTR [esp]
  00550	57		 push	 edi
  00551	ff 15 00 00 00
	00		 call	 DWORD PTR __imp__atof
  00557	51		 push	 ecx
  00558	dd 1c 24	 fstp	 QWORD PTR [esp]
  0055b	53		 push	 ebx
  0055c	ff 15 00 00 00
	00		 call	 DWORD PTR __imp__atof
  00562	8b 85 40 fc ff
	ff		 mov	 eax, DWORD PTR tv1232[ebp]
  00568	8b 9d 54 fc ff
	ff		 mov	 ebx, DWORD PTR _pChartBInput$GSCopy$1$[ebp]
  0056e	51		 push	 ecx
  0056f	dd 1c 24	 fstp	 QWORD PTR [esp]
  00572	50		 push	 eax
  00573	50		 push	 eax
  00574	50		 push	 eax
  00575	50		 push	 eax
  00576	8b 85 48 fc ff
	ff		 mov	 eax, DWORD PTR tv1228[ebp]
  0057c	50		 push	 eax
  0057d	50		 push	 eax
  0057e	50		 push	 eax
  0057f	50		 push	 eax
  00580	ff 73 58	 push	 DWORD PTR [ebx+88]
  00583	8d 43 68	 lea	 eax, DWORD PTR [ebx+104]
  00586	ff 73 38	 push	 DWORD PTR [ebx+56]
  00589	6a 31		 push	 49			; 00000031H
  0058b	ff 73 38	 push	 DWORD PTR [ebx+56]
  0058e	50		 push	 eax
  0058f	ff b5 4c fc ff
	ff		 push	 DWORD PTR $T7[ebp]
  00595	ff 15 00 00 00
	00		 call	 DWORD PTR __imp__atof
  0059b	51		 push	 ecx
  0059c	dd 1c 24	 fstp	 QWORD PTR [esp]
  0059f	ff b5 50 fc ff
	ff		 push	 DWORD PTR $T10[ebp]
  005a5	ff 15 00 00 00
	00		 call	 DWORD PTR __imp__atof
  005ab	33 c0		 xor	 eax, eax
  005ad	80 bd 5b fc ff
	ff 31		 cmp	 BYTE PTR tv1239[ebp], 49 ; 00000031H
  005b4	51		 push	 ecx
  005b5	0f 95 c0	 setne	 al
  005b8	dd 1c 24	 fstp	 QWORD PTR [esp]
  005bb	8d 04 85 41 00
	00 00		 lea	 eax, DWORD PTR [eax*4+65]
  005c2	50		 push	 eax
  005c3	8d 85 5c fc ff
	ff		 lea	 eax, DWORD PTR _lsBojo$[ebp]
  005c9	68 00 00 00 00	 push	 OFFSET ??_C@_0BAC@MLJKMKML@?$CD?$CD?$CD?$CDUM?$DN?$CFc?$EABOUNDMARK?$DN?$LA?$KB?$LA?$NN?B?w?F?$KO?3?$CF?4@
  005ce	50		 push	 eax
  005cf	e8 00 00 00 00	 call	 _sprintf
  005d4	83 c4 70	 add	 esp, 112		; 00000070H

; 716  : 			lcChtAE,
; 717  : 			atof(pChartBInput->m_sUpLmtPrice), 
; 718  : 			atof(pChartBInput->m_sDnLmtPrice), 
; 719  : 			pChartBInput->sShcode,
; 720  : 			pChartBInput->m_sPreprice,	//(double)pChartBInput->lPreprice,	//recprice/100.0,
; 721  : 			'1',
; 722  : 			pChartBInput->m_sPreprice,	//(double)pChartBInput->lPreprice,
; 723  : 			pChartBInput->m_sVolAmt, //[A00000651][A00000652].
; 724  : 			gChtTDC_RATE[nOption], gChtTDC_RATE[nOption], gChtTDC_RATE[nOption], gChtTDC_RATE[nOption], gChtRDC_RATE[nOption], gChtRDC_RATE[nOption], gChtRDC_RATE[nOption], gChtRDC_RATE[nOption],
; 725  : 			atof(pChartBInput->m_sFirstClose),
; 726  : 			atof(pChartBInput->m_sOpen), atof(pChartBInput->m_sHigh), atof(pChartBInput->m_sLow));
; 727  : 	}

  005d7	e9 e8 01 00 00	 jmp	 $LN19@MakeChtBoj
$LN14@MakeChtBoj:

; 728  : 	else if (pChartBInput->sTerm[0] == '4')

  005dc	3c 34		 cmp	 al, 52			; 00000034H
  005de	0f 85 e5 00 00
	00		 jne	 $LN16@MakeChtBoj
; File C:\Program Files (x86)\Microsoft Visual Studio\2019\Community\VC\Tools\MSVC\14.29.30133\atlmfc\include\atlsimpstr.h

; 377  : 		return( m_pszData );

  005e4	8b 8d 54 fc ff
	ff		 mov	 ecx, DWORD PTR _pChartBInput$GSCopy$1$[ebp]
; File D:\git\src\IBK\IBK_DRFN\ProjSrc\SrcDrfn\DrCommon\PartnerMng\_ChartBozoManager.cpp

; 730  : 		sprintf(lsBojo, "####UM=%c@BOUNDMARK=:%.2f,%.2f:%s:1:%s:%c@UD=3@RDATET=YYYYMM@CB=_Close_:2|@PREVPRICE=_Close_:%s,_VolumeAmount_:%s@TDC=%s:_Open_,|%s:_High_,|%s:_Low_,|%s:_Close_,@RDC=%s:3:_Open_,|%s:3:_High_,|%s:3:_Low_,|%s:3:_Close_,@SCD=%.2f@OHL=:%.2f:%.2f:%.2f@",

  005ea	8b 95 44 fc ff
	ff		 mov	 edx, DWORD PTR _nOption$GSCopy$1$[ebp]
; File C:\Program Files (x86)\Microsoft Visual Studio\2019\Community\VC\Tools\MSVC\14.29.30133\atlmfc\include\atlsimpstr.h

; 377  : 		return( m_pszData );

  005f0	8b 73 30	 mov	 esi, DWORD PTR [ebx+48]
  005f3	8b 7b 2c	 mov	 edi, DWORD PTR [ebx+44]
  005f6	8b 41 28	 mov	 eax, DWORD PTR [ecx+40]
; File D:\git\src\IBK\IBK_DRFN\ProjSrc\SrcDrfn\DrCommon\PartnerMng\_ChartBozoManager.cpp

; 730  : 		sprintf(lsBojo, "####UM=%c@BOUNDMARK=:%.2f,%.2f:%s:1:%s:%c@UD=3@RDATET=YYYYMM@CB=_Close_:2|@PREVPRICE=_Close_:%s,_VolumeAmount_:%s@TDC=%s:_Open_,|%s:_High_,|%s:_Low_,|%s:_Close_,@RDC=%s:3:_Open_,|%s:3:_High_,|%s:3:_Low_,|%s:3:_Close_,@SCD=%.2f@OHL=:%.2f:%.2f:%.2f@",

  005f9	ff 71 34	 push	 DWORD PTR [ecx+52]
; File C:\Program Files (x86)\Microsoft Visual Studio\2019\Community\VC\Tools\MSVC\14.29.30133\atlmfc\include\atlsimpstr.h

; 377  : 		return( m_pszData );

  005fc	8b 5b 44	 mov	 ebx, DWORD PTR [ebx+68]
  005ff	89 85 4c fc ff
	ff		 mov	 DWORD PTR $T6[ebp], eax
  00605	8b 41 24	 mov	 eax, DWORD PTR [ecx+36]
  00608	89 85 50 fc ff
	ff		 mov	 DWORD PTR $T9[ebp], eax
; File D:\git\src\IBK\IBK_DRFN\ProjSrc\SrcDrfn\DrCommon\PartnerMng\_ChartBozoManager.cpp

; 730  : 		sprintf(lsBojo, "####UM=%c@BOUNDMARK=:%.2f,%.2f:%s:1:%s:%c@UD=3@RDATET=YYYYMM@CB=_Close_:2|@PREVPRICE=_Close_:%s,_VolumeAmount_:%s@TDC=%s:_Open_,|%s:_High_,|%s:_Low_,|%s:_Close_,@RDC=%s:3:_Open_,|%s:3:_High_,|%s:3:_Low_,|%s:3:_Close_,@SCD=%.2f@OHL=:%.2f:%.2f:%.2f@",

  0060e	8b 04 95 00 00
	00 00		 mov	 eax, DWORD PTR ?gChtRDC_RATE@@3PAPADA[edx*4]
  00615	89 85 40 fc ff
	ff		 mov	 DWORD PTR tv1231[ebp], eax
  0061b	8b 04 95 00 00
	00 00		 mov	 eax, DWORD PTR ?gChtTDC_RATE@@3PAPADA[edx*4]
  00622	89 85 48 fc ff
	ff		 mov	 DWORD PTR tv1227[ebp], eax
  00628	ff 15 00 00 00
	00		 call	 DWORD PTR __imp__atof
  0062e	51		 push	 ecx
  0062f	dd 1c 24	 fstp	 QWORD PTR [esp]
  00632	56		 push	 esi
  00633	ff 15 00 00 00
	00		 call	 DWORD PTR __imp__atof
  00639	51		 push	 ecx
  0063a	dd 1c 24	 fstp	 QWORD PTR [esp]
  0063d	57		 push	 edi
  0063e	ff 15 00 00 00
	00		 call	 DWORD PTR __imp__atof
  00644	51		 push	 ecx
  00645	dd 1c 24	 fstp	 QWORD PTR [esp]
  00648	53		 push	 ebx
  00649	ff 15 00 00 00
	00		 call	 DWORD PTR __imp__atof
  0064f	8b 85 40 fc ff
	ff		 mov	 eax, DWORD PTR tv1231[ebp]
  00655	8b 9d 54 fc ff
	ff		 mov	 ebx, DWORD PTR _pChartBInput$GSCopy$1$[ebp]
  0065b	51		 push	 ecx
  0065c	dd 1c 24	 fstp	 QWORD PTR [esp]
  0065f	50		 push	 eax
  00660	50		 push	 eax
  00661	50		 push	 eax
  00662	50		 push	 eax
  00663	8b 85 48 fc ff
	ff		 mov	 eax, DWORD PTR tv1227[ebp]
  00669	50		 push	 eax
  0066a	50		 push	 eax
  0066b	50		 push	 eax
  0066c	50		 push	 eax
  0066d	ff 73 58	 push	 DWORD PTR [ebx+88]
  00670	8d 43 68	 lea	 eax, DWORD PTR [ebx+104]
  00673	ff 73 38	 push	 DWORD PTR [ebx+56]
  00676	6a 31		 push	 49			; 00000031H
  00678	ff 73 38	 push	 DWORD PTR [ebx+56]
  0067b	50		 push	 eax
  0067c	ff b5 4c fc ff
	ff		 push	 DWORD PTR $T6[ebp]
  00682	ff 15 00 00 00
	00		 call	 DWORD PTR __imp__atof
  00688	51		 push	 ecx
  00689	dd 1c 24	 fstp	 QWORD PTR [esp]
  0068c	ff b5 50 fc ff
	ff		 push	 DWORD PTR $T9[ebp]
  00692	ff 15 00 00 00
	00		 call	 DWORD PTR __imp__atof
  00698	33 c0		 xor	 eax, eax
  0069a	80 bd 5b fc ff
	ff 31		 cmp	 BYTE PTR tv1239[ebp], 49 ; 00000031H
  006a1	51		 push	 ecx
  006a2	0f 95 c0	 setne	 al
  006a5	dd 1c 24	 fstp	 QWORD PTR [esp]
  006a8	8d 04 85 41 00
	00 00		 lea	 eax, DWORD PTR [eax*4+65]
  006af	50		 push	 eax
  006b0	8d 85 5c fc ff
	ff		 lea	 eax, DWORD PTR _lsBojo$[ebp]
  006b6	68 00 00 00 00	 push	 OFFSET ??_C@_0BAA@CCOHAGBM@?$CD?$CD?$CD?$CDUM?$DN?$CFc?$EABOUNDMARK?$DN?$LA?$KB?$LA?$NN?B?w?F?$KO?3?$CF?4@
  006bb	50		 push	 eax
  006bc	e8 00 00 00 00	 call	 _sprintf
  006c1	83 c4 70	 add	 esp, 112		; 00000070H

; 731  : 			lcChtAE,
; 732  : 			atof(pChartBInput->m_sUpLmtPrice), 
; 733  : 			atof(pChartBInput->m_sDnLmtPrice), 
; 734  : 			pChartBInput->sShcode,
; 735  : 			pChartBInput->m_sPreprice,	//(double)pChartBInput->lPreprice,	//recprice/100.0,
; 736  : 			'1',
; 737  : 			pChartBInput->m_sPreprice,	//(double)pChartBInput->lPreprice,
; 738  : 			pChartBInput->m_sVolAmt, //[A00000651][A00000652].
; 739  : 			gChtTDC_RATE[nOption], gChtTDC_RATE[nOption], gChtTDC_RATE[nOption], gChtTDC_RATE[nOption], gChtRDC_RATE[nOption], gChtRDC_RATE[nOption], gChtRDC_RATE[nOption], gChtRDC_RATE[nOption],
; 740  : 			atof(pChartBInput->m_sFirstClose),
; 741  : 			atof(pChartBInput->m_sOpen), atof(pChartBInput->m_sHigh), atof(pChartBInput->m_sLow));
; 742  : 	}

  006c4	e9 fb 00 00 00	 jmp	 $LN19@MakeChtBoj
$LN16@MakeChtBoj:

; 743  : 	else if (pChartBInput->sTerm[0] == '6')

  006c9	3c 36		 cmp	 al, 54			; 00000036H
  006cb	0f 85 ba 01 00
	00		 jne	 $LN18@MakeChtBoj
; File C:\Program Files (x86)\Microsoft Visual Studio\2019\Community\VC\Tools\MSVC\14.29.30133\atlmfc\include\atlsimpstr.h

; 377  : 		return( m_pszData );

  006d1	8b 8d 54 fc ff
	ff		 mov	 ecx, DWORD PTR _pChartBInput$GSCopy$1$[ebp]
; File D:\git\src\IBK\IBK_DRFN\ProjSrc\SrcDrfn\DrCommon\PartnerMng\_ChartBozoManager.cpp

; 745  : 		sprintf(lsBojo, "####UM=%c@BOUNDMARK=:%.2f,%.2f:%s:1:%s:%c@UD=4@UT=%ld@RDATET=DDHHMMSS@CB=_Close_:2|@PREVPRICE=_Close_:%s|_Volume_:%12.0f,_VolumeAmount_:%s@TDC=%s:_Open_,|%s:_High_,|%s:_Low_,|%s:_Close_,@RDC=%s:3:_Open_,|%s:3:_High_,|%s:3:_Low_,|%s:3:_Close_,@SCD=%.2f@OHL=:%.2f:%.2f:%.2f@",

  006d7	8b 95 44 fc ff
	ff		 mov	 edx, DWORD PTR _nOption$GSCopy$1$[ebp]
; File C:\Program Files (x86)\Microsoft Visual Studio\2019\Community\VC\Tools\MSVC\14.29.30133\atlmfc\include\atlsimpstr.h

; 377  : 		return( m_pszData );

  006dd	8b 73 30	 mov	 esi, DWORD PTR [ebx+48]
  006e0	8b 7b 2c	 mov	 edi, DWORD PTR [ebx+44]
  006e3	8b 41 28	 mov	 eax, DWORD PTR [ecx+40]
; File D:\git\src\IBK\IBK_DRFN\ProjSrc\SrcDrfn\DrCommon\PartnerMng\_ChartBozoManager.cpp

; 745  : 		sprintf(lsBojo, "####UM=%c@BOUNDMARK=:%.2f,%.2f:%s:1:%s:%c@UD=4@UT=%ld@RDATET=DDHHMMSS@CB=_Close_:2|@PREVPRICE=_Close_:%s|_Volume_:%12.0f,_VolumeAmount_:%s@TDC=%s:_Open_,|%s:_High_,|%s:_Low_,|%s:_Close_,@RDC=%s:3:_Open_,|%s:3:_High_,|%s:3:_Low_,|%s:3:_Close_,@SCD=%.2f@OHL=:%.2f:%.2f:%.2f@",

  006e6	ff 71 34	 push	 DWORD PTR [ecx+52]
; File C:\Program Files (x86)\Microsoft Visual Studio\2019\Community\VC\Tools\MSVC\14.29.30133\atlmfc\include\atlsimpstr.h

; 377  : 		return( m_pszData );

  006e9	8b 5b 44	 mov	 ebx, DWORD PTR [ebx+68]
  006ec	89 85 4c fc ff
	ff		 mov	 DWORD PTR $T5[ebp], eax
  006f2	8b 41 24	 mov	 eax, DWORD PTR [ecx+36]
  006f5	89 85 50 fc ff
	ff		 mov	 DWORD PTR $T8[ebp], eax
; File D:\git\src\IBK\IBK_DRFN\ProjSrc\SrcDrfn\DrCommon\PartnerMng\_ChartBozoManager.cpp

; 745  : 		sprintf(lsBojo, "####UM=%c@BOUNDMARK=:%.2f,%.2f:%s:1:%s:%c@UD=4@UT=%ld@RDATET=DDHHMMSS@CB=_Close_:2|@PREVPRICE=_Close_:%s|_Volume_:%12.0f,_VolumeAmount_:%s@TDC=%s:_Open_,|%s:_High_,|%s:_Low_,|%s:_Close_,@RDC=%s:3:_Open_,|%s:3:_High_,|%s:3:_Low_,|%s:3:_Close_,@SCD=%.2f@OHL=:%.2f:%.2f:%.2f@",

  006fb	8b 04 95 00 00
	00 00		 mov	 eax, DWORD PTR ?gChtRDC_RATE@@3PAPADA[edx*4]
  00702	89 85 40 fc ff
	ff		 mov	 DWORD PTR tv1230[ebp], eax
  00708	8b 04 95 00 00
	00 00		 mov	 eax, DWORD PTR ?gChtTDC_RATE@@3PAPADA[edx*4]
  0070f	89 85 48 fc ff
	ff		 mov	 DWORD PTR tv1226[ebp], eax
  00715	ff 15 00 00 00
	00		 call	 DWORD PTR __imp__atof
  0071b	51		 push	 ecx
  0071c	dd 1c 24	 fstp	 QWORD PTR [esp]
  0071f	56		 push	 esi
  00720	ff 15 00 00 00
	00		 call	 DWORD PTR __imp__atof
  00726	51		 push	 ecx
  00727	dd 1c 24	 fstp	 QWORD PTR [esp]
  0072a	57		 push	 edi
  0072b	ff 15 00 00 00
	00		 call	 DWORD PTR __imp__atof
  00731	51		 push	 ecx
  00732	dd 1c 24	 fstp	 QWORD PTR [esp]
  00735	53		 push	 ebx
  00736	ff 15 00 00 00
	00		 call	 DWORD PTR __imp__atof
  0073c	8b 85 40 fc ff
	ff		 mov	 eax, DWORD PTR tv1230[ebp]
  00742	8b 9d 54 fc ff
	ff		 mov	 ebx, DWORD PTR _pChartBInput$GSCopy$1$[ebp]
  00748	51		 push	 ecx
  00749	dd 1c 24	 fstp	 QWORD PTR [esp]
  0074c	50		 push	 eax
  0074d	50		 push	 eax
  0074e	50		 push	 eax
  0074f	f2 0f 10 85 30
	fc ff ff	 movsd	 xmm0, QWORD PTR _volume$1$[ebp]
  00757	50		 push	 eax
  00758	8b 85 48 fc ff
	ff		 mov	 eax, DWORD PTR tv1226[ebp]
  0075e	50		 push	 eax
  0075f	50		 push	 eax
  00760	50		 push	 eax
  00761	50		 push	 eax
  00762	ff 73 58	 push	 DWORD PTR [ebx+88]
  00765	8d 43 68	 lea	 eax, DWORD PTR [ebx+104]
  00768	83 ec 08	 sub	 esp, 8
  0076b	f2 0f 11 04 24	 movsd	 QWORD PTR [esp], xmm0
  00770	ff 73 38	 push	 DWORD PTR [ebx+56]
  00773	ff 73 78	 push	 DWORD PTR [ebx+120]
  00776	6a 31		 push	 49			; 00000031H
  00778	ff 73 38	 push	 DWORD PTR [ebx+56]
  0077b	50		 push	 eax
  0077c	ff b5 4c fc ff
	ff		 push	 DWORD PTR $T5[ebp]
  00782	ff 15 00 00 00
	00		 call	 DWORD PTR __imp__atof
  00788	51		 push	 ecx
  00789	dd 1c 24	 fstp	 QWORD PTR [esp]
  0078c	ff b5 50 fc ff
	ff		 push	 DWORD PTR $T8[ebp]
  00792	ff 15 00 00 00
	00		 call	 DWORD PTR __imp__atof
  00798	33 c0		 xor	 eax, eax
  0079a	80 bd 5b fc ff
	ff 31		 cmp	 BYTE PTR tv1239[ebp], 49 ; 00000031H
  007a1	51		 push	 ecx
  007a2	0f 95 c0	 setne	 al
  007a5	dd 1c 24	 fstp	 QWORD PTR [esp]
  007a8	8d 04 85 41 00
	00 00		 lea	 eax, DWORD PTR [eax*4+65]
  007af	50		 push	 eax
  007b0	68 00 00 00 00	 push	 OFFSET ??_C@_0BBJ@NOFDPNGI@?$CD?$CD?$CD?$CDUM?$DN?$CFc?$EABOUNDMARK?$DN?$LA?$KB?$LA?$NN?B?w?F?$KO?3?$CF?4@
$LN141@MakeChtBoj:

; 746  : 			lcChtAE,
; 747  : 			atof(pChartBInput->m_sUpLmtPrice), 
; 748  : 			atof(pChartBInput->m_sDnLmtPrice), 
; 749  : 			pChartBInput->sShcode,
; 750  : 			pChartBInput->m_sPreprice,	//(double)pChartBInput->lPreprice,	//recprice/100.0,
; 751  : 			'1',
; 752  : 			pChartBInput->lTick,
; 753  : 			pChartBInput->m_sPreprice,	//(double)pChartBInput->lPreprice,
; 754  : 			volume,
; 755  : 			pChartBInput->m_sVolAmt, //[A00000651][A00000652].
; 756  : 			gChtTDC_RATE[nOption], gChtTDC_RATE[nOption], gChtTDC_RATE[nOption], gChtTDC_RATE[nOption], gChtRDC_RATE[nOption], gChtRDC_RATE[nOption], gChtRDC_RATE[nOption], gChtRDC_RATE[nOption],
; 757  : 			atof(pChartBInput->m_sFirstClose), 
; 758  : 			atof(pChartBInput->m_sOpen), atof(pChartBInput->m_sHigh), atof(pChartBInput->m_sLow));
; 759  : 	}
; 760  : 	else
; 761  : 	{
; 762  : 		return 0;
; 763  : 	}
; 764  : 
; 765  : 	rString = lsBojo;

  007b5	8d 85 5c fc ff
	ff		 lea	 eax, DWORD PTR _lsBojo$[ebp]
  007bb	50		 push	 eax
  007bc	e8 00 00 00 00	 call	 _sprintf
  007c1	83 c4 7c	 add	 esp, 124		; 0000007cH
$LN19@MakeChtBoj:
  007c4	8b b5 2c fc ff
	ff		 mov	 esi, DWORD PTR _rString$GSCopy$1$[ebp]
  007ca	8d 85 5c fc ff
	ff		 lea	 eax, DWORD PTR _lsBojo$[ebp]
  007d0	50		 push	 eax
  007d1	8b ce		 mov	 ecx, esi
  007d3	ff 15 00 00 00
	00		 call	 DWORD PTR __imp_??4?$CStringT@DV?$StrTraitMFC_DLL@DV?$ChTraitsCRT@D@ATL@@@@@ATL@@QAEAAV01@PBD@Z

; 766  : 
; 767  : 	CString szTmpExt;

  007d9	8d 8d 38 fc ff
	ff		 lea	 ecx, DWORD PTR _szTmpExt$[ebp]
  007df	ff 15 00 00 00
	00		 call	 DWORD PTR __imp_??0?$CStringT@DV?$StrTraitMFC_DLL@DV?$ChTraitsCRT@D@ATL@@@@@ATL@@QAE@XZ
; File C:\Program Files (x86)\Microsoft Visual Studio\2019\Community\VC\Tools\MSVC\14.29.30133\atlmfc\include\atlsimpstr.h

; 533  : 		return( GetLength() == 0 );

  007e5	8b 43 60	 mov	 eax, DWORD PTR [ebx+96]
; File D:\git\src\IBK\IBK_DRFN\ProjSrc\SrcDrfn\DrCommon\PartnerMng\_ChartBozoManager.cpp

; 768  : 	if(pChartBInput->m_szMarketTime.IsEmpty()==FALSE)

  007e8	8b 3d 00 00 00
	00		 mov	 edi, DWORD PTR __imp_?Format@?$CStringT@DV?$StrTraitMFC_DLL@DV?$ChTraitsCRT@D@ATL@@@@@ATL@@QAAXPBDZZ
; File C:\Program Files (x86)\Microsoft Visual Studio\2019\Community\VC\Tools\MSVC\14.29.30133\atlmfc\include\atlsimpstr.h

; 533  : 		return( GetLength() == 0 );

  007ee	83 78 f4 00	 cmp	 DWORD PTR [eax-12], 0
; File D:\git\src\IBK\IBK_DRFN\ProjSrc\SrcDrfn\DrCommon\PartnerMng\_ChartBozoManager.cpp

; 768  : 	if(pChartBInput->m_szMarketTime.IsEmpty()==FALSE)

  007f2	74 21		 je	 SHORT $LN20@MakeChtBoj

; 769  : 	{
; 770  : 		szTmpExt.Format("MARKETTIME=%s@", pChartBInput->m_szMarketTime);

  007f4	50		 push	 eax
  007f5	8d 85 38 fc ff
	ff		 lea	 eax, DWORD PTR _szTmpExt$[ebp]
  007fb	68 00 00 00 00	 push	 OFFSET ??_C@_0P@PGBOBNFI@MARKETTIME?$DN?$CFs?$EA@
  00800	50		 push	 eax
  00801	ff d7		 call	 edi
  00803	83 c4 0c	 add	 esp, 12			; 0000000cH

; 771  : 		rString += szTmpExt;

  00806	8d 85 38 fc ff
	ff		 lea	 eax, DWORD PTR _szTmpExt$[ebp]
  0080c	8b ce		 mov	 ecx, esi
  0080e	50		 push	 eax
  0080f	ff 15 00 00 00
	00		 call	 DWORD PTR __imp_??Y?$CStringT@DV?$StrTraitMFC_DLL@DV?$ChTraitsCRT@D@ATL@@@@@ATL@@QAEAAV01@ABV?$CSimpleStringT@D$00@1@@Z
$LN20@MakeChtBoj:
; File C:\Program Files (x86)\Microsoft Visual Studio\2019\Community\VC\Tools\MSVC\14.29.30133\atlmfc\include\atlsimpstr.h

; 533  : 		return( GetLength() == 0 );

  00815	8b 43 64	 mov	 eax, DWORD PTR [ebx+100]
  00818	83 78 f4 00	 cmp	 DWORD PTR [eax-12], 0
; File D:\git\src\IBK\IBK_DRFN\ProjSrc\SrcDrfn\DrCommon\PartnerMng\_ChartBozoManager.cpp

; 774  : 	if(pChartBInput->m_szBaseTime.IsEmpty()==FALSE)

  0081c	74 21		 je	 SHORT $LN21@MakeChtBoj

; 775  : 	{
; 776  : 		szTmpExt.Format("BASETIME=%s@", pChartBInput->m_szBaseTime);

  0081e	50		 push	 eax
  0081f	8d 85 38 fc ff
	ff		 lea	 eax, DWORD PTR _szTmpExt$[ebp]
  00825	68 00 00 00 00	 push	 OFFSET ??_C@_0N@BEOFONCO@BASETIME?$DN?$CFs?$EA@
  0082a	50		 push	 eax
  0082b	ff d7		 call	 edi
  0082d	83 c4 0c	 add	 esp, 12			; 0000000cH

; 777  : 		rString += szTmpExt;		

  00830	8d 85 38 fc ff
	ff		 lea	 eax, DWORD PTR _szTmpExt$[ebp]
  00836	8b ce		 mov	 ecx, esi
  00838	50		 push	 eax
  00839	ff 15 00 00 00
	00		 call	 DWORD PTR __imp_??Y?$CStringT@DV?$StrTraitMFC_DLL@DV?$ChTraitsCRT@D@ATL@@@@@ATL@@QAEAAV01@ABV?$CSimpleStringT@D$00@1@@Z
$LN21@MakeChtBoj:

; 778  : 	}
; 779  : 
; 780  : 	// 20130222  :      .(   )
; 781  : 	szTmpExt.Format("DATATIME=%s@", pChartBInput->m_sLastDataTime);

  0083f	ff b3 c0 00 00
	00		 push	 DWORD PTR [ebx+192]
  00845	8d 85 38 fc ff
	ff		 lea	 eax, DWORD PTR _szTmpExt$[ebp]
  0084b	68 00 00 00 00	 push	 OFFSET ??_C@_0N@JENAIHAK@DATATIME?$DN?$CFs?$EA@
  00850	50		 push	 eax
  00851	ff d7		 call	 edi
  00853	83 c4 0c	 add	 esp, 12			; 0000000cH

; 782  : 	rString += szTmpExt;		

  00856	8d 85 38 fc ff
	ff		 lea	 eax, DWORD PTR _szTmpExt$[ebp]
  0085c	8b ce		 mov	 ecx, esi
  0085e	50		 push	 eax
  0085f	ff 15 00 00 00
	00		 call	 DWORD PTR __imp_??Y?$CStringT@DV?$StrTraitMFC_DLL@DV?$ChTraitsCRT@D@ATL@@@@@ATL@@QAEAAV01@ABV?$CSimpleStringT@D$00@1@@Z
; File C:\Program Files (x86)\Microsoft Visual Studio\2019\Community\VC\Tools\MSVC\14.29.30133\atlmfc\include\atlsimpstr.h

; 519  : 		return( GetData()->nDataLength );

  00865	8b 06		 mov	 eax, DWORD PTR [esi]
; File D:\git\src\IBK\IBK_DRFN\ProjSrc\SrcDrfn\DrCommon\PartnerMng\_ChartBozoManager.cpp

; 784  : 	return rString.GetLength();

  00867	8d 8d 38 fc ff
	ff		 lea	 ecx, DWORD PTR _szTmpExt$[ebp]
; File C:\Program Files (x86)\Microsoft Visual Studio\2019\Community\VC\Tools\MSVC\14.29.30133\atlmfc\include\atlsimpstr.h

; 519  : 		return( GetData()->nDataLength );

  0086d	8b 70 f4	 mov	 esi, DWORD PTR [eax-12]
; File D:\git\src\IBK\IBK_DRFN\ProjSrc\SrcDrfn\DrCommon\PartnerMng\_ChartBozoManager.cpp

; 784  : 	return rString.GetLength();

  00870	ff 15 00 00 00
	00		 call	 DWORD PTR __imp_??1?$CStringT@DV?$StrTraitMFC_DLL@DV?$ChTraitsCRT@D@ATL@@@@@ATL@@QAE@XZ
  00876	5f		 pop	 edi
  00877	8b c6		 mov	 eax, esi

; 785  : }

  00879	5e		 pop	 esi
  0087a	5b		 pop	 ebx
  0087b	8b 4d fc	 mov	 ecx, DWORD PTR __$ArrayPad$[ebp]
  0087e	33 cd		 xor	 ecx, ebp
  00880	e8 00 00 00 00	 call	 @__security_check_cookie@4
  00885	8b e5		 mov	 esp, ebp
  00887	5d		 pop	 ebp
  00888	c2 10 00	 ret	 16			; 00000010H
$LN18@MakeChtBoj:
  0088b	8b 4d fc	 mov	 ecx, DWORD PTR __$ArrayPad$[ebp]
  0088e	33 c0		 xor	 eax, eax
  00890	5f		 pop	 edi
  00891	5e		 pop	 esi
  00892	33 cd		 xor	 ecx, ebp
  00894	5b		 pop	 ebx
  00895	e8 00 00 00 00	 call	 @__security_check_cookie@4
  0089a	8b e5		 mov	 esp, ebp
  0089c	5d		 pop	 ebp
  0089d	c2 10 00	 ret	 16			; 00000010H
?MakeChtBojo_ctfo@CChartBozoManager@@UAGHPAVCChartBozoInput@@AAV?$CStringT@DV?$StrTraitMFC_DLL@DV?$ChTraitsCRT@D@ATL@@@@@ATL@@H@Z ENDP ; CChartBozoManager::MakeChtBojo_ctfo
_TEXT	ENDS
; Function compile flags: /Ogtp
; File D:\git\src\IBK\IBK_DRFN\ProjSrc\SrcDrfn\DrCommon\PartnerMng\_ChartBozoManager.cpp
; File C:\Program Files (x86)\Microsoft Visual Studio\2019\Community\VC\Tools\MSVC\14.29.30133\atlmfc\include\atlsimpstr.h
; File D:\git\src\IBK\IBK_DRFN\ProjSrc\SrcDrfn\DrCommon\PartnerMng\_ChartBozoManager.cpp
; File C:\Program Files (x86)\Microsoft Visual Studio\2019\Community\VC\Tools\MSVC\14.29.30133\atlmfc\include\atlsimpstr.h
; File D:\git\src\IBK\IBK_DRFN\ProjSrc\SrcDrfn\DrCommon\PartnerMng\_ChartBozoManager.cpp
; File C:\Program Files (x86)\Microsoft Visual Studio\2019\Community\VC\Tools\MSVC\14.29.30133\atlmfc\include\atlsimpstr.h
; File D:\git\src\IBK\IBK_DRFN\ProjSrc\SrcDrfn\DrCommon\PartnerMng\_ChartBozoManager.cpp
; File C:\Program Files (x86)\Microsoft Visual Studio\2019\Community\VC\Tools\MSVC\14.29.30133\atlmfc\include\atlsimpstr.h
; File D:\git\src\IBK\IBK_DRFN\ProjSrc\SrcDrfn\DrCommon\PartnerMng\_ChartBozoManager.cpp
; File C:\Program Files (x86)\Microsoft Visual Studio\2019\Community\VC\Tools\MSVC\14.29.30133\atlmfc\include\atlsimpstr.h
; File D:\git\src\IBK\IBK_DRFN\ProjSrc\SrcDrfn\DrCommon\PartnerMng\_ChartBozoManager.cpp
; File C:\Program Files (x86)\Microsoft Visual Studio\2019\Community\VC\Tools\MSVC\14.29.30133\atlmfc\include\atlsimpstr.h
; File D:\git\src\IBK\IBK_DRFN\ProjSrc\SrcDrfn\DrCommon\PartnerMng\_ChartBozoManager.cpp
;	COMDAT ?MakeChtBojo_ctsfo@CChartBozoManager@@UAGHPAVCChartBozoInput@@AAV?$CStringT@DV?$StrTraitMFC_DLL@DV?$ChTraitsCRT@D@ATL@@@@@ATL@@H@Z
_TEXT	SEGMENT
_sPrice$1$ = -1744					; size = 4
tv741 = -1737						; size = 1
_nOption$GSCopy$1$ = -1736				; size = 4
_szTmpExt$ = -1736					; size = 4
_lsBojo$ = -1732					; size = 800
_lsBMrk$ = -932						; size = 800
_lsRelpsa$ = -132					; size = 128
__$ArrayPad$ = -4					; size = 4
_this$ = 8						; size = 4
_pChartBInput$ = 12					; size = 4
_rString$ = 16						; size = 4
_nOption$ = 20						; size = 4
?MakeChtBojo_ctsfo@CChartBozoManager@@UAGHPAVCChartBozoInput@@AAV?$CStringT@DV?$StrTraitMFC_DLL@DV?$ChTraitsCRT@D@ATL@@@@@ATL@@H@Z PROC ; CChartBozoManager::MakeChtBojo_ctsfo, COMDAT

; 496  : {

  00000	55		 push	 ebp
  00001	8b ec		 mov	 ebp, esp
  00003	81 ec d0 06 00
	00		 sub	 esp, 1744		; 000006d0H
  00009	a1 00 00 00 00	 mov	 eax, DWORD PTR ___security_cookie
  0000e	33 c5		 xor	 eax, ebp
  00010	89 45 fc	 mov	 DWORD PTR __$ArrayPad$[ebp], eax
  00013	8b 45 14	 mov	 eax, DWORD PTR _nOption$[ebp]
  00016	53		 push	 ebx
  00017	56		 push	 esi
  00018	8b 75 0c	 mov	 esi, DWORD PTR _pChartBInput$[ebp]
  0001b	57		 push	 edi
  0001c	8b 7d 10	 mov	 edi, DWORD PTR _rString$[ebp]
  0001f	89 85 38 f9 ff
	ff		 mov	 DWORD PTR _nOption$GSCopy$1$[ebp], eax

; 497  : 	char    lsBMrk[800], lsBojo[800], lsRelpsa[128], lcChtAE;
; 498  : 
; 499  : 	long sPrice = pChartBInput->lPrice;

  00025	8b 86 80 00 00
	00		 mov	 eax, DWORD PTR [esi+128]

; 500  : 
; 501  : 	memset(lsBMrk      , 0x20, sizeof(lsBMrk      ));

  0002b	68 20 03 00 00	 push	 800			; 00000320H
  00030	89 85 30 f9 ff
	ff		 mov	 DWORD PTR _sPrice$1$[ebp], eax
  00036	8d 85 5c fc ff
	ff		 lea	 eax, DWORD PTR _lsBMrk$[ebp]
  0003c	6a 20		 push	 32			; 00000020H
  0003e	50		 push	 eax
  0003f	e8 00 00 00 00	 call	 _memset

; 502  : 	memset(lsBojo      , 0x20, sizeof(lsBojo      ));

  00044	68 20 03 00 00	 push	 800			; 00000320H
  00049	8d 85 3c f9 ff
	ff		 lea	 eax, DWORD PTR _lsBojo$[ebp]
  0004f	6a 20		 push	 32			; 00000020H
  00051	50		 push	 eax
  00052	e8 00 00 00 00	 call	 _memset

; 503  : 	memset(lsRelpsa    , 0x20, sizeof(lsRelpsa    ));

  00057	68 80 00 00 00	 push	 128			; 00000080H
  0005c	8d 85 7c ff ff
	ff		 lea	 eax, DWORD PTR _lsRelpsa$[ebp]
  00062	6a 20		 push	 32			; 00000020H
  00064	50		 push	 eax
  00065	e8 00 00 00 00	 call	 _memset

; 504  : 
; 505  : 	if (pChartBInput->sNxtFlg[0] == '1')	lcChtAE = 'A';

  0006a	8a 5e 7d	 mov	 bl, BYTE PTR [esi+125]
  0006d	83 c4 24	 add	 esp, 36			; 00000024H

; 506  : 	else									lcChtAE = 'E';
; 507  : 
; 508  : 	if (pChartBInput->nMarket == 1)	// 

  00070	83 be b4 00 00
	00 01		 cmp	 DWORD PTR [esi+180], 1
  00077	88 9d 37 f9 ff
	ff		 mov	 BYTE PTR tv741[ebp], bl
  0007d	74 14		 je	 SHORT $LN48@MakeChtBoj

; 509  : 	{
; 510  : 	}
; 511  : 	else // 
; 512  : 	{
; 513  : 		pChartBInput->lUpLmtPrice  = 0;

  0007f	c7 86 88 00 00
	00 00 00 00 00	 mov	 DWORD PTR [esi+136], 0

; 514  : 		pChartBInput->lDnLmtPrice = 0;

  00089	c7 86 8c 00 00
	00 00 00 00 00	 mov	 DWORD PTR [esi+140], 0
$LN48@MakeChtBoj:

; 515  : 	}
; 516  : 
; 517  : 	//   : 0-, 1-, 2-, 3-, 4-_Open_
; 518  : 	if(pChartBInput->sDataType[0] == '0')

  00093	80 7e 7e 30	 cmp	 BYTE PTR [esi+126], 48	; 00000030H
  00097	8d 56 68	 lea	 edx, DWORD PTR [esi+104]
  0009a	ff b6 98 00 00
	00		 push	 DWORD PTR [esi+152]
  000a0	ff b6 94 00 00
	00		 push	 DWORD PTR [esi+148]
  000a6	ff b6 90 00 00
	00		 push	 DWORD PTR [esi+144]
  000ac	75 31		 jne	 SHORT $LN6@MakeChtBoj

; 519  : 	{
; 520  : 		sprintf(lsBMrk, "BOUNDMARK=:%ld,%ld:%.8s:%s:%c@PREVPRICE=_Close_:%s,_VolumeAmount_:%s@OHL=:%ld:%ld:%ld@",

  000ae	ff 76 58	 push	 DWORD PTR [esi+88]
  000b1	8d 85 5c fc ff
	ff		 lea	 eax, DWORD PTR _lsBMrk$[ebp]
  000b7	ff 76 5c	 push	 DWORD PTR [esi+92]
  000ba	6a 31		 push	 49			; 00000031H
  000bc	ff 76 38	 push	 DWORD PTR [esi+56]
  000bf	52		 push	 edx
  000c0	ff b6 8c 00 00
	00		 push	 DWORD PTR [esi+140]
  000c6	ff b6 88 00 00
	00		 push	 DWORD PTR [esi+136]
  000cc	68 00 00 00 00	 push	 OFFSET ??_C@_0FP@NCGPFHCO@BOUNDMARK?$DN?$LA?$KB?$LA?$NN?B?w?F?$KO?3?$CFld?0?$CFld?3?$CF?48s@
  000d1	50		 push	 eax
  000d2	e8 00 00 00 00	 call	 _sprintf
  000d7	83 c4 30	 add	 esp, 48			; 00000030H

; 521  : 			pChartBInput->lUpLmtPrice, pChartBInput->lDnLmtPrice,
; 522  : 			pChartBInput->sShcode,  
; 523  : 			pChartBInput->m_sPreprice, 
; 524  : 			'1',
; 525  : 			pChartBInput->m_sBaseValue,
; 526  : 			pChartBInput->m_sVolAmt, //[A00000651][A00000652].
; 527  : 			pChartBInput->lOpen, pChartBInput->lHigh, pChartBInput->lLow);
; 528  : 	}

  000da	e9 a2 00 00 00	 jmp	 $LN7@MakeChtBoj
$LN6@MakeChtBoj:
  000df	66 0f 6e 95 30
	f9 ff ff	 movd	 xmm2, DWORD PTR _sPrice$1$[ebp]

; 529  : 	else
; 530  : 	{
; 531  : 		sprintf(lsBMrk, "BOUNDMARK=:%.2f,%.2f:%.8s:%.2f:%c@PREVPRICE=_Close_:%s,_VolumeAmount_:%s@TDC=%s:_Open_,|%s:_High_,|%s:_Low_,|%s:_Close_,@RDC=%s:3:_Open_,|%s:3:_High_,|%s:3:_Low_,|%s:3:_Close_,@OHL=:%ld:%ld:%ld@",

  000e7	f2 0f 10 0d 00
	00 00 00	 movsd	 xmm1, QWORD PTR __real@4059000000000000
  000ef	f3 0f e6 d2	 cvtdq2pd xmm2, xmm2
  000f3	8b 8d 38 f9 ff
	ff		 mov	 ecx, DWORD PTR _nOption$GSCopy$1$[ebp]
  000f9	8b 04 8d 00 00
	00 00		 mov	 eax, DWORD PTR ?gChtRDC_RATE@@3PAPADA[ecx*4]
  00100	8b 0c 8d 00 00
	00 00		 mov	 ecx, DWORD PTR ?gChtTDC_RATE@@3PAPADA[ecx*4]
  00107	0f 28 c2	 movaps	 xmm0, xmm2
  0010a	f2 0f 5c c2	 subsd	 xmm0, xmm2
  0010e	50		 push	 eax
  0010f	50		 push	 eax
  00110	50		 push	 eax
  00111	50		 push	 eax
  00112	f2 0f 59 c1	 mulsd	 xmm0, xmm1
  00116	8d 85 5c fc ff
	ff		 lea	 eax, DWORD PTR _lsBMrk$[ebp]
  0011c	51		 push	 ecx
  0011d	51		 push	 ecx
  0011e	51		 push	 ecx
  0011f	51		 push	 ecx
  00120	f2 0f 5e c2	 divsd	 xmm0, xmm2
  00124	ff 76 58	 push	 DWORD PTR [esi+88]
  00127	ff 76 38	 push	 DWORD PTR [esi+56]
  0012a	6a 31		 push	 49			; 00000031H
  0012c	83 ec 08	 sub	 esp, 8
  0012f	f2 0f 11 04 24	 movsd	 QWORD PTR [esp], xmm0
  00134	66 0f 6e 86 8c
	00 00 00	 movd	 xmm0, DWORD PTR [esi+140]
  0013c	f3 0f e6 c0	 cvtdq2pd xmm0, xmm0
  00140	52		 push	 edx
  00141	83 ec 10	 sub	 esp, 16			; 00000010H
  00144	f2 0f 5c c2	 subsd	 xmm0, xmm2
  00148	f2 0f 59 c1	 mulsd	 xmm0, xmm1
  0014c	f2 0f 5e c2	 divsd	 xmm0, xmm2
  00150	f2 0f 11 44 24
	08		 movsd	 QWORD PTR [esp+8], xmm0
  00156	66 0f 6e 86 88
	00 00 00	 movd	 xmm0, DWORD PTR [esi+136]
  0015e	f3 0f e6 c0	 cvtdq2pd xmm0, xmm0
  00162	f2 0f 5c c2	 subsd	 xmm0, xmm2
  00166	f2 0f 59 c1	 mulsd	 xmm0, xmm1
  0016a	f2 0f 5e c2	 divsd	 xmm0, xmm2
  0016e	f2 0f 11 04 24	 movsd	 QWORD PTR [esp], xmm0
  00173	68 00 00 00 00	 push	 OFFSET ??_C@_0ML@LKEBHBOM@BOUNDMARK?$DN?$LE?k?$LK?q?B?w?F?$KO?3?$CF?42f?0?$CF?42f?3?$CF?4@
  00178	50		 push	 eax
  00179	e8 00 00 00 00	 call	 _sprintf
  0017e	83 c4 5c	 add	 esp, 92			; 0000005cH
$LN7@MakeChtBoj:

; 532  : 			CALC_CHGRATE(pChartBInput->lUpLmtPrice,sPrice),
; 533  : 			CALC_CHGRATE(pChartBInput->lDnLmtPrice,sPrice),
; 534  : 			pChartBInput->sShcode, 
; 535  : 			CALC_CHGRATE(sPrice,sPrice),
; 536  : 			'1',
; 537  : 			pChartBInput->m_sPreprice,
; 538  : 			pChartBInput->m_sVolAmt, //[A00000651][A00000652].
; 539  : 			gChtTDC_RATE[nOption], gChtTDC_RATE[nOption], gChtTDC_RATE[nOption], gChtTDC_RATE[nOption], gChtRDC_RATE[nOption], gChtRDC_RATE[nOption], gChtRDC_RATE[nOption], gChtRDC_RATE[nOption],
; 540  : 			pChartBInput->lOpen, pChartBInput->lHigh, pChartBInput->lLow);
; 541  : 	}
; 542  : 
; 543  : 	if (pChartBInput->sTerm[0] == '0')

  00181	8a 46 7c	 mov	 al, BYTE PTR [esi+124]
  00184	3c 30		 cmp	 al, 48			; 00000030H
  00186	75 33		 jne	 SHORT $LN8@MakeChtBoj

; 544  : 	{
; 545  :     	sprintf(lsBojo, "####UM=%c@UD=5@UT=%ld@RDATET=DDHHMMSS@RESETUSEREAL=1@%s@CB=_Close_:0|@PREVPRICE=_Close_:%s|_Volume_:%10ld@SCD=%ld@",

  00188	ff b6 a4 00 00
	00		 push	 DWORD PTR [esi+164]
  0018e	8d 85 5c fc ff
	ff		 lea	 eax, DWORD PTR _lsBMrk$[ebp]
  00194	ff b6 84 00 00
	00		 push	 DWORD PTR [esi+132]
  0019a	ff 76 5c	 push	 DWORD PTR [esi+92]
  0019d	50		 push	 eax
  0019e	ff 76 78	 push	 DWORD PTR [esi+120]
  001a1	33 c0		 xor	 eax, eax
  001a3	80 fb 31	 cmp	 bl, 49			; 00000031H
  001a6	0f 95 c0	 setne	 al
  001a9	8d 04 85 41 00
	00 00		 lea	 eax, DWORD PTR [eax*4+65]
  001b0	50		 push	 eax
  001b1	68 00 00 00 00	 push	 OFFSET ??_C@_0HD@KEEBLBP@?$CD?$CD?$CD?$CDUM?$DN?$CFc?$EAUD?$DN5?$EAUT?$DN?$CFld?$EARDATET?$DNDD@

; 546  : 	       	lcChtAE, pChartBInput->lTick,lsBMrk, pChartBInput->m_sBaseValue, pChartBInput->lVolume, pChartBInput->lFirstClose);
; 547  : 	}

  001b6	e9 6f 01 00 00	 jmp	 $LN49@MakeChtBoj
$LN8@MakeChtBoj:

; 548  : 	else if (pChartBInput->sTerm[0] == '1')

  001bb	3c 31		 cmp	 al, 49			; 00000031H
  001bd	75 33		 jne	 SHORT $LN10@MakeChtBoj

; 549  : 	{
; 550  : 		sprintf(lsBojo, "####UM=%c@UD=4@UT=%ld@RDATET=MMDDHHMM@RESETUSEREAL=1@%s@CB=_Close_:0|@PREVPRICE=_Close_:%s|_Volume_:%10ld@SCD=%ld@",

  001bf	ff b6 a4 00 00
	00		 push	 DWORD PTR [esi+164]
  001c5	8d 85 5c fc ff
	ff		 lea	 eax, DWORD PTR _lsBMrk$[ebp]
  001cb	ff b6 84 00 00
	00		 push	 DWORD PTR [esi+132]
  001d1	ff 76 5c	 push	 DWORD PTR [esi+92]
  001d4	50		 push	 eax
  001d5	ff 76 78	 push	 DWORD PTR [esi+120]
  001d8	33 c0		 xor	 eax, eax
  001da	80 fb 31	 cmp	 bl, 49			; 00000031H
  001dd	0f 95 c0	 setne	 al
  001e0	8d 04 85 41 00
	00 00		 lea	 eax, DWORD PTR [eax*4+65]
  001e7	50		 push	 eax
  001e8	68 00 00 00 00	 push	 OFFSET ??_C@_0HD@IFDJFODJ@?$CD?$CD?$CD?$CDUM?$DN?$CFc?$EAUD?$DN4?$EAUT?$DN?$CFld?$EARDATET?$DNMM@

; 551  : 			lcChtAE, pChartBInput->lTick, lsBMrk, pChartBInput->m_sBaseValue, pChartBInput->lVolume, pChartBInput->lFirstClose);
; 552  : 	}

  001ed	e9 38 01 00 00	 jmp	 $LN49@MakeChtBoj
$LN10@MakeChtBoj:

; 553  : 	else if (pChartBInput->sTerm[0] == '2')

  001f2	3c 32		 cmp	 al, 50			; 00000032H
  001f4	0f 85 89 00 00
	00		 jne	 $LN12@MakeChtBoj
; File C:\Program Files (x86)\Microsoft Visual Studio\2019\Community\VC\Tools\MSVC\14.29.30133\atlmfc\include\atlsimpstr.h

; 533  : 		return( GetLength() == 0 );

  001fa	8b 46 40	 mov	 eax, DWORD PTR [esi+64]
  001fd	33 db		 xor	 ebx, ebx
  001ff	80 bd 37 f9 ff
	ff 31		 cmp	 BYTE PTR tv741[ebp], 49	; 00000031H
  00206	0f 95 c3	 setne	 bl
  00209	83 78 f4 00	 cmp	 DWORD PTR [eax-12], 0
  0020d	8d 1c 9d 41 00
	00 00		 lea	 ebx, DWORD PTR [ebx*4+65]
; File D:\git\src\IBK\IBK_DRFN\ProjSrc\SrcDrfn\DrCommon\PartnerMng\_ChartBozoManager.cpp

; 555  : 		if(pChartBInput->m_sStartTime.IsEmpty()==FALSE)

  00214	74 46		 je	 SHORT $LN14@MakeChtBoj

; 556  : 		{
; 557  : 			sprintf(lsRelpsa, "RELPSA=%.6s:%.8s@", pChartBInput->m_sStartTime, pChartBInput->sShcode);

  00216	8d 46 68	 lea	 eax, DWORD PTR [esi+104]
  00219	50		 push	 eax
  0021a	ff 76 40	 push	 DWORD PTR [esi+64]
  0021d	8d 85 7c ff ff
	ff		 lea	 eax, DWORD PTR _lsRelpsa$[ebp]
  00223	68 00 00 00 00	 push	 OFFSET ??_C@_0BC@HJLNCHNA@RELPSA?$DN?$CF?46s?3?$CF?48s?$EA@
  00228	50		 push	 eax
  00229	e8 00 00 00 00	 call	 _sprintf

; 558  : 			sprintf(lsBojo, "####UM=%c@UD=1@RDATET=YYYYMMDD@RESETUSEREAL=1@%s@@CB=_Close_:0|@SCD=%ld@", lcChtAE, lsBMrk, lsRelpsa, pChartBInput->lFirstClose);

  0022e	ff b6 a4 00 00
	00		 push	 DWORD PTR [esi+164]
  00234	8d 85 7c ff ff
	ff		 lea	 eax, DWORD PTR _lsRelpsa$[ebp]
  0023a	50		 push	 eax
  0023b	8d 85 5c fc ff
	ff		 lea	 eax, DWORD PTR _lsBMrk$[ebp]
  00241	50		 push	 eax
  00242	53		 push	 ebx
  00243	8d 85 3c f9 ff
	ff		 lea	 eax, DWORD PTR _lsBojo$[ebp]
  00249	68 00 00 00 00	 push	 OFFSET ??_C@_0EJ@CCPOKDHH@?$CD?$CD?$CD?$CDUM?$DN?$CFc?$EAUD?$DN1?$EARDATET?$DNYYYYMMDD?$EA@
  0024e	50		 push	 eax
  0024f	e8 00 00 00 00	 call	 _sprintf
  00254	83 c4 28	 add	 esp, 40			; 00000028H

; 559  : 		}

  00257	e9 dd 00 00 00	 jmp	 $LN21@MakeChtBoj
$LN14@MakeChtBoj:

; 560  : 		else
; 561  : 		{
; 562  : 			sprintf(lsBojo, "####UM=%c@UD=1@RDATET=YYYYMMDD@RESETUSEREAL=1@%s@@CB=_Close_:0|@SCD=%ld@", lcChtAE, lsBMrk, pChartBInput->lFirstClose);

  0025c	ff b6 a4 00 00
	00		 push	 DWORD PTR [esi+164]
  00262	8d 85 5c fc ff
	ff		 lea	 eax, DWORD PTR _lsBMrk$[ebp]
  00268	50		 push	 eax
  00269	53		 push	 ebx
  0026a	8d 85 3c f9 ff
	ff		 lea	 eax, DWORD PTR _lsBojo$[ebp]
  00270	68 00 00 00 00	 push	 OFFSET ??_C@_0EJ@CCPOKDHH@?$CD?$CD?$CD?$CDUM?$DN?$CFc?$EAUD?$DN1?$EARDATET?$DNYYYYMMDD?$EA@
  00275	50		 push	 eax
  00276	e8 00 00 00 00	 call	 _sprintf
  0027b	83 c4 14	 add	 esp, 20			; 00000014H

; 563  : 		}
; 564  : 	}

  0027e	e9 b6 00 00 00	 jmp	 $LN21@MakeChtBoj
$LN12@MakeChtBoj:

; 565  : 	else if (pChartBInput->sTerm[0] == '3')

  00283	3c 33		 cmp	 al, 51			; 00000033H
  00285	75 33		 jne	 SHORT $LN16@MakeChtBoj

; 566  : 	{
; 567  : 		sprintf(lsBojo, "####UM=%c@UD=2@RDATET=YYYYMMDD@RESETUSEREAL=1@%s@CB=_Close_:0|@SCD=%ld@", lcChtAE, lsBMrk, pChartBInput->lFirstClose);

  00287	ff b6 a4 00 00
	00		 push	 DWORD PTR [esi+164]
  0028d	8d 85 5c fc ff
	ff		 lea	 eax, DWORD PTR _lsBMrk$[ebp]
  00293	50		 push	 eax
  00294	33 c0		 xor	 eax, eax
  00296	80 fb 31	 cmp	 bl, 49			; 00000031H
  00299	0f 95 c0	 setne	 al
  0029c	8d 04 85 41 00
	00 00		 lea	 eax, DWORD PTR [eax*4+65]
  002a3	50		 push	 eax
  002a4	8d 85 3c f9 ff
	ff		 lea	 eax, DWORD PTR _lsBojo$[ebp]
  002aa	68 00 00 00 00	 push	 OFFSET ??_C@_0EI@JKELMFIH@?$CD?$CD?$CD?$CDUM?$DN?$CFc?$EAUD?$DN2?$EARDATET?$DNYYYYMMDD?$EA@
  002af	50		 push	 eax
  002b0	e8 00 00 00 00	 call	 _sprintf
  002b5	83 c4 14	 add	 esp, 20			; 00000014H

; 568  : 	}

  002b8	eb 7f		 jmp	 SHORT $LN21@MakeChtBoj
$LN16@MakeChtBoj:

; 569  : 	else if (pChartBInput->sTerm[0] == '4')

  002ba	3c 34		 cmp	 al, 52			; 00000034H
  002bc	75 33		 jne	 SHORT $LN18@MakeChtBoj

; 570  : 	{
; 571  : 		sprintf(lsBojo, "####UM=%c@UD=3@RDATET=YYYYMM@RESETUSEREAL=1@%s@CB=_Close_:0|@SCD=%ld@", lcChtAE, lsBMrk, pChartBInput->lFirstClose);

  002be	ff b6 a4 00 00
	00		 push	 DWORD PTR [esi+164]
  002c4	8d 85 5c fc ff
	ff		 lea	 eax, DWORD PTR _lsBMrk$[ebp]
  002ca	50		 push	 eax
  002cb	33 c0		 xor	 eax, eax
  002cd	80 fb 31	 cmp	 bl, 49			; 00000031H
  002d0	0f 95 c0	 setne	 al
  002d3	8d 04 85 41 00
	00 00		 lea	 eax, DWORD PTR [eax*4+65]
  002da	50		 push	 eax
  002db	8d 85 3c f9 ff
	ff		 lea	 eax, DWORD PTR _lsBojo$[ebp]
  002e1	68 00 00 00 00	 push	 OFFSET ??_C@_0EG@ODCIKKEM@?$CD?$CD?$CD?$CDUM?$DN?$CFc?$EAUD?$DN3?$EARDATET?$DNYYYYMM?$EARE@
  002e6	50		 push	 eax
  002e7	e8 00 00 00 00	 call	 _sprintf
  002ec	83 c4 14	 add	 esp, 20			; 00000014H

; 572  : 	}

  002ef	eb 48		 jmp	 SHORT $LN21@MakeChtBoj
$LN18@MakeChtBoj:

; 573  : 	else if (pChartBInput->sTerm[0] == '6')

  002f1	3c 36		 cmp	 al, 54			; 00000036H
  002f3	0f 85 01 01 00
	00		 jne	 $LN20@MakeChtBoj

; 574  : 	{
; 575  : 		sprintf(lsBojo, "####UM=%c@UD=4@UT=%ld@RDATET=DDHHMMSS@RESETUSEREAL=1@%s@CB=_Close_:0|@PREVPRICE=_Close_:%ld|_Volume_:%10ld@SCD=%ld@",

  002f9	ff b6 a4 00 00
	00		 push	 DWORD PTR [esi+164]
  002ff	8d 85 5c fc ff
	ff		 lea	 eax, DWORD PTR _lsBMrk$[ebp]
  00305	ff b6 84 00 00
	00		 push	 DWORD PTR [esi+132]
  0030b	ff b5 30 f9 ff
	ff		 push	 DWORD PTR _sPrice$1$[ebp]
  00311	50		 push	 eax
  00312	ff 76 78	 push	 DWORD PTR [esi+120]
  00315	33 c0		 xor	 eax, eax
  00317	80 fb 31	 cmp	 bl, 49			; 00000031H
  0031a	0f 95 c0	 setne	 al
  0031d	8d 04 85 41 00
	00 00		 lea	 eax, DWORD PTR [eax*4+65]
  00324	50		 push	 eax
  00325	68 00 00 00 00	 push	 OFFSET ??_C@_0HE@BLDCANEH@?$CD?$CD?$CD?$CDUM?$DN?$CFc?$EAUD?$DN4?$EAUT?$DN?$CFld?$EARDATET?$DNDD@
$LN49@MakeChtBoj:

; 576  : 			lcChtAE, pChartBInput->lTick, lsBMrk, sPrice, pChartBInput->lVolume, pChartBInput->lFirstClose);
; 577  : 	}
; 578  : 	else
; 579  : 	{
; 580  : 		return 0;
; 581  : 	}
; 582  : 
; 583  : 	rString = lsBojo;

  0032a	8d 85 3c f9 ff
	ff		 lea	 eax, DWORD PTR _lsBojo$[ebp]
  00330	50		 push	 eax
  00331	e8 00 00 00 00	 call	 _sprintf
  00336	83 c4 20	 add	 esp, 32			; 00000020H
$LN21@MakeChtBoj:
  00339	8d 85 3c f9 ff
	ff		 lea	 eax, DWORD PTR _lsBojo$[ebp]
  0033f	8b cf		 mov	 ecx, edi
  00341	50		 push	 eax
  00342	ff 15 00 00 00
	00		 call	 DWORD PTR __imp_??4?$CStringT@DV?$StrTraitMFC_DLL@DV?$ChTraitsCRT@D@ATL@@@@@ATL@@QAEAAV01@PBD@Z

; 584  : 
; 585  : 	CString szTmpExt;

  00348	8d 8d 38 f9 ff
	ff		 lea	 ecx, DWORD PTR _szTmpExt$[ebp]
  0034e	ff 15 00 00 00
	00		 call	 DWORD PTR __imp_??0?$CStringT@DV?$StrTraitMFC_DLL@DV?$ChTraitsCRT@D@ATL@@@@@ATL@@QAE@XZ
; File C:\Program Files (x86)\Microsoft Visual Studio\2019\Community\VC\Tools\MSVC\14.29.30133\atlmfc\include\atlsimpstr.h

; 533  : 		return( GetLength() == 0 );

  00354	8b 46 60	 mov	 eax, DWORD PTR [esi+96]
; File D:\git\src\IBK\IBK_DRFN\ProjSrc\SrcDrfn\DrCommon\PartnerMng\_ChartBozoManager.cpp

; 586  : 	if(pChartBInput->m_szMarketTime.IsEmpty()==FALSE)

  00357	8b 1d 00 00 00
	00		 mov	 ebx, DWORD PTR __imp_?Format@?$CStringT@DV?$StrTraitMFC_DLL@DV?$ChTraitsCRT@D@ATL@@@@@ATL@@QAAXPBDZZ
; File C:\Program Files (x86)\Microsoft Visual Studio\2019\Community\VC\Tools\MSVC\14.29.30133\atlmfc\include\atlsimpstr.h

; 533  : 		return( GetLength() == 0 );

  0035d	83 78 f4 00	 cmp	 DWORD PTR [eax-12], 0
; File D:\git\src\IBK\IBK_DRFN\ProjSrc\SrcDrfn\DrCommon\PartnerMng\_ChartBozoManager.cpp

; 586  : 	if(pChartBInput->m_szMarketTime.IsEmpty()==FALSE)

  00361	74 21		 je	 SHORT $LN22@MakeChtBoj

; 587  : 	{
; 588  : 		szTmpExt.Format("MARKETTIME=%s@", pChartBInput->m_szMarketTime);

  00363	50		 push	 eax
  00364	8d 85 38 f9 ff
	ff		 lea	 eax, DWORD PTR _szTmpExt$[ebp]
  0036a	68 00 00 00 00	 push	 OFFSET ??_C@_0P@PGBOBNFI@MARKETTIME?$DN?$CFs?$EA@
  0036f	50		 push	 eax
  00370	ff d3		 call	 ebx
  00372	83 c4 0c	 add	 esp, 12			; 0000000cH

; 589  : 		rString += szTmpExt;

  00375	8d 85 38 f9 ff
	ff		 lea	 eax, DWORD PTR _szTmpExt$[ebp]
  0037b	8b cf		 mov	 ecx, edi
  0037d	50		 push	 eax
  0037e	ff 15 00 00 00
	00		 call	 DWORD PTR __imp_??Y?$CStringT@DV?$StrTraitMFC_DLL@DV?$ChTraitsCRT@D@ATL@@@@@ATL@@QAEAAV01@ABV?$CSimpleStringT@D$00@1@@Z
$LN22@MakeChtBoj:
; File C:\Program Files (x86)\Microsoft Visual Studio\2019\Community\VC\Tools\MSVC\14.29.30133\atlmfc\include\atlsimpstr.h

; 533  : 		return( GetLength() == 0 );

  00384	8b 46 64	 mov	 eax, DWORD PTR [esi+100]
  00387	83 78 f4 00	 cmp	 DWORD PTR [eax-12], 0
; File D:\git\src\IBK\IBK_DRFN\ProjSrc\SrcDrfn\DrCommon\PartnerMng\_ChartBozoManager.cpp

; 592  : 	if(pChartBInput->m_szBaseTime.IsEmpty()==FALSE)

  0038b	74 21		 je	 SHORT $LN23@MakeChtBoj

; 593  : 	{
; 594  : 		szTmpExt.Format("BASETIME=%s@", pChartBInput->m_szBaseTime);

  0038d	50		 push	 eax
  0038e	8d 85 38 f9 ff
	ff		 lea	 eax, DWORD PTR _szTmpExt$[ebp]
  00394	68 00 00 00 00	 push	 OFFSET ??_C@_0N@BEOFONCO@BASETIME?$DN?$CFs?$EA@
  00399	50		 push	 eax
  0039a	ff d3		 call	 ebx
  0039c	83 c4 0c	 add	 esp, 12			; 0000000cH

; 595  : 		rString += szTmpExt;		

  0039f	8d 85 38 f9 ff
	ff		 lea	 eax, DWORD PTR _szTmpExt$[ebp]
  003a5	8b cf		 mov	 ecx, edi
  003a7	50		 push	 eax
  003a8	ff 15 00 00 00
	00		 call	 DWORD PTR __imp_??Y?$CStringT@DV?$StrTraitMFC_DLL@DV?$ChTraitsCRT@D@ATL@@@@@ATL@@QAEAAV01@ABV?$CSimpleStringT@D$00@1@@Z
$LN23@MakeChtBoj:

; 596  : 	}
; 597  : 
; 598  : 	// 20130222  :      .(   )
; 599  : 	szTmpExt.Format("DATATIME=%s@", pChartBInput->m_sLastDataTime);

  003ae	ff b6 c0 00 00
	00		 push	 DWORD PTR [esi+192]
  003b4	8d 85 38 f9 ff
	ff		 lea	 eax, DWORD PTR _szTmpExt$[ebp]
  003ba	68 00 00 00 00	 push	 OFFSET ??_C@_0N@JENAIHAK@DATATIME?$DN?$CFs?$EA@
  003bf	50		 push	 eax
  003c0	ff d3		 call	 ebx
  003c2	83 c4 0c	 add	 esp, 12			; 0000000cH

; 600  : 	rString += szTmpExt;		

  003c5	8d 85 38 f9 ff
	ff		 lea	 eax, DWORD PTR _szTmpExt$[ebp]
  003cb	8b cf		 mov	 ecx, edi
  003cd	50		 push	 eax
  003ce	ff 15 00 00 00
	00		 call	 DWORD PTR __imp_??Y?$CStringT@DV?$StrTraitMFC_DLL@DV?$ChTraitsCRT@D@ATL@@@@@ATL@@QAEAAV01@ABV?$CSimpleStringT@D$00@1@@Z
; File C:\Program Files (x86)\Microsoft Visual Studio\2019\Community\VC\Tools\MSVC\14.29.30133\atlmfc\include\atlsimpstr.h

; 519  : 		return( GetData()->nDataLength );

  003d4	8b 07		 mov	 eax, DWORD PTR [edi]
; File D:\git\src\IBK\IBK_DRFN\ProjSrc\SrcDrfn\DrCommon\PartnerMng\_ChartBozoManager.cpp

; 602  : 	return rString.GetLength();

  003d6	8d 8d 38 f9 ff
	ff		 lea	 ecx, DWORD PTR _szTmpExt$[ebp]
; File C:\Program Files (x86)\Microsoft Visual Studio\2019\Community\VC\Tools\MSVC\14.29.30133\atlmfc\include\atlsimpstr.h

; 519  : 		return( GetData()->nDataLength );

  003dc	8b 70 f4	 mov	 esi, DWORD PTR [eax-12]
; File D:\git\src\IBK\IBK_DRFN\ProjSrc\SrcDrfn\DrCommon\PartnerMng\_ChartBozoManager.cpp

; 602  : 	return rString.GetLength();

  003df	ff 15 00 00 00
	00		 call	 DWORD PTR __imp_??1?$CStringT@DV?$StrTraitMFC_DLL@DV?$ChTraitsCRT@D@ATL@@@@@ATL@@QAE@XZ
  003e5	5f		 pop	 edi
  003e6	8b c6		 mov	 eax, esi

; 603  : }

  003e8	5e		 pop	 esi
  003e9	5b		 pop	 ebx
  003ea	8b 4d fc	 mov	 ecx, DWORD PTR __$ArrayPad$[ebp]
  003ed	33 cd		 xor	 ecx, ebp
  003ef	e8 00 00 00 00	 call	 @__security_check_cookie@4
  003f4	8b e5		 mov	 esp, ebp
  003f6	5d		 pop	 ebp
  003f7	c2 10 00	 ret	 16			; 00000010H
$LN20@MakeChtBoj:
  003fa	8b 4d fc	 mov	 ecx, DWORD PTR __$ArrayPad$[ebp]
  003fd	33 c0		 xor	 eax, eax
  003ff	5f		 pop	 edi
  00400	5e		 pop	 esi
  00401	33 cd		 xor	 ecx, ebp
  00403	5b		 pop	 ebx
  00404	e8 00 00 00 00	 call	 @__security_check_cookie@4
  00409	8b e5		 mov	 esp, ebp
  0040b	5d		 pop	 ebp
  0040c	c2 10 00	 ret	 16			; 00000010H
?MakeChtBojo_ctsfo@CChartBozoManager@@UAGHPAVCChartBozoInput@@AAV?$CStringT@DV?$StrTraitMFC_DLL@DV?$ChTraitsCRT@D@ATL@@@@@ATL@@H@Z ENDP ; CChartBozoManager::MakeChtBojo_ctsfo
_TEXT	ENDS
; Function compile flags: /Ogtp
; File D:\git\src\IBK\IBK_DRFN\ProjSrc\SrcDrfn\DrCommon\PartnerMng\_ChartBozoManager.cpp
; File C:\Program Files (x86)\Microsoft Visual Studio\2019\Community\VC\Tools\MSVC\14.29.30133\atlmfc\include\atlsimpstr.h
; File D:\git\src\IBK\IBK_DRFN\ProjSrc\SrcDrfn\DrCommon\PartnerMng\_ChartBozoManager.cpp
; File C:\Program Files (x86)\Microsoft Visual Studio\2019\Community\VC\Tools\MSVC\14.29.30133\atlmfc\include\atlsimpstr.h
; File D:\git\src\IBK\IBK_DRFN\ProjSrc\SrcDrfn\DrCommon\PartnerMng\_ChartBozoManager.cpp
; File C:\Program Files (x86)\Microsoft Visual Studio\2019\Community\VC\Tools\MSVC\14.29.30133\atlmfc\include\atlsimpstr.h
; File D:\git\src\IBK\IBK_DRFN\ProjSrc\SrcDrfn\DrCommon\PartnerMng\_ChartBozoManager.cpp
; File C:\Program Files (x86)\Microsoft Visual Studio\2019\Community\VC\Tools\MSVC\14.29.30133\atlmfc\include\atlsimpstr.h
; File D:\git\src\IBK\IBK_DRFN\ProjSrc\SrcDrfn\DrCommon\PartnerMng\_ChartBozoManager.cpp
; File C:\Program Files (x86)\Microsoft Visual Studio\2019\Community\VC\Tools\MSVC\14.29.30133\atlmfc\include\atlsimpstr.h
; File D:\git\src\IBK\IBK_DRFN\ProjSrc\SrcDrfn\DrCommon\PartnerMng\_ChartBozoManager.cpp
; File C:\Program Files (x86)\Microsoft Visual Studio\2019\Community\VC\Tools\MSVC\14.29.30133\atlmfc\include\atlsimpstr.h
; File D:\git\src\IBK\IBK_DRFN\ProjSrc\SrcDrfn\DrCommon\PartnerMng\_ChartBozoManager.cpp
; File C:\Program Files (x86)\Microsoft Visual Studio\2019\Community\VC\Tools\MSVC\14.29.30133\atlmfc\include\atlsimpstr.h
; File D:\git\src\IBK\IBK_DRFN\ProjSrc\SrcDrfn\DrCommon\PartnerMng\_ChartBozoManager.cpp
; File C:\Program Files (x86)\Microsoft Visual Studio\2019\Community\VC\Tools\MSVC\14.29.30133\atlmfc\include\atlsimpstr.h
; File D:\git\src\IBK\IBK_DRFN\ProjSrc\SrcDrfn\DrCommon\PartnerMng\_ChartBozoManager.cpp
; File C:\Program Files (x86)\Microsoft Visual Studio\2019\Community\VC\Tools\MSVC\14.29.30133\atlmfc\include\atlsimpstr.h
; File D:\git\src\IBK\IBK_DRFN\ProjSrc\SrcDrfn\DrCommon\PartnerMng\_ChartBozoManager.cpp
; File C:\Program Files (x86)\Microsoft Visual Studio\2019\Community\VC\Tools\MSVC\14.29.30133\atlmfc\include\atlsimpstr.h
; File D:\git\src\IBK\IBK_DRFN\ProjSrc\SrcDrfn\DrCommon\PartnerMng\_ChartBozoManager.cpp
; File C:\Program Files (x86)\Microsoft Visual Studio\2019\Community\VC\Tools\MSVC\14.29.30133\atlmfc\include\atlsimpstr.h
; File D:\git\src\IBK\IBK_DRFN\ProjSrc\SrcDrfn\DrCommon\PartnerMng\_ChartBozoManager.cpp
; File C:\Program Files (x86)\Microsoft Visual Studio\2019\Community\VC\Tools\MSVC\14.29.30133\atlmfc\include\atlsimpstr.h
; File D:\git\src\IBK\IBK_DRFN\ProjSrc\SrcDrfn\DrCommon\PartnerMng\_ChartBozoManager.cpp
; File C:\Program Files (x86)\Microsoft Visual Studio\2019\Community\VC\Tools\MSVC\14.29.30133\atlmfc\include\atlsimpstr.h
; File D:\git\src\IBK\IBK_DRFN\ProjSrc\SrcDrfn\DrCommon\PartnerMng\_ChartBozoManager.cpp
; File C:\Program Files (x86)\Microsoft Visual Studio\2019\Community\VC\Tools\MSVC\14.29.30133\atlmfc\include\atlsimpstr.h
; File D:\git\src\IBK\IBK_DRFN\ProjSrc\SrcDrfn\DrCommon\PartnerMng\_ChartBozoManager.cpp
;	COMDAT ?MakeChtBojo_ctup@CChartBozoManager@@UAGHPAVCChartBozoInput@@AAV?$CStringT@DV?$StrTraitMFC_DLL@DV?$ChTraitsCRT@D@ATL@@@@@ATL@@H@Z
_TEXT	SEGMENT
_rString$GSCopy$1$ = -964				; size = 4
_szTmpExt$ = -960					; size = 4
tv898 = -956						; size = 4
tv877 = -956						; size = 4
tv1053 = -952						; size = 8
tv876 = -948						; size = 4
tv875 = -948						; size = 4
tv874 = -948						; size = 4
tv873 = -948						; size = 4
tv872 = -948						; size = 4
tv860 = -948						; size = 4
tv859 = -948						; size = 4
$T1 = -948						; size = 4
_pChartBInput$GSCopy$1$ = -944				; size = 4
_nOption$GSCopy$1$ = -940				; size = 4
tv897 = -933						; size = 1
_lsBojo$ = -932						; size = 800
_lsRelpsa$ = -132					; size = 128
__$ArrayPad$ = -4					; size = 4
_this$ = 8						; size = 4
_pChartBInput$ = 12					; size = 4
_rString$ = 16						; size = 4
_nOption$ = 20						; size = 4
?MakeChtBojo_ctup@CChartBozoManager@@UAGHPAVCChartBozoInput@@AAV?$CStringT@DV?$StrTraitMFC_DLL@DV?$ChTraitsCRT@D@ATL@@@@@ATL@@H@Z PROC ; CChartBozoManager::MakeChtBojo_ctup, COMDAT

; 398  : {

  00000	55		 push	 ebp
  00001	8b ec		 mov	 ebp, esp
  00003	81 ec c4 03 00
	00		 sub	 esp, 964		; 000003c4H
  00009	a1 00 00 00 00	 mov	 eax, DWORD PTR ___security_cookie
  0000e	33 c5		 xor	 eax, ebp
  00010	89 45 fc	 mov	 DWORD PTR __$ArrayPad$[ebp], eax
  00013	8b 45 10	 mov	 eax, DWORD PTR _rString$[ebp]
  00016	8b 4d 0c	 mov	 ecx, DWORD PTR _pChartBInput$[ebp]
  00019	53		 push	 ebx
  0001a	8b 5d 14	 mov	 ebx, DWORD PTR _nOption$[ebp]
  0001d	56		 push	 esi
  0001e	57		 push	 edi

; 399  : 	char    lsBojo[800], lsRelpsa[128], lcChtAE;
; 400  : 	
; 401  : 	memset(lsBojo      , 0x20, sizeof(lsBojo      ));

  0001f	68 20 03 00 00	 push	 800			; 00000320H
  00024	89 85 3c fc ff
	ff		 mov	 DWORD PTR _rString$GSCopy$1$[ebp], eax
  0002a	8d 85 5c fc ff
	ff		 lea	 eax, DWORD PTR _lsBojo$[ebp]
  00030	6a 20		 push	 32			; 00000020H
  00032	50		 push	 eax
  00033	89 8d 50 fc ff
	ff		 mov	 DWORD PTR _pChartBInput$GSCopy$1$[ebp], ecx
  00039	89 9d 54 fc ff
	ff		 mov	 DWORD PTR _nOption$GSCopy$1$[ebp], ebx
  0003f	e8 00 00 00 00	 call	 _memset

; 402  : 	memset(lsRelpsa    , 0x20, sizeof(lsRelpsa    ));

  00044	68 80 00 00 00	 push	 128			; 00000080H
  00049	8d 85 7c ff ff
	ff		 lea	 eax, DWORD PTR _lsRelpsa$[ebp]
  0004f	6a 20		 push	 32			; 00000020H
  00051	50		 push	 eax
  00052	e8 00 00 00 00	 call	 _memset

; 403  : 	
; 404  : 	if (pChartBInput->sNxtFlg[0] == '1')	lcChtAE = 'A';

  00057	8b 8d 50 fc ff
	ff		 mov	 ecx, DWORD PTR _pChartBInput$GSCopy$1$[ebp]
  0005d	83 c4 18	 add	 esp, 24			; 00000018H

; 405  : 	else									lcChtAE = 'E';
; 406  : 
; 407  : 	if (pChartBInput->sTerm[0] == '0')

  00060	8a 41 7c	 mov	 al, BYTE PTR [ecx+124]
  00063	8a 51 7d	 mov	 dl, BYTE PTR [ecx+125]
  00066	88 95 5b fc ff
	ff		 mov	 BYTE PTR tv897[ebp], dl
  0006c	3c 30		 cmp	 al, 48			; 00000030H
  0006e	0f 85 cc 00 00
	00		 jne	 $LN4@MakeChtBoj
; File C:\Program Files (x86)\Microsoft Visual Studio\2019\Community\VC\Tools\MSVC\14.29.30133\atlmfc\include\atlsimpstr.h

; 377  : 		return( m_pszData );

  00074	8b 41 38	 mov	 eax, DWORD PTR [ecx+56]
; File D:\git\src\IBK\IBK_DRFN\ProjSrc\SrcDrfn\DrCommon\PartnerMng\_ChartBozoManager.cpp

; 409  : 		sprintf(lsBojo, "####UM=%c@UD=5@UT=%ld@RDATET=DDHHMMSS@@CB=_Close_:1|@PREVPRICE=_Close_:%.2f|_Volume_:%12.0f@TDC=%s:_Open_,|%s:_High_,|%s:_Low_,|%s:_Close_,@RDC=%s:3:_Open_,|%s:3:_High_,|%s:3:_Low_,|%s:3:_Close_,@SCD=%ld@OHL=:%.2f:%.2f:%.2f@",

  00077	ff 71 34	 push	 DWORD PTR [ecx+52]
; File C:\Program Files (x86)\Microsoft Visual Studio\2019\Community\VC\Tools\MSVC\14.29.30133\atlmfc\include\atlsimpstr.h

; 377  : 		return( m_pszData );

  0007a	8b 71 30	 mov	 esi, DWORD PTR [ecx+48]
  0007d	8b 79 2c	 mov	 edi, DWORD PTR [ecx+44]
; File D:\git\src\IBK\IBK_DRFN\ProjSrc\SrcDrfn\DrCommon\PartnerMng\_ChartBozoManager.cpp

; 409  : 		sprintf(lsBojo, "####UM=%c@UD=5@UT=%ld@RDATET=DDHHMMSS@@CB=_Close_:1|@PREVPRICE=_Close_:%.2f|_Volume_:%12.0f@TDC=%s:_Open_,|%s:_High_,|%s:_Low_,|%s:_Close_,@RDC=%s:3:_Open_,|%s:3:_High_,|%s:3:_Low_,|%s:3:_Close_,@SCD=%ld@OHL=:%.2f:%.2f:%.2f@",

  00080	8b 1c 9d 00 00
	00 00		 mov	 ebx, DWORD PTR ?gChtRDC_RATE@@3PAPADA[ebx*4]
; File C:\Program Files (x86)\Microsoft Visual Studio\2019\Community\VC\Tools\MSVC\14.29.30133\atlmfc\include\atlsimpstr.h

; 377  : 		return( m_pszData );

  00087	89 85 4c fc ff
	ff		 mov	 DWORD PTR $T1[ebp], eax
; File D:\git\src\IBK\IBK_DRFN\ProjSrc\SrcDrfn\DrCommon\PartnerMng\_ChartBozoManager.cpp

; 409  : 		sprintf(lsBojo, "####UM=%c@UD=5@UT=%ld@RDATET=DDHHMMSS@@CB=_Close_:1|@PREVPRICE=_Close_:%.2f|_Volume_:%12.0f@TDC=%s:_Open_,|%s:_High_,|%s:_Low_,|%s:_Close_,@RDC=%s:3:_Open_,|%s:3:_High_,|%s:3:_Low_,|%s:3:_Close_,@SCD=%ld@OHL=:%.2f:%.2f:%.2f@",

  0008d	8b 85 54 fc ff
	ff		 mov	 eax, DWORD PTR _nOption$GSCopy$1$[ebp]
  00093	8b 04 85 00 00
	00 00		 mov	 eax, DWORD PTR ?gChtTDC_RATE@@3PAPADA[eax*4]
  0009a	89 85 44 fc ff
	ff		 mov	 DWORD PTR tv877[ebp], eax
  000a0	ff 15 00 00 00
	00		 call	 DWORD PTR __imp__atof
  000a6	51		 push	 ecx
  000a7	dd 1c 24	 fstp	 QWORD PTR [esp]
  000aa	56		 push	 esi
  000ab	ff 15 00 00 00
	00		 call	 DWORD PTR __imp__atof
  000b1	51		 push	 ecx
  000b2	dd 1c 24	 fstp	 QWORD PTR [esp]
  000b5	57		 push	 edi
  000b6	ff 15 00 00 00
	00		 call	 DWORD PTR __imp__atof
  000bc	8b b5 50 fc ff
	ff		 mov	 esi, DWORD PTR _pChartBInput$GSCopy$1$[ebp]
  000c2	8b 85 44 fc ff
	ff		 mov	 eax, DWORD PTR tv877[ebp]
  000c8	51		 push	 ecx
  000c9	dd 1c 24	 fstp	 QWORD PTR [esp]
  000cc	ff b6 a4 00 00
	00		 push	 DWORD PTR [esi+164]
  000d2	66 0f 6e 86 84
	00 00 00	 movd	 xmm0, DWORD PTR [esi+132]
  000da	53		 push	 ebx
  000db	53		 push	 ebx
  000dc	53		 push	 ebx
  000dd	53		 push	 ebx
  000de	50		 push	 eax
  000df	50		 push	 eax
  000e0	50		 push	 eax
  000e1	50		 push	 eax
  000e2	f3 0f e6 c0	 cvtdq2pd xmm0, xmm0
  000e6	83 ec 08	 sub	 esp, 8
  000e9	f2 0f 11 04 24	 movsd	 QWORD PTR [esp], xmm0
  000ee	ff b5 4c fc ff
	ff		 push	 DWORD PTR $T1[ebp]
  000f4	ff 15 00 00 00
	00		 call	 DWORD PTR __imp__atof
  000fa	8b 85 54 fc ff
	ff		 mov	 eax, DWORD PTR _nOption$GSCopy$1$[ebp]
  00100	51		 push	 ecx
  00101	66 0f 6e 04 85
	00 00 00 00	 movd	 xmm0, DWORD PTR ?gChRATE_DATA@@3PAHA[eax*4]
  0010a	33 c0		 xor	 eax, eax
  0010c	f3 0f e6 c0	 cvtdq2pd xmm0, xmm0
  00110	80 bd 5b fc ff
	ff 31		 cmp	 BYTE PTR tv897[ebp], 49	; 00000031H
  00117	0f 95 c0	 setne	 al
  0011a	f2 0f 11 85 48
	fc ff ff	 movsd	 QWORD PTR tv1053[ebp], xmm0
  00122	8d 04 85 41 00
	00 00		 lea	 eax, DWORD PTR [eax*4+65]
  00129	dc b5 48 fc ff
	ff		 fdiv	 QWORD PTR tv1053[ebp]
  0012f	dd 1c 24	 fstp	 QWORD PTR [esp]
  00132	ff 76 78	 push	 DWORD PTR [esi+120]
  00135	50		 push	 eax
  00136	68 00 00 00 00	 push	 OFFSET ??_C@_0OB@HFJAHOEB@?$CD?$CD?$CD?$CDUM?$DN?$CFc?$EAUD?$DN5?$EAUT?$DN?$CFld?$EARDATET?$DNDD@

; 410  : 			lcChtAE, 
; 411  : 			pChartBInput->lTick, 
; 412  : 			(double)(atof(pChartBInput->m_sPreprice)/gChRATE_DATA[nOption]), 
; 413  : 			(double)pChartBInput->lVolume, 
; 414  : 			gChtTDC_RATE[nOption], gChtTDC_RATE[nOption], gChtTDC_RATE[nOption], gChtTDC_RATE[nOption], gChtRDC_RATE[nOption], gChtRDC_RATE[nOption], gChtRDC_RATE[nOption], gChtRDC_RATE[nOption],
; 415  : 			pChartBInput->lFirstClose, //(double)pChartBInput->lPrice/gChRATE_DATA[nOption], 
; 416  : 			atof(pChartBInput->m_sOpen), atof(pChartBInput->m_sHigh), atof(pChartBInput->m_sLow));
; 417  : 	}

  0013b	e9 1a 04 00 00	 jmp	 $LN81@MakeChtBoj
$LN4@MakeChtBoj:

; 418  : 	else if (pChartBInput->sTerm[0] == '1')

  00140	3c 31		 cmp	 al, 49			; 00000031H
  00142	75 4a		 jne	 SHORT $LN6@MakeChtBoj

; 420  : 		sprintf(lsBojo, "####UM=%c@UD=4@UT=%ld@RDATET=MMDDHHMM@CB=_Close_:1|@PREVPRICE=_Close_:%.2f|_Volume_:%12.0f@TDC=%s:_Open_,|%s:_High_,|%s:_Low_,|%s:_Close_,@RDC=%s:3:_Open_,|%s:3:_High_,|%s:3:_Low_,|%s:3:_Close_,@SCD=%ld@OHL=:%.2f:%.2f:%.2f@",

  00144	8b 85 54 fc ff
	ff		 mov	 eax, DWORD PTR _nOption$GSCopy$1$[ebp]
  0014a	ff 71 34	 push	 DWORD PTR [ecx+52]
; File C:\Program Files (x86)\Microsoft Visual Studio\2019\Community\VC\Tools\MSVC\14.29.30133\atlmfc\include\atlsimpstr.h

; 377  : 		return( m_pszData );

  0014d	8b 71 30	 mov	 esi, DWORD PTR [ecx+48]
  00150	8b 79 2c	 mov	 edi, DWORD PTR [ecx+44]
; File D:\git\src\IBK\IBK_DRFN\ProjSrc\SrcDrfn\DrCommon\PartnerMng\_ChartBozoManager.cpp

; 420  : 		sprintf(lsBojo, "####UM=%c@UD=4@UT=%ld@RDATET=MMDDHHMM@CB=_Close_:1|@PREVPRICE=_Close_:%.2f|_Volume_:%12.0f@TDC=%s:_Open_,|%s:_High_,|%s:_Low_,|%s:_Close_,@RDC=%s:3:_Open_,|%s:3:_High_,|%s:3:_Low_,|%s:3:_Close_,@SCD=%ld@OHL=:%.2f:%.2f:%.2f@",

  00153	8b 04 85 00 00
	00 00		 mov	 eax, DWORD PTR ?gChtTDC_RATE@@3PAPADA[eax*4]
  0015a	8b 1c 9d 00 00
	00 00		 mov	 ebx, DWORD PTR ?gChtRDC_RATE@@3PAPADA[ebx*4]
  00161	89 85 4c fc ff
	ff		 mov	 DWORD PTR tv876[ebp], eax
  00167	ff 15 00 00 00
	00		 call	 DWORD PTR __imp__atof
  0016d	51		 push	 ecx
  0016e	dd 1c 24	 fstp	 QWORD PTR [esp]
  00171	56		 push	 esi
  00172	ff 15 00 00 00
	00		 call	 DWORD PTR __imp__atof
  00178	51		 push	 ecx
  00179	dd 1c 24	 fstp	 QWORD PTR [esp]
  0017c	57		 push	 edi
  0017d	ff 15 00 00 00
	00		 call	 DWORD PTR __imp__atof
  00183	8b 85 4c fc ff
	ff		 mov	 eax, DWORD PTR tv876[ebp]

; 421  : 			lcChtAE, pChartBInput->lTick,
; 422  : 			(double)pChartBInput->lPreprice/gChRATE_DATA[nOption], 
; 423  : 			(double)pChartBInput->lVolume, 
; 424  : 			gChtTDC_RATE[nOption], gChtTDC_RATE[nOption], gChtTDC_RATE[nOption], gChtTDC_RATE[nOption], gChtRDC_RATE[nOption], gChtRDC_RATE[nOption], gChtRDC_RATE[nOption], gChtRDC_RATE[nOption],
; 425  : 			pChartBInput->lFirstClose, //(double)pChartBInput->lPrice/gChRATE_DATA[nOption], 
; 426  : 			atof(pChartBInput->m_sOpen), atof(pChartBInput->m_sHigh), atof(pChartBInput->m_sLow));
; 427  : 	}

  00189	e9 5b 03 00 00	 jmp	 $LN83@MakeChtBoj
$LN6@MakeChtBoj:

; 428  : 	else if (pChartBInput->sTerm[0] == '2')

  0018e	3c 32		 cmp	 al, 50			; 00000032H
  00190	0f 85 41 01 00
	00		 jne	 $LN8@MakeChtBoj
; File C:\Program Files (x86)\Microsoft Visual Studio\2019\Community\VC\Tools\MSVC\14.29.30133\atlmfc\include\atlsimpstr.h

; 533  : 		return( GetLength() == 0 );

  00196	33 c0		 xor	 eax, eax
  00198	80 fa 31	 cmp	 dl, 49			; 00000031H
  0019b	0f 95 c0	 setne	 al
  0019e	8d 04 85 41 00
	00 00		 lea	 eax, DWORD PTR [eax*4+65]
  001a5	89 85 44 fc ff
	ff		 mov	 DWORD PTR tv898[ebp], eax
  001ab	8b 41 40	 mov	 eax, DWORD PTR [ecx+64]
  001ae	83 78 f4 00	 cmp	 DWORD PTR [eax-12], 0
; File D:\git\src\IBK\IBK_DRFN\ProjSrc\SrcDrfn\DrCommon\PartnerMng\_ChartBozoManager.cpp

; 430  : 		if(pChartBInput->m_sStartTime.IsEmpty()==FALSE)

  001b2	0f 84 a3 00 00
	00		 je	 $LN10@MakeChtBoj

; 431  : 		{
; 432  : 			sprintf(lsRelpsa, "RELPSA=%.6s:%.4s", pChartBInput->m_sStartTime, pChartBInput->sShcode);

  001b8	8d 41 68	 lea	 eax, DWORD PTR [ecx+104]
  001bb	50		 push	 eax
  001bc	ff 71 40	 push	 DWORD PTR [ecx+64]
  001bf	8d 85 7c ff ff
	ff		 lea	 eax, DWORD PTR _lsRelpsa$[ebp]
  001c5	68 00 00 00 00	 push	 OFFSET ??_C@_0BB@BOFJMMPN@RELPSA?$DN?$CF?46s?3?$CF?44s@
  001ca	50		 push	 eax
  001cb	e8 00 00 00 00	 call	 _sprintf
; File C:\Program Files (x86)\Microsoft Visual Studio\2019\Community\VC\Tools\MSVC\14.29.30133\atlmfc\include\atlsimpstr.h

; 377  : 		return( m_pszData );

  001d0	8b 8d 50 fc ff
	ff		 mov	 ecx, DWORD PTR _pChartBInput$GSCopy$1$[ebp]
; File D:\git\src\IBK\IBK_DRFN\ProjSrc\SrcDrfn\DrCommon\PartnerMng\_ChartBozoManager.cpp

; 433  : 			sprintf(lsBojo, "####UM=%c@UD=1@RDATET=YYYYMMDD@%s@CB=_Close_:1|@TDC=%s:_Open_,|%s:_High_,|%s:_Low_,|%s:_Close_,@RDC=%s:3:_Open_,|%s:3:_High_,|%s:3:_Low_,|%s:3:_Close_,@SCD=%ld@OHL=:%.2f:%.2f:%.2f@",

  001d6	8b 85 54 fc ff
	ff		 mov	 eax, DWORD PTR _nOption$GSCopy$1$[ebp]
  001dc	8b 1c 9d 00 00
	00 00		 mov	 ebx, DWORD PTR ?gChtRDC_RATE@@3PAPADA[ebx*4]
  001e3	ff 71 34	 push	 DWORD PTR [ecx+52]
  001e6	8b 04 85 00 00
	00 00		 mov	 eax, DWORD PTR ?gChtTDC_RATE@@3PAPADA[eax*4]
; File C:\Program Files (x86)\Microsoft Visual Studio\2019\Community\VC\Tools\MSVC\14.29.30133\atlmfc\include\atlsimpstr.h

; 377  : 		return( m_pszData );

  001ed	8b 71 30	 mov	 esi, DWORD PTR [ecx+48]
  001f0	8b 79 2c	 mov	 edi, DWORD PTR [ecx+44]
; File D:\git\src\IBK\IBK_DRFN\ProjSrc\SrcDrfn\DrCommon\PartnerMng\_ChartBozoManager.cpp

; 433  : 			sprintf(lsBojo, "####UM=%c@UD=1@RDATET=YYYYMMDD@%s@CB=_Close_:1|@TDC=%s:_Open_,|%s:_High_,|%s:_Low_,|%s:_Close_,@RDC=%s:3:_Open_,|%s:3:_High_,|%s:3:_Low_,|%s:3:_Close_,@SCD=%ld@OHL=:%.2f:%.2f:%.2f@",

  001f3	89 85 4c fc ff
	ff		 mov	 DWORD PTR tv860[ebp], eax
  001f9	ff 15 00 00 00
	00		 call	 DWORD PTR __imp__atof
  001ff	83 c4 0c	 add	 esp, 12			; 0000000cH
  00202	dd 1c 24	 fstp	 QWORD PTR [esp]
  00205	56		 push	 esi
  00206	ff 15 00 00 00
	00		 call	 DWORD PTR __imp__atof
  0020c	51		 push	 ecx
  0020d	dd 1c 24	 fstp	 QWORD PTR [esp]
  00210	57		 push	 edi
  00211	ff 15 00 00 00
	00		 call	 DWORD PTR __imp__atof
  00217	8b b5 50 fc ff
	ff		 mov	 esi, DWORD PTR _pChartBInput$GSCopy$1$[ebp]
  0021d	8b 85 4c fc ff
	ff		 mov	 eax, DWORD PTR tv860[ebp]
  00223	51		 push	 ecx
  00224	dd 1c 24	 fstp	 QWORD PTR [esp]
  00227	ff b6 a4 00 00
	00		 push	 DWORD PTR [esi+164]
  0022d	53		 push	 ebx
  0022e	53		 push	 ebx
  0022f	53		 push	 ebx
  00230	53		 push	 ebx
  00231	50		 push	 eax
  00232	50		 push	 eax
  00233	50		 push	 eax
  00234	50		 push	 eax
  00235	8d 85 7c ff ff
	ff		 lea	 eax, DWORD PTR _lsRelpsa$[ebp]
  0023b	50		 push	 eax
  0023c	ff b5 44 fc ff
	ff		 push	 DWORD PTR tv898[ebp]
  00242	8d 85 5c fc ff
	ff		 lea	 eax, DWORD PTR _lsBojo$[ebp]
  00248	68 00 00 00 00	 push	 OFFSET ??_C@_0LF@JEMNOOFL@?$CD?$CD?$CD?$CDUM?$DN?$CFc?$EAUD?$DN1?$EARDATET?$DNYYYYMMDD?$EA@
  0024d	50		 push	 eax
  0024e	e8 00 00 00 00	 call	 _sprintf
  00253	83 c4 4c	 add	 esp, 76			; 0000004cH

; 434  : 				lcChtAE, lsRelpsa,
; 435  : 				gChtTDC_RATE[nOption], gChtTDC_RATE[nOption], gChtTDC_RATE[nOption], gChtTDC_RATE[nOption], gChtRDC_RATE[nOption], gChtRDC_RATE[nOption], gChtRDC_RATE[nOption], gChtRDC_RATE[nOption],
; 436  : 				pChartBInput->lFirstClose,	//(double)(atof(pChartBInput->m_sPrice)/gChRATE_DATA[nOption]),
; 437  : 				atof(pChartBInput->m_sOpen), atof(pChartBInput->m_sHigh), atof(pChartBInput->m_sLow));			
; 438  : 		}

  00256	e9 0e 03 00 00	 jmp	 $LN19@MakeChtBoj
$LN10@MakeChtBoj:

; 441  : 			sprintf(lsBojo, "####UM=%c@UD=1@RDATET=YYYYMMDD@@CB=_Close_:1|@TDC=%s:_Open_,|%s:_High_,|%s:_Low_,|%s:_Close_,@RDC=%s:3:_Open_,|%s:3:_High_,|%s:3:_Low_,|%s:3:_Close_,@SCD=%ld@OHL=:%.2f:%.2f:%.2f@",

  0025b	8b 85 54 fc ff
	ff		 mov	 eax, DWORD PTR _nOption$GSCopy$1$[ebp]
  00261	ff 71 34	 push	 DWORD PTR [ecx+52]
; File C:\Program Files (x86)\Microsoft Visual Studio\2019\Community\VC\Tools\MSVC\14.29.30133\atlmfc\include\atlsimpstr.h

; 377  : 		return( m_pszData );

  00264	8b 71 30	 mov	 esi, DWORD PTR [ecx+48]
  00267	8b 79 2c	 mov	 edi, DWORD PTR [ecx+44]
; File D:\git\src\IBK\IBK_DRFN\ProjSrc\SrcDrfn\DrCommon\PartnerMng\_ChartBozoManager.cpp

; 441  : 			sprintf(lsBojo, "####UM=%c@UD=1@RDATET=YYYYMMDD@@CB=_Close_:1|@TDC=%s:_Open_,|%s:_High_,|%s:_Low_,|%s:_Close_,@RDC=%s:3:_Open_,|%s:3:_High_,|%s:3:_Low_,|%s:3:_Close_,@SCD=%ld@OHL=:%.2f:%.2f:%.2f@",

  0026a	8b 04 85 00 00
	00 00		 mov	 eax, DWORD PTR ?gChtTDC_RATE@@3PAPADA[eax*4]
  00271	8b 1c 9d 00 00
	00 00		 mov	 ebx, DWORD PTR ?gChtRDC_RATE@@3PAPADA[ebx*4]
  00278	89 85 4c fc ff
	ff		 mov	 DWORD PTR tv859[ebp], eax
  0027e	ff 15 00 00 00
	00		 call	 DWORD PTR __imp__atof
  00284	51		 push	 ecx
  00285	dd 1c 24	 fstp	 QWORD PTR [esp]
  00288	56		 push	 esi
  00289	ff 15 00 00 00
	00		 call	 DWORD PTR __imp__atof
  0028f	51		 push	 ecx
  00290	dd 1c 24	 fstp	 QWORD PTR [esp]
  00293	57		 push	 edi
  00294	ff 15 00 00 00
	00		 call	 DWORD PTR __imp__atof
  0029a	8b b5 50 fc ff
	ff		 mov	 esi, DWORD PTR _pChartBInput$GSCopy$1$[ebp]
  002a0	8b 85 4c fc ff
	ff		 mov	 eax, DWORD PTR tv859[ebp]
  002a6	51		 push	 ecx
  002a7	dd 1c 24	 fstp	 QWORD PTR [esp]
  002aa	ff b6 a4 00 00
	00		 push	 DWORD PTR [esi+164]
  002b0	53		 push	 ebx
  002b1	53		 push	 ebx
  002b2	53		 push	 ebx
  002b3	53		 push	 ebx
  002b4	50		 push	 eax
  002b5	50		 push	 eax
  002b6	50		 push	 eax
  002b7	50		 push	 eax
  002b8	ff b5 44 fc ff
	ff		 push	 DWORD PTR tv898[ebp]
  002be	8d 85 5c fc ff
	ff		 lea	 eax, DWORD PTR _lsBojo$[ebp]
  002c4	68 00 00 00 00	 push	 OFFSET ??_C@_0LD@GJEOEOBG@?$CD?$CD?$CD?$CDUM?$DN?$CFc?$EAUD?$DN1?$EARDATET?$DNYYYYMMDD?$EA@
  002c9	50		 push	 eax
  002ca	e8 00 00 00 00	 call	 _sprintf
  002cf	83 c4 48	 add	 esp, 72			; 00000048H

; 442  : 				lcChtAE,
; 443  : 				gChtTDC_RATE[nOption], gChtTDC_RATE[nOption], gChtTDC_RATE[nOption], gChtTDC_RATE[nOption], gChtRDC_RATE[nOption], gChtRDC_RATE[nOption], gChtRDC_RATE[nOption], gChtRDC_RATE[nOption],
; 444  : 				pChartBInput->lFirstClose, //(double)(atof(pChartBInput->m_sPrice)/gChRATE_DATA[nOption]),
; 445  : 				atof(pChartBInput->m_sOpen), atof(pChartBInput->m_sHigh), atof(pChartBInput->m_sLow));			
; 446  : 		}
; 447  : 	}

  002d2	e9 92 02 00 00	 jmp	 $LN19@MakeChtBoj
$LN8@MakeChtBoj:

; 448  : 	else if (pChartBInput->sTerm[0] == '3')

  002d7	3c 33		 cmp	 al, 51			; 00000033H
  002d9	0f 85 b5 00 00
	00		 jne	 $LN12@MakeChtBoj

; 450  : 		sprintf(lsBojo, "####UM=%c@UD=2@RDATET=YYYYMMDD@CB=_Close_:1|@PREVPRICE=_Close_:%.2f|@TDC=%s:_Open_,|%s:_High_,|%s:_Low_,|%s:_Close_,@RDC=%s:3:_Open_,|%s:3:_High_,|%s:3:_Low_,|%s:3:_Close_,@SCD=%ld@OHL=:%.2f:%.2f:%.2f@",

  002df	8b 85 54 fc ff
	ff		 mov	 eax, DWORD PTR _nOption$GSCopy$1$[ebp]
  002e5	ff 71 34	 push	 DWORD PTR [ecx+52]
; File C:\Program Files (x86)\Microsoft Visual Studio\2019\Community\VC\Tools\MSVC\14.29.30133\atlmfc\include\atlsimpstr.h

; 377  : 		return( m_pszData );

  002e8	8b 71 30	 mov	 esi, DWORD PTR [ecx+48]
  002eb	8b 79 2c	 mov	 edi, DWORD PTR [ecx+44]
; File D:\git\src\IBK\IBK_DRFN\ProjSrc\SrcDrfn\DrCommon\PartnerMng\_ChartBozoManager.cpp

; 450  : 		sprintf(lsBojo, "####UM=%c@UD=2@RDATET=YYYYMMDD@CB=_Close_:1|@PREVPRICE=_Close_:%.2f|@TDC=%s:_Open_,|%s:_High_,|%s:_Low_,|%s:_Close_,@RDC=%s:3:_Open_,|%s:3:_High_,|%s:3:_Low_,|%s:3:_Close_,@SCD=%ld@OHL=:%.2f:%.2f:%.2f@",

  002ee	8b 04 85 00 00
	00 00		 mov	 eax, DWORD PTR ?gChtTDC_RATE@@3PAPADA[eax*4]
  002f5	8b 1c 9d 00 00
	00 00		 mov	 ebx, DWORD PTR ?gChtRDC_RATE@@3PAPADA[ebx*4]
  002fc	89 85 4c fc ff
	ff		 mov	 DWORD PTR tv875[ebp], eax
  00302	ff 15 00 00 00
	00		 call	 DWORD PTR __imp__atof
  00308	51		 push	 ecx
  00309	dd 1c 24	 fstp	 QWORD PTR [esp]
  0030c	56		 push	 esi
  0030d	ff 15 00 00 00
	00		 call	 DWORD PTR __imp__atof
  00313	51		 push	 ecx
  00314	dd 1c 24	 fstp	 QWORD PTR [esp]
  00317	57		 push	 edi
  00318	ff 15 00 00 00
	00		 call	 DWORD PTR __imp__atof
  0031e	8b b5 50 fc ff
	ff		 mov	 esi, DWORD PTR _pChartBInput$GSCopy$1$[ebp]
  00324	8b 85 4c fc ff
	ff		 mov	 eax, DWORD PTR tv875[ebp]
  0032a	51		 push	 ecx
  0032b	dd 1c 24	 fstp	 QWORD PTR [esp]
  0032e	ff b6 a4 00 00
	00		 push	 DWORD PTR [esi+164]
  00334	66 0f 6e 8e 9c
	00 00 00	 movd	 xmm1, DWORD PTR [esi+156]
  0033c	53		 push	 ebx
  0033d	53		 push	 ebx
  0033e	53		 push	 ebx
  0033f	53		 push	 ebx
  00340	50		 push	 eax
  00341	50		 push	 eax
  00342	50		 push	 eax
  00343	50		 push	 eax
  00344	8b 85 54 fc ff
	ff		 mov	 eax, DWORD PTR _nOption$GSCopy$1$[ebp]
  0034a	83 ec 08	 sub	 esp, 8
  0034d	f3 0f e6 c9	 cvtdq2pd xmm1, xmm1
  00351	66 0f 6e 04 85
	00 00 00 00	 movd	 xmm0, DWORD PTR ?gChRATE_DATA@@3PAHA[eax*4]
  0035a	33 c0		 xor	 eax, eax
  0035c	f3 0f e6 c0	 cvtdq2pd xmm0, xmm0
  00360	80 bd 5b fc ff
	ff 31		 cmp	 BYTE PTR tv897[ebp], 49	; 00000031H
  00367	0f 95 c0	 setne	 al
  0036a	f2 0f 5e c8	 divsd	 xmm1, xmm0
  0036e	8d 04 85 41 00
	00 00		 lea	 eax, DWORD PTR [eax*4+65]
  00375	f2 0f 11 0c 24	 movsd	 QWORD PTR [esp], xmm1
  0037a	50		 push	 eax

; 473  : 			lcChtAE, pChartBInput->lTick, (double)pChartBInput->lPreprice/gChRATE_DATA[nOption], (double)pChartBInput->lVolume, 
; 474  : 			gChtTDC_RATE[nOption], gChtTDC_RATE[nOption], gChtTDC_RATE[nOption], gChtTDC_RATE[nOption], gChtRDC_RATE[nOption], gChtRDC_RATE[nOption], gChtRDC_RATE[nOption], gChtRDC_RATE[nOption],
; 475  : 			pChartBInput->lFirstClose, atof(pChartBInput->m_sOpen), atof(pChartBInput->m_sHigh), atof(pChartBInput->m_sLow));
; 476  : 	}
; 477  : 	else
; 478  : 	{
; 479  : 		return 0;
; 480  : 	}
; 481  : 
; 482  : 	rString = lsBojo;

  0037b	8d 85 5c fc ff
	ff		 lea	 eax, DWORD PTR _lsBojo$[ebp]
  00381	68 00 00 00 00	 push	 OFFSET ??_C@_0MK@KBKLMIDJ@?$CD?$CD?$CD?$CDUM?$DN?$CFc?$EAUD?$DN2?$EARDATET?$DNYYYYMMDD?$EA@
  00386	50		 push	 eax
  00387	e8 00 00 00 00	 call	 _sprintf
  0038c	83 c4 50	 add	 esp, 80			; 00000050H
  0038f	e9 d5 01 00 00	 jmp	 $LN19@MakeChtBoj
$LN12@MakeChtBoj:

; 451  : 			lcChtAE,  (double)pChartBInput->lPreprice/gChRATE_DATA[nOption],
; 452  : 			gChtTDC_RATE[nOption], gChtTDC_RATE[nOption], gChtTDC_RATE[nOption], gChtTDC_RATE[nOption], gChtRDC_RATE[nOption], gChtRDC_RATE[nOption], gChtRDC_RATE[nOption], gChtRDC_RATE[nOption],
; 453  : 			pChartBInput->lFirstClose, //(double)(atof(pChartBInput->m_sPrice)/gChRATE_DATA[nOption]),
; 454  : 			atof(pChartBInput->m_sOpen), atof(pChartBInput->m_sHigh), atof(pChartBInput->m_sLow));			
; 455  : 	}
; 456  : 	else if (pChartBInput->sTerm[0] == '4')

  00394	3c 34		 cmp	 al, 52			; 00000034H
  00396	75 47		 jne	 SHORT $LN14@MakeChtBoj

; 458  : 		sprintf(lsBojo, "####UM=%c@UD=3@RDATET=YYYYMM@CB=_Close_:1|@PREVPRICE=_Close_:%.2f|@TDC=%s:_Open_,|%s:_High_,|%s:_Low_,|%s:_Close_,@RDC=%s:3:_Open_,|%s:3:_High_,|%s:3:_Low_,|%s:3:_Close_,@SCD=%ld@OHL=:%.2f:%.2f:%.2f@",

  00398	8b 85 54 fc ff
	ff		 mov	 eax, DWORD PTR _nOption$GSCopy$1$[ebp]
  0039e	ff 71 34	 push	 DWORD PTR [ecx+52]
; File C:\Program Files (x86)\Microsoft Visual Studio\2019\Community\VC\Tools\MSVC\14.29.30133\atlmfc\include\atlsimpstr.h

; 377  : 		return( m_pszData );

  003a1	8b 71 30	 mov	 esi, DWORD PTR [ecx+48]
  003a4	8b 79 2c	 mov	 edi, DWORD PTR [ecx+44]
; File D:\git\src\IBK\IBK_DRFN\ProjSrc\SrcDrfn\DrCommon\PartnerMng\_ChartBozoManager.cpp

; 458  : 		sprintf(lsBojo, "####UM=%c@UD=3@RDATET=YYYYMM@CB=_Close_:1|@PREVPRICE=_Close_:%.2f|@TDC=%s:_Open_,|%s:_High_,|%s:_Low_,|%s:_Close_,@RDC=%s:3:_Open_,|%s:3:_High_,|%s:3:_Low_,|%s:3:_Close_,@SCD=%ld@OHL=:%.2f:%.2f:%.2f@",

  003a7	8b 04 85 00 00
	00 00		 mov	 eax, DWORD PTR ?gChtTDC_RATE@@3PAPADA[eax*4]
  003ae	8b 1c 9d 00 00
	00 00		 mov	 ebx, DWORD PTR ?gChtRDC_RATE@@3PAPADA[ebx*4]
  003b5	89 85 4c fc ff
	ff		 mov	 DWORD PTR tv874[ebp], eax
  003bb	ff 15 00 00 00
	00		 call	 DWORD PTR __imp__atof
  003c1	51		 push	 ecx
  003c2	dd 1c 24	 fstp	 QWORD PTR [esp]
  003c5	56		 push	 esi
  003c6	ff 15 00 00 00
	00		 call	 DWORD PTR __imp__atof
  003cc	51		 push	 ecx
  003cd	dd 1c 24	 fstp	 QWORD PTR [esp]
  003d0	57		 push	 edi
  003d1	ff 15 00 00 00
	00		 call	 DWORD PTR __imp__atof
  003d7	8b 85 4c fc ff
	ff		 mov	 eax, DWORD PTR tv874[ebp]

; 459  : 			lcChtAE, (double)pChartBInput->lPreprice/gChRATE_DATA[nOption],
; 460  : 			gChtTDC_RATE[nOption], gChtTDC_RATE[nOption], gChtTDC_RATE[nOption], gChtTDC_RATE[nOption], gChtRDC_RATE[nOption], gChtRDC_RATE[nOption], gChtRDC_RATE[nOption], gChtRDC_RATE[nOption],
; 461  : 			pChartBInput->lFirstClose, atof(pChartBInput->m_sOpen), atof(pChartBInput->m_sHigh), atof(pChartBInput->m_sLow));
; 462  : 	}

  003dd	eb 4d		 jmp	 SHORT $LN86@MakeChtBoj
$LN14@MakeChtBoj:

; 463  : 	else if (pChartBInput->sTerm[0] == '5')

  003df	3c 35		 cmp	 al, 53			; 00000035H
  003e1	0f 85 b5 00 00
	00		 jne	 $LN16@MakeChtBoj

; 465  : 		sprintf(lsBojo, "####UM=%c@UD=3@RDATET=YYYYMM@CB=_Close_:1|@PREVPRICE=_Close_:%.2f|@TDC=%s:_Open_,|%s:_High_,|%s:_Low_,|%s:_Close_,@RDC=%s:3:_Open_,|%s:3:_High_,|%s:3:_Low_,|%s:3:_Close_,@SCD=%ld@OHL=:%.2f:%.2f:%.2f@",

  003e7	8b 85 54 fc ff
	ff		 mov	 eax, DWORD PTR _nOption$GSCopy$1$[ebp]
  003ed	ff 71 34	 push	 DWORD PTR [ecx+52]
; File C:\Program Files (x86)\Microsoft Visual Studio\2019\Community\VC\Tools\MSVC\14.29.30133\atlmfc\include\atlsimpstr.h

; 377  : 		return( m_pszData );

  003f0	8b 71 30	 mov	 esi, DWORD PTR [ecx+48]
  003f3	8b 79 2c	 mov	 edi, DWORD PTR [ecx+44]
; File D:\git\src\IBK\IBK_DRFN\ProjSrc\SrcDrfn\DrCommon\PartnerMng\_ChartBozoManager.cpp

; 465  : 		sprintf(lsBojo, "####UM=%c@UD=3@RDATET=YYYYMM@CB=_Close_:1|@PREVPRICE=_Close_:%.2f|@TDC=%s:_Open_,|%s:_High_,|%s:_Low_,|%s:_Close_,@RDC=%s:3:_Open_,|%s:3:_High_,|%s:3:_Low_,|%s:3:_Close_,@SCD=%ld@OHL=:%.2f:%.2f:%.2f@",

  003f6	8b 04 85 00 00
	00 00		 mov	 eax, DWORD PTR ?gChtTDC_RATE@@3PAPADA[eax*4]
  003fd	8b 1c 9d 00 00
	00 00		 mov	 ebx, DWORD PTR ?gChtRDC_RATE@@3PAPADA[ebx*4]
  00404	89 85 4c fc ff
	ff		 mov	 DWORD PTR tv873[ebp], eax
  0040a	ff 15 00 00 00
	00		 call	 DWORD PTR __imp__atof
  00410	51		 push	 ecx
  00411	dd 1c 24	 fstp	 QWORD PTR [esp]
  00414	56		 push	 esi
  00415	ff 15 00 00 00
	00		 call	 DWORD PTR __imp__atof
  0041b	51		 push	 ecx
  0041c	dd 1c 24	 fstp	 QWORD PTR [esp]
  0041f	57		 push	 edi
  00420	ff 15 00 00 00
	00		 call	 DWORD PTR __imp__atof
  00426	8b 85 4c fc ff
	ff		 mov	 eax, DWORD PTR tv873[ebp]
$LN86@MakeChtBoj:

; 473  : 			lcChtAE, pChartBInput->lTick, (double)pChartBInput->lPreprice/gChRATE_DATA[nOption], (double)pChartBInput->lVolume, 
; 474  : 			gChtTDC_RATE[nOption], gChtTDC_RATE[nOption], gChtTDC_RATE[nOption], gChtTDC_RATE[nOption], gChtRDC_RATE[nOption], gChtRDC_RATE[nOption], gChtRDC_RATE[nOption], gChtRDC_RATE[nOption],
; 475  : 			pChartBInput->lFirstClose, atof(pChartBInput->m_sOpen), atof(pChartBInput->m_sHigh), atof(pChartBInput->m_sLow));
; 476  : 	}
; 477  : 	else
; 478  : 	{
; 479  : 		return 0;
; 480  : 	}
; 481  : 
; 482  : 	rString = lsBojo;

  0042c	8b b5 50 fc ff
	ff		 mov	 esi, DWORD PTR _pChartBInput$GSCopy$1$[ebp]
  00432	51		 push	 ecx
  00433	dd 1c 24	 fstp	 QWORD PTR [esp]
  00436	ff b6 a4 00 00
	00		 push	 DWORD PTR [esi+164]
  0043c	66 0f 6e 8e 9c
	00 00 00	 movd	 xmm1, DWORD PTR [esi+156]
  00444	53		 push	 ebx
  00445	53		 push	 ebx
  00446	53		 push	 ebx
  00447	53		 push	 ebx
  00448	50		 push	 eax
  00449	50		 push	 eax
  0044a	50		 push	 eax
  0044b	50		 push	 eax
  0044c	8b 85 54 fc ff
	ff		 mov	 eax, DWORD PTR _nOption$GSCopy$1$[ebp]
  00452	83 ec 08	 sub	 esp, 8
  00455	f3 0f e6 c9	 cvtdq2pd xmm1, xmm1
  00459	66 0f 6e 04 85
	00 00 00 00	 movd	 xmm0, DWORD PTR ?gChRATE_DATA@@3PAHA[eax*4]
  00462	33 c0		 xor	 eax, eax
  00464	f3 0f e6 c0	 cvtdq2pd xmm0, xmm0
  00468	80 bd 5b fc ff
	ff 31		 cmp	 BYTE PTR tv897[ebp], 49	; 00000031H
  0046f	0f 95 c0	 setne	 al
  00472	f2 0f 5e c8	 divsd	 xmm1, xmm0
  00476	8d 04 85 41 00
	00 00		 lea	 eax, DWORD PTR [eax*4+65]
  0047d	f2 0f 11 0c 24	 movsd	 QWORD PTR [esp], xmm1
  00482	50		 push	 eax
  00483	8d 85 5c fc ff
	ff		 lea	 eax, DWORD PTR _lsBojo$[ebp]
  00489	68 00 00 00 00	 push	 OFFSET ??_C@_0MI@PFGFFMKF@?$CD?$CD?$CD?$CDUM?$DN?$CFc?$EAUD?$DN3?$EARDATET?$DNYYYYMM?$EACB@
  0048e	50		 push	 eax
  0048f	e8 00 00 00 00	 call	 _sprintf
  00494	83 c4 50	 add	 esp, 80			; 00000050H
  00497	e9 cd 00 00 00	 jmp	 $LN19@MakeChtBoj
$LN16@MakeChtBoj:

; 466  : 			lcChtAE, (double)pChartBInput->lPreprice/gChRATE_DATA[nOption],
; 467  : 			gChtTDC_RATE[nOption], gChtTDC_RATE[nOption], gChtTDC_RATE[nOption], gChtTDC_RATE[nOption], gChtRDC_RATE[nOption], gChtRDC_RATE[nOption], gChtRDC_RATE[nOption], gChtRDC_RATE[nOption],
; 468  : 			pChartBInput->lFirstClose, atof(pChartBInput->m_sOpen), atof(pChartBInput->m_sHigh), atof(pChartBInput->m_sLow));
; 469  : 	}
; 470  : 	else if (pChartBInput->sTerm[0] == '6')

  0049c	3c 36		 cmp	 al, 54			; 00000036H
  0049e	0f 85 36 01 00
	00		 jne	 $LN18@MakeChtBoj

; 472  : 		sprintf(lsBojo, "####UM=%c@UD=4@UT=%ld@RDATET=MMDDHHMM@CB=_Close_:1|@PREVPRICE=_Close_:%.2f|_Volume_:%12.0f@TDC=%s:_Open_,|%s:_High_,|%s:_Low_,|%s:_Close_,@RDC=%s:3:_Open_,|%s:3:_High_,|%s:3:_Low_,|%s:3:_Close_,@SCD=%ld@OHL=:%.2f:%.2f:%.2f@",

  004a4	8b 85 54 fc ff
	ff		 mov	 eax, DWORD PTR _nOption$GSCopy$1$[ebp]
  004aa	ff 71 34	 push	 DWORD PTR [ecx+52]
; File C:\Program Files (x86)\Microsoft Visual Studio\2019\Community\VC\Tools\MSVC\14.29.30133\atlmfc\include\atlsimpstr.h

; 377  : 		return( m_pszData );

  004ad	8b 71 30	 mov	 esi, DWORD PTR [ecx+48]
  004b0	8b 79 2c	 mov	 edi, DWORD PTR [ecx+44]
; File D:\git\src\IBK\IBK_DRFN\ProjSrc\SrcDrfn\DrCommon\PartnerMng\_ChartBozoManager.cpp

; 472  : 		sprintf(lsBojo, "####UM=%c@UD=4@UT=%ld@RDATET=MMDDHHMM@CB=_Close_:1|@PREVPRICE=_Close_:%.2f|_Volume_:%12.0f@TDC=%s:_Open_,|%s:_High_,|%s:_Low_,|%s:_Close_,@RDC=%s:3:_Open_,|%s:3:_High_,|%s:3:_Low_,|%s:3:_Close_,@SCD=%ld@OHL=:%.2f:%.2f:%.2f@",

  004b3	8b 04 85 00 00
	00 00		 mov	 eax, DWORD PTR ?gChtTDC_RATE@@3PAPADA[eax*4]
  004ba	8b 1c 9d 00 00
	00 00		 mov	 ebx, DWORD PTR ?gChtRDC_RATE@@3PAPADA[ebx*4]
  004c1	89 85 4c fc ff
	ff		 mov	 DWORD PTR tv872[ebp], eax
  004c7	ff 15 00 00 00
	00		 call	 DWORD PTR __imp__atof
  004cd	51		 push	 ecx
  004ce	dd 1c 24	 fstp	 QWORD PTR [esp]
  004d1	56		 push	 esi
  004d2	ff 15 00 00 00
	00		 call	 DWORD PTR __imp__atof
  004d8	51		 push	 ecx
  004d9	dd 1c 24	 fstp	 QWORD PTR [esp]
  004dc	57		 push	 edi
  004dd	ff 15 00 00 00
	00		 call	 DWORD PTR __imp__atof
  004e3	8b 85 4c fc ff
	ff		 mov	 eax, DWORD PTR tv872[ebp]
$LN83@MakeChtBoj:

; 473  : 			lcChtAE, pChartBInput->lTick, (double)pChartBInput->lPreprice/gChRATE_DATA[nOption], (double)pChartBInput->lVolume, 
; 474  : 			gChtTDC_RATE[nOption], gChtTDC_RATE[nOption], gChtTDC_RATE[nOption], gChtTDC_RATE[nOption], gChtRDC_RATE[nOption], gChtRDC_RATE[nOption], gChtRDC_RATE[nOption], gChtRDC_RATE[nOption],
; 475  : 			pChartBInput->lFirstClose, atof(pChartBInput->m_sOpen), atof(pChartBInput->m_sHigh), atof(pChartBInput->m_sLow));
; 476  : 	}
; 477  : 	else
; 478  : 	{
; 479  : 		return 0;
; 480  : 	}
; 481  : 
; 482  : 	rString = lsBojo;

  004e9	8b b5 50 fc ff
	ff		 mov	 esi, DWORD PTR _pChartBInput$GSCopy$1$[ebp]
  004ef	51		 push	 ecx
  004f0	dd 1c 24	 fstp	 QWORD PTR [esp]
  004f3	ff b6 a4 00 00
	00		 push	 DWORD PTR [esi+164]
  004f9	66 0f 6e 86 84
	00 00 00	 movd	 xmm0, DWORD PTR [esi+132]
  00501	53		 push	 ebx
  00502	66 0f 6e 8e 9c
	00 00 00	 movd	 xmm1, DWORD PTR [esi+156]
  0050a	53		 push	 ebx
  0050b	53		 push	 ebx
  0050c	53		 push	 ebx
  0050d	50		 push	 eax
  0050e	50		 push	 eax
  0050f	50		 push	 eax
  00510	50		 push	 eax
  00511	8b 85 54 fc ff
	ff		 mov	 eax, DWORD PTR _nOption$GSCopy$1$[ebp]
  00517	83 ec 10	 sub	 esp, 16			; 00000010H
  0051a	f3 0f e6 c0	 cvtdq2pd xmm0, xmm0
  0051e	f3 0f e6 c9	 cvtdq2pd xmm1, xmm1
  00522	f2 0f 11 44 24
	08		 movsd	 QWORD PTR [esp+8], xmm0
  00528	66 0f 6e 04 85
	00 00 00 00	 movd	 xmm0, DWORD PTR ?gChRATE_DATA@@3PAHA[eax*4]
  00531	33 c0		 xor	 eax, eax
  00533	f3 0f e6 c0	 cvtdq2pd xmm0, xmm0
  00537	80 bd 5b fc ff
	ff 31		 cmp	 BYTE PTR tv897[ebp], 49	; 00000031H
  0053e	0f 95 c0	 setne	 al
  00541	f2 0f 5e c8	 divsd	 xmm1, xmm0
  00545	8d 04 85 41 00
	00 00		 lea	 eax, DWORD PTR [eax*4+65]
  0054c	f2 0f 11 0c 24	 movsd	 QWORD PTR [esp], xmm1
  00551	ff 76 78	 push	 DWORD PTR [esi+120]
  00554	50		 push	 eax
  00555	68 00 00 00 00	 push	 OFFSET ??_C@_0OA@GKJPGFLL@?$CD?$CD?$CD?$CDUM?$DN?$CFc?$EAUD?$DN4?$EAUT?$DN?$CFld?$EARDATET?$DNMM@
$LN81@MakeChtBoj:
  0055a	8d 85 5c fc ff
	ff		 lea	 eax, DWORD PTR _lsBojo$[ebp]
  00560	50		 push	 eax
  00561	e8 00 00 00 00	 call	 _sprintf
  00566	83 c4 5c	 add	 esp, 92			; 0000005cH
$LN19@MakeChtBoj:
  00569	8b 9d 3c fc ff
	ff		 mov	 ebx, DWORD PTR _rString$GSCopy$1$[ebp]
  0056f	8d 85 5c fc ff
	ff		 lea	 eax, DWORD PTR _lsBojo$[ebp]
  00575	50		 push	 eax
  00576	8b cb		 mov	 ecx, ebx
  00578	ff 15 00 00 00
	00		 call	 DWORD PTR __imp_??4?$CStringT@DV?$StrTraitMFC_DLL@DV?$ChTraitsCRT@D@ATL@@@@@ATL@@QAEAAV01@PBD@Z

; 483  : 	
; 484  : 	// 20130222  :      .(   )
; 485  : 	CString szTmpExt;

  0057e	8d 8d 40 fc ff
	ff		 lea	 ecx, DWORD PTR _szTmpExt$[ebp]
  00584	ff 15 00 00 00
	00		 call	 DWORD PTR __imp_??0?$CStringT@DV?$StrTraitMFC_DLL@DV?$ChTraitsCRT@D@ATL@@@@@ATL@@QAE@XZ

; 486  : 	szTmpExt.Format("DATATIME=%s@", pChartBInput->m_sLastDataTime);

  0058a	ff b6 c0 00 00
	00		 push	 DWORD PTR [esi+192]
  00590	8d 85 40 fc ff
	ff		 lea	 eax, DWORD PTR _szTmpExt$[ebp]
  00596	68 00 00 00 00	 push	 OFFSET ??_C@_0N@JENAIHAK@DATATIME?$DN?$CFs?$EA@
  0059b	50		 push	 eax
  0059c	ff 15 00 00 00
	00		 call	 DWORD PTR __imp_?Format@?$CStringT@DV?$StrTraitMFC_DLL@DV?$ChTraitsCRT@D@ATL@@@@@ATL@@QAAXPBDZZ
  005a2	83 c4 0c	 add	 esp, 12			; 0000000cH

; 487  : 	rString += szTmpExt;		

  005a5	8d 85 40 fc ff
	ff		 lea	 eax, DWORD PTR _szTmpExt$[ebp]
  005ab	8b cb		 mov	 ecx, ebx
  005ad	50		 push	 eax
  005ae	ff 15 00 00 00
	00		 call	 DWORD PTR __imp_??Y?$CStringT@DV?$StrTraitMFC_DLL@DV?$ChTraitsCRT@D@ATL@@@@@ATL@@QAEAAV01@ABV?$CSimpleStringT@D$00@1@@Z
; File C:\Program Files (x86)\Microsoft Visual Studio\2019\Community\VC\Tools\MSVC\14.29.30133\atlmfc\include\atlsimpstr.h

; 519  : 		return( GetData()->nDataLength );

  005b4	8b 03		 mov	 eax, DWORD PTR [ebx]
; File D:\git\src\IBK\IBK_DRFN\ProjSrc\SrcDrfn\DrCommon\PartnerMng\_ChartBozoManager.cpp

; 489  : 	return rString.GetLength();

  005b6	8d 8d 40 fc ff
	ff		 lea	 ecx, DWORD PTR _szTmpExt$[ebp]
; File C:\Program Files (x86)\Microsoft Visual Studio\2019\Community\VC\Tools\MSVC\14.29.30133\atlmfc\include\atlsimpstr.h

; 519  : 		return( GetData()->nDataLength );

  005bc	8b 70 f4	 mov	 esi, DWORD PTR [eax-12]
; File D:\git\src\IBK\IBK_DRFN\ProjSrc\SrcDrfn\DrCommon\PartnerMng\_ChartBozoManager.cpp

; 489  : 	return rString.GetLength();

  005bf	ff 15 00 00 00
	00		 call	 DWORD PTR __imp_??1?$CStringT@DV?$StrTraitMFC_DLL@DV?$ChTraitsCRT@D@ATL@@@@@ATL@@QAE@XZ
  005c5	5f		 pop	 edi
  005c6	8b c6		 mov	 eax, esi

; 490  : }

  005c8	5e		 pop	 esi
  005c9	5b		 pop	 ebx
  005ca	8b 4d fc	 mov	 ecx, DWORD PTR __$ArrayPad$[ebp]
  005cd	33 cd		 xor	 ecx, ebp
  005cf	e8 00 00 00 00	 call	 @__security_check_cookie@4
  005d4	8b e5		 mov	 esp, ebp
  005d6	5d		 pop	 ebp
  005d7	c2 10 00	 ret	 16			; 00000010H
$LN18@MakeChtBoj:
  005da	8b 4d fc	 mov	 ecx, DWORD PTR __$ArrayPad$[ebp]
  005dd	33 c0		 xor	 eax, eax
  005df	5f		 pop	 edi
  005e0	5e		 pop	 esi
  005e1	33 cd		 xor	 ecx, ebp
  005e3	5b		 pop	 ebx
  005e4	e8 00 00 00 00	 call	 @__security_check_cookie@4
  005e9	8b e5		 mov	 esp, ebp
  005eb	5d		 pop	 ebp
  005ec	c2 10 00	 ret	 16			; 00000010H
?MakeChtBojo_ctup@CChartBozoManager@@UAGHPAVCChartBozoInput@@AAV?$CStringT@DV?$StrTraitMFC_DLL@DV?$ChTraitsCRT@D@ATL@@@@@ATL@@H@Z ENDP ; CChartBozoManager::MakeChtBojo_ctup
_TEXT	ENDS
; Function compile flags: /Ogtp
; File D:\git\src\IBK\IBK_DRFN\ProjSrc\SrcDrfn\DrCommon\PartnerMng\_ChartBozoManager.cpp
; File C:\Program Files (x86)\Microsoft Visual Studio\2019\Community\VC\Tools\MSVC\14.29.30133\atlmfc\include\atlsimpstr.h
; File D:\git\src\IBK\IBK_DRFN\ProjSrc\SrcDrfn\DrCommon\PartnerMng\_ChartBozoManager.cpp
; File C:\Program Files (x86)\Microsoft Visual Studio\2019\Community\VC\Tools\MSVC\14.29.30133\atlmfc\include\atlsimpstr.h
; File D:\git\src\IBK\IBK_DRFN\ProjSrc\SrcDrfn\DrCommon\PartnerMng\_ChartBozoManager.cpp
; File C:\Program Files (x86)\Microsoft Visual Studio\2019\Community\VC\Tools\MSVC\14.29.30133\atlmfc\include\atlsimpstr.h
; File D:\git\src\IBK\IBK_DRFN\ProjSrc\SrcDrfn\DrCommon\PartnerMng\_ChartBozoManager.cpp
; File C:\Program Files (x86)\Microsoft Visual Studio\2019\Community\VC\Tools\MSVC\14.29.30133\atlmfc\include\atlsimpstr.h
; File D:\git\src\IBK\IBK_DRFN\ProjSrc\SrcDrfn\DrCommon\PartnerMng\_ChartBozoManager.cpp
; File C:\Program Files (x86)\Microsoft Visual Studio\2019\Community\VC\Tools\MSVC\14.29.30133\atlmfc\include\atlsimpstr.h
; File D:\git\src\IBK\IBK_DRFN\ProjSrc\SrcDrfn\DrCommon\PartnerMng\_ChartBozoManager.cpp
; File C:\Program Files (x86)\Microsoft Visual Studio\2019\Community\VC\Tools\MSVC\14.29.30133\atlmfc\include\atlsimpstr.h
; File D:\git\src\IBK\IBK_DRFN\ProjSrc\SrcDrfn\DrCommon\PartnerMng\_ChartBozoManager.cpp
;	COMDAT ?MakeChtBojo_ctstk@CChartBozoManager@@UAGHPAVCChartBozoInput@@AAV?$CStringT@DV?$StrTraitMFC_DLL@DV?$ChTraitsCRT@D@ATL@@@@@ATL@@H@Z
_TEXT	SEGMENT
_rString$GSCopy$1$ = -1744				; size = 4
tv907 = -1740						; size = 4
tv892 = -1736						; size = 4
_szTmpExt$ = -1736					; size = 4
_lsBojo$ = -1732					; size = 800
_lsBMrk$ = -932						; size = 800
_lsRelpsa$ = -132					; size = 128
__$ArrayPad$ = -4					; size = 4
_this$ = 8						; size = 4
_pChartBInput$ = 12					; size = 4
_rString$ = 16						; size = 4
_nOption$ = 20						; size = 4
?MakeChtBojo_ctstk@CChartBozoManager@@UAGHPAVCChartBozoInput@@AAV?$CStringT@DV?$StrTraitMFC_DLL@DV?$ChTraitsCRT@D@ATL@@@@@ATL@@H@Z PROC ; CChartBozoManager::MakeChtBojo_ctstk, COMDAT

; 268  : {

  00000	55		 push	 ebp
  00001	8b ec		 mov	 ebp, esp
  00003	81 ec d0 06 00
	00		 sub	 esp, 1744		; 000006d0H
  00009	a1 00 00 00 00	 mov	 eax, DWORD PTR ___security_cookie
  0000e	33 c5		 xor	 eax, ebp
  00010	89 45 fc	 mov	 DWORD PTR __$ArrayPad$[ebp], eax
  00013	8b 45 10	 mov	 eax, DWORD PTR _rString$[ebp]
  00016	53		 push	 ebx
  00017	56		 push	 esi
  00018	8b 75 0c	 mov	 esi, DWORD PTR _pChartBInput$[ebp]
  0001b	57		 push	 edi
  0001c	89 85 30 f9 ff
	ff		 mov	 DWORD PTR _rString$GSCopy$1$[ebp], eax
  00022	8b 45 14	 mov	 eax, DWORD PTR _nOption$[ebp]

; 269  : 	char    lsBMrk[800], lsBojo[800], lsRelpsa[128], lcChtAE;
; 270  : 	//ULONG   lspChartBInput->lVolume = 0;
; 271  : 	long    lsrecprice=0;
; 272  : 
; 273  :     memset(lsBMrk      , 0x20, sizeof(lsBMrk      ));

  00025	68 20 03 00 00	 push	 800			; 00000320H
  0002a	89 85 38 f9 ff
	ff		 mov	 DWORD PTR tv892[ebp], eax
  00030	8d 85 5c fc ff
	ff		 lea	 eax, DWORD PTR _lsBMrk$[ebp]
  00036	6a 20		 push	 32			; 00000020H
  00038	50		 push	 eax
  00039	e8 00 00 00 00	 call	 _memset

; 274  :     memset(lsBojo      , 0x20, sizeof(lsBojo      ));

  0003e	68 20 03 00 00	 push	 800			; 00000320H
  00043	8d 85 3c f9 ff
	ff		 lea	 eax, DWORD PTR _lsBojo$[ebp]
  00049	6a 20		 push	 32			; 00000020H
  0004b	50		 push	 eax
  0004c	e8 00 00 00 00	 call	 _memset

; 275  :     memset(lsRelpsa    , 0x20, sizeof(lsRelpsa    ));

  00051	68 80 00 00 00	 push	 128			; 00000080H
  00056	8d 85 7c ff ff
	ff		 lea	 eax, DWORD PTR _lsRelpsa$[ebp]
  0005c	6a 20		 push	 32			; 00000020H
  0005e	50		 push	 eax
  0005f	e8 00 00 00 00	 call	 _memset

; 276  : 
; 277  : 	if (pChartBInput->sNxtFlg[0] == '1')	lcChtAE = 'A';
; 278  : 	else									lcChtAE = 'E';
; 279  : 
; 280  : 	if(pChartBInput->sDataType[0] == '5') lsrecprice = 0;

  00064	8a 46 7e	 mov	 al, BYTE PTR [esi+126]
  00067	8d be b4 00 00
	00		 lea	 edi, DWORD PTR [esi+180]
  0006d	8a 5e 7d	 mov	 bl, BYTE PTR [esi+125]
  00070	83 c4 24	 add	 esp, 36			; 00000024H
  00073	c7 07 01 00 00
	00		 mov	 DWORD PTR [edi], 1
  00079	3c 35		 cmp	 al, 53			; 00000035H
  0007b	0f 85 02 01 00
	00		 jne	 $LN4@MakeChtBoj
  00081	33 d2		 xor	 edx, edx
$LN8@MakeChtBoj:

; 331  : 	else 
; 332  : 	{
; 333  : 		sprintf(lsBMrk, "BOUNDMARK=:%.2f,%.2f:%.6s:1:%.2f:%c@PREVPRICE=_Close_:0.00|_Volume_:%s|_VolumeAmount_:%s@TDC=%s:_Open_,|%s:_High_,|%s:_Low_,|%s:_Close_,@RDC=%s:3:_Open_,|%s:3:_High_,|%s:3:_Low_,|%s:3:_Close_,@OHL=:%ld:%ld:%ld@PREVPRICE2=%ld:%ld:%ld:%ld@",

  00083	f2 0f 10 0d 00
	00 00 00	 movsd	 xmm1, QWORD PTR __real@4059000000000000
  0008b	ff b6 b0 00 00
	00		 push	 DWORD PTR [esi+176]
  00091	66 0f 6e d2	 movd	 xmm2, edx
  00095	8d 56 68	 lea	 edx, DWORD PTR [esi+104]
  00098	ff b6 9c 00 00
	00		 push	 DWORD PTR [esi+156]
  0009e	f3 0f e6 d2	 cvtdq2pd xmm2, xmm2
  000a2	8b 8d 38 f9 ff
	ff		 mov	 ecx, DWORD PTR tv892[ebp]
  000a8	8b 04 8d 00 00
	00 00		 mov	 eax, DWORD PTR ?gChtRDC_RATE@@3PAPADA[ecx*4]
  000af	ff b6 a8 00 00
	00		 push	 DWORD PTR [esi+168]
  000b5	0f 28 c2	 movaps	 xmm0, xmm2
  000b8	8b 0c 8d 00 00
	00 00		 mov	 ecx, DWORD PTR ?gChtTDC_RATE@@3PAPADA[ecx*4]
  000bf	ff b6 ac 00 00
	00		 push	 DWORD PTR [esi+172]
  000c5	f2 0f 5c c2	 subsd	 xmm0, xmm2
  000c9	ff b6 98 00 00
	00		 push	 DWORD PTR [esi+152]
  000cf	ff b6 94 00 00
	00		 push	 DWORD PTR [esi+148]
  000d5	ff b6 90 00 00
	00		 push	 DWORD PTR [esi+144]
  000db	f2 0f 59 c1	 mulsd	 xmm0, xmm1
  000df	50		 push	 eax
  000e0	50		 push	 eax
  000e1	50		 push	 eax
  000e2	50		 push	 eax
  000e3	f2 0f 5e c2	 divsd	 xmm0, xmm2
  000e7	51		 push	 ecx
  000e8	51		 push	 ecx
  000e9	51		 push	 ecx
  000ea	51		 push	 ecx
  000eb	8d 85 5c fc ff
	ff		 lea	 eax, DWORD PTR _lsBMrk$[ebp]
  000f1	ff 76 58	 push	 DWORD PTR [esi+88]
  000f4	ff 76 20	 push	 DWORD PTR [esi+32]
  000f7	6a 32		 push	 50			; 00000032H
  000f9	83 ec 08	 sub	 esp, 8
  000fc	f2 0f 11 04 24	 movsd	 QWORD PTR [esp], xmm0
  00101	66 0f 6e 86 8c
	00 00 00	 movd	 xmm0, DWORD PTR [esi+140]
  00109	f3 0f e6 c0	 cvtdq2pd xmm0, xmm0
  0010d	52		 push	 edx
  0010e	83 ec 10	 sub	 esp, 16			; 00000010H
  00111	f2 0f 5c c2	 subsd	 xmm0, xmm2
  00115	f2 0f 59 c1	 mulsd	 xmm0, xmm1
  00119	f2 0f 5e c2	 divsd	 xmm0, xmm2
  0011d	f2 0f 11 44 24
	08		 movsd	 QWORD PTR [esp+8], xmm0
  00123	66 0f 6e 86 88
	00 00 00	 movd	 xmm0, DWORD PTR [esi+136]
  0012b	f3 0f e6 c0	 cvtdq2pd xmm0, xmm0
  0012f	f2 0f 5c c2	 subsd	 xmm0, xmm2
  00133	f2 0f 59 c1	 mulsd	 xmm0, xmm1
  00137	f2 0f 5e c2	 divsd	 xmm0, xmm2
  0013b	f2 0f 11 04 24	 movsd	 QWORD PTR [esp], xmm0
  00140	68 00 00 00 00	 push	 OFFSET ??_C@_0PG@JMCCFOJJ@BOUNDMARK?$DN?$LE?k?$LK?q?B?w?F?$KO?3?$CF?42f?0?$CF?42f?3?$CF?4@
  00145	50		 push	 eax
  00146	e8 00 00 00 00	 call	 _sprintf
  0014b	83 c4 6c	 add	 esp, 108		; 0000006cH
$LN9@MakeChtBoj:

; 334  : 			CALC_CHGRATE((double)pChartBInput->lUpLmtPrice, lsrecprice),
; 335  : 			CALC_CHGRATE((double)pChartBInput->lDnLmtPrice, lsrecprice),
; 336  : 			pChartBInput->sShcode,
; 337  : 			CALC_CHGRATE(lsrecprice,   lsrecprice),
; 338  : 			'2',
; 339  : 			pChartBInput->m_sVolume,
; 340  : 			pChartBInput->m_sVolAmt, //[A00000651][A00000652].
; 341  : 			gChtTDC_RATE[nOption], gChtTDC_RATE[nOption], gChtTDC_RATE[nOption], gChtTDC_RATE[nOption], gChtRDC_RATE[nOption], gChtRDC_RATE[nOption], gChtRDC_RATE[nOption], gChtRDC_RATE[nOption],
; 342  : 			pChartBInput->lOpen, pChartBInput->lHigh, pChartBInput->lLow,
; 343  : 			pChartBInput->lPreHigh, pChartBInput->lPreOpen, pChartBInput->lPreprice, pChartBInput->lPreLow);
; 344  : 	} 
; 345  : 
; 346  : 	//  
; 347  : 	if (pChartBInput->sTerm[0] == '0')	//(0:/1:/2:/3:/4:/6:)

  0014e	8a 46 7c	 mov	 al, BYTE PTR [esi+124]
  00151	3c 30		 cmp	 al, 48			; 00000030H
  00153	0f 85 24 02 00
	00		 jne	 $LN13@MakeChtBoj

; 348  :     	sprintf(lsBojo, "####UM=%c@UD=5@UT=%ld@RDATET=DDHHMMSS@RESETUSEREAL=1@%s@CB=_Close_:0|@SCD=%ld@", lcChtAE, pChartBInput->lTick, lsBMrk, pChartBInput->lFirstClose);

  00159	ff b6 a4 00 00
	00		 push	 DWORD PTR [esi+164]
  0015f	8d 85 5c fc ff
	ff		 lea	 eax, DWORD PTR _lsBMrk$[ebp]
  00165	50		 push	 eax
  00166	ff 76 78	 push	 DWORD PTR [esi+120]
  00169	33 c0		 xor	 eax, eax
  0016b	80 fb 31	 cmp	 bl, 49			; 00000031H
  0016e	0f 95 c0	 setne	 al
  00171	8d 04 85 41 00
	00 00		 lea	 eax, DWORD PTR [eax*4+65]
  00178	50		 push	 eax
  00179	68 00 00 00 00	 push	 OFFSET ??_C@_0EP@KAFACABJ@?$CD?$CD?$CD?$CDUM?$DN?$CFc?$EAUD?$DN5?$EAUT?$DN?$CFld?$EARDATET?$DNDD@
  0017e	e9 9d 03 00 00	 jmp	 $LN56@MakeChtBoj
$LN4@MakeChtBoj:

; 281  : 	else	 lsrecprice   = pChartBInput->lPrice;
; 282  : 
; 283  : 	pChartBInput->nMarket = 1; //    .

  00183	8b 96 80 00 00
	00		 mov	 edx, DWORD PTR [esi+128]
  00189	8b cf		 mov	 ecx, edi
  0018b	89 8d 34 f9 ff
	ff		 mov	 DWORD PTR tv907[ebp], ecx

; 284  : 
; 285  : 	//	 : 0-, 1-, 2-, 3-, 4-_Open_
; 286  : 	if(pChartBInput->sDataType[0] == '0')

  00191	3c 30		 cmp	 al, 48			; 00000030H
  00193	75 61		 jne	 SHORT $LN6@MakeChtBoj

; 287  : 	{
; 288  : 		sprintf(lsBMrk, "BOUNDMARK=:%ld,%ld:%.6s:1:%s:%c@PREVPRICE=_Close_:%s|_Volume_:%s|_VolumeAmount_:%s@OHL=:%ld:%ld:%ld@PREVPRICE2=%ld:%ld:%ld:%ld@",

  00195	ff b6 b0 00 00
	00		 push	 DWORD PTR [esi+176]
  0019b	8d 46 68	 lea	 eax, DWORD PTR [esi+104]
  0019e	ff b6 9c 00 00
	00		 push	 DWORD PTR [esi+156]
  001a4	ff b6 a8 00 00
	00		 push	 DWORD PTR [esi+168]
  001aa	ff b6 ac 00 00
	00		 push	 DWORD PTR [esi+172]
  001b0	ff b6 98 00 00
	00		 push	 DWORD PTR [esi+152]
  001b6	ff b6 94 00 00
	00		 push	 DWORD PTR [esi+148]
  001bc	ff b6 90 00 00
	00		 push	 DWORD PTR [esi+144]
  001c2	ff 76 58	 push	 DWORD PTR [esi+88]
  001c5	ff 76 20	 push	 DWORD PTR [esi+32]
  001c8	ff 76 38	 push	 DWORD PTR [esi+56]
  001cb	6a 31		 push	 49			; 00000031H
  001cd	ff 76 38	 push	 DWORD PTR [esi+56]
  001d0	50		 push	 eax
  001d1	ff b6 8c 00 00
	00		 push	 DWORD PTR [esi+140]
  001d7	8d 85 5c fc ff
	ff		 lea	 eax, DWORD PTR _lsBMrk$[ebp]
  001dd	ff b6 88 00 00
	00		 push	 DWORD PTR [esi+136]
  001e3	68 00 00 00 00	 push	 OFFSET ??_C@_0II@OOILGDEE@BOUNDMARK?$DN?$LA?$KB?$LA?$NN?B?w?F?$KO?3?$CFld?0?$CFld?3?$CF?46s@
  001e8	50		 push	 eax
  001e9	e8 00 00 00 00	 call	 _sprintf
  001ee	83 c4 44	 add	 esp, 68			; 00000044H

; 289  : 						pChartBInput->lUpLmtPrice, 
; 290  : 						pChartBInput->lDnLmtPrice, 
; 291  : 						pChartBInput->sShcode, 
; 292  : 						pChartBInput->m_sPreprice, //lsrecprice,
; 293  : 						'1', 
; 294  : 						pChartBInput->m_sPreprice, 
; 295  : 						pChartBInput->m_sVolume,
; 296  : 						pChartBInput->m_sVolAmt, //[A00000651][A00000652].
; 297  : 						pChartBInput->lOpen, pChartBInput->lHigh, pChartBInput->lLow,
; 298  : 						pChartBInput->lPreHigh, pChartBInput->lPreOpen, pChartBInput->lPreprice, pChartBInput->lPreLow);
; 299  : 	} 

  001f1	e9 58 ff ff ff	 jmp	 $LN9@MakeChtBoj
$LN6@MakeChtBoj:

; 300  : 	else if(pChartBInput->sDataType[0] == '2')

  001f6	3c 32		 cmp	 al, 50			; 00000032H
  001f8	0f 85 85 fe ff
	ff		 jne	 $LN8@MakeChtBoj

; 301  : 	{
; 302  :         if (pChartBInput->lPrice == 0x00 || pChartBInput->lPrice == 0)

  001fe	83 be 80 00 00
	00 00		 cmp	 DWORD PTR [esi+128], 0
  00205	8d 7e 68	 lea	 edi, DWORD PTR [esi+104]
  00208	0f 84 e7 00 00
	00		 je	 $LN12@MakeChtBoj

; 305  :                     (double)0,
; 306  :                     (double)0,
; 307  :                     pChartBInput->sShcode,
; 308  :                     (double)0, (0*gChRATE_DATA[nOption]),
; 309  :                     (double)0,
; 310  : 					pChartBInput->m_sVolume,
; 311  : 					pChartBInput->m_sVolAmt, //[A00000651][A00000652].
; 312  : 					gChtTDC_RATE[nOption], gChtTDC_RATE[nOption], gChtTDC_RATE[nOption], gChtTDC_RATE[nOption], gChtRDC_RATE[nOption], gChtRDC_RATE[nOption], gChtRDC_RATE[nOption], gChtRDC_RATE[nOption],
; 313  :                     (long)pChartBInput->lOpen, (long)pChartBInput->lHigh, (long)pChartBInput->lLow,
; 314  : 					pChartBInput->lPreHigh, pChartBInput->lPreOpen, pChartBInput->lPreprice, pChartBInput->lPreLow);
; 315  :         }
; 316  :         else
; 317  :         {
; 318  : 		    sprintf(lsBMrk, "BOUNDMARK=:%.2f,%.2f:%.6s:1:%.2f:2@ER=%.0f:3:_Close_,@PREVPRICE=_Close_:%.2f|_Volume_:%s|_VolumeAmount_:%s@TDC=%s:_Open_,|%s:_High_,|%s:_Low_,|%s:_Close_,@RDC=%s:3:_Open_,|%s:3:_High_,|%s:3:_Low_,|%s:3:_Close_,@OHL=:%ld:%ld:%ld@", 

  0020e	66 0f 6e 86 98
	00 00 00	 movd	 xmm0, DWORD PTR [esi+152]
  00216	f2 0f 10 15 00
	00 00 00	 movsd	 xmm2, QWORD PTR __real@4059000000000000
  0021e	f3 0f e6 c0	 cvtdq2pd xmm0, xmm0
  00222	8b 85 38 f9 ff
	ff		 mov	 eax, DWORD PTR tv892[ebp]
  00228	8b 0c 85 00 00
	00 00		 mov	 ecx, DWORD PTR ?gChtRDC_RATE@@3PAPADA[eax*4]
  0022f	8b 14 85 00 00
	00 00		 mov	 edx, DWORD PTR ?gChtTDC_RATE@@3PAPADA[eax*4]
  00236	f2 0f 5e c2	 divsd	 xmm0, xmm2
  0023a	66 0f 6e 8e 9c
	00 00 00	 movd	 xmm1, DWORD PTR [esi+156]
  00242	f2 0f 2c c0	 cvttsd2si eax, xmm0
  00246	66 0f 6e 86 94
	00 00 00	 movd	 xmm0, DWORD PTR [esi+148]
  0024e	f3 0f e6 c0	 cvtdq2pd xmm0, xmm0
  00252	50		 push	 eax
  00253	f3 0f e6 c9	 cvtdq2pd xmm1, xmm1
  00257	f2 0f 5e c2	 divsd	 xmm0, xmm2
  0025b	f2 0f 5e ca	 divsd	 xmm1, xmm2
  0025f	f2 0f 2c c0	 cvttsd2si eax, xmm0
  00263	66 0f 6e 86 90
	00 00 00	 movd	 xmm0, DWORD PTR [esi+144]
  0026b	f3 0f e6 c0	 cvtdq2pd xmm0, xmm0
  0026f	50		 push	 eax
  00270	f2 0f 5e c2	 divsd	 xmm0, xmm2
  00274	f2 0f 2c c0	 cvttsd2si eax, xmm0
  00278	66 0f 6e 86 b8
	00 00 00	 movd	 xmm0, DWORD PTR [esi+184]
  00280	50		 push	 eax
  00281	51		 push	 ecx
  00282	51		 push	 ecx
  00283	51		 push	 ecx
  00284	51		 push	 ecx
  00285	52		 push	 edx
  00286	52		 push	 edx
  00287	52		 push	 edx
  00288	52		 push	 edx
  00289	ff 76 58	 push	 DWORD PTR [esi+88]
  0028c	f3 0f e6 c0	 cvtdq2pd xmm0, xmm0
  00290	8d 85 5c fc ff
	ff		 lea	 eax, DWORD PTR _lsBMrk$[ebp]
  00296	ff 76 20	 push	 DWORD PTR [esi+32]
  00299	83 ec 18	 sub	 esp, 24			; 00000018H
  0029c	f2 0f 11 4c 24
	10		 movsd	 QWORD PTR [esp+16], xmm1
  002a2	f2 0f 11 44 24
	08		 movsd	 QWORD PTR [esp+8], xmm0
  002a8	66 0f 6e 86 8c
	00 00 00	 movd	 xmm0, DWORD PTR [esi+140]
  002b0	f3 0f e6 c0	 cvtdq2pd xmm0, xmm0
  002b4	f2 0f 11 0c 24	 movsd	 QWORD PTR [esp], xmm1
  002b9	f2 0f 5e c2	 divsd	 xmm0, xmm2
  002bd	57		 push	 edi
  002be	83 ec 10	 sub	 esp, 16			; 00000010H
  002c1	f2 0f 11 44 24
	08		 movsd	 QWORD PTR [esp+8], xmm0
  002c7	66 0f 6e 86 88
	00 00 00	 movd	 xmm0, DWORD PTR [esi+136]
  002cf	f3 0f e6 c0	 cvtdq2pd xmm0, xmm0
  002d3	f2 0f 5e c2	 divsd	 xmm0, xmm2
  002d7	f2 0f 11 04 24	 movsd	 QWORD PTR [esp], xmm0
  002dc	68 00 00 00 00	 push	 OFFSET ??_C@_0ON@KHKHJFCL@BOUNDMARK?$DN?$LE?$NO?$LH?$KP?B?w?F?$KO?3?$CF?42f?0?$CF?42f?3?$CF?4@
  002e1	50		 push	 eax
  002e2	e8 00 00 00 00	 call	 _sprintf

; 319  :                     (double)(pChartBInput->lUpLmtPrice/100.0),
; 320  :                     (double)(pChartBInput->lDnLmtPrice/100.0),
; 321  :                     pChartBInput->sShcode,
; 322  :                     (double)(pChartBInput->lPreprice/100.0),
; 323  : 					(double)(pChartBInput->lWonDollar),
; 324  :                     (double)(pChartBInput->lPreprice/100.0),
; 325  : 					pChartBInput->m_sVolume,
; 326  : 					pChartBInput->m_sVolAmt, //[A00000651][A00000652].
; 327  : 					gChtTDC_RATE[nOption], gChtTDC_RATE[nOption], gChtTDC_RATE[nOption], gChtTDC_RATE[nOption], gChtRDC_RATE[nOption], gChtRDC_RATE[nOption], gChtRDC_RATE[nOption], gChtRDC_RATE[nOption],
; 328  :                     (long)(pChartBInput->lOpen/100.0), (long)(pChartBInput->lHigh/100.0), (long)(pChartBInput->lLow/100.0));
; 329  :         }
; 330  : 	}

  002e7	8b bd 34 f9 ff
	ff		 mov	 edi, DWORD PTR tv907[ebp]
  002ed	83 c4 68	 add	 esp, 104		; 00000068H
  002f0	e9 59 fe ff ff	 jmp	 $LN9@MakeChtBoj
$LN12@MakeChtBoj:

; 303  :         {
; 304  : 		    sprintf(lsBMrk, "BOUNDMARK=:%.2f,%.2f:%.6s:1:%.2f:2@ER=%.0f:3:_Close_,@PREVPRICE=_Close_:%.2f|_Volume_:%s|_VolumeAmount_:%s@TDC=%s:_Open_,|%s:_High_,|%s:_Low_,|%s:_Close_,@RDC=%s:3:_Open_,|%s:3:_High_,|%s:3:_Low_,|%s:3:_Close_,@OHL=:%ld:%ld:%ld@PREVPRICE2=%ld:%ld:%ld:%ld@", 

  002f5	ff b6 b0 00 00
	00		 push	 DWORD PTR [esi+176]
  002fb	8b 8d 38 f9 ff
	ff		 mov	 ecx, DWORD PTR tv892[ebp]
  00301	0f 57 c0	 xorps	 xmm0, xmm0
  00304	ff b6 9c 00 00
	00		 push	 DWORD PTR [esi+156]
  0030a	ff b6 a8 00 00
	00		 push	 DWORD PTR [esi+168]
  00310	8b 04 8d 00 00
	00 00		 mov	 eax, DWORD PTR ?gChtRDC_RATE@@3PAPADA[ecx*4]
  00317	ff b6 ac 00 00
	00		 push	 DWORD PTR [esi+172]
  0031d	8b 0c 8d 00 00
	00 00		 mov	 ecx, DWORD PTR ?gChtTDC_RATE@@3PAPADA[ecx*4]
  00324	ff b6 98 00 00
	00		 push	 DWORD PTR [esi+152]
  0032a	ff b6 94 00 00
	00		 push	 DWORD PTR [esi+148]
  00330	ff b6 90 00 00
	00		 push	 DWORD PTR [esi+144]
  00336	50		 push	 eax
  00337	50		 push	 eax
  00338	50		 push	 eax
  00339	50		 push	 eax
  0033a	51		 push	 ecx
  0033b	51		 push	 ecx
  0033c	51		 push	 ecx
  0033d	51		 push	 ecx
  0033e	ff 76 58	 push	 DWORD PTR [esi+88]
  00341	8d 85 5c fc ff
	ff		 lea	 eax, DWORD PTR _lsBMrk$[ebp]
  00347	ff 76 20	 push	 DWORD PTR [esi+32]
  0034a	83 ec 08	 sub	 esp, 8
  0034d	f2 0f 11 04 24	 movsd	 QWORD PTR [esp], xmm0
  00352	6a 00		 push	 0
  00354	83 ec 08	 sub	 esp, 8
  00357	f2 0f 11 04 24	 movsd	 QWORD PTR [esp], xmm0
  0035c	57		 push	 edi
  0035d	83 ec 10	 sub	 esp, 16			; 00000010H
  00360	0f 11 04 24	 movups	 XMMWORD PTR [esp], xmm0
  00364	68 00 00 00 00	 push	 OFFSET ??_C@_0BAI@EAMGALPA@BOUNDMARK?$DN?$LE?$NO?$LH?$KP?B?w?F?$KO?3?$CF?42f?0?$CF?42f?3?$CF?4@
  00369	50		 push	 eax
  0036a	e8 00 00 00 00	 call	 _sprintf

; 319  :                     (double)(pChartBInput->lUpLmtPrice/100.0),
; 320  :                     (double)(pChartBInput->lDnLmtPrice/100.0),
; 321  :                     pChartBInput->sShcode,
; 322  :                     (double)(pChartBInput->lPreprice/100.0),
; 323  : 					(double)(pChartBInput->lWonDollar),
; 324  :                     (double)(pChartBInput->lPreprice/100.0),
; 325  : 					pChartBInput->m_sVolume,
; 326  : 					pChartBInput->m_sVolAmt, //[A00000651][A00000652].
; 327  : 					gChtTDC_RATE[nOption], gChtTDC_RATE[nOption], gChtTDC_RATE[nOption], gChtTDC_RATE[nOption], gChtRDC_RATE[nOption], gChtRDC_RATE[nOption], gChtRDC_RATE[nOption], gChtRDC_RATE[nOption],
; 328  :                     (long)(pChartBInput->lOpen/100.0), (long)(pChartBInput->lHigh/100.0), (long)(pChartBInput->lLow/100.0));
; 329  :         }
; 330  : 	}

  0036f	8b bd 34 f9 ff
	ff		 mov	 edi, DWORD PTR tv907[ebp]
  00375	83 c4 74	 add	 esp, 116		; 00000074H
  00378	e9 d1 fd ff ff	 jmp	 $LN9@MakeChtBoj
$LN13@MakeChtBoj:

; 349  : 	else if (pChartBInput->sTerm[0] == '1' )

  0037d	3c 31		 cmp	 al, 49			; 00000031H
  0037f	75 2a		 jne	 SHORT $LN15@MakeChtBoj

; 350  : 		sprintf(lsBojo, "####UM=%c@UD=4@UT=%ld@RDATET=MMDDHHMM@RESETUSEREAL=1@%s@CB=_Close_:0|@SCD=%ld@", lcChtAE, pChartBInput->lTick, lsBMrk, pChartBInput->lFirstClose);

  00381	ff b6 a4 00 00
	00		 push	 DWORD PTR [esi+164]
  00387	8d 85 5c fc ff
	ff		 lea	 eax, DWORD PTR _lsBMrk$[ebp]
  0038d	50		 push	 eax
  0038e	ff 76 78	 push	 DWORD PTR [esi+120]
  00391	33 c0		 xor	 eax, eax
  00393	80 fb 31	 cmp	 bl, 49			; 00000031H
  00396	0f 95 c0	 setne	 al
  00399	8d 04 85 41 00
	00 00		 lea	 eax, DWORD PTR [eax*4+65]
  003a0	50		 push	 eax
  003a1	68 00 00 00 00	 push	 OFFSET ??_C@_0EP@OOAAPMPD@?$CD?$CD?$CD?$CDUM?$DN?$CFc?$EAUD?$DN4?$EAUT?$DN?$CFld?$EARDATET?$DNMM@
  003a6	e9 75 01 00 00	 jmp	 $LN56@MakeChtBoj
$LN15@MakeChtBoj:

; 351  : 	else if (pChartBInput->sTerm[0] == '2')

  003ab	3c 32		 cmp	 al, 50			; 00000032H
  003ad	0f 85 a5 00 00
	00		 jne	 $LN17@MakeChtBoj

; 352  : 	{
; 353  : 		BOOL bMarket = pChartBInput->nMarket == 1 || pChartBInput->nMarket == 2 || pChartBInput->nMarket == 3 ;

  003b3	8b 07		 mov	 eax, DWORD PTR [edi]
  003b5	83 f8 01	 cmp	 eax, 1
  003b8	74 0a		 je	 SHORT $LN31@MakeChtBoj
  003ba	83 f8 02	 cmp	 eax, 2
  003bd	74 05		 je	 SHORT $LN31@MakeChtBoj
  003bf	83 f8 03	 cmp	 eax, 3
  003c2	75 5e		 jne	 SHORT $LN19@MakeChtBoj
$LN31@MakeChtBoj:
; File C:\Program Files (x86)\Microsoft Visual Studio\2019\Community\VC\Tools\MSVC\14.29.30133\atlmfc\include\atlsimpstr.h

; 533  : 		return( GetLength() == 0 );

  003c4	8b 46 40	 mov	 eax, DWORD PTR [esi+64]
  003c7	83 78 f4 00	 cmp	 DWORD PTR [eax-12], 0
; File D:\git\src\IBK\IBK_DRFN\ProjSrc\SrcDrfn\DrCommon\PartnerMng\_ChartBozoManager.cpp

; 355  :         if (bMarket && pChartBInput->m_sStartTime.IsEmpty()==FALSE)

  003cb	74 55		 je	 SHORT $LN19@MakeChtBoj

; 356  :         {
; 357  :             sprintf(lsRelpsa, "RELPSA=%.6s:%.6s", pChartBInput->m_sStartTime, pChartBInput->sShcode);

  003cd	8d 46 68	 lea	 eax, DWORD PTR [esi+104]
  003d0	50		 push	 eax
  003d1	ff 76 40	 push	 DWORD PTR [esi+64]
  003d4	8d 85 7c ff ff
	ff		 lea	 eax, DWORD PTR _lsRelpsa$[ebp]
  003da	68 00 00 00 00	 push	 OFFSET ??_C@_0BB@BNNNBIJD@RELPSA?$DN?$CF?46s?3?$CF?46s@
  003df	50		 push	 eax
  003e0	e8 00 00 00 00	 call	 _sprintf

; 358  :            	sprintf(lsBojo, "####UM=%c@UD=1@RDATET=YYYYMMDD@RESETUSEREAL=1@%s@%s@CB=_Close_:0|@SCD=%ld@", lcChtAE, lsBMrk, lsRelpsa, pChartBInput->lFirstClose);

  003e5	ff b6 a4 00 00
	00		 push	 DWORD PTR [esi+164]
  003eb	8d 85 7c ff ff
	ff		 lea	 eax, DWORD PTR _lsRelpsa$[ebp]
  003f1	50		 push	 eax
  003f2	8d 85 5c fc ff
	ff		 lea	 eax, DWORD PTR _lsBMrk$[ebp]
  003f8	50		 push	 eax
  003f9	33 c0		 xor	 eax, eax
  003fb	80 fb 31	 cmp	 bl, 49			; 00000031H
  003fe	0f 95 c0	 setne	 al
  00401	8d 04 85 41 00
	00 00		 lea	 eax, DWORD PTR [eax*4+65]
  00408	50		 push	 eax
  00409	8d 85 3c f9 ff
	ff		 lea	 eax, DWORD PTR _lsBojo$[ebp]
  0040f	68 00 00 00 00	 push	 OFFSET ??_C@_0EL@HGJGADMD@?$CD?$CD?$CD?$CDUM?$DN?$CFc?$EAUD?$DN1?$EARDATET?$DNYYYYMMDD?$EA@
  00414	50		 push	 eax
  00415	e8 00 00 00 00	 call	 _sprintf
  0041a	83 c4 28	 add	 esp, 40			; 00000028H

; 359  :         }

  0041d	e9 0d 01 00 00	 jmp	 $LN27@MakeChtBoj
$LN19@MakeChtBoj:

; 360  : 		else
; 361  :            	sprintf(lsBojo, "####UM=%c@UD=1@RDATET=YYYYMMDD@RESETUSEREAL=1@%s@CB=_Close_:0|@SCD=%ld@", lcChtAE, lsBMrk, pChartBInput->lFirstClose);

  00422	ff b6 a4 00 00
	00		 push	 DWORD PTR [esi+164]
  00428	8d 85 5c fc ff
	ff		 lea	 eax, DWORD PTR _lsBMrk$[ebp]
  0042e	50		 push	 eax
  0042f	33 c0		 xor	 eax, eax
  00431	80 fb 31	 cmp	 bl, 49			; 00000031H
  00434	0f 95 c0	 setne	 al
  00437	8d 04 85 41 00
	00 00		 lea	 eax, DWORD PTR [eax*4+65]
  0043e	50		 push	 eax
  0043f	8d 85 3c f9 ff
	ff		 lea	 eax, DWORD PTR _lsBojo$[ebp]
  00445	68 00 00 00 00	 push	 OFFSET ??_C@_0EI@CBJPMLJE@?$CD?$CD?$CD?$CDUM?$DN?$CFc?$EAUD?$DN1?$EARDATET?$DNYYYYMMDD?$EA@
  0044a	50		 push	 eax
  0044b	e8 00 00 00 00	 call	 _sprintf
  00450	83 c4 14	 add	 esp, 20			; 00000014H

; 362  : 	}

  00453	e9 d7 00 00 00	 jmp	 $LN27@MakeChtBoj
$LN17@MakeChtBoj:

; 363  : 	else if (pChartBInput->sTerm[0] == '3')

  00458	3c 33		 cmp	 al, 51			; 00000033H
  0045a	75 36		 jne	 SHORT $LN21@MakeChtBoj

; 364  : 		sprintf(lsBojo, "####UM=%c@UD=2@RDATET=YYYYMMDD@RESETUSEREAL=1@%s@@CB=_Close_:0|@SCD=%ld@", lcChtAE, lsBMrk, pChartBInput->lFirstClose);

  0045c	ff b6 a4 00 00
	00		 push	 DWORD PTR [esi+164]
  00462	8d 85 5c fc ff
	ff		 lea	 eax, DWORD PTR _lsBMrk$[ebp]
  00468	50		 push	 eax
  00469	33 c0		 xor	 eax, eax
  0046b	80 fb 31	 cmp	 bl, 49			; 00000031H
  0046e	0f 95 c0	 setne	 al
  00471	8d 04 85 41 00
	00 00		 lea	 eax, DWORD PTR [eax*4+65]
  00478	50		 push	 eax
  00479	8d 85 3c f9 ff
	ff		 lea	 eax, DWORD PTR _lsBojo$[ebp]
  0047f	68 00 00 00 00	 push	 OFFSET ??_C@_0EJ@KGPLDGKH@?$CD?$CD?$CD?$CDUM?$DN?$CFc?$EAUD?$DN2?$EARDATET?$DNYYYYMMDD?$EA@
  00484	50		 push	 eax
  00485	e8 00 00 00 00	 call	 _sprintf
  0048a	83 c4 14	 add	 esp, 20			; 00000014H
  0048d	e9 9d 00 00 00	 jmp	 $LN27@MakeChtBoj
$LN21@MakeChtBoj:

; 365  : 	else if (pChartBInput->sTerm[0] == '4')

  00492	3c 34		 cmp	 al, 52			; 00000034H
  00494	75 33		 jne	 SHORT $LN23@MakeChtBoj

; 366  : 		sprintf(lsBojo, "####UM=%c@UD=3@RDATET=YYYYMM@RESETUSEREAL=1@%s@@CB=_Close_:0|@SCD=%ld@", lcChtAE, lsBMrk, pChartBInput->lFirstClose);

  00496	ff b6 a4 00 00
	00		 push	 DWORD PTR [esi+164]
  0049c	8d 85 5c fc ff
	ff		 lea	 eax, DWORD PTR _lsBMrk$[ebp]
  004a2	50		 push	 eax
  004a3	33 c0		 xor	 eax, eax
  004a5	80 fb 31	 cmp	 bl, 49			; 00000031H
  004a8	0f 95 c0	 setne	 al
  004ab	8d 04 85 41 00
	00 00		 lea	 eax, DWORD PTR [eax*4+65]
  004b2	50		 push	 eax
  004b3	8d 85 3c f9 ff
	ff		 lea	 eax, DWORD PTR _lsBojo$[ebp]
  004b9	68 00 00 00 00	 push	 OFFSET ??_C@_0EH@KKDEEOPA@?$CD?$CD?$CD?$CDUM?$DN?$CFc?$EAUD?$DN3?$EARDATET?$DNYYYYMM?$EARE@
  004be	50		 push	 eax
  004bf	e8 00 00 00 00	 call	 _sprintf
  004c4	83 c4 14	 add	 esp, 20			; 00000014H
  004c7	eb 66		 jmp	 SHORT $LN27@MakeChtBoj
$LN23@MakeChtBoj:

; 367  : 	else if (pChartBInput->sTerm[0] == '5')

  004c9	3c 35		 cmp	 al, 53			; 00000035H
  004cb	75 2a		 jne	 SHORT $LN25@MakeChtBoj

; 368  : 		sprintf(lsBojo, "####UM=%c@UD=3@RDATET=YYYYMM@RESETUSEREAL=1@%s@@CB=_Close_:0|@SCD=%ld@DATE=%s@", lcChtAE, lsBMrk, pChartBInput->lFirstClose, pChartBInput->m_sLastDataTime);

  004cd	ff b6 c0 00 00
	00		 push	 DWORD PTR [esi+192]
  004d3	8d 85 5c fc ff
	ff		 lea	 eax, DWORD PTR _lsBMrk$[ebp]
  004d9	ff b6 a4 00 00
	00		 push	 DWORD PTR [esi+164]
  004df	50		 push	 eax
  004e0	33 c0		 xor	 eax, eax
  004e2	80 fb 31	 cmp	 bl, 49			; 00000031H
  004e5	0f 95 c0	 setne	 al
  004e8	8d 04 85 41 00
	00 00		 lea	 eax, DWORD PTR [eax*4+65]
  004ef	50		 push	 eax
  004f0	68 00 00 00 00	 push	 OFFSET ??_C@_0EP@MIPGKENG@?$CD?$CD?$CD?$CDUM?$DN?$CFc?$EAUD?$DN3?$EARDATET?$DNYYYYMM?$EARE@
  004f5	eb 29		 jmp	 SHORT $LN56@MakeChtBoj
$LN25@MakeChtBoj:

; 369  : 	else if (pChartBInput->sTerm[0] == '6')

  004f7	3c 36		 cmp	 al, 54			; 00000036H
  004f9	75 34		 jne	 SHORT $LN27@MakeChtBoj

; 370  :     	sprintf(lsBojo, "####UM=%c@UD=4@UT=%ld@RDATET=DDHHMMSS@RESETUSEREAL=1@%s@CB=_Close_:0|@SCD=%ld@", lcChtAE, pChartBInput->lTick, lsBMrk, pChartBInput->lFirstClose);

  004fb	ff b6 a4 00 00
	00		 push	 DWORD PTR [esi+164]
  00501	8d 85 5c fc ff
	ff		 lea	 eax, DWORD PTR _lsBMrk$[ebp]
  00507	50		 push	 eax
  00508	ff 76 78	 push	 DWORD PTR [esi+120]
  0050b	33 c0		 xor	 eax, eax
  0050d	80 fb 31	 cmp	 bl, 49			; 00000031H
  00510	0f 95 c0	 setne	 al
  00513	8d 04 85 41 00
	00 00		 lea	 eax, DWORD PTR [eax*4+65]
  0051a	50		 push	 eax
  0051b	68 00 00 00 00	 push	 OFFSET ??_C@_0EP@OJLJINAG@?$CD?$CD?$CD?$CDUM?$DN?$CFc?$EAUD?$DN4?$EAUT?$DN?$CFld?$EARDATET?$DNDD@
$LN56@MakeChtBoj:

; 371  : 
; 372  : 	rString = lsBojo;

  00520	8d 85 3c f9 ff
	ff		 lea	 eax, DWORD PTR _lsBojo$[ebp]
  00526	50		 push	 eax
  00527	e8 00 00 00 00	 call	 _sprintf
  0052c	83 c4 18	 add	 esp, 24			; 00000018H
$LN27@MakeChtBoj:
  0052f	8b 9d 30 f9 ff
	ff		 mov	 ebx, DWORD PTR _rString$GSCopy$1$[ebp]
  00535	8d 85 3c f9 ff
	ff		 lea	 eax, DWORD PTR _lsBojo$[ebp]
  0053b	50		 push	 eax
  0053c	8b cb		 mov	 ecx, ebx
  0053e	ff 15 00 00 00
	00		 call	 DWORD PTR __imp_??4?$CStringT@DV?$StrTraitMFC_DLL@DV?$ChTraitsCRT@D@ATL@@@@@ATL@@QAEAAV01@PBD@Z

; 373  : 
; 374  : 	CString szTmpExt;

  00544	8d 8d 38 f9 ff
	ff		 lea	 ecx, DWORD PTR _szTmpExt$[ebp]
  0054a	ff 15 00 00 00
	00		 call	 DWORD PTR __imp_??0?$CStringT@DV?$StrTraitMFC_DLL@DV?$ChTraitsCRT@D@ATL@@@@@ATL@@QAE@XZ
; File C:\Program Files (x86)\Microsoft Visual Studio\2019\Community\VC\Tools\MSVC\14.29.30133\atlmfc\include\atlsimpstr.h

; 533  : 		return( GetLength() == 0 );

  00550	8b 46 60	 mov	 eax, DWORD PTR [esi+96]
; File D:\git\src\IBK\IBK_DRFN\ProjSrc\SrcDrfn\DrCommon\PartnerMng\_ChartBozoManager.cpp

; 375  : 	if(pChartBInput->m_szMarketTime.IsEmpty()==FALSE)

  00553	8b 3d 00 00 00
	00		 mov	 edi, DWORD PTR __imp_?Format@?$CStringT@DV?$StrTraitMFC_DLL@DV?$ChTraitsCRT@D@ATL@@@@@ATL@@QAAXPBDZZ
; File C:\Program Files (x86)\Microsoft Visual Studio\2019\Community\VC\Tools\MSVC\14.29.30133\atlmfc\include\atlsimpstr.h

; 533  : 		return( GetLength() == 0 );

  00559	83 78 f4 00	 cmp	 DWORD PTR [eax-12], 0
; File D:\git\src\IBK\IBK_DRFN\ProjSrc\SrcDrfn\DrCommon\PartnerMng\_ChartBozoManager.cpp

; 375  : 	if(pChartBInput->m_szMarketTime.IsEmpty()==FALSE)

  0055d	74 21		 je	 SHORT $LN28@MakeChtBoj

; 376  : 	{
; 377  : 		szTmpExt.Format("MARKETTIME=%s@", pChartBInput->m_szMarketTime);

  0055f	50		 push	 eax
  00560	8d 85 38 f9 ff
	ff		 lea	 eax, DWORD PTR _szTmpExt$[ebp]
  00566	68 00 00 00 00	 push	 OFFSET ??_C@_0P@PGBOBNFI@MARKETTIME?$DN?$CFs?$EA@
  0056b	50		 push	 eax
  0056c	ff d7		 call	 edi
  0056e	83 c4 0c	 add	 esp, 12			; 0000000cH

; 378  : 		rString += szTmpExt;

  00571	8d 85 38 f9 ff
	ff		 lea	 eax, DWORD PTR _szTmpExt$[ebp]
  00577	8b cb		 mov	 ecx, ebx
  00579	50		 push	 eax
  0057a	ff 15 00 00 00
	00		 call	 DWORD PTR __imp_??Y?$CStringT@DV?$StrTraitMFC_DLL@DV?$ChTraitsCRT@D@ATL@@@@@ATL@@QAEAAV01@ABV?$CSimpleStringT@D$00@1@@Z
$LN28@MakeChtBoj:
; File C:\Program Files (x86)\Microsoft Visual Studio\2019\Community\VC\Tools\MSVC\14.29.30133\atlmfc\include\atlsimpstr.h

; 533  : 		return( GetLength() == 0 );

  00580	8b 46 64	 mov	 eax, DWORD PTR [esi+100]
  00583	83 78 f4 00	 cmp	 DWORD PTR [eax-12], 0
; File D:\git\src\IBK\IBK_DRFN\ProjSrc\SrcDrfn\DrCommon\PartnerMng\_ChartBozoManager.cpp

; 381  : 	if(pChartBInput->m_szBaseTime.IsEmpty()==FALSE)

  00587	74 21		 je	 SHORT $LN29@MakeChtBoj

; 382  : 	{
; 383  : 		szTmpExt.Format("BASETIME=%s@", pChartBInput->m_szBaseTime);

  00589	50		 push	 eax
  0058a	8d 85 38 f9 ff
	ff		 lea	 eax, DWORD PTR _szTmpExt$[ebp]
  00590	68 00 00 00 00	 push	 OFFSET ??_C@_0N@BEOFONCO@BASETIME?$DN?$CFs?$EA@
  00595	50		 push	 eax
  00596	ff d7		 call	 edi
  00598	83 c4 0c	 add	 esp, 12			; 0000000cH

; 384  : 		rString += szTmpExt;		

  0059b	8d 85 38 f9 ff
	ff		 lea	 eax, DWORD PTR _szTmpExt$[ebp]
  005a1	8b cb		 mov	 ecx, ebx
  005a3	50		 push	 eax
  005a4	ff 15 00 00 00
	00		 call	 DWORD PTR __imp_??Y?$CStringT@DV?$StrTraitMFC_DLL@DV?$ChTraitsCRT@D@ATL@@@@@ATL@@QAEAAV01@ABV?$CSimpleStringT@D$00@1@@Z
$LN29@MakeChtBoj:

; 385  : 	}
; 386  : 
; 387  : 	// 20130222  :      .(   )
; 388  : 	szTmpExt.Format("DATATIME=%s@", pChartBInput->m_sLastDataTime);

  005aa	ff b6 c0 00 00
	00		 push	 DWORD PTR [esi+192]
  005b0	8d 85 38 f9 ff
	ff		 lea	 eax, DWORD PTR _szTmpExt$[ebp]
  005b6	68 00 00 00 00	 push	 OFFSET ??_C@_0N@JENAIHAK@DATATIME?$DN?$CFs?$EA@
  005bb	50		 push	 eax
  005bc	ff d7		 call	 edi
  005be	83 c4 0c	 add	 esp, 12			; 0000000cH

; 389  : 	rString += szTmpExt;		

  005c1	8d 85 38 f9 ff
	ff		 lea	 eax, DWORD PTR _szTmpExt$[ebp]
  005c7	8b cb		 mov	 ecx, ebx
  005c9	50		 push	 eax
  005ca	ff 15 00 00 00
	00		 call	 DWORD PTR __imp_??Y?$CStringT@DV?$StrTraitMFC_DLL@DV?$ChTraitsCRT@D@ATL@@@@@ATL@@QAEAAV01@ABV?$CSimpleStringT@D$00@1@@Z
; File C:\Program Files (x86)\Microsoft Visual Studio\2019\Community\VC\Tools\MSVC\14.29.30133\atlmfc\include\atlsimpstr.h

; 519  : 		return( GetData()->nDataLength );

  005d0	8b 03		 mov	 eax, DWORD PTR [ebx]
; File D:\git\src\IBK\IBK_DRFN\ProjSrc\SrcDrfn\DrCommon\PartnerMng\_ChartBozoManager.cpp

; 391  :     return rString.GetLength();

  005d2	8d 8d 38 f9 ff
	ff		 lea	 ecx, DWORD PTR _szTmpExt$[ebp]
; File C:\Program Files (x86)\Microsoft Visual Studio\2019\Community\VC\Tools\MSVC\14.29.30133\atlmfc\include\atlsimpstr.h

; 519  : 		return( GetData()->nDataLength );

  005d8	8b 70 f4	 mov	 esi, DWORD PTR [eax-12]
; File D:\git\src\IBK\IBK_DRFN\ProjSrc\SrcDrfn\DrCommon\PartnerMng\_ChartBozoManager.cpp

; 391  :     return rString.GetLength();

  005db	ff 15 00 00 00
	00		 call	 DWORD PTR __imp_??1?$CStringT@DV?$StrTraitMFC_DLL@DV?$ChTraitsCRT@D@ATL@@@@@ATL@@QAE@XZ

; 392  : }

  005e1	8b 4d fc	 mov	 ecx, DWORD PTR __$ArrayPad$[ebp]
  005e4	8b c6		 mov	 eax, esi
  005e6	5f		 pop	 edi
  005e7	5e		 pop	 esi
  005e8	33 cd		 xor	 ecx, ebp
  005ea	5b		 pop	 ebx
  005eb	e8 00 00 00 00	 call	 @__security_check_cookie@4
  005f0	8b e5		 mov	 esp, ebp
  005f2	5d		 pop	 ebp
  005f3	c2 10 00	 ret	 16			; 00000010H
?MakeChtBojo_ctstk@CChartBozoManager@@UAGHPAVCChartBozoInput@@AAV?$CStringT@DV?$StrTraitMFC_DLL@DV?$ChTraitsCRT@D@ATL@@@@@ATL@@H@Z ENDP ; CChartBozoManager::MakeChtBojo_ctstk
_TEXT	ENDS
; Function compile flags: /Ogtp
; File D:\git\src\IBK\IBK_DRFN\ProjSrc\SrcDrfn\DrCommon\PartnerMng\_ChartBozoManager.cpp
;	COMDAT ?GetTrType@CChartBozoManager@@UAGHPBD@Z
_TEXT	SEGMENT
_this$ = 8						; size = 4
_szTrName$ = 12						; size = 4
?GetTrType@CChartBozoManager@@UAGHPBD@Z PROC		; CChartBozoManager::GetTrType, COMDAT

; 261  : 	return CMasterTypeInfo::NONE_CHART;

  00000	b8 ff 00 00 00	 mov	 eax, 255		; 000000ffH

; 262  : }

  00005	c2 08 00	 ret	 8
?GetTrType@CChartBozoManager@@UAGHPBD@Z ENDP		; CChartBozoManager::GetTrType
_TEXT	ENDS
; Function compile flags: /Ogtp
; File D:\git\src\IBK\IBK_DRFN\ProjSrc\SrcDrfn\DrCommon\PartnerMng\_ChartBozoManager.cpp
;	COMDAT ?GetFidType@CChartBozoManager@@UAGHH@Z
_TEXT	SEGMENT
_this$ = 8						; size = 4
_nFIDMajor$ = 12					; size = 4
?GetFidType@CChartBozoManager@@UAGHH@Z PROC		; CChartBozoManager::GetFidType, COMDAT

; 214  : {

  00000	55		 push	 ebp
  00001	8b ec		 mov	 ebp, esp

; 215  : 	if (nFIDMajor <= 0)

  00003	8b 45 0c	 mov	 eax, DWORD PTR _nFIDMajor$[ebp]
  00006	85 c0		 test	 eax, eax
  00008	7e 7c		 jle	 SHORT $LN21@GetFidType

; 216  : 		return CMasterTypeInfo::NONE_CHART;
; 217  : 
; 218  : 	if (nFIDMajor < 20)

  0000a	83 f8 14	 cmp	 eax, 20			; 00000014H
  0000d	7c 71		 jl	 SHORT $LN11@GetFidType

; 219  : 		return CMasterTypeInfo::STOCK_CHART;
; 220  : 	else if (nFIDMajor < 30)

  0000f	83 f8 1e	 cmp	 eax, 30			; 0000001eH
  00012	7c 63		 jl	 SHORT $LN12@GetFidType

; 221  : 		return CMasterTypeInfo::UPJONG_CHART;
; 222  : 	else if (nFIDMajor < 40)

  00014	83 f8 28	 cmp	 eax, 40			; 00000028H
  00017	7c 55		 jl	 SHORT $LN13@GetFidType

; 223  : 		return CMasterTypeInfo::FUTOPT_CHART;
; 224  : 	else
; 225  : 	{
; 226  : 		switch (nFIDMajor)

  00019	83 c0 9b	 add	 eax, -101		; ffffff9bH
  0001c	83 f8 21	 cmp	 eax, 33			; 00000021H
  0001f	77 65		 ja	 SHORT $LN21@GetFidType
  00021	0f b6 80 00 00
	00 00		 movzx	 eax, BYTE PTR $LN23@GetFidType[eax]
  00028	ff 24 85 00 00
	00 00		 jmp	 DWORD PTR $LN24@GetFidType[eax*4]
$LN14@GetFidType:

; 234  : 			case 104:
; 235  : 				return CMasterTypeInfo::FOREIGN_CHART;

  0002f	b8 04 00 00 00	 mov	 eax, 4

; 257  : }

  00034	5d		 pop	 ebp
  00035	c2 08 00	 ret	 8
$LN15@GetFidType:

; 236  : 			case 109:
; 237  : 				return CMasterTypeInfo::FUOPT_JIPYO_CHART;

  00038	b8 05 00 00 00	 mov	 eax, 5

; 257  : }

  0003d	5d		 pop	 ebp
  0003e	c2 08 00	 ret	 8
$LN16@GetFidType:

; 238  : 			case 133:
; 239  : 				return CMasterTypeInfo::MARKET_CHART;

  00041	b8 07 00 00 00	 mov	 eax, 7

; 257  : }

  00046	5d		 pop	 ebp
  00047	c2 08 00	 ret	 8
$LN17@GetFidType:

; 240  : 			case 134:
; 241  : 				return CMasterTypeInfo::STOCKFUTOPT_CHART;

  0004a	b8 03 00 00 00	 mov	 eax, 3

; 257  : }

  0004f	5d		 pop	 ebp
  00050	c2 08 00	 ret	 8
$LN18@GetFidType:

; 242  : 			case 111:
; 243  : 				return 111;

  00053	b8 6f 00 00 00	 mov	 eax, 111		; 0000006fH

; 257  : }

  00058	5d		 pop	 ebp
  00059	c2 08 00	 ret	 8
$LN19@GetFidType:

; 244  : 			//<<20100310_JS.Kim FX
; 245  : 			case 112:
; 246  : 				return CMasterTypeInfo::FX_CHART;

  0005c	b8 09 00 00 00	 mov	 eax, 9

; 257  : }

  00061	5d		 pop	 ebp
  00062	c2 08 00	 ret	 8
$LN20@GetFidType:

; 247  : 			//>>
; 248  : 			case 110:	//20110106 alzioyes CME
; 249  : 				return CMasterTypeInfo::CME_CHART;

  00065	b8 0a 00 00 00	 mov	 eax, 10			; 0000000aH

; 257  : }

  0006a	5d		 pop	 ebp
  0006b	c2 08 00	 ret	 8
$LN13@GetFidType:

; 232  : 			case 103:
; 233  : 				return CMasterTypeInfo::FUTOPT_CHART;

  0006e	b8 02 00 00 00	 mov	 eax, 2

; 257  : }

  00073	5d		 pop	 ebp
  00074	c2 08 00	 ret	 8
$LN12@GetFidType:

; 230  : 			case 102:
; 231  : 				return CMasterTypeInfo::UPJONG_CHART;

  00077	b8 01 00 00 00	 mov	 eax, 1

; 257  : }

  0007c	5d		 pop	 ebp
  0007d	c2 08 00	 ret	 8
$LN11@GetFidType:

; 227  : 		{
; 228  : 			case 101:
; 229  : 				return CMasterTypeInfo::STOCK_CHART;

  00080	33 c0		 xor	 eax, eax

; 257  : }

  00082	5d		 pop	 ebp
  00083	c2 08 00	 ret	 8
$LN21@GetFidType:

; 250  : 
; 251  : 			default:
; 252  : 				break;
; 253  : 		}
; 254  : 	}
; 255  : 
; 256  : 	return CMasterTypeInfo::NONE_CHART;

  00086	b8 ff 00 00 00	 mov	 eax, 255		; 000000ffH

; 257  : }

  0008b	5d		 pop	 ebp
  0008c	c2 08 00	 ret	 8
  0008f	90		 npad	 1
$LN24@GetFidType:
  00090	00 00 00 00	 DD	 $LN11@GetFidType
  00094	00 00 00 00	 DD	 $LN12@GetFidType
  00098	00 00 00 00	 DD	 $LN13@GetFidType
  0009c	00 00 00 00	 DD	 $LN14@GetFidType
  000a0	00 00 00 00	 DD	 $LN15@GetFidType
  000a4	00 00 00 00	 DD	 $LN20@GetFidType
  000a8	00 00 00 00	 DD	 $LN18@GetFidType
  000ac	00 00 00 00	 DD	 $LN19@GetFidType
  000b0	00 00 00 00	 DD	 $LN16@GetFidType
  000b4	00 00 00 00	 DD	 $LN17@GetFidType
  000b8	00 00 00 00	 DD	 $LN21@GetFidType
$LN23@GetFidType:
  000bc	00		 DB	 0
  000bd	01		 DB	 1
  000be	02		 DB	 2
  000bf	03		 DB	 3
  000c0	0a		 DB	 10			; 0000000aH
  000c1	0a		 DB	 10			; 0000000aH
  000c2	0a		 DB	 10			; 0000000aH
  000c3	0a		 DB	 10			; 0000000aH
  000c4	04		 DB	 4
  000c5	05		 DB	 5
  000c6	06		 DB	 6
  000c7	07		 DB	 7
  000c8	0a		 DB	 10			; 0000000aH
  000c9	0a		 DB	 10			; 0000000aH
  000ca	0a		 DB	 10			; 0000000aH
  000cb	0a		 DB	 10			; 0000000aH
  000cc	0a		 DB	 10			; 0000000aH
  000cd	0a		 DB	 10			; 0000000aH
  000ce	0a		 DB	 10			; 0000000aH
  000cf	0a		 DB	 10			; 0000000aH
  000d0	0a		 DB	 10			; 0000000aH
  000d1	0a		 DB	 10			; 0000000aH
  000d2	0a		 DB	 10			; 0000000aH
  000d3	0a		 DB	 10			; 0000000aH
  000d4	0a		 DB	 10			; 0000000aH
  000d5	0a		 DB	 10			; 0000000aH
  000d6	0a		 DB	 10			; 0000000aH
  000d7	0a		 DB	 10			; 0000000aH
  000d8	0a		 DB	 10			; 0000000aH
  000d9	0a		 DB	 10			; 0000000aH
  000da	0a		 DB	 10			; 0000000aH
  000db	0a		 DB	 10			; 0000000aH
  000dc	08		 DB	 8
  000dd	09		 DB	 9
?GetFidType@CChartBozoManager@@UAGHH@Z ENDP		; CChartBozoManager::GetFidType
_TEXT	ENDS
; Function compile flags: /Ogtp
; File D:\git\src\IBK\IBK_DRFN\ProjSrc\SrcDrfn\DrCommon\PartnerMng\_ChartBozoManager.cpp
;	COMDAT ?GetFidType@CChartBozoManager@@UAGHPBD@Z
_TEXT	SEGMENT
_this$ = 8						; size = 4
_szFIDMajor$ = 12					; size = 4
?GetFidType@CChartBozoManager@@UAGHPBD@Z PROC		; CChartBozoManager::GetFidType, COMDAT

; 208  : {

  00000	55		 push	 ebp
  00001	8b ec		 mov	 ebp, esp

; 209  : 	int nFidMajor = atoi(szFIDMajor);

  00003	ff 75 0c	 push	 DWORD PTR _szFIDMajor$[ebp]
  00006	ff 15 00 00 00
	00		 call	 DWORD PTR __imp__atoi

; 210  : 	return GetFidType(nFidMajor);

  0000c	8b 4d 08	 mov	 ecx, DWORD PTR _this$[ebp]
  0000f	83 c4 04	 add	 esp, 4
  00012	8b 11		 mov	 edx, DWORD PTR [ecx]
  00014	89 45 0c	 mov	 DWORD PTR _szFIDMajor$[ebp], eax
  00017	89 4d 08	 mov	 DWORD PTR _this$[ebp], ecx

; 211  : }

  0001a	5d		 pop	 ebp

; 210  : 	return GetFidType(nFidMajor);

  0001b	ff 62 08	 jmp	 DWORD PTR [edx+8]
?GetFidType@CChartBozoManager@@UAGHPBD@Z ENDP		; CChartBozoManager::GetFidType
_TEXT	ENDS
; Function compile flags: /Ogtp
; File D:\git\src\IBK\IBK_DRFN\ProjSrc\SrcDrfn\DrCommon\PartnerMng\_ChartBozoManager.cpp
; File C:\Program Files (x86)\Microsoft Visual Studio\2019\Community\VC\Tools\MSVC\14.29.30133\atlmfc\include\afxtempl.h
; File D:\git\src\IBK\IBK_DRFN\ProjSrc\SrcDrfn\DrCommon\PartnerMng\_ChartBozoManager.cpp
; File C:\Program Files (x86)\Microsoft Visual Studio\2019\Community\VC\Tools\MSVC\14.29.30133\atlmfc\include\atlsimpstr.h
; File D:\git\src\IBK\IBK_DRFN\ProjSrc\SrcDrfn\DrCommon\PartnerMng\_ChartBozoManager.cpp
; File C:\Program Files (x86)\Microsoft Visual Studio\2019\Community\VC\Tools\MSVC\14.29.30133\atlmfc\include\atlsimpstr.h
; File D:\git\src\IBK\IBK_DRFN\ProjSrc\SrcDrfn\DrCommon\PartnerMng\_ChartBozoManager.cpp
; File C:\Program Files (x86)\Microsoft Visual Studio\2019\Community\VC\Tools\MSVC\14.29.30133\atlmfc\include\atlsimpstr.h
; File D:\git\src\IBK\IBK_DRFN\ProjSrc\SrcDrfn\DrCommon\PartnerMng\_ChartBozoManager.cpp
; File C:\Program Files (x86)\Microsoft Visual Studio\2019\Community\VC\Tools\MSVC\14.29.30133\atlmfc\include\atlsimpstr.h
; File D:\git\src\IBK\IBK_DRFN\ProjSrc\SrcDrfn\DrCommon\PartnerMng\_ChartBozoManager.cpp
;	COMDAT ?ChangeChartBozoMsg@CChartBozoManager@@UAGHAAV?$CStringT@DV?$StrTraitMFC_DLL@DV?$ChTraitsCRT@D@ATL@@@@@ATL@@PAV?$CList@PAVCChartBozoItem@@PAV1@@@@Z
_TEXT	SEGMENT
_nLength$1$ = -40					; size = 4
_nPos$1$ = -36						; size = 4
_nLength$ = -32						; size = 4
_nStart$ = -28						; size = 4
_szTmp$ = -24						; size = 4
_szFindKey$1 = -20					; size = 4
_szItem$ = -16						; size = 4
_aSize$2 = -12						; size = 5
$T3 = -12						; size = 4
__$ArrayPad$ = -4					; size = 4
_this$ = 8						; size = 4
_rString$ = 12						; size = 4
_pList$ = 16						; size = 4
?ChangeChartBozoMsg@CChartBozoManager@@UAGHAAV?$CStringT@DV?$StrTraitMFC_DLL@DV?$ChTraitsCRT@D@ATL@@@@@ATL@@PAV?$CList@PAVCChartBozoItem@@PAV1@@@@Z PROC ; CChartBozoManager::ChangeChartBozoMsg, COMDAT

; 46   : {

  00000	55		 push	 ebp
  00001	8b ec		 mov	 ebp, esp
  00003	83 ec 28	 sub	 esp, 40			; 00000028H
  00006	a1 00 00 00 00	 mov	 eax, DWORD PTR ___security_cookie
  0000b	33 c5		 xor	 eax, ebp
  0000d	89 45 fc	 mov	 DWORD PTR __$ArrayPad$[ebp], eax
  00010	53		 push	 ebx
  00011	56		 push	 esi
  00012	8b 75 10	 mov	 esi, DWORD PTR _pList$[ebp]

; 47   : 	CString szTmp, szItem;

  00015	8d 4d e8	 lea	 ecx, DWORD PTR _szTmp$[ebp]
  00018	57		 push	 edi
  00019	8b 7d 0c	 mov	 edi, DWORD PTR _rString$[ebp]
  0001c	ff 15 00 00 00
	00		 call	 DWORD PTR __imp_??0?$CStringT@DV?$StrTraitMFC_DLL@DV?$ChTraitsCRT@D@ATL@@@@@ATL@@QAE@XZ
  00022	8d 4d f0	 lea	 ecx, DWORD PTR _szItem$[ebp]
  00025	ff 15 00 00 00
	00		 call	 DWORD PTR __imp_??0?$CStringT@DV?$StrTraitMFC_DLL@DV?$ChTraitsCRT@D@ATL@@@@@ATL@@QAE@XZ

; 48   : 	int nStart, nLength;
; 49   : 	for(POSITION pos=pList->GetHeadPosition(); pos ;)

  0002b	8b 5e 04	 mov	 ebx, DWORD PTR [esi+4]
  0002e	85 db		 test	 ebx, ebx
  00030	0f 84 37 01 00
	00		 je	 $LN3@ChangeChar
$LL2@ChangeChar:

; 50   : 	{
; 51   : 		CChartBozoItem *pItem = pList->GetNext(pos);

  00036	8b 73 08	 mov	 esi, DWORD PTR [ebx+8]
; File C:\Program Files (x86)\Microsoft Visual Studio\2019\Community\VC\Tools\MSVC\14.29.30133\atlmfc\include\afxtempl.h

; 813  : 		rPosition = (POSITION) pNode->pNext;

  00039	8b 1b		 mov	 ebx, DWORD PTR [ebx]
; File D:\git\src\IBK\IBK_DRFN\ProjSrc\SrcDrfn\DrCommon\PartnerMng\_ChartBozoManager.cpp

; 52   : 		switch(pItem->m_nOption)

  0003b	8b 06		 mov	 eax, DWORD PTR [esi]
  0003d	83 e8 00	 sub	 eax, 0
  00040	74 3d		 je	 SHORT $LN7@ChangeChar
  00042	83 e8 01	 sub	 eax, 1
  00045	74 38		 je	 SHORT $LN7@ChangeChar
  00047	83 e8 01	 sub	 eax, 1
  0004a	0f 85 15 01 00
	00		 jne	 $LN10@ChangeChar

; 69   : 				}
; 70   : 				break;
; 71   : // 			case CChartBozoItem::cbi_add:
; 72   : // 				{
; 73   : // 					szItem.Format("%s=%s@", pItem->m_szKey, pItem->m_szValue);
; 74   : // 					rString += szItem;
; 75   : // 				}
; 76   : // 				break;
; 77   : 			case CChartBozoItem::cbi_delete:
; 78   : 				if(_FindKeyInBozoString(rString, pItem->m_szKey, nStart, nLength))

  00050	8b 4d 08	 mov	 ecx, DWORD PTR _this$[ebp]
  00053	8d 45 e0	 lea	 eax, DWORD PTR _nLength$[ebp]
  00056	50		 push	 eax
  00057	8d 45 e4	 lea	 eax, DWORD PTR _nStart$[ebp]
  0005a	50		 push	 eax
  0005b	ff 76 04	 push	 DWORD PTR [esi+4]
  0005e	57		 push	 edi
  0005f	e8 00 00 00 00	 call	 ?_FindKeyInBozoString@CChartBozoManager@@IAEHAAV?$CStringT@DV?$StrTraitMFC_DLL@DV?$ChTraitsCRT@D@ATL@@@@@ATL@@PBDAAH2@Z ; CChartBozoManager::_FindKeyInBozoString
  00064	85 c0		 test	 eax, eax
  00066	0f 84 f9 00 00
	00		 je	 $LN10@ChangeChar

; 79   : 				{
; 80   : 					rString.Delete(nStart, nLength);

  0006c	ff 75 e0	 push	 DWORD PTR _nLength$[ebp]
  0006f	8b cf		 mov	 ecx, edi
  00071	ff 75 e4	 push	 DWORD PTR _nStart$[ebp]
  00074	ff 15 00 00 00
	00		 call	 DWORD PTR __imp_?Delete@?$CStringT@DV?$StrTraitMFC_DLL@DV?$ChTraitsCRT@D@ATL@@@@@ATL@@QAEHHH@Z
  0007a	e9 e6 00 00 00	 jmp	 $LN10@ChangeChar
$LN7@ChangeChar:

; 91   : 	CString szFindKey(szKey);

  0007f	ff 76 04	 push	 DWORD PTR [esi+4]
  00082	8d 4d ec	 lea	 ecx, DWORD PTR _szFindKey$1[ebp]
  00085	ff 15 00 00 00
	00		 call	 DWORD PTR __imp_??0?$CStringT@DV?$StrTraitMFC_DLL@DV?$ChTraitsCRT@D@ATL@@@@@ATL@@QAE@PBD@Z

; 92   : 	szFindKey += "=";

  0008b	68 00 00 00 00	 push	 OFFSET ??_C@_01NEMOKFLO@?$DN@
  00090	8d 4d ec	 lea	 ecx, DWORD PTR _szFindKey$1[ebp]
  00093	ff 15 00 00 00
	00		 call	 DWORD PTR __imp_??Y?$CStringT@DV?$StrTraitMFC_DLL@DV?$ChTraitsCRT@D@ATL@@@@@ATL@@QAEAAV01@PBD@Z

; 93   : 
; 94   : 	int nPos = rString.Find(szFindKey);

  00099	6a 00		 push	 0
  0009b	ff 75 ec	 push	 DWORD PTR _szFindKey$1[ebp]
  0009e	8b cf		 mov	 ecx, edi
  000a0	ff 15 00 00 00
	00		 call	 DWORD PTR __imp_?Find@?$CStringT@DV?$StrTraitMFC_DLL@DV?$ChTraitsCRT@D@ATL@@@@@ATL@@QBEHPBDH@Z
  000a6	89 45 dc	 mov	 DWORD PTR _nPos$1$[ebp], eax

; 95   : 	if(nPos<0) return FALSE;

  000a9	85 c0		 test	 eax, eax
  000ab	0f 88 87 00 00
	00		 js	 $LN53@ChangeChar

; 96   : 
; 97   : 	int nPos2 = rString.Find('@', nPos+1);

  000b1	8d 48 01	 lea	 ecx, DWORD PTR [eax+1]
  000b4	51		 push	 ecx
  000b5	6a 40		 push	 64			; 00000040H
  000b7	8b cf		 mov	 ecx, edi
  000b9	ff 15 00 00 00
	00		 call	 DWORD PTR __imp_?Find@?$CStringT@DV?$StrTraitMFC_DLL@DV?$ChTraitsCRT@D@ATL@@@@@ATL@@QBEHDH@Z

; 98   : 	if(nPos2<0) return FALSE;

  000bf	85 c0		 test	 eax, eax
  000c1	78 75		 js	 SHORT $LN53@ChangeChar

; 99   : 
; 100  : 	nStart = nPos;

  000c3	8b 4d dc	 mov	 ecx, DWORD PTR _nPos$1$[ebp]

; 101  : 	nLength = nPos2 - nPos +1;

  000c6	2b c1		 sub	 eax, ecx
  000c8	40		 inc	 eax
  000c9	89 4d e4	 mov	 DWORD PTR _nStart$[ebp], ecx

; 102  : 	return TRUE;

  000cc	8d 4d ec	 lea	 ecx, DWORD PTR _szFindKey$1[ebp]
  000cf	89 45 d8	 mov	 DWORD PTR _nLength$1$[ebp], eax
  000d2	89 45 e0	 mov	 DWORD PTR _nLength$[ebp], eax
  000d5	ff 15 00 00 00
	00		 call	 DWORD PTR __imp_??1?$CStringT@DV?$StrTraitMFC_DLL@DV?$ChTraitsCRT@D@ATL@@@@@ATL@@QAE@XZ

; 53   : 		{
; 54   : 			case CChartBozoItem::cbi_chanage:
; 55   : 			case CChartBozoItem::cbi_add:
; 56   : 				if(_FindKeyInBozoString(rString, pItem->m_szKey, nStart, nLength))
; 57   : 				{					
; 58   : 					//rString.Delete(nStart, nLength);
; 59   : 					szItem.Format("%s=%s@", pItem->m_szKey, pItem->m_szValue);

  000db	ff 76 08	 push	 DWORD PTR [esi+8]
  000de	8d 45 f0	 lea	 eax, DWORD PTR _szItem$[ebp]
  000e1	ff 76 04	 push	 DWORD PTR [esi+4]
  000e4	68 00 00 00 00	 push	 OFFSET ??_C@_06BKDDPDOC@?$CFs?$DN?$CFs?$EA@
  000e9	50		 push	 eax
  000ea	ff 15 00 00 00
	00		 call	 DWORD PTR __imp_?Format@?$CStringT@DV?$StrTraitMFC_DLL@DV?$ChTraitsCRT@D@ATL@@@@@ATL@@QAAXPBDZZ
  000f0	83 c4 10	 add	 esp, 16			; 00000010H

; 60   : 					szTmp = rString.Mid(nStart, nLength);

  000f3	8d 45 f4	 lea	 eax, DWORD PTR $T3[ebp]
  000f6	8b cf		 mov	 ecx, edi
  000f8	ff 75 d8	 push	 DWORD PTR _nLength$1$[ebp]
  000fb	ff 75 dc	 push	 DWORD PTR _nPos$1$[ebp]
  000fe	50		 push	 eax
  000ff	ff 15 00 00 00
	00		 call	 DWORD PTR __imp_?Mid@?$CStringT@DV?$StrTraitMFC_DLL@DV?$ChTraitsCRT@D@ATL@@@@@ATL@@QBE?AV12@HH@Z
  00105	50		 push	 eax
  00106	8d 4d e8	 lea	 ecx, DWORD PTR _szTmp$[ebp]
  00109	ff 15 00 00 00
	00		 call	 DWORD PTR __imp_??4?$CStringT@DV?$StrTraitMFC_DLL@DV?$ChTraitsCRT@D@ATL@@@@@ATL@@QAEAAV01@ABV01@@Z
  0010f	8d 4d f4	 lea	 ecx, DWORD PTR $T3[ebp]
  00112	ff 15 00 00 00
	00		 call	 DWORD PTR __imp_??1?$CStringT@DV?$StrTraitMFC_DLL@DV?$ChTraitsCRT@D@ATL@@@@@ATL@@QAE@XZ

; 61   : 					if(szTmp.Compare(szItem) != 0)

  00118	ff 75 f0	 push	 DWORD PTR _szItem$[ebp]
  0011b	8d 4d e8	 lea	 ecx, DWORD PTR _szTmp$[ebp]
  0011e	ff 15 00 00 00
	00		 call	 DWORD PTR __imp_?Compare@?$CStringT@DV?$StrTraitMFC_DLL@DV?$ChTraitsCRT@D@ATL@@@@@ATL@@QBEHPBD@Z
  00124	85 c0		 test	 eax, eax
  00126	74 3d		 je	 SHORT $LN10@ChangeChar

; 62   : 						rString.Replace(szTmp, szItem);

  00128	ff 75 f0	 push	 DWORD PTR _szItem$[ebp]
  0012b	8b cf		 mov	 ecx, edi
  0012d	ff 75 e8	 push	 DWORD PTR _szTmp$[ebp]
  00130	ff 15 00 00 00
	00		 call	 DWORD PTR __imp_?Replace@?$CStringT@DV?$StrTraitMFC_DLL@DV?$ChTraitsCRT@D@ATL@@@@@ATL@@QAEHPBD0@Z
  00136	eb 2d		 jmp	 SHORT $LN10@ChangeChar
$LN53@ChangeChar:

; 98   : 	if(nPos2<0) return FALSE;

  00138	8d 4d ec	 lea	 ecx, DWORD PTR _szFindKey$1[ebp]
  0013b	ff 15 00 00 00
	00		 call	 DWORD PTR __imp_??1?$CStringT@DV?$StrTraitMFC_DLL@DV?$ChTraitsCRT@D@ATL@@@@@ATL@@QAE@XZ

; 63   : 					//rString += szItem;
; 64   : 				}
; 65   : 				else
; 66   : 				{
; 67   : 					szItem.Format("%s=%s@", pItem->m_szKey, pItem->m_szValue);

  00141	ff 76 08	 push	 DWORD PTR [esi+8]
  00144	8d 45 f0	 lea	 eax, DWORD PTR _szItem$[ebp]
  00147	ff 76 04	 push	 DWORD PTR [esi+4]
  0014a	68 00 00 00 00	 push	 OFFSET ??_C@_06BKDDPDOC@?$CFs?$DN?$CFs?$EA@
  0014f	50		 push	 eax
  00150	ff 15 00 00 00
	00		 call	 DWORD PTR __imp_?Format@?$CStringT@DV?$StrTraitMFC_DLL@DV?$ChTraitsCRT@D@ATL@@@@@ATL@@QAAXPBDZZ
  00156	83 c4 10	 add	 esp, 16			; 00000010H

; 68   : 					rString += szItem;

  00159	8d 45 f0	 lea	 eax, DWORD PTR _szItem$[ebp]
  0015c	8b cf		 mov	 ecx, edi
  0015e	50		 push	 eax
  0015f	ff 15 00 00 00
	00		 call	 DWORD PTR __imp_??Y?$CStringT@DV?$StrTraitMFC_DLL@DV?$ChTraitsCRT@D@ATL@@@@@ATL@@QAEAAV01@ABV?$CSimpleStringT@D$00@1@@Z
$LN10@ChangeChar:

; 48   : 	int nStart, nLength;
; 49   : 	for(POSITION pos=pList->GetHeadPosition(); pos ;)

  00165	85 db		 test	 ebx, ebx
  00167	0f 85 c9 fe ff
	ff		 jne	 $LL2@ChangeChar
$LN3@ChangeChar:
; File C:\Program Files (x86)\Microsoft Visual Studio\2019\Community\VC\Tools\MSVC\14.29.30133\atlmfc\include\atlsimpstr.h

; 519  : 		return( GetData()->nDataLength );

  0016d	8b 07		 mov	 eax, DWORD PTR [edi]
  0016f	8b 40 f4	 mov	 eax, DWORD PTR [eax-12]
; File D:\git\src\IBK\IBK_DRFN\ProjSrc\SrcDrfn\DrCommon\PartnerMng\_ChartBozoManager.cpp

; 38   : 	sprintf(aSize, "%04d", nLen -4);

  00172	83 c0 fc	 add	 eax, -4			; fffffffcH
  00175	c7 45 f4 00 00
	00 00		 mov	 DWORD PTR _aSize$2[ebp], 0
  0017c	50		 push	 eax
  0017d	8d 45 f4	 lea	 eax, DWORD PTR _aSize$2[ebp]
  00180	c6 45 f8 00	 mov	 BYTE PTR _aSize$2[ebp+4], 0
  00184	68 00 00 00 00	 push	 OFFSET ??_C@_04OCCELDNI@?$CF04d@
  00189	50		 push	 eax
  0018a	e8 00 00 00 00	 call	 _sprintf
  0018f	83 c4 0c	 add	 esp, 12			; 0000000cH
; File C:\Program Files (x86)\Microsoft Visual Studio\2019\Community\VC\Tools\MSVC\14.29.30133\atlmfc\include\atlsimpstr.h

; 800  : 		return( reinterpret_cast< CStringData* >( m_pszData )-1 );

  00192	33 f6		 xor	 esi, esi
$LL36@ChangeChar:
; File D:\git\src\IBK\IBK_DRFN\ProjSrc\SrcDrfn\DrCommon\PartnerMng\_ChartBozoManager.cpp

; 40   : 	for(int i=0; i<4; i++)	rString.SetAt(i, aSize[i]);

  00194	0f b6 44 35 f4	 movzx	 eax, BYTE PTR _aSize$2[ebp+esi]
  00199	8b cf		 mov	 ecx, edi
  0019b	50		 push	 eax
  0019c	56		 push	 esi
  0019d	ff 15 00 00 00
	00		 call	 DWORD PTR __imp_?SetAt@?$CSimpleStringT@D$00@ATL@@QAEXHD@Z
  001a3	46		 inc	 esi
  001a4	83 fe 04	 cmp	 esi, 4
  001a7	7c eb		 jl	 SHORT $LL36@ChangeChar
; File C:\Program Files (x86)\Microsoft Visual Studio\2019\Community\VC\Tools\MSVC\14.29.30133\atlmfc\include\atlsimpstr.h

; 519  : 		return( GetData()->nDataLength );

  001a9	8b 07		 mov	 eax, DWORD PTR [edi]
; File D:\git\src\IBK\IBK_DRFN\ProjSrc\SrcDrfn\DrCommon\PartnerMng\_ChartBozoManager.cpp

; 86   : 	return rString.GetLength();

  001ab	8d 4d f0	 lea	 ecx, DWORD PTR _szItem$[ebp]
; File C:\Program Files (x86)\Microsoft Visual Studio\2019\Community\VC\Tools\MSVC\14.29.30133\atlmfc\include\atlsimpstr.h

; 519  : 		return( GetData()->nDataLength );

  001ae	8b 70 f4	 mov	 esi, DWORD PTR [eax-12]
; File D:\git\src\IBK\IBK_DRFN\ProjSrc\SrcDrfn\DrCommon\PartnerMng\_ChartBozoManager.cpp

; 86   : 	return rString.GetLength();

  001b1	ff 15 00 00 00
	00		 call	 DWORD PTR __imp_??1?$CStringT@DV?$StrTraitMFC_DLL@DV?$ChTraitsCRT@D@ATL@@@@@ATL@@QAE@XZ
  001b7	8d 4d e8	 lea	 ecx, DWORD PTR _szTmp$[ebp]
  001ba	ff 15 00 00 00
	00		 call	 DWORD PTR __imp_??1?$CStringT@DV?$StrTraitMFC_DLL@DV?$ChTraitsCRT@D@ATL@@@@@ATL@@QAE@XZ

; 87   : }

  001c0	8b 4d fc	 mov	 ecx, DWORD PTR __$ArrayPad$[ebp]
  001c3	8b c6		 mov	 eax, esi
  001c5	5f		 pop	 edi
  001c6	5e		 pop	 esi
  001c7	33 cd		 xor	 ecx, ebp
  001c9	5b		 pop	 ebx
  001ca	e8 00 00 00 00	 call	 @__security_check_cookie@4
  001cf	8b e5		 mov	 esp, ebp
  001d1	5d		 pop	 ebp
  001d2	c2 0c 00	 ret	 12			; 0000000cH
?ChangeChartBozoMsg@CChartBozoManager@@UAGHAAV?$CStringT@DV?$StrTraitMFC_DLL@DV?$ChTraitsCRT@D@ATL@@@@@ATL@@PAV?$CList@PAVCChartBozoItem@@PAV1@@@@Z ENDP ; CChartBozoManager::ChangeChartBozoMsg
_TEXT	ENDS
; Function compile flags: /Ogtp
; File D:\git\src\IBK\IBK_DRFN\ProjSrc\SrcDrfn\DrCommon\PartnerMng\_ChartBozoManager.cpp
; File C:\Program Files (x86)\Microsoft Visual Studio\2019\Community\VC\Tools\MSVC\14.29.30133\atlmfc\include\atlsimpstr.h
; File D:\git\src\IBK\IBK_DRFN\ProjSrc\SrcDrfn\inc\IChartBozoMsgMng.h
; File C:\Program Files (x86)\Microsoft Visual Studio\2019\Community\VC\Tools\MSVC\14.29.30133\atlmfc\include\atlsimpstr.h
; File D:\git\src\IBK\IBK_DRFN\ProjSrc\SrcDrfn\inc\IChartBozoMsgMng.h
; File C:\Program Files (x86)\Microsoft Visual Studio\2019\Community\VC\Tools\MSVC\14.29.30133\atlmfc\include\atlsimpstr.h
; File D:\git\src\IBK\IBK_DRFN\ProjSrc\SrcDrfn\inc\IChartBozoMsgMng.h
; File C:\Program Files (x86)\Microsoft Visual Studio\2019\Community\VC\Tools\MSVC\14.29.30133\atlmfc\include\atlsimpstr.h
; File D:\git\src\IBK\IBK_DRFN\ProjSrc\SrcDrfn\inc\IChartBozoMsgMng.h
; File D:\git\src\IBK\IBK_DRFN\ProjSrc\SrcDrfn\DrCommon\PartnerMng\_ChartBozoManager.cpp
; File D:\git\src\IBK\IBK_DRFN\ProjSrc\SrcDrfn\inc\IChartBozoMsgMng.h
; File D:\git\src\IBK\IBK_DRFN\ProjSrc\SrcDrfn\DrCommon\PartnerMng\_ChartBozoManager.cpp
; File D:\git\src\IBK\IBK_DRFN\ProjSrc\SrcDrfn\inc\LoadDRDebuger.h
; File C:\Program Files (x86)\Microsoft Visual Studio\2019\Community\VC\Tools\MSVC\14.29.30133\atlmfc\include\atlsimpstr.h
; File D:\git\src\IBK\IBK_DRFN\ProjSrc\SrcDrfn\inc\LoadDRDebuger.h
; File D:\git\src\IBK\IBK_DRFN\ProjSrc\SrcDrfn\DrCommon\PartnerMng\_ChartBozoManager.cpp
; File D:\git\src\IBK\IBK_DRFN\ProjSrc\SrcDrfn\inc\LoadDRDebuger.h
; File D:\git\src\IBK\IBK_DRFN\ProjSrc\SrcDrfn\DrCommon\PartnerMng\_ChartBozoManager.cpp
;	COMDAT ?GetChartBozoMsg@CChartBozoManager@@UAGHPBDPAVCChartBozoInput@@AAV?$CStringT@DV?$StrTraitMFC_DLL@DV?$ChTraitsCRT@D@ATL@@@@@ATL@@H@Z
_TEXT	SEGMENT
_this$ = 8						; size = 4
_szFIDKey$ = 12						; size = 4
_nFidKey$1$ = 16					; size = 4
_pChartBInput$ = 16					; size = 4
_rString$ = 20						; size = 4
_szDebug$1 = 24						; size = 4
_nOption$ = 24						; size = 4
?GetChartBozoMsg@CChartBozoManager@@UAGHPBDPAVCChartBozoInput@@AAV?$CStringT@DV?$StrTraitMFC_DLL@DV?$ChTraitsCRT@D@ATL@@@@@ATL@@H@Z PROC ; CChartBozoManager::GetChartBozoMsg, COMDAT

; 116  : {

  00000	55		 push	 ebp
  00001	8b ec		 mov	 ebp, esp
  00003	53		 push	 ebx

; 117  : 	rString.Empty();

  00004	8b 5d 14	 mov	 ebx, DWORD PTR _rString$[ebp]
  00007	8b cb		 mov	 ecx, ebx
  00009	56		 push	 esi
  0000a	57		 push	 edi
  0000b	ff 15 00 00 00
	00		 call	 DWORD PTR __imp_?Empty@?$CSimpleStringT@D$00@ATL@@QAEXXZ
; File C:\Program Files (x86)\Microsoft Visual Studio\2019\Community\VC\Tools\MSVC\14.29.30133\atlmfc\include\atlsimpstr.h

; 519  : 		return( GetData()->nDataLength );

  00011	8b 75 10	 mov	 esi, DWORD PTR _pChartBInput$[ebp]
  00014	8b 46 08	 mov	 eax, DWORD PTR [esi+8]
; File D:\git\src\IBK\IBK_DRFN\ProjSrc\SrcDrfn\inc\IChartBozoMsgMng.h

; 185  : 		memcpy(sShcode, m_sShcode, m_sShcode.GetLength());

  00017	ff 70 f4	 push	 DWORD PTR [eax-12]
  0001a	50		 push	 eax
  0001b	8d 46 68	 lea	 eax, DWORD PTR [esi+104]
  0001e	50		 push	 eax
  0001f	e8 00 00 00 00	 call	 _memcpy

; 186  : //		memcpy(sTick, m_sTick, m_sTick.GetLength());
; 187  : 		lTick		= atol(m_sTick);

  00024	ff 76 0c	 push	 DWORD PTR [esi+12]
  00027	8b 3d 00 00 00
	00		 mov	 edi, DWORD PTR __imp__atol
  0002d	ff d7		 call	 edi
  0002f	89 46 78	 mov	 DWORD PTR [esi+120], eax
; File C:\Program Files (x86)\Microsoft Visual Studio\2019\Community\VC\Tools\MSVC\14.29.30133\atlmfc\include\atlsimpstr.h

; 519  : 		return( GetData()->nDataLength );

  00032	8b 46 10	 mov	 eax, DWORD PTR [esi+16]
; File D:\git\src\IBK\IBK_DRFN\ProjSrc\SrcDrfn\inc\IChartBozoMsgMng.h

; 188  : 		memcpy(sTerm, m_sTerm, m_sTerm.GetLength());

  00035	ff 70 f4	 push	 DWORD PTR [eax-12]
  00038	50		 push	 eax
  00039	8d 46 7c	 lea	 eax, DWORD PTR [esi+124]
  0003c	50		 push	 eax
  0003d	e8 00 00 00 00	 call	 _memcpy
; File C:\Program Files (x86)\Microsoft Visual Studio\2019\Community\VC\Tools\MSVC\14.29.30133\atlmfc\include\atlsimpstr.h

; 519  : 		return( GetData()->nDataLength );

  00042	8b 46 14	 mov	 eax, DWORD PTR [esi+20]
; File D:\git\src\IBK\IBK_DRFN\ProjSrc\SrcDrfn\inc\IChartBozoMsgMng.h

; 189  : 		memcpy(sNxtFlg, m_sNxtFlg, m_sNxtFlg.GetLength());

  00045	ff 70 f4	 push	 DWORD PTR [eax-12]
  00048	50		 push	 eax
  00049	8d 46 7d	 lea	 eax, DWORD PTR [esi+125]
  0004c	50		 push	 eax
  0004d	e8 00 00 00 00	 call	 _memcpy
; File C:\Program Files (x86)\Microsoft Visual Studio\2019\Community\VC\Tools\MSVC\14.29.30133\atlmfc\include\atlsimpstr.h

; 519  : 		return( GetData()->nDataLength );

  00052	8b 46 18	 mov	 eax, DWORD PTR [esi+24]
; File D:\git\src\IBK\IBK_DRFN\ProjSrc\SrcDrfn\inc\IChartBozoMsgMng.h

; 190  : 		memcpy(sDataType, m_sDataType, m_sDataType.GetLength());

  00055	ff 70 f4	 push	 DWORD PTR [eax-12]
  00058	50		 push	 eax
  00059	8d 46 7e	 lea	 eax, DWORD PTR [esi+126]
  0005c	50		 push	 eax
  0005d	e8 00 00 00 00	 call	 _memcpy

; 191  : 		lPrice		= atol(m_sPrice);

  00062	ff 76 1c	 push	 DWORD PTR [esi+28]
  00065	ff d7		 call	 edi

; 192  : 		lVolume		= atol(m_sVolume);

  00067	ff 76 20	 push	 DWORD PTR [esi+32]
  0006a	89 86 80 00 00
	00		 mov	 DWORD PTR [esi+128], eax
  00070	ff d7		 call	 edi

; 193  : 		lUpLmtPrice = atol(m_sUpLmtPrice);

  00072	ff 76 24	 push	 DWORD PTR [esi+36]
  00075	89 86 84 00 00
	00		 mov	 DWORD PTR [esi+132], eax
  0007b	ff d7		 call	 edi
  0007d	83 c4 40	 add	 esp, 64			; 00000040H
  00080	89 86 88 00 00
	00		 mov	 DWORD PTR [esi+136], eax

; 194  : 		lDnLmtPrice = atol(m_sDnLmtPrice);

  00086	ff 76 28	 push	 DWORD PTR [esi+40]
  00089	ff d7		 call	 edi

; 195  : 		lOpen		= atol(m_sOpen);

  0008b	ff 76 2c	 push	 DWORD PTR [esi+44]
  0008e	89 86 8c 00 00
	00		 mov	 DWORD PTR [esi+140], eax
  00094	ff d7		 call	 edi

; 196  : 		lHigh		= atol(m_sHigh);

  00096	ff 76 30	 push	 DWORD PTR [esi+48]
  00099	89 86 90 00 00
	00		 mov	 DWORD PTR [esi+144], eax
  0009f	ff d7		 call	 edi

; 197  : 		lLow		= atol(m_sLow);

  000a1	ff 76 34	 push	 DWORD PTR [esi+52]
  000a4	89 86 94 00 00
	00		 mov	 DWORD PTR [esi+148], eax
  000aa	ff d7		 call	 edi

; 198  : 		lPreprice	= atol(m_sPreprice);	

  000ac	ff 76 38	 push	 DWORD PTR [esi+56]
  000af	89 86 98 00 00
	00		 mov	 DWORD PTR [esi+152], eax
  000b5	ff d7		 call	 edi

; 199  : 		lPreVolume	= atol(m_sPreVolume);	

  000b7	ff 76 3c	 push	 DWORD PTR [esi+60]
  000ba	89 86 9c 00 00
	00		 mov	 DWORD PTR [esi+156], eax
  000c0	ff d7		 call	 edi

; 200  : 		//memcpy(sStartTime, m_sStartTime, m_sStartTime.GetLength());
; 201  : 		lFirstClose = atol(m_sFirstClose);

  000c2	ff 76 44	 push	 DWORD PTR [esi+68]
  000c5	89 86 a0 00 00
	00		 mov	 DWORD PTR [esi+160], eax
  000cb	ff d7		 call	 edi

; 202  : 		nMarket		= atoi(m_sMarket);

  000cd	ff 76 04	 push	 DWORD PTR [esi+4]
  000d0	89 86 a4 00 00
	00		 mov	 DWORD PTR [esi+164], eax
  000d6	8b 35 00 00 00
	00		 mov	 esi, DWORD PTR __imp__atoi
  000dc	ff d6		 call	 esi
  000de	8b 4d 10	 mov	 ecx, DWORD PTR _pChartBInput$[ebp]

; 203  : 		lPreOpen	= atoi(m_sPreOpen);

  000e1	ff 71 48	 push	 DWORD PTR [ecx+72]
  000e4	89 81 b4 00 00
	00		 mov	 DWORD PTR [ecx+180], eax
  000ea	ff d6		 call	 esi
  000ec	8b 4d 10	 mov	 ecx, DWORD PTR _pChartBInput$[ebp]

; 204  : 		lPreHigh	= atoi(m_sPreHigh);

  000ef	ff 71 4c	 push	 DWORD PTR [ecx+76]
  000f2	89 81 a8 00 00
	00		 mov	 DWORD PTR [ecx+168], eax
  000f8	ff d6		 call	 esi
  000fa	8b 4d 10	 mov	 ecx, DWORD PTR _pChartBInput$[ebp]

; 205  : 		lPreLow		= atoi(m_sPreLow);

  000fd	ff 71 50	 push	 DWORD PTR [ecx+80]
  00100	89 81 ac 00 00
	00		 mov	 DWORD PTR [ecx+172], eax
  00106	ff d6		 call	 esi
  00108	8b 75 10	 mov	 esi, DWORD PTR _pChartBInput$[ebp]

; 206  : 		lWonDollar	= atol(m_sWonDollor);

  0010b	ff 76 54	 push	 DWORD PTR [esi+84]
  0010e	89 86 b0 00 00
	00		 mov	 DWORD PTR [esi+176], eax
  00114	ff d7		 call	 edi

; 207  : 		lVolAmt		= atol(m_sVolAmt);

  00116	ff 76 58	 push	 DWORD PTR [esi+88]
  00119	89 86 b8 00 00
	00		 mov	 DWORD PTR [esi+184], eax
  0011f	ff d7		 call	 edi
  00121	83 c4 34	 add	 esp, 52			; 00000034H
  00124	8b fe		 mov	 edi, esi
; File D:\git\src\IBK\IBK_DRFN\ProjSrc\SrcDrfn\DrCommon\PartnerMng\_ChartBozoManager.cpp

; 120  : 	int nFidKey = GetFidType(szFIDKey);

  00126	8b 75 08	 mov	 esi, DWORD PTR _this$[ebp]
  00129	ff 75 0c	 push	 DWORD PTR _szFIDKey$[ebp]
; File D:\git\src\IBK\IBK_DRFN\ProjSrc\SrcDrfn\inc\IChartBozoMsgMng.h

; 207  : 		lVolAmt		= atol(m_sVolAmt);

  0012c	89 87 c4 00 00
	00		 mov	 DWORD PTR [edi+196], eax
; File D:\git\src\IBK\IBK_DRFN\ProjSrc\SrcDrfn\DrCommon\PartnerMng\_ChartBozoManager.cpp

; 120  : 	int nFidKey = GetFidType(szFIDKey);

  00132	8b 06		 mov	 eax, DWORD PTR [esi]
  00134	56		 push	 esi
  00135	ff 50 0c	 call	 DWORD PTR [eax+12]

; 107  : 	if(pChartBInput->m_sStartTime.GetLength()==4)

  00138	8b 4f 40	 mov	 ecx, DWORD PTR [edi+64]

; 120  : 	int nFidKey = GetFidType(szFIDKey);

  0013b	89 45 10	 mov	 DWORD PTR _nFidKey$1$[ebp], eax

; 107  : 	if(pChartBInput->m_sStartTime.GetLength()==4)

  0013e	83 79 f4 04	 cmp	 DWORD PTR [ecx-12], 4
  00142	75 11		 jne	 SHORT $LN80@GetChartBo

; 108  : 		pChartBInput->m_sStartTime += _T("00");

  00144	68 00 00 00 00	 push	 OFFSET ??_C@_02PLJDPFIO@00@
  00149	8d 4f 40	 lea	 ecx, DWORD PTR [edi+64]
  0014c	ff 15 00 00 00
	00		 call	 DWORD PTR __imp_??Y?$CStringT@DV?$StrTraitMFC_DLL@DV?$ChTraitsCRT@D@ATL@@@@@ATL@@QAEAAV01@PBD@Z
  00152	8b 45 10	 mov	 eax, DWORD PTR _nFidKey$1$[ebp]
$LN80@GetChartBo:

; 121  : 
; 122  : 	_DoPre_GetChartBozoMsg(pChartBInput);
; 123  : 
; 124  : 	switch(nFidKey)

  00155	3d ff 00 00 00	 cmp	 eax, 255		; 000000ffH
  0015a	0f 8f 1d 01 00
	00		 jg	 $LN18@GetChartBo
  00160	0f 84 17 01 00
	00		 je	 $LN18@GetChartBo
  00166	83 f8 6f	 cmp	 eax, 111		; 0000006fH
  00169	0f 87 0e 01 00
	00		 ja	 $LN18@GetChartBo
  0016f	0f b6 80 00 00
	00 00		 movzx	 eax, BYTE PTR $LN109@GetChartBo[eax]
  00176	ff 24 85 00 00
	00 00		 jmp	 DWORD PTR $LN110@GetChartBo[eax*4]
$LN4@GetChartBo:

; 125  : 	{
; 126  : 		case CMasterTypeInfo::STOCK_CHART:	//case CChartBozoInput::ctstk:
; 127  : 			MakeChtBojo_ctstk(pChartBInput, rString, nOption);

  0017d	ff 75 18	 push	 DWORD PTR _nOption$[ebp]
  00180	8b 06		 mov	 eax, DWORD PTR [esi]
  00182	53		 push	 ebx
  00183	57		 push	 edi
  00184	56		 push	 esi
  00185	ff 50 14	 call	 DWORD PTR [eax+20]

; 128  : 			_DoCalcBozoSize(rString);
; 129  : 			break;

  00188	eb 66		 jmp	 SHORT $LN2@GetChartBo
$LN5@GetChartBo:

; 130  : 
; 131  : 		case CMasterTypeInfo::UPJONG_CHART:		//case CChartBozoInput::ctup:
; 132  : 			MakeChtBojo_ctup(pChartBInput, rString, nOption);

  0018a	ff 75 18	 push	 DWORD PTR _nOption$[ebp]
  0018d	8b 06		 mov	 eax, DWORD PTR [esi]
  0018f	53		 push	 ebx
  00190	57		 push	 edi
  00191	56		 push	 esi
  00192	ff 50 18	 call	 DWORD PTR [eax+24]

; 133  : 			_DoCalcBozoSize(rString);
; 134  : 			break;

  00195	eb 59		 jmp	 SHORT $LN2@GetChartBo
$LN6@GetChartBo:

; 184  : 			return rString.GetLength();
; 185  : 	}
; 186  : 
; 187  : //	if(gDebugMng)
; 188  : //	{
; 189  : //		CString szDebug;
; 190  : //		szDebug.Format("[SMalzio]ChartBozo=[%s]\n", rString);
; 191  : //		gDebugMng->ShowOutputDebugString(szDebug);
; 192  : //	}
; 193  : 	{
; 194  : 		CString szDebug;

  00197	ff 75 18	 push	 DWORD PTR _nOption$[ebp]
  0019a	8b 06		 mov	 eax, DWORD PTR [esi]
  0019c	53		 push	 ebx
  0019d	57		 push	 edi
  0019e	56		 push	 esi
  0019f	ff 50 20	 call	 DWORD PTR [eax+32]
  001a2	eb 4c		 jmp	 SHORT $LN2@GetChartBo
$LN7@GetChartBo:

; 135  : 
; 136  : 		case CMasterTypeInfo::FUTOPT_CHART:		//case CChartBozoInput::ctfo:
; 137  : 			MakeChtBojo_ctfo(pChartBInput, rString, nOption);
; 138  : 			_DoCalcBozoSize(rString);
; 139  : 			break;
; 140  : 
; 141  : 		case CMasterTypeInfo::STOCKFUTOPT_CHART:		//case CChartBozoInput::ctsfo:
; 142  : 			MakeChtBojo_ctsfo(pChartBInput, rString, nOption);

  001a4	ff 75 18	 push	 DWORD PTR _nOption$[ebp]
  001a7	8b 06		 mov	 eax, DWORD PTR [esi]
  001a9	53		 push	 ebx
  001aa	57		 push	 edi
  001ab	56		 push	 esi
  001ac	ff 50 1c	 call	 DWORD PTR [eax+28]

; 143  : 			_DoCalcBozoSize(rString);
; 144  : 			break;

  001af	eb 3f		 jmp	 SHORT $LN2@GetChartBo
$LN8@GetChartBo:

; 145  : 
; 146  : 		case CMasterTypeInfo::FOREIGN_CHART:		//case CChartBozoInput::ctfrn:
; 147  : 			MakeChtBojo_ctfrn(pChartBInput, rString, nOption);

  001b1	ff 75 18	 push	 DWORD PTR _nOption$[ebp]
  001b4	8b 06		 mov	 eax, DWORD PTR [esi]
  001b6	53		 push	 ebx
  001b7	57		 push	 edi
  001b8	56		 push	 esi
  001b9	ff 50 24	 call	 DWORD PTR [eax+36]

; 148  : 			_DoCalcBozoSize(rString);
; 149  : 			break;

  001bc	eb 32		 jmp	 SHORT $LN2@GetChartBo
$LN9@GetChartBo:

; 150  : 
; 151  : 		case CMasterTypeInfo::MARKET_CHART:
; 152  : 			MakeChtBojo_market(pChartBInput, rString, nOption);	

  001be	ff 75 18	 push	 DWORD PTR _nOption$[ebp]
  001c1	8b 06		 mov	 eax, DWORD PTR [esi]
  001c3	53		 push	 ebx
  001c4	57		 push	 edi
  001c5	56		 push	 esi
  001c6	ff 50 28	 call	 DWORD PTR [eax+40]

; 153  : 			_DoCalcBozoSize(rString);
; 154  : 			break;

  001c9	eb 25		 jmp	 SHORT $LN2@GetChartBo
$LN11@GetChartBo:

; 155  : 
; 156  : 		case CMasterTypeInfo::FUOPT_JIPYO_CHART:		//case CChartBozoInput::ctfo:
; 157  : 			MakeChtBojo_ctfo(pChartBInput, rString, nOption);
; 158  : 			_DoCalcBozoSize(rString);
; 159  : 			break;
; 160  : 
; 161  : 		case 111:
; 162  : 			// 
; 163  : 			MakeChtBojo_ctfofor(pChartBInput, rString, nOption);

  001cb	ff 75 18	 push	 DWORD PTR _nOption$[ebp]
  001ce	8b 06		 mov	 eax, DWORD PTR [esi]
  001d0	53		 push	 ebx
  001d1	57		 push	 edi
  001d2	56		 push	 esi
  001d3	ff 50 2c	 call	 DWORD PTR [eax+44]

; 164  : 			_DoCalcBozoSize(rString);
; 165  : 			break;

  001d6	eb 18		 jmp	 SHORT $LN2@GetChartBo
$LN12@GetChartBo:

; 166  : 
; 167  : 		//<<20100310_JS.Kim FX
; 168  : 		case CMasterTypeInfo::FX_CHART:
; 169  : 			MakeChtBojo_ctfx(pChartBInput, rString, nOption);

  001d8	ff 75 18	 push	 DWORD PTR _nOption$[ebp]
  001db	8b 06		 mov	 eax, DWORD PTR [esi]
  001dd	53		 push	 ebx
  001de	57		 push	 edi
  001df	56		 push	 esi
  001e0	ff 50 30	 call	 DWORD PTR [eax+48]

; 170  : 			_DoCalcBozoSize(rString);
; 171  : 			break;

  001e3	eb 0b		 jmp	 SHORT $LN2@GetChartBo
$LN13@GetChartBo:

; 172  : 		//>>
; 173  : 
; 174  : 		//<<20110106 alzioyes CME
; 175  : 		case CMasterTypeInfo::CME_CHART:
; 176  : 			MakeChtBojo_ctcme(pChartBInput, rString, nOption);

  001e5	ff 75 18	 push	 DWORD PTR _nOption$[ebp]
  001e8	8b 06		 mov	 eax, DWORD PTR [esi]
  001ea	53		 push	 ebx
  001eb	57		 push	 edi
  001ec	56		 push	 esi
  001ed	ff 50 34	 call	 DWORD PTR [eax+52]
$LN2@GetChartBo:

; 184  : 			return rString.GetLength();
; 185  : 	}
; 186  : 
; 187  : //	if(gDebugMng)
; 188  : //	{
; 189  : //		CString szDebug;
; 190  : //		szDebug.Format("[SMalzio]ChartBozo=[%s]\n", rString);
; 191  : //		gDebugMng->ShowOutputDebugString(szDebug);
; 192  : //	}
; 193  : 	{
; 194  : 		CString szDebug;

  001f0	53		 push	 ebx
  001f1	8b ce		 mov	 ecx, esi
  001f3	e8 00 00 00 00	 call	 ?_DoCalcBozoSize@CChartBozoManager@@IAEHAAV?$CStringT@DV?$StrTraitMFC_DLL@DV?$ChTraitsCRT@D@ATL@@@@@ATL@@@Z ; CChartBozoManager::_DoCalcBozoSize
  001f8	8d 4d 18	 lea	 ecx, DWORD PTR _szDebug$1[ebp]
  001fb	ff 15 00 00 00
	00		 call	 DWORD PTR __imp_??0?$CStringT@DV?$StrTraitMFC_DLL@DV?$ChTraitsCRT@D@ATL@@@@@ATL@@QAE@XZ

; 195  : 		szDebug.Format("ChartBozo size=%d [%s]\n", rString.GetLength(), rString);

  00201	8b 03		 mov	 eax, DWORD PTR [ebx]
  00203	ff 33		 push	 DWORD PTR [ebx]
  00205	ff 70 f4	 push	 DWORD PTR [eax-12]
  00208	8d 45 18	 lea	 eax, DWORD PTR _szDebug$1[ebp]
  0020b	68 00 00 00 00	 push	 OFFSET ??_C@_0BI@MKMDCDBM@ChartBozo?5size?$DN?$CFd?5?$FL?$CFs?$FN?6@
  00210	50		 push	 eax
  00211	ff 15 00 00 00
	00		 call	 DWORD PTR __imp_?Format@?$CStringT@DV?$StrTraitMFC_DLL@DV?$ChTraitsCRT@D@ATL@@@@@ATL@@QAAXPBDZZ

; 196  : 		if(g_pDRDebuger) g_pDRDebuger->DRLog_Message(szDebug);

  00217	8b 35 00 00 00
	00		 mov	 esi, DWORD PTR ?g_pDRDebuger@@3PAVCDRDebugerLoader@@A ; g_pDRDebuger
  0021d	83 c4 10	 add	 esp, 16			; 00000010H
  00220	85 f6		 test	 esi, esi
  00222	74 44		 je	 SHORT $LN101@GetChartBo
; File D:\git\src\IBK\IBK_DRFN\ProjSrc\SrcDrfn\inc\LoadDRDebuger.h

; 205  : 		def_DRDebuger_GetProc(m_fpMessage			, FpDRLog_Message			, "DRLog_Message");

  00224	8b 0e		 mov	 ecx, DWORD PTR [esi]
; File C:\Program Files (x86)\Microsoft Visual Studio\2019\Community\VC\Tools\MSVC\14.29.30133\atlmfc\include\atlsimpstr.h

; 377  : 		return( m_pszData );

  00226	8b 7d 18	 mov	 edi, DWORD PTR _szDebug$1[ebp]
; File D:\git\src\IBK\IBK_DRFN\ProjSrc\SrcDrfn\inc\LoadDRDebuger.h

; 205  : 		def_DRDebuger_GetProc(m_fpMessage			, FpDRLog_Message			, "DRLog_Message");

  00229	85 c9		 test	 ecx, ecx
  0022b	74 3b		 je	 SHORT $LN101@GetChartBo
  0022d	8b 46 10	 mov	 eax, DWORD PTR [esi+16]
  00230	85 c0		 test	 eax, eax
  00232	75 13		 jne	 SHORT $LN99@GetChartBo
  00234	68 00 00 00 00	 push	 OFFSET ??_C@_0O@PJEIPGOG@DRLog_Message@
  00239	51		 push	 ecx
  0023a	ff 15 00 00 00
	00		 call	 DWORD PTR __imp__GetProcAddress@8
  00240	89 46 10	 mov	 DWORD PTR [esi+16], eax
  00243	85 c0		 test	 eax, eax
  00245	74 21		 je	 SHORT $LN101@GetChartBo
$LN99@GetChartBo:

; 206  : 		if(p_szMessage==NULL)

  00247	85 ff		 test	 edi, edi
  00249	75 1a		 jne	 SHORT $LN100@GetChartBo

; 207  : 			m_fpMessage(m_szMessage);

  0024b	ff 76 5c	 push	 DWORD PTR [esi+92]
; File D:\git\src\IBK\IBK_DRFN\ProjSrc\SrcDrfn\DrCommon\PartnerMng\_ChartBozoManager.cpp

; 197  : 	}

  0024e	ff d0		 call	 eax
  00250	8d 4d 18	 lea	 ecx, DWORD PTR _szDebug$1[ebp]
  00253	ff 15 00 00 00
	00		 call	 DWORD PTR __imp_??1?$CStringT@DV?$StrTraitMFC_DLL@DV?$ChTraitsCRT@D@ATL@@@@@ATL@@QAE@XZ

; 198  : 
; 199  : 	//g_DRDebuger.DRLog_ResponseData("chartBozo", (LPBYTE)(LPCSTR)rString, rString.GetLength());
; 200  : 	return rString.GetLength();
; 201  : }

  00259	8b 03		 mov	 eax, DWORD PTR [ebx]
  0025b	5f		 pop	 edi
  0025c	5e		 pop	 esi
  0025d	5b		 pop	 ebx
  0025e	8b 40 f4	 mov	 eax, DWORD PTR [eax-12]
  00261	5d		 pop	 ebp
  00262	c2 14 00	 ret	 20			; 00000014H
$LN100@GetChartBo:
; File D:\git\src\IBK\IBK_DRFN\ProjSrc\SrcDrfn\inc\LoadDRDebuger.h

; 209  : 			m_fpMessage(p_szMessage);

  00265	57		 push	 edi
; File D:\git\src\IBK\IBK_DRFN\ProjSrc\SrcDrfn\DrCommon\PartnerMng\_ChartBozoManager.cpp

; 197  : 	}

  00266	ff d0		 call	 eax
$LN101@GetChartBo:
  00268	8d 4d 18	 lea	 ecx, DWORD PTR _szDebug$1[ebp]
  0026b	ff 15 00 00 00
	00		 call	 DWORD PTR __imp_??1?$CStringT@DV?$StrTraitMFC_DLL@DV?$ChTraitsCRT@D@ATL@@@@@ATL@@QAE@XZ

; 198  : 
; 199  : 	//g_DRDebuger.DRLog_ResponseData("chartBozo", (LPBYTE)(LPCSTR)rString, rString.GetLength());
; 200  : 	return rString.GetLength();
; 201  : }

  00271	8b 03		 mov	 eax, DWORD PTR [ebx]
  00273	5f		 pop	 edi
  00274	5e		 pop	 esi
  00275	5b		 pop	 ebx
  00276	8b 40 f4	 mov	 eax, DWORD PTR [eax-12]
  00279	5d		 pop	 ebp
  0027a	c2 14 00	 ret	 20			; 00000014H
$LN18@GetChartBo:

; 177  : 			_DoCalcBozoSize(rString);
; 178  : 			break;
; 179  : 		//>>
; 180  : 		
; 181  : 		case CMasterTypeInfo::NONE_CHART:
; 182  : 		default:
; 183  : 			rString = _T("0000");

  0027d	68 00 00 00 00	 push	 OFFSET ??_C@_04JDPKJLKG@0000@
  00282	8b cb		 mov	 ecx, ebx
  00284	ff 15 00 00 00
	00		 call	 DWORD PTR __imp_??4?$CStringT@DV?$StrTraitMFC_DLL@DV?$ChTraitsCRT@D@ATL@@@@@ATL@@QAEAAV01@PBD@Z

; 198  : 
; 199  : 	//g_DRDebuger.DRLog_ResponseData("chartBozo", (LPBYTE)(LPCSTR)rString, rString.GetLength());
; 200  : 	return rString.GetLength();
; 201  : }

  0028a	8b 03		 mov	 eax, DWORD PTR [ebx]
  0028c	5f		 pop	 edi
  0028d	5e		 pop	 esi
  0028e	5b		 pop	 ebx
  0028f	8b 40 f4	 mov	 eax, DWORD PTR [eax-12]
  00292	5d		 pop	 ebp
  00293	c2 14 00	 ret	 20			; 00000014H
  00296	66 90		 npad	 2
$LN110@GetChartBo:
  00298	00 00 00 00	 DD	 $LN4@GetChartBo
  0029c	00 00 00 00	 DD	 $LN5@GetChartBo
  002a0	00 00 00 00	 DD	 $LN6@GetChartBo
  002a4	00 00 00 00	 DD	 $LN7@GetChartBo
  002a8	00 00 00 00	 DD	 $LN8@GetChartBo
  002ac	00 00 00 00	 DD	 $LN9@GetChartBo
  002b0	00 00 00 00	 DD	 $LN12@GetChartBo
  002b4	00 00 00 00	 DD	 $LN13@GetChartBo
  002b8	00 00 00 00	 DD	 $LN11@GetChartBo
  002bc	00 00 00 00	 DD	 $LN18@GetChartBo
$LN109@GetChartBo:
  002c0	00		 DB	 0
  002c1	01		 DB	 1
  002c2	02		 DB	 2
  002c3	03		 DB	 3
  002c4	04		 DB	 4
  002c5	02		 DB	 2
  002c6	09		 DB	 9
  002c7	05		 DB	 5
  002c8	09		 DB	 9
  002c9	06		 DB	 6
  002ca	07		 DB	 7
  002cb	09		 DB	 9
  002cc	09		 DB	 9
  002cd	09		 DB	 9
  002ce	09		 DB	 9
  002cf	09		 DB	 9
  002d0	09		 DB	 9
  002d1	09		 DB	 9
  002d2	09		 DB	 9
  002d3	09		 DB	 9
  002d4	09		 DB	 9
  002d5	09		 DB	 9
  002d6	09		 DB	 9
  002d7	09		 DB	 9
  002d8	09		 DB	 9
  002d9	09		 DB	 9
  002da	09		 DB	 9
  002db	09		 DB	 9
  002dc	09		 DB	 9
  002dd	09		 DB	 9
  002de	09		 DB	 9
  002df	09		 DB	 9
  002e0	09		 DB	 9
  002e1	09		 DB	 9
  002e2	09		 DB	 9
  002e3	09		 DB	 9
  002e4	09		 DB	 9
  002e5	09		 DB	 9
  002e6	09		 DB	 9
  002e7	09		 DB	 9
  002e8	09		 DB	 9
  002e9	09		 DB	 9
  002ea	09		 DB	 9
  002eb	09		 DB	 9
  002ec	09		 DB	 9
  002ed	09		 DB	 9
  002ee	09		 DB	 9
  002ef	09		 DB	 9
  002f0	09		 DB	 9
  002f1	09		 DB	 9
  002f2	09		 DB	 9
  002f3	09		 DB	 9
  002f4	09		 DB	 9
  002f5	09		 DB	 9
  002f6	09		 DB	 9
  002f7	09		 DB	 9
  002f8	09		 DB	 9
  002f9	09		 DB	 9
  002fa	09		 DB	 9
  002fb	09		 DB	 9
  002fc	09		 DB	 9
  002fd	09		 DB	 9
  002fe	09		 DB	 9
  002ff	09		 DB	 9
  00300	09		 DB	 9
  00301	09		 DB	 9
  00302	09		 DB	 9
  00303	09		 DB	 9
  00304	09		 DB	 9
  00305	09		 DB	 9
  00306	09		 DB	 9
  00307	09		 DB	 9
  00308	09		 DB	 9
  00309	09		 DB	 9
  0030a	09		 DB	 9
  0030b	09		 DB	 9
  0030c	09		 DB	 9
  0030d	09		 DB	 9
  0030e	09		 DB	 9
  0030f	09		 DB	 9
  00310	09		 DB	 9
  00311	09		 DB	 9
  00312	09		 DB	 9
  00313	09		 DB	 9
  00314	09		 DB	 9
  00315	09		 DB	 9
  00316	09		 DB	 9
  00317	09		 DB	 9
  00318	09		 DB	 9
  00319	09		 DB	 9
  0031a	09		 DB	 9
  0031b	09		 DB	 9
  0031c	09		 DB	 9
  0031d	09		 DB	 9
  0031e	09		 DB	 9
  0031f	09		 DB	 9
  00320	09		 DB	 9
  00321	09		 DB	 9
  00322	09		 DB	 9
  00323	09		 DB	 9
  00324	09		 DB	 9
  00325	09		 DB	 9
  00326	09		 DB	 9
  00327	09		 DB	 9
  00328	09		 DB	 9
  00329	09		 DB	 9
  0032a	09		 DB	 9
  0032b	09		 DB	 9
  0032c	09		 DB	 9
  0032d	09		 DB	 9
  0032e	09		 DB	 9
  0032f	08		 DB	 8
?GetChartBozoMsg@CChartBozoManager@@UAGHPBDPAVCChartBozoInput@@AAV?$CStringT@DV?$StrTraitMFC_DLL@DV?$ChTraitsCRT@D@ATL@@@@@ATL@@H@Z ENDP ; CChartBozoManager::GetChartBozoMsg
_TEXT	ENDS
; Function compile flags: /Ogtp
; File D:\git\src\IBK\IBK_DRFN\ProjSrc\SrcDrfn\Chart\commontr\TRDefine.h
;	COMDAT ??__ERMSG_GETSIGNAL_REAL@@YAXXZ
text$di	SEGMENT
??__ERMSG_GETSIGNAL_REAL@@YAXXZ PROC			; `dynamic initializer for 'RMSG_GETSIGNAL_REAL'', COMDAT

; 213  : const UINT RMSG_GETSIGNAL_REAL = ::RegisterWindowMessage(_T("RMSG_GETSIGNAL_REAL"));

  00000	68 00 00 00 00	 push	 OFFSET ??_C@_0BE@FJPKENOB@RMSG_GETSIGNAL_REAL@
  00005	ff 15 00 00 00
	00		 call	 DWORD PTR __imp__RegisterWindowMessageA@4
  0000b	a3 00 00 00 00	 mov	 DWORD PTR ?RMSG_GETSIGNAL_REAL@@3IB, eax
  00010	c3		 ret	 0
??__ERMSG_GETSIGNAL_REAL@@YAXXZ ENDP			; `dynamic initializer for 'RMSG_GETSIGNAL_REAL''
text$di	ENDS
; Function compile flags: /Ogtp
; File D:\git\src\IBK\IBK_DRFN\ProjSrc\SrcDrfn\inc\IBaseDefine.h
;	COMDAT ??__ERMSG_SETPCTRDATA@@YAXXZ
text$di	SEGMENT
??__ERMSG_SETPCTRDATA@@YAXXZ PROC			; `dynamic initializer for 'RMSG_SETPCTRDATA'', COMDAT

; 172  : const UINT RMSG_SETPCTRDATA = ::RegisterWindowMessage("RMSG_SETPCTRDATA");

  00000	68 00 00 00 00	 push	 OFFSET ??_C@_0BB@JPACFCL@RMSG_SETPCTRDATA@
  00005	ff 15 00 00 00
	00		 call	 DWORD PTR __imp__RegisterWindowMessageA@4
  0000b	a3 00 00 00 00	 mov	 DWORD PTR ?RMSG_SETPCTRDATA@@3IB, eax
  00010	c3		 ret	 0
??__ERMSG_SETPCTRDATA@@YAXXZ ENDP			; `dynamic initializer for 'RMSG_SETPCTRDATA''
text$di	ENDS
; Function compile flags: /Ogtp
; File D:\git\src\IBK\IBK_DRFN\ProjSrc\SrcDrfn\inc\IBaseDefine.h
;	COMDAT ??__ERMSG_GETPCTRDATA@@YAXXZ
text$di	SEGMENT
??__ERMSG_GETPCTRDATA@@YAXXZ PROC			; `dynamic initializer for 'RMSG_GETPCTRDATA'', COMDAT

; 171  : const UINT RMSG_GETPCTRDATA = ::RegisterWindowMessage("RMSG_GETPCTRDATA");

  00000	68 00 00 00 00	 push	 OFFSET ??_C@_0BB@GOOPDKI@RMSG_GETPCTRDATA@
  00005	ff 15 00 00 00
	00		 call	 DWORD PTR __imp__RegisterWindowMessageA@4
  0000b	a3 00 00 00 00	 mov	 DWORD PTR ?RMSG_GETPCTRDATA@@3IB, eax
  00010	c3		 ret	 0
??__ERMSG_GETPCTRDATA@@YAXXZ ENDP			; `dynamic initializer for 'RMSG_GETPCTRDATA''
text$di	ENDS
; Function compile flags: /Ogtp
; File D:\git\src\IBK\IBK_DRFN\ProjSrc\SrcDrfn\inc\IBaseDefine.h
;	COMDAT ??__ERMSG_INTERFACE@@YAXXZ
text$di	SEGMENT
??__ERMSG_INTERFACE@@YAXXZ PROC				; `dynamic initializer for 'RMSG_INTERFACE'', COMDAT

; 170  : const UINT RMSG_INTERFACE = ::RegisterWindowMessage("RMSG_INTERFACE");

  00000	68 00 00 00 00	 push	 OFFSET ??_C@_0P@BKKCOCLK@RMSG_INTERFACE@
  00005	ff 15 00 00 00
	00		 call	 DWORD PTR __imp__RegisterWindowMessageA@4
  0000b	a3 00 00 00 00	 mov	 DWORD PTR ?RMSG_INTERFACE@@3IB, eax
  00010	c3		 ret	 0
??__ERMSG_INTERFACE@@YAXXZ ENDP				; `dynamic initializer for 'RMSG_INTERFACE''
text$di	ENDS
; Function compile flags: /Ogtp
; File C:\Program Files (x86)\Windows Kits\10\Include\10.0.22000.0\ucrt\stdio.h
;	COMDAT _sprintf
_TEXT	SEGMENT
__Buffer$ = 8						; size = 4
__Format$ = 12						; size = 4
_sprintf PROC						; COMDAT

; 1771 :     {

  00000	55		 push	 ebp
  00001	8b ec		 mov	 ebp, esp

; 1392 :         int const _Result = __stdio_common_vsprintf(

  00003	8d 45 10	 lea	 eax, DWORD PTR __Format$[ebp+4]
  00006	50		 push	 eax
  00007	6a 00		 push	 0
  00009	ff 75 0c	 push	 DWORD PTR __Format$[ebp]
  0000c	6a ff		 push	 -1
  0000e	ff 75 08	 push	 DWORD PTR __Buffer$[ebp]
  00011	e8 00 00 00 00	 call	 ___local_stdio_printf_options
  00016	8b 08		 mov	 ecx, DWORD PTR [eax]
  00018	ff 70 04	 push	 DWORD PTR [eax+4]
  0001b	83 c9 01	 or	 ecx, 1
  0001e	51		 push	 ecx
  0001f	ff 15 00 00 00
	00		 call	 DWORD PTR __imp____stdio_common_vsprintf

; 1393 :             _CRT_INTERNAL_LOCAL_PRINTF_OPTIONS | _CRT_INTERNAL_PRINTF_LEGACY_VSPRINTF_NULL_TERMINATION,
; 1394 :             _Buffer, _BufferCount, _Format, _Locale, _ArgList);
; 1395 : 
; 1396 :         return _Result < 0 ? -1 : _Result;

  00025	83 c9 ff	 or	 ecx, -1
  00028	83 c4 1c	 add	 esp, 28			; 0000001cH
  0002b	85 c0		 test	 eax, eax
  0002d	0f 48 c1	 cmovs	 eax, ecx

; 1772 :         int _Result;
; 1773 :         va_list _ArgList;
; 1774 :         __crt_va_start(_ArgList, _Format);
; 1775 : 
; 1776 :         _Result = _vsprintf_l(_Buffer, _Format, NULL, _ArgList);
; 1777 : 
; 1778 :         __crt_va_end(_ArgList);
; 1779 :         return _Result;
; 1780 :     }

  00030	5d		 pop	 ebp
  00031	c3		 ret	 0
_sprintf ENDP
_TEXT	ENDS
; Function compile flags: /Ogtp
; File C:\Program Files (x86)\Windows Kits\10\Include\10.0.22000.0\ucrt\corecrt_stdio_config.h
;	COMDAT ___local_stdio_printf_options
_TEXT	SEGMENT
___local_stdio_printf_options PROC			; COMDAT

; 91   :         static unsigned __int64 _OptionsStorage;
; 92   :         return &_OptionsStorage;

  00000	b8 00 00 00 00	 mov	 eax, OFFSET ?_OptionsStorage@?1??__local_stdio_printf_options@@9@4_KA ; `__local_stdio_printf_options'::`2'::_OptionsStorage

; 93   :     }

  00005	c3		 ret	 0
___local_stdio_printf_options ENDP
_TEXT	ENDS
; Function compile flags: /Ogtp
; File D:\git\src\IBK\IBK_DRFN\ProjSrc\SrcDrfn\DrCommon\PartnerMng\_ChartBozoManager.cpp
;	COMDAT ?__empty_global_delete@@YAXPAXI@Z
_TEXT	SEGMENT
___formal$ = 8						; size = 4
___formal$ = 12						; size = 4
?__empty_global_delete@@YAXPAXI@Z PROC			; __empty_global_delete, COMDAT

  00000	c2 00 00	 ret	 0
?__empty_global_delete@@YAXPAXI@Z ENDP			; __empty_global_delete
_TEXT	ENDS
; Function compile flags: /Ogtp
; File D:\git\src\IBK\IBK_DRFN\ProjSrc\SrcDrfn\DrCommon\PartnerMng\_ChartBozoManager.cpp
;	COMDAT ?__empty_global_delete@@YAXPAX@Z
_TEXT	SEGMENT
___formal$ = 8						; size = 4
?__empty_global_delete@@YAXPAX@Z PROC			; __empty_global_delete, COMDAT

  00000	c2 00 00	 ret	 0
?__empty_global_delete@@YAXPAX@Z ENDP			; __empty_global_delete
_TEXT	ENDS
END
