; Listing generated by Microsoft (R) Optimizing Compiler Version 19.29.30145.0 

	TITLE	D:\git\src\IBK\IBK_DRFN\#DRfn-CS\_Obj\PartnerMng\_PartnerManager.obj
	.686P
	.XMM
	include listing.inc
	.model	flat

INCLUDELIB MSVCRT
INCLUDELIB OLDNAMES

PUBLIC	??_C@_0BE@EALJDAHP@RMSG_RECEIVE_DIRECT@		; `string'
PUBLIC	??_C@_0P@BKKCOCLK@RMSG_INTERFACE@		; `string'
PUBLIC	??_C@_0BB@GOOPDKI@RMSG_GETPCTRDATA@		; `string'
PUBLIC	??_C@_0BB@JPACFCL@RMSG_SETPCTRDATA@		; `string'
PUBLIC	??_C@_0BE@FJPKENOB@RMSG_GETSIGNAL_REAL@		; `string'
;	COMDAT ??_C@_0BE@FJPKENOB@RMSG_GETSIGNAL_REAL@
CONST	SEGMENT
??_C@_0BE@FJPKENOB@RMSG_GETSIGNAL_REAL@ DB 'RMSG_GETSIGNAL_REAL', 00H ; `string'
CONST	ENDS
;	COMDAT ??_C@_0BB@JPACFCL@RMSG_SETPCTRDATA@
CONST	SEGMENT
??_C@_0BB@JPACFCL@RMSG_SETPCTRDATA@ DB 'RMSG_SETPCTRDATA', 00H ; `string'
CONST	ENDS
;	COMDAT ??_C@_0BB@GOOPDKI@RMSG_GETPCTRDATA@
CONST	SEGMENT
??_C@_0BB@GOOPDKI@RMSG_GETPCTRDATA@ DB 'RMSG_GETPCTRDATA', 00H ; `string'
CONST	ENDS
;	COMDAT ??_C@_0P@BKKCOCLK@RMSG_INTERFACE@
CONST	SEGMENT
??_C@_0P@BKKCOCLK@RMSG_INTERFACE@ DB 'RMSG_INTERFACE', 00H ; `string'
CONST	ENDS
;	COMDAT ??_C@_0BE@EALJDAHP@RMSG_RECEIVE_DIRECT@
CONST	SEGMENT
??_C@_0BE@EALJDAHP@RMSG_RECEIVE_DIRECT@ DB 'RMSG_RECEIVE_DIRECT', 00H ; `string'
CONST	ENDS
PUBLIC	?__empty_global_delete@@YAXPAX@Z		; __empty_global_delete
PUBLIC	?__empty_global_delete@@YAXPAXI@Z		; __empty_global_delete
PUBLIC	___local_stdio_scanf_options
PUBLIC	_sscanf
PUBLIC	?AfxCrtErrorCheck@@YAHH@Z			; AfxCrtErrorCheck
PUBLIC	??1CObject@@UAE@XZ				; CObject::~CObject
PUBLIC	?Serialize@CObject@@UAEXAAVCArchive@@@Z		; CObject::Serialize
PUBLIC	?AssertValid@CObject@@UBEXXZ			; CObject::AssertValid
PUBLIC	?Dump@CObject@@UBEXAAVCDumpContext@@@Z		; CObject::Dump
PUBLIC	?AtlThrowImpl@ATL@@YGXJ@Z			; ATL::AtlThrowImpl
PUBLIC	??8ATL@@YA_NABV?$CStringT@DV?$StrTraitMFC_DLL@DV?$ChTraitsCRT@D@ATL@@@@@0@D@Z ; ATL::operator==
PUBLIC	?Unlock@CSyncObject@@UAEHJPAJ@Z			; CSyncObject::Unlock
PUBLIC	?Unlock@CCriticalSection@@UAEHXZ		; CCriticalSection::Unlock
PUBLIC	?Lock@CCriticalSection@@UAEHK@Z			; CCriticalSection::Lock
PUBLIC	??1CCriticalSection@@UAE@XZ			; CCriticalSection::~CCriticalSection
PUBLIC	??_GCCriticalSection@@UAEPAXI@Z			; CCriticalSection::`scalar deleting destructor'
PUBLIC	??1FID_SENDDATA@@QAE@XZ				; FID_SENDDATA::~FID_SENDDATA
PUBLIC	??0CPartnerManagerSubDataA@@QAE@XZ		; CPartnerManagerSubDataA::CPartnerManagerSubDataA
PUBLIC	??1CRegisterCodeMng@@QAE@XZ			; CRegisterCodeMng::~CRegisterCodeMng
PUBLIC	?FindCode@CRegisterCodeMng@@QAEPAU__POSITION@@PBD@Z ; CRegisterCodeMng::FindCode
PUBLIC	?RemoveCode@CRegisterCodeMng@@QAEXPBD@Z		; CRegisterCodeMng::RemoveCode
PUBLIC	?AddCode@CRegisterCodeMng@@QAEXPBDH@Z		; CRegisterCodeMng::AddCode
PUBLIC	?SetSite@CPartnerManager@@UAGXPAUIPartnerSite@@@Z ; CPartnerManager::SetSite
PUBLIC	?GetSite@CPartnerManager@@UAGPAUIPartnerSite@@XZ ; CPartnerManager::GetSite
PUBLIC	?SendTrData@CPartnerManager@@UAGHPBDPAEHAAHH@Z	; CPartnerManager::SendTrData
PUBLIC	?SendFidData@CPartnerManager@@UAGHPBDPAEHAAHH@Z	; CPartnerManager::SendFidData
PUBLIC	?SendTrDataEx@CPartnerManager@@UAGHJPAEHAAHH@Z	; CPartnerManager::SendTrDataEx
PUBLIC	?SendFidDataEx@CPartnerManager@@UAGHJPAEHAAHH@Z	; CPartnerManager::SendFidDataEx
PUBLIC	?ReceiveTRData@CPartnerManager@@UAGHPBDPAEHH@Z	; CPartnerManager::ReceiveTRData
PUBLIC	?RequestMChartReal@CPartnerManager@@UAGHEPBD0@Z	; CPartnerManager::RequestMChartReal
PUBLIC	?ReceiveRealData@CPartnerManager@@UAGHIJ@Z	; CPartnerManager::ReceiveRealData
PUBLIC	?directSendFID@CPartnerManager@@UAGHJ@Z		; CPartnerManager::directSendFID
PUBLIC	?ReceiveRealDataEx@CPartnerManager@@UAGHIJ@Z	; CPartnerManager::ReceiveRealDataEx
PUBLIC	?ReceiveNoticeData@CPartnerManager@@UAGHIJ@Z	; CPartnerManager::ReceiveNoticeData
PUBLIC	?IsRegisterCode@CPartnerManager@@UAGHPBD@Z	; CPartnerManager::IsRegisterCode
PUBLIC	??0CPartnerManager@@QAE@XZ			; CPartnerManager::CPartnerManager
PUBLIC	?SetSendHandle@CPartnerManager@@QAEPAUHWND__@@PAU2@@Z ; CPartnerManager::SetSendHandle
PUBLIC	?SendTR@CPartnerManager@@QAEHV?$CStringT@DV?$StrTraitMFC_DLL@DV?$ChTraitsCRT@D@ATL@@@@@ATL@@PADHHH@Z ; CPartnerManager::SendTR
PUBLIC	?GetTrKey@CPartnerManager@@QAEHV?$CStringT@DV?$StrTraitMFC_DLL@DV?$ChTraitsCRT@D@ATL@@@@@ATL@@PAUFID_SENDDATA@@@Z ; CPartnerManager::GetTrKey
PUBLIC	?GetRealKey@CPartnerManager@@QAEHEPBDH@Z	; CPartnerManager::GetRealKey
PUBLIC	?FindRealKey@CPartnerManager@@QAEHPBD@Z		; CPartnerManager::FindRealKey
PUBLIC	??0?$CArray@UFID_SENDDATA@@AAU1@@@QAE@XZ	; CArray<FID_SENDDATA,FID_SENDDATA &>::CArray<FID_SENDDATA,FID_SENDDATA &>
PUBLIC	?SetSize@?$CArray@UFID_SENDDATA@@AAU1@@@QAEXHH@Z ; CArray<FID_SENDDATA,FID_SENDDATA &>::SetSize
PUBLIC	?GetAt@?$CArray@UFID_SENDDATA@@AAU1@@@QAEAAUFID_SENDDATA@@H@Z ; CArray<FID_SENDDATA,FID_SENDDATA &>::GetAt
PUBLIC	?SetAt@?$CArray@UFID_SENDDATA@@AAU1@@@QAEXHAAUFID_SENDDATA@@@Z ; CArray<FID_SENDDATA,FID_SENDDATA &>::SetAt
PUBLIC	?SetAtGrow@?$CArray@UFID_SENDDATA@@AAU1@@@QAEXHAAUFID_SENDDATA@@@Z ; CArray<FID_SENDDATA,FID_SENDDATA &>::SetAtGrow
PUBLIC	??1?$CArray@UFID_SENDDATA@@AAU1@@@UAE@XZ	; CArray<FID_SENDDATA,FID_SENDDATA &>::~CArray<FID_SENDDATA,FID_SENDDATA &>
PUBLIC	?Serialize@?$CArray@UFID_SENDDATA@@AAU1@@@UAEXAAVCArchive@@@Z ; CArray<FID_SENDDATA,FID_SENDDATA &>::Serialize
PUBLIC	??_G?$CArray@UFID_SENDDATA@@AAU1@@@UAEPAXI@Z	; CArray<FID_SENDDATA,FID_SENDDATA &>::`scalar deleting destructor'
PUBLIC	?ReceiveRealDataEx_Sub@CPartnerManager@@IAEHAAV?$CStringT@DV?$StrTraitMFC_DLL@DV?$ChTraitsCRT@D@ATL@@@@@ATL@@HHPAK@Z ; CPartnerManager::ReceiveRealDataEx_Sub
PUBLIC	?_DoRealDataParsing@CPartnerManager@@IAEHPADPAVCMapStringToString@@@Z ; CPartnerManager::_DoRealDataParsing
PUBLIC	?_DoParser@CPartnerManager@@IAEHDPADAAHH0@Z	; CPartnerManager::_DoParser
PUBLIC	?_DoGetCodeType@CPartnerManager@@IAEHPBD@Z	; CPartnerManager::_DoGetCodeType
PUBLIC	?_DoPreReceiveData@CPartnerManager@@IAEXPBDPAEH@Z ; CPartnerManager::_DoPreReceiveData
PUBLIC	??0?$CMap@V?$CStringT@DV?$StrTraitMFC_DLL@DV?$ChTraitsCRT@D@ATL@@@@@ATL@@PBDHH@@QAE@H@Z ; CMap<ATL::CStringT<char,StrTraitMFC_DLL<char,ATL::ChTraitsCRT<char> > >,char const *,int,int>::CMap<ATL::CStringT<char,StrTraitMFC_DLL<char,ATL::ChTraitsCRT<char> > >,char const *,int,int>
PUBLIC	?Lookup@?$CMap@V?$CStringT@DV?$StrTraitMFC_DLL@DV?$ChTraitsCRT@D@ATL@@@@@ATL@@PBDHH@@QBEHPBDAAH@Z ; CMap<ATL::CStringT<char,StrTraitMFC_DLL<char,ATL::ChTraitsCRT<char> > >,char const *,int,int>::Lookup
PUBLIC	??A?$CMap@V?$CStringT@DV?$StrTraitMFC_DLL@DV?$ChTraitsCRT@D@ATL@@@@@ATL@@PBDHH@@QAEAAHPBD@Z ; CMap<ATL::CStringT<char,StrTraitMFC_DLL<char,ATL::ChTraitsCRT<char> > >,char const *,int,int>::operator[]
PUBLIC	?SetAt@?$CMap@V?$CStringT@DV?$StrTraitMFC_DLL@DV?$ChTraitsCRT@D@ATL@@@@@ATL@@PBDHH@@QAEXPBDH@Z ; CMap<ATL::CStringT<char,StrTraitMFC_DLL<char,ATL::ChTraitsCRT<char> > >,char const *,int,int>::SetAt
PUBLIC	?RemoveKey@?$CMap@V?$CStringT@DV?$StrTraitMFC_DLL@DV?$ChTraitsCRT@D@ATL@@@@@ATL@@PBDHH@@QAEHPBD@Z ; CMap<ATL::CStringT<char,StrTraitMFC_DLL<char,ATL::ChTraitsCRT<char> > >,char const *,int,int>::RemoveKey
PUBLIC	?RemoveAll@?$CMap@V?$CStringT@DV?$StrTraitMFC_DLL@DV?$ChTraitsCRT@D@ATL@@@@@ATL@@PBDHH@@QAEXXZ ; CMap<ATL::CStringT<char,StrTraitMFC_DLL<char,ATL::ChTraitsCRT<char> > >,char const *,int,int>::RemoveAll
PUBLIC	?InitHashTable@?$CMap@V?$CStringT@DV?$StrTraitMFC_DLL@DV?$ChTraitsCRT@D@ATL@@@@@ATL@@PBDHH@@QAEXIH@Z ; CMap<ATL::CStringT<char,StrTraitMFC_DLL<char,ATL::ChTraitsCRT<char> > >,char const *,int,int>::InitHashTable
PUBLIC	?NewAssoc@?$CMap@V?$CStringT@DV?$StrTraitMFC_DLL@DV?$ChTraitsCRT@D@ATL@@@@@ATL@@PBDHH@@IAEPAVCAssoc@1@PBD@Z ; CMap<ATL::CStringT<char,StrTraitMFC_DLL<char,ATL::ChTraitsCRT<char> > >,char const *,int,int>::NewAssoc
PUBLIC	?FreeAssoc@?$CMap@V?$CStringT@DV?$StrTraitMFC_DLL@DV?$ChTraitsCRT@D@ATL@@@@@ATL@@PBDHH@@IAEXPAVCAssoc@1@@Z ; CMap<ATL::CStringT<char,StrTraitMFC_DLL<char,ATL::ChTraitsCRT<char> > >,char const *,int,int>::FreeAssoc
PUBLIC	?GetAssocAt@?$CMap@V?$CStringT@DV?$StrTraitMFC_DLL@DV?$ChTraitsCRT@D@ATL@@@@@ATL@@PBDHH@@IBEPAVCAssoc@1@PBDAAI1@Z ; CMap<ATL::CStringT<char,StrTraitMFC_DLL<char,ATL::ChTraitsCRT<char> > >,char const *,int,int>::GetAssocAt
PUBLIC	??1?$CMap@V?$CStringT@DV?$StrTraitMFC_DLL@DV?$ChTraitsCRT@D@ATL@@@@@ATL@@PBDHH@@UAE@XZ ; CMap<ATL::CStringT<char,StrTraitMFC_DLL<char,ATL::ChTraitsCRT<char> > >,char const *,int,int>::~CMap<ATL::CStringT<char,StrTraitMFC_DLL<char,ATL::ChTraitsCRT<char> > >,char const *,int,int>
PUBLIC	?Serialize@?$CMap@V?$CStringT@DV?$StrTraitMFC_DLL@DV?$ChTraitsCRT@D@ATL@@@@@ATL@@PBDHH@@UAEXAAVCArchive@@@Z ; CMap<ATL::CStringT<char,StrTraitMFC_DLL<char,ATL::ChTraitsCRT<char> > >,char const *,int,int>::Serialize
PUBLIC	??_G?$CMap@V?$CStringT@DV?$StrTraitMFC_DLL@DV?$ChTraitsCRT@D@ATL@@@@@ATL@@PBDHH@@UAEPAXI@Z ; CMap<ATL::CStringT<char,StrTraitMFC_DLL<char,ATL::ChTraitsCRT<char> > >,char const *,int,int>::`scalar deleting destructor'
PUBLIC	?AdviseManager@CPartnerSvrManager@@UAGPAUIPartnerManager@@PAUHWND__@@0@Z ; CPartnerSvrManager::AdviseManager
PUBLIC	?UnAdviseManager@CPartnerSvrManager@@UAGHPAUHWND__@@0@Z ; CPartnerSvrManager::UnAdviseManager
PUBLIC	?GetParentHandle@CPartnerSvrManager@@UAGHHAAPAUHWND__@@@Z ; CPartnerSvrManager::GetParentHandle
PUBLIC	?GetInerInterface@CPartnerSvrManager@@UAGJHJ@Z	; CPartnerSvrManager::GetInerInterface
PUBLIC	??0CPartnerSvrManager@@QAE@XZ			; CPartnerSvrManager::CPartnerSvrManager
PUBLIC	??1CPartnerSvrManager@@QAE@XZ			; CPartnerSvrManager::~CPartnerSvrManager
PUBLIC	?RemoveItem@CPartnerSvrManager@@QAEHPAUHWND__@@0@Z ; CPartnerSvrManager::RemoveItem
PUBLIC	?RemoveAll@CPartnerSvrManager@@QAEXXZ		; CPartnerSvrManager::RemoveAll
PUBLIC	?SetParentHandle@CPartnerSvrManager@@UAGHEPAUHWND__@@0@Z ; CPartnerSvrManager::SetParentHandle
PUBLIC	??1CRealData_Common@@QAE@XZ			; CRealData_Common::~CRealData_Common
PUBLIC	??$CompareElements@V?$CStringT@DV?$StrTraitMFC_DLL@DV?$ChTraitsCRT@D@ATL@@@@@ATL@@PBD@@YGHPBV?$CStringT@DV?$StrTraitMFC_DLL@DV?$ChTraitsCRT@D@ATL@@@@@ATL@@PBQBD@Z ; CompareElements<ATL::CStringT<char,StrTraitMFC_DLL<char,ATL::ChTraitsCRT<char> > >,char const *>
PUBLIC	??$SerializeElements@H@@YGXAAVCArchive@@PAHH@Z	; SerializeElements<int>
PUBLIC	??$SerializeElements@UFID_SENDDATA@@@@YGXAAVCArchive@@PAUFID_SENDDATA@@H@Z ; SerializeElements<FID_SENDDATA>
PUBLIC	?_OptionsStorage@?1??__local_stdio_scanf_options@@9@4_KA ; `__local_stdio_scanf_options'::`2'::_OptionsStorage
PUBLIC	??_C@_00CNPNBAHC@@				; `string'
PUBLIC	??_C@_0BD@ENGDDGEF@DRLog_ResponseData@		; `string'
PUBLIC	??_R0?AVCObject@@@8				; CObject `RTTI Type Descriptor'
PUBLIC	??_R3CObject@@8					; CObject::`RTTI Class Hierarchy Descriptor'
PUBLIC	??_R2CObject@@8					; CObject::`RTTI Base Class Array'
PUBLIC	??_R1A@?0A@EA@CObject@@8			; CObject::`RTTI Base Class Descriptor at (0,-1,0,64)'
PUBLIC	??_C@_0M@CBBNGGHM@PcTrMng?4dll@			; `string'
PUBLIC	??_C@_0P@IDMAJEGN@HANAROPCTRMAIN@		; `string'
PUBLIC	??_C@_06NDLAHCHE@?$CFs?$CF08X@			; `string'
PUBLIC	??_C@_02EMFKHFLK@?$CFX@				; `string'
PUBLIC	??_7CCriticalSection@@6B@			; CCriticalSection::`vftable'
PUBLIC	??_7?$CArray@UFID_SENDDATA@@AAU1@@@6B@		; CArray<FID_SENDDATA,FID_SENDDATA &>::`vftable'
PUBLIC	??_7?$CMap@V?$CStringT@DV?$StrTraitMFC_DLL@DV?$ChTraitsCRT@D@ATL@@@@@ATL@@PBDHH@@6B@ ; CMap<ATL::CStringT<char,StrTraitMFC_DLL<char,ATL::ChTraitsCRT<char> > >,char const *,int,int>::`vftable'
PUBLIC	??_7CPartnerManager@@6B@			; CPartnerManager::`vftable'
PUBLIC	??_7CPartnerSvrManager@@6B@			; CPartnerSvrManager::`vftable'
PUBLIC	??_C@_05DGKKDHJG@d1015@				; `string'
PUBLIC	??_C@_08IHPMJEPD@GOOPHOOP@			; `string'
PUBLIC	??_C@_07NGBOKMDD@o44003$@			; `string'
PUBLIC	??_C@_07GMOEHFAP@o44010$@			; `string'
PUBLIC	??_C@_08OMHJJDIK@pfbopoop@			; `string'
PUBLIC	??_C@_0M@OGLNBELP@pfboaoop840@			; `string'
PUBLIC	??_C@_0N@LGEIEHHI@pfboaoop8402@			; `string'
PUBLIC	??_C@_0M@PPKGCFPO@pfboaoop841@			; `string'
PUBLIC	??_C@_0M@FDODDDIP@pfbopoop830@			; `string'
PUBLIC	??_C@_0M@EKPIACMO@pfbopoop831@			; `string'
PUBLIC	??_C@_08LBPJCNLI@pfboaoop@			; `string'
PUBLIC	??_C@_05HGNCIFF@d0354@				; `string'
PUBLIC	??_C@_08DDLEADJF@poop0090@			; `string'
PUBLIC	??_C@_05DHBNPEIO@d0366@				; `string'
PUBLIC	??_C@_05COAGMFMP@d0367@				; `string'
PUBLIC	??_C@_05KJJONJAA@d0368@				; `string'
PUBLIC	??_C@_08BPHHAGD@bo028011@			; `string'
PUBLIC	??_C@_05GFCMPLNO@c1002@				; `string'
PUBLIC	??_C@_08BPMNGHAI@POOPPOOP@			; `string'
PUBLIC	??_C@_05ELNNMDND@d1010@				; `string'
PUBLIC	??_C@_05FCMGPCJC@d1011@				; `string'
PUBLIC	??_C@_05HJOLKBFB@d1012@				; `string'
PUBLIC	??_C@_05GAPAJABA@d1013@				; `string'
PUBLIC	??_C@_05CPLBAGNH@d1014@				; `string'
PUBLIC	??_C@_05BNIHGEFF@d1016@				; `string'
PUBLIC	??_C@_05IJKFNIJF@f0201@				; `string'
PUBLIC	??_C@_05CFKCFGAI@s3301@				; `string'
PUBLIC	??_C@_05MOAFKCEF@f3201@				; `string'
PUBLIC	??_C@_05IDAEEJNL@d1018@				; `string'
PUBLIC	??_C@_05DMBEOOBE@d0515@				; `string'
PUBLIC	??_C@_07KDMMOILP@d1012_1@			; `string'
PUBLIC	??_C@_05BOHGBJBE@d0355@				; `string'
PUBLIC	??_C@_05LAIFOIEB@d0369@				; `string'
PUBLIC	??_C@_05EJMFFBE@d1017@				; `string'
PUBLIC	??_C@_0L@LCJFIPAK@SYMBOLDATA@			; `string'
PUBLIC	??_C@_08KFOOADEE@pijs0112@			; `string'
PUBLIC	??_C@_08IOMDFAIH@pijs0111@			; `string'
PUBLIC	??_C@_0CH@EINMAHBK@KHD?5?3?5strTR?5?$DN?5?$CFs?5nKey?5?$DN?5?$CFd?0?5nSt@ ; `string'
PUBLIC	??_C@_0FA@EBCFGNMI@D?3?2git?2src?2IBK?2IBK_DRFN?2ProjSrc@ ; `string'
PUBLIC	??_C@_0BI@OHCKGON@RealKey?5Error?$CI?$CFs?$CJ?$FLLn?$CFd?$FN@ ; `string'
PUBLIC	??_C@_04ICNGLDCO@KXS3@				; `string'
PUBLIC	??_C@_04OKLMFNFP@KXYS@				; `string'
PUBLIC	??_C@_04FNMIFLPJ@EWs3@				; `string'
PUBLIC	??_C@_01HIHLOKLC@1@				; `string'
PUBLIC	??_C@_04BHFKAEFH@IXIJ@				; `string'
PUBLIC	??_C@_02OBAMBAKB@21@				; `string'
PUBLIC	??_C@_04PNILKHIA@FFC0@				; `string'
PUBLIC	??_C@_02OAMOHKJG@31@				; `string'
PUBLIC	??_C@_04INJDIKHL@OOC0@				; `string'
PUBLIC	??_C@_02OFIBGMBD@41@				; `string'
PUBLIC	??_C@_04DIHLEKIB@JFC0@				; `string'
PUBLIC	??_C@_02OGAFLIHN@61@				; `string'
PUBLIC	??_C@_04HJAFHKIM@HWFJ@				; `string'
PUBLIC	??_C@_02OEEDAGCE@51@				; `string'
PUBLIC	??_C@_04OJOAECLD@GTFJ@				; `string'
PUBLIC	??_C@_03HEBKFNAF@101@				; `string'
PUBLIC	??_C@_04MBICOLOB@FOJS@				; `string'
PUBLIC	??_C@_04NBIDCDME@FOFR@				; `string'
PUBLIC	??_C@_02GMLAAMD@FX@				; `string'
PUBLIC	??_C@_04EFHDAFAL@JOC0@				; `string'
PUBLIC	??_C@_03NOBDJFIO@301@				; `string'
PUBLIC	??_C@_03MPCCOOAO@021@				; `string'
PUBLIC	??_C@_03PNBEIMIM@023@				; `string'
PUBLIC	??_C@_02KIDIPBJG@ET@				; `string'
PUBLIC	??_C@_02LAJDCOFE@ST@				; `string'
PUBLIC	??_C@_04GEFJINEE@?$CF?42f@			; `string'
PUBLIC	??_C@_06EGKLOHMB@?$MA?e?A?$LO?$LH?a@		; `string'
PUBLIC	??_C@_04DNPBDGJL@9999@				; `string'
PUBLIC	??_C@_06FDCJKPFJ@?$MA?e?$LI?$LG?$LA?$KI@	; `string'
PUBLIC	??_C@_04KAPECDDI@8888@				; `string'
PUBLIC	??_C@_01EKENIIDA@3@				; `string'
PUBLIC	??_C@_01FDFGLJHB@2@				; `string'
PUBLIC	??_C@_01BMBHCPLG@5@				; `string'
PUBLIC	??_C@_01FAMBOPH@4@				; `string'
PUBLIC	??_C@_03DLDNIBIK@?$CFlf@			; `string'
PUBLIC	??_C@_04IAPIGAEK@9041@				; `string'
PUBLIC	??_C@_04LNJIEJPK@8041@				; `string'
PUBLIC	??_C@_04OBKAGHLG@?$CF06d@			; `string'
PUBLIC	??_C@_02DDEKHPIG@08@				; `string'
PUBLIC	??_C@_02NALOKGEN@03@				; `string'
PUBLIC	??_C@_05MMNALHAH@?$CL?$LI?E?$LM?v@		; `string'
PUBLIC	??_C@_02MIGHPNDL@12@				; `string'
PUBLIC	??_C@_03OJJIDIBL@082@				; `string'
PUBLIC	??_C@_03BDAKGON@079@				; `string'
PUBLIC	??_C@_03NLKOFKJJ@080@				; `string'
PUBLIC	??_C@_03MCLFGLNI@081@				; `string'
PUBLIC	??_C@_01NOFIACDB@w@				; `string'
PUBLIC	??_C@_07OIGEDBEL@drcache@			; `string'
PUBLIC	??_C@_0P@KDIOLOJH@?$CFs?2FindData?2?$CFs@	; `string'
PUBLIC	??_C@_0BB@JMHKDHLP@RequestToday?4ini@		; `string'
PUBLIC	??_C@_05BMGBEOOC@?$CFs?2?$CFs@			; `string'
PUBLIC	??_C@_0N@DEAKEBCF@?$CF04d?$CF02d?$CF02d@	; `string'
PUBLIC	??_C@_06LOHACGPJ@?$CF?9?$CK?4?$CKs@		; `string'
PUBLIC	??_C@_08HKFBHKOD@WorkDate@			; `string'
PUBLIC	??_C@_0N@EGCPBLLD@WorkDate?4dat@		; `string'
PUBLIC	??_C@_05MBOMPHNN@Today@				; `string'
PUBLIC	??_C@_0M@LDGDAJIA@MstCode?4dat@			; `string'
PUBLIC	??_C@_07EODEELBJ@MstCode@			; `string'
PUBLIC	??_C@_09IBOKPBFE@?$CF08X_?$CF08X@		; `string'
PUBLIC	??_R4?$CMap@V?$CStringT@DV?$StrTraitMFC_DLL@DV?$ChTraitsCRT@D@ATL@@@@@ATL@@PBDHH@@6B@ ; CMap<ATL::CStringT<char,StrTraitMFC_DLL<char,ATL::ChTraitsCRT<char> > >,char const *,int,int>::`RTTI Complete Object Locator'
PUBLIC	??_R0?AV?$CMap@V?$CStringT@DV?$StrTraitMFC_DLL@DV?$ChTraitsCRT@D@ATL@@@@@ATL@@PBDHH@@@8 ; CMap<ATL::CStringT<char,StrTraitMFC_DLL<char,ATL::ChTraitsCRT<char> > >,char const *,int,int> `RTTI Type Descriptor'
PUBLIC	??_R3?$CMap@V?$CStringT@DV?$StrTraitMFC_DLL@DV?$ChTraitsCRT@D@ATL@@@@@ATL@@PBDHH@@8 ; CMap<ATL::CStringT<char,StrTraitMFC_DLL<char,ATL::ChTraitsCRT<char> > >,char const *,int,int>::`RTTI Class Hierarchy Descriptor'
PUBLIC	??_R2?$CMap@V?$CStringT@DV?$StrTraitMFC_DLL@DV?$ChTraitsCRT@D@ATL@@@@@ATL@@PBDHH@@8 ; CMap<ATL::CStringT<char,StrTraitMFC_DLL<char,ATL::ChTraitsCRT<char> > >,char const *,int,int>::`RTTI Base Class Array'
PUBLIC	??_R1A@?0A@EA@?$CMap@V?$CStringT@DV?$StrTraitMFC_DLL@DV?$ChTraitsCRT@D@ATL@@@@@ATL@@PBDHH@@8 ; CMap<ATL::CStringT<char,StrTraitMFC_DLL<char,ATL::ChTraitsCRT<char> > >,char const *,int,int>::`RTTI Base Class Descriptor at (0,-1,0,64)'
PUBLIC	??_R4CCriticalSection@@6B@			; CCriticalSection::`RTTI Complete Object Locator'
PUBLIC	??_R0?AVCCriticalSection@@@8			; CCriticalSection `RTTI Type Descriptor'
PUBLIC	??_R3CCriticalSection@@8			; CCriticalSection::`RTTI Class Hierarchy Descriptor'
PUBLIC	??_R2CCriticalSection@@8			; CCriticalSection::`RTTI Base Class Array'
PUBLIC	??_R1A@?0A@EA@CCriticalSection@@8		; CCriticalSection::`RTTI Base Class Descriptor at (0,-1,0,64)'
PUBLIC	??_R1A@?0A@EA@CSyncObject@@8			; CSyncObject::`RTTI Base Class Descriptor at (0,-1,0,64)'
PUBLIC	??_R0?AVCSyncObject@@@8				; CSyncObject `RTTI Type Descriptor'
PUBLIC	??_R3CSyncObject@@8				; CSyncObject::`RTTI Class Hierarchy Descriptor'
PUBLIC	??_R2CSyncObject@@8				; CSyncObject::`RTTI Base Class Array'
PUBLIC	??_R0?AUIPartnerManager@@@8			; IPartnerManager `RTTI Type Descriptor'
PUBLIC	??_R3IPartnerManager@@8				; IPartnerManager::`RTTI Class Hierarchy Descriptor'
PUBLIC	??_R2IPartnerManager@@8				; IPartnerManager::`RTTI Base Class Array'
PUBLIC	??_R1A@?0A@EA@IPartnerManager@@8		; IPartnerManager::`RTTI Base Class Descriptor at (0,-1,0,64)'
PUBLIC	??_R0?AUIPartnerSvrManager@@@8			; IPartnerSvrManager `RTTI Type Descriptor'
PUBLIC	??_R3IPartnerSvrManager@@8			; IPartnerSvrManager::`RTTI Class Hierarchy Descriptor'
PUBLIC	??_R2IPartnerSvrManager@@8			; IPartnerSvrManager::`RTTI Base Class Array'
PUBLIC	??_R1A@?0A@EA@IPartnerSvrManager@@8		; IPartnerSvrManager::`RTTI Base Class Descriptor at (0,-1,0,64)'
PUBLIC	??_R4CPartnerManager@@6B@			; CPartnerManager::`RTTI Complete Object Locator'
PUBLIC	??_R0?AVCPartnerManager@@@8			; CPartnerManager `RTTI Type Descriptor'
PUBLIC	??_R3CPartnerManager@@8				; CPartnerManager::`RTTI Class Hierarchy Descriptor'
PUBLIC	??_R2CPartnerManager@@8				; CPartnerManager::`RTTI Base Class Array'
PUBLIC	??_R1A@?0A@EA@CPartnerManager@@8		; CPartnerManager::`RTTI Base Class Descriptor at (0,-1,0,64)'
PUBLIC	??_R4?$CArray@UFID_SENDDATA@@AAU1@@@6B@		; CArray<FID_SENDDATA,FID_SENDDATA &>::`RTTI Complete Object Locator'
PUBLIC	??_R0?AV?$CArray@UFID_SENDDATA@@AAU1@@@@8	; CArray<FID_SENDDATA,FID_SENDDATA &> `RTTI Type Descriptor'
PUBLIC	??_R3?$CArray@UFID_SENDDATA@@AAU1@@@8		; CArray<FID_SENDDATA,FID_SENDDATA &>::`RTTI Class Hierarchy Descriptor'
PUBLIC	??_R2?$CArray@UFID_SENDDATA@@AAU1@@@8		; CArray<FID_SENDDATA,FID_SENDDATA &>::`RTTI Base Class Array'
PUBLIC	??_R1A@?0A@EA@?$CArray@UFID_SENDDATA@@AAU1@@@8	; CArray<FID_SENDDATA,FID_SENDDATA &>::`RTTI Base Class Descriptor at (0,-1,0,64)'
PUBLIC	??_R4CPartnerSvrManager@@6B@			; CPartnerSvrManager::`RTTI Complete Object Locator'
PUBLIC	??_R0?AVCPartnerSvrManager@@@8			; CPartnerSvrManager `RTTI Type Descriptor'
PUBLIC	??_R3CPartnerSvrManager@@8			; CPartnerSvrManager::`RTTI Class Hierarchy Descriptor'
PUBLIC	??_R2CPartnerSvrManager@@8			; CPartnerSvrManager::`RTTI Base Class Array'
PUBLIC	??_R1A@?0A@EA@CPartnerSvrManager@@8		; CPartnerSvrManager::`RTTI Base Class Descriptor at (0,-1,0,64)'
PUBLIC	__real@4059000000000000
EXTRN	??_L@YGXPAXIIP6EX0@Z1@Z:PROC			; `eh vector constructor iterator'
EXTRN	??_M@YGXPAXIIP6EX0@Z@Z:PROC			; `eh vector destructor iterator'
EXTRN	??2@YAPAXI@Z:PROC				; operator new
EXTRN	??3@YAXPAX@Z:PROC				; operator delete
EXTRN	??3@YAXPAXI@Z:PROC				; operator delete
EXTRN	?__global_delete@@YAXPAXI@Z:PROC		; __global_delete
EXTRN	??_U@YAPAXI@Z:PROC				; operator new[]
EXTRN	??_V@YAXPAX@Z:PROC				; operator delete[]
EXTRN	___std_terminate:PROC
EXTRN	__imp___invalid_parameter_noinfo:PROC
EXTRN	__imp___errno:PROC
EXTRN	__imp__strncpy:PROC
EXTRN	__imp__GetEnvironmentVariableA@12:PROC
EXTRN	__imp__GetLastError@0:PROC
EXTRN	__imp__EnterCriticalSection@4:PROC
EXTRN	__imp__LeaveCriticalSection@4:PROC
EXTRN	__imp__InitializeCriticalSectionAndSpinCount@8:PROC
EXTRN	__imp__DeleteCriticalSection@4:PROC
EXTRN	__imp__GetModuleHandleA@4:PROC
EXTRN	__imp__GetProcAddress@8:PROC
EXTRN	__imp__WritePrivateProfileStringA@16:PROC
EXTRN	__imp__RegisterWindowMessageA@4:PROC
EXTRN	__imp__SendMessageA@16:PROC
EXTRN	__imp__IsWindow@4:PROC
EXTRN	__imp__SetCursor@4:PROC
EXTRN	__imp__LoadCursorA@8:PROC
EXTRN	__imp__fclose:PROC
EXTRN	__imp__fopen:PROC
EXTRN	__imp__fwrite:PROC
EXTRN	__imp____stdio_common_vsscanf:PROC
EXTRN	__imp__atof:PROC
EXTRN	__imp__atoi:PROC
EXTRN	__imp___localtime64_s:PROC
EXTRN	__imp___time64:PROC
EXTRN	?AfxThrowMemoryException@@YGXXZ:PROC		; AfxThrowMemoryException
EXTRN	?AfxThrowInvalidArgException@@YGXXZ:PROC	; AfxThrowInvalidArgException
EXTRN	?AfxThrowArchiveException@@YGXHPBD@Z:PROC	; AfxThrowArchiveException
EXTRN	?AfxThrowOleException@@YGXJ@Z:PROC		; AfxThrowOleException
EXTRN	?GetRuntimeClass@CObject@@UBEPAUCRuntimeClass@@XZ:PROC ; CObject::GetRuntimeClass
EXTRN	__imp_??A?$CSimpleStringT@D$00@ATL@@QBEDH@Z:PROC
EXTRN	__imp_?GetAt@?$CSimpleStringT@D$00@ATL@@QBEDH@Z:PROC
EXTRN	__imp_?Concatenate@?$CSimpleStringT@D$00@ATL@@KAXAAV12@PBDH1H@Z:PROC
EXTRN	__imp_??0?$CStringT@DV?$StrTraitMFC_DLL@DV?$ChTraitsCRT@D@ATL@@@@@ATL@@QAE@XZ:PROC
EXTRN	__imp_??0?$CStringT@DV?$StrTraitMFC_DLL@DV?$ChTraitsCRT@D@ATL@@@@@ATL@@QAE@PAUIAtlStringMgr@1@@Z:PROC
EXTRN	__imp_??0?$CStringT@DV?$StrTraitMFC_DLL@DV?$ChTraitsCRT@D@ATL@@@@@ATL@@QAE@ABV01@@Z:PROC
EXTRN	__imp_??0?$CStringT@DV?$StrTraitMFC_DLL@DV?$ChTraitsCRT@D@ATL@@@@@ATL@@QAE@PBD@Z:PROC
EXTRN	__imp_??0?$CStringT@DV?$StrTraitMFC_DLL@DV?$ChTraitsCRT@D@ATL@@@@@ATL@@QAE@DH@Z:PROC
EXTRN	__imp_??1?$CStringT@DV?$StrTraitMFC_DLL@DV?$ChTraitsCRT@D@ATL@@@@@ATL@@QAE@XZ:PROC
EXTRN	__imp_??4?$CStringT@DV?$StrTraitMFC_DLL@DV?$ChTraitsCRT@D@ATL@@@@@ATL@@QAEAAV01@ABV01@@Z:PROC
EXTRN	__imp_??4?$CStringT@DV?$StrTraitMFC_DLL@DV?$ChTraitsCRT@D@ATL@@@@@ATL@@QAEAAV01@PBD@Z:PROC
EXTRN	__imp_??Y?$CStringT@DV?$StrTraitMFC_DLL@DV?$ChTraitsCRT@D@ATL@@@@@ATL@@QAEAAV01@ABV?$CSimpleStringT@D$00@1@@Z:PROC
EXTRN	__imp_??Y?$CStringT@DV?$StrTraitMFC_DLL@DV?$ChTraitsCRT@D@ATL@@@@@ATL@@QAEAAV01@D@Z:PROC
EXTRN	__imp_?GetManager@?$CStringT@DV?$StrTraitMFC_DLL@DV?$ChTraitsCRT@D@ATL@@@@@ATL@@QBEPAUIAtlStringMgr@2@XZ:PROC
EXTRN	__imp_?Compare@?$CStringT@DV?$StrTraitMFC_DLL@DV?$ChTraitsCRT@D@ATL@@@@@ATL@@QBEHPBD@Z:PROC
EXTRN	__imp_?CompareNoCase@?$CStringT@DV?$StrTraitMFC_DLL@DV?$ChTraitsCRT@D@ATL@@@@@ATL@@QBEHPBD@Z:PROC
EXTRN	__imp_?Remove@?$CStringT@DV?$StrTraitMFC_DLL@DV?$ChTraitsCRT@D@ATL@@@@@ATL@@QAEHD@Z:PROC
EXTRN	__imp_?TrimRight@?$CStringT@DV?$StrTraitMFC_DLL@DV?$ChTraitsCRT@D@ATL@@@@@ATL@@QAEAAV12@XZ:PROC
EXTRN	__imp_?TrimLeft@?$CStringT@DV?$StrTraitMFC_DLL@DV?$ChTraitsCRT@D@ATL@@@@@ATL@@QAEAAV12@XZ:PROC
EXTRN	__imp_?Mid@?$CStringT@DV?$StrTraitMFC_DLL@DV?$ChTraitsCRT@D@ATL@@@@@ATL@@QBE?AV12@H@Z:PROC
EXTRN	__imp_?Left@?$CStringT@DV?$StrTraitMFC_DLL@DV?$ChTraitsCRT@D@ATL@@@@@ATL@@QBE?AV12@H@Z:PROC
EXTRN	__imp_?Format@?$CStringT@DV?$StrTraitMFC_DLL@DV?$ChTraitsCRT@D@ATL@@@@@ATL@@QAAXPBDZZ:PROC
EXTRN	?Read@CArchive@@QAEIPAXI@Z:PROC			; CArchive::Read
EXTRN	?Write@CArchive@@QAEXPBXI@Z:PROC		; CArchive::Write
EXTRN	?ReadCount@CArchive@@QAEKXZ:PROC		; CArchive::ReadCount
EXTRN	?WriteCount@CArchive@@QAEXK@Z:PROC		; CArchive::WriteCount
EXTRN	??0CStringArray@@QAE@XZ:PROC			; CStringArray::CStringArray
EXTRN	?SetAtGrow@CStringArray@@QAEXHABV?$CStringT@DV?$StrTraitMFC_DLL@DV?$ChTraitsCRT@D@ATL@@@@@ATL@@@Z:PROC ; CStringArray::SetAtGrow
EXTRN	?RemoveAt@CStringArray@@QAEXHH@Z:PROC		; CStringArray::RemoveAt
EXTRN	??1CStringArray@@UAE@XZ:PROC			; CStringArray::~CStringArray
EXTRN	??0CStringList@@QAE@H@Z:PROC			; CStringList::CStringList
EXTRN	?AddHead@CStringList@@QAEPAU__POSITION@@PBD@Z:PROC ; CStringList::AddHead
EXTRN	?RemoveAll@CStringList@@QAEXXZ:PROC		; CStringList::RemoveAll
EXTRN	?RemoveAt@CStringList@@QAEXPAU__POSITION@@@Z:PROC ; CStringList::RemoveAt
EXTRN	?Find@CStringList@@QBEPAU__POSITION@@PBDPAU2@@Z:PROC ; CStringList::Find
EXTRN	??1CStringList@@UAE@XZ:PROC			; CStringList::~CStringList
EXTRN	??0CMapStringToPtr@@QAE@H@Z:PROC		; CMapStringToPtr::CMapStringToPtr
EXTRN	?Lookup@CMapStringToPtr@@QBEHPBDAAPAX@Z:PROC	; CMapStringToPtr::Lookup
EXTRN	??ACMapStringToPtr@@QAEAAPAXPBD@Z:PROC		; CMapStringToPtr::operator[]
EXTRN	?RemoveKey@CMapStringToPtr@@QAEHPBD@Z:PROC	; CMapStringToPtr::RemoveKey
EXTRN	?RemoveAll@CMapStringToPtr@@QAEXXZ:PROC		; CMapStringToPtr::RemoveAll
EXTRN	?GetNextAssoc@CMapStringToPtr@@QBEXAAPAU__POSITION@@AAV?$CStringT@DV?$StrTraitMFC_DLL@DV?$ChTraitsCRT@D@ATL@@@@@ATL@@AAPAX@Z:PROC ; CMapStringToPtr::GetNextAssoc
EXTRN	??1CMapStringToPtr@@UAE@XZ:PROC			; CMapStringToPtr::~CMapStringToPtr
EXTRN	??ACMapStringToString@@QAEAAV?$CStringT@DV?$StrTraitMFC_DLL@DV?$ChTraitsCRT@D@ATL@@@@@ATL@@PBD@Z:PROC ; CMapStringToString::operator[]
EXTRN	?Create@CPlex@@SGPAU1@AAPAU1@II@Z:PROC		; CPlex::Create
EXTRN	?FreeDataChain@CPlex@@QAEXXZ:PROC		; CPlex::FreeDataChain
EXTRN	??$SerializeElements@V?$CStringT@DV?$StrTraitMFC_DLL@DV?$ChTraitsCRT@D@ATL@@@@@ATL@@@@YGXAAVCArchive@@PAV?$CStringT@DV?$StrTraitMFC_DLL@DV?$ChTraitsCRT@D@ATL@@@@@ATL@@H@Z:PROC ; SerializeElements<ATL::CStringT<char,StrTraitMFC_DLL<char,ATL::ChTraitsCRT<char> > > >
EXTRN	??$HashKey@PBD@@YGIPBD@Z:PROC			; HashKey<char const *>
EXTRN	?AfxMessageBox@@YGHPBDII@Z:PROC			; AfxMessageBox
EXTRN	?GetSendDataType@CChartItemMarket@@QAEHXZ:PROC	; CChartItemMarket::GetSendDataType
EXTRN	??0CDataConverter@@QAE@XZ:PROC			; CDataConverter::CDataConverter
EXTRN	??1CDataConverter@@UAE@XZ:PROC			; CDataConverter::~CDataConverter
EXTRN	?ConvertToFid@CDataConverter@@QAE?AV?$CStringT@DV?$StrTraitMFC_DLL@DV?$ChTraitsCRT@D@ATL@@@@@ATL@@V23@PAXH@Z:PROC ; CDataConverter::ConvertToFid
EXTRN	?Convert2Struct@CDataConverter@@QAEPADPAEHHAAH@Z:PROC ; CDataConverter::Convert2Struct
EXTRN	?Convert2Struct@CDataConverter@@QAEPADPAEHV?$CStringT@DV?$StrTraitMFC_DLL@DV?$ChTraitsCRT@D@ATL@@@@@ATL@@AAH@Z:PROC ; CDataConverter::Convert2Struct
EXTRN	?GetTrNo@CDataConverter@@QAE?AV?$CStringT@DV?$StrTraitMFC_DLL@DV?$ChTraitsCRT@D@ATL@@@@@ATL@@H@Z:PROC ; CDataConverter::GetTrNo
EXTRN	?Parser@CDataConverter@@SA?AV?$CStringT@DV?$StrTraitMFC_DLL@DV?$ChTraitsCRT@D@ATL@@@@@ATL@@AAV23@V23@@Z:PROC ; CDataConverter::Parser
EXTRN	?TbondPrcLToF@CDataConverter@@SAHDHNAAV?$CStringT@DV?$StrTraitMFC_DLL@DV?$ChTraitsCRT@D@ATL@@@@@ATL@@@Z:PROC ; CDataConverter::TbondPrcLToF
EXTRN	?GetDecimalRate@CDataConverter@@SADV?$CStringT@DV?$StrTraitMFC_DLL@DV?$ChTraitsCRT@D@ATL@@@@@ATL@@AAHAANAAV23@@Z:PROC ; CDataConverter::GetDecimalRate
EXTRN	?DataSeparation@CDataConverter@@SANV?$CStringT@DV?$StrTraitMFC_DLL@DV?$ChTraitsCRT@D@ATL@@@@@ATL@@H@Z:PROC ; CDataConverter::DataSeparation
EXTRN	?GetConv2StructGuideLine@CDataConverter@@QAEPADHAAH@Z:PROC ; CDataConverter::GetConv2StructGuideLine
EXTRN	??0CSyncObject@@QAE@PBD@Z:PROC			; CSyncObject::CSyncObject
EXTRN	??1CSyncObject@@UAE@XZ:PROC			; CSyncObject::~CSyncObject
EXTRN	?GetRuntimeClass@CCriticalSection@@UBEPAUCRuntimeClass@@XZ:PROC ; CCriticalSection::GetRuntimeClass
EXTRN	??_ECCriticalSection@@UAEPAXI@Z:PROC		; CCriticalSection::`vector deleting destructor'
EXTRN	?GetInterface@CGateManager@@UAGJHJ@Z:PROC	; CGateManager::GetInterface
EXTRN	??_E?$CArray@UFID_SENDDATA@@AAU1@@@UAEPAXI@Z:PROC ; CArray<FID_SENDDATA,FID_SENDDATA &>::`vector deleting destructor'
EXTRN	??_E?$CMap@V?$CStringT@DV?$StrTraitMFC_DLL@DV?$ChTraitsCRT@D@ATL@@@@@ATL@@PBDHH@@UAEPAXI@Z:PROC ; CMap<ATL::CStringT<char,StrTraitMFC_DLL<char,ATL::ChTraitsCRT<char> > >,char const *,int,int>::`vector deleting destructor'
EXTRN	?GetSiteUpKode@CPartnerUtilManager@@QAEHPBDAAV?$CStringT@DV?$StrTraitMFC_DLL@DV?$ChTraitsCRT@D@ATL@@@@@ATL@@@Z:PROC ; CPartnerUtilManager::GetSiteUpKode
EXTRN	?DoGetMapStrObj_UpDnInfo@CPartnerMngApp@@QAEXPBDAAV?$CStringT@DV?$StrTraitMFC_DLL@DV?$ChTraitsCRT@D@ATL@@@@@ATL@@1@Z:PROC ; CPartnerMngApp::DoGetMapStrObj_UpDnInfo
EXTRN	@__security_check_cookie@4:PROC
EXTRN	___CxxFrameHandler3:PROC
EXTRN	_memcpy:PROC
EXTRN	_memset:PROC
EXTRN	??_7type_info@@6B@:QWORD			; type_info::`vftable'
EXTRN	?g_pDRDebuger@@3PAVCDRDebugerLoader@@A:DWORD	; g_pDRDebuger
EXTRN	?theApp@@3VCPartnerMngApp@@A:BYTE		; theApp
EXTRN	___security_cookie:DWORD
EXTRN	__fltused:DWORD
;	COMDAT ?_OptionsStorage@?1??__local_stdio_scanf_options@@9@4_KA
_BSS	SEGMENT
?_OptionsStorage@?1??__local_stdio_scanf_options@@9@4_KA DQ 01H DUP (?) ; `__local_stdio_scanf_options'::`2'::_OptionsStorage
_BSS	ENDS
_BSS	SEGMENT
?RMSG_INTERFACE@@3IB DD 01H DUP (?)			; RMSG_INTERFACE
?RMSG_GETPCTRDATA@@3IB DD 01H DUP (?)			; RMSG_GETPCTRDATA
?RMSG_SETPCTRDATA@@3IB DD 01H DUP (?)			; RMSG_SETPCTRDATA
?RMSG_GETSIGNAL_REAL@@3IB DD 01H DUP (?)		; RMSG_GETSIGNAL_REAL
?RMSG_RECEIVE_DIRECT@@3IB DD 01H DUP (?)		; RMSG_RECEIVE_DIRECT
_BSS	ENDS
CRT$XCU	SEGMENT
?RMSG_INTERFACE$initializer$@@3P6AXXZA DD FLAT:??__ERMSG_INTERFACE@@YAXXZ ; RMSG_INTERFACE$initializer$
CRT$XCU	ENDS
;	COMDAT __real@4059000000000000
CONST	SEGMENT
__real@4059000000000000 DQ 04059000000000000r	; 100
CONST	ENDS
;	COMDAT ??_R1A@?0A@EA@CPartnerSvrManager@@8
rdata$r	SEGMENT
??_R1A@?0A@EA@CPartnerSvrManager@@8 DD FLAT:??_R0?AVCPartnerSvrManager@@@8 ; CPartnerSvrManager::`RTTI Base Class Descriptor at (0,-1,0,64)'
	DD	01H
	DD	00H
	DD	0ffffffffH
	DD	00H
	DD	040H
	DD	FLAT:??_R3CPartnerSvrManager@@8
rdata$r	ENDS
;	COMDAT ??_R2CPartnerSvrManager@@8
rdata$r	SEGMENT
??_R2CPartnerSvrManager@@8 DD FLAT:??_R1A@?0A@EA@CPartnerSvrManager@@8 ; CPartnerSvrManager::`RTTI Base Class Array'
	DD	FLAT:??_R1A@?0A@EA@IPartnerSvrManager@@8
rdata$r	ENDS
;	COMDAT ??_R3CPartnerSvrManager@@8
rdata$r	SEGMENT
??_R3CPartnerSvrManager@@8 DD 00H			; CPartnerSvrManager::`RTTI Class Hierarchy Descriptor'
	DD	00H
	DD	02H
	DD	FLAT:??_R2CPartnerSvrManager@@8
rdata$r	ENDS
;	COMDAT ??_R0?AVCPartnerSvrManager@@@8
data$rs	SEGMENT
??_R0?AVCPartnerSvrManager@@@8 DD FLAT:??_7type_info@@6B@ ; CPartnerSvrManager `RTTI Type Descriptor'
	DD	00H
	DB	'.?AVCPartnerSvrManager@@', 00H
data$rs	ENDS
;	COMDAT ??_R4CPartnerSvrManager@@6B@
rdata$r	SEGMENT
??_R4CPartnerSvrManager@@6B@ DD 00H			; CPartnerSvrManager::`RTTI Complete Object Locator'
	DD	00H
	DD	00H
	DD	FLAT:??_R0?AVCPartnerSvrManager@@@8
	DD	FLAT:??_R3CPartnerSvrManager@@8
rdata$r	ENDS
;	COMDAT ??_R1A@?0A@EA@?$CArray@UFID_SENDDATA@@AAU1@@@8
rdata$r	SEGMENT
??_R1A@?0A@EA@?$CArray@UFID_SENDDATA@@AAU1@@@8 DD FLAT:??_R0?AV?$CArray@UFID_SENDDATA@@AAU1@@@@8 ; CArray<FID_SENDDATA,FID_SENDDATA &>::`RTTI Base Class Descriptor at (0,-1,0,64)'
	DD	01H
	DD	00H
	DD	0ffffffffH
	DD	00H
	DD	040H
	DD	FLAT:??_R3?$CArray@UFID_SENDDATA@@AAU1@@@8
rdata$r	ENDS
;	COMDAT ??_R2?$CArray@UFID_SENDDATA@@AAU1@@@8
rdata$r	SEGMENT
??_R2?$CArray@UFID_SENDDATA@@AAU1@@@8 DD FLAT:??_R1A@?0A@EA@?$CArray@UFID_SENDDATA@@AAU1@@@8 ; CArray<FID_SENDDATA,FID_SENDDATA &>::`RTTI Base Class Array'
	DD	FLAT:??_R1A@?0A@EA@CObject@@8
rdata$r	ENDS
;	COMDAT ??_R3?$CArray@UFID_SENDDATA@@AAU1@@@8
rdata$r	SEGMENT
??_R3?$CArray@UFID_SENDDATA@@AAU1@@@8 DD 00H		; CArray<FID_SENDDATA,FID_SENDDATA &>::`RTTI Class Hierarchy Descriptor'
	DD	00H
	DD	02H
	DD	FLAT:??_R2?$CArray@UFID_SENDDATA@@AAU1@@@8
rdata$r	ENDS
;	COMDAT ??_R0?AV?$CArray@UFID_SENDDATA@@AAU1@@@@8
data$rs	SEGMENT
??_R0?AV?$CArray@UFID_SENDDATA@@AAU1@@@@8 DD FLAT:??_7type_info@@6B@ ; CArray<FID_SENDDATA,FID_SENDDATA &> `RTTI Type Descriptor'
	DD	00H
	DB	'.?AV?$CArray@UFID_SENDDATA@@AAU1@@@', 00H
data$rs	ENDS
;	COMDAT ??_R4?$CArray@UFID_SENDDATA@@AAU1@@@6B@
rdata$r	SEGMENT
??_R4?$CArray@UFID_SENDDATA@@AAU1@@@6B@ DD 00H		; CArray<FID_SENDDATA,FID_SENDDATA &>::`RTTI Complete Object Locator'
	DD	00H
	DD	00H
	DD	FLAT:??_R0?AV?$CArray@UFID_SENDDATA@@AAU1@@@@8
	DD	FLAT:??_R3?$CArray@UFID_SENDDATA@@AAU1@@@8
rdata$r	ENDS
;	COMDAT ??_R1A@?0A@EA@CPartnerManager@@8
rdata$r	SEGMENT
??_R1A@?0A@EA@CPartnerManager@@8 DD FLAT:??_R0?AVCPartnerManager@@@8 ; CPartnerManager::`RTTI Base Class Descriptor at (0,-1,0,64)'
	DD	01H
	DD	00H
	DD	0ffffffffH
	DD	00H
	DD	040H
	DD	FLAT:??_R3CPartnerManager@@8
rdata$r	ENDS
;	COMDAT ??_R2CPartnerManager@@8
rdata$r	SEGMENT
??_R2CPartnerManager@@8 DD FLAT:??_R1A@?0A@EA@CPartnerManager@@8 ; CPartnerManager::`RTTI Base Class Array'
	DD	FLAT:??_R1A@?0A@EA@IPartnerManager@@8
rdata$r	ENDS
;	COMDAT ??_R3CPartnerManager@@8
rdata$r	SEGMENT
??_R3CPartnerManager@@8 DD 00H				; CPartnerManager::`RTTI Class Hierarchy Descriptor'
	DD	00H
	DD	02H
	DD	FLAT:??_R2CPartnerManager@@8
rdata$r	ENDS
;	COMDAT ??_R0?AVCPartnerManager@@@8
data$rs	SEGMENT
??_R0?AVCPartnerManager@@@8 DD FLAT:??_7type_info@@6B@	; CPartnerManager `RTTI Type Descriptor'
	DD	00H
	DB	'.?AVCPartnerManager@@', 00H
data$rs	ENDS
;	COMDAT ??_R4CPartnerManager@@6B@
rdata$r	SEGMENT
??_R4CPartnerManager@@6B@ DD 00H			; CPartnerManager::`RTTI Complete Object Locator'
	DD	00H
	DD	00H
	DD	FLAT:??_R0?AVCPartnerManager@@@8
	DD	FLAT:??_R3CPartnerManager@@8
rdata$r	ENDS
;	COMDAT ??_R1A@?0A@EA@IPartnerSvrManager@@8
rdata$r	SEGMENT
??_R1A@?0A@EA@IPartnerSvrManager@@8 DD FLAT:??_R0?AUIPartnerSvrManager@@@8 ; IPartnerSvrManager::`RTTI Base Class Descriptor at (0,-1,0,64)'
	DD	00H
	DD	00H
	DD	0ffffffffH
	DD	00H
	DD	040H
	DD	FLAT:??_R3IPartnerSvrManager@@8
rdata$r	ENDS
;	COMDAT ??_R2IPartnerSvrManager@@8
rdata$r	SEGMENT
??_R2IPartnerSvrManager@@8 DD FLAT:??_R1A@?0A@EA@IPartnerSvrManager@@8 ; IPartnerSvrManager::`RTTI Base Class Array'
rdata$r	ENDS
;	COMDAT ??_R3IPartnerSvrManager@@8
rdata$r	SEGMENT
??_R3IPartnerSvrManager@@8 DD 00H			; IPartnerSvrManager::`RTTI Class Hierarchy Descriptor'
	DD	00H
	DD	01H
	DD	FLAT:??_R2IPartnerSvrManager@@8
rdata$r	ENDS
;	COMDAT ??_R0?AUIPartnerSvrManager@@@8
data$rs	SEGMENT
??_R0?AUIPartnerSvrManager@@@8 DD FLAT:??_7type_info@@6B@ ; IPartnerSvrManager `RTTI Type Descriptor'
	DD	00H
	DB	'.?AUIPartnerSvrManager@@', 00H
data$rs	ENDS
;	COMDAT ??_R1A@?0A@EA@IPartnerManager@@8
rdata$r	SEGMENT
??_R1A@?0A@EA@IPartnerManager@@8 DD FLAT:??_R0?AUIPartnerManager@@@8 ; IPartnerManager::`RTTI Base Class Descriptor at (0,-1,0,64)'
	DD	00H
	DD	00H
	DD	0ffffffffH
	DD	00H
	DD	040H
	DD	FLAT:??_R3IPartnerManager@@8
rdata$r	ENDS
;	COMDAT ??_R2IPartnerManager@@8
rdata$r	SEGMENT
??_R2IPartnerManager@@8 DD FLAT:??_R1A@?0A@EA@IPartnerManager@@8 ; IPartnerManager::`RTTI Base Class Array'
rdata$r	ENDS
;	COMDAT ??_R3IPartnerManager@@8
rdata$r	SEGMENT
??_R3IPartnerManager@@8 DD 00H				; IPartnerManager::`RTTI Class Hierarchy Descriptor'
	DD	00H
	DD	01H
	DD	FLAT:??_R2IPartnerManager@@8
rdata$r	ENDS
;	COMDAT ??_R0?AUIPartnerManager@@@8
data$rs	SEGMENT
??_R0?AUIPartnerManager@@@8 DD FLAT:??_7type_info@@6B@	; IPartnerManager `RTTI Type Descriptor'
	DD	00H
	DB	'.?AUIPartnerManager@@', 00H
data$rs	ENDS
;	COMDAT ??_R2CSyncObject@@8
rdata$r	SEGMENT
??_R2CSyncObject@@8 DD FLAT:??_R1A@?0A@EA@CSyncObject@@8 ; CSyncObject::`RTTI Base Class Array'
	DD	FLAT:??_R1A@?0A@EA@CObject@@8
rdata$r	ENDS
;	COMDAT ??_R3CSyncObject@@8
rdata$r	SEGMENT
??_R3CSyncObject@@8 DD 00H				; CSyncObject::`RTTI Class Hierarchy Descriptor'
	DD	00H
	DD	02H
	DD	FLAT:??_R2CSyncObject@@8
rdata$r	ENDS
;	COMDAT ??_R0?AVCSyncObject@@@8
data$rs	SEGMENT
??_R0?AVCSyncObject@@@8 DD FLAT:??_7type_info@@6B@	; CSyncObject `RTTI Type Descriptor'
	DD	00H
	DB	'.?AVCSyncObject@@', 00H
data$rs	ENDS
;	COMDAT ??_R1A@?0A@EA@CSyncObject@@8
rdata$r	SEGMENT
??_R1A@?0A@EA@CSyncObject@@8 DD FLAT:??_R0?AVCSyncObject@@@8 ; CSyncObject::`RTTI Base Class Descriptor at (0,-1,0,64)'
	DD	01H
	DD	00H
	DD	0ffffffffH
	DD	00H
	DD	040H
	DD	FLAT:??_R3CSyncObject@@8
rdata$r	ENDS
;	COMDAT ??_R1A@?0A@EA@CCriticalSection@@8
rdata$r	SEGMENT
??_R1A@?0A@EA@CCriticalSection@@8 DD FLAT:??_R0?AVCCriticalSection@@@8 ; CCriticalSection::`RTTI Base Class Descriptor at (0,-1,0,64)'
	DD	02H
	DD	00H
	DD	0ffffffffH
	DD	00H
	DD	040H
	DD	FLAT:??_R3CCriticalSection@@8
rdata$r	ENDS
;	COMDAT ??_R2CCriticalSection@@8
rdata$r	SEGMENT
??_R2CCriticalSection@@8 DD FLAT:??_R1A@?0A@EA@CCriticalSection@@8 ; CCriticalSection::`RTTI Base Class Array'
	DD	FLAT:??_R1A@?0A@EA@CSyncObject@@8
	DD	FLAT:??_R1A@?0A@EA@CObject@@8
rdata$r	ENDS
;	COMDAT ??_R3CCriticalSection@@8
rdata$r	SEGMENT
??_R3CCriticalSection@@8 DD 00H				; CCriticalSection::`RTTI Class Hierarchy Descriptor'
	DD	00H
	DD	03H
	DD	FLAT:??_R2CCriticalSection@@8
rdata$r	ENDS
;	COMDAT ??_R0?AVCCriticalSection@@@8
data$rs	SEGMENT
??_R0?AVCCriticalSection@@@8 DD FLAT:??_7type_info@@6B@	; CCriticalSection `RTTI Type Descriptor'
	DD	00H
	DB	'.?AVCCriticalSection@@', 00H
data$rs	ENDS
;	COMDAT ??_R4CCriticalSection@@6B@
rdata$r	SEGMENT
??_R4CCriticalSection@@6B@ DD 00H			; CCriticalSection::`RTTI Complete Object Locator'
	DD	00H
	DD	00H
	DD	FLAT:??_R0?AVCCriticalSection@@@8
	DD	FLAT:??_R3CCriticalSection@@8
rdata$r	ENDS
;	COMDAT ??_R1A@?0A@EA@?$CMap@V?$CStringT@DV?$StrTraitMFC_DLL@DV?$ChTraitsCRT@D@ATL@@@@@ATL@@PBDHH@@8
rdata$r	SEGMENT
??_R1A@?0A@EA@?$CMap@V?$CStringT@DV?$StrTraitMFC_DLL@DV?$ChTraitsCRT@D@ATL@@@@@ATL@@PBDHH@@8 DD FLAT:??_R0?AV?$CMap@V?$CStringT@DV?$StrTraitMFC_DLL@DV?$ChTraitsCRT@D@ATL@@@@@ATL@@PBDHH@@@8 ; CMap<ATL::CStringT<char,StrTraitMFC_DLL<char,ATL::ChTraitsCRT<char> > >,char const *,int,int>::`RTTI Base Class Descriptor at (0,-1,0,64)'
	DD	01H
	DD	00H
	DD	0ffffffffH
	DD	00H
	DD	040H
	DD	FLAT:??_R3?$CMap@V?$CStringT@DV?$StrTraitMFC_DLL@DV?$ChTraitsCRT@D@ATL@@@@@ATL@@PBDHH@@8
rdata$r	ENDS
;	COMDAT ??_R2?$CMap@V?$CStringT@DV?$StrTraitMFC_DLL@DV?$ChTraitsCRT@D@ATL@@@@@ATL@@PBDHH@@8
rdata$r	SEGMENT
??_R2?$CMap@V?$CStringT@DV?$StrTraitMFC_DLL@DV?$ChTraitsCRT@D@ATL@@@@@ATL@@PBDHH@@8 DD FLAT:??_R1A@?0A@EA@?$CMap@V?$CStringT@DV?$StrTraitMFC_DLL@DV?$ChTraitsCRT@D@ATL@@@@@ATL@@PBDHH@@8 ; CMap<ATL::CStringT<char,StrTraitMFC_DLL<char,ATL::ChTraitsCRT<char> > >,char const *,int,int>::`RTTI Base Class Array'
	DD	FLAT:??_R1A@?0A@EA@CObject@@8
rdata$r	ENDS
;	COMDAT ??_R3?$CMap@V?$CStringT@DV?$StrTraitMFC_DLL@DV?$ChTraitsCRT@D@ATL@@@@@ATL@@PBDHH@@8
rdata$r	SEGMENT
??_R3?$CMap@V?$CStringT@DV?$StrTraitMFC_DLL@DV?$ChTraitsCRT@D@ATL@@@@@ATL@@PBDHH@@8 DD 00H ; CMap<ATL::CStringT<char,StrTraitMFC_DLL<char,ATL::ChTraitsCRT<char> > >,char const *,int,int>::`RTTI Class Hierarchy Descriptor'
	DD	00H
	DD	02H
	DD	FLAT:??_R2?$CMap@V?$CStringT@DV?$StrTraitMFC_DLL@DV?$ChTraitsCRT@D@ATL@@@@@ATL@@PBDHH@@8
rdata$r	ENDS
;	COMDAT ??_R0?AV?$CMap@V?$CStringT@DV?$StrTraitMFC_DLL@DV?$ChTraitsCRT@D@ATL@@@@@ATL@@PBDHH@@@8
data$rs	SEGMENT
??_R0?AV?$CMap@V?$CStringT@DV?$StrTraitMFC_DLL@DV?$ChTraitsCRT@D@ATL@@@@@ATL@@PBDHH@@@8 DD FLAT:??_7type_info@@6B@ ; CMap<ATL::CStringT<char,StrTraitMFC_DLL<char,ATL::ChTraitsCRT<char> > >,char const *,int,int> `RTTI Type Descriptor'
	DD	00H
	DB	'.?AV?$CMap@V?$CStringT@DV?$StrTraitMFC_DLL@DV?$ChTraitsC'
	DB	'RT@D@ATL@@@@@ATL@@PBDHH@@', 00H
data$rs	ENDS
;	COMDAT ??_R4?$CMap@V?$CStringT@DV?$StrTraitMFC_DLL@DV?$ChTraitsCRT@D@ATL@@@@@ATL@@PBDHH@@6B@
rdata$r	SEGMENT
??_R4?$CMap@V?$CStringT@DV?$StrTraitMFC_DLL@DV?$ChTraitsCRT@D@ATL@@@@@ATL@@PBDHH@@6B@ DD 00H ; CMap<ATL::CStringT<char,StrTraitMFC_DLL<char,ATL::ChTraitsCRT<char> > >,char const *,int,int>::`RTTI Complete Object Locator'
	DD	00H
	DD	00H
	DD	FLAT:??_R0?AV?$CMap@V?$CStringT@DV?$StrTraitMFC_DLL@DV?$ChTraitsCRT@D@ATL@@@@@ATL@@PBDHH@@@8
	DD	FLAT:??_R3?$CMap@V?$CStringT@DV?$StrTraitMFC_DLL@DV?$ChTraitsCRT@D@ATL@@@@@ATL@@PBDHH@@8
rdata$r	ENDS
;	COMDAT ??_C@_09IBOKPBFE@?$CF08X_?$CF08X@
CONST	SEGMENT
??_C@_09IBOKPBFE@?$CF08X_?$CF08X@ DB '%08X_%08X', 00H	; `string'
CONST	ENDS
;	COMDAT ??_C@_07EODEELBJ@MstCode@
CONST	SEGMENT
??_C@_07EODEELBJ@MstCode@ DB 'MstCode', 00H		; `string'
CONST	ENDS
;	COMDAT ??_C@_0M@LDGDAJIA@MstCode?4dat@
CONST	SEGMENT
??_C@_0M@LDGDAJIA@MstCode?4dat@ DB 'MstCode.dat', 00H	; `string'
CONST	ENDS
;	COMDAT ??_C@_05MBOMPHNN@Today@
CONST	SEGMENT
??_C@_05MBOMPHNN@Today@ DB 'Today', 00H			; `string'
CONST	ENDS
;	COMDAT ??_C@_0N@EGCPBLLD@WorkDate?4dat@
CONST	SEGMENT
??_C@_0N@EGCPBLLD@WorkDate?4dat@ DB 'WorkDate.dat', 00H	; `string'
CONST	ENDS
;	COMDAT ??_C@_08HKFBHKOD@WorkDate@
CONST	SEGMENT
??_C@_08HKFBHKOD@WorkDate@ DB 'WorkDate', 00H		; `string'
CONST	ENDS
;	COMDAT ??_C@_06LOHACGPJ@?$CF?9?$CK?4?$CKs@
CONST	SEGMENT
??_C@_06LOHACGPJ@?$CF?9?$CK?4?$CKs@ DB '%-*.*s', 00H	; `string'
CONST	ENDS
;	COMDAT ??_C@_0N@DEAKEBCF@?$CF04d?$CF02d?$CF02d@
CONST	SEGMENT
??_C@_0N@DEAKEBCF@?$CF04d?$CF02d?$CF02d@ DB '%04d%02d%02d', 00H ; `string'
CONST	ENDS
;	COMDAT ??_C@_05BMGBEOOC@?$CFs?2?$CFs@
CONST	SEGMENT
??_C@_05BMGBEOOC@?$CFs?2?$CFs@ DB '%s\%s', 00H		; `string'
CONST	ENDS
;	COMDAT ??_C@_0BB@JMHKDHLP@RequestToday?4ini@
CONST	SEGMENT
??_C@_0BB@JMHKDHLP@RequestToday?4ini@ DB 'RequestToday.ini', 00H ; `string'
CONST	ENDS
;	COMDAT ??_C@_0P@KDIOLOJH@?$CFs?2FindData?2?$CFs@
CONST	SEGMENT
??_C@_0P@KDIOLOJH@?$CFs?2FindData?2?$CFs@ DB '%s\FindData\%s', 00H ; `string'
CONST	ENDS
;	COMDAT ??_C@_07OIGEDBEL@drcache@
CONST	SEGMENT
??_C@_07OIGEDBEL@drcache@ DB 'drcache', 00H		; `string'
CONST	ENDS
;	COMDAT ??_C@_01NOFIACDB@w@
CONST	SEGMENT
??_C@_01NOFIACDB@w@ DB 'w', 00H				; `string'
CONST	ENDS
;	COMDAT ??_C@_03MCLFGLNI@081@
CONST	SEGMENT
??_C@_03MCLFGLNI@081@ DB '081', 00H			; `string'
CONST	ENDS
;	COMDAT ??_C@_03NLKOFKJJ@080@
CONST	SEGMENT
??_C@_03NLKOFKJJ@080@ DB '080', 00H			; `string'
CONST	ENDS
;	COMDAT ??_C@_03BDAKGON@079@
CONST	SEGMENT
??_C@_03BDAKGON@079@ DB '079', 00H			; `string'
CONST	ENDS
;	COMDAT ??_C@_03OJJIDIBL@082@
CONST	SEGMENT
??_C@_03OJJIDIBL@082@ DB '082', 00H			; `string'
CONST	ENDS
;	COMDAT ??_C@_02MIGHPNDL@12@
CONST	SEGMENT
??_C@_02MIGHPNDL@12@ DB '12', 00H			; `string'
CONST	ENDS
;	COMDAT ??_C@_05MMNALHAH@?$CL?$LI?E?$LM?v@
CONST	SEGMENT
??_C@_05MMNALHAH@?$CL?$LI?E?$LM?v@ DB '+', 0b8H, 0c5H, 0bcH, 0f6H, 00H ; `string'
CONST	ENDS
;	COMDAT ??_C@_02NALOKGEN@03@
CONST	SEGMENT
??_C@_02NALOKGEN@03@ DB '03', 00H			; `string'
CONST	ENDS
;	COMDAT ??_C@_02DDEKHPIG@08@
CONST	SEGMENT
??_C@_02DDEKHPIG@08@ DB '08', 00H			; `string'
CONST	ENDS
;	COMDAT ??_C@_04OBKAGHLG@?$CF06d@
CONST	SEGMENT
??_C@_04OBKAGHLG@?$CF06d@ DB '%06d', 00H		; `string'
CONST	ENDS
;	COMDAT ??_C@_04LNJIEJPK@8041@
CONST	SEGMENT
??_C@_04LNJIEJPK@8041@ DB '8041', 00H			; `string'
CONST	ENDS
;	COMDAT ??_C@_04IAPIGAEK@9041@
CONST	SEGMENT
??_C@_04IAPIGAEK@9041@ DB '9041', 00H			; `string'
CONST	ENDS
;	COMDAT ??_C@_03DLDNIBIK@?$CFlf@
CONST	SEGMENT
??_C@_03DLDNIBIK@?$CFlf@ DB '%lf', 00H			; `string'
CONST	ENDS
;	COMDAT ??_C@_01FAMBOPH@4@
CONST	SEGMENT
??_C@_01FAMBOPH@4@ DB '4', 00H				; `string'
CONST	ENDS
;	COMDAT ??_C@_01BMBHCPLG@5@
CONST	SEGMENT
??_C@_01BMBHCPLG@5@ DB '5', 00H				; `string'
CONST	ENDS
;	COMDAT ??_C@_01FDFGLJHB@2@
CONST	SEGMENT
??_C@_01FDFGLJHB@2@ DB '2', 00H				; `string'
CONST	ENDS
;	COMDAT ??_C@_01EKENIIDA@3@
CONST	SEGMENT
??_C@_01EKENIIDA@3@ DB '3', 00H				; `string'
CONST	ENDS
;	COMDAT ??_C@_04KAPECDDI@8888@
CONST	SEGMENT
??_C@_04KAPECDDI@8888@ DB '8888', 00H			; `string'
CONST	ENDS
;	COMDAT ??_C@_06FDCJKPFJ@?$MA?e?$LI?$LG?$LA?$KI@
CONST	SEGMENT
??_C@_06FDCJKPFJ@?$MA?e?$LI?$LG?$LA?$KI@ DB 0c0H, 0e5H, 0b8H, 0b6H, 0b0H, 0a8H
	DB	00H						; `string'
CONST	ENDS
;	COMDAT ??_C@_04DNPBDGJL@9999@
CONST	SEGMENT
??_C@_04DNPBDGJL@9999@ DB '9999', 00H			; `string'
CONST	ENDS
;	COMDAT ??_C@_06EGKLOHMB@?$MA?e?A?$LO?$LH?a@
CONST	SEGMENT
??_C@_06EGKLOHMB@?$MA?e?A?$LO?$LH?a@ DB 0c0H, 0e5H, 0c1H, 0beH, 0b7H, 0e1H
	DB	00H						; `string'
CONST	ENDS
;	COMDAT ??_C@_04GEFJINEE@?$CF?42f@
CONST	SEGMENT
??_C@_04GEFJINEE@?$CF?42f@ DB '%.2f', 00H		; `string'
CONST	ENDS
;	COMDAT ??_C@_02LAJDCOFE@ST@
CONST	SEGMENT
??_C@_02LAJDCOFE@ST@ DB 'ST', 00H			; `string'
CONST	ENDS
;	COMDAT ??_C@_02KIDIPBJG@ET@
CONST	SEGMENT
??_C@_02KIDIPBJG@ET@ DB 'ET', 00H			; `string'
CONST	ENDS
;	COMDAT ??_C@_03PNBEIMIM@023@
CONST	SEGMENT
??_C@_03PNBEIMIM@023@ DB '023', 00H			; `string'
CONST	ENDS
;	COMDAT ??_C@_03MPCCOOAO@021@
CONST	SEGMENT
??_C@_03MPCCOOAO@021@ DB '021', 00H			; `string'
CONST	ENDS
;	COMDAT ??_C@_03NOBDJFIO@301@
CONST	SEGMENT
??_C@_03NOBDJFIO@301@ DB '301', 00H			; `string'
CONST	ENDS
;	COMDAT ??_C@_04EFHDAFAL@JOC0@
CONST	SEGMENT
??_C@_04EFHDAFAL@JOC0@ DB 'JOC0', 00H			; `string'
CONST	ENDS
;	COMDAT ??_C@_02GMLAAMD@FX@
CONST	SEGMENT
??_C@_02GMLAAMD@FX@ DB 'FX', 00H			; `string'
CONST	ENDS
;	COMDAT ??_C@_04NBIDCDME@FOFR@
CONST	SEGMENT
??_C@_04NBIDCDME@FOFR@ DB 'FOFR', 00H			; `string'
CONST	ENDS
;	COMDAT ??_C@_04MBICOLOB@FOJS@
CONST	SEGMENT
??_C@_04MBICOLOB@FOJS@ DB 'FOJS', 00H			; `string'
CONST	ENDS
;	COMDAT ??_C@_03HEBKFNAF@101@
CONST	SEGMENT
??_C@_03HEBKFNAF@101@ DB '101', 00H			; `string'
CONST	ENDS
;	COMDAT ??_C@_04OJOAECLD@GTFJ@
CONST	SEGMENT
??_C@_04OJOAECLD@GTFJ@ DB 'GTFJ', 00H			; `string'
CONST	ENDS
;	COMDAT ??_C@_02OEEDAGCE@51@
CONST	SEGMENT
??_C@_02OEEDAGCE@51@ DB '51', 00H			; `string'
CONST	ENDS
;	COMDAT ??_C@_04HJAFHKIM@HWFJ@
CONST	SEGMENT
??_C@_04HJAFHKIM@HWFJ@ DB 'HWFJ', 00H			; `string'
CONST	ENDS
;	COMDAT ??_C@_02OGAFLIHN@61@
CONST	SEGMENT
??_C@_02OGAFLIHN@61@ DB '61', 00H			; `string'
CONST	ENDS
;	COMDAT ??_C@_04DIHLEKIB@JFC0@
CONST	SEGMENT
??_C@_04DIHLEKIB@JFC0@ DB 'JFC0', 00H			; `string'
CONST	ENDS
;	COMDAT ??_C@_02OFIBGMBD@41@
CONST	SEGMENT
??_C@_02OFIBGMBD@41@ DB '41', 00H			; `string'
CONST	ENDS
;	COMDAT ??_C@_04INJDIKHL@OOC0@
CONST	SEGMENT
??_C@_04INJDIKHL@OOC0@ DB 'OOC0', 00H			; `string'
CONST	ENDS
;	COMDAT ??_C@_02OAMOHKJG@31@
CONST	SEGMENT
??_C@_02OAMOHKJG@31@ DB '31', 00H			; `string'
CONST	ENDS
;	COMDAT ??_C@_04PNILKHIA@FFC0@
CONST	SEGMENT
??_C@_04PNILKHIA@FFC0@ DB 'FFC0', 00H			; `string'
CONST	ENDS
;	COMDAT ??_C@_02OBAMBAKB@21@
CONST	SEGMENT
??_C@_02OBAMBAKB@21@ DB '21', 00H			; `string'
CONST	ENDS
;	COMDAT ??_C@_04BHFKAEFH@IXIJ@
CONST	SEGMENT
??_C@_04BHFKAEFH@IXIJ@ DB 'IXIJ', 00H			; `string'
CONST	ENDS
;	COMDAT ??_C@_01HIHLOKLC@1@
CONST	SEGMENT
??_C@_01HIHLOKLC@1@ DB '1', 00H				; `string'
CONST	ENDS
;	COMDAT ??_C@_04FNMIFLPJ@EWs3@
CONST	SEGMENT
??_C@_04FNMIFLPJ@EWs3@ DB 'EWs3', 00H			; `string'
CONST	ENDS
;	COMDAT ??_C@_04OKLMFNFP@KXYS@
CONST	SEGMENT
??_C@_04OKLMFNFP@KXYS@ DB 'KXYS', 00H			; `string'
CONST	ENDS
;	COMDAT ??_C@_04ICNGLDCO@KXS3@
CONST	SEGMENT
??_C@_04ICNGLDCO@KXS3@ DB 'KXS3', 00H			; `string'
CONST	ENDS
;	COMDAT ??_C@_0BI@OHCKGON@RealKey?5Error?$CI?$CFs?$CJ?$FLLn?$CFd?$FN@
CONST	SEGMENT
??_C@_0BI@OHCKGON@RealKey?5Error?$CI?$CFs?$CJ?$FLLn?$CFd?$FN@ DB 'RealKey'
	DB	' Error(%s)[Ln%d]', 00H			; `string'
CONST	ENDS
;	COMDAT ??_C@_0FA@EBCFGNMI@D?3?2git?2src?2IBK?2IBK_DRFN?2ProjSrc@
CONST	SEGMENT
??_C@_0FA@EBCFGNMI@D?3?2git?2src?2IBK?2IBK_DRFN?2ProjSrc@ DB 'D:\git\src\'
	DB	'IBK\IBK_DRFN\ProjSrc\SrcDrfn\DrCommon\PartnerMng\_PartnerMana'
	DB	'ger.cpp', 00H				; `string'
CONST	ENDS
;	COMDAT ??_C@_0CH@EINMAHBK@KHD?5?3?5strTR?5?$DN?5?$CFs?5nKey?5?$DN?5?$CFd?0?5nSt@
CONST	SEGMENT
??_C@_0CH@EINMAHBK@KHD?5?3?5strTR?5?$DN?5?$CFs?5nKey?5?$DN?5?$CFd?0?5nSt@ DB 'K'
	DB	'HD : strTR = %s nKey = %d, nStat = %d', 00H	; `string'
CONST	ENDS
;	COMDAT ??_C@_08IOMDFAIH@pijs0111@
CONST	SEGMENT
??_C@_08IOMDFAIH@pijs0111@ DB 'pijs0111', 00H		; `string'
CONST	ENDS
;	COMDAT ??_C@_08KFOOADEE@pijs0112@
CONST	SEGMENT
??_C@_08KFOOADEE@pijs0112@ DB 'pijs0112', 00H		; `string'
CONST	ENDS
;	COMDAT ??_C@_0L@LCJFIPAK@SYMBOLDATA@
CONST	SEGMENT
??_C@_0L@LCJFIPAK@SYMBOLDATA@ DB 'SYMBOLDATA', 00H	; `string'
CONST	ENDS
;	COMDAT ??_C@_05EJMFFBE@d1017@
CONST	SEGMENT
??_C@_05EJMFFBE@d1017@ DB 'd1017', 00H			; `string'
CONST	ENDS
;	COMDAT ??_C@_05LAIFOIEB@d0369@
CONST	SEGMENT
??_C@_05LAIFOIEB@d0369@ DB 'd0369', 00H			; `string'
CONST	ENDS
;	COMDAT ??_C@_05BOHGBJBE@d0355@
CONST	SEGMENT
??_C@_05BOHGBJBE@d0355@ DB 'd0355', 00H			; `string'
CONST	ENDS
;	COMDAT ??_C@_07KDMMOILP@d1012_1@
CONST	SEGMENT
??_C@_07KDMMOILP@d1012_1@ DB 'd1012_1', 00H		; `string'
CONST	ENDS
;	COMDAT ??_C@_05DMBEOOBE@d0515@
CONST	SEGMENT
??_C@_05DMBEOOBE@d0515@ DB 'd0515', 00H			; `string'
CONST	ENDS
;	COMDAT ??_C@_05IDAEEJNL@d1018@
CONST	SEGMENT
??_C@_05IDAEEJNL@d1018@ DB 'd1018', 00H			; `string'
CONST	ENDS
;	COMDAT ??_C@_05MOAFKCEF@f3201@
CONST	SEGMENT
??_C@_05MOAFKCEF@f3201@ DB 'f3201', 00H			; `string'
CONST	ENDS
;	COMDAT ??_C@_05CFKCFGAI@s3301@
CONST	SEGMENT
??_C@_05CFKCFGAI@s3301@ DB 's3301', 00H			; `string'
CONST	ENDS
;	COMDAT ??_C@_05IJKFNIJF@f0201@
CONST	SEGMENT
??_C@_05IJKFNIJF@f0201@ DB 'f0201', 00H			; `string'
CONST	ENDS
;	COMDAT ??_C@_05BNIHGEFF@d1016@
CONST	SEGMENT
??_C@_05BNIHGEFF@d1016@ DB 'd1016', 00H			; `string'
CONST	ENDS
;	COMDAT ??_C@_05CPLBAGNH@d1014@
CONST	SEGMENT
??_C@_05CPLBAGNH@d1014@ DB 'd1014', 00H			; `string'
CONST	ENDS
;	COMDAT ??_C@_05GAPAJABA@d1013@
CONST	SEGMENT
??_C@_05GAPAJABA@d1013@ DB 'd1013', 00H			; `string'
CONST	ENDS
;	COMDAT ??_C@_05HJOLKBFB@d1012@
CONST	SEGMENT
??_C@_05HJOLKBFB@d1012@ DB 'd1012', 00H			; `string'
CONST	ENDS
;	COMDAT ??_C@_05FCMGPCJC@d1011@
CONST	SEGMENT
??_C@_05FCMGPCJC@d1011@ DB 'd1011', 00H			; `string'
CONST	ENDS
;	COMDAT ??_C@_05ELNNMDND@d1010@
CONST	SEGMENT
??_C@_05ELNNMDND@d1010@ DB 'd1010', 00H			; `string'
CONST	ENDS
;	COMDAT ??_C@_08BPMNGHAI@POOPPOOP@
CONST	SEGMENT
??_C@_08BPMNGHAI@POOPPOOP@ DB 'POOPPOOP', 00H		; `string'
CONST	ENDS
;	COMDAT ??_C@_05GFCMPLNO@c1002@
CONST	SEGMENT
??_C@_05GFCMPLNO@c1002@ DB 'c1002', 00H			; `string'
CONST	ENDS
;	COMDAT ??_C@_08BPHHAGD@bo028011@
CONST	SEGMENT
??_C@_08BPHHAGD@bo028011@ DB 'bo028011', 00H		; `string'
CONST	ENDS
;	COMDAT ??_C@_05KJJONJAA@d0368@
CONST	SEGMENT
??_C@_05KJJONJAA@d0368@ DB 'd0368', 00H			; `string'
CONST	ENDS
;	COMDAT ??_C@_05COAGMFMP@d0367@
CONST	SEGMENT
??_C@_05COAGMFMP@d0367@ DB 'd0367', 00H			; `string'
CONST	ENDS
;	COMDAT ??_C@_05DHBNPEIO@d0366@
CONST	SEGMENT
??_C@_05DHBNPEIO@d0366@ DB 'd0366', 00H			; `string'
CONST	ENDS
;	COMDAT ??_C@_08DDLEADJF@poop0090@
CONST	SEGMENT
??_C@_08DDLEADJF@poop0090@ DB 'poop0090', 00H		; `string'
CONST	ENDS
;	COMDAT ??_C@_05HGNCIFF@d0354@
CONST	SEGMENT
??_C@_05HGNCIFF@d0354@ DB 'd0354', 00H			; `string'
CONST	ENDS
;	COMDAT ??_C@_08LBPJCNLI@pfboaoop@
CONST	SEGMENT
??_C@_08LBPJCNLI@pfboaoop@ DB 'pfboaoop', 00H		; `string'
CONST	ENDS
;	COMDAT ??_C@_0M@EKPIACMO@pfbopoop831@
CONST	SEGMENT
??_C@_0M@EKPIACMO@pfbopoop831@ DB 'pfbopoop831', 00H	; `string'
CONST	ENDS
;	COMDAT ??_C@_0M@FDODDDIP@pfbopoop830@
CONST	SEGMENT
??_C@_0M@FDODDDIP@pfbopoop830@ DB 'pfbopoop830', 00H	; `string'
CONST	ENDS
;	COMDAT ??_C@_0M@PPKGCFPO@pfboaoop841@
CONST	SEGMENT
??_C@_0M@PPKGCFPO@pfboaoop841@ DB 'pfboaoop841', 00H	; `string'
CONST	ENDS
;	COMDAT ??_C@_0N@LGEIEHHI@pfboaoop8402@
CONST	SEGMENT
??_C@_0N@LGEIEHHI@pfboaoop8402@ DB 'pfboaoop8402', 00H	; `string'
CONST	ENDS
;	COMDAT ??_C@_0M@OGLNBELP@pfboaoop840@
CONST	SEGMENT
??_C@_0M@OGLNBELP@pfboaoop840@ DB 'pfboaoop840', 00H	; `string'
CONST	ENDS
;	COMDAT ??_C@_08OMHJJDIK@pfbopoop@
CONST	SEGMENT
??_C@_08OMHJJDIK@pfbopoop@ DB 'pfbopoop', 00H		; `string'
CONST	ENDS
;	COMDAT ??_C@_07GMOEHFAP@o44010$@
CONST	SEGMENT
??_C@_07GMOEHFAP@o44010$@ DB 'o44010$', 00H		; `string'
CONST	ENDS
;	COMDAT ??_C@_07NGBOKMDD@o44003$@
CONST	SEGMENT
??_C@_07NGBOKMDD@o44003$@ DB 'o44003$', 00H		; `string'
CONST	ENDS
;	COMDAT ??_C@_08IHPMJEPD@GOOPHOOP@
CONST	SEGMENT
??_C@_08IHPMJEPD@GOOPHOOP@ DB 'GOOPHOOP', 00H		; `string'
CONST	ENDS
;	COMDAT ??_C@_05DGKKDHJG@d1015@
CONST	SEGMENT
??_C@_05DGKKDHJG@d1015@ DB 'd1015', 00H			; `string'
CONST	ENDS
;	COMDAT ??_7CPartnerSvrManager@@6B@
CONST	SEGMENT
??_7CPartnerSvrManager@@6B@ DD FLAT:??_R4CPartnerSvrManager@@6B@ ; CPartnerSvrManager::`vftable'
	DD	FLAT:?AdviseManager@CPartnerSvrManager@@UAGPAUIPartnerManager@@PAUHWND__@@0@Z
	DD	FLAT:?UnAdviseManager@CPartnerSvrManager@@UAGHPAUHWND__@@0@Z
	DD	FLAT:?GetParentHandle@CPartnerSvrManager@@UAGHHAAPAUHWND__@@@Z
	DD	FLAT:?GetInerInterface@CPartnerSvrManager@@UAGJHJ@Z
	DD	FLAT:?SetParentHandle@CPartnerSvrManager@@UAGHEPAUHWND__@@0@Z
CONST	ENDS
;	COMDAT ??_7CPartnerManager@@6B@
CONST	SEGMENT
??_7CPartnerManager@@6B@ DD FLAT:??_R4CPartnerManager@@6B@ ; CPartnerManager::`vftable'
	DD	FLAT:?SetSite@CPartnerManager@@UAGXPAUIPartnerSite@@@Z
	DD	FLAT:?GetSite@CPartnerManager@@UAGPAUIPartnerSite@@XZ
	DD	FLAT:?SendTrData@CPartnerManager@@UAGHPBDPAEHAAHH@Z
	DD	FLAT:?SendFidData@CPartnerManager@@UAGHPBDPAEHAAHH@Z
	DD	FLAT:?SendTrDataEx@CPartnerManager@@UAGHJPAEHAAHH@Z
	DD	FLAT:?SendFidDataEx@CPartnerManager@@UAGHJPAEHAAHH@Z
	DD	FLAT:?ReceiveTRData@CPartnerManager@@UAGHPBDPAEHH@Z
	DD	FLAT:?RequestMChartReal@CPartnerManager@@UAGHEPBD0@Z
	DD	FLAT:?ReceiveRealData@CPartnerManager@@UAGHIJ@Z
	DD	FLAT:?directSendFID@CPartnerManager@@UAGHJ@Z
	DD	FLAT:?ReceiveRealDataEx@CPartnerManager@@UAGHIJ@Z
	DD	FLAT:?ReceiveNoticeData@CPartnerManager@@UAGHIJ@Z
	DD	FLAT:?IsRegisterCode@CPartnerManager@@UAGHPBD@Z
CONST	ENDS
;	COMDAT ??_7?$CMap@V?$CStringT@DV?$StrTraitMFC_DLL@DV?$ChTraitsCRT@D@ATL@@@@@ATL@@PBDHH@@6B@
CONST	SEGMENT
??_7?$CMap@V?$CStringT@DV?$StrTraitMFC_DLL@DV?$ChTraitsCRT@D@ATL@@@@@ATL@@PBDHH@@6B@ DD FLAT:??_R4?$CMap@V?$CStringT@DV?$StrTraitMFC_DLL@DV?$ChTraitsCRT@D@ATL@@@@@ATL@@PBDHH@@6B@ ; CMap<ATL::CStringT<char,StrTraitMFC_DLL<char,ATL::ChTraitsCRT<char> > >,char const *,int,int>::`vftable'
	DD	FLAT:?GetRuntimeClass@CObject@@UBEPAUCRuntimeClass@@XZ
	DD	FLAT:??_E?$CMap@V?$CStringT@DV?$StrTraitMFC_DLL@DV?$ChTraitsCRT@D@ATL@@@@@ATL@@PBDHH@@UAEPAXI@Z
	DD	FLAT:?Serialize@?$CMap@V?$CStringT@DV?$StrTraitMFC_DLL@DV?$ChTraitsCRT@D@ATL@@@@@ATL@@PBDHH@@UAEXAAVCArchive@@@Z
	DD	FLAT:?AssertValid@CObject@@UBEXXZ
	DD	FLAT:?Dump@CObject@@UBEXAAVCDumpContext@@@Z
CONST	ENDS
;	COMDAT ??_7?$CArray@UFID_SENDDATA@@AAU1@@@6B@
CONST	SEGMENT
??_7?$CArray@UFID_SENDDATA@@AAU1@@@6B@ DD FLAT:??_R4?$CArray@UFID_SENDDATA@@AAU1@@@6B@ ; CArray<FID_SENDDATA,FID_SENDDATA &>::`vftable'
	DD	FLAT:?GetRuntimeClass@CObject@@UBEPAUCRuntimeClass@@XZ
	DD	FLAT:??_E?$CArray@UFID_SENDDATA@@AAU1@@@UAEPAXI@Z
	DD	FLAT:?Serialize@?$CArray@UFID_SENDDATA@@AAU1@@@UAEXAAVCArchive@@@Z
	DD	FLAT:?AssertValid@CObject@@UBEXXZ
	DD	FLAT:?Dump@CObject@@UBEXAAVCDumpContext@@@Z
CONST	ENDS
;	COMDAT ??_7CCriticalSection@@6B@
CONST	SEGMENT
??_7CCriticalSection@@6B@ DD FLAT:??_R4CCriticalSection@@6B@ ; CCriticalSection::`vftable'
	DD	FLAT:?GetRuntimeClass@CCriticalSection@@UBEPAUCRuntimeClass@@XZ
	DD	FLAT:??_ECCriticalSection@@UAEPAXI@Z
	DD	FLAT:?Serialize@CObject@@UAEXAAVCArchive@@@Z
	DD	FLAT:?AssertValid@CObject@@UBEXXZ
	DD	FLAT:?Dump@CObject@@UBEXAAVCDumpContext@@@Z
	DD	FLAT:?Lock@CCriticalSection@@UAEHK@Z
	DD	FLAT:?Unlock@CSyncObject@@UAEHJPAJ@Z
	DD	FLAT:?Unlock@CCriticalSection@@UAEHXZ
CONST	ENDS
;	COMDAT ??_C@_02EMFKHFLK@?$CFX@
CONST	SEGMENT
??_C@_02EMFKHFLK@?$CFX@ DB '%X', 00H			; `string'
CONST	ENDS
;	COMDAT ??_C@_06NDLAHCHE@?$CFs?$CF08X@
CONST	SEGMENT
??_C@_06NDLAHCHE@?$CFs?$CF08X@ DB '%s%08X', 00H		; `string'
CONST	ENDS
;	COMDAT ??_C@_0P@IDMAJEGN@HANAROPCTRMAIN@
CONST	SEGMENT
??_C@_0P@IDMAJEGN@HANAROPCTRMAIN@ DB 'HANAROPCTRMAIN', 00H ; `string'
CONST	ENDS
;	COMDAT ??_C@_0M@CBBNGGHM@PcTrMng?4dll@
CONST	SEGMENT
??_C@_0M@CBBNGGHM@PcTrMng?4dll@ DB 'PcTrMng.dll', 00H	; `string'
CONST	ENDS
;	COMDAT ??_R1A@?0A@EA@CObject@@8
rdata$r	SEGMENT
??_R1A@?0A@EA@CObject@@8 DD FLAT:??_R0?AVCObject@@@8	; CObject::`RTTI Base Class Descriptor at (0,-1,0,64)'
	DD	00H
	DD	00H
	DD	0ffffffffH
	DD	00H
	DD	040H
	DD	FLAT:??_R3CObject@@8
rdata$r	ENDS
;	COMDAT ??_R2CObject@@8
rdata$r	SEGMENT
??_R2CObject@@8 DD FLAT:??_R1A@?0A@EA@CObject@@8	; CObject::`RTTI Base Class Array'
rdata$r	ENDS
;	COMDAT ??_R3CObject@@8
rdata$r	SEGMENT
??_R3CObject@@8 DD 00H					; CObject::`RTTI Class Hierarchy Descriptor'
	DD	00H
	DD	01H
	DD	FLAT:??_R2CObject@@8
rdata$r	ENDS
;	COMDAT ??_R0?AVCObject@@@8
data$rs	SEGMENT
??_R0?AVCObject@@@8 DD FLAT:??_7type_info@@6B@		; CObject `RTTI Type Descriptor'
	DD	00H
	DB	'.?AVCObject@@', 00H
data$rs	ENDS
;	COMDAT ??_C@_0BD@ENGDDGEF@DRLog_ResponseData@
CONST	SEGMENT
??_C@_0BD@ENGDDGEF@DRLog_ResponseData@ DB 'DRLog_ResponseData', 00H ; `string'
CONST	ENDS
;	COMDAT ??_C@_00CNPNBAHC@@
CONST	SEGMENT
??_C@_00CNPNBAHC@@ DB 00H				; `string'
CONST	ENDS
;	COMDAT xdata$x
xdata$x	SEGMENT
__unwindtable$?RemoveAll@CPartnerSvrManager@@QAEXXZ DD 0ffffffffH
	DD	FLAT:__unwindfunclet$?RemoveAll@CPartnerSvrManager@@QAEXXZ$0
__ehfuncinfo$?RemoveAll@CPartnerSvrManager@@QAEXXZ DD 019930522H
	DD	01H
	DD	FLAT:__unwindtable$?RemoveAll@CPartnerSvrManager@@QAEXXZ
	DD	2 DUP(00H)
	DD	2 DUP(00H)
	DD	00H
	DD	01H
xdata$x	ENDS
;	COMDAT xdata$x
xdata$x	SEGMENT
__unwindtable$?RemoveItem@CPartnerSvrManager@@QAEHPAUHWND__@@0@Z DD 0ffffffffH
	DD	FLAT:__unwindfunclet$?RemoveItem@CPartnerSvrManager@@QAEHPAUHWND__@@0@Z$0
__ehfuncinfo$?RemoveItem@CPartnerSvrManager@@QAEHPAUHWND__@@0@Z DD 019930522H
	DD	01H
	DD	FLAT:__unwindtable$?RemoveItem@CPartnerSvrManager@@QAEHPAUHWND__@@0@Z
	DD	2 DUP(00H)
	DD	2 DUP(00H)
	DD	00H
	DD	01H
xdata$x	ENDS
;	COMDAT xdata$x
xdata$x	SEGMENT
__unwindtable$??0CPartnerSvrManager@@QAE@XZ DD 0ffffffffH
	DD	FLAT:__unwindfunclet$??0CPartnerSvrManager@@QAE@XZ$0
__ehfuncinfo$??0CPartnerSvrManager@@QAE@XZ DD 019930522H
	DD	01H
	DD	FLAT:__unwindtable$??0CPartnerSvrManager@@QAE@XZ
	DD	2 DUP(00H)
	DD	2 DUP(00H)
	DD	00H
	DD	01H
xdata$x	ENDS
;	COMDAT xdata$x
xdata$x	SEGMENT
__unwindtable$??_G?$CMap@V?$CStringT@DV?$StrTraitMFC_DLL@DV?$ChTraitsCRT@D@ATL@@@@@ATL@@PBDHH@@UAEPAXI@Z DD 0ffffffffH
	DD	FLAT:___std_terminate
__ehfuncinfo$??_G?$CMap@V?$CStringT@DV?$StrTraitMFC_DLL@DV?$ChTraitsCRT@D@ATL@@@@@ATL@@PBDHH@@UAEPAXI@Z DD 019930522H
	DD	01H
	DD	FLAT:__unwindtable$??_G?$CMap@V?$CStringT@DV?$StrTraitMFC_DLL@DV?$ChTraitsCRT@D@ATL@@@@@ATL@@PBDHH@@UAEPAXI@Z
	DD	2 DUP(00H)
	DD	2 DUP(00H)
	DD	00H
	DD	05H
xdata$x	ENDS
;	COMDAT xdata$x
xdata$x	SEGMENT
__unwindtable$?Serialize@?$CMap@V?$CStringT@DV?$StrTraitMFC_DLL@DV?$ChTraitsCRT@D@ATL@@@@@ATL@@PBDHH@@UAEXAAVCArchive@@@Z DD 0ffffffffH
	DD	FLAT:__unwindfunclet$?Serialize@?$CMap@V?$CStringT@DV?$StrTraitMFC_DLL@DV?$ChTraitsCRT@D@ATL@@@@@ATL@@PBDHH@@UAEXAAVCArchive@@@Z$0
__ehfuncinfo$?Serialize@?$CMap@V?$CStringT@DV?$StrTraitMFC_DLL@DV?$ChTraitsCRT@D@ATL@@@@@ATL@@PBDHH@@UAEXAAVCArchive@@@Z DD 019930522H
	DD	01H
	DD	FLAT:__unwindtable$?Serialize@?$CMap@V?$CStringT@DV?$StrTraitMFC_DLL@DV?$ChTraitsCRT@D@ATL@@@@@ATL@@PBDHH@@UAEXAAVCArchive@@@Z
	DD	2 DUP(00H)
	DD	2 DUP(00H)
	DD	00H
	DD	01H
xdata$x	ENDS
;	COMDAT xdata$x
xdata$x	SEGMENT
__ehfuncinfo$??1?$CMap@V?$CStringT@DV?$StrTraitMFC_DLL@DV?$ChTraitsCRT@D@ATL@@@@@ATL@@PBDHH@@UAE@XZ DD 019930522H
	DD	00H
	DD	00H
	DD	2 DUP(00H)
	DD	2 DUP(00H)
	DD	00H
	DD	05H
xdata$x	ENDS
;	COMDAT xdata$x
xdata$x	SEGMENT
__ehfuncinfo$?_DoPreReceiveData@CPartnerManager@@IAEXPBDPAEH@Z DD 019930522H
	DD	06H
	DD	FLAT:__unwindtable$?_DoPreReceiveData@CPartnerManager@@IAEXPBDPAEH@Z
	DD	2 DUP(00H)
	DD	2 DUP(00H)
	DD	00H
	DD	01H
__unwindtable$?_DoPreReceiveData@CPartnerManager@@IAEXPBDPAEH@Z DD 0ffffffffH
	DD	FLAT:__unwindfunclet$?_DoPreReceiveData@CPartnerManager@@IAEXPBDPAEH@Z$0
	DD	00H
	DD	FLAT:__unwindfunclet$?_DoPreReceiveData@CPartnerManager@@IAEXPBDPAEH@Z$1
	DD	01H
	DD	FLAT:__unwindfunclet$?_DoPreReceiveData@CPartnerManager@@IAEXPBDPAEH@Z$2
	DD	02H
	DD	FLAT:__unwindfunclet$?_DoPreReceiveData@CPartnerManager@@IAEXPBDPAEH@Z$3
	DD	03H
	DD	FLAT:__unwindfunclet$?_DoPreReceiveData@CPartnerManager@@IAEXPBDPAEH@Z$4
	DD	02H
	DD	FLAT:__unwindfunclet$?_DoPreReceiveData@CPartnerManager@@IAEXPBDPAEH@Z$5
xdata$x	ENDS
;	COMDAT xdata$x
xdata$x	SEGMENT
__ehfuncinfo$?_DoGetCodeType@CPartnerManager@@IAEHPBD@Z DD 019930522H
	DD	06H
	DD	FLAT:__unwindtable$?_DoGetCodeType@CPartnerManager@@IAEHPBD@Z
	DD	2 DUP(00H)
	DD	2 DUP(00H)
	DD	00H
	DD	01H
__unwindtable$?_DoGetCodeType@CPartnerManager@@IAEHPBD@Z DD 0ffffffffH
	DD	FLAT:__unwindfunclet$?_DoGetCodeType@CPartnerManager@@IAEHPBD@Z$0
	DD	00H
	DD	FLAT:__unwindfunclet$?_DoGetCodeType@CPartnerManager@@IAEHPBD@Z$1
	DD	00H
	DD	FLAT:__unwindfunclet$?_DoGetCodeType@CPartnerManager@@IAEHPBD@Z$2
	DD	02H
	DD	FLAT:__unwindfunclet$?_DoGetCodeType@CPartnerManager@@IAEHPBD@Z$3
	DD	00H
	DD	FLAT:__unwindfunclet$?_DoGetCodeType@CPartnerManager@@IAEHPBD@Z$4
	DD	00H
	DD	FLAT:__unwindfunclet$?_DoGetCodeType@CPartnerManager@@IAEHPBD@Z$5
xdata$x	ENDS
;	COMDAT xdata$x
xdata$x	SEGMENT
__unwindtable$?_DoRealDataParsing@CPartnerManager@@IAEHPADPAVCMapStringToString@@@Z DD 0ffffffffH
	DD	FLAT:__unwindfunclet$?_DoRealDataParsing@CPartnerManager@@IAEHPADPAVCMapStringToString@@@Z$0
	DD	00H
	DD	FLAT:__unwindfunclet$?_DoRealDataParsing@CPartnerManager@@IAEHPADPAVCMapStringToString@@@Z$1
__ehfuncinfo$?_DoRealDataParsing@CPartnerManager@@IAEHPADPAVCMapStringToString@@@Z DD 019930522H
	DD	02H
	DD	FLAT:__unwindtable$?_DoRealDataParsing@CPartnerManager@@IAEHPADPAVCMapStringToString@@@Z
	DD	2 DUP(00H)
	DD	2 DUP(00H)
	DD	00H
	DD	01H
xdata$x	ENDS
;	COMDAT xdata$x
xdata$x	SEGMENT
__ehfuncinfo$?ReceiveRealDataEx_Sub@CPartnerManager@@IAEHAAV?$CStringT@DV?$StrTraitMFC_DLL@DV?$ChTraitsCRT@D@ATL@@@@@ATL@@HHPAK@Z DD 019930522H
	DD	0eH
	DD	FLAT:__unwindtable$?ReceiveRealDataEx_Sub@CPartnerManager@@IAEHAAV?$CStringT@DV?$StrTraitMFC_DLL@DV?$ChTraitsCRT@D@ATL@@@@@ATL@@HHPAK@Z
	DD	2 DUP(00H)
	DD	2 DUP(00H)
	DD	00H
	DD	01H
__unwindtable$?ReceiveRealDataEx_Sub@CPartnerManager@@IAEHAAV?$CStringT@DV?$StrTraitMFC_DLL@DV?$ChTraitsCRT@D@ATL@@@@@ATL@@HHPAK@Z DD 0ffffffffH
	DD	FLAT:__unwindfunclet$?ReceiveRealDataEx_Sub@CPartnerManager@@IAEHAAV?$CStringT@DV?$StrTraitMFC_DLL@DV?$ChTraitsCRT@D@ATL@@@@@ATL@@HHPAK@Z$0
	DD	00H
	DD	FLAT:__unwindfunclet$?ReceiveRealDataEx_Sub@CPartnerManager@@IAEHAAV?$CStringT@DV?$StrTraitMFC_DLL@DV?$ChTraitsCRT@D@ATL@@@@@ATL@@HHPAK@Z$1
	DD	01H
	DD	FLAT:__unwindfunclet$?ReceiveRealDataEx_Sub@CPartnerManager@@IAEHAAV?$CStringT@DV?$StrTraitMFC_DLL@DV?$ChTraitsCRT@D@ATL@@@@@ATL@@HHPAK@Z$2
	DD	01H
	DD	FLAT:__unwindfunclet$?ReceiveRealDataEx_Sub@CPartnerManager@@IAEHAAV?$CStringT@DV?$StrTraitMFC_DLL@DV?$ChTraitsCRT@D@ATL@@@@@ATL@@HHPAK@Z$3
	DD	03H
	DD	FLAT:__unwindfunclet$?ReceiveRealDataEx_Sub@CPartnerManager@@IAEHAAV?$CStringT@DV?$StrTraitMFC_DLL@DV?$ChTraitsCRT@D@ATL@@@@@ATL@@HHPAK@Z$4
	DD	04H
	DD	FLAT:__unwindfunclet$?ReceiveRealDataEx_Sub@CPartnerManager@@IAEHAAV?$CStringT@DV?$StrTraitMFC_DLL@DV?$ChTraitsCRT@D@ATL@@@@@ATL@@HHPAK@Z$5
	DD	04H
	DD	FLAT:__unwindfunclet$?ReceiveRealDataEx_Sub@CPartnerManager@@IAEHAAV?$CStringT@DV?$StrTraitMFC_DLL@DV?$ChTraitsCRT@D@ATL@@@@@ATL@@HHPAK@Z$7
	DD	04H
	DD	FLAT:__unwindfunclet$?ReceiveRealDataEx_Sub@CPartnerManager@@IAEHAAV?$CStringT@DV?$StrTraitMFC_DLL@DV?$ChTraitsCRT@D@ATL@@@@@ATL@@HHPAK@Z$8
	DD	04H
	DD	FLAT:__unwindfunclet$?ReceiveRealDataEx_Sub@CPartnerManager@@IAEHAAV?$CStringT@DV?$StrTraitMFC_DLL@DV?$ChTraitsCRT@D@ATL@@@@@ATL@@HHPAK@Z$9
	DD	04H
	DD	FLAT:__unwindfunclet$?ReceiveRealDataEx_Sub@CPartnerManager@@IAEHAAV?$CStringT@DV?$StrTraitMFC_DLL@DV?$ChTraitsCRT@D@ATL@@@@@ATL@@HHPAK@Z$11
	DD	04H
	DD	FLAT:__unwindfunclet$?ReceiveRealDataEx_Sub@CPartnerManager@@IAEHAAV?$CStringT@DV?$StrTraitMFC_DLL@DV?$ChTraitsCRT@D@ATL@@@@@ATL@@HHPAK@Z$12
	DD	04H
	DD	FLAT:__unwindfunclet$?ReceiveRealDataEx_Sub@CPartnerManager@@IAEHAAV?$CStringT@DV?$StrTraitMFC_DLL@DV?$ChTraitsCRT@D@ATL@@@@@ATL@@HHPAK@Z$13
	DD	04H
	DD	FLAT:__unwindfunclet$?ReceiveRealDataEx_Sub@CPartnerManager@@IAEHAAV?$CStringT@DV?$StrTraitMFC_DLL@DV?$ChTraitsCRT@D@ATL@@@@@ATL@@HHPAK@Z$14
	DD	0cH
	DD	FLAT:__unwindfunclet$?ReceiveRealDataEx_Sub@CPartnerManager@@IAEHAAV?$CStringT@DV?$StrTraitMFC_DLL@DV?$ChTraitsCRT@D@ATL@@@@@ATL@@HHPAK@Z$15
xdata$x	ENDS
;	COMDAT xdata$x
xdata$x	SEGMENT
__unwindtable$?GetRealKey@CPartnerManager@@QAEHEPBDH@Z DD 0ffffffffH
	DD	FLAT:__unwindfunclet$?GetRealKey@CPartnerManager@@QAEHEPBDH@Z$0
	DD	00H
	DD	FLAT:__unwindfunclet$?GetRealKey@CPartnerManager@@QAEHEPBDH@Z$1
__ehfuncinfo$?GetRealKey@CPartnerManager@@QAEHEPBDH@Z DD 019930522H
	DD	02H
	DD	FLAT:__unwindtable$?GetRealKey@CPartnerManager@@QAEHEPBDH@Z
	DD	2 DUP(00H)
	DD	2 DUP(00H)
	DD	00H
	DD	01H
xdata$x	ENDS
;	COMDAT xdata$x
xdata$x	SEGMENT
__unwindtable$?GetTrKey@CPartnerManager@@QAEHV?$CStringT@DV?$StrTraitMFC_DLL@DV?$ChTraitsCRT@D@ATL@@@@@ATL@@PAUFID_SENDDATA@@@Z DD 0ffffffffH
	DD	FLAT:__unwindfunclet$?GetTrKey@CPartnerManager@@QAEHV?$CStringT@DV?$StrTraitMFC_DLL@DV?$ChTraitsCRT@D@ATL@@@@@ATL@@PAUFID_SENDDATA@@@Z$0
	DD	00H
	DD	FLAT:__unwindfunclet$?GetTrKey@CPartnerManager@@QAEHV?$CStringT@DV?$StrTraitMFC_DLL@DV?$ChTraitsCRT@D@ATL@@@@@ATL@@PAUFID_SENDDATA@@@Z$1
__ehfuncinfo$?GetTrKey@CPartnerManager@@QAEHV?$CStringT@DV?$StrTraitMFC_DLL@DV?$ChTraitsCRT@D@ATL@@@@@ATL@@PAUFID_SENDDATA@@@Z DD 019930522H
	DD	02H
	DD	FLAT:__unwindtable$?GetTrKey@CPartnerManager@@QAEHV?$CStringT@DV?$StrTraitMFC_DLL@DV?$ChTraitsCRT@D@ATL@@@@@ATL@@PAUFID_SENDDATA@@@Z
	DD	2 DUP(00H)
	DD	2 DUP(00H)
	DD	00H
	DD	01H
xdata$x	ENDS
;	COMDAT xdata$x
xdata$x	SEGMENT
__unwindtable$?SendTR@CPartnerManager@@QAEHV?$CStringT@DV?$StrTraitMFC_DLL@DV?$ChTraitsCRT@D@ATL@@@@@ATL@@PADHHH@Z DD 0ffffffffH
	DD	FLAT:__unwindfunclet$?SendTR@CPartnerManager@@QAEHV?$CStringT@DV?$StrTraitMFC_DLL@DV?$ChTraitsCRT@D@ATL@@@@@ATL@@PADHHH@Z$0
	DD	00H
	DD	FLAT:__unwindfunclet$?SendTR@CPartnerManager@@QAEHV?$CStringT@DV?$StrTraitMFC_DLL@DV?$ChTraitsCRT@D@ATL@@@@@ATL@@PADHHH@Z$1
	DD	01H
	DD	FLAT:__unwindfunclet$?SendTR@CPartnerManager@@QAEHV?$CStringT@DV?$StrTraitMFC_DLL@DV?$ChTraitsCRT@D@ATL@@@@@ATL@@PADHHH@Z$2
__ehfuncinfo$?SendTR@CPartnerManager@@QAEHV?$CStringT@DV?$StrTraitMFC_DLL@DV?$ChTraitsCRT@D@ATL@@@@@ATL@@PADHHH@Z DD 019930522H
	DD	03H
	DD	FLAT:__unwindtable$?SendTR@CPartnerManager@@QAEHV?$CStringT@DV?$StrTraitMFC_DLL@DV?$ChTraitsCRT@D@ATL@@@@@ATL@@PADHHH@Z
	DD	2 DUP(00H)
	DD	2 DUP(00H)
	DD	00H
	DD	01H
xdata$x	ENDS
;	COMDAT xdata$x
xdata$x	SEGMENT
__ehfuncinfo$??0CPartnerManager@@QAE@XZ DD 019930522H
	DD	07H
	DD	FLAT:__unwindtable$??0CPartnerManager@@QAE@XZ
	DD	2 DUP(00H)
	DD	2 DUP(00H)
	DD	00H
	DD	01H
__unwindtable$??0CPartnerManager@@QAE@XZ DD 0ffffffffH
	DD	FLAT:__unwindfunclet$??0CPartnerManager@@QAE@XZ$0
	DD	00H
	DD	FLAT:__unwindfunclet$??0CPartnerManager@@QAE@XZ$1
	DD	01H
	DD	FLAT:__unwindfunclet$??0CPartnerManager@@QAE@XZ$2
	DD	02H
	DD	FLAT:__unwindfunclet$??0CPartnerManager@@QAE@XZ$6
	DD	02H
	DD	FLAT:__unwindfunclet$??0CPartnerManager@@QAE@XZ$3
	DD	04H
	DD	FLAT:__unwindfunclet$??0CPartnerManager@@QAE@XZ$4
	DD	05H
	DD	FLAT:__unwindfunclet$??0CPartnerManager@@QAE@XZ$5
xdata$x	ENDS
;	COMDAT xdata$x
xdata$x	SEGMENT
__ehfuncinfo$??1CRegisterCodeMng@@QAE@XZ DD 019930522H
	DD	00H
	DD	00H
	DD	2 DUP(00H)
	DD	2 DUP(00H)
	DD	00H
	DD	05H
xdata$x	ENDS
;	COMDAT xdata$x
xdata$x	SEGMENT
__unwindtable$??0CCriticalSection@@QAE@XZ DD 0ffffffffH
	DD	FLAT:__unwindfunclet$??0CCriticalSection@@QAE@XZ$0
__ehfuncinfo$??0CCriticalSection@@QAE@XZ DD 019930522H
	DD	01H
	DD	FLAT:__unwindtable$??0CCriticalSection@@QAE@XZ
	DD	2 DUP(00H)
	DD	2 DUP(00H)
	DD	00H
	DD	01H
xdata$x	ENDS
;	COMDAT xdata$x
xdata$x	SEGMENT
__unwindtable$?AfxGetPctrInterface@@YGJH@Z DD 0ffffffffH
	DD	FLAT:__unwindfunclet$?AfxGetPctrInterface@@YGJH@Z$0
__ehfuncinfo$?AfxGetPctrInterface@@YGJH@Z DD 019930522H
	DD	01H
	DD	FLAT:__unwindtable$?AfxGetPctrInterface@@YGJH@Z
	DD	2 DUP(00H)
	DD	2 DUP(00H)
	DD	00H
	DD	01H
xdata$x	ENDS
;	COMDAT xdata$x
xdata$x	SEGMENT
__unwindtable$??HATL@@YA?AV?$CStringT@DV?$StrTraitMFC_DLL@DV?$ChTraitsCRT@D@ATL@@@@@0@ABV10@PBD@Z DD 0ffffffffH
	DD	FLAT:__unwindfunclet$??HATL@@YA?AV?$CStringT@DV?$StrTraitMFC_DLL@DV?$ChTraitsCRT@D@ATL@@@@@0@ABV10@PBD@Z$0
__ehfuncinfo$??HATL@@YA?AV?$CStringT@DV?$StrTraitMFC_DLL@DV?$ChTraitsCRT@D@ATL@@@@@0@ABV10@PBD@Z DD 019930522H
	DD	01H
	DD	FLAT:__unwindtable$??HATL@@YA?AV?$CStringT@DV?$StrTraitMFC_DLL@DV?$ChTraitsCRT@D@ATL@@@@@0@ABV10@PBD@Z
	DD	2 DUP(00H)
	DD	2 DUP(00H)
	DD	00H
	DD	01H
xdata$x	ENDS
CRT$XCU	SEGMENT
?RMSG_GETPCTRDATA$initializer$@@3P6AXXZA DD FLAT:??__ERMSG_GETPCTRDATA@@YAXXZ ; RMSG_GETPCTRDATA$initializer$
CRT$XCU	ENDS
CRT$XCU	SEGMENT
?RMSG_SETPCTRDATA$initializer$@@3P6AXXZA DD FLAT:??__ERMSG_SETPCTRDATA@@YAXXZ ; RMSG_SETPCTRDATA$initializer$
CRT$XCU	ENDS
CRT$XCU	SEGMENT
?RMSG_GETSIGNAL_REAL$initializer$@@3P6AXXZA DD FLAT:??__ERMSG_GETSIGNAL_REAL@@YAXXZ ; RMSG_GETSIGNAL_REAL$initializer$
CRT$XCU	ENDS
CRT$XCU	SEGMENT
?RMSG_RECEIVE_DIRECT$initializer$@@3P6AXXZA DD FLAT:??__ERMSG_RECEIVE_DIRECT@@YAXXZ ; RMSG_RECEIVE_DIRECT$initializer$
CRT$XCU	ENDS
; Function compile flags: /Ogtp
; File C:\Program Files (x86)\Microsoft Visual Studio\2019\Community\VC\Tools\MSVC\14.29.30133\atlmfc\include\afxtempl.h
; File C:\Program Files (x86)\Microsoft Visual Studio\2019\Community\VC\Tools\MSVC\14.29.30133\atlmfc\include\afx.inl
; File C:\Program Files (x86)\Microsoft Visual Studio\2019\Community\VC\Tools\MSVC\14.29.30133\atlmfc\include\afxtempl.h
; File C:\Program Files (x86)\Microsoft Visual Studio\2019\Community\VC\Tools\MSVC\14.29.30133\atlmfc\include\afx.inl
; File C:\Program Files (x86)\Microsoft Visual Studio\2019\Community\VC\Tools\MSVC\14.29.30133\atlmfc\include\afxtempl.h
; File C:\Program Files (x86)\Microsoft Visual Studio\2019\Community\VC\Tools\MSVC\14.29.30133\atlmfc\include\afx.inl
; File C:\Program Files (x86)\Microsoft Visual Studio\2019\Community\VC\Tools\MSVC\14.29.30133\atlmfc\include\afxtempl.h
;	COMDAT ??$SerializeElements@UFID_SENDDATA@@@@YGXAAVCArchive@@PAUFID_SENDDATA@@H@Z
_TEXT	SEGMENT
_ar$ = 8						; size = 4
_pElements$ = 12					; size = 4
_nCount$ = 16						; size = 4
??$SerializeElements@UFID_SENDDATA@@@@YGXAAVCArchive@@PAUFID_SENDDATA@@H@Z PROC ; SerializeElements<FID_SENDDATA>, COMDAT

; 67   : {

  00000	55		 push	 ebp
  00001	8b ec		 mov	 ebp, esp

; 68   : 	ENSURE(nCount == 0 || pElements != NULL);

  00003	8b 4d 0c	 mov	 ecx, DWORD PTR _pElements$[ebp]
  00006	53		 push	 ebx
  00007	56		 push	 esi
  00008	8b 75 10	 mov	 esi, DWORD PTR _nCount$[ebp]
  0000b	57		 push	 edi
  0000c	85 f6		 test	 esi, esi
  0000e	74 04		 je	 SHORT $LN2@SerializeE
  00010	85 c9		 test	 ecx, ecx
  00012	74 7d		 je	 SHORT $LN34@SerializeE
$LN2@SerializeE:
; File C:\Program Files (x86)\Microsoft Visual Studio\2019\Community\VC\Tools\MSVC\14.29.30133\atlmfc\include\afx.inl

; 212  : 	{ return (m_nMode & CArchive::load) == 0; }

  00014	8b 55 08	 mov	 edx, DWORD PTR _ar$[ebp]
  00017	8b 42 18	 mov	 eax, DWORD PTR [edx+24]
  0001a	f7 d0		 not	 eax
  0001c	a8 01		 test	 al, 1
; File C:\Program Files (x86)\Microsoft Visual Studio\2019\Community\VC\Tools\MSVC\14.29.30133\atlmfc\include\afxtempl.h

; 73   : 	if (ar.IsStoring())

  0001e	74 32		 je	 SHORT $LN10@SerializeE

; 74   : 	{
; 75   : 		TYPE* pData;
; 76   : 		UINT_PTR nElementsLeft;
; 77   : 
; 78   : 		nElementsLeft = nCount;
; 79   : 		pData = pElements;
; 80   : 		while( nElementsLeft > 0 )

  00020	85 f6		 test	 esi, esi
  00022	74 27		 je	 SHORT $LN8@SerializeE
$LL5@SerializeE:

; 81   : 		{
; 82   : 			UINT nElementsToWrite;
; 83   : 
; 84   : 			nElementsToWrite = UINT(__min(nElementsLeft, INT_MAX/sizeof(TYPE)));

  00024	bb ff ff ff 07	 mov	 ebx, 134217727		; 07ffffffH
  00029	3b f3		 cmp	 esi, ebx
  0002b	0f 42 de	 cmovb	 ebx, esi

; 85   : 			ar.Write(pData, nElementsToWrite*sizeof(TYPE));

  0002e	8b fb		 mov	 edi, ebx
  00030	c1 e7 04	 shl	 edi, 4
  00033	57		 push	 edi
  00034	51		 push	 ecx
  00035	8b ca		 mov	 ecx, edx
  00037	e8 00 00 00 00	 call	 ?Write@CArchive@@QAEXPBXI@Z ; CArchive::Write

; 86   : 			nElementsLeft -= nElementsToWrite;
; 87   : 			pData += nElementsToWrite;

  0003c	8b 4d 0c	 mov	 ecx, DWORD PTR _pElements$[ebp]
  0003f	8b 55 08	 mov	 edx, DWORD PTR _ar$[ebp]
  00042	03 cf		 add	 ecx, edi
  00044	89 4d 0c	 mov	 DWORD PTR _pElements$[ebp], ecx
  00047	2b f3		 sub	 esi, ebx
  00049	75 d9		 jne	 SHORT $LL5@SerializeE
$LN8@SerializeE:
  0004b	5f		 pop	 edi

; 105  : 		}
; 106  : 	}
; 107  : }

  0004c	5e		 pop	 esi
  0004d	5b		 pop	 ebx
  0004e	5d		 pop	 ebp
  0004f	c2 0c 00	 ret	 12			; 0000000cH
$LN10@SerializeE:

; 97   : 		while( nElementsLeft > 0 )

  00052	85 f6		 test	 esi, esi
  00054	74 f5		 je	 SHORT $LN8@SerializeE
$LL7@SerializeE:

; 98   : 		{
; 99   : 			UINT nElementsToRead;
; 100  : 
; 101  : 			nElementsToRead = UINT(__min(nElementsLeft, INT_MAX/sizeof(TYPE)));

  00056	bb ff ff ff 07	 mov	 ebx, 134217727		; 07ffffffH
  0005b	3b f3		 cmp	 esi, ebx
  0005d	0f 42 de	 cmovb	 ebx, esi

; 102  : 			ar.EnsureRead(pData, nElementsToRead*sizeof(TYPE));

  00060	8b fb		 mov	 edi, ebx
  00062	c1 e7 04	 shl	 edi, 4
; File C:\Program Files (x86)\Microsoft Visual Studio\2019\Community\VC\Tools\MSVC\14.29.30133\atlmfc\include\afx.inl

; 399  : 	UINT nRead=Read(lpBuf, nCount);

  00065	57		 push	 edi
  00066	51		 push	 ecx
  00067	8b ca		 mov	 ecx, edx
  00069	e8 00 00 00 00	 call	 ?Read@CArchive@@QAEIPAXI@Z ; CArchive::Read

; 400  : 	if(nRead!=nCount)

  0006e	3b c7		 cmp	 eax, edi
  00070	75 16		 jne	 SHORT $LN23@SerializeE
; File C:\Program Files (x86)\Microsoft Visual Studio\2019\Community\VC\Tools\MSVC\14.29.30133\atlmfc\include\afxtempl.h

; 97   : 		while( nElementsLeft > 0 )

  00072	8b 4d 0c	 mov	 ecx, DWORD PTR _pElements$[ebp]
  00075	8b 55 08	 mov	 edx, DWORD PTR _ar$[ebp]

; 103  : 			nElementsLeft -= nElementsToRead;
; 104  : 			pData += nElementsToRead;

  00078	03 cf		 add	 ecx, edi
  0007a	89 4d 0c	 mov	 DWORD PTR _pElements$[ebp], ecx
  0007d	2b f3		 sub	 esi, ebx
  0007f	75 d5		 jne	 SHORT $LL7@SerializeE

; 105  : 		}
; 106  : 	}
; 107  : }

  00081	5f		 pop	 edi
  00082	5e		 pop	 esi
  00083	5b		 pop	 ebx
  00084	5d		 pop	 ebp
  00085	c2 0c 00	 ret	 12			; 0000000cH
$LN23@SerializeE:
; File C:\Program Files (x86)\Microsoft Visual Studio\2019\Community\VC\Tools\MSVC\14.29.30133\atlmfc\include\afx.inl

; 402  : 		AfxThrowArchiveException(CArchiveException::endOfFile);

  00088	6a 00		 push	 0
  0008a	6a 03		 push	 3
  0008c	e8 00 00 00 00	 call	 ?AfxThrowArchiveException@@YGXHPBD@Z ; AfxThrowArchiveException
$LN34@SerializeE:
; File C:\Program Files (x86)\Microsoft Visual Studio\2019\Community\VC\Tools\MSVC\14.29.30133\atlmfc\include\afxtempl.h

; 68   : 	ENSURE(nCount == 0 || pElements != NULL);

  00091	e8 00 00 00 00	 call	 ?AfxThrowInvalidArgException@@YGXXZ ; AfxThrowInvalidArgException
$LN32@SerializeE:
  00096	cc		 int	 3
??$SerializeElements@UFID_SENDDATA@@@@YGXAAVCArchive@@PAUFID_SENDDATA@@H@Z ENDP ; SerializeElements<FID_SENDDATA>
_TEXT	ENDS
; Function compile flags: /Ogtp
; File C:\Program Files (x86)\Microsoft Visual Studio\2019\Community\VC\Tools\MSVC\14.29.30133\atlmfc\include\afxtempl.h
; File C:\Program Files (x86)\Microsoft Visual Studio\2019\Community\VC\Tools\MSVC\14.29.30133\atlmfc\include\afx.inl
; File C:\Program Files (x86)\Microsoft Visual Studio\2019\Community\VC\Tools\MSVC\14.29.30133\atlmfc\include\afxtempl.h
; File C:\Program Files (x86)\Microsoft Visual Studio\2019\Community\VC\Tools\MSVC\14.29.30133\atlmfc\include\afx.inl
; File C:\Program Files (x86)\Microsoft Visual Studio\2019\Community\VC\Tools\MSVC\14.29.30133\atlmfc\include\afxtempl.h
; File C:\Program Files (x86)\Microsoft Visual Studio\2019\Community\VC\Tools\MSVC\14.29.30133\atlmfc\include\afx.inl
; File C:\Program Files (x86)\Microsoft Visual Studio\2019\Community\VC\Tools\MSVC\14.29.30133\atlmfc\include\afxtempl.h
;	COMDAT ??$SerializeElements@H@@YGXAAVCArchive@@PAHH@Z
_TEXT	SEGMENT
_ar$ = 8						; size = 4
_pElements$ = 12					; size = 4
_nCount$ = 16						; size = 4
??$SerializeElements@H@@YGXAAVCArchive@@PAHH@Z PROC	; SerializeElements<int>, COMDAT

; 67   : {

  00000	55		 push	 ebp
  00001	8b ec		 mov	 ebp, esp

; 68   : 	ENSURE(nCount == 0 || pElements != NULL);

  00003	8b 4d 0c	 mov	 ecx, DWORD PTR _pElements$[ebp]
  00006	53		 push	 ebx
  00007	56		 push	 esi
  00008	8b 75 10	 mov	 esi, DWORD PTR _nCount$[ebp]
  0000b	57		 push	 edi
  0000c	85 f6		 test	 esi, esi
  0000e	74 08		 je	 SHORT $LN2@SerializeE
  00010	85 c9		 test	 ecx, ecx
  00012	0f 84 89 00 00
	00		 je	 $LN34@SerializeE
$LN2@SerializeE:
; File C:\Program Files (x86)\Microsoft Visual Studio\2019\Community\VC\Tools\MSVC\14.29.30133\atlmfc\include\afx.inl

; 212  : 	{ return (m_nMode & CArchive::load) == 0; }

  00018	8b 55 08	 mov	 edx, DWORD PTR _ar$[ebp]
  0001b	8b 42 18	 mov	 eax, DWORD PTR [edx+24]
  0001e	f7 d0		 not	 eax
  00020	a8 01		 test	 al, 1
; File C:\Program Files (x86)\Microsoft Visual Studio\2019\Community\VC\Tools\MSVC\14.29.30133\atlmfc\include\afxtempl.h

; 73   : 	if (ar.IsStoring())

  00022	74 3c		 je	 SHORT $LN10@SerializeE

; 74   : 	{
; 75   : 		TYPE* pData;
; 76   : 		UINT_PTR nElementsLeft;
; 77   : 
; 78   : 		nElementsLeft = nCount;
; 79   : 		pData = pElements;
; 80   : 		while( nElementsLeft > 0 )

  00024	85 f6		 test	 esi, esi
  00026	74 31		 je	 SHORT $LN8@SerializeE
  00028	0f 1f 84 00 00
	00 00 00	 npad	 8
$LL5@SerializeE:

; 81   : 		{
; 82   : 			UINT nElementsToWrite;
; 83   : 
; 84   : 			nElementsToWrite = UINT(__min(nElementsLeft, INT_MAX/sizeof(TYPE)));

  00030	bb ff ff ff 1f	 mov	 ebx, 536870911		; 1fffffffH
  00035	3b f3		 cmp	 esi, ebx
  00037	0f 42 de	 cmovb	 ebx, esi

; 85   : 			ar.Write(pData, nElementsToWrite*sizeof(TYPE));

  0003a	8d 3c 9d 00 00
	00 00		 lea	 edi, DWORD PTR [ebx*4]
  00041	57		 push	 edi
  00042	51		 push	 ecx
  00043	8b ca		 mov	 ecx, edx
  00045	e8 00 00 00 00	 call	 ?Write@CArchive@@QAEXPBXI@Z ; CArchive::Write

; 86   : 			nElementsLeft -= nElementsToWrite;
; 87   : 			pData += nElementsToWrite;

  0004a	8b 4d 0c	 mov	 ecx, DWORD PTR _pElements$[ebp]
  0004d	8b 55 08	 mov	 edx, DWORD PTR _ar$[ebp]
  00050	03 cf		 add	 ecx, edi
  00052	89 4d 0c	 mov	 DWORD PTR _pElements$[ebp], ecx
  00055	2b f3		 sub	 esi, ebx
  00057	75 d7		 jne	 SHORT $LL5@SerializeE
$LN8@SerializeE:
  00059	5f		 pop	 edi

; 105  : 		}
; 106  : 	}
; 107  : }

  0005a	5e		 pop	 esi
  0005b	5b		 pop	 ebx
  0005c	5d		 pop	 ebp
  0005d	c2 0c 00	 ret	 12			; 0000000cH
$LN10@SerializeE:

; 97   : 		while( nElementsLeft > 0 )

  00060	85 f6		 test	 esi, esi
  00062	74 f5		 je	 SHORT $LN8@SerializeE
$LL7@SerializeE:

; 98   : 		{
; 99   : 			UINT nElementsToRead;
; 100  : 
; 101  : 			nElementsToRead = UINT(__min(nElementsLeft, INT_MAX/sizeof(TYPE)));

  00064	bf ff ff ff 1f	 mov	 edi, 536870911		; 1fffffffH
  00069	3b f7		 cmp	 esi, edi
  0006b	0f 42 fe	 cmovb	 edi, esi

; 102  : 			ar.EnsureRead(pData, nElementsToRead*sizeof(TYPE));

  0006e	8d 1c bd 00 00
	00 00		 lea	 ebx, DWORD PTR [edi*4]
; File C:\Program Files (x86)\Microsoft Visual Studio\2019\Community\VC\Tools\MSVC\14.29.30133\atlmfc\include\afx.inl

; 399  : 	UINT nRead=Read(lpBuf, nCount);

  00075	53		 push	 ebx
  00076	51		 push	 ecx
  00077	8b ca		 mov	 ecx, edx
  00079	e8 00 00 00 00	 call	 ?Read@CArchive@@QAEIPAXI@Z ; CArchive::Read

; 400  : 	if(nRead!=nCount)

  0007e	3b c3		 cmp	 eax, ebx
  00080	75 16		 jne	 SHORT $LN23@SerializeE
; File C:\Program Files (x86)\Microsoft Visual Studio\2019\Community\VC\Tools\MSVC\14.29.30133\atlmfc\include\afxtempl.h

; 97   : 		while( nElementsLeft > 0 )

  00082	8b 4d 0c	 mov	 ecx, DWORD PTR _pElements$[ebp]
  00085	8b 55 08	 mov	 edx, DWORD PTR _ar$[ebp]

; 103  : 			nElementsLeft -= nElementsToRead;
; 104  : 			pData += nElementsToRead;

  00088	03 cb		 add	 ecx, ebx
  0008a	89 4d 0c	 mov	 DWORD PTR _pElements$[ebp], ecx
  0008d	2b f7		 sub	 esi, edi
  0008f	75 d3		 jne	 SHORT $LL7@SerializeE

; 105  : 		}
; 106  : 	}
; 107  : }

  00091	5f		 pop	 edi
  00092	5e		 pop	 esi
  00093	5b		 pop	 ebx
  00094	5d		 pop	 ebp
  00095	c2 0c 00	 ret	 12			; 0000000cH
$LN23@SerializeE:
; File C:\Program Files (x86)\Microsoft Visual Studio\2019\Community\VC\Tools\MSVC\14.29.30133\atlmfc\include\afx.inl

; 402  : 		AfxThrowArchiveException(CArchiveException::endOfFile);

  00098	6a 00		 push	 0
  0009a	6a 03		 push	 3
  0009c	e8 00 00 00 00	 call	 ?AfxThrowArchiveException@@YGXHPBD@Z ; AfxThrowArchiveException
$LN34@SerializeE:
; File C:\Program Files (x86)\Microsoft Visual Studio\2019\Community\VC\Tools\MSVC\14.29.30133\atlmfc\include\afxtempl.h

; 68   : 	ENSURE(nCount == 0 || pElements != NULL);

  000a1	e8 00 00 00 00	 call	 ?AfxThrowInvalidArgException@@YGXXZ ; AfxThrowInvalidArgException
$LN32@SerializeE:
  000a6	cc		 int	 3
??$SerializeElements@H@@YGXAAVCArchive@@PAHH@Z ENDP	; SerializeElements<int>
_TEXT	ENDS
; Function compile flags: /Ogtp
; File C:\Program Files (x86)\Microsoft Visual Studio\2019\Community\VC\Tools\MSVC\14.29.30133\atlmfc\include\afxtempl.h
; File C:\Program Files (x86)\Microsoft Visual Studio\2019\Community\VC\Tools\MSVC\14.29.30133\atlmfc\include\cstringt.h
; File C:\Program Files (x86)\Microsoft Visual Studio\2019\Community\VC\Tools\MSVC\14.29.30133\atlmfc\include\afxtempl.h
;	COMDAT ??$CompareElements@V?$CStringT@DV?$StrTraitMFC_DLL@DV?$ChTraitsCRT@D@ATL@@@@@ATL@@PBD@@YGHPBV?$CStringT@DV?$StrTraitMFC_DLL@DV?$ChTraitsCRT@D@ATL@@@@@ATL@@PBQBD@Z
_TEXT	SEGMENT
_pElement1$ = 8						; size = 4
_pElement2$ = 12					; size = 4
??$CompareElements@V?$CStringT@DV?$StrTraitMFC_DLL@DV?$ChTraitsCRT@D@ATL@@@@@ATL@@PBD@@YGHPBV?$CStringT@DV?$StrTraitMFC_DLL@DV?$ChTraitsCRT@D@ATL@@@@@ATL@@PBQBD@Z PROC ; CompareElements<ATL::CStringT<char,StrTraitMFC_DLL<char,ATL::ChTraitsCRT<char> > >,char const *>, COMDAT

; 151  : {

  00000	55		 push	 ebp
  00001	8b ec		 mov	 ebp, esp

; 152  : 	ENSURE(pElement1 != NULL && pElement2 != NULL);

  00003	8b 4d 08	 mov	 ecx, DWORD PTR _pElement1$[ebp]
  00006	85 c9		 test	 ecx, ecx
  00008	74 18		 je	 SHORT $LN7@CompareEle
  0000a	8b 45 0c	 mov	 eax, DWORD PTR _pElement2$[ebp]
  0000d	85 c0		 test	 eax, eax
  0000f	74 11		 je	 SHORT $LN7@CompareEle
; File C:\Program Files (x86)\Microsoft Visual Studio\2019\Community\VC\Tools\MSVC\14.29.30133\atlmfc\include\cstringt.h

; 2486 : 		return(str1.Compare(psz2) == 0);

  00011	ff 30		 push	 DWORD PTR [eax]
  00013	ff 15 00 00 00
	00		 call	 DWORD PTR __imp_?Compare@?$CStringT@DV?$StrTraitMFC_DLL@DV?$ChTraitsCRT@D@ATL@@@@@ATL@@QBEHPBD@Z
  00019	f7 d8		 neg	 eax
  0001b	1b c0		 sbb	 eax, eax
  0001d	40		 inc	 eax
; File C:\Program Files (x86)\Microsoft Visual Studio\2019\Community\VC\Tools\MSVC\14.29.30133\atlmfc\include\afxtempl.h

; 157  : }

  0001e	5d		 pop	 ebp
  0001f	c2 08 00	 ret	 8
$LN7@CompareEle:

; 152  : 	ENSURE(pElement1 != NULL && pElement2 != NULL);

  00022	e8 00 00 00 00	 call	 ?AfxThrowInvalidArgException@@YGXXZ ; AfxThrowInvalidArgException
$LN12@CompareEle:
  00027	cc		 int	 3
??$CompareElements@V?$CStringT@DV?$StrTraitMFC_DLL@DV?$ChTraitsCRT@D@ATL@@@@@ATL@@PBD@@YGHPBV?$CStringT@DV?$StrTraitMFC_DLL@DV?$ChTraitsCRT@D@ATL@@@@@ATL@@PBQBD@Z ENDP ; CompareElements<ATL::CStringT<char,StrTraitMFC_DLL<char,ATL::ChTraitsCRT<char> > >,char const *>
_TEXT	ENDS
; Function compile flags: /Ogtp
;	COMDAT ??1CRealData_Common@@QAE@XZ
_TEXT	SEGMENT
??1CRealData_Common@@QAE@XZ PROC			; CRealData_Common::~CRealData_Common, COMDAT
; _this$ = ecx
  00000	56		 push	 esi
  00001	8b f1		 mov	 esi, ecx
  00003	8d 4e 34	 lea	 ecx, DWORD PTR [esi+52]
  00006	ff 15 00 00 00
	00		 call	 DWORD PTR __imp_??1?$CStringT@DV?$StrTraitMFC_DLL@DV?$ChTraitsCRT@D@ATL@@@@@ATL@@QAE@XZ
  0000c	8d 4e 28	 lea	 ecx, DWORD PTR [esi+40]
  0000f	ff 15 00 00 00
	00		 call	 DWORD PTR __imp_??1?$CStringT@DV?$StrTraitMFC_DLL@DV?$ChTraitsCRT@D@ATL@@@@@ATL@@QAE@XZ
  00015	8d 4e 24	 lea	 ecx, DWORD PTR [esi+36]
  00018	ff 15 00 00 00
	00		 call	 DWORD PTR __imp_??1?$CStringT@DV?$StrTraitMFC_DLL@DV?$ChTraitsCRT@D@ATL@@@@@ATL@@QAE@XZ
  0001e	8d 4e 20	 lea	 ecx, DWORD PTR [esi+32]
  00021	ff 15 00 00 00
	00		 call	 DWORD PTR __imp_??1?$CStringT@DV?$StrTraitMFC_DLL@DV?$ChTraitsCRT@D@ATL@@@@@ATL@@QAE@XZ
  00027	8d 4e 1c	 lea	 ecx, DWORD PTR [esi+28]
  0002a	ff 15 00 00 00
	00		 call	 DWORD PTR __imp_??1?$CStringT@DV?$StrTraitMFC_DLL@DV?$ChTraitsCRT@D@ATL@@@@@ATL@@QAE@XZ
  00030	8d 4e 18	 lea	 ecx, DWORD PTR [esi+24]
  00033	ff 15 00 00 00
	00		 call	 DWORD PTR __imp_??1?$CStringT@DV?$StrTraitMFC_DLL@DV?$ChTraitsCRT@D@ATL@@@@@ATL@@QAE@XZ
  00039	8d 4e 14	 lea	 ecx, DWORD PTR [esi+20]
  0003c	ff 15 00 00 00
	00		 call	 DWORD PTR __imp_??1?$CStringT@DV?$StrTraitMFC_DLL@DV?$ChTraitsCRT@D@ATL@@@@@ATL@@QAE@XZ
  00042	8d 4e 10	 lea	 ecx, DWORD PTR [esi+16]
  00045	ff 15 00 00 00
	00		 call	 DWORD PTR __imp_??1?$CStringT@DV?$StrTraitMFC_DLL@DV?$ChTraitsCRT@D@ATL@@@@@ATL@@QAE@XZ
  0004b	8d 4e 0c	 lea	 ecx, DWORD PTR [esi+12]
  0004e	ff 15 00 00 00
	00		 call	 DWORD PTR __imp_??1?$CStringT@DV?$StrTraitMFC_DLL@DV?$ChTraitsCRT@D@ATL@@@@@ATL@@QAE@XZ
  00054	8d 4e 08	 lea	 ecx, DWORD PTR [esi+8]
  00057	ff 15 00 00 00
	00		 call	 DWORD PTR __imp_??1?$CStringT@DV?$StrTraitMFC_DLL@DV?$ChTraitsCRT@D@ATL@@@@@ATL@@QAE@XZ
  0005d	8d 4e 04	 lea	 ecx, DWORD PTR [esi+4]
  00060	ff 15 00 00 00
	00		 call	 DWORD PTR __imp_??1?$CStringT@DV?$StrTraitMFC_DLL@DV?$ChTraitsCRT@D@ATL@@@@@ATL@@QAE@XZ
  00066	8b ce		 mov	 ecx, esi
  00068	5e		 pop	 esi
  00069	ff 25 00 00 00
	00		 jmp	 DWORD PTR __imp_??1?$CStringT@DV?$StrTraitMFC_DLL@DV?$ChTraitsCRT@D@ATL@@@@@ATL@@QAE@XZ
??1CRealData_Common@@QAE@XZ ENDP			; CRealData_Common::~CRealData_Common
_TEXT	ENDS
; Function compile flags: /Ogtp
; File D:\git\src\IBK\IBK_DRFN\ProjSrc\SrcDrfn\DrCommon\PartnerMng\_PartnerManager.cpp
;	COMDAT ??__ERMSG_RECEIVE_DIRECT@@YAXXZ
text$di	SEGMENT
??__ERMSG_RECEIVE_DIRECT@@YAXXZ PROC			; `dynamic initializer for 'RMSG_RECEIVE_DIRECT'', COMDAT

; 13   : const UINT RMSG_RECEIVE_DIRECT	= ::RegisterWindowMessage("RMSG_RECEIVE_DIRECT");

  00000	68 00 00 00 00	 push	 OFFSET ??_C@_0BE@EALJDAHP@RMSG_RECEIVE_DIRECT@
  00005	ff 15 00 00 00
	00		 call	 DWORD PTR __imp__RegisterWindowMessageA@4
  0000b	a3 00 00 00 00	 mov	 DWORD PTR ?RMSG_RECEIVE_DIRECT@@3IB, eax
  00010	c3		 ret	 0
??__ERMSG_RECEIVE_DIRECT@@YAXXZ ENDP			; `dynamic initializer for 'RMSG_RECEIVE_DIRECT''
text$di	ENDS
; Function compile flags: /Ogtp
; File D:\git\src\IBK\IBK_DRFN\ProjSrc\SrcDrfn\DrCommon\PartnerMng\_PartnerManager.cpp
; File C:\Program Files (x86)\Microsoft Visual Studio\2019\Community\VC\Tools\MSVC\14.29.30133\atlmfc\include\afxcoll.inl
; File D:\git\src\IBK\IBK_DRFN\ProjSrc\SrcDrfn\DrCommon\PartnerMng\_PartnerManager.cpp
; File C:\Program Files (x86)\Microsoft Visual Studio\2019\Community\VC\Tools\MSVC\14.29.30133\atlmfc\include\afxcoll.inl
; File D:\git\src\IBK\IBK_DRFN\ProjSrc\SrcDrfn\DrCommon\PartnerMng\_PartnerManager.cpp
; File C:\Program Files (x86)\Microsoft Visual Studio\2019\Community\VC\Tools\MSVC\14.29.30133\atlmfc\include\afxcoll.inl
; File D:\git\src\IBK\IBK_DRFN\ProjSrc\SrcDrfn\DrCommon\PartnerMng\_PartnerManager.cpp
; File C:\Program Files (x86)\Microsoft Visual Studio\2019\Community\VC\Tools\MSVC\14.29.30133\atlmfc\include\afxcoll.inl
; File D:\git\src\IBK\IBK_DRFN\ProjSrc\SrcDrfn\DrCommon\PartnerMng\_PartnerManager.cpp
; File C:\Program Files (x86)\Microsoft Visual Studio\2019\Community\VC\Tools\MSVC\14.29.30133\atlmfc\include\afxcoll.inl
; File D:\git\src\IBK\IBK_DRFN\ProjSrc\SrcDrfn\DrCommon\PartnerMng\_PartnerManager.cpp
;	COMDAT ?SetParentHandle@CPartnerSvrManager@@UAGHEPAUHWND__@@0@Z
_TEXT	SEGMENT
_szKey$ = -4						; size = 4
_this$ = 8						; size = 4
_szItem$1 = 12						; size = 4
_cKey$ = 12						; size = 1
__hWinixWnd$ = 16					; size = 4
__hChart$ = 20						; size = 4
?SetParentHandle@CPartnerSvrManager@@UAGHEPAUHWND__@@0@Z PROC ; CPartnerSvrManager::SetParentHandle, COMDAT

; 1352 : {

  00000	55		 push	 ebp
  00001	8b ec		 mov	 ebp, esp
  00003	51		 push	 ecx
  00004	56		 push	 esi

; 1353 : 	CString szKey;

  00005	8d 4d fc	 lea	 ecx, DWORD PTR _szKey$[ebp]
  00008	ff 15 00 00 00
	00		 call	 DWORD PTR __imp_??0?$CStringT@DV?$StrTraitMFC_DLL@DV?$ChTraitsCRT@D@ATL@@@@@ATL@@QAE@XZ

; 1354 : 	szKey.Format("%08X_%08X", _hWinixWnd, _hChart);

  0000e	ff 75 14	 push	 DWORD PTR __hChart$[ebp]
  00011	8d 45 fc	 lea	 eax, DWORD PTR _szKey$[ebp]
  00014	ff 75 10	 push	 DWORD PTR __hWinixWnd$[ebp]
  00017	68 00 00 00 00	 push	 OFFSET ??_C@_09IBOKPBFE@?$CF08X_?$CF08X@
  0001c	50		 push	 eax
  0001d	ff 15 00 00 00
	00		 call	 DWORD PTR __imp_?Format@?$CStringT@DV?$StrTraitMFC_DLL@DV?$ChTraitsCRT@D@ATL@@@@@ATL@@QAAXPBDZZ

; 1355 : 
; 1356 : 	if(cKey=='A')

  00023	8a 45 0c	 mov	 al, BYTE PTR _cKey$[ebp]
  00026	83 c4 10	 add	 esp, 16			; 00000010H
  00029	3c 41		 cmp	 al, 65			; 00000041H
  0002b	75 29		 jne	 SHORT $LN5@SetParentH

; 1359 : 		m_mapHandleList.Add(szKey);

  0002d	8b 4d 08	 mov	 ecx, DWORD PTR _this$[ebp]
; File C:\Program Files (x86)\Microsoft Visual Studio\2019\Community\VC\Tools\MSVC\14.29.30133\atlmfc\include\afxcoll.inl

; 321  : 		SetAtGrow(nIndex, newElement);

  00030	8d 45 fc	 lea	 eax, DWORD PTR _szKey$[ebp]
; File D:\git\src\IBK\IBK_DRFN\ProjSrc\SrcDrfn\DrCommon\PartnerMng\_PartnerManager.cpp

; 1359 : 		m_mapHandleList.Add(szKey);

  00033	83 c1 20	 add	 ecx, 32			; 00000020H
; File C:\Program Files (x86)\Microsoft Visual Studio\2019\Community\VC\Tools\MSVC\14.29.30133\atlmfc\include\afxcoll.inl

; 321  : 		SetAtGrow(nIndex, newElement);

  00036	50		 push	 eax
  00037	ff 71 08	 push	 DWORD PTR [ecx+8]
  0003a	e8 00 00 00 00	 call	 ?SetAtGrow@CStringArray@@QAEXHABV?$CStringT@DV?$StrTraitMFC_DLL@DV?$ChTraitsCRT@D@ATL@@@@@ATL@@@Z ; CStringArray::SetAtGrow
; File D:\git\src\IBK\IBK_DRFN\ProjSrc\SrcDrfn\DrCommon\PartnerMng\_PartnerManager.cpp

; 1378 : 	return FALSE;

  0003f	8d 4d fc	 lea	 ecx, DWORD PTR _szKey$[ebp]
  00042	be 01 00 00 00	 mov	 esi, 1
  00047	ff 15 00 00 00
	00		 call	 DWORD PTR __imp_??1?$CStringT@DV?$StrTraitMFC_DLL@DV?$ChTraitsCRT@D@ATL@@@@@ATL@@QAE@XZ
  0004d	8b c6		 mov	 eax, esi
  0004f	5e		 pop	 esi

; 1379 : }

  00050	8b e5		 mov	 esp, ebp
  00052	5d		 pop	 ebp
  00053	c2 10 00	 ret	 16			; 00000010H
$LN5@SetParentH:
  00056	53		 push	 ebx
  00057	57		 push	 edi

; 1360 : 		return TRUE;
; 1361 : 	}
; 1362 : 	else if(cKey=='U')

  00058	3c 55		 cmp	 al, 85			; 00000055H
  0005a	75 4e		 jne	 SHORT $LN7@SetParentH

; 1363 : 	{
; 1364 : 		CString szItem;

  0005c	8d 4d 0c	 lea	 ecx, DWORD PTR _szItem$1[ebp]
  0005f	ff 15 00 00 00
	00		 call	 DWORD PTR __imp_??0?$CStringT@DV?$StrTraitMFC_DLL@DV?$ChTraitsCRT@D@ATL@@@@@ATL@@QAE@XZ

; 1365 : 		//HWND hWnd;
; 1366 : 		for(int i=0; i<m_mapHandleList.GetSize(); i++)

  00065	8b 7d 08	 mov	 edi, DWORD PTR _this$[ebp]
  00068	33 f6		 xor	 esi, esi
  0006a	8b 47 28	 mov	 eax, DWORD PTR [edi+40]
  0006d	85 c0		 test	 eax, eax
  0006f	7e 30		 jle	 SHORT $LN3@SetParentH
$LL4@SetParentH:
; File C:\Program Files (x86)\Microsoft Visual Studio\2019\Community\VC\Tools\MSVC\14.29.30133\atlmfc\include\afxcoll.inl

; 289  : 		if( nIndex < 0 || nIndex >= m_nSize )

  00071	85 f6		 test	 esi, esi
  00073	78 78		 js	 SHORT $LN16@SetParentH
  00075	3b f0		 cmp	 esi, eax
  00077	7d 74		 jge	 SHORT $LN16@SetParentH

; 291  : 		return m_pData[nIndex]; }

  00079	8b 47 24	 mov	 eax, DWORD PTR [edi+36]
; File D:\git\src\IBK\IBK_DRFN\ProjSrc\SrcDrfn\DrCommon\PartnerMng\_PartnerManager.cpp

; 1369 : 			szItem = m_mapHandleList.GetAt(i);

  0007c	8d 4d 0c	 lea	 ecx, DWORD PTR _szItem$1[ebp]
; File C:\Program Files (x86)\Microsoft Visual Studio\2019\Community\VC\Tools\MSVC\14.29.30133\atlmfc\include\afxcoll.inl

; 291  : 		return m_pData[nIndex]; }

  0007f	8d 04 b0	 lea	 eax, DWORD PTR [eax+esi*4]
; File D:\git\src\IBK\IBK_DRFN\ProjSrc\SrcDrfn\DrCommon\PartnerMng\_PartnerManager.cpp

; 1369 : 			szItem = m_mapHandleList.GetAt(i);

  00082	50		 push	 eax
  00083	ff 15 00 00 00
	00		 call	 DWORD PTR __imp_??4?$CStringT@DV?$StrTraitMFC_DLL@DV?$ChTraitsCRT@D@ATL@@@@@ATL@@QAEAAV01@ABV01@@Z

; 1370 : 			//if(hWnd==_hWnd)
; 1371 : 			if(szItem.Compare(szKey)==0)

  00089	ff 75 fc	 push	 DWORD PTR _szKey$[ebp]
  0008c	8d 4d 0c	 lea	 ecx, DWORD PTR _szItem$1[ebp]
  0008f	ff 15 00 00 00
	00		 call	 DWORD PTR __imp_?Compare@?$CStringT@DV?$StrTraitMFC_DLL@DV?$ChTraitsCRT@D@ATL@@@@@ATL@@QBEHPBD@Z
  00095	85 c0		 test	 eax, eax
  00097	74 27		 je	 SHORT $LN23@SetParentH

; 1365 : 		//HWND hWnd;
; 1366 : 		for(int i=0; i<m_mapHandleList.GetSize(); i++)

  00099	8b 47 28	 mov	 eax, DWORD PTR [edi+40]
  0009c	46		 inc	 esi
  0009d	3b f0		 cmp	 esi, eax
  0009f	7c d0		 jl	 SHORT $LL4@SetParentH
$LN3@SetParentH:

; 1375 : 			}
; 1376 : 		}
; 1377 : 	}

  000a1	8d 4d 0c	 lea	 ecx, DWORD PTR _szItem$1[ebp]
  000a4	ff 15 00 00 00
	00		 call	 DWORD PTR __imp_??1?$CStringT@DV?$StrTraitMFC_DLL@DV?$ChTraitsCRT@D@ATL@@@@@ATL@@QAE@XZ
$LN7@SetParentH:

; 1378 : 	return FALSE;

  000aa	5f		 pop	 edi
  000ab	5b		 pop	 ebx
  000ac	8d 4d fc	 lea	 ecx, DWORD PTR _szKey$[ebp]
  000af	33 f6		 xor	 esi, esi
  000b1	ff 15 00 00 00
	00		 call	 DWORD PTR __imp_??1?$CStringT@DV?$StrTraitMFC_DLL@DV?$ChTraitsCRT@D@ATL@@@@@ATL@@QAE@XZ
  000b7	8b c6		 mov	 eax, esi
  000b9	5e		 pop	 esi

; 1379 : }

  000ba	8b e5		 mov	 esp, ebp
  000bc	5d		 pop	 ebp
  000bd	c2 10 00	 ret	 16			; 00000010H
$LN23@SetParentH:

; 1372 : 			{
; 1373 : 				m_mapHandleList.RemoveAt(i);

  000c0	6a 01		 push	 1
  000c2	56		 push	 esi
  000c3	8d 4f 20	 lea	 ecx, DWORD PTR [edi+32]
  000c6	e8 00 00 00 00	 call	 ?RemoveAt@CStringArray@@QAEXHH@Z ; CStringArray::RemoveAt

; 1374 : 				return TRUE;

  000cb	8d 4d 0c	 lea	 ecx, DWORD PTR _szItem$1[ebp]
  000ce	ff 15 00 00 00
	00		 call	 DWORD PTR __imp_??1?$CStringT@DV?$StrTraitMFC_DLL@DV?$ChTraitsCRT@D@ATL@@@@@ATL@@QAE@XZ
  000d4	5f		 pop	 edi
  000d5	5b		 pop	 ebx

; 1378 : 	return FALSE;

  000d6	8d 4d fc	 lea	 ecx, DWORD PTR _szKey$[ebp]
  000d9	be 01 00 00 00	 mov	 esi, 1
  000de	ff 15 00 00 00
	00		 call	 DWORD PTR __imp_??1?$CStringT@DV?$StrTraitMFC_DLL@DV?$ChTraitsCRT@D@ATL@@@@@ATL@@QAE@XZ
  000e4	8b c6		 mov	 eax, esi
  000e6	5e		 pop	 esi

; 1379 : }

  000e7	8b e5		 mov	 esp, ebp
  000e9	5d		 pop	 ebp
  000ea	c2 10 00	 ret	 16			; 00000010H
$LN16@SetParentH:
; File C:\Program Files (x86)\Microsoft Visual Studio\2019\Community\VC\Tools\MSVC\14.29.30133\atlmfc\include\afxcoll.inl

; 290  : 			AfxThrowInvalidArgException();

  000ed	e8 00 00 00 00	 call	 ?AfxThrowInvalidArgException@@YGXXZ ; AfxThrowInvalidArgException
$LN29@SetParentH:
  000f2	cc		 int	 3
?SetParentHandle@CPartnerSvrManager@@UAGHEPAUHWND__@@0@Z ENDP ; CPartnerSvrManager::SetParentHandle
_TEXT	ENDS
; Function compile flags: /Ogtp
; File D:\git\src\IBK\IBK_DRFN\ProjSrc\SrcDrfn\DrCommon\PartnerMng\_PartnerManager.cpp
; File C:\Program Files (x86)\Microsoft Visual Studio\2019\Community\VC\Tools\MSVC\14.29.30133\atlmfc\include\afxcoll.inl
; File D:\git\src\IBK\IBK_DRFN\ProjSrc\SrcDrfn\DrCommon\PartnerMng\_PartnerManager.cpp
; File C:\Program Files (x86)\Microsoft Visual Studio\2019\Community\VC\Tools\MSVC\14.29.30133\atlmfc\include\afxcoll.inl
; File D:\git\src\IBK\IBK_DRFN\ProjSrc\SrcDrfn\DrCommon\PartnerMng\_PartnerManager.cpp
;	COMDAT ?RemoveAll@CPartnerSvrManager@@QAEXXZ
_TEXT	SEGMENT
_rKey$ = -24						; size = 4
_pos$2 = -20						; size = 4
_rValue$ = -16						; size = 4
__$EHRec$ = -12						; size = 12
?RemoveAll@CPartnerSvrManager@@QAEXXZ PROC		; CPartnerSvrManager::RemoveAll, COMDAT
; _this$ = ecx

; 1315 : {

  00000	55		 push	 ebp
  00001	8b ec		 mov	 ebp, esp
  00003	6a ff		 push	 -1
  00005	68 00 00 00 00	 push	 __ehhandler$?RemoveAll@CPartnerSvrManager@@QAEXXZ
  0000a	64 a1 00 00 00
	00		 mov	 eax, DWORD PTR fs:0
  00010	50		 push	 eax
  00011	83 ec 0c	 sub	 esp, 12			; 0000000cH
  00014	56		 push	 esi
  00015	a1 00 00 00 00	 mov	 eax, DWORD PTR ___security_cookie
  0001a	33 c5		 xor	 eax, ebp
  0001c	50		 push	 eax
  0001d	8d 45 f4	 lea	 eax, DWORD PTR __$EHRec$[ebp]
  00020	64 a3 00 00 00
	00		 mov	 DWORD PTR fs:0, eax
  00026	8b f1		 mov	 esi, ecx

; 1316 : 	CString rKey;

  00028	8d 4d e8	 lea	 ecx, DWORD PTR _rKey$[ebp]
  0002b	ff 15 00 00 00
	00		 call	 DWORD PTR __imp_??0?$CStringT@DV?$StrTraitMFC_DLL@DV?$ChTraitsCRT@D@ATL@@@@@ATL@@QAE@XZ
; File C:\Program Files (x86)\Microsoft Visual Studio\2019\Community\VC\Tools\MSVC\14.29.30133\atlmfc\include\afxcoll.inl

; 630  : 	{ return (m_nCount == 0) ? NULL : BEFORE_START_POSITION; }

  00031	8b 56 10	 mov	 edx, DWORD PTR [esi+16]
  00034	8b c2		 mov	 eax, edx
  00036	f7 d8		 neg	 eax
; File D:\git\src\IBK\IBK_DRFN\ProjSrc\SrcDrfn\DrCommon\PartnerMng\_PartnerManager.cpp

; 1316 : 	CString rKey;

  00038	c7 45 fc 00 00
	00 00		 mov	 DWORD PTR __$EHRec$[ebp+8], 0

; 1317 : 	LPVOID rValue=NULL;

  0003f	c7 45 f0 00 00
	00 00		 mov	 DWORD PTR _rValue$[ebp], 0
; File C:\Program Files (x86)\Microsoft Visual Studio\2019\Community\VC\Tools\MSVC\14.29.30133\atlmfc\include\afxcoll.inl

; 630  : 	{ return (m_nCount == 0) ? NULL : BEFORE_START_POSITION; }

  00046	1b c0		 sbb	 eax, eax
; File D:\git\src\IBK\IBK_DRFN\ProjSrc\SrcDrfn\DrCommon\PartnerMng\_PartnerManager.cpp

; 1318 : 	for(POSITION pos=m_mapList.GetStartPosition(); pos;)

  00048	89 45 ec	 mov	 DWORD PTR _pos$2[ebp], eax
  0004b	85 d2		 test	 edx, edx
  0004d	74 2d		 je	 SHORT $LN12@RemoveAll
  0004f	90		 npad	 1
$LL2@RemoveAll:

; 1319 : 	{
; 1320 : 		m_mapList.GetNextAssoc(pos, rKey, rValue);

  00050	8d 45 f0	 lea	 eax, DWORD PTR _rValue$[ebp]
  00053	50		 push	 eax
  00054	8d 45 e8	 lea	 eax, DWORD PTR _rKey$[ebp]
  00057	50		 push	 eax
  00058	8d 45 ec	 lea	 eax, DWORD PTR _pos$2[ebp]
  0005b	50		 push	 eax
  0005c	8d 4e 04	 lea	 ecx, DWORD PTR [esi+4]
  0005f	e8 00 00 00 00	 call	 ?GetNextAssoc@CMapStringToPtr@@QBEXAAPAU__POSITION@@AAV?$CStringT@DV?$StrTraitMFC_DLL@DV?$ChTraitsCRT@D@ATL@@@@@ATL@@AAPAX@Z ; CMapStringToPtr::GetNextAssoc

; 1321 : 		IPartnerManager* pManager = (IPartnerManager*)rValue;
; 1322 : 		if(pManager) delete pManager;

  00064	8b 45 f0	 mov	 eax, DWORD PTR _rValue$[ebp]
  00067	85 c0		 test	 eax, eax
  00069	74 0b		 je	 SHORT $LN5@RemoveAll
  0006b	6a 04		 push	 4
  0006d	50		 push	 eax
  0006e	e8 00 00 00 00	 call	 ??3@YAXPAXI@Z		; operator delete
  00073	83 c4 08	 add	 esp, 8
$LN5@RemoveAll:

; 1318 : 	for(POSITION pos=m_mapList.GetStartPosition(); pos;)

  00076	83 7d ec 00	 cmp	 DWORD PTR _pos$2[ebp], 0
  0007a	75 d4		 jne	 SHORT $LL2@RemoveAll
$LN12@RemoveAll:

; 1323 : 	}
; 1324 : 	m_mapList.RemoveAll();

  0007c	8d 4e 04	 lea	 ecx, DWORD PTR [esi+4]
  0007f	e8 00 00 00 00	 call	 ?RemoveAll@CMapStringToPtr@@QAEXXZ ; CMapStringToPtr::RemoveAll

; 1325 : }

  00084	8d 4d e8	 lea	 ecx, DWORD PTR _rKey$[ebp]
  00087	ff 15 00 00 00
	00		 call	 DWORD PTR __imp_??1?$CStringT@DV?$StrTraitMFC_DLL@DV?$ChTraitsCRT@D@ATL@@@@@ATL@@QAE@XZ
  0008d	8b 4d f4	 mov	 ecx, DWORD PTR __$EHRec$[ebp]
  00090	64 89 0d 00 00
	00 00		 mov	 DWORD PTR fs:0, ecx
  00097	59		 pop	 ecx
  00098	5e		 pop	 esi
  00099	8b e5		 mov	 esp, ebp
  0009b	5d		 pop	 ebp
  0009c	c3		 ret	 0
_TEXT	ENDS
;	COMDAT text$x
text$x	SEGMENT
__unwindfunclet$?RemoveAll@CPartnerSvrManager@@QAEXXZ$0:
  00000	8d 4d e8	 lea	 ecx, DWORD PTR _rKey$[ebp]
  00003	ff 25 00 00 00
	00		 jmp	 DWORD PTR __imp_??1?$CStringT@DV?$StrTraitMFC_DLL@DV?$ChTraitsCRT@D@ATL@@@@@ATL@@QAE@XZ
  00009	cc		 int	 3
  0000a	cc		 int	 3
  0000b	cc		 int	 3
  0000c	cc		 int	 3
  0000d	cc		 int	 3
__ehhandler$?RemoveAll@CPartnerSvrManager@@QAEXXZ:
  0000e	90		 npad	 1
  0000f	90		 npad	 1
  00010	8b 54 24 08	 mov	 edx, DWORD PTR [esp+8]
  00014	8d 42 0c	 lea	 eax, DWORD PTR [edx+12]
  00017	8b 4a ec	 mov	 ecx, DWORD PTR [edx-20]
  0001a	33 c8		 xor	 ecx, eax
  0001c	e8 00 00 00 00	 call	 @__security_check_cookie@4
  00021	b8 00 00 00 00	 mov	 eax, OFFSET __ehfuncinfo$?RemoveAll@CPartnerSvrManager@@QAEXXZ
  00026	e9 00 00 00 00	 jmp	 ___CxxFrameHandler3
text$x	ENDS
?RemoveAll@CPartnerSvrManager@@QAEXXZ ENDP		; CPartnerSvrManager::RemoveAll
; Function compile flags: /Ogtp
; File D:\git\src\IBK\IBK_DRFN\ProjSrc\SrcDrfn\DrCommon\PartnerMng\_PartnerManager.cpp
;	COMDAT ?RemoveItem@CPartnerSvrManager@@QAEHPAUHWND__@@0@Z
_TEXT	SEGMENT
_rValue$ = -20						; size = 4
_szHandle$ = -16					; size = 4
__$EHRec$ = -12						; size = 12
__hWinixWnd$ = 8					; size = 4
__hChart$ = 12						; size = 4
?RemoveItem@CPartnerSvrManager@@QAEHPAUHWND__@@0@Z PROC	; CPartnerSvrManager::RemoveItem, COMDAT
; _this$ = ecx

; 1290 : {

  00000	55		 push	 ebp
  00001	8b ec		 mov	 ebp, esp
  00003	6a ff		 push	 -1
  00005	68 00 00 00 00	 push	 __ehhandler$?RemoveItem@CPartnerSvrManager@@QAEHPAUHWND__@@0@Z
  0000a	64 a1 00 00 00
	00		 mov	 eax, DWORD PTR fs:0
  00010	50		 push	 eax
  00011	83 ec 08	 sub	 esp, 8
  00014	56		 push	 esi
  00015	57		 push	 edi
  00016	a1 00 00 00 00	 mov	 eax, DWORD PTR ___security_cookie
  0001b	33 c5		 xor	 eax, ebp
  0001d	50		 push	 eax
  0001e	8d 45 f4	 lea	 eax, DWORD PTR __$EHRec$[ebp]
  00021	64 a3 00 00 00
	00		 mov	 DWORD PTR fs:0, eax
  00027	8b f9		 mov	 edi, ecx

; 1291 : 	CString szHandle;

  00029	8d 4d f0	 lea	 ecx, DWORD PTR _szHandle$[ebp]
  0002c	ff 15 00 00 00
	00		 call	 DWORD PTR __imp_??0?$CStringT@DV?$StrTraitMFC_DLL@DV?$ChTraitsCRT@D@ATL@@@@@ATL@@QAE@XZ

; 1292 : 	//szHandle.Format("08X", _hWnd);
; 1293 : 	szHandle.Format("%08X_%08X", _hWinixWnd, _hChart);

  00032	ff 75 0c	 push	 DWORD PTR __hChart$[ebp]
  00035	8d 45 f0	 lea	 eax, DWORD PTR _szHandle$[ebp]
  00038	c7 45 fc 00 00
	00 00		 mov	 DWORD PTR __$EHRec$[ebp+8], 0
  0003f	ff 75 08	 push	 DWORD PTR __hWinixWnd$[ebp]
  00042	68 00 00 00 00	 push	 OFFSET ??_C@_09IBOKPBFE@?$CF08X_?$CF08X@
  00047	50		 push	 eax
  00048	ff 15 00 00 00
	00		 call	 DWORD PTR __imp_?Format@?$CStringT@DV?$StrTraitMFC_DLL@DV?$ChTraitsCRT@D@ATL@@@@@ATL@@QAAXPBDZZ
  0004e	83 c4 10	 add	 esp, 16			; 00000010H

; 1294 : 
; 1295 : 	LPVOID rValue=NULL;

  00051	c7 45 ec 00 00
	00 00		 mov	 DWORD PTR _rValue$[ebp], 0

; 1296 : 	if(m_mapList.Lookup(szHandle, rValue)==TRUE)

  00058	8d 45 ec	 lea	 eax, DWORD PTR _rValue$[ebp]
  0005b	8d 4f 04	 lea	 ecx, DWORD PTR [edi+4]
  0005e	50		 push	 eax
  0005f	ff 75 f0	 push	 DWORD PTR _szHandle$[ebp]
  00062	e8 00 00 00 00	 call	 ?Lookup@CMapStringToPtr@@QBEHPBDAAPAX@Z ; CMapStringToPtr::Lookup
  00067	83 f8 01	 cmp	 eax, 1
  0006a	75 1d		 jne	 SHORT $LN2@RemoveItem

; 1297 : 	{
; 1298 : 		IPartnerManager* pManager = (IPartnerManager*)rValue;
; 1299 : 		if(pManager) delete pManager;

  0006c	8b 45 ec	 mov	 eax, DWORD PTR _rValue$[ebp]
  0006f	85 c0		 test	 eax, eax
  00071	74 0b		 je	 SHORT $LN3@RemoveItem
  00073	6a 04		 push	 4
  00075	50		 push	 eax
  00076	e8 00 00 00 00	 call	 ??3@YAXPAXI@Z		; operator delete
  0007b	83 c4 08	 add	 esp, 8
$LN3@RemoveItem:

; 1300 : 		m_mapList.RemoveKey(szHandle);

  0007e	ff 75 f0	 push	 DWORD PTR _szHandle$[ebp]
  00081	8d 4f 04	 lea	 ecx, DWORD PTR [edi+4]
  00084	e8 00 00 00 00	 call	 ?RemoveKey@CMapStringToPtr@@QAEHPBD@Z ; CMapStringToPtr::RemoveKey
$LN2@RemoveItem:

; 1301 : 	}
; 1302 : 	return m_mapList.GetCount();

  00089	8b 77 10	 mov	 esi, DWORD PTR [edi+16]
  0008c	8d 4d f0	 lea	 ecx, DWORD PTR _szHandle$[ebp]
  0008f	ff 15 00 00 00
	00		 call	 DWORD PTR __imp_??1?$CStringT@DV?$StrTraitMFC_DLL@DV?$ChTraitsCRT@D@ATL@@@@@ATL@@QAE@XZ
  00095	8b c6		 mov	 eax, esi

; 1303 : }

  00097	8b 4d f4	 mov	 ecx, DWORD PTR __$EHRec$[ebp]
  0009a	64 89 0d 00 00
	00 00		 mov	 DWORD PTR fs:0, ecx
  000a1	59		 pop	 ecx
  000a2	5f		 pop	 edi
  000a3	5e		 pop	 esi
  000a4	8b e5		 mov	 esp, ebp
  000a6	5d		 pop	 ebp
  000a7	c2 08 00	 ret	 8
_TEXT	ENDS
;	COMDAT text$x
text$x	SEGMENT
__unwindfunclet$?RemoveItem@CPartnerSvrManager@@QAEHPAUHWND__@@0@Z$0:
  00000	8d 4d f0	 lea	 ecx, DWORD PTR _szHandle$[ebp]
  00003	ff 25 00 00 00
	00		 jmp	 DWORD PTR __imp_??1?$CStringT@DV?$StrTraitMFC_DLL@DV?$ChTraitsCRT@D@ATL@@@@@ATL@@QAE@XZ
  00009	cc		 int	 3
  0000a	cc		 int	 3
  0000b	cc		 int	 3
  0000c	cc		 int	 3
  0000d	cc		 int	 3
__ehhandler$?RemoveItem@CPartnerSvrManager@@QAEHPAUHWND__@@0@Z:
  0000e	90		 npad	 1
  0000f	90		 npad	 1
  00010	8b 54 24 08	 mov	 edx, DWORD PTR [esp+8]
  00014	8d 42 0c	 lea	 eax, DWORD PTR [edx+12]
  00017	8b 4a ec	 mov	 ecx, DWORD PTR [edx-20]
  0001a	33 c8		 xor	 ecx, eax
  0001c	e8 00 00 00 00	 call	 @__security_check_cookie@4
  00021	b8 00 00 00 00	 mov	 eax, OFFSET __ehfuncinfo$?RemoveItem@CPartnerSvrManager@@QAEHPAUHWND__@@0@Z
  00026	e9 00 00 00 00	 jmp	 ___CxxFrameHandler3
text$x	ENDS
?RemoveItem@CPartnerSvrManager@@QAEHPAUHWND__@@0@Z ENDP	; CPartnerSvrManager::RemoveItem
; Function compile flags: /Ogtp
; File D:\git\src\IBK\IBK_DRFN\ProjSrc\SrcDrfn\DrCommon\PartnerMng\_PartnerManager.cpp
;	COMDAT ??1CPartnerSvrManager@@QAE@XZ
_TEXT	SEGMENT
??1CPartnerSvrManager@@QAE@XZ PROC			; CPartnerSvrManager::~CPartnerSvrManager, COMDAT
; _this$ = ecx

; 1269 : {

  00000	56		 push	 esi
  00001	8b f1		 mov	 esi, ecx

; 1270 : 
; 1271 : }

  00003	8d 4e 20	 lea	 ecx, DWORD PTR [esi+32]
  00006	c7 06 00 00 00
	00		 mov	 DWORD PTR [esi], OFFSET ??_7CPartnerSvrManager@@6B@
  0000c	e8 00 00 00 00	 call	 ??1CStringArray@@UAE@XZ	; CStringArray::~CStringArray
  00011	8d 4e 04	 lea	 ecx, DWORD PTR [esi+4]
  00014	5e		 pop	 esi
  00015	e9 00 00 00 00	 jmp	 ??1CMapStringToPtr@@UAE@XZ ; CMapStringToPtr::~CMapStringToPtr
??1CPartnerSvrManager@@QAE@XZ ENDP			; CPartnerSvrManager::~CPartnerSvrManager
_TEXT	ENDS
; Function compile flags: /Ogtp
; File D:\git\src\IBK\IBK_DRFN\ProjSrc\SrcDrfn\DrCommon\PartnerMng\_PartnerManager.cpp
;	COMDAT ??0CPartnerSvrManager@@QAE@XZ
_TEXT	SEGMENT
_this$ = -16						; size = 4
__$EHRec$ = -12						; size = 12
??0CPartnerSvrManager@@QAE@XZ PROC			; CPartnerSvrManager::CPartnerSvrManager, COMDAT
; _this$ = ecx

; 1265 : {

  00000	55		 push	 ebp
  00001	8b ec		 mov	 ebp, esp
  00003	6a ff		 push	 -1
  00005	68 00 00 00 00	 push	 __ehhandler$??0CPartnerSvrManager@@QAE@XZ
  0000a	64 a1 00 00 00
	00		 mov	 eax, DWORD PTR fs:0
  00010	50		 push	 eax
  00011	51		 push	 ecx
  00012	56		 push	 esi
  00013	a1 00 00 00 00	 mov	 eax, DWORD PTR ___security_cookie
  00018	33 c5		 xor	 eax, ebp
  0001a	50		 push	 eax
  0001b	8d 45 f4	 lea	 eax, DWORD PTR __$EHRec$[ebp]
  0001e	64 a3 00 00 00
	00		 mov	 DWORD PTR fs:0, eax
  00024	8b f1		 mov	 esi, ecx
  00026	89 75 f0	 mov	 DWORD PTR _this$[ebp], esi
  00029	6a 0a		 push	 10			; 0000000aH
  0002b	8d 4e 04	 lea	 ecx, DWORD PTR [esi+4]
  0002e	c7 06 00 00 00
	00		 mov	 DWORD PTR [esi], OFFSET ??_7CPartnerSvrManager@@6B@
  00034	e8 00 00 00 00	 call	 ??0CMapStringToPtr@@QAE@H@Z ; CMapStringToPtr::CMapStringToPtr
  00039	8d 4e 20	 lea	 ecx, DWORD PTR [esi+32]
  0003c	c7 45 fc 00 00
	00 00		 mov	 DWORD PTR __$EHRec$[ebp+8], 0
  00043	e8 00 00 00 00	 call	 ??0CStringArray@@QAE@XZ	; CStringArray::CStringArray

; 1266 : 
; 1267 : }

  00048	8b c6		 mov	 eax, esi
  0004a	8b 4d f4	 mov	 ecx, DWORD PTR __$EHRec$[ebp]
  0004d	64 89 0d 00 00
	00 00		 mov	 DWORD PTR fs:0, ecx
  00054	59		 pop	 ecx
  00055	5e		 pop	 esi
  00056	8b e5		 mov	 esp, ebp
  00058	5d		 pop	 ebp
  00059	c3		 ret	 0
_TEXT	ENDS
;	COMDAT text$x
text$x	SEGMENT
__unwindfunclet$??0CPartnerSvrManager@@QAE@XZ$0:
  00000	8b 4d f0	 mov	 ecx, DWORD PTR _this$[ebp]
  00003	83 c1 04	 add	 ecx, 4
  00006	e9 00 00 00 00	 jmp	 ??1CMapStringToPtr@@UAE@XZ ; CMapStringToPtr::~CMapStringToPtr
  0000b	cc		 int	 3
  0000c	cc		 int	 3
  0000d	cc		 int	 3
  0000e	cc		 int	 3
  0000f	cc		 int	 3
__ehhandler$??0CPartnerSvrManager@@QAE@XZ:
  00010	90		 npad	 1
  00011	90		 npad	 1
  00012	8b 54 24 08	 mov	 edx, DWORD PTR [esp+8]
  00016	8d 42 0c	 lea	 eax, DWORD PTR [edx+12]
  00019	8b 4a f4	 mov	 ecx, DWORD PTR [edx-12]
  0001c	33 c8		 xor	 ecx, eax
  0001e	e8 00 00 00 00	 call	 @__security_check_cookie@4
  00023	b8 00 00 00 00	 mov	 eax, OFFSET __ehfuncinfo$??0CPartnerSvrManager@@QAE@XZ
  00028	e9 00 00 00 00	 jmp	 ___CxxFrameHandler3
text$x	ENDS
??0CPartnerSvrManager@@QAE@XZ ENDP			; CPartnerSvrManager::CPartnerSvrManager
; Function compile flags: /Ogtp
; File D:\git\src\IBK\IBK_DRFN\ProjSrc\SrcDrfn\DrCommon\PartnerMng\_PartnerManager.cpp
;	COMDAT ?GetInerInterface@CPartnerSvrManager@@UAGJHJ@Z
_TEXT	SEGMENT
_this$ = 8						; size = 4
_nID$ = 12						; size = 4
_dwKey$ = 16						; size = 4
?GetInerInterface@CPartnerSvrManager@@UAGJHJ@Z PROC	; CPartnerSvrManager::GetInerInterface, COMDAT

; 1410 : {

  00000	55		 push	 ebp
  00001	8b ec		 mov	 ebp, esp

; 1411 : 	return theApp.m_GateMng.GetInterface(nID, dwKey);

  00003	c7 45 08 f8 00
	00 00		 mov	 DWORD PTR _this$[ebp], OFFSET ?theApp@@3VCPartnerMngApp@@A+248

; 1412 : }

  0000a	5d		 pop	 ebp

; 1411 : 	return theApp.m_GateMng.GetInterface(nID, dwKey);

  0000b	e9 00 00 00 00	 jmp	 ?GetInterface@CGateManager@@UAGJHJ@Z ; CGateManager::GetInterface
?GetInerInterface@CPartnerSvrManager@@UAGJHJ@Z ENDP	; CPartnerSvrManager::GetInerInterface
_TEXT	ENDS
; Function compile flags: /Ogtp
; File D:\git\src\IBK\IBK_DRFN\ProjSrc\SrcDrfn\DrCommon\PartnerMng\_PartnerManager.cpp
; File C:\Program Files (x86)\Microsoft Visual Studio\2019\Community\VC\Tools\MSVC\14.29.30133\atlmfc\include\afxcoll.inl
; File D:\git\src\IBK\IBK_DRFN\ProjSrc\SrcDrfn\DrCommon\PartnerMng\_PartnerManager.cpp
; File C:\Program Files (x86)\Microsoft Visual Studio\2019\Community\VC\Tools\MSVC\14.29.30133\atlmfc\include\afxcoll.inl
; File D:\git\src\IBK\IBK_DRFN\ProjSrc\SrcDrfn\DrCommon\PartnerMng\_PartnerManager.cpp
;	COMDAT ?GetParentHandle@CPartnerSvrManager@@UAGHHAAPAUHWND__@@@Z
_TEXT	SEGMENT
_hChart$ = -4						; size = 4
_hWinixWnd$ = 8						; size = 4
_this$ = 8						; size = 4
_nIndex$ = 12						; size = 4
_szItem$ = 16						; size = 4
__hWinixWnd$ = 16					; size = 4
?GetParentHandle@CPartnerSvrManager@@UAGHHAAPAUHWND__@@@Z PROC ; CPartnerSvrManager::GetParentHandle, COMDAT

; 1382 : {

  00000	55		 push	 ebp
  00001	8b ec		 mov	 ebp, esp
  00003	51		 push	 ecx
  00004	53		 push	 ebx

; 1383 : 	_hWinixWnd = NULL;

  00005	8b 5d 10	 mov	 ebx, DWORD PTR __hWinixWnd$[ebp]

; 1384 : 	int nAllCnt = m_mapHandleList.GetSize();
; 1385 : 	CString szItem;

  00008	8d 4d 10	 lea	 ecx, DWORD PTR _szItem$[ebp]
  0000b	56		 push	 esi
  0000c	8b 75 08	 mov	 esi, DWORD PTR _this$[ebp]
  0000f	57		 push	 edi
  00010	c7 03 00 00 00
	00		 mov	 DWORD PTR [ebx], 0
  00016	8b 7e 28	 mov	 edi, DWORD PTR [esi+40]
  00019	ff 15 00 00 00
	00		 call	 DWORD PTR __imp_??0?$CStringT@DV?$StrTraitMFC_DLL@DV?$ChTraitsCRT@D@ATL@@@@@ATL@@QAE@XZ

; 1386 : 	HWND hWinixWnd, hChart;
; 1387 : 
; 1388 : 	if(nIndex>=0 && nAllCnt>nIndex) 

  0001f	8b 4d 0c	 mov	 ecx, DWORD PTR _nIndex$[ebp]
  00022	85 c9		 test	 ecx, ecx
  00024	78 44		 js	 SHORT $LN3@GetParentH
  00026	3b f9		 cmp	 edi, ecx
  00028	7e 40		 jle	 SHORT $LN3@GetParentH
; File C:\Program Files (x86)\Microsoft Visual Studio\2019\Community\VC\Tools\MSVC\14.29.30133\atlmfc\include\afxcoll.inl

; 289  : 		if( nIndex < 0 || nIndex >= m_nSize )

  0002a	3b 4e 28	 cmp	 ecx, DWORD PTR [esi+40]
  0002d	7d 4f		 jge	 SHORT $LN8@GetParentH

; 291  : 		return m_pData[nIndex]; }

  0002f	8b 46 24	 mov	 eax, DWORD PTR [esi+36]
  00032	8d 04 88	 lea	 eax, DWORD PTR [eax+ecx*4]
; File D:\git\src\IBK\IBK_DRFN\ProjSrc\SrcDrfn\DrCommon\PartnerMng\_PartnerManager.cpp

; 1391 : 		szItem = m_mapHandleList.GetAt(nIndex);

  00035	50		 push	 eax
  00036	8d 4d 10	 lea	 ecx, DWORD PTR _szItem$[ebp]
  00039	ff 15 00 00 00
	00		 call	 DWORD PTR __imp_??4?$CStringT@DV?$StrTraitMFC_DLL@DV?$ChTraitsCRT@D@ATL@@@@@ATL@@QAEAAV01@ABV01@@Z

; 1392 : 		sscanf((LPCSTR)szItem, "%08X_%08X", &hWinixWnd, &hChart);

  0003f	8d 45 fc	 lea	 eax, DWORD PTR _hChart$[ebp]
  00042	50		 push	 eax
  00043	8d 45 08	 lea	 eax, DWORD PTR _hWinixWnd$[ebp]
  00046	50		 push	 eax
  00047	68 00 00 00 00	 push	 OFFSET ??_C@_09IBOKPBFE@?$CF08X_?$CF08X@
  0004c	ff 75 10	 push	 DWORD PTR _szItem$[ebp]
  0004f	e8 00 00 00 00	 call	 _sscanf
  00054	83 c4 10	 add	 esp, 16			; 00000010H

; 1393 : 
; 1394 : 		if(::IsWindow(hWinixWnd)==TRUE)

  00057	ff 75 08	 push	 DWORD PTR _hWinixWnd$[ebp]
  0005a	ff 15 00 00 00
	00		 call	 DWORD PTR __imp__IsWindow@4
  00060	83 f8 01	 cmp	 eax, 1
  00063	75 05		 jne	 SHORT $LN3@GetParentH

; 1395 : 		{
; 1396 : 			_hWinixWnd = hWinixWnd;

  00065	8b 45 08	 mov	 eax, DWORD PTR _hWinixWnd$[ebp]
  00068	89 03		 mov	 DWORD PTR [ebx], eax
$LN3@GetParentH:

; 1397 : 			return nAllCnt;
; 1398 : 		}
; 1399 : //		if(::IsWindow(hWinixWnd)==FALSE)
; 1400 : //		{
; 1401 : //			hWinixWnd = NULL;
; 1402 : //			//SetParentHandle('U', _hWinixWnd, NULL);
; 1403 : //		}
; 1404 : 	}
; 1405 : 
; 1406 : 	return nAllCnt;

  0006a	8d 4d 10	 lea	 ecx, DWORD PTR _szItem$[ebp]
  0006d	ff 15 00 00 00
	00		 call	 DWORD PTR __imp_??1?$CStringT@DV?$StrTraitMFC_DLL@DV?$ChTraitsCRT@D@ATL@@@@@ATL@@QAE@XZ
  00073	8b c7		 mov	 eax, edi
  00075	5f		 pop	 edi
  00076	5e		 pop	 esi
  00077	5b		 pop	 ebx

; 1407 : }

  00078	8b e5		 mov	 esp, ebp
  0007a	5d		 pop	 ebp
  0007b	c2 0c 00	 ret	 12			; 0000000cH
$LN8@GetParentH:
; File C:\Program Files (x86)\Microsoft Visual Studio\2019\Community\VC\Tools\MSVC\14.29.30133\atlmfc\include\afxcoll.inl

; 290  : 			AfxThrowInvalidArgException();

  0007e	e8 00 00 00 00	 call	 ?AfxThrowInvalidArgException@@YGXXZ ; AfxThrowInvalidArgException
$LN13@GetParentH:
  00083	cc		 int	 3
?GetParentHandle@CPartnerSvrManager@@UAGHHAAPAUHWND__@@@Z ENDP ; CPartnerSvrManager::GetParentHandle
_TEXT	ENDS
; Function compile flags: /Ogtp
; File D:\git\src\IBK\IBK_DRFN\ProjSrc\SrcDrfn\DrCommon\PartnerMng\_PartnerManager.cpp
;	COMDAT ?UnAdviseManager@CPartnerSvrManager@@UAGHPAUHWND__@@0@Z
_TEXT	SEGMENT
_szHandle$1 = 8						; size = 4
_this$ = 8						; size = 4
_rValue$2 = 12						; size = 4
__hWinixWnd$ = 12					; size = 4
__hChart$ = 16						; size = 4
?UnAdviseManager@CPartnerSvrManager@@UAGHPAUHWND__@@0@Z PROC ; CPartnerSvrManager::UnAdviseManager, COMDAT

; 1346 : {

  00000	55		 push	 ebp
  00001	8b ec		 mov	 ebp, esp
  00003	53		 push	 ebx

; 1347 : 	SetParentHandle('U', _hWinixWnd, _hChart);

  00004	8b 5d 08	 mov	 ebx, DWORD PTR _this$[ebp]
  00007	56		 push	 esi
  00008	ff 75 10	 push	 DWORD PTR __hChart$[ebp]
  0000b	8b 75 0c	 mov	 esi, DWORD PTR __hWinixWnd$[ebp]
  0000e	8b 03		 mov	 eax, DWORD PTR [ebx]
  00010	56		 push	 esi
  00011	6a 55		 push	 85			; 00000055H
  00013	53		 push	 ebx
  00014	ff 50 10	 call	 DWORD PTR [eax+16]

; 1291 : 	CString szHandle;

  00017	8d 4d 08	 lea	 ecx, DWORD PTR _szHandle$1[ebp]
  0001a	ff 15 00 00 00
	00		 call	 DWORD PTR __imp_??0?$CStringT@DV?$StrTraitMFC_DLL@DV?$ChTraitsCRT@D@ATL@@@@@ATL@@QAE@XZ

; 1292 : 	//szHandle.Format("08X", _hWnd);
; 1293 : 	szHandle.Format("%08X_%08X", _hWinixWnd, _hChart);

  00020	ff 75 10	 push	 DWORD PTR __hChart$[ebp]
  00023	8d 45 08	 lea	 eax, DWORD PTR _szHandle$1[ebp]
  00026	56		 push	 esi
  00027	68 00 00 00 00	 push	 OFFSET ??_C@_09IBOKPBFE@?$CF08X_?$CF08X@
  0002c	50		 push	 eax
  0002d	ff 15 00 00 00
	00		 call	 DWORD PTR __imp_?Format@?$CStringT@DV?$StrTraitMFC_DLL@DV?$ChTraitsCRT@D@ATL@@@@@ATL@@QAAXPBDZZ
  00033	83 c4 10	 add	 esp, 16			; 00000010H

; 1294 : 
; 1295 : 	LPVOID rValue=NULL;

  00036	c7 45 0c 00 00
	00 00		 mov	 DWORD PTR _rValue$2[ebp], 0

; 1296 : 	if(m_mapList.Lookup(szHandle, rValue)==TRUE)

  0003d	8d 45 0c	 lea	 eax, DWORD PTR _rValue$2[ebp]
  00040	8d 4b 04	 lea	 ecx, DWORD PTR [ebx+4]
  00043	50		 push	 eax
  00044	ff 75 08	 push	 DWORD PTR _szHandle$1[ebp]
  00047	e8 00 00 00 00	 call	 ?Lookup@CMapStringToPtr@@QBEHPBDAAPAX@Z ; CMapStringToPtr::Lookup
  0004c	83 f8 01	 cmp	 eax, 1
  0004f	75 1d		 jne	 SHORT $LN4@UnAdviseMa

; 1297 : 	{
; 1298 : 		IPartnerManager* pManager = (IPartnerManager*)rValue;
; 1299 : 		if(pManager) delete pManager;

  00051	8b 45 0c	 mov	 eax, DWORD PTR _rValue$2[ebp]
  00054	85 c0		 test	 eax, eax
  00056	74 0b		 je	 SHORT $LN5@UnAdviseMa
  00058	6a 04		 push	 4
  0005a	50		 push	 eax
  0005b	e8 00 00 00 00	 call	 ??3@YAXPAXI@Z		; operator delete
  00060	83 c4 08	 add	 esp, 8
$LN5@UnAdviseMa:

; 1300 : 		m_mapList.RemoveKey(szHandle);

  00063	ff 75 08	 push	 DWORD PTR _szHandle$1[ebp]
  00066	8d 4b 04	 lea	 ecx, DWORD PTR [ebx+4]
  00069	e8 00 00 00 00	 call	 ?RemoveKey@CMapStringToPtr@@QAEHPBD@Z ; CMapStringToPtr::RemoveKey
$LN4@UnAdviseMa:

; 1301 : 	}
; 1302 : 	return m_mapList.GetCount();

  0006e	8b 73 10	 mov	 esi, DWORD PTR [ebx+16]
  00071	8d 4d 08	 lea	 ecx, DWORD PTR _szHandle$1[ebp]
  00074	ff 15 00 00 00
	00		 call	 DWORD PTR __imp_??1?$CStringT@DV?$StrTraitMFC_DLL@DV?$ChTraitsCRT@D@ATL@@@@@ATL@@QAE@XZ

; 1348 : 	return RemoveItem(_hWinixWnd, _hChart);

  0007a	8b c6		 mov	 eax, esi
  0007c	5e		 pop	 esi
  0007d	5b		 pop	 ebx

; 1349 : }

  0007e	5d		 pop	 ebp
  0007f	c2 0c 00	 ret	 12			; 0000000cH
?UnAdviseManager@CPartnerSvrManager@@UAGHPAUHWND__@@0@Z ENDP ; CPartnerSvrManager::UnAdviseManager
_TEXT	ENDS
; Function compile flags: /Ogtp
; File D:\git\src\IBK\IBK_DRFN\ProjSrc\SrcDrfn\DrCommon\PartnerMng\_PartnerManager.cpp
; File C:\Program Files (x86)\Microsoft Visual Studio\2019\Community\VC\Tools\MSVC\14.29.30133\atlmfc\include\afxcoll.inl
; File D:\git\src\IBK\IBK_DRFN\ProjSrc\SrcDrfn\DrCommon\PartnerMng\_PartnerManager.cpp
; File C:\Program Files (x86)\Microsoft Visual Studio\2019\Community\VC\Tools\MSVC\14.29.30133\atlmfc\include\afxcoll.inl
; File D:\git\src\IBK\IBK_DRFN\ProjSrc\SrcDrfn\DrCommon\PartnerMng\_PartnerManager.cpp
; File C:\Program Files (x86)\Microsoft Visual Studio\2019\Community\VC\Tools\MSVC\14.29.30133\atlmfc\include\afxcoll.inl
; File D:\git\src\IBK\IBK_DRFN\ProjSrc\SrcDrfn\DrCommon\PartnerMng\_PartnerManager.cpp
; File C:\Program Files (x86)\Microsoft Visual Studio\2019\Community\VC\Tools\MSVC\14.29.30133\atlmfc\include\afxcoll.inl
; File D:\git\src\IBK\IBK_DRFN\ProjSrc\SrcDrfn\DrCommon\PartnerMng\_PartnerManager.cpp
;	COMDAT ?AdviseManager@CPartnerSvrManager@@UAGPAUIPartnerManager@@PAUHWND__@@0@Z
_TEXT	SEGMENT
$T1 = -8						; size = 4
_szHandle$ = -4						; size = 4
_this$ = 8						; size = 4
__hWinixWnd$ = 12					; size = 4
__hChart$ = 16						; size = 4
?AdviseManager@CPartnerSvrManager@@UAGPAUIPartnerManager@@PAUHWND__@@0@Z PROC ; CPartnerSvrManager::AdviseManager, COMDAT

; 1328 : {

  00000	55		 push	 ebp
  00001	8b ec		 mov	 ebp, esp
  00003	83 ec 08	 sub	 esp, 8

; 1329 : 	CPartnerManager *pNewItem= new CPartnerManager;

  00006	68 60 11 00 00	 push	 4448			; 00001160H
  0000b	e8 00 00 00 00	 call	 ??2@YAPAXI@Z		; operator new
  00010	83 c4 04	 add	 esp, 4
  00013	85 c0		 test	 eax, eax
  00015	74 09		 je	 SHORT $LN3@AdviseMana
  00017	8b c8		 mov	 ecx, eax
  00019	e8 00 00 00 00	 call	 ??0CPartnerManager@@QAE@XZ ; CPartnerManager::CPartnerManager
  0001e	eb 02		 jmp	 SHORT $LN11@AdviseMana
$LN3@AdviseMana:
  00020	33 c0		 xor	 eax, eax
$LN11@AdviseMana:
  00022	53		 push	 ebx

; 75   : 	m_hSenComm = hSend;

  00023	8b 5d 0c	 mov	 ebx, DWORD PTR __hWinixWnd$[ebp]

; 1330 : 	pNewItem->SetSendHandle(_hWinixWnd);
; 1331 : 
; 1332 : 	CString szHandle;

  00026	8d 4d fc	 lea	 ecx, DWORD PTR _szHandle$[ebp]
  00029	56		 push	 esi

; 75   : 	m_hSenComm = hSend;

  0002a	89 45 f8	 mov	 DWORD PTR $T1[ebp], eax
  0002d	89 58 1c	 mov	 DWORD PTR [eax+28], ebx

; 1330 : 	pNewItem->SetSendHandle(_hWinixWnd);
; 1331 : 
; 1332 : 	CString szHandle;

  00030	ff 15 00 00 00
	00		 call	 DWORD PTR __imp_??0?$CStringT@DV?$StrTraitMFC_DLL@DV?$ChTraitsCRT@D@ATL@@@@@ATL@@QAE@XZ

; 1333 : 	//szHandle.Format("08X", _hWnd);
; 1334 : 	szHandle.Format("%08X_%08X", _hWinixWnd, _hChart);

  00036	ff 75 10	 push	 DWORD PTR __hChart$[ebp]
  00039	8d 45 fc	 lea	 eax, DWORD PTR _szHandle$[ebp]
  0003c	53		 push	 ebx
  0003d	68 00 00 00 00	 push	 OFFSET ??_C@_09IBOKPBFE@?$CF08X_?$CF08X@
  00042	50		 push	 eax
  00043	ff 15 00 00 00
	00		 call	 DWORD PTR __imp_?Format@?$CStringT@DV?$StrTraitMFC_DLL@DV?$ChTraitsCRT@D@ATL@@@@@ATL@@QAAXPBDZZ

; 1337 : 	m_mapList.SetAt(szHandle, pNewItem);

  00049	8b 75 08	 mov	 esi, DWORD PTR _this$[ebp]
  0004c	83 c4 10	 add	 esp, 16			; 00000010H
; File C:\Program Files (x86)\Microsoft Visual Studio\2019\Community\VC\Tools\MSVC\14.29.30133\atlmfc\include\afxcoll.inl

; 628  : 	{ (*this)[key] = newValue; }

  0004f	ff 75 fc	 push	 DWORD PTR _szHandle$[ebp]
; File D:\git\src\IBK\IBK_DRFN\ProjSrc\SrcDrfn\DrCommon\PartnerMng\_PartnerManager.cpp

; 1337 : 	m_mapList.SetAt(szHandle, pNewItem);

  00052	8d 4e 04	 lea	 ecx, DWORD PTR [esi+4]
; File C:\Program Files (x86)\Microsoft Visual Studio\2019\Community\VC\Tools\MSVC\14.29.30133\atlmfc\include\afxcoll.inl

; 628  : 	{ (*this)[key] = newValue; }

  00055	e8 00 00 00 00	 call	 ??ACMapStringToPtr@@QAEAAPAXPBD@Z ; CMapStringToPtr::operator[]
; File D:\git\src\IBK\IBK_DRFN\ProjSrc\SrcDrfn\DrCommon\PartnerMng\_PartnerManager.cpp

; 1339 : 	SetParentHandle('A', _hWinixWnd, _hChart);

  0005a	ff 75 10	 push	 DWORD PTR __hChart$[ebp]
; File C:\Program Files (x86)\Microsoft Visual Studio\2019\Community\VC\Tools\MSVC\14.29.30133\atlmfc\include\afxcoll.inl

; 628  : 	{ (*this)[key] = newValue; }

  0005d	8b 4d f8	 mov	 ecx, DWORD PTR $T1[ebp]
; File D:\git\src\IBK\IBK_DRFN\ProjSrc\SrcDrfn\DrCommon\PartnerMng\_PartnerManager.cpp

; 1339 : 	SetParentHandle('A', _hWinixWnd, _hChart);

  00060	53		 push	 ebx
; File C:\Program Files (x86)\Microsoft Visual Studio\2019\Community\VC\Tools\MSVC\14.29.30133\atlmfc\include\afxcoll.inl

; 628  : 	{ (*this)[key] = newValue; }

  00061	89 08		 mov	 DWORD PTR [eax], ecx
; File D:\git\src\IBK\IBK_DRFN\ProjSrc\SrcDrfn\DrCommon\PartnerMng\_PartnerManager.cpp

; 1339 : 	SetParentHandle('A', _hWinixWnd, _hChart);

  00063	8b 06		 mov	 eax, DWORD PTR [esi]
  00065	6a 41		 push	 65			; 00000041H
  00067	56		 push	 esi
  00068	ff 50 10	 call	 DWORD PTR [eax+16]

; 1340 : 
; 1341 : 	return (IPartnerManager*)pNewItem;

  0006b	8d 4d fc	 lea	 ecx, DWORD PTR _szHandle$[ebp]
  0006e	ff 15 00 00 00
	00		 call	 DWORD PTR __imp_??1?$CStringT@DV?$StrTraitMFC_DLL@DV?$ChTraitsCRT@D@ATL@@@@@ATL@@QAE@XZ
  00074	8b 45 f8	 mov	 eax, DWORD PTR $T1[ebp]
  00077	5e		 pop	 esi
  00078	5b		 pop	 ebx

; 1342 : }

  00079	8b e5		 mov	 esp, ebp
  0007b	5d		 pop	 ebp
  0007c	c2 0c 00	 ret	 12			; 0000000cH
?AdviseManager@CPartnerSvrManager@@UAGPAUIPartnerManager@@PAUHWND__@@0@Z ENDP ; CPartnerSvrManager::AdviseManager
_TEXT	ENDS
; Function compile flags: /Ogtp
; File C:\Program Files (x86)\Microsoft Visual Studio\2019\Community\VC\Tools\MSVC\14.29.30133\atlmfc\include\afxtempl.h
; File C:\Program Files (x86)\Microsoft Visual Studio\2019\Community\VC\Tools\MSVC\14.29.30133\atlmfc\include\afx.inl
;	COMDAT ??_G?$CMap@V?$CStringT@DV?$StrTraitMFC_DLL@DV?$ChTraitsCRT@D@ATL@@@@@ATL@@PBDHH@@UAEPAXI@Z
_TEXT	SEGMENT
__$EHRec$ = -12						; size = 12
___flags$ = 8						; size = 4
??_G?$CMap@V?$CStringT@DV?$StrTraitMFC_DLL@DV?$ChTraitsCRT@D@ATL@@@@@ATL@@PBDHH@@UAEPAXI@Z PROC ; CMap<ATL::CStringT<char,StrTraitMFC_DLL<char,ATL::ChTraitsCRT<char> > >,char const *,int,int>::`scalar deleting destructor', COMDAT
; _this$ = ecx
  00000	55		 push	 ebp
  00001	8b ec		 mov	 ebp, esp
  00003	6a ff		 push	 -1
  00005	68 00 00 00 00	 push	 __ehhandler$??_G?$CMap@V?$CStringT@DV?$StrTraitMFC_DLL@DV?$ChTraitsCRT@D@ATL@@@@@ATL@@PBDHH@@UAEPAXI@Z
  0000a	64 a1 00 00 00
	00		 mov	 eax, DWORD PTR fs:0
  00010	50		 push	 eax
  00011	56		 push	 esi
  00012	a1 00 00 00 00	 mov	 eax, DWORD PTR ___security_cookie
  00017	33 c5		 xor	 eax, ebp
  00019	50		 push	 eax
  0001a	8d 45 f4	 lea	 eax, DWORD PTR __$EHRec$[ebp]
  0001d	64 a3 00 00 00
	00		 mov	 DWORD PTR fs:0, eax
  00023	8b f1		 mov	 esi, ecx
; File C:\Program Files (x86)\Microsoft Visual Studio\2019\Community\VC\Tools\MSVC\14.29.30133\atlmfc\include\afxtempl.h

; 1472 : {

  00025	c7 45 fc 00 00
	00 00		 mov	 DWORD PTR __$EHRec$[ebp+8], 0
  0002c	c7 06 00 00 00
	00		 mov	 DWORD PTR [esi], OFFSET ??_7?$CMap@V?$CStringT@DV?$StrTraitMFC_DLL@DV?$ChTraitsCRT@D@ATL@@@@@ATL@@PBDHH@@6B@

; 1473 : 	RemoveAll();

  00032	e8 00 00 00 00	 call	 ?RemoveAll@?$CMap@V?$CStringT@DV?$StrTraitMFC_DLL@DV?$ChTraitsCRT@D@ATL@@@@@ATL@@PBDHH@@QAEXXZ ; CMap<ATL::CStringT<char,StrTraitMFC_DLL<char,ATL::ChTraitsCRT<char> > >,char const *,int,int>::RemoveAll
  00037	8b 45 08	 mov	 eax, DWORD PTR ___flags$[ebp]
  0003a	a8 01		 test	 al, 1
  0003c	74 2c		 je	 SHORT $LN12@scalar
  0003e	a8 04		 test	 al, 4
  00040	75 1d		 jne	 SHORT $LN3@scalar
; File C:\Program Files (x86)\Microsoft Visual Studio\2019\Community\VC\Tools\MSVC\14.29.30133\atlmfc\include\afx.inl

; 112  : 	{ ::operator delete(p); }

  00042	56		 push	 esi
  00043	e8 00 00 00 00	 call	 ??3@YAXPAX@Z		; operator delete
  00048	83 c4 04	 add	 esp, 4
  0004b	8b c6		 mov	 eax, esi
  0004d	8b 4d f4	 mov	 ecx, DWORD PTR __$EHRec$[ebp]
  00050	64 89 0d 00 00
	00 00		 mov	 DWORD PTR fs:0, ecx
  00057	59		 pop	 ecx
  00058	5e		 pop	 esi
  00059	8b e5		 mov	 esp, ebp
  0005b	5d		 pop	 ebp
  0005c	c2 04 00	 ret	 4
$LN3@scalar:
  0005f	6a 1c		 push	 28			; 0000001cH
  00061	56		 push	 esi
  00062	e8 00 00 00 00	 call	 ?__global_delete@@YAXPAXI@Z ; __global_delete
  00067	83 c4 08	 add	 esp, 8
$LN12@scalar:
  0006a	8b c6		 mov	 eax, esi
  0006c	8b 4d f4	 mov	 ecx, DWORD PTR __$EHRec$[ebp]
  0006f	64 89 0d 00 00
	00 00		 mov	 DWORD PTR fs:0, ecx
  00076	59		 pop	 ecx
  00077	5e		 pop	 esi
  00078	8b e5		 mov	 esp, ebp
  0007a	5d		 pop	 ebp
  0007b	c2 04 00	 ret	 4
  0007e	cc		 int	 3
  0007f	cc		 int	 3
  00080	cc		 int	 3
  00081	cc		 int	 3
  00082	cc		 int	 3
_TEXT	ENDS
;	COMDAT text$x
text$x	SEGMENT
__ehhandler$??_G?$CMap@V?$CStringT@DV?$StrTraitMFC_DLL@DV?$ChTraitsCRT@D@ATL@@@@@ATL@@PBDHH@@UAEPAXI@Z:
  00000	90		 npad	 1
  00001	90		 npad	 1
  00002	8b 54 24 08	 mov	 edx, DWORD PTR [esp+8]
  00006	8d 42 0c	 lea	 eax, DWORD PTR [edx+12]
  00009	8b 4a f8	 mov	 ecx, DWORD PTR [edx-8]
  0000c	33 c8		 xor	 ecx, eax
  0000e	e8 00 00 00 00	 call	 @__security_check_cookie@4
  00013	b8 00 00 00 00	 mov	 eax, OFFSET __ehfuncinfo$??_G?$CMap@V?$CStringT@DV?$StrTraitMFC_DLL@DV?$ChTraitsCRT@D@ATL@@@@@ATL@@PBDHH@@UAEPAXI@Z
  00018	e9 00 00 00 00	 jmp	 ___CxxFrameHandler3
text$x	ENDS
??_G?$CMap@V?$CStringT@DV?$StrTraitMFC_DLL@DV?$ChTraitsCRT@D@ATL@@@@@ATL@@PBDHH@@UAEPAXI@Z ENDP ; CMap<ATL::CStringT<char,StrTraitMFC_DLL<char,ATL::ChTraitsCRT<char> > >,char const *,int,int>::`scalar deleting destructor'
; Function compile flags: /Ogtp
; File C:\Program Files (x86)\Microsoft Visual Studio\2019\Community\VC\Tools\MSVC\14.29.30133\atlmfc\include\afxtempl.h
; File C:\Program Files (x86)\Microsoft Visual Studio\2019\Community\VC\Tools\MSVC\14.29.30133\atlmfc\include\afx.inl
; File C:\Program Files (x86)\Microsoft Visual Studio\2019\Community\VC\Tools\MSVC\14.29.30133\atlmfc\include\afxtempl.h
; File C:\Program Files (x86)\Microsoft Visual Studio\2019\Community\VC\Tools\MSVC\14.29.30133\atlmfc\include\afx.inl
; File C:\Program Files (x86)\Microsoft Visual Studio\2019\Community\VC\Tools\MSVC\14.29.30133\atlmfc\include\afxtempl.h
; File C:\Program Files (x86)\Microsoft Visual Studio\2019\Community\VC\Tools\MSVC\14.29.30133\atlmfc\include\afx.inl
; File C:\Program Files (x86)\Microsoft Visual Studio\2019\Community\VC\Tools\MSVC\14.29.30133\atlmfc\include\afxtempl.h
; File C:\Program Files (x86)\Microsoft Visual Studio\2019\Community\VC\Tools\MSVC\14.29.30133\atlmfc\include\afx.inl
; File C:\Program Files (x86)\Microsoft Visual Studio\2019\Community\VC\Tools\MSVC\14.29.30133\atlmfc\include\afxtempl.h
; File C:\Program Files (x86)\Microsoft Visual Studio\2019\Community\VC\Tools\MSVC\14.29.30133\atlmfc\include\afx.inl
; File C:\Program Files (x86)\Microsoft Visual Studio\2019\Community\VC\Tools\MSVC\14.29.30133\atlmfc\include\afxtempl.h
; File C:\Program Files (x86)\Microsoft Visual Studio\2019\Community\VC\Tools\MSVC\14.29.30133\atlmfc\include\afx.inl
; File C:\Program Files (x86)\Microsoft Visual Studio\2019\Community\VC\Tools\MSVC\14.29.30133\atlmfc\include\afxtempl.h
; File C:\Program Files (x86)\Microsoft Visual Studio\2019\Community\VC\Tools\MSVC\14.29.30133\atlmfc\include\afx.inl
; File C:\Program Files (x86)\Microsoft Visual Studio\2019\Community\VC\Tools\MSVC\14.29.30133\atlmfc\include\afxtempl.h
; File C:\Program Files (x86)\Microsoft Visual Studio\2019\Community\VC\Tools\MSVC\14.29.30133\atlmfc\include\afx.inl
; File C:\Program Files (x86)\Microsoft Visual Studio\2019\Community\VC\Tools\MSVC\14.29.30133\atlmfc\include\afxtempl.h
; File C:\Program Files (x86)\Microsoft Visual Studio\2019\Community\VC\Tools\MSVC\14.29.30133\atlmfc\include\afx.inl
; File C:\Program Files (x86)\Microsoft Visual Studio\2019\Community\VC\Tools\MSVC\14.29.30133\atlmfc\include\afxtempl.h
; File C:\Program Files (x86)\Microsoft Visual Studio\2019\Community\VC\Tools\MSVC\14.29.30133\atlmfc\include\afx.inl
; File C:\Program Files (x86)\Microsoft Visual Studio\2019\Community\VC\Tools\MSVC\14.29.30133\atlmfc\include\afxtempl.h
; File C:\Program Files (x86)\Microsoft Visual Studio\2019\Community\VC\Tools\MSVC\14.29.30133\atlmfc\include\atlsimpstr.h
; File C:\Program Files (x86)\Microsoft Visual Studio\2019\Community\VC\Tools\MSVC\14.29.30133\atlmfc\include\afxtempl.h
; File C:\Program Files (x86)\Microsoft Visual Studio\2019\Community\VC\Tools\MSVC\14.29.30133\atlmfc\include\atlsimpstr.h
; File C:\Program Files (x86)\Microsoft Visual Studio\2019\Community\VC\Tools\MSVC\14.29.30133\atlmfc\include\afxtempl.h
; File C:\Program Files (x86)\Microsoft Visual Studio\2019\Community\VC\Tools\MSVC\14.29.30133\atlmfc\include\cstringt.h
; File C:\Program Files (x86)\Microsoft Visual Studio\2019\Community\VC\Tools\MSVC\14.29.30133\atlmfc\include\afxtempl.h
;	COMDAT ?Serialize@?$CMap@V?$CStringT@DV?$StrTraitMFC_DLL@DV?$ChTraitsCRT@D@ATL@@@@@ATL@@PBDHH@@UAEXAAVCArchive@@@Z
_TEXT	SEGMENT
_nNewCount$1$ = -52					; size = 4
_newValue$1$ = -48					; size = 4
_nHashBucket$1$ = -44					; size = 4
_nCount$1$ = -40					; size = 4
_nCount$1$ = -40					; size = 4
_nElementsToWrite$1$ = -40				; size = 4
$T2 = -40						; size = 4
_nElementsToRead$1$ = -36				; size = 4
_nElementsToRead$1$ = -36				; size = 4
tv746 = -36						; size = 4
_newValue$3 = -32					; size = 4
_nHashSize$1$ = -28					; size = 4
_pData$1$ = -28						; size = 4
_nElementsLeft$1$ = -28					; size = 4
_nHash$1$ = -28						; size = 4
_nElementsLeft$1$ = -24					; size = 4
_newKey$4 = -24						; size = 4
_nHashValue$1$ = -20					; size = 4
_pData$1$ = -20						; size = 4
_pAssoc$1$ = -20					; size = 4
_this$1$ = -16						; size = 4
__$EHRec$ = -12						; size = 12
_ar$ = 8						; size = 4
?Serialize@?$CMap@V?$CStringT@DV?$StrTraitMFC_DLL@DV?$ChTraitsCRT@D@ATL@@@@@ATL@@PBDHH@@UAEXAAVCArchive@@@Z PROC ; CMap<ATL::CStringT<char,StrTraitMFC_DLL<char,ATL::ChTraitsCRT<char> > >,char const *,int,int>::Serialize, COMDAT
; _this$ = ecx

; 1743 : {

  00000	55		 push	 ebp
  00001	8b ec		 mov	 ebp, esp
  00003	6a ff		 push	 -1
  00005	68 00 00 00 00	 push	 __ehhandler$?Serialize@?$CMap@V?$CStringT@DV?$StrTraitMFC_DLL@DV?$ChTraitsCRT@D@ATL@@@@@ATL@@PBDHH@@UAEXAAVCArchive@@@Z
  0000a	64 a1 00 00 00
	00		 mov	 eax, DWORD PTR fs:0
  00010	50		 push	 eax
  00011	83 ec 28	 sub	 esp, 40			; 00000028H
  00014	56		 push	 esi
  00015	57		 push	 edi
  00016	a1 00 00 00 00	 mov	 eax, DWORD PTR ___security_cookie
  0001b	33 c5		 xor	 eax, ebp
  0001d	50		 push	 eax
  0001e	8d 45 f4	 lea	 eax, DWORD PTR __$EHRec$[ebp]
  00021	64 a3 00 00 00
	00		 mov	 DWORD PTR fs:0, eax
  00027	8b f1		 mov	 esi, ecx
  00029	89 75 f0	 mov	 DWORD PTR _this$1$[ebp], esi
; File C:\Program Files (x86)\Microsoft Visual Studio\2019\Community\VC\Tools\MSVC\14.29.30133\atlmfc\include\afx.inl

; 212  : 	{ return (m_nMode & CArchive::load) == 0; }

  0002c	8b 7d 08	 mov	 edi, DWORD PTR _ar$[ebp]
; File C:\Program Files (x86)\Microsoft Visual Studio\2019\Community\VC\Tools\MSVC\14.29.30133\atlmfc\include\afxtempl.h

; 1748 : 	if (ar.IsStoring())

  0002f	8b cf		 mov	 ecx, edi
; File C:\Program Files (x86)\Microsoft Visual Studio\2019\Community\VC\Tools\MSVC\14.29.30133\atlmfc\include\afx.inl

; 212  : 	{ return (m_nMode & CArchive::load) == 0; }

  00031	8b 47 18	 mov	 eax, DWORD PTR [edi+24]
  00034	f7 d0		 not	 eax
  00036	a8 01		 test	 al, 1
; File C:\Program Files (x86)\Microsoft Visual Studio\2019\Community\VC\Tools\MSVC\14.29.30133\atlmfc\include\afxtempl.h

; 1748 : 	if (ar.IsStoring())

  00038	0f 84 13 01 00
	00		 je	 $LN10@Serialize

; 1749 : 	{
; 1750 : 		ar.WriteCount(m_nCount);

  0003e	ff 76 0c	 push	 DWORD PTR [esi+12]
  00041	e8 00 00 00 00	 call	 ?WriteCount@CArchive@@QAEXK@Z ; CArchive::WriteCount

; 1751 : 		if (m_nCount == 0)

  00046	83 7e 0c 00	 cmp	 DWORD PTR [esi+12], 0
  0004a	0f 84 48 03 00
	00		 je	 $LN141@Serialize

; 1752 : 			return;  // nothing more to do
; 1753 : 
; 1754 : 		ASSERT(m_pHashTable != NULL);
; 1755 : 		if (m_pHashTable != NULL)

  00050	83 7e 04 00	 cmp	 DWORD PTR [esi+4], 0
  00054	0f 84 3e 03 00
	00		 je	 $LN141@Serialize

; 1756 : 		{
; 1757 : 			for (UINT nHash = 0; nHash < m_nHashTableSize; nHash++)

  0005a	33 c9		 xor	 ecx, ecx
  0005c	89 4d e4	 mov	 DWORD PTR _nHash$1$[ebp], ecx
  0005f	39 4e 08	 cmp	 DWORD PTR [esi+8], ecx
  00062	0f 86 30 03 00
	00		 jbe	 $LN141@Serialize
  00068	0f 1f 84 00 00
	00 00 00	 npad	 8
$LL4@Serialize:

; 1758 : 			{
; 1759 : 				CAssoc* pAssoc;
; 1760 : 				for (pAssoc = m_pHashTable[nHash]; pAssoc != NULL; pAssoc = pAssoc->pNext)

  00070	8b 46 04	 mov	 eax, DWORD PTR [esi+4]
  00073	8b 04 88	 mov	 eax, DWORD PTR [eax+ecx*4]
  00076	89 45 ec	 mov	 DWORD PTR _pAssoc$1$[ebp], eax
  00079	85 c0		 test	 eax, eax
  0007b	0f 84 b0 00 00
	00		 je	 $LN2@Serialize
$LL7@Serialize:

; 1761 : 				{
; 1762 : 					KEY* pKey;
; 1763 : 					VALUE* pValue;
; 1764 : 					/*
; 1765 : 					* in some cases the & operator might be overloaded, and we cannot use it to
; 1766 : 					* obtain the address of a given object.  We then use the following trick to
; 1767 : 					* get the address
; 1768 : 					*/
; 1769 : 					pKey = reinterpret_cast< KEY* >( &reinterpret_cast< int& >( const_cast< KEY& > ( static_cast< const KEY& >( pAssoc->key ) ) ) );
; 1770 : 					pValue = reinterpret_cast< VALUE* >( &reinterpret_cast< int& >( static_cast< VALUE& >( pAssoc->value ) ) );
; 1771 : 					SerializeElements<KEY>(ar, pKey, 1);

  00081	6a 01		 push	 1
  00083	50		 push	 eax
  00084	57		 push	 edi
  00085	8d 70 04	 lea	 esi, DWORD PTR [eax+4]
  00088	e8 00 00 00 00	 call	 ??$SerializeElements@V?$CStringT@DV?$StrTraitMFC_DLL@DV?$ChTraitsCRT@D@ATL@@@@@ATL@@@@YGXAAVCArchive@@PAV?$CStringT@DV?$StrTraitMFC_DLL@DV?$ChTraitsCRT@D@ATL@@@@@ATL@@H@Z ; SerializeElements<ATL::CStringT<char,StrTraitMFC_DLL<char,ATL::ChTraitsCRT<char> > > >

; 68   : 	ENSURE(nCount == 0 || pElements != NULL);

  0008d	85 f6		 test	 esi, esi
  0008f	0f 84 1f 03 00
	00		 je	 $LN125@Serialize
; File C:\Program Files (x86)\Microsoft Visual Studio\2019\Community\VC\Tools\MSVC\14.29.30133\atlmfc\include\afx.inl

; 212  : 	{ return (m_nMode & CArchive::load) == 0; }

  00095	8b 55 08	 mov	 edx, DWORD PTR _ar$[ebp]
  00098	8b 42 18	 mov	 eax, DWORD PTR [edx+24]
  0009b	f7 d0		 not	 eax
  0009d	a8 01		 test	 al, 1
; File C:\Program Files (x86)\Microsoft Visual Studio\2019\Community\VC\Tools\MSVC\14.29.30133\atlmfc\include\afxtempl.h

; 73   : 	if (ar.IsStoring())

  0009f	74 40		 je	 SHORT $LN27@Serialize

; 74   : 	{
; 75   : 		TYPE* pData;
; 76   : 		UINT_PTR nElementsLeft;
; 77   : 
; 78   : 		nElementsLeft = nCount;

  000a1	b9 01 00 00 00	 mov	 ecx, 1
  000a6	89 4d e8	 mov	 DWORD PTR _nElementsLeft$1$[ebp], ecx
  000a9	0f 1f 80 00 00
	00 00		 npad	 7
$LL22@Serialize:

; 80   : 		while( nElementsLeft > 0 )
; 81   : 		{
; 82   : 			UINT nElementsToWrite;
; 83   : 
; 84   : 			nElementsToWrite = UINT(__min(nElementsLeft, INT_MAX/sizeof(TYPE)));

  000b0	b8 ff ff ff 1f	 mov	 eax, 536870911		; 1fffffffH
  000b5	3b c8		 cmp	 ecx, eax
  000b7	0f 42 c1	 cmovb	 eax, ecx

; 85   : 			ar.Write(pData, nElementsToWrite*sizeof(TYPE));

  000ba	8b ca		 mov	 ecx, edx
  000bc	89 45 d8	 mov	 DWORD PTR _nElementsToWrite$1$[ebp], eax
  000bf	8d 3c 85 00 00
	00 00		 lea	 edi, DWORD PTR [eax*4]
  000c6	57		 push	 edi
  000c7	56		 push	 esi
  000c8	e8 00 00 00 00	 call	 ?Write@CArchive@@QAEXPBXI@Z ; CArchive::Write

; 86   : 			nElementsLeft -= nElementsToWrite;

  000cd	8b 4d e8	 mov	 ecx, DWORD PTR _nElementsLeft$1$[ebp]

; 87   : 			pData += nElementsToWrite;

  000d0	03 f7		 add	 esi, edi
  000d2	2b 4d d8	 sub	 ecx, DWORD PTR _nElementsToWrite$1$[ebp]
  000d5	8b 55 08	 mov	 edx, DWORD PTR _ar$[ebp]
  000d8	89 4d e8	 mov	 DWORD PTR _nElementsLeft$1$[ebp], ecx
  000db	85 c9		 test	 ecx, ecx
  000dd	75 d1		 jne	 SHORT $LL22@Serialize

; 88   : 		}
; 89   : 	}

  000df	eb 36		 jmp	 SHORT $LN5@Serialize
$LN27@Serialize:

; 90   : 	else
; 91   : 	{
; 92   : 		TYPE* pData;
; 93   : 		UINT_PTR nElementsLeft;
; 94   : 
; 95   : 		nElementsLeft = nCount;

  000e1	bf 01 00 00 00	 mov	 edi, 1
$LL24@Serialize:

; 101  : 			nElementsToRead = UINT(__min(nElementsLeft, INT_MAX/sizeof(TYPE)));

  000e6	b8 ff ff ff 1f	 mov	 eax, 536870911		; 1fffffffH
; File C:\Program Files (x86)\Microsoft Visual Studio\2019\Community\VC\Tools\MSVC\14.29.30133\atlmfc\include\afx.inl

; 399  : 	UINT nRead=Read(lpBuf, nCount);

  000eb	8b ca		 mov	 ecx, edx
; File C:\Program Files (x86)\Microsoft Visual Studio\2019\Community\VC\Tools\MSVC\14.29.30133\atlmfc\include\afxtempl.h

; 101  : 			nElementsToRead = UINT(__min(nElementsLeft, INT_MAX/sizeof(TYPE)));

  000ed	3b f8		 cmp	 edi, eax
  000ef	0f 42 c7	 cmovb	 eax, edi
  000f2	89 45 dc	 mov	 DWORD PTR _nElementsToRead$1$[ebp], eax

; 102  : 			ar.EnsureRead(pData, nElementsToRead*sizeof(TYPE));

  000f5	c1 e0 02	 shl	 eax, 2
; File C:\Program Files (x86)\Microsoft Visual Studio\2019\Community\VC\Tools\MSVC\14.29.30133\atlmfc\include\afx.inl

; 399  : 	UINT nRead=Read(lpBuf, nCount);

  000f8	50		 push	 eax
  000f9	56		 push	 esi
; File C:\Program Files (x86)\Microsoft Visual Studio\2019\Community\VC\Tools\MSVC\14.29.30133\atlmfc\include\afxtempl.h

; 102  : 			ar.EnsureRead(pData, nElementsToRead*sizeof(TYPE));

  000fa	89 45 d8	 mov	 DWORD PTR _nCount$1$[ebp], eax
; File C:\Program Files (x86)\Microsoft Visual Studio\2019\Community\VC\Tools\MSVC\14.29.30133\atlmfc\include\afx.inl

; 399  : 	UINT nRead=Read(lpBuf, nCount);

  000fd	e8 00 00 00 00	 call	 ?Read@CArchive@@QAEIPAXI@Z ; CArchive::Read

; 400  : 	if(nRead!=nCount)

  00102	8b 4d d8	 mov	 ecx, DWORD PTR _nCount$1$[ebp]
  00105	3b c1		 cmp	 eax, ecx
  00107	0f 85 9e 02 00
	00		 jne	 $LN124@Serialize
; File C:\Program Files (x86)\Microsoft Visual Studio\2019\Community\VC\Tools\MSVC\14.29.30133\atlmfc\include\afxtempl.h

; 104  : 			pData += nElementsToRead;

  0010d	8b 55 08	 mov	 edx, DWORD PTR _ar$[ebp]
  00110	03 f1		 add	 esi, ecx
  00112	2b 7d dc	 sub	 edi, DWORD PTR _nElementsToRead$1$[ebp]
  00115	75 cf		 jne	 SHORT $LL24@Serialize
$LN5@Serialize:

; 1758 : 			{
; 1759 : 				CAssoc* pAssoc;
; 1760 : 				for (pAssoc = m_pHashTable[nHash]; pAssoc != NULL; pAssoc = pAssoc->pNext)

  00117	8b 45 ec	 mov	 eax, DWORD PTR _pAssoc$1$[ebp]
  0011a	8b 7d 08	 mov	 edi, DWORD PTR _ar$[ebp]
  0011d	8b 40 08	 mov	 eax, DWORD PTR [eax+8]
  00120	89 45 ec	 mov	 DWORD PTR _pAssoc$1$[ebp], eax
  00123	85 c0		 test	 eax, eax
  00125	0f 85 56 ff ff
	ff		 jne	 $LL7@Serialize
  0012b	8b 75 f0	 mov	 esi, DWORD PTR _this$1$[ebp]
  0012e	8b 4d e4	 mov	 ecx, DWORD PTR _nHash$1$[ebp]
$LN2@Serialize:

; 1756 : 		{
; 1757 : 			for (UINT nHash = 0; nHash < m_nHashTableSize; nHash++)

  00131	41		 inc	 ecx
  00132	89 4d e4	 mov	 DWORD PTR _nHash$1$[ebp], ecx
  00135	3b 4e 08	 cmp	 ecx, DWORD PTR [esi+8]
  00138	0f 82 32 ff ff
	ff		 jb	 $LL4@Serialize

; 1788 : 	}
; 1789 : }

  0013e	8b 4d f4	 mov	 ecx, DWORD PTR __$EHRec$[ebp]
  00141	64 89 0d 00 00
	00 00		 mov	 DWORD PTR fs:0, ecx
  00148	59		 pop	 ecx
  00149	5f		 pop	 edi
  0014a	5e		 pop	 esi
  0014b	8b e5		 mov	 esp, ebp
  0014d	5d		 pop	 ebp
  0014e	c2 04 00	 ret	 4
$LN10@Serialize:

; 1772 : 					SerializeElements<VALUE>(ar, pValue, 1);
; 1773 : 				}
; 1774 : 			}
; 1775 : 		}
; 1776 : 	}
; 1777 : 	else
; 1778 : 	{
; 1779 : 		DWORD_PTR nNewCount = ar.ReadCount();

  00151	e8 00 00 00 00	 call	 ?ReadCount@CArchive@@QAEKXZ ; CArchive::ReadCount

; 1780 : 		while (nNewCount--)

  00156	85 c0		 test	 eax, eax
  00158	0f 84 3a 02 00
	00		 je	 $LN141@Serialize
  0015e	66 90		 npad	 2
$LL8@Serialize:

; 1781 : 		{
; 1782 : 			KEY newKey[1];

  00160	ff 35 00 00 00
	00		 push	 DWORD PTR __imp_??1?$CStringT@DV?$StrTraitMFC_DLL@DV?$ChTraitsCRT@D@ATL@@@@@ATL@@QAE@XZ
  00166	48		 dec	 eax
  00167	ff 35 00 00 00
	00		 push	 DWORD PTR __imp_??0?$CStringT@DV?$StrTraitMFC_DLL@DV?$ChTraitsCRT@D@ATL@@@@@ATL@@QAE@XZ
  0016d	89 45 cc	 mov	 DWORD PTR _nNewCount$1$[ebp], eax
  00170	8d 45 e8	 lea	 eax, DWORD PTR _newKey$4[ebp]
  00173	6a 01		 push	 1
  00175	6a 04		 push	 4
  00177	50		 push	 eax
  00178	e8 00 00 00 00	 call	 ??_L@YGXPAXIIP6EX0@Z1@Z

; 1783 : 			VALUE newValue[1];
; 1784 : 			SerializeElements<KEY>(ar, newKey, 1);

  0017d	6a 01		 push	 1
  0017f	8d 45 e8	 lea	 eax, DWORD PTR _newKey$4[ebp]
  00182	c7 45 fc 00 00
	00 00		 mov	 DWORD PTR __$EHRec$[ebp+8], 0
  00189	50		 push	 eax
  0018a	57		 push	 edi
  0018b	e8 00 00 00 00	 call	 ??$SerializeElements@V?$CStringT@DV?$StrTraitMFC_DLL@DV?$ChTraitsCRT@D@ATL@@@@@ATL@@@@YGXAAVCArchive@@PAV?$CStringT@DV?$StrTraitMFC_DLL@DV?$ChTraitsCRT@D@ATL@@@@@ATL@@H@Z ; SerializeElements<ATL::CStringT<char,StrTraitMFC_DLL<char,ATL::ChTraitsCRT<char> > > >
; File C:\Program Files (x86)\Microsoft Visual Studio\2019\Community\VC\Tools\MSVC\14.29.30133\atlmfc\include\afx.inl

; 212  : 	{ return (m_nMode & CArchive::load) == 0; }

  00190	8b 47 18	 mov	 eax, DWORD PTR [edi+24]
  00193	f7 d0		 not	 eax
  00195	a8 01		 test	 al, 1
; File C:\Program Files (x86)\Microsoft Visual Studio\2019\Community\VC\Tools\MSVC\14.29.30133\atlmfc\include\afxtempl.h

; 73   : 	if (ar.IsStoring())

  00197	74 4b		 je	 SHORT $LN48@Serialize

; 74   : 	{
; 75   : 		TYPE* pData;
; 76   : 		UINT_PTR nElementsLeft;
; 77   : 
; 78   : 		nElementsLeft = nCount;

  00199	b8 01 00 00 00	 mov	 eax, 1

; 79   : 		pData = pElements;

  0019e	8d 4d e0	 lea	 ecx, DWORD PTR _newValue$3[ebp]
  001a1	89 45 e4	 mov	 DWORD PTR _nElementsLeft$1$[ebp], eax
  001a4	89 4d ec	 mov	 DWORD PTR _pData$1$[ebp], ecx
  001a7	66 0f 1f 84 00
	00 00 00 00	 npad	 9
$LL43@Serialize:

; 80   : 		while( nElementsLeft > 0 )
; 81   : 		{
; 82   : 			UINT nElementsToWrite;
; 83   : 
; 84   : 			nElementsToWrite = UINT(__min(nElementsLeft, INT_MAX/sizeof(TYPE)));

  001b0	bf ff ff ff 1f	 mov	 edi, 536870911		; 1fffffffH
  001b5	3b c7		 cmp	 eax, edi
  001b7	0f 42 f8	 cmovb	 edi, eax

; 85   : 			ar.Write(pData, nElementsToWrite*sizeof(TYPE));

  001ba	8d 34 bd 00 00
	00 00		 lea	 esi, DWORD PTR [edi*4]
  001c1	56		 push	 esi
  001c2	51		 push	 ecx
  001c3	8b 4d 08	 mov	 ecx, DWORD PTR _ar$[ebp]
  001c6	e8 00 00 00 00	 call	 ?Write@CArchive@@QAEXPBXI@Z ; CArchive::Write

; 86   : 			nElementsLeft -= nElementsToWrite;

  001cb	8b 45 e4	 mov	 eax, DWORD PTR _nElementsLeft$1$[ebp]

; 87   : 			pData += nElementsToWrite;

  001ce	8b 4d ec	 mov	 ecx, DWORD PTR _pData$1$[ebp]
  001d1	2b c7		 sub	 eax, edi
  001d3	03 ce		 add	 ecx, esi
  001d5	89 45 e4	 mov	 DWORD PTR _nElementsLeft$1$[ebp], eax
  001d8	89 4d ec	 mov	 DWORD PTR _pData$1$[ebp], ecx
  001db	85 c0		 test	 eax, eax
  001dd	75 d1		 jne	 SHORT $LL43@Serialize

; 88   : 		}
; 89   : 	}

  001df	8b 7d 08	 mov	 edi, DWORD PTR _ar$[ebp]
  001e2	eb 40		 jmp	 SHORT $LN46@Serialize
$LN48@Serialize:

; 96   : 		pData = pElements;

  001e4	8d 55 e0	 lea	 edx, DWORD PTR _newValue$3[ebp]
  001e7	be 01 00 00 00	 mov	 esi, 1
  001ec	89 55 e4	 mov	 DWORD PTR _pData$1$[ebp], edx
  001ef	90		 npad	 1
$LL45@Serialize:

; 101  : 			nElementsToRead = UINT(__min(nElementsLeft, INT_MAX/sizeof(TYPE)));

  001f0	b8 ff ff ff 1f	 mov	 eax, 536870911		; 1fffffffH
; File C:\Program Files (x86)\Microsoft Visual Studio\2019\Community\VC\Tools\MSVC\14.29.30133\atlmfc\include\afx.inl

; 399  : 	UINT nRead=Read(lpBuf, nCount);

  001f5	8b cf		 mov	 ecx, edi
; File C:\Program Files (x86)\Microsoft Visual Studio\2019\Community\VC\Tools\MSVC\14.29.30133\atlmfc\include\afxtempl.h

; 101  : 			nElementsToRead = UINT(__min(nElementsLeft, INT_MAX/sizeof(TYPE)));

  001f7	3b f0		 cmp	 esi, eax
  001f9	0f 42 c6	 cmovb	 eax, esi
  001fc	89 45 dc	 mov	 DWORD PTR _nElementsToRead$1$[ebp], eax

; 102  : 			ar.EnsureRead(pData, nElementsToRead*sizeof(TYPE));

  001ff	c1 e0 02	 shl	 eax, 2
; File C:\Program Files (x86)\Microsoft Visual Studio\2019\Community\VC\Tools\MSVC\14.29.30133\atlmfc\include\afx.inl

; 399  : 	UINT nRead=Read(lpBuf, nCount);

  00202	50		 push	 eax
  00203	52		 push	 edx
; File C:\Program Files (x86)\Microsoft Visual Studio\2019\Community\VC\Tools\MSVC\14.29.30133\atlmfc\include\afxtempl.h

; 102  : 			ar.EnsureRead(pData, nElementsToRead*sizeof(TYPE));

  00204	89 45 d8	 mov	 DWORD PTR _nCount$1$[ebp], eax
; File C:\Program Files (x86)\Microsoft Visual Studio\2019\Community\VC\Tools\MSVC\14.29.30133\atlmfc\include\afx.inl

; 399  : 	UINT nRead=Read(lpBuf, nCount);

  00207	e8 00 00 00 00	 call	 ?Read@CArchive@@QAEIPAXI@Z ; CArchive::Read

; 400  : 	if(nRead!=nCount)

  0020c	8b 4d d8	 mov	 ecx, DWORD PTR _nCount$1$[ebp]
  0020f	3b c1		 cmp	 eax, ecx
  00211	0f 85 94 01 00
	00		 jne	 $LN124@Serialize
; File C:\Program Files (x86)\Microsoft Visual Studio\2019\Community\VC\Tools\MSVC\14.29.30133\atlmfc\include\afxtempl.h

; 104  : 			pData += nElementsToRead;

  00217	8b 55 e4	 mov	 edx, DWORD PTR _pData$1$[ebp]
  0021a	03 d1		 add	 edx, ecx
  0021c	89 55 e4	 mov	 DWORD PTR _pData$1$[ebp], edx
  0021f	2b 75 dc	 sub	 esi, DWORD PTR _nElementsToRead$1$[ebp]
  00222	75 cc		 jne	 SHORT $LL45@Serialize
$LN46@Serialize:
; File C:\Program Files (x86)\Microsoft Visual Studio\2019\Community\VC\Tools\MSVC\14.29.30133\atlmfc\include\atlsimpstr.h

; 377  : 		return( m_pszData );

  00224	8b 45 e8	 mov	 eax, DWORD PTR _newKey$4[ebp]
; File C:\Program Files (x86)\Microsoft Visual Studio\2019\Community\VC\Tools\MSVC\14.29.30133\atlmfc\include\afxtempl.h

; 1786 : 			SetAt(newKey[0], newValue[0]);

  00227	8b 4d e0	 mov	 ecx, DWORD PTR _newValue$3[ebp]

; 1533 : 	nHashValue = HashKey<ARG_KEY>(key);

  0022a	50		 push	 eax
; File C:\Program Files (x86)\Microsoft Visual Studio\2019\Community\VC\Tools\MSVC\14.29.30133\atlmfc\include\atlsimpstr.h

; 377  : 		return( m_pszData );

  0022b	89 45 d8	 mov	 DWORD PTR $T2[ebp], eax
; File C:\Program Files (x86)\Microsoft Visual Studio\2019\Community\VC\Tools\MSVC\14.29.30133\atlmfc\include\afxtempl.h

; 1786 : 			SetAt(newKey[0], newValue[0]);

  0022e	89 4d d0	 mov	 DWORD PTR _newValue$1$[ebp], ecx

; 1533 : 	nHashValue = HashKey<ARG_KEY>(key);

  00231	e8 00 00 00 00	 call	 ??$HashKey@PBD@@YGIPBD@Z ; HashKey<char const *>

; 1534 : 	nHashBucket = nHashValue % m_nHashTableSize;

  00236	8b 75 f0	 mov	 esi, DWORD PTR _this$1$[ebp]
  00239	33 d2		 xor	 edx, edx
  0023b	8d 4e 08	 lea	 ecx, DWORD PTR [esi+8]
  0023e	89 45 ec	 mov	 DWORD PTR _nHashValue$1$[ebp], eax
  00241	f7 31		 div	 DWORD PTR [ecx]
  00243	89 4d dc	 mov	 DWORD PTR tv746[ebp], ecx

; 1535 : 
; 1536 : 	if (m_pHashTable == NULL)

  00246	8b 4e 04	 mov	 ecx, DWORD PTR [esi+4]
  00249	8b c2		 mov	 eax, edx
  0024b	89 45 d4	 mov	 DWORD PTR _nHashBucket$1$[ebp], eax
  0024e	85 c9		 test	 ecx, ecx
  00250	74 3f		 je	 SHORT $LN165@Serialize

; 1537 : 		return NULL;
; 1538 : 
; 1539 : 	// see if it exists
; 1540 : 	CAssoc* pAssoc;
; 1541 : 	for (pAssoc = m_pHashTable[nHashBucket]; pAssoc != NULL; pAssoc = pAssoc->pNext)

  00252	8b 34 81	 mov	 esi, DWORD PTR [ecx+eax*4]
  00255	85 f6		 test	 esi, esi
  00257	74 31		 je	 SHORT $LN167@Serialize
  00259	8b 45 ec	 mov	 eax, DWORD PTR _nHashValue$1$[ebp]
  0025c	0f 1f 40 00	 npad	 4
$LL74@Serialize:

; 1543 : 		if (pAssoc->nHashValue == nHashValue && CompareElements(&pAssoc->key, &key))

  00260	39 46 0c	 cmp	 DWORD PTR [esi+12], eax
  00263	75 16		 jne	 SHORT $LN72@Serialize
; File C:\Program Files (x86)\Microsoft Visual Studio\2019\Community\VC\Tools\MSVC\14.29.30133\atlmfc\include\cstringt.h

; 2486 : 		return(str1.Compare(psz2) == 0);

  00265	ff 75 d8	 push	 DWORD PTR $T2[ebp]
  00268	8b ce		 mov	 ecx, esi
  0026a	ff 15 00 00 00
	00		 call	 DWORD PTR __imp_?Compare@?$CStringT@DV?$StrTraitMFC_DLL@DV?$ChTraitsCRT@D@ATL@@@@@ATL@@QBEHPBD@Z
; File C:\Program Files (x86)\Microsoft Visual Studio\2019\Community\VC\Tools\MSVC\14.29.30133\atlmfc\include\afxtempl.h

; 1543 : 		if (pAssoc->nHashValue == nHashValue && CompareElements(&pAssoc->key, &key))

  00270	85 c0		 test	 eax, eax
  00272	0f 84 f5 00 00
	00		 je	 $LN67@Serialize
  00278	8b 45 ec	 mov	 eax, DWORD PTR _nHashValue$1$[ebp]
$LN72@Serialize:

; 1537 : 		return NULL;
; 1538 : 
; 1539 : 	// see if it exists
; 1540 : 	CAssoc* pAssoc;
; 1541 : 	for (pAssoc = m_pHashTable[nHashBucket]; pAssoc != NULL; pAssoc = pAssoc->pNext)

  0027b	8b 76 08	 mov	 esi, DWORD PTR [esi+8]
  0027e	85 f6		 test	 esi, esi
  00280	75 de		 jne	 SHORT $LL74@Serialize

; 1495 : 	ENSURE(m_pFreeList != NULL);  // we must have something

  00282	8b 75 f0	 mov	 esi, DWORD PTR _this$1$[ebp]
  00285	8b 4e 04	 mov	 ecx, DWORD PTR [esi+4]

; 1541 : 	for (pAssoc = m_pHashTable[nHashBucket]; pAssoc != NULL; pAssoc = pAssoc->pNext)

  00288	eb 03		 jmp	 SHORT $LN73@Serialize
$LN167@Serialize:
  0028a	8b 75 f0	 mov	 esi, DWORD PTR _this$1$[ebp]
$LN73@Serialize:

; 1592 : 		if (m_pHashTable == NULL)

  0028d	85 c9		 test	 ecx, ecx
  0028f	75 51		 jne	 SHORT $LN171@Serialize
$LN165@Serialize:

; 1593 : 			InitHashTable(m_nHashTableSize);

  00291	8b 45 dc	 mov	 eax, DWORD PTR tv746[ebp]

; 1434 : 		m_pHashTable = new CAssoc* [nHashSize];

  00294	33 c9		 xor	 ecx, ecx
  00296	ba 04 00 00 00	 mov	 edx, 4

; 1593 : 			InitHashTable(m_nHashTableSize);

  0029b	8b 00		 mov	 eax, DWORD PTR [eax]
  0029d	89 45 e4	 mov	 DWORD PTR _nHashSize$1$[ebp], eax

; 1434 : 		m_pHashTable = new CAssoc* [nHashSize];

  002a0	f7 e2		 mul	 edx
  002a2	0f 90 c1	 seto	 cl
  002a5	f7 d9		 neg	 ecx
  002a7	0b c8		 or	 ecx, eax
  002a9	51		 push	 ecx
  002aa	e8 00 00 00 00	 call	 ??_U@YAPAXI@Z		; operator new[]
  002af	83 c4 04	 add	 esp, 4
  002b2	89 46 04	 mov	 DWORD PTR [esi+4], eax

; 1435 : 		ENSURE(m_pHashTable != NULL);

  002b5	85 c0		 test	 eax, eax
  002b7	0f 84 f7 00 00
	00		 je	 $LN125@Serialize

; 1436 : 		memset(m_pHashTable, 0, sizeof(CAssoc*) * nHashSize);

  002bd	8b 4d e4	 mov	 ecx, DWORD PTR _nHashSize$1$[ebp]
  002c0	c1 e1 02	 shl	 ecx, 2
  002c3	51		 push	 ecx
  002c4	6a 00		 push	 0
  002c6	50		 push	 eax
  002c7	e8 00 00 00 00	 call	 _memset

; 1437 : 	}
; 1438 : 	m_nHashTableSize = nHashSize;

  002cc	8b 4d dc	 mov	 ecx, DWORD PTR tv746[ebp]
  002cf	83 c4 0c	 add	 esp, 12			; 0000000cH
  002d2	8b 45 e4	 mov	 eax, DWORD PTR _nHashSize$1$[ebp]
  002d5	89 01		 mov	 DWORD PTR [ecx], eax
  002d7	8b 4e 04	 mov	 ecx, DWORD PTR [esi+4]

; 1595 : 		ENSURE(m_pHashTable);

  002da	85 c9		 test	 ecx, ecx
  002dc	0f 84 d2 00 00
	00		 je	 $LN125@Serialize
$LN171@Serialize:

; 1481 : 	if (m_pFreeList == NULL)

  002e2	83 7e 10 00	 cmp	 DWORD PTR [esi+16], 0
  002e6	75 39		 jne	 SHORT $LN104@Serialize

; 1482 : 	{
; 1483 : 		// add another block
; 1484 : 		CPlex* newBlock = CPlex::Create(m_pBlocks, m_nBlockSize, sizeof(CMap::CAssoc));

  002e8	6a 10		 push	 16			; 00000010H
  002ea	ff 76 18	 push	 DWORD PTR [esi+24]
  002ed	8d 46 14	 lea	 eax, DWORD PTR [esi+20]
  002f0	50		 push	 eax
  002f1	e8 00 00 00 00	 call	 ?Create@CPlex@@SGPAU1@AAPAU1@II@Z ; CPlex::Create

; 1485 : 		// chain them into free list
; 1486 : 		CMap::CAssoc* pAssoc = (CMap::CAssoc*) newBlock->data();
; 1487 : 		// free in reverse order to make it easier to debug
; 1488 : 		pAssoc += m_nBlockSize - 1;

  002f6	8b 56 18	 mov	 edx, DWORD PTR [esi+24]
  002f9	8b ca		 mov	 ecx, edx
  002fb	c1 e1 04	 shl	 ecx, 4
  002fe	83 c1 f8	 add	 ecx, -8			; fffffff8H
  00301	03 c8		 add	 ecx, eax

; 1489 : 		for (INT_PTR i = m_nBlockSize-1; i >= 0; i--, pAssoc--)

  00303	83 c2 ff	 add	 edx, -1
  00306	78 19		 js	 SHORT $LN104@Serialize
  00308	0f 1f 84 00 00
	00 00 00	 npad	 8
$LL101@Serialize:

; 1490 : 		{
; 1491 : 			pAssoc->pNext = m_pFreeList;

  00310	8b 46 10	 mov	 eax, DWORD PTR [esi+16]
  00313	89 41 08	 mov	 DWORD PTR [ecx+8], eax

; 1492 : 			m_pFreeList = pAssoc;

  00316	89 4e 10	 mov	 DWORD PTR [esi+16], ecx
  00319	83 e9 10	 sub	 ecx, 16			; 00000010H
  0031c	83 ea 01	 sub	 edx, 1
  0031f	79 ef		 jns	 SHORT $LL101@Serialize
$LN104@Serialize:

; 1493 : 		}
; 1494 : 	}
; 1495 : 	ENSURE(m_pFreeList != NULL);  // we must have something

  00321	8b 76 10	 mov	 esi, DWORD PTR [esi+16]
  00324	85 f6		 test	 esi, esi
  00326	0f 84 88 00 00
	00		 je	 $LN125@Serialize

; 1496 : 
; 1497 : 	CMap::CAssoc* pAssoc = m_pFreeList;
; 1498 : 
; 1499 : 	// zero the memory
; 1500 : 	CMap::CAssoc* pTemp = pAssoc->pNext;

  0032c	8b 46 08	 mov	 eax, DWORD PTR [esi+8]
  0032f	0f 57 c0	 xorps	 xmm0, xmm0

; 1503 : 
; 1504 : 	m_pFreeList = m_pFreeList->pNext;

  00332	8b 4d f0	 mov	 ecx, DWORD PTR _this$1$[ebp]

; 1256 : 		CPair( ARG_KEY keyval ) : key( keyval )	{}

  00335	ff 75 d8	 push	 DWORD PTR $T2[ebp]

; 1501 : 	memset( pAssoc, 0, sizeof(CMap::CAssoc) );

  00338	0f 11 06	 movups	 XMMWORD PTR [esi], xmm0

; 1502 : 	pAssoc->pNext = pTemp;

  0033b	89 46 08	 mov	 DWORD PTR [esi+8], eax

; 1503 : 
; 1504 : 	m_pFreeList = m_pFreeList->pNext;

  0033e	8b 41 10	 mov	 eax, DWORD PTR [ecx+16]
  00341	8b 40 08	 mov	 eax, DWORD PTR [eax+8]

; 1505 : 	m_nCount++;

  00344	ff 41 0c	 inc	 DWORD PTR [ecx+12]
  00347	89 41 10	 mov	 DWORD PTR [ecx+16], eax

; 1256 : 		CPair( ARG_KEY keyval ) : key( keyval )	{}

  0034a	8b ce		 mov	 ecx, esi
  0034c	ff 15 00 00 00
	00		 call	 DWORD PTR __imp_??0?$CStringT@DV?$StrTraitMFC_DLL@DV?$ChTraitsCRT@D@ATL@@@@@ATL@@QAE@PBD@Z

; 1602 : 		pAssoc->pNext = m_pHashTable[nHashBucket];

  00352	8b 4d f0	 mov	 ecx, DWORD PTR _this$1$[ebp]
  00355	8b 45 ec	 mov	 eax, DWORD PTR _nHashValue$1$[ebp]
  00358	8b 55 d4	 mov	 edx, DWORD PTR _nHashBucket$1$[ebp]
  0035b	89 46 0c	 mov	 DWORD PTR [esi+12], eax
  0035e	8b 41 04	 mov	 eax, DWORD PTR [ecx+4]
  00361	8b 04 90	 mov	 eax, DWORD PTR [eax+edx*4]
  00364	89 46 08	 mov	 DWORD PTR [esi+8], eax

; 1603 : 		m_pHashTable[nHashBucket] = pAssoc;

  00367	8b 41 04	 mov	 eax, DWORD PTR [ecx+4]
  0036a	89 34 90	 mov	 DWORD PTR [eax+edx*4], esi
$LN67@Serialize:

; 1787 : 		}

  0036d	ff 35 00 00 00
	00		 push	 DWORD PTR __imp_??1?$CStringT@DV?$StrTraitMFC_DLL@DV?$ChTraitsCRT@D@ATL@@@@@ATL@@QAE@XZ

; 1350 : 	{ (*this)[key] = newValue; }

  00373	8b 45 d0	 mov	 eax, DWORD PTR _newValue$1$[ebp]

; 1787 : 		}

  00376	6a 01		 push	 1

; 1350 : 	{ (*this)[key] = newValue; }

  00378	89 46 04	 mov	 DWORD PTR [esi+4], eax

; 1787 : 		}

  0037b	8d 45 e8	 lea	 eax, DWORD PTR _newKey$4[ebp]
  0037e	6a 04		 push	 4
  00380	50		 push	 eax
  00381	c7 45 fc ff ff
	ff ff		 mov	 DWORD PTR __$EHRec$[ebp+8], -1
  00388	e8 00 00 00 00	 call	 ??_M@YGXPAXIIP6EX0@Z@Z
  0038d	8b 45 cc	 mov	 eax, DWORD PTR _nNewCount$1$[ebp]
  00390	85 c0		 test	 eax, eax
  00392	0f 85 c8 fd ff
	ff		 jne	 $LL8@Serialize
$LN141@Serialize:

; 1788 : 	}
; 1789 : }

  00398	8b 4d f4	 mov	 ecx, DWORD PTR __$EHRec$[ebp]
  0039b	64 89 0d 00 00
	00 00		 mov	 DWORD PTR fs:0, ecx
  003a2	59		 pop	 ecx
  003a3	5f		 pop	 edi
  003a4	5e		 pop	 esi
  003a5	8b e5		 mov	 esp, ebp
  003a7	5d		 pop	 ebp
  003a8	c2 04 00	 ret	 4
$LN124@Serialize:
  003ab	6a 00		 push	 0
  003ad	6a 03		 push	 3
  003af	e8 00 00 00 00	 call	 ?AfxThrowArchiveException@@YGXHPBD@Z ; AfxThrowArchiveException
$LN125@Serialize:
  003b4	e8 00 00 00 00	 call	 ?AfxThrowInvalidArgException@@YGXXZ ; AfxThrowInvalidArgException
$LN169@Serialize:
  003b9	cc		 int	 3
_TEXT	ENDS
;	COMDAT text$x
text$x	SEGMENT
__unwindfunclet$?Serialize@?$CMap@V?$CStringT@DV?$StrTraitMFC_DLL@DV?$ChTraitsCRT@D@ATL@@@@@ATL@@PBDHH@@UAEXAAVCArchive@@@Z$0:
  00000	a1 00 00 00 00	 mov	 eax, DWORD PTR __imp_??1?$CStringT@DV?$StrTraitMFC_DLL@DV?$ChTraitsCRT@D@ATL@@@@@ATL@@QAE@XZ
  00005	50		 push	 eax
  00006	6a 01		 push	 1
  00008	6a 04		 push	 4
  0000a	8d 45 e8	 lea	 eax, DWORD PTR _newKey$4[ebp]
  0000d	50		 push	 eax
  0000e	e8 00 00 00 00	 call	 ??_M@YGXPAXIIP6EX0@Z@Z
  00013	c3		 ret	 0
  00014	cc		 int	 3
  00015	cc		 int	 3
  00016	cc		 int	 3
  00017	cc		 int	 3
  00018	cc		 int	 3
__ehhandler$?Serialize@?$CMap@V?$CStringT@DV?$StrTraitMFC_DLL@DV?$ChTraitsCRT@D@ATL@@@@@ATL@@PBDHH@@UAEXAAVCArchive@@@Z:
  00019	90		 npad	 1
  0001a	90		 npad	 1
  0001b	8b 54 24 08	 mov	 edx, DWORD PTR [esp+8]
  0001f	8d 42 0c	 lea	 eax, DWORD PTR [edx+12]
  00022	8b 4a cc	 mov	 ecx, DWORD PTR [edx-52]
  00025	33 c8		 xor	 ecx, eax
  00027	e8 00 00 00 00	 call	 @__security_check_cookie@4
  0002c	b8 00 00 00 00	 mov	 eax, OFFSET __ehfuncinfo$?Serialize@?$CMap@V?$CStringT@DV?$StrTraitMFC_DLL@DV?$ChTraitsCRT@D@ATL@@@@@ATL@@PBDHH@@UAEXAAVCArchive@@@Z
  00031	e9 00 00 00 00	 jmp	 ___CxxFrameHandler3
text$x	ENDS
?Serialize@?$CMap@V?$CStringT@DV?$StrTraitMFC_DLL@DV?$ChTraitsCRT@D@ATL@@@@@ATL@@PBDHH@@UAEXAAVCArchive@@@Z ENDP ; CMap<ATL::CStringT<char,StrTraitMFC_DLL<char,ATL::ChTraitsCRT<char> > >,char const *,int,int>::Serialize
; Function compile flags: /Ogtp
; File C:\Program Files (x86)\Microsoft Visual Studio\2019\Community\VC\Tools\MSVC\14.29.30133\atlmfc\include\afxtempl.h
;	COMDAT ??1?$CMap@V?$CStringT@DV?$StrTraitMFC_DLL@DV?$ChTraitsCRT@D@ATL@@@@@ATL@@PBDHH@@UAE@XZ
_TEXT	SEGMENT
__$EHRec$ = -12						; size = 12
??1?$CMap@V?$CStringT@DV?$StrTraitMFC_DLL@DV?$ChTraitsCRT@D@ATL@@@@@ATL@@PBDHH@@UAE@XZ PROC ; CMap<ATL::CStringT<char,StrTraitMFC_DLL<char,ATL::ChTraitsCRT<char> > >,char const *,int,int>::~CMap<ATL::CStringT<char,StrTraitMFC_DLL<char,ATL::ChTraitsCRT<char> > >,char const *,int,int>, COMDAT
; _this$ = ecx

; 1472 : {

  00000	55		 push	 ebp
  00001	8b ec		 mov	 ebp, esp
  00003	6a ff		 push	 -1
  00005	68 00 00 00 00	 push	 __ehhandler$??1?$CMap@V?$CStringT@DV?$StrTraitMFC_DLL@DV?$ChTraitsCRT@D@ATL@@@@@ATL@@PBDHH@@UAE@XZ
  0000a	64 a1 00 00 00
	00		 mov	 eax, DWORD PTR fs:0
  00010	50		 push	 eax
  00011	a1 00 00 00 00	 mov	 eax, DWORD PTR ___security_cookie
  00016	33 c5		 xor	 eax, ebp
  00018	50		 push	 eax
  00019	8d 45 f4	 lea	 eax, DWORD PTR __$EHRec$[ebp]
  0001c	64 a3 00 00 00
	00		 mov	 DWORD PTR fs:0, eax
  00022	c7 01 00 00 00
	00		 mov	 DWORD PTR [ecx], OFFSET ??_7?$CMap@V?$CStringT@DV?$StrTraitMFC_DLL@DV?$ChTraitsCRT@D@ATL@@@@@ATL@@PBDHH@@6B@

; 1473 : 	RemoveAll();

  00028	e8 00 00 00 00	 call	 ?RemoveAll@?$CMap@V?$CStringT@DV?$StrTraitMFC_DLL@DV?$ChTraitsCRT@D@ATL@@@@@ATL@@PBDHH@@QAEXXZ ; CMap<ATL::CStringT<char,StrTraitMFC_DLL<char,ATL::ChTraitsCRT<char> > >,char const *,int,int>::RemoveAll

; 1474 : 	ASSERT(m_nCount == 0);
; 1475 : }

  0002d	8b 4d f4	 mov	 ecx, DWORD PTR __$EHRec$[ebp]
  00030	64 89 0d 00 00
	00 00		 mov	 DWORD PTR fs:0, ecx
  00037	59		 pop	 ecx
  00038	8b e5		 mov	 esp, ebp
  0003a	5d		 pop	 ebp
  0003b	c3		 ret	 0
  0003c	cc		 int	 3
  0003d	cc		 int	 3
  0003e	cc		 int	 3
  0003f	cc		 int	 3
  00040	cc		 int	 3
_TEXT	ENDS
;	COMDAT text$x
text$x	SEGMENT
__ehhandler$??1?$CMap@V?$CStringT@DV?$StrTraitMFC_DLL@DV?$ChTraitsCRT@D@ATL@@@@@ATL@@PBDHH@@UAE@XZ:
  00000	90		 npad	 1
  00001	90		 npad	 1
  00002	8b 54 24 08	 mov	 edx, DWORD PTR [esp+8]
  00006	8d 42 0c	 lea	 eax, DWORD PTR [edx+12]
  00009	8b 4a fc	 mov	 ecx, DWORD PTR [edx-4]
  0000c	33 c8		 xor	 ecx, eax
  0000e	e8 00 00 00 00	 call	 @__security_check_cookie@4
  00013	b8 00 00 00 00	 mov	 eax, OFFSET __ehfuncinfo$??1?$CMap@V?$CStringT@DV?$StrTraitMFC_DLL@DV?$ChTraitsCRT@D@ATL@@@@@ATL@@PBDHH@@UAE@XZ
  00018	e9 00 00 00 00	 jmp	 ___CxxFrameHandler3
text$x	ENDS
??1?$CMap@V?$CStringT@DV?$StrTraitMFC_DLL@DV?$ChTraitsCRT@D@ATL@@@@@ATL@@PBDHH@@UAE@XZ ENDP ; CMap<ATL::CStringT<char,StrTraitMFC_DLL<char,ATL::ChTraitsCRT<char> > >,char const *,int,int>::~CMap<ATL::CStringT<char,StrTraitMFC_DLL<char,ATL::ChTraitsCRT<char> > >,char const *,int,int>
; Function compile flags: /Ogtp
; File C:\Program Files (x86)\Microsoft Visual Studio\2019\Community\VC\Tools\MSVC\14.29.30133\atlmfc\include\afxtempl.h
; File C:\Program Files (x86)\Microsoft Visual Studio\2019\Community\VC\Tools\MSVC\14.29.30133\atlmfc\include\cstringt.h
; File C:\Program Files (x86)\Microsoft Visual Studio\2019\Community\VC\Tools\MSVC\14.29.30133\atlmfc\include\afxtempl.h
;	COMDAT ?GetAssocAt@?$CMap@V?$CStringT@DV?$StrTraitMFC_DLL@DV?$ChTraitsCRT@D@ATL@@@@@ATL@@PBDHH@@IBEPAVCAssoc@1@PBDAAI1@Z
_TEXT	SEGMENT
_key$ = 8						; size = 4
_nHashBucket$ = 12					; size = 4
_nHashValue$ = 16					; size = 4
?GetAssocAt@?$CMap@V?$CStringT@DV?$StrTraitMFC_DLL@DV?$ChTraitsCRT@D@ATL@@@@@ATL@@PBDHH@@IBEPAVCAssoc@1@PBDAAI1@Z PROC ; CMap<ATL::CStringT<char,StrTraitMFC_DLL<char,ATL::ChTraitsCRT<char> > >,char const *,int,int>::GetAssocAt, COMDAT
; _this$ = ecx

; 1532 : {

  00000	55		 push	 ebp
  00001	8b ec		 mov	 ebp, esp
  00003	53		 push	 ebx

; 1533 : 	nHashValue = HashKey<ARG_KEY>(key);

  00004	8b 5d 08	 mov	 ebx, DWORD PTR _key$[ebp]
  00007	56		 push	 esi
  00008	57		 push	 edi
  00009	53		 push	 ebx
  0000a	8b f1		 mov	 esi, ecx
  0000c	e8 00 00 00 00	 call	 ??$HashKey@PBD@@YGIPBD@Z ; HashKey<char const *>
  00011	8b 7d 10	 mov	 edi, DWORD PTR _nHashValue$[ebp]

; 1534 : 	nHashBucket = nHashValue % m_nHashTableSize;

  00014	33 d2		 xor	 edx, edx
  00016	89 07		 mov	 DWORD PTR [edi], eax
  00018	f7 76 08	 div	 DWORD PTR [esi+8]
  0001b	8b 45 0c	 mov	 eax, DWORD PTR _nHashBucket$[ebp]
  0001e	89 10		 mov	 DWORD PTR [eax], edx

; 1535 : 
; 1536 : 	if (m_pHashTable == NULL)

  00020	8b 76 04	 mov	 esi, DWORD PTR [esi+4]
  00023	85 f6		 test	 esi, esi
  00025	74 24		 je	 SHORT $LN25@GetAssocAt

; 1537 : 		return NULL;
; 1538 : 
; 1539 : 	// see if it exists
; 1540 : 	CAssoc* pAssoc;
; 1541 : 	for (pAssoc = m_pHashTable[nHashBucket]; pAssoc != NULL; pAssoc = pAssoc->pNext)

  00027	8b 34 96	 mov	 esi, DWORD PTR [esi+edx*4]
  0002a	85 f6		 test	 esi, esi
  0002c	74 1d		 je	 SHORT $LN25@GetAssocAt
  0002e	66 90		 npad	 2
$LL4@GetAssocAt:

; 1543 : 		if (pAssoc->nHashValue == nHashValue && CompareElements(&pAssoc->key, &key))

  00030	8b 46 0c	 mov	 eax, DWORD PTR [esi+12]
  00033	3b 07		 cmp	 eax, DWORD PTR [edi]
  00035	75 0d		 jne	 SHORT $LN2@GetAssocAt
; File C:\Program Files (x86)\Microsoft Visual Studio\2019\Community\VC\Tools\MSVC\14.29.30133\atlmfc\include\cstringt.h

; 2486 : 		return(str1.Compare(psz2) == 0);

  00037	53		 push	 ebx
  00038	8b ce		 mov	 ecx, esi
  0003a	ff 15 00 00 00
	00		 call	 DWORD PTR __imp_?Compare@?$CStringT@DV?$StrTraitMFC_DLL@DV?$ChTraitsCRT@D@ATL@@@@@ATL@@QBEHPBD@Z
  00040	85 c0		 test	 eax, eax
; File C:\Program Files (x86)\Microsoft Visual Studio\2019\Community\VC\Tools\MSVC\14.29.30133\atlmfc\include\afxtempl.h

; 1543 : 		if (pAssoc->nHashValue == nHashValue && CompareElements(&pAssoc->key, &key))

  00042	74 10		 je	 SHORT $LN21@GetAssocAt
$LN2@GetAssocAt:

; 1537 : 		return NULL;
; 1538 : 
; 1539 : 	// see if it exists
; 1540 : 	CAssoc* pAssoc;
; 1541 : 	for (pAssoc = m_pHashTable[nHashBucket]; pAssoc != NULL; pAssoc = pAssoc->pNext)

  00044	8b 76 08	 mov	 esi, DWORD PTR [esi+8]
  00047	85 f6		 test	 esi, esi
  00049	75 e5		 jne	 SHORT $LL4@GetAssocAt
$LN25@GetAssocAt:
  0004b	5f		 pop	 edi

; 1545 : 	}
; 1546 : 	return NULL;
; 1547 : }

  0004c	5e		 pop	 esi
  0004d	33 c0		 xor	 eax, eax
  0004f	5b		 pop	 ebx
  00050	5d		 pop	 ebp
  00051	c2 0c 00	 ret	 12			; 0000000cH
$LN21@GetAssocAt:
  00054	5f		 pop	 edi

; 1544 : 			return pAssoc;

  00055	8b c6		 mov	 eax, esi

; 1545 : 	}
; 1546 : 	return NULL;
; 1547 : }

  00057	5e		 pop	 esi
  00058	5b		 pop	 ebx
  00059	5d		 pop	 ebp
  0005a	c2 0c 00	 ret	 12			; 0000000cH
?GetAssocAt@?$CMap@V?$CStringT@DV?$StrTraitMFC_DLL@DV?$ChTraitsCRT@D@ATL@@@@@ATL@@PBDHH@@IBEPAVCAssoc@1@PBDAAI1@Z ENDP ; CMap<ATL::CStringT<char,StrTraitMFC_DLL<char,ATL::ChTraitsCRT<char> > >,char const *,int,int>::GetAssocAt
_TEXT	ENDS
; Function compile flags: /Ogtp
; File C:\Program Files (x86)\Microsoft Visual Studio\2019\Community\VC\Tools\MSVC\14.29.30133\atlmfc\include\afxtempl.h
;	COMDAT ?FreeAssoc@?$CMap@V?$CStringT@DV?$StrTraitMFC_DLL@DV?$ChTraitsCRT@D@ATL@@@@@ATL@@PBDHH@@IAEXPAVCAssoc@1@@Z
_TEXT	SEGMENT
_pAssoc$ = 8						; size = 4
?FreeAssoc@?$CMap@V?$CStringT@DV?$StrTraitMFC_DLL@DV?$ChTraitsCRT@D@ATL@@@@@ATL@@PBDHH@@IAEXPAVCAssoc@1@@Z PROC ; CMap<ATL::CStringT<char,StrTraitMFC_DLL<char,ATL::ChTraitsCRT<char> > >,char const *,int,int>::FreeAssoc, COMDAT
; _this$ = ecx

; 1516 : {

  00000	55		 push	 ebp
  00001	8b ec		 mov	 ebp, esp
  00003	56		 push	 esi
  00004	8b 75 08	 mov	 esi, DWORD PTR _pAssoc$[ebp]
  00007	57		 push	 edi
  00008	8b f9		 mov	 edi, ecx
  0000a	8b ce		 mov	 ecx, esi
  0000c	ff 15 00 00 00
	00		 call	 DWORD PTR __imp_??1?$CStringT@DV?$StrTraitMFC_DLL@DV?$ChTraitsCRT@D@ATL@@@@@ATL@@QAE@XZ

; 1517 : 	pAssoc->CAssoc::~CAssoc();
; 1518 : 	pAssoc->pNext = m_pFreeList;

  00012	8b 47 10	 mov	 eax, DWORD PTR [edi+16]
  00015	89 46 08	 mov	 DWORD PTR [esi+8], eax

; 1519 : 	m_pFreeList = pAssoc;
; 1520 : 	m_nCount--;

  00018	83 47 0c ff	 add	 DWORD PTR [edi+12], -1
  0001c	89 77 10	 mov	 DWORD PTR [edi+16], esi

; 1521 : 	ASSERT(m_nCount >= 0);  // make sure we don't underflow
; 1522 : 
; 1523 : 	// if no more elements, cleanup completely
; 1524 : 	if (m_nCount == 0)

  0001f	75 07		 jne	 SHORT $LN2@FreeAssoc

; 1525 : 		RemoveAll();

  00021	8b cf		 mov	 ecx, edi
  00023	e8 00 00 00 00	 call	 ?RemoveAll@?$CMap@V?$CStringT@DV?$StrTraitMFC_DLL@DV?$ChTraitsCRT@D@ATL@@@@@ATL@@PBDHH@@QAEXXZ ; CMap<ATL::CStringT<char,StrTraitMFC_DLL<char,ATL::ChTraitsCRT<char> > >,char const *,int,int>::RemoveAll
$LN2@FreeAssoc:

; 1526 : }

  00028	5f		 pop	 edi
  00029	5e		 pop	 esi
  0002a	5d		 pop	 ebp
  0002b	c2 04 00	 ret	 4
?FreeAssoc@?$CMap@V?$CStringT@DV?$StrTraitMFC_DLL@DV?$ChTraitsCRT@D@ATL@@@@@ATL@@PBDHH@@IAEXPAVCAssoc@1@@Z ENDP ; CMap<ATL::CStringT<char,StrTraitMFC_DLL<char,ATL::ChTraitsCRT<char> > >,char const *,int,int>::FreeAssoc
_TEXT	ENDS
; Function compile flags: /Ogtp
; File C:\Program Files (x86)\Microsoft Visual Studio\2019\Community\VC\Tools\MSVC\14.29.30133\atlmfc\include\afxtempl.h
;	COMDAT ?NewAssoc@?$CMap@V?$CStringT@DV?$StrTraitMFC_DLL@DV?$ChTraitsCRT@D@ATL@@@@@ATL@@PBDHH@@IAEPAVCAssoc@1@PBD@Z
_TEXT	SEGMENT
_key$ = 8						; size = 4
?NewAssoc@?$CMap@V?$CStringT@DV?$StrTraitMFC_DLL@DV?$ChTraitsCRT@D@ATL@@@@@ATL@@PBDHH@@IAEPAVCAssoc@1@PBD@Z PROC ; CMap<ATL::CStringT<char,StrTraitMFC_DLL<char,ATL::ChTraitsCRT<char> > >,char const *,int,int>::NewAssoc, COMDAT
; _this$ = ecx

; 1480 : {

  00000	55		 push	 ebp
  00001	8b ec		 mov	 ebp, esp
  00003	56		 push	 esi
  00004	8b f1		 mov	 esi, ecx
  00006	57		 push	 edi

; 1481 : 	if (m_pFreeList == NULL)

  00007	83 7e 10 00	 cmp	 DWORD PTR [esi+16], 0
  0000b	75 34		 jne	 SHORT $LN7@NewAssoc

; 1482 : 	{
; 1483 : 		// add another block
; 1484 : 		CPlex* newBlock = CPlex::Create(m_pBlocks, m_nBlockSize, sizeof(CMap::CAssoc));

  0000d	6a 10		 push	 16			; 00000010H
  0000f	ff 76 18	 push	 DWORD PTR [esi+24]
  00012	8d 46 14	 lea	 eax, DWORD PTR [esi+20]
  00015	50		 push	 eax
  00016	e8 00 00 00 00	 call	 ?Create@CPlex@@SGPAU1@AAPAU1@II@Z ; CPlex::Create

; 1485 : 		// chain them into free list
; 1486 : 		CMap::CAssoc* pAssoc = (CMap::CAssoc*) newBlock->data();
; 1487 : 		// free in reverse order to make it easier to debug
; 1488 : 		pAssoc += m_nBlockSize - 1;

  0001b	8b 56 18	 mov	 edx, DWORD PTR [esi+24]
  0001e	83 c0 08	 add	 eax, 8
  00021	8b ca		 mov	 ecx, edx
  00023	c1 e1 04	 shl	 ecx, 4
  00026	83 c1 f0	 add	 ecx, -16		; fffffff0H
  00029	03 c1		 add	 eax, ecx

; 1489 : 		for (INT_PTR i = m_nBlockSize-1; i >= 0; i--, pAssoc--)

  0002b	83 c2 ff	 add	 edx, -1
  0002e	78 11		 js	 SHORT $LN7@NewAssoc
$LL4@NewAssoc:

; 1490 : 		{
; 1491 : 			pAssoc->pNext = m_pFreeList;

  00030	8b 4e 10	 mov	 ecx, DWORD PTR [esi+16]
  00033	89 48 08	 mov	 DWORD PTR [eax+8], ecx

; 1492 : 			m_pFreeList = pAssoc;

  00036	89 46 10	 mov	 DWORD PTR [esi+16], eax
  00039	83 e8 10	 sub	 eax, 16			; 00000010H
  0003c	83 ea 01	 sub	 edx, 1
  0003f	79 ef		 jns	 SHORT $LL4@NewAssoc
$LN7@NewAssoc:

; 1493 : 		}
; 1494 : 	}
; 1495 : 	ENSURE(m_pFreeList != NULL);  // we must have something

  00041	8b 7e 10	 mov	 edi, DWORD PTR [esi+16]
  00044	85 ff		 test	 edi, edi
  00046	74 2b		 je	 SHORT $LN23@NewAssoc

; 1496 : 
; 1497 : 	CMap::CAssoc* pAssoc = m_pFreeList;
; 1498 : 
; 1499 : 	// zero the memory
; 1500 : 	CMap::CAssoc* pTemp = pAssoc->pNext;

  00048	8b 47 08	 mov	 eax, DWORD PTR [edi+8]
  0004b	0f 57 c0	 xorps	 xmm0, xmm0

; 1256 : 		CPair( ARG_KEY keyval ) : key( keyval )	{}

  0004e	ff 75 08	 push	 DWORD PTR _key$[ebp]

; 1501 : 	memset( pAssoc, 0, sizeof(CMap::CAssoc) );

  00051	0f 11 07	 movups	 XMMWORD PTR [edi], xmm0

; 1502 : 	pAssoc->pNext = pTemp;

  00054	89 47 08	 mov	 DWORD PTR [edi+8], eax

; 1503 : 
; 1504 : 	m_pFreeList = m_pFreeList->pNext;

  00057	8b 4e 10	 mov	 ecx, DWORD PTR [esi+16]
  0005a	8b 49 08	 mov	 ecx, DWORD PTR [ecx+8]

; 1505 : 	m_nCount++;

  0005d	ff 46 0c	 inc	 DWORD PTR [esi+12]
  00060	89 4e 10	 mov	 DWORD PTR [esi+16], ecx

; 1256 : 		CPair( ARG_KEY keyval ) : key( keyval )	{}

  00063	8b cf		 mov	 ecx, edi
  00065	ff 15 00 00 00
	00		 call	 DWORD PTR __imp_??0?$CStringT@DV?$StrTraitMFC_DLL@DV?$ChTraitsCRT@D@ATL@@@@@ATL@@QAE@PBD@Z

; 1506 : 	ASSERT(m_nCount > 0);  // make sure we don't overflow
; 1507 : #pragma push_macro("new")
; 1508 : #undef new
; 1509 : 	::new(pAssoc) CMap::CAssoc(key);
; 1510 : #pragma pop_macro("new")
; 1511 : 	return pAssoc;

  0006b	8b c7		 mov	 eax, edi
  0006d	5f		 pop	 edi
  0006e	5e		 pop	 esi

; 1512 : }

  0006f	5d		 pop	 ebp
  00070	c2 04 00	 ret	 4
$LN23@NewAssoc:

; 1493 : 		}
; 1494 : 	}
; 1495 : 	ENSURE(m_pFreeList != NULL);  // we must have something

  00073	e8 00 00 00 00	 call	 ?AfxThrowInvalidArgException@@YGXXZ ; AfxThrowInvalidArgException
$LN21@NewAssoc:
  00078	cc		 int	 3
?NewAssoc@?$CMap@V?$CStringT@DV?$StrTraitMFC_DLL@DV?$ChTraitsCRT@D@ATL@@@@@ATL@@PBDHH@@IAEPAVCAssoc@1@PBD@Z ENDP ; CMap<ATL::CStringT<char,StrTraitMFC_DLL<char,ATL::ChTraitsCRT<char> > >,char const *,int,int>::NewAssoc
_TEXT	ENDS
; Function compile flags: /Ogtp
; File C:\Program Files (x86)\Microsoft Visual Studio\2019\Community\VC\Tools\MSVC\14.29.30133\atlmfc\include\afxtempl.h
;	COMDAT ?InitHashTable@?$CMap@V?$CStringT@DV?$StrTraitMFC_DLL@DV?$ChTraitsCRT@D@ATL@@@@@ATL@@PBDHH@@QAEXIH@Z
_TEXT	SEGMENT
_nHashSize$ = 8						; size = 4
_bAllocNow$ = 12					; size = 4
?InitHashTable@?$CMap@V?$CStringT@DV?$StrTraitMFC_DLL@DV?$ChTraitsCRT@D@ATL@@@@@ATL@@PBDHH@@QAEXIH@Z PROC ; CMap<ATL::CStringT<char,StrTraitMFC_DLL<char,ATL::ChTraitsCRT<char> > >,char const *,int,int>::InitHashTable, COMDAT
; _this$ = ecx

; 1420 : {

  00000	55		 push	 ebp
  00001	8b ec		 mov	 ebp, esp
  00003	56		 push	 esi
  00004	8b f1		 mov	 esi, ecx
  00006	57		 push	 edi

; 1421 : 	ASSERT_VALID(this);
; 1422 : 	ASSERT(m_nCount == 0);
; 1423 : 	ASSERT(nHashSize > 0);
; 1424 : 
; 1425 : 	if (m_pHashTable != NULL)

  00007	8b 46 04	 mov	 eax, DWORD PTR [esi+4]
  0000a	85 c0		 test	 eax, eax
  0000c	74 10		 je	 SHORT $LN5@InitHashTa

; 1426 : 	{
; 1427 : 		// free hash table
; 1428 : 		delete[] m_pHashTable;

  0000e	50		 push	 eax
  0000f	e8 00 00 00 00	 call	 ??_V@YAXPAX@Z		; operator delete[]
  00014	83 c4 04	 add	 esp, 4

; 1429 : 		m_pHashTable = NULL;

  00017	c7 46 04 00 00
	00 00		 mov	 DWORD PTR [esi+4], 0
$LN5@InitHashTa:

; 1430 : 	}
; 1431 : 
; 1432 : 	if (bAllocNow)

  0001e	83 7d 0c 00	 cmp	 DWORD PTR _bAllocNow$[ebp], 0
  00022	8b 7d 08	 mov	 edi, DWORD PTR _nHashSize$[ebp]
  00025	74 37		 je	 SHORT $LN6@InitHashTa

; 1433 : 	{
; 1434 : 		m_pHashTable = new CAssoc* [nHashSize];

  00027	33 c9		 xor	 ecx, ecx
  00029	8b c7		 mov	 eax, edi
  0002b	ba 04 00 00 00	 mov	 edx, 4
  00030	f7 e2		 mul	 edx
  00032	0f 90 c1	 seto	 cl
  00035	f7 d9		 neg	 ecx
  00037	0b c8		 or	 ecx, eax
  00039	51		 push	 ecx
  0003a	e8 00 00 00 00	 call	 ??_U@YAPAXI@Z		; operator new[]
  0003f	8b c8		 mov	 ecx, eax
  00041	83 c4 04	 add	 esp, 4
  00044	89 4e 04	 mov	 DWORD PTR [esi+4], ecx

; 1435 : 		ENSURE(m_pHashTable != NULL);

  00047	85 c9		 test	 ecx, ecx
  00049	74 1c		 je	 SHORT $LN11@InitHashTa

; 1436 : 		memset(m_pHashTable, 0, sizeof(CAssoc*) * nHashSize);

  0004b	8d 04 bd 00 00
	00 00		 lea	 eax, DWORD PTR [edi*4]
  00052	50		 push	 eax
  00053	6a 00		 push	 0
  00055	51		 push	 ecx
  00056	e8 00 00 00 00	 call	 _memset
  0005b	83 c4 0c	 add	 esp, 12			; 0000000cH
$LN6@InitHashTa:

; 1437 : 	}
; 1438 : 	m_nHashTableSize = nHashSize;

  0005e	89 7e 08	 mov	 DWORD PTR [esi+8], edi
  00061	5f		 pop	 edi
  00062	5e		 pop	 esi

; 1439 : }

  00063	5d		 pop	 ebp
  00064	c2 08 00	 ret	 8
$LN11@InitHashTa:

; 1435 : 		ENSURE(m_pHashTable != NULL);

  00067	e8 00 00 00 00	 call	 ?AfxThrowInvalidArgException@@YGXXZ ; AfxThrowInvalidArgException
$LN9@InitHashTa:
  0006c	cc		 int	 3
?InitHashTable@?$CMap@V?$CStringT@DV?$StrTraitMFC_DLL@DV?$ChTraitsCRT@D@ATL@@@@@ATL@@PBDHH@@QAEXIH@Z ENDP ; CMap<ATL::CStringT<char,StrTraitMFC_DLL<char,ATL::ChTraitsCRT<char> > >,char const *,int,int>::InitHashTable
_TEXT	ENDS
; Function compile flags: /Ogtp
; File C:\Program Files (x86)\Microsoft Visual Studio\2019\Community\VC\Tools\MSVC\14.29.30133\atlmfc\include\afxtempl.h
;	COMDAT ?RemoveAll@?$CMap@V?$CStringT@DV?$StrTraitMFC_DLL@DV?$ChTraitsCRT@D@ATL@@@@@ATL@@PBDHH@@QAEXXZ
_TEXT	SEGMENT
?RemoveAll@?$CMap@V?$CStringT@DV?$StrTraitMFC_DLL@DV?$ChTraitsCRT@D@ATL@@@@@ATL@@PBDHH@@QAEXXZ PROC ; CMap<ATL::CStringT<char,StrTraitMFC_DLL<char,ATL::ChTraitsCRT<char> > >,char const *,int,int>::RemoveAll, COMDAT
; _this$ = ecx

; 1443 : {

  00000	57		 push	 edi
  00001	8b f9		 mov	 edi, ecx

; 1444 : 	ASSERT_VALID(this);
; 1445 : 
; 1446 : 	if (m_pHashTable != NULL)

  00003	8b 47 04	 mov	 eax, DWORD PTR [edi+4]
  00006	85 c0		 test	 eax, eax
  00008	74 44		 je	 SHORT $LN8@RemoveAll

; 1447 : 	{
; 1448 : 		// destroy elements (values and keys)
; 1449 : 		for (UINT nHash = 0; nHash < m_nHashTableSize; nHash++)

  0000a	53		 push	 ebx
  0000b	33 db		 xor	 ebx, ebx
  0000d	39 5f 08	 cmp	 DWORD PTR [edi+8], ebx
  00010	76 2b		 jbe	 SHORT $LN3@RemoveAll
  00012	56		 push	 esi
$LL4@RemoveAll:

; 1450 : 		{
; 1451 : 			CAssoc* pAssoc;
; 1452 : 			for (pAssoc = m_pHashTable[nHash]; pAssoc != NULL;

  00013	8b 34 98	 mov	 esi, DWORD PTR [eax+ebx*4]
  00016	8b c8		 mov	 ecx, eax
  00018	85 f6		 test	 esi, esi
  0001a	74 18		 je	 SHORT $LN2@RemoveAll
  0001c	0f 1f 40 00	 npad	 4
$LL7@RemoveAll:
  00020	8b ce		 mov	 ecx, esi
  00022	ff 15 00 00 00
	00		 call	 DWORD PTR __imp_??1?$CStringT@DV?$StrTraitMFC_DLL@DV?$ChTraitsCRT@D@ATL@@@@@ATL@@QAE@XZ

; 1453 : 			  pAssoc = pAssoc->pNext)

  00028	8b 76 08	 mov	 esi, DWORD PTR [esi+8]
  0002b	85 f6		 test	 esi, esi
  0002d	75 f1		 jne	 SHORT $LL7@RemoveAll
  0002f	8b 47 04	 mov	 eax, DWORD PTR [edi+4]
  00032	8b c8		 mov	 ecx, eax
$LN2@RemoveAll:

; 1447 : 	{
; 1448 : 		// destroy elements (values and keys)
; 1449 : 		for (UINT nHash = 0; nHash < m_nHashTableSize; nHash++)

  00034	43		 inc	 ebx
  00035	3b 5f 08	 cmp	 ebx, DWORD PTR [edi+8]
  00038	72 d9		 jb	 SHORT $LL4@RemoveAll
  0003a	8b c1		 mov	 eax, ecx
  0003c	5e		 pop	 esi
$LN3@RemoveAll:

; 1454 : 			{
; 1455 : 				pAssoc->CAssoc::~CAssoc();
; 1456 : 			}
; 1457 : 		}
; 1458 : 
; 1459 : 		// free hash table
; 1460 : 		delete[] m_pHashTable;

  0003d	50		 push	 eax
  0003e	e8 00 00 00 00	 call	 ??_V@YAXPAX@Z		; operator delete[]
  00043	83 c4 04	 add	 esp, 4

; 1461 : 		m_pHashTable = NULL;

  00046	c7 47 04 00 00
	00 00		 mov	 DWORD PTR [edi+4], 0
  0004d	5b		 pop	 ebx
$LN8@RemoveAll:

; 1462 : 	}
; 1463 : 
; 1464 : 	m_nCount = 0;
; 1465 : 	m_pFreeList = NULL;
; 1466 : 	m_pBlocks->FreeDataChain();

  0004e	8b 4f 14	 mov	 ecx, DWORD PTR [edi+20]
  00051	c7 47 0c 00 00
	00 00		 mov	 DWORD PTR [edi+12], 0
  00058	c7 47 10 00 00
	00 00		 mov	 DWORD PTR [edi+16], 0
  0005f	e8 00 00 00 00	 call	 ?FreeDataChain@CPlex@@QAEXXZ ; CPlex::FreeDataChain

; 1467 : 	m_pBlocks = NULL;

  00064	c7 47 14 00 00
	00 00		 mov	 DWORD PTR [edi+20], 0
  0006b	5f		 pop	 edi

; 1468 : }

  0006c	c3		 ret	 0
?RemoveAll@?$CMap@V?$CStringT@DV?$StrTraitMFC_DLL@DV?$ChTraitsCRT@D@ATL@@@@@ATL@@PBDHH@@QAEXXZ ENDP ; CMap<ATL::CStringT<char,StrTraitMFC_DLL<char,ATL::ChTraitsCRT<char> > >,char const *,int,int>::RemoveAll
_TEXT	ENDS
; Function compile flags: /Ogtp
; File C:\Program Files (x86)\Microsoft Visual Studio\2019\Community\VC\Tools\MSVC\14.29.30133\atlmfc\include\afxtempl.h
; File C:\Program Files (x86)\Microsoft Visual Studio\2019\Community\VC\Tools\MSVC\14.29.30133\atlmfc\include\cstringt.h
; File C:\Program Files (x86)\Microsoft Visual Studio\2019\Community\VC\Tools\MSVC\14.29.30133\atlmfc\include\afxtempl.h
;	COMDAT ?RemoveKey@?$CMap@V?$CStringT@DV?$StrTraitMFC_DLL@DV?$ChTraitsCRT@D@ATL@@@@@ATL@@PBDHH@@QAEHPBD@Z
_TEXT	SEGMENT
_nHashValue$1$ = -4					; size = 4
_key$ = 8						; size = 4
?RemoveKey@?$CMap@V?$CStringT@DV?$StrTraitMFC_DLL@DV?$ChTraitsCRT@D@ATL@@@@@ATL@@PBDHH@@QAEHPBD@Z PROC ; CMap<ATL::CStringT<char,StrTraitMFC_DLL<char,ATL::ChTraitsCRT<char> > >,char const *,int,int>::RemoveKey, COMDAT
; _this$ = ecx

; 1611 : {

  00000	55		 push	 ebp
  00001	8b ec		 mov	 ebp, esp
  00003	51		 push	 ecx
  00004	53		 push	 ebx
  00005	8b d9		 mov	 ebx, ecx
  00007	56		 push	 esi
  00008	57		 push	 edi

; 1612 : 	ASSERT_VALID(this);
; 1613 : 
; 1614 : 	if (m_pHashTable == NULL)

  00009	83 7b 04 00	 cmp	 DWORD PTR [ebx+4], 0
  0000d	74 41		 je	 SHORT $LN34@RemoveKey

; 1615 : 		return FALSE;  // nothing in the table
; 1616 : 
; 1617 : 	UINT nHashValue;
; 1618 : 	CAssoc** ppAssocPrev;
; 1619 : 	nHashValue = HashKey<ARG_KEY>(key);

  0000f	ff 75 08	 push	 DWORD PTR _key$[ebp]
  00012	e8 00 00 00 00	 call	 ??$HashKey@PBD@@YGIPBD@Z ; HashKey<char const *>

; 1620 : 	ppAssocPrev = &m_pHashTable[nHashValue%m_nHashTableSize];

  00017	33 d2		 xor	 edx, edx
  00019	89 45 fc	 mov	 DWORD PTR _nHashValue$1$[ebp], eax
  0001c	f7 73 08	 div	 DWORD PTR [ebx+8]
  0001f	8b 4b 04	 mov	 ecx, DWORD PTR [ebx+4]

; 1621 : 
; 1622 : 	CAssoc* pAssoc;
; 1623 : 	for (pAssoc = *ppAssocPrev; pAssoc != NULL; pAssoc = pAssoc->pNext)

  00022	8b 34 91	 mov	 esi, DWORD PTR [ecx+edx*4]
  00025	8d 3c 91	 lea	 edi, DWORD PTR [ecx+edx*4]
  00028	85 f6		 test	 esi, esi
  0002a	74 24		 je	 SHORT $LN34@RemoveKey
  0002c	8b 45 fc	 mov	 eax, DWORD PTR _nHashValue$1$[ebp]
  0002f	90		 npad	 1
$LL4@RemoveKey:

; 1625 : 		if ((pAssoc->nHashValue == nHashValue) && CompareElements(&pAssoc->key, &key))

  00030	39 46 0c	 cmp	 DWORD PTR [esi+12], eax
  00033	75 12		 jne	 SHORT $LN6@RemoveKey
; File C:\Program Files (x86)\Microsoft Visual Studio\2019\Community\VC\Tools\MSVC\14.29.30133\atlmfc\include\cstringt.h

; 2486 : 		return(str1.Compare(psz2) == 0);

  00035	ff 75 08	 push	 DWORD PTR _key$[ebp]
  00038	8b ce		 mov	 ecx, esi
  0003a	ff 15 00 00 00
	00		 call	 DWORD PTR __imp_?Compare@?$CStringT@DV?$StrTraitMFC_DLL@DV?$ChTraitsCRT@D@ATL@@@@@ATL@@QBEHPBD@Z
  00040	85 c0		 test	 eax, eax
; File C:\Program Files (x86)\Microsoft Visual Studio\2019\Community\VC\Tools\MSVC\14.29.30133\atlmfc\include\afxtempl.h

; 1625 : 		if ((pAssoc->nHashValue == nHashValue) && CompareElements(&pAssoc->key, &key))

  00042	74 17		 je	 SHORT $LN30@RemoveKey
  00044	8b 45 fc	 mov	 eax, DWORD PTR _nHashValue$1$[ebp]
$LN6@RemoveKey:

; 1629 : 			FreeAssoc(pAssoc);
; 1630 : 			return TRUE;
; 1631 : 		}
; 1632 : 		ppAssocPrev = &pAssoc->pNext;

  00047	8d 7e 08	 lea	 edi, DWORD PTR [esi+8]
  0004a	8b 37		 mov	 esi, DWORD PTR [edi]
  0004c	85 f6		 test	 esi, esi
  0004e	75 e0		 jne	 SHORT $LL4@RemoveKey
$LN34@RemoveKey:
  00050	5f		 pop	 edi

; 1633 : 	}
; 1634 : 	return FALSE;  // not found
; 1635 : }

  00051	5e		 pop	 esi
  00052	33 c0		 xor	 eax, eax
  00054	5b		 pop	 ebx
  00055	8b e5		 mov	 esp, ebp
  00057	5d		 pop	 ebp
  00058	c2 04 00	 ret	 4
$LN30@RemoveKey:

; 1626 : 		{
; 1627 : 			// remove it
; 1628 : 			*ppAssocPrev = pAssoc->pNext;  // remove from list

  0005b	8b 46 08	 mov	 eax, DWORD PTR [esi+8]
  0005e	8b ce		 mov	 ecx, esi
  00060	89 07		 mov	 DWORD PTR [edi], eax
  00062	ff 15 00 00 00
	00		 call	 DWORD PTR __imp_??1?$CStringT@DV?$StrTraitMFC_DLL@DV?$ChTraitsCRT@D@ATL@@@@@ATL@@QAE@XZ

; 1518 : 	pAssoc->pNext = m_pFreeList;

  00068	8b 43 10	 mov	 eax, DWORD PTR [ebx+16]
  0006b	89 46 08	 mov	 DWORD PTR [esi+8], eax

; 1519 : 	m_pFreeList = pAssoc;
; 1520 : 	m_nCount--;

  0006e	83 43 0c ff	 add	 DWORD PTR [ebx+12], -1
  00072	89 73 10	 mov	 DWORD PTR [ebx+16], esi

; 1521 : 	ASSERT(m_nCount >= 0);  // make sure we don't underflow
; 1522 : 
; 1523 : 	// if no more elements, cleanup completely
; 1524 : 	if (m_nCount == 0)

  00075	75 07		 jne	 SHORT $LN20@RemoveKey

; 1525 : 		RemoveAll();

  00077	8b cb		 mov	 ecx, ebx
  00079	e8 00 00 00 00	 call	 ?RemoveAll@?$CMap@V?$CStringT@DV?$StrTraitMFC_DLL@DV?$ChTraitsCRT@D@ATL@@@@@ATL@@PBDHH@@QAEXXZ ; CMap<ATL::CStringT<char,StrTraitMFC_DLL<char,ATL::ChTraitsCRT<char> > >,char const *,int,int>::RemoveAll
$LN20@RemoveKey:
  0007e	5f		 pop	 edi

; 1633 : 	}
; 1634 : 	return FALSE;  // not found
; 1635 : }

  0007f	5e		 pop	 esi
  00080	b8 01 00 00 00	 mov	 eax, 1
  00085	5b		 pop	 ebx
  00086	8b e5		 mov	 esp, ebp
  00088	5d		 pop	 ebp
  00089	c2 04 00	 ret	 4
?RemoveKey@?$CMap@V?$CStringT@DV?$StrTraitMFC_DLL@DV?$ChTraitsCRT@D@ATL@@@@@ATL@@PBDHH@@QAEHPBD@Z ENDP ; CMap<ATL::CStringT<char,StrTraitMFC_DLL<char,ATL::ChTraitsCRT<char> > >,char const *,int,int>::RemoveKey
_TEXT	ENDS
; Function compile flags: /Ogtp
; File C:\Program Files (x86)\Microsoft Visual Studio\2019\Community\VC\Tools\MSVC\14.29.30133\atlmfc\include\afxtempl.h
;	COMDAT ?SetAt@?$CMap@V?$CStringT@DV?$StrTraitMFC_DLL@DV?$ChTraitsCRT@D@ATL@@@@@ATL@@PBDHH@@QAEXPBDH@Z
_TEXT	SEGMENT
_nHashBucket$1 = -8					; size = 4
_nHashValue$2 = -4					; size = 4
_key$ = 8						; size = 4
_newValue$ = 12						; size = 4
?SetAt@?$CMap@V?$CStringT@DV?$StrTraitMFC_DLL@DV?$ChTraitsCRT@D@ATL@@@@@ATL@@PBDHH@@QAEXPBDH@Z PROC ; CMap<ATL::CStringT<char,StrTraitMFC_DLL<char,ATL::ChTraitsCRT<char> > >,char const *,int,int>::SetAt, COMDAT
; _this$ = ecx

; 1350 : 	{ (*this)[key] = newValue; }

  00000	55		 push	 ebp
  00001	8b ec		 mov	 ebp, esp
  00003	83 ec 08	 sub	 esp, 8

; 1590 : 	if ((pAssoc = GetAssocAt(key, nHashBucket, nHashValue)) == NULL)

  00006	8d 45 fc	 lea	 eax, DWORD PTR _nHashValue$2[ebp]

; 1350 : 	{ (*this)[key] = newValue; }

  00009	56		 push	 esi
  0000a	57		 push	 edi

; 1590 : 	if ((pAssoc = GetAssocAt(key, nHashBucket, nHashValue)) == NULL)

  0000b	50		 push	 eax
  0000c	8d 45 f8	 lea	 eax, DWORD PTR _nHashBucket$1[ebp]

; 1350 : 	{ (*this)[key] = newValue; }

  0000f	8b f1		 mov	 esi, ecx

; 1590 : 	if ((pAssoc = GetAssocAt(key, nHashBucket, nHashValue)) == NULL)

  00011	50		 push	 eax
  00012	ff 75 08	 push	 DWORD PTR _key$[ebp]
  00015	e8 00 00 00 00	 call	 ?GetAssocAt@?$CMap@V?$CStringT@DV?$StrTraitMFC_DLL@DV?$ChTraitsCRT@D@ATL@@@@@ATL@@PBDHH@@IBEPAVCAssoc@1@PBDAAI1@Z ; CMap<ATL::CStringT<char,StrTraitMFC_DLL<char,ATL::ChTraitsCRT<char> > >,char const *,int,int>::GetAssocAt
  0001a	8b f8		 mov	 edi, eax
  0001c	85 ff		 test	 edi, edi
  0001e	0f 85 d6 00 00
	00		 jne	 $LN7@SetAt

; 1591 : 	{
; 1592 : 		if (m_pHashTable == NULL)

  00024	8b 46 04	 mov	 eax, DWORD PTR [esi+4]
  00027	85 c0		 test	 eax, eax
  00029	75 4a		 jne	 SHORT $LN44@SetAt

; 1593 : 			InitHashTable(m_nHashTableSize);

  0002b	8b 7e 08	 mov	 edi, DWORD PTR [esi+8]

; 1434 : 		m_pHashTable = new CAssoc* [nHashSize];

  0002e	33 c9		 xor	 ecx, ecx
  00030	8b c7		 mov	 eax, edi
  00032	ba 04 00 00 00	 mov	 edx, 4
  00037	f7 e2		 mul	 edx
  00039	0f 90 c1	 seto	 cl
  0003c	f7 d9		 neg	 ecx
  0003e	0b c8		 or	 ecx, eax
  00040	51		 push	 ecx
  00041	e8 00 00 00 00	 call	 ??_U@YAPAXI@Z		; operator new[]
  00046	83 c4 04	 add	 esp, 4
  00049	89 46 04	 mov	 DWORD PTR [esi+4], eax

; 1435 : 		ENSURE(m_pHashTable != NULL);

  0004c	85 c0		 test	 eax, eax
  0004e	0f 84 b4 00 00
	00		 je	 $LN41@SetAt

; 1436 : 		memset(m_pHashTable, 0, sizeof(CAssoc*) * nHashSize);

  00054	8d 0c bd 00 00
	00 00		 lea	 ecx, DWORD PTR [edi*4]
  0005b	51		 push	 ecx
  0005c	6a 00		 push	 0
  0005e	50		 push	 eax
  0005f	e8 00 00 00 00	 call	 _memset

; 1437 : 	}
; 1438 : 	m_nHashTableSize = nHashSize;

  00064	8b 46 04	 mov	 eax, DWORD PTR [esi+4]
  00067	83 c4 0c	 add	 esp, 12			; 0000000cH
  0006a	89 7e 08	 mov	 DWORD PTR [esi+8], edi

; 1595 : 		ENSURE(m_pHashTable);

  0006d	85 c0		 test	 eax, eax
  0006f	0f 84 93 00 00
	00		 je	 $LN41@SetAt
$LN44@SetAt:

; 1481 : 	if (m_pFreeList == NULL)

  00075	83 7e 10 00	 cmp	 DWORD PTR [esi+16], 0
  00079	75 36		 jne	 SHORT $LN26@SetAt

; 1482 : 	{
; 1483 : 		// add another block
; 1484 : 		CPlex* newBlock = CPlex::Create(m_pBlocks, m_nBlockSize, sizeof(CMap::CAssoc));

  0007b	6a 10		 push	 16			; 00000010H
  0007d	ff 76 18	 push	 DWORD PTR [esi+24]
  00080	8d 46 14	 lea	 eax, DWORD PTR [esi+20]
  00083	50		 push	 eax
  00084	e8 00 00 00 00	 call	 ?Create@CPlex@@SGPAU1@AAPAU1@II@Z ; CPlex::Create

; 1485 : 		// chain them into free list
; 1486 : 		CMap::CAssoc* pAssoc = (CMap::CAssoc*) newBlock->data();
; 1487 : 		// free in reverse order to make it easier to debug
; 1488 : 		pAssoc += m_nBlockSize - 1;

  00089	8b 56 18	 mov	 edx, DWORD PTR [esi+24]
  0008c	83 c0 08	 add	 eax, 8
  0008f	8b ca		 mov	 ecx, edx
  00091	c1 e1 04	 shl	 ecx, 4
  00094	83 c1 f0	 add	 ecx, -16		; fffffff0H
  00097	03 c8		 add	 ecx, eax

; 1489 : 		for (INT_PTR i = m_nBlockSize-1; i >= 0; i--, pAssoc--)

  00099	83 c2 ff	 add	 edx, -1
  0009c	78 13		 js	 SHORT $LN26@SetAt
  0009e	66 90		 npad	 2
$LL23@SetAt:

; 1490 : 		{
; 1491 : 			pAssoc->pNext = m_pFreeList;

  000a0	8b 46 10	 mov	 eax, DWORD PTR [esi+16]
  000a3	89 41 08	 mov	 DWORD PTR [ecx+8], eax

; 1492 : 			m_pFreeList = pAssoc;

  000a6	89 4e 10	 mov	 DWORD PTR [esi+16], ecx
  000a9	83 e9 10	 sub	 ecx, 16			; 00000010H
  000ac	83 ea 01	 sub	 edx, 1
  000af	79 ef		 jns	 SHORT $LL23@SetAt
$LN26@SetAt:

; 1493 : 		}
; 1494 : 	}
; 1495 : 	ENSURE(m_pFreeList != NULL);  // we must have something

  000b1	8b 7e 10	 mov	 edi, DWORD PTR [esi+16]
  000b4	85 ff		 test	 edi, edi
  000b6	74 50		 je	 SHORT $LN41@SetAt

; 1496 : 
; 1497 : 	CMap::CAssoc* pAssoc = m_pFreeList;
; 1498 : 
; 1499 : 	// zero the memory
; 1500 : 	CMap::CAssoc* pTemp = pAssoc->pNext;

  000b8	8b 47 08	 mov	 eax, DWORD PTR [edi+8]
  000bb	0f 57 c0	 xorps	 xmm0, xmm0

; 1256 : 		CPair( ARG_KEY keyval ) : key( keyval )	{}

  000be	ff 75 08	 push	 DWORD PTR _key$[ebp]

; 1501 : 	memset( pAssoc, 0, sizeof(CMap::CAssoc) );

  000c1	0f 11 07	 movups	 XMMWORD PTR [edi], xmm0

; 1502 : 	pAssoc->pNext = pTemp;

  000c4	89 47 08	 mov	 DWORD PTR [edi+8], eax

; 1256 : 		CPair( ARG_KEY keyval ) : key( keyval )	{}

  000c7	8b cf		 mov	 ecx, edi

; 1504 : 	m_pFreeList = m_pFreeList->pNext;

  000c9	8b 46 10	 mov	 eax, DWORD PTR [esi+16]
  000cc	8b 40 08	 mov	 eax, DWORD PTR [eax+8]

; 1505 : 	m_nCount++;

  000cf	ff 46 0c	 inc	 DWORD PTR [esi+12]
  000d2	89 46 10	 mov	 DWORD PTR [esi+16], eax

; 1256 : 		CPair( ARG_KEY keyval ) : key( keyval )	{}

  000d5	ff 15 00 00 00
	00		 call	 DWORD PTR __imp_??0?$CStringT@DV?$StrTraitMFC_DLL@DV?$ChTraitsCRT@D@ATL@@@@@ATL@@QAE@PBD@Z

; 1598 : 		pAssoc->nHashValue = nHashValue;

  000db	8b 45 fc	 mov	 eax, DWORD PTR _nHashValue$2[ebp]
  000de	89 47 0c	 mov	 DWORD PTR [edi+12], eax

; 1599 : 		//'pAssoc->value' is a constructed object, nothing more
; 1600 : 
; 1601 : 		// put into hash table
; 1602 : 		pAssoc->pNext = m_pHashTable[nHashBucket];

  000e1	8b 45 f8	 mov	 eax, DWORD PTR _nHashBucket$1[ebp]
  000e4	8d 0c 85 00 00
	00 00		 lea	 ecx, DWORD PTR [eax*4]
  000eb	8b 46 04	 mov	 eax, DWORD PTR [esi+4]
  000ee	8b 04 01	 mov	 eax, DWORD PTR [ecx+eax]
  000f1	89 47 08	 mov	 DWORD PTR [edi+8], eax

; 1603 : 		m_pHashTable[nHashBucket] = pAssoc;

  000f4	8b 46 04	 mov	 eax, DWORD PTR [esi+4]
  000f7	89 3c 01	 mov	 DWORD PTR [ecx+eax], edi
$LN7@SetAt:

; 1350 : 	{ (*this)[key] = newValue; }

  000fa	8b 45 0c	 mov	 eax, DWORD PTR _newValue$[ebp]
  000fd	89 47 04	 mov	 DWORD PTR [edi+4], eax
  00100	5f		 pop	 edi
  00101	5e		 pop	 esi
  00102	8b e5		 mov	 esp, ebp
  00104	5d		 pop	 ebp
  00105	c2 08 00	 ret	 8
$LN41@SetAt:

; 1495 : 	ENSURE(m_pFreeList != NULL);  // we must have something

  00108	e8 00 00 00 00	 call	 ?AfxThrowInvalidArgException@@YGXXZ ; AfxThrowInvalidArgException
$LN42@SetAt:
  0010d	cc		 int	 3
?SetAt@?$CMap@V?$CStringT@DV?$StrTraitMFC_DLL@DV?$ChTraitsCRT@D@ATL@@@@@ATL@@PBDHH@@QAEXPBDH@Z ENDP ; CMap<ATL::CStringT<char,StrTraitMFC_DLL<char,ATL::ChTraitsCRT<char> > >,char const *,int,int>::SetAt
_TEXT	ENDS
; Function compile flags: /Ogtp
; File C:\Program Files (x86)\Microsoft Visual Studio\2019\Community\VC\Tools\MSVC\14.29.30133\atlmfc\include\afxtempl.h
;	COMDAT ??A?$CMap@V?$CStringT@DV?$StrTraitMFC_DLL@DV?$ChTraitsCRT@D@ATL@@@@@ATL@@PBDHH@@QAEAAHPBD@Z
_TEXT	SEGMENT
_nHashBucket$ = -8					; size = 4
_nHashValue$ = -4					; size = 4
_key$ = 8						; size = 4
??A?$CMap@V?$CStringT@DV?$StrTraitMFC_DLL@DV?$ChTraitsCRT@D@ATL@@@@@ATL@@PBDHH@@QAEAAHPBD@Z PROC ; CMap<ATL::CStringT<char,StrTraitMFC_DLL<char,ATL::ChTraitsCRT<char> > >,char const *,int,int>::operator[], COMDAT
; _this$ = ecx

; 1585 : {

  00000	55		 push	 ebp
  00001	8b ec		 mov	 ebp, esp
  00003	83 ec 08	 sub	 esp, 8

; 1586 : 	ASSERT_VALID(this);
; 1587 : 
; 1588 : 	UINT nHashBucket, nHashValue;
; 1589 : 	CAssoc* pAssoc;
; 1590 : 	if ((pAssoc = GetAssocAt(key, nHashBucket, nHashValue)) == NULL)

  00006	8d 45 fc	 lea	 eax, DWORD PTR _nHashValue$[ebp]
  00009	56		 push	 esi
  0000a	57		 push	 edi
  0000b	50		 push	 eax
  0000c	8d 45 f8	 lea	 eax, DWORD PTR _nHashBucket$[ebp]
  0000f	8b f1		 mov	 esi, ecx
  00011	50		 push	 eax
  00012	ff 75 08	 push	 DWORD PTR _key$[ebp]
  00015	e8 00 00 00 00	 call	 ?GetAssocAt@?$CMap@V?$CStringT@DV?$StrTraitMFC_DLL@DV?$ChTraitsCRT@D@ATL@@@@@ATL@@PBDHH@@IBEPAVCAssoc@1@PBDAAI1@Z ; CMap<ATL::CStringT<char,StrTraitMFC_DLL<char,ATL::ChTraitsCRT<char> > >,char const *,int,int>::GetAssocAt
  0001a	8b f8		 mov	 edi, eax
  0001c	85 ff		 test	 edi, edi
  0001e	0f 85 d6 00 00
	00		 jne	 $LN5@operator

; 1591 : 	{
; 1592 : 		if (m_pHashTable == NULL)

  00024	8b 46 04	 mov	 eax, DWORD PTR [esi+4]
  00027	85 c0		 test	 eax, eax
  00029	75 4a		 jne	 SHORT $LN41@operator

; 1593 : 			InitHashTable(m_nHashTableSize);

  0002b	8b 7e 08	 mov	 edi, DWORD PTR [esi+8]

; 1434 : 		m_pHashTable = new CAssoc* [nHashSize];

  0002e	33 c9		 xor	 ecx, ecx
  00030	8b c7		 mov	 eax, edi
  00032	ba 04 00 00 00	 mov	 edx, 4
  00037	f7 e2		 mul	 edx
  00039	0f 90 c1	 seto	 cl
  0003c	f7 d9		 neg	 ecx
  0003e	0b c8		 or	 ecx, eax
  00040	51		 push	 ecx
  00041	e8 00 00 00 00	 call	 ??_U@YAPAXI@Z		; operator new[]
  00046	83 c4 04	 add	 esp, 4
  00049	89 46 04	 mov	 DWORD PTR [esi+4], eax

; 1435 : 		ENSURE(m_pHashTable != NULL);

  0004c	85 c0		 test	 eax, eax
  0004e	0f 84 b1 00 00
	00		 je	 $LN38@operator

; 1436 : 		memset(m_pHashTable, 0, sizeof(CAssoc*) * nHashSize);

  00054	8d 0c bd 00 00
	00 00		 lea	 ecx, DWORD PTR [edi*4]
  0005b	51		 push	 ecx
  0005c	6a 00		 push	 0
  0005e	50		 push	 eax
  0005f	e8 00 00 00 00	 call	 _memset

; 1437 : 	}
; 1438 : 	m_nHashTableSize = nHashSize;

  00064	8b 46 04	 mov	 eax, DWORD PTR [esi+4]
  00067	83 c4 0c	 add	 esp, 12			; 0000000cH
  0006a	89 7e 08	 mov	 DWORD PTR [esi+8], edi

; 1594 : 
; 1595 : 		ENSURE(m_pHashTable);

  0006d	85 c0		 test	 eax, eax
  0006f	0f 84 90 00 00
	00		 je	 $LN38@operator
$LN41@operator:

; 1481 : 	if (m_pFreeList == NULL)

  00075	83 7e 10 00	 cmp	 DWORD PTR [esi+16], 0
  00079	75 36		 jne	 SHORT $LN24@operator

; 1482 : 	{
; 1483 : 		// add another block
; 1484 : 		CPlex* newBlock = CPlex::Create(m_pBlocks, m_nBlockSize, sizeof(CMap::CAssoc));

  0007b	6a 10		 push	 16			; 00000010H
  0007d	ff 76 18	 push	 DWORD PTR [esi+24]
  00080	8d 46 14	 lea	 eax, DWORD PTR [esi+20]
  00083	50		 push	 eax
  00084	e8 00 00 00 00	 call	 ?Create@CPlex@@SGPAU1@AAPAU1@II@Z ; CPlex::Create

; 1485 : 		// chain them into free list
; 1486 : 		CMap::CAssoc* pAssoc = (CMap::CAssoc*) newBlock->data();
; 1487 : 		// free in reverse order to make it easier to debug
; 1488 : 		pAssoc += m_nBlockSize - 1;

  00089	8b 56 18	 mov	 edx, DWORD PTR [esi+24]
  0008c	83 c0 08	 add	 eax, 8
  0008f	8b ca		 mov	 ecx, edx
  00091	c1 e1 04	 shl	 ecx, 4
  00094	83 c1 f0	 add	 ecx, -16		; fffffff0H
  00097	03 c8		 add	 ecx, eax

; 1489 : 		for (INT_PTR i = m_nBlockSize-1; i >= 0; i--, pAssoc--)

  00099	83 c2 ff	 add	 edx, -1
  0009c	78 13		 js	 SHORT $LN24@operator
  0009e	66 90		 npad	 2
$LL21@operator:

; 1490 : 		{
; 1491 : 			pAssoc->pNext = m_pFreeList;

  000a0	8b 46 10	 mov	 eax, DWORD PTR [esi+16]
  000a3	89 41 08	 mov	 DWORD PTR [ecx+8], eax

; 1492 : 			m_pFreeList = pAssoc;

  000a6	89 4e 10	 mov	 DWORD PTR [esi+16], ecx
  000a9	83 e9 10	 sub	 ecx, 16			; 00000010H
  000ac	83 ea 01	 sub	 edx, 1
  000af	79 ef		 jns	 SHORT $LL21@operator
$LN24@operator:

; 1493 : 		}
; 1494 : 	}
; 1495 : 	ENSURE(m_pFreeList != NULL);  // we must have something

  000b1	8b 7e 10	 mov	 edi, DWORD PTR [esi+16]
  000b4	85 ff		 test	 edi, edi
  000b6	74 4d		 je	 SHORT $LN38@operator

; 1496 : 
; 1497 : 	CMap::CAssoc* pAssoc = m_pFreeList;
; 1498 : 
; 1499 : 	// zero the memory
; 1500 : 	CMap::CAssoc* pTemp = pAssoc->pNext;

  000b8	8b 47 08	 mov	 eax, DWORD PTR [edi+8]
  000bb	0f 57 c0	 xorps	 xmm0, xmm0

; 1256 : 		CPair( ARG_KEY keyval ) : key( keyval )	{}

  000be	ff 75 08	 push	 DWORD PTR _key$[ebp]

; 1501 : 	memset( pAssoc, 0, sizeof(CMap::CAssoc) );

  000c1	0f 11 07	 movups	 XMMWORD PTR [edi], xmm0

; 1502 : 	pAssoc->pNext = pTemp;

  000c4	89 47 08	 mov	 DWORD PTR [edi+8], eax

; 1256 : 		CPair( ARG_KEY keyval ) : key( keyval )	{}

  000c7	8b cf		 mov	 ecx, edi

; 1504 : 	m_pFreeList = m_pFreeList->pNext;

  000c9	8b 46 10	 mov	 eax, DWORD PTR [esi+16]
  000cc	8b 40 08	 mov	 eax, DWORD PTR [eax+8]

; 1505 : 	m_nCount++;

  000cf	ff 46 0c	 inc	 DWORD PTR [esi+12]
  000d2	89 46 10	 mov	 DWORD PTR [esi+16], eax

; 1256 : 		CPair( ARG_KEY keyval ) : key( keyval )	{}

  000d5	ff 15 00 00 00
	00		 call	 DWORD PTR __imp_??0?$CStringT@DV?$StrTraitMFC_DLL@DV?$ChTraitsCRT@D@ATL@@@@@ATL@@QAE@PBD@Z

; 1596 : 		// it doesn't exist, add a new Association
; 1597 : 		pAssoc = NewAssoc(key);
; 1598 : 		pAssoc->nHashValue = nHashValue;

  000db	8b 45 fc	 mov	 eax, DWORD PTR _nHashValue$[ebp]
  000de	89 47 0c	 mov	 DWORD PTR [edi+12], eax

; 1599 : 		//'pAssoc->value' is a constructed object, nothing more
; 1600 : 
; 1601 : 		// put into hash table
; 1602 : 		pAssoc->pNext = m_pHashTable[nHashBucket];

  000e1	8b 45 f8	 mov	 eax, DWORD PTR _nHashBucket$[ebp]
  000e4	8d 0c 85 00 00
	00 00		 lea	 ecx, DWORD PTR [eax*4]
  000eb	8b 46 04	 mov	 eax, DWORD PTR [esi+4]
  000ee	8b 04 01	 mov	 eax, DWORD PTR [ecx+eax]
  000f1	89 47 08	 mov	 DWORD PTR [edi+8], eax

; 1603 : 		m_pHashTable[nHashBucket] = pAssoc;

  000f4	8b 46 04	 mov	 eax, DWORD PTR [esi+4]
  000f7	89 3c 01	 mov	 DWORD PTR [ecx+eax], edi
$LN5@operator:

; 1604 : 	}
; 1605 : 	return pAssoc->value;  // return new reference

  000fa	8d 47 04	 lea	 eax, DWORD PTR [edi+4]
  000fd	5f		 pop	 edi
  000fe	5e		 pop	 esi

; 1606 : }

  000ff	8b e5		 mov	 esp, ebp
  00101	5d		 pop	 ebp
  00102	c2 04 00	 ret	 4
$LN38@operator:

; 1495 : 	ENSURE(m_pFreeList != NULL);  // we must have something

  00105	e8 00 00 00 00	 call	 ?AfxThrowInvalidArgException@@YGXXZ ; AfxThrowInvalidArgException
$LN39@operator:
  0010a	cc		 int	 3
??A?$CMap@V?$CStringT@DV?$StrTraitMFC_DLL@DV?$ChTraitsCRT@D@ATL@@@@@ATL@@PBDHH@@QAEAAHPBD@Z ENDP ; CMap<ATL::CStringT<char,StrTraitMFC_DLL<char,ATL::ChTraitsCRT<char> > >,char const *,int,int>::operator[]
_TEXT	ENDS
; Function compile flags: /Ogtp
; File C:\Program Files (x86)\Microsoft Visual Studio\2019\Community\VC\Tools\MSVC\14.29.30133\atlmfc\include\afxtempl.h
;	COMDAT ?Lookup@?$CMap@V?$CStringT@DV?$StrTraitMFC_DLL@DV?$ChTraitsCRT@D@ATL@@@@@ATL@@PBDHH@@QBEHPBDAAH@Z
_TEXT	SEGMENT
_nHashBucket$ = -8					; size = 4
_nHashValue$ = -4					; size = 4
_key$ = 8						; size = 4
_rValue$ = 12						; size = 4
?Lookup@?$CMap@V?$CStringT@DV?$StrTraitMFC_DLL@DV?$ChTraitsCRT@D@ATL@@@@@ATL@@PBDHH@@QBEHPBDAAH@Z PROC ; CMap<ATL::CStringT<char,StrTraitMFC_DLL<char,ATL::ChTraitsCRT<char> > >,char const *,int,int>::Lookup, COMDAT
; _this$ = ecx

; 1551 : {

  00000	55		 push	 ebp
  00001	8b ec		 mov	 ebp, esp
  00003	83 ec 08	 sub	 esp, 8

; 1552 : 	ASSERT_VALID(this);
; 1553 : 
; 1554 : 	UINT nHashBucket, nHashValue;
; 1555 : 	CAssoc* pAssoc = GetAssocAt(key, nHashBucket, nHashValue);

  00006	8d 45 fc	 lea	 eax, DWORD PTR _nHashValue$[ebp]
  00009	50		 push	 eax
  0000a	8d 45 f8	 lea	 eax, DWORD PTR _nHashBucket$[ebp]
  0000d	50		 push	 eax
  0000e	ff 75 08	 push	 DWORD PTR _key$[ebp]
  00011	e8 00 00 00 00	 call	 ?GetAssocAt@?$CMap@V?$CStringT@DV?$StrTraitMFC_DLL@DV?$ChTraitsCRT@D@ATL@@@@@ATL@@PBDHH@@IBEPAVCAssoc@1@PBDAAI1@Z ; CMap<ATL::CStringT<char,StrTraitMFC_DLL<char,ATL::ChTraitsCRT<char> > >,char const *,int,int>::GetAssocAt

; 1556 : 	if (pAssoc == NULL)

  00016	85 c0		 test	 eax, eax
  00018	75 06		 jne	 SHORT $LN2@Lookup

; 1561 : }

  0001a	8b e5		 mov	 esp, ebp
  0001c	5d		 pop	 ebp
  0001d	c2 08 00	 ret	 8
$LN2@Lookup:

; 1557 : 		return FALSE;  // not in map
; 1558 : 
; 1559 : 	rValue = pAssoc->value;

  00020	8b 48 04	 mov	 ecx, DWORD PTR [eax+4]
  00023	8b 45 0c	 mov	 eax, DWORD PTR _rValue$[ebp]
  00026	89 08		 mov	 DWORD PTR [eax], ecx

; 1560 : 	return TRUE;

  00028	b8 01 00 00 00	 mov	 eax, 1

; 1561 : }

  0002d	8b e5		 mov	 esp, ebp
  0002f	5d		 pop	 ebp
  00030	c2 08 00	 ret	 8
?Lookup@?$CMap@V?$CStringT@DV?$StrTraitMFC_DLL@DV?$ChTraitsCRT@D@ATL@@@@@ATL@@PBDHH@@QBEHPBDAAH@Z ENDP ; CMap<ATL::CStringT<char,StrTraitMFC_DLL<char,ATL::ChTraitsCRT<char> > >,char const *,int,int>::Lookup
_TEXT	ENDS
; Function compile flags: /Ogtp
; File C:\Program Files (x86)\Microsoft Visual Studio\2019\Community\VC\Tools\MSVC\14.29.30133\atlmfc\include\afxtempl.h
;	COMDAT ??0?$CMap@V?$CStringT@DV?$StrTraitMFC_DLL@DV?$ChTraitsCRT@D@ATL@@@@@ATL@@PBDHH@@QAE@H@Z
_TEXT	SEGMENT
_nBlockSize$ = 8					; size = 4
??0?$CMap@V?$CStringT@DV?$StrTraitMFC_DLL@DV?$ChTraitsCRT@D@ATL@@@@@ATL@@PBDHH@@QAE@H@Z PROC ; CMap<ATL::CStringT<char,StrTraitMFC_DLL<char,ATL::ChTraitsCRT<char> > >,char const *,int,int>::CMap<ATL::CStringT<char,StrTraitMFC_DLL<char,ATL::ChTraitsCRT<char> > >,char const *,int,int>, COMDAT
; _this$ = ecx

; 1403 : {

  00000	55		 push	 ebp
  00001	8b ec		 mov	 ebp, esp

; 1404 : 	ASSERT(nBlockSize > 0);
; 1405 : 
; 1406 : 	m_pHashTable = NULL;
; 1407 : 	m_nHashTableSize = 17;  // default size
; 1408 : 	m_nCount = 0;
; 1409 : 	m_pFreeList = NULL;
; 1410 : 	m_pBlocks = NULL;
; 1411 : 	m_nBlockSize = nBlockSize;

  00003	8b 45 08	 mov	 eax, DWORD PTR _nBlockSize$[ebp]
  00006	89 41 18	 mov	 DWORD PTR [ecx+24], eax

; 1412 : }

  00009	8b c1		 mov	 eax, ecx
  0000b	c7 01 00 00 00
	00		 mov	 DWORD PTR [ecx], OFFSET ??_7?$CMap@V?$CStringT@DV?$StrTraitMFC_DLL@DV?$ChTraitsCRT@D@ATL@@@@@ATL@@PBDHH@@6B@
  00011	c7 41 04 00 00
	00 00		 mov	 DWORD PTR [ecx+4], 0
  00018	c7 41 08 11 00
	00 00		 mov	 DWORD PTR [ecx+8], 17	; 00000011H
  0001f	c7 41 0c 00 00
	00 00		 mov	 DWORD PTR [ecx+12], 0
  00026	c7 41 10 00 00
	00 00		 mov	 DWORD PTR [ecx+16], 0
  0002d	c7 41 14 00 00
	00 00		 mov	 DWORD PTR [ecx+20], 0
  00034	5d		 pop	 ebp
  00035	c2 04 00	 ret	 4
??0?$CMap@V?$CStringT@DV?$StrTraitMFC_DLL@DV?$ChTraitsCRT@D@ATL@@@@@ATL@@PBDHH@@QAE@H@Z ENDP ; CMap<ATL::CStringT<char,StrTraitMFC_DLL<char,ATL::ChTraitsCRT<char> > >,char const *,int,int>::CMap<ATL::CStringT<char,StrTraitMFC_DLL<char,ATL::ChTraitsCRT<char> > >,char const *,int,int>
_TEXT	ENDS
; Function compile flags: /Ogtp
; File D:\git\src\IBK\IBK_DRFN\ProjSrc\SrcDrfn\DrCommon\PartnerMng\_PartnerManager.cpp
; File C:\Program Files (x86)\Microsoft Visual Studio\2019\Community\VC\Tools\MSVC\14.29.30133\atlmfc\include\atltime.h
; File D:\git\src\IBK\IBK_DRFN\ProjSrc\SrcDrfn\DrCommon\PartnerMng\_PartnerManager.cpp
; File C:\Program Files (x86)\Microsoft Visual Studio\2019\Community\VC\Tools\MSVC\14.29.30133\atlmfc\include\atltime.h
; File D:\git\src\IBK\IBK_DRFN\ProjSrc\SrcDrfn\DrCommon\PartnerMng\_PartnerManager.cpp
; File C:\Program Files (x86)\Microsoft Visual Studio\2019\Community\VC\Tools\MSVC\14.29.30133\atlmfc\include\atltime.h
; File D:\git\src\IBK\IBK_DRFN\ProjSrc\SrcDrfn\DrCommon\PartnerMng\_PartnerManager.cpp
; File C:\Program Files (x86)\Microsoft Visual Studio\2019\Community\VC\Tools\MSVC\14.29.30133\atlmfc\include\atltime.h
; File D:\git\src\IBK\IBK_DRFN\ProjSrc\SrcDrfn\DrCommon\PartnerMng\_PartnerManager.cpp
;	COMDAT ?_DoPreReceiveData@CPartnerManager@@IAEXPBDPAEH@Z
_TEXT	SEGMENT
_tm$ = -160						; size = 8
_pData$GSCopy$1$ = -152					; size = 4
_szIni$ = -148						; size = 4
_szKey$ = -144						; size = 4
_szDataDir$ = -140					; size = 4
$T2 = -136						; size = 4
_szFile$3 = -136					; size = 4
_szData$4 = -136					; size = 4
_ptmTemp$5 = -132					; size = 36
_ptmTemp$6 = -96					; size = 36
_ptmTemp$7 = -60					; size = 36
_buf$8 = -24						; size = 8
_szFile$9 = -20						; size = 4
__$ArrayPad$ = -16					; size = 4
__$EHRec$ = -12						; size = 12
_szTRKey$ = 8						; size = 4
_pData$ = 12						; size = 4
_nSize$ = 16						; size = 4
?_DoPreReceiveData@CPartnerManager@@IAEXPBDPAEH@Z PROC	; CPartnerManager::_DoPreReceiveData, COMDAT
; _this$ = ecx

; 1189 : {

  00000	55		 push	 ebp
  00001	8b ec		 mov	 ebp, esp
  00003	6a ff		 push	 -1
  00005	68 00 00 00 00	 push	 __ehhandler$?_DoPreReceiveData@CPartnerManager@@IAEXPBDPAEH@Z
  0000a	64 a1 00 00 00
	00		 mov	 eax, DWORD PTR fs:0
  00010	50		 push	 eax
  00011	81 ec 94 00 00
	00		 sub	 esp, 148		; 00000094H
  00017	a1 00 00 00 00	 mov	 eax, DWORD PTR ___security_cookie
  0001c	33 c5		 xor	 eax, ebp
  0001e	89 45 f0	 mov	 DWORD PTR __$ArrayPad$[ebp], eax
  00021	53		 push	 ebx
  00022	56		 push	 esi
  00023	57		 push	 edi
  00024	50		 push	 eax
  00025	8d 45 f4	 lea	 eax, DWORD PTR __$EHRec$[ebp]
  00028	64 a3 00 00 00
	00		 mov	 DWORD PTR fs:0, eax
  0002e	8b 45 0c	 mov	 eax, DWORD PTR _pData$[ebp]

; 1190 : 	if( strcmp(szTRKey, QUERY_STRDOLLAR)!=0 &&
; 1191 : 		strcmp(szTRKey, TRNO_WORKDATE)!=0 &&

  00031	b9 00 00 00 00	 mov	 ecx, OFFSET ??_C@_05IDAEEJNL@d1018@
  00036	8b 7d 08	 mov	 edi, DWORD PTR _szTRKey$[ebp]
  00039	89 85 68 ff ff
	ff		 mov	 DWORD PTR _pData$GSCopy$1$[ebp], eax
  0003f	8b c7		 mov	 eax, edi
$LL88@DoPreRecei:
  00041	8a 10		 mov	 dl, BYTE PTR [eax]
  00043	3a 11		 cmp	 dl, BYTE PTR [ecx]
  00045	75 1a		 jne	 SHORT $LN89@DoPreRecei
  00047	84 d2		 test	 dl, dl
  00049	74 12		 je	 SHORT $LN90@DoPreRecei
  0004b	8a 50 01	 mov	 dl, BYTE PTR [eax+1]
  0004e	3a 51 01	 cmp	 dl, BYTE PTR [ecx+1]
  00051	75 0e		 jne	 SHORT $LN89@DoPreRecei
  00053	83 c0 02	 add	 eax, 2
  00056	83 c1 02	 add	 ecx, 2
  00059	84 d2		 test	 dl, dl
  0005b	75 e4		 jne	 SHORT $LL88@DoPreRecei
$LN90@DoPreRecei:
  0005d	33 c0		 xor	 eax, eax
  0005f	eb 05		 jmp	 SHORT $LN91@DoPreRecei
$LN89@DoPreRecei:
  00061	1b c0		 sbb	 eax, eax
  00063	83 c8 01	 or	 eax, 1
$LN91@DoPreRecei:
  00066	85 c0		 test	 eax, eax
  00068	74 64		 je	 SHORT $LN2@DoPreRecei
  0006a	b9 00 00 00 00	 mov	 ecx, OFFSET ??_C@_08IOMDFAIH@pijs0111@
  0006f	8b c7		 mov	 eax, edi
$LL92@DoPreRecei:
  00071	8a 10		 mov	 dl, BYTE PTR [eax]
  00073	3a 11		 cmp	 dl, BYTE PTR [ecx]
  00075	75 1a		 jne	 SHORT $LN93@DoPreRecei
  00077	84 d2		 test	 dl, dl
  00079	74 12		 je	 SHORT $LN94@DoPreRecei
  0007b	8a 50 01	 mov	 dl, BYTE PTR [eax+1]
  0007e	3a 51 01	 cmp	 dl, BYTE PTR [ecx+1]
  00081	75 0e		 jne	 SHORT $LN93@DoPreRecei
  00083	83 c0 02	 add	 eax, 2
  00086	83 c1 02	 add	 ecx, 2
  00089	84 d2		 test	 dl, dl
  0008b	75 e4		 jne	 SHORT $LL92@DoPreRecei
$LN94@DoPreRecei:
  0008d	33 c0		 xor	 eax, eax
  0008f	eb 05		 jmp	 SHORT $LN95@DoPreRecei
$LN93@DoPreRecei:
  00091	1b c0		 sbb	 eax, eax
  00093	83 c8 01	 or	 eax, 1
$LN95@DoPreRecei:
  00096	85 c0		 test	 eax, eax
  00098	74 34		 je	 SHORT $LN2@DoPreRecei
  0009a	b9 00 00 00 00	 mov	 ecx, OFFSET ??_C@_08KFOOADEE@pijs0112@
  0009f	8b c7		 mov	 eax, edi
$LL96@DoPreRecei:
  000a1	8a 10		 mov	 dl, BYTE PTR [eax]
  000a3	3a 11		 cmp	 dl, BYTE PTR [ecx]
  000a5	75 1a		 jne	 SHORT $LN97@DoPreRecei
  000a7	84 d2		 test	 dl, dl
  000a9	74 12		 je	 SHORT $LN98@DoPreRecei
  000ab	8a 50 01	 mov	 dl, BYTE PTR [eax+1]
  000ae	3a 51 01	 cmp	 dl, BYTE PTR [ecx+1]
  000b1	75 0e		 jne	 SHORT $LN97@DoPreRecei
  000b3	83 c0 02	 add	 eax, 2
  000b6	83 c1 02	 add	 ecx, 2
  000b9	84 d2		 test	 dl, dl
  000bb	75 e4		 jne	 SHORT $LL96@DoPreRecei
$LN98@DoPreRecei:
  000bd	33 c0		 xor	 eax, eax
  000bf	eb 05		 jmp	 SHORT $LN99@DoPreRecei
$LN97@DoPreRecei:
  000c1	1b c0		 sbb	 eax, eax
  000c3	83 c8 01	 or	 eax, 1
$LN99@DoPreRecei:
  000c6	85 c0		 test	 eax, eax
  000c8	0f 85 3b 03 00
	00		 jne	 $LN1@DoPreRecei
$LN2@DoPreRecei:

; 1192 : 		strcmp(szTRKey, TRNO_MSTCODE) !=0 )
; 1193 : 		return;
; 1194 : 
; 1195 : 	IMainInfoManagerLast* pMng = (IMainInfoManagerLast*)AfxGetPctrInterface(UUID_IMainInfoManager);

  000ce	6a 15		 push	 21			; 00000015H
  000d0	e8 00 00 00 00	 call	 ?AfxGetPctrInterface@@YGJH@Z ; AfxGetPctrInterface

; 1196 : 	
; 1197 : 	CString szDataDir;

  000d5	8d 8d 74 ff ff
	ff		 lea	 ecx, DWORD PTR _szDataDir$[ebp]
  000db	8b f0		 mov	 esi, eax
  000dd	ff 15 00 00 00
	00		 call	 DWORD PTR __imp_??0?$CStringT@DV?$StrTraitMFC_DLL@DV?$ChTraitsCRT@D@ATL@@@@@ATL@@QAE@XZ

; 1198 : //	szDataDir.Format("%s\\icss\\%s", pMng->GetDataDir(), gszCacheDir);
; 1199 : 	szDataDir.Format("%s\\FindData\\%s", pMng->GetDataDir(), gszCacheDir);

  000e3	8b 0e		 mov	 ecx, DWORD PTR [esi]
  000e5	68 00 00 00 00	 push	 OFFSET ??_C@_07OIGEDBEL@drcache@
  000ea	56		 push	 esi
  000eb	c7 45 fc 00 00
	00 00		 mov	 DWORD PTR __$EHRec$[ebp+8], 0
  000f2	ff 51 14	 call	 DWORD PTR [ecx+20]
  000f5	8b 1d 00 00 00
	00		 mov	 ebx, DWORD PTR __imp_?Format@?$CStringT@DV?$StrTraitMFC_DLL@DV?$ChTraitsCRT@D@ATL@@@@@ATL@@QAAXPBDZZ
  000fb	50		 push	 eax
  000fc	8d 85 74 ff ff
	ff		 lea	 eax, DWORD PTR _szDataDir$[ebp]
  00102	68 00 00 00 00	 push	 OFFSET ??_C@_0P@KDIOLOJH@?$CFs?2FindData?2?$CFs@
  00107	50		 push	 eax
  00108	ff d3		 call	 ebx
  0010a	83 c4 10	 add	 esp, 16			; 00000010H

; 1200 : 	
; 1201 : 	CString szIni;

  0010d	8d 8d 6c ff ff
	ff		 lea	 ecx, DWORD PTR _szIni$[ebp]
  00113	ff 15 00 00 00
	00		 call	 DWORD PTR __imp_??0?$CStringT@DV?$StrTraitMFC_DLL@DV?$ChTraitsCRT@D@ATL@@@@@ATL@@QAE@XZ

; 1202 : 	szIni.Format("%s\\%s", szDataDir, "RequestToday.ini");

  00119	68 00 00 00 00	 push	 OFFSET ??_C@_0BB@JMHKDHLP@RequestToday?4ini@
  0011e	ff b5 74 ff ff
	ff		 push	 DWORD PTR _szDataDir$[ebp]
  00124	8d 85 6c ff ff
	ff		 lea	 eax, DWORD PTR _szIni$[ebp]
  0012a	c6 45 fc 01	 mov	 BYTE PTR __$EHRec$[ebp+8], 1
  0012e	68 00 00 00 00	 push	 OFFSET ??_C@_05BMGBEOOC@?$CFs?2?$CFs@
  00133	50		 push	 eax
  00134	ff d3		 call	 ebx
; File C:\Program Files (x86)\Microsoft Visual Studio\2019\Community\VC\Tools\MSVC\14.29.30133\atlmfc\include\atltime.h

; 374  : 	return( CTime( ::_time64( NULL ) ) );

  00136	6a 00		 push	 0
  00138	ff 15 00 00 00
	00		 call	 DWORD PTR __imp___time64
  0013e	83 c4 14	 add	 esp, 20			; 00000014H

; 417  : 	m_time( time )

  00141	89 85 60 ff ff
	ff		 mov	 DWORD PTR _tm$[ebp], eax
; File D:\git\src\IBK\IBK_DRFN\ProjSrc\SrcDrfn\DrCommon\PartnerMng\_PartnerManager.cpp

; 1205 : 	CString szKey;

  00147	8d 8d 70 ff ff
	ff		 lea	 ecx, DWORD PTR _szKey$[ebp]
; File C:\Program Files (x86)\Microsoft Visual Studio\2019\Community\VC\Tools\MSVC\14.29.30133\atlmfc\include\atltime.h

; 417  : 	m_time( time )

  0014d	89 95 64 ff ff
	ff		 mov	 DWORD PTR _tm$[ebp+4], edx
; File D:\git\src\IBK\IBK_DRFN\ProjSrc\SrcDrfn\DrCommon\PartnerMng\_PartnerManager.cpp

; 1205 : 	CString szKey;

  00153	ff 15 00 00 00
	00		 call	 DWORD PTR __imp_??0?$CStringT@DV?$StrTraitMFC_DLL@DV?$ChTraitsCRT@D@ATL@@@@@ATL@@QAE@XZ
; File C:\Program Files (x86)\Microsoft Visual Studio\2019\Community\VC\Tools\MSVC\14.29.30133\atlmfc\include\atltime.h

; 614  : 		errno_t err = _localtime64_s(&ptmTemp, &m_time);

  00159	8b 35 00 00 00
	00		 mov	 esi, DWORD PTR __imp___localtime64_s
  0015f	8d 85 60 ff ff
	ff		 lea	 eax, DWORD PTR _tm$[ebp]
  00165	50		 push	 eax
  00166	8d 45 c4	 lea	 eax, DWORD PTR _ptmTemp$7[ebp]
; File D:\git\src\IBK\IBK_DRFN\ProjSrc\SrcDrfn\DrCommon\PartnerMng\_PartnerManager.cpp

; 1205 : 	CString szKey;

  00169	c6 45 fc 02	 mov	 BYTE PTR __$EHRec$[ebp+8], 2
; File C:\Program Files (x86)\Microsoft Visual Studio\2019\Community\VC\Tools\MSVC\14.29.30133\atlmfc\include\atltime.h

; 614  : 		errno_t err = _localtime64_s(&ptmTemp, &m_time);

  0016d	50		 push	 eax
  0016e	ff d6		 call	 esi

; 615  : 
; 616  : 		if (err != 0)

  00170	33 c9		 xor	 ecx, ecx
  00172	85 c0		 test	 eax, eax

; 614  : 		errno_t err = _localtime64_s(&ptmTemp, &m_time);

  00174	8d 85 60 ff ff
	ff		 lea	 eax, DWORD PTR _tm$[ebp]

; 616  : 		if (err != 0)

  0017a	0f 44 4d d0	 cmove	 ecx, DWORD PTR _ptmTemp$7[ebp+12]

; 614  : 		errno_t err = _localtime64_s(&ptmTemp, &m_time);

  0017e	50		 push	 eax
  0017f	8d 45 a0	 lea	 eax, DWORD PTR _ptmTemp$6[ebp]

; 616  : 		if (err != 0)

  00182	89 8d 78 ff ff
	ff		 mov	 DWORD PTR $T2[ebp], ecx

; 614  : 		errno_t err = _localtime64_s(&ptmTemp, &m_time);

  00188	50		 push	 eax
  00189	ff d6		 call	 esi
  0018b	83 c4 10	 add	 esp, 16			; 00000010H

; 615  : 
; 616  : 		if (err != 0)

  0018e	85 c0		 test	 eax, eax
  00190	75 06		 jne	 SHORT $LN41@DoPreRecei

; 671  : 	return ptm ? ptm->tm_mon + 1 : 0;

  00192	8b 75 b0	 mov	 esi, DWORD PTR _ptmTemp$6[ebp+16]
  00195	46		 inc	 esi
  00196	eb 02		 jmp	 SHORT $LN42@DoPreRecei
$LN41@DoPreRecei:
  00198	33 f6		 xor	 esi, esi
$LN42@DoPreRecei:

; 614  : 		errno_t err = _localtime64_s(&ptmTemp, &m_time);

  0019a	8d 85 60 ff ff
	ff		 lea	 eax, DWORD PTR _tm$[ebp]
  001a0	50		 push	 eax
  001a1	8d 85 7c ff ff
	ff		 lea	 eax, DWORD PTR _ptmTemp$5[ebp]
  001a7	50		 push	 eax
  001a8	ff 15 00 00 00
	00		 call	 DWORD PTR __imp___localtime64_s
  001ae	83 c4 08	 add	 esp, 8

; 615  : 
; 616  : 		if (err != 0)

  001b1	85 c0		 test	 eax, eax
  001b3	75 0a		 jne	 SHORT $LN57@DoPreRecei

; 662  : 	return ptm ? (ptm->tm_year) + 1900 : 0 ;

  001b5	8b 45 90	 mov	 eax, DWORD PTR _ptmTemp$5[ebp+20]
  001b8	05 6c 07 00 00	 add	 eax, 1900		; 0000076cH
  001bd	eb 02		 jmp	 SHORT $LN58@DoPreRecei
$LN57@DoPreRecei:
  001bf	33 c0		 xor	 eax, eax
$LN58@DoPreRecei:
; File D:\git\src\IBK\IBK_DRFN\ProjSrc\SrcDrfn\DrCommon\PartnerMng\_PartnerManager.cpp

; 1206 : 	szKey.Format("%04d%02d%02d", tm.GetYear(), tm.GetMonth(), tm.GetDay());

  001c1	ff b5 78 ff ff
	ff		 push	 DWORD PTR $T2[ebp]
  001c7	56		 push	 esi
  001c8	50		 push	 eax
  001c9	8d 85 70 ff ff
	ff		 lea	 eax, DWORD PTR _szKey$[ebp]
  001cf	68 00 00 00 00	 push	 OFFSET ??_C@_0N@DEAKEBCF@?$CF04d?$CF02d?$CF02d@
  001d4	50		 push	 eax
  001d5	ff d3		 call	 ebx
  001d7	83 c4 14	 add	 esp, 20			; 00000014H

; 1207 : 
; 1208 : 	if(strcmp(szTRKey, QUERY_STRDOLLAR)==0)

  001da	b9 00 00 00 00	 mov	 ecx, OFFSET ??_C@_05IDAEEJNL@d1018@
  001df	8b c7		 mov	 eax, edi
$LL100@DoPreRecei:
  001e1	8a 10		 mov	 dl, BYTE PTR [eax]
  001e3	3a 11		 cmp	 dl, BYTE PTR [ecx]
  001e5	75 1a		 jne	 SHORT $LN101@DoPreRecei
  001e7	84 d2		 test	 dl, dl
  001e9	74 12		 je	 SHORT $LN102@DoPreRecei
  001eb	8a 50 01	 mov	 dl, BYTE PTR [eax+1]
  001ee	3a 51 01	 cmp	 dl, BYTE PTR [ecx+1]
  001f1	75 0e		 jne	 SHORT $LN101@DoPreRecei
  001f3	83 c0 02	 add	 eax, 2
  001f6	83 c1 02	 add	 ecx, 2
  001f9	84 d2		 test	 dl, dl
  001fb	75 e4		 jne	 SHORT $LL100@DoPreRecei
$LN102@DoPreRecei:
  001fd	33 c0		 xor	 eax, eax
  001ff	eb 05		 jmp	 SHORT $LN103@DoPreRecei
$LN101@DoPreRecei:
  00201	1b c0		 sbb	 eax, eax
  00203	83 c8 01	 or	 eax, 1
$LN103@DoPreRecei:
  00206	85 c0		 test	 eax, eax
  00208	0f 84 d7 01 00
	00		 je	 $LN9@DoPreRecei

; 1209 : 	{
; 1210 : 	}
; 1211 : 	else if(strcmp(szTRKey, TRNO_WORKDATE)==0)

  0020e	b9 00 00 00 00	 mov	 ecx, OFFSET ??_C@_08IOMDFAIH@pijs0111@
  00213	8b c7		 mov	 eax, edi
$LL104@DoPreRecei:
  00215	8a 10		 mov	 dl, BYTE PTR [eax]
  00217	3a 11		 cmp	 dl, BYTE PTR [ecx]
  00219	75 1a		 jne	 SHORT $LN105@DoPreRecei
  0021b	84 d2		 test	 dl, dl
  0021d	74 12		 je	 SHORT $LN106@DoPreRecei
  0021f	8a 50 01	 mov	 dl, BYTE PTR [eax+1]
  00222	3a 51 01	 cmp	 dl, BYTE PTR [ecx+1]
  00225	75 0e		 jne	 SHORT $LN105@DoPreRecei
  00227	83 c0 02	 add	 eax, 2
  0022a	83 c1 02	 add	 ecx, 2
  0022d	84 d2		 test	 dl, dl
  0022f	75 e4		 jne	 SHORT $LL104@DoPreRecei
$LN106@DoPreRecei:
  00231	33 c0		 xor	 eax, eax
  00233	eb 05		 jmp	 SHORT $LN107@DoPreRecei
$LN105@DoPreRecei:
  00235	1b c0		 sbb	 eax, eax
  00237	83 c8 01	 or	 eax, 1
$LN107@DoPreRecei:
  0023a	85 c0		 test	 eax, eax
  0023c	0f 85 cc 00 00
	00		 jne	 $LN5@DoPreRecei

; 1212 : 	{
; 1213 : 		IMainExInfoManagerLast* pMng = (IMainExInfoManagerLast*)AfxGetPctrInterface(UUID_IMainExInfoManager);

  00242	6a 16		 push	 22			; 00000016H
  00244	e8 00 00 00 00	 call	 ?AfxGetPctrInterface@@YGJH@Z ; AfxGetPctrInterface
  00249	8b f0		 mov	 esi, eax

; 1214 : 		if(pMng)

  0024b	85 f6		 test	 esi, esi
  0024d	0f 84 92 01 00
	00		 je	 $LN9@DoPreRecei

; 1215 : 		{
; 1216 : 			CString szData;

  00253	8d 8d 78 ff ff
	ff		 lea	 ecx, DWORD PTR _szData$4[ebp]
  00259	ff 15 00 00 00
	00		 call	 DWORD PTR __imp_??0?$CStringT@DV?$StrTraitMFC_DLL@DV?$ChTraitsCRT@D@ATL@@@@@ATL@@QAE@XZ

; 1217 : 			szData.Format("%-*.*s", nSize, nSize, pData);

  0025f	ff b5 68 ff ff
	ff		 push	 DWORD PTR _pData$GSCopy$1$[ebp]
  00265	8b 7d 10	 mov	 edi, DWORD PTR _nSize$[ebp]
  00268	8d 85 78 ff ff
	ff		 lea	 eax, DWORD PTR _szData$4[ebp]
  0026e	57		 push	 edi
  0026f	57		 push	 edi
  00270	68 00 00 00 00	 push	 OFFSET ??_C@_06LOHACGPJ@?$CF?9?$CK?4?$CKs@
  00275	50		 push	 eax
  00276	c6 45 fc 03	 mov	 BYTE PTR __$EHRec$[ebp+8], 3
  0027a	ff d3		 call	 ebx

; 1218 : 			pMng->SetUserStringData(gszDataKey_WorkDate, (LPSTR)(LPCSTR)szData);

  0027c	8b 06		 mov	 eax, DWORD PTR [esi]
  0027e	83 c4 14	 add	 esp, 20			; 00000014H
  00281	ff b5 78 ff ff
	ff		 push	 DWORD PTR _szData$4[ebp]
  00287	68 00 00 00 00	 push	 OFFSET ??_C@_08HKFBHKOD@WorkDate@
  0028c	56		 push	 esi
  0028d	ff 50 2c	 call	 DWORD PTR [eax+44]

; 1219 : 			
; 1220 : 			CString szFile;

  00290	8d 4d ec	 lea	 ecx, DWORD PTR _szFile$9[ebp]
  00293	ff 15 00 00 00
	00		 call	 DWORD PTR __imp_??0?$CStringT@DV?$StrTraitMFC_DLL@DV?$ChTraitsCRT@D@ATL@@@@@ATL@@QAE@XZ

; 1221 : 			szFile.Format("%s\\%s", szDataDir, "WorkDate.dat");

  00299	68 00 00 00 00	 push	 OFFSET ??_C@_0N@EGCPBLLD@WorkDate?4dat@
  0029e	ff b5 74 ff ff
	ff		 push	 DWORD PTR _szDataDir$[ebp]
  002a4	8d 45 ec	 lea	 eax, DWORD PTR _szFile$9[ebp]
  002a7	c6 45 fc 04	 mov	 BYTE PTR __$EHRec$[ebp+8], 4
  002ab	68 00 00 00 00	 push	 OFFSET ??_C@_05BMGBEOOC@?$CFs?2?$CFs@
  002b0	50		 push	 eax
  002b1	ff d3		 call	 ebx

; 1222 : 			
; 1223 : 			FILE* fp = fopen(szFile, "w");

  002b3	68 00 00 00 00	 push	 OFFSET ??_C@_01NOFIACDB@w@
  002b8	ff 75 ec	 push	 DWORD PTR _szFile$9[ebp]
  002bb	ff 15 00 00 00
	00		 call	 DWORD PTR __imp__fopen
  002c1	8b f0		 mov	 esi, eax
  002c3	83 c4 18	 add	 esp, 24			; 00000018H

; 1224 : 			if(fp)

  002c6	85 f6		 test	 esi, esi
  002c8	74 36		 je	 SHORT $LN8@DoPreRecei

; 1225 : 			{
; 1226 : 				fwrite(pData, 1, nSize, fp);

  002ca	56		 push	 esi
  002cb	57		 push	 edi
  002cc	6a 01		 push	 1
  002ce	ff b5 68 ff ff
	ff		 push	 DWORD PTR _pData$GSCopy$1$[ebp]
  002d4	ff 15 00 00 00
	00		 call	 DWORD PTR __imp__fwrite

; 1227 : 				fclose(fp);

  002da	56		 push	 esi
  002db	ff 15 00 00 00
	00		 call	 DWORD PTR __imp__fclose
  002e1	83 c4 14	 add	 esp, 20			; 00000014H

; 1228 : 				
; 1229 : 				::WritePrivateProfileString(gszDataKey_WorkDate, "Today", szKey, szIni);

  002e4	ff b5 6c ff ff
	ff		 push	 DWORD PTR _szIni$[ebp]
  002ea	ff b5 70 ff ff
	ff		 push	 DWORD PTR _szKey$[ebp]
  002f0	68 00 00 00 00	 push	 OFFSET ??_C@_05MBOMPHNN@Today@
  002f5	68 00 00 00 00	 push	 OFFSET ??_C@_08HKFBHKOD@WorkDate@
  002fa	ff 15 00 00 00
	00		 call	 DWORD PTR __imp__WritePrivateProfileStringA@16
$LN8@DoPreRecei:

; 1230 : 			}
; 1231 : 		}

  00300	8d 4d ec	 lea	 ecx, DWORD PTR _szFile$9[ebp]
  00303	ff 15 00 00 00
	00		 call	 DWORD PTR __imp_??1?$CStringT@DV?$StrTraitMFC_DLL@DV?$ChTraitsCRT@D@ATL@@@@@ATL@@QAE@XZ

; 1232 : 	}

  00309	e9 cb 00 00 00	 jmp	 $LN10@DoPreRecei
$LN5@DoPreRecei:

; 1233 : 	else if(strcmp(szTRKey, TRNO_MSTCODE)==0)

  0030e	b8 00 00 00 00	 mov	 eax, OFFSET ??_C@_08KFOOADEE@pijs0112@
$LL108@DoPreRecei:
  00313	8a 0f		 mov	 cl, BYTE PTR [edi]
  00315	3a 08		 cmp	 cl, BYTE PTR [eax]
  00317	75 1a		 jne	 SHORT $LN109@DoPreRecei
  00319	84 c9		 test	 cl, cl
  0031b	74 12		 je	 SHORT $LN110@DoPreRecei
  0031d	8a 4f 01	 mov	 cl, BYTE PTR [edi+1]
  00320	3a 48 01	 cmp	 cl, BYTE PTR [eax+1]
  00323	75 0e		 jne	 SHORT $LN109@DoPreRecei
  00325	83 c7 02	 add	 edi, 2
  00328	83 c0 02	 add	 eax, 2
  0032b	84 c9		 test	 cl, cl
  0032d	75 e4		 jne	 SHORT $LL108@DoPreRecei
$LN110@DoPreRecei:
  0032f	33 c0		 xor	 eax, eax
  00331	eb 05		 jmp	 SHORT $LN111@DoPreRecei
$LN109@DoPreRecei:
  00333	1b c0		 sbb	 eax, eax
  00335	83 c8 01	 or	 eax, 1
$LN111@DoPreRecei:
  00338	85 c0		 test	 eax, eax
  0033a	0f 85 a5 00 00
	00		 jne	 $LN9@DoPreRecei

; 1234 : 	{
; 1235 : 		CString szFile;

  00340	8d 8d 78 ff ff
	ff		 lea	 ecx, DWORD PTR _szFile$3[ebp]
  00346	ff 15 00 00 00
	00		 call	 DWORD PTR __imp_??0?$CStringT@DV?$StrTraitMFC_DLL@DV?$ChTraitsCRT@D@ATL@@@@@ATL@@QAE@XZ

; 1236 : 		szFile.Format("%s\\%s", szDataDir, "MstCode.dat");

  0034c	68 00 00 00 00	 push	 OFFSET ??_C@_0M@LDGDAJIA@MstCode?4dat@
  00351	ff b5 74 ff ff
	ff		 push	 DWORD PTR _szDataDir$[ebp]
  00357	8d 85 78 ff ff
	ff		 lea	 eax, DWORD PTR _szFile$3[ebp]
  0035d	c6 45 fc 05	 mov	 BYTE PTR __$EHRec$[ebp+8], 5
  00361	68 00 00 00 00	 push	 OFFSET ??_C@_05BMGBEOOC@?$CFs?2?$CFs@
  00366	50		 push	 eax
  00367	ff d3		 call	 ebx

; 1237 : 
; 1238 : 		char buf[8];
; 1239 : 		memset(buf, 0x00, sizeof(buf));
; 1240 : 		memcpy(buf, pData, 4);

  00369	8b 9d 68 ff ff
	ff		 mov	 ebx, DWORD PTR _pData$GSCopy$1$[ebp]
  0036f	0f 57 c0	 xorps	 xmm0, xmm0
  00372	66 0f 13 45 e8	 movlpd	 QWORD PTR _buf$8[ebp], xmm0
  00377	8b 03		 mov	 eax, DWORD PTR [ebx]
  00379	89 45 e8	 mov	 DWORD PTR _buf$8[ebp], eax

; 1241 : 		int nTotCnt = atoi(buf);

  0037c	8d 45 e8	 lea	 eax, DWORD PTR _buf$8[ebp]
  0037f	50		 push	 eax
  00380	ff 15 00 00 00
	00		 call	 DWORD PTR __imp__atoi

; 1242 : 
; 1243 : 		nSize = nTotCnt * sizeof(MSTCode) + 4;
; 1244 : 
; 1245 : 		FILE* fp = fopen(szFile, "w");

  00386	68 00 00 00 00	 push	 OFFSET ??_C@_01NOFIACDB@w@
  0038b	ff b5 78 ff ff
	ff		 push	 DWORD PTR _szFile$3[ebp]
  00391	8b f8		 mov	 edi, eax
  00393	ff 15 00 00 00
	00		 call	 DWORD PTR __imp__fopen
  00399	8b f0		 mov	 esi, eax
  0039b	83 c4 1c	 add	 esp, 28			; 0000001cH

; 1246 : 		if(fp)

  0039e	85 f6		 test	 esi, esi
  003a0	74 37		 je	 SHORT $LN10@DoPreRecei

; 1247 : 		{
; 1248 : 			fwrite(pData, 1, nSize, fp);

  003a2	6b cf 2d	 imul	 ecx, edi, 45
  003a5	56		 push	 esi
  003a6	83 c1 04	 add	 ecx, 4
  003a9	51		 push	 ecx
  003aa	6a 01		 push	 1
  003ac	53		 push	 ebx
  003ad	ff 15 00 00 00
	00		 call	 DWORD PTR __imp__fwrite

; 1249 : 			fclose(fp);

  003b3	56		 push	 esi
  003b4	ff 15 00 00 00
	00		 call	 DWORD PTR __imp__fclose
  003ba	83 c4 14	 add	 esp, 20			; 00000014H

; 1250 : 			
; 1251 : 			::WritePrivateProfileString(gszDataKey_MstCode, "Today", szKey, szIni);

  003bd	ff b5 6c ff ff
	ff		 push	 DWORD PTR _szIni$[ebp]
  003c3	ff b5 70 ff ff
	ff		 push	 DWORD PTR _szKey$[ebp]
  003c9	68 00 00 00 00	 push	 OFFSET ??_C@_05MBOMPHNN@Today@
  003ce	68 00 00 00 00	 push	 OFFSET ??_C@_07EODEELBJ@MstCode@
  003d3	ff 15 00 00 00
	00		 call	 DWORD PTR __imp__WritePrivateProfileStringA@16
$LN10@DoPreRecei:

; 1252 : 		}
; 1253 : 	}
; 1254 : 	
; 1255 : 	// gszDataKey_USDollar -> DrDataMng\ChartItemDollar.cpp
; 1256 : 	//    CChartItemDollar::TRDataConvertSvrToCli(..)  .
; 1257 : }

  003d9	8d 8d 78 ff ff
	ff		 lea	 ecx, DWORD PTR _szFile$3[ebp]
  003df	ff 15 00 00 00
	00		 call	 DWORD PTR __imp_??1?$CStringT@DV?$StrTraitMFC_DLL@DV?$ChTraitsCRT@D@ATL@@@@@ATL@@QAE@XZ
$LN9@DoPreRecei:
  003e5	8d 8d 70 ff ff
	ff		 lea	 ecx, DWORD PTR _szKey$[ebp]
  003eb	ff 15 00 00 00
	00		 call	 DWORD PTR __imp_??1?$CStringT@DV?$StrTraitMFC_DLL@DV?$ChTraitsCRT@D@ATL@@@@@ATL@@QAE@XZ
  003f1	8d 8d 6c ff ff
	ff		 lea	 ecx, DWORD PTR _szIni$[ebp]
  003f7	ff 15 00 00 00
	00		 call	 DWORD PTR __imp_??1?$CStringT@DV?$StrTraitMFC_DLL@DV?$ChTraitsCRT@D@ATL@@@@@ATL@@QAE@XZ
  003fd	8d 8d 74 ff ff
	ff		 lea	 ecx, DWORD PTR _szDataDir$[ebp]
  00403	ff 15 00 00 00
	00		 call	 DWORD PTR __imp_??1?$CStringT@DV?$StrTraitMFC_DLL@DV?$ChTraitsCRT@D@ATL@@@@@ATL@@QAE@XZ
$LN1@DoPreRecei:
  00409	8b 4d f4	 mov	 ecx, DWORD PTR __$EHRec$[ebp]
  0040c	64 89 0d 00 00
	00 00		 mov	 DWORD PTR fs:0, ecx
  00413	59		 pop	 ecx
  00414	5f		 pop	 edi
  00415	5e		 pop	 esi
  00416	5b		 pop	 ebx
  00417	8b 4d f0	 mov	 ecx, DWORD PTR __$ArrayPad$[ebp]
  0041a	33 cd		 xor	 ecx, ebp
  0041c	e8 00 00 00 00	 call	 @__security_check_cookie@4
  00421	8b e5		 mov	 esp, ebp
  00423	5d		 pop	 ebp
  00424	c2 0c 00	 ret	 12			; 0000000cH
_TEXT	ENDS
;	COMDAT text$x
text$x	SEGMENT
__unwindfunclet$?_DoPreReceiveData@CPartnerManager@@IAEXPBDPAEH@Z$0:
  00000	8d 8d 74 ff ff
	ff		 lea	 ecx, DWORD PTR _szDataDir$[ebp]
  00006	ff 25 00 00 00
	00		 jmp	 DWORD PTR __imp_??1?$CStringT@DV?$StrTraitMFC_DLL@DV?$ChTraitsCRT@D@ATL@@@@@ATL@@QAE@XZ
__unwindfunclet$?_DoPreReceiveData@CPartnerManager@@IAEXPBDPAEH@Z$1:
  0000c	8d 8d 6c ff ff
	ff		 lea	 ecx, DWORD PTR _szIni$[ebp]
  00012	ff 25 00 00 00
	00		 jmp	 DWORD PTR __imp_??1?$CStringT@DV?$StrTraitMFC_DLL@DV?$ChTraitsCRT@D@ATL@@@@@ATL@@QAE@XZ
__unwindfunclet$?_DoPreReceiveData@CPartnerManager@@IAEXPBDPAEH@Z$2:
  00018	8d 8d 70 ff ff
	ff		 lea	 ecx, DWORD PTR _szKey$[ebp]
  0001e	ff 25 00 00 00
	00		 jmp	 DWORD PTR __imp_??1?$CStringT@DV?$StrTraitMFC_DLL@DV?$ChTraitsCRT@D@ATL@@@@@ATL@@QAE@XZ
__unwindfunclet$?_DoPreReceiveData@CPartnerManager@@IAEXPBDPAEH@Z$3:
  00024	8d 8d 78 ff ff
	ff		 lea	 ecx, DWORD PTR _szData$4[ebp]
  0002a	ff 25 00 00 00
	00		 jmp	 DWORD PTR __imp_??1?$CStringT@DV?$StrTraitMFC_DLL@DV?$ChTraitsCRT@D@ATL@@@@@ATL@@QAE@XZ
__unwindfunclet$?_DoPreReceiveData@CPartnerManager@@IAEXPBDPAEH@Z$4:
  00030	8d 4d ec	 lea	 ecx, DWORD PTR _szFile$9[ebp]
  00033	ff 25 00 00 00
	00		 jmp	 DWORD PTR __imp_??1?$CStringT@DV?$StrTraitMFC_DLL@DV?$ChTraitsCRT@D@ATL@@@@@ATL@@QAE@XZ
__unwindfunclet$?_DoPreReceiveData@CPartnerManager@@IAEXPBDPAEH@Z$5:
  00039	8d 8d 78 ff ff
	ff		 lea	 ecx, DWORD PTR _szFile$3[ebp]
  0003f	ff 25 00 00 00
	00		 jmp	 DWORD PTR __imp_??1?$CStringT@DV?$StrTraitMFC_DLL@DV?$ChTraitsCRT@D@ATL@@@@@ATL@@QAE@XZ
  00045	cc		 int	 3
  00046	cc		 int	 3
  00047	cc		 int	 3
  00048	cc		 int	 3
  00049	cc		 int	 3
__ehhandler$?_DoPreReceiveData@CPartnerManager@@IAEXPBDPAEH@Z:
  0004a	90		 npad	 1
  0004b	90		 npad	 1
  0004c	8b 54 24 08	 mov	 edx, DWORD PTR [esp+8]
  00050	8d 42 0c	 lea	 eax, DWORD PTR [edx+12]
  00053	8b 8a 5c ff ff
	ff		 mov	 ecx, DWORD PTR [edx-164]
  00059	33 c8		 xor	 ecx, eax
  0005b	e8 00 00 00 00	 call	 @__security_check_cookie@4
  00060	8b 4a fc	 mov	 ecx, DWORD PTR [edx-4]
  00063	33 c8		 xor	 ecx, eax
  00065	e8 00 00 00 00	 call	 @__security_check_cookie@4
  0006a	b8 00 00 00 00	 mov	 eax, OFFSET __ehfuncinfo$?_DoPreReceiveData@CPartnerManager@@IAEXPBDPAEH@Z
  0006f	e9 00 00 00 00	 jmp	 ___CxxFrameHandler3
text$x	ENDS
?_DoPreReceiveData@CPartnerManager@@IAEXPBDPAEH@Z ENDP	; CPartnerManager::_DoPreReceiveData
; Function compile flags: /Ogtp
; File D:\git\src\IBK\IBK_DRFN\ProjSrc\SrcDrfn\DrCommon\PartnerMng\_PartnerManager.cpp
; File C:\Program Files (x86)\Microsoft Visual Studio\2019\Community\VC\Tools\MSVC\14.29.30133\atlmfc\include\atlsimpstr.h
; File D:\git\src\IBK\IBK_DRFN\ProjSrc\SrcDrfn\DrCommon\PartnerMng\_PartnerManager.cpp
; File C:\Program Files (x86)\Microsoft Visual Studio\2019\Community\VC\Tools\MSVC\14.29.30133\atlmfc\include\cstringt.h
; File D:\git\src\IBK\IBK_DRFN\ProjSrc\SrcDrfn\DrCommon\PartnerMng\_PartnerManager.cpp
; File C:\Program Files (x86)\Microsoft Visual Studio\2019\Community\VC\Tools\MSVC\14.29.30133\atlmfc\include\cstringt.h
; File D:\git\src\IBK\IBK_DRFN\ProjSrc\SrcDrfn\DrCommon\PartnerMng\_PartnerManager.cpp
; File C:\Program Files (x86)\Microsoft Visual Studio\2019\Community\VC\Tools\MSVC\14.29.30133\atlmfc\include\cstringt.h
; File D:\git\src\IBK\IBK_DRFN\ProjSrc\SrcDrfn\DrCommon\PartnerMng\_PartnerManager.cpp
; File C:\Program Files (x86)\Microsoft Visual Studio\2019\Community\VC\Tools\MSVC\14.29.30133\atlmfc\include\cstringt.h
; File D:\git\src\IBK\IBK_DRFN\ProjSrc\SrcDrfn\DrCommon\PartnerMng\_PartnerManager.cpp
;	COMDAT ?_DoGetCodeType@CPartnerManager@@IAEHPBD@Z
_TEXT	SEGMENT
$T2 = -28						; size = 4
$T3 = -28						; size = 4
$T4 = -24						; size = 4
$T5 = -20						; size = 4
_strCode$ = -16						; size = 4
__$EHRec$ = -12						; size = 12
_rCode$6 = 8						; size = 4
$T7 = 8							; size = 4
_szCode$ = 8						; size = 4
$T8 = 11						; size = 1
?_DoGetCodeType@CPartnerManager@@IAEHPBD@Z PROC		; CPartnerManager::_DoGetCodeType, COMDAT
; _this$ = ecx

; 931  : {

  00000	55		 push	 ebp
  00001	8b ec		 mov	 ebp, esp
  00003	6a ff		 push	 -1
  00005	68 00 00 00 00	 push	 __ehhandler$?_DoGetCodeType@CPartnerManager@@IAEHPBD@Z
  0000a	64 a1 00 00 00
	00		 mov	 eax, DWORD PTR fs:0
  00010	50		 push	 eax
  00011	83 ec 10	 sub	 esp, 16			; 00000010H
  00014	53		 push	 ebx
  00015	56		 push	 esi
  00016	a1 00 00 00 00	 mov	 eax, DWORD PTR ___security_cookie
  0001b	33 c5		 xor	 eax, ebp
  0001d	50		 push	 eax
  0001e	8d 45 f4	 lea	 eax, DWORD PTR __$EHRec$[ebp]
  00021	64 a3 00 00 00
	00		 mov	 DWORD PTR fs:0, eax
  00027	8b f1		 mov	 esi, ecx
  00029	33 db		 xor	 ebx, ebx

; 932  : 	CString strCode;

  0002b	8d 4d f0	 lea	 ecx, DWORD PTR _strCode$[ebp]
  0002e	89 5d ec	 mov	 DWORD PTR $T5[ebp], ebx
  00031	ff 15 00 00 00
	00		 call	 DWORD PTR __imp_??0?$CStringT@DV?$StrTraitMFC_DLL@DV?$ChTraitsCRT@D@ATL@@@@@ATL@@QAE@XZ

; 933  : 	strCode = szCode;

  00037	ff 75 08	 push	 DWORD PTR _szCode$[ebp]
  0003a	8d 4d f0	 lea	 ecx, DWORD PTR _strCode$[ebp]
  0003d	89 5d fc	 mov	 DWORD PTR __$EHRec$[ebp+8], ebx
  00040	ff 15 00 00 00
	00		 call	 DWORD PTR __imp_??4?$CStringT@DV?$StrTraitMFC_DLL@DV?$ChTraitsCRT@D@ATL@@@@@ATL@@QAEAAV01@PBD@Z

; 934  : 	if(strCode[0]=='K'|| strCode[0]=='A' || strCode[0] == 'Q'  )

  00046	53		 push	 ebx
  00047	8d 4d f0	 lea	 ecx, DWORD PTR _strCode$[ebp]
  0004a	ff 15 00 00 00
	00		 call	 DWORD PTR __imp_??A?$CSimpleStringT@D$00@ATL@@QBEDH@Z
  00050	3c 4b		 cmp	 al, 75			; 0000004bH
  00052	0f 84 0b 01 00
	00		 je	 $LN4@DoGetCodeT
  00058	53		 push	 ebx
  00059	8d 4d f0	 lea	 ecx, DWORD PTR _strCode$[ebp]
  0005c	ff 15 00 00 00
	00		 call	 DWORD PTR __imp_??A?$CSimpleStringT@D$00@ATL@@QBEDH@Z
  00062	3c 41		 cmp	 al, 65			; 00000041H
  00064	0f 84 f9 00 00
	00		 je	 $LN4@DoGetCodeT
  0006a	53		 push	 ebx
  0006b	8d 4d f0	 lea	 ecx, DWORD PTR _strCode$[ebp]
  0006e	ff 15 00 00 00
	00		 call	 DWORD PTR __imp_??A?$CSimpleStringT@D$00@ATL@@QBEDH@Z
  00074	3c 51		 cmp	 al, 81			; 00000051H
  00076	0f 84 e7 00 00
	00		 je	 $LN4@DoGetCodeT
; File C:\Program Files (x86)\Microsoft Visual Studio\2019\Community\VC\Tools\MSVC\14.29.30133\atlmfc\include\atlsimpstr.h

; 519  : 		return( GetData()->nDataLength );

  0007c	8b 45 f0	 mov	 eax, DWORD PTR _strCode$[ebp]
; File D:\git\src\IBK\IBK_DRFN\ProjSrc\SrcDrfn\DrCommon\PartnerMng\_PartnerManager.cpp

; 938  : 	else if( strCode.GetLength() > 2 && (strCode.Left(2) == "ET" || strCode.Left(2) == "ST" ) )

  0007f	83 78 f4 02	 cmp	 DWORD PTR [eax-12], 2
  00083	7e 61		 jle	 SHORT $LN10@DoGetCodeT
  00085	6a 02		 push	 2
  00087	8d 45 e4	 lea	 eax, DWORD PTR $T3[ebp]
  0008a	50		 push	 eax
  0008b	8d 4d f0	 lea	 ecx, DWORD PTR _strCode$[ebp]
  0008e	ff 15 00 00 00
	00		 call	 DWORD PTR __imp_?Left@?$CStringT@DV?$StrTraitMFC_DLL@DV?$ChTraitsCRT@D@ATL@@@@@ATL@@QBE?AV12@H@Z
  00094	bb 01 00 00 00	 mov	 ebx, 1
  00099	c6 45 fc 02	 mov	 BYTE PTR __$EHRec$[ebp+8], 2
; File C:\Program Files (x86)\Microsoft Visual Studio\2019\Community\VC\Tools\MSVC\14.29.30133\atlmfc\include\cstringt.h

; 2486 : 		return(str1.Compare(psz2) == 0);

  0009d	68 00 00 00 00	 push	 OFFSET ??_C@_02KIDIPBJG@ET@
  000a2	8b c8		 mov	 ecx, eax
; File D:\git\src\IBK\IBK_DRFN\ProjSrc\SrcDrfn\DrCommon\PartnerMng\_PartnerManager.cpp

; 938  : 	else if( strCode.GetLength() > 2 && (strCode.Left(2) == "ET" || strCode.Left(2) == "ST" ) )

  000a4	89 5d ec	 mov	 DWORD PTR $T5[ebp], ebx
; File C:\Program Files (x86)\Microsoft Visual Studio\2019\Community\VC\Tools\MSVC\14.29.30133\atlmfc\include\cstringt.h

; 2486 : 		return(str1.Compare(psz2) == 0);

  000a7	ff 15 00 00 00
	00		 call	 DWORD PTR __imp_?Compare@?$CStringT@DV?$StrTraitMFC_DLL@DV?$ChTraitsCRT@D@ATL@@@@@ATL@@QBEHPBD@Z
  000ad	85 c0		 test	 eax, eax
; File D:\git\src\IBK\IBK_DRFN\ProjSrc\SrcDrfn\DrCommon\PartnerMng\_PartnerManager.cpp

; 938  : 	else if( strCode.GetLength() > 2 && (strCode.Left(2) == "ET" || strCode.Left(2) == "ST" ) )

  000af	74 2f		 je	 SHORT $LN9@DoGetCodeT
  000b1	6a 02		 push	 2
  000b3	8d 45 e8	 lea	 eax, DWORD PTR $T4[ebp]
  000b6	50		 push	 eax
  000b7	8d 4d f0	 lea	 ecx, DWORD PTR _strCode$[ebp]
  000ba	ff 15 00 00 00
	00		 call	 DWORD PTR __imp_?Left@?$CStringT@DV?$StrTraitMFC_DLL@DV?$ChTraitsCRT@D@ATL@@@@@ATL@@QBE?AV12@H@Z
  000c0	bb 03 00 00 00	 mov	 ebx, 3
  000c5	c7 45 fc 03 00
	00 00		 mov	 DWORD PTR __$EHRec$[ebp+8], 3
; File C:\Program Files (x86)\Microsoft Visual Studio\2019\Community\VC\Tools\MSVC\14.29.30133\atlmfc\include\cstringt.h

; 2486 : 		return(str1.Compare(psz2) == 0);

  000cc	68 00 00 00 00	 push	 OFFSET ??_C@_02LAJDCOFE@ST@
  000d1	8b c8		 mov	 ecx, eax
; File D:\git\src\IBK\IBK_DRFN\ProjSrc\SrcDrfn\DrCommon\PartnerMng\_PartnerManager.cpp

; 938  : 	else if( strCode.GetLength() > 2 && (strCode.Left(2) == "ET" || strCode.Left(2) == "ST" ) )

  000d3	89 5d ec	 mov	 DWORD PTR $T5[ebp], ebx
; File C:\Program Files (x86)\Microsoft Visual Studio\2019\Community\VC\Tools\MSVC\14.29.30133\atlmfc\include\cstringt.h

; 2486 : 		return(str1.Compare(psz2) == 0);

  000d6	ff 15 00 00 00
	00		 call	 DWORD PTR __imp_?Compare@?$CStringT@DV?$StrTraitMFC_DLL@DV?$ChTraitsCRT@D@ATL@@@@@ATL@@QBEHPBD@Z
  000dc	85 c0		 test	 eax, eax
; File D:\git\src\IBK\IBK_DRFN\ProjSrc\SrcDrfn\DrCommon\PartnerMng\_PartnerManager.cpp

; 938  : 	else if( strCode.GetLength() > 2 && (strCode.Left(2) == "ET" || strCode.Left(2) == "ST" ) )

  000de	75 06		 jne	 SHORT $LN10@DoGetCodeT
$LN9@DoGetCodeT:
  000e0	c6 45 0b 01	 mov	 BYTE PTR $T8[ebp], 1
  000e4	eb 04		 jmp	 SHORT $LN11@DoGetCodeT
$LN10@DoGetCodeT:
  000e6	c6 45 0b 00	 mov	 BYTE PTR $T8[ebp], 0
$LN11@DoGetCodeT:
  000ea	f6 c3 02	 test	 bl, 2
  000ed	74 0c		 je	 SHORT $LN18@DoGetCodeT
  000ef	8d 4d e8	 lea	 ecx, DWORD PTR $T4[ebp]
  000f2	83 e3 fd	 and	 ebx, -3			; fffffffdH
  000f5	ff 15 00 00 00
	00		 call	 DWORD PTR __imp_??1?$CStringT@DV?$StrTraitMFC_DLL@DV?$ChTraitsCRT@D@ATL@@@@@ATL@@QAE@XZ
$LN18@DoGetCodeT:
  000fb	c7 45 fc 00 00
	00 00		 mov	 DWORD PTR __$EHRec$[ebp+8], 0
  00102	f6 c3 01	 test	 bl, 1
  00105	74 09		 je	 SHORT $LN19@DoGetCodeT
  00107	8d 4d e4	 lea	 ecx, DWORD PTR $T3[ebp]
  0010a	ff 15 00 00 00
	00		 call	 DWORD PTR __imp_??1?$CStringT@DV?$StrTraitMFC_DLL@DV?$ChTraitsCRT@D@ATL@@@@@ATL@@QAE@XZ
$LN19@DoGetCodeT:
  00110	80 7d 0b 00	 cmp	 BYTE PTR $T8[ebp], 0
  00114	74 77		 je	 SHORT $LN5@DoGetCodeT

; 939  : 	{
; 940  : 		strCode = strCode.Mid(1);

  00116	6a 01		 push	 1
  00118	8d 45 e4	 lea	 eax, DWORD PTR $T2[ebp]
  0011b	50		 push	 eax
  0011c	8d 4d f0	 lea	 ecx, DWORD PTR _strCode$[ebp]
  0011f	ff 15 00 00 00
	00		 call	 DWORD PTR __imp_?Mid@?$CStringT@DV?$StrTraitMFC_DLL@DV?$ChTraitsCRT@D@ATL@@@@@ATL@@QBE?AV12@H@Z
  00125	50		 push	 eax
  00126	8d 4d f0	 lea	 ecx, DWORD PTR _strCode$[ebp]
  00129	c6 45 fc 04	 mov	 BYTE PTR __$EHRec$[ebp+8], 4
  0012d	ff 15 00 00 00
	00		 call	 DWORD PTR __imp_??4?$CStringT@DV?$StrTraitMFC_DLL@DV?$ChTraitsCRT@D@ATL@@@@@ATL@@QAEAAV01@ABV01@@Z
  00133	8d 4d e4	 lea	 ecx, DWORD PTR $T2[ebp]
  00136	ff 15 00 00 00
	00		 call	 DWORD PTR __imp_??1?$CStringT@DV?$StrTraitMFC_DLL@DV?$ChTraitsCRT@D@ATL@@@@@ATL@@QAE@XZ

; 941  : 		CString rCode;

  0013c	8d 4d 08	 lea	 ecx, DWORD PTR _rCode$6[ebp]
  0013f	ff 15 00 00 00
	00		 call	 DWORD PTR __imp_??0?$CStringT@DV?$StrTraitMFC_DLL@DV?$ChTraitsCRT@D@ATL@@@@@ATL@@QAE@XZ

; 942  : 		if (theApp.m_PtUtilMng.GetSiteUpKode(strCode, rCode))

  00145	8d 45 08	 lea	 eax, DWORD PTR _rCode$6[ebp]
  00148	c6 45 fc 05	 mov	 BYTE PTR __$EHRec$[ebp+8], 5
  0014c	50		 push	 eax
  0014d	ff 75 f0	 push	 DWORD PTR _strCode$[ebp]
  00150	b9 34 01 00 00	 mov	 ecx, OFFSET ?theApp@@3VCPartnerMngApp@@A+308
  00155	e8 00 00 00 00	 call	 ?GetSiteUpKode@CPartnerUtilManager@@QAEHPBDAAV?$CStringT@DV?$StrTraitMFC_DLL@DV?$ChTraitsCRT@D@ATL@@@@@ATL@@@Z ; CPartnerUtilManager::GetSiteUpKode
  0015a	85 c0		 test	 eax, eax
  0015c	74 22		 je	 SHORT $LN6@DoGetCodeT

; 943  : 				strCode = rCode;

  0015e	8d 45 08	 lea	 eax, DWORD PTR _rCode$6[ebp]

; 944  : 	}

  00161	eb 13		 jmp	 SHORT $LN36@DoGetCodeT
$LN4@DoGetCodeT:

; 935  : 	{
; 936  : 		strCode = strCode.Mid(1);

  00163	6a 01		 push	 1
  00165	8d 45 08	 lea	 eax, DWORD PTR $T7[ebp]
  00168	50		 push	 eax
  00169	8d 4d f0	 lea	 ecx, DWORD PTR _strCode$[ebp]
  0016c	ff 15 00 00 00
	00		 call	 DWORD PTR __imp_?Mid@?$CStringT@DV?$StrTraitMFC_DLL@DV?$ChTraitsCRT@D@ATL@@@@@ATL@@QBE?AV12@H@Z
  00172	c6 45 fc 01	 mov	 BYTE PTR __$EHRec$[ebp+8], 1
$LN36@DoGetCodeT:

; 945  : 
; 946  : 	if(!m_pMasterDataMng) m_pMasterDataMng = (IMasterDataManagerLast*)AfxGetPctrInterface(UUID_IMasterDataManager);

  00176	50		 push	 eax
  00177	8d 4d f0	 lea	 ecx, DWORD PTR _strCode$[ebp]
  0017a	ff 15 00 00 00
	00		 call	 DWORD PTR __imp_??4?$CStringT@DV?$StrTraitMFC_DLL@DV?$ChTraitsCRT@D@ATL@@@@@ATL@@QAEAAV01@ABV01@@Z
$LN6@DoGetCodeT:
  00180	8d 4d 08	 lea	 ecx, DWORD PTR $T7[ebp]
  00183	c6 45 fc 00	 mov	 BYTE PTR __$EHRec$[ebp+8], 0
  00187	ff 15 00 00 00
	00		 call	 DWORD PTR __imp_??1?$CStringT@DV?$StrTraitMFC_DLL@DV?$ChTraitsCRT@D@ATL@@@@@ATL@@QAE@XZ
$LN5@DoGetCodeT:
  0018d	8b 46 18	 mov	 eax, DWORD PTR [esi+24]
  00190	85 c0		 test	 eax, eax
  00192	75 0a		 jne	 SHORT $LN7@DoGetCodeT
  00194	6a 05		 push	 5
  00196	e8 00 00 00 00	 call	 ?AfxGetPctrInterface@@YGJH@Z ; AfxGetPctrInterface
  0019b	89 46 18	 mov	 DWORD PTR [esi+24], eax
$LN7@DoGetCodeT:

; 947  : 	return (int)m_pMasterDataMng->GetMarketTypeFromCode(strCode);

  0019e	ff 75 f0	 push	 DWORD PTR _strCode$[ebp]
  001a1	8b 08		 mov	 ecx, DWORD PTR [eax]
  001a3	50		 push	 eax
  001a4	ff 91 9c 00 00
	00		 call	 DWORD PTR [ecx+156]
  001aa	8d 4d f0	 lea	 ecx, DWORD PTR _strCode$[ebp]
  001ad	0f b6 f0	 movzx	 esi, al
  001b0	ff 15 00 00 00
	00		 call	 DWORD PTR __imp_??1?$CStringT@DV?$StrTraitMFC_DLL@DV?$ChTraitsCRT@D@ATL@@@@@ATL@@QAE@XZ
  001b6	8b c6		 mov	 eax, esi

; 948  : }

  001b8	8b 4d f4	 mov	 ecx, DWORD PTR __$EHRec$[ebp]
  001bb	64 89 0d 00 00
	00 00		 mov	 DWORD PTR fs:0, ecx
  001c2	59		 pop	 ecx
  001c3	5e		 pop	 esi
  001c4	5b		 pop	 ebx
  001c5	8b e5		 mov	 esp, ebp
  001c7	5d		 pop	 ebp
  001c8	c2 04 00	 ret	 4
_TEXT	ENDS
;	COMDAT text$x
text$x	SEGMENT
__unwindfunclet$?_DoGetCodeType@CPartnerManager@@IAEHPBD@Z$0:
  00000	8d 4d f0	 lea	 ecx, DWORD PTR _strCode$[ebp]
  00003	ff 25 00 00 00
	00		 jmp	 DWORD PTR __imp_??1?$CStringT@DV?$StrTraitMFC_DLL@DV?$ChTraitsCRT@D@ATL@@@@@ATL@@QAE@XZ
__unwindfunclet$?_DoGetCodeType@CPartnerManager@@IAEHPBD@Z$2:
  00009	8b 45 ec	 mov	 eax, DWORD PTR $T5[ebp]
  0000c	83 e0 01	 and	 eax, 1
  0000f	0f 84 0d 00 00
	00		 je	 $LN15@DoGetCodeT
  00015	83 65 ec fe	 and	 DWORD PTR $T5[ebp], -2	; fffffffeH
  00019	8d 4d e4	 lea	 ecx, DWORD PTR $T3[ebp]
  0001c	ff 25 00 00 00
	00		 jmp	 DWORD PTR __imp_??1?$CStringT@DV?$StrTraitMFC_DLL@DV?$ChTraitsCRT@D@ATL@@@@@ATL@@QAE@XZ
$LN15@DoGetCodeT:
  00022	c3		 ret	 0
__unwindfunclet$?_DoGetCodeType@CPartnerManager@@IAEHPBD@Z$3:
  00023	8b 45 ec	 mov	 eax, DWORD PTR $T5[ebp]
  00026	83 e0 02	 and	 eax, 2
  00029	0f 84 0d 00 00
	00		 je	 $LN17@DoGetCodeT
  0002f	83 65 ec fd	 and	 DWORD PTR $T5[ebp], -3	; fffffffdH
  00033	8d 4d e8	 lea	 ecx, DWORD PTR $T4[ebp]
  00036	ff 25 00 00 00
	00		 jmp	 DWORD PTR __imp_??1?$CStringT@DV?$StrTraitMFC_DLL@DV?$ChTraitsCRT@D@ATL@@@@@ATL@@QAE@XZ
$LN17@DoGetCodeT:
  0003c	c3		 ret	 0
__unwindfunclet$?_DoGetCodeType@CPartnerManager@@IAEHPBD@Z$4:
  0003d	8d 4d e4	 lea	 ecx, DWORD PTR $T2[ebp]
  00040	ff 25 00 00 00
	00		 jmp	 DWORD PTR __imp_??1?$CStringT@DV?$StrTraitMFC_DLL@DV?$ChTraitsCRT@D@ATL@@@@@ATL@@QAE@XZ
__unwindfunclet$?_DoGetCodeType@CPartnerManager@@IAEHPBD@Z$5:
  00046	8d 4d 08	 lea	 ecx, DWORD PTR _rCode$6[ebp]
  00049	ff 25 00 00 00
	00		 jmp	 DWORD PTR __imp_??1?$CStringT@DV?$StrTraitMFC_DLL@DV?$ChTraitsCRT@D@ATL@@@@@ATL@@QAE@XZ
__unwindfunclet$?_DoGetCodeType@CPartnerManager@@IAEHPBD@Z$1:
  0004f	8d 4d 08	 lea	 ecx, DWORD PTR $T7[ebp]
  00052	ff 25 00 00 00
	00		 jmp	 DWORD PTR __imp_??1?$CStringT@DV?$StrTraitMFC_DLL@DV?$ChTraitsCRT@D@ATL@@@@@ATL@@QAE@XZ
  00058	cc		 int	 3
  00059	cc		 int	 3
  0005a	cc		 int	 3
  0005b	cc		 int	 3
  0005c	cc		 int	 3
__ehhandler$?_DoGetCodeType@CPartnerManager@@IAEHPBD@Z:
  0005d	90		 npad	 1
  0005e	90		 npad	 1
  0005f	8b 54 24 08	 mov	 edx, DWORD PTR [esp+8]
  00063	8d 42 0c	 lea	 eax, DWORD PTR [edx+12]
  00066	8b 4a e4	 mov	 ecx, DWORD PTR [edx-28]
  00069	33 c8		 xor	 ecx, eax
  0006b	e8 00 00 00 00	 call	 @__security_check_cookie@4
  00070	b8 00 00 00 00	 mov	 eax, OFFSET __ehfuncinfo$?_DoGetCodeType@CPartnerManager@@IAEHPBD@Z
  00075	e9 00 00 00 00	 jmp	 ___CxxFrameHandler3
text$x	ENDS
?_DoGetCodeType@CPartnerManager@@IAEHPBD@Z ENDP		; CPartnerManager::_DoGetCodeType
; Function compile flags: /Ogtp
; File D:\git\src\IBK\IBK_DRFN\ProjSrc\SrcDrfn\DrCommon\PartnerMng\_PartnerManager.cpp
;	COMDAT ?_DoParser@CPartnerManager@@IAEHDPADAAHH0@Z
_TEXT	SEGMENT
_cParser$ = 8						; size = 1
_pData$ = 12						; size = 4
_nPos$ = 16						; size = 4
_nEndPos$ = 20						; size = 4
_aString$ = 24						; size = 4
?_DoParser@CPartnerManager@@IAEHDPADAAHH0@Z PROC	; CPartnerManager::_DoParser, COMDAT
; _this$ = ecx

; 914  : {

  00000	55		 push	 ebp
  00001	8b ec		 mov	 ebp, esp
  00003	53		 push	 ebx
  00004	56		 push	 esi

; 915  : 	int nDataIdx=0;
; 916  : 	while (pData[nPos] != 0x00)

  00005	8b 75 0c	 mov	 esi, DWORD PTR _pData$[ebp]
  00008	33 d2		 xor	 edx, edx
  0000a	57		 push	 edi
  0000b	8b 7d 10	 mov	 edi, DWORD PTR _nPos$[ebp]
  0000e	8b 07		 mov	 eax, DWORD PTR [edi]
  00010	38 14 30	 cmp	 BYTE PTR [eax+esi], dl
  00013	74 28		 je	 SHORT $LN3@DoParser
  00015	8b 5d 14	 mov	 ebx, DWORD PTR _nEndPos$[ebp]
  00018	8a 6d 08	 mov	 ch, BYTE PTR _cParser$[ebp]
  0001b	0f 1f 44 00 00	 npad	 5
$LL2@DoParser:

; 917  : 	{
; 918  : 		if (pData[nPos] == cParser || nPos>=nEndPos)

  00020	8a 0c 30	 mov	 cl, BYTE PTR [eax+esi]
  00023	3a cd		 cmp	 cl, ch
  00025	74 20		 je	 SHORT $LN9@DoParser
  00027	3b c3		 cmp	 eax, ebx
  00029	7d 1c		 jge	 SHORT $LN9@DoParser

; 922  : 			return nDataIdx;
; 923  : 		}
; 924  : 		else
; 925  : 			aString[nDataIdx++] = pData[nPos++];

  0002b	8b 45 18	 mov	 eax, DWORD PTR _aString$[ebp]
  0002e	88 0c 02	 mov	 BYTE PTR [edx+eax], cl
  00031	42		 inc	 edx
  00032	8b 07		 mov	 eax, DWORD PTR [edi]
  00034	40		 inc	 eax
  00035	89 07		 mov	 DWORD PTR [edi], eax
  00037	80 3c 30 00	 cmp	 BYTE PTR [eax+esi], 0
  0003b	75 e3		 jne	 SHORT $LL2@DoParser
$LN3@DoParser:
  0003d	5f		 pop	 edi

; 926  : 	}
; 927  : 	return -1;
; 928  : }

  0003e	5e		 pop	 esi
  0003f	83 c8 ff	 or	 eax, -1
  00042	5b		 pop	 ebx
  00043	5d		 pop	 ebp
  00044	c2 14 00	 ret	 20			; 00000014H
$LN9@DoParser:

; 919  : 		{
; 920  : 			nPos++;

  00047	40		 inc	 eax
  00048	89 07		 mov	 DWORD PTR [edi], eax

; 921  : 			aString[nDataIdx] = 0;

  0004a	8b 45 18	 mov	 eax, DWORD PTR _aString$[ebp]
  0004d	5f		 pop	 edi

; 926  : 	}
; 927  : 	return -1;
; 928  : }

  0004e	5e		 pop	 esi
  0004f	5b		 pop	 ebx
  00050	c6 04 02 00	 mov	 BYTE PTR [edx+eax], 0
  00054	8b c2		 mov	 eax, edx
  00056	5d		 pop	 ebp
  00057	c2 14 00	 ret	 20			; 00000014H
?_DoParser@CPartnerManager@@IAEHDPADAAHH0@Z ENDP	; CPartnerManager::_DoParser
_TEXT	ENDS
; Function compile flags: /Ogtp
; File D:\git\src\IBK\IBK_DRFN\ProjSrc\SrcDrfn\DrCommon\PartnerMng\_PartnerManager.cpp
; File C:\Program Files (x86)\Microsoft Visual Studio\2019\Community\VC\Tools\MSVC\14.29.30133\atlmfc\include\afxcoll.inl
; File D:\git\src\IBK\IBK_DRFN\ProjSrc\SrcDrfn\DrCommon\PartnerMng\_PartnerManager.cpp
;	COMDAT ?_DoRealDataParsing@CPartnerManager@@IAEHPADPAVCMapStringToString@@@Z
_TEXT	SEGMENT
_strData$ = -92						; size = 4
_strFID$ = -88						; size = 4
_pMap$GSCopy$1$ = -84					; size = 4
_aValue$ = -80						; size = 51
_aKey$ = -28						; size = 11
__$ArrayPad$ = -16					; size = 4
__$EHRec$ = -12						; size = 12
_pData$ = 8						; size = 4
_pMap$ = 12						; size = 4
?_DoRealDataParsing@CPartnerManager@@IAEHPADPAVCMapStringToString@@@Z PROC ; CPartnerManager::_DoRealDataParsing, COMDAT
; _this$ = ecx

; 892  : {

  00000	55		 push	 ebp
  00001	8b ec		 mov	 ebp, esp
  00003	6a ff		 push	 -1
  00005	68 00 00 00 00	 push	 __ehhandler$?_DoRealDataParsing@CPartnerManager@@IAEHPADPAVCMapStringToString@@@Z
  0000a	64 a1 00 00 00
	00		 mov	 eax, DWORD PTR fs:0
  00010	50		 push	 eax
  00011	83 ec 50	 sub	 esp, 80			; 00000050H
  00014	a1 00 00 00 00	 mov	 eax, DWORD PTR ___security_cookie
  00019	33 c5		 xor	 eax, ebp
  0001b	89 45 f0	 mov	 DWORD PTR __$ArrayPad$[ebp], eax
  0001e	53		 push	 ebx
  0001f	56		 push	 esi
  00020	57		 push	 edi
  00021	50		 push	 eax
  00022	8d 45 f4	 lea	 eax, DWORD PTR __$EHRec$[ebp]
  00025	64 a3 00 00 00
	00		 mov	 DWORD PTR fs:0, eax
  0002b	8b 45 0c	 mov	 eax, DWORD PTR _pMap$[ebp]

; 893  : 	int nIndex=0, nDataIdx=0, nDataCount=0;
; 894  : 	CString strData, strFID;

  0002e	8d 4d a4	 lea	 ecx, DWORD PTR _strData$[ebp]
  00031	89 45 ac	 mov	 DWORD PTR _pMap$GSCopy$1$[ebp], eax
  00034	ff 15 00 00 00
	00		 call	 DWORD PTR __imp_??0?$CStringT@DV?$StrTraitMFC_DLL@DV?$ChTraitsCRT@D@ATL@@@@@ATL@@QAE@XZ
  0003a	8d 4d a8	 lea	 ecx, DWORD PTR _strFID$[ebp]
  0003d	c7 45 fc 00 00
	00 00		 mov	 DWORD PTR __$EHRec$[ebp+8], 0
  00044	ff 15 00 00 00
	00		 call	 DWORD PTR __imp_??0?$CStringT@DV?$StrTraitMFC_DLL@DV?$ChTraitsCRT@D@ATL@@@@@ATL@@QAE@XZ

; 895  : 	char aKey[10+1], aValue[50+1];
; 896  : 	memset(aKey, 0x00, sizeof(aKey));
; 897  : 	memset(aValue, 0x00, sizeof(aValue));

  0004a	6a 33		 push	 51			; 00000033H
  0004c	8d 45 b0	 lea	 eax, DWORD PTR _aValue$[ebp]
  0004f	c6 45 fc 01	 mov	 BYTE PTR __$EHRec$[ebp+8], 1
  00053	0f 57 c0	 xorps	 xmm0, xmm0
  00056	66 c7 45 ec 00
	00		 mov	 WORD PTR _aKey$[ebp+8], 0
  0005c	6a 00		 push	 0
  0005e	50		 push	 eax
  0005f	66 0f d6 45 e4	 movq	 QWORD PTR _aKey$[ebp], xmm0
  00064	c6 45 ee 00	 mov	 BYTE PTR _aKey$[ebp+10], 0
  00068	e8 00 00 00 00	 call	 _memset

; 898  : 
; 899  : 	char cParser = '\t';
; 900  : 	int nPos=0, nEndPos=strlen(pData);

  0006d	8b 5d 08	 mov	 ebx, DWORD PTR _pData$[ebp]
  00070	83 c4 0c	 add	 esp, 12			; 0000000cH
  00073	8b fb		 mov	 edi, ebx
  00075	33 f6		 xor	 esi, esi
  00077	8d 4f 01	 lea	 ecx, DWORD PTR [edi+1]
  0007a	66 0f 1f 44 00
	00		 npad	 6
$LL35@DoRealData:
  00080	8a 07		 mov	 al, BYTE PTR [edi]
  00082	47		 inc	 edi
  00083	84 c0		 test	 al, al
  00085	75 f9		 jne	 SHORT $LL35@DoRealData
  00087	2b f9		 sub	 edi, ecx

; 902  : 	while(nPos<nEndPos)

  00089	85 ff		 test	 edi, edi
  0008b	7e 7c		 jle	 SHORT $LN3@DoRealData
  0008d	0f 1f 00	 npad	 3
$LL2@DoRealData:

; 916  : 	while (pData[nPos] != 0x00)

  00090	8a 04 1e	 mov	 al, BYTE PTR [esi+ebx]
  00093	33 c9		 xor	 ecx, ecx
  00095	84 c0		 test	 al, al
  00097	74 24		 je	 SHORT $LN9@DoRealData

; 912  : 
; 913  : int CPartnerManager::_DoParser(char cParser, LPTSTR pData, int &nPos, int nEndPos, char* aString)
; 914  : {
; 915  : 	int nDataIdx=0;

  00099	8d 55 e4	 lea	 edx, DWORD PTR _aKey$[ebp]
  0009c	2b d6		 sub	 edx, esi
  0009e	66 90		 npad	 2
$LL8@DoRealData:

; 917  : 	{
; 918  : 		if (pData[nPos] == cParser || nPos>=nEndPos)

  000a0	3c 09		 cmp	 al, 9
  000a2	74 13		 je	 SHORT $LN26@DoRealData
  000a4	3b f7		 cmp	 esi, edi
  000a6	7d 0f		 jge	 SHORT $LN26@DoRealData

; 922  : 			return nDataIdx;
; 923  : 		}
; 924  : 		else
; 925  : 			aString[nDataIdx++] = pData[nPos++];

  000a8	88 04 32	 mov	 BYTE PTR [edx+esi], al
  000ab	41		 inc	 ecx
  000ac	8a 44 1e 01	 mov	 al, BYTE PTR [esi+ebx+1]
  000b0	46		 inc	 esi
  000b1	84 c0		 test	 al, al
  000b3	75 eb		 jne	 SHORT $LL8@DoRealData

; 918  : 		if (pData[nPos] == cParser || nPos>=nEndPos)

  000b5	eb 06		 jmp	 SHORT $LN9@DoRealData
$LN26@DoRealData:

; 920  : 			nPos++;

  000b7	46		 inc	 esi

; 921  : 			aString[nDataIdx] = 0;

  000b8	c6 44 0d e4 00	 mov	 BYTE PTR _aKey$[ebp+ecx], 0
$LN9@DoRealData:

; 916  : 	while (pData[nPos] != 0x00)

  000bd	8a 04 1e	 mov	 al, BYTE PTR [esi+ebx]
  000c0	33 c9		 xor	 ecx, ecx
  000c2	84 c0		 test	 al, al
  000c4	74 27		 je	 SHORT $LN16@DoRealData

; 912  : 
; 913  : int CPartnerManager::_DoParser(char cParser, LPTSTR pData, int &nPos, int nEndPos, char* aString)
; 914  : {
; 915  : 	int nDataIdx=0;

  000c6	8d 55 b0	 lea	 edx, DWORD PTR _aValue$[ebp]
  000c9	2b d6		 sub	 edx, esi
  000cb	0f 1f 44 00 00	 npad	 5
$LL15@DoRealData:

; 917  : 	{
; 918  : 		if (pData[nPos] == cParser || nPos>=nEndPos)

  000d0	3c 09		 cmp	 al, 9
  000d2	74 13		 je	 SHORT $LN27@DoRealData
  000d4	3b f7		 cmp	 esi, edi
  000d6	7d 0f		 jge	 SHORT $LN27@DoRealData

; 922  : 			return nDataIdx;
; 923  : 		}
; 924  : 		else
; 925  : 			aString[nDataIdx++] = pData[nPos++];

  000d8	88 04 32	 mov	 BYTE PTR [edx+esi], al
  000db	41		 inc	 ecx
  000dc	8a 44 1e 01	 mov	 al, BYTE PTR [esi+ebx+1]
  000e0	46		 inc	 esi
  000e1	84 c0		 test	 al, al
  000e3	75 eb		 jne	 SHORT $LL15@DoRealData

; 917  : 	{
; 918  : 		if (pData[nPos] == cParser || nPos>=nEndPos)

  000e5	eb 06		 jmp	 SHORT $LN16@DoRealData
$LN27@DoRealData:

; 919  : 		{
; 920  : 			nPos++;

  000e7	46		 inc	 esi

; 921  : 			aString[nDataIdx] = 0;

  000e8	c6 44 0d b0 00	 mov	 BYTE PTR _aValue$[ebp+ecx], 0
$LN16@DoRealData:
; File C:\Program Files (x86)\Microsoft Visual Studio\2019\Community\VC\Tools\MSVC\14.29.30133\atlmfc\include\afxcoll.inl

; 658  : 	{ (*this)[key] = newValue; }

  000ed	8b 4d ac	 mov	 ecx, DWORD PTR _pMap$GSCopy$1$[ebp]
  000f0	8d 45 b0	 lea	 eax, DWORD PTR _aValue$[ebp]
  000f3	50		 push	 eax
  000f4	8d 45 e4	 lea	 eax, DWORD PTR _aKey$[ebp]
  000f7	50		 push	 eax
  000f8	e8 00 00 00 00	 call	 ??ACMapStringToString@@QAEAAV?$CStringT@DV?$StrTraitMFC_DLL@DV?$ChTraitsCRT@D@ATL@@@@@ATL@@PBD@Z ; CMapStringToString::operator[]
  000fd	8b c8		 mov	 ecx, eax
  000ff	ff 15 00 00 00
	00		 call	 DWORD PTR __imp_??4?$CStringT@DV?$StrTraitMFC_DLL@DV?$ChTraitsCRT@D@ATL@@@@@ATL@@QAEAAV01@PBD@Z
; File D:\git\src\IBK\IBK_DRFN\ProjSrc\SrcDrfn\DrCommon\PartnerMng\_PartnerManager.cpp

; 902  : 	while(nPos<nEndPos)

  00105	3b f7		 cmp	 esi, edi
  00107	7c 87		 jl	 SHORT $LL2@DoRealData
$LN3@DoRealData:

; 903  : 	{
; 904  : 		_DoParser(cParser, pData, nPos, nEndPos, aKey);
; 905  : 		_DoParser(cParser, pData, nPos, nEndPos, aValue);
; 906  : 
; 907  : 		pMap->SetAt(aKey, aValue);
; 908  : 	}
; 909  : 	
; 910  : 	return 1;

  00109	8d 4d a8	 lea	 ecx, DWORD PTR _strFID$[ebp]
  0010c	ff 15 00 00 00
	00		 call	 DWORD PTR __imp_??1?$CStringT@DV?$StrTraitMFC_DLL@DV?$ChTraitsCRT@D@ATL@@@@@ATL@@QAE@XZ
  00112	8d 4d a4	 lea	 ecx, DWORD PTR _strData$[ebp]
  00115	ff 15 00 00 00
	00		 call	 DWORD PTR __imp_??1?$CStringT@DV?$StrTraitMFC_DLL@DV?$ChTraitsCRT@D@ATL@@@@@ATL@@QAE@XZ
  0011b	b8 01 00 00 00	 mov	 eax, 1

; 911  : }

  00120	8b 4d f4	 mov	 ecx, DWORD PTR __$EHRec$[ebp]
  00123	64 89 0d 00 00
	00 00		 mov	 DWORD PTR fs:0, ecx
  0012a	59		 pop	 ecx
  0012b	5f		 pop	 edi
  0012c	5e		 pop	 esi
  0012d	5b		 pop	 ebx
  0012e	8b 4d f0	 mov	 ecx, DWORD PTR __$ArrayPad$[ebp]
  00131	33 cd		 xor	 ecx, ebp
  00133	e8 00 00 00 00	 call	 @__security_check_cookie@4
  00138	8b e5		 mov	 esp, ebp
  0013a	5d		 pop	 ebp
  0013b	c2 08 00	 ret	 8
_TEXT	ENDS
;	COMDAT text$x
text$x	SEGMENT
__unwindfunclet$?_DoRealDataParsing@CPartnerManager@@IAEHPADPAVCMapStringToString@@@Z$0:
  00000	8d 4d a4	 lea	 ecx, DWORD PTR _strData$[ebp]
  00003	ff 25 00 00 00
	00		 jmp	 DWORD PTR __imp_??1?$CStringT@DV?$StrTraitMFC_DLL@DV?$ChTraitsCRT@D@ATL@@@@@ATL@@QAE@XZ
__unwindfunclet$?_DoRealDataParsing@CPartnerManager@@IAEHPADPAVCMapStringToString@@@Z$1:
  00009	8d 4d a8	 lea	 ecx, DWORD PTR _strFID$[ebp]
  0000c	ff 25 00 00 00
	00		 jmp	 DWORD PTR __imp_??1?$CStringT@DV?$StrTraitMFC_DLL@DV?$ChTraitsCRT@D@ATL@@@@@ATL@@QAE@XZ
  00012	cc		 int	 3
  00013	cc		 int	 3
  00014	cc		 int	 3
  00015	cc		 int	 3
  00016	cc		 int	 3
__ehhandler$?_DoRealDataParsing@CPartnerManager@@IAEHPADPAVCMapStringToString@@@Z:
  00017	90		 npad	 1
  00018	90		 npad	 1
  00019	8b 54 24 08	 mov	 edx, DWORD PTR [esp+8]
  0001d	8d 42 0c	 lea	 eax, DWORD PTR [edx+12]
  00020	8b 4a a0	 mov	 ecx, DWORD PTR [edx-96]
  00023	33 c8		 xor	 ecx, eax
  00025	e8 00 00 00 00	 call	 @__security_check_cookie@4
  0002a	8b 4a fc	 mov	 ecx, DWORD PTR [edx-4]
  0002d	33 c8		 xor	 ecx, eax
  0002f	e8 00 00 00 00	 call	 @__security_check_cookie@4
  00034	b8 00 00 00 00	 mov	 eax, OFFSET __ehfuncinfo$?_DoRealDataParsing@CPartnerManager@@IAEHPADPAVCMapStringToString@@@Z
  00039	e9 00 00 00 00	 jmp	 ___CxxFrameHandler3
text$x	ENDS
?_DoRealDataParsing@CPartnerManager@@IAEHPADPAVCMapStringToString@@@Z ENDP ; CPartnerManager::_DoRealDataParsing
; Function compile flags: /Ogtp
; File D:\git\src\IBK\IBK_DRFN\ProjSrc\SrcDrfn\DrCommon\PartnerMng\_PartnerManager.cpp
; File C:\Program Files (x86)\Microsoft Visual Studio\2019\Community\VC\Tools\MSVC\14.29.30133\atlmfc\include\atlsimpstr.h
; File D:\git\src\IBK\IBK_DRFN\ProjSrc\SrcDrfn\DrCommon\PartnerMng\_PartnerManager.cpp
; File C:\Program Files (x86)\Microsoft Visual Studio\2019\Community\VC\Tools\MSVC\14.29.30133\atlmfc\include\atlsimpstr.h
; File D:\git\src\IBK\IBK_DRFN\ProjSrc\SrcDrfn\DrCommon\PartnerMng\_PartnerManager.cpp
; File C:\Program Files (x86)\Microsoft Visual Studio\2019\Community\VC\Tools\MSVC\14.29.30133\atlmfc\include\atlsimpstr.h
; File D:\git\src\IBK\IBK_DRFN\ProjSrc\SrcDrfn\DrCommon\PartnerMng\_PartnerManager.cpp
; File C:\Program Files (x86)\Microsoft Visual Studio\2019\Community\VC\Tools\MSVC\14.29.30133\atlmfc\include\atlsimpstr.h
; File D:\git\src\IBK\IBK_DRFN\ProjSrc\SrcDrfn\DrCommon\PartnerMng\_PartnerManager.cpp
; File C:\Program Files (x86)\Microsoft Visual Studio\2019\Community\VC\Tools\MSVC\14.29.30133\atlmfc\include\atlsimpstr.h
; File D:\git\src\IBK\IBK_DRFN\ProjSrc\SrcDrfn\DrCommon\PartnerMng\_PartnerManager.cpp
; File C:\Program Files (x86)\Microsoft Visual Studio\2019\Community\VC\Tools\MSVC\14.29.30133\atlmfc\include\atlsimpstr.h
; File D:\git\src\IBK\IBK_DRFN\ProjSrc\SrcDrfn\DrCommon\PartnerMng\_PartnerManager.cpp
; File C:\Program Files (x86)\Microsoft Visual Studio\2019\Community\VC\Tools\MSVC\14.29.30133\atlmfc\include\cstringt.h
; File D:\git\src\IBK\IBK_DRFN\ProjSrc\SrcDrfn\DrCommon\PartnerMng\_PartnerManager.cpp
; File C:\Program Files (x86)\Microsoft Visual Studio\2019\Community\VC\Tools\MSVC\14.29.30133\atlmfc\include\atlsimpstr.h
; File D:\git\src\IBK\IBK_DRFN\ProjSrc\SrcDrfn\DrCommon\PartnerMng\_PartnerManager.cpp
; File C:\Program Files (x86)\Microsoft Visual Studio\2019\Community\VC\Tools\MSVC\14.29.30133\atlmfc\include\atlsimpstr.h
; File D:\git\src\IBK\IBK_DRFN\ProjSrc\SrcDrfn\DrCommon\PartnerMng\_PartnerManager.cpp
; File C:\Program Files (x86)\Microsoft Visual Studio\2019\Community\VC\Tools\MSVC\14.29.30133\atlmfc\include\atlsimpstr.h
; File D:\git\src\IBK\IBK_DRFN\ProjSrc\SrcDrfn\DrCommon\PartnerMng\_PartnerManager.cpp
; File C:\Program Files (x86)\Microsoft Visual Studio\2019\Community\VC\Tools\MSVC\14.29.30133\atlmfc\include\atlsimpstr.h
; File D:\git\src\IBK\IBK_DRFN\ProjSrc\SrcDrfn\DrCommon\PartnerMng\_PartnerManager.cpp
; File C:\Program Files (x86)\Microsoft Visual Studio\2019\Community\VC\Tools\MSVC\14.29.30133\atlmfc\include\atlsimpstr.h
; File D:\git\src\IBK\IBK_DRFN\ProjSrc\SrcDrfn\DrCommon\PartnerMng\_PartnerManager.cpp
; File C:\Program Files (x86)\Microsoft Visual Studio\2019\Community\VC\Tools\MSVC\14.29.30133\atlmfc\include\cstringt.h
; File D:\git\src\IBK\IBK_DRFN\ProjSrc\SrcDrfn\DrCommon\PartnerMng\_PartnerManager.cpp
; File C:\Program Files (x86)\Microsoft Visual Studio\2019\Community\VC\Tools\MSVC\14.29.30133\atlmfc\include\atlsimpstr.h
; File C:\Program Files (x86)\Microsoft Visual Studio\2019\Community\VC\Tools\MSVC\14.29.30133\atlmfc\include\cstringt.h
; File D:\git\src\IBK\IBK_DRFN\ProjSrc\SrcDrfn\DrCommon\PartnerMng\_PartnerManager.cpp
; File C:\Program Files (x86)\Microsoft Visual Studio\2019\Community\VC\Tools\MSVC\14.29.30133\atlmfc\include\atlsimpstr.h
; File D:\git\src\IBK\IBK_DRFN\ProjSrc\SrcDrfn\DrCommon\PartnerMng\_PartnerManager.cpp
; File C:\Program Files (x86)\Microsoft Visual Studio\2019\Community\VC\Tools\MSVC\14.29.30133\atlmfc\include\atlsimpstr.h
; File D:\git\src\IBK\IBK_DRFN\ProjSrc\SrcDrfn\DrCommon\PartnerMng\_PartnerManager.cpp
; File C:\Program Files (x86)\Microsoft Visual Studio\2019\Community\VC\Tools\MSVC\14.29.30133\atlmfc\include\atlsimpstr.h
; File D:\git\src\IBK\IBK_DRFN\ProjSrc\SrcDrfn\DrCommon\PartnerMng\_PartnerManager.cpp
;	COMDAT ?ReceiveRealDataEx_Sub@CPartnerManager@@IAEHAAV?$CStringT@DV?$StrTraitMFC_DLL@DV?$ChTraitsCRT@D@ATL@@@@@ATL@@HHPAK@Z
_TEXT	SEGMENT
_RealData$ = -108					; size = 56
_szDebug$ = -52						; size = 4
_this$1$ = -48						; size = 4
tv1313 = -44						; size = 8
tv719 = -44						; size = 8
tv692 = -44						; size = 8
tv665 = -44						; size = 8
tv638 = -44						; size = 8
tv611 = -44						; size = 8
tv401 = -44						; size = 8
_cType$2 = -40						; size = 1
$T3 = -40						; size = 4
tv1306 = -36						; size = 8
_dRate$4 = -36						; size = 8
tv375 = -36						; size = 8
$T5 = -32						; size = 4
$T6 = -28						; size = 4
_szUpLimit$ = -24					; size = 4
_szDnLimit$ = -20					; size = 4
tv1182 = -16						; size = 4
__$EHRec$ = -12						; size = 12
_nPcnt$7 = 8						; size = 4
$T8 = 8							; size = 4
$T9 = 8							; size = 4
$T10 = 8						; size = 4
_strCode$ = 8						; size = 4
$T11 = 11						; size = 1
_strGB$12 = 12						; size = 4
$T13 = 12						; size = 4
_nCodeType$ = 12					; size = 4
_nKey$ = 16						; size = 4
tv1183 = 20						; size = 4
_strTextType$14 = 20					; size = 4
$T15 = 20						; size = 4
$T16 = 20						; size = 4
$T17 = 20						; size = 4
_szFlag$18 = 20						; size = 4
_pArrData$ = 20						; size = 4
$T19 = 23						; size = 1
?ReceiveRealDataEx_Sub@CPartnerManager@@IAEHAAV?$CStringT@DV?$StrTraitMFC_DLL@DV?$ChTraitsCRT@D@ATL@@@@@ATL@@HHPAK@Z PROC ; CPartnerManager::ReceiveRealDataEx_Sub, COMDAT
; _this$ = ecx

; 657  : {

  00000	55		 push	 ebp
  00001	8b ec		 mov	 ebp, esp
  00003	6a ff		 push	 -1
  00005	68 00 00 00 00	 push	 __ehhandler$?ReceiveRealDataEx_Sub@CPartnerManager@@IAEHAAV?$CStringT@DV?$StrTraitMFC_DLL@DV?$ChTraitsCRT@D@ATL@@@@@ATL@@HHPAK@Z
  0000a	64 a1 00 00 00
	00		 mov	 eax, DWORD PTR fs:0
  00010	50		 push	 eax
  00011	83 ec 60	 sub	 esp, 96			; 00000060H
  00014	53		 push	 ebx
  00015	56		 push	 esi
  00016	57		 push	 edi
  00017	a1 00 00 00 00	 mov	 eax, DWORD PTR ___security_cookie
  0001c	33 c5		 xor	 eax, ebp
  0001e	50		 push	 eax
  0001f	8d 45 f4	 lea	 eax, DWORD PTR __$EHRec$[ebp]
  00022	64 a3 00 00 00
	00		 mov	 DWORD PTR fs:0, eax
  00028	8b f1		 mov	 esi, ecx
  0002a	89 75 d0	 mov	 DWORD PTR _this$1$[ebp], esi
  0002d	33 db		 xor	 ebx, ebx

; 658  : 	CString szDebug;

  0002f	8d 4d cc	 lea	 ecx, DWORD PTR _szDebug$[ebp]
  00032	89 5d e4	 mov	 DWORD PTR $T6[ebp], ebx
  00035	ff 15 00 00 00
	00		 call	 DWORD PTR __imp_??0?$CStringT@DV?$StrTraitMFC_DLL@DV?$ChTraitsCRT@D@ATL@@@@@ATL@@QAE@XZ

; 659  : 	m_pPtSite->RecieveRealDataEx(1, strCode, (LONG)pArrData);

  0003b	8b 55 08	 mov	 edx, DWORD PTR _strCode$[ebp]
  0003e	8b 46 20	 mov	 eax, DWORD PTR [esi+32]
  00041	8b 7d 14	 mov	 edi, DWORD PTR _pArrData$[ebp]
  00044	57		 push	 edi
  00045	ff 32		 push	 DWORD PTR [edx]
  00047	8b 08		 mov	 ecx, DWORD PTR [eax]
  00049	6a 01		 push	 1
  0004b	50		 push	 eax
  0004c	89 5d fc	 mov	 DWORD PTR __$EHRec$[ebp+8], ebx
  0004f	ff 51 10	 call	 DWORD PTR [ecx+16]

; 660  : 	//<<20100316_JS.Kim FX
; 661  : 	if (CMasterTypeInfo::FX_CHART == nCodeType)

  00052	8b 75 0c	 mov	 esi, DWORD PTR _nCodeType$[ebp]
  00055	83 fe 09	 cmp	 esi, 9
  00058	0f 84 28 09 00
	00		 je	 $LN186@ReceiveRea

; 662  : 		return TRUE;
; 663  : 	//>>
; 664  : 
; 665  :  	BOOL bSign = FALSE;
; 666  :  	CRealData_Common RealData;

  0005e	8d 4d 94	 lea	 ecx, DWORD PTR _RealData$[ebp]
  00061	ff 15 00 00 00
	00		 call	 DWORD PTR __imp_??0?$CStringT@DV?$StrTraitMFC_DLL@DV?$ChTraitsCRT@D@ATL@@@@@ATL@@QAE@XZ
  00067	8d 4d 98	 lea	 ecx, DWORD PTR _RealData$[ebp+4]
  0006a	ff 15 00 00 00
	00		 call	 DWORD PTR __imp_??0?$CStringT@DV?$StrTraitMFC_DLL@DV?$ChTraitsCRT@D@ATL@@@@@ATL@@QAE@XZ
  00070	8d 4d 9c	 lea	 ecx, DWORD PTR _RealData$[ebp+8]
  00073	ff 15 00 00 00
	00		 call	 DWORD PTR __imp_??0?$CStringT@DV?$StrTraitMFC_DLL@DV?$ChTraitsCRT@D@ATL@@@@@ATL@@QAE@XZ
  00079	8d 4d a0	 lea	 ecx, DWORD PTR _RealData$[ebp+12]
  0007c	ff 15 00 00 00
	00		 call	 DWORD PTR __imp_??0?$CStringT@DV?$StrTraitMFC_DLL@DV?$ChTraitsCRT@D@ATL@@@@@ATL@@QAE@XZ
  00082	8d 4d a4	 lea	 ecx, DWORD PTR _RealData$[ebp+16]
  00085	ff 15 00 00 00
	00		 call	 DWORD PTR __imp_??0?$CStringT@DV?$StrTraitMFC_DLL@DV?$ChTraitsCRT@D@ATL@@@@@ATL@@QAE@XZ
  0008b	8d 4d a8	 lea	 ecx, DWORD PTR _RealData$[ebp+20]
  0008e	ff 15 00 00 00
	00		 call	 DWORD PTR __imp_??0?$CStringT@DV?$StrTraitMFC_DLL@DV?$ChTraitsCRT@D@ATL@@@@@ATL@@QAE@XZ
  00094	8d 4d ac	 lea	 ecx, DWORD PTR _RealData$[ebp+24]
  00097	ff 15 00 00 00
	00		 call	 DWORD PTR __imp_??0?$CStringT@DV?$StrTraitMFC_DLL@DV?$ChTraitsCRT@D@ATL@@@@@ATL@@QAE@XZ
  0009d	8d 4d b0	 lea	 ecx, DWORD PTR _RealData$[ebp+28]
  000a0	ff 15 00 00 00
	00		 call	 DWORD PTR __imp_??0?$CStringT@DV?$StrTraitMFC_DLL@DV?$ChTraitsCRT@D@ATL@@@@@ATL@@QAE@XZ
  000a6	8d 4d b4	 lea	 ecx, DWORD PTR _RealData$[ebp+32]
  000a9	ff 15 00 00 00
	00		 call	 DWORD PTR __imp_??0?$CStringT@DV?$StrTraitMFC_DLL@DV?$ChTraitsCRT@D@ATL@@@@@ATL@@QAE@XZ
  000af	8d 4d b8	 lea	 ecx, DWORD PTR _RealData$[ebp+36]
  000b2	ff 15 00 00 00
	00		 call	 DWORD PTR __imp_??0?$CStringT@DV?$StrTraitMFC_DLL@DV?$ChTraitsCRT@D@ATL@@@@@ATL@@QAE@XZ
  000b8	8d 4d bc	 lea	 ecx, DWORD PTR _RealData$[ebp+40]
  000bb	ff 15 00 00 00
	00		 call	 DWORD PTR __imp_??0?$CStringT@DV?$StrTraitMFC_DLL@DV?$ChTraitsCRT@D@ATL@@@@@ATL@@QAE@XZ
  000c1	8d 4d c8	 lea	 ecx, DWORD PTR _RealData$[ebp+52]
  000c4	ff 15 00 00 00
	00		 call	 DWORD PTR __imp_??0?$CStringT@DV?$StrTraitMFC_DLL@DV?$ChTraitsCRT@D@ATL@@@@@ATL@@QAE@XZ

; 667  : 
; 668  : 	if (bSign)	RealData.m_strPrice = (char*)pArrData[111];
; 669  : 	else		RealData.m_strPrice = (char*)pArrData[ 23];

  000ca	ff 77 5c	 push	 DWORD PTR [edi+92]
  000cd	8d 4d a0	 lea	 ecx, DWORD PTR _RealData$[ebp+12]
  000d0	c6 45 fc 01	 mov	 BYTE PTR __$EHRec$[ebp+8], 1
  000d4	ff 15 00 00 00
	00		 call	 DWORD PTR __imp_??4?$CStringT@DV?$StrTraitMFC_DLL@DV?$ChTraitsCRT@D@ATL@@@@@ATL@@QAEAAV01@PBD@Z

; 670  : 
; 671  : 	//   .
; 672  : 	//mapRealData.Lookup("027", RealData.m_strVolume);	//
; 673  : 	//<<20100419_JS.Kim   .
; 674  : 	//RealData.m_strVolume = (char*)pArrData[ 27];
; 675  : 	if( nCodeType == CMasterTypeInfo::FO_FOREIGN_CHART )

  000da	83 fe 08	 cmp	 esi, 8
  000dd	75 63		 jne	 SHORT $LN7@ReceiveRea

; 678  : 		CString szFlag = (char*)pArrData[0];

  000df	ff 37		 push	 DWORD PTR [edi]
  000e1	8d 4d 14	 lea	 ecx, DWORD PTR _szFlag$18[ebp]
  000e4	ff 15 00 00 00
	00		 call	 DWORD PTR __imp_??0?$CStringT@DV?$StrTraitMFC_DLL@DV?$ChTraitsCRT@D@ATL@@@@@ATL@@QAE@PBD@Z
; File C:\Program Files (x86)\Microsoft Visual Studio\2019\Community\VC\Tools\MSVC\14.29.30133\atlmfc\include\atlsimpstr.h

; 519  : 		return( GetData()->nDataLength );

  000ea	8b 45 14	 mov	 eax, DWORD PTR _szFlag$18[ebp]
; File D:\git\src\IBK\IBK_DRFN\ProjSrc\SrcDrfn\DrCommon\PartnerMng\_PartnerManager.cpp

; 678  : 		CString szFlag = (char*)pArrData[0];

  000ed	c6 45 fc 02	 mov	 BYTE PTR __$EHRec$[ebp+8], 2
; File C:\Program Files (x86)\Microsoft Visual Studio\2019\Community\VC\Tools\MSVC\14.29.30133\atlmfc\include\atlsimpstr.h

; 533  : 		return( GetLength() == 0 );

  000f1	39 58 f4	 cmp	 DWORD PTR [eax-12], ebx
; File D:\git\src\IBK\IBK_DRFN\ProjSrc\SrcDrfn\DrCommon\PartnerMng\_PartnerManager.cpp

; 679  : 		if (szFlag.IsEmpty() || szFlag.GetAt(0) != '1')

  000f4	74 44		 je	 SHORT $LN10@ReceiveRea
  000f6	53		 push	 ebx
  000f7	8d 4d 14	 lea	 ecx, DWORD PTR _szFlag$18[ebp]
  000fa	ff 15 00 00 00
	00		 call	 DWORD PTR __imp_?GetAt@?$CSimpleStringT@D$00@ATL@@QBEDH@Z
  00100	3c 31		 cmp	 al, 49			; 00000031H
  00102	75 36		 jne	 SHORT $LN10@ReceiveRea

; 689  : 		}
; 690  : 
; 691  : 		//alzioyes:100701     ?
; 692  : 		//RealData.m_strVolume = (char*)pArrData[ 32];
; 693  : 		RealData.m_strVolume = (char*)pArrData[ 27];

  00104	ff 77 6c	 push	 DWORD PTR [edi+108]
  00107	8d 4d ac	 lea	 ecx, DWORD PTR _RealData$[ebp+24]
  0010a	ff 15 00 00 00
	00		 call	 DWORD PTR __imp_??4?$CStringT@DV?$StrTraitMFC_DLL@DV?$ChTraitsCRT@D@ATL@@@@@ATL@@QAEAAV01@PBD@Z

; 694  : 		RealData.m_strVolume.Remove('-');

  00110	6a 2d		 push	 45			; 0000002dH
  00112	8d 4d ac	 lea	 ecx, DWORD PTR _RealData$[ebp+24]
  00115	ff 15 00 00 00
	00		 call	 DWORD PTR __imp_?Remove@?$CStringT@DV?$StrTraitMFC_DLL@DV?$ChTraitsCRT@D@ATL@@@@@ATL@@QAEHD@Z

; 695  : 		RealData.m_strVolume.Remove('+');

  0011b	6a 2b		 push	 43			; 0000002bH
  0011d	8d 4d ac	 lea	 ecx, DWORD PTR _RealData$[ebp+24]
  00120	ff 15 00 00 00
	00		 call	 DWORD PTR __imp_?Remove@?$CStringT@DV?$StrTraitMFC_DLL@DV?$ChTraitsCRT@D@ATL@@@@@ATL@@QAEHD@Z

; 696  : 	}

  00126	8d 4d 14	 lea	 ecx, DWORD PTR _szFlag$18[ebp]
  00129	c6 45 fc 01	 mov	 BYTE PTR __$EHRec$[ebp+8], 1
  0012d	ff 15 00 00 00
	00		 call	 DWORD PTR __imp_??1?$CStringT@DV?$StrTraitMFC_DLL@DV?$ChTraitsCRT@D@ATL@@@@@ATL@@QAE@XZ

; 707  : 	}
; 708  : 
; 709  : 	//@solomon	FO   .
; 710  : 	if (nCodeType != CMasterTypeInfo::FUOPT_JIPYO_CHART)

  00133	89 5d 14	 mov	 DWORD PTR tv1183[ebp], ebx
  00136	33 c9		 xor	 ecx, ecx
  00138	eb 47		 jmp	 SHORT $LN188@ReceiveRea
$LN10@ReceiveRea:

; 680  : 		{
; 681  : //	,DRFN Platform ,      ]
; 682  : 			//if (g_pDRDebuger)
; 683  : 			//{
; 684  : 			//	CString strTemp;	strTemp.Format(_T("*** not contract data : code[%s], price[%s]"), strCode, RealData.m_strPrice);
; 685  : 			//	g_pDRDebuger->DRLog_Message(strTemp);
; 686  : 			//}
; 687  : 
; 688  : 			return TRUE;

  0013a	8d 4d 14	 lea	 ecx, DWORD PTR _szFlag$18[ebp]
  0013d	e9 d2 07 00 00	 jmp	 $LN198@ReceiveRea
$LN7@ReceiveRea:

; 697  : 	else
; 698  : 	{
; 699  : 		RealData.m_strVolume = (char*)pArrData[ 27];

  00142	ff 77 6c	 push	 DWORD PTR [edi+108]
  00145	8d 4d ac	 lea	 ecx, DWORD PTR _RealData$[ebp+24]
  00148	ff 15 00 00 00
	00		 call	 DWORD PTR __imp_??4?$CStringT@DV?$StrTraitMFC_DLL@DV?$ChTraitsCRT@D@ATL@@@@@ATL@@QAEAAV01@PBD@Z

; 703  : 	if ((nCodeType == CMasterTypeInfo::STOCK_CHART) && RealData.m_strVolume.IsEmpty())

  0014e	85 f6		 test	 esi, esi
  00150	75 21		 jne	 SHORT $LN11@ReceiveRea
; File C:\Program Files (x86)\Microsoft Visual Studio\2019\Community\VC\Tools\MSVC\14.29.30133\atlmfc\include\atlsimpstr.h

; 519  : 		return( GetData()->nDataLength );

  00152	8b 45 ac	 mov	 eax, DWORD PTR _RealData$[ebp+24]

; 533  : 		return( GetLength() == 0 );

  00155	39 70 f4	 cmp	 DWORD PTR [eax-12], esi
; File D:\git\src\IBK\IBK_DRFN\ProjSrc\SrcDrfn\DrCommon\PartnerMng\_PartnerManager.cpp

; 703  : 	if ((nCodeType == CMasterTypeInfo::STOCK_CHART) && RealData.m_strVolume.IsEmpty())

  00158	75 19		 jne	 SHORT $LN11@ReceiveRea

; 704  : 	{
; 705  : 		RealData.m_strVolume = (char*)pArrData[112];	//

  0015a	ff b7 c0 01 00
	00		 push	 DWORD PTR [edi+448]
  00160	8d 4d ac	 lea	 ecx, DWORD PTR _RealData$[ebp+24]
  00163	ff 15 00 00 00
	00		 call	 DWORD PTR __imp_??4?$CStringT@DV?$StrTraitMFC_DLL@DV?$ChTraitsCRT@D@ATL@@@@@ATL@@QAEAAV01@PBD@Z

; 706  : 		bSign = TRUE;

  00169	b9 01 00 00 00	 mov	 ecx, 1
  0016e	89 4d 14	 mov	 DWORD PTR tv1183[ebp], ecx
  00171	eb 0e		 jmp	 SHORT $LN188@ReceiveRea
$LN11@ReceiveRea:

; 707  : 	}
; 708  : 
; 709  : 	//@solomon	FO   .
; 710  : 	if (nCodeType != CMasterTypeInfo::FUOPT_JIPYO_CHART)

  00173	33 c9		 xor	 ecx, ecx
  00175	c7 45 14 00 00
	00 00		 mov	 DWORD PTR tv1183[ebp], 0
  0017c	83 fe 05	 cmp	 esi, 5
  0017f	74 19		 je	 SHORT $LN14@ReceiveRea
$LN188@ReceiveRea:
; File C:\Program Files (x86)\Microsoft Visual Studio\2019\Community\VC\Tools\MSVC\14.29.30133\atlmfc\include\atlsimpstr.h

; 519  : 		return( GetData()->nDataLength );

  00181	8b 45 ac	 mov	 eax, DWORD PTR _RealData$[ebp+24]

; 533  : 		return( GetLength() == 0 );

  00184	83 78 f4 00	 cmp	 DWORD PTR [eax-12], 0
; File D:\git\src\IBK\IBK_DRFN\ProjSrc\SrcDrfn\DrCommon\PartnerMng\_PartnerManager.cpp

; 712  : 		if (RealData.m_strVolume.IsEmpty() == TRUE)

  00188	0f 84 8c 07 00
	00		 je	 $LN92@ReceiveRea

; 713  : 		{
; 714  : //	,DRFN Platform ,      ]
; 715  : 			//if (g_pDRDebuger)
; 716  : 			//{
; 717  : 			//	CString strTemp;	strTemp.Format(_T("*** no volume : code[%s], price[%s]"), strCode, RealData.m_strPrice);
; 718  : 			//	g_pDRDebuger->DRLog_Message(strTemp);
; 719  : 			//}
; 720  : 
; 721  : 			return TRUE;
; 722  : 		}
; 723  : 	}
; 724  : 
; 725  : 	if (bSign)	RealData.m_strPrice = (char*)pArrData[111];

  0018e	85 c9		 test	 ecx, ecx
  00190	74 08		 je	 SHORT $LN14@ReceiveRea
  00192	ff b7 bc 01 00
	00		 push	 DWORD PTR [edi+444]
  00198	eb 03		 jmp	 SHORT $LN199@ReceiveRea
$LN14@ReceiveRea:

; 726  : 	else		RealData.m_strPrice = (char*)pArrData[ 23];

  0019a	ff 77 5c	 push	 DWORD PTR [edi+92]
$LN199@ReceiveRea:

; 727  : 
; 728  : 	RealData.m_strPrice.TrimLeft();

  0019d	8d 4d a0	 lea	 ecx, DWORD PTR _RealData$[ebp+12]
  001a0	ff 15 00 00 00
	00		 call	 DWORD PTR __imp_??4?$CStringT@DV?$StrTraitMFC_DLL@DV?$ChTraitsCRT@D@ATL@@@@@ATL@@QAEAAV01@PBD@Z
  001a6	8d 4d a0	 lea	 ecx, DWORD PTR _RealData$[ebp+12]
  001a9	ff 15 00 00 00
	00		 call	 DWORD PTR __imp_?TrimLeft@?$CStringT@DV?$StrTraitMFC_DLL@DV?$ChTraitsCRT@D@ATL@@@@@ATL@@QAEAAV12@XZ

; 729  : 	RealData.m_strPrice.TrimRight();

  001af	8d 4d a0	 lea	 ecx, DWORD PTR _RealData$[ebp+12]
  001b2	ff 15 00 00 00
	00		 call	 DWORD PTR __imp_?TrimRight@?$CStringT@DV?$StrTraitMFC_DLL@DV?$ChTraitsCRT@D@ATL@@@@@ATL@@QAEAAV12@XZ

; 730  : 	if (RealData.m_strPrice.GetLength() == 0)
; 731  : 		bSign = FALSE;
; 732  : 
; 733  : 	//20110124_alzioyes:FO(FUOPT_JIPYO_CHART)  .
; 734  : 	if( nCodeType == CMasterTypeInfo::FUOPT_JIPYO_CHART )

  001b8	8b 4d a0	 mov	 ecx, DWORD PTR _RealData$[ebp+12]
  001bb	33 c0		 xor	 eax, eax
  001bd	39 41 f4	 cmp	 DWORD PTR [ecx-12], eax
  001c0	0f 45 45 14	 cmovne	 eax, DWORD PTR tv1183[ebp]
  001c4	89 45 f0	 mov	 DWORD PTR tv1182[ebp], eax
  001c7	83 fe 05	 cmp	 esi, 5
  001ca	75 26		 jne	 SHORT $LN17@ReceiveRea

; 735  : 		RealData.m_strPrice.Format("%.2f", (atof(RealData.m_strPrice)/100));

  001cc	51		 push	 ecx
  001cd	ff 15 00 00 00
	00		 call	 DWORD PTR __imp__atof
  001d3	dc 35 00 00 00
	00		 fdiv	 QWORD PTR __real@4059000000000000
  001d9	8d 45 a0	 lea	 eax, DWORD PTR _RealData$[ebp+12]
  001dc	51		 push	 ecx
  001dd	dd 1c 24	 fstp	 QWORD PTR [esp]
  001e0	68 00 00 00 00	 push	 OFFSET ??_C@_04GEFJINEE@?$CF?42f@
  001e5	50		 push	 eax
  001e6	ff 15 00 00 00
	00		 call	 DWORD PTR __imp_?Format@?$CStringT@DV?$StrTraitMFC_DLL@DV?$ChTraitsCRT@D@ATL@@@@@ATL@@QAAXPBDZZ
  001ec	8b 45 f0	 mov	 eax, DWORD PTR tv1182[ebp]
  001ef	83 c4 10	 add	 esp, 16			; 00000010H
$LN17@ReceiveRea:

; 736  : 
; 737  : 	RealData.m_bIsRealJang	= !bSign;
; 738  : 	RealData.m_strCode		= strCode;

  001f2	ff 75 08	 push	 DWORD PTR _strCode$[ebp]
  001f5	83 f0 01	 xor	 eax, 1
  001f8	8d 4d 94	 lea	 ecx, DWORD PTR _RealData$[ebp]
  001fb	89 45 c4	 mov	 DWORD PTR _RealData$[ebp+48], eax
  001fe	ff 15 00 00 00
	00		 call	 DWORD PTR __imp_??4?$CStringT@DV?$StrTraitMFC_DLL@DV?$ChTraitsCRT@D@ATL@@@@@ATL@@QAEAAV01@ABV01@@Z

; 739  : 
; 740  : 	CString szUpLimit, szDnLimit;

  00204	8d 4d e8	 lea	 ecx, DWORD PTR _szUpLimit$[ebp]
  00207	ff 15 00 00 00
	00		 call	 DWORD PTR __imp_??0?$CStringT@DV?$StrTraitMFC_DLL@DV?$ChTraitsCRT@D@ATL@@@@@ATL@@QAE@XZ
  0020d	8d 4d ec	 lea	 ecx, DWORD PTR _szDnLimit$[ebp]
  00210	ff 15 00 00 00
	00		 call	 DWORD PTR __imp_??0?$CStringT@DV?$StrTraitMFC_DLL@DV?$ChTraitsCRT@D@ATL@@@@@ATL@@QAE@XZ

; 741  : 	szUpLimit = (char*)pArrData[302];	//.

  00216	ff b7 b8 04 00
	00		 push	 DWORD PTR [edi+1208]
  0021c	8d 4d e8	 lea	 ecx, DWORD PTR _szUpLimit$[ebp]
  0021f	c6 45 fc 04	 mov	 BYTE PTR __$EHRec$[ebp+8], 4
  00223	ff 15 00 00 00
	00		 call	 DWORD PTR __imp_??4?$CStringT@DV?$StrTraitMFC_DLL@DV?$ChTraitsCRT@D@ATL@@@@@ATL@@QAEAAV01@PBD@Z

; 742  : 	szDnLimit = (char*)pArrData[303];	//.

  00229	ff b7 bc 04 00
	00		 push	 DWORD PTR [edi+1212]
  0022f	8d 4d ec	 lea	 ecx, DWORD PTR _szDnLimit$[ebp]
  00232	ff 15 00 00 00
	00		 call	 DWORD PTR __imp_??4?$CStringT@DV?$StrTraitMFC_DLL@DV?$ChTraitsCRT@D@ATL@@@@@ATL@@QAEAAV01@PBD@Z

; 743  : 
; 744  : 	// -------------------------------------------------------
; 745  : 	RealData.m_strTime = (char*)pArrData[ 34];	//

  00238	ff b7 88 00 00
	00		 push	 DWORD PTR [edi+136]
  0023e	8d 4d 98	 lea	 ecx, DWORD PTR _RealData$[ebp+4]
  00241	ff 15 00 00 00
	00		 call	 DWORD PTR __imp_??4?$CStringT@DV?$StrTraitMFC_DLL@DV?$ChTraitsCRT@D@ATL@@@@@ATL@@QAEAAV01@PBD@Z

; 746  : 
; 747  : //@solomon	(  ..)
; 748  : //	mapRealData.Lookup("035", RealData.m_strTime2);	//( )
; 749  : 
; 750  : 	if (RealData.m_strTime.CompareNoCase(_T("")) == 0)

  00247	68 00 00 00 00	 push	 OFFSET ??_C@_06EGKLOHMB@?$MA?e?A?$LO?$LH?a@
  0024c	8d 4d 98	 lea	 ecx, DWORD PTR _RealData$[ebp+4]
  0024f	ff 15 00 00 00
	00		 call	 DWORD PTR __imp_?CompareNoCase@?$CStringT@DV?$StrTraitMFC_DLL@DV?$ChTraitsCRT@D@ATL@@@@@ATL@@QBEHPBD@Z
  00255	8d 4d 98	 lea	 ecx, DWORD PTR _RealData$[ebp+4]
  00258	85 c0		 test	 eax, eax
  0025a	75 07		 jne	 SHORT $LN18@ReceiveRea

; 751  : 		RealData.m_strTime = _T("9999");

  0025c	68 00 00 00 00	 push	 OFFSET ??_C@_04DNPBDGJL@9999@
  00261	eb 17		 jmp	 SHORT $LN200@ReceiveRea
$LN18@ReceiveRea:

; 752  : 	else if (RealData.m_strTime.CompareNoCase(_T("")) == 0)

  00263	68 00 00 00 00	 push	 OFFSET ??_C@_06FDCJKPFJ@?$MA?e?$LI?$LG?$LA?$KI@
  00268	ff 15 00 00 00
	00		 call	 DWORD PTR __imp_?CompareNoCase@?$CStringT@DV?$StrTraitMFC_DLL@DV?$ChTraitsCRT@D@ATL@@@@@ATL@@QBEHPBD@Z
  0026e	85 c0		 test	 eax, eax
  00270	75 0e		 jne	 SHORT $LN20@ReceiveRea

; 753  : 		RealData.m_strTime = _T("8888");

  00272	68 00 00 00 00	 push	 OFFSET ??_C@_04KAPECDDI@8888@
  00277	8d 4d 98	 lea	 ecx, DWORD PTR _RealData$[ebp+4]
$LN200@ReceiveRea:

; 754  : 
; 755  : 	if (!bSign && atoi(RealData.m_strTime) <= 0)

  0027a	ff 15 00 00 00
	00		 call	 DWORD PTR __imp_??4?$CStringT@DV?$StrTraitMFC_DLL@DV?$ChTraitsCRT@D@ATL@@@@@ATL@@QAEAAV01@PBD@Z
$LN20@ReceiveRea:
  00280	83 7d f0 00	 cmp	 DWORD PTR tv1182[ebp], 0
  00284	75 14		 jne	 SHORT $LN21@ReceiveRea
  00286	ff 75 98	 push	 DWORD PTR _RealData$[ebp+4]
  00289	ff 15 00 00 00
	00		 call	 DWORD PTR __imp__atoi
  0028f	83 c4 04	 add	 esp, 4
  00292	85 c0		 test	 eax, eax
  00294	0f 8e 6e 06 00
	00		 jle	 $LN93@ReceiveRea
$LN21@ReceiveRea:

; 756  : 		return TRUE;
; 757  : 
; 758  : 	if (nCodeType != CMasterTypeInfo::FO_FOREIGN_CHART)

  0029a	83 fe 08	 cmp	 esi, 8
  0029d	74 15		 je	 SHORT $LN195@ReceiveRea

; 759  : 		RealData.m_strPrice.Remove('.');

  0029f	6a 2e		 push	 46			; 0000002eH
  002a1	8d 4d a0	 lea	 ecx, DWORD PTR _RealData$[ebp+12]
  002a4	ff 15 00 00 00
	00		 call	 DWORD PTR __imp_?Remove@?$CStringT@DV?$StrTraitMFC_DLL@DV?$ChTraitsCRT@D@ATL@@@@@ATL@@QAEHD@Z

; 768  : 		&& !RealData.m_strPrice.IsEmpty() )

  002aa	83 fe 05	 cmp	 esi, 5
  002ad	74 0e		 je	 SHORT $LN25@ReceiveRea
  002af	83 fe 02	 cmp	 esi, 2
  002b2	74 09		 je	 SHORT $LN25@ReceiveRea
$LN195@ReceiveRea:
  002b4	83 fe 03	 cmp	 esi, 3
  002b7	0f 85 c3 00 00
	00		 jne	 $LN23@ReceiveRea
$LN25@ReceiveRea:
; File C:\Program Files (x86)\Microsoft Visual Studio\2019\Community\VC\Tools\MSVC\14.29.30133\atlmfc\include\atlsimpstr.h

; 519  : 		return( GetData()->nDataLength );

  002bd	8b 45 a0	 mov	 eax, DWORD PTR _RealData$[ebp+12]

; 533  : 		return( GetLength() == 0 );

  002c0	83 78 f4 00	 cmp	 DWORD PTR [eax-12], 0
; File D:\git\src\IBK\IBK_DRFN\ProjSrc\SrcDrfn\DrCommon\PartnerMng\_PartnerManager.cpp

; 768  : 		&& !RealData.m_strPrice.IsEmpty() )

  002c4	0f 84 b6 00 00
	00		 je	 $LN23@ReceiveRea

; 770  : 		if(IS_SPREAD_CODE_1(RealData.m_strCode.Left(1)))	// // 0024696:    

  002ca	6a 01		 push	 1
  002cc	8d 45 d8	 lea	 eax, DWORD PTR $T3[ebp]
  002cf	50		 push	 eax
  002d0	8d 4d 94	 lea	 ecx, DWORD PTR _RealData$[ebp]
  002d3	ff 15 00 00 00
	00		 call	 DWORD PTR __imp_?Left@?$CStringT@DV?$StrTraitMFC_DLL@DV?$ChTraitsCRT@D@ATL@@@@@ATL@@QBE?AV12@H@Z
; File C:\Program Files (x86)\Microsoft Visual Studio\2019\Community\VC\Tools\MSVC\14.29.30133\atlmfc\include\atlsimpstr.h

; 519  : 		return( GetData()->nDataLength );

  002d9	8b 08		 mov	 ecx, DWORD PTR [eax]
; File D:\git\src\IBK\IBK_DRFN\ProjSrc\SrcDrfn\DrCommon\PartnerMng\_PartnerManager.cpp

; 770  : 		if(IS_SPREAD_CODE_1(RealData.m_strCode.Left(1)))	// // 0024696:    

  002db	bb 01 00 00 00	 mov	 ebx, 1
  002e0	c6 45 fc 05	 mov	 BYTE PTR __$EHRec$[ebp+8], 5
  002e4	89 5d e4	 mov	 DWORD PTR $T6[ebp], ebx
; File C:\Program Files (x86)\Microsoft Visual Studio\2019\Community\VC\Tools\MSVC\14.29.30133\atlmfc\include\cstringt.h

; 2510 : 		return((str1.GetLength() == 1) && (str1[0] == ch2));

  002e7	39 59 f4	 cmp	 DWORD PTR [ecx-12], ebx
  002ea	75 0e		 jne	 SHORT $LN133@ReceiveRea
  002ec	6a 00		 push	 0
  002ee	8b c8		 mov	 ecx, eax
  002f0	ff 15 00 00 00
	00		 call	 DWORD PTR __imp_??A?$CSimpleStringT@D$00@ATL@@QBEDH@Z
  002f6	3c 34		 cmp	 al, 52			; 00000034H
  002f8	74 27		 je	 SHORT $LN56@ReceiveRea
$LN133@ReceiveRea:
; File D:\git\src\IBK\IBK_DRFN\ProjSrc\SrcDrfn\DrCommon\PartnerMng\_PartnerManager.cpp

; 770  : 		if(IS_SPREAD_CODE_1(RealData.m_strCode.Left(1)))	// // 0024696:    

  002fa	6a 01		 push	 1
  002fc	8d 45 e0	 lea	 eax, DWORD PTR $T5[ebp]
  002ff	50		 push	 eax
  00300	8d 4d 94	 lea	 ecx, DWORD PTR _RealData$[ebp]
  00303	ff 15 00 00 00
	00		 call	 DWORD PTR __imp_?Left@?$CStringT@DV?$StrTraitMFC_DLL@DV?$ChTraitsCRT@D@ATL@@@@@ATL@@QBE?AV12@H@Z
  00309	6a 44		 push	 68			; 00000044H
  0030b	50		 push	 eax
  0030c	bb 03 00 00 00	 mov	 ebx, 3
  00311	e8 00 00 00 00	 call	 ??8ATL@@YA_NABV?$CStringT@DV?$StrTraitMFC_DLL@DV?$ChTraitsCRT@D@ATL@@@@@0@D@Z ; ATL::operator==
  00316	83 c4 08	 add	 esp, 8
  00319	c6 45 17 00	 mov	 BYTE PTR $T19[ebp], 0
  0031d	84 c0		 test	 al, al
  0031f	74 04		 je	 SHORT $LN57@ReceiveRea
$LN56@ReceiveRea:
  00321	c6 45 17 01	 mov	 BYTE PTR $T19[ebp], 1
$LN57@ReceiveRea:
  00325	f6 c3 02	 test	 bl, 2
  00328	74 0c		 je	 SHORT $LN69@ReceiveRea
  0032a	8d 4d e0	 lea	 ecx, DWORD PTR $T5[ebp]
  0032d	83 e3 fd	 and	 ebx, -3			; fffffffdH
  00330	ff 15 00 00 00
	00		 call	 DWORD PTR __imp_??1?$CStringT@DV?$StrTraitMFC_DLL@DV?$ChTraitsCRT@D@ATL@@@@@ATL@@QAE@XZ
$LN69@ReceiveRea:
  00336	c7 45 fc 04 00
	00 00		 mov	 DWORD PTR __$EHRec$[ebp+8], 4
  0033d	f6 c3 01	 test	 bl, 1
  00340	74 0c		 je	 SHORT $LN70@ReceiveRea
  00342	8d 4d d8	 lea	 ecx, DWORD PTR $T3[ebp]
  00345	83 e3 fe	 and	 ebx, -2			; fffffffeH
  00348	ff 15 00 00 00
	00		 call	 DWORD PTR __imp_??1?$CStringT@DV?$StrTraitMFC_DLL@DV?$ChTraitsCRT@D@ATL@@@@@ATL@@QAE@XZ
$LN70@ReceiveRea:
  0034e	80 7d 17 00	 cmp	 BYTE PTR $T19[ebp], 0
  00352	8d 4d a0	 lea	 ecx, DWORD PTR _RealData$[ebp+12]
  00355	74 2c		 je	 SHORT $LN26@ReceiveRea

; 771  : 			RealData.m_strPrice = RealData.m_strPrice.Mid( 1 );

  00357	6a 01		 push	 1
  00359	8d 45 14	 lea	 eax, DWORD PTR $T17[ebp]
  0035c	50		 push	 eax
  0035d	ff 15 00 00 00
	00		 call	 DWORD PTR __imp_?Mid@?$CStringT@DV?$StrTraitMFC_DLL@DV?$ChTraitsCRT@D@ATL@@@@@ATL@@QBE?AV12@H@Z
  00363	50		 push	 eax
  00364	8d 4d a0	 lea	 ecx, DWORD PTR _RealData$[ebp+12]
  00367	c6 45 fc 06	 mov	 BYTE PTR __$EHRec$[ebp+8], 6
  0036b	ff 15 00 00 00
	00		 call	 DWORD PTR __imp_??4?$CStringT@DV?$StrTraitMFC_DLL@DV?$ChTraitsCRT@D@ATL@@@@@ATL@@QAEAAV01@ABV01@@Z
  00371	8d 4d 14	 lea	 ecx, DWORD PTR $T17[ebp]
  00374	c6 45 fc 04	 mov	 BYTE PTR __$EHRec$[ebp+8], 4
  00378	ff 15 00 00 00
	00		 call	 DWORD PTR __imp_??1?$CStringT@DV?$StrTraitMFC_DLL@DV?$ChTraitsCRT@D@ATL@@@@@ATL@@QAE@XZ
  0037e	eb 0b		 jmp	 SHORT $LN24@ReceiveRea
$LN23@ReceiveRea:

; 772  : 		else
; 773  : 			RealData.m_strPrice.Remove('-');
; 774  : 	}
; 775  : 	else
; 776  : 		RealData.m_strPrice.Remove('-');

  00380	8d 4d a0	 lea	 ecx, DWORD PTR _RealData$[ebp+12]
$LN26@ReceiveRea:

; 777  : 
; 778  : 	//:1:,2:,3:,4:,5:
; 779  : 	if (bSign)	RealData.m_strChange = (char*)pArrData[115];	//

  00383	6a 2d		 push	 45			; 0000002dH
  00385	ff 15 00 00 00
	00		 call	 DWORD PTR __imp_?Remove@?$CStringT@DV?$StrTraitMFC_DLL@DV?$ChTraitsCRT@D@ATL@@@@@ATL@@QAEHD@Z
$LN24@ReceiveRea:
  0038b	83 7d f0 00	 cmp	 DWORD PTR tv1182[ebp], 0
  0038f	8d 4d a4	 lea	 ecx, DWORD PTR _RealData$[ebp+16]
  00392	74 08		 je	 SHORT $LN28@ReceiveRea
  00394	ff b7 cc 01 00
	00		 push	 DWORD PTR [edi+460]
  0039a	eb 03		 jmp	 SHORT $LN201@ReceiveRea
$LN28@ReceiveRea:

; 780  : 	else		RealData.m_strChange = (char*)pArrData[ 24];	//

  0039c	ff 77 60	 push	 DWORD PTR [edi+96]
$LN201@ReceiveRea:

; 781  : 	RealData.m_strChange = RealData.m_strChange.Mid(1);

  0039f	ff 15 00 00 00
	00		 call	 DWORD PTR __imp_??4?$CStringT@DV?$StrTraitMFC_DLL@DV?$ChTraitsCRT@D@ATL@@@@@ATL@@QAEAAV01@PBD@Z
  003a5	6a 01		 push	 1
  003a7	8d 45 14	 lea	 eax, DWORD PTR $T16[ebp]
  003aa	50		 push	 eax
  003ab	8d 4d a4	 lea	 ecx, DWORD PTR _RealData$[ebp+16]
  003ae	ff 15 00 00 00
	00		 call	 DWORD PTR __imp_?Mid@?$CStringT@DV?$StrTraitMFC_DLL@DV?$ChTraitsCRT@D@ATL@@@@@ATL@@QBE?AV12@H@Z
  003b4	50		 push	 eax
  003b5	8d 4d a4	 lea	 ecx, DWORD PTR _RealData$[ebp+16]
  003b8	c6 45 fc 07	 mov	 BYTE PTR __$EHRec$[ebp+8], 7
  003bc	ff 15 00 00 00
	00		 call	 DWORD PTR __imp_??4?$CStringT@DV?$StrTraitMFC_DLL@DV?$ChTraitsCRT@D@ATL@@@@@ATL@@QAEAAV01@ABV01@@Z
  003c2	8d 4d 14	 lea	 ecx, DWORD PTR $T16[ebp]
  003c5	c6 45 fc 04	 mov	 BYTE PTR __$EHRec$[ebp+8], 4
  003c9	ff 15 00 00 00
	00		 call	 DWORD PTR __imp_??1?$CStringT@DV?$StrTraitMFC_DLL@DV?$ChTraitsCRT@D@ATL@@@@@ATL@@QAE@XZ

; 782  : 
; 783  : 	if (bSign)	RealData.m_strChrate = (char*)pArrData[116];	//

  003cf	83 7d f0 00	 cmp	 DWORD PTR tv1182[ebp], 0
  003d3	8d 4d a8	 lea	 ecx, DWORD PTR _RealData$[ebp+20]
  003d6	74 08		 je	 SHORT $LN30@ReceiveRea
  003d8	ff b7 d0 01 00
	00		 push	 DWORD PTR [edi+464]
  003de	eb 06		 jmp	 SHORT $LN202@ReceiveRea
$LN30@ReceiveRea:

; 784  : 	else		RealData.m_strChrate = (char*)pArrData[ 33];	//

  003e0	ff b7 84 00 00
	00		 push	 DWORD PTR [edi+132]
$LN202@ReceiveRea:

; 785  : 	if (nCodeType != CMasterTypeInfo::FO_FOREIGN_CHART)

  003e6	ff 15 00 00 00
	00		 call	 DWORD PTR __imp_??4?$CStringT@DV?$StrTraitMFC_DLL@DV?$ChTraitsCRT@D@ATL@@@@@ATL@@QAEAAV01@PBD@Z
  003ec	83 fe 08	 cmp	 esi, 8
  003ef	74 0b		 je	 SHORT $LN32@ReceiveRea

; 786  : 			RealData.m_strChrate.Remove('.');

  003f1	6a 2e		 push	 46			; 0000002eH
  003f3	8d 4d a8	 lea	 ecx, DWORD PTR _RealData$[ebp+20]
  003f6	ff 15 00 00 00
	00		 call	 DWORD PTR __imp_?Remove@?$CStringT@DV?$StrTraitMFC_DLL@DV?$ChTraitsCRT@D@ATL@@@@@ATL@@QAEHD@Z
$LN32@ReceiveRea:

; 787  : 	char cSign = RealData.m_strChrate[0];

  003fc	6a 00		 push	 0
  003fe	8d 4d a8	 lea	 ecx, DWORD PTR _RealData$[ebp+20]
  00401	ff 15 00 00 00
	00		 call	 DWORD PTR __imp_??A?$CSimpleStringT@D$00@ATL@@QBEDH@Z

; 788  : 
; 789  : 	switch (cSign)

  00407	0f be c0	 movsx	 eax, al
  0040a	83 e8 20	 sub	 eax, 32			; 00000020H
  0040d	74 18		 je	 SHORT $LN33@ReceiveRea
  0040f	83 e8 0b	 sub	 eax, 11			; 0000000bH
  00412	74 0c		 je	 SHORT $LN34@ReceiveRea
  00414	83 e8 02	 sub	 eax, 2
  00417	75 1c		 jne	 SHORT $LN2@ReceiveRea

; 793  : 	case '-': RealData.m_strSign = "5"; break;

  00419	68 00 00 00 00	 push	 OFFSET ??_C@_01BMBHCPLG@5@
  0041e	eb 0c		 jmp	 SHORT $LN203@ReceiveRea
$LN34@ReceiveRea:

; 792  : 	case '+': RealData.m_strSign = "2"; break;

  00420	68 00 00 00 00	 push	 OFFSET ??_C@_01FDFGLJHB@2@
  00425	eb 05		 jmp	 SHORT $LN203@ReceiveRea
$LN33@ReceiveRea:

; 790  : 	{
; 791  : 	case ' ': RealData.m_strSign = "3"; break;

  00427	68 00 00 00 00	 push	 OFFSET ??_C@_01EKENIIDA@3@
$LN203@ReceiveRea:

; 794  : 	}
; 795  : 
; 796  : 	theApp.DoGetMapStrObj_UpDnInfo(strCode, szUpLimit, szDnLimit);

  0042c	8d 4d 9c	 lea	 ecx, DWORD PTR _RealData$[ebp+8]
  0042f	ff 15 00 00 00
	00		 call	 DWORD PTR __imp_??4?$CStringT@DV?$StrTraitMFC_DLL@DV?$ChTraitsCRT@D@ATL@@@@@ATL@@QAEAAV01@PBD@Z
$LN2@ReceiveRea:
  00435	8d 45 ec	 lea	 eax, DWORD PTR _szDnLimit$[ebp]
  00438	b9 00 00 00 00	 mov	 ecx, OFFSET ?theApp@@3VCPartnerMngApp@@A ; theApp
  0043d	50		 push	 eax
  0043e	8d 45 e8	 lea	 eax, DWORD PTR _szUpLimit$[ebp]
  00441	50		 push	 eax
  00442	8b 45 08	 mov	 eax, DWORD PTR _strCode$[ebp]
  00445	ff 30		 push	 DWORD PTR [eax]
  00447	e8 00 00 00 00	 call	 ?DoGetMapStrObj_UpDnInfo@CPartnerMngApp@@QAEXPBDAAV?$CStringT@DV?$StrTraitMFC_DLL@DV?$ChTraitsCRT@D@ATL@@@@@ATL@@1@Z ; CPartnerMngApp::DoGetMapStrObj_UpDnInfo
; File C:\Program Files (x86)\Microsoft Visual Studio\2019\Community\VC\Tools\MSVC\14.29.30133\atlmfc\include\atlsimpstr.h

; 519  : 		return( GetData()->nDataLength );

  0044c	8b 45 e8	 mov	 eax, DWORD PTR _szUpLimit$[ebp]
; File D:\git\src\IBK\IBK_DRFN\ProjSrc\SrcDrfn\DrCommon\PartnerMng\_PartnerManager.cpp

; 798  : 	if (szUpLimit.GetLength() > 0 && atof(szUpLimit) <= atof(RealData.m_strPrice))

  0044f	83 78 f4 00	 cmp	 DWORD PTR [eax-12], 0
  00453	7e 2d		 jle	 SHORT $LN36@ReceiveRea
; File C:\Program Files (x86)\Microsoft Visual Studio\2019\Community\VC\Tools\MSVC\14.29.30133\atlmfc\include\atlsimpstr.h

; 377  : 		return( m_pszData );

  00455	8b 75 a0	 mov	 esi, DWORD PTR _RealData$[ebp+12]
; File D:\git\src\IBK\IBK_DRFN\ProjSrc\SrcDrfn\DrCommon\PartnerMng\_PartnerManager.cpp

; 798  : 	if (szUpLimit.GetLength() > 0 && atof(szUpLimit) <= atof(RealData.m_strPrice))

  00458	50		 push	 eax
  00459	ff 15 00 00 00
	00		 call	 DWORD PTR __imp__atof
  0045f	dd 5d dc	 fstp	 QWORD PTR tv375[ebp]
  00462	56		 push	 esi
  00463	ff 15 00 00 00
	00		 call	 DWORD PTR __imp__atof
  00469	dd 5d d4	 fstp	 QWORD PTR tv1313[ebp]
  0046c	f2 0f 10 45 d4	 movsd	 xmm0, QWORD PTR tv1313[ebp]
  00471	83 c4 08	 add	 esp, 8
  00474	66 0f 2f 45 dc	 comisd	 xmm0, QWORD PTR tv375[ebp]
  00479	72 07		 jb	 SHORT $LN36@ReceiveRea

; 799  : 		RealData.m_strSign = "1";

  0047b	68 00 00 00 00	 push	 OFFSET ??_C@_01HIHLOKLC@1@
  00480	eb 34		 jmp	 SHORT $LN204@ReceiveRea
$LN36@ReceiveRea:
; File C:\Program Files (x86)\Microsoft Visual Studio\2019\Community\VC\Tools\MSVC\14.29.30133\atlmfc\include\atlsimpstr.h

; 519  : 		return( GetData()->nDataLength );

  00482	8b 45 ec	 mov	 eax, DWORD PTR _szDnLimit$[ebp]
; File D:\git\src\IBK\IBK_DRFN\ProjSrc\SrcDrfn\DrCommon\PartnerMng\_PartnerManager.cpp

; 800  : 	else if (szDnLimit.GetLength() > 0 && atof(szDnLimit) >= atof(RealData.m_strPrice))

  00485	83 78 f4 00	 cmp	 DWORD PTR [eax-12], 0
  00489	7e 34		 jle	 SHORT $LN38@ReceiveRea
; File C:\Program Files (x86)\Microsoft Visual Studio\2019\Community\VC\Tools\MSVC\14.29.30133\atlmfc\include\atlsimpstr.h

; 377  : 		return( m_pszData );

  0048b	8b 75 a0	 mov	 esi, DWORD PTR _RealData$[ebp+12]
; File D:\git\src\IBK\IBK_DRFN\ProjSrc\SrcDrfn\DrCommon\PartnerMng\_PartnerManager.cpp

; 800  : 	else if (szDnLimit.GetLength() > 0 && atof(szDnLimit) >= atof(RealData.m_strPrice))

  0048e	50		 push	 eax
  0048f	ff 15 00 00 00
	00		 call	 DWORD PTR __imp__atof
  00495	dd 5d d4	 fstp	 QWORD PTR tv401[ebp]
  00498	56		 push	 esi
  00499	ff 15 00 00 00
	00		 call	 DWORD PTR __imp__atof
  0049f	f2 0f 10 45 d4	 movsd	 xmm0, QWORD PTR tv401[ebp]
  004a4	83 c4 08	 add	 esp, 8
  004a7	dd 5d dc	 fstp	 QWORD PTR tv1306[ebp]
  004aa	66 0f 2f 45 dc	 comisd	 xmm0, QWORD PTR tv1306[ebp]
  004af	72 0e		 jb	 SHORT $LN38@ReceiveRea

; 801  : 		RealData.m_strSign = "4";

  004b1	68 00 00 00 00	 push	 OFFSET ??_C@_01FAMBOPH@4@
$LN204@ReceiveRea:

; 802  : 
; 803  : 	RealData.m_strOpen = (char*)pArrData[ 29];	//

  004b6	8d 4d 9c	 lea	 ecx, DWORD PTR _RealData$[ebp+8]
  004b9	ff 15 00 00 00
	00		 call	 DWORD PTR __imp_??4?$CStringT@DV?$StrTraitMFC_DLL@DV?$ChTraitsCRT@D@ATL@@@@@ATL@@QAEAAV01@PBD@Z
$LN38@ReceiveRea:
  004bf	ff 77 74	 push	 DWORD PTR [edi+116]
  004c2	8d 4d b0	 lea	 ecx, DWORD PTR _RealData$[ebp+28]
  004c5	ff 15 00 00 00
	00		 call	 DWORD PTR __imp_??4?$CStringT@DV?$StrTraitMFC_DLL@DV?$ChTraitsCRT@D@ATL@@@@@ATL@@QAEAAV01@PBD@Z

; 804  : 	RealData.m_strHigh = (char*)pArrData[ 30];	//

  004cb	ff 77 78	 push	 DWORD PTR [edi+120]
  004ce	8d 4d b4	 lea	 ecx, DWORD PTR _RealData$[ebp+32]
  004d1	ff 15 00 00 00
	00		 call	 DWORD PTR __imp_??4?$CStringT@DV?$StrTraitMFC_DLL@DV?$ChTraitsCRT@D@ATL@@@@@ATL@@QAEAAV01@PBD@Z

; 805  : 	RealData.m_strLow = (char*)pArrData[ 31];	//

  004d7	ff 77 7c	 push	 DWORD PTR [edi+124]
  004da	8d 4d b8	 lea	 ecx, DWORD PTR _RealData$[ebp+36]
  004dd	ff 15 00 00 00
	00		 call	 DWORD PTR __imp_??4?$CStringT@DV?$StrTraitMFC_DLL@DV?$ChTraitsCRT@D@ATL@@@@@ATL@@QAEAAV01@PBD@Z

; 806  : 	if( nCodeType != CMasterTypeInfo::FO_FOREIGN_CHART )

  004e3	8b 75 0c	 mov	 esi, DWORD PTR _nCodeType$[ebp]
  004e6	83 fe 08	 cmp	 esi, 8
  004e9	74 2b		 je	 SHORT $LN194@ReceiveRea

; 807  : 	{
; 808  : 		RealData.m_strOpen.Remove('.');

  004eb	6a 2e		 push	 46			; 0000002eH
  004ed	8d 4d b0	 lea	 ecx, DWORD PTR _RealData$[ebp+28]
  004f0	ff 15 00 00 00
	00		 call	 DWORD PTR __imp_?Remove@?$CStringT@DV?$StrTraitMFC_DLL@DV?$ChTraitsCRT@D@ATL@@@@@ATL@@QAEHD@Z

; 809  : 		RealData.m_strHigh.Remove('.');

  004f6	6a 2e		 push	 46			; 0000002eH
  004f8	8d 4d b4	 lea	 ecx, DWORD PTR _RealData$[ebp+32]
  004fb	ff 15 00 00 00
	00		 call	 DWORD PTR __imp_?Remove@?$CStringT@DV?$StrTraitMFC_DLL@DV?$ChTraitsCRT@D@ATL@@@@@ATL@@QAEHD@Z

; 810  : 		RealData.m_strLow.Remove('.');

  00501	6a 2e		 push	 46			; 0000002eH
  00503	8d 4d b8	 lea	 ecx, DWORD PTR _RealData$[ebp+36]
  00506	ff 15 00 00 00
	00		 call	 DWORD PTR __imp_?Remove@?$CStringT@DV?$StrTraitMFC_DLL@DV?$ChTraitsCRT@D@ATL@@@@@ATL@@QAEHD@Z

; 811  : 	}
; 812  : 
; 813  : 	if( nCodeType == CMasterTypeInfo::FUOPT_JIPYO_CHART || nCodeType == CMasterTypeInfo::FUTOPT_CHART || nCodeType == CMasterTypeInfo::STOCKFUTOPT_CHART )

  0050c	83 fe 05	 cmp	 esi, 5
  0050f	74 0e		 je	 SHORT $LN42@ReceiveRea
  00511	83 fe 02	 cmp	 esi, 2
  00514	74 09		 je	 SHORT $LN42@ReceiveRea
$LN194@ReceiveRea:
  00516	83 fe 03	 cmp	 esi, 3
  00519	0f 85 2f 01 00
	00		 jne	 $LN43@ReceiveRea
$LN42@ReceiveRea:

; 815  : 		if(IS_SPREAD_CODE_1(RealData.m_strCode.Left(1)))	// // 0024696:    

  0051f	6a 01		 push	 1
  00521	8d 45 14	 lea	 eax, DWORD PTR $T15[ebp]
  00524	50		 push	 eax
  00525	8d 4d 94	 lea	 ecx, DWORD PTR _RealData$[ebp]
  00528	ff 15 00 00 00
	00		 call	 DWORD PTR __imp_?Left@?$CStringT@DV?$StrTraitMFC_DLL@DV?$ChTraitsCRT@D@ATL@@@@@ATL@@QBE?AV12@H@Z
; File C:\Program Files (x86)\Microsoft Visual Studio\2019\Community\VC\Tools\MSVC\14.29.30133\atlmfc\include\atlsimpstr.h

; 519  : 		return( GetData()->nDataLength );

  0052e	8b 08		 mov	 ecx, DWORD PTR [eax]
; File D:\git\src\IBK\IBK_DRFN\ProjSrc\SrcDrfn\DrCommon\PartnerMng\_PartnerManager.cpp

; 815  : 		if(IS_SPREAD_CODE_1(RealData.m_strCode.Left(1)))	// // 0024696:    

  00530	83 cb 04	 or	 ebx, 4
  00533	c6 45 fc 08	 mov	 BYTE PTR __$EHRec$[ebp+8], 8
  00537	89 5d e4	 mov	 DWORD PTR $T6[ebp], ebx
; File C:\Program Files (x86)\Microsoft Visual Studio\2019\Community\VC\Tools\MSVC\14.29.30133\atlmfc\include\cstringt.h

; 2510 : 		return((str1.GetLength() == 1) && (str1[0] == ch2));

  0053a	83 79 f4 01	 cmp	 DWORD PTR [ecx-12], 1
  0053e	75 0e		 jne	 SHORT $LN159@ReceiveRea
  00540	6a 00		 push	 0
  00542	8b c8		 mov	 ecx, eax
  00544	ff 15 00 00 00
	00		 call	 DWORD PTR __imp_??A?$CSimpleStringT@D$00@ATL@@QBEDH@Z
  0054a	3c 34		 cmp	 al, 52			; 00000034H
  0054c	74 2b		 je	 SHORT $LN58@ReceiveRea
$LN159@ReceiveRea:
; File D:\git\src\IBK\IBK_DRFN\ProjSrc\SrcDrfn\DrCommon\PartnerMng\_PartnerManager.cpp

; 815  : 		if(IS_SPREAD_CODE_1(RealData.m_strCode.Left(1)))	// // 0024696:    

  0054e	6a 01		 push	 1
  00550	8d 45 0c	 lea	 eax, DWORD PTR $T13[ebp]
  00553	50		 push	 eax
  00554	8d 4d 94	 lea	 ecx, DWORD PTR _RealData$[ebp]
  00557	ff 15 00 00 00
	00		 call	 DWORD PTR __imp_?Left@?$CStringT@DV?$StrTraitMFC_DLL@DV?$ChTraitsCRT@D@ATL@@@@@ATL@@QBE?AV12@H@Z
  0055d	83 cb 08	 or	 ebx, 8
  00560	89 5d e4	 mov	 DWORD PTR $T6[ebp], ebx
; File C:\Program Files (x86)\Microsoft Visual Studio\2019\Community\VC\Tools\MSVC\14.29.30133\atlmfc\include\atlsimpstr.h

; 519  : 		return( GetData()->nDataLength );

  00563	8b 08		 mov	 ecx, DWORD PTR [eax]
; File C:\Program Files (x86)\Microsoft Visual Studio\2019\Community\VC\Tools\MSVC\14.29.30133\atlmfc\include\cstringt.h

; 2510 : 		return((str1.GetLength() == 1) && (str1[0] == ch2));

  00565	83 79 f4 01	 cmp	 DWORD PTR [ecx-12], 1
  00569	75 14		 jne	 SHORT $LN167@ReceiveRea
  0056b	6a 00		 push	 0
  0056d	8b c8		 mov	 ecx, eax
  0056f	ff 15 00 00 00
	00		 call	 DWORD PTR __imp_??A?$CSimpleStringT@D$00@ATL@@QBEDH@Z
  00575	3c 44		 cmp	 al, 68			; 00000044H
  00577	75 06		 jne	 SHORT $LN167@ReceiveRea
$LN58@ReceiveRea:
; File D:\git\src\IBK\IBK_DRFN\ProjSrc\SrcDrfn\DrCommon\PartnerMng\_PartnerManager.cpp

; 815  : 		if(IS_SPREAD_CODE_1(RealData.m_strCode.Left(1)))	// // 0024696:    

  00579	c6 45 0b 01	 mov	 BYTE PTR $T11[ebp], 1
  0057d	eb 04		 jmp	 SHORT $LN59@ReceiveRea
$LN167@ReceiveRea:
  0057f	c6 45 0b 00	 mov	 BYTE PTR $T11[ebp], 0
$LN59@ReceiveRea:
  00583	f6 c3 08	 test	 bl, 8
  00586	74 0c		 je	 SHORT $LN77@ReceiveRea
  00588	8d 4d 0c	 lea	 ecx, DWORD PTR $T13[ebp]
  0058b	83 e3 f7	 and	 ebx, -9			; fffffff7H
  0058e	ff 15 00 00 00
	00		 call	 DWORD PTR __imp_??1?$CStringT@DV?$StrTraitMFC_DLL@DV?$ChTraitsCRT@D@ATL@@@@@ATL@@QAE@XZ
$LN77@ReceiveRea:
  00594	c7 45 fc 04 00
	00 00		 mov	 DWORD PTR __$EHRec$[ebp+8], 4
  0059b	f6 c3 04	 test	 bl, 4
  0059e	74 09		 je	 SHORT $LN78@ReceiveRea
  005a0	8d 4d 14	 lea	 ecx, DWORD PTR $T15[ebp]
  005a3	ff 15 00 00 00
	00		 call	 DWORD PTR __imp_??1?$CStringT@DV?$StrTraitMFC_DLL@DV?$ChTraitsCRT@D@ATL@@@@@ATL@@QAE@XZ
$LN78@ReceiveRea:
  005a9	80 7d 0b 00	 cmp	 BYTE PTR $T11[ebp], 0
  005ad	0f 84 9b 00 00
	00		 je	 $LN43@ReceiveRea
; File C:\Program Files (x86)\Microsoft Visual Studio\2019\Community\VC\Tools\MSVC\14.29.30133\atlmfc\include\atlsimpstr.h

; 519  : 		return( GetData()->nDataLength );

  005b3	8b 45 b0	 mov	 eax, DWORD PTR _RealData$[ebp+28]
; File D:\git\src\IBK\IBK_DRFN\ProjSrc\SrcDrfn\DrCommon\PartnerMng\_PartnerManager.cpp

; 817  : 			if( RealData.m_strOpen.GetLength() > 0 )

  005b6	83 78 f4 00	 cmp	 DWORD PTR [eax-12], 0
  005ba	7e 2a		 jle	 SHORT $LN45@ReceiveRea

; 818  : 				RealData.m_strOpen = RealData.m_strOpen.Mid( 1 );

  005bc	6a 01		 push	 1
  005be	8d 45 08	 lea	 eax, DWORD PTR $T10[ebp]
  005c1	50		 push	 eax
  005c2	8d 4d b0	 lea	 ecx, DWORD PTR _RealData$[ebp+28]
  005c5	ff 15 00 00 00
	00		 call	 DWORD PTR __imp_?Mid@?$CStringT@DV?$StrTraitMFC_DLL@DV?$ChTraitsCRT@D@ATL@@@@@ATL@@QBE?AV12@H@Z
  005cb	50		 push	 eax
  005cc	8d 4d b0	 lea	 ecx, DWORD PTR _RealData$[ebp+28]
  005cf	c6 45 fc 09	 mov	 BYTE PTR __$EHRec$[ebp+8], 9
  005d3	ff 15 00 00 00
	00		 call	 DWORD PTR __imp_??4?$CStringT@DV?$StrTraitMFC_DLL@DV?$ChTraitsCRT@D@ATL@@@@@ATL@@QAEAAV01@ABV01@@Z
  005d9	8d 4d 08	 lea	 ecx, DWORD PTR $T10[ebp]
  005dc	c6 45 fc 04	 mov	 BYTE PTR __$EHRec$[ebp+8], 4
  005e0	ff 15 00 00 00
	00		 call	 DWORD PTR __imp_??1?$CStringT@DV?$StrTraitMFC_DLL@DV?$ChTraitsCRT@D@ATL@@@@@ATL@@QAE@XZ
$LN45@ReceiveRea:
; File C:\Program Files (x86)\Microsoft Visual Studio\2019\Community\VC\Tools\MSVC\14.29.30133\atlmfc\include\atlsimpstr.h

; 519  : 		return( GetData()->nDataLength );

  005e6	8b 45 b4	 mov	 eax, DWORD PTR _RealData$[ebp+32]
; File D:\git\src\IBK\IBK_DRFN\ProjSrc\SrcDrfn\DrCommon\PartnerMng\_PartnerManager.cpp

; 819  : 			if( RealData.m_strHigh.GetLength() > 0 )

  005e9	83 78 f4 00	 cmp	 DWORD PTR [eax-12], 0
  005ed	7e 2a		 jle	 SHORT $LN46@ReceiveRea

; 820  : 				RealData.m_strHigh = RealData.m_strHigh.Mid( 1 );

  005ef	6a 01		 push	 1
  005f1	8d 45 08	 lea	 eax, DWORD PTR $T9[ebp]
  005f4	50		 push	 eax
  005f5	8d 4d b4	 lea	 ecx, DWORD PTR _RealData$[ebp+32]
  005f8	ff 15 00 00 00
	00		 call	 DWORD PTR __imp_?Mid@?$CStringT@DV?$StrTraitMFC_DLL@DV?$ChTraitsCRT@D@ATL@@@@@ATL@@QBE?AV12@H@Z
  005fe	50		 push	 eax
  005ff	8d 4d b4	 lea	 ecx, DWORD PTR _RealData$[ebp+32]
  00602	c6 45 fc 0a	 mov	 BYTE PTR __$EHRec$[ebp+8], 10 ; 0000000aH
  00606	ff 15 00 00 00
	00		 call	 DWORD PTR __imp_??4?$CStringT@DV?$StrTraitMFC_DLL@DV?$ChTraitsCRT@D@ATL@@@@@ATL@@QAEAAV01@ABV01@@Z
  0060c	8d 4d 08	 lea	 ecx, DWORD PTR $T9[ebp]
  0060f	c6 45 fc 04	 mov	 BYTE PTR __$EHRec$[ebp+8], 4
  00613	ff 15 00 00 00
	00		 call	 DWORD PTR __imp_??1?$CStringT@DV?$StrTraitMFC_DLL@DV?$ChTraitsCRT@D@ATL@@@@@ATL@@QAE@XZ
$LN46@ReceiveRea:
; File C:\Program Files (x86)\Microsoft Visual Studio\2019\Community\VC\Tools\MSVC\14.29.30133\atlmfc\include\atlsimpstr.h

; 519  : 		return( GetData()->nDataLength );

  00619	8b 45 b8	 mov	 eax, DWORD PTR _RealData$[ebp+36]
; File D:\git\src\IBK\IBK_DRFN\ProjSrc\SrcDrfn\DrCommon\PartnerMng\_PartnerManager.cpp

; 821  : 			if( RealData.m_strLow.GetLength() > 0 )

  0061c	83 78 f4 00	 cmp	 DWORD PTR [eax-12], 0
  00620	7e 4d		 jle	 SHORT $LN44@ReceiveRea

; 822  : 				RealData.m_strLow = RealData.m_strLow.Mid( 1 );

  00622	6a 01		 push	 1
  00624	8d 45 08	 lea	 eax, DWORD PTR $T8[ebp]
  00627	50		 push	 eax
  00628	8d 4d b8	 lea	 ecx, DWORD PTR _RealData$[ebp+36]
  0062b	ff 15 00 00 00
	00		 call	 DWORD PTR __imp_?Mid@?$CStringT@DV?$StrTraitMFC_DLL@DV?$ChTraitsCRT@D@ATL@@@@@ATL@@QBE?AV12@H@Z
  00631	50		 push	 eax
  00632	8d 4d b8	 lea	 ecx, DWORD PTR _RealData$[ebp+36]
  00635	c6 45 fc 0b	 mov	 BYTE PTR __$EHRec$[ebp+8], 11 ; 0000000bH
  00639	ff 15 00 00 00
	00		 call	 DWORD PTR __imp_??4?$CStringT@DV?$StrTraitMFC_DLL@DV?$ChTraitsCRT@D@ATL@@@@@ATL@@QAEAAV01@ABV01@@Z
  0063f	8d 4d 08	 lea	 ecx, DWORD PTR $T8[ebp]
  00642	c6 45 fc 04	 mov	 BYTE PTR __$EHRec$[ebp+8], 4
  00646	ff 15 00 00 00
	00		 call	 DWORD PTR __imp_??1?$CStringT@DV?$StrTraitMFC_DLL@DV?$ChTraitsCRT@D@ATL@@@@@ATL@@QAE@XZ

; 823  : 		}

  0064c	eb 21		 jmp	 SHORT $LN44@ReceiveRea
$LN43@ReceiveRea:

; 824  : 		else
; 825  : 		{
; 826  : 			RealData.m_strOpen.Remove('-');

  0064e	6a 2d		 push	 45			; 0000002dH
  00650	8d 4d b0	 lea	 ecx, DWORD PTR _RealData$[ebp+28]
  00653	ff 15 00 00 00
	00		 call	 DWORD PTR __imp_?Remove@?$CStringT@DV?$StrTraitMFC_DLL@DV?$ChTraitsCRT@D@ATL@@@@@ATL@@QAEHD@Z

; 827  : 			RealData.m_strHigh.Remove('-');

  00659	6a 2d		 push	 45			; 0000002dH
  0065b	8d 4d b4	 lea	 ecx, DWORD PTR _RealData$[ebp+32]
  0065e	ff 15 00 00 00
	00		 call	 DWORD PTR __imp_?Remove@?$CStringT@DV?$StrTraitMFC_DLL@DV?$ChTraitsCRT@D@ATL@@@@@ATL@@QAEHD@Z

; 828  : 			RealData.m_strLow.Remove('-');

  00664	6a 2d		 push	 45			; 0000002dH
  00666	8d 4d b8	 lea	 ecx, DWORD PTR _RealData$[ebp+36]
  00669	ff 15 00 00 00
	00		 call	 DWORD PTR __imp_?Remove@?$CStringT@DV?$StrTraitMFC_DLL@DV?$ChTraitsCRT@D@ATL@@@@@ATL@@QAEHD@Z
$LN44@ReceiveRea:

; 829  : 		}		
; 830  : 	}
; 831  : 	else
; 832  : 	{
; 833  : 		RealData.m_strOpen.Remove('-');
; 834  : 		RealData.m_strHigh.Remove('-');
; 835  : 		RealData.m_strLow.Remove('-');
; 836  : 	}
; 837  : 
; 838  : 
; 839  : 	RealData.m_strValue = (char*)pArrData[ 28];	//

  0066f	ff 77 70	 push	 DWORD PTR [edi+112]
  00672	8d 4d bc	 lea	 ecx, DWORD PTR _RealData$[ebp+40]
  00675	ff 15 00 00 00
	00		 call	 DWORD PTR __imp_??4?$CStringT@DV?$StrTraitMFC_DLL@DV?$ChTraitsCRT@D@ATL@@@@@ATL@@QAEAAV01@PBD@Z

; 840  : 
; 841  : 	RealData.m_nMarketType=nCodeType;
; 842  : 
; 843  : 	RealData.m_strOpenyak = (char*)pArrData[201];	//

  0067b	ff b7 24 03 00
	00		 push	 DWORD PTR [edi+804]
  00681	8d 4d c8	 lea	 ecx, DWORD PTR _RealData$[ebp+52]
  00684	89 75 c0	 mov	 DWORD PTR _RealData$[ebp+44], esi
  00687	ff 15 00 00 00
	00		 call	 DWORD PTR __imp_??4?$CStringT@DV?$StrTraitMFC_DLL@DV?$ChTraitsCRT@D@ATL@@@@@ATL@@QAEAAV01@PBD@Z

; 844  : 	// -------------------------------------------------------	
; 845  : 
; 846  : 	if (bSign)

  0068d	83 7d f0 00	 cmp	 DWORD PTR tv1182[ebp], 0
  00691	74 22		 je	 SHORT $LN48@ReceiveRea

; 847  : 		RealData.m_strOpen = RealData.m_strHigh = RealData.m_strLow = "";

  00693	68 00 00 00 00	 push	 OFFSET ??_C@_00CNPNBAHC@@
  00698	8d 4d b8	 lea	 ecx, DWORD PTR _RealData$[ebp+36]
  0069b	ff 15 00 00 00
	00		 call	 DWORD PTR __imp_??4?$CStringT@DV?$StrTraitMFC_DLL@DV?$ChTraitsCRT@D@ATL@@@@@ATL@@QAEAAV01@PBD@Z
  006a1	50		 push	 eax
  006a2	8d 4d b4	 lea	 ecx, DWORD PTR _RealData$[ebp+32]
  006a5	ff 15 00 00 00
	00		 call	 DWORD PTR __imp_??4?$CStringT@DV?$StrTraitMFC_DLL@DV?$ChTraitsCRT@D@ATL@@@@@ATL@@QAEAAV01@ABV01@@Z
  006ab	50		 push	 eax
  006ac	8d 4d b0	 lea	 ecx, DWORD PTR _RealData$[ebp+28]
  006af	ff 15 00 00 00
	00		 call	 DWORD PTR __imp_??4?$CStringT@DV?$StrTraitMFC_DLL@DV?$ChTraitsCRT@D@ATL@@@@@ATL@@QAEAAV01@ABV01@@Z
$LN48@ReceiveRea:

; 848  : 
; 849  : 	//<<20100421_JS.Kim  .   
; 850  : 	if (nCodeType == CMasterTypeInfo::FO_FOREIGN_CHART)

  006b5	83 fe 08	 cmp	 esi, 8
  006b8	0f 85 37 02 00
	00		 jne	 $LN49@ReceiveRea

; 851  : 	{
; 852  : 		int nPcnt;
; 853  : 		double dRate;
; 854  : 		CString strTextType;

  006be	8d 4d 14	 lea	 ecx, DWORD PTR _strTextType$14[ebp]
  006c1	ff 15 00 00 00
	00		 call	 DWORD PTR __imp_??0?$CStringT@DV?$StrTraitMFC_DLL@DV?$ChTraitsCRT@D@ATL@@@@@ATL@@QAE@XZ

; 855  : 
; 856  : 		CString strGB = (char*)(char*)pArrData[309];	//	 

  006c7	ff b7 d4 04 00
	00		 push	 DWORD PTR [edi+1236]
  006cd	8d 4d 0c	 lea	 ecx, DWORD PTR _strGB$12[ebp]
  006d0	c6 45 fc 0c	 mov	 BYTE PTR __$EHRec$[ebp+8], 12 ; 0000000cH
  006d4	ff 15 00 00 00
	00		 call	 DWORD PTR __imp_??0?$CStringT@DV?$StrTraitMFC_DLL@DV?$ChTraitsCRT@D@ATL@@@@@ATL@@QAE@PBD@Z

; 857  : 		char cType = CDataConverter::GetDecimalRate(strGB, nPcnt, dRate, strTextType);

  006da	8d 45 14	 lea	 eax, DWORD PTR _strTextType$14[ebp]
  006dd	c6 45 fc 0d	 mov	 BYTE PTR __$EHRec$[ebp+8], 13 ; 0000000dH
  006e1	50		 push	 eax
  006e2	8d 45 dc	 lea	 eax, DWORD PTR _dRate$4[ebp]
  006e5	50		 push	 eax
  006e6	8d 45 08	 lea	 eax, DWORD PTR _nPcnt$7[ebp]
  006e9	50		 push	 eax
  006ea	51		 push	 ecx
  006eb	8d 45 0c	 lea	 eax, DWORD PTR _strGB$12[ebp]
  006ee	8b cc		 mov	 ecx, esp
  006f0	50		 push	 eax
  006f1	ff 15 00 00 00
	00		 call	 DWORD PTR __imp_??0?$CStringT@DV?$StrTraitMFC_DLL@DV?$ChTraitsCRT@D@ATL@@@@@ATL@@QAE@ABV01@@Z
  006f7	e8 00 00 00 00	 call	 ?GetDecimalRate@CDataConverter@@SADV?$CStringT@DV?$StrTraitMFC_DLL@DV?$ChTraitsCRT@D@ATL@@@@@ATL@@AAHAANAAV23@@Z ; CDataConverter::GetDecimalRate
  006fc	83 c4 10	 add	 esp, 16			; 00000010H
  006ff	88 45 d8	 mov	 BYTE PTR _cType$2[ebp], al

; 858  : 
; 859  : 		RealData.m_strPrice.Remove('+');

  00702	8d 4d a0	 lea	 ecx, DWORD PTR _RealData$[ebp+12]
  00705	6a 2b		 push	 43			; 0000002bH
  00707	ff 15 00 00 00
	00		 call	 DWORD PTR __imp_?Remove@?$CStringT@DV?$StrTraitMFC_DLL@DV?$ChTraitsCRT@D@ATL@@@@@ATL@@QAEHD@Z

; 860  : 		if (!CDataConverter::TbondPrcLToF(cType, nPcnt, dRate, RealData.m_strPrice))

  0070d	f2 0f 10 45 dc	 movsd	 xmm0, QWORD PTR _dRate$4[ebp]
  00712	8d 45 a0	 lea	 eax, DWORD PTR _RealData$[ebp+12]
  00715	8b 75 d8	 mov	 esi, DWORD PTR _cType$2[ebp]
  00718	50		 push	 eax
  00719	83 ec 08	 sub	 esp, 8
  0071c	f2 0f 11 04 24	 movsd	 QWORD PTR [esp], xmm0
  00721	ff 75 08	 push	 DWORD PTR _nPcnt$7[ebp]
  00724	56		 push	 esi
  00725	e8 00 00 00 00	 call	 ?TbondPrcLToF@CDataConverter@@SAHDHNAAV?$CStringT@DV?$StrTraitMFC_DLL@DV?$ChTraitsCRT@D@ATL@@@@@ATL@@@Z ; CDataConverter::TbondPrcLToF
  0072a	83 c4 14	 add	 esp, 20			; 00000014H
  0072d	85 c0		 test	 eax, eax
  0072f	75 38		 jne	 SHORT $LN196@ReceiveRea

; 861  : 			RealData.m_strPrice.Format(_T("%lf"), CDataConverter::DataSeparation(RealData.m_strPrice, nPcnt));

  00731	ff 75 08	 push	 DWORD PTR _nPcnt$7[ebp]
  00734	8d 45 a0	 lea	 eax, DWORD PTR _RealData$[ebp+12]
  00737	51		 push	 ecx
  00738	8b cc		 mov	 ecx, esp
  0073a	50		 push	 eax
  0073b	ff 15 00 00 00
	00		 call	 DWORD PTR __imp_??0?$CStringT@DV?$StrTraitMFC_DLL@DV?$ChTraitsCRT@D@ATL@@@@@ATL@@QAE@ABV01@@Z
  00741	e8 00 00 00 00	 call	 ?DataSeparation@CDataConverter@@SANV?$CStringT@DV?$StrTraitMFC_DLL@DV?$ChTraitsCRT@D@ATL@@@@@ATL@@H@Z ; CDataConverter::DataSeparation
  00746	8b 1d 00 00 00
	00		 mov	 ebx, DWORD PTR __imp_?Format@?$CStringT@DV?$StrTraitMFC_DLL@DV?$ChTraitsCRT@D@ATL@@@@@ATL@@QAAXPBDZZ
  0074c	8d 45 a0	 lea	 eax, DWORD PTR _RealData$[ebp+12]
  0074f	dd 5d d4	 fstp	 QWORD PTR tv611[ebp]
  00752	f2 0f 10 45 d4	 movsd	 xmm0, QWORD PTR tv611[ebp]
  00757	f2 0f 11 04 24	 movsd	 QWORD PTR [esp], xmm0
  0075c	68 00 00 00 00	 push	 OFFSET ??_C@_03DLDNIBIK@?$CFlf@
  00761	50		 push	 eax
  00762	ff d3		 call	 ebx
  00764	83 c4 10	 add	 esp, 16			; 00000010H
  00767	eb 06		 jmp	 SHORT $LN50@ReceiveRea
$LN196@ReceiveRea:

; 860  : 		if (!CDataConverter::TbondPrcLToF(cType, nPcnt, dRate, RealData.m_strPrice))

  00769	8b 1d 00 00 00
	00		 mov	 ebx, DWORD PTR __imp_?Format@?$CStringT@DV?$StrTraitMFC_DLL@DV?$ChTraitsCRT@D@ATL@@@@@ATL@@QAAXPBDZZ
$LN50@ReceiveRea:

; 862  : 
; 863  : 		RealData.m_strOpen.Remove('+');

  0076f	6a 2b		 push	 43			; 0000002bH
  00771	8d 4d b0	 lea	 ecx, DWORD PTR _RealData$[ebp+28]
  00774	ff 15 00 00 00
	00		 call	 DWORD PTR __imp_?Remove@?$CStringT@DV?$StrTraitMFC_DLL@DV?$ChTraitsCRT@D@ATL@@@@@ATL@@QAEHD@Z

; 864  : 		if (!CDataConverter::TbondPrcLToF(cType, nPcnt, dRate, RealData.m_strOpen))

  0077a	f2 0f 10 45 dc	 movsd	 xmm0, QWORD PTR _dRate$4[ebp]
  0077f	8d 45 b0	 lea	 eax, DWORD PTR _RealData$[ebp+28]
  00782	50		 push	 eax
  00783	83 ec 08	 sub	 esp, 8
  00786	f2 0f 11 04 24	 movsd	 QWORD PTR [esp], xmm0
  0078b	ff 75 08	 push	 DWORD PTR _nPcnt$7[ebp]
  0078e	56		 push	 esi
  0078f	e8 00 00 00 00	 call	 ?TbondPrcLToF@CDataConverter@@SAHDHNAAV?$CStringT@DV?$StrTraitMFC_DLL@DV?$ChTraitsCRT@D@ATL@@@@@ATL@@@Z ; CDataConverter::TbondPrcLToF
  00794	83 c4 14	 add	 esp, 20			; 00000014H
  00797	85 c0		 test	 eax, eax
  00799	75 30		 jne	 SHORT $LN51@ReceiveRea

; 865  : 			RealData.m_strOpen.Format(_T("%lf"), CDataConverter::DataSeparation(RealData.m_strOpen, nPcnt));

  0079b	ff 75 08	 push	 DWORD PTR _nPcnt$7[ebp]
  0079e	8d 45 b0	 lea	 eax, DWORD PTR _RealData$[ebp+28]
  007a1	51		 push	 ecx
  007a2	8b cc		 mov	 ecx, esp
  007a4	50		 push	 eax
  007a5	ff 15 00 00 00
	00		 call	 DWORD PTR __imp_??0?$CStringT@DV?$StrTraitMFC_DLL@DV?$ChTraitsCRT@D@ATL@@@@@ATL@@QAE@ABV01@@Z
  007ab	e8 00 00 00 00	 call	 ?DataSeparation@CDataConverter@@SANV?$CStringT@DV?$StrTraitMFC_DLL@DV?$ChTraitsCRT@D@ATL@@@@@ATL@@H@Z ; CDataConverter::DataSeparation
  007b0	dd 5d d4	 fstp	 QWORD PTR tv638[ebp]
  007b3	f2 0f 10 45 d4	 movsd	 xmm0, QWORD PTR tv638[ebp]
  007b8	8d 45 b0	 lea	 eax, DWORD PTR _RealData$[ebp+28]
  007bb	f2 0f 11 04 24	 movsd	 QWORD PTR [esp], xmm0
  007c0	68 00 00 00 00	 push	 OFFSET ??_C@_03DLDNIBIK@?$CFlf@
  007c5	50		 push	 eax
  007c6	ff d3		 call	 ebx
  007c8	83 c4 10	 add	 esp, 16			; 00000010H
$LN51@ReceiveRea:

; 866  : 
; 867  : 		RealData.m_strHigh.Remove('+');

  007cb	6a 2b		 push	 43			; 0000002bH
  007cd	8d 4d b4	 lea	 ecx, DWORD PTR _RealData$[ebp+32]
  007d0	ff 15 00 00 00
	00		 call	 DWORD PTR __imp_?Remove@?$CStringT@DV?$StrTraitMFC_DLL@DV?$ChTraitsCRT@D@ATL@@@@@ATL@@QAEHD@Z

; 868  : 		if (!CDataConverter::TbondPrcLToF(cType, nPcnt, dRate, RealData.m_strHigh))

  007d6	f2 0f 10 45 dc	 movsd	 xmm0, QWORD PTR _dRate$4[ebp]
  007db	8d 45 b4	 lea	 eax, DWORD PTR _RealData$[ebp+32]
  007de	50		 push	 eax
  007df	83 ec 08	 sub	 esp, 8
  007e2	f2 0f 11 04 24	 movsd	 QWORD PTR [esp], xmm0
  007e7	ff 75 08	 push	 DWORD PTR _nPcnt$7[ebp]
  007ea	56		 push	 esi
  007eb	e8 00 00 00 00	 call	 ?TbondPrcLToF@CDataConverter@@SAHDHNAAV?$CStringT@DV?$StrTraitMFC_DLL@DV?$ChTraitsCRT@D@ATL@@@@@ATL@@@Z ; CDataConverter::TbondPrcLToF
  007f0	83 c4 14	 add	 esp, 20			; 00000014H
  007f3	85 c0		 test	 eax, eax
  007f5	75 30		 jne	 SHORT $LN52@ReceiveRea

; 869  : 			RealData.m_strHigh.Format(_T("%lf"), CDataConverter::DataSeparation(RealData.m_strHigh, nPcnt));

  007f7	ff 75 08	 push	 DWORD PTR _nPcnt$7[ebp]
  007fa	8d 45 b4	 lea	 eax, DWORD PTR _RealData$[ebp+32]
  007fd	51		 push	 ecx
  007fe	8b cc		 mov	 ecx, esp
  00800	50		 push	 eax
  00801	ff 15 00 00 00
	00		 call	 DWORD PTR __imp_??0?$CStringT@DV?$StrTraitMFC_DLL@DV?$ChTraitsCRT@D@ATL@@@@@ATL@@QAE@ABV01@@Z
  00807	e8 00 00 00 00	 call	 ?DataSeparation@CDataConverter@@SANV?$CStringT@DV?$StrTraitMFC_DLL@DV?$ChTraitsCRT@D@ATL@@@@@ATL@@H@Z ; CDataConverter::DataSeparation
  0080c	dd 5d d4	 fstp	 QWORD PTR tv665[ebp]
  0080f	f2 0f 10 45 d4	 movsd	 xmm0, QWORD PTR tv665[ebp]
  00814	8d 45 b4	 lea	 eax, DWORD PTR _RealData$[ebp+32]
  00817	f2 0f 11 04 24	 movsd	 QWORD PTR [esp], xmm0
  0081c	68 00 00 00 00	 push	 OFFSET ??_C@_03DLDNIBIK@?$CFlf@
  00821	50		 push	 eax
  00822	ff d3		 call	 ebx
  00824	83 c4 10	 add	 esp, 16			; 00000010H
$LN52@ReceiveRea:

; 870  : 
; 871  : 		RealData.m_strLow.Remove('+');

  00827	6a 2b		 push	 43			; 0000002bH
  00829	8d 4d b8	 lea	 ecx, DWORD PTR _RealData$[ebp+36]
  0082c	ff 15 00 00 00
	00		 call	 DWORD PTR __imp_?Remove@?$CStringT@DV?$StrTraitMFC_DLL@DV?$ChTraitsCRT@D@ATL@@@@@ATL@@QAEHD@Z

; 872  : 		if (!CDataConverter::TbondPrcLToF(cType, nPcnt, dRate, RealData.m_strLow))

  00832	f2 0f 10 45 dc	 movsd	 xmm0, QWORD PTR _dRate$4[ebp]
  00837	8d 45 b8	 lea	 eax, DWORD PTR _RealData$[ebp+36]
  0083a	50		 push	 eax
  0083b	83 ec 08	 sub	 esp, 8
  0083e	f2 0f 11 04 24	 movsd	 QWORD PTR [esp], xmm0
  00843	ff 75 08	 push	 DWORD PTR _nPcnt$7[ebp]
  00846	56		 push	 esi
  00847	e8 00 00 00 00	 call	 ?TbondPrcLToF@CDataConverter@@SAHDHNAAV?$CStringT@DV?$StrTraitMFC_DLL@DV?$ChTraitsCRT@D@ATL@@@@@ATL@@@Z ; CDataConverter::TbondPrcLToF
  0084c	83 c4 14	 add	 esp, 20			; 00000014H
  0084f	85 c0		 test	 eax, eax
  00851	75 30		 jne	 SHORT $LN53@ReceiveRea

; 873  : 			RealData.m_strLow.Format(_T("%lf"), CDataConverter::DataSeparation(RealData.m_strLow, nPcnt));

  00853	ff 75 08	 push	 DWORD PTR _nPcnt$7[ebp]
  00856	8d 45 b8	 lea	 eax, DWORD PTR _RealData$[ebp+36]
  00859	51		 push	 ecx
  0085a	8b cc		 mov	 ecx, esp
  0085c	50		 push	 eax
  0085d	ff 15 00 00 00
	00		 call	 DWORD PTR __imp_??0?$CStringT@DV?$StrTraitMFC_DLL@DV?$ChTraitsCRT@D@ATL@@@@@ATL@@QAE@ABV01@@Z
  00863	e8 00 00 00 00	 call	 ?DataSeparation@CDataConverter@@SANV?$CStringT@DV?$StrTraitMFC_DLL@DV?$ChTraitsCRT@D@ATL@@@@@ATL@@H@Z ; CDataConverter::DataSeparation
  00868	dd 5d d4	 fstp	 QWORD PTR tv692[ebp]
  0086b	f2 0f 10 45 d4	 movsd	 xmm0, QWORD PTR tv692[ebp]
  00870	8d 45 b8	 lea	 eax, DWORD PTR _RealData$[ebp+36]
  00873	f2 0f 11 04 24	 movsd	 QWORD PTR [esp], xmm0
  00878	68 00 00 00 00	 push	 OFFSET ??_C@_03DLDNIBIK@?$CFlf@
  0087d	50		 push	 eax
  0087e	ff d3		 call	 ebx
  00880	83 c4 10	 add	 esp, 16			; 00000010H
$LN53@ReceiveRea:

; 874  : 
; 875  : 		RealData.m_strChange.Remove('+');

  00883	6a 2b		 push	 43			; 0000002bH
  00885	8d 4d a4	 lea	 ecx, DWORD PTR _RealData$[ebp+16]
  00888	ff 15 00 00 00
	00		 call	 DWORD PTR __imp_?Remove@?$CStringT@DV?$StrTraitMFC_DLL@DV?$ChTraitsCRT@D@ATL@@@@@ATL@@QAEHD@Z

; 876  : 		if (!CDataConverter::TbondPrcLToF(cType, nPcnt, dRate, RealData.m_strChange))

  0088e	f2 0f 10 45 dc	 movsd	 xmm0, QWORD PTR _dRate$4[ebp]
  00893	8d 45 a4	 lea	 eax, DWORD PTR _RealData$[ebp+16]
  00896	50		 push	 eax
  00897	83 ec 08	 sub	 esp, 8
  0089a	f2 0f 11 04 24	 movsd	 QWORD PTR [esp], xmm0
  0089f	ff 75 08	 push	 DWORD PTR _nPcnt$7[ebp]
  008a2	56		 push	 esi
  008a3	e8 00 00 00 00	 call	 ?TbondPrcLToF@CDataConverter@@SAHDHNAAV?$CStringT@DV?$StrTraitMFC_DLL@DV?$ChTraitsCRT@D@ATL@@@@@ATL@@@Z ; CDataConverter::TbondPrcLToF
  008a8	83 c4 14	 add	 esp, 20			; 00000014H
  008ab	85 c0		 test	 eax, eax
  008ad	75 30		 jne	 SHORT $LN54@ReceiveRea

; 877  : 			RealData.m_strChange.Format(_T("%lf"), CDataConverter::DataSeparation(RealData.m_strChange, nPcnt));

  008af	ff 75 08	 push	 DWORD PTR _nPcnt$7[ebp]
  008b2	8d 45 a4	 lea	 eax, DWORD PTR _RealData$[ebp+16]
  008b5	51		 push	 ecx
  008b6	8b cc		 mov	 ecx, esp
  008b8	50		 push	 eax
  008b9	ff 15 00 00 00
	00		 call	 DWORD PTR __imp_??0?$CStringT@DV?$StrTraitMFC_DLL@DV?$ChTraitsCRT@D@ATL@@@@@ATL@@QAE@ABV01@@Z
  008bf	e8 00 00 00 00	 call	 ?DataSeparation@CDataConverter@@SANV?$CStringT@DV?$StrTraitMFC_DLL@DV?$ChTraitsCRT@D@ATL@@@@@ATL@@H@Z ; CDataConverter::DataSeparation
  008c4	dd 5d d4	 fstp	 QWORD PTR tv719[ebp]
  008c7	f2 0f 10 45 d4	 movsd	 xmm0, QWORD PTR tv719[ebp]
  008cc	8d 45 a4	 lea	 eax, DWORD PTR _RealData$[ebp+16]
  008cf	f2 0f 11 04 24	 movsd	 QWORD PTR [esp], xmm0
  008d4	68 00 00 00 00	 push	 OFFSET ??_C@_03DLDNIBIK@?$CFlf@
  008d9	50		 push	 eax
  008da	ff d3		 call	 ebx
  008dc	83 c4 10	 add	 esp, 16			; 00000010H
$LN54@ReceiveRea:

; 878  : 	}

  008df	8d 4d 0c	 lea	 ecx, DWORD PTR _strGB$12[ebp]
  008e2	ff 15 00 00 00
	00		 call	 DWORD PTR __imp_??1?$CStringT@DV?$StrTraitMFC_DLL@DV?$ChTraitsCRT@D@ATL@@@@@ATL@@QAE@XZ
  008e8	8d 4d 14	 lea	 ecx, DWORD PTR _strTextType$14[ebp]
  008eb	c6 45 fc 04	 mov	 BYTE PTR __$EHRec$[ebp+8], 4
  008ef	ff 15 00 00 00
	00		 call	 DWORD PTR __imp_??1?$CStringT@DV?$StrTraitMFC_DLL@DV?$ChTraitsCRT@D@ATL@@@@@ATL@@QAE@XZ
$LN49@ReceiveRea:

; 879  : 
; 880  : 	m_pPtSite->RecieveRealData(nKey, (LONG)&RealData);

  008f5	8b 45 d0	 mov	 eax, DWORD PTR _this$1$[ebp]
  008f8	8d 55 94	 lea	 edx, DWORD PTR _RealData$[ebp]
  008fb	52		 push	 edx
  008fc	ff 75 10	 push	 DWORD PTR _nKey$[ebp]
  008ff	8b 40 20	 mov	 eax, DWORD PTR [eax+32]
  00902	50		 push	 eax
  00903	8b 08		 mov	 ecx, DWORD PTR [eax]
  00905	ff 51 08	 call	 DWORD PTR [ecx+8]
$LN93@ReceiveRea:

; 881  : 
; 882  : 	return TRUE;

  00908	8d 4d ec	 lea	 ecx, DWORD PTR _szDnLimit$[ebp]
  0090b	ff 15 00 00 00
	00		 call	 DWORD PTR __imp_??1?$CStringT@DV?$StrTraitMFC_DLL@DV?$ChTraitsCRT@D@ATL@@@@@ATL@@QAE@XZ
  00911	8d 4d e8	 lea	 ecx, DWORD PTR _szUpLimit$[ebp]
$LN198@ReceiveRea:
  00914	ff 15 00 00 00
	00		 call	 DWORD PTR __imp_??1?$CStringT@DV?$StrTraitMFC_DLL@DV?$ChTraitsCRT@D@ATL@@@@@ATL@@QAE@XZ
$LN92@ReceiveRea:
  0091a	8d 4d c8	 lea	 ecx, DWORD PTR _RealData$[ebp+52]
  0091d	ff 15 00 00 00
	00		 call	 DWORD PTR __imp_??1?$CStringT@DV?$StrTraitMFC_DLL@DV?$ChTraitsCRT@D@ATL@@@@@ATL@@QAE@XZ
  00923	8d 4d bc	 lea	 ecx, DWORD PTR _RealData$[ebp+40]
  00926	ff 15 00 00 00
	00		 call	 DWORD PTR __imp_??1?$CStringT@DV?$StrTraitMFC_DLL@DV?$ChTraitsCRT@D@ATL@@@@@ATL@@QAE@XZ
  0092c	8d 4d b8	 lea	 ecx, DWORD PTR _RealData$[ebp+36]
  0092f	ff 15 00 00 00
	00		 call	 DWORD PTR __imp_??1?$CStringT@DV?$StrTraitMFC_DLL@DV?$ChTraitsCRT@D@ATL@@@@@ATL@@QAE@XZ
  00935	8d 4d b4	 lea	 ecx, DWORD PTR _RealData$[ebp+32]
  00938	ff 15 00 00 00
	00		 call	 DWORD PTR __imp_??1?$CStringT@DV?$StrTraitMFC_DLL@DV?$ChTraitsCRT@D@ATL@@@@@ATL@@QAE@XZ
  0093e	8d 4d b0	 lea	 ecx, DWORD PTR _RealData$[ebp+28]
  00941	ff 15 00 00 00
	00		 call	 DWORD PTR __imp_??1?$CStringT@DV?$StrTraitMFC_DLL@DV?$ChTraitsCRT@D@ATL@@@@@ATL@@QAE@XZ
  00947	8d 4d ac	 lea	 ecx, DWORD PTR _RealData$[ebp+24]
  0094a	ff 15 00 00 00
	00		 call	 DWORD PTR __imp_??1?$CStringT@DV?$StrTraitMFC_DLL@DV?$ChTraitsCRT@D@ATL@@@@@ATL@@QAE@XZ
  00950	8d 4d a8	 lea	 ecx, DWORD PTR _RealData$[ebp+20]
  00953	ff 15 00 00 00
	00		 call	 DWORD PTR __imp_??1?$CStringT@DV?$StrTraitMFC_DLL@DV?$ChTraitsCRT@D@ATL@@@@@ATL@@QAE@XZ
  00959	8d 4d a4	 lea	 ecx, DWORD PTR _RealData$[ebp+16]
  0095c	ff 15 00 00 00
	00		 call	 DWORD PTR __imp_??1?$CStringT@DV?$StrTraitMFC_DLL@DV?$ChTraitsCRT@D@ATL@@@@@ATL@@QAE@XZ
  00962	8d 4d a0	 lea	 ecx, DWORD PTR _RealData$[ebp+12]
  00965	ff 15 00 00 00
	00		 call	 DWORD PTR __imp_??1?$CStringT@DV?$StrTraitMFC_DLL@DV?$ChTraitsCRT@D@ATL@@@@@ATL@@QAE@XZ
  0096b	8d 4d 9c	 lea	 ecx, DWORD PTR _RealData$[ebp+8]
  0096e	ff 15 00 00 00
	00		 call	 DWORD PTR __imp_??1?$CStringT@DV?$StrTraitMFC_DLL@DV?$ChTraitsCRT@D@ATL@@@@@ATL@@QAE@XZ
  00974	8d 4d 98	 lea	 ecx, DWORD PTR _RealData$[ebp+4]
  00977	ff 15 00 00 00
	00		 call	 DWORD PTR __imp_??1?$CStringT@DV?$StrTraitMFC_DLL@DV?$ChTraitsCRT@D@ATL@@@@@ATL@@QAE@XZ
  0097d	8d 4d 94	 lea	 ecx, DWORD PTR _RealData$[ebp]
  00980	ff 15 00 00 00
	00		 call	 DWORD PTR __imp_??1?$CStringT@DV?$StrTraitMFC_DLL@DV?$ChTraitsCRT@D@ATL@@@@@ATL@@QAE@XZ
$LN186@ReceiveRea:
  00986	8d 4d cc	 lea	 ecx, DWORD PTR _szDebug$[ebp]
  00989	ff 15 00 00 00
	00		 call	 DWORD PTR __imp_??1?$CStringT@DV?$StrTraitMFC_DLL@DV?$ChTraitsCRT@D@ATL@@@@@ATL@@QAE@XZ
  0098f	b8 01 00 00 00	 mov	 eax, 1

; 883  : }

  00994	8b 4d f4	 mov	 ecx, DWORD PTR __$EHRec$[ebp]
  00997	64 89 0d 00 00
	00 00		 mov	 DWORD PTR fs:0, ecx
  0099e	59		 pop	 ecx
  0099f	5f		 pop	 edi
  009a0	5e		 pop	 esi
  009a1	5b		 pop	 ebx
  009a2	8b e5		 mov	 esp, ebp
  009a4	5d		 pop	 ebp
  009a5	c2 10 00	 ret	 16			; 00000010H
_TEXT	ENDS
;	COMDAT text$x
text$x	SEGMENT
__unwindfunclet$?ReceiveRealDataEx_Sub@CPartnerManager@@IAEHAAV?$CStringT@DV?$StrTraitMFC_DLL@DV?$ChTraitsCRT@D@ATL@@@@@ATL@@HHPAK@Z$0:
  00000	8d 4d cc	 lea	 ecx, DWORD PTR _szDebug$[ebp]
  00003	ff 25 00 00 00
	00		 jmp	 DWORD PTR __imp_??1?$CStringT@DV?$StrTraitMFC_DLL@DV?$ChTraitsCRT@D@ATL@@@@@ATL@@QAE@XZ
__unwindfunclet$?ReceiveRealDataEx_Sub@CPartnerManager@@IAEHAAV?$CStringT@DV?$StrTraitMFC_DLL@DV?$ChTraitsCRT@D@ATL@@@@@ATL@@HHPAK@Z$1:
  00009	8d 4d 94	 lea	 ecx, DWORD PTR _RealData$[ebp]
  0000c	e9 00 00 00 00	 jmp	 ??1CRealData_Common@@QAE@XZ
__unwindfunclet$?ReceiveRealDataEx_Sub@CPartnerManager@@IAEHAAV?$CStringT@DV?$StrTraitMFC_DLL@DV?$ChTraitsCRT@D@ATL@@@@@ATL@@HHPAK@Z$2:
  00011	8d 4d 14	 lea	 ecx, DWORD PTR _szFlag$18[ebp]
  00014	ff 25 00 00 00
	00		 jmp	 DWORD PTR __imp_??1?$CStringT@DV?$StrTraitMFC_DLL@DV?$ChTraitsCRT@D@ATL@@@@@ATL@@QAE@XZ
__unwindfunclet$?ReceiveRealDataEx_Sub@CPartnerManager@@IAEHAAV?$CStringT@DV?$StrTraitMFC_DLL@DV?$ChTraitsCRT@D@ATL@@@@@ATL@@HHPAK@Z$3:
  0001a	8d 4d e8	 lea	 ecx, DWORD PTR _szUpLimit$[ebp]
  0001d	ff 25 00 00 00
	00		 jmp	 DWORD PTR __imp_??1?$CStringT@DV?$StrTraitMFC_DLL@DV?$ChTraitsCRT@D@ATL@@@@@ATL@@QAE@XZ
__unwindfunclet$?ReceiveRealDataEx_Sub@CPartnerManager@@IAEHAAV?$CStringT@DV?$StrTraitMFC_DLL@DV?$ChTraitsCRT@D@ATL@@@@@ATL@@HHPAK@Z$4:
  00023	8d 4d ec	 lea	 ecx, DWORD PTR _szDnLimit$[ebp]
  00026	ff 25 00 00 00
	00		 jmp	 DWORD PTR __imp_??1?$CStringT@DV?$StrTraitMFC_DLL@DV?$ChTraitsCRT@D@ATL@@@@@ATL@@QAE@XZ
__unwindfunclet$?ReceiveRealDataEx_Sub@CPartnerManager@@IAEHAAV?$CStringT@DV?$StrTraitMFC_DLL@DV?$ChTraitsCRT@D@ATL@@@@@ATL@@HHPAK@Z$5:
  0002c	8b 45 e4	 mov	 eax, DWORD PTR $T6[ebp]
  0002f	83 e0 01	 and	 eax, 1
  00032	0f 84 0d 00 00
	00		 je	 $LN66@ReceiveRea
  00038	83 65 e4 fe	 and	 DWORD PTR $T6[ebp], -2	; fffffffeH
  0003c	8d 4d d8	 lea	 ecx, DWORD PTR $T3[ebp]
  0003f	ff 25 00 00 00
	00		 jmp	 DWORD PTR __imp_??1?$CStringT@DV?$StrTraitMFC_DLL@DV?$ChTraitsCRT@D@ATL@@@@@ATL@@QAE@XZ
$LN66@ReceiveRea:
  00045	c3		 ret	 0
__unwindfunclet$?ReceiveRealDataEx_Sub@CPartnerManager@@IAEHAAV?$CStringT@DV?$StrTraitMFC_DLL@DV?$ChTraitsCRT@D@ATL@@@@@ATL@@HHPAK@Z$7:
  00046	8d 4d 14	 lea	 ecx, DWORD PTR $T17[ebp]
  00049	ff 25 00 00 00
	00		 jmp	 DWORD PTR __imp_??1?$CStringT@DV?$StrTraitMFC_DLL@DV?$ChTraitsCRT@D@ATL@@@@@ATL@@QAE@XZ
__unwindfunclet$?ReceiveRealDataEx_Sub@CPartnerManager@@IAEHAAV?$CStringT@DV?$StrTraitMFC_DLL@DV?$ChTraitsCRT@D@ATL@@@@@ATL@@HHPAK@Z$8:
  0004f	8d 4d 14	 lea	 ecx, DWORD PTR $T16[ebp]
  00052	ff 25 00 00 00
	00		 jmp	 DWORD PTR __imp_??1?$CStringT@DV?$StrTraitMFC_DLL@DV?$ChTraitsCRT@D@ATL@@@@@ATL@@QAE@XZ
__unwindfunclet$?ReceiveRealDataEx_Sub@CPartnerManager@@IAEHAAV?$CStringT@DV?$StrTraitMFC_DLL@DV?$ChTraitsCRT@D@ATL@@@@@ATL@@HHPAK@Z$9:
  00058	8b 45 e4	 mov	 eax, DWORD PTR $T6[ebp]
  0005b	83 e0 04	 and	 eax, 4
  0005e	0f 84 0d 00 00
	00		 je	 $LN74@ReceiveRea
  00064	83 65 e4 fb	 and	 DWORD PTR $T6[ebp], -5	; fffffffbH
  00068	8d 4d 14	 lea	 ecx, DWORD PTR $T15[ebp]
  0006b	ff 25 00 00 00
	00		 jmp	 DWORD PTR __imp_??1?$CStringT@DV?$StrTraitMFC_DLL@DV?$ChTraitsCRT@D@ATL@@@@@ATL@@QAE@XZ
$LN74@ReceiveRea:
  00071	c3		 ret	 0
__unwindfunclet$?ReceiveRealDataEx_Sub@CPartnerManager@@IAEHAAV?$CStringT@DV?$StrTraitMFC_DLL@DV?$ChTraitsCRT@D@ATL@@@@@ATL@@HHPAK@Z$11:
  00072	8d 4d 08	 lea	 ecx, DWORD PTR $T10[ebp]
  00075	ff 25 00 00 00
	00		 jmp	 DWORD PTR __imp_??1?$CStringT@DV?$StrTraitMFC_DLL@DV?$ChTraitsCRT@D@ATL@@@@@ATL@@QAE@XZ
__unwindfunclet$?ReceiveRealDataEx_Sub@CPartnerManager@@IAEHAAV?$CStringT@DV?$StrTraitMFC_DLL@DV?$ChTraitsCRT@D@ATL@@@@@ATL@@HHPAK@Z$12:
  0007b	8d 4d 08	 lea	 ecx, DWORD PTR $T9[ebp]
  0007e	ff 25 00 00 00
	00		 jmp	 DWORD PTR __imp_??1?$CStringT@DV?$StrTraitMFC_DLL@DV?$ChTraitsCRT@D@ATL@@@@@ATL@@QAE@XZ
__unwindfunclet$?ReceiveRealDataEx_Sub@CPartnerManager@@IAEHAAV?$CStringT@DV?$StrTraitMFC_DLL@DV?$ChTraitsCRT@D@ATL@@@@@ATL@@HHPAK@Z$13:
  00084	8d 4d 08	 lea	 ecx, DWORD PTR $T8[ebp]
  00087	ff 25 00 00 00
	00		 jmp	 DWORD PTR __imp_??1?$CStringT@DV?$StrTraitMFC_DLL@DV?$ChTraitsCRT@D@ATL@@@@@ATL@@QAE@XZ
__unwindfunclet$?ReceiveRealDataEx_Sub@CPartnerManager@@IAEHAAV?$CStringT@DV?$StrTraitMFC_DLL@DV?$ChTraitsCRT@D@ATL@@@@@ATL@@HHPAK@Z$14:
  0008d	8d 4d 14	 lea	 ecx, DWORD PTR _strTextType$14[ebp]
  00090	ff 25 00 00 00
	00		 jmp	 DWORD PTR __imp_??1?$CStringT@DV?$StrTraitMFC_DLL@DV?$ChTraitsCRT@D@ATL@@@@@ATL@@QAE@XZ
__unwindfunclet$?ReceiveRealDataEx_Sub@CPartnerManager@@IAEHAAV?$CStringT@DV?$StrTraitMFC_DLL@DV?$ChTraitsCRT@D@ATL@@@@@ATL@@HHPAK@Z$15:
  00096	8d 4d 0c	 lea	 ecx, DWORD PTR _strGB$12[ebp]
  00099	ff 25 00 00 00
	00		 jmp	 DWORD PTR __imp_??1?$CStringT@DV?$StrTraitMFC_DLL@DV?$ChTraitsCRT@D@ATL@@@@@ATL@@QAE@XZ
  0009f	cc		 int	 3
  000a0	cc		 int	 3
  000a1	cc		 int	 3
  000a2	cc		 int	 3
  000a3	cc		 int	 3
__ehhandler$?ReceiveRealDataEx_Sub@CPartnerManager@@IAEHAAV?$CStringT@DV?$StrTraitMFC_DLL@DV?$ChTraitsCRT@D@ATL@@@@@ATL@@HHPAK@Z:
  000a4	90		 npad	 1
  000a5	90		 npad	 1
  000a6	8b 54 24 08	 mov	 edx, DWORD PTR [esp+8]
  000aa	8d 42 0c	 lea	 eax, DWORD PTR [edx+12]
  000ad	8b 4a 90	 mov	 ecx, DWORD PTR [edx-112]
  000b0	33 c8		 xor	 ecx, eax
  000b2	e8 00 00 00 00	 call	 @__security_check_cookie@4
  000b7	b8 00 00 00 00	 mov	 eax, OFFSET __ehfuncinfo$?ReceiveRealDataEx_Sub@CPartnerManager@@IAEHAAV?$CStringT@DV?$StrTraitMFC_DLL@DV?$ChTraitsCRT@D@ATL@@@@@ATL@@HHPAK@Z
  000bc	e9 00 00 00 00	 jmp	 ___CxxFrameHandler3
text$x	ENDS
?ReceiveRealDataEx_Sub@CPartnerManager@@IAEHAAV?$CStringT@DV?$StrTraitMFC_DLL@DV?$ChTraitsCRT@D@ATL@@@@@ATL@@HHPAK@Z ENDP ; CPartnerManager::ReceiveRealDataEx_Sub
; Function compile flags: /Ogtp
; File C:\Program Files (x86)\Microsoft Visual Studio\2019\Community\VC\Tools\MSVC\14.29.30133\atlmfc\include\afx.inl
;	COMDAT ??_G?$CArray@UFID_SENDDATA@@AAU1@@@UAEPAXI@Z
_TEXT	SEGMENT
___flags$ = 8						; size = 4
??_G?$CArray@UFID_SENDDATA@@AAU1@@@UAEPAXI@Z PROC	; CArray<FID_SENDDATA,FID_SENDDATA &>::`scalar deleting destructor', COMDAT
; _this$ = ecx
  00000	55		 push	 ebp
  00001	8b ec		 mov	 ebp, esp
  00003	56		 push	 esi
  00004	8b f1		 mov	 esi, ecx
  00006	e8 00 00 00 00	 call	 ??1?$CArray@UFID_SENDDATA@@AAU1@@@UAE@XZ ; CArray<FID_SENDDATA,FID_SENDDATA &>::~CArray<FID_SENDDATA,FID_SENDDATA &>
  0000b	8b 45 08	 mov	 eax, DWORD PTR ___flags$[ebp]
  0000e	a8 01		 test	 al, 1
  00010	74 1f		 je	 SHORT $LN9@scalar
  00012	a8 04		 test	 al, 4
  00014	75 10		 jne	 SHORT $LN3@scalar

; 112  : 	{ ::operator delete(p); }

  00016	56		 push	 esi
  00017	e8 00 00 00 00	 call	 ??3@YAXPAX@Z		; operator delete
  0001c	83 c4 04	 add	 esp, 4
  0001f	8b c6		 mov	 eax, esi
  00021	5e		 pop	 esi
  00022	5d		 pop	 ebp
  00023	c2 04 00	 ret	 4
$LN3@scalar:
  00026	6a 14		 push	 20			; 00000014H
  00028	56		 push	 esi
  00029	e8 00 00 00 00	 call	 ?__global_delete@@YAXPAXI@Z ; __global_delete
  0002e	83 c4 08	 add	 esp, 8
$LN9@scalar:
  00031	8b c6		 mov	 eax, esi
  00033	5e		 pop	 esi
  00034	5d		 pop	 ebp
  00035	c2 04 00	 ret	 4
??_G?$CArray@UFID_SENDDATA@@AAU1@@@UAEPAXI@Z ENDP	; CArray<FID_SENDDATA,FID_SENDDATA &>::`scalar deleting destructor'
_TEXT	ENDS
; Function compile flags: /Ogtp
; File C:\Program Files (x86)\Microsoft Visual Studio\2019\Community\VC\Tools\MSVC\14.29.30133\atlmfc\include\afxtempl.h
; File C:\Program Files (x86)\Microsoft Visual Studio\2019\Community\VC\Tools\MSVC\14.29.30133\atlmfc\include\afx.inl
; File C:\Program Files (x86)\Microsoft Visual Studio\2019\Community\VC\Tools\MSVC\14.29.30133\atlmfc\include\afxtempl.h
; File C:\Program Files (x86)\Microsoft Visual Studio\2019\Community\VC\Tools\MSVC\14.29.30133\atlmfc\include\afx.inl
; File C:\Program Files (x86)\Microsoft Visual Studio\2019\Community\VC\Tools\MSVC\14.29.30133\atlmfc\include\afxtempl.h
; File C:\Program Files (x86)\Microsoft Visual Studio\2019\Community\VC\Tools\MSVC\14.29.30133\atlmfc\include\afx.inl
; File C:\Program Files (x86)\Microsoft Visual Studio\2019\Community\VC\Tools\MSVC\14.29.30133\atlmfc\include\afxtempl.h
; File C:\Program Files (x86)\Microsoft Visual Studio\2019\Community\VC\Tools\MSVC\14.29.30133\atlmfc\include\afx.inl
; File C:\Program Files (x86)\Microsoft Visual Studio\2019\Community\VC\Tools\MSVC\14.29.30133\atlmfc\include\afxtempl.h
;	COMDAT ?Serialize@?$CArray@UFID_SENDDATA@@AAU1@@@UAEXAAVCArchive@@@Z
_TEXT	SEGMENT
_pData$1$ = -4						; size = 4
_ar$ = 8						; size = 4
?Serialize@?$CArray@UFID_SENDDATA@@AAU1@@@UAEXAAVCArchive@@@Z PROC ; CArray<FID_SENDDATA,FID_SENDDATA &>::Serialize, COMDAT
; _this$ = ecx

; 633  : {

  00000	55		 push	 ebp
  00001	8b ec		 mov	 ebp, esp
  00003	51		 push	 ecx
  00004	53		 push	 ebx
  00005	56		 push	 esi
  00006	57		 push	 edi
  00007	8b f9		 mov	 edi, ecx
; File C:\Program Files (x86)\Microsoft Visual Studio\2019\Community\VC\Tools\MSVC\14.29.30133\atlmfc\include\afx.inl

; 212  : 	{ return (m_nMode & CArchive::load) == 0; }

  00009	8b 4d 08	 mov	 ecx, DWORD PTR _ar$[ebp]
  0000c	8b 41 18	 mov	 eax, DWORD PTR [ecx+24]
  0000f	f7 d0		 not	 eax
  00011	a8 01		 test	 al, 1
; File C:\Program Files (x86)\Microsoft Visual Studio\2019\Community\VC\Tools\MSVC\14.29.30133\atlmfc\include\afxtempl.h

; 637  : 	if (ar.IsStoring())

  00013	74 0a		 je	 SHORT $LN2@Serialize

; 638  : 	{
; 639  : 		ar.WriteCount(m_nSize);

  00015	ff 77 08	 push	 DWORD PTR [edi+8]
  00018	e8 00 00 00 00	 call	 ?WriteCount@CArchive@@QAEXK@Z ; CArchive::WriteCount

; 640  : 	}

  0001d	eb 0f		 jmp	 SHORT $LN3@Serialize
$LN2@Serialize:

; 641  : 	else
; 642  : 	{
; 643  : 		DWORD_PTR nOldSize = ar.ReadCount();

  0001f	e8 00 00 00 00	 call	 ?ReadCount@CArchive@@QAEKXZ ; CArchive::ReadCount

; 644  : 		SetSize(nOldSize, -1);

  00024	6a ff		 push	 -1
  00026	50		 push	 eax
  00027	8b cf		 mov	 ecx, edi
  00029	e8 00 00 00 00	 call	 ?SetSize@?$CArray@UFID_SENDDATA@@AAU1@@@QAEXHH@Z ; CArray<FID_SENDDATA,FID_SENDDATA &>::SetSize
$LN3@Serialize:

; 645  : 	}
; 646  : 	SerializeElements<TYPE>(ar, m_pData, m_nSize);

  0002e	8b 77 08	 mov	 esi, DWORD PTR [edi+8]
  00031	8b 4f 04	 mov	 ecx, DWORD PTR [edi+4]
  00034	89 4d fc	 mov	 DWORD PTR _pData$1$[ebp], ecx

; 68   : 	ENSURE(nCount == 0 || pElements != NULL);

  00037	85 f6		 test	 esi, esi
  00039	74 08		 je	 SHORT $LN8@Serialize
  0003b	85 c9		 test	 ecx, ecx
  0003d	0f 84 8a 00 00
	00		 je	 $LN40@Serialize
$LN8@Serialize:
; File C:\Program Files (x86)\Microsoft Visual Studio\2019\Community\VC\Tools\MSVC\14.29.30133\atlmfc\include\afx.inl

; 212  : 	{ return (m_nMode & CArchive::load) == 0; }

  00043	8b 55 08	 mov	 edx, DWORD PTR _ar$[ebp]
  00046	8b 42 18	 mov	 eax, DWORD PTR [edx+24]
  00049	f7 d0		 not	 eax
  0004b	a8 01		 test	 al, 1
; File C:\Program Files (x86)\Microsoft Visual Studio\2019\Community\VC\Tools\MSVC\14.29.30133\atlmfc\include\afxtempl.h

; 73   : 	if (ar.IsStoring())

  0004d	74 34		 je	 SHORT $LN16@Serialize

; 74   : 	{
; 75   : 		TYPE* pData;
; 76   : 		UINT_PTR nElementsLeft;
; 77   : 
; 78   : 		nElementsLeft = nCount;
; 79   : 		pData = pElements;
; 80   : 		while( nElementsLeft > 0 )

  0004f	85 f6		 test	 esi, esi
  00051	74 27		 je	 SHORT $LN14@Serialize
$LL11@Serialize:

; 81   : 		{
; 82   : 			UINT nElementsToWrite;
; 83   : 
; 84   : 			nElementsToWrite = UINT(__min(nElementsLeft, INT_MAX/sizeof(TYPE)));

  00053	bb ff ff ff 07	 mov	 ebx, 134217727		; 07ffffffH
  00058	3b f3		 cmp	 esi, ebx
  0005a	0f 42 de	 cmovb	 ebx, esi

; 85   : 			ar.Write(pData, nElementsToWrite*sizeof(TYPE));

  0005d	8b fb		 mov	 edi, ebx
  0005f	c1 e7 04	 shl	 edi, 4
  00062	57		 push	 edi
  00063	51		 push	 ecx
  00064	8b ca		 mov	 ecx, edx
  00066	e8 00 00 00 00	 call	 ?Write@CArchive@@QAEXPBXI@Z ; CArchive::Write

; 86   : 			nElementsLeft -= nElementsToWrite;
; 87   : 			pData += nElementsToWrite;

  0006b	8b 4d fc	 mov	 ecx, DWORD PTR _pData$1$[ebp]
  0006e	8b 55 08	 mov	 edx, DWORD PTR _ar$[ebp]
  00071	03 cf		 add	 ecx, edi
  00073	89 4d fc	 mov	 DWORD PTR _pData$1$[ebp], ecx
  00076	2b f3		 sub	 esi, ebx
  00078	75 d9		 jne	 SHORT $LL11@Serialize
$LN14@Serialize:
  0007a	5f		 pop	 edi

; 647  : }

  0007b	5e		 pop	 esi
  0007c	5b		 pop	 ebx
  0007d	8b e5		 mov	 esp, ebp
  0007f	5d		 pop	 ebp
  00080	c2 04 00	 ret	 4
$LN16@Serialize:

; 97   : 		while( nElementsLeft > 0 )

  00083	85 f6		 test	 esi, esi
  00085	74 f3		 je	 SHORT $LN14@Serialize
  00087	66 0f 1f 84 00
	00 00 00 00	 npad	 9
$LL13@Serialize:

; 98   : 		{
; 99   : 			UINT nElementsToRead;
; 100  : 
; 101  : 			nElementsToRead = UINT(__min(nElementsLeft, INT_MAX/sizeof(TYPE)));

  00090	bb ff ff ff 07	 mov	 ebx, 134217727		; 07ffffffH
  00095	3b f3		 cmp	 esi, ebx
  00097	0f 42 de	 cmovb	 ebx, esi

; 102  : 			ar.EnsureRead(pData, nElementsToRead*sizeof(TYPE));

  0009a	8b fb		 mov	 edi, ebx
  0009c	c1 e7 04	 shl	 edi, 4
; File C:\Program Files (x86)\Microsoft Visual Studio\2019\Community\VC\Tools\MSVC\14.29.30133\atlmfc\include\afx.inl

; 399  : 	UINT nRead=Read(lpBuf, nCount);

  0009f	57		 push	 edi
  000a0	51		 push	 ecx
  000a1	8b ca		 mov	 ecx, edx
  000a3	e8 00 00 00 00	 call	 ?Read@CArchive@@QAEIPAXI@Z ; CArchive::Read

; 400  : 	if(nRead!=nCount)

  000a8	3b c7		 cmp	 eax, edi
  000aa	75 18		 jne	 SHORT $LN30@Serialize
; File C:\Program Files (x86)\Microsoft Visual Studio\2019\Community\VC\Tools\MSVC\14.29.30133\atlmfc\include\afxtempl.h

; 97   : 		while( nElementsLeft > 0 )

  000ac	8b 4d fc	 mov	 ecx, DWORD PTR _pData$1$[ebp]
  000af	8b 55 08	 mov	 edx, DWORD PTR _ar$[ebp]

; 103  : 			nElementsLeft -= nElementsToRead;
; 104  : 			pData += nElementsToRead;

  000b2	03 cf		 add	 ecx, edi
  000b4	89 4d fc	 mov	 DWORD PTR _pData$1$[ebp], ecx
  000b7	2b f3		 sub	 esi, ebx
  000b9	75 d5		 jne	 SHORT $LL13@Serialize

; 647  : }

  000bb	5f		 pop	 edi
  000bc	5e		 pop	 esi
  000bd	5b		 pop	 ebx
  000be	8b e5		 mov	 esp, ebp
  000c0	5d		 pop	 ebp
  000c1	c2 04 00	 ret	 4
$LN30@Serialize:
; File C:\Program Files (x86)\Microsoft Visual Studio\2019\Community\VC\Tools\MSVC\14.29.30133\atlmfc\include\afx.inl

; 402  : 		AfxThrowArchiveException(CArchiveException::endOfFile);

  000c4	6a 00		 push	 0
  000c6	6a 03		 push	 3
  000c8	e8 00 00 00 00	 call	 ?AfxThrowArchiveException@@YGXHPBD@Z ; AfxThrowArchiveException
$LN40@Serialize:
; File C:\Program Files (x86)\Microsoft Visual Studio\2019\Community\VC\Tools\MSVC\14.29.30133\atlmfc\include\afxtempl.h

; 68   : 	ENSURE(nCount == 0 || pElements != NULL);

  000cd	e8 00 00 00 00	 call	 ?AfxThrowInvalidArgException@@YGXXZ ; AfxThrowInvalidArgException
$LN38@Serialize:
  000d2	cc		 int	 3
?Serialize@?$CArray@UFID_SENDDATA@@AAU1@@@UAEXAAVCArchive@@@Z ENDP ; CArray<FID_SENDDATA,FID_SENDDATA &>::Serialize
_TEXT	ENDS
; Function compile flags: /Ogtp
; File C:\Program Files (x86)\Microsoft Visual Studio\2019\Community\VC\Tools\MSVC\14.29.30133\atlmfc\include\afxtempl.h
;	COMDAT ??1?$CArray@UFID_SENDDATA@@AAU1@@@UAE@XZ
_TEXT	SEGMENT
??1?$CArray@UFID_SENDDATA@@AAU1@@@UAE@XZ PROC		; CArray<FID_SENDDATA,FID_SENDDATA &>::~CArray<FID_SENDDATA,FID_SENDDATA &>, COMDAT
; _this$ = ecx

; 355  : {

  00000	56		 push	 esi
  00001	8b f1		 mov	 esi, ecx

; 356  : 	ASSERT_VALID(this);
; 357  : 
; 358  : 	if (m_pData != NULL)

  00003	8b 46 04	 mov	 eax, DWORD PTR [esi+4]
  00006	c7 06 00 00 00
	00		 mov	 DWORD PTR [esi], OFFSET ??_7?$CArray@UFID_SENDDATA@@AAU1@@@6B@
  0000c	85 c0		 test	 eax, eax
  0000e	74 32		 je	 SHORT $LN5@CArray

; 359  : 	{
; 360  : 		for( int i = 0; i < m_nSize; i++ )

  00010	53		 push	 ebx
  00011	33 db		 xor	 ebx, ebx
  00013	39 5e 08	 cmp	 DWORD PTR [esi+8], ebx
  00016	7e 20		 jle	 SHORT $LN3@CArray
  00018	57		 push	 edi
  00019	33 ff		 xor	 edi, edi
  0001b	0f 1f 44 00 00	 npad	 5
$LL4@CArray:

; 361  : 			(m_pData + i)->~TYPE();

  00020	8b 4e 04	 mov	 ecx, DWORD PTR [esi+4]
  00023	03 cf		 add	 ecx, edi
  00025	ff 15 00 00 00
	00		 call	 DWORD PTR __imp_??1?$CStringT@DV?$StrTraitMFC_DLL@DV?$ChTraitsCRT@D@ATL@@@@@ATL@@QAE@XZ
  0002b	43		 inc	 ebx
  0002c	83 c7 10	 add	 edi, 16			; 00000010H
  0002f	3b 5e 08	 cmp	 ebx, DWORD PTR [esi+8]
  00032	7c ec		 jl	 SHORT $LL4@CArray
  00034	8b 46 04	 mov	 eax, DWORD PTR [esi+4]
  00037	5f		 pop	 edi
$LN3@CArray:

; 362  : 		delete[] (BYTE*)m_pData;

  00038	50		 push	 eax
  00039	e8 00 00 00 00	 call	 ??_V@YAXPAX@Z		; operator delete[]
  0003e	83 c4 04	 add	 esp, 4
  00041	5b		 pop	 ebx
$LN5@CArray:

; 363  : 	}
; 364  : }

  00042	5e		 pop	 esi
  00043	c3		 ret	 0
??1?$CArray@UFID_SENDDATA@@AAU1@@@UAE@XZ ENDP		; CArray<FID_SENDDATA,FID_SENDDATA &>::~CArray<FID_SENDDATA,FID_SENDDATA &>
_TEXT	ENDS
; Function compile flags: /Ogtp
; File C:\Program Files (x86)\Microsoft Visual Studio\2019\Community\VC\Tools\MSVC\14.29.30133\atlmfc\include\afxtempl.h
;	COMDAT ?SetAtGrow@?$CArray@UFID_SENDDATA@@AAU1@@@QAEXHAAUFID_SENDDATA@@@Z
_TEXT	SEGMENT
_nIndex$ = 8						; size = 4
_newElement$ = 12					; size = 4
?SetAtGrow@?$CArray@UFID_SENDDATA@@AAU1@@@QAEXHAAUFID_SENDDATA@@@Z PROC ; CArray<FID_SENDDATA,FID_SENDDATA &>::SetAtGrow, COMDAT
; _this$ = ecx

; 534  : {

  00000	55		 push	 ebp
  00001	8b ec		 mov	 ebp, esp
  00003	56		 push	 esi
  00004	57		 push	 edi

; 535  : 	ASSERT_VALID(this);
; 536  : 	ASSERT(nIndex >= 0);
; 537  : 
; 538  : 	if(nIndex < 0)

  00005	8b 7d 08	 mov	 edi, DWORD PTR _nIndex$[ebp]
  00008	8b f1		 mov	 esi, ecx
  0000a	85 ff		 test	 edi, edi
  0000c	78 3a		 js	 SHORT $LN9@SetAtGrow

; 540  : 
; 541  : 	if (nIndex >= m_nSize)

  0000e	3b 7e 08	 cmp	 edi, DWORD PTR [esi+8]
  00011	7c 0b		 jl	 SHORT $LN3@SetAtGrow

; 542  : 		SetSize(nIndex+1, -1);

  00013	6a ff		 push	 -1
  00015	8d 47 01	 lea	 eax, DWORD PTR [edi+1]
  00018	50		 push	 eax
  00019	e8 00 00 00 00	 call	 ?SetSize@?$CArray@UFID_SENDDATA@@AAU1@@@QAEXHH@Z ; CArray<FID_SENDDATA,FID_SENDDATA &>::SetSize
$LN3@SetAtGrow:

; 543  : 	m_pData[nIndex] = newElement;

  0001e	c1 e7 04	 shl	 edi, 4
  00021	03 7e 04	 add	 edi, DWORD PTR [esi+4]
  00024	8b 75 0c	 mov	 esi, DWORD PTR _newElement$[ebp]
  00027	8b cf		 mov	 ecx, edi
  00029	56		 push	 esi
  0002a	ff 15 00 00 00
	00		 call	 DWORD PTR __imp_??4?$CStringT@DV?$StrTraitMFC_DLL@DV?$ChTraitsCRT@D@ATL@@@@@ATL@@QAEAAV01@ABV01@@Z
  00030	8b 46 04	 mov	 eax, DWORD PTR [esi+4]
  00033	89 47 04	 mov	 DWORD PTR [edi+4], eax
  00036	8b 46 08	 mov	 eax, DWORD PTR [esi+8]
  00039	89 47 08	 mov	 DWORD PTR [edi+8], eax
  0003c	8b 46 0c	 mov	 eax, DWORD PTR [esi+12]
  0003f	89 47 0c	 mov	 DWORD PTR [edi+12], eax
  00042	5f		 pop	 edi
  00043	5e		 pop	 esi

; 544  : }

  00044	5d		 pop	 ebp
  00045	c2 08 00	 ret	 8
$LN9@SetAtGrow:

; 539  : 		AfxThrowInvalidArgException();

  00048	e8 00 00 00 00	 call	 ?AfxThrowInvalidArgException@@YGXXZ ; AfxThrowInvalidArgException
$LN7@SetAtGrow:
  0004d	cc		 int	 3
?SetAtGrow@?$CArray@UFID_SENDDATA@@AAU1@@@QAEXHAAUFID_SENDDATA@@@Z ENDP ; CArray<FID_SENDDATA,FID_SENDDATA &>::SetAtGrow
_TEXT	ENDS
; Function compile flags: /Ogtp
; File C:\Program Files (x86)\Microsoft Visual Studio\2019\Community\VC\Tools\MSVC\14.29.30133\atlmfc\include\afxtempl.h
;	COMDAT ?SetAt@?$CArray@UFID_SENDDATA@@AAU1@@@QAEXHAAUFID_SENDDATA@@@Z
_TEXT	SEGMENT
_nIndex$ = 8						; size = 4
_newElement$ = 12					; size = 4
?SetAt@?$CArray@UFID_SENDDATA@@AAU1@@@QAEXHAAUFID_SENDDATA@@@Z PROC ; CArray<FID_SENDDATA,FID_SENDDATA &>::SetAt, COMDAT
; _this$ = ecx

; 302  : {

  00000	55		 push	 ebp
  00001	8b ec		 mov	 ebp, esp
  00003	56		 push	 esi
  00004	57		 push	 edi

; 303  : 	ASSERT(nIndex >= 0 && nIndex < m_nSize);
; 304  : 	if(nIndex >= 0 && nIndex < m_nSize)

  00005	8b 7d 08	 mov	 edi, DWORD PTR _nIndex$[ebp]
  00008	85 ff		 test	 edi, edi
  0000a	78 2f		 js	 SHORT $LN2@SetAt
  0000c	3b 79 08	 cmp	 edi, DWORD PTR [ecx+8]
  0000f	7d 2a		 jge	 SHORT $LN2@SetAt

; 305  : 		m_pData[nIndex] = newElement;

  00011	8b 75 0c	 mov	 esi, DWORD PTR _newElement$[ebp]
  00014	c1 e7 04	 shl	 edi, 4
  00017	03 79 04	 add	 edi, DWORD PTR [ecx+4]
  0001a	56		 push	 esi
  0001b	8b cf		 mov	 ecx, edi
  0001d	ff 15 00 00 00
	00		 call	 DWORD PTR __imp_??4?$CStringT@DV?$StrTraitMFC_DLL@DV?$ChTraitsCRT@D@ATL@@@@@ATL@@QAEAAV01@ABV01@@Z
  00023	8b 46 04	 mov	 eax, DWORD PTR [esi+4]
  00026	89 47 04	 mov	 DWORD PTR [edi+4], eax
  00029	8b 46 08	 mov	 eax, DWORD PTR [esi+8]
  0002c	89 47 08	 mov	 DWORD PTR [edi+8], eax
  0002f	8b 46 0c	 mov	 eax, DWORD PTR [esi+12]
  00032	89 47 0c	 mov	 DWORD PTR [edi+12], eax
  00035	5f		 pop	 edi
  00036	5e		 pop	 esi

; 308  : }

  00037	5d		 pop	 ebp
  00038	c2 08 00	 ret	 8
$LN2@SetAt:

; 306  : 	else
; 307  : 		AfxThrowInvalidArgException();

  0003b	e8 00 00 00 00	 call	 ?AfxThrowInvalidArgException@@YGXXZ ; AfxThrowInvalidArgException
$LN7@SetAt:
  00040	cc		 int	 3
?SetAt@?$CArray@UFID_SENDDATA@@AAU1@@@QAEXHAAUFID_SENDDATA@@@Z ENDP ; CArray<FID_SENDDATA,FID_SENDDATA &>::SetAt
_TEXT	ENDS
; Function compile flags: /Ogtp
; File C:\Program Files (x86)\Microsoft Visual Studio\2019\Community\VC\Tools\MSVC\14.29.30133\atlmfc\include\afxtempl.h
;	COMDAT ?GetAt@?$CArray@UFID_SENDDATA@@AAU1@@@QAEAAUFID_SENDDATA@@H@Z
_TEXT	SEGMENT
_nIndex$ = 8						; size = 4
?GetAt@?$CArray@UFID_SENDDATA@@AAU1@@@QAEAAUFID_SENDDATA@@H@Z PROC ; CArray<FID_SENDDATA,FID_SENDDATA &>::GetAt, COMDAT
; _this$ = ecx

; 286  : {

  00000	55		 push	 ebp
  00001	8b ec		 mov	 ebp, esp

; 287  : 	ASSERT(nIndex >= 0 && nIndex < m_nSize);
; 288  : 	if(nIndex >= 0 && nIndex < m_nSize)

  00003	8b 45 08	 mov	 eax, DWORD PTR _nIndex$[ebp]
  00006	85 c0		 test	 eax, eax
  00008	78 0f		 js	 SHORT $LN2@GetAt
  0000a	3b 41 08	 cmp	 eax, DWORD PTR [ecx+8]
  0000d	7d 0a		 jge	 SHORT $LN2@GetAt

; 289  : 		return m_pData[nIndex];

  0000f	c1 e0 04	 shl	 eax, 4
  00012	03 41 04	 add	 eax, DWORD PTR [ecx+4]

; 291  : }

  00015	5d		 pop	 ebp
  00016	c2 04 00	 ret	 4
$LN2@GetAt:

; 290  : 	AfxThrowInvalidArgException();

  00019	e8 00 00 00 00	 call	 ?AfxThrowInvalidArgException@@YGXXZ ; AfxThrowInvalidArgException
$LN4@GetAt:
  0001e	cc		 int	 3
?GetAt@?$CArray@UFID_SENDDATA@@AAU1@@@QAEAAUFID_SENDDATA@@H@Z ENDP ; CArray<FID_SENDDATA,FID_SENDDATA &>::GetAt
_TEXT	ENDS
; Function compile flags: /Ogtp
; File C:\Program Files (x86)\Microsoft Visual Studio\2019\Community\VC\Tools\MSVC\14.29.30133\atlmfc\include\afxtempl.h
; File C:\Program Files (x86)\Windows Kits\10\Include\10.0.22000.0\ucrt\corecrt_memcpy_s.h
; File C:\Program Files (x86)\Microsoft Visual Studio\2019\Community\VC\Tools\MSVC\14.29.30133\atlmfc\include\atlchecked.h
; File C:\Program Files (x86)\Microsoft Visual Studio\2019\Community\VC\Tools\MSVC\14.29.30133\atlmfc\include\afxtempl.h
; File C:\Program Files (x86)\Windows Kits\10\Include\10.0.22000.0\ucrt\corecrt_memcpy_s.h
; File C:\Program Files (x86)\Microsoft Visual Studio\2019\Community\VC\Tools\MSVC\14.29.30133\atlmfc\include\afxtempl.h
;	COMDAT ?SetSize@?$CArray@UFID_SENDDATA@@AAU1@@@QAEXHH@Z
_TEXT	SEGMENT
__N$1$ = -12						; size = 4
__S2$1$ = -8						; size = 4
_nNewMax$1$ = -4					; size = 4
_nAllocSize$1$ = -4					; size = 4
__S1max$1$ = 8						; size = 4
_i$1$ = 8						; size = 4
_nNewSize$ = 8						; size = 4
_pNewData$1$ = 12					; size = 4
tv614 = 12						; size = 4
_nGrowBy$ = 12						; size = 4
?SetSize@?$CArray@UFID_SENDDATA@@AAU1@@@QAEXHH@Z PROC	; CArray<FID_SENDDATA,FID_SENDDATA &>::SetSize, COMDAT
; _this$ = ecx

; 368  : {

  00000	55		 push	 ebp
  00001	8b ec		 mov	 ebp, esp
  00003	83 ec 0c	 sub	 esp, 12			; 0000000cH
  00006	53		 push	 ebx
  00007	8b 5d 08	 mov	 ebx, DWORD PTR _nNewSize$[ebp]
  0000a	56		 push	 esi
  0000b	57		 push	 edi
  0000c	8b f9		 mov	 edi, ecx

; 369  : 	ASSERT_VALID(this);
; 370  : 	ASSERT(nNewSize >= 0);
; 371  : 
; 372  : 	if(nNewSize < 0 )

  0000e	85 db		 test	 ebx, ebx
  00010	0f 88 a4 02 00
	00		 js	 $LN91@SetSize

; 373  : 		AfxThrowInvalidArgException();
; 374  : 
; 375  : 	if (nGrowBy >= 0)

  00016	8b 45 0c	 mov	 eax, DWORD PTR _nGrowBy$[ebp]
  00019	85 c0		 test	 eax, eax
  0001b	78 03		 js	 SHORT $LN90@SetSize

; 376  : 		m_nGrowBy = nGrowBy;  // set new size

  0001d	89 47 10	 mov	 DWORD PTR [edi+16], eax
$LN90@SetSize:

; 377  : 
; 378  : 	if (nNewSize == 0)

  00020	8b 57 04	 mov	 edx, DWORD PTR [edi+4]
  00023	85 db		 test	 ebx, ebx
  00025	75 49		 jne	 SHORT $LN19@SetSize

; 379  : 	{
; 380  : 		// shrink to nothing
; 381  : 		if (m_pData != NULL)

  00027	85 d2		 test	 edx, edx
  00029	74 2e		 je	 SHORT $LN21@SetSize

; 382  : 		{
; 383  : 			for( int i = 0; i < m_nSize; i++ )

  0002b	39 5f 08	 cmp	 DWORD PTR [edi+8], ebx
  0002e	7e 19		 jle	 SHORT $LN3@SetSize
  00030	33 f6		 xor	 esi, esi
$LL4@SetSize:

; 384  : 				(m_pData + i)->~TYPE();

  00032	8b 4f 04	 mov	 ecx, DWORD PTR [edi+4]
  00035	03 ce		 add	 ecx, esi
  00037	ff 15 00 00 00
	00		 call	 DWORD PTR __imp_??1?$CStringT@DV?$StrTraitMFC_DLL@DV?$ChTraitsCRT@D@ATL@@@@@ATL@@QAE@XZ
  0003d	43		 inc	 ebx
  0003e	83 c6 10	 add	 esi, 16			; 00000010H
  00041	3b 5f 08	 cmp	 ebx, DWORD PTR [edi+8]
  00044	7c ec		 jl	 SHORT $LL4@SetSize
  00046	8b 57 04	 mov	 edx, DWORD PTR [edi+4]
$LN3@SetSize:

; 385  : 			delete[] (BYTE*)m_pData;

  00049	52		 push	 edx
  0004a	e8 00 00 00 00	 call	 ??_V@YAXPAX@Z		; operator delete[]
  0004f	83 c4 04	 add	 esp, 4

; 386  : 			m_pData = NULL;

  00052	c7 47 04 00 00
	00 00		 mov	 DWORD PTR [edi+4], 0
$LN21@SetSize:

; 387  : 		}
; 388  : 		m_nSize = m_nMaxSize = 0;

  00059	c7 47 0c 00 00
	00 00		 mov	 DWORD PTR [edi+12], 0
  00060	c7 47 08 00 00
	00 00		 mov	 DWORD PTR [edi+8], 0
  00067	5f		 pop	 edi

; 472  : 		m_nSize = nNewSize;
; 473  : 		m_nMaxSize = nNewMax;
; 474  : 	}
; 475  : }

  00068	5e		 pop	 esi
  00069	5b		 pop	 ebx
  0006a	8b e5		 mov	 esp, ebp
  0006c	5d		 pop	 ebp
  0006d	c2 08 00	 ret	 8
$LN19@SetSize:

; 389  : 	}
; 390  : 	else if (m_pData == NULL)

  00070	85 d2		 test	 edx, edx
  00072	75 54		 jne	 SHORT $LN22@SetSize

; 391  : 	{
; 392  : 		// create buffer big enough to hold number of requested elements or
; 393  : 		// m_nGrowBy elements, whichever is larger.
; 394  : #ifdef SIZE_T_MAX
; 395  : 		ASSERT(nNewSize <= SIZE_T_MAX/sizeof(TYPE));    // no overflow
; 396  : #endif
; 397  : 		size_t nAllocSize = __max(nNewSize, m_nGrowBy);

  00074	8b 47 10	 mov	 eax, DWORD PTR [edi+16]
  00077	3b d8		 cmp	 ebx, eax
  00079	0f 4f c3	 cmovg	 eax, ebx

; 398  : 		m_pData = (TYPE*) new BYTE[(size_t)nAllocSize * sizeof(TYPE)];

  0007c	8b f0		 mov	 esi, eax
  0007e	89 45 fc	 mov	 DWORD PTR _nAllocSize$1$[ebp], eax
  00081	c1 e6 04	 shl	 esi, 4
  00084	56		 push	 esi
  00085	e8 00 00 00 00	 call	 ??_U@YAPAXI@Z		; operator new[]

; 399  : 		memset((void*)m_pData, 0, (size_t)nAllocSize * sizeof(TYPE));

  0008a	56		 push	 esi
  0008b	6a 00		 push	 0
  0008d	50		 push	 eax
  0008e	89 47 04	 mov	 DWORD PTR [edi+4], eax
  00091	e8 00 00 00 00	 call	 _memset
  00096	83 c4 10	 add	 esp, 16			; 00000010H

; 400  : 		for( int i = 0; i < nNewSize; i++ )

  00099	85 db		 test	 ebx, ebx
  0009b	7e 19		 jle	 SHORT $LN6@SetSize

; 398  : 		m_pData = (TYPE*) new BYTE[(size_t)nAllocSize * sizeof(TYPE)];

  0009d	33 f6		 xor	 esi, esi
  0009f	90		 npad	 1
$LL7@SetSize:

; 401  : #pragma push_macro("new")
; 402  : #undef new
; 403  : 			::new( (void*)( m_pData + i ) ) TYPE;

  000a0	8b 4f 04	 mov	 ecx, DWORD PTR [edi+4]
  000a3	03 ce		 add	 ecx, esi
  000a5	ff 15 00 00 00
	00		 call	 DWORD PTR __imp_??0?$CStringT@DV?$StrTraitMFC_DLL@DV?$ChTraitsCRT@D@ATL@@@@@ATL@@QAE@XZ
  000ab	83 c6 10	 add	 esi, 16			; 00000010H
  000ae	83 eb 01	 sub	 ebx, 1
  000b1	75 ed		 jne	 SHORT $LL7@SetSize
  000b3	8b 5d 08	 mov	 ebx, DWORD PTR _nNewSize$[ebp]
$LN6@SetSize:

; 472  : 		m_nSize = nNewSize;
; 473  : 		m_nMaxSize = nNewMax;
; 474  : 	}
; 475  : }

  000b6	8b 45 fc	 mov	 eax, DWORD PTR _nNewMax$1$[ebp]
  000b9	89 47 0c	 mov	 DWORD PTR [edi+12], eax
$LN12@SetSize:
  000bc	89 5f 08	 mov	 DWORD PTR [edi+8], ebx
  000bf	5f		 pop	 edi
  000c0	5e		 pop	 esi
  000c1	5b		 pop	 ebx
  000c2	8b e5		 mov	 esp, ebp
  000c4	5d		 pop	 ebp
  000c5	c2 08 00	 ret	 8
$LN22@SetSize:

; 404  : #pragma pop_macro("new")
; 405  : 		m_nSize = nNewSize;
; 406  : 		m_nMaxSize = nAllocSize;
; 407  : 	}
; 408  : 	else if (nNewSize <= m_nMaxSize)

  000c8	8b 4f 0c	 mov	 ecx, DWORD PTR [edi+12]
  000cb	3b d9		 cmp	 ebx, ecx
  000cd	0f 8f 97 00 00
	00		 jg	 $LN24@SetSize

; 409  : 	{
; 410  : 		// it fits
; 411  : 		if (nNewSize > m_nSize)

  000d3	8b 4f 08	 mov	 ecx, DWORD PTR [edi+8]
  000d6	3b d9		 cmp	 ebx, ecx
  000d8	7e 4d		 jle	 SHORT $LN26@SetSize

; 412  : 		{
; 413  : 			// initialize the new elements
; 414  : 			memset((void*)(m_pData + m_nSize), 0, (size_t)(nNewSize-m_nSize) * sizeof(TYPE));

  000da	8b c3		 mov	 eax, ebx
  000dc	2b c1		 sub	 eax, ecx
  000de	c1 e1 04	 shl	 ecx, 4
  000e1	c1 e0 04	 shl	 eax, 4
  000e4	03 ca		 add	 ecx, edx
  000e6	50		 push	 eax
  000e7	6a 00		 push	 0
  000e9	51		 push	 ecx
  000ea	e8 00 00 00 00	 call	 _memset

; 415  : 			for( int i = 0; i < nNewSize-m_nSize; i++ )

  000ef	8b c3		 mov	 eax, ebx
  000f1	83 c4 0c	 add	 esp, 12			; 0000000cH
  000f4	2b 47 08	 sub	 eax, DWORD PTR [edi+8]
  000f7	33 f6		 xor	 esi, esi
  000f9	85 c0		 test	 eax, eax
  000fb	7e bf		 jle	 SHORT $LN12@SetSize
  000fd	0f 1f 00	 npad	 3
$LL10@SetSize:

; 416  : #pragma push_macro("new")
; 417  : #undef new
; 418  : 				::new( (void*)( m_pData + m_nSize + i ) ) TYPE;

  00100	8b 4f 08	 mov	 ecx, DWORD PTR [edi+8]
  00103	03 ce		 add	 ecx, esi
  00105	c1 e1 04	 shl	 ecx, 4
  00108	03 4f 04	 add	 ecx, DWORD PTR [edi+4]
  0010b	ff 15 00 00 00
	00		 call	 DWORD PTR __imp_??0?$CStringT@DV?$StrTraitMFC_DLL@DV?$ChTraitsCRT@D@ATL@@@@@ATL@@QAE@XZ
  00111	8b c3		 mov	 eax, ebx
  00113	46		 inc	 esi
  00114	2b 47 08	 sub	 eax, DWORD PTR [edi+8]
  00117	3b f0		 cmp	 esi, eax
  00119	7c e5		 jl	 SHORT $LL10@SetSize

; 472  : 		m_nSize = nNewSize;
; 473  : 		m_nMaxSize = nNewMax;
; 474  : 	}
; 475  : }

  0011b	89 5f 08	 mov	 DWORD PTR [edi+8], ebx
  0011e	5f		 pop	 edi
  0011f	5e		 pop	 esi
  00120	5b		 pop	 ebx
  00121	8b e5		 mov	 esp, ebp
  00123	5d		 pop	 ebp
  00124	c2 08 00	 ret	 8
$LN26@SetSize:

; 419  : #pragma pop_macro("new")
; 420  : 		}
; 421  : 		else if (m_nSize > nNewSize)

  00127	7d 93		 jge	 SHORT $LN12@SetSize

; 422  : 		{
; 423  : 			// destroy the old elements
; 424  : 			for( int i = 0; i < m_nSize-nNewSize; i++ )

  00129	2b cb		 sub	 ecx, ebx
  0012b	c7 45 08 00 00
	00 00		 mov	 DWORD PTR _i$1$[ebp], 0
  00132	85 c9		 test	 ecx, ecx
  00134	7e 86		 jle	 SHORT $LN12@SetSize
  00136	8b f3		 mov	 esi, ebx
  00138	c1 e6 04	 shl	 esi, 4
  0013b	0f 1f 44 00 00	 npad	 5
$LL13@SetSize:

; 425  : 				(m_pData + nNewSize + i)->~TYPE();

  00140	8b 4f 04	 mov	 ecx, DWORD PTR [edi+4]
  00143	03 ce		 add	 ecx, esi
  00145	ff 15 00 00 00
	00		 call	 DWORD PTR __imp_??1?$CStringT@DV?$StrTraitMFC_DLL@DV?$ChTraitsCRT@D@ATL@@@@@ATL@@QAE@XZ
  0014b	8b 4d 08	 mov	 ecx, DWORD PTR _i$1$[ebp]
  0014e	83 c6 10	 add	 esi, 16			; 00000010H
  00151	8b 47 08	 mov	 eax, DWORD PTR [edi+8]
  00154	41		 inc	 ecx
  00155	2b c3		 sub	 eax, ebx
  00157	89 4d 08	 mov	 DWORD PTR _i$1$[ebp], ecx
  0015a	3b c8		 cmp	 ecx, eax
  0015c	7c e2		 jl	 SHORT $LL13@SetSize

; 472  : 		m_nSize = nNewSize;
; 473  : 		m_nMaxSize = nNewMax;
; 474  : 	}
; 475  : }

  0015e	89 5f 08	 mov	 DWORD PTR [edi+8], ebx
  00161	5f		 pop	 edi
  00162	5e		 pop	 esi
  00163	5b		 pop	 ebx
  00164	8b e5		 mov	 esp, ebp
  00166	5d		 pop	 ebp
  00167	c2 08 00	 ret	 8
$LN24@SetSize:

; 426  : 		}
; 427  : 		m_nSize = nNewSize;
; 428  : 	}
; 429  : 	else
; 430  : 	{
; 431  : 		// otherwise, grow array
; 432  : 		nGrowBy = m_nGrowBy;

  0016a	8b 47 10	 mov	 eax, DWORD PTR [edi+16]

; 433  : 		if (nGrowBy == 0)

  0016d	85 c0		 test	 eax, eax
  0016f	75 22		 jne	 SHORT $LN37@SetSize

; 434  : 		{
; 435  : 			// heuristically determine growth when nGrowBy == 0
; 436  : 			//  (this avoids heap fragmentation in many situations)
; 437  : 			nGrowBy = m_nSize / 8;

  00171	8b 47 08	 mov	 eax, DWORD PTR [edi+8]
  00174	99		 cdq
  00175	83 e2 07	 and	 edx, 7
  00178	03 c2		 add	 eax, edx
  0017a	c1 f8 03	 sar	 eax, 3

; 438  : 			nGrowBy = (nGrowBy < 4) ? 4 : ((nGrowBy > 1024) ? 1024 : nGrowBy);

  0017d	83 f8 04	 cmp	 eax, 4
  00180	7d 07		 jge	 SHORT $LN36@SetSize
  00182	b8 04 00 00 00	 mov	 eax, 4
  00187	eb 0a		 jmp	 SHORT $LN37@SetSize
$LN36@SetSize:
  00189	ba 00 04 00 00	 mov	 edx, 1024		; 00000400H
  0018e	3b c2		 cmp	 eax, edx
  00190	0f 4f c2	 cmovg	 eax, edx
$LN37@SetSize:

; 439  : 		}
; 440  : 		INT_PTR nNewMax;
; 441  : 		if (nNewSize < m_nMaxSize + nGrowBy)

  00193	03 c1		 add	 eax, ecx
  00195	89 45 fc	 mov	 DWORD PTR _nNewMax$1$[ebp], eax
  00198	3b d8		 cmp	 ebx, eax
  0019a	7d 0a		 jge	 SHORT $LN30@SetSize

; 445  : 
; 446  : 		ASSERT(nNewMax >= m_nMaxSize);  // no wrap around
; 447  : 
; 448  : 		if(nNewMax  < m_nMaxSize)

  0019c	3b c1		 cmp	 eax, ecx
  0019e	0f 8c 16 01 00
	00		 jl	 $LN91@SetSize
  001a4	eb 05		 jmp	 SHORT $LN32@SetSize
$LN30@SetSize:

; 442  : 			nNewMax = m_nMaxSize + nGrowBy;  // granularity
; 443  : 		else
; 444  : 			nNewMax = nNewSize;  // no slush

  001a6	8b c3		 mov	 eax, ebx
  001a8	89 5d fc	 mov	 DWORD PTR _nNewMax$1$[ebp], ebx
$LN32@SetSize:

; 450  : 
; 451  : #ifdef SIZE_T_MAX
; 452  : 		ASSERT(nNewMax <= SIZE_T_MAX/sizeof(TYPE)); // no overflow
; 453  : #endif
; 454  : 		TYPE* pNewData = (TYPE*) new BYTE[(size_t)nNewMax * sizeof(TYPE)];

  001ab	c1 e0 04	 shl	 eax, 4
  001ae	50		 push	 eax
  001af	89 45 08	 mov	 DWORD PTR __S1max$1$[ebp], eax
  001b2	e8 00 00 00 00	 call	 ??_U@YAPAXI@Z		; operator new[]

; 455  : 
; 456  : 		// copy new data from old
; 457  : 		::ATL::Checked::memcpy_s(pNewData, (size_t)nNewMax * sizeof(TYPE),

  001b7	8b 4f 08	 mov	 ecx, DWORD PTR [edi+8]
  001ba	83 c4 04	 add	 esp, 4
  001bd	8b 57 04	 mov	 edx, DWORD PTR [edi+4]
  001c0	8b f0		 mov	 esi, eax
  001c2	c1 e1 04	 shl	 ecx, 4
  001c5	89 75 0c	 mov	 DWORD PTR _pNewData$1$[ebp], esi
  001c8	89 4d f4	 mov	 DWORD PTR __N$1$[ebp], ecx
  001cb	89 55 f8	 mov	 DWORD PTR __S2$1$[ebp], edx
; File C:\Program Files (x86)\Windows Kits\10\Include\10.0.22000.0\ucrt\corecrt_memcpy_s.h

; 46   :         if (_SourceSize == 0)

  001ce	85 c9		 test	 ecx, ecx
  001d0	75 04		 jne	 SHORT $LN59@SetSize

; 47   :         {
; 48   :             return 0;

  001d2	33 c0		 xor	 eax, eax
  001d4	eb 1f		 jmp	 SHORT $LN58@SetSize
$LN59@SetSize:

; 49   :         }
; 50   : 
; 51   :         _CRT_MEMCPY_S_VALIDATE_RETURN_ERRCODE(_Destination != NULL, EINVAL);

  001d6	85 f6		 test	 esi, esi
  001d8	0f 85 81 00 00
	00		 jne	 $LN60@SetSize
$LN94@SetSize:
; File C:\Program Files (x86)\Microsoft Visual Studio\2019\Community\VC\Tools\MSVC\14.29.30133\atlmfc\include\atlchecked.h

; 69   : 	ATLMFC_CRT_ERRORCHECK(::memcpy_s(_S1, _S1max, _S2, _N));

  001de	ff 15 00 00 00
	00		 call	 DWORD PTR __imp___errno
  001e4	c7 00 16 00 00
	00		 mov	 DWORD PTR [eax], 22	; 00000016H
  001ea	ff 15 00 00 00
	00		 call	 DWORD PTR __imp___invalid_parameter_noinfo
$LN64@SetSize:
  001f0	b8 16 00 00 00	 mov	 eax, 22			; 00000016H
$LN58@SetSize:
  001f5	50		 push	 eax
  001f6	e8 00 00 00 00	 call	 ?AfxCrtErrorCheck@@YAHH@Z ; AfxCrtErrorCheck
; File C:\Program Files (x86)\Microsoft Visual Studio\2019\Community\VC\Tools\MSVC\14.29.30133\atlmfc\include\afxtempl.h

; 462  : 		memset((void*)(pNewData + m_nSize), 0, (size_t)(nNewSize-m_nSize) * sizeof(TYPE));

  001fb	8b 4f 08	 mov	 ecx, DWORD PTR [edi+8]
  001fe	8b c3		 mov	 eax, ebx
  00200	2b c1		 sub	 eax, ecx
  00202	c1 e1 04	 shl	 ecx, 4
  00205	c1 e0 04	 shl	 eax, 4
  00208	03 ce		 add	 ecx, esi
  0020a	50		 push	 eax
  0020b	6a 00		 push	 0
  0020d	51		 push	 ecx
  0020e	e8 00 00 00 00	 call	 _memset

; 463  : 		for( int i = 0; i < nNewSize-m_nSize; i++ )

  00213	8b c3		 mov	 eax, ebx
  00215	83 c4 10	 add	 esp, 16			; 00000010H
  00218	2b 47 08	 sub	 eax, DWORD PTR [edi+8]
  0021b	33 f6		 xor	 esi, esi
  0021d	85 c0		 test	 eax, eax
  0021f	7e 1b		 jle	 SHORT $LN15@SetSize
$LL16@SetSize:

; 464  : #pragma push_macro("new")
; 465  : #undef new
; 466  : 			::new( (void*)( pNewData + m_nSize + i ) ) TYPE;

  00221	8b 4f 08	 mov	 ecx, DWORD PTR [edi+8]
  00224	03 ce		 add	 ecx, esi
  00226	c1 e1 04	 shl	 ecx, 4
  00229	03 4d 0c	 add	 ecx, DWORD PTR _pNewData$1$[ebp]
  0022c	ff 15 00 00 00
	00		 call	 DWORD PTR __imp_??0?$CStringT@DV?$StrTraitMFC_DLL@DV?$ChTraitsCRT@D@ATL@@@@@ATL@@QAE@XZ
  00232	8b c3		 mov	 eax, ebx
  00234	46		 inc	 esi
  00235	2b 47 08	 sub	 eax, DWORD PTR [edi+8]
  00238	3b f0		 cmp	 esi, eax
  0023a	7c e5		 jl	 SHORT $LL16@SetSize
$LN15@SetSize:

; 467  : #pragma pop_macro("new")
; 468  : 
; 469  : 		// get rid of old stuff (note: no destructors called)
; 470  : 		delete[] (BYTE*)m_pData;

  0023c	ff 77 04	 push	 DWORD PTR [edi+4]
  0023f	e8 00 00 00 00	 call	 ??_V@YAXPAX@Z		; operator delete[]

; 471  : 		m_pData = pNewData;

  00244	8b 45 0c	 mov	 eax, DWORD PTR _pNewData$1$[ebp]
  00247	83 c4 04	 add	 esp, 4
  0024a	89 47 04	 mov	 DWORD PTR [edi+4], eax

; 472  : 		m_nSize = nNewSize;
; 473  : 		m_nMaxSize = nNewMax;
; 474  : 	}
; 475  : }

  0024d	8b 45 fc	 mov	 eax, DWORD PTR _nNewMax$1$[ebp]
  00250	89 5f 08	 mov	 DWORD PTR [edi+8], ebx
  00253	89 47 0c	 mov	 DWORD PTR [edi+12], eax
  00256	5f		 pop	 edi
  00257	5e		 pop	 esi
  00258	5b		 pop	 ebx
  00259	8b e5		 mov	 esp, ebp
  0025b	5d		 pop	 ebp
  0025c	c2 08 00	 ret	 8
$LN60@SetSize:
; File C:\Program Files (x86)\Windows Kits\10\Include\10.0.22000.0\ucrt\corecrt_memcpy_s.h

; 52   :         if (_Source == NULL || _DestinationSize < _SourceSize)

  0025f	8b 45 08	 mov	 eax, DWORD PTR __S1max$1$[ebp]
  00262	85 d2		 test	 edx, edx
  00264	74 16		 je	 SHORT $LN62@SetSize
  00266	3b c1		 cmp	 eax, ecx
  00268	72 12		 jb	 SHORT $LN62@SetSize

; 58   : 
; 59   :             // Unreachable, but required to suppress /analyze warnings:
; 60   :             return EINVAL;
; 61   :         }
; 62   :         memcpy(_Destination, _Source, _SourceSize);

  0026a	51		 push	 ecx
  0026b	52		 push	 edx
  0026c	56		 push	 esi
  0026d	e8 00 00 00 00	 call	 _memcpy
  00272	83 c4 0c	 add	 esp, 12			; 0000000cH

; 63   :         return 0;

  00275	33 c0		 xor	 eax, eax
  00277	e9 79 ff ff ff	 jmp	 $LN58@SetSize
$LN62@SetSize:

; 53   :         {
; 54   :             memset(_Destination, 0, _DestinationSize);

  0027c	50		 push	 eax
  0027d	6a 00		 push	 0
  0027f	56		 push	 esi
  00280	e8 00 00 00 00	 call	 _memset
  00285	83 c4 0c	 add	 esp, 12			; 0000000cH

; 55   : 
; 56   :             _CRT_MEMCPY_S_VALIDATE_RETURN_ERRCODE(_Source != NULL,                 EINVAL);

  00288	83 7d f8 00	 cmp	 DWORD PTR __S2$1$[ebp], 0
  0028c	0f 84 4c ff ff
	ff		 je	 $LN94@SetSize

; 57   :             _CRT_MEMCPY_S_VALIDATE_RETURN_ERRCODE(_DestinationSize >= _SourceSize, ERANGE);

  00292	8b 45 f4	 mov	 eax, DWORD PTR __N$1$[ebp]
  00295	39 45 08	 cmp	 DWORD PTR __S1max$1$[ebp], eax
  00298	0f 83 52 ff ff
	ff		 jae	 $LN64@SetSize
  0029e	ff 15 00 00 00
	00		 call	 DWORD PTR __imp___errno
  002a4	c7 00 22 00 00
	00		 mov	 DWORD PTR [eax], 34	; 00000022H
  002aa	ff 15 00 00 00
	00		 call	 DWORD PTR __imp___invalid_parameter_noinfo
  002b0	b8 22 00 00 00	 mov	 eax, 34			; 00000022H
  002b5	e9 3b ff ff ff	 jmp	 $LN58@SetSize
$LN91@SetSize:
; File C:\Program Files (x86)\Microsoft Visual Studio\2019\Community\VC\Tools\MSVC\14.29.30133\atlmfc\include\afxtempl.h

; 449  : 			AfxThrowInvalidArgException();

  002ba	e8 00 00 00 00	 call	 ?AfxThrowInvalidArgException@@YGXXZ ; AfxThrowInvalidArgException
$LN93@SetSize:
  002bf	cc		 int	 3
?SetSize@?$CArray@UFID_SENDDATA@@AAU1@@@QAEXHH@Z ENDP	; CArray<FID_SENDDATA,FID_SENDDATA &>::SetSize
_TEXT	ENDS
; Function compile flags: /Ogtp
; File C:\Program Files (x86)\Microsoft Visual Studio\2019\Community\VC\Tools\MSVC\14.29.30133\atlmfc\include\afxtempl.h
;	COMDAT ??0?$CArray@UFID_SENDDATA@@AAU1@@@QAE@XZ
_TEXT	SEGMENT
??0?$CArray@UFID_SENDDATA@@AAU1@@@QAE@XZ PROC		; CArray<FID_SENDDATA,FID_SENDDATA &>::CArray<FID_SENDDATA,FID_SENDDATA &>, COMDAT
; _this$ = ecx

; 348  : {

  00000	c7 01 00 00 00
	00		 mov	 DWORD PTR [ecx], OFFSET ??_7?$CArray@UFID_SENDDATA@@AAU1@@@6B@

; 349  : 	m_pData = NULL;
; 350  : 	m_nSize = m_nMaxSize = m_nGrowBy = 0;
; 351  : }

  00006	8b c1		 mov	 eax, ecx
  00008	c7 41 04 00 00
	00 00		 mov	 DWORD PTR [ecx+4], 0
  0000f	c7 41 10 00 00
	00 00		 mov	 DWORD PTR [ecx+16], 0
  00016	c7 41 0c 00 00
	00 00		 mov	 DWORD PTR [ecx+12], 0
  0001d	c7 41 08 00 00
	00 00		 mov	 DWORD PTR [ecx+8], 0
  00024	c3		 ret	 0
??0?$CArray@UFID_SENDDATA@@AAU1@@@QAE@XZ ENDP		; CArray<FID_SENDDATA,FID_SENDDATA &>::CArray<FID_SENDDATA,FID_SENDDATA &>
_TEXT	ENDS
; Function compile flags: /Ogtp
; File D:\git\src\IBK\IBK_DRFN\ProjSrc\SrcDrfn\DrCommon\PartnerMng\_PartnerManager.cpp
; File C:\Program Files (x86)\Microsoft Visual Studio\2019\Community\VC\Tools\MSVC\14.29.30133\atlmfc\include\afxtempl.h
; File D:\git\src\IBK\IBK_DRFN\ProjSrc\SrcDrfn\DrCommon\PartnerMng\_PartnerManager.cpp
; File C:\Program Files (x86)\Microsoft Visual Studio\2019\Community\VC\Tools\MSVC\14.29.30133\atlmfc\include\afxtempl.h
; File D:\git\src\IBK\IBK_DRFN\ProjSrc\SrcDrfn\DrCommon\PartnerMng\_PartnerManager.cpp
;	COMDAT ?FindRealKey@CPartnerManager@@QAEHPBD@Z
_TEXT	SEGMENT
_nHashBucket$1 = -8					; size = 4
tv66 = -4						; size = 4
_nHashValue$2 = -4					; size = 4
_szCode$ = 8						; size = 4
?FindRealKey@CPartnerManager@@QAEHPBD@Z PROC		; CPartnerManager::FindRealKey, COMDAT
; _this$ = ecx

; 479  : {

  00000	55		 push	 ebp
  00001	8b ec		 mov	 ebp, esp

; 480  : 	if (strlen(szCode) == 0)

  00003	8b 55 08	 mov	 edx, DWORD PTR _szCode$[ebp]
  00006	83 ec 08	 sub	 esp, 8
  00009	57		 push	 edi
  0000a	8d 7a 01	 lea	 edi, DWORD PTR [edx+1]
  0000d	0f 1f 00	 npad	 3
$LL9@FindRealKe:
  00010	8a 02		 mov	 al, BYTE PTR [edx]
  00012	42		 inc	 edx
  00013	84 c0		 test	 al, al
  00015	75 f9		 jne	 SHORT $LL9@FindRealKe
  00017	2b d7		 sub	 edx, edi
  00019	5f		 pop	 edi
  0001a	74 23		 je	 SHORT $LN3@FindRealKe
; File C:\Program Files (x86)\Microsoft Visual Studio\2019\Community\VC\Tools\MSVC\14.29.30133\atlmfc\include\afxtempl.h

; 1555 : 	CAssoc* pAssoc = GetAssocAt(key, nHashBucket, nHashValue);

  0001c	8d 45 fc	 lea	 eax, DWORD PTR _nHashValue$2[ebp]
; File D:\git\src\IBK\IBK_DRFN\ProjSrc\SrcDrfn\DrCommon\PartnerMng\_PartnerManager.cpp

; 484  : 	if (m_mapRealKey.Lookup(szCode, rValue) == TRUE)

  0001f	81 c1 d0 0f 00
	00		 add	 ecx, 4048		; 00000fd0H
; File C:\Program Files (x86)\Microsoft Visual Studio\2019\Community\VC\Tools\MSVC\14.29.30133\atlmfc\include\afxtempl.h

; 1555 : 	CAssoc* pAssoc = GetAssocAt(key, nHashBucket, nHashValue);

  00025	50		 push	 eax
  00026	8d 45 f8	 lea	 eax, DWORD PTR _nHashBucket$1[ebp]
  00029	50		 push	 eax
  0002a	ff 75 08	 push	 DWORD PTR _szCode$[ebp]
  0002d	e8 00 00 00 00	 call	 ?GetAssocAt@?$CMap@V?$CStringT@DV?$StrTraitMFC_DLL@DV?$ChTraitsCRT@D@ATL@@@@@ATL@@PBDHH@@IBEPAVCAssoc@1@PBDAAI1@Z ; CMap<ATL::CStringT<char,StrTraitMFC_DLL<char,ATL::ChTraitsCRT<char> > >,char const *,int,int>::GetAssocAt

; 1556 : 	if (pAssoc == NULL)

  00032	85 c0		 test	 eax, eax
  00034	74 09		 je	 SHORT $LN3@FindRealKe
; File D:\git\src\IBK\IBK_DRFN\ProjSrc\SrcDrfn\DrCommon\PartnerMng\_PartnerManager.cpp

; 485  : 		return rValue;

  00036	8b 40 04	 mov	 eax, DWORD PTR [eax+4]

; 495  : }

  00039	8b e5		 mov	 esp, ebp
  0003b	5d		 pop	 ebp
  0003c	c2 04 00	 ret	 4
$LN3@FindRealKe:

; 486  : 
; 487  : //	,DRFN Platform ,      ]
; 488  : 	//if (g_pDRDebuger)
; 489  : 	//{
; 490  : 	//	CString strTemp;	strTemp.Format(_T("*** not found REAL KEY : %s"), szCode);
; 491  : 	//	g_pDRDebuger->DRLog_Message(strTemp);
; 492  : 	//}
; 493  : 
; 494  : 	return -1;

  0003f	83 c8 ff	 or	 eax, -1

; 495  : }

  00042	8b e5		 mov	 esp, ebp
  00044	5d		 pop	 ebp
  00045	c2 04 00	 ret	 4
?FindRealKey@CPartnerManager@@QAEHPBD@Z ENDP		; CPartnerManager::FindRealKey
_TEXT	ENDS
; Function compile flags: /Ogtp
; File D:\git\src\IBK\IBK_DRFN\ProjSrc\SrcDrfn\DrCommon\PartnerMng\_PartnerManager.cpp
; File C:\Program Files (x86)\Microsoft Visual Studio\2019\Community\VC\Tools\MSVC\14.29.30133\atlmfc\include\afxtempl.h
; File D:\git\src\IBK\IBK_DRFN\ProjSrc\SrcDrfn\DrCommon\PartnerMng\_PartnerManager.cpp
; File C:\Program Files (x86)\Microsoft Visual Studio\2019\Community\VC\Tools\MSVC\14.29.30133\atlmfc\include\afxtempl.h
; File D:\git\src\IBK\IBK_DRFN\ProjSrc\SrcDrfn\DrCommon\PartnerMng\_PartnerManager.cpp
; File C:\Program Files (x86)\Microsoft Visual Studio\2019\Community\VC\Tools\MSVC\14.29.30133\atlmfc\include\afxtempl.h
; File D:\git\src\IBK\IBK_DRFN\ProjSrc\SrcDrfn\DrCommon\PartnerMng\_PartnerManager.cpp
; File C:\Program Files (x86)\Microsoft Visual Studio\2019\Community\VC\Tools\MSVC\14.29.30133\atlmfc\include\afxtempl.h
; File D:\git\src\IBK\IBK_DRFN\ProjSrc\SrcDrfn\DrCommon\PartnerMng\_PartnerManager.cpp
; File C:\Program Files (x86)\Microsoft Visual Studio\2019\Community\VC\Tools\MSVC\14.29.30133\atlmfc\include\afxtempl.h
; File D:\git\src\IBK\IBK_DRFN\ProjSrc\SrcDrfn\DrCommon\PartnerMng\_PartnerManager.cpp
; File C:\Program Files (x86)\Microsoft Visual Studio\2019\Community\VC\Tools\MSVC\14.29.30133\atlmfc\include\afxtempl.h
; File C:\Program Files (x86)\Microsoft Visual Studio\2019\Community\VC\Tools\MSVC\14.29.30133\atlmfc\include\cstringt.h
; File C:\Program Files (x86)\Microsoft Visual Studio\2019\Community\VC\Tools\MSVC\14.29.30133\atlmfc\include\afxtempl.h
; File D:\git\src\IBK\IBK_DRFN\ProjSrc\SrcDrfn\DrCommon\PartnerMng\_PartnerManager.cpp
;	COMDAT ?GetRealKey@CPartnerManager@@QAEHEPBDH@Z
_TEXT	SEGMENT
_nHashBucket$2 = -20					; size = 4
_szUseCode$ = -16					; size = 4
__$EHRec$ = -12						; size = 12
_nHashValue$1$ = 8					; size = 4
_szMsg$3 = 8						; size = 4
_cKey$ = 8						; size = 1
$T4 = 12						; size = 4
_nHashValue$5 = 12					; size = 4
_szCode$ = 12						; size = 4
_key$1$ = 16						; size = 4
_nCodeType$ = 16					; size = 4
?GetRealKey@CPartnerManager@@QAEHEPBDH@Z PROC		; CPartnerManager::GetRealKey, COMDAT
; _this$ = ecx

; 419  : {

  00000	55		 push	 ebp
  00001	8b ec		 mov	 ebp, esp
  00003	6a ff		 push	 -1
  00005	68 00 00 00 00	 push	 __ehhandler$?GetRealKey@CPartnerManager@@QAEHEPBDH@Z
  0000a	64 a1 00 00 00
	00		 mov	 eax, DWORD PTR fs:0
  00010	50		 push	 eax
  00011	83 ec 08	 sub	 esp, 8
  00014	53		 push	 ebx
  00015	56		 push	 esi
  00016	57		 push	 edi
  00017	a1 00 00 00 00	 mov	 eax, DWORD PTR ___security_cookie
  0001c	33 c5		 xor	 eax, ebp
  0001e	50		 push	 eax
  0001f	8d 45 f4	 lea	 eax, DWORD PTR __$EHRec$[ebp]
  00022	64 a3 00 00 00
	00		 mov	 DWORD PTR fs:0, eax
  00028	8b f9		 mov	 edi, ecx

; 422  : 	CString szUseCode(szCode);

  0002a	ff 75 0c	 push	 DWORD PTR _szCode$[ebp]
  0002d	8d 4d f0	 lea	 ecx, DWORD PTR _szUseCode$[ebp]
  00030	ff 15 00 00 00
	00		 call	 DWORD PTR __imp_??0?$CStringT@DV?$StrTraitMFC_DLL@DV?$ChTraitsCRT@D@ATL@@@@@ATL@@QAE@PBD@Z
; File C:\Program Files (x86)\Microsoft Visual Studio\2019\Community\VC\Tools\MSVC\14.29.30133\atlmfc\include\afxtempl.h

; 1555 : 	CAssoc* pAssoc = GetAssocAt(key, nHashBucket, nHashValue);

  00036	8d 45 0c	 lea	 eax, DWORD PTR _nHashValue$5[ebp]
; File D:\git\src\IBK\IBK_DRFN\ProjSrc\SrcDrfn\DrCommon\PartnerMng\_PartnerManager.cpp

; 422  : 	CString szUseCode(szCode);

  00039	c7 45 fc 00 00
	00 00		 mov	 DWORD PTR __$EHRec$[ebp+8], 0
; File C:\Program Files (x86)\Microsoft Visual Studio\2019\Community\VC\Tools\MSVC\14.29.30133\atlmfc\include\afxtempl.h

; 1555 : 	CAssoc* pAssoc = GetAssocAt(key, nHashBucket, nHashValue);

  00040	50		 push	 eax
  00041	8d 45 ec	 lea	 eax, DWORD PTR _nHashBucket$2[ebp]
  00044	50		 push	 eax
  00045	ff 75 f0	 push	 DWORD PTR _szUseCode$[ebp]
; File D:\git\src\IBK\IBK_DRFN\ProjSrc\SrcDrfn\DrCommon\PartnerMng\_PartnerManager.cpp

; 431  : 	if(m_mapRealKey.Lookup(szUseCode, rValue)==TRUE)

  00048	8d 9f d0 0f 00
	00		 lea	 ebx, DWORD PTR [edi+4048]
; File C:\Program Files (x86)\Microsoft Visual Studio\2019\Community\VC\Tools\MSVC\14.29.30133\atlmfc\include\afxtempl.h

; 1555 : 	CAssoc* pAssoc = GetAssocAt(key, nHashBucket, nHashValue);

  0004e	8b cb		 mov	 ecx, ebx
  00050	e8 00 00 00 00	 call	 ?GetAssocAt@?$CMap@V?$CStringT@DV?$StrTraitMFC_DLL@DV?$ChTraitsCRT@D@ATL@@@@@ATL@@PBDHH@@IBEPAVCAssoc@1@PBDAAI1@Z ; CMap<ATL::CStringT<char,StrTraitMFC_DLL<char,ATL::ChTraitsCRT<char> > >,char const *,int,int>::GetAssocAt

; 1556 : 	if (pAssoc == NULL)

  00055	85 c0		 test	 eax, eax
  00057	0f 85 86 00 00
	00		 jne	 $LN19@GetRealKey
; File D:\git\src\IBK\IBK_DRFN\ProjSrc\SrcDrfn\DrCommon\PartnerMng\_PartnerManager.cpp

; 454  : 		if(cKey=='A')

  0005d	80 7d 08 41	 cmp	 BYTE PTR _cKey$[ebp], 65 ; 00000041H
  00061	75 53		 jne	 SHORT $LN9@GetRealKey

; 455  : 		{
; 456  : 			for(int i=0; i<255-TRKEY_REALSTART; i++)

  00063	33 c9		 xor	 ecx, ecx
$LL4@GetRealKey:

; 457  : 			{
; 458  : 				if(m_subDataA.m_bRealKeyInfo[i]==0)

  00065	80 bc 0f ec 0f
	00 00 00	 cmp	 BYTE PTR [edi+ecx+4076], 0
  0006d	74 4f		 je	 SHORT $LN59@GetRealKey

; 455  : 		{
; 456  : 			for(int i=0; i<255-TRKEY_REALSTART; i++)

  0006f	41		 inc	 ecx
  00070	81 f9 9a 00 00
	00		 cmp	 ecx, 154		; 0000009aH
  00076	7c ed		 jl	 SHORT $LL4@GetRealKey

; 464  : 					return rValue;
; 465  : 				}
; 466  : 			}
; 467  : 			{
; 468  : 				CString szMsg;

  00078	8d 4d 08	 lea	 ecx, DWORD PTR _szMsg$3[ebp]
  0007b	ff 15 00 00 00
	00		 call	 DWORD PTR __imp_??0?$CStringT@DV?$StrTraitMFC_DLL@DV?$ChTraitsCRT@D@ATL@@@@@ATL@@QAE@XZ

; 469  : 				szMsg.Format("RealKey Error(%s)[Ln%d]", __FILE__, __LINE__);

  00081	68 d5 01 00 00	 push	 469			; 000001d5H
  00086	68 00 00 00 00	 push	 OFFSET ??_C@_0FA@EBCFGNMI@D?3?2git?2src?2IBK?2IBK_DRFN?2ProjSrc@
  0008b	8d 45 08	 lea	 eax, DWORD PTR _szMsg$3[ebp]
  0008e	c6 45 fc 01	 mov	 BYTE PTR __$EHRec$[ebp+8], 1
  00092	68 00 00 00 00	 push	 OFFSET ??_C@_0BI@OHCKGON@RealKey?5Error?$CI?$CFs?$CJ?$FLLn?$CFd?$FN@
  00097	50		 push	 eax
  00098	ff 15 00 00 00
	00		 call	 DWORD PTR __imp_?Format@?$CStringT@DV?$StrTraitMFC_DLL@DV?$ChTraitsCRT@D@ATL@@@@@ATL@@QAAXPBDZZ
  0009e	83 c4 10	 add	 esp, 16			; 00000010H

; 470  : 				AfxMessageBox(szMsg);

  000a1	6a 00		 push	 0
  000a3	6a 00		 push	 0
  000a5	ff 75 08	 push	 DWORD PTR _szMsg$3[ebp]
  000a8	e8 00 00 00 00	 call	 ?AfxMessageBox@@YGHPBDII@Z ; AfxMessageBox

; 471  : 			}			

  000ad	8d 4d 08	 lea	 ecx, DWORD PTR _szMsg$3[ebp]
  000b0	ff 15 00 00 00
	00		 call	 DWORD PTR __imp_??1?$CStringT@DV?$StrTraitMFC_DLL@DV?$ChTraitsCRT@D@ATL@@@@@ATL@@QAE@XZ
$LN9@GetRealKey:

; 475  : 	return -1;

  000b6	83 ce ff	 or	 esi, -1
  000b9	e9 ab 00 00 00	 jmp	 $LN15@GetRealKey
$LN59@GetRealKey:

; 459  : 				{
; 460  : 					m_subDataA.m_bRealKeyInfo[i] = 1;
; 461  : 					m_subDataA.m_bMarketInfo[i] = nCodeType;

  000be	8a 45 10	 mov	 al, BYTE PTR _nCodeType$[ebp]

; 462  : 					rValue = i+TRKEY_REALSTART;

  000c1	8d 71 65	 lea	 esi, DWORD PTR [ecx+101]

; 463  : 					m_mapRealKey.SetAt(szUseCode, rValue);

  000c4	56		 push	 esi
  000c5	ff 75 f0	 push	 DWORD PTR _szUseCode$[ebp]
  000c8	c6 84 39 ec 0f
	00 00 01	 mov	 BYTE PTR [ecx+edi+4076], 1
  000d0	88 84 39 86 10
	00 00		 mov	 BYTE PTR [ecx+edi+4230], al
  000d7	8b cb		 mov	 ecx, ebx
  000d9	e8 00 00 00 00	 call	 ?SetAt@?$CMap@V?$CStringT@DV?$StrTraitMFC_DLL@DV?$ChTraitsCRT@D@ATL@@@@@ATL@@PBDHH@@QAEXPBDH@Z ; CMap<ATL::CStringT<char,StrTraitMFC_DLL<char,ATL::ChTraitsCRT<char> > >,char const *,int,int>::SetAt
  000de	e9 86 00 00 00	 jmp	 $LN15@GetRealKey
$LN19@GetRealKey:

; 433  : 		if(cKey=='A')

  000e3	80 7d 08 41	 cmp	 BYTE PTR _cKey$[ebp], 65 ; 00000041H
; File C:\Program Files (x86)\Microsoft Visual Studio\2019\Community\VC\Tools\MSVC\14.29.30133\atlmfc\include\afxtempl.h

; 1559 : 	rValue = pAssoc->value;

  000e7	8b 70 04	 mov	 esi, DWORD PTR [eax+4]
  000ea	89 75 0c	 mov	 DWORD PTR $T4[ebp], esi
; File D:\git\src\IBK\IBK_DRFN\ProjSrc\SrcDrfn\DrCommon\PartnerMng\_PartnerManager.cpp

; 433  : 		if(cKey=='A')

  000ed	74 7a		 je	 SHORT $LN15@GetRealKey

; 440  : 			m_mapRealKey.RemoveKey(szUseCode);			

  000ef	8b 45 f0	 mov	 eax, DWORD PTR _szUseCode$[ebp]
  000f2	c6 84 3e 87 0f
	00 00 00	 mov	 BYTE PTR [esi+edi+3975], 0
; File C:\Program Files (x86)\Microsoft Visual Studio\2019\Community\VC\Tools\MSVC\14.29.30133\atlmfc\include\afxtempl.h

; 1614 : 	if (m_pHashTable == NULL)

  000fa	83 7b 04 00	 cmp	 DWORD PTR [ebx+4], 0
; File D:\git\src\IBK\IBK_DRFN\ProjSrc\SrcDrfn\DrCommon\PartnerMng\_PartnerManager.cpp

; 440  : 			m_mapRealKey.RemoveKey(szUseCode);			

  000fe	89 45 10	 mov	 DWORD PTR _key$1$[ebp], eax
; File C:\Program Files (x86)\Microsoft Visual Studio\2019\Community\VC\Tools\MSVC\14.29.30133\atlmfc\include\afxtempl.h

; 1614 : 	if (m_pHashTable == NULL)

  00101	74 66		 je	 SHORT $LN15@GetRealKey

; 1615 : 		return FALSE;  // nothing in the table
; 1616 : 
; 1617 : 	UINT nHashValue;
; 1618 : 	CAssoc** ppAssocPrev;
; 1619 : 	nHashValue = HashKey<ARG_KEY>(key);

  00103	50		 push	 eax
  00104	e8 00 00 00 00	 call	 ??$HashKey@PBD@@YGIPBD@Z ; HashKey<char const *>

; 1620 : 	ppAssocPrev = &m_pHashTable[nHashValue%m_nHashTableSize];

  00109	33 d2		 xor	 edx, edx
  0010b	89 45 08	 mov	 DWORD PTR _nHashValue$1$[ebp], eax
  0010e	f7 73 08	 div	 DWORD PTR [ebx+8]
  00111	8b 4b 04	 mov	 ecx, DWORD PTR [ebx+4]

; 1621 : 
; 1622 : 	CAssoc* pAssoc;
; 1623 : 	for (pAssoc = *ppAssocPrev; pAssoc != NULL; pAssoc = pAssoc->pNext)

  00114	8b 34 91	 mov	 esi, DWORD PTR [ecx+edx*4]
  00117	8d 3c 91	 lea	 edi, DWORD PTR [ecx+edx*4]
  0011a	85 f6		 test	 esi, esi
  0011c	74 48		 je	 SHORT $LN70@GetRealKey
  0011e	8b 45 08	 mov	 eax, DWORD PTR _nHashValue$1$[ebp]
$LL26@GetRealKey:

; 1625 : 		if ((pAssoc->nHashValue == nHashValue) && CompareElements(&pAssoc->key, &key))

  00121	39 46 0c	 cmp	 DWORD PTR [esi+12], eax
  00124	75 12		 jne	 SHORT $LN28@GetRealKey
; File C:\Program Files (x86)\Microsoft Visual Studio\2019\Community\VC\Tools\MSVC\14.29.30133\atlmfc\include\cstringt.h

; 2486 : 		return(str1.Compare(psz2) == 0);

  00126	ff 75 10	 push	 DWORD PTR _key$1$[ebp]
  00129	8b ce		 mov	 ecx, esi
  0012b	ff 15 00 00 00
	00		 call	 DWORD PTR __imp_?Compare@?$CStringT@DV?$StrTraitMFC_DLL@DV?$ChTraitsCRT@D@ATL@@@@@ATL@@QBEHPBD@Z
  00131	85 c0		 test	 eax, eax
; File C:\Program Files (x86)\Microsoft Visual Studio\2019\Community\VC\Tools\MSVC\14.29.30133\atlmfc\include\afxtempl.h

; 1625 : 		if ((pAssoc->nHashValue == nHashValue) && CompareElements(&pAssoc->key, &key))

  00133	74 0e		 je	 SHORT $LN58@GetRealKey
  00135	8b 45 08	 mov	 eax, DWORD PTR _nHashValue$1$[ebp]
$LN28@GetRealKey:

; 1629 : 			FreeAssoc(pAssoc);
; 1630 : 			return TRUE;
; 1631 : 		}
; 1632 : 		ppAssocPrev = &pAssoc->pNext;

  00138	8d 7e 08	 lea	 edi, DWORD PTR [esi+8]
  0013b	8b 37		 mov	 esi, DWORD PTR [edi]
  0013d	85 f6		 test	 esi, esi
  0013f	75 e0		 jne	 SHORT $LL26@GetRealKey

; 1621 : 
; 1622 : 	CAssoc* pAssoc;
; 1623 : 	for (pAssoc = *ppAssocPrev; pAssoc != NULL; pAssoc = pAssoc->pNext)

  00141	eb 23		 jmp	 SHORT $LN70@GetRealKey
$LN58@GetRealKey:

; 1626 : 		{
; 1627 : 			// remove it
; 1628 : 			*ppAssocPrev = pAssoc->pNext;  // remove from list

  00143	8b 46 08	 mov	 eax, DWORD PTR [esi+8]
  00146	8b ce		 mov	 ecx, esi
  00148	89 07		 mov	 DWORD PTR [edi], eax
  0014a	ff 15 00 00 00
	00		 call	 DWORD PTR __imp_??1?$CStringT@DV?$StrTraitMFC_DLL@DV?$ChTraitsCRT@D@ATL@@@@@ATL@@QAE@XZ

; 1518 : 	pAssoc->pNext = m_pFreeList;

  00150	8b 43 10	 mov	 eax, DWORD PTR [ebx+16]
  00153	89 46 08	 mov	 DWORD PTR [esi+8], eax

; 1519 : 	m_pFreeList = pAssoc;
; 1520 : 	m_nCount--;

  00156	83 43 0c ff	 add	 DWORD PTR [ebx+12], -1
  0015a	89 73 10	 mov	 DWORD PTR [ebx+16], esi

; 1521 : 	ASSERT(m_nCount >= 0);  // make sure we don't underflow
; 1522 : 
; 1523 : 	// if no more elements, cleanup completely
; 1524 : 	if (m_nCount == 0)

  0015d	75 07		 jne	 SHORT $LN70@GetRealKey

; 1525 : 		RemoveAll();

  0015f	8b cb		 mov	 ecx, ebx
  00161	e8 00 00 00 00	 call	 ?RemoveAll@?$CMap@V?$CStringT@DV?$StrTraitMFC_DLL@DV?$ChTraitsCRT@D@ATL@@@@@ATL@@PBDHH@@QAEXXZ ; CMap<ATL::CStringT<char,StrTraitMFC_DLL<char,ATL::ChTraitsCRT<char> > >,char const *,int,int>::RemoveAll
$LN70@GetRealKey:
; File D:\git\src\IBK\IBK_DRFN\ProjSrc\SrcDrfn\DrCommon\PartnerMng\_PartnerManager.cpp

; 475  : 	return -1;

  00166	8b 75 0c	 mov	 esi, DWORD PTR $T4[ebp]
$LN15@GetRealKey:
  00169	8d 4d f0	 lea	 ecx, DWORD PTR _szUseCode$[ebp]
  0016c	ff 15 00 00 00
	00		 call	 DWORD PTR __imp_??1?$CStringT@DV?$StrTraitMFC_DLL@DV?$ChTraitsCRT@D@ATL@@@@@ATL@@QAE@XZ
  00172	8b c6		 mov	 eax, esi

; 476  : }

  00174	8b 4d f4	 mov	 ecx, DWORD PTR __$EHRec$[ebp]
  00177	64 89 0d 00 00
	00 00		 mov	 DWORD PTR fs:0, ecx
  0017e	59		 pop	 ecx
  0017f	5f		 pop	 edi
  00180	5e		 pop	 esi
  00181	5b		 pop	 ebx
  00182	8b e5		 mov	 esp, ebp
  00184	5d		 pop	 ebp
  00185	c2 0c 00	 ret	 12			; 0000000cH
_TEXT	ENDS
;	COMDAT text$x
text$x	SEGMENT
__unwindfunclet$?GetRealKey@CPartnerManager@@QAEHEPBDH@Z$0:
  00000	8d 4d f0	 lea	 ecx, DWORD PTR _szUseCode$[ebp]
  00003	ff 25 00 00 00
	00		 jmp	 DWORD PTR __imp_??1?$CStringT@DV?$StrTraitMFC_DLL@DV?$ChTraitsCRT@D@ATL@@@@@ATL@@QAE@XZ
__unwindfunclet$?GetRealKey@CPartnerManager@@QAEHEPBDH@Z$1:
  00009	8d 4d 08	 lea	 ecx, DWORD PTR _szMsg$3[ebp]
  0000c	ff 25 00 00 00
	00		 jmp	 DWORD PTR __imp_??1?$CStringT@DV?$StrTraitMFC_DLL@DV?$ChTraitsCRT@D@ATL@@@@@ATL@@QAE@XZ
  00012	cc		 int	 3
  00013	cc		 int	 3
  00014	cc		 int	 3
  00015	cc		 int	 3
  00016	cc		 int	 3
__ehhandler$?GetRealKey@CPartnerManager@@QAEHEPBDH@Z:
  00017	90		 npad	 1
  00018	90		 npad	 1
  00019	8b 54 24 08	 mov	 edx, DWORD PTR [esp+8]
  0001d	8d 42 0c	 lea	 eax, DWORD PTR [edx+12]
  00020	8b 4a e8	 mov	 ecx, DWORD PTR [edx-24]
  00023	33 c8		 xor	 ecx, eax
  00025	e8 00 00 00 00	 call	 @__security_check_cookie@4
  0002a	b8 00 00 00 00	 mov	 eax, OFFSET __ehfuncinfo$?GetRealKey@CPartnerManager@@QAEHEPBDH@Z
  0002f	e9 00 00 00 00	 jmp	 ___CxxFrameHandler3
text$x	ENDS
?GetRealKey@CPartnerManager@@QAEHEPBDH@Z ENDP		; CPartnerManager::GetRealKey
; Function compile flags: /Ogtp
; File D:\git\src\IBK\IBK_DRFN\ProjSrc\SrcDrfn\DrCommon\PartnerMng\_PartnerManager.cpp
; File C:\Program Files (x86)\Microsoft Visual Studio\2019\Community\VC\Tools\MSVC\14.29.30133\atlmfc\include\cstringt.h
; File D:\git\src\IBK\IBK_DRFN\ProjSrc\SrcDrfn\DrCommon\PartnerMng\_PartnerManager.cpp
; File C:\Program Files (x86)\Microsoft Visual Studio\2019\Community\VC\Tools\MSVC\14.29.30133\atlmfc\include\cstringt.h
; File D:\git\src\IBK\IBK_DRFN\ProjSrc\SrcDrfn\DrCommon\PartnerMng\_PartnerManager.cpp
; File C:\Program Files (x86)\Microsoft Visual Studio\2019\Community\VC\Tools\MSVC\14.29.30133\atlmfc\include\cstringt.h
; File D:\git\src\IBK\IBK_DRFN\ProjSrc\SrcDrfn\DrCommon\PartnerMng\_PartnerManager.cpp
; File C:\Program Files (x86)\Microsoft Visual Studio\2019\Community\VC\Tools\MSVC\14.29.30133\atlmfc\include\cstringt.h
; File D:\git\src\IBK\IBK_DRFN\ProjSrc\SrcDrfn\DrCommon\PartnerMng\_PartnerManager.cpp
; File C:\Program Files (x86)\Microsoft Visual Studio\2019\Community\VC\Tools\MSVC\14.29.30133\atlmfc\include\cstringt.h
; File D:\git\src\IBK\IBK_DRFN\ProjSrc\SrcDrfn\DrCommon\PartnerMng\_PartnerManager.cpp
; File C:\Program Files (x86)\Microsoft Visual Studio\2019\Community\VC\Tools\MSVC\14.29.30133\atlmfc\include\cstringt.h
; File D:\git\src\IBK\IBK_DRFN\ProjSrc\SrcDrfn\DrCommon\PartnerMng\_PartnerManager.cpp
; File C:\Program Files (x86)\Microsoft Visual Studio\2019\Community\VC\Tools\MSVC\14.29.30133\atlmfc\include\cstringt.h
; File D:\git\src\IBK\IBK_DRFN\ProjSrc\SrcDrfn\DrCommon\PartnerMng\_PartnerManager.cpp
; File C:\Program Files (x86)\Microsoft Visual Studio\2019\Community\VC\Tools\MSVC\14.29.30133\atlmfc\include\cstringt.h
; File D:\git\src\IBK\IBK_DRFN\ProjSrc\SrcDrfn\DrCommon\PartnerMng\_PartnerManager.cpp
; File C:\Program Files (x86)\Microsoft Visual Studio\2019\Community\VC\Tools\MSVC\14.29.30133\atlmfc\include\cstringt.h
; File D:\git\src\IBK\IBK_DRFN\ProjSrc\SrcDrfn\DrCommon\PartnerMng\_PartnerManager.cpp
; File C:\Program Files (x86)\Microsoft Visual Studio\2019\Community\VC\Tools\MSVC\14.29.30133\atlmfc\include\cstringt.h
; File D:\git\src\IBK\IBK_DRFN\ProjSrc\SrcDrfn\DrCommon\PartnerMng\_PartnerManager.cpp
; File C:\Program Files (x86)\Microsoft Visual Studio\2019\Community\VC\Tools\MSVC\14.29.30133\atlmfc\include\cstringt.h
; File D:\git\src\IBK\IBK_DRFN\ProjSrc\SrcDrfn\DrCommon\PartnerMng\_PartnerManager.cpp
; File C:\Program Files (x86)\Microsoft Visual Studio\2019\Community\VC\Tools\MSVC\14.29.30133\atlmfc\include\cstringt.h
; File D:\git\src\IBK\IBK_DRFN\ProjSrc\SrcDrfn\DrCommon\PartnerMng\_PartnerManager.cpp
; File C:\Program Files (x86)\Microsoft Visual Studio\2019\Community\VC\Tools\MSVC\14.29.30133\atlmfc\include\cstringt.h
; File D:\git\src\IBK\IBK_DRFN\ProjSrc\SrcDrfn\DrCommon\PartnerMng\_PartnerManager.cpp
; File C:\Program Files (x86)\Microsoft Visual Studio\2019\Community\VC\Tools\MSVC\14.29.30133\atlmfc\include\cstringt.h
; File D:\git\src\IBK\IBK_DRFN\ProjSrc\SrcDrfn\DrCommon\PartnerMng\_PartnerManager.cpp
; File C:\Program Files (x86)\Microsoft Visual Studio\2019\Community\VC\Tools\MSVC\14.29.30133\atlmfc\include\cstringt.h
; File D:\git\src\IBK\IBK_DRFN\ProjSrc\SrcDrfn\DrCommon\PartnerMng\_PartnerManager.cpp
; File C:\Program Files (x86)\Microsoft Visual Studio\2019\Community\VC\Tools\MSVC\14.29.30133\atlmfc\include\cstringt.h
; File D:\git\src\IBK\IBK_DRFN\ProjSrc\SrcDrfn\DrCommon\PartnerMng\_PartnerManager.cpp
; File C:\Program Files (x86)\Microsoft Visual Studio\2019\Community\VC\Tools\MSVC\14.29.30133\atlmfc\include\cstringt.h
; File D:\git\src\IBK\IBK_DRFN\ProjSrc\SrcDrfn\DrCommon\PartnerMng\_PartnerManager.cpp
; File C:\Program Files (x86)\Microsoft Visual Studio\2019\Community\VC\Tools\MSVC\14.29.30133\atlmfc\include\cstringt.h
; File D:\git\src\IBK\IBK_DRFN\ProjSrc\SrcDrfn\DrCommon\PartnerMng\_PartnerManager.cpp
; File C:\Program Files (x86)\Microsoft Visual Studio\2019\Community\VC\Tools\MSVC\14.29.30133\atlmfc\include\cstringt.h
; File D:\git\src\IBK\IBK_DRFN\ProjSrc\SrcDrfn\DrCommon\PartnerMng\_PartnerManager.cpp
; File C:\Program Files (x86)\Microsoft Visual Studio\2019\Community\VC\Tools\MSVC\14.29.30133\atlmfc\include\cstringt.h
; File D:\git\src\IBK\IBK_DRFN\ProjSrc\SrcDrfn\DrCommon\PartnerMng\_PartnerManager.cpp
; File C:\Program Files (x86)\Microsoft Visual Studio\2019\Community\VC\Tools\MSVC\14.29.30133\atlmfc\include\cstringt.h
; File D:\git\src\IBK\IBK_DRFN\ProjSrc\SrcDrfn\DrCommon\PartnerMng\_PartnerManager.cpp
; File C:\Program Files (x86)\Microsoft Visual Studio\2019\Community\VC\Tools\MSVC\14.29.30133\atlmfc\include\cstringt.h
; File D:\git\src\IBK\IBK_DRFN\ProjSrc\SrcDrfn\DrCommon\PartnerMng\_PartnerManager.cpp
; File C:\Program Files (x86)\Microsoft Visual Studio\2019\Community\VC\Tools\MSVC\14.29.30133\atlmfc\include\cstringt.h
; File D:\git\src\IBK\IBK_DRFN\ProjSrc\SrcDrfn\DrCommon\PartnerMng\_PartnerManager.cpp
; File C:\Program Files (x86)\Microsoft Visual Studio\2019\Community\VC\Tools\MSVC\14.29.30133\atlmfc\include\cstringt.h
; File D:\git\src\IBK\IBK_DRFN\ProjSrc\SrcDrfn\DrCommon\PartnerMng\_PartnerManager.cpp
; File C:\Program Files (x86)\Microsoft Visual Studio\2019\Community\VC\Tools\MSVC\14.29.30133\atlmfc\include\cstringt.h
; File D:\git\src\IBK\IBK_DRFN\ProjSrc\SrcDrfn\DrCommon\PartnerMng\_PartnerManager.cpp
; File C:\Program Files (x86)\Microsoft Visual Studio\2019\Community\VC\Tools\MSVC\14.29.30133\atlmfc\include\cstringt.h
; File D:\git\src\IBK\IBK_DRFN\ProjSrc\SrcDrfn\DrCommon\PartnerMng\_PartnerManager.cpp
; File C:\Program Files (x86)\Microsoft Visual Studio\2019\Community\VC\Tools\MSVC\14.29.30133\atlmfc\include\cstringt.h
; File D:\git\src\IBK\IBK_DRFN\ProjSrc\SrcDrfn\DrCommon\PartnerMng\_PartnerManager.cpp
; File C:\Program Files (x86)\Microsoft Visual Studio\2019\Community\VC\Tools\MSVC\14.29.30133\atlmfc\include\afxtempl.h
; File D:\git\src\IBK\IBK_DRFN\ProjSrc\SrcDrfn\DrCommon\PartnerMng\_PartnerManager.cpp
; File C:\Program Files (x86)\Microsoft Visual Studio\2019\Community\VC\Tools\MSVC\14.29.30133\atlmfc\include\afxtempl.h
; File D:\git\src\IBK\IBK_DRFN\ProjSrc\SrcDrfn\DrCommon\PartnerMng\_PartnerManager.cpp
; File C:\Program Files (x86)\Microsoft Visual Studio\2019\Community\VC\Tools\MSVC\14.29.30133\atlmfc\include\afxtempl.h
; File D:\git\src\IBK\IBK_DRFN\ProjSrc\SrcDrfn\DrCommon\PartnerMng\_PartnerManager.cpp
;	COMDAT ?GetTrKey@CPartnerManager@@QAEHV?$CStringT@DV?$StrTraitMFC_DLL@DV?$ChTraitsCRT@D@ATL@@@@@ATL@@PAUFID_SENDDATA@@@Z
_TEXT	SEGMENT
_item$2 = -36						; size = 16
_this$1$ = -20						; size = 4
_this$1$ = -16						; size = 4
__$EHRec$ = -12						; size = 12
_strTR$ = 8						; size = 4
_pSendData$ = 12					; size = 4
?GetTrKey@CPartnerManager@@QAEHV?$CStringT@DV?$StrTraitMFC_DLL@DV?$ChTraitsCRT@D@ATL@@@@@ATL@@PAUFID_SENDDATA@@@Z PROC ; CPartnerManager::GetTrKey, COMDAT
; _this$ = ecx

; 213  : {

  00000	55		 push	 ebp
  00001	8b ec		 mov	 ebp, esp
  00003	6a ff		 push	 -1
  00005	68 00 00 00 00	 push	 __ehhandler$?GetTrKey@CPartnerManager@@QAEHV?$CStringT@DV?$StrTraitMFC_DLL@DV?$ChTraitsCRT@D@ATL@@@@@ATL@@PAUFID_SENDDATA@@@Z
  0000a	64 a1 00 00 00
	00		 mov	 eax, DWORD PTR fs:0
  00010	50		 push	 eax
  00011	83 ec 18	 sub	 esp, 24			; 00000018H
  00014	53		 push	 ebx
  00015	56		 push	 esi
  00016	57		 push	 edi
  00017	a1 00 00 00 00	 mov	 eax, DWORD PTR ___security_cookie
  0001c	33 c5		 xor	 eax, ebp
  0001e	50		 push	 eax
  0001f	8d 45 f4	 lea	 eax, DWORD PTR __$EHRec$[ebp]
  00022	64 a3 00 00 00
	00		 mov	 DWORD PTR fs:0, eax
  00028	8b f1		 mov	 esi, ecx
  0002a	89 75 ec	 mov	 DWORD PTR _this$1$[ebp], esi

; 214  : 	if (pSendData == NULL)

  0002d	83 7d 0c 00	 cmp	 DWORD PTR _pSendData$[ebp], 0
  00031	c7 45 fc 00 00
	00 00		 mov	 DWORD PTR __$EHRec$[ebp+8], 0
  00038	0f 85 be 02 00
	00		 jne	 $LN5@GetTrKey
; File C:\Program Files (x86)\Microsoft Visual Studio\2019\Community\VC\Tools\MSVC\14.29.30133\atlmfc\include\cstringt.h

; 2486 : 		return(str1.Compare(psz2) == 0);

  0003e	68 00 00 00 00	 push	 OFFSET ??_C@_05ELNNMDND@d1010@
  00043	8d 4d 08	 lea	 ecx, DWORD PTR _strTR$[ebp]
  00046	ff 15 00 00 00
	00		 call	 DWORD PTR __imp_?Compare@?$CStringT@DV?$StrTraitMFC_DLL@DV?$ChTraitsCRT@D@ATL@@@@@ATL@@QBEHPBD@Z
  0004c	85 c0		 test	 eax, eax
; File D:\git\src\IBK\IBK_DRFN\ProjSrc\SrcDrfn\DrCommon\PartnerMng\_PartnerManager.cpp

; 216  : 		if(strTR ==  QUERY_STRJONGMOK)		return  TRKEY_STRJONGMOK;

  0004e	75 08		 jne	 SHORT $LN7@GetTrKey
  00050	8d 78 1e	 lea	 edi, DWORD PTR [eax+30]
  00053	e9 4f 03 00 00	 jmp	 $LN65@GetTrKey
$LN7@GetTrKey:
; File C:\Program Files (x86)\Microsoft Visual Studio\2019\Community\VC\Tools\MSVC\14.29.30133\atlmfc\include\cstringt.h

; 2486 : 		return(str1.Compare(psz2) == 0);

  00058	68 00 00 00 00	 push	 OFFSET ??_C@_05FCMGPCJC@d1011@
  0005d	8d 4d 08	 lea	 ecx, DWORD PTR _strTR$[ebp]
  00060	ff 15 00 00 00
	00		 call	 DWORD PTR __imp_?Compare@?$CStringT@DV?$StrTraitMFC_DLL@DV?$ChTraitsCRT@D@ATL@@@@@ATL@@QBEHPBD@Z
  00066	85 c0		 test	 eax, eax
; File D:\git\src\IBK\IBK_DRFN\ProjSrc\SrcDrfn\DrCommon\PartnerMng\_PartnerManager.cpp

; 217  : 		if(strTR ==  QUERY_STRUPJONG)		return  TRKEY_STRUPJONG;

  00068	75 08		 jne	 SHORT $LN8@GetTrKey
  0006a	8d 78 1f	 lea	 edi, DWORD PTR [eax+31]
  0006d	e9 35 03 00 00	 jmp	 $LN65@GetTrKey
$LN8@GetTrKey:
; File C:\Program Files (x86)\Microsoft Visual Studio\2019\Community\VC\Tools\MSVC\14.29.30133\atlmfc\include\cstringt.h

; 2486 : 		return(str1.Compare(psz2) == 0);

  00072	68 00 00 00 00	 push	 OFFSET ??_C@_05HJOLKBFB@d1012@
  00077	8d 4d 08	 lea	 ecx, DWORD PTR _strTR$[ebp]
  0007a	ff 15 00 00 00
	00		 call	 DWORD PTR __imp_?Compare@?$CStringT@DV?$StrTraitMFC_DLL@DV?$ChTraitsCRT@D@ATL@@@@@ATL@@QBEHPBD@Z
  00080	85 c0		 test	 eax, eax
; File D:\git\src\IBK\IBK_DRFN\ProjSrc\SrcDrfn\DrCommon\PartnerMng\_PartnerManager.cpp

; 218  : 		if(strTR ==  QUERY_STRFUTOPT)		return  TRKEY_STRFUTOPT;

  00082	75 08		 jne	 SHORT $LN9@GetTrKey
  00084	8d 78 20	 lea	 edi, DWORD PTR [eax+32]
  00087	e9 1b 03 00 00	 jmp	 $LN65@GetTrKey
$LN9@GetTrKey:
; File C:\Program Files (x86)\Microsoft Visual Studio\2019\Community\VC\Tools\MSVC\14.29.30133\atlmfc\include\cstringt.h

; 2486 : 		return(str1.Compare(psz2) == 0);

  0008c	68 00 00 00 00	 push	 OFFSET ??_C@_05GAPAJABA@d1013@
  00091	8d 4d 08	 lea	 ecx, DWORD PTR _strTR$[ebp]
  00094	ff 15 00 00 00
	00		 call	 DWORD PTR __imp_?Compare@?$CStringT@DV?$StrTraitMFC_DLL@DV?$ChTraitsCRT@D@ATL@@@@@ATL@@QBEHPBD@Z
  0009a	85 c0		 test	 eax, eax
; File D:\git\src\IBK\IBK_DRFN\ProjSrc\SrcDrfn\DrCommon\PartnerMng\_PartnerManager.cpp

; 219  : 		if(strTR ==  QUERY_STRSTOCKFUTOPT)	return  TRKEY_STRSTOCKFUTOPT;

  0009c	75 08		 jne	 SHORT $LN10@GetTrKey
  0009e	8d 78 21	 lea	 edi, DWORD PTR [eax+33]
  000a1	e9 01 03 00 00	 jmp	 $LN65@GetTrKey
$LN10@GetTrKey:
; File C:\Program Files (x86)\Microsoft Visual Studio\2019\Community\VC\Tools\MSVC\14.29.30133\atlmfc\include\cstringt.h

; 2486 : 		return(str1.Compare(psz2) == 0);

  000a6	68 00 00 00 00	 push	 OFFSET ??_C@_05CPLBAGNH@d1014@
  000ab	8d 4d 08	 lea	 ecx, DWORD PTR _strTR$[ebp]
  000ae	ff 15 00 00 00
	00		 call	 DWORD PTR __imp_?Compare@?$CStringT@DV?$StrTraitMFC_DLL@DV?$ChTraitsCRT@D@ATL@@@@@ATL@@QBEHPBD@Z
  000b4	85 c0		 test	 eax, eax
; File D:\git\src\IBK\IBK_DRFN\ProjSrc\SrcDrfn\DrCommon\PartnerMng\_PartnerManager.cpp

; 220  : 		if(strTR ==  QUERY_STRFOREIGN)		return  TRKEY_STRFOREIGN;

  000b6	75 08		 jne	 SHORT $LN11@GetTrKey
  000b8	8d 78 22	 lea	 edi, DWORD PTR [eax+34]
  000bb	e9 e7 02 00 00	 jmp	 $LN65@GetTrKey
$LN11@GetTrKey:
; File C:\Program Files (x86)\Microsoft Visual Studio\2019\Community\VC\Tools\MSVC\14.29.30133\atlmfc\include\cstringt.h

; 2486 : 		return(str1.Compare(psz2) == 0);

  000c0	68 00 00 00 00	 push	 OFFSET ??_C@_05BNIHGEFF@d1016@
  000c5	8d 4d 08	 lea	 ecx, DWORD PTR _strTR$[ebp]
  000c8	ff 15 00 00 00
	00		 call	 DWORD PTR __imp_?Compare@?$CStringT@DV?$StrTraitMFC_DLL@DV?$ChTraitsCRT@D@ATL@@@@@ATL@@QBEHPBD@Z
  000ce	85 c0		 test	 eax, eax
; File D:\git\src\IBK\IBK_DRFN\ProjSrc\SrcDrfn\DrCommon\PartnerMng\_PartnerManager.cpp

; 221  : 		if(strTR ==  QUERY_STRREPLAY)		return  TRKEY_STRREPLAY;

  000d0	75 08		 jne	 SHORT $LN12@GetTrKey
  000d2	8d 78 23	 lea	 edi, DWORD PTR [eax+35]
  000d5	e9 cd 02 00 00	 jmp	 $LN65@GetTrKey
$LN12@GetTrKey:
; File C:\Program Files (x86)\Microsoft Visual Studio\2019\Community\VC\Tools\MSVC\14.29.30133\atlmfc\include\cstringt.h

; 2486 : 		return(str1.Compare(psz2) == 0);

  000da	68 00 00 00 00	 push	 OFFSET ??_C@_05GFCMPLNO@c1002@
  000df	8d 4d 08	 lea	 ecx, DWORD PTR _strTR$[ebp]
  000e2	ff 15 00 00 00
	00		 call	 DWORD PTR __imp_?Compare@?$CStringT@DV?$StrTraitMFC_DLL@DV?$ChTraitsCRT@D@ATL@@@@@ATL@@QBEHPBD@Z
  000e8	85 c0		 test	 eax, eax
; File D:\git\src\IBK\IBK_DRFN\ProjSrc\SrcDrfn\DrCommon\PartnerMng\_PartnerManager.cpp

; 222  : 		if(strTR ==  QUERY_STOCK_HOGA)		return  TRKEY_STOCK_HOGA;

  000ea	75 08		 jne	 SHORT $LN13@GetTrKey
  000ec	8d 78 32	 lea	 edi, DWORD PTR [eax+50]
  000ef	e9 b3 02 00 00	 jmp	 $LN65@GetTrKey
$LN13@GetTrKey:
; File C:\Program Files (x86)\Microsoft Visual Studio\2019\Community\VC\Tools\MSVC\14.29.30133\atlmfc\include\cstringt.h

; 2486 : 		return(str1.Compare(psz2) == 0);

  000f4	68 00 00 00 00	 push	 OFFSET ??_C@_05IJKFNIJF@f0201@
  000f9	8d 4d 08	 lea	 ecx, DWORD PTR _strTR$[ebp]
  000fc	ff 15 00 00 00
	00		 call	 DWORD PTR __imp_?Compare@?$CStringT@DV?$StrTraitMFC_DLL@DV?$ChTraitsCRT@D@ATL@@@@@ATL@@QBEHPBD@Z
  00102	85 c0		 test	 eax, eax
; File D:\git\src\IBK\IBK_DRFN\ProjSrc\SrcDrfn\DrCommon\PartnerMng\_PartnerManager.cpp

; 223  : 		if(strTR ==  QUERY_FUTOPT_HOGA)		return  TRKEY_FUTOPT_HOGA;

  00104	75 08		 jne	 SHORT $LN14@GetTrKey
  00106	8d 78 33	 lea	 edi, DWORD PTR [eax+51]
  00109	e9 99 02 00 00	 jmp	 $LN65@GetTrKey
$LN14@GetTrKey:
; File C:\Program Files (x86)\Microsoft Visual Studio\2019\Community\VC\Tools\MSVC\14.29.30133\atlmfc\include\cstringt.h

; 2486 : 		return(str1.Compare(psz2) == 0);

  0010e	68 00 00 00 00	 push	 OFFSET ??_C@_05CFKCFGAI@s3301@
  00113	8d 4d 08	 lea	 ecx, DWORD PTR _strTR$[ebp]
  00116	ff 15 00 00 00
	00		 call	 DWORD PTR __imp_?Compare@?$CStringT@DV?$StrTraitMFC_DLL@DV?$ChTraitsCRT@D@ATL@@@@@ATL@@QBEHPBD@Z
  0011c	85 c0		 test	 eax, eax
; File D:\git\src\IBK\IBK_DRFN\ProjSrc\SrcDrfn\DrCommon\PartnerMng\_PartnerManager.cpp

; 224  : 		if(strTR ==  QUERY_STOCKFUT_HOGA)	return  TRKEY_STOCKFUT_HOGA;

  0011e	75 08		 jne	 SHORT $LN15@GetTrKey
  00120	8d 78 34	 lea	 edi, DWORD PTR [eax+52]
  00123	e9 7f 02 00 00	 jmp	 $LN65@GetTrKey
$LN15@GetTrKey:
; File C:\Program Files (x86)\Microsoft Visual Studio\2019\Community\VC\Tools\MSVC\14.29.30133\atlmfc\include\cstringt.h

; 2486 : 		return(str1.Compare(psz2) == 0);

  00128	68 00 00 00 00	 push	 OFFSET ??_C@_05MOAFKCEF@f3201@
  0012d	8d 4d 08	 lea	 ecx, DWORD PTR _strTR$[ebp]
  00130	ff 15 00 00 00
	00		 call	 DWORD PTR __imp_?Compare@?$CStringT@DV?$StrTraitMFC_DLL@DV?$ChTraitsCRT@D@ATL@@@@@ATL@@QBEHPBD@Z
  00136	85 c0		 test	 eax, eax
; File D:\git\src\IBK\IBK_DRFN\ProjSrc\SrcDrfn\DrCommon\PartnerMng\_PartnerManager.cpp

; 225  : 		if(strTR ==  QUERY_STOCKOPT_HOGA)	return  TRKEY_STOCKOPT_HOGA;

  00138	75 08		 jne	 SHORT $LN16@GetTrKey
  0013a	8d 78 35	 lea	 edi, DWORD PTR [eax+53]
  0013d	e9 65 02 00 00	 jmp	 $LN65@GetTrKey
$LN16@GetTrKey:
; File C:\Program Files (x86)\Microsoft Visual Studio\2019\Community\VC\Tools\MSVC\14.29.30133\atlmfc\include\cstringt.h

; 2486 : 		return(str1.Compare(psz2) == 0);

  00142	68 00 00 00 00	 push	 OFFSET ??_C@_05IDAEEJNL@d1018@
  00147	8d 4d 08	 lea	 ecx, DWORD PTR _strTR$[ebp]
  0014a	ff 15 00 00 00
	00		 call	 DWORD PTR __imp_?Compare@?$CStringT@DV?$StrTraitMFC_DLL@DV?$ChTraitsCRT@D@ATL@@@@@ATL@@QBEHPBD@Z
  00150	85 c0		 test	 eax, eax
; File D:\git\src\IBK\IBK_DRFN\ProjSrc\SrcDrfn\DrCommon\PartnerMng\_PartnerManager.cpp

; 226  : 		if(strTR ==  QUERY_STRDOLLAR)		return  TRKEY_STRDOLLAR;

  00152	75 08		 jne	 SHORT $LN17@GetTrKey
  00154	8d 78 36	 lea	 edi, DWORD PTR [eax+54]
  00157	e9 4b 02 00 00	 jmp	 $LN65@GetTrKey
$LN17@GetTrKey:
; File C:\Program Files (x86)\Microsoft Visual Studio\2019\Community\VC\Tools\MSVC\14.29.30133\atlmfc\include\cstringt.h

; 2486 : 		return(str1.Compare(psz2) == 0);

  0015c	68 00 00 00 00	 push	 OFFSET ??_C@_05DMBEOOBE@d0515@
  00161	8d 4d 08	 lea	 ecx, DWORD PTR _strTR$[ebp]
  00164	ff 15 00 00 00
	00		 call	 DWORD PTR __imp_?Compare@?$CStringT@DV?$StrTraitMFC_DLL@DV?$ChTraitsCRT@D@ATL@@@@@ATL@@QBEHPBD@Z
  0016a	85 c0		 test	 eax, eax
; File D:\git\src\IBK\IBK_DRFN\ProjSrc\SrcDrfn\DrCommon\PartnerMng\_PartnerManager.cpp

; 227  : 		if(strTR ==  QUERY_STRFOJIPYO)		return  TRKEY_STRFOJIPYO;

  0016c	75 08		 jne	 SHORT $LN18@GetTrKey
  0016e	8d 78 37	 lea	 edi, DWORD PTR [eax+55]
  00171	e9 31 02 00 00	 jmp	 $LN65@GetTrKey
$LN18@GetTrKey:
; File C:\Program Files (x86)\Microsoft Visual Studio\2019\Community\VC\Tools\MSVC\14.29.30133\atlmfc\include\cstringt.h

; 2486 : 		return(str1.Compare(psz2) == 0);

  00176	68 00 00 00 00	 push	 OFFSET ??_C@_07KDMMOILP@d1012_1@
  0017b	8d 4d 08	 lea	 ecx, DWORD PTR _strTR$[ebp]
  0017e	ff 15 00 00 00
	00		 call	 DWORD PTR __imp_?Compare@?$CStringT@DV?$StrTraitMFC_DLL@DV?$ChTraitsCRT@D@ATL@@@@@ATL@@QBEHPBD@Z
  00184	85 c0		 test	 eax, eax
; File D:\git\src\IBK\IBK_DRFN\ProjSrc\SrcDrfn\DrCommon\PartnerMng\_PartnerManager.cpp

; 228  : 		if(strTR ==  QUERY_STRPREFUTOPT)	return  TRKEY_STRPREFUTOPT;

  00186	75 08		 jne	 SHORT $LN19@GetTrKey
  00188	8d 78 38	 lea	 edi, DWORD PTR [eax+56]
  0018b	e9 17 02 00 00	 jmp	 $LN65@GetTrKey
$LN19@GetTrKey:
; File C:\Program Files (x86)\Microsoft Visual Studio\2019\Community\VC\Tools\MSVC\14.29.30133\atlmfc\include\cstringt.h

; 2486 : 		return(str1.Compare(psz2) == 0);

  00190	68 00 00 00 00	 push	 OFFSET ??_C@_07NGBOKMDD@o44003$@
  00195	8d 4d 08	 lea	 ecx, DWORD PTR _strTR$[ebp]
  00198	ff 15 00 00 00
	00		 call	 DWORD PTR __imp_?Compare@?$CStringT@DV?$StrTraitMFC_DLL@DV?$ChTraitsCRT@D@ATL@@@@@ATL@@QBEHPBD@Z
  0019e	85 c0		 test	 eax, eax
; File D:\git\src\IBK\IBK_DRFN\ProjSrc\SrcDrfn\DrCommon\PartnerMng\_PartnerManager.cpp

; 229  : 		if(strTR ==  QUERY_STRFOFOREIGN)		return  TRKEY_STRFOFOREIGN;

  001a0	75 08		 jne	 SHORT $LN20@GetTrKey
  001a2	8d 78 39	 lea	 edi, DWORD PTR [eax+57]
  001a5	e9 fd 01 00 00	 jmp	 $LN65@GetTrKey
$LN20@GetTrKey:
; File C:\Program Files (x86)\Microsoft Visual Studio\2019\Community\VC\Tools\MSVC\14.29.30133\atlmfc\include\cstringt.h

; 2486 : 		return(str1.Compare(psz2) == 0);

  001aa	68 00 00 00 00	 push	 OFFSET ??_C@_07GMOEHFAP@o44010$@
  001af	8d 4d 08	 lea	 ecx, DWORD PTR _strTR$[ebp]
  001b2	ff 15 00 00 00
	00		 call	 DWORD PTR __imp_?Compare@?$CStringT@DV?$StrTraitMFC_DLL@DV?$ChTraitsCRT@D@ATL@@@@@ATL@@QBEHPBD@Z
  001b8	85 c0		 test	 eax, eax
; File D:\git\src\IBK\IBK_DRFN\ProjSrc\SrcDrfn\DrCommon\PartnerMng\_PartnerManager.cpp

; 230  : 		if(strTR ==  QUERY_STRFOFOREIGN_HOGA)	return  TRKEY_STRFOFOREIGN_HOGA;

  001ba	75 08		 jne	 SHORT $LN21@GetTrKey
  001bc	8d 78 3a	 lea	 edi, DWORD PTR [eax+58]
  001bf	e9 e3 01 00 00	 jmp	 $LN65@GetTrKey
$LN21@GetTrKey:
; File C:\Program Files (x86)\Microsoft Visual Studio\2019\Community\VC\Tools\MSVC\14.29.30133\atlmfc\include\cstringt.h

; 2486 : 		return(str1.Compare(psz2) == 0);

  001c4	68 00 00 00 00	 push	 OFFSET ??_C@_0M@FDODDDIP@pfbopoop830@
  001c9	8d 4d 08	 lea	 ecx, DWORD PTR _strTR$[ebp]
  001cc	ff 15 00 00 00
	00		 call	 DWORD PTR __imp_?Compare@?$CStringT@DV?$StrTraitMFC_DLL@DV?$ChTraitsCRT@D@ATL@@@@@ATL@@QBEHPBD@Z
  001d2	85 c0		 test	 eax, eax
; File D:\git\src\IBK\IBK_DRFN\ProjSrc\SrcDrfn\DrCommon\PartnerMng\_PartnerManager.cpp

; 231  : 		if(strTR ==  QUERY_STRFOFOREIGN_CHE2)	return  TRKEY_STRFOFOREIGN_CHE2;	//20100315_JS.Kim 

  001d4	75 08		 jne	 SHORT $LN22@GetTrKey
  001d6	8d 78 3d	 lea	 edi, DWORD PTR [eax+61]
  001d9	e9 c9 01 00 00	 jmp	 $LN65@GetTrKey
$LN22@GetTrKey:
; File C:\Program Files (x86)\Microsoft Visual Studio\2019\Community\VC\Tools\MSVC\14.29.30133\atlmfc\include\cstringt.h

; 2486 : 		return(str1.Compare(psz2) == 0);

  001de	68 00 00 00 00	 push	 OFFSET ??_C@_0M@EKPIACMO@pfbopoop831@
  001e3	8d 4d 08	 lea	 ecx, DWORD PTR _strTR$[ebp]
  001e6	ff 15 00 00 00
	00		 call	 DWORD PTR __imp_?Compare@?$CStringT@DV?$StrTraitMFC_DLL@DV?$ChTraitsCRT@D@ATL@@@@@ATL@@QBEHPBD@Z
  001ec	85 c0		 test	 eax, eax
; File D:\git\src\IBK\IBK_DRFN\ProjSrc\SrcDrfn\DrCommon\PartnerMng\_PartnerManager.cpp

; 232  : 		if(strTR ==  QUERY_STRFOFOREIGN_JAN)	return  TRKEY_STRFOFOREIGN_JAN;	//20100315_JS.Kim 

  001ee	75 08		 jne	 SHORT $LN23@GetTrKey
  001f0	8d 78 3c	 lea	 edi, DWORD PTR [eax+60]
  001f3	e9 af 01 00 00	 jmp	 $LN65@GetTrKey
$LN23@GetTrKey:
; File C:\Program Files (x86)\Microsoft Visual Studio\2019\Community\VC\Tools\MSVC\14.29.30133\atlmfc\include\cstringt.h

; 2486 : 		return(str1.Compare(psz2) == 0);

  001f8	68 00 00 00 00	 push	 OFFSET ??_C@_08OMHJJDIK@pfbopoop@
  001fd	8d 4d 08	 lea	 ecx, DWORD PTR _strTR$[ebp]
  00200	ff 15 00 00 00
	00		 call	 DWORD PTR __imp_?Compare@?$CStringT@DV?$StrTraitMFC_DLL@DV?$ChTraitsCRT@D@ATL@@@@@ATL@@QBEHPBD@Z
  00206	85 c0		 test	 eax, eax
; File D:\git\src\IBK\IBK_DRFN\ProjSrc\SrcDrfn\DrCommon\PartnerMng\_PartnerManager.cpp

; 233  : 		if(strTR ==  QUERY_STRFX)				return  TRKEY_STRFX;		//20100315_JS.Kim 

  00208	75 08		 jne	 SHORT $LN24@GetTrKey
  0020a	8d 78 3e	 lea	 edi, DWORD PTR [eax+62]
  0020d	e9 95 01 00 00	 jmp	 $LN65@GetTrKey
$LN24@GetTrKey:
; File C:\Program Files (x86)\Microsoft Visual Studio\2019\Community\VC\Tools\MSVC\14.29.30133\atlmfc\include\cstringt.h

; 2486 : 		return(str1.Compare(psz2) == 0);

  00212	68 00 00 00 00	 push	 OFFSET ??_C@_0M@OGLNBELP@pfboaoop840@
  00217	8d 4d 08	 lea	 ecx, DWORD PTR _strTR$[ebp]
  0021a	ff 15 00 00 00
	00		 call	 DWORD PTR __imp_?Compare@?$CStringT@DV?$StrTraitMFC_DLL@DV?$ChTraitsCRT@D@ATL@@@@@ATL@@QBEHPBD@Z
  00220	85 c0		 test	 eax, eax
; File D:\git\src\IBK\IBK_DRFN\ProjSrc\SrcDrfn\DrCommon\PartnerMng\_PartnerManager.cpp

; 234  : 		if(strTR ==  QUERY_STRFX_CHE)			return  TRKEY_STRFX_CHE;	//20100315_JS.Kim 

  00222	75 08		 jne	 SHORT $LN25@GetTrKey
  00224	8d 78 3f	 lea	 edi, DWORD PTR [eax+63]
  00227	e9 7b 01 00 00	 jmp	 $LN65@GetTrKey
$LN25@GetTrKey:
; File C:\Program Files (x86)\Microsoft Visual Studio\2019\Community\VC\Tools\MSVC\14.29.30133\atlmfc\include\cstringt.h

; 2486 : 		return(str1.Compare(psz2) == 0);

  0022c	68 00 00 00 00	 push	 OFFSET ??_C@_0N@LGEIEHHI@pfboaoop8402@
  00231	8d 4d 08	 lea	 ecx, DWORD PTR _strTR$[ebp]
  00234	ff 15 00 00 00
	00		 call	 DWORD PTR __imp_?Compare@?$CStringT@DV?$StrTraitMFC_DLL@DV?$ChTraitsCRT@D@ATL@@@@@ATL@@QBEHPBD@Z
  0023a	85 c0		 test	 eax, eax
; File D:\git\src\IBK\IBK_DRFN\ProjSrc\SrcDrfn\DrCommon\PartnerMng\_PartnerManager.cpp

; 235  : 		if(strTR ==  QUERY_STRFX_CHE2)			return  TRKEY_STRFX_CHE2;	//20100315_JS.Kim 

  0023c	75 08		 jne	 SHORT $LN26@GetTrKey
  0023e	8d 78 41	 lea	 edi, DWORD PTR [eax+65]
  00241	e9 61 01 00 00	 jmp	 $LN65@GetTrKey
$LN26@GetTrKey:
; File C:\Program Files (x86)\Microsoft Visual Studio\2019\Community\VC\Tools\MSVC\14.29.30133\atlmfc\include\cstringt.h

; 2486 : 		return(str1.Compare(psz2) == 0);

  00246	68 00 00 00 00	 push	 OFFSET ??_C@_0M@PPKGCFPO@pfboaoop841@
  0024b	8d 4d 08	 lea	 ecx, DWORD PTR _strTR$[ebp]
  0024e	ff 15 00 00 00
	00		 call	 DWORD PTR __imp_?Compare@?$CStringT@DV?$StrTraitMFC_DLL@DV?$ChTraitsCRT@D@ATL@@@@@ATL@@QBEHPBD@Z
  00254	85 c0		 test	 eax, eax
; File D:\git\src\IBK\IBK_DRFN\ProjSrc\SrcDrfn\DrCommon\PartnerMng\_PartnerManager.cpp

; 236  : 		if(strTR ==  QUERY_STRFX_JAN)			return  TRKEY_STRFX_JAN;	//20100315_JS.Kim 

  00256	75 08		 jne	 SHORT $LN27@GetTrKey
  00258	8d 78 40	 lea	 edi, DWORD PTR [eax+64]
  0025b	e9 47 01 00 00	 jmp	 $LN65@GetTrKey
$LN27@GetTrKey:
; File C:\Program Files (x86)\Microsoft Visual Studio\2019\Community\VC\Tools\MSVC\14.29.30133\atlmfc\include\cstringt.h

; 2486 : 		return(str1.Compare(psz2) == 0);

  00260	68 00 00 00 00	 push	 OFFSET ??_C@_05HGNCIFF@d0354@
  00265	8d 4d 08	 lea	 ecx, DWORD PTR _strTR$[ebp]
  00268	ff 15 00 00 00
	00		 call	 DWORD PTR __imp_?Compare@?$CStringT@DV?$StrTraitMFC_DLL@DV?$ChTraitsCRT@D@ATL@@@@@ATL@@QBEHPBD@Z
  0026e	85 c0		 test	 eax, eax
; File D:\git\src\IBK\IBK_DRFN\ProjSrc\SrcDrfn\DrCommon\PartnerMng\_PartnerManager.cpp

; 237  : 		if(strTR ==  QUERY_STRPLUS_STOCK)			return  TRKEY_PLUS_STOCK;	//20110415_KHD 

  00270	75 08		 jne	 SHORT $LN28@GetTrKey
  00272	8d 78 42	 lea	 edi, DWORD PTR [eax+66]
  00275	e9 2d 01 00 00	 jmp	 $LN65@GetTrKey
$LN28@GetTrKey:
; File C:\Program Files (x86)\Microsoft Visual Studio\2019\Community\VC\Tools\MSVC\14.29.30133\atlmfc\include\cstringt.h

; 2486 : 		return(str1.Compare(psz2) == 0);

  0027a	68 00 00 00 00	 push	 OFFSET ??_C@_05BOHGBJBE@d0355@
  0027f	8d 4d 08	 lea	 ecx, DWORD PTR _strTR$[ebp]
  00282	ff 15 00 00 00
	00		 call	 DWORD PTR __imp_?Compare@?$CStringT@DV?$StrTraitMFC_DLL@DV?$ChTraitsCRT@D@ATL@@@@@ATL@@QBEHPBD@Z
  00288	85 c0		 test	 eax, eax
; File D:\git\src\IBK\IBK_DRFN\ProjSrc\SrcDrfn\DrCommon\PartnerMng\_PartnerManager.cpp

; 238  : 		if(strTR ==  QUERY_STRPLUS_MARKET)			return  TRKEY_PLUS_MARKET;	//20110416_KHD 

  0028a	75 08		 jne	 SHORT $LN29@GetTrKey
  0028c	8d 78 43	 lea	 edi, DWORD PTR [eax+67]
  0028f	e9 13 01 00 00	 jmp	 $LN65@GetTrKey
$LN29@GetTrKey:
; File C:\Program Files (x86)\Microsoft Visual Studio\2019\Community\VC\Tools\MSVC\14.29.30133\atlmfc\include\cstringt.h

; 2486 : 		return(str1.Compare(psz2) == 0);

  00294	68 00 00 00 00	 push	 OFFSET ??_C@_05DHBNPEIO@d0366@
  00299	8d 4d 08	 lea	 ecx, DWORD PTR _strTR$[ebp]
  0029c	ff 15 00 00 00
	00		 call	 DWORD PTR __imp_?Compare@?$CStringT@DV?$StrTraitMFC_DLL@DV?$ChTraitsCRT@D@ATL@@@@@ATL@@QBEHPBD@Z
  002a2	85 c0		 test	 eax, eax
; File D:\git\src\IBK\IBK_DRFN\ProjSrc\SrcDrfn\DrCommon\PartnerMng\_PartnerManager.cpp

; 239  : 		if(strTR ==  QUERY_STRPLUS_KOSPI)			return  TRKEY_PLUS_KOSPI;	//20110416_KHD 

  002a4	75 08		 jne	 SHORT $LN30@GetTrKey
  002a6	8d 78 51	 lea	 edi, DWORD PTR [eax+81]
  002a9	e9 f9 00 00 00	 jmp	 $LN65@GetTrKey
$LN30@GetTrKey:
; File C:\Program Files (x86)\Microsoft Visual Studio\2019\Community\VC\Tools\MSVC\14.29.30133\atlmfc\include\cstringt.h

; 2486 : 		return(str1.Compare(psz2) == 0);

  002ae	68 00 00 00 00	 push	 OFFSET ??_C@_05COAGMFMP@d0367@
  002b3	8d 4d 08	 lea	 ecx, DWORD PTR _strTR$[ebp]
  002b6	ff 15 00 00 00
	00		 call	 DWORD PTR __imp_?Compare@?$CStringT@DV?$StrTraitMFC_DLL@DV?$ChTraitsCRT@D@ATL@@@@@ATL@@QBEHPBD@Z
  002bc	85 c0		 test	 eax, eax
; File D:\git\src\IBK\IBK_DRFN\ProjSrc\SrcDrfn\DrCommon\PartnerMng\_PartnerManager.cpp

; 240  : 		if(strTR ==  QUERY_STRPLUS_KOSDAK)			return  TRKEY_PLUS_KOSDAK;	//20110416_KHD 

  002be	75 08		 jne	 SHORT $LN31@GetTrKey
  002c0	8d 78 52	 lea	 edi, DWORD PTR [eax+82]
  002c3	e9 df 00 00 00	 jmp	 $LN65@GetTrKey
$LN31@GetTrKey:
; File C:\Program Files (x86)\Microsoft Visual Studio\2019\Community\VC\Tools\MSVC\14.29.30133\atlmfc\include\cstringt.h

; 2486 : 		return(str1.Compare(psz2) == 0);

  002c8	68 00 00 00 00	 push	 OFFSET ??_C@_05KJJONJAA@d0368@
  002cd	8d 4d 08	 lea	 ecx, DWORD PTR _strTR$[ebp]
  002d0	ff 15 00 00 00
	00		 call	 DWORD PTR __imp_?Compare@?$CStringT@DV?$StrTraitMFC_DLL@DV?$ChTraitsCRT@D@ATL@@@@@ATL@@QBEHPBD@Z
  002d6	85 c0		 test	 eax, eax
; File D:\git\src\IBK\IBK_DRFN\ProjSrc\SrcDrfn\DrCommon\PartnerMng\_PartnerManager.cpp

; 241  : 		if(strTR ==  QUERY_STRPLUS_FO)				return  TRKEY_PLUS_FO;	//20110416_KHD 

  002d8	75 08		 jne	 SHORT $LN32@GetTrKey
  002da	8d 78 53	 lea	 edi, DWORD PTR [eax+83]
  002dd	e9 c5 00 00 00	 jmp	 $LN65@GetTrKey
$LN32@GetTrKey:
; File C:\Program Files (x86)\Microsoft Visual Studio\2019\Community\VC\Tools\MSVC\14.29.30133\atlmfc\include\cstringt.h

; 2486 : 		return(str1.Compare(psz2) == 0);

  002e2	68 00 00 00 00	 push	 OFFSET ??_C@_05LAIFOIEB@d0369@
  002e7	8d 4d 08	 lea	 ecx, DWORD PTR _strTR$[ebp]
  002ea	ff 15 00 00 00
	00		 call	 DWORD PTR __imp_?Compare@?$CStringT@DV?$StrTraitMFC_DLL@DV?$ChTraitsCRT@D@ATL@@@@@ATL@@QBEHPBD@Z
  002f0	85 c0		 test	 eax, eax
; File D:\git\src\IBK\IBK_DRFN\ProjSrc\SrcDrfn\DrCommon\PartnerMng\_PartnerManager.cpp

; 242  : 		if(strTR ==  QUERY_STRPLUS_SIGNAL)				return  TRKEY_PLUS_SIGNAL;	//20110416_KHD 

  002f2	75 76		 jne	 SHORT $LN139@GetTrKey
  002f4	8d 78 54	 lea	 edi, DWORD PTR [eax+84]
  002f7	e9 ab 00 00 00	 jmp	 $LN65@GetTrKey
$LN5@GetTrKey:
  002fc	8d 4d dc	 lea	 ecx, DWORD PTR _item$2[ebp]
  002ff	ff 15 00 00 00
	00		 call	 DWORD PTR __imp_??0?$CStringT@DV?$StrTraitMFC_DLL@DV?$ChTraitsCRT@D@ATL@@@@@ATL@@QAE@XZ

; 243  : 		
; 244  : 	}
; 245  : 	else
; 246  : 	{
; 247  : 		int nIndex = 0;
; 248  : 		FID_SENDDATA item;

  00305	33 c0		 xor	 eax, eax
  00307	c6 45 fc 01	 mov	 BYTE PTR __$EHRec$[ebp+8], 1

; 249  : 		for (int i=TRKEY_VIRT_START; i<TRKEY_VIRT_END; i++)

  0030b	bf 47 00 00 00	 mov	 edi, 71			; 00000047H
  00310	89 45 f0	 mov	 DWORD PTR _this$1$[ebp], eax
  00313	33 db		 xor	 ebx, ebx
$LL4@GetTrKey:
; File C:\Program Files (x86)\Microsoft Visual Studio\2019\Community\VC\Tools\MSVC\14.29.30133\atlmfc\include\afxtempl.h

; 288  : 	if(nIndex >= 0 && nIndex < m_nSize)

  00315	85 db		 test	 ebx, ebx
  00317	0f 88 a9 00 00
	00		 js	 $LN124@GetTrKey
  0031d	3b 46 0c	 cmp	 eax, DWORD PTR [esi+12]
  00320	0f 8d a0 00 00
	00		 jge	 $LN124@GetTrKey

; 289  : 		return m_pData[nIndex];

  00326	8b 76 08	 mov	 esi, DWORD PTR [esi+8]
  00329	8d 4d dc	 lea	 ecx, DWORD PTR _item$2[ebp]
  0032c	03 f3		 add	 esi, ebx
  0032e	56		 push	 esi
  0032f	ff 15 00 00 00
	00		 call	 DWORD PTR __imp_??4?$CStringT@DV?$StrTraitMFC_DLL@DV?$ChTraitsCRT@D@ATL@@@@@ATL@@QAEAAV01@ABV01@@Z
  00335	8b 46 04	 mov	 eax, DWORD PTR [esi+4]
  00338	89 45 e0	 mov	 DWORD PTR _item$2[ebp+4], eax
  0033b	8b 46 08	 mov	 eax, DWORD PTR [esi+8]
  0033e	89 45 e4	 mov	 DWORD PTR _item$2[ebp+8], eax
  00341	8b 46 0c	 mov	 eax, DWORD PTR [esi+12]
  00344	89 45 e8	 mov	 DWORD PTR _item$2[ebp+12], eax
  00347	85 c0		 test	 eax, eax
; File D:\git\src\IBK\IBK_DRFN\ProjSrc\SrcDrfn\DrCommon\PartnerMng\_PartnerManager.cpp

; 253  : 			if (item.hWnd == NULL)

  00349	74 24		 je	 SHORT $LN142@GetTrKey

; 249  : 		for (int i=TRKEY_VIRT_START; i<TRKEY_VIRT_END; i++)

  0034b	8b 45 f0	 mov	 eax, DWORD PTR _this$1$[ebp]
  0034e	83 c3 10	 add	 ebx, 16			; 00000010H
  00351	8b 75 ec	 mov	 esi, DWORD PTR _this$1$[ebp]
  00354	40		 inc	 eax
  00355	47		 inc	 edi
  00356	89 45 f0	 mov	 DWORD PTR _this$1$[ebp], eax
  00359	81 fb 90 00 00
	00		 cmp	 ebx, 144		; 00000090H
  0035f	7c b4		 jl	 SHORT $LL4@GetTrKey
  00361	8d 4d dc	 lea	 ecx, DWORD PTR _item$2[ebp]
  00364	ff 15 00 00 00
	00		 call	 DWORD PTR __imp_??1?$CStringT@DV?$StrTraitMFC_DLL@DV?$ChTraitsCRT@D@ATL@@@@@ATL@@QAE@XZ
$LN139@GetTrKey:

; 261  : 	return -1;

  0036a	83 cf ff	 or	 edi, -1
  0036d	eb 38		 jmp	 SHORT $LN65@GetTrKey
$LN142@GetTrKey:
; File C:\Program Files (x86)\Microsoft Visual Studio\2019\Community\VC\Tools\MSVC\14.29.30133\atlmfc\include\afxtempl.h

; 304  : 	if(nIndex >= 0 && nIndex < m_nSize)

  0036f	8b 45 ec	 mov	 eax, DWORD PTR _this$1$[ebp]
  00372	8b 75 f0	 mov	 esi, DWORD PTR _this$1$[ebp]
  00375	3b 70 0c	 cmp	 esi, DWORD PTR [eax+12]
  00378	7d 4c		 jge	 SHORT $LN124@GetTrKey
  0037a	8b 5d 0c	 mov	 ebx, DWORD PTR _pSendData$[ebp]

; 305  : 		m_pData[nIndex] = newElement;

  0037d	c1 e6 04	 shl	 esi, 4
  00380	03 70 08	 add	 esi, DWORD PTR [eax+8]
  00383	53		 push	 ebx
  00384	8b ce		 mov	 ecx, esi
  00386	ff 15 00 00 00
	00		 call	 DWORD PTR __imp_??4?$CStringT@DV?$StrTraitMFC_DLL@DV?$ChTraitsCRT@D@ATL@@@@@ATL@@QAEAAV01@ABV01@@Z
  0038c	8b 43 04	 mov	 eax, DWORD PTR [ebx+4]
  0038f	89 46 04	 mov	 DWORD PTR [esi+4], eax
  00392	8b 43 08	 mov	 eax, DWORD PTR [ebx+8]
  00395	89 46 08	 mov	 DWORD PTR [esi+8], eax
  00398	8b 4b 0c	 mov	 ecx, DWORD PTR [ebx+12]
  0039b	89 4e 0c	 mov	 DWORD PTR [esi+12], ecx
  0039e	8d 4d dc	 lea	 ecx, DWORD PTR _item$2[ebp]
  003a1	ff 15 00 00 00
	00		 call	 DWORD PTR __imp_??1?$CStringT@DV?$StrTraitMFC_DLL@DV?$ChTraitsCRT@D@ATL@@@@@ATL@@QAE@XZ
$LN65@GetTrKey:
; File D:\git\src\IBK\IBK_DRFN\ProjSrc\SrcDrfn\DrCommon\PartnerMng\_PartnerManager.cpp

; 261  : 	return -1;

  003a7	8d 4d 08	 lea	 ecx, DWORD PTR _strTR$[ebp]
  003aa	ff 15 00 00 00
	00		 call	 DWORD PTR __imp_??1?$CStringT@DV?$StrTraitMFC_DLL@DV?$ChTraitsCRT@D@ATL@@@@@ATL@@QAE@XZ
  003b0	8b c7		 mov	 eax, edi

; 262  : }

  003b2	8b 4d f4	 mov	 ecx, DWORD PTR __$EHRec$[ebp]
  003b5	64 89 0d 00 00
	00 00		 mov	 DWORD PTR fs:0, ecx
  003bc	59		 pop	 ecx
  003bd	5f		 pop	 edi
  003be	5e		 pop	 esi
  003bf	5b		 pop	 ebx
  003c0	8b e5		 mov	 esp, ebp
  003c2	5d		 pop	 ebp
  003c3	c2 08 00	 ret	 8
$LN124@GetTrKey:
; File C:\Program Files (x86)\Microsoft Visual Studio\2019\Community\VC\Tools\MSVC\14.29.30133\atlmfc\include\afxtempl.h

; 290  : 	AfxThrowInvalidArgException();

  003c6	e8 00 00 00 00	 call	 ?AfxThrowInvalidArgException@@YGXXZ ; AfxThrowInvalidArgException
$LN147@GetTrKey:
  003cb	cc		 int	 3
_TEXT	ENDS
;	COMDAT text$x
text$x	SEGMENT
__unwindfunclet$?GetTrKey@CPartnerManager@@QAEHV?$CStringT@DV?$StrTraitMFC_DLL@DV?$ChTraitsCRT@D@ATL@@@@@ATL@@PAUFID_SENDDATA@@@Z$0:
  00000	8d 4d 08	 lea	 ecx, DWORD PTR _strTR$[ebp]
  00003	ff 25 00 00 00
	00		 jmp	 DWORD PTR __imp_??1?$CStringT@DV?$StrTraitMFC_DLL@DV?$ChTraitsCRT@D@ATL@@@@@ATL@@QAE@XZ
__unwindfunclet$?GetTrKey@CPartnerManager@@QAEHV?$CStringT@DV?$StrTraitMFC_DLL@DV?$ChTraitsCRT@D@ATL@@@@@ATL@@PAUFID_SENDDATA@@@Z$1:
  00009	8d 4d dc	 lea	 ecx, DWORD PTR _item$2[ebp]
  0000c	e9 00 00 00 00	 jmp	 ??1FID_SENDDATA@@QAE@XZ
  00011	cc		 int	 3
  00012	cc		 int	 3
  00013	cc		 int	 3
  00014	cc		 int	 3
  00015	cc		 int	 3
__ehhandler$?GetTrKey@CPartnerManager@@QAEHV?$CStringT@DV?$StrTraitMFC_DLL@DV?$ChTraitsCRT@D@ATL@@@@@ATL@@PAUFID_SENDDATA@@@Z:
  00016	90		 npad	 1
  00017	90		 npad	 1
  00018	8b 54 24 08	 mov	 edx, DWORD PTR [esp+8]
  0001c	8d 42 0c	 lea	 eax, DWORD PTR [edx+12]
  0001f	8b 4a d8	 mov	 ecx, DWORD PTR [edx-40]
  00022	33 c8		 xor	 ecx, eax
  00024	e8 00 00 00 00	 call	 @__security_check_cookie@4
  00029	b8 00 00 00 00	 mov	 eax, OFFSET __ehfuncinfo$?GetTrKey@CPartnerManager@@QAEHV?$CStringT@DV?$StrTraitMFC_DLL@DV?$ChTraitsCRT@D@ATL@@@@@ATL@@PAUFID_SENDDATA@@@Z
  0002e	e9 00 00 00 00	 jmp	 ___CxxFrameHandler3
text$x	ENDS
?GetTrKey@CPartnerManager@@QAEHV?$CStringT@DV?$StrTraitMFC_DLL@DV?$ChTraitsCRT@D@ATL@@@@@ATL@@PAUFID_SENDDATA@@@Z ENDP ; CPartnerManager::GetTrKey
; Function compile flags: /Ogtp
; File D:\git\src\IBK\IBK_DRFN\ProjSrc\SrcDrfn\DrCommon\PartnerMng\_PartnerManager.cpp
;	COMDAT ?SendTR@CPartnerManager@@QAEHV?$CStringT@DV?$StrTraitMFC_DLL@DV?$ChTraitsCRT@D@ATL@@@@@ATL@@PADHHH@Z
_TEXT	SEGMENT
_strTRData$ = -44					; size = 4
_this$GSCopy$1$ = -40					; size = 4
_szData$GSCopy$1$ = -36					; size = 4
_strTest$ = -32						; size = 4
_user$ = -28						; size = 10
__$ArrayPad$ = -16					; size = 4
__$EHRec$ = -12						; size = 12
_strTR$ = 8						; size = 4
_szData$ = 12						; size = 4
_nLen$ = 16						; size = 4
_nKey$ = 20						; size = 4
_nStat$ = 24						; size = 4
?SendTR@CPartnerManager@@QAEHV?$CStringT@DV?$StrTraitMFC_DLL@DV?$ChTraitsCRT@D@ATL@@@@@ATL@@PADHHH@Z PROC ; CPartnerManager::SendTR, COMDAT
; _this$ = ecx

; 378  : {

  00000	55		 push	 ebp
  00001	8b ec		 mov	 ebp, esp
  00003	6a ff		 push	 -1
  00005	68 00 00 00 00	 push	 __ehhandler$?SendTR@CPartnerManager@@QAEHV?$CStringT@DV?$StrTraitMFC_DLL@DV?$ChTraitsCRT@D@ATL@@@@@ATL@@PADHHH@Z
  0000a	64 a1 00 00 00
	00		 mov	 eax, DWORD PTR fs:0
  00010	50		 push	 eax
  00011	83 ec 20	 sub	 esp, 32			; 00000020H
  00014	a1 00 00 00 00	 mov	 eax, DWORD PTR ___security_cookie
  00019	33 c5		 xor	 eax, ebp
  0001b	89 45 f0	 mov	 DWORD PTR __$ArrayPad$[ebp], eax
  0001e	53		 push	 ebx
  0001f	56		 push	 esi
  00020	57		 push	 edi
  00021	50		 push	 eax
  00022	8d 45 f4	 lea	 eax, DWORD PTR __$EHRec$[ebp]
  00025	64 a3 00 00 00
	00		 mov	 DWORD PTR fs:0, eax
  0002b	89 4d d8	 mov	 DWORD PTR _this$GSCopy$1$[ebp], ecx
  0002e	8b 45 0c	 mov	 eax, DWORD PTR _szData$[ebp]
  00031	89 45 dc	 mov	 DWORD PTR _szData$GSCopy$1$[ebp], eax

; 379  : 	CString strTRData = "";

  00034	68 00 00 00 00	 push	 OFFSET ??_C@_00CNPNBAHC@@
  00039	8d 4d d4	 lea	 ecx, DWORD PTR _strTRData$[ebp]
  0003c	c7 45 fc 00 00
	00 00		 mov	 DWORD PTR __$EHRec$[ebp+8], 0
  00043	ff 15 00 00 00
	00		 call	 DWORD PTR __imp_??0?$CStringT@DV?$StrTraitMFC_DLL@DV?$ChTraitsCRT@D@ATL@@@@@ATL@@QAE@PBD@Z

; 380  : 
; 381  : 	struct _userTH user;
; 382  : 	strncpy(&user.trc[0], strTR, 8);

  00049	6a 08		 push	 8
  0004b	ff 75 08	 push	 DWORD PTR _strTR$[ebp]
  0004e	8d 45 e4	 lea	 eax, DWORD PTR _user$[ebp]
  00051	66 c7 45 ec 00
	00		 mov	 WORD PTR _user$[ebp+8], 0
  00057	0f 57 c0	 xorps	 xmm0, xmm0
  0005a	50		 push	 eax
  0005b	66 0f d6 45 e4	 movq	 QWORD PTR _user$[ebp], xmm0
  00060	ff 15 00 00 00
	00		 call	 DWORD PTR __imp__strncpy

; 383  : 
; 384  : 	//<<20100319_JS.Kim FX TR secondary session .
; 385  : 	//user.path = ssMASTER;
; 386  : //KHD	if( strTR.Left(2) == TRMODE_FX )
; 387  : //		user.path = ssSEC1;
; 388  : //	else
; 389  : //		user.path = ssMASTER;
; 390  : 	//>>
; 391  : 	user.key  = nKey;

  00066	8b 45 14	 mov	 eax, DWORD PTR _nKey$[ebp]

; 392  : 	user.stat = nStat;
; 393  : //KHD	user.size = nLen;
; 394  : 	CString strTest;

  00069	8d 4d e0	 lea	 ecx, DWORD PTR _strTest$[ebp]
  0006c	8b 5d 18	 mov	 ebx, DWORD PTR _nStat$[ebp]
  0006f	83 c4 0c	 add	 esp, 12			; 0000000cH
  00072	88 45 ec	 mov	 BYTE PTR _user$[ebp+8], al
  00075	88 5d ed	 mov	 BYTE PTR _user$[ebp+9], bl
  00078	ff 15 00 00 00
	00		 call	 DWORD PTR __imp_??0?$CStringT@DV?$StrTraitMFC_DLL@DV?$ChTraitsCRT@D@ATL@@@@@ATL@@QAE@XZ

; 395  : 	strTest.Format("KHD : strTR = %s nKey = %d, nStat = %d",strTR, nKey, nStat);

  0007e	53		 push	 ebx
  0007f	ff 75 14	 push	 DWORD PTR _nKey$[ebp]
  00082	8d 45 e0	 lea	 eax, DWORD PTR _strTest$[ebp]
  00085	c6 45 fc 02	 mov	 BYTE PTR __$EHRec$[ebp+8], 2
  00089	ff 75 08	 push	 DWORD PTR _strTR$[ebp]
  0008c	68 00 00 00 00	 push	 OFFSET ??_C@_0CH@EINMAHBK@KHD?5?3?5strTR?5?$DN?5?$CFs?5nKey?5?$DN?5?$CFd?0?5nSt@
  00091	50		 push	 eax
  00092	ff 15 00 00 00
	00		 call	 DWORD PTR __imp_?Format@?$CStringT@DV?$StrTraitMFC_DLL@DV?$ChTraitsCRT@D@ATL@@@@@ATL@@QAAXPBDZZ

; 396  : //	OutputDebugString(strTest);
; 397  : //	strTRData = CString((char*)&user, sizeof(_userTH));
; 398  : //	strTRData += CString(szData, nLen);
; 399  : 	//@100118-alzioyes
; 400  : 	int  nHead = sizeof(_userTH);
; 401  : 	long nSendLen = nHead+nLen;

  00098	8b 75 10	 mov	 esi, DWORD PTR _nLen$[ebp]

; 402  : 	LPBYTE pSendBuffer = new BYTE[nSendLen+1];

  0009b	8d 46 0b	 lea	 eax, DWORD PTR [esi+11]
  0009e	50		 push	 eax
  0009f	e8 00 00 00 00	 call	 ??_U@YAPAXI@Z		; operator new[]

; 403  : 	memcpy(pSendBuffer, (char*)&user, nHead);

  000a4	f3 0f 7e 45 e4	 movq	 xmm0, QWORD PTR _user$[ebp]
  000a9	8b f8		 mov	 edi, eax

; 404  : 	memcpy(pSendBuffer+nHead, szData, nLen);

  000ab	56		 push	 esi
  000ac	ff 75 dc	 push	 DWORD PTR _szData$GSCopy$1$[ebp]
  000af	66 0f d6 07	 movq	 QWORD PTR [edi], xmm0
  000b3	66 8b 4d ec	 mov	 cx, WORD PTR _user$[ebp+8]
  000b7	66 89 4f 08	 mov	 WORD PTR [edi+8], cx
  000bb	8d 4f 0a	 lea	 ecx, DWORD PTR [edi+10]
  000be	51		 push	 ecx
  000bf	e8 00 00 00 00	 call	 _memcpy
  000c4	83 c4 24	 add	 esp, 36			; 00000024H

; 405  : 	pSendBuffer[nSendLen]=NULL;
; 406  : 
; 407  : // 	CString szDebug;
; 408  : // 	szDebug.Format("[DRCS]CPartnerManager::SendTR %s(%d)", strTR, nLen);
; 409  : // 	OutputDebugString(szDebug);
; 410  : 
; 411  : 	//BOOL bRet = ::SendMessage(m_hSenComm, WM_USER, MAKEWPARAM(invokeTRx, nLen), (LPARAM)(const char*)strTRData);
; 412  : 	BOOL bRet = ::SendMessage(m_hSenComm, WM_USER, MAKEWPARAM(invokeTRx, nLen), (LPARAM)(const char*)pSendBuffer);

  000c7	0f b7 c6	 movzx	 eax, si
  000ca	c1 e0 10	 shl	 eax, 16			; 00000010H
  000cd	83 c8 02	 or	 eax, 2
  000d0	c6 44 37 0a 00	 mov	 BYTE PTR [edi+esi+10], 0
  000d5	57		 push	 edi
  000d6	50		 push	 eax
  000d7	8b 45 d8	 mov	 eax, DWORD PTR _this$GSCopy$1$[ebp]
  000da	68 00 04 00 00	 push	 1024			; 00000400H
  000df	ff 70 1c	 push	 DWORD PTR [eax+28]
  000e2	ff 15 00 00 00
	00		 call	 DWORD PTR __imp__SendMessageA@16

; 413  : 	delete [] pSendBuffer;

  000e8	57		 push	 edi
  000e9	8b f0		 mov	 esi, eax
  000eb	e8 00 00 00 00	 call	 ??_V@YAXPAX@Z		; operator delete[]
  000f0	83 c4 04	 add	 esp, 4

; 414  : 
; 415  : 	return bRet;

  000f3	8d 4d e0	 lea	 ecx, DWORD PTR _strTest$[ebp]
  000f6	ff 15 00 00 00
	00		 call	 DWORD PTR __imp_??1?$CStringT@DV?$StrTraitMFC_DLL@DV?$ChTraitsCRT@D@ATL@@@@@ATL@@QAE@XZ
  000fc	8d 4d d4	 lea	 ecx, DWORD PTR _strTRData$[ebp]
  000ff	ff 15 00 00 00
	00		 call	 DWORD PTR __imp_??1?$CStringT@DV?$StrTraitMFC_DLL@DV?$ChTraitsCRT@D@ATL@@@@@ATL@@QAE@XZ
  00105	8d 4d 08	 lea	 ecx, DWORD PTR _strTR$[ebp]
  00108	ff 15 00 00 00
	00		 call	 DWORD PTR __imp_??1?$CStringT@DV?$StrTraitMFC_DLL@DV?$ChTraitsCRT@D@ATL@@@@@ATL@@QAE@XZ
  0010e	8b c6		 mov	 eax, esi

; 416  : }

  00110	8b 4d f4	 mov	 ecx, DWORD PTR __$EHRec$[ebp]
  00113	64 89 0d 00 00
	00 00		 mov	 DWORD PTR fs:0, ecx
  0011a	59		 pop	 ecx
  0011b	5f		 pop	 edi
  0011c	5e		 pop	 esi
  0011d	5b		 pop	 ebx
  0011e	8b 4d f0	 mov	 ecx, DWORD PTR __$ArrayPad$[ebp]
  00121	33 cd		 xor	 ecx, ebp
  00123	e8 00 00 00 00	 call	 @__security_check_cookie@4
  00128	8b e5		 mov	 esp, ebp
  0012a	5d		 pop	 ebp
  0012b	c2 14 00	 ret	 20			; 00000014H
_TEXT	ENDS
;	COMDAT text$x
text$x	SEGMENT
__unwindfunclet$?SendTR@CPartnerManager@@QAEHV?$CStringT@DV?$StrTraitMFC_DLL@DV?$ChTraitsCRT@D@ATL@@@@@ATL@@PADHHH@Z$0:
  00000	8d 4d 08	 lea	 ecx, DWORD PTR _strTR$[ebp]
  00003	ff 25 00 00 00
	00		 jmp	 DWORD PTR __imp_??1?$CStringT@DV?$StrTraitMFC_DLL@DV?$ChTraitsCRT@D@ATL@@@@@ATL@@QAE@XZ
__unwindfunclet$?SendTR@CPartnerManager@@QAEHV?$CStringT@DV?$StrTraitMFC_DLL@DV?$ChTraitsCRT@D@ATL@@@@@ATL@@PADHHH@Z$1:
  00009	8d 4d d4	 lea	 ecx, DWORD PTR _strTRData$[ebp]
  0000c	ff 25 00 00 00
	00		 jmp	 DWORD PTR __imp_??1?$CStringT@DV?$StrTraitMFC_DLL@DV?$ChTraitsCRT@D@ATL@@@@@ATL@@QAE@XZ
__unwindfunclet$?SendTR@CPartnerManager@@QAEHV?$CStringT@DV?$StrTraitMFC_DLL@DV?$ChTraitsCRT@D@ATL@@@@@ATL@@PADHHH@Z$2:
  00012	8d 4d e0	 lea	 ecx, DWORD PTR _strTest$[ebp]
  00015	ff 25 00 00 00
	00		 jmp	 DWORD PTR __imp_??1?$CStringT@DV?$StrTraitMFC_DLL@DV?$ChTraitsCRT@D@ATL@@@@@ATL@@QAE@XZ
  0001b	cc		 int	 3
  0001c	cc		 int	 3
  0001d	cc		 int	 3
  0001e	cc		 int	 3
  0001f	cc		 int	 3
__ehhandler$?SendTR@CPartnerManager@@QAEHV?$CStringT@DV?$StrTraitMFC_DLL@DV?$ChTraitsCRT@D@ATL@@@@@ATL@@PADHHH@Z:
  00020	90		 npad	 1
  00021	90		 npad	 1
  00022	8b 54 24 08	 mov	 edx, DWORD PTR [esp+8]
  00026	8d 42 0c	 lea	 eax, DWORD PTR [edx+12]
  00029	8b 4a d0	 mov	 ecx, DWORD PTR [edx-48]
  0002c	33 c8		 xor	 ecx, eax
  0002e	e8 00 00 00 00	 call	 @__security_check_cookie@4
  00033	8b 4a fc	 mov	 ecx, DWORD PTR [edx-4]
  00036	33 c8		 xor	 ecx, eax
  00038	e8 00 00 00 00	 call	 @__security_check_cookie@4
  0003d	b8 00 00 00 00	 mov	 eax, OFFSET __ehfuncinfo$?SendTR@CPartnerManager@@QAEHV?$CStringT@DV?$StrTraitMFC_DLL@DV?$ChTraitsCRT@D@ATL@@@@@ATL@@PADHHH@Z
  00042	e9 00 00 00 00	 jmp	 ___CxxFrameHandler3
text$x	ENDS
?SendTR@CPartnerManager@@QAEHV?$CStringT@DV?$StrTraitMFC_DLL@DV?$ChTraitsCRT@D@ATL@@@@@ATL@@PADHHH@Z ENDP ; CPartnerManager::SendTR
; Function compile flags: /Ogtp
; File D:\git\src\IBK\IBK_DRFN\ProjSrc\SrcDrfn\DrCommon\PartnerMng\_PartnerManager.cpp
;	COMDAT ?SetSendHandle@CPartnerManager@@QAEPAUHWND__@@PAU2@@Z
_TEXT	SEGMENT
_hSend$ = 8						; size = 4
?SetSendHandle@CPartnerManager@@QAEPAUHWND__@@PAU2@@Z PROC ; CPartnerManager::SetSendHandle, COMDAT
; _this$ = ecx

; 74   : {

  00000	55		 push	 ebp
  00001	8b ec		 mov	 ebp, esp

; 75   : 	m_hSenComm = hSend;

  00003	8b 45 08	 mov	 eax, DWORD PTR _hSend$[ebp]
  00006	89 41 1c	 mov	 DWORD PTR [ecx+28], eax

; 76   : 	return m_hSenComm;
; 77   : }

  00009	5d		 pop	 ebp
  0000a	c2 04 00	 ret	 4
?SetSendHandle@CPartnerManager@@QAEPAUHWND__@@PAU2@@Z ENDP ; CPartnerManager::SetSendHandle
_TEXT	ENDS
; Function compile flags: /Ogtp
; File D:\git\src\IBK\IBK_DRFN\ProjSrc\SrcDrfn\DrCommon\PartnerMng\_PartnerManager.cpp
; File C:\Program Files (x86)\Microsoft Visual Studio\2019\Community\VC\Tools\MSVC\14.29.30133\atlmfc\include\afxtempl.h
; File D:\git\src\IBK\IBK_DRFN\ProjSrc\SrcDrfn\DrCommon\PartnerMng\_PartnerManager.cpp
; File C:\Program Files (x86)\Microsoft Visual Studio\2019\Community\VC\Tools\MSVC\14.29.30133\atlmfc\include\afxtempl.h
; File D:\git\src\IBK\IBK_DRFN\ProjSrc\SrcDrfn\DrCommon\PartnerMng\_PartnerManager.cpp
; File C:\Program Files (x86)\Microsoft Visual Studio\2019\Community\VC\Tools\MSVC\14.29.30133\atlmfc\include\afxmt.inl
; File D:\git\src\IBK\IBK_DRFN\ProjSrc\SrcDrfn\DrCommon\PartnerMng\_PartnerManager.cpp
; File C:\Program Files (x86)\Microsoft Visual Studio\2019\Community\VC\Tools\MSVC\14.29.30133\atlmfc\include\afxmt.inl
; File C:\Program Files (x86)\Windows Kits\10\Include\10.0.22000.0\shared\winerror.h
; File C:\Program Files (x86)\Microsoft Visual Studio\2019\Community\VC\Tools\MSVC\14.29.30133\atlmfc\include\afxmt.inl
; File D:\git\src\IBK\IBK_DRFN\ProjSrc\SrcDrfn\DrCommon\PartnerMng\_PartnerManager.cpp
; File C:\Program Files (x86)\Microsoft Visual Studio\2019\Community\VC\Tools\MSVC\14.29.30133\atlmfc\include\afxtempl.h
; File D:\git\src\IBK\IBK_DRFN\ProjSrc\SrcDrfn\DrCommon\PartnerMng\_PartnerManager.cpp
; File C:\Program Files (x86)\Microsoft Visual Studio\2019\Community\VC\Tools\MSVC\14.29.30133\atlmfc\include\afxtempl.h
; File C:\Program Files (x86)\Microsoft Visual Studio\2019\Community\VC\Tools\MSVC\14.29.30133\atlmfc\include\afxmt.inl
; File D:\git\src\IBK\IBK_DRFN\ProjSrc\SrcDrfn\DrCommon\PartnerMng\_PartnerManager.cpp
;	COMDAT ??0CPartnerManager@@QAE@XZ
_TEXT	SEGMENT
_item$ = -36						; size = 16
_this$ = -20						; size = 4
_i$1$ = -16						; size = 4
_this$ = -16						; size = 4
_this$ = -16						; size = 4
__$EHRec$ = -12						; size = 12
??0CPartnerManager@@QAE@XZ PROC				; CPartnerManager::CPartnerManager, COMDAT
; _this$ = ecx

; 58   : {

  00000	55		 push	 ebp
  00001	8b ec		 mov	 ebp, esp
  00003	6a ff		 push	 -1
  00005	68 00 00 00 00	 push	 __ehhandler$??0CPartnerManager@@QAE@XZ
  0000a	64 a1 00 00 00
	00		 mov	 eax, DWORD PTR fs:0
  00010	50		 push	 eax
  00011	83 ec 18	 sub	 esp, 24			; 00000018H
  00014	53		 push	 ebx
  00015	56		 push	 esi
  00016	57		 push	 edi
  00017	a1 00 00 00 00	 mov	 eax, DWORD PTR ___security_cookie
  0001c	33 c5		 xor	 eax, ebp
  0001e	50		 push	 eax
  0001f	8d 45 f4	 lea	 eax, DWORD PTR __$EHRec$[ebp]
  00022	64 a3 00 00 00
	00		 mov	 DWORD PTR fs:0, eax
  00028	8b f9		 mov	 edi, ecx
  0002a	89 7d ec	 mov	 DWORD PTR _this$[ebp], edi
  0002d	c7 07 00 00 00
	00		 mov	 DWORD PTR [edi], OFFSET ??_7CPartnerManager@@6B@
; File C:\Program Files (x86)\Microsoft Visual Studio\2019\Community\VC\Tools\MSVC\14.29.30133\atlmfc\include\afxtempl.h

; 348  : {

  00033	c7 47 04 00 00
	00 00		 mov	 DWORD PTR [edi+4], OFFSET ??_7?$CArray@UFID_SENDDATA@@AAU1@@@6B@

; 349  : 	m_pData = NULL;

  0003a	c7 47 08 00 00
	00 00		 mov	 DWORD PTR [edi+8], 0

; 350  : 	m_nSize = m_nMaxSize = m_nGrowBy = 0;

  00041	c7 47 14 00 00
	00 00		 mov	 DWORD PTR [edi+20], 0
  00048	c7 47 10 00 00
	00 00		 mov	 DWORD PTR [edi+16], 0
  0004f	c7 47 0c 00 00
	00 00		 mov	 DWORD PTR [edi+12], 0
; File D:\git\src\IBK\IBK_DRFN\ProjSrc\SrcDrfn\DrCommon\PartnerMng\_PartnerManager.cpp

; 58   : {

  00056	8d 4f 24	 lea	 ecx, DWORD PTR [edi+36]
  00059	c7 45 fc 00 00
	00 00		 mov	 DWORD PTR __$EHRec$[ebp+8], 0
  00060	e8 00 00 00 00	 call	 ??0CDataConverter@@QAE@XZ ; CDataConverter::CDataConverter
; File C:\Program Files (x86)\Microsoft Visual Studio\2019\Community\VC\Tools\MSVC\14.29.30133\atlmfc\include\afxtempl.h

; 1403 : {

  00065	c7 87 d0 0f 00
	00 00 00 00 00	 mov	 DWORD PTR [edi+4048], OFFSET ??_7?$CMap@V?$CStringT@DV?$StrTraitMFC_DLL@DV?$ChTraitsCRT@D@ATL@@@@@ATL@@PBDHH@@6B@

; 1404 : 	ASSERT(nBlockSize > 0);
; 1405 : 
; 1406 : 	m_pHashTable = NULL;

  0006f	c7 87 d4 0f 00
	00 00 00 00 00	 mov	 DWORD PTR [edi+4052], 0

; 1407 : 	m_nHashTableSize = 17;  // default size

  00079	c7 87 d8 0f 00
	00 11 00 00 00	 mov	 DWORD PTR [edi+4056], 17 ; 00000011H

; 1408 : 	m_nCount = 0;

  00083	c7 87 dc 0f 00
	00 00 00 00 00	 mov	 DWORD PTR [edi+4060], 0

; 1409 : 	m_pFreeList = NULL;

  0008d	c7 87 e0 0f 00
	00 00 00 00 00	 mov	 DWORD PTR [edi+4064], 0

; 1410 : 	m_pBlocks = NULL;

  00097	c7 87 e4 0f 00
	00 00 00 00 00	 mov	 DWORD PTR [edi+4068], 0

; 1411 : 	m_nBlockSize = nBlockSize;

  000a1	c7 87 e8 0f 00
	00 0a 00 00 00	 mov	 DWORD PTR [edi+4072], 10 ; 0000000aH
; File D:\git\src\IBK\IBK_DRFN\ProjSrc\SrcDrfn\DrCommon\PartnerMng\_PartnerManager.cpp

; 58   : {

  000ab	68 9a 00 00 00	 push	 154			; 0000009aH
  000b0	8d 87 ec 0f 00
	00		 lea	 eax, DWORD PTR [edi+4076]
  000b6	c6 45 fc 02	 mov	 BYTE PTR __$EHRec$[ebp+8], 2
  000ba	6a 00		 push	 0
  000bc	50		 push	 eax
  000bd	e8 00 00 00 00	 call	 _memset
  000c2	83 c4 0c	 add	 esp, 12			; 0000000cH
  000c5	8d b7 20 11 00
	00		 lea	 esi, DWORD PTR [edi+4384]
; File C:\Program Files (x86)\Microsoft Visual Studio\2019\Community\VC\Tools\MSVC\14.29.30133\atlmfc\include\afxmt.inl

; 89   : _AFXMT_INLINE ::CCriticalSection::CCriticalSection() : CSyncObject(NULL)

  000cb	8b ce		 mov	 ecx, esi
; File D:\git\src\IBK\IBK_DRFN\ProjSrc\SrcDrfn\DrCommon\PartnerMng\_PartnerManager.cpp

; 58   : {

  000cd	89 75 f0	 mov	 DWORD PTR _this$[ebp], esi
; File C:\Program Files (x86)\Microsoft Visual Studio\2019\Community\VC\Tools\MSVC\14.29.30133\atlmfc\include\afxmt.inl

; 89   : _AFXMT_INLINE ::CCriticalSection::CCriticalSection() : CSyncObject(NULL)

  000d0	6a 00		 push	 0
  000d2	e8 00 00 00 00	 call	 ??0CSyncObject@@QAE@PBD@Z ; CSyncObject::CSyncObject

; 81   : 	if (!InitializeCriticalSectionAndSpinCount(&m_sect, 0))

  000d7	6a 00		 push	 0
  000d9	8d 46 08	 lea	 eax, DWORD PTR [esi+8]

; 89   : _AFXMT_INLINE ::CCriticalSection::CCriticalSection() : CSyncObject(NULL)

  000dc	c6 45 fc 03	 mov	 BYTE PTR __$EHRec$[ebp+8], 3

; 81   : 	if (!InitializeCriticalSectionAndSpinCount(&m_sect, 0))

  000e0	50		 push	 eax

; 90   : { 		

  000e1	c7 06 00 00 00
	00		 mov	 DWORD PTR [esi], OFFSET ??_7CCriticalSection@@6B@

; 81   : 	if (!InitializeCriticalSectionAndSpinCount(&m_sect, 0))

  000e7	ff 15 00 00 00
	00		 call	 DWORD PTR __imp__InitializeCriticalSectionAndSpinCount@8
  000ed	85 c0		 test	 eax, eax
  000ef	75 1a		 jne	 SHORT $LN22@CPartnerMa

; 82   : 	{
; 83   : 		return HRESULT_FROM_WIN32(GetLastError());

  000f1	ff 15 00 00 00
	00		 call	 DWORD PTR __imp__GetLastError@0
; File C:\Program Files (x86)\Windows Kits\10\Include\10.0.22000.0\shared\winerror.h

; 29673: FORCEINLINE _Translates_Win32_to_HRESULT_(x) HRESULT HRESULT_FROM_WIN32(unsigned long x) { return (HRESULT)(x) <= 0 ? (HRESULT)(x) : (HRESULT) (((x) & 0x0000FFFF) | (FACILITY_WIN32 << 16) | 0x80000000);}

  000f7	85 c0		 test	 eax, eax
  000f9	7e 0a		 jle	 SHORT $LN62@CPartnerMa
  000fb	0f b7 c0	 movzx	 eax, ax
  000fe	0d 00 00 07 80	 or	 eax, -2147024896	; 80070000H
; File C:\Program Files (x86)\Microsoft Visual Studio\2019\Community\VC\Tools\MSVC\14.29.30133\atlmfc\include\afxmt.inl

; 93   : 	if (FAILED(hr))

  00103	85 c0		 test	 eax, eax
$LN62@CPartnerMa:
  00105	0f 88 b6 00 00
	00		 js	 $LN64@CPartnerMa
$LN22@CPartnerMa:
; File D:\git\src\IBK\IBK_DRFN\ProjSrc\SrcDrfn\DrCommon\PartnerMng\_PartnerManager.cpp

; 58   : {

  0010b	8d 8f 44 11 00
	00		 lea	 ecx, DWORD PTR [edi+4420]
  00111	c6 45 fc 04	 mov	 BYTE PTR __$EHRec$[ebp+8], 4
  00115	6a 0a		 push	 10			; 0000000aH
  00117	89 4d f0	 mov	 DWORD PTR _this$[ebp], ecx
  0011a	e8 00 00 00 00	 call	 ??0CStringList@@QAE@H@Z	; CStringList::CStringList
  0011f	8d 4d dc	 lea	 ecx, DWORD PTR _item$[ebp]

; 59   : 	m_hSenComm = NULL;

  00122	c7 47 1c 00 00
	00 00		 mov	 DWORD PTR [edi+28], 0

; 60   : 	m_pPtSite = NULL;

  00129	c7 47 20 00 00
	00 00		 mov	 DWORD PTR [edi+32], 0

; 61   : 	m_pMasterDataMng = NULL;

  00130	c7 47 18 00 00
	00 00		 mov	 DWORD PTR [edi+24], 0
  00137	ff 15 00 00 00
	00		 call	 DWORD PTR __imp_??0?$CStringT@DV?$StrTraitMFC_DLL@DV?$ChTraitsCRT@D@ATL@@@@@ATL@@QAE@XZ

; 62   : 
; 63   : 	//gDebugMng = (IDebugManagerLast*)AfxGetPctrInterface(UUID_IDebugManager);
; 64   : 
; 65   : 	FID_SENDDATA item;

  0013d	c6 45 fc 06	 mov	 BYTE PTR __$EHRec$[ebp+8], 6

; 66   : 	item.hWnd = NULL;

  00141	c7 45 e8 00 00
	00 00		 mov	 DWORD PTR _item$[ebp+12], 0

; 67   : 	for (int i=TRKEY_VIRT_START; i<TRKEY_VIRT_END; i++)

  00148	c7 45 f0 47 00
	00 00		 mov	 DWORD PTR _i$1$[ebp], 71 ; 00000047H
  0014f	90		 npad	 1
$LL4@CPartnerMa:
; File C:\Program Files (x86)\Microsoft Visual Studio\2019\Community\VC\Tools\MSVC\14.29.30133\atlmfc\include\afxtempl.h

; 333  : 	{ INT_PTR nIndex = m_nSize;

  00150	8b 77 0c	 mov	 esi, DWORD PTR [edi+12]

; 538  : 	if(nIndex < 0)

  00153	85 f6		 test	 esi, esi
  00155	78 65		 js	 SHORT $LN53@CPartnerMa

; 540  : 
; 541  : 	if (nIndex >= m_nSize)
; 542  : 		SetSize(nIndex+1, -1);

  00157	6a ff		 push	 -1
  00159	8d 46 01	 lea	 eax, DWORD PTR [esi+1]
  0015c	50		 push	 eax
  0015d	8d 4f 04	 lea	 ecx, DWORD PTR [edi+4]
  00160	e8 00 00 00 00	 call	 ?SetSize@?$CArray@UFID_SENDDATA@@AAU1@@@QAEXHH@Z ; CArray<FID_SENDDATA,FID_SENDDATA &>::SetSize

; 543  : 	m_pData[nIndex] = newElement;

  00165	c1 e6 04	 shl	 esi, 4
  00168	8d 45 dc	 lea	 eax, DWORD PTR _item$[ebp]
  0016b	03 77 08	 add	 esi, DWORD PTR [edi+8]
  0016e	50		 push	 eax
  0016f	8b ce		 mov	 ecx, esi
  00171	ff 15 00 00 00
	00		 call	 DWORD PTR __imp_??4?$CStringT@DV?$StrTraitMFC_DLL@DV?$ChTraitsCRT@D@ATL@@@@@ATL@@QAEAAV01@ABV01@@Z
  00177	8b 45 e0	 mov	 eax, DWORD PTR _item$[ebp+4]
  0017a	89 46 04	 mov	 DWORD PTR [esi+4], eax
  0017d	8b 45 e4	 mov	 eax, DWORD PTR _item$[ebp+8]
  00180	89 46 08	 mov	 DWORD PTR [esi+8], eax
  00183	8b 45 e8	 mov	 eax, DWORD PTR _item$[ebp+12]
  00186	89 46 0c	 mov	 DWORD PTR [esi+12], eax
; File D:\git\src\IBK\IBK_DRFN\ProjSrc\SrcDrfn\DrCommon\PartnerMng\_PartnerManager.cpp

; 67   : 	for (int i=TRKEY_VIRT_START; i<TRKEY_VIRT_END; i++)

  00189	8b 45 f0	 mov	 eax, DWORD PTR _i$1$[ebp]
  0018c	40		 inc	 eax
  0018d	89 45 f0	 mov	 DWORD PTR _i$1$[ebp], eax
  00190	83 f8 50	 cmp	 eax, 80			; 00000050H
  00193	7c bb		 jl	 SHORT $LL4@CPartnerMa

; 68   : 		m_arrSend.Add(item);
; 69   : 
; 70   : 	m_bUseRegisterCodeMng = FALSE;

  00195	8d 4d dc	 lea	 ecx, DWORD PTR _item$[ebp]
  00198	c7 87 40 11 00
	00 00 00 00 00	 mov	 DWORD PTR [edi+4416], 0
  001a2	ff 15 00 00 00
	00		 call	 DWORD PTR __imp_??1?$CStringT@DV?$StrTraitMFC_DLL@DV?$ChTraitsCRT@D@ATL@@@@@ATL@@QAE@XZ

; 71   : }

  001a8	8b c7		 mov	 eax, edi
  001aa	8b 4d f4	 mov	 ecx, DWORD PTR __$EHRec$[ebp]
  001ad	64 89 0d 00 00
	00 00		 mov	 DWORD PTR fs:0, ecx
  001b4	59		 pop	 ecx
  001b5	5f		 pop	 edi
  001b6	5e		 pop	 esi
  001b7	5b		 pop	 ebx
  001b8	8b e5		 mov	 esp, ebp
  001ba	5d		 pop	 ebp
  001bb	c3		 ret	 0
$LN53@CPartnerMa:
; File C:\Program Files (x86)\Microsoft Visual Studio\2019\Community\VC\Tools\MSVC\14.29.30133\atlmfc\include\afxtempl.h

; 539  : 		AfxThrowInvalidArgException();

  001bc	e8 00 00 00 00	 call	 ?AfxThrowInvalidArgException@@YGXXZ ; AfxThrowInvalidArgException
$LN64@CPartnerMa:
; File C:\Program Files (x86)\Microsoft Visual Studio\2019\Community\VC\Tools\MSVC\14.29.30133\atlmfc\include\afxmt.inl

; 95   : 		AtlThrow(hr);

  001c1	50		 push	 eax
  001c2	e8 00 00 00 00	 call	 ?AtlThrowImpl@ATL@@YGXJ@Z ; ATL::AtlThrowImpl
$LN61@CPartnerMa:
  001c7	cc		 int	 3
_TEXT	ENDS
;	COMDAT text$x
text$x	SEGMENT
__unwindfunclet$??0CPartnerManager@@QAE@XZ$0:
  00000	8b 4d ec	 mov	 ecx, DWORD PTR _this$[ebp]
  00003	83 c1 04	 add	 ecx, 4
  00006	e9 00 00 00 00	 jmp	 ??1?$CArray@UFID_SENDDATA@@AAU1@@@UAE@XZ ; CArray<FID_SENDDATA,FID_SENDDATA &>::~CArray<FID_SENDDATA,FID_SENDDATA &>
__unwindfunclet$??0CPartnerManager@@QAE@XZ$1:
  0000b	8b 4d ec	 mov	 ecx, DWORD PTR _this$[ebp]
  0000e	83 c1 24	 add	 ecx, 36			; 00000024H
  00011	e9 00 00 00 00	 jmp	 ??1CDataConverter@@UAE@XZ ; CDataConverter::~CDataConverter
__unwindfunclet$??0CPartnerManager@@QAE@XZ$2:
  00016	8b 4d ec	 mov	 ecx, DWORD PTR _this$[ebp]
  00019	81 c1 d0 0f 00
	00		 add	 ecx, 4048		; 00000fd0H
  0001f	e9 00 00 00 00	 jmp	 ??1?$CMap@V?$CStringT@DV?$StrTraitMFC_DLL@DV?$ChTraitsCRT@D@ATL@@@@@ATL@@PBDHH@@UAE@XZ ; CMap<ATL::CStringT<char,StrTraitMFC_DLL<char,ATL::ChTraitsCRT<char> > >,char const *,int,int>::~CMap<ATL::CStringT<char,StrTraitMFC_DLL<char,ATL::ChTraitsCRT<char> > >,char const *,int,int>
__unwindfunclet$??0CPartnerManager@@QAE@XZ$6:
  00024	8b 4d f0	 mov	 ecx, DWORD PTR _this$[ebp]
  00027	e9 00 00 00 00	 jmp	 ??1CSyncObject@@UAE@XZ	; CSyncObject::~CSyncObject
__unwindfunclet$??0CPartnerManager@@QAE@XZ$3:
  0002c	8b 4d ec	 mov	 ecx, DWORD PTR _this$[ebp]
  0002f	81 c1 20 11 00
	00		 add	 ecx, 4384		; 00001120H
  00035	e9 00 00 00 00	 jmp	 ??1CCriticalSection@@UAE@XZ ; CCriticalSection::~CCriticalSection
__unwindfunclet$??0CPartnerManager@@QAE@XZ$4:
  0003a	8b 4d ec	 mov	 ecx, DWORD PTR _this$[ebp]
  0003d	81 c1 44 11 00
	00		 add	 ecx, 4420		; 00001144H
  00043	e9 00 00 00 00	 jmp	 ??1CRegisterCodeMng@@QAE@XZ ; CRegisterCodeMng::~CRegisterCodeMng
__unwindfunclet$??0CPartnerManager@@QAE@XZ$5:
  00048	8d 4d dc	 lea	 ecx, DWORD PTR _item$[ebp]
  0004b	e9 00 00 00 00	 jmp	 ??1FID_SENDDATA@@QAE@XZ
  00050	cc		 int	 3
  00051	cc		 int	 3
  00052	cc		 int	 3
  00053	cc		 int	 3
  00054	cc		 int	 3
__ehhandler$??0CPartnerManager@@QAE@XZ:
  00055	90		 npad	 1
  00056	90		 npad	 1
  00057	8b 54 24 08	 mov	 edx, DWORD PTR [esp+8]
  0005b	8d 42 0c	 lea	 eax, DWORD PTR [edx+12]
  0005e	8b 4a d8	 mov	 ecx, DWORD PTR [edx-40]
  00061	33 c8		 xor	 ecx, eax
  00063	e8 00 00 00 00	 call	 @__security_check_cookie@4
  00068	b8 00 00 00 00	 mov	 eax, OFFSET __ehfuncinfo$??0CPartnerManager@@QAE@XZ
  0006d	e9 00 00 00 00	 jmp	 ___CxxFrameHandler3
text$x	ENDS
??0CPartnerManager@@QAE@XZ ENDP				; CPartnerManager::CPartnerManager
; Function compile flags: /Ogtp
; File D:\git\src\IBK\IBK_DRFN\ProjSrc\SrcDrfn\DrCommon\PartnerMng\_PartnerManager.cpp
; File C:\Program Files (x86)\Microsoft Visual Studio\2019\Community\VC\Tools\MSVC\14.29.30133\atlmfc\include\cstringt.h
; File D:\git\src\IBK\IBK_DRFN\ProjSrc\SrcDrfn\DrCommon\PartnerMng\_PartnerManager.cpp
; File C:\Program Files (x86)\Microsoft Visual Studio\2019\Community\VC\Tools\MSVC\14.29.30133\atlmfc\include\cstringt.h
; File D:\git\src\IBK\IBK_DRFN\ProjSrc\SrcDrfn\DrCommon\PartnerMng\_PartnerManager.cpp
;	COMDAT ?IsRegisterCode@CPartnerManager@@UAGHPBD@Z
_TEXT	SEGMENT
$T1 = -8						; size = 4
$T2 = -8						; size = 4
$T3 = -8						; size = 4
_rCode$4 = -4						; size = 4
$T5 = -4						; size = 4
_strCode$6 = 8						; size = 4
_this$ = 8						; size = 4
$T7 = 11						; size = 1
_strCode$ = 12						; size = 4
_szCode$ = 12						; size = 4
?IsRegisterCode@CPartnerManager@@UAGHPBD@Z PROC		; CPartnerManager::IsRegisterCode, COMDAT

; 1137 : {

  00000	55		 push	 ebp
  00001	8b ec		 mov	 ebp, esp
  00003	83 ec 08	 sub	 esp, 8
  00006	53		 push	 ebx
  00007	33 db		 xor	 ebx, ebx
  00009	89 5d f8	 mov	 DWORD PTR $T1[ebp], ebx
  0000c	57		 push	 edi

; 1138 : 	//   TRUE.
; 1139 : 	if(!m_bUseRegisterCodeMng) return TRUE;

  0000d	8b 7d 08	 mov	 edi, DWORD PTR _this$[ebp]
  00010	39 9f 40 11 00
	00		 cmp	 DWORD PTR [edi+4416], ebx
  00016	75 0b		 jne	 SHORT $LN2@IsRegister
  00018	5f		 pop	 edi
  00019	8d 43 01	 lea	 eax, DWORD PTR [ebx+1]

; 1183 : }

  0001c	5b		 pop	 ebx
  0001d	8b e5		 mov	 esp, ebp
  0001f	5d		 pop	 ebp
  00020	c2 08 00	 ret	 8
$LN2@IsRegister:
  00023	56		 push	 esi

; 1140 : 	//return (BOOL)m_RegisterCodeMng.FindCode(szCode);
; 1141 : 
; 1142 : 	//100614-alzioyes.test
; 1143 : 	//BOOL bRet = (BOOL)m_RegisterCodeMng.FindCode(szCode);
; 1144 : 	BOOL bRet;
; 1145 : 	CString strCode = szCode;

  00024	8b 75 0c	 mov	 esi, DWORD PTR _szCode$[ebp]
  00027	8d 4d 0c	 lea	 ecx, DWORD PTR _strCode$[ebp]
  0002a	56		 push	 esi
  0002b	ff 15 00 00 00
	00		 call	 DWORD PTR __imp_??0?$CStringT@DV?$StrTraitMFC_DLL@DV?$ChTraitsCRT@D@ATL@@@@@ATL@@QAE@PBD@Z

; 1146 : 	if(szCode[0]=='K' && strlen(szCode)==5 )

  00031	80 3e 4b	 cmp	 BYTE PTR [esi], 75	; 0000004bH
  00034	75 1c		 jne	 SHORT $LN3@IsRegister
  00036	8b ce		 mov	 ecx, esi
  00038	8d 51 01	 lea	 edx, DWORD PTR [ecx+1]
  0003b	0f 1f 44 00 00	 npad	 5
$LL37@IsRegister:
  00040	8a 01		 mov	 al, BYTE PTR [ecx]
  00042	41		 inc	 ecx
  00043	84 c0		 test	 al, al
  00045	75 f9		 jne	 SHORT $LL37@IsRegister
  00047	2b ca		 sub	 ecx, edx
  00049	83 f9 05	 cmp	 ecx, 5
  0004c	0f 84 86 00 00
	00		 je	 $LN40@IsRegister
$LN3@IsRegister:

; 1161 : 	else if( strCode.GetLength() > 2 && (strCode.Left(2) == "ET" || strCode.Left(2) == "ST" ) )

  00052	8b 45 0c	 mov	 eax, DWORD PTR _strCode$[ebp]
  00055	83 78 f4 02	 cmp	 DWORD PTR [eax-12], 2
  00059	7e 50		 jle	 SHORT $LN11@IsRegister
  0005b	6a 02		 push	 2
  0005d	8d 45 fc	 lea	 eax, DWORD PTR $T5[ebp]
  00060	50		 push	 eax
  00061	8d 4d 0c	 lea	 ecx, DWORD PTR _strCode$[ebp]
  00064	ff 15 00 00 00
	00		 call	 DWORD PTR __imp_?Left@?$CStringT@DV?$StrTraitMFC_DLL@DV?$ChTraitsCRT@D@ATL@@@@@ATL@@QBE?AV12@H@Z
; File C:\Program Files (x86)\Microsoft Visual Studio\2019\Community\VC\Tools\MSVC\14.29.30133\atlmfc\include\cstringt.h

; 2486 : 		return(str1.Compare(psz2) == 0);

  0006a	68 00 00 00 00	 push	 OFFSET ??_C@_02KIDIPBJG@ET@
  0006f	8b c8		 mov	 ecx, eax
  00071	bb 01 00 00 00	 mov	 ebx, 1
  00076	ff 15 00 00 00
	00		 call	 DWORD PTR __imp_?Compare@?$CStringT@DV?$StrTraitMFC_DLL@DV?$ChTraitsCRT@D@ATL@@@@@ATL@@QBEHPBD@Z
  0007c	85 c0		 test	 eax, eax
; File D:\git\src\IBK\IBK_DRFN\ProjSrc\SrcDrfn\DrCommon\PartnerMng\_PartnerManager.cpp

; 1161 : 	else if( strCode.GetLength() > 2 && (strCode.Left(2) == "ET" || strCode.Left(2) == "ST" ) )

  0007e	74 25		 je	 SHORT $LN10@IsRegister
  00080	6a 02		 push	 2
  00082	8d 45 f8	 lea	 eax, DWORD PTR $T3[ebp]
  00085	50		 push	 eax
  00086	8d 4d 0c	 lea	 ecx, DWORD PTR _strCode$[ebp]
  00089	ff 15 00 00 00
	00		 call	 DWORD PTR __imp_?Left@?$CStringT@DV?$StrTraitMFC_DLL@DV?$ChTraitsCRT@D@ATL@@@@@ATL@@QBE?AV12@H@Z
; File C:\Program Files (x86)\Microsoft Visual Studio\2019\Community\VC\Tools\MSVC\14.29.30133\atlmfc\include\cstringt.h

; 2486 : 		return(str1.Compare(psz2) == 0);

  0008f	68 00 00 00 00	 push	 OFFSET ??_C@_02LAJDCOFE@ST@
  00094	8b c8		 mov	 ecx, eax
  00096	bb 03 00 00 00	 mov	 ebx, 3
  0009b	ff 15 00 00 00
	00		 call	 DWORD PTR __imp_?Compare@?$CStringT@DV?$StrTraitMFC_DLL@DV?$ChTraitsCRT@D@ATL@@@@@ATL@@QBEHPBD@Z
  000a1	85 c0		 test	 eax, eax
; File D:\git\src\IBK\IBK_DRFN\ProjSrc\SrcDrfn\DrCommon\PartnerMng\_PartnerManager.cpp

; 1161 : 	else if( strCode.GetLength() > 2 && (strCode.Left(2) == "ET" || strCode.Left(2) == "ST" ) )

  000a3	75 06		 jne	 SHORT $LN11@IsRegister
$LN10@IsRegister:
  000a5	c6 45 0b 01	 mov	 BYTE PTR $T7[ebp], 1
  000a9	eb 04		 jmp	 SHORT $LN12@IsRegister
$LN11@IsRegister:
  000ab	c6 45 0b 00	 mov	 BYTE PTR $T7[ebp], 0
$LN12@IsRegister:
  000af	f6 c3 02	 test	 bl, 2
  000b2	74 0c		 je	 SHORT $LN13@IsRegister
  000b4	8d 4d f8	 lea	 ecx, DWORD PTR $T3[ebp]
  000b7	83 e3 fd	 and	 ebx, -3			; fffffffdH
  000ba	ff 15 00 00 00
	00		 call	 DWORD PTR __imp_??1?$CStringT@DV?$StrTraitMFC_DLL@DV?$ChTraitsCRT@D@ATL@@@@@ATL@@QAE@XZ
$LN13@IsRegister:
  000c0	f6 c3 01	 test	 bl, 1
  000c3	74 09		 je	 SHORT $LN14@IsRegister
  000c5	8d 4d fc	 lea	 ecx, DWORD PTR $T5[ebp]
  000c8	ff 15 00 00 00
	00		 call	 DWORD PTR __imp_??1?$CStringT@DV?$StrTraitMFC_DLL@DV?$ChTraitsCRT@D@ATL@@@@@ATL@@QAE@XZ
$LN14@IsRegister:
  000ce	80 7d 0b 00	 cmp	 BYTE PTR $T7[ebp], 0
  000d2	0f 84 8f 00 00
	00		 je	 $LN6@IsRegister
$LN40@IsRegister:

; 1162 : 	{
; 1163 : 		CString strCode(szCode), rCode;
; 1164 : 		strCode = strCode.Mid(1);
; 1165 : 		if(theApp.m_PtUtilMng.GetSiteUpKode(strCode, rCode))
; 1166 : 			strCode = rCode;
; 1167 : 		
; 1168 : 		bRet = (BOOL)m_RegisterCodeMng.FindCode(strCode);
; 1169 : 	}
; 1170 : 	else
; 1171 : 	{
; 1172 : 		bRet = (BOOL)m_RegisterCodeMng.FindCode(szCode);
; 1173 : 	}
; 1174 : 
; 1175 : 	//100614-alzioyes.test
; 1176 : // 	if(!bRet)
; 1177 : // 	{
; 1178 : // 		CString szDebug;
; 1179 : // 		szDebug.Format("%s -> skip \n", szCode);
; 1180 : // 		OutputDebugString(szDebug);
; 1181 : // 	}
; 1182 : 	return bRet;

  000d8	56		 push	 esi
  000d9	8d 4d 08	 lea	 ecx, DWORD PTR _strCode$6[ebp]
  000dc	ff 15 00 00 00
	00		 call	 DWORD PTR __imp_??0?$CStringT@DV?$StrTraitMFC_DLL@DV?$ChTraitsCRT@D@ATL@@@@@ATL@@QAE@PBD@Z
  000e2	8d 4d fc	 lea	 ecx, DWORD PTR _rCode$4[ebp]
  000e5	ff 15 00 00 00
	00		 call	 DWORD PTR __imp_??0?$CStringT@DV?$StrTraitMFC_DLL@DV?$ChTraitsCRT@D@ATL@@@@@ATL@@QAE@XZ
  000eb	6a 01		 push	 1
  000ed	8d 45 f8	 lea	 eax, DWORD PTR $T2[ebp]
  000f0	50		 push	 eax
  000f1	8d 4d 08	 lea	 ecx, DWORD PTR _strCode$6[ebp]
  000f4	ff 15 00 00 00
	00		 call	 DWORD PTR __imp_?Mid@?$CStringT@DV?$StrTraitMFC_DLL@DV?$ChTraitsCRT@D@ATL@@@@@ATL@@QBE?AV12@H@Z
  000fa	50		 push	 eax
  000fb	8d 4d 08	 lea	 ecx, DWORD PTR _strCode$6[ebp]
  000fe	ff 15 00 00 00
	00		 call	 DWORD PTR __imp_??4?$CStringT@DV?$StrTraitMFC_DLL@DV?$ChTraitsCRT@D@ATL@@@@@ATL@@QAEAAV01@ABV01@@Z
  00104	8d 4d f8	 lea	 ecx, DWORD PTR $T2[ebp]
  00107	ff 15 00 00 00
	00		 call	 DWORD PTR __imp_??1?$CStringT@DV?$StrTraitMFC_DLL@DV?$ChTraitsCRT@D@ATL@@@@@ATL@@QAE@XZ
  0010d	8d 45 fc	 lea	 eax, DWORD PTR _rCode$4[ebp]
  00110	b9 34 01 00 00	 mov	 ecx, OFFSET ?theApp@@3VCPartnerMngApp@@A+308
  00115	50		 push	 eax
  00116	ff 75 08	 push	 DWORD PTR _strCode$6[ebp]
  00119	e8 00 00 00 00	 call	 ?GetSiteUpKode@CPartnerUtilManager@@QAEHPBDAAV?$CStringT@DV?$StrTraitMFC_DLL@DV?$ChTraitsCRT@D@ATL@@@@@ATL@@@Z ; CPartnerUtilManager::GetSiteUpKode
  0011e	85 c0		 test	 eax, eax
  00120	74 0d		 je	 SHORT $LN8@IsRegister
  00122	8d 45 fc	 lea	 eax, DWORD PTR _rCode$4[ebp]
  00125	50		 push	 eax
  00126	8d 4d 08	 lea	 ecx, DWORD PTR _strCode$6[ebp]
  00129	ff 15 00 00 00
	00		 call	 DWORD PTR __imp_??4?$CStringT@DV?$StrTraitMFC_DLL@DV?$ChTraitsCRT@D@ATL@@@@@ATL@@QAEAAV01@ABV01@@Z
$LN8@IsRegister:
  0012f	6a 00		 push	 0
  00131	ff 75 08	 push	 DWORD PTR _strCode$6[ebp]
  00134	8d 8f 44 11 00
	00		 lea	 ecx, DWORD PTR [edi+4420]
  0013a	e8 00 00 00 00	 call	 ?Find@CStringList@@QBEPAU__POSITION@@PBDPAU2@@Z ; CStringList::Find
  0013f	8d 4d fc	 lea	 ecx, DWORD PTR _rCode$4[ebp]
  00142	8b f0		 mov	 esi, eax
  00144	ff 15 00 00 00
	00		 call	 DWORD PTR __imp_??1?$CStringT@DV?$StrTraitMFC_DLL@DV?$ChTraitsCRT@D@ATL@@@@@ATL@@QAE@XZ
  0014a	8d 4d 08	 lea	 ecx, DWORD PTR _strCode$6[ebp]
  0014d	ff 15 00 00 00
	00		 call	 DWORD PTR __imp_??1?$CStringT@DV?$StrTraitMFC_DLL@DV?$ChTraitsCRT@D@ATL@@@@@ATL@@QAE@XZ
  00153	8d 4d 0c	 lea	 ecx, DWORD PTR _strCode$[ebp]
  00156	ff 15 00 00 00
	00		 call	 DWORD PTR __imp_??1?$CStringT@DV?$StrTraitMFC_DLL@DV?$ChTraitsCRT@D@ATL@@@@@ATL@@QAE@XZ
  0015c	8b c6		 mov	 eax, esi
  0015e	5e		 pop	 esi
  0015f	5f		 pop	 edi

; 1183 : }

  00160	5b		 pop	 ebx
  00161	8b e5		 mov	 esp, ebp
  00163	5d		 pop	 ebp
  00164	c2 08 00	 ret	 8
$LN6@IsRegister:

; 27   : 	return m_CodeList.Find(szCode);

  00167	6a 00		 push	 0
  00169	56		 push	 esi
  0016a	8d 8f 44 11 00
	00		 lea	 ecx, DWORD PTR [edi+4420]
  00170	e8 00 00 00 00	 call	 ?Find@CStringList@@QBEPAU__POSITION@@PBDPAU2@@Z ; CStringList::Find

; 1162 : 	{
; 1163 : 		CString strCode(szCode), rCode;
; 1164 : 		strCode = strCode.Mid(1);
; 1165 : 		if(theApp.m_PtUtilMng.GetSiteUpKode(strCode, rCode))
; 1166 : 			strCode = rCode;
; 1167 : 		
; 1168 : 		bRet = (BOOL)m_RegisterCodeMng.FindCode(strCode);
; 1169 : 	}
; 1170 : 	else
; 1171 : 	{
; 1172 : 		bRet = (BOOL)m_RegisterCodeMng.FindCode(szCode);
; 1173 : 	}
; 1174 : 
; 1175 : 	//100614-alzioyes.test
; 1176 : // 	if(!bRet)
; 1177 : // 	{
; 1178 : // 		CString szDebug;
; 1179 : // 		szDebug.Format("%s -> skip \n", szCode);
; 1180 : // 		OutputDebugString(szDebug);
; 1181 : // 	}
; 1182 : 	return bRet;

  00175	8d 4d 0c	 lea	 ecx, DWORD PTR _strCode$[ebp]
  00178	8b f0		 mov	 esi, eax
  0017a	ff 15 00 00 00
	00		 call	 DWORD PTR __imp_??1?$CStringT@DV?$StrTraitMFC_DLL@DV?$ChTraitsCRT@D@ATL@@@@@ATL@@QAE@XZ
  00180	8b c6		 mov	 eax, esi
  00182	5e		 pop	 esi
  00183	5f		 pop	 edi

; 1183 : }

  00184	5b		 pop	 ebx
  00185	8b e5		 mov	 esp, ebp
  00187	5d		 pop	 ebp
  00188	c2 08 00	 ret	 8
?IsRegisterCode@CPartnerManager@@UAGHPBD@Z ENDP		; CPartnerManager::IsRegisterCode
_TEXT	ENDS
; Function compile flags: /Ogtp
; File D:\git\src\IBK\IBK_DRFN\ProjSrc\SrcDrfn\DrCommon\PartnerMng\_PartnerManager.cpp
; File C:\Program Files (x86)\Microsoft Visual Studio\2019\Community\VC\Tools\MSVC\14.29.30133\atlmfc\include\atlsimpstr.h
; File D:\git\src\IBK\IBK_DRFN\ProjSrc\SrcDrfn\DrCommon\PartnerMng\_PartnerManager.cpp
; File C:\Program Files (x86)\Microsoft Visual Studio\2019\Community\VC\Tools\MSVC\14.29.30133\atlmfc\include\atlsimpstr.h
; File D:\git\src\IBK\IBK_DRFN\ProjSrc\SrcDrfn\DrCommon\PartnerMng\_PartnerManager.cpp
; File C:\Program Files (x86)\Microsoft Visual Studio\2019\Community\VC\Tools\MSVC\14.29.30133\atlmfc\include\atlsimpstr.h
; File D:\git\src\IBK\IBK_DRFN\ProjSrc\SrcDrfn\DrCommon\PartnerMng\_PartnerManager.cpp
; File C:\Program Files (x86)\Microsoft Visual Studio\2019\Community\VC\Tools\MSVC\14.29.30133\atlmfc\include\afxcoll.inl
; File D:\git\src\IBK\IBK_DRFN\ProjSrc\SrcDrfn\DrCommon\PartnerMng\_PartnerManager.cpp
; File C:\Program Files (x86)\Microsoft Visual Studio\2019\Community\VC\Tools\MSVC\14.29.30133\atlmfc\include\atlsimpstr.h
; File D:\git\src\IBK\IBK_DRFN\ProjSrc\SrcDrfn\DrCommon\PartnerMng\_PartnerManager.cpp
; File C:\Program Files (x86)\Microsoft Visual Studio\2019\Community\VC\Tools\MSVC\14.29.30133\atlmfc\include\afxcoll.inl
; File D:\git\src\IBK\IBK_DRFN\ProjSrc\SrcDrfn\DrCommon\PartnerMng\_PartnerManager.cpp
; File C:\Program Files (x86)\Microsoft Visual Studio\2019\Community\VC\Tools\MSVC\14.29.30133\atlmfc\include\atlsimpstr.h
; File D:\git\src\IBK\IBK_DRFN\ProjSrc\SrcDrfn\DrCommon\PartnerMng\_PartnerManager.cpp
; File C:\Program Files (x86)\Microsoft Visual Studio\2019\Community\VC\Tools\MSVC\14.29.30133\atlmfc\include\atlsimpstr.h
; File D:\git\src\IBK\IBK_DRFN\ProjSrc\SrcDrfn\DrCommon\PartnerMng\_PartnerManager.cpp
; File C:\Program Files (x86)\Microsoft Visual Studio\2019\Community\VC\Tools\MSVC\14.29.30133\atlmfc\include\cstringt.h
; File D:\git\src\IBK\IBK_DRFN\ProjSrc\SrcDrfn\DrCommon\PartnerMng\_PartnerManager.cpp
; File C:\Program Files (x86)\Microsoft Visual Studio\2019\Community\VC\Tools\MSVC\14.29.30133\atlmfc\include\cstringt.h
; File D:\git\src\IBK\IBK_DRFN\ProjSrc\SrcDrfn\DrCommon\PartnerMng\_PartnerManager.cpp
; File C:\Program Files (x86)\Microsoft Visual Studio\2019\Community\VC\Tools\MSVC\14.29.30133\atlmfc\include\afxcoll.inl
; File D:\git\src\IBK\IBK_DRFN\ProjSrc\SrcDrfn\DrCommon\PartnerMng\_PartnerManager.cpp
; File C:\Program Files (x86)\Microsoft Visual Studio\2019\Community\VC\Tools\MSVC\14.29.30133\atlmfc\include\afxcoll.inl
; File D:\git\src\IBK\IBK_DRFN\ProjSrc\SrcDrfn\DrCommon\PartnerMng\_PartnerManager.cpp
; File C:\Program Files (x86)\Microsoft Visual Studio\2019\Community\VC\Tools\MSVC\14.29.30133\atlmfc\include\afxcoll.inl
; File D:\git\src\IBK\IBK_DRFN\ProjSrc\SrcDrfn\DrCommon\PartnerMng\_PartnerManager.cpp
; File C:\Program Files (x86)\Microsoft Visual Studio\2019\Community\VC\Tools\MSVC\14.29.30133\atlmfc\include\atlsimpstr.h
; File D:\git\src\IBK\IBK_DRFN\ProjSrc\SrcDrfn\DrCommon\PartnerMng\_PartnerManager.cpp
; File C:\Program Files (x86)\Microsoft Visual Studio\2019\Community\VC\Tools\MSVC\14.29.30133\atlmfc\include\cstringt.h
; File D:\git\src\IBK\IBK_DRFN\ProjSrc\SrcDrfn\DrCommon\PartnerMng\_PartnerManager.cpp
; File C:\Program Files (x86)\Microsoft Visual Studio\2019\Community\VC\Tools\MSVC\14.29.30133\atlmfc\include\cstringt.h
; File D:\git\src\IBK\IBK_DRFN\ProjSrc\SrcDrfn\DrCommon\PartnerMng\_PartnerManager.cpp
; File C:\Program Files (x86)\Microsoft Visual Studio\2019\Community\VC\Tools\MSVC\14.29.30133\atlmfc\include\atlsimpstr.h
; File D:\git\src\IBK\IBK_DRFN\ProjSrc\SrcDrfn\DrCommon\PartnerMng\_PartnerManager.cpp
; File C:\Program Files (x86)\Microsoft Visual Studio\2019\Community\VC\Tools\MSVC\14.29.30133\atlmfc\include\atlsimpstr.h
; File D:\git\src\IBK\IBK_DRFN\ProjSrc\SrcDrfn\DrCommon\PartnerMng\_PartnerManager.cpp
; File C:\Program Files (x86)\Microsoft Visual Studio\2019\Community\VC\Tools\MSVC\14.29.30133\atlmfc\include\atlsimpstr.h
; File D:\git\src\IBK\IBK_DRFN\ProjSrc\SrcDrfn\DrCommon\PartnerMng\_PartnerManager.cpp
; File C:\Program Files (x86)\Microsoft Visual Studio\2019\Community\VC\Tools\MSVC\14.29.30133\atlmfc\include\atlsimpstr.h
; File D:\git\src\IBK\IBK_DRFN\ProjSrc\SrcDrfn\DrCommon\PartnerMng\_PartnerManager.cpp
; File C:\Program Files (x86)\Microsoft Visual Studio\2019\Community\VC\Tools\MSVC\14.29.30133\atlmfc\include\cstringt.h
; File D:\git\src\IBK\IBK_DRFN\ProjSrc\SrcDrfn\DrCommon\PartnerMng\_PartnerManager.cpp
; File C:\Program Files (x86)\Microsoft Visual Studio\2019\Community\VC\Tools\MSVC\14.29.30133\atlmfc\include\cstringt.h
; File D:\git\src\IBK\IBK_DRFN\ProjSrc\SrcDrfn\DrCommon\PartnerMng\_PartnerManager.cpp
; File C:\Program Files (x86)\Microsoft Visual Studio\2019\Community\VC\Tools\MSVC\14.29.30133\atlmfc\include\cstringt.h
; File D:\git\src\IBK\IBK_DRFN\ProjSrc\SrcDrfn\DrCommon\PartnerMng\_PartnerManager.cpp
; File C:\Program Files (x86)\Microsoft Visual Studio\2019\Community\VC\Tools\MSVC\14.29.30133\atlmfc\include\cstringt.h
; File D:\git\src\IBK\IBK_DRFN\ProjSrc\SrcDrfn\DrCommon\PartnerMng\_PartnerManager.cpp
;	COMDAT ?ReceiveNoticeData@CPartnerManager@@UAGHIJ@Z
_TEXT	SEGMENT
_arList$ = -1076					; size = 20
_symbol$ = -1056					; size = 4
_value$ = -1052						; size = 4
_strID$ = -1048						; size = 4
_strRtsCode$ = -1044					; size = 4
_strFormCode$ = -1040					; size = 4
_strAccount$ = -1036					; size = 4
_strJmNum$ = -1032					; size = 4
tv1569 = -1028						; size = 8
tv1549 = -1028						; size = 8
_sMinerInfo$ = -1020					; size = 4
_strMGB$ = -1016					; size = 4
_sMajorInfo$ = -1012					; size = 4
$T1 = -1008						; size = 4
$T2 = -1008						; size = 4
$T3 = -1008						; size = 4
$T4 = -1008						; size = 4
_strSymbol$ = -1004					; size = 4
_strType$ = -1000					; size = 4
$T5 = -996						; size = 4
$T6 = -996						; size = 4
$T7 = -996						; size = 4
$T8 = -996						; size = 4
_strNotice$ = -992					; size = 4
_strData$ = -988					; size = 4
_OrderInfo$ = -984					; size = 980
__$ArrayPad$ = -4					; size = 4
_this$ = 8						; size = 4
_wParam$ = 12						; size = 4
_lParam$ = 16						; size = 4
?ReceiveNoticeData@CPartnerManager@@UAGHIJ@Z PROC	; CPartnerManager::ReceiveNoticeData, COMDAT

; 952  : {

  00000	55		 push	 ebp
  00001	8b ec		 mov	 ebp, esp
  00003	81 ec 34 04 00
	00		 sub	 esp, 1076		; 00000434H
  00009	a1 00 00 00 00	 mov	 eax, DWORD PTR ___security_cookie
  0000e	33 c5		 xor	 eax, ebp
  00010	89 45 fc	 mov	 DWORD PTR __$ArrayPad$[ebp], eax
  00013	8b 45 10	 mov	 eax, DWORD PTR _lParam$[ebp]

; 953  : 	CString strNotice = (char*)lParam;

  00016	8d 8d 20 fc ff
	ff		 lea	 ecx, DWORD PTR _strNotice$[ebp]
  0001c	53		 push	 ebx
  0001d	8b 5d 08	 mov	 ebx, DWORD PTR _this$[ebp]
  00020	56		 push	 esi
  00021	8b 75 0c	 mov	 esi, DWORD PTR _wParam$[ebp]
  00024	57		 push	 edi
  00025	50		 push	 eax
  00026	ff 15 00 00 00
	00		 call	 DWORD PTR __imp_??0?$CStringT@DV?$StrTraitMFC_DLL@DV?$ChTraitsCRT@D@ATL@@@@@ATL@@QAE@PBD@Z
; File C:\Program Files (x86)\Microsoft Visual Studio\2019\Community\VC\Tools\MSVC\14.29.30133\atlmfc\include\atlsimpstr.h

; 533  : 		return( GetLength() == 0 );

  0002c	8b 85 20 fc ff
	ff		 mov	 eax, DWORD PTR _strNotice$[ebp]
  00032	83 78 f4 00	 cmp	 DWORD PTR [eax-12], 0
; File D:\git\src\IBK\IBK_DRFN\ProjSrc\SrcDrfn\DrCommon\PartnerMng\_PartnerManager.cpp

; 955  : 	if (strNotice.IsEmpty()) 

  00036	75 07		 jne	 SHORT $LN14@ReceiveNot
  00038	33 f6		 xor	 esi, esi
  0003a	e9 d3 02 00 00	 jmp	 $LN91@ReceiveNot
$LN14@ReceiveNot:

; 956  : 		return FALSE;
; 957  : 	
; 958  : 	CString strFormCode = (LPCTSTR)wParam;

  0003f	56		 push	 esi
  00040	8d 8d f0 fb ff
	ff		 lea	 ecx, DWORD PTR _strFormCode$[ebp]
  00046	ff 15 00 00 00
	00		 call	 DWORD PTR __imp_??0?$CStringT@DV?$StrTraitMFC_DLL@DV?$ChTraitsCRT@D@ATL@@@@@ATL@@QAE@PBD@Z

; 959  : 
; 960  : 	CStringArray arList;	

  0004c	8d 8d cc fb ff
	ff		 lea	 ecx, DWORD PTR _arList$[ebp]
  00052	e8 00 00 00 00	 call	 ??0CStringArray@@QAE@XZ	; CStringArray::CStringArray

; 961  : 	CString strAccount	= _T("");

  00057	68 00 00 00 00	 push	 OFFSET ??_C@_00CNPNBAHC@@
  0005c	8d 8d f4 fb ff
	ff		 lea	 ecx, DWORD PTR _strAccount$[ebp]
  00062	ff 15 00 00 00
	00		 call	 DWORD PTR __imp_??0?$CStringT@DV?$StrTraitMFC_DLL@DV?$ChTraitsCRT@D@ATL@@@@@ATL@@QAE@PBD@Z

; 962  : 	CString strID		= _T("");

  00068	68 00 00 00 00	 push	 OFFSET ??_C@_00CNPNBAHC@@
  0006d	8d 8d e8 fb ff
	ff		 lea	 ecx, DWORD PTR _strID$[ebp]
  00073	ff 15 00 00 00
	00		 call	 DWORD PTR __imp_??0?$CStringT@DV?$StrTraitMFC_DLL@DV?$ChTraitsCRT@D@ATL@@@@@ATL@@QAE@PBD@Z

; 963  : 	CString strJmNum	= _T("");			// 

  00079	68 00 00 00 00	 push	 OFFSET ??_C@_00CNPNBAHC@@
  0007e	8d 8d f8 fb ff
	ff		 lea	 ecx, DWORD PTR _strJmNum$[ebp]
  00084	ff 15 00 00 00
	00		 call	 DWORD PTR __imp_??0?$CStringT@DV?$StrTraitMFC_DLL@DV?$ChTraitsCRT@D@ATL@@@@@ATL@@QAE@PBD@Z

; 964  : 	CString strRtsCode	= _T("");				

  0008a	68 00 00 00 00	 push	 OFFSET ??_C@_00CNPNBAHC@@
  0008f	8d 8d ec fb ff
	ff		 lea	 ecx, DWORD PTR _strRtsCode$[ebp]
  00095	ff 15 00 00 00
	00		 call	 DWORD PTR __imp_??0?$CStringT@DV?$StrTraitMFC_DLL@DV?$ChTraitsCRT@D@ATL@@@@@ATL@@QAE@PBD@Z

; 965  : 	CString strSymbol	= _T("");

  0009b	68 00 00 00 00	 push	 OFFSET ??_C@_00CNPNBAHC@@
  000a0	8d 8d 14 fc ff
	ff		 lea	 ecx, DWORD PTR _strSymbol$[ebp]
  000a6	ff 15 00 00 00
	00		 call	 DWORD PTR __imp_??0?$CStringT@DV?$StrTraitMFC_DLL@DV?$ChTraitsCRT@D@ATL@@@@@ATL@@QAE@PBD@Z

; 966  : 	CString strData		= _T("");

  000ac	68 00 00 00 00	 push	 OFFSET ??_C@_00CNPNBAHC@@
  000b1	8d 8d 24 fc ff
	ff		 lea	 ecx, DWORD PTR _strData$[ebp]
  000b7	ff 15 00 00 00
	00		 call	 DWORD PTR __imp_??0?$CStringT@DV?$StrTraitMFC_DLL@DV?$ChTraitsCRT@D@ATL@@@@@ATL@@QAE@PBD@Z
; File C:\Program Files (x86)\Microsoft Visual Studio\2019\Community\VC\Tools\MSVC\14.29.30133\atlmfc\include\atlsimpstr.h

; 533  : 		return( GetLength() == 0 );

  000bd	8b 85 20 fc ff
	ff		 mov	 eax, DWORD PTR _strNotice$[ebp]
; File D:\git\src\IBK\IBK_DRFN\ProjSrc\SrcDrfn\DrCommon\PartnerMng\_PartnerManager.cpp

; 968  : 	int nContract = 0;		//1/2:   (1:FX,2:), : 

  000c3	33 ff		 xor	 edi, edi
; File C:\Program Files (x86)\Microsoft Visual Studio\2019\Community\VC\Tools\MSVC\14.29.30133\atlmfc\include\atlsimpstr.h

; 533  : 		return( GetLength() == 0 );

  000c5	39 78 f4	 cmp	 DWORD PTR [eax-12], edi
; File D:\git\src\IBK\IBK_DRFN\ProjSrc\SrcDrfn\DrCommon\PartnerMng\_PartnerManager.cpp

; 970  : 	while (!strNotice.IsEmpty())	

  000c8	74 52		 je	 SHORT $LN3@ReceiveNot
  000ca	66 0f 1f 44 00
	00		 npad	 6
$LL2@ReceiveNot:

; 973  : 		arList.Add(CDataConverter::Parser(strNotice, sROW));

  000d0	51		 push	 ecx
  000d1	8b cc		 mov	 ecx, esp
  000d3	6a 01		 push	 1
  000d5	6a 0a		 push	 10			; 0000000aH
  000d7	ff 15 00 00 00
	00		 call	 DWORD PTR __imp_??0?$CStringT@DV?$StrTraitMFC_DLL@DV?$ChTraitsCRT@D@ATL@@@@@ATL@@QAE@DH@Z
  000dd	8d 85 20 fc ff
	ff		 lea	 eax, DWORD PTR _strNotice$[ebp]
  000e3	50		 push	 eax
  000e4	8d 85 10 fc ff
	ff		 lea	 eax, DWORD PTR $T4[ebp]
  000ea	50		 push	 eax
  000eb	e8 00 00 00 00	 call	 ?Parser@CDataConverter@@SA?AV?$CStringT@DV?$StrTraitMFC_DLL@DV?$ChTraitsCRT@D@ATL@@@@@ATL@@AAV23@V23@@Z ; CDataConverter::Parser
  000f0	83 c4 0c	 add	 esp, 12			; 0000000cH
; File C:\Program Files (x86)\Microsoft Visual Studio\2019\Community\VC\Tools\MSVC\14.29.30133\atlmfc\include\afxcoll.inl

; 321  : 		SetAtGrow(nIndex, newElement);

  000f3	8d 8d cc fb ff
	ff		 lea	 ecx, DWORD PTR _arList$[ebp]
  000f9	50		 push	 eax
  000fa	ff b5 d4 fb ff
	ff		 push	 DWORD PTR _arList$[ebp+8]
  00100	e8 00 00 00 00	 call	 ?SetAtGrow@CStringArray@@QAEXHABV?$CStringT@DV?$StrTraitMFC_DLL@DV?$ChTraitsCRT@D@ATL@@@@@ATL@@@Z ; CStringArray::SetAtGrow
; File D:\git\src\IBK\IBK_DRFN\ProjSrc\SrcDrfn\DrCommon\PartnerMng\_PartnerManager.cpp

; 973  : 		arList.Add(CDataConverter::Parser(strNotice, sROW));

  00105	8d 8d 10 fc ff
	ff		 lea	 ecx, DWORD PTR $T4[ebp]
  0010b	ff 15 00 00 00
	00		 call	 DWORD PTR __imp_??1?$CStringT@DV?$StrTraitMFC_DLL@DV?$ChTraitsCRT@D@ATL@@@@@ATL@@QAE@XZ
; File C:\Program Files (x86)\Microsoft Visual Studio\2019\Community\VC\Tools\MSVC\14.29.30133\atlmfc\include\atlsimpstr.h

; 533  : 		return( GetLength() == 0 );

  00111	8b 85 20 fc ff
	ff		 mov	 eax, DWORD PTR _strNotice$[ebp]
  00117	39 78 f4	 cmp	 DWORD PTR [eax-12], edi
; File D:\git\src\IBK\IBK_DRFN\ProjSrc\SrcDrfn\DrCommon\PartnerMng\_PartnerManager.cpp

; 970  : 	while (!strNotice.IsEmpty())	

  0011a	75 b4		 jne	 SHORT $LL2@ReceiveNot
$LN3@ReceiveNot:

; 974  : 	}	
; 975  : 	
; 976  : 	CString sMajorInfo, sMinerInfo;		

  0011c	8d 8d 0c fc ff
	ff		 lea	 ecx, DWORD PTR _sMajorInfo$[ebp]
  00122	ff 15 00 00 00
	00		 call	 DWORD PTR __imp_??0?$CStringT@DV?$StrTraitMFC_DLL@DV?$ChTraitsCRT@D@ATL@@@@@ATL@@QAE@XZ
  00128	8d 8d 04 fc ff
	ff		 lea	 ecx, DWORD PTR _sMinerInfo$[ebp]
  0012e	ff 15 00 00 00
	00		 call	 DWORD PTR __imp_??0?$CStringT@DV?$StrTraitMFC_DLL@DV?$ChTraitsCRT@D@ATL@@@@@ATL@@QAE@XZ
; File C:\Program Files (x86)\Microsoft Visual Studio\2019\Community\VC\Tools\MSVC\14.29.30133\atlmfc\include\afxcoll.inl

; 306  : 		if( nIndex < 0 || nIndex >= m_nSize )

  00134	39 bd d4 fb ff
	ff		 cmp	 DWORD PTR _arList$[ebp+8], edi
  0013a	0f 8e fc 08 00
	00		 jle	 $LN370@ReceiveNot

; 327  : 	{ return ElementAt(nIndex); }

  00140	8b b5 d0 fb ff
	ff		 mov	 esi, DWORD PTR _arList$[ebp+4]
; File D:\git\src\IBK\IBK_DRFN\ProjSrc\SrcDrfn\DrCommon\PartnerMng\_PartnerManager.cpp

; 977  : 	sMajorInfo = CDataConverter::Parser(arList[0], '\r');	

  00146	51		 push	 ecx
  00147	8b cc		 mov	 ecx, esp
  00149	6a 01		 push	 1
  0014b	6a 0d		 push	 13			; 0000000dH
  0014d	ff 15 00 00 00
	00		 call	 DWORD PTR __imp_??0?$CStringT@DV?$StrTraitMFC_DLL@DV?$ChTraitsCRT@D@ATL@@@@@ATL@@QAE@DH@Z
  00153	8d 85 10 fc ff
	ff		 lea	 eax, DWORD PTR $T3[ebp]
  00159	56		 push	 esi
  0015a	50		 push	 eax
  0015b	e8 00 00 00 00	 call	 ?Parser@CDataConverter@@SA?AV?$CStringT@DV?$StrTraitMFC_DLL@DV?$ChTraitsCRT@D@ATL@@@@@ATL@@AAV23@V23@@Z ; CDataConverter::Parser
  00160	83 c4 0c	 add	 esp, 12			; 0000000cH
  00163	8d 8d 0c fc ff
	ff		 lea	 ecx, DWORD PTR _sMajorInfo$[ebp]
  00169	50		 push	 eax
  0016a	ff 15 00 00 00
	00		 call	 DWORD PTR __imp_??4?$CStringT@DV?$StrTraitMFC_DLL@DV?$ChTraitsCRT@D@ATL@@@@@ATL@@QAEAAV01@ABV01@@Z
  00170	8d 8d 10 fc ff
	ff		 lea	 ecx, DWORD PTR $T3[ebp]
  00176	ff 15 00 00 00
	00		 call	 DWORD PTR __imp_??1?$CStringT@DV?$StrTraitMFC_DLL@DV?$ChTraitsCRT@D@ATL@@@@@ATL@@QAE@XZ
; File C:\Program Files (x86)\Microsoft Visual Studio\2019\Community\VC\Tools\MSVC\14.29.30133\atlmfc\include\atlsimpstr.h

; 533  : 		return( GetLength() == 0 );

  0017c	8b 85 0c fc ff
	ff		 mov	 eax, DWORD PTR _sMajorInfo$[ebp]
  00182	39 78 f4	 cmp	 DWORD PTR [eax-12], edi
; File D:\git\src\IBK\IBK_DRFN\ProjSrc\SrcDrfn\DrCommon\PartnerMng\_PartnerManager.cpp

; 978  : 	while(!sMajorInfo.IsEmpty())

  00185	0f 84 0e 01 00
	00		 je	 $LN93@ReceiveNot
  0018b	8b 35 00 00 00
	00		 mov	 esi, DWORD PTR __imp__atoi
$LL4@ReceiveNot:

; 979  : 	{
; 980  : 		strSymbol = CDataConverter::Parser(sMajorInfo, '\t');

  00191	51		 push	 ecx
  00192	8b cc		 mov	 ecx, esp
  00194	6a 01		 push	 1
  00196	6a 09		 push	 9
  00198	ff 15 00 00 00
	00		 call	 DWORD PTR __imp_??0?$CStringT@DV?$StrTraitMFC_DLL@DV?$ChTraitsCRT@D@ATL@@@@@ATL@@QAE@DH@Z
  0019e	8d 85 0c fc ff
	ff		 lea	 eax, DWORD PTR _sMajorInfo$[ebp]
  001a4	50		 push	 eax
  001a5	8d 85 10 fc ff
	ff		 lea	 eax, DWORD PTR $T2[ebp]
  001ab	50		 push	 eax
  001ac	e8 00 00 00 00	 call	 ?Parser@CDataConverter@@SA?AV?$CStringT@DV?$StrTraitMFC_DLL@DV?$ChTraitsCRT@D@ATL@@@@@ATL@@AAV23@V23@@Z ; CDataConverter::Parser
  001b1	83 c4 0c	 add	 esp, 12			; 0000000cH
  001b4	8d 8d 14 fc ff
	ff		 lea	 ecx, DWORD PTR _strSymbol$[ebp]
  001ba	50		 push	 eax
  001bb	ff 15 00 00 00
	00		 call	 DWORD PTR __imp_??4?$CStringT@DV?$StrTraitMFC_DLL@DV?$ChTraitsCRT@D@ATL@@@@@ATL@@QAEAAV01@ABV01@@Z
  001c1	8d 8d 10 fc ff
	ff		 lea	 ecx, DWORD PTR $T2[ebp]
  001c7	ff 15 00 00 00
	00		 call	 DWORD PTR __imp_??1?$CStringT@DV?$StrTraitMFC_DLL@DV?$ChTraitsCRT@D@ATL@@@@@ATL@@QAE@XZ

; 981  : 		strData	  = CDataConverter::Parser(sMajorInfo, '\t');

  001cd	51		 push	 ecx
  001ce	8b cc		 mov	 ecx, esp
  001d0	6a 01		 push	 1
  001d2	6a 09		 push	 9
  001d4	ff 15 00 00 00
	00		 call	 DWORD PTR __imp_??0?$CStringT@DV?$StrTraitMFC_DLL@DV?$ChTraitsCRT@D@ATL@@@@@ATL@@QAE@DH@Z
  001da	8d 85 0c fc ff
	ff		 lea	 eax, DWORD PTR _sMajorInfo$[ebp]
  001e0	50		 push	 eax
  001e1	8d 85 1c fc ff
	ff		 lea	 eax, DWORD PTR $T8[ebp]
  001e7	50		 push	 eax
  001e8	e8 00 00 00 00	 call	 ?Parser@CDataConverter@@SA?AV?$CStringT@DV?$StrTraitMFC_DLL@DV?$ChTraitsCRT@D@ATL@@@@@ATL@@AAV23@V23@@Z ; CDataConverter::Parser
  001ed	83 c4 0c	 add	 esp, 12			; 0000000cH
  001f0	8d 8d 24 fc ff
	ff		 lea	 ecx, DWORD PTR _strData$[ebp]
  001f6	50		 push	 eax
  001f7	ff 15 00 00 00
	00		 call	 DWORD PTR __imp_??4?$CStringT@DV?$StrTraitMFC_DLL@DV?$ChTraitsCRT@D@ATL@@@@@ATL@@QAEAAV01@ABV01@@Z
  001fd	8d 8d 1c fc ff
	ff		 lea	 ecx, DWORD PTR $T8[ebp]
  00203	ff 15 00 00 00
	00		 call	 DWORD PTR __imp_??1?$CStringT@DV?$StrTraitMFC_DLL@DV?$ChTraitsCRT@D@ATL@@@@@ATL@@QAE@XZ

; 982  : 		
; 983  : 		switch (atoi(strSymbol))

  00209	ff b5 14 fc ff
	ff		 push	 DWORD PTR _strSymbol$[ebp]
  0020f	ff d6		 call	 esi
  00211	05 c2 fc ff ff	 add	 eax, -830		; fffffcc2H
  00216	83 c4 04	 add	 esp, 4
  00219	83 f8 48	 cmp	 eax, 72			; 00000048H
  0021c	77 44		 ja	 SHORT $LN6@ReceiveNot
  0021e	0f b6 80 00 00
	00 00		 movzx	 eax, BYTE PTR $LN371@ReceiveNot[eax]
  00225	ff 24 85 00 00
	00 00		 jmp	 DWORD PTR $LN372@ReceiveNot[eax*4]
$LN15@ReceiveNot:

; 984  : 		{
; 985  : 		case 901:   //
; 986  : 			strAccount = strData;

  0022c	8d 85 24 fc ff
	ff		 lea	 eax, DWORD PTR _strData$[ebp]
  00232	50		 push	 eax
  00233	8d 8d f4 fb ff
	ff		 lea	 ecx, DWORD PTR _strAccount$[ebp]
  00239	ff 15 00 00 00
	00		 call	 DWORD PTR __imp_??4?$CStringT@DV?$StrTraitMFC_DLL@DV?$ChTraitsCRT@D@ATL@@@@@ATL@@QAEAAV01@ABV01@@Z

; 987  : 			break;

  0023f	eb 21		 jmp	 SHORT $LN6@ReceiveNot
$LN16@ReceiveNot:

; 988  : 		case 902:   //ID
; 989  : 			strID = strData;

  00241	8d 85 24 fc ff
	ff		 lea	 eax, DWORD PTR _strData$[ebp]
  00247	50		 push	 eax
  00248	8d 8d e8 fb ff
	ff		 lea	 ecx, DWORD PTR _strID$[ebp]
  0024e	ff 15 00 00 00
	00		 call	 DWORD PTR __imp_??4?$CStringT@DV?$StrTraitMFC_DLL@DV?$ChTraitsCRT@D@ATL@@@@@ATL@@QAEAAV01@ABV01@@Z

; 990  : 			break;		

  00254	eb 0c		 jmp	 SHORT $LN6@ReceiveNot
$LN17@ReceiveNot:

; 991  : 		case 830:	//   TR
; 992  : 			nContract = 2;

  00256	bf 02 00 00 00	 mov	 edi, 2

; 993  : 			break;				

  0025b	eb 05		 jmp	 SHORT $LN6@ReceiveNot
$LN18@ReceiveNot:

; 994  : 		case 840:	// FX  TR
; 995  : 			nContract = 1;

  0025d	bf 01 00 00 00	 mov	 edi, 1
$LN6@ReceiveNot:
; File C:\Program Files (x86)\Microsoft Visual Studio\2019\Community\VC\Tools\MSVC\14.29.30133\atlmfc\include\atlsimpstr.h

; 533  : 		return( GetLength() == 0 );

  00262	8b 85 0c fc ff
	ff		 mov	 eax, DWORD PTR _sMajorInfo$[ebp]
  00268	83 78 f4 00	 cmp	 DWORD PTR [eax-12], 0
; File D:\git\src\IBK\IBK_DRFN\ProjSrc\SrcDrfn\DrCommon\PartnerMng\_PartnerManager.cpp

; 978  : 	while(!sMajorInfo.IsEmpty())

  0026c	0f 85 1f ff ff
	ff		 jne	 $LL4@ReceiveNot

; 996  : 			break;				
; 997  : 		}
; 998  : 	}
; 999  : 
; 1000 : 	if( nContract != 1 && nContract != 2 )			return	FALSE;

  00272	83 ff 01	 cmp	 edi, 1
  00275	0f 84 b8 00 00
	00		 je	 $LN367@ReceiveNot
  0027b	83 ff 02	 cmp	 edi, 2
  0027e	75 19		 jne	 SHORT $LN93@ReceiveNot
; File C:\Program Files (x86)\Microsoft Visual Studio\2019\Community\VC\Tools\MSVC\14.29.30133\atlmfc\include\cstringt.h

; 2567 : 		return( str1.Compare( psz2 ) != 0 );

  00280	68 00 00 00 00	 push	 OFFSET ??_C@_04LNJIEJPK@8041@
  00285	8d 8d f0 fb ff
	ff		 lea	 ecx, DWORD PTR _strFormCode$[ebp]
  0028b	ff 15 00 00 00
	00		 call	 DWORD PTR __imp_?Compare@?$CStringT@DV?$StrTraitMFC_DLL@DV?$ChTraitsCRT@D@ATL@@@@@ATL@@QBEHPBD@Z
  00291	85 c0		 test	 eax, eax
; File D:\git\src\IBK\IBK_DRFN\ProjSrc\SrcDrfn\DrCommon\PartnerMng\_PartnerManager.cpp

; 1002 : 	if( nContract == 2 && strFormCode != "8041" )	return	FALSE;

  00293	0f 84 b3 00 00
	00		 je	 $LN21@ReceiveNot
$LN93@ReceiveNot:
  00299	33 f6		 xor	 esi, esi
$LN94@ReceiveNot:

; 1130 : 
; 1131 : 	return TRUE;

  0029b	8d 8d 04 fc ff
	ff		 lea	 ecx, DWORD PTR _sMinerInfo$[ebp]
  002a1	ff 15 00 00 00
	00		 call	 DWORD PTR __imp_??1?$CStringT@DV?$StrTraitMFC_DLL@DV?$ChTraitsCRT@D@ATL@@@@@ATL@@QAE@XZ
  002a7	8d 8d 0c fc ff
	ff		 lea	 ecx, DWORD PTR _sMajorInfo$[ebp]
  002ad	ff 15 00 00 00
	00		 call	 DWORD PTR __imp_??1?$CStringT@DV?$StrTraitMFC_DLL@DV?$ChTraitsCRT@D@ATL@@@@@ATL@@QAE@XZ
  002b3	8d 8d 24 fc ff
	ff		 lea	 ecx, DWORD PTR _strData$[ebp]
  002b9	ff 15 00 00 00
	00		 call	 DWORD PTR __imp_??1?$CStringT@DV?$StrTraitMFC_DLL@DV?$ChTraitsCRT@D@ATL@@@@@ATL@@QAE@XZ
  002bf	8d 8d 14 fc ff
	ff		 lea	 ecx, DWORD PTR _strSymbol$[ebp]
  002c5	ff 15 00 00 00
	00		 call	 DWORD PTR __imp_??1?$CStringT@DV?$StrTraitMFC_DLL@DV?$ChTraitsCRT@D@ATL@@@@@ATL@@QAE@XZ
  002cb	8d 8d ec fb ff
	ff		 lea	 ecx, DWORD PTR _strRtsCode$[ebp]
  002d1	ff 15 00 00 00
	00		 call	 DWORD PTR __imp_??1?$CStringT@DV?$StrTraitMFC_DLL@DV?$ChTraitsCRT@D@ATL@@@@@ATL@@QAE@XZ
  002d7	8d 8d f8 fb ff
	ff		 lea	 ecx, DWORD PTR _strJmNum$[ebp]
  002dd	ff 15 00 00 00
	00		 call	 DWORD PTR __imp_??1?$CStringT@DV?$StrTraitMFC_DLL@DV?$ChTraitsCRT@D@ATL@@@@@ATL@@QAE@XZ
  002e3	8d 8d e8 fb ff
	ff		 lea	 ecx, DWORD PTR _strID$[ebp]
  002e9	ff 15 00 00 00
	00		 call	 DWORD PTR __imp_??1?$CStringT@DV?$StrTraitMFC_DLL@DV?$ChTraitsCRT@D@ATL@@@@@ATL@@QAE@XZ
  002ef	8d 8d f4 fb ff
	ff		 lea	 ecx, DWORD PTR _strAccount$[ebp]
  002f5	ff 15 00 00 00
	00		 call	 DWORD PTR __imp_??1?$CStringT@DV?$StrTraitMFC_DLL@DV?$ChTraitsCRT@D@ATL@@@@@ATL@@QAE@XZ
  002fb	8d 8d cc fb ff
	ff		 lea	 ecx, DWORD PTR _arList$[ebp]
  00301	e8 00 00 00 00	 call	 ??1CStringArray@@UAE@XZ	; CStringArray::~CStringArray
  00306	8d 8d f0 fb ff
	ff		 lea	 ecx, DWORD PTR _strFormCode$[ebp]
  0030c	ff 15 00 00 00
	00		 call	 DWORD PTR __imp_??1?$CStringT@DV?$StrTraitMFC_DLL@DV?$ChTraitsCRT@D@ATL@@@@@ATL@@QAE@XZ
$LN91@ReceiveNot:
  00312	8d 8d 20 fc ff
	ff		 lea	 ecx, DWORD PTR _strNotice$[ebp]
  00318	ff 15 00 00 00
	00		 call	 DWORD PTR __imp_??1?$CStringT@DV?$StrTraitMFC_DLL@DV?$ChTraitsCRT@D@ATL@@@@@ATL@@QAE@XZ

; 1132 : }

  0031e	8b 4d fc	 mov	 ecx, DWORD PTR __$ArrayPad$[ebp]
  00321	8b c6		 mov	 eax, esi
  00323	5f		 pop	 edi
  00324	5e		 pop	 esi
  00325	33 cd		 xor	 ecx, ebp
  00327	5b		 pop	 ebx
  00328	e8 00 00 00 00	 call	 @__security_check_cookie@4
  0032d	8b e5		 mov	 esp, ebp
  0032f	5d		 pop	 ebp
  00330	c2 0c 00	 ret	 12			; 0000000cH
$LN367@ReceiveNot:
; File C:\Program Files (x86)\Microsoft Visual Studio\2019\Community\VC\Tools\MSVC\14.29.30133\atlmfc\include\cstringt.h

; 2567 : 		return( str1.Compare( psz2 ) != 0 );

  00333	68 00 00 00 00	 push	 OFFSET ??_C@_04IAPIGAEK@9041@
  00338	8d 8d f0 fb ff
	ff		 lea	 ecx, DWORD PTR _strFormCode$[ebp]
  0033e	ff 15 00 00 00
	00		 call	 DWORD PTR __imp_?Compare@?$CStringT@DV?$StrTraitMFC_DLL@DV?$ChTraitsCRT@D@ATL@@@@@ATL@@QBEHPBD@Z
  00344	85 c0		 test	 eax, eax
; File D:\git\src\IBK\IBK_DRFN\ProjSrc\SrcDrfn\DrCommon\PartnerMng\_PartnerManager.cpp

; 1001 : 	if( nContract == 1 && strFormCode != "9041" )	return	FALSE;

  00346	0f 85 4d ff ff
	ff		 jne	 $LN93@ReceiveNot
$LN21@ReceiveNot:

; 1003 : 
; 1004 : 	FX_CHE_STRUCT OrderInfo;
; 1005 : 	memset(&OrderInfo, ' ', sizeof(FX_CHE_STRUCT));

  0034c	68 d4 03 00 00	 push	 980			; 000003d4H
  00351	8d 85 28 fc ff
	ff		 lea	 eax, DWORD PTR _OrderInfo$[ebp]
  00357	6a 20		 push	 32			; 00000020H
  00359	50		 push	 eax
  0035a	e8 00 00 00 00	 call	 _memset

; 1006 : 
; 1007 : 	memcpy(OrderInfo.szAccNo, (LPCTSTR)strAccount, min(strAccount.GetLength(), sizeof(OrderInfo.szAccNo)));

  0035f	8b 85 f4 fb ff
	ff		 mov	 eax, DWORD PTR _strAccount$[ebp]
  00365	ba 0b 00 00 00	 mov	 edx, 11			; 0000000bH
  0036a	39 50 f4	 cmp	 DWORD PTR [eax-12], edx
  0036d	0f 42 50 f4	 cmovb	 edx, DWORD PTR [eax-12]
  00371	52		 push	 edx
  00372	50		 push	 eax
  00373	8d 85 2c fc ff
	ff		 lea	 eax, DWORD PTR _OrderInfo$[ebp+4]
  00379	50		 push	 eax
  0037a	e8 00 00 00 00	 call	 _memcpy
  0037f	83 c4 18	 add	 esp, 24			; 00000018H

; 1008 : 	
; 1009 : 
; 1010 : 	CString symbol, value;

  00382	8d 8d e0 fb ff
	ff		 lea	 ecx, DWORD PTR _symbol$[ebp]
  00388	ff 15 00 00 00
	00		 call	 DWORD PTR __imp_??0?$CStringT@DV?$StrTraitMFC_DLL@DV?$ChTraitsCRT@D@ATL@@@@@ATL@@QAE@XZ
  0038e	8d 8d e4 fb ff
	ff		 lea	 ecx, DWORD PTR _value$[ebp]
  00394	ff 15 00 00 00
	00		 call	 DWORD PTR __imp_??0?$CStringT@DV?$StrTraitMFC_DLL@DV?$ChTraitsCRT@D@ATL@@@@@ATL@@QAE@XZ
; File C:\Program Files (x86)\Microsoft Visual Studio\2019\Community\VC\Tools\MSVC\14.29.30133\atlmfc\include\afxcoll.inl

; 306  : 		if( nIndex < 0 || nIndex >= m_nSize )

  0039a	83 bd d4 fb ff
	ff 00		 cmp	 DWORD PTR _arList$[ebp+8], 0
  003a1	0f 8e 95 06 00
	00		 jle	 $LN370@ReceiveNot
; File D:\git\src\IBK\IBK_DRFN\ProjSrc\SrcDrfn\DrCommon\PartnerMng\_PartnerManager.cpp

; 1011 : 	sMinerInfo	= arList[0];

  003a7	ff b5 d0 fb ff
	ff		 push	 DWORD PTR _arList$[ebp+4]
  003ad	8d 8d 04 fc ff
	ff		 lea	 ecx, DWORD PTR _sMinerInfo$[ebp]
  003b3	ff 15 00 00 00
	00		 call	 DWORD PTR __imp_??4?$CStringT@DV?$StrTraitMFC_DLL@DV?$ChTraitsCRT@D@ATL@@@@@ATL@@QAEAAV01@ABV01@@Z

; 1012 : 	strSymbol	= CDataConverter::Parser(sMinerInfo,	'\t');	

  003b9	51		 push	 ecx
  003ba	8b cc		 mov	 ecx, esp
  003bc	6a 01		 push	 1
  003be	6a 09		 push	 9
  003c0	ff 15 00 00 00
	00		 call	 DWORD PTR __imp_??0?$CStringT@DV?$StrTraitMFC_DLL@DV?$ChTraitsCRT@D@ATL@@@@@ATL@@QAE@DH@Z
  003c6	8d 85 04 fc ff
	ff		 lea	 eax, DWORD PTR _sMinerInfo$[ebp]
  003cc	50		 push	 eax
  003cd	8d 85 1c fc ff
	ff		 lea	 eax, DWORD PTR $T7[ebp]
  003d3	50		 push	 eax
  003d4	e8 00 00 00 00	 call	 ?Parser@CDataConverter@@SA?AV?$CStringT@DV?$StrTraitMFC_DLL@DV?$ChTraitsCRT@D@ATL@@@@@ATL@@AAV23@V23@@Z ; CDataConverter::Parser
  003d9	83 c4 0c	 add	 esp, 12			; 0000000cH
  003dc	8d 8d 14 fc ff
	ff		 lea	 ecx, DWORD PTR _strSymbol$[ebp]
  003e2	50		 push	 eax
  003e3	ff 15 00 00 00
	00		 call	 DWORD PTR __imp_??4?$CStringT@DV?$StrTraitMFC_DLL@DV?$ChTraitsCRT@D@ATL@@@@@ATL@@QAEAAV01@ABV01@@Z
  003e9	8d 8d 1c fc ff
	ff		 lea	 ecx, DWORD PTR $T7[ebp]
  003ef	ff 15 00 00 00
	00		 call	 DWORD PTR __imp_??1?$CStringT@DV?$StrTraitMFC_DLL@DV?$ChTraitsCRT@D@ATL@@@@@ATL@@QAE@XZ

; 1013 : 	strData		= CDataConverter::Parser(sMinerInfo,	'\t');	

  003f5	51		 push	 ecx
  003f6	8b cc		 mov	 ecx, esp
  003f8	6a 01		 push	 1
  003fa	6a 09		 push	 9
  003fc	ff 15 00 00 00
	00		 call	 DWORD PTR __imp_??0?$CStringT@DV?$StrTraitMFC_DLL@DV?$ChTraitsCRT@D@ATL@@@@@ATL@@QAE@DH@Z
  00402	8d 85 04 fc ff
	ff		 lea	 eax, DWORD PTR _sMinerInfo$[ebp]
  00408	50		 push	 eax
  00409	8d 85 1c fc ff
	ff		 lea	 eax, DWORD PTR $T6[ebp]
  0040f	50		 push	 eax
  00410	e8 00 00 00 00	 call	 ?Parser@CDataConverter@@SA?AV?$CStringT@DV?$StrTraitMFC_DLL@DV?$ChTraitsCRT@D@ATL@@@@@ATL@@AAV23@V23@@Z ; CDataConverter::Parser
  00415	83 c4 0c	 add	 esp, 12			; 0000000cH
  00418	8d 8d 24 fc ff
	ff		 lea	 ecx, DWORD PTR _strData$[ebp]
  0041e	50		 push	 eax
  0041f	ff 15 00 00 00
	00		 call	 DWORD PTR __imp_??4?$CStringT@DV?$StrTraitMFC_DLL@DV?$ChTraitsCRT@D@ATL@@@@@ATL@@QAEAAV01@ABV01@@Z
  00425	8d 8d 1c fc ff
	ff		 lea	 ecx, DWORD PTR $T6[ebp]
  0042b	ff 15 00 00 00
	00		 call	 DWORD PTR __imp_??1?$CStringT@DV?$StrTraitMFC_DLL@DV?$ChTraitsCRT@D@ATL@@@@@ATL@@QAE@XZ

; 1014 : 	switch (atoi(strSymbol))

  00431	ff b5 14 fc ff
	ff		 push	 DWORD PTR _strSymbol$[ebp]
  00437	ff d6		 call	 esi
  00439	83 c4 04	 add	 esp, 4
  0043c	2d 87 03 00 00	 sub	 eax, 903		; 00000387H
  00441	74 45		 je	 SHORT $LN22@ReceiveNot
  00443	83 e8 01	 sub	 eax, 1
  00446	75 53		 jne	 SHORT $LN8@ReceiveNot

; 1018 : 		break;
; 1019 : 	case 904:	//(tr)
; 1020 : 		strJmNum.Format("%06d", atoi(strData));

  00448	ff b5 24 fc ff
	ff		 push	 DWORD PTR _strData$[ebp]
  0044e	ff d6		 call	 esi
  00450	50		 push	 eax
  00451	8d 85 f8 fb ff
	ff		 lea	 eax, DWORD PTR _strJmNum$[ebp]
  00457	68 00 00 00 00	 push	 OFFSET ??_C@_04OBKAGHLG@?$CF06d@
  0045c	50		 push	 eax
  0045d	ff 15 00 00 00
	00		 call	 DWORD PTR __imp_?Format@?$CStringT@DV?$StrTraitMFC_DLL@DV?$ChTraitsCRT@D@ATL@@@@@ATL@@QAAXPBDZZ

; 1021 : 		memcpy(OrderInfo.szCustItem2, (LPCTSTR)strJmNum, min(strJmNum.GetLength(), sizeof(OrderInfo.szCustItem2)));

  00463	8b 85 f8 fb ff
	ff		 mov	 eax, DWORD PTR _strJmNum$[ebp]
  00469	ba 0e 00 00 00	 mov	 edx, 14			; 0000000eH
  0046e	39 50 f4	 cmp	 DWORD PTR [eax-12], edx
  00471	0f 42 50 f4	 cmovb	 edx, DWORD PTR [eax-12]
  00475	52		 push	 edx
  00476	50		 push	 eax
  00477	8d 85 5a fd ff
	ff		 lea	 eax, DWORD PTR _OrderInfo$[ebp+306]
  0047d	50		 push	 eax
  0047e	e8 00 00 00 00	 call	 _memcpy
  00483	83 c4 1c	 add	 esp, 28			; 0000001cH
  00486	eb 13		 jmp	 SHORT $LN8@ReceiveNot
$LN22@ReceiveNot:

; 1015 : 	{
; 1016 : 	case 903:	//Rts(tr)
; 1017 : 		strRtsCode  = strData;

  00488	8d 85 24 fc ff
	ff		 lea	 eax, DWORD PTR _strData$[ebp]
  0048e	50		 push	 eax
  0048f	8d 8d ec fb ff
	ff		 lea	 ecx, DWORD PTR _strRtsCode$[ebp]
  00495	ff 15 00 00 00
	00		 call	 DWORD PTR __imp_??4?$CStringT@DV?$StrTraitMFC_DLL@DV?$ChTraitsCRT@D@ATL@@@@@ATL@@QAEAAV01@ABV01@@Z
$LN8@ReceiveNot:

; 1022 : 		break;
; 1023 : 	}	
; 1024 : 	//---------------------------- 			
; 1025 : 
; 1026 : 
; 1027 : 	CString strType = "", strMGB="";

  0049b	68 00 00 00 00	 push	 OFFSET ??_C@_00CNPNBAHC@@
  004a0	8d 8d 18 fc ff
	ff		 lea	 ecx, DWORD PTR _strType$[ebp]
  004a6	ff 15 00 00 00
	00		 call	 DWORD PTR __imp_??0?$CStringT@DV?$StrTraitMFC_DLL@DV?$ChTraitsCRT@D@ATL@@@@@ATL@@QAE@PBD@Z
  004ac	68 00 00 00 00	 push	 OFFSET ??_C@_00CNPNBAHC@@
  004b1	8d 8d 08 fc ff
	ff		 lea	 ecx, DWORD PTR _strMGB$[ebp]
  004b7	ff 15 00 00 00
	00		 call	 DWORD PTR __imp_??0?$CStringT@DV?$StrTraitMFC_DLL@DV?$ChTraitsCRT@D@ATL@@@@@ATL@@QAE@PBD@Z
; File C:\Program Files (x86)\Microsoft Visual Studio\2019\Community\VC\Tools\MSVC\14.29.30133\atlmfc\include\afxcoll.inl

; 306  : 		if( nIndex < 0 || nIndex >= m_nSize )

  004bd	83 bd d4 fb ff
	ff 01		 cmp	 DWORD PTR _arList$[ebp+8], 1
  004c4	0f 8e 72 05 00
	00		 jle	 $LN370@ReceiveNot

; 308  : 		return m_pData[nIndex]; }

  004ca	8b 85 d0 fb ff
	ff		 mov	 eax, DWORD PTR _arList$[ebp+4]
; File D:\git\src\IBK\IBK_DRFN\ProjSrc\SrcDrfn\DrCommon\PartnerMng\_PartnerManager.cpp

; 1028 : 	strNotice = arList[1];

  004d0	8d 8d 20 fc ff
	ff		 lea	 ecx, DWORD PTR _strNotice$[ebp]
; File C:\Program Files (x86)\Microsoft Visual Studio\2019\Community\VC\Tools\MSVC\14.29.30133\atlmfc\include\afxcoll.inl

; 308  : 		return m_pData[nIndex]; }

  004d6	83 c0 04	 add	 eax, 4
; File D:\git\src\IBK\IBK_DRFN\ProjSrc\SrcDrfn\DrCommon\PartnerMng\_PartnerManager.cpp

; 1028 : 	strNotice = arList[1];

  004d9	50		 push	 eax
  004da	ff 15 00 00 00
	00		 call	 DWORD PTR __imp_??4?$CStringT@DV?$StrTraitMFC_DLL@DV?$ChTraitsCRT@D@ATL@@@@@ATL@@QAEAAV01@ABV01@@Z
; File C:\Program Files (x86)\Microsoft Visual Studio\2019\Community\VC\Tools\MSVC\14.29.30133\atlmfc\include\atlsimpstr.h

; 533  : 		return( GetLength() == 0 );

  004e0	8b 85 20 fc ff
	ff		 mov	 eax, DWORD PTR _strNotice$[ebp]
  004e6	83 78 f4 00	 cmp	 DWORD PTR [eax-12], 0
; File D:\git\src\IBK\IBK_DRFN\ProjSrc\SrcDrfn\DrCommon\PartnerMng\_PartnerManager.cpp

; 1029 : 	while(!strNotice.IsEmpty())

  004ea	0f 84 3c 04 00
	00		 je	 $LN11@ReceiveNot
$LL10@ReceiveNot:

; 1030 : 	{
; 1031 : 		strSymbol = CDataConverter::Parser(strNotice, '\t');

  004f0	51		 push	 ecx
  004f1	8b cc		 mov	 ecx, esp
  004f3	6a 01		 push	 1
  004f5	6a 09		 push	 9
  004f7	ff 15 00 00 00
	00		 call	 DWORD PTR __imp_??0?$CStringT@DV?$StrTraitMFC_DLL@DV?$ChTraitsCRT@D@ATL@@@@@ATL@@QAE@DH@Z
  004fd	8d 85 20 fc ff
	ff		 lea	 eax, DWORD PTR _strNotice$[ebp]
  00503	50		 push	 eax
  00504	8d 85 1c fc ff
	ff		 lea	 eax, DWORD PTR $T5[ebp]
  0050a	50		 push	 eax
  0050b	e8 00 00 00 00	 call	 ?Parser@CDataConverter@@SA?AV?$CStringT@DV?$StrTraitMFC_DLL@DV?$ChTraitsCRT@D@ATL@@@@@ATL@@AAV23@V23@@Z ; CDataConverter::Parser
  00510	83 c4 0c	 add	 esp, 12			; 0000000cH
  00513	8d 8d 14 fc ff
	ff		 lea	 ecx, DWORD PTR _strSymbol$[ebp]
  00519	50		 push	 eax
  0051a	ff 15 00 00 00
	00		 call	 DWORD PTR __imp_??4?$CStringT@DV?$StrTraitMFC_DLL@DV?$ChTraitsCRT@D@ATL@@@@@ATL@@QAEAAV01@ABV01@@Z
  00520	8d 8d 1c fc ff
	ff		 lea	 ecx, DWORD PTR $T5[ebp]
  00526	ff 15 00 00 00
	00		 call	 DWORD PTR __imp_??1?$CStringT@DV?$StrTraitMFC_DLL@DV?$ChTraitsCRT@D@ATL@@@@@ATL@@QAE@XZ

; 1032 : 		strData	  = CDataConverter::Parser(strNotice, '\t');

  0052c	51		 push	 ecx
  0052d	8b cc		 mov	 ecx, esp
  0052f	6a 01		 push	 1
  00531	6a 09		 push	 9
  00533	ff 15 00 00 00
	00		 call	 DWORD PTR __imp_??0?$CStringT@DV?$StrTraitMFC_DLL@DV?$ChTraitsCRT@D@ATL@@@@@ATL@@QAE@DH@Z
  00539	8d 85 20 fc ff
	ff		 lea	 eax, DWORD PTR _strNotice$[ebp]
  0053f	50		 push	 eax
  00540	8d 85 10 fc ff
	ff		 lea	 eax, DWORD PTR $T1[ebp]
  00546	50		 push	 eax
  00547	e8 00 00 00 00	 call	 ?Parser@CDataConverter@@SA?AV?$CStringT@DV?$StrTraitMFC_DLL@DV?$ChTraitsCRT@D@ATL@@@@@ATL@@AAV23@V23@@Z ; CDataConverter::Parser
  0054c	83 c4 0c	 add	 esp, 12			; 0000000cH
  0054f	8d 8d 24 fc ff
	ff		 lea	 ecx, DWORD PTR _strData$[ebp]
  00555	50		 push	 eax
  00556	ff 15 00 00 00
	00		 call	 DWORD PTR __imp_??4?$CStringT@DV?$StrTraitMFC_DLL@DV?$ChTraitsCRT@D@ATL@@@@@ATL@@QAEAAV01@ABV01@@Z
  0055c	8d 8d 10 fc ff
	ff		 lea	 ecx, DWORD PTR $T1[ebp]
  00562	ff 15 00 00 00
	00		 call	 DWORD PTR __imp_??1?$CStringT@DV?$StrTraitMFC_DLL@DV?$ChTraitsCRT@D@ATL@@@@@ATL@@QAE@XZ

; 1033 : 		
; 1034 : 		switch (atoi(strSymbol))

  00568	ff b5 14 fc ff
	ff		 push	 DWORD PTR _strSymbol$[ebp]
  0056e	ff d6		 call	 esi
  00570	83 c4 04	 add	 esp, 4
  00573	3d 89 03 00 00	 cmp	 eax, 905		; 00000389H
  00578	7f 63		 jg	 SHORT $LN90@ReceiveNot
  0057a	74 29		 je	 SHORT $LN25@ReceiveNot
  0057c	83 f8 15	 cmp	 eax, 21			; 00000015H
  0057f	0f 85 97 03 00
	00		 jne	 $LN12@ReceiveNot

; 1035 : 		{
; 1036 : 		case 21:   //
; 1037 : 			memcpy(OrderInfo.SHCODE, (LPCTSTR)strData, min(strData.GetLength(), sizeof(OrderInfo.SHCODE)));

  00585	8b 85 24 fc ff
	ff		 mov	 eax, DWORD PTR _strData$[ebp]
  0058b	ba 0c 00 00 00	 mov	 edx, 12			; 0000000cH
  00590	8b 48 f4	 mov	 ecx, DWORD PTR [eax-12]
  00593	3b ca		 cmp	 ecx, edx
  00595	0f 42 d1	 cmovb	 edx, ecx
  00598	52		 push	 edx
  00599	50		 push	 eax
  0059a	8d 85 3f fc ff
	ff		 lea	 eax, DWORD PTR _OrderInfo$[ebp+23]

; 1038 : 			break;

  005a0	e9 6e 03 00 00	 jmp	 $LN376@ReceiveNot
$LN25@ReceiveNot:

; 1039 : 		case 905:	//
; 1040 : 			strData.TrimLeft();		strData.TrimRight();

  005a5	8d 8d 24 fc ff
	ff		 lea	 ecx, DWORD PTR _strData$[ebp]
  005ab	ff 15 00 00 00
	00		 call	 DWORD PTR __imp_?TrimLeft@?$CStringT@DV?$StrTraitMFC_DLL@DV?$ChTraitsCRT@D@ATL@@@@@ATL@@QAEAAV12@XZ
  005b1	8d 8d 24 fc ff
	ff		 lea	 ecx, DWORD PTR _strData$[ebp]
  005b7	ff 15 00 00 00
	00		 call	 DWORD PTR __imp_?TrimRight@?$CStringT@DV?$StrTraitMFC_DLL@DV?$ChTraitsCRT@D@ATL@@@@@ATL@@QAEAAV12@XZ

; 1041 : 			memcpy(OrderInfo.szOrgCustItem2, (LPCTSTR)strData, min(strData.GetLength(), sizeof(OrderInfo.szOrgCustItem2)));

  005bd	8b 85 24 fc ff
	ff		 mov	 eax, DWORD PTR _strData$[ebp]
  005c3	ba 0e 00 00 00	 mov	 edx, 14			; 0000000eH
  005c8	8b 48 f4	 mov	 ecx, DWORD PTR [eax-12]
  005cb	3b ca		 cmp	 ecx, edx
  005cd	0f 42 d1	 cmovb	 edx, ecx
  005d0	52		 push	 edx
  005d1	50		 push	 eax
  005d2	8d 85 0a fd ff
	ff		 lea	 eax, DWORD PTR _OrderInfo$[ebp+226]

; 1042 : 			break;

  005d8	e9 36 03 00 00	 jmp	 $LN376@ReceiveNot
$LN90@ReceiveNot:

; 1033 : 		
; 1034 : 		switch (atoi(strSymbol))

  005dd	2d 8d 03 00 00	 sub	 eax, 909		; 0000038dH
  005e2	83 f8 57	 cmp	 eax, 87			; 00000057H
  005e5	0f 87 31 03 00
	00		 ja	 $LN12@ReceiveNot
  005eb	0f b6 80 00 00
	00 00		 movzx	 eax, BYTE PTR $LN373@ReceiveNot[eax]
  005f2	ff 24 85 00 00
	00 00		 jmp	 DWORD PTR $LN374@ReceiveNot[eax*4]
$LN26@ReceiveNot:

; 1043 : 		case 948:	//
; 1044 : 			strData.TrimLeft();		strData.TrimRight();

  005f9	8d 8d 24 fc ff
	ff		 lea	 ecx, DWORD PTR _strData$[ebp]
  005ff	ff 15 00 00 00
	00		 call	 DWORD PTR __imp_?TrimLeft@?$CStringT@DV?$StrTraitMFC_DLL@DV?$ChTraitsCRT@D@ATL@@@@@ATL@@QAEAAV12@XZ
  00605	8d 8d 24 fc ff
	ff		 lea	 ecx, DWORD PTR _strData$[ebp]
  0060b	ff 15 00 00 00
	00		 call	 DWORD PTR __imp_?TrimRight@?$CStringT@DV?$StrTraitMFC_DLL@DV?$ChTraitsCRT@D@ATL@@@@@ATL@@QAEAAV12@XZ

; 1045 : 			memcpy(OrderInfo.szFXCMPosID, (LPCTSTR)strData, min(strData.GetLength(), sizeof(OrderInfo.szFXCMPosID)));

  00611	8b 85 24 fc ff
	ff		 mov	 eax, DWORD PTR _strData$[ebp]
  00617	ba 14 00 00 00	 mov	 edx, 20			; 00000014H
  0061c	8b 48 f4	 mov	 ecx, DWORD PTR [eax-12]
  0061f	3b ca		 cmp	 ecx, edx
  00621	0f 42 d1	 cmovb	 edx, ecx
  00624	52		 push	 edx
  00625	50		 push	 eax
  00626	8d 85 5d ff ff
	ff		 lea	 eax, DWORD PTR _OrderInfo$[ebp+821]

; 1046 : 			break;

  0062c	e9 e2 02 00 00	 jmp	 $LN376@ReceiveNot
$LN27@ReceiveNot:

; 1047 : 		case 950:	//
; 1048 : 			strData.TrimLeft();		strData.TrimRight();

  00631	8d 8d 24 fc ff
	ff		 lea	 ecx, DWORD PTR _strData$[ebp]
  00637	ff 15 00 00 00
	00		 call	 DWORD PTR __imp_?TrimLeft@?$CStringT@DV?$StrTraitMFC_DLL@DV?$ChTraitsCRT@D@ATL@@@@@ATL@@QAEAAV12@XZ
  0063d	8d 8d 24 fc ff
	ff		 lea	 ecx, DWORD PTR _strData$[ebp]
  00643	ff 15 00 00 00
	00		 call	 DWORD PTR __imp_?TrimRight@?$CStringT@DV?$StrTraitMFC_DLL@DV?$ChTraitsCRT@D@ATL@@@@@ATL@@QAEAAV12@XZ

; 1049 : 			memcpy(OrderInfo.szPositionID, (LPCTSTR)strData, min(strData.GetLength(), sizeof(OrderInfo.szPositionID)));

  00649	8b 85 24 fc ff
	ff		 mov	 eax, DWORD PTR _strData$[ebp]
  0064f	ba 14 00 00 00	 mov	 edx, 20			; 00000014H
  00654	8b 48 f4	 mov	 ecx, DWORD PTR [eax-12]
  00657	3b ca		 cmp	 ecx, edx
  00659	0f 42 d1	 cmovb	 edx, ecx
  0065c	52		 push	 edx
  0065d	50		 push	 eax
  0065e	8d 85 71 ff ff
	ff		 lea	 eax, DWORD PTR _OrderInfo$[ebp+841]

; 1050 : 			break;

  00664	e9 aa 02 00 00	 jmp	 $LN376@ReceiveNot
$LN28@ReceiveNot:

; 1051 : 		case 918:   // 11:, 12:, 13:
; 1052 : 			strType = strData;

  00669	8d 85 24 fc ff
	ff		 lea	 eax, DWORD PTR _strData$[ebp]
  0066f	50		 push	 eax
  00670	8d 8d 18 fc ff
	ff		 lea	 ecx, DWORD PTR _strType$[ebp]
  00676	ff 15 00 00 00
	00		 call	 DWORD PTR __imp_??4?$CStringT@DV?$StrTraitMFC_DLL@DV?$ChTraitsCRT@D@ATL@@@@@ATL@@QAEAAV01@ABV01@@Z

; 1053 : 			strType.TrimLeft();		strType.TrimRight();

  0067c	8d 8d 18 fc ff
	ff		 lea	 ecx, DWORD PTR _strType$[ebp]
  00682	ff 15 00 00 00
	00		 call	 DWORD PTR __imp_?TrimLeft@?$CStringT@DV?$StrTraitMFC_DLL@DV?$ChTraitsCRT@D@ATL@@@@@ATL@@QAEAAV12@XZ
  00688	8d 8d 18 fc ff
	ff		 lea	 ecx, DWORD PTR _strType$[ebp]
  0068e	ff 15 00 00 00
	00		 call	 DWORD PTR __imp_?TrimRight@?$CStringT@DV?$StrTraitMFC_DLL@DV?$ChTraitsCRT@D@ATL@@@@@ATL@@QAEAAV12@XZ

; 1054 : 			memcpy(OrderInfo.szTradeType, strType, min(sizeof(OrderInfo.szTradeType), strType.GetLength()));

  00694	8b 85 18 fc ff
	ff		 mov	 eax, DWORD PTR _strType$[ebp]
  0069a	ba 03 00 00 00	 mov	 edx, 3
  0069f	8b 48 f4	 mov	 ecx, DWORD PTR [eax-12]
  006a2	83 f9 03	 cmp	 ecx, 3
  006a5	0f 47 ca	 cmova	 ecx, edx
  006a8	51		 push	 ecx
  006a9	50		 push	 eax
  006aa	8d 85 2f ff ff
	ff		 lea	 eax, DWORD PTR _OrderInfo$[ebp+775]

; 1055 : 			break;		

  006b0	e9 5e 02 00 00	 jmp	 $LN376@ReceiveNot
$LN29@ReceiveNot:

; 1056 : 		case 912:   ///  "-"/"+"
; 1057 : 			strMGB = strData;

  006b5	8d 85 24 fc ff
	ff		 lea	 eax, DWORD PTR _strData$[ebp]
  006bb	50		 push	 eax
  006bc	8d 8d 08 fc ff
	ff		 lea	 ecx, DWORD PTR _strMGB$[ebp]
  006c2	ff 15 00 00 00
	00		 call	 DWORD PTR __imp_??4?$CStringT@DV?$StrTraitMFC_DLL@DV?$ChTraitsCRT@D@ATL@@@@@ATL@@QAEAAV01@ABV01@@Z

; 1058 : 			strMGB.TrimLeft();		strMGB.TrimRight();

  006c8	8d 8d 08 fc ff
	ff		 lea	 ecx, DWORD PTR _strMGB$[ebp]
  006ce	ff 15 00 00 00
	00		 call	 DWORD PTR __imp_?TrimLeft@?$CStringT@DV?$StrTraitMFC_DLL@DV?$ChTraitsCRT@D@ATL@@@@@ATL@@QAEAAV12@XZ
  006d4	8d 8d 08 fc ff
	ff		 lea	 ecx, DWORD PTR _strMGB$[ebp]
  006da	ff 15 00 00 00
	00		 call	 DWORD PTR __imp_?TrimRight@?$CStringT@DV?$StrTraitMFC_DLL@DV?$ChTraitsCRT@D@ATL@@@@@ATL@@QAEAAV12@XZ

; 1059 : 			//if( strData == "+" )			memcpy(OrderInfo.szSide, "079", 3);
; 1060 : 			//else								memcpy(OrderInfo.szSide, "081", 3);
; 1061 : 			break;		

  006e0	e9 37 02 00 00	 jmp	 $LN12@ReceiveNot
$LN30@ReceiveNot:

; 1062 : 		case 996:	// . 
; 1063 : 			// 01:,02:,03:,04:,05:(),06:,07:(),08:,15:(),17:()
; 1064 : 			strData.TrimLeft();		strData.TrimRight();

  006e5	8d 8d 24 fc ff
	ff		 lea	 ecx, DWORD PTR _strData$[ebp]
  006eb	ff 15 00 00 00
	00		 call	 DWORD PTR __imp_?TrimLeft@?$CStringT@DV?$StrTraitMFC_DLL@DV?$ChTraitsCRT@D@ATL@@@@@ATL@@QAEAAV12@XZ
  006f1	8d 8d 24 fc ff
	ff		 lea	 ecx, DWORD PTR _strData$[ebp]
  006f7	ff 15 00 00 00
	00		 call	 DWORD PTR __imp_?TrimRight@?$CStringT@DV?$StrTraitMFC_DLL@DV?$ChTraitsCRT@D@ATL@@@@@ATL@@QAEAAV12@XZ
; File C:\Program Files (x86)\Microsoft Visual Studio\2019\Community\VC\Tools\MSVC\14.29.30133\atlmfc\include\cstringt.h

; 2486 : 		return(str1.Compare(psz2) == 0);

  006fd	68 00 00 00 00	 push	 OFFSET ??_C@_02DDEKHPIG@08@
  00702	8d 8d 24 fc ff
	ff		 lea	 ecx, DWORD PTR _strData$[ebp]
  00708	ff 15 00 00 00
	00		 call	 DWORD PTR __imp_?Compare@?$CStringT@DV?$StrTraitMFC_DLL@DV?$ChTraitsCRT@D@ATL@@@@@ATL@@QBEHPBD@Z
  0070e	85 c0		 test	 eax, eax
; File D:\git\src\IBK\IBK_DRFN\ProjSrc\SrcDrfn\DrCommon\PartnerMng\_PartnerManager.cpp

; 1065 : 			if( strData == "08" )		return TRUE;

  00710	0f 84 ec 02 00
	00		 je	 $LN95@ReceiveNot
; File C:\Program Files (x86)\Microsoft Visual Studio\2019\Community\VC\Tools\MSVC\14.29.30133\atlmfc\include\cstringt.h

; 2486 : 		return(str1.Compare(psz2) == 0);

  00716	68 00 00 00 00	 push	 OFFSET ??_C@_02NALOKGEN@03@
  0071b	8d 8d 24 fc ff
	ff		 lea	 ecx, DWORD PTR _strData$[ebp]
  00721	ff 15 00 00 00
	00		 call	 DWORD PTR __imp_?Compare@?$CStringT@DV?$StrTraitMFC_DLL@DV?$ChTraitsCRT@D@ATL@@@@@ATL@@QBEHPBD@Z
; File D:\git\src\IBK\IBK_DRFN\ProjSrc\SrcDrfn\DrCommon\PartnerMng\_PartnerManager.cpp

; 1067 : 			if( strData == "03" )			memcpy(OrderInfo.szKeyType, "CH01", 4);	//

  00727	f7 d8		 neg	 eax

; 1068 : 			else							memcpy(OrderInfo.szKeyType, "OR01", 4);	//
; 1069 : 
; 1070 : 			memcpy(OrderInfo.szStatus, strData, min(sizeof(OrderInfo.szStatus), strData.GetLength()));

  00729	ba 02 00 00 00	 mov	 edx, 2
  0072e	1b c0		 sbb	 eax, eax
  00730	25 0c 0a 00 00	 and	 eax, 2572		; 00000a0cH
  00735	05 43 48 30 31	 add	 eax, 825247811		; 31304843H
  0073a	89 85 28 fc ff
	ff		 mov	 DWORD PTR _OrderInfo$[ebp], eax
  00740	8b 85 24 fc ff
	ff		 mov	 eax, DWORD PTR _strData$[ebp]
  00746	8b 48 f4	 mov	 ecx, DWORD PTR [eax-12]
  00749	83 f9 02	 cmp	 ecx, 2
  0074c	0f 47 ca	 cmova	 ecx, edx
  0074f	51		 push	 ecx
  00750	50		 push	 eax
  00751	8d 45 85	 lea	 eax, DWORD PTR _OrderInfo$[ebp+861]

; 1071 : 			break;				

  00754	e9 ba 01 00 00	 jmp	 $LN376@ReceiveNot
$LN34@ReceiveNot:

; 1072 : 		case 927:	// .	(1:   2: 3: 4:STOP-LIMIT 5:OCO V:)
; 1073 : 			memcpy(OrderInfo.szOrdType, strData, min(sizeof(OrderInfo.szOrdType), strData.GetLength()));

  00759	8b 85 24 fc ff
	ff		 mov	 eax, DWORD PTR _strData$[ebp]
  0075f	ba 05 00 00 00	 mov	 edx, 5
  00764	8b 48 f4	 mov	 ecx, DWORD PTR [eax-12]
  00767	83 f9 05	 cmp	 ecx, 5
  0076a	0f 47 ca	 cmova	 ecx, edx
  0076d	51		 push	 ecx
  0076e	50		 push	 eax
  0076f	8d 85 3a fc ff
	ff		 lea	 eax, DWORD PTR _OrderInfo$[ebp+18]

; 1074 : 			break;

  00775	e9 99 01 00 00	 jmp	 $LN376@ReceiveNot
$LN35@ReceiveNot:

; 1075 : 		case 941:	// 
; 1076 : 			if( nContract == 2 )	//

  0077a	83 ff 02	 cmp	 edi, 2
  0077d	0f 85 99 01 00
	00		 jne	 $LN12@ReceiveNot
$LN41@ReceiveNot:
; File C:\Program Files (x86)\Microsoft Visual Studio\2019\Community\VC\Tools\MSVC\14.29.30133\atlmfc\include\atlsimpstr.h

; 533  : 		return( GetLength() == 0 );

  00783	8b 85 24 fc ff
	ff		 mov	 eax, DWORD PTR _strData$[ebp]
  00789	ba 1e 00 00 00	 mov	 edx, 30			; 0000001eH
  0078e	8b 48 f4	 mov	 ecx, DWORD PTR [eax-12]
  00791	83 f9 1e	 cmp	 ecx, 30			; 0000001eH
  00794	0f 47 ca	 cmova	 ecx, edx
  00797	51		 push	 ecx
  00798	50		 push	 eax
  00799	8d 85 e1 fc ff
	ff		 lea	 eax, DWORD PTR _OrderInfo$[ebp+185]
  0079f	e9 6f 01 00 00	 jmp	 $LN376@ReceiveNot
$LN37@ReceiveNot:
; File D:\git\src\IBK\IBK_DRFN\ProjSrc\SrcDrfn\DrCommon\PartnerMng\_PartnerManager.cpp

; 1080 : 			memcpy(OrderInfo.szOpenTime, strData, min(sizeof(OrderInfo.szOpenTime), strData.GetLength()));

  007a4	8b 85 24 fc ff
	ff		 mov	 eax, DWORD PTR _strData$[ebp]
  007aa	ba 1e 00 00 00	 mov	 edx, 30			; 0000001eH
  007af	8b 48 f4	 mov	 ecx, DWORD PTR [eax-12]
  007b2	83 f9 1e	 cmp	 ecx, 30			; 0000001eH
  007b5	0f 47 ca	 cmova	 ecx, edx
  007b8	51		 push	 ecx
  007b9	50		 push	 eax
  007ba	8d 85 a5 fc ff
	ff		 lea	 eax, DWORD PTR _OrderInfo$[ebp+125]

; 1081 : 			break;

  007c0	e9 4e 01 00 00	 jmp	 $LN376@ReceiveNot
$LN38@ReceiveNot:

; 1082 : 		case 909:	// 
; 1083 : 			OrderInfo.fOrderAmt = atof(strData);

  007c5	ff b5 24 fc ff
	ff		 push	 DWORD PTR _strData$[ebp]
  007cb	ff 15 00 00 00
	00		 call	 DWORD PTR __imp__atof
  007d1	dd 5d 9c	 fstp	 QWORD PTR _OrderInfo$[ebp+884]
  007d4	83 c4 04	 add	 esp, 4

; 1084 : 			break;

  007d7	e9 40 01 00 00	 jmp	 $LN12@ReceiveNot
$LN39@ReceiveNot:

; 1085 : 		case 910:	// 
; 1086 : 			strData.TrimLeft();		strData.TrimRight();

  007dc	8d 8d 24 fc ff
	ff		 lea	 ecx, DWORD PTR _strData$[ebp]
  007e2	ff 15 00 00 00
	00		 call	 DWORD PTR __imp_?TrimLeft@?$CStringT@DV?$StrTraitMFC_DLL@DV?$ChTraitsCRT@D@ATL@@@@@ATL@@QAEAAV12@XZ
  007e8	8d 8d 24 fc ff
	ff		 lea	 ecx, DWORD PTR _strData$[ebp]
  007ee	ff 15 00 00 00
	00		 call	 DWORD PTR __imp_?TrimRight@?$CStringT@DV?$StrTraitMFC_DLL@DV?$ChTraitsCRT@D@ATL@@@@@ATL@@QAEAAV12@XZ
; File C:\Program Files (x86)\Microsoft Visual Studio\2019\Community\VC\Tools\MSVC\14.29.30133\atlmfc\include\atlsimpstr.h

; 533  : 		return( GetLength() == 0 );

  007f4	8b 85 24 fc ff
	ff		 mov	 eax, DWORD PTR _strData$[ebp]
  007fa	83 78 f4 00	 cmp	 DWORD PTR [eax-12], 0
; File D:\git\src\IBK\IBK_DRFN\ProjSrc\SrcDrfn\DrCommon\PartnerMng\_PartnerManager.cpp

; 1087 : 			if( !strData.IsEmpty() && atof(strData) != 0.0 )

  007fe	0f 84 18 01 00
	00		 je	 $LN12@ReceiveNot
  00804	50		 push	 eax
  00805	ff 15 00 00 00
	00		 call	 DWORD PTR __imp__atof
  0080b	dd 9d fc fb ff
	ff		 fstp	 QWORD PTR tv1569[ebp]
  00811	f2 0f 10 85 fc
	fb ff ff	 movsd	 xmm0, QWORD PTR tv1569[ebp]
  00819	83 c4 04	 add	 esp, 4
  0081c	0f 57 c9	 xorps	 xmm1, xmm1
  0081f	66 0f 2e c1	 ucomisd xmm0, xmm1
  00823	9f		 lahf
  00824	f6 c4 44	 test	 ah, 68			; 00000044H
  00827	0f 8b ef 00 00
	00		 jnp	 $LN12@ReceiveNot

; 1088 : 				memcpy(OrderInfo.szRate, strData, min(sizeof(OrderInfo.szRate), strData.GetLength()));

  0082d	8b 85 24 fc ff
	ff		 mov	 eax, DWORD PTR _strData$[ebp]
  00833	ba 0a 00 00 00	 mov	 edx, 10			; 0000000aH
  00838	8b 48 f4	 mov	 ecx, DWORD PTR [eax-12]
  0083b	83 f9 0a	 cmp	 ecx, 10			; 0000000aH
  0083e	0f 47 ca	 cmova	 ecx, edx
  00841	51		 push	 ecx
  00842	50		 push	 eax
  00843	8d 85 5f fc ff
	ff		 lea	 eax, DWORD PTR _OrderInfo$[ebp+55]

; 1089 : 			break;

  00849	e9 c5 00 00 00	 jmp	 $LN376@ReceiveNot
$LN42@ReceiveNot:

; 1090 : 		case 940:	// 
; 1091 : 			memcpy(OrderInfo.szExeTime, strData, min(sizeof(OrderInfo.szExeTime), strData.GetLength()));
; 1092 : 			break;
; 1093 : 		case 923:	// 
; 1094 : 			memcpy(&OrderInfo.szExeTime[8], strData, min(sizeof(OrderInfo.szExeTime)-8, strData.GetLength()));

  0084e	8b 85 24 fc ff
	ff		 mov	 eax, DWORD PTR _strData$[ebp]
  00854	ba 16 00 00 00	 mov	 edx, 22			; 00000016H
  00859	8b 48 f4	 mov	 ecx, DWORD PTR [eax-12]
  0085c	83 f9 16	 cmp	 ecx, 22			; 00000016H
  0085f	0f 47 ca	 cmova	 ecx, edx
  00862	51		 push	 ecx
  00863	50		 push	 eax
  00864	8d 85 e9 fc ff
	ff		 lea	 eax, DWORD PTR _OrderInfo$[ebp+193]

; 1095 : 			break;

  0086a	e9 a4 00 00 00	 jmp	 $LN376@ReceiveNot
$LN43@ReceiveNot:

; 1096 : 		case 936:	// 
; 1097 : 			OrderInfo.fAmount = atof(strData);

  0086f	ff b5 24 fc ff
	ff		 push	 DWORD PTR _strData$[ebp]
  00875	ff 15 00 00 00
	00		 call	 DWORD PTR __imp__atof
  0087b	dd 5d 94	 fstp	 QWORD PTR _OrderInfo$[ebp+876]
  0087e	83 c4 04	 add	 esp, 4

; 1098 : 			break;

  00881	e9 96 00 00 00	 jmp	 $LN12@ReceiveNot
$LN44@ReceiveNot:
; File C:\Program Files (x86)\Microsoft Visual Studio\2019\Community\VC\Tools\MSVC\14.29.30133\atlmfc\include\atlsimpstr.h

; 533  : 		return( GetLength() == 0 );

  00886	8b 85 24 fc ff
	ff		 mov	 eax, DWORD PTR _strData$[ebp]
  0088c	83 78 f4 00	 cmp	 DWORD PTR [eax-12], 0
; File D:\git\src\IBK\IBK_DRFN\ProjSrc\SrcDrfn\DrCommon\PartnerMng\_PartnerManager.cpp

; 1100 : 			if( !strData.IsEmpty() && atof(strData) != 0.0 )

  00890	0f 84 86 00 00
	00		 je	 $LN12@ReceiveNot
  00896	50		 push	 eax
  00897	ff 15 00 00 00
	00		 call	 DWORD PTR __imp__atof
  0089d	dd 9d fc fb ff
	ff		 fstp	 QWORD PTR tv1549[ebp]
  008a3	f2 0f 10 85 fc
	fb ff ff	 movsd	 xmm0, QWORD PTR tv1549[ebp]
  008ab	83 c4 04	 add	 esp, 4
  008ae	0f 57 c9	 xorps	 xmm1, xmm1
  008b1	66 0f 2e c1	 ucomisd xmm0, xmm1
  008b5	9f		 lahf
  008b6	f6 c4 44	 test	 ah, 68			; 00000044H
  008b9	7b 61		 jnp	 SHORT $LN12@ReceiveNot

; 1101 : 				memcpy(OrderInfo.szRate, strData, min(sizeof(OrderInfo.szRate), strData.GetLength()));

  008bb	8b 85 24 fc ff
	ff		 mov	 eax, DWORD PTR _strData$[ebp]
  008c1	ba 0a 00 00 00	 mov	 edx, 10			; 0000000aH
  008c6	8b 48 f4	 mov	 ecx, DWORD PTR [eax-12]
  008c9	83 f9 0a	 cmp	 ecx, 10			; 0000000aH
  008cc	0f 47 ca	 cmova	 ecx, edx
  008cf	51		 push	 ecx
  008d0	50		 push	 eax
  008d1	8d 85 5f fc ff
	ff		 lea	 eax, DWORD PTR _OrderInfo$[ebp+55]

; 1102 : 			break;

  008d7	eb 3a		 jmp	 SHORT $LN376@ReceiveNot
$LN46@ReceiveNot:

; 1103 : 		case 945:	// STOP
; 1104 : 			memcpy(OrderInfo.szStop, strData, min(sizeof(OrderInfo.szStop), strData.GetLength()));

  008d9	8b 85 24 fc ff
	ff		 mov	 eax, DWORD PTR _strData$[ebp]
  008df	ba 0a 00 00 00	 mov	 edx, 10			; 0000000aH
  008e4	8b 48 f4	 mov	 ecx, DWORD PTR [eax-12]
  008e7	83 f9 0a	 cmp	 ecx, 10			; 0000000aH
  008ea	0f 47 ca	 cmova	 ecx, edx
  008ed	51		 push	 ecx
  008ee	50		 push	 eax
  008ef	8d 85 73 fc ff
	ff		 lea	 eax, DWORD PTR _OrderInfo$[ebp+75]

; 1105 : 			break;

  008f5	eb 1c		 jmp	 SHORT $LN376@ReceiveNot
$LN47@ReceiveNot:

; 1106 : 		case 956:	// LIMIT
; 1107 : 			memcpy(OrderInfo.szLimit, strData, min(sizeof(OrderInfo.szLimit), strData.GetLength()));

  008f7	8b 85 24 fc ff
	ff		 mov	 eax, DWORD PTR _strData$[ebp]
  008fd	ba 0a 00 00 00	 mov	 edx, 10			; 0000000aH
  00902	8b 48 f4	 mov	 ecx, DWORD PTR [eax-12]
  00905	83 f9 0a	 cmp	 ecx, 10			; 0000000aH
  00908	0f 47 ca	 cmova	 ecx, edx
  0090b	51		 push	 ecx
  0090c	50		 push	 eax
  0090d	8d 85 7d fc ff
	ff		 lea	 eax, DWORD PTR _OrderInfo$[ebp+85]
$LN376@ReceiveNot:
; File C:\Program Files (x86)\Microsoft Visual Studio\2019\Community\VC\Tools\MSVC\14.29.30133\atlmfc\include\atlsimpstr.h

; 533  : 		return( GetLength() == 0 );

  00913	50		 push	 eax
  00914	e8 00 00 00 00	 call	 _memcpy
  00919	83 c4 0c	 add	 esp, 12			; 0000000cH
$LN12@ReceiveNot:
  0091c	8b 85 20 fc ff
	ff		 mov	 eax, DWORD PTR _strNotice$[ebp]
  00922	83 78 f4 00	 cmp	 DWORD PTR [eax-12], 0
; File D:\git\src\IBK\IBK_DRFN\ProjSrc\SrcDrfn\DrCommon\PartnerMng\_PartnerManager.cpp

; 1029 : 	while(!strNotice.IsEmpty())

  00926	0f 85 c4 fb ff
	ff		 jne	 $LL10@ReceiveNot
$LN11@ReceiveNot:
; File C:\Program Files (x86)\Microsoft Visual Studio\2019\Community\VC\Tools\MSVC\14.29.30133\atlmfc\include\cstringt.h

; 2486 : 		return(str1.Compare(psz2) == 0);

  0092c	68 00 00 00 00	 push	 OFFSET ??_C@_05MMNALHAH@?$CL?$LI?E?$LM?v@
  00931	8d 8d 08 fc ff
	ff		 lea	 ecx, DWORD PTR _strMGB$[ebp]
  00937	ff 15 00 00 00
	00		 call	 DWORD PTR __imp_?Compare@?$CStringT@DV?$StrTraitMFC_DLL@DV?$ChTraitsCRT@D@ATL@@@@@ATL@@QBEHPBD@Z
; File D:\git\src\IBK\IBK_DRFN\ProjSrc\SrcDrfn\DrCommon\PartnerMng\_PartnerManager.cpp

; 1112 : 	if( strMGB == "+" )			

  0093d	8d 8d 18 fc ff
	ff		 lea	 ecx, DWORD PTR _strType$[ebp]
  00943	68 00 00 00 00	 push	 OFFSET ??_C@_02MIGHPNDL@12@
; File C:\Program Files (x86)\Microsoft Visual Studio\2019\Community\VC\Tools\MSVC\14.29.30133\atlmfc\include\cstringt.h

; 2486 : 		return(str1.Compare(psz2) == 0);

  00948	85 c0		 test	 eax, eax
; File D:\git\src\IBK\IBK_DRFN\ProjSrc\SrcDrfn\DrCommon\PartnerMng\_PartnerManager.cpp

; 1112 : 	if( strMGB == "+" )			

  0094a	75 32		 jne	 SHORT $LN48@ReceiveNot
; File C:\Program Files (x86)\Microsoft Visual Studio\2019\Community\VC\Tools\MSVC\14.29.30133\atlmfc\include\cstringt.h

; 2486 : 		return(str1.Compare(psz2) == 0);

  0094c	ff 15 00 00 00
	00		 call	 DWORD PTR __imp_?Compare@?$CStringT@DV?$StrTraitMFC_DLL@DV?$ChTraitsCRT@D@ATL@@@@@ATL@@QBEHPBD@Z
  00952	85 c0		 test	 eax, eax
; File D:\git\src\IBK\IBK_DRFN\ProjSrc\SrcDrfn\DrCommon\PartnerMng\_PartnerManager.cpp

; 1114 : 		if( strType == "12" )		memcpy(OrderInfo.szSide, "082", 3); //""

  00954	75 14		 jne	 SHORT $LN50@ReceiveNot
  00956	66 a1 00 00 00
	00		 mov	 ax, WORD PTR ??_C@_03OJJIDIBL@082@
  0095c	66 89 85 32 ff
	ff ff		 mov	 WORD PTR _OrderInfo$[ebp+778], ax
  00963	a0 02 00 00 00	 mov	 al, BYTE PTR ??_C@_03OJJIDIBL@082@+2
  00968	eb 44		 jmp	 SHORT $LN377@ReceiveNot
$LN50@ReceiveNot:

; 1115 : 		else						memcpy(OrderInfo.szSide, "079", 3);	//""

  0096a	66 a1 00 00 00
	00		 mov	 ax, WORD PTR ??_C@_03BDAKGON@079@
  00970	66 89 85 32 ff
	ff ff		 mov	 WORD PTR _OrderInfo$[ebp+778], ax
  00977	a0 02 00 00 00	 mov	 al, BYTE PTR ??_C@_03BDAKGON@079@+2

; 1116 : 	}

  0097c	eb 30		 jmp	 SHORT $LN377@ReceiveNot
$LN48@ReceiveNot:
; File C:\Program Files (x86)\Microsoft Visual Studio\2019\Community\VC\Tools\MSVC\14.29.30133\atlmfc\include\cstringt.h

; 2486 : 		return(str1.Compare(psz2) == 0);

  0097e	ff 15 00 00 00
	00		 call	 DWORD PTR __imp_?Compare@?$CStringT@DV?$StrTraitMFC_DLL@DV?$ChTraitsCRT@D@ATL@@@@@ATL@@QBEHPBD@Z
  00984	85 c0		 test	 eax, eax
; File D:\git\src\IBK\IBK_DRFN\ProjSrc\SrcDrfn\DrCommon\PartnerMng\_PartnerManager.cpp

; 1119 : 		if( strType == "12" )		memcpy(OrderInfo.szSide, "080", 3);	//""

  00986	75 14		 jne	 SHORT $LN52@ReceiveNot
  00988	66 a1 00 00 00
	00		 mov	 ax, WORD PTR ??_C@_03NLKOFKJJ@080@
  0098e	66 89 85 32 ff
	ff ff		 mov	 WORD PTR _OrderInfo$[ebp+778], ax
  00995	a0 02 00 00 00	 mov	 al, BYTE PTR ??_C@_03NLKOFKJJ@080@+2
  0099a	eb 12		 jmp	 SHORT $LN377@ReceiveNot
$LN52@ReceiveNot:

; 1120 : 		else						memcpy(OrderInfo.szSide, "081", 3); //""

  0099c	66 a1 00 00 00
	00		 mov	 ax, WORD PTR ??_C@_03MCLFGLNI@081@
  009a2	66 89 85 32 ff
	ff ff		 mov	 WORD PTR _OrderInfo$[ebp+778], ax
  009a9	a0 02 00 00 00	 mov	 al, BYTE PTR ??_C@_03MCLFGLNI@081@+2
$LN377@ReceiveNot:

; 1121 : 	}
; 1122 : 
; 1123 : 	//   STOP/LIMIT  
; 1124 : 	if( memcmp(OrderInfo.szKeyType, "OR01", 4) == 0				// 
; 1125 : 			&& OrderInfo.szOrdType[0] == '5'					// OCO
; 1126 : 			&& memcmp(OrderInfo.szTradeType, "12", 2) == 0 )	// 

  009ae	88 85 34 ff ff
	ff		 mov	 BYTE PTR _OrderInfo$[ebp+780], al
  009b4	8d 85 28 fc ff
	ff		 lea	 eax, DWORD PTR _OrderInfo$[ebp]
  009ba	81 38 4f 52 30
	31		 cmp	 DWORD PTR [eax], 825250383 ; 3130524fH
  009c0	75 2b		 jne	 SHORT $LN54@ReceiveNot
  009c2	80 bd 3a fc ff
	ff 35		 cmp	 BYTE PTR _OrderInfo$[ebp+18], 53 ; 00000035H
  009c9	75 22		 jne	 SHORT $LN54@ReceiveNot
  009cb	8b 85 28 fc ff
	ff		 mov	 eax, DWORD PTR _OrderInfo$[ebp]
  009d1	8d b5 2f ff ff
	ff		 lea	 esi, DWORD PTR _OrderInfo$[ebp+775]
  009d7	ba 31 32 00 00	 mov	 edx, 12849		; 00003231H
  009dc	b9 43 4c 53 4c	 mov	 ecx, 1280527427		; 4c534c43H
  009e1	66 39 16	 cmp	 WORD PTR [esi], dx
  009e4	0f 44 c1	 cmove	 eax, ecx
  009e7	89 85 28 fc ff
	ff		 mov	 DWORD PTR _OrderInfo$[ebp], eax
$LN54@ReceiveNot:

; 1127 : 		memcpy(OrderInfo.szKeyType, "CLSL", 4);
; 1128 : 
; 1129 : 	m_pPtSite->ReceiveNoticeData("", (LONG)&OrderInfo);

  009ed	8b 43 20	 mov	 eax, DWORD PTR [ebx+32]
  009f0	8d 95 28 fc ff
	ff		 lea	 edx, DWORD PTR _OrderInfo$[ebp]
  009f6	52		 push	 edx
  009f7	68 00 00 00 00	 push	 OFFSET ??_C@_00CNPNBAHC@@
  009fc	50		 push	 eax
  009fd	8b 08		 mov	 ecx, DWORD PTR [eax]
  009ff	ff 51 18	 call	 DWORD PTR [ecx+24]
$LN95@ReceiveNot:

; 1130 : 
; 1131 : 	return TRUE;

  00a02	8d 8d 08 fc ff
	ff		 lea	 ecx, DWORD PTR _strMGB$[ebp]
  00a08	ff 15 00 00 00
	00		 call	 DWORD PTR __imp_??1?$CStringT@DV?$StrTraitMFC_DLL@DV?$ChTraitsCRT@D@ATL@@@@@ATL@@QAE@XZ
  00a0e	8d 8d 18 fc ff
	ff		 lea	 ecx, DWORD PTR _strType$[ebp]
  00a14	ff 15 00 00 00
	00		 call	 DWORD PTR __imp_??1?$CStringT@DV?$StrTraitMFC_DLL@DV?$ChTraitsCRT@D@ATL@@@@@ATL@@QAE@XZ
  00a1a	8d 8d e4 fb ff
	ff		 lea	 ecx, DWORD PTR _value$[ebp]
  00a20	ff 15 00 00 00
	00		 call	 DWORD PTR __imp_??1?$CStringT@DV?$StrTraitMFC_DLL@DV?$ChTraitsCRT@D@ATL@@@@@ATL@@QAE@XZ
  00a26	8d 8d e0 fb ff
	ff		 lea	 ecx, DWORD PTR _symbol$[ebp]
  00a2c	ff 15 00 00 00
	00		 call	 DWORD PTR __imp_??1?$CStringT@DV?$StrTraitMFC_DLL@DV?$ChTraitsCRT@D@ATL@@@@@ATL@@QAE@XZ
  00a32	be 01 00 00 00	 mov	 esi, 1
  00a37	e9 5f f8 ff ff	 jmp	 $LN94@ReceiveNot
$LN370@ReceiveNot:

; 1132 : }

  00a3c	e8 00 00 00 00	 call	 ?AfxThrowInvalidArgException@@YGXXZ ; AfxThrowInvalidArgException
$LN375@ReceiveNot:
  00a41	0f 1f 00	 npad	 3
$LN372@ReceiveNot:
  00a44	00 00 00 00	 DD	 $LN17@ReceiveNot
  00a48	00 00 00 00	 DD	 $LN18@ReceiveNot
  00a4c	00 00 00 00	 DD	 $LN15@ReceiveNot
  00a50	00 00 00 00	 DD	 $LN16@ReceiveNot
  00a54	00 00 00 00	 DD	 $LN6@ReceiveNot
$LN371@ReceiveNot:
  00a58	00		 DB	 0
  00a59	04		 DB	 4
  00a5a	04		 DB	 4
  00a5b	04		 DB	 4
  00a5c	04		 DB	 4
  00a5d	04		 DB	 4
  00a5e	04		 DB	 4
  00a5f	04		 DB	 4
  00a60	04		 DB	 4
  00a61	04		 DB	 4
  00a62	01		 DB	 1
  00a63	04		 DB	 4
  00a64	04		 DB	 4
  00a65	04		 DB	 4
  00a66	04		 DB	 4
  00a67	04		 DB	 4
  00a68	04		 DB	 4
  00a69	04		 DB	 4
  00a6a	04		 DB	 4
  00a6b	04		 DB	 4
  00a6c	04		 DB	 4
  00a6d	04		 DB	 4
  00a6e	04		 DB	 4
  00a6f	04		 DB	 4
  00a70	04		 DB	 4
  00a71	04		 DB	 4
  00a72	04		 DB	 4
  00a73	04		 DB	 4
  00a74	04		 DB	 4
  00a75	04		 DB	 4
  00a76	04		 DB	 4
  00a77	04		 DB	 4
  00a78	04		 DB	 4
  00a79	04		 DB	 4
  00a7a	04		 DB	 4
  00a7b	04		 DB	 4
  00a7c	04		 DB	 4
  00a7d	04		 DB	 4
  00a7e	04		 DB	 4
  00a7f	04		 DB	 4
  00a80	04		 DB	 4
  00a81	04		 DB	 4
  00a82	04		 DB	 4
  00a83	04		 DB	 4
  00a84	04		 DB	 4
  00a85	04		 DB	 4
  00a86	04		 DB	 4
  00a87	04		 DB	 4
  00a88	04		 DB	 4
  00a89	04		 DB	 4
  00a8a	04		 DB	 4
  00a8b	04		 DB	 4
  00a8c	04		 DB	 4
  00a8d	04		 DB	 4
  00a8e	04		 DB	 4
  00a8f	04		 DB	 4
  00a90	04		 DB	 4
  00a91	04		 DB	 4
  00a92	04		 DB	 4
  00a93	04		 DB	 4
  00a94	04		 DB	 4
  00a95	04		 DB	 4
  00a96	04		 DB	 4
  00a97	04		 DB	 4
  00a98	04		 DB	 4
  00a99	04		 DB	 4
  00a9a	04		 DB	 4
  00a9b	04		 DB	 4
  00a9c	04		 DB	 4
  00a9d	04		 DB	 4
  00a9e	04		 DB	 4
  00a9f	02		 DB	 2
  00aa0	03		 DB	 3
  00aa1	0f 1f 00	 npad	 3
$LN374@ReceiveNot:
  00aa4	00 00 00 00	 DD	 $LN38@ReceiveNot
  00aa8	00 00 00 00	 DD	 $LN39@ReceiveNot
  00aac	00 00 00 00	 DD	 $LN29@ReceiveNot
  00ab0	00 00 00 00	 DD	 $LN44@ReceiveNot
  00ab4	00 00 00 00	 DD	 $LN28@ReceiveNot
  00ab8	00 00 00 00	 DD	 $LN42@ReceiveNot
  00abc	00 00 00 00	 DD	 $LN34@ReceiveNot
  00ac0	00 00 00 00	 DD	 $LN43@ReceiveNot
  00ac4	00 00 00 00	 DD	 $LN41@ReceiveNot
  00ac8	00 00 00 00	 DD	 $LN35@ReceiveNot
  00acc	00 00 00 00	 DD	 $LN46@ReceiveNot
  00ad0	00 00 00 00	 DD	 $LN37@ReceiveNot
  00ad4	00 00 00 00	 DD	 $LN26@ReceiveNot
  00ad8	00 00 00 00	 DD	 $LN27@ReceiveNot
  00adc	00 00 00 00	 DD	 $LN47@ReceiveNot
  00ae0	00 00 00 00	 DD	 $LN30@ReceiveNot
  00ae4	00 00 00 00	 DD	 $LN12@ReceiveNot
$LN373@ReceiveNot:
  00ae8	00		 DB	 0
  00ae9	01		 DB	 1
  00aea	10		 DB	 16			; 00000010H
  00aeb	02		 DB	 2
  00aec	10		 DB	 16			; 00000010H
  00aed	10		 DB	 16			; 00000010H
  00aee	10		 DB	 16			; 00000010H
  00aef	10		 DB	 16			; 00000010H
  00af0	03		 DB	 3
  00af1	04		 DB	 4
  00af2	10		 DB	 16			; 00000010H
  00af3	10		 DB	 16			; 00000010H
  00af4	10		 DB	 16			; 00000010H
  00af5	10		 DB	 16			; 00000010H
  00af6	05		 DB	 5
  00af7	10		 DB	 16			; 00000010H
  00af8	10		 DB	 16			; 00000010H
  00af9	10		 DB	 16			; 00000010H
  00afa	06		 DB	 6
  00afb	10		 DB	 16			; 00000010H
  00afc	10		 DB	 16			; 00000010H
  00afd	10		 DB	 16			; 00000010H
  00afe	10		 DB	 16			; 00000010H
  00aff	10		 DB	 16			; 00000010H
  00b00	10		 DB	 16			; 00000010H
  00b01	10		 DB	 16			; 00000010H
  00b02	10		 DB	 16			; 00000010H
  00b03	07		 DB	 7
  00b04	10		 DB	 16			; 00000010H
  00b05	10		 DB	 16			; 00000010H
  00b06	10		 DB	 16			; 00000010H
  00b07	08		 DB	 8
  00b08	09		 DB	 9
  00b09	10		 DB	 16			; 00000010H
  00b0a	10		 DB	 16			; 00000010H
  00b0b	10		 DB	 16			; 00000010H
  00b0c	0a		 DB	 10			; 0000000aH
  00b0d	10		 DB	 16			; 00000010H
  00b0e	0b		 DB	 11			; 0000000bH
  00b0f	0c		 DB	 12			; 0000000cH
  00b10	10		 DB	 16			; 00000010H
  00b11	0d		 DB	 13			; 0000000dH
  00b12	10		 DB	 16			; 00000010H
  00b13	10		 DB	 16			; 00000010H
  00b14	10		 DB	 16			; 00000010H
  00b15	10		 DB	 16			; 00000010H
  00b16	10		 DB	 16			; 00000010H
  00b17	0e		 DB	 14			; 0000000eH
  00b18	10		 DB	 16			; 00000010H
  00b19	10		 DB	 16			; 00000010H
  00b1a	10		 DB	 16			; 00000010H
  00b1b	10		 DB	 16			; 00000010H
  00b1c	10		 DB	 16			; 00000010H
  00b1d	10		 DB	 16			; 00000010H
  00b1e	10		 DB	 16			; 00000010H
  00b1f	10		 DB	 16			; 00000010H
  00b20	10		 DB	 16			; 00000010H
  00b21	10		 DB	 16			; 00000010H
  00b22	10		 DB	 16			; 00000010H
  00b23	10		 DB	 16			; 00000010H
  00b24	10		 DB	 16			; 00000010H
  00b25	10		 DB	 16			; 00000010H
  00b26	10		 DB	 16			; 00000010H
  00b27	10		 DB	 16			; 00000010H
  00b28	10		 DB	 16			; 00000010H
  00b29	10		 DB	 16			; 00000010H
  00b2a	10		 DB	 16			; 00000010H
  00b2b	10		 DB	 16			; 00000010H
  00b2c	10		 DB	 16			; 00000010H
  00b2d	10		 DB	 16			; 00000010H
  00b2e	10		 DB	 16			; 00000010H
  00b2f	10		 DB	 16			; 00000010H
  00b30	10		 DB	 16			; 00000010H
  00b31	10		 DB	 16			; 00000010H
  00b32	10		 DB	 16			; 00000010H
  00b33	10		 DB	 16			; 00000010H
  00b34	10		 DB	 16			; 00000010H
  00b35	10		 DB	 16			; 00000010H
  00b36	10		 DB	 16			; 00000010H
  00b37	10		 DB	 16			; 00000010H
  00b38	10		 DB	 16			; 00000010H
  00b39	10		 DB	 16			; 00000010H
  00b3a	10		 DB	 16			; 00000010H
  00b3b	10		 DB	 16			; 00000010H
  00b3c	10		 DB	 16			; 00000010H
  00b3d	10		 DB	 16			; 00000010H
  00b3e	10		 DB	 16			; 00000010H
  00b3f	0f		 DB	 15			; 0000000fH
?ReceiveNoticeData@CPartnerManager@@UAGHIJ@Z ENDP	; CPartnerManager::ReceiveNoticeData
_TEXT	ENDS
; Function compile flags: /Ogtp
; File D:\git\src\IBK\IBK_DRFN\ProjSrc\SrcDrfn\DrCommon\PartnerMng\_PartnerManager.cpp
; File C:\Program Files (x86)\Microsoft Visual Studio\2019\Community\VC\Tools\MSVC\14.29.30133\atlmfc\include\atlsimpstr.h
; File D:\git\src\IBK\IBK_DRFN\ProjSrc\SrcDrfn\DrCommon\PartnerMng\_PartnerManager.cpp
; File C:\Program Files (x86)\Microsoft Visual Studio\2019\Community\VC\Tools\MSVC\14.29.30133\atlmfc\include\cstringt.h
; File D:\git\src\IBK\IBK_DRFN\ProjSrc\SrcDrfn\DrCommon\PartnerMng\_PartnerManager.cpp
; File C:\Program Files (x86)\Microsoft Visual Studio\2019\Community\VC\Tools\MSVC\14.29.30133\atlmfc\include\cstringt.h
; File D:\git\src\IBK\IBK_DRFN\ProjSrc\SrcDrfn\DrCommon\PartnerMng\_PartnerManager.cpp
; File C:\Program Files (x86)\Microsoft Visual Studio\2019\Community\VC\Tools\MSVC\14.29.30133\atlmfc\include\afxtempl.h
; File D:\git\src\IBK\IBK_DRFN\ProjSrc\SrcDrfn\DrCommon\PartnerMng\_PartnerManager.cpp
; File C:\Program Files (x86)\Microsoft Visual Studio\2019\Community\VC\Tools\MSVC\14.29.30133\atlmfc\include\afxtempl.h
; File D:\git\src\IBK\IBK_DRFN\ProjSrc\SrcDrfn\DrCommon\PartnerMng\_PartnerManager.cpp
;	COMDAT ?ReceiveRealDataEx@CPartnerManager@@UAGHIJ@Z
_TEXT	SEGMENT
_nCodeType$1$ = -16					; size = 4
$T1 = -16						; size = 4
_nHashBucket$2 = -12					; size = 4
$T3 = -12						; size = 4
$T4 = -12						; size = 4
$T5 = -8						; size = 4
_strCode$ = -4						; size = 4
_this$ = 8						; size = 4
_wParam$ = 12						; size = 4
_nHashValue$6 = 16					; size = 4
tv287 = 16						; size = 4
_rCode$7 = 16						; size = 4
$T8 = 16						; size = 4
_lParam$ = 16						; size = 4
$T9 = 19						; size = 1
?ReceiveRealDataEx@CPartnerManager@@UAGHIJ@Z PROC	; CPartnerManager::ReceiveRealDataEx, COMDAT

; 602  : {

  00000	55		 push	 ebp
  00001	8b ec		 mov	 ebp, esp
  00003	83 ec 10	 sub	 esp, 16			; 00000010H
  00006	53		 push	 ebx
  00007	56		 push	 esi
  00008	57		 push	 edi

; 603  : 	struct _alertR* alertR = (struct _alertR*)lParam;
; 604  : 	DWORD* pArrData = NULL;
; 605  : 
; 606  : 	CString strCode = alertR->code;

  00009	8b 7d 10	 mov	 edi, DWORD PTR _lParam$[ebp]
  0000c	8d 4d fc	 lea	 ecx, DWORD PTR _strCode$[ebp]
  0000f	33 db		 xor	 ebx, ebx
  00011	57		 push	 edi
  00012	89 5d f0	 mov	 DWORD PTR $T1[ebp], ebx
  00015	ff 15 00 00 00
	00		 call	 DWORD PTR __imp_??0?$CStringT@DV?$StrTraitMFC_DLL@DV?$ChTraitsCRT@D@ATL@@@@@ATL@@QAE@ABV01@@Z
; File C:\Program Files (x86)\Microsoft Visual Studio\2019\Community\VC\Tools\MSVC\14.29.30133\atlmfc\include\atlsimpstr.h

; 533  : 		return( GetLength() == 0 );

  0001b	8b 45 fc	 mov	 eax, DWORD PTR _strCode$[ebp]
  0001e	39 58 f4	 cmp	 DWORD PTR [eax-12], ebx
; File D:\git\src\IBK\IBK_DRFN\ProjSrc\SrcDrfn\DrCommon\PartnerMng\_PartnerManager.cpp

; 616  : 	if (strCode.IsEmpty())

  00021	0f 84 ec 01 00
	00		 je	 $LN22@ReceiveRea

; 617  : 		return FALSE;
; 618  : 
; 619  : 	int nCodeType = _DoGetCodeType(strCode);

  00027	8b 75 08	 mov	 esi, DWORD PTR _this$[ebp]
  0002a	8b ce		 mov	 ecx, esi
  0002c	50		 push	 eax
  0002d	e8 00 00 00 00	 call	 ?_DoGetCodeType@CPartnerManager@@IAEHPBD@Z ; CPartnerManager::_DoGetCodeType
  00032	89 45 f0	 mov	 DWORD PTR _nCodeType$1$[ebp], eax

; 620  : 	if (CMasterTypeInfo::FX_CHART != nCodeType && CMasterTypeInfo::FO_FOREIGN_CHART != nCodeType)

  00035	83 f8 09	 cmp	 eax, 9
  00038	0f 84 5e 01 00
	00		 je	 $LN11@ReceiveRea
  0003e	83 f8 08	 cmp	 eax, 8
  00041	0f 84 55 01 00
	00		 je	 $LN11@ReceiveRea

; 621  : 	{
; 622  : 		if (strCode[0] == 'A' || strCode[0] == 'J' || strCode[0] == 'Q')

  00047	53		 push	 ebx
  00048	8d 4d fc	 lea	 ecx, DWORD PTR _strCode$[ebp]
  0004b	ff 15 00 00 00
	00		 call	 DWORD PTR __imp_??A?$CSimpleStringT@D$00@ATL@@QBEDH@Z
  00051	3c 41		 cmp	 al, 65			; 00000041H
  00053	74 1c		 je	 SHORT $LN8@ReceiveRea
  00055	53		 push	 ebx
  00056	8d 4d fc	 lea	 ecx, DWORD PTR _strCode$[ebp]
  00059	ff 15 00 00 00
	00		 call	 DWORD PTR __imp_??A?$CSimpleStringT@D$00@ATL@@QBEDH@Z
  0005f	3c 4a		 cmp	 al, 74			; 0000004aH
  00061	74 0e		 je	 SHORT $LN8@ReceiveRea
  00063	53		 push	 ebx
  00064	8d 4d fc	 lea	 ecx, DWORD PTR _strCode$[ebp]
  00067	ff 15 00 00 00
	00		 call	 DWORD PTR __imp_??A?$CSimpleStringT@D$00@ATL@@QBEDH@Z
  0006d	3c 51		 cmp	 al, 81			; 00000051H
  0006f	75 22		 jne	 SHORT $LN7@ReceiveRea
$LN8@ReceiveRea:

; 623  : 			strCode = strCode.Mid(1);

  00071	6a 01		 push	 1
  00073	8d 45 10	 lea	 eax, DWORD PTR $T8[ebp]
  00076	50		 push	 eax
  00077	8d 4d fc	 lea	 ecx, DWORD PTR _strCode$[ebp]
  0007a	ff 15 00 00 00
	00		 call	 DWORD PTR __imp_?Mid@?$CStringT@DV?$StrTraitMFC_DLL@DV?$ChTraitsCRT@D@ATL@@@@@ATL@@QBE?AV12@H@Z
  00080	50		 push	 eax
  00081	8d 4d fc	 lea	 ecx, DWORD PTR _strCode$[ebp]
  00084	ff 15 00 00 00
	00		 call	 DWORD PTR __imp_??4?$CStringT@DV?$StrTraitMFC_DLL@DV?$ChTraitsCRT@D@ATL@@@@@ATL@@QAEAAV01@ABV01@@Z
  0008a	8d 4d 10	 lea	 ecx, DWORD PTR $T8[ebp]
  0008d	ff 15 00 00 00
	00		 call	 DWORD PTR __imp_??1?$CStringT@DV?$StrTraitMFC_DLL@DV?$ChTraitsCRT@D@ATL@@@@@ATL@@QAE@XZ
$LN7@ReceiveRea:

; 625  : 		if (strCode[0] == 'K' || (strCode.GetLength() > 2 && ( strCode.Left(2) == "ET" || strCode.Left(2) == "ST" ) ) )

  00093	6a 00		 push	 0
  00095	8d 4d fc	 lea	 ecx, DWORD PTR _strCode$[ebp]
  00098	ff 15 00 00 00
	00		 call	 DWORD PTR __imp_??A?$CSimpleStringT@D$00@ATL@@QBEDH@Z
  0009e	3c 4b		 cmp	 al, 75			; 0000004bH
  000a0	74 59		 je	 SHORT $LN17@ReceiveRea
  000a2	8b 45 fc	 mov	 eax, DWORD PTR _strCode$[ebp]
  000a5	83 78 f4 02	 cmp	 DWORD PTR [eax-12], 2
  000a9	7e 4a		 jle	 SHORT $LN16@ReceiveRea
  000ab	6a 02		 push	 2
  000ad	8d 45 f4	 lea	 eax, DWORD PTR $T4[ebp]
  000b0	50		 push	 eax
  000b1	8d 4d fc	 lea	 ecx, DWORD PTR _strCode$[ebp]
  000b4	ff 15 00 00 00
	00		 call	 DWORD PTR __imp_?Left@?$CStringT@DV?$StrTraitMFC_DLL@DV?$ChTraitsCRT@D@ATL@@@@@ATL@@QBE?AV12@H@Z
; File C:\Program Files (x86)\Microsoft Visual Studio\2019\Community\VC\Tools\MSVC\14.29.30133\atlmfc\include\cstringt.h

; 2486 : 		return(str1.Compare(psz2) == 0);

  000ba	68 00 00 00 00	 push	 OFFSET ??_C@_02KIDIPBJG@ET@
  000bf	8b c8		 mov	 ecx, eax
  000c1	bb 01 00 00 00	 mov	 ebx, 1
  000c6	ff 15 00 00 00
	00		 call	 DWORD PTR __imp_?Compare@?$CStringT@DV?$StrTraitMFC_DLL@DV?$ChTraitsCRT@D@ATL@@@@@ATL@@QBEHPBD@Z
  000cc	85 c0		 test	 eax, eax
; File D:\git\src\IBK\IBK_DRFN\ProjSrc\SrcDrfn\DrCommon\PartnerMng\_PartnerManager.cpp

; 625  : 		if (strCode[0] == 'K' || (strCode.GetLength() > 2 && ( strCode.Left(2) == "ET" || strCode.Left(2) == "ST" ) ) )

  000ce	74 2b		 je	 SHORT $LN17@ReceiveRea
  000d0	6a 02		 push	 2
  000d2	8d 45 f8	 lea	 eax, DWORD PTR $T5[ebp]
  000d5	50		 push	 eax
  000d6	8d 4d fc	 lea	 ecx, DWORD PTR _strCode$[ebp]
  000d9	ff 15 00 00 00
	00		 call	 DWORD PTR __imp_?Left@?$CStringT@DV?$StrTraitMFC_DLL@DV?$ChTraitsCRT@D@ATL@@@@@ATL@@QBE?AV12@H@Z
; File C:\Program Files (x86)\Microsoft Visual Studio\2019\Community\VC\Tools\MSVC\14.29.30133\atlmfc\include\cstringt.h

; 2486 : 		return(str1.Compare(psz2) == 0);

  000df	68 00 00 00 00	 push	 OFFSET ??_C@_02LAJDCOFE@ST@
  000e4	8b c8		 mov	 ecx, eax
  000e6	bb 03 00 00 00	 mov	 ebx, 3
  000eb	ff 15 00 00 00
	00		 call	 DWORD PTR __imp_?Compare@?$CStringT@DV?$StrTraitMFC_DLL@DV?$ChTraitsCRT@D@ATL@@@@@ATL@@QBEHPBD@Z
  000f1	85 c0		 test	 eax, eax
; File D:\git\src\IBK\IBK_DRFN\ProjSrc\SrcDrfn\DrCommon\PartnerMng\_PartnerManager.cpp

; 625  : 		if (strCode[0] == 'K' || (strCode.GetLength() > 2 && ( strCode.Left(2) == "ET" || strCode.Left(2) == "ST" ) ) )

  000f3	74 06		 je	 SHORT $LN17@ReceiveRea
$LN16@ReceiveRea:
  000f5	c6 45 13 00	 mov	 BYTE PTR $T9[ebp], 0
  000f9	eb 04		 jmp	 SHORT $LN18@ReceiveRea
$LN17@ReceiveRea:
  000fb	c6 45 13 01	 mov	 BYTE PTR $T9[ebp], 1
$LN18@ReceiveRea:
  000ff	f6 c3 02	 test	 bl, 2
  00102	74 0c		 je	 SHORT $LN19@ReceiveRea
  00104	8d 4d f8	 lea	 ecx, DWORD PTR $T5[ebp]
  00107	83 e3 fd	 and	 ebx, -3			; fffffffdH
  0010a	ff 15 00 00 00
	00		 call	 DWORD PTR __imp_??1?$CStringT@DV?$StrTraitMFC_DLL@DV?$ChTraitsCRT@D@ATL@@@@@ATL@@QAE@XZ
$LN19@ReceiveRea:
  00110	f6 c3 01	 test	 bl, 1
  00113	74 09		 je	 SHORT $LN20@ReceiveRea
  00115	8d 4d f4	 lea	 ecx, DWORD PTR $T4[ebp]
  00118	ff 15 00 00 00
	00		 call	 DWORD PTR __imp_??1?$CStringT@DV?$StrTraitMFC_DLL@DV?$ChTraitsCRT@D@ATL@@@@@ATL@@QAE@XZ
$LN20@ReceiveRea:
  0011e	80 7d 13 00	 cmp	 BYTE PTR $T9[ebp], 0
  00122	74 56		 je	 SHORT $LN9@ReceiveRea

; 626  : 		{
; 627  : 			strCode = strCode.Mid(1);

  00124	6a 01		 push	 1
  00126	8d 45 f4	 lea	 eax, DWORD PTR $T3[ebp]
  00129	50		 push	 eax
  0012a	8d 4d fc	 lea	 ecx, DWORD PTR _strCode$[ebp]
  0012d	ff 15 00 00 00
	00		 call	 DWORD PTR __imp_?Mid@?$CStringT@DV?$StrTraitMFC_DLL@DV?$ChTraitsCRT@D@ATL@@@@@ATL@@QBE?AV12@H@Z
  00133	50		 push	 eax
  00134	8d 4d fc	 lea	 ecx, DWORD PTR _strCode$[ebp]
  00137	ff 15 00 00 00
	00		 call	 DWORD PTR __imp_??4?$CStringT@DV?$StrTraitMFC_DLL@DV?$ChTraitsCRT@D@ATL@@@@@ATL@@QAEAAV01@ABV01@@Z
  0013d	8d 4d f4	 lea	 ecx, DWORD PTR $T3[ebp]
  00140	ff 15 00 00 00
	00		 call	 DWORD PTR __imp_??1?$CStringT@DV?$StrTraitMFC_DLL@DV?$ChTraitsCRT@D@ATL@@@@@ATL@@QAE@XZ

; 628  : 			CString rCode;

  00146	8d 4d 10	 lea	 ecx, DWORD PTR _rCode$7[ebp]
  00149	ff 15 00 00 00
	00		 call	 DWORD PTR __imp_??0?$CStringT@DV?$StrTraitMFC_DLL@DV?$ChTraitsCRT@D@ATL@@@@@ATL@@QAE@XZ

; 629  : 			if (theApp.m_PtUtilMng.GetSiteUpKode(strCode, rCode))

  0014f	8d 45 10	 lea	 eax, DWORD PTR _rCode$7[ebp]
  00152	b9 34 01 00 00	 mov	 ecx, OFFSET ?theApp@@3VCPartnerMngApp@@A+308
  00157	50		 push	 eax
  00158	ff 75 fc	 push	 DWORD PTR _strCode$[ebp]
  0015b	e8 00 00 00 00	 call	 ?GetSiteUpKode@CPartnerUtilManager@@QAEHPBDAAV?$CStringT@DV?$StrTraitMFC_DLL@DV?$ChTraitsCRT@D@ATL@@@@@ATL@@@Z ; CPartnerUtilManager::GetSiteUpKode
  00160	85 c0		 test	 eax, eax
  00162	74 0d		 je	 SHORT $LN10@ReceiveRea

; 630  : 				strCode = rCode;

  00164	8d 45 10	 lea	 eax, DWORD PTR _rCode$7[ebp]
  00167	50		 push	 eax
  00168	8d 4d fc	 lea	 ecx, DWORD PTR _strCode$[ebp]
  0016b	ff 15 00 00 00
	00		 call	 DWORD PTR __imp_??4?$CStringT@DV?$StrTraitMFC_DLL@DV?$ChTraitsCRT@D@ATL@@@@@ATL@@QAEAAV01@ABV01@@Z
$LN10@ReceiveRea:

; 631  : 		}

  00171	8d 4d 10	 lea	 ecx, DWORD PTR _rCode$7[ebp]
  00174	ff 15 00 00 00
	00		 call	 DWORD PTR __imp_??1?$CStringT@DV?$StrTraitMFC_DLL@DV?$ChTraitsCRT@D@ATL@@@@@ATL@@QAE@XZ
$LN9@ReceiveRea:

; 632  : 
; 633  : 		if (strCode[0] == 'S' || strCode[0] == 'T')

  0017a	6a 00		 push	 0
  0017c	8d 4d fc	 lea	 ecx, DWORD PTR _strCode$[ebp]
  0017f	ff 15 00 00 00
	00		 call	 DWORD PTR __imp_??A?$CSimpleStringT@D$00@ATL@@QBEDH@Z
  00185	3c 53		 cmp	 al, 83			; 00000053H
  00187	0f 84 86 00 00
	00		 je	 $LN22@ReceiveRea
  0018d	6a 00		 push	 0
  0018f	8d 4d fc	 lea	 ecx, DWORD PTR _strCode$[ebp]
  00192	ff 15 00 00 00
	00		 call	 DWORD PTR __imp_??A?$CSimpleStringT@D$00@ATL@@QBEDH@Z
  00198	3c 54		 cmp	 al, 84			; 00000054H
  0019a	74 77		 je	 SHORT $LN22@ReceiveRea
$LN11@ReceiveRea:

; 480  : 	if (strlen(szCode) == 0)

  0019c	8b 45 fc	 mov	 eax, DWORD PTR _strCode$[ebp]
  0019f	8b d0		 mov	 edx, eax
  001a1	8d 5a 01	 lea	 ebx, DWORD PTR [edx+1]
$LL56@ReceiveRea:
  001a4	8a 0a		 mov	 cl, BYTE PTR [edx]
  001a6	42		 inc	 edx
  001a7	84 c9		 test	 cl, cl
  001a9	75 f9		 jne	 SHORT $LL56@ReceiveRea
  001ab	2b d3		 sub	 edx, ebx
  001ad	74 64		 je	 SHORT $LN22@ReceiveRea
; File C:\Program Files (x86)\Microsoft Visual Studio\2019\Community\VC\Tools\MSVC\14.29.30133\atlmfc\include\afxtempl.h

; 1555 : 	CAssoc* pAssoc = GetAssocAt(key, nHashBucket, nHashValue);

  001af	8d 4d 10	 lea	 ecx, DWORD PTR _nHashValue$6[ebp]
  001b2	51		 push	 ecx
  001b3	8d 4d f4	 lea	 ecx, DWORD PTR _nHashBucket$2[ebp]
  001b6	51		 push	 ecx
  001b7	50		 push	 eax
; File D:\git\src\IBK\IBK_DRFN\ProjSrc\SrcDrfn\DrCommon\PartnerMng\_PartnerManager.cpp

; 484  : 	if (m_mapRealKey.Lookup(szCode, rValue) == TRUE)

  001b8	8d 8e d0 0f 00
	00		 lea	 ecx, DWORD PTR [esi+4048]
; File C:\Program Files (x86)\Microsoft Visual Studio\2019\Community\VC\Tools\MSVC\14.29.30133\atlmfc\include\afxtempl.h

; 1555 : 	CAssoc* pAssoc = GetAssocAt(key, nHashBucket, nHashValue);

  001be	e8 00 00 00 00	 call	 ?GetAssocAt@?$CMap@V?$CStringT@DV?$StrTraitMFC_DLL@DV?$ChTraitsCRT@D@ATL@@@@@ATL@@PBDHH@@IBEPAVCAssoc@1@PBDAAI1@Z ; CMap<ATL::CStringT<char,StrTraitMFC_DLL<char,ATL::ChTraitsCRT<char> > >,char const *,int,int>::GetAssocAt

; 1556 : 	if (pAssoc == NULL)

  001c3	85 c0		 test	 eax, eax
  001c5	74 4c		 je	 SHORT $LN22@ReceiveRea

; 1557 : 		return FALSE;  // not in map
; 1558 : 
; 1559 : 	rValue = pAssoc->value;

  001c7	8b 58 04	 mov	 ebx, DWORD PTR [eax+4]
; File D:\git\src\IBK\IBK_DRFN\ProjSrc\SrcDrfn\DrCommon\PartnerMng\_PartnerManager.cpp

; 638  : 	if (nKey < 0)

  001ca	85 db		 test	 ebx, ebx
  001cc	78 45		 js	 SHORT $LN22@ReceiveRea

; 639  : 		return FALSE;
; 640  : 
; 641  : // 	{	//For QCMonitor
; 642  : // 		if(gDebugMng) gDebugMng->TraceReal(strCode, nSize, (LPBYTE)pData);
; 643  : // 	}
; 644  : 
; 645  : 	//@by alzioyes:100406 Real 0.
; 646  : 	//for (int i = 0; i < alertR->size; i++)
; 647  : 	for (int i=alertR->size-1; i>=0; i--)

  001ce	8b 77 08	 mov	 esi, DWORD PTR [edi+8]
  001d1	83 ee 01	 sub	 esi, 1
  001d4	78 24		 js	 SHORT $LN3@ReceiveRea
  001d6	8d 3c b7	 lea	 edi, DWORD PTR [edi+esi*4]
  001d9	83 c7 0c	 add	 edi, 12			; 0000000cH
  001dc	0f 1f 40 00	 npad	 4
$LL4@ReceiveRea:

; 648  : 	{
; 649  : 		pArrData = (DWORD*)alertR->ptr[i];
; 650  : 		ReceiveRealDataEx_Sub(strCode, nCodeType, nKey, pArrData);

  001e0	ff 37		 push	 DWORD PTR [edi]
  001e2	8b 4d 08	 mov	 ecx, DWORD PTR _this$[ebp]
  001e5	8d 45 fc	 lea	 eax, DWORD PTR _strCode$[ebp]
  001e8	53		 push	 ebx
  001e9	ff 75 f0	 push	 DWORD PTR _nCodeType$1$[ebp]
  001ec	50		 push	 eax
  001ed	e8 00 00 00 00	 call	 ?ReceiveRealDataEx_Sub@CPartnerManager@@IAEHAAV?$CStringT@DV?$StrTraitMFC_DLL@DV?$ChTraitsCRT@D@ATL@@@@@ATL@@HHPAK@Z ; CPartnerManager::ReceiveRealDataEx_Sub
  001f2	83 ee 01	 sub	 esi, 1
  001f5	8d 7f fc	 lea	 edi, DWORD PTR [edi-4]
  001f8	79 e6		 jns	 SHORT $LL4@ReceiveRea
$LN3@ReceiveRea:

; 651  : 	}
; 652  : 
; 653  : 	return TRUE;

  001fa	8d 4d fc	 lea	 ecx, DWORD PTR _strCode$[ebp]
  001fd	be 01 00 00 00	 mov	 esi, 1
  00202	ff 15 00 00 00
	00		 call	 DWORD PTR __imp_??1?$CStringT@DV?$StrTraitMFC_DLL@DV?$ChTraitsCRT@D@ATL@@@@@ATL@@QAE@XZ
  00208	5f		 pop	 edi
  00209	8b c6		 mov	 eax, esi
  0020b	5e		 pop	 esi
  0020c	5b		 pop	 ebx

; 654  : }

  0020d	8b e5		 mov	 esp, ebp
  0020f	5d		 pop	 ebp
  00210	c2 0c 00	 ret	 12			; 0000000cH
$LN22@ReceiveRea:

; 651  : 	}
; 652  : 
; 653  : 	return TRUE;

  00213	8d 4d fc	 lea	 ecx, DWORD PTR _strCode$[ebp]
  00216	33 f6		 xor	 esi, esi
  00218	ff 15 00 00 00
	00		 call	 DWORD PTR __imp_??1?$CStringT@DV?$StrTraitMFC_DLL@DV?$ChTraitsCRT@D@ATL@@@@@ATL@@QAE@XZ
  0021e	5f		 pop	 edi
  0021f	8b c6		 mov	 eax, esi
  00221	5e		 pop	 esi
  00222	5b		 pop	 ebx

; 654  : }

  00223	8b e5		 mov	 esp, ebp
  00225	5d		 pop	 ebp
  00226	c2 0c 00	 ret	 12			; 0000000cH
?ReceiveRealDataEx@CPartnerManager@@UAGHIJ@Z ENDP	; CPartnerManager::ReceiveRealDataEx
_TEXT	ENDS
; Function compile flags: /Ogtp
; File D:\git\src\IBK\IBK_DRFN\ProjSrc\SrcDrfn\DrCommon\PartnerMng\_PartnerManager.cpp
; File C:\Program Files (x86)\Microsoft Visual Studio\2019\Community\VC\Tools\MSVC\14.29.30133\atlmfc\include\afxmt.inl
; File D:\git\src\IBK\IBK_DRFN\ProjSrc\SrcDrfn\DrCommon\PartnerMng\_PartnerManager.cpp
; File C:\Program Files (x86)\Microsoft Visual Studio\2019\Community\VC\Tools\MSVC\14.29.30133\atlmfc\include\afxmt.inl
; File D:\git\src\IBK\IBK_DRFN\ProjSrc\SrcDrfn\DrCommon\PartnerMng\_PartnerManager.cpp
; File C:\Program Files (x86)\Microsoft Visual Studio\2019\Community\VC\Tools\MSVC\14.29.30133\atlmfc\include\atlsimpstr.h
; File D:\git\src\IBK\IBK_DRFN\ProjSrc\SrcDrfn\DrCommon\PartnerMng\_PartnerManager.cpp
;	COMDAT ?directSendFID@CPartnerManager@@UAGHJ@Z
_TEXT	SEGMENT
_strSendData$ = 8					; size = 4
_this$ = 8						; size = 4
_pSendData$ = 12					; size = 4
?directSendFID@CPartnerManager@@UAGHJ@Z PROC		; CPartnerManager::directSendFID, COMDAT

; 180  : {

  00000	55		 push	 ebp
  00001	8b ec		 mov	 ebp, esp
  00003	53		 push	 ebx
  00004	56		 push	 esi
; File C:\Program Files (x86)\Microsoft Visual Studio\2019\Community\VC\Tools\MSVC\14.29.30133\atlmfc\include\afxmt.inl

; 111  : 	::EnterCriticalSection(&m_sect); 

  00005	8b 75 08	 mov	 esi, DWORD PTR _this$[ebp]
; File D:\git\src\IBK\IBK_DRFN\ProjSrc\SrcDrfn\DrCommon\PartnerMng\_PartnerManager.cpp

; 180  : {

  00008	57		 push	 edi
; File C:\Program Files (x86)\Microsoft Visual Studio\2019\Community\VC\Tools\MSVC\14.29.30133\atlmfc\include\afxmt.inl

; 111  : 	::EnterCriticalSection(&m_sect); 

  00009	8d 86 28 11 00
	00		 lea	 eax, DWORD PTR [esi+4392]
  0000f	50		 push	 eax
  00010	ff 15 00 00 00
	00		 call	 DWORD PTR __imp__EnterCriticalSection@4
; File D:\git\src\IBK\IBK_DRFN\ProjSrc\SrcDrfn\DrCommon\PartnerMng\_PartnerManager.cpp

; 184  : 	if (pstSendData == NULL)

  00016	8b 7d 0c	 mov	 edi, DWORD PTR _pSendData$[ebp]
  00019	85 ff		 test	 edi, edi
  0001b	75 18		 jne	 SHORT $LN2@directSend

; 185  : 	{
; 186  : 		m_CriticalSection.Unlock();

  0001d	8b 86 20 11 00
	00		 mov	 eax, DWORD PTR [esi+4384]
  00023	8d 8e 20 11 00
	00		 lea	 ecx, DWORD PTR [esi+4384]
  00029	ff 50 1c	 call	 DWORD PTR [eax+28]

; 187  : 		return 0;

  0002c	33 c0		 xor	 eax, eax

; 200  : }

  0002e	5f		 pop	 edi
  0002f	5e		 pop	 esi
  00030	5b		 pop	 ebx
  00031	5d		 pop	 ebp
  00032	c2 08 00	 ret	 8
$LN2@directSend:

; 188  : 	}
; 189  : 
; 190  : 	int nRet = FALSE;
; 191  : 
; 192  : 	CString strSendData = m_DataConverter.ConvertToFid(pstSendData->szTrCode, pstSendData->pData, pstSendData->nLen);

  00035	ff 77 08	 push	 DWORD PTR [edi+8]
  00038	33 db		 xor	 ebx, ebx
  0003a	ff 77 04	 push	 DWORD PTR [edi+4]
  0003d	51		 push	 ecx
  0003e	8b cc		 mov	 ecx, esp
  00040	57		 push	 edi
  00041	ff 15 00 00 00
	00		 call	 DWORD PTR __imp_??0?$CStringT@DV?$StrTraitMFC_DLL@DV?$ChTraitsCRT@D@ATL@@@@@ATL@@QAE@ABV01@@Z
  00047	8d 45 08	 lea	 eax, DWORD PTR _strSendData$[ebp]
  0004a	50		 push	 eax
  0004b	8d 4e 24	 lea	 ecx, DWORD PTR [esi+36]
  0004e	e8 00 00 00 00	 call	 ?ConvertToFid@CDataConverter@@QAE?AV?$CStringT@DV?$StrTraitMFC_DLL@DV?$ChTraitsCRT@D@ATL@@@@@ATL@@V23@PAXH@Z ; CDataConverter::ConvertToFid

; 193  : 	int nKey = GetTrKey(pstSendData->szTrCode, pstSendData);

  00053	57		 push	 edi
  00054	51		 push	 ecx
  00055	8b cc		 mov	 ecx, esp
  00057	57		 push	 edi
  00058	ff 15 00 00 00
	00		 call	 DWORD PTR __imp_??0?$CStringT@DV?$StrTraitMFC_DLL@DV?$ChTraitsCRT@D@ATL@@@@@ATL@@QAE@ABV01@@Z
  0005e	8b ce		 mov	 ecx, esi
  00060	e8 00 00 00 00	 call	 ?GetTrKey@CPartnerManager@@QAEHV?$CStringT@DV?$StrTraitMFC_DLL@DV?$ChTraitsCRT@D@ATL@@@@@ATL@@PAUFID_SENDDATA@@@Z ; CPartnerManager::GetTrKey
  00065	8b c8		 mov	 ecx, eax

; 194  : 
; 195  : 	if (nKey != -1)

  00067	83 f9 ff	 cmp	 ecx, -1
  0006a	74 21		 je	 SHORT $LN3@directSend
; File C:\Program Files (x86)\Microsoft Visual Studio\2019\Community\VC\Tools\MSVC\14.29.30133\atlmfc\include\atlsimpstr.h

; 519  : 		return( GetData()->nDataLength );

  0006c	8b 45 08	 mov	 eax, DWORD PTR _strSendData$[ebp]
; File D:\git\src\IBK\IBK_DRFN\ProjSrc\SrcDrfn\DrCommon\PartnerMng\_PartnerManager.cpp

; 196  : 		nRet = SendTR("POOPPOOP", (LPTSTR)(LPCTSTR)strSendData, strSendData.GetLength(), nKey, US_OOP);

  0006f	6a 02		 push	 2
  00071	51		 push	 ecx
  00072	ff 70 f4	 push	 DWORD PTR [eax-12]
  00075	50		 push	 eax
  00076	51		 push	 ecx
  00077	8b cc		 mov	 ecx, esp
  00079	68 00 00 00 00	 push	 OFFSET ??_C@_08BPMNGHAI@POOPPOOP@
  0007e	ff 15 00 00 00
	00		 call	 DWORD PTR __imp_??0?$CStringT@DV?$StrTraitMFC_DLL@DV?$ChTraitsCRT@D@ATL@@@@@ATL@@QAE@PBD@Z
  00084	8b ce		 mov	 ecx, esi
  00086	e8 00 00 00 00	 call	 ?SendTR@CPartnerManager@@QAEHV?$CStringT@DV?$StrTraitMFC_DLL@DV?$ChTraitsCRT@D@ATL@@@@@ATL@@PADHHH@Z ; CPartnerManager::SendTR
  0008b	8b d8		 mov	 ebx, eax
$LN3@directSend:

; 197  : 
; 198  : 	m_CriticalSection.Unlock();

  0008d	8b 96 20 11 00
	00		 mov	 edx, DWORD PTR [esi+4384]
  00093	8d 8e 20 11 00
	00		 lea	 ecx, DWORD PTR [esi+4384]
  00099	ff 52 1c	 call	 DWORD PTR [edx+28]

; 199  : 	return nRet;

  0009c	8d 4d 08	 lea	 ecx, DWORD PTR _strSendData$[ebp]
  0009f	ff 15 00 00 00
	00		 call	 DWORD PTR __imp_??1?$CStringT@DV?$StrTraitMFC_DLL@DV?$ChTraitsCRT@D@ATL@@@@@ATL@@QAE@XZ

; 200  : }

  000a5	5f		 pop	 edi
  000a6	5e		 pop	 esi
  000a7	8b c3		 mov	 eax, ebx
  000a9	5b		 pop	 ebx
  000aa	5d		 pop	 ebp
  000ab	c2 08 00	 ret	 8
?directSendFID@CPartnerManager@@UAGHJ@Z ENDP		; CPartnerManager::directSendFID
_TEXT	ENDS
; Function compile flags: /Ogtp
; File D:\git\src\IBK\IBK_DRFN\ProjSrc\SrcDrfn\DrCommon\PartnerMng\_PartnerManager.cpp
;	COMDAT ?ReceiveRealData@CPartnerManager@@UAGHIJ@Z
_TEXT	SEGMENT
_this$ = 8						; size = 4
_wParam$ = 12						; size = 4
_lParam$ = 16						; size = 4
?ReceiveRealData@CPartnerManager@@UAGHIJ@Z PROC		; CPartnerManager::ReceiveRealData, COMDAT

; 887  : 	//@100521-by alzioyes.   .
; 888  : 	return FALSE;

  00000	33 c0		 xor	 eax, eax

; 889  : }

  00002	c2 0c 00	 ret	 12			; 0000000cH
?ReceiveRealData@CPartnerManager@@UAGHIJ@Z ENDP		; CPartnerManager::ReceiveRealData
_TEXT	ENDS
; Function compile flags: /Ogtp
; File D:\git\src\IBK\IBK_DRFN\ProjSrc\SrcDrfn\DrCommon\PartnerMng\_PartnerManager.cpp
; File C:\Program Files (x86)\Microsoft Visual Studio\2019\Community\VC\Tools\MSVC\14.29.30133\atlmfc\include\cstringt.h
; File D:\git\src\IBK\IBK_DRFN\ProjSrc\SrcDrfn\DrCommon\PartnerMng\_PartnerManager.cpp
; File C:\Program Files (x86)\Microsoft Visual Studio\2019\Community\VC\Tools\MSVC\14.29.30133\atlmfc\include\cstringt.h
; File D:\git\src\IBK\IBK_DRFN\ProjSrc\SrcDrfn\DrCommon\PartnerMng\_PartnerManager.cpp
; File C:\Program Files (x86)\Microsoft Visual Studio\2019\Community\VC\Tools\MSVC\14.29.30133\atlmfc\include\cstringt.h
; File D:\git\src\IBK\IBK_DRFN\ProjSrc\SrcDrfn\DrCommon\PartnerMng\_PartnerManager.cpp
; File C:\Program Files (x86)\Microsoft Visual Studio\2019\Community\VC\Tools\MSVC\14.29.30133\atlmfc\include\atlsimpstr.h
; File D:\git\src\IBK\IBK_DRFN\ProjSrc\SrcDrfn\DrCommon\PartnerMng\_PartnerManager.cpp
;	COMDAT ?RequestMChartReal@CPartnerManager@@UAGHEPBD0@Z
_TEXT	SEGMENT
_strCode$ = -16						; size = 4
_bRealSend$1$ = -12					; size = 4
_strData$ = -8						; size = 4
_strMarketSymbol$ = -4					; size = 4
_this$ = 8						; size = 4
_cKey$ = 12						; size = 1
_szDrdsKey$ = 16					; size = 4
$T1 = 20						; size = 4
$T2 = 20						; size = 4
$T3 = 20						; size = 4
_szCode$ = 20						; size = 4
?RequestMChartReal@CPartnerManager@@UAGHEPBD0@Z PROC	; CPartnerManager::RequestMChartReal, COMDAT

; 501  : {

  00000	55		 push	 ebp
  00001	8b ec		 mov	 ebp, esp
  00003	83 ec 10	 sub	 esp, 16			; 00000010H
  00006	53		 push	 ebx
  00007	56		 push	 esi
  00008	57		 push	 edi

; 502  : 	SetCursor(LoadCursor(0,IDC_ARROW));

  00009	68 00 7f 00 00	 push	 32512			; 00007f00H
  0000e	6a 00		 push	 0
  00010	ff 15 00 00 00
	00		 call	 DWORD PTR __imp__LoadCursorA@8
  00016	50		 push	 eax
  00017	ff 15 00 00 00
	00		 call	 DWORD PTR __imp__SetCursor@4

; 503  : 	int nCodeType = CMasterTypeInfo::NONE_CHART;
; 504  : 
; 505  : 	BOOL bRealSend = TRUE;
; 506  : 	CString strData, strCode, strMarketSymbol;

  0001d	8d 4d f8	 lea	 ecx, DWORD PTR _strData$[ebp]
  00020	c7 45 f4 01 00
	00 00		 mov	 DWORD PTR _bRealSend$1$[ebp], 1
  00027	ff 15 00 00 00
	00		 call	 DWORD PTR __imp_??0?$CStringT@DV?$StrTraitMFC_DLL@DV?$ChTraitsCRT@D@ATL@@@@@ATL@@QAE@XZ
  0002d	8d 4d f0	 lea	 ecx, DWORD PTR _strCode$[ebp]
  00030	ff 15 00 00 00
	00		 call	 DWORD PTR __imp_??0?$CStringT@DV?$StrTraitMFC_DLL@DV?$ChTraitsCRT@D@ATL@@@@@ATL@@QAE@XZ
  00036	8d 4d fc	 lea	 ecx, DWORD PTR _strMarketSymbol$[ebp]
  00039	ff 15 00 00 00
	00		 call	 DWORD PTR __imp_??0?$CStringT@DV?$StrTraitMFC_DLL@DV?$ChTraitsCRT@D@ATL@@@@@ATL@@QAE@XZ

; 507  : 	strCode = szCode;

  0003f	ff 75 14	 push	 DWORD PTR _szCode$[ebp]
  00042	8d 4d f0	 lea	 ecx, DWORD PTR _strCode$[ebp]
  00045	ff 15 00 00 00
	00		 call	 DWORD PTR __imp_??4?$CStringT@DV?$StrTraitMFC_DLL@DV?$ChTraitsCRT@D@ATL@@@@@ATL@@QAEAAV01@PBD@Z

; 508  : 
; 509  : 	if (strcmp(szDrdsKey, "KXS3") == 0 || strcmp(szDrdsKey, "KXYS") == 0 || strcmp(szDrdsKey, "EWs3") == 0)

  0004b	8b 45 10	 mov	 eax, DWORD PTR _szDrdsKey$[ebp]
  0004e	ba 00 00 00 00	 mov	 edx, OFFSET ??_C@_04ICNGLDCO@KXS3@
  00053	8b c8		 mov	 ecx, eax
$LL83@RequestMCh:
  00055	8a 19		 mov	 bl, BYTE PTR [ecx]
  00057	3a 1a		 cmp	 bl, BYTE PTR [edx]
  00059	75 1a		 jne	 SHORT $LN84@RequestMCh
  0005b	84 db		 test	 bl, bl
  0005d	74 12		 je	 SHORT $LN85@RequestMCh
  0005f	8a 59 01	 mov	 bl, BYTE PTR [ecx+1]
  00062	3a 5a 01	 cmp	 bl, BYTE PTR [edx+1]
  00065	75 0e		 jne	 SHORT $LN84@RequestMCh
  00067	83 c1 02	 add	 ecx, 2
  0006a	83 c2 02	 add	 edx, 2
  0006d	84 db		 test	 bl, bl
  0006f	75 e4		 jne	 SHORT $LL83@RequestMCh
$LN85@RequestMCh:
  00071	33 c9		 xor	 ecx, ecx
  00073	eb 05		 jmp	 SHORT $LN86@RequestMCh
$LN84@RequestMCh:
  00075	1b c9		 sbb	 ecx, ecx
  00077	83 c9 01	 or	 ecx, 1
$LN86@RequestMCh:
  0007a	85 c9		 test	 ecx, ecx
  0007c	0f 84 dd 02 00
	00		 je	 $LN4@RequestMCh
  00082	ba 00 00 00 00	 mov	 edx, OFFSET ??_C@_04OKLMFNFP@KXYS@
  00087	8b c8		 mov	 ecx, eax
  00089	0f 1f 80 00 00
	00 00		 npad	 7
$LL87@RequestMCh:
  00090	8a 19		 mov	 bl, BYTE PTR [ecx]
  00092	3a 1a		 cmp	 bl, BYTE PTR [edx]
  00094	75 1a		 jne	 SHORT $LN88@RequestMCh
  00096	84 db		 test	 bl, bl
  00098	74 12		 je	 SHORT $LN89@RequestMCh
  0009a	8a 59 01	 mov	 bl, BYTE PTR [ecx+1]
  0009d	3a 5a 01	 cmp	 bl, BYTE PTR [edx+1]
  000a0	75 0e		 jne	 SHORT $LN88@RequestMCh
  000a2	83 c1 02	 add	 ecx, 2
  000a5	83 c2 02	 add	 edx, 2
  000a8	84 db		 test	 bl, bl
  000aa	75 e4		 jne	 SHORT $LL87@RequestMCh
$LN89@RequestMCh:
  000ac	33 c9		 xor	 ecx, ecx
  000ae	eb 05		 jmp	 SHORT $LN90@RequestMCh
$LN88@RequestMCh:
  000b0	1b c9		 sbb	 ecx, ecx
  000b2	83 c9 01	 or	 ecx, 1
$LN90@RequestMCh:
  000b5	85 c9		 test	 ecx, ecx
  000b7	0f 84 a2 02 00
	00		 je	 $LN4@RequestMCh
  000bd	ba 00 00 00 00	 mov	 edx, OFFSET ??_C@_04FNMIFLPJ@EWs3@
  000c2	8b c8		 mov	 ecx, eax
$LL91@RequestMCh:
  000c4	8a 19		 mov	 bl, BYTE PTR [ecx]
  000c6	3a 1a		 cmp	 bl, BYTE PTR [edx]
  000c8	75 1a		 jne	 SHORT $LN92@RequestMCh
  000ca	84 db		 test	 bl, bl
  000cc	74 12		 je	 SHORT $LN93@RequestMCh
  000ce	8a 59 01	 mov	 bl, BYTE PTR [ecx+1]
  000d1	3a 5a 01	 cmp	 bl, BYTE PTR [edx+1]
  000d4	75 0e		 jne	 SHORT $LN92@RequestMCh
  000d6	83 c1 02	 add	 ecx, 2
  000d9	83 c2 02	 add	 edx, 2
  000dc	84 db		 test	 bl, bl
  000de	75 e4		 jne	 SHORT $LL91@RequestMCh
$LN93@RequestMCh:
  000e0	33 c9		 xor	 ecx, ecx
  000e2	eb 05		 jmp	 SHORT $LN94@RequestMCh
$LN92@RequestMCh:
  000e4	1b c9		 sbb	 ecx, ecx
  000e6	83 c9 01	 or	 ecx, 1
$LN94@RequestMCh:
  000e9	85 c9		 test	 ecx, ecx
  000eb	0f 84 6e 02 00
	00		 je	 $LN4@RequestMCh

; 513  : 	}
; 514  : 	else if (strcmp(szDrdsKey, "IXIJ") == 0)				// 

  000f1	ba 00 00 00 00	 mov	 edx, OFFSET ??_C@_04BHFKAEFH@IXIJ@
  000f6	8b c8		 mov	 ecx, eax
$LL95@RequestMCh:
  000f8	8a 19		 mov	 bl, BYTE PTR [ecx]
  000fa	3a 1a		 cmp	 bl, BYTE PTR [edx]
  000fc	75 1a		 jne	 SHORT $LN96@RequestMCh
  000fe	84 db		 test	 bl, bl
  00100	74 12		 je	 SHORT $LN97@RequestMCh
  00102	8a 59 01	 mov	 bl, BYTE PTR [ecx+1]
  00105	3a 5a 01	 cmp	 bl, BYTE PTR [edx+1]
  00108	75 0e		 jne	 SHORT $LN96@RequestMCh
  0010a	83 c1 02	 add	 ecx, 2
  0010d	83 c2 02	 add	 edx, 2
  00110	84 db		 test	 bl, bl
  00112	75 e4		 jne	 SHORT $LL95@RequestMCh
$LN97@RequestMCh:
  00114	33 c9		 xor	 ecx, ecx
  00116	eb 05		 jmp	 SHORT $LN98@RequestMCh
$LN96@RequestMCh:
  00118	1b c9		 sbb	 ecx, ecx
  0011a	83 c9 01	 or	 ecx, 1
$LN98@RequestMCh:
  0011d	85 c9		 test	 ecx, ecx
  0011f	75 0d		 jne	 SHORT $LN5@RequestMCh

; 515  : 	{
; 516  : 		nCodeType = CMasterTypeInfo::UPJONG_CHART;

  00121	8d 71 01	 lea	 esi, DWORD PTR [ecx+1]

; 517  : 		strMarketSymbol = _T("21");

  00124	68 00 00 00 00	 push	 OFFSET ??_C@_02OBAMBAKB@21@

; 518  : 	}

  00129	e9 38 02 00 00	 jmp	 $LN135@RequestMCh
$LN5@RequestMCh:

; 519  : 	else if (strcmp(szDrdsKey, "FFC0") == 0)		 		// 

  0012e	ba 00 00 00 00	 mov	 edx, OFFSET ??_C@_04PNILKHIA@FFC0@
  00133	8b c8		 mov	 ecx, eax
$LL99@RequestMCh:
  00135	8a 19		 mov	 bl, BYTE PTR [ecx]
  00137	3a 1a		 cmp	 bl, BYTE PTR [edx]
  00139	75 1a		 jne	 SHORT $LN100@RequestMCh
  0013b	84 db		 test	 bl, bl
  0013d	74 12		 je	 SHORT $LN101@RequestMCh
  0013f	8a 59 01	 mov	 bl, BYTE PTR [ecx+1]
  00142	3a 5a 01	 cmp	 bl, BYTE PTR [edx+1]
  00145	75 0e		 jne	 SHORT $LN100@RequestMCh
  00147	83 c1 02	 add	 ecx, 2
  0014a	83 c2 02	 add	 edx, 2
  0014d	84 db		 test	 bl, bl
  0014f	75 e4		 jne	 SHORT $LL99@RequestMCh
$LN101@RequestMCh:
  00151	33 c9		 xor	 ecx, ecx
  00153	eb 05		 jmp	 SHORT $LN102@RequestMCh
$LN100@RequestMCh:
  00155	1b c9		 sbb	 ecx, ecx
  00157	83 c9 01	 or	 ecx, 1
$LN102@RequestMCh:
  0015a	85 c9		 test	 ecx, ecx
  0015c	75 0d		 jne	 SHORT $LN7@RequestMCh

; 520  : 	{
; 521  : 		nCodeType = CMasterTypeInfo::FUTOPT_CHART;

  0015e	8d 71 02	 lea	 esi, DWORD PTR [ecx+2]

; 522  : 		strMarketSymbol = _T("31");

  00161	68 00 00 00 00	 push	 OFFSET ??_C@_02OAMOHKJG@31@

; 523  : 	}

  00166	e9 fb 01 00 00	 jmp	 $LN135@RequestMCh
$LN7@RequestMCh:

; 524  : 	else if (strcmp(szDrdsKey, "OOC0") == 0)				// 

  0016b	ba 00 00 00 00	 mov	 edx, OFFSET ??_C@_04INJDIKHL@OOC0@
  00170	8b c8		 mov	 ecx, eax
$LL103@RequestMCh:
  00172	8a 19		 mov	 bl, BYTE PTR [ecx]
  00174	3a 1a		 cmp	 bl, BYTE PTR [edx]
  00176	75 1a		 jne	 SHORT $LN104@RequestMCh
  00178	84 db		 test	 bl, bl
  0017a	74 12		 je	 SHORT $LN105@RequestMCh
  0017c	8a 59 01	 mov	 bl, BYTE PTR [ecx+1]
  0017f	3a 5a 01	 cmp	 bl, BYTE PTR [edx+1]
  00182	75 0e		 jne	 SHORT $LN104@RequestMCh
  00184	83 c1 02	 add	 ecx, 2
  00187	83 c2 02	 add	 edx, 2
  0018a	84 db		 test	 bl, bl
  0018c	75 e4		 jne	 SHORT $LL103@RequestMCh
$LN105@RequestMCh:
  0018e	33 c9		 xor	 ecx, ecx
  00190	eb 05		 jmp	 SHORT $LN106@RequestMCh
$LN104@RequestMCh:
  00192	1b c9		 sbb	 ecx, ecx
  00194	83 c9 01	 or	 ecx, 1
$LN106@RequestMCh:
  00197	85 c9		 test	 ecx, ecx
  00199	75 0d		 jne	 SHORT $LN9@RequestMCh

; 525  : 	{
; 526  : 		nCodeType = CMasterTypeInfo::FUTOPT_CHART;

  0019b	8d 71 02	 lea	 esi, DWORD PTR [ecx+2]

; 527  : 		strMarketSymbol = _T("41");

  0019e	68 00 00 00 00	 push	 OFFSET ??_C@_02OFIBGMBD@41@

; 528  : 	}

  001a3	e9 be 01 00 00	 jmp	 $LN135@RequestMCh
$LN9@RequestMCh:

; 529  : 	else if (strcmp(szDrdsKey, "JFC0") == 0)				// 

  001a8	ba 00 00 00 00	 mov	 edx, OFFSET ??_C@_04DIHLEKIB@JFC0@
  001ad	8b c8		 mov	 ecx, eax
  001af	90		 npad	 1
$LL107@RequestMCh:
  001b0	8a 19		 mov	 bl, BYTE PTR [ecx]
  001b2	3a 1a		 cmp	 bl, BYTE PTR [edx]
  001b4	75 1a		 jne	 SHORT $LN108@RequestMCh
  001b6	84 db		 test	 bl, bl
  001b8	74 12		 je	 SHORT $LN109@RequestMCh
  001ba	8a 59 01	 mov	 bl, BYTE PTR [ecx+1]
  001bd	3a 5a 01	 cmp	 bl, BYTE PTR [edx+1]
  001c0	75 0e		 jne	 SHORT $LN108@RequestMCh
  001c2	83 c1 02	 add	 ecx, 2
  001c5	83 c2 02	 add	 edx, 2
  001c8	84 db		 test	 bl, bl
  001ca	75 e4		 jne	 SHORT $LL107@RequestMCh
$LN109@RequestMCh:
  001cc	33 c9		 xor	 ecx, ecx
  001ce	eb 05		 jmp	 SHORT $LN110@RequestMCh
$LN108@RequestMCh:
  001d0	1b c9		 sbb	 ecx, ecx
  001d2	83 c9 01	 or	 ecx, 1
$LN110@RequestMCh:
  001d5	85 c9		 test	 ecx, ecx
  001d7	75 0d		 jne	 SHORT $LN11@RequestMCh

; 530  : 	{
; 531  : 		nCodeType = CMasterTypeInfo::STOCKFUTOPT_CHART;

  001d9	8d 71 03	 lea	 esi, DWORD PTR [ecx+3]

; 532  : 		strMarketSymbol = _T("61");

  001dc	68 00 00 00 00	 push	 OFFSET ??_C@_02OGAFLIHN@61@

; 533  : 	}

  001e1	e9 80 01 00 00	 jmp	 $LN135@RequestMCh
$LN11@RequestMCh:

; 534  : 	else if (strcmp(szDrdsKey, "HWFJ")==0)					// 

  001e6	ba 00 00 00 00	 mov	 edx, OFFSET ??_C@_04HJAFHKIM@HWFJ@
  001eb	8b c8		 mov	 ecx, eax
  001ed	0f 1f 00	 npad	 3
$LL111@RequestMCh:
  001f0	8a 19		 mov	 bl, BYTE PTR [ecx]
  001f2	3a 1a		 cmp	 bl, BYTE PTR [edx]
  001f4	75 1a		 jne	 SHORT $LN112@RequestMCh
  001f6	84 db		 test	 bl, bl
  001f8	74 12		 je	 SHORT $LN113@RequestMCh
  001fa	8a 59 01	 mov	 bl, BYTE PTR [ecx+1]
  001fd	3a 5a 01	 cmp	 bl, BYTE PTR [edx+1]
  00200	75 0e		 jne	 SHORT $LN112@RequestMCh
  00202	83 c1 02	 add	 ecx, 2
  00205	83 c2 02	 add	 edx, 2
  00208	84 db		 test	 bl, bl
  0020a	75 e4		 jne	 SHORT $LL111@RequestMCh
$LN113@RequestMCh:
  0020c	33 c9		 xor	 ecx, ecx
  0020e	eb 05		 jmp	 SHORT $LN114@RequestMCh
$LN112@RequestMCh:
  00210	1b c9		 sbb	 ecx, ecx
  00212	83 c9 01	 or	 ecx, 1
$LN114@RequestMCh:
  00215	85 c9		 test	 ecx, ecx
  00217	75 0d		 jne	 SHORT $LN13@RequestMCh

; 535  : 	{
; 536  : 		nCodeType = CMasterTypeInfo::FOREIGN_CHART;

  00219	8d 71 04	 lea	 esi, DWORD PTR [ecx+4]

; 537  : 		strMarketSymbol = _T("51");

  0021c	68 00 00 00 00	 push	 OFFSET ??_C@_02OEEDAGCE@51@

; 538  : 	}

  00221	e9 40 01 00 00	 jmp	 $LN135@RequestMCh
$LN13@RequestMCh:

; 539  : 	else if (strcmp(szDrdsKey, "GTFJ")==0)					// 

  00226	ba 00 00 00 00	 mov	 edx, OFFSET ??_C@_04OJOAECLD@GTFJ@
  0022b	8b c8		 mov	 ecx, eax
  0022d	0f 1f 00	 npad	 3
$LL115@RequestMCh:
  00230	8a 19		 mov	 bl, BYTE PTR [ecx]
  00232	3a 1a		 cmp	 bl, BYTE PTR [edx]
  00234	75 1a		 jne	 SHORT $LN116@RequestMCh
  00236	84 db		 test	 bl, bl
  00238	74 12		 je	 SHORT $LN117@RequestMCh
  0023a	8a 59 01	 mov	 bl, BYTE PTR [ecx+1]
  0023d	3a 5a 01	 cmp	 bl, BYTE PTR [edx+1]
  00240	75 0e		 jne	 SHORT $LN116@RequestMCh
  00242	83 c1 02	 add	 ecx, 2
  00245	83 c2 02	 add	 edx, 2
  00248	84 db		 test	 bl, bl
  0024a	75 e4		 jne	 SHORT $LL115@RequestMCh
$LN117@RequestMCh:
  0024c	33 c9		 xor	 ecx, ecx
  0024e	eb 05		 jmp	 SHORT $LN118@RequestMCh
$LN116@RequestMCh:
  00250	1b c9		 sbb	 ecx, ecx
  00252	83 c9 01	 or	 ecx, 1
$LN118@RequestMCh:
  00255	85 c9		 test	 ecx, ecx
  00257	75 0d		 jne	 SHORT $LN15@RequestMCh

; 540  : 	{
; 541  : 		nCodeType = CMasterTypeInfo::COMMODITY_CHART;

  00259	8d 71 06	 lea	 esi, DWORD PTR [ecx+6]

; 542  : 		strMarketSymbol = _T("101");

  0025c	68 00 00 00 00	 push	 OFFSET ??_C@_03HEBKFNAF@101@

; 543  : 	}

  00261	e9 00 01 00 00	 jmp	 $LN135@RequestMCh
$LN15@RequestMCh:

; 544  : 	else if (strcmp(szDrdsKey, "FOJS")==0)					// FO ,    ..  .

  00266	ba 00 00 00 00	 mov	 edx, OFFSET ??_C@_04MBICOLOB@FOJS@
  0026b	8b c8		 mov	 ecx, eax
  0026d	0f 1f 00	 npad	 3
$LL119@RequestMCh:
  00270	8a 19		 mov	 bl, BYTE PTR [ecx]
  00272	3a 1a		 cmp	 bl, BYTE PTR [edx]
  00274	75 1a		 jne	 SHORT $LN120@RequestMCh
  00276	84 db		 test	 bl, bl
  00278	74 12		 je	 SHORT $LN121@RequestMCh
  0027a	8a 59 01	 mov	 bl, BYTE PTR [ecx+1]
  0027d	3a 5a 01	 cmp	 bl, BYTE PTR [edx+1]
  00280	75 0e		 jne	 SHORT $LN120@RequestMCh
  00282	83 c1 02	 add	 ecx, 2
  00285	83 c2 02	 add	 edx, 2
  00288	84 db		 test	 bl, bl
  0028a	75 e4		 jne	 SHORT $LL119@RequestMCh
$LN121@RequestMCh:
  0028c	33 c9		 xor	 ecx, ecx
  0028e	eb 05		 jmp	 SHORT $LN122@RequestMCh
$LN120@RequestMCh:
  00290	1b c9		 sbb	 ecx, ecx
  00292	83 c9 01	 or	 ecx, 1
$LN122@RequestMCh:
  00295	85 c9		 test	 ecx, ecx
  00297	75 0b		 jne	 SHORT $LN17@RequestMCh

; 545  : 	{
; 546  : 		nCodeType = CMasterTypeInfo::FUOPT_JIPYO_CHART;

  00299	8d 71 05	 lea	 esi, DWORD PTR [ecx+5]

; 547  : 		bRealSend = FALSE;

  0029c	89 4d f4	 mov	 DWORD PTR _bRealSend$1$[ebp], ecx

; 548  : 	}

  0029f	e9 cb 00 00 00	 jmp	 $LN24@RequestMCh
$LN17@RequestMCh:

; 549  : 	else if (strcmp(szDrdsKey, "FOFR")==0)					// , IBK  .

  002a4	ba 00 00 00 00	 mov	 edx, OFFSET ??_C@_04NBIDCDME@FOFR@
  002a9	8b c8		 mov	 ecx, eax
  002ab	0f 1f 44 00 00	 npad	 5
$LL123@RequestMCh:
  002b0	8a 19		 mov	 bl, BYTE PTR [ecx]
  002b2	3a 1a		 cmp	 bl, BYTE PTR [edx]
  002b4	75 1a		 jne	 SHORT $LN124@RequestMCh
  002b6	84 db		 test	 bl, bl
  002b8	74 12		 je	 SHORT $LN125@RequestMCh
  002ba	8a 59 01	 mov	 bl, BYTE PTR [ecx+1]
  002bd	3a 5a 01	 cmp	 bl, BYTE PTR [edx+1]
  002c0	75 0e		 jne	 SHORT $LN124@RequestMCh
  002c2	83 c1 02	 add	 ecx, 2
  002c5	83 c2 02	 add	 edx, 2
  002c8	84 db		 test	 bl, bl
  002ca	75 e4		 jne	 SHORT $LL123@RequestMCh
$LN125@RequestMCh:
  002cc	33 c9		 xor	 ecx, ecx
  002ce	eb 05		 jmp	 SHORT $LN126@RequestMCh
$LN124@RequestMCh:
  002d0	1b c9		 sbb	 ecx, ecx
  002d2	83 c9 01	 or	 ecx, 1
$LN126@RequestMCh:
  002d5	85 c9		 test	 ecx, ecx
  002d7	75 0b		 jne	 SHORT $LN19@RequestMCh

; 550  : 	{
; 551  : 		nCodeType = CMasterTypeInfo::FO_FOREIGN_CHART;

  002d9	8d 71 08	 lea	 esi, DWORD PTR [ecx+8]

; 552  : 		bRealSend = FALSE;

  002dc	89 4d f4	 mov	 DWORD PTR _bRealSend$1$[ebp], ecx

; 553  : 	}

  002df	e9 8b 00 00 00	 jmp	 $LN24@RequestMCh
$LN19@RequestMCh:

; 554  : 	else if (strcmp(szDrdsKey, "FX")==0)					// FX , IBK  .

  002e4	ba 00 00 00 00	 mov	 edx, OFFSET ??_C@_02GMLAAMD@FX@
  002e9	8b c8		 mov	 ecx, eax
  002eb	0f 1f 44 00 00	 npad	 5
$LL127@RequestMCh:
  002f0	8a 19		 mov	 bl, BYTE PTR [ecx]
  002f2	3a 1a		 cmp	 bl, BYTE PTR [edx]
  002f4	75 1a		 jne	 SHORT $LN128@RequestMCh
  002f6	84 db		 test	 bl, bl
  002f8	74 12		 je	 SHORT $LN129@RequestMCh
  002fa	8a 59 01	 mov	 bl, BYTE PTR [ecx+1]
  002fd	3a 5a 01	 cmp	 bl, BYTE PTR [edx+1]
  00300	75 0e		 jne	 SHORT $LN128@RequestMCh
  00302	83 c1 02	 add	 ecx, 2
  00305	83 c2 02	 add	 edx, 2
  00308	84 db		 test	 bl, bl
  0030a	75 e4		 jne	 SHORT $LL127@RequestMCh
$LN129@RequestMCh:
  0030c	33 c9		 xor	 ecx, ecx
  0030e	eb 05		 jmp	 SHORT $LN130@RequestMCh
$LN128@RequestMCh:
  00310	1b c9		 sbb	 ecx, ecx
  00312	83 c9 01	 or	 ecx, 1
$LN130@RequestMCh:
  00315	85 c9		 test	 ecx, ecx
  00317	75 08		 jne	 SHORT $LN21@RequestMCh

; 555  : 	{
; 556  : 		nCodeType = CMasterTypeInfo::FX_CHART;

  00319	8d 71 09	 lea	 esi, DWORD PTR [ecx+9]

; 557  : 		bRealSend = FALSE;

  0031c	89 4d f4	 mov	 DWORD PTR _bRealSend$1$[ebp], ecx

; 558  : 	}

  0031f	eb 4e		 jmp	 SHORT $LN24@RequestMCh
$LN21@RequestMCh:

; 559  : 	else if (strcmp(szDrdsKey, "JOC0") == 0)				// , IBK  .

  00321	b9 00 00 00 00	 mov	 ecx, OFFSET ??_C@_04EFHDAFAL@JOC0@
$LL131@RequestMCh:
  00326	8a 10		 mov	 dl, BYTE PTR [eax]
  00328	3a 11		 cmp	 dl, BYTE PTR [ecx]
  0032a	75 1a		 jne	 SHORT $LN132@RequestMCh
  0032c	84 d2		 test	 dl, dl
  0032e	74 12		 je	 SHORT $LN133@RequestMCh
  00330	8a 50 01	 mov	 dl, BYTE PTR [eax+1]
  00333	3a 51 01	 cmp	 dl, BYTE PTR [ecx+1]
  00336	75 0e		 jne	 SHORT $LN132@RequestMCh
  00338	83 c0 02	 add	 eax, 2
  0033b	83 c1 02	 add	 ecx, 2
  0033e	84 d2		 test	 dl, dl
  00340	75 e4		 jne	 SHORT $LL131@RequestMCh
$LN133@RequestMCh:
  00342	33 c0		 xor	 eax, eax
  00344	eb 05		 jmp	 SHORT $LN134@RequestMCh
$LN132@RequestMCh:
  00346	1b c0		 sbb	 eax, eax
  00348	83 c8 01	 or	 eax, 1
$LN134@RequestMCh:
  0034b	85 c0		 test	 eax, eax
  0034d	75 08		 jne	 SHORT $LN23@RequestMCh

; 560  : 	{
; 561  : 		nCodeType = CMasterTypeInfo::STOCKFUTOPT_CHART;

  0034f	8d 70 03	 lea	 esi, DWORD PTR [eax+3]

; 562  : 		bRealSend = FALSE;

  00352	89 45 f4	 mov	 DWORD PTR _bRealSend$1$[ebp], eax

; 563  : 	}

  00355	eb 18		 jmp	 SHORT $LN24@RequestMCh
$LN23@RequestMCh:
  00357	83 ce ff	 or	 esi, -1
  0035a	e9 af 01 00 00	 jmp	 $LN28@RequestMCh
$LN4@RequestMCh:

; 510  : 	{														// //ELW
; 511  : 		nCodeType = CMasterTypeInfo::STOCK_CHART;

  0035f	33 f6		 xor	 esi, esi

; 512  : 		strMarketSymbol = _T("1");

  00361	68 00 00 00 00	 push	 OFFSET ??_C@_01HIHLOKLC@1@
$LN135@RequestMCh:

; 564  : 	else
; 565  : 		return -1;
; 566  : 
; 567  : 	m_bUseRegisterCodeMng = TRUE;

  00366	8d 4d fc	 lea	 ecx, DWORD PTR _strMarketSymbol$[ebp]
  00369	ff 15 00 00 00
	00		 call	 DWORD PTR __imp_??4?$CStringT@DV?$StrTraitMFC_DLL@DV?$ChTraitsCRT@D@ATL@@@@@ATL@@QAEAAV01@PBD@Z
$LN24@RequestMCh:
  0036f	8b 5d 08	 mov	 ebx, DWORD PTR _this$[ebp]

; 568  : 	//100521-alzioyes.   .
; 569  : 	if (cKey=='A')

  00372	6a 00		 push	 0
  00374	ff 75 14	 push	 DWORD PTR _szCode$[ebp]
  00377	8d 8b 44 11 00
	00		 lea	 ecx, DWORD PTR [ebx+4420]
  0037d	c7 83 40 11 00
	00 01 00 00 00	 mov	 DWORD PTR [ebx+4416], 1
  00387	e8 00 00 00 00	 call	 ?Find@CStringList@@QBEPAU__POSITION@@PBDPAU2@@Z ; CStringList::Find
  0038c	80 7d 0c 41	 cmp	 BYTE PTR _cKey$[ebp], 65 ; 00000041H
  00390	75 14		 jne	 SHORT $LN25@RequestMCh

; 39   : 	if(pos==NULL) m_CodeList.AddHead(szCode);

  00392	85 c0		 test	 eax, eax
  00394	75 20		 jne	 SHORT $LN40@RequestMCh
  00396	ff 75 14	 push	 DWORD PTR _szCode$[ebp]
  00399	8d 8b 44 11 00
	00		 lea	 ecx, DWORD PTR [ebx+4420]
  0039f	e8 00 00 00 00	 call	 ?AddHead@CStringList@@QAEPAU__POSITION@@PBD@Z ; CStringList::AddHead

; 570  : 		m_RegisterCodeMng.AddCode(szCode);

  003a4	eb 10		 jmp	 SHORT $LN40@RequestMCh
$LN25@RequestMCh:

; 33   : 	if(pos) m_CodeList.RemoveAt(pos);

  003a6	85 c0		 test	 eax, eax
  003a8	74 0c		 je	 SHORT $LN40@RequestMCh
  003aa	50		 push	 eax
  003ab	8d 8b 44 11 00
	00		 lea	 ecx, DWORD PTR [ebx+4420]
  003b1	e8 00 00 00 00	 call	 ?RemoveAt@CStringList@@QAEXPAU__POSITION@@@Z ; CStringList::RemoveAt
$LN40@RequestMCh:

; 571  : 	else
; 572  : 		m_RegisterCodeMng.RemoveCode(szCode);
; 573  : 
; 574  : 	int nKey = GetRealKey(cKey, szCode, nCodeType);

  003b6	56		 push	 esi
  003b7	ff 75 14	 push	 DWORD PTR _szCode$[ebp]
  003ba	8b cb		 mov	 ecx, ebx
  003bc	ff 75 0c	 push	 DWORD PTR _cKey$[ebp]
  003bf	e8 00 00 00 00	 call	 ?GetRealKey@CPartnerManager@@QAEHEPBDH@Z ; CPartnerManager::GetRealKey
  003c4	8b f0		 mov	 esi, eax

; 575  : 
; 576  : 	if (nKey<0 || cKey=='U')

  003c6	85 f6		 test	 esi, esi
  003c8	0f 88 40 01 00
	00		 js	 $LN28@RequestMCh
  003ce	80 7d 0c 55	 cmp	 BYTE PTR _cKey$[ebp], 85 ; 00000055H
  003d2	0f 84 36 01 00
	00		 je	 $LN28@RequestMCh

; 577  : 		return nKey;
; 578  : 
; 579  : 	if (!bRealSend)

  003d8	83 7d f4 00	 cmp	 DWORD PTR _bRealSend$1$[ebp], 0
  003dc	75 0a		 jne	 SHORT $LN29@RequestMCh

; 580  : 		return 1;

  003de	be 01 00 00 00	 mov	 esi, 1
  003e3	e9 26 01 00 00	 jmp	 $LN28@RequestMCh
$LN29@RequestMCh:
; File C:\Program Files (x86)\Microsoft Visual Studio\2019\Community\VC\Tools\MSVC\14.29.30133\atlmfc\include\cstringt.h

; 2401 : 		CStringT strResult( str1.GetManager() );

  003e8	8d 4d fc	 lea	 ecx, DWORD PTR _strMarketSymbol$[ebp]
  003eb	ff 15 00 00 00
	00		 call	 DWORD PTR __imp_?GetManager@?$CStringT@DV?$StrTraitMFC_DLL@DV?$ChTraitsCRT@D@ATL@@@@@ATL@@QBEPAUIAtlStringMgr@2@XZ
  003f1	50		 push	 eax
  003f2	8d 4d 14	 lea	 ecx, DWORD PTR $T3[ebp]
  003f5	ff 15 00 00 00
	00		 call	 DWORD PTR __imp_??0?$CStringT@DV?$StrTraitMFC_DLL@DV?$ChTraitsCRT@D@ATL@@@@@ATL@@QAE@PAUIAtlStringMgr@1@@Z

; 2402 : 
; 2403 : 		CThisSimpleString::Concatenate( strResult, str1, str1.GetLength(), psz2, CThisSimpleString::StringLength( psz2 ) );

  003fb	8b 45 fc	 mov	 eax, DWORD PTR _strMarketSymbol$[ebp]
  003fe	6a 03		 push	 3
  00400	68 00 00 00 00	 push	 OFFSET ??_C@_03NOBDJFIO@301@
  00405	ff 70 f4	 push	 DWORD PTR [eax-12]
  00408	50		 push	 eax
  00409	8d 45 14	 lea	 eax, DWORD PTR $T3[ebp]
  0040c	50		 push	 eax
  0040d	ff 15 00 00 00
	00		 call	 DWORD PTR __imp_?Concatenate@?$CSimpleStringT@D$00@ATL@@KAXAAV12@PBDH1H@Z
  00413	83 c4 14	 add	 esp, 20			; 00000014H
; File D:\git\src\IBK\IBK_DRFN\ProjSrc\SrcDrfn\DrCommon\PartnerMng\_PartnerManager.cpp

; 582  : 	strData += strMarketSymbol + _T("301");

  00416	8d 45 14	 lea	 eax, DWORD PTR $T3[ebp]
  00419	8d 4d f8	 lea	 ecx, DWORD PTR _strData$[ebp]
  0041c	50		 push	 eax
  0041d	ff 15 00 00 00
	00		 call	 DWORD PTR __imp_??Y?$CStringT@DV?$StrTraitMFC_DLL@DV?$ChTraitsCRT@D@ATL@@@@@ATL@@QAEAAV01@ABV?$CSimpleStringT@D$00@1@@Z
  00423	8d 4d 14	 lea	 ecx, DWORD PTR $T3[ebp]
  00426	ff 15 00 00 00
	00		 call	 DWORD PTR __imp_??1?$CStringT@DV?$StrTraitMFC_DLL@DV?$ChTraitsCRT@D@ATL@@@@@ATL@@QAE@XZ

; 583  : 	strData += sDS;

  0042c	6a 7f		 push	 127			; 0000007fH
  0042e	8d 4d f8	 lea	 ecx, DWORD PTR _strData$[ebp]
  00431	ff 15 00 00 00
	00		 call	 DWORD PTR __imp_??Y?$CStringT@DV?$StrTraitMFC_DLL@DV?$ChTraitsCRT@D@ATL@@@@@ATL@@QAEAAV01@D@Z

; 584  : 	strData += strCode;

  00437	8d 45 f0	 lea	 eax, DWORD PTR _strCode$[ebp]
  0043a	50		 push	 eax
  0043b	8d 4d f8	 lea	 ecx, DWORD PTR _strData$[ebp]
  0043e	ff 15 00 00 00
	00		 call	 DWORD PTR __imp_??Y?$CStringT@DV?$StrTraitMFC_DLL@DV?$ChTraitsCRT@D@ATL@@@@@ATL@@QAEAAV01@ABV?$CSimpleStringT@D$00@1@@Z

; 585  : 	strData += sCELL;

  00444	6a 09		 push	 9
  00446	8d 4d f8	 lea	 ecx, DWORD PTR _strData$[ebp]
  00449	ff 15 00 00 00
	00		 call	 DWORD PTR __imp_??Y?$CStringT@DV?$StrTraitMFC_DLL@DV?$ChTraitsCRT@D@ATL@@@@@ATL@@QAEAAV01@D@Z
; File C:\Program Files (x86)\Microsoft Visual Studio\2019\Community\VC\Tools\MSVC\14.29.30133\atlmfc\include\cstringt.h

; 2401 : 		CStringT strResult( str1.GetManager() );

  0044f	8d 4d fc	 lea	 ecx, DWORD PTR _strMarketSymbol$[ebp]
  00452	ff 15 00 00 00
	00		 call	 DWORD PTR __imp_?GetManager@?$CStringT@DV?$StrTraitMFC_DLL@DV?$ChTraitsCRT@D@ATL@@@@@ATL@@QBEPAUIAtlStringMgr@2@XZ
  00458	50		 push	 eax
  00459	8d 4d 14	 lea	 ecx, DWORD PTR $T2[ebp]
  0045c	ff 15 00 00 00
	00		 call	 DWORD PTR __imp_??0?$CStringT@DV?$StrTraitMFC_DLL@DV?$ChTraitsCRT@D@ATL@@@@@ATL@@QAE@PAUIAtlStringMgr@1@@Z

; 2402 : 
; 2403 : 		CThisSimpleString::Concatenate( strResult, str1, str1.GetLength(), psz2, CThisSimpleString::StringLength( psz2 ) );

  00462	8b 45 fc	 mov	 eax, DWORD PTR _strMarketSymbol$[ebp]
  00465	6a 03		 push	 3
  00467	68 00 00 00 00	 push	 OFFSET ??_C@_03MPCCOOAO@021@
  0046c	ff 70 f4	 push	 DWORD PTR [eax-12]
  0046f	50		 push	 eax
  00470	8d 45 14	 lea	 eax, DWORD PTR $T2[ebp]
  00473	50		 push	 eax
  00474	ff 15 00 00 00
	00		 call	 DWORD PTR __imp_?Concatenate@?$CSimpleStringT@D$00@ATL@@KAXAAV12@PBDH1H@Z
  0047a	83 c4 14	 add	 esp, 20			; 00000014H
; File D:\git\src\IBK\IBK_DRFN\ProjSrc\SrcDrfn\DrCommon\PartnerMng\_PartnerManager.cpp

; 586  : 	strData += strMarketSymbol + _T("021");

  0047d	8d 45 14	 lea	 eax, DWORD PTR $T2[ebp]
  00480	8d 4d f8	 lea	 ecx, DWORD PTR _strData$[ebp]
  00483	50		 push	 eax
  00484	ff 15 00 00 00
	00		 call	 DWORD PTR __imp_??Y?$CStringT@DV?$StrTraitMFC_DLL@DV?$ChTraitsCRT@D@ATL@@@@@ATL@@QAEAAV01@ABV?$CSimpleStringT@D$00@1@@Z
  0048a	8d 4d 14	 lea	 ecx, DWORD PTR $T2[ebp]
  0048d	ff 15 00 00 00
	00		 call	 DWORD PTR __imp_??1?$CStringT@DV?$StrTraitMFC_DLL@DV?$ChTraitsCRT@D@ATL@@@@@ATL@@QAE@XZ

; 587  : 	strData += sCELL;

  00493	6a 09		 push	 9
  00495	8d 4d f8	 lea	 ecx, DWORD PTR _strData$[ebp]
  00498	ff 15 00 00 00
	00		 call	 DWORD PTR __imp_??Y?$CStringT@DV?$StrTraitMFC_DLL@DV?$ChTraitsCRT@D@ATL@@@@@ATL@@QAEAAV01@D@Z
; File C:\Program Files (x86)\Microsoft Visual Studio\2019\Community\VC\Tools\MSVC\14.29.30133\atlmfc\include\cstringt.h

; 2401 : 		CStringT strResult( str1.GetManager() );

  0049e	8d 4d fc	 lea	 ecx, DWORD PTR _strMarketSymbol$[ebp]
  004a1	ff 15 00 00 00
	00		 call	 DWORD PTR __imp_?GetManager@?$CStringT@DV?$StrTraitMFC_DLL@DV?$ChTraitsCRT@D@ATL@@@@@ATL@@QBEPAUIAtlStringMgr@2@XZ
  004a7	50		 push	 eax
  004a8	8d 4d 14	 lea	 ecx, DWORD PTR $T1[ebp]
  004ab	ff 15 00 00 00
	00		 call	 DWORD PTR __imp_??0?$CStringT@DV?$StrTraitMFC_DLL@DV?$ChTraitsCRT@D@ATL@@@@@ATL@@QAE@PAUIAtlStringMgr@1@@Z

; 2402 : 
; 2403 : 		CThisSimpleString::Concatenate( strResult, str1, str1.GetLength(), psz2, CThisSimpleString::StringLength( psz2 ) );

  004b1	8b 45 fc	 mov	 eax, DWORD PTR _strMarketSymbol$[ebp]
  004b4	6a 03		 push	 3
  004b6	68 00 00 00 00	 push	 OFFSET ??_C@_03PNBEIMIM@023@
  004bb	ff 70 f4	 push	 DWORD PTR [eax-12]
  004be	50		 push	 eax
  004bf	8d 45 14	 lea	 eax, DWORD PTR $T1[ebp]
  004c2	50		 push	 eax
  004c3	ff 15 00 00 00
	00		 call	 DWORD PTR __imp_?Concatenate@?$CSimpleStringT@D$00@ATL@@KAXAAV12@PBDH1H@Z
  004c9	83 c4 14	 add	 esp, 20			; 00000014H
; File D:\git\src\IBK\IBK_DRFN\ProjSrc\SrcDrfn\DrCommon\PartnerMng\_PartnerManager.cpp

; 588  : 	strData += strMarketSymbol + _T("023");

  004cc	8d 45 14	 lea	 eax, DWORD PTR $T1[ebp]
  004cf	8d 4d f8	 lea	 ecx, DWORD PTR _strData$[ebp]
  004d2	50		 push	 eax
  004d3	ff 15 00 00 00
	00		 call	 DWORD PTR __imp_??Y?$CStringT@DV?$StrTraitMFC_DLL@DV?$ChTraitsCRT@D@ATL@@@@@ATL@@QAEAAV01@ABV?$CSimpleStringT@D$00@1@@Z
  004d9	8d 4d 14	 lea	 ecx, DWORD PTR $T1[ebp]
  004dc	ff 15 00 00 00
	00		 call	 DWORD PTR __imp_??1?$CStringT@DV?$StrTraitMFC_DLL@DV?$ChTraitsCRT@D@ATL@@@@@ATL@@QAE@XZ

; 589  : 	strData += sCELL;

  004e2	6a 09		 push	 9
  004e4	8d 4d f8	 lea	 ecx, DWORD PTR _strData$[ebp]
  004e7	ff 15 00 00 00
	00		 call	 DWORD PTR __imp_??Y?$CStringT@DV?$StrTraitMFC_DLL@DV?$ChTraitsCRT@D@ATL@@@@@ATL@@QAEAAV01@D@Z
; File C:\Program Files (x86)\Microsoft Visual Studio\2019\Community\VC\Tools\MSVC\14.29.30133\atlmfc\include\atlsimpstr.h

; 519  : 		return( GetData()->nDataLength );

  004ed	8b 45 f8	 mov	 eax, DWORD PTR _strData$[ebp]
; File D:\git\src\IBK\IBK_DRFN\ProjSrc\SrcDrfn\DrCommon\PartnerMng\_PartnerManager.cpp

; 597  : 	return SendTR("GOOPHOOP", (LPSTR)(LPCTSTR)strData, strData.GetLength(), nKey, US_OOP);

  004f0	6a 02		 push	 2
  004f2	56		 push	 esi
  004f3	ff 70 f4	 push	 DWORD PTR [eax-12]
  004f6	50		 push	 eax
  004f7	51		 push	 ecx
  004f8	8b cc		 mov	 ecx, esp
  004fa	68 00 00 00 00	 push	 OFFSET ??_C@_08IHPMJEPD@GOOPHOOP@
  004ff	ff 15 00 00 00
	00		 call	 DWORD PTR __imp_??0?$CStringT@DV?$StrTraitMFC_DLL@DV?$ChTraitsCRT@D@ATL@@@@@ATL@@QAE@PBD@Z
  00505	8b cb		 mov	 ecx, ebx
  00507	e8 00 00 00 00	 call	 ?SendTR@CPartnerManager@@QAEHV?$CStringT@DV?$StrTraitMFC_DLL@DV?$ChTraitsCRT@D@ATL@@@@@ATL@@PADHHH@Z ; CPartnerManager::SendTR
  0050c	8b f0		 mov	 esi, eax
$LN28@RequestMCh:
  0050e	8d 4d fc	 lea	 ecx, DWORD PTR _strMarketSymbol$[ebp]
  00511	ff 15 00 00 00
	00		 call	 DWORD PTR __imp_??1?$CStringT@DV?$StrTraitMFC_DLL@DV?$ChTraitsCRT@D@ATL@@@@@ATL@@QAE@XZ
  00517	8d 4d f0	 lea	 ecx, DWORD PTR _strCode$[ebp]
  0051a	ff 15 00 00 00
	00		 call	 DWORD PTR __imp_??1?$CStringT@DV?$StrTraitMFC_DLL@DV?$ChTraitsCRT@D@ATL@@@@@ATL@@QAE@XZ
  00520	8d 4d f8	 lea	 ecx, DWORD PTR _strData$[ebp]
  00523	ff 15 00 00 00
	00		 call	 DWORD PTR __imp_??1?$CStringT@DV?$StrTraitMFC_DLL@DV?$ChTraitsCRT@D@ATL@@@@@ATL@@QAE@XZ

; 598  : }

  00529	5f		 pop	 edi
  0052a	8b c6		 mov	 eax, esi
  0052c	5e		 pop	 esi
  0052d	5b		 pop	 ebx
  0052e	8b e5		 mov	 esp, ebp
  00530	5d		 pop	 ebp
  00531	c2 10 00	 ret	 16			; 00000010H
?RequestMChartReal@CPartnerManager@@UAGHEPBD0@Z ENDP	; CPartnerManager::RequestMChartReal
_TEXT	ENDS
; Function compile flags: /Ogtp
; File D:\git\src\IBK\IBK_DRFN\ProjSrc\SrcDrfn\DrCommon\PartnerMng\_PartnerManager.cpp
; File C:\Program Files (x86)\Microsoft Visual Studio\2019\Community\VC\Tools\MSVC\14.29.30133\atlmfc\include\afxmt.inl
; File D:\git\src\IBK\IBK_DRFN\ProjSrc\SrcDrfn\DrCommon\PartnerMng\_PartnerManager.cpp
; File D:\git\src\IBK\IBK_DRFN\ProjSrc\SrcDrfn\inc\LoadDRDebuger.h
; File D:\git\src\IBK\IBK_DRFN\ProjSrc\SrcDrfn\DrCommon\PartnerMng\_PartnerManager.cpp
; File C:\Program Files (x86)\Microsoft Visual Studio\2019\Community\VC\Tools\MSVC\14.29.30133\atlmfc\include\atlsimpstr.h
; File D:\git\src\IBK\IBK_DRFN\ProjSrc\SrcDrfn\DrCommon\PartnerMng\_PartnerManager.cpp
; File D:\git\src\IBK\IBK_DRFN\ProjSrc\SrcDrfn\inc\LoadDRDebuger.h
; File D:\git\src\IBK\IBK_DRFN\ProjSrc\SrcDrfn\DrCommon\PartnerMng\_PartnerManager.cpp
;	COMDAT ?ReceiveTRData@CPartnerManager@@UAGHPBDPAEHH@Z
_TEXT	SEGMENT
_item$1 = -32						; size = 16
$T2 = -16						; size = 4
_strData$3 = -12					; size = 4
_pszGuideLine$1$ = -8					; size = 4
_nGuideLine$4 = -4					; size = 4
_nDataLen$5 = 8						; size = 4
_this$ = 8						; size = 4
_szTRNo$6 = 12						; size = 4
_szTR$ = 12						; size = 4
_p_DataLen$1$ = 16					; size = 4
_pData$ = 16						; size = 4
_nLen$ = 20						; size = 4
_szData$1$ = 24						; size = 4
_nKey$ = 24						; size = 4
?ReceiveTRData@CPartnerManager@@UAGHPBDPAEHH@Z PROC	; CPartnerManager::ReceiveTRData, COMDAT

; 265  : {	

  00000	55		 push	 ebp
  00001	8b ec		 mov	 ebp, esp
  00003	83 ec 20	 sub	 esp, 32			; 00000020H
  00006	53		 push	 ebx

; 266  : 	ASSERT(m_pPtSite);
; 267  : 	if(m_pPtSite)

  00007	8b 5d 08	 mov	 ebx, DWORD PTR _this$[ebp]
  0000a	56		 push	 esi
  0000b	57		 push	 edi
  0000c	83 7b 20 00	 cmp	 DWORD PTR [ebx+32], 0
  00010	0f 84 a8 01 00
	00		 je	 $LN2@ReceiveTRD
; File C:\Program Files (x86)\Microsoft Visual Studio\2019\Community\VC\Tools\MSVC\14.29.30133\atlmfc\include\afxmt.inl

; 111  : 	::EnterCriticalSection(&m_sect); 

  00016	8d 83 28 11 00
	00		 lea	 eax, DWORD PTR [ebx+4392]
  0001c	50		 push	 eax
  0001d	ff 15 00 00 00
	00		 call	 DWORD PTR __imp__EnterCriticalSection@4
; File D:\git\src\IBK\IBK_DRFN\ProjSrc\SrcDrfn\DrCommon\PartnerMng\_PartnerManager.cpp

; 271  : 		CString strData;

  00023	8d 4d f4	 lea	 ecx, DWORD PTR _strData$3[ebp]
  00026	ff 15 00 00 00
	00		 call	 DWORD PTR __imp_??0?$CStringT@DV?$StrTraitMFC_DLL@DV?$ChTraitsCRT@D@ATL@@@@@ATL@@QAE@XZ

; 272  : 		int nDataLen = 0, nGuideLine = 0;
; 273  : 
; 274  : 		if(nKey >= TRKEY_STRJONGMOK && nKey <= TRKEY_FID_END || nKey >= TRKEY_STRMARKET_0 && nKey <= TRKEY_STRMARKET_END)

  0002c	8b 7d 18	 mov	 edi, DWORD PTR _nKey$[ebp]
  0002f	c7 45 08 00 00
	00 00		 mov	 DWORD PTR _nDataLen$5[ebp], 0
  00036	c7 45 fc 00 00
	00 00		 mov	 DWORD PTR _nGuideLine$4[ebp], 0
  0003d	83 ff 1e	 cmp	 edi, 30			; 0000001eH
  00040	7c 05		 jl	 SHORT $LN6@ReceiveTRD
  00042	83 ff 45	 cmp	 edi, 69			; 00000045H
  00045	7e 0f		 jle	 SHORT $LN5@ReceiveTRD
$LN6@ReceiveTRD:
  00047	8d 87 6a ff ff
	ff		 lea	 eax, DWORD PTR [edi-150]
  0004d	83 f8 32	 cmp	 eax, 50			; 00000032H
  00050	0f 87 0d 01 00
	00		 ja	 $LN3@ReceiveTRD
$LN5@ReceiveTRD:

; 275  : 		{
; 276  : 			char* szData = m_DataConverter.Convert2Struct(pData, nLen, nKey, nDataLen);

  00056	8d 4d 08	 lea	 ecx, DWORD PTR _nDataLen$5[ebp]
  00059	51		 push	 ecx
  0005a	57		 push	 edi
  0005b	ff 75 14	 push	 DWORD PTR _nLen$[ebp]
  0005e	8d 4b 24	 lea	 ecx, DWORD PTR [ebx+36]
  00061	ff 75 10	 push	 DWORD PTR _pData$[ebp]
  00064	e8 00 00 00 00	 call	 ?Convert2Struct@CDataConverter@@QAEPADPAEHHAAH@Z ; CDataConverter::Convert2Struct
  00069	8b f0		 mov	 esi, eax

; 277  : 			//@Solomon:091123SM068	-->
; 278  : 			char* pszGuideLine = m_DataConverter.GetConv2StructGuideLine(nKey, nGuideLine);

  0006b	8d 4b 24	 lea	 ecx, DWORD PTR [ebx+36]
  0006e	8d 45 fc	 lea	 eax, DWORD PTR _nGuideLine$4[ebp]
  00071	89 75 18	 mov	 DWORD PTR _szData$1$[ebp], esi
  00074	50		 push	 eax
  00075	57		 push	 edi
  00076	e8 00 00 00 00	 call	 ?GetConv2StructGuideLine@CDataConverter@@QAEPADHAAH@Z ; CDataConverter::GetConv2StructGuideLine

; 279  : 			if (nGuideLine > 0)

  0007b	83 7d fc 00	 cmp	 DWORD PTR _nGuideLine$4[ebp], 0
  0007f	89 45 f8	 mov	 DWORD PTR _pszGuideLine$1$[ebp], eax
  00082	7e 42		 jle	 SHORT $LN8@ReceiveTRD

; 280  : 			{
; 281  : 				m_pPtSite->RecieveTRData(nKey, m_DataConverter.GetTrNo(nKey), QUERY_STRGUIDELINE, "", (LPVOID)pszGuideLine, nGuideLine);

  00084	57		 push	 edi
  00085	8d 45 f0	 lea	 eax, DWORD PTR $T2[ebp]
  00088	50		 push	 eax
  00089	8d 4b 24	 lea	 ecx, DWORD PTR [ebx+36]
  0008c	e8 00 00 00 00	 call	 ?GetTrNo@CDataConverter@@QAE?AV?$CStringT@DV?$StrTraitMFC_DLL@DV?$ChTraitsCRT@D@ATL@@@@@ATL@@H@Z ; CDataConverter::GetTrNo
  00091	ff 75 fc	 push	 DWORD PTR _nGuideLine$4[ebp]
  00094	8b 4b 20	 mov	 ecx, DWORD PTR [ebx+32]
  00097	ff 75 f8	 push	 DWORD PTR _pszGuideLine$1$[ebp]
  0009a	68 00 00 00 00	 push	 OFFSET ??_C@_00CNPNBAHC@@
  0009f	8b 11		 mov	 edx, DWORD PTR [ecx]
  000a1	68 00 00 00 00	 push	 OFFSET ??_C@_05EJMFFBE@d1017@
  000a6	ff 30		 push	 DWORD PTR [eax]
  000a8	57		 push	 edi
  000a9	51		 push	 ecx
  000aa	ff 52 04	 call	 DWORD PTR [edx+4]
  000ad	8d 4d f0	 lea	 ecx, DWORD PTR $T2[ebp]
  000b0	ff 15 00 00 00
	00		 call	 DWORD PTR __imp_??1?$CStringT@DV?$StrTraitMFC_DLL@DV?$ChTraitsCRT@D@ATL@@@@@ATL@@QAE@XZ

; 282  : 				//if(gDebugMng) gDebugMng->TraceTran('O', szTR, nGuideLine, pszGuideLine);
; 283  : 				//g_DRDebuger.DRLog_ResponseData(m_DataConverter.GetTrNo(nKey), (LPBYTE)pszGuideLine, nGuideLine));
; 284  : 				if (pszGuideLine > 0)

  000b6	8b 45 f8	 mov	 eax, DWORD PTR _pszGuideLine$1$[ebp]
  000b9	85 c0		 test	 eax, eax
  000bb	74 09		 je	 SHORT $LN8@ReceiveTRD

; 285  : 				{
; 286  : 					delete[] pszGuideLine;

  000bd	50		 push	 eax
  000be	e8 00 00 00 00	 call	 ??_V@YAXPAX@Z		; operator delete[]
  000c3	83 c4 04	 add	 esp, 4
$LN8@ReceiveTRD:

; 287  : 					pszGuideLine = NULL;
; 288  : 				}
; 289  : 			}
; 290  : 			//@Solomon:091123SM068	<--
; 291  : 
; 292  : 			//20221209  szTRNo    (GetTrNo  CString         ) >>
; 293  : 			//LPCSTR szTRNo = m_DataConverter.GetTrNo(nKey);
; 294  : 			CString szTRNo = m_DataConverter.GetTrNo(nKey);

  000c6	57		 push	 edi
  000c7	8d 45 0c	 lea	 eax, DWORD PTR _szTRNo$6[ebp]
  000ca	50		 push	 eax
  000cb	8d 4b 24	 lea	 ecx, DWORD PTR [ebx+36]
  000ce	e8 00 00 00 00	 call	 ?GetTrNo@CDataConverter@@QAE?AV?$CStringT@DV?$StrTraitMFC_DLL@DV?$ChTraitsCRT@D@ATL@@@@@ATL@@H@Z ; CDataConverter::GetTrNo

; 295  : 			//20221209  szTRNo    (GetTrNo  CString         ) <<
; 296  : 			m_pPtSite->RecieveTRData(nKey, szTRNo, "", "", (LPVOID)szData, nDataLen);

  000d3	ff 75 08	 push	 DWORD PTR _nDataLen$5[ebp]
  000d6	8b 43 20	 mov	 eax, DWORD PTR [ebx+32]
  000d9	56		 push	 esi
  000da	68 00 00 00 00	 push	 OFFSET ??_C@_00CNPNBAHC@@
  000df	68 00 00 00 00	 push	 OFFSET ??_C@_00CNPNBAHC@@
  000e4	ff 75 0c	 push	 DWORD PTR _szTRNo$6[ebp]
  000e7	8b 08		 mov	 ecx, DWORD PTR [eax]
  000e9	57		 push	 edi
  000ea	50		 push	 eax
  000eb	ff 51 04	 call	 DWORD PTR [ecx+4]

; 297  : 			if(nKey==TRKEY_STRDOLLAR) _DoPreReceiveData(QUERY_STRDOLLAR, pData, nLen);

  000ee	83 ff 36	 cmp	 edi, 54			; 00000036H
  000f1	75 12		 jne	 SHORT $LN9@ReceiveTRD
  000f3	ff 75 14	 push	 DWORD PTR _nLen$[ebp]
  000f6	8b cb		 mov	 ecx, ebx
  000f8	ff 75 10	 push	 DWORD PTR _pData$[ebp]
  000fb	68 00 00 00 00	 push	 OFFSET ??_C@_05IDAEEJNL@d1018@
  00100	e8 00 00 00 00	 call	 ?_DoPreReceiveData@CPartnerManager@@IAEXPBDPAEH@Z ; CPartnerManager::_DoPreReceiveData
$LN9@ReceiveTRD:

; 301  : 			if(g_pDRDebuger) g_pDRDebuger->DRLog_ResponseData(szTRNo, (LPBYTE)szData, nDataLen);

  00105	8b 35 00 00 00
	00		 mov	 esi, DWORD PTR ?g_pDRDebuger@@3PAVCDRDebugerLoader@@A ; g_pDRDebuger
  0010b	85 f6		 test	 esi, esi
  0010d	74 37		 je	 SHORT $LN60@ReceiveTRD
; File D:\git\src\IBK\IBK_DRFN\ProjSrc\SrcDrfn\inc\LoadDRDebuger.h

; 238  : 		def_DRDebuger_GetProc(m_fpResponseData		, FpDRLog_ResponseData		, "DRLog_ResponseData");

  0010f	8b 0e		 mov	 ecx, DWORD PTR [esi]
; File D:\git\src\IBK\IBK_DRFN\ProjSrc\SrcDrfn\DrCommon\PartnerMng\_PartnerManager.cpp

; 301  : 			if(g_pDRDebuger) g_pDRDebuger->DRLog_ResponseData(szTRNo, (LPBYTE)szData, nDataLen);

  00111	8b 45 08	 mov	 eax, DWORD PTR _nDataLen$5[ebp]
; File C:\Program Files (x86)\Microsoft Visual Studio\2019\Community\VC\Tools\MSVC\14.29.30133\atlmfc\include\atlsimpstr.h

; 377  : 		return( m_pszData );

  00114	8b 7d 0c	 mov	 edi, DWORD PTR _szTRNo$6[ebp]
; File D:\git\src\IBK\IBK_DRFN\ProjSrc\SrcDrfn\DrCommon\PartnerMng\_PartnerManager.cpp

; 301  : 			if(g_pDRDebuger) g_pDRDebuger->DRLog_ResponseData(szTRNo, (LPBYTE)szData, nDataLen);

  00117	89 45 10	 mov	 DWORD PTR _p_DataLen$1$[ebp], eax
; File D:\git\src\IBK\IBK_DRFN\ProjSrc\SrcDrfn\inc\LoadDRDebuger.h

; 238  : 		def_DRDebuger_GetProc(m_fpResponseData		, FpDRLog_ResponseData		, "DRLog_ResponseData");

  0011a	85 c9		 test	 ecx, ecx
  0011c	74 28		 je	 SHORT $LN60@ReceiveTRD
  0011e	8b 46 1c	 mov	 eax, DWORD PTR [esi+28]
  00121	85 c0		 test	 eax, eax
  00123	75 13		 jne	 SHORT $LN41@ReceiveTRD
  00125	68 00 00 00 00	 push	 OFFSET ??_C@_0BD@ENGDDGEF@DRLog_ResponseData@
  0012a	51		 push	 ecx
  0012b	ff 15 00 00 00
	00		 call	 DWORD PTR __imp__GetProcAddress@8
  00131	89 46 1c	 mov	 DWORD PTR [esi+28], eax
  00134	85 c0		 test	 eax, eax
  00136	74 0e		 je	 SHORT $LN60@ReceiveTRD
$LN41@ReceiveTRD:

; 239  : 		m_fpResponseData(p_szIOKey, p_Data, p_DataLen, szExtraData);

  00138	8b 75 18	 mov	 esi, DWORD PTR _szData$1$[ebp]
  0013b	6a 00		 push	 0
  0013d	ff 75 10	 push	 DWORD PTR _p_DataLen$1$[ebp]
  00140	56		 push	 esi
  00141	57		 push	 edi
  00142	ff d0		 call	 eax
  00144	eb 03		 jmp	 SHORT $LN57@ReceiveTRD
$LN60@ReceiveTRD:
; File D:\git\src\IBK\IBK_DRFN\ProjSrc\SrcDrfn\DrCommon\PartnerMng\_PartnerManager.cpp

; 302  : 			if (nDataLen > 0)

  00146	8b 75 18	 mov	 esi, DWORD PTR _szData$1$[ebp]
$LN57@ReceiveTRD:
  00149	83 7d 08 00	 cmp	 DWORD PTR _nDataLen$5[ebp], 0
  0014d	7e 09		 jle	 SHORT $LN11@ReceiveTRD

; 303  : 			{
; 304  : 				delete[] szData;

  0014f	56		 push	 esi
  00150	e8 00 00 00 00	 call	 ??_V@YAXPAX@Z		; operator delete[]
  00155	83 c4 04	 add	 esp, 4
$LN11@ReceiveTRD:

; 305  : 				szData = NULL;
; 306  : 			}
; 307  : 		}

  00158	8d 4d 0c	 lea	 ecx, DWORD PTR _szTRNo$6[ebp]
  0015b	ff 15 00 00 00
	00		 call	 DWORD PTR __imp_??1?$CStringT@DV?$StrTraitMFC_DLL@DV?$ChTraitsCRT@D@ATL@@@@@ATL@@QAE@XZ
  00161	eb 43		 jmp	 SHORT $LN55@ReceiveTRD
$LN3@ReceiveTRD:

; 308  : 		else if(nKey<= TRKEY_END)

  00163	83 ff 46	 cmp	 edi, 70			; 00000046H
  00166	7f 75		 jg	 SHORT $LN12@ReceiveTRD

; 309  : 		{
; 310  : 			if(nKey==24)// SYMBOLDATA : KHD 
; 311  : 			{
; 312  : 				szTR="SYMBOLDATA";
; 313  : 			}
; 314  : // 			{
; 315  : // 				CString szDebug;
; 316  : // 				szDebug.Format("[DRCS][LOAD](%8d) CPartnerManager::ReceiveTRData: Entry\n", __LINE__);
; 317  : // 				OutputDebugString(szDebug);
; 318  : // 			}
; 319  : 			m_pPtSite->RecieveTRData(nKey, szTR, "", "", pData, nLen);

  00168	8b 75 14	 mov	 esi, DWORD PTR _nLen$[ebp]
  0016b	83 ff 18	 cmp	 edi, 24			; 00000018H
  0016e	8b 4b 20	 mov	 ecx, DWORD PTR [ebx+32]
  00171	b8 00 00 00 00	 mov	 eax, OFFSET ??_C@_0L@LCJFIPAK@SYMBOLDATA@
  00176	0f 45 45 0c	 cmovne	 eax, DWORD PTR _szTR$[ebp]
  0017a	56		 push	 esi
  0017b	ff 75 10	 push	 DWORD PTR _pData$[ebp]
  0017e	8b 11		 mov	 edx, DWORD PTR [ecx]
  00180	68 00 00 00 00	 push	 OFFSET ??_C@_00CNPNBAHC@@
  00185	68 00 00 00 00	 push	 OFFSET ??_C@_00CNPNBAHC@@
  0018a	50		 push	 eax
  0018b	57		 push	 edi
  0018c	51		 push	 ecx
  0018d	ff 52 04	 call	 DWORD PTR [edx+4]

; 320  : 			if(nKey==TRKEY_MSTCODE)

  00190	83 ff 02	 cmp	 edi, 2
  00193	75 37		 jne	 SHORT $LN15@ReceiveTRD

; 321  : 				_DoPreReceiveData(TRNO_MSTCODE, pData, nLen);

  00195	8b 45 10	 mov	 eax, DWORD PTR _pData$[ebp]
  00198	56		 push	 esi
  00199	50		 push	 eax
  0019a	68 00 00 00 00	 push	 OFFSET ??_C@_08KFOOADEE@pijs0112@
$LN62@ReceiveTRD:

; 369  : 		}
; 370  : 
; 371  : 		m_CriticalSection.Unlock();

  0019f	8b cb		 mov	 ecx, ebx
  001a1	e8 00 00 00 00	 call	 ?_DoPreReceiveData@CPartnerManager@@IAEXPBDPAEH@Z ; CPartnerManager::_DoPreReceiveData
$LN55@ReceiveTRD:
  001a6	8b 83 20 11 00
	00		 mov	 eax, DWORD PTR [ebx+4384]
  001ac	8d 8b 20 11 00
	00		 lea	 ecx, DWORD PTR [ebx+4384]
  001b2	ff 50 1c	 call	 DWORD PTR [eax+28]

; 372  : 	}

  001b5	8d 4d f4	 lea	 ecx, DWORD PTR _strData$3[ebp]
  001b8	ff 15 00 00 00
	00		 call	 DWORD PTR __imp_??1?$CStringT@DV?$StrTraitMFC_DLL@DV?$ChTraitsCRT@D@ATL@@@@@ATL@@QAE@XZ
$LN2@ReceiveTRD:

; 373  : 
; 374  : 	return TRUE;

  001be	b8 01 00 00 00	 mov	 eax, 1

; 375  : }

  001c3	5f		 pop	 edi
  001c4	5e		 pop	 esi
  001c5	5b		 pop	 ebx
  001c6	8b e5		 mov	 esp, ebp
  001c8	5d		 pop	 ebp
  001c9	c2 14 00	 ret	 20			; 00000014H
$LN15@ReceiveTRD:

; 322  : 			else if(nKey==TRKEY_WORKDATE)

  001cc	83 ff 05	 cmp	 edi, 5
  001cf	75 d5		 jne	 SHORT $LN55@ReceiveTRD

; 323  : 				_DoPreReceiveData(TRNO_WORKDATE, pData, nLen);

  001d1	8b 45 10	 mov	 eax, DWORD PTR _pData$[ebp]
  001d4	56		 push	 esi
  001d5	50		 push	 eax
  001d6	68 00 00 00 00	 push	 OFFSET ??_C@_08IOMDFAIH@pijs0111@

; 324  : 
; 325  : 			//if(gDebugMng)
; 326  : 			//{
; 327  : 			//	gDebugMng->TraceCompData('O', szTR, nLen, pData);
; 328  : 			//	gDebugMng->TraceTran('O', szTR, nLen, pData);
; 329  : 			//}
; 330  : 			//g_DRDebuger.DRLog_ResponseData(szTR, (LPBYTE)pData, nLen);
; 331  : 		}

  001db	eb c2		 jmp	 SHORT $LN62@ReceiveTRD
$LN12@ReceiveTRD:

; 332  : 		else if(nKey>= TRKEY_REALSTART)

  001dd	83 ff 65	 cmp	 edi, 101		; 00000065H
  001e0	7d c4		 jge	 SHORT $LN55@ReceiveTRD

; 333  : 		{
; 334  : 			//winix RealKey 
; 335  : //			m_pPtSite->RecieveRealKey(nKey, szTR, "", "", pData, nLen);
; 336  : 			//OutputDebugString();
; 337  : 		}
; 338  : 		else if (nKey >= TRKEY_VIRT_START && nKey <= TRKEY_VIRT_END)

  001e2	83 ff 50	 cmp	 edi, 80			; 00000050H
  001e5	0f 8f f5 00 00
	00		 jg	 $LN20@ReceiveTRD

; 339  : 		{
; 340  : 			int nIndex = nKey - TRKEY_VIRT_START;

  001eb	8d 47 b9	 lea	 eax, DWORD PTR [edi-71]

; 341  : 			if (nIndex < m_arrSend.GetSize())

  001ee	3b 43 0c	 cmp	 eax, DWORD PTR [ebx+12]
  001f1	7d b3		 jge	 SHORT $LN55@ReceiveTRD

; 342  : 			{
; 343  : 				FID_SENDDATA item = m_arrSend.GetAt(nIndex);

  001f3	8d 4b 04	 lea	 ecx, DWORD PTR [ebx+4]
  001f6	50		 push	 eax
  001f7	e8 00 00 00 00	 call	 ?GetAt@?$CArray@UFID_SENDDATA@@AAU1@@@QAEAAUFID_SENDDATA@@H@Z ; CArray<FID_SENDDATA,FID_SENDDATA &>::GetAt
  001fc	8b f0		 mov	 esi, eax
  001fe	8d 4d e0	 lea	 ecx, DWORD PTR _item$1[ebp]
  00201	56		 push	 esi
  00202	ff 15 00 00 00
	00		 call	 DWORD PTR __imp_??0?$CStringT@DV?$StrTraitMFC_DLL@DV?$ChTraitsCRT@D@ATL@@@@@ATL@@QAE@ABV01@@Z
  00208	8b 4e 04	 mov	 ecx, DWORD PTR [esi+4]
  0020b	89 4d e4	 mov	 DWORD PTR _item$1[ebp+4], ecx
  0020e	8b 4e 08	 mov	 ecx, DWORD PTR [esi+8]
  00211	89 4d e8	 mov	 DWORD PTR _item$1[ebp+8], ecx
  00214	8b 46 0c	 mov	 eax, DWORD PTR [esi+12]
  00217	89 45 ec	 mov	 DWORD PTR _item$1[ebp+12], eax
  0021a	85 c0		 test	 eax, eax

; 344  : 				if (item.hWnd)

  0021c	0f 84 92 00 00
	00		 je	 $LN49@ReceiveTRD

; 345  : 				{
; 346  : 					FID_RECEIVEDATA *pstData = new FID_RECEIVEDATA;

  00222	6a 10		 push	 16			; 00000010H
  00224	e8 00 00 00 00	 call	 ??2@YAPAXI@Z		; operator new
  00229	8b f0		 mov	 esi, eax
  0022b	83 c4 04	 add	 esp, 4
  0022e	85 f6		 test	 esi, esi
  00230	74 0b		 je	 SHORT $LN26@ReceiveTRD
  00232	8d 4e 04	 lea	 ecx, DWORD PTR [esi+4]
  00235	ff 15 00 00 00
	00		 call	 DWORD PTR __imp_??0?$CStringT@DV?$StrTraitMFC_DLL@DV?$ChTraitsCRT@D@ATL@@@@@ATL@@QAE@XZ
  0023b	eb 02		 jmp	 SHORT $LN27@ReceiveTRD
$LN26@ReceiveTRD:
  0023d	33 f6		 xor	 esi, esi
$LN27@ReceiveTRD:

; 347  : 					pstData->pData = m_DataConverter.Convert2Struct(pData, nLen, item.szTrCode, nDataLen);

  0023f	8d 45 08	 lea	 eax, DWORD PTR _nDataLen$5[ebp]
  00242	50		 push	 eax
  00243	51		 push	 ecx
  00244	8d 45 e0	 lea	 eax, DWORD PTR _item$1[ebp]
  00247	8b cc		 mov	 ecx, esp
  00249	50		 push	 eax
  0024a	ff 15 00 00 00
	00		 call	 DWORD PTR __imp_??0?$CStringT@DV?$StrTraitMFC_DLL@DV?$ChTraitsCRT@D@ATL@@@@@ATL@@QAE@ABV01@@Z
  00250	ff 75 14	 push	 DWORD PTR _nLen$[ebp]
  00253	8d 4b 24	 lea	 ecx, DWORD PTR [ebx+36]
  00256	ff 75 10	 push	 DWORD PTR _pData$[ebp]
  00259	e8 00 00 00 00	 call	 ?Convert2Struct@CDataConverter@@QAEPADPAEHV?$CStringT@DV?$StrTraitMFC_DLL@DV?$ChTraitsCRT@D@ATL@@@@@ATL@@AAH@Z ; CDataConverter::Convert2Struct

; 348  : 					pstData->nKey = nKey;
; 349  : 					pstData->nLen = nDataLen;
; 350  : 					pstData->szTrCode = item.szTrCode;

  0025e	8d 4d e0	 lea	 ecx, DWORD PTR _item$1[ebp]
  00261	89 46 08	 mov	 DWORD PTR [esi+8], eax
  00264	89 3e		 mov	 DWORD PTR [esi], edi
  00266	8b 45 08	 mov	 eax, DWORD PTR _nDataLen$5[ebp]
  00269	51		 push	 ecx
  0026a	8d 4e 04	 lea	 ecx, DWORD PTR [esi+4]
  0026d	89 46 0c	 mov	 DWORD PTR [esi+12], eax
  00270	ff 15 00 00 00
	00		 call	 DWORD PTR __imp_??4?$CStringT@DV?$StrTraitMFC_DLL@DV?$ChTraitsCRT@D@ATL@@@@@ATL@@QAEAAV01@ABV01@@Z

; 351  : 					::SendMessage(item.hWnd, RMSG_RECEIVE_DIRECT, (WPARAM)pstData, 0);

  00276	6a 00		 push	 0
  00278	56		 push	 esi
  00279	ff 35 00 00 00
	00		 push	 DWORD PTR ?RMSG_RECEIVE_DIRECT@@3IB
  0027f	ff 75 ec	 push	 DWORD PTR _item$1[ebp+12]
  00282	ff 15 00 00 00
	00		 call	 DWORD PTR __imp__SendMessageA@16

; 352  : 					if (nDataLen > 0)

  00288	83 7d 08 00	 cmp	 DWORD PTR _nDataLen$5[ebp], 0
  0028c	7e 12		 jle	 SHORT $LN24@ReceiveTRD

; 353  : 					{
; 354  : 						delete[] pstData->pData;

  0028e	ff 76 08	 push	 DWORD PTR [esi+8]
  00291	e8 00 00 00 00	 call	 ??_V@YAXPAX@Z		; operator delete[]
  00296	83 c4 04	 add	 esp, 4

; 355  : 						pstData->pData = NULL;

  00299	c7 46 08 00 00
	00 00		 mov	 DWORD PTR [esi+8], 0
$LN24@ReceiveTRD:
  002a0	8d 4e 04	 lea	 ecx, DWORD PTR [esi+4]
  002a3	ff 15 00 00 00
	00		 call	 DWORD PTR __imp_??1?$CStringT@DV?$StrTraitMFC_DLL@DV?$ChTraitsCRT@D@ATL@@@@@ATL@@QAE@XZ
  002a9	6a 10		 push	 16			; 00000010H
  002ab	56		 push	 esi
  002ac	e8 00 00 00 00	 call	 ??3@YAXPAXI@Z		; operator delete
  002b1	83 c4 08	 add	 esp, 8
$LN49@ReceiveTRD:

; 356  : 					}
; 357  : 					delete pstData;
; 358  : 					pstData = NULL;
; 359  : 				}
; 360  : 				item.hWnd = NULL;
; 361  : 				item.pData = NULL;
; 362  : 				m_arrSend.SetAt(nIndex, item);

  002b4	8d 45 e0	 lea	 eax, DWORD PTR _item$1[ebp]
  002b7	c7 45 ec 00 00
	00 00		 mov	 DWORD PTR _item$1[ebp+12], 0
  002be	50		 push	 eax
  002bf	8d 47 b9	 lea	 eax, DWORD PTR [edi-71]
  002c2	c7 45 e4 00 00
	00 00		 mov	 DWORD PTR _item$1[ebp+4], 0
  002c9	50		 push	 eax
  002ca	8d 4b 04	 lea	 ecx, DWORD PTR [ebx+4]
  002cd	e8 00 00 00 00	 call	 ?SetAt@?$CArray@UFID_SENDDATA@@AAU1@@@QAEXHAAUFID_SENDDATA@@@Z ; CArray<FID_SENDDATA,FID_SENDDATA &>::SetAt
  002d2	8d 4d e0	 lea	 ecx, DWORD PTR _item$1[ebp]
  002d5	ff 15 00 00 00
	00		 call	 DWORD PTR __imp_??1?$CStringT@DV?$StrTraitMFC_DLL@DV?$ChTraitsCRT@D@ATL@@@@@ATL@@QAE@XZ
  002db	e9 c6 fe ff ff	 jmp	 $LN55@ReceiveTRD
$LN20@ReceiveTRD:

; 363  : 			}
; 364  : 		}
; 365  : 		else
; 366  : 		{	
; 367  : 			m_CriticalSection.Unlock();

  002e0	8b 83 20 11 00
	00		 mov	 eax, DWORD PTR [ebx+4384]
  002e6	8d 8b 20 11 00
	00		 lea	 ecx, DWORD PTR [ebx+4384]
  002ec	ff 50 1c	 call	 DWORD PTR [eax+28]

; 368  : 			return FALSE;

  002ef	8d 4d f4	 lea	 ecx, DWORD PTR _strData$3[ebp]
  002f2	ff 15 00 00 00
	00		 call	 DWORD PTR __imp_??1?$CStringT@DV?$StrTraitMFC_DLL@DV?$ChTraitsCRT@D@ATL@@@@@ATL@@QAE@XZ

; 375  : }

  002f8	5f		 pop	 edi
  002f9	5e		 pop	 esi
  002fa	33 c0		 xor	 eax, eax
  002fc	5b		 pop	 ebx
  002fd	8b e5		 mov	 esp, ebp
  002ff	5d		 pop	 ebp
  00300	c2 14 00	 ret	 20			; 00000014H
?ReceiveTRData@CPartnerManager@@UAGHPBDPAEHH@Z ENDP	; CPartnerManager::ReceiveTRData
_TEXT	ENDS
; Function compile flags: /Ogtp
; File D:\git\src\IBK\IBK_DRFN\ProjSrc\SrcDrfn\DrCommon\PartnerMng\_PartnerManager.cpp
;	COMDAT ?SendFidDataEx@CPartnerManager@@UAGHJPAEHAAHH@Z
_TEXT	SEGMENT
_this$ = 8						; size = 4
_dwExInfo$ = 12						; size = 4
_pData$ = 16						; size = 4
_nLen$ = 20						; size = 4
_nKey$ = 24						; size = 4
_bAdd$ = 28						; size = 4
?SendFidDataEx@CPartnerManager@@UAGHJPAEHAAHH@Z PROC	; CPartnerManager::SendFidDataEx, COMDAT

; 209  : 	return FALSE;

  00000	33 c0		 xor	 eax, eax

; 210  : }

  00002	c2 18 00	 ret	 24			; 00000018H
?SendFidDataEx@CPartnerManager@@UAGHJPAEHAAHH@Z ENDP	; CPartnerManager::SendFidDataEx
_TEXT	ENDS
; Function compile flags: /Ogtp
; File D:\git\src\IBK\IBK_DRFN\ProjSrc\SrcDrfn\DrCommon\PartnerMng\_PartnerManager.cpp
;	COMDAT ?SendTrDataEx@CPartnerManager@@UAGHJPAEHAAHH@Z
_TEXT	SEGMENT
_this$ = 8						; size = 4
_dwExInfo$ = 12						; size = 4
_pData$ = 16						; size = 4
_nLen$ = 20						; size = 4
_nKey$ = 24						; size = 4
_bAdd$ = 28						; size = 4
?SendTrDataEx@CPartnerManager@@UAGHJPAEHAAHH@Z PROC	; CPartnerManager::SendTrDataEx, COMDAT

; 204  : 	return FALSE;

  00000	33 c0		 xor	 eax, eax

; 205  : }

  00002	c2 18 00	 ret	 24			; 00000018H
?SendTrDataEx@CPartnerManager@@UAGHJPAEHAAHH@Z ENDP	; CPartnerManager::SendTrDataEx
_TEXT	ENDS
; Function compile flags: /Ogtp
; File D:\git\src\IBK\IBK_DRFN\ProjSrc\SrcDrfn\DrCommon\PartnerMng\_PartnerManager.cpp
; File C:\Program Files (x86)\Microsoft Visual Studio\2019\Community\VC\Tools\MSVC\14.29.30133\atlmfc\include\afxmt.inl
; File D:\git\src\IBK\IBK_DRFN\ProjSrc\SrcDrfn\DrCommon\PartnerMng\_PartnerManager.cpp
; File C:\Program Files (x86)\Microsoft Visual Studio\2019\Community\VC\Tools\MSVC\14.29.30133\atlmfc\include\cstringt.h
; File D:\git\src\IBK\IBK_DRFN\ProjSrc\SrcDrfn\DrCommon\PartnerMng\_PartnerManager.cpp
; File D:\git\src\IBK\IBK_DRFN\ProjSrc\SrcDrfn\DrCommon\PartnerMng\DataConverter.h
; File D:\git\src\IBK\IBK_DRFN\ProjSrc\SrcDrfn\DrCommon\PartnerMng\_PartnerManager.cpp
; File C:\Program Files (x86)\Microsoft Visual Studio\2019\Community\VC\Tools\MSVC\14.29.30133\atlmfc\include\cstringt.h
; File D:\git\src\IBK\IBK_DRFN\ProjSrc\SrcDrfn\DrCommon\PartnerMng\_PartnerManager.cpp
; File C:\Program Files (x86)\Microsoft Visual Studio\2019\Community\VC\Tools\MSVC\14.29.30133\atlmfc\include\cstringt.h
; File D:\git\src\IBK\IBK_DRFN\ProjSrc\SrcDrfn\DrCommon\PartnerMng\_PartnerManager.cpp
; File C:\Program Files (x86)\Microsoft Visual Studio\2019\Community\VC\Tools\MSVC\14.29.30133\atlmfc\include\cstringt.h
; File D:\git\src\IBK\IBK_DRFN\ProjSrc\SrcDrfn\DrCommon\PartnerMng\_PartnerManager.cpp
; File C:\Program Files (x86)\Microsoft Visual Studio\2019\Community\VC\Tools\MSVC\14.29.30133\atlmfc\include\cstringt.h
; File D:\git\src\IBK\IBK_DRFN\ProjSrc\SrcDrfn\DrCommon\PartnerMng\_PartnerManager.cpp
; File C:\Program Files (x86)\Microsoft Visual Studio\2019\Community\VC\Tools\MSVC\14.29.30133\atlmfc\include\cstringt.h
; File D:\git\src\IBK\IBK_DRFN\ProjSrc\SrcDrfn\DrCommon\PartnerMng\_PartnerManager.cpp
; File C:\Program Files (x86)\Microsoft Visual Studio\2019\Community\VC\Tools\MSVC\14.29.30133\atlmfc\include\cstringt.h
; File D:\git\src\IBK\IBK_DRFN\ProjSrc\SrcDrfn\DrCommon\PartnerMng\_PartnerManager.cpp
; File C:\Program Files (x86)\Microsoft Visual Studio\2019\Community\VC\Tools\MSVC\14.29.30133\atlmfc\include\cstringt.h
; File D:\git\src\IBK\IBK_DRFN\ProjSrc\SrcDrfn\DrCommon\PartnerMng\_PartnerManager.cpp
; File C:\Program Files (x86)\Microsoft Visual Studio\2019\Community\VC\Tools\MSVC\14.29.30133\atlmfc\include\cstringt.h
; File D:\git\src\IBK\IBK_DRFN\ProjSrc\SrcDrfn\DrCommon\PartnerMng\_PartnerManager.cpp
; File C:\Program Files (x86)\Microsoft Visual Studio\2019\Community\VC\Tools\MSVC\14.29.30133\atlmfc\include\cstringt.h
; File D:\git\src\IBK\IBK_DRFN\ProjSrc\SrcDrfn\DrCommon\PartnerMng\_PartnerManager.cpp
; File C:\Program Files (x86)\Microsoft Visual Studio\2019\Community\VC\Tools\MSVC\14.29.30133\atlmfc\include\cstringt.h
; File D:\git\src\IBK\IBK_DRFN\ProjSrc\SrcDrfn\DrCommon\PartnerMng\_PartnerManager.cpp
; File C:\Program Files (x86)\Microsoft Visual Studio\2019\Community\VC\Tools\MSVC\14.29.30133\atlmfc\include\cstringt.h
; File D:\git\src\IBK\IBK_DRFN\ProjSrc\SrcDrfn\DrCommon\PartnerMng\_PartnerManager.cpp
; File C:\Program Files (x86)\Microsoft Visual Studio\2019\Community\VC\Tools\MSVC\14.29.30133\atlmfc\include\cstringt.h
; File D:\git\src\IBK\IBK_DRFN\ProjSrc\SrcDrfn\DrCommon\PartnerMng\_PartnerManager.cpp
; File C:\Program Files (x86)\Microsoft Visual Studio\2019\Community\VC\Tools\MSVC\14.29.30133\atlmfc\include\cstringt.h
; File D:\git\src\IBK\IBK_DRFN\ProjSrc\SrcDrfn\DrCommon\PartnerMng\_PartnerManager.cpp
; File C:\Program Files (x86)\Microsoft Visual Studio\2019\Community\VC\Tools\MSVC\14.29.30133\atlmfc\include\cstringt.h
; File D:\git\src\IBK\IBK_DRFN\ProjSrc\SrcDrfn\DrCommon\PartnerMng\_PartnerManager.cpp
;	COMDAT ?SendFidData@CPartnerManager@@UAGHPBDPAEHAAHH@Z
_TEXT	SEGMENT
_strSendData$ = -8					; size = 4
_strPoop$ = -4						; size = 4
$T1 = 8							; size = 4
_this$ = 8						; size = 4
_strTR$ = 12						; size = 4
_szFid$ = 12						; size = 4
_pData$ = 16						; size = 4
_nLen$ = 20						; size = 4
_nKey$ = 24						; size = 4
_bAdd$ = 28						; size = 4
?SendFidData@CPartnerManager@@UAGHPBDPAEHAAHH@Z PROC	; CPartnerManager::SendFidData, COMDAT

; 117  : {

  00000	55		 push	 ebp
  00001	8b ec		 mov	 ebp, esp
  00003	83 ec 08	 sub	 esp, 8

; 118  : // 	CString szDebug;
; 119  : // 	szDebug.Format("[DRCS]CPartnerManager::SendFidData %s(%d)", szFid, nLen);
; 120  : // 	OutputDebugString(szDebug);
; 121  : 
; 122  : 
; 123  : 	CString strTR = szFid;

  00006	8d 4d 0c	 lea	 ecx, DWORD PTR _strTR$[ebp]
  00009	53		 push	 ebx
  0000a	56		 push	 esi
  0000b	57		 push	 edi
  0000c	ff 75 0c	 push	 DWORD PTR _szFid$[ebp]
  0000f	ff 15 00 00 00
	00		 call	 DWORD PTR __imp_??0?$CStringT@DV?$StrTraitMFC_DLL@DV?$ChTraitsCRT@D@ATL@@@@@ATL@@QAE@PBD@Z

; 124  : 	int nRet = FALSE;
; 125  : 	CString strSendData;

  00015	8d 4d f8	 lea	 ecx, DWORD PTR _strSendData$[ebp]
  00018	33 db		 xor	 ebx, ebx
  0001a	ff 15 00 00 00
	00		 call	 DWORD PTR __imp_??0?$CStringT@DV?$StrTraitMFC_DLL@DV?$ChTraitsCRT@D@ATL@@@@@ATL@@QAE@XZ
; File C:\Program Files (x86)\Microsoft Visual Studio\2019\Community\VC\Tools\MSVC\14.29.30133\atlmfc\include\afxmt.inl

; 111  : 	::EnterCriticalSection(&m_sect); 

  00020	8b 75 08	 mov	 esi, DWORD PTR _this$[ebp]
  00023	8d 86 28 11 00
	00		 lea	 eax, DWORD PTR [esi+4392]
  00029	50		 push	 eax
  0002a	ff 15 00 00 00
	00		 call	 DWORD PTR __imp__EnterCriticalSection@4
; File D:\git\src\IBK\IBK_DRFN\ProjSrc\SrcDrfn\DrCommon\PartnerMng\_PartnerManager.cpp

; 128  : 	strSendData = m_DataConverter.ConvertToFid(strTR, pData, nLen);

  00030	ff 75 14	 push	 DWORD PTR _nLen$[ebp]
  00033	8d 45 0c	 lea	 eax, DWORD PTR _strTR$[ebp]
  00036	ff 75 10	 push	 DWORD PTR _pData$[ebp]
  00039	51		 push	 ecx
  0003a	8b cc		 mov	 ecx, esp
  0003c	50		 push	 eax
  0003d	ff 15 00 00 00
	00		 call	 DWORD PTR __imp_??0?$CStringT@DV?$StrTraitMFC_DLL@DV?$ChTraitsCRT@D@ATL@@@@@ATL@@QAE@ABV01@@Z
  00043	8d 45 08	 lea	 eax, DWORD PTR $T1[ebp]
  00046	50		 push	 eax
  00047	8d 4e 24	 lea	 ecx, DWORD PTR [esi+36]
  0004a	e8 00 00 00 00	 call	 ?ConvertToFid@CDataConverter@@QAE?AV?$CStringT@DV?$StrTraitMFC_DLL@DV?$ChTraitsCRT@D@ATL@@@@@ATL@@V23@PAXH@Z ; CDataConverter::ConvertToFid
  0004f	50		 push	 eax
  00050	8d 4d f8	 lea	 ecx, DWORD PTR _strSendData$[ebp]
  00053	ff 15 00 00 00
	00		 call	 DWORD PTR __imp_??4?$CStringT@DV?$StrTraitMFC_DLL@DV?$ChTraitsCRT@D@ATL@@@@@ATL@@QAEAAV01@ABV01@@Z
  00059	8d 4d 08	 lea	 ecx, DWORD PTR $T1[ebp]
  0005c	ff 15 00 00 00
	00		 call	 DWORD PTR __imp_??1?$CStringT@DV?$StrTraitMFC_DLL@DV?$ChTraitsCRT@D@ATL@@@@@ATL@@QAE@XZ
; File C:\Program Files (x86)\Microsoft Visual Studio\2019\Community\VC\Tools\MSVC\14.29.30133\atlmfc\include\cstringt.h

; 2486 : 		return(str1.Compare(psz2) == 0);

  00062	68 00 00 00 00	 push	 OFFSET ??_C@_05DGKKDHJG@d1015@
  00067	8d 4d 0c	 lea	 ecx, DWORD PTR _strTR$[ebp]
  0006a	ff 15 00 00 00
	00		 call	 DWORD PTR __imp_?Compare@?$CStringT@DV?$StrTraitMFC_DLL@DV?$ChTraitsCRT@D@ATL@@@@@ATL@@QBEHPBD@Z
  00070	85 c0		 test	 eax, eax
; File D:\git\src\IBK\IBK_DRFN\ProjSrc\SrcDrfn\DrCommon\PartnerMng\_PartnerManager.cpp

; 131  : 	if (strTR == QUERY_STRMARKET)

  00072	75 0d		 jne	 SHORT $LN2@SendFidDat
; File D:\git\src\IBK\IBK_DRFN\ProjSrc\SrcDrfn\DrCommon\PartnerMng\DataConverter.h

; 73   : 	int		GetMarketTRKey()	{ return m_Market.GetSendDataType();	};

  00074	8d 8e c8 05 00
	00		 lea	 ecx, DWORD PTR [esi+1480]
  0007a	e8 00 00 00 00	 call	 ?GetSendDataType@CChartItemMarket@@QAEHXZ ; CChartItemMarket::GetSendDataType
; File D:\git\src\IBK\IBK_DRFN\ProjSrc\SrcDrfn\DrCommon\PartnerMng\_PartnerManager.cpp

; 132  : 		nKey = m_DataConverter.GetMarketTRKey();

  0007f	eb 16		 jmp	 SHORT $LN3@SendFidDat
$LN2@SendFidDat:

; 133  : 	else
; 134  : 		nKey = GetTrKey(strTR);

  00081	6a 00		 push	 0
  00083	51		 push	 ecx
  00084	8d 45 0c	 lea	 eax, DWORD PTR _strTR$[ebp]
  00087	8b cc		 mov	 ecx, esp
  00089	50		 push	 eax
  0008a	ff 15 00 00 00
	00		 call	 DWORD PTR __imp_??0?$CStringT@DV?$StrTraitMFC_DLL@DV?$ChTraitsCRT@D@ATL@@@@@ATL@@QAE@ABV01@@Z
  00090	8b ce		 mov	 ecx, esi
  00092	e8 00 00 00 00	 call	 ?GetTrKey@CPartnerManager@@QAEHV?$CStringT@DV?$StrTraitMFC_DLL@DV?$ChTraitsCRT@D@ATL@@@@@ATL@@PAUFID_SENDDATA@@@Z ; CPartnerManager::GetTrKey
$LN3@SendFidDat:

; 135  : 
; 136  : 	CString strPoop = _T("GOOPHOOP");

  00097	8b 7d 18	 mov	 edi, DWORD PTR _nKey$[ebp]
  0009a	8d 4d fc	 lea	 ecx, DWORD PTR _strPoop$[ebp]
  0009d	68 00 00 00 00	 push	 OFFSET ??_C@_08IHPMJEPD@GOOPHOOP@
  000a2	89 07		 mov	 DWORD PTR [edi], eax
  000a4	ff 15 00 00 00
	00		 call	 DWORD PTR __imp_??0?$CStringT@DV?$StrTraitMFC_DLL@DV?$ChTraitsCRT@D@ATL@@@@@ATL@@QAE@PBD@Z
; File C:\Program Files (x86)\Microsoft Visual Studio\2019\Community\VC\Tools\MSVC\14.29.30133\atlmfc\include\cstringt.h

; 2486 : 		return(str1.Compare(psz2) == 0);

  000aa	68 00 00 00 00	 push	 OFFSET ??_C@_07NGBOKMDD@o44003$@
  000af	8d 4d 0c	 lea	 ecx, DWORD PTR _strTR$[ebp]
  000b2	ff 15 00 00 00
	00		 call	 DWORD PTR __imp_?Compare@?$CStringT@DV?$StrTraitMFC_DLL@DV?$ChTraitsCRT@D@ATL@@@@@ATL@@QBEHPBD@Z
  000b8	85 c0		 test	 eax, eax
; File D:\git\src\IBK\IBK_DRFN\ProjSrc\SrcDrfn\DrCommon\PartnerMng\_PartnerManager.cpp

; 141  : 			|| (strTR == QUERY_STRFX))

  000ba	0f 84 39 01 00
	00		 je	 $LN6@SendFidDat
; File C:\Program Files (x86)\Microsoft Visual Studio\2019\Community\VC\Tools\MSVC\14.29.30133\atlmfc\include\cstringt.h

; 2486 : 		return(str1.Compare(psz2) == 0);

  000c0	68 00 00 00 00	 push	 OFFSET ??_C@_07GMOEHFAP@o44010$@
  000c5	8d 4d 0c	 lea	 ecx, DWORD PTR _strTR$[ebp]
  000c8	ff 15 00 00 00
	00		 call	 DWORD PTR __imp_?Compare@?$CStringT@DV?$StrTraitMFC_DLL@DV?$ChTraitsCRT@D@ATL@@@@@ATL@@QBEHPBD@Z
  000ce	85 c0		 test	 eax, eax
; File D:\git\src\IBK\IBK_DRFN\ProjSrc\SrcDrfn\DrCommon\PartnerMng\_PartnerManager.cpp

; 141  : 			|| (strTR == QUERY_STRFX))

  000d0	0f 84 23 01 00
	00		 je	 $LN6@SendFidDat
; File C:\Program Files (x86)\Microsoft Visual Studio\2019\Community\VC\Tools\MSVC\14.29.30133\atlmfc\include\cstringt.h

; 2486 : 		return(str1.Compare(psz2) == 0);

  000d6	68 00 00 00 00	 push	 OFFSET ??_C@_08OMHJJDIK@pfbopoop@
  000db	8d 4d 0c	 lea	 ecx, DWORD PTR _strTR$[ebp]
  000de	ff 15 00 00 00
	00		 call	 DWORD PTR __imp_?Compare@?$CStringT@DV?$StrTraitMFC_DLL@DV?$ChTraitsCRT@D@ATL@@@@@ATL@@QBEHPBD@Z
  000e4	85 c0		 test	 eax, eax
; File D:\git\src\IBK\IBK_DRFN\ProjSrc\SrcDrfn\DrCommon\PartnerMng\_PartnerManager.cpp

; 141  : 			|| (strTR == QUERY_STRFX))

  000e6	0f 84 0d 01 00
	00		 je	 $LN6@SendFidDat
; File C:\Program Files (x86)\Microsoft Visual Studio\2019\Community\VC\Tools\MSVC\14.29.30133\atlmfc\include\cstringt.h

; 2486 : 		return(str1.Compare(psz2) == 0);

  000ec	68 00 00 00 00	 push	 OFFSET ??_C@_0M@OGLNBELP@pfboaoop840@
  000f1	8d 4d 0c	 lea	 ecx, DWORD PTR _strTR$[ebp]
  000f4	ff 15 00 00 00
	00		 call	 DWORD PTR __imp_?Compare@?$CStringT@DV?$StrTraitMFC_DLL@DV?$ChTraitsCRT@D@ATL@@@@@ATL@@QBEHPBD@Z
  000fa	85 c0		 test	 eax, eax
; File D:\git\src\IBK\IBK_DRFN\ProjSrc\SrcDrfn\DrCommon\PartnerMng\_PartnerManager.cpp

; 144  : 			|| (strTR == QUERY_STRFOFOREIGN_CHE2) || (strTR == QUERY_STRFOFOREIGN_JAN)		)

  000fc	0f 84 f0 00 00
	00		 je	 $LN9@SendFidDat
; File C:\Program Files (x86)\Microsoft Visual Studio\2019\Community\VC\Tools\MSVC\14.29.30133\atlmfc\include\cstringt.h

; 2486 : 		return(str1.Compare(psz2) == 0);

  00102	68 00 00 00 00	 push	 OFFSET ??_C@_0N@LGEIEHHI@pfboaoop8402@
  00107	8d 4d 0c	 lea	 ecx, DWORD PTR _strTR$[ebp]
  0010a	ff 15 00 00 00
	00		 call	 DWORD PTR __imp_?Compare@?$CStringT@DV?$StrTraitMFC_DLL@DV?$ChTraitsCRT@D@ATL@@@@@ATL@@QBEHPBD@Z
  00110	85 c0		 test	 eax, eax
; File D:\git\src\IBK\IBK_DRFN\ProjSrc\SrcDrfn\DrCommon\PartnerMng\_PartnerManager.cpp

; 144  : 			|| (strTR == QUERY_STRFOFOREIGN_CHE2) || (strTR == QUERY_STRFOFOREIGN_JAN)		)

  00112	0f 84 da 00 00
	00		 je	 $LN9@SendFidDat
; File C:\Program Files (x86)\Microsoft Visual Studio\2019\Community\VC\Tools\MSVC\14.29.30133\atlmfc\include\cstringt.h

; 2486 : 		return(str1.Compare(psz2) == 0);

  00118	68 00 00 00 00	 push	 OFFSET ??_C@_0M@PPKGCFPO@pfboaoop841@
  0011d	8d 4d 0c	 lea	 ecx, DWORD PTR _strTR$[ebp]
  00120	ff 15 00 00 00
	00		 call	 DWORD PTR __imp_?Compare@?$CStringT@DV?$StrTraitMFC_DLL@DV?$ChTraitsCRT@D@ATL@@@@@ATL@@QBEHPBD@Z
  00126	85 c0		 test	 eax, eax
; File D:\git\src\IBK\IBK_DRFN\ProjSrc\SrcDrfn\DrCommon\PartnerMng\_PartnerManager.cpp

; 144  : 			|| (strTR == QUERY_STRFOFOREIGN_CHE2) || (strTR == QUERY_STRFOFOREIGN_JAN)		)

  00128	0f 84 c4 00 00
	00		 je	 $LN9@SendFidDat
; File C:\Program Files (x86)\Microsoft Visual Studio\2019\Community\VC\Tools\MSVC\14.29.30133\atlmfc\include\cstringt.h

; 2486 : 		return(str1.Compare(psz2) == 0);

  0012e	68 00 00 00 00	 push	 OFFSET ??_C@_0M@FDODDDIP@pfbopoop830@
  00133	8d 4d 0c	 lea	 ecx, DWORD PTR _strTR$[ebp]
  00136	ff 15 00 00 00
	00		 call	 DWORD PTR __imp_?Compare@?$CStringT@DV?$StrTraitMFC_DLL@DV?$ChTraitsCRT@D@ATL@@@@@ATL@@QBEHPBD@Z
  0013c	85 c0		 test	 eax, eax
; File D:\git\src\IBK\IBK_DRFN\ProjSrc\SrcDrfn\DrCommon\PartnerMng\_PartnerManager.cpp

; 144  : 			|| (strTR == QUERY_STRFOFOREIGN_CHE2) || (strTR == QUERY_STRFOFOREIGN_JAN)		)

  0013e	0f 84 ae 00 00
	00		 je	 $LN9@SendFidDat
; File C:\Program Files (x86)\Microsoft Visual Studio\2019\Community\VC\Tools\MSVC\14.29.30133\atlmfc\include\cstringt.h

; 2486 : 		return(str1.Compare(psz2) == 0);

  00144	68 00 00 00 00	 push	 OFFSET ??_C@_0M@EKPIACMO@pfbopoop831@
  00149	8d 4d 0c	 lea	 ecx, DWORD PTR _strTR$[ebp]
  0014c	ff 15 00 00 00
	00		 call	 DWORD PTR __imp_?Compare@?$CStringT@DV?$StrTraitMFC_DLL@DV?$ChTraitsCRT@D@ATL@@@@@ATL@@QBEHPBD@Z
  00152	85 c0		 test	 eax, eax
; File D:\git\src\IBK\IBK_DRFN\ProjSrc\SrcDrfn\DrCommon\PartnerMng\_PartnerManager.cpp

; 144  : 			|| (strTR == QUERY_STRFOFOREIGN_CHE2) || (strTR == QUERY_STRFOFOREIGN_JAN)		)

  00154	0f 84 98 00 00
	00		 je	 $LN9@SendFidDat
; File C:\Program Files (x86)\Microsoft Visual Studio\2019\Community\VC\Tools\MSVC\14.29.30133\atlmfc\include\cstringt.h

; 2486 : 		return(str1.Compare(psz2) == 0);

  0015a	68 00 00 00 00	 push	 OFFSET ??_C@_05HGNCIFF@d0354@
  0015f	8d 4d 0c	 lea	 ecx, DWORD PTR _strTR$[ebp]
  00162	ff 15 00 00 00
	00		 call	 DWORD PTR __imp_?Compare@?$CStringT@DV?$StrTraitMFC_DLL@DV?$ChTraitsCRT@D@ATL@@@@@ATL@@QBEHPBD@Z
  00168	85 c0		 test	 eax, eax
; File D:\git\src\IBK\IBK_DRFN\ProjSrc\SrcDrfn\DrCommon\PartnerMng\_PartnerManager.cpp

; 146  : 	else if(strTR == QUERY_STRPLUS_STOCK)//KHD:     

  0016a	75 0a		 jne	 SHORT $LN10@SendFidDat

; 147  : 	{
; 148  : 		strPoop = _T("poop0090");

  0016c	68 00 00 00 00	 push	 OFFSET ??_C@_08DDLEADJF@poop0090@

; 149  : 	}

  00171	e9 88 00 00 00	 jmp	 $LN67@SendFidDat
$LN10@SendFidDat:
; File C:\Program Files (x86)\Microsoft Visual Studio\2019\Community\VC\Tools\MSVC\14.29.30133\atlmfc\include\cstringt.h

; 2486 : 		return(str1.Compare(psz2) == 0);

  00176	68 00 00 00 00	 push	 OFFSET ??_C@_05DGKKDHJG@d1015@
  0017b	8d 4d 0c	 lea	 ecx, DWORD PTR _strTR$[ebp]
  0017e	ff 15 00 00 00
	00		 call	 DWORD PTR __imp_?Compare@?$CStringT@DV?$StrTraitMFC_DLL@DV?$ChTraitsCRT@D@ATL@@@@@ATL@@QBEHPBD@Z
  00184	85 c0		 test	 eax, eax
; File D:\git\src\IBK\IBK_DRFN\ProjSrc\SrcDrfn\DrCommon\PartnerMng\_PartnerManager.cpp

; 150  : 	else if(strTR == QUERY_STRMARKET)//KHD:   

  00186	75 07		 jne	 SHORT $LN12@SendFidDat

; 151  : 	{
; 152  : 		strPoop = _T("GOOPHOOP");//_T("POOP0200");

  00188	68 00 00 00 00	 push	 OFFSET ??_C@_08IHPMJEPD@GOOPHOOP@

; 153  : 	}

  0018d	eb 6f		 jmp	 SHORT $LN67@SendFidDat
$LN12@SendFidDat:
; File C:\Program Files (x86)\Microsoft Visual Studio\2019\Community\VC\Tools\MSVC\14.29.30133\atlmfc\include\cstringt.h

; 2486 : 		return(str1.Compare(psz2) == 0);

  0018f	68 00 00 00 00	 push	 OFFSET ??_C@_05DHBNPEIO@d0366@
  00194	8d 4d 0c	 lea	 ecx, DWORD PTR _strTR$[ebp]
  00197	ff 15 00 00 00
	00		 call	 DWORD PTR __imp_?Compare@?$CStringT@DV?$StrTraitMFC_DLL@DV?$ChTraitsCRT@D@ATL@@@@@ATL@@QBEHPBD@Z
  0019d	85 c0		 test	 eax, eax
; File D:\git\src\IBK\IBK_DRFN\ProjSrc\SrcDrfn\DrCommon\PartnerMng\_PartnerManager.cpp

; 154  : 	else if(strTR == QUERY_STRPLUS_KOSPI ||strTR == QUERY_STRPLUS_KOSDAK ||strTR == QUERY_STRPLUS_FO  )//KHD: Investor   :  In/Out .

  0019f	74 3d		 je	 SHORT $LN16@SendFidDat
; File C:\Program Files (x86)\Microsoft Visual Studio\2019\Community\VC\Tools\MSVC\14.29.30133\atlmfc\include\cstringt.h

; 2486 : 		return(str1.Compare(psz2) == 0);

  001a1	68 00 00 00 00	 push	 OFFSET ??_C@_05COAGMFMP@d0367@
  001a6	8d 4d 0c	 lea	 ecx, DWORD PTR _strTR$[ebp]
  001a9	ff 15 00 00 00
	00		 call	 DWORD PTR __imp_?Compare@?$CStringT@DV?$StrTraitMFC_DLL@DV?$ChTraitsCRT@D@ATL@@@@@ATL@@QBEHPBD@Z
  001af	85 c0		 test	 eax, eax
; File D:\git\src\IBK\IBK_DRFN\ProjSrc\SrcDrfn\DrCommon\PartnerMng\_PartnerManager.cpp

; 154  : 	else if(strTR == QUERY_STRPLUS_KOSPI ||strTR == QUERY_STRPLUS_KOSDAK ||strTR == QUERY_STRPLUS_FO  )//KHD: Investor   :  In/Out .

  001b1	74 2b		 je	 SHORT $LN16@SendFidDat
; File C:\Program Files (x86)\Microsoft Visual Studio\2019\Community\VC\Tools\MSVC\14.29.30133\atlmfc\include\cstringt.h

; 2486 : 		return(str1.Compare(psz2) == 0);

  001b3	68 00 00 00 00	 push	 OFFSET ??_C@_05KJJONJAA@d0368@
  001b8	8d 4d 0c	 lea	 ecx, DWORD PTR _strTR$[ebp]
  001bb	ff 15 00 00 00
	00		 call	 DWORD PTR __imp_?Compare@?$CStringT@DV?$StrTraitMFC_DLL@DV?$ChTraitsCRT@D@ATL@@@@@ATL@@QBEHPBD@Z
  001c1	85 c0		 test	 eax, eax
; File D:\git\src\IBK\IBK_DRFN\ProjSrc\SrcDrfn\DrCommon\PartnerMng\_PartnerManager.cpp

; 154  : 	else if(strTR == QUERY_STRPLUS_KOSPI ||strTR == QUERY_STRPLUS_KOSDAK ||strTR == QUERY_STRPLUS_FO  )//KHD: Investor   :  In/Out .

  001c3	74 19		 je	 SHORT $LN16@SendFidDat
; File C:\Program Files (x86)\Microsoft Visual Studio\2019\Community\VC\Tools\MSVC\14.29.30133\atlmfc\include\cstringt.h

; 2486 : 		return(str1.Compare(psz2) == 0);

  001c5	68 00 00 00 00	 push	 OFFSET ??_C@_05GFCMPLNO@c1002@
  001ca	8d 4d 0c	 lea	 ecx, DWORD PTR _strTR$[ebp]
  001cd	ff 15 00 00 00
	00		 call	 DWORD PTR __imp_?Compare@?$CStringT@DV?$StrTraitMFC_DLL@DV?$ChTraitsCRT@D@ATL@@@@@ATL@@QBEHPBD@Z
  001d3	85 c0		 test	 eax, eax
; File D:\git\src\IBK\IBK_DRFN\ProjSrc\SrcDrfn\DrCommon\PartnerMng\_PartnerManager.cpp

; 160  : 	else if( strTR ==QUERY_STOCK_HOGA)

  001d5	75 30		 jne	 SHORT $LN17@SendFidDat

; 161  : 	{
; 162  : 
; 163  : 		strPoop = _T("POOPPOOP");

  001d7	68 00 00 00 00	 push	 OFFSET ??_C@_08BPMNGHAI@POOPPOOP@
  001dc	eb 20		 jmp	 SHORT $LN67@SendFidDat
$LN16@SendFidDat:

; 155  : 	{
; 156  : 		strPoop = _T("bo028011");

  001de	68 00 00 00 00	 push	 OFFSET ??_C@_08BPHHAGD@bo028011@
  001e3	8d 4d fc	 lea	 ecx, DWORD PTR _strPoop$[ebp]
  001e6	ff 15 00 00 00
	00		 call	 DWORD PTR __imp_??4?$CStringT@DV?$StrTraitMFC_DLL@DV?$ChTraitsCRT@D@ATL@@@@@ATL@@QAEAAV01@PBD@Z

; 157  : 		nRet = SendTR(strPoop, (LPTSTR)(LPCTSTR)strSendData, strSendData.GetLength(), nKey, US_PASS|US_ENC);

  001ec	6a 05		 push	 5
  001ee	ff 37		 push	 DWORD PTR [edi]
  001f0	eb 1f		 jmp	 SHORT $LN68@SendFidDat
$LN9@SendFidDat:

; 145  : 		strPoop = _T("pfboaoop");

  001f2	68 00 00 00 00	 push	 OFFSET ??_C@_08LBPJCNLI@pfboaoop@
  001f7	eb 05		 jmp	 SHORT $LN67@SendFidDat
$LN6@SendFidDat:

; 142  : 		strPoop = _T("pfbopoop");

  001f9	68 00 00 00 00	 push	 OFFSET ??_C@_08OMHJJDIK@pfbopoop@
$LN67@SendFidDat:

; 164  : 	}
; 165  : 	
; 166  : 	//>>
; 167  : 
; 168  : 	if (nKey != -1)

  001fe	8d 4d fc	 lea	 ecx, DWORD PTR _strPoop$[ebp]
  00201	ff 15 00 00 00
	00		 call	 DWORD PTR __imp_??4?$CStringT@DV?$StrTraitMFC_DLL@DV?$ChTraitsCRT@D@ATL@@@@@ATL@@QAEAAV01@PBD@Z
$LN17@SendFidDat:
  00207	8b 0f		 mov	 ecx, DWORD PTR [edi]
  00209	83 f9 ff	 cmp	 ecx, -1
  0020c	74 20		 je	 SHORT $LN18@SendFidDat

; 169  : 	{
; 170  : 		//For QCMonitor
; 171  : 		//if (gDebugMng)	gDebugMng->TraceTran('I', strTR, strSendData.GetLength(), (LPBYTE)(LPCTSTR)strSendData);
; 172  : 
; 173  : 		nRet = SendTR(strPoop, (LPTSTR)(LPCTSTR)strSendData, strSendData.GetLength(), nKey, US_OOP);

  0020e	6a 02		 push	 2
  00210	51		 push	 ecx
$LN68@SendFidDat:

; 174  : 	}
; 175  : 	
; 176  : 	return nRet;

  00211	8b 45 f8	 mov	 eax, DWORD PTR _strSendData$[ebp]
  00214	ff 70 f4	 push	 DWORD PTR [eax-12]
  00217	50		 push	 eax
  00218	51		 push	 ecx
  00219	8d 45 fc	 lea	 eax, DWORD PTR _strPoop$[ebp]
  0021c	8b cc		 mov	 ecx, esp
  0021e	50		 push	 eax
  0021f	ff 15 00 00 00
	00		 call	 DWORD PTR __imp_??0?$CStringT@DV?$StrTraitMFC_DLL@DV?$ChTraitsCRT@D@ATL@@@@@ATL@@QAE@ABV01@@Z
  00225	8b ce		 mov	 ecx, esi
  00227	e8 00 00 00 00	 call	 ?SendTR@CPartnerManager@@QAEHV?$CStringT@DV?$StrTraitMFC_DLL@DV?$ChTraitsCRT@D@ATL@@@@@ATL@@PADHHH@Z ; CPartnerManager::SendTR
  0022c	8b d8		 mov	 ebx, eax
$LN18@SendFidDat:
  0022e	8d 4d fc	 lea	 ecx, DWORD PTR _strPoop$[ebp]
  00231	ff 15 00 00 00
	00		 call	 DWORD PTR __imp_??1?$CStringT@DV?$StrTraitMFC_DLL@DV?$ChTraitsCRT@D@ATL@@@@@ATL@@QAE@XZ
  00237	8d 4d f8	 lea	 ecx, DWORD PTR _strSendData$[ebp]
  0023a	ff 15 00 00 00
	00		 call	 DWORD PTR __imp_??1?$CStringT@DV?$StrTraitMFC_DLL@DV?$ChTraitsCRT@D@ATL@@@@@ATL@@QAE@XZ
  00240	8d 4d 0c	 lea	 ecx, DWORD PTR _strTR$[ebp]
  00243	ff 15 00 00 00
	00		 call	 DWORD PTR __imp_??1?$CStringT@DV?$StrTraitMFC_DLL@DV?$ChTraitsCRT@D@ATL@@@@@ATL@@QAE@XZ

; 177  : }

  00249	5f		 pop	 edi
  0024a	5e		 pop	 esi
  0024b	8b c3		 mov	 eax, ebx
  0024d	5b		 pop	 ebx
  0024e	8b e5		 mov	 esp, ebp
  00250	5d		 pop	 ebp
  00251	c2 18 00	 ret	 24			; 00000018H
?SendFidData@CPartnerManager@@UAGHPBDPAEHAAHH@Z ENDP	; CPartnerManager::SendFidData
_TEXT	ENDS
; Function compile flags: /Ogtp
; File D:\git\src\IBK\IBK_DRFN\ProjSrc\SrcDrfn\DrCommon\PartnerMng\_PartnerManager.cpp
; File C:\Program Files (x86)\Microsoft Visual Studio\2019\Community\VC\Tools\MSVC\14.29.30133\atlmfc\include\afxmt.inl
; File D:\git\src\IBK\IBK_DRFN\ProjSrc\SrcDrfn\DrCommon\PartnerMng\_PartnerManager.cpp
;	COMDAT ?SendTrData@CPartnerManager@@UAGHPBDPAEHAAHH@Z
_TEXT	SEGMENT
_strTR$ = 8						; size = 4
_this$ = 8						; size = 4
_szTR$ = 12						; size = 4
_pData$ = 16						; size = 4
_nLen$ = 20						; size = 4
_nKey$ = 24						; size = 4
_bAdd$ = 28						; size = 4
?SendTrData@CPartnerManager@@UAGHPBDPAEHAAHH@Z PROC	; CPartnerManager::SendTrData, COMDAT

; 85   : {

  00000	55		 push	 ebp
  00001	8b ec		 mov	 ebp, esp
  00003	57		 push	 edi
; File C:\Program Files (x86)\Microsoft Visual Studio\2019\Community\VC\Tools\MSVC\14.29.30133\atlmfc\include\afxmt.inl

; 111  : 	::EnterCriticalSection(&m_sect); 

  00004	8b 7d 08	 mov	 edi, DWORD PTR _this$[ebp]
  00007	8d 87 28 11 00
	00		 lea	 eax, DWORD PTR [edi+4392]
  0000d	50		 push	 eax
  0000e	ff 15 00 00 00
	00		 call	 DWORD PTR __imp__EnterCriticalSection@4
; File D:\git\src\IBK\IBK_DRFN\ProjSrc\SrcDrfn\DrCommon\PartnerMng\_PartnerManager.cpp

; 100  : 	CString strTR = szTR;

  00014	ff 75 0c	 push	 DWORD PTR _szTR$[ebp]
  00017	8d 4d 08	 lea	 ecx, DWORD PTR _strTR$[ebp]
  0001a	ff 15 00 00 00
	00		 call	 DWORD PTR __imp_??0?$CStringT@DV?$StrTraitMFC_DLL@DV?$ChTraitsCRT@D@ATL@@@@@ATL@@QAE@PBD@Z

; 101  : /*
; 102  : 	if(strTR == TRNO_MSTCODE || strTR == TRNO_CONDIONECLK_RESULT || strTR == TRNO_ALERT_REALREG ||
; 103  : 		strTR == TRNO_CONDITION || strTR == TRNO_WORKDATE || strTR == TRNO_GROUPTOBASE || 
; 104  : 		strTR == TRNO_GROUPTOBASE_UP || strTR == TRNO_GROUP_RESULT || strTR == TRNO_DRAW_RESULT)
; 105  : 	{
; 106  : 		int nRet = SendTR(szTR, (char*)pData, nLen, nKey, US_KEY);
; 107  : 	}
; 108  : */
; 109  : 	int nRet = SendTR(szTR, (char*)pData, nLen, nKey, US_KEY);

  00020	8b 45 18	 mov	 eax, DWORD PTR _nKey$[ebp]
  00023	6a 10		 push	 16			; 00000010H
  00025	ff 30		 push	 DWORD PTR [eax]
  00027	ff 75 14	 push	 DWORD PTR _nLen$[ebp]
  0002a	ff 75 10	 push	 DWORD PTR _pData$[ebp]
  0002d	51		 push	 ecx
  0002e	8b cc		 mov	 ecx, esp
  00030	ff 75 0c	 push	 DWORD PTR _szTR$[ebp]
  00033	ff 15 00 00 00
	00		 call	 DWORD PTR __imp_??0?$CStringT@DV?$StrTraitMFC_DLL@DV?$ChTraitsCRT@D@ATL@@@@@ATL@@QAE@PBD@Z
  00039	8b cf		 mov	 ecx, edi
  0003b	e8 00 00 00 00	 call	 ?SendTR@CPartnerManager@@QAEHV?$CStringT@DV?$StrTraitMFC_DLL@DV?$ChTraitsCRT@D@ATL@@@@@ATL@@PADHHH@Z ; CPartnerManager::SendTR

; 110  : 
; 111  : 	m_CriticalSection.Unlock();

  00040	8b 87 20 11 00
	00		 mov	 eax, DWORD PTR [edi+4384]
  00046	8d 8f 20 11 00
	00		 lea	 ecx, DWORD PTR [edi+4384]
  0004c	ff 50 1c	 call	 DWORD PTR [eax+28]

; 112  : 
; 113  : 	return FALSE;

  0004f	8d 4d 08	 lea	 ecx, DWORD PTR _strTR$[ebp]
  00052	ff 15 00 00 00
	00		 call	 DWORD PTR __imp_??1?$CStringT@DV?$StrTraitMFC_DLL@DV?$ChTraitsCRT@D@ATL@@@@@ATL@@QAE@XZ
  00058	33 c0		 xor	 eax, eax

; 114  : }

  0005a	5f		 pop	 edi
  0005b	5d		 pop	 ebp
  0005c	c2 18 00	 ret	 24			; 00000018H
?SendTrData@CPartnerManager@@UAGHPBDPAEHAAHH@Z ENDP	; CPartnerManager::SendTrData
_TEXT	ENDS
; Function compile flags: /Ogtp
; File D:\git\src\IBK\IBK_DRFN\ProjSrc\SrcDrfn\DrCommon\PartnerMng\PartnerMng.h
;	COMDAT ?GetSite@CPartnerManager@@UAGPAUIPartnerSite@@XZ
_TEXT	SEGMENT
_this$ = 8						; size = 4
?GetSite@CPartnerManager@@UAGPAUIPartnerSite@@XZ PROC	; CPartnerManager::GetSite, COMDAT

; 80   : 	STDMETHOD_(IPartnerSite*, GetSite)() {return m_pPtSite;}

  00000	55		 push	 ebp
  00001	8b ec		 mov	 ebp, esp
  00003	8b 45 08	 mov	 eax, DWORD PTR _this$[ebp]
  00006	8b 40 20	 mov	 eax, DWORD PTR [eax+32]
  00009	5d		 pop	 ebp
  0000a	c2 04 00	 ret	 4
?GetSite@CPartnerManager@@UAGPAUIPartnerSite@@XZ ENDP	; CPartnerManager::GetSite
_TEXT	ENDS
; Function compile flags: /Ogtp
; File D:\git\src\IBK\IBK_DRFN\ProjSrc\SrcDrfn\DrCommon\PartnerMng\_PartnerManager.cpp
;	COMDAT ?SetSite@CPartnerManager@@UAGXPAUIPartnerSite@@@Z
_TEXT	SEGMENT
_this$ = 8						; size = 4
_pSite$ = 12						; size = 4
?SetSite@CPartnerManager@@UAGXPAUIPartnerSite@@@Z PROC	; CPartnerManager::SetSite, COMDAT

; 80   : {

  00000	55		 push	 ebp
  00001	8b ec		 mov	 ebp, esp

; 81   : 	m_pPtSite = pSite;

  00003	8b 4d 08	 mov	 ecx, DWORD PTR _this$[ebp]
  00006	8b 45 0c	 mov	 eax, DWORD PTR _pSite$[ebp]
  00009	89 41 20	 mov	 DWORD PTR [ecx+32], eax

; 82   : }

  0000c	5d		 pop	 ebp
  0000d	c2 08 00	 ret	 8
?SetSite@CPartnerManager@@UAGXPAUIPartnerSite@@@Z ENDP	; CPartnerManager::SetSite
_TEXT	ENDS
; Function compile flags: /Ogtp
; File D:\git\src\IBK\IBK_DRFN\ProjSrc\SrcDrfn\DrCommon\PartnerMng\_PartnerManager.cpp
;	COMDAT ?AddCode@CRegisterCodeMng@@QAEXPBDH@Z
_TEXT	SEGMENT
_szCode$ = 8						; size = 4
_nIndex$ = 12						; size = 4
?AddCode@CRegisterCodeMng@@QAEXPBDH@Z PROC		; CRegisterCodeMng::AddCode, COMDAT
; _this$ = ecx

; 37   : {

  00000	55		 push	 ebp
  00001	8b ec		 mov	 ebp, esp
  00003	56		 push	 esi

; 27   : 	return m_CodeList.Find(szCode);

  00004	6a 00		 push	 0
  00006	ff 75 08	 push	 DWORD PTR _szCode$[ebp]

; 37   : {

  00009	8b f1		 mov	 esi, ecx

; 27   : 	return m_CodeList.Find(szCode);

  0000b	e8 00 00 00 00	 call	 ?Find@CStringList@@QBEPAU__POSITION@@PBDPAU2@@Z ; CStringList::Find

; 38   : 	POSITION pos = FindCode(szCode);
; 39   : 	if(pos==NULL) m_CodeList.AddHead(szCode);

  00010	85 c0		 test	 eax, eax
  00012	75 0a		 jne	 SHORT $LN2@AddCode
  00014	ff 75 08	 push	 DWORD PTR _szCode$[ebp]
  00017	8b ce		 mov	 ecx, esi
  00019	e8 00 00 00 00	 call	 ?AddHead@CStringList@@QAEPAU__POSITION@@PBD@Z ; CStringList::AddHead
$LN2@AddCode:
  0001e	5e		 pop	 esi

; 40   : }

  0001f	5d		 pop	 ebp
  00020	c2 08 00	 ret	 8
?AddCode@CRegisterCodeMng@@QAEXPBDH@Z ENDP		; CRegisterCodeMng::AddCode
_TEXT	ENDS
; Function compile flags: /Ogtp
; File D:\git\src\IBK\IBK_DRFN\ProjSrc\SrcDrfn\DrCommon\PartnerMng\_PartnerManager.cpp
;	COMDAT ?RemoveCode@CRegisterCodeMng@@QAEXPBD@Z
_TEXT	SEGMENT
_szCode$ = 8						; size = 4
?RemoveCode@CRegisterCodeMng@@QAEXPBD@Z PROC		; CRegisterCodeMng::RemoveCode, COMDAT
; _this$ = ecx

; 31   : {

  00000	55		 push	 ebp
  00001	8b ec		 mov	 ebp, esp
  00003	56		 push	 esi

; 27   : 	return m_CodeList.Find(szCode);

  00004	6a 00		 push	 0
  00006	ff 75 08	 push	 DWORD PTR _szCode$[ebp]

; 31   : {

  00009	8b f1		 mov	 esi, ecx

; 27   : 	return m_CodeList.Find(szCode);

  0000b	e8 00 00 00 00	 call	 ?Find@CStringList@@QBEPAU__POSITION@@PBDPAU2@@Z ; CStringList::Find

; 32   : 	POSITION pos = FindCode(szCode);
; 33   : 	if(pos) m_CodeList.RemoveAt(pos);

  00010	85 c0		 test	 eax, eax
  00012	74 08		 je	 SHORT $LN2@RemoveCode
  00014	50		 push	 eax
  00015	8b ce		 mov	 ecx, esi
  00017	e8 00 00 00 00	 call	 ?RemoveAt@CStringList@@QAEXPAU__POSITION@@@Z ; CStringList::RemoveAt
$LN2@RemoveCode:
  0001c	5e		 pop	 esi

; 34   : }

  0001d	5d		 pop	 ebp
  0001e	c2 04 00	 ret	 4
?RemoveCode@CRegisterCodeMng@@QAEXPBD@Z ENDP		; CRegisterCodeMng::RemoveCode
_TEXT	ENDS
; Function compile flags: /Ogtp
; File D:\git\src\IBK\IBK_DRFN\ProjSrc\SrcDrfn\DrCommon\PartnerMng\_PartnerManager.cpp
;	COMDAT ?FindCode@CRegisterCodeMng@@QAEPAU__POSITION@@PBD@Z
_TEXT	SEGMENT
_szCode$ = 8						; size = 4
?FindCode@CRegisterCodeMng@@QAEPAU__POSITION@@PBD@Z PROC ; CRegisterCodeMng::FindCode, COMDAT
; _this$ = ecx

; 26   : {

  00000	55		 push	 ebp
  00001	8b ec		 mov	 ebp, esp

; 27   : 	return m_CodeList.Find(szCode);

  00003	6a 00		 push	 0
  00005	ff 75 08	 push	 DWORD PTR _szCode$[ebp]
  00008	e8 00 00 00 00	 call	 ?Find@CStringList@@QBEPAU__POSITION@@PBDPAU2@@Z ; CStringList::Find

; 28   : }

  0000d	5d		 pop	 ebp
  0000e	c2 04 00	 ret	 4
?FindCode@CRegisterCodeMng@@QAEPAU__POSITION@@PBD@Z ENDP ; CRegisterCodeMng::FindCode
_TEXT	ENDS
; Function compile flags: /Ogtp
; File D:\git\src\IBK\IBK_DRFN\ProjSrc\SrcDrfn\DrCommon\PartnerMng\_PartnerManager.cpp
;	COMDAT ??1CRegisterCodeMng@@QAE@XZ
_TEXT	SEGMENT
__$EHRec$ = -12						; size = 12
??1CRegisterCodeMng@@QAE@XZ PROC			; CRegisterCodeMng::~CRegisterCodeMng, COMDAT
; _this$ = ecx

; 21   : {

  00000	55		 push	 ebp
  00001	8b ec		 mov	 ebp, esp
  00003	6a ff		 push	 -1
  00005	68 00 00 00 00	 push	 __ehhandler$??1CRegisterCodeMng@@QAE@XZ
  0000a	64 a1 00 00 00
	00		 mov	 eax, DWORD PTR fs:0
  00010	50		 push	 eax
  00011	56		 push	 esi
  00012	a1 00 00 00 00	 mov	 eax, DWORD PTR ___security_cookie
  00017	33 c5		 xor	 eax, ebp
  00019	50		 push	 eax
  0001a	8d 45 f4	 lea	 eax, DWORD PTR __$EHRec$[ebp]
  0001d	64 a3 00 00 00
	00		 mov	 DWORD PTR fs:0, eax
  00023	8b f1		 mov	 esi, ecx

; 22   : 	m_CodeList.RemoveAll();

  00025	e8 00 00 00 00	 call	 ?RemoveAll@CStringList@@QAEXXZ ; CStringList::RemoveAll

; 23   : }

  0002a	8b ce		 mov	 ecx, esi
  0002c	e8 00 00 00 00	 call	 ??1CStringList@@UAE@XZ	; CStringList::~CStringList
  00031	8b 4d f4	 mov	 ecx, DWORD PTR __$EHRec$[ebp]
  00034	64 89 0d 00 00
	00 00		 mov	 DWORD PTR fs:0, ecx
  0003b	59		 pop	 ecx
  0003c	5e		 pop	 esi
  0003d	8b e5		 mov	 esp, ebp
  0003f	5d		 pop	 ebp
  00040	c3		 ret	 0
  00041	cc		 int	 3
  00042	cc		 int	 3
  00043	cc		 int	 3
  00044	cc		 int	 3
  00045	cc		 int	 3
_TEXT	ENDS
;	COMDAT text$x
text$x	SEGMENT
__ehhandler$??1CRegisterCodeMng@@QAE@XZ:
  00000	90		 npad	 1
  00001	90		 npad	 1
  00002	8b 54 24 08	 mov	 edx, DWORD PTR [esp+8]
  00006	8d 42 0c	 lea	 eax, DWORD PTR [edx+12]
  00009	8b 4a f8	 mov	 ecx, DWORD PTR [edx-8]
  0000c	33 c8		 xor	 ecx, eax
  0000e	e8 00 00 00 00	 call	 @__security_check_cookie@4
  00013	b8 00 00 00 00	 mov	 eax, OFFSET __ehfuncinfo$??1CRegisterCodeMng@@QAE@XZ
  00018	e9 00 00 00 00	 jmp	 ___CxxFrameHandler3
text$x	ENDS
??1CRegisterCodeMng@@QAE@XZ ENDP			; CRegisterCodeMng::~CRegisterCodeMng
; Function compile flags: /Ogtp
; File D:\git\src\IBK\IBK_DRFN\ProjSrc\SrcDrfn\DrCommon\PartnerMng\_PartnerManager.cpp
;	COMDAT ??0CPartnerManagerSubDataA@@QAE@XZ
_TEXT	SEGMENT
??0CPartnerManagerSubDataA@@QAE@XZ PROC			; CPartnerManagerSubDataA::CPartnerManagerSubDataA, COMDAT
; _this$ = ecx

; 48   : {

  00000	56		 push	 esi

; 49   : 	for(int i=0; i<255-TRKEY_REALSTART; i++) {m_bRealKeyInfo[i]=0;}

  00001	68 9a 00 00 00	 push	 154			; 0000009aH
  00006	8b f1		 mov	 esi, ecx
  00008	6a 00		 push	 0
  0000a	56		 push	 esi
  0000b	e8 00 00 00 00	 call	 _memset
  00010	83 c4 0c	 add	 esp, 12			; 0000000cH

; 50   : }

  00013	8b c6		 mov	 eax, esi
  00015	5e		 pop	 esi
  00016	c3		 ret	 0
??0CPartnerManagerSubDataA@@QAE@XZ ENDP			; CPartnerManagerSubDataA::CPartnerManagerSubDataA
_TEXT	ENDS
; Function compile flags: /Ogtp
;	COMDAT ??1FID_SENDDATA@@QAE@XZ
_TEXT	SEGMENT
??1FID_SENDDATA@@QAE@XZ PROC				; FID_SENDDATA::~FID_SENDDATA, COMDAT
; _this$ = ecx
  00000	ff 25 00 00 00
	00		 jmp	 DWORD PTR __imp_??1?$CStringT@DV?$StrTraitMFC_DLL@DV?$ChTraitsCRT@D@ATL@@@@@ATL@@QAE@XZ
??1FID_SENDDATA@@QAE@XZ ENDP				; FID_SENDDATA::~FID_SENDDATA
_TEXT	ENDS
; Function compile flags: /Ogtp
; File C:\Program Files (x86)\Microsoft Visual Studio\2019\Community\VC\Tools\MSVC\14.29.30133\atlmfc\include\afxmt.inl
; File C:\Program Files (x86)\Microsoft Visual Studio\2019\Community\VC\Tools\MSVC\14.29.30133\atlmfc\include\afx.inl
;	COMDAT ??_GCCriticalSection@@UAEPAXI@Z
_TEXT	SEGMENT
___flags$ = 8						; size = 4
??_GCCriticalSection@@UAEPAXI@Z PROC			; CCriticalSection::`scalar deleting destructor', COMDAT
; _this$ = ecx
  00000	55		 push	 ebp
  00001	8b ec		 mov	 ebp, esp
; File C:\Program Files (x86)\Microsoft Visual Studio\2019\Community\VC\Tools\MSVC\14.29.30133\atlmfc\include\afxmt.inl

; 105  : { 

  00003	56		 push	 esi
  00004	8b f1		 mov	 esi, ecx

; 106  : 	::DeleteCriticalSection(&m_sect); 

  00006	8d 46 08	 lea	 eax, DWORD PTR [esi+8]
  00009	c7 06 00 00 00
	00		 mov	 DWORD PTR [esi], OFFSET ??_7CCriticalSection@@6B@
  0000f	50		 push	 eax
  00010	ff 15 00 00 00
	00		 call	 DWORD PTR __imp__DeleteCriticalSection@4

; 107  : }

  00016	8b ce		 mov	 ecx, esi
  00018	e8 00 00 00 00	 call	 ??1CSyncObject@@UAE@XZ	; CSyncObject::~CSyncObject
  0001d	8b 45 08	 mov	 eax, DWORD PTR ___flags$[ebp]
  00020	a8 01		 test	 al, 1
  00022	74 1f		 je	 SHORT $LN12@scalar
  00024	a8 04		 test	 al, 4
  00026	75 10		 jne	 SHORT $LN3@scalar
; File C:\Program Files (x86)\Microsoft Visual Studio\2019\Community\VC\Tools\MSVC\14.29.30133\atlmfc\include\afx.inl

; 112  : 	{ ::operator delete(p); }

  00028	56		 push	 esi
  00029	e8 00 00 00 00	 call	 ??3@YAXPAX@Z		; operator delete
  0002e	83 c4 04	 add	 esp, 4
  00031	8b c6		 mov	 eax, esi
  00033	5e		 pop	 esi
  00034	5d		 pop	 ebp
  00035	c2 04 00	 ret	 4
$LN3@scalar:
  00038	6a 20		 push	 32			; 00000020H
  0003a	56		 push	 esi
  0003b	e8 00 00 00 00	 call	 ?__global_delete@@YAXPAXI@Z ; __global_delete
  00040	83 c4 08	 add	 esp, 8
$LN12@scalar:
  00043	8b c6		 mov	 eax, esi
  00045	5e		 pop	 esi
  00046	5d		 pop	 ebp
  00047	c2 04 00	 ret	 4
??_GCCriticalSection@@UAEPAXI@Z ENDP			; CCriticalSection::`scalar deleting destructor'
_TEXT	ENDS
; Function compile flags: /Ogtp
; File C:\Program Files (x86)\Microsoft Visual Studio\2019\Community\VC\Tools\MSVC\14.29.30133\atlmfc\include\afxmt.inl
;	COMDAT ??1CCriticalSection@@UAE@XZ
_TEXT	SEGMENT
??1CCriticalSection@@UAE@XZ PROC			; CCriticalSection::~CCriticalSection, COMDAT
; _this$ = ecx

; 105  : { 

  00000	56		 push	 esi
  00001	8b f1		 mov	 esi, ecx

; 106  : 	::DeleteCriticalSection(&m_sect); 

  00003	8d 46 08	 lea	 eax, DWORD PTR [esi+8]
  00006	c7 06 00 00 00
	00		 mov	 DWORD PTR [esi], OFFSET ??_7CCriticalSection@@6B@
  0000c	50		 push	 eax
  0000d	ff 15 00 00 00
	00		 call	 DWORD PTR __imp__DeleteCriticalSection@4

; 107  : }

  00013	8b ce		 mov	 ecx, esi
  00015	5e		 pop	 esi
  00016	e9 00 00 00 00	 jmp	 ??1CSyncObject@@UAE@XZ	; CSyncObject::~CSyncObject
??1CCriticalSection@@UAE@XZ ENDP			; CCriticalSection::~CCriticalSection
_TEXT	ENDS
; Function compile flags: /Ogtp
; File C:\Program Files (x86)\Microsoft Visual Studio\2019\Community\VC\Tools\MSVC\14.29.30133\atlmfc\include\afxmt.inl
;	COMDAT ?Lock@CCriticalSection@@UAEHK@Z
_TEXT	SEGMENT
_dwTimeout$ = 8						; size = 4
?Lock@CCriticalSection@@UAEHK@Z PROC			; CCriticalSection::Lock, COMDAT
; _this$ = ecx

; 111  : 	::EnterCriticalSection(&m_sect); 

  00000	8d 41 08	 lea	 eax, DWORD PTR [ecx+8]
  00003	50		 push	 eax
  00004	ff 15 00 00 00
	00		 call	 DWORD PTR __imp__EnterCriticalSection@4

; 118  : 	ASSERT(dwTimeout == INFINITE); 
; 119  : 	(void)dwTimeout; 
; 120  : 	
; 121  : 	return Lock(); 

  0000a	b8 01 00 00 00	 mov	 eax, 1

; 122  : }

  0000f	c2 04 00	 ret	 4
?Lock@CCriticalSection@@UAEHK@Z ENDP			; CCriticalSection::Lock
_TEXT	ENDS
; Function compile flags: /Ogtp
; File C:\Program Files (x86)\Microsoft Visual Studio\2019\Community\VC\Tools\MSVC\14.29.30133\atlmfc\include\afxmt.inl
;	COMDAT ?Unlock@CCriticalSection@@UAEHXZ
_TEXT	SEGMENT
?Unlock@CCriticalSection@@UAEHXZ PROC			; CCriticalSection::Unlock, COMDAT
; _this$ = ecx

; 126  : 	::LeaveCriticalSection(&m_sect); 

  00000	8d 41 08	 lea	 eax, DWORD PTR [ecx+8]
  00003	50		 push	 eax
  00004	ff 15 00 00 00
	00		 call	 DWORD PTR __imp__LeaveCriticalSection@4

; 127  : 	
; 128  : 	return TRUE; 

  0000a	b8 01 00 00 00	 mov	 eax, 1

; 129  : }

  0000f	c3		 ret	 0
?Unlock@CCriticalSection@@UAEHXZ ENDP			; CCriticalSection::Unlock
_TEXT	ENDS
; Function compile flags: /Ogtp
; File C:\Program Files (x86)\Microsoft Visual Studio\2019\Community\VC\Tools\MSVC\14.29.30133\atlmfc\include\AFXMT.H
;	COMDAT ?Unlock@CSyncObject@@UAEHJPAJ@Z
_TEXT	SEGMENT
___formal$ = 8						; size = 4
___formal$ = 12						; size = 4
?Unlock@CSyncObject@@UAEHJPAJ@Z PROC			; CSyncObject::Unlock, COMDAT
; _this$ = ecx

; 66   : 		{ return TRUE; }

  00000	b8 01 00 00 00	 mov	 eax, 1
  00005	c2 08 00	 ret	 8
?Unlock@CSyncObject@@UAEHJPAJ@Z ENDP			; CSyncObject::Unlock
_TEXT	ENDS
; Function compile flags: /Ogtp
; File D:\git\src\IBK\IBK_DRFN\ProjSrc\SrcDrfn\Chart\commontr\TRDefine.h
;	COMDAT ??__ERMSG_GETSIGNAL_REAL@@YAXXZ
text$di	SEGMENT
??__ERMSG_GETSIGNAL_REAL@@YAXXZ PROC			; `dynamic initializer for 'RMSG_GETSIGNAL_REAL'', COMDAT

; 213  : const UINT RMSG_GETSIGNAL_REAL = ::RegisterWindowMessage(_T("RMSG_GETSIGNAL_REAL"));

  00000	68 00 00 00 00	 push	 OFFSET ??_C@_0BE@FJPKENOB@RMSG_GETSIGNAL_REAL@
  00005	ff 15 00 00 00
	00		 call	 DWORD PTR __imp__RegisterWindowMessageA@4
  0000b	a3 00 00 00 00	 mov	 DWORD PTR ?RMSG_GETSIGNAL_REAL@@3IB, eax
  00010	c3		 ret	 0
??__ERMSG_GETSIGNAL_REAL@@YAXXZ ENDP			; `dynamic initializer for 'RMSG_GETSIGNAL_REAL''
text$di	ENDS
; Function compile flags: /Ogtp
; File D:\git\src\IBK\IBK_DRFN\ProjSrc\SrcDrfn\inc\IBaseDefine.h
;	COMDAT ?AfxGetPctrInterface@@YGJH@Z
_TEXT	SEGMENT
_hMainWnd$ = -36					; size = 4
_szClipFormat$2 = -32					; size = 4
_aBufWnd$3 = -28					; size = 9
__$ArrayPad$ = -16					; size = 4
__$EHRec$ = -12						; size = 12
_nID$ = 8						; size = 4
?AfxGetPctrInterface@@YGJH@Z PROC			; AfxGetPctrInterface, COMDAT

; 260  : {

  00000	55		 push	 ebp
  00001	8b ec		 mov	 ebp, esp
  00003	6a ff		 push	 -1
  00005	68 00 00 00 00	 push	 __ehhandler$?AfxGetPctrInterface@@YGJH@Z
  0000a	64 a1 00 00 00
	00		 mov	 eax, DWORD PTR fs:0
  00010	50		 push	 eax
  00011	83 ec 18	 sub	 esp, 24			; 00000018H
  00014	a1 00 00 00 00	 mov	 eax, DWORD PTR ___security_cookie
  00019	33 c5		 xor	 eax, ebp
  0001b	89 45 f0	 mov	 DWORD PTR __$ArrayPad$[ebp], eax
  0001e	50		 push	 eax
  0001f	8d 45 f4	 lea	 eax, DWORD PTR __$EHRec$[ebp]
  00022	64 a3 00 00 00
	00		 mov	 DWORD PTR fs:0, eax
  00028	0f 57 c0	 xorps	 xmm0, xmm0

; 261  : 	HWND hMainWnd;
; 262  : 	AfxGetHanaroMainWnd(hMainWnd);

  0002b	c7 45 dc 00 00
	00 00		 mov	 DWORD PTR _hMainWnd$[ebp], 0
  00032	8d 4d e0	 lea	 ecx, DWORD PTR _szClipFormat$2[ebp]
  00035	66 0f d6 45 e4	 movq	 QWORD PTR _aBufWnd$3[ebp], xmm0
  0003a	c6 45 ec 00	 mov	 BYTE PTR _aBufWnd$3[ebp+8], 0
  0003e	ff 15 00 00 00
	00		 call	 DWORD PTR __imp_??0?$CStringT@DV?$StrTraitMFC_DLL@DV?$ChTraitsCRT@D@ATL@@@@@ATL@@QAE@XZ
  00044	68 00 00 00 00	 push	 OFFSET ??_C@_0M@CBBNGGHM@PcTrMng?4dll@
  00049	c7 45 fc 00 00
	00 00		 mov	 DWORD PTR __$EHRec$[ebp+8], 0
  00050	ff 15 00 00 00
	00		 call	 DWORD PTR __imp__GetModuleHandleA@4
  00056	50		 push	 eax
  00057	68 00 00 00 00	 push	 OFFSET ??_C@_0P@IDMAJEGN@HANAROPCTRMAIN@
  0005c	8d 45 e0	 lea	 eax, DWORD PTR _szClipFormat$2[ebp]
  0005f	68 00 00 00 00	 push	 OFFSET ??_C@_06NDLAHCHE@?$CFs?$CF08X@
  00064	50		 push	 eax
  00065	ff 15 00 00 00
	00		 call	 DWORD PTR __imp_?Format@?$CStringT@DV?$StrTraitMFC_DLL@DV?$ChTraitsCRT@D@ATL@@@@@ATL@@QAAXPBDZZ
  0006b	83 c4 10	 add	 esp, 16			; 00000010H
  0006e	8d 45 e4	 lea	 eax, DWORD PTR _aBufWnd$3[ebp]
  00071	6a 09		 push	 9
  00073	50		 push	 eax
  00074	ff 75 e0	 push	 DWORD PTR _szClipFormat$2[ebp]
  00077	ff 15 00 00 00
	00		 call	 DWORD PTR __imp__GetEnvironmentVariableA@12
  0007d	8d 45 dc	 lea	 eax, DWORD PTR _hMainWnd$[ebp]
  00080	50		 push	 eax
  00081	8d 45 e4	 lea	 eax, DWORD PTR _aBufWnd$3[ebp]
  00084	68 00 00 00 00	 push	 OFFSET ??_C@_02EMFKHFLK@?$CFX@
  00089	50		 push	 eax
  0008a	e8 00 00 00 00	 call	 _sscanf
  0008f	83 c4 0c	 add	 esp, 12			; 0000000cH
  00092	8d 4d e0	 lea	 ecx, DWORD PTR _szClipFormat$2[ebp]
  00095	ff 15 00 00 00
	00		 call	 DWORD PTR __imp_??1?$CStringT@DV?$StrTraitMFC_DLL@DV?$ChTraitsCRT@D@ATL@@@@@ATL@@QAE@XZ

; 263  : 
; 264  : 	return ::SendMessage(hMainWnd, RMSG_INTERFACE, (WPARAM)nID, 0);

  0009b	6a 00		 push	 0
  0009d	ff 75 08	 push	 DWORD PTR _nID$[ebp]
  000a0	ff 35 00 00 00
	00		 push	 DWORD PTR ?RMSG_INTERFACE@@3IB
  000a6	ff 75 dc	 push	 DWORD PTR _hMainWnd$[ebp]
  000a9	ff 15 00 00 00
	00		 call	 DWORD PTR __imp__SendMessageA@16

; 265  : }

  000af	8b 4d f4	 mov	 ecx, DWORD PTR __$EHRec$[ebp]
  000b2	64 89 0d 00 00
	00 00		 mov	 DWORD PTR fs:0, ecx
  000b9	59		 pop	 ecx
  000ba	8b 4d f0	 mov	 ecx, DWORD PTR __$ArrayPad$[ebp]
  000bd	33 cd		 xor	 ecx, ebp
  000bf	e8 00 00 00 00	 call	 @__security_check_cookie@4
  000c4	8b e5		 mov	 esp, ebp
  000c6	5d		 pop	 ebp
  000c7	c2 04 00	 ret	 4
_TEXT	ENDS
;	COMDAT text$x
text$x	SEGMENT
__unwindfunclet$?AfxGetPctrInterface@@YGJH@Z$0:
  00000	8d 4d e0	 lea	 ecx, DWORD PTR _szClipFormat$2[ebp]
  00003	ff 25 00 00 00
	00		 jmp	 DWORD PTR __imp_??1?$CStringT@DV?$StrTraitMFC_DLL@DV?$ChTraitsCRT@D@ATL@@@@@ATL@@QAE@XZ
  00009	cc		 int	 3
  0000a	cc		 int	 3
  0000b	cc		 int	 3
  0000c	cc		 int	 3
  0000d	cc		 int	 3
__ehhandler$?AfxGetPctrInterface@@YGJH@Z:
  0000e	90		 npad	 1
  0000f	90		 npad	 1
  00010	8b 54 24 08	 mov	 edx, DWORD PTR [esp+8]
  00014	8d 42 0c	 lea	 eax, DWORD PTR [edx+12]
  00017	8b 4a e4	 mov	 ecx, DWORD PTR [edx-28]
  0001a	33 c8		 xor	 ecx, eax
  0001c	e8 00 00 00 00	 call	 @__security_check_cookie@4
  00021	8b 4a fc	 mov	 ecx, DWORD PTR [edx-4]
  00024	33 c8		 xor	 ecx, eax
  00026	e8 00 00 00 00	 call	 @__security_check_cookie@4
  0002b	b8 00 00 00 00	 mov	 eax, OFFSET __ehfuncinfo$?AfxGetPctrInterface@@YGJH@Z
  00030	e9 00 00 00 00	 jmp	 ___CxxFrameHandler3
text$x	ENDS
?AfxGetPctrInterface@@YGJH@Z ENDP			; AfxGetPctrInterface
; Function compile flags: /Ogtp
; File D:\git\src\IBK\IBK_DRFN\ProjSrc\SrcDrfn\inc\IBaseDefine.h
;	COMDAT ??__ERMSG_SETPCTRDATA@@YAXXZ
text$di	SEGMENT
??__ERMSG_SETPCTRDATA@@YAXXZ PROC			; `dynamic initializer for 'RMSG_SETPCTRDATA'', COMDAT

; 172  : const UINT RMSG_SETPCTRDATA = ::RegisterWindowMessage("RMSG_SETPCTRDATA");

  00000	68 00 00 00 00	 push	 OFFSET ??_C@_0BB@JPACFCL@RMSG_SETPCTRDATA@
  00005	ff 15 00 00 00
	00		 call	 DWORD PTR __imp__RegisterWindowMessageA@4
  0000b	a3 00 00 00 00	 mov	 DWORD PTR ?RMSG_SETPCTRDATA@@3IB, eax
  00010	c3		 ret	 0
??__ERMSG_SETPCTRDATA@@YAXXZ ENDP			; `dynamic initializer for 'RMSG_SETPCTRDATA''
text$di	ENDS
; Function compile flags: /Ogtp
; File D:\git\src\IBK\IBK_DRFN\ProjSrc\SrcDrfn\inc\IBaseDefine.h
;	COMDAT ??__ERMSG_GETPCTRDATA@@YAXXZ
text$di	SEGMENT
??__ERMSG_GETPCTRDATA@@YAXXZ PROC			; `dynamic initializer for 'RMSG_GETPCTRDATA'', COMDAT

; 171  : const UINT RMSG_GETPCTRDATA = ::RegisterWindowMessage("RMSG_GETPCTRDATA");

  00000	68 00 00 00 00	 push	 OFFSET ??_C@_0BB@GOOPDKI@RMSG_GETPCTRDATA@
  00005	ff 15 00 00 00
	00		 call	 DWORD PTR __imp__RegisterWindowMessageA@4
  0000b	a3 00 00 00 00	 mov	 DWORD PTR ?RMSG_GETPCTRDATA@@3IB, eax
  00010	c3		 ret	 0
??__ERMSG_GETPCTRDATA@@YAXXZ ENDP			; `dynamic initializer for 'RMSG_GETPCTRDATA''
text$di	ENDS
; Function compile flags: /Ogtp
; File D:\git\src\IBK\IBK_DRFN\ProjSrc\SrcDrfn\inc\IBaseDefine.h
;	COMDAT ??__ERMSG_INTERFACE@@YAXXZ
text$di	SEGMENT
??__ERMSG_INTERFACE@@YAXXZ PROC				; `dynamic initializer for 'RMSG_INTERFACE'', COMDAT

; 170  : const UINT RMSG_INTERFACE = ::RegisterWindowMessage("RMSG_INTERFACE");

  00000	68 00 00 00 00	 push	 OFFSET ??_C@_0P@BKKCOCLK@RMSG_INTERFACE@
  00005	ff 15 00 00 00
	00		 call	 DWORD PTR __imp__RegisterWindowMessageA@4
  0000b	a3 00 00 00 00	 mov	 DWORD PTR ?RMSG_INTERFACE@@3IB, eax
  00010	c3		 ret	 0
??__ERMSG_INTERFACE@@YAXXZ ENDP				; `dynamic initializer for 'RMSG_INTERFACE''
text$di	ENDS
; Function compile flags: /Ogtp
; File C:\Program Files (x86)\Microsoft Visual Studio\2019\Community\VC\Tools\MSVC\14.29.30133\atlmfc\include\cstringt.h
;	COMDAT ??8ATL@@YA_NABV?$CStringT@DV?$StrTraitMFC_DLL@DV?$ChTraitsCRT@D@ATL@@@@@0@D@Z
_TEXT	SEGMENT
_str1$ = 8						; size = 4
_ch2$ = 12						; size = 1
??8ATL@@YA_NABV?$CStringT@DV?$StrTraitMFC_DLL@DV?$ChTraitsCRT@D@ATL@@@@@0@D@Z PROC ; ATL::operator==, COMDAT

; 2509 : 	{

  00000	55		 push	 ebp
  00001	8b ec		 mov	 ebp, esp

; 2510 : 		return((str1.GetLength() == 1) && (str1[0] == ch2));

  00003	8b 4d 08	 mov	 ecx, DWORD PTR _str1$[ebp]
  00006	8b 01		 mov	 eax, DWORD PTR [ecx]
  00008	83 78 f4 01	 cmp	 DWORD PTR [eax-12], 1
  0000c	75 11		 jne	 SHORT $LN3@operator
  0000e	6a 00		 push	 0
  00010	ff 15 00 00 00
	00		 call	 DWORD PTR __imp_??A?$CSimpleStringT@D$00@ATL@@QBEDH@Z
  00016	3a 45 0c	 cmp	 al, BYTE PTR _ch2$[ebp]
  00019	75 04		 jne	 SHORT $LN3@operator
  0001b	b0 01		 mov	 al, 1

; 2511 : 	}

  0001d	5d		 pop	 ebp
  0001e	c3		 ret	 0
$LN3@operator:

; 2510 : 		return((str1.GetLength() == 1) && (str1[0] == ch2));

  0001f	32 c0		 xor	 al, al

; 2511 : 	}

  00021	5d		 pop	 ebp
  00022	c3		 ret	 0
??8ATL@@YA_NABV?$CStringT@DV?$StrTraitMFC_DLL@DV?$ChTraitsCRT@D@ATL@@@@@0@D@Z ENDP ; ATL::operator==
_TEXT	ENDS
; Function compile flags: /Ogtp
; File C:\Program Files (x86)\Microsoft Visual Studio\2019\Community\VC\Tools\MSVC\14.29.30133\atlmfc\include\atlexcept.h
;	COMDAT ?AtlThrowImpl@ATL@@YGXJ@Z
_TEXT	SEGMENT
_hr$ = 8						; size = 4
?AtlThrowImpl@ATL@@YGXJ@Z PROC				; ATL::AtlThrowImpl, COMDAT

; 65   : {

  00000	55		 push	 ebp
  00001	8b ec		 mov	 ebp, esp

; 66   : 	ATLTRACE(atlTraceException, 0, _T("AtlThrow: hr = 0x%x\n"), hr );
; 67   : #ifdef _AFX
; 68   : 	if( hr == E_OUTOFMEMORY )

  00003	8b 45 08	 mov	 eax, DWORD PTR _hr$[ebp]
  00006	3d 0e 00 07 80	 cmp	 eax, -2147024882	; 8007000eH
  0000b	75 05		 jne	 SHORT $LN2@AtlThrowIm

; 69   : 	{
; 70   : 		AfxThrowMemoryException();

  0000d	e8 00 00 00 00	 call	 ?AfxThrowMemoryException@@YGXXZ ; AfxThrowMemoryException
$LN2@AtlThrowIm:

; 71   : 	}
; 72   : 	else
; 73   : 	{
; 74   : 		AfxThrowOleException( hr );

  00012	50		 push	 eax
  00013	e8 00 00 00 00	 call	 ?AfxThrowOleException@@YGXJ@Z ; AfxThrowOleException
$LN5@AtlThrowIm:
  00018	cc		 int	 3
?AtlThrowImpl@ATL@@YGXJ@Z ENDP				; ATL::AtlThrowImpl
_TEXT	ENDS
; Function compile flags: /Ogtp
; File C:\Program Files (x86)\Microsoft Visual Studio\2019\Community\VC\Tools\MSVC\14.29.30133\atlmfc\include\afx.inl
;	COMDAT ?Dump@CObject@@UBEXAAVCDumpContext@@@Z
_TEXT	SEGMENT
___formal$ = 8						; size = 4
?Dump@CObject@@UBEXAAVCDumpContext@@@Z PROC		; CObject::Dump, COMDAT
; _this$ = ecx

; 122  : 	{ /* no dumping in release builds */ }

  00000	c2 04 00	 ret	 4
?Dump@CObject@@UBEXAAVCDumpContext@@@Z ENDP		; CObject::Dump
_TEXT	ENDS
; Function compile flags: /Ogtp
; File C:\Program Files (x86)\Microsoft Visual Studio\2019\Community\VC\Tools\MSVC\14.29.30133\atlmfc\include\afx.inl
;	COMDAT ?AssertValid@CObject@@UBEXXZ
_TEXT	SEGMENT
?AssertValid@CObject@@UBEXXZ PROC			; CObject::AssertValid, COMDAT
; _this$ = ecx

; 120  : 	{ /* no asserts in release builds */ }

  00000	c2 00 00	 ret	 0
?AssertValid@CObject@@UBEXXZ ENDP			; CObject::AssertValid
_TEXT	ENDS
; Function compile flags: /Ogtp
; File C:\Program Files (x86)\Microsoft Visual Studio\2019\Community\VC\Tools\MSVC\14.29.30133\atlmfc\include\afx.inl
;	COMDAT ?Serialize@CObject@@UAEXAAVCArchive@@@Z
_TEXT	SEGMENT
___formal$ = 8						; size = 4
?Serialize@CObject@@UAEXAAVCArchive@@@Z PROC		; CObject::Serialize, COMDAT
; _this$ = ecx

; 106  : 	{ /* CObject does not serialize anything by default */ }

  00000	c2 04 00	 ret	 4
?Serialize@CObject@@UAEXAAVCArchive@@@Z ENDP		; CObject::Serialize
_TEXT	ENDS
; Function compile flags: /Ogtp
; File C:\Program Files (x86)\Microsoft Visual Studio\2019\Community\VC\Tools\MSVC\14.29.30133\atlmfc\include\afx.inl
;	COMDAT ??1CObject@@UAE@XZ
_TEXT	SEGMENT
??1CObject@@UAE@XZ PROC					; CObject::~CObject, COMDAT
; _this$ = ecx

; 104  : 	{ }

  00000	c2 00 00	 ret	 0
??1CObject@@UAE@XZ ENDP					; CObject::~CObject
_TEXT	ENDS
; Function compile flags: /Ogtp
; File C:\Program Files (x86)\Microsoft Visual Studio\2019\Community\VC\Tools\MSVC\14.29.30133\atlmfc\include\afx.h
;	COMDAT ?AfxCrtErrorCheck@@YAHH@Z
_TEXT	SEGMENT
_error$ = 8						; size = 4
?AfxCrtErrorCheck@@YAHH@Z PROC				; AfxCrtErrorCheck, COMDAT

; 503  : {

  00000	55		 push	 ebp
  00001	8b ec		 mov	 ebp, esp

; 504  : 	switch(error)

  00003	8b 4d 08	 mov	 ecx, DWORD PTR _error$[ebp]
  00006	83 f9 50	 cmp	 ecx, 80			; 00000050H
  00009	77 17		 ja	 SHORT $LN9@AfxCrtErro
  0000b	0f b6 81 00 00
	00 00		 movzx	 eax, BYTE PTR $LN11@AfxCrtErro[ecx]
  00012	ff 24 85 00 00
	00 00		 jmp	 DWORD PTR $LN12@AfxCrtErro[eax*4]
$LN4@AfxCrtErro:

; 505  : 	{
; 506  : 	case ENOMEM:
; 507  : 		AfxThrowMemoryException();

  00019	e9 00 00 00 00	 jmp	 ?AfxThrowMemoryException@@YGXXZ ; AfxThrowMemoryException
$LN7@AfxCrtErro:

; 518  : 		break;
; 519  : 	}
; 520  : 	return error;

  0001e	8b c1		 mov	 eax, ecx

; 521  : }

  00020	5d		 pop	 ebp
  00021	c3		 ret	 0
$LN9@AfxCrtErro:

; 508  : 		break;
; 509  : 	case EINVAL:
; 510  : 	case ERANGE:
; 511  : 		AfxThrowInvalidArgException();
; 512  : 		break;
; 513  : 	case STRUNCATE:
; 514  : 	case 0:
; 515  : 		break;
; 516  : 	default:
; 517  : 		AfxThrowInvalidArgException();

  00022	e9 00 00 00 00	 jmp	 ?AfxThrowInvalidArgException@@YGXXZ ; AfxThrowInvalidArgException
  00027	90		 npad	 1
$LN12@AfxCrtErro:

; 521  : }

  00028	00 00 00 00	 DD	 $LN7@AfxCrtErro
  0002c	00 00 00 00	 DD	 $LN4@AfxCrtErro
  00030	00 00 00 00	 DD	 $LN9@AfxCrtErro
  00034	00 00 00 00	 DD	 $LN9@AfxCrtErro
$LN11@AfxCrtErro:
  00038	00		 DB	 0
  00039	03		 DB	 3
  0003a	03		 DB	 3
  0003b	03		 DB	 3
  0003c	03		 DB	 3
  0003d	03		 DB	 3
  0003e	03		 DB	 3
  0003f	03		 DB	 3
  00040	03		 DB	 3
  00041	03		 DB	 3
  00042	03		 DB	 3
  00043	03		 DB	 3
  00044	01		 DB	 1
  00045	03		 DB	 3
  00046	03		 DB	 3
  00047	03		 DB	 3
  00048	03		 DB	 3
  00049	03		 DB	 3
  0004a	03		 DB	 3
  0004b	03		 DB	 3
  0004c	03		 DB	 3
  0004d	03		 DB	 3
  0004e	02		 DB	 2
  0004f	03		 DB	 3
  00050	03		 DB	 3
  00051	03		 DB	 3
  00052	03		 DB	 3
  00053	03		 DB	 3
  00054	03		 DB	 3
  00055	03		 DB	 3
  00056	03		 DB	 3
  00057	03		 DB	 3
  00058	03		 DB	 3
  00059	03		 DB	 3
  0005a	02		 DB	 2
  0005b	03		 DB	 3
  0005c	03		 DB	 3
  0005d	03		 DB	 3
  0005e	03		 DB	 3
  0005f	03		 DB	 3
  00060	03		 DB	 3
  00061	03		 DB	 3
  00062	03		 DB	 3
  00063	03		 DB	 3
  00064	03		 DB	 3
  00065	03		 DB	 3
  00066	03		 DB	 3
  00067	03		 DB	 3
  00068	03		 DB	 3
  00069	03		 DB	 3
  0006a	03		 DB	 3
  0006b	03		 DB	 3
  0006c	03		 DB	 3
  0006d	03		 DB	 3
  0006e	03		 DB	 3
  0006f	03		 DB	 3
  00070	03		 DB	 3
  00071	03		 DB	 3
  00072	03		 DB	 3
  00073	03		 DB	 3
  00074	03		 DB	 3
  00075	03		 DB	 3
  00076	03		 DB	 3
  00077	03		 DB	 3
  00078	03		 DB	 3
  00079	03		 DB	 3
  0007a	03		 DB	 3
  0007b	03		 DB	 3
  0007c	03		 DB	 3
  0007d	03		 DB	 3
  0007e	03		 DB	 3
  0007f	03		 DB	 3
  00080	03		 DB	 3
  00081	03		 DB	 3
  00082	03		 DB	 3
  00083	03		 DB	 3
  00084	03		 DB	 3
  00085	03		 DB	 3
  00086	03		 DB	 3
  00087	03		 DB	 3
  00088	00		 DB	 0
?AfxCrtErrorCheck@@YAHH@Z ENDP				; AfxCrtErrorCheck
_TEXT	ENDS
; Function compile flags: /Ogtp
; File C:\Program Files (x86)\Windows Kits\10\Include\10.0.22000.0\ucrt\stdio.h
;	COMDAT _sscanf
_TEXT	SEGMENT
__Buffer$ = 8						; size = 4
__Format$ = 12						; size = 4
_sscanf	PROC						; COMDAT

; 2247 :     {

  00000	55		 push	 ebp
  00001	8b ec		 mov	 ebp, esp

; 2153 :         return __stdio_common_vsscanf(

  00003	8d 45 10	 lea	 eax, DWORD PTR __Format$[ebp+4]
  00006	50		 push	 eax
  00007	6a 00		 push	 0
  00009	ff 75 0c	 push	 DWORD PTR __Format$[ebp]
  0000c	6a ff		 push	 -1
  0000e	ff 75 08	 push	 DWORD PTR __Buffer$[ebp]
  00011	e8 00 00 00 00	 call	 ___local_stdio_scanf_options
  00016	ff 70 04	 push	 DWORD PTR [eax+4]
  00019	ff 30		 push	 DWORD PTR [eax]
  0001b	ff 15 00 00 00
	00		 call	 DWORD PTR __imp____stdio_common_vsscanf
  00021	83 c4 1c	 add	 esp, 28			; 0000001cH

; 2248 :         int _Result;
; 2249 :         va_list _ArgList;
; 2250 :         __crt_va_start(_ArgList, _Format);
; 2251 :         _Result = _vsscanf_l(_Buffer, _Format, NULL, _ArgList);
; 2252 :         __crt_va_end(_ArgList);
; 2253 :         return _Result;
; 2254 :     }

  00024	5d		 pop	 ebp
  00025	c3		 ret	 0
_sscanf	ENDP
_TEXT	ENDS
; Function compile flags: /Ogtp
; File C:\Program Files (x86)\Windows Kits\10\Include\10.0.22000.0\ucrt\corecrt_stdio_config.h
;	COMDAT ___local_stdio_scanf_options
_TEXT	SEGMENT
___local_stdio_scanf_options PROC			; COMDAT

; 101  :         static unsigned __int64 _OptionsStorage;
; 102  :         return &_OptionsStorage;

  00000	b8 00 00 00 00	 mov	 eax, OFFSET ?_OptionsStorage@?1??__local_stdio_scanf_options@@9@4_KA ; `__local_stdio_scanf_options'::`2'::_OptionsStorage

; 103  :     }

  00005	c3		 ret	 0
___local_stdio_scanf_options ENDP
_TEXT	ENDS
; Function compile flags: /Ogtp
; File D:\git\src\IBK\IBK_DRFN\ProjSrc\SrcDrfn\DrCommon\PartnerMng\_PartnerManager.cpp
;	COMDAT ?__empty_global_delete@@YAXPAXI@Z
_TEXT	SEGMENT
___formal$ = 8						; size = 4
___formal$ = 12						; size = 4
?__empty_global_delete@@YAXPAXI@Z PROC			; __empty_global_delete, COMDAT

  00000	c2 00 00	 ret	 0
?__empty_global_delete@@YAXPAXI@Z ENDP			; __empty_global_delete
_TEXT	ENDS
; Function compile flags: /Ogtp
; File D:\git\src\IBK\IBK_DRFN\ProjSrc\SrcDrfn\DrCommon\PartnerMng\_PartnerManager.cpp
;	COMDAT ?__empty_global_delete@@YAXPAX@Z
_TEXT	SEGMENT
___formal$ = 8						; size = 4
?__empty_global_delete@@YAXPAX@Z PROC			; __empty_global_delete, COMDAT

  00000	c2 00 00	 ret	 0
?__empty_global_delete@@YAXPAX@Z ENDP			; __empty_global_delete
_TEXT	ENDS
END
