; Listing generated by Microsoft (R) Optimizing Compiler Version 19.29.30145.0 

	TITLE	D:\git\src\IBK\IBK_DRFN\#DRfn-CS\_Obj\PartnerMng\ChartItemMarket.obj
	.686P
	.XMM
	include listing.inc
	.model	flat

INCLUDELIB MSVCRT
INCLUDELIB OLDNAMES

PUBLIC	?szSendTypeTitle@@3PAPADA			; szSendTypeTitle
PUBLIC	??_C@_0BL@OECHFEPE@_OrganPureBuyAccumulation_@	; `string'
PUBLIC	??_C@_0P@JAPLGBGJ@_OrganPureBuy_@		; `string'
PUBLIC	??_C@_0BD@CGLPLIKA@_SuspenseContract_@		; `string'
PUBLIC	??_C@_0O@HEEDFHAD@_TotalAmount_@		; `string'
PUBLIC	??_C@_0BB@EGKJFGNN@_ForeignHolding_@		; `string'
PUBLIC	??_C@_0BF@NDNLOCPL@_ForeignHoldingRate_@	; `string'
PUBLIC	??_C@_0BB@GHMGOPJA@_ForeignPureBuy_@		; `string'
PUBLIC	??_C@_0P@OGFDPMKF@_VolumeAmount_@		; `string'
PUBLIC	??_C@_0BE@IAPEEMEF@_KspPureBuy_Person_@		; `string'
PUBLIC	??_C@_0BF@IMKKKIML@_KdqPureBuy_Person_?$DL@	; `string'
PUBLIC	??_C@_0BF@DINOHGBB@_K200PureBuy_Person_@	; `string'
PUBLIC	??_C@_0BE@MKKLEHDA@_FutPureBuy_Person_@		; `string'
PUBLIC	??_C@_0BF@HOCDKDPB@_COptPureBuy_Person_@	; `string'
PUBLIC	??_C@_0BF@DBEMEFBO@_POptPureBuy_Person_@	; `string'
PUBLIC	??_C@_0BG@BABEMLN@_OrganFinancePureBuy_@	; `string'
PUBLIC	??_C@_0BF@JPPGAEFL@_OrganInsurePureBuy_@	; `string'
PUBLIC	??_C@_0BJ@HEFALDAD@_OrganInvestmentPureBuy_@	; `string'
PUBLIC	??_C@_0BD@FEBNECAE@_OrganBankPureBuy_@		; `string'
PUBLIC	??_C@_0BJ@KIPDOAH@_OrganEtcFinancePureBuy_@	; `string'
PUBLIC	??_C@_0BK@CKDMLBFF@_OrganPensionFundPureBuy_@	; `string'
PUBLIC	??_C@_0BG@MBCHIGCB@_OrganEtcCorpPureBuy_@	; `string'
PUBLIC	??_C@_0BM@IEILLOBM@_OrganPrivateEquityPureBuy_@	; `string'
PUBLIC	??_C@_0BG@ODJNOIBN@_OrganCountryPureBuy_@	; `string'
PUBLIC	??_C@_0BL@GHJCKOOK@_OrganFinancePureBuyAccum_@	; `string'
PUBLIC	??_C@_0BK@MBOPCOIG@_OrganInsurePureBuyAccum_@	; `string'
PUBLIC	??_C@_0BO@CJFGNHFK@_OrganInvestmentPureBuyAccum_@ ; `string'
PUBLIC	??_C@_0BI@EIGKEALJ@_OrganBankPureBuyAccum_@	; `string'
PUBLIC	??_C@_0BO@PEIMDJAJ@_OrganEtcFinancePureBuyAccum_@ ; `string'
PUBLIC	??_C@_0BP@FBPJGHCE@_OrganPensionFundPureBuyAccum_@ ; `string'
PUBLIC	??_C@_0BL@JNKOIHIF@_OrganEtcCorpPureBuyAccum_@	; `string'
PUBLIC	??_C@_0CB@KMOMDELI@_OrganPrivateEquityPureBuyAccum@ ; `string'
PUBLIC	??_C@_0BL@ENPNGPNE@_OrganCountryPureBuyAccum_@	; `string'
PUBLIC	??_C@_05IGKDGPNC@_ADL_@				; `string'
PUBLIC	??_C@_05JABLOBKI@_ADR_@				; `string'
PUBLIC	??_C@_0P@BKKCOCLK@RMSG_INTERFACE@		; `string'
PUBLIC	??_C@_0BB@GOOPDKI@RMSG_GETPCTRDATA@		; `string'
PUBLIC	??_C@_0BB@JPACFCL@RMSG_SETPCTRDATA@		; `string'
PUBLIC	??_C@_0BE@FJPKENOB@RMSG_GETSIGNAL_REAL@		; `string'
;	COMDAT ??_C@_0BE@FJPKENOB@RMSG_GETSIGNAL_REAL@
CONST	SEGMENT
??_C@_0BE@FJPKENOB@RMSG_GETSIGNAL_REAL@ DB 'RMSG_GETSIGNAL_REAL', 00H ; `string'
CONST	ENDS
;	COMDAT ??_C@_0BB@JPACFCL@RMSG_SETPCTRDATA@
CONST	SEGMENT
??_C@_0BB@JPACFCL@RMSG_SETPCTRDATA@ DB 'RMSG_SETPCTRDATA', 00H ; `string'
CONST	ENDS
;	COMDAT ??_C@_0BB@GOOPDKI@RMSG_GETPCTRDATA@
CONST	SEGMENT
??_C@_0BB@GOOPDKI@RMSG_GETPCTRDATA@ DB 'RMSG_GETPCTRDATA', 00H ; `string'
CONST	ENDS
;	COMDAT ??_C@_0P@BKKCOCLK@RMSG_INTERFACE@
CONST	SEGMENT
??_C@_0P@BKKCOCLK@RMSG_INTERFACE@ DB 'RMSG_INTERFACE', 00H ; `string'
CONST	ENDS
;	COMDAT ??_C@_05JABLOBKI@_ADR_@
CONST	SEGMENT
??_C@_05JABLOBKI@_ADR_@ DB '_ADR_', 00H			; `string'
CONST	ENDS
;	COMDAT ??_C@_05IGKDGPNC@_ADL_@
CONST	SEGMENT
??_C@_05IGKDGPNC@_ADL_@ DB '_ADL_', 00H			; `string'
CONST	ENDS
;	COMDAT ??_C@_0BL@ENPNGPNE@_OrganCountryPureBuyAccum_@
CONST	SEGMENT
??_C@_0BL@ENPNGPNE@_OrganCountryPureBuyAccum_@ DB '_OrganCountryPureBuyAc'
	DB	'cum_', 00H					; `string'
CONST	ENDS
;	COMDAT ??_C@_0CB@KMOMDELI@_OrganPrivateEquityPureBuyAccum@
CONST	SEGMENT
??_C@_0CB@KMOMDELI@_OrganPrivateEquityPureBuyAccum@ DB '_OrganPrivateEqui'
	DB	'tyPureBuyAccum_', 00H			; `string'
CONST	ENDS
;	COMDAT ??_C@_0BL@JNKOIHIF@_OrganEtcCorpPureBuyAccum_@
CONST	SEGMENT
??_C@_0BL@JNKOIHIF@_OrganEtcCorpPureBuyAccum_@ DB '_OrganEtcCorpPureBuyAc'
	DB	'cum_', 00H					; `string'
CONST	ENDS
;	COMDAT ??_C@_0BP@FBPJGHCE@_OrganPensionFundPureBuyAccum_@
CONST	SEGMENT
??_C@_0BP@FBPJGHCE@_OrganPensionFundPureBuyAccum_@ DB '_OrganPensionFundP'
	DB	'ureBuyAccum_', 00H				; `string'
CONST	ENDS
;	COMDAT ??_C@_0BO@PEIMDJAJ@_OrganEtcFinancePureBuyAccum_@
CONST	SEGMENT
??_C@_0BO@PEIMDJAJ@_OrganEtcFinancePureBuyAccum_@ DB '_OrganEtcFinancePur'
	DB	'eBuyAccum_', 00H				; `string'
CONST	ENDS
;	COMDAT ??_C@_0BI@EIGKEALJ@_OrganBankPureBuyAccum_@
CONST	SEGMENT
??_C@_0BI@EIGKEALJ@_OrganBankPureBuyAccum_@ DB '_OrganBankPureBuyAccum_', 00H ; `string'
CONST	ENDS
;	COMDAT ??_C@_0BO@CJFGNHFK@_OrganInvestmentPureBuyAccum_@
CONST	SEGMENT
??_C@_0BO@CJFGNHFK@_OrganInvestmentPureBuyAccum_@ DB '_OrganInvestmentPur'
	DB	'eBuyAccum_', 00H				; `string'
CONST	ENDS
;	COMDAT ??_C@_0BK@MBOPCOIG@_OrganInsurePureBuyAccum_@
CONST	SEGMENT
??_C@_0BK@MBOPCOIG@_OrganInsurePureBuyAccum_@ DB '_OrganInsurePureBuyAccu'
	DB	'm_', 00H					; `string'
CONST	ENDS
;	COMDAT ??_C@_0BL@GHJCKOOK@_OrganFinancePureBuyAccum_@
CONST	SEGMENT
??_C@_0BL@GHJCKOOK@_OrganFinancePureBuyAccum_@ DB '_OrganFinancePureBuyAc'
	DB	'cum_', 00H					; `string'
CONST	ENDS
;	COMDAT ??_C@_0BG@ODJNOIBN@_OrganCountryPureBuy_@
CONST	SEGMENT
??_C@_0BG@ODJNOIBN@_OrganCountryPureBuy_@ DB '_OrganCountryPureBuy_', 00H ; `string'
CONST	ENDS
;	COMDAT ??_C@_0BM@IEILLOBM@_OrganPrivateEquityPureBuy_@
CONST	SEGMENT
??_C@_0BM@IEILLOBM@_OrganPrivateEquityPureBuy_@ DB '_OrganPrivateEquityPu'
	DB	'reBuy_', 00H				; `string'
CONST	ENDS
;	COMDAT ??_C@_0BG@MBCHIGCB@_OrganEtcCorpPureBuy_@
CONST	SEGMENT
??_C@_0BG@MBCHIGCB@_OrganEtcCorpPureBuy_@ DB '_OrganEtcCorpPureBuy_', 00H ; `string'
CONST	ENDS
;	COMDAT ??_C@_0BK@CKDMLBFF@_OrganPensionFundPureBuy_@
CONST	SEGMENT
??_C@_0BK@CKDMLBFF@_OrganPensionFundPureBuy_@ DB '_OrganPensionFundPureBu'
	DB	'y_', 00H					; `string'
CONST	ENDS
;	COMDAT ??_C@_0BJ@KIPDOAH@_OrganEtcFinancePureBuy_@
CONST	SEGMENT
??_C@_0BJ@KIPDOAH@_OrganEtcFinancePureBuy_@ DB '_OrganEtcFinancePureBuy_', 00H ; `string'
CONST	ENDS
;	COMDAT ??_C@_0BD@FEBNECAE@_OrganBankPureBuy_@
CONST	SEGMENT
??_C@_0BD@FEBNECAE@_OrganBankPureBuy_@ DB '_OrganBankPureBuy_', 00H ; `string'
CONST	ENDS
;	COMDAT ??_C@_0BJ@HEFALDAD@_OrganInvestmentPureBuy_@
CONST	SEGMENT
??_C@_0BJ@HEFALDAD@_OrganInvestmentPureBuy_@ DB '_OrganInvestmentPureBuy_'
	DB	00H						; `string'
CONST	ENDS
;	COMDAT ??_C@_0BF@JPPGAEFL@_OrganInsurePureBuy_@
CONST	SEGMENT
??_C@_0BF@JPPGAEFL@_OrganInsurePureBuy_@ DB '_OrganInsurePureBuy_', 00H ; `string'
CONST	ENDS
;	COMDAT ??_C@_0BG@BABEMLN@_OrganFinancePureBuy_@
CONST	SEGMENT
??_C@_0BG@BABEMLN@_OrganFinancePureBuy_@ DB '_OrganFinancePureBuy_', 00H ; `string'
CONST	ENDS
;	COMDAT ??_C@_0BF@DBEMEFBO@_POptPureBuy_Person_@
CONST	SEGMENT
??_C@_0BF@DBEMEFBO@_POptPureBuy_Person_@ DB '_POptPureBuy_Person_', 00H ; `string'
CONST	ENDS
;	COMDAT ??_C@_0BF@HOCDKDPB@_COptPureBuy_Person_@
CONST	SEGMENT
??_C@_0BF@HOCDKDPB@_COptPureBuy_Person_@ DB '_COptPureBuy_Person_', 00H ; `string'
CONST	ENDS
;	COMDAT ??_C@_0BE@MKKLEHDA@_FutPureBuy_Person_@
CONST	SEGMENT
??_C@_0BE@MKKLEHDA@_FutPureBuy_Person_@ DB '_FutPureBuy_Person_', 00H ; `string'
CONST	ENDS
;	COMDAT ??_C@_0BF@DINOHGBB@_K200PureBuy_Person_@
CONST	SEGMENT
??_C@_0BF@DINOHGBB@_K200PureBuy_Person_@ DB '_K200PureBuy_Person_', 00H ; `string'
CONST	ENDS
;	COMDAT ??_C@_0BF@IMKKKIML@_KdqPureBuy_Person_?$DL@
CONST	SEGMENT
??_C@_0BF@IMKKKIML@_KdqPureBuy_Person_?$DL@ DB '_KdqPureBuy_Person_;', 00H ; `string'
CONST	ENDS
;	COMDAT ??_C@_0BE@IAPEEMEF@_KspPureBuy_Person_@
CONST	SEGMENT
??_C@_0BE@IAPEEMEF@_KspPureBuy_Person_@ DB '_KspPureBuy_Person_', 00H ; `string'
CONST	ENDS
;	COMDAT ??_C@_0P@OGFDPMKF@_VolumeAmount_@
CONST	SEGMENT
??_C@_0P@OGFDPMKF@_VolumeAmount_@ DB '_VolumeAmount_', 00H ; `string'
CONST	ENDS
;	COMDAT ??_C@_0BB@GHMGOPJA@_ForeignPureBuy_@
CONST	SEGMENT
??_C@_0BB@GHMGOPJA@_ForeignPureBuy_@ DB '_ForeignPureBuy_', 00H ; `string'
CONST	ENDS
;	COMDAT ??_C@_0BF@NDNLOCPL@_ForeignHoldingRate_@
CONST	SEGMENT
??_C@_0BF@NDNLOCPL@_ForeignHoldingRate_@ DB '_ForeignHoldingRate_', 00H ; `string'
CONST	ENDS
;	COMDAT ??_C@_0BB@EGKJFGNN@_ForeignHolding_@
CONST	SEGMENT
??_C@_0BB@EGKJFGNN@_ForeignHolding_@ DB '_ForeignHolding_', 00H ; `string'
CONST	ENDS
;	COMDAT ??_C@_0O@HEEDFHAD@_TotalAmount_@
CONST	SEGMENT
??_C@_0O@HEEDFHAD@_TotalAmount_@ DB '_TotalAmount_', 00H ; `string'
CONST	ENDS
;	COMDAT ??_C@_0BD@CGLPLIKA@_SuspenseContract_@
CONST	SEGMENT
??_C@_0BD@CGLPLIKA@_SuspenseContract_@ DB '_SuspenseContract_', 00H ; `string'
CONST	ENDS
;	COMDAT ??_C@_0P@JAPLGBGJ@_OrganPureBuy_@
CONST	SEGMENT
??_C@_0P@JAPLGBGJ@_OrganPureBuy_@ DB '_OrganPureBuy_', 00H ; `string'
CONST	ENDS
;	COMDAT ??_C@_0BL@OECHFEPE@_OrganPureBuyAccumulation_@
CONST	SEGMENT
??_C@_0BL@OECHFEPE@_OrganPureBuyAccumulation_@ DB '_OrganPureBuyAccumulat'
	DB	'ion_', 00H					; `string'
CONST	ENDS
_DATA	SEGMENT
?szSendTypeTitle@@3PAPADA DD FLAT:??_C@_0BL@OECHFEPE@_OrganPureBuyAccumulation_@ ; szSendTypeTitle
	DD	FLAT:??_C@_0P@JAPLGBGJ@_OrganPureBuy_@
	DD	FLAT:??_C@_0BD@CGLPLIKA@_SuspenseContract_@
	DD	FLAT:??_C@_0O@HEEDFHAD@_TotalAmount_@
	DD	FLAT:??_C@_0BB@EGKJFGNN@_ForeignHolding_@
	DD	FLAT:??_C@_0BF@NDNLOCPL@_ForeignHoldingRate_@
	DD	FLAT:??_C@_0BB@GHMGOPJA@_ForeignPureBuy_@
	DD	FLAT:??_C@_0P@OGFDPMKF@_VolumeAmount_@
	DD	FLAT:??_C@_0BE@IAPEEMEF@_KspPureBuy_Person_@
	DD	FLAT:??_C@_0BF@IMKKKIML@_KdqPureBuy_Person_?$DL@
	DD	FLAT:??_C@_0BF@DINOHGBB@_K200PureBuy_Person_@
	DD	FLAT:??_C@_0BE@MKKLEHDA@_FutPureBuy_Person_@
	DD	FLAT:??_C@_0BF@HOCDKDPB@_COptPureBuy_Person_@
	DD	FLAT:??_C@_0BF@DBEMEFBO@_POptPureBuy_Person_@
	DD	FLAT:??_C@_0BG@BABEMLN@_OrganFinancePureBuy_@
	DD	FLAT:??_C@_0BF@JPPGAEFL@_OrganInsurePureBuy_@
	DD	FLAT:??_C@_0BJ@HEFALDAD@_OrganInvestmentPureBuy_@
	DD	FLAT:??_C@_0BD@FEBNECAE@_OrganBankPureBuy_@
	DD	FLAT:??_C@_0BJ@KIPDOAH@_OrganEtcFinancePureBuy_@
	DD	FLAT:??_C@_0BK@CKDMLBFF@_OrganPensionFundPureBuy_@
	DD	FLAT:??_C@_0BG@MBCHIGCB@_OrganEtcCorpPureBuy_@
	DD	FLAT:??_C@_0BM@IEILLOBM@_OrganPrivateEquityPureBuy_@
	DD	FLAT:??_C@_0BG@ODJNOIBN@_OrganCountryPureBuy_@
	DD	FLAT:??_C@_0BL@GHJCKOOK@_OrganFinancePureBuyAccum_@
	DD	FLAT:??_C@_0BK@MBOPCOIG@_OrganInsurePureBuyAccum_@
	DD	FLAT:??_C@_0BO@CJFGNHFK@_OrganInvestmentPureBuyAccum_@
	DD	FLAT:??_C@_0BI@EIGKEALJ@_OrganBankPureBuyAccum_@
	DD	FLAT:??_C@_0BO@PEIMDJAJ@_OrganEtcFinancePureBuyAccum_@
	DD	FLAT:??_C@_0BP@FBPJGHCE@_OrganPensionFundPureBuyAccum_@
	DD	FLAT:??_C@_0BL@JNKOIHIF@_OrganEtcCorpPureBuyAccum_@
	DD	FLAT:??_C@_0CB@KMOMDELI@_OrganPrivateEquityPureBuyAccum@
	DD	FLAT:??_C@_0BL@ENPNGPNE@_OrganCountryPureBuyAccum_@
	DD	FLAT:??_C@_05IGKDGPNC@_ADL_@
	DD	FLAT:??_C@_05JABLOBKI@_ADR_@
	DD	00H
_DATA	ENDS
PUBLIC	?__empty_global_delete@@YAXPAX@Z		; __empty_global_delete
PUBLIC	?__empty_global_delete@@YAXPAXI@Z		; __empty_global_delete
PUBLIC	___local_stdio_printf_options
PUBLIC	_sprintf
PUBLIC	??1CObject@@UAE@XZ				; CObject::~CObject
PUBLIC	?Serialize@CObject@@UAEXAAVCArchive@@@Z		; CObject::Serialize
PUBLIC	?AssertValid@CObject@@UBEXXZ			; CObject::AssertValid
PUBLIC	?Dump@CObject@@UBEXAAVCDumpContext@@@Z		; CObject::Dump
PUBLIC	?Copy@CChartBozoInput@@UAEXABV1@@Z		; CChartBozoInput::Copy
PUBLIC	??4CChartBozoInput@@UAEAAV0@ABV0@@Z		; CChartBozoInput::operator=
PUBLIC	??1CChartBozoInput@@QAE@XZ			; CChartBozoInput::~CChartBozoInput
PUBLIC	??0CChartItemMarket@@QAE@XZ			; CChartItemMarket::CChartItemMarket
PUBLIC	??1CChartItemMarket@@UAE@XZ			; CChartItemMarket::~CChartItemMarket
PUBLIC	?SetInData@CChartItemMarket@@QAEXPAUKB_d1015_InRec1@@@Z ; CChartItemMarket::SetInData
PUBLIC	?Convert@CChartItemMarket@@QAE?AV?$CStringT@DV?$StrTraitMFC_DLL@DV?$ChTraitsCRT@D@ATL@@@@@ATL@@XZ ; CChartItemMarket::Convert
PUBLIC	?Convert2Struct@CChartItemMarket@@QAEPADPAEHHAAH@Z ; CChartItemMarket::Convert2Struct
PUBLIC	?GetSendDataType@CChartItemMarket@@QAEHXZ	; CChartItemMarket::GetSendDataType
PUBLIC	?GetSendDataType@CChartItemMarket@@QAE?AV?$CStringT@DV?$StrTraitMFC_DLL@DV?$ChTraitsCRT@D@ATL@@@@@ATL@@H@Z ; CChartItemMarket::GetSendDataType
PUBLIC	?fnStructType1@CChartItemMarket@@QAE?AV?$CStringT@DV?$StrTraitMFC_DLL@DV?$ChTraitsCRT@D@ATL@@@@@ATL@@V23@H@Z ; CChartItemMarket::fnStructType1
PUBLIC	?fnStructType2@CChartItemMarket@@QAE?AV?$CStringT@DV?$StrTraitMFC_DLL@DV?$ChTraitsCRT@D@ATL@@@@@ATL@@V23@H@Z ; CChartItemMarket::fnStructType2
PUBLIC	?MakeDataOfSuspensSeContract@CChartItemMarket@@IAEXAAV?$CStringT@DV?$StrTraitMFC_DLL@DV?$ChTraitsCRT@D@ATL@@@@@ATL@@PAVCStringArray@@@Z ; CChartItemMarket::MakeDataOfSuspensSeContract
PUBLIC	??_GCChartItemMarket@@UAEPAXI@Z			; CChartItemMarket::`scalar deleting destructor'
PUBLIC	??0?$CList@PAVCChartBozoItem@@PAV1@@@QAE@H@Z	; CList<CChartBozoItem *,CChartBozoItem *>::CList<CChartBozoItem *,CChartBozoItem *>
PUBLIC	?AddTail@?$CList@PAVCChartBozoItem@@PAV1@@@QAEPAU__POSITION@@PAVCChartBozoItem@@@Z ; CList<CChartBozoItem *,CChartBozoItem *>::AddTail
PUBLIC	?RemoveAll@?$CList@PAVCChartBozoItem@@PAV1@@@QAEXXZ ; CList<CChartBozoItem *,CChartBozoItem *>::RemoveAll
PUBLIC	?NewNode@?$CList@PAVCChartBozoItem@@PAV1@@@IAEPAUCNode@1@PAU21@0@Z ; CList<CChartBozoItem *,CChartBozoItem *>::NewNode
PUBLIC	??1?$CList@PAVCChartBozoItem@@PAV1@@@UAE@XZ	; CList<CChartBozoItem *,CChartBozoItem *>::~CList<CChartBozoItem *,CChartBozoItem *>
PUBLIC	?Serialize@?$CList@PAVCChartBozoItem@@PAV1@@@UAEXAAVCArchive@@@Z ; CList<CChartBozoItem *,CChartBozoItem *>::Serialize
PUBLIC	??_G?$CList@PAVCChartBozoItem@@PAV1@@@UAEPAXI@Z	; CList<CChartBozoItem *,CChartBozoItem *>::`scalar deleting destructor'
PUBLIC	??$SerializeElements@PAVCChartBozoItem@@@@YGXAAVCArchive@@PAPAVCChartBozoItem@@H@Z ; SerializeElements<CChartBozoItem *>
PUBLIC	?_OptionsStorage@?1??__local_stdio_printf_options@@9@4_KA ; `__local_stdio_printf_options'::`2'::_OptionsStorage
PUBLIC	??_C@_02DPKJAMEF@?$CFd@				; `string'
PUBLIC	??_C@_00CNPNBAHC@@				; `string'
PUBLIC	??_R0?AVCObject@@@8				; CObject `RTTI Type Descriptor'
PUBLIC	??_R3CObject@@8					; CObject::`RTTI Class Hierarchy Descriptor'
PUBLIC	??_R2CObject@@8					; CObject::`RTTI Base Class Array'
PUBLIC	??_R1A@?0A@EA@CObject@@8			; CObject::`RTTI Base Class Descriptor at (0,-1,0,64)'
PUBLIC	??_7CChartBozoInput@@6B@			; CChartBozoInput::`vftable'
PUBLIC	??_7CChartItemMarket@@6B@			; CChartItemMarket::`vftable'
PUBLIC	??_C@_0BC@FAJJAKC@_Foreign?5Holding_@		; `string'
PUBLIC	??_C@_0BH@KNFHMKMA@_Foreign?5Holding?5Rate_@	; `string'
PUBLIC	??_C@_0BD@CNJJJHHG@_Foreign?5Pure?5Buy_@	; `string'
PUBLIC	??_C@_0BN@HHAODJDD@_ForeignPureBuyAccumulation_@ ; `string'
PUBLIC	??_C@_0BO@MJBECKCF@_Person?5PureBuy?5Accumulation_@ ; `string'
PUBLIC	??_C@_0BB@LFJOBAIN@_Person?5PureBuy_@		; `string'
PUBLIC	??_C@_0BE@LNCNOHPK@_CreditBalanceRate_@		; `string'
PUBLIC	??_C@_0BD@JGMOOODK@_CreditGivingRate_@		; `string'
PUBLIC	??_C@_0BD@GGNHDKMC@_CreditBalanceQty_@		; `string'
PUBLIC	??_C@_0BJ@FMFMOPHM@_CreditBalanceVariation_@	; `string'
PUBLIC	??_C@_0BH@FJOFJJFH@_Foreign?$CLOrganPureBuy_@	; `string'
PUBLIC	??_C@_0CD@HDMDDIP@_Foreign?$CLOrganPureBuyAccumulati@ ; `string'
PUBLIC	??_C@_02DKCKIIND@?$CFs@				; `string'
PUBLIC	??_C@_04OCCELDNI@?$CF04d@			; `string'
PUBLIC	??_C@_04KFDECMLJ@1301@				; `string'
PUBLIC	??_C@_05OOAIAHCC@?$DP5500@			; `string'
PUBLIC	??_C@_0P@FLGGHACJ@99999999999999@		; `string'
PUBLIC	??_C@_04COEHKKFC@5324@				; `string'
PUBLIC	??_C@_05OGIKHPIO@?$CF8?48s@			; `string'
PUBLIC	??_C@_04OBKAGHLG@?$CF06d@			; `string'
PUBLIC	??_C@_04PEJMDNKC@?$CF0?$CKd@			; `string'
PUBLIC	??_C@_05JLGGNMKB@21301@				; `string'
PUBLIC	??_C@_06CABDLPJK@?$DP25500@			; `string'
PUBLIC	??_C@_05BABFFKEK@25324@				; `string'
PUBLIC	??_C@_04HLJJNJLK@5302@				; `string'
PUBLIC	??_C@_04FPDAOMFB@5512@				; `string'
PUBLIC	??_C@_04OHIMILDE@5412@				; `string'
PUBLIC	??_C@_05BNAGMOKB@35201@				; `string'
PUBLIC	??_C@_04GGAPJEEJ@5363@				; `string'
PUBLIC	??_C@_04GHMNPOHO@5373@				; `string'
PUBLIC	??_C@_04MMKBNIPH@5411@				; `string'
PUBLIC	??_C@_04HEBNLPJC@5511@				; `string'
PUBLIC	??_C@_04KEBNGOOM@5508@				; `string'
PUBLIC	??_C@_04BMKBAJIJ@5408@				; `string'
PUBLIC	??_C@_04MNGDLCMA@5401@				; `string'
PUBLIC	??_C@_04OGEOOBAD@5402@				; `string'
PUBLIC	??_C@_04PPFFNAEC@5403@				; `string'
PUBLIC	??_C@_04LABEEGIF@5404@				; `string'
PUBLIC	??_C@_04KJAPHHME@5405@				; `string'
PUBLIC	??_C@_04ICCCCEAH@5406@				; `string'
PUBLIC	??_C@_04JLDJBFEG@5407@				; `string'
PUBLIC	??_C@_04FLKDIMI@5409@				; `string'
PUBLIC	??_C@_04POJHLKHF@5413@				; `string'
PUBLIC	??_C@_04HFNPNFKF@5501@				; `string'
PUBLIC	??_C@_04FOPCIGGG@5502@				; `string'
PUBLIC	??_C@_04EHOJLHCH@5503@				; `string'
PUBLIC	??_C@_04IKICBOA@5504@				; `string'
PUBLIC	??_C@_04BBLDBAKB@5505@				; `string'
PUBLIC	??_C@_04DKJOEDGC@5506@				; `string'
PUBLIC	??_C@_04CDIFHCCD@5507@				; `string'
PUBLIC	??_C@_04LNAGFPKN@5509@				; `string'
PUBLIC	??_C@_04EGCLNNBA@5513@				; `string'
PUBLIC	??_C@_05EFMLCJKC@25302@				; `string'
PUBLIC	??_C@_05HCBFNJJA@25602@				; `string'
PUBLIC	??_C@_05GLAOOINB@25603@				; `string'
PUBLIC	??_C@_04GHGKHKEL@5601@				; `string'
PUBLIC	??_C@_04EMEHCJII@5602@				; `string'
PUBLIC	??_C@_04FFFMBIMJ@5603@				; `string'
PUBLIC	??_C@_04BKBNIOAO@5604@				; `string'
PUBLIC	??_C@_04LBNGCMLC@5414@				; `string'
PUBLIC	??_C@_04JGKELNH@5514@				; `string'
PUBLIC	??_C@_03MMKGDKGA@001@				; `string'
PUBLIC	??_C@_03GGKPPCOL@201@				; `string'
PUBLIC	??_C@_03HEBKFNAF@101@				; `string'
PUBLIC	??_C@_04DPENKPPD@9101@				; `string'
PUBLIC	??_C@_04CNPIAABN@9201@				; `string'
PUBLIC	??_C@_04JFEEGHHI@9301@				; `string'
PUBLIC	??_C@_06BJEALFB@105301@				; `string'
PUBLIC	??_C@_06EONFJNJG@105306@			; `string'
PUBLIC	??_C@_01BMBHCPLG@5@				; `string'
PUBLIC	??_C@_06MJENIBFJ@105309@			; `string'
PUBLIC	??_C@_07KLOBMMKO@$105610@			; `string'
PUBLIC	??_C@_06CKLJFIJC@105302@			; `string'
PUBLIC	??_C@_06NBJENKCP@105318@			; `string'
PUBLIC	??_C@_06MIIPOLGO@105319@			; `string'
PUBLIC	??_C@_06BJENFACH@105310@			; `string'
PUBLIC	??_7?$CList@PAVCChartBozoItem@@PAV1@@@6B@	; CList<CChartBozoItem *,CChartBozoItem *>::`vftable'
PUBLIC	??_C@_04EBNJJJJI@?$CF?4?$CKs@			; `string'
PUBLIC	??_C@_01ICJEACDI@?$DL@				; `string'
PUBLIC	??_C@_04ODOGNJOP@?$CF05d@			; `string'
PUBLIC	??_C@_0CC@NIHFHGCD@_Foreign?5Holding?5Rate___DateTim@ ; `string'
PUBLIC	??_C@_0BP@LBCFJFLL@_CreditBalanceRate___DateTime_@ ; `string'
PUBLIC	??_C@_0BO@ELDOFBCP@_CreditGivingRate___DateTime_@ ; `string'
PUBLIC	??_C@_02NJPGOMH@?$CFf@				; `string'
PUBLIC	??_C@_01GBGANLPD@0@				; `string'
PUBLIC	??_C@_01HIHLOKLC@1@				; `string'
PUBLIC	??_C@_01FDFGLJHB@2@				; `string'
PUBLIC	??_C@_04OHGLKFFN@?$CF03d@			; `string'
PUBLIC	??_C@_0BO@PCAEEPDH@?$CF?4?$CKs?38?3YYYYMMDD?$HM?$CF?4?$CKs?315?3x0?401@ ; `string'
PUBLIC	??_C@_0BL@OOBDJKFI@?$CF?4?$CKs?38?3YYYYMMDD?$HM?$CF?4?$CKs?315?3x1@ ; `string'
PUBLIC	??_C@_09ELPBAGKN@NEWPACKET@			; `string'
PUBLIC	??_C@_0DB@LIAKHBHP@?$CF?4?$CKs?38?3YYYYMMDD?$HM?$CF?4?$CKs?315?3x1?$HM?$CF?4?$CKs@ ; `string'
PUBLIC	??_C@_05GNFKCGLE@30301@				; `string'
PUBLIC	??_C@_06MBJFGIDG@103306@			; `string'
PUBLIC	??_C@_06FPBGEFLI@103308@			; `string'
PUBLIC	??_C@_07CEKBDJAO@$103610@			; `string'
PUBLIC	??_C@_06KFPJKNDC@103302@			; `string'
PUBLIC	??_C@_06DGGIJJJE@103201@			; `string'
PUBLIC	??_R4?$CList@PAVCChartBozoItem@@PAV1@@@6B@	; CList<CChartBozoItem *,CChartBozoItem *>::`RTTI Complete Object Locator'
PUBLIC	??_R0?AV?$CList@PAVCChartBozoItem@@PAV1@@@@8	; CList<CChartBozoItem *,CChartBozoItem *> `RTTI Type Descriptor'
PUBLIC	??_R3?$CList@PAVCChartBozoItem@@PAV1@@@8	; CList<CChartBozoItem *,CChartBozoItem *>::`RTTI Class Hierarchy Descriptor'
PUBLIC	??_R2?$CList@PAVCChartBozoItem@@PAV1@@@8	; CList<CChartBozoItem *,CChartBozoItem *>::`RTTI Base Class Array'
PUBLIC	??_R1A@?0A@EA@?$CList@PAVCChartBozoItem@@PAV1@@@8 ; CList<CChartBozoItem *,CChartBozoItem *>::`RTTI Base Class Descriptor at (0,-1,0,64)'
PUBLIC	??_R4CChartBozoInput@@6B@			; CChartBozoInput::`RTTI Complete Object Locator'
PUBLIC	??_R0?AVCChartBozoInput@@@8			; CChartBozoInput `RTTI Type Descriptor'
PUBLIC	??_R3CChartBozoInput@@8				; CChartBozoInput::`RTTI Class Hierarchy Descriptor'
PUBLIC	??_R2CChartBozoInput@@8				; CChartBozoInput::`RTTI Base Class Array'
PUBLIC	??_R1A@?0A@EA@CChartBozoInput@@8		; CChartBozoInput::`RTTI Base Class Descriptor at (0,-1,0,64)'
PUBLIC	??_R4CChartItemMarket@@6B@			; CChartItemMarket::`RTTI Complete Object Locator'
PUBLIC	??_R0?AVCChartItemMarket@@@8			; CChartItemMarket `RTTI Type Descriptor'
PUBLIC	??_R3CChartItemMarket@@8			; CChartItemMarket::`RTTI Class Hierarchy Descriptor'
PUBLIC	??_R2CChartItemMarket@@8			; CChartItemMarket::`RTTI Base Class Array'
PUBLIC	??_R1A@?0A@EA@CChartItemMarket@@8		; CChartItemMarket::`RTTI Base Class Descriptor at (0,-1,0,64)'
PUBLIC	__real@4059000000000000
PUBLIC	__xmm@20202020202020202020202020202020
EXTRN	??2@YAPAXI@Z:PROC				; operator new
EXTRN	??3@YAXPAX@Z:PROC				; operator delete
EXTRN	??3@YAXPAXI@Z:PROC				; operator delete
EXTRN	?__global_delete@@YAXPAXI@Z:PROC		; __global_delete
EXTRN	??_U@YAPAXI@Z:PROC				; operator new[]
EXTRN	___std_terminate:PROC
EXTRN	__imp__RegisterWindowMessageA@4:PROC
EXTRN	__imp____stdio_common_vsprintf:PROC
EXTRN	__imp__atoi:PROC
EXTRN	?AfxThrowInvalidArgException@@YGXXZ:PROC	; AfxThrowInvalidArgException
EXTRN	?AfxThrowArchiveException@@YGXHPBD@Z:PROC	; AfxThrowArchiveException
EXTRN	?GetRuntimeClass@CObject@@UBEPAUCRuntimeClass@@XZ:PROC ; CObject::GetRuntimeClass
EXTRN	__imp_?Concatenate@?$CSimpleStringT@D$00@ATL@@KAXAAV12@PBDH1H@Z:PROC
EXTRN	__imp_??0?$CStringT@DV?$StrTraitMFC_DLL@DV?$ChTraitsCRT@D@ATL@@@@@ATL@@QAE@XZ:PROC
EXTRN	__imp_??0?$CStringT@DV?$StrTraitMFC_DLL@DV?$ChTraitsCRT@D@ATL@@@@@ATL@@QAE@PAUIAtlStringMgr@1@@Z:PROC
EXTRN	__imp_??0?$CStringT@DV?$StrTraitMFC_DLL@DV?$ChTraitsCRT@D@ATL@@@@@ATL@@QAE@ABV01@@Z:PROC
EXTRN	__imp_??0?$CStringT@DV?$StrTraitMFC_DLL@DV?$ChTraitsCRT@D@ATL@@@@@ATL@@QAE@PBD@Z:PROC
EXTRN	__imp_??0?$CStringT@DV?$StrTraitMFC_DLL@DV?$ChTraitsCRT@D@ATL@@@@@ATL@@QAE@DH@Z:PROC
EXTRN	__imp_??0?$CStringT@DV?$StrTraitMFC_DLL@DV?$ChTraitsCRT@D@ATL@@@@@ATL@@QAE@PBDH@Z:PROC
EXTRN	__imp_??1?$CStringT@DV?$StrTraitMFC_DLL@DV?$ChTraitsCRT@D@ATL@@@@@ATL@@QAE@XZ:PROC
EXTRN	__imp_??4?$CStringT@DV?$StrTraitMFC_DLL@DV?$ChTraitsCRT@D@ATL@@@@@ATL@@QAEAAV01@ABV01@@Z:PROC
EXTRN	__imp_??4?$CStringT@DV?$StrTraitMFC_DLL@DV?$ChTraitsCRT@D@ATL@@@@@ATL@@QAEAAV01@PBD@Z:PROC
EXTRN	__imp_??4?$CStringT@DV?$StrTraitMFC_DLL@DV?$ChTraitsCRT@D@ATL@@@@@ATL@@QAEAAV01@D@Z:PROC
EXTRN	__imp_??Y?$CStringT@DV?$StrTraitMFC_DLL@DV?$ChTraitsCRT@D@ATL@@@@@ATL@@QAEAAV01@ABV?$CSimpleStringT@D$00@1@@Z:PROC
EXTRN	__imp_??Y?$CStringT@DV?$StrTraitMFC_DLL@DV?$ChTraitsCRT@D@ATL@@@@@ATL@@QAEAAV01@PBD@Z:PROC
EXTRN	__imp_??Y?$CStringT@DV?$StrTraitMFC_DLL@DV?$ChTraitsCRT@D@ATL@@@@@ATL@@QAEAAV01@D@Z:PROC
EXTRN	__imp_?GetManager@?$CStringT@DV?$StrTraitMFC_DLL@DV?$ChTraitsCRT@D@ATL@@@@@ATL@@QBEPAUIAtlStringMgr@2@XZ:PROC
EXTRN	__imp_?Compare@?$CStringT@DV?$StrTraitMFC_DLL@DV?$ChTraitsCRT@D@ATL@@@@@ATL@@QBEHPBD@Z:PROC
EXTRN	__imp_?Find@?$CStringT@DV?$StrTraitMFC_DLL@DV?$ChTraitsCRT@D@ATL@@@@@ATL@@QBEHPBDH@Z:PROC
EXTRN	__imp_?TrimRight@?$CStringT@DV?$StrTraitMFC_DLL@DV?$ChTraitsCRT@D@ATL@@@@@ATL@@QAEAAV12@XZ:PROC
EXTRN	__imp_?TrimLeft@?$CStringT@DV?$StrTraitMFC_DLL@DV?$ChTraitsCRT@D@ATL@@@@@ATL@@QAEAAV12@XZ:PROC
EXTRN	__imp_?Mid@?$CStringT@DV?$StrTraitMFC_DLL@DV?$ChTraitsCRT@D@ATL@@@@@ATL@@QBE?AV12@H@Z:PROC
EXTRN	__imp_?Left@?$CStringT@DV?$StrTraitMFC_DLL@DV?$ChTraitsCRT@D@ATL@@@@@ATL@@QBE?AV12@H@Z:PROC
EXTRN	__imp_?Format@?$CStringT@DV?$StrTraitMFC_DLL@DV?$ChTraitsCRT@D@ATL@@@@@ATL@@QAAXPBDZZ:PROC
EXTRN	?Read@CArchive@@QAEIPAXI@Z:PROC			; CArchive::Read
EXTRN	?Write@CArchive@@QAEXPBXI@Z:PROC		; CArchive::Write
EXTRN	?ReadCount@CArchive@@QAEKXZ:PROC		; CArchive::ReadCount
EXTRN	?WriteCount@CArchive@@QAEXK@Z:PROC		; CArchive::WriteCount
EXTRN	??0CStringArray@@QAE@XZ:PROC			; CStringArray::CStringArray
EXTRN	?SetAtGrow@CStringArray@@QAEXHABV?$CStringT@DV?$StrTraitMFC_DLL@DV?$ChTraitsCRT@D@ATL@@@@@ATL@@@Z:PROC ; CStringArray::SetAtGrow
EXTRN	??1CStringArray@@UAE@XZ:PROC			; CStringArray::~CStringArray
EXTRN	?Create@CPlex@@SGPAU1@AAPAU1@II@Z:PROC		; CPlex::Create
EXTRN	?FreeDataChain@CPlex@@QAEXXZ:PROC		; CPlex::FreeDataChain
EXTRN	??_ECChartItemMarket@@UAEPAXI@Z:PROC		; CChartItemMarket::`vector deleting destructor'
EXTRN	?Parser@CDataConverter@@SA?AV?$CStringT@DV?$StrTraitMFC_DLL@DV?$ChTraitsCRT@D@ATL@@@@@ATL@@AAV23@V23@@Z:PROC ; CDataConverter::Parser
EXTRN	?Char2String@CDataConverter@@SA?AV?$CStringT@DV?$StrTraitMFC_DLL@DV?$ChTraitsCRT@D@ATL@@@@@ATL@@PADH@Z:PROC ; CDataConverter::Char2String
EXTRN	?Char2Int@CDataConverter@@SAHPADH@Z:PROC	; CDataConverter::Char2Int
EXTRN	?GetChartBozoMsg@CChartBozoManager@@UAGHPBDPAVCChartBozoInput@@AAV?$CStringT@DV?$StrTraitMFC_DLL@DV?$ChTraitsCRT@D@ATL@@@@@ATL@@H@Z:PROC ; CChartBozoManager::GetChartBozoMsg
EXTRN	?ChangeChartBozoMsg@CChartBozoManager@@UAGHAAV?$CStringT@DV?$StrTraitMFC_DLL@DV?$ChTraitsCRT@D@ATL@@@@@ATL@@PAV?$CList@PAVCChartBozoItem@@PAV1@@@@Z:PROC ; CChartBozoManager::ChangeChartBozoMsg
EXTRN	??0CChartBozoManager@@QAE@XZ:PROC		; CChartBozoManager::CChartBozoManager
EXTRN	??_E?$CList@PAVCChartBozoItem@@PAV1@@@UAEPAXI@Z:PROC ; CList<CChartBozoItem *,CChartBozoItem *>::`vector deleting destructor'
EXTRN	@__security_check_cookie@4:PROC
EXTRN	___CxxFrameHandler3:PROC
EXTRN	_memcpy:PROC
EXTRN	_memset:PROC
EXTRN	??_7type_info@@6B@:QWORD			; type_info::`vftable'
EXTRN	___security_cookie:DWORD
EXTRN	__fltused:DWORD
;	COMDAT ?_OptionsStorage@?1??__local_stdio_printf_options@@9@4_KA
_BSS	SEGMENT
?_OptionsStorage@?1??__local_stdio_printf_options@@9@4_KA DQ 01H DUP (?) ; `__local_stdio_printf_options'::`2'::_OptionsStorage
_BSS	ENDS
_BSS	SEGMENT
?RMSG_INTERFACE@@3IB DD 01H DUP (?)			; RMSG_INTERFACE
?RMSG_GETPCTRDATA@@3IB DD 01H DUP (?)			; RMSG_GETPCTRDATA
?RMSG_SETPCTRDATA@@3IB DD 01H DUP (?)			; RMSG_SETPCTRDATA
?RMSG_GETSIGNAL_REAL@@3IB DD 01H DUP (?)		; RMSG_GETSIGNAL_REAL
_BSS	ENDS
CRT$XCU	SEGMENT
?RMSG_INTERFACE$initializer$@@3P6AXXZA DD FLAT:??__ERMSG_INTERFACE@@YAXXZ ; RMSG_INTERFACE$initializer$
CRT$XCU	ENDS
;	COMDAT __xmm@20202020202020202020202020202020
CONST	SEGMENT
__xmm@20202020202020202020202020202020 DB '                '
CONST	ENDS
;	COMDAT __real@4059000000000000
CONST	SEGMENT
__real@4059000000000000 DQ 04059000000000000r	; 100
CONST	ENDS
;	COMDAT ??_R1A@?0A@EA@CChartItemMarket@@8
rdata$r	SEGMENT
??_R1A@?0A@EA@CChartItemMarket@@8 DD FLAT:??_R0?AVCChartItemMarket@@@8 ; CChartItemMarket::`RTTI Base Class Descriptor at (0,-1,0,64)'
	DD	00H
	DD	00H
	DD	0ffffffffH
	DD	00H
	DD	040H
	DD	FLAT:??_R3CChartItemMarket@@8
rdata$r	ENDS
;	COMDAT ??_R2CChartItemMarket@@8
rdata$r	SEGMENT
??_R2CChartItemMarket@@8 DD FLAT:??_R1A@?0A@EA@CChartItemMarket@@8 ; CChartItemMarket::`RTTI Base Class Array'
rdata$r	ENDS
;	COMDAT ??_R3CChartItemMarket@@8
rdata$r	SEGMENT
??_R3CChartItemMarket@@8 DD 00H				; CChartItemMarket::`RTTI Class Hierarchy Descriptor'
	DD	00H
	DD	01H
	DD	FLAT:??_R2CChartItemMarket@@8
rdata$r	ENDS
;	COMDAT ??_R0?AVCChartItemMarket@@@8
data$rs	SEGMENT
??_R0?AVCChartItemMarket@@@8 DD FLAT:??_7type_info@@6B@	; CChartItemMarket `RTTI Type Descriptor'
	DD	00H
	DB	'.?AVCChartItemMarket@@', 00H
data$rs	ENDS
;	COMDAT ??_R4CChartItemMarket@@6B@
rdata$r	SEGMENT
??_R4CChartItemMarket@@6B@ DD 00H			; CChartItemMarket::`RTTI Complete Object Locator'
	DD	00H
	DD	00H
	DD	FLAT:??_R0?AVCChartItemMarket@@@8
	DD	FLAT:??_R3CChartItemMarket@@8
rdata$r	ENDS
;	COMDAT ??_R1A@?0A@EA@CChartBozoInput@@8
rdata$r	SEGMENT
??_R1A@?0A@EA@CChartBozoInput@@8 DD FLAT:??_R0?AVCChartBozoInput@@@8 ; CChartBozoInput::`RTTI Base Class Descriptor at (0,-1,0,64)'
	DD	00H
	DD	00H
	DD	0ffffffffH
	DD	00H
	DD	040H
	DD	FLAT:??_R3CChartBozoInput@@8
rdata$r	ENDS
;	COMDAT ??_R2CChartBozoInput@@8
rdata$r	SEGMENT
??_R2CChartBozoInput@@8 DD FLAT:??_R1A@?0A@EA@CChartBozoInput@@8 ; CChartBozoInput::`RTTI Base Class Array'
rdata$r	ENDS
;	COMDAT ??_R3CChartBozoInput@@8
rdata$r	SEGMENT
??_R3CChartBozoInput@@8 DD 00H				; CChartBozoInput::`RTTI Class Hierarchy Descriptor'
	DD	00H
	DD	01H
	DD	FLAT:??_R2CChartBozoInput@@8
rdata$r	ENDS
;	COMDAT ??_R0?AVCChartBozoInput@@@8
data$rs	SEGMENT
??_R0?AVCChartBozoInput@@@8 DD FLAT:??_7type_info@@6B@	; CChartBozoInput `RTTI Type Descriptor'
	DD	00H
	DB	'.?AVCChartBozoInput@@', 00H
data$rs	ENDS
;	COMDAT ??_R4CChartBozoInput@@6B@
rdata$r	SEGMENT
??_R4CChartBozoInput@@6B@ DD 00H			; CChartBozoInput::`RTTI Complete Object Locator'
	DD	00H
	DD	00H
	DD	FLAT:??_R0?AVCChartBozoInput@@@8
	DD	FLAT:??_R3CChartBozoInput@@8
rdata$r	ENDS
;	COMDAT ??_R1A@?0A@EA@?$CList@PAVCChartBozoItem@@PAV1@@@8
rdata$r	SEGMENT
??_R1A@?0A@EA@?$CList@PAVCChartBozoItem@@PAV1@@@8 DD FLAT:??_R0?AV?$CList@PAVCChartBozoItem@@PAV1@@@@8 ; CList<CChartBozoItem *,CChartBozoItem *>::`RTTI Base Class Descriptor at (0,-1,0,64)'
	DD	01H
	DD	00H
	DD	0ffffffffH
	DD	00H
	DD	040H
	DD	FLAT:??_R3?$CList@PAVCChartBozoItem@@PAV1@@@8
rdata$r	ENDS
;	COMDAT ??_R2?$CList@PAVCChartBozoItem@@PAV1@@@8
rdata$r	SEGMENT
??_R2?$CList@PAVCChartBozoItem@@PAV1@@@8 DD FLAT:??_R1A@?0A@EA@?$CList@PAVCChartBozoItem@@PAV1@@@8 ; CList<CChartBozoItem *,CChartBozoItem *>::`RTTI Base Class Array'
	DD	FLAT:??_R1A@?0A@EA@CObject@@8
rdata$r	ENDS
;	COMDAT ??_R3?$CList@PAVCChartBozoItem@@PAV1@@@8
rdata$r	SEGMENT
??_R3?$CList@PAVCChartBozoItem@@PAV1@@@8 DD 00H		; CList<CChartBozoItem *,CChartBozoItem *>::`RTTI Class Hierarchy Descriptor'
	DD	00H
	DD	02H
	DD	FLAT:??_R2?$CList@PAVCChartBozoItem@@PAV1@@@8
rdata$r	ENDS
;	COMDAT ??_R0?AV?$CList@PAVCChartBozoItem@@PAV1@@@@8
data$rs	SEGMENT
??_R0?AV?$CList@PAVCChartBozoItem@@PAV1@@@@8 DD FLAT:??_7type_info@@6B@ ; CList<CChartBozoItem *,CChartBozoItem *> `RTTI Type Descriptor'
	DD	00H
	DB	'.?AV?$CList@PAVCChartBozoItem@@PAV1@@@', 00H
data$rs	ENDS
;	COMDAT ??_R4?$CList@PAVCChartBozoItem@@PAV1@@@6B@
rdata$r	SEGMENT
??_R4?$CList@PAVCChartBozoItem@@PAV1@@@6B@ DD 00H	; CList<CChartBozoItem *,CChartBozoItem *>::`RTTI Complete Object Locator'
	DD	00H
	DD	00H
	DD	FLAT:??_R0?AV?$CList@PAVCChartBozoItem@@PAV1@@@@8
	DD	FLAT:??_R3?$CList@PAVCChartBozoItem@@PAV1@@@8
rdata$r	ENDS
;	COMDAT ??_C@_06DGGIJJJE@103201@
CONST	SEGMENT
??_C@_06DGGIJJJE@103201@ DB '103201', 00H		; `string'
CONST	ENDS
;	COMDAT ??_C@_06KFPJKNDC@103302@
CONST	SEGMENT
??_C@_06KFPJKNDC@103302@ DB '103302', 00H		; `string'
CONST	ENDS
;	COMDAT ??_C@_07CEKBDJAO@$103610@
CONST	SEGMENT
??_C@_07CEKBDJAO@$103610@ DB '$103610', 00H		; `string'
CONST	ENDS
;	COMDAT ??_C@_06FPBGEFLI@103308@
CONST	SEGMENT
??_C@_06FPBGEFLI@103308@ DB '103308', 00H		; `string'
CONST	ENDS
;	COMDAT ??_C@_06MBJFGIDG@103306@
CONST	SEGMENT
??_C@_06MBJFGIDG@103306@ DB '103306', 00H		; `string'
CONST	ENDS
;	COMDAT ??_C@_05GNFKCGLE@30301@
CONST	SEGMENT
??_C@_05GNFKCGLE@30301@ DB '30301', 00H			; `string'
CONST	ENDS
;	COMDAT ??_C@_0DB@LIAKHBHP@?$CF?4?$CKs?38?3YYYYMMDD?$HM?$CF?4?$CKs?315?3x1?$HM?$CF?4?$CKs@
CONST	SEGMENT
??_C@_0DB@LIAKHBHP@?$CF?4?$CKs?38?3YYYYMMDD?$HM?$CF?4?$CKs?315?3x1?$HM?$CF?4?$CKs@ DB '%'
	DB	'.*s:8:YYYYMMDD|%.*s:15:x1|%.*s:15:x1|%.*s:15:x1', 00H ; `string'
CONST	ENDS
;	COMDAT ??_C@_09ELPBAGKN@NEWPACKET@
CONST	SEGMENT
??_C@_09ELPBAGKN@NEWPACKET@ DB 'NEWPACKET', 00H		; `string'
CONST	ENDS
;	COMDAT ??_C@_0BL@OOBDJKFI@?$CF?4?$CKs?38?3YYYYMMDD?$HM?$CF?4?$CKs?315?3x1@
CONST	SEGMENT
??_C@_0BL@OOBDJKFI@?$CF?4?$CKs?38?3YYYYMMDD?$HM?$CF?4?$CKs?315?3x1@ DB '%'
	DB	'.*s:8:YYYYMMDD|%.*s:15:x1', 00H		; `string'
CONST	ENDS
;	COMDAT ??_C@_0BO@PCAEEPDH@?$CF?4?$CKs?38?3YYYYMMDD?$HM?$CF?4?$CKs?315?3x0?401@
CONST	SEGMENT
??_C@_0BO@PCAEEPDH@?$CF?4?$CKs?38?3YYYYMMDD?$HM?$CF?4?$CKs?315?3x0?401@ DB '%'
	DB	'.*s:8:YYYYMMDD|%.*s:15:x0.01', 00H		; `string'
CONST	ENDS
;	COMDAT ??_C@_04OHGLKFFN@?$CF03d@
CONST	SEGMENT
??_C@_04OHGLKFFN@?$CF03d@ DB '%03d', 00H		; `string'
CONST	ENDS
;	COMDAT ??_C@_01FDFGLJHB@2@
CONST	SEGMENT
??_C@_01FDFGLJHB@2@ DB '2', 00H				; `string'
CONST	ENDS
;	COMDAT ??_C@_01HIHLOKLC@1@
CONST	SEGMENT
??_C@_01HIHLOKLC@1@ DB '1', 00H				; `string'
CONST	ENDS
;	COMDAT ??_C@_01GBGANLPD@0@
CONST	SEGMENT
??_C@_01GBGANLPD@0@ DB '0', 00H				; `string'
CONST	ENDS
;	COMDAT ??_C@_02NJPGOMH@?$CFf@
CONST	SEGMENT
??_C@_02NJPGOMH@?$CFf@ DB '%f', 00H			; `string'
CONST	ENDS
;	COMDAT ??_C@_0BO@ELDOFBCP@_CreditGivingRate___DateTime_@
CONST	SEGMENT
??_C@_0BO@ELDOFBCP@_CreditGivingRate___DateTime_@ DB '_CreditGivingRate__'
	DB	'_DateTime_', 00H				; `string'
CONST	ENDS
;	COMDAT ??_C@_0BP@LBCFJFLL@_CreditBalanceRate___DateTime_@
CONST	SEGMENT
??_C@_0BP@LBCFJFLL@_CreditBalanceRate___DateTime_@ DB '_CreditBalanceRate'
	DB	'___DateTime_', 00H				; `string'
CONST	ENDS
;	COMDAT ??_C@_0CC@NIHFHGCD@_Foreign?5Holding?5Rate___DateTim@
CONST	SEGMENT
??_C@_0CC@NIHFHGCD@_Foreign?5Holding?5Rate___DateTim@ DB '_Foreign Holdin'
	DB	'g Rate___DateTime_', 00H			; `string'
CONST	ENDS
;	COMDAT ??_C@_04ODOGNJOP@?$CF05d@
CONST	SEGMENT
??_C@_04ODOGNJOP@?$CF05d@ DB '%05d', 00H		; `string'
CONST	ENDS
;	COMDAT ??_C@_01ICJEACDI@?$DL@
CONST	SEGMENT
??_C@_01ICJEACDI@?$DL@ DB ';', 00H			; `string'
CONST	ENDS
;	COMDAT ??_C@_04EBNJJJJI@?$CF?4?$CKs@
CONST	SEGMENT
??_C@_04EBNJJJJI@?$CF?4?$CKs@ DB '%.*s', 00H		; `string'
CONST	ENDS
;	COMDAT ??_7?$CList@PAVCChartBozoItem@@PAV1@@@6B@
CONST	SEGMENT
??_7?$CList@PAVCChartBozoItem@@PAV1@@@6B@ DD FLAT:??_R4?$CList@PAVCChartBozoItem@@PAV1@@@6B@ ; CList<CChartBozoItem *,CChartBozoItem *>::`vftable'
	DD	FLAT:?GetRuntimeClass@CObject@@UBEPAUCRuntimeClass@@XZ
	DD	FLAT:??_E?$CList@PAVCChartBozoItem@@PAV1@@@UAEPAXI@Z
	DD	FLAT:?Serialize@?$CList@PAVCChartBozoItem@@PAV1@@@UAEXAAVCArchive@@@Z
	DD	FLAT:?AssertValid@CObject@@UBEXXZ
	DD	FLAT:?Dump@CObject@@UBEXAAVCDumpContext@@@Z
CONST	ENDS
;	COMDAT ??_C@_06BJENFACH@105310@
CONST	SEGMENT
??_C@_06BJENFACH@105310@ DB '105310', 00H		; `string'
CONST	ENDS
;	COMDAT ??_C@_06MIIPOLGO@105319@
CONST	SEGMENT
??_C@_06MIIPOLGO@105319@ DB '105319', 00H		; `string'
CONST	ENDS
;	COMDAT ??_C@_06NBJENKCP@105318@
CONST	SEGMENT
??_C@_06NBJENKCP@105318@ DB '105318', 00H		; `string'
CONST	ENDS
;	COMDAT ??_C@_06CKLJFIJC@105302@
CONST	SEGMENT
??_C@_06CKLJFIJC@105302@ DB '105302', 00H		; `string'
CONST	ENDS
;	COMDAT ??_C@_07KLOBMMKO@$105610@
CONST	SEGMENT
??_C@_07KLOBMMKO@$105610@ DB '$105610', 00H		; `string'
CONST	ENDS
;	COMDAT ??_C@_06MJENIBFJ@105309@
CONST	SEGMENT
??_C@_06MJENIBFJ@105309@ DB '105309', 00H		; `string'
CONST	ENDS
;	COMDAT ??_C@_01BMBHCPLG@5@
CONST	SEGMENT
??_C@_01BMBHCPLG@5@ DB '5', 00H				; `string'
CONST	ENDS
;	COMDAT ??_C@_06EONFJNJG@105306@
CONST	SEGMENT
??_C@_06EONFJNJG@105306@ DB '105306', 00H		; `string'
CONST	ENDS
;	COMDAT ??_C@_06BJEALFB@105301@
CONST	SEGMENT
??_C@_06BJEALFB@105301@ DB '105301', 00H		; `string'
CONST	ENDS
;	COMDAT ??_C@_04JFEEGHHI@9301@
CONST	SEGMENT
??_C@_04JFEEGHHI@9301@ DB '9301', 00H			; `string'
CONST	ENDS
;	COMDAT ??_C@_04CNPIAABN@9201@
CONST	SEGMENT
??_C@_04CNPIAABN@9201@ DB '9201', 00H			; `string'
CONST	ENDS
;	COMDAT ??_C@_04DPENKPPD@9101@
CONST	SEGMENT
??_C@_04DPENKPPD@9101@ DB '9101', 00H			; `string'
CONST	ENDS
;	COMDAT ??_C@_03HEBKFNAF@101@
CONST	SEGMENT
??_C@_03HEBKFNAF@101@ DB '101', 00H			; `string'
CONST	ENDS
;	COMDAT ??_C@_03GGKPPCOL@201@
CONST	SEGMENT
??_C@_03GGKPPCOL@201@ DB '201', 00H			; `string'
CONST	ENDS
;	COMDAT ??_C@_03MMKGDKGA@001@
CONST	SEGMENT
??_C@_03MMKGDKGA@001@ DB '001', 00H			; `string'
CONST	ENDS
;	COMDAT ??_C@_04JGKELNH@5514@
CONST	SEGMENT
??_C@_04JGKELNH@5514@ DB '5514', 00H			; `string'
CONST	ENDS
;	COMDAT ??_C@_04LBNGCMLC@5414@
CONST	SEGMENT
??_C@_04LBNGCMLC@5414@ DB '5414', 00H			; `string'
CONST	ENDS
;	COMDAT ??_C@_04BKBNIOAO@5604@
CONST	SEGMENT
??_C@_04BKBNIOAO@5604@ DB '5604', 00H			; `string'
CONST	ENDS
;	COMDAT ??_C@_04FFFMBIMJ@5603@
CONST	SEGMENT
??_C@_04FFFMBIMJ@5603@ DB '5603', 00H			; `string'
CONST	ENDS
;	COMDAT ??_C@_04EMEHCJII@5602@
CONST	SEGMENT
??_C@_04EMEHCJII@5602@ DB '5602', 00H			; `string'
CONST	ENDS
;	COMDAT ??_C@_04GHGKHKEL@5601@
CONST	SEGMENT
??_C@_04GHGKHKEL@5601@ DB '5601', 00H			; `string'
CONST	ENDS
;	COMDAT ??_C@_05GLAOOINB@25603@
CONST	SEGMENT
??_C@_05GLAOOINB@25603@ DB '25603', 00H			; `string'
CONST	ENDS
;	COMDAT ??_C@_05HCBFNJJA@25602@
CONST	SEGMENT
??_C@_05HCBFNJJA@25602@ DB '25602', 00H			; `string'
CONST	ENDS
;	COMDAT ??_C@_05EFMLCJKC@25302@
CONST	SEGMENT
??_C@_05EFMLCJKC@25302@ DB '25302', 00H			; `string'
CONST	ENDS
;	COMDAT ??_C@_04EGCLNNBA@5513@
CONST	SEGMENT
??_C@_04EGCLNNBA@5513@ DB '5513', 00H			; `string'
CONST	ENDS
;	COMDAT ??_C@_04LNAGFPKN@5509@
CONST	SEGMENT
??_C@_04LNAGFPKN@5509@ DB '5509', 00H			; `string'
CONST	ENDS
;	COMDAT ??_C@_04CDIFHCCD@5507@
CONST	SEGMENT
??_C@_04CDIFHCCD@5507@ DB '5507', 00H			; `string'
CONST	ENDS
;	COMDAT ??_C@_04DKJOEDGC@5506@
CONST	SEGMENT
??_C@_04DKJOEDGC@5506@ DB '5506', 00H			; `string'
CONST	ENDS
;	COMDAT ??_C@_04BBLDBAKB@5505@
CONST	SEGMENT
??_C@_04BBLDBAKB@5505@ DB '5505', 00H			; `string'
CONST	ENDS
;	COMDAT ??_C@_04IKICBOA@5504@
CONST	SEGMENT
??_C@_04IKICBOA@5504@ DB '5504', 00H			; `string'
CONST	ENDS
;	COMDAT ??_C@_04EHOJLHCH@5503@
CONST	SEGMENT
??_C@_04EHOJLHCH@5503@ DB '5503', 00H			; `string'
CONST	ENDS
;	COMDAT ??_C@_04FOPCIGGG@5502@
CONST	SEGMENT
??_C@_04FOPCIGGG@5502@ DB '5502', 00H			; `string'
CONST	ENDS
;	COMDAT ??_C@_04HFNPNFKF@5501@
CONST	SEGMENT
??_C@_04HFNPNFKF@5501@ DB '5501', 00H			; `string'
CONST	ENDS
;	COMDAT ??_C@_04POJHLKHF@5413@
CONST	SEGMENT
??_C@_04POJHLKHF@5413@ DB '5413', 00H			; `string'
CONST	ENDS
;	COMDAT ??_C@_04FLKDIMI@5409@
CONST	SEGMENT
??_C@_04FLKDIMI@5409@ DB '5409', 00H			; `string'
CONST	ENDS
;	COMDAT ??_C@_04JLDJBFEG@5407@
CONST	SEGMENT
??_C@_04JLDJBFEG@5407@ DB '5407', 00H			; `string'
CONST	ENDS
;	COMDAT ??_C@_04ICCCCEAH@5406@
CONST	SEGMENT
??_C@_04ICCCCEAH@5406@ DB '5406', 00H			; `string'
CONST	ENDS
;	COMDAT ??_C@_04KJAPHHME@5405@
CONST	SEGMENT
??_C@_04KJAPHHME@5405@ DB '5405', 00H			; `string'
CONST	ENDS
;	COMDAT ??_C@_04LABEEGIF@5404@
CONST	SEGMENT
??_C@_04LABEEGIF@5404@ DB '5404', 00H			; `string'
CONST	ENDS
;	COMDAT ??_C@_04PPFFNAEC@5403@
CONST	SEGMENT
??_C@_04PPFFNAEC@5403@ DB '5403', 00H			; `string'
CONST	ENDS
;	COMDAT ??_C@_04OGEOOBAD@5402@
CONST	SEGMENT
??_C@_04OGEOOBAD@5402@ DB '5402', 00H			; `string'
CONST	ENDS
;	COMDAT ??_C@_04MNGDLCMA@5401@
CONST	SEGMENT
??_C@_04MNGDLCMA@5401@ DB '5401', 00H			; `string'
CONST	ENDS
;	COMDAT ??_C@_04BMKBAJIJ@5408@
CONST	SEGMENT
??_C@_04BMKBAJIJ@5408@ DB '5408', 00H			; `string'
CONST	ENDS
;	COMDAT ??_C@_04KEBNGOOM@5508@
CONST	SEGMENT
??_C@_04KEBNGOOM@5508@ DB '5508', 00H			; `string'
CONST	ENDS
;	COMDAT ??_C@_04HEBNLPJC@5511@
CONST	SEGMENT
??_C@_04HEBNLPJC@5511@ DB '5511', 00H			; `string'
CONST	ENDS
;	COMDAT ??_C@_04MMKBNIPH@5411@
CONST	SEGMENT
??_C@_04MMKBNIPH@5411@ DB '5411', 00H			; `string'
CONST	ENDS
;	COMDAT ??_C@_04GHMNPOHO@5373@
CONST	SEGMENT
??_C@_04GHMNPOHO@5373@ DB '5373', 00H			; `string'
CONST	ENDS
;	COMDAT ??_C@_04GGAPJEEJ@5363@
CONST	SEGMENT
??_C@_04GGAPJEEJ@5363@ DB '5363', 00H			; `string'
CONST	ENDS
;	COMDAT ??_C@_05BNAGMOKB@35201@
CONST	SEGMENT
??_C@_05BNAGMOKB@35201@ DB '35201', 00H			; `string'
CONST	ENDS
;	COMDAT ??_C@_04OHIMILDE@5412@
CONST	SEGMENT
??_C@_04OHIMILDE@5412@ DB '5412', 00H			; `string'
CONST	ENDS
;	COMDAT ??_C@_04FPDAOMFB@5512@
CONST	SEGMENT
??_C@_04FPDAOMFB@5512@ DB '5512', 00H			; `string'
CONST	ENDS
;	COMDAT ??_C@_04HLJJNJLK@5302@
CONST	SEGMENT
??_C@_04HLJJNJLK@5302@ DB '5302', 00H			; `string'
CONST	ENDS
;	COMDAT ??_C@_05BABFFKEK@25324@
CONST	SEGMENT
??_C@_05BABFFKEK@25324@ DB '25324', 00H			; `string'
CONST	ENDS
;	COMDAT ??_C@_06CABDLPJK@?$DP25500@
CONST	SEGMENT
??_C@_06CABDLPJK@?$DP25500@ DB '?25500', 00H		; `string'
CONST	ENDS
;	COMDAT ??_C@_05JLGGNMKB@21301@
CONST	SEGMENT
??_C@_05JLGGNMKB@21301@ DB '21301', 00H			; `string'
CONST	ENDS
;	COMDAT ??_C@_04PEJMDNKC@?$CF0?$CKd@
CONST	SEGMENT
??_C@_04PEJMDNKC@?$CF0?$CKd@ DB '%0*d', 00H		; `string'
CONST	ENDS
;	COMDAT ??_C@_04OBKAGHLG@?$CF06d@
CONST	SEGMENT
??_C@_04OBKAGHLG@?$CF06d@ DB '%06d', 00H		; `string'
CONST	ENDS
;	COMDAT ??_C@_05OGIKHPIO@?$CF8?48s@
CONST	SEGMENT
??_C@_05OGIKHPIO@?$CF8?48s@ DB '%8.8s', 00H		; `string'
CONST	ENDS
;	COMDAT ??_C@_04COEHKKFC@5324@
CONST	SEGMENT
??_C@_04COEHKKFC@5324@ DB '5324', 00H			; `string'
CONST	ENDS
;	COMDAT ??_C@_0P@FLGGHACJ@99999999999999@
CONST	SEGMENT
??_C@_0P@FLGGHACJ@99999999999999@ DB '99999999999999', 00H ; `string'
CONST	ENDS
;	COMDAT ??_C@_05OOAIAHCC@?$DP5500@
CONST	SEGMENT
??_C@_05OOAIAHCC@?$DP5500@ DB '?5500', 00H		; `string'
CONST	ENDS
;	COMDAT ??_C@_04KFDECMLJ@1301@
CONST	SEGMENT
??_C@_04KFDECMLJ@1301@ DB '1301', 00H			; `string'
CONST	ENDS
;	COMDAT ??_C@_04OCCELDNI@?$CF04d@
CONST	SEGMENT
??_C@_04OCCELDNI@?$CF04d@ DB '%04d', 00H		; `string'
CONST	ENDS
;	COMDAT ??_C@_02DKCKIIND@?$CFs@
CONST	SEGMENT
??_C@_02DKCKIIND@?$CFs@ DB '%s', 00H			; `string'
CONST	ENDS
;	COMDAT ??_C@_0CD@HDMDDIP@_Foreign?$CLOrganPureBuyAccumulati@
CONST	SEGMENT
??_C@_0CD@HDMDDIP@_Foreign?$CLOrganPureBuyAccumulati@ DB '_Foreign+OrganP'
	DB	'ureBuyAccumulation_', 00H			; `string'
CONST	ENDS
;	COMDAT ??_C@_0BH@FJOFJJFH@_Foreign?$CLOrganPureBuy_@
CONST	SEGMENT
??_C@_0BH@FJOFJJFH@_Foreign?$CLOrganPureBuy_@ DB '_Foreign+OrganPureBuy_', 00H ; `string'
CONST	ENDS
;	COMDAT ??_C@_0BJ@FMFMOPHM@_CreditBalanceVariation_@
CONST	SEGMENT
??_C@_0BJ@FMFMOPHM@_CreditBalanceVariation_@ DB '_CreditBalanceVariation_'
	DB	00H						; `string'
CONST	ENDS
;	COMDAT ??_C@_0BD@GGNHDKMC@_CreditBalanceQty_@
CONST	SEGMENT
??_C@_0BD@GGNHDKMC@_CreditBalanceQty_@ DB '_CreditBalanceQty_', 00H ; `string'
CONST	ENDS
;	COMDAT ??_C@_0BD@JGMOOODK@_CreditGivingRate_@
CONST	SEGMENT
??_C@_0BD@JGMOOODK@_CreditGivingRate_@ DB '_CreditGivingRate_', 00H ; `string'
CONST	ENDS
;	COMDAT ??_C@_0BE@LNCNOHPK@_CreditBalanceRate_@
CONST	SEGMENT
??_C@_0BE@LNCNOHPK@_CreditBalanceRate_@ DB '_CreditBalanceRate_', 00H ; `string'
CONST	ENDS
;	COMDAT ??_C@_0BB@LFJOBAIN@_Person?5PureBuy_@
CONST	SEGMENT
??_C@_0BB@LFJOBAIN@_Person?5PureBuy_@ DB '_Person PureBuy_', 00H ; `string'
CONST	ENDS
;	COMDAT ??_C@_0BO@MJBECKCF@_Person?5PureBuy?5Accumulation_@
CONST	SEGMENT
??_C@_0BO@MJBECKCF@_Person?5PureBuy?5Accumulation_@ DB '_Person PureBuy A'
	DB	'ccumulation_', 00H				; `string'
CONST	ENDS
;	COMDAT ??_C@_0BN@HHAODJDD@_ForeignPureBuyAccumulation_@
CONST	SEGMENT
??_C@_0BN@HHAODJDD@_ForeignPureBuyAccumulation_@ DB '_ForeignPureBuyAccum'
	DB	'ulation_', 00H				; `string'
CONST	ENDS
;	COMDAT ??_C@_0BD@CNJJJHHG@_Foreign?5Pure?5Buy_@
CONST	SEGMENT
??_C@_0BD@CNJJJHHG@_Foreign?5Pure?5Buy_@ DB '_Foreign Pure Buy_', 00H ; `string'
CONST	ENDS
;	COMDAT ??_C@_0BH@KNFHMKMA@_Foreign?5Holding?5Rate_@
CONST	SEGMENT
??_C@_0BH@KNFHMKMA@_Foreign?5Holding?5Rate_@ DB '_Foreign Holding Rate_', 00H ; `string'
CONST	ENDS
;	COMDAT ??_C@_0BC@FAJJAKC@_Foreign?5Holding_@
CONST	SEGMENT
??_C@_0BC@FAJJAKC@_Foreign?5Holding_@ DB '_Foreign Holding_', 00H ; `string'
CONST	ENDS
;	COMDAT ??_7CChartItemMarket@@6B@
CONST	SEGMENT
??_7CChartItemMarket@@6B@ DD FLAT:??_R4CChartItemMarket@@6B@ ; CChartItemMarket::`vftable'
	DD	FLAT:??_ECChartItemMarket@@UAEPAXI@Z
CONST	ENDS
;	COMDAT ??_7CChartBozoInput@@6B@
CONST	SEGMENT
??_7CChartBozoInput@@6B@ DD FLAT:??_R4CChartBozoInput@@6B@ ; CChartBozoInput::`vftable'
	DD	FLAT:?Copy@CChartBozoInput@@UAEXABV1@@Z
	DD	FLAT:??4CChartBozoInput@@UAEAAV0@ABV0@@Z
CONST	ENDS
;	COMDAT ??_R1A@?0A@EA@CObject@@8
rdata$r	SEGMENT
??_R1A@?0A@EA@CObject@@8 DD FLAT:??_R0?AVCObject@@@8	; CObject::`RTTI Base Class Descriptor at (0,-1,0,64)'
	DD	00H
	DD	00H
	DD	0ffffffffH
	DD	00H
	DD	040H
	DD	FLAT:??_R3CObject@@8
rdata$r	ENDS
;	COMDAT ??_R2CObject@@8
rdata$r	SEGMENT
??_R2CObject@@8 DD FLAT:??_R1A@?0A@EA@CObject@@8	; CObject::`RTTI Base Class Array'
rdata$r	ENDS
;	COMDAT ??_R3CObject@@8
rdata$r	SEGMENT
??_R3CObject@@8 DD 00H					; CObject::`RTTI Class Hierarchy Descriptor'
	DD	00H
	DD	01H
	DD	FLAT:??_R2CObject@@8
rdata$r	ENDS
;	COMDAT ??_R0?AVCObject@@@8
data$rs	SEGMENT
??_R0?AVCObject@@@8 DD FLAT:??_7type_info@@6B@		; CObject `RTTI Type Descriptor'
	DD	00H
	DB	'.?AVCObject@@', 00H
data$rs	ENDS
;	COMDAT ??_C@_00CNPNBAHC@@
CONST	SEGMENT
??_C@_00CNPNBAHC@@ DB 00H				; `string'
CONST	ENDS
;	COMDAT ??_C@_02DPKJAMEF@?$CFd@
CONST	SEGMENT
??_C@_02DPKJAMEF@?$CFd@ DB '%d', 00H			; `string'
CONST	ENDS
;	COMDAT xdata$x
xdata$x	SEGMENT
__unwindtable$??_G?$CList@PAVCChartBozoItem@@PAV1@@@UAEPAXI@Z DD 0ffffffffH
	DD	FLAT:___std_terminate
__ehfuncinfo$??_G?$CList@PAVCChartBozoItem@@PAV1@@@UAEPAXI@Z DD 019930522H
	DD	01H
	DD	FLAT:__unwindtable$??_G?$CList@PAVCChartBozoItem@@PAV1@@@UAEPAXI@Z
	DD	2 DUP(00H)
	DD	2 DUP(00H)
	DD	00H
	DD	05H
xdata$x	ENDS
;	COMDAT xdata$x
xdata$x	SEGMENT
__ehfuncinfo$??1?$CList@PAVCChartBozoItem@@PAV1@@@UAE@XZ DD 019930522H
	DD	00H
	DD	00H
	DD	2 DUP(00H)
	DD	2 DUP(00H)
	DD	00H
	DD	05H
xdata$x	ENDS
;	COMDAT xdata$x
xdata$x	SEGMENT
__ehfuncinfo$?MakeDataOfSuspensSeContract@CChartItemMarket@@IAEXAAV?$CStringT@DV?$StrTraitMFC_DLL@DV?$ChTraitsCRT@D@ATL@@@@@ATL@@PAVCStringArray@@@Z DD 019930522H
	DD	012H
	DD	FLAT:__unwindtable$?MakeDataOfSuspensSeContract@CChartItemMarket@@IAEXAAV?$CStringT@DV?$StrTraitMFC_DLL@DV?$ChTraitsCRT@D@ATL@@@@@ATL@@PAVCStringArray@@@Z
	DD	2 DUP(00H)
	DD	2 DUP(00H)
	DD	00H
	DD	01H
__unwindtable$?MakeDataOfSuspensSeContract@CChartItemMarket@@IAEXAAV?$CStringT@DV?$StrTraitMFC_DLL@DV?$ChTraitsCRT@D@ATL@@@@@ATL@@PAVCStringArray@@@Z DD 0ffffffffH
	DD	FLAT:__unwindfunclet$?MakeDataOfSuspensSeContract@CChartItemMarket@@IAEXAAV?$CStringT@DV?$StrTraitMFC_DLL@DV?$ChTraitsCRT@D@ATL@@@@@ATL@@PAVCStringArray@@@Z$0
	DD	00H
	DD	FLAT:__unwindfunclet$?MakeDataOfSuspensSeContract@CChartItemMarket@@IAEXAAV?$CStringT@DV?$StrTraitMFC_DLL@DV?$ChTraitsCRT@D@ATL@@@@@ATL@@PAVCStringArray@@@Z$1
	DD	01H
	DD	FLAT:__unwindfunclet$?MakeDataOfSuspensSeContract@CChartItemMarket@@IAEXAAV?$CStringT@DV?$StrTraitMFC_DLL@DV?$ChTraitsCRT@D@ATL@@@@@ATL@@PAVCStringArray@@@Z$2
	DD	02H
	DD	FLAT:__unwindfunclet$?MakeDataOfSuspensSeContract@CChartItemMarket@@IAEXAAV?$CStringT@DV?$StrTraitMFC_DLL@DV?$ChTraitsCRT@D@ATL@@@@@ATL@@PAVCStringArray@@@Z$3
	DD	03H
	DD	FLAT:__unwindfunclet$?MakeDataOfSuspensSeContract@CChartItemMarket@@IAEXAAV?$CStringT@DV?$StrTraitMFC_DLL@DV?$ChTraitsCRT@D@ATL@@@@@ATL@@PAVCStringArray@@@Z$4
	DD	04H
	DD	FLAT:__unwindfunclet$?MakeDataOfSuspensSeContract@CChartItemMarket@@IAEXAAV?$CStringT@DV?$StrTraitMFC_DLL@DV?$ChTraitsCRT@D@ATL@@@@@ATL@@PAVCStringArray@@@Z$5
	DD	05H
	DD	FLAT:__unwindfunclet$?MakeDataOfSuspensSeContract@CChartItemMarket@@IAEXAAV?$CStringT@DV?$StrTraitMFC_DLL@DV?$ChTraitsCRT@D@ATL@@@@@ATL@@PAVCStringArray@@@Z$18
	DD	06H
	DD	FLAT:__unwindfunclet$?MakeDataOfSuspensSeContract@CChartItemMarket@@IAEXAAV?$CStringT@DV?$StrTraitMFC_DLL@DV?$ChTraitsCRT@D@ATL@@@@@ATL@@PAVCStringArray@@@Z$19
	DD	07H
	DD	FLAT:__unwindfunclet$?MakeDataOfSuspensSeContract@CChartItemMarket@@IAEXAAV?$CStringT@DV?$StrTraitMFC_DLL@DV?$ChTraitsCRT@D@ATL@@@@@ATL@@PAVCStringArray@@@Z$20
	DD	05H
	DD	FLAT:__unwindfunclet$?MakeDataOfSuspensSeContract@CChartItemMarket@@IAEXAAV?$CStringT@DV?$StrTraitMFC_DLL@DV?$ChTraitsCRT@D@ATL@@@@@ATL@@PAVCStringArray@@@Z$21
	DD	09H
	DD	FLAT:__unwindfunclet$?MakeDataOfSuspensSeContract@CChartItemMarket@@IAEXAAV?$CStringT@DV?$StrTraitMFC_DLL@DV?$ChTraitsCRT@D@ATL@@@@@ATL@@PAVCStringArray@@@Z$22
	DD	0aH
	DD	FLAT:__unwindfunclet$?MakeDataOfSuspensSeContract@CChartItemMarket@@IAEXAAV?$CStringT@DV?$StrTraitMFC_DLL@DV?$ChTraitsCRT@D@ATL@@@@@ATL@@PAVCStringArray@@@Z$23
	DD	05H
	DD	FLAT:__unwindfunclet$?MakeDataOfSuspensSeContract@CChartItemMarket@@IAEXAAV?$CStringT@DV?$StrTraitMFC_DLL@DV?$ChTraitsCRT@D@ATL@@@@@ATL@@PAVCStringArray@@@Z$24
	DD	0cH
	DD	FLAT:__unwindfunclet$?MakeDataOfSuspensSeContract@CChartItemMarket@@IAEXAAV?$CStringT@DV?$StrTraitMFC_DLL@DV?$ChTraitsCRT@D@ATL@@@@@ATL@@PAVCStringArray@@@Z$25
	DD	0dH
	DD	FLAT:__unwindfunclet$?MakeDataOfSuspensSeContract@CChartItemMarket@@IAEXAAV?$CStringT@DV?$StrTraitMFC_DLL@DV?$ChTraitsCRT@D@ATL@@@@@ATL@@PAVCStringArray@@@Z$26
	DD	05H
	DD	FLAT:__unwindfunclet$?MakeDataOfSuspensSeContract@CChartItemMarket@@IAEXAAV?$CStringT@DV?$StrTraitMFC_DLL@DV?$ChTraitsCRT@D@ATL@@@@@ATL@@PAVCStringArray@@@Z$27
	DD	05H
	DD	FLAT:__unwindfunclet$?MakeDataOfSuspensSeContract@CChartItemMarket@@IAEXAAV?$CStringT@DV?$StrTraitMFC_DLL@DV?$ChTraitsCRT@D@ATL@@@@@ATL@@PAVCStringArray@@@Z$28
	DD	05H
	DD	FLAT:__unwindfunclet$?MakeDataOfSuspensSeContract@CChartItemMarket@@IAEXAAV?$CStringT@DV?$StrTraitMFC_DLL@DV?$ChTraitsCRT@D@ATL@@@@@ATL@@PAVCStringArray@@@Z$29
xdata$x	ENDS
;	COMDAT xdata$x
xdata$x	SEGMENT
__ehfuncinfo$?fnStructType2@CChartItemMarket@@QAE?AV?$CStringT@DV?$StrTraitMFC_DLL@DV?$ChTraitsCRT@D@ATL@@@@@ATL@@V23@H@Z DD 019930522H
	DD	019H
	DD	FLAT:__unwindtable$?fnStructType2@CChartItemMarket@@QAE?AV?$CStringT@DV?$StrTraitMFC_DLL@DV?$ChTraitsCRT@D@ATL@@@@@ATL@@V23@H@Z
	DD	2 DUP(00H)
	DD	2 DUP(00H)
	DD	00H
	DD	01H
__unwindtable$?fnStructType2@CChartItemMarket@@QAE?AV?$CStringT@DV?$StrTraitMFC_DLL@DV?$ChTraitsCRT@D@ATL@@@@@ATL@@V23@H@Z DD 0ffffffffH
	DD	FLAT:__unwindfunclet$?fnStructType2@CChartItemMarket@@QAE?AV?$CStringT@DV?$StrTraitMFC_DLL@DV?$ChTraitsCRT@D@ATL@@@@@ATL@@V23@H@Z$1
	DD	00H
	DD	FLAT:__unwindfunclet$?fnStructType2@CChartItemMarket@@QAE?AV?$CStringT@DV?$StrTraitMFC_DLL@DV?$ChTraitsCRT@D@ATL@@@@@ATL@@V23@H@Z$0
	DD	01H
	DD	FLAT:__unwindfunclet$?fnStructType2@CChartItemMarket@@QAE?AV?$CStringT@DV?$StrTraitMFC_DLL@DV?$ChTraitsCRT@D@ATL@@@@@ATL@@V23@H@Z$2
	DD	02H
	DD	FLAT:__unwindfunclet$?fnStructType2@CChartItemMarket@@QAE?AV?$CStringT@DV?$StrTraitMFC_DLL@DV?$ChTraitsCRT@D@ATL@@@@@ATL@@V23@H@Z$3
	DD	03H
	DD	FLAT:__unwindfunclet$?fnStructType2@CChartItemMarket@@QAE?AV?$CStringT@DV?$StrTraitMFC_DLL@DV?$ChTraitsCRT@D@ATL@@@@@ATL@@V23@H@Z$4
	DD	04H
	DD	FLAT:__unwindfunclet$?fnStructType2@CChartItemMarket@@QAE?AV?$CStringT@DV?$StrTraitMFC_DLL@DV?$ChTraitsCRT@D@ATL@@@@@ATL@@V23@H@Z$5
	DD	05H
	DD	FLAT:__unwindfunclet$?fnStructType2@CChartItemMarket@@QAE?AV?$CStringT@DV?$StrTraitMFC_DLL@DV?$ChTraitsCRT@D@ATL@@@@@ATL@@V23@H@Z$6
	DD	06H
	DD	FLAT:__unwindfunclet$?fnStructType2@CChartItemMarket@@QAE?AV?$CStringT@DV?$StrTraitMFC_DLL@DV?$ChTraitsCRT@D@ATL@@@@@ATL@@V23@H@Z$7
	DD	07H
	DD	FLAT:__unwindfunclet$?fnStructType2@CChartItemMarket@@QAE?AV?$CStringT@DV?$StrTraitMFC_DLL@DV?$ChTraitsCRT@D@ATL@@@@@ATL@@V23@H@Z$8
	DD	07H
	DD	FLAT:__unwindfunclet$?fnStructType2@CChartItemMarket@@QAE?AV?$CStringT@DV?$StrTraitMFC_DLL@DV?$ChTraitsCRT@D@ATL@@@@@ATL@@V23@H@Z$9
	DD	07H
	DD	FLAT:__unwindfunclet$?fnStructType2@CChartItemMarket@@QAE?AV?$CStringT@DV?$StrTraitMFC_DLL@DV?$ChTraitsCRT@D@ATL@@@@@ATL@@V23@H@Z$25
	DD	0aH
	DD	FLAT:__unwindfunclet$?fnStructType2@CChartItemMarket@@QAE?AV?$CStringT@DV?$StrTraitMFC_DLL@DV?$ChTraitsCRT@D@ATL@@@@@ATL@@V23@H@Z$26
	DD	0bH
	DD	FLAT:__unwindfunclet$?fnStructType2@CChartItemMarket@@QAE?AV?$CStringT@DV?$StrTraitMFC_DLL@DV?$ChTraitsCRT@D@ATL@@@@@ATL@@V23@H@Z$27
	DD	07H
	DD	FLAT:__unwindfunclet$?fnStructType2@CChartItemMarket@@QAE?AV?$CStringT@DV?$StrTraitMFC_DLL@DV?$ChTraitsCRT@D@ATL@@@@@ATL@@V23@H@Z$28
	DD	0dH
	DD	FLAT:__unwindfunclet$?fnStructType2@CChartItemMarket@@QAE?AV?$CStringT@DV?$StrTraitMFC_DLL@DV?$ChTraitsCRT@D@ATL@@@@@ATL@@V23@H@Z$29
	DD	0eH
	DD	FLAT:__unwindfunclet$?fnStructType2@CChartItemMarket@@QAE?AV?$CStringT@DV?$StrTraitMFC_DLL@DV?$ChTraitsCRT@D@ATL@@@@@ATL@@V23@H@Z$30
	DD	07H
	DD	FLAT:__unwindfunclet$?fnStructType2@CChartItemMarket@@QAE?AV?$CStringT@DV?$StrTraitMFC_DLL@DV?$ChTraitsCRT@D@ATL@@@@@ATL@@V23@H@Z$31
	DD	010H
	DD	FLAT:__unwindfunclet$?fnStructType2@CChartItemMarket@@QAE?AV?$CStringT@DV?$StrTraitMFC_DLL@DV?$ChTraitsCRT@D@ATL@@@@@ATL@@V23@H@Z$32
	DD	011H
	DD	FLAT:__unwindfunclet$?fnStructType2@CChartItemMarket@@QAE?AV?$CStringT@DV?$StrTraitMFC_DLL@DV?$ChTraitsCRT@D@ATL@@@@@ATL@@V23@H@Z$33
	DD	07H
	DD	FLAT:__unwindfunclet$?fnStructType2@CChartItemMarket@@QAE?AV?$CStringT@DV?$StrTraitMFC_DLL@DV?$ChTraitsCRT@D@ATL@@@@@ATL@@V23@H@Z$34
	DD	07H
	DD	FLAT:__unwindfunclet$?fnStructType2@CChartItemMarket@@QAE?AV?$CStringT@DV?$StrTraitMFC_DLL@DV?$ChTraitsCRT@D@ATL@@@@@ATL@@V23@H@Z$35
	DD	07H
	DD	FLAT:__unwindfunclet$?fnStructType2@CChartItemMarket@@QAE?AV?$CStringT@DV?$StrTraitMFC_DLL@DV?$ChTraitsCRT@D@ATL@@@@@ATL@@V23@H@Z$36
	DD	07H
	DD	FLAT:__unwindfunclet$?fnStructType2@CChartItemMarket@@QAE?AV?$CStringT@DV?$StrTraitMFC_DLL@DV?$ChTraitsCRT@D@ATL@@@@@ATL@@V23@H@Z$37
	DD	07H
	DD	FLAT:__unwindfunclet$?fnStructType2@CChartItemMarket@@QAE?AV?$CStringT@DV?$StrTraitMFC_DLL@DV?$ChTraitsCRT@D@ATL@@@@@ATL@@V23@H@Z$38
	DD	07H
	DD	FLAT:__unwindfunclet$?fnStructType2@CChartItemMarket@@QAE?AV?$CStringT@DV?$StrTraitMFC_DLL@DV?$ChTraitsCRT@D@ATL@@@@@ATL@@V23@H@Z$39
xdata$x	ENDS
;	COMDAT xdata$x
xdata$x	SEGMENT
__ehfuncinfo$?fnStructType1@CChartItemMarket@@QAE?AV?$CStringT@DV?$StrTraitMFC_DLL@DV?$ChTraitsCRT@D@ATL@@@@@ATL@@V23@H@Z DD 019930522H
	DD	014H
	DD	FLAT:__unwindtable$?fnStructType1@CChartItemMarket@@QAE?AV?$CStringT@DV?$StrTraitMFC_DLL@DV?$ChTraitsCRT@D@ATL@@@@@ATL@@V23@H@Z
	DD	2 DUP(00H)
	DD	2 DUP(00H)
	DD	00H
	DD	01H
__unwindtable$?fnStructType1@CChartItemMarket@@QAE?AV?$CStringT@DV?$StrTraitMFC_DLL@DV?$ChTraitsCRT@D@ATL@@@@@ATL@@V23@H@Z DD 0ffffffffH
	DD	FLAT:__unwindfunclet$?fnStructType1@CChartItemMarket@@QAE?AV?$CStringT@DV?$StrTraitMFC_DLL@DV?$ChTraitsCRT@D@ATL@@@@@ATL@@V23@H@Z$0
	DD	00H
	DD	FLAT:__unwindfunclet$?fnStructType1@CChartItemMarket@@QAE?AV?$CStringT@DV?$StrTraitMFC_DLL@DV?$ChTraitsCRT@D@ATL@@@@@ATL@@V23@H@Z$2
	DD	01H
	DD	FLAT:__unwindfunclet$?fnStructType1@CChartItemMarket@@QAE?AV?$CStringT@DV?$StrTraitMFC_DLL@DV?$ChTraitsCRT@D@ATL@@@@@ATL@@V23@H@Z$3
	DD	02H
	DD	FLAT:__unwindfunclet$?fnStructType1@CChartItemMarket@@QAE?AV?$CStringT@DV?$StrTraitMFC_DLL@DV?$ChTraitsCRT@D@ATL@@@@@ATL@@V23@H@Z$4
	DD	03H
	DD	FLAT:__unwindfunclet$?fnStructType1@CChartItemMarket@@QAE?AV?$CStringT@DV?$StrTraitMFC_DLL@DV?$ChTraitsCRT@D@ATL@@@@@ATL@@V23@H@Z$5
	DD	04H
	DD	FLAT:__unwindfunclet$?fnStructType1@CChartItemMarket@@QAE?AV?$CStringT@DV?$StrTraitMFC_DLL@DV?$ChTraitsCRT@D@ATL@@@@@ATL@@V23@H@Z$6
	DD	05H
	DD	FLAT:__unwindfunclet$?fnStructType1@CChartItemMarket@@QAE?AV?$CStringT@DV?$StrTraitMFC_DLL@DV?$ChTraitsCRT@D@ATL@@@@@ATL@@V23@H@Z$7
	DD	06H
	DD	FLAT:__unwindfunclet$?fnStructType1@CChartItemMarket@@QAE?AV?$CStringT@DV?$StrTraitMFC_DLL@DV?$ChTraitsCRT@D@ATL@@@@@ATL@@V23@H@Z$8
	DD	07H
	DD	FLAT:__unwindfunclet$?fnStructType1@CChartItemMarket@@QAE?AV?$CStringT@DV?$StrTraitMFC_DLL@DV?$ChTraitsCRT@D@ATL@@@@@ATL@@V23@H@Z$9
	DD	08H
	DD	FLAT:__unwindfunclet$?fnStructType1@CChartItemMarket@@QAE?AV?$CStringT@DV?$StrTraitMFC_DLL@DV?$ChTraitsCRT@D@ATL@@@@@ATL@@V23@H@Z$10
	DD	09H
	DD	FLAT:__unwindfunclet$?fnStructType1@CChartItemMarket@@QAE?AV?$CStringT@DV?$StrTraitMFC_DLL@DV?$ChTraitsCRT@D@ATL@@@@@ATL@@V23@H@Z$11
	DD	0aH
	DD	FLAT:__unwindfunclet$?fnStructType1@CChartItemMarket@@QAE?AV?$CStringT@DV?$StrTraitMFC_DLL@DV?$ChTraitsCRT@D@ATL@@@@@ATL@@V23@H@Z$12
	DD	0bH
	DD	FLAT:__unwindfunclet$?fnStructType1@CChartItemMarket@@QAE?AV?$CStringT@DV?$StrTraitMFC_DLL@DV?$ChTraitsCRT@D@ATL@@@@@ATL@@V23@H@Z$13
	DD	0cH
	DD	FLAT:__unwindfunclet$?fnStructType1@CChartItemMarket@@QAE?AV?$CStringT@DV?$StrTraitMFC_DLL@DV?$ChTraitsCRT@D@ATL@@@@@ATL@@V23@H@Z$14
	DD	0dH
	DD	FLAT:__unwindfunclet$?fnStructType1@CChartItemMarket@@QAE?AV?$CStringT@DV?$StrTraitMFC_DLL@DV?$ChTraitsCRT@D@ATL@@@@@ATL@@V23@H@Z$15
	DD	0dH
	DD	FLAT:__unwindfunclet$?fnStructType1@CChartItemMarket@@QAE?AV?$CStringT@DV?$StrTraitMFC_DLL@DV?$ChTraitsCRT@D@ATL@@@@@ATL@@V23@H@Z$16
	DD	0dH
	DD	FLAT:__unwindfunclet$?fnStructType1@CChartItemMarket@@QAE?AV?$CStringT@DV?$StrTraitMFC_DLL@DV?$ChTraitsCRT@D@ATL@@@@@ATL@@V23@H@Z$17
	DD	010H
	DD	FLAT:__unwindfunclet$?fnStructType1@CChartItemMarket@@QAE?AV?$CStringT@DV?$StrTraitMFC_DLL@DV?$ChTraitsCRT@D@ATL@@@@@ATL@@V23@H@Z$18
	DD	0dH
	DD	FLAT:__unwindfunclet$?fnStructType1@CChartItemMarket@@QAE?AV?$CStringT@DV?$StrTraitMFC_DLL@DV?$ChTraitsCRT@D@ATL@@@@@ATL@@V23@H@Z$19
	DD	012H
	DD	FLAT:__unwindfunclet$?fnStructType1@CChartItemMarket@@QAE?AV?$CStringT@DV?$StrTraitMFC_DLL@DV?$ChTraitsCRT@D@ATL@@@@@ATL@@V23@H@Z$20
xdata$x	ENDS
;	COMDAT xdata$x
xdata$x	SEGMENT
__unwindtable$?GetSendDataType@CChartItemMarket@@QAE?AV?$CStringT@DV?$StrTraitMFC_DLL@DV?$ChTraitsCRT@D@ATL@@@@@ATL@@H@Z DD 0ffffffffH
	DD	FLAT:__unwindfunclet$?GetSendDataType@CChartItemMarket@@QAE?AV?$CStringT@DV?$StrTraitMFC_DLL@DV?$ChTraitsCRT@D@ATL@@@@@ATL@@H@Z$0
__ehfuncinfo$?GetSendDataType@CChartItemMarket@@QAE?AV?$CStringT@DV?$StrTraitMFC_DLL@DV?$ChTraitsCRT@D@ATL@@@@@ATL@@H@Z DD 019930522H
	DD	01H
	DD	FLAT:__unwindtable$?GetSendDataType@CChartItemMarket@@QAE?AV?$CStringT@DV?$StrTraitMFC_DLL@DV?$ChTraitsCRT@D@ATL@@@@@ATL@@H@Z
	DD	2 DUP(00H)
	DD	2 DUP(00H)
	DD	00H
	DD	01H
xdata$x	ENDS
;	COMDAT xdata$x
xdata$x	SEGMENT
__unwindtable$?GetSendDataType@CChartItemMarket@@QAEHXZ DD 0ffffffffH
	DD	FLAT:__unwindfunclet$?GetSendDataType@CChartItemMarket@@QAEHXZ$0
	DD	00H
	DD	FLAT:__unwindfunclet$?GetSendDataType@CChartItemMarket@@QAEHXZ$1
__ehfuncinfo$?GetSendDataType@CChartItemMarket@@QAEHXZ DD 019930522H
	DD	02H
	DD	FLAT:__unwindtable$?GetSendDataType@CChartItemMarket@@QAEHXZ
	DD	2 DUP(00H)
	DD	2 DUP(00H)
	DD	00H
	DD	01H
xdata$x	ENDS
;	COMDAT xdata$x
xdata$x	SEGMENT
__ehfuncinfo$?Convert2Struct@CChartItemMarket@@QAEPADPAEHHAAH@Z DD 019930522H
	DD	02dH
	DD	FLAT:__unwindtable$?Convert2Struct@CChartItemMarket@@QAEPADPAEHHAAH@Z
	DD	2 DUP(00H)
	DD	2 DUP(00H)
	DD	00H
	DD	01H
__unwindtable$?Convert2Struct@CChartItemMarket@@QAEPADPAEHHAAH@Z DD 0ffffffffH
	DD	FLAT:__unwindfunclet$?Convert2Struct@CChartItemMarket@@QAEPADPAEHHAAH@Z$0
	DD	00H
	DD	FLAT:__unwindfunclet$?Convert2Struct@CChartItemMarket@@QAEPADPAEHHAAH@Z$1
	DD	01H
	DD	FLAT:__unwindfunclet$?Convert2Struct@CChartItemMarket@@QAEPADPAEHHAAH@Z$2
	DD	02H
	DD	FLAT:__unwindfunclet$?Convert2Struct@CChartItemMarket@@QAEPADPAEHHAAH@Z$3
	DD	03H
	DD	FLAT:__unwindfunclet$?Convert2Struct@CChartItemMarket@@QAEPADPAEHHAAH@Z$4
	DD	04H
	DD	FLAT:__unwindfunclet$?Convert2Struct@CChartItemMarket@@QAEPADPAEHHAAH@Z$5
	DD	05H
	DD	FLAT:__unwindfunclet$?Convert2Struct@CChartItemMarket@@QAEPADPAEHHAAH@Z$6
	DD	06H
	DD	FLAT:__unwindfunclet$?Convert2Struct@CChartItemMarket@@QAEPADPAEHHAAH@Z$7
	DD	07H
	DD	FLAT:__unwindfunclet$?Convert2Struct@CChartItemMarket@@QAEPADPAEHHAAH@Z$8
	DD	08H
	DD	FLAT:__unwindfunclet$?Convert2Struct@CChartItemMarket@@QAEPADPAEHHAAH@Z$9
	DD	09H
	DD	FLAT:__unwindfunclet$?Convert2Struct@CChartItemMarket@@QAEPADPAEHHAAH@Z$10
	DD	0aH
	DD	FLAT:__unwindfunclet$?Convert2Struct@CChartItemMarket@@QAEPADPAEHHAAH@Z$11
	DD	0bH
	DD	FLAT:__unwindfunclet$?Convert2Struct@CChartItemMarket@@QAEPADPAEHHAAH@Z$12
	DD	0cH
	DD	FLAT:__unwindfunclet$?Convert2Struct@CChartItemMarket@@QAEPADPAEHHAAH@Z$13
	DD	0dH
	DD	FLAT:__unwindfunclet$?Convert2Struct@CChartItemMarket@@QAEPADPAEHHAAH@Z$14
	DD	0dH
	DD	FLAT:__unwindfunclet$?Convert2Struct@CChartItemMarket@@QAEPADPAEHHAAH@Z$15
	DD	0dH
	DD	FLAT:__unwindfunclet$?Convert2Struct@CChartItemMarket@@QAEPADPAEHHAAH@Z$16
	DD	0dH
	DD	FLAT:__unwindfunclet$?Convert2Struct@CChartItemMarket@@QAEPADPAEHHAAH@Z$17
	DD	0dH
	DD	FLAT:__unwindfunclet$?Convert2Struct@CChartItemMarket@@QAEPADPAEHHAAH@Z$18
	DD	0dH
	DD	FLAT:__unwindfunclet$?Convert2Struct@CChartItemMarket@@QAEPADPAEHHAAH@Z$19
	DD	0dH
	DD	FLAT:__unwindfunclet$?Convert2Struct@CChartItemMarket@@QAEPADPAEHHAAH@Z$20
	DD	0dH
	DD	FLAT:__unwindfunclet$?Convert2Struct@CChartItemMarket@@QAEPADPAEHHAAH@Z$22
	DD	0dH
	DD	FLAT:__unwindfunclet$?Convert2Struct@CChartItemMarket@@QAEPADPAEHHAAH@Z$24
	DD	016H
	DD	FLAT:__unwindfunclet$?Convert2Struct@CChartItemMarket@@QAEPADPAEHHAAH@Z$25
	DD	016H
	DD	FLAT:__unwindfunclet$?Convert2Struct@CChartItemMarket@@QAEPADPAEHHAAH@Z$27
	DD	016H
	DD	FLAT:__unwindfunclet$?Convert2Struct@CChartItemMarket@@QAEPADPAEHHAAH@Z$29
	DD	016H
	DD	FLAT:__unwindfunclet$?Convert2Struct@CChartItemMarket@@QAEPADPAEHHAAH@Z$30
	DD	01aH
	DD	FLAT:__unwindfunclet$?Convert2Struct@CChartItemMarket@@QAEPADPAEHHAAH@Z$31
	DD	01bH
	DD	FLAT:__unwindfunclet$?Convert2Struct@CChartItemMarket@@QAEPADPAEHHAAH@Z$32
	DD	01cH
	DD	FLAT:__unwindfunclet$?Convert2Struct@CChartItemMarket@@QAEPADPAEHHAAH@Z$49
	DD	01dH
	DD	FLAT:__unwindfunclet$?Convert2Struct@CChartItemMarket@@QAEPADPAEHHAAH@Z$50
	DD	01aH
	DD	FLAT:___std_terminate
	DD	0dH
	DD	FLAT:__unwindfunclet$?Convert2Struct@CChartItemMarket@@QAEPADPAEHHAAH@Z$34
	DD	0dH
	DD	FLAT:__unwindfunclet$?Convert2Struct@CChartItemMarket@@QAEPADPAEHHAAH@Z$36
	DD	021H
	DD	FLAT:__unwindfunclet$?Convert2Struct@CChartItemMarket@@QAEPADPAEHHAAH@Z$37
	DD	021H
	DD	FLAT:__unwindfunclet$?Convert2Struct@CChartItemMarket@@QAEPADPAEHHAAH@Z$39
	DD	021H
	DD	FLAT:__unwindfunclet$?Convert2Struct@CChartItemMarket@@QAEPADPAEHHAAH@Z$41
	DD	021H
	DD	FLAT:__unwindfunclet$?Convert2Struct@CChartItemMarket@@QAEPADPAEHHAAH@Z$43
	DD	021H
	DD	FLAT:__unwindfunclet$?Convert2Struct@CChartItemMarket@@QAEPADPAEHHAAH@Z$45
	DD	021H
	DD	FLAT:__unwindfunclet$?Convert2Struct@CChartItemMarket@@QAEPADPAEHHAAH@Z$46
	DD	027H
	DD	FLAT:__unwindfunclet$?Convert2Struct@CChartItemMarket@@QAEPADPAEHHAAH@Z$47
	DD	028H
	DD	FLAT:__unwindfunclet$?Convert2Struct@CChartItemMarket@@QAEPADPAEHHAAH@Z$48
	DD	029H
	DD	FLAT:__unwindfunclet$?Convert2Struct@CChartItemMarket@@QAEPADPAEHHAAH@Z$53
	DD	02aH
	DD	FLAT:__unwindfunclet$?Convert2Struct@CChartItemMarket@@QAEPADPAEHHAAH@Z$54
	DD	027H
	DD	FLAT:___std_terminate
xdata$x	ENDS
;	COMDAT xdata$x
xdata$x	SEGMENT
__unwindtable$?Convert@CChartItemMarket@@QAE?AV?$CStringT@DV?$StrTraitMFC_DLL@DV?$ChTraitsCRT@D@ATL@@@@@ATL@@XZ DD 0ffffffffH
	DD	FLAT:__unwindfunclet$?Convert@CChartItemMarket@@QAE?AV?$CStringT@DV?$StrTraitMFC_DLL@DV?$ChTraitsCRT@D@ATL@@@@@ATL@@XZ$1
	DD	00H
	DD	FLAT:__unwindfunclet$?Convert@CChartItemMarket@@QAE?AV?$CStringT@DV?$StrTraitMFC_DLL@DV?$ChTraitsCRT@D@ATL@@@@@ATL@@XZ$2
	DD	01H
	DD	FLAT:__unwindfunclet$?Convert@CChartItemMarket@@QAE?AV?$CStringT@DV?$StrTraitMFC_DLL@DV?$ChTraitsCRT@D@ATL@@@@@ATL@@XZ$3
__ehfuncinfo$?Convert@CChartItemMarket@@QAE?AV?$CStringT@DV?$StrTraitMFC_DLL@DV?$ChTraitsCRT@D@ATL@@@@@ATL@@XZ DD 019930522H
	DD	03H
	DD	FLAT:__unwindtable$?Convert@CChartItemMarket@@QAE?AV?$CStringT@DV?$StrTraitMFC_DLL@DV?$ChTraitsCRT@D@ATL@@@@@ATL@@XZ
	DD	2 DUP(00H)
	DD	2 DUP(00H)
	DD	00H
	DD	01H
xdata$x	ENDS
;	COMDAT xdata$x
xdata$x	SEGMENT
__unwindtable$??0CChartBozoItem@@QAE@HPBD0@Z DD 0ffffffffH
	DD	FLAT:__unwindfunclet$??0CChartBozoItem@@QAE@HPBD0@Z$0
	DD	00H
	DD	FLAT:__unwindfunclet$??0CChartBozoItem@@QAE@HPBD0@Z$1
__ehfuncinfo$??0CChartBozoItem@@QAE@HPBD0@Z DD 019930522H
	DD	02H
	DD	FLAT:__unwindtable$??0CChartBozoItem@@QAE@HPBD0@Z
	DD	2 DUP(00H)
	DD	2 DUP(00H)
	DD	00H
	DD	01H
xdata$x	ENDS
;	COMDAT xdata$x
xdata$x	SEGMENT
__unwindtable$??HATL@@YA?AV?$CStringT@DV?$StrTraitMFC_DLL@DV?$ChTraitsCRT@D@ATL@@@@@0@PBDABV10@@Z DD 0ffffffffH
	DD	FLAT:__unwindfunclet$??HATL@@YA?AV?$CStringT@DV?$StrTraitMFC_DLL@DV?$ChTraitsCRT@D@ATL@@@@@0@PBDABV10@@Z$0
__ehfuncinfo$??HATL@@YA?AV?$CStringT@DV?$StrTraitMFC_DLL@DV?$ChTraitsCRT@D@ATL@@@@@0@PBDABV10@@Z DD 019930522H
	DD	01H
	DD	FLAT:__unwindtable$??HATL@@YA?AV?$CStringT@DV?$StrTraitMFC_DLL@DV?$ChTraitsCRT@D@ATL@@@@@0@PBDABV10@@Z
	DD	2 DUP(00H)
	DD	2 DUP(00H)
	DD	00H
	DD	01H
xdata$x	ENDS
;	COMDAT xdata$x
xdata$x	SEGMENT
__unwindtable$??HATL@@YA?AV?$CStringT@DV?$StrTraitMFC_DLL@DV?$ChTraitsCRT@D@ATL@@@@@0@ABV10@PBD@Z DD 0ffffffffH
	DD	FLAT:__unwindfunclet$??HATL@@YA?AV?$CStringT@DV?$StrTraitMFC_DLL@DV?$ChTraitsCRT@D@ATL@@@@@0@ABV10@PBD@Z$0
__ehfuncinfo$??HATL@@YA?AV?$CStringT@DV?$StrTraitMFC_DLL@DV?$ChTraitsCRT@D@ATL@@@@@0@ABV10@PBD@Z DD 019930522H
	DD	01H
	DD	FLAT:__unwindtable$??HATL@@YA?AV?$CStringT@DV?$StrTraitMFC_DLL@DV?$ChTraitsCRT@D@ATL@@@@@0@ABV10@PBD@Z
	DD	2 DUP(00H)
	DD	2 DUP(00H)
	DD	00H
	DD	01H
xdata$x	ENDS
;	COMDAT xdata$x
xdata$x	SEGMENT
__unwindtable$??HATL@@YA?AV?$CStringT@DV?$StrTraitMFC_DLL@DV?$ChTraitsCRT@D@ATL@@@@@0@ABV10@0@Z DD 0ffffffffH
	DD	FLAT:__unwindfunclet$??HATL@@YA?AV?$CStringT@DV?$StrTraitMFC_DLL@DV?$ChTraitsCRT@D@ATL@@@@@0@ABV10@0@Z$0
__ehfuncinfo$??HATL@@YA?AV?$CStringT@DV?$StrTraitMFC_DLL@DV?$ChTraitsCRT@D@ATL@@@@@0@ABV10@0@Z DD 019930522H
	DD	01H
	DD	FLAT:__unwindtable$??HATL@@YA?AV?$CStringT@DV?$StrTraitMFC_DLL@DV?$ChTraitsCRT@D@ATL@@@@@0@ABV10@0@Z
	DD	2 DUP(00H)
	DD	2 DUP(00H)
	DD	00H
	DD	01H
xdata$x	ENDS
CRT$XCU	SEGMENT
?RMSG_GETPCTRDATA$initializer$@@3P6AXXZA DD FLAT:??__ERMSG_GETPCTRDATA@@YAXXZ ; RMSG_GETPCTRDATA$initializer$
CRT$XCU	ENDS
CRT$XCU	SEGMENT
?RMSG_SETPCTRDATA$initializer$@@3P6AXXZA DD FLAT:??__ERMSG_SETPCTRDATA@@YAXXZ ; RMSG_SETPCTRDATA$initializer$
CRT$XCU	ENDS
CRT$XCU	SEGMENT
?RMSG_GETSIGNAL_REAL$initializer$@@3P6AXXZA DD FLAT:??__ERMSG_GETSIGNAL_REAL@@YAXXZ ; RMSG_GETSIGNAL_REAL$initializer$
CRT$XCU	ENDS
; Function compile flags: /Ogtp
; File C:\Program Files (x86)\Microsoft Visual Studio\2019\Community\VC\Tools\MSVC\14.29.30133\atlmfc\include\afxtempl.h
; File C:\Program Files (x86)\Microsoft Visual Studio\2019\Community\VC\Tools\MSVC\14.29.30133\atlmfc\include\afx.inl
; File C:\Program Files (x86)\Microsoft Visual Studio\2019\Community\VC\Tools\MSVC\14.29.30133\atlmfc\include\afxtempl.h
; File C:\Program Files (x86)\Microsoft Visual Studio\2019\Community\VC\Tools\MSVC\14.29.30133\atlmfc\include\afx.inl
; File C:\Program Files (x86)\Microsoft Visual Studio\2019\Community\VC\Tools\MSVC\14.29.30133\atlmfc\include\afxtempl.h
; File C:\Program Files (x86)\Microsoft Visual Studio\2019\Community\VC\Tools\MSVC\14.29.30133\atlmfc\include\afx.inl
; File C:\Program Files (x86)\Microsoft Visual Studio\2019\Community\VC\Tools\MSVC\14.29.30133\atlmfc\include\afxtempl.h
;	COMDAT ??$SerializeElements@PAVCChartBozoItem@@@@YGXAAVCArchive@@PAPAVCChartBozoItem@@H@Z
_TEXT	SEGMENT
_ar$ = 8						; size = 4
_pElements$ = 12					; size = 4
_nCount$ = 16						; size = 4
??$SerializeElements@PAVCChartBozoItem@@@@YGXAAVCArchive@@PAPAVCChartBozoItem@@H@Z PROC ; SerializeElements<CChartBozoItem *>, COMDAT

; 67   : {

  00000	55		 push	 ebp
  00001	8b ec		 mov	 ebp, esp

; 68   : 	ENSURE(nCount == 0 || pElements != NULL);

  00003	8b 4d 0c	 mov	 ecx, DWORD PTR _pElements$[ebp]
  00006	53		 push	 ebx
  00007	56		 push	 esi
  00008	8b 75 10	 mov	 esi, DWORD PTR _nCount$[ebp]
  0000b	57		 push	 edi
  0000c	85 f6		 test	 esi, esi
  0000e	74 08		 je	 SHORT $LN2@SerializeE
  00010	85 c9		 test	 ecx, ecx
  00012	0f 84 89 00 00
	00		 je	 $LN34@SerializeE
$LN2@SerializeE:
; File C:\Program Files (x86)\Microsoft Visual Studio\2019\Community\VC\Tools\MSVC\14.29.30133\atlmfc\include\afx.inl

; 212  : 	{ return (m_nMode & CArchive::load) == 0; }

  00018	8b 55 08	 mov	 edx, DWORD PTR _ar$[ebp]
  0001b	8b 42 18	 mov	 eax, DWORD PTR [edx+24]
  0001e	f7 d0		 not	 eax
  00020	a8 01		 test	 al, 1
; File C:\Program Files (x86)\Microsoft Visual Studio\2019\Community\VC\Tools\MSVC\14.29.30133\atlmfc\include\afxtempl.h

; 73   : 	if (ar.IsStoring())

  00022	74 3c		 je	 SHORT $LN10@SerializeE

; 74   : 	{
; 75   : 		TYPE* pData;
; 76   : 		UINT_PTR nElementsLeft;
; 77   : 
; 78   : 		nElementsLeft = nCount;
; 79   : 		pData = pElements;
; 80   : 		while( nElementsLeft > 0 )

  00024	85 f6		 test	 esi, esi
  00026	74 31		 je	 SHORT $LN8@SerializeE
  00028	0f 1f 84 00 00
	00 00 00	 npad	 8
$LL5@SerializeE:

; 81   : 		{
; 82   : 			UINT nElementsToWrite;
; 83   : 
; 84   : 			nElementsToWrite = UINT(__min(nElementsLeft, INT_MAX/sizeof(TYPE)));

  00030	bb ff ff ff 1f	 mov	 ebx, 536870911		; 1fffffffH
  00035	3b f3		 cmp	 esi, ebx
  00037	0f 42 de	 cmovb	 ebx, esi

; 85   : 			ar.Write(pData, nElementsToWrite*sizeof(TYPE));

  0003a	8d 3c 9d 00 00
	00 00		 lea	 edi, DWORD PTR [ebx*4]
  00041	57		 push	 edi
  00042	51		 push	 ecx
  00043	8b ca		 mov	 ecx, edx
  00045	e8 00 00 00 00	 call	 ?Write@CArchive@@QAEXPBXI@Z ; CArchive::Write

; 86   : 			nElementsLeft -= nElementsToWrite;
; 87   : 			pData += nElementsToWrite;

  0004a	8b 4d 0c	 mov	 ecx, DWORD PTR _pElements$[ebp]
  0004d	8b 55 08	 mov	 edx, DWORD PTR _ar$[ebp]
  00050	03 cf		 add	 ecx, edi
  00052	89 4d 0c	 mov	 DWORD PTR _pElements$[ebp], ecx
  00055	2b f3		 sub	 esi, ebx
  00057	75 d7		 jne	 SHORT $LL5@SerializeE
$LN8@SerializeE:
  00059	5f		 pop	 edi

; 105  : 		}
; 106  : 	}
; 107  : }

  0005a	5e		 pop	 esi
  0005b	5b		 pop	 ebx
  0005c	5d		 pop	 ebp
  0005d	c2 0c 00	 ret	 12			; 0000000cH
$LN10@SerializeE:

; 97   : 		while( nElementsLeft > 0 )

  00060	85 f6		 test	 esi, esi
  00062	74 f5		 je	 SHORT $LN8@SerializeE
$LL7@SerializeE:

; 98   : 		{
; 99   : 			UINT nElementsToRead;
; 100  : 
; 101  : 			nElementsToRead = UINT(__min(nElementsLeft, INT_MAX/sizeof(TYPE)));

  00064	bf ff ff ff 1f	 mov	 edi, 536870911		; 1fffffffH
  00069	3b f7		 cmp	 esi, edi
  0006b	0f 42 fe	 cmovb	 edi, esi

; 102  : 			ar.EnsureRead(pData, nElementsToRead*sizeof(TYPE));

  0006e	8d 1c bd 00 00
	00 00		 lea	 ebx, DWORD PTR [edi*4]
; File C:\Program Files (x86)\Microsoft Visual Studio\2019\Community\VC\Tools\MSVC\14.29.30133\atlmfc\include\afx.inl

; 399  : 	UINT nRead=Read(lpBuf, nCount);

  00075	53		 push	 ebx
  00076	51		 push	 ecx
  00077	8b ca		 mov	 ecx, edx
  00079	e8 00 00 00 00	 call	 ?Read@CArchive@@QAEIPAXI@Z ; CArchive::Read

; 400  : 	if(nRead!=nCount)

  0007e	3b c3		 cmp	 eax, ebx
  00080	75 16		 jne	 SHORT $LN23@SerializeE
; File C:\Program Files (x86)\Microsoft Visual Studio\2019\Community\VC\Tools\MSVC\14.29.30133\atlmfc\include\afxtempl.h

; 97   : 		while( nElementsLeft > 0 )

  00082	8b 4d 0c	 mov	 ecx, DWORD PTR _pElements$[ebp]
  00085	8b 55 08	 mov	 edx, DWORD PTR _ar$[ebp]

; 103  : 			nElementsLeft -= nElementsToRead;
; 104  : 			pData += nElementsToRead;

  00088	03 cb		 add	 ecx, ebx
  0008a	89 4d 0c	 mov	 DWORD PTR _pElements$[ebp], ecx
  0008d	2b f7		 sub	 esi, edi
  0008f	75 d3		 jne	 SHORT $LL7@SerializeE

; 105  : 		}
; 106  : 	}
; 107  : }

  00091	5f		 pop	 edi
  00092	5e		 pop	 esi
  00093	5b		 pop	 ebx
  00094	5d		 pop	 ebp
  00095	c2 0c 00	 ret	 12			; 0000000cH
$LN23@SerializeE:
; File C:\Program Files (x86)\Microsoft Visual Studio\2019\Community\VC\Tools\MSVC\14.29.30133\atlmfc\include\afx.inl

; 402  : 		AfxThrowArchiveException(CArchiveException::endOfFile);

  00098	6a 00		 push	 0
  0009a	6a 03		 push	 3
  0009c	e8 00 00 00 00	 call	 ?AfxThrowArchiveException@@YGXHPBD@Z ; AfxThrowArchiveException
$LN34@SerializeE:
; File C:\Program Files (x86)\Microsoft Visual Studio\2019\Community\VC\Tools\MSVC\14.29.30133\atlmfc\include\afxtempl.h

; 68   : 	ENSURE(nCount == 0 || pElements != NULL);

  000a1	e8 00 00 00 00	 call	 ?AfxThrowInvalidArgException@@YGXXZ ; AfxThrowInvalidArgException
$LN32@SerializeE:
  000a6	cc		 int	 3
??$SerializeElements@PAVCChartBozoItem@@@@YGXAAVCArchive@@PAPAVCChartBozoItem@@H@Z ENDP ; SerializeElements<CChartBozoItem *>
_TEXT	ENDS
; Function compile flags: /Ogtp
; File C:\Program Files (x86)\Microsoft Visual Studio\2019\Community\VC\Tools\MSVC\14.29.30133\atlmfc\include\afxtempl.h
; File C:\Program Files (x86)\Microsoft Visual Studio\2019\Community\VC\Tools\MSVC\14.29.30133\atlmfc\include\afx.inl
;	COMDAT ??_G?$CList@PAVCChartBozoItem@@PAV1@@@UAEPAXI@Z
_TEXT	SEGMENT
__$EHRec$ = -12						; size = 12
___flags$ = 8						; size = 4
??_G?$CList@PAVCChartBozoItem@@PAV1@@@UAEPAXI@Z PROC	; CList<CChartBozoItem *,CChartBozoItem *>::`scalar deleting destructor', COMDAT
; _this$ = ecx
  00000	55		 push	 ebp
  00001	8b ec		 mov	 ebp, esp
  00003	6a ff		 push	 -1
  00005	68 00 00 00 00	 push	 __ehhandler$??_G?$CList@PAVCChartBozoItem@@PAV1@@@UAEPAXI@Z
  0000a	64 a1 00 00 00
	00		 mov	 eax, DWORD PTR fs:0
  00010	50		 push	 eax
  00011	56		 push	 esi
  00012	a1 00 00 00 00	 mov	 eax, DWORD PTR ___security_cookie
  00017	33 c5		 xor	 eax, ebp
  00019	50		 push	 eax
  0001a	8d 45 f4	 lea	 eax, DWORD PTR __$EHRec$[ebp]
  0001d	64 a3 00 00 00
	00		 mov	 DWORD PTR fs:0, eax
  00023	8b f1		 mov	 esi, ecx
; File C:\Program Files (x86)\Microsoft Visual Studio\2019\Community\VC\Tools\MSVC\14.29.30133\atlmfc\include\afxtempl.h

; 872  : 	m_pBlocks->FreeDataChain();

  00025	8b 4e 14	 mov	 ecx, DWORD PTR [esi+20]

; 878  : {

  00028	c7 45 fc 00 00
	00 00		 mov	 DWORD PTR __$EHRec$[ebp+8], 0
  0002f	c7 06 00 00 00
	00		 mov	 DWORD PTR [esi], OFFSET ??_7?$CList@PAVCChartBozoItem@@PAV1@@@6B@

; 870  : 	m_nCount = 0;

  00035	c7 46 0c 00 00
	00 00		 mov	 DWORD PTR [esi+12], 0

; 871  : 	m_pNodeHead = m_pNodeTail = m_pNodeFree = NULL;

  0003c	c7 46 10 00 00
	00 00		 mov	 DWORD PTR [esi+16], 0
  00043	c7 46 08 00 00
	00 00		 mov	 DWORD PTR [esi+8], 0
  0004a	c7 46 04 00 00
	00 00		 mov	 DWORD PTR [esi+4], 0

; 872  : 	m_pBlocks->FreeDataChain();

  00051	e8 00 00 00 00	 call	 ?FreeDataChain@CPlex@@QAEXXZ ; CPlex::FreeDataChain

; 873  : 	m_pBlocks = NULL;

  00056	8b 45 08	 mov	 eax, DWORD PTR ___flags$[ebp]
  00059	c7 46 14 00 00
	00 00		 mov	 DWORD PTR [esi+20], 0
  00060	a8 01		 test	 al, 1
  00062	74 2c		 je	 SHORT $LN22@scalar
  00064	a8 04		 test	 al, 4
  00066	75 1d		 jne	 SHORT $LN3@scalar
; File C:\Program Files (x86)\Microsoft Visual Studio\2019\Community\VC\Tools\MSVC\14.29.30133\atlmfc\include\afx.inl

; 112  : 	{ ::operator delete(p); }

  00068	56		 push	 esi
  00069	e8 00 00 00 00	 call	 ??3@YAXPAX@Z		; operator delete
  0006e	83 c4 04	 add	 esp, 4
  00071	8b c6		 mov	 eax, esi
  00073	8b 4d f4	 mov	 ecx, DWORD PTR __$EHRec$[ebp]
  00076	64 89 0d 00 00
	00 00		 mov	 DWORD PTR fs:0, ecx
  0007d	59		 pop	 ecx
  0007e	5e		 pop	 esi
  0007f	8b e5		 mov	 esp, ebp
  00081	5d		 pop	 ebp
  00082	c2 04 00	 ret	 4
$LN3@scalar:
  00085	6a 1c		 push	 28			; 0000001cH
  00087	56		 push	 esi
  00088	e8 00 00 00 00	 call	 ?__global_delete@@YAXPAXI@Z ; __global_delete
  0008d	83 c4 08	 add	 esp, 8
$LN22@scalar:
  00090	8b c6		 mov	 eax, esi
  00092	8b 4d f4	 mov	 ecx, DWORD PTR __$EHRec$[ebp]
  00095	64 89 0d 00 00
	00 00		 mov	 DWORD PTR fs:0, ecx
  0009c	59		 pop	 ecx
  0009d	5e		 pop	 esi
  0009e	8b e5		 mov	 esp, ebp
  000a0	5d		 pop	 ebp
  000a1	c2 04 00	 ret	 4
  000a4	cc		 int	 3
  000a5	cc		 int	 3
  000a6	cc		 int	 3
  000a7	cc		 int	 3
  000a8	cc		 int	 3
_TEXT	ENDS
;	COMDAT text$x
text$x	SEGMENT
__ehhandler$??_G?$CList@PAVCChartBozoItem@@PAV1@@@UAEPAXI@Z:
  00000	90		 npad	 1
  00001	90		 npad	 1
  00002	8b 54 24 08	 mov	 edx, DWORD PTR [esp+8]
  00006	8d 42 0c	 lea	 eax, DWORD PTR [edx+12]
  00009	8b 4a f8	 mov	 ecx, DWORD PTR [edx-8]
  0000c	33 c8		 xor	 ecx, eax
  0000e	e8 00 00 00 00	 call	 @__security_check_cookie@4
  00013	b8 00 00 00 00	 mov	 eax, OFFSET __ehfuncinfo$??_G?$CList@PAVCChartBozoItem@@PAV1@@@UAEPAXI@Z
  00018	e9 00 00 00 00	 jmp	 ___CxxFrameHandler3
text$x	ENDS
??_G?$CList@PAVCChartBozoItem@@PAV1@@@UAEPAXI@Z ENDP	; CList<CChartBozoItem *,CChartBozoItem *>::`scalar deleting destructor'
; Function compile flags: /Ogtp
; File C:\Program Files (x86)\Microsoft Visual Studio\2019\Community\VC\Tools\MSVC\14.29.30133\atlmfc\include\afxtempl.h
; File C:\Program Files (x86)\Microsoft Visual Studio\2019\Community\VC\Tools\MSVC\14.29.30133\atlmfc\include\afx.inl
; File C:\Program Files (x86)\Microsoft Visual Studio\2019\Community\VC\Tools\MSVC\14.29.30133\atlmfc\include\afxtempl.h
; File C:\Program Files (x86)\Microsoft Visual Studio\2019\Community\VC\Tools\MSVC\14.29.30133\atlmfc\include\afx.inl
; File C:\Program Files (x86)\Microsoft Visual Studio\2019\Community\VC\Tools\MSVC\14.29.30133\atlmfc\include\afxtempl.h
; File C:\Program Files (x86)\Microsoft Visual Studio\2019\Community\VC\Tools\MSVC\14.29.30133\atlmfc\include\afx.inl
; File C:\Program Files (x86)\Microsoft Visual Studio\2019\Community\VC\Tools\MSVC\14.29.30133\atlmfc\include\afxtempl.h
; File C:\Program Files (x86)\Microsoft Visual Studio\2019\Community\VC\Tools\MSVC\14.29.30133\atlmfc\include\afx.inl
; File C:\Program Files (x86)\Microsoft Visual Studio\2019\Community\VC\Tools\MSVC\14.29.30133\atlmfc\include\afxtempl.h
; File C:\Program Files (x86)\Microsoft Visual Studio\2019\Community\VC\Tools\MSVC\14.29.30133\atlmfc\include\afx.inl
; File C:\Program Files (x86)\Microsoft Visual Studio\2019\Community\VC\Tools\MSVC\14.29.30133\atlmfc\include\afxtempl.h
; File C:\Program Files (x86)\Microsoft Visual Studio\2019\Community\VC\Tools\MSVC\14.29.30133\atlmfc\include\afx.inl
; File C:\Program Files (x86)\Microsoft Visual Studio\2019\Community\VC\Tools\MSVC\14.29.30133\atlmfc\include\afxtempl.h
;	COMDAT ?Serialize@?$CList@PAVCChartBozoItem@@PAV1@@@UAEXAAVCArchive@@@Z
_TEXT	SEGMENT
_nNewCount$1$ = -16					; size = 4
_newData$1 = -12					; size = 4
_pData$1$ = -8						; size = 4
_pNode$1$ = -8						; size = 4
_nElementsLeft$1$ = -4					; size = 4
_this$1$ = -4						; size = 4
_ar$ = 8						; size = 4
?Serialize@?$CList@PAVCChartBozoItem@@PAV1@@@UAEXAAVCArchive@@@Z PROC ; CList<CChartBozoItem *,CChartBozoItem *>::Serialize, COMDAT
; _this$ = ecx

; 1169 : {

  00000	55		 push	 ebp
  00001	8b ec		 mov	 ebp, esp
  00003	83 ec 10	 sub	 esp, 16			; 00000010H
  00006	53		 push	 ebx
  00007	8b d9		 mov	 ebx, ecx
; File C:\Program Files (x86)\Microsoft Visual Studio\2019\Community\VC\Tools\MSVC\14.29.30133\atlmfc\include\afx.inl

; 212  : 	{ return (m_nMode & CArchive::load) == 0; }

  00009	8b 4d 08	 mov	 ecx, DWORD PTR _ar$[ebp]
; File C:\Program Files (x86)\Microsoft Visual Studio\2019\Community\VC\Tools\MSVC\14.29.30133\atlmfc\include\afxtempl.h

; 1169 : {

  0000c	56		 push	 esi
  0000d	57		 push	 edi
  0000e	89 5d fc	 mov	 DWORD PTR _this$1$[ebp], ebx
; File C:\Program Files (x86)\Microsoft Visual Studio\2019\Community\VC\Tools\MSVC\14.29.30133\atlmfc\include\afx.inl

; 212  : 	{ return (m_nMode & CArchive::load) == 0; }

  00011	8b 41 18	 mov	 eax, DWORD PTR [ecx+24]
  00014	f7 d0		 not	 eax
  00016	a8 01		 test	 al, 1
; File C:\Program Files (x86)\Microsoft Visual Studio\2019\Community\VC\Tools\MSVC\14.29.30133\atlmfc\include\afxtempl.h

; 1174 : 	if (ar.IsStoring())

  00018	0f 84 ae 00 00
	00		 je	 $LN7@Serialize

; 1175 : 	{
; 1176 : 		ar.WriteCount(m_nCount);

  0001e	ff 73 0c	 push	 DWORD PTR [ebx+12]
  00021	e8 00 00 00 00	 call	 ?WriteCount@CArchive@@QAEXK@Z ; CArchive::WriteCount

; 1177 : 		for (CNode* pNode = m_pNodeHead; pNode != NULL; pNode = pNode->pNext)

  00026	8b 43 04	 mov	 eax, DWORD PTR [ebx+4]
  00029	89 45 f8	 mov	 DWORD PTR _pNode$1$[ebp], eax
  0002c	85 c0		 test	 eax, eax
  0002e	0f 84 43 01 00
	00		 je	 $LN68@Serialize
$LL4@Serialize:

; 1178 : 		{
; 1179 : 			ASSERT(AfxIsValidAddress(pNode, sizeof(CNode)));
; 1180 : 			TYPE* pData;
; 1181 : 			/*
; 1182 : 			 * in some cases the & operator might be overloaded, and we cannot use it to obtain
; 1183 : 			 * the address of a given object.  We then use the following trick to get the address
; 1184 : 			 */
; 1185 : 			pData = reinterpret_cast< TYPE* >( &reinterpret_cast< int& >( static_cast< TYPE& >( pNode->data ) ) );

  00034	8d 70 08	 lea	 esi, DWORD PTR [eax+8]

; 68   : 	ENSURE(nCount == 0 || pElements != NULL);

  00037	85 f6		 test	 esi, esi
  00039	0f 84 4a 01 00
	00		 je	 $LN60@Serialize
; File C:\Program Files (x86)\Microsoft Visual Studio\2019\Community\VC\Tools\MSVC\14.29.30133\atlmfc\include\afx.inl

; 212  : 	{ return (m_nMode & CArchive::load) == 0; }

  0003f	8b 4d 08	 mov	 ecx, DWORD PTR _ar$[ebp]
  00042	8b 41 18	 mov	 eax, DWORD PTR [ecx+24]
  00045	f7 d0		 not	 eax
  00047	a8 01		 test	 al, 1
; File C:\Program Files (x86)\Microsoft Visual Studio\2019\Community\VC\Tools\MSVC\14.29.30133\atlmfc\include\afxtempl.h

; 73   : 	if (ar.IsStoring())

  00049	74 33		 je	 SHORT $LN21@Serialize

; 74   : 	{
; 75   : 		TYPE* pData;
; 76   : 		UINT_PTR nElementsLeft;
; 77   : 
; 78   : 		nElementsLeft = nCount;

  0004b	b8 01 00 00 00	 mov	 eax, 1
  00050	89 45 fc	 mov	 DWORD PTR _nElementsLeft$1$[ebp], eax
$LL16@Serialize:

; 80   : 		while( nElementsLeft > 0 )
; 81   : 		{
; 82   : 			UINT nElementsToWrite;
; 83   : 
; 84   : 			nElementsToWrite = UINT(__min(nElementsLeft, INT_MAX/sizeof(TYPE)));

  00053	bb ff ff ff 1f	 mov	 ebx, 536870911		; 1fffffffH
  00058	3b c3		 cmp	 eax, ebx
  0005a	0f 42 d8	 cmovb	 ebx, eax

; 85   : 			ar.Write(pData, nElementsToWrite*sizeof(TYPE));

  0005d	8d 3c 9d 00 00
	00 00		 lea	 edi, DWORD PTR [ebx*4]
  00064	57		 push	 edi
  00065	56		 push	 esi
  00066	e8 00 00 00 00	 call	 ?Write@CArchive@@QAEXPBXI@Z ; CArchive::Write

; 86   : 			nElementsLeft -= nElementsToWrite;

  0006b	8b 45 fc	 mov	 eax, DWORD PTR _nElementsLeft$1$[ebp]

; 87   : 			pData += nElementsToWrite;

  0006e	03 f7		 add	 esi, edi
  00070	8b 4d 08	 mov	 ecx, DWORD PTR _ar$[ebp]
  00073	2b c3		 sub	 eax, ebx
  00075	89 45 fc	 mov	 DWORD PTR _nElementsLeft$1$[ebp], eax
  00078	85 c0		 test	 eax, eax
  0007a	75 d7		 jne	 SHORT $LL16@Serialize

; 88   : 		}
; 89   : 	}

  0007c	eb 35		 jmp	 SHORT $LN2@Serialize
$LN21@Serialize:

; 90   : 	else
; 91   : 	{
; 92   : 		TYPE* pData;
; 93   : 		UINT_PTR nElementsLeft;
; 94   : 
; 95   : 		nElementsLeft = nCount;

  0007e	bf 01 00 00 00	 mov	 edi, 1
$LL18@Serialize:

; 98   : 		{
; 99   : 			UINT nElementsToRead;
; 100  : 
; 101  : 			nElementsToRead = UINT(__min(nElementsLeft, INT_MAX/sizeof(TYPE)));

  00083	bb ff ff ff 1f	 mov	 ebx, 536870911		; 1fffffffH
  00088	3b fb		 cmp	 edi, ebx
  0008a	0f 42 df	 cmovb	 ebx, edi

; 102  : 			ar.EnsureRead(pData, nElementsToRead*sizeof(TYPE));

  0008d	8d 04 9d 00 00
	00 00		 lea	 eax, DWORD PTR [ebx*4]
; File C:\Program Files (x86)\Microsoft Visual Studio\2019\Community\VC\Tools\MSVC\14.29.30133\atlmfc\include\afx.inl

; 399  : 	UINT nRead=Read(lpBuf, nCount);

  00094	50		 push	 eax
  00095	56		 push	 esi
  00096	e8 00 00 00 00	 call	 ?Read@CArchive@@QAEIPAXI@Z ; CArchive::Read

; 400  : 	if(nRead!=nCount)

  0009b	8d 0c 9d 00 00
	00 00		 lea	 ecx, DWORD PTR [ebx*4]
  000a2	3b c1		 cmp	 eax, ecx
  000a4	0f 85 d6 00 00
	00		 jne	 $LN59@Serialize
; File C:\Program Files (x86)\Microsoft Visual Studio\2019\Community\VC\Tools\MSVC\14.29.30133\atlmfc\include\afxtempl.h

; 97   : 		while( nElementsLeft > 0 )

  000aa	03 f1		 add	 esi, ecx
  000ac	8b 4d 08	 mov	 ecx, DWORD PTR _ar$[ebp]

; 103  : 			nElementsLeft -= nElementsToRead;

  000af	2b fb		 sub	 edi, ebx
  000b1	75 d0		 jne	 SHORT $LL18@Serialize
$LN2@Serialize:

; 1177 : 		for (CNode* pNode = m_pNodeHead; pNode != NULL; pNode = pNode->pNext)

  000b3	8b 45 f8	 mov	 eax, DWORD PTR _pNode$1$[ebp]
  000b6	8b 00		 mov	 eax, DWORD PTR [eax]
  000b8	89 45 f8	 mov	 DWORD PTR _pNode$1$[ebp], eax
  000bb	85 c0		 test	 eax, eax
  000bd	0f 85 71 ff ff
	ff		 jne	 $LL4@Serialize

; 1197 : 		}
; 1198 : 	}
; 1199 : }

  000c3	5f		 pop	 edi
  000c4	5e		 pop	 esi
  000c5	5b		 pop	 ebx
  000c6	8b e5		 mov	 esp, ebp
  000c8	5d		 pop	 ebp
  000c9	c2 04 00	 ret	 4
$LN7@Serialize:

; 1186 : 			SerializeElements<TYPE>(ar, pData, 1);
; 1187 : 		}
; 1188 : 	}
; 1189 : 	else
; 1190 : 	{
; 1191 : 		DWORD_PTR nNewCount = ar.ReadCount();

  000cc	e8 00 00 00 00	 call	 ?ReadCount@CArchive@@QAEKXZ ; CArchive::ReadCount

; 1192 : 		while (nNewCount--)

  000d1	85 c0		 test	 eax, eax
  000d3	0f 84 9e 00 00
	00		 je	 $LN68@Serialize
  000d9	0f 1f 80 00 00
	00 00		 npad	 7
$LL5@Serialize:
  000e0	48		 dec	 eax
  000e1	89 45 f0	 mov	 DWORD PTR _nNewCount$1$[ebp], eax
; File C:\Program Files (x86)\Microsoft Visual Studio\2019\Community\VC\Tools\MSVC\14.29.30133\atlmfc\include\afx.inl

; 212  : 	{ return (m_nMode & CArchive::load) == 0; }

  000e4	8b 45 08	 mov	 eax, DWORD PTR _ar$[ebp]
  000e7	8b 48 18	 mov	 ecx, DWORD PTR [eax+24]
  000ea	f7 d1		 not	 ecx
  000ec	f6 c1 01	 test	 cl, 1
; File C:\Program Files (x86)\Microsoft Visual Studio\2019\Community\VC\Tools\MSVC\14.29.30133\atlmfc\include\afxtempl.h

; 73   : 	if (ar.IsStoring())

  000ef	74 3a		 je	 SHORT $LN42@Serialize

; 79   : 		pData = pElements;

  000f1	8d 4d f4	 lea	 ecx, DWORD PTR _newData$1[ebp]
  000f4	bb 01 00 00 00	 mov	 ebx, 1
  000f9	89 4d f8	 mov	 DWORD PTR _pData$1$[ebp], ecx
  000fc	0f 1f 40 00	 npad	 4
$LL37@Serialize:

; 80   : 		while( nElementsLeft > 0 )
; 81   : 		{
; 82   : 			UINT nElementsToWrite;
; 83   : 
; 84   : 			nElementsToWrite = UINT(__min(nElementsLeft, INT_MAX/sizeof(TYPE)));

  00100	bf ff ff ff 1f	 mov	 edi, 536870911		; 1fffffffH
  00105	3b df		 cmp	 ebx, edi
  00107	0f 42 fb	 cmovb	 edi, ebx

; 85   : 			ar.Write(pData, nElementsToWrite*sizeof(TYPE));

  0010a	8d 34 bd 00 00
	00 00		 lea	 esi, DWORD PTR [edi*4]
  00111	56		 push	 esi
  00112	51		 push	 ecx
  00113	8b c8		 mov	 ecx, eax
  00115	e8 00 00 00 00	 call	 ?Write@CArchive@@QAEXPBXI@Z ; CArchive::Write

; 87   : 			pData += nElementsToWrite;

  0011a	8b 4d f8	 mov	 ecx, DWORD PTR _pData$1$[ebp]
  0011d	8b 45 08	 mov	 eax, DWORD PTR _ar$[ebp]
  00120	03 ce		 add	 ecx, esi
  00122	89 4d f8	 mov	 DWORD PTR _pData$1$[ebp], ecx
  00125	2b df		 sub	 ebx, edi
  00127	75 d7		 jne	 SHORT $LL37@Serialize

; 88   : 		}
; 89   : 	}

  00129	eb 36		 jmp	 SHORT $LN40@Serialize
$LN42@Serialize:

; 90   : 	else
; 91   : 	{
; 92   : 		TYPE* pData;
; 93   : 		UINT_PTR nElementsLeft;
; 94   : 
; 95   : 		nElementsLeft = nCount;

  0012b	be 01 00 00 00	 mov	 esi, 1

; 96   : 		pData = pElements;

  00130	8d 5d f4	 lea	 ebx, DWORD PTR _newData$1[ebp]
$LL39@Serialize:

; 98   : 		{
; 99   : 			UINT nElementsToRead;
; 100  : 
; 101  : 			nElementsToRead = UINT(__min(nElementsLeft, INT_MAX/sizeof(TYPE)));

  00133	bf ff ff ff 1f	 mov	 edi, 536870911		; 1fffffffH
  00138	3b f7		 cmp	 esi, edi
  0013a	0f 42 fe	 cmovb	 edi, esi

; 102  : 			ar.EnsureRead(pData, nElementsToRead*sizeof(TYPE));

  0013d	8d 0c bd 00 00
	00 00		 lea	 ecx, DWORD PTR [edi*4]
; File C:\Program Files (x86)\Microsoft Visual Studio\2019\Community\VC\Tools\MSVC\14.29.30133\atlmfc\include\afx.inl

; 399  : 	UINT nRead=Read(lpBuf, nCount);

  00144	51		 push	 ecx
  00145	53		 push	 ebx
  00146	8b c8		 mov	 ecx, eax
  00148	e8 00 00 00 00	 call	 ?Read@CArchive@@QAEIPAXI@Z ; CArchive::Read

; 400  : 	if(nRead!=nCount)

  0014d	8d 0c bd 00 00
	00 00		 lea	 ecx, DWORD PTR [edi*4]
  00154	3b c1		 cmp	 eax, ecx
  00156	75 28		 jne	 SHORT $LN59@Serialize
; File C:\Program Files (x86)\Microsoft Visual Studio\2019\Community\VC\Tools\MSVC\14.29.30133\atlmfc\include\afxtempl.h

; 104  : 			pData += nElementsToRead;

  00158	8b 45 08	 mov	 eax, DWORD PTR _ar$[ebp]
  0015b	03 d9		 add	 ebx, ecx
  0015d	2b f7		 sub	 esi, edi
  0015f	75 d2		 jne	 SHORT $LL39@Serialize
$LN40@Serialize:

; 1193 : 		{
; 1194 : 			TYPE newData[1];
; 1195 : 			SerializeElements<TYPE>(ar, newData, 1);
; 1196 : 			AddTail(newData[0]);

  00161	ff 75 f4	 push	 DWORD PTR _newData$1[ebp]
  00164	8b 4d fc	 mov	 ecx, DWORD PTR _this$1$[ebp]
  00167	e8 00 00 00 00	 call	 ?AddTail@?$CList@PAVCChartBozoItem@@PAV1@@@QAEPAU__POSITION@@PAVCChartBozoItem@@@Z ; CList<CChartBozoItem *,CChartBozoItem *>::AddTail
  0016c	8b 45 f0	 mov	 eax, DWORD PTR _nNewCount$1$[ebp]
  0016f	85 c0		 test	 eax, eax
  00171	0f 85 69 ff ff
	ff		 jne	 $LL5@Serialize
$LN68@Serialize:
  00177	5f		 pop	 edi

; 1197 : 		}
; 1198 : 	}
; 1199 : }

  00178	5e		 pop	 esi
  00179	5b		 pop	 ebx
  0017a	8b e5		 mov	 esp, ebp
  0017c	5d		 pop	 ebp
  0017d	c2 04 00	 ret	 4
$LN59@Serialize:
  00180	6a 00		 push	 0
  00182	6a 03		 push	 3
  00184	e8 00 00 00 00	 call	 ?AfxThrowArchiveException@@YGXHPBD@Z ; AfxThrowArchiveException
$LN60@Serialize:

; 68   : 	ENSURE(nCount == 0 || pElements != NULL);

  00189	e8 00 00 00 00	 call	 ?AfxThrowInvalidArgException@@YGXXZ ; AfxThrowInvalidArgException
$LN85@Serialize:
  0018e	cc		 int	 3
?Serialize@?$CList@PAVCChartBozoItem@@PAV1@@@UAEXAAVCArchive@@@Z ENDP ; CList<CChartBozoItem *,CChartBozoItem *>::Serialize
_TEXT	ENDS
; Function compile flags: /Ogtp
; File C:\Program Files (x86)\Microsoft Visual Studio\2019\Community\VC\Tools\MSVC\14.29.30133\atlmfc\include\afxtempl.h
;	COMDAT ??1?$CList@PAVCChartBozoItem@@PAV1@@@UAE@XZ
_TEXT	SEGMENT
__$EHRec$ = -12						; size = 12
??1?$CList@PAVCChartBozoItem@@PAV1@@@UAE@XZ PROC	; CList<CChartBozoItem *,CChartBozoItem *>::~CList<CChartBozoItem *,CChartBozoItem *>, COMDAT
; _this$ = ecx

; 878  : {

  00000	55		 push	 ebp
  00001	8b ec		 mov	 ebp, esp
  00003	6a ff		 push	 -1
  00005	68 00 00 00 00	 push	 __ehhandler$??1?$CList@PAVCChartBozoItem@@PAV1@@@UAE@XZ
  0000a	64 a1 00 00 00
	00		 mov	 eax, DWORD PTR fs:0
  00010	50		 push	 eax
  00011	56		 push	 esi
  00012	a1 00 00 00 00	 mov	 eax, DWORD PTR ___security_cookie
  00017	33 c5		 xor	 eax, ebp
  00019	50		 push	 eax
  0001a	8d 45 f4	 lea	 eax, DWORD PTR __$EHRec$[ebp]
  0001d	64 a3 00 00 00
	00		 mov	 DWORD PTR fs:0, eax
  00023	8b f1		 mov	 esi, ecx

; 872  : 	m_pBlocks->FreeDataChain();

  00025	8b 4e 14	 mov	 ecx, DWORD PTR [esi+20]

; 878  : {

  00028	c7 06 00 00 00
	00		 mov	 DWORD PTR [esi], OFFSET ??_7?$CList@PAVCChartBozoItem@@PAV1@@@6B@

; 870  : 	m_nCount = 0;

  0002e	c7 46 0c 00 00
	00 00		 mov	 DWORD PTR [esi+12], 0

; 871  : 	m_pNodeHead = m_pNodeTail = m_pNodeFree = NULL;

  00035	c7 46 10 00 00
	00 00		 mov	 DWORD PTR [esi+16], 0
  0003c	c7 46 08 00 00
	00 00		 mov	 DWORD PTR [esi+8], 0
  00043	c7 46 04 00 00
	00 00		 mov	 DWORD PTR [esi+4], 0

; 872  : 	m_pBlocks->FreeDataChain();

  0004a	e8 00 00 00 00	 call	 ?FreeDataChain@CPlex@@QAEXXZ ; CPlex::FreeDataChain

; 873  : 	m_pBlocks = NULL;

  0004f	c7 46 14 00 00
	00 00		 mov	 DWORD PTR [esi+20], 0

; 879  : 	RemoveAll();
; 880  : 	ASSERT(m_nCount == 0);
; 881  : }

  00056	8b 4d f4	 mov	 ecx, DWORD PTR __$EHRec$[ebp]
  00059	64 89 0d 00 00
	00 00		 mov	 DWORD PTR fs:0, ecx
  00060	59		 pop	 ecx
  00061	5e		 pop	 esi
  00062	8b e5		 mov	 esp, ebp
  00064	5d		 pop	 ebp
  00065	c3		 ret	 0
  00066	cc		 int	 3
  00067	cc		 int	 3
  00068	cc		 int	 3
  00069	cc		 int	 3
  0006a	cc		 int	 3
_TEXT	ENDS
;	COMDAT text$x
text$x	SEGMENT
__ehhandler$??1?$CList@PAVCChartBozoItem@@PAV1@@@UAE@XZ:
  00000	90		 npad	 1
  00001	90		 npad	 1
  00002	8b 54 24 08	 mov	 edx, DWORD PTR [esp+8]
  00006	8d 42 0c	 lea	 eax, DWORD PTR [edx+12]
  00009	8b 4a f8	 mov	 ecx, DWORD PTR [edx-8]
  0000c	33 c8		 xor	 ecx, eax
  0000e	e8 00 00 00 00	 call	 @__security_check_cookie@4
  00013	b8 00 00 00 00	 mov	 eax, OFFSET __ehfuncinfo$??1?$CList@PAVCChartBozoItem@@PAV1@@@UAE@XZ
  00018	e9 00 00 00 00	 jmp	 ___CxxFrameHandler3
text$x	ENDS
??1?$CList@PAVCChartBozoItem@@PAV1@@@UAE@XZ ENDP	; CList<CChartBozoItem *,CChartBozoItem *>::~CList<CChartBozoItem *,CChartBozoItem *>
; Function compile flags: /Ogtp
; File C:\Program Files (x86)\Microsoft Visual Studio\2019\Community\VC\Tools\MSVC\14.29.30133\atlmfc\include\afxtempl.h
;	COMDAT ?NewNode@?$CList@PAVCChartBozoItem@@PAV1@@@IAEPAUCNode@1@PAU21@0@Z
_TEXT	SEGMENT
_pPrev$ = 8						; size = 4
_pNext$ = 12						; size = 4
?NewNode@?$CList@PAVCChartBozoItem@@PAV1@@@IAEPAUCNode@1@PAU21@0@Z PROC ; CList<CChartBozoItem *,CChartBozoItem *>::NewNode, COMDAT
; _this$ = ecx

; 901  : {

  00000	55		 push	 ebp
  00001	8b ec		 mov	 ebp, esp
  00003	56		 push	 esi
  00004	8b f1		 mov	 esi, ecx

; 902  : 	if (m_pNodeFree == NULL)

  00006	83 7e 10 00	 cmp	 DWORD PTR [esi+16], 0
  0000a	75 34		 jne	 SHORT $LN7@NewNode

; 903  : 	{
; 904  : 		// add another block
; 905  : 		CPlex* pNewBlock = CPlex::Create(m_pBlocks, m_nBlockSize,

  0000c	6a 0c		 push	 12			; 0000000cH
  0000e	ff 76 18	 push	 DWORD PTR [esi+24]
  00011	8d 46 14	 lea	 eax, DWORD PTR [esi+20]
  00014	50		 push	 eax
  00015	e8 00 00 00 00	 call	 ?Create@CPlex@@SGPAU1@AAPAU1@II@Z ; CPlex::Create

; 906  : 				 sizeof(CNode));
; 907  : 
; 908  : 		// chain them into free list
; 909  : 		CNode* pNode = (CNode*) pNewBlock->data();
; 910  : 		// free in reverse order to make it easier to debug
; 911  : 		pNode += m_nBlockSize - 1;

  0001a	8b 56 18	 mov	 edx, DWORD PTR [esi+24]
  0001d	83 c0 08	 add	 eax, 8
  00020	8d 0c 52	 lea	 ecx, DWORD PTR [edx+edx*2]
  00023	8d 04 88	 lea	 eax, DWORD PTR [eax+ecx*4]
  00026	83 c0 f4	 add	 eax, -12		; fffffff4H

; 912  : 		for (INT_PTR i = m_nBlockSize-1; i >= 0; i--, pNode--)

  00029	83 c2 ff	 add	 edx, -1
  0002c	78 12		 js	 SHORT $LN7@NewNode
  0002e	66 90		 npad	 2
$LL4@NewNode:

; 913  : 		{
; 914  : 			pNode->pNext = m_pNodeFree;

  00030	8b 4e 10	 mov	 ecx, DWORD PTR [esi+16]
  00033	89 08		 mov	 DWORD PTR [eax], ecx

; 915  : 			m_pNodeFree = pNode;

  00035	89 46 10	 mov	 DWORD PTR [esi+16], eax
  00038	83 e8 0c	 sub	 eax, 12			; 0000000cH
  0003b	83 ea 01	 sub	 edx, 1
  0003e	79 f0		 jns	 SHORT $LL4@NewNode
$LN7@NewNode:

; 916  : 		}
; 917  : 	}
; 918  : 	ENSURE(m_pNodeFree != NULL);  // we must have something

  00040	8b 46 10	 mov	 eax, DWORD PTR [esi+16]
  00043	85 c0		 test	 eax, eax
  00045	74 18		 je	 SHORT $LN17@NewNode

; 919  : 
; 920  : 	CList::CNode* pNode = m_pNodeFree;
; 921  : 	m_pNodeFree = m_pNodeFree->pNext;

  00047	8b 08		 mov	 ecx, DWORD PTR [eax]
  00049	89 4e 10	 mov	 DWORD PTR [esi+16], ecx

; 922  : 	pNode->pPrev = pPrev;

  0004c	8b 4d 08	 mov	 ecx, DWORD PTR _pPrev$[ebp]
  0004f	89 48 04	 mov	 DWORD PTR [eax+4], ecx

; 923  : 	pNode->pNext = pNext;

  00052	8b 4d 0c	 mov	 ecx, DWORD PTR _pNext$[ebp]
  00055	89 08		 mov	 DWORD PTR [eax], ecx

; 924  : 	m_nCount++;

  00057	ff 46 0c	 inc	 DWORD PTR [esi+12]

; 925  : 	ASSERT(m_nCount > 0);  // make sure we don't overflow
; 926  : 
; 927  : #pragma push_macro("new")
; 928  : #undef new
; 929  : 	::new( (void*)( &pNode->data ) ) TYPE;
; 930  : #pragma pop_macro("new")
; 931  : 	return pNode;

  0005a	5e		 pop	 esi

; 932  : }

  0005b	5d		 pop	 ebp
  0005c	c2 08 00	 ret	 8
$LN17@NewNode:

; 916  : 		}
; 917  : 	}
; 918  : 	ENSURE(m_pNodeFree != NULL);  // we must have something

  0005f	e8 00 00 00 00	 call	 ?AfxThrowInvalidArgException@@YGXXZ ; AfxThrowInvalidArgException
$LN15@NewNode:
  00064	cc		 int	 3
?NewNode@?$CList@PAVCChartBozoItem@@PAV1@@@IAEPAUCNode@1@PAU21@0@Z ENDP ; CList<CChartBozoItem *,CChartBozoItem *>::NewNode
_TEXT	ENDS
; Function compile flags: /Ogtp
; File C:\Program Files (x86)\Microsoft Visual Studio\2019\Community\VC\Tools\MSVC\14.29.30133\atlmfc\include\afxtempl.h
;	COMDAT ?RemoveAll@?$CList@PAVCChartBozoItem@@PAV1@@@QAEXXZ
_TEXT	SEGMENT
?RemoveAll@?$CList@PAVCChartBozoItem@@PAV1@@@QAEXXZ PROC ; CList<CChartBozoItem *,CChartBozoItem *>::RemoveAll, COMDAT
; _this$ = ecx

; 862  : {

  00000	56		 push	 esi
  00001	8b f1		 mov	 esi, ecx

; 863  : 	ASSERT_VALID(this);
; 864  : 
; 865  : 	// destroy elements
; 866  : 	CNode* pNode;
; 867  : 	for (pNode = m_pNodeHead; pNode != NULL; pNode = pNode->pNext)
; 868  : 		pNode->data.~TYPE();
; 869  : 
; 870  : 	m_nCount = 0;
; 871  : 	m_pNodeHead = m_pNodeTail = m_pNodeFree = NULL;
; 872  : 	m_pBlocks->FreeDataChain();

  00003	8b 4e 14	 mov	 ecx, DWORD PTR [esi+20]
  00006	c7 46 0c 00 00
	00 00		 mov	 DWORD PTR [esi+12], 0
  0000d	c7 46 10 00 00
	00 00		 mov	 DWORD PTR [esi+16], 0
  00014	c7 46 08 00 00
	00 00		 mov	 DWORD PTR [esi+8], 0
  0001b	c7 46 04 00 00
	00 00		 mov	 DWORD PTR [esi+4], 0
  00022	e8 00 00 00 00	 call	 ?FreeDataChain@CPlex@@QAEXXZ ; CPlex::FreeDataChain

; 873  : 	m_pBlocks = NULL;

  00027	c7 46 14 00 00
	00 00		 mov	 DWORD PTR [esi+20], 0
  0002e	5e		 pop	 esi

; 874  : }

  0002f	c3		 ret	 0
?RemoveAll@?$CList@PAVCChartBozoItem@@PAV1@@@QAEXXZ ENDP ; CList<CChartBozoItem *,CChartBozoItem *>::RemoveAll
_TEXT	ENDS
; Function compile flags: /Ogtp
; File C:\Program Files (x86)\Microsoft Visual Studio\2019\Community\VC\Tools\MSVC\14.29.30133\atlmfc\include\afxtempl.h
;	COMDAT ?AddTail@?$CList@PAVCChartBozoItem@@PAV1@@@QAEPAU__POSITION@@PAVCChartBozoItem@@@Z
_TEXT	SEGMENT
_newElement$ = 8					; size = 4
?AddTail@?$CList@PAVCChartBozoItem@@PAV1@@@QAEPAU__POSITION@@PAVCChartBozoItem@@@Z PROC ; CList<CChartBozoItem *,CChartBozoItem *>::AddTail, COMDAT
; _this$ = ecx

; 965  : {

  00000	55		 push	 ebp
  00001	8b ec		 mov	 ebp, esp
  00003	56		 push	 esi
  00004	8b f1		 mov	 esi, ecx
  00006	57		 push	 edi

; 902  : 	if (m_pNodeFree == NULL)

  00007	83 7e 10 00	 cmp	 DWORD PTR [esi+16], 0

; 966  : 	ASSERT_VALID(this);
; 967  : 
; 968  : 	CNode* pNewNode = NewNode(m_pNodeTail, NULL);

  0000b	8b 7e 08	 mov	 edi, DWORD PTR [esi+8]

; 902  : 	if (m_pNodeFree == NULL)

  0000e	75 32		 jne	 SHORT $LN11@AddTail

; 903  : 	{
; 904  : 		// add another block
; 905  : 		CPlex* pNewBlock = CPlex::Create(m_pBlocks, m_nBlockSize,

  00010	6a 0c		 push	 12			; 0000000cH
  00012	ff 76 18	 push	 DWORD PTR [esi+24]
  00015	8d 46 14	 lea	 eax, DWORD PTR [esi+20]
  00018	50		 push	 eax
  00019	e8 00 00 00 00	 call	 ?Create@CPlex@@SGPAU1@AAPAU1@II@Z ; CPlex::Create

; 906  : 				 sizeof(CNode));
; 907  : 
; 908  : 		// chain them into free list
; 909  : 		CNode* pNode = (CNode*) pNewBlock->data();
; 910  : 		// free in reverse order to make it easier to debug
; 911  : 		pNode += m_nBlockSize - 1;

  0001e	8b 56 18	 mov	 edx, DWORD PTR [esi+24]
  00021	83 c0 08	 add	 eax, 8
  00024	8d 4a ff	 lea	 ecx, DWORD PTR [edx-1]

; 912  : 		for (INT_PTR i = m_nBlockSize-1; i >= 0; i--, pNode--)

  00027	83 c2 ff	 add	 edx, -1
  0002a	8d 0c 49	 lea	 ecx, DWORD PTR [ecx+ecx*2]
  0002d	8d 0c 88	 lea	 ecx, DWORD PTR [eax+ecx*4]
  00030	78 10		 js	 SHORT $LN11@AddTail
$LL8@AddTail:

; 913  : 		{
; 914  : 			pNode->pNext = m_pNodeFree;

  00032	8b 46 10	 mov	 eax, DWORD PTR [esi+16]
  00035	89 01		 mov	 DWORD PTR [ecx], eax

; 915  : 			m_pNodeFree = pNode;

  00037	89 4e 10	 mov	 DWORD PTR [esi+16], ecx
  0003a	83 e9 0c	 sub	 ecx, 12			; 0000000cH
  0003d	83 ea 01	 sub	 edx, 1
  00040	79 f0		 jns	 SHORT $LL8@AddTail
$LN11@AddTail:

; 916  : 		}
; 917  : 	}
; 918  : 	ENSURE(m_pNodeFree != NULL);  // we must have something

  00042	8b 4e 10	 mov	 ecx, DWORD PTR [esi+16]
  00045	85 c9		 test	 ecx, ecx
  00047	74 39		 je	 SHORT $LN22@AddTail

; 919  : 
; 920  : 	CList::CNode* pNode = m_pNodeFree;
; 921  : 	m_pNodeFree = m_pNodeFree->pNext;

  00049	8b 01		 mov	 eax, DWORD PTR [ecx]
  0004b	89 46 10	 mov	 DWORD PTR [esi+16], eax

; 969  : 	pNewNode->data = newElement;

  0004e	8b 45 08	 mov	 eax, DWORD PTR _newElement$[ebp]

; 922  : 	pNode->pPrev = pPrev;

  00051	89 79 04	 mov	 DWORD PTR [ecx+4], edi

; 923  : 	pNode->pNext = pNext;

  00054	c7 01 00 00 00
	00		 mov	 DWORD PTR [ecx], 0

; 924  : 	m_nCount++;

  0005a	ff 46 0c	 inc	 DWORD PTR [esi+12]

; 969  : 	pNewNode->data = newElement;

  0005d	89 41 08	 mov	 DWORD PTR [ecx+8], eax

; 970  : 	if (m_pNodeTail != NULL)

  00060	8b 46 08	 mov	 eax, DWORD PTR [esi+8]
  00063	85 c0		 test	 eax, eax
  00065	74 0d		 je	 SHORT $LN2@AddTail

; 971  : 		m_pNodeTail->pNext = pNewNode;

  00067	89 08		 mov	 DWORD PTR [eax], ecx

; 972  : 	else
; 973  : 		m_pNodeHead = pNewNode;
; 974  : 	m_pNodeTail = pNewNode;
; 975  : 	return (POSITION) pNewNode;

  00069	8b c1		 mov	 eax, ecx
  0006b	5f		 pop	 edi
  0006c	89 4e 08	 mov	 DWORD PTR [esi+8], ecx
  0006f	5e		 pop	 esi

; 976  : }

  00070	5d		 pop	 ebp
  00071	c2 04 00	 ret	 4
$LN2@AddTail:

; 972  : 	else
; 973  : 		m_pNodeHead = pNewNode;
; 974  : 	m_pNodeTail = pNewNode;
; 975  : 	return (POSITION) pNewNode;

  00074	5f		 pop	 edi
  00075	89 4e 04	 mov	 DWORD PTR [esi+4], ecx
  00078	8b c1		 mov	 eax, ecx
  0007a	89 4e 08	 mov	 DWORD PTR [esi+8], ecx
  0007d	5e		 pop	 esi

; 976  : }

  0007e	5d		 pop	 ebp
  0007f	c2 04 00	 ret	 4
$LN22@AddTail:

; 918  : 	ENSURE(m_pNodeFree != NULL);  // we must have something

  00082	e8 00 00 00 00	 call	 ?AfxThrowInvalidArgException@@YGXXZ ; AfxThrowInvalidArgException
$LN20@AddTail:
  00087	cc		 int	 3
?AddTail@?$CList@PAVCChartBozoItem@@PAV1@@@QAEPAU__POSITION@@PAVCChartBozoItem@@@Z ENDP ; CList<CChartBozoItem *,CChartBozoItem *>::AddTail
_TEXT	ENDS
; Function compile flags: /Ogtp
; File C:\Program Files (x86)\Microsoft Visual Studio\2019\Community\VC\Tools\MSVC\14.29.30133\atlmfc\include\afxtempl.h
;	COMDAT ??0?$CList@PAVCChartBozoItem@@PAV1@@@QAE@H@Z
_TEXT	SEGMENT
_nBlockSize$ = 8					; size = 4
??0?$CList@PAVCChartBozoItem@@PAV1@@@QAE@H@Z PROC	; CList<CChartBozoItem *,CChartBozoItem *>::CList<CChartBozoItem *,CChartBozoItem *>, COMDAT
; _this$ = ecx

; 851  : {

  00000	55		 push	 ebp
  00001	8b ec		 mov	 ebp, esp

; 852  : 	ASSERT(nBlockSize > 0);
; 853  : 
; 854  : 	m_nCount = 0;
; 855  : 	m_pNodeHead = m_pNodeTail = m_pNodeFree = NULL;
; 856  : 	m_pBlocks = NULL;
; 857  : 	m_nBlockSize = nBlockSize;

  00003	8b 45 08	 mov	 eax, DWORD PTR _nBlockSize$[ebp]
  00006	89 41 18	 mov	 DWORD PTR [ecx+24], eax

; 858  : }

  00009	8b c1		 mov	 eax, ecx
  0000b	c7 01 00 00 00
	00		 mov	 DWORD PTR [ecx], OFFSET ??_7?$CList@PAVCChartBozoItem@@PAV1@@@6B@
  00011	c7 41 0c 00 00
	00 00		 mov	 DWORD PTR [ecx+12], 0
  00018	c7 41 10 00 00
	00 00		 mov	 DWORD PTR [ecx+16], 0
  0001f	c7 41 08 00 00
	00 00		 mov	 DWORD PTR [ecx+8], 0
  00026	c7 41 04 00 00
	00 00		 mov	 DWORD PTR [ecx+4], 0
  0002d	c7 41 14 00 00
	00 00		 mov	 DWORD PTR [ecx+20], 0
  00034	5d		 pop	 ebp
  00035	c2 04 00	 ret	 4
??0?$CList@PAVCChartBozoItem@@PAV1@@@QAE@H@Z ENDP	; CList<CChartBozoItem *,CChartBozoItem *>::CList<CChartBozoItem *,CChartBozoItem *>
_TEXT	ENDS
; Function compile flags: /Ogtp
;	COMDAT ??_GCChartItemMarket@@UAEPAXI@Z
_TEXT	SEGMENT
___flags$ = 8						; size = 4
??_GCChartItemMarket@@UAEPAXI@Z PROC			; CChartItemMarket::`scalar deleting destructor', COMDAT
; _this$ = ecx
  00000	55		 push	 ebp
  00001	8b ec		 mov	 ebp, esp
  00003	f6 45 08 01	 test	 BYTE PTR ___flags$[ebp], 1
  00007	56		 push	 esi
  00008	8b f1		 mov	 esi, ecx
  0000a	c7 06 00 00 00
	00		 mov	 DWORD PTR [esi], OFFSET ??_7CChartItemMarket@@6B@
  00010	74 0e		 je	 SHORT $LN4@scalar
  00012	68 e0 00 00 00	 push	 224			; 000000e0H
  00017	56		 push	 esi
  00018	e8 00 00 00 00	 call	 ??3@YAXPAXI@Z		; operator delete
  0001d	83 c4 08	 add	 esp, 8
$LN4@scalar:
  00020	8b c6		 mov	 eax, esi
  00022	5e		 pop	 esi
  00023	5d		 pop	 ebp
  00024	c2 04 00	 ret	 4
??_GCChartItemMarket@@UAEPAXI@Z ENDP			; CChartItemMarket::`scalar deleting destructor'
_TEXT	ENDS
; Function compile flags: /Ogtp
; File D:\git\src\IBK\IBK_DRFN\ProjSrc\SrcDrfn\DrCommon\PartnerMng\ChartItemMarket.cpp
; File C:\Program Files (x86)\Microsoft Visual Studio\2019\Community\VC\Tools\MSVC\14.29.30133\atlmfc\include\afxcoll.inl
; File D:\git\src\IBK\IBK_DRFN\ProjSrc\SrcDrfn\DrCommon\PartnerMng\ChartItemMarket.cpp
; File C:\Program Files (x86)\Microsoft Visual Studio\2019\Community\VC\Tools\MSVC\14.29.30133\atlmfc\include\afxcoll.inl
; File D:\git\src\IBK\IBK_DRFN\ProjSrc\SrcDrfn\DrCommon\PartnerMng\ChartItemMarket.cpp
; File C:\Program Files (x86)\Microsoft Visual Studio\2019\Community\VC\Tools\MSVC\14.29.30133\atlmfc\include\afxcoll.inl
; File D:\git\src\IBK\IBK_DRFN\ProjSrc\SrcDrfn\DrCommon\PartnerMng\ChartItemMarket.cpp
; File C:\Program Files (x86)\Microsoft Visual Studio\2019\Community\VC\Tools\MSVC\14.29.30133\atlmfc\include\afxcoll.inl
; File D:\git\src\IBK\IBK_DRFN\ProjSrc\SrcDrfn\DrCommon\PartnerMng\ChartItemMarket.cpp
; File C:\Program Files (x86)\Microsoft Visual Studio\2019\Community\VC\Tools\MSVC\14.29.30133\atlmfc\include\afxcoll.inl
; File D:\git\src\IBK\IBK_DRFN\ProjSrc\SrcDrfn\DrCommon\PartnerMng\ChartItemMarket.cpp
; File C:\Program Files (x86)\Microsoft Visual Studio\2019\Community\VC\Tools\MSVC\14.29.30133\atlmfc\include\afxcoll.inl
; File D:\git\src\IBK\IBK_DRFN\ProjSrc\SrcDrfn\DrCommon\PartnerMng\ChartItemMarket.cpp
; File C:\Program Files (x86)\Microsoft Visual Studio\2019\Community\VC\Tools\MSVC\14.29.30133\atlmfc\include\afxcoll.inl
; File D:\git\src\IBK\IBK_DRFN\ProjSrc\SrcDrfn\DrCommon\PartnerMng\ChartItemMarket.cpp
; File C:\Program Files (x86)\Microsoft Visual Studio\2019\Community\VC\Tools\MSVC\14.29.30133\atlmfc\include\cstringt.h
; File D:\git\src\IBK\IBK_DRFN\ProjSrc\SrcDrfn\DrCommon\PartnerMng\ChartItemMarket.cpp
; File C:\Program Files (x86)\Microsoft Visual Studio\2019\Community\VC\Tools\MSVC\14.29.30133\atlmfc\include\cstringt.h
; File C:\Program Files (x86)\Microsoft Visual Studio\2019\Community\VC\Tools\MSVC\14.29.30133\atlmfc\include\atlsimpstr.h
; File C:\Program Files (x86)\Microsoft Visual Studio\2019\Community\VC\Tools\MSVC\14.29.30133\atlmfc\include\cstringt.h
; File D:\git\src\IBK\IBK_DRFN\ProjSrc\SrcDrfn\DrCommon\PartnerMng\ChartItemMarket.cpp
; File C:\Program Files (x86)\Microsoft Visual Studio\2019\Community\VC\Tools\MSVC\14.29.30133\atlmfc\include\cstringt.h
; File C:\Program Files (x86)\Microsoft Visual Studio\2019\Community\VC\Tools\MSVC\14.29.30133\atlmfc\include\atlsimpstr.h
; File C:\Program Files (x86)\Microsoft Visual Studio\2019\Community\VC\Tools\MSVC\14.29.30133\atlmfc\include\cstringt.h
; File D:\git\src\IBK\IBK_DRFN\ProjSrc\SrcDrfn\DrCommon\PartnerMng\ChartItemMarket.cpp
; File C:\Program Files (x86)\Microsoft Visual Studio\2019\Community\VC\Tools\MSVC\14.29.30133\atlmfc\include\cstringt.h
; File C:\Program Files (x86)\Microsoft Visual Studio\2019\Community\VC\Tools\MSVC\14.29.30133\atlmfc\include\atlsimpstr.h
; File C:\Program Files (x86)\Microsoft Visual Studio\2019\Community\VC\Tools\MSVC\14.29.30133\atlmfc\include\cstringt.h
; File D:\git\src\IBK\IBK_DRFN\ProjSrc\SrcDrfn\DrCommon\PartnerMng\ChartItemMarket.cpp
; File C:\Program Files (x86)\Microsoft Visual Studio\2019\Community\VC\Tools\MSVC\14.29.30133\atlmfc\include\cstringt.h
; File D:\git\src\IBK\IBK_DRFN\ProjSrc\SrcDrfn\DrCommon\PartnerMng\ChartItemMarket.cpp
; File C:\Program Files (x86)\Microsoft Visual Studio\2019\Community\VC\Tools\MSVC\14.29.30133\atlmfc\include\cstringt.h
; File D:\git\src\IBK\IBK_DRFN\ProjSrc\SrcDrfn\DrCommon\PartnerMng\ChartItemMarket.cpp
; File C:\Program Files (x86)\Microsoft Visual Studio\2019\Community\VC\Tools\MSVC\14.29.30133\atlmfc\include\cstringt.h
; File C:\Program Files (x86)\Microsoft Visual Studio\2019\Community\VC\Tools\MSVC\14.29.30133\atlmfc\include\atlsimpstr.h
; File C:\Program Files (x86)\Microsoft Visual Studio\2019\Community\VC\Tools\MSVC\14.29.30133\atlmfc\include\cstringt.h
; File D:\git\src\IBK\IBK_DRFN\ProjSrc\SrcDrfn\DrCommon\PartnerMng\ChartItemMarket.cpp
; File C:\Program Files (x86)\Microsoft Visual Studio\2019\Community\VC\Tools\MSVC\14.29.30133\atlmfc\include\cstringt.h
; File C:\Program Files (x86)\Microsoft Visual Studio\2019\Community\VC\Tools\MSVC\14.29.30133\atlmfc\include\atlsimpstr.h
; File C:\Program Files (x86)\Microsoft Visual Studio\2019\Community\VC\Tools\MSVC\14.29.30133\atlmfc\include\cstringt.h
; File D:\git\src\IBK\IBK_DRFN\ProjSrc\SrcDrfn\DrCommon\PartnerMng\ChartItemMarket.cpp
; File C:\Program Files (x86)\Microsoft Visual Studio\2019\Community\VC\Tools\MSVC\14.29.30133\atlmfc\include\cstringt.h
; File C:\Program Files (x86)\Microsoft Visual Studio\2019\Community\VC\Tools\MSVC\14.29.30133\atlmfc\include\atlsimpstr.h
; File C:\Program Files (x86)\Microsoft Visual Studio\2019\Community\VC\Tools\MSVC\14.29.30133\atlmfc\include\cstringt.h
; File D:\git\src\IBK\IBK_DRFN\ProjSrc\SrcDrfn\DrCommon\PartnerMng\ChartItemMarket.cpp
; File C:\Program Files (x86)\Microsoft Visual Studio\2019\Community\VC\Tools\MSVC\14.29.30133\atlmfc\include\cstringt.h
; File D:\git\src\IBK\IBK_DRFN\ProjSrc\SrcDrfn\DrCommon\PartnerMng\ChartItemMarket.cpp
; File C:\Program Files (x86)\Microsoft Visual Studio\2019\Community\VC\Tools\MSVC\14.29.30133\atlmfc\include\cstringt.h
; File C:\Program Files (x86)\Microsoft Visual Studio\2019\Community\VC\Tools\MSVC\14.29.30133\atlmfc\include\atlsimpstr.h
; File C:\Program Files (x86)\Microsoft Visual Studio\2019\Community\VC\Tools\MSVC\14.29.30133\atlmfc\include\cstringt.h
; File D:\git\src\IBK\IBK_DRFN\ProjSrc\SrcDrfn\DrCommon\PartnerMng\ChartItemMarket.cpp
; File C:\Program Files (x86)\Microsoft Visual Studio\2019\Community\VC\Tools\MSVC\14.29.30133\atlmfc\include\cstringt.h
; File C:\Program Files (x86)\Microsoft Visual Studio\2019\Community\VC\Tools\MSVC\14.29.30133\atlmfc\include\atlsimpstr.h
; File C:\Program Files (x86)\Microsoft Visual Studio\2019\Community\VC\Tools\MSVC\14.29.30133\atlmfc\include\cstringt.h
; File D:\git\src\IBK\IBK_DRFN\ProjSrc\SrcDrfn\DrCommon\PartnerMng\ChartItemMarket.cpp
; File C:\Program Files (x86)\Microsoft Visual Studio\2019\Community\VC\Tools\MSVC\14.29.30133\atlmfc\include\cstringt.h
; File C:\Program Files (x86)\Microsoft Visual Studio\2019\Community\VC\Tools\MSVC\14.29.30133\atlmfc\include\atlsimpstr.h
; File C:\Program Files (x86)\Microsoft Visual Studio\2019\Community\VC\Tools\MSVC\14.29.30133\atlmfc\include\cstringt.h
; File D:\git\src\IBK\IBK_DRFN\ProjSrc\SrcDrfn\DrCommon\PartnerMng\ChartItemMarket.cpp
; File C:\Program Files (x86)\Microsoft Visual Studio\2019\Community\VC\Tools\MSVC\14.29.30133\atlmfc\include\cstringt.h
; File D:\git\src\IBK\IBK_DRFN\ProjSrc\SrcDrfn\DrCommon\PartnerMng\ChartItemMarket.cpp
; File C:\Program Files (x86)\Microsoft Visual Studio\2019\Community\VC\Tools\MSVC\14.29.30133\atlmfc\include\cstringt.h
; File C:\Program Files (x86)\Microsoft Visual Studio\2019\Community\VC\Tools\MSVC\14.29.30133\atlmfc\include\atlsimpstr.h
; File C:\Program Files (x86)\Microsoft Visual Studio\2019\Community\VC\Tools\MSVC\14.29.30133\atlmfc\include\cstringt.h
; File D:\git\src\IBK\IBK_DRFN\ProjSrc\SrcDrfn\DrCommon\PartnerMng\ChartItemMarket.cpp
; File C:\Program Files (x86)\Microsoft Visual Studio\2019\Community\VC\Tools\MSVC\14.29.30133\atlmfc\include\cstringt.h
; File D:\git\src\IBK\IBK_DRFN\ProjSrc\SrcDrfn\DrCommon\PartnerMng\ChartItemMarket.cpp
; File C:\Program Files (x86)\Microsoft Visual Studio\2019\Community\VC\Tools\MSVC\14.29.30133\atlmfc\include\cstringt.h
; File C:\Program Files (x86)\Microsoft Visual Studio\2019\Community\VC\Tools\MSVC\14.29.30133\atlmfc\include\atlsimpstr.h
; File C:\Program Files (x86)\Microsoft Visual Studio\2019\Community\VC\Tools\MSVC\14.29.30133\atlmfc\include\cstringt.h
; File D:\git\src\IBK\IBK_DRFN\ProjSrc\SrcDrfn\DrCommon\PartnerMng\ChartItemMarket.cpp
; File C:\Program Files (x86)\Microsoft Visual Studio\2019\Community\VC\Tools\MSVC\14.29.30133\atlmfc\include\cstringt.h
; File D:\git\src\IBK\IBK_DRFN\ProjSrc\SrcDrfn\DrCommon\PartnerMng\ChartItemMarket.cpp
; File C:\Program Files (x86)\Microsoft Visual Studio\2019\Community\VC\Tools\MSVC\14.29.30133\atlmfc\include\cstringt.h
; File D:\git\src\IBK\IBK_DRFN\ProjSrc\SrcDrfn\DrCommon\PartnerMng\ChartItemMarket.cpp
;	COMDAT ?MakeDataOfSuspensSeContract@CChartItemMarket@@IAEXAAV?$CStringT@DV?$StrTraitMFC_DLL@DV?$ChTraitsCRT@D@ATL@@@@@ATL@@PAVCStringArray@@@Z
_TEXT	SEGMENT
_strCode$ = -48						; size = 4
_strDate$ = -44						; size = 4
_strGrid$ = -40						; size = 4
$T2 = -36						; size = 4
$T3 = -36						; size = 4
$T4 = -36						; size = 4
$T5 = -32						; size = 4
$T6 = -32						; size = 4
$T7 = -32						; size = 4
$T8 = -28						; size = 4
_szFS$ = -24						; size = 4
_szCOL$ = -20						; size = 4
$T9 = -16						; size = 4
__$EHRec$ = -12						; size = 12
$T10 = 8						; size = 4
$T11 = 8						; size = 4
$T12 = 8						; size = 4
$T13 = 8						; size = 4
$T14 = 8						; size = 4
_strData$ = 8						; size = 4
_szDS$ = 12						; size = 4
_pDataArr$ = 12						; size = 4
?MakeDataOfSuspensSeContract@CChartItemMarket@@IAEXAAV?$CStringT@DV?$StrTraitMFC_DLL@DV?$ChTraitsCRT@D@ATL@@@@@ATL@@PAVCStringArray@@@Z PROC ; CChartItemMarket::MakeDataOfSuspensSeContract, COMDAT
; _this$ = ecx

; 942  : {

  00000	55		 push	 ebp
  00001	8b ec		 mov	 ebp, esp
  00003	6a ff		 push	 -1
  00005	68 00 00 00 00	 push	 __ehhandler$?MakeDataOfSuspensSeContract@CChartItemMarket@@IAEXAAV?$CStringT@DV?$StrTraitMFC_DLL@DV?$ChTraitsCRT@D@ATL@@@@@ATL@@PAVCStringArray@@@Z
  0000a	64 a1 00 00 00
	00		 mov	 eax, DWORD PTR fs:0
  00010	50		 push	 eax
  00011	83 ec 24	 sub	 esp, 36			; 00000024H
  00014	56		 push	 esi
  00015	a1 00 00 00 00	 mov	 eax, DWORD PTR ___security_cookie
  0001a	33 c5		 xor	 eax, ebp
  0001c	50		 push	 eax
  0001d	8d 45 f4	 lea	 eax, DWORD PTR __$EHRec$[ebp]
  00020	64 a3 00 00 00
	00		 mov	 DWORD PTR fs:0, eax
  00026	c7 45 f0 00 00
	00 00		 mov	 DWORD PTR $T9[ebp], 0
; File C:\Program Files (x86)\Microsoft Visual Studio\2019\Community\VC\Tools\MSVC\14.29.30133\atlmfc\include\afxcoll.inl

; 289  : 		if( nIndex < 0 || nIndex >= m_nSize )

  0002d	8b 75 0c	 mov	 esi, DWORD PTR _pDataArr$[ebp]
  00030	83 7e 08 00	 cmp	 DWORD PTR [esi+8], 0
  00034	0f 8e 46 04 00
	00		 jle	 $LN209@MakeDataOf
; File D:\git\src\IBK\IBK_DRFN\ProjSrc\SrcDrfn\DrCommon\PartnerMng\ChartItemMarket.cpp

; 943  : 	CString strCode = pDataArr->GetAt(0);

  0003a	ff 76 04	 push	 DWORD PTR [esi+4]
  0003d	8d 4d d0	 lea	 ecx, DWORD PTR _strCode$[ebp]
  00040	ff 15 00 00 00
	00		 call	 DWORD PTR __imp_??0?$CStringT@DV?$StrTraitMFC_DLL@DV?$ChTraitsCRT@D@ATL@@@@@ATL@@QAE@ABV01@@Z
; File C:\Program Files (x86)\Microsoft Visual Studio\2019\Community\VC\Tools\MSVC\14.29.30133\atlmfc\include\afxcoll.inl

; 289  : 		if( nIndex < 0 || nIndex >= m_nSize )

  00046	83 7e 08 01	 cmp	 DWORD PTR [esi+8], 1
; File D:\git\src\IBK\IBK_DRFN\ProjSrc\SrcDrfn\DrCommon\PartnerMng\ChartItemMarket.cpp

; 943  : 	CString strCode = pDataArr->GetAt(0);

  0004a	c7 45 fc 00 00
	00 00		 mov	 DWORD PTR __$EHRec$[ebp+8], 0
; File C:\Program Files (x86)\Microsoft Visual Studio\2019\Community\VC\Tools\MSVC\14.29.30133\atlmfc\include\afxcoll.inl

; 289  : 		if( nIndex < 0 || nIndex >= m_nSize )

  00051	0f 8e 29 04 00
	00		 jle	 $LN209@MakeDataOf

; 291  : 		return m_pData[nIndex]; }

  00057	8b 46 04	 mov	 eax, DWORD PTR [esi+4]
; File D:\git\src\IBK\IBK_DRFN\ProjSrc\SrcDrfn\DrCommon\PartnerMng\ChartItemMarket.cpp

; 944  : 	CString strDate = pDataArr->GetAt(1);

  0005a	8d 4d d4	 lea	 ecx, DWORD PTR _strDate$[ebp]
; File C:\Program Files (x86)\Microsoft Visual Studio\2019\Community\VC\Tools\MSVC\14.29.30133\atlmfc\include\afxcoll.inl

; 291  : 		return m_pData[nIndex]; }

  0005d	83 c0 04	 add	 eax, 4
; File D:\git\src\IBK\IBK_DRFN\ProjSrc\SrcDrfn\DrCommon\PartnerMng\ChartItemMarket.cpp

; 944  : 	CString strDate = pDataArr->GetAt(1);

  00060	50		 push	 eax
  00061	ff 15 00 00 00
	00		 call	 DWORD PTR __imp_??0?$CStringT@DV?$StrTraitMFC_DLL@DV?$ChTraitsCRT@D@ATL@@@@@ATL@@QAE@ABV01@@Z
; File C:\Program Files (x86)\Microsoft Visual Studio\2019\Community\VC\Tools\MSVC\14.29.30133\atlmfc\include\afxcoll.inl

; 289  : 		if( nIndex < 0 || nIndex >= m_nSize )

  00067	83 7e 08 02	 cmp	 DWORD PTR [esi+8], 2
; File D:\git\src\IBK\IBK_DRFN\ProjSrc\SrcDrfn\DrCommon\PartnerMng\ChartItemMarket.cpp

; 944  : 	CString strDate = pDataArr->GetAt(1);

  0006b	c6 45 fc 01	 mov	 BYTE PTR __$EHRec$[ebp+8], 1
; File C:\Program Files (x86)\Microsoft Visual Studio\2019\Community\VC\Tools\MSVC\14.29.30133\atlmfc\include\afxcoll.inl

; 289  : 		if( nIndex < 0 || nIndex >= m_nSize )

  0006f	0f 8e 0b 04 00
	00		 jle	 $LN209@MakeDataOf

; 291  : 		return m_pData[nIndex]; }

  00075	8b 46 04	 mov	 eax, DWORD PTR [esi+4]
; File D:\git\src\IBK\IBK_DRFN\ProjSrc\SrcDrfn\DrCommon\PartnerMng\ChartItemMarket.cpp

; 945  : 	CString strGrid = pDataArr->GetAt(2);

  00078	8d 4d d8	 lea	 ecx, DWORD PTR _strGrid$[ebp]
; File C:\Program Files (x86)\Microsoft Visual Studio\2019\Community\VC\Tools\MSVC\14.29.30133\atlmfc\include\afxcoll.inl

; 291  : 		return m_pData[nIndex]; }

  0007b	83 c0 08	 add	 eax, 8
; File D:\git\src\IBK\IBK_DRFN\ProjSrc\SrcDrfn\DrCommon\PartnerMng\ChartItemMarket.cpp

; 945  : 	CString strGrid = pDataArr->GetAt(2);

  0007e	50		 push	 eax
  0007f	ff 15 00 00 00
	00		 call	 DWORD PTR __imp_??0?$CStringT@DV?$StrTraitMFC_DLL@DV?$ChTraitsCRT@D@ATL@@@@@ATL@@QAE@ABV01@@Z

; 946  : 
; 947  : 	CString szDS, szFS, szCOL;

  00085	8d 4d 0c	 lea	 ecx, DWORD PTR _szDS$[ebp]
  00088	ff 15 00 00 00
	00		 call	 DWORD PTR __imp_??0?$CStringT@DV?$StrTraitMFC_DLL@DV?$ChTraitsCRT@D@ATL@@@@@ATL@@QAE@XZ
  0008e	8d 4d e8	 lea	 ecx, DWORD PTR _szFS$[ebp]
  00091	ff 15 00 00 00
	00		 call	 DWORD PTR __imp_??0?$CStringT@DV?$StrTraitMFC_DLL@DV?$ChTraitsCRT@D@ATL@@@@@ATL@@QAE@XZ
  00097	8d 4d ec	 lea	 ecx, DWORD PTR _szCOL$[ebp]
  0009a	ff 15 00 00 00
	00		 call	 DWORD PTR __imp_??0?$CStringT@DV?$StrTraitMFC_DLL@DV?$ChTraitsCRT@D@ATL@@@@@ATL@@QAE@XZ

; 948  : 	szDS = sDS;	szFS = sFS;	szCOL = sCOL;

  000a0	6a 7f		 push	 127			; 0000007fH
  000a2	8d 4d 0c	 lea	 ecx, DWORD PTR _szDS$[ebp]
  000a5	c6 45 fc 05	 mov	 BYTE PTR __$EHRec$[ebp+8], 5
  000a9	ff 15 00 00 00
	00		 call	 DWORD PTR __imp_??4?$CStringT@DV?$StrTraitMFC_DLL@DV?$ChTraitsCRT@D@ATL@@@@@ATL@@QAEAAV01@D@Z
  000af	6a 0d		 push	 13			; 0000000dH
  000b1	8d 4d e8	 lea	 ecx, DWORD PTR _szFS$[ebp]
  000b4	ff 15 00 00 00
	00		 call	 DWORD PTR __imp_??4?$CStringT@DV?$StrTraitMFC_DLL@DV?$ChTraitsCRT@D@ATL@@@@@ATL@@QAEAAV01@D@Z
  000ba	6a 0a		 push	 10			; 0000000aH
  000bc	8d 4d ec	 lea	 ecx, DWORD PTR _szCOL$[ebp]
  000bf	ff 15 00 00 00
	00		 call	 DWORD PTR __imp_??4?$CStringT@DV?$StrTraitMFC_DLL@DV?$ChTraitsCRT@D@ATL@@@@@ATL@@QAEAAV01@D@Z
; File C:\Program Files (x86)\Microsoft Visual Studio\2019\Community\VC\Tools\MSVC\14.29.30133\atlmfc\include\cstringt.h

; 2412 : 		CStringT strResult( str2.GetManager() );

  000c5	8d 4d 0c	 lea	 ecx, DWORD PTR _szDS$[ebp]
; File D:\git\src\IBK\IBK_DRFN\ProjSrc\SrcDrfn\DrCommon\PartnerMng\ChartItemMarket.cpp

; 959  : 			strData += "30301"	+ szDS + strCode + szFS;	//  

  000c8	c6 45 fc 06	 mov	 BYTE PTR __$EHRec$[ebp+8], 6
; File C:\Program Files (x86)\Microsoft Visual Studio\2019\Community\VC\Tools\MSVC\14.29.30133\atlmfc\include\cstringt.h

; 2412 : 		CStringT strResult( str2.GetManager() );

  000cc	ff 15 00 00 00
	00		 call	 DWORD PTR __imp_?GetManager@?$CStringT@DV?$StrTraitMFC_DLL@DV?$ChTraitsCRT@D@ATL@@@@@ATL@@QBEPAUIAtlStringMgr@2@XZ
  000d2	50		 push	 eax
  000d3	8d 4d e0	 lea	 ecx, DWORD PTR $T7[ebp]
  000d6	ff 15 00 00 00
	00		 call	 DWORD PTR __imp_??0?$CStringT@DV?$StrTraitMFC_DLL@DV?$ChTraitsCRT@D@ATL@@@@@ATL@@QAE@PAUIAtlStringMgr@1@@Z
; File C:\Program Files (x86)\Microsoft Visual Studio\2019\Community\VC\Tools\MSVC\14.29.30133\atlmfc\include\atlsimpstr.h

; 519  : 		return( GetData()->nDataLength );

  000dc	8b 45 0c	 mov	 eax, DWORD PTR _szDS$[ebp]
; File C:\Program Files (x86)\Microsoft Visual Studio\2019\Community\VC\Tools\MSVC\14.29.30133\atlmfc\include\cstringt.h

; 2416 : 		return( strResult );

  000df	c7 45 f0 01 00
	00 00		 mov	 DWORD PTR $T9[ebp], 1
  000e6	ff 70 f4	 push	 DWORD PTR [eax-12]
  000e9	50		 push	 eax
  000ea	6a 05		 push	 5
  000ec	8d 45 e0	 lea	 eax, DWORD PTR $T7[ebp]
  000ef	68 00 00 00 00	 push	 OFFSET ??_C@_05GNFKCGLE@30301@
  000f4	50		 push	 eax
  000f5	ff 15 00 00 00
	00		 call	 DWORD PTR __imp_?Concatenate@?$CSimpleStringT@D$00@ATL@@KAXAAV12@PBDH1H@Z
  000fb	83 c4 14	 add	 esp, 20			; 00000014H

; 2390 : 		CStringT strResult( str1.GetManager() );

  000fe	8d 4d e0	 lea	 ecx, DWORD PTR $T7[ebp]
; File D:\git\src\IBK\IBK_DRFN\ProjSrc\SrcDrfn\DrCommon\PartnerMng\ChartItemMarket.cpp

; 959  : 			strData += "30301"	+ szDS + strCode + szFS;	//  

  00101	c6 45 fc 07	 mov	 BYTE PTR __$EHRec$[ebp+8], 7
; File C:\Program Files (x86)\Microsoft Visual Studio\2019\Community\VC\Tools\MSVC\14.29.30133\atlmfc\include\cstringt.h

; 2390 : 		CStringT strResult( str1.GetManager() );

  00105	ff 15 00 00 00
	00		 call	 DWORD PTR __imp_?GetManager@?$CStringT@DV?$StrTraitMFC_DLL@DV?$ChTraitsCRT@D@ATL@@@@@ATL@@QBEPAUIAtlStringMgr@2@XZ
  0010b	50		 push	 eax
  0010c	8d 4d e4	 lea	 ecx, DWORD PTR $T8[ebp]
  0010f	ff 15 00 00 00
	00		 call	 DWORD PTR __imp_??0?$CStringT@DV?$StrTraitMFC_DLL@DV?$ChTraitsCRT@D@ATL@@@@@ATL@@QAE@PAUIAtlStringMgr@1@@Z
; File C:\Program Files (x86)\Microsoft Visual Studio\2019\Community\VC\Tools\MSVC\14.29.30133\atlmfc\include\atlsimpstr.h

; 519  : 		return( GetData()->nDataLength );

  00115	8b 45 d0	 mov	 eax, DWORD PTR _strCode$[ebp]
  00118	8b 4d e0	 mov	 ecx, DWORD PTR $T7[ebp]
; File C:\Program Files (x86)\Microsoft Visual Studio\2019\Community\VC\Tools\MSVC\14.29.30133\atlmfc\include\cstringt.h

; 2394 : 		return( strResult );

  0011b	c7 45 f0 03 00
	00 00		 mov	 DWORD PTR $T9[ebp], 3
  00122	ff 70 f4	 push	 DWORD PTR [eax-12]
  00125	50		 push	 eax
  00126	ff 71 f4	 push	 DWORD PTR [ecx-12]
  00129	8d 45 e4	 lea	 eax, DWORD PTR $T8[ebp]
  0012c	51		 push	 ecx
  0012d	50		 push	 eax
  0012e	ff 15 00 00 00
	00		 call	 DWORD PTR __imp_?Concatenate@?$CSimpleStringT@D$00@ATL@@KAXAAV12@PBDH1H@Z
  00134	83 c4 14	 add	 esp, 20			; 00000014H

; 2390 : 		CStringT strResult( str1.GetManager() );

  00137	8d 4d e4	 lea	 ecx, DWORD PTR $T8[ebp]
; File D:\git\src\IBK\IBK_DRFN\ProjSrc\SrcDrfn\DrCommon\PartnerMng\ChartItemMarket.cpp

; 959  : 			strData += "30301"	+ szDS + strCode + szFS;	//  

  0013a	c6 45 fc 08	 mov	 BYTE PTR __$EHRec$[ebp+8], 8
; File C:\Program Files (x86)\Microsoft Visual Studio\2019\Community\VC\Tools\MSVC\14.29.30133\atlmfc\include\cstringt.h

; 2390 : 		CStringT strResult( str1.GetManager() );

  0013e	ff 15 00 00 00
	00		 call	 DWORD PTR __imp_?GetManager@?$CStringT@DV?$StrTraitMFC_DLL@DV?$ChTraitsCRT@D@ATL@@@@@ATL@@QBEPAUIAtlStringMgr@2@XZ
  00144	50		 push	 eax
  00145	8d 4d dc	 lea	 ecx, DWORD PTR $T4[ebp]
  00148	ff 15 00 00 00
	00		 call	 DWORD PTR __imp_??0?$CStringT@DV?$StrTraitMFC_DLL@DV?$ChTraitsCRT@D@ATL@@@@@ATL@@QAE@PAUIAtlStringMgr@1@@Z
; File C:\Program Files (x86)\Microsoft Visual Studio\2019\Community\VC\Tools\MSVC\14.29.30133\atlmfc\include\atlsimpstr.h

; 519  : 		return( GetData()->nDataLength );

  0014e	8b 45 e8	 mov	 eax, DWORD PTR _szFS$[ebp]
  00151	8b 4d e4	 mov	 ecx, DWORD PTR $T8[ebp]
; File C:\Program Files (x86)\Microsoft Visual Studio\2019\Community\VC\Tools\MSVC\14.29.30133\atlmfc\include\cstringt.h

; 2394 : 		return( strResult );

  00154	c7 45 f0 07 00
	00 00		 mov	 DWORD PTR $T9[ebp], 7
  0015b	ff 70 f4	 push	 DWORD PTR [eax-12]
  0015e	50		 push	 eax
  0015f	ff 71 f4	 push	 DWORD PTR [ecx-12]
  00162	8d 45 dc	 lea	 eax, DWORD PTR $T4[ebp]
  00165	51		 push	 ecx
  00166	50		 push	 eax
  00167	ff 15 00 00 00
	00		 call	 DWORD PTR __imp_?Concatenate@?$CSimpleStringT@D$00@ATL@@KAXAAV12@PBDH1H@Z
; File D:\git\src\IBK\IBK_DRFN\ProjSrc\SrcDrfn\DrCommon\PartnerMng\ChartItemMarket.cpp

; 959  : 			strData += "30301"	+ szDS + strCode + szFS;	//  

  0016d	8b 75 08	 mov	 esi, DWORD PTR _strData$[ebp]
  00170	8d 45 dc	 lea	 eax, DWORD PTR $T4[ebp]
; File C:\Program Files (x86)\Microsoft Visual Studio\2019\Community\VC\Tools\MSVC\14.29.30133\atlmfc\include\cstringt.h

; 2392 : 		CThisSimpleString::Concatenate( strResult, str1, str1.GetLength(), str2, str2.GetLength() );

  00173	83 c4 14	 add	 esp, 20			; 00000014H
; File D:\git\src\IBK\IBK_DRFN\ProjSrc\SrcDrfn\DrCommon\PartnerMng\ChartItemMarket.cpp

; 959  : 			strData += "30301"	+ szDS + strCode + szFS;	//  

  00176	50		 push	 eax
  00177	8b ce		 mov	 ecx, esi
  00179	ff 15 00 00 00
	00		 call	 DWORD PTR __imp_??Y?$CStringT@DV?$StrTraitMFC_DLL@DV?$ChTraitsCRT@D@ATL@@@@@ATL@@QAEAAV01@ABV?$CSimpleStringT@D$00@1@@Z
  0017f	8d 4d dc	 lea	 ecx, DWORD PTR $T4[ebp]
  00182	ff 15 00 00 00
	00		 call	 DWORD PTR __imp_??1?$CStringT@DV?$StrTraitMFC_DLL@DV?$ChTraitsCRT@D@ATL@@@@@ATL@@QAE@XZ
  00188	8d 4d e4	 lea	 ecx, DWORD PTR $T8[ebp]
  0018b	ff 15 00 00 00
	00		 call	 DWORD PTR __imp_??1?$CStringT@DV?$StrTraitMFC_DLL@DV?$ChTraitsCRT@D@ATL@@@@@ATL@@QAE@XZ
  00191	8d 4d e0	 lea	 ecx, DWORD PTR $T7[ebp]
  00194	ff 15 00 00 00
	00		 call	 DWORD PTR __imp_??1?$CStringT@DV?$StrTraitMFC_DLL@DV?$ChTraitsCRT@D@ATL@@@@@ATL@@QAE@XZ
; File C:\Program Files (x86)\Microsoft Visual Studio\2019\Community\VC\Tools\MSVC\14.29.30133\atlmfc\include\cstringt.h

; 2412 : 		CStringT strResult( str2.GetManager() );

  0019a	8d 4d 0c	 lea	 ecx, DWORD PTR _szDS$[ebp]
; File D:\git\src\IBK\IBK_DRFN\ProjSrc\SrcDrfn\DrCommon\PartnerMng\ChartItemMarket.cpp

; 960  : 			strData += "103306" + szDS + strDate + szFS;	// 

  0019d	c6 45 fc 09	 mov	 BYTE PTR __$EHRec$[ebp+8], 9
; File C:\Program Files (x86)\Microsoft Visual Studio\2019\Community\VC\Tools\MSVC\14.29.30133\atlmfc\include\cstringt.h

; 2412 : 		CStringT strResult( str2.GetManager() );

  001a1	ff 15 00 00 00
	00		 call	 DWORD PTR __imp_?GetManager@?$CStringT@DV?$StrTraitMFC_DLL@DV?$ChTraitsCRT@D@ATL@@@@@ATL@@QBEPAUIAtlStringMgr@2@XZ
  001a7	50		 push	 eax
  001a8	8d 4d e0	 lea	 ecx, DWORD PTR $T6[ebp]
  001ab	ff 15 00 00 00
	00		 call	 DWORD PTR __imp_??0?$CStringT@DV?$StrTraitMFC_DLL@DV?$ChTraitsCRT@D@ATL@@@@@ATL@@QAE@PAUIAtlStringMgr@1@@Z
; File C:\Program Files (x86)\Microsoft Visual Studio\2019\Community\VC\Tools\MSVC\14.29.30133\atlmfc\include\atlsimpstr.h

; 519  : 		return( GetData()->nDataLength );

  001b1	8b 45 0c	 mov	 eax, DWORD PTR _szDS$[ebp]
; File C:\Program Files (x86)\Microsoft Visual Studio\2019\Community\VC\Tools\MSVC\14.29.30133\atlmfc\include\cstringt.h

; 2416 : 		return( strResult );

  001b4	c7 45 f0 08 00
	00 00		 mov	 DWORD PTR $T9[ebp], 8
  001bb	ff 70 f4	 push	 DWORD PTR [eax-12]
  001be	50		 push	 eax
  001bf	6a 06		 push	 6
  001c1	8d 45 e0	 lea	 eax, DWORD PTR $T6[ebp]
  001c4	68 00 00 00 00	 push	 OFFSET ??_C@_06MBJFGIDG@103306@
  001c9	50		 push	 eax
  001ca	ff 15 00 00 00
	00		 call	 DWORD PTR __imp_?Concatenate@?$CSimpleStringT@D$00@ATL@@KAXAAV12@PBDH1H@Z
  001d0	83 c4 14	 add	 esp, 20			; 00000014H

; 2390 : 		CStringT strResult( str1.GetManager() );

  001d3	8d 4d e0	 lea	 ecx, DWORD PTR $T6[ebp]
; File D:\git\src\IBK\IBK_DRFN\ProjSrc\SrcDrfn\DrCommon\PartnerMng\ChartItemMarket.cpp

; 960  : 			strData += "103306" + szDS + strDate + szFS;	// 

  001d6	c6 45 fc 0a	 mov	 BYTE PTR __$EHRec$[ebp+8], 10 ; 0000000aH
; File C:\Program Files (x86)\Microsoft Visual Studio\2019\Community\VC\Tools\MSVC\14.29.30133\atlmfc\include\cstringt.h

; 2390 : 		CStringT strResult( str1.GetManager() );

  001da	ff 15 00 00 00
	00		 call	 DWORD PTR __imp_?GetManager@?$CStringT@DV?$StrTraitMFC_DLL@DV?$ChTraitsCRT@D@ATL@@@@@ATL@@QBEPAUIAtlStringMgr@2@XZ
  001e0	50		 push	 eax
  001e1	8d 4d 08	 lea	 ecx, DWORD PTR $T14[ebp]
  001e4	ff 15 00 00 00
	00		 call	 DWORD PTR __imp_??0?$CStringT@DV?$StrTraitMFC_DLL@DV?$ChTraitsCRT@D@ATL@@@@@ATL@@QAE@PAUIAtlStringMgr@1@@Z
; File C:\Program Files (x86)\Microsoft Visual Studio\2019\Community\VC\Tools\MSVC\14.29.30133\atlmfc\include\atlsimpstr.h

; 519  : 		return( GetData()->nDataLength );

  001ea	8b 45 d4	 mov	 eax, DWORD PTR _strDate$[ebp]
  001ed	8b 4d e0	 mov	 ecx, DWORD PTR $T6[ebp]
; File C:\Program Files (x86)\Microsoft Visual Studio\2019\Community\VC\Tools\MSVC\14.29.30133\atlmfc\include\cstringt.h

; 2394 : 		return( strResult );

  001f0	c7 45 f0 18 00
	00 00		 mov	 DWORD PTR $T9[ebp], 24	; 00000018H
  001f7	ff 70 f4	 push	 DWORD PTR [eax-12]
  001fa	50		 push	 eax
  001fb	ff 71 f4	 push	 DWORD PTR [ecx-12]
  001fe	8d 45 08	 lea	 eax, DWORD PTR $T14[ebp]
  00201	51		 push	 ecx
  00202	50		 push	 eax
  00203	ff 15 00 00 00
	00		 call	 DWORD PTR __imp_?Concatenate@?$CSimpleStringT@D$00@ATL@@KAXAAV12@PBDH1H@Z
  00209	83 c4 14	 add	 esp, 20			; 00000014H

; 2390 : 		CStringT strResult( str1.GetManager() );

  0020c	8d 4d 08	 lea	 ecx, DWORD PTR $T14[ebp]
; File D:\git\src\IBK\IBK_DRFN\ProjSrc\SrcDrfn\DrCommon\PartnerMng\ChartItemMarket.cpp

; 960  : 			strData += "103306" + szDS + strDate + szFS;	// 

  0020f	c6 45 fc 0b	 mov	 BYTE PTR __$EHRec$[ebp+8], 11 ; 0000000bH
; File C:\Program Files (x86)\Microsoft Visual Studio\2019\Community\VC\Tools\MSVC\14.29.30133\atlmfc\include\cstringt.h

; 2390 : 		CStringT strResult( str1.GetManager() );

  00213	ff 15 00 00 00
	00		 call	 DWORD PTR __imp_?GetManager@?$CStringT@DV?$StrTraitMFC_DLL@DV?$ChTraitsCRT@D@ATL@@@@@ATL@@QBEPAUIAtlStringMgr@2@XZ
  00219	50		 push	 eax
  0021a	8d 4d dc	 lea	 ecx, DWORD PTR $T3[ebp]
  0021d	ff 15 00 00 00
	00		 call	 DWORD PTR __imp_??0?$CStringT@DV?$StrTraitMFC_DLL@DV?$ChTraitsCRT@D@ATL@@@@@ATL@@QAE@PAUIAtlStringMgr@1@@Z
; File C:\Program Files (x86)\Microsoft Visual Studio\2019\Community\VC\Tools\MSVC\14.29.30133\atlmfc\include\atlsimpstr.h

; 519  : 		return( GetData()->nDataLength );

  00223	8b 45 e8	 mov	 eax, DWORD PTR _szFS$[ebp]
  00226	8b 4d 08	 mov	 ecx, DWORD PTR $T14[ebp]
; File C:\Program Files (x86)\Microsoft Visual Studio\2019\Community\VC\Tools\MSVC\14.29.30133\atlmfc\include\cstringt.h

; 2394 : 		return( strResult );

  00229	c7 45 f0 38 00
	00 00		 mov	 DWORD PTR $T9[ebp], 56	; 00000038H
  00230	ff 70 f4	 push	 DWORD PTR [eax-12]
  00233	50		 push	 eax
  00234	ff 71 f4	 push	 DWORD PTR [ecx-12]
  00237	8d 45 dc	 lea	 eax, DWORD PTR $T3[ebp]
  0023a	51		 push	 ecx
  0023b	50		 push	 eax
  0023c	ff 15 00 00 00
	00		 call	 DWORD PTR __imp_?Concatenate@?$CSimpleStringT@D$00@ATL@@KAXAAV12@PBDH1H@Z
  00242	83 c4 14	 add	 esp, 20			; 00000014H
; File D:\git\src\IBK\IBK_DRFN\ProjSrc\SrcDrfn\DrCommon\PartnerMng\ChartItemMarket.cpp

; 960  : 			strData += "103306" + szDS + strDate + szFS;	// 

  00245	8d 45 dc	 lea	 eax, DWORD PTR $T3[ebp]
  00248	8b ce		 mov	 ecx, esi
  0024a	50		 push	 eax
  0024b	ff 15 00 00 00
	00		 call	 DWORD PTR __imp_??Y?$CStringT@DV?$StrTraitMFC_DLL@DV?$ChTraitsCRT@D@ATL@@@@@ATL@@QAEAAV01@ABV?$CSimpleStringT@D$00@1@@Z
  00251	8d 4d dc	 lea	 ecx, DWORD PTR $T3[ebp]
  00254	ff 15 00 00 00
	00		 call	 DWORD PTR __imp_??1?$CStringT@DV?$StrTraitMFC_DLL@DV?$ChTraitsCRT@D@ATL@@@@@ATL@@QAE@XZ
  0025a	8d 4d 08	 lea	 ecx, DWORD PTR $T14[ebp]
  0025d	ff 15 00 00 00
	00		 call	 DWORD PTR __imp_??1?$CStringT@DV?$StrTraitMFC_DLL@DV?$ChTraitsCRT@D@ATL@@@@@ATL@@QAE@XZ
  00263	8d 4d e0	 lea	 ecx, DWORD PTR $T6[ebp]
  00266	ff 15 00 00 00
	00		 call	 DWORD PTR __imp_??1?$CStringT@DV?$StrTraitMFC_DLL@DV?$ChTraitsCRT@D@ATL@@@@@ATL@@QAE@XZ
; File C:\Program Files (x86)\Microsoft Visual Studio\2019\Community\VC\Tools\MSVC\14.29.30133\atlmfc\include\cstringt.h

; 2412 : 		CStringT strResult( str2.GetManager() );

  0026c	8d 4d 0c	 lea	 ecx, DWORD PTR _szDS$[ebp]
; File D:\git\src\IBK\IBK_DRFN\ProjSrc\SrcDrfn\DrCommon\PartnerMng\ChartItemMarket.cpp

; 961  : 			strData += "103308" + szDS + "1" + szFS;		//  .

  0026f	c6 45 fc 0c	 mov	 BYTE PTR __$EHRec$[ebp+8], 12 ; 0000000cH
; File C:\Program Files (x86)\Microsoft Visual Studio\2019\Community\VC\Tools\MSVC\14.29.30133\atlmfc\include\cstringt.h

; 2412 : 		CStringT strResult( str2.GetManager() );

  00273	ff 15 00 00 00
	00		 call	 DWORD PTR __imp_?GetManager@?$CStringT@DV?$StrTraitMFC_DLL@DV?$ChTraitsCRT@D@ATL@@@@@ATL@@QBEPAUIAtlStringMgr@2@XZ
  00279	50		 push	 eax
  0027a	8d 4d e0	 lea	 ecx, DWORD PTR $T5[ebp]
  0027d	ff 15 00 00 00
	00		 call	 DWORD PTR __imp_??0?$CStringT@DV?$StrTraitMFC_DLL@DV?$ChTraitsCRT@D@ATL@@@@@ATL@@QAE@PAUIAtlStringMgr@1@@Z
; File C:\Program Files (x86)\Microsoft Visual Studio\2019\Community\VC\Tools\MSVC\14.29.30133\atlmfc\include\atlsimpstr.h

; 519  : 		return( GetData()->nDataLength );

  00283	8b 45 0c	 mov	 eax, DWORD PTR _szDS$[ebp]
; File C:\Program Files (x86)\Microsoft Visual Studio\2019\Community\VC\Tools\MSVC\14.29.30133\atlmfc\include\cstringt.h

; 2416 : 		return( strResult );

  00286	c7 45 f0 40 00
	00 00		 mov	 DWORD PTR $T9[ebp], 64	; 00000040H
  0028d	ff 70 f4	 push	 DWORD PTR [eax-12]

; 2413 : 
; 2414 : 		CThisSimpleString::Concatenate( strResult, psz1, CThisSimpleString::StringLength( psz1 ), str2, str2.GetLength() );

  00290	50		 push	 eax
  00291	6a 06		 push	 6
  00293	8d 45 e0	 lea	 eax, DWORD PTR $T5[ebp]
  00296	68 00 00 00 00	 push	 OFFSET ??_C@_06FPBGEFLI@103308@
  0029b	50		 push	 eax
  0029c	ff 15 00 00 00
	00		 call	 DWORD PTR __imp_?Concatenate@?$CSimpleStringT@D$00@ATL@@KAXAAV12@PBDH1H@Z
  002a2	83 c4 14	 add	 esp, 20			; 00000014H

; 2401 : 		CStringT strResult( str1.GetManager() );

  002a5	8d 4d e0	 lea	 ecx, DWORD PTR $T5[ebp]
; File D:\git\src\IBK\IBK_DRFN\ProjSrc\SrcDrfn\DrCommon\PartnerMng\ChartItemMarket.cpp

; 961  : 			strData += "103308" + szDS + "1" + szFS;		//  .

  002a8	c6 45 fc 0d	 mov	 BYTE PTR __$EHRec$[ebp+8], 13 ; 0000000dH
; File C:\Program Files (x86)\Microsoft Visual Studio\2019\Community\VC\Tools\MSVC\14.29.30133\atlmfc\include\cstringt.h

; 2401 : 		CStringT strResult( str1.GetManager() );

  002ac	ff 15 00 00 00
	00		 call	 DWORD PTR __imp_?GetManager@?$CStringT@DV?$StrTraitMFC_DLL@DV?$ChTraitsCRT@D@ATL@@@@@ATL@@QBEPAUIAtlStringMgr@2@XZ
  002b2	50		 push	 eax
  002b3	8d 4d 08	 lea	 ecx, DWORD PTR $T13[ebp]
  002b6	ff 15 00 00 00
	00		 call	 DWORD PTR __imp_??0?$CStringT@DV?$StrTraitMFC_DLL@DV?$ChTraitsCRT@D@ATL@@@@@ATL@@QAE@PAUIAtlStringMgr@1@@Z
; File C:\Program Files (x86)\Microsoft Visual Studio\2019\Community\VC\Tools\MSVC\14.29.30133\atlmfc\include\atlsimpstr.h

; 519  : 		return( GetData()->nDataLength );

  002bc	8b 45 e0	 mov	 eax, DWORD PTR $T5[ebp]
; File C:\Program Files (x86)\Microsoft Visual Studio\2019\Community\VC\Tools\MSVC\14.29.30133\atlmfc\include\cstringt.h

; 2403 : 		CThisSimpleString::Concatenate( strResult, str1, str1.GetLength(), psz2, CThisSimpleString::StringLength( psz2 ) );

  002bf	6a 01		 push	 1
  002c1	68 00 00 00 00	 push	 OFFSET ??_C@_01HIHLOKLC@1@

; 2404 : 
; 2405 : 		return( strResult );

  002c6	c7 45 f0 c0 00
	00 00		 mov	 DWORD PTR $T9[ebp], 192	; 000000c0H
  002cd	ff 70 f4	 push	 DWORD PTR [eax-12]
  002d0	50		 push	 eax
  002d1	8d 45 08	 lea	 eax, DWORD PTR $T13[ebp]
  002d4	50		 push	 eax
  002d5	ff 15 00 00 00
	00		 call	 DWORD PTR __imp_?Concatenate@?$CSimpleStringT@D$00@ATL@@KAXAAV12@PBDH1H@Z
  002db	83 c4 14	 add	 esp, 20			; 00000014H

; 2390 : 		CStringT strResult( str1.GetManager() );

  002de	8d 4d 08	 lea	 ecx, DWORD PTR $T13[ebp]
; File D:\git\src\IBK\IBK_DRFN\ProjSrc\SrcDrfn\DrCommon\PartnerMng\ChartItemMarket.cpp

; 961  : 			strData += "103308" + szDS + "1" + szFS;		//  .

  002e1	c6 45 fc 0e	 mov	 BYTE PTR __$EHRec$[ebp+8], 14 ; 0000000eH
; File C:\Program Files (x86)\Microsoft Visual Studio\2019\Community\VC\Tools\MSVC\14.29.30133\atlmfc\include\cstringt.h

; 2390 : 		CStringT strResult( str1.GetManager() );

  002e5	ff 15 00 00 00
	00		 call	 DWORD PTR __imp_?GetManager@?$CStringT@DV?$StrTraitMFC_DLL@DV?$ChTraitsCRT@D@ATL@@@@@ATL@@QBEPAUIAtlStringMgr@2@XZ
  002eb	50		 push	 eax
  002ec	8d 4d dc	 lea	 ecx, DWORD PTR $T2[ebp]
  002ef	ff 15 00 00 00
	00		 call	 DWORD PTR __imp_??0?$CStringT@DV?$StrTraitMFC_DLL@DV?$ChTraitsCRT@D@ATL@@@@@ATL@@QAE@PAUIAtlStringMgr@1@@Z
; File C:\Program Files (x86)\Microsoft Visual Studio\2019\Community\VC\Tools\MSVC\14.29.30133\atlmfc\include\atlsimpstr.h

; 519  : 		return( GetData()->nDataLength );

  002f5	8b 45 e8	 mov	 eax, DWORD PTR _szFS$[ebp]
  002f8	8b 4d 08	 mov	 ecx, DWORD PTR $T13[ebp]
; File C:\Program Files (x86)\Microsoft Visual Studio\2019\Community\VC\Tools\MSVC\14.29.30133\atlmfc\include\cstringt.h

; 2394 : 		return( strResult );

  002fb	c7 45 f0 c0 01
	00 00		 mov	 DWORD PTR $T9[ebp], 448	; 000001c0H
  00302	ff 70 f4	 push	 DWORD PTR [eax-12]
  00305	50		 push	 eax
  00306	ff 71 f4	 push	 DWORD PTR [ecx-12]
  00309	8d 45 dc	 lea	 eax, DWORD PTR $T2[ebp]
  0030c	51		 push	 ecx
  0030d	50		 push	 eax
  0030e	ff 15 00 00 00
	00		 call	 DWORD PTR __imp_?Concatenate@?$CSimpleStringT@D$00@ATL@@KAXAAV12@PBDH1H@Z
  00314	83 c4 14	 add	 esp, 20			; 00000014H
; File D:\git\src\IBK\IBK_DRFN\ProjSrc\SrcDrfn\DrCommon\PartnerMng\ChartItemMarket.cpp

; 961  : 			strData += "103308" + szDS + "1" + szFS;		//  .

  00317	8d 45 dc	 lea	 eax, DWORD PTR $T2[ebp]
  0031a	8b ce		 mov	 ecx, esi
  0031c	50		 push	 eax
  0031d	ff 15 00 00 00
	00		 call	 DWORD PTR __imp_??Y?$CStringT@DV?$StrTraitMFC_DLL@DV?$ChTraitsCRT@D@ATL@@@@@ATL@@QAEAAV01@ABV?$CSimpleStringT@D$00@1@@Z
  00323	8d 4d dc	 lea	 ecx, DWORD PTR $T2[ebp]
  00326	ff 15 00 00 00
	00		 call	 DWORD PTR __imp_??1?$CStringT@DV?$StrTraitMFC_DLL@DV?$ChTraitsCRT@D@ATL@@@@@ATL@@QAE@XZ
  0032c	8d 4d 08	 lea	 ecx, DWORD PTR $T13[ebp]
  0032f	ff 15 00 00 00
	00		 call	 DWORD PTR __imp_??1?$CStringT@DV?$StrTraitMFC_DLL@DV?$ChTraitsCRT@D@ATL@@@@@ATL@@QAE@XZ
  00335	8d 4d e0	 lea	 ecx, DWORD PTR $T5[ebp]
  00338	ff 15 00 00 00
	00		 call	 DWORD PTR __imp_??1?$CStringT@DV?$StrTraitMFC_DLL@DV?$ChTraitsCRT@D@ATL@@@@@ATL@@QAE@XZ
; File C:\Program Files (x86)\Microsoft Visual Studio\2019\Community\VC\Tools\MSVC\14.29.30133\atlmfc\include\cstringt.h

; 2412 : 		CStringT strResult( str2.GetManager() );

  0033e	8d 4d 0c	 lea	 ecx, DWORD PTR _szDS$[ebp]
; File D:\git\src\IBK\IBK_DRFN\ProjSrc\SrcDrfn\DrCommon\PartnerMng\ChartItemMarket.cpp

; 962  : 			strData += "$103610" + szDS;					//  .

  00341	c6 45 fc 0f	 mov	 BYTE PTR __$EHRec$[ebp+8], 15 ; 0000000fH
; File C:\Program Files (x86)\Microsoft Visual Studio\2019\Community\VC\Tools\MSVC\14.29.30133\atlmfc\include\cstringt.h

; 2412 : 		CStringT strResult( str2.GetManager() );

  00345	ff 15 00 00 00
	00		 call	 DWORD PTR __imp_?GetManager@?$CStringT@DV?$StrTraitMFC_DLL@DV?$ChTraitsCRT@D@ATL@@@@@ATL@@QBEPAUIAtlStringMgr@2@XZ
  0034b	50		 push	 eax
  0034c	8d 4d 08	 lea	 ecx, DWORD PTR $T12[ebp]
  0034f	ff 15 00 00 00
	00		 call	 DWORD PTR __imp_??0?$CStringT@DV?$StrTraitMFC_DLL@DV?$ChTraitsCRT@D@ATL@@@@@ATL@@QAE@PAUIAtlStringMgr@1@@Z
; File C:\Program Files (x86)\Microsoft Visual Studio\2019\Community\VC\Tools\MSVC\14.29.30133\atlmfc\include\atlsimpstr.h

; 519  : 		return( GetData()->nDataLength );

  00355	8b 45 0c	 mov	 eax, DWORD PTR _szDS$[ebp]
; File C:\Program Files (x86)\Microsoft Visual Studio\2019\Community\VC\Tools\MSVC\14.29.30133\atlmfc\include\cstringt.h

; 2416 : 		return( strResult );

  00358	c7 45 f0 00 02
	00 00		 mov	 DWORD PTR $T9[ebp], 512	; 00000200H
  0035f	ff 70 f4	 push	 DWORD PTR [eax-12]
  00362	50		 push	 eax
  00363	6a 07		 push	 7
  00365	8d 45 08	 lea	 eax, DWORD PTR $T12[ebp]
  00368	68 00 00 00 00	 push	 OFFSET ??_C@_07CEKBDJAO@$103610@
  0036d	50		 push	 eax
  0036e	ff 15 00 00 00
	00		 call	 DWORD PTR __imp_?Concatenate@?$CSimpleStringT@D$00@ATL@@KAXAAV12@PBDH1H@Z
  00374	83 c4 14	 add	 esp, 20			; 00000014H
; File D:\git\src\IBK\IBK_DRFN\ProjSrc\SrcDrfn\DrCommon\PartnerMng\ChartItemMarket.cpp

; 962  : 			strData += "$103610" + szDS;					//  .

  00377	8d 45 08	 lea	 eax, DWORD PTR $T12[ebp]
  0037a	8b ce		 mov	 ecx, esi
  0037c	50		 push	 eax
  0037d	ff 15 00 00 00
	00		 call	 DWORD PTR __imp_??Y?$CStringT@DV?$StrTraitMFC_DLL@DV?$ChTraitsCRT@D@ATL@@@@@ATL@@QAEAAV01@ABV?$CSimpleStringT@D$00@1@@Z
  00383	8d 4d 08	 lea	 ecx, DWORD PTR $T12[ebp]
  00386	c6 45 fc 05	 mov	 BYTE PTR __$EHRec$[ebp+8], 5
  0038a	ff 15 00 00 00
	00		 call	 DWORD PTR __imp_??1?$CStringT@DV?$StrTraitMFC_DLL@DV?$ChTraitsCRT@D@ATL@@@@@ATL@@QAE@XZ

; 963  : 			strData += strGrid;								//  .

  00390	8d 45 d8	 lea	 eax, DWORD PTR _strGrid$[ebp]
  00393	8b ce		 mov	 ecx, esi
  00395	50		 push	 eax
  00396	ff 15 00 00 00
	00		 call	 DWORD PTR __imp_??Y?$CStringT@DV?$StrTraitMFC_DLL@DV?$ChTraitsCRT@D@ATL@@@@@ATL@@QAEAAV01@ABV?$CSimpleStringT@D$00@1@@Z
; File C:\Program Files (x86)\Microsoft Visual Studio\2019\Community\VC\Tools\MSVC\14.29.30133\atlmfc\include\cstringt.h

; 2412 : 		CStringT strResult( str2.GetManager() );

  0039c	8d 4d ec	 lea	 ecx, DWORD PTR _szCOL$[ebp]
; File D:\git\src\IBK\IBK_DRFN\ProjSrc\SrcDrfn\DrCommon\PartnerMng\ChartItemMarket.cpp

; 964  : 			strData += "103302" + szCOL;					//	

  0039f	c6 45 fc 10	 mov	 BYTE PTR __$EHRec$[ebp+8], 16 ; 00000010H
; File C:\Program Files (x86)\Microsoft Visual Studio\2019\Community\VC\Tools\MSVC\14.29.30133\atlmfc\include\cstringt.h

; 2412 : 		CStringT strResult( str2.GetManager() );

  003a3	ff 15 00 00 00
	00		 call	 DWORD PTR __imp_?GetManager@?$CStringT@DV?$StrTraitMFC_DLL@DV?$ChTraitsCRT@D@ATL@@@@@ATL@@QBEPAUIAtlStringMgr@2@XZ
  003a9	50		 push	 eax
  003aa	8d 4d 08	 lea	 ecx, DWORD PTR $T11[ebp]
  003ad	ff 15 00 00 00
	00		 call	 DWORD PTR __imp_??0?$CStringT@DV?$StrTraitMFC_DLL@DV?$ChTraitsCRT@D@ATL@@@@@ATL@@QAE@PAUIAtlStringMgr@1@@Z
; File C:\Program Files (x86)\Microsoft Visual Studio\2019\Community\VC\Tools\MSVC\14.29.30133\atlmfc\include\atlsimpstr.h

; 519  : 		return( GetData()->nDataLength );

  003b3	8b 45 ec	 mov	 eax, DWORD PTR _szCOL$[ebp]
; File C:\Program Files (x86)\Microsoft Visual Studio\2019\Community\VC\Tools\MSVC\14.29.30133\atlmfc\include\cstringt.h

; 2416 : 		return( strResult );

  003b6	c7 45 f0 00 04
	00 00		 mov	 DWORD PTR $T9[ebp], 1024 ; 00000400H
  003bd	ff 70 f4	 push	 DWORD PTR [eax-12]
  003c0	50		 push	 eax
  003c1	6a 06		 push	 6
  003c3	8d 45 08	 lea	 eax, DWORD PTR $T11[ebp]
  003c6	68 00 00 00 00	 push	 OFFSET ??_C@_06KFPJKNDC@103302@
  003cb	50		 push	 eax
  003cc	ff 15 00 00 00
	00		 call	 DWORD PTR __imp_?Concatenate@?$CSimpleStringT@D$00@ATL@@KAXAAV12@PBDH1H@Z
  003d2	83 c4 14	 add	 esp, 20			; 00000014H
; File D:\git\src\IBK\IBK_DRFN\ProjSrc\SrcDrfn\DrCommon\PartnerMng\ChartItemMarket.cpp

; 964  : 			strData += "103302" + szCOL;					//	

  003d5	8d 45 08	 lea	 eax, DWORD PTR $T11[ebp]
  003d8	8b ce		 mov	 ecx, esi
  003da	50		 push	 eax
  003db	ff 15 00 00 00
	00		 call	 DWORD PTR __imp_??Y?$CStringT@DV?$StrTraitMFC_DLL@DV?$ChTraitsCRT@D@ATL@@@@@ATL@@QAEAAV01@ABV?$CSimpleStringT@D$00@1@@Z
  003e1	8d 4d 08	 lea	 ecx, DWORD PTR $T11[ebp]
  003e4	ff 15 00 00 00
	00		 call	 DWORD PTR __imp_??1?$CStringT@DV?$StrTraitMFC_DLL@DV?$ChTraitsCRT@D@ATL@@@@@ATL@@QAE@XZ
; File C:\Program Files (x86)\Microsoft Visual Studio\2019\Community\VC\Tools\MSVC\14.29.30133\atlmfc\include\cstringt.h

; 2412 : 		CStringT strResult( str2.GetManager() );

  003ea	8d 4d ec	 lea	 ecx, DWORD PTR _szCOL$[ebp]
; File D:\git\src\IBK\IBK_DRFN\ProjSrc\SrcDrfn\DrCommon\PartnerMng\ChartItemMarket.cpp

; 965  : 			strData += "103201" + szCOL;					//	 

  003ed	c6 45 fc 11	 mov	 BYTE PTR __$EHRec$[ebp+8], 17 ; 00000011H
; File C:\Program Files (x86)\Microsoft Visual Studio\2019\Community\VC\Tools\MSVC\14.29.30133\atlmfc\include\cstringt.h

; 2412 : 		CStringT strResult( str2.GetManager() );

  003f1	ff 15 00 00 00
	00		 call	 DWORD PTR __imp_?GetManager@?$CStringT@DV?$StrTraitMFC_DLL@DV?$ChTraitsCRT@D@ATL@@@@@ATL@@QBEPAUIAtlStringMgr@2@XZ
  003f7	50		 push	 eax
  003f8	8d 4d 08	 lea	 ecx, DWORD PTR $T10[ebp]
  003fb	ff 15 00 00 00
	00		 call	 DWORD PTR __imp_??0?$CStringT@DV?$StrTraitMFC_DLL@DV?$ChTraitsCRT@D@ATL@@@@@ATL@@QAE@PAUIAtlStringMgr@1@@Z

; 2413 : 
; 2414 : 		CThisSimpleString::Concatenate( strResult, psz1, CThisSimpleString::StringLength( psz1 ), str2, str2.GetLength() );

  00401	8b 45 ec	 mov	 eax, DWORD PTR _szCOL$[ebp]

; 2416 : 		return( strResult );

  00404	c7 45 f0 00 08
	00 00		 mov	 DWORD PTR $T9[ebp], 2048 ; 00000800H
  0040b	ff 70 f4	 push	 DWORD PTR [eax-12]
  0040e	50		 push	 eax
  0040f	6a 06		 push	 6
  00411	8d 45 08	 lea	 eax, DWORD PTR $T10[ebp]
  00414	68 00 00 00 00	 push	 OFFSET ??_C@_06DGGIJJJE@103201@
  00419	50		 push	 eax
  0041a	ff 15 00 00 00
	00		 call	 DWORD PTR __imp_?Concatenate@?$CSimpleStringT@D$00@ATL@@KAXAAV12@PBDH1H@Z
  00420	83 c4 14	 add	 esp, 20			; 00000014H
; File D:\git\src\IBK\IBK_DRFN\ProjSrc\SrcDrfn\DrCommon\PartnerMng\ChartItemMarket.cpp

; 965  : 			strData += "103201" + szCOL;					//	 

  00423	8d 45 08	 lea	 eax, DWORD PTR $T10[ebp]
  00426	8b ce		 mov	 ecx, esi
  00428	50		 push	 eax
  00429	ff 15 00 00 00
	00		 call	 DWORD PTR __imp_??Y?$CStringT@DV?$StrTraitMFC_DLL@DV?$ChTraitsCRT@D@ATL@@@@@ATL@@QAEAAV01@ABV?$CSimpleStringT@D$00@1@@Z
  0042f	8d 4d 08	 lea	 ecx, DWORD PTR $T10[ebp]
  00432	ff 15 00 00 00
	00		 call	 DWORD PTR __imp_??1?$CStringT@DV?$StrTraitMFC_DLL@DV?$ChTraitsCRT@D@ATL@@@@@ATL@@QAE@XZ

; 966  : 			break;
; 967  : 
; 968  : /*		case '0':		//
; 969  : 			strData += "30301" + szDS + strCode + szFS;		// 
; 970  : 			strData += "103304" + szDS + strDate + szFS;	// 
; 971  : 			strData += "103306" + szDS + strDate + szFS;	// 
; 972  : 			strData += "103307" + szDS + "1" + szFS;		//  1 0
; 973  : 			//strData += "103308" + szDS + "1" + szFS;		// .
; 974  : 			strData += "103308" + szDS + aUnit + szFS;		// .
; 975  : 			strData += "30301" + szFS;						// 
; 976  : 			strData += "$103410" + szDS;					//  .
; 977  : 			strData += strGrid;								//  .
; 978  : 			strData += "103302" + szCOL;					// 
; 979  : 			strData += "103034" + szCOL;					// 
; 980  : 			strData += "103201" + szCOL;					//  
; 981  : 			break;
; 982  : 
; 983  : 		case '1':		//
; 984  : 			strData += "30301" + szDS + strCode + szFS;		// 
; 985  : 			strData += "103304" + szDS + strDate + szFS;	// 
; 986  : 			strData += "103306" + szDS + strDate + szFS;	// 
; 987  : 			strData += "103307" + szDS + "1" + szFS;		//  1 0, 2
; 988  : 			//strData += "103308" + szDS + "1" + szFS;		// .
; 989  : 			strData += "103308" + szDS + aUnit + szFS;		// .
; 990  : 			strData += "30301" + szFS;						// 
; 991  : 			strData += "$103510" + szDS;					//  .
; 992  : 			strData += strGrid;								//  .
; 993  : 			strData += "103302" + szCOL;					// 
; 994  : 			strData += "103034" + szCOL;					// 
; 995  : 			strData += "103201" + szCOL;					//  
; 996  : 			break;
; 997  : 
; 998  : 		case '6':		//
; 999  : 			strData += "30301" + szDS + strCode + szFS;		// 
; 1000 : 			strData += "103304" + szDS + "1" + szFS;		// 
; 1001 : 			strData += "103307" + szDS + "1" + szFS;		//  
; 1002 : 			//strData += "103308" + szDS + "1" + szFS;		// .
; 1003 : 			strData += "103308" + szDS + aUnit + szFS;		// .
; 1004 : 			strData += "30301" + szFS;						// 
; 1005 : 			strData += "$103511" + szDS;					//  .
; 1006 : 			strData += strGrid;								//  .
; 1007 : 			strData += "103302" + szCOL;					// 
; 1008 : 			strData += "103034" + szCOL;					// 
; 1009 : 			strData += "103201" + szCOL;					//  
; 1010 : 			break;
; 1011 : */
; 1012 : 	}
; 1013 : }

  00438	8d 4d ec	 lea	 ecx, DWORD PTR _szCOL$[ebp]
  0043b	ff 15 00 00 00
	00		 call	 DWORD PTR __imp_??1?$CStringT@DV?$StrTraitMFC_DLL@DV?$ChTraitsCRT@D@ATL@@@@@ATL@@QAE@XZ
  00441	8d 4d e8	 lea	 ecx, DWORD PTR _szFS$[ebp]
  00444	ff 15 00 00 00
	00		 call	 DWORD PTR __imp_??1?$CStringT@DV?$StrTraitMFC_DLL@DV?$ChTraitsCRT@D@ATL@@@@@ATL@@QAE@XZ
  0044a	8d 4d 0c	 lea	 ecx, DWORD PTR _szDS$[ebp]
  0044d	ff 15 00 00 00
	00		 call	 DWORD PTR __imp_??1?$CStringT@DV?$StrTraitMFC_DLL@DV?$ChTraitsCRT@D@ATL@@@@@ATL@@QAE@XZ
  00453	8d 4d d8	 lea	 ecx, DWORD PTR _strGrid$[ebp]
  00456	ff 15 00 00 00
	00		 call	 DWORD PTR __imp_??1?$CStringT@DV?$StrTraitMFC_DLL@DV?$ChTraitsCRT@D@ATL@@@@@ATL@@QAE@XZ
  0045c	8d 4d d4	 lea	 ecx, DWORD PTR _strDate$[ebp]
  0045f	ff 15 00 00 00
	00		 call	 DWORD PTR __imp_??1?$CStringT@DV?$StrTraitMFC_DLL@DV?$ChTraitsCRT@D@ATL@@@@@ATL@@QAE@XZ
  00465	8d 4d d0	 lea	 ecx, DWORD PTR _strCode$[ebp]
  00468	ff 15 00 00 00
	00		 call	 DWORD PTR __imp_??1?$CStringT@DV?$StrTraitMFC_DLL@DV?$ChTraitsCRT@D@ATL@@@@@ATL@@QAE@XZ
  0046e	8b 4d f4	 mov	 ecx, DWORD PTR __$EHRec$[ebp]
  00471	64 89 0d 00 00
	00 00		 mov	 DWORD PTR fs:0, ecx
  00478	59		 pop	 ecx
  00479	5e		 pop	 esi
  0047a	8b e5		 mov	 esp, ebp
  0047c	5d		 pop	 ebp
  0047d	c2 08 00	 ret	 8
$LN209@MakeDataOf:
  00480	e8 00 00 00 00	 call	 ?AfxThrowInvalidArgException@@YGXXZ ; AfxThrowInvalidArgException
$LN211@MakeDataOf:
  00485	cc		 int	 3
_TEXT	ENDS
;	COMDAT text$x
text$x	SEGMENT
__unwindfunclet$?MakeDataOfSuspensSeContract@CChartItemMarket@@IAEXAAV?$CStringT@DV?$StrTraitMFC_DLL@DV?$ChTraitsCRT@D@ATL@@@@@ATL@@PAVCStringArray@@@Z$0:
  00000	8d 4d d0	 lea	 ecx, DWORD PTR _strCode$[ebp]
  00003	ff 25 00 00 00
	00		 jmp	 DWORD PTR __imp_??1?$CStringT@DV?$StrTraitMFC_DLL@DV?$ChTraitsCRT@D@ATL@@@@@ATL@@QAE@XZ
__unwindfunclet$?MakeDataOfSuspensSeContract@CChartItemMarket@@IAEXAAV?$CStringT@DV?$StrTraitMFC_DLL@DV?$ChTraitsCRT@D@ATL@@@@@ATL@@PAVCStringArray@@@Z$1:
  00009	8d 4d d4	 lea	 ecx, DWORD PTR _strDate$[ebp]
  0000c	ff 25 00 00 00
	00		 jmp	 DWORD PTR __imp_??1?$CStringT@DV?$StrTraitMFC_DLL@DV?$ChTraitsCRT@D@ATL@@@@@ATL@@QAE@XZ
__unwindfunclet$?MakeDataOfSuspensSeContract@CChartItemMarket@@IAEXAAV?$CStringT@DV?$StrTraitMFC_DLL@DV?$ChTraitsCRT@D@ATL@@@@@ATL@@PAVCStringArray@@@Z$2:
  00012	8d 4d d8	 lea	 ecx, DWORD PTR _strGrid$[ebp]
  00015	ff 25 00 00 00
	00		 jmp	 DWORD PTR __imp_??1?$CStringT@DV?$StrTraitMFC_DLL@DV?$ChTraitsCRT@D@ATL@@@@@ATL@@QAE@XZ
__unwindfunclet$?MakeDataOfSuspensSeContract@CChartItemMarket@@IAEXAAV?$CStringT@DV?$StrTraitMFC_DLL@DV?$ChTraitsCRT@D@ATL@@@@@ATL@@PAVCStringArray@@@Z$3:
  0001b	8d 4d 0c	 lea	 ecx, DWORD PTR _szDS$[ebp]
  0001e	ff 25 00 00 00
	00		 jmp	 DWORD PTR __imp_??1?$CStringT@DV?$StrTraitMFC_DLL@DV?$ChTraitsCRT@D@ATL@@@@@ATL@@QAE@XZ
__unwindfunclet$?MakeDataOfSuspensSeContract@CChartItemMarket@@IAEXAAV?$CStringT@DV?$StrTraitMFC_DLL@DV?$ChTraitsCRT@D@ATL@@@@@ATL@@PAVCStringArray@@@Z$4:
  00024	8d 4d e8	 lea	 ecx, DWORD PTR _szFS$[ebp]
  00027	ff 25 00 00 00
	00		 jmp	 DWORD PTR __imp_??1?$CStringT@DV?$StrTraitMFC_DLL@DV?$ChTraitsCRT@D@ATL@@@@@ATL@@QAE@XZ
__unwindfunclet$?MakeDataOfSuspensSeContract@CChartItemMarket@@IAEXAAV?$CStringT@DV?$StrTraitMFC_DLL@DV?$ChTraitsCRT@D@ATL@@@@@ATL@@PAVCStringArray@@@Z$5:
  0002d	8d 4d ec	 lea	 ecx, DWORD PTR _szCOL$[ebp]
  00030	ff 25 00 00 00
	00		 jmp	 DWORD PTR __imp_??1?$CStringT@DV?$StrTraitMFC_DLL@DV?$ChTraitsCRT@D@ATL@@@@@ATL@@QAE@XZ
__unwindfunclet$?MakeDataOfSuspensSeContract@CChartItemMarket@@IAEXAAV?$CStringT@DV?$StrTraitMFC_DLL@DV?$ChTraitsCRT@D@ATL@@@@@ATL@@PAVCStringArray@@@Z$18:
  00036	8b 45 f0	 mov	 eax, DWORD PTR $T9[ebp]
  00039	83 e0 01	 and	 eax, 1
  0003c	0f 84 0d 00 00
	00		 je	 $LN41@MakeDataOf
  00042	83 65 f0 fe	 and	 DWORD PTR $T9[ebp], -2	; fffffffeH
  00046	8d 4d e0	 lea	 ecx, DWORD PTR $T7[ebp]
  00049	ff 25 00 00 00
	00		 jmp	 DWORD PTR __imp_??1?$CStringT@DV?$StrTraitMFC_DLL@DV?$ChTraitsCRT@D@ATL@@@@@ATL@@QAE@XZ
$LN41@MakeDataOf:
  0004f	c3		 ret	 0
__unwindfunclet$?MakeDataOfSuspensSeContract@CChartItemMarket@@IAEXAAV?$CStringT@DV?$StrTraitMFC_DLL@DV?$ChTraitsCRT@D@ATL@@@@@ATL@@PAVCStringArray@@@Z$19:
  00050	8b 45 f0	 mov	 eax, DWORD PTR $T9[ebp]
  00053	83 e0 02	 and	 eax, 2
  00056	0f 84 0d 00 00
	00		 je	 $LN54@MakeDataOf
  0005c	83 65 f0 fd	 and	 DWORD PTR $T9[ebp], -3	; fffffffdH
  00060	8d 4d e4	 lea	 ecx, DWORD PTR $T8[ebp]
  00063	ff 25 00 00 00
	00		 jmp	 DWORD PTR __imp_??1?$CStringT@DV?$StrTraitMFC_DLL@DV?$ChTraitsCRT@D@ATL@@@@@ATL@@QAE@XZ
$LN54@MakeDataOf:
  00069	c3		 ret	 0
__unwindfunclet$?MakeDataOfSuspensSeContract@CChartItemMarket@@IAEXAAV?$CStringT@DV?$StrTraitMFC_DLL@DV?$ChTraitsCRT@D@ATL@@@@@ATL@@PAVCStringArray@@@Z$20:
  0006a	8b 45 f0	 mov	 eax, DWORD PTR $T9[ebp]
  0006d	83 e0 04	 and	 eax, 4
  00070	0f 84 0d 00 00
	00		 je	 $LN70@MakeDataOf
  00076	83 65 f0 fb	 and	 DWORD PTR $T9[ebp], -5	; fffffffbH
  0007a	8d 4d dc	 lea	 ecx, DWORD PTR $T4[ebp]
  0007d	ff 25 00 00 00
	00		 jmp	 DWORD PTR __imp_??1?$CStringT@DV?$StrTraitMFC_DLL@DV?$ChTraitsCRT@D@ATL@@@@@ATL@@QAE@XZ
$LN70@MakeDataOf:
  00083	c3		 ret	 0
__unwindfunclet$?MakeDataOfSuspensSeContract@CChartItemMarket@@IAEXAAV?$CStringT@DV?$StrTraitMFC_DLL@DV?$ChTraitsCRT@D@ATL@@@@@ATL@@PAVCStringArray@@@Z$21:
  00084	8b 45 f0	 mov	 eax, DWORD PTR $T9[ebp]
  00087	83 e0 08	 and	 eax, 8
  0008a	0f 84 0d 00 00
	00		 je	 $LN86@MakeDataOf
  00090	83 65 f0 f7	 and	 DWORD PTR $T9[ebp], -9	; fffffff7H
  00094	8d 4d e0	 lea	 ecx, DWORD PTR $T6[ebp]
  00097	ff 25 00 00 00
	00		 jmp	 DWORD PTR __imp_??1?$CStringT@DV?$StrTraitMFC_DLL@DV?$ChTraitsCRT@D@ATL@@@@@ATL@@QAE@XZ
$LN86@MakeDataOf:
  0009d	c3		 ret	 0
__unwindfunclet$?MakeDataOfSuspensSeContract@CChartItemMarket@@IAEXAAV?$CStringT@DV?$StrTraitMFC_DLL@DV?$ChTraitsCRT@D@ATL@@@@@ATL@@PAVCStringArray@@@Z$22:
  0009e	8b 45 f0	 mov	 eax, DWORD PTR $T9[ebp]
  000a1	83 e0 10	 and	 eax, 16			; 00000010H
  000a4	0f 84 0d 00 00
	00		 je	 $LN99@MakeDataOf
  000aa	83 65 f0 ef	 and	 DWORD PTR $T9[ebp], -17	; ffffffefH
  000ae	8d 4d 08	 lea	 ecx, DWORD PTR $T14[ebp]
  000b1	ff 25 00 00 00
	00		 jmp	 DWORD PTR __imp_??1?$CStringT@DV?$StrTraitMFC_DLL@DV?$ChTraitsCRT@D@ATL@@@@@ATL@@QAE@XZ
$LN99@MakeDataOf:
  000b7	c3		 ret	 0
__unwindfunclet$?MakeDataOfSuspensSeContract@CChartItemMarket@@IAEXAAV?$CStringT@DV?$StrTraitMFC_DLL@DV?$ChTraitsCRT@D@ATL@@@@@ATL@@PAVCStringArray@@@Z$23:
  000b8	8b 45 f0	 mov	 eax, DWORD PTR $T9[ebp]
  000bb	83 e0 20	 and	 eax, 32			; 00000020H
  000be	0f 84 0d 00 00
	00		 je	 $LN115@MakeDataOf
  000c4	83 65 f0 df	 and	 DWORD PTR $T9[ebp], -33	; ffffffdfH
  000c8	8d 4d dc	 lea	 ecx, DWORD PTR $T3[ebp]
  000cb	ff 25 00 00 00
	00		 jmp	 DWORD PTR __imp_??1?$CStringT@DV?$StrTraitMFC_DLL@DV?$ChTraitsCRT@D@ATL@@@@@ATL@@QAE@XZ
$LN115@MakeDataOf:
  000d1	c3		 ret	 0
__unwindfunclet$?MakeDataOfSuspensSeContract@CChartItemMarket@@IAEXAAV?$CStringT@DV?$StrTraitMFC_DLL@DV?$ChTraitsCRT@D@ATL@@@@@ATL@@PAVCStringArray@@@Z$24:
  000d2	8b 45 f0	 mov	 eax, DWORD PTR $T9[ebp]
  000d5	83 e0 40	 and	 eax, 64			; 00000040H
  000d8	0f 84 0d 00 00
	00		 je	 $LN131@MakeDataOf
  000de	83 65 f0 bf	 and	 DWORD PTR $T9[ebp], -65	; ffffffbfH
  000e2	8d 4d e0	 lea	 ecx, DWORD PTR $T5[ebp]
  000e5	ff 25 00 00 00
	00		 jmp	 DWORD PTR __imp_??1?$CStringT@DV?$StrTraitMFC_DLL@DV?$ChTraitsCRT@D@ATL@@@@@ATL@@QAE@XZ
$LN131@MakeDataOf:
  000eb	c3		 ret	 0
__unwindfunclet$?MakeDataOfSuspensSeContract@CChartItemMarket@@IAEXAAV?$CStringT@DV?$StrTraitMFC_DLL@DV?$ChTraitsCRT@D@ATL@@@@@ATL@@PAVCStringArray@@@Z$25:
  000ec	8b 45 f0	 mov	 eax, DWORD PTR $T9[ebp]
  000ef	25 80 00 00 00	 and	 eax, 128		; 00000080H
  000f4	0f 84 10 00 00
	00		 je	 $LN144@MakeDataOf
  000fa	81 65 f0 7f ff
	ff ff		 and	 DWORD PTR $T9[ebp], -129 ; ffffff7fH
  00101	8d 4d 08	 lea	 ecx, DWORD PTR $T13[ebp]
  00104	ff 25 00 00 00
	00		 jmp	 DWORD PTR __imp_??1?$CStringT@DV?$StrTraitMFC_DLL@DV?$ChTraitsCRT@D@ATL@@@@@ATL@@QAE@XZ
$LN144@MakeDataOf:
  0010a	c3		 ret	 0
__unwindfunclet$?MakeDataOfSuspensSeContract@CChartItemMarket@@IAEXAAV?$CStringT@DV?$StrTraitMFC_DLL@DV?$ChTraitsCRT@D@ATL@@@@@ATL@@PAVCStringArray@@@Z$26:
  0010b	8b 45 f0	 mov	 eax, DWORD PTR $T9[ebp]
  0010e	25 00 01 00 00	 and	 eax, 256		; 00000100H
  00113	0f 84 10 00 00
	00		 je	 $LN157@MakeDataOf
  00119	81 65 f0 ff fe
	ff ff		 and	 DWORD PTR $T9[ebp], -257 ; fffffeffH
  00120	8d 4d dc	 lea	 ecx, DWORD PTR $T2[ebp]
  00123	ff 25 00 00 00
	00		 jmp	 DWORD PTR __imp_??1?$CStringT@DV?$StrTraitMFC_DLL@DV?$ChTraitsCRT@D@ATL@@@@@ATL@@QAE@XZ
$LN157@MakeDataOf:
  00129	c3		 ret	 0
__unwindfunclet$?MakeDataOfSuspensSeContract@CChartItemMarket@@IAEXAAV?$CStringT@DV?$StrTraitMFC_DLL@DV?$ChTraitsCRT@D@ATL@@@@@ATL@@PAVCStringArray@@@Z$27:
  0012a	8b 45 f0	 mov	 eax, DWORD PTR $T9[ebp]
  0012d	25 00 02 00 00	 and	 eax, 512		; 00000200H
  00132	0f 84 10 00 00
	00		 je	 $LN173@MakeDataOf
  00138	81 65 f0 ff fd
	ff ff		 and	 DWORD PTR $T9[ebp], -513 ; fffffdffH
  0013f	8d 4d 08	 lea	 ecx, DWORD PTR $T12[ebp]
  00142	ff 25 00 00 00
	00		 jmp	 DWORD PTR __imp_??1?$CStringT@DV?$StrTraitMFC_DLL@DV?$ChTraitsCRT@D@ATL@@@@@ATL@@QAE@XZ
$LN173@MakeDataOf:
  00148	c3		 ret	 0
__unwindfunclet$?MakeDataOfSuspensSeContract@CChartItemMarket@@IAEXAAV?$CStringT@DV?$StrTraitMFC_DLL@DV?$ChTraitsCRT@D@ATL@@@@@ATL@@PAVCStringArray@@@Z$28:
  00149	8b 45 f0	 mov	 eax, DWORD PTR $T9[ebp]
  0014c	25 00 04 00 00	 and	 eax, 1024		; 00000400H
  00151	0f 84 10 00 00
	00		 je	 $LN186@MakeDataOf
  00157	81 65 f0 ff fb
	ff ff		 and	 DWORD PTR $T9[ebp], -1025 ; fffffbffH
  0015e	8d 4d 08	 lea	 ecx, DWORD PTR $T11[ebp]
  00161	ff 25 00 00 00
	00		 jmp	 DWORD PTR __imp_??1?$CStringT@DV?$StrTraitMFC_DLL@DV?$ChTraitsCRT@D@ATL@@@@@ATL@@QAE@XZ
$LN186@MakeDataOf:
  00167	c3		 ret	 0
__unwindfunclet$?MakeDataOfSuspensSeContract@CChartItemMarket@@IAEXAAV?$CStringT@DV?$StrTraitMFC_DLL@DV?$ChTraitsCRT@D@ATL@@@@@ATL@@PAVCStringArray@@@Z$29:
  00168	8b 45 f0	 mov	 eax, DWORD PTR $T9[ebp]
  0016b	25 00 08 00 00	 and	 eax, 2048		; 00000800H
  00170	0f 84 10 00 00
	00		 je	 $LN199@MakeDataOf
  00176	81 65 f0 ff f7
	ff ff		 and	 DWORD PTR $T9[ebp], -2049 ; fffff7ffH
  0017d	8d 4d 08	 lea	 ecx, DWORD PTR $T10[ebp]
  00180	ff 25 00 00 00
	00		 jmp	 DWORD PTR __imp_??1?$CStringT@DV?$StrTraitMFC_DLL@DV?$ChTraitsCRT@D@ATL@@@@@ATL@@QAE@XZ
$LN199@MakeDataOf:
  00186	c3		 ret	 0
  00187	cc		 int	 3
  00188	cc		 int	 3
  00189	cc		 int	 3
  0018a	cc		 int	 3
  0018b	cc		 int	 3
__ehhandler$?MakeDataOfSuspensSeContract@CChartItemMarket@@IAEXAAV?$CStringT@DV?$StrTraitMFC_DLL@DV?$ChTraitsCRT@D@ATL@@@@@ATL@@PAVCStringArray@@@Z:
  0018c	90		 npad	 1
  0018d	90		 npad	 1
  0018e	8b 54 24 08	 mov	 edx, DWORD PTR [esp+8]
  00192	8d 42 0c	 lea	 eax, DWORD PTR [edx+12]
  00195	8b 4a d4	 mov	 ecx, DWORD PTR [edx-44]
  00198	33 c8		 xor	 ecx, eax
  0019a	e8 00 00 00 00	 call	 @__security_check_cookie@4
  0019f	b8 00 00 00 00	 mov	 eax, OFFSET __ehfuncinfo$?MakeDataOfSuspensSeContract@CChartItemMarket@@IAEXAAV?$CStringT@DV?$StrTraitMFC_DLL@DV?$ChTraitsCRT@D@ATL@@@@@ATL@@PAVCStringArray@@@Z
  001a4	e9 00 00 00 00	 jmp	 ___CxxFrameHandler3
text$x	ENDS
?MakeDataOfSuspensSeContract@CChartItemMarket@@IAEXAAV?$CStringT@DV?$StrTraitMFC_DLL@DV?$ChTraitsCRT@D@ATL@@@@@ATL@@PAVCStringArray@@@Z ENDP ; CChartItemMarket::MakeDataOfSuspensSeContract
; Function compile flags: /Ogtp
; File D:\git\src\IBK\IBK_DRFN\ProjSrc\SrcDrfn\DrCommon\PartnerMng\ChartItemMarket.cpp
; File C:\Program Files (x86)\Microsoft Visual Studio\2019\Community\VC\Tools\MSVC\14.29.30133\atlmfc\include\cstringt.h
; File D:\git\src\IBK\IBK_DRFN\ProjSrc\SrcDrfn\DrCommon\PartnerMng\ChartItemMarket.cpp
; File C:\Program Files (x86)\Microsoft Visual Studio\2019\Community\VC\Tools\MSVC\14.29.30133\atlmfc\include\cstringt.h
; File C:\Program Files (x86)\Microsoft Visual Studio\2019\Community\VC\Tools\MSVC\14.29.30133\atlmfc\include\atlsimpstr.h
; File C:\Program Files (x86)\Microsoft Visual Studio\2019\Community\VC\Tools\MSVC\14.29.30133\atlmfc\include\cstringt.h
; File D:\git\src\IBK\IBK_DRFN\ProjSrc\SrcDrfn\DrCommon\PartnerMng\ChartItemMarket.cpp
; File C:\Program Files (x86)\Microsoft Visual Studio\2019\Community\VC\Tools\MSVC\14.29.30133\atlmfc\include\cstringt.h
; File C:\Program Files (x86)\Microsoft Visual Studio\2019\Community\VC\Tools\MSVC\14.29.30133\atlmfc\include\atlsimpstr.h
; File C:\Program Files (x86)\Microsoft Visual Studio\2019\Community\VC\Tools\MSVC\14.29.30133\atlmfc\include\cstringt.h
; File D:\git\src\IBK\IBK_DRFN\ProjSrc\SrcDrfn\DrCommon\PartnerMng\ChartItemMarket.cpp
; File C:\Program Files (x86)\Microsoft Visual Studio\2019\Community\VC\Tools\MSVC\14.29.30133\atlmfc\include\cstringt.h
; File C:\Program Files (x86)\Microsoft Visual Studio\2019\Community\VC\Tools\MSVC\14.29.30133\atlmfc\include\atlsimpstr.h
; File C:\Program Files (x86)\Microsoft Visual Studio\2019\Community\VC\Tools\MSVC\14.29.30133\atlmfc\include\cstringt.h
; File D:\git\src\IBK\IBK_DRFN\ProjSrc\SrcDrfn\DrCommon\PartnerMng\ChartItemMarket.cpp
; File C:\Program Files (x86)\Microsoft Visual Studio\2019\Community\VC\Tools\MSVC\14.29.30133\atlmfc\include\cstringt.h
; File D:\git\src\IBK\IBK_DRFN\ProjSrc\SrcDrfn\DrCommon\PartnerMng\ChartItemMarket.cpp
; File C:\Program Files (x86)\Microsoft Visual Studio\2019\Community\VC\Tools\MSVC\14.29.30133\atlmfc\include\cstringt.h
; File C:\Program Files (x86)\Microsoft Visual Studio\2019\Community\VC\Tools\MSVC\14.29.30133\atlmfc\include\atlsimpstr.h
; File C:\Program Files (x86)\Microsoft Visual Studio\2019\Community\VC\Tools\MSVC\14.29.30133\atlmfc\include\cstringt.h
; File D:\git\src\IBK\IBK_DRFN\ProjSrc\SrcDrfn\DrCommon\PartnerMng\ChartItemMarket.cpp
; File C:\Program Files (x86)\Microsoft Visual Studio\2019\Community\VC\Tools\MSVC\14.29.30133\atlmfc\include\cstringt.h
; File C:\Program Files (x86)\Microsoft Visual Studio\2019\Community\VC\Tools\MSVC\14.29.30133\atlmfc\include\atlsimpstr.h
; File C:\Program Files (x86)\Microsoft Visual Studio\2019\Community\VC\Tools\MSVC\14.29.30133\atlmfc\include\cstringt.h
; File D:\git\src\IBK\IBK_DRFN\ProjSrc\SrcDrfn\DrCommon\PartnerMng\ChartItemMarket.cpp
; File C:\Program Files (x86)\Microsoft Visual Studio\2019\Community\VC\Tools\MSVC\14.29.30133\atlmfc\include\cstringt.h
; File C:\Program Files (x86)\Microsoft Visual Studio\2019\Community\VC\Tools\MSVC\14.29.30133\atlmfc\include\atlsimpstr.h
; File C:\Program Files (x86)\Microsoft Visual Studio\2019\Community\VC\Tools\MSVC\14.29.30133\atlmfc\include\cstringt.h
; File D:\git\src\IBK\IBK_DRFN\ProjSrc\SrcDrfn\DrCommon\PartnerMng\ChartItemMarket.cpp
; File C:\Program Files (x86)\Microsoft Visual Studio\2019\Community\VC\Tools\MSVC\14.29.30133\atlmfc\include\cstringt.h
; File D:\git\src\IBK\IBK_DRFN\ProjSrc\SrcDrfn\DrCommon\PartnerMng\ChartItemMarket.cpp
; File C:\Program Files (x86)\Microsoft Visual Studio\2019\Community\VC\Tools\MSVC\14.29.30133\atlmfc\include\cstringt.h
; File C:\Program Files (x86)\Microsoft Visual Studio\2019\Community\VC\Tools\MSVC\14.29.30133\atlmfc\include\atlsimpstr.h
; File C:\Program Files (x86)\Microsoft Visual Studio\2019\Community\VC\Tools\MSVC\14.29.30133\atlmfc\include\cstringt.h
; File D:\git\src\IBK\IBK_DRFN\ProjSrc\SrcDrfn\DrCommon\PartnerMng\ChartItemMarket.cpp
; File C:\Program Files (x86)\Microsoft Visual Studio\2019\Community\VC\Tools\MSVC\14.29.30133\atlmfc\include\cstringt.h
; File C:\Program Files (x86)\Microsoft Visual Studio\2019\Community\VC\Tools\MSVC\14.29.30133\atlmfc\include\atlsimpstr.h
; File C:\Program Files (x86)\Microsoft Visual Studio\2019\Community\VC\Tools\MSVC\14.29.30133\atlmfc\include\cstringt.h
; File D:\git\src\IBK\IBK_DRFN\ProjSrc\SrcDrfn\DrCommon\PartnerMng\ChartItemMarket.cpp
; File C:\Program Files (x86)\Microsoft Visual Studio\2019\Community\VC\Tools\MSVC\14.29.30133\atlmfc\include\cstringt.h
; File C:\Program Files (x86)\Microsoft Visual Studio\2019\Community\VC\Tools\MSVC\14.29.30133\atlmfc\include\atlsimpstr.h
; File C:\Program Files (x86)\Microsoft Visual Studio\2019\Community\VC\Tools\MSVC\14.29.30133\atlmfc\include\cstringt.h
; File D:\git\src\IBK\IBK_DRFN\ProjSrc\SrcDrfn\DrCommon\PartnerMng\ChartItemMarket.cpp
; File C:\Program Files (x86)\Microsoft Visual Studio\2019\Community\VC\Tools\MSVC\14.29.30133\atlmfc\include\cstringt.h
; File D:\git\src\IBK\IBK_DRFN\ProjSrc\SrcDrfn\DrCommon\PartnerMng\ChartItemMarket.cpp
; File C:\Program Files (x86)\Microsoft Visual Studio\2019\Community\VC\Tools\MSVC\14.29.30133\atlmfc\include\cstringt.h
; File C:\Program Files (x86)\Microsoft Visual Studio\2019\Community\VC\Tools\MSVC\14.29.30133\atlmfc\include\atlsimpstr.h
; File C:\Program Files (x86)\Microsoft Visual Studio\2019\Community\VC\Tools\MSVC\14.29.30133\atlmfc\include\cstringt.h
; File D:\git\src\IBK\IBK_DRFN\ProjSrc\SrcDrfn\DrCommon\PartnerMng\ChartItemMarket.cpp
; File C:\Program Files (x86)\Microsoft Visual Studio\2019\Community\VC\Tools\MSVC\14.29.30133\atlmfc\include\cstringt.h
; File D:\git\src\IBK\IBK_DRFN\ProjSrc\SrcDrfn\DrCommon\PartnerMng\ChartItemMarket.cpp
; File C:\Program Files (x86)\Microsoft Visual Studio\2019\Community\VC\Tools\MSVC\14.29.30133\atlmfc\include\cstringt.h
; File C:\Program Files (x86)\Microsoft Visual Studio\2019\Community\VC\Tools\MSVC\14.29.30133\atlmfc\include\atlsimpstr.h
; File C:\Program Files (x86)\Microsoft Visual Studio\2019\Community\VC\Tools\MSVC\14.29.30133\atlmfc\include\cstringt.h
; File D:\git\src\IBK\IBK_DRFN\ProjSrc\SrcDrfn\DrCommon\PartnerMng\ChartItemMarket.cpp
; File C:\Program Files (x86)\Microsoft Visual Studio\2019\Community\VC\Tools\MSVC\14.29.30133\atlmfc\include\cstringt.h
; File C:\Program Files (x86)\Microsoft Visual Studio\2019\Community\VC\Tools\MSVC\14.29.30133\atlmfc\include\atlsimpstr.h
; File C:\Program Files (x86)\Microsoft Visual Studio\2019\Community\VC\Tools\MSVC\14.29.30133\atlmfc\include\cstringt.h
; File D:\git\src\IBK\IBK_DRFN\ProjSrc\SrcDrfn\DrCommon\PartnerMng\ChartItemMarket.cpp
; File C:\Program Files (x86)\Microsoft Visual Studio\2019\Community\VC\Tools\MSVC\14.29.30133\atlmfc\include\cstringt.h
; File D:\git\src\IBK\IBK_DRFN\ProjSrc\SrcDrfn\DrCommon\PartnerMng\ChartItemMarket.cpp
; File C:\Program Files (x86)\Microsoft Visual Studio\2019\Community\VC\Tools\MSVC\14.29.30133\atlmfc\include\cstringt.h
; File C:\Program Files (x86)\Microsoft Visual Studio\2019\Community\VC\Tools\MSVC\14.29.30133\atlmfc\include\atlsimpstr.h
; File C:\Program Files (x86)\Microsoft Visual Studio\2019\Community\VC\Tools\MSVC\14.29.30133\atlmfc\include\cstringt.h
; File D:\git\src\IBK\IBK_DRFN\ProjSrc\SrcDrfn\DrCommon\PartnerMng\ChartItemMarket.cpp
; File C:\Program Files (x86)\Microsoft Visual Studio\2019\Community\VC\Tools\MSVC\14.29.30133\atlmfc\include\cstringt.h
; File D:\git\src\IBK\IBK_DRFN\ProjSrc\SrcDrfn\DrCommon\PartnerMng\ChartItemMarket.cpp
; File C:\Program Files (x86)\Microsoft Visual Studio\2019\Community\VC\Tools\MSVC\14.29.30133\atlmfc\include\cstringt.h
; File C:\Program Files (x86)\Microsoft Visual Studio\2019\Community\VC\Tools\MSVC\14.29.30133\atlmfc\include\atlsimpstr.h
; File C:\Program Files (x86)\Microsoft Visual Studio\2019\Community\VC\Tools\MSVC\14.29.30133\atlmfc\include\cstringt.h
; File D:\git\src\IBK\IBK_DRFN\ProjSrc\SrcDrfn\DrCommon\PartnerMng\ChartItemMarket.cpp
; File C:\Program Files (x86)\Microsoft Visual Studio\2019\Community\VC\Tools\MSVC\14.29.30133\atlmfc\include\cstringt.h
; File D:\git\src\IBK\IBK_DRFN\ProjSrc\SrcDrfn\DrCommon\PartnerMng\ChartItemMarket.cpp
; File C:\Program Files (x86)\Microsoft Visual Studio\2019\Community\VC\Tools\MSVC\14.29.30133\atlmfc\include\cstringt.h
; File C:\Program Files (x86)\Microsoft Visual Studio\2019\Community\VC\Tools\MSVC\14.29.30133\atlmfc\include\atlsimpstr.h
; File C:\Program Files (x86)\Microsoft Visual Studio\2019\Community\VC\Tools\MSVC\14.29.30133\atlmfc\include\cstringt.h
; File D:\git\src\IBK\IBK_DRFN\ProjSrc\SrcDrfn\DrCommon\PartnerMng\ChartItemMarket.cpp
;	COMDAT ?fnStructType2@CChartItemMarket@@QAE?AV?$CStringT@DV?$StrTraitMFC_DLL@DV?$ChTraitsCRT@D@ATL@@@@@ATL@@V23@H@Z
_TEXT	SEGMENT
$T2 = -48						; size = 4
$T3 = -48						; size = 4
$T4 = -48						; size = 4
$T5 = -48						; size = 4
$T6 = -48						; size = 4
_strCode$ = -44						; size = 4
$T7 = -40						; size = 4
$T8 = -40						; size = 4
$T9 = -40						; size = 4
_strDate$ = -36						; size = 4
_strMarket$ = -32					; size = 4
_szFS$ = -28						; size = 4
_szDS$ = -24						; size = 4
_szCOL$ = -20						; size = 4
$T10 = -16						; size = 4
__$EHRec$ = -12						; size = 12
___$ReturnUdt$ = 8					; size = 4
_strGrid$ = 12						; size = 4
$T11 = 16						; size = 4
$T12 = 16						; size = 4
$T13 = 16						; size = 4
$T14 = 16						; size = 4
$T15 = 16						; size = 4
$T16 = 16						; size = 4
$T17 = 16						; size = 4
$T18 = 16						; size = 4
$T19 = 16						; size = 4
_nType$ = 16						; size = 4
?fnStructType2@CChartItemMarket@@QAE?AV?$CStringT@DV?$StrTraitMFC_DLL@DV?$ChTraitsCRT@D@ATL@@@@@ATL@@V23@H@Z PROC ; CChartItemMarket::fnStructType2, COMDAT
; _this$ = ecx

; 612  : {

  00000	55		 push	 ebp
  00001	8b ec		 mov	 ebp, esp
  00003	6a ff		 push	 -1
  00005	68 00 00 00 00	 push	 __ehhandler$?fnStructType2@CChartItemMarket@@QAE?AV?$CStringT@DV?$StrTraitMFC_DLL@DV?$ChTraitsCRT@D@ATL@@@@@ATL@@V23@H@Z
  0000a	64 a1 00 00 00
	00		 mov	 eax, DWORD PTR fs:0
  00010	50		 push	 eax
  00011	83 ec 24	 sub	 esp, 36			; 00000024H
  00014	56		 push	 esi
  00015	57		 push	 edi
  00016	a1 00 00 00 00	 mov	 eax, DWORD PTR ___security_cookie
  0001b	33 c5		 xor	 eax, ebp
  0001d	50		 push	 eax
  0001e	8d 45 f4	 lea	 eax, DWORD PTR __$EHRec$[ebp]
  00021	64 a3 00 00 00
	00		 mov	 DWORD PTR fs:0, eax
  00027	8b f1		 mov	 esi, ecx
  00029	c7 45 f0 00 00
	00 00		 mov	 DWORD PTR $T10[ebp], 0

; 613  : 	CString strData, strCode, strMarket, strDate;

  00030	8b 7d 08	 mov	 edi, DWORD PTR ___$ReturnUdt$[ebp]
  00033	8b cf		 mov	 ecx, edi
  00035	c7 45 fc 01 00
	00 00		 mov	 DWORD PTR __$EHRec$[ebp+8], 1
  0003c	ff 15 00 00 00
	00		 call	 DWORD PTR __imp_??0?$CStringT@DV?$StrTraitMFC_DLL@DV?$ChTraitsCRT@D@ATL@@@@@ATL@@QAE@XZ

; 648  : 
; 649  : 	return strData;

  00042	8d 4d d4	 lea	 ecx, DWORD PTR _strCode$[ebp]
  00045	c7 45 f0 01 00
	00 00		 mov	 DWORD PTR $T10[ebp], 1
  0004c	ff 15 00 00 00
	00		 call	 DWORD PTR __imp_??0?$CStringT@DV?$StrTraitMFC_DLL@DV?$ChTraitsCRT@D@ATL@@@@@ATL@@QAE@XZ
  00052	8d 4d e0	 lea	 ecx, DWORD PTR _strMarket$[ebp]
  00055	ff 15 00 00 00
	00		 call	 DWORD PTR __imp_??0?$CStringT@DV?$StrTraitMFC_DLL@DV?$ChTraitsCRT@D@ATL@@@@@ATL@@QAE@XZ
  0005b	8d 4d dc	 lea	 ecx, DWORD PTR _strDate$[ebp]
  0005e	ff 15 00 00 00
	00		 call	 DWORD PTR __imp_??0?$CStringT@DV?$StrTraitMFC_DLL@DV?$ChTraitsCRT@D@ATL@@@@@ATL@@QAE@XZ
  00064	8d 4d e8	 lea	 ecx, DWORD PTR _szDS$[ebp]
  00067	ff 15 00 00 00
	00		 call	 DWORD PTR __imp_??0?$CStringT@DV?$StrTraitMFC_DLL@DV?$ChTraitsCRT@D@ATL@@@@@ATL@@QAE@XZ
  0006d	8d 4d e4	 lea	 ecx, DWORD PTR _szFS$[ebp]
  00070	ff 15 00 00 00
	00		 call	 DWORD PTR __imp_??0?$CStringT@DV?$StrTraitMFC_DLL@DV?$ChTraitsCRT@D@ATL@@@@@ATL@@QAE@XZ
  00076	8d 4d ec	 lea	 ecx, DWORD PTR _szCOL$[ebp]
  00079	ff 15 00 00 00
	00		 call	 DWORD PTR __imp_??0?$CStringT@DV?$StrTraitMFC_DLL@DV?$ChTraitsCRT@D@ATL@@@@@ATL@@QAE@XZ
  0007f	6a 7f		 push	 127			; 0000007fH
  00081	8d 4d e8	 lea	 ecx, DWORD PTR _szDS$[ebp]
  00084	c6 45 fc 07	 mov	 BYTE PTR __$EHRec$[ebp+8], 7
  00088	ff 15 00 00 00
	00		 call	 DWORD PTR __imp_??4?$CStringT@DV?$StrTraitMFC_DLL@DV?$ChTraitsCRT@D@ATL@@@@@ATL@@QAEAAV01@D@Z
  0008e	6a 09		 push	 9
  00090	8d 4d e4	 lea	 ecx, DWORD PTR _szFS$[ebp]
  00093	ff 15 00 00 00
	00		 call	 DWORD PTR __imp_??4?$CStringT@DV?$StrTraitMFC_DLL@DV?$ChTraitsCRT@D@ATL@@@@@ATL@@QAEAAV01@D@Z
  00099	6a 0a		 push	 10			; 0000000aH
  0009b	8d 4d ec	 lea	 ecx, DWORD PTR _szCOL$[ebp]
  0009e	ff 15 00 00 00
	00		 call	 DWORD PTR __imp_??4?$CStringT@DV?$StrTraitMFC_DLL@DV?$ChTraitsCRT@D@ATL@@@@@ATL@@QAEAAV01@D@Z
  000a4	6a 08		 push	 8
  000a6	8d 46 0e	 lea	 eax, DWORD PTR [esi+14]
  000a9	50		 push	 eax
  000aa	8d 4d d0	 lea	 ecx, DWORD PTR $T6[ebp]
  000ad	ff 15 00 00 00
	00		 call	 DWORD PTR __imp_??0?$CStringT@DV?$StrTraitMFC_DLL@DV?$ChTraitsCRT@D@ATL@@@@@ATL@@QAE@PBDH@Z
  000b3	50		 push	 eax
  000b4	8d 4d d4	 lea	 ecx, DWORD PTR _strCode$[ebp]
  000b7	c6 45 fc 08	 mov	 BYTE PTR __$EHRec$[ebp+8], 8
  000bb	ff 15 00 00 00
	00		 call	 DWORD PTR __imp_??4?$CStringT@DV?$StrTraitMFC_DLL@DV?$ChTraitsCRT@D@ATL@@@@@ATL@@QAEAAV01@ABV01@@Z
  000c1	8d 4d d0	 lea	 ecx, DWORD PTR $T6[ebp]
  000c4	c6 45 fc 07	 mov	 BYTE PTR __$EHRec$[ebp+8], 7
  000c8	ff 15 00 00 00
	00		 call	 DWORD PTR __imp_??1?$CStringT@DV?$StrTraitMFC_DLL@DV?$ChTraitsCRT@D@ATL@@@@@ATL@@QAE@XZ
  000ce	8d 4d d4	 lea	 ecx, DWORD PTR _strCode$[ebp]
  000d1	ff 15 00 00 00
	00		 call	 DWORD PTR __imp_?TrimLeft@?$CStringT@DV?$StrTraitMFC_DLL@DV?$ChTraitsCRT@D@ATL@@@@@ATL@@QAEAAV12@XZ
  000d7	8d 4d d4	 lea	 ecx, DWORD PTR _strCode$[ebp]
  000da	ff 15 00 00 00
	00		 call	 DWORD PTR __imp_?TrimRight@?$CStringT@DV?$StrTraitMFC_DLL@DV?$ChTraitsCRT@D@ATL@@@@@ATL@@QAEAAV12@XZ
  000e0	6a 08		 push	 8
  000e2	8d 46 16	 lea	 eax, DWORD PTR [esi+22]
  000e5	50		 push	 eax
  000e6	8d 4d d0	 lea	 ecx, DWORD PTR $T5[ebp]
  000e9	ff 15 00 00 00
	00		 call	 DWORD PTR __imp_??0?$CStringT@DV?$StrTraitMFC_DLL@DV?$ChTraitsCRT@D@ATL@@@@@ATL@@QAE@PBDH@Z
  000ef	50		 push	 eax
  000f0	8d 4d dc	 lea	 ecx, DWORD PTR _strDate$[ebp]
  000f3	c6 45 fc 09	 mov	 BYTE PTR __$EHRec$[ebp+8], 9
  000f7	ff 15 00 00 00
	00		 call	 DWORD PTR __imp_??4?$CStringT@DV?$StrTraitMFC_DLL@DV?$ChTraitsCRT@D@ATL@@@@@ATL@@QAEAAV01@ABV01@@Z
  000fd	8d 4d d0	 lea	 ecx, DWORD PTR $T5[ebp]
  00100	c6 45 fc 07	 mov	 BYTE PTR __$EHRec$[ebp+8], 7
  00104	ff 15 00 00 00
	00		 call	 DWORD PTR __imp_??1?$CStringT@DV?$StrTraitMFC_DLL@DV?$ChTraitsCRT@D@ATL@@@@@ATL@@QAE@XZ
  0010a	8d 4d dc	 lea	 ecx, DWORD PTR _strDate$[ebp]
  0010d	ff 15 00 00 00
	00		 call	 DWORD PTR __imp_?TrimLeft@?$CStringT@DV?$StrTraitMFC_DLL@DV?$ChTraitsCRT@D@ATL@@@@@ATL@@QAEAAV12@XZ
  00113	8d 4d dc	 lea	 ecx, DWORD PTR _strDate$[ebp]
  00116	ff 15 00 00 00
	00		 call	 DWORD PTR __imp_?TrimRight@?$CStringT@DV?$StrTraitMFC_DLL@DV?$ChTraitsCRT@D@ATL@@@@@ATL@@QAEAAV12@XZ
  0011c	8b 45 10	 mov	 eax, DWORD PTR _nType$[ebp]
  0011f	05 62 ff ff ff	 add	 eax, -158		; ffffff62H
  00124	83 f8 05	 cmp	 eax, 5
  00127	77 38		 ja	 SHORT $LN2@fnStructTy

; 614  : 	CString szDS, szFS, szCOL;
; 615  : 	szDS = sDS;	szFS = sCELL;	szCOL = sCOL;
; 616  : 
; 617  : 	strCode = CString(m_InData.shcode, sizeof(m_InData.shcode));
; 618  : 	strCode.TrimLeft(); strCode.TrimRight();
; 619  : 
; 620  : 	strDate = CString(m_InData.edate, sizeof(m_InData.edate));
; 621  : 	strDate.TrimLeft(); strDate.TrimRight();
; 622  : 
; 623  : 	switch (nType)

  00129	ff 24 85 00 00
	00 00		 jmp	 DWORD PTR $LN247@fnStructTy[eax*4]
$LN4@fnStructTy:

; 624  : 	{
; 625  : 	case TRKEY_STRMARKET_8:		strMarket = "001";	break;	//	

  00130	68 00 00 00 00	 push	 OFFSET ??_C@_03MMKGDKGA@001@
  00135	eb 21		 jmp	 SHORT $LN249@fnStructTy
$LN5@fnStructTy:

; 626  : 	case TRKEY_STRMARKET_9:		strMarket = "201";	break;	//	

  00137	68 00 00 00 00	 push	 OFFSET ??_C@_03GGKPPCOL@201@
  0013c	eb 1a		 jmp	 SHORT $LN249@fnStructTy
$LN6@fnStructTy:

; 627  : 	case TRKEY_STRMARKET_10:	strMarket = "101";	break;	//	K200

  0013e	68 00 00 00 00	 push	 OFFSET ??_C@_03HEBKFNAF@101@
  00143	eb 13		 jmp	 SHORT $LN249@fnStructTy
$LN7@fnStructTy:

; 628  : 	case TRKEY_STRMARKET_11:	strMarket = "9101";	break;	//	

  00145	68 00 00 00 00	 push	 OFFSET ??_C@_04DPENKPPD@9101@
  0014a	eb 0c		 jmp	 SHORT $LN249@fnStructTy
$LN8@fnStructTy:

; 629  : 	case TRKEY_STRMARKET_12:	strMarket = "9201";	break;	//	

  0014c	68 00 00 00 00	 push	 OFFSET ??_C@_04CNPIAABN@9201@
  00151	eb 05		 jmp	 SHORT $LN249@fnStructTy
$LN9@fnStructTy:

; 630  : 	case TRKEY_STRMARKET_13:	strMarket = "9301";	break;	//	

  00153	68 00 00 00 00	 push	 OFFSET ??_C@_04JFEEGHHI@9301@
$LN249@fnStructTy:

; 634  : 	strData += "105301"	+ szDS + strMarket + szFS;		// 

  00158	8d 4d e0	 lea	 ecx, DWORD PTR _strMarket$[ebp]
  0015b	ff 15 00 00 00
	00		 call	 DWORD PTR __imp_??4?$CStringT@DV?$StrTraitMFC_DLL@DV?$ChTraitsCRT@D@ATL@@@@@ATL@@QAEAAV01@PBD@Z
$LN2@fnStructTy:
; File C:\Program Files (x86)\Microsoft Visual Studio\2019\Community\VC\Tools\MSVC\14.29.30133\atlmfc\include\cstringt.h

; 2412 : 		CStringT strResult( str2.GetManager() );

  00161	8d 4d e8	 lea	 ecx, DWORD PTR _szDS$[ebp]
; File D:\git\src\IBK\IBK_DRFN\ProjSrc\SrcDrfn\DrCommon\PartnerMng\ChartItemMarket.cpp

; 634  : 	strData += "105301"	+ szDS + strMarket + szFS;		// 

  00164	c6 45 fc 0a	 mov	 BYTE PTR __$EHRec$[ebp+8], 10 ; 0000000aH
; File C:\Program Files (x86)\Microsoft Visual Studio\2019\Community\VC\Tools\MSVC\14.29.30133\atlmfc\include\cstringt.h

; 2412 : 		CStringT strResult( str2.GetManager() );

  00168	ff 15 00 00 00
	00		 call	 DWORD PTR __imp_?GetManager@?$CStringT@DV?$StrTraitMFC_DLL@DV?$ChTraitsCRT@D@ATL@@@@@ATL@@QBEPAUIAtlStringMgr@2@XZ
  0016e	50		 push	 eax
  0016f	8d 4d d8	 lea	 ecx, DWORD PTR $T9[ebp]
  00172	ff 15 00 00 00
	00		 call	 DWORD PTR __imp_??0?$CStringT@DV?$StrTraitMFC_DLL@DV?$ChTraitsCRT@D@ATL@@@@@ATL@@QAE@PAUIAtlStringMgr@1@@Z
; File C:\Program Files (x86)\Microsoft Visual Studio\2019\Community\VC\Tools\MSVC\14.29.30133\atlmfc\include\atlsimpstr.h

; 519  : 		return( GetData()->nDataLength );

  00178	8b 45 e8	 mov	 eax, DWORD PTR _szDS$[ebp]
; File C:\Program Files (x86)\Microsoft Visual Studio\2019\Community\VC\Tools\MSVC\14.29.30133\atlmfc\include\cstringt.h

; 2416 : 		return( strResult );

  0017b	c7 45 f0 03 00
	00 00		 mov	 DWORD PTR $T10[ebp], 3
  00182	ff 70 f4	 push	 DWORD PTR [eax-12]
  00185	50		 push	 eax
  00186	6a 06		 push	 6
  00188	8d 45 d8	 lea	 eax, DWORD PTR $T9[ebp]
  0018b	68 00 00 00 00	 push	 OFFSET ??_C@_06BJEALFB@105301@
  00190	50		 push	 eax
  00191	ff 15 00 00 00
	00		 call	 DWORD PTR __imp_?Concatenate@?$CSimpleStringT@D$00@ATL@@KAXAAV12@PBDH1H@Z
  00197	83 c4 14	 add	 esp, 20			; 00000014H

; 2390 : 		CStringT strResult( str1.GetManager() );

  0019a	8d 4d d8	 lea	 ecx, DWORD PTR $T9[ebp]
; File D:\git\src\IBK\IBK_DRFN\ProjSrc\SrcDrfn\DrCommon\PartnerMng\ChartItemMarket.cpp

; 634  : 	strData += "105301"	+ szDS + strMarket + szFS;		// 

  0019d	c6 45 fc 0b	 mov	 BYTE PTR __$EHRec$[ebp+8], 11 ; 0000000bH
; File C:\Program Files (x86)\Microsoft Visual Studio\2019\Community\VC\Tools\MSVC\14.29.30133\atlmfc\include\cstringt.h

; 2390 : 		CStringT strResult( str1.GetManager() );

  001a1	ff 15 00 00 00
	00		 call	 DWORD PTR __imp_?GetManager@?$CStringT@DV?$StrTraitMFC_DLL@DV?$ChTraitsCRT@D@ATL@@@@@ATL@@QBEPAUIAtlStringMgr@2@XZ
  001a7	50		 push	 eax
  001a8	8d 4d 10	 lea	 ecx, DWORD PTR $T19[ebp]
  001ab	ff 15 00 00 00
	00		 call	 DWORD PTR __imp_??0?$CStringT@DV?$StrTraitMFC_DLL@DV?$ChTraitsCRT@D@ATL@@@@@ATL@@QAE@PAUIAtlStringMgr@1@@Z
; File C:\Program Files (x86)\Microsoft Visual Studio\2019\Community\VC\Tools\MSVC\14.29.30133\atlmfc\include\atlsimpstr.h

; 519  : 		return( GetData()->nDataLength );

  001b1	8b 45 e0	 mov	 eax, DWORD PTR _strMarket$[ebp]
  001b4	8b 4d d8	 mov	 ecx, DWORD PTR $T9[ebp]
; File C:\Program Files (x86)\Microsoft Visual Studio\2019\Community\VC\Tools\MSVC\14.29.30133\atlmfc\include\cstringt.h

; 2394 : 		return( strResult );

  001b7	c7 45 f0 07 00
	00 00		 mov	 DWORD PTR $T10[ebp], 7
  001be	ff 70 f4	 push	 DWORD PTR [eax-12]
  001c1	50		 push	 eax
  001c2	ff 71 f4	 push	 DWORD PTR [ecx-12]
  001c5	8d 45 10	 lea	 eax, DWORD PTR $T19[ebp]
  001c8	51		 push	 ecx
  001c9	50		 push	 eax
  001ca	ff 15 00 00 00
	00		 call	 DWORD PTR __imp_?Concatenate@?$CSimpleStringT@D$00@ATL@@KAXAAV12@PBDH1H@Z
  001d0	83 c4 14	 add	 esp, 20			; 00000014H

; 2390 : 		CStringT strResult( str1.GetManager() );

  001d3	8d 4d 10	 lea	 ecx, DWORD PTR $T19[ebp]
; File D:\git\src\IBK\IBK_DRFN\ProjSrc\SrcDrfn\DrCommon\PartnerMng\ChartItemMarket.cpp

; 634  : 	strData += "105301"	+ szDS + strMarket + szFS;		// 

  001d6	c6 45 fc 0c	 mov	 BYTE PTR __$EHRec$[ebp+8], 12 ; 0000000cH
; File C:\Program Files (x86)\Microsoft Visual Studio\2019\Community\VC\Tools\MSVC\14.29.30133\atlmfc\include\cstringt.h

; 2390 : 		CStringT strResult( str1.GetManager() );

  001da	ff 15 00 00 00
	00		 call	 DWORD PTR __imp_?GetManager@?$CStringT@DV?$StrTraitMFC_DLL@DV?$ChTraitsCRT@D@ATL@@@@@ATL@@QBEPAUIAtlStringMgr@2@XZ
  001e0	50		 push	 eax
  001e1	8d 4d d0	 lea	 ecx, DWORD PTR $T4[ebp]
  001e4	ff 15 00 00 00
	00		 call	 DWORD PTR __imp_??0?$CStringT@DV?$StrTraitMFC_DLL@DV?$ChTraitsCRT@D@ATL@@@@@ATL@@QAE@PAUIAtlStringMgr@1@@Z
; File C:\Program Files (x86)\Microsoft Visual Studio\2019\Community\VC\Tools\MSVC\14.29.30133\atlmfc\include\atlsimpstr.h

; 519  : 		return( GetData()->nDataLength );

  001ea	8b 45 e4	 mov	 eax, DWORD PTR _szFS$[ebp]
  001ed	8b 4d 10	 mov	 ecx, DWORD PTR $T19[ebp]
; File C:\Program Files (x86)\Microsoft Visual Studio\2019\Community\VC\Tools\MSVC\14.29.30133\atlmfc\include\cstringt.h

; 2394 : 		return( strResult );

  001f0	c7 45 f0 0f 00
	00 00		 mov	 DWORD PTR $T10[ebp], 15	; 0000000fH
  001f7	ff 70 f4	 push	 DWORD PTR [eax-12]
  001fa	50		 push	 eax
  001fb	ff 71 f4	 push	 DWORD PTR [ecx-12]
  001fe	8d 45 d0	 lea	 eax, DWORD PTR $T4[ebp]
  00201	51		 push	 ecx
  00202	50		 push	 eax
  00203	ff 15 00 00 00
	00		 call	 DWORD PTR __imp_?Concatenate@?$CSimpleStringT@D$00@ATL@@KAXAAV12@PBDH1H@Z
  00209	83 c4 14	 add	 esp, 20			; 00000014H
; File D:\git\src\IBK\IBK_DRFN\ProjSrc\SrcDrfn\DrCommon\PartnerMng\ChartItemMarket.cpp

; 634  : 	strData += "105301"	+ szDS + strMarket + szFS;		// 

  0020c	8d 45 d0	 lea	 eax, DWORD PTR $T4[ebp]
  0020f	8b cf		 mov	 ecx, edi
  00211	50		 push	 eax
  00212	ff 15 00 00 00
	00		 call	 DWORD PTR __imp_??Y?$CStringT@DV?$StrTraitMFC_DLL@DV?$ChTraitsCRT@D@ATL@@@@@ATL@@QAEAAV01@ABV?$CSimpleStringT@D$00@1@@Z
  00218	8d 4d d0	 lea	 ecx, DWORD PTR $T4[ebp]
  0021b	ff 15 00 00 00
	00		 call	 DWORD PTR __imp_??1?$CStringT@DV?$StrTraitMFC_DLL@DV?$ChTraitsCRT@D@ATL@@@@@ATL@@QAE@XZ
  00221	8d 4d 10	 lea	 ecx, DWORD PTR $T19[ebp]
  00224	ff 15 00 00 00
	00		 call	 DWORD PTR __imp_??1?$CStringT@DV?$StrTraitMFC_DLL@DV?$ChTraitsCRT@D@ATL@@@@@ATL@@QAE@XZ
  0022a	8d 4d d8	 lea	 ecx, DWORD PTR $T9[ebp]
  0022d	ff 15 00 00 00
	00		 call	 DWORD PTR __imp_??1?$CStringT@DV?$StrTraitMFC_DLL@DV?$ChTraitsCRT@D@ATL@@@@@ATL@@QAE@XZ
; File C:\Program Files (x86)\Microsoft Visual Studio\2019\Community\VC\Tools\MSVC\14.29.30133\atlmfc\include\cstringt.h

; 2412 : 		CStringT strResult( str2.GetManager() );

  00233	8d 4d e8	 lea	 ecx, DWORD PTR _szDS$[ebp]
; File D:\git\src\IBK\IBK_DRFN\ProjSrc\SrcDrfn\DrCommon\PartnerMng\ChartItemMarket.cpp

; 635  : 	strData += "105306" + szDS + strDate + szFS;		// 

  00236	c6 45 fc 0d	 mov	 BYTE PTR __$EHRec$[ebp+8], 13 ; 0000000dH
; File C:\Program Files (x86)\Microsoft Visual Studio\2019\Community\VC\Tools\MSVC\14.29.30133\atlmfc\include\cstringt.h

; 2412 : 		CStringT strResult( str2.GetManager() );

  0023a	ff 15 00 00 00
	00		 call	 DWORD PTR __imp_?GetManager@?$CStringT@DV?$StrTraitMFC_DLL@DV?$ChTraitsCRT@D@ATL@@@@@ATL@@QBEPAUIAtlStringMgr@2@XZ
  00240	50		 push	 eax
  00241	8d 4d d8	 lea	 ecx, DWORD PTR $T8[ebp]
  00244	ff 15 00 00 00
	00		 call	 DWORD PTR __imp_??0?$CStringT@DV?$StrTraitMFC_DLL@DV?$ChTraitsCRT@D@ATL@@@@@ATL@@QAE@PAUIAtlStringMgr@1@@Z
; File C:\Program Files (x86)\Microsoft Visual Studio\2019\Community\VC\Tools\MSVC\14.29.30133\atlmfc\include\atlsimpstr.h

; 519  : 		return( GetData()->nDataLength );

  0024a	8b 45 e8	 mov	 eax, DWORD PTR _szDS$[ebp]
; File C:\Program Files (x86)\Microsoft Visual Studio\2019\Community\VC\Tools\MSVC\14.29.30133\atlmfc\include\cstringt.h

; 2416 : 		return( strResult );

  0024d	c7 45 f0 11 00
	00 00		 mov	 DWORD PTR $T10[ebp], 17	; 00000011H
  00254	ff 70 f4	 push	 DWORD PTR [eax-12]
  00257	50		 push	 eax
  00258	6a 06		 push	 6
  0025a	8d 45 d8	 lea	 eax, DWORD PTR $T8[ebp]
  0025d	68 00 00 00 00	 push	 OFFSET ??_C@_06EONFJNJG@105306@
  00262	50		 push	 eax
  00263	ff 15 00 00 00
	00		 call	 DWORD PTR __imp_?Concatenate@?$CSimpleStringT@D$00@ATL@@KAXAAV12@PBDH1H@Z
  00269	83 c4 14	 add	 esp, 20			; 00000014H

; 2390 : 		CStringT strResult( str1.GetManager() );

  0026c	8d 4d d8	 lea	 ecx, DWORD PTR $T8[ebp]
; File D:\git\src\IBK\IBK_DRFN\ProjSrc\SrcDrfn\DrCommon\PartnerMng\ChartItemMarket.cpp

; 635  : 	strData += "105306" + szDS + strDate + szFS;		// 

  0026f	c6 45 fc 0e	 mov	 BYTE PTR __$EHRec$[ebp+8], 14 ; 0000000eH
; File C:\Program Files (x86)\Microsoft Visual Studio\2019\Community\VC\Tools\MSVC\14.29.30133\atlmfc\include\cstringt.h

; 2390 : 		CStringT strResult( str1.GetManager() );

  00273	ff 15 00 00 00
	00		 call	 DWORD PTR __imp_?GetManager@?$CStringT@DV?$StrTraitMFC_DLL@DV?$ChTraitsCRT@D@ATL@@@@@ATL@@QBEPAUIAtlStringMgr@2@XZ
  00279	50		 push	 eax
  0027a	8d 4d 10	 lea	 ecx, DWORD PTR $T18[ebp]
  0027d	ff 15 00 00 00
	00		 call	 DWORD PTR __imp_??0?$CStringT@DV?$StrTraitMFC_DLL@DV?$ChTraitsCRT@D@ATL@@@@@ATL@@QAE@PAUIAtlStringMgr@1@@Z
; File C:\Program Files (x86)\Microsoft Visual Studio\2019\Community\VC\Tools\MSVC\14.29.30133\atlmfc\include\atlsimpstr.h

; 519  : 		return( GetData()->nDataLength );

  00283	8b 45 dc	 mov	 eax, DWORD PTR _strDate$[ebp]
  00286	8b 4d d8	 mov	 ecx, DWORD PTR $T8[ebp]
; File C:\Program Files (x86)\Microsoft Visual Studio\2019\Community\VC\Tools\MSVC\14.29.30133\atlmfc\include\cstringt.h

; 2394 : 		return( strResult );

  00289	c7 45 f0 31 00
	00 00		 mov	 DWORD PTR $T10[ebp], 49	; 00000031H
  00290	ff 70 f4	 push	 DWORD PTR [eax-12]
  00293	50		 push	 eax
  00294	ff 71 f4	 push	 DWORD PTR [ecx-12]
  00297	8d 45 10	 lea	 eax, DWORD PTR $T18[ebp]
  0029a	51		 push	 ecx
  0029b	50		 push	 eax
  0029c	ff 15 00 00 00
	00		 call	 DWORD PTR __imp_?Concatenate@?$CSimpleStringT@D$00@ATL@@KAXAAV12@PBDH1H@Z
  002a2	83 c4 14	 add	 esp, 20			; 00000014H

; 2390 : 		CStringT strResult( str1.GetManager() );

  002a5	8d 4d 10	 lea	 ecx, DWORD PTR $T18[ebp]
; File D:\git\src\IBK\IBK_DRFN\ProjSrc\SrcDrfn\DrCommon\PartnerMng\ChartItemMarket.cpp

; 635  : 	strData += "105306" + szDS + strDate + szFS;		// 

  002a8	c6 45 fc 0f	 mov	 BYTE PTR __$EHRec$[ebp+8], 15 ; 0000000fH
; File C:\Program Files (x86)\Microsoft Visual Studio\2019\Community\VC\Tools\MSVC\14.29.30133\atlmfc\include\cstringt.h

; 2390 : 		CStringT strResult( str1.GetManager() );

  002ac	ff 15 00 00 00
	00		 call	 DWORD PTR __imp_?GetManager@?$CStringT@DV?$StrTraitMFC_DLL@DV?$ChTraitsCRT@D@ATL@@@@@ATL@@QBEPAUIAtlStringMgr@2@XZ
  002b2	50		 push	 eax
  002b3	8d 4d d0	 lea	 ecx, DWORD PTR $T3[ebp]
  002b6	ff 15 00 00 00
	00		 call	 DWORD PTR __imp_??0?$CStringT@DV?$StrTraitMFC_DLL@DV?$ChTraitsCRT@D@ATL@@@@@ATL@@QAE@PAUIAtlStringMgr@1@@Z
; File C:\Program Files (x86)\Microsoft Visual Studio\2019\Community\VC\Tools\MSVC\14.29.30133\atlmfc\include\atlsimpstr.h

; 519  : 		return( GetData()->nDataLength );

  002bc	8b 45 e4	 mov	 eax, DWORD PTR _szFS$[ebp]
  002bf	8b 4d 10	 mov	 ecx, DWORD PTR $T18[ebp]
; File C:\Program Files (x86)\Microsoft Visual Studio\2019\Community\VC\Tools\MSVC\14.29.30133\atlmfc\include\cstringt.h

; 2394 : 		return( strResult );

  002c2	c7 45 f0 71 00
	00 00		 mov	 DWORD PTR $T10[ebp], 113 ; 00000071H
  002c9	ff 70 f4	 push	 DWORD PTR [eax-12]
  002cc	50		 push	 eax
  002cd	ff 71 f4	 push	 DWORD PTR [ecx-12]
  002d0	8d 45 d0	 lea	 eax, DWORD PTR $T3[ebp]
  002d3	51		 push	 ecx
  002d4	50		 push	 eax
  002d5	ff 15 00 00 00
	00		 call	 DWORD PTR __imp_?Concatenate@?$CSimpleStringT@D$00@ATL@@KAXAAV12@PBDH1H@Z
  002db	83 c4 14	 add	 esp, 20			; 00000014H
; File D:\git\src\IBK\IBK_DRFN\ProjSrc\SrcDrfn\DrCommon\PartnerMng\ChartItemMarket.cpp

; 635  : 	strData += "105306" + szDS + strDate + szFS;		// 

  002de	8d 45 d0	 lea	 eax, DWORD PTR $T3[ebp]
  002e1	8b cf		 mov	 ecx, edi
  002e3	50		 push	 eax
  002e4	ff 15 00 00 00
	00		 call	 DWORD PTR __imp_??Y?$CStringT@DV?$StrTraitMFC_DLL@DV?$ChTraitsCRT@D@ATL@@@@@ATL@@QAEAAV01@ABV?$CSimpleStringT@D$00@1@@Z
  002ea	8d 4d d0	 lea	 ecx, DWORD PTR $T3[ebp]
  002ed	ff 15 00 00 00
	00		 call	 DWORD PTR __imp_??1?$CStringT@DV?$StrTraitMFC_DLL@DV?$ChTraitsCRT@D@ATL@@@@@ATL@@QAE@XZ
  002f3	8d 4d 10	 lea	 ecx, DWORD PTR $T18[ebp]
  002f6	ff 15 00 00 00
	00		 call	 DWORD PTR __imp_??1?$CStringT@DV?$StrTraitMFC_DLL@DV?$ChTraitsCRT@D@ATL@@@@@ATL@@QAE@XZ
  002fc	8d 4d d8	 lea	 ecx, DWORD PTR $T8[ebp]
  002ff	ff 15 00 00 00
	00		 call	 DWORD PTR __imp_??1?$CStringT@DV?$StrTraitMFC_DLL@DV?$ChTraitsCRT@D@ATL@@@@@ATL@@QAE@XZ
; File C:\Program Files (x86)\Microsoft Visual Studio\2019\Community\VC\Tools\MSVC\14.29.30133\atlmfc\include\cstringt.h

; 2412 : 		CStringT strResult( str2.GetManager() );

  00305	8d 4d e8	 lea	 ecx, DWORD PTR _szDS$[ebp]
; File D:\git\src\IBK\IBK_DRFN\ProjSrc\SrcDrfn\DrCommon\PartnerMng\ChartItemMarket.cpp

; 636  : 	strData += "105309" + szDS + "5" + szFS;			//  (5)/(6)

  00308	c6 45 fc 10	 mov	 BYTE PTR __$EHRec$[ebp+8], 16 ; 00000010H
; File C:\Program Files (x86)\Microsoft Visual Studio\2019\Community\VC\Tools\MSVC\14.29.30133\atlmfc\include\cstringt.h

; 2412 : 		CStringT strResult( str2.GetManager() );

  0030c	ff 15 00 00 00
	00		 call	 DWORD PTR __imp_?GetManager@?$CStringT@DV?$StrTraitMFC_DLL@DV?$ChTraitsCRT@D@ATL@@@@@ATL@@QBEPAUIAtlStringMgr@2@XZ
  00312	50		 push	 eax
  00313	8d 4d d8	 lea	 ecx, DWORD PTR $T7[ebp]
  00316	ff 15 00 00 00
	00		 call	 DWORD PTR __imp_??0?$CStringT@DV?$StrTraitMFC_DLL@DV?$ChTraitsCRT@D@ATL@@@@@ATL@@QAE@PAUIAtlStringMgr@1@@Z
; File C:\Program Files (x86)\Microsoft Visual Studio\2019\Community\VC\Tools\MSVC\14.29.30133\atlmfc\include\atlsimpstr.h

; 519  : 		return( GetData()->nDataLength );

  0031c	8b 45 e8	 mov	 eax, DWORD PTR _szDS$[ebp]
; File C:\Program Files (x86)\Microsoft Visual Studio\2019\Community\VC\Tools\MSVC\14.29.30133\atlmfc\include\cstringt.h

; 2416 : 		return( strResult );

  0031f	c7 45 f0 81 00
	00 00		 mov	 DWORD PTR $T10[ebp], 129 ; 00000081H
  00326	ff 70 f4	 push	 DWORD PTR [eax-12]
  00329	50		 push	 eax
  0032a	6a 06		 push	 6
  0032c	8d 45 d8	 lea	 eax, DWORD PTR $T7[ebp]
  0032f	68 00 00 00 00	 push	 OFFSET ??_C@_06MJENIBFJ@105309@
  00334	50		 push	 eax
  00335	ff 15 00 00 00
	00		 call	 DWORD PTR __imp_?Concatenate@?$CSimpleStringT@D$00@ATL@@KAXAAV12@PBDH1H@Z
  0033b	83 c4 14	 add	 esp, 20			; 00000014H

; 2401 : 		CStringT strResult( str1.GetManager() );

  0033e	8d 4d d8	 lea	 ecx, DWORD PTR $T7[ebp]
; File D:\git\src\IBK\IBK_DRFN\ProjSrc\SrcDrfn\DrCommon\PartnerMng\ChartItemMarket.cpp

; 636  : 	strData += "105309" + szDS + "5" + szFS;			//  (5)/(6)

  00341	c6 45 fc 11	 mov	 BYTE PTR __$EHRec$[ebp+8], 17 ; 00000011H
; File C:\Program Files (x86)\Microsoft Visual Studio\2019\Community\VC\Tools\MSVC\14.29.30133\atlmfc\include\cstringt.h

; 2401 : 		CStringT strResult( str1.GetManager() );

  00345	ff 15 00 00 00
	00		 call	 DWORD PTR __imp_?GetManager@?$CStringT@DV?$StrTraitMFC_DLL@DV?$ChTraitsCRT@D@ATL@@@@@ATL@@QBEPAUIAtlStringMgr@2@XZ
  0034b	50		 push	 eax
  0034c	8d 4d 10	 lea	 ecx, DWORD PTR $T17[ebp]
  0034f	ff 15 00 00 00
	00		 call	 DWORD PTR __imp_??0?$CStringT@DV?$StrTraitMFC_DLL@DV?$ChTraitsCRT@D@ATL@@@@@ATL@@QAE@PAUIAtlStringMgr@1@@Z
; File C:\Program Files (x86)\Microsoft Visual Studio\2019\Community\VC\Tools\MSVC\14.29.30133\atlmfc\include\atlsimpstr.h

; 519  : 		return( GetData()->nDataLength );

  00355	8b 45 d8	 mov	 eax, DWORD PTR $T7[ebp]
; File C:\Program Files (x86)\Microsoft Visual Studio\2019\Community\VC\Tools\MSVC\14.29.30133\atlmfc\include\cstringt.h

; 2403 : 		CThisSimpleString::Concatenate( strResult, str1, str1.GetLength(), psz2, CThisSimpleString::StringLength( psz2 ) );

  00358	6a 01		 push	 1
  0035a	68 00 00 00 00	 push	 OFFSET ??_C@_01BMBHCPLG@5@

; 2404 : 
; 2405 : 		return( strResult );

  0035f	c7 45 f0 81 01
	00 00		 mov	 DWORD PTR $T10[ebp], 385 ; 00000181H
  00366	ff 70 f4	 push	 DWORD PTR [eax-12]
  00369	50		 push	 eax
  0036a	8d 45 10	 lea	 eax, DWORD PTR $T17[ebp]
  0036d	50		 push	 eax
  0036e	ff 15 00 00 00
	00		 call	 DWORD PTR __imp_?Concatenate@?$CSimpleStringT@D$00@ATL@@KAXAAV12@PBDH1H@Z
  00374	83 c4 14	 add	 esp, 20			; 00000014H
; File D:\git\src\IBK\IBK_DRFN\ProjSrc\SrcDrfn\DrCommon\PartnerMng\ChartItemMarket.cpp

; 636  : 	strData += "105309" + szDS + "5" + szFS;			//  (5)/(6)

  00377	c6 45 fc 12	 mov	 BYTE PTR __$EHRec$[ebp+8], 18 ; 00000012H
; File C:\Program Files (x86)\Microsoft Visual Studio\2019\Community\VC\Tools\MSVC\14.29.30133\atlmfc\include\cstringt.h

; 2390 : 		CStringT strResult( str1.GetManager() );

  0037b	8d 4d 10	 lea	 ecx, DWORD PTR $T17[ebp]
  0037e	ff 15 00 00 00
	00		 call	 DWORD PTR __imp_?GetManager@?$CStringT@DV?$StrTraitMFC_DLL@DV?$ChTraitsCRT@D@ATL@@@@@ATL@@QBEPAUIAtlStringMgr@2@XZ
  00384	50		 push	 eax
  00385	8d 4d d0	 lea	 ecx, DWORD PTR $T2[ebp]
  00388	ff 15 00 00 00
	00		 call	 DWORD PTR __imp_??0?$CStringT@DV?$StrTraitMFC_DLL@DV?$ChTraitsCRT@D@ATL@@@@@ATL@@QAE@PAUIAtlStringMgr@1@@Z
; File C:\Program Files (x86)\Microsoft Visual Studio\2019\Community\VC\Tools\MSVC\14.29.30133\atlmfc\include\atlsimpstr.h

; 519  : 		return( GetData()->nDataLength );

  0038e	8b 45 e4	 mov	 eax, DWORD PTR _szFS$[ebp]
  00391	8b 4d 10	 mov	 ecx, DWORD PTR $T17[ebp]
; File C:\Program Files (x86)\Microsoft Visual Studio\2019\Community\VC\Tools\MSVC\14.29.30133\atlmfc\include\cstringt.h

; 2394 : 		return( strResult );

  00394	c7 45 f0 81 03
	00 00		 mov	 DWORD PTR $T10[ebp], 897 ; 00000381H
  0039b	ff 70 f4	 push	 DWORD PTR [eax-12]
  0039e	50		 push	 eax
  0039f	ff 71 f4	 push	 DWORD PTR [ecx-12]
  003a2	8d 45 d0	 lea	 eax, DWORD PTR $T2[ebp]
  003a5	51		 push	 ecx
  003a6	50		 push	 eax
  003a7	ff 15 00 00 00
	00		 call	 DWORD PTR __imp_?Concatenate@?$CSimpleStringT@D$00@ATL@@KAXAAV12@PBDH1H@Z
  003ad	83 c4 14	 add	 esp, 20			; 00000014H
; File D:\git\src\IBK\IBK_DRFN\ProjSrc\SrcDrfn\DrCommon\PartnerMng\ChartItemMarket.cpp

; 636  : 	strData += "105309" + szDS + "5" + szFS;			//  (5)/(6)

  003b0	8d 45 d0	 lea	 eax, DWORD PTR $T2[ebp]
  003b3	8b cf		 mov	 ecx, edi
  003b5	50		 push	 eax
  003b6	ff 15 00 00 00
	00		 call	 DWORD PTR __imp_??Y?$CStringT@DV?$StrTraitMFC_DLL@DV?$ChTraitsCRT@D@ATL@@@@@ATL@@QAEAAV01@ABV?$CSimpleStringT@D$00@1@@Z
  003bc	8d 4d d0	 lea	 ecx, DWORD PTR $T2[ebp]
  003bf	ff 15 00 00 00
	00		 call	 DWORD PTR __imp_??1?$CStringT@DV?$StrTraitMFC_DLL@DV?$ChTraitsCRT@D@ATL@@@@@ATL@@QAE@XZ
  003c5	8d 4d 10	 lea	 ecx, DWORD PTR $T17[ebp]
  003c8	ff 15 00 00 00
	00		 call	 DWORD PTR __imp_??1?$CStringT@DV?$StrTraitMFC_DLL@DV?$ChTraitsCRT@D@ATL@@@@@ATL@@QAE@XZ
  003ce	8d 4d d8	 lea	 ecx, DWORD PTR $T7[ebp]
  003d1	ff 15 00 00 00
	00		 call	 DWORD PTR __imp_??1?$CStringT@DV?$StrTraitMFC_DLL@DV?$ChTraitsCRT@D@ATL@@@@@ATL@@QAE@XZ
; File C:\Program Files (x86)\Microsoft Visual Studio\2019\Community\VC\Tools\MSVC\14.29.30133\atlmfc\include\cstringt.h

; 2412 : 		CStringT strResult( str2.GetManager() );

  003d7	8d 4d e4	 lea	 ecx, DWORD PTR _szFS$[ebp]
; File D:\git\src\IBK\IBK_DRFN\ProjSrc\SrcDrfn\DrCommon\PartnerMng\ChartItemMarket.cpp

; 638  : 	strData += "105301" + szFS;							//  

  003da	c6 45 fc 13	 mov	 BYTE PTR __$EHRec$[ebp+8], 19 ; 00000013H
; File C:\Program Files (x86)\Microsoft Visual Studio\2019\Community\VC\Tools\MSVC\14.29.30133\atlmfc\include\cstringt.h

; 2412 : 		CStringT strResult( str2.GetManager() );

  003de	ff 15 00 00 00
	00		 call	 DWORD PTR __imp_?GetManager@?$CStringT@DV?$StrTraitMFC_DLL@DV?$ChTraitsCRT@D@ATL@@@@@ATL@@QBEPAUIAtlStringMgr@2@XZ
  003e4	50		 push	 eax
  003e5	8d 4d 10	 lea	 ecx, DWORD PTR $T16[ebp]
  003e8	ff 15 00 00 00
	00		 call	 DWORD PTR __imp_??0?$CStringT@DV?$StrTraitMFC_DLL@DV?$ChTraitsCRT@D@ATL@@@@@ATL@@QAE@PAUIAtlStringMgr@1@@Z
; File C:\Program Files (x86)\Microsoft Visual Studio\2019\Community\VC\Tools\MSVC\14.29.30133\atlmfc\include\atlsimpstr.h

; 519  : 		return( GetData()->nDataLength );

  003ee	8b 45 e4	 mov	 eax, DWORD PTR _szFS$[ebp]
; File C:\Program Files (x86)\Microsoft Visual Studio\2019\Community\VC\Tools\MSVC\14.29.30133\atlmfc\include\cstringt.h

; 2416 : 		return( strResult );

  003f1	c7 45 f0 01 04
	00 00		 mov	 DWORD PTR $T10[ebp], 1025 ; 00000401H
  003f8	ff 70 f4	 push	 DWORD PTR [eax-12]
  003fb	50		 push	 eax
  003fc	6a 06		 push	 6
  003fe	8d 45 10	 lea	 eax, DWORD PTR $T16[ebp]
  00401	68 00 00 00 00	 push	 OFFSET ??_C@_06BJEALFB@105301@
  00406	50		 push	 eax
  00407	ff 15 00 00 00
	00		 call	 DWORD PTR __imp_?Concatenate@?$CSimpleStringT@D$00@ATL@@KAXAAV12@PBDH1H@Z
  0040d	83 c4 14	 add	 esp, 20			; 00000014H
; File D:\git\src\IBK\IBK_DRFN\ProjSrc\SrcDrfn\DrCommon\PartnerMng\ChartItemMarket.cpp

; 638  : 	strData += "105301" + szFS;							//  

  00410	8d 45 10	 lea	 eax, DWORD PTR $T16[ebp]
  00413	8b cf		 mov	 ecx, edi
  00415	50		 push	 eax
  00416	ff 15 00 00 00
	00		 call	 DWORD PTR __imp_??Y?$CStringT@DV?$StrTraitMFC_DLL@DV?$ChTraitsCRT@D@ATL@@@@@ATL@@QAEAAV01@ABV?$CSimpleStringT@D$00@1@@Z
  0041c	8d 4d 10	 lea	 ecx, DWORD PTR $T16[ebp]
  0041f	ff 15 00 00 00
	00		 call	 DWORD PTR __imp_??1?$CStringT@DV?$StrTraitMFC_DLL@DV?$ChTraitsCRT@D@ATL@@@@@ATL@@QAE@XZ
; File C:\Program Files (x86)\Microsoft Visual Studio\2019\Community\VC\Tools\MSVC\14.29.30133\atlmfc\include\cstringt.h

; 2412 : 		CStringT strResult( str2.GetManager() );

  00425	8d 4d e8	 lea	 ecx, DWORD PTR _szDS$[ebp]
; File D:\git\src\IBK\IBK_DRFN\ProjSrc\SrcDrfn\DrCommon\PartnerMng\ChartItemMarket.cpp

; 639  : 	strData += "$105610" + szDS;						//  .

  00428	c6 45 fc 14	 mov	 BYTE PTR __$EHRec$[ebp+8], 20 ; 00000014H
; File C:\Program Files (x86)\Microsoft Visual Studio\2019\Community\VC\Tools\MSVC\14.29.30133\atlmfc\include\cstringt.h

; 2412 : 		CStringT strResult( str2.GetManager() );

  0042c	ff 15 00 00 00
	00		 call	 DWORD PTR __imp_?GetManager@?$CStringT@DV?$StrTraitMFC_DLL@DV?$ChTraitsCRT@D@ATL@@@@@ATL@@QBEPAUIAtlStringMgr@2@XZ
  00432	50		 push	 eax
  00433	8d 4d 10	 lea	 ecx, DWORD PTR $T15[ebp]
  00436	ff 15 00 00 00
	00		 call	 DWORD PTR __imp_??0?$CStringT@DV?$StrTraitMFC_DLL@DV?$ChTraitsCRT@D@ATL@@@@@ATL@@QAE@PAUIAtlStringMgr@1@@Z
; File C:\Program Files (x86)\Microsoft Visual Studio\2019\Community\VC\Tools\MSVC\14.29.30133\atlmfc\include\atlsimpstr.h

; 519  : 		return( GetData()->nDataLength );

  0043c	8b 45 e8	 mov	 eax, DWORD PTR _szDS$[ebp]
; File C:\Program Files (x86)\Microsoft Visual Studio\2019\Community\VC\Tools\MSVC\14.29.30133\atlmfc\include\cstringt.h

; 2416 : 		return( strResult );

  0043f	c7 45 f0 01 08
	00 00		 mov	 DWORD PTR $T10[ebp], 2049 ; 00000801H
  00446	ff 70 f4	 push	 DWORD PTR [eax-12]
  00449	50		 push	 eax
  0044a	6a 07		 push	 7
  0044c	8d 45 10	 lea	 eax, DWORD PTR $T15[ebp]
  0044f	68 00 00 00 00	 push	 OFFSET ??_C@_07KLOBMMKO@$105610@
  00454	50		 push	 eax
  00455	ff 15 00 00 00
	00		 call	 DWORD PTR __imp_?Concatenate@?$CSimpleStringT@D$00@ATL@@KAXAAV12@PBDH1H@Z
  0045b	83 c4 14	 add	 esp, 20			; 00000014H
; File D:\git\src\IBK\IBK_DRFN\ProjSrc\SrcDrfn\DrCommon\PartnerMng\ChartItemMarket.cpp

; 639  : 	strData += "$105610" + szDS;						//  .

  0045e	8d 45 10	 lea	 eax, DWORD PTR $T15[ebp]
  00461	8b cf		 mov	 ecx, edi
  00463	50		 push	 eax
  00464	ff 15 00 00 00
	00		 call	 DWORD PTR __imp_??Y?$CStringT@DV?$StrTraitMFC_DLL@DV?$ChTraitsCRT@D@ATL@@@@@ATL@@QAEAAV01@ABV?$CSimpleStringT@D$00@1@@Z
  0046a	8d 4d 10	 lea	 ecx, DWORD PTR $T15[ebp]
  0046d	c7 45 f0 01 00
	00 00		 mov	 DWORD PTR $T10[ebp], 1
  00474	c6 45 fc 07	 mov	 BYTE PTR __$EHRec$[ebp+8], 7
  00478	ff 15 00 00 00
	00		 call	 DWORD PTR __imp_??1?$CStringT@DV?$StrTraitMFC_DLL@DV?$ChTraitsCRT@D@ATL@@@@@ATL@@QAE@XZ

; 640  : 	strData += strGrid;									//  .

  0047e	8d 45 0c	 lea	 eax, DWORD PTR _strGrid$[ebp]
  00481	8b cf		 mov	 ecx, edi
  00483	50		 push	 eax
  00484	ff 15 00 00 00
	00		 call	 DWORD PTR __imp_??Y?$CStringT@DV?$StrTraitMFC_DLL@DV?$ChTraitsCRT@D@ATL@@@@@ATL@@QAEAAV01@ABV?$CSimpleStringT@D$00@1@@Z

; 642  : 	strData += "105302" + szCOL;						//	

  0048a	c6 45 fc 15	 mov	 BYTE PTR __$EHRec$[ebp+8], 21 ; 00000015H
; File C:\Program Files (x86)\Microsoft Visual Studio\2019\Community\VC\Tools\MSVC\14.29.30133\atlmfc\include\cstringt.h

; 2412 : 		CStringT strResult( str2.GetManager() );

  0048e	8d 4d ec	 lea	 ecx, DWORD PTR _szCOL$[ebp]
  00491	ff 15 00 00 00
	00		 call	 DWORD PTR __imp_?GetManager@?$CStringT@DV?$StrTraitMFC_DLL@DV?$ChTraitsCRT@D@ATL@@@@@ATL@@QBEPAUIAtlStringMgr@2@XZ
  00497	50		 push	 eax
  00498	8d 4d 10	 lea	 ecx, DWORD PTR $T14[ebp]
  0049b	ff 15 00 00 00
	00		 call	 DWORD PTR __imp_??0?$CStringT@DV?$StrTraitMFC_DLL@DV?$ChTraitsCRT@D@ATL@@@@@ATL@@QAE@PAUIAtlStringMgr@1@@Z
; File C:\Program Files (x86)\Microsoft Visual Studio\2019\Community\VC\Tools\MSVC\14.29.30133\atlmfc\include\atlsimpstr.h

; 519  : 		return( GetData()->nDataLength );

  004a1	8b 45 ec	 mov	 eax, DWORD PTR _szCOL$[ebp]
; File C:\Program Files (x86)\Microsoft Visual Studio\2019\Community\VC\Tools\MSVC\14.29.30133\atlmfc\include\cstringt.h

; 2416 : 		return( strResult );

  004a4	c7 45 f0 01 10
	00 00		 mov	 DWORD PTR $T10[ebp], 4097 ; 00001001H
  004ab	ff 70 f4	 push	 DWORD PTR [eax-12]
  004ae	50		 push	 eax
  004af	6a 06		 push	 6
  004b1	8d 45 10	 lea	 eax, DWORD PTR $T14[ebp]
  004b4	68 00 00 00 00	 push	 OFFSET ??_C@_06CKLJFIJC@105302@
  004b9	50		 push	 eax
  004ba	ff 15 00 00 00
	00		 call	 DWORD PTR __imp_?Concatenate@?$CSimpleStringT@D$00@ATL@@KAXAAV12@PBDH1H@Z
  004c0	83 c4 14	 add	 esp, 20			; 00000014H
; File D:\git\src\IBK\IBK_DRFN\ProjSrc\SrcDrfn\DrCommon\PartnerMng\ChartItemMarket.cpp

; 642  : 	strData += "105302" + szCOL;						//	

  004c3	8d 45 10	 lea	 eax, DWORD PTR $T14[ebp]
  004c6	8b cf		 mov	 ecx, edi
  004c8	50		 push	 eax
  004c9	ff 15 00 00 00
	00		 call	 DWORD PTR __imp_??Y?$CStringT@DV?$StrTraitMFC_DLL@DV?$ChTraitsCRT@D@ATL@@@@@ATL@@QAEAAV01@ABV?$CSimpleStringT@D$00@1@@Z
  004cf	8d 4d 10	 lea	 ecx, DWORD PTR $T14[ebp]
  004d2	ff 15 00 00 00
	00		 call	 DWORD PTR __imp_??1?$CStringT@DV?$StrTraitMFC_DLL@DV?$ChTraitsCRT@D@ATL@@@@@ATL@@QAE@XZ
; File C:\Program Files (x86)\Microsoft Visual Studio\2019\Community\VC\Tools\MSVC\14.29.30133\atlmfc\include\cstringt.h

; 2412 : 		CStringT strResult( str2.GetManager() );

  004d8	8d 4d ec	 lea	 ecx, DWORD PTR _szCOL$[ebp]
; File D:\git\src\IBK\IBK_DRFN\ProjSrc\SrcDrfn\DrCommon\PartnerMng\ChartItemMarket.cpp

; 643  : 	strData += "105318" + szCOL;						//	 

  004db	c6 45 fc 16	 mov	 BYTE PTR __$EHRec$[ebp+8], 22 ; 00000016H
; File C:\Program Files (x86)\Microsoft Visual Studio\2019\Community\VC\Tools\MSVC\14.29.30133\atlmfc\include\cstringt.h

; 2412 : 		CStringT strResult( str2.GetManager() );

  004df	ff 15 00 00 00
	00		 call	 DWORD PTR __imp_?GetManager@?$CStringT@DV?$StrTraitMFC_DLL@DV?$ChTraitsCRT@D@ATL@@@@@ATL@@QBEPAUIAtlStringMgr@2@XZ
  004e5	50		 push	 eax
  004e6	8d 4d 10	 lea	 ecx, DWORD PTR $T13[ebp]
  004e9	ff 15 00 00 00
	00		 call	 DWORD PTR __imp_??0?$CStringT@DV?$StrTraitMFC_DLL@DV?$ChTraitsCRT@D@ATL@@@@@ATL@@QAE@PAUIAtlStringMgr@1@@Z
; File C:\Program Files (x86)\Microsoft Visual Studio\2019\Community\VC\Tools\MSVC\14.29.30133\atlmfc\include\atlsimpstr.h

; 519  : 		return( GetData()->nDataLength );

  004ef	8b 45 ec	 mov	 eax, DWORD PTR _szCOL$[ebp]
; File C:\Program Files (x86)\Microsoft Visual Studio\2019\Community\VC\Tools\MSVC\14.29.30133\atlmfc\include\cstringt.h

; 2416 : 		return( strResult );

  004f2	c7 45 f0 01 20
	00 00		 mov	 DWORD PTR $T10[ebp], 8193 ; 00002001H
  004f9	ff 70 f4	 push	 DWORD PTR [eax-12]
  004fc	50		 push	 eax
  004fd	6a 06		 push	 6
  004ff	8d 45 10	 lea	 eax, DWORD PTR $T13[ebp]
  00502	68 00 00 00 00	 push	 OFFSET ??_C@_06NBJENKCP@105318@
  00507	50		 push	 eax
  00508	ff 15 00 00 00
	00		 call	 DWORD PTR __imp_?Concatenate@?$CSimpleStringT@D$00@ATL@@KAXAAV12@PBDH1H@Z
  0050e	83 c4 14	 add	 esp, 20			; 00000014H
; File D:\git\src\IBK\IBK_DRFN\ProjSrc\SrcDrfn\DrCommon\PartnerMng\ChartItemMarket.cpp

; 643  : 	strData += "105318" + szCOL;						//	 

  00511	8d 45 10	 lea	 eax, DWORD PTR $T13[ebp]
  00514	8b cf		 mov	 ecx, edi
  00516	50		 push	 eax
  00517	ff 15 00 00 00
	00		 call	 DWORD PTR __imp_??Y?$CStringT@DV?$StrTraitMFC_DLL@DV?$ChTraitsCRT@D@ATL@@@@@ATL@@QAEAAV01@ABV?$CSimpleStringT@D$00@1@@Z
  0051d	8d 4d 10	 lea	 ecx, DWORD PTR $T13[ebp]
  00520	ff 15 00 00 00
	00		 call	 DWORD PTR __imp_??1?$CStringT@DV?$StrTraitMFC_DLL@DV?$ChTraitsCRT@D@ATL@@@@@ATL@@QAE@XZ
; File C:\Program Files (x86)\Microsoft Visual Studio\2019\Community\VC\Tools\MSVC\14.29.30133\atlmfc\include\cstringt.h

; 2412 : 		CStringT strResult( str2.GetManager() );

  00526	8d 4d ec	 lea	 ecx, DWORD PTR _szCOL$[ebp]
; File D:\git\src\IBK\IBK_DRFN\ProjSrc\SrcDrfn\DrCommon\PartnerMng\ChartItemMarket.cpp

; 644  : 	strData += "105319" + szCOL;						//	 

  00529	c6 45 fc 17	 mov	 BYTE PTR __$EHRec$[ebp+8], 23 ; 00000017H
; File C:\Program Files (x86)\Microsoft Visual Studio\2019\Community\VC\Tools\MSVC\14.29.30133\atlmfc\include\cstringt.h

; 2412 : 		CStringT strResult( str2.GetManager() );

  0052d	ff 15 00 00 00
	00		 call	 DWORD PTR __imp_?GetManager@?$CStringT@DV?$StrTraitMFC_DLL@DV?$ChTraitsCRT@D@ATL@@@@@ATL@@QBEPAUIAtlStringMgr@2@XZ
  00533	50		 push	 eax
  00534	8d 4d 10	 lea	 ecx, DWORD PTR $T12[ebp]
  00537	ff 15 00 00 00
	00		 call	 DWORD PTR __imp_??0?$CStringT@DV?$StrTraitMFC_DLL@DV?$ChTraitsCRT@D@ATL@@@@@ATL@@QAE@PAUIAtlStringMgr@1@@Z
; File C:\Program Files (x86)\Microsoft Visual Studio\2019\Community\VC\Tools\MSVC\14.29.30133\atlmfc\include\atlsimpstr.h

; 519  : 		return( GetData()->nDataLength );

  0053d	8b 45 ec	 mov	 eax, DWORD PTR _szCOL$[ebp]
; File C:\Program Files (x86)\Microsoft Visual Studio\2019\Community\VC\Tools\MSVC\14.29.30133\atlmfc\include\cstringt.h

; 2416 : 		return( strResult );

  00540	c7 45 f0 01 40
	00 00		 mov	 DWORD PTR $T10[ebp], 16385 ; 00004001H
  00547	ff 70 f4	 push	 DWORD PTR [eax-12]
  0054a	50		 push	 eax
  0054b	6a 06		 push	 6
  0054d	8d 45 10	 lea	 eax, DWORD PTR $T12[ebp]
  00550	68 00 00 00 00	 push	 OFFSET ??_C@_06MIIPOLGO@105319@
  00555	50		 push	 eax
  00556	ff 15 00 00 00
	00		 call	 DWORD PTR __imp_?Concatenate@?$CSimpleStringT@D$00@ATL@@KAXAAV12@PBDH1H@Z
  0055c	83 c4 14	 add	 esp, 20			; 00000014H
; File D:\git\src\IBK\IBK_DRFN\ProjSrc\SrcDrfn\DrCommon\PartnerMng\ChartItemMarket.cpp

; 644  : 	strData += "105319" + szCOL;						//	 

  0055f	8d 45 10	 lea	 eax, DWORD PTR $T12[ebp]
  00562	8b cf		 mov	 ecx, edi
  00564	50		 push	 eax
  00565	ff 15 00 00 00
	00		 call	 DWORD PTR __imp_??Y?$CStringT@DV?$StrTraitMFC_DLL@DV?$ChTraitsCRT@D@ATL@@@@@ATL@@QAEAAV01@ABV?$CSimpleStringT@D$00@1@@Z
  0056b	8d 4d 10	 lea	 ecx, DWORD PTR $T12[ebp]
  0056e	ff 15 00 00 00
	00		 call	 DWORD PTR __imp_??1?$CStringT@DV?$StrTraitMFC_DLL@DV?$ChTraitsCRT@D@ATL@@@@@ATL@@QAE@XZ
; File C:\Program Files (x86)\Microsoft Visual Studio\2019\Community\VC\Tools\MSVC\14.29.30133\atlmfc\include\cstringt.h

; 2412 : 		CStringT strResult( str2.GetManager() );

  00574	8d 4d ec	 lea	 ecx, DWORD PTR _szCOL$[ebp]
; File D:\git\src\IBK\IBK_DRFN\ProjSrc\SrcDrfn\DrCommon\PartnerMng\ChartItemMarket.cpp

; 645  : 	strData += "105310" + szCOL;						//	 

  00577	c6 45 fc 18	 mov	 BYTE PTR __$EHRec$[ebp+8], 24 ; 00000018H
; File C:\Program Files (x86)\Microsoft Visual Studio\2019\Community\VC\Tools\MSVC\14.29.30133\atlmfc\include\cstringt.h

; 2412 : 		CStringT strResult( str2.GetManager() );

  0057b	ff 15 00 00 00
	00		 call	 DWORD PTR __imp_?GetManager@?$CStringT@DV?$StrTraitMFC_DLL@DV?$ChTraitsCRT@D@ATL@@@@@ATL@@QBEPAUIAtlStringMgr@2@XZ
  00581	50		 push	 eax
  00582	8d 4d 10	 lea	 ecx, DWORD PTR $T11[ebp]
  00585	ff 15 00 00 00
	00		 call	 DWORD PTR __imp_??0?$CStringT@DV?$StrTraitMFC_DLL@DV?$ChTraitsCRT@D@ATL@@@@@ATL@@QAE@PAUIAtlStringMgr@1@@Z
; File C:\Program Files (x86)\Microsoft Visual Studio\2019\Community\VC\Tools\MSVC\14.29.30133\atlmfc\include\atlsimpstr.h

; 519  : 		return( GetData()->nDataLength );

  0058b	8b 45 ec	 mov	 eax, DWORD PTR _szCOL$[ebp]
; File C:\Program Files (x86)\Microsoft Visual Studio\2019\Community\VC\Tools\MSVC\14.29.30133\atlmfc\include\cstringt.h

; 2416 : 		return( strResult );

  0058e	c7 45 f0 01 80
	00 00		 mov	 DWORD PTR $T10[ebp], 32769 ; 00008001H
  00595	ff 70 f4	 push	 DWORD PTR [eax-12]
  00598	50		 push	 eax
  00599	6a 06		 push	 6
  0059b	68 00 00 00 00	 push	 OFFSET ??_C@_06BJENFACH@105310@
  005a0	8d 45 10	 lea	 eax, DWORD PTR $T11[ebp]
  005a3	50		 push	 eax

; 2413 : 
; 2414 : 		CThisSimpleString::Concatenate( strResult, psz1, CThisSimpleString::StringLength( psz1 ), str2, str2.GetLength() );

  005a4	ff 15 00 00 00
	00		 call	 DWORD PTR __imp_?Concatenate@?$CSimpleStringT@D$00@ATL@@KAXAAV12@PBDH1H@Z
  005aa	83 c4 14	 add	 esp, 20			; 00000014H
; File D:\git\src\IBK\IBK_DRFN\ProjSrc\SrcDrfn\DrCommon\PartnerMng\ChartItemMarket.cpp

; 645  : 	strData += "105310" + szCOL;						//	 

  005ad	8d 45 10	 lea	 eax, DWORD PTR $T11[ebp]
  005b0	8b cf		 mov	 ecx, edi
  005b2	50		 push	 eax
  005b3	ff 15 00 00 00
	00		 call	 DWORD PTR __imp_??Y?$CStringT@DV?$StrTraitMFC_DLL@DV?$ChTraitsCRT@D@ATL@@@@@ATL@@QAEAAV01@ABV?$CSimpleStringT@D$00@1@@Z
  005b9	8d 4d 10	 lea	 ecx, DWORD PTR $T11[ebp]
  005bc	c7 45 f0 01 00
	00 00		 mov	 DWORD PTR $T10[ebp], 1
  005c3	c6 45 fc 07	 mov	 BYTE PTR __$EHRec$[ebp+8], 7
  005c7	ff 15 00 00 00
	00		 call	 DWORD PTR __imp_??1?$CStringT@DV?$StrTraitMFC_DLL@DV?$ChTraitsCRT@D@ATL@@@@@ATL@@QAE@XZ

; 646  : 
; 647  : 	strData += szFS;

  005cd	8d 45 e4	 lea	 eax, DWORD PTR _szFS$[ebp]
  005d0	8b cf		 mov	 ecx, edi
  005d2	50		 push	 eax
  005d3	ff 15 00 00 00
	00		 call	 DWORD PTR __imp_??Y?$CStringT@DV?$StrTraitMFC_DLL@DV?$ChTraitsCRT@D@ATL@@@@@ATL@@QAEAAV01@ABV?$CSimpleStringT@D$00@1@@Z

; 648  : 
; 649  : 	return strData;

  005d9	8d 4d ec	 lea	 ecx, DWORD PTR _szCOL$[ebp]
  005dc	ff 15 00 00 00
	00		 call	 DWORD PTR __imp_??1?$CStringT@DV?$StrTraitMFC_DLL@DV?$ChTraitsCRT@D@ATL@@@@@ATL@@QAE@XZ
  005e2	8d 4d e4	 lea	 ecx, DWORD PTR _szFS$[ebp]
  005e5	ff 15 00 00 00
	00		 call	 DWORD PTR __imp_??1?$CStringT@DV?$StrTraitMFC_DLL@DV?$ChTraitsCRT@D@ATL@@@@@ATL@@QAE@XZ
  005eb	8d 4d e8	 lea	 ecx, DWORD PTR _szDS$[ebp]
  005ee	ff 15 00 00 00
	00		 call	 DWORD PTR __imp_??1?$CStringT@DV?$StrTraitMFC_DLL@DV?$ChTraitsCRT@D@ATL@@@@@ATL@@QAE@XZ
  005f4	8d 4d dc	 lea	 ecx, DWORD PTR _strDate$[ebp]
  005f7	ff 15 00 00 00
	00		 call	 DWORD PTR __imp_??1?$CStringT@DV?$StrTraitMFC_DLL@DV?$ChTraitsCRT@D@ATL@@@@@ATL@@QAE@XZ
  005fd	8d 4d e0	 lea	 ecx, DWORD PTR _strMarket$[ebp]
  00600	ff 15 00 00 00
	00		 call	 DWORD PTR __imp_??1?$CStringT@DV?$StrTraitMFC_DLL@DV?$ChTraitsCRT@D@ATL@@@@@ATL@@QAE@XZ
  00606	8d 4d d4	 lea	 ecx, DWORD PTR _strCode$[ebp]
  00609	ff 15 00 00 00
	00		 call	 DWORD PTR __imp_??1?$CStringT@DV?$StrTraitMFC_DLL@DV?$ChTraitsCRT@D@ATL@@@@@ATL@@QAE@XZ
  0060f	8d 4d 0c	 lea	 ecx, DWORD PTR _strGrid$[ebp]
  00612	ff 15 00 00 00
	00		 call	 DWORD PTR __imp_??1?$CStringT@DV?$StrTraitMFC_DLL@DV?$ChTraitsCRT@D@ATL@@@@@ATL@@QAE@XZ
  00618	8b c7		 mov	 eax, edi

; 650  : }

  0061a	8b 4d f4	 mov	 ecx, DWORD PTR __$EHRec$[ebp]
  0061d	64 89 0d 00 00
	00 00		 mov	 DWORD PTR fs:0, ecx
  00624	59		 pop	 ecx
  00625	5f		 pop	 edi
  00626	5e		 pop	 esi
  00627	8b e5		 mov	 esp, ebp
  00629	5d		 pop	 ebp
  0062a	c2 0c 00	 ret	 12			; 0000000cH
  0062d	0f 1f 00	 npad	 3
$LN247@fnStructTy:
  00630	00 00 00 00	 DD	 $LN4@fnStructTy
  00634	00 00 00 00	 DD	 $LN5@fnStructTy
  00638	00 00 00 00	 DD	 $LN6@fnStructTy
  0063c	00 00 00 00	 DD	 $LN7@fnStructTy
  00640	00 00 00 00	 DD	 $LN8@fnStructTy
  00644	00 00 00 00	 DD	 $LN9@fnStructTy
_TEXT	ENDS
;	COMDAT text$x
text$x	SEGMENT
__unwindfunclet$?fnStructType2@CChartItemMarket@@QAE?AV?$CStringT@DV?$StrTraitMFC_DLL@DV?$ChTraitsCRT@D@ATL@@@@@ATL@@V23@H@Z$0:
  00000	8d 4d 0c	 lea	 ecx, DWORD PTR _strGrid$[ebp]
  00003	ff 25 00 00 00
	00		 jmp	 DWORD PTR __imp_??1?$CStringT@DV?$StrTraitMFC_DLL@DV?$ChTraitsCRT@D@ATL@@@@@ATL@@QAE@XZ
__unwindfunclet$?fnStructType2@CChartItemMarket@@QAE?AV?$CStringT@DV?$StrTraitMFC_DLL@DV?$ChTraitsCRT@D@ATL@@@@@ATL@@V23@H@Z$1:
  00009	8b 45 f0	 mov	 eax, DWORD PTR $T10[ebp]
  0000c	83 e0 01	 and	 eax, 1
  0000f	0f 84 0d 00 00
	00		 je	 $LN13@fnStructTy
  00015	83 65 f0 fe	 and	 DWORD PTR $T10[ebp], -2	; fffffffeH
  00019	8b 4d 08	 mov	 ecx, DWORD PTR ___$ReturnUdt$[ebp]
  0001c	ff 25 00 00 00
	00		 jmp	 DWORD PTR __imp_??1?$CStringT@DV?$StrTraitMFC_DLL@DV?$ChTraitsCRT@D@ATL@@@@@ATL@@QAE@XZ
$LN13@fnStructTy:
  00022	c3		 ret	 0
__unwindfunclet$?fnStructType2@CChartItemMarket@@QAE?AV?$CStringT@DV?$StrTraitMFC_DLL@DV?$ChTraitsCRT@D@ATL@@@@@ATL@@V23@H@Z$2:
  00023	8d 4d d4	 lea	 ecx, DWORD PTR _strCode$[ebp]
  00026	ff 25 00 00 00
	00		 jmp	 DWORD PTR __imp_??1?$CStringT@DV?$StrTraitMFC_DLL@DV?$ChTraitsCRT@D@ATL@@@@@ATL@@QAE@XZ
__unwindfunclet$?fnStructType2@CChartItemMarket@@QAE?AV?$CStringT@DV?$StrTraitMFC_DLL@DV?$ChTraitsCRT@D@ATL@@@@@ATL@@V23@H@Z$3:
  0002c	8d 4d e0	 lea	 ecx, DWORD PTR _strMarket$[ebp]
  0002f	ff 25 00 00 00
	00		 jmp	 DWORD PTR __imp_??1?$CStringT@DV?$StrTraitMFC_DLL@DV?$ChTraitsCRT@D@ATL@@@@@ATL@@QAE@XZ
__unwindfunclet$?fnStructType2@CChartItemMarket@@QAE?AV?$CStringT@DV?$StrTraitMFC_DLL@DV?$ChTraitsCRT@D@ATL@@@@@ATL@@V23@H@Z$4:
  00035	8d 4d dc	 lea	 ecx, DWORD PTR _strDate$[ebp]
  00038	ff 25 00 00 00
	00		 jmp	 DWORD PTR __imp_??1?$CStringT@DV?$StrTraitMFC_DLL@DV?$ChTraitsCRT@D@ATL@@@@@ATL@@QAE@XZ
__unwindfunclet$?fnStructType2@CChartItemMarket@@QAE?AV?$CStringT@DV?$StrTraitMFC_DLL@DV?$ChTraitsCRT@D@ATL@@@@@ATL@@V23@H@Z$5:
  0003e	8d 4d e8	 lea	 ecx, DWORD PTR _szDS$[ebp]
  00041	ff 25 00 00 00
	00		 jmp	 DWORD PTR __imp_??1?$CStringT@DV?$StrTraitMFC_DLL@DV?$ChTraitsCRT@D@ATL@@@@@ATL@@QAE@XZ
__unwindfunclet$?fnStructType2@CChartItemMarket@@QAE?AV?$CStringT@DV?$StrTraitMFC_DLL@DV?$ChTraitsCRT@D@ATL@@@@@ATL@@V23@H@Z$6:
  00047	8d 4d e4	 lea	 ecx, DWORD PTR _szFS$[ebp]
  0004a	ff 25 00 00 00
	00		 jmp	 DWORD PTR __imp_??1?$CStringT@DV?$StrTraitMFC_DLL@DV?$ChTraitsCRT@D@ATL@@@@@ATL@@QAE@XZ
__unwindfunclet$?fnStructType2@CChartItemMarket@@QAE?AV?$CStringT@DV?$StrTraitMFC_DLL@DV?$ChTraitsCRT@D@ATL@@@@@ATL@@V23@H@Z$7:
  00050	8d 4d ec	 lea	 ecx, DWORD PTR _szCOL$[ebp]
  00053	ff 25 00 00 00
	00		 jmp	 DWORD PTR __imp_??1?$CStringT@DV?$StrTraitMFC_DLL@DV?$ChTraitsCRT@D@ATL@@@@@ATL@@QAE@XZ
__unwindfunclet$?fnStructType2@CChartItemMarket@@QAE?AV?$CStringT@DV?$StrTraitMFC_DLL@DV?$ChTraitsCRT@D@ATL@@@@@ATL@@V23@H@Z$8:
  00059	8d 4d d0	 lea	 ecx, DWORD PTR $T6[ebp]
  0005c	ff 25 00 00 00
	00		 jmp	 DWORD PTR __imp_??1?$CStringT@DV?$StrTraitMFC_DLL@DV?$ChTraitsCRT@D@ATL@@@@@ATL@@QAE@XZ
__unwindfunclet$?fnStructType2@CChartItemMarket@@QAE?AV?$CStringT@DV?$StrTraitMFC_DLL@DV?$ChTraitsCRT@D@ATL@@@@@ATL@@V23@H@Z$9:
  00062	8d 4d d0	 lea	 ecx, DWORD PTR $T5[ebp]
  00065	ff 25 00 00 00
	00		 jmp	 DWORD PTR __imp_??1?$CStringT@DV?$StrTraitMFC_DLL@DV?$ChTraitsCRT@D@ATL@@@@@ATL@@QAE@XZ
__unwindfunclet$?fnStructType2@CChartItemMarket@@QAE?AV?$CStringT@DV?$StrTraitMFC_DLL@DV?$ChTraitsCRT@D@ATL@@@@@ATL@@V23@H@Z$25:
  0006b	8b 45 f0	 mov	 eax, DWORD PTR $T10[ebp]
  0006e	83 e0 02	 and	 eax, 2
  00071	0f 84 0d 00 00
	00		 je	 $LN40@fnStructTy
  00077	83 65 f0 fd	 and	 DWORD PTR $T10[ebp], -3	; fffffffdH
  0007b	8d 4d d8	 lea	 ecx, DWORD PTR $T9[ebp]
  0007e	ff 25 00 00 00
	00		 jmp	 DWORD PTR __imp_??1?$CStringT@DV?$StrTraitMFC_DLL@DV?$ChTraitsCRT@D@ATL@@@@@ATL@@QAE@XZ
$LN40@fnStructTy:
  00084	c3		 ret	 0
__unwindfunclet$?fnStructType2@CChartItemMarket@@QAE?AV?$CStringT@DV?$StrTraitMFC_DLL@DV?$ChTraitsCRT@D@ATL@@@@@ATL@@V23@H@Z$26:
  00085	8b 45 f0	 mov	 eax, DWORD PTR $T10[ebp]
  00088	83 e0 04	 and	 eax, 4
  0008b	0f 84 0d 00 00
	00		 je	 $LN53@fnStructTy
  00091	83 65 f0 fb	 and	 DWORD PTR $T10[ebp], -5	; fffffffbH
  00095	8d 4d 10	 lea	 ecx, DWORD PTR $T19[ebp]
  00098	ff 25 00 00 00
	00		 jmp	 DWORD PTR __imp_??1?$CStringT@DV?$StrTraitMFC_DLL@DV?$ChTraitsCRT@D@ATL@@@@@ATL@@QAE@XZ
$LN53@fnStructTy:
  0009e	c3		 ret	 0
__unwindfunclet$?fnStructType2@CChartItemMarket@@QAE?AV?$CStringT@DV?$StrTraitMFC_DLL@DV?$ChTraitsCRT@D@ATL@@@@@ATL@@V23@H@Z$27:
  0009f	8b 45 f0	 mov	 eax, DWORD PTR $T10[ebp]
  000a2	83 e0 08	 and	 eax, 8
  000a5	0f 84 0d 00 00
	00		 je	 $LN69@fnStructTy
  000ab	83 65 f0 f7	 and	 DWORD PTR $T10[ebp], -9	; fffffff7H
  000af	8d 4d d0	 lea	 ecx, DWORD PTR $T4[ebp]
  000b2	ff 25 00 00 00
	00		 jmp	 DWORD PTR __imp_??1?$CStringT@DV?$StrTraitMFC_DLL@DV?$ChTraitsCRT@D@ATL@@@@@ATL@@QAE@XZ
$LN69@fnStructTy:
  000b8	c3		 ret	 0
__unwindfunclet$?fnStructType2@CChartItemMarket@@QAE?AV?$CStringT@DV?$StrTraitMFC_DLL@DV?$ChTraitsCRT@D@ATL@@@@@ATL@@V23@H@Z$28:
  000b9	8b 45 f0	 mov	 eax, DWORD PTR $T10[ebp]
  000bc	83 e0 10	 and	 eax, 16			; 00000010H
  000bf	0f 84 0d 00 00
	00		 je	 $LN85@fnStructTy
  000c5	83 65 f0 ef	 and	 DWORD PTR $T10[ebp], -17 ; ffffffefH
  000c9	8d 4d d8	 lea	 ecx, DWORD PTR $T8[ebp]
  000cc	ff 25 00 00 00
	00		 jmp	 DWORD PTR __imp_??1?$CStringT@DV?$StrTraitMFC_DLL@DV?$ChTraitsCRT@D@ATL@@@@@ATL@@QAE@XZ
$LN85@fnStructTy:
  000d2	c3		 ret	 0
__unwindfunclet$?fnStructType2@CChartItemMarket@@QAE?AV?$CStringT@DV?$StrTraitMFC_DLL@DV?$ChTraitsCRT@D@ATL@@@@@ATL@@V23@H@Z$29:
  000d3	8b 45 f0	 mov	 eax, DWORD PTR $T10[ebp]
  000d6	83 e0 20	 and	 eax, 32			; 00000020H
  000d9	0f 84 0d 00 00
	00		 je	 $LN98@fnStructTy
  000df	83 65 f0 df	 and	 DWORD PTR $T10[ebp], -33 ; ffffffdfH
  000e3	8d 4d 10	 lea	 ecx, DWORD PTR $T18[ebp]
  000e6	ff 25 00 00 00
	00		 jmp	 DWORD PTR __imp_??1?$CStringT@DV?$StrTraitMFC_DLL@DV?$ChTraitsCRT@D@ATL@@@@@ATL@@QAE@XZ
$LN98@fnStructTy:
  000ec	c3		 ret	 0
__unwindfunclet$?fnStructType2@CChartItemMarket@@QAE?AV?$CStringT@DV?$StrTraitMFC_DLL@DV?$ChTraitsCRT@D@ATL@@@@@ATL@@V23@H@Z$30:
  000ed	8b 45 f0	 mov	 eax, DWORD PTR $T10[ebp]
  000f0	83 e0 40	 and	 eax, 64			; 00000040H
  000f3	0f 84 0d 00 00
	00		 je	 $LN114@fnStructTy
  000f9	83 65 f0 bf	 and	 DWORD PTR $T10[ebp], -65 ; ffffffbfH
  000fd	8d 4d d0	 lea	 ecx, DWORD PTR $T3[ebp]
  00100	ff 25 00 00 00
	00		 jmp	 DWORD PTR __imp_??1?$CStringT@DV?$StrTraitMFC_DLL@DV?$ChTraitsCRT@D@ATL@@@@@ATL@@QAE@XZ
$LN114@fnStructTy:
  00106	c3		 ret	 0
__unwindfunclet$?fnStructType2@CChartItemMarket@@QAE?AV?$CStringT@DV?$StrTraitMFC_DLL@DV?$ChTraitsCRT@D@ATL@@@@@ATL@@V23@H@Z$31:
  00107	8b 45 f0	 mov	 eax, DWORD PTR $T10[ebp]
  0010a	25 80 00 00 00	 and	 eax, 128		; 00000080H
  0010f	0f 84 10 00 00
	00		 je	 $LN130@fnStructTy
  00115	81 65 f0 7f ff
	ff ff		 and	 DWORD PTR $T10[ebp], -129 ; ffffff7fH
  0011c	8d 4d d8	 lea	 ecx, DWORD PTR $T7[ebp]
  0011f	ff 25 00 00 00
	00		 jmp	 DWORD PTR __imp_??1?$CStringT@DV?$StrTraitMFC_DLL@DV?$ChTraitsCRT@D@ATL@@@@@ATL@@QAE@XZ
$LN130@fnStructTy:
  00125	c3		 ret	 0
__unwindfunclet$?fnStructType2@CChartItemMarket@@QAE?AV?$CStringT@DV?$StrTraitMFC_DLL@DV?$ChTraitsCRT@D@ATL@@@@@ATL@@V23@H@Z$32:
  00126	8b 45 f0	 mov	 eax, DWORD PTR $T10[ebp]
  00129	25 00 01 00 00	 and	 eax, 256		; 00000100H
  0012e	0f 84 10 00 00
	00		 je	 $LN143@fnStructTy
  00134	81 65 f0 ff fe
	ff ff		 and	 DWORD PTR $T10[ebp], -257 ; fffffeffH
  0013b	8d 4d 10	 lea	 ecx, DWORD PTR $T17[ebp]
  0013e	ff 25 00 00 00
	00		 jmp	 DWORD PTR __imp_??1?$CStringT@DV?$StrTraitMFC_DLL@DV?$ChTraitsCRT@D@ATL@@@@@ATL@@QAE@XZ
$LN143@fnStructTy:
  00144	c3		 ret	 0
__unwindfunclet$?fnStructType2@CChartItemMarket@@QAE?AV?$CStringT@DV?$StrTraitMFC_DLL@DV?$ChTraitsCRT@D@ATL@@@@@ATL@@V23@H@Z$33:
  00145	8b 45 f0	 mov	 eax, DWORD PTR $T10[ebp]
  00148	25 00 02 00 00	 and	 eax, 512		; 00000200H
  0014d	0f 84 10 00 00
	00		 je	 $LN156@fnStructTy
  00153	81 65 f0 ff fd
	ff ff		 and	 DWORD PTR $T10[ebp], -513 ; fffffdffH
  0015a	8d 4d d0	 lea	 ecx, DWORD PTR $T2[ebp]
  0015d	ff 25 00 00 00
	00		 jmp	 DWORD PTR __imp_??1?$CStringT@DV?$StrTraitMFC_DLL@DV?$ChTraitsCRT@D@ATL@@@@@ATL@@QAE@XZ
$LN156@fnStructTy:
  00163	c3		 ret	 0
__unwindfunclet$?fnStructType2@CChartItemMarket@@QAE?AV?$CStringT@DV?$StrTraitMFC_DLL@DV?$ChTraitsCRT@D@ATL@@@@@ATL@@V23@H@Z$34:
  00164	8b 45 f0	 mov	 eax, DWORD PTR $T10[ebp]
  00167	25 00 04 00 00	 and	 eax, 1024		; 00000400H
  0016c	0f 84 10 00 00
	00		 je	 $LN172@fnStructTy
  00172	81 65 f0 ff fb
	ff ff		 and	 DWORD PTR $T10[ebp], -1025 ; fffffbffH
  00179	8d 4d 10	 lea	 ecx, DWORD PTR $T16[ebp]
  0017c	ff 25 00 00 00
	00		 jmp	 DWORD PTR __imp_??1?$CStringT@DV?$StrTraitMFC_DLL@DV?$ChTraitsCRT@D@ATL@@@@@ATL@@QAE@XZ
$LN172@fnStructTy:
  00182	c3		 ret	 0
__unwindfunclet$?fnStructType2@CChartItemMarket@@QAE?AV?$CStringT@DV?$StrTraitMFC_DLL@DV?$ChTraitsCRT@D@ATL@@@@@ATL@@V23@H@Z$35:
  00183	8b 45 f0	 mov	 eax, DWORD PTR $T10[ebp]
  00186	25 00 08 00 00	 and	 eax, 2048		; 00000800H
  0018b	0f 84 10 00 00
	00		 je	 $LN185@fnStructTy
  00191	81 65 f0 ff f7
	ff ff		 and	 DWORD PTR $T10[ebp], -2049 ; fffff7ffH
  00198	8d 4d 10	 lea	 ecx, DWORD PTR $T15[ebp]
  0019b	ff 25 00 00 00
	00		 jmp	 DWORD PTR __imp_??1?$CStringT@DV?$StrTraitMFC_DLL@DV?$ChTraitsCRT@D@ATL@@@@@ATL@@QAE@XZ
$LN185@fnStructTy:
  001a1	c3		 ret	 0
__unwindfunclet$?fnStructType2@CChartItemMarket@@QAE?AV?$CStringT@DV?$StrTraitMFC_DLL@DV?$ChTraitsCRT@D@ATL@@@@@ATL@@V23@H@Z$36:
  001a2	8b 45 f0	 mov	 eax, DWORD PTR $T10[ebp]
  001a5	25 00 10 00 00	 and	 eax, 4096		; 00001000H
  001aa	0f 84 10 00 00
	00		 je	 $LN198@fnStructTy
  001b0	81 65 f0 ff ef
	ff ff		 and	 DWORD PTR $T10[ebp], -4097 ; ffffefffH
  001b7	8d 4d 10	 lea	 ecx, DWORD PTR $T14[ebp]
  001ba	ff 25 00 00 00
	00		 jmp	 DWORD PTR __imp_??1?$CStringT@DV?$StrTraitMFC_DLL@DV?$ChTraitsCRT@D@ATL@@@@@ATL@@QAE@XZ
$LN198@fnStructTy:
  001c0	c3		 ret	 0
__unwindfunclet$?fnStructType2@CChartItemMarket@@QAE?AV?$CStringT@DV?$StrTraitMFC_DLL@DV?$ChTraitsCRT@D@ATL@@@@@ATL@@V23@H@Z$37:
  001c1	8b 45 f0	 mov	 eax, DWORD PTR $T10[ebp]
  001c4	25 00 20 00 00	 and	 eax, 8192		; 00002000H
  001c9	0f 84 10 00 00
	00		 je	 $LN211@fnStructTy
  001cf	81 65 f0 ff df
	ff ff		 and	 DWORD PTR $T10[ebp], -8193 ; ffffdfffH
  001d6	8d 4d 10	 lea	 ecx, DWORD PTR $T13[ebp]
  001d9	ff 25 00 00 00
	00		 jmp	 DWORD PTR __imp_??1?$CStringT@DV?$StrTraitMFC_DLL@DV?$ChTraitsCRT@D@ATL@@@@@ATL@@QAE@XZ
$LN211@fnStructTy:
  001df	c3		 ret	 0
__unwindfunclet$?fnStructType2@CChartItemMarket@@QAE?AV?$CStringT@DV?$StrTraitMFC_DLL@DV?$ChTraitsCRT@D@ATL@@@@@ATL@@V23@H@Z$38:
  001e0	8b 45 f0	 mov	 eax, DWORD PTR $T10[ebp]
  001e3	25 00 40 00 00	 and	 eax, 16384		; 00004000H
  001e8	0f 84 10 00 00
	00		 je	 $LN224@fnStructTy
  001ee	81 65 f0 ff bf
	ff ff		 and	 DWORD PTR $T10[ebp], -16385 ; ffffbfffH
  001f5	8d 4d 10	 lea	 ecx, DWORD PTR $T12[ebp]
  001f8	ff 25 00 00 00
	00		 jmp	 DWORD PTR __imp_??1?$CStringT@DV?$StrTraitMFC_DLL@DV?$ChTraitsCRT@D@ATL@@@@@ATL@@QAE@XZ
$LN224@fnStructTy:
  001fe	c3		 ret	 0
__unwindfunclet$?fnStructType2@CChartItemMarket@@QAE?AV?$CStringT@DV?$StrTraitMFC_DLL@DV?$ChTraitsCRT@D@ATL@@@@@ATL@@V23@H@Z$39:
  001ff	8b 45 f0	 mov	 eax, DWORD PTR $T10[ebp]
  00202	25 00 80 00 00	 and	 eax, 32768		; 00008000H
  00207	0f 84 10 00 00
	00		 je	 $LN237@fnStructTy
  0020d	81 65 f0 ff 7f
	ff ff		 and	 DWORD PTR $T10[ebp], -32769 ; ffff7fffH
  00214	8d 4d 10	 lea	 ecx, DWORD PTR $T11[ebp]
  00217	ff 25 00 00 00
	00		 jmp	 DWORD PTR __imp_??1?$CStringT@DV?$StrTraitMFC_DLL@DV?$ChTraitsCRT@D@ATL@@@@@ATL@@QAE@XZ
$LN237@fnStructTy:
  0021d	c3		 ret	 0
  0021e	cc		 int	 3
  0021f	cc		 int	 3
  00220	cc		 int	 3
  00221	cc		 int	 3
  00222	cc		 int	 3
__ehhandler$?fnStructType2@CChartItemMarket@@QAE?AV?$CStringT@DV?$StrTraitMFC_DLL@DV?$ChTraitsCRT@D@ATL@@@@@ATL@@V23@H@Z:
  00223	90		 npad	 1
  00224	90		 npad	 1
  00225	8b 54 24 08	 mov	 edx, DWORD PTR [esp+8]
  00229	8d 42 0c	 lea	 eax, DWORD PTR [edx+12]
  0022c	8b 4a d0	 mov	 ecx, DWORD PTR [edx-48]
  0022f	33 c8		 xor	 ecx, eax
  00231	e8 00 00 00 00	 call	 @__security_check_cookie@4
  00236	b8 00 00 00 00	 mov	 eax, OFFSET __ehfuncinfo$?fnStructType2@CChartItemMarket@@QAE?AV?$CStringT@DV?$StrTraitMFC_DLL@DV?$ChTraitsCRT@D@ATL@@@@@ATL@@V23@H@Z
  0023b	e9 00 00 00 00	 jmp	 ___CxxFrameHandler3
text$x	ENDS
?fnStructType2@CChartItemMarket@@QAE?AV?$CStringT@DV?$StrTraitMFC_DLL@DV?$ChTraitsCRT@D@ATL@@@@@ATL@@V23@H@Z ENDP ; CChartItemMarket::fnStructType2
; Function compile flags: /Ogtp
; File D:\git\src\IBK\IBK_DRFN\ProjSrc\SrcDrfn\DrCommon\PartnerMng\ChartItemMarket.cpp
; File C:\Program Files (x86)\Microsoft Visual Studio\2019\Community\VC\Tools\MSVC\14.29.30133\atlmfc\include\atlsimpstr.h
; File D:\git\src\IBK\IBK_DRFN\ProjSrc\SrcDrfn\DrCommon\PartnerMng\ChartItemMarket.cpp
; File C:\Program Files (x86)\Microsoft Visual Studio\2019\Community\VC\Tools\MSVC\14.29.30133\atlmfc\include\atlsimpstr.h
; File D:\git\src\IBK\IBK_DRFN\ProjSrc\SrcDrfn\DrCommon\PartnerMng\ChartItemMarket.cpp
;	COMDAT ?fnStructType1@CChartItemMarket@@QAE?AV?$CStringT@DV?$StrTraitMFC_DLL@DV?$ChTraitsCRT@D@ATL@@@@@ATL@@V23@H@Z
_TEXT	SEGMENT
_strNow$ = -356						; size = 4
_strTime$ = -352					; size = 4
_strImgRgb$ = -348					; size = 4
___$ReturnUdt$GSCopy$ = -344				; size = 4
_strTemp$ = -344					; size = 4
_szDS$ = -340						; size = 4
_szCOL$ = -336						; size = 4
_strUnit$ = -332					; size = 4
_nFlag$1$ = -328					; size = 4
_szFS$ = -324						; size = 4
_strCode$ = -320					; size = 4
_strDate$ = -316					; size = 4
_nCount$1$ = -312					; size = 4
$T2 = -312						; size = 4
$T3 = -312						; size = 4
_stNextKey$ = -308					; size = 4
_nMarketType$1$ = -304					; size = 4
_stRowData$4 = -304					; size = 4
_stRowData$5 = -304					; size = 4
_stNextData$ = -300					; size = 4
_temp$6 = -296						; size = 4
_temp$7 = -296						; size = 4
_strData$ = -292					; size = 4
_Datah$8 = -288						; size = 136
_Datah$9 = -288						; size = 136
_szData_i$10 = -152					; size = 136
__$ArrayPad$ = -16					; size = 4
__$EHRec$ = -12						; size = 12
___$ReturnUdt$ = 8					; size = 4
_strGrid$ = 12						; size = 4
_nType1$ = 16						; size = 4
?fnStructType1@CChartItemMarket@@QAE?AV?$CStringT@DV?$StrTraitMFC_DLL@DV?$ChTraitsCRT@D@ATL@@@@@ATL@@V23@H@Z PROC ; CChartItemMarket::fnStructType1, COMDAT
; _this$ = ecx

; 221  : {

  00000	55		 push	 ebp
  00001	8b ec		 mov	 ebp, esp
  00003	6a ff		 push	 -1
  00005	68 00 00 00 00	 push	 __ehhandler$?fnStructType1@CChartItemMarket@@QAE?AV?$CStringT@DV?$StrTraitMFC_DLL@DV?$ChTraitsCRT@D@ATL@@@@@ATL@@V23@H@Z
  0000a	64 a1 00 00 00
	00		 mov	 eax, DWORD PTR fs:0
  00010	50		 push	 eax
  00011	81 ec 58 01 00
	00		 sub	 esp, 344		; 00000158H
  00017	a1 00 00 00 00	 mov	 eax, DWORD PTR ___security_cookie
  0001c	33 c5		 xor	 eax, ebp
  0001e	89 45 f0	 mov	 DWORD PTR __$ArrayPad$[ebp], eax
  00021	53		 push	 ebx
  00022	56		 push	 esi
  00023	57		 push	 edi
  00024	50		 push	 eax
  00025	8d 45 f4	 lea	 eax, DWORD PTR __$EHRec$[ebp]
  00028	64 a3 00 00 00
	00		 mov	 DWORD PTR fs:0, eax
  0002e	8b f9		 mov	 edi, ecx
  00030	8b 5d 08	 mov	 ebx, DWORD PTR ___$ReturnUdt$[ebp]
  00033	89 9d a8 fe ff
	ff		 mov	 DWORD PTR ___$ReturnUdt$GSCopy$[ebp], ebx

; 222  : 	if(!m_bSet) 

  00039	80 7f 04 00	 cmp	 BYTE PTR [edi+4], 0
  0003d	c7 45 fc 00 00
	00 00		 mov	 DWORD PTR __$EHRec$[ebp+8], 0
  00044	75 12		 jne	 SHORT $LN4@fnStructTy

; 223  : 		return "";

  00046	68 00 00 00 00	 push	 OFFSET ??_C@_00CNPNBAHC@@
  0004b	8b cb		 mov	 ecx, ebx
  0004d	ff 15 00 00 00
	00		 call	 DWORD PTR __imp_??0?$CStringT@DV?$StrTraitMFC_DLL@DV?$ChTraitsCRT@D@ATL@@@@@ATL@@QAE@PBD@Z
  00053	e9 01 0c 00 00	 jmp	 $LN125@fnStructTy
$LN4@fnStructTy:

; 224  : 	CString szDS, szFS, szCOL;

  00058	8d 8d ac fe ff
	ff		 lea	 ecx, DWORD PTR _szDS$[ebp]
  0005e	ff 15 00 00 00
	00		 call	 DWORD PTR __imp_??0?$CStringT@DV?$StrTraitMFC_DLL@DV?$ChTraitsCRT@D@ATL@@@@@ATL@@QAE@XZ
  00064	8d 8d bc fe ff
	ff		 lea	 ecx, DWORD PTR _szFS$[ebp]
  0006a	ff 15 00 00 00
	00		 call	 DWORD PTR __imp_??0?$CStringT@DV?$StrTraitMFC_DLL@DV?$ChTraitsCRT@D@ATL@@@@@ATL@@QAE@XZ
  00070	8d 8d b0 fe ff
	ff		 lea	 ecx, DWORD PTR _szCOL$[ebp]
  00076	ff 15 00 00 00
	00		 call	 DWORD PTR __imp_??0?$CStringT@DV?$StrTraitMFC_DLL@DV?$ChTraitsCRT@D@ATL@@@@@ATL@@QAE@XZ

; 225  : 	szDS = sDS;	szFS = sCELL;	szCOL = sCOL;

  0007c	6a 7f		 push	 127			; 0000007fH
  0007e	8d 8d ac fe ff
	ff		 lea	 ecx, DWORD PTR _szDS$[ebp]
  00084	c6 45 fc 03	 mov	 BYTE PTR __$EHRec$[ebp+8], 3
  00088	ff 15 00 00 00
	00		 call	 DWORD PTR __imp_??4?$CStringT@DV?$StrTraitMFC_DLL@DV?$ChTraitsCRT@D@ATL@@@@@ATL@@QAEAAV01@D@Z
  0008e	6a 09		 push	 9
  00090	8d 8d bc fe ff
	ff		 lea	 ecx, DWORD PTR _szFS$[ebp]
  00096	ff 15 00 00 00
	00		 call	 DWORD PTR __imp_??4?$CStringT@DV?$StrTraitMFC_DLL@DV?$ChTraitsCRT@D@ATL@@@@@ATL@@QAEAAV01@D@Z
  0009c	6a 0a		 push	 10			; 0000000aH
  0009e	8d 8d b0 fe ff
	ff		 lea	 ecx, DWORD PTR _szCOL$[ebp]
  000a4	ff 15 00 00 00
	00		 call	 DWORD PTR __imp_??4?$CStringT@DV?$StrTraitMFC_DLL@DV?$ChTraitsCRT@D@ATL@@@@@ATL@@QAEAAV01@D@Z

; 226  : 	CString strData, strCode, strTemp, strDate, strNow, strUnit, strTime, strImgRgb;

  000aa	8d 8d dc fe ff
	ff		 lea	 ecx, DWORD PTR _strData$[ebp]
  000b0	ff 15 00 00 00
	00		 call	 DWORD PTR __imp_??0?$CStringT@DV?$StrTraitMFC_DLL@DV?$ChTraitsCRT@D@ATL@@@@@ATL@@QAE@XZ
  000b6	8d 8d c0 fe ff
	ff		 lea	 ecx, DWORD PTR _strCode$[ebp]
  000bc	ff 15 00 00 00
	00		 call	 DWORD PTR __imp_??0?$CStringT@DV?$StrTraitMFC_DLL@DV?$ChTraitsCRT@D@ATL@@@@@ATL@@QAE@XZ
  000c2	8d 8d a8 fe ff
	ff		 lea	 ecx, DWORD PTR _strTemp$[ebp]
  000c8	ff 15 00 00 00
	00		 call	 DWORD PTR __imp_??0?$CStringT@DV?$StrTraitMFC_DLL@DV?$ChTraitsCRT@D@ATL@@@@@ATL@@QAE@XZ
  000ce	8d 8d c4 fe ff
	ff		 lea	 ecx, DWORD PTR _strDate$[ebp]
  000d4	ff 15 00 00 00
	00		 call	 DWORD PTR __imp_??0?$CStringT@DV?$StrTraitMFC_DLL@DV?$ChTraitsCRT@D@ATL@@@@@ATL@@QAE@XZ
  000da	8d 8d 9c fe ff
	ff		 lea	 ecx, DWORD PTR _strNow$[ebp]
  000e0	ff 15 00 00 00
	00		 call	 DWORD PTR __imp_??0?$CStringT@DV?$StrTraitMFC_DLL@DV?$ChTraitsCRT@D@ATL@@@@@ATL@@QAE@XZ
  000e6	8d 8d b4 fe ff
	ff		 lea	 ecx, DWORD PTR _strUnit$[ebp]
  000ec	ff 15 00 00 00
	00		 call	 DWORD PTR __imp_??0?$CStringT@DV?$StrTraitMFC_DLL@DV?$ChTraitsCRT@D@ATL@@@@@ATL@@QAE@XZ
  000f2	8d 8d a0 fe ff
	ff		 lea	 ecx, DWORD PTR _strTime$[ebp]
  000f8	ff 15 00 00 00
	00		 call	 DWORD PTR __imp_??0?$CStringT@DV?$StrTraitMFC_DLL@DV?$ChTraitsCRT@D@ATL@@@@@ATL@@QAE@XZ
  000fe	8d 8d a4 fe ff
	ff		 lea	 ecx, DWORD PTR _strImgRgb$[ebp]
  00104	ff 15 00 00 00
	00		 call	 DWORD PTR __imp_??0?$CStringT@DV?$StrTraitMFC_DLL@DV?$ChTraitsCRT@D@ATL@@@@@ATL@@QAE@XZ

; 227  : 	CString stNextKey, stNextData;

  0010a	8d 8d cc fe ff
	ff		 lea	 ecx, DWORD PTR _stNextKey$[ebp]
  00110	ff 15 00 00 00
	00		 call	 DWORD PTR __imp_??0?$CStringT@DV?$StrTraitMFC_DLL@DV?$ChTraitsCRT@D@ATL@@@@@ATL@@QAE@XZ
  00116	8d 8d d4 fe ff
	ff		 lea	 ecx, DWORD PTR _stNextData$[ebp]
  0011c	ff 15 00 00 00
	00		 call	 DWORD PTR __imp_??0?$CStringT@DV?$StrTraitMFC_DLL@DV?$ChTraitsCRT@D@ATL@@@@@ATL@@QAE@XZ

; 228  : 	int  nCount, nUnit, nType, nFlag, nMarketType;
; 229  : 	double dUSDollar=1;
; 230  : 	
; 231  : 	strCode	= CDataConverter::Char2String(m_InData.shcode, sizeof(m_InData.shcode));

  00122	6a 08		 push	 8
  00124	8d 47 0e	 lea	 eax, DWORD PTR [edi+14]
  00127	c6 45 fc 0d	 mov	 BYTE PTR __$EHRec$[ebp+8], 13 ; 0000000dH
  0012b	50		 push	 eax
  0012c	8d 85 c8 fe ff
	ff		 lea	 eax, DWORD PTR $T3[ebp]
  00132	50		 push	 eax
  00133	e8 00 00 00 00	 call	 ?Char2String@CDataConverter@@SA?AV?$CStringT@DV?$StrTraitMFC_DLL@DV?$ChTraitsCRT@D@ATL@@@@@ATL@@PADH@Z ; CDataConverter::Char2String
  00138	83 c4 0c	 add	 esp, 12			; 0000000cH
  0013b	50		 push	 eax
  0013c	8d 8d c0 fe ff
	ff		 lea	 ecx, DWORD PTR _strCode$[ebp]
  00142	c6 45 fc 0e	 mov	 BYTE PTR __$EHRec$[ebp+8], 14 ; 0000000eH
  00146	ff 15 00 00 00
	00		 call	 DWORD PTR __imp_??4?$CStringT@DV?$StrTraitMFC_DLL@DV?$ChTraitsCRT@D@ATL@@@@@ATL@@QAEAAV01@ABV01@@Z
  0014c	8d 8d c8 fe ff
	ff		 lea	 ecx, DWORD PTR $T3[ebp]
  00152	c6 45 fc 0d	 mov	 BYTE PTR __$EHRec$[ebp+8], 13 ; 0000000dH
  00156	ff 15 00 00 00
	00		 call	 DWORD PTR __imp_??1?$CStringT@DV?$StrTraitMFC_DLL@DV?$ChTraitsCRT@D@ATL@@@@@ATL@@QAE@XZ

; 232  : 	strDate	= CDataConverter::Char2String(m_InData.edate, sizeof(m_InData.edate));

  0015c	6a 08		 push	 8
  0015e	8d 47 16	 lea	 eax, DWORD PTR [edi+22]
  00161	50		 push	 eax
  00162	8d 85 c8 fe ff
	ff		 lea	 eax, DWORD PTR $T2[ebp]
  00168	50		 push	 eax
  00169	e8 00 00 00 00	 call	 ?Char2String@CDataConverter@@SA?AV?$CStringT@DV?$StrTraitMFC_DLL@DV?$ChTraitsCRT@D@ATL@@@@@ATL@@PADH@Z ; CDataConverter::Char2String
  0016e	83 c4 0c	 add	 esp, 12			; 0000000cH
  00171	50		 push	 eax
  00172	8d 8d c4 fe ff
	ff		 lea	 ecx, DWORD PTR _strDate$[ebp]
  00178	c6 45 fc 0f	 mov	 BYTE PTR __$EHRec$[ebp+8], 15 ; 0000000fH
  0017c	ff 15 00 00 00
	00		 call	 DWORD PTR __imp_??4?$CStringT@DV?$StrTraitMFC_DLL@DV?$ChTraitsCRT@D@ATL@@@@@ATL@@QAEAAV01@ABV01@@Z
  00182	8d 8d c8 fe ff
	ff		 lea	 ecx, DWORD PTR $T2[ebp]
  00188	c6 45 fc 0d	 mov	 BYTE PTR __$EHRec$[ebp+8], 13 ; 0000000dH
  0018c	ff 15 00 00 00
	00		 call	 DWORD PTR __imp_??1?$CStringT@DV?$StrTraitMFC_DLL@DV?$ChTraitsCRT@D@ATL@@@@@ATL@@QAE@XZ

; 233  : //	strNow	= CDataConverter::Char2String(m_InData.nowData, sizeof(m_InData.nowData));
; 234  : //	strTime	= CDataConverter::Char2String(m_InData.Itime, sizeof(m_InData.Itime));
; 235  : 	nCount	= CDataConverter::Char2Int(m_InData.num, sizeof(m_InData.num));

  00192	6a 04		 push	 4
  00194	8d 47 1e	 lea	 eax, DWORD PTR [edi+30]
  00197	50		 push	 eax
  00198	e8 00 00 00 00	 call	 ?Char2Int@CDataConverter@@SAHPADH@Z ; CDataConverter::Char2Int

; 236  : 	nUnit	= CDataConverter::Char2Int(m_InData.unit, sizeof(m_InData.unit));

  0019d	8d 8f dc 00 00
	00		 lea	 ecx, DWORD PTR [edi+220]
  001a3	89 85 c8 fe ff
	ff		 mov	 DWORD PTR _nCount$1$[ebp], eax
  001a9	6a 03		 push	 3
  001ab	51		 push	 ecx
  001ac	e8 00 00 00 00	 call	 ?Char2Int@CDataConverter@@SAHPADH@Z ; CDataConverter::Char2Int

; 237  : 	nType	= CDataConverter::Char2Int(m_InData.button, sizeof(m_InData.button));	// (0)/(1)/(2)/(3)/(4)

  001b1	8d 8f df 00 00
	00		 lea	 ecx, DWORD PTR [edi+223]
  001b7	8b f0		 mov	 esi, eax
  001b9	6a 01		 push	 1
  001bb	51		 push	 ecx
  001bc	e8 00 00 00 00	 call	 ?Char2Int@CDataConverter@@SAHPADH@Z ; CDataConverter::Char2Int

; 238  : //	strImgRgb = CDataConverter::Char2String(m_InData.ImgRgb, sizeof(m_InData.ImgRgb));
; 239  : 	nFlag     = CDataConverter::Char2Int(m_InData.nxtGb, sizeof(m_InData.nxtGb));	// 0:

  001c1	8d 8f 87 00 00
	00		 lea	 ecx, DWORD PTR [edi+135]
  001c7	6a 01		 push	 1
  001c9	51		 push	 ecx
  001ca	e8 00 00 00 00	 call	 ?Char2Int@CDataConverter@@SAHPADH@Z ; CDataConverter::Char2Int

; 240  : 	nMarketType  = CDataConverter::Char2Int(m_InData.type, sizeof(m_InData.type));	// 

  001cf	8d 4f 0d	 lea	 ecx, DWORD PTR [edi+13]
  001d2	89 85 b8 fe ff
	ff		 mov	 DWORD PTR _nFlag$1$[ebp], eax
  001d8	6a 01		 push	 1
  001da	51		 push	 ecx
  001db	e8 00 00 00 00	 call	 ?Char2Int@CDataConverter@@SAHPADH@Z ; CDataConverter::Char2Int

; 241  : 
; 242  : 	strUnit.Format(_T("%d"), nUnit);

  001e0	56		 push	 esi
  001e1	8b 35 00 00 00
	00		 mov	 esi, DWORD PTR __imp_?Format@?$CStringT@DV?$StrTraitMFC_DLL@DV?$ChTraitsCRT@D@ATL@@@@@ATL@@QAAXPBDZZ
  001e7	89 85 d0 fe ff
	ff		 mov	 DWORD PTR _nMarketType$1$[ebp], eax
  001ed	8d 85 b4 fe ff
	ff		 lea	 eax, DWORD PTR _strUnit$[ebp]
  001f3	68 00 00 00 00	 push	 OFFSET ??_C@_02DPKJAMEF@?$CFd@
  001f8	50		 push	 eax
  001f9	ff d6		 call	 esi

; 243  : 
; 244  : 	//////////////////////////////////////////////////////////////////////////
; 245  : 	//	Inbound Data
; 246  : 	
; 247  : 	//	 Input 
; 248  : 	if (nMarketType == 0)

  001fb	8b 85 d0 fe ff
	ff		 mov	 eax, DWORD PTR _nMarketType$1$[ebp]
  00201	83 c4 34	 add	 esp, 52			; 00000034H
  00204	85 c0		 test	 eax, eax
  00206	0f 85 8c 01 00
	00		 jne	 $LN5@fnStructTy

; 249  : 	{
; 250  : 		_dataH	Datah;
; 251  : 		FillMemory(&Datah, sz_DATAH, 0x20);

  0020c	68 88 00 00 00	 push	 136			; 00000088H
  00211	8d 85 e0 fe ff
	ff		 lea	 eax, DWORD PTR _Datah$9[ebp]
  00217	6a 20		 push	 32			; 00000020H
  00219	50		 push	 eax
  0021a	e8 00 00 00 00	 call	 _memset
  0021f	83 c4 0c	 add	 esp, 12			; 0000000cH

; 252  : 		strData += "1301";	strData += sDS;	strData += strCode;	strData += sCELL;//KHD sFS;

  00222	8d 8d dc fe ff
	ff		 lea	 ecx, DWORD PTR _strData$[ebp]
  00228	68 00 00 00 00	 push	 OFFSET ??_C@_04KFDECMLJ@1301@
  0022d	ff 15 00 00 00
	00		 call	 DWORD PTR __imp_??Y?$CStringT@DV?$StrTraitMFC_DLL@DV?$ChTraitsCRT@D@ATL@@@@@ATL@@QAEAAV01@PBD@Z
  00233	6a 7f		 push	 127			; 0000007fH
  00235	8d 8d dc fe ff
	ff		 lea	 ecx, DWORD PTR _strData$[ebp]
  0023b	ff 15 00 00 00
	00		 call	 DWORD PTR __imp_??Y?$CStringT@DV?$StrTraitMFC_DLL@DV?$ChTraitsCRT@D@ATL@@@@@ATL@@QAEAAV01@D@Z
  00241	8d 85 c0 fe ff
	ff		 lea	 eax, DWORD PTR _strCode$[ebp]
  00247	50		 push	 eax
  00248	8d 8d dc fe ff
	ff		 lea	 ecx, DWORD PTR _strData$[ebp]
  0024e	ff 15 00 00 00
	00		 call	 DWORD PTR __imp_??Y?$CStringT@DV?$StrTraitMFC_DLL@DV?$ChTraitsCRT@D@ATL@@@@@ATL@@QAEAAV01@ABV?$CSimpleStringT@D$00@1@@Z
  00254	6a 09		 push	 9
  00256	8d 8d dc fe ff
	ff		 lea	 ecx, DWORD PTR _strData$[ebp]
  0025c	ff 15 00 00 00
	00		 call	 DWORD PTR __imp_??Y?$CStringT@DV?$StrTraitMFC_DLL@DV?$ChTraitsCRT@D@ATL@@@@@ATL@@QAEAAV01@D@Z

; 253  : 		CString stRowData;

  00262	8d 8d d0 fe ff
	ff		 lea	 ecx, DWORD PTR _stRowData$5[ebp]
  00268	ff 15 00 00 00
	00		 call	 DWORD PTR __imp_??0?$CStringT@DV?$StrTraitMFC_DLL@DV?$ChTraitsCRT@D@ATL@@@@@ATL@@QAE@XZ

; 254  : 		
; 255  : 		Datah.dindex = GI_DAY;
; 256  : 		nUnit = 1;
; 257  : 		stRowData = _T("?5500");

  0026e	68 00 00 00 00	 push	 OFFSET ??_C@_05OOAIAHCC@?$DP5500@
  00273	8d 8d d0 fe ff
	ff		 lea	 ecx, DWORD PTR _stRowData$5[ebp]
  00279	c6 45 fc 10	 mov	 BYTE PTR __$EHRec$[ebp+8], 16 ; 00000010H
  0027d	c6 85 f7 fe ff
	ff 01		 mov	 BYTE PTR _Datah$9[ebp+23], 1
  00284	ff 15 00 00 00
	00		 call	 DWORD PTR __imp_??4?$CStringT@DV?$StrTraitMFC_DLL@DV?$ChTraitsCRT@D@ATL@@@@@ATL@@QAEAAV01@PBD@Z
  0028a	81 c7 88 00 00
	00		 add	 edi, 136		; 00000088H

; 258  : 		
; 259  : 		//NEXTKEY : KHD
; 260  : 		if (nFlag == 0)

  00290	83 bd b8 fe ff
	ff 00		 cmp	 DWORD PTR _nFlag$1$[ebp], 0
  00297	75 24		 jne	 SHORT $LN121@fnStructTy

; 261  : 		{
; 262  : 			stNextData = "99999999999999";

  00299	68 00 00 00 00	 push	 OFFSET ??_C@_0P@FLGGHACJ@99999999999999@
  0029e	8d 8d d4 fe ff
	ff		 lea	 ecx, DWORD PTR _stNextData$[ebp]
  002a4	ff 15 00 00 00
	00		 call	 DWORD PTR __imp_??4?$CStringT@DV?$StrTraitMFC_DLL@DV?$ChTraitsCRT@D@ATL@@@@@ATL@@QAEAAV01@PBD@Z
; File C:\Program Files (x86)\Microsoft Visual Studio\2019\Community\VC\Tools\MSVC\14.29.30133\atlmfc\include\atlsimpstr.h

; 519  : 		return( GetData()->nDataLength );

  002aa	8b 85 d4 fe ff
	ff		 mov	 eax, DWORD PTR _stNextData$[ebp]
; File D:\git\src\IBK\IBK_DRFN\ProjSrc\SrcDrfn\DrCommon\PartnerMng\ChartItemMarket.cpp

; 263  : 			memcpy(m_InData.nxtKey, (LPCSTR)(LPCTSTR)stNextData,stNextData.GetLength());

  002b0	ff 70 f4	 push	 DWORD PTR [eax-12]
  002b3	50		 push	 eax
  002b4	57		 push	 edi
  002b5	e8 00 00 00 00	 call	 _memcpy
  002ba	83 c4 0c	 add	 esp, 12			; 0000000cH
$LN121@fnStructTy:

; 264  : 		}
; 265  : 		
; 266  : 		stNextKey = "5324";

  002bd	68 00 00 00 00	 push	 OFFSET ??_C@_04COEHKKFC@5324@
  002c2	8d 8d cc fe ff
	ff		 lea	 ecx, DWORD PTR _stNextKey$[ebp]
  002c8	ff 15 00 00 00
	00		 call	 DWORD PTR __imp_??4?$CStringT@DV?$StrTraitMFC_DLL@DV?$ChTraitsCRT@D@ATL@@@@@ATL@@QAEAAV01@PBD@Z

; 267  : 		stNextData.Format("%8.8s",m_InData.nxtKey );

  002ce	57		 push	 edi
  002cf	8d 85 d4 fe ff
	ff		 lea	 eax, DWORD PTR _stNextData$[ebp]
  002d5	68 00 00 00 00	 push	 OFFSET ??_C@_05OGIKHPIO@?$CF8?48s@
  002da	50		 push	 eax
  002db	ff d6		 call	 esi
  002dd	83 c4 0c	 add	 esp, 12			; 0000000cH

; 268  : 		strData += stNextKey; strData += sDS;	strData += stNextData;	strData += sCELL; //   : KHD 

  002e0	8d 85 cc fe ff
	ff		 lea	 eax, DWORD PTR _stNextKey$[ebp]
  002e6	8d 8d dc fe ff
	ff		 lea	 ecx, DWORD PTR _strData$[ebp]
  002ec	50		 push	 eax
  002ed	ff 15 00 00 00
	00		 call	 DWORD PTR __imp_??Y?$CStringT@DV?$StrTraitMFC_DLL@DV?$ChTraitsCRT@D@ATL@@@@@ATL@@QAEAAV01@ABV?$CSimpleStringT@D$00@1@@Z
  002f3	6a 7f		 push	 127			; 0000007fH
  002f5	8d 8d dc fe ff
	ff		 lea	 ecx, DWORD PTR _strData$[ebp]
  002fb	ff 15 00 00 00
	00		 call	 DWORD PTR __imp_??Y?$CStringT@DV?$StrTraitMFC_DLL@DV?$ChTraitsCRT@D@ATL@@@@@ATL@@QAEAAV01@D@Z
  00301	8d 85 d4 fe ff
	ff		 lea	 eax, DWORD PTR _stNextData$[ebp]
  00307	50		 push	 eax
  00308	8d 8d dc fe ff
	ff		 lea	 ecx, DWORD PTR _strData$[ebp]
  0030e	ff 15 00 00 00
	00		 call	 DWORD PTR __imp_??Y?$CStringT@DV?$StrTraitMFC_DLL@DV?$ChTraitsCRT@D@ATL@@@@@ATL@@QAEAAV01@ABV?$CSimpleStringT@D$00@1@@Z
  00314	6a 09		 push	 9
  00316	8d 8d dc fe ff
	ff		 lea	 ecx, DWORD PTR _strData$[ebp]
  0031c	ff 15 00 00 00
	00		 call	 DWORD PTR __imp_??Y?$CStringT@DV?$StrTraitMFC_DLL@DV?$ChTraitsCRT@D@ATL@@@@@ATL@@QAEAAV01@D@Z

; 269  : 		
; 270  : 		//////////////////////////////////////////////////////////////////////////
; 271  : 		//	OutBound Data
; 272  : 		strData += "1301";

  00322	68 00 00 00 00	 push	 OFFSET ??_C@_04KFDECMLJ@1301@
  00327	8d 8d dc fe ff
	ff		 lea	 ecx, DWORD PTR _strData$[ebp]
  0032d	ff 15 00 00 00
	00		 call	 DWORD PTR __imp_??Y?$CStringT@DV?$StrTraitMFC_DLL@DV?$ChTraitsCRT@D@ATL@@@@@ATL@@QAEAAV01@PBD@Z

; 273  : 		strData += sCELL;//KHD sFS;

  00333	6a 09		 push	 9
  00335	8d 8d dc fe ff
	ff		 lea	 ecx, DWORD PTR _strData$[ebp]
  0033b	ff 15 00 00 00
	00		 call	 DWORD PTR __imp_??Y?$CStringT@DV?$StrTraitMFC_DLL@DV?$ChTraitsCRT@D@ATL@@@@@ATL@@QAEAAV01@D@Z

; 274  : 		
; 275  : 		strData += stNextKey;

  00341	8d 85 cc fe ff
	ff		 lea	 eax, DWORD PTR _stNextKey$[ebp]
  00347	50		 push	 eax
  00348	8d 8d dc fe ff
	ff		 lea	 ecx, DWORD PTR _strData$[ebp]
  0034e	ff 15 00 00 00
	00		 call	 DWORD PTR __imp_??Y?$CStringT@DV?$StrTraitMFC_DLL@DV?$ChTraitsCRT@D@ATL@@@@@ATL@@QAEAAV01@ABV?$CSimpleStringT@D$00@1@@Z

; 276  : 		strData += sCELL;

  00354	6a 09		 push	 9
  00356	8d 8d dc fe ff
	ff		 lea	 ecx, DWORD PTR _strData$[ebp]
  0035c	ff 15 00 00 00
	00		 call	 DWORD PTR __imp_??Y?$CStringT@DV?$StrTraitMFC_DLL@DV?$ChTraitsCRT@D@ATL@@@@@ATL@@QAEAAV01@D@Z

; 277  : 		
; 278  : 		// Row Data 
; 279  : 		strData += stRowData;

  00362	8d 85 d0 fe ff
	ff		 lea	 eax, DWORD PTR _stRowData$5[ebp]
  00368	50		 push	 eax
  00369	8d 8d dc fe ff
	ff		 lea	 ecx, DWORD PTR _strData$[ebp]
  0036f	ff 15 00 00 00
	00		 call	 DWORD PTR __imp_??Y?$CStringT@DV?$StrTraitMFC_DLL@DV?$ChTraitsCRT@D@ATL@@@@@ATL@@QAEAAV01@ABV?$CSimpleStringT@D$00@1@@Z

; 280  : 		strData += sDS;

  00375	6a 7f		 push	 127			; 0000007fH
  00377	8d 8d dc fe ff
	ff		 lea	 ecx, DWORD PTR _strData$[ebp]
  0037d	ff 15 00 00 00
	00		 call	 DWORD PTR __imp_??Y?$CStringT@DV?$StrTraitMFC_DLL@DV?$ChTraitsCRT@D@ATL@@@@@ATL@@QAEAAV01@D@Z

; 281  : 		
; 282  : 		CString temp;

  00383	8d 8d d8 fe ff
	ff		 lea	 ecx, DWORD PTR _temp$7[ebp]
  00389	ff 15 00 00 00
	00		 call	 DWORD PTR __imp_??0?$CStringT@DV?$StrTraitMFC_DLL@DV?$ChTraitsCRT@D@ATL@@@@@ATL@@QAE@XZ
  0038f	c6 45 fc 11	 mov	 BYTE PTR __$EHRec$[ebp+8], 17 ; 00000011H

; 283  : 		//  
; 284  : 		int GrpHLen = 0;
; 285  : 		temp.Format("%06d", nCount);
; 286  : 		CopyMemory(Datah.count, temp, temp.GetLength());
; 287  : 		Datah.dkey = 0 + 0x30;
; 288  : 		
; 289  : 		CopyMemory(Datah.pday, strDate, strDate.GetLength());
; 290  : 		
; 291  : 		temp.Format("%0*d", sizeof(Datah.lgap), nUnit);// N 
; 292  : 		CopyMemory(Datah.lgap, temp, temp.GetLength() );
; 293  : 		
; 294  : 		char szData_i[sz_DATAH];
; 295  : 		memset(szData_i, 0x20, sz_DATAH);//sizeof(Datah));
; 296  : 		CopyMemory(szData_i, (char*)&Datah, sz_DATAH);//sizeof(Datah));
; 297  : 		szData_i[sz_DATAH-1] = 0x00; // KHD :  0x00  .
; 298  : 		strData += szData_i;
; 299  : 	}

  00393	e9 90 01 00 00	 jmp	 $LN127@fnStructTy
$LN5@fnStructTy:

; 300  : 	else if (nMarketType == 1)

  00398	83 f8 01	 cmp	 eax, 1
  0039b	0f 85 3b 02 00
	00		 jne	 $LN8@fnStructTy

; 301  : 	{
; 302  : 		_dataH	Datah;
; 303  : 		FillMemory(&Datah, sz_DATAH, 0x20);

  003a1	68 88 00 00 00	 push	 136			; 00000088H
  003a6	8d 85 e0 fe ff
	ff		 lea	 eax, DWORD PTR _Datah$8[ebp]
  003ac	6a 20		 push	 32			; 00000020H
  003ae	50		 push	 eax
  003af	e8 00 00 00 00	 call	 _memset
  003b4	83 c4 0c	 add	 esp, 12			; 0000000cH

; 304  : 		strData += "21301";	strData += sDS;	strData += strCode;	strData += sCELL;//KHD sFS;

  003b7	8d 8d dc fe ff
	ff		 lea	 ecx, DWORD PTR _strData$[ebp]
  003bd	68 00 00 00 00	 push	 OFFSET ??_C@_05JLGGNMKB@21301@
  003c2	ff 15 00 00 00
	00		 call	 DWORD PTR __imp_??Y?$CStringT@DV?$StrTraitMFC_DLL@DV?$ChTraitsCRT@D@ATL@@@@@ATL@@QAEAAV01@PBD@Z
  003c8	6a 7f		 push	 127			; 0000007fH
  003ca	8d 8d dc fe ff
	ff		 lea	 ecx, DWORD PTR _strData$[ebp]
  003d0	ff 15 00 00 00
	00		 call	 DWORD PTR __imp_??Y?$CStringT@DV?$StrTraitMFC_DLL@DV?$ChTraitsCRT@D@ATL@@@@@ATL@@QAEAAV01@D@Z
  003d6	8d 85 c0 fe ff
	ff		 lea	 eax, DWORD PTR _strCode$[ebp]
  003dc	50		 push	 eax
  003dd	8d 8d dc fe ff
	ff		 lea	 ecx, DWORD PTR _strData$[ebp]
  003e3	ff 15 00 00 00
	00		 call	 DWORD PTR __imp_??Y?$CStringT@DV?$StrTraitMFC_DLL@DV?$ChTraitsCRT@D@ATL@@@@@ATL@@QAEAAV01@ABV?$CSimpleStringT@D$00@1@@Z
  003e9	6a 09		 push	 9
  003eb	8d 8d dc fe ff
	ff		 lea	 ecx, DWORD PTR _strData$[ebp]
  003f1	ff 15 00 00 00
	00		 call	 DWORD PTR __imp_??Y?$CStringT@DV?$StrTraitMFC_DLL@DV?$ChTraitsCRT@D@ATL@@@@@ATL@@QAEAAV01@D@Z

; 305  : 		CString stRowData;

  003f7	8d 8d d0 fe ff
	ff		 lea	 ecx, DWORD PTR _stRowData$4[ebp]
  003fd	ff 15 00 00 00
	00		 call	 DWORD PTR __imp_??0?$CStringT@DV?$StrTraitMFC_DLL@DV?$ChTraitsCRT@D@ATL@@@@@ATL@@QAE@XZ

; 306  : 		
; 307  : 		Datah.dindex = GI_DAY;
; 308  : 		nUnit = 1;
; 309  : 		stRowData = _T("?25500");

  00403	68 00 00 00 00	 push	 OFFSET ??_C@_06CABDLPJK@?$DP25500@
  00408	8d 8d d0 fe ff
	ff		 lea	 ecx, DWORD PTR _stRowData$4[ebp]
  0040e	c6 45 fc 12	 mov	 BYTE PTR __$EHRec$[ebp+8], 18 ; 00000012H
  00412	c6 85 f7 fe ff
	ff 01		 mov	 BYTE PTR _Datah$8[ebp+23], 1
  00419	ff 15 00 00 00
	00		 call	 DWORD PTR __imp_??4?$CStringT@DV?$StrTraitMFC_DLL@DV?$ChTraitsCRT@D@ATL@@@@@ATL@@QAEAAV01@PBD@Z
  0041f	81 c7 88 00 00
	00		 add	 edi, 136		; 00000088H

; 310  : 		
; 311  : 		//NEXTKEY : KHD
; 312  : 		if (nFlag == 0)

  00425	83 bd b8 fe ff
	ff 00		 cmp	 DWORD PTR _nFlag$1$[ebp], 0
  0042c	75 24		 jne	 SHORT $LN122@fnStructTy

; 313  : 		{
; 314  : 			stNextData = "99999999999999";

  0042e	68 00 00 00 00	 push	 OFFSET ??_C@_0P@FLGGHACJ@99999999999999@
  00433	8d 8d d4 fe ff
	ff		 lea	 ecx, DWORD PTR _stNextData$[ebp]
  00439	ff 15 00 00 00
	00		 call	 DWORD PTR __imp_??4?$CStringT@DV?$StrTraitMFC_DLL@DV?$ChTraitsCRT@D@ATL@@@@@ATL@@QAEAAV01@PBD@Z
; File C:\Program Files (x86)\Microsoft Visual Studio\2019\Community\VC\Tools\MSVC\14.29.30133\atlmfc\include\atlsimpstr.h

; 519  : 		return( GetData()->nDataLength );

  0043f	8b 85 d4 fe ff
	ff		 mov	 eax, DWORD PTR _stNextData$[ebp]
; File D:\git\src\IBK\IBK_DRFN\ProjSrc\SrcDrfn\DrCommon\PartnerMng\ChartItemMarket.cpp

; 315  : 			memcpy(m_InData.nxtKey, (LPCSTR)(LPCTSTR)stNextData,stNextData.GetLength());

  00445	ff 70 f4	 push	 DWORD PTR [eax-12]
  00448	50		 push	 eax
  00449	57		 push	 edi
  0044a	e8 00 00 00 00	 call	 _memcpy
  0044f	83 c4 0c	 add	 esp, 12			; 0000000cH
$LN122@fnStructTy:

; 316  : 		}
; 317  : 		
; 318  : 		stNextKey = "25324";

  00452	68 00 00 00 00	 push	 OFFSET ??_C@_05BABFFKEK@25324@
  00457	8d 8d cc fe ff
	ff		 lea	 ecx, DWORD PTR _stNextKey$[ebp]
  0045d	ff 15 00 00 00
	00		 call	 DWORD PTR __imp_??4?$CStringT@DV?$StrTraitMFC_DLL@DV?$ChTraitsCRT@D@ATL@@@@@ATL@@QAEAAV01@PBD@Z

; 319  : 		stNextData.Format("%8.8s",m_InData.nxtKey );

  00463	57		 push	 edi
  00464	8d 85 d4 fe ff
	ff		 lea	 eax, DWORD PTR _stNextData$[ebp]
  0046a	68 00 00 00 00	 push	 OFFSET ??_C@_05OGIKHPIO@?$CF8?48s@
  0046f	50		 push	 eax
  00470	ff d6		 call	 esi
  00472	83 c4 0c	 add	 esp, 12			; 0000000cH

; 320  : 		strData += stNextKey; strData += sDS;	strData += stNextData;	strData += sCELL; //   : KHD 

  00475	8d 85 cc fe ff
	ff		 lea	 eax, DWORD PTR _stNextKey$[ebp]
  0047b	8d 8d dc fe ff
	ff		 lea	 ecx, DWORD PTR _strData$[ebp]
  00481	50		 push	 eax
  00482	ff 15 00 00 00
	00		 call	 DWORD PTR __imp_??Y?$CStringT@DV?$StrTraitMFC_DLL@DV?$ChTraitsCRT@D@ATL@@@@@ATL@@QAEAAV01@ABV?$CSimpleStringT@D$00@1@@Z
  00488	6a 7f		 push	 127			; 0000007fH
  0048a	8d 8d dc fe ff
	ff		 lea	 ecx, DWORD PTR _strData$[ebp]
  00490	ff 15 00 00 00
	00		 call	 DWORD PTR __imp_??Y?$CStringT@DV?$StrTraitMFC_DLL@DV?$ChTraitsCRT@D@ATL@@@@@ATL@@QAEAAV01@D@Z
  00496	8d 85 d4 fe ff
	ff		 lea	 eax, DWORD PTR _stNextData$[ebp]
  0049c	50		 push	 eax
  0049d	8d 8d dc fe ff
	ff		 lea	 ecx, DWORD PTR _strData$[ebp]
  004a3	ff 15 00 00 00
	00		 call	 DWORD PTR __imp_??Y?$CStringT@DV?$StrTraitMFC_DLL@DV?$ChTraitsCRT@D@ATL@@@@@ATL@@QAEAAV01@ABV?$CSimpleStringT@D$00@1@@Z
  004a9	6a 09		 push	 9
  004ab	8d 8d dc fe ff
	ff		 lea	 ecx, DWORD PTR _strData$[ebp]
  004b1	ff 15 00 00 00
	00		 call	 DWORD PTR __imp_??Y?$CStringT@DV?$StrTraitMFC_DLL@DV?$ChTraitsCRT@D@ATL@@@@@ATL@@QAEAAV01@D@Z

; 321  : 		
; 322  : 		//////////////////////////////////////////////////////////////////////////
; 323  : 		//	OutBound Data
; 324  : 		strData += "21301";

  004b7	68 00 00 00 00	 push	 OFFSET ??_C@_05JLGGNMKB@21301@
  004bc	8d 8d dc fe ff
	ff		 lea	 ecx, DWORD PTR _strData$[ebp]
  004c2	ff 15 00 00 00
	00		 call	 DWORD PTR __imp_??Y?$CStringT@DV?$StrTraitMFC_DLL@DV?$ChTraitsCRT@D@ATL@@@@@ATL@@QAEAAV01@PBD@Z

; 325  : 		strData += sCELL;//KHD sFS;

  004c8	6a 09		 push	 9
  004ca	8d 8d dc fe ff
	ff		 lea	 ecx, DWORD PTR _strData$[ebp]
  004d0	ff 15 00 00 00
	00		 call	 DWORD PTR __imp_??Y?$CStringT@DV?$StrTraitMFC_DLL@DV?$ChTraitsCRT@D@ATL@@@@@ATL@@QAEAAV01@D@Z

; 326  : 		
; 327  : 		strData += stNextKey;

  004d6	8d 85 cc fe ff
	ff		 lea	 eax, DWORD PTR _stNextKey$[ebp]
  004dc	50		 push	 eax
  004dd	8d 8d dc fe ff
	ff		 lea	 ecx, DWORD PTR _strData$[ebp]
  004e3	ff 15 00 00 00
	00		 call	 DWORD PTR __imp_??Y?$CStringT@DV?$StrTraitMFC_DLL@DV?$ChTraitsCRT@D@ATL@@@@@ATL@@QAEAAV01@ABV?$CSimpleStringT@D$00@1@@Z

; 328  : 		strData += sCELL;

  004e9	6a 09		 push	 9
  004eb	8d 8d dc fe ff
	ff		 lea	 ecx, DWORD PTR _strData$[ebp]
  004f1	ff 15 00 00 00
	00		 call	 DWORD PTR __imp_??Y?$CStringT@DV?$StrTraitMFC_DLL@DV?$ChTraitsCRT@D@ATL@@@@@ATL@@QAEAAV01@D@Z

; 329  : 		
; 330  : 		// Row Data 
; 331  : 		strData += stRowData;

  004f7	8d 85 d0 fe ff
	ff		 lea	 eax, DWORD PTR _stRowData$4[ebp]
  004fd	50		 push	 eax
  004fe	8d 8d dc fe ff
	ff		 lea	 ecx, DWORD PTR _strData$[ebp]
  00504	ff 15 00 00 00
	00		 call	 DWORD PTR __imp_??Y?$CStringT@DV?$StrTraitMFC_DLL@DV?$ChTraitsCRT@D@ATL@@@@@ATL@@QAEAAV01@ABV?$CSimpleStringT@D$00@1@@Z

; 332  : 		strData += sDS;

  0050a	6a 7f		 push	 127			; 0000007fH
  0050c	8d 8d dc fe ff
	ff		 lea	 ecx, DWORD PTR _strData$[ebp]
  00512	ff 15 00 00 00
	00		 call	 DWORD PTR __imp_??Y?$CStringT@DV?$StrTraitMFC_DLL@DV?$ChTraitsCRT@D@ATL@@@@@ATL@@QAEAAV01@D@Z

; 333  : 		
; 334  : 		CString temp;

  00518	8d 8d d8 fe ff
	ff		 lea	 ecx, DWORD PTR _temp$6[ebp]
  0051e	ff 15 00 00 00
	00		 call	 DWORD PTR __imp_??0?$CStringT@DV?$StrTraitMFC_DLL@DV?$ChTraitsCRT@D@ATL@@@@@ATL@@QAE@XZ
  00524	c6 45 fc 13	 mov	 BYTE PTR __$EHRec$[ebp+8], 19 ; 00000013H
$LN127@fnStructTy:

; 335  : 		//  
; 336  : 		int GrpHLen = 0;
; 337  : 		temp.Format("%06d", nCount);
; 338  : 		CopyMemory(Datah.count, temp, temp.GetLength());
; 339  : 		Datah.dkey = 0 + 0x30;
; 340  : 		
; 341  : 		CopyMemory(Datah.pday, strDate, strDate.GetLength());
; 342  : 		
; 343  : 		temp.Format("%0*d", sizeof(Datah.lgap), nUnit);// N 
; 344  : 		CopyMemory(Datah.lgap, temp, temp.GetLength() );
; 345  : 		
; 346  : 		char szData_i[sz_DATAH];
; 347  : 		memset(szData_i, 0x20, sz_DATAH);//sizeof(Datah));
; 348  : 		CopyMemory(szData_i, (char*)&Datah, sz_DATAH);//sizeof(Datah));
; 349  : 		szData_i[sz_DATAH-1] = 0x00; // KHD :  0x00  .
; 350  : 		strData += szData_i;
; 351  : 	}
; 352  : 
; 353  : 	switch (nType1)

  00528	ff b5 c8 fe ff
	ff		 push	 DWORD PTR _nCount$1$[ebp]
  0052e	8d 85 d8 fe ff
	ff		 lea	 eax, DWORD PTR _temp$6[ebp]
  00534	68 00 00 00 00	 push	 OFFSET ??_C@_04OBKAGHLG@?$CF06d@
  00539	50		 push	 eax
  0053a	ff d6		 call	 esi
  0053c	8b 85 d8 fe ff
	ff		 mov	 eax, DWORD PTR _temp$6[ebp]
  00542	ff 70 f4	 push	 DWORD PTR [eax-12]
  00545	50		 push	 eax
  00546	8d 85 e0 fe ff
	ff		 lea	 eax, DWORD PTR _Datah$8[ebp]
  0054c	50		 push	 eax
  0054d	e8 00 00 00 00	 call	 _memcpy
  00552	8b 85 c4 fe ff
	ff		 mov	 eax, DWORD PTR _strDate$[ebp]
  00558	c6 85 ed fe ff
	ff 30		 mov	 BYTE PTR _Datah$8[ebp+13], 48 ; 00000030H
  0055f	ff 70 f4	 push	 DWORD PTR [eax-12]
  00562	50		 push	 eax
  00563	8d 85 ee fe ff
	ff		 lea	 eax, DWORD PTR _Datah$8[ebp+14]
  00569	50		 push	 eax
  0056a	e8 00 00 00 00	 call	 _memcpy
  0056f	6a 01		 push	 1
  00571	6a 04		 push	 4
  00573	8d 85 d8 fe ff
	ff		 lea	 eax, DWORD PTR _temp$6[ebp]
  00579	68 00 00 00 00	 push	 OFFSET ??_C@_04PEJMDNKC@?$CF0?$CKd@
  0057e	50		 push	 eax
  0057f	ff d6		 call	 esi
  00581	8b 85 d8 fe ff
	ff		 mov	 eax, DWORD PTR _temp$6[ebp]
  00587	ff 70 f4	 push	 DWORD PTR [eax-12]
  0058a	50		 push	 eax
  0058b	8d 85 f8 fe ff
	ff		 lea	 eax, DWORD PTR _Datah$8[ebp+24]
  00591	50		 push	 eax
  00592	e8 00 00 00 00	 call	 _memcpy
  00597	8d bd 68 ff ff
	ff		 lea	 edi, DWORD PTR _szData_i$10[ebp]
  0059d	83 c4 40	 add	 esp, 64			; 00000040H
  005a0	8b c7		 mov	 eax, edi
  005a2	8d b5 e0 fe ff
	ff		 lea	 esi, DWORD PTR _Datah$8[ebp]
  005a8	b9 22 00 00 00	 mov	 ecx, 34			; 00000022H
  005ad	f3 a5		 rep movsd
  005af	50		 push	 eax
  005b0	8d 8d dc fe ff
	ff		 lea	 ecx, DWORD PTR _strData$[ebp]
  005b6	c6 45 ef 00	 mov	 BYTE PTR _szData_i$10[ebp+135], 0
  005ba	ff 15 00 00 00
	00		 call	 DWORD PTR __imp_??Y?$CStringT@DV?$StrTraitMFC_DLL@DV?$ChTraitsCRT@D@ATL@@@@@ATL@@QAEAAV01@PBD@Z
  005c0	8d 8d d8 fe ff
	ff		 lea	 ecx, DWORD PTR _temp$6[ebp]
  005c6	ff 15 00 00 00
	00		 call	 DWORD PTR __imp_??1?$CStringT@DV?$StrTraitMFC_DLL@DV?$ChTraitsCRT@D@ATL@@@@@ATL@@QAE@XZ
  005cc	8d 8d d0 fe ff
	ff		 lea	 ecx, DWORD PTR _stRowData$4[ebp]
  005d2	c6 45 fc 0d	 mov	 BYTE PTR __$EHRec$[ebp+8], 13 ; 0000000dH
  005d6	ff 15 00 00 00
	00		 call	 DWORD PTR __imp_??1?$CStringT@DV?$StrTraitMFC_DLL@DV?$ChTraitsCRT@D@ATL@@@@@ATL@@QAE@XZ
$LN8@fnStructTy:
  005dc	8b 45 10	 mov	 eax, DWORD PTR _nType1$[ebp]
  005df	05 6a ff ff ff	 add	 eax, -150		; ffffff6aH
  005e4	83 f8 29	 cmp	 eax, 41			; 00000029H
  005e7	0f 87 ae 05 00
	00		 ja	 $LN2@fnStructTy
  005ed	ff 24 85 00 00
	00 00		 jmp	 DWORD PTR $LN123@fnStructTy[eax*4]
$LN10@fnStructTy:

; 354  : 	{
; 355  : 	case TRKEY_STRMARKET_0:		//	 : KHD
; 356  : 		strData += "5302";		strData += sCOL;

  005f4	68 00 00 00 00	 push	 OFFSET ??_C@_04HLJJNJLK@5302@
  005f9	8d 8d dc fe ff
	ff		 lea	 ecx, DWORD PTR _strData$[ebp]
  005ff	ff 15 00 00 00
	00		 call	 DWORD PTR __imp_??Y?$CStringT@DV?$StrTraitMFC_DLL@DV?$ChTraitsCRT@D@ATL@@@@@ATL@@QAEAAV01@PBD@Z
  00605	6a 0a		 push	 10			; 0000000aH
  00607	8d 8d dc fe ff
	ff		 lea	 ecx, DWORD PTR _strData$[ebp]
  0060d	ff 15 00 00 00
	00		 call	 DWORD PTR __imp_??Y?$CStringT@DV?$StrTraitMFC_DLL@DV?$ChTraitsCRT@D@ATL@@@@@ATL@@QAEAAV01@D@Z

; 357  : 		strData += "5512";		strData += sCOL;

  00613	68 00 00 00 00	 push	 OFFSET ??_C@_04FPDAOMFB@5512@

; 358  : 		break;

  00618	e9 64 05 00 00	 jmp	 $LN128@fnStructTy
$LN11@fnStructTy:

; 359  : 	case TRKEY_STRMARKET_1:		//	 : KHD
; 360  : 		strData += "5302";		strData += sCOL;

  0061d	68 00 00 00 00	 push	 OFFSET ??_C@_04HLJJNJLK@5302@
  00622	8d 8d dc fe ff
	ff		 lea	 ecx, DWORD PTR _strData$[ebp]
  00628	ff 15 00 00 00
	00		 call	 DWORD PTR __imp_??Y?$CStringT@DV?$StrTraitMFC_DLL@DV?$ChTraitsCRT@D@ATL@@@@@ATL@@QAEAAV01@PBD@Z
  0062e	6a 0a		 push	 10			; 0000000aH
  00630	8d 8d dc fe ff
	ff		 lea	 ecx, DWORD PTR _strData$[ebp]
  00636	ff 15 00 00 00
	00		 call	 DWORD PTR __imp_??Y?$CStringT@DV?$StrTraitMFC_DLL@DV?$ChTraitsCRT@D@ATL@@@@@ATL@@QAEAAV01@D@Z

; 361  : 		strData += "5412";		strData += sCOL;

  0063c	68 00 00 00 00	 push	 OFFSET ??_C@_04OHIMILDE@5412@

; 362  : 		break;

  00641	e9 3b 05 00 00	 jmp	 $LN128@fnStructTy
$LN12@fnStructTy:

; 363  : 	case TRKEY_STRMARKET_2:		//	 : KHD :   
; 364  : 		strData += "5302";		strData += sCOL;

  00646	68 00 00 00 00	 push	 OFFSET ??_C@_04HLJJNJLK@5302@
  0064b	8d 8d dc fe ff
	ff		 lea	 ecx, DWORD PTR _strData$[ebp]
  00651	ff 15 00 00 00
	00		 call	 DWORD PTR __imp_??Y?$CStringT@DV?$StrTraitMFC_DLL@DV?$ChTraitsCRT@D@ATL@@@@@ATL@@QAEAAV01@PBD@Z
  00657	6a 0a		 push	 10			; 0000000aH
  00659	8d 8d dc fe ff
	ff		 lea	 ecx, DWORD PTR _strData$[ebp]
  0065f	ff 15 00 00 00
	00		 call	 DWORD PTR __imp_??Y?$CStringT@DV?$StrTraitMFC_DLL@DV?$ChTraitsCRT@D@ATL@@@@@ATL@@QAEAAV01@D@Z

; 365  : 		strData += "35201";		strData += sCOL;

  00665	68 00 00 00 00	 push	 OFFSET ??_C@_05BNAGMOKB@35201@

; 366  : 		break;

  0066a	e9 12 05 00 00	 jmp	 $LN128@fnStructTy
$LN14@fnStructTy:

; 367  : 	case TRKEY_STRMARKET_3:		//	 : KHD :  
; 368  : 		strData += "5302";		strData += sCOL;
; 369  : 		strData += "5363";		strData += sCOL;
; 370  : 		break;
; 371  : 	case TRKEY_STRMARKET_4:		//	 : KHD
; 372  : 		strData += "5302";		strData += sCOL;

  0066f	68 00 00 00 00	 push	 OFFSET ??_C@_04HLJJNJLK@5302@
  00674	8d 8d dc fe ff
	ff		 lea	 ecx, DWORD PTR _strData$[ebp]
  0067a	ff 15 00 00 00
	00		 call	 DWORD PTR __imp_??Y?$CStringT@DV?$StrTraitMFC_DLL@DV?$ChTraitsCRT@D@ATL@@@@@ATL@@QAEAAV01@PBD@Z
  00680	6a 0a		 push	 10			; 0000000aH
  00682	8d 8d dc fe ff
	ff		 lea	 ecx, DWORD PTR _strData$[ebp]
  00688	ff 15 00 00 00
	00		 call	 DWORD PTR __imp_??Y?$CStringT@DV?$StrTraitMFC_DLL@DV?$ChTraitsCRT@D@ATL@@@@@ATL@@QAEAAV01@D@Z

; 373  : 		strData += "5363";		strData += sCOL;

  0068e	68 00 00 00 00	 push	 OFFSET ??_C@_04GGAPJEEJ@5363@

; 374  : 		break;

  00693	e9 e9 04 00 00	 jmp	 $LN128@fnStructTy
$LN15@fnStructTy:

; 375  : 	case TRKEY_STRMARKET_5:		//	
; 376  : 		strData += "5302";		strData += sCOL;

  00698	68 00 00 00 00	 push	 OFFSET ??_C@_04HLJJNJLK@5302@
  0069d	8d 8d dc fe ff
	ff		 lea	 ecx, DWORD PTR _strData$[ebp]
  006a3	ff 15 00 00 00
	00		 call	 DWORD PTR __imp_??Y?$CStringT@DV?$StrTraitMFC_DLL@DV?$ChTraitsCRT@D@ATL@@@@@ATL@@QAEAAV01@PBD@Z
  006a9	6a 0a		 push	 10			; 0000000aH
  006ab	8d 8d dc fe ff
	ff		 lea	 ecx, DWORD PTR _strData$[ebp]
  006b1	ff 15 00 00 00
	00		 call	 DWORD PTR __imp_??Y?$CStringT@DV?$StrTraitMFC_DLL@DV?$ChTraitsCRT@D@ATL@@@@@ATL@@QAEAAV01@D@Z

; 377  : 		strData += "5373";		strData += sCOL;

  006b7	68 00 00 00 00	 push	 OFFSET ??_C@_04GHMNPOHO@5373@

; 378  : 		break;

  006bc	e9 c0 04 00 00	 jmp	 $LN128@fnStructTy
$LN16@fnStructTy:

; 379  : 	case TRKEY_STRMARKET_6:		//	
; 380  : 		strData += "5302";		strData += sCOL;

  006c1	68 00 00 00 00	 push	 OFFSET ??_C@_04HLJJNJLK@5302@
  006c6	8d 8d dc fe ff
	ff		 lea	 ecx, DWORD PTR _strData$[ebp]
  006cc	ff 15 00 00 00
	00		 call	 DWORD PTR __imp_??Y?$CStringT@DV?$StrTraitMFC_DLL@DV?$ChTraitsCRT@D@ATL@@@@@ATL@@QAEAAV01@PBD@Z
  006d2	6a 0a		 push	 10			; 0000000aH
  006d4	8d 8d dc fe ff
	ff		 lea	 ecx, DWORD PTR _strData$[ebp]
  006da	ff 15 00 00 00
	00		 call	 DWORD PTR __imp_??Y?$CStringT@DV?$StrTraitMFC_DLL@DV?$ChTraitsCRT@D@ATL@@@@@ATL@@QAEAAV01@D@Z

; 381  : 		strData += "5411";		strData += sCOL;

  006e0	68 00 00 00 00	 push	 OFFSET ??_C@_04MMKBNIPH@5411@

; 382  : 		break;

  006e5	e9 97 04 00 00	 jmp	 $LN128@fnStructTy
$LN17@fnStructTy:

; 383  : 	case TRKEY_STRMARKET_7:		//	
; 384  : 		strData += "5302";		strData += sCOL;

  006ea	68 00 00 00 00	 push	 OFFSET ??_C@_04HLJJNJLK@5302@
  006ef	8d 8d dc fe ff
	ff		 lea	 ecx, DWORD PTR _strData$[ebp]
  006f5	ff 15 00 00 00
	00		 call	 DWORD PTR __imp_??Y?$CStringT@DV?$StrTraitMFC_DLL@DV?$ChTraitsCRT@D@ATL@@@@@ATL@@QAEAAV01@PBD@Z
  006fb	6a 0a		 push	 10			; 0000000aH
  006fd	8d 8d dc fe ff
	ff		 lea	 ecx, DWORD PTR _strData$[ebp]
  00703	ff 15 00 00 00
	00		 call	 DWORD PTR __imp_??Y?$CStringT@DV?$StrTraitMFC_DLL@DV?$ChTraitsCRT@D@ATL@@@@@ATL@@QAEAAV01@D@Z

; 385  : 		strData += "5511";		strData += sCOL;

  00709	68 00 00 00 00	 push	 OFFSET ??_C@_04HEBNLPJC@5511@

; 386  : 		break;

  0070e	e9 6e 04 00 00	 jmp	 $LN128@fnStructTy
$LN18@fnStructTy:

; 387  : 	case TRKEY_STRMARKET_8:		//	
; 388  : 		strData += "5302";		strData += sCOL;

  00713	68 00 00 00 00	 push	 OFFSET ??_C@_04HLJJNJLK@5302@
  00718	8d 8d dc fe ff
	ff		 lea	 ecx, DWORD PTR _strData$[ebp]
  0071e	ff 15 00 00 00
	00		 call	 DWORD PTR __imp_??Y?$CStringT@DV?$StrTraitMFC_DLL@DV?$ChTraitsCRT@D@ATL@@@@@ATL@@QAEAAV01@PBD@Z
  00724	6a 0a		 push	 10			; 0000000aH
  00726	8d 8d dc fe ff
	ff		 lea	 ecx, DWORD PTR _strData$[ebp]
  0072c	ff 15 00 00 00
	00		 call	 DWORD PTR __imp_??Y?$CStringT@DV?$StrTraitMFC_DLL@DV?$ChTraitsCRT@D@ATL@@@@@ATL@@QAEAAV01@D@Z

; 389  : 		strData += "5508";		strData += sCOL;

  00732	68 00 00 00 00	 push	 OFFSET ??_C@_04KEBNGOOM@5508@

; 390  : 		break;

  00737	e9 45 04 00 00	 jmp	 $LN128@fnStructTy
$LN19@fnStructTy:

; 391  : 	case TRKEY_STRMARKET_9:		//	
; 392  : 		strData += "5302";		strData += sCOL;

  0073c	68 00 00 00 00	 push	 OFFSET ??_C@_04HLJJNJLK@5302@
  00741	8d 8d dc fe ff
	ff		 lea	 ecx, DWORD PTR _strData$[ebp]
  00747	ff 15 00 00 00
	00		 call	 DWORD PTR __imp_??Y?$CStringT@DV?$StrTraitMFC_DLL@DV?$ChTraitsCRT@D@ATL@@@@@ATL@@QAEAAV01@PBD@Z
  0074d	6a 0a		 push	 10			; 0000000aH
  0074f	8d 8d dc fe ff
	ff		 lea	 ecx, DWORD PTR _strData$[ebp]
  00755	ff 15 00 00 00
	00		 call	 DWORD PTR __imp_??Y?$CStringT@DV?$StrTraitMFC_DLL@DV?$ChTraitsCRT@D@ATL@@@@@ATL@@QAEAAV01@D@Z

; 393  : 		strData += "5408";		strData += sCOL;

  0075b	68 00 00 00 00	 push	 OFFSET ??_C@_04BMKBAJIJ@5408@

; 394  : 		break;

  00760	e9 1c 04 00 00	 jmp	 $LN128@fnStructTy
$LN20@fnStructTy:

; 395  : 	case TRKEY_STRMARKET_10:	//	
; 396  : 		strData += "5302";		strData += sCOL;

  00765	68 00 00 00 00	 push	 OFFSET ??_C@_04HLJJNJLK@5302@
  0076a	8d 8d dc fe ff
	ff		 lea	 ecx, DWORD PTR _strData$[ebp]
  00770	ff 15 00 00 00
	00		 call	 DWORD PTR __imp_??Y?$CStringT@DV?$StrTraitMFC_DLL@DV?$ChTraitsCRT@D@ATL@@@@@ATL@@QAEAAV01@PBD@Z
  00776	6a 0a		 push	 10			; 0000000aH
  00778	8d 8d dc fe ff
	ff		 lea	 ecx, DWORD PTR _strData$[ebp]
  0077e	ff 15 00 00 00
	00		 call	 DWORD PTR __imp_??Y?$CStringT@DV?$StrTraitMFC_DLL@DV?$ChTraitsCRT@D@ATL@@@@@ATL@@QAEAAV01@D@Z

; 397  : 		strData += "5401";		strData += sCOL;

  00784	68 00 00 00 00	 push	 OFFSET ??_C@_04MNGDLCMA@5401@

; 398  : 		break;

  00789	e9 f3 03 00 00	 jmp	 $LN128@fnStructTy
$LN21@fnStructTy:

; 399  : 	case TRKEY_STRMARKET_11:	//	
; 400  : 		strData += "5302";		strData += sCOL;

  0078e	68 00 00 00 00	 push	 OFFSET ??_C@_04HLJJNJLK@5302@
  00793	8d 8d dc fe ff
	ff		 lea	 ecx, DWORD PTR _strData$[ebp]
  00799	ff 15 00 00 00
	00		 call	 DWORD PTR __imp_??Y?$CStringT@DV?$StrTraitMFC_DLL@DV?$ChTraitsCRT@D@ATL@@@@@ATL@@QAEAAV01@PBD@Z
  0079f	6a 0a		 push	 10			; 0000000aH
  007a1	8d 8d dc fe ff
	ff		 lea	 ecx, DWORD PTR _strData$[ebp]
  007a7	ff 15 00 00 00
	00		 call	 DWORD PTR __imp_??Y?$CStringT@DV?$StrTraitMFC_DLL@DV?$ChTraitsCRT@D@ATL@@@@@ATL@@QAEAAV01@D@Z

; 401  : 		strData += "5402";		strData += sCOL;

  007ad	68 00 00 00 00	 push	 OFFSET ??_C@_04OGEOOBAD@5402@

; 402  : 		break;

  007b2	e9 ca 03 00 00	 jmp	 $LN128@fnStructTy
$LN22@fnStructTy:

; 403  : 	case TRKEY_STRMARKET_12:	//	
; 404  : 		strData += "5302";		strData += sCOL;

  007b7	68 00 00 00 00	 push	 OFFSET ??_C@_04HLJJNJLK@5302@
  007bc	8d 8d dc fe ff
	ff		 lea	 ecx, DWORD PTR _strData$[ebp]
  007c2	ff 15 00 00 00
	00		 call	 DWORD PTR __imp_??Y?$CStringT@DV?$StrTraitMFC_DLL@DV?$ChTraitsCRT@D@ATL@@@@@ATL@@QAEAAV01@PBD@Z
  007c8	6a 0a		 push	 10			; 0000000aH
  007ca	8d 8d dc fe ff
	ff		 lea	 ecx, DWORD PTR _strData$[ebp]
  007d0	ff 15 00 00 00
	00		 call	 DWORD PTR __imp_??Y?$CStringT@DV?$StrTraitMFC_DLL@DV?$ChTraitsCRT@D@ATL@@@@@ATL@@QAEAAV01@D@Z

; 405  : 		strData += "5403";		strData += sCOL;

  007d6	68 00 00 00 00	 push	 OFFSET ??_C@_04PPFFNAEC@5403@

; 406  : 		break;

  007db	e9 a1 03 00 00	 jmp	 $LN128@fnStructTy
$LN23@fnStructTy:

; 407  : 	case TRKEY_STRMARKET_13:	//	
; 408  : 		strData += "5302";		strData += sCOL;

  007e0	68 00 00 00 00	 push	 OFFSET ??_C@_04HLJJNJLK@5302@
  007e5	8d 8d dc fe ff
	ff		 lea	 ecx, DWORD PTR _strData$[ebp]
  007eb	ff 15 00 00 00
	00		 call	 DWORD PTR __imp_??Y?$CStringT@DV?$StrTraitMFC_DLL@DV?$ChTraitsCRT@D@ATL@@@@@ATL@@QAEAAV01@PBD@Z
  007f1	6a 0a		 push	 10			; 0000000aH
  007f3	8d 8d dc fe ff
	ff		 lea	 ecx, DWORD PTR _strData$[ebp]
  007f9	ff 15 00 00 00
	00		 call	 DWORD PTR __imp_??Y?$CStringT@DV?$StrTraitMFC_DLL@DV?$ChTraitsCRT@D@ATL@@@@@ATL@@QAEAAV01@D@Z

; 409  : 		strData += "5404";		strData += sCOL;

  007ff	68 00 00 00 00	 push	 OFFSET ??_C@_04LABEEGIF@5404@

; 410  : 		break;

  00804	e9 78 03 00 00	 jmp	 $LN128@fnStructTy
$LN24@fnStructTy:

; 411  : 	case TRKEY_STRMARKET_14:	//	
; 412  : 		strData += "5302";		strData += sCOL;

  00809	68 00 00 00 00	 push	 OFFSET ??_C@_04HLJJNJLK@5302@
  0080e	8d 8d dc fe ff
	ff		 lea	 ecx, DWORD PTR _strData$[ebp]
  00814	ff 15 00 00 00
	00		 call	 DWORD PTR __imp_??Y?$CStringT@DV?$StrTraitMFC_DLL@DV?$ChTraitsCRT@D@ATL@@@@@ATL@@QAEAAV01@PBD@Z
  0081a	6a 0a		 push	 10			; 0000000aH
  0081c	8d 8d dc fe ff
	ff		 lea	 ecx, DWORD PTR _strData$[ebp]
  00822	ff 15 00 00 00
	00		 call	 DWORD PTR __imp_??Y?$CStringT@DV?$StrTraitMFC_DLL@DV?$ChTraitsCRT@D@ATL@@@@@ATL@@QAEAAV01@D@Z

; 413  : 		strData += "5405";		strData += sCOL;

  00828	68 00 00 00 00	 push	 OFFSET ??_C@_04KJAPHHME@5405@

; 414  : 		break;

  0082d	e9 4f 03 00 00	 jmp	 $LN128@fnStructTy
$LN25@fnStructTy:

; 415  : 	case TRKEY_STRMARKET_15:	//	
; 416  : 		strData += "5302";		strData += sCOL;

  00832	68 00 00 00 00	 push	 OFFSET ??_C@_04HLJJNJLK@5302@
  00837	8d 8d dc fe ff
	ff		 lea	 ecx, DWORD PTR _strData$[ebp]
  0083d	ff 15 00 00 00
	00		 call	 DWORD PTR __imp_??Y?$CStringT@DV?$StrTraitMFC_DLL@DV?$ChTraitsCRT@D@ATL@@@@@ATL@@QAEAAV01@PBD@Z
  00843	6a 0a		 push	 10			; 0000000aH
  00845	8d 8d dc fe ff
	ff		 lea	 ecx, DWORD PTR _strData$[ebp]
  0084b	ff 15 00 00 00
	00		 call	 DWORD PTR __imp_??Y?$CStringT@DV?$StrTraitMFC_DLL@DV?$ChTraitsCRT@D@ATL@@@@@ATL@@QAEAAV01@D@Z

; 417  : 		strData += "5406";		strData += sCOL;

  00851	68 00 00 00 00	 push	 OFFSET ??_C@_04ICCCCEAH@5406@

; 418  : 		break;

  00856	e9 26 03 00 00	 jmp	 $LN128@fnStructTy
$LN26@fnStructTy:

; 419  : 	case TRKEY_STRMARKET_16:	//	
; 420  : 		strData += "5302";		strData += sCOL;

  0085b	68 00 00 00 00	 push	 OFFSET ??_C@_04HLJJNJLK@5302@
  00860	8d 8d dc fe ff
	ff		 lea	 ecx, DWORD PTR _strData$[ebp]
  00866	ff 15 00 00 00
	00		 call	 DWORD PTR __imp_??Y?$CStringT@DV?$StrTraitMFC_DLL@DV?$ChTraitsCRT@D@ATL@@@@@ATL@@QAEAAV01@PBD@Z
  0086c	6a 0a		 push	 10			; 0000000aH
  0086e	8d 8d dc fe ff
	ff		 lea	 ecx, DWORD PTR _strData$[ebp]
  00874	ff 15 00 00 00
	00		 call	 DWORD PTR __imp_??Y?$CStringT@DV?$StrTraitMFC_DLL@DV?$ChTraitsCRT@D@ATL@@@@@ATL@@QAEAAV01@D@Z

; 421  : 		strData += "5407";		strData += sCOL;

  0087a	68 00 00 00 00	 push	 OFFSET ??_C@_04JLDJBFEG@5407@

; 422  : 		break;

  0087f	e9 fd 02 00 00	 jmp	 $LN128@fnStructTy
$LN27@fnStructTy:

; 423  : 	case TRKEY_STRMARKET_17:	//	
; 424  : 		strData += "5302";		strData += sCOL;

  00884	68 00 00 00 00	 push	 OFFSET ??_C@_04HLJJNJLK@5302@
  00889	8d 8d dc fe ff
	ff		 lea	 ecx, DWORD PTR _strData$[ebp]
  0088f	ff 15 00 00 00
	00		 call	 DWORD PTR __imp_??Y?$CStringT@DV?$StrTraitMFC_DLL@DV?$ChTraitsCRT@D@ATL@@@@@ATL@@QAEAAV01@PBD@Z
  00895	6a 0a		 push	 10			; 0000000aH
  00897	8d 8d dc fe ff
	ff		 lea	 ecx, DWORD PTR _strData$[ebp]
  0089d	ff 15 00 00 00
	00		 call	 DWORD PTR __imp_??Y?$CStringT@DV?$StrTraitMFC_DLL@DV?$ChTraitsCRT@D@ATL@@@@@ATL@@QAEAAV01@D@Z

; 425  : 		strData += "5409";		strData += sCOL;

  008a3	68 00 00 00 00	 push	 OFFSET ??_C@_04FLKDIMI@5409@

; 426  : 		break;

  008a8	e9 d4 02 00 00	 jmp	 $LN128@fnStructTy
$LN28@fnStructTy:

; 427  : 	case TRKEY_STRMARKET_18:	//	
; 428  : 		strData += "5302";		strData += sCOL;

  008ad	68 00 00 00 00	 push	 OFFSET ??_C@_04HLJJNJLK@5302@
  008b2	8d 8d dc fe ff
	ff		 lea	 ecx, DWORD PTR _strData$[ebp]
  008b8	ff 15 00 00 00
	00		 call	 DWORD PTR __imp_??Y?$CStringT@DV?$StrTraitMFC_DLL@DV?$ChTraitsCRT@D@ATL@@@@@ATL@@QAEAAV01@PBD@Z
  008be	6a 0a		 push	 10			; 0000000aH
  008c0	8d 8d dc fe ff
	ff		 lea	 ecx, DWORD PTR _strData$[ebp]
  008c6	ff 15 00 00 00
	00		 call	 DWORD PTR __imp_??Y?$CStringT@DV?$StrTraitMFC_DLL@DV?$ChTraitsCRT@D@ATL@@@@@ATL@@QAEAAV01@D@Z

; 429  : 		strData += "5413";		strData += sCOL;

  008cc	68 00 00 00 00	 push	 OFFSET ??_C@_04POJHLKHF@5413@

; 430  : 		break;

  008d1	e9 ab 02 00 00	 jmp	 $LN128@fnStructTy
$LN29@fnStructTy:

; 431  : 	case TRKEY_STRMARKET_19:	//	
; 432  : 		strData += "5302";		strData += sCOL;

  008d6	68 00 00 00 00	 push	 OFFSET ??_C@_04HLJJNJLK@5302@
  008db	8d 8d dc fe ff
	ff		 lea	 ecx, DWORD PTR _strData$[ebp]
  008e1	ff 15 00 00 00
	00		 call	 DWORD PTR __imp_??Y?$CStringT@DV?$StrTraitMFC_DLL@DV?$ChTraitsCRT@D@ATL@@@@@ATL@@QAEAAV01@PBD@Z
  008e7	6a 0a		 push	 10			; 0000000aH
  008e9	8d 8d dc fe ff
	ff		 lea	 ecx, DWORD PTR _strData$[ebp]
  008ef	ff 15 00 00 00
	00		 call	 DWORD PTR __imp_??Y?$CStringT@DV?$StrTraitMFC_DLL@DV?$ChTraitsCRT@D@ATL@@@@@ATL@@QAEAAV01@D@Z

; 433  : 		strData += "5501";		strData += sCOL;

  008f5	68 00 00 00 00	 push	 OFFSET ??_C@_04HFNPNFKF@5501@

; 434  : 		break;

  008fa	e9 82 02 00 00	 jmp	 $LN128@fnStructTy
$LN30@fnStructTy:

; 435  : 	case TRKEY_STRMARKET_20:	//	
; 436  : 		strData += "5302";		strData += sCOL;

  008ff	68 00 00 00 00	 push	 OFFSET ??_C@_04HLJJNJLK@5302@
  00904	8d 8d dc fe ff
	ff		 lea	 ecx, DWORD PTR _strData$[ebp]
  0090a	ff 15 00 00 00
	00		 call	 DWORD PTR __imp_??Y?$CStringT@DV?$StrTraitMFC_DLL@DV?$ChTraitsCRT@D@ATL@@@@@ATL@@QAEAAV01@PBD@Z
  00910	6a 0a		 push	 10			; 0000000aH
  00912	8d 8d dc fe ff
	ff		 lea	 ecx, DWORD PTR _strData$[ebp]
  00918	ff 15 00 00 00
	00		 call	 DWORD PTR __imp_??Y?$CStringT@DV?$StrTraitMFC_DLL@DV?$ChTraitsCRT@D@ATL@@@@@ATL@@QAEAAV01@D@Z

; 437  : 		strData += "5502";		strData += sCOL;

  0091e	68 00 00 00 00	 push	 OFFSET ??_C@_04FOPCIGGG@5502@

; 438  : 		break;

  00923	e9 59 02 00 00	 jmp	 $LN128@fnStructTy
$LN31@fnStructTy:

; 439  : 	case TRKEY_STRMARKET_21:	//	
; 440  : 		strData += "5302";		strData += sCOL;

  00928	68 00 00 00 00	 push	 OFFSET ??_C@_04HLJJNJLK@5302@
  0092d	8d 8d dc fe ff
	ff		 lea	 ecx, DWORD PTR _strData$[ebp]
  00933	ff 15 00 00 00
	00		 call	 DWORD PTR __imp_??Y?$CStringT@DV?$StrTraitMFC_DLL@DV?$ChTraitsCRT@D@ATL@@@@@ATL@@QAEAAV01@PBD@Z
  00939	6a 0a		 push	 10			; 0000000aH
  0093b	8d 8d dc fe ff
	ff		 lea	 ecx, DWORD PTR _strData$[ebp]
  00941	ff 15 00 00 00
	00		 call	 DWORD PTR __imp_??Y?$CStringT@DV?$StrTraitMFC_DLL@DV?$ChTraitsCRT@D@ATL@@@@@ATL@@QAEAAV01@D@Z

; 441  : 		strData += "5503";		strData += sCOL;

  00947	68 00 00 00 00	 push	 OFFSET ??_C@_04EHOJLHCH@5503@

; 442  : 		break;

  0094c	e9 30 02 00 00	 jmp	 $LN128@fnStructTy
$LN32@fnStructTy:

; 443  : 	case TRKEY_STRMARKET_22:	//	 
; 444  : 		strData += "5302";		strData += sCOL;

  00951	68 00 00 00 00	 push	 OFFSET ??_C@_04HLJJNJLK@5302@
  00956	8d 8d dc fe ff
	ff		 lea	 ecx, DWORD PTR _strData$[ebp]
  0095c	ff 15 00 00 00
	00		 call	 DWORD PTR __imp_??Y?$CStringT@DV?$StrTraitMFC_DLL@DV?$ChTraitsCRT@D@ATL@@@@@ATL@@QAEAAV01@PBD@Z
  00962	6a 0a		 push	 10			; 0000000aH
  00964	8d 8d dc fe ff
	ff		 lea	 ecx, DWORD PTR _strData$[ebp]
  0096a	ff 15 00 00 00
	00		 call	 DWORD PTR __imp_??Y?$CStringT@DV?$StrTraitMFC_DLL@DV?$ChTraitsCRT@D@ATL@@@@@ATL@@QAEAAV01@D@Z

; 445  : 		strData += "5504";		strData += sCOL;

  00970	68 00 00 00 00	 push	 OFFSET ??_C@_04IKICBOA@5504@

; 446  : 		break;

  00975	e9 07 02 00 00	 jmp	 $LN128@fnStructTy
$LN33@fnStructTy:

; 447  : 	case TRKEY_STRMARKET_23:	//	  
; 448  : 		strData += "5302";		strData += sCOL;

  0097a	68 00 00 00 00	 push	 OFFSET ??_C@_04HLJJNJLK@5302@
  0097f	8d 8d dc fe ff
	ff		 lea	 ecx, DWORD PTR _strData$[ebp]
  00985	ff 15 00 00 00
	00		 call	 DWORD PTR __imp_??Y?$CStringT@DV?$StrTraitMFC_DLL@DV?$ChTraitsCRT@D@ATL@@@@@ATL@@QAEAAV01@PBD@Z
  0098b	6a 0a		 push	 10			; 0000000aH
  0098d	8d 8d dc fe ff
	ff		 lea	 ecx, DWORD PTR _strData$[ebp]
  00993	ff 15 00 00 00
	00		 call	 DWORD PTR __imp_??Y?$CStringT@DV?$StrTraitMFC_DLL@DV?$ChTraitsCRT@D@ATL@@@@@ATL@@QAEAAV01@D@Z

; 449  : 		strData += "5505";		strData += sCOL;

  00999	68 00 00 00 00	 push	 OFFSET ??_C@_04BBLDBAKB@5505@

; 450  : 		break;

  0099e	e9 de 01 00 00	 jmp	 $LN128@fnStructTy
$LN34@fnStructTy:

; 451  : 	case TRKEY_STRMARKET_24:	//	   
; 452  : 		strData += "5302";		strData += sCOL;

  009a3	68 00 00 00 00	 push	 OFFSET ??_C@_04HLJJNJLK@5302@
  009a8	8d 8d dc fe ff
	ff		 lea	 ecx, DWORD PTR _strData$[ebp]
  009ae	ff 15 00 00 00
	00		 call	 DWORD PTR __imp_??Y?$CStringT@DV?$StrTraitMFC_DLL@DV?$ChTraitsCRT@D@ATL@@@@@ATL@@QAEAAV01@PBD@Z
  009b4	6a 0a		 push	 10			; 0000000aH
  009b6	8d 8d dc fe ff
	ff		 lea	 ecx, DWORD PTR _strData$[ebp]
  009bc	ff 15 00 00 00
	00		 call	 DWORD PTR __imp_??Y?$CStringT@DV?$StrTraitMFC_DLL@DV?$ChTraitsCRT@D@ATL@@@@@ATL@@QAEAAV01@D@Z

; 453  : 		strData += "5506";		strData += sCOL;

  009c2	68 00 00 00 00	 push	 OFFSET ??_C@_04DKJOEDGC@5506@

; 454  : 		break;

  009c7	e9 b5 01 00 00	 jmp	 $LN128@fnStructTy
$LN35@fnStructTy:

; 455  : 	case TRKEY_STRMARKET_25:	//	
; 456  : 		strData += "5302";		strData += sCOL;

  009cc	68 00 00 00 00	 push	 OFFSET ??_C@_04HLJJNJLK@5302@
  009d1	8d 8d dc fe ff
	ff		 lea	 ecx, DWORD PTR _strData$[ebp]
  009d7	ff 15 00 00 00
	00		 call	 DWORD PTR __imp_??Y?$CStringT@DV?$StrTraitMFC_DLL@DV?$ChTraitsCRT@D@ATL@@@@@ATL@@QAEAAV01@PBD@Z
  009dd	6a 0a		 push	 10			; 0000000aH
  009df	8d 8d dc fe ff
	ff		 lea	 ecx, DWORD PTR _strData$[ebp]
  009e5	ff 15 00 00 00
	00		 call	 DWORD PTR __imp_??Y?$CStringT@DV?$StrTraitMFC_DLL@DV?$ChTraitsCRT@D@ATL@@@@@ATL@@QAEAAV01@D@Z

; 457  : 		strData += "5507";		strData += sCOL;

  009eb	68 00 00 00 00	 push	 OFFSET ??_C@_04CDIFHCCD@5507@

; 458  : 		break;

  009f0	e9 8c 01 00 00	 jmp	 $LN128@fnStructTy
$LN36@fnStructTy:

; 459  : 	case TRKEY_STRMARKET_26:	//	
; 460  : 		strData += "5302";		strData += sCOL;

  009f5	68 00 00 00 00	 push	 OFFSET ??_C@_04HLJJNJLK@5302@
  009fa	8d 8d dc fe ff
	ff		 lea	 ecx, DWORD PTR _strData$[ebp]
  00a00	ff 15 00 00 00
	00		 call	 DWORD PTR __imp_??Y?$CStringT@DV?$StrTraitMFC_DLL@DV?$ChTraitsCRT@D@ATL@@@@@ATL@@QAEAAV01@PBD@Z
  00a06	6a 0a		 push	 10			; 0000000aH
  00a08	8d 8d dc fe ff
	ff		 lea	 ecx, DWORD PTR _strData$[ebp]
  00a0e	ff 15 00 00 00
	00		 call	 DWORD PTR __imp_??Y?$CStringT@DV?$StrTraitMFC_DLL@DV?$ChTraitsCRT@D@ATL@@@@@ATL@@QAEAAV01@D@Z

; 461  : 		strData += "5509";		strData += sCOL;

  00a14	68 00 00 00 00	 push	 OFFSET ??_C@_04LNAGFPKN@5509@

; 462  : 		break;

  00a19	e9 63 01 00 00	 jmp	 $LN128@fnStructTy
$LN37@fnStructTy:

; 463  : 	case TRKEY_STRMARKET_27:	//	
; 464  : 		strData += "5302";		strData += sCOL;

  00a1e	68 00 00 00 00	 push	 OFFSET ??_C@_04HLJJNJLK@5302@
  00a23	8d 8d dc fe ff
	ff		 lea	 ecx, DWORD PTR _strData$[ebp]
  00a29	ff 15 00 00 00
	00		 call	 DWORD PTR __imp_??Y?$CStringT@DV?$StrTraitMFC_DLL@DV?$ChTraitsCRT@D@ATL@@@@@ATL@@QAEAAV01@PBD@Z
  00a2f	6a 0a		 push	 10			; 0000000aH
  00a31	8d 8d dc fe ff
	ff		 lea	 ecx, DWORD PTR _strData$[ebp]
  00a37	ff 15 00 00 00
	00		 call	 DWORD PTR __imp_??Y?$CStringT@DV?$StrTraitMFC_DLL@DV?$ChTraitsCRT@D@ATL@@@@@ATL@@QAEAAV01@D@Z

; 465  : 		strData += "5513";		strData += sCOL;

  00a3d	68 00 00 00 00	 push	 OFFSET ??_C@_04EGCLNNBA@5513@

; 466  : 		break;

  00a42	e9 3a 01 00 00	 jmp	 $LN128@fnStructTy
$LN38@fnStructTy:

; 467  : 	case TRKEY_STRUPMARKET_0:	//	ADL
; 468  : 		strData += "25302";		strData += sCOL;

  00a47	68 00 00 00 00	 push	 OFFSET ??_C@_05EFMLCJKC@25302@
  00a4c	8d 8d dc fe ff
	ff		 lea	 ecx, DWORD PTR _strData$[ebp]
  00a52	ff 15 00 00 00
	00		 call	 DWORD PTR __imp_??Y?$CStringT@DV?$StrTraitMFC_DLL@DV?$ChTraitsCRT@D@ATL@@@@@ATL@@QAEAAV01@PBD@Z
  00a58	6a 0a		 push	 10			; 0000000aH
  00a5a	8d 8d dc fe ff
	ff		 lea	 ecx, DWORD PTR _strData$[ebp]
  00a60	ff 15 00 00 00
	00		 call	 DWORD PTR __imp_??Y?$CStringT@DV?$StrTraitMFC_DLL@DV?$ChTraitsCRT@D@ATL@@@@@ATL@@QAEAAV01@D@Z

; 469  : 		strData += "25602";		strData += sCOL;

  00a66	68 00 00 00 00	 push	 OFFSET ??_C@_05HCBFNJJA@25602@

; 470  : 		break;

  00a6b	e9 11 01 00 00	 jmp	 $LN128@fnStructTy
$LN39@fnStructTy:

; 471  : 	case TRKEY_STRUPMARKET_1:	//	ADR
; 472  : 		strData += "25302";		strData += sCOL;

  00a70	68 00 00 00 00	 push	 OFFSET ??_C@_05EFMLCJKC@25302@
  00a75	8d 8d dc fe ff
	ff		 lea	 ecx, DWORD PTR _strData$[ebp]
  00a7b	ff 15 00 00 00
	00		 call	 DWORD PTR __imp_??Y?$CStringT@DV?$StrTraitMFC_DLL@DV?$ChTraitsCRT@D@ATL@@@@@ATL@@QAEAAV01@PBD@Z
  00a81	6a 0a		 push	 10			; 0000000aH
  00a83	8d 8d dc fe ff
	ff		 lea	 ecx, DWORD PTR _strData$[ebp]
  00a89	ff 15 00 00 00
	00		 call	 DWORD PTR __imp_??Y?$CStringT@DV?$StrTraitMFC_DLL@DV?$ChTraitsCRT@D@ATL@@@@@ATL@@QAEAAV01@D@Z

; 473  : 		strData += "25603";		strData += sCOL;

  00a8f	68 00 00 00 00	 push	 OFFSET ??_C@_05GLAOOINB@25603@

; 474  : 		break;

  00a94	e9 e8 00 00 00	 jmp	 $LN128@fnStructTy
$LN40@fnStructTy:

; 475  : 	case TRKEY_STRMARKET_28:	//	
; 476  : 		strData += "5302";		strData += sCOL;

  00a99	68 00 00 00 00	 push	 OFFSET ??_C@_04HLJJNJLK@5302@
  00a9e	8d 8d dc fe ff
	ff		 lea	 ecx, DWORD PTR _strData$[ebp]
  00aa4	ff 15 00 00 00
	00		 call	 DWORD PTR __imp_??Y?$CStringT@DV?$StrTraitMFC_DLL@DV?$ChTraitsCRT@D@ATL@@@@@ATL@@QAEAAV01@PBD@Z
  00aaa	6a 0a		 push	 10			; 0000000aH
  00aac	8d 8d dc fe ff
	ff		 lea	 ecx, DWORD PTR _strData$[ebp]
  00ab2	ff 15 00 00 00
	00		 call	 DWORD PTR __imp_??Y?$CStringT@DV?$StrTraitMFC_DLL@DV?$ChTraitsCRT@D@ATL@@@@@ATL@@QAEAAV01@D@Z

; 477  : 		strData += "5601";		strData += sCOL;

  00ab8	68 00 00 00 00	 push	 OFFSET ??_C@_04GHGKHKEL@5601@

; 478  : 		break;

  00abd	e9 bf 00 00 00	 jmp	 $LN128@fnStructTy
$LN41@fnStructTy:

; 479  : 	case TRKEY_STRMARKET_29:	//	
; 480  : 		strData += "5302";		strData += sCOL;

  00ac2	68 00 00 00 00	 push	 OFFSET ??_C@_04HLJJNJLK@5302@
  00ac7	8d 8d dc fe ff
	ff		 lea	 ecx, DWORD PTR _strData$[ebp]
  00acd	ff 15 00 00 00
	00		 call	 DWORD PTR __imp_??Y?$CStringT@DV?$StrTraitMFC_DLL@DV?$ChTraitsCRT@D@ATL@@@@@ATL@@QAEAAV01@PBD@Z
  00ad3	6a 0a		 push	 10			; 0000000aH
  00ad5	8d 8d dc fe ff
	ff		 lea	 ecx, DWORD PTR _strData$[ebp]
  00adb	ff 15 00 00 00
	00		 call	 DWORD PTR __imp_??Y?$CStringT@DV?$StrTraitMFC_DLL@DV?$ChTraitsCRT@D@ATL@@@@@ATL@@QAEAAV01@D@Z

; 481  : 		strData += "5602";		strData += sCOL;

  00ae1	68 00 00 00 00	 push	 OFFSET ??_C@_04EMEHCJII@5602@

; 482  : 		break;

  00ae6	e9 96 00 00 00	 jmp	 $LN128@fnStructTy
$LN42@fnStructTy:

; 483  : 	case TRKEY_STRMARKET_30:	//	
; 484  : 		strData += "5302";		strData += sCOL;

  00aeb	68 00 00 00 00	 push	 OFFSET ??_C@_04HLJJNJLK@5302@
  00af0	8d 8d dc fe ff
	ff		 lea	 ecx, DWORD PTR _strData$[ebp]
  00af6	ff 15 00 00 00
	00		 call	 DWORD PTR __imp_??Y?$CStringT@DV?$StrTraitMFC_DLL@DV?$ChTraitsCRT@D@ATL@@@@@ATL@@QAEAAV01@PBD@Z
  00afc	6a 0a		 push	 10			; 0000000aH
  00afe	8d 8d dc fe ff
	ff		 lea	 ecx, DWORD PTR _strData$[ebp]
  00b04	ff 15 00 00 00
	00		 call	 DWORD PTR __imp_??Y?$CStringT@DV?$StrTraitMFC_DLL@DV?$ChTraitsCRT@D@ATL@@@@@ATL@@QAEAAV01@D@Z

; 485  : 		strData += "5603";		strData += sCOL;

  00b0a	68 00 00 00 00	 push	 OFFSET ??_C@_04FFFMBIMJ@5603@

; 486  : 		break;

  00b0f	eb 70		 jmp	 SHORT $LN128@fnStructTy
$LN43@fnStructTy:

; 487  : 	case TRKEY_STRMARKET_31:	//	
; 488  : 		strData += "5302";		strData += sCOL;

  00b11	68 00 00 00 00	 push	 OFFSET ??_C@_04HLJJNJLK@5302@
  00b16	8d 8d dc fe ff
	ff		 lea	 ecx, DWORD PTR _strData$[ebp]
  00b1c	ff 15 00 00 00
	00		 call	 DWORD PTR __imp_??Y?$CStringT@DV?$StrTraitMFC_DLL@DV?$ChTraitsCRT@D@ATL@@@@@ATL@@QAEAAV01@PBD@Z
  00b22	6a 0a		 push	 10			; 0000000aH
  00b24	8d 8d dc fe ff
	ff		 lea	 ecx, DWORD PTR _strData$[ebp]
  00b2a	ff 15 00 00 00
	00		 call	 DWORD PTR __imp_??Y?$CStringT@DV?$StrTraitMFC_DLL@DV?$ChTraitsCRT@D@ATL@@@@@ATL@@QAEAAV01@D@Z

; 489  : 		strData += "5604";		strData += sCOL;

  00b30	68 00 00 00 00	 push	 OFFSET ??_C@_04BKBNIOAO@5604@

; 490  : 		break;

  00b35	eb 4a		 jmp	 SHORT $LN128@fnStructTy
$LN44@fnStructTy:

; 491  : 	case TRKEY_STRMARKET_32:	//	+
; 492  : 		strData += "5302";		strData += sCOL;

  00b37	68 00 00 00 00	 push	 OFFSET ??_C@_04HLJJNJLK@5302@
  00b3c	8d 8d dc fe ff
	ff		 lea	 ecx, DWORD PTR _strData$[ebp]
  00b42	ff 15 00 00 00
	00		 call	 DWORD PTR __imp_??Y?$CStringT@DV?$StrTraitMFC_DLL@DV?$ChTraitsCRT@D@ATL@@@@@ATL@@QAEAAV01@PBD@Z
  00b48	6a 0a		 push	 10			; 0000000aH
  00b4a	8d 8d dc fe ff
	ff		 lea	 ecx, DWORD PTR _strData$[ebp]
  00b50	ff 15 00 00 00
	00		 call	 DWORD PTR __imp_??Y?$CStringT@DV?$StrTraitMFC_DLL@DV?$ChTraitsCRT@D@ATL@@@@@ATL@@QAEAAV01@D@Z

; 493  : 		strData += "5414";		strData += sCOL;

  00b56	68 00 00 00 00	 push	 OFFSET ??_C@_04LBNGCMLC@5414@

; 494  : 		break;

  00b5b	eb 24		 jmp	 SHORT $LN128@fnStructTy
$LN45@fnStructTy:

; 495  : 	case TRKEY_STRMARKET_33:	//	+
; 496  : 		strData += "5302";		strData += sCOL;

  00b5d	68 00 00 00 00	 push	 OFFSET ??_C@_04HLJJNJLK@5302@
  00b62	8d 8d dc fe ff
	ff		 lea	 ecx, DWORD PTR _strData$[ebp]
  00b68	ff 15 00 00 00
	00		 call	 DWORD PTR __imp_??Y?$CStringT@DV?$StrTraitMFC_DLL@DV?$ChTraitsCRT@D@ATL@@@@@ATL@@QAEAAV01@PBD@Z
  00b6e	6a 0a		 push	 10			; 0000000aH
  00b70	8d 8d dc fe ff
	ff		 lea	 ecx, DWORD PTR _strData$[ebp]
  00b76	ff 15 00 00 00
	00		 call	 DWORD PTR __imp_??Y?$CStringT@DV?$StrTraitMFC_DLL@DV?$ChTraitsCRT@D@ATL@@@@@ATL@@QAEAAV01@D@Z

; 497  : 		strData += "5514";		strData += sCOL;

  00b7c	68 00 00 00 00	 push	 OFFSET ??_C@_04JGKELNH@5514@
$LN128@fnStructTy:

; 498  : 		break;
; 499  : 	}
; 500  : 	
; 501  : 	strData += szFS;

  00b81	8d 8d dc fe ff
	ff		 lea	 ecx, DWORD PTR _strData$[ebp]
  00b87	ff 15 00 00 00
	00		 call	 DWORD PTR __imp_??Y?$CStringT@DV?$StrTraitMFC_DLL@DV?$ChTraitsCRT@D@ATL@@@@@ATL@@QAEAAV01@PBD@Z
  00b8d	6a 0a		 push	 10			; 0000000aH
  00b8f	8d 8d dc fe ff
	ff		 lea	 ecx, DWORD PTR _strData$[ebp]
  00b95	ff 15 00 00 00
	00		 call	 DWORD PTR __imp_??Y?$CStringT@DV?$StrTraitMFC_DLL@DV?$ChTraitsCRT@D@ATL@@@@@ATL@@QAEAAV01@D@Z
$LN2@fnStructTy:
  00b9b	8d 85 bc fe ff
	ff		 lea	 eax, DWORD PTR _szFS$[ebp]
  00ba1	50		 push	 eax
  00ba2	8d 8d dc fe ff
	ff		 lea	 ecx, DWORD PTR _strData$[ebp]
  00ba8	ff 15 00 00 00
	00		 call	 DWORD PTR __imp_??Y?$CStringT@DV?$StrTraitMFC_DLL@DV?$ChTraitsCRT@D@ATL@@@@@ATL@@QAEAAV01@ABV?$CSimpleStringT@D$00@1@@Z

; 502  : 	return strData;

  00bae	8d 85 dc fe ff
	ff		 lea	 eax, DWORD PTR _strData$[ebp]
  00bb4	8b cb		 mov	 ecx, ebx
  00bb6	50		 push	 eax
  00bb7	ff 15 00 00 00
	00		 call	 DWORD PTR __imp_??0?$CStringT@DV?$StrTraitMFC_DLL@DV?$ChTraitsCRT@D@ATL@@@@@ATL@@QAE@ABV01@@Z
  00bbd	8d 8d d4 fe ff
	ff		 lea	 ecx, DWORD PTR _stNextData$[ebp]
  00bc3	ff 15 00 00 00
	00		 call	 DWORD PTR __imp_??1?$CStringT@DV?$StrTraitMFC_DLL@DV?$ChTraitsCRT@D@ATL@@@@@ATL@@QAE@XZ
  00bc9	8d 8d cc fe ff
	ff		 lea	 ecx, DWORD PTR _stNextKey$[ebp]
  00bcf	ff 15 00 00 00
	00		 call	 DWORD PTR __imp_??1?$CStringT@DV?$StrTraitMFC_DLL@DV?$ChTraitsCRT@D@ATL@@@@@ATL@@QAE@XZ
  00bd5	8d 8d a4 fe ff
	ff		 lea	 ecx, DWORD PTR _strImgRgb$[ebp]
  00bdb	ff 15 00 00 00
	00		 call	 DWORD PTR __imp_??1?$CStringT@DV?$StrTraitMFC_DLL@DV?$ChTraitsCRT@D@ATL@@@@@ATL@@QAE@XZ
  00be1	8d 8d a0 fe ff
	ff		 lea	 ecx, DWORD PTR _strTime$[ebp]
  00be7	ff 15 00 00 00
	00		 call	 DWORD PTR __imp_??1?$CStringT@DV?$StrTraitMFC_DLL@DV?$ChTraitsCRT@D@ATL@@@@@ATL@@QAE@XZ
  00bed	8d 8d b4 fe ff
	ff		 lea	 ecx, DWORD PTR _strUnit$[ebp]
  00bf3	ff 15 00 00 00
	00		 call	 DWORD PTR __imp_??1?$CStringT@DV?$StrTraitMFC_DLL@DV?$ChTraitsCRT@D@ATL@@@@@ATL@@QAE@XZ
  00bf9	8d 8d 9c fe ff
	ff		 lea	 ecx, DWORD PTR _strNow$[ebp]
  00bff	ff 15 00 00 00
	00		 call	 DWORD PTR __imp_??1?$CStringT@DV?$StrTraitMFC_DLL@DV?$ChTraitsCRT@D@ATL@@@@@ATL@@QAE@XZ
  00c05	8d 8d c4 fe ff
	ff		 lea	 ecx, DWORD PTR _strDate$[ebp]
  00c0b	ff 15 00 00 00
	00		 call	 DWORD PTR __imp_??1?$CStringT@DV?$StrTraitMFC_DLL@DV?$ChTraitsCRT@D@ATL@@@@@ATL@@QAE@XZ
  00c11	8d 8d a8 fe ff
	ff		 lea	 ecx, DWORD PTR _strTemp$[ebp]
  00c17	ff 15 00 00 00
	00		 call	 DWORD PTR __imp_??1?$CStringT@DV?$StrTraitMFC_DLL@DV?$ChTraitsCRT@D@ATL@@@@@ATL@@QAE@XZ
  00c1d	8d 8d c0 fe ff
	ff		 lea	 ecx, DWORD PTR _strCode$[ebp]
  00c23	ff 15 00 00 00
	00		 call	 DWORD PTR __imp_??1?$CStringT@DV?$StrTraitMFC_DLL@DV?$ChTraitsCRT@D@ATL@@@@@ATL@@QAE@XZ
  00c29	8d 8d dc fe ff
	ff		 lea	 ecx, DWORD PTR _strData$[ebp]
  00c2f	ff 15 00 00 00
	00		 call	 DWORD PTR __imp_??1?$CStringT@DV?$StrTraitMFC_DLL@DV?$ChTraitsCRT@D@ATL@@@@@ATL@@QAE@XZ
  00c35	8d 8d b0 fe ff
	ff		 lea	 ecx, DWORD PTR _szCOL$[ebp]
  00c3b	ff 15 00 00 00
	00		 call	 DWORD PTR __imp_??1?$CStringT@DV?$StrTraitMFC_DLL@DV?$ChTraitsCRT@D@ATL@@@@@ATL@@QAE@XZ
  00c41	8d 8d bc fe ff
	ff		 lea	 ecx, DWORD PTR _szFS$[ebp]
  00c47	ff 15 00 00 00
	00		 call	 DWORD PTR __imp_??1?$CStringT@DV?$StrTraitMFC_DLL@DV?$ChTraitsCRT@D@ATL@@@@@ATL@@QAE@XZ
  00c4d	8d 8d ac fe ff
	ff		 lea	 ecx, DWORD PTR _szDS$[ebp]
  00c53	ff 15 00 00 00
	00		 call	 DWORD PTR __imp_??1?$CStringT@DV?$StrTraitMFC_DLL@DV?$ChTraitsCRT@D@ATL@@@@@ATL@@QAE@XZ
$LN125@fnStructTy:

; 503  : 	
; 504  : 
; 505  : /*	CString strData, strCode, strTemp, strDate;
; 506  : 	CString szDS, szFS, szCOL;
; 507  : 	szDS = sDS;	szFS = sCELL;	szCOL = sCOL;
; 508  : 
; 509  : 	strCode = CString(m_InData.shcode, sizeof(m_InData.shcode));
; 510  : 	strCode.TrimLeft(); strCode.TrimRight();
; 511  : 
; 512  : 	strDate = CString(m_InData.edate, sizeof(m_InData.edate));
; 513  : 	strDate.TrimLeft(); strDate.TrimRight();
; 514  : 
; 515  : 	int nCount	= CDataConverter::Char2Int(m_InData.num, sizeof(m_InData.num));
; 516  : 	CString stCount;
; 517  : 	stCount.Format("%06d", nCount);
; 518  : 	switch (nType)
; 519  : 	{
; 520  : 	case TRKEY_STRMARKET_0:		//	
; 521  : 		//	Input 	---------->>
; 522  : 		strData += "1301" + szDS + strCode + szFS;		//  
; 523  : 		strData += "101306" + szDS + strDate + szFS;	// 
; 524  : 		//	output 	---------->>
; 525  : 		strData += "1301" + szFS;						//  
; 526  : 		strData += "$101810" + szDS;					//  .
; 527  : 		strData += strGrid;								//  .
; 528  : 		// Row Data 
; 529  : 		strData += "101302" + szCOL;					//	
; 530  : 		strData += "101390" + szCOL;					//	
; 531  : 		break;
; 532  : 	case TRKEY_STRMARKET_1:		//	
; 533  : 		strData += "1301"	+ szDS + strCode + szFS;	//  
; 534  : 		strData += "101306" + szDS + strDate + szFS;	// 
; 535  : 		strData += "1301" + szFS;						//  
; 536  : 		strData += "$101810" + szDS;					//  .
; 537  : 		strData += strGrid;								//  .
; 538  : 		strData += "101302" + szCOL;					//	
; 539  : 		strData += "101391" + szCOL;					//	
; 540  : 		break;
; 541  : 	case TRKEY_STRMARKET_2:		//	
; 542  : 		{
; 543  : 			CStringArray dataArr;
; 544  : 			dataArr.Add(strCode);
; 545  : 			dataArr.Add(strDate);
; 546  : 			dataArr.Add(strGrid);
; 547  : 				
; 548  : 			MakeDataOfSuspensSeContract(strData, &dataArr);
; 549  : 		}
; 550  : // 		strData += "30301"	+ szDS + strCode + szFS;	//  
; 551  : // 		strData += "103306" + szDS + strDate + szFS;	// 
; 552  : // 		strData += "103308" + szDS + "1" + szFS;		//  .
; 553  : // 		strData += "30301" + szFS;						//  
; 554  : // 		strData += "$103610" + szDS;					//  .
; 555  : // 		strData += strGrid;								//  .
; 556  : // 		strData += "103302" + szCOL;					//	
; 557  : // 		strData += "103201" + szCOL;					//	 
; 558  : 		break;
; 559  : 	case TRKEY_STRMARKET_3:		//	
; 560  : 		strData += "1301"	+ szDS + strCode + szFS;	//  
; 561  : 		strData += "101306" + szDS + strDate + szFS;	// 
; 562  : 		strData += "1301" + szFS;						//  
; 563  : 		strData += "?5500" + szDS;					//  .
; 564  : 		strData += strGrid;								//  .
; 565  : 		strData += "101302" + szCOL;					//	
; 566  : 		strData += "101305" + szCOL;					//	
; 567  : 		break;
; 568  : 	case TRKEY_STRMARKET_4:		//	 : KHD
; 569  : 		strData += "1301"	+ szDS + strCode + szFS;	//  
; 570  : 		strData += "?5500" + szDS + stCount ;		//  .
; 571  : 		strData += strDate + szFS;	// 
; 572  : 		strData += "1301" + szFS;						//  
; 573  : 		
; 574  : 	//	strData += strGrid;								//  .
; 575  : 		strData += "5302" + szCOL;					//	
; 576  : 		strData += "5363" + szCOL;					//	
; 577  : 		break;
; 578  : 	case TRKEY_STRMARKET_5:		//	
; 579  : 		strData += "5306"	+ szDS + strCode + szFS;	//  
; 580  : 		strData += "101306" + szDS + strDate + szFS;	// 
; 581  : 		strData += "1301" + szFS;						//  
; 582  : 		strData += "$101710" + szDS;					//  .
; 583  : 		strData += strGrid;								//  .
; 584  : 		strData += "101302" + szCOL;					//	
; 585  : 		strData += "101367" + szCOL;					//	
; 586  : 		break;
; 587  : 	case TRKEY_STRMARKET_6:		//	
; 588  : 		strData += "1301"	+ szDS + strCode + szFS;	//  
; 589  : 		strData += "101306" + szDS + strDate + szFS;	// 
; 590  : 		strData += "1301" + szFS;						//  
; 591  : 		strData += "$101710" + szDS;					//  .
; 592  : 		strData += strGrid;								//  .
; 593  : 		strData += "101302" + szCOL;					//	
; 594  : 		strData += "101364" + szCOL;					//	
; 595  : 		break;
; 596  : 	case TRKEY_STRMARKET_7:		//	
; 597  : 		strData += "1301"	+ szDS + strCode + szFS;	//  
; 598  : 		strData += "101306" + szDS + strDate + szFS;	// 
; 599  : 		strData += "1301" + szFS;						//  
; 600  : 		strData += "$101610" + szDS;					//  .
; 601  : 		strData += strGrid;								//  .
; 602  : 		strData += "101302" + szCOL;					//	
; 603  : 		strData += "101028" + szCOL;					//	
; 604  : 		break;
; 605  : 	}
; 606  : */
; 607  : //	strData += szFS;
; 608  : //	return strData;
; 609  : }

  00c59	8d 4d 0c	 lea	 ecx, DWORD PTR _strGrid$[ebp]
  00c5c	ff 15 00 00 00
	00		 call	 DWORD PTR __imp_??1?$CStringT@DV?$StrTraitMFC_DLL@DV?$ChTraitsCRT@D@ATL@@@@@ATL@@QAE@XZ
  00c62	8b c3		 mov	 eax, ebx
  00c64	8b 4d f4	 mov	 ecx, DWORD PTR __$EHRec$[ebp]
  00c67	64 89 0d 00 00
	00 00		 mov	 DWORD PTR fs:0, ecx
  00c6e	59		 pop	 ecx
  00c6f	5f		 pop	 edi
  00c70	5e		 pop	 esi
  00c71	5b		 pop	 ebx
  00c72	8b 4d f0	 mov	 ecx, DWORD PTR __$ArrayPad$[ebp]
  00c75	33 cd		 xor	 ecx, ebp
  00c77	e8 00 00 00 00	 call	 @__security_check_cookie@4
  00c7c	8b e5		 mov	 esp, ebp
  00c7e	5d		 pop	 ebp
  00c7f	c2 0c 00	 ret	 12			; 0000000cH
  00c82	66 90		 npad	 2
$LN123@fnStructTy:
  00c84	00 00 00 00	 DD	 $LN10@fnStructTy
  00c88	00 00 00 00	 DD	 $LN11@fnStructTy
  00c8c	00 00 00 00	 DD	 $LN12@fnStructTy
  00c90	00 00 00 00	 DD	 $LN14@fnStructTy
  00c94	00 00 00 00	 DD	 $LN14@fnStructTy
  00c98	00 00 00 00	 DD	 $LN15@fnStructTy
  00c9c	00 00 00 00	 DD	 $LN16@fnStructTy
  00ca0	00 00 00 00	 DD	 $LN17@fnStructTy
  00ca4	00 00 00 00	 DD	 $LN18@fnStructTy
  00ca8	00 00 00 00	 DD	 $LN19@fnStructTy
  00cac	00 00 00 00	 DD	 $LN20@fnStructTy
  00cb0	00 00 00 00	 DD	 $LN21@fnStructTy
  00cb4	00 00 00 00	 DD	 $LN22@fnStructTy
  00cb8	00 00 00 00	 DD	 $LN23@fnStructTy
  00cbc	00 00 00 00	 DD	 $LN24@fnStructTy
  00cc0	00 00 00 00	 DD	 $LN25@fnStructTy
  00cc4	00 00 00 00	 DD	 $LN26@fnStructTy
  00cc8	00 00 00 00	 DD	 $LN27@fnStructTy
  00ccc	00 00 00 00	 DD	 $LN28@fnStructTy
  00cd0	00 00 00 00	 DD	 $LN29@fnStructTy
  00cd4	00 00 00 00	 DD	 $LN30@fnStructTy
  00cd8	00 00 00 00	 DD	 $LN31@fnStructTy
  00cdc	00 00 00 00	 DD	 $LN32@fnStructTy
  00ce0	00 00 00 00	 DD	 $LN33@fnStructTy
  00ce4	00 00 00 00	 DD	 $LN34@fnStructTy
  00ce8	00 00 00 00	 DD	 $LN35@fnStructTy
  00cec	00 00 00 00	 DD	 $LN36@fnStructTy
  00cf0	00 00 00 00	 DD	 $LN37@fnStructTy
  00cf4	00 00 00 00	 DD	 $LN40@fnStructTy
  00cf8	00 00 00 00	 DD	 $LN41@fnStructTy
  00cfc	00 00 00 00	 DD	 $LN42@fnStructTy
  00d00	00 00 00 00	 DD	 $LN43@fnStructTy
  00d04	00 00 00 00	 DD	 $LN44@fnStructTy
  00d08	00 00 00 00	 DD	 $LN45@fnStructTy
  00d0c	00 00 00 00	 DD	 $LN2@fnStructTy
  00d10	00 00 00 00	 DD	 $LN2@fnStructTy
  00d14	00 00 00 00	 DD	 $LN2@fnStructTy
  00d18	00 00 00 00	 DD	 $LN2@fnStructTy
  00d1c	00 00 00 00	 DD	 $LN2@fnStructTy
  00d20	00 00 00 00	 DD	 $LN2@fnStructTy
  00d24	00 00 00 00	 DD	 $LN38@fnStructTy
  00d28	00 00 00 00	 DD	 $LN39@fnStructTy
_TEXT	ENDS
;	COMDAT text$x
text$x	SEGMENT
__unwindfunclet$?fnStructType1@CChartItemMarket@@QAE?AV?$CStringT@DV?$StrTraitMFC_DLL@DV?$ChTraitsCRT@D@ATL@@@@@ATL@@V23@H@Z$0:
  00000	8d 4d 0c	 lea	 ecx, DWORD PTR _strGrid$[ebp]
  00003	ff 25 00 00 00
	00		 jmp	 DWORD PTR __imp_??1?$CStringT@DV?$StrTraitMFC_DLL@DV?$ChTraitsCRT@D@ATL@@@@@ATL@@QAE@XZ
__unwindfunclet$?fnStructType1@CChartItemMarket@@QAE?AV?$CStringT@DV?$StrTraitMFC_DLL@DV?$ChTraitsCRT@D@ATL@@@@@ATL@@V23@H@Z$2:
  00009	8d 8d ac fe ff
	ff		 lea	 ecx, DWORD PTR _szDS$[ebp]
  0000f	ff 25 00 00 00
	00		 jmp	 DWORD PTR __imp_??1?$CStringT@DV?$StrTraitMFC_DLL@DV?$ChTraitsCRT@D@ATL@@@@@ATL@@QAE@XZ
__unwindfunclet$?fnStructType1@CChartItemMarket@@QAE?AV?$CStringT@DV?$StrTraitMFC_DLL@DV?$ChTraitsCRT@D@ATL@@@@@ATL@@V23@H@Z$3:
  00015	8d 8d bc fe ff
	ff		 lea	 ecx, DWORD PTR _szFS$[ebp]
  0001b	ff 25 00 00 00
	00		 jmp	 DWORD PTR __imp_??1?$CStringT@DV?$StrTraitMFC_DLL@DV?$ChTraitsCRT@D@ATL@@@@@ATL@@QAE@XZ
__unwindfunclet$?fnStructType1@CChartItemMarket@@QAE?AV?$CStringT@DV?$StrTraitMFC_DLL@DV?$ChTraitsCRT@D@ATL@@@@@ATL@@V23@H@Z$4:
  00021	8d 8d b0 fe ff
	ff		 lea	 ecx, DWORD PTR _szCOL$[ebp]
  00027	ff 25 00 00 00
	00		 jmp	 DWORD PTR __imp_??1?$CStringT@DV?$StrTraitMFC_DLL@DV?$ChTraitsCRT@D@ATL@@@@@ATL@@QAE@XZ
__unwindfunclet$?fnStructType1@CChartItemMarket@@QAE?AV?$CStringT@DV?$StrTraitMFC_DLL@DV?$ChTraitsCRT@D@ATL@@@@@ATL@@V23@H@Z$5:
  0002d	8d 8d dc fe ff
	ff		 lea	 ecx, DWORD PTR _strData$[ebp]
  00033	ff 25 00 00 00
	00		 jmp	 DWORD PTR __imp_??1?$CStringT@DV?$StrTraitMFC_DLL@DV?$ChTraitsCRT@D@ATL@@@@@ATL@@QAE@XZ
__unwindfunclet$?fnStructType1@CChartItemMarket@@QAE?AV?$CStringT@DV?$StrTraitMFC_DLL@DV?$ChTraitsCRT@D@ATL@@@@@ATL@@V23@H@Z$6:
  00039	8d 8d c0 fe ff
	ff		 lea	 ecx, DWORD PTR _strCode$[ebp]
  0003f	ff 25 00 00 00
	00		 jmp	 DWORD PTR __imp_??1?$CStringT@DV?$StrTraitMFC_DLL@DV?$ChTraitsCRT@D@ATL@@@@@ATL@@QAE@XZ
__unwindfunclet$?fnStructType1@CChartItemMarket@@QAE?AV?$CStringT@DV?$StrTraitMFC_DLL@DV?$ChTraitsCRT@D@ATL@@@@@ATL@@V23@H@Z$7:
  00045	8d 8d a8 fe ff
	ff		 lea	 ecx, DWORD PTR _strTemp$[ebp]
  0004b	ff 25 00 00 00
	00		 jmp	 DWORD PTR __imp_??1?$CStringT@DV?$StrTraitMFC_DLL@DV?$ChTraitsCRT@D@ATL@@@@@ATL@@QAE@XZ
__unwindfunclet$?fnStructType1@CChartItemMarket@@QAE?AV?$CStringT@DV?$StrTraitMFC_DLL@DV?$ChTraitsCRT@D@ATL@@@@@ATL@@V23@H@Z$8:
  00051	8d 8d c4 fe ff
	ff		 lea	 ecx, DWORD PTR _strDate$[ebp]
  00057	ff 25 00 00 00
	00		 jmp	 DWORD PTR __imp_??1?$CStringT@DV?$StrTraitMFC_DLL@DV?$ChTraitsCRT@D@ATL@@@@@ATL@@QAE@XZ
__unwindfunclet$?fnStructType1@CChartItemMarket@@QAE?AV?$CStringT@DV?$StrTraitMFC_DLL@DV?$ChTraitsCRT@D@ATL@@@@@ATL@@V23@H@Z$9:
  0005d	8d 8d 9c fe ff
	ff		 lea	 ecx, DWORD PTR _strNow$[ebp]
  00063	ff 25 00 00 00
	00		 jmp	 DWORD PTR __imp_??1?$CStringT@DV?$StrTraitMFC_DLL@DV?$ChTraitsCRT@D@ATL@@@@@ATL@@QAE@XZ
__unwindfunclet$?fnStructType1@CChartItemMarket@@QAE?AV?$CStringT@DV?$StrTraitMFC_DLL@DV?$ChTraitsCRT@D@ATL@@@@@ATL@@V23@H@Z$10:
  00069	8d 8d b4 fe ff
	ff		 lea	 ecx, DWORD PTR _strUnit$[ebp]
  0006f	ff 25 00 00 00
	00		 jmp	 DWORD PTR __imp_??1?$CStringT@DV?$StrTraitMFC_DLL@DV?$ChTraitsCRT@D@ATL@@@@@ATL@@QAE@XZ
__unwindfunclet$?fnStructType1@CChartItemMarket@@QAE?AV?$CStringT@DV?$StrTraitMFC_DLL@DV?$ChTraitsCRT@D@ATL@@@@@ATL@@V23@H@Z$11:
  00075	8d 8d a0 fe ff
	ff		 lea	 ecx, DWORD PTR _strTime$[ebp]
  0007b	ff 25 00 00 00
	00		 jmp	 DWORD PTR __imp_??1?$CStringT@DV?$StrTraitMFC_DLL@DV?$ChTraitsCRT@D@ATL@@@@@ATL@@QAE@XZ
__unwindfunclet$?fnStructType1@CChartItemMarket@@QAE?AV?$CStringT@DV?$StrTraitMFC_DLL@DV?$ChTraitsCRT@D@ATL@@@@@ATL@@V23@H@Z$12:
  00081	8d 8d a4 fe ff
	ff		 lea	 ecx, DWORD PTR _strImgRgb$[ebp]
  00087	ff 25 00 00 00
	00		 jmp	 DWORD PTR __imp_??1?$CStringT@DV?$StrTraitMFC_DLL@DV?$ChTraitsCRT@D@ATL@@@@@ATL@@QAE@XZ
__unwindfunclet$?fnStructType1@CChartItemMarket@@QAE?AV?$CStringT@DV?$StrTraitMFC_DLL@DV?$ChTraitsCRT@D@ATL@@@@@ATL@@V23@H@Z$13:
  0008d	8d 8d cc fe ff
	ff		 lea	 ecx, DWORD PTR _stNextKey$[ebp]
  00093	ff 25 00 00 00
	00		 jmp	 DWORD PTR __imp_??1?$CStringT@DV?$StrTraitMFC_DLL@DV?$ChTraitsCRT@D@ATL@@@@@ATL@@QAE@XZ
__unwindfunclet$?fnStructType1@CChartItemMarket@@QAE?AV?$CStringT@DV?$StrTraitMFC_DLL@DV?$ChTraitsCRT@D@ATL@@@@@ATL@@V23@H@Z$14:
  00099	8d 8d d4 fe ff
	ff		 lea	 ecx, DWORD PTR _stNextData$[ebp]
  0009f	ff 25 00 00 00
	00		 jmp	 DWORD PTR __imp_??1?$CStringT@DV?$StrTraitMFC_DLL@DV?$ChTraitsCRT@D@ATL@@@@@ATL@@QAE@XZ
__unwindfunclet$?fnStructType1@CChartItemMarket@@QAE?AV?$CStringT@DV?$StrTraitMFC_DLL@DV?$ChTraitsCRT@D@ATL@@@@@ATL@@V23@H@Z$15:
  000a5	8d 8d c8 fe ff
	ff		 lea	 ecx, DWORD PTR $T3[ebp]
  000ab	ff 25 00 00 00
	00		 jmp	 DWORD PTR __imp_??1?$CStringT@DV?$StrTraitMFC_DLL@DV?$ChTraitsCRT@D@ATL@@@@@ATL@@QAE@XZ
__unwindfunclet$?fnStructType1@CChartItemMarket@@QAE?AV?$CStringT@DV?$StrTraitMFC_DLL@DV?$ChTraitsCRT@D@ATL@@@@@ATL@@V23@H@Z$16:
  000b1	8d 8d c8 fe ff
	ff		 lea	 ecx, DWORD PTR $T2[ebp]
  000b7	ff 25 00 00 00
	00		 jmp	 DWORD PTR __imp_??1?$CStringT@DV?$StrTraitMFC_DLL@DV?$ChTraitsCRT@D@ATL@@@@@ATL@@QAE@XZ
__unwindfunclet$?fnStructType1@CChartItemMarket@@QAE?AV?$CStringT@DV?$StrTraitMFC_DLL@DV?$ChTraitsCRT@D@ATL@@@@@ATL@@V23@H@Z$17:
  000bd	8d 8d d0 fe ff
	ff		 lea	 ecx, DWORD PTR _stRowData$5[ebp]
  000c3	ff 25 00 00 00
	00		 jmp	 DWORD PTR __imp_??1?$CStringT@DV?$StrTraitMFC_DLL@DV?$ChTraitsCRT@D@ATL@@@@@ATL@@QAE@XZ
__unwindfunclet$?fnStructType1@CChartItemMarket@@QAE?AV?$CStringT@DV?$StrTraitMFC_DLL@DV?$ChTraitsCRT@D@ATL@@@@@ATL@@V23@H@Z$18:
  000c9	8d 8d d8 fe ff
	ff		 lea	 ecx, DWORD PTR _temp$7[ebp]
  000cf	ff 25 00 00 00
	00		 jmp	 DWORD PTR __imp_??1?$CStringT@DV?$StrTraitMFC_DLL@DV?$ChTraitsCRT@D@ATL@@@@@ATL@@QAE@XZ
__unwindfunclet$?fnStructType1@CChartItemMarket@@QAE?AV?$CStringT@DV?$StrTraitMFC_DLL@DV?$ChTraitsCRT@D@ATL@@@@@ATL@@V23@H@Z$19:
  000d5	8d 8d d0 fe ff
	ff		 lea	 ecx, DWORD PTR _stRowData$4[ebp]
  000db	ff 25 00 00 00
	00		 jmp	 DWORD PTR __imp_??1?$CStringT@DV?$StrTraitMFC_DLL@DV?$ChTraitsCRT@D@ATL@@@@@ATL@@QAE@XZ
__unwindfunclet$?fnStructType1@CChartItemMarket@@QAE?AV?$CStringT@DV?$StrTraitMFC_DLL@DV?$ChTraitsCRT@D@ATL@@@@@ATL@@V23@H@Z$20:
  000e1	8d 8d d8 fe ff
	ff		 lea	 ecx, DWORD PTR _temp$6[ebp]
  000e7	ff 25 00 00 00
	00		 jmp	 DWORD PTR __imp_??1?$CStringT@DV?$StrTraitMFC_DLL@DV?$ChTraitsCRT@D@ATL@@@@@ATL@@QAE@XZ
  000ed	cc		 int	 3
  000ee	cc		 int	 3
  000ef	cc		 int	 3
  000f0	cc		 int	 3
  000f1	cc		 int	 3
__ehhandler$?fnStructType1@CChartItemMarket@@QAE?AV?$CStringT@DV?$StrTraitMFC_DLL@DV?$ChTraitsCRT@D@ATL@@@@@ATL@@V23@H@Z:
  000f2	90		 npad	 1
  000f3	90		 npad	 1
  000f4	8b 54 24 08	 mov	 edx, DWORD PTR [esp+8]
  000f8	8d 42 0c	 lea	 eax, DWORD PTR [edx+12]
  000fb	8b 8a 98 fe ff
	ff		 mov	 ecx, DWORD PTR [edx-360]
  00101	33 c8		 xor	 ecx, eax
  00103	e8 00 00 00 00	 call	 @__security_check_cookie@4
  00108	8b 4a fc	 mov	 ecx, DWORD PTR [edx-4]
  0010b	33 c8		 xor	 ecx, eax
  0010d	e8 00 00 00 00	 call	 @__security_check_cookie@4
  00112	b8 00 00 00 00	 mov	 eax, OFFSET __ehfuncinfo$?fnStructType1@CChartItemMarket@@QAE?AV?$CStringT@DV?$StrTraitMFC_DLL@DV?$ChTraitsCRT@D@ATL@@@@@ATL@@V23@H@Z
  00117	e9 00 00 00 00	 jmp	 ___CxxFrameHandler3
text$x	ENDS
?fnStructType1@CChartItemMarket@@QAE?AV?$CStringT@DV?$StrTraitMFC_DLL@DV?$ChTraitsCRT@D@ATL@@@@@ATL@@V23@H@Z ENDP ; CChartItemMarket::fnStructType1
; Function compile flags: /Ogtp
; File D:\git\src\IBK\IBK_DRFN\ProjSrc\SrcDrfn\DrCommon\PartnerMng\ChartItemMarket.cpp
;	COMDAT ?GetSendDataType@CChartItemMarket@@QAE?AV?$CStringT@DV?$StrTraitMFC_DLL@DV?$ChTraitsCRT@D@ATL@@@@@ATL@@H@Z
_TEXT	SEGMENT
$T2 = -16						; size = 4
__$EHRec$ = -12						; size = 12
___$ReturnUdt$ = 8					; size = 4
_nType$ = 12						; size = 4
?GetSendDataType@CChartItemMarket@@QAE?AV?$CStringT@DV?$StrTraitMFC_DLL@DV?$ChTraitsCRT@D@ATL@@@@@ATL@@H@Z PROC ; CChartItemMarket::GetSendDataType, COMDAT
; _this$ = ecx

; 159  : {

  00000	55		 push	 ebp
  00001	8b ec		 mov	 ebp, esp
  00003	6a ff		 push	 -1
  00005	68 00 00 00 00	 push	 __ehhandler$?GetSendDataType@CChartItemMarket@@QAE?AV?$CStringT@DV?$StrTraitMFC_DLL@DV?$ChTraitsCRT@D@ATL@@@@@ATL@@H@Z
  0000a	64 a1 00 00 00
	00		 mov	 eax, DWORD PTR fs:0
  00010	50		 push	 eax
  00011	51		 push	 ecx
  00012	56		 push	 esi
  00013	a1 00 00 00 00	 mov	 eax, DWORD PTR ___security_cookie
  00018	33 c5		 xor	 eax, ebp
  0001a	50		 push	 eax
  0001b	8d 45 f4	 lea	 eax, DWORD PTR __$EHRec$[ebp]
  0001e	64 a3 00 00 00
	00		 mov	 DWORD PTR fs:0, eax
  00024	c7 45 f0 00 00
	00 00		 mov	 DWORD PTR $T2[ebp], 0

; 160  : 	CString strTemp;

  0002b	8b 75 08	 mov	 esi, DWORD PTR ___$ReturnUdt$[ebp]
  0002e	8b ce		 mov	 ecx, esi
  00030	ff 15 00 00 00
	00		 call	 DWORD PTR __imp_??0?$CStringT@DV?$StrTraitMFC_DLL@DV?$ChTraitsCRT@D@ATL@@@@@ATL@@QAE@XZ

; 161  : 	strTemp.Format(_T("%s"), szSendTypeTitle[nType-TRKEY_STRMARKET_0]);
; 162  : 
; 163  : 	return strTemp;

  00036	8b 4d 0c	 mov	 ecx, DWORD PTR _nType$[ebp]
  00039	c7 45 fc 00 00
	00 00		 mov	 DWORD PTR __$EHRec$[ebp+8], 0
  00040	c7 45 f0 01 00
	00 00		 mov	 DWORD PTR $T2[ebp], 1
  00047	ff 34 8d a8 fd
	ff ff		 push	 DWORD PTR ?szSendTypeTitle@@3PAPADA[ecx*4-600]
  0004e	68 00 00 00 00	 push	 OFFSET ??_C@_02DKCKIIND@?$CFs@
  00053	56		 push	 esi
  00054	ff 15 00 00 00
	00		 call	 DWORD PTR __imp_?Format@?$CStringT@DV?$StrTraitMFC_DLL@DV?$ChTraitsCRT@D@ATL@@@@@ATL@@QAAXPBDZZ
  0005a	83 c4 0c	 add	 esp, 12			; 0000000cH
  0005d	8b c6		 mov	 eax, esi

; 164  : }

  0005f	8b 4d f4	 mov	 ecx, DWORD PTR __$EHRec$[ebp]
  00062	64 89 0d 00 00
	00 00		 mov	 DWORD PTR fs:0, ecx
  00069	59		 pop	 ecx
  0006a	5e		 pop	 esi
  0006b	8b e5		 mov	 esp, ebp
  0006d	5d		 pop	 ebp
  0006e	c2 08 00	 ret	 8
_TEXT	ENDS
;	COMDAT text$x
text$x	SEGMENT
__unwindfunclet$?GetSendDataType@CChartItemMarket@@QAE?AV?$CStringT@DV?$StrTraitMFC_DLL@DV?$ChTraitsCRT@D@ATL@@@@@ATL@@H@Z$0:
  00000	8b 45 f0	 mov	 eax, DWORD PTR $T2[ebp]
  00003	83 e0 01	 and	 eax, 1
  00006	0f 84 0d 00 00
	00		 je	 $LN4@GetSendDat
  0000c	83 65 f0 fe	 and	 DWORD PTR $T2[ebp], -2	; fffffffeH
  00010	8b 4d 08	 mov	 ecx, DWORD PTR ___$ReturnUdt$[ebp]
  00013	ff 25 00 00 00
	00		 jmp	 DWORD PTR __imp_??1?$CStringT@DV?$StrTraitMFC_DLL@DV?$ChTraitsCRT@D@ATL@@@@@ATL@@QAE@XZ
$LN4@GetSendDat:
  00019	c3		 ret	 0
  0001a	cc		 int	 3
  0001b	cc		 int	 3
  0001c	cc		 int	 3
  0001d	cc		 int	 3
  0001e	cc		 int	 3
__ehhandler$?GetSendDataType@CChartItemMarket@@QAE?AV?$CStringT@DV?$StrTraitMFC_DLL@DV?$ChTraitsCRT@D@ATL@@@@@ATL@@H@Z:
  0001f	90		 npad	 1
  00020	90		 npad	 1
  00021	8b 54 24 08	 mov	 edx, DWORD PTR [esp+8]
  00025	8d 42 0c	 lea	 eax, DWORD PTR [edx+12]
  00028	8b 4a f4	 mov	 ecx, DWORD PTR [edx-12]
  0002b	33 c8		 xor	 ecx, eax
  0002d	e8 00 00 00 00	 call	 @__security_check_cookie@4
  00032	b8 00 00 00 00	 mov	 eax, OFFSET __ehfuncinfo$?GetSendDataType@CChartItemMarket@@QAE?AV?$CStringT@DV?$StrTraitMFC_DLL@DV?$ChTraitsCRT@D@ATL@@@@@ATL@@H@Z
  00037	e9 00 00 00 00	 jmp	 ___CxxFrameHandler3
text$x	ENDS
?GetSendDataType@CChartItemMarket@@QAE?AV?$CStringT@DV?$StrTraitMFC_DLL@DV?$ChTraitsCRT@D@ATL@@@@@ATL@@H@Z ENDP ; CChartItemMarket::GetSendDataType
; Function compile flags: /Ogtp
; File D:\git\src\IBK\IBK_DRFN\ProjSrc\SrcDrfn\DrCommon\PartnerMng\ChartItemMarket.cpp
;	COMDAT ?GetSendDataType@CChartItemMarket@@QAEHXZ
_TEXT	SEGMENT
$T2 = -20						; size = 4
_strTemp$ = -16						; size = 4
__$EHRec$ = -12						; size = 12
?GetSendDataType@CChartItemMarket@@QAEHXZ PROC		; CChartItemMarket::GetSendDataType, COMDAT
; _this$ = ecx

; 59   : {

  00000	55		 push	 ebp
  00001	8b ec		 mov	 ebp, esp
  00003	6a ff		 push	 -1
  00005	68 00 00 00 00	 push	 __ehhandler$?GetSendDataType@CChartItemMarket@@QAEHXZ
  0000a	64 a1 00 00 00
	00		 mov	 eax, DWORD PTR fs:0
  00010	50		 push	 eax
  00011	83 ec 08	 sub	 esp, 8
  00014	56		 push	 esi
  00015	a1 00 00 00 00	 mov	 eax, DWORD PTR ___security_cookie
  0001a	33 c5		 xor	 eax, ebp
  0001c	50		 push	 eax
  0001d	8d 45 f4	 lea	 eax, DWORD PTR __$EHRec$[ebp]
  00020	64 a3 00 00 00
	00		 mov	 DWORD PTR fs:0, eax
  00026	8b f1		 mov	 esi, ecx

; 60   : 	CString strTemp;

  00028	8d 4d f0	 lea	 ecx, DWORD PTR _strTemp$[ebp]
  0002b	ff 15 00 00 00
	00		 call	 DWORD PTR __imp_??0?$CStringT@DV?$StrTraitMFC_DLL@DV?$ChTraitsCRT@D@ATL@@@@@ATL@@QAE@XZ

; 61   : 	strTemp = CString(m_InData.dataNm, sizeof(m_InData.dataNm));

  00031	6a 64		 push	 100			; 00000064H
  00033	8d 46 23	 lea	 eax, DWORD PTR [esi+35]
  00036	c7 45 fc 00 00
	00 00		 mov	 DWORD PTR __$EHRec$[ebp+8], 0
  0003d	50		 push	 eax
  0003e	8d 4d ec	 lea	 ecx, DWORD PTR $T2[ebp]
  00041	ff 15 00 00 00
	00		 call	 DWORD PTR __imp_??0?$CStringT@DV?$StrTraitMFC_DLL@DV?$ChTraitsCRT@D@ATL@@@@@ATL@@QAE@PBDH@Z
  00047	50		 push	 eax
  00048	8d 4d f0	 lea	 ecx, DWORD PTR _strTemp$[ebp]
  0004b	c6 45 fc 01	 mov	 BYTE PTR __$EHRec$[ebp+8], 1
  0004f	ff 15 00 00 00
	00		 call	 DWORD PTR __imp_??4?$CStringT@DV?$StrTraitMFC_DLL@DV?$ChTraitsCRT@D@ATL@@@@@ATL@@QAEAAV01@ABV01@@Z
  00055	8d 4d ec	 lea	 ecx, DWORD PTR $T2[ebp]
  00058	ff 15 00 00 00
	00		 call	 DWORD PTR __imp_??1?$CStringT@DV?$StrTraitMFC_DLL@DV?$ChTraitsCRT@D@ATL@@@@@ATL@@QAE@XZ

; 62   : 
; 63   : #ifdef __MULTI_LANG__
; 64   : 	if (strTemp.Find(_T("_OrganPureBuyAccumulation_")) >= 0)	return TRKEY_STRMARKET_0;

  0005e	6a 00		 push	 0
  00060	68 00 00 00 00	 push	 OFFSET ??_C@_0BL@OECHFEPE@_OrganPureBuyAccumulation_@
  00065	8d 4d f0	 lea	 ecx, DWORD PTR _strTemp$[ebp]
  00068	ff 15 00 00 00
	00		 call	 DWORD PTR __imp_?Find@?$CStringT@DV?$StrTraitMFC_DLL@DV?$ChTraitsCRT@D@ATL@@@@@ATL@@QBEHPBDH@Z
  0006e	85 c0		 test	 eax, eax
  00070	78 0a		 js	 SHORT $LN2@GetSendDat
  00072	be 96 00 00 00	 mov	 esi, 150		; 00000096H
  00077	e9 0e 04 00 00	 jmp	 $LN111@GetSendDat
$LN2@GetSendDat:

; 65   : 	else if (strTemp.Find(_T("_OrganPureBuy_")) >= 0)			return TRKEY_STRMARKET_1;

  0007c	6a 00		 push	 0
  0007e	68 00 00 00 00	 push	 OFFSET ??_C@_0P@JAPLGBGJ@_OrganPureBuy_@
  00083	8d 4d f0	 lea	 ecx, DWORD PTR _strTemp$[ebp]
  00086	ff 15 00 00 00
	00		 call	 DWORD PTR __imp_?Find@?$CStringT@DV?$StrTraitMFC_DLL@DV?$ChTraitsCRT@D@ATL@@@@@ATL@@QBEHPBDH@Z
  0008c	85 c0		 test	 eax, eax
  0008e	78 0a		 js	 SHORT $LN4@GetSendDat
  00090	be 97 00 00 00	 mov	 esi, 151		; 00000097H
  00095	e9 f0 03 00 00	 jmp	 $LN111@GetSendDat
$LN4@GetSendDat:

; 66   : 	else if (strTemp.Find(_T("_SuspenseContract_")) >= 0)		return TRKEY_STRMARKET_2;

  0009a	6a 00		 push	 0
  0009c	68 00 00 00 00	 push	 OFFSET ??_C@_0BD@CGLPLIKA@_SuspenseContract_@
  000a1	8d 4d f0	 lea	 ecx, DWORD PTR _strTemp$[ebp]
  000a4	ff 15 00 00 00
	00		 call	 DWORD PTR __imp_?Find@?$CStringT@DV?$StrTraitMFC_DLL@DV?$ChTraitsCRT@D@ATL@@@@@ATL@@QBEHPBDH@Z
  000aa	85 c0		 test	 eax, eax
  000ac	78 0a		 js	 SHORT $LN6@GetSendDat
  000ae	be 98 00 00 00	 mov	 esi, 152		; 00000098H
  000b3	e9 d2 03 00 00	 jmp	 $LN111@GetSendDat
$LN6@GetSendDat:

; 67   : 	else if (strTemp.Find(_T("_TotalAmount_")) >= 0)			return TRKEY_STRMARKET_3;

  000b8	6a 00		 push	 0
  000ba	68 00 00 00 00	 push	 OFFSET ??_C@_0O@HEEDFHAD@_TotalAmount_@
  000bf	8d 4d f0	 lea	 ecx, DWORD PTR _strTemp$[ebp]
  000c2	ff 15 00 00 00
	00		 call	 DWORD PTR __imp_?Find@?$CStringT@DV?$StrTraitMFC_DLL@DV?$ChTraitsCRT@D@ATL@@@@@ATL@@QBEHPBDH@Z
  000c8	85 c0		 test	 eax, eax
  000ca	78 0a		 js	 SHORT $LN8@GetSendDat
  000cc	be 99 00 00 00	 mov	 esi, 153		; 00000099H
  000d1	e9 b4 03 00 00	 jmp	 $LN111@GetSendDat
$LN8@GetSendDat:

; 68   : 	else if (strTemp.Find(_T("_Foreign Holding_")) >= 0)			return TRKEY_STRMARKET_4;

  000d6	6a 00		 push	 0
  000d8	68 00 00 00 00	 push	 OFFSET ??_C@_0BC@FAJJAKC@_Foreign?5Holding_@
  000dd	8d 4d f0	 lea	 ecx, DWORD PTR _strTemp$[ebp]
  000e0	ff 15 00 00 00
	00		 call	 DWORD PTR __imp_?Find@?$CStringT@DV?$StrTraitMFC_DLL@DV?$ChTraitsCRT@D@ATL@@@@@ATL@@QBEHPBDH@Z
  000e6	85 c0		 test	 eax, eax
  000e8	78 0a		 js	 SHORT $LN10@GetSendDat
  000ea	be 9a 00 00 00	 mov	 esi, 154		; 0000009aH
  000ef	e9 96 03 00 00	 jmp	 $LN111@GetSendDat
$LN10@GetSendDat:

; 69   : 	else if (strTemp.Find(_T("_Foreign Holding Rate_")) >= 0)		return TRKEY_STRMARKET_5;

  000f4	6a 00		 push	 0
  000f6	68 00 00 00 00	 push	 OFFSET ??_C@_0BH@KNFHMKMA@_Foreign?5Holding?5Rate_@
  000fb	8d 4d f0	 lea	 ecx, DWORD PTR _strTemp$[ebp]
  000fe	ff 15 00 00 00
	00		 call	 DWORD PTR __imp_?Find@?$CStringT@DV?$StrTraitMFC_DLL@DV?$ChTraitsCRT@D@ATL@@@@@ATL@@QBEHPBDH@Z
  00104	85 c0		 test	 eax, eax
  00106	78 0a		 js	 SHORT $LN12@GetSendDat
  00108	be 9b 00 00 00	 mov	 esi, 155		; 0000009bH
  0010d	e9 78 03 00 00	 jmp	 $LN111@GetSendDat
$LN12@GetSendDat:

; 70   : 	else if (strTemp.Find(_T("_Foreign Pure Buy_")) >= 0)			return TRKEY_STRMARKET_6;

  00112	6a 00		 push	 0
  00114	68 00 00 00 00	 push	 OFFSET ??_C@_0BD@CNJJJHHG@_Foreign?5Pure?5Buy_@
  00119	8d 4d f0	 lea	 ecx, DWORD PTR _strTemp$[ebp]
  0011c	ff 15 00 00 00
	00		 call	 DWORD PTR __imp_?Find@?$CStringT@DV?$StrTraitMFC_DLL@DV?$ChTraitsCRT@D@ATL@@@@@ATL@@QBEHPBDH@Z
  00122	85 c0		 test	 eax, eax
  00124	78 0a		 js	 SHORT $LN14@GetSendDat
  00126	be 9c 00 00 00	 mov	 esi, 156		; 0000009cH
  0012b	e9 5a 03 00 00	 jmp	 $LN111@GetSendDat
$LN14@GetSendDat:

; 71   : 	else if (strTemp.Find(_T("_ForeignPureBuyAccumulation_")) >= 0)			return TRKEY_STRMARKET_7;

  00130	6a 00		 push	 0
  00132	68 00 00 00 00	 push	 OFFSET ??_C@_0BN@HHAODJDD@_ForeignPureBuyAccumulation_@
  00137	8d 4d f0	 lea	 ecx, DWORD PTR _strTemp$[ebp]
  0013a	ff 15 00 00 00
	00		 call	 DWORD PTR __imp_?Find@?$CStringT@DV?$StrTraitMFC_DLL@DV?$ChTraitsCRT@D@ATL@@@@@ATL@@QBEHPBDH@Z
  00140	85 c0		 test	 eax, eax
  00142	78 0a		 js	 SHORT $LN16@GetSendDat
  00144	be 9d 00 00 00	 mov	 esi, 157		; 0000009dH
  00149	e9 3c 03 00 00	 jmp	 $LN111@GetSendDat
$LN16@GetSendDat:

; 72   : 	else if (strTemp.Find(_T("_Person PureBuy Accumulation_")) >= 0)		return TRKEY_STRMARKET_8;

  0014e	6a 00		 push	 0
  00150	68 00 00 00 00	 push	 OFFSET ??_C@_0BO@MJBECKCF@_Person?5PureBuy?5Accumulation_@
  00155	8d 4d f0	 lea	 ecx, DWORD PTR _strTemp$[ebp]
  00158	ff 15 00 00 00
	00		 call	 DWORD PTR __imp_?Find@?$CStringT@DV?$StrTraitMFC_DLL@DV?$ChTraitsCRT@D@ATL@@@@@ATL@@QBEHPBDH@Z
  0015e	85 c0		 test	 eax, eax
  00160	78 0a		 js	 SHORT $LN18@GetSendDat
  00162	be 9e 00 00 00	 mov	 esi, 158		; 0000009eH
  00167	e9 1e 03 00 00	 jmp	 $LN111@GetSendDat
$LN18@GetSendDat:

; 73   : 	else if (strTemp.Find(_T("_Person PureBuy_")) >= 0)		return TRKEY_STRMARKET_9;

  0016c	6a 00		 push	 0
  0016e	68 00 00 00 00	 push	 OFFSET ??_C@_0BB@LFJOBAIN@_Person?5PureBuy_@
  00173	8d 4d f0	 lea	 ecx, DWORD PTR _strTemp$[ebp]
  00176	ff 15 00 00 00
	00		 call	 DWORD PTR __imp_?Find@?$CStringT@DV?$StrTraitMFC_DLL@DV?$ChTraitsCRT@D@ATL@@@@@ATL@@QBEHPBDH@Z
  0017c	85 c0		 test	 eax, eax
  0017e	78 0a		 js	 SHORT $LN20@GetSendDat
  00180	be 9f 00 00 00	 mov	 esi, 159		; 0000009fH
  00185	e9 00 03 00 00	 jmp	 $LN111@GetSendDat
$LN20@GetSendDat:

; 74   : 	//	 : IBK  
; 75   : //	else if (strTemp.Find(_T("_KspPureBuy_Person_")) >= 0)		return TRKEY_STRMARKET_8;
; 76   : //	else if (strTemp.Find(_T("_KdqPureBuy_Person_")) >= 0)		return TRKEY_STRMARKET_9;
; 77   : //	else if (strTemp.Find(_T("_K200PureBuy_Person_")) >= 0)		return TRKEY_STRMARKET_10;
; 78   : //	else if (strTemp.Find(_T("_FutPureBuy_Person_")) >= 0)		return TRKEY_STRMARKET_11;
; 79   : //	else if (strTemp.Find(_T("_COptPureBuy_Person_")) >= 0)		return TRKEY_STRMARKET_12;
; 80   : //	else if (strTemp.Find(_T("_POptPureBuy_Person_")) >= 0)		return TRKEY_STRMARKET_13;
; 81   : 	// 
; 82   : 	else if (strTemp.Find(_T("_OrganFinancePureBuy_")) >= 0)			return TRKEY_STRMARKET_10;

  0018a	6a 00		 push	 0
  0018c	68 00 00 00 00	 push	 OFFSET ??_C@_0BG@BABEMLN@_OrganFinancePureBuy_@
  00191	8d 4d f0	 lea	 ecx, DWORD PTR _strTemp$[ebp]
  00194	ff 15 00 00 00
	00		 call	 DWORD PTR __imp_?Find@?$CStringT@DV?$StrTraitMFC_DLL@DV?$ChTraitsCRT@D@ATL@@@@@ATL@@QBEHPBDH@Z
  0019a	85 c0		 test	 eax, eax
  0019c	78 0a		 js	 SHORT $LN22@GetSendDat
  0019e	be a0 00 00 00	 mov	 esi, 160		; 000000a0H
  001a3	e9 e2 02 00 00	 jmp	 $LN111@GetSendDat
$LN22@GetSendDat:

; 83   : 	else if (strTemp.Find(_T("_OrganInsurePureBuy_")) >= 0)				return TRKEY_STRMARKET_11;

  001a8	6a 00		 push	 0
  001aa	68 00 00 00 00	 push	 OFFSET ??_C@_0BF@JPPGAEFL@_OrganInsurePureBuy_@
  001af	8d 4d f0	 lea	 ecx, DWORD PTR _strTemp$[ebp]
  001b2	ff 15 00 00 00
	00		 call	 DWORD PTR __imp_?Find@?$CStringT@DV?$StrTraitMFC_DLL@DV?$ChTraitsCRT@D@ATL@@@@@ATL@@QBEHPBDH@Z
  001b8	85 c0		 test	 eax, eax
  001ba	78 0a		 js	 SHORT $LN24@GetSendDat
  001bc	be a1 00 00 00	 mov	 esi, 161		; 000000a1H
  001c1	e9 c4 02 00 00	 jmp	 $LN111@GetSendDat
$LN24@GetSendDat:

; 84   : 	else if (strTemp.Find(_T("_OrganInvestmentPureBuy_")) >= 0)			return TRKEY_STRMARKET_12;

  001c6	6a 00		 push	 0
  001c8	68 00 00 00 00	 push	 OFFSET ??_C@_0BJ@HEFALDAD@_OrganInvestmentPureBuy_@
  001cd	8d 4d f0	 lea	 ecx, DWORD PTR _strTemp$[ebp]
  001d0	ff 15 00 00 00
	00		 call	 DWORD PTR __imp_?Find@?$CStringT@DV?$StrTraitMFC_DLL@DV?$ChTraitsCRT@D@ATL@@@@@ATL@@QBEHPBDH@Z
  001d6	85 c0		 test	 eax, eax
  001d8	78 0a		 js	 SHORT $LN26@GetSendDat
  001da	be a2 00 00 00	 mov	 esi, 162		; 000000a2H
  001df	e9 a6 02 00 00	 jmp	 $LN111@GetSendDat
$LN26@GetSendDat:

; 85   : 	else if (strTemp.Find(_T("_OrganBankPureBuy_")) >= 0)				return TRKEY_STRMARKET_13;

  001e4	6a 00		 push	 0
  001e6	68 00 00 00 00	 push	 OFFSET ??_C@_0BD@FEBNECAE@_OrganBankPureBuy_@
  001eb	8d 4d f0	 lea	 ecx, DWORD PTR _strTemp$[ebp]
  001ee	ff 15 00 00 00
	00		 call	 DWORD PTR __imp_?Find@?$CStringT@DV?$StrTraitMFC_DLL@DV?$ChTraitsCRT@D@ATL@@@@@ATL@@QBEHPBDH@Z
  001f4	85 c0		 test	 eax, eax
  001f6	78 0a		 js	 SHORT $LN28@GetSendDat
  001f8	be a3 00 00 00	 mov	 esi, 163		; 000000a3H
  001fd	e9 88 02 00 00	 jmp	 $LN111@GetSendDat
$LN28@GetSendDat:

; 86   : 	else if (strTemp.Find(_T("_OrganEtcFinancePureBuy_")) >= 0)			return TRKEY_STRMARKET_14;

  00202	6a 00		 push	 0
  00204	68 00 00 00 00	 push	 OFFSET ??_C@_0BJ@KIPDOAH@_OrganEtcFinancePureBuy_@
  00209	8d 4d f0	 lea	 ecx, DWORD PTR _strTemp$[ebp]
  0020c	ff 15 00 00 00
	00		 call	 DWORD PTR __imp_?Find@?$CStringT@DV?$StrTraitMFC_DLL@DV?$ChTraitsCRT@D@ATL@@@@@ATL@@QBEHPBDH@Z
  00212	85 c0		 test	 eax, eax
  00214	78 0a		 js	 SHORT $LN30@GetSendDat
  00216	be a4 00 00 00	 mov	 esi, 164		; 000000a4H
  0021b	e9 6a 02 00 00	 jmp	 $LN111@GetSendDat
$LN30@GetSendDat:

; 87   : 	else if (strTemp.Find(_T("_OrganPensionFundPureBuy_")) >= 0)		return TRKEY_STRMARKET_15;

  00220	6a 00		 push	 0
  00222	68 00 00 00 00	 push	 OFFSET ??_C@_0BK@CKDMLBFF@_OrganPensionFundPureBuy_@
  00227	8d 4d f0	 lea	 ecx, DWORD PTR _strTemp$[ebp]
  0022a	ff 15 00 00 00
	00		 call	 DWORD PTR __imp_?Find@?$CStringT@DV?$StrTraitMFC_DLL@DV?$ChTraitsCRT@D@ATL@@@@@ATL@@QBEHPBDH@Z
  00230	85 c0		 test	 eax, eax
  00232	78 0a		 js	 SHORT $LN32@GetSendDat
  00234	be a5 00 00 00	 mov	 esi, 165		; 000000a5H
  00239	e9 4c 02 00 00	 jmp	 $LN111@GetSendDat
$LN32@GetSendDat:

; 88   : 	else if (strTemp.Find(_T("_OrganEtcCorpPureBuy_")) >= 0)			return TRKEY_STRMARKET_16;

  0023e	6a 00		 push	 0
  00240	68 00 00 00 00	 push	 OFFSET ??_C@_0BG@MBCHIGCB@_OrganEtcCorpPureBuy_@
  00245	8d 4d f0	 lea	 ecx, DWORD PTR _strTemp$[ebp]
  00248	ff 15 00 00 00
	00		 call	 DWORD PTR __imp_?Find@?$CStringT@DV?$StrTraitMFC_DLL@DV?$ChTraitsCRT@D@ATL@@@@@ATL@@QBEHPBDH@Z
  0024e	85 c0		 test	 eax, eax
  00250	78 0a		 js	 SHORT $LN34@GetSendDat
  00252	be a6 00 00 00	 mov	 esi, 166		; 000000a6H
  00257	e9 2e 02 00 00	 jmp	 $LN111@GetSendDat
$LN34@GetSendDat:

; 89   : 	else if (strTemp.Find(_T("_OrganPrivateEquityPureBuy_")) >= 0)		return TRKEY_STRMARKET_17;

  0025c	6a 00		 push	 0
  0025e	68 00 00 00 00	 push	 OFFSET ??_C@_0BM@IEILLOBM@_OrganPrivateEquityPureBuy_@
  00263	8d 4d f0	 lea	 ecx, DWORD PTR _strTemp$[ebp]
  00266	ff 15 00 00 00
	00		 call	 DWORD PTR __imp_?Find@?$CStringT@DV?$StrTraitMFC_DLL@DV?$ChTraitsCRT@D@ATL@@@@@ATL@@QBEHPBDH@Z
  0026c	85 c0		 test	 eax, eax
  0026e	78 0a		 js	 SHORT $LN36@GetSendDat
  00270	be a7 00 00 00	 mov	 esi, 167		; 000000a7H
  00275	e9 10 02 00 00	 jmp	 $LN111@GetSendDat
$LN36@GetSendDat:

; 90   : 	else if (strTemp.Find(_T("_OrganCountryPureBuy_")) >= 0)			return TRKEY_STRMARKET_18;

  0027a	6a 00		 push	 0
  0027c	68 00 00 00 00	 push	 OFFSET ??_C@_0BG@ODJNOIBN@_OrganCountryPureBuy_@
  00281	8d 4d f0	 lea	 ecx, DWORD PTR _strTemp$[ebp]
  00284	ff 15 00 00 00
	00		 call	 DWORD PTR __imp_?Find@?$CStringT@DV?$StrTraitMFC_DLL@DV?$ChTraitsCRT@D@ATL@@@@@ATL@@QBEHPBDH@Z
  0028a	85 c0		 test	 eax, eax
  0028c	78 0a		 js	 SHORT $LN38@GetSendDat
  0028e	be a8 00 00 00	 mov	 esi, 168		; 000000a8H
  00293	e9 f2 01 00 00	 jmp	 $LN111@GetSendDat
$LN38@GetSendDat:

; 91   : 	else if (strTemp.Find(_T("_OrganFinancePureBuyAccum_")) >= 0)		return TRKEY_STRMARKET_19;

  00298	6a 00		 push	 0
  0029a	68 00 00 00 00	 push	 OFFSET ??_C@_0BL@GHJCKOOK@_OrganFinancePureBuyAccum_@
  0029f	8d 4d f0	 lea	 ecx, DWORD PTR _strTemp$[ebp]
  002a2	ff 15 00 00 00
	00		 call	 DWORD PTR __imp_?Find@?$CStringT@DV?$StrTraitMFC_DLL@DV?$ChTraitsCRT@D@ATL@@@@@ATL@@QBEHPBDH@Z
  002a8	85 c0		 test	 eax, eax
  002aa	78 0a		 js	 SHORT $LN40@GetSendDat
  002ac	be a9 00 00 00	 mov	 esi, 169		; 000000a9H
  002b1	e9 d4 01 00 00	 jmp	 $LN111@GetSendDat
$LN40@GetSendDat:

; 92   : 	else if (strTemp.Find(_T("_OrganInsurePureBuyAccum_")) >= 0)		return TRKEY_STRMARKET_20;

  002b6	6a 00		 push	 0
  002b8	68 00 00 00 00	 push	 OFFSET ??_C@_0BK@MBOPCOIG@_OrganInsurePureBuyAccum_@
  002bd	8d 4d f0	 lea	 ecx, DWORD PTR _strTemp$[ebp]
  002c0	ff 15 00 00 00
	00		 call	 DWORD PTR __imp_?Find@?$CStringT@DV?$StrTraitMFC_DLL@DV?$ChTraitsCRT@D@ATL@@@@@ATL@@QBEHPBDH@Z
  002c6	85 c0		 test	 eax, eax
  002c8	78 0a		 js	 SHORT $LN42@GetSendDat
  002ca	be aa 00 00 00	 mov	 esi, 170		; 000000aaH
  002cf	e9 b6 01 00 00	 jmp	 $LN111@GetSendDat
$LN42@GetSendDat:

; 93   : 	else if (strTemp.Find(_T("_OrganInvestmentPureBuyAccum_")) >= 0)	return TRKEY_STRMARKET_21;

  002d4	6a 00		 push	 0
  002d6	68 00 00 00 00	 push	 OFFSET ??_C@_0BO@CJFGNHFK@_OrganInvestmentPureBuyAccum_@
  002db	8d 4d f0	 lea	 ecx, DWORD PTR _strTemp$[ebp]
  002de	ff 15 00 00 00
	00		 call	 DWORD PTR __imp_?Find@?$CStringT@DV?$StrTraitMFC_DLL@DV?$ChTraitsCRT@D@ATL@@@@@ATL@@QBEHPBDH@Z
  002e4	85 c0		 test	 eax, eax
  002e6	78 0a		 js	 SHORT $LN44@GetSendDat
  002e8	be ab 00 00 00	 mov	 esi, 171		; 000000abH
  002ed	e9 98 01 00 00	 jmp	 $LN111@GetSendDat
$LN44@GetSendDat:

; 94   : 	else if (strTemp.Find(_T("_OrganBankPureBuyAccum_")) >= 0)			return TRKEY_STRMARKET_22;

  002f2	6a 00		 push	 0
  002f4	68 00 00 00 00	 push	 OFFSET ??_C@_0BI@EIGKEALJ@_OrganBankPureBuyAccum_@
  002f9	8d 4d f0	 lea	 ecx, DWORD PTR _strTemp$[ebp]
  002fc	ff 15 00 00 00
	00		 call	 DWORD PTR __imp_?Find@?$CStringT@DV?$StrTraitMFC_DLL@DV?$ChTraitsCRT@D@ATL@@@@@ATL@@QBEHPBDH@Z
  00302	85 c0		 test	 eax, eax
  00304	78 0a		 js	 SHORT $LN46@GetSendDat
  00306	be ac 00 00 00	 mov	 esi, 172		; 000000acH
  0030b	e9 7a 01 00 00	 jmp	 $LN111@GetSendDat
$LN46@GetSendDat:

; 95   : 	else if (strTemp.Find(_T("_OrganEtcFinancePureBuyAccum_")) >= 0)	return TRKEY_STRMARKET_23;

  00310	6a 00		 push	 0
  00312	68 00 00 00 00	 push	 OFFSET ??_C@_0BO@PEIMDJAJ@_OrganEtcFinancePureBuyAccum_@
  00317	8d 4d f0	 lea	 ecx, DWORD PTR _strTemp$[ebp]
  0031a	ff 15 00 00 00
	00		 call	 DWORD PTR __imp_?Find@?$CStringT@DV?$StrTraitMFC_DLL@DV?$ChTraitsCRT@D@ATL@@@@@ATL@@QBEHPBDH@Z
  00320	85 c0		 test	 eax, eax
  00322	78 0a		 js	 SHORT $LN48@GetSendDat
  00324	be ad 00 00 00	 mov	 esi, 173		; 000000adH
  00329	e9 5c 01 00 00	 jmp	 $LN111@GetSendDat
$LN48@GetSendDat:

; 96   : 	else if (strTemp.Find(_T("_OrganPensionFundPureBuyAccum_")) >= 0)	return TRKEY_STRMARKET_24;

  0032e	6a 00		 push	 0
  00330	68 00 00 00 00	 push	 OFFSET ??_C@_0BP@FBPJGHCE@_OrganPensionFundPureBuyAccum_@
  00335	8d 4d f0	 lea	 ecx, DWORD PTR _strTemp$[ebp]
  00338	ff 15 00 00 00
	00		 call	 DWORD PTR __imp_?Find@?$CStringT@DV?$StrTraitMFC_DLL@DV?$ChTraitsCRT@D@ATL@@@@@ATL@@QBEHPBDH@Z
  0033e	85 c0		 test	 eax, eax
  00340	78 0a		 js	 SHORT $LN50@GetSendDat
  00342	be ae 00 00 00	 mov	 esi, 174		; 000000aeH
  00347	e9 3e 01 00 00	 jmp	 $LN111@GetSendDat
$LN50@GetSendDat:

; 97   : 	else if (strTemp.Find(_T("_OrganEtcCorpPureBuyAccum_")) >= 0)		return TRKEY_STRMARKET_25;

  0034c	6a 00		 push	 0
  0034e	68 00 00 00 00	 push	 OFFSET ??_C@_0BL@JNKOIHIF@_OrganEtcCorpPureBuyAccum_@
  00353	8d 4d f0	 lea	 ecx, DWORD PTR _strTemp$[ebp]
  00356	ff 15 00 00 00
	00		 call	 DWORD PTR __imp_?Find@?$CStringT@DV?$StrTraitMFC_DLL@DV?$ChTraitsCRT@D@ATL@@@@@ATL@@QBEHPBDH@Z
  0035c	85 c0		 test	 eax, eax
  0035e	78 0a		 js	 SHORT $LN52@GetSendDat
  00360	be af 00 00 00	 mov	 esi, 175		; 000000afH
  00365	e9 20 01 00 00	 jmp	 $LN111@GetSendDat
$LN52@GetSendDat:

; 98   : 	else if (strTemp.Find(_T("_OrganPrivateEquityPureBuyAccum_")) >= 0)	return TRKEY_STRMARKET_26;

  0036a	6a 00		 push	 0
  0036c	68 00 00 00 00	 push	 OFFSET ??_C@_0CB@KMOMDELI@_OrganPrivateEquityPureBuyAccum@
  00371	8d 4d f0	 lea	 ecx, DWORD PTR _strTemp$[ebp]
  00374	ff 15 00 00 00
	00		 call	 DWORD PTR __imp_?Find@?$CStringT@DV?$StrTraitMFC_DLL@DV?$ChTraitsCRT@D@ATL@@@@@ATL@@QBEHPBDH@Z
  0037a	85 c0		 test	 eax, eax
  0037c	78 0a		 js	 SHORT $LN54@GetSendDat
  0037e	be b0 00 00 00	 mov	 esi, 176		; 000000b0H
  00383	e9 02 01 00 00	 jmp	 $LN111@GetSendDat
$LN54@GetSendDat:

; 99   : 	else if (strTemp.Find(_T("_OrganCountryPureBuyAccum_")) >= 0)		return TRKEY_STRMARKET_27;

  00388	6a 00		 push	 0
  0038a	68 00 00 00 00	 push	 OFFSET ??_C@_0BL@ENPNGPNE@_OrganCountryPureBuyAccum_@
  0038f	8d 4d f0	 lea	 ecx, DWORD PTR _strTemp$[ebp]
  00392	ff 15 00 00 00
	00		 call	 DWORD PTR __imp_?Find@?$CStringT@DV?$StrTraitMFC_DLL@DV?$ChTraitsCRT@D@ATL@@@@@ATL@@QBEHPBDH@Z
  00398	85 c0		 test	 eax, eax
  0039a	78 0a		 js	 SHORT $LN56@GetSendDat
  0039c	be b1 00 00 00	 mov	 esi, 177		; 000000b1H
  003a1	e9 e4 00 00 00	 jmp	 $LN111@GetSendDat
$LN56@GetSendDat:

; 100  : 	else if (strTemp.Find(_T("_ADL_")) >= 0)		return TRKEY_STRUPMARKET_0;

  003a6	6a 00		 push	 0
  003a8	68 00 00 00 00	 push	 OFFSET ??_C@_05IGKDGPNC@_ADL_@
  003ad	8d 4d f0	 lea	 ecx, DWORD PTR _strTemp$[ebp]
  003b0	ff 15 00 00 00
	00		 call	 DWORD PTR __imp_?Find@?$CStringT@DV?$StrTraitMFC_DLL@DV?$ChTraitsCRT@D@ATL@@@@@ATL@@QBEHPBDH@Z
  003b6	85 c0		 test	 eax, eax
  003b8	78 0a		 js	 SHORT $LN58@GetSendDat
  003ba	be be 00 00 00	 mov	 esi, 190		; 000000beH
  003bf	e9 c6 00 00 00	 jmp	 $LN111@GetSendDat
$LN58@GetSendDat:

; 101  : 	else if (strTemp.Find(_T("_ADR_")) >= 0)		return TRKEY_STRUPMARKET_1;

  003c4	6a 00		 push	 0
  003c6	68 00 00 00 00	 push	 OFFSET ??_C@_05JABLOBKI@_ADR_@
  003cb	8d 4d f0	 lea	 ecx, DWORD PTR _strTemp$[ebp]
  003ce	ff 15 00 00 00
	00		 call	 DWORD PTR __imp_?Find@?$CStringT@DV?$StrTraitMFC_DLL@DV?$ChTraitsCRT@D@ATL@@@@@ATL@@QBEHPBDH@Z
  003d4	85 c0		 test	 eax, eax
  003d6	78 0a		 js	 SHORT $LN60@GetSendDat
  003d8	be bf 00 00 00	 mov	 esi, 191		; 000000bfH
  003dd	e9 a8 00 00 00	 jmp	 $LN111@GetSendDat
$LN60@GetSendDat:

; 102  : 	else if (strTemp.Find(_T("_CreditBalanceRate_")) >= 0)				return TRKEY_STRMARKET_28;

  003e2	6a 00		 push	 0
  003e4	68 00 00 00 00	 push	 OFFSET ??_C@_0BE@LNCNOHPK@_CreditBalanceRate_@
  003e9	8d 4d f0	 lea	 ecx, DWORD PTR _strTemp$[ebp]
  003ec	ff 15 00 00 00
	00		 call	 DWORD PTR __imp_?Find@?$CStringT@DV?$StrTraitMFC_DLL@DV?$ChTraitsCRT@D@ATL@@@@@ATL@@QBEHPBDH@Z
  003f2	85 c0		 test	 eax, eax
  003f4	78 0a		 js	 SHORT $LN62@GetSendDat
  003f6	be b2 00 00 00	 mov	 esi, 178		; 000000b2H
  003fb	e9 8a 00 00 00	 jmp	 $LN111@GetSendDat
$LN62@GetSendDat:

; 103  : 	else if (strTemp.Find(_T("_CreditGivingRate_")) >= 0)				return TRKEY_STRMARKET_29;

  00400	6a 00		 push	 0
  00402	68 00 00 00 00	 push	 OFFSET ??_C@_0BD@JGMOOODK@_CreditGivingRate_@
  00407	8d 4d f0	 lea	 ecx, DWORD PTR _strTemp$[ebp]
  0040a	ff 15 00 00 00
	00		 call	 DWORD PTR __imp_?Find@?$CStringT@DV?$StrTraitMFC_DLL@DV?$ChTraitsCRT@D@ATL@@@@@ATL@@QBEHPBDH@Z
  00410	85 c0		 test	 eax, eax
  00412	78 07		 js	 SHORT $LN64@GetSendDat
  00414	be b3 00 00 00	 mov	 esi, 179		; 000000b3H
  00419	eb 6f		 jmp	 SHORT $LN111@GetSendDat
$LN64@GetSendDat:

; 104  : 	else if (strTemp.Find(_T("_CreditBalanceQty_")) >= 0)				return TRKEY_STRMARKET_30;

  0041b	6a 00		 push	 0
  0041d	68 00 00 00 00	 push	 OFFSET ??_C@_0BD@GGNHDKMC@_CreditBalanceQty_@
  00422	8d 4d f0	 lea	 ecx, DWORD PTR _strTemp$[ebp]
  00425	ff 15 00 00 00
	00		 call	 DWORD PTR __imp_?Find@?$CStringT@DV?$StrTraitMFC_DLL@DV?$ChTraitsCRT@D@ATL@@@@@ATL@@QBEHPBDH@Z
  0042b	85 c0		 test	 eax, eax
  0042d	78 07		 js	 SHORT $LN66@GetSendDat
  0042f	be b4 00 00 00	 mov	 esi, 180		; 000000b4H
  00434	eb 54		 jmp	 SHORT $LN111@GetSendDat
$LN66@GetSendDat:

; 105  : 	else if (strTemp.Find(_T("_CreditBalanceVariation_")) >= 0)			return TRKEY_STRMARKET_31;

  00436	6a 00		 push	 0
  00438	68 00 00 00 00	 push	 OFFSET ??_C@_0BJ@FMFMOPHM@_CreditBalanceVariation_@
  0043d	8d 4d f0	 lea	 ecx, DWORD PTR _strTemp$[ebp]
  00440	ff 15 00 00 00
	00		 call	 DWORD PTR __imp_?Find@?$CStringT@DV?$StrTraitMFC_DLL@DV?$ChTraitsCRT@D@ATL@@@@@ATL@@QBEHPBDH@Z
  00446	85 c0		 test	 eax, eax
  00448	78 07		 js	 SHORT $LN68@GetSendDat
  0044a	be b5 00 00 00	 mov	 esi, 181		; 000000b5H
  0044f	eb 39		 jmp	 SHORT $LN111@GetSendDat
$LN68@GetSendDat:

; 106  : 	else if (strTemp.Find(_T("_Foreign+OrganPureBuy_")) >= 0)				return TRKEY_STRMARKET_32;

  00451	6a 00		 push	 0
  00453	68 00 00 00 00	 push	 OFFSET ??_C@_0BH@FJOFJJFH@_Foreign?$CLOrganPureBuy_@
  00458	8d 4d f0	 lea	 ecx, DWORD PTR _strTemp$[ebp]
  0045b	ff 15 00 00 00
	00		 call	 DWORD PTR __imp_?Find@?$CStringT@DV?$StrTraitMFC_DLL@DV?$ChTraitsCRT@D@ATL@@@@@ATL@@QBEHPBDH@Z
  00461	85 c0		 test	 eax, eax
  00463	78 07		 js	 SHORT $LN70@GetSendDat
  00465	be b6 00 00 00	 mov	 esi, 182		; 000000b6H
  0046a	eb 1e		 jmp	 SHORT $LN111@GetSendDat
$LN70@GetSendDat:

; 107  : 	else if (strTemp.Find(_T("_Foreign+OrganPureBuyAccumulation_")) >= 0)	return TRKEY_STRMARKET_33;

  0046c	6a 00		 push	 0
  0046e	68 00 00 00 00	 push	 OFFSET ??_C@_0CD@HDMDDIP@_Foreign?$CLOrganPureBuyAccumulati@
  00473	8d 4d f0	 lea	 ecx, DWORD PTR _strTemp$[ebp]
  00476	ff 15 00 00 00
	00		 call	 DWORD PTR __imp_?Find@?$CStringT@DV?$StrTraitMFC_DLL@DV?$ChTraitsCRT@D@ATL@@@@@ATL@@QBEHPBDH@Z
  0047c	85 c0		 test	 eax, eax
  0047e	78 07		 js	 SHORT $LN72@GetSendDat
  00480	be b7 00 00 00	 mov	 esi, 183		; 000000b7H
  00485	eb 03		 jmp	 SHORT $LN111@GetSendDat
$LN72@GetSendDat:

; 108  : 	
; 109  : #else
; 110  : 	if (strTemp.Find(_T("")) >= 0)		return TRKEY_STRMARKET_0;
; 111  : 	else if (strTemp.Find(_T("")) >= 0)		return TRKEY_STRMARKET_1;
; 112  : 	else if (strTemp.Find(_T("")) >= 0)		return TRKEY_STRMARKET_2;
; 113  : 	else if (strTemp.Find(_T("")) >= 0)			return TRKEY_STRMARKET_3;
; 114  : 	else if (strTemp.Find(_T("")) >= 0)		return TRKEY_STRMARKET_4;
; 115  : 	else if (strTemp.Find(_T("")) >= 0)		return TRKEY_STRMARKET_5;
; 116  : 	else if (strTemp.Find(_T("")) >= 0)		return TRKEY_STRMARKET_6;
; 117  : 	else if (strTemp.Find(_T("_ForeignPureBuyAccumulation_")) >= 0)			return TRKEY_STRMARKET_7;
; 118  : 	else if (strTemp.Find(_T("_Person PureBuy Accumulation_")) >= 0)		return TRKEY_STRMARKET_8;
; 119  : 	else if (strTemp.Find(_T("_Person PureBuy_")) >= 0)		return TRKEY_STRMARKET_9;
; 120  : 	//	 IBK  
; 121  : //	else if (strTemp.Find(_T("")) >= 0)			return TRKEY_STRMARKET_8;
; 122  : //	else if (strTemp.Find(_T("")) >= 0)			return TRKEY_STRMARKET_9;
; 123  : //	else if (strTemp.Find(_T("K200")) >= 0)				return TRKEY_STRMARKET_10;
; 124  : //	else if (strTemp.Find(_T("")) >= 0)				return TRKEY_STRMARKET_11;
; 125  : //	else if (strTemp.Find(_T("")) >= 0)			return TRKEY_STRMARKET_12;
; 126  : //	else if (strTemp.Find(_T("")) >= 0)			return TRKEY_STRMARKET_13;
; 127  : 	// 
; 128  : 	else if (strTemp.Find(_T("")) >= 0)		return TRKEY_STRMARKET_10;
; 129  : 	else if (strTemp.Find(_T("")) >= 0)			return TRKEY_STRMARKET_11;
; 130  : 	else if (strTemp.Find(_T("")) >= 0)			return TRKEY_STRMARKET_12;
; 131  : 	else if (strTemp.Find(_T("")) >= 0)			return TRKEY_STRMARKET_13;
; 132  : 	else if (strTemp.Find(_T("")) >= 0)		return TRKEY_STRMARKET_14;
; 133  : 	else if (strTemp.Find(_T("")) >= 0)			return TRKEY_STRMARKET_15;
; 134  : 	else if (strTemp.Find(_T("")) >= 0)		return TRKEY_STRMARKET_16;
; 135  : 	else if (strTemp.Find(_T("")) >= 0)		return TRKEY_STRMARKET_17;
; 136  : 	else if (strTemp.Find(_T("")) >= 0)			return TRKEY_STRMARKET_18;
; 137  : 	else if (strTemp.Find(_T("")) >= 0)	return TRKEY_STRMARKET_19;
; 138  : 	else if (strTemp.Find(_T("")) >= 0)		return TRKEY_STRMARKET_20;
; 139  : 	else if (strTemp.Find(_T("")) >= 0)		return TRKEY_STRMARKET_21;
; 140  : 	else if (strTemp.Find(_T("")) >= 0)		return TRKEY_STRMARKET_22;
; 141  : 	else if (strTemp.Find(_T("")) >= 0)	return TRKEY_STRMARKET_23;
; 142  : 	else if (strTemp.Find(_T("")) >= 0)		return TRKEY_STRMARKET_24;
; 143  : 	else if (strTemp.Find(_T("")) >= 0)	return TRKEY_STRMARKET_25;
; 144  : 	else if (strTemp.Find(_T("")) >= 0)	return TRKEY_STRMARKET_26;
; 145  : 	else if (strTemp.Find(_T("")) >= 0)		return TRKEY_STRMARKET_27;
; 146  : 	else if (strTemp.Find(_T("ADL")) >= 0)						return TRKEY_STRUPMARKET_0;
; 147  : 	else if (strTemp.Find(_T("")) >= 0)				return TRKEY_STRUPMARKET_1;
; 148  : 	else if (strTemp.Find(_T("")) >= 0)				return TRKEY_STRMARKET_28;
; 149  : 	else if (strTemp.Find(_T("")) >= 0)				return TRKEY_STRMARKET_29;
; 150  : 	else if (strTemp.Find(_T("")) >= 0)				return TRKEY_STRMARKET_30;
; 151  : 	else if (strTemp.Find(_T("")) >= 0)				return TRKEY_STRMARKET_31;
; 152  : 	else if (strTemp.Find(_T("+")) >= 0)		return TRKEY_STRMARKET_32;
; 153  : 	else if (strTemp.Find(_T("+")) >= 0)	return TRKEY_STRMARKET_33;
; 154  : #endif
; 155  : 	return -1;

  00487	83 ce ff	 or	 esi, -1
$LN111@GetSendDat:
  0048a	8d 4d f0	 lea	 ecx, DWORD PTR _strTemp$[ebp]
  0048d	ff 15 00 00 00
	00		 call	 DWORD PTR __imp_??1?$CStringT@DV?$StrTraitMFC_DLL@DV?$ChTraitsCRT@D@ATL@@@@@ATL@@QAE@XZ
  00493	8b c6		 mov	 eax, esi

; 156  : }

  00495	8b 4d f4	 mov	 ecx, DWORD PTR __$EHRec$[ebp]
  00498	64 89 0d 00 00
	00 00		 mov	 DWORD PTR fs:0, ecx
  0049f	59		 pop	 ecx
  004a0	5e		 pop	 esi
  004a1	8b e5		 mov	 esp, ebp
  004a3	5d		 pop	 ebp
  004a4	c3		 ret	 0
_TEXT	ENDS
;	COMDAT text$x
text$x	SEGMENT
__unwindfunclet$?GetSendDataType@CChartItemMarket@@QAEHXZ$0:
  00000	8d 4d f0	 lea	 ecx, DWORD PTR _strTemp$[ebp]
  00003	ff 25 00 00 00
	00		 jmp	 DWORD PTR __imp_??1?$CStringT@DV?$StrTraitMFC_DLL@DV?$ChTraitsCRT@D@ATL@@@@@ATL@@QAE@XZ
__unwindfunclet$?GetSendDataType@CChartItemMarket@@QAEHXZ$1:
  00009	8d 4d ec	 lea	 ecx, DWORD PTR $T2[ebp]
  0000c	ff 25 00 00 00
	00		 jmp	 DWORD PTR __imp_??1?$CStringT@DV?$StrTraitMFC_DLL@DV?$ChTraitsCRT@D@ATL@@@@@ATL@@QAE@XZ
  00012	cc		 int	 3
  00013	cc		 int	 3
  00014	cc		 int	 3
  00015	cc		 int	 3
  00016	cc		 int	 3
__ehhandler$?GetSendDataType@CChartItemMarket@@QAEHXZ:
  00017	90		 npad	 1
  00018	90		 npad	 1
  00019	8b 54 24 08	 mov	 edx, DWORD PTR [esp+8]
  0001d	8d 42 0c	 lea	 eax, DWORD PTR [edx+12]
  00020	8b 4a f0	 mov	 ecx, DWORD PTR [edx-16]
  00023	33 c8		 xor	 ecx, eax
  00025	e8 00 00 00 00	 call	 @__security_check_cookie@4
  0002a	b8 00 00 00 00	 mov	 eax, OFFSET __ehfuncinfo$?GetSendDataType@CChartItemMarket@@QAEHXZ
  0002f	e9 00 00 00 00	 jmp	 ___CxxFrameHandler3
text$x	ENDS
?GetSendDataType@CChartItemMarket@@QAEHXZ ENDP		; CChartItemMarket::GetSendDataType
; Function compile flags: /Ogtp
; File D:\git\src\IBK\IBK_DRFN\ProjSrc\SrcDrfn\DrCommon\PartnerMng\ChartItemMarket.cpp
; File D:\git\src\IBK\IBK_DRFN\ProjSrc\SrcDrfn\inc\IChartBozoMsgMng.h
; File D:\git\src\IBK\IBK_DRFN\ProjSrc\SrcDrfn\DrCommon\PartnerMng\ChartItemMarket.cpp
; File C:\Program Files (x86)\Microsoft Visual Studio\2019\Community\VC\Tools\MSVC\14.29.30133\atlmfc\include\atlsimpstr.h
; File D:\git\src\IBK\IBK_DRFN\ProjSrc\SrcDrfn\DrCommon\PartnerMng\ChartItemMarket.cpp
; File C:\Program Files (x86)\Microsoft Visual Studio\2019\Community\VC\Tools\MSVC\14.29.30133\atlmfc\include\afxcoll.inl
; File C:\Program Files (x86)\Microsoft Visual Studio\2019\Community\VC\Tools\MSVC\14.29.30133\atlmfc\include\atlsimpstr.h
; File D:\git\src\IBK\IBK_DRFN\ProjSrc\SrcDrfn\DrCommon\PartnerMng\ChartItemMarket.cpp
; File C:\Program Files (x86)\Microsoft Visual Studio\2019\Community\VC\Tools\MSVC\14.29.30133\atlmfc\include\atlsimpstr.h
; File D:\git\src\IBK\IBK_DRFN\ProjSrc\SrcDrfn\DrCommon\PartnerMng\ChartItemMarket.cpp
; File C:\Program Files (x86)\Microsoft Visual Studio\2019\Community\VC\Tools\MSVC\14.29.30133\atlmfc\include\afxcoll.inl
; File C:\Program Files (x86)\Microsoft Visual Studio\2019\Community\VC\Tools\MSVC\14.29.30133\atlmfc\include\atlsimpstr.h
; File D:\git\src\IBK\IBK_DRFN\ProjSrc\SrcDrfn\DrCommon\PartnerMng\ChartItemMarket.cpp
; File C:\Program Files (x86)\Microsoft Visual Studio\2019\Community\VC\Tools\MSVC\14.29.30133\atlmfc\include\atlsimpstr.h
; File D:\git\src\IBK\IBK_DRFN\ProjSrc\SrcDrfn\DrCommon\PartnerMng\ChartItemMarket.cpp
; File C:\Program Files (x86)\Microsoft Visual Studio\2019\Community\VC\Tools\MSVC\14.29.30133\atlmfc\include\cstringt.h
; File D:\git\src\IBK\IBK_DRFN\ProjSrc\SrcDrfn\DrCommon\PartnerMng\ChartItemMarket.cpp
; File C:\Program Files (x86)\Microsoft Visual Studio\2019\Community\VC\Tools\MSVC\14.29.30133\atlmfc\include\cstringt.h
; File D:\git\src\IBK\IBK_DRFN\ProjSrc\SrcDrfn\DrCommon\PartnerMng\ChartItemMarket.cpp
; File C:\Program Files (x86)\Microsoft Visual Studio\2019\Community\VC\Tools\MSVC\14.29.30133\atlmfc\include\cstringt.h
; File D:\git\src\IBK\IBK_DRFN\ProjSrc\SrcDrfn\DrCommon\PartnerMng\ChartItemMarket.cpp
; File C:\Program Files (x86)\Microsoft Visual Studio\2019\Community\VC\Tools\MSVC\14.29.30133\atlmfc\include\atlsimpstr.h
; File D:\git\src\IBK\IBK_DRFN\ProjSrc\SrcDrfn\DrCommon\PartnerMng\ChartItemMarket.cpp
; File C:\Program Files (x86)\Microsoft Visual Studio\2019\Community\VC\Tools\MSVC\14.29.30133\atlmfc\include\atlsimpstr.h
; File D:\git\src\IBK\IBK_DRFN\ProjSrc\SrcDrfn\DrCommon\PartnerMng\ChartItemMarket.cpp
; File C:\Program Files (x86)\Microsoft Visual Studio\2019\Community\VC\Tools\MSVC\14.29.30133\atlmfc\include\atlsimpstr.h
; File D:\git\src\IBK\IBK_DRFN\ProjSrc\SrcDrfn\DrCommon\PartnerMng\ChartItemMarket.cpp
; File C:\Program Files (x86)\Microsoft Visual Studio\2019\Community\VC\Tools\MSVC\14.29.30133\atlmfc\include\atlsimpstr.h
; File D:\git\src\IBK\IBK_DRFN\ProjSrc\SrcDrfn\DrCommon\PartnerMng\ChartItemMarket.cpp
; File C:\Program Files (x86)\Microsoft Visual Studio\2019\Community\VC\Tools\MSVC\14.29.30133\atlmfc\include\afxcoll.inl
; File D:\git\src\IBK\IBK_DRFN\ProjSrc\SrcDrfn\DrCommon\PartnerMng\ChartItemMarket.cpp
; File C:\Program Files (x86)\Microsoft Visual Studio\2019\Community\VC\Tools\MSVC\14.29.30133\atlmfc\include\afxcoll.inl
; File D:\git\src\IBK\IBK_DRFN\ProjSrc\SrcDrfn\DrCommon\PartnerMng\ChartItemMarket.cpp
; File C:\Program Files (x86)\Microsoft Visual Studio\2019\Community\VC\Tools\MSVC\14.29.30133\atlmfc\include\atlsimpstr.h
; File D:\git\src\IBK\IBK_DRFN\ProjSrc\SrcDrfn\DrCommon\PartnerMng\ChartItemMarket.cpp
; File C:\Program Files (x86)\Microsoft Visual Studio\2019\Community\VC\Tools\MSVC\14.29.30133\atlmfc\include\atlsimpstr.h
; File D:\git\src\IBK\IBK_DRFN\ProjSrc\SrcDrfn\DrCommon\PartnerMng\ChartItemMarket.cpp
; File C:\Program Files (x86)\Microsoft Visual Studio\2019\Community\VC\Tools\MSVC\14.29.30133\atlmfc\include\afxcoll.inl
; File D:\git\src\IBK\IBK_DRFN\ProjSrc\SrcDrfn\DrCommon\PartnerMng\ChartItemMarket.cpp
; File C:\Program Files (x86)\Microsoft Visual Studio\2019\Community\VC\Tools\MSVC\14.29.30133\atlmfc\include\afxcoll.inl
; File D:\git\src\IBK\IBK_DRFN\ProjSrc\SrcDrfn\DrCommon\PartnerMng\ChartItemMarket.cpp
; File C:\Program Files (x86)\Microsoft Visual Studio\2019\Community\VC\Tools\MSVC\14.29.30133\atlmfc\include\atlsimpstr.h
; File D:\git\src\IBK\IBK_DRFN\ProjSrc\SrcDrfn\DrCommon\PartnerMng\ChartItemMarket.cpp
; File C:\Program Files (x86)\Microsoft Visual Studio\2019\Community\VC\Tools\MSVC\14.29.30133\atlmfc\include\atlsimpstr.h
; File D:\git\src\IBK\IBK_DRFN\ProjSrc\SrcDrfn\DrCommon\PartnerMng\ChartItemMarket.cpp
; File C:\Program Files (x86)\Microsoft Visual Studio\2019\Community\VC\Tools\MSVC\14.29.30133\atlmfc\include\atlsimpstr.h
; File D:\git\src\IBK\IBK_DRFN\ProjSrc\SrcDrfn\DrCommon\PartnerMng\ChartItemMarket.cpp
; File C:\Program Files (x86)\Microsoft Visual Studio\2019\Community\VC\Tools\MSVC\14.29.30133\atlmfc\include\atlsimpstr.h
; File D:\git\src\IBK\IBK_DRFN\ProjSrc\SrcDrfn\DrCommon\PartnerMng\ChartItemMarket.cpp
; File C:\Program Files (x86)\Microsoft Visual Studio\2019\Community\VC\Tools\MSVC\14.29.30133\atlmfc\include\afxtempl.h
; File D:\git\src\IBK\IBK_DRFN\ProjSrc\SrcDrfn\DrCommon\PartnerMng\ChartItemMarket.cpp
; File C:\Program Files (x86)\Microsoft Visual Studio\2019\Community\VC\Tools\MSVC\14.29.30133\atlmfc\include\atlsimpstr.h
; File D:\git\src\IBK\IBK_DRFN\ProjSrc\SrcDrfn\inc\IChartBozoMsgMng.h
; File C:\Program Files (x86)\Microsoft Visual Studio\2019\Community\VC\Tools\MSVC\14.29.30133\atlmfc\include\atlsimpstr.h
; File D:\git\src\IBK\IBK_DRFN\ProjSrc\SrcDrfn\inc\IChartBozoMsgMng.h
; File D:\git\src\IBK\IBK_DRFN\ProjSrc\SrcDrfn\DrCommon\PartnerMng\ChartItemMarket.cpp
; File C:\Program Files (x86)\Microsoft Visual Studio\2019\Community\VC\Tools\MSVC\14.29.30133\atlmfc\include\afxtempl.h
; File D:\git\src\IBK\IBK_DRFN\ProjSrc\SrcDrfn\DrCommon\PartnerMng\ChartItemMarket.cpp
; File C:\Program Files (x86)\Microsoft Visual Studio\2019\Community\VC\Tools\MSVC\14.29.30133\atlmfc\include\atlsimpstr.h
; File D:\git\src\IBK\IBK_DRFN\ProjSrc\SrcDrfn\DrCommon\PartnerMng\ChartItemMarket.cpp
; File C:\Program Files (x86)\Microsoft Visual Studio\2019\Community\VC\Tools\MSVC\14.29.30133\atlmfc\include\afxcoll.inl
; File C:\Program Files (x86)\Microsoft Visual Studio\2019\Community\VC\Tools\MSVC\14.29.30133\atlmfc\include\atlsimpstr.h
; File D:\git\src\IBK\IBK_DRFN\ProjSrc\SrcDrfn\DrCommon\PartnerMng\ChartItemMarket.cpp
; File C:\Program Files (x86)\Microsoft Visual Studio\2019\Community\VC\Tools\MSVC\14.29.30133\atlmfc\include\afxcoll.inl
; File C:\Program Files (x86)\Microsoft Visual Studio\2019\Community\VC\Tools\MSVC\14.29.30133\atlmfc\include\atlsimpstr.h
; File D:\git\src\IBK\IBK_DRFN\ProjSrc\SrcDrfn\DrCommon\PartnerMng\ChartItemMarket.cpp
; File C:\Program Files (x86)\Microsoft Visual Studio\2019\Community\VC\Tools\MSVC\14.29.30133\atlmfc\include\afxcoll.inl
; File C:\Program Files (x86)\Microsoft Visual Studio\2019\Community\VC\Tools\MSVC\14.29.30133\atlmfc\include\atlsimpstr.h
; File D:\git\src\IBK\IBK_DRFN\ProjSrc\SrcDrfn\DrCommon\PartnerMng\ChartItemMarket.cpp
; File C:\Program Files (x86)\Microsoft Visual Studio\2019\Community\VC\Tools\MSVC\14.29.30133\atlmfc\include\afxcoll.inl
; File C:\Program Files (x86)\Microsoft Visual Studio\2019\Community\VC\Tools\MSVC\14.29.30133\atlmfc\include\atlsimpstr.h
; File D:\git\src\IBK\IBK_DRFN\ProjSrc\SrcDrfn\DrCommon\PartnerMng\ChartItemMarket.cpp
; File C:\Program Files (x86)\Microsoft Visual Studio\2019\Community\VC\Tools\MSVC\14.29.30133\atlmfc\include\atlsimpstr.h
; File D:\git\src\IBK\IBK_DRFN\ProjSrc\SrcDrfn\DrCommon\PartnerMng\ChartItemMarket.cpp
; File C:\Program Files (x86)\Microsoft Visual Studio\2019\Community\VC\Tools\MSVC\14.29.30133\atlmfc\include\cstringt.h
; File D:\git\src\IBK\IBK_DRFN\ProjSrc\SrcDrfn\DrCommon\PartnerMng\ChartItemMarket.cpp
; File C:\Program Files (x86)\Microsoft Visual Studio\2019\Community\VC\Tools\MSVC\14.29.30133\atlmfc\include\cstringt.h
; File D:\git\src\IBK\IBK_DRFN\ProjSrc\SrcDrfn\DrCommon\PartnerMng\ChartItemMarket.cpp
; File C:\Program Files (x86)\Microsoft Visual Studio\2019\Community\VC\Tools\MSVC\14.29.30133\atlmfc\include\atlsimpstr.h
; File D:\git\src\IBK\IBK_DRFN\ProjSrc\SrcDrfn\DrCommon\PartnerMng\ChartItemMarket.cpp
; File C:\Program Files (x86)\Microsoft Visual Studio\2019\Community\VC\Tools\MSVC\14.29.30133\atlmfc\include\atlsimpstr.h
; File D:\git\src\IBK\IBK_DRFN\ProjSrc\SrcDrfn\DrCommon\PartnerMng\ChartItemMarket.cpp
; File C:\Program Files (x86)\Microsoft Visual Studio\2019\Community\VC\Tools\MSVC\14.29.30133\atlmfc\include\atlsimpstr.h
; File D:\git\src\IBK\IBK_DRFN\ProjSrc\SrcDrfn\DrCommon\PartnerMng\ChartItemMarket.cpp
; File C:\Program Files (x86)\Microsoft Visual Studio\2019\Community\VC\Tools\MSVC\14.29.30133\atlmfc\include\atlsimpstr.h
; File D:\git\src\IBK\IBK_DRFN\ProjSrc\SrcDrfn\DrCommon\PartnerMng\ChartItemMarket.cpp
; File C:\Program Files (x86)\Microsoft Visual Studio\2019\Community\VC\Tools\MSVC\14.29.30133\atlmfc\include\afxcoll.inl
; File D:\git\src\IBK\IBK_DRFN\ProjSrc\SrcDrfn\DrCommon\PartnerMng\ChartItemMarket.cpp
; File C:\Program Files (x86)\Microsoft Visual Studio\2019\Community\VC\Tools\MSVC\14.29.30133\atlmfc\include\afxcoll.inl
; File D:\git\src\IBK\IBK_DRFN\ProjSrc\SrcDrfn\DrCommon\PartnerMng\ChartItemMarket.cpp
; File C:\Program Files (x86)\Microsoft Visual Studio\2019\Community\VC\Tools\MSVC\14.29.30133\atlmfc\include\atlsimpstr.h
; File D:\git\src\IBK\IBK_DRFN\ProjSrc\SrcDrfn\DrCommon\PartnerMng\ChartItemMarket.cpp
; File C:\Program Files (x86)\Microsoft Visual Studio\2019\Community\VC\Tools\MSVC\14.29.30133\atlmfc\include\atlsimpstr.h
; File D:\git\src\IBK\IBK_DRFN\ProjSrc\SrcDrfn\DrCommon\PartnerMng\ChartItemMarket.cpp
; File C:\Program Files (x86)\Microsoft Visual Studio\2019\Community\VC\Tools\MSVC\14.29.30133\atlmfc\include\afxcoll.inl
; File D:\git\src\IBK\IBK_DRFN\ProjSrc\SrcDrfn\DrCommon\PartnerMng\ChartItemMarket.cpp
; File C:\Program Files (x86)\Microsoft Visual Studio\2019\Community\VC\Tools\MSVC\14.29.30133\atlmfc\include\afxcoll.inl
; File D:\git\src\IBK\IBK_DRFN\ProjSrc\SrcDrfn\DrCommon\PartnerMng\ChartItemMarket.cpp
; File C:\Program Files (x86)\Microsoft Visual Studio\2019\Community\VC\Tools\MSVC\14.29.30133\atlmfc\include\atlsimpstr.h
; File D:\git\src\IBK\IBK_DRFN\ProjSrc\SrcDrfn\DrCommon\PartnerMng\ChartItemMarket.cpp
; File C:\Program Files (x86)\Microsoft Visual Studio\2019\Community\VC\Tools\MSVC\14.29.30133\atlmfc\include\atlsimpstr.h
; File D:\git\src\IBK\IBK_DRFN\ProjSrc\SrcDrfn\DrCommon\PartnerMng\ChartItemMarket.cpp
; File C:\Program Files (x86)\Microsoft Visual Studio\2019\Community\VC\Tools\MSVC\14.29.30133\atlmfc\include\afxcoll.inl
; File D:\git\src\IBK\IBK_DRFN\ProjSrc\SrcDrfn\DrCommon\PartnerMng\ChartItemMarket.cpp
; File C:\Program Files (x86)\Microsoft Visual Studio\2019\Community\VC\Tools\MSVC\14.29.30133\atlmfc\include\afxcoll.inl
; File D:\git\src\IBK\IBK_DRFN\ProjSrc\SrcDrfn\DrCommon\PartnerMng\ChartItemMarket.cpp
; File C:\Program Files (x86)\Microsoft Visual Studio\2019\Community\VC\Tools\MSVC\14.29.30133\atlmfc\include\atlsimpstr.h
; File D:\git\src\IBK\IBK_DRFN\ProjSrc\SrcDrfn\DrCommon\PartnerMng\ChartItemMarket.cpp
; File C:\Program Files (x86)\Microsoft Visual Studio\2019\Community\VC\Tools\MSVC\14.29.30133\atlmfc\include\atlsimpstr.h
; File D:\git\src\IBK\IBK_DRFN\ProjSrc\SrcDrfn\DrCommon\PartnerMng\ChartItemMarket.cpp
; File C:\Program Files (x86)\Microsoft Visual Studio\2019\Community\VC\Tools\MSVC\14.29.30133\atlmfc\include\afxcoll.inl
; File D:\git\src\IBK\IBK_DRFN\ProjSrc\SrcDrfn\DrCommon\PartnerMng\ChartItemMarket.cpp
; File C:\Program Files (x86)\Microsoft Visual Studio\2019\Community\VC\Tools\MSVC\14.29.30133\atlmfc\include\afxcoll.inl
; File D:\git\src\IBK\IBK_DRFN\ProjSrc\SrcDrfn\DrCommon\PartnerMng\ChartItemMarket.cpp
; File C:\Program Files (x86)\Microsoft Visual Studio\2019\Community\VC\Tools\MSVC\14.29.30133\atlmfc\include\atlsimpstr.h
; File D:\git\src\IBK\IBK_DRFN\ProjSrc\SrcDrfn\DrCommon\PartnerMng\ChartItemMarket.cpp
; File C:\Program Files (x86)\Microsoft Visual Studio\2019\Community\VC\Tools\MSVC\14.29.30133\atlmfc\include\atlsimpstr.h
; File D:\git\src\IBK\IBK_DRFN\ProjSrc\SrcDrfn\DrCommon\PartnerMng\ChartItemMarket.cpp
; File C:\Program Files (x86)\Microsoft Visual Studio\2019\Community\VC\Tools\MSVC\14.29.30133\atlmfc\include\atlsimpstr.h
; File D:\git\src\IBK\IBK_DRFN\ProjSrc\SrcDrfn\DrCommon\PartnerMng\ChartItemMarket.cpp
; File C:\Program Files (x86)\Microsoft Visual Studio\2019\Community\VC\Tools\MSVC\14.29.30133\atlmfc\include\afxtempl.h
; File D:\git\src\IBK\IBK_DRFN\ProjSrc\SrcDrfn\DrCommon\PartnerMng\ChartItemMarket.cpp
; File C:\Program Files (x86)\Microsoft Visual Studio\2019\Community\VC\Tools\MSVC\14.29.30133\atlmfc\include\atlsimpstr.h
; File D:\git\src\IBK\IBK_DRFN\ProjSrc\SrcDrfn\inc\IChartBozoMsgMng.h
; File C:\Program Files (x86)\Microsoft Visual Studio\2019\Community\VC\Tools\MSVC\14.29.30133\atlmfc\include\atlsimpstr.h
; File D:\git\src\IBK\IBK_DRFN\ProjSrc\SrcDrfn\inc\IChartBozoMsgMng.h
; File D:\git\src\IBK\IBK_DRFN\ProjSrc\SrcDrfn\DrCommon\PartnerMng\ChartItemMarket.cpp
; File C:\Program Files (x86)\Microsoft Visual Studio\2019\Community\VC\Tools\MSVC\14.29.30133\atlmfc\include\afxtempl.h
; File D:\git\src\IBK\IBK_DRFN\ProjSrc\SrcDrfn\DrCommon\PartnerMng\ChartItemMarket.cpp
;	COMDAT ?Convert2Struct@CChartItemMarket@@QAEPADPAEHHAAH@Z
_TEXT	SEGMENT
_arrSel2$ = -416					; size = 20
_arrSel3$ = -396					; size = 20
_arrDate$ = -376					; size = 20
_arrSel1$ = -356					; size = 20
_strNm3$ = -336						; size = 4
_strNm4$ = -332						; size = 4
$T2 = -328						; size = 4
$T3 = -328						; size = 4
_bojoMng$ = -324					; size = 4
_arr$4 = -320						; size = 28
_arr$5 = -320						; size = 28
tv2430 = -292						; size = 4
$T6 = -292						; size = 4
_strNm2$ = -288						; size = 4
_strBozo$7 = -284					; size = 4
_strData$ = -280					; size = 4
$T8 = -276						; size = 4
$T9 = -276						; size = 4
$T10 = -276						; size = 4
_strBozo$11 = -276					; size = 4
_strCode$ = -272					; size = 4
_this$GSCopy$1$ = -268					; size = 4
$T12 = -268						; size = 4
$T13 = -264						; size = 4
$T14 = -264						; size = 4
$T15 = -264						; size = 4
$T16 = -264						; size = 4
$T17 = -264						; size = 4
_strNm1$ = -260						; size = 4
_nDataLen$GSCopy$1$ = -256				; size = 4
_pszBuff$1$ = -256					; size = 4
_strDataNm$ = -252					; size = 4
tv2405 = -248						; size = 4
tv2402 = -248						; size = 4
_nIndex$1$ = -248					; size = 4
$T18 = -248						; size = 4
$T19 = -248						; size = 4
_strNextKey$20 = -244					; size = 4
_strNextKey$21 = -244					; size = 4
$T22 = -244						; size = 4
$T23 = -244						; size = 4
$T24 = -244						; size = 4
$T25 = -244						; size = 4
$T26 = -244						; size = 4
$T27 = -244						; size = 4
$T28 = -244						; size = 4
_strSrc$ = -240						; size = 4
_strNode$ = -236					; size = 4
_bojoInput$ = -232					; size = 200
_szKey$29 = -32						; size = 5
_szKey$30 = -24						; size = 5
__$ArrayPad$ = -16					; size = 4
__$EHRec$ = -12						; size = 12
_pData$ = 8						; size = 4
_nLen$ = 12						; size = 4
_nKey$ = 16						; size = 4
_nDataLen$ = 20						; size = 4
?Convert2Struct@CChartItemMarket@@QAEPADPAEHHAAH@Z PROC	; CChartItemMarket::Convert2Struct, COMDAT
; _this$ = ecx

; 653  : {	

  00000	55		 push	 ebp
  00001	8b ec		 mov	 ebp, esp
  00003	6a ff		 push	 -1
  00005	68 00 00 00 00	 push	 __ehhandler$?Convert2Struct@CChartItemMarket@@QAEPADPAEHHAAH@Z
  0000a	64 a1 00 00 00
	00		 mov	 eax, DWORD PTR fs:0
  00010	50		 push	 eax
  00011	81 ec 94 01 00
	00		 sub	 esp, 404		; 00000194H
  00017	a1 00 00 00 00	 mov	 eax, DWORD PTR ___security_cookie
  0001c	33 c5		 xor	 eax, ebp
  0001e	89 45 f0	 mov	 DWORD PTR __$ArrayPad$[ebp], eax
  00021	56		 push	 esi
  00022	57		 push	 edi
  00023	50		 push	 eax
  00024	8d 45 f4	 lea	 eax, DWORD PTR __$EHRec$[ebp]
  00027	64 a3 00 00 00
	00		 mov	 DWORD PTR fs:0, eax
  0002d	89 8d f4 fe ff
	ff		 mov	 DWORD PTR _this$GSCopy$1$[ebp], ecx
  00033	8b 45 14	 mov	 eax, DWORD PTR _nDataLen$[ebp]

; 654  : 	char *pszBuff = NULL;
; 655  : 	int nIndex = 0, nSize=0;
; 656  : 	CString strSrc;

  00036	8d 8d 10 ff ff
	ff		 lea	 ecx, DWORD PTR _strSrc$[ebp]
  0003c	8b 75 08	 mov	 esi, DWORD PTR _pData$[ebp]
  0003f	33 ff		 xor	 edi, edi
  00041	89 85 00 ff ff
	ff		 mov	 DWORD PTR _nDataLen$GSCopy$1$[ebp], eax
  00047	89 bd 08 ff ff
	ff		 mov	 DWORD PTR _nIndex$1$[ebp], edi
  0004d	ff 15 00 00 00
	00		 call	 DWORD PTR __imp_??0?$CStringT@DV?$StrTraitMFC_DLL@DV?$ChTraitsCRT@D@ATL@@@@@ATL@@QAE@XZ

; 657  : 	strSrc.Format(_T("%.*s"), nLen, (char*)pData);

  00053	56		 push	 esi
  00054	ff 75 0c	 push	 DWORD PTR _nLen$[ebp]
  00057	8b 35 00 00 00
	00		 mov	 esi, DWORD PTR __imp_?Format@?$CStringT@DV?$StrTraitMFC_DLL@DV?$ChTraitsCRT@D@ATL@@@@@ATL@@QAAXPBDZZ
  0005d	8d 85 10 ff ff
	ff		 lea	 eax, DWORD PTR _strSrc$[ebp]
  00063	68 00 00 00 00	 push	 OFFSET ??_C@_04EBNJJJJI@?$CF?4?$CKs@
  00068	50		 push	 eax
  00069	89 7d fc	 mov	 DWORD PTR __$EHRec$[ebp+8], edi
  0006c	ff d6		 call	 esi
  0006e	83 c4 10	 add	 esp, 16			; 00000010H

; 658  : 	CString strNode, strCode;

  00071	8d 8d 14 ff ff
	ff		 lea	 ecx, DWORD PTR _strNode$[ebp]
  00077	ff 15 00 00 00
	00		 call	 DWORD PTR __imp_??0?$CStringT@DV?$StrTraitMFC_DLL@DV?$ChTraitsCRT@D@ATL@@@@@ATL@@QAE@XZ
  0007d	8d 8d f0 fe ff
	ff		 lea	 ecx, DWORD PTR _strCode$[ebp]
  00083	ff 15 00 00 00
	00		 call	 DWORD PTR __imp_??0?$CStringT@DV?$StrTraitMFC_DLL@DV?$ChTraitsCRT@D@ATL@@@@@ATL@@QAE@XZ

; 659  : 	CChartBozoManager bojoMng;

  00089	8d 8d bc fe ff
	ff		 lea	 ecx, DWORD PTR _bojoMng$[ebp]
  0008f	c6 45 fc 02	 mov	 BYTE PTR __$EHRec$[ebp+8], 2
  00093	e8 00 00 00 00	 call	 ??0CChartBozoManager@@QAE@XZ ; CChartBozoManager::CChartBozoManager
; File D:\git\src\IBK\IBK_DRFN\ProjSrc\SrcDrfn\inc\IChartBozoMsgMng.h

; 39   : 	CChartBozoInput()	{ InitData();	};

  00098	8d 8d 1c ff ff
	ff		 lea	 ecx, DWORD PTR _bojoInput$[ebp+4]
  0009e	c7 85 18 ff ff
	ff 00 00 00 00	 mov	 DWORD PTR _bojoInput$[ebp], OFFSET ??_7CChartBozoInput@@6B@
  000a8	ff 15 00 00 00
	00		 call	 DWORD PTR __imp_??0?$CStringT@DV?$StrTraitMFC_DLL@DV?$ChTraitsCRT@D@ATL@@@@@ATL@@QAE@XZ
  000ae	8d 8d 20 ff ff
	ff		 lea	 ecx, DWORD PTR _bojoInput$[ebp+8]
  000b4	ff 15 00 00 00
	00		 call	 DWORD PTR __imp_??0?$CStringT@DV?$StrTraitMFC_DLL@DV?$ChTraitsCRT@D@ATL@@@@@ATL@@QAE@XZ
  000ba	8d 8d 24 ff ff
	ff		 lea	 ecx, DWORD PTR _bojoInput$[ebp+12]
  000c0	ff 15 00 00 00
	00		 call	 DWORD PTR __imp_??0?$CStringT@DV?$StrTraitMFC_DLL@DV?$ChTraitsCRT@D@ATL@@@@@ATL@@QAE@XZ
  000c6	8d 8d 28 ff ff
	ff		 lea	 ecx, DWORD PTR _bojoInput$[ebp+16]
  000cc	ff 15 00 00 00
	00		 call	 DWORD PTR __imp_??0?$CStringT@DV?$StrTraitMFC_DLL@DV?$ChTraitsCRT@D@ATL@@@@@ATL@@QAE@XZ
  000d2	8d 8d 2c ff ff
	ff		 lea	 ecx, DWORD PTR _bojoInput$[ebp+20]
  000d8	ff 15 00 00 00
	00		 call	 DWORD PTR __imp_??0?$CStringT@DV?$StrTraitMFC_DLL@DV?$ChTraitsCRT@D@ATL@@@@@ATL@@QAE@XZ
  000de	8d 8d 30 ff ff
	ff		 lea	 ecx, DWORD PTR _bojoInput$[ebp+24]
  000e4	ff 15 00 00 00
	00		 call	 DWORD PTR __imp_??0?$CStringT@DV?$StrTraitMFC_DLL@DV?$ChTraitsCRT@D@ATL@@@@@ATL@@QAE@XZ
  000ea	8d 8d 34 ff ff
	ff		 lea	 ecx, DWORD PTR _bojoInput$[ebp+28]
  000f0	ff 15 00 00 00
	00		 call	 DWORD PTR __imp_??0?$CStringT@DV?$StrTraitMFC_DLL@DV?$ChTraitsCRT@D@ATL@@@@@ATL@@QAE@XZ
  000f6	8d 8d 38 ff ff
	ff		 lea	 ecx, DWORD PTR _bojoInput$[ebp+32]
  000fc	ff 15 00 00 00
	00		 call	 DWORD PTR __imp_??0?$CStringT@DV?$StrTraitMFC_DLL@DV?$ChTraitsCRT@D@ATL@@@@@ATL@@QAE@XZ
  00102	8d 8d 3c ff ff
	ff		 lea	 ecx, DWORD PTR _bojoInput$[ebp+36]
  00108	ff 15 00 00 00
	00		 call	 DWORD PTR __imp_??0?$CStringT@DV?$StrTraitMFC_DLL@DV?$ChTraitsCRT@D@ATL@@@@@ATL@@QAE@XZ
  0010e	8d 8d 40 ff ff
	ff		 lea	 ecx, DWORD PTR _bojoInput$[ebp+40]
  00114	ff 15 00 00 00
	00		 call	 DWORD PTR __imp_??0?$CStringT@DV?$StrTraitMFC_DLL@DV?$ChTraitsCRT@D@ATL@@@@@ATL@@QAE@XZ
  0011a	8d 8d 44 ff ff
	ff		 lea	 ecx, DWORD PTR _bojoInput$[ebp+44]
  00120	ff 15 00 00 00
	00		 call	 DWORD PTR __imp_??0?$CStringT@DV?$StrTraitMFC_DLL@DV?$ChTraitsCRT@D@ATL@@@@@ATL@@QAE@XZ
  00126	8d 8d 48 ff ff
	ff		 lea	 ecx, DWORD PTR _bojoInput$[ebp+48]
  0012c	ff 15 00 00 00
	00		 call	 DWORD PTR __imp_??0?$CStringT@DV?$StrTraitMFC_DLL@DV?$ChTraitsCRT@D@ATL@@@@@ATL@@QAE@XZ
  00132	8d 8d 4c ff ff
	ff		 lea	 ecx, DWORD PTR _bojoInput$[ebp+52]
  00138	ff 15 00 00 00
	00		 call	 DWORD PTR __imp_??0?$CStringT@DV?$StrTraitMFC_DLL@DV?$ChTraitsCRT@D@ATL@@@@@ATL@@QAE@XZ
  0013e	8d 8d 50 ff ff
	ff		 lea	 ecx, DWORD PTR _bojoInput$[ebp+56]
  00144	ff 15 00 00 00
	00		 call	 DWORD PTR __imp_??0?$CStringT@DV?$StrTraitMFC_DLL@DV?$ChTraitsCRT@D@ATL@@@@@ATL@@QAE@XZ
  0014a	8d 8d 54 ff ff
	ff		 lea	 ecx, DWORD PTR _bojoInput$[ebp+60]
  00150	ff 15 00 00 00
	00		 call	 DWORD PTR __imp_??0?$CStringT@DV?$StrTraitMFC_DLL@DV?$ChTraitsCRT@D@ATL@@@@@ATL@@QAE@XZ
  00156	8d 8d 58 ff ff
	ff		 lea	 ecx, DWORD PTR _bojoInput$[ebp+64]
  0015c	ff 15 00 00 00
	00		 call	 DWORD PTR __imp_??0?$CStringT@DV?$StrTraitMFC_DLL@DV?$ChTraitsCRT@D@ATL@@@@@ATL@@QAE@XZ
  00162	8d 8d 5c ff ff
	ff		 lea	 ecx, DWORD PTR _bojoInput$[ebp+68]
  00168	ff 15 00 00 00
	00		 call	 DWORD PTR __imp_??0?$CStringT@DV?$StrTraitMFC_DLL@DV?$ChTraitsCRT@D@ATL@@@@@ATL@@QAE@XZ
  0016e	8d 8d 60 ff ff
	ff		 lea	 ecx, DWORD PTR _bojoInput$[ebp+72]
  00174	ff 15 00 00 00
	00		 call	 DWORD PTR __imp_??0?$CStringT@DV?$StrTraitMFC_DLL@DV?$ChTraitsCRT@D@ATL@@@@@ATL@@QAE@XZ
  0017a	8d 8d 64 ff ff
	ff		 lea	 ecx, DWORD PTR _bojoInput$[ebp+76]
  00180	ff 15 00 00 00
	00		 call	 DWORD PTR __imp_??0?$CStringT@DV?$StrTraitMFC_DLL@DV?$ChTraitsCRT@D@ATL@@@@@ATL@@QAE@XZ
  00186	8d 8d 68 ff ff
	ff		 lea	 ecx, DWORD PTR _bojoInput$[ebp+80]
  0018c	ff 15 00 00 00
	00		 call	 DWORD PTR __imp_??0?$CStringT@DV?$StrTraitMFC_DLL@DV?$ChTraitsCRT@D@ATL@@@@@ATL@@QAE@XZ
  00192	8d 8d 6c ff ff
	ff		 lea	 ecx, DWORD PTR _bojoInput$[ebp+84]
  00198	ff 15 00 00 00
	00		 call	 DWORD PTR __imp_??0?$CStringT@DV?$StrTraitMFC_DLL@DV?$ChTraitsCRT@D@ATL@@@@@ATL@@QAE@XZ
  0019e	8d 8d 70 ff ff
	ff		 lea	 ecx, DWORD PTR _bojoInput$[ebp+88]
  001a4	ff 15 00 00 00
	00		 call	 DWORD PTR __imp_??0?$CStringT@DV?$StrTraitMFC_DLL@DV?$ChTraitsCRT@D@ATL@@@@@ATL@@QAE@XZ
  001aa	8d 8d 74 ff ff
	ff		 lea	 ecx, DWORD PTR _bojoInput$[ebp+92]
  001b0	ff 15 00 00 00
	00		 call	 DWORD PTR __imp_??0?$CStringT@DV?$StrTraitMFC_DLL@DV?$ChTraitsCRT@D@ATL@@@@@ATL@@QAE@XZ
  001b6	8d 8d 78 ff ff
	ff		 lea	 ecx, DWORD PTR _bojoInput$[ebp+96]
  001bc	ff 15 00 00 00
	00		 call	 DWORD PTR __imp_??0?$CStringT@DV?$StrTraitMFC_DLL@DV?$ChTraitsCRT@D@ATL@@@@@ATL@@QAE@XZ
  001c2	8d 8d 7c ff ff
	ff		 lea	 ecx, DWORD PTR _bojoInput$[ebp+100]
  001c8	ff 15 00 00 00
	00		 call	 DWORD PTR __imp_??0?$CStringT@DV?$StrTraitMFC_DLL@DV?$ChTraitsCRT@D@ATL@@@@@ATL@@QAE@XZ
  001ce	8d 4d d8	 lea	 ecx, DWORD PTR _bojoInput$[ebp+192]
  001d1	ff 15 00 00 00
	00		 call	 DWORD PTR __imp_??0?$CStringT@DV?$StrTraitMFC_DLL@DV?$ChTraitsCRT@D@ATL@@@@@ATL@@QAE@XZ
  001d7	0f 57 c0	 xorps	 xmm0, xmm0

; 44   : 		ZeroMemory(sShcode, sizeof(sShcode));

  001da	0f 11 45 80	 movups	 XMMWORD PTR _bojoInput$[ebp+104], xmm0

; 45   : //		ZeroMemory(sTick, sizeof(sTick));
; 46   : 		lTick = 0;
; 47   : 		ZeroMemory(sTerm, sizeof(sTerm));
; 48   : 		ZeroMemory(sNxtFlg, sizeof(sNxtFlg));
; 49   : 		ZeroMemory(sDataType, sizeof(sDataType));

  001de	33 c0		 xor	 eax, eax
  001e0	89 7d 90	 mov	 DWORD PTR _bojoInput$[ebp+120], edi
  001e3	66 89 45 94	 mov	 WORD PTR _bojoInput$[ebp+124], ax
  001e7	88 45 96	 mov	 BYTE PTR _bojoInput$[ebp+126], al

; 50   : 		lPrice = 0;

  001ea	0f 11 45 98	 movups	 XMMWORD PTR _bojoInput$[ebp+128], xmm0

; 51   : 		lVolume = 0;
; 52   : 		lUpLmtPrice = 0;
; 53   : 		lDnLmtPrice = 0;
; 54   : 		lOpen;
; 55   : 		lHigh;
; 56   : 		lLow;
; 57   : 		lPreprice;	
; 58   : 		lPreVolume;	
; 59   : 		lPreOpen;
; 60   : 		lPreHigh;
; 61   : 		lPreLow;
; 62   : 		//ZeroMemory(sStartTime, sizeof(sStartTime));
; 63   : 		lFirstClose = 0;		

  001ee	89 45 bc	 mov	 DWORD PTR _bojoInput$[ebp+164], eax

; 64   : 		nMarket = 0;

  001f1	89 45 cc	 mov	 DWORD PTR _bojoInput$[ebp+180], eax

; 65   : 		lWonDollar = 0;

  001f4	89 45 d0	 mov	 DWORD PTR _bojoInput$[ebp+184], eax

; 66   : 
; 67   : //vntsorl_20110420:[A00000410]      
; 68   : 		nPacketType = 0;

  001f7	89 45 d4	 mov	 DWORD PTR _bojoInput$[ebp+188], eax
; File D:\git\src\IBK\IBK_DRFN\ProjSrc\SrcDrfn\DrCommon\PartnerMng\ChartItemMarket.cpp

; 661  : 	CStringArray arrDate, arrSel1, arrSel2, arrSel3;

  001fa	8d 8d 88 fe ff
	ff		 lea	 ecx, DWORD PTR _arrDate$[ebp]
  00200	c6 45 fc 03	 mov	 BYTE PTR __$EHRec$[ebp+8], 3
  00204	e8 00 00 00 00	 call	 ??0CStringArray@@QAE@XZ	; CStringArray::CStringArray
  00209	8d 8d 9c fe ff
	ff		 lea	 ecx, DWORD PTR _arrSel1$[ebp]
  0020f	c6 45 fc 04	 mov	 BYTE PTR __$EHRec$[ebp+8], 4
  00213	e8 00 00 00 00	 call	 ??0CStringArray@@QAE@XZ	; CStringArray::CStringArray
  00218	8d 8d 60 fe ff
	ff		 lea	 ecx, DWORD PTR _arrSel2$[ebp]
  0021e	c6 45 fc 05	 mov	 BYTE PTR __$EHRec$[ebp+8], 5
  00222	e8 00 00 00 00	 call	 ??0CStringArray@@QAE@XZ	; CStringArray::CStringArray
  00227	8d 8d 74 fe ff
	ff		 lea	 ecx, DWORD PTR _arrSel3$[ebp]
  0022d	c6 45 fc 06	 mov	 BYTE PTR __$EHRec$[ebp+8], 6
  00231	e8 00 00 00 00	 call	 ??0CStringArray@@QAE@XZ	; CStringArray::CStringArray

; 662  : 
; 663  : 	CString strNm1, strNm2, strNm3, strNm4;

  00236	8d 8d fc fe ff
	ff		 lea	 ecx, DWORD PTR _strNm1$[ebp]
  0023c	ff 15 00 00 00
	00		 call	 DWORD PTR __imp_??0?$CStringT@DV?$StrTraitMFC_DLL@DV?$ChTraitsCRT@D@ATL@@@@@ATL@@QAE@XZ
  00242	8d 8d e0 fe ff
	ff		 lea	 ecx, DWORD PTR _strNm2$[ebp]
  00248	ff 15 00 00 00
	00		 call	 DWORD PTR __imp_??0?$CStringT@DV?$StrTraitMFC_DLL@DV?$ChTraitsCRT@D@ATL@@@@@ATL@@QAE@XZ
  0024e	8d 8d b0 fe ff
	ff		 lea	 ecx, DWORD PTR _strNm3$[ebp]
  00254	ff 15 00 00 00
	00		 call	 DWORD PTR __imp_??0?$CStringT@DV?$StrTraitMFC_DLL@DV?$ChTraitsCRT@D@ATL@@@@@ATL@@QAE@XZ
  0025a	8d 8d b4 fe ff
	ff		 lea	 ecx, DWORD PTR _strNm4$[ebp]
  00260	ff 15 00 00 00
	00		 call	 DWORD PTR __imp_??0?$CStringT@DV?$StrTraitMFC_DLL@DV?$ChTraitsCRT@D@ATL@@@@@ATL@@QAE@XZ

; 664  : 	CString strDataNm, strData;

  00266	8d 8d 04 ff ff
	ff		 lea	 ecx, DWORD PTR _strDataNm$[ebp]
  0026c	ff 15 00 00 00
	00		 call	 DWORD PTR __imp_??0?$CStringT@DV?$StrTraitMFC_DLL@DV?$ChTraitsCRT@D@ATL@@@@@ATL@@QAE@XZ
  00272	8d 8d e8 fe ff
	ff		 lea	 ecx, DWORD PTR _strData$[ebp]
  00278	ff 15 00 00 00
	00		 call	 DWORD PTR __imp_??0?$CStringT@DV?$StrTraitMFC_DLL@DV?$ChTraitsCRT@D@ATL@@@@@ATL@@QAE@XZ

; 665  : 	strDataNm.Format(_T("%.*s"), sizeof(m_InData.dataNm), m_InData.dataNm);

  0027e	8b 85 f4 fe ff
	ff		 mov	 eax, DWORD PTR _this$GSCopy$1$[ebp]
  00284	83 c0 23	 add	 eax, 35			; 00000023H
  00287	c6 45 fc 0d	 mov	 BYTE PTR __$EHRec$[ebp+8], 13 ; 0000000dH
  0028b	50		 push	 eax
  0028c	6a 64		 push	 100			; 00000064H
  0028e	89 85 dc fe ff
	ff		 mov	 DWORD PTR tv2430[ebp], eax
  00294	8d 85 04 ff ff
	ff		 lea	 eax, DWORD PTR _strDataNm$[ebp]
  0029a	68 00 00 00 00	 push	 OFFSET ??_C@_04EBNJJJJI@?$CF?4?$CKs@
  0029f	50		 push	 eax
  002a0	ff d6		 call	 esi
  002a2	83 c4 10	 add	 esp, 16			; 00000010H

; 666  : 	int nFind = strDataNm.Find(_T(";"));

  002a5	8d 8d 04 ff ff
	ff		 lea	 ecx, DWORD PTR _strDataNm$[ebp]
  002ab	57		 push	 edi
  002ac	68 00 00 00 00	 push	 OFFSET ??_C@_01ICJEACDI@?$DL@
  002b1	ff 15 00 00 00
	00		 call	 DWORD PTR __imp_?Find@?$CStringT@DV?$StrTraitMFC_DLL@DV?$ChTraitsCRT@D@ATL@@@@@ATL@@QBEHPBDH@Z
  002b7	8b f0		 mov	 esi, eax

; 667  : 	if (nFind)

  002b9	85 f6		 test	 esi, esi
  002bb	74 6d		 je	 SHORT $LN12@Convert2St

; 668  : 	{
; 669  : 		strNm1 = strDataNm.Left(nFind);

  002bd	56		 push	 esi
  002be	8d 85 0c ff ff
	ff		 lea	 eax, DWORD PTR $T28[ebp]
  002c4	50		 push	 eax
  002c5	8d 8d 04 ff ff
	ff		 lea	 ecx, DWORD PTR _strDataNm$[ebp]
  002cb	ff 15 00 00 00
	00		 call	 DWORD PTR __imp_?Left@?$CStringT@DV?$StrTraitMFC_DLL@DV?$ChTraitsCRT@D@ATL@@@@@ATL@@QBE?AV12@H@Z
  002d1	50		 push	 eax
  002d2	8d 8d fc fe ff
	ff		 lea	 ecx, DWORD PTR _strNm1$[ebp]
  002d8	c6 45 fc 0e	 mov	 BYTE PTR __$EHRec$[ebp+8], 14 ; 0000000eH
  002dc	ff 15 00 00 00
	00		 call	 DWORD PTR __imp_??4?$CStringT@DV?$StrTraitMFC_DLL@DV?$ChTraitsCRT@D@ATL@@@@@ATL@@QAEAAV01@ABV01@@Z
  002e2	8d 8d 0c ff ff
	ff		 lea	 ecx, DWORD PTR $T28[ebp]
  002e8	c6 45 fc 0d	 mov	 BYTE PTR __$EHRec$[ebp+8], 13 ; 0000000dH
  002ec	ff 15 00 00 00
	00		 call	 DWORD PTR __imp_??1?$CStringT@DV?$StrTraitMFC_DLL@DV?$ChTraitsCRT@D@ATL@@@@@ATL@@QAE@XZ

; 670  : 		strDataNm = strDataNm.Mid(nFind+1);

  002f2	8d 46 01	 lea	 eax, DWORD PTR [esi+1]
  002f5	50		 push	 eax
  002f6	8d 85 0c ff ff
	ff		 lea	 eax, DWORD PTR $T27[ebp]
  002fc	50		 push	 eax
  002fd	8d 8d 04 ff ff
	ff		 lea	 ecx, DWORD PTR _strDataNm$[ebp]
  00303	ff 15 00 00 00
	00		 call	 DWORD PTR __imp_?Mid@?$CStringT@DV?$StrTraitMFC_DLL@DV?$ChTraitsCRT@D@ATL@@@@@ATL@@QBE?AV12@H@Z
  00309	50		 push	 eax
  0030a	8d 8d 04 ff ff
	ff		 lea	 ecx, DWORD PTR _strDataNm$[ebp]
  00310	c6 45 fc 0f	 mov	 BYTE PTR __$EHRec$[ebp+8], 15 ; 0000000fH
  00314	ff 15 00 00 00
	00		 call	 DWORD PTR __imp_??4?$CStringT@DV?$StrTraitMFC_DLL@DV?$ChTraitsCRT@D@ATL@@@@@ATL@@QAEAAV01@ABV01@@Z
  0031a	8d 8d 0c ff ff
	ff		 lea	 ecx, DWORD PTR $T27[ebp]
  00320	c6 45 fc 0d	 mov	 BYTE PTR __$EHRec$[ebp+8], 13 ; 0000000dH
  00324	ff 15 00 00 00
	00		 call	 DWORD PTR __imp_??1?$CStringT@DV?$StrTraitMFC_DLL@DV?$ChTraitsCRT@D@ATL@@@@@ATL@@QAE@XZ
$LN12@Convert2St:

; 671  : 	}
; 672  : 	nFind = strDataNm.Find(_T(";"));

  0032a	6a 00		 push	 0
  0032c	68 00 00 00 00	 push	 OFFSET ??_C@_01ICJEACDI@?$DL@
  00331	8d 8d 04 ff ff
	ff		 lea	 ecx, DWORD PTR _strDataNm$[ebp]
  00337	ff 15 00 00 00
	00		 call	 DWORD PTR __imp_?Find@?$CStringT@DV?$StrTraitMFC_DLL@DV?$ChTraitsCRT@D@ATL@@@@@ATL@@QBEHPBDH@Z
  0033d	8b f0		 mov	 esi, eax

; 673  : 	if (nFind)

  0033f	85 f6		 test	 esi, esi
  00341	74 6d		 je	 SHORT $LN13@Convert2St

; 674  : 	{
; 675  : 		strNm2 = strDataNm.Left(nFind);

  00343	56		 push	 esi
  00344	8d 85 0c ff ff
	ff		 lea	 eax, DWORD PTR $T26[ebp]
  0034a	50		 push	 eax
  0034b	8d 8d 04 ff ff
	ff		 lea	 ecx, DWORD PTR _strDataNm$[ebp]
  00351	ff 15 00 00 00
	00		 call	 DWORD PTR __imp_?Left@?$CStringT@DV?$StrTraitMFC_DLL@DV?$ChTraitsCRT@D@ATL@@@@@ATL@@QBE?AV12@H@Z
  00357	50		 push	 eax
  00358	8d 8d e0 fe ff
	ff		 lea	 ecx, DWORD PTR _strNm2$[ebp]
  0035e	c6 45 fc 10	 mov	 BYTE PTR __$EHRec$[ebp+8], 16 ; 00000010H
  00362	ff 15 00 00 00
	00		 call	 DWORD PTR __imp_??4?$CStringT@DV?$StrTraitMFC_DLL@DV?$ChTraitsCRT@D@ATL@@@@@ATL@@QAEAAV01@ABV01@@Z
  00368	8d 8d 0c ff ff
	ff		 lea	 ecx, DWORD PTR $T26[ebp]
  0036e	c6 45 fc 0d	 mov	 BYTE PTR __$EHRec$[ebp+8], 13 ; 0000000dH
  00372	ff 15 00 00 00
	00		 call	 DWORD PTR __imp_??1?$CStringT@DV?$StrTraitMFC_DLL@DV?$ChTraitsCRT@D@ATL@@@@@ATL@@QAE@XZ

; 676  : 		strDataNm = strDataNm.Mid(nFind+1);

  00378	8d 46 01	 lea	 eax, DWORD PTR [esi+1]
  0037b	50		 push	 eax
  0037c	8d 85 0c ff ff
	ff		 lea	 eax, DWORD PTR $T25[ebp]
  00382	50		 push	 eax
  00383	8d 8d 04 ff ff
	ff		 lea	 ecx, DWORD PTR _strDataNm$[ebp]
  00389	ff 15 00 00 00
	00		 call	 DWORD PTR __imp_?Mid@?$CStringT@DV?$StrTraitMFC_DLL@DV?$ChTraitsCRT@D@ATL@@@@@ATL@@QBE?AV12@H@Z
  0038f	50		 push	 eax
  00390	8d 8d 04 ff ff
	ff		 lea	 ecx, DWORD PTR _strDataNm$[ebp]
  00396	c6 45 fc 11	 mov	 BYTE PTR __$EHRec$[ebp+8], 17 ; 00000011H
  0039a	ff 15 00 00 00
	00		 call	 DWORD PTR __imp_??4?$CStringT@DV?$StrTraitMFC_DLL@DV?$ChTraitsCRT@D@ATL@@@@@ATL@@QAEAAV01@ABV01@@Z
  003a0	8d 8d 0c ff ff
	ff		 lea	 ecx, DWORD PTR $T25[ebp]
  003a6	c6 45 fc 0d	 mov	 BYTE PTR __$EHRec$[ebp+8], 13 ; 0000000dH
  003aa	ff 15 00 00 00
	00		 call	 DWORD PTR __imp_??1?$CStringT@DV?$StrTraitMFC_DLL@DV?$ChTraitsCRT@D@ATL@@@@@ATL@@QAE@XZ
$LN13@Convert2St:

; 677  : 	}
; 678  : 	nFind = strDataNm.Find(_T(";"));

  003b0	6a 00		 push	 0
  003b2	68 00 00 00 00	 push	 OFFSET ??_C@_01ICJEACDI@?$DL@
  003b7	8d 8d 04 ff ff
	ff		 lea	 ecx, DWORD PTR _strDataNm$[ebp]
  003bd	ff 15 00 00 00
	00		 call	 DWORD PTR __imp_?Find@?$CStringT@DV?$StrTraitMFC_DLL@DV?$ChTraitsCRT@D@ATL@@@@@ATL@@QBEHPBDH@Z
  003c3	8b f0		 mov	 esi, eax

; 679  : 	if (nFind)

  003c5	85 f6		 test	 esi, esi
  003c7	74 6d		 je	 SHORT $LN14@Convert2St

; 680  : 	{
; 681  : 		strNm3 = strDataNm.Left(nFind);

  003c9	56		 push	 esi
  003ca	8d 85 0c ff ff
	ff		 lea	 eax, DWORD PTR $T24[ebp]
  003d0	50		 push	 eax
  003d1	8d 8d 04 ff ff
	ff		 lea	 ecx, DWORD PTR _strDataNm$[ebp]
  003d7	ff 15 00 00 00
	00		 call	 DWORD PTR __imp_?Left@?$CStringT@DV?$StrTraitMFC_DLL@DV?$ChTraitsCRT@D@ATL@@@@@ATL@@QBE?AV12@H@Z
  003dd	50		 push	 eax
  003de	8d 8d b0 fe ff
	ff		 lea	 ecx, DWORD PTR _strNm3$[ebp]
  003e4	c6 45 fc 12	 mov	 BYTE PTR __$EHRec$[ebp+8], 18 ; 00000012H
  003e8	ff 15 00 00 00
	00		 call	 DWORD PTR __imp_??4?$CStringT@DV?$StrTraitMFC_DLL@DV?$ChTraitsCRT@D@ATL@@@@@ATL@@QAEAAV01@ABV01@@Z
  003ee	8d 8d 0c ff ff
	ff		 lea	 ecx, DWORD PTR $T24[ebp]
  003f4	c6 45 fc 0d	 mov	 BYTE PTR __$EHRec$[ebp+8], 13 ; 0000000dH
  003f8	ff 15 00 00 00
	00		 call	 DWORD PTR __imp_??1?$CStringT@DV?$StrTraitMFC_DLL@DV?$ChTraitsCRT@D@ATL@@@@@ATL@@QAE@XZ

; 682  : 		strDataNm = strDataNm.Mid(nFind+1);

  003fe	8d 46 01	 lea	 eax, DWORD PTR [esi+1]
  00401	50		 push	 eax
  00402	8d 85 0c ff ff
	ff		 lea	 eax, DWORD PTR $T23[ebp]
  00408	50		 push	 eax
  00409	8d 8d 04 ff ff
	ff		 lea	 ecx, DWORD PTR _strDataNm$[ebp]
  0040f	ff 15 00 00 00
	00		 call	 DWORD PTR __imp_?Mid@?$CStringT@DV?$StrTraitMFC_DLL@DV?$ChTraitsCRT@D@ATL@@@@@ATL@@QBE?AV12@H@Z
  00415	50		 push	 eax
  00416	8d 8d 04 ff ff
	ff		 lea	 ecx, DWORD PTR _strDataNm$[ebp]
  0041c	c6 45 fc 13	 mov	 BYTE PTR __$EHRec$[ebp+8], 19 ; 00000013H
  00420	ff 15 00 00 00
	00		 call	 DWORD PTR __imp_??4?$CStringT@DV?$StrTraitMFC_DLL@DV?$ChTraitsCRT@D@ATL@@@@@ATL@@QAEAAV01@ABV01@@Z
  00426	8d 8d 0c ff ff
	ff		 lea	 ecx, DWORD PTR $T23[ebp]
  0042c	c6 45 fc 0d	 mov	 BYTE PTR __$EHRec$[ebp+8], 13 ; 0000000dH
  00430	ff 15 00 00 00
	00		 call	 DWORD PTR __imp_??1?$CStringT@DV?$StrTraitMFC_DLL@DV?$ChTraitsCRT@D@ATL@@@@@ATL@@QAE@XZ
$LN14@Convert2St:

; 683  : 	}
; 684  : 	nFind = strDataNm.Find(_T(";"));

  00436	6a 00		 push	 0
  00438	68 00 00 00 00	 push	 OFFSET ??_C@_01ICJEACDI@?$DL@
  0043d	8d 8d 04 ff ff
	ff		 lea	 ecx, DWORD PTR _strDataNm$[ebp]
  00443	ff 15 00 00 00
	00		 call	 DWORD PTR __imp_?Find@?$CStringT@DV?$StrTraitMFC_DLL@DV?$ChTraitsCRT@D@ATL@@@@@ATL@@QBEHPBDH@Z

; 685  : 	if (nFind)

  00449	85 c0		 test	 eax, eax
  0044b	74 35		 je	 SHORT $LN15@Convert2St

; 686  : 		strNm4 = strDataNm.Left(nFind);

  0044d	50		 push	 eax
  0044e	8d 85 0c ff ff
	ff		 lea	 eax, DWORD PTR $T22[ebp]
  00454	50		 push	 eax
  00455	8d 8d 04 ff ff
	ff		 lea	 ecx, DWORD PTR _strDataNm$[ebp]
  0045b	ff 15 00 00 00
	00		 call	 DWORD PTR __imp_?Left@?$CStringT@DV?$StrTraitMFC_DLL@DV?$ChTraitsCRT@D@ATL@@@@@ATL@@QBE?AV12@H@Z
  00461	50		 push	 eax
  00462	8d 8d b4 fe ff
	ff		 lea	 ecx, DWORD PTR _strNm4$[ebp]
  00468	c6 45 fc 14	 mov	 BYTE PTR __$EHRec$[ebp+8], 20 ; 00000014H
  0046c	ff 15 00 00 00
	00		 call	 DWORD PTR __imp_??4?$CStringT@DV?$StrTraitMFC_DLL@DV?$ChTraitsCRT@D@ATL@@@@@ATL@@QAEAAV01@ABV01@@Z
  00472	8d 8d 0c ff ff
	ff		 lea	 ecx, DWORD PTR $T22[ebp]
  00478	c6 45 fc 0d	 mov	 BYTE PTR __$EHRec$[ebp+8], 13 ; 0000000dH
  0047c	ff 15 00 00 00
	00		 call	 DWORD PTR __imp_??1?$CStringT@DV?$StrTraitMFC_DLL@DV?$ChTraitsCRT@D@ATL@@@@@ATL@@QAE@XZ
$LN15@Convert2St:

; 687  : //	strSrc = strSrc.Mid(136);
; 688  : 	if (nKey <= TRKEY_STRMARKET_END)

  00482	81 7d 10 c8 00
	00 00		 cmp	 DWORD PTR _nKey$[ebp], 200 ; 000000c8H
  00489	51		 push	 ecx
  0048a	8b cc		 mov	 ecx, esp
  0048c	6a 01		 push	 1
  0048e	0f 8f f3 06 00
	00		 jg	 $LN16@Convert2St

; 689  : 	{
; 690  : 		strCode = CDataConverter::Parser(strSrc, sCELL);	// 

  00494	6a 09		 push	 9
  00496	ff 15 00 00 00
	00		 call	 DWORD PTR __imp_??0?$CStringT@DV?$StrTraitMFC_DLL@DV?$ChTraitsCRT@D@ATL@@@@@ATL@@QAE@DH@Z
  0049c	8d 85 10 ff ff
	ff		 lea	 eax, DWORD PTR _strSrc$[ebp]
  004a2	50		 push	 eax
  004a3	8d 85 f8 fe ff
	ff		 lea	 eax, DWORD PTR $T17[ebp]
  004a9	50		 push	 eax
  004aa	e8 00 00 00 00	 call	 ?Parser@CDataConverter@@SA?AV?$CStringT@DV?$StrTraitMFC_DLL@DV?$ChTraitsCRT@D@ATL@@@@@ATL@@AAV23@V23@@Z ; CDataConverter::Parser
  004af	83 c4 0c	 add	 esp, 12			; 0000000cH
  004b2	50		 push	 eax
  004b3	8d 8d f0 fe ff
	ff		 lea	 ecx, DWORD PTR _strCode$[ebp]
  004b9	c6 45 fc 15	 mov	 BYTE PTR __$EHRec$[ebp+8], 21 ; 00000015H
  004bd	ff 15 00 00 00
	00		 call	 DWORD PTR __imp_??4?$CStringT@DV?$StrTraitMFC_DLL@DV?$ChTraitsCRT@D@ATL@@@@@ATL@@QAEAAV01@ABV01@@Z
  004c3	8d 8d f8 fe ff
	ff		 lea	 ecx, DWORD PTR $T17[ebp]
  004c9	c6 45 fc 0d	 mov	 BYTE PTR __$EHRec$[ebp+8], 13 ; 0000000dH
  004cd	ff 15 00 00 00
	00		 call	 DWORD PTR __imp_??1?$CStringT@DV?$StrTraitMFC_DLL@DV?$ChTraitsCRT@D@ATL@@@@@ATL@@QAE@XZ

; 691  : 
; 692  : 		//KHD : NextKey
; 693  : 		CString strNextKey = CDataConverter::Parser(strSrc, sCELL);

  004d3	51		 push	 ecx
  004d4	8b cc		 mov	 ecx, esp
  004d6	6a 01		 push	 1
  004d8	6a 09		 push	 9
  004da	ff 15 00 00 00
	00		 call	 DWORD PTR __imp_??0?$CStringT@DV?$StrTraitMFC_DLL@DV?$ChTraitsCRT@D@ATL@@@@@ATL@@QAE@DH@Z
  004e0	8d 85 10 ff ff
	ff		 lea	 eax, DWORD PTR _strSrc$[ebp]
  004e6	50		 push	 eax
  004e7	8d 85 0c ff ff
	ff		 lea	 eax, DWORD PTR _strNextKey$21[ebp]
  004ed	50		 push	 eax
  004ee	e8 00 00 00 00	 call	 ?Parser@CDataConverter@@SA?AV?$CStringT@DV?$StrTraitMFC_DLL@DV?$ChTraitsCRT@D@ATL@@@@@ATL@@AAV23@V23@@Z ; CDataConverter::Parser
  004f3	83 c4 0c	 add	 esp, 12			; 0000000cH

; 694  : 
; 695  : 		//  
; 696  : 		GRAPH_IO gridOut;
; 697  : 		memcpy(&gridOut, (LPSTR)(LPCTSTR)strSrc, sizeof(gridOut));
; 698  : 		strSrc = strSrc.Mid(sizeof(gridOut));

  004f6	68 88 00 00 00	 push	 136			; 00000088H
  004fb	8d 85 f8 fe ff
	ff		 lea	 eax, DWORD PTR $T16[ebp]
  00501	c6 45 fc 16	 mov	 BYTE PTR __$EHRec$[ebp+8], 22 ; 00000016H
  00505	50		 push	 eax
  00506	8d 8d 10 ff ff
	ff		 lea	 ecx, DWORD PTR _strSrc$[ebp]
  0050c	ff 15 00 00 00
	00		 call	 DWORD PTR __imp_?Mid@?$CStringT@DV?$StrTraitMFC_DLL@DV?$ChTraitsCRT@D@ATL@@@@@ATL@@QBE?AV12@H@Z
  00512	50		 push	 eax
  00513	8d 8d 10 ff ff
	ff		 lea	 ecx, DWORD PTR _strSrc$[ebp]
  00519	c6 45 fc 17	 mov	 BYTE PTR __$EHRec$[ebp+8], 23 ; 00000017H
  0051d	ff 15 00 00 00
	00		 call	 DWORD PTR __imp_??4?$CStringT@DV?$StrTraitMFC_DLL@DV?$ChTraitsCRT@D@ATL@@@@@ATL@@QAEAAV01@ABV01@@Z
  00523	8d 8d f8 fe ff
	ff		 lea	 ecx, DWORD PTR $T16[ebp]
  00529	c6 45 fc 16	 mov	 BYTE PTR __$EHRec$[ebp+8], 22 ; 00000016H
  0052d	ff 15 00 00 00
	00		 call	 DWORD PTR __imp_??1?$CStringT@DV?$StrTraitMFC_DLL@DV?$ChTraitsCRT@D@ATL@@@@@ATL@@QAE@XZ

; 699  : 		strSrc.TrimLeft(); strSrc.TrimRight();

  00533	8d 8d 10 ff ff
	ff		 lea	 ecx, DWORD PTR _strSrc$[ebp]
  00539	ff 15 00 00 00
	00		 call	 DWORD PTR __imp_?TrimLeft@?$CStringT@DV?$StrTraitMFC_DLL@DV?$ChTraitsCRT@D@ATL@@@@@ATL@@QAEAAV12@XZ
  0053f	8d 8d 10 ff ff
	ff		 lea	 ecx, DWORD PTR _strSrc$[ebp]
  00545	ff 15 00 00 00
	00		 call	 DWORD PTR __imp_?TrimRight@?$CStringT@DV?$StrTraitMFC_DLL@DV?$ChTraitsCRT@D@ATL@@@@@ATL@@QAEAAV12@XZ
; File C:\Program Files (x86)\Microsoft Visual Studio\2019\Community\VC\Tools\MSVC\14.29.30133\atlmfc\include\atlsimpstr.h

; 519  : 		return( GetData()->nDataLength );

  0054b	8b 85 10 ff ff
	ff		 mov	 eax, DWORD PTR _strSrc$[ebp]

; 533  : 		return( GetLength() == 0 );

  00551	83 78 f4 00	 cmp	 DWORD PTR [eax-12], 0
; File D:\git\src\IBK\IBK_DRFN\ProjSrc\SrcDrfn\DrCommon\PartnerMng\ChartItemMarket.cpp

; 701  : 		while (strSrc.IsEmpty() == FALSE)

  00555	0f 84 ec 00 00
	00		 je	 $LN410@Convert2St
  0055b	0f 1f 44 00 00	 npad	 5
$LL2@Convert2St:

; 702  : 		{
; 703  : 			strNode = CDataConverter::Parser(strSrc, sCELL);	// 

  00560	51		 push	 ecx
  00561	8b cc		 mov	 ecx, esp
  00563	6a 01		 push	 1
  00565	6a 09		 push	 9
  00567	ff 15 00 00 00
	00		 call	 DWORD PTR __imp_??0?$CStringT@DV?$StrTraitMFC_DLL@DV?$ChTraitsCRT@D@ATL@@@@@ATL@@QAE@DH@Z
  0056d	8d 85 10 ff ff
	ff		 lea	 eax, DWORD PTR _strSrc$[ebp]
  00573	50		 push	 eax
  00574	8d 85 f8 fe ff
	ff		 lea	 eax, DWORD PTR $T15[ebp]
  0057a	50		 push	 eax
  0057b	e8 00 00 00 00	 call	 ?Parser@CDataConverter@@SA?AV?$CStringT@DV?$StrTraitMFC_DLL@DV?$ChTraitsCRT@D@ATL@@@@@ATL@@AAV23@V23@@Z ; CDataConverter::Parser
  00580	83 c4 0c	 add	 esp, 12			; 0000000cH
  00583	50		 push	 eax
  00584	8d 8d 14 ff ff
	ff		 lea	 ecx, DWORD PTR _strNode$[ebp]
  0058a	c6 45 fc 18	 mov	 BYTE PTR __$EHRec$[ebp+8], 24 ; 00000018H
  0058e	ff 15 00 00 00
	00		 call	 DWORD PTR __imp_??4?$CStringT@DV?$StrTraitMFC_DLL@DV?$ChTraitsCRT@D@ATL@@@@@ATL@@QAEAAV01@ABV01@@Z
  00594	8d 8d f8 fe ff
	ff		 lea	 ecx, DWORD PTR $T15[ebp]
  0059a	c6 45 fc 16	 mov	 BYTE PTR __$EHRec$[ebp+8], 22 ; 00000016H
  0059e	ff 15 00 00 00
	00		 call	 DWORD PTR __imp_??1?$CStringT@DV?$StrTraitMFC_DLL@DV?$ChTraitsCRT@D@ATL@@@@@ATL@@QAE@XZ
; File C:\Program Files (x86)\Microsoft Visual Studio\2019\Community\VC\Tools\MSVC\14.29.30133\atlmfc\include\afxcoll.inl

; 321  : 		SetAtGrow(nIndex, newElement);

  005a4	8d 85 14 ff ff
	ff		 lea	 eax, DWORD PTR _strNode$[ebp]
  005aa	50		 push	 eax
  005ab	ff b5 90 fe ff
	ff		 push	 DWORD PTR _arrDate$[ebp+8]
  005b1	8d 8d 88 fe ff
	ff		 lea	 ecx, DWORD PTR _arrDate$[ebp]
  005b7	e8 00 00 00 00	 call	 ?SetAtGrow@CStringArray@@QAEXHABV?$CStringT@DV?$StrTraitMFC_DLL@DV?$ChTraitsCRT@D@ATL@@@@@ATL@@@Z ; CStringArray::SetAtGrow
; File C:\Program Files (x86)\Microsoft Visual Studio\2019\Community\VC\Tools\MSVC\14.29.30133\atlmfc\include\atlsimpstr.h

; 519  : 		return( GetData()->nDataLength );

  005bc	8b 85 10 ff ff
	ff		 mov	 eax, DWORD PTR _strSrc$[ebp]

; 533  : 		return( GetLength() == 0 );

  005c2	83 78 f4 00	 cmp	 DWORD PTR [eax-12], 0
; File D:\git\src\IBK\IBK_DRFN\ProjSrc\SrcDrfn\DrCommon\PartnerMng\ChartItemMarket.cpp

; 706  : 			if (strSrc.IsEmpty() || strNode.GetLength() < 3)	break;

  005c6	74 79		 je	 SHORT $LN467@Convert2St
; File C:\Program Files (x86)\Microsoft Visual Studio\2019\Community\VC\Tools\MSVC\14.29.30133\atlmfc\include\atlsimpstr.h

; 519  : 		return( GetData()->nDataLength );

  005c8	8b 85 14 ff ff
	ff		 mov	 eax, DWORD PTR _strNode$[ebp]
; File D:\git\src\IBK\IBK_DRFN\ProjSrc\SrcDrfn\DrCommon\PartnerMng\ChartItemMarket.cpp

; 706  : 			if (strSrc.IsEmpty() || strNode.GetLength() < 3)	break;

  005ce	83 78 f4 03	 cmp	 DWORD PTR [eax-12], 3
  005d2	7c 6d		 jl	 SHORT $LN467@Convert2St

; 707  : 			strNode = CDataConverter::Parser(strSrc, sROW);		// 

  005d4	51		 push	 ecx
  005d5	8b cc		 mov	 ecx, esp
  005d7	6a 01		 push	 1
  005d9	6a 0a		 push	 10			; 0000000aH
  005db	ff 15 00 00 00
	00		 call	 DWORD PTR __imp_??0?$CStringT@DV?$StrTraitMFC_DLL@DV?$ChTraitsCRT@D@ATL@@@@@ATL@@QAE@DH@Z
  005e1	8d 85 10 ff ff
	ff		 lea	 eax, DWORD PTR _strSrc$[ebp]
  005e7	50		 push	 eax
  005e8	8d 85 08 ff ff
	ff		 lea	 eax, DWORD PTR $T19[ebp]
  005ee	50		 push	 eax
  005ef	e8 00 00 00 00	 call	 ?Parser@CDataConverter@@SA?AV?$CStringT@DV?$StrTraitMFC_DLL@DV?$ChTraitsCRT@D@ATL@@@@@ATL@@AAV23@V23@@Z ; CDataConverter::Parser
  005f4	83 c4 0c	 add	 esp, 12			; 0000000cH
  005f7	50		 push	 eax
  005f8	8d 8d 14 ff ff
	ff		 lea	 ecx, DWORD PTR _strNode$[ebp]
  005fe	c6 45 fc 19	 mov	 BYTE PTR __$EHRec$[ebp+8], 25 ; 00000019H
  00602	ff 15 00 00 00
	00		 call	 DWORD PTR __imp_??4?$CStringT@DV?$StrTraitMFC_DLL@DV?$ChTraitsCRT@D@ATL@@@@@ATL@@QAEAAV01@ABV01@@Z
  00608	8d 8d 08 ff ff
	ff		 lea	 ecx, DWORD PTR $T19[ebp]
  0060e	c6 45 fc 16	 mov	 BYTE PTR __$EHRec$[ebp+8], 22 ; 00000016H
  00612	ff 15 00 00 00
	00		 call	 DWORD PTR __imp_??1?$CStringT@DV?$StrTraitMFC_DLL@DV?$ChTraitsCRT@D@ATL@@@@@ATL@@QAE@XZ
; File C:\Program Files (x86)\Microsoft Visual Studio\2019\Community\VC\Tools\MSVC\14.29.30133\atlmfc\include\afxcoll.inl

; 321  : 		SetAtGrow(nIndex, newElement);

  00618	8d 85 14 ff ff
	ff		 lea	 eax, DWORD PTR _strNode$[ebp]
  0061e	50		 push	 eax
  0061f	ff b5 a4 fe ff
	ff		 push	 DWORD PTR _arrSel1$[ebp+8]
  00625	8d 8d 9c fe ff
	ff		 lea	 ecx, DWORD PTR _arrSel1$[ebp]
  0062b	e8 00 00 00 00	 call	 ?SetAtGrow@CStringArray@@QAEXHABV?$CStringT@DV?$StrTraitMFC_DLL@DV?$ChTraitsCRT@D@ATL@@@@@ATL@@@Z ; CStringArray::SetAtGrow
; File C:\Program Files (x86)\Microsoft Visual Studio\2019\Community\VC\Tools\MSVC\14.29.30133\atlmfc\include\atlsimpstr.h

; 519  : 		return( GetData()->nDataLength );

  00630	8b 85 10 ff ff
	ff		 mov	 eax, DWORD PTR _strSrc$[ebp]
; File D:\git\src\IBK\IBK_DRFN\ProjSrc\SrcDrfn\DrCommon\PartnerMng\ChartItemMarket.cpp

; 710  : 			nIndex++;

  00636	47		 inc	 edi
; File C:\Program Files (x86)\Microsoft Visual Studio\2019\Community\VC\Tools\MSVC\14.29.30133\atlmfc\include\atlsimpstr.h

; 533  : 		return( GetLength() == 0 );

  00637	83 78 f4 00	 cmp	 DWORD PTR [eax-12], 0
; File D:\git\src\IBK\IBK_DRFN\ProjSrc\SrcDrfn\DrCommon\PartnerMng\ChartItemMarket.cpp

; 701  : 		while (strSrc.IsEmpty() == FALSE)

  0063b	0f 85 1f ff ff
	ff		 jne	 $LL2@Convert2St
$LN467@Convert2St:
  00641	89 bd 08 ff ff
	ff		 mov	 DWORD PTR _nIndex$1$[ebp], edi
$LN410@Convert2St:

; 711  : 		}
; 712  : 
; 713  : 		nDataLen = sizeof(KB_d1015_OutRec1) + nIndex * sizeof(KB_d1015_OutRec2_1);

  00647	6b c7 17	 imul	 eax, edi, 23
  0064a	8b bd 00 ff ff
	ff		 mov	 edi, DWORD PTR _nDataLen$GSCopy$1$[ebp]
  00650	05 5e 02 00 00	 add	 eax, 606		; 0000025eH
  00655	89 07		 mov	 DWORD PTR [edi], eax

; 714  : 		pszBuff = new char[nDataLen+1];

  00657	40		 inc	 eax
  00658	50		 push	 eax
  00659	e8 00 00 00 00	 call	 ??_U@YAPAXI@Z		; operator new[]

; 715  : 		memset(pszBuff, 0x20, nDataLen);

  0065e	ff 37		 push	 DWORD PTR [edi]
  00660	8b f0		 mov	 esi, eax
  00662	6a 20		 push	 32			; 00000020H
  00664	56		 push	 esi
  00665	89 b5 00 ff ff
	ff		 mov	 DWORD PTR _pszBuff$1$[ebp], esi
  0066b	e8 00 00 00 00	 call	 _memset

; 716  : 		pszBuff[nDataLen] = 0x00;

  00670	8b 0f		 mov	 ecx, DWORD PTR [edi]
  00672	83 c4 10	 add	 esp, 16			; 00000010H

; 722  : 		memcpy(pstOut->dataNm, m_InData.dataNm, sizeof(m_InData.dataNm));

  00675	8d 7e 08	 lea	 edi, DWORD PTR [esi+8]
  00678	c6 04 0e 00	 mov	 BYTE PTR [esi+ecx], 0
  0067c	8b 8d f4 fe ff
	ff		 mov	 ecx, DWORD PTR _this$GSCopy$1$[ebp]
; File C:\Program Files (x86)\Microsoft Visual Studio\2019\Community\VC\Tools\MSVC\14.29.30133\atlmfc\include\cstringt.h

; 2567 : 		return( str1.Compare( psz2 ) != 0 );

  00682	68 00 00 00 00	 push	 OFFSET ??_C@_0P@FLGGHACJ@99999999999999@
; File D:\git\src\IBK\IBK_DRFN\ProjSrc\SrcDrfn\DrCommon\PartnerMng\ChartItemMarket.cpp

; 721  : 		memcpy(pstOut->winid, m_InData.winid, sizeof(m_InData.winid));

  00687	8b 41 05	 mov	 eax, DWORD PTR [ecx+5]
  0068a	8b 49 09	 mov	 ecx, DWORD PTR [ecx+9]
  0068d	89 4e 04	 mov	 DWORD PTR [esi+4], ecx

; 722  : 		memcpy(pstOut->dataNm, m_InData.dataNm, sizeof(m_InData.dataNm));

  00690	b9 19 00 00 00	 mov	 ecx, 25			; 00000019H
  00695	89 06		 mov	 DWORD PTR [esi], eax
  00697	8b b5 dc fe ff
	ff		 mov	 esi, DWORD PTR tv2430[ebp]
  0069d	f3 a5		 rep movsd
; File C:\Program Files (x86)\Microsoft Visual Studio\2019\Community\VC\Tools\MSVC\14.29.30133\atlmfc\include\cstringt.h

; 2567 : 		return( str1.Compare( psz2 ) != 0 );

  0069f	8d 8d 0c ff ff
	ff		 lea	 ecx, DWORD PTR _strNextKey$21[ebp]
  006a5	ff 15 00 00 00
	00		 call	 DWORD PTR __imp_?Compare@?$CStringT@DV?$StrTraitMFC_DLL@DV?$ChTraitsCRT@D@ATL@@@@@ATL@@QBEHPBD@Z
; File D:\git\src\IBK\IBK_DRFN\ProjSrc\SrcDrfn\DrCommon\PartnerMng\ChartItemMarket.cpp

; 724  : 		if (strNextKey !="99999999999999")// 9 14  .  

  006ab	8b b5 00 ff ff
	ff		 mov	 esi, DWORD PTR _pszBuff$1$[ebp]
; File C:\Program Files (x86)\Microsoft Visual Studio\2019\Community\VC\Tools\MSVC\14.29.30133\atlmfc\include\cstringt.h

; 2567 : 		return( str1.Compare( psz2 ) != 0 );

  006b1	85 c0		 test	 eax, eax
; File D:\git\src\IBK\IBK_DRFN\ProjSrc\SrcDrfn\DrCommon\PartnerMng\ChartItemMarket.cpp

; 724  : 		if (strNextKey !="99999999999999")// 9 14  .  

  006b3	74 20		 je	 SHORT $LN20@Convert2St
; File C:\Program Files (x86)\Microsoft Visual Studio\2019\Community\VC\Tools\MSVC\14.29.30133\atlmfc\include\atlsimpstr.h

; 519  : 		return( GetData()->nDataLength );

  006b5	8b 85 0c ff ff
	ff		 mov	 eax, DWORD PTR _strNextKey$21[ebp]
; File D:\git\src\IBK\IBK_DRFN\ProjSrc\SrcDrfn\DrCommon\PartnerMng\ChartItemMarket.cpp

; 725  : 			memcpy(pstOut->nxtKey, (LPCTSTR)strNextKey, min(sizeof(pstOut->nxtKey),strNextKey.GetLength()));

  006bb	ba 54 00 00 00	 mov	 edx, 84			; 00000054H
; File C:\Program Files (x86)\Microsoft Visual Studio\2019\Community\VC\Tools\MSVC\14.29.30133\atlmfc\include\atlsimpstr.h

; 519  : 		return( GetData()->nDataLength );

  006c0	8b 48 f4	 mov	 ecx, DWORD PTR [eax-12]
; File D:\git\src\IBK\IBK_DRFN\ProjSrc\SrcDrfn\DrCommon\PartnerMng\ChartItemMarket.cpp

; 725  : 			memcpy(pstOut->nxtKey, (LPCTSTR)strNextKey, min(sizeof(pstOut->nxtKey),strNextKey.GetLength()));

  006c3	3b ca		 cmp	 ecx, edx
  006c5	0f 47 ca	 cmova	 ecx, edx
  006c8	51		 push	 ecx
  006c9	50		 push	 eax
  006ca	8d 46 75	 lea	 eax, DWORD PTR [esi+117]
  006cd	50		 push	 eax
  006ce	e8 00 00 00 00	 call	 _memcpy
  006d3	eb 0d		 jmp	 SHORT $LN471@Convert2St
$LN20@Convert2St:

; 726  : 		else
; 727  : 			memset(pstOut->nxtKey, 0x20, sizeof(pstOut->nxtKey));

  006d5	6a 54		 push	 84			; 00000054H
  006d7	8d 46 75	 lea	 eax, DWORD PTR [esi+117]
  006da	6a 20		 push	 32			; 00000020H
  006dc	50		 push	 eax
  006dd	e8 00 00 00 00	 call	 _memset
$LN471@Convert2St:

; 728  : 
; 729  : 		pstOut->inNumGb[0] = '2';

  006e2	c6 46 6c 32	 mov	 BYTE PTR [esi+108], 50	; 00000032H
  006e6	83 c4 0c	 add	 esp, 12			; 0000000cH
; File C:\Program Files (x86)\Microsoft Visual Studio\2019\Community\VC\Tools\MSVC\14.29.30133\atlmfc\include\atlsimpstr.h

; 519  : 		return( GetData()->nDataLength );

  006e9	8b 85 f0 fe ff
	ff		 mov	 eax, DWORD PTR _strCode$[ebp]
; File D:\git\src\IBK\IBK_DRFN\ProjSrc\SrcDrfn\DrCommon\PartnerMng\ChartItemMarket.cpp

; 731  : 		memcpy(pstOut->shcode, strCode, min(sizeof(pstOut->shcode), strCode.GetLength()));

  006ef	ba 08 00 00 00	 mov	 edx, 8
; File C:\Program Files (x86)\Microsoft Visual Studio\2019\Community\VC\Tools\MSVC\14.29.30133\atlmfc\include\atlsimpstr.h

; 519  : 		return( GetData()->nDataLength );

  006f4	8b 48 f4	 mov	 ecx, DWORD PTR [eax-12]
; File D:\git\src\IBK\IBK_DRFN\ProjSrc\SrcDrfn\DrCommon\PartnerMng\ChartItemMarket.cpp

; 731  : 		memcpy(pstOut->shcode, strCode, min(sizeof(pstOut->shcode), strCode.GetLength()));

  006f7	3b ca		 cmp	 ecx, edx
  006f9	0f 47 ca	 cmova	 ecx, edx
  006fc	51		 push	 ecx
  006fd	50		 push	 eax
  006fe	8d 46 6d	 lea	 eax, DWORD PTR [esi+109]
  00701	50		 push	 eax
  00702	e8 00 00 00 00	 call	 _memcpy
  00707	83 c4 0c	 add	 esp, 12			; 0000000cH

; 732  : 		bojoInput.m_sShcode = strCode;

  0070a	8d 85 f0 fe ff
	ff		 lea	 eax, DWORD PTR _strCode$[ebp]
  00710	8d 8d 20 ff ff
	ff		 lea	 ecx, DWORD PTR _bojoInput$[ebp+8]
  00716	50		 push	 eax
  00717	ff 15 00 00 00
	00		 call	 DWORD PTR __imp_??4?$CStringT@DV?$StrTraitMFC_DLL@DV?$ChTraitsCRT@D@ATL@@@@@ATL@@QAEAAV01@ABV01@@Z

; 733  : 
; 734  : 		strNode.Format(_T("%05d"), nIndex);

  0071d	8b bd 08 ff ff
	ff		 mov	 edi, DWORD PTR _nIndex$1$[ebp]
  00723	8d 85 14 ff ff
	ff		 lea	 eax, DWORD PTR _strNode$[ebp]
  00729	57		 push	 edi
  0072a	68 00 00 00 00	 push	 OFFSET ??_C@_04ODOGNJOP@?$CF05d@
  0072f	50		 push	 eax
  00730	ff 15 00 00 00
	00		 call	 DWORD PTR __imp_?Format@?$CStringT@DV?$StrTraitMFC_DLL@DV?$ChTraitsCRT@D@ATL@@@@@ATL@@QAAXPBDZZ

; 735  : 		memcpy(pstOut->d1015_CHART.chtCnt, strNode, 5);

  00736	8b 8d 14 ff ff
	ff		 mov	 ecx, DWORD PTR _strNode$[ebp]
  0073c	83 c4 0c	 add	 esp, 12			; 0000000cH
  0073f	8b 01		 mov	 eax, DWORD PTR [ecx]
  00741	89 86 c9 00 00
	00		 mov	 DWORD PTR [esi+201], eax
  00747	8a 41 04	 mov	 al, BYTE PTR [ecx+4]
  0074a	88 86 cd 00 00
	00		 mov	 BYTE PTR [esi+205], al

; 736  : 		int ii= nIndex-1;
; 737  : 		for (int i=0; i<nIndex; i++)

  00750	33 f6		 xor	 esi, esi
  00752	85 ff		 test	 edi, edi
  00754	0f 8e 3b 01 00
	00		 jle	 $LN5@Convert2St

; 731  : 		memcpy(pstOut->shcode, strCode, min(sizeof(pstOut->shcode), strCode.GetLength()));

  0075a	8b 8d 00 ff ff
	ff		 mov	 ecx, DWORD PTR _pszBuff$1$[ebp]
  00760	6b c7 17	 imul	 eax, edi, 23
  00763	81 c1 47 02 00
	00		 add	 ecx, 583		; 00000247H
  00769	03 c1		 add	 eax, ecx
  0076b	89 85 08 ff ff
	ff		 mov	 DWORD PTR tv2405[ebp], eax
$LL6@Convert2St:
; File C:\Program Files (x86)\Microsoft Visual Studio\2019\Community\VC\Tools\MSVC\14.29.30133\atlmfc\include\afxcoll.inl

; 289  : 		if( nIndex < 0 || nIndex >= m_nSize )

  00771	85 f6		 test	 esi, esi
  00773	0f 88 7c 0d 00
	00		 js	 $LN166@Convert2St
  00779	3b b5 90 fe ff
	ff		 cmp	 esi, DWORD PTR _arrDate$[ebp+8]
  0077f	0f 8d 70 0d 00
	00		 jge	 $LN166@Convert2St

; 291  : 		return m_pData[nIndex]; }

  00785	8b 85 8c fe ff
	ff		 mov	 eax, DWORD PTR _arrDate$[ebp+4]
; File D:\git\src\IBK\IBK_DRFN\ProjSrc\SrcDrfn\DrCommon\PartnerMng\ChartItemMarket.cpp

; 742  : 			strNode = arrDate.GetAt(i);

  0078b	8d 8d 14 ff ff
	ff		 lea	 ecx, DWORD PTR _strNode$[ebp]
; File C:\Program Files (x86)\Microsoft Visual Studio\2019\Community\VC\Tools\MSVC\14.29.30133\atlmfc\include\afxcoll.inl

; 291  : 		return m_pData[nIndex]; }

  00791	8d 04 b0	 lea	 eax, DWORD PTR [eax+esi*4]
; File D:\git\src\IBK\IBK_DRFN\ProjSrc\SrcDrfn\DrCommon\PartnerMng\ChartItemMarket.cpp

; 742  : 			strNode = arrDate.GetAt(i);

  00794	50		 push	 eax
  00795	ff 15 00 00 00
	00		 call	 DWORD PTR __imp_??4?$CStringT@DV?$StrTraitMFC_DLL@DV?$ChTraitsCRT@D@ATL@@@@@ATL@@QAEAAV01@ABV01@@Z
; File C:\Program Files (x86)\Microsoft Visual Studio\2019\Community\VC\Tools\MSVC\14.29.30133\atlmfc\include\atlsimpstr.h

; 519  : 		return( GetData()->nDataLength );

  0079b	8b 85 14 ff ff
	ff		 mov	 eax, DWORD PTR _strNode$[ebp]
; File D:\git\src\IBK\IBK_DRFN\ProjSrc\SrcDrfn\DrCommon\PartnerMng\ChartItemMarket.cpp

; 743  : 			memcpy(pRow->date, strNode, min(sizeof(pRow->date), strNode.GetLength()));

  007a1	ba 08 00 00 00	 mov	 edx, 8
; File C:\Program Files (x86)\Microsoft Visual Studio\2019\Community\VC\Tools\MSVC\14.29.30133\atlmfc\include\atlsimpstr.h

; 519  : 		return( GetData()->nDataLength );

  007a6	8b 48 f4	 mov	 ecx, DWORD PTR [eax-12]
; File D:\git\src\IBK\IBK_DRFN\ProjSrc\SrcDrfn\DrCommon\PartnerMng\ChartItemMarket.cpp

; 743  : 			memcpy(pRow->date, strNode, min(sizeof(pRow->date), strNode.GetLength()));

  007a9	83 f9 08	 cmp	 ecx, 8
  007ac	0f 47 ca	 cmova	 ecx, edx
  007af	51		 push	 ecx
  007b0	50		 push	 eax
  007b1	ff b5 08 ff ff
	ff		 push	 DWORD PTR tv2405[ebp]
  007b7	e8 00 00 00 00	 call	 _memcpy
  007bc	83 c4 0c	 add	 esp, 12			; 0000000cH
; File C:\Program Files (x86)\Microsoft Visual Studio\2019\Community\VC\Tools\MSVC\14.29.30133\atlmfc\include\afxcoll.inl

; 289  : 		if( nIndex < 0 || nIndex >= m_nSize )

  007bf	3b b5 a4 fe ff
	ff		 cmp	 esi, DWORD PTR _arrSel1$[ebp+8]
  007c5	0f 8d 2a 0d 00
	00		 jge	 $LN166@Convert2St

; 291  : 		return m_pData[nIndex]; }

  007cb	8b 85 a0 fe ff
	ff		 mov	 eax, DWORD PTR _arrSel1$[ebp+4]
; File D:\git\src\IBK\IBK_DRFN\ProjSrc\SrcDrfn\DrCommon\PartnerMng\ChartItemMarket.cpp

; 745  : 			strNode = arrSel1.GetAt(i);

  007d1	8d 8d 14 ff ff
	ff		 lea	 ecx, DWORD PTR _strNode$[ebp]
; File C:\Program Files (x86)\Microsoft Visual Studio\2019\Community\VC\Tools\MSVC\14.29.30133\atlmfc\include\afxcoll.inl

; 291  : 		return m_pData[nIndex]; }

  007d7	8d 04 b0	 lea	 eax, DWORD PTR [eax+esi*4]
; File D:\git\src\IBK\IBK_DRFN\ProjSrc\SrcDrfn\DrCommon\PartnerMng\ChartItemMarket.cpp

; 745  : 			strNode = arrSel1.GetAt(i);

  007da	50		 push	 eax
  007db	ff 15 00 00 00
	00		 call	 DWORD PTR __imp_??4?$CStringT@DV?$StrTraitMFC_DLL@DV?$ChTraitsCRT@D@ATL@@@@@ATL@@QAEAAV01@ABV01@@Z

; 746  : 			if (strNm1.Find(_T("_Foreign Holding Rate___DateTime_")) >= 0 ||
; 747  : 				strNm1.Find(_T("_CreditBalanceRate___DateTime_")) >= 0 ||

  007e1	6a 00		 push	 0
  007e3	68 00 00 00 00	 push	 OFFSET ??_C@_0CC@NIHFHGCD@_Foreign?5Holding?5Rate___DateTim@
  007e8	8d 8d fc fe ff
	ff		 lea	 ecx, DWORD PTR _strNm1$[ebp]
  007ee	ff 15 00 00 00
	00		 call	 DWORD PTR __imp_?Find@?$CStringT@DV?$StrTraitMFC_DLL@DV?$ChTraitsCRT@D@ATL@@@@@ATL@@QBEHPBDH@Z
  007f4	85 c0		 test	 eax, eax
  007f6	79 2e		 jns	 SHORT $LN23@Convert2St
  007f8	6a 00		 push	 0
  007fa	68 00 00 00 00	 push	 OFFSET ??_C@_0BP@LBCFJFLL@_CreditBalanceRate___DateTime_@
  007ff	8d 8d fc fe ff
	ff		 lea	 ecx, DWORD PTR _strNm1$[ebp]
  00805	ff 15 00 00 00
	00		 call	 DWORD PTR __imp_?Find@?$CStringT@DV?$StrTraitMFC_DLL@DV?$ChTraitsCRT@D@ATL@@@@@ATL@@QBEHPBDH@Z
  0080b	85 c0		 test	 eax, eax
  0080d	79 17		 jns	 SHORT $LN23@Convert2St
  0080f	6a 00		 push	 0
  00811	68 00 00 00 00	 push	 OFFSET ??_C@_0BO@ELDOFBCP@_CreditGivingRate___DateTime_@
  00816	8d 8d fc fe ff
	ff		 lea	 ecx, DWORD PTR _strNm1$[ebp]
  0081c	ff 15 00 00 00
	00		 call	 DWORD PTR __imp_?Find@?$CStringT@DV?$StrTraitMFC_DLL@DV?$ChTraitsCRT@D@ATL@@@@@ATL@@QBEHPBDH@Z
  00822	85 c0		 test	 eax, eax
  00824	78 37		 js	 SHORT $LN22@Convert2St
$LN23@Convert2St:

; 748  : 				strNm1.Find(_T("_CreditGivingRate___DateTime_")) >= 0)
; 749  : 			{
; 750  : 				double fNode = atoi(strNode)/100.00;

  00826	ff b5 14 ff ff
	ff		 push	 DWORD PTR _strNode$[ebp]
  0082c	ff 15 00 00 00
	00		 call	 DWORD PTR __imp__atoi

; 751  : 				strNode.Format("%f",fNode);

  00832	51		 push	 ecx
  00833	66 0f 6e c0	 movd	 xmm0, eax
  00837	8d 85 14 ff ff
	ff		 lea	 eax, DWORD PTR _strNode$[ebp]
  0083d	f3 0f e6 c0	 cvtdq2pd xmm0, xmm0
  00841	f2 0f 5e 05 00
	00 00 00	 divsd	 xmm0, QWORD PTR __real@4059000000000000
  00849	f2 0f 11 04 24	 movsd	 QWORD PTR [esp], xmm0
  0084e	68 00 00 00 00	 push	 OFFSET ??_C@_02NJPGOMH@?$CFf@
  00853	50		 push	 eax
  00854	ff 15 00 00 00
	00		 call	 DWORD PTR __imp_?Format@?$CStringT@DV?$StrTraitMFC_DLL@DV?$ChTraitsCRT@D@ATL@@@@@ATL@@QAAXPBDZZ
  0085a	83 c4 10	 add	 esp, 16			; 00000010H
$LN22@Convert2St:
; File C:\Program Files (x86)\Microsoft Visual Studio\2019\Community\VC\Tools\MSVC\14.29.30133\atlmfc\include\atlsimpstr.h

; 519  : 		return( GetData()->nDataLength );

  0085d	8b 85 14 ff ff
	ff		 mov	 eax, DWORD PTR _strNode$[ebp]
; File D:\git\src\IBK\IBK_DRFN\ProjSrc\SrcDrfn\DrCommon\PartnerMng\ChartItemMarket.cpp

; 757  : 			memcpy(pRow->data1, strNode, min(sizeof(pRow->data1), strNode.GetLength()));

  00863	ba 0f 00 00 00	 mov	 edx, 15			; 0000000fH
; File C:\Program Files (x86)\Microsoft Visual Studio\2019\Community\VC\Tools\MSVC\14.29.30133\atlmfc\include\atlsimpstr.h

; 519  : 		return( GetData()->nDataLength );

  00868	8b 48 f4	 mov	 ecx, DWORD PTR [eax-12]
; File D:\git\src\IBK\IBK_DRFN\ProjSrc\SrcDrfn\DrCommon\PartnerMng\ChartItemMarket.cpp

; 757  : 			memcpy(pRow->data1, strNode, min(sizeof(pRow->data1), strNode.GetLength()));

  0086b	83 f9 0f	 cmp	 ecx, 15			; 0000000fH
  0086e	0f 47 ca	 cmova	 ecx, edx
  00871	51		 push	 ecx
  00872	50		 push	 eax
  00873	8b 85 08 ff ff
	ff		 mov	 eax, DWORD PTR tv2405[ebp]
  00879	83 c0 08	 add	 eax, 8
  0087c	50		 push	 eax
  0087d	e8 00 00 00 00	 call	 _memcpy

; 758  : 			ii--;

  00882	83 ad 08 ff ff
	ff 17		 sub	 DWORD PTR tv2405[ebp], 23 ; 00000017H
  00889	46		 inc	 esi
  0088a	83 c4 0c	 add	 esp, 12			; 0000000cH
  0088d	3b f7		 cmp	 esi, edi
  0088f	0f 8c dc fe ff
	ff		 jl	 $LL6@Convert2St
$LN5@Convert2St:

; 759  : //			OutputDebugString("KHD :  = " + strNode );
; 760  : 		}
; 761  : 
; 762  : 		bojoInput.m_sDataType = _T("0");		//	.   .

  00895	68 00 00 00 00	 push	 OFFSET ??_C@_01GBGANLPD@0@
  0089a	8d 8d 30 ff ff
	ff		 lea	 ecx, DWORD PTR _bojoInput$[ebp+24]
  008a0	ff 15 00 00 00
	00		 call	 DWORD PTR __imp_??4?$CStringT@DV?$StrTraitMFC_DLL@DV?$ChTraitsCRT@D@ATL@@@@@ATL@@QAEAAV01@PBD@Z

; 763  : 		bojoInput.m_sMarket = _T("1");			//	.   .

  008a6	68 00 00 00 00	 push	 OFFSET ??_C@_01HIHLOKLC@1@
  008ab	8d 8d 1c ff ff
	ff		 lea	 ecx, DWORD PTR _bojoInput$[ebp+4]
  008b1	ff 15 00 00 00
	00		 call	 DWORD PTR __imp_??4?$CStringT@DV?$StrTraitMFC_DLL@DV?$ChTraitsCRT@D@ATL@@@@@ATL@@QAEAAV01@PBD@Z

; 764  : 
; 765  : 		char szKey[5];
; 766  : //		memset(szKey, 0x00, sizeof(szKey));
; 767  : //		memcpy(szKey, gridOut.page, sizeof(gridOut.page));
; 768  : 		if (m_InData.nxtGb[0] != _T('0'))

  008b7	8b 85 f4 fe ff
	ff		 mov	 eax, DWORD PTR _this$GSCopy$1$[ebp]
  008bd	8d 8d 2c ff ff
	ff		 lea	 ecx, DWORD PTR _bojoInput$[ebp+20]
  008c3	80 b8 87 00 00
	00 30		 cmp	 BYTE PTR [eax+135], 48	; 00000030H
  008ca	74 11		 je	 SHORT $LN24@Convert2St

; 769  : 		{
; 770  : 			bojoInput.m_sNxtFlg = _T("1");

  008cc	68 00 00 00 00	 push	 OFFSET ??_C@_01HIHLOKLC@1@
  008d1	ff 15 00 00 00
	00		 call	 DWORD PTR __imp_??4?$CStringT@DV?$StrTraitMFC_DLL@DV?$ChTraitsCRT@D@ATL@@@@@ATL@@QAEAAV01@PBD@Z

; 771  : 			bojoInput.sNxtFlg[0] = _T('1');

  008d7	c6 45 95 31	 mov	 BYTE PTR _bojoInput$[ebp+125], 49 ; 00000031H

; 772  : 		}

  008db	eb 0f		 jmp	 SHORT $LN25@Convert2St
$LN24@Convert2St:

; 773  : 		else
; 774  : 		{
; 775  : 			bojoInput.m_sNxtFlg = _T("0");

  008dd	68 00 00 00 00	 push	 OFFSET ??_C@_01GBGANLPD@0@
  008e2	ff 15 00 00 00
	00		 call	 DWORD PTR __imp_??4?$CStringT@DV?$StrTraitMFC_DLL@DV?$ChTraitsCRT@D@ATL@@@@@ATL@@QAEAAV01@PBD@Z

; 776  : 			bojoInput.sNxtFlg[0] = _T('0');

  008e8	c6 45 95 30	 mov	 BYTE PTR _bojoInput$[ebp+125], 48 ; 00000030H
$LN25@Convert2St:

; 777  : 		}
; 778  : 
; 779  : 		bojoInput.m_sTerm = _T("2");				//	,,

  008ec	68 00 00 00 00	 push	 OFFSET ??_C@_01FDFGLJHB@2@
  008f1	8d 8d 28 ff ff
	ff		 lea	 ecx, DWORD PTR _bojoInput$[ebp+16]
  008f7	ff 15 00 00 00
	00		 call	 DWORD PTR __imp_??4?$CStringT@DV?$StrTraitMFC_DLL@DV?$ChTraitsCRT@D@ATL@@@@@ATL@@QAEAAV01@PBD@Z

; 780  : 		bojoInput.m_sTick = _T("1");

  008fd	68 00 00 00 00	 push	 OFFSET ??_C@_01HIHLOKLC@1@
  00902	8d 8d 24 ff ff
	ff		 lea	 ecx, DWORD PTR _bojoInput$[ebp+12]
  00908	ff 15 00 00 00
	00		 call	 DWORD PTR __imp_??4?$CStringT@DV?$StrTraitMFC_DLL@DV?$ChTraitsCRT@D@ATL@@@@@ATL@@QAEAAV01@PBD@Z

; 781  : 
; 782  : 		CString strBozo;

  0090e	8d 8d ec fe ff
	ff		 lea	 ecx, DWORD PTR _strBozo$11[ebp]
  00914	ff 15 00 00 00
	00		 call	 DWORD PTR __imp_??0?$CStringT@DV?$StrTraitMFC_DLL@DV?$ChTraitsCRT@D@ATL@@@@@ATL@@QAE@XZ

; 783  : 		memset(szKey, 0x00, sizeof(szKey));
; 784  : 		sprintf(szKey, _T("%03d"), 133); // 133 

  0091a	68 85 00 00 00	 push	 133			; 00000085H
  0091f	8d 45 e8	 lea	 eax, DWORD PTR _szKey$30[ebp]
  00922	c6 45 fc 1a	 mov	 BYTE PTR __$EHRec$[ebp+8], 26 ; 0000001aH
  00926	68 00 00 00 00	 push	 OFFSET ??_C@_04OHGLKFFN@?$CF03d@
  0092b	50		 push	 eax
  0092c	c7 45 e8 00 00
	00 00		 mov	 DWORD PTR _szKey$30[ebp], 0
  00933	c6 45 ec 00	 mov	 BYTE PTR _szKey$30[ebp+4], 0
  00937	e8 00 00 00 00	 call	 _sprintf
  0093c	83 c4 0c	 add	 esp, 12			; 0000000cH

; 785  : 
; 786  : 		nSize = bojoMng.GetChartBozoMsg(szKey, &bojoInput, strNode);

  0093f	8d 85 14 ff ff
	ff		 lea	 eax, DWORD PTR _strNode$[ebp]
  00945	6a 00		 push	 0
  00947	50		 push	 eax
  00948	8d 85 18 ff ff
	ff		 lea	 eax, DWORD PTR _bojoInput$[ebp]
  0094e	50		 push	 eax
  0094f	8d 45 e8	 lea	 eax, DWORD PTR _szKey$30[ebp]
  00952	50		 push	 eax
  00953	8d 85 bc fe ff
	ff		 lea	 eax, DWORD PTR _bojoMng$[ebp]
  00959	50		 push	 eax
  0095a	e8 00 00 00 00	 call	 ?GetChartBozoMsg@CChartBozoManager@@UAGHPBDPAVCChartBozoInput@@AAV?$CStringT@DV?$StrTraitMFC_DLL@DV?$ChTraitsCRT@D@ATL@@@@@ATL@@H@Z ; CChartBozoManager::GetChartBozoMsg

; 787  : 		if (strNm1.Find(_T("_Foreign Holding Rate___DateTime_")) >= 0 ||
; 788  : 			strNm1.Find(_T("_CreditBalanceRate___DateTime_")) >= 0 ||

  0095f	6a 00		 push	 0
  00961	68 00 00 00 00	 push	 OFFSET ??_C@_0CC@NIHFHGCD@_Foreign?5Holding?5Rate___DateTim@
  00966	8d 8d fc fe ff
	ff		 lea	 ecx, DWORD PTR _strNm1$[ebp]
  0096c	ff 15 00 00 00
	00		 call	 DWORD PTR __imp_?Find@?$CStringT@DV?$StrTraitMFC_DLL@DV?$ChTraitsCRT@D@ATL@@@@@ATL@@QBEHPBDH@Z
  00972	85 c0		 test	 eax, eax
  00974	79 49		 jns	 SHORT $LN28@Convert2St
  00976	6a 00		 push	 0
  00978	68 00 00 00 00	 push	 OFFSET ??_C@_0BP@LBCFJFLL@_CreditBalanceRate___DateTime_@
  0097d	8d 8d fc fe ff
	ff		 lea	 ecx, DWORD PTR _strNm1$[ebp]
  00983	ff 15 00 00 00
	00		 call	 DWORD PTR __imp_?Find@?$CStringT@DV?$StrTraitMFC_DLL@DV?$ChTraitsCRT@D@ATL@@@@@ATL@@QBEHPBDH@Z
  00989	85 c0		 test	 eax, eax
  0098b	79 32		 jns	 SHORT $LN28@Convert2St
  0098d	6a 00		 push	 0
  0098f	68 00 00 00 00	 push	 OFFSET ??_C@_0BO@ELDOFBCP@_CreditGivingRate___DateTime_@
  00994	8d 8d fc fe ff
	ff		 lea	 ecx, DWORD PTR _strNm1$[ebp]
  0099a	ff 15 00 00 00
	00		 call	 DWORD PTR __imp_?Find@?$CStringT@DV?$StrTraitMFC_DLL@DV?$ChTraitsCRT@D@ATL@@@@@ATL@@QBEHPBDH@Z
  009a0	85 c0		 test	 eax, eax
  009a2	79 1b		 jns	 SHORT $LN28@Convert2St
; File C:\Program Files (x86)\Microsoft Visual Studio\2019\Community\VC\Tools\MSVC\14.29.30133\atlmfc\include\atlsimpstr.h

; 519  : 		return( GetData()->nDataLength );

  009a4	8b 85 e0 fe ff
	ff		 mov	 eax, DWORD PTR _strNm2$[ebp]
  009aa	8b 8d fc fe ff
	ff		 mov	 ecx, DWORD PTR _strNm1$[ebp]
; File D:\git\src\IBK\IBK_DRFN\ProjSrc\SrcDrfn\DrCommon\PartnerMng\ChartItemMarket.cpp

; 793  : 			strData.Format(_T("%.*s:8:YYYYMMDD|%.*s:15:x1"), strNm1.GetLength(), strNm1, strNm2.GetLength(), strNm2);

  009b0	50		 push	 eax
  009b1	ff 70 f4	 push	 DWORD PTR [eax-12]
  009b4	51		 push	 ecx
  009b5	ff 71 f4	 push	 DWORD PTR [ecx-12]
  009b8	68 00 00 00 00	 push	 OFFSET ??_C@_0BL@OOBDJKFI@?$CF?4?$CKs?38?3YYYYMMDD?$HM?$CF?4?$CKs?315?3x1@
  009bd	eb 19		 jmp	 SHORT $LN472@Convert2St
$LN28@Convert2St:
; File C:\Program Files (x86)\Microsoft Visual Studio\2019\Community\VC\Tools\MSVC\14.29.30133\atlmfc\include\atlsimpstr.h

; 519  : 		return( GetData()->nDataLength );

  009bf	8b 85 e0 fe ff
	ff		 mov	 eax, DWORD PTR _strNm2$[ebp]
  009c5	8b 8d fc fe ff
	ff		 mov	 ecx, DWORD PTR _strNm1$[ebp]
; File D:\git\src\IBK\IBK_DRFN\ProjSrc\SrcDrfn\DrCommon\PartnerMng\ChartItemMarket.cpp

; 790  : 			strData.Format(_T("%.*s:8:YYYYMMDD|%.*s:15:x0.01"), strNm1.GetLength(), strNm1, strNm2.GetLength(), strNm2);

  009cb	50		 push	 eax
  009cc	ff 70 f4	 push	 DWORD PTR [eax-12]
  009cf	51		 push	 ecx
  009d0	ff 71 f4	 push	 DWORD PTR [ecx-12]
  009d3	68 00 00 00 00	 push	 OFFSET ??_C@_0BO@PCAEEPDH@?$CF?4?$CKs?38?3YYYYMMDD?$HM?$CF?4?$CKs?315?3x0?401@
$LN472@Convert2St:
; File C:\Program Files (x86)\Microsoft Visual Studio\2019\Community\VC\Tools\MSVC\14.29.30133\atlmfc\include\afxtempl.h

; 851  : {

  009d8	8d 85 e8 fe ff
	ff		 lea	 eax, DWORD PTR _strData$[ebp]
  009de	50		 push	 eax
  009df	ff 15 00 00 00
	00		 call	 DWORD PTR __imp_?Format@?$CStringT@DV?$StrTraitMFC_DLL@DV?$ChTraitsCRT@D@ATL@@@@@ATL@@QAAXPBDZZ
  009e5	83 c4 18	 add	 esp, 24			; 00000018H
  009e8	c7 85 c0 fe ff
	ff 00 00 00 00	 mov	 DWORD PTR _arr$5[ebp], OFFSET ??_7?$CList@PAVCChartBozoItem@@PAV1@@@6B@

; 852  : 	ASSERT(nBlockSize > 0);
; 853  : 
; 854  : 	m_nCount = 0;

  009f2	c7 85 cc fe ff
	ff 00 00 00 00	 mov	 DWORD PTR _arr$5[ebp+12], 0

; 855  : 	m_pNodeHead = m_pNodeTail = m_pNodeFree = NULL;

  009fc	c7 85 d0 fe ff
	ff 00 00 00 00	 mov	 DWORD PTR _arr$5[ebp+16], 0
  00a06	c7 85 c8 fe ff
	ff 00 00 00 00	 mov	 DWORD PTR _arr$5[ebp+8], 0
  00a10	c7 85 c4 fe ff
	ff 00 00 00 00	 mov	 DWORD PTR _arr$5[ebp+4], 0

; 856  : 	m_pBlocks = NULL;

  00a1a	c7 85 d4 fe ff
	ff 00 00 00 00	 mov	 DWORD PTR _arr$5[ebp+20], 0

; 857  : 	m_nBlockSize = nBlockSize;

  00a24	c7 85 d8 fe ff
	ff 0a 00 00 00	 mov	 DWORD PTR _arr$5[ebp+24], 10 ; 0000000aH
; File D:\git\src\IBK\IBK_DRFN\ProjSrc\SrcDrfn\DrCommon\PartnerMng\ChartItemMarket.cpp

; 799  : 			pItem = new CChartBozoItem(CChartBozoItem::cbi_add, _T("NEWPACKET"), strData);

  00a2e	6a 0c		 push	 12			; 0000000cH
  00a30	c6 45 fc 1b	 mov	 BYTE PTR __$EHRec$[ebp+8], 27 ; 0000001bH
  00a34	e8 00 00 00 00	 call	 ??2@YAPAXI@Z		; operator new
  00a39	8b f0		 mov	 esi, eax
  00a3b	83 c4 04	 add	 esp, 4
  00a3e	89 b5 f4 fe ff
	ff		 mov	 DWORD PTR $T12[ebp], esi
  00a44	85 f6		 test	 esi, esi
  00a46	74 4b		 je	 SHORT $LN45@Convert2St
; File C:\Program Files (x86)\Microsoft Visual Studio\2019\Community\VC\Tools\MSVC\14.29.30133\atlmfc\include\atlsimpstr.h

; 377  : 		return( m_pszData );

  00a48	8b 85 e8 fe ff
	ff		 mov	 eax, DWORD PTR _strData$[ebp]
; File D:\git\src\IBK\IBK_DRFN\ProjSrc\SrcDrfn\inc\IChartBozoMsgMng.h

; 26   : 	CChartBozoItem(int nOption, LPCSTR szKey, LPCSTR szValue)

  00a4e	8d 4e 04	 lea	 ecx, DWORD PTR [esi+4]
; File C:\Program Files (x86)\Microsoft Visual Studio\2019\Community\VC\Tools\MSVC\14.29.30133\atlmfc\include\atlsimpstr.h

; 377  : 		return( m_pszData );

  00a51	89 85 f8 fe ff
	ff		 mov	 DWORD PTR $T13[ebp], eax
; File D:\git\src\IBK\IBK_DRFN\ProjSrc\SrcDrfn\inc\IChartBozoMsgMng.h

; 26   : 	CChartBozoItem(int nOption, LPCSTR szKey, LPCSTR szValue)

  00a57	ff 15 00 00 00
	00		 call	 DWORD PTR __imp_??0?$CStringT@DV?$StrTraitMFC_DLL@DV?$ChTraitsCRT@D@ATL@@@@@ATL@@QAE@XZ
  00a5d	8d 4e 08	 lea	 ecx, DWORD PTR [esi+8]
  00a60	ff 15 00 00 00
	00		 call	 DWORD PTR __imp_??0?$CStringT@DV?$StrTraitMFC_DLL@DV?$ChTraitsCRT@D@ATL@@@@@ATL@@QAE@XZ

; 27   : 	{
; 28   : 		m_nOption = nOption;

  00a66	8b c6		 mov	 eax, esi
  00a68	c6 45 fc 1e	 mov	 BYTE PTR __$EHRec$[ebp+8], 30 ; 0000001eH

; 29   : 		m_szKey = szKey;

  00a6c	68 00 00 00 00	 push	 OFFSET ??_C@_09ELPBAGKN@NEWPACKET@
  00a71	8d 4e 04	 lea	 ecx, DWORD PTR [esi+4]
  00a74	c7 00 01 00 00
	00		 mov	 DWORD PTR [eax], 1
  00a7a	ff 15 00 00 00
	00		 call	 DWORD PTR __imp_??4?$CStringT@DV?$StrTraitMFC_DLL@DV?$ChTraitsCRT@D@ATL@@@@@ATL@@QAEAAV01@PBD@Z

; 30   : 		m_szValue = szValue;

  00a80	ff b5 f8 fe ff
	ff		 push	 DWORD PTR $T13[ebp]
  00a86	8d 4e 08	 lea	 ecx, DWORD PTR [esi+8]
  00a89	ff 15 00 00 00
	00		 call	 DWORD PTR __imp_??4?$CStringT@DV?$StrTraitMFC_DLL@DV?$ChTraitsCRT@D@ATL@@@@@ATL@@QAEAAV01@PBD@Z
; File D:\git\src\IBK\IBK_DRFN\ProjSrc\SrcDrfn\DrCommon\PartnerMng\ChartItemMarket.cpp

; 799  : 			pItem = new CChartBozoItem(CChartBozoItem::cbi_add, _T("NEWPACKET"), strData);

  00a8f	8b fe		 mov	 edi, esi
  00a91	eb 02		 jmp	 SHORT $LN46@Convert2St
$LN45@Convert2St:
  00a93	33 ff		 xor	 edi, edi
$LN46@Convert2St:

; 800  : //		else
; 801  : //			pItem = new CChartBozoItem(CChartBozoItem::cbi_add, _T("RESETPACKET"), strData);
; 802  : 
; 803  : 		arr.AddTail(pItem);

  00a95	57		 push	 edi
  00a96	8d 8d c0 fe ff
	ff		 lea	 ecx, DWORD PTR _arr$5[ebp]
  00a9c	c6 45 fc 1b	 mov	 BYTE PTR __$EHRec$[ebp+8], 27 ; 0000001bH
  00aa0	e8 00 00 00 00	 call	 ?AddTail@?$CList@PAVCChartBozoItem@@PAV1@@@QAEPAU__POSITION@@PAVCChartBozoItem@@@Z ; CList<CChartBozoItem *,CChartBozoItem *>::AddTail

; 804  : 
; 805  : 		nSize = bojoMng.ChangeChartBozoMsg(strNode, &arr);

  00aa5	8d 85 c0 fe ff
	ff		 lea	 eax, DWORD PTR _arr$5[ebp]
  00aab	50		 push	 eax
  00aac	8d 85 14 ff ff
	ff		 lea	 eax, DWORD PTR _strNode$[ebp]
  00ab2	50		 push	 eax
  00ab3	8d 85 bc fe ff
	ff		 lea	 eax, DWORD PTR _bojoMng$[ebp]
  00ab9	50		 push	 eax
  00aba	e8 00 00 00 00	 call	 ?ChangeChartBozoMsg@CChartBozoManager@@UAGHAAV?$CStringT@DV?$StrTraitMFC_DLL@DV?$ChTraitsCRT@D@ATL@@@@@ATL@@PAV?$CList@PAVCChartBozoItem@@PAV1@@@@Z ; CChartBozoManager::ChangeChartBozoMsg

; 806  : 
; 807  : 		memcpy(pstOut->d1015_CHART.chtBjM, (LPSTR)(LPCTSTR)strNode, nSize);		//	

  00abf	8b b5 00 ff ff
	ff		 mov	 esi, DWORD PTR _pszBuff$1$[ebp]
  00ac5	50		 push	 eax
  00ac6	ff b5 14 ff ff
	ff		 push	 DWORD PTR _strNode$[ebp]
  00acc	81 c6 ce 00 00
	00		 add	 esi, 206		; 000000ceH
  00ad2	56		 push	 esi
  00ad3	e8 00 00 00 00	 call	 _memcpy
  00ad8	83 c4 0c	 add	 esp, 12			; 0000000cH

; 808  : 		memcpy(pstOut->d1015_CHART.chtBjM, "0396", 4);

  00adb	c7 06 30 33 39
	36		 mov	 DWORD PTR [esi], 909718320 ; 36393330H

; 809  : 
; 810  : 		delete pItem;

  00ae1	85 ff		 test	 edi, edi
  00ae3	74 1d		 je	 SHORT $LN229@Convert2St
  00ae5	8d 4f 08	 lea	 ecx, DWORD PTR [edi+8]
  00ae8	ff 15 00 00 00
	00		 call	 DWORD PTR __imp_??1?$CStringT@DV?$StrTraitMFC_DLL@DV?$ChTraitsCRT@D@ATL@@@@@ATL@@QAE@XZ
  00aee	8d 4f 04	 lea	 ecx, DWORD PTR [edi+4]
  00af1	ff 15 00 00 00
	00		 call	 DWORD PTR __imp_??1?$CStringT@DV?$StrTraitMFC_DLL@DV?$ChTraitsCRT@D@ATL@@@@@ATL@@QAE@XZ
  00af7	6a 0c		 push	 12			; 0000000cH
  00af9	57		 push	 edi
  00afa	e8 00 00 00 00	 call	 ??3@YAXPAXI@Z		; operator delete
  00aff	83 c4 08	 add	 esp, 8
$LN229@Convert2St:
; File C:\Program Files (x86)\Microsoft Visual Studio\2019\Community\VC\Tools\MSVC\14.29.30133\atlmfc\include\afxtempl.h

; 872  : 	m_pBlocks->FreeDataChain();

  00b02	8b 8d d4 fe ff
	ff		 mov	 ecx, DWORD PTR _arr$5[ebp+20]
  00b08	c7 85 cc fe ff
	ff 00 00 00 00	 mov	 DWORD PTR _arr$5[ebp+12], 0
  00b12	c7 85 d0 fe ff
	ff 00 00 00 00	 mov	 DWORD PTR _arr$5[ebp+16], 0
  00b1c	c7 85 c8 fe ff
	ff 00 00 00 00	 mov	 DWORD PTR _arr$5[ebp+8], 0
  00b26	c7 85 c4 fe ff
	ff 00 00 00 00	 mov	 DWORD PTR _arr$5[ebp+4], 0
  00b30	e8 00 00 00 00	 call	 ?FreeDataChain@CPlex@@QAEXXZ ; CPlex::FreeDataChain

; 873  : 	m_pBlocks = NULL;

  00b35	c7 85 d4 fe ff
	ff 00 00 00 00	 mov	 DWORD PTR _arr$5[ebp+20], 0

; 872  : 	m_pBlocks->FreeDataChain();

  00b3f	33 c9		 xor	 ecx, ecx

; 878  : {

  00b41	c6 45 fc 1f	 mov	 BYTE PTR __$EHRec$[ebp+8], 31 ; 0000001fH
  00b45	c7 85 c0 fe ff
	ff 00 00 00 00	 mov	 DWORD PTR _arr$5[ebp], OFFSET ??_7?$CList@PAVCChartBozoItem@@PAV1@@@6B@

; 870  : 	m_nCount = 0;

  00b4f	c7 85 cc fe ff
	ff 00 00 00 00	 mov	 DWORD PTR _arr$5[ebp+12], 0

; 871  : 	m_pNodeHead = m_pNodeTail = m_pNodeFree = NULL;

  00b59	c7 85 d0 fe ff
	ff 00 00 00 00	 mov	 DWORD PTR _arr$5[ebp+16], 0
  00b63	c7 85 c8 fe ff
	ff 00 00 00 00	 mov	 DWORD PTR _arr$5[ebp+8], 0
  00b6d	c7 85 c4 fe ff
	ff 00 00 00 00	 mov	 DWORD PTR _arr$5[ebp+4], 0

; 872  : 	m_pBlocks->FreeDataChain();

  00b77	e8 00 00 00 00	 call	 ?FreeDataChain@CPlex@@QAEXXZ ; CPlex::FreeDataChain
; File D:\git\src\IBK\IBK_DRFN\ProjSrc\SrcDrfn\DrCommon\PartnerMng\ChartItemMarket.cpp

; 813  : 	}

  00b7c	8d 8d ec fe ff
	ff		 lea	 ecx, DWORD PTR _strBozo$11[ebp]
  00b82	e9 62 07 00 00	 jmp	 $LN473@Convert2St
$LN16@Convert2St:

; 814  : 	else
; 815  : 	{
; 816  : 		strCode = CDataConverter::Parser(strSrc, sFS);	// 

  00b87	6a 0d		 push	 13			; 0000000dH
  00b89	ff 15 00 00 00
	00		 call	 DWORD PTR __imp_??0?$CStringT@DV?$StrTraitMFC_DLL@DV?$ChTraitsCRT@D@ATL@@@@@ATL@@QAE@DH@Z
  00b8f	8d 85 10 ff ff
	ff		 lea	 eax, DWORD PTR _strSrc$[ebp]
  00b95	50		 push	 eax
  00b96	8d 85 ec fe ff
	ff		 lea	 eax, DWORD PTR $T10[ebp]
  00b9c	50		 push	 eax
  00b9d	e8 00 00 00 00	 call	 ?Parser@CDataConverter@@SA?AV?$CStringT@DV?$StrTraitMFC_DLL@DV?$ChTraitsCRT@D@ATL@@@@@ATL@@AAV23@V23@@Z ; CDataConverter::Parser
  00ba2	83 c4 0c	 add	 esp, 12			; 0000000cH
  00ba5	50		 push	 eax
  00ba6	8d 8d f0 fe ff
	ff		 lea	 ecx, DWORD PTR _strCode$[ebp]
  00bac	c6 45 fc 20	 mov	 BYTE PTR __$EHRec$[ebp+8], 32 ; 00000020H
  00bb0	ff 15 00 00 00
	00		 call	 DWORD PTR __imp_??4?$CStringT@DV?$StrTraitMFC_DLL@DV?$ChTraitsCRT@D@ATL@@@@@ATL@@QAEAAV01@ABV01@@Z
  00bb6	8d 8d ec fe ff
	ff		 lea	 ecx, DWORD PTR $T10[ebp]
  00bbc	c6 45 fc 0d	 mov	 BYTE PTR __$EHRec$[ebp+8], 13 ; 0000000dH
  00bc0	ff 15 00 00 00
	00		 call	 DWORD PTR __imp_??1?$CStringT@DV?$StrTraitMFC_DLL@DV?$ChTraitsCRT@D@ATL@@@@@ATL@@QAE@XZ

; 817  : 
; 818  : 		//KHD : NextKey
; 819  : 		CString strNextKey = CDataConverter::Parser(strSrc, sCELL);

  00bc6	51		 push	 ecx
  00bc7	8b cc		 mov	 ecx, esp
  00bc9	6a 01		 push	 1
  00bcb	6a 09		 push	 9
  00bcd	ff 15 00 00 00
	00		 call	 DWORD PTR __imp_??0?$CStringT@DV?$StrTraitMFC_DLL@DV?$ChTraitsCRT@D@ATL@@@@@ATL@@QAE@DH@Z
  00bd3	8d 85 10 ff ff
	ff		 lea	 eax, DWORD PTR _strSrc$[ebp]
  00bd9	50		 push	 eax
  00bda	8d 85 0c ff ff
	ff		 lea	 eax, DWORD PTR _strNextKey$20[ebp]
  00be0	50		 push	 eax
  00be1	e8 00 00 00 00	 call	 ?Parser@CDataConverter@@SA?AV?$CStringT@DV?$StrTraitMFC_DLL@DV?$ChTraitsCRT@D@ATL@@@@@ATL@@AAV23@V23@@Z ; CDataConverter::Parser
  00be6	83 c4 0c	 add	 esp, 12			; 0000000cH

; 820  : 
; 821  : 		//  
; 822  : 		GRAPH_IO gridOut;
; 823  : 		memcpy(&gridOut, (LPSTR)(LPCTSTR)strSrc, sizeof(gridOut));
; 824  : 		strSrc = strSrc.Mid(sizeof(gridOut));

  00be9	68 88 00 00 00	 push	 136			; 00000088H
  00bee	8d 85 ec fe ff
	ff		 lea	 eax, DWORD PTR $T9[ebp]
  00bf4	c6 45 fc 21	 mov	 BYTE PTR __$EHRec$[ebp+8], 33 ; 00000021H
  00bf8	50		 push	 eax
  00bf9	8d 8d 10 ff ff
	ff		 lea	 ecx, DWORD PTR _strSrc$[ebp]
  00bff	ff 15 00 00 00
	00		 call	 DWORD PTR __imp_?Mid@?$CStringT@DV?$StrTraitMFC_DLL@DV?$ChTraitsCRT@D@ATL@@@@@ATL@@QBE?AV12@H@Z
  00c05	50		 push	 eax
  00c06	8d 8d 10 ff ff
	ff		 lea	 ecx, DWORD PTR _strSrc$[ebp]
  00c0c	c6 45 fc 22	 mov	 BYTE PTR __$EHRec$[ebp+8], 34 ; 00000022H
  00c10	ff 15 00 00 00
	00		 call	 DWORD PTR __imp_??4?$CStringT@DV?$StrTraitMFC_DLL@DV?$ChTraitsCRT@D@ATL@@@@@ATL@@QAEAAV01@ABV01@@Z
  00c16	8d 8d ec fe ff
	ff		 lea	 ecx, DWORD PTR $T9[ebp]
  00c1c	c6 45 fc 21	 mov	 BYTE PTR __$EHRec$[ebp+8], 33 ; 00000021H
  00c20	ff 15 00 00 00
	00		 call	 DWORD PTR __imp_??1?$CStringT@DV?$StrTraitMFC_DLL@DV?$ChTraitsCRT@D@ATL@@@@@ATL@@QAE@XZ
; File C:\Program Files (x86)\Microsoft Visual Studio\2019\Community\VC\Tools\MSVC\14.29.30133\atlmfc\include\atlsimpstr.h

; 519  : 		return( GetData()->nDataLength );

  00c26	8b 85 10 ff ff
	ff		 mov	 eax, DWORD PTR _strSrc$[ebp]

; 533  : 		return( GetLength() == 0 );

  00c2c	83 78 f4 00	 cmp	 DWORD PTR [eax-12], 0
; File D:\git\src\IBK\IBK_DRFN\ProjSrc\SrcDrfn\DrCommon\PartnerMng\ChartItemMarket.cpp

; 826  : 		while (strSrc.IsEmpty() == FALSE)

  00c30	0f 84 b3 01 00
	00		 je	 $LN413@Convert2St
$LL7@Convert2St:

; 827  : 		{
; 828  : 			strNode = CDataConverter::Parser(strSrc, sCELL);	// 

  00c36	51		 push	 ecx
  00c37	8b cc		 mov	 ecx, esp
  00c39	6a 01		 push	 1
  00c3b	6a 09		 push	 9
  00c3d	ff 15 00 00 00
	00		 call	 DWORD PTR __imp_??0?$CStringT@DV?$StrTraitMFC_DLL@DV?$ChTraitsCRT@D@ATL@@@@@ATL@@QAE@DH@Z
  00c43	8d 85 10 ff ff
	ff		 lea	 eax, DWORD PTR _strSrc$[ebp]
  00c49	50		 push	 eax
  00c4a	8d 85 ec fe ff
	ff		 lea	 eax, DWORD PTR $T8[ebp]
  00c50	50		 push	 eax
  00c51	e8 00 00 00 00	 call	 ?Parser@CDataConverter@@SA?AV?$CStringT@DV?$StrTraitMFC_DLL@DV?$ChTraitsCRT@D@ATL@@@@@ATL@@AAV23@V23@@Z ; CDataConverter::Parser
  00c56	83 c4 0c	 add	 esp, 12			; 0000000cH
  00c59	50		 push	 eax
  00c5a	8d 8d 14 ff ff
	ff		 lea	 ecx, DWORD PTR _strNode$[ebp]
  00c60	c6 45 fc 23	 mov	 BYTE PTR __$EHRec$[ebp+8], 35 ; 00000023H
  00c64	ff 15 00 00 00
	00		 call	 DWORD PTR __imp_??4?$CStringT@DV?$StrTraitMFC_DLL@DV?$ChTraitsCRT@D@ATL@@@@@ATL@@QAEAAV01@ABV01@@Z
  00c6a	8d 8d ec fe ff
	ff		 lea	 ecx, DWORD PTR $T8[ebp]
  00c70	c6 45 fc 21	 mov	 BYTE PTR __$EHRec$[ebp+8], 33 ; 00000021H
  00c74	ff 15 00 00 00
	00		 call	 DWORD PTR __imp_??1?$CStringT@DV?$StrTraitMFC_DLL@DV?$ChTraitsCRT@D@ATL@@@@@ATL@@QAE@XZ
; File C:\Program Files (x86)\Microsoft Visual Studio\2019\Community\VC\Tools\MSVC\14.29.30133\atlmfc\include\afxcoll.inl

; 321  : 		SetAtGrow(nIndex, newElement);

  00c7a	8d 85 14 ff ff
	ff		 lea	 eax, DWORD PTR _strNode$[ebp]
  00c80	50		 push	 eax
  00c81	ff b5 90 fe ff
	ff		 push	 DWORD PTR _arrDate$[ebp+8]
  00c87	8d 8d 88 fe ff
	ff		 lea	 ecx, DWORD PTR _arrDate$[ebp]
  00c8d	e8 00 00 00 00	 call	 ?SetAtGrow@CStringArray@@QAEXHABV?$CStringT@DV?$StrTraitMFC_DLL@DV?$ChTraitsCRT@D@ATL@@@@@ATL@@@Z ; CStringArray::SetAtGrow
; File C:\Program Files (x86)\Microsoft Visual Studio\2019\Community\VC\Tools\MSVC\14.29.30133\atlmfc\include\atlsimpstr.h

; 519  : 		return( GetData()->nDataLength );

  00c92	8b 85 10 ff ff
	ff		 mov	 eax, DWORD PTR _strSrc$[ebp]

; 533  : 		return( GetLength() == 0 );

  00c98	83 78 f4 00	 cmp	 DWORD PTR [eax-12], 0
; File D:\git\src\IBK\IBK_DRFN\ProjSrc\SrcDrfn\DrCommon\PartnerMng\ChartItemMarket.cpp

; 831  : 			if (strSrc.IsEmpty())	break;

  00c9c	0f 84 41 01 00
	00		 je	 $LN468@Convert2St

; 832  : 			strNode = CDataConverter::Parser(strSrc, sCELL);		// 

  00ca2	51		 push	 ecx
  00ca3	8b cc		 mov	 ecx, esp
  00ca5	6a 01		 push	 1
  00ca7	6a 09		 push	 9
  00ca9	ff 15 00 00 00
	00		 call	 DWORD PTR __imp_??0?$CStringT@DV?$StrTraitMFC_DLL@DV?$ChTraitsCRT@D@ATL@@@@@ATL@@QAE@DH@Z
  00caf	8d 85 10 ff ff
	ff		 lea	 eax, DWORD PTR _strSrc$[ebp]
  00cb5	50		 push	 eax
  00cb6	8d 85 f8 fe ff
	ff		 lea	 eax, DWORD PTR $T14[ebp]
  00cbc	50		 push	 eax
  00cbd	e8 00 00 00 00	 call	 ?Parser@CDataConverter@@SA?AV?$CStringT@DV?$StrTraitMFC_DLL@DV?$ChTraitsCRT@D@ATL@@@@@ATL@@AAV23@V23@@Z ; CDataConverter::Parser
  00cc2	83 c4 0c	 add	 esp, 12			; 0000000cH
  00cc5	50		 push	 eax
  00cc6	8d 8d 14 ff ff
	ff		 lea	 ecx, DWORD PTR _strNode$[ebp]
  00ccc	c6 45 fc 24	 mov	 BYTE PTR __$EHRec$[ebp+8], 36 ; 00000024H
  00cd0	ff 15 00 00 00
	00		 call	 DWORD PTR __imp_??4?$CStringT@DV?$StrTraitMFC_DLL@DV?$ChTraitsCRT@D@ATL@@@@@ATL@@QAEAAV01@ABV01@@Z
  00cd6	8d 8d f8 fe ff
	ff		 lea	 ecx, DWORD PTR $T14[ebp]
  00cdc	c6 45 fc 21	 mov	 BYTE PTR __$EHRec$[ebp+8], 33 ; 00000021H
  00ce0	ff 15 00 00 00
	00		 call	 DWORD PTR __imp_??1?$CStringT@DV?$StrTraitMFC_DLL@DV?$ChTraitsCRT@D@ATL@@@@@ATL@@QAE@XZ
; File C:\Program Files (x86)\Microsoft Visual Studio\2019\Community\VC\Tools\MSVC\14.29.30133\atlmfc\include\afxcoll.inl

; 321  : 		SetAtGrow(nIndex, newElement);

  00ce6	8d 85 14 ff ff
	ff		 lea	 eax, DWORD PTR _strNode$[ebp]
  00cec	50		 push	 eax
  00ced	ff b5 a4 fe ff
	ff		 push	 DWORD PTR _arrSel1$[ebp+8]
  00cf3	8d 8d 9c fe ff
	ff		 lea	 ecx, DWORD PTR _arrSel1$[ebp]
  00cf9	e8 00 00 00 00	 call	 ?SetAtGrow@CStringArray@@QAEXHABV?$CStringT@DV?$StrTraitMFC_DLL@DV?$ChTraitsCRT@D@ATL@@@@@ATL@@@Z ; CStringArray::SetAtGrow
; File C:\Program Files (x86)\Microsoft Visual Studio\2019\Community\VC\Tools\MSVC\14.29.30133\atlmfc\include\atlsimpstr.h

; 519  : 		return( GetData()->nDataLength );

  00cfe	8b 85 10 ff ff
	ff		 mov	 eax, DWORD PTR _strSrc$[ebp]

; 533  : 		return( GetLength() == 0 );

  00d04	83 78 f4 00	 cmp	 DWORD PTR [eax-12], 0
; File D:\git\src\IBK\IBK_DRFN\ProjSrc\SrcDrfn\DrCommon\PartnerMng\ChartItemMarket.cpp

; 835  : 			if (strSrc.IsEmpty())	break;

  00d08	0f 84 d5 00 00
	00		 je	 $LN468@Convert2St

; 836  : 			strNode = CDataConverter::Parser(strSrc, sCELL);		// 

  00d0e	51		 push	 ecx
  00d0f	8b cc		 mov	 ecx, esp
  00d11	6a 01		 push	 1
  00d13	6a 09		 push	 9
  00d15	ff 15 00 00 00
	00		 call	 DWORD PTR __imp_??0?$CStringT@DV?$StrTraitMFC_DLL@DV?$ChTraitsCRT@D@ATL@@@@@ATL@@QAE@DH@Z
  00d1b	8d 85 10 ff ff
	ff		 lea	 eax, DWORD PTR _strSrc$[ebp]
  00d21	50		 push	 eax
  00d22	8d 85 08 ff ff
	ff		 lea	 eax, DWORD PTR $T18[ebp]
  00d28	50		 push	 eax
  00d29	e8 00 00 00 00	 call	 ?Parser@CDataConverter@@SA?AV?$CStringT@DV?$StrTraitMFC_DLL@DV?$ChTraitsCRT@D@ATL@@@@@ATL@@AAV23@V23@@Z ; CDataConverter::Parser
  00d2e	83 c4 0c	 add	 esp, 12			; 0000000cH
  00d31	50		 push	 eax
  00d32	8d 8d 14 ff ff
	ff		 lea	 ecx, DWORD PTR _strNode$[ebp]
  00d38	c6 45 fc 25	 mov	 BYTE PTR __$EHRec$[ebp+8], 37 ; 00000025H
  00d3c	ff 15 00 00 00
	00		 call	 DWORD PTR __imp_??4?$CStringT@DV?$StrTraitMFC_DLL@DV?$ChTraitsCRT@D@ATL@@@@@ATL@@QAEAAV01@ABV01@@Z
  00d42	8d 8d 08 ff ff
	ff		 lea	 ecx, DWORD PTR $T18[ebp]
  00d48	c6 45 fc 21	 mov	 BYTE PTR __$EHRec$[ebp+8], 33 ; 00000021H
  00d4c	ff 15 00 00 00
	00		 call	 DWORD PTR __imp_??1?$CStringT@DV?$StrTraitMFC_DLL@DV?$ChTraitsCRT@D@ATL@@@@@ATL@@QAE@XZ
; File C:\Program Files (x86)\Microsoft Visual Studio\2019\Community\VC\Tools\MSVC\14.29.30133\atlmfc\include\afxcoll.inl

; 321  : 		SetAtGrow(nIndex, newElement);

  00d52	8d 85 14 ff ff
	ff		 lea	 eax, DWORD PTR _strNode$[ebp]
  00d58	50		 push	 eax
  00d59	ff b5 68 fe ff
	ff		 push	 DWORD PTR _arrSel2$[ebp+8]
  00d5f	8d 8d 60 fe ff
	ff		 lea	 ecx, DWORD PTR _arrSel2$[ebp]
  00d65	e8 00 00 00 00	 call	 ?SetAtGrow@CStringArray@@QAEXHABV?$CStringT@DV?$StrTraitMFC_DLL@DV?$ChTraitsCRT@D@ATL@@@@@ATL@@@Z ; CStringArray::SetAtGrow
; File C:\Program Files (x86)\Microsoft Visual Studio\2019\Community\VC\Tools\MSVC\14.29.30133\atlmfc\include\atlsimpstr.h

; 519  : 		return( GetData()->nDataLength );

  00d6a	8b 85 10 ff ff
	ff		 mov	 eax, DWORD PTR _strSrc$[ebp]

; 533  : 		return( GetLength() == 0 );

  00d70	83 78 f4 00	 cmp	 DWORD PTR [eax-12], 0
; File D:\git\src\IBK\IBK_DRFN\ProjSrc\SrcDrfn\DrCommon\PartnerMng\ChartItemMarket.cpp

; 839  : 			if (strSrc.IsEmpty())	break;

  00d74	74 6d		 je	 SHORT $LN468@Convert2St

; 840  : 			strNode = CDataConverter::Parser(strSrc, sROW);		// 

  00d76	51		 push	 ecx
  00d77	8b cc		 mov	 ecx, esp
  00d79	6a 01		 push	 1
  00d7b	6a 0a		 push	 10			; 0000000aH
  00d7d	ff 15 00 00 00
	00		 call	 DWORD PTR __imp_??0?$CStringT@DV?$StrTraitMFC_DLL@DV?$ChTraitsCRT@D@ATL@@@@@ATL@@QAE@DH@Z
  00d83	8d 85 10 ff ff
	ff		 lea	 eax, DWORD PTR _strSrc$[ebp]
  00d89	50		 push	 eax
  00d8a	8d 85 b8 fe ff
	ff		 lea	 eax, DWORD PTR $T3[ebp]
  00d90	50		 push	 eax
  00d91	e8 00 00 00 00	 call	 ?Parser@CDataConverter@@SA?AV?$CStringT@DV?$StrTraitMFC_DLL@DV?$ChTraitsCRT@D@ATL@@@@@ATL@@AAV23@V23@@Z ; CDataConverter::Parser
  00d96	83 c4 0c	 add	 esp, 12			; 0000000cH
  00d99	50		 push	 eax
  00d9a	8d 8d 14 ff ff
	ff		 lea	 ecx, DWORD PTR _strNode$[ebp]
  00da0	c6 45 fc 26	 mov	 BYTE PTR __$EHRec$[ebp+8], 38 ; 00000026H
  00da4	ff 15 00 00 00
	00		 call	 DWORD PTR __imp_??4?$CStringT@DV?$StrTraitMFC_DLL@DV?$ChTraitsCRT@D@ATL@@@@@ATL@@QAEAAV01@ABV01@@Z
  00daa	8d 8d b8 fe ff
	ff		 lea	 ecx, DWORD PTR $T3[ebp]
  00db0	c6 45 fc 21	 mov	 BYTE PTR __$EHRec$[ebp+8], 33 ; 00000021H
  00db4	ff 15 00 00 00
	00		 call	 DWORD PTR __imp_??1?$CStringT@DV?$StrTraitMFC_DLL@DV?$ChTraitsCRT@D@ATL@@@@@ATL@@QAE@XZ
; File C:\Program Files (x86)\Microsoft Visual Studio\2019\Community\VC\Tools\MSVC\14.29.30133\atlmfc\include\afxcoll.inl

; 321  : 		SetAtGrow(nIndex, newElement);

  00dba	8d 85 14 ff ff
	ff		 lea	 eax, DWORD PTR _strNode$[ebp]
  00dc0	50		 push	 eax
  00dc1	ff b5 7c fe ff
	ff		 push	 DWORD PTR _arrSel3$[ebp+8]
  00dc7	8d 8d 74 fe ff
	ff		 lea	 ecx, DWORD PTR _arrSel3$[ebp]
  00dcd	e8 00 00 00 00	 call	 ?SetAtGrow@CStringArray@@QAEXHABV?$CStringT@DV?$StrTraitMFC_DLL@DV?$ChTraitsCRT@D@ATL@@@@@ATL@@@Z ; CStringArray::SetAtGrow
; File C:\Program Files (x86)\Microsoft Visual Studio\2019\Community\VC\Tools\MSVC\14.29.30133\atlmfc\include\atlsimpstr.h

; 519  : 		return( GetData()->nDataLength );

  00dd2	8b 85 10 ff ff
	ff		 mov	 eax, DWORD PTR _strSrc$[ebp]
; File D:\git\src\IBK\IBK_DRFN\ProjSrc\SrcDrfn\DrCommon\PartnerMng\ChartItemMarket.cpp

; 843  : 			nIndex++;

  00dd8	47		 inc	 edi
; File C:\Program Files (x86)\Microsoft Visual Studio\2019\Community\VC\Tools\MSVC\14.29.30133\atlmfc\include\atlsimpstr.h

; 533  : 		return( GetLength() == 0 );

  00dd9	83 78 f4 00	 cmp	 DWORD PTR [eax-12], 0
; File D:\git\src\IBK\IBK_DRFN\ProjSrc\SrcDrfn\DrCommon\PartnerMng\ChartItemMarket.cpp

; 826  : 		while (strSrc.IsEmpty() == FALSE)

  00ddd	0f 85 53 fe ff
	ff		 jne	 $LL7@Convert2St
$LN468@Convert2St:
  00de3	89 bd 08 ff ff
	ff		 mov	 DWORD PTR _nIndex$1$[ebp], edi
$LN413@Convert2St:

; 844  : 		}
; 845  : 
; 846  : 		nDataLen = sizeof(KB_d1015_OutRec1) + nIndex * sizeof(KB_d1015_OutRec2_3);

  00de9	6b c7 35	 imul	 eax, edi, 53
  00dec	8b bd 00 ff ff
	ff		 mov	 edi, DWORD PTR _nDataLen$GSCopy$1$[ebp]
  00df2	05 5e 02 00 00	 add	 eax, 606		; 0000025eH
  00df7	89 07		 mov	 DWORD PTR [edi], eax

; 847  : 		pszBuff = new char[nDataLen+1];

  00df9	40		 inc	 eax
  00dfa	50		 push	 eax
  00dfb	e8 00 00 00 00	 call	 ??_U@YAPAXI@Z		; operator new[]

; 848  : 		memset(pszBuff, 0x20, nDataLen);

  00e00	ff 37		 push	 DWORD PTR [edi]
  00e02	8b f0		 mov	 esi, eax
  00e04	6a 20		 push	 32			; 00000020H
  00e06	56		 push	 esi
  00e07	89 b5 00 ff ff
	ff		 mov	 DWORD PTR _pszBuff$1$[ebp], esi
  00e0d	e8 00 00 00 00	 call	 _memset

; 849  : 		pszBuff[nDataLen] = 0x00;

  00e12	8b 07		 mov	 eax, DWORD PTR [edi]
  00e14	83 c4 10	 add	 esp, 16			; 00000010H

; 850  : 
; 851  : 		KB_d1015_OutRec_3 *pstOut = NULL;
; 852  : 		pstOut = (KB_d1015_OutRec_3 *)pszBuff;
; 853  : 
; 854  : 		memcpy(pstOut->winid, m_InData.winid, sizeof(m_InData.winid));

  00e17	8b 8d f4 fe ff
	ff		 mov	 ecx, DWORD PTR _this$GSCopy$1$[ebp]

; 855  : 		memcpy(pstOut->dataNm, m_InData.dataNm, sizeof(m_InData.dataNm));

  00e1d	8d 7e 08	 lea	 edi, DWORD PTR [esi+8]
  00e20	c6 04 06 00	 mov	 BYTE PTR [esi+eax], 0
  00e24	8b 41 05	 mov	 eax, DWORD PTR [ecx+5]
  00e27	8b 49 09	 mov	 ecx, DWORD PTR [ecx+9]
  00e2a	89 4e 04	 mov	 DWORD PTR [esi+4], ecx
  00e2d	b9 19 00 00 00	 mov	 ecx, 25			; 00000019H
  00e32	89 06		 mov	 DWORD PTR [esi], eax
  00e34	8b b5 dc fe ff
	ff		 mov	 esi, DWORD PTR tv2430[ebp]
  00e3a	f3 a5		 rep movsd
; File C:\Program Files (x86)\Microsoft Visual Studio\2019\Community\VC\Tools\MSVC\14.29.30133\atlmfc\include\cstringt.h

; 2567 : 		return( str1.Compare( psz2 ) != 0 );

  00e3c	68 00 00 00 00	 push	 OFFSET ??_C@_0P@FLGGHACJ@99999999999999@
  00e41	8d 8d 0c ff ff
	ff		 lea	 ecx, DWORD PTR _strNextKey$20[ebp]
  00e47	ff 15 00 00 00
	00		 call	 DWORD PTR __imp_?Compare@?$CStringT@DV?$StrTraitMFC_DLL@DV?$ChTraitsCRT@D@ATL@@@@@ATL@@QBEHPBD@Z
; File D:\git\src\IBK\IBK_DRFN\ProjSrc\SrcDrfn\DrCommon\PartnerMng\ChartItemMarket.cpp

; 857  : 		if (strNextKey !="99999999999999")// 9 14  .  

  00e4d	8b b5 00 ff ff
	ff		 mov	 esi, DWORD PTR _pszBuff$1$[ebp]
; File C:\Program Files (x86)\Microsoft Visual Studio\2019\Community\VC\Tools\MSVC\14.29.30133\atlmfc\include\cstringt.h

; 2567 : 		return( str1.Compare( psz2 ) != 0 );

  00e53	85 c0		 test	 eax, eax
; File D:\git\src\IBK\IBK_DRFN\ProjSrc\SrcDrfn\DrCommon\PartnerMng\ChartItemMarket.cpp

; 857  : 		if (strNextKey !="99999999999999")// 9 14  .  

  00e55	74 20		 je	 SHORT $LN32@Convert2St
; File C:\Program Files (x86)\Microsoft Visual Studio\2019\Community\VC\Tools\MSVC\14.29.30133\atlmfc\include\atlsimpstr.h

; 519  : 		return( GetData()->nDataLength );

  00e57	8b 85 0c ff ff
	ff		 mov	 eax, DWORD PTR _strNextKey$20[ebp]
; File D:\git\src\IBK\IBK_DRFN\ProjSrc\SrcDrfn\DrCommon\PartnerMng\ChartItemMarket.cpp

; 858  : 			memcpy(pstOut->nxtKey, (LPCTSTR)strNextKey, min(sizeof(pstOut->nxtKey),strNextKey.GetLength()));

  00e5d	ba 54 00 00 00	 mov	 edx, 84			; 00000054H
; File C:\Program Files (x86)\Microsoft Visual Studio\2019\Community\VC\Tools\MSVC\14.29.30133\atlmfc\include\atlsimpstr.h

; 519  : 		return( GetData()->nDataLength );

  00e62	8b 48 f4	 mov	 ecx, DWORD PTR [eax-12]
; File D:\git\src\IBK\IBK_DRFN\ProjSrc\SrcDrfn\DrCommon\PartnerMng\ChartItemMarket.cpp

; 858  : 			memcpy(pstOut->nxtKey, (LPCTSTR)strNextKey, min(sizeof(pstOut->nxtKey),strNextKey.GetLength()));

  00e65	3b ca		 cmp	 ecx, edx
  00e67	0f 47 ca	 cmova	 ecx, edx
  00e6a	51		 push	 ecx
  00e6b	50		 push	 eax
  00e6c	8d 46 75	 lea	 eax, DWORD PTR [esi+117]
  00e6f	50		 push	 eax
  00e70	e8 00 00 00 00	 call	 _memcpy
  00e75	eb 0d		 jmp	 SHORT $LN474@Convert2St
$LN32@Convert2St:

; 859  : 		else
; 860  : 			memset(pstOut->nxtKey, 0x20, sizeof(pstOut->nxtKey));

  00e77	6a 54		 push	 84			; 00000054H
  00e79	8d 46 75	 lea	 eax, DWORD PTR [esi+117]
  00e7c	6a 20		 push	 32			; 00000020H
  00e7e	50		 push	 eax
  00e7f	e8 00 00 00 00	 call	 _memset
$LN474@Convert2St:

; 861  : 
; 862  : 		pstOut->inNumGb[0] = '4';

  00e84	c6 46 6c 34	 mov	 BYTE PTR [esi+108], 52	; 00000034H
  00e88	83 c4 0c	 add	 esp, 12			; 0000000cH
; File C:\Program Files (x86)\Microsoft Visual Studio\2019\Community\VC\Tools\MSVC\14.29.30133\atlmfc\include\atlsimpstr.h

; 519  : 		return( GetData()->nDataLength );

  00e8b	8b 85 f0 fe ff
	ff		 mov	 eax, DWORD PTR _strCode$[ebp]
; File D:\git\src\IBK\IBK_DRFN\ProjSrc\SrcDrfn\DrCommon\PartnerMng\ChartItemMarket.cpp

; 864  : 		memcpy(pstOut->shcode, strCode, min(sizeof(pstOut->shcode), strCode.GetLength()));

  00e91	ba 08 00 00 00	 mov	 edx, 8
; File C:\Program Files (x86)\Microsoft Visual Studio\2019\Community\VC\Tools\MSVC\14.29.30133\atlmfc\include\atlsimpstr.h

; 519  : 		return( GetData()->nDataLength );

  00e96	8b 48 f4	 mov	 ecx, DWORD PTR [eax-12]
; File D:\git\src\IBK\IBK_DRFN\ProjSrc\SrcDrfn\DrCommon\PartnerMng\ChartItemMarket.cpp

; 864  : 		memcpy(pstOut->shcode, strCode, min(sizeof(pstOut->shcode), strCode.GetLength()));

  00e99	3b ca		 cmp	 ecx, edx
  00e9b	0f 47 ca	 cmova	 ecx, edx
  00e9e	51		 push	 ecx
  00e9f	50		 push	 eax
  00ea0	8d 46 6d	 lea	 eax, DWORD PTR [esi+109]
  00ea3	50		 push	 eax
  00ea4	e8 00 00 00 00	 call	 _memcpy
  00ea9	83 c4 0c	 add	 esp, 12			; 0000000cH

; 865  : 		bojoInput.m_sShcode = strCode;

  00eac	8d 85 f0 fe ff
	ff		 lea	 eax, DWORD PTR _strCode$[ebp]
  00eb2	8d 8d 20 ff ff
	ff		 lea	 ecx, DWORD PTR _bojoInput$[ebp+8]
  00eb8	50		 push	 eax
  00eb9	ff 15 00 00 00
	00		 call	 DWORD PTR __imp_??4?$CStringT@DV?$StrTraitMFC_DLL@DV?$ChTraitsCRT@D@ATL@@@@@ATL@@QAEAAV01@ABV01@@Z

; 866  : 
; 867  : 		strNode.Format(_T("%05d"), nIndex);

  00ebf	8b bd 08 ff ff
	ff		 mov	 edi, DWORD PTR _nIndex$1$[ebp]
  00ec5	8d 85 14 ff ff
	ff		 lea	 eax, DWORD PTR _strNode$[ebp]
  00ecb	57		 push	 edi
  00ecc	68 00 00 00 00	 push	 OFFSET ??_C@_04ODOGNJOP@?$CF05d@
  00ed1	50		 push	 eax
  00ed2	ff 15 00 00 00
	00		 call	 DWORD PTR __imp_?Format@?$CStringT@DV?$StrTraitMFC_DLL@DV?$ChTraitsCRT@D@ATL@@@@@ATL@@QAAXPBDZZ

; 868  : 		memcpy(pstOut->d1015_CHART.chtCnt, strNode, 5);

  00ed8	8b 8d 14 ff ff
	ff		 mov	 ecx, DWORD PTR _strNode$[ebp]
  00ede	83 c4 0c	 add	 esp, 12			; 0000000cH
  00ee1	8b 01		 mov	 eax, DWORD PTR [ecx]
  00ee3	89 86 c9 00 00
	00		 mov	 DWORD PTR [esi+201], eax
  00ee9	8a 41 04	 mov	 al, BYTE PTR [ecx+4]
  00eec	88 86 cd 00 00
	00		 mov	 BYTE PTR [esi+205], al

; 869  : 
; 870  : 		for (int i=0; i<nIndex; i++)

  00ef2	33 f6		 xor	 esi, esi
  00ef4	85 ff		 test	 edi, edi
  00ef6	0f 8e 4f 01 00
	00		 jle	 $LN10@Convert2St

; 864  : 		memcpy(pstOut->shcode, strCode, min(sizeof(pstOut->shcode), strCode.GetLength()));

  00efc	8b 85 00 ff ff
	ff		 mov	 eax, DWORD PTR _pszBuff$1$[ebp]
  00f02	05 75 02 00 00	 add	 eax, 629		; 00000275H
  00f07	89 85 08 ff ff
	ff		 mov	 DWORD PTR tv2402[ebp], eax
  00f0d	0f 1f 00	 npad	 3
$LL11@Convert2St:
; File C:\Program Files (x86)\Microsoft Visual Studio\2019\Community\VC\Tools\MSVC\14.29.30133\atlmfc\include\afxcoll.inl

; 289  : 		if( nIndex < 0 || nIndex >= m_nSize )

  00f10	85 f6		 test	 esi, esi
  00f12	0f 88 dd 05 00
	00		 js	 $LN166@Convert2St
  00f18	3b b5 90 fe ff
	ff		 cmp	 esi, DWORD PTR _arrDate$[ebp+8]
  00f1e	0f 8d d1 05 00
	00		 jge	 $LN166@Convert2St

; 291  : 		return m_pData[nIndex]; }

  00f24	8b 85 8c fe ff
	ff		 mov	 eax, DWORD PTR _arrDate$[ebp+4]
; File D:\git\src\IBK\IBK_DRFN\ProjSrc\SrcDrfn\DrCommon\PartnerMng\ChartItemMarket.cpp

; 874  : 			strNode = arrDate.GetAt(i);

  00f2a	8d 8d 14 ff ff
	ff		 lea	 ecx, DWORD PTR _strNode$[ebp]
; File C:\Program Files (x86)\Microsoft Visual Studio\2019\Community\VC\Tools\MSVC\14.29.30133\atlmfc\include\afxcoll.inl

; 291  : 		return m_pData[nIndex]; }

  00f30	8d 04 b0	 lea	 eax, DWORD PTR [eax+esi*4]
; File D:\git\src\IBK\IBK_DRFN\ProjSrc\SrcDrfn\DrCommon\PartnerMng\ChartItemMarket.cpp

; 874  : 			strNode = arrDate.GetAt(i);

  00f33	50		 push	 eax
  00f34	ff 15 00 00 00
	00		 call	 DWORD PTR __imp_??4?$CStringT@DV?$StrTraitMFC_DLL@DV?$ChTraitsCRT@D@ATL@@@@@ATL@@QAEAAV01@ABV01@@Z
; File C:\Program Files (x86)\Microsoft Visual Studio\2019\Community\VC\Tools\MSVC\14.29.30133\atlmfc\include\atlsimpstr.h

; 519  : 		return( GetData()->nDataLength );

  00f3a	8b 85 14 ff ff
	ff		 mov	 eax, DWORD PTR _strNode$[ebp]
; File D:\git\src\IBK\IBK_DRFN\ProjSrc\SrcDrfn\DrCommon\PartnerMng\ChartItemMarket.cpp

; 875  : 			memcpy(pRow->date, strNode, min(sizeof(pRow->date), strNode.GetLength()));

  00f40	ba 08 00 00 00	 mov	 edx, 8
; File C:\Program Files (x86)\Microsoft Visual Studio\2019\Community\VC\Tools\MSVC\14.29.30133\atlmfc\include\atlsimpstr.h

; 519  : 		return( GetData()->nDataLength );

  00f45	8b 48 f4	 mov	 ecx, DWORD PTR [eax-12]
; File D:\git\src\IBK\IBK_DRFN\ProjSrc\SrcDrfn\DrCommon\PartnerMng\ChartItemMarket.cpp

; 875  : 			memcpy(pRow->date, strNode, min(sizeof(pRow->date), strNode.GetLength()));

  00f48	83 f9 08	 cmp	 ecx, 8
  00f4b	0f 47 ca	 cmova	 ecx, edx
  00f4e	51		 push	 ecx
  00f4f	50		 push	 eax
  00f50	8b 85 08 ff ff
	ff		 mov	 eax, DWORD PTR tv2402[ebp]
  00f56	83 c0 e9	 add	 eax, -23		; ffffffe9H
  00f59	50		 push	 eax
  00f5a	e8 00 00 00 00	 call	 _memcpy
  00f5f	83 c4 0c	 add	 esp, 12			; 0000000cH
; File C:\Program Files (x86)\Microsoft Visual Studio\2019\Community\VC\Tools\MSVC\14.29.30133\atlmfc\include\afxcoll.inl

; 289  : 		if( nIndex < 0 || nIndex >= m_nSize )

  00f62	3b b5 a4 fe ff
	ff		 cmp	 esi, DWORD PTR _arrSel1$[ebp+8]
  00f68	0f 8d 87 05 00
	00		 jge	 $LN166@Convert2St

; 291  : 		return m_pData[nIndex]; }

  00f6e	8b 85 a0 fe ff
	ff		 mov	 eax, DWORD PTR _arrSel1$[ebp+4]
; File D:\git\src\IBK\IBK_DRFN\ProjSrc\SrcDrfn\DrCommon\PartnerMng\ChartItemMarket.cpp

; 877  : 			strNode = arrSel1.GetAt(i);

  00f74	8d 8d 14 ff ff
	ff		 lea	 ecx, DWORD PTR _strNode$[ebp]
; File C:\Program Files (x86)\Microsoft Visual Studio\2019\Community\VC\Tools\MSVC\14.29.30133\atlmfc\include\afxcoll.inl

; 291  : 		return m_pData[nIndex]; }

  00f7a	8d 04 b0	 lea	 eax, DWORD PTR [eax+esi*4]
; File D:\git\src\IBK\IBK_DRFN\ProjSrc\SrcDrfn\DrCommon\PartnerMng\ChartItemMarket.cpp

; 877  : 			strNode = arrSel1.GetAt(i);

  00f7d	50		 push	 eax
  00f7e	ff 15 00 00 00
	00		 call	 DWORD PTR __imp_??4?$CStringT@DV?$StrTraitMFC_DLL@DV?$ChTraitsCRT@D@ATL@@@@@ATL@@QAEAAV01@ABV01@@Z
; File C:\Program Files (x86)\Microsoft Visual Studio\2019\Community\VC\Tools\MSVC\14.29.30133\atlmfc\include\atlsimpstr.h

; 519  : 		return( GetData()->nDataLength );

  00f84	8b 85 14 ff ff
	ff		 mov	 eax, DWORD PTR _strNode$[ebp]
; File D:\git\src\IBK\IBK_DRFN\ProjSrc\SrcDrfn\DrCommon\PartnerMng\ChartItemMarket.cpp

; 878  : 			memcpy(pRow->data1, strNode, min(sizeof(pRow->data1), strNode.GetLength()));

  00f8a	ba 0f 00 00 00	 mov	 edx, 15			; 0000000fH
; File C:\Program Files (x86)\Microsoft Visual Studio\2019\Community\VC\Tools\MSVC\14.29.30133\atlmfc\include\atlsimpstr.h

; 519  : 		return( GetData()->nDataLength );

  00f8f	8b 48 f4	 mov	 ecx, DWORD PTR [eax-12]
; File D:\git\src\IBK\IBK_DRFN\ProjSrc\SrcDrfn\DrCommon\PartnerMng\ChartItemMarket.cpp

; 878  : 			memcpy(pRow->data1, strNode, min(sizeof(pRow->data1), strNode.GetLength()));

  00f92	83 f9 0f	 cmp	 ecx, 15			; 0000000fH
  00f95	0f 47 ca	 cmova	 ecx, edx
  00f98	51		 push	 ecx
  00f99	50		 push	 eax
  00f9a	8b 85 08 ff ff
	ff		 mov	 eax, DWORD PTR tv2402[ebp]
  00fa0	83 c0 f1	 add	 eax, -15		; fffffff1H
  00fa3	50		 push	 eax
  00fa4	e8 00 00 00 00	 call	 _memcpy
  00fa9	83 c4 0c	 add	 esp, 12			; 0000000cH
; File C:\Program Files (x86)\Microsoft Visual Studio\2019\Community\VC\Tools\MSVC\14.29.30133\atlmfc\include\afxcoll.inl

; 289  : 		if( nIndex < 0 || nIndex >= m_nSize )

  00fac	3b b5 68 fe ff
	ff		 cmp	 esi, DWORD PTR _arrSel2$[ebp+8]
  00fb2	0f 8d 3d 05 00
	00		 jge	 $LN166@Convert2St

; 291  : 		return m_pData[nIndex]; }

  00fb8	8b 85 64 fe ff
	ff		 mov	 eax, DWORD PTR _arrSel2$[ebp+4]
; File D:\git\src\IBK\IBK_DRFN\ProjSrc\SrcDrfn\DrCommon\PartnerMng\ChartItemMarket.cpp

; 880  : 			strNode = arrSel2.GetAt(i);

  00fbe	8d 8d 14 ff ff
	ff		 lea	 ecx, DWORD PTR _strNode$[ebp]
; File C:\Program Files (x86)\Microsoft Visual Studio\2019\Community\VC\Tools\MSVC\14.29.30133\atlmfc\include\afxcoll.inl

; 291  : 		return m_pData[nIndex]; }

  00fc4	8d 04 b0	 lea	 eax, DWORD PTR [eax+esi*4]
; File D:\git\src\IBK\IBK_DRFN\ProjSrc\SrcDrfn\DrCommon\PartnerMng\ChartItemMarket.cpp

; 880  : 			strNode = arrSel2.GetAt(i);

  00fc7	50		 push	 eax
  00fc8	ff 15 00 00 00
	00		 call	 DWORD PTR __imp_??4?$CStringT@DV?$StrTraitMFC_DLL@DV?$ChTraitsCRT@D@ATL@@@@@ATL@@QAEAAV01@ABV01@@Z
; File C:\Program Files (x86)\Microsoft Visual Studio\2019\Community\VC\Tools\MSVC\14.29.30133\atlmfc\include\atlsimpstr.h

; 519  : 		return( GetData()->nDataLength );

  00fce	8b 85 14 ff ff
	ff		 mov	 eax, DWORD PTR _strNode$[ebp]
; File D:\git\src\IBK\IBK_DRFN\ProjSrc\SrcDrfn\DrCommon\PartnerMng\ChartItemMarket.cpp

; 881  : 			memcpy(pRow->data2, strNode, min(sizeof(pRow->data2), strNode.GetLength()));

  00fd4	ba 0f 00 00 00	 mov	 edx, 15			; 0000000fH
; File C:\Program Files (x86)\Microsoft Visual Studio\2019\Community\VC\Tools\MSVC\14.29.30133\atlmfc\include\atlsimpstr.h

; 519  : 		return( GetData()->nDataLength );

  00fd9	8b 48 f4	 mov	 ecx, DWORD PTR [eax-12]
; File D:\git\src\IBK\IBK_DRFN\ProjSrc\SrcDrfn\DrCommon\PartnerMng\ChartItemMarket.cpp

; 881  : 			memcpy(pRow->data2, strNode, min(sizeof(pRow->data2), strNode.GetLength()));

  00fdc	83 f9 0f	 cmp	 ecx, 15			; 0000000fH
  00fdf	0f 47 ca	 cmova	 ecx, edx
  00fe2	51		 push	 ecx
  00fe3	50		 push	 eax
  00fe4	ff b5 08 ff ff
	ff		 push	 DWORD PTR tv2402[ebp]
  00fea	e8 00 00 00 00	 call	 _memcpy
  00fef	83 c4 0c	 add	 esp, 12			; 0000000cH
; File C:\Program Files (x86)\Microsoft Visual Studio\2019\Community\VC\Tools\MSVC\14.29.30133\atlmfc\include\afxcoll.inl

; 289  : 		if( nIndex < 0 || nIndex >= m_nSize )

  00ff2	3b b5 7c fe ff
	ff		 cmp	 esi, DWORD PTR _arrSel3$[ebp+8]
  00ff8	0f 8d f7 04 00
	00		 jge	 $LN166@Convert2St

; 291  : 		return m_pData[nIndex]; }

  00ffe	8b 85 78 fe ff
	ff		 mov	 eax, DWORD PTR _arrSel3$[ebp+4]
; File D:\git\src\IBK\IBK_DRFN\ProjSrc\SrcDrfn\DrCommon\PartnerMng\ChartItemMarket.cpp

; 883  : 			strNode = arrSel3.GetAt(i);

  01004	8d 8d 14 ff ff
	ff		 lea	 ecx, DWORD PTR _strNode$[ebp]
; File C:\Program Files (x86)\Microsoft Visual Studio\2019\Community\VC\Tools\MSVC\14.29.30133\atlmfc\include\afxcoll.inl

; 291  : 		return m_pData[nIndex]; }

  0100a	8d 04 b0	 lea	 eax, DWORD PTR [eax+esi*4]
; File D:\git\src\IBK\IBK_DRFN\ProjSrc\SrcDrfn\DrCommon\PartnerMng\ChartItemMarket.cpp

; 883  : 			strNode = arrSel3.GetAt(i);

  0100d	50		 push	 eax
  0100e	ff 15 00 00 00
	00		 call	 DWORD PTR __imp_??4?$CStringT@DV?$StrTraitMFC_DLL@DV?$ChTraitsCRT@D@ATL@@@@@ATL@@QAEAAV01@ABV01@@Z
; File C:\Program Files (x86)\Microsoft Visual Studio\2019\Community\VC\Tools\MSVC\14.29.30133\atlmfc\include\atlsimpstr.h

; 519  : 		return( GetData()->nDataLength );

  01014	8b 85 14 ff ff
	ff		 mov	 eax, DWORD PTR _strNode$[ebp]
; File D:\git\src\IBK\IBK_DRFN\ProjSrc\SrcDrfn\DrCommon\PartnerMng\ChartItemMarket.cpp

; 884  : 			memcpy(pRow->data3, strNode, min(sizeof(pRow->data3), strNode.GetLength()));

  0101a	ba 0f 00 00 00	 mov	 edx, 15			; 0000000fH
; File C:\Program Files (x86)\Microsoft Visual Studio\2019\Community\VC\Tools\MSVC\14.29.30133\atlmfc\include\atlsimpstr.h

; 519  : 		return( GetData()->nDataLength );

  0101f	8b 48 f4	 mov	 ecx, DWORD PTR [eax-12]
; File D:\git\src\IBK\IBK_DRFN\ProjSrc\SrcDrfn\DrCommon\PartnerMng\ChartItemMarket.cpp

; 884  : 			memcpy(pRow->data3, strNode, min(sizeof(pRow->data3), strNode.GetLength()));

  01022	83 f9 0f	 cmp	 ecx, 15			; 0000000fH
  01025	0f 47 ca	 cmova	 ecx, edx
  01028	51		 push	 ecx
  01029	50		 push	 eax
  0102a	8b 85 08 ff ff
	ff		 mov	 eax, DWORD PTR tv2402[ebp]
  01030	03 c2		 add	 eax, edx
  01032	50		 push	 eax
  01033	e8 00 00 00 00	 call	 _memcpy
  01038	83 85 08 ff ff
	ff 35		 add	 DWORD PTR tv2402[ebp], 53 ; 00000035H
  0103f	46		 inc	 esi
  01040	83 c4 0c	 add	 esp, 12			; 0000000cH
  01043	3b f7		 cmp	 esi, edi
  01045	0f 8c c5 fe ff
	ff		 jl	 $LL11@Convert2St
$LN10@Convert2St:

; 885  : 		}
; 886  : 
; 887  : 		bojoInput.m_sDataType = _T("0");		//	.   .

  0104b	68 00 00 00 00	 push	 OFFSET ??_C@_01GBGANLPD@0@
  01050	8d 8d 30 ff ff
	ff		 lea	 ecx, DWORD PTR _bojoInput$[ebp+24]
  01056	ff 15 00 00 00
	00		 call	 DWORD PTR __imp_??4?$CStringT@DV?$StrTraitMFC_DLL@DV?$ChTraitsCRT@D@ATL@@@@@ATL@@QAEAAV01@PBD@Z

; 888  : 		bojoInput.m_sMarket = _T("1");			//	.   .

  0105c	68 00 00 00 00	 push	 OFFSET ??_C@_01HIHLOKLC@1@
  01061	8d 8d 1c ff ff
	ff		 lea	 ecx, DWORD PTR _bojoInput$[ebp+4]
  01067	ff 15 00 00 00
	00		 call	 DWORD PTR __imp_??4?$CStringT@DV?$StrTraitMFC_DLL@DV?$ChTraitsCRT@D@ATL@@@@@ATL@@QAEAAV01@PBD@Z

; 889  : 
; 890  : 		char szKey[5];
; 891  : 	//	memset(szKey, 0x00, sizeof(szKey));
; 892  : 	//	memcpy(szKey, gridOut.page, sizeof(gridOut.page));
; 893  : 		if (m_InData.nxtGb[0] != _T('0'))

  0106d	8b 85 f4 fe ff
	ff		 mov	 eax, DWORD PTR _this$GSCopy$1$[ebp]
  01073	8d 8d 2c ff ff
	ff		 lea	 ecx, DWORD PTR _bojoInput$[ebp+20]
  01079	80 b8 87 00 00
	00 30		 cmp	 BYTE PTR [eax+135], 48	; 00000030H
  01080	74 11		 je	 SHORT $LN34@Convert2St

; 894  : 		{
; 895  : 			bojoInput.m_sNxtFlg = _T("1");

  01082	68 00 00 00 00	 push	 OFFSET ??_C@_01HIHLOKLC@1@
  01087	ff 15 00 00 00
	00		 call	 DWORD PTR __imp_??4?$CStringT@DV?$StrTraitMFC_DLL@DV?$ChTraitsCRT@D@ATL@@@@@ATL@@QAEAAV01@PBD@Z

; 896  : 			bojoInput.sNxtFlg[0] = _T('1');

  0108d	c6 45 95 31	 mov	 BYTE PTR _bojoInput$[ebp+125], 49 ; 00000031H

; 897  : 		}

  01091	eb 0f		 jmp	 SHORT $LN35@Convert2St
$LN34@Convert2St:

; 898  : 		else
; 899  : 		{
; 900  : 			bojoInput.m_sNxtFlg = _T("0");

  01093	68 00 00 00 00	 push	 OFFSET ??_C@_01GBGANLPD@0@
  01098	ff 15 00 00 00
	00		 call	 DWORD PTR __imp_??4?$CStringT@DV?$StrTraitMFC_DLL@DV?$ChTraitsCRT@D@ATL@@@@@ATL@@QAEAAV01@PBD@Z

; 901  : 			bojoInput.sNxtFlg[0] = _T('0');

  0109e	c6 45 95 30	 mov	 BYTE PTR _bojoInput$[ebp+125], 48 ; 00000030H
$LN35@Convert2St:

; 902  : 		}
; 903  : 
; 904  : 		bojoInput.m_sTerm = _T("2");				//	,,

  010a2	68 00 00 00 00	 push	 OFFSET ??_C@_01FDFGLJHB@2@
  010a7	8d 8d 28 ff ff
	ff		 lea	 ecx, DWORD PTR _bojoInput$[ebp+16]
  010ad	ff 15 00 00 00
	00		 call	 DWORD PTR __imp_??4?$CStringT@DV?$StrTraitMFC_DLL@DV?$ChTraitsCRT@D@ATL@@@@@ATL@@QAEAAV01@PBD@Z

; 905  : 		bojoInput.m_sTick = _T("1");

  010b3	68 00 00 00 00	 push	 OFFSET ??_C@_01HIHLOKLC@1@
  010b8	8d 8d 24 ff ff
	ff		 lea	 ecx, DWORD PTR _bojoInput$[ebp+12]
  010be	ff 15 00 00 00
	00		 call	 DWORD PTR __imp_??4?$CStringT@DV?$StrTraitMFC_DLL@DV?$ChTraitsCRT@D@ATL@@@@@ATL@@QAEAAV01@PBD@Z

; 906  : 
; 907  : 		CString strBozo;

  010c4	8d 8d e4 fe ff
	ff		 lea	 ecx, DWORD PTR _strBozo$7[ebp]
  010ca	ff 15 00 00 00
	00		 call	 DWORD PTR __imp_??0?$CStringT@DV?$StrTraitMFC_DLL@DV?$ChTraitsCRT@D@ATL@@@@@ATL@@QAE@XZ

; 908  : 		memset(szKey, 0x00, sizeof(szKey));
; 909  : 		sprintf(szKey, _T("%03d"), 133); // 133 

  010d0	68 85 00 00 00	 push	 133			; 00000085H
  010d5	8d 45 e0	 lea	 eax, DWORD PTR _szKey$29[ebp]
  010d8	c6 45 fc 27	 mov	 BYTE PTR __$EHRec$[ebp+8], 39 ; 00000027H
  010dc	68 00 00 00 00	 push	 OFFSET ??_C@_04OHGLKFFN@?$CF03d@
  010e1	50		 push	 eax
  010e2	c7 45 e0 00 00
	00 00		 mov	 DWORD PTR _szKey$29[ebp], 0
  010e9	c6 45 e4 00	 mov	 BYTE PTR _szKey$29[ebp+4], 0
  010ed	e8 00 00 00 00	 call	 _sprintf
  010f2	83 c4 0c	 add	 esp, 12			; 0000000cH

; 910  : 
; 911  : 		nSize = bojoMng.GetChartBozoMsg(szKey, &bojoInput, strNode);

  010f5	8d 85 14 ff ff
	ff		 lea	 eax, DWORD PTR _strNode$[ebp]
  010fb	6a 00		 push	 0
  010fd	50		 push	 eax
  010fe	8d 85 18 ff ff
	ff		 lea	 eax, DWORD PTR _bojoInput$[ebp]
  01104	50		 push	 eax
  01105	8d 45 e0	 lea	 eax, DWORD PTR _szKey$29[ebp]
  01108	50		 push	 eax
  01109	8d 85 bc fe ff
	ff		 lea	 eax, DWORD PTR _bojoMng$[ebp]
  0110f	50		 push	 eax
  01110	e8 00 00 00 00	 call	 ?GetChartBozoMsg@CChartBozoManager@@UAGHPBDPAVCChartBozoInput@@AAV?$CStringT@DV?$StrTraitMFC_DLL@DV?$ChTraitsCRT@D@ATL@@@@@ATL@@H@Z ; CChartBozoManager::GetChartBozoMsg
; File C:\Program Files (x86)\Microsoft Visual Studio\2019\Community\VC\Tools\MSVC\14.29.30133\atlmfc\include\atlsimpstr.h

; 519  : 		return( GetData()->nDataLength );

  01115	8b 85 b4 fe ff
	ff		 mov	 eax, DWORD PTR _strNm4$[ebp]
  0111b	8b 8d b0 fe ff
	ff		 mov	 ecx, DWORD PTR _strNm3$[ebp]
  01121	8b 95 e0 fe ff
	ff		 mov	 edx, DWORD PTR _strNm2$[ebp]
  01127	8b b5 fc fe ff
	ff		 mov	 esi, DWORD PTR _strNm1$[ebp]
; File D:\git\src\IBK\IBK_DRFN\ProjSrc\SrcDrfn\DrCommon\PartnerMng\ChartItemMarket.cpp

; 912  : 		strData.Format(_T("%.*s:8:YYYYMMDD|%.*s:15:x1|%.*s:15:x1|%.*s:15:x1"),

  0112d	50		 push	 eax
  0112e	ff 70 f4	 push	 DWORD PTR [eax-12]
  01131	8d 85 e8 fe ff
	ff		 lea	 eax, DWORD PTR _strData$[ebp]
  01137	51		 push	 ecx
  01138	ff 71 f4	 push	 DWORD PTR [ecx-12]
  0113b	52		 push	 edx
  0113c	ff 72 f4	 push	 DWORD PTR [edx-12]
  0113f	56		 push	 esi
  01140	ff 76 f4	 push	 DWORD PTR [esi-12]
  01143	68 00 00 00 00	 push	 OFFSET ??_C@_0DB@LIAKHBHP@?$CF?4?$CKs?38?3YYYYMMDD?$HM?$CF?4?$CKs?315?3x1?$HM?$CF?4?$CKs@
  01148	50		 push	 eax
  01149	ff 15 00 00 00
	00		 call	 DWORD PTR __imp_?Format@?$CStringT@DV?$StrTraitMFC_DLL@DV?$ChTraitsCRT@D@ATL@@@@@ATL@@QAAXPBDZZ
; File C:\Program Files (x86)\Microsoft Visual Studio\2019\Community\VC\Tools\MSVC\14.29.30133\atlmfc\include\afxtempl.h

; 851  : {

  0114f	c7 85 c0 fe ff
	ff 00 00 00 00	 mov	 DWORD PTR _arr$4[ebp], OFFSET ??_7?$CList@PAVCChartBozoItem@@PAV1@@@6B@

; 852  : 	ASSERT(nBlockSize > 0);
; 853  : 
; 854  : 	m_nCount = 0;

  01159	c7 85 cc fe ff
	ff 00 00 00 00	 mov	 DWORD PTR _arr$4[ebp+12], 0

; 855  : 	m_pNodeHead = m_pNodeTail = m_pNodeFree = NULL;

  01163	c7 85 d0 fe ff
	ff 00 00 00 00	 mov	 DWORD PTR _arr$4[ebp+16], 0
  0116d	c7 85 c8 fe ff
	ff 00 00 00 00	 mov	 DWORD PTR _arr$4[ebp+8], 0
  01177	c7 85 c4 fe ff
	ff 00 00 00 00	 mov	 DWORD PTR _arr$4[ebp+4], 0

; 856  : 	m_pBlocks = NULL;

  01181	c7 85 d4 fe ff
	ff 00 00 00 00	 mov	 DWORD PTR _arr$4[ebp+20], 0

; 857  : 	m_nBlockSize = nBlockSize;

  0118b	c7 85 d8 fe ff
	ff 0a 00 00 00	 mov	 DWORD PTR _arr$4[ebp+24], 10 ; 0000000aH
; File D:\git\src\IBK\IBK_DRFN\ProjSrc\SrcDrfn\DrCommon\PartnerMng\ChartItemMarket.cpp

; 921  : 			pItem = new CChartBozoItem(CChartBozoItem::cbi_add, _T("NEWPACKET"), strData);

  01195	6a 0c		 push	 12			; 0000000cH
  01197	c6 45 fc 28	 mov	 BYTE PTR __$EHRec$[ebp+8], 40 ; 00000028H
  0119b	e8 00 00 00 00	 call	 ??2@YAPAXI@Z		; operator new
  011a0	8b f0		 mov	 esi, eax
  011a2	83 c4 2c	 add	 esp, 44			; 0000002cH
  011a5	89 b5 dc fe ff
	ff		 mov	 DWORD PTR $T6[ebp], esi
  011ab	85 f6		 test	 esi, esi
  011ad	74 4b		 je	 SHORT $LN61@Convert2St
; File C:\Program Files (x86)\Microsoft Visual Studio\2019\Community\VC\Tools\MSVC\14.29.30133\atlmfc\include\atlsimpstr.h

; 377  : 		return( m_pszData );

  011af	8b 85 e8 fe ff
	ff		 mov	 eax, DWORD PTR _strData$[ebp]
; File D:\git\src\IBK\IBK_DRFN\ProjSrc\SrcDrfn\inc\IChartBozoMsgMng.h

; 26   : 	CChartBozoItem(int nOption, LPCSTR szKey, LPCSTR szValue)

  011b5	8d 4e 04	 lea	 ecx, DWORD PTR [esi+4]
; File C:\Program Files (x86)\Microsoft Visual Studio\2019\Community\VC\Tools\MSVC\14.29.30133\atlmfc\include\atlsimpstr.h

; 377  : 		return( m_pszData );

  011b8	89 85 b8 fe ff
	ff		 mov	 DWORD PTR $T2[ebp], eax
; File D:\git\src\IBK\IBK_DRFN\ProjSrc\SrcDrfn\inc\IChartBozoMsgMng.h

; 26   : 	CChartBozoItem(int nOption, LPCSTR szKey, LPCSTR szValue)

  011be	ff 15 00 00 00
	00		 call	 DWORD PTR __imp_??0?$CStringT@DV?$StrTraitMFC_DLL@DV?$ChTraitsCRT@D@ATL@@@@@ATL@@QAE@XZ
  011c4	8d 4e 08	 lea	 ecx, DWORD PTR [esi+8]
  011c7	ff 15 00 00 00
	00		 call	 DWORD PTR __imp_??0?$CStringT@DV?$StrTraitMFC_DLL@DV?$ChTraitsCRT@D@ATL@@@@@ATL@@QAE@XZ

; 27   : 	{
; 28   : 		m_nOption = nOption;

  011cd	8b c6		 mov	 eax, esi
  011cf	c6 45 fc 2b	 mov	 BYTE PTR __$EHRec$[ebp+8], 43 ; 0000002bH

; 29   : 		m_szKey = szKey;

  011d3	68 00 00 00 00	 push	 OFFSET ??_C@_09ELPBAGKN@NEWPACKET@
  011d8	8d 4e 04	 lea	 ecx, DWORD PTR [esi+4]
  011db	c7 00 01 00 00
	00		 mov	 DWORD PTR [eax], 1
  011e1	ff 15 00 00 00
	00		 call	 DWORD PTR __imp_??4?$CStringT@DV?$StrTraitMFC_DLL@DV?$ChTraitsCRT@D@ATL@@@@@ATL@@QAEAAV01@PBD@Z

; 30   : 		m_szValue = szValue;

  011e7	ff b5 b8 fe ff
	ff		 push	 DWORD PTR $T2[ebp]
  011ed	8d 4e 08	 lea	 ecx, DWORD PTR [esi+8]
  011f0	ff 15 00 00 00
	00		 call	 DWORD PTR __imp_??4?$CStringT@DV?$StrTraitMFC_DLL@DV?$ChTraitsCRT@D@ATL@@@@@ATL@@QAEAAV01@PBD@Z
; File D:\git\src\IBK\IBK_DRFN\ProjSrc\SrcDrfn\DrCommon\PartnerMng\ChartItemMarket.cpp

; 921  : 			pItem = new CChartBozoItem(CChartBozoItem::cbi_add, _T("NEWPACKET"), strData);

  011f6	8b fe		 mov	 edi, esi
  011f8	eb 02		 jmp	 SHORT $LN62@Convert2St
$LN61@Convert2St:
  011fa	33 ff		 xor	 edi, edi
$LN62@Convert2St:

; 922  : //		else
; 923  : //			pItem = new CChartBozoItem(CChartBozoItem::cbi_add, _T("RESETPACKET"), strData);
; 924  : 
; 925  : 		arr.AddTail(pItem);

  011fc	57		 push	 edi
  011fd	8d 8d c0 fe ff
	ff		 lea	 ecx, DWORD PTR _arr$4[ebp]
  01203	c6 45 fc 28	 mov	 BYTE PTR __$EHRec$[ebp+8], 40 ; 00000028H
  01207	e8 00 00 00 00	 call	 ?AddTail@?$CList@PAVCChartBozoItem@@PAV1@@@QAEPAU__POSITION@@PAVCChartBozoItem@@@Z ; CList<CChartBozoItem *,CChartBozoItem *>::AddTail

; 926  : 
; 927  : 		nSize = bojoMng.ChangeChartBozoMsg(strNode, &arr);

  0120c	8d 85 c0 fe ff
	ff		 lea	 eax, DWORD PTR _arr$4[ebp]
  01212	50		 push	 eax
  01213	8d 85 14 ff ff
	ff		 lea	 eax, DWORD PTR _strNode$[ebp]
  01219	50		 push	 eax
  0121a	8d 85 bc fe ff
	ff		 lea	 eax, DWORD PTR _bojoMng$[ebp]
  01220	50		 push	 eax
  01221	e8 00 00 00 00	 call	 ?ChangeChartBozoMsg@CChartBozoManager@@UAGHAAV?$CStringT@DV?$StrTraitMFC_DLL@DV?$ChTraitsCRT@D@ATL@@@@@ATL@@PAV?$CList@PAVCChartBozoItem@@PAV1@@@@Z ; CChartBozoManager::ChangeChartBozoMsg

; 928  : 
; 929  : 		memcpy(pstOut->d1015_CHART.chtBjM, (LPSTR)(LPCTSTR)strNode, nSize);		//	

  01226	8b b5 00 ff ff
	ff		 mov	 esi, DWORD PTR _pszBuff$1$[ebp]
  0122c	50		 push	 eax
  0122d	ff b5 14 ff ff
	ff		 push	 DWORD PTR _strNode$[ebp]
  01233	81 c6 ce 00 00
	00		 add	 esi, 206		; 000000ceH
  01239	56		 push	 esi
  0123a	e8 00 00 00 00	 call	 _memcpy
  0123f	83 c4 0c	 add	 esp, 12			; 0000000cH

; 930  : 		memcpy(pstOut->d1015_CHART.chtBjM, "0396", 4);

  01242	c7 06 30 33 39
	36		 mov	 DWORD PTR [esi], 909718320 ; 36393330H

; 931  : 
; 932  : 		delete pItem;

  01248	85 ff		 test	 edi, edi
  0124a	74 1d		 je	 SHORT $LN388@Convert2St
  0124c	8d 4f 08	 lea	 ecx, DWORD PTR [edi+8]
  0124f	ff 15 00 00 00
	00		 call	 DWORD PTR __imp_??1?$CStringT@DV?$StrTraitMFC_DLL@DV?$ChTraitsCRT@D@ATL@@@@@ATL@@QAE@XZ
  01255	8d 4f 04	 lea	 ecx, DWORD PTR [edi+4]
  01258	ff 15 00 00 00
	00		 call	 DWORD PTR __imp_??1?$CStringT@DV?$StrTraitMFC_DLL@DV?$ChTraitsCRT@D@ATL@@@@@ATL@@QAE@XZ
  0125e	6a 0c		 push	 12			; 0000000cH
  01260	57		 push	 edi
  01261	e8 00 00 00 00	 call	 ??3@YAXPAXI@Z		; operator delete
  01266	83 c4 08	 add	 esp, 8
$LN388@Convert2St:
; File C:\Program Files (x86)\Microsoft Visual Studio\2019\Community\VC\Tools\MSVC\14.29.30133\atlmfc\include\afxtempl.h

; 872  : 	m_pBlocks->FreeDataChain();

  01269	8b 8d d4 fe ff
	ff		 mov	 ecx, DWORD PTR _arr$4[ebp+20]
  0126f	c7 85 cc fe ff
	ff 00 00 00 00	 mov	 DWORD PTR _arr$4[ebp+12], 0
  01279	c7 85 d0 fe ff
	ff 00 00 00 00	 mov	 DWORD PTR _arr$4[ebp+16], 0
  01283	c7 85 c8 fe ff
	ff 00 00 00 00	 mov	 DWORD PTR _arr$4[ebp+8], 0
  0128d	c7 85 c4 fe ff
	ff 00 00 00 00	 mov	 DWORD PTR _arr$4[ebp+4], 0
  01297	e8 00 00 00 00	 call	 ?FreeDataChain@CPlex@@QAEXXZ ; CPlex::FreeDataChain

; 873  : 	m_pBlocks = NULL;

  0129c	c7 85 d4 fe ff
	ff 00 00 00 00	 mov	 DWORD PTR _arr$4[ebp+20], 0

; 872  : 	m_pBlocks->FreeDataChain();

  012a6	33 c9		 xor	 ecx, ecx

; 878  : {

  012a8	c6 45 fc 2c	 mov	 BYTE PTR __$EHRec$[ebp+8], 44 ; 0000002cH
  012ac	c7 85 c0 fe ff
	ff 00 00 00 00	 mov	 DWORD PTR _arr$4[ebp], OFFSET ??_7?$CList@PAVCChartBozoItem@@PAV1@@@6B@

; 870  : 	m_nCount = 0;

  012b6	c7 85 cc fe ff
	ff 00 00 00 00	 mov	 DWORD PTR _arr$4[ebp+12], 0

; 871  : 	m_pNodeHead = m_pNodeTail = m_pNodeFree = NULL;

  012c0	c7 85 d0 fe ff
	ff 00 00 00 00	 mov	 DWORD PTR _arr$4[ebp+16], 0
  012ca	c7 85 c8 fe ff
	ff 00 00 00 00	 mov	 DWORD PTR _arr$4[ebp+8], 0
  012d4	c7 85 c4 fe ff
	ff 00 00 00 00	 mov	 DWORD PTR _arr$4[ebp+4], 0

; 872  : 	m_pBlocks->FreeDataChain();

  012de	e8 00 00 00 00	 call	 ?FreeDataChain@CPlex@@QAEXXZ ; CPlex::FreeDataChain
; File D:\git\src\IBK\IBK_DRFN\ProjSrc\SrcDrfn\DrCommon\PartnerMng\ChartItemMarket.cpp

; 935  : 	}

  012e3	8d 8d e4 fe ff
	ff		 lea	 ecx, DWORD PTR _strBozo$7[ebp]
$LN473@Convert2St:

; 936  : 
; 937  : 	return pszBuff;

  012e9	c7 85 d4 fe ff
	ff 00 00 00 00	 mov	 DWORD PTR _arr$4[ebp+20], 0
  012f3	ff 15 00 00 00
	00		 call	 DWORD PTR __imp_??1?$CStringT@DV?$StrTraitMFC_DLL@DV?$ChTraitsCRT@D@ATL@@@@@ATL@@QAE@XZ
  012f9	8d 8d 0c ff ff
	ff		 lea	 ecx, DWORD PTR _strNextKey$20[ebp]
  012ff	ff 15 00 00 00
	00		 call	 DWORD PTR __imp_??1?$CStringT@DV?$StrTraitMFC_DLL@DV?$ChTraitsCRT@D@ATL@@@@@ATL@@QAE@XZ
  01305	8d 8d e8 fe ff
	ff		 lea	 ecx, DWORD PTR _strData$[ebp]
  0130b	ff 15 00 00 00
	00		 call	 DWORD PTR __imp_??1?$CStringT@DV?$StrTraitMFC_DLL@DV?$ChTraitsCRT@D@ATL@@@@@ATL@@QAE@XZ
  01311	8d 8d 04 ff ff
	ff		 lea	 ecx, DWORD PTR _strDataNm$[ebp]
  01317	ff 15 00 00 00
	00		 call	 DWORD PTR __imp_??1?$CStringT@DV?$StrTraitMFC_DLL@DV?$ChTraitsCRT@D@ATL@@@@@ATL@@QAE@XZ
  0131d	8d 8d b4 fe ff
	ff		 lea	 ecx, DWORD PTR _strNm4$[ebp]
  01323	ff 15 00 00 00
	00		 call	 DWORD PTR __imp_??1?$CStringT@DV?$StrTraitMFC_DLL@DV?$ChTraitsCRT@D@ATL@@@@@ATL@@QAE@XZ
  01329	8d 8d b0 fe ff
	ff		 lea	 ecx, DWORD PTR _strNm3$[ebp]
  0132f	ff 15 00 00 00
	00		 call	 DWORD PTR __imp_??1?$CStringT@DV?$StrTraitMFC_DLL@DV?$ChTraitsCRT@D@ATL@@@@@ATL@@QAE@XZ
  01335	8d 8d e0 fe ff
	ff		 lea	 ecx, DWORD PTR _strNm2$[ebp]
  0133b	ff 15 00 00 00
	00		 call	 DWORD PTR __imp_??1?$CStringT@DV?$StrTraitMFC_DLL@DV?$ChTraitsCRT@D@ATL@@@@@ATL@@QAE@XZ
  01341	8d 8d fc fe ff
	ff		 lea	 ecx, DWORD PTR _strNm1$[ebp]
  01347	ff 15 00 00 00
	00		 call	 DWORD PTR __imp_??1?$CStringT@DV?$StrTraitMFC_DLL@DV?$ChTraitsCRT@D@ATL@@@@@ATL@@QAE@XZ
  0134d	8d 8d 74 fe ff
	ff		 lea	 ecx, DWORD PTR _arrSel3$[ebp]
  01353	e8 00 00 00 00	 call	 ??1CStringArray@@UAE@XZ	; CStringArray::~CStringArray
  01358	8d 8d 60 fe ff
	ff		 lea	 ecx, DWORD PTR _arrSel2$[ebp]
  0135e	e8 00 00 00 00	 call	 ??1CStringArray@@UAE@XZ	; CStringArray::~CStringArray
  01363	8d 8d 9c fe ff
	ff		 lea	 ecx, DWORD PTR _arrSel1$[ebp]
  01369	e8 00 00 00 00	 call	 ??1CStringArray@@UAE@XZ	; CStringArray::~CStringArray
  0136e	8d 8d 88 fe ff
	ff		 lea	 ecx, DWORD PTR _arrDate$[ebp]
  01374	e8 00 00 00 00	 call	 ??1CStringArray@@UAE@XZ	; CStringArray::~CStringArray
  01379	8d 4d d8	 lea	 ecx, DWORD PTR _bojoInput$[ebp+192]
  0137c	ff 15 00 00 00
	00		 call	 DWORD PTR __imp_??1?$CStringT@DV?$StrTraitMFC_DLL@DV?$ChTraitsCRT@D@ATL@@@@@ATL@@QAE@XZ
  01382	8d 8d 7c ff ff
	ff		 lea	 ecx, DWORD PTR _bojoInput$[ebp+100]
  01388	ff 15 00 00 00
	00		 call	 DWORD PTR __imp_??1?$CStringT@DV?$StrTraitMFC_DLL@DV?$ChTraitsCRT@D@ATL@@@@@ATL@@QAE@XZ
  0138e	8d 8d 78 ff ff
	ff		 lea	 ecx, DWORD PTR _bojoInput$[ebp+96]
  01394	ff 15 00 00 00
	00		 call	 DWORD PTR __imp_??1?$CStringT@DV?$StrTraitMFC_DLL@DV?$ChTraitsCRT@D@ATL@@@@@ATL@@QAE@XZ
  0139a	8d 8d 74 ff ff
	ff		 lea	 ecx, DWORD PTR _bojoInput$[ebp+92]
  013a0	ff 15 00 00 00
	00		 call	 DWORD PTR __imp_??1?$CStringT@DV?$StrTraitMFC_DLL@DV?$ChTraitsCRT@D@ATL@@@@@ATL@@QAE@XZ
  013a6	8d 8d 70 ff ff
	ff		 lea	 ecx, DWORD PTR _bojoInput$[ebp+88]
  013ac	ff 15 00 00 00
	00		 call	 DWORD PTR __imp_??1?$CStringT@DV?$StrTraitMFC_DLL@DV?$ChTraitsCRT@D@ATL@@@@@ATL@@QAE@XZ
  013b2	8d 8d 6c ff ff
	ff		 lea	 ecx, DWORD PTR _bojoInput$[ebp+84]
  013b8	ff 15 00 00 00
	00		 call	 DWORD PTR __imp_??1?$CStringT@DV?$StrTraitMFC_DLL@DV?$ChTraitsCRT@D@ATL@@@@@ATL@@QAE@XZ
  013be	8d 8d 68 ff ff
	ff		 lea	 ecx, DWORD PTR _bojoInput$[ebp+80]
  013c4	ff 15 00 00 00
	00		 call	 DWORD PTR __imp_??1?$CStringT@DV?$StrTraitMFC_DLL@DV?$ChTraitsCRT@D@ATL@@@@@ATL@@QAE@XZ
  013ca	8d 8d 64 ff ff
	ff		 lea	 ecx, DWORD PTR _bojoInput$[ebp+76]
  013d0	ff 15 00 00 00
	00		 call	 DWORD PTR __imp_??1?$CStringT@DV?$StrTraitMFC_DLL@DV?$ChTraitsCRT@D@ATL@@@@@ATL@@QAE@XZ
  013d6	8d 8d 60 ff ff
	ff		 lea	 ecx, DWORD PTR _bojoInput$[ebp+72]
  013dc	ff 15 00 00 00
	00		 call	 DWORD PTR __imp_??1?$CStringT@DV?$StrTraitMFC_DLL@DV?$ChTraitsCRT@D@ATL@@@@@ATL@@QAE@XZ
  013e2	8d 8d 5c ff ff
	ff		 lea	 ecx, DWORD PTR _bojoInput$[ebp+68]
  013e8	ff 15 00 00 00
	00		 call	 DWORD PTR __imp_??1?$CStringT@DV?$StrTraitMFC_DLL@DV?$ChTraitsCRT@D@ATL@@@@@ATL@@QAE@XZ
  013ee	8d 8d 58 ff ff
	ff		 lea	 ecx, DWORD PTR _bojoInput$[ebp+64]
  013f4	ff 15 00 00 00
	00		 call	 DWORD PTR __imp_??1?$CStringT@DV?$StrTraitMFC_DLL@DV?$ChTraitsCRT@D@ATL@@@@@ATL@@QAE@XZ
  013fa	8d 8d 54 ff ff
	ff		 lea	 ecx, DWORD PTR _bojoInput$[ebp+60]
  01400	ff 15 00 00 00
	00		 call	 DWORD PTR __imp_??1?$CStringT@DV?$StrTraitMFC_DLL@DV?$ChTraitsCRT@D@ATL@@@@@ATL@@QAE@XZ
  01406	8d 8d 50 ff ff
	ff		 lea	 ecx, DWORD PTR _bojoInput$[ebp+56]
  0140c	ff 15 00 00 00
	00		 call	 DWORD PTR __imp_??1?$CStringT@DV?$StrTraitMFC_DLL@DV?$ChTraitsCRT@D@ATL@@@@@ATL@@QAE@XZ
  01412	8d 8d 4c ff ff
	ff		 lea	 ecx, DWORD PTR _bojoInput$[ebp+52]
  01418	ff 15 00 00 00
	00		 call	 DWORD PTR __imp_??1?$CStringT@DV?$StrTraitMFC_DLL@DV?$ChTraitsCRT@D@ATL@@@@@ATL@@QAE@XZ
  0141e	8d 8d 48 ff ff
	ff		 lea	 ecx, DWORD PTR _bojoInput$[ebp+48]
  01424	ff 15 00 00 00
	00		 call	 DWORD PTR __imp_??1?$CStringT@DV?$StrTraitMFC_DLL@DV?$ChTraitsCRT@D@ATL@@@@@ATL@@QAE@XZ
  0142a	8d 8d 44 ff ff
	ff		 lea	 ecx, DWORD PTR _bojoInput$[ebp+44]
  01430	ff 15 00 00 00
	00		 call	 DWORD PTR __imp_??1?$CStringT@DV?$StrTraitMFC_DLL@DV?$ChTraitsCRT@D@ATL@@@@@ATL@@QAE@XZ
  01436	8d 8d 40 ff ff
	ff		 lea	 ecx, DWORD PTR _bojoInput$[ebp+40]
  0143c	ff 15 00 00 00
	00		 call	 DWORD PTR __imp_??1?$CStringT@DV?$StrTraitMFC_DLL@DV?$ChTraitsCRT@D@ATL@@@@@ATL@@QAE@XZ
  01442	8d 8d 3c ff ff
	ff		 lea	 ecx, DWORD PTR _bojoInput$[ebp+36]
  01448	ff 15 00 00 00
	00		 call	 DWORD PTR __imp_??1?$CStringT@DV?$StrTraitMFC_DLL@DV?$ChTraitsCRT@D@ATL@@@@@ATL@@QAE@XZ
  0144e	8d 8d 38 ff ff
	ff		 lea	 ecx, DWORD PTR _bojoInput$[ebp+32]
  01454	ff 15 00 00 00
	00		 call	 DWORD PTR __imp_??1?$CStringT@DV?$StrTraitMFC_DLL@DV?$ChTraitsCRT@D@ATL@@@@@ATL@@QAE@XZ
  0145a	8d 8d 34 ff ff
	ff		 lea	 ecx, DWORD PTR _bojoInput$[ebp+28]
  01460	ff 15 00 00 00
	00		 call	 DWORD PTR __imp_??1?$CStringT@DV?$StrTraitMFC_DLL@DV?$ChTraitsCRT@D@ATL@@@@@ATL@@QAE@XZ
  01466	8d 8d 30 ff ff
	ff		 lea	 ecx, DWORD PTR _bojoInput$[ebp+24]
  0146c	ff 15 00 00 00
	00		 call	 DWORD PTR __imp_??1?$CStringT@DV?$StrTraitMFC_DLL@DV?$ChTraitsCRT@D@ATL@@@@@ATL@@QAE@XZ
  01472	8d 8d 2c ff ff
	ff		 lea	 ecx, DWORD PTR _bojoInput$[ebp+20]
  01478	ff 15 00 00 00
	00		 call	 DWORD PTR __imp_??1?$CStringT@DV?$StrTraitMFC_DLL@DV?$ChTraitsCRT@D@ATL@@@@@ATL@@QAE@XZ
  0147e	8d 8d 28 ff ff
	ff		 lea	 ecx, DWORD PTR _bojoInput$[ebp+16]
  01484	ff 15 00 00 00
	00		 call	 DWORD PTR __imp_??1?$CStringT@DV?$StrTraitMFC_DLL@DV?$ChTraitsCRT@D@ATL@@@@@ATL@@QAE@XZ
  0148a	8d 8d 24 ff ff
	ff		 lea	 ecx, DWORD PTR _bojoInput$[ebp+12]
  01490	ff 15 00 00 00
	00		 call	 DWORD PTR __imp_??1?$CStringT@DV?$StrTraitMFC_DLL@DV?$ChTraitsCRT@D@ATL@@@@@ATL@@QAE@XZ
  01496	8d 8d 20 ff ff
	ff		 lea	 ecx, DWORD PTR _bojoInput$[ebp+8]
  0149c	ff 15 00 00 00
	00		 call	 DWORD PTR __imp_??1?$CStringT@DV?$StrTraitMFC_DLL@DV?$ChTraitsCRT@D@ATL@@@@@ATL@@QAE@XZ
  014a2	8d 8d 1c ff ff
	ff		 lea	 ecx, DWORD PTR _bojoInput$[ebp+4]
  014a8	ff 15 00 00 00
	00		 call	 DWORD PTR __imp_??1?$CStringT@DV?$StrTraitMFC_DLL@DV?$ChTraitsCRT@D@ATL@@@@@ATL@@QAE@XZ
  014ae	8d 8d f0 fe ff
	ff		 lea	 ecx, DWORD PTR _strCode$[ebp]
  014b4	ff 15 00 00 00
	00		 call	 DWORD PTR __imp_??1?$CStringT@DV?$StrTraitMFC_DLL@DV?$ChTraitsCRT@D@ATL@@@@@ATL@@QAE@XZ
  014ba	8d 8d 14 ff ff
	ff		 lea	 ecx, DWORD PTR _strNode$[ebp]
  014c0	ff 15 00 00 00
	00		 call	 DWORD PTR __imp_??1?$CStringT@DV?$StrTraitMFC_DLL@DV?$ChTraitsCRT@D@ATL@@@@@ATL@@QAE@XZ
  014c6	8d 8d 10 ff ff
	ff		 lea	 ecx, DWORD PTR _strSrc$[ebp]
  014cc	ff 15 00 00 00
	00		 call	 DWORD PTR __imp_??1?$CStringT@DV?$StrTraitMFC_DLL@DV?$ChTraitsCRT@D@ATL@@@@@ATL@@QAE@XZ
  014d2	8b 85 00 ff ff
	ff		 mov	 eax, DWORD PTR _pszBuff$1$[ebp]

; 938  : }

  014d8	8b 4d f4	 mov	 ecx, DWORD PTR __$EHRec$[ebp]
  014db	64 89 0d 00 00
	00 00		 mov	 DWORD PTR fs:0, ecx
  014e2	59		 pop	 ecx
  014e3	5f		 pop	 edi
  014e4	5e		 pop	 esi
  014e5	8b 4d f0	 mov	 ecx, DWORD PTR __$ArrayPad$[ebp]
  014e8	33 cd		 xor	 ecx, ebp
  014ea	e8 00 00 00 00	 call	 @__security_check_cookie@4
  014ef	8b e5		 mov	 esp, ebp
  014f1	5d		 pop	 ebp
  014f2	c2 10 00	 ret	 16			; 00000010H
$LN166@Convert2St:
  014f5	e8 00 00 00 00	 call	 ?AfxThrowInvalidArgException@@YGXXZ ; AfxThrowInvalidArgException
$LN470@Convert2St:
  014fa	cc		 int	 3
_TEXT	ENDS
;	COMDAT text$x
text$x	SEGMENT
__unwindfunclet$?Convert2Struct@CChartItemMarket@@QAEPADPAEHHAAH@Z$0:
  00000	8d 8d 10 ff ff
	ff		 lea	 ecx, DWORD PTR _strSrc$[ebp]
  00006	ff 25 00 00 00
	00		 jmp	 DWORD PTR __imp_??1?$CStringT@DV?$StrTraitMFC_DLL@DV?$ChTraitsCRT@D@ATL@@@@@ATL@@QAE@XZ
__unwindfunclet$?Convert2Struct@CChartItemMarket@@QAEPADPAEHHAAH@Z$1:
  0000c	8d 8d 14 ff ff
	ff		 lea	 ecx, DWORD PTR _strNode$[ebp]
  00012	ff 25 00 00 00
	00		 jmp	 DWORD PTR __imp_??1?$CStringT@DV?$StrTraitMFC_DLL@DV?$ChTraitsCRT@D@ATL@@@@@ATL@@QAE@XZ
__unwindfunclet$?Convert2Struct@CChartItemMarket@@QAEPADPAEHHAAH@Z$2:
  00018	8d 8d f0 fe ff
	ff		 lea	 ecx, DWORD PTR _strCode$[ebp]
  0001e	ff 25 00 00 00
	00		 jmp	 DWORD PTR __imp_??1?$CStringT@DV?$StrTraitMFC_DLL@DV?$ChTraitsCRT@D@ATL@@@@@ATL@@QAE@XZ
__unwindfunclet$?Convert2Struct@CChartItemMarket@@QAEPADPAEHHAAH@Z$3:
  00024	8d 8d 18 ff ff
	ff		 lea	 ecx, DWORD PTR _bojoInput$[ebp]
  0002a	e9 00 00 00 00	 jmp	 ??1CChartBozoInput@@QAE@XZ
__unwindfunclet$?Convert2Struct@CChartItemMarket@@QAEPADPAEHHAAH@Z$4:
  0002f	8d 8d 88 fe ff
	ff		 lea	 ecx, DWORD PTR _arrDate$[ebp]
  00035	e9 00 00 00 00	 jmp	 ??1CStringArray@@UAE@XZ	; CStringArray::~CStringArray
__unwindfunclet$?Convert2Struct@CChartItemMarket@@QAEPADPAEHHAAH@Z$5:
  0003a	8d 8d 9c fe ff
	ff		 lea	 ecx, DWORD PTR _arrSel1$[ebp]
  00040	e9 00 00 00 00	 jmp	 ??1CStringArray@@UAE@XZ	; CStringArray::~CStringArray
__unwindfunclet$?Convert2Struct@CChartItemMarket@@QAEPADPAEHHAAH@Z$6:
  00045	8d 8d 60 fe ff
	ff		 lea	 ecx, DWORD PTR _arrSel2$[ebp]
  0004b	e9 00 00 00 00	 jmp	 ??1CStringArray@@UAE@XZ	; CStringArray::~CStringArray
__unwindfunclet$?Convert2Struct@CChartItemMarket@@QAEPADPAEHHAAH@Z$7:
  00050	8d 8d 74 fe ff
	ff		 lea	 ecx, DWORD PTR _arrSel3$[ebp]
  00056	e9 00 00 00 00	 jmp	 ??1CStringArray@@UAE@XZ	; CStringArray::~CStringArray
__unwindfunclet$?Convert2Struct@CChartItemMarket@@QAEPADPAEHHAAH@Z$8:
  0005b	8d 8d fc fe ff
	ff		 lea	 ecx, DWORD PTR _strNm1$[ebp]
  00061	ff 25 00 00 00
	00		 jmp	 DWORD PTR __imp_??1?$CStringT@DV?$StrTraitMFC_DLL@DV?$ChTraitsCRT@D@ATL@@@@@ATL@@QAE@XZ
__unwindfunclet$?Convert2Struct@CChartItemMarket@@QAEPADPAEHHAAH@Z$9:
  00067	8d 8d e0 fe ff
	ff		 lea	 ecx, DWORD PTR _strNm2$[ebp]
  0006d	ff 25 00 00 00
	00		 jmp	 DWORD PTR __imp_??1?$CStringT@DV?$StrTraitMFC_DLL@DV?$ChTraitsCRT@D@ATL@@@@@ATL@@QAE@XZ
__unwindfunclet$?Convert2Struct@CChartItemMarket@@QAEPADPAEHHAAH@Z$10:
  00073	8d 8d b0 fe ff
	ff		 lea	 ecx, DWORD PTR _strNm3$[ebp]
  00079	ff 25 00 00 00
	00		 jmp	 DWORD PTR __imp_??1?$CStringT@DV?$StrTraitMFC_DLL@DV?$ChTraitsCRT@D@ATL@@@@@ATL@@QAE@XZ
__unwindfunclet$?Convert2Struct@CChartItemMarket@@QAEPADPAEHHAAH@Z$11:
  0007f	8d 8d b4 fe ff
	ff		 lea	 ecx, DWORD PTR _strNm4$[ebp]
  00085	ff 25 00 00 00
	00		 jmp	 DWORD PTR __imp_??1?$CStringT@DV?$StrTraitMFC_DLL@DV?$ChTraitsCRT@D@ATL@@@@@ATL@@QAE@XZ
__unwindfunclet$?Convert2Struct@CChartItemMarket@@QAEPADPAEHHAAH@Z$12:
  0008b	8d 8d 04 ff ff
	ff		 lea	 ecx, DWORD PTR _strDataNm$[ebp]
  00091	ff 25 00 00 00
	00		 jmp	 DWORD PTR __imp_??1?$CStringT@DV?$StrTraitMFC_DLL@DV?$ChTraitsCRT@D@ATL@@@@@ATL@@QAE@XZ
__unwindfunclet$?Convert2Struct@CChartItemMarket@@QAEPADPAEHHAAH@Z$13:
  00097	8d 8d e8 fe ff
	ff		 lea	 ecx, DWORD PTR _strData$[ebp]
  0009d	ff 25 00 00 00
	00		 jmp	 DWORD PTR __imp_??1?$CStringT@DV?$StrTraitMFC_DLL@DV?$ChTraitsCRT@D@ATL@@@@@ATL@@QAE@XZ
__unwindfunclet$?Convert2Struct@CChartItemMarket@@QAEPADPAEHHAAH@Z$14:
  000a3	8d 8d 0c ff ff
	ff		 lea	 ecx, DWORD PTR $T28[ebp]
  000a9	ff 25 00 00 00
	00		 jmp	 DWORD PTR __imp_??1?$CStringT@DV?$StrTraitMFC_DLL@DV?$ChTraitsCRT@D@ATL@@@@@ATL@@QAE@XZ
__unwindfunclet$?Convert2Struct@CChartItemMarket@@QAEPADPAEHHAAH@Z$15:
  000af	8d 8d 0c ff ff
	ff		 lea	 ecx, DWORD PTR $T27[ebp]
  000b5	ff 25 00 00 00
	00		 jmp	 DWORD PTR __imp_??1?$CStringT@DV?$StrTraitMFC_DLL@DV?$ChTraitsCRT@D@ATL@@@@@ATL@@QAE@XZ
__unwindfunclet$?Convert2Struct@CChartItemMarket@@QAEPADPAEHHAAH@Z$16:
  000bb	8d 8d 0c ff ff
	ff		 lea	 ecx, DWORD PTR $T26[ebp]
  000c1	ff 25 00 00 00
	00		 jmp	 DWORD PTR __imp_??1?$CStringT@DV?$StrTraitMFC_DLL@DV?$ChTraitsCRT@D@ATL@@@@@ATL@@QAE@XZ
__unwindfunclet$?Convert2Struct@CChartItemMarket@@QAEPADPAEHHAAH@Z$17:
  000c7	8d 8d 0c ff ff
	ff		 lea	 ecx, DWORD PTR $T25[ebp]
  000cd	ff 25 00 00 00
	00		 jmp	 DWORD PTR __imp_??1?$CStringT@DV?$StrTraitMFC_DLL@DV?$ChTraitsCRT@D@ATL@@@@@ATL@@QAE@XZ
__unwindfunclet$?Convert2Struct@CChartItemMarket@@QAEPADPAEHHAAH@Z$18:
  000d3	8d 8d 0c ff ff
	ff		 lea	 ecx, DWORD PTR $T24[ebp]
  000d9	ff 25 00 00 00
	00		 jmp	 DWORD PTR __imp_??1?$CStringT@DV?$StrTraitMFC_DLL@DV?$ChTraitsCRT@D@ATL@@@@@ATL@@QAE@XZ
__unwindfunclet$?Convert2Struct@CChartItemMarket@@QAEPADPAEHHAAH@Z$19:
  000df	8d 8d 0c ff ff
	ff		 lea	 ecx, DWORD PTR $T23[ebp]
  000e5	ff 25 00 00 00
	00		 jmp	 DWORD PTR __imp_??1?$CStringT@DV?$StrTraitMFC_DLL@DV?$ChTraitsCRT@D@ATL@@@@@ATL@@QAE@XZ
__unwindfunclet$?Convert2Struct@CChartItemMarket@@QAEPADPAEHHAAH@Z$20:
  000eb	8d 8d 0c ff ff
	ff		 lea	 ecx, DWORD PTR $T22[ebp]
  000f1	ff 25 00 00 00
	00		 jmp	 DWORD PTR __imp_??1?$CStringT@DV?$StrTraitMFC_DLL@DV?$ChTraitsCRT@D@ATL@@@@@ATL@@QAE@XZ
__unwindfunclet$?Convert2Struct@CChartItemMarket@@QAEPADPAEHHAAH@Z$22:
  000f7	8d 8d f8 fe ff
	ff		 lea	 ecx, DWORD PTR $T17[ebp]
  000fd	ff 25 00 00 00
	00		 jmp	 DWORD PTR __imp_??1?$CStringT@DV?$StrTraitMFC_DLL@DV?$ChTraitsCRT@D@ATL@@@@@ATL@@QAE@XZ
__unwindfunclet$?Convert2Struct@CChartItemMarket@@QAEPADPAEHHAAH@Z$24:
  00103	8d 8d 0c ff ff
	ff		 lea	 ecx, DWORD PTR _strNextKey$21[ebp]
  00109	ff 25 00 00 00
	00		 jmp	 DWORD PTR __imp_??1?$CStringT@DV?$StrTraitMFC_DLL@DV?$ChTraitsCRT@D@ATL@@@@@ATL@@QAE@XZ
__unwindfunclet$?Convert2Struct@CChartItemMarket@@QAEPADPAEHHAAH@Z$25:
  0010f	8d 8d f8 fe ff
	ff		 lea	 ecx, DWORD PTR $T16[ebp]
  00115	ff 25 00 00 00
	00		 jmp	 DWORD PTR __imp_??1?$CStringT@DV?$StrTraitMFC_DLL@DV?$ChTraitsCRT@D@ATL@@@@@ATL@@QAE@XZ
__unwindfunclet$?Convert2Struct@CChartItemMarket@@QAEPADPAEHHAAH@Z$27:
  0011b	8d 8d f8 fe ff
	ff		 lea	 ecx, DWORD PTR $T15[ebp]
  00121	ff 25 00 00 00
	00		 jmp	 DWORD PTR __imp_??1?$CStringT@DV?$StrTraitMFC_DLL@DV?$ChTraitsCRT@D@ATL@@@@@ATL@@QAE@XZ
__unwindfunclet$?Convert2Struct@CChartItemMarket@@QAEPADPAEHHAAH@Z$29:
  00127	8d 8d 08 ff ff
	ff		 lea	 ecx, DWORD PTR $T19[ebp]
  0012d	ff 25 00 00 00
	00		 jmp	 DWORD PTR __imp_??1?$CStringT@DV?$StrTraitMFC_DLL@DV?$ChTraitsCRT@D@ATL@@@@@ATL@@QAE@XZ
__unwindfunclet$?Convert2Struct@CChartItemMarket@@QAEPADPAEHHAAH@Z$30:
  00133	8d 8d ec fe ff
	ff		 lea	 ecx, DWORD PTR _strBozo$11[ebp]
  00139	ff 25 00 00 00
	00		 jmp	 DWORD PTR __imp_??1?$CStringT@DV?$StrTraitMFC_DLL@DV?$ChTraitsCRT@D@ATL@@@@@ATL@@QAE@XZ
__unwindfunclet$?Convert2Struct@CChartItemMarket@@QAEPADPAEHHAAH@Z$31:
  0013f	8d 8d c0 fe ff
	ff		 lea	 ecx, DWORD PTR _arr$5[ebp]
  00145	e9 00 00 00 00	 jmp	 ??1?$CList@PAVCChartBozoItem@@PAV1@@@UAE@XZ ; CList<CChartBozoItem *,CChartBozoItem *>::~CList<CChartBozoItem *,CChartBozoItem *>
__unwindfunclet$?Convert2Struct@CChartItemMarket@@QAEPADPAEHHAAH@Z$32:
  0014a	6a 0c		 push	 12			; 0000000cH
  0014c	8b 85 f4 fe ff
	ff		 mov	 eax, DWORD PTR $T12[ebp]
  00152	50		 push	 eax
  00153	e8 00 00 00 00	 call	 ??3@YAXPAXI@Z		; operator delete
  00158	83 c4 08	 add	 esp, 8
  0015b	c3		 ret	 0
__unwindfunclet$?Convert2Struct@CChartItemMarket@@QAEPADPAEHHAAH@Z$49:
  0015c	8b 8d f4 fe ff
	ff		 mov	 ecx, DWORD PTR $T12[ebp]
  00162	83 c1 04	 add	 ecx, 4
  00165	ff 25 00 00 00
	00		 jmp	 DWORD PTR __imp_??1?$CStringT@DV?$StrTraitMFC_DLL@DV?$ChTraitsCRT@D@ATL@@@@@ATL@@QAE@XZ
__unwindfunclet$?Convert2Struct@CChartItemMarket@@QAEPADPAEHHAAH@Z$50:
  0016b	8b 8d f4 fe ff
	ff		 mov	 ecx, DWORD PTR $T12[ebp]
  00171	83 c1 08	 add	 ecx, 8
  00174	ff 25 00 00 00
	00		 jmp	 DWORD PTR __imp_??1?$CStringT@DV?$StrTraitMFC_DLL@DV?$ChTraitsCRT@D@ATL@@@@@ATL@@QAE@XZ
__unwindfunclet$?Convert2Struct@CChartItemMarket@@QAEPADPAEHHAAH@Z$34:
  0017a	8d 8d ec fe ff
	ff		 lea	 ecx, DWORD PTR $T10[ebp]
  00180	ff 25 00 00 00
	00		 jmp	 DWORD PTR __imp_??1?$CStringT@DV?$StrTraitMFC_DLL@DV?$ChTraitsCRT@D@ATL@@@@@ATL@@QAE@XZ
__unwindfunclet$?Convert2Struct@CChartItemMarket@@QAEPADPAEHHAAH@Z$36:
  00186	8d 8d 0c ff ff
	ff		 lea	 ecx, DWORD PTR _strNextKey$20[ebp]
  0018c	ff 25 00 00 00
	00		 jmp	 DWORD PTR __imp_??1?$CStringT@DV?$StrTraitMFC_DLL@DV?$ChTraitsCRT@D@ATL@@@@@ATL@@QAE@XZ
__unwindfunclet$?Convert2Struct@CChartItemMarket@@QAEPADPAEHHAAH@Z$37:
  00192	8d 8d ec fe ff
	ff		 lea	 ecx, DWORD PTR $T9[ebp]
  00198	ff 25 00 00 00
	00		 jmp	 DWORD PTR __imp_??1?$CStringT@DV?$StrTraitMFC_DLL@DV?$ChTraitsCRT@D@ATL@@@@@ATL@@QAE@XZ
__unwindfunclet$?Convert2Struct@CChartItemMarket@@QAEPADPAEHHAAH@Z$39:
  0019e	8d 8d ec fe ff
	ff		 lea	 ecx, DWORD PTR $T8[ebp]
  001a4	ff 25 00 00 00
	00		 jmp	 DWORD PTR __imp_??1?$CStringT@DV?$StrTraitMFC_DLL@DV?$ChTraitsCRT@D@ATL@@@@@ATL@@QAE@XZ
__unwindfunclet$?Convert2Struct@CChartItemMarket@@QAEPADPAEHHAAH@Z$41:
  001aa	8d 8d f8 fe ff
	ff		 lea	 ecx, DWORD PTR $T14[ebp]
  001b0	ff 25 00 00 00
	00		 jmp	 DWORD PTR __imp_??1?$CStringT@DV?$StrTraitMFC_DLL@DV?$ChTraitsCRT@D@ATL@@@@@ATL@@QAE@XZ
__unwindfunclet$?Convert2Struct@CChartItemMarket@@QAEPADPAEHHAAH@Z$43:
  001b6	8d 8d 08 ff ff
	ff		 lea	 ecx, DWORD PTR $T18[ebp]
  001bc	ff 25 00 00 00
	00		 jmp	 DWORD PTR __imp_??1?$CStringT@DV?$StrTraitMFC_DLL@DV?$ChTraitsCRT@D@ATL@@@@@ATL@@QAE@XZ
__unwindfunclet$?Convert2Struct@CChartItemMarket@@QAEPADPAEHHAAH@Z$45:
  001c2	8d 8d b8 fe ff
	ff		 lea	 ecx, DWORD PTR $T3[ebp]
  001c8	ff 25 00 00 00
	00		 jmp	 DWORD PTR __imp_??1?$CStringT@DV?$StrTraitMFC_DLL@DV?$ChTraitsCRT@D@ATL@@@@@ATL@@QAE@XZ
__unwindfunclet$?Convert2Struct@CChartItemMarket@@QAEPADPAEHHAAH@Z$46:
  001ce	8d 8d e4 fe ff
	ff		 lea	 ecx, DWORD PTR _strBozo$7[ebp]
  001d4	ff 25 00 00 00
	00		 jmp	 DWORD PTR __imp_??1?$CStringT@DV?$StrTraitMFC_DLL@DV?$ChTraitsCRT@D@ATL@@@@@ATL@@QAE@XZ
__unwindfunclet$?Convert2Struct@CChartItemMarket@@QAEPADPAEHHAAH@Z$47:
  001da	8d 8d c0 fe ff
	ff		 lea	 ecx, DWORD PTR _arr$4[ebp]
  001e0	e9 00 00 00 00	 jmp	 ??1?$CList@PAVCChartBozoItem@@PAV1@@@UAE@XZ ; CList<CChartBozoItem *,CChartBozoItem *>::~CList<CChartBozoItem *,CChartBozoItem *>
__unwindfunclet$?Convert2Struct@CChartItemMarket@@QAEPADPAEHHAAH@Z$48:
  001e5	6a 0c		 push	 12			; 0000000cH
  001e7	8b 85 dc fe ff
	ff		 mov	 eax, DWORD PTR $T6[ebp]
  001ed	50		 push	 eax
  001ee	e8 00 00 00 00	 call	 ??3@YAXPAXI@Z		; operator delete
  001f3	83 c4 08	 add	 esp, 8
  001f6	c3		 ret	 0
__unwindfunclet$?Convert2Struct@CChartItemMarket@@QAEPADPAEHHAAH@Z$53:
  001f7	8b 8d dc fe ff
	ff		 mov	 ecx, DWORD PTR $T6[ebp]
  001fd	83 c1 04	 add	 ecx, 4
  00200	ff 25 00 00 00
	00		 jmp	 DWORD PTR __imp_??1?$CStringT@DV?$StrTraitMFC_DLL@DV?$ChTraitsCRT@D@ATL@@@@@ATL@@QAE@XZ
__unwindfunclet$?Convert2Struct@CChartItemMarket@@QAEPADPAEHHAAH@Z$54:
  00206	8b 8d dc fe ff
	ff		 mov	 ecx, DWORD PTR $T6[ebp]
  0020c	83 c1 08	 add	 ecx, 8
  0020f	ff 25 00 00 00
	00		 jmp	 DWORD PTR __imp_??1?$CStringT@DV?$StrTraitMFC_DLL@DV?$ChTraitsCRT@D@ATL@@@@@ATL@@QAE@XZ
  00215	cc		 int	 3
  00216	cc		 int	 3
  00217	cc		 int	 3
  00218	cc		 int	 3
  00219	cc		 int	 3
__ehhandler$?Convert2Struct@CChartItemMarket@@QAEPADPAEHHAAH@Z:
  0021a	90		 npad	 1
  0021b	90		 npad	 1
  0021c	8b 54 24 08	 mov	 edx, DWORD PTR [esp+8]
  00220	8d 42 0c	 lea	 eax, DWORD PTR [edx+12]
  00223	8b 8a 60 fe ff
	ff		 mov	 ecx, DWORD PTR [edx-416]
  00229	33 c8		 xor	 ecx, eax
  0022b	e8 00 00 00 00	 call	 @__security_check_cookie@4
  00230	8b 4a fc	 mov	 ecx, DWORD PTR [edx-4]
  00233	33 c8		 xor	 ecx, eax
  00235	e8 00 00 00 00	 call	 @__security_check_cookie@4
  0023a	b8 00 00 00 00	 mov	 eax, OFFSET __ehfuncinfo$?Convert2Struct@CChartItemMarket@@QAEPADPAEHHAAH@Z
  0023f	e9 00 00 00 00	 jmp	 ___CxxFrameHandler3
text$x	ENDS
?Convert2Struct@CChartItemMarket@@QAEPADPAEHHAAH@Z ENDP	; CChartItemMarket::Convert2Struct
; Function compile flags: /Ogtp
; File D:\git\src\IBK\IBK_DRFN\ProjSrc\SrcDrfn\DrCommon\PartnerMng\ChartItemMarket.cpp
;	COMDAT ?Convert@CChartItemMarket@@QAE?AV?$CStringT@DV?$StrTraitMFC_DLL@DV?$ChTraitsCRT@D@ATL@@@@@ATL@@XZ
_TEXT	SEGMENT
_grid_i$ = -284						; size = 110
_this$GSCopy$1$ = -172					; size = 4
___$ReturnUdt$GSCopy$ = -168				; size = 4
$T2 = -168						; size = 4
___$ReturnUdt$GSCopy$1$ = -164				; size = 4
_strTemp$ = -160					; size = 4
_strGrid$ = -156					; size = 4
_szGrid_i$ = -152					; size = 128
_szTemp$ = -24						; size = 5
__$ArrayPad$ = -16					; size = 4
__$EHRec$ = -12						; size = 12
___$ReturnUdt$ = 8					; size = 4
?Convert@CChartItemMarket@@QAE?AV?$CStringT@DV?$StrTraitMFC_DLL@DV?$ChTraitsCRT@D@ATL@@@@@ATL@@XZ PROC ; CChartItemMarket::Convert, COMDAT
; _this$ = ecx

; 171  : {

  00000	55		 push	 ebp
  00001	8b ec		 mov	 ebp, esp
  00003	6a ff		 push	 -1
  00005	68 00 00 00 00	 push	 __ehhandler$?Convert@CChartItemMarket@@QAE?AV?$CStringT@DV?$StrTraitMFC_DLL@DV?$ChTraitsCRT@D@ATL@@@@@ATL@@XZ
  0000a	64 a1 00 00 00
	00		 mov	 eax, DWORD PTR fs:0
  00010	50		 push	 eax
  00011	81 ec 10 01 00
	00		 sub	 esp, 272		; 00000110H
  00017	a1 00 00 00 00	 mov	 eax, DWORD PTR ___security_cookie
  0001c	33 c5		 xor	 eax, ebp
  0001e	89 45 f0	 mov	 DWORD PTR __$ArrayPad$[ebp], eax
  00021	56		 push	 esi
  00022	57		 push	 edi
  00023	50		 push	 eax
  00024	8d 45 f4	 lea	 eax, DWORD PTR __$EHRec$[ebp]
  00027	64 a3 00 00 00
	00		 mov	 DWORD PTR fs:0, eax
  0002d	8b f9		 mov	 edi, ecx
  0002f	89 bd 54 ff ff
	ff		 mov	 DWORD PTR _this$GSCopy$1$[ebp], edi
  00035	8b 75 08	 mov	 esi, DWORD PTR ___$ReturnUdt$[ebp]
  00038	89 b5 58 ff ff
	ff		 mov	 DWORD PTR ___$ReturnUdt$GSCopy$[ebp], esi

; 172  : 	if (!m_bSet) return "";

  0003e	80 7f 04 00	 cmp	 BYTE PTR [edi+4], 0
  00042	89 b5 5c ff ff
	ff		 mov	 DWORD PTR ___$ReturnUdt$GSCopy$1$[ebp], esi
  00048	75 12		 jne	 SHORT $LN2@Convert
  0004a	68 00 00 00 00	 push	 OFFSET ??_C@_00CNPNBAHC@@
  0004f	8b ce		 mov	 ecx, esi
  00051	ff 15 00 00 00
	00		 call	 DWORD PTR __imp_??0?$CStringT@DV?$StrTraitMFC_DLL@DV?$ChTraitsCRT@D@ATL@@@@@ATL@@QAE@PBD@Z
  00057	e9 c4 01 00 00	 jmp	 $LN16@Convert
$LN2@Convert:

; 173  : 
; 174  : 	CString strTemp, strGrid;

  0005c	8d 8d 60 ff ff
	ff		 lea	 ecx, DWORD PTR _strTemp$[ebp]
  00062	ff 15 00 00 00
	00		 call	 DWORD PTR __imp_??0?$CStringT@DV?$StrTraitMFC_DLL@DV?$ChTraitsCRT@D@ATL@@@@@ATL@@QAE@XZ
  00068	8d 8d 64 ff ff
	ff		 lea	 ecx, DWORD PTR _strGrid$[ebp]
  0006e	c7 45 fc 00 00
	00 00		 mov	 DWORD PTR __$EHRec$[ebp+8], 0
  00075	ff 15 00 00 00
	00		 call	 DWORD PTR __imp_??0?$CStringT@DV?$StrTraitMFC_DLL@DV?$ChTraitsCRT@D@ATL@@@@@ATL@@QAE@XZ

; 175  : 	int nCount;
; 176  : 
; 177  : 	strTemp = CString(m_InData.num, sizeof(m_InData.num));

  0007b	6a 04		 push	 4
  0007d	8d 47 1e	 lea	 eax, DWORD PTR [edi+30]
  00080	c6 45 fc 01	 mov	 BYTE PTR __$EHRec$[ebp+8], 1
  00084	50		 push	 eax
  00085	8d 8d 58 ff ff
	ff		 lea	 ecx, DWORD PTR $T2[ebp]
  0008b	ff 15 00 00 00
	00		 call	 DWORD PTR __imp_??0?$CStringT@DV?$StrTraitMFC_DLL@DV?$ChTraitsCRT@D@ATL@@@@@ATL@@QAE@PBDH@Z
  00091	50		 push	 eax
  00092	8d 8d 60 ff ff
	ff		 lea	 ecx, DWORD PTR _strTemp$[ebp]
  00098	c6 45 fc 02	 mov	 BYTE PTR __$EHRec$[ebp+8], 2
  0009c	ff 15 00 00 00
	00		 call	 DWORD PTR __imp_??4?$CStringT@DV?$StrTraitMFC_DLL@DV?$ChTraitsCRT@D@ATL@@@@@ATL@@QAEAAV01@ABV01@@Z
  000a2	8d 8d 58 ff ff
	ff		 lea	 ecx, DWORD PTR $T2[ebp]
  000a8	c6 45 fc 01	 mov	 BYTE PTR __$EHRec$[ebp+8], 1
  000ac	ff 15 00 00 00
	00		 call	 DWORD PTR __imp_??1?$CStringT@DV?$StrTraitMFC_DLL@DV?$ChTraitsCRT@D@ATL@@@@@ATL@@QAE@XZ

; 178  : 	nCount = atoi(strTemp);

  000b2	ff b5 60 ff ff
	ff		 push	 DWORD PTR _strTemp$[ebp]
  000b8	ff 15 00 00 00
	00		 call	 DWORD PTR __imp__atoi

; 179  : 
; 180  : 	//////////////////////////////////////////////////////////////////////////
; 181  : 	//  
; 182  : 	GRID_I grid_i;
; 183  : 	memset(&grid_i, 0x20, sizeof(grid_i));
; 184  : 
; 185  : 	char szTemp[5];
; 186  : 	grid_i.gdir[0] = _T('1');	//	top.
; 187  : 	if (m_InData.nxtGb[0] == '1')	grid_i.ikey[0] = _T('2');	//	Page Down

  000be	80 bf 87 00 00
	00 31		 cmp	 BYTE PTR [edi+135], 49	; 00000031H
  000c5	0f 28 05 00 00
	00 00		 movaps	 xmm0, XMMWORD PTR __xmm@20202020202020202020202020202020
  000cc	0f 94 c1	 sete	 cl
  000cf	66 c7 85 eb fe
	ff ff 31 31	 mov	 WORD PTR _grid_i$[ebp+7], 12593 ; 00003131H

; 188  : 	else							grid_i.ikey[0] = _T('0');	//	(Next).
; 189  : 
; 190  : 	sprintf(szTemp, _T("%04d"), nCount);	//   

  000d8	50		 push	 eax
  000d9	8d 45 e8	 lea	 eax, DWORD PTR _szTemp$[ebp]
  000dc	68 00 00 00 00	 push	 OFFSET ??_C@_04OCCELDNI@?$CF04d@
  000e1	8d 0c 4d 30 00
	00 00		 lea	 ecx, DWORD PTR [ecx*2+48]
  000e8	50		 push	 eax
  000e9	0f 11 85 ed fe
	ff ff		 movups	 XMMWORD PTR _grid_i$[ebp+9], xmm0
  000f0	88 8d fd fe ff
	ff		 mov	 BYTE PTR _grid_i$[ebp+25], cl
  000f6	e8 00 00 00 00	 call	 _sprintf

; 191  : 	memcpy(grid_i.nrow, szTemp, sizeof(grid_i.nrow));
; 192  : 	memcpy(grid_i.page, m_InData.nxtKey, 4);
; 193  : 	memcpy(grid_i.save, m_InData.nxtKey+4, sizeof(grid_i.save));

  000fb	0f 10 87 8c 00
	00 00		 movups	 xmm0, XMMWORD PTR [edi+140]
  00102	8b 45 e8	 mov	 eax, DWORD PTR _szTemp$[ebp]

; 194  : 
; 195  : 	grid_i.sdir[0] = _T('1');
; 196  : 	grid_i.vflg[0] = _T('1');
; 197  : 	memcpy(grid_i.vrow, _T("999"), sizeof(grid_i.vrow));
; 198  : 
; 199  : 	char szGrid_i[128];
; 200  : 	memset(szGrid_i, 0x00, sizeof(szGrid_i));
; 201  : 	memcpy(szGrid_i, (char*)&grid_i, sizeof(grid_i));

  00105	8d b5 e4 fe ff
	ff		 lea	 esi, DWORD PTR _grid_i$[ebp]
  0010b	89 85 e6 fe ff
	ff		 mov	 DWORD PTR _grid_i$[ebp+2], eax
  00111	b9 1b 00 00 00	 mov	 ecx, 27			; 0000001bH
  00116	8b 87 88 00 00
	00		 mov	 eax, DWORD PTR [edi+136]
  0011c	0f 11 85 02 ff
	ff ff		 movups	 XMMWORD PTR _grid_i$[ebp+30], xmm0
  00123	89 85 fe fe ff
	ff		 mov	 DWORD PTR _grid_i$[ebp+26], eax
  00129	b8 39 39 00 00	 mov	 eax, 14649		; 00003939H
  0012e	0f 10 87 9c 00
	00 00		 movups	 xmm0, XMMWORD PTR [edi+156]
  00135	66 89 85 e4 fe
	ff ff		 mov	 WORD PTR _grid_i$[ebp], ax

; 202  : 
; 203  : 	strGrid.Format(_T("%s"), szGrid_i);

  0013c	8d 85 68 ff ff
	ff		 lea	 eax, DWORD PTR _szGrid_i$[ebp]
  00142	66 c7 45 e6 00
	00		 mov	 WORD PTR _szGrid_i$[ebp+126], 0
  00148	0f 11 85 12 ff
	ff ff		 movups	 XMMWORD PTR _grid_i$[ebp+46], xmm0
  0014f	c6 85 ea fe ff
	ff 31		 mov	 BYTE PTR _grid_i$[ebp+6], 49 ; 00000031H
  00156	0f 10 87 ac 00
	00 00		 movups	 xmm0, XMMWORD PTR [edi+172]
  0015d	50		 push	 eax
  0015e	8d 85 64 ff ff
	ff		 lea	 eax, DWORD PTR _strGrid$[ebp]
  00164	0f 11 85 22 ff
	ff ff		 movups	 XMMWORD PTR _grid_i$[ebp+62], xmm0
  0016b	68 00 00 00 00	 push	 OFFSET ??_C@_02DKCKIIND@?$CFs@
  00170	0f 10 87 bc 00
	00 00		 movups	 xmm0, XMMWORD PTR [edi+188]
  00177	50		 push	 eax
  00178	0f 11 85 32 ff
	ff ff		 movups	 XMMWORD PTR _grid_i$[ebp+78], xmm0
  0017f	0f 10 87 cc 00
	00 00		 movups	 xmm0, XMMWORD PTR [edi+204]
  00186	8d bd 68 ff ff
	ff		 lea	 edi, DWORD PTR _szGrid_i$[ebp]
  0018c	0f 11 85 42 ff
	ff ff		 movups	 XMMWORD PTR _grid_i$[ebp+94], xmm0
  00193	0f 57 c0	 xorps	 xmm0, xmm0
  00196	0f 11 45 d6	 movups	 XMMWORD PTR _szGrid_i$[ebp+110], xmm0
  0019a	f3 a5		 rep movsd
  0019c	66 a5		 movsw
  0019e	ff 15 00 00 00
	00		 call	 DWORD PTR __imp_?Format@?$CStringT@DV?$StrTraitMFC_DLL@DV?$ChTraitsCRT@D@ATL@@@@@ATL@@QAAXPBDZZ

; 204  : 	//////////////////////////////////////////////////////////////////////////
; 205  : 
; 206  : 	int nDataType = GetSendDataType();

  001a4	8b bd 54 ff ff
	ff		 mov	 edi, DWORD PTR _this$GSCopy$1$[ebp]
  001aa	83 c4 1c	 add	 esp, 28			; 0000001cH
  001ad	8b cf		 mov	 ecx, edi
  001af	e8 00 00 00 00	 call	 ?GetSendDataType@CChartItemMarket@@QAEHXZ ; CChartItemMarket::GetSendDataType

; 207  : 
; 208  : 	if (nDataType < 0)

  001b4	85 c0		 test	 eax, eax
  001b6	79 31		 jns	 SHORT $LN5@Convert

; 209  : 		return _T("");

  001b8	8b 8d 5c ff ff
	ff		 mov	 ecx, DWORD PTR ___$ReturnUdt$GSCopy$1$[ebp]
  001be	68 00 00 00 00	 push	 OFFSET ??_C@_00CNPNBAHC@@
  001c3	ff 15 00 00 00
	00		 call	 DWORD PTR __imp_??0?$CStringT@DV?$StrTraitMFC_DLL@DV?$ChTraitsCRT@D@ATL@@@@@ATL@@QAE@PBD@Z
  001c9	8d 8d 64 ff ff
	ff		 lea	 ecx, DWORD PTR _strGrid$[ebp]
  001cf	ff 15 00 00 00
	00		 call	 DWORD PTR __imp_??1?$CStringT@DV?$StrTraitMFC_DLL@DV?$ChTraitsCRT@D@ATL@@@@@ATL@@QAE@XZ
  001d5	8d 8d 60 ff ff
	ff		 lea	 ecx, DWORD PTR _strTemp$[ebp]
  001db	ff 15 00 00 00
	00		 call	 DWORD PTR __imp_??1?$CStringT@DV?$StrTraitMFC_DLL@DV?$ChTraitsCRT@D@ATL@@@@@ATL@@QAE@XZ
  001e1	8b 85 5c ff ff
	ff		 mov	 eax, DWORD PTR ___$ReturnUdt$GSCopy$1$[ebp]
  001e7	eb 39		 jmp	 SHORT $LN1@Convert
$LN5@Convert:

; 210  : 
; 211  : 	return fnStructType1(strGrid, nDataType);

  001e9	50		 push	 eax
  001ea	51		 push	 ecx
  001eb	8d 85 64 ff ff
	ff		 lea	 eax, DWORD PTR _strGrid$[ebp]
  001f1	8b cc		 mov	 ecx, esp
  001f3	50		 push	 eax
  001f4	ff 15 00 00 00
	00		 call	 DWORD PTR __imp_??0?$CStringT@DV?$StrTraitMFC_DLL@DV?$ChTraitsCRT@D@ATL@@@@@ATL@@QAE@ABV01@@Z
  001fa	8b b5 5c ff ff
	ff		 mov	 esi, DWORD PTR ___$ReturnUdt$GSCopy$1$[ebp]
  00200	8b cf		 mov	 ecx, edi
  00202	56		 push	 esi
  00203	e8 00 00 00 00	 call	 ?fnStructType1@CChartItemMarket@@QAE?AV?$CStringT@DV?$StrTraitMFC_DLL@DV?$ChTraitsCRT@D@ATL@@@@@ATL@@V23@H@Z ; CChartItemMarket::fnStructType1
  00208	8d 8d 64 ff ff
	ff		 lea	 ecx, DWORD PTR _strGrid$[ebp]
  0020e	ff 15 00 00 00
	00		 call	 DWORD PTR __imp_??1?$CStringT@DV?$StrTraitMFC_DLL@DV?$ChTraitsCRT@D@ATL@@@@@ATL@@QAE@XZ
  00214	8d 8d 60 ff ff
	ff		 lea	 ecx, DWORD PTR _strTemp$[ebp]
  0021a	ff 15 00 00 00
	00		 call	 DWORD PTR __imp_??1?$CStringT@DV?$StrTraitMFC_DLL@DV?$ChTraitsCRT@D@ATL@@@@@ATL@@QAE@XZ
$LN16@Convert:

; 212  : /*
; 213  : 	if (nDataType < TRKEY_STRMARKET_10)//KHD :  
; 214  : 		return fnStructType1(strGrid, nDataType);
; 215  : 	else
; 216  : 		return fnStructType2(strGrid, nDataType);
; 217  : */
; 218  : }

  00220	8b c6		 mov	 eax, esi
$LN1@Convert:
  00222	8b 4d f4	 mov	 ecx, DWORD PTR __$EHRec$[ebp]
  00225	64 89 0d 00 00
	00 00		 mov	 DWORD PTR fs:0, ecx
  0022c	59		 pop	 ecx
  0022d	5f		 pop	 edi
  0022e	5e		 pop	 esi
  0022f	8b 4d f0	 mov	 ecx, DWORD PTR __$ArrayPad$[ebp]
  00232	33 cd		 xor	 ecx, ebp
  00234	e8 00 00 00 00	 call	 @__security_check_cookie@4
  00239	8b e5		 mov	 esp, ebp
  0023b	5d		 pop	 ebp
  0023c	c2 04 00	 ret	 4
_TEXT	ENDS
;	COMDAT text$x
text$x	SEGMENT
__unwindfunclet$?Convert@CChartItemMarket@@QAE?AV?$CStringT@DV?$StrTraitMFC_DLL@DV?$ChTraitsCRT@D@ATL@@@@@ATL@@XZ$1:
  00000	8d 8d 60 ff ff
	ff		 lea	 ecx, DWORD PTR _strTemp$[ebp]
  00006	ff 25 00 00 00
	00		 jmp	 DWORD PTR __imp_??1?$CStringT@DV?$StrTraitMFC_DLL@DV?$ChTraitsCRT@D@ATL@@@@@ATL@@QAE@XZ
__unwindfunclet$?Convert@CChartItemMarket@@QAE?AV?$CStringT@DV?$StrTraitMFC_DLL@DV?$ChTraitsCRT@D@ATL@@@@@ATL@@XZ$2:
  0000c	8d 8d 64 ff ff
	ff		 lea	 ecx, DWORD PTR _strGrid$[ebp]
  00012	ff 25 00 00 00
	00		 jmp	 DWORD PTR __imp_??1?$CStringT@DV?$StrTraitMFC_DLL@DV?$ChTraitsCRT@D@ATL@@@@@ATL@@QAE@XZ
__unwindfunclet$?Convert@CChartItemMarket@@QAE?AV?$CStringT@DV?$StrTraitMFC_DLL@DV?$ChTraitsCRT@D@ATL@@@@@ATL@@XZ$3:
  00018	8d 8d 58 ff ff
	ff		 lea	 ecx, DWORD PTR $T2[ebp]
  0001e	ff 25 00 00 00
	00		 jmp	 DWORD PTR __imp_??1?$CStringT@DV?$StrTraitMFC_DLL@DV?$ChTraitsCRT@D@ATL@@@@@ATL@@QAE@XZ
  00024	cc		 int	 3
  00025	cc		 int	 3
  00026	cc		 int	 3
  00027	cc		 int	 3
  00028	cc		 int	 3
__ehhandler$?Convert@CChartItemMarket@@QAE?AV?$CStringT@DV?$StrTraitMFC_DLL@DV?$ChTraitsCRT@D@ATL@@@@@ATL@@XZ:
  00029	90		 npad	 1
  0002a	90		 npad	 1
  0002b	8b 54 24 08	 mov	 edx, DWORD PTR [esp+8]
  0002f	8d 42 0c	 lea	 eax, DWORD PTR [edx+12]
  00032	8b 8a e4 fe ff
	ff		 mov	 ecx, DWORD PTR [edx-284]
  00038	33 c8		 xor	 ecx, eax
  0003a	e8 00 00 00 00	 call	 @__security_check_cookie@4
  0003f	8b 4a fc	 mov	 ecx, DWORD PTR [edx-4]
  00042	33 c8		 xor	 ecx, eax
  00044	e8 00 00 00 00	 call	 @__security_check_cookie@4
  00049	b8 00 00 00 00	 mov	 eax, OFFSET __ehfuncinfo$?Convert@CChartItemMarket@@QAE?AV?$CStringT@DV?$StrTraitMFC_DLL@DV?$ChTraitsCRT@D@ATL@@@@@ATL@@XZ
  0004e	e9 00 00 00 00	 jmp	 ___CxxFrameHandler3
text$x	ENDS
?Convert@CChartItemMarket@@QAE?AV?$CStringT@DV?$StrTraitMFC_DLL@DV?$ChTraitsCRT@D@ATL@@@@@ATL@@XZ ENDP ; CChartItemMarket::Convert
; Function compile flags: /Ogtp
; File D:\git\src\IBK\IBK_DRFN\ProjSrc\SrcDrfn\DrCommon\PartnerMng\ChartItemMarket.cpp
;	COMDAT ?SetInData@CChartItemMarket@@QAEXPAUKB_d1015_InRec1@@@Z
_TEXT	SEGMENT
_pData$ = 8						; size = 4
?SetInData@CChartItemMarket@@QAEXPAUKB_d1015_InRec1@@@Z PROC ; CChartItemMarket::SetInData, COMDAT
; _this$ = ecx

; 52   : {

  00000	55		 push	 ebp
  00001	8b ec		 mov	 ebp, esp
  00003	56		 push	 esi

; 53   : 	memcpy(&m_InData, pData, sizeof(KB_d1015_InRec1));

  00004	8b 75 08	 mov	 esi, DWORD PTR _pData$[ebp]
  00007	8b c1		 mov	 eax, ecx
  00009	57		 push	 edi
  0000a	b9 36 00 00 00	 mov	 ecx, 54			; 00000036H
  0000f	8d 78 05	 lea	 edi, DWORD PTR [eax+5]
  00012	f3 a5		 rep movsd
  00014	66 a5		 movsw
  00016	a4		 movsb

; 54   : 
; 55   : 	m_bSet = TRUE;

  00017	5f		 pop	 edi
  00018	c6 40 04 01	 mov	 BYTE PTR [eax+4], 1
  0001c	5e		 pop	 esi

; 56   : }

  0001d	5d		 pop	 ebp
  0001e	c2 04 00	 ret	 4
?SetInData@CChartItemMarket@@QAEXPAUKB_d1015_InRec1@@@Z ENDP ; CChartItemMarket::SetInData
_TEXT	ENDS
; Function compile flags: /Ogtp
; File D:\git\src\IBK\IBK_DRFN\ProjSrc\SrcDrfn\DrCommon\PartnerMng\ChartItemMarket.cpp
;	COMDAT ??1CChartItemMarket@@UAE@XZ
_TEXT	SEGMENT
??1CChartItemMarket@@UAE@XZ PROC			; CChartItemMarket::~CChartItemMarket, COMDAT
; _this$ = ecx

; 47   : {

  00000	c7 01 00 00 00
	00		 mov	 DWORD PTR [ecx], OFFSET ??_7CChartItemMarket@@6B@

; 48   : 
; 49   : }

  00006	c3		 ret	 0
??1CChartItemMarket@@UAE@XZ ENDP			; CChartItemMarket::~CChartItemMarket
_TEXT	ENDS
; Function compile flags: /Ogtp
; File D:\git\src\IBK\IBK_DRFN\ProjSrc\SrcDrfn\DrCommon\PartnerMng\ChartItemMarket.cpp
;	COMDAT ??0CChartItemMarket@@QAE@XZ
_TEXT	SEGMENT
??0CChartItemMarket@@QAE@XZ PROC			; CChartItemMarket::CChartItemMarket, COMDAT
; _this$ = ecx

; 42   : {

  00000	c7 01 00 00 00
	00		 mov	 DWORD PTR [ecx], OFFSET ??_7CChartItemMarket@@6B@

; 43   : 	m_bSet = FALSE;
; 44   : }

  00006	8b c1		 mov	 eax, ecx
  00008	c6 41 04 00	 mov	 BYTE PTR [ecx+4], 0
  0000c	c3		 ret	 0
??0CChartItemMarket@@QAE@XZ ENDP			; CChartItemMarket::CChartItemMarket
_TEXT	ENDS
; Function compile flags: /Ogtp
;	COMDAT ??1CChartBozoInput@@QAE@XZ
_TEXT	SEGMENT
??1CChartBozoInput@@QAE@XZ PROC				; CChartBozoInput::~CChartBozoInput, COMDAT
; _this$ = ecx
  00000	56		 push	 esi
  00001	8b f1		 mov	 esi, ecx
  00003	8d 8e c0 00 00
	00		 lea	 ecx, DWORD PTR [esi+192]
  00009	ff 15 00 00 00
	00		 call	 DWORD PTR __imp_??1?$CStringT@DV?$StrTraitMFC_DLL@DV?$ChTraitsCRT@D@ATL@@@@@ATL@@QAE@XZ
  0000f	8d 4e 64	 lea	 ecx, DWORD PTR [esi+100]
  00012	ff 15 00 00 00
	00		 call	 DWORD PTR __imp_??1?$CStringT@DV?$StrTraitMFC_DLL@DV?$ChTraitsCRT@D@ATL@@@@@ATL@@QAE@XZ
  00018	8d 4e 60	 lea	 ecx, DWORD PTR [esi+96]
  0001b	ff 15 00 00 00
	00		 call	 DWORD PTR __imp_??1?$CStringT@DV?$StrTraitMFC_DLL@DV?$ChTraitsCRT@D@ATL@@@@@ATL@@QAE@XZ
  00021	8d 4e 5c	 lea	 ecx, DWORD PTR [esi+92]
  00024	ff 15 00 00 00
	00		 call	 DWORD PTR __imp_??1?$CStringT@DV?$StrTraitMFC_DLL@DV?$ChTraitsCRT@D@ATL@@@@@ATL@@QAE@XZ
  0002a	8d 4e 58	 lea	 ecx, DWORD PTR [esi+88]
  0002d	ff 15 00 00 00
	00		 call	 DWORD PTR __imp_??1?$CStringT@DV?$StrTraitMFC_DLL@DV?$ChTraitsCRT@D@ATL@@@@@ATL@@QAE@XZ
  00033	8d 4e 54	 lea	 ecx, DWORD PTR [esi+84]
  00036	ff 15 00 00 00
	00		 call	 DWORD PTR __imp_??1?$CStringT@DV?$StrTraitMFC_DLL@DV?$ChTraitsCRT@D@ATL@@@@@ATL@@QAE@XZ
  0003c	8d 4e 50	 lea	 ecx, DWORD PTR [esi+80]
  0003f	ff 15 00 00 00
	00		 call	 DWORD PTR __imp_??1?$CStringT@DV?$StrTraitMFC_DLL@DV?$ChTraitsCRT@D@ATL@@@@@ATL@@QAE@XZ
  00045	8d 4e 4c	 lea	 ecx, DWORD PTR [esi+76]
  00048	ff 15 00 00 00
	00		 call	 DWORD PTR __imp_??1?$CStringT@DV?$StrTraitMFC_DLL@DV?$ChTraitsCRT@D@ATL@@@@@ATL@@QAE@XZ
  0004e	8d 4e 48	 lea	 ecx, DWORD PTR [esi+72]
  00051	ff 15 00 00 00
	00		 call	 DWORD PTR __imp_??1?$CStringT@DV?$StrTraitMFC_DLL@DV?$ChTraitsCRT@D@ATL@@@@@ATL@@QAE@XZ
  00057	8d 4e 44	 lea	 ecx, DWORD PTR [esi+68]
  0005a	ff 15 00 00 00
	00		 call	 DWORD PTR __imp_??1?$CStringT@DV?$StrTraitMFC_DLL@DV?$ChTraitsCRT@D@ATL@@@@@ATL@@QAE@XZ
  00060	8d 4e 40	 lea	 ecx, DWORD PTR [esi+64]
  00063	ff 15 00 00 00
	00		 call	 DWORD PTR __imp_??1?$CStringT@DV?$StrTraitMFC_DLL@DV?$ChTraitsCRT@D@ATL@@@@@ATL@@QAE@XZ
  00069	8d 4e 3c	 lea	 ecx, DWORD PTR [esi+60]
  0006c	ff 15 00 00 00
	00		 call	 DWORD PTR __imp_??1?$CStringT@DV?$StrTraitMFC_DLL@DV?$ChTraitsCRT@D@ATL@@@@@ATL@@QAE@XZ
  00072	8d 4e 38	 lea	 ecx, DWORD PTR [esi+56]
  00075	ff 15 00 00 00
	00		 call	 DWORD PTR __imp_??1?$CStringT@DV?$StrTraitMFC_DLL@DV?$ChTraitsCRT@D@ATL@@@@@ATL@@QAE@XZ
  0007b	8d 4e 34	 lea	 ecx, DWORD PTR [esi+52]
  0007e	ff 15 00 00 00
	00		 call	 DWORD PTR __imp_??1?$CStringT@DV?$StrTraitMFC_DLL@DV?$ChTraitsCRT@D@ATL@@@@@ATL@@QAE@XZ
  00084	8d 4e 30	 lea	 ecx, DWORD PTR [esi+48]
  00087	ff 15 00 00 00
	00		 call	 DWORD PTR __imp_??1?$CStringT@DV?$StrTraitMFC_DLL@DV?$ChTraitsCRT@D@ATL@@@@@ATL@@QAE@XZ
  0008d	8d 4e 2c	 lea	 ecx, DWORD PTR [esi+44]
  00090	ff 15 00 00 00
	00		 call	 DWORD PTR __imp_??1?$CStringT@DV?$StrTraitMFC_DLL@DV?$ChTraitsCRT@D@ATL@@@@@ATL@@QAE@XZ
  00096	8d 4e 28	 lea	 ecx, DWORD PTR [esi+40]
  00099	ff 15 00 00 00
	00		 call	 DWORD PTR __imp_??1?$CStringT@DV?$StrTraitMFC_DLL@DV?$ChTraitsCRT@D@ATL@@@@@ATL@@QAE@XZ
  0009f	8d 4e 24	 lea	 ecx, DWORD PTR [esi+36]
  000a2	ff 15 00 00 00
	00		 call	 DWORD PTR __imp_??1?$CStringT@DV?$StrTraitMFC_DLL@DV?$ChTraitsCRT@D@ATL@@@@@ATL@@QAE@XZ
  000a8	8d 4e 20	 lea	 ecx, DWORD PTR [esi+32]
  000ab	ff 15 00 00 00
	00		 call	 DWORD PTR __imp_??1?$CStringT@DV?$StrTraitMFC_DLL@DV?$ChTraitsCRT@D@ATL@@@@@ATL@@QAE@XZ
  000b1	8d 4e 1c	 lea	 ecx, DWORD PTR [esi+28]
  000b4	ff 15 00 00 00
	00		 call	 DWORD PTR __imp_??1?$CStringT@DV?$StrTraitMFC_DLL@DV?$ChTraitsCRT@D@ATL@@@@@ATL@@QAE@XZ
  000ba	8d 4e 18	 lea	 ecx, DWORD PTR [esi+24]
  000bd	ff 15 00 00 00
	00		 call	 DWORD PTR __imp_??1?$CStringT@DV?$StrTraitMFC_DLL@DV?$ChTraitsCRT@D@ATL@@@@@ATL@@QAE@XZ
  000c3	8d 4e 14	 lea	 ecx, DWORD PTR [esi+20]
  000c6	ff 15 00 00 00
	00		 call	 DWORD PTR __imp_??1?$CStringT@DV?$StrTraitMFC_DLL@DV?$ChTraitsCRT@D@ATL@@@@@ATL@@QAE@XZ
  000cc	8d 4e 10	 lea	 ecx, DWORD PTR [esi+16]
  000cf	ff 15 00 00 00
	00		 call	 DWORD PTR __imp_??1?$CStringT@DV?$StrTraitMFC_DLL@DV?$ChTraitsCRT@D@ATL@@@@@ATL@@QAE@XZ
  000d5	8d 4e 0c	 lea	 ecx, DWORD PTR [esi+12]
  000d8	ff 15 00 00 00
	00		 call	 DWORD PTR __imp_??1?$CStringT@DV?$StrTraitMFC_DLL@DV?$ChTraitsCRT@D@ATL@@@@@ATL@@QAE@XZ
  000de	8d 4e 08	 lea	 ecx, DWORD PTR [esi+8]
  000e1	ff 15 00 00 00
	00		 call	 DWORD PTR __imp_??1?$CStringT@DV?$StrTraitMFC_DLL@DV?$ChTraitsCRT@D@ATL@@@@@ATL@@QAE@XZ
  000e7	8d 4e 04	 lea	 ecx, DWORD PTR [esi+4]
  000ea	5e		 pop	 esi
  000eb	ff 25 00 00 00
	00		 jmp	 DWORD PTR __imp_??1?$CStringT@DV?$StrTraitMFC_DLL@DV?$ChTraitsCRT@D@ATL@@@@@ATL@@QAE@XZ
??1CChartBozoInput@@QAE@XZ ENDP				; CChartBozoInput::~CChartBozoInput
_TEXT	ENDS
; Function compile flags: /Ogtp
; File D:\git\src\IBK\IBK_DRFN\ProjSrc\SrcDrfn\inc\IChartBozoMsgMng.h
;	COMDAT ??4CChartBozoInput@@UAEAAV0@ABV0@@Z
_TEXT	SEGMENT
_item$ = 8						; size = 4
??4CChartBozoInput@@UAEAAV0@ABV0@@Z PROC		; CChartBozoInput::operator=, COMDAT
; _this$ = ecx

; 124  : 	virtual CChartBozoInput& operator = (const CChartBozoInput& item)	{ Copy(item);	return *this; };

  00000	55		 push	 ebp
  00001	8b ec		 mov	 ebp, esp
  00003	56		 push	 esi
  00004	ff 75 08	 push	 DWORD PTR _item$[ebp]
  00007	8b f1		 mov	 esi, ecx
  00009	8b 06		 mov	 eax, DWORD PTR [esi]
  0000b	ff 10		 call	 DWORD PTR [eax]
  0000d	8b c6		 mov	 eax, esi
  0000f	5e		 pop	 esi
  00010	5d		 pop	 ebp
  00011	c2 04 00	 ret	 4
??4CChartBozoInput@@UAEAAV0@ABV0@@Z ENDP		; CChartBozoInput::operator=
_TEXT	ENDS
; Function compile flags: /Ogtp
; File D:\git\src\IBK\IBK_DRFN\ProjSrc\SrcDrfn\inc\IChartBozoMsgMng.h
;	COMDAT ?Copy@CChartBozoInput@@UAEXABV1@@Z
_TEXT	SEGMENT
_right$ = 8						; size = 4
?Copy@CChartBozoInput@@UAEXABV1@@Z PROC			; CChartBozoInput::Copy, COMDAT
; _this$ = ecx

; 72   : 	{

  00000	55		 push	 ebp
  00001	8b ec		 mov	 ebp, esp
  00003	56		 push	 esi

; 73   : 		m_sMarket		= right.m_sMarket;

  00004	8b 75 08	 mov	 esi, DWORD PTR _right$[ebp]
  00007	57		 push	 edi
  00008	8b f9		 mov	 edi, ecx
  0000a	8d 46 04	 lea	 eax, DWORD PTR [esi+4]
  0000d	50		 push	 eax
  0000e	8d 4f 04	 lea	 ecx, DWORD PTR [edi+4]
  00011	ff 15 00 00 00
	00		 call	 DWORD PTR __imp_??4?$CStringT@DV?$StrTraitMFC_DLL@DV?$ChTraitsCRT@D@ATL@@@@@ATL@@QAEAAV01@ABV01@@Z

; 74   : 		m_sShcode		= right.m_sShcode;

  00017	8d 46 08	 lea	 eax, DWORD PTR [esi+8]
  0001a	50		 push	 eax
  0001b	8d 4f 08	 lea	 ecx, DWORD PTR [edi+8]
  0001e	ff 15 00 00 00
	00		 call	 DWORD PTR __imp_??4?$CStringT@DV?$StrTraitMFC_DLL@DV?$ChTraitsCRT@D@ATL@@@@@ATL@@QAEAAV01@ABV01@@Z

; 75   : 		m_sTick			= right.m_sTick;

  00024	8d 46 0c	 lea	 eax, DWORD PTR [esi+12]
  00027	50		 push	 eax
  00028	8d 4f 0c	 lea	 ecx, DWORD PTR [edi+12]
  0002b	ff 15 00 00 00
	00		 call	 DWORD PTR __imp_??4?$CStringT@DV?$StrTraitMFC_DLL@DV?$ChTraitsCRT@D@ATL@@@@@ATL@@QAEAAV01@ABV01@@Z

; 76   : 		m_sTerm			= right.m_sTerm;

  00031	8d 46 10	 lea	 eax, DWORD PTR [esi+16]
  00034	50		 push	 eax
  00035	8d 4f 10	 lea	 ecx, DWORD PTR [edi+16]
  00038	ff 15 00 00 00
	00		 call	 DWORD PTR __imp_??4?$CStringT@DV?$StrTraitMFC_DLL@DV?$ChTraitsCRT@D@ATL@@@@@ATL@@QAEAAV01@ABV01@@Z

; 77   : 		m_sNxtFlg		= right.m_sNxtFlg;

  0003e	8d 46 14	 lea	 eax, DWORD PTR [esi+20]
  00041	50		 push	 eax
  00042	8d 4f 14	 lea	 ecx, DWORD PTR [edi+20]
  00045	ff 15 00 00 00
	00		 call	 DWORD PTR __imp_??4?$CStringT@DV?$StrTraitMFC_DLL@DV?$ChTraitsCRT@D@ATL@@@@@ATL@@QAEAAV01@ABV01@@Z

; 78   : 		m_sDataType		= right.m_sDataType;

  0004b	8d 46 18	 lea	 eax, DWORD PTR [esi+24]
  0004e	50		 push	 eax
  0004f	8d 4f 18	 lea	 ecx, DWORD PTR [edi+24]
  00052	ff 15 00 00 00
	00		 call	 DWORD PTR __imp_??4?$CStringT@DV?$StrTraitMFC_DLL@DV?$ChTraitsCRT@D@ATL@@@@@ATL@@QAEAAV01@ABV01@@Z

; 79   : 		m_sVolume		= right.m_sVolume;

  00058	8d 46 20	 lea	 eax, DWORD PTR [esi+32]
  0005b	50		 push	 eax
  0005c	8d 4f 20	 lea	 ecx, DWORD PTR [edi+32]
  0005f	ff 15 00 00 00
	00		 call	 DWORD PTR __imp_??4?$CStringT@DV?$StrTraitMFC_DLL@DV?$ChTraitsCRT@D@ATL@@@@@ATL@@QAEAAV01@ABV01@@Z

; 80   : 		m_sUpLmtPrice	= right.m_sUpLmtPrice;

  00065	8d 46 24	 lea	 eax, DWORD PTR [esi+36]
  00068	50		 push	 eax
  00069	8d 4f 24	 lea	 ecx, DWORD PTR [edi+36]
  0006c	ff 15 00 00 00
	00		 call	 DWORD PTR __imp_??4?$CStringT@DV?$StrTraitMFC_DLL@DV?$ChTraitsCRT@D@ATL@@@@@ATL@@QAEAAV01@ABV01@@Z

; 81   : 		m_sDnLmtPrice	= right.m_sDnLmtPrice;

  00072	8d 46 28	 lea	 eax, DWORD PTR [esi+40]
  00075	50		 push	 eax
  00076	8d 4f 28	 lea	 ecx, DWORD PTR [edi+40]
  00079	ff 15 00 00 00
	00		 call	 DWORD PTR __imp_??4?$CStringT@DV?$StrTraitMFC_DLL@DV?$ChTraitsCRT@D@ATL@@@@@ATL@@QAEAAV01@ABV01@@Z

; 82   : 		m_sOpen			= right.m_sOpen;

  0007f	8d 46 2c	 lea	 eax, DWORD PTR [esi+44]
  00082	50		 push	 eax
  00083	8d 4f 2c	 lea	 ecx, DWORD PTR [edi+44]
  00086	ff 15 00 00 00
	00		 call	 DWORD PTR __imp_??4?$CStringT@DV?$StrTraitMFC_DLL@DV?$ChTraitsCRT@D@ATL@@@@@ATL@@QAEAAV01@ABV01@@Z

; 83   : 		m_sHigh			= right.m_sHigh;

  0008c	8d 46 30	 lea	 eax, DWORD PTR [esi+48]
  0008f	50		 push	 eax
  00090	8d 4f 30	 lea	 ecx, DWORD PTR [edi+48]
  00093	ff 15 00 00 00
	00		 call	 DWORD PTR __imp_??4?$CStringT@DV?$StrTraitMFC_DLL@DV?$ChTraitsCRT@D@ATL@@@@@ATL@@QAEAAV01@ABV01@@Z

; 84   : 		m_sLow			= right.m_sLow;

  00099	8d 46 34	 lea	 eax, DWORD PTR [esi+52]
  0009c	50		 push	 eax
  0009d	8d 4f 34	 lea	 ecx, DWORD PTR [edi+52]
  000a0	ff 15 00 00 00
	00		 call	 DWORD PTR __imp_??4?$CStringT@DV?$StrTraitMFC_DLL@DV?$ChTraitsCRT@D@ATL@@@@@ATL@@QAEAAV01@ABV01@@Z

; 85   : 		m_sPrice		= right.m_sPrice;		// 20100326_JS.Kim.     

  000a6	8d 46 1c	 lea	 eax, DWORD PTR [esi+28]
  000a9	50		 push	 eax
  000aa	8d 4f 1c	 lea	 ecx, DWORD PTR [edi+28]
  000ad	ff 15 00 00 00
	00		 call	 DWORD PTR __imp_??4?$CStringT@DV?$StrTraitMFC_DLL@DV?$ChTraitsCRT@D@ATL@@@@@ATL@@QAEAAV01@ABV01@@Z

; 86   : 		m_sPreprice		= right.m_sPreprice;

  000b3	8d 46 38	 lea	 eax, DWORD PTR [esi+56]
  000b6	50		 push	 eax
  000b7	8d 4f 38	 lea	 ecx, DWORD PTR [edi+56]
  000ba	ff 15 00 00 00
	00		 call	 DWORD PTR __imp_??4?$CStringT@DV?$StrTraitMFC_DLL@DV?$ChTraitsCRT@D@ATL@@@@@ATL@@QAEAAV01@ABV01@@Z

; 87   : 		m_sPreVolume	= right.m_sPreVolume;

  000c0	8d 46 3c	 lea	 eax, DWORD PTR [esi+60]
  000c3	50		 push	 eax
  000c4	8d 4f 3c	 lea	 ecx, DWORD PTR [edi+60]
  000c7	ff 15 00 00 00
	00		 call	 DWORD PTR __imp_??4?$CStringT@DV?$StrTraitMFC_DLL@DV?$ChTraitsCRT@D@ATL@@@@@ATL@@QAEAAV01@ABV01@@Z

; 88   : 		m_sStartTime	= right.m_sStartTime;

  000cd	8d 46 40	 lea	 eax, DWORD PTR [esi+64]
  000d0	50		 push	 eax
  000d1	8d 4f 40	 lea	 ecx, DWORD PTR [edi+64]
  000d4	ff 15 00 00 00
	00		 call	 DWORD PTR __imp_??4?$CStringT@DV?$StrTraitMFC_DLL@DV?$ChTraitsCRT@D@ATL@@@@@ATL@@QAEAAV01@ABV01@@Z

; 89   : 		m_sFirstClose	= right.m_sFirstClose;

  000da	8d 46 44	 lea	 eax, DWORD PTR [esi+68]
  000dd	50		 push	 eax
  000de	8d 4f 44	 lea	 ecx, DWORD PTR [edi+68]
  000e1	ff 15 00 00 00
	00		 call	 DWORD PTR __imp_??4?$CStringT@DV?$StrTraitMFC_DLL@DV?$ChTraitsCRT@D@ATL@@@@@ATL@@QAEAAV01@ABV01@@Z

; 90   : 		m_sPreOpen		= right.m_sPreOpen;

  000e7	8d 46 48	 lea	 eax, DWORD PTR [esi+72]
  000ea	50		 push	 eax
  000eb	8d 4f 48	 lea	 ecx, DWORD PTR [edi+72]
  000ee	ff 15 00 00 00
	00		 call	 DWORD PTR __imp_??4?$CStringT@DV?$StrTraitMFC_DLL@DV?$ChTraitsCRT@D@ATL@@@@@ATL@@QAEAAV01@ABV01@@Z

; 91   : 		m_sPreHigh		= right.m_sPreHigh;

  000f4	8d 46 4c	 lea	 eax, DWORD PTR [esi+76]
  000f7	50		 push	 eax
  000f8	8d 4f 4c	 lea	 ecx, DWORD PTR [edi+76]
  000fb	ff 15 00 00 00
	00		 call	 DWORD PTR __imp_??4?$CStringT@DV?$StrTraitMFC_DLL@DV?$ChTraitsCRT@D@ATL@@@@@ATL@@QAEAAV01@ABV01@@Z

; 92   : 		m_sPreLow		= right.m_sPreLow;

  00101	8d 46 50	 lea	 eax, DWORD PTR [esi+80]
  00104	50		 push	 eax
  00105	8d 4f 50	 lea	 ecx, DWORD PTR [edi+80]
  00108	ff 15 00 00 00
	00		 call	 DWORD PTR __imp_??4?$CStringT@DV?$StrTraitMFC_DLL@DV?$ChTraitsCRT@D@ATL@@@@@ATL@@QAEAAV01@ABV01@@Z

; 93   : 		m_sWonDollor	= right.m_sWonDollor;

  0010e	8d 46 54	 lea	 eax, DWORD PTR [esi+84]
  00111	50		 push	 eax
  00112	8d 4f 54	 lea	 ecx, DWORD PTR [edi+84]
  00115	ff 15 00 00 00
	00		 call	 DWORD PTR __imp_??4?$CStringT@DV?$StrTraitMFC_DLL@DV?$ChTraitsCRT@D@ATL@@@@@ATL@@QAEAAV01@ABV01@@Z

; 94   : 		memcpy(sShcode, right.sShcode, sizeof(sShcode));

  0011b	0f 10 46 68	 movups	 xmm0, XMMWORD PTR [esi+104]

; 95   : 		lTick			= right.lTick;
; 96   : 		memcpy(sTerm, right.sTerm, sizeof(sTerm));
; 97   : 		memcpy(sNxtFlg, right.sNxtFlg, sizeof(sNxtFlg));
; 98   : 		memcpy(sDataType, right.sDataType, sizeof(sDataType));
; 99   : 		lPrice			= right.lPrice;
; 100  : 		lVolume			= right.lVolume;
; 101  : 		lUpLmtPrice		= right.lUpLmtPrice;
; 102  : 		lDnLmtPrice		= right.lDnLmtPrice;
; 103  : 		lOpen			= right.lOpen;
; 104  : 		lHigh			= right.lHigh;
; 105  : 		lLow			= right.lLow;
; 106  : 		lPreprice		= right.lPreprice;
; 107  : 		lPreVolume		= right.lPreVolume;
; 108  : 		lFirstClose		= right.lFirstClose;
; 109  : 		lPreOpen		= right.lPreOpen;
; 110  : 		lPreHigh		= right.lPreHigh;
; 111  : 		lPreLow			= right.lPreHigh;
; 112  : 		nMarket			= right.nMarket;
; 113  : 		lWonDollar		= right.lWonDollar;
; 114  : //vntsorl_20110420:[A00000410]      
; 115  : 		nPacketType		= right.nPacketType;
; 116  : 		m_sLastDataTime	= right.m_sLastDataTime;

  0011f	8d 8f c0 00 00
	00		 lea	 ecx, DWORD PTR [edi+192]
  00125	0f 11 47 68	 movups	 XMMWORD PTR [edi+104], xmm0
  00129	8b 46 78	 mov	 eax, DWORD PTR [esi+120]
  0012c	89 47 78	 mov	 DWORD PTR [edi+120], eax
  0012f	0f b6 46 7c	 movzx	 eax, BYTE PTR [esi+124]
  00133	88 47 7c	 mov	 BYTE PTR [edi+124], al
  00136	0f b6 46 7d	 movzx	 eax, BYTE PTR [esi+125]
  0013a	88 47 7d	 mov	 BYTE PTR [edi+125], al
  0013d	0f b6 46 7e	 movzx	 eax, BYTE PTR [esi+126]
  00141	88 47 7e	 mov	 BYTE PTR [edi+126], al
  00144	8b 86 80 00 00
	00		 mov	 eax, DWORD PTR [esi+128]
  0014a	89 87 80 00 00
	00		 mov	 DWORD PTR [edi+128], eax
  00150	8b 86 84 00 00
	00		 mov	 eax, DWORD PTR [esi+132]
  00156	89 87 84 00 00
	00		 mov	 DWORD PTR [edi+132], eax
  0015c	8b 86 88 00 00
	00		 mov	 eax, DWORD PTR [esi+136]
  00162	89 87 88 00 00
	00		 mov	 DWORD PTR [edi+136], eax
  00168	8b 86 8c 00 00
	00		 mov	 eax, DWORD PTR [esi+140]
  0016e	89 87 8c 00 00
	00		 mov	 DWORD PTR [edi+140], eax
  00174	8b 86 90 00 00
	00		 mov	 eax, DWORD PTR [esi+144]
  0017a	89 87 90 00 00
	00		 mov	 DWORD PTR [edi+144], eax
  00180	8b 86 94 00 00
	00		 mov	 eax, DWORD PTR [esi+148]
  00186	89 87 94 00 00
	00		 mov	 DWORD PTR [edi+148], eax
  0018c	8b 86 98 00 00
	00		 mov	 eax, DWORD PTR [esi+152]
  00192	89 87 98 00 00
	00		 mov	 DWORD PTR [edi+152], eax
  00198	8b 86 9c 00 00
	00		 mov	 eax, DWORD PTR [esi+156]
  0019e	89 87 9c 00 00
	00		 mov	 DWORD PTR [edi+156], eax
  001a4	8b 86 a0 00 00
	00		 mov	 eax, DWORD PTR [esi+160]
  001aa	89 87 a0 00 00
	00		 mov	 DWORD PTR [edi+160], eax
  001b0	8b 86 a4 00 00
	00		 mov	 eax, DWORD PTR [esi+164]
  001b6	89 87 a4 00 00
	00		 mov	 DWORD PTR [edi+164], eax
  001bc	8b 86 a8 00 00
	00		 mov	 eax, DWORD PTR [esi+168]
  001c2	89 87 a8 00 00
	00		 mov	 DWORD PTR [edi+168], eax
  001c8	8b 86 ac 00 00
	00		 mov	 eax, DWORD PTR [esi+172]
  001ce	89 87 ac 00 00
	00		 mov	 DWORD PTR [edi+172], eax
  001d4	8b 86 ac 00 00
	00		 mov	 eax, DWORD PTR [esi+172]
  001da	89 87 b0 00 00
	00		 mov	 DWORD PTR [edi+176], eax
  001e0	8b 86 b4 00 00
	00		 mov	 eax, DWORD PTR [esi+180]
  001e6	89 87 b4 00 00
	00		 mov	 DWORD PTR [edi+180], eax
  001ec	8b 86 b8 00 00
	00		 mov	 eax, DWORD PTR [esi+184]
  001f2	89 87 b8 00 00
	00		 mov	 DWORD PTR [edi+184], eax
  001f8	8b 86 bc 00 00
	00		 mov	 eax, DWORD PTR [esi+188]
  001fe	89 87 bc 00 00
	00		 mov	 DWORD PTR [edi+188], eax
  00204	8d 86 c0 00 00
	00		 lea	 eax, DWORD PTR [esi+192]
  0020a	50		 push	 eax
  0020b	ff 15 00 00 00
	00		 call	 DWORD PTR __imp_??4?$CStringT@DV?$StrTraitMFC_DLL@DV?$ChTraitsCRT@D@ATL@@@@@ATL@@QAEAAV01@ABV01@@Z

; 117  : 		m_sVolAmt		= right.m_sVolAmt;		//[A00000651][A00000652].

  00211	8d 46 58	 lea	 eax, DWORD PTR [esi+88]
  00214	50		 push	 eax
  00215	8d 4f 58	 lea	 ecx, DWORD PTR [edi+88]
  00218	ff 15 00 00 00
	00		 call	 DWORD PTR __imp_??4?$CStringT@DV?$StrTraitMFC_DLL@DV?$ChTraitsCRT@D@ATL@@@@@ATL@@QAEAAV01@ABV01@@Z

; 118  : 
; 119  : 		m_szMarketTime	= right.m_szMarketTime;;

  0021e	8d 46 60	 lea	 eax, DWORD PTR [esi+96]
  00221	50		 push	 eax
  00222	8d 4f 60	 lea	 ecx, DWORD PTR [edi+96]
  00225	ff 15 00 00 00
	00		 call	 DWORD PTR __imp_??4?$CStringT@DV?$StrTraitMFC_DLL@DV?$ChTraitsCRT@D@ATL@@@@@ATL@@QAEAAV01@ABV01@@Z

; 120  : 		m_szBaseTime	= right.m_szBaseTime;;

  0022b	8d 46 64	 lea	 eax, DWORD PTR [esi+100]
  0022e	50		 push	 eax
  0022f	8d 4f 64	 lea	 ecx, DWORD PTR [edi+100]
  00232	ff 15 00 00 00
	00		 call	 DWORD PTR __imp_??4?$CStringT@DV?$StrTraitMFC_DLL@DV?$ChTraitsCRT@D@ATL@@@@@ATL@@QAEAAV01@ABV01@@Z
  00238	5f		 pop	 edi
  00239	5e		 pop	 esi

; 121  : 
; 122  : 	};

  0023a	5d		 pop	 ebp
  0023b	c2 04 00	 ret	 4
?Copy@CChartBozoInput@@UAEXABV1@@Z ENDP			; CChartBozoInput::Copy
_TEXT	ENDS
; Function compile flags: /Ogtp
; File D:\git\src\IBK\IBK_DRFN\ProjSrc\SrcDrfn\Chart\commontr\TRDefine.h
;	COMDAT ??__ERMSG_GETSIGNAL_REAL@@YAXXZ
text$di	SEGMENT
??__ERMSG_GETSIGNAL_REAL@@YAXXZ PROC			; `dynamic initializer for 'RMSG_GETSIGNAL_REAL'', COMDAT

; 213  : const UINT RMSG_GETSIGNAL_REAL = ::RegisterWindowMessage(_T("RMSG_GETSIGNAL_REAL"));

  00000	68 00 00 00 00	 push	 OFFSET ??_C@_0BE@FJPKENOB@RMSG_GETSIGNAL_REAL@
  00005	ff 15 00 00 00
	00		 call	 DWORD PTR __imp__RegisterWindowMessageA@4
  0000b	a3 00 00 00 00	 mov	 DWORD PTR ?RMSG_GETSIGNAL_REAL@@3IB, eax
  00010	c3		 ret	 0
??__ERMSG_GETSIGNAL_REAL@@YAXXZ ENDP			; `dynamic initializer for 'RMSG_GETSIGNAL_REAL''
text$di	ENDS
; Function compile flags: /Ogtp
; File D:\git\src\IBK\IBK_DRFN\ProjSrc\SrcDrfn\inc\IBaseDefine.h
;	COMDAT ??__ERMSG_SETPCTRDATA@@YAXXZ
text$di	SEGMENT
??__ERMSG_SETPCTRDATA@@YAXXZ PROC			; `dynamic initializer for 'RMSG_SETPCTRDATA'', COMDAT

; 172  : const UINT RMSG_SETPCTRDATA = ::RegisterWindowMessage("RMSG_SETPCTRDATA");

  00000	68 00 00 00 00	 push	 OFFSET ??_C@_0BB@JPACFCL@RMSG_SETPCTRDATA@
  00005	ff 15 00 00 00
	00		 call	 DWORD PTR __imp__RegisterWindowMessageA@4
  0000b	a3 00 00 00 00	 mov	 DWORD PTR ?RMSG_SETPCTRDATA@@3IB, eax
  00010	c3		 ret	 0
??__ERMSG_SETPCTRDATA@@YAXXZ ENDP			; `dynamic initializer for 'RMSG_SETPCTRDATA''
text$di	ENDS
; Function compile flags: /Ogtp
; File D:\git\src\IBK\IBK_DRFN\ProjSrc\SrcDrfn\inc\IBaseDefine.h
;	COMDAT ??__ERMSG_GETPCTRDATA@@YAXXZ
text$di	SEGMENT
??__ERMSG_GETPCTRDATA@@YAXXZ PROC			; `dynamic initializer for 'RMSG_GETPCTRDATA'', COMDAT

; 171  : const UINT RMSG_GETPCTRDATA = ::RegisterWindowMessage("RMSG_GETPCTRDATA");

  00000	68 00 00 00 00	 push	 OFFSET ??_C@_0BB@GOOPDKI@RMSG_GETPCTRDATA@
  00005	ff 15 00 00 00
	00		 call	 DWORD PTR __imp__RegisterWindowMessageA@4
  0000b	a3 00 00 00 00	 mov	 DWORD PTR ?RMSG_GETPCTRDATA@@3IB, eax
  00010	c3		 ret	 0
??__ERMSG_GETPCTRDATA@@YAXXZ ENDP			; `dynamic initializer for 'RMSG_GETPCTRDATA''
text$di	ENDS
; Function compile flags: /Ogtp
; File D:\git\src\IBK\IBK_DRFN\ProjSrc\SrcDrfn\inc\IBaseDefine.h
;	COMDAT ??__ERMSG_INTERFACE@@YAXXZ
text$di	SEGMENT
??__ERMSG_INTERFACE@@YAXXZ PROC				; `dynamic initializer for 'RMSG_INTERFACE'', COMDAT

; 170  : const UINT RMSG_INTERFACE = ::RegisterWindowMessage("RMSG_INTERFACE");

  00000	68 00 00 00 00	 push	 OFFSET ??_C@_0P@BKKCOCLK@RMSG_INTERFACE@
  00005	ff 15 00 00 00
	00		 call	 DWORD PTR __imp__RegisterWindowMessageA@4
  0000b	a3 00 00 00 00	 mov	 DWORD PTR ?RMSG_INTERFACE@@3IB, eax
  00010	c3		 ret	 0
??__ERMSG_INTERFACE@@YAXXZ ENDP				; `dynamic initializer for 'RMSG_INTERFACE''
text$di	ENDS
; Function compile flags: /Ogtp
; File C:\Program Files (x86)\Microsoft Visual Studio\2019\Community\VC\Tools\MSVC\14.29.30133\atlmfc\include\afx.inl
;	COMDAT ?Dump@CObject@@UBEXAAVCDumpContext@@@Z
_TEXT	SEGMENT
___formal$ = 8						; size = 4
?Dump@CObject@@UBEXAAVCDumpContext@@@Z PROC		; CObject::Dump, COMDAT
; _this$ = ecx

; 122  : 	{ /* no dumping in release builds */ }

  00000	c2 04 00	 ret	 4
?Dump@CObject@@UBEXAAVCDumpContext@@@Z ENDP		; CObject::Dump
_TEXT	ENDS
; Function compile flags: /Ogtp
; File C:\Program Files (x86)\Microsoft Visual Studio\2019\Community\VC\Tools\MSVC\14.29.30133\atlmfc\include\afx.inl
;	COMDAT ?AssertValid@CObject@@UBEXXZ
_TEXT	SEGMENT
?AssertValid@CObject@@UBEXXZ PROC			; CObject::AssertValid, COMDAT
; _this$ = ecx

; 120  : 	{ /* no asserts in release builds */ }

  00000	c2 00 00	 ret	 0
?AssertValid@CObject@@UBEXXZ ENDP			; CObject::AssertValid
_TEXT	ENDS
; Function compile flags: /Ogtp
; File C:\Program Files (x86)\Microsoft Visual Studio\2019\Community\VC\Tools\MSVC\14.29.30133\atlmfc\include\afx.inl
;	COMDAT ?Serialize@CObject@@UAEXAAVCArchive@@@Z
_TEXT	SEGMENT
___formal$ = 8						; size = 4
?Serialize@CObject@@UAEXAAVCArchive@@@Z PROC		; CObject::Serialize, COMDAT
; _this$ = ecx

; 106  : 	{ /* CObject does not serialize anything by default */ }

  00000	c2 04 00	 ret	 4
?Serialize@CObject@@UAEXAAVCArchive@@@Z ENDP		; CObject::Serialize
_TEXT	ENDS
; Function compile flags: /Ogtp
; File C:\Program Files (x86)\Microsoft Visual Studio\2019\Community\VC\Tools\MSVC\14.29.30133\atlmfc\include\afx.inl
;	COMDAT ??1CObject@@UAE@XZ
_TEXT	SEGMENT
??1CObject@@UAE@XZ PROC					; CObject::~CObject, COMDAT
; _this$ = ecx

; 104  : 	{ }

  00000	c2 00 00	 ret	 0
??1CObject@@UAE@XZ ENDP					; CObject::~CObject
_TEXT	ENDS
; Function compile flags: /Ogtp
; File C:\Program Files (x86)\Windows Kits\10\Include\10.0.22000.0\ucrt\stdio.h
;	COMDAT _sprintf
_TEXT	SEGMENT
__Buffer$ = 8						; size = 4
__Format$ = 12						; size = 4
_sprintf PROC						; COMDAT

; 1771 :     {

  00000	55		 push	 ebp
  00001	8b ec		 mov	 ebp, esp

; 1392 :         int const _Result = __stdio_common_vsprintf(

  00003	8d 45 10	 lea	 eax, DWORD PTR __Format$[ebp+4]
  00006	50		 push	 eax
  00007	6a 00		 push	 0
  00009	ff 75 0c	 push	 DWORD PTR __Format$[ebp]
  0000c	6a ff		 push	 -1
  0000e	ff 75 08	 push	 DWORD PTR __Buffer$[ebp]
  00011	e8 00 00 00 00	 call	 ___local_stdio_printf_options
  00016	8b 08		 mov	 ecx, DWORD PTR [eax]
  00018	ff 70 04	 push	 DWORD PTR [eax+4]
  0001b	83 c9 01	 or	 ecx, 1
  0001e	51		 push	 ecx
  0001f	ff 15 00 00 00
	00		 call	 DWORD PTR __imp____stdio_common_vsprintf

; 1393 :             _CRT_INTERNAL_LOCAL_PRINTF_OPTIONS | _CRT_INTERNAL_PRINTF_LEGACY_VSPRINTF_NULL_TERMINATION,
; 1394 :             _Buffer, _BufferCount, _Format, _Locale, _ArgList);
; 1395 : 
; 1396 :         return _Result < 0 ? -1 : _Result;

  00025	83 c9 ff	 or	 ecx, -1
  00028	83 c4 1c	 add	 esp, 28			; 0000001cH
  0002b	85 c0		 test	 eax, eax
  0002d	0f 48 c1	 cmovs	 eax, ecx

; 1772 :         int _Result;
; 1773 :         va_list _ArgList;
; 1774 :         __crt_va_start(_ArgList, _Format);
; 1775 : 
; 1776 :         _Result = _vsprintf_l(_Buffer, _Format, NULL, _ArgList);
; 1777 : 
; 1778 :         __crt_va_end(_ArgList);
; 1779 :         return _Result;
; 1780 :     }

  00030	5d		 pop	 ebp
  00031	c3		 ret	 0
_sprintf ENDP
_TEXT	ENDS
; Function compile flags: /Ogtp
; File C:\Program Files (x86)\Windows Kits\10\Include\10.0.22000.0\ucrt\corecrt_stdio_config.h
;	COMDAT ___local_stdio_printf_options
_TEXT	SEGMENT
___local_stdio_printf_options PROC			; COMDAT

; 91   :         static unsigned __int64 _OptionsStorage;
; 92   :         return &_OptionsStorage;

  00000	b8 00 00 00 00	 mov	 eax, OFFSET ?_OptionsStorage@?1??__local_stdio_printf_options@@9@4_KA ; `__local_stdio_printf_options'::`2'::_OptionsStorage

; 93   :     }

  00005	c3		 ret	 0
___local_stdio_printf_options ENDP
_TEXT	ENDS
; Function compile flags: /Ogtp
; File D:\git\src\IBK\IBK_DRFN\ProjSrc\SrcDrfn\DrCommon\PartnerMng\ChartItemMarket.cpp
;	COMDAT ?__empty_global_delete@@YAXPAXI@Z
_TEXT	SEGMENT
___formal$ = 8						; size = 4
___formal$ = 12						; size = 4
?__empty_global_delete@@YAXPAXI@Z PROC			; __empty_global_delete, COMDAT

  00000	c2 00 00	 ret	 0
?__empty_global_delete@@YAXPAXI@Z ENDP			; __empty_global_delete
_TEXT	ENDS
; Function compile flags: /Ogtp
; File D:\git\src\IBK\IBK_DRFN\ProjSrc\SrcDrfn\DrCommon\PartnerMng\ChartItemMarket.cpp
;	COMDAT ?__empty_global_delete@@YAXPAX@Z
_TEXT	SEGMENT
___formal$ = 8						; size = 4
?__empty_global_delete@@YAXPAX@Z PROC			; __empty_global_delete, COMDAT

  00000	c2 00 00	 ret	 0
?__empty_global_delete@@YAXPAX@Z ENDP			; __empty_global_delete
_TEXT	ENDS
END
