; Listing generated by Microsoft (R) Optimizing Compiler Version 19.29.30145.0 

	TITLE	D:\git\src\IBK\IBK_DRFN\#DRfn-CS\_Obj\PartnerMng\ChartItemFOForeignHoga.obj
	.686P
	.XMM
	include listing.inc
	.model	flat

INCLUDELIB MSVCRT
INCLUDELIB OLDNAMES

PUBLIC	?szFOFoHogaField@@3PAPADA			; szFOFoHogaField
PUBLIC	??_C@_05DPNAIEJN@70319@				; `string'
PUBLIC	??_C@_05OIKMFEBA@71023@				; `string'
PUBLIC	??_C@_05JIHFFKMH@72051@				; `string'
PUBLIC	??_C@_05JJLHDAPA@72041@				; `string'
PUBLIC	??_C@_05LDFIAJAE@72052@				; `string'
PUBLIC	??_C@_05LCJKGDDD@72042@				; `string'
PUBLIC	??_C@_05KKEDDIEF@72053@				; `string'
PUBLIC	??_C@_05KLIBFCHC@72043@				; `string'
PUBLIC	??_C@_05OFACKOIC@72054@				; `string'
PUBLIC	??_C@_05OEMAMELF@72044@				; `string'
PUBLIC	??_C@_05PMBJJPMD@72055@				; `string'
PUBLIC	??_C@_05PNNLPFPE@72045@				; `string'
PUBLIC	??_C@_05JLPBIOKJ@72071@				; `string'
PUBLIC	??_C@_05JKDDOEJO@72061@				; `string'
PUBLIC	??_C@_05LANMNNGK@72072@				; `string'
PUBLIC	??_C@_05LBBOLHFN@72062@				; `string'
PUBLIC	??_C@_05KJMHOMCL@72073@				; `string'
PUBLIC	??_C@_05KIAFIGBM@72063@				; `string'
PUBLIC	??_C@_05OGIGHKOM@72074@				; `string'
PUBLIC	??_C@_05OHEEBANL@72064@				; `string'
PUBLIC	??_C@_05PPJNELKN@72075@				; `string'
PUBLIC	??_C@_05POFPCBJK@72065@				; `string'
PUBLIC	??_C@_05CGACPPEJ@72101@				; `string'
PUBLIC	??_C@_05GJEDGJIO@72106@				; `string'
PUBLIC	??_C@_05MCEDGNOE@71030@				; `string'
PUBLIC	??_C@_05NLFIFMKF@71031@				; `string'
PUBLIC	??_C@_05OJGODOCH@71033@				; `string'
PUBLIC	??_C@_05IMMAJBBE@71027@				; `string'
PUBLIC	??_C@_0P@BKKCOCLK@RMSG_INTERFACE@		; `string'
PUBLIC	??_C@_0BB@GOOPDKI@RMSG_GETPCTRDATA@		; `string'
PUBLIC	??_C@_0BB@JPACFCL@RMSG_SETPCTRDATA@		; `string'
PUBLIC	??_C@_0BE@FJPKENOB@RMSG_GETSIGNAL_REAL@		; `string'
;	COMDAT ??_C@_0BE@FJPKENOB@RMSG_GETSIGNAL_REAL@
CONST	SEGMENT
??_C@_0BE@FJPKENOB@RMSG_GETSIGNAL_REAL@ DB 'RMSG_GETSIGNAL_REAL', 00H ; `string'
CONST	ENDS
;	COMDAT ??_C@_0BB@JPACFCL@RMSG_SETPCTRDATA@
CONST	SEGMENT
??_C@_0BB@JPACFCL@RMSG_SETPCTRDATA@ DB 'RMSG_SETPCTRDATA', 00H ; `string'
CONST	ENDS
;	COMDAT ??_C@_0BB@GOOPDKI@RMSG_GETPCTRDATA@
CONST	SEGMENT
??_C@_0BB@GOOPDKI@RMSG_GETPCTRDATA@ DB 'RMSG_GETPCTRDATA', 00H ; `string'
CONST	ENDS
;	COMDAT ??_C@_0P@BKKCOCLK@RMSG_INTERFACE@
CONST	SEGMENT
??_C@_0P@BKKCOCLK@RMSG_INTERFACE@ DB 'RMSG_INTERFACE', 00H ; `string'
CONST	ENDS
;	COMDAT ??_C@_05IMMAJBBE@71027@
CONST	SEGMENT
??_C@_05IMMAJBBE@71027@ DB '71027', 00H			; `string'
CONST	ENDS
;	COMDAT ??_C@_05OJGODOCH@71033@
CONST	SEGMENT
??_C@_05OJGODOCH@71033@ DB '71033', 00H			; `string'
CONST	ENDS
;	COMDAT ??_C@_05NLFIFMKF@71031@
CONST	SEGMENT
??_C@_05NLFIFMKF@71031@ DB '71031', 00H			; `string'
CONST	ENDS
;	COMDAT ??_C@_05MCEDGNOE@71030@
CONST	SEGMENT
??_C@_05MCEDGNOE@71030@ DB '71030', 00H			; `string'
CONST	ENDS
;	COMDAT ??_C@_05GJEDGJIO@72106@
CONST	SEGMENT
??_C@_05GJEDGJIO@72106@ DB '72106', 00H			; `string'
CONST	ENDS
;	COMDAT ??_C@_05CGACPPEJ@72101@
CONST	SEGMENT
??_C@_05CGACPPEJ@72101@ DB '72101', 00H			; `string'
CONST	ENDS
;	COMDAT ??_C@_05POFPCBJK@72065@
CONST	SEGMENT
??_C@_05POFPCBJK@72065@ DB '72065', 00H			; `string'
CONST	ENDS
;	COMDAT ??_C@_05PPJNELKN@72075@
CONST	SEGMENT
??_C@_05PPJNELKN@72075@ DB '72075', 00H			; `string'
CONST	ENDS
;	COMDAT ??_C@_05OHEEBANL@72064@
CONST	SEGMENT
??_C@_05OHEEBANL@72064@ DB '72064', 00H			; `string'
CONST	ENDS
;	COMDAT ??_C@_05OGIGHKOM@72074@
CONST	SEGMENT
??_C@_05OGIGHKOM@72074@ DB '72074', 00H			; `string'
CONST	ENDS
;	COMDAT ??_C@_05KIAFIGBM@72063@
CONST	SEGMENT
??_C@_05KIAFIGBM@72063@ DB '72063', 00H			; `string'
CONST	ENDS
;	COMDAT ??_C@_05KJMHOMCL@72073@
CONST	SEGMENT
??_C@_05KJMHOMCL@72073@ DB '72073', 00H			; `string'
CONST	ENDS
;	COMDAT ??_C@_05LBBOLHFN@72062@
CONST	SEGMENT
??_C@_05LBBOLHFN@72062@ DB '72062', 00H			; `string'
CONST	ENDS
;	COMDAT ??_C@_05LANMNNGK@72072@
CONST	SEGMENT
??_C@_05LANMNNGK@72072@ DB '72072', 00H			; `string'
CONST	ENDS
;	COMDAT ??_C@_05JKDDOEJO@72061@
CONST	SEGMENT
??_C@_05JKDDOEJO@72061@ DB '72061', 00H			; `string'
CONST	ENDS
;	COMDAT ??_C@_05JLPBIOKJ@72071@
CONST	SEGMENT
??_C@_05JLPBIOKJ@72071@ DB '72071', 00H			; `string'
CONST	ENDS
;	COMDAT ??_C@_05PNNLPFPE@72045@
CONST	SEGMENT
??_C@_05PNNLPFPE@72045@ DB '72045', 00H			; `string'
CONST	ENDS
;	COMDAT ??_C@_05PMBJJPMD@72055@
CONST	SEGMENT
??_C@_05PMBJJPMD@72055@ DB '72055', 00H			; `string'
CONST	ENDS
;	COMDAT ??_C@_05OEMAMELF@72044@
CONST	SEGMENT
??_C@_05OEMAMELF@72044@ DB '72044', 00H			; `string'
CONST	ENDS
;	COMDAT ??_C@_05OFACKOIC@72054@
CONST	SEGMENT
??_C@_05OFACKOIC@72054@ DB '72054', 00H			; `string'
CONST	ENDS
;	COMDAT ??_C@_05KLIBFCHC@72043@
CONST	SEGMENT
??_C@_05KLIBFCHC@72043@ DB '72043', 00H			; `string'
CONST	ENDS
;	COMDAT ??_C@_05KKEDDIEF@72053@
CONST	SEGMENT
??_C@_05KKEDDIEF@72053@ DB '72053', 00H			; `string'
CONST	ENDS
;	COMDAT ??_C@_05LCJKGDDD@72042@
CONST	SEGMENT
??_C@_05LCJKGDDD@72042@ DB '72042', 00H			; `string'
CONST	ENDS
;	COMDAT ??_C@_05LDFIAJAE@72052@
CONST	SEGMENT
??_C@_05LDFIAJAE@72052@ DB '72052', 00H			; `string'
CONST	ENDS
;	COMDAT ??_C@_05JJLHDAPA@72041@
CONST	SEGMENT
??_C@_05JJLHDAPA@72041@ DB '72041', 00H			; `string'
CONST	ENDS
;	COMDAT ??_C@_05JIHFFKMH@72051@
CONST	SEGMENT
??_C@_05JIHFFKMH@72051@ DB '72051', 00H			; `string'
CONST	ENDS
;	COMDAT ??_C@_05OIKMFEBA@71023@
CONST	SEGMENT
??_C@_05OIKMFEBA@71023@ DB '71023', 00H			; `string'
CONST	ENDS
;	COMDAT ??_C@_05DPNAIEJN@70319@
CONST	SEGMENT
??_C@_05DPNAIEJN@70319@ DB '70319', 00H			; `string'
CONST	ENDS
_DATA	SEGMENT
?szFOFoHogaField@@3PAPADA DD FLAT:??_C@_05DPNAIEJN@70319@ ; szFOFoHogaField
	DD	FLAT:??_C@_05OIKMFEBA@71023@
	DD	FLAT:??_C@_05JIHFFKMH@72051@
	DD	FLAT:??_C@_05JJLHDAPA@72041@
	DD	FLAT:??_C@_05LDFIAJAE@72052@
	DD	FLAT:??_C@_05LCJKGDDD@72042@
	DD	FLAT:??_C@_05KKEDDIEF@72053@
	DD	FLAT:??_C@_05KLIBFCHC@72043@
	DD	FLAT:??_C@_05OFACKOIC@72054@
	DD	FLAT:??_C@_05OEMAMELF@72044@
	DD	FLAT:??_C@_05PMBJJPMD@72055@
	DD	FLAT:??_C@_05PNNLPFPE@72045@
	DD	FLAT:??_C@_05JLPBIOKJ@72071@
	DD	FLAT:??_C@_05JKDDOEJO@72061@
	DD	FLAT:??_C@_05LANMNNGK@72072@
	DD	FLAT:??_C@_05LBBOLHFN@72062@
	DD	FLAT:??_C@_05KJMHOMCL@72073@
	DD	FLAT:??_C@_05KIAFIGBM@72063@
	DD	FLAT:??_C@_05OGIGHKOM@72074@
	DD	FLAT:??_C@_05OHEEBANL@72064@
	DD	FLAT:??_C@_05PPJNELKN@72075@
	DD	FLAT:??_C@_05POFPCBJK@72065@
	DD	FLAT:??_C@_05CGACPPEJ@72101@
	DD	FLAT:??_C@_05GJEDGJIO@72106@
	DD	FLAT:??_C@_05MCEDGNOE@71030@
	DD	FLAT:??_C@_05NLFIFMKF@71031@
	DD	FLAT:??_C@_05OJGODOCH@71033@
	DD	FLAT:??_C@_05IMMAJBBE@71027@
	DD	00H
_DATA	ENDS
PUBLIC	?__empty_global_delete@@YAXPAX@Z		; __empty_global_delete
PUBLIC	?__empty_global_delete@@YAXPAXI@Z		; __empty_global_delete
PUBLIC	?Copy@CChartBozoInput@@UAEXABV1@@Z		; CChartBozoInput::Copy
PUBLIC	??4CChartBozoInput@@UAEAAV0@ABV0@@Z		; CChartBozoInput::operator=
PUBLIC	??1CChartBozoInput@@QAE@XZ			; CChartBozoInput::~CChartBozoInput
PUBLIC	??0CChartItemFOForeignHoga@@QAE@XZ		; CChartItemFOForeignHoga::CChartItemFOForeignHoga
PUBLIC	??1CChartItemFOForeignHoga@@UAE@XZ		; CChartItemFOForeignHoga::~CChartItemFOForeignHoga
PUBLIC	?SetInData@CChartItemFOForeignHoga@@QAEXPAU_HCQ01112_IN@@@Z ; CChartItemFOForeignHoga::SetInData
PUBLIC	?Convert@CChartItemFOForeignHoga@@QAE?AV?$CStringT@DV?$StrTraitMFC_DLL@DV?$ChTraitsCRT@D@ATL@@@@@ATL@@XZ ; CChartItemFOForeignHoga::Convert
PUBLIC	?Convert2Struct@CChartItemFOForeignHoga@@QAEPADPAEHHAAH@Z ; CChartItemFOForeignHoga::Convert2Struct
PUBLIC	??_GCChartItemFOForeignHoga@@UAEPAXI@Z		; CChartItemFOForeignHoga::`scalar deleting destructor'
PUBLIC	??_C@_00CNPNBAHC@@				; `string'
PUBLIC	??_7CChartBozoInput@@6B@			; CChartBozoInput::`vftable'
PUBLIC	??_7CChartItemFOForeignHoga@@6B@		; CChartItemFOForeignHoga::`vftable'
PUBLIC	??_C@_05PGMLGEKC@70301@				; `string'
PUBLIC	??_C@_04EBNJJJJI@?$CF?4?$CKs@			; `string'
PUBLIC	??_R4CChartBozoInput@@6B@			; CChartBozoInput::`RTTI Complete Object Locator'
PUBLIC	??_R0?AVCChartBozoInput@@@8			; CChartBozoInput `RTTI Type Descriptor'
PUBLIC	??_R3CChartBozoInput@@8				; CChartBozoInput::`RTTI Class Hierarchy Descriptor'
PUBLIC	??_R2CChartBozoInput@@8				; CChartBozoInput::`RTTI Base Class Array'
PUBLIC	??_R1A@?0A@EA@CChartBozoInput@@8		; CChartBozoInput::`RTTI Base Class Descriptor at (0,-1,0,64)'
PUBLIC	??_R4CChartItemFOForeignHoga@@6B@		; CChartItemFOForeignHoga::`RTTI Complete Object Locator'
PUBLIC	??_R0?AVCChartItemFOForeignHoga@@@8		; CChartItemFOForeignHoga `RTTI Type Descriptor'
PUBLIC	??_R3CChartItemFOForeignHoga@@8			; CChartItemFOForeignHoga::`RTTI Class Hierarchy Descriptor'
PUBLIC	??_R2CChartItemFOForeignHoga@@8			; CChartItemFOForeignHoga::`RTTI Base Class Array'
PUBLIC	??_R1A@?0A@EA@CChartItemFOForeignHoga@@8	; CChartItemFOForeignHoga::`RTTI Base Class Descriptor at (0,-1,0,64)'
EXTRN	??3@YAXPAXI@Z:PROC				; operator delete
EXTRN	??_U@YAPAXI@Z:PROC				; operator new[]
EXTRN	__imp__RegisterWindowMessageA@4:PROC
EXTRN	__imp_??0?$CStringT@DV?$StrTraitMFC_DLL@DV?$ChTraitsCRT@D@ATL@@@@@ATL@@QAE@XZ:PROC
EXTRN	__imp_??0?$CStringT@DV?$StrTraitMFC_DLL@DV?$ChTraitsCRT@D@ATL@@@@@ATL@@QAE@ABV01@@Z:PROC
EXTRN	__imp_??0?$CStringT@DV?$StrTraitMFC_DLL@DV?$ChTraitsCRT@D@ATL@@@@@ATL@@QAE@PBD@Z:PROC
EXTRN	__imp_??0?$CStringT@DV?$StrTraitMFC_DLL@DV?$ChTraitsCRT@D@ATL@@@@@ATL@@QAE@DH@Z:PROC
EXTRN	__imp_??0?$CStringT@DV?$StrTraitMFC_DLL@DV?$ChTraitsCRT@D@ATL@@@@@ATL@@QAE@PBDH@Z:PROC
EXTRN	__imp_??1?$CStringT@DV?$StrTraitMFC_DLL@DV?$ChTraitsCRT@D@ATL@@@@@ATL@@QAE@XZ:PROC
EXTRN	__imp_??4?$CStringT@DV?$StrTraitMFC_DLL@DV?$ChTraitsCRT@D@ATL@@@@@ATL@@QAEAAV01@ABV01@@Z:PROC
EXTRN	__imp_??Y?$CStringT@DV?$StrTraitMFC_DLL@DV?$ChTraitsCRT@D@ATL@@@@@ATL@@QAEAAV01@ABV?$CSimpleStringT@D$00@1@@Z:PROC
EXTRN	__imp_??Y?$CStringT@DV?$StrTraitMFC_DLL@DV?$ChTraitsCRT@D@ATL@@@@@ATL@@QAEAAV01@PBD@Z:PROC
EXTRN	__imp_??Y?$CStringT@DV?$StrTraitMFC_DLL@DV?$ChTraitsCRT@D@ATL@@@@@ATL@@QAEAAV01@D@Z:PROC
EXTRN	__imp_?Format@?$CStringT@DV?$StrTraitMFC_DLL@DV?$ChTraitsCRT@D@ATL@@@@@ATL@@QAAXPBDZZ:PROC
EXTRN	??_ECChartItemFOForeignHoga@@UAEPAXI@Z:PROC	; CChartItemFOForeignHoga::`vector deleting destructor'
EXTRN	?Parser@CDataConverter@@SA?AV?$CStringT@DV?$StrTraitMFC_DLL@DV?$ChTraitsCRT@D@ATL@@@@@ATL@@AAV23@V23@@Z:PROC ; CDataConverter::Parser
EXTRN	@__security_check_cookie@4:PROC
EXTRN	___CxxFrameHandler3:PROC
EXTRN	_memcpy:PROC
EXTRN	_memset:PROC
EXTRN	??_7type_info@@6B@:QWORD			; type_info::`vftable'
EXTRN	___security_cookie:DWORD
_BSS	SEGMENT
?RMSG_INTERFACE@@3IB DD 01H DUP (?)			; RMSG_INTERFACE
?RMSG_GETPCTRDATA@@3IB DD 01H DUP (?)			; RMSG_GETPCTRDATA
?RMSG_SETPCTRDATA@@3IB DD 01H DUP (?)			; RMSG_SETPCTRDATA
?RMSG_GETSIGNAL_REAL@@3IB DD 01H DUP (?)		; RMSG_GETSIGNAL_REAL
_BSS	ENDS
CRT$XCU	SEGMENT
?RMSG_INTERFACE$initializer$@@3P6AXXZA DD FLAT:??__ERMSG_INTERFACE@@YAXXZ ; RMSG_INTERFACE$initializer$
CRT$XCU	ENDS
;	COMDAT ??_R1A@?0A@EA@CChartItemFOForeignHoga@@8
rdata$r	SEGMENT
??_R1A@?0A@EA@CChartItemFOForeignHoga@@8 DD FLAT:??_R0?AVCChartItemFOForeignHoga@@@8 ; CChartItemFOForeignHoga::`RTTI Base Class Descriptor at (0,-1,0,64)'
	DD	00H
	DD	00H
	DD	0ffffffffH
	DD	00H
	DD	040H
	DD	FLAT:??_R3CChartItemFOForeignHoga@@8
rdata$r	ENDS
;	COMDAT ??_R2CChartItemFOForeignHoga@@8
rdata$r	SEGMENT
??_R2CChartItemFOForeignHoga@@8 DD FLAT:??_R1A@?0A@EA@CChartItemFOForeignHoga@@8 ; CChartItemFOForeignHoga::`RTTI Base Class Array'
rdata$r	ENDS
;	COMDAT ??_R3CChartItemFOForeignHoga@@8
rdata$r	SEGMENT
??_R3CChartItemFOForeignHoga@@8 DD 00H			; CChartItemFOForeignHoga::`RTTI Class Hierarchy Descriptor'
	DD	00H
	DD	01H
	DD	FLAT:??_R2CChartItemFOForeignHoga@@8
rdata$r	ENDS
;	COMDAT ??_R0?AVCChartItemFOForeignHoga@@@8
data$rs	SEGMENT
??_R0?AVCChartItemFOForeignHoga@@@8 DD FLAT:??_7type_info@@6B@ ; CChartItemFOForeignHoga `RTTI Type Descriptor'
	DD	00H
	DB	'.?AVCChartItemFOForeignHoga@@', 00H
data$rs	ENDS
;	COMDAT ??_R4CChartItemFOForeignHoga@@6B@
rdata$r	SEGMENT
??_R4CChartItemFOForeignHoga@@6B@ DD 00H		; CChartItemFOForeignHoga::`RTTI Complete Object Locator'
	DD	00H
	DD	00H
	DD	FLAT:??_R0?AVCChartItemFOForeignHoga@@@8
	DD	FLAT:??_R3CChartItemFOForeignHoga@@8
rdata$r	ENDS
;	COMDAT ??_R1A@?0A@EA@CChartBozoInput@@8
rdata$r	SEGMENT
??_R1A@?0A@EA@CChartBozoInput@@8 DD FLAT:??_R0?AVCChartBozoInput@@@8 ; CChartBozoInput::`RTTI Base Class Descriptor at (0,-1,0,64)'
	DD	00H
	DD	00H
	DD	0ffffffffH
	DD	00H
	DD	040H
	DD	FLAT:??_R3CChartBozoInput@@8
rdata$r	ENDS
;	COMDAT ??_R2CChartBozoInput@@8
rdata$r	SEGMENT
??_R2CChartBozoInput@@8 DD FLAT:??_R1A@?0A@EA@CChartBozoInput@@8 ; CChartBozoInput::`RTTI Base Class Array'
rdata$r	ENDS
;	COMDAT ??_R3CChartBozoInput@@8
rdata$r	SEGMENT
??_R3CChartBozoInput@@8 DD 00H				; CChartBozoInput::`RTTI Class Hierarchy Descriptor'
	DD	00H
	DD	01H
	DD	FLAT:??_R2CChartBozoInput@@8
rdata$r	ENDS
;	COMDAT ??_R0?AVCChartBozoInput@@@8
data$rs	SEGMENT
??_R0?AVCChartBozoInput@@@8 DD FLAT:??_7type_info@@6B@	; CChartBozoInput `RTTI Type Descriptor'
	DD	00H
	DB	'.?AVCChartBozoInput@@', 00H
data$rs	ENDS
;	COMDAT ??_R4CChartBozoInput@@6B@
rdata$r	SEGMENT
??_R4CChartBozoInput@@6B@ DD 00H			; CChartBozoInput::`RTTI Complete Object Locator'
	DD	00H
	DD	00H
	DD	FLAT:??_R0?AVCChartBozoInput@@@8
	DD	FLAT:??_R3CChartBozoInput@@8
rdata$r	ENDS
;	COMDAT ??_C@_04EBNJJJJI@?$CF?4?$CKs@
CONST	SEGMENT
??_C@_04EBNJJJJI@?$CF?4?$CKs@ DB '%.*s', 00H		; `string'
CONST	ENDS
;	COMDAT ??_C@_05PGMLGEKC@70301@
CONST	SEGMENT
??_C@_05PGMLGEKC@70301@ DB '70301', 00H			; `string'
CONST	ENDS
;	COMDAT ??_7CChartItemFOForeignHoga@@6B@
CONST	SEGMENT
??_7CChartItemFOForeignHoga@@6B@ DD FLAT:??_R4CChartItemFOForeignHoga@@6B@ ; CChartItemFOForeignHoga::`vftable'
	DD	FLAT:??_ECChartItemFOForeignHoga@@UAEPAXI@Z
CONST	ENDS
;	COMDAT ??_7CChartBozoInput@@6B@
CONST	SEGMENT
??_7CChartBozoInput@@6B@ DD FLAT:??_R4CChartBozoInput@@6B@ ; CChartBozoInput::`vftable'
	DD	FLAT:?Copy@CChartBozoInput@@UAEXABV1@@Z
	DD	FLAT:??4CChartBozoInput@@UAEAAV0@ABV0@@Z
CONST	ENDS
;	COMDAT ??_C@_00CNPNBAHC@@
CONST	SEGMENT
??_C@_00CNPNBAHC@@ DB 00H				; `string'
CONST	ENDS
;	COMDAT xdata$x
xdata$x	SEGMENT
__ehfuncinfo$?Convert2Struct@CChartItemFOForeignHoga@@QAEPADPAEHHAAH@Z DD 019930522H
	DD	01eH
	DD	FLAT:__unwindtable$?Convert2Struct@CChartItemFOForeignHoga@@QAEPADPAEHHAAH@Z
	DD	2 DUP(00H)
	DD	2 DUP(00H)
	DD	00H
	DD	01H
__unwindtable$?Convert2Struct@CChartItemFOForeignHoga@@QAEPADPAEHHAAH@Z DD 0ffffffffH
	DD	FLAT:__unwindfunclet$?Convert2Struct@CChartItemFOForeignHoga@@QAEPADPAEHHAAH@Z$0
	DD	00H
	DD	FLAT:__unwindfunclet$?Convert2Struct@CChartItemFOForeignHoga@@QAEPADPAEHHAAH@Z$1
	DD	01H
	DD	FLAT:__unwindfunclet$?Convert2Struct@CChartItemFOForeignHoga@@QAEPADPAEHHAAH@Z$3
	DD	01H
	DD	FLAT:__unwindfunclet$?Convert2Struct@CChartItemFOForeignHoga@@QAEPADPAEHHAAH@Z$5
	DD	01H
	DD	FLAT:__unwindfunclet$?Convert2Struct@CChartItemFOForeignHoga@@QAEPADPAEHHAAH@Z$7
	DD	01H
	DD	FLAT:__unwindfunclet$?Convert2Struct@CChartItemFOForeignHoga@@QAEPADPAEHHAAH@Z$9
	DD	01H
	DD	FLAT:__unwindfunclet$?Convert2Struct@CChartItemFOForeignHoga@@QAEPADPAEHHAAH@Z$11
	DD	01H
	DD	FLAT:__unwindfunclet$?Convert2Struct@CChartItemFOForeignHoga@@QAEPADPAEHHAAH@Z$13
	DD	01H
	DD	FLAT:__unwindfunclet$?Convert2Struct@CChartItemFOForeignHoga@@QAEPADPAEHHAAH@Z$15
	DD	01H
	DD	FLAT:__unwindfunclet$?Convert2Struct@CChartItemFOForeignHoga@@QAEPADPAEHHAAH@Z$17
	DD	01H
	DD	FLAT:__unwindfunclet$?Convert2Struct@CChartItemFOForeignHoga@@QAEPADPAEHHAAH@Z$19
	DD	01H
	DD	FLAT:__unwindfunclet$?Convert2Struct@CChartItemFOForeignHoga@@QAEPADPAEHHAAH@Z$21
	DD	01H
	DD	FLAT:__unwindfunclet$?Convert2Struct@CChartItemFOForeignHoga@@QAEPADPAEHHAAH@Z$23
	DD	01H
	DD	FLAT:__unwindfunclet$?Convert2Struct@CChartItemFOForeignHoga@@QAEPADPAEHHAAH@Z$25
	DD	01H
	DD	FLAT:__unwindfunclet$?Convert2Struct@CChartItemFOForeignHoga@@QAEPADPAEHHAAH@Z$27
	DD	01H
	DD	FLAT:__unwindfunclet$?Convert2Struct@CChartItemFOForeignHoga@@QAEPADPAEHHAAH@Z$29
	DD	01H
	DD	FLAT:__unwindfunclet$?Convert2Struct@CChartItemFOForeignHoga@@QAEPADPAEHHAAH@Z$31
	DD	01H
	DD	FLAT:__unwindfunclet$?Convert2Struct@CChartItemFOForeignHoga@@QAEPADPAEHHAAH@Z$33
	DD	01H
	DD	FLAT:__unwindfunclet$?Convert2Struct@CChartItemFOForeignHoga@@QAEPADPAEHHAAH@Z$35
	DD	01H
	DD	FLAT:__unwindfunclet$?Convert2Struct@CChartItemFOForeignHoga@@QAEPADPAEHHAAH@Z$37
	DD	01H
	DD	FLAT:__unwindfunclet$?Convert2Struct@CChartItemFOForeignHoga@@QAEPADPAEHHAAH@Z$39
	DD	01H
	DD	FLAT:__unwindfunclet$?Convert2Struct@CChartItemFOForeignHoga@@QAEPADPAEHHAAH@Z$41
	DD	01H
	DD	FLAT:__unwindfunclet$?Convert2Struct@CChartItemFOForeignHoga@@QAEPADPAEHHAAH@Z$43
	DD	01H
	DD	FLAT:__unwindfunclet$?Convert2Struct@CChartItemFOForeignHoga@@QAEPADPAEHHAAH@Z$45
	DD	01H
	DD	FLAT:__unwindfunclet$?Convert2Struct@CChartItemFOForeignHoga@@QAEPADPAEHHAAH@Z$47
	DD	01H
	DD	FLAT:__unwindfunclet$?Convert2Struct@CChartItemFOForeignHoga@@QAEPADPAEHHAAH@Z$49
	DD	01H
	DD	FLAT:__unwindfunclet$?Convert2Struct@CChartItemFOForeignHoga@@QAEPADPAEHHAAH@Z$51
	DD	01H
	DD	FLAT:__unwindfunclet$?Convert2Struct@CChartItemFOForeignHoga@@QAEPADPAEHHAAH@Z$53
	DD	01H
	DD	FLAT:__unwindfunclet$?Convert2Struct@CChartItemFOForeignHoga@@QAEPADPAEHHAAH@Z$55
	DD	01H
	DD	FLAT:__unwindfunclet$?Convert2Struct@CChartItemFOForeignHoga@@QAEPADPAEHHAAH@Z$57
xdata$x	ENDS
;	COMDAT xdata$x
xdata$x	SEGMENT
__unwindtable$?Convert@CChartItemFOForeignHoga@@QAE?AV?$CStringT@DV?$StrTraitMFC_DLL@DV?$ChTraitsCRT@D@ATL@@@@@ATL@@XZ DD 0ffffffffH
	DD	FLAT:__unwindfunclet$?Convert@CChartItemFOForeignHoga@@QAE?AV?$CStringT@DV?$StrTraitMFC_DLL@DV?$ChTraitsCRT@D@ATL@@@@@ATL@@XZ$1
	DD	00H
	DD	FLAT:__unwindfunclet$?Convert@CChartItemFOForeignHoga@@QAE?AV?$CStringT@DV?$StrTraitMFC_DLL@DV?$ChTraitsCRT@D@ATL@@@@@ATL@@XZ$2
	DD	01H
	DD	FLAT:__unwindfunclet$?Convert@CChartItemFOForeignHoga@@QAE?AV?$CStringT@DV?$StrTraitMFC_DLL@DV?$ChTraitsCRT@D@ATL@@@@@ATL@@XZ$3
__ehfuncinfo$?Convert@CChartItemFOForeignHoga@@QAE?AV?$CStringT@DV?$StrTraitMFC_DLL@DV?$ChTraitsCRT@D@ATL@@@@@ATL@@XZ DD 019930522H
	DD	03H
	DD	FLAT:__unwindtable$?Convert@CChartItemFOForeignHoga@@QAE?AV?$CStringT@DV?$StrTraitMFC_DLL@DV?$ChTraitsCRT@D@ATL@@@@@ATL@@XZ
	DD	2 DUP(00H)
	DD	2 DUP(00H)
	DD	00H
	DD	01H
xdata$x	ENDS
CRT$XCU	SEGMENT
?RMSG_GETPCTRDATA$initializer$@@3P6AXXZA DD FLAT:??__ERMSG_GETPCTRDATA@@YAXXZ ; RMSG_GETPCTRDATA$initializer$
CRT$XCU	ENDS
CRT$XCU	SEGMENT
?RMSG_SETPCTRDATA$initializer$@@3P6AXXZA DD FLAT:??__ERMSG_SETPCTRDATA@@YAXXZ ; RMSG_SETPCTRDATA$initializer$
CRT$XCU	ENDS
CRT$XCU	SEGMENT
?RMSG_GETSIGNAL_REAL$initializer$@@3P6AXXZA DD FLAT:??__ERMSG_GETSIGNAL_REAL@@YAXXZ ; RMSG_GETSIGNAL_REAL$initializer$
CRT$XCU	ENDS
; Function compile flags: /Ogtp
; File D:\git\src\IBK\IBK_DRFN\ProjSrc\SrcDrfn\DrCommon\PartnerMng\ChartItemFOForeignHoga.cpp
;	COMDAT ??_GCChartItemFOForeignHoga@@UAEPAXI@Z
_TEXT	SEGMENT
___flags$ = 8						; size = 4
??_GCChartItemFOForeignHoga@@UAEPAXI@Z PROC		; CChartItemFOForeignHoga::`scalar deleting destructor', COMDAT
; _this$ = ecx
  00000	55		 push	 ebp
  00001	8b ec		 mov	 ebp, esp

; 40   : {

  00003	56		 push	 esi
  00004	8b f1		 mov	 esi, ecx

; 41   : 
; 42   : }

  00006	8d 4e 14	 lea	 ecx, DWORD PTR [esi+20]
  00009	c7 06 00 00 00
	00		 mov	 DWORD PTR [esi], OFFSET ??_7CChartItemFOForeignHoga@@6B@
  0000f	e8 00 00 00 00	 call	 ??1CChartBozoInput@@QAE@XZ
  00014	f6 45 08 01	 test	 BYTE PTR ___flags$[ebp], 1
  00018	74 0e		 je	 SHORT $LN7@scalar
  0001a	68 e0 00 00 00	 push	 224			; 000000e0H
  0001f	56		 push	 esi
  00020	e8 00 00 00 00	 call	 ??3@YAXPAXI@Z		; operator delete
  00025	83 c4 08	 add	 esp, 8
$LN7@scalar:
  00028	8b c6		 mov	 eax, esi
  0002a	5e		 pop	 esi
  0002b	5d		 pop	 ebp
  0002c	c2 04 00	 ret	 4
??_GCChartItemFOForeignHoga@@UAEPAXI@Z ENDP		; CChartItemFOForeignHoga::`scalar deleting destructor'
_TEXT	ENDS
; Function compile flags: /Ogtp
; File D:\git\src\IBK\IBK_DRFN\ProjSrc\SrcDrfn\DrCommon\PartnerMng\ChartItemFOForeignHoga.cpp
; File C:\Program Files (x86)\Microsoft Visual Studio\2019\Community\VC\Tools\MSVC\14.29.30133\atlmfc\include\atlsimpstr.h
; File D:\git\src\IBK\IBK_DRFN\ProjSrc\SrcDrfn\DrCommon\PartnerMng\ChartItemFOForeignHoga.cpp
; File C:\Program Files (x86)\Microsoft Visual Studio\2019\Community\VC\Tools\MSVC\14.29.30133\atlmfc\include\atlsimpstr.h
; File D:\git\src\IBK\IBK_DRFN\ProjSrc\SrcDrfn\DrCommon\PartnerMng\ChartItemFOForeignHoga.cpp
; File C:\Program Files (x86)\Microsoft Visual Studio\2019\Community\VC\Tools\MSVC\14.29.30133\atlmfc\include\atlsimpstr.h
; File D:\git\src\IBK\IBK_DRFN\ProjSrc\SrcDrfn\DrCommon\PartnerMng\ChartItemFOForeignHoga.cpp
; File C:\Program Files (x86)\Microsoft Visual Studio\2019\Community\VC\Tools\MSVC\14.29.30133\atlmfc\include\atlsimpstr.h
; File D:\git\src\IBK\IBK_DRFN\ProjSrc\SrcDrfn\DrCommon\PartnerMng\ChartItemFOForeignHoga.cpp
; File C:\Program Files (x86)\Microsoft Visual Studio\2019\Community\VC\Tools\MSVC\14.29.30133\atlmfc\include\atlsimpstr.h
; File D:\git\src\IBK\IBK_DRFN\ProjSrc\SrcDrfn\DrCommon\PartnerMng\ChartItemFOForeignHoga.cpp
; File C:\Program Files (x86)\Microsoft Visual Studio\2019\Community\VC\Tools\MSVC\14.29.30133\atlmfc\include\atlsimpstr.h
; File D:\git\src\IBK\IBK_DRFN\ProjSrc\SrcDrfn\DrCommon\PartnerMng\ChartItemFOForeignHoga.cpp
; File C:\Program Files (x86)\Microsoft Visual Studio\2019\Community\VC\Tools\MSVC\14.29.30133\atlmfc\include\atlsimpstr.h
; File D:\git\src\IBK\IBK_DRFN\ProjSrc\SrcDrfn\DrCommon\PartnerMng\ChartItemFOForeignHoga.cpp
; File C:\Program Files (x86)\Microsoft Visual Studio\2019\Community\VC\Tools\MSVC\14.29.30133\atlmfc\include\atlsimpstr.h
; File D:\git\src\IBK\IBK_DRFN\ProjSrc\SrcDrfn\DrCommon\PartnerMng\ChartItemFOForeignHoga.cpp
; File C:\Program Files (x86)\Microsoft Visual Studio\2019\Community\VC\Tools\MSVC\14.29.30133\atlmfc\include\atlsimpstr.h
; File D:\git\src\IBK\IBK_DRFN\ProjSrc\SrcDrfn\DrCommon\PartnerMng\ChartItemFOForeignHoga.cpp
; File C:\Program Files (x86)\Microsoft Visual Studio\2019\Community\VC\Tools\MSVC\14.29.30133\atlmfc\include\atlsimpstr.h
; File D:\git\src\IBK\IBK_DRFN\ProjSrc\SrcDrfn\DrCommon\PartnerMng\ChartItemFOForeignHoga.cpp
; File C:\Program Files (x86)\Microsoft Visual Studio\2019\Community\VC\Tools\MSVC\14.29.30133\atlmfc\include\atlsimpstr.h
; File D:\git\src\IBK\IBK_DRFN\ProjSrc\SrcDrfn\DrCommon\PartnerMng\ChartItemFOForeignHoga.cpp
; File C:\Program Files (x86)\Microsoft Visual Studio\2019\Community\VC\Tools\MSVC\14.29.30133\atlmfc\include\atlsimpstr.h
; File D:\git\src\IBK\IBK_DRFN\ProjSrc\SrcDrfn\DrCommon\PartnerMng\ChartItemFOForeignHoga.cpp
; File C:\Program Files (x86)\Microsoft Visual Studio\2019\Community\VC\Tools\MSVC\14.29.30133\atlmfc\include\atlsimpstr.h
; File D:\git\src\IBK\IBK_DRFN\ProjSrc\SrcDrfn\DrCommon\PartnerMng\ChartItemFOForeignHoga.cpp
; File C:\Program Files (x86)\Microsoft Visual Studio\2019\Community\VC\Tools\MSVC\14.29.30133\atlmfc\include\atlsimpstr.h
; File D:\git\src\IBK\IBK_DRFN\ProjSrc\SrcDrfn\DrCommon\PartnerMng\ChartItemFOForeignHoga.cpp
; File C:\Program Files (x86)\Microsoft Visual Studio\2019\Community\VC\Tools\MSVC\14.29.30133\atlmfc\include\atlsimpstr.h
; File D:\git\src\IBK\IBK_DRFN\ProjSrc\SrcDrfn\DrCommon\PartnerMng\ChartItemFOForeignHoga.cpp
; File C:\Program Files (x86)\Microsoft Visual Studio\2019\Community\VC\Tools\MSVC\14.29.30133\atlmfc\include\atlsimpstr.h
; File D:\git\src\IBK\IBK_DRFN\ProjSrc\SrcDrfn\DrCommon\PartnerMng\ChartItemFOForeignHoga.cpp
; File C:\Program Files (x86)\Microsoft Visual Studio\2019\Community\VC\Tools\MSVC\14.29.30133\atlmfc\include\atlsimpstr.h
; File D:\git\src\IBK\IBK_DRFN\ProjSrc\SrcDrfn\DrCommon\PartnerMng\ChartItemFOForeignHoga.cpp
; File C:\Program Files (x86)\Microsoft Visual Studio\2019\Community\VC\Tools\MSVC\14.29.30133\atlmfc\include\atlsimpstr.h
; File D:\git\src\IBK\IBK_DRFN\ProjSrc\SrcDrfn\DrCommon\PartnerMng\ChartItemFOForeignHoga.cpp
; File C:\Program Files (x86)\Microsoft Visual Studio\2019\Community\VC\Tools\MSVC\14.29.30133\atlmfc\include\atlsimpstr.h
; File D:\git\src\IBK\IBK_DRFN\ProjSrc\SrcDrfn\DrCommon\PartnerMng\ChartItemFOForeignHoga.cpp
; File C:\Program Files (x86)\Microsoft Visual Studio\2019\Community\VC\Tools\MSVC\14.29.30133\atlmfc\include\atlsimpstr.h
; File D:\git\src\IBK\IBK_DRFN\ProjSrc\SrcDrfn\DrCommon\PartnerMng\ChartItemFOForeignHoga.cpp
; File C:\Program Files (x86)\Microsoft Visual Studio\2019\Community\VC\Tools\MSVC\14.29.30133\atlmfc\include\atlsimpstr.h
; File D:\git\src\IBK\IBK_DRFN\ProjSrc\SrcDrfn\DrCommon\PartnerMng\ChartItemFOForeignHoga.cpp
; File C:\Program Files (x86)\Microsoft Visual Studio\2019\Community\VC\Tools\MSVC\14.29.30133\atlmfc\include\atlsimpstr.h
; File D:\git\src\IBK\IBK_DRFN\ProjSrc\SrcDrfn\DrCommon\PartnerMng\ChartItemFOForeignHoga.cpp
; File C:\Program Files (x86)\Microsoft Visual Studio\2019\Community\VC\Tools\MSVC\14.29.30133\atlmfc\include\atlsimpstr.h
; File D:\git\src\IBK\IBK_DRFN\ProjSrc\SrcDrfn\DrCommon\PartnerMng\ChartItemFOForeignHoga.cpp
; File C:\Program Files (x86)\Microsoft Visual Studio\2019\Community\VC\Tools\MSVC\14.29.30133\atlmfc\include\atlsimpstr.h
; File D:\git\src\IBK\IBK_DRFN\ProjSrc\SrcDrfn\DrCommon\PartnerMng\ChartItemFOForeignHoga.cpp
; File C:\Program Files (x86)\Microsoft Visual Studio\2019\Community\VC\Tools\MSVC\14.29.30133\atlmfc\include\atlsimpstr.h
; File D:\git\src\IBK\IBK_DRFN\ProjSrc\SrcDrfn\DrCommon\PartnerMng\ChartItemFOForeignHoga.cpp
; File C:\Program Files (x86)\Microsoft Visual Studio\2019\Community\VC\Tools\MSVC\14.29.30133\atlmfc\include\atlsimpstr.h
; File D:\git\src\IBK\IBK_DRFN\ProjSrc\SrcDrfn\DrCommon\PartnerMng\ChartItemFOForeignHoga.cpp
; File C:\Program Files (x86)\Microsoft Visual Studio\2019\Community\VC\Tools\MSVC\14.29.30133\atlmfc\include\atlsimpstr.h
; File D:\git\src\IBK\IBK_DRFN\ProjSrc\SrcDrfn\DrCommon\PartnerMng\ChartItemFOForeignHoga.cpp
;	COMDAT ?Convert2Struct@CChartItemFOForeignHoga@@QAEPADPAEHHAAH@Z
_TEXT	SEGMENT
_nDataLen$GSCopy$1$ = -624				; size = 4
_strSrc$ = -620						; size = 4
_strNode$ = -616					; size = 4
$T2 = -612						; size = 4
$T3 = -612						; size = 4
$T4 = -612						; size = 4
$T5 = -612						; size = 4
$T6 = -612						; size = 4
$T7 = -612						; size = 4
$T8 = -612						; size = 4
$T9 = -612						; size = 4
$T10 = -612						; size = 4
$T11 = -612						; size = 4
$T12 = -612						; size = 4
$T13 = -612						; size = 4
$T14 = -612						; size = 4
$T15 = -612						; size = 4
$T16 = -612						; size = 4
$T17 = -612						; size = 4
$T18 = -612						; size = 4
$T19 = -612						; size = 4
$T20 = -612						; size = 4
$T21 = -612						; size = 4
$T22 = -612						; size = 4
$T23 = -612						; size = 4
$T24 = -612						; size = 4
$T25 = -612						; size = 4
$T26 = -612						; size = 4
$T27 = -612						; size = 4
$T28 = -612						; size = 4
$T29 = -612						; size = 4
_stOut$ = -608						; size = 590
__$ArrayPad$ = -16					; size = 4
__$EHRec$ = -12						; size = 12
_pData$ = 8						; size = 4
_nLen$ = 12						; size = 4
_nKey$ = 16						; size = 4
_nDataLen$ = 20						; size = 4
?Convert2Struct@CChartItemFOForeignHoga@@QAEPADPAEHHAAH@Z PROC ; CChartItemFOForeignHoga::Convert2Struct, COMDAT
; _this$ = ecx

; 84   : {

  00000	55		 push	 ebp
  00001	8b ec		 mov	 ebp, esp
  00003	6a ff		 push	 -1
  00005	68 00 00 00 00	 push	 __ehhandler$?Convert2Struct@CChartItemFOForeignHoga@@QAEPADPAEHHAAH@Z
  0000a	64 a1 00 00 00
	00		 mov	 eax, DWORD PTR fs:0
  00010	50		 push	 eax
  00011	81 ec 64 02 00
	00		 sub	 esp, 612		; 00000264H
  00017	a1 00 00 00 00	 mov	 eax, DWORD PTR ___security_cookie
  0001c	33 c5		 xor	 eax, ebp
  0001e	89 45 f0	 mov	 DWORD PTR __$ArrayPad$[ebp], eax
  00021	53		 push	 ebx
  00022	56		 push	 esi
  00023	57		 push	 edi
  00024	50		 push	 eax
  00025	8d 45 f4	 lea	 eax, DWORD PTR __$EHRec$[ebp]
  00028	64 a3 00 00 00
	00		 mov	 DWORD PTR fs:0, eax
  0002e	8b f9		 mov	 edi, ecx
  00030	8b 45 14	 mov	 eax, DWORD PTR _nDataLen$[ebp]

; 85   : 	HCQ01112_OUT stOut;
; 86   : 	CString strNode, strSrc;

  00033	8d 8d 98 fd ff
	ff		 lea	 ecx, DWORD PTR _strNode$[ebp]
  00039	8b 75 08	 mov	 esi, DWORD PTR _pData$[ebp]
  0003c	89 85 90 fd ff
	ff		 mov	 DWORD PTR _nDataLen$GSCopy$1$[ebp], eax
  00042	ff 15 00 00 00
	00		 call	 DWORD PTR __imp_??0?$CStringT@DV?$StrTraitMFC_DLL@DV?$ChTraitsCRT@D@ATL@@@@@ATL@@QAE@XZ
  00048	8d 8d 94 fd ff
	ff		 lea	 ecx, DWORD PTR _strSrc$[ebp]
  0004e	c7 45 fc 00 00
	00 00		 mov	 DWORD PTR __$EHRec$[ebp+8], 0
  00055	ff 15 00 00 00
	00		 call	 DWORD PTR __imp_??0?$CStringT@DV?$StrTraitMFC_DLL@DV?$ChTraitsCRT@D@ATL@@@@@ATL@@QAE@XZ

; 87   : 	strSrc.Format(_T("%.*s"), nLen, (char*)pData);

  0005b	56		 push	 esi
  0005c	ff 75 0c	 push	 DWORD PTR _nLen$[ebp]
  0005f	8d 85 94 fd ff
	ff		 lea	 eax, DWORD PTR _strSrc$[ebp]
  00065	c6 45 fc 01	 mov	 BYTE PTR __$EHRec$[ebp+8], 1
  00069	68 00 00 00 00	 push	 OFFSET ??_C@_04EBNJJJJI@?$CF?4?$CKs@
  0006e	50		 push	 eax
  0006f	ff 15 00 00 00
	00		 call	 DWORD PTR __imp_?Format@?$CStringT@DV?$StrTraitMFC_DLL@DV?$ChTraitsCRT@D@ATL@@@@@ATL@@QAAXPBDZZ

; 88   : 
; 89   : 	memset(&stOut, 0x20, sizeof(stOut));

  00075	68 44 02 00 00	 push	 580			; 00000244H
  0007a	8d 85 aa fd ff
	ff		 lea	 eax, DWORD PTR _stOut$[ebp+10]
  00080	6a 20		 push	 32			; 00000020H
  00082	50		 push	 eax
  00083	e8 00 00 00 00	 call	 _memset

; 90   : 	memcpy(stOut.jmcode, m_InData.jmcode, sizeof(stOut.jmcode));

  00088	f3 0f 7e 47 04	 movq	 xmm0, QWORD PTR [edi+4]

; 91   : 
; 92   : 	strNode = CDataConverter::Parser(strSrc, sFS);	// 기준가

  0008d	83 c4 18	 add	 esp, 24			; 00000018H
  00090	66 8b 47 0c	 mov	 ax, WORD PTR [edi+12]
  00094	8b cc		 mov	 ecx, esp
  00096	66 0f d6 85 a0
	fd ff ff	 movq	 QWORD PTR _stOut$[ebp], xmm0
  0009e	66 89 85 a8 fd
	ff ff		 mov	 WORD PTR _stOut$[ebp+8], ax
  000a5	6a 01		 push	 1
  000a7	6a 0d		 push	 13			; 0000000dH
  000a9	ff 15 00 00 00
	00		 call	 DWORD PTR __imp_??0?$CStringT@DV?$StrTraitMFC_DLL@DV?$ChTraitsCRT@D@ATL@@@@@ATL@@QAE@DH@Z
  000af	8d 85 94 fd ff
	ff		 lea	 eax, DWORD PTR _strSrc$[ebp]
  000b5	50		 push	 eax
  000b6	8d 85 9c fd ff
	ff		 lea	 eax, DWORD PTR $T29[ebp]
  000bc	50		 push	 eax
  000bd	e8 00 00 00 00	 call	 ?Parser@CDataConverter@@SA?AV?$CStringT@DV?$StrTraitMFC_DLL@DV?$ChTraitsCRT@D@ATL@@@@@ATL@@AAV23@V23@@Z ; CDataConverter::Parser
  000c2	83 c4 0c	 add	 esp, 12			; 0000000cH
  000c5	50		 push	 eax
  000c6	8d 8d 98 fd ff
	ff		 lea	 ecx, DWORD PTR _strNode$[ebp]
  000cc	c6 45 fc 02	 mov	 BYTE PTR __$EHRec$[ebp+8], 2
  000d0	ff 15 00 00 00
	00		 call	 DWORD PTR __imp_??4?$CStringT@DV?$StrTraitMFC_DLL@DV?$ChTraitsCRT@D@ATL@@@@@ATL@@QAEAAV01@ABV01@@Z
  000d6	8d 8d 9c fd ff
	ff		 lea	 ecx, DWORD PTR $T29[ebp]
  000dc	c6 45 fc 01	 mov	 BYTE PTR __$EHRec$[ebp+8], 1
  000e0	ff 15 00 00 00
	00		 call	 DWORD PTR __imp_??1?$CStringT@DV?$StrTraitMFC_DLL@DV?$ChTraitsCRT@D@ATL@@@@@ATL@@QAE@XZ
; File C:\Program Files (x86)\Microsoft Visual Studio\2019\Community\VC\Tools\MSVC\14.29.30133\atlmfc\include\atlsimpstr.h

; 519  : 		return( GetData()->nDataLength );

  000e6	8b 85 98 fd ff
	ff		 mov	 eax, DWORD PTR _strNode$[ebp]
; File D:\git\src\IBK\IBK_DRFN\ProjSrc\SrcDrfn\DrCommon\PartnerMng\ChartItemFOForeignHoga.cpp

; 93   : 	memcpy(stOut.jsprice, strNode, min(strNode.GetLength(), sizeof(stOut.jsprice)));

  000ec	be 0a 00 00 00	 mov	 esi, 10			; 0000000aH
  000f1	8b ce		 mov	 ecx, esi
  000f3	39 48 f4	 cmp	 DWORD PTR [eax-12], ecx
  000f6	0f 42 48 f4	 cmovb	 ecx, DWORD PTR [eax-12]
  000fa	51		 push	 ecx
  000fb	50		 push	 eax
  000fc	8d 85 3a ff ff
	ff		 lea	 eax, DWORD PTR _stOut$[ebp+410]
  00102	50		 push	 eax
  00103	e8 00 00 00 00	 call	 _memcpy

; 94   : 	
; 95   : 	strNode = CDataConverter::Parser(strSrc, sFS);	// 현재가

  00108	83 c4 08	 add	 esp, 8
  0010b	8b cc		 mov	 ecx, esp
  0010d	6a 01		 push	 1
  0010f	6a 0d		 push	 13			; 0000000dH
  00111	ff 15 00 00 00
	00		 call	 DWORD PTR __imp_??0?$CStringT@DV?$StrTraitMFC_DLL@DV?$ChTraitsCRT@D@ATL@@@@@ATL@@QAE@DH@Z
  00117	8d 85 94 fd ff
	ff		 lea	 eax, DWORD PTR _strSrc$[ebp]
  0011d	50		 push	 eax
  0011e	8d 85 9c fd ff
	ff		 lea	 eax, DWORD PTR $T28[ebp]
  00124	50		 push	 eax
  00125	e8 00 00 00 00	 call	 ?Parser@CDataConverter@@SA?AV?$CStringT@DV?$StrTraitMFC_DLL@DV?$ChTraitsCRT@D@ATL@@@@@ATL@@AAV23@V23@@Z ; CDataConverter::Parser
  0012a	83 c4 0c	 add	 esp, 12			; 0000000cH
  0012d	50		 push	 eax
  0012e	8d 8d 98 fd ff
	ff		 lea	 ecx, DWORD PTR _strNode$[ebp]
  00134	c6 45 fc 03	 mov	 BYTE PTR __$EHRec$[ebp+8], 3
  00138	ff 15 00 00 00
	00		 call	 DWORD PTR __imp_??4?$CStringT@DV?$StrTraitMFC_DLL@DV?$ChTraitsCRT@D@ATL@@@@@ATL@@QAEAAV01@ABV01@@Z
  0013e	8d 8d 9c fd ff
	ff		 lea	 ecx, DWORD PTR $T28[ebp]
  00144	c6 45 fc 01	 mov	 BYTE PTR __$EHRec$[ebp+8], 1
  00148	ff 15 00 00 00
	00		 call	 DWORD PTR __imp_??1?$CStringT@DV?$StrTraitMFC_DLL@DV?$ChTraitsCRT@D@ATL@@@@@ATL@@QAE@XZ
; File C:\Program Files (x86)\Microsoft Visual Studio\2019\Community\VC\Tools\MSVC\14.29.30133\atlmfc\include\atlsimpstr.h

; 519  : 		return( GetData()->nDataLength );

  0014e	8b 85 98 fd ff
	ff		 mov	 eax, DWORD PTR _strNode$[ebp]
; File D:\git\src\IBK\IBK_DRFN\ProjSrc\SrcDrfn\DrCommon\PartnerMng\ChartItemFOForeignHoga.cpp

; 96   : 	memcpy(stOut.price, strNode, min(strNode.GetLength(), sizeof(stOut.price)));

  00154	8b d6		 mov	 edx, esi
  00156	39 50 f4	 cmp	 DWORD PTR [eax-12], edx
  00159	0f 42 50 f4	 cmovb	 edx, DWORD PTR [eax-12]
  0015d	52		 push	 edx
  0015e	50		 push	 eax
  0015f	8d 85 24 ff ff
	ff		 lea	 eax, DWORD PTR _stOut$[ebp+388]
  00165	50		 push	 eax
  00166	e8 00 00 00 00	 call	 _memcpy

; 97   : 
; 98   : 	strNode = CDataConverter::Parser(strSrc, sFS);	// 매도호가5

  0016b	83 c4 08	 add	 esp, 8
  0016e	8b cc		 mov	 ecx, esp
  00170	6a 01		 push	 1
  00172	6a 0d		 push	 13			; 0000000dH
  00174	ff 15 00 00 00
	00		 call	 DWORD PTR __imp_??0?$CStringT@DV?$StrTraitMFC_DLL@DV?$ChTraitsCRT@D@ATL@@@@@ATL@@QAE@DH@Z
  0017a	8d 85 94 fd ff
	ff		 lea	 eax, DWORD PTR _strSrc$[ebp]
  00180	50		 push	 eax
  00181	8d 85 9c fd ff
	ff		 lea	 eax, DWORD PTR $T27[ebp]
  00187	50		 push	 eax
  00188	e8 00 00 00 00	 call	 ?Parser@CDataConverter@@SA?AV?$CStringT@DV?$StrTraitMFC_DLL@DV?$ChTraitsCRT@D@ATL@@@@@ATL@@AAV23@V23@@Z ; CDataConverter::Parser
  0018d	83 c4 0c	 add	 esp, 12			; 0000000cH
  00190	50		 push	 eax
  00191	8d 8d 98 fd ff
	ff		 lea	 ecx, DWORD PTR _strNode$[ebp]
  00197	c6 45 fc 04	 mov	 BYTE PTR __$EHRec$[ebp+8], 4
  0019b	ff 15 00 00 00
	00		 call	 DWORD PTR __imp_??4?$CStringT@DV?$StrTraitMFC_DLL@DV?$ChTraitsCRT@D@ATL@@@@@ATL@@QAEAAV01@ABV01@@Z
  001a1	8d 8d 9c fd ff
	ff		 lea	 ecx, DWORD PTR $T27[ebp]
  001a7	c6 45 fc 01	 mov	 BYTE PTR __$EHRec$[ebp+8], 1
  001ab	ff 15 00 00 00
	00		 call	 DWORD PTR __imp_??1?$CStringT@DV?$StrTraitMFC_DLL@DV?$ChTraitsCRT@D@ATL@@@@@ATL@@QAE@XZ
; File C:\Program Files (x86)\Microsoft Visual Studio\2019\Community\VC\Tools\MSVC\14.29.30133\atlmfc\include\atlsimpstr.h

; 519  : 		return( GetData()->nDataLength );

  001b1	8b 85 98 fd ff
	ff		 mov	 eax, DWORD PTR _strNode$[ebp]
; File D:\git\src\IBK\IBK_DRFN\ProjSrc\SrcDrfn\DrCommon\PartnerMng\ChartItemFOForeignHoga.cpp

; 99   : 	memcpy(stOut.mdhoga5, strNode, min(strNode.GetLength(), sizeof(stOut.mdhoga5)));

  001b7	8b d6		 mov	 edx, esi
  001b9	39 50 f4	 cmp	 DWORD PTR [eax-12], edx
  001bc	0f 42 50 f4	 cmovb	 edx, DWORD PTR [eax-12]
  001c0	52		 push	 edx
  001c1	50		 push	 eax
  001c2	8d 85 a2 fe ff
	ff		 lea	 eax, DWORD PTR _stOut$[ebp+258]
  001c8	50		 push	 eax
  001c9	e8 00 00 00 00	 call	 _memcpy

; 100  : 	strNode = CDataConverter::Parser(strSrc, sFS);	// 매도잔량5

  001ce	83 c4 08	 add	 esp, 8
  001d1	8b cc		 mov	 ecx, esp
  001d3	6a 01		 push	 1
  001d5	6a 0d		 push	 13			; 0000000dH
  001d7	ff 15 00 00 00
	00		 call	 DWORD PTR __imp_??0?$CStringT@DV?$StrTraitMFC_DLL@DV?$ChTraitsCRT@D@ATL@@@@@ATL@@QAE@DH@Z
  001dd	8d 85 94 fd ff
	ff		 lea	 eax, DWORD PTR _strSrc$[ebp]
  001e3	50		 push	 eax
  001e4	8d 85 9c fd ff
	ff		 lea	 eax, DWORD PTR $T26[ebp]
  001ea	50		 push	 eax
  001eb	e8 00 00 00 00	 call	 ?Parser@CDataConverter@@SA?AV?$CStringT@DV?$StrTraitMFC_DLL@DV?$ChTraitsCRT@D@ATL@@@@@ATL@@AAV23@V23@@Z ; CDataConverter::Parser
  001f0	83 c4 0c	 add	 esp, 12			; 0000000cH
  001f3	50		 push	 eax
  001f4	8d 8d 98 fd ff
	ff		 lea	 ecx, DWORD PTR _strNode$[ebp]
  001fa	c6 45 fc 05	 mov	 BYTE PTR __$EHRec$[ebp+8], 5
  001fe	ff 15 00 00 00
	00		 call	 DWORD PTR __imp_??4?$CStringT@DV?$StrTraitMFC_DLL@DV?$ChTraitsCRT@D@ATL@@@@@ATL@@QAEAAV01@ABV01@@Z
  00204	8d 8d 9c fd ff
	ff		 lea	 ecx, DWORD PTR $T26[ebp]
  0020a	c6 45 fc 01	 mov	 BYTE PTR __$EHRec$[ebp+8], 1
  0020e	ff 15 00 00 00
	00		 call	 DWORD PTR __imp_??1?$CStringT@DV?$StrTraitMFC_DLL@DV?$ChTraitsCRT@D@ATL@@@@@ATL@@QAE@XZ
; File C:\Program Files (x86)\Microsoft Visual Studio\2019\Community\VC\Tools\MSVC\14.29.30133\atlmfc\include\atlsimpstr.h

; 519  : 		return( GetData()->nDataLength );

  00214	8b 85 98 fd ff
	ff		 mov	 eax, DWORD PTR _strNode$[ebp]
; File D:\git\src\IBK\IBK_DRFN\ProjSrc\SrcDrfn\DrCommon\PartnerMng\ChartItemFOForeignHoga.cpp

; 101  : 	memcpy(stOut.mdhorem5, strNode, min(strNode.GetLength(), sizeof(stOut.mdhorem5)));

  0021a	8b d6		 mov	 edx, esi
  0021c	39 50 f4	 cmp	 DWORD PTR [eax-12], edx
  0021f	0f 42 50 f4	 cmovb	 edx, DWORD PTR [eax-12]
  00223	52		 push	 edx
  00224	50		 push	 eax
  00225	8d 85 b6 fe ff
	ff		 lea	 eax, DWORD PTR _stOut$[ebp+278]
  0022b	50		 push	 eax
  0022c	e8 00 00 00 00	 call	 _memcpy

; 102  : 
; 103  : 	strNode = CDataConverter::Parser(strSrc, sFS);	// 매도호가4

  00231	83 c4 08	 add	 esp, 8
  00234	8b cc		 mov	 ecx, esp
  00236	6a 01		 push	 1
  00238	6a 0d		 push	 13			; 0000000dH
  0023a	ff 15 00 00 00
	00		 call	 DWORD PTR __imp_??0?$CStringT@DV?$StrTraitMFC_DLL@DV?$ChTraitsCRT@D@ATL@@@@@ATL@@QAE@DH@Z
  00240	8d 85 94 fd ff
	ff		 lea	 eax, DWORD PTR _strSrc$[ebp]
  00246	50		 push	 eax
  00247	8d 85 9c fd ff
	ff		 lea	 eax, DWORD PTR $T25[ebp]
  0024d	50		 push	 eax
  0024e	e8 00 00 00 00	 call	 ?Parser@CDataConverter@@SA?AV?$CStringT@DV?$StrTraitMFC_DLL@DV?$ChTraitsCRT@D@ATL@@@@@ATL@@AAV23@V23@@Z ; CDataConverter::Parser
  00253	83 c4 0c	 add	 esp, 12			; 0000000cH
  00256	50		 push	 eax
  00257	8d 8d 98 fd ff
	ff		 lea	 ecx, DWORD PTR _strNode$[ebp]
  0025d	c6 45 fc 06	 mov	 BYTE PTR __$EHRec$[ebp+8], 6
  00261	ff 15 00 00 00
	00		 call	 DWORD PTR __imp_??4?$CStringT@DV?$StrTraitMFC_DLL@DV?$ChTraitsCRT@D@ATL@@@@@ATL@@QAEAAV01@ABV01@@Z
  00267	8d 8d 9c fd ff
	ff		 lea	 ecx, DWORD PTR $T25[ebp]
  0026d	c6 45 fc 01	 mov	 BYTE PTR __$EHRec$[ebp+8], 1
  00271	ff 15 00 00 00
	00		 call	 DWORD PTR __imp_??1?$CStringT@DV?$StrTraitMFC_DLL@DV?$ChTraitsCRT@D@ATL@@@@@ATL@@QAE@XZ
; File C:\Program Files (x86)\Microsoft Visual Studio\2019\Community\VC\Tools\MSVC\14.29.30133\atlmfc\include\atlsimpstr.h

; 519  : 		return( GetData()->nDataLength );

  00277	8b 85 98 fd ff
	ff		 mov	 eax, DWORD PTR _strNode$[ebp]
; File D:\git\src\IBK\IBK_DRFN\ProjSrc\SrcDrfn\DrCommon\PartnerMng\ChartItemFOForeignHoga.cpp

; 104  : 	memcpy(stOut.mdhoga4, strNode, min(strNode.GetLength(), sizeof(stOut.mdhoga4)));

  0027d	8b d6		 mov	 edx, esi
  0027f	39 50 f4	 cmp	 DWORD PTR [eax-12], edx
  00282	0f 42 50 f4	 cmovb	 edx, DWORD PTR [eax-12]
  00286	52		 push	 edx
  00287	50		 push	 eax
  00288	8d 85 66 fe ff
	ff		 lea	 eax, DWORD PTR _stOut$[ebp+198]
  0028e	50		 push	 eax
  0028f	e8 00 00 00 00	 call	 _memcpy

; 105  : 	strNode = CDataConverter::Parser(strSrc, sFS);	// 매도잔량4

  00294	83 c4 08	 add	 esp, 8
  00297	8b cc		 mov	 ecx, esp
  00299	6a 01		 push	 1
  0029b	6a 0d		 push	 13			; 0000000dH
  0029d	ff 15 00 00 00
	00		 call	 DWORD PTR __imp_??0?$CStringT@DV?$StrTraitMFC_DLL@DV?$ChTraitsCRT@D@ATL@@@@@ATL@@QAE@DH@Z
  002a3	8d 85 94 fd ff
	ff		 lea	 eax, DWORD PTR _strSrc$[ebp]
  002a9	50		 push	 eax
  002aa	8d 85 9c fd ff
	ff		 lea	 eax, DWORD PTR $T24[ebp]
  002b0	50		 push	 eax
  002b1	e8 00 00 00 00	 call	 ?Parser@CDataConverter@@SA?AV?$CStringT@DV?$StrTraitMFC_DLL@DV?$ChTraitsCRT@D@ATL@@@@@ATL@@AAV23@V23@@Z ; CDataConverter::Parser
  002b6	83 c4 0c	 add	 esp, 12			; 0000000cH
  002b9	50		 push	 eax
  002ba	8d 8d 98 fd ff
	ff		 lea	 ecx, DWORD PTR _strNode$[ebp]
  002c0	c6 45 fc 07	 mov	 BYTE PTR __$EHRec$[ebp+8], 7
  002c4	ff 15 00 00 00
	00		 call	 DWORD PTR __imp_??4?$CStringT@DV?$StrTraitMFC_DLL@DV?$ChTraitsCRT@D@ATL@@@@@ATL@@QAEAAV01@ABV01@@Z
  002ca	8d 8d 9c fd ff
	ff		 lea	 ecx, DWORD PTR $T24[ebp]
  002d0	c6 45 fc 01	 mov	 BYTE PTR __$EHRec$[ebp+8], 1
  002d4	ff 15 00 00 00
	00		 call	 DWORD PTR __imp_??1?$CStringT@DV?$StrTraitMFC_DLL@DV?$ChTraitsCRT@D@ATL@@@@@ATL@@QAE@XZ
; File C:\Program Files (x86)\Microsoft Visual Studio\2019\Community\VC\Tools\MSVC\14.29.30133\atlmfc\include\atlsimpstr.h

; 519  : 		return( GetData()->nDataLength );

  002da	8b 85 98 fd ff
	ff		 mov	 eax, DWORD PTR _strNode$[ebp]
; File D:\git\src\IBK\IBK_DRFN\ProjSrc\SrcDrfn\DrCommon\PartnerMng\ChartItemFOForeignHoga.cpp

; 106  : 	memcpy(stOut.mdhorem4, strNode, min(strNode.GetLength(), sizeof(stOut.mdhorem4)));

  002e0	8b d6		 mov	 edx, esi
  002e2	39 50 f4	 cmp	 DWORD PTR [eax-12], edx
  002e5	0f 42 50 f4	 cmovb	 edx, DWORD PTR [eax-12]
  002e9	52		 push	 edx
  002ea	50		 push	 eax
  002eb	8d 85 7a fe ff
	ff		 lea	 eax, DWORD PTR _stOut$[ebp+218]
  002f1	50		 push	 eax
  002f2	e8 00 00 00 00	 call	 _memcpy

; 107  : 	
; 108  : 	strNode = CDataConverter::Parser(strSrc, sFS);	// 매도호가3

  002f7	83 c4 08	 add	 esp, 8
  002fa	8b cc		 mov	 ecx, esp
  002fc	6a 01		 push	 1
  002fe	6a 0d		 push	 13			; 0000000dH
  00300	ff 15 00 00 00
	00		 call	 DWORD PTR __imp_??0?$CStringT@DV?$StrTraitMFC_DLL@DV?$ChTraitsCRT@D@ATL@@@@@ATL@@QAE@DH@Z
  00306	8d 85 94 fd ff
	ff		 lea	 eax, DWORD PTR _strSrc$[ebp]
  0030c	50		 push	 eax
  0030d	8d 85 9c fd ff
	ff		 lea	 eax, DWORD PTR $T23[ebp]
  00313	50		 push	 eax
  00314	e8 00 00 00 00	 call	 ?Parser@CDataConverter@@SA?AV?$CStringT@DV?$StrTraitMFC_DLL@DV?$ChTraitsCRT@D@ATL@@@@@ATL@@AAV23@V23@@Z ; CDataConverter::Parser
  00319	83 c4 0c	 add	 esp, 12			; 0000000cH
  0031c	50		 push	 eax
  0031d	8d 8d 98 fd ff
	ff		 lea	 ecx, DWORD PTR _strNode$[ebp]
  00323	c6 45 fc 08	 mov	 BYTE PTR __$EHRec$[ebp+8], 8
  00327	ff 15 00 00 00
	00		 call	 DWORD PTR __imp_??4?$CStringT@DV?$StrTraitMFC_DLL@DV?$ChTraitsCRT@D@ATL@@@@@ATL@@QAEAAV01@ABV01@@Z
  0032d	8d 8d 9c fd ff
	ff		 lea	 ecx, DWORD PTR $T23[ebp]
  00333	c6 45 fc 01	 mov	 BYTE PTR __$EHRec$[ebp+8], 1
  00337	ff 15 00 00 00
	00		 call	 DWORD PTR __imp_??1?$CStringT@DV?$StrTraitMFC_DLL@DV?$ChTraitsCRT@D@ATL@@@@@ATL@@QAE@XZ
; File C:\Program Files (x86)\Microsoft Visual Studio\2019\Community\VC\Tools\MSVC\14.29.30133\atlmfc\include\atlsimpstr.h

; 519  : 		return( GetData()->nDataLength );

  0033d	8b 85 98 fd ff
	ff		 mov	 eax, DWORD PTR _strNode$[ebp]
; File D:\git\src\IBK\IBK_DRFN\ProjSrc\SrcDrfn\DrCommon\PartnerMng\ChartItemFOForeignHoga.cpp

; 109  : 	memcpy(stOut.mdhoga3, strNode, min(strNode.GetLength(), sizeof(stOut.mdhoga3)));

  00343	8b d6		 mov	 edx, esi
  00345	39 50 f4	 cmp	 DWORD PTR [eax-12], edx
  00348	0f 42 50 f4	 cmovb	 edx, DWORD PTR [eax-12]
  0034c	52		 push	 edx
  0034d	50		 push	 eax
  0034e	8d 85 2a fe ff
	ff		 lea	 eax, DWORD PTR _stOut$[ebp+138]
  00354	50		 push	 eax
  00355	e8 00 00 00 00	 call	 _memcpy

; 110  : 	strNode = CDataConverter::Parser(strSrc, sFS);	// 매도잔량3

  0035a	83 c4 08	 add	 esp, 8
  0035d	8b cc		 mov	 ecx, esp
  0035f	6a 01		 push	 1
  00361	6a 0d		 push	 13			; 0000000dH
  00363	ff 15 00 00 00
	00		 call	 DWORD PTR __imp_??0?$CStringT@DV?$StrTraitMFC_DLL@DV?$ChTraitsCRT@D@ATL@@@@@ATL@@QAE@DH@Z
  00369	8d 85 94 fd ff
	ff		 lea	 eax, DWORD PTR _strSrc$[ebp]
  0036f	50		 push	 eax
  00370	8d 85 9c fd ff
	ff		 lea	 eax, DWORD PTR $T22[ebp]
  00376	50		 push	 eax
  00377	e8 00 00 00 00	 call	 ?Parser@CDataConverter@@SA?AV?$CStringT@DV?$StrTraitMFC_DLL@DV?$ChTraitsCRT@D@ATL@@@@@ATL@@AAV23@V23@@Z ; CDataConverter::Parser
  0037c	83 c4 0c	 add	 esp, 12			; 0000000cH
  0037f	50		 push	 eax
  00380	8d 8d 98 fd ff
	ff		 lea	 ecx, DWORD PTR _strNode$[ebp]
  00386	c6 45 fc 09	 mov	 BYTE PTR __$EHRec$[ebp+8], 9
  0038a	ff 15 00 00 00
	00		 call	 DWORD PTR __imp_??4?$CStringT@DV?$StrTraitMFC_DLL@DV?$ChTraitsCRT@D@ATL@@@@@ATL@@QAEAAV01@ABV01@@Z
  00390	8d 8d 9c fd ff
	ff		 lea	 ecx, DWORD PTR $T22[ebp]
  00396	c6 45 fc 01	 mov	 BYTE PTR __$EHRec$[ebp+8], 1
  0039a	ff 15 00 00 00
	00		 call	 DWORD PTR __imp_??1?$CStringT@DV?$StrTraitMFC_DLL@DV?$ChTraitsCRT@D@ATL@@@@@ATL@@QAE@XZ
; File C:\Program Files (x86)\Microsoft Visual Studio\2019\Community\VC\Tools\MSVC\14.29.30133\atlmfc\include\atlsimpstr.h

; 519  : 		return( GetData()->nDataLength );

  003a0	8b 85 98 fd ff
	ff		 mov	 eax, DWORD PTR _strNode$[ebp]
; File D:\git\src\IBK\IBK_DRFN\ProjSrc\SrcDrfn\DrCommon\PartnerMng\ChartItemFOForeignHoga.cpp

; 111  : 	memcpy(stOut.mdhorem3, strNode, min(strNode.GetLength(), sizeof(stOut.mdhorem3)));

  003a6	8b d6		 mov	 edx, esi
  003a8	39 50 f4	 cmp	 DWORD PTR [eax-12], edx
  003ab	0f 42 50 f4	 cmovb	 edx, DWORD PTR [eax-12]
  003af	52		 push	 edx
  003b0	50		 push	 eax
  003b1	8d 85 3e fe ff
	ff		 lea	 eax, DWORD PTR _stOut$[ebp+158]
  003b7	50		 push	 eax
  003b8	e8 00 00 00 00	 call	 _memcpy

; 112  : 	
; 113  : 	strNode = CDataConverter::Parser(strSrc, sFS);	// 매도호가2

  003bd	83 c4 08	 add	 esp, 8
  003c0	8b cc		 mov	 ecx, esp
  003c2	6a 01		 push	 1
  003c4	6a 0d		 push	 13			; 0000000dH
  003c6	ff 15 00 00 00
	00		 call	 DWORD PTR __imp_??0?$CStringT@DV?$StrTraitMFC_DLL@DV?$ChTraitsCRT@D@ATL@@@@@ATL@@QAE@DH@Z
  003cc	8d 85 94 fd ff
	ff		 lea	 eax, DWORD PTR _strSrc$[ebp]
  003d2	50		 push	 eax
  003d3	8d 85 9c fd ff
	ff		 lea	 eax, DWORD PTR $T21[ebp]
  003d9	50		 push	 eax
  003da	e8 00 00 00 00	 call	 ?Parser@CDataConverter@@SA?AV?$CStringT@DV?$StrTraitMFC_DLL@DV?$ChTraitsCRT@D@ATL@@@@@ATL@@AAV23@V23@@Z ; CDataConverter::Parser
  003df	83 c4 0c	 add	 esp, 12			; 0000000cH
  003e2	50		 push	 eax
  003e3	8d 8d 98 fd ff
	ff		 lea	 ecx, DWORD PTR _strNode$[ebp]
  003e9	c6 45 fc 0a	 mov	 BYTE PTR __$EHRec$[ebp+8], 10 ; 0000000aH
  003ed	ff 15 00 00 00
	00		 call	 DWORD PTR __imp_??4?$CStringT@DV?$StrTraitMFC_DLL@DV?$ChTraitsCRT@D@ATL@@@@@ATL@@QAEAAV01@ABV01@@Z
  003f3	8d 8d 9c fd ff
	ff		 lea	 ecx, DWORD PTR $T21[ebp]
  003f9	c6 45 fc 01	 mov	 BYTE PTR __$EHRec$[ebp+8], 1
  003fd	ff 15 00 00 00
	00		 call	 DWORD PTR __imp_??1?$CStringT@DV?$StrTraitMFC_DLL@DV?$ChTraitsCRT@D@ATL@@@@@ATL@@QAE@XZ
; File C:\Program Files (x86)\Microsoft Visual Studio\2019\Community\VC\Tools\MSVC\14.29.30133\atlmfc\include\atlsimpstr.h

; 519  : 		return( GetData()->nDataLength );

  00403	8b 85 98 fd ff
	ff		 mov	 eax, DWORD PTR _strNode$[ebp]
; File D:\git\src\IBK\IBK_DRFN\ProjSrc\SrcDrfn\DrCommon\PartnerMng\ChartItemFOForeignHoga.cpp

; 114  : 	memcpy(stOut.mdhoga2, strNode, min(strNode.GetLength(), sizeof(stOut.mdhoga2)));

  00409	8b d6		 mov	 edx, esi
  0040b	39 50 f4	 cmp	 DWORD PTR [eax-12], edx
  0040e	0f 42 50 f4	 cmovb	 edx, DWORD PTR [eax-12]
  00412	52		 push	 edx
  00413	50		 push	 eax
  00414	8d 85 ee fd ff
	ff		 lea	 eax, DWORD PTR _stOut$[ebp+78]
  0041a	50		 push	 eax
  0041b	e8 00 00 00 00	 call	 _memcpy

; 115  : 	strNode = CDataConverter::Parser(strSrc, sFS);	// 매도잔량2

  00420	83 c4 08	 add	 esp, 8
  00423	8b cc		 mov	 ecx, esp
  00425	6a 01		 push	 1
  00427	6a 0d		 push	 13			; 0000000dH
  00429	ff 15 00 00 00
	00		 call	 DWORD PTR __imp_??0?$CStringT@DV?$StrTraitMFC_DLL@DV?$ChTraitsCRT@D@ATL@@@@@ATL@@QAE@DH@Z
  0042f	8d 85 94 fd ff
	ff		 lea	 eax, DWORD PTR _strSrc$[ebp]
  00435	50		 push	 eax
  00436	8d 85 9c fd ff
	ff		 lea	 eax, DWORD PTR $T20[ebp]
  0043c	50		 push	 eax
  0043d	e8 00 00 00 00	 call	 ?Parser@CDataConverter@@SA?AV?$CStringT@DV?$StrTraitMFC_DLL@DV?$ChTraitsCRT@D@ATL@@@@@ATL@@AAV23@V23@@Z ; CDataConverter::Parser
  00442	83 c4 0c	 add	 esp, 12			; 0000000cH
  00445	50		 push	 eax
  00446	8d 8d 98 fd ff
	ff		 lea	 ecx, DWORD PTR _strNode$[ebp]
  0044c	c6 45 fc 0b	 mov	 BYTE PTR __$EHRec$[ebp+8], 11 ; 0000000bH
  00450	ff 15 00 00 00
	00		 call	 DWORD PTR __imp_??4?$CStringT@DV?$StrTraitMFC_DLL@DV?$ChTraitsCRT@D@ATL@@@@@ATL@@QAEAAV01@ABV01@@Z
  00456	8d 8d 9c fd ff
	ff		 lea	 ecx, DWORD PTR $T20[ebp]
  0045c	c6 45 fc 01	 mov	 BYTE PTR __$EHRec$[ebp+8], 1
  00460	ff 15 00 00 00
	00		 call	 DWORD PTR __imp_??1?$CStringT@DV?$StrTraitMFC_DLL@DV?$ChTraitsCRT@D@ATL@@@@@ATL@@QAE@XZ
; File C:\Program Files (x86)\Microsoft Visual Studio\2019\Community\VC\Tools\MSVC\14.29.30133\atlmfc\include\atlsimpstr.h

; 519  : 		return( GetData()->nDataLength );

  00466	8b 85 98 fd ff
	ff		 mov	 eax, DWORD PTR _strNode$[ebp]
; File D:\git\src\IBK\IBK_DRFN\ProjSrc\SrcDrfn\DrCommon\PartnerMng\ChartItemFOForeignHoga.cpp

; 116  : 	memcpy(stOut.mdhorem2, strNode, min(strNode.GetLength(), sizeof(stOut.mdhorem2)));

  0046c	8b d6		 mov	 edx, esi
  0046e	39 50 f4	 cmp	 DWORD PTR [eax-12], edx
  00471	0f 42 50 f4	 cmovb	 edx, DWORD PTR [eax-12]
  00475	52		 push	 edx
  00476	50		 push	 eax
  00477	8d 85 02 fe ff
	ff		 lea	 eax, DWORD PTR _stOut$[ebp+98]
  0047d	50		 push	 eax
  0047e	e8 00 00 00 00	 call	 _memcpy

; 117  : 	
; 118  : 	strNode = CDataConverter::Parser(strSrc, sFS);	// 매도호가1

  00483	83 c4 08	 add	 esp, 8
  00486	8b cc		 mov	 ecx, esp
  00488	6a 01		 push	 1
  0048a	6a 0d		 push	 13			; 0000000dH
  0048c	ff 15 00 00 00
	00		 call	 DWORD PTR __imp_??0?$CStringT@DV?$StrTraitMFC_DLL@DV?$ChTraitsCRT@D@ATL@@@@@ATL@@QAE@DH@Z
  00492	8d 85 94 fd ff
	ff		 lea	 eax, DWORD PTR _strSrc$[ebp]
  00498	50		 push	 eax
  00499	8d 85 9c fd ff
	ff		 lea	 eax, DWORD PTR $T19[ebp]
  0049f	50		 push	 eax
  004a0	e8 00 00 00 00	 call	 ?Parser@CDataConverter@@SA?AV?$CStringT@DV?$StrTraitMFC_DLL@DV?$ChTraitsCRT@D@ATL@@@@@ATL@@AAV23@V23@@Z ; CDataConverter::Parser
  004a5	83 c4 0c	 add	 esp, 12			; 0000000cH
  004a8	50		 push	 eax
  004a9	8d 8d 98 fd ff
	ff		 lea	 ecx, DWORD PTR _strNode$[ebp]
  004af	c6 45 fc 0c	 mov	 BYTE PTR __$EHRec$[ebp+8], 12 ; 0000000cH
  004b3	ff 15 00 00 00
	00		 call	 DWORD PTR __imp_??4?$CStringT@DV?$StrTraitMFC_DLL@DV?$ChTraitsCRT@D@ATL@@@@@ATL@@QAEAAV01@ABV01@@Z
  004b9	c6 45 fc 01	 mov	 BYTE PTR __$EHRec$[ebp+8], 1
  004bd	8d 8d 9c fd ff
	ff		 lea	 ecx, DWORD PTR $T19[ebp]
  004c3	ff 15 00 00 00
	00		 call	 DWORD PTR __imp_??1?$CStringT@DV?$StrTraitMFC_DLL@DV?$ChTraitsCRT@D@ATL@@@@@ATL@@QAE@XZ
; File C:\Program Files (x86)\Microsoft Visual Studio\2019\Community\VC\Tools\MSVC\14.29.30133\atlmfc\include\atlsimpstr.h

; 519  : 		return( GetData()->nDataLength );

  004c9	8b 85 98 fd ff
	ff		 mov	 eax, DWORD PTR _strNode$[ebp]
; File D:\git\src\IBK\IBK_DRFN\ProjSrc\SrcDrfn\DrCommon\PartnerMng\ChartItemFOForeignHoga.cpp

; 119  : 	memcpy(stOut.mdhoga1, strNode, min(strNode.GetLength(), sizeof(stOut.mdhoga1)));

  004cf	8b d6		 mov	 edx, esi
  004d1	39 50 f4	 cmp	 DWORD PTR [eax-12], edx
  004d4	0f 42 50 f4	 cmovb	 edx, DWORD PTR [eax-12]
  004d8	52		 push	 edx
  004d9	50		 push	 eax
  004da	8d 85 b2 fd ff
	ff		 lea	 eax, DWORD PTR _stOut$[ebp+18]
  004e0	50		 push	 eax
  004e1	e8 00 00 00 00	 call	 _memcpy

; 120  : 	strNode = CDataConverter::Parser(strSrc, sFS);	// 매도잔량1

  004e6	83 c4 08	 add	 esp, 8
  004e9	8b cc		 mov	 ecx, esp
  004eb	6a 01		 push	 1
  004ed	6a 0d		 push	 13			; 0000000dH
  004ef	ff 15 00 00 00
	00		 call	 DWORD PTR __imp_??0?$CStringT@DV?$StrTraitMFC_DLL@DV?$ChTraitsCRT@D@ATL@@@@@ATL@@QAE@DH@Z
  004f5	8d 85 94 fd ff
	ff		 lea	 eax, DWORD PTR _strSrc$[ebp]
  004fb	50		 push	 eax
  004fc	8d 85 9c fd ff
	ff		 lea	 eax, DWORD PTR $T18[ebp]
  00502	50		 push	 eax
  00503	e8 00 00 00 00	 call	 ?Parser@CDataConverter@@SA?AV?$CStringT@DV?$StrTraitMFC_DLL@DV?$ChTraitsCRT@D@ATL@@@@@ATL@@AAV23@V23@@Z ; CDataConverter::Parser
  00508	83 c4 0c	 add	 esp, 12			; 0000000cH
  0050b	50		 push	 eax
  0050c	8d 8d 98 fd ff
	ff		 lea	 ecx, DWORD PTR _strNode$[ebp]
  00512	c6 45 fc 0d	 mov	 BYTE PTR __$EHRec$[ebp+8], 13 ; 0000000dH
  00516	ff 15 00 00 00
	00		 call	 DWORD PTR __imp_??4?$CStringT@DV?$StrTraitMFC_DLL@DV?$ChTraitsCRT@D@ATL@@@@@ATL@@QAEAAV01@ABV01@@Z
  0051c	8d 8d 9c fd ff
	ff		 lea	 ecx, DWORD PTR $T18[ebp]
  00522	c6 45 fc 01	 mov	 BYTE PTR __$EHRec$[ebp+8], 1
  00526	ff 15 00 00 00
	00		 call	 DWORD PTR __imp_??1?$CStringT@DV?$StrTraitMFC_DLL@DV?$ChTraitsCRT@D@ATL@@@@@ATL@@QAE@XZ
; File C:\Program Files (x86)\Microsoft Visual Studio\2019\Community\VC\Tools\MSVC\14.29.30133\atlmfc\include\atlsimpstr.h

; 519  : 		return( GetData()->nDataLength );

  0052c	8b 85 98 fd ff
	ff		 mov	 eax, DWORD PTR _strNode$[ebp]
; File D:\git\src\IBK\IBK_DRFN\ProjSrc\SrcDrfn\DrCommon\PartnerMng\ChartItemFOForeignHoga.cpp

; 121  : 	memcpy(stOut.mdhorem1, strNode, min(strNode.GetLength(), sizeof(stOut.mdhorem1)));

  00532	8b d6		 mov	 edx, esi
  00534	39 50 f4	 cmp	 DWORD PTR [eax-12], edx
  00537	0f 42 50 f4	 cmovb	 edx, DWORD PTR [eax-12]
  0053b	52		 push	 edx
  0053c	50		 push	 eax
  0053d	8d 85 c6 fd ff
	ff		 lea	 eax, DWORD PTR _stOut$[ebp+38]
  00543	50		 push	 eax
  00544	e8 00 00 00 00	 call	 _memcpy

; 122  : 
; 123  : 	strNode = CDataConverter::Parser(strSrc, sFS);	// 매수호가1

  00549	83 c4 08	 add	 esp, 8
  0054c	8b cc		 mov	 ecx, esp
  0054e	6a 01		 push	 1
  00550	6a 0d		 push	 13			; 0000000dH
  00552	ff 15 00 00 00
	00		 call	 DWORD PTR __imp_??0?$CStringT@DV?$StrTraitMFC_DLL@DV?$ChTraitsCRT@D@ATL@@@@@ATL@@QAE@DH@Z
  00558	8d 85 94 fd ff
	ff		 lea	 eax, DWORD PTR _strSrc$[ebp]
  0055e	50		 push	 eax
  0055f	8d 85 9c fd ff
	ff		 lea	 eax, DWORD PTR $T17[ebp]
  00565	50		 push	 eax
  00566	e8 00 00 00 00	 call	 ?Parser@CDataConverter@@SA?AV?$CStringT@DV?$StrTraitMFC_DLL@DV?$ChTraitsCRT@D@ATL@@@@@ATL@@AAV23@V23@@Z ; CDataConverter::Parser
  0056b	83 c4 0c	 add	 esp, 12			; 0000000cH
  0056e	50		 push	 eax
  0056f	8d 8d 98 fd ff
	ff		 lea	 ecx, DWORD PTR _strNode$[ebp]
  00575	c6 45 fc 0e	 mov	 BYTE PTR __$EHRec$[ebp+8], 14 ; 0000000eH
  00579	ff 15 00 00 00
	00		 call	 DWORD PTR __imp_??4?$CStringT@DV?$StrTraitMFC_DLL@DV?$ChTraitsCRT@D@ATL@@@@@ATL@@QAEAAV01@ABV01@@Z
  0057f	8d 8d 9c fd ff
	ff		 lea	 ecx, DWORD PTR $T17[ebp]
  00585	c6 45 fc 01	 mov	 BYTE PTR __$EHRec$[ebp+8], 1
  00589	ff 15 00 00 00
	00		 call	 DWORD PTR __imp_??1?$CStringT@DV?$StrTraitMFC_DLL@DV?$ChTraitsCRT@D@ATL@@@@@ATL@@QAE@XZ
; File C:\Program Files (x86)\Microsoft Visual Studio\2019\Community\VC\Tools\MSVC\14.29.30133\atlmfc\include\atlsimpstr.h

; 519  : 		return( GetData()->nDataLength );

  0058f	8b 85 98 fd ff
	ff		 mov	 eax, DWORD PTR _strNode$[ebp]
; File D:\git\src\IBK\IBK_DRFN\ProjSrc\SrcDrfn\DrCommon\PartnerMng\ChartItemFOForeignHoga.cpp

; 124  : 	memcpy(stOut.mshoga1, strNode, min(strNode.GetLength(), sizeof(stOut.mshoga1)));

  00595	8b d6		 mov	 edx, esi
  00597	39 50 f4	 cmp	 DWORD PTR [eax-12], edx
  0059a	0f 42 50 f4	 cmovb	 edx, DWORD PTR [eax-12]
  0059e	52		 push	 edx
  0059f	50		 push	 eax
  005a0	8d 85 bc fd ff
	ff		 lea	 eax, DWORD PTR _stOut$[ebp+28]
  005a6	50		 push	 eax
  005a7	e8 00 00 00 00	 call	 _memcpy

; 125  : 	strNode = CDataConverter::Parser(strSrc, sFS);	// 매수잔량1

  005ac	83 c4 08	 add	 esp, 8
  005af	8b cc		 mov	 ecx, esp
  005b1	6a 01		 push	 1
  005b3	6a 0d		 push	 13			; 0000000dH
  005b5	ff 15 00 00 00
	00		 call	 DWORD PTR __imp_??0?$CStringT@DV?$StrTraitMFC_DLL@DV?$ChTraitsCRT@D@ATL@@@@@ATL@@QAE@DH@Z
  005bb	8d 85 94 fd ff
	ff		 lea	 eax, DWORD PTR _strSrc$[ebp]
  005c1	50		 push	 eax
  005c2	8d 85 9c fd ff
	ff		 lea	 eax, DWORD PTR $T16[ebp]
  005c8	50		 push	 eax
  005c9	e8 00 00 00 00	 call	 ?Parser@CDataConverter@@SA?AV?$CStringT@DV?$StrTraitMFC_DLL@DV?$ChTraitsCRT@D@ATL@@@@@ATL@@AAV23@V23@@Z ; CDataConverter::Parser
  005ce	83 c4 0c	 add	 esp, 12			; 0000000cH
  005d1	c6 45 fc 0f	 mov	 BYTE PTR __$EHRec$[ebp+8], 15 ; 0000000fH
  005d5	50		 push	 eax
  005d6	8d 8d 98 fd ff
	ff		 lea	 ecx, DWORD PTR _strNode$[ebp]
  005dc	ff 15 00 00 00
	00		 call	 DWORD PTR __imp_??4?$CStringT@DV?$StrTraitMFC_DLL@DV?$ChTraitsCRT@D@ATL@@@@@ATL@@QAEAAV01@ABV01@@Z
  005e2	8d 8d 9c fd ff
	ff		 lea	 ecx, DWORD PTR $T16[ebp]
  005e8	c6 45 fc 01	 mov	 BYTE PTR __$EHRec$[ebp+8], 1
  005ec	ff 15 00 00 00
	00		 call	 DWORD PTR __imp_??1?$CStringT@DV?$StrTraitMFC_DLL@DV?$ChTraitsCRT@D@ATL@@@@@ATL@@QAE@XZ
; File C:\Program Files (x86)\Microsoft Visual Studio\2019\Community\VC\Tools\MSVC\14.29.30133\atlmfc\include\atlsimpstr.h

; 519  : 		return( GetData()->nDataLength );

  005f2	8b 85 98 fd ff
	ff		 mov	 eax, DWORD PTR _strNode$[ebp]
; File D:\git\src\IBK\IBK_DRFN\ProjSrc\SrcDrfn\DrCommon\PartnerMng\ChartItemFOForeignHoga.cpp

; 126  : 	memcpy(stOut.mshorem1, strNode, min(strNode.GetLength(), sizeof(stOut.mshorem1)));

  005f8	8b d6		 mov	 edx, esi
  005fa	39 50 f4	 cmp	 DWORD PTR [eax-12], edx
  005fd	0f 42 50 f4	 cmovb	 edx, DWORD PTR [eax-12]
  00601	52		 push	 edx
  00602	50		 push	 eax
  00603	8d 85 d0 fd ff
	ff		 lea	 eax, DWORD PTR _stOut$[ebp+48]
  00609	50		 push	 eax
  0060a	e8 00 00 00 00	 call	 _memcpy

; 127  : 	
; 128  : 	strNode = CDataConverter::Parser(strSrc, sFS);	// 매수호가2

  0060f	83 c4 08	 add	 esp, 8
  00612	8b cc		 mov	 ecx, esp
  00614	6a 01		 push	 1
  00616	6a 0d		 push	 13			; 0000000dH
  00618	ff 15 00 00 00
	00		 call	 DWORD PTR __imp_??0?$CStringT@DV?$StrTraitMFC_DLL@DV?$ChTraitsCRT@D@ATL@@@@@ATL@@QAE@DH@Z
  0061e	8d 85 94 fd ff
	ff		 lea	 eax, DWORD PTR _strSrc$[ebp]
  00624	50		 push	 eax
  00625	8d 85 9c fd ff
	ff		 lea	 eax, DWORD PTR $T15[ebp]
  0062b	50		 push	 eax
  0062c	e8 00 00 00 00	 call	 ?Parser@CDataConverter@@SA?AV?$CStringT@DV?$StrTraitMFC_DLL@DV?$ChTraitsCRT@D@ATL@@@@@ATL@@AAV23@V23@@Z ; CDataConverter::Parser
  00631	83 c4 0c	 add	 esp, 12			; 0000000cH
  00634	50		 push	 eax
  00635	8d 8d 98 fd ff
	ff		 lea	 ecx, DWORD PTR _strNode$[ebp]
  0063b	c6 45 fc 10	 mov	 BYTE PTR __$EHRec$[ebp+8], 16 ; 00000010H
  0063f	ff 15 00 00 00
	00		 call	 DWORD PTR __imp_??4?$CStringT@DV?$StrTraitMFC_DLL@DV?$ChTraitsCRT@D@ATL@@@@@ATL@@QAEAAV01@ABV01@@Z
  00645	8d 8d 9c fd ff
	ff		 lea	 ecx, DWORD PTR $T15[ebp]
  0064b	c6 45 fc 01	 mov	 BYTE PTR __$EHRec$[ebp+8], 1
  0064f	ff 15 00 00 00
	00		 call	 DWORD PTR __imp_??1?$CStringT@DV?$StrTraitMFC_DLL@DV?$ChTraitsCRT@D@ATL@@@@@ATL@@QAE@XZ
; File C:\Program Files (x86)\Microsoft Visual Studio\2019\Community\VC\Tools\MSVC\14.29.30133\atlmfc\include\atlsimpstr.h

; 519  : 		return( GetData()->nDataLength );

  00655	8b 85 98 fd ff
	ff		 mov	 eax, DWORD PTR _strNode$[ebp]
; File D:\git\src\IBK\IBK_DRFN\ProjSrc\SrcDrfn\DrCommon\PartnerMng\ChartItemFOForeignHoga.cpp

; 129  : 	memcpy(stOut.mshoga2, strNode, min(strNode.GetLength(), sizeof(stOut.mshoga2)));

  0065b	8b d6		 mov	 edx, esi
  0065d	39 50 f4	 cmp	 DWORD PTR [eax-12], edx
  00660	0f 42 50 f4	 cmovb	 edx, DWORD PTR [eax-12]
  00664	52		 push	 edx
  00665	50		 push	 eax
  00666	8d 85 f8 fd ff
	ff		 lea	 eax, DWORD PTR _stOut$[ebp+88]
  0066c	50		 push	 eax
  0066d	e8 00 00 00 00	 call	 _memcpy

; 130  : 	strNode = CDataConverter::Parser(strSrc, sFS);	// 매수잔량2

  00672	83 c4 08	 add	 esp, 8
  00675	8b cc		 mov	 ecx, esp
  00677	6a 01		 push	 1
  00679	6a 0d		 push	 13			; 0000000dH
  0067b	ff 15 00 00 00
	00		 call	 DWORD PTR __imp_??0?$CStringT@DV?$StrTraitMFC_DLL@DV?$ChTraitsCRT@D@ATL@@@@@ATL@@QAE@DH@Z
  00681	8d 85 94 fd ff
	ff		 lea	 eax, DWORD PTR _strSrc$[ebp]
  00687	50		 push	 eax
  00688	8d 85 9c fd ff
	ff		 lea	 eax, DWORD PTR $T14[ebp]
  0068e	50		 push	 eax
  0068f	e8 00 00 00 00	 call	 ?Parser@CDataConverter@@SA?AV?$CStringT@DV?$StrTraitMFC_DLL@DV?$ChTraitsCRT@D@ATL@@@@@ATL@@AAV23@V23@@Z ; CDataConverter::Parser
  00694	83 c4 0c	 add	 esp, 12			; 0000000cH
  00697	50		 push	 eax
  00698	8d 8d 98 fd ff
	ff		 lea	 ecx, DWORD PTR _strNode$[ebp]
  0069e	c6 45 fc 11	 mov	 BYTE PTR __$EHRec$[ebp+8], 17 ; 00000011H
  006a2	ff 15 00 00 00
	00		 call	 DWORD PTR __imp_??4?$CStringT@DV?$StrTraitMFC_DLL@DV?$ChTraitsCRT@D@ATL@@@@@ATL@@QAEAAV01@ABV01@@Z
  006a8	8d 8d 9c fd ff
	ff		 lea	 ecx, DWORD PTR $T14[ebp]
  006ae	c6 45 fc 01	 mov	 BYTE PTR __$EHRec$[ebp+8], 1
  006b2	ff 15 00 00 00
	00		 call	 DWORD PTR __imp_??1?$CStringT@DV?$StrTraitMFC_DLL@DV?$ChTraitsCRT@D@ATL@@@@@ATL@@QAE@XZ
; File C:\Program Files (x86)\Microsoft Visual Studio\2019\Community\VC\Tools\MSVC\14.29.30133\atlmfc\include\atlsimpstr.h

; 519  : 		return( GetData()->nDataLength );

  006b8	8b 85 98 fd ff
	ff		 mov	 eax, DWORD PTR _strNode$[ebp]
; File D:\git\src\IBK\IBK_DRFN\ProjSrc\SrcDrfn\DrCommon\PartnerMng\ChartItemFOForeignHoga.cpp

; 131  : 	memcpy(stOut.mshorem2, strNode, min(strNode.GetLength(), sizeof(stOut.mshorem2)));

  006be	8b d6		 mov	 edx, esi
  006c0	39 50 f4	 cmp	 DWORD PTR [eax-12], edx
  006c3	0f 42 50 f4	 cmovb	 edx, DWORD PTR [eax-12]
  006c7	52		 push	 edx
  006c8	50		 push	 eax
  006c9	8d 85 0c fe ff
	ff		 lea	 eax, DWORD PTR _stOut$[ebp+108]
  006cf	50		 push	 eax
  006d0	e8 00 00 00 00	 call	 _memcpy

; 132  : 	
; 133  : 	strNode = CDataConverter::Parser(strSrc, sFS);	// 매수호가3

  006d5	83 c4 08	 add	 esp, 8
  006d8	8b cc		 mov	 ecx, esp
  006da	6a 01		 push	 1
  006dc	6a 0d		 push	 13			; 0000000dH
  006de	ff 15 00 00 00
	00		 call	 DWORD PTR __imp_??0?$CStringT@DV?$StrTraitMFC_DLL@DV?$ChTraitsCRT@D@ATL@@@@@ATL@@QAE@DH@Z
  006e4	8d 85 94 fd ff
	ff		 lea	 eax, DWORD PTR _strSrc$[ebp]
  006ea	50		 push	 eax
  006eb	8d 85 9c fd ff
	ff		 lea	 eax, DWORD PTR $T13[ebp]
  006f1	50		 push	 eax
  006f2	e8 00 00 00 00	 call	 ?Parser@CDataConverter@@SA?AV?$CStringT@DV?$StrTraitMFC_DLL@DV?$ChTraitsCRT@D@ATL@@@@@ATL@@AAV23@V23@@Z ; CDataConverter::Parser
  006f7	83 c4 0c	 add	 esp, 12			; 0000000cH
  006fa	50		 push	 eax
  006fb	8d 8d 98 fd ff
	ff		 lea	 ecx, DWORD PTR _strNode$[ebp]
  00701	c6 45 fc 12	 mov	 BYTE PTR __$EHRec$[ebp+8], 18 ; 00000012H
  00705	ff 15 00 00 00
	00		 call	 DWORD PTR __imp_??4?$CStringT@DV?$StrTraitMFC_DLL@DV?$ChTraitsCRT@D@ATL@@@@@ATL@@QAEAAV01@ABV01@@Z
  0070b	8d 8d 9c fd ff
	ff		 lea	 ecx, DWORD PTR $T13[ebp]
  00711	c6 45 fc 01	 mov	 BYTE PTR __$EHRec$[ebp+8], 1
  00715	ff 15 00 00 00
	00		 call	 DWORD PTR __imp_??1?$CStringT@DV?$StrTraitMFC_DLL@DV?$ChTraitsCRT@D@ATL@@@@@ATL@@QAE@XZ
; File C:\Program Files (x86)\Microsoft Visual Studio\2019\Community\VC\Tools\MSVC\14.29.30133\atlmfc\include\atlsimpstr.h

; 519  : 		return( GetData()->nDataLength );

  0071b	8b 85 98 fd ff
	ff		 mov	 eax, DWORD PTR _strNode$[ebp]
; File D:\git\src\IBK\IBK_DRFN\ProjSrc\SrcDrfn\DrCommon\PartnerMng\ChartItemFOForeignHoga.cpp

; 134  : 	memcpy(stOut.mshoga3, strNode, min(strNode.GetLength(), sizeof(stOut.mshoga3)));

  00721	8b d6		 mov	 edx, esi
  00723	39 50 f4	 cmp	 DWORD PTR [eax-12], edx
  00726	0f 42 50 f4	 cmovb	 edx, DWORD PTR [eax-12]
  0072a	52		 push	 edx
  0072b	50		 push	 eax
  0072c	8d 85 34 fe ff
	ff		 lea	 eax, DWORD PTR _stOut$[ebp+148]
  00732	50		 push	 eax
  00733	e8 00 00 00 00	 call	 _memcpy

; 135  : 	strNode = CDataConverter::Parser(strSrc, sFS);	// 매수잔량3

  00738	83 c4 08	 add	 esp, 8
  0073b	8b cc		 mov	 ecx, esp
  0073d	6a 01		 push	 1
  0073f	6a 0d		 push	 13			; 0000000dH
  00741	ff 15 00 00 00
	00		 call	 DWORD PTR __imp_??0?$CStringT@DV?$StrTraitMFC_DLL@DV?$ChTraitsCRT@D@ATL@@@@@ATL@@QAE@DH@Z
  00747	8d 85 94 fd ff
	ff		 lea	 eax, DWORD PTR _strSrc$[ebp]
  0074d	50		 push	 eax
  0074e	8d 85 9c fd ff
	ff		 lea	 eax, DWORD PTR $T12[ebp]
  00754	50		 push	 eax
  00755	e8 00 00 00 00	 call	 ?Parser@CDataConverter@@SA?AV?$CStringT@DV?$StrTraitMFC_DLL@DV?$ChTraitsCRT@D@ATL@@@@@ATL@@AAV23@V23@@Z ; CDataConverter::Parser
  0075a	83 c4 0c	 add	 esp, 12			; 0000000cH
  0075d	50		 push	 eax
  0075e	8d 8d 98 fd ff
	ff		 lea	 ecx, DWORD PTR _strNode$[ebp]
  00764	c6 45 fc 13	 mov	 BYTE PTR __$EHRec$[ebp+8], 19 ; 00000013H
  00768	ff 15 00 00 00
	00		 call	 DWORD PTR __imp_??4?$CStringT@DV?$StrTraitMFC_DLL@DV?$ChTraitsCRT@D@ATL@@@@@ATL@@QAEAAV01@ABV01@@Z
  0076e	8d 8d 9c fd ff
	ff		 lea	 ecx, DWORD PTR $T12[ebp]
  00774	c6 45 fc 01	 mov	 BYTE PTR __$EHRec$[ebp+8], 1
  00778	ff 15 00 00 00
	00		 call	 DWORD PTR __imp_??1?$CStringT@DV?$StrTraitMFC_DLL@DV?$ChTraitsCRT@D@ATL@@@@@ATL@@QAE@XZ
; File C:\Program Files (x86)\Microsoft Visual Studio\2019\Community\VC\Tools\MSVC\14.29.30133\atlmfc\include\atlsimpstr.h

; 519  : 		return( GetData()->nDataLength );

  0077e	8b 85 98 fd ff
	ff		 mov	 eax, DWORD PTR _strNode$[ebp]
; File D:\git\src\IBK\IBK_DRFN\ProjSrc\SrcDrfn\DrCommon\PartnerMng\ChartItemFOForeignHoga.cpp

; 136  : 	memcpy(stOut.mshorem3, strNode, min(strNode.GetLength(), sizeof(stOut.mshorem3)));

  00784	8b d6		 mov	 edx, esi
  00786	39 50 f4	 cmp	 DWORD PTR [eax-12], edx
  00789	0f 42 50 f4	 cmovb	 edx, DWORD PTR [eax-12]
  0078d	52		 push	 edx
  0078e	50		 push	 eax
  0078f	8d 85 48 fe ff
	ff		 lea	 eax, DWORD PTR _stOut$[ebp+168]
  00795	50		 push	 eax
  00796	e8 00 00 00 00	 call	 _memcpy

; 137  : 	
; 138  : 	strNode = CDataConverter::Parser(strSrc, sFS);	// 매수호가4

  0079b	83 c4 08	 add	 esp, 8
  0079e	8b cc		 mov	 ecx, esp
  007a0	6a 01		 push	 1
  007a2	6a 0d		 push	 13			; 0000000dH
  007a4	ff 15 00 00 00
	00		 call	 DWORD PTR __imp_??0?$CStringT@DV?$StrTraitMFC_DLL@DV?$ChTraitsCRT@D@ATL@@@@@ATL@@QAE@DH@Z
  007aa	8d 85 94 fd ff
	ff		 lea	 eax, DWORD PTR _strSrc$[ebp]
  007b0	50		 push	 eax
  007b1	8d 85 9c fd ff
	ff		 lea	 eax, DWORD PTR $T11[ebp]
  007b7	50		 push	 eax
  007b8	e8 00 00 00 00	 call	 ?Parser@CDataConverter@@SA?AV?$CStringT@DV?$StrTraitMFC_DLL@DV?$ChTraitsCRT@D@ATL@@@@@ATL@@AAV23@V23@@Z ; CDataConverter::Parser
  007bd	83 c4 0c	 add	 esp, 12			; 0000000cH
  007c0	50		 push	 eax
  007c1	8d 8d 98 fd ff
	ff		 lea	 ecx, DWORD PTR _strNode$[ebp]
  007c7	c6 45 fc 14	 mov	 BYTE PTR __$EHRec$[ebp+8], 20 ; 00000014H
  007cb	ff 15 00 00 00
	00		 call	 DWORD PTR __imp_??4?$CStringT@DV?$StrTraitMFC_DLL@DV?$ChTraitsCRT@D@ATL@@@@@ATL@@QAEAAV01@ABV01@@Z
  007d1	8d 8d 9c fd ff
	ff		 lea	 ecx, DWORD PTR $T11[ebp]
  007d7	c6 45 fc 01	 mov	 BYTE PTR __$EHRec$[ebp+8], 1
  007db	ff 15 00 00 00
	00		 call	 DWORD PTR __imp_??1?$CStringT@DV?$StrTraitMFC_DLL@DV?$ChTraitsCRT@D@ATL@@@@@ATL@@QAE@XZ
; File C:\Program Files (x86)\Microsoft Visual Studio\2019\Community\VC\Tools\MSVC\14.29.30133\atlmfc\include\atlsimpstr.h

; 519  : 		return( GetData()->nDataLength );

  007e1	8b 85 98 fd ff
	ff		 mov	 eax, DWORD PTR _strNode$[ebp]
; File D:\git\src\IBK\IBK_DRFN\ProjSrc\SrcDrfn\DrCommon\PartnerMng\ChartItemFOForeignHoga.cpp

; 139  : 	memcpy(stOut.mshoga4, strNode, min(strNode.GetLength(), sizeof(stOut.mshoga4)));

  007e7	8b d6		 mov	 edx, esi
  007e9	39 50 f4	 cmp	 DWORD PTR [eax-12], edx
  007ec	0f 42 50 f4	 cmovb	 edx, DWORD PTR [eax-12]
  007f0	52		 push	 edx
  007f1	50		 push	 eax
  007f2	8d 85 70 fe ff
	ff		 lea	 eax, DWORD PTR _stOut$[ebp+208]
  007f8	50		 push	 eax
  007f9	e8 00 00 00 00	 call	 _memcpy

; 140  : 	strNode = CDataConverter::Parser(strSrc, sFS);	// 매수잔량4

  007fe	83 c4 08	 add	 esp, 8
  00801	8b cc		 mov	 ecx, esp
  00803	6a 01		 push	 1
  00805	6a 0d		 push	 13			; 0000000dH
  00807	ff 15 00 00 00
	00		 call	 DWORD PTR __imp_??0?$CStringT@DV?$StrTraitMFC_DLL@DV?$ChTraitsCRT@D@ATL@@@@@ATL@@QAE@DH@Z
  0080d	8d 85 94 fd ff
	ff		 lea	 eax, DWORD PTR _strSrc$[ebp]
  00813	50		 push	 eax
  00814	8d 85 9c fd ff
	ff		 lea	 eax, DWORD PTR $T10[ebp]
  0081a	50		 push	 eax
  0081b	e8 00 00 00 00	 call	 ?Parser@CDataConverter@@SA?AV?$CStringT@DV?$StrTraitMFC_DLL@DV?$ChTraitsCRT@D@ATL@@@@@ATL@@AAV23@V23@@Z ; CDataConverter::Parser
  00820	83 c4 0c	 add	 esp, 12			; 0000000cH
  00823	50		 push	 eax
  00824	8d 8d 98 fd ff
	ff		 lea	 ecx, DWORD PTR _strNode$[ebp]
  0082a	c6 45 fc 15	 mov	 BYTE PTR __$EHRec$[ebp+8], 21 ; 00000015H
  0082e	ff 15 00 00 00
	00		 call	 DWORD PTR __imp_??4?$CStringT@DV?$StrTraitMFC_DLL@DV?$ChTraitsCRT@D@ATL@@@@@ATL@@QAEAAV01@ABV01@@Z
  00834	8d 8d 9c fd ff
	ff		 lea	 ecx, DWORD PTR $T10[ebp]
  0083a	c6 45 fc 01	 mov	 BYTE PTR __$EHRec$[ebp+8], 1
  0083e	ff 15 00 00 00
	00		 call	 DWORD PTR __imp_??1?$CStringT@DV?$StrTraitMFC_DLL@DV?$ChTraitsCRT@D@ATL@@@@@ATL@@QAE@XZ
; File C:\Program Files (x86)\Microsoft Visual Studio\2019\Community\VC\Tools\MSVC\14.29.30133\atlmfc\include\atlsimpstr.h

; 519  : 		return( GetData()->nDataLength );

  00844	8b 85 98 fd ff
	ff		 mov	 eax, DWORD PTR _strNode$[ebp]
; File D:\git\src\IBK\IBK_DRFN\ProjSrc\SrcDrfn\DrCommon\PartnerMng\ChartItemFOForeignHoga.cpp

; 141  : 	memcpy(stOut.mshorem4, strNode, min(strNode.GetLength(), sizeof(stOut.mshorem4)));

  0084a	8b d6		 mov	 edx, esi
  0084c	39 50 f4	 cmp	 DWORD PTR [eax-12], edx
  0084f	0f 42 50 f4	 cmovb	 edx, DWORD PTR [eax-12]
  00853	52		 push	 edx
  00854	50		 push	 eax
  00855	8d 85 84 fe ff
	ff		 lea	 eax, DWORD PTR _stOut$[ebp+228]
  0085b	50		 push	 eax
  0085c	e8 00 00 00 00	 call	 _memcpy

; 142  : 	
; 143  : 	strNode = CDataConverter::Parser(strSrc, sFS);	// 매수호가5

  00861	83 c4 08	 add	 esp, 8
  00864	8b cc		 mov	 ecx, esp
  00866	6a 01		 push	 1
  00868	6a 0d		 push	 13			; 0000000dH
  0086a	ff 15 00 00 00
	00		 call	 DWORD PTR __imp_??0?$CStringT@DV?$StrTraitMFC_DLL@DV?$ChTraitsCRT@D@ATL@@@@@ATL@@QAE@DH@Z
  00870	8d 85 94 fd ff
	ff		 lea	 eax, DWORD PTR _strSrc$[ebp]
  00876	50		 push	 eax
  00877	8d 85 9c fd ff
	ff		 lea	 eax, DWORD PTR $T9[ebp]
  0087d	50		 push	 eax
  0087e	e8 00 00 00 00	 call	 ?Parser@CDataConverter@@SA?AV?$CStringT@DV?$StrTraitMFC_DLL@DV?$ChTraitsCRT@D@ATL@@@@@ATL@@AAV23@V23@@Z ; CDataConverter::Parser
  00883	83 c4 0c	 add	 esp, 12			; 0000000cH
  00886	50		 push	 eax
  00887	8d 8d 98 fd ff
	ff		 lea	 ecx, DWORD PTR _strNode$[ebp]
  0088d	c6 45 fc 16	 mov	 BYTE PTR __$EHRec$[ebp+8], 22 ; 00000016H
  00891	ff 15 00 00 00
	00		 call	 DWORD PTR __imp_??4?$CStringT@DV?$StrTraitMFC_DLL@DV?$ChTraitsCRT@D@ATL@@@@@ATL@@QAEAAV01@ABV01@@Z
  00897	8d 8d 9c fd ff
	ff		 lea	 ecx, DWORD PTR $T9[ebp]
  0089d	c6 45 fc 01	 mov	 BYTE PTR __$EHRec$[ebp+8], 1
  008a1	ff 15 00 00 00
	00		 call	 DWORD PTR __imp_??1?$CStringT@DV?$StrTraitMFC_DLL@DV?$ChTraitsCRT@D@ATL@@@@@ATL@@QAE@XZ
; File C:\Program Files (x86)\Microsoft Visual Studio\2019\Community\VC\Tools\MSVC\14.29.30133\atlmfc\include\atlsimpstr.h

; 519  : 		return( GetData()->nDataLength );

  008a7	8b 85 98 fd ff
	ff		 mov	 eax, DWORD PTR _strNode$[ebp]
; File D:\git\src\IBK\IBK_DRFN\ProjSrc\SrcDrfn\DrCommon\PartnerMng\ChartItemFOForeignHoga.cpp

; 144  : 	memcpy(stOut.mshoga5, strNode, min(strNode.GetLength(), sizeof(stOut.mshoga5)));

  008ad	8b d6		 mov	 edx, esi
  008af	39 50 f4	 cmp	 DWORD PTR [eax-12], edx
  008b2	0f 42 50 f4	 cmovb	 edx, DWORD PTR [eax-12]
  008b6	52		 push	 edx
  008b7	50		 push	 eax
  008b8	8d 85 ac fe ff
	ff		 lea	 eax, DWORD PTR _stOut$[ebp+268]
  008be	50		 push	 eax
  008bf	e8 00 00 00 00	 call	 _memcpy

; 145  : 	strNode = CDataConverter::Parser(strSrc, sFS);	// 매수잔량5

  008c4	83 c4 08	 add	 esp, 8
  008c7	8b cc		 mov	 ecx, esp
  008c9	6a 01		 push	 1
  008cb	6a 0d		 push	 13			; 0000000dH
  008cd	ff 15 00 00 00
	00		 call	 DWORD PTR __imp_??0?$CStringT@DV?$StrTraitMFC_DLL@DV?$ChTraitsCRT@D@ATL@@@@@ATL@@QAE@DH@Z
  008d3	8d 85 94 fd ff
	ff		 lea	 eax, DWORD PTR _strSrc$[ebp]
  008d9	50		 push	 eax
  008da	8d 85 9c fd ff
	ff		 lea	 eax, DWORD PTR $T8[ebp]
  008e0	50		 push	 eax
  008e1	e8 00 00 00 00	 call	 ?Parser@CDataConverter@@SA?AV?$CStringT@DV?$StrTraitMFC_DLL@DV?$ChTraitsCRT@D@ATL@@@@@ATL@@AAV23@V23@@Z ; CDataConverter::Parser
  008e6	83 c4 0c	 add	 esp, 12			; 0000000cH
  008e9	50		 push	 eax
  008ea	8d 8d 98 fd ff
	ff		 lea	 ecx, DWORD PTR _strNode$[ebp]
  008f0	c6 45 fc 17	 mov	 BYTE PTR __$EHRec$[ebp+8], 23 ; 00000017H
  008f4	ff 15 00 00 00
	00		 call	 DWORD PTR __imp_??4?$CStringT@DV?$StrTraitMFC_DLL@DV?$ChTraitsCRT@D@ATL@@@@@ATL@@QAEAAV01@ABV01@@Z
  008fa	8d 8d 9c fd ff
	ff		 lea	 ecx, DWORD PTR $T8[ebp]
  00900	c6 45 fc 01	 mov	 BYTE PTR __$EHRec$[ebp+8], 1
  00904	ff 15 00 00 00
	00		 call	 DWORD PTR __imp_??1?$CStringT@DV?$StrTraitMFC_DLL@DV?$ChTraitsCRT@D@ATL@@@@@ATL@@QAE@XZ
; File C:\Program Files (x86)\Microsoft Visual Studio\2019\Community\VC\Tools\MSVC\14.29.30133\atlmfc\include\atlsimpstr.h

; 519  : 		return( GetData()->nDataLength );

  0090a	8b 85 98 fd ff
	ff		 mov	 eax, DWORD PTR _strNode$[ebp]
; File D:\git\src\IBK\IBK_DRFN\ProjSrc\SrcDrfn\DrCommon\PartnerMng\ChartItemFOForeignHoga.cpp

; 146  : 	memcpy(stOut.mshorem5, strNode, min(strNode.GetLength(), sizeof(stOut.mshorem5)));

  00910	8b d6		 mov	 edx, esi
  00912	39 50 f4	 cmp	 DWORD PTR [eax-12], edx
  00915	0f 42 50 f4	 cmovb	 edx, DWORD PTR [eax-12]
  00919	52		 push	 edx
  0091a	50		 push	 eax
  0091b	8d 85 c0 fe ff
	ff		 lea	 eax, DWORD PTR _stOut$[ebp+288]
  00921	50		 push	 eax
  00922	e8 00 00 00 00	 call	 _memcpy

; 147  : 
; 148  : 	// 매도 총 잔량
; 149  : 	strNode = CDataConverter::Parser(strSrc, sFS);

  00927	83 c4 08	 add	 esp, 8
  0092a	8b cc		 mov	 ecx, esp
  0092c	6a 01		 push	 1
  0092e	6a 0d		 push	 13			; 0000000dH
  00930	ff 15 00 00 00
	00		 call	 DWORD PTR __imp_??0?$CStringT@DV?$StrTraitMFC_DLL@DV?$ChTraitsCRT@D@ATL@@@@@ATL@@QAE@DH@Z
  00936	8d 85 94 fd ff
	ff		 lea	 eax, DWORD PTR _strSrc$[ebp]
  0093c	50		 push	 eax
  0093d	8d 85 9c fd ff
	ff		 lea	 eax, DWORD PTR $T7[ebp]
  00943	50		 push	 eax
  00944	e8 00 00 00 00	 call	 ?Parser@CDataConverter@@SA?AV?$CStringT@DV?$StrTraitMFC_DLL@DV?$ChTraitsCRT@D@ATL@@@@@ATL@@AAV23@V23@@Z ; CDataConverter::Parser
  00949	83 c4 0c	 add	 esp, 12			; 0000000cH
  0094c	50		 push	 eax
  0094d	8d 8d 98 fd ff
	ff		 lea	 ecx, DWORD PTR _strNode$[ebp]
  00953	c6 45 fc 18	 mov	 BYTE PTR __$EHRec$[ebp+8], 24 ; 00000018H
  00957	ff 15 00 00 00
	00		 call	 DWORD PTR __imp_??4?$CStringT@DV?$StrTraitMFC_DLL@DV?$ChTraitsCRT@D@ATL@@@@@ATL@@QAEAAV01@ABV01@@Z
  0095d	8d 8d 9c fd ff
	ff		 lea	 ecx, DWORD PTR $T7[ebp]
  00963	c6 45 fc 01	 mov	 BYTE PTR __$EHRec$[ebp+8], 1
  00967	ff 15 00 00 00
	00		 call	 DWORD PTR __imp_??1?$CStringT@DV?$StrTraitMFC_DLL@DV?$ChTraitsCRT@D@ATL@@@@@ATL@@QAE@XZ
; File C:\Program Files (x86)\Microsoft Visual Studio\2019\Community\VC\Tools\MSVC\14.29.30133\atlmfc\include\atlsimpstr.h

; 519  : 		return( GetData()->nDataLength );

  0096d	8b 85 98 fd ff
	ff		 mov	 eax, DWORD PTR _strNode$[ebp]
; File D:\git\src\IBK\IBK_DRFN\ProjSrc\SrcDrfn\DrCommon\PartnerMng\ChartItemFOForeignHoga.cpp

; 150  : 	memcpy(stOut.totmdhorem, strNode, min(strNode.GetLength(), sizeof(stOut.totmdhorem)));

  00973	8b d6		 mov	 edx, esi
  00975	39 50 f4	 cmp	 DWORD PTR [eax-12], edx
  00978	0f 42 50 f4	 cmovb	 edx, DWORD PTR [eax-12]
  0097c	52		 push	 edx
  0097d	50		 push	 eax
  0097e	8d 85 de fe ff
	ff		 lea	 eax, DWORD PTR _stOut$[ebp+318]
  00984	50		 push	 eax
  00985	e8 00 00 00 00	 call	 _memcpy

; 151  : 	// 매수 총 잔량
; 152  : 	strNode = CDataConverter::Parser(strSrc, sFS);

  0098a	83 c4 08	 add	 esp, 8
  0098d	8b cc		 mov	 ecx, esp
  0098f	6a 01		 push	 1
  00991	6a 0d		 push	 13			; 0000000dH
  00993	ff 15 00 00 00
	00		 call	 DWORD PTR __imp_??0?$CStringT@DV?$StrTraitMFC_DLL@DV?$ChTraitsCRT@D@ATL@@@@@ATL@@QAE@DH@Z
  00999	8d 85 94 fd ff
	ff		 lea	 eax, DWORD PTR _strSrc$[ebp]
  0099f	50		 push	 eax
  009a0	8d 85 9c fd ff
	ff		 lea	 eax, DWORD PTR $T6[ebp]
  009a6	50		 push	 eax
  009a7	e8 00 00 00 00	 call	 ?Parser@CDataConverter@@SA?AV?$CStringT@DV?$StrTraitMFC_DLL@DV?$ChTraitsCRT@D@ATL@@@@@ATL@@AAV23@V23@@Z ; CDataConverter::Parser
  009ac	83 c4 0c	 add	 esp, 12			; 0000000cH
  009af	50		 push	 eax
  009b0	8d 8d 98 fd ff
	ff		 lea	 ecx, DWORD PTR _strNode$[ebp]
  009b6	c6 45 fc 19	 mov	 BYTE PTR __$EHRec$[ebp+8], 25 ; 00000019H
  009ba	ff 15 00 00 00
	00		 call	 DWORD PTR __imp_??4?$CStringT@DV?$StrTraitMFC_DLL@DV?$ChTraitsCRT@D@ATL@@@@@ATL@@QAEAAV01@ABV01@@Z
  009c0	8d 8d 9c fd ff
	ff		 lea	 ecx, DWORD PTR $T6[ebp]
  009c6	c6 45 fc 01	 mov	 BYTE PTR __$EHRec$[ebp+8], 1
  009ca	ff 15 00 00 00
	00		 call	 DWORD PTR __imp_??1?$CStringT@DV?$StrTraitMFC_DLL@DV?$ChTraitsCRT@D@ATL@@@@@ATL@@QAE@XZ
; File C:\Program Files (x86)\Microsoft Visual Studio\2019\Community\VC\Tools\MSVC\14.29.30133\atlmfc\include\atlsimpstr.h

; 519  : 		return( GetData()->nDataLength );

  009d0	8b 85 98 fd ff
	ff		 mov	 eax, DWORD PTR _strNode$[ebp]
; File D:\git\src\IBK\IBK_DRFN\ProjSrc\SrcDrfn\DrCommon\PartnerMng\ChartItemFOForeignHoga.cpp

; 153  : 	memcpy(stOut.totmshorem, strNode, min(strNode.GetLength(), sizeof(stOut.totmshorem)));

  009d6	8b d6		 mov	 edx, esi
  009d8	39 50 f4	 cmp	 DWORD PTR [eax-12], edx
  009db	0f 42 50 f4	 cmovb	 edx, DWORD PTR [eax-12]
  009df	52		 push	 edx
  009e0	50		 push	 eax
  009e1	8d 85 e8 fe ff
	ff		 lea	 eax, DWORD PTR _stOut$[ebp+328]
  009e7	50		 push	 eax
  009e8	e8 00 00 00 00	 call	 _memcpy

; 154  : 	// 고가
; 155  : 	strNode = CDataConverter::Parser(strSrc, sFS);

  009ed	83 c4 08	 add	 esp, 8
  009f0	8b cc		 mov	 ecx, esp
  009f2	6a 01		 push	 1
  009f4	6a 0d		 push	 13			; 0000000dH
  009f6	ff 15 00 00 00
	00		 call	 DWORD PTR __imp_??0?$CStringT@DV?$StrTraitMFC_DLL@DV?$ChTraitsCRT@D@ATL@@@@@ATL@@QAE@DH@Z
  009fc	8d 85 94 fd ff
	ff		 lea	 eax, DWORD PTR _strSrc$[ebp]
  00a02	50		 push	 eax
  00a03	8d 85 9c fd ff
	ff		 lea	 eax, DWORD PTR $T5[ebp]
  00a09	50		 push	 eax
  00a0a	e8 00 00 00 00	 call	 ?Parser@CDataConverter@@SA?AV?$CStringT@DV?$StrTraitMFC_DLL@DV?$ChTraitsCRT@D@ATL@@@@@ATL@@AAV23@V23@@Z ; CDataConverter::Parser
  00a0f	83 c4 0c	 add	 esp, 12			; 0000000cH
  00a12	50		 push	 eax
  00a13	8d 8d 98 fd ff
	ff		 lea	 ecx, DWORD PTR _strNode$[ebp]
  00a19	c6 45 fc 1a	 mov	 BYTE PTR __$EHRec$[ebp+8], 26 ; 0000001aH
  00a1d	ff 15 00 00 00
	00		 call	 DWORD PTR __imp_??4?$CStringT@DV?$StrTraitMFC_DLL@DV?$ChTraitsCRT@D@ATL@@@@@ATL@@QAEAAV01@ABV01@@Z
  00a23	8d 8d 9c fd ff
	ff		 lea	 ecx, DWORD PTR $T5[ebp]
  00a29	c6 45 fc 01	 mov	 BYTE PTR __$EHRec$[ebp+8], 1
  00a2d	ff 15 00 00 00
	00		 call	 DWORD PTR __imp_??1?$CStringT@DV?$StrTraitMFC_DLL@DV?$ChTraitsCRT@D@ATL@@@@@ATL@@QAE@XZ
; File C:\Program Files (x86)\Microsoft Visual Studio\2019\Community\VC\Tools\MSVC\14.29.30133\atlmfc\include\atlsimpstr.h

; 519  : 		return( GetData()->nDataLength );

  00a33	8b 85 98 fd ff
	ff		 mov	 eax, DWORD PTR _strNode$[ebp]
; File D:\git\src\IBK\IBK_DRFN\ProjSrc\SrcDrfn\DrCommon\PartnerMng\ChartItemFOForeignHoga.cpp

; 156  : 	memcpy(stOut.high, strNode, min(strNode.GetLength(), sizeof(stOut.high)));

  00a39	8b d6		 mov	 edx, esi
  00a3b	39 50 f4	 cmp	 DWORD PTR [eax-12], edx
  00a3e	0f 42 50 f4	 cmovb	 edx, DWORD PTR [eax-12]
  00a42	52		 push	 edx
  00a43	50		 push	 eax
  00a44	8d 85 10 ff ff
	ff		 lea	 eax, DWORD PTR _stOut$[ebp+368]
  00a4a	50		 push	 eax
  00a4b	e8 00 00 00 00	 call	 _memcpy

; 157  : 	// 저가
; 158  : 	strNode = CDataConverter::Parser(strSrc, sFS);

  00a50	83 c4 08	 add	 esp, 8
  00a53	8b cc		 mov	 ecx, esp
  00a55	6a 01		 push	 1
  00a57	6a 0d		 push	 13			; 0000000dH
  00a59	ff 15 00 00 00
	00		 call	 DWORD PTR __imp_??0?$CStringT@DV?$StrTraitMFC_DLL@DV?$ChTraitsCRT@D@ATL@@@@@ATL@@QAE@DH@Z
  00a5f	8d 85 94 fd ff
	ff		 lea	 eax, DWORD PTR _strSrc$[ebp]
  00a65	50		 push	 eax
  00a66	8d 85 9c fd ff
	ff		 lea	 eax, DWORD PTR $T4[ebp]
  00a6c	50		 push	 eax
  00a6d	e8 00 00 00 00	 call	 ?Parser@CDataConverter@@SA?AV?$CStringT@DV?$StrTraitMFC_DLL@DV?$ChTraitsCRT@D@ATL@@@@@ATL@@AAV23@V23@@Z ; CDataConverter::Parser
  00a72	83 c4 0c	 add	 esp, 12			; 0000000cH
  00a75	50		 push	 eax
  00a76	8d 8d 98 fd ff
	ff		 lea	 ecx, DWORD PTR _strNode$[ebp]
  00a7c	c6 45 fc 1b	 mov	 BYTE PTR __$EHRec$[ebp+8], 27 ; 0000001bH
  00a80	ff 15 00 00 00
	00		 call	 DWORD PTR __imp_??4?$CStringT@DV?$StrTraitMFC_DLL@DV?$ChTraitsCRT@D@ATL@@@@@ATL@@QAEAAV01@ABV01@@Z
  00a86	8d 8d 9c fd ff
	ff		 lea	 ecx, DWORD PTR $T4[ebp]
  00a8c	c6 45 fc 01	 mov	 BYTE PTR __$EHRec$[ebp+8], 1
  00a90	ff 15 00 00 00
	00		 call	 DWORD PTR __imp_??1?$CStringT@DV?$StrTraitMFC_DLL@DV?$ChTraitsCRT@D@ATL@@@@@ATL@@QAE@XZ
; File C:\Program Files (x86)\Microsoft Visual Studio\2019\Community\VC\Tools\MSVC\14.29.30133\atlmfc\include\atlsimpstr.h

; 519  : 		return( GetData()->nDataLength );

  00a96	8b 85 98 fd ff
	ff		 mov	 eax, DWORD PTR _strNode$[ebp]
; File D:\git\src\IBK\IBK_DRFN\ProjSrc\SrcDrfn\DrCommon\PartnerMng\ChartItemFOForeignHoga.cpp

; 159  : 	memcpy(stOut.low, strNode, min(strNode.GetLength(), sizeof(stOut.low)));

  00a9c	8b d6		 mov	 edx, esi
  00a9e	39 50 f4	 cmp	 DWORD PTR [eax-12], edx
  00aa1	0f 42 50 f4	 cmovb	 edx, DWORD PTR [eax-12]
  00aa5	52		 push	 edx
  00aa6	50		 push	 eax
  00aa7	8d 85 1a ff ff
	ff		 lea	 eax, DWORD PTR _stOut$[ebp+378]
  00aad	50		 push	 eax
  00aae	e8 00 00 00 00	 call	 _memcpy

; 160  : 	// 등락부호
; 161  : //	strNode = CDataConverter::Parser(strSrc, sFS);
; 162  : //	memcpy(stOut.sign, strNode, min(strNode.GetLength(), sizeof(stOut.sign)));
; 163  : 	// 등락폭
; 164  : 	strNode = CDataConverter::Parser(strSrc, sFS);

  00ab3	83 c4 08	 add	 esp, 8
  00ab6	8b cc		 mov	 ecx, esp
  00ab8	6a 01		 push	 1
  00aba	6a 0d		 push	 13			; 0000000dH
  00abc	ff 15 00 00 00
	00		 call	 DWORD PTR __imp_??0?$CStringT@DV?$StrTraitMFC_DLL@DV?$ChTraitsCRT@D@ATL@@@@@ATL@@QAE@DH@Z
  00ac2	8d 85 94 fd ff
	ff		 lea	 eax, DWORD PTR _strSrc$[ebp]
  00ac8	50		 push	 eax
  00ac9	8d 85 9c fd ff
	ff		 lea	 eax, DWORD PTR $T3[ebp]
  00acf	50		 push	 eax
  00ad0	e8 00 00 00 00	 call	 ?Parser@CDataConverter@@SA?AV?$CStringT@DV?$StrTraitMFC_DLL@DV?$ChTraitsCRT@D@ATL@@@@@ATL@@AAV23@V23@@Z ; CDataConverter::Parser
  00ad5	83 c4 0c	 add	 esp, 12			; 0000000cH
  00ad8	50		 push	 eax
  00ad9	8d 8d 98 fd ff
	ff		 lea	 ecx, DWORD PTR _strNode$[ebp]
  00adf	c6 45 fc 1c	 mov	 BYTE PTR __$EHRec$[ebp+8], 28 ; 0000001cH
  00ae3	ff 15 00 00 00
	00		 call	 DWORD PTR __imp_??4?$CStringT@DV?$StrTraitMFC_DLL@DV?$ChTraitsCRT@D@ATL@@@@@ATL@@QAEAAV01@ABV01@@Z
  00ae9	8d 8d 9c fd ff
	ff		 lea	 ecx, DWORD PTR $T3[ebp]
  00aef	c6 45 fc 01	 mov	 BYTE PTR __$EHRec$[ebp+8], 1
  00af3	ff 15 00 00 00
	00		 call	 DWORD PTR __imp_??1?$CStringT@DV?$StrTraitMFC_DLL@DV?$ChTraitsCRT@D@ATL@@@@@ATL@@QAE@XZ
; File C:\Program Files (x86)\Microsoft Visual Studio\2019\Community\VC\Tools\MSVC\14.29.30133\atlmfc\include\atlsimpstr.h

; 519  : 		return( GetData()->nDataLength );

  00af9	8b 85 98 fd ff
	ff		 mov	 eax, DWORD PTR _strNode$[ebp]
; File D:\git\src\IBK\IBK_DRFN\ProjSrc\SrcDrfn\DrCommon\PartnerMng\ChartItemFOForeignHoga.cpp

; 165  : 	memcpy(stOut.change, strNode, min(strNode.GetLength(), sizeof(stOut.change)));

  00aff	8b d6		 mov	 edx, esi
  00b01	39 50 f4	 cmp	 DWORD PTR [eax-12], edx
  00b04	0f 42 50 f4	 cmovb	 edx, DWORD PTR [eax-12]
  00b08	52		 push	 edx
  00b09	50		 push	 eax
  00b0a	8d 85 2f ff ff
	ff		 lea	 eax, DWORD PTR _stOut$[ebp+399]
  00b10	50		 push	 eax
  00b11	e8 00 00 00 00	 call	 _memcpy

; 166  : 	// 누적거래량
; 167  : 	strNode = CDataConverter::Parser(strSrc, sFS);

  00b16	83 c4 08	 add	 esp, 8
  00b19	8b cc		 mov	 ecx, esp
  00b1b	6a 01		 push	 1
  00b1d	6a 0d		 push	 13			; 0000000dH
  00b1f	ff 15 00 00 00
	00		 call	 DWORD PTR __imp_??0?$CStringT@DV?$StrTraitMFC_DLL@DV?$ChTraitsCRT@D@ATL@@@@@ATL@@QAE@DH@Z
  00b25	8d 85 94 fd ff
	ff		 lea	 eax, DWORD PTR _strSrc$[ebp]
  00b2b	50		 push	 eax
  00b2c	8d 85 9c fd ff
	ff		 lea	 eax, DWORD PTR $T2[ebp]
  00b32	50		 push	 eax
  00b33	e8 00 00 00 00	 call	 ?Parser@CDataConverter@@SA?AV?$CStringT@DV?$StrTraitMFC_DLL@DV?$ChTraitsCRT@D@ATL@@@@@ATL@@AAV23@V23@@Z ; CDataConverter::Parser
  00b38	83 c4 0c	 add	 esp, 12			; 0000000cH
  00b3b	50		 push	 eax
  00b3c	8d 8d 98 fd ff
	ff		 lea	 ecx, DWORD PTR _strNode$[ebp]
  00b42	c6 45 fc 1d	 mov	 BYTE PTR __$EHRec$[ebp+8], 29 ; 0000001dH
  00b46	ff 15 00 00 00
	00		 call	 DWORD PTR __imp_??4?$CStringT@DV?$StrTraitMFC_DLL@DV?$ChTraitsCRT@D@ATL@@@@@ATL@@QAEAAV01@ABV01@@Z
  00b4c	8d 8d 9c fd ff
	ff		 lea	 ecx, DWORD PTR $T2[ebp]
  00b52	c6 45 fc 01	 mov	 BYTE PTR __$EHRec$[ebp+8], 1
  00b56	ff 15 00 00 00
	00		 call	 DWORD PTR __imp_??1?$CStringT@DV?$StrTraitMFC_DLL@DV?$ChTraitsCRT@D@ATL@@@@@ATL@@QAE@XZ

; 168  : 	memcpy(stOut.volume, strNode, min(strNode.GetLength(), sizeof(stOut.volume)));

  00b5c	8b 85 98 fd ff
	ff		 mov	 eax, DWORD PTR _strNode$[ebp]
  00b62	39 70 f4	 cmp	 DWORD PTR [eax-12], esi
  00b65	0f 42 70 f4	 cmovb	 esi, DWORD PTR [eax-12]
  00b69	56		 push	 esi
  00b6a	50		 push	 eax
  00b6b	8d 85 44 ff ff
	ff		 lea	 eax, DWORD PTR _stOut$[ebp+420]
  00b71	50		 push	 eax
  00b72	e8 00 00 00 00	 call	 _memcpy

; 169  : 
; 170  : 	int nSize = sizeof(HCQ01112_OUT);
; 171  : 	
; 172  : 	char* pDataBuf = NULL;
; 173  : 	pDataBuf = new char[nSize+1];

  00b77	68 4f 02 00 00	 push	 591			; 0000024fH
  00b7c	e8 00 00 00 00	 call	 ??_U@YAPAXI@Z		; operator new[]
  00b81	8b d8		 mov	 ebx, eax

; 174  : 	memset(pDataBuf, 0x00, nSize+1);
; 175  : 	memcpy(pDataBuf, &stOut, sizeof(stOut));

  00b83	8d b5 a0 fd ff
	ff		 lea	 esi, DWORD PTR _stOut$[ebp]

; 176  : 	
; 177  : 	nDataLen = sizeof(HCQ01112_OUT);

  00b89	8b 85 90 fd ff
	ff		 mov	 eax, DWORD PTR _nDataLen$GSCopy$1$[ebp]
  00b8f	b9 93 00 00 00	 mov	 ecx, 147		; 00000093H
  00b94	8b fb		 mov	 edi, ebx
  00b96	83 c4 10	 add	 esp, 16			; 00000010H
  00b99	c6 83 4e 02 00
	00 00		 mov	 BYTE PTR [ebx+590], 0
  00ba0	f3 a5		 rep movsd

; 178  : 
; 179  : 	return pDataBuf;

  00ba2	8d 8d 94 fd ff
	ff		 lea	 ecx, DWORD PTR _strSrc$[ebp]
  00ba8	66 a5		 movsw
  00baa	c7 00 4e 02 00
	00		 mov	 DWORD PTR [eax], 590	; 0000024eH
  00bb0	ff 15 00 00 00
	00		 call	 DWORD PTR __imp_??1?$CStringT@DV?$StrTraitMFC_DLL@DV?$ChTraitsCRT@D@ATL@@@@@ATL@@QAE@XZ
  00bb6	8d 8d 98 fd ff
	ff		 lea	 ecx, DWORD PTR _strNode$[ebp]
  00bbc	ff 15 00 00 00
	00		 call	 DWORD PTR __imp_??1?$CStringT@DV?$StrTraitMFC_DLL@DV?$ChTraitsCRT@D@ATL@@@@@ATL@@QAE@XZ
  00bc2	8b c3		 mov	 eax, ebx

; 180  : }

  00bc4	8b 4d f4	 mov	 ecx, DWORD PTR __$EHRec$[ebp]
  00bc7	64 89 0d 00 00
	00 00		 mov	 DWORD PTR fs:0, ecx
  00bce	59		 pop	 ecx
  00bcf	5f		 pop	 edi
  00bd0	5e		 pop	 esi
  00bd1	5b		 pop	 ebx
  00bd2	8b 4d f0	 mov	 ecx, DWORD PTR __$ArrayPad$[ebp]
  00bd5	33 cd		 xor	 ecx, ebp
  00bd7	e8 00 00 00 00	 call	 @__security_check_cookie@4
  00bdc	8b e5		 mov	 esp, ebp
  00bde	5d		 pop	 ebp
  00bdf	c2 10 00	 ret	 16			; 00000010H
_TEXT	ENDS
;	COMDAT text$x
text$x	SEGMENT
__unwindfunclet$?Convert2Struct@CChartItemFOForeignHoga@@QAEPADPAEHHAAH@Z$0:
  00000	8d 8d 98 fd ff
	ff		 lea	 ecx, DWORD PTR _strNode$[ebp]
  00006	ff 25 00 00 00
	00		 jmp	 DWORD PTR __imp_??1?$CStringT@DV?$StrTraitMFC_DLL@DV?$ChTraitsCRT@D@ATL@@@@@ATL@@QAE@XZ
__unwindfunclet$?Convert2Struct@CChartItemFOForeignHoga@@QAEPADPAEHHAAH@Z$1:
  0000c	8d 8d 94 fd ff
	ff		 lea	 ecx, DWORD PTR _strSrc$[ebp]
  00012	ff 25 00 00 00
	00		 jmp	 DWORD PTR __imp_??1?$CStringT@DV?$StrTraitMFC_DLL@DV?$ChTraitsCRT@D@ATL@@@@@ATL@@QAE@XZ
__unwindfunclet$?Convert2Struct@CChartItemFOForeignHoga@@QAEPADPAEHHAAH@Z$3:
  00018	8d 8d 9c fd ff
	ff		 lea	 ecx, DWORD PTR $T29[ebp]
  0001e	ff 25 00 00 00
	00		 jmp	 DWORD PTR __imp_??1?$CStringT@DV?$StrTraitMFC_DLL@DV?$ChTraitsCRT@D@ATL@@@@@ATL@@QAE@XZ
__unwindfunclet$?Convert2Struct@CChartItemFOForeignHoga@@QAEPADPAEHHAAH@Z$5:
  00024	8d 8d 9c fd ff
	ff		 lea	 ecx, DWORD PTR $T28[ebp]
  0002a	ff 25 00 00 00
	00		 jmp	 DWORD PTR __imp_??1?$CStringT@DV?$StrTraitMFC_DLL@DV?$ChTraitsCRT@D@ATL@@@@@ATL@@QAE@XZ
__unwindfunclet$?Convert2Struct@CChartItemFOForeignHoga@@QAEPADPAEHHAAH@Z$7:
  00030	8d 8d 9c fd ff
	ff		 lea	 ecx, DWORD PTR $T27[ebp]
  00036	ff 25 00 00 00
	00		 jmp	 DWORD PTR __imp_??1?$CStringT@DV?$StrTraitMFC_DLL@DV?$ChTraitsCRT@D@ATL@@@@@ATL@@QAE@XZ
__unwindfunclet$?Convert2Struct@CChartItemFOForeignHoga@@QAEPADPAEHHAAH@Z$9:
  0003c	8d 8d 9c fd ff
	ff		 lea	 ecx, DWORD PTR $T26[ebp]
  00042	ff 25 00 00 00
	00		 jmp	 DWORD PTR __imp_??1?$CStringT@DV?$StrTraitMFC_DLL@DV?$ChTraitsCRT@D@ATL@@@@@ATL@@QAE@XZ
__unwindfunclet$?Convert2Struct@CChartItemFOForeignHoga@@QAEPADPAEHHAAH@Z$11:
  00048	8d 8d 9c fd ff
	ff		 lea	 ecx, DWORD PTR $T25[ebp]
  0004e	ff 25 00 00 00
	00		 jmp	 DWORD PTR __imp_??1?$CStringT@DV?$StrTraitMFC_DLL@DV?$ChTraitsCRT@D@ATL@@@@@ATL@@QAE@XZ
__unwindfunclet$?Convert2Struct@CChartItemFOForeignHoga@@QAEPADPAEHHAAH@Z$13:
  00054	8d 8d 9c fd ff
	ff		 lea	 ecx, DWORD PTR $T24[ebp]
  0005a	ff 25 00 00 00
	00		 jmp	 DWORD PTR __imp_??1?$CStringT@DV?$StrTraitMFC_DLL@DV?$ChTraitsCRT@D@ATL@@@@@ATL@@QAE@XZ
__unwindfunclet$?Convert2Struct@CChartItemFOForeignHoga@@QAEPADPAEHHAAH@Z$15:
  00060	8d 8d 9c fd ff
	ff		 lea	 ecx, DWORD PTR $T23[ebp]
  00066	ff 25 00 00 00
	00		 jmp	 DWORD PTR __imp_??1?$CStringT@DV?$StrTraitMFC_DLL@DV?$ChTraitsCRT@D@ATL@@@@@ATL@@QAE@XZ
__unwindfunclet$?Convert2Struct@CChartItemFOForeignHoga@@QAEPADPAEHHAAH@Z$17:
  0006c	8d 8d 9c fd ff
	ff		 lea	 ecx, DWORD PTR $T22[ebp]
  00072	ff 25 00 00 00
	00		 jmp	 DWORD PTR __imp_??1?$CStringT@DV?$StrTraitMFC_DLL@DV?$ChTraitsCRT@D@ATL@@@@@ATL@@QAE@XZ
__unwindfunclet$?Convert2Struct@CChartItemFOForeignHoga@@QAEPADPAEHHAAH@Z$19:
  00078	8d 8d 9c fd ff
	ff		 lea	 ecx, DWORD PTR $T21[ebp]
  0007e	ff 25 00 00 00
	00		 jmp	 DWORD PTR __imp_??1?$CStringT@DV?$StrTraitMFC_DLL@DV?$ChTraitsCRT@D@ATL@@@@@ATL@@QAE@XZ
__unwindfunclet$?Convert2Struct@CChartItemFOForeignHoga@@QAEPADPAEHHAAH@Z$21:
  00084	8d 8d 9c fd ff
	ff		 lea	 ecx, DWORD PTR $T20[ebp]
  0008a	ff 25 00 00 00
	00		 jmp	 DWORD PTR __imp_??1?$CStringT@DV?$StrTraitMFC_DLL@DV?$ChTraitsCRT@D@ATL@@@@@ATL@@QAE@XZ
__unwindfunclet$?Convert2Struct@CChartItemFOForeignHoga@@QAEPADPAEHHAAH@Z$23:
  00090	8d 8d 9c fd ff
	ff		 lea	 ecx, DWORD PTR $T19[ebp]
  00096	ff 25 00 00 00
	00		 jmp	 DWORD PTR __imp_??1?$CStringT@DV?$StrTraitMFC_DLL@DV?$ChTraitsCRT@D@ATL@@@@@ATL@@QAE@XZ
__unwindfunclet$?Convert2Struct@CChartItemFOForeignHoga@@QAEPADPAEHHAAH@Z$25:
  0009c	8d 8d 9c fd ff
	ff		 lea	 ecx, DWORD PTR $T18[ebp]
  000a2	ff 25 00 00 00
	00		 jmp	 DWORD PTR __imp_??1?$CStringT@DV?$StrTraitMFC_DLL@DV?$ChTraitsCRT@D@ATL@@@@@ATL@@QAE@XZ
__unwindfunclet$?Convert2Struct@CChartItemFOForeignHoga@@QAEPADPAEHHAAH@Z$27:
  000a8	8d 8d 9c fd ff
	ff		 lea	 ecx, DWORD PTR $T17[ebp]
  000ae	ff 25 00 00 00
	00		 jmp	 DWORD PTR __imp_??1?$CStringT@DV?$StrTraitMFC_DLL@DV?$ChTraitsCRT@D@ATL@@@@@ATL@@QAE@XZ
__unwindfunclet$?Convert2Struct@CChartItemFOForeignHoga@@QAEPADPAEHHAAH@Z$29:
  000b4	8d 8d 9c fd ff
	ff		 lea	 ecx, DWORD PTR $T16[ebp]
  000ba	ff 25 00 00 00
	00		 jmp	 DWORD PTR __imp_??1?$CStringT@DV?$StrTraitMFC_DLL@DV?$ChTraitsCRT@D@ATL@@@@@ATL@@QAE@XZ
__unwindfunclet$?Convert2Struct@CChartItemFOForeignHoga@@QAEPADPAEHHAAH@Z$31:
  000c0	8d 8d 9c fd ff
	ff		 lea	 ecx, DWORD PTR $T15[ebp]
  000c6	ff 25 00 00 00
	00		 jmp	 DWORD PTR __imp_??1?$CStringT@DV?$StrTraitMFC_DLL@DV?$ChTraitsCRT@D@ATL@@@@@ATL@@QAE@XZ
__unwindfunclet$?Convert2Struct@CChartItemFOForeignHoga@@QAEPADPAEHHAAH@Z$33:
  000cc	8d 8d 9c fd ff
	ff		 lea	 ecx, DWORD PTR $T14[ebp]
  000d2	ff 25 00 00 00
	00		 jmp	 DWORD PTR __imp_??1?$CStringT@DV?$StrTraitMFC_DLL@DV?$ChTraitsCRT@D@ATL@@@@@ATL@@QAE@XZ
__unwindfunclet$?Convert2Struct@CChartItemFOForeignHoga@@QAEPADPAEHHAAH@Z$35:
  000d8	8d 8d 9c fd ff
	ff		 lea	 ecx, DWORD PTR $T13[ebp]
  000de	ff 25 00 00 00
	00		 jmp	 DWORD PTR __imp_??1?$CStringT@DV?$StrTraitMFC_DLL@DV?$ChTraitsCRT@D@ATL@@@@@ATL@@QAE@XZ
__unwindfunclet$?Convert2Struct@CChartItemFOForeignHoga@@QAEPADPAEHHAAH@Z$37:
  000e4	8d 8d 9c fd ff
	ff		 lea	 ecx, DWORD PTR $T12[ebp]
  000ea	ff 25 00 00 00
	00		 jmp	 DWORD PTR __imp_??1?$CStringT@DV?$StrTraitMFC_DLL@DV?$ChTraitsCRT@D@ATL@@@@@ATL@@QAE@XZ
__unwindfunclet$?Convert2Struct@CChartItemFOForeignHoga@@QAEPADPAEHHAAH@Z$39:
  000f0	8d 8d 9c fd ff
	ff		 lea	 ecx, DWORD PTR $T11[ebp]
  000f6	ff 25 00 00 00
	00		 jmp	 DWORD PTR __imp_??1?$CStringT@DV?$StrTraitMFC_DLL@DV?$ChTraitsCRT@D@ATL@@@@@ATL@@QAE@XZ
__unwindfunclet$?Convert2Struct@CChartItemFOForeignHoga@@QAEPADPAEHHAAH@Z$41:
  000fc	8d 8d 9c fd ff
	ff		 lea	 ecx, DWORD PTR $T10[ebp]
  00102	ff 25 00 00 00
	00		 jmp	 DWORD PTR __imp_??1?$CStringT@DV?$StrTraitMFC_DLL@DV?$ChTraitsCRT@D@ATL@@@@@ATL@@QAE@XZ
__unwindfunclet$?Convert2Struct@CChartItemFOForeignHoga@@QAEPADPAEHHAAH@Z$43:
  00108	8d 8d 9c fd ff
	ff		 lea	 ecx, DWORD PTR $T9[ebp]
  0010e	ff 25 00 00 00
	00		 jmp	 DWORD PTR __imp_??1?$CStringT@DV?$StrTraitMFC_DLL@DV?$ChTraitsCRT@D@ATL@@@@@ATL@@QAE@XZ
__unwindfunclet$?Convert2Struct@CChartItemFOForeignHoga@@QAEPADPAEHHAAH@Z$45:
  00114	8d 8d 9c fd ff
	ff		 lea	 ecx, DWORD PTR $T8[ebp]
  0011a	ff 25 00 00 00
	00		 jmp	 DWORD PTR __imp_??1?$CStringT@DV?$StrTraitMFC_DLL@DV?$ChTraitsCRT@D@ATL@@@@@ATL@@QAE@XZ
__unwindfunclet$?Convert2Struct@CChartItemFOForeignHoga@@QAEPADPAEHHAAH@Z$47:
  00120	8d 8d 9c fd ff
	ff		 lea	 ecx, DWORD PTR $T7[ebp]
  00126	ff 25 00 00 00
	00		 jmp	 DWORD PTR __imp_??1?$CStringT@DV?$StrTraitMFC_DLL@DV?$ChTraitsCRT@D@ATL@@@@@ATL@@QAE@XZ
__unwindfunclet$?Convert2Struct@CChartItemFOForeignHoga@@QAEPADPAEHHAAH@Z$49:
  0012c	8d 8d 9c fd ff
	ff		 lea	 ecx, DWORD PTR $T6[ebp]
  00132	ff 25 00 00 00
	00		 jmp	 DWORD PTR __imp_??1?$CStringT@DV?$StrTraitMFC_DLL@DV?$ChTraitsCRT@D@ATL@@@@@ATL@@QAE@XZ
__unwindfunclet$?Convert2Struct@CChartItemFOForeignHoga@@QAEPADPAEHHAAH@Z$51:
  00138	8d 8d 9c fd ff
	ff		 lea	 ecx, DWORD PTR $T5[ebp]
  0013e	ff 25 00 00 00
	00		 jmp	 DWORD PTR __imp_??1?$CStringT@DV?$StrTraitMFC_DLL@DV?$ChTraitsCRT@D@ATL@@@@@ATL@@QAE@XZ
__unwindfunclet$?Convert2Struct@CChartItemFOForeignHoga@@QAEPADPAEHHAAH@Z$53:
  00144	8d 8d 9c fd ff
	ff		 lea	 ecx, DWORD PTR $T4[ebp]
  0014a	ff 25 00 00 00
	00		 jmp	 DWORD PTR __imp_??1?$CStringT@DV?$StrTraitMFC_DLL@DV?$ChTraitsCRT@D@ATL@@@@@ATL@@QAE@XZ
__unwindfunclet$?Convert2Struct@CChartItemFOForeignHoga@@QAEPADPAEHHAAH@Z$55:
  00150	8d 8d 9c fd ff
	ff		 lea	 ecx, DWORD PTR $T3[ebp]
  00156	ff 25 00 00 00
	00		 jmp	 DWORD PTR __imp_??1?$CStringT@DV?$StrTraitMFC_DLL@DV?$ChTraitsCRT@D@ATL@@@@@ATL@@QAE@XZ
__unwindfunclet$?Convert2Struct@CChartItemFOForeignHoga@@QAEPADPAEHHAAH@Z$57:
  0015c	8d 8d 9c fd ff
	ff		 lea	 ecx, DWORD PTR $T2[ebp]
  00162	ff 25 00 00 00
	00		 jmp	 DWORD PTR __imp_??1?$CStringT@DV?$StrTraitMFC_DLL@DV?$ChTraitsCRT@D@ATL@@@@@ATL@@QAE@XZ
  00168	cc		 int	 3
  00169	cc		 int	 3
  0016a	cc		 int	 3
  0016b	cc		 int	 3
  0016c	cc		 int	 3
__ehhandler$?Convert2Struct@CChartItemFOForeignHoga@@QAEPADPAEHHAAH@Z:
  0016d	90		 npad	 1
  0016e	90		 npad	 1
  0016f	8b 54 24 08	 mov	 edx, DWORD PTR [esp+8]
  00173	8d 42 0c	 lea	 eax, DWORD PTR [edx+12]
  00176	8b 8a 8c fd ff
	ff		 mov	 ecx, DWORD PTR [edx-628]
  0017c	33 c8		 xor	 ecx, eax
  0017e	e8 00 00 00 00	 call	 @__security_check_cookie@4
  00183	8b 4a fc	 mov	 ecx, DWORD PTR [edx-4]
  00186	33 c8		 xor	 ecx, eax
  00188	e8 00 00 00 00	 call	 @__security_check_cookie@4
  0018d	b8 00 00 00 00	 mov	 eax, OFFSET __ehfuncinfo$?Convert2Struct@CChartItemFOForeignHoga@@QAEPADPAEHHAAH@Z
  00192	e9 00 00 00 00	 jmp	 ___CxxFrameHandler3
text$x	ENDS
?Convert2Struct@CChartItemFOForeignHoga@@QAEPADPAEHHAAH@Z ENDP ; CChartItemFOForeignHoga::Convert2Struct
; Function compile flags: /Ogtp
; File D:\git\src\IBK\IBK_DRFN\ProjSrc\SrcDrfn\DrCommon\PartnerMng\ChartItemFOForeignHoga.cpp
;	COMDAT ?Convert@CChartItemFOForeignHoga@@QAE?AV?$CStringT@DV?$StrTraitMFC_DLL@DV?$ChTraitsCRT@D@ATL@@@@@ATL@@XZ
_TEXT	SEGMENT
$T2 = -24						; size = 4
_strCode$ = -20						; size = 4
_strData$ = -16						; size = 4
__$EHRec$ = -12						; size = 12
___$ReturnUdt$ = 8					; size = 4
?Convert@CChartItemFOForeignHoga@@QAE?AV?$CStringT@DV?$StrTraitMFC_DLL@DV?$ChTraitsCRT@D@ATL@@@@@ATL@@XZ PROC ; CChartItemFOForeignHoga::Convert, COMDAT
; _this$ = ecx

; 54   : {

  00000	55		 push	 ebp
  00001	8b ec		 mov	 ebp, esp
  00003	6a ff		 push	 -1
  00005	68 00 00 00 00	 push	 __ehhandler$?Convert@CChartItemFOForeignHoga@@QAE?AV?$CStringT@DV?$StrTraitMFC_DLL@DV?$ChTraitsCRT@D@ATL@@@@@ATL@@XZ
  0000a	64 a1 00 00 00
	00		 mov	 eax, DWORD PTR fs:0
  00010	50		 push	 eax
  00011	83 ec 0c	 sub	 esp, 12			; 0000000cH
  00014	56		 push	 esi
  00015	57		 push	 edi
  00016	a1 00 00 00 00	 mov	 eax, DWORD PTR ___security_cookie
  0001b	33 c5		 xor	 eax, ebp
  0001d	50		 push	 eax
  0001e	8d 45 f4	 lea	 eax, DWORD PTR __$EHRec$[ebp]
  00021	64 a3 00 00 00
	00		 mov	 DWORD PTR fs:0, eax
  00027	8b f9		 mov	 edi, ecx

; 55   : 	if(!m_bSet) return "";

  00029	80 bf dc 00 00
	00 00		 cmp	 BYTE PTR [edi+220], 0
  00030	75 13		 jne	 SHORT $LN5@Convert
  00032	8b 4d 08	 mov	 ecx, DWORD PTR ___$ReturnUdt$[ebp]
  00035	68 00 00 00 00	 push	 OFFSET ??_C@_00CNPNBAHC@@
  0003a	ff 15 00 00 00
	00		 call	 DWORD PTR __imp_??0?$CStringT@DV?$StrTraitMFC_DLL@DV?$ChTraitsCRT@D@ATL@@@@@ATL@@QAE@PBD@Z
  00040	e9 cb 00 00 00	 jmp	 $LN17@Convert
$LN5@Convert:

; 56   : 	
; 57   : 	int i;
; 58   : 	CString strData, strCode;

  00045	8d 4d f0	 lea	 ecx, DWORD PTR _strData$[ebp]
  00048	ff 15 00 00 00
	00		 call	 DWORD PTR __imp_??0?$CStringT@DV?$StrTraitMFC_DLL@DV?$ChTraitsCRT@D@ATL@@@@@ATL@@QAE@XZ
  0004e	8d 4d ec	 lea	 ecx, DWORD PTR _strCode$[ebp]
  00051	c7 45 fc 00 00
	00 00		 mov	 DWORD PTR __$EHRec$[ebp+8], 0
  00058	ff 15 00 00 00
	00		 call	 DWORD PTR __imp_??0?$CStringT@DV?$StrTraitMFC_DLL@DV?$ChTraitsCRT@D@ATL@@@@@ATL@@QAE@XZ

; 59   : 
; 60   : 	strCode = CString(m_InData.jmcode, sizeof(m_InData.jmcode));

  0005e	6a 0a		 push	 10			; 0000000aH
  00060	8d 47 04	 lea	 eax, DWORD PTR [edi+4]
  00063	c6 45 fc 01	 mov	 BYTE PTR __$EHRec$[ebp+8], 1
  00067	50		 push	 eax
  00068	8d 4d e8	 lea	 ecx, DWORD PTR $T2[ebp]
  0006b	ff 15 00 00 00
	00		 call	 DWORD PTR __imp_??0?$CStringT@DV?$StrTraitMFC_DLL@DV?$ChTraitsCRT@D@ATL@@@@@ATL@@QAE@PBDH@Z
  00071	50		 push	 eax
  00072	8d 4d ec	 lea	 ecx, DWORD PTR _strCode$[ebp]
  00075	c6 45 fc 02	 mov	 BYTE PTR __$EHRec$[ebp+8], 2
  00079	ff 15 00 00 00
	00		 call	 DWORD PTR __imp_??4?$CStringT@DV?$StrTraitMFC_DLL@DV?$ChTraitsCRT@D@ATL@@@@@ATL@@QAEAAV01@ABV01@@Z
  0007f	8d 4d e8	 lea	 ecx, DWORD PTR $T2[ebp]
  00082	c6 45 fc 01	 mov	 BYTE PTR __$EHRec$[ebp+8], 1
  00086	ff 15 00 00 00
	00		 call	 DWORD PTR __imp_??1?$CStringT@DV?$StrTraitMFC_DLL@DV?$ChTraitsCRT@D@ATL@@@@@ATL@@QAE@XZ

; 61   : 
; 62   : 	//////////////////////////////////////////////////////////////////////////
; 63   : 	// Inbound 데이터 작성
; 64   : 	//////////////////////////////////////////////////////////////////////////
; 65   : 	// 차트 데이터
; 66   : 	strData += "70301"; // 종목코드 Input 심볼

  0008c	68 00 00 00 00	 push	 OFFSET ??_C@_05PGMLGEKC@70301@
  00091	8d 4d f0	 lea	 ecx, DWORD PTR _strData$[ebp]
  00094	ff 15 00 00 00
	00		 call	 DWORD PTR __imp_??Y?$CStringT@DV?$StrTraitMFC_DLL@DV?$ChTraitsCRT@D@ATL@@@@@ATL@@QAEAAV01@PBD@Z

; 67   : 	strData += sDS;

  0009a	6a 7f		 push	 127			; 0000007fH
  0009c	8d 4d f0	 lea	 ecx, DWORD PTR _strData$[ebp]
  0009f	ff 15 00 00 00
	00		 call	 DWORD PTR __imp_??Y?$CStringT@DV?$StrTraitMFC_DLL@DV?$ChTraitsCRT@D@ATL@@@@@ATL@@QAEAAV01@D@Z

; 68   : 
; 69   : 	strData += strCode;

  000a5	8d 45 ec	 lea	 eax, DWORD PTR _strCode$[ebp]
  000a8	50		 push	 eax
  000a9	8d 4d f0	 lea	 ecx, DWORD PTR _strData$[ebp]
  000ac	ff 15 00 00 00
	00		 call	 DWORD PTR __imp_??Y?$CStringT@DV?$StrTraitMFC_DLL@DV?$ChTraitsCRT@D@ATL@@@@@ATL@@QAEAAV01@ABV?$CSimpleStringT@D$00@1@@Z

; 70   : 	strData += sFS;

  000b2	6a 0d		 push	 13			; 0000000dH
  000b4	8d 4d f0	 lea	 ecx, DWORD PTR _strData$[ebp]
  000b7	ff 15 00 00 00
	00		 call	 DWORD PTR __imp_??Y?$CStringT@DV?$StrTraitMFC_DLL@DV?$ChTraitsCRT@D@ATL@@@@@ATL@@QAEAAV01@D@Z

; 71   : 
; 72   : 	//////////////////////////////////////////////////////////////////////////
; 73   : 	// 종목 시세 OutBound
; 74   : 	for (i=0; i<m_nCnt; i++)

  000bd	33 f6		 xor	 esi, esi
  000bf	39 77 10	 cmp	 DWORD PTR [edi+16], esi
  000c2	7e 2d		 jle	 SHORT $LN3@Convert
  000c4	0f 1f 40 00 0f
	1f 84 00 00 00
	00 00		 npad	 12
$LL4@Convert:

; 75   : 	{
; 76   : 		strData += szFOFoHogaField[i];

  000d0	ff 34 b5 00 00
	00 00		 push	 DWORD PTR ?szFOFoHogaField@@3PAPADA[esi*4]
  000d7	8d 4d f0	 lea	 ecx, DWORD PTR _strData$[ebp]
  000da	ff 15 00 00 00
	00		 call	 DWORD PTR __imp_??Y?$CStringT@DV?$StrTraitMFC_DLL@DV?$ChTraitsCRT@D@ATL@@@@@ATL@@QAEAAV01@PBD@Z

; 77   : 		strData += sFS;

  000e0	6a 0d		 push	 13			; 0000000dH
  000e2	8d 4d f0	 lea	 ecx, DWORD PTR _strData$[ebp]
  000e5	ff 15 00 00 00
	00		 call	 DWORD PTR __imp_??Y?$CStringT@DV?$StrTraitMFC_DLL@DV?$ChTraitsCRT@D@ATL@@@@@ATL@@QAEAAV01@D@Z
  000eb	46		 inc	 esi
  000ec	3b 77 10	 cmp	 esi, DWORD PTR [edi+16]
  000ef	7c df		 jl	 SHORT $LL4@Convert
$LN3@Convert:

; 78   : 	}
; 79   : 
; 80   : 	return strData;

  000f1	8b 4d 08	 mov	 ecx, DWORD PTR ___$ReturnUdt$[ebp]
  000f4	8d 45 f0	 lea	 eax, DWORD PTR _strData$[ebp]
  000f7	50		 push	 eax
  000f8	ff 15 00 00 00
	00		 call	 DWORD PTR __imp_??0?$CStringT@DV?$StrTraitMFC_DLL@DV?$ChTraitsCRT@D@ATL@@@@@ATL@@QAE@ABV01@@Z
  000fe	8d 4d ec	 lea	 ecx, DWORD PTR _strCode$[ebp]
  00101	ff 15 00 00 00
	00		 call	 DWORD PTR __imp_??1?$CStringT@DV?$StrTraitMFC_DLL@DV?$ChTraitsCRT@D@ATL@@@@@ATL@@QAE@XZ
  00107	8d 4d f0	 lea	 ecx, DWORD PTR _strData$[ebp]
  0010a	ff 15 00 00 00
	00		 call	 DWORD PTR __imp_??1?$CStringT@DV?$StrTraitMFC_DLL@DV?$ChTraitsCRT@D@ATL@@@@@ATL@@QAE@XZ
$LN17@Convert:

; 81   : }

  00110	8b 45 08	 mov	 eax, DWORD PTR ___$ReturnUdt$[ebp]
  00113	8b 4d f4	 mov	 ecx, DWORD PTR __$EHRec$[ebp]
  00116	64 89 0d 00 00
	00 00		 mov	 DWORD PTR fs:0, ecx
  0011d	59		 pop	 ecx
  0011e	5f		 pop	 edi
  0011f	5e		 pop	 esi
  00120	8b e5		 mov	 esp, ebp
  00122	5d		 pop	 ebp
  00123	c2 04 00	 ret	 4
_TEXT	ENDS
;	COMDAT text$x
text$x	SEGMENT
__unwindfunclet$?Convert@CChartItemFOForeignHoga@@QAE?AV?$CStringT@DV?$StrTraitMFC_DLL@DV?$ChTraitsCRT@D@ATL@@@@@ATL@@XZ$1:
  00000	8d 4d f0	 lea	 ecx, DWORD PTR _strData$[ebp]
  00003	ff 25 00 00 00
	00		 jmp	 DWORD PTR __imp_??1?$CStringT@DV?$StrTraitMFC_DLL@DV?$ChTraitsCRT@D@ATL@@@@@ATL@@QAE@XZ
__unwindfunclet$?Convert@CChartItemFOForeignHoga@@QAE?AV?$CStringT@DV?$StrTraitMFC_DLL@DV?$ChTraitsCRT@D@ATL@@@@@ATL@@XZ$2:
  00009	8d 4d ec	 lea	 ecx, DWORD PTR _strCode$[ebp]
  0000c	ff 25 00 00 00
	00		 jmp	 DWORD PTR __imp_??1?$CStringT@DV?$StrTraitMFC_DLL@DV?$ChTraitsCRT@D@ATL@@@@@ATL@@QAE@XZ
__unwindfunclet$?Convert@CChartItemFOForeignHoga@@QAE?AV?$CStringT@DV?$StrTraitMFC_DLL@DV?$ChTraitsCRT@D@ATL@@@@@ATL@@XZ$3:
  00012	8d 4d e8	 lea	 ecx, DWORD PTR $T2[ebp]
  00015	ff 25 00 00 00
	00		 jmp	 DWORD PTR __imp_??1?$CStringT@DV?$StrTraitMFC_DLL@DV?$ChTraitsCRT@D@ATL@@@@@ATL@@QAE@XZ
  0001b	cc		 int	 3
  0001c	cc		 int	 3
  0001d	cc		 int	 3
  0001e	cc		 int	 3
  0001f	cc		 int	 3
__ehhandler$?Convert@CChartItemFOForeignHoga@@QAE?AV?$CStringT@DV?$StrTraitMFC_DLL@DV?$ChTraitsCRT@D@ATL@@@@@ATL@@XZ:
  00020	90		 npad	 1
  00021	90		 npad	 1
  00022	8b 54 24 08	 mov	 edx, DWORD PTR [esp+8]
  00026	8d 42 0c	 lea	 eax, DWORD PTR [edx+12]
  00029	8b 4a e8	 mov	 ecx, DWORD PTR [edx-24]
  0002c	33 c8		 xor	 ecx, eax
  0002e	e8 00 00 00 00	 call	 @__security_check_cookie@4
  00033	b8 00 00 00 00	 mov	 eax, OFFSET __ehfuncinfo$?Convert@CChartItemFOForeignHoga@@QAE?AV?$CStringT@DV?$StrTraitMFC_DLL@DV?$ChTraitsCRT@D@ATL@@@@@ATL@@XZ
  00038	e9 00 00 00 00	 jmp	 ___CxxFrameHandler3
text$x	ENDS
?Convert@CChartItemFOForeignHoga@@QAE?AV?$CStringT@DV?$StrTraitMFC_DLL@DV?$ChTraitsCRT@D@ATL@@@@@ATL@@XZ ENDP ; CChartItemFOForeignHoga::Convert
; Function compile flags: /Ogtp
; File D:\git\src\IBK\IBK_DRFN\ProjSrc\SrcDrfn\DrCommon\PartnerMng\ChartItemFOForeignHoga.cpp
;	COMDAT ?SetInData@CChartItemFOForeignHoga@@QAEXPAU_HCQ01112_IN@@@Z
_TEXT	SEGMENT
_pData$ = 8						; size = 4
?SetInData@CChartItemFOForeignHoga@@QAEXPAU_HCQ01112_IN@@@Z PROC ; CChartItemFOForeignHoga::SetInData, COMDAT
; _this$ = ecx

; 45   : {

  00000	55		 push	 ebp
  00001	8b ec		 mov	 ebp, esp

; 46   : 	memcpy(&m_InData, pData, sizeof(HCQ01112_IN));

  00003	8b 45 08	 mov	 eax, DWORD PTR _pData$[ebp]
  00006	f3 0f 7e 00	 movq	 xmm0, QWORD PTR [eax]
  0000a	66 0f d6 41 04	 movq	 QWORD PTR [ecx+4], xmm0
  0000f	66 8b 40 08	 mov	 ax, WORD PTR [eax+8]
  00013	66 89 41 0c	 mov	 WORD PTR [ecx+12], ax

; 47   : 	m_bSet = TRUE;

  00017	c6 81 dc 00 00
	00 01		 mov	 BYTE PTR [ecx+220], 1

; 48   : }

  0001e	5d		 pop	 ebp
  0001f	c2 04 00	 ret	 4
?SetInData@CChartItemFOForeignHoga@@QAEXPAU_HCQ01112_IN@@@Z ENDP ; CChartItemFOForeignHoga::SetInData
_TEXT	ENDS
; Function compile flags: /Ogtp
; File D:\git\src\IBK\IBK_DRFN\ProjSrc\SrcDrfn\DrCommon\PartnerMng\ChartItemFOForeignHoga.cpp
;	COMDAT ??1CChartItemFOForeignHoga@@UAE@XZ
_TEXT	SEGMENT
??1CChartItemFOForeignHoga@@UAE@XZ PROC			; CChartItemFOForeignHoga::~CChartItemFOForeignHoga, COMDAT
; _this$ = ecx

; 40   : {

  00000	c7 01 00 00 00
	00		 mov	 DWORD PTR [ecx], OFFSET ??_7CChartItemFOForeignHoga@@6B@

; 41   : 
; 42   : }

  00006	83 c1 14	 add	 ecx, 20			; 00000014H
  00009	e9 00 00 00 00	 jmp	 ??1CChartBozoInput@@QAE@XZ
??1CChartItemFOForeignHoga@@UAE@XZ ENDP			; CChartItemFOForeignHoga::~CChartItemFOForeignHoga
_TEXT	ENDS
; Function compile flags: /Ogtp
; File D:\git\src\IBK\IBK_DRFN\ProjSrc\SrcDrfn\DrCommon\PartnerMng\ChartItemFOForeignHoga.cpp
; File D:\git\src\IBK\IBK_DRFN\ProjSrc\SrcDrfn\inc\IChartBozoMsgMng.h
; File D:\git\src\IBK\IBK_DRFN\ProjSrc\SrcDrfn\DrCommon\PartnerMng\ChartItemFOForeignHoga.cpp
;	COMDAT ??0CChartItemFOForeignHoga@@QAE@XZ
_TEXT	SEGMENT
_this$ = -4						; size = 4
??0CChartItemFOForeignHoga@@QAE@XZ PROC			; CChartItemFOForeignHoga::CChartItemFOForeignHoga, COMDAT
; _this$ = ecx

; 29   : {

  00000	55		 push	 ebp
  00001	8b ec		 mov	 ebp, esp
  00003	51		 push	 ecx
  00004	56		 push	 esi
  00005	8b f1		 mov	 esi, ecx
  00007	89 75 fc	 mov	 DWORD PTR _this$[ebp], esi
  0000a	c7 06 00 00 00
	00		 mov	 DWORD PTR [esi], OFFSET ??_7CChartItemFOForeignHoga@@6B@
; File D:\git\src\IBK\IBK_DRFN\ProjSrc\SrcDrfn\inc\IChartBozoMsgMng.h

; 39   : 	CChartBozoInput()	{ InitData();	};

  00010	8d 4e 18	 lea	 ecx, DWORD PTR [esi+24]
  00013	c7 46 14 00 00
	00 00		 mov	 DWORD PTR [esi+20], OFFSET ??_7CChartBozoInput@@6B@
  0001a	ff 15 00 00 00
	00		 call	 DWORD PTR __imp_??0?$CStringT@DV?$StrTraitMFC_DLL@DV?$ChTraitsCRT@D@ATL@@@@@ATL@@QAE@XZ
  00020	8d 4e 1c	 lea	 ecx, DWORD PTR [esi+28]
  00023	ff 15 00 00 00
	00		 call	 DWORD PTR __imp_??0?$CStringT@DV?$StrTraitMFC_DLL@DV?$ChTraitsCRT@D@ATL@@@@@ATL@@QAE@XZ
  00029	8d 4e 20	 lea	 ecx, DWORD PTR [esi+32]
  0002c	ff 15 00 00 00
	00		 call	 DWORD PTR __imp_??0?$CStringT@DV?$StrTraitMFC_DLL@DV?$ChTraitsCRT@D@ATL@@@@@ATL@@QAE@XZ
  00032	8d 4e 24	 lea	 ecx, DWORD PTR [esi+36]
  00035	ff 15 00 00 00
	00		 call	 DWORD PTR __imp_??0?$CStringT@DV?$StrTraitMFC_DLL@DV?$ChTraitsCRT@D@ATL@@@@@ATL@@QAE@XZ
  0003b	8d 4e 28	 lea	 ecx, DWORD PTR [esi+40]
  0003e	ff 15 00 00 00
	00		 call	 DWORD PTR __imp_??0?$CStringT@DV?$StrTraitMFC_DLL@DV?$ChTraitsCRT@D@ATL@@@@@ATL@@QAE@XZ
  00044	8d 4e 2c	 lea	 ecx, DWORD PTR [esi+44]
  00047	ff 15 00 00 00
	00		 call	 DWORD PTR __imp_??0?$CStringT@DV?$StrTraitMFC_DLL@DV?$ChTraitsCRT@D@ATL@@@@@ATL@@QAE@XZ
  0004d	8d 4e 30	 lea	 ecx, DWORD PTR [esi+48]
  00050	ff 15 00 00 00
	00		 call	 DWORD PTR __imp_??0?$CStringT@DV?$StrTraitMFC_DLL@DV?$ChTraitsCRT@D@ATL@@@@@ATL@@QAE@XZ
  00056	8d 4e 34	 lea	 ecx, DWORD PTR [esi+52]
  00059	ff 15 00 00 00
	00		 call	 DWORD PTR __imp_??0?$CStringT@DV?$StrTraitMFC_DLL@DV?$ChTraitsCRT@D@ATL@@@@@ATL@@QAE@XZ
  0005f	8d 4e 38	 lea	 ecx, DWORD PTR [esi+56]
  00062	ff 15 00 00 00
	00		 call	 DWORD PTR __imp_??0?$CStringT@DV?$StrTraitMFC_DLL@DV?$ChTraitsCRT@D@ATL@@@@@ATL@@QAE@XZ
  00068	8d 4e 3c	 lea	 ecx, DWORD PTR [esi+60]
  0006b	ff 15 00 00 00
	00		 call	 DWORD PTR __imp_??0?$CStringT@DV?$StrTraitMFC_DLL@DV?$ChTraitsCRT@D@ATL@@@@@ATL@@QAE@XZ
  00071	8d 4e 40	 lea	 ecx, DWORD PTR [esi+64]
  00074	ff 15 00 00 00
	00		 call	 DWORD PTR __imp_??0?$CStringT@DV?$StrTraitMFC_DLL@DV?$ChTraitsCRT@D@ATL@@@@@ATL@@QAE@XZ
  0007a	8d 4e 44	 lea	 ecx, DWORD PTR [esi+68]
  0007d	ff 15 00 00 00
	00		 call	 DWORD PTR __imp_??0?$CStringT@DV?$StrTraitMFC_DLL@DV?$ChTraitsCRT@D@ATL@@@@@ATL@@QAE@XZ
  00083	8d 4e 48	 lea	 ecx, DWORD PTR [esi+72]
  00086	ff 15 00 00 00
	00		 call	 DWORD PTR __imp_??0?$CStringT@DV?$StrTraitMFC_DLL@DV?$ChTraitsCRT@D@ATL@@@@@ATL@@QAE@XZ
  0008c	8d 4e 4c	 lea	 ecx, DWORD PTR [esi+76]
  0008f	ff 15 00 00 00
	00		 call	 DWORD PTR __imp_??0?$CStringT@DV?$StrTraitMFC_DLL@DV?$ChTraitsCRT@D@ATL@@@@@ATL@@QAE@XZ
  00095	8d 4e 50	 lea	 ecx, DWORD PTR [esi+80]
  00098	ff 15 00 00 00
	00		 call	 DWORD PTR __imp_??0?$CStringT@DV?$StrTraitMFC_DLL@DV?$ChTraitsCRT@D@ATL@@@@@ATL@@QAE@XZ
  0009e	8d 4e 54	 lea	 ecx, DWORD PTR [esi+84]
  000a1	ff 15 00 00 00
	00		 call	 DWORD PTR __imp_??0?$CStringT@DV?$StrTraitMFC_DLL@DV?$ChTraitsCRT@D@ATL@@@@@ATL@@QAE@XZ
  000a7	8d 4e 58	 lea	 ecx, DWORD PTR [esi+88]
  000aa	ff 15 00 00 00
	00		 call	 DWORD PTR __imp_??0?$CStringT@DV?$StrTraitMFC_DLL@DV?$ChTraitsCRT@D@ATL@@@@@ATL@@QAE@XZ
  000b0	8d 4e 5c	 lea	 ecx, DWORD PTR [esi+92]
  000b3	ff 15 00 00 00
	00		 call	 DWORD PTR __imp_??0?$CStringT@DV?$StrTraitMFC_DLL@DV?$ChTraitsCRT@D@ATL@@@@@ATL@@QAE@XZ
  000b9	8d 4e 60	 lea	 ecx, DWORD PTR [esi+96]
  000bc	ff 15 00 00 00
	00		 call	 DWORD PTR __imp_??0?$CStringT@DV?$StrTraitMFC_DLL@DV?$ChTraitsCRT@D@ATL@@@@@ATL@@QAE@XZ
  000c2	8d 4e 64	 lea	 ecx, DWORD PTR [esi+100]
  000c5	ff 15 00 00 00
	00		 call	 DWORD PTR __imp_??0?$CStringT@DV?$StrTraitMFC_DLL@DV?$ChTraitsCRT@D@ATL@@@@@ATL@@QAE@XZ
  000cb	8d 4e 68	 lea	 ecx, DWORD PTR [esi+104]
  000ce	ff 15 00 00 00
	00		 call	 DWORD PTR __imp_??0?$CStringT@DV?$StrTraitMFC_DLL@DV?$ChTraitsCRT@D@ATL@@@@@ATL@@QAE@XZ
  000d4	8d 4e 6c	 lea	 ecx, DWORD PTR [esi+108]
  000d7	ff 15 00 00 00
	00		 call	 DWORD PTR __imp_??0?$CStringT@DV?$StrTraitMFC_DLL@DV?$ChTraitsCRT@D@ATL@@@@@ATL@@QAE@XZ
  000dd	8d 4e 70	 lea	 ecx, DWORD PTR [esi+112]
  000e0	ff 15 00 00 00
	00		 call	 DWORD PTR __imp_??0?$CStringT@DV?$StrTraitMFC_DLL@DV?$ChTraitsCRT@D@ATL@@@@@ATL@@QAE@XZ
  000e6	8d 4e 74	 lea	 ecx, DWORD PTR [esi+116]
  000e9	ff 15 00 00 00
	00		 call	 DWORD PTR __imp_??0?$CStringT@DV?$StrTraitMFC_DLL@DV?$ChTraitsCRT@D@ATL@@@@@ATL@@QAE@XZ
  000ef	8d 4e 78	 lea	 ecx, DWORD PTR [esi+120]
  000f2	ff 15 00 00 00
	00		 call	 DWORD PTR __imp_??0?$CStringT@DV?$StrTraitMFC_DLL@DV?$ChTraitsCRT@D@ATL@@@@@ATL@@QAE@XZ
  000f8	8d 8e d4 00 00
	00		 lea	 ecx, DWORD PTR [esi+212]
  000fe	ff 15 00 00 00
	00		 call	 DWORD PTR __imp_??0?$CStringT@DV?$StrTraitMFC_DLL@DV?$ChTraitsCRT@D@ATL@@@@@ATL@@QAE@XZ

; 49   : 		ZeroMemory(sDataType, sizeof(sDataType));

  00104	33 c0		 xor	 eax, eax
  00106	0f 57 c0	 xorps	 xmm0, xmm0

; 40   : 	CChartBozoInput(const CChartBozoInput& obj)	{ *this = obj;	};
; 41   : 
; 42   : 	void InitData()
; 43   : 	{
; 44   : 		ZeroMemory(sShcode, sizeof(sShcode));

  00109	0f 11 46 7c	 movups	 XMMWORD PTR [esi+124], xmm0

; 45   : //		ZeroMemory(sTick, sizeof(sTick));
; 46   : 		lTick = 0;

  0010d	c7 86 8c 00 00
	00 00 00 00 00	 mov	 DWORD PTR [esi+140], 0

; 47   : 		ZeroMemory(sTerm, sizeof(sTerm));
; 48   : 		ZeroMemory(sNxtFlg, sizeof(sNxtFlg));
; 49   : 		ZeroMemory(sDataType, sizeof(sDataType));

  00117	66 89 86 90 00
	00 00		 mov	 WORD PTR [esi+144], ax
  0011e	88 86 92 00 00
	00		 mov	 BYTE PTR [esi+146], al

; 50   : 		lPrice = 0;

  00124	89 86 94 00 00
	00		 mov	 DWORD PTR [esi+148], eax

; 51   : 		lVolume = 0;

  0012a	89 86 98 00 00
	00		 mov	 DWORD PTR [esi+152], eax

; 52   : 		lUpLmtPrice = 0;

  00130	89 86 9c 00 00
	00		 mov	 DWORD PTR [esi+156], eax

; 53   : 		lDnLmtPrice = 0;

  00136	89 86 a0 00 00
	00		 mov	 DWORD PTR [esi+160], eax

; 54   : 		lOpen;
; 55   : 		lHigh;
; 56   : 		lLow;
; 57   : 		lPreprice;	
; 58   : 		lPreVolume;	
; 59   : 		lPreOpen;
; 60   : 		lPreHigh;
; 61   : 		lPreLow;
; 62   : 		//ZeroMemory(sStartTime, sizeof(sStartTime));
; 63   : 		lFirstClose = 0;		

  0013c	89 86 b8 00 00
	00		 mov	 DWORD PTR [esi+184], eax

; 64   : 		nMarket = 0;

  00142	89 86 c8 00 00
	00		 mov	 DWORD PTR [esi+200], eax

; 65   : 		lWonDollar = 0;

  00148	89 86 cc 00 00
	00		 mov	 DWORD PTR [esi+204], eax

; 66   : 
; 67   : //vntsorl_20110420:[A00000410] 맵차트에서 첫리얼에 새로운 봉이 생기는 오류수정
; 68   : 		nPacketType = 0;

  0014e	89 86 d0 00 00
	00		 mov	 DWORD PTR [esi+208], eax
; File D:\git\src\IBK\IBK_DRFN\ProjSrc\SrcDrfn\DrCommon\PartnerMng\ChartItemFOForeignHoga.cpp

; 30   : 	m_bSet = FALSE;

  00154	88 86 dc 00 00
	00		 mov	 BYTE PTR [esi+220], al

; 31   : 	
; 32   : 	int nIndex = 0;
; 33   : 	while (szFOFoHogaField[nIndex] != NULL)

  0015a	39 05 00 00 00
	00		 cmp	 DWORD PTR ?szFOFoHogaField@@3PAPADA, eax
  00160	74 0b		 je	 SHORT $LN14@CChartItem
$LL2@CChartItem:

; 34   : 		nIndex++;

  00162	40		 inc	 eax
  00163	83 3c 85 00 00
	00 00 00	 cmp	 DWORD PTR ?szFOFoHogaField@@3PAPADA[eax*4], 0
  0016b	75 f5		 jne	 SHORT $LL2@CChartItem
$LN14@CChartItem:

; 35   : 
; 36   : 	m_nCnt = nIndex;
; 37   : }

  0016d	89 46 10	 mov	 DWORD PTR [esi+16], eax
  00170	8b c6		 mov	 eax, esi
  00172	5e		 pop	 esi
  00173	8b e5		 mov	 esp, ebp
  00175	5d		 pop	 ebp
  00176	c3		 ret	 0
??0CChartItemFOForeignHoga@@QAE@XZ ENDP			; CChartItemFOForeignHoga::CChartItemFOForeignHoga
_TEXT	ENDS
; Function compile flags: /Ogtp
;	COMDAT ??1CChartBozoInput@@QAE@XZ
_TEXT	SEGMENT
??1CChartBozoInput@@QAE@XZ PROC				; CChartBozoInput::~CChartBozoInput, COMDAT
; _this$ = ecx
  00000	56		 push	 esi
  00001	8b f1		 mov	 esi, ecx
  00003	8d 8e c0 00 00
	00		 lea	 ecx, DWORD PTR [esi+192]
  00009	ff 15 00 00 00
	00		 call	 DWORD PTR __imp_??1?$CStringT@DV?$StrTraitMFC_DLL@DV?$ChTraitsCRT@D@ATL@@@@@ATL@@QAE@XZ
  0000f	8d 4e 64	 lea	 ecx, DWORD PTR [esi+100]
  00012	ff 15 00 00 00
	00		 call	 DWORD PTR __imp_??1?$CStringT@DV?$StrTraitMFC_DLL@DV?$ChTraitsCRT@D@ATL@@@@@ATL@@QAE@XZ
  00018	8d 4e 60	 lea	 ecx, DWORD PTR [esi+96]
  0001b	ff 15 00 00 00
	00		 call	 DWORD PTR __imp_??1?$CStringT@DV?$StrTraitMFC_DLL@DV?$ChTraitsCRT@D@ATL@@@@@ATL@@QAE@XZ
  00021	8d 4e 5c	 lea	 ecx, DWORD PTR [esi+92]
  00024	ff 15 00 00 00
	00		 call	 DWORD PTR __imp_??1?$CStringT@DV?$StrTraitMFC_DLL@DV?$ChTraitsCRT@D@ATL@@@@@ATL@@QAE@XZ
  0002a	8d 4e 58	 lea	 ecx, DWORD PTR [esi+88]
  0002d	ff 15 00 00 00
	00		 call	 DWORD PTR __imp_??1?$CStringT@DV?$StrTraitMFC_DLL@DV?$ChTraitsCRT@D@ATL@@@@@ATL@@QAE@XZ
  00033	8d 4e 54	 lea	 ecx, DWORD PTR [esi+84]
  00036	ff 15 00 00 00
	00		 call	 DWORD PTR __imp_??1?$CStringT@DV?$StrTraitMFC_DLL@DV?$ChTraitsCRT@D@ATL@@@@@ATL@@QAE@XZ
  0003c	8d 4e 50	 lea	 ecx, DWORD PTR [esi+80]
  0003f	ff 15 00 00 00
	00		 call	 DWORD PTR __imp_??1?$CStringT@DV?$StrTraitMFC_DLL@DV?$ChTraitsCRT@D@ATL@@@@@ATL@@QAE@XZ
  00045	8d 4e 4c	 lea	 ecx, DWORD PTR [esi+76]
  00048	ff 15 00 00 00
	00		 call	 DWORD PTR __imp_??1?$CStringT@DV?$StrTraitMFC_DLL@DV?$ChTraitsCRT@D@ATL@@@@@ATL@@QAE@XZ
  0004e	8d 4e 48	 lea	 ecx, DWORD PTR [esi+72]
  00051	ff 15 00 00 00
	00		 call	 DWORD PTR __imp_??1?$CStringT@DV?$StrTraitMFC_DLL@DV?$ChTraitsCRT@D@ATL@@@@@ATL@@QAE@XZ
  00057	8d 4e 44	 lea	 ecx, DWORD PTR [esi+68]
  0005a	ff 15 00 00 00
	00		 call	 DWORD PTR __imp_??1?$CStringT@DV?$StrTraitMFC_DLL@DV?$ChTraitsCRT@D@ATL@@@@@ATL@@QAE@XZ
  00060	8d 4e 40	 lea	 ecx, DWORD PTR [esi+64]
  00063	ff 15 00 00 00
	00		 call	 DWORD PTR __imp_??1?$CStringT@DV?$StrTraitMFC_DLL@DV?$ChTraitsCRT@D@ATL@@@@@ATL@@QAE@XZ
  00069	8d 4e 3c	 lea	 ecx, DWORD PTR [esi+60]
  0006c	ff 15 00 00 00
	00		 call	 DWORD PTR __imp_??1?$CStringT@DV?$StrTraitMFC_DLL@DV?$ChTraitsCRT@D@ATL@@@@@ATL@@QAE@XZ
  00072	8d 4e 38	 lea	 ecx, DWORD PTR [esi+56]
  00075	ff 15 00 00 00
	00		 call	 DWORD PTR __imp_??1?$CStringT@DV?$StrTraitMFC_DLL@DV?$ChTraitsCRT@D@ATL@@@@@ATL@@QAE@XZ
  0007b	8d 4e 34	 lea	 ecx, DWORD PTR [esi+52]
  0007e	ff 15 00 00 00
	00		 call	 DWORD PTR __imp_??1?$CStringT@DV?$StrTraitMFC_DLL@DV?$ChTraitsCRT@D@ATL@@@@@ATL@@QAE@XZ
  00084	8d 4e 30	 lea	 ecx, DWORD PTR [esi+48]
  00087	ff 15 00 00 00
	00		 call	 DWORD PTR __imp_??1?$CStringT@DV?$StrTraitMFC_DLL@DV?$ChTraitsCRT@D@ATL@@@@@ATL@@QAE@XZ
  0008d	8d 4e 2c	 lea	 ecx, DWORD PTR [esi+44]
  00090	ff 15 00 00 00
	00		 call	 DWORD PTR __imp_??1?$CStringT@DV?$StrTraitMFC_DLL@DV?$ChTraitsCRT@D@ATL@@@@@ATL@@QAE@XZ
  00096	8d 4e 28	 lea	 ecx, DWORD PTR [esi+40]
  00099	ff 15 00 00 00
	00		 call	 DWORD PTR __imp_??1?$CStringT@DV?$StrTraitMFC_DLL@DV?$ChTraitsCRT@D@ATL@@@@@ATL@@QAE@XZ
  0009f	8d 4e 24	 lea	 ecx, DWORD PTR [esi+36]
  000a2	ff 15 00 00 00
	00		 call	 DWORD PTR __imp_??1?$CStringT@DV?$StrTraitMFC_DLL@DV?$ChTraitsCRT@D@ATL@@@@@ATL@@QAE@XZ
  000a8	8d 4e 20	 lea	 ecx, DWORD PTR [esi+32]
  000ab	ff 15 00 00 00
	00		 call	 DWORD PTR __imp_??1?$CStringT@DV?$StrTraitMFC_DLL@DV?$ChTraitsCRT@D@ATL@@@@@ATL@@QAE@XZ
  000b1	8d 4e 1c	 lea	 ecx, DWORD PTR [esi+28]
  000b4	ff 15 00 00 00
	00		 call	 DWORD PTR __imp_??1?$CStringT@DV?$StrTraitMFC_DLL@DV?$ChTraitsCRT@D@ATL@@@@@ATL@@QAE@XZ
  000ba	8d 4e 18	 lea	 ecx, DWORD PTR [esi+24]
  000bd	ff 15 00 00 00
	00		 call	 DWORD PTR __imp_??1?$CStringT@DV?$StrTraitMFC_DLL@DV?$ChTraitsCRT@D@ATL@@@@@ATL@@QAE@XZ
  000c3	8d 4e 14	 lea	 ecx, DWORD PTR [esi+20]
  000c6	ff 15 00 00 00
	00		 call	 DWORD PTR __imp_??1?$CStringT@DV?$StrTraitMFC_DLL@DV?$ChTraitsCRT@D@ATL@@@@@ATL@@QAE@XZ
  000cc	8d 4e 10	 lea	 ecx, DWORD PTR [esi+16]
  000cf	ff 15 00 00 00
	00		 call	 DWORD PTR __imp_??1?$CStringT@DV?$StrTraitMFC_DLL@DV?$ChTraitsCRT@D@ATL@@@@@ATL@@QAE@XZ
  000d5	8d 4e 0c	 lea	 ecx, DWORD PTR [esi+12]
  000d8	ff 15 00 00 00
	00		 call	 DWORD PTR __imp_??1?$CStringT@DV?$StrTraitMFC_DLL@DV?$ChTraitsCRT@D@ATL@@@@@ATL@@QAE@XZ
  000de	8d 4e 08	 lea	 ecx, DWORD PTR [esi+8]
  000e1	ff 15 00 00 00
	00		 call	 DWORD PTR __imp_??1?$CStringT@DV?$StrTraitMFC_DLL@DV?$ChTraitsCRT@D@ATL@@@@@ATL@@QAE@XZ
  000e7	8d 4e 04	 lea	 ecx, DWORD PTR [esi+4]
  000ea	5e		 pop	 esi
  000eb	ff 25 00 00 00
	00		 jmp	 DWORD PTR __imp_??1?$CStringT@DV?$StrTraitMFC_DLL@DV?$ChTraitsCRT@D@ATL@@@@@ATL@@QAE@XZ
??1CChartBozoInput@@QAE@XZ ENDP				; CChartBozoInput::~CChartBozoInput
_TEXT	ENDS
; Function compile flags: /Ogtp
; File D:\git\src\IBK\IBK_DRFN\ProjSrc\SrcDrfn\inc\IChartBozoMsgMng.h
;	COMDAT ??4CChartBozoInput@@UAEAAV0@ABV0@@Z
_TEXT	SEGMENT
_item$ = 8						; size = 4
??4CChartBozoInput@@UAEAAV0@ABV0@@Z PROC		; CChartBozoInput::operator=, COMDAT
; _this$ = ecx

; 124  : 	virtual CChartBozoInput& operator = (const CChartBozoInput& item)	{ Copy(item);	return *this; };

  00000	55		 push	 ebp
  00001	8b ec		 mov	 ebp, esp
  00003	56		 push	 esi
  00004	ff 75 08	 push	 DWORD PTR _item$[ebp]
  00007	8b f1		 mov	 esi, ecx
  00009	8b 06		 mov	 eax, DWORD PTR [esi]
  0000b	ff 10		 call	 DWORD PTR [eax]
  0000d	8b c6		 mov	 eax, esi
  0000f	5e		 pop	 esi
  00010	5d		 pop	 ebp
  00011	c2 04 00	 ret	 4
??4CChartBozoInput@@UAEAAV0@ABV0@@Z ENDP		; CChartBozoInput::operator=
_TEXT	ENDS
; Function compile flags: /Ogtp
; File D:\git\src\IBK\IBK_DRFN\ProjSrc\SrcDrfn\inc\IChartBozoMsgMng.h
;	COMDAT ?Copy@CChartBozoInput@@UAEXABV1@@Z
_TEXT	SEGMENT
_right$ = 8						; size = 4
?Copy@CChartBozoInput@@UAEXABV1@@Z PROC			; CChartBozoInput::Copy, COMDAT
; _this$ = ecx

; 72   : 	{

  00000	55		 push	 ebp
  00001	8b ec		 mov	 ebp, esp
  00003	56		 push	 esi

; 73   : 		m_sMarket		= right.m_sMarket;

  00004	8b 75 08	 mov	 esi, DWORD PTR _right$[ebp]
  00007	57		 push	 edi
  00008	8b f9		 mov	 edi, ecx
  0000a	8d 46 04	 lea	 eax, DWORD PTR [esi+4]
  0000d	50		 push	 eax
  0000e	8d 4f 04	 lea	 ecx, DWORD PTR [edi+4]
  00011	ff 15 00 00 00
	00		 call	 DWORD PTR __imp_??4?$CStringT@DV?$StrTraitMFC_DLL@DV?$ChTraitsCRT@D@ATL@@@@@ATL@@QAEAAV01@ABV01@@Z

; 74   : 		m_sShcode		= right.m_sShcode;

  00017	8d 46 08	 lea	 eax, DWORD PTR [esi+8]
  0001a	50		 push	 eax
  0001b	8d 4f 08	 lea	 ecx, DWORD PTR [edi+8]
  0001e	ff 15 00 00 00
	00		 call	 DWORD PTR __imp_??4?$CStringT@DV?$StrTraitMFC_DLL@DV?$ChTraitsCRT@D@ATL@@@@@ATL@@QAEAAV01@ABV01@@Z

; 75   : 		m_sTick			= right.m_sTick;

  00024	8d 46 0c	 lea	 eax, DWORD PTR [esi+12]
  00027	50		 push	 eax
  00028	8d 4f 0c	 lea	 ecx, DWORD PTR [edi+12]
  0002b	ff 15 00 00 00
	00		 call	 DWORD PTR __imp_??4?$CStringT@DV?$StrTraitMFC_DLL@DV?$ChTraitsCRT@D@ATL@@@@@ATL@@QAEAAV01@ABV01@@Z

; 76   : 		m_sTerm			= right.m_sTerm;

  00031	8d 46 10	 lea	 eax, DWORD PTR [esi+16]
  00034	50		 push	 eax
  00035	8d 4f 10	 lea	 ecx, DWORD PTR [edi+16]
  00038	ff 15 00 00 00
	00		 call	 DWORD PTR __imp_??4?$CStringT@DV?$StrTraitMFC_DLL@DV?$ChTraitsCRT@D@ATL@@@@@ATL@@QAEAAV01@ABV01@@Z

; 77   : 		m_sNxtFlg		= right.m_sNxtFlg;

  0003e	8d 46 14	 lea	 eax, DWORD PTR [esi+20]
  00041	50		 push	 eax
  00042	8d 4f 14	 lea	 ecx, DWORD PTR [edi+20]
  00045	ff 15 00 00 00
	00		 call	 DWORD PTR __imp_??4?$CStringT@DV?$StrTraitMFC_DLL@DV?$ChTraitsCRT@D@ATL@@@@@ATL@@QAEAAV01@ABV01@@Z

; 78   : 		m_sDataType		= right.m_sDataType;

  0004b	8d 46 18	 lea	 eax, DWORD PTR [esi+24]
  0004e	50		 push	 eax
  0004f	8d 4f 18	 lea	 ecx, DWORD PTR [edi+24]
  00052	ff 15 00 00 00
	00		 call	 DWORD PTR __imp_??4?$CStringT@DV?$StrTraitMFC_DLL@DV?$ChTraitsCRT@D@ATL@@@@@ATL@@QAEAAV01@ABV01@@Z

; 79   : 		m_sVolume		= right.m_sVolume;

  00058	8d 46 20	 lea	 eax, DWORD PTR [esi+32]
  0005b	50		 push	 eax
  0005c	8d 4f 20	 lea	 ecx, DWORD PTR [edi+32]
  0005f	ff 15 00 00 00
	00		 call	 DWORD PTR __imp_??4?$CStringT@DV?$StrTraitMFC_DLL@DV?$ChTraitsCRT@D@ATL@@@@@ATL@@QAEAAV01@ABV01@@Z

; 80   : 		m_sUpLmtPrice	= right.m_sUpLmtPrice;

  00065	8d 46 24	 lea	 eax, DWORD PTR [esi+36]
  00068	50		 push	 eax
  00069	8d 4f 24	 lea	 ecx, DWORD PTR [edi+36]
  0006c	ff 15 00 00 00
	00		 call	 DWORD PTR __imp_??4?$CStringT@DV?$StrTraitMFC_DLL@DV?$ChTraitsCRT@D@ATL@@@@@ATL@@QAEAAV01@ABV01@@Z

; 81   : 		m_sDnLmtPrice	= right.m_sDnLmtPrice;

  00072	8d 46 28	 lea	 eax, DWORD PTR [esi+40]
  00075	50		 push	 eax
  00076	8d 4f 28	 lea	 ecx, DWORD PTR [edi+40]
  00079	ff 15 00 00 00
	00		 call	 DWORD PTR __imp_??4?$CStringT@DV?$StrTraitMFC_DLL@DV?$ChTraitsCRT@D@ATL@@@@@ATL@@QAEAAV01@ABV01@@Z

; 82   : 		m_sOpen			= right.m_sOpen;

  0007f	8d 46 2c	 lea	 eax, DWORD PTR [esi+44]
  00082	50		 push	 eax
  00083	8d 4f 2c	 lea	 ecx, DWORD PTR [edi+44]
  00086	ff 15 00 00 00
	00		 call	 DWORD PTR __imp_??4?$CStringT@DV?$StrTraitMFC_DLL@DV?$ChTraitsCRT@D@ATL@@@@@ATL@@QAEAAV01@ABV01@@Z

; 83   : 		m_sHigh			= right.m_sHigh;

  0008c	8d 46 30	 lea	 eax, DWORD PTR [esi+48]
  0008f	50		 push	 eax
  00090	8d 4f 30	 lea	 ecx, DWORD PTR [edi+48]
  00093	ff 15 00 00 00
	00		 call	 DWORD PTR __imp_??4?$CStringT@DV?$StrTraitMFC_DLL@DV?$ChTraitsCRT@D@ATL@@@@@ATL@@QAEAAV01@ABV01@@Z

; 84   : 		m_sLow			= right.m_sLow;

  00099	8d 46 34	 lea	 eax, DWORD PTR [esi+52]
  0009c	50		 push	 eax
  0009d	8d 4f 34	 lea	 ecx, DWORD PTR [edi+52]
  000a0	ff 15 00 00 00
	00		 call	 DWORD PTR __imp_??4?$CStringT@DV?$StrTraitMFC_DLL@DV?$ChTraitsCRT@D@ATL@@@@@ATL@@QAEAAV01@ABV01@@Z

; 85   : 		m_sPrice		= right.m_sPrice;		// 20100326_JS.Kim.  종가 복사안하는 버그 수정

  000a6	8d 46 1c	 lea	 eax, DWORD PTR [esi+28]
  000a9	50		 push	 eax
  000aa	8d 4f 1c	 lea	 ecx, DWORD PTR [edi+28]
  000ad	ff 15 00 00 00
	00		 call	 DWORD PTR __imp_??4?$CStringT@DV?$StrTraitMFC_DLL@DV?$ChTraitsCRT@D@ATL@@@@@ATL@@QAEAAV01@ABV01@@Z

; 86   : 		m_sPreprice		= right.m_sPreprice;

  000b3	8d 46 38	 lea	 eax, DWORD PTR [esi+56]
  000b6	50		 push	 eax
  000b7	8d 4f 38	 lea	 ecx, DWORD PTR [edi+56]
  000ba	ff 15 00 00 00
	00		 call	 DWORD PTR __imp_??4?$CStringT@DV?$StrTraitMFC_DLL@DV?$ChTraitsCRT@D@ATL@@@@@ATL@@QAEAAV01@ABV01@@Z

; 87   : 		m_sPreVolume	= right.m_sPreVolume;

  000c0	8d 46 3c	 lea	 eax, DWORD PTR [esi+60]
  000c3	50		 push	 eax
  000c4	8d 4f 3c	 lea	 ecx, DWORD PTR [edi+60]
  000c7	ff 15 00 00 00
	00		 call	 DWORD PTR __imp_??4?$CStringT@DV?$StrTraitMFC_DLL@DV?$ChTraitsCRT@D@ATL@@@@@ATL@@QAEAAV01@ABV01@@Z

; 88   : 		m_sStartTime	= right.m_sStartTime;

  000cd	8d 46 40	 lea	 eax, DWORD PTR [esi+64]
  000d0	50		 push	 eax
  000d1	8d 4f 40	 lea	 ecx, DWORD PTR [edi+64]
  000d4	ff 15 00 00 00
	00		 call	 DWORD PTR __imp_??4?$CStringT@DV?$StrTraitMFC_DLL@DV?$ChTraitsCRT@D@ATL@@@@@ATL@@QAEAAV01@ABV01@@Z

; 89   : 		m_sFirstClose	= right.m_sFirstClose;

  000da	8d 46 44	 lea	 eax, DWORD PTR [esi+68]
  000dd	50		 push	 eax
  000de	8d 4f 44	 lea	 ecx, DWORD PTR [edi+68]
  000e1	ff 15 00 00 00
	00		 call	 DWORD PTR __imp_??4?$CStringT@DV?$StrTraitMFC_DLL@DV?$ChTraitsCRT@D@ATL@@@@@ATL@@QAEAAV01@ABV01@@Z

; 90   : 		m_sPreOpen		= right.m_sPreOpen;

  000e7	8d 46 48	 lea	 eax, DWORD PTR [esi+72]
  000ea	50		 push	 eax
  000eb	8d 4f 48	 lea	 ecx, DWORD PTR [edi+72]
  000ee	ff 15 00 00 00
	00		 call	 DWORD PTR __imp_??4?$CStringT@DV?$StrTraitMFC_DLL@DV?$ChTraitsCRT@D@ATL@@@@@ATL@@QAEAAV01@ABV01@@Z

; 91   : 		m_sPreHigh		= right.m_sPreHigh;

  000f4	8d 46 4c	 lea	 eax, DWORD PTR [esi+76]
  000f7	50		 push	 eax
  000f8	8d 4f 4c	 lea	 ecx, DWORD PTR [edi+76]
  000fb	ff 15 00 00 00
	00		 call	 DWORD PTR __imp_??4?$CStringT@DV?$StrTraitMFC_DLL@DV?$ChTraitsCRT@D@ATL@@@@@ATL@@QAEAAV01@ABV01@@Z

; 92   : 		m_sPreLow		= right.m_sPreLow;

  00101	8d 46 50	 lea	 eax, DWORD PTR [esi+80]
  00104	50		 push	 eax
  00105	8d 4f 50	 lea	 ecx, DWORD PTR [edi+80]
  00108	ff 15 00 00 00
	00		 call	 DWORD PTR __imp_??4?$CStringT@DV?$StrTraitMFC_DLL@DV?$ChTraitsCRT@D@ATL@@@@@ATL@@QAEAAV01@ABV01@@Z

; 93   : 		m_sWonDollor	= right.m_sWonDollor;

  0010e	8d 46 54	 lea	 eax, DWORD PTR [esi+84]
  00111	50		 push	 eax
  00112	8d 4f 54	 lea	 ecx, DWORD PTR [edi+84]
  00115	ff 15 00 00 00
	00		 call	 DWORD PTR __imp_??4?$CStringT@DV?$StrTraitMFC_DLL@DV?$ChTraitsCRT@D@ATL@@@@@ATL@@QAEAAV01@ABV01@@Z

; 94   : 		memcpy(sShcode, right.sShcode, sizeof(sShcode));

  0011b	0f 10 46 68	 movups	 xmm0, XMMWORD PTR [esi+104]

; 95   : 		lTick			= right.lTick;
; 96   : 		memcpy(sTerm, right.sTerm, sizeof(sTerm));
; 97   : 		memcpy(sNxtFlg, right.sNxtFlg, sizeof(sNxtFlg));
; 98   : 		memcpy(sDataType, right.sDataType, sizeof(sDataType));
; 99   : 		lPrice			= right.lPrice;
; 100  : 		lVolume			= right.lVolume;
; 101  : 		lUpLmtPrice		= right.lUpLmtPrice;
; 102  : 		lDnLmtPrice		= right.lDnLmtPrice;
; 103  : 		lOpen			= right.lOpen;
; 104  : 		lHigh			= right.lHigh;
; 105  : 		lLow			= right.lLow;
; 106  : 		lPreprice		= right.lPreprice;
; 107  : 		lPreVolume		= right.lPreVolume;
; 108  : 		lFirstClose		= right.lFirstClose;
; 109  : 		lPreOpen		= right.lPreOpen;
; 110  : 		lPreHigh		= right.lPreHigh;
; 111  : 		lPreLow			= right.lPreHigh;
; 112  : 		nMarket			= right.nMarket;
; 113  : 		lWonDollar		= right.lWonDollar;
; 114  : //vntsorl_20110420:[A00000410] 맵차트에서 첫리얼에 새로운 봉이 생기는 오류수정
; 115  : 		nPacketType		= right.nPacketType;
; 116  : 		m_sLastDataTime	= right.m_sLastDataTime;

  0011f	8d 8f c0 00 00
	00		 lea	 ecx, DWORD PTR [edi+192]
  00125	0f 11 47 68	 movups	 XMMWORD PTR [edi+104], xmm0
  00129	8b 46 78	 mov	 eax, DWORD PTR [esi+120]
  0012c	89 47 78	 mov	 DWORD PTR [edi+120], eax
  0012f	0f b6 46 7c	 movzx	 eax, BYTE PTR [esi+124]
  00133	88 47 7c	 mov	 BYTE PTR [edi+124], al
  00136	0f b6 46 7d	 movzx	 eax, BYTE PTR [esi+125]
  0013a	88 47 7d	 mov	 BYTE PTR [edi+125], al
  0013d	0f b6 46 7e	 movzx	 eax, BYTE PTR [esi+126]
  00141	88 47 7e	 mov	 BYTE PTR [edi+126], al
  00144	8b 86 80 00 00
	00		 mov	 eax, DWORD PTR [esi+128]
  0014a	89 87 80 00 00
	00		 mov	 DWORD PTR [edi+128], eax
  00150	8b 86 84 00 00
	00		 mov	 eax, DWORD PTR [esi+132]
  00156	89 87 84 00 00
	00		 mov	 DWORD PTR [edi+132], eax
  0015c	8b 86 88 00 00
	00		 mov	 eax, DWORD PTR [esi+136]
  00162	89 87 88 00 00
	00		 mov	 DWORD PTR [edi+136], eax
  00168	8b 86 8c 00 00
	00		 mov	 eax, DWORD PTR [esi+140]
  0016e	89 87 8c 00 00
	00		 mov	 DWORD PTR [edi+140], eax
  00174	8b 86 90 00 00
	00		 mov	 eax, DWORD PTR [esi+144]
  0017a	89 87 90 00 00
	00		 mov	 DWORD PTR [edi+144], eax
  00180	8b 86 94 00 00
	00		 mov	 eax, DWORD PTR [esi+148]
  00186	89 87 94 00 00
	00		 mov	 DWORD PTR [edi+148], eax
  0018c	8b 86 98 00 00
	00		 mov	 eax, DWORD PTR [esi+152]
  00192	89 87 98 00 00
	00		 mov	 DWORD PTR [edi+152], eax
  00198	8b 86 9c 00 00
	00		 mov	 eax, DWORD PTR [esi+156]
  0019e	89 87 9c 00 00
	00		 mov	 DWORD PTR [edi+156], eax
  001a4	8b 86 a0 00 00
	00		 mov	 eax, DWORD PTR [esi+160]
  001aa	89 87 a0 00 00
	00		 mov	 DWORD PTR [edi+160], eax
  001b0	8b 86 a4 00 00
	00		 mov	 eax, DWORD PTR [esi+164]
  001b6	89 87 a4 00 00
	00		 mov	 DWORD PTR [edi+164], eax
  001bc	8b 86 a8 00 00
	00		 mov	 eax, DWORD PTR [esi+168]
  001c2	89 87 a8 00 00
	00		 mov	 DWORD PTR [edi+168], eax
  001c8	8b 86 ac 00 00
	00		 mov	 eax, DWORD PTR [esi+172]
  001ce	89 87 ac 00 00
	00		 mov	 DWORD PTR [edi+172], eax
  001d4	8b 86 ac 00 00
	00		 mov	 eax, DWORD PTR [esi+172]
  001da	89 87 b0 00 00
	00		 mov	 DWORD PTR [edi+176], eax
  001e0	8b 86 b4 00 00
	00		 mov	 eax, DWORD PTR [esi+180]
  001e6	89 87 b4 00 00
	00		 mov	 DWORD PTR [edi+180], eax
  001ec	8b 86 b8 00 00
	00		 mov	 eax, DWORD PTR [esi+184]
  001f2	89 87 b8 00 00
	00		 mov	 DWORD PTR [edi+184], eax
  001f8	8b 86 bc 00 00
	00		 mov	 eax, DWORD PTR [esi+188]
  001fe	89 87 bc 00 00
	00		 mov	 DWORD PTR [edi+188], eax
  00204	8d 86 c0 00 00
	00		 lea	 eax, DWORD PTR [esi+192]
  0020a	50		 push	 eax
  0020b	ff 15 00 00 00
	00		 call	 DWORD PTR __imp_??4?$CStringT@DV?$StrTraitMFC_DLL@DV?$ChTraitsCRT@D@ATL@@@@@ATL@@QAEAAV01@ABV01@@Z

; 117  : 		m_sVolAmt		= right.m_sVolAmt;		//[A00000651][A00000652]누적거래대금.

  00211	8d 46 58	 lea	 eax, DWORD PTR [esi+88]
  00214	50		 push	 eax
  00215	8d 4f 58	 lea	 ecx, DWORD PTR [edi+88]
  00218	ff 15 00 00 00
	00		 call	 DWORD PTR __imp_??4?$CStringT@DV?$StrTraitMFC_DLL@DV?$ChTraitsCRT@D@ATL@@@@@ATL@@QAEAAV01@ABV01@@Z

; 118  : 
; 119  : 		m_szMarketTime	= right.m_szMarketTime;;

  0021e	8d 46 60	 lea	 eax, DWORD PTR [esi+96]
  00221	50		 push	 eax
  00222	8d 4f 60	 lea	 ecx, DWORD PTR [edi+96]
  00225	ff 15 00 00 00
	00		 call	 DWORD PTR __imp_??4?$CStringT@DV?$StrTraitMFC_DLL@DV?$ChTraitsCRT@D@ATL@@@@@ATL@@QAEAAV01@ABV01@@Z

; 120  : 		m_szBaseTime	= right.m_szBaseTime;;

  0022b	8d 46 64	 lea	 eax, DWORD PTR [esi+100]
  0022e	50		 push	 eax
  0022f	8d 4f 64	 lea	 ecx, DWORD PTR [edi+100]
  00232	ff 15 00 00 00
	00		 call	 DWORD PTR __imp_??4?$CStringT@DV?$StrTraitMFC_DLL@DV?$ChTraitsCRT@D@ATL@@@@@ATL@@QAEAAV01@ABV01@@Z
  00238	5f		 pop	 edi
  00239	5e		 pop	 esi

; 121  : 
; 122  : 	};

  0023a	5d		 pop	 ebp
  0023b	c2 04 00	 ret	 4
?Copy@CChartBozoInput@@UAEXABV1@@Z ENDP			; CChartBozoInput::Copy
_TEXT	ENDS
; Function compile flags: /Ogtp
; File D:\git\src\IBK\IBK_DRFN\ProjSrc\SrcDrfn\Chart\commontr\TRDefine.h
;	COMDAT ??__ERMSG_GETSIGNAL_REAL@@YAXXZ
text$di	SEGMENT
??__ERMSG_GETSIGNAL_REAL@@YAXXZ PROC			; `dynamic initializer for 'RMSG_GETSIGNAL_REAL'', COMDAT

; 213  : const UINT RMSG_GETSIGNAL_REAL = ::RegisterWindowMessage(_T("RMSG_GETSIGNAL_REAL"));

  00000	68 00 00 00 00	 push	 OFFSET ??_C@_0BE@FJPKENOB@RMSG_GETSIGNAL_REAL@
  00005	ff 15 00 00 00
	00		 call	 DWORD PTR __imp__RegisterWindowMessageA@4
  0000b	a3 00 00 00 00	 mov	 DWORD PTR ?RMSG_GETSIGNAL_REAL@@3IB, eax
  00010	c3		 ret	 0
??__ERMSG_GETSIGNAL_REAL@@YAXXZ ENDP			; `dynamic initializer for 'RMSG_GETSIGNAL_REAL''
text$di	ENDS
; Function compile flags: /Ogtp
; File D:\git\src\IBK\IBK_DRFN\ProjSrc\SrcDrfn\inc\IBaseDefine.h
;	COMDAT ??__ERMSG_SETPCTRDATA@@YAXXZ
text$di	SEGMENT
??__ERMSG_SETPCTRDATA@@YAXXZ PROC			; `dynamic initializer for 'RMSG_SETPCTRDATA'', COMDAT

; 172  : const UINT RMSG_SETPCTRDATA = ::RegisterWindowMessage("RMSG_SETPCTRDATA");

  00000	68 00 00 00 00	 push	 OFFSET ??_C@_0BB@JPACFCL@RMSG_SETPCTRDATA@
  00005	ff 15 00 00 00
	00		 call	 DWORD PTR __imp__RegisterWindowMessageA@4
  0000b	a3 00 00 00 00	 mov	 DWORD PTR ?RMSG_SETPCTRDATA@@3IB, eax
  00010	c3		 ret	 0
??__ERMSG_SETPCTRDATA@@YAXXZ ENDP			; `dynamic initializer for 'RMSG_SETPCTRDATA''
text$di	ENDS
; Function compile flags: /Ogtp
; File D:\git\src\IBK\IBK_DRFN\ProjSrc\SrcDrfn\inc\IBaseDefine.h
;	COMDAT ??__ERMSG_GETPCTRDATA@@YAXXZ
text$di	SEGMENT
??__ERMSG_GETPCTRDATA@@YAXXZ PROC			; `dynamic initializer for 'RMSG_GETPCTRDATA'', COMDAT

; 171  : const UINT RMSG_GETPCTRDATA = ::RegisterWindowMessage("RMSG_GETPCTRDATA");

  00000	68 00 00 00 00	 push	 OFFSET ??_C@_0BB@GOOPDKI@RMSG_GETPCTRDATA@
  00005	ff 15 00 00 00
	00		 call	 DWORD PTR __imp__RegisterWindowMessageA@4
  0000b	a3 00 00 00 00	 mov	 DWORD PTR ?RMSG_GETPCTRDATA@@3IB, eax
  00010	c3		 ret	 0
??__ERMSG_GETPCTRDATA@@YAXXZ ENDP			; `dynamic initializer for 'RMSG_GETPCTRDATA''
text$di	ENDS
; Function compile flags: /Ogtp
; File D:\git\src\IBK\IBK_DRFN\ProjSrc\SrcDrfn\inc\IBaseDefine.h
;	COMDAT ??__ERMSG_INTERFACE@@YAXXZ
text$di	SEGMENT
??__ERMSG_INTERFACE@@YAXXZ PROC				; `dynamic initializer for 'RMSG_INTERFACE'', COMDAT

; 170  : const UINT RMSG_INTERFACE = ::RegisterWindowMessage("RMSG_INTERFACE");

  00000	68 00 00 00 00	 push	 OFFSET ??_C@_0P@BKKCOCLK@RMSG_INTERFACE@
  00005	ff 15 00 00 00
	00		 call	 DWORD PTR __imp__RegisterWindowMessageA@4
  0000b	a3 00 00 00 00	 mov	 DWORD PTR ?RMSG_INTERFACE@@3IB, eax
  00010	c3		 ret	 0
??__ERMSG_INTERFACE@@YAXXZ ENDP				; `dynamic initializer for 'RMSG_INTERFACE''
text$di	ENDS
; Function compile flags: /Ogtp
; File D:\git\src\IBK\IBK_DRFN\ProjSrc\SrcDrfn\DrCommon\PartnerMng\ChartItemFOForeignHoga.cpp
;	COMDAT ?__empty_global_delete@@YAXPAXI@Z
_TEXT	SEGMENT
___formal$ = 8						; size = 4
___formal$ = 12						; size = 4
?__empty_global_delete@@YAXPAXI@Z PROC			; __empty_global_delete, COMDAT

  00000	c2 00 00	 ret	 0
?__empty_global_delete@@YAXPAXI@Z ENDP			; __empty_global_delete
_TEXT	ENDS
; Function compile flags: /Ogtp
; File D:\git\src\IBK\IBK_DRFN\ProjSrc\SrcDrfn\DrCommon\PartnerMng\ChartItemFOForeignHoga.cpp
;	COMDAT ?__empty_global_delete@@YAXPAX@Z
_TEXT	SEGMENT
___formal$ = 8						; size = 4
?__empty_global_delete@@YAXPAX@Z PROC			; __empty_global_delete, COMDAT

  00000	c2 00 00	 ret	 0
?__empty_global_delete@@YAXPAX@Z ENDP			; __empty_global_delete
_TEXT	ENDS
END
