; Listing generated by Microsoft (R) Optimizing Compiler Version 19.29.30145.0 

	TITLE	D:\git\src\IBK\IBK_DRFN\#DRfn-CS\_Obj\PartnerMng\ChartReplay.obj
	.686P
	.XMM
	include listing.inc
	.model	flat

INCLUDELIB MSVCRT
INCLUDELIB OLDNAMES

PUBLIC	?szReplayRowField@@3PAPADA			; szReplayRowField
PUBLIC	??_C@_03PFDOMGEN@302@				; `string'
PUBLIC	??_C@_03LDJHHAHM@034@				; `string'
PUBLIC	??_C@_03PNBEIMIM@023@				; `string'
PUBLIC	??_C@_03OFMNNHPK@032@				; `string'
PUBLIC	??_C@_0P@BKKCOCLK@RMSG_INTERFACE@		; `string'
PUBLIC	??_C@_0BB@GOOPDKI@RMSG_GETPCTRDATA@		; `string'
PUBLIC	??_C@_0BB@JPACFCL@RMSG_SETPCTRDATA@		; `string'
PUBLIC	??_C@_0BE@FJPKENOB@RMSG_GETSIGNAL_REAL@		; `string'
;	COMDAT ??_C@_0BE@FJPKENOB@RMSG_GETSIGNAL_REAL@
CONST	SEGMENT
??_C@_0BE@FJPKENOB@RMSG_GETSIGNAL_REAL@ DB 'RMSG_GETSIGNAL_REAL', 00H ; `string'
CONST	ENDS
;	COMDAT ??_C@_0BB@JPACFCL@RMSG_SETPCTRDATA@
CONST	SEGMENT
??_C@_0BB@JPACFCL@RMSG_SETPCTRDATA@ DB 'RMSG_SETPCTRDATA', 00H ; `string'
CONST	ENDS
;	COMDAT ??_C@_0BB@GOOPDKI@RMSG_GETPCTRDATA@
CONST	SEGMENT
??_C@_0BB@GOOPDKI@RMSG_GETPCTRDATA@ DB 'RMSG_GETPCTRDATA', 00H ; `string'
CONST	ENDS
;	COMDAT ??_C@_0P@BKKCOCLK@RMSG_INTERFACE@
CONST	SEGMENT
??_C@_0P@BKKCOCLK@RMSG_INTERFACE@ DB 'RMSG_INTERFACE', 00H ; `string'
CONST	ENDS
;	COMDAT ??_C@_03OFMNNHPK@032@
CONST	SEGMENT
??_C@_03OFMNNHPK@032@ DB '032', 00H			; `string'
CONST	ENDS
;	COMDAT ??_C@_03PNBEIMIM@023@
CONST	SEGMENT
??_C@_03PNBEIMIM@023@ DB '023', 00H			; `string'
CONST	ENDS
;	COMDAT ??_C@_03LDJHHAHM@034@
CONST	SEGMENT
??_C@_03LDJHHAHM@034@ DB '034', 00H			; `string'
CONST	ENDS
;	COMDAT ??_C@_03PFDOMGEN@302@
CONST	SEGMENT
??_C@_03PFDOMGEN@302@ DB '302', 00H			; `string'
CONST	ENDS
_DATA	SEGMENT
?szReplayRowField@@3PAPADA DD FLAT:??_C@_03PFDOMGEN@302@ ; szReplayRowField
	DD	FLAT:??_C@_03LDJHHAHM@034@
	DD	FLAT:??_C@_03PNBEIMIM@023@
	DD	FLAT:??_C@_03OFMNNHPK@032@
	DD	00H
_DATA	ENDS
PUBLIC	?__empty_global_delete@@YAXPAX@Z		; __empty_global_delete
PUBLIC	?__empty_global_delete@@YAXPAXI@Z		; __empty_global_delete
PUBLIC	___local_stdio_printf_options
PUBLIC	_sprintf
PUBLIC	??0CChartReplay@@QAE@XZ				; CChartReplay::CChartReplay
PUBLIC	??1CChartReplay@@UAE@XZ				; CChartReplay::~CChartReplay
PUBLIC	?SetInData@CChartReplay@@QAEXPAUKB_d1016_InRec1@@@Z ; CChartReplay::SetInData
PUBLIC	?Convert@CChartReplay@@QAE?AV?$CStringT@DV?$StrTraitMFC_DLL@DV?$ChTraitsCRT@D@ATL@@@@@ATL@@XZ ; CChartReplay::Convert
PUBLIC	?Convert2Struct@CChartReplay@@QAEPADPAEHHAAH@Z	; CChartReplay::Convert2Struct
PUBLIC	??_GCChartReplay@@UAEPAXI@Z			; CChartReplay::`scalar deleting destructor'
PUBLIC	?_OptionsStorage@?1??__local_stdio_printf_options@@9@4_KA ; `__local_stdio_printf_options'::`2'::_OptionsStorage
PUBLIC	??_C@_00CNPNBAHC@@				; `string'
PUBLIC	??_7CChartReplay@@6B@				; CChartReplay::`vftable'
PUBLIC	??_C@_03HEBKFNAF@101@				; `string'
PUBLIC	??_C@_03BPCFPNJJ@A01@				; `string'
PUBLIC	??_C@_03GGKPPCOL@201@				; `string'
PUBLIC	??_C@_03NJAFCHH@B01@				; `string'
PUBLIC	??_C@_03NOBDJFIO@301@				; `string'
PUBLIC	??_C@_03LFCMDFBC@C01@				; `string'
PUBLIC	??_C@_05FADKAPAE@31301@				; `string'
PUBLIC	??_C@_05ENDPDPLM@41301@				; `string'
PUBLIC	??_C@_04KFDECMLJ@1301@				; `string'
PUBLIC	??_C@_05JIIOMEJ@32340@				; `string'
PUBLIC	??_C@_05BEINNMPB@42340@				; `string'
PUBLIC	??_C@_04PMIGMPPE@2340@				; `string'
PUBLIC	??_C@_04LOCMGGPM@?$CFd?$CFs@			; `string'
PUBLIC	??_C@_06FJGPLACP@?$DP32500@			; `string'
PUBLIC	??_C@_05GJGJFFPP@32324@				; `string'
PUBLIC	??_C@_07PGCHECEN@?$CF28?428s@			; `string'
PUBLIC	??_C@_05CGJMNOCB@31900@				; `string'
PUBLIC	??_C@_05DPIHOPGA@31901@				; `string'
PUBLIC	??_C@_06EEGKIAJH@?$DP42500@			; `string'
PUBLIC	??_C@_05HEGMGFEH@42324@				; `string'
PUBLIC	??_C@_05DLJJOOJJ@41900@				; `string'
PUBLIC	??_C@_05CCICNPNI@41901@				; `string'
PUBLIC	??_C@_05FMCINLDC@?$DP2500@			; `string'
PUBLIC	??_C@_04JMGHHGEC@2324@				; `string'
PUBLIC	??_C@_04NDJCPNJM@1900@				; `string'
PUBLIC	??_C@_04MKIJMMNN@1901@				; `string'
PUBLIC	??_C@_04OBKAGHLG@?$CF06d@			; `string'
PUBLIC	??_C@_04PEJMDNKC@?$CF0?$CKd@			; `string'
PUBLIC	??_C@_02MLODCJFF@32@				; `string'
PUBLIC	??_C@_02MOKMDPNA@42@				; `string'
PUBLIC	??_C@_01BMBHCPLG@5@				; `string'
PUBLIC	??_C@_04EBNJJJJI@?$CF?4?$CKs@			; `string'
PUBLIC	??_C@_02PLJDPFIO@00@				; `string'
PUBLIC	??_C@_0P@FLGGHACJ@99999999999999@		; `string'
PUBLIC	??_C@_04ODOGNJOP@?$CF05d@			; `string'
PUBLIC	??_C@_08LEDEEJEF@00000000@			; `string'
PUBLIC	??_C@_06NFLHPBON@153000@			; `string'
PUBLIC	??_C@_0BM@CAHKDONL@0400SC?$DN?$CFs?$EAMARKETTIME?$DN?$CFs?$HM?$CFs?$EA@ ; `string'
PUBLIC	??_R4CChartReplay@@6B@				; CChartReplay::`RTTI Complete Object Locator'
PUBLIC	??_R0?AVCChartReplay@@@8			; CChartReplay `RTTI Type Descriptor'
PUBLIC	??_R3CChartReplay@@8				; CChartReplay::`RTTI Class Hierarchy Descriptor'
PUBLIC	??_R2CChartReplay@@8				; CChartReplay::`RTTI Base Class Array'
PUBLIC	??_R1A@?0A@EA@CChartReplay@@8			; CChartReplay::`RTTI Base Class Descriptor at (0,-1,0,64)'
PUBLIC	__xmm@20202020202020202020202020202020
EXTRN	??3@YAXPAXI@Z:PROC				; operator delete
EXTRN	??_U@YAPAXI@Z:PROC				; operator new[]
EXTRN	__imp__RegisterWindowMessageA@4:PROC
EXTRN	__imp____stdio_common_vsprintf:PROC
EXTRN	__imp__atoi:PROC
EXTRN	?AfxThrowInvalidArgException@@YGXXZ:PROC	; AfxThrowInvalidArgException
EXTRN	__imp_?Concatenate@?$CSimpleStringT@D$00@ATL@@KAXAAV12@PBDH1H@Z:PROC
EXTRN	__imp_??0?$CStringT@DV?$StrTraitMFC_DLL@DV?$ChTraitsCRT@D@ATL@@@@@ATL@@QAE@XZ:PROC
EXTRN	__imp_??0?$CStringT@DV?$StrTraitMFC_DLL@DV?$ChTraitsCRT@D@ATL@@@@@ATL@@QAE@PAUIAtlStringMgr@1@@Z:PROC
EXTRN	__imp_??0?$CStringT@DV?$StrTraitMFC_DLL@DV?$ChTraitsCRT@D@ATL@@@@@ATL@@QAE@ABV01@@Z:PROC
EXTRN	__imp_??0?$CStringT@DV?$StrTraitMFC_DLL@DV?$ChTraitsCRT@D@ATL@@@@@ATL@@QAE@PBD@Z:PROC
EXTRN	__imp_??0?$CStringT@DV?$StrTraitMFC_DLL@DV?$ChTraitsCRT@D@ATL@@@@@ATL@@QAE@DH@Z:PROC
EXTRN	__imp_??0?$CStringT@DV?$StrTraitMFC_DLL@DV?$ChTraitsCRT@D@ATL@@@@@ATL@@QAE@PBDH@Z:PROC
EXTRN	__imp_??1?$CStringT@DV?$StrTraitMFC_DLL@DV?$ChTraitsCRT@D@ATL@@@@@ATL@@QAE@XZ:PROC
EXTRN	__imp_??4?$CStringT@DV?$StrTraitMFC_DLL@DV?$ChTraitsCRT@D@ATL@@@@@ATL@@QAEAAV01@ABV01@@Z:PROC
EXTRN	__imp_??4?$CStringT@DV?$StrTraitMFC_DLL@DV?$ChTraitsCRT@D@ATL@@@@@ATL@@QAEAAV01@PBD@Z:PROC
EXTRN	__imp_??Y?$CStringT@DV?$StrTraitMFC_DLL@DV?$ChTraitsCRT@D@ATL@@@@@ATL@@QAEAAV01@ABV?$CSimpleStringT@D$00@1@@Z:PROC
EXTRN	__imp_??Y?$CStringT@DV?$StrTraitMFC_DLL@DV?$ChTraitsCRT@D@ATL@@@@@ATL@@QAEAAV01@PBD@Z:PROC
EXTRN	__imp_??Y?$CStringT@DV?$StrTraitMFC_DLL@DV?$ChTraitsCRT@D@ATL@@@@@ATL@@QAEAAV01@D@Z:PROC
EXTRN	__imp_?GetManager@?$CStringT@DV?$StrTraitMFC_DLL@DV?$ChTraitsCRT@D@ATL@@@@@ATL@@QBEPAUIAtlStringMgr@2@XZ:PROC
EXTRN	__imp_?Compare@?$CStringT@DV?$StrTraitMFC_DLL@DV?$ChTraitsCRT@D@ATL@@@@@ATL@@QBEHPBD@Z:PROC
EXTRN	__imp_?Remove@?$CStringT@DV?$StrTraitMFC_DLL@DV?$ChTraitsCRT@D@ATL@@@@@ATL@@QAEHD@Z:PROC
EXTRN	__imp_?TrimRight@?$CStringT@DV?$StrTraitMFC_DLL@DV?$ChTraitsCRT@D@ATL@@@@@ATL@@QAEAAV12@XZ:PROC
EXTRN	__imp_?TrimLeft@?$CStringT@DV?$StrTraitMFC_DLL@DV?$ChTraitsCRT@D@ATL@@@@@ATL@@QAEAAV12@XZ:PROC
EXTRN	__imp_?Mid@?$CStringT@DV?$StrTraitMFC_DLL@DV?$ChTraitsCRT@D@ATL@@@@@ATL@@QBE?AV12@H@Z:PROC
EXTRN	__imp_?Left@?$CStringT@DV?$StrTraitMFC_DLL@DV?$ChTraitsCRT@D@ATL@@@@@ATL@@QBE?AV12@H@Z:PROC
EXTRN	__imp_?Format@?$CStringT@DV?$StrTraitMFC_DLL@DV?$ChTraitsCRT@D@ATL@@@@@ATL@@QAAXPBDZZ:PROC
EXTRN	??0CStringArray@@QAE@XZ:PROC			; CStringArray::CStringArray
EXTRN	?SetAtGrow@CStringArray@@QAEXHABV?$CStringT@DV?$StrTraitMFC_DLL@DV?$ChTraitsCRT@D@ATL@@@@@ATL@@@Z:PROC ; CStringArray::SetAtGrow
EXTRN	??1CStringArray@@UAE@XZ:PROC			; CStringArray::~CStringArray
EXTRN	??_ECChartReplay@@UAEPAXI@Z:PROC		; CChartReplay::`vector deleting destructor'
EXTRN	?Parser@CDataConverter@@SA?AV?$CStringT@DV?$StrTraitMFC_DLL@DV?$ChTraitsCRT@D@ATL@@@@@ATL@@AAV23@V23@@Z:PROC ; CDataConverter::Parser
EXTRN	@__security_check_cookie@4:PROC
EXTRN	___CxxFrameHandler3:PROC
EXTRN	_memcpy:PROC
EXTRN	_memset:PROC
EXTRN	??_7type_info@@6B@:QWORD			; type_info::`vftable'
EXTRN	___security_cookie:DWORD
;	COMDAT ?_OptionsStorage@?1??__local_stdio_printf_options@@9@4_KA
_BSS	SEGMENT
?_OptionsStorage@?1??__local_stdio_printf_options@@9@4_KA DQ 01H DUP (?) ; `__local_stdio_printf_options'::`2'::_OptionsStorage
_BSS	ENDS
_BSS	SEGMENT
?RMSG_INTERFACE@@3IB DD 01H DUP (?)			; RMSG_INTERFACE
?RMSG_GETPCTRDATA@@3IB DD 01H DUP (?)			; RMSG_GETPCTRDATA
?RMSG_SETPCTRDATA@@3IB DD 01H DUP (?)			; RMSG_SETPCTRDATA
?RMSG_GETSIGNAL_REAL@@3IB DD 01H DUP (?)		; RMSG_GETSIGNAL_REAL
_BSS	ENDS
CRT$XCU	SEGMENT
?RMSG_INTERFACE$initializer$@@3P6AXXZA DD FLAT:??__ERMSG_INTERFACE@@YAXXZ ; RMSG_INTERFACE$initializer$
CRT$XCU	ENDS
;	COMDAT __xmm@20202020202020202020202020202020
CONST	SEGMENT
__xmm@20202020202020202020202020202020 DB '                '
CONST	ENDS
;	COMDAT ??_R1A@?0A@EA@CChartReplay@@8
rdata$r	SEGMENT
??_R1A@?0A@EA@CChartReplay@@8 DD FLAT:??_R0?AVCChartReplay@@@8 ; CChartReplay::`RTTI Base Class Descriptor at (0,-1,0,64)'
	DD	00H
	DD	00H
	DD	0ffffffffH
	DD	00H
	DD	040H
	DD	FLAT:??_R3CChartReplay@@8
rdata$r	ENDS
;	COMDAT ??_R2CChartReplay@@8
rdata$r	SEGMENT
??_R2CChartReplay@@8 DD FLAT:??_R1A@?0A@EA@CChartReplay@@8 ; CChartReplay::`RTTI Base Class Array'
rdata$r	ENDS
;	COMDAT ??_R3CChartReplay@@8
rdata$r	SEGMENT
??_R3CChartReplay@@8 DD 00H				; CChartReplay::`RTTI Class Hierarchy Descriptor'
	DD	00H
	DD	01H
	DD	FLAT:??_R2CChartReplay@@8
rdata$r	ENDS
;	COMDAT ??_R0?AVCChartReplay@@@8
data$rs	SEGMENT
??_R0?AVCChartReplay@@@8 DD FLAT:??_7type_info@@6B@	; CChartReplay `RTTI Type Descriptor'
	DD	00H
	DB	'.?AVCChartReplay@@', 00H
data$rs	ENDS
;	COMDAT ??_R4CChartReplay@@6B@
rdata$r	SEGMENT
??_R4CChartReplay@@6B@ DD 00H				; CChartReplay::`RTTI Complete Object Locator'
	DD	00H
	DD	00H
	DD	FLAT:??_R0?AVCChartReplay@@@8
	DD	FLAT:??_R3CChartReplay@@8
rdata$r	ENDS
;	COMDAT ??_C@_0BM@CAHKDONL@0400SC?$DN?$CFs?$EAMARKETTIME?$DN?$CFs?$HM?$CFs?$EA@
CONST	SEGMENT
??_C@_0BM@CAHKDONL@0400SC?$DN?$CFs?$EAMARKETTIME?$DN?$CFs?$HM?$CFs?$EA@ DB '0'
	DB	'400SC=%s@MARKETTIME=%s|%s@', 00H		; `string'
CONST	ENDS
;	COMDAT ??_C@_06NFLHPBON@153000@
CONST	SEGMENT
??_C@_06NFLHPBON@153000@ DB '153000', 00H		; `string'
CONST	ENDS
;	COMDAT ??_C@_08LEDEEJEF@00000000@
CONST	SEGMENT
??_C@_08LEDEEJEF@00000000@ DB '00000000', 00H		; `string'
CONST	ENDS
;	COMDAT ??_C@_04ODOGNJOP@?$CF05d@
CONST	SEGMENT
??_C@_04ODOGNJOP@?$CF05d@ DB '%05d', 00H		; `string'
CONST	ENDS
;	COMDAT ??_C@_0P@FLGGHACJ@99999999999999@
CONST	SEGMENT
??_C@_0P@FLGGHACJ@99999999999999@ DB '99999999999999', 00H ; `string'
CONST	ENDS
;	COMDAT ??_C@_02PLJDPFIO@00@
CONST	SEGMENT
??_C@_02PLJDPFIO@00@ DB '00', 00H			; `string'
CONST	ENDS
;	COMDAT ??_C@_04EBNJJJJI@?$CF?4?$CKs@
CONST	SEGMENT
??_C@_04EBNJJJJI@?$CF?4?$CKs@ DB '%.*s', 00H		; `string'
CONST	ENDS
;	COMDAT ??_C@_01BMBHCPLG@5@
CONST	SEGMENT
??_C@_01BMBHCPLG@5@ DB '5', 00H				; `string'
CONST	ENDS
;	COMDAT ??_C@_02MOKMDPNA@42@
CONST	SEGMENT
??_C@_02MOKMDPNA@42@ DB '42', 00H			; `string'
CONST	ENDS
;	COMDAT ??_C@_02MLODCJFF@32@
CONST	SEGMENT
??_C@_02MLODCJFF@32@ DB '32', 00H			; `string'
CONST	ENDS
;	COMDAT ??_C@_04PEJMDNKC@?$CF0?$CKd@
CONST	SEGMENT
??_C@_04PEJMDNKC@?$CF0?$CKd@ DB '%0*d', 00H		; `string'
CONST	ENDS
;	COMDAT ??_C@_04OBKAGHLG@?$CF06d@
CONST	SEGMENT
??_C@_04OBKAGHLG@?$CF06d@ DB '%06d', 00H		; `string'
CONST	ENDS
;	COMDAT ??_C@_04MKIJMMNN@1901@
CONST	SEGMENT
??_C@_04MKIJMMNN@1901@ DB '1901', 00H			; `string'
CONST	ENDS
;	COMDAT ??_C@_04NDJCPNJM@1900@
CONST	SEGMENT
??_C@_04NDJCPNJM@1900@ DB '1900', 00H			; `string'
CONST	ENDS
;	COMDAT ??_C@_04JMGHHGEC@2324@
CONST	SEGMENT
??_C@_04JMGHHGEC@2324@ DB '2324', 00H			; `string'
CONST	ENDS
;	COMDAT ??_C@_05FMCINLDC@?$DP2500@
CONST	SEGMENT
??_C@_05FMCINLDC@?$DP2500@ DB '?2500', 00H		; `string'
CONST	ENDS
;	COMDAT ??_C@_05CCICNPNI@41901@
CONST	SEGMENT
??_C@_05CCICNPNI@41901@ DB '41901', 00H			; `string'
CONST	ENDS
;	COMDAT ??_C@_05DLJJOOJJ@41900@
CONST	SEGMENT
??_C@_05DLJJOOJJ@41900@ DB '41900', 00H			; `string'
CONST	ENDS
;	COMDAT ??_C@_05HEGMGFEH@42324@
CONST	SEGMENT
??_C@_05HEGMGFEH@42324@ DB '42324', 00H			; `string'
CONST	ENDS
;	COMDAT ??_C@_06EEGKIAJH@?$DP42500@
CONST	SEGMENT
??_C@_06EEGKIAJH@?$DP42500@ DB '?42500', 00H		; `string'
CONST	ENDS
;	COMDAT ??_C@_05DPIHOPGA@31901@
CONST	SEGMENT
??_C@_05DPIHOPGA@31901@ DB '31901', 00H			; `string'
CONST	ENDS
;	COMDAT ??_C@_05CGJMNOCB@31900@
CONST	SEGMENT
??_C@_05CGJMNOCB@31900@ DB '31900', 00H			; `string'
CONST	ENDS
;	COMDAT ??_C@_07PGCHECEN@?$CF28?428s@
CONST	SEGMENT
??_C@_07PGCHECEN@?$CF28?428s@ DB '%28.28s', 00H		; `string'
CONST	ENDS
;	COMDAT ??_C@_05GJGJFFPP@32324@
CONST	SEGMENT
??_C@_05GJGJFFPP@32324@ DB '32324', 00H			; `string'
CONST	ENDS
;	COMDAT ??_C@_06FJGPLACP@?$DP32500@
CONST	SEGMENT
??_C@_06FJGPLACP@?$DP32500@ DB '?32500', 00H		; `string'
CONST	ENDS
;	COMDAT ??_C@_04LOCMGGPM@?$CFd?$CFs@
CONST	SEGMENT
??_C@_04LOCMGGPM@?$CFd?$CFs@ DB '%d%s', 00H		; `string'
CONST	ENDS
;	COMDAT ??_C@_04PMIGMPPE@2340@
CONST	SEGMENT
??_C@_04PMIGMPPE@2340@ DB '2340', 00H			; `string'
CONST	ENDS
;	COMDAT ??_C@_05BEINNMPB@42340@
CONST	SEGMENT
??_C@_05BEINNMPB@42340@ DB '42340', 00H			; `string'
CONST	ENDS
;	COMDAT ??_C@_05JIIOMEJ@32340@
CONST	SEGMENT
??_C@_05JIIOMEJ@32340@ DB '32340', 00H			; `string'
CONST	ENDS
;	COMDAT ??_C@_04KFDECMLJ@1301@
CONST	SEGMENT
??_C@_04KFDECMLJ@1301@ DB '1301', 00H			; `string'
CONST	ENDS
;	COMDAT ??_C@_05ENDPDPLM@41301@
CONST	SEGMENT
??_C@_05ENDPDPLM@41301@ DB '41301', 00H			; `string'
CONST	ENDS
;	COMDAT ??_C@_05FADKAPAE@31301@
CONST	SEGMENT
??_C@_05FADKAPAE@31301@ DB '31301', 00H			; `string'
CONST	ENDS
;	COMDAT ??_C@_03LFCMDFBC@C01@
CONST	SEGMENT
??_C@_03LFCMDFBC@C01@ DB 'C01', 00H			; `string'
CONST	ENDS
;	COMDAT ??_C@_03NOBDJFIO@301@
CONST	SEGMENT
??_C@_03NOBDJFIO@301@ DB '301', 00H			; `string'
CONST	ENDS
;	COMDAT ??_C@_03NJAFCHH@B01@
CONST	SEGMENT
??_C@_03NJAFCHH@B01@ DB 'B01', 00H			; `string'
CONST	ENDS
;	COMDAT ??_C@_03GGKPPCOL@201@
CONST	SEGMENT
??_C@_03GGKPPCOL@201@ DB '201', 00H			; `string'
CONST	ENDS
;	COMDAT ??_C@_03BPCFPNJJ@A01@
CONST	SEGMENT
??_C@_03BPCFPNJJ@A01@ DB 'A01', 00H			; `string'
CONST	ENDS
;	COMDAT ??_C@_03HEBKFNAF@101@
CONST	SEGMENT
??_C@_03HEBKFNAF@101@ DB '101', 00H			; `string'
CONST	ENDS
;	COMDAT ??_7CChartReplay@@6B@
CONST	SEGMENT
??_7CChartReplay@@6B@ DD FLAT:??_R4CChartReplay@@6B@	; CChartReplay::`vftable'
	DD	FLAT:??_ECChartReplay@@UAEPAXI@Z
CONST	ENDS
;	COMDAT ??_C@_00CNPNBAHC@@
CONST	SEGMENT
??_C@_00CNPNBAHC@@ DB 00H				; `string'
CONST	ENDS
;	COMDAT xdata$x
xdata$x	SEGMENT
__ehfuncinfo$?Convert2Struct@CChartReplay@@QAEPADPAEHHAAH@Z DD 019930522H
	DD	011H
	DD	FLAT:__unwindtable$?Convert2Struct@CChartReplay@@QAEPADPAEHHAAH@Z
	DD	2 DUP(00H)
	DD	2 DUP(00H)
	DD	00H
	DD	01H
__unwindtable$?Convert2Struct@CChartReplay@@QAEPADPAEHHAAH@Z DD 0ffffffffH
	DD	FLAT:__unwindfunclet$?Convert2Struct@CChartReplay@@QAEPADPAEHHAAH@Z$0
	DD	00H
	DD	FLAT:__unwindfunclet$?Convert2Struct@CChartReplay@@QAEPADPAEHHAAH@Z$1
	DD	01H
	DD	FLAT:__unwindfunclet$?Convert2Struct@CChartReplay@@QAEPADPAEHHAAH@Z$2
	DD	02H
	DD	FLAT:__unwindfunclet$?Convert2Struct@CChartReplay@@QAEPADPAEHHAAH@Z$3
	DD	03H
	DD	FLAT:__unwindfunclet$?Convert2Struct@CChartReplay@@QAEPADPAEHHAAH@Z$4
	DD	04H
	DD	FLAT:__unwindfunclet$?Convert2Struct@CChartReplay@@QAEPADPAEHHAAH@Z$6
	DD	04H
	DD	FLAT:__unwindfunclet$?Convert2Struct@CChartReplay@@QAEPADPAEHHAAH@Z$8
	DD	06H
	DD	FLAT:__unwindfunclet$?Convert2Struct@CChartReplay@@QAEPADPAEHHAAH@Z$22
	DD	04H
	DD	FLAT:__unwindfunclet$?Convert2Struct@CChartReplay@@QAEPADPAEHHAAH@Z$11
	DD	08H
	DD	FLAT:__unwindfunclet$?Convert2Struct@CChartReplay@@QAEPADPAEHHAAH@Z$23
	DD	04H
	DD	FLAT:__unwindfunclet$?Convert2Struct@CChartReplay@@QAEPADPAEHHAAH@Z$14
	DD	0aH
	DD	FLAT:__unwindfunclet$?Convert2Struct@CChartReplay@@QAEPADPAEHHAAH@Z$15
	DD	0aH
	DD	FLAT:__unwindfunclet$?Convert2Struct@CChartReplay@@QAEPADPAEHHAAH@Z$16
	DD	0aH
	DD	FLAT:__unwindfunclet$?Convert2Struct@CChartReplay@@QAEPADPAEHHAAH@Z$17
	DD	0dH
	DD	FLAT:__unwindfunclet$?Convert2Struct@CChartReplay@@QAEPADPAEHHAAH@Z$19
	DD	0dH
	DD	FLAT:__unwindfunclet$?Convert2Struct@CChartReplay@@QAEPADPAEHHAAH@Z$20
	DD	0fH
	DD	FLAT:__unwindfunclet$?Convert2Struct@CChartReplay@@QAEPADPAEHHAAH@Z$21
xdata$x	ENDS
;	COMDAT xdata$x
xdata$x	SEGMENT
__ehfuncinfo$?Convert@CChartReplay@@QAE?AV?$CStringT@DV?$StrTraitMFC_DLL@DV?$ChTraitsCRT@D@ATL@@@@@ATL@@XZ DD 019930522H
	DD	011H
	DD	FLAT:__unwindtable$?Convert@CChartReplay@@QAE?AV?$CStringT@DV?$StrTraitMFC_DLL@DV?$ChTraitsCRT@D@ATL@@@@@ATL@@XZ
	DD	2 DUP(00H)
	DD	2 DUP(00H)
	DD	00H
	DD	01H
__unwindtable$?Convert@CChartReplay@@QAE?AV?$CStringT@DV?$StrTraitMFC_DLL@DV?$ChTraitsCRT@D@ATL@@@@@ATL@@XZ DD 0ffffffffH
	DD	FLAT:__unwindfunclet$?Convert@CChartReplay@@QAE?AV?$CStringT@DV?$StrTraitMFC_DLL@DV?$ChTraitsCRT@D@ATL@@@@@ATL@@XZ$1
	DD	00H
	DD	FLAT:__unwindfunclet$?Convert@CChartReplay@@QAE?AV?$CStringT@DV?$StrTraitMFC_DLL@DV?$ChTraitsCRT@D@ATL@@@@@ATL@@XZ$2
	DD	01H
	DD	FLAT:__unwindfunclet$?Convert@CChartReplay@@QAE?AV?$CStringT@DV?$StrTraitMFC_DLL@DV?$ChTraitsCRT@D@ATL@@@@@ATL@@XZ$3
	DD	02H
	DD	FLAT:__unwindfunclet$?Convert@CChartReplay@@QAE?AV?$CStringT@DV?$StrTraitMFC_DLL@DV?$ChTraitsCRT@D@ATL@@@@@ATL@@XZ$4
	DD	03H
	DD	FLAT:__unwindfunclet$?Convert@CChartReplay@@QAE?AV?$CStringT@DV?$StrTraitMFC_DLL@DV?$ChTraitsCRT@D@ATL@@@@@ATL@@XZ$5
	DD	03H
	DD	FLAT:__unwindfunclet$?Convert@CChartReplay@@QAE?AV?$CStringT@DV?$StrTraitMFC_DLL@DV?$ChTraitsCRT@D@ATL@@@@@ATL@@XZ$6
	DD	05H
	DD	FLAT:__unwindfunclet$?Convert@CChartReplay@@QAE?AV?$CStringT@DV?$StrTraitMFC_DLL@DV?$ChTraitsCRT@D@ATL@@@@@ATL@@XZ$7
	DD	03H
	DD	FLAT:__unwindfunclet$?Convert@CChartReplay@@QAE?AV?$CStringT@DV?$StrTraitMFC_DLL@DV?$ChTraitsCRT@D@ATL@@@@@ATL@@XZ$8
	DD	07H
	DD	FLAT:__unwindfunclet$?Convert@CChartReplay@@QAE?AV?$CStringT@DV?$StrTraitMFC_DLL@DV?$ChTraitsCRT@D@ATL@@@@@ATL@@XZ$9
	DD	08H
	DD	FLAT:__unwindfunclet$?Convert@CChartReplay@@QAE?AV?$CStringT@DV?$StrTraitMFC_DLL@DV?$ChTraitsCRT@D@ATL@@@@@ATL@@XZ$10
	DD	09H
	DD	FLAT:__unwindfunclet$?Convert@CChartReplay@@QAE?AV?$CStringT@DV?$StrTraitMFC_DLL@DV?$ChTraitsCRT@D@ATL@@@@@ATL@@XZ$11
	DD	03H
	DD	FLAT:__unwindfunclet$?Convert@CChartReplay@@QAE?AV?$CStringT@DV?$StrTraitMFC_DLL@DV?$ChTraitsCRT@D@ATL@@@@@ATL@@XZ$12
	DD	03H
	DD	FLAT:__unwindfunclet$?Convert@CChartReplay@@QAE?AV?$CStringT@DV?$StrTraitMFC_DLL@DV?$ChTraitsCRT@D@ATL@@@@@ATL@@XZ$13
	DD	03H
	DD	FLAT:__unwindfunclet$?Convert@CChartReplay@@QAE?AV?$CStringT@DV?$StrTraitMFC_DLL@DV?$ChTraitsCRT@D@ATL@@@@@ATL@@XZ$14
	DD	0dH
	DD	FLAT:__unwindfunclet$?Convert@CChartReplay@@QAE?AV?$CStringT@DV?$StrTraitMFC_DLL@DV?$ChTraitsCRT@D@ATL@@@@@ATL@@XZ$15
	DD	0eH
	DD	FLAT:__unwindfunclet$?Convert@CChartReplay@@QAE?AV?$CStringT@DV?$StrTraitMFC_DLL@DV?$ChTraitsCRT@D@ATL@@@@@ATL@@XZ$16
	DD	0fH
	DD	FLAT:__unwindfunclet$?Convert@CChartReplay@@QAE?AV?$CStringT@DV?$StrTraitMFC_DLL@DV?$ChTraitsCRT@D@ATL@@@@@ATL@@XZ$17
xdata$x	ENDS
;	COMDAT xdata$x
xdata$x	SEGMENT
__unwindtable$??HATL@@YA?AV?$CStringT@DV?$StrTraitMFC_DLL@DV?$ChTraitsCRT@D@ATL@@@@@0@ABV10@PBD@Z DD 0ffffffffH
	DD	FLAT:__unwindfunclet$??HATL@@YA?AV?$CStringT@DV?$StrTraitMFC_DLL@DV?$ChTraitsCRT@D@ATL@@@@@0@ABV10@PBD@Z$0
__ehfuncinfo$??HATL@@YA?AV?$CStringT@DV?$StrTraitMFC_DLL@DV?$ChTraitsCRT@D@ATL@@@@@0@ABV10@PBD@Z DD 019930522H
	DD	01H
	DD	FLAT:__unwindtable$??HATL@@YA?AV?$CStringT@DV?$StrTraitMFC_DLL@DV?$ChTraitsCRT@D@ATL@@@@@0@ABV10@PBD@Z
	DD	2 DUP(00H)
	DD	2 DUP(00H)
	DD	00H
	DD	01H
xdata$x	ENDS
CRT$XCU	SEGMENT
?RMSG_GETPCTRDATA$initializer$@@3P6AXXZA DD FLAT:??__ERMSG_GETPCTRDATA@@YAXXZ ; RMSG_GETPCTRDATA$initializer$
CRT$XCU	ENDS
CRT$XCU	SEGMENT
?RMSG_SETPCTRDATA$initializer$@@3P6AXXZA DD FLAT:??__ERMSG_SETPCTRDATA@@YAXXZ ; RMSG_SETPCTRDATA$initializer$
CRT$XCU	ENDS
CRT$XCU	SEGMENT
?RMSG_GETSIGNAL_REAL$initializer$@@3P6AXXZA DD FLAT:??__ERMSG_GETSIGNAL_REAL@@YAXXZ ; RMSG_GETSIGNAL_REAL$initializer$
CRT$XCU	ENDS
; Function compile flags: /Ogtp
;	COMDAT ??_GCChartReplay@@UAEPAXI@Z
_TEXT	SEGMENT
___flags$ = 8						; size = 4
??_GCChartReplay@@UAEPAXI@Z PROC			; CChartReplay::`scalar deleting destructor', COMDAT
; _this$ = ecx
  00000	55		 push	 ebp
  00001	8b ec		 mov	 ebp, esp
  00003	f6 45 08 01	 test	 BYTE PTR ___flags$[ebp], 1
  00007	56		 push	 esi
  00008	8b f1		 mov	 esi, ecx
  0000a	c7 06 00 00 00
	00		 mov	 DWORD PTR [esi], OFFSET ??_7CChartReplay@@6B@
  00010	74 0b		 je	 SHORT $LN4@scalar
  00012	6a 48		 push	 72			; 00000048H
  00014	56		 push	 esi
  00015	e8 00 00 00 00	 call	 ??3@YAXPAXI@Z		; operator delete
  0001a	83 c4 08	 add	 esp, 8
$LN4@scalar:
  0001d	8b c6		 mov	 eax, esi
  0001f	5e		 pop	 esi
  00020	5d		 pop	 ebp
  00021	c2 04 00	 ret	 4
??_GCChartReplay@@UAEPAXI@Z ENDP			; CChartReplay::`scalar deleting destructor'
_TEXT	ENDS
; Function compile flags: /Ogtp
; File D:\git\src\IBK\IBK_DRFN\ProjSrc\SrcDrfn\DrCommon\PartnerMng\ChartReplay.cpp
; File C:\Program Files (x86)\Microsoft Visual Studio\2019\Community\VC\Tools\MSVC\14.29.30133\atlmfc\include\cstringt.h
; File D:\git\src\IBK\IBK_DRFN\ProjSrc\SrcDrfn\DrCommon\PartnerMng\ChartReplay.cpp
; File C:\Program Files (x86)\Microsoft Visual Studio\2019\Community\VC\Tools\MSVC\14.29.30133\atlmfc\include\cstringt.h
; File C:\Program Files (x86)\Microsoft Visual Studio\2019\Community\VC\Tools\MSVC\14.29.30133\atlmfc\include\atlsimpstr.h
; File C:\Program Files (x86)\Microsoft Visual Studio\2019\Community\VC\Tools\MSVC\14.29.30133\atlmfc\include\cstringt.h
; File D:\git\src\IBK\IBK_DRFN\ProjSrc\SrcDrfn\DrCommon\PartnerMng\ChartReplay.cpp
; File C:\Program Files (x86)\Microsoft Visual Studio\2019\Community\VC\Tools\MSVC\14.29.30133\atlmfc\include\cstringt.h
; File D:\git\src\IBK\IBK_DRFN\ProjSrc\SrcDrfn\DrCommon\PartnerMng\ChartReplay.cpp
; File C:\Program Files (x86)\Microsoft Visual Studio\2019\Community\VC\Tools\MSVC\14.29.30133\atlmfc\include\cstringt.h
; File C:\Program Files (x86)\Microsoft Visual Studio\2019\Community\VC\Tools\MSVC\14.29.30133\atlmfc\include\atlsimpstr.h
; File C:\Program Files (x86)\Microsoft Visual Studio\2019\Community\VC\Tools\MSVC\14.29.30133\atlmfc\include\cstringt.h
; File D:\git\src\IBK\IBK_DRFN\ProjSrc\SrcDrfn\DrCommon\PartnerMng\ChartReplay.cpp
; File C:\Program Files (x86)\Microsoft Visual Studio\2019\Community\VC\Tools\MSVC\14.29.30133\atlmfc\include\cstringt.h
; File D:\git\src\IBK\IBK_DRFN\ProjSrc\SrcDrfn\DrCommon\PartnerMng\ChartReplay.cpp
; File C:\Program Files (x86)\Microsoft Visual Studio\2019\Community\VC\Tools\MSVC\14.29.30133\atlmfc\include\cstringt.h
; File D:\git\src\IBK\IBK_DRFN\ProjSrc\SrcDrfn\DrCommon\PartnerMng\ChartReplay.cpp
; File C:\Program Files (x86)\Microsoft Visual Studio\2019\Community\VC\Tools\MSVC\14.29.30133\atlmfc\include\atlsimpstr.h
; File D:\git\src\IBK\IBK_DRFN\ProjSrc\SrcDrfn\DrCommon\PartnerMng\ChartReplay.cpp
; File C:\Program Files (x86)\Microsoft Visual Studio\2019\Community\VC\Tools\MSVC\14.29.30133\atlmfc\include\atlsimpstr.h
; File D:\git\src\IBK\IBK_DRFN\ProjSrc\SrcDrfn\DrCommon\PartnerMng\ChartReplay.cpp
; File C:\Program Files (x86)\Microsoft Visual Studio\2019\Community\VC\Tools\MSVC\14.29.30133\atlmfc\include\atlsimpstr.h
; File D:\git\src\IBK\IBK_DRFN\ProjSrc\SrcDrfn\DrCommon\PartnerMng\ChartReplay.cpp
; File C:\Program Files (x86)\Microsoft Visual Studio\2019\Community\VC\Tools\MSVC\14.29.30133\atlmfc\include\atlsimpstr.h
; File D:\git\src\IBK\IBK_DRFN\ProjSrc\SrcDrfn\DrCommon\PartnerMng\ChartReplay.cpp
; File C:\Program Files (x86)\Microsoft Visual Studio\2019\Community\VC\Tools\MSVC\14.29.30133\atlmfc\include\afxcoll.inl
; File D:\git\src\IBK\IBK_DRFN\ProjSrc\SrcDrfn\DrCommon\PartnerMng\ChartReplay.cpp
; File C:\Program Files (x86)\Microsoft Visual Studio\2019\Community\VC\Tools\MSVC\14.29.30133\atlmfc\include\atlsimpstr.h
; File D:\git\src\IBK\IBK_DRFN\ProjSrc\SrcDrfn\DrCommon\PartnerMng\ChartReplay.cpp
; File C:\Program Files (x86)\Microsoft Visual Studio\2019\Community\VC\Tools\MSVC\14.29.30133\atlmfc\include\atlsimpstr.h
; File D:\git\src\IBK\IBK_DRFN\ProjSrc\SrcDrfn\DrCommon\PartnerMng\ChartReplay.cpp
; File C:\Program Files (x86)\Microsoft Visual Studio\2019\Community\VC\Tools\MSVC\14.29.30133\atlmfc\include\afxcoll.inl
; File D:\git\src\IBK\IBK_DRFN\ProjSrc\SrcDrfn\DrCommon\PartnerMng\ChartReplay.cpp
; File C:\Program Files (x86)\Microsoft Visual Studio\2019\Community\VC\Tools\MSVC\14.29.30133\atlmfc\include\afxcoll.inl
; File D:\git\src\IBK\IBK_DRFN\ProjSrc\SrcDrfn\DrCommon\PartnerMng\ChartReplay.cpp
; File C:\Program Files (x86)\Microsoft Visual Studio\2019\Community\VC\Tools\MSVC\14.29.30133\atlmfc\include\afxcoll.inl
; File D:\git\src\IBK\IBK_DRFN\ProjSrc\SrcDrfn\DrCommon\PartnerMng\ChartReplay.cpp
; File C:\Program Files (x86)\Microsoft Visual Studio\2019\Community\VC\Tools\MSVC\14.29.30133\atlmfc\include\afxcoll.inl
; File D:\git\src\IBK\IBK_DRFN\ProjSrc\SrcDrfn\DrCommon\PartnerMng\ChartReplay.cpp
; File C:\Program Files (x86)\Microsoft Visual Studio\2019\Community\VC\Tools\MSVC\14.29.30133\atlmfc\include\afxcoll.inl
; File D:\git\src\IBK\IBK_DRFN\ProjSrc\SrcDrfn\DrCommon\PartnerMng\ChartReplay.cpp
; File C:\Program Files (x86)\Microsoft Visual Studio\2019\Community\VC\Tools\MSVC\14.29.30133\atlmfc\include\afxcoll.inl
; File D:\git\src\IBK\IBK_DRFN\ProjSrc\SrcDrfn\DrCommon\PartnerMng\ChartReplay.cpp
; File C:\Program Files (x86)\Microsoft Visual Studio\2019\Community\VC\Tools\MSVC\14.29.30133\atlmfc\include\afxcoll.inl
; File D:\git\src\IBK\IBK_DRFN\ProjSrc\SrcDrfn\DrCommon\PartnerMng\ChartReplay.cpp
; File C:\Program Files (x86)\Microsoft Visual Studio\2019\Community\VC\Tools\MSVC\14.29.30133\atlmfc\include\afxcoll.inl
; File D:\git\src\IBK\IBK_DRFN\ProjSrc\SrcDrfn\DrCommon\PartnerMng\ChartReplay.cpp
; File C:\Program Files (x86)\Microsoft Visual Studio\2019\Community\VC\Tools\MSVC\14.29.30133\atlmfc\include\afxcoll.inl
; File D:\git\src\IBK\IBK_DRFN\ProjSrc\SrcDrfn\DrCommon\PartnerMng\ChartReplay.cpp
;	COMDAT ?Convert2Struct@CChartReplay@@QAEPADPAEHHAAH@Z
_TEXT	SEGMENT
_nDataLen$GSCopy$1$ = -964				; size = 4
_arrNode$ = -960					; size = 20
_this$GSCopy$1$ = -940					; size = 4
_nCnt$1$ = -940						; size = 4
_strCode$ = -936					; size = 4
_strStartTime$ = -932					; size = 4
_strNextKey$ = -928					; size = 4
_strDate$ = -924					; size = 4
_strTime$ = -920					; size = 4
_strEndTime$ = -916					; size = 4
_nRow$1$ = -912						; size = 4
$T2 = -912						; size = 4
$T3 = -912						; size = 4
_strNode$ = -908					; size = 4
_pDataBuf$1$ = -904					; size = 4
$T4 = -904						; size = 4
$T5 = -904						; size = 4
$T6 = -900						; size = 4
$T7 = -900						; size = 4
$T8 = -900						; size = 4
$T9 = -900						; size = 4
$T10 = -900						; size = 4
_strSrc$ = -896						; size = 4
_stOut$ = -892						; size = 435
_stBong$11 = -456					; size = 34
_szBojo$ = -420						; size = 401
__$ArrayPad$ = -16					; size = 4
__$EHRec$ = -12						; size = 12
_pData$ = 8						; size = 4
_nLen$ = 12						; size = 4
_nKey$ = 16						; size = 4
_nDataLen$ = 20						; size = 4
?Convert2Struct@CChartReplay@@QAEPADPAEHHAAH@Z PROC	; CChartReplay::Convert2Struct, COMDAT
; _this$ = ecx

; 183  : {

  00000	55		 push	 ebp
  00001	8b ec		 mov	 ebp, esp
  00003	6a ff		 push	 -1
  00005	68 00 00 00 00	 push	 __ehhandler$?Convert2Struct@CChartReplay@@QAEPADPAEHHAAH@Z
  0000a	64 a1 00 00 00
	00		 mov	 eax, DWORD PTR fs:0
  00010	50		 push	 eax
  00011	81 ec b8 03 00
	00		 sub	 esp, 952		; 000003b8H
  00017	a1 00 00 00 00	 mov	 eax, DWORD PTR ___security_cookie
  0001c	33 c5		 xor	 eax, ebp
  0001e	89 45 f0	 mov	 DWORD PTR __$ArrayPad$[ebp], eax
  00021	56		 push	 esi
  00022	57		 push	 edi
  00023	50		 push	 eax
  00024	8d 45 f4	 lea	 eax, DWORD PTR __$EHRec$[ebp]
  00027	64 a3 00 00 00
	00		 mov	 DWORD PTR fs:0, eax
  0002d	8b f9		 mov	 edi, ecx
  0002f	89 bd 54 fc ff
	ff		 mov	 DWORD PTR _this$GSCopy$1$[ebp], edi
  00035	8b 45 14	 mov	 eax, DWORD PTR _nDataLen$[ebp]

; 184  : 	KB_d1016_OutRec1 stOut;
; 185  : 	CString strSrc;

  00038	8d 8d 80 fc ff
	ff		 lea	 ecx, DWORD PTR _strSrc$[ebp]
  0003e	8b 75 08	 mov	 esi, DWORD PTR _pData$[ebp]
  00041	89 85 3c fc ff
	ff		 mov	 DWORD PTR _nDataLen$GSCopy$1$[ebp], eax
  00047	c7 85 70 fc ff
	ff 00 00 00 00	 mov	 DWORD PTR $T2[ebp], 0
  00051	ff 15 00 00 00
	00		 call	 DWORD PTR __imp_??0?$CStringT@DV?$StrTraitMFC_DLL@DV?$ChTraitsCRT@D@ATL@@@@@ATL@@QAE@XZ

; 186  : 	strSrc.Format(_T("%.*s"), nLen, (char*)pData);

  00057	56		 push	 esi
  00058	ff 75 0c	 push	 DWORD PTR _nLen$[ebp]
  0005b	8d 85 80 fc ff
	ff		 lea	 eax, DWORD PTR _strSrc$[ebp]
  00061	c7 45 fc 00 00
	00 00		 mov	 DWORD PTR __$EHRec$[ebp+8], 0
  00068	68 00 00 00 00	 push	 OFFSET ??_C@_04EBNJJJJI@?$CF?4?$CKs@
  0006d	50		 push	 eax
  0006e	ff 15 00 00 00
	00		 call	 DWORD PTR __imp_?Format@?$CStringT@DV?$StrTraitMFC_DLL@DV?$ChTraitsCRT@D@ATL@@@@@ATL@@QAAXPBDZZ
  00074	83 c4 10	 add	 esp, 16			; 00000010H

; 187  : 	CString strNode, strCode, strStartTime, strEndTime;

  00077	8d 8d 74 fc ff
	ff		 lea	 ecx, DWORD PTR _strNode$[ebp]
  0007d	ff 15 00 00 00
	00		 call	 DWORD PTR __imp_??0?$CStringT@DV?$StrTraitMFC_DLL@DV?$ChTraitsCRT@D@ATL@@@@@ATL@@QAE@XZ
  00083	8d 8d 58 fc ff
	ff		 lea	 ecx, DWORD PTR _strCode$[ebp]
  00089	ff 15 00 00 00
	00		 call	 DWORD PTR __imp_??0?$CStringT@DV?$StrTraitMFC_DLL@DV?$ChTraitsCRT@D@ATL@@@@@ATL@@QAE@XZ
  0008f	8d 8d 5c fc ff
	ff		 lea	 ecx, DWORD PTR _strStartTime$[ebp]
  00095	ff 15 00 00 00
	00		 call	 DWORD PTR __imp_??0?$CStringT@DV?$StrTraitMFC_DLL@DV?$ChTraitsCRT@D@ATL@@@@@ATL@@QAE@XZ
  0009b	8d 8d 6c fc ff
	ff		 lea	 ecx, DWORD PTR _strEndTime$[ebp]
  000a1	ff 15 00 00 00
	00		 call	 DWORD PTR __imp_??0?$CStringT@DV?$StrTraitMFC_DLL@DV?$ChTraitsCRT@D@ATL@@@@@ATL@@QAE@XZ

; 188  : 
; 189  : 	memset(&stOut, 0x20, sizeof(stOut));

  000a7	68 ac 01 00 00	 push	 428			; 000001acH
  000ac	8d 85 8b fc ff
	ff		 lea	 eax, DWORD PTR _stOut$[ebp+7]
  000b2	c6 45 fc 04	 mov	 BYTE PTR __$EHRec$[ebp+8], 4
  000b6	6a 20		 push	 32			; 00000020H
  000b8	50		 push	 eax
  000b9	e8 00 00 00 00	 call	 _memset

; 190  : 
; 191  : 	memcpy(stOut.remindDate, m_InData.remindDate, sizeof(stOut.remindDate));

  000be	66 8b 47 14	 mov	 ax, WORD PTR [edi+20]

; 192  : 
; 193  : 	strCode = CDataConverter::Parser(strSrc, sCELL); // 종목코드

  000c2	83 c4 08	 add	 esp, 8
  000c5	8b cc		 mov	 ecx, esp
  000c7	66 89 85 84 fc
	ff ff		 mov	 WORD PTR _stOut$[ebp], ax
  000ce	6a 01		 push	 1
  000d0	6a 09		 push	 9
  000d2	ff 15 00 00 00
	00		 call	 DWORD PTR __imp_??0?$CStringT@DV?$StrTraitMFC_DLL@DV?$ChTraitsCRT@D@ATL@@@@@ATL@@QAE@DH@Z
  000d8	8d 85 80 fc ff
	ff		 lea	 eax, DWORD PTR _strSrc$[ebp]
  000de	50		 push	 eax
  000df	8d 85 70 fc ff
	ff		 lea	 eax, DWORD PTR $T3[ebp]
  000e5	50		 push	 eax
  000e6	e8 00 00 00 00	 call	 ?Parser@CDataConverter@@SA?AV?$CStringT@DV?$StrTraitMFC_DLL@DV?$ChTraitsCRT@D@ATL@@@@@ATL@@AAV23@V23@@Z ; CDataConverter::Parser
  000eb	83 c4 0c	 add	 esp, 12			; 0000000cH
  000ee	50		 push	 eax
  000ef	8d 8d 58 fc ff
	ff		 lea	 ecx, DWORD PTR _strCode$[ebp]
  000f5	c6 45 fc 05	 mov	 BYTE PTR __$EHRec$[ebp+8], 5
  000f9	ff 15 00 00 00
	00		 call	 DWORD PTR __imp_??4?$CStringT@DV?$StrTraitMFC_DLL@DV?$ChTraitsCRT@D@ATL@@@@@ATL@@QAEAAV01@ABV01@@Z
  000ff	8d 8d 70 fc ff
	ff		 lea	 ecx, DWORD PTR $T3[ebp]
  00105	c6 45 fc 04	 mov	 BYTE PTR __$EHRec$[ebp+8], 4
  00109	ff 15 00 00 00
	00		 call	 DWORD PTR __imp_??1?$CStringT@DV?$StrTraitMFC_DLL@DV?$ChTraitsCRT@D@ATL@@@@@ATL@@QAE@XZ

; 194  : 	strStartTime = CDataConverter::Parser(strSrc, sCELL) + _T("00");

  0010f	51		 push	 ecx
  00110	8b cc		 mov	 ecx, esp
  00112	6a 01		 push	 1
  00114	6a 09		 push	 9
  00116	ff 15 00 00 00
	00		 call	 DWORD PTR __imp_??0?$CStringT@DV?$StrTraitMFC_DLL@DV?$ChTraitsCRT@D@ATL@@@@@ATL@@QAE@DH@Z
  0011c	8d 85 80 fc ff
	ff		 lea	 eax, DWORD PTR _strSrc$[ebp]
  00122	50		 push	 eax
  00123	8d 85 7c fc ff
	ff		 lea	 eax, DWORD PTR $T10[ebp]
  00129	50		 push	 eax
  0012a	e8 00 00 00 00	 call	 ?Parser@CDataConverter@@SA?AV?$CStringT@DV?$StrTraitMFC_DLL@DV?$ChTraitsCRT@D@ATL@@@@@ATL@@AAV23@V23@@Z ; CDataConverter::Parser
  0012f	83 c4 0c	 add	 esp, 12			; 0000000cH
  00132	8b f0		 mov	 esi, eax
; File C:\Program Files (x86)\Microsoft Visual Studio\2019\Community\VC\Tools\MSVC\14.29.30133\atlmfc\include\cstringt.h

; 2401 : 		CStringT strResult( str1.GetManager() );

  00134	8b ce		 mov	 ecx, esi
; File D:\git\src\IBK\IBK_DRFN\ProjSrc\SrcDrfn\DrCommon\PartnerMng\ChartReplay.cpp

; 194  : 	strStartTime = CDataConverter::Parser(strSrc, sCELL) + _T("00");

  00136	c6 45 fc 07	 mov	 BYTE PTR __$EHRec$[ebp+8], 7
; File C:\Program Files (x86)\Microsoft Visual Studio\2019\Community\VC\Tools\MSVC\14.29.30133\atlmfc\include\cstringt.h

; 2401 : 		CStringT strResult( str1.GetManager() );

  0013a	ff 15 00 00 00
	00		 call	 DWORD PTR __imp_?GetManager@?$CStringT@DV?$StrTraitMFC_DLL@DV?$ChTraitsCRT@D@ATL@@@@@ATL@@QBEPAUIAtlStringMgr@2@XZ
  00140	50		 push	 eax
  00141	8d 8d 78 fc ff
	ff		 lea	 ecx, DWORD PTR $T5[ebp]
  00147	ff 15 00 00 00
	00		 call	 DWORD PTR __imp_??0?$CStringT@DV?$StrTraitMFC_DLL@DV?$ChTraitsCRT@D@ATL@@@@@ATL@@QAE@PAUIAtlStringMgr@1@@Z
; File C:\Program Files (x86)\Microsoft Visual Studio\2019\Community\VC\Tools\MSVC\14.29.30133\atlmfc\include\atlsimpstr.h

; 519  : 		return( GetData()->nDataLength );

  0014d	8b 06		 mov	 eax, DWORD PTR [esi]
; File C:\Program Files (x86)\Microsoft Visual Studio\2019\Community\VC\Tools\MSVC\14.29.30133\atlmfc\include\cstringt.h

; 2403 : 		CThisSimpleString::Concatenate( strResult, str1, str1.GetLength(), psz2, CThisSimpleString::StringLength( psz2 ) );

  0014f	6a 02		 push	 2
  00151	68 00 00 00 00	 push	 OFFSET ??_C@_02PLJDPFIO@00@

; 2404 : 
; 2405 : 		return( strResult );

  00156	c7 85 70 fc ff
	ff 01 00 00 00	 mov	 DWORD PTR $T2[ebp], 1
  00160	ff 70 f4	 push	 DWORD PTR [eax-12]
  00163	50		 push	 eax
  00164	8d 85 78 fc ff
	ff		 lea	 eax, DWORD PTR $T5[ebp]

; 2403 : 		CThisSimpleString::Concatenate( strResult, str1, str1.GetLength(), psz2, CThisSimpleString::StringLength( psz2 ) );

  0016a	50		 push	 eax
  0016b	ff 15 00 00 00
	00		 call	 DWORD PTR __imp_?Concatenate@?$CSimpleStringT@D$00@ATL@@KAXAAV12@PBDH1H@Z
  00171	83 c4 14	 add	 esp, 20			; 00000014H
; File D:\git\src\IBK\IBK_DRFN\ProjSrc\SrcDrfn\DrCommon\PartnerMng\ChartReplay.cpp

; 194  : 	strStartTime = CDataConverter::Parser(strSrc, sCELL) + _T("00");

  00174	8d 85 78 fc ff
	ff		 lea	 eax, DWORD PTR $T5[ebp]
  0017a	8d 8d 5c fc ff
	ff		 lea	 ecx, DWORD PTR _strStartTime$[ebp]
  00180	50		 push	 eax
  00181	ff 15 00 00 00
	00		 call	 DWORD PTR __imp_??4?$CStringT@DV?$StrTraitMFC_DLL@DV?$ChTraitsCRT@D@ATL@@@@@ATL@@QAEAAV01@ABV01@@Z
  00187	8d 8d 78 fc ff
	ff		 lea	 ecx, DWORD PTR $T5[ebp]
  0018d	ff 15 00 00 00
	00		 call	 DWORD PTR __imp_??1?$CStringT@DV?$StrTraitMFC_DLL@DV?$ChTraitsCRT@D@ATL@@@@@ATL@@QAE@XZ
  00193	8d 8d 7c fc ff
	ff		 lea	 ecx, DWORD PTR $T10[ebp]
  00199	c6 45 fc 04	 mov	 BYTE PTR __$EHRec$[ebp+8], 4
  0019d	ff 15 00 00 00
	00		 call	 DWORD PTR __imp_??1?$CStringT@DV?$StrTraitMFC_DLL@DV?$ChTraitsCRT@D@ATL@@@@@ATL@@QAE@XZ

; 195  : 	strEndTime = CDataConverter::Parser(strSrc, sCELL) + _T("00");

  001a3	51		 push	 ecx
  001a4	8b cc		 mov	 ecx, esp
  001a6	6a 01		 push	 1
  001a8	6a 09		 push	 9
  001aa	ff 15 00 00 00
	00		 call	 DWORD PTR __imp_??0?$CStringT@DV?$StrTraitMFC_DLL@DV?$ChTraitsCRT@D@ATL@@@@@ATL@@QAE@DH@Z
  001b0	8d 85 80 fc ff
	ff		 lea	 eax, DWORD PTR _strSrc$[ebp]
  001b6	50		 push	 eax
  001b7	8d 85 7c fc ff
	ff		 lea	 eax, DWORD PTR $T9[ebp]
  001bd	50		 push	 eax
  001be	e8 00 00 00 00	 call	 ?Parser@CDataConverter@@SA?AV?$CStringT@DV?$StrTraitMFC_DLL@DV?$ChTraitsCRT@D@ATL@@@@@ATL@@AAV23@V23@@Z ; CDataConverter::Parser
  001c3	83 c4 0c	 add	 esp, 12			; 0000000cH
  001c6	8b f0		 mov	 esi, eax
; File C:\Program Files (x86)\Microsoft Visual Studio\2019\Community\VC\Tools\MSVC\14.29.30133\atlmfc\include\cstringt.h

; 2401 : 		CStringT strResult( str1.GetManager() );

  001c8	8b ce		 mov	 ecx, esi
; File D:\git\src\IBK\IBK_DRFN\ProjSrc\SrcDrfn\DrCommon\PartnerMng\ChartReplay.cpp

; 195  : 	strEndTime = CDataConverter::Parser(strSrc, sCELL) + _T("00");

  001ca	c6 45 fc 09	 mov	 BYTE PTR __$EHRec$[ebp+8], 9
; File C:\Program Files (x86)\Microsoft Visual Studio\2019\Community\VC\Tools\MSVC\14.29.30133\atlmfc\include\cstringt.h

; 2401 : 		CStringT strResult( str1.GetManager() );

  001ce	ff 15 00 00 00
	00		 call	 DWORD PTR __imp_?GetManager@?$CStringT@DV?$StrTraitMFC_DLL@DV?$ChTraitsCRT@D@ATL@@@@@ATL@@QBEPAUIAtlStringMgr@2@XZ
  001d4	50		 push	 eax
  001d5	8d 8d 78 fc ff
	ff		 lea	 ecx, DWORD PTR $T4[ebp]
  001db	ff 15 00 00 00
	00		 call	 DWORD PTR __imp_??0?$CStringT@DV?$StrTraitMFC_DLL@DV?$ChTraitsCRT@D@ATL@@@@@ATL@@QAE@PAUIAtlStringMgr@1@@Z
; File C:\Program Files (x86)\Microsoft Visual Studio\2019\Community\VC\Tools\MSVC\14.29.30133\atlmfc\include\atlsimpstr.h

; 519  : 		return( GetData()->nDataLength );

  001e1	8b 06		 mov	 eax, DWORD PTR [esi]
; File C:\Program Files (x86)\Microsoft Visual Studio\2019\Community\VC\Tools\MSVC\14.29.30133\atlmfc\include\cstringt.h

; 2403 : 		CThisSimpleString::Concatenate( strResult, str1, str1.GetLength(), psz2, CThisSimpleString::StringLength( psz2 ) );

  001e3	6a 02		 push	 2
  001e5	68 00 00 00 00	 push	 OFFSET ??_C@_02PLJDPFIO@00@

; 2404 : 
; 2405 : 		return( strResult );

  001ea	c7 85 70 fc ff
	ff 02 00 00 00	 mov	 DWORD PTR $T2[ebp], 2
  001f4	ff 70 f4	 push	 DWORD PTR [eax-12]
  001f7	50		 push	 eax
  001f8	8d 85 78 fc ff
	ff		 lea	 eax, DWORD PTR $T4[ebp]
  001fe	50		 push	 eax
  001ff	ff 15 00 00 00
	00		 call	 DWORD PTR __imp_?Concatenate@?$CSimpleStringT@D$00@ATL@@KAXAAV12@PBDH1H@Z
  00205	83 c4 14	 add	 esp, 20			; 00000014H
; File D:\git\src\IBK\IBK_DRFN\ProjSrc\SrcDrfn\DrCommon\PartnerMng\ChartReplay.cpp

; 195  : 	strEndTime = CDataConverter::Parser(strSrc, sCELL) + _T("00");

  00208	8d 85 78 fc ff
	ff		 lea	 eax, DWORD PTR $T4[ebp]
  0020e	8d 8d 6c fc ff
	ff		 lea	 ecx, DWORD PTR _strEndTime$[ebp]
  00214	50		 push	 eax
  00215	ff 15 00 00 00
	00		 call	 DWORD PTR __imp_??4?$CStringT@DV?$StrTraitMFC_DLL@DV?$ChTraitsCRT@D@ATL@@@@@ATL@@QAEAAV01@ABV01@@Z
  0021b	8d 8d 78 fc ff
	ff		 lea	 ecx, DWORD PTR $T4[ebp]
  00221	ff 15 00 00 00
	00		 call	 DWORD PTR __imp_??1?$CStringT@DV?$StrTraitMFC_DLL@DV?$ChTraitsCRT@D@ATL@@@@@ATL@@QAE@XZ
  00227	8d 8d 7c fc ff
	ff		 lea	 ecx, DWORD PTR $T9[ebp]
  0022d	c6 45 fc 04	 mov	 BYTE PTR __$EHRec$[ebp+8], 4
  00231	ff 15 00 00 00
	00		 call	 DWORD PTR __imp_??1?$CStringT@DV?$StrTraitMFC_DLL@DV?$ChTraitsCRT@D@ATL@@@@@ATL@@QAE@XZ

; 197  : 	CString strNextKey = CDataConverter::Parser(strSrc, sCELL);

  00237	51		 push	 ecx
  00238	8b cc		 mov	 ecx, esp
  0023a	6a 01		 push	 1
  0023c	6a 09		 push	 9
  0023e	ff 15 00 00 00
	00		 call	 DWORD PTR __imp_??0?$CStringT@DV?$StrTraitMFC_DLL@DV?$ChTraitsCRT@D@ATL@@@@@ATL@@QAE@DH@Z
  00244	8d 85 80 fc ff
	ff		 lea	 eax, DWORD PTR _strSrc$[ebp]
  0024a	50		 push	 eax
  0024b	8d 85 60 fc ff
	ff		 lea	 eax, DWORD PTR _strNextKey$[ebp]
  00251	50		 push	 eax
  00252	e8 00 00 00 00	 call	 ?Parser@CDataConverter@@SA?AV?$CStringT@DV?$StrTraitMFC_DLL@DV?$ChTraitsCRT@D@ATL@@@@@ATL@@AAV23@V23@@Z ; CDataConverter::Parser
  00257	83 c4 0c	 add	 esp, 12			; 0000000cH
; File C:\Program Files (x86)\Microsoft Visual Studio\2019\Community\VC\Tools\MSVC\14.29.30133\atlmfc\include\cstringt.h

; 2567 : 		return( str1.Compare( psz2 ) != 0 );

  0025a	68 00 00 00 00	 push	 OFFSET ??_C@_0P@FLGGHACJ@99999999999999@
  0025f	8d 8d 60 fc ff
	ff		 lea	 ecx, DWORD PTR _strNextKey$[ebp]
; File D:\git\src\IBK\IBK_DRFN\ProjSrc\SrcDrfn\DrCommon\PartnerMng\ChartReplay.cpp

; 197  : 	CString strNextKey = CDataConverter::Parser(strSrc, sCELL);

  00265	c6 45 fc 0a	 mov	 BYTE PTR __$EHRec$[ebp+8], 10 ; 0000000aH
; File C:\Program Files (x86)\Microsoft Visual Studio\2019\Community\VC\Tools\MSVC\14.29.30133\atlmfc\include\cstringt.h

; 2567 : 		return( str1.Compare( psz2 ) != 0 );

  00269	ff 15 00 00 00
	00		 call	 DWORD PTR __imp_?Compare@?$CStringT@DV?$StrTraitMFC_DLL@DV?$ChTraitsCRT@D@ATL@@@@@ATL@@QBEHPBD@Z
  0026f	85 c0		 test	 eax, eax
; File D:\git\src\IBK\IBK_DRFN\ProjSrc\SrcDrfn\DrCommon\PartnerMng\ChartReplay.cpp

; 198  : 	if (strNextKey !="99999999999999")// 9가 14자리면 다음키가 없는것.  

  00271	74 26		 je	 SHORT $LN7@Convert2St
; File C:\Program Files (x86)\Microsoft Visual Studio\2019\Community\VC\Tools\MSVC\14.29.30133\atlmfc\include\atlsimpstr.h

; 519  : 		return( GetData()->nDataLength );

  00273	8b 85 60 fc ff
	ff		 mov	 eax, DWORD PTR _strNextKey$[ebp]
; File D:\git\src\IBK\IBK_DRFN\ProjSrc\SrcDrfn\DrCommon\PartnerMng\ChartReplay.cpp

; 205  : 		memcpy(stOut.nkey, (LPCTSTR)strNextKey, min(sizeof(stOut.nkey),strNextKey.GetLength()));

  00279	ba 1c 00 00 00	 mov	 edx, 28			; 0000001cH
; File C:\Program Files (x86)\Microsoft Visual Studio\2019\Community\VC\Tools\MSVC\14.29.30133\atlmfc\include\atlsimpstr.h

; 519  : 		return( GetData()->nDataLength );

  0027e	8b 48 f4	 mov	 ecx, DWORD PTR [eax-12]
; File D:\git\src\IBK\IBK_DRFN\ProjSrc\SrcDrfn\DrCommon\PartnerMng\ChartReplay.cpp

; 205  : 		memcpy(stOut.nkey, (LPCTSTR)strNextKey, min(sizeof(stOut.nkey),strNextKey.GetLength()));

  00281	3b ca		 cmp	 ecx, edx
  00283	0f 47 ca	 cmova	 ecx, edx
  00286	51		 push	 ecx
  00287	50		 push	 eax
  00288	8d 85 8b fc ff
	ff		 lea	 eax, DWORD PTR _stOut$[ebp+7]
  0028e	50		 push	 eax
  0028f	e8 00 00 00 00	 call	 _memcpy
  00294	83 c4 0c	 add	 esp, 12			; 0000000cH

; 206  : 	}

  00297	eb 20		 jmp	 SHORT $LN8@Convert2St
$LN7@Convert2St:

; 207  : 	else
; 208  : 	{
; 209  : 		memset(stOut.nkey, 0x20, sizeof(stOut.nkey));

  00299	0f 28 05 00 00
	00 00		 movaps	 xmm0, XMMWORD PTR __xmm@20202020202020202020202020202020
  002a0	0f 11 85 8b fc
	ff ff		 movups	 XMMWORD PTR _stOut$[ebp+7], xmm0
  002a7	c7 85 a3 fc ff
	ff 20 20 20 20	 mov	 DWORD PTR _stOut$[ebp+31], 538976288 ; 20202020H
  002b1	66 0f d6 85 9b
	fc ff ff	 movq	 QWORD PTR _stOut$[ebp+23], xmm0
$LN8@Convert2St:

; 210  : 	}
; 211  : 	//KHD :
; 212  : 	// 그리드 헤더
; 213  : 	GRAPH_IO gridOut;
; 214  : 	strNode = strSrc.Left(sizeof(gridOut));

  002b9	68 88 00 00 00	 push	 136			; 00000088H
  002be	8d 85 7c fc ff
	ff		 lea	 eax, DWORD PTR $T8[ebp]
  002c4	50		 push	 eax
  002c5	8d 8d 80 fc ff
	ff		 lea	 ecx, DWORD PTR _strSrc$[ebp]
  002cb	ff 15 00 00 00
	00		 call	 DWORD PTR __imp_?Left@?$CStringT@DV?$StrTraitMFC_DLL@DV?$ChTraitsCRT@D@ATL@@@@@ATL@@QBE?AV12@H@Z
  002d1	50		 push	 eax
  002d2	8d 8d 74 fc ff
	ff		 lea	 ecx, DWORD PTR _strNode$[ebp]
  002d8	c6 45 fc 0b	 mov	 BYTE PTR __$EHRec$[ebp+8], 11 ; 0000000bH
  002dc	ff 15 00 00 00
	00		 call	 DWORD PTR __imp_??4?$CStringT@DV?$StrTraitMFC_DLL@DV?$ChTraitsCRT@D@ATL@@@@@ATL@@QAEAAV01@ABV01@@Z
  002e2	8d 8d 7c fc ff
	ff		 lea	 ecx, DWORD PTR $T8[ebp]
  002e8	c6 45 fc 0a	 mov	 BYTE PTR __$EHRec$[ebp+8], 10 ; 0000000aH
  002ec	ff 15 00 00 00
	00		 call	 DWORD PTR __imp_??1?$CStringT@DV?$StrTraitMFC_DLL@DV?$ChTraitsCRT@D@ATL@@@@@ATL@@QAE@XZ

; 215  : 	memcpy(&gridOut, strNode, sizeof(gridOut));
; 216  : 
; 217  : 	strSrc = strSrc.Mid(sizeof(gridOut));

  002f2	68 88 00 00 00	 push	 136			; 00000088H
  002f7	8d 85 7c fc ff
	ff		 lea	 eax, DWORD PTR $T7[ebp]
  002fd	50		 push	 eax
  002fe	8d 8d 80 fc ff
	ff		 lea	 ecx, DWORD PTR _strSrc$[ebp]
  00304	ff 15 00 00 00
	00		 call	 DWORD PTR __imp_?Mid@?$CStringT@DV?$StrTraitMFC_DLL@DV?$ChTraitsCRT@D@ATL@@@@@ATL@@QBE?AV12@H@Z
  0030a	50		 push	 eax
  0030b	8d 8d 80 fc ff
	ff		 lea	 ecx, DWORD PTR _strSrc$[ebp]
  00311	c6 45 fc 0c	 mov	 BYTE PTR __$EHRec$[ebp+8], 12 ; 0000000cH
  00315	ff 15 00 00 00
	00		 call	 DWORD PTR __imp_??4?$CStringT@DV?$StrTraitMFC_DLL@DV?$ChTraitsCRT@D@ATL@@@@@ATL@@QAEAAV01@ABV01@@Z
  0031b	8d 8d 7c fc ff
	ff		 lea	 ecx, DWORD PTR $T7[ebp]
  00321	c6 45 fc 0a	 mov	 BYTE PTR __$EHRec$[ebp+8], 10 ; 0000000aH
  00325	ff 15 00 00 00
	00		 call	 DWORD PTR __imp_??1?$CStringT@DV?$StrTraitMFC_DLL@DV?$ChTraitsCRT@D@ATL@@@@@ATL@@QAE@XZ

; 218  : 	
; 219  :  
; 220  : //	if ((gridOut.xpos[0] & 0x01) || (gridOut.xpos[0] & 0x02))
; 221  : //		memcpy(stOut.nkey, gridOut.page, sizeof(stOut.nkey));
; 222  : 
; 223  : 	//091027-alzioyes.기존 DRFN차트에서 소숫점없이 데이터를 받았다. 통일.
; 224  : 	strSrc.Remove('.');

  0032b	6a 2e		 push	 46			; 0000002eH
  0032d	8d 8d 80 fc ff
	ff		 lea	 ecx, DWORD PTR _strSrc$[ebp]
  00333	ff 15 00 00 00
	00		 call	 DWORD PTR __imp_?Remove@?$CStringT@DV?$StrTraitMFC_DLL@DV?$ChTraitsCRT@D@ATL@@@@@ATL@@QAEHD@Z

; 225  : 
; 226  : 	CStringArray arrNode;

  00339	8d 8d 40 fc ff
	ff		 lea	 ecx, DWORD PTR _arrNode$[ebp]
  0033f	e8 00 00 00 00	 call	 ??0CStringArray@@QAE@XZ	; CStringArray::CStringArray
; File C:\Program Files (x86)\Microsoft Visual Studio\2019\Community\VC\Tools\MSVC\14.29.30133\atlmfc\include\atlsimpstr.h

; 519  : 		return( GetData()->nDataLength );

  00344	8b 85 80 fc ff
	ff		 mov	 eax, DWORD PTR _strSrc$[ebp]
; File D:\git\src\IBK\IBK_DRFN\ProjSrc\SrcDrfn\DrCommon\PartnerMng\ChartReplay.cpp

; 227  : 	int nNodeIndex = 1;

  0034a	be 01 00 00 00	 mov	 esi, 1

; 228  : 	while (strSrc.IsEmpty() == FALSE)

  0034f	8b 7f 44	 mov	 edi, DWORD PTR [edi+68]
  00352	c6 45 fc 0d	 mov	 BYTE PTR __$EHRec$[ebp+8], 13 ; 0000000dH
; File C:\Program Files (x86)\Microsoft Visual Studio\2019\Community\VC\Tools\MSVC\14.29.30133\atlmfc\include\atlsimpstr.h

; 533  : 		return( GetLength() == 0 );

  00356	83 78 f4 00	 cmp	 DWORD PTR [eax-12], 0
; File D:\git\src\IBK\IBK_DRFN\ProjSrc\SrcDrfn\DrCommon\PartnerMng\ChartReplay.cpp

; 228  : 	while (strSrc.IsEmpty() == FALSE)

  0035a	0f 84 8e 00 00
	00		 je	 $LN3@Convert2St
$LL2@Convert2St:

; 229  : 	{
; 230  : 		strNode = CDataConverter::Parser(strSrc, (nNodeIndex == m_nRepColCnt)?sROW:sCELL);

  00360	3b f7		 cmp	 esi, edi
  00362	51		 push	 ecx
  00363	0f 94 c0	 sete	 al
  00366	8b cc		 mov	 ecx, esp
  00368	04 09		 add	 al, 9
  0036a	6a 01		 push	 1
  0036c	0f b6 c0	 movzx	 eax, al
  0036f	50		 push	 eax
  00370	ff 15 00 00 00
	00		 call	 DWORD PTR __imp_??0?$CStringT@DV?$StrTraitMFC_DLL@DV?$ChTraitsCRT@D@ATL@@@@@ATL@@QAE@DH@Z
  00376	8d 85 80 fc ff
	ff		 lea	 eax, DWORD PTR _strSrc$[ebp]
  0037c	50		 push	 eax
  0037d	8d 85 7c fc ff
	ff		 lea	 eax, DWORD PTR $T6[ebp]
  00383	50		 push	 eax
  00384	e8 00 00 00 00	 call	 ?Parser@CDataConverter@@SA?AV?$CStringT@DV?$StrTraitMFC_DLL@DV?$ChTraitsCRT@D@ATL@@@@@ATL@@AAV23@V23@@Z ; CDataConverter::Parser
  00389	83 c4 0c	 add	 esp, 12			; 0000000cH
  0038c	50		 push	 eax
  0038d	8d 8d 74 fc ff
	ff		 lea	 ecx, DWORD PTR _strNode$[ebp]
  00393	c6 45 fc 0e	 mov	 BYTE PTR __$EHRec$[ebp+8], 14 ; 0000000eH
  00397	ff 15 00 00 00
	00		 call	 DWORD PTR __imp_??4?$CStringT@DV?$StrTraitMFC_DLL@DV?$ChTraitsCRT@D@ATL@@@@@ATL@@QAEAAV01@ABV01@@Z
  0039d	8d 8d 7c fc ff
	ff		 lea	 ecx, DWORD PTR $T6[ebp]
  003a3	c6 45 fc 0d	 mov	 BYTE PTR __$EHRec$[ebp+8], 13 ; 0000000dH
  003a7	ff 15 00 00 00
	00		 call	 DWORD PTR __imp_??1?$CStringT@DV?$StrTraitMFC_DLL@DV?$ChTraitsCRT@D@ATL@@@@@ATL@@QAE@XZ
; File C:\Program Files (x86)\Microsoft Visual Studio\2019\Community\VC\Tools\MSVC\14.29.30133\atlmfc\include\afxcoll.inl

; 321  : 		SetAtGrow(nIndex, newElement);

  003ad	8d 85 74 fc ff
	ff		 lea	 eax, DWORD PTR _strNode$[ebp]
  003b3	50		 push	 eax
  003b4	ff b5 48 fc ff
	ff		 push	 DWORD PTR _arrNode$[ebp+8]
  003ba	8d 8d 40 fc ff
	ff		 lea	 ecx, DWORD PTR _arrNode$[ebp]
  003c0	e8 00 00 00 00	 call	 ?SetAtGrow@CStringArray@@QAEXHABV?$CStringT@DV?$StrTraitMFC_DLL@DV?$ChTraitsCRT@D@ATL@@@@@ATL@@@Z ; CStringArray::SetAtGrow
; File D:\git\src\IBK\IBK_DRFN\ProjSrc\SrcDrfn\DrCommon\PartnerMng\ChartReplay.cpp

; 233  : 		if (nNodeIndex == m_nRepColCnt) nNodeIndex = 1;

  003c5	8b 85 54 fc ff
	ff		 mov	 eax, DWORD PTR _this$GSCopy$1$[ebp]
; File C:\Program Files (x86)\Microsoft Visual Studio\2019\Community\VC\Tools\MSVC\14.29.30133\atlmfc\include\atlsimpstr.h

; 519  : 		return( GetData()->nDataLength );

  003cb	b9 01 00 00 00	 mov	 ecx, 1
; File D:\git\src\IBK\IBK_DRFN\ProjSrc\SrcDrfn\DrCommon\PartnerMng\ChartReplay.cpp

; 233  : 		if (nNodeIndex == m_nRepColCnt) nNodeIndex = 1;

  003d0	8b 78 44	 mov	 edi, DWORD PTR [eax+68]
; File C:\Program Files (x86)\Microsoft Visual Studio\2019\Community\VC\Tools\MSVC\14.29.30133\atlmfc\include\atlsimpstr.h

; 519  : 		return( GetData()->nDataLength );

  003d3	3b f7		 cmp	 esi, edi
  003d5	8b 85 80 fc ff
	ff		 mov	 eax, DWORD PTR _strSrc$[ebp]
  003db	8b 50 f4	 mov	 edx, DWORD PTR [eax-12]
  003de	8d 46 01	 lea	 eax, DWORD PTR [esi+1]
  003e1	0f 45 c8	 cmovne	 ecx, eax
  003e4	8b f1		 mov	 esi, ecx

; 533  : 		return( GetLength() == 0 );

  003e6	85 d2		 test	 edx, edx
; File D:\git\src\IBK\IBK_DRFN\ProjSrc\SrcDrfn\DrCommon\PartnerMng\ChartReplay.cpp

; 228  : 	while (strSrc.IsEmpty() == FALSE)

  003e8	0f 85 72 ff ff
	ff		 jne	 $LL2@Convert2St
$LN3@Convert2St:

; 234  : 		else nNodeIndex++;
; 235  : 	}
; 236  : 
; 237  : 	// 전체 데이터 수 계산
; 238  : 	int nCnt = arrNode.GetSize() / m_nRepColCnt;

  003ee	8b 85 48 fc ff
	ff		 mov	 eax, DWORD PTR _arrNode$[ebp+8]
  003f4	99		 cdq
  003f5	f7 ff		 idiv	 edi
  003f7	8b f8		 mov	 edi, eax

; 239  : 	strNode.Format("%05d", nCnt);

  003f9	8d 85 74 fc ff
	ff		 lea	 eax, DWORD PTR _strNode$[ebp]
  003ff	57		 push	 edi
  00400	68 00 00 00 00	 push	 OFFSET ??_C@_04ODOGNJOP@?$CF05d@
  00405	50		 push	 eax
  00406	89 bd 54 fc ff
	ff		 mov	 DWORD PTR _nCnt$1$[ebp], edi
  0040c	ff 15 00 00 00
	00		 call	 DWORD PTR __imp_?Format@?$CStringT@DV?$StrTraitMFC_DLL@DV?$ChTraitsCRT@D@ATL@@@@@ATL@@QAAXPBDZZ

; 240  : 	memcpy(stOut.fcnt, strNode, sizeof(stOut.fcnt));

  00412	8b 8d 74 fc ff
	ff		 mov	 ecx, DWORD PTR _strNode$[ebp]
  00418	83 c4 0c	 add	 esp, 12			; 0000000cH
  0041b	8a 41 04	 mov	 al, BYTE PTR [ecx+4]
  0041e	8b 11		 mov	 edx, DWORD PTR [ecx]

; 241  : 
; 242  : 	// 차트 봉 데이터
; 243  : 	int nBongSize = sizeof(KB_d1016_OutRec2);
; 244  : 	int nBufSize = sizeof(KB_d1016_OutRec1) + nBongSize * nCnt;
; 245  : 	int	nPosBong = sizeof(KB_d1016_OutRec1);
; 246  : 
; 247  : 	nDataLen = nBufSize;
; 248  : 
; 249  : 	CString strDate = "00000000", strTime;

  00420	8d 8d 64 fc ff
	ff		 lea	 ecx, DWORD PTR _strDate$[ebp]
  00426	88 85 8a fc ff
	ff		 mov	 BYTE PTR _stOut$[ebp+6], al
  0042c	8b c7		 mov	 eax, edi
  0042e	c1 e0 04	 shl	 eax, 4
  00431	03 c7		 add	 eax, edi
  00433	89 95 86 fc ff
	ff		 mov	 DWORD PTR _stOut$[ebp+2], edx
  00439	68 00 00 00 00	 push	 OFFSET ??_C@_08LEDEEJEF@00000000@
  0043e	8d 34 45 b3 01
	00 00		 lea	 esi, DWORD PTR [eax*2+435]
  00445	8b 85 3c fc ff
	ff		 mov	 eax, DWORD PTR _nDataLen$GSCopy$1$[ebp]
  0044b	89 30		 mov	 DWORD PTR [eax], esi
  0044d	ff 15 00 00 00
	00		 call	 DWORD PTR __imp_??0?$CStringT@DV?$StrTraitMFC_DLL@DV?$ChTraitsCRT@D@ATL@@@@@ATL@@QAE@PBD@Z
  00453	8d 8d 68 fc ff
	ff		 lea	 ecx, DWORD PTR _strTime$[ebp]
  00459	ff 15 00 00 00
	00		 call	 DWORD PTR __imp_??0?$CStringT@DV?$StrTraitMFC_DLL@DV?$ChTraitsCRT@D@ATL@@@@@ATL@@QAE@XZ

; 250  : 	char* pDataBuf = new char[nBufSize+1];

  0045f	46		 inc	 esi
  00460	c6 45 fc 10	 mov	 BYTE PTR __$EHRec$[ebp+8], 16 ; 00000010H
  00464	56		 push	 esi
  00465	e8 00 00 00 00	 call	 ??_U@YAPAXI@Z		; operator new[]

; 251  : 	memset(pDataBuf, 0x20, nBufSize+1);

  0046a	56		 push	 esi
  0046b	6a 20		 push	 32			; 00000020H
  0046d	50		 push	 eax
  0046e	89 85 78 fc ff
	ff		 mov	 DWORD PTR _pDataBuf$1$[ebp], eax
  00474	e8 00 00 00 00	 call	 _memset

; 252  : 	KB_d1016_OutRec2 stFirstBong;
; 253  : 
; 254  : 	int nIndex = 0;

  00479	33 f6		 xor	 esi, esi
  0047b	83 c4 10	 add	 esp, 16			; 00000010H

; 255  : 	for (int nRow=0; nRow<nCnt; nRow++)

  0047e	89 b5 70 fc ff
	ff		 mov	 DWORD PTR _nRow$1$[ebp], esi
  00484	85 ff		 test	 edi, edi
  00486	0f 8e a6 01 00
	00		 jle	 $LN5@Convert2St

; 234  : 		else nNodeIndex++;
; 235  : 	}
; 236  : 
; 237  : 	// 전체 데이터 수 계산
; 238  : 	int nCnt = arrNode.GetSize() / m_nRepColCnt;

  0048c	8b bd 78 fc ff
	ff		 mov	 edi, DWORD PTR _pDataBuf$1$[ebp]
  00492	81 c7 b3 01 00
	00		 add	 edi, 435		; 000001b3H
  00498	0f 1f 84 00 00
	00 00 00	 npad	 8
$LL6@Convert2St:

; 256  : 	{
; 257  : 		KB_d1016_OutRec2 stBong;
; 258  : 		memset(&stBong, 0x20, sizeof(stBong));

  004a0	0f 28 05 00 00
	00 00		 movaps	 xmm0, XMMWORD PTR __xmm@20202020202020202020202020202020
  004a7	66 c7 85 58 fe
	ff ff 20 20	 mov	 WORD PTR _stBong$11[ebp+32], 538976288 ; 20202020H
  004b0	0f 11 85 38 fe
	ff ff		 movups	 XMMWORD PTR _stBong$11[ebp], xmm0
  004b7	0f 11 85 48 fe
	ff ff		 movups	 XMMWORD PTR _stBong$11[ebp+16], xmm0
; File C:\Program Files (x86)\Microsoft Visual Studio\2019\Community\VC\Tools\MSVC\14.29.30133\atlmfc\include\afxcoll.inl

; 289  : 		if( nIndex < 0 || nIndex >= m_nSize )

  004be	85 f6		 test	 esi, esi
  004c0	0f 88 a8 02 00
	00		 js	 $LN100@Convert2St
  004c6	3b b5 48 fc ff
	ff		 cmp	 esi, DWORD PTR _arrNode$[ebp+8]
  004cc	0f 8d 9c 02 00
	00		 jge	 $LN100@Convert2St

; 291  : 		return m_pData[nIndex]; }

  004d2	8b 85 44 fc ff
	ff		 mov	 eax, DWORD PTR _arrNode$[ebp+4]
; File D:\git\src\IBK\IBK_DRFN\ProjSrc\SrcDrfn\DrCommon\PartnerMng\ChartReplay.cpp

; 261  : 		strDate = arrNode.GetAt(nIndex++);

  004d8	8d 8d 64 fc ff
	ff		 lea	 ecx, DWORD PTR _strDate$[ebp]
; File C:\Program Files (x86)\Microsoft Visual Studio\2019\Community\VC\Tools\MSVC\14.29.30133\atlmfc\include\afxcoll.inl

; 291  : 		return m_pData[nIndex]; }

  004de	8d 04 b0	 lea	 eax, DWORD PTR [eax+esi*4]
; File D:\git\src\IBK\IBK_DRFN\ProjSrc\SrcDrfn\DrCommon\PartnerMng\ChartReplay.cpp

; 261  : 		strDate = arrNode.GetAt(nIndex++);

  004e1	50		 push	 eax
  004e2	ff 15 00 00 00
	00		 call	 DWORD PTR __imp_??4?$CStringT@DV?$StrTraitMFC_DLL@DV?$ChTraitsCRT@D@ATL@@@@@ATL@@QAEAAV01@ABV01@@Z

; 262  : //		OutputDebugString("KHD : " + strDate);
; 263  : 		memcpy(stBong.date, strDate, min(sizeof(stBong.date), strDate.GetLength()));

  004e8	8b 85 64 fc ff
	ff		 mov	 eax, DWORD PTR _strDate$[ebp]
  004ee	46		 inc	 esi
  004ef	ba 08 00 00 00	 mov	 edx, 8
  004f4	8b 48 f4	 mov	 ecx, DWORD PTR [eax-12]
  004f7	83 f9 08	 cmp	 ecx, 8
  004fa	0f 47 ca	 cmova	 ecx, edx
  004fd	51		 push	 ecx
  004fe	50		 push	 eax
  004ff	8d 85 38 fe ff
	ff		 lea	 eax, DWORD PTR _stBong$11[ebp]
  00505	50		 push	 eax
  00506	e8 00 00 00 00	 call	 _memcpy
  0050b	83 c4 0c	 add	 esp, 12			; 0000000cH
; File C:\Program Files (x86)\Microsoft Visual Studio\2019\Community\VC\Tools\MSVC\14.29.30133\atlmfc\include\afxcoll.inl

; 289  : 		if( nIndex < 0 || nIndex >= m_nSize )

  0050e	3b b5 48 fc ff
	ff		 cmp	 esi, DWORD PTR _arrNode$[ebp+8]
  00514	0f 8d 54 02 00
	00		 jge	 $LN100@Convert2St

; 291  : 		return m_pData[nIndex]; }

  0051a	8b 85 44 fc ff
	ff		 mov	 eax, DWORD PTR _arrNode$[ebp+4]
; File D:\git\src\IBK\IBK_DRFN\ProjSrc\SrcDrfn\DrCommon\PartnerMng\ChartReplay.cpp

; 265  : 		strTime = arrNode.GetAt(nIndex++);

  00520	8d 8d 68 fc ff
	ff		 lea	 ecx, DWORD PTR _strTime$[ebp]
; File C:\Program Files (x86)\Microsoft Visual Studio\2019\Community\VC\Tools\MSVC\14.29.30133\atlmfc\include\afxcoll.inl

; 291  : 		return m_pData[nIndex]; }

  00526	8d 04 b0	 lea	 eax, DWORD PTR [eax+esi*4]
; File D:\git\src\IBK\IBK_DRFN\ProjSrc\SrcDrfn\DrCommon\PartnerMng\ChartReplay.cpp

; 265  : 		strTime = arrNode.GetAt(nIndex++);

  00529	50		 push	 eax
  0052a	ff 15 00 00 00
	00		 call	 DWORD PTR __imp_??4?$CStringT@DV?$StrTraitMFC_DLL@DV?$ChTraitsCRT@D@ATL@@@@@ATL@@QAEAAV01@ABV01@@Z

; 266  : //			OutputDebugString("KHD : " + strTime);
; 267  : 		memcpy(stBong.time, strTime, min(sizeof(stBong.time), strTime.GetLength()));

  00530	8b 85 68 fc ff
	ff		 mov	 eax, DWORD PTR _strTime$[ebp]
  00536	ba 06 00 00 00	 mov	 edx, 6
  0053b	8b 48 f4	 mov	 ecx, DWORD PTR [eax-12]
  0053e	83 f9 06	 cmp	 ecx, 6
  00541	0f 47 ca	 cmova	 ecx, edx
  00544	51		 push	 ecx
  00545	50		 push	 eax
  00546	8d 85 40 fe ff
	ff		 lea	 eax, DWORD PTR _stBong$11[ebp+8]
  0054c	50		 push	 eax
  0054d	e8 00 00 00 00	 call	 _memcpy
  00552	83 c4 0c	 add	 esp, 12			; 0000000cH
  00555	83 c6 01	 add	 esi, 1
; File C:\Program Files (x86)\Microsoft Visual Studio\2019\Community\VC\Tools\MSVC\14.29.30133\atlmfc\include\afxcoll.inl

; 289  : 		if( nIndex < 0 || nIndex >= m_nSize )

  00558	0f 88 10 02 00
	00		 js	 $LN100@Convert2St
  0055e	3b b5 48 fc ff
	ff		 cmp	 esi, DWORD PTR _arrNode$[ebp+8]
  00564	0f 8d 04 02 00
	00		 jge	 $LN100@Convert2St

; 291  : 		return m_pData[nIndex]; }

  0056a	8b 85 44 fc ff
	ff		 mov	 eax, DWORD PTR _arrNode$[ebp+4]
; File D:\git\src\IBK\IBK_DRFN\ProjSrc\SrcDrfn\DrCommon\PartnerMng\ChartReplay.cpp

; 269  : 		strNode = arrNode.GetAt(nIndex++);

  00570	8d 8d 74 fc ff
	ff		 lea	 ecx, DWORD PTR _strNode$[ebp]
; File C:\Program Files (x86)\Microsoft Visual Studio\2019\Community\VC\Tools\MSVC\14.29.30133\atlmfc\include\afxcoll.inl

; 291  : 		return m_pData[nIndex]; }

  00576	8d 04 b0	 lea	 eax, DWORD PTR [eax+esi*4]
; File D:\git\src\IBK\IBK_DRFN\ProjSrc\SrcDrfn\DrCommon\PartnerMng\ChartReplay.cpp

; 269  : 		strNode = arrNode.GetAt(nIndex++);

  00579	50		 push	 eax
  0057a	ff 15 00 00 00
	00		 call	 DWORD PTR __imp_??4?$CStringT@DV?$StrTraitMFC_DLL@DV?$ChTraitsCRT@D@ATL@@@@@ATL@@QAEAAV01@ABV01@@Z

; 270  : 		memcpy(stBong.close, strNode, min(sizeof(stBong.close), strNode.GetLength()));

  00580	8b 85 74 fc ff
	ff		 mov	 eax, DWORD PTR _strNode$[ebp]
  00586	ba 0a 00 00 00	 mov	 edx, 10			; 0000000aH
  0058b	8b 48 f4	 mov	 ecx, DWORD PTR [eax-12]
  0058e	83 f9 0a	 cmp	 ecx, 10			; 0000000aH
  00591	0f 47 ca	 cmova	 ecx, edx
  00594	51		 push	 ecx
  00595	50		 push	 eax
  00596	8d 85 46 fe ff
	ff		 lea	 eax, DWORD PTR _stBong$11[ebp+14]
  0059c	50		 push	 eax
  0059d	e8 00 00 00 00	 call	 _memcpy
  005a2	83 c4 0c	 add	 esp, 12			; 0000000cH
  005a5	83 c6 01	 add	 esi, 1
; File C:\Program Files (x86)\Microsoft Visual Studio\2019\Community\VC\Tools\MSVC\14.29.30133\atlmfc\include\afxcoll.inl

; 289  : 		if( nIndex < 0 || nIndex >= m_nSize )

  005a8	0f 88 c0 01 00
	00		 js	 $LN100@Convert2St
  005ae	3b b5 48 fc ff
	ff		 cmp	 esi, DWORD PTR _arrNode$[ebp+8]
  005b4	0f 8d b4 01 00
	00		 jge	 $LN100@Convert2St

; 291  : 		return m_pData[nIndex]; }

  005ba	8b 85 44 fc ff
	ff		 mov	 eax, DWORD PTR _arrNode$[ebp+4]
; File D:\git\src\IBK\IBK_DRFN\ProjSrc\SrcDrfn\DrCommon\PartnerMng\ChartReplay.cpp

; 272  : 		strNode = arrNode.GetAt(nIndex++);

  005c0	8d 8d 74 fc ff
	ff		 lea	 ecx, DWORD PTR _strNode$[ebp]
; File C:\Program Files (x86)\Microsoft Visual Studio\2019\Community\VC\Tools\MSVC\14.29.30133\atlmfc\include\afxcoll.inl

; 291  : 		return m_pData[nIndex]; }

  005c6	8d 04 b0	 lea	 eax, DWORD PTR [eax+esi*4]
; File D:\git\src\IBK\IBK_DRFN\ProjSrc\SrcDrfn\DrCommon\PartnerMng\ChartReplay.cpp

; 272  : 		strNode = arrNode.GetAt(nIndex++);

  005c9	50		 push	 eax
  005ca	ff 15 00 00 00
	00		 call	 DWORD PTR __imp_??4?$CStringT@DV?$StrTraitMFC_DLL@DV?$ChTraitsCRT@D@ATL@@@@@ATL@@QAEAAV01@ABV01@@Z

; 273  : 		memcpy(stBong.cvol, strNode, min(sizeof(stBong.cvol), strNode.GetLength()));

  005d0	8b 85 74 fc ff
	ff		 mov	 eax, DWORD PTR _strNode$[ebp]
  005d6	46		 inc	 esi
  005d7	ba 0a 00 00 00	 mov	 edx, 10			; 0000000aH
  005dc	8b 48 f4	 mov	 ecx, DWORD PTR [eax-12]
  005df	83 f9 0a	 cmp	 ecx, 10			; 0000000aH
  005e2	0f 47 ca	 cmova	 ecx, edx
  005e5	51		 push	 ecx
  005e6	50		 push	 eax
  005e7	8d 85 50 fe ff
	ff		 lea	 eax, DWORD PTR _stBong$11[ebp+24]
  005ed	50		 push	 eax
  005ee	e8 00 00 00 00	 call	 _memcpy

; 274  : 
; 275  : 		// 데이터 버퍼에 복사, 일주월은 초,분,틱과 순서가 반대
; 276  : 		memcpy(&pDataBuf[nPosBong + nRow*nBongSize], &stBong, nBongSize);

  005f3	0f 10 85 38 fe
	ff ff		 movups	 xmm0, XMMWORD PTR _stBong$11[ebp]
  005fa	66 8b 85 58 fe
	ff ff		 mov	 ax, WORD PTR _stBong$11[ebp+32]
  00601	83 c4 0c	 add	 esp, 12			; 0000000cH
  00604	0f 11 07	 movups	 XMMWORD PTR [edi], xmm0
  00607	0f 10 85 48 fe
	ff ff		 movups	 xmm0, XMMWORD PTR _stBong$11[ebp+16]
  0060e	0f 11 47 10	 movups	 XMMWORD PTR [edi+16], xmm0
  00612	66 89 47 20	 mov	 WORD PTR [edi+32], ax
  00616	83 c7 22	 add	 edi, 34			; 00000022H
  00619	8b 85 70 fc ff
	ff		 mov	 eax, DWORD PTR _nRow$1$[ebp]
  0061f	40		 inc	 eax
  00620	89 85 70 fc ff
	ff		 mov	 DWORD PTR _nRow$1$[ebp], eax
  00626	3b 85 54 fc ff
	ff		 cmp	 eax, DWORD PTR _nCnt$1$[ebp]
  0062c	0f 8c 6e fe ff
	ff		 jl	 $LL6@Convert2St
$LN5@Convert2St:

; 277  : 
; 278  : 		if (nRow == 0)
; 279  : 			memcpy(&stFirstBong, &stBong, sizeof(stBong));
; 280  : 	}
; 281  : 
; 282  : 	char szBojo[400+1];
; 283  : 	memset(szBojo, 0x20, sizeof(szBojo));

  00632	68 91 01 00 00	 push	 401			; 00000191H
  00637	8d 85 5c fe ff
	ff		 lea	 eax, DWORD PTR _szBojo$[ebp]
  0063d	6a 20		 push	 32			; 00000020H
  0063f	50		 push	 eax
  00640	e8 00 00 00 00	 call	 _memset

; 284  : 
; 285  : 	if (atoi(strEndTime) < 153000)

  00645	ff b5 6c fc ff
	ff		 push	 DWORD PTR _strEndTime$[ebp]
  0064b	ff 15 00 00 00
	00		 call	 DWORD PTR __imp__atoi
  00651	83 c4 10	 add	 esp, 16			; 00000010H
  00654	3d a8 55 02 00	 cmp	 eax, 153000		; 000255a8H
  00659	7d 11		 jge	 SHORT $LN12@Convert2St

; 286  : 		strEndTime = _T("153000");

  0065b	68 00 00 00 00	 push	 OFFSET ??_C@_06NFLHPBON@153000@
  00660	8d 8d 6c fc ff
	ff		 lea	 ecx, DWORD PTR _strEndTime$[ebp]
  00666	ff 15 00 00 00
	00		 call	 DWORD PTR __imp_??4?$CStringT@DV?$StrTraitMFC_DLL@DV?$ChTraitsCRT@D@ATL@@@@@ATL@@QAEAAV01@PBD@Z
$LN12@Convert2St:

; 287  : 
; 288  : 	sprintf(szBojo, _T("0400SC=%s@MARKETTIME=%s|%s@"), (LPCSTR)(LPCTSTR)strCode,

  0066c	ff b5 6c fc ff
	ff		 push	 DWORD PTR _strEndTime$[ebp]
  00672	8d 85 5c fe ff
	ff		 lea	 eax, DWORD PTR _szBojo$[ebp]
  00678	ff b5 5c fc ff
	ff		 push	 DWORD PTR _strStartTime$[ebp]
  0067e	ff b5 58 fc ff
	ff		 push	 DWORD PTR _strCode$[ebp]
  00684	68 00 00 00 00	 push	 OFFSET ??_C@_0BM@CAHKDONL@0400SC?$DN?$CFs?$EAMARKETTIME?$DN?$CFs?$HM?$CFs?$EA@
  00689	50		 push	 eax
  0068a	e8 00 00 00 00	 call	 _sprintf

; 289  : 						(LPCSTR)(LPCTSTR)strStartTime, (LPCSTR)(LPCTSTR)strEndTime);
; 290  : 	memcpy(stOut.bojo, szBojo, min(strlen(szBojo), sizeof(stOut.bojo)));

  0068f	8d 8d 5c fe ff
	ff		 lea	 ecx, DWORD PTR _szBojo$[ebp]
  00695	83 c4 14	 add	 esp, 20			; 00000014H
  00698	8d 51 01	 lea	 edx, DWORD PTR [ecx+1]
  0069b	0f 1f 44 00 00	 npad	 5
$LL175@Convert2St:
  006a0	8a 01		 mov	 al, BYTE PTR [ecx]
  006a2	41		 inc	 ecx
  006a3	84 c0		 test	 al, al
  006a5	75 f9		 jne	 SHORT $LL175@Convert2St
  006a7	2b ca		 sub	 ecx, edx
  006a9	b8 90 01 00 00	 mov	 eax, 400		; 00000190H
  006ae	3b c8		 cmp	 ecx, eax
  006b0	0f 42 c1	 cmovb	 eax, ecx
  006b3	50		 push	 eax
  006b4	8d 85 5c fe ff
	ff		 lea	 eax, DWORD PTR _szBojo$[ebp]
  006ba	50		 push	 eax
  006bb	8d 85 a7 fc ff
	ff		 lea	 eax, DWORD PTR _stOut$[ebp+35]
  006c1	50		 push	 eax
  006c2	e8 00 00 00 00	 call	 _memcpy

; 291  : 
; 292  : 	memcpy(pDataBuf, &stOut, sizeof(stOut));

  006c7	8b bd 78 fc ff
	ff		 mov	 edi, DWORD PTR _pDataBuf$1$[ebp]
  006cd	8d b5 84 fc ff
	ff		 lea	 esi, DWORD PTR _stOut$[ebp]
  006d3	b9 6c 00 00 00	 mov	 ecx, 108		; 0000006cH
  006d8	83 c4 0c	 add	 esp, 12			; 0000000cH
  006db	f3 a5		 rep movsd

; 293  : 
; 294  : 	return pDataBuf;

  006dd	8d 8d 68 fc ff
	ff		 lea	 ecx, DWORD PTR _strTime$[ebp]
  006e3	66 a5		 movsw
  006e5	a4		 movsb
  006e6	ff 15 00 00 00
	00		 call	 DWORD PTR __imp_??1?$CStringT@DV?$StrTraitMFC_DLL@DV?$ChTraitsCRT@D@ATL@@@@@ATL@@QAE@XZ
  006ec	8d 8d 64 fc ff
	ff		 lea	 ecx, DWORD PTR _strDate$[ebp]
  006f2	ff 15 00 00 00
	00		 call	 DWORD PTR __imp_??1?$CStringT@DV?$StrTraitMFC_DLL@DV?$ChTraitsCRT@D@ATL@@@@@ATL@@QAE@XZ
  006f8	8d 8d 40 fc ff
	ff		 lea	 ecx, DWORD PTR _arrNode$[ebp]
  006fe	e8 00 00 00 00	 call	 ??1CStringArray@@UAE@XZ	; CStringArray::~CStringArray
  00703	8d 8d 60 fc ff
	ff		 lea	 ecx, DWORD PTR _strNextKey$[ebp]
  00709	ff 15 00 00 00
	00		 call	 DWORD PTR __imp_??1?$CStringT@DV?$StrTraitMFC_DLL@DV?$ChTraitsCRT@D@ATL@@@@@ATL@@QAE@XZ
  0070f	8d 8d 6c fc ff
	ff		 lea	 ecx, DWORD PTR _strEndTime$[ebp]
  00715	ff 15 00 00 00
	00		 call	 DWORD PTR __imp_??1?$CStringT@DV?$StrTraitMFC_DLL@DV?$ChTraitsCRT@D@ATL@@@@@ATL@@QAE@XZ
  0071b	8d 8d 5c fc ff
	ff		 lea	 ecx, DWORD PTR _strStartTime$[ebp]
  00721	ff 15 00 00 00
	00		 call	 DWORD PTR __imp_??1?$CStringT@DV?$StrTraitMFC_DLL@DV?$ChTraitsCRT@D@ATL@@@@@ATL@@QAE@XZ
  00727	8d 8d 58 fc ff
	ff		 lea	 ecx, DWORD PTR _strCode$[ebp]
  0072d	ff 15 00 00 00
	00		 call	 DWORD PTR __imp_??1?$CStringT@DV?$StrTraitMFC_DLL@DV?$ChTraitsCRT@D@ATL@@@@@ATL@@QAE@XZ
  00733	8d 8d 74 fc ff
	ff		 lea	 ecx, DWORD PTR _strNode$[ebp]
  00739	ff 15 00 00 00
	00		 call	 DWORD PTR __imp_??1?$CStringT@DV?$StrTraitMFC_DLL@DV?$ChTraitsCRT@D@ATL@@@@@ATL@@QAE@XZ
  0073f	8d 8d 80 fc ff
	ff		 lea	 ecx, DWORD PTR _strSrc$[ebp]
  00745	ff 15 00 00 00
	00		 call	 DWORD PTR __imp_??1?$CStringT@DV?$StrTraitMFC_DLL@DV?$ChTraitsCRT@D@ATL@@@@@ATL@@QAE@XZ
  0074b	8b 85 78 fc ff
	ff		 mov	 eax, DWORD PTR _pDataBuf$1$[ebp]

; 295  : }

  00751	8b 4d f4	 mov	 ecx, DWORD PTR __$EHRec$[ebp]
  00754	64 89 0d 00 00
	00 00		 mov	 DWORD PTR fs:0, ecx
  0075b	59		 pop	 ecx
  0075c	5f		 pop	 edi
  0075d	5e		 pop	 esi
  0075e	8b 4d f0	 mov	 ecx, DWORD PTR __$ArrayPad$[ebp]
  00761	33 cd		 xor	 ecx, ebp
  00763	e8 00 00 00 00	 call	 @__security_check_cookie@4
  00768	8b e5		 mov	 esp, ebp
  0076a	5d		 pop	 ebp
  0076b	c2 10 00	 ret	 16			; 00000010H
$LN100@Convert2St:
; File C:\Program Files (x86)\Microsoft Visual Studio\2019\Community\VC\Tools\MSVC\14.29.30133\atlmfc\include\afxcoll.inl

; 290  : 			AfxThrowInvalidArgException();

  0076e	e8 00 00 00 00	 call	 ?AfxThrowInvalidArgException@@YGXXZ ; AfxThrowInvalidArgException
$LN177@Convert2St:
  00773	cc		 int	 3
_TEXT	ENDS
;	COMDAT text$x
text$x	SEGMENT
__unwindfunclet$?Convert2Struct@CChartReplay@@QAEPADPAEHHAAH@Z$0:
  00000	8d 8d 80 fc ff
	ff		 lea	 ecx, DWORD PTR _strSrc$[ebp]
  00006	ff 25 00 00 00
	00		 jmp	 DWORD PTR __imp_??1?$CStringT@DV?$StrTraitMFC_DLL@DV?$ChTraitsCRT@D@ATL@@@@@ATL@@QAE@XZ
__unwindfunclet$?Convert2Struct@CChartReplay@@QAEPADPAEHHAAH@Z$1:
  0000c	8d 8d 74 fc ff
	ff		 lea	 ecx, DWORD PTR _strNode$[ebp]
  00012	ff 25 00 00 00
	00		 jmp	 DWORD PTR __imp_??1?$CStringT@DV?$StrTraitMFC_DLL@DV?$ChTraitsCRT@D@ATL@@@@@ATL@@QAE@XZ
__unwindfunclet$?Convert2Struct@CChartReplay@@QAEPADPAEHHAAH@Z$2:
  00018	8d 8d 58 fc ff
	ff		 lea	 ecx, DWORD PTR _strCode$[ebp]
  0001e	ff 25 00 00 00
	00		 jmp	 DWORD PTR __imp_??1?$CStringT@DV?$StrTraitMFC_DLL@DV?$ChTraitsCRT@D@ATL@@@@@ATL@@QAE@XZ
__unwindfunclet$?Convert2Struct@CChartReplay@@QAEPADPAEHHAAH@Z$3:
  00024	8d 8d 5c fc ff
	ff		 lea	 ecx, DWORD PTR _strStartTime$[ebp]
  0002a	ff 25 00 00 00
	00		 jmp	 DWORD PTR __imp_??1?$CStringT@DV?$StrTraitMFC_DLL@DV?$ChTraitsCRT@D@ATL@@@@@ATL@@QAE@XZ
__unwindfunclet$?Convert2Struct@CChartReplay@@QAEPADPAEHHAAH@Z$4:
  00030	8d 8d 6c fc ff
	ff		 lea	 ecx, DWORD PTR _strEndTime$[ebp]
  00036	ff 25 00 00 00
	00		 jmp	 DWORD PTR __imp_??1?$CStringT@DV?$StrTraitMFC_DLL@DV?$ChTraitsCRT@D@ATL@@@@@ATL@@QAE@XZ
__unwindfunclet$?Convert2Struct@CChartReplay@@QAEPADPAEHHAAH@Z$6:
  0003c	8d 8d 70 fc ff
	ff		 lea	 ecx, DWORD PTR $T3[ebp]
  00042	ff 25 00 00 00
	00		 jmp	 DWORD PTR __imp_??1?$CStringT@DV?$StrTraitMFC_DLL@DV?$ChTraitsCRT@D@ATL@@@@@ATL@@QAE@XZ
__unwindfunclet$?Convert2Struct@CChartReplay@@QAEPADPAEHHAAH@Z$8:
  00048	8d 8d 7c fc ff
	ff		 lea	 ecx, DWORD PTR $T10[ebp]
  0004e	ff 25 00 00 00
	00		 jmp	 DWORD PTR __imp_??1?$CStringT@DV?$StrTraitMFC_DLL@DV?$ChTraitsCRT@D@ATL@@@@@ATL@@QAE@XZ
__unwindfunclet$?Convert2Struct@CChartReplay@@QAEPADPAEHHAAH@Z$22:
  00054	8b 85 70 fc ff
	ff		 mov	 eax, DWORD PTR $T2[ebp]
  0005a	83 e0 01	 and	 eax, 1
  0005d	0f 84 13 00 00
	00		 je	 $LN51@Convert2St
  00063	83 a5 70 fc ff
	ff fe		 and	 DWORD PTR $T2[ebp], -2	; fffffffeH
  0006a	8d 8d 78 fc ff
	ff		 lea	 ecx, DWORD PTR $T5[ebp]
  00070	ff 25 00 00 00
	00		 jmp	 DWORD PTR __imp_??1?$CStringT@DV?$StrTraitMFC_DLL@DV?$ChTraitsCRT@D@ATL@@@@@ATL@@QAE@XZ
$LN51@Convert2St:
  00076	c3		 ret	 0
__unwindfunclet$?Convert2Struct@CChartReplay@@QAEPADPAEHHAAH@Z$11:
  00077	8d 8d 7c fc ff
	ff		 lea	 ecx, DWORD PTR $T9[ebp]
  0007d	ff 25 00 00 00
	00		 jmp	 DWORD PTR __imp_??1?$CStringT@DV?$StrTraitMFC_DLL@DV?$ChTraitsCRT@D@ATL@@@@@ATL@@QAE@XZ
__unwindfunclet$?Convert2Struct@CChartReplay@@QAEPADPAEHHAAH@Z$23:
  00083	8b 85 70 fc ff
	ff		 mov	 eax, DWORD PTR $T2[ebp]
  00089	83 e0 02	 and	 eax, 2
  0008c	0f 84 13 00 00
	00		 je	 $LN64@Convert2St
  00092	83 a5 70 fc ff
	ff fd		 and	 DWORD PTR $T2[ebp], -3	; fffffffdH
  00099	8d 8d 78 fc ff
	ff		 lea	 ecx, DWORD PTR $T4[ebp]
  0009f	ff 25 00 00 00
	00		 jmp	 DWORD PTR __imp_??1?$CStringT@DV?$StrTraitMFC_DLL@DV?$ChTraitsCRT@D@ATL@@@@@ATL@@QAE@XZ
$LN64@Convert2St:
  000a5	c3		 ret	 0
__unwindfunclet$?Convert2Struct@CChartReplay@@QAEPADPAEHHAAH@Z$14:
  000a6	8d 8d 60 fc ff
	ff		 lea	 ecx, DWORD PTR _strNextKey$[ebp]
  000ac	ff 25 00 00 00
	00		 jmp	 DWORD PTR __imp_??1?$CStringT@DV?$StrTraitMFC_DLL@DV?$ChTraitsCRT@D@ATL@@@@@ATL@@QAE@XZ
__unwindfunclet$?Convert2Struct@CChartReplay@@QAEPADPAEHHAAH@Z$15:
  000b2	8d 8d 7c fc ff
	ff		 lea	 ecx, DWORD PTR $T8[ebp]
  000b8	ff 25 00 00 00
	00		 jmp	 DWORD PTR __imp_??1?$CStringT@DV?$StrTraitMFC_DLL@DV?$ChTraitsCRT@D@ATL@@@@@ATL@@QAE@XZ
__unwindfunclet$?Convert2Struct@CChartReplay@@QAEPADPAEHHAAH@Z$16:
  000be	8d 8d 7c fc ff
	ff		 lea	 ecx, DWORD PTR $T7[ebp]
  000c4	ff 25 00 00 00
	00		 jmp	 DWORD PTR __imp_??1?$CStringT@DV?$StrTraitMFC_DLL@DV?$ChTraitsCRT@D@ATL@@@@@ATL@@QAE@XZ
__unwindfunclet$?Convert2Struct@CChartReplay@@QAEPADPAEHHAAH@Z$17:
  000ca	8d 8d 40 fc ff
	ff		 lea	 ecx, DWORD PTR _arrNode$[ebp]
  000d0	e9 00 00 00 00	 jmp	 ??1CStringArray@@UAE@XZ	; CStringArray::~CStringArray
__unwindfunclet$?Convert2Struct@CChartReplay@@QAEPADPAEHHAAH@Z$19:
  000d5	8d 8d 7c fc ff
	ff		 lea	 ecx, DWORD PTR $T6[ebp]
  000db	ff 25 00 00 00
	00		 jmp	 DWORD PTR __imp_??1?$CStringT@DV?$StrTraitMFC_DLL@DV?$ChTraitsCRT@D@ATL@@@@@ATL@@QAE@XZ
__unwindfunclet$?Convert2Struct@CChartReplay@@QAEPADPAEHHAAH@Z$20:
  000e1	8d 8d 64 fc ff
	ff		 lea	 ecx, DWORD PTR _strDate$[ebp]
  000e7	ff 25 00 00 00
	00		 jmp	 DWORD PTR __imp_??1?$CStringT@DV?$StrTraitMFC_DLL@DV?$ChTraitsCRT@D@ATL@@@@@ATL@@QAE@XZ
__unwindfunclet$?Convert2Struct@CChartReplay@@QAEPADPAEHHAAH@Z$21:
  000ed	8d 8d 68 fc ff
	ff		 lea	 ecx, DWORD PTR _strTime$[ebp]
  000f3	ff 25 00 00 00
	00		 jmp	 DWORD PTR __imp_??1?$CStringT@DV?$StrTraitMFC_DLL@DV?$ChTraitsCRT@D@ATL@@@@@ATL@@QAE@XZ
  000f9	cc		 int	 3
  000fa	cc		 int	 3
  000fb	cc		 int	 3
  000fc	cc		 int	 3
  000fd	cc		 int	 3
__ehhandler$?Convert2Struct@CChartReplay@@QAEPADPAEHHAAH@Z:
  000fe	90		 npad	 1
  000ff	90		 npad	 1
  00100	8b 54 24 08	 mov	 edx, DWORD PTR [esp+8]
  00104	8d 42 0c	 lea	 eax, DWORD PTR [edx+12]
  00107	8b 8a 3c fc ff
	ff		 mov	 ecx, DWORD PTR [edx-964]
  0010d	33 c8		 xor	 ecx, eax
  0010f	e8 00 00 00 00	 call	 @__security_check_cookie@4
  00114	8b 4a fc	 mov	 ecx, DWORD PTR [edx-4]
  00117	33 c8		 xor	 ecx, eax
  00119	e8 00 00 00 00	 call	 @__security_check_cookie@4
  0011e	b8 00 00 00 00	 mov	 eax, OFFSET __ehfuncinfo$?Convert2Struct@CChartReplay@@QAEPADPAEHHAAH@Z
  00123	e9 00 00 00 00	 jmp	 ___CxxFrameHandler3
text$x	ENDS
?Convert2Struct@CChartReplay@@QAEPADPAEHHAAH@Z ENDP	; CChartReplay::Convert2Struct
; Function compile flags: /Ogtp
; File D:\git\src\IBK\IBK_DRFN\ProjSrc\SrcDrfn\DrCommon\PartnerMng\ChartReplay.cpp
; File C:\Program Files (x86)\Microsoft Visual Studio\2019\Community\VC\Tools\MSVC\14.29.30133\atlmfc\include\atlsimpstr.h
; File D:\git\src\IBK\IBK_DRFN\ProjSrc\SrcDrfn\DrCommon\PartnerMng\ChartReplay.cpp
; File C:\Program Files (x86)\Microsoft Visual Studio\2019\Community\VC\Tools\MSVC\14.29.30133\atlmfc\include\cstringt.h
; File D:\git\src\IBK\IBK_DRFN\ProjSrc\SrcDrfn\DrCommon\PartnerMng\ChartReplay.cpp
; File C:\Program Files (x86)\Microsoft Visual Studio\2019\Community\VC\Tools\MSVC\14.29.30133\atlmfc\include\cstringt.h
; File D:\git\src\IBK\IBK_DRFN\ProjSrc\SrcDrfn\DrCommon\PartnerMng\ChartReplay.cpp
; File C:\Program Files (x86)\Microsoft Visual Studio\2019\Community\VC\Tools\MSVC\14.29.30133\atlmfc\include\cstringt.h
; File D:\git\src\IBK\IBK_DRFN\ProjSrc\SrcDrfn\DrCommon\PartnerMng\ChartReplay.cpp
; File C:\Program Files (x86)\Microsoft Visual Studio\2019\Community\VC\Tools\MSVC\14.29.30133\atlmfc\include\cstringt.h
; File D:\git\src\IBK\IBK_DRFN\ProjSrc\SrcDrfn\DrCommon\PartnerMng\ChartReplay.cpp
; File C:\Program Files (x86)\Microsoft Visual Studio\2019\Community\VC\Tools\MSVC\14.29.30133\atlmfc\include\cstringt.h
; File D:\git\src\IBK\IBK_DRFN\ProjSrc\SrcDrfn\DrCommon\PartnerMng\ChartReplay.cpp
; File C:\Program Files (x86)\Microsoft Visual Studio\2019\Community\VC\Tools\MSVC\14.29.30133\atlmfc\include\cstringt.h
; File D:\git\src\IBK\IBK_DRFN\ProjSrc\SrcDrfn\DrCommon\PartnerMng\ChartReplay.cpp
; File C:\Program Files (x86)\Microsoft Visual Studio\2019\Community\VC\Tools\MSVC\14.29.30133\atlmfc\include\cstringt.h
; File D:\git\src\IBK\IBK_DRFN\ProjSrc\SrcDrfn\DrCommon\PartnerMng\ChartReplay.cpp
; File C:\Program Files (x86)\Microsoft Visual Studio\2019\Community\VC\Tools\MSVC\14.29.30133\atlmfc\include\cstringt.h
; File D:\git\src\IBK\IBK_DRFN\ProjSrc\SrcDrfn\DrCommon\PartnerMng\ChartReplay.cpp
; File C:\Program Files (x86)\Microsoft Visual Studio\2019\Community\VC\Tools\MSVC\14.29.30133\atlmfc\include\cstringt.h
; File D:\git\src\IBK\IBK_DRFN\ProjSrc\SrcDrfn\DrCommon\PartnerMng\ChartReplay.cpp
; File C:\Program Files (x86)\Microsoft Visual Studio\2019\Community\VC\Tools\MSVC\14.29.30133\atlmfc\include\cstringt.h
; File D:\git\src\IBK\IBK_DRFN\ProjSrc\SrcDrfn\DrCommon\PartnerMng\ChartReplay.cpp
; File C:\Program Files (x86)\Microsoft Visual Studio\2019\Community\VC\Tools\MSVC\14.29.30133\atlmfc\include\cstringt.h
; File D:\git\src\IBK\IBK_DRFN\ProjSrc\SrcDrfn\DrCommon\PartnerMng\ChartReplay.cpp
; File C:\Program Files (x86)\Microsoft Visual Studio\2019\Community\VC\Tools\MSVC\14.29.30133\atlmfc\include\cstringt.h
; File D:\git\src\IBK\IBK_DRFN\ProjSrc\SrcDrfn\DrCommon\PartnerMng\ChartReplay.cpp
; File C:\Program Files (x86)\Microsoft Visual Studio\2019\Community\VC\Tools\MSVC\14.29.30133\atlmfc\include\cstringt.h
; File D:\git\src\IBK\IBK_DRFN\ProjSrc\SrcDrfn\DrCommon\PartnerMng\ChartReplay.cpp
; File C:\Program Files (x86)\Microsoft Visual Studio\2019\Community\VC\Tools\MSVC\14.29.30133\atlmfc\include\cstringt.h
; File D:\git\src\IBK\IBK_DRFN\ProjSrc\SrcDrfn\DrCommon\PartnerMng\ChartReplay.cpp
; File C:\Program Files (x86)\Microsoft Visual Studio\2019\Community\VC\Tools\MSVC\14.29.30133\atlmfc\include\atlsimpstr.h
; File D:\git\src\IBK\IBK_DRFN\ProjSrc\SrcDrfn\DrCommon\PartnerMng\ChartReplay.cpp
;	COMDAT ?Convert@CChartReplay@@QAE?AV?$CStringT@DV?$StrTraitMFC_DLL@DV?$ChTraitsCRT@D@ATL@@@@@ATL@@XZ
_TEXT	SEGMENT
___$ReturnUdt$GSCopy$1$ = -352				; size = 4
$T2 = -348						; size = 4
$T3 = -344						; size = 4
$T4 = -344						; size = 4
_this$GSCopy$1$ = -340					; size = 4
$T5 = -336						; size = 4
$T6 = -336						; size = 4
$T7 = -336						; size = 4
_strFirstTime$ = -332					; size = 4
_stRowData$ = -328					; size = 4
_temp$ = -324						; size = 4
___$ReturnUdt$GSCopy$ = -320				; size = 4
$T8 = -320						; size = 4
$T9 = -320						; size = 4
$T10 = -320						; size = 4
$T11 = -316						; size = 4
_stNextData$ = -312					; size = 4
_stNextKey$ = -308					; size = 4
_strTemp$ = -304					; size = 4
_strCode$ = -300					; size = 4
$T12 = -293						; size = 1
$T13 = -293						; size = 1
_strData$ = -292					; size = 4
_Datah$ = -288						; size = 136
_szData_i$ = -152					; size = 136
__$ArrayPad$ = -16					; size = 4
__$EHRec$ = -12						; size = 12
___$ReturnUdt$ = 8					; size = 4
?Convert@CChartReplay@@QAE?AV?$CStringT@DV?$StrTraitMFC_DLL@DV?$ChTraitsCRT@D@ATL@@@@@ATL@@XZ PROC ; CChartReplay::Convert, COMDAT
; _this$ = ecx

; 48   : {

  00000	55		 push	 ebp
  00001	8b ec		 mov	 ebp, esp
  00003	6a ff		 push	 -1
  00005	68 00 00 00 00	 push	 __ehhandler$?Convert@CChartReplay@@QAE?AV?$CStringT@DV?$StrTraitMFC_DLL@DV?$ChTraitsCRT@D@ATL@@@@@ATL@@XZ
  0000a	64 a1 00 00 00
	00		 mov	 eax, DWORD PTR fs:0
  00010	50		 push	 eax
  00011	81 ec 54 01 00
	00		 sub	 esp, 340		; 00000154H
  00017	a1 00 00 00 00	 mov	 eax, DWORD PTR ___security_cookie
  0001c	33 c5		 xor	 eax, ebp
  0001e	89 45 f0	 mov	 DWORD PTR __$ArrayPad$[ebp], eax
  00021	53		 push	 ebx
  00022	56		 push	 esi
  00023	57		 push	 edi
  00024	50		 push	 eax
  00025	8d 45 f4	 lea	 eax, DWORD PTR __$EHRec$[ebp]
  00028	64 a3 00 00 00
	00		 mov	 DWORD PTR fs:0, eax
  0002e	8b f1		 mov	 esi, ecx
  00030	89 b5 ac fe ff
	ff		 mov	 DWORD PTR _this$GSCopy$1$[ebp], esi
  00036	8b 5d 08	 mov	 ebx, DWORD PTR ___$ReturnUdt$[ebp]
  00039	89 9d c0 fe ff
	ff		 mov	 DWORD PTR ___$ReturnUdt$GSCopy$[ebp], ebx
  0003f	c7 85 c4 fe ff
	ff 00 00 00 00	 mov	 DWORD PTR $T11[ebp], 0

; 49   : 	if(!m_bSet) return "";

  00049	80 7e 38 00	 cmp	 BYTE PTR [esi+56], 0
  0004d	89 9d a0 fe ff
	ff		 mov	 DWORD PTR ___$ReturnUdt$GSCopy$1$[ebp], ebx
  00053	75 14		 jne	 SHORT $LN5@Convert
  00055	68 00 00 00 00	 push	 OFFSET ??_C@_00CNPNBAHC@@
  0005a	8b cb		 mov	 ecx, ebx
  0005c	ff 15 00 00 00
	00		 call	 DWORD PTR __imp_??0?$CStringT@DV?$StrTraitMFC_DLL@DV?$ChTraitsCRT@D@ATL@@@@@ATL@@QAE@PBD@Z
  00062	8b c3		 mov	 eax, ebx
  00064	e9 e2 08 00 00	 jmp	 $LN1@Convert
$LN5@Convert:

; 50   : 	m_nFutOpt = STOCK;
; 51   : 
; 52   : 	CString strData, strCode, strTemp, strFirstTime;

  00069	8d 8d dc fe ff
	ff		 lea	 ecx, DWORD PTR _strData$[ebp]
  0006f	c7 46 3c 00 00
	00 00		 mov	 DWORD PTR [esi+60], 0
  00076	ff 15 00 00 00
	00		 call	 DWORD PTR __imp_??0?$CStringT@DV?$StrTraitMFC_DLL@DV?$ChTraitsCRT@D@ATL@@@@@ATL@@QAE@XZ
  0007c	8d 8d d4 fe ff
	ff		 lea	 ecx, DWORD PTR _strCode$[ebp]
  00082	c7 45 fc 00 00
	00 00		 mov	 DWORD PTR __$EHRec$[ebp+8], 0
  00089	ff 15 00 00 00
	00		 call	 DWORD PTR __imp_??0?$CStringT@DV?$StrTraitMFC_DLL@DV?$ChTraitsCRT@D@ATL@@@@@ATL@@QAE@XZ
  0008f	8d 8d d0 fe ff
	ff		 lea	 ecx, DWORD PTR _strTemp$[ebp]
  00095	ff 15 00 00 00
	00		 call	 DWORD PTR __imp_??0?$CStringT@DV?$StrTraitMFC_DLL@DV?$ChTraitsCRT@D@ATL@@@@@ATL@@QAE@XZ
  0009b	8d 8d b4 fe ff
	ff		 lea	 ecx, DWORD PTR _strFirstTime$[ebp]
  000a1	ff 15 00 00 00
	00		 call	 DWORD PTR __imp_??0?$CStringT@DV?$StrTraitMFC_DLL@DV?$ChTraitsCRT@D@ATL@@@@@ATL@@QAE@XZ

; 53   : 	int i;
; 54   : 
; 55   : 	strCode = CString(m_InData.shcode, sizeof(m_InData.shcode));

  000a7	6a 10		 push	 16			; 00000010H
  000a9	8d 46 04	 lea	 eax, DWORD PTR [esi+4]
  000ac	c6 45 fc 03	 mov	 BYTE PTR __$EHRec$[ebp+8], 3
  000b0	50		 push	 eax
  000b1	8d 8d b0 fe ff
	ff		 lea	 ecx, DWORD PTR $T7[ebp]
  000b7	ff 15 00 00 00
	00		 call	 DWORD PTR __imp_??0?$CStringT@DV?$StrTraitMFC_DLL@DV?$ChTraitsCRT@D@ATL@@@@@ATL@@QAE@PBDH@Z
  000bd	50		 push	 eax
  000be	8d 8d d4 fe ff
	ff		 lea	 ecx, DWORD PTR _strCode$[ebp]
  000c4	c6 45 fc 04	 mov	 BYTE PTR __$EHRec$[ebp+8], 4
  000c8	ff 15 00 00 00
	00		 call	 DWORD PTR __imp_??4?$CStringT@DV?$StrTraitMFC_DLL@DV?$ChTraitsCRT@D@ATL@@@@@ATL@@QAEAAV01@ABV01@@Z
  000ce	8d 8d b0 fe ff
	ff		 lea	 ecx, DWORD PTR $T7[ebp]
  000d4	c6 45 fc 03	 mov	 BYTE PTR __$EHRec$[ebp+8], 3
  000d8	ff 15 00 00 00
	00		 call	 DWORD PTR __imp_??1?$CStringT@DV?$StrTraitMFC_DLL@DV?$ChTraitsCRT@D@ATL@@@@@ATL@@QAE@XZ

; 56   : 	strCode.TrimLeft(); strCode.TrimRight();

  000de	8d 8d d4 fe ff
	ff		 lea	 ecx, DWORD PTR _strCode$[ebp]
  000e4	ff 15 00 00 00
	00		 call	 DWORD PTR __imp_?TrimLeft@?$CStringT@DV?$StrTraitMFC_DLL@DV?$ChTraitsCRT@D@ATL@@@@@ATL@@QAEAAV12@XZ
  000ea	8d 8d d4 fe ff
	ff		 lea	 ecx, DWORD PTR _strCode$[ebp]
  000f0	ff 15 00 00 00
	00		 call	 DWORD PTR __imp_?TrimRight@?$CStringT@DV?$StrTraitMFC_DLL@DV?$ChTraitsCRT@D@ATL@@@@@ATL@@QAEAAV12@XZ
; File C:\Program Files (x86)\Microsoft Visual Studio\2019\Community\VC\Tools\MSVC\14.29.30133\atlmfc\include\atlsimpstr.h

; 519  : 		return( GetData()->nDataLength );

  000f6	8b 85 d4 fe ff
	ff		 mov	 eax, DWORD PTR _strCode$[ebp]
; File D:\git\src\IBK\IBK_DRFN\ProjSrc\SrcDrfn\DrCommon\PartnerMng\ChartReplay.cpp

; 58   : 	if (strCode.GetLength() < 6) return "";

  000fc	83 78 f4 06	 cmp	 DWORD PTR [eax-12], 6
  00100	7d 44		 jge	 SHORT $LN6@Convert
  00102	68 00 00 00 00	 push	 OFFSET ??_C@_00CNPNBAHC@@
  00107	8b cb		 mov	 ecx, ebx
  00109	ff 15 00 00 00
	00		 call	 DWORD PTR __imp_??0?$CStringT@DV?$StrTraitMFC_DLL@DV?$ChTraitsCRT@D@ATL@@@@@ATL@@QAE@PBD@Z
  0010f	8d 8d b4 fe ff
	ff		 lea	 ecx, DWORD PTR _strFirstTime$[ebp]
  00115	ff 15 00 00 00
	00		 call	 DWORD PTR __imp_??1?$CStringT@DV?$StrTraitMFC_DLL@DV?$ChTraitsCRT@D@ATL@@@@@ATL@@QAE@XZ
  0011b	8d 8d d0 fe ff
	ff		 lea	 ecx, DWORD PTR _strTemp$[ebp]
  00121	ff 15 00 00 00
	00		 call	 DWORD PTR __imp_??1?$CStringT@DV?$StrTraitMFC_DLL@DV?$ChTraitsCRT@D@ATL@@@@@ATL@@QAE@XZ
  00127	8d 8d d4 fe ff
	ff		 lea	 ecx, DWORD PTR _strCode$[ebp]
  0012d	ff 15 00 00 00
	00		 call	 DWORD PTR __imp_??1?$CStringT@DV?$StrTraitMFC_DLL@DV?$ChTraitsCRT@D@ATL@@@@@ATL@@QAE@XZ
  00133	8d 8d dc fe ff
	ff		 lea	 ecx, DWORD PTR _strData$[ebp]
  00139	ff 15 00 00 00
	00		 call	 DWORD PTR __imp_??1?$CStringT@DV?$StrTraitMFC_DLL@DV?$ChTraitsCRT@D@ATL@@@@@ATL@@QAE@XZ
  0013f	8b c3		 mov	 eax, ebx
  00141	e9 05 08 00 00	 jmp	 $LN1@Convert
$LN6@Convert:

; 59   : 	else if (IS_FUT_CODE_3(strCode.Left(3)))//선물일때.. // 0024696: 파생상품 코드체계 변경 제도개선

  00146	6a 03		 push	 3
  00148	8d 85 a8 fe ff
	ff		 lea	 eax, DWORD PTR $T4[ebp]
  0014e	50		 push	 eax
  0014f	8d 8d d4 fe ff
	ff		 lea	 ecx, DWORD PTR _strCode$[ebp]
  00155	ff 15 00 00 00
	00		 call	 DWORD PTR __imp_?Left@?$CStringT@DV?$StrTraitMFC_DLL@DV?$ChTraitsCRT@D@ATL@@@@@ATL@@QBE?AV12@H@Z
  0015b	bb 02 00 00 00	 mov	 ebx, 2
  00160	c6 45 fc 05	 mov	 BYTE PTR __$EHRec$[ebp+8], 5
; File C:\Program Files (x86)\Microsoft Visual Studio\2019\Community\VC\Tools\MSVC\14.29.30133\atlmfc\include\cstringt.h

; 2486 : 		return(str1.Compare(psz2) == 0);

  00164	68 00 00 00 00	 push	 OFFSET ??_C@_03HEBKFNAF@101@
  00169	8b c8		 mov	 ecx, eax
; File D:\git\src\IBK\IBK_DRFN\ProjSrc\SrcDrfn\DrCommon\PartnerMng\ChartReplay.cpp

; 59   : 	else if (IS_FUT_CODE_3(strCode.Left(3)))//선물일때.. // 0024696: 파생상품 코드체계 변경 제도개선

  0016b	89 9d c4 fe ff
	ff		 mov	 DWORD PTR $T11[ebp], ebx
; File C:\Program Files (x86)\Microsoft Visual Studio\2019\Community\VC\Tools\MSVC\14.29.30133\atlmfc\include\cstringt.h

; 2486 : 		return(str1.Compare(psz2) == 0);

  00171	ff 15 00 00 00
	00		 call	 DWORD PTR __imp_?Compare@?$CStringT@DV?$StrTraitMFC_DLL@DV?$ChTraitsCRT@D@ATL@@@@@ATL@@QBEHPBD@Z
  00177	85 c0		 test	 eax, eax
; File D:\git\src\IBK\IBK_DRFN\ProjSrc\SrcDrfn\DrCommon\PartnerMng\ChartReplay.cpp

; 59   : 	else if (IS_FUT_CODE_3(strCode.Left(3)))//선물일때.. // 0024696: 파생상품 코드체계 변경 제도개선

  00179	74 3f		 je	 SHORT $LN32@Convert
  0017b	6a 03		 push	 3
  0017d	8d 85 b0 fe ff
	ff		 lea	 eax, DWORD PTR $T6[ebp]
  00183	50		 push	 eax
  00184	8d 8d d4 fe ff
	ff		 lea	 ecx, DWORD PTR _strCode$[ebp]
  0018a	ff 15 00 00 00
	00		 call	 DWORD PTR __imp_?Left@?$CStringT@DV?$StrTraitMFC_DLL@DV?$ChTraitsCRT@D@ATL@@@@@ATL@@QBE?AV12@H@Z
  00190	bb 06 00 00 00	 mov	 ebx, 6
  00195	c7 45 fc 06 00
	00 00		 mov	 DWORD PTR __$EHRec$[ebp+8], 6
; File C:\Program Files (x86)\Microsoft Visual Studio\2019\Community\VC\Tools\MSVC\14.29.30133\atlmfc\include\cstringt.h

; 2486 : 		return(str1.Compare(psz2) == 0);

  0019c	68 00 00 00 00	 push	 OFFSET ??_C@_03BPCFPNJJ@A01@
  001a1	8b c8		 mov	 ecx, eax
; File D:\git\src\IBK\IBK_DRFN\ProjSrc\SrcDrfn\DrCommon\PartnerMng\ChartReplay.cpp

; 59   : 	else if (IS_FUT_CODE_3(strCode.Left(3)))//선물일때.. // 0024696: 파생상품 코드체계 변경 제도개선

  001a3	89 9d c4 fe ff
	ff		 mov	 DWORD PTR $T11[ebp], ebx
; File C:\Program Files (x86)\Microsoft Visual Studio\2019\Community\VC\Tools\MSVC\14.29.30133\atlmfc\include\cstringt.h

; 2486 : 		return(str1.Compare(psz2) == 0);

  001a9	ff 15 00 00 00
	00		 call	 DWORD PTR __imp_?Compare@?$CStringT@DV?$StrTraitMFC_DLL@DV?$ChTraitsCRT@D@ATL@@@@@ATL@@QBEHPBD@Z
; File D:\git\src\IBK\IBK_DRFN\ProjSrc\SrcDrfn\DrCommon\PartnerMng\ChartReplay.cpp

; 59   : 	else if (IS_FUT_CODE_3(strCode.Left(3)))//선물일때.. // 0024696: 파생상품 코드체계 변경 제도개선

  001af	c6 85 db fe ff
	ff 00		 mov	 BYTE PTR $T13[ebp], 0
; File C:\Program Files (x86)\Microsoft Visual Studio\2019\Community\VC\Tools\MSVC\14.29.30133\atlmfc\include\cstringt.h

; 2486 : 		return(str1.Compare(psz2) == 0);

  001b6	85 c0		 test	 eax, eax
; File D:\git\src\IBK\IBK_DRFN\ProjSrc\SrcDrfn\DrCommon\PartnerMng\ChartReplay.cpp

; 59   : 	else if (IS_FUT_CODE_3(strCode.Left(3)))//선물일때.. // 0024696: 파생상품 코드체계 변경 제도개선

  001b8	75 07		 jne	 SHORT $LN33@Convert
$LN32@Convert:
  001ba	c6 85 db fe ff
	ff 01		 mov	 BYTE PTR $T13[ebp], 1
$LN33@Convert:
  001c1	f6 c3 04	 test	 bl, 4
  001c4	74 0f		 je	 SHORT $LN50@Convert
  001c6	8d 8d b0 fe ff
	ff		 lea	 ecx, DWORD PTR $T6[ebp]
  001cc	83 e3 fb	 and	 ebx, -5			; fffffffbH
  001cf	ff 15 00 00 00
	00		 call	 DWORD PTR __imp_??1?$CStringT@DV?$StrTraitMFC_DLL@DV?$ChTraitsCRT@D@ATL@@@@@ATL@@QAE@XZ
$LN50@Convert:
  001d5	c7 45 fc 03 00
	00 00		 mov	 DWORD PTR __$EHRec$[ebp+8], 3
  001dc	f6 c3 02	 test	 bl, 2
  001df	74 0f		 je	 SHORT $LN51@Convert
  001e1	8d 8d a8 fe ff
	ff		 lea	 ecx, DWORD PTR $T4[ebp]
  001e7	83 e3 fd	 and	 ebx, -3			; fffffffdH
  001ea	ff 15 00 00 00
	00		 call	 DWORD PTR __imp_??1?$CStringT@DV?$StrTraitMFC_DLL@DV?$ChTraitsCRT@D@ATL@@@@@ATL@@QAE@XZ
$LN51@Convert:
  001f0	80 bd db fe ff
	ff 00		 cmp	 BYTE PTR $T13[ebp], 0
  001f7	74 12		 je	 SHORT $LN8@Convert

; 60   : 		m_nFutOpt = FUTURE;

  001f9	8b 9d ac fe ff
	ff		 mov	 ebx, DWORD PTR _this$GSCopy$1$[ebp]
  001ff	c7 43 3c 01 00
	00 00		 mov	 DWORD PTR [ebx+60], 1
  00206	e9 51 01 00 00	 jmp	 $LN10@Convert
$LN8@Convert:

; 61   : 	else if(IS_CALL_CODE_3(strCode.Left(3)) || IS_PUT_CODE_3(strCode.Left(3)))

  0020b	6a 03		 push	 3
  0020d	8d 85 c0 fe ff
	ff		 lea	 eax, DWORD PTR $T10[ebp]
  00213	50		 push	 eax
  00214	8d 8d d4 fe ff
	ff		 lea	 ecx, DWORD PTR _strCode$[ebp]
  0021a	ff 15 00 00 00
	00		 call	 DWORD PTR __imp_?Left@?$CStringT@DV?$StrTraitMFC_DLL@DV?$ChTraitsCRT@D@ATL@@@@@ATL@@QBE?AV12@H@Z
  00220	83 cb 08	 or	 ebx, 8
  00223	c6 45 fc 07	 mov	 BYTE PTR __$EHRec$[ebp+8], 7
; File C:\Program Files (x86)\Microsoft Visual Studio\2019\Community\VC\Tools\MSVC\14.29.30133\atlmfc\include\cstringt.h

; 2486 : 		return(str1.Compare(psz2) == 0);

  00227	68 00 00 00 00	 push	 OFFSET ??_C@_03GGKPPCOL@201@
  0022c	8b c8		 mov	 ecx, eax
; File D:\git\src\IBK\IBK_DRFN\ProjSrc\SrcDrfn\DrCommon\PartnerMng\ChartReplay.cpp

; 61   : 	else if(IS_CALL_CODE_3(strCode.Left(3)) || IS_PUT_CODE_3(strCode.Left(3)))

  0022e	89 9d c4 fe ff
	ff		 mov	 DWORD PTR $T11[ebp], ebx
; File C:\Program Files (x86)\Microsoft Visual Studio\2019\Community\VC\Tools\MSVC\14.29.30133\atlmfc\include\cstringt.h

; 2486 : 		return(str1.Compare(psz2) == 0);

  00234	ff 15 00 00 00
	00		 call	 DWORD PTR __imp_?Compare@?$CStringT@DV?$StrTraitMFC_DLL@DV?$ChTraitsCRT@D@ATL@@@@@ATL@@QBEHPBD@Z
  0023a	85 c0		 test	 eax, eax
; File D:\git\src\IBK\IBK_DRFN\ProjSrc\SrcDrfn\DrCommon\PartnerMng\ChartReplay.cpp

; 61   : 	else if(IS_CALL_CODE_3(strCode.Left(3)) || IS_PUT_CODE_3(strCode.Left(3)))

  0023c	0f 84 a9 00 00
	00		 je	 $LN34@Convert
  00242	6a 03		 push	 3
  00244	8d 85 a4 fe ff
	ff		 lea	 eax, DWORD PTR $T2[ebp]
  0024a	50		 push	 eax
  0024b	8d 8d d4 fe ff
	ff		 lea	 ecx, DWORD PTR _strCode$[ebp]
  00251	ff 15 00 00 00
	00		 call	 DWORD PTR __imp_?Left@?$CStringT@DV?$StrTraitMFC_DLL@DV?$ChTraitsCRT@D@ATL@@@@@ATL@@QBE?AV12@H@Z
  00257	83 cb 10	 or	 ebx, 16			; 00000010H
  0025a	c7 45 fc 08 00
	00 00		 mov	 DWORD PTR __$EHRec$[ebp+8], 8
; File C:\Program Files (x86)\Microsoft Visual Studio\2019\Community\VC\Tools\MSVC\14.29.30133\atlmfc\include\cstringt.h

; 2486 : 		return(str1.Compare(psz2) == 0);

  00261	68 00 00 00 00	 push	 OFFSET ??_C@_03NJAFCHH@B01@
  00266	8b c8		 mov	 ecx, eax
; File D:\git\src\IBK\IBK_DRFN\ProjSrc\SrcDrfn\DrCommon\PartnerMng\ChartReplay.cpp

; 61   : 	else if(IS_CALL_CODE_3(strCode.Left(3)) || IS_PUT_CODE_3(strCode.Left(3)))

  00268	89 9d c4 fe ff
	ff		 mov	 DWORD PTR $T11[ebp], ebx
; File C:\Program Files (x86)\Microsoft Visual Studio\2019\Community\VC\Tools\MSVC\14.29.30133\atlmfc\include\cstringt.h

; 2486 : 		return(str1.Compare(psz2) == 0);

  0026e	ff 15 00 00 00
	00		 call	 DWORD PTR __imp_?Compare@?$CStringT@DV?$StrTraitMFC_DLL@DV?$ChTraitsCRT@D@ATL@@@@@ATL@@QBEHPBD@Z
  00274	85 c0		 test	 eax, eax
; File D:\git\src\IBK\IBK_DRFN\ProjSrc\SrcDrfn\DrCommon\PartnerMng\ChartReplay.cpp

; 61   : 	else if(IS_CALL_CODE_3(strCode.Left(3)) || IS_PUT_CODE_3(strCode.Left(3)))

  00276	74 73		 je	 SHORT $LN34@Convert
  00278	6a 03		 push	 3
  0027a	8d 85 b0 fe ff
	ff		 lea	 eax, DWORD PTR $T5[ebp]
  00280	50		 push	 eax
  00281	8d 8d d4 fe ff
	ff		 lea	 ecx, DWORD PTR _strCode$[ebp]
  00287	ff 15 00 00 00
	00		 call	 DWORD PTR __imp_?Left@?$CStringT@DV?$StrTraitMFC_DLL@DV?$ChTraitsCRT@D@ATL@@@@@ATL@@QBE?AV12@H@Z
  0028d	83 cb 20	 or	 ebx, 32			; 00000020H
  00290	c7 45 fc 09 00
	00 00		 mov	 DWORD PTR __$EHRec$[ebp+8], 9
; File C:\Program Files (x86)\Microsoft Visual Studio\2019\Community\VC\Tools\MSVC\14.29.30133\atlmfc\include\cstringt.h

; 2486 : 		return(str1.Compare(psz2) == 0);

  00297	68 00 00 00 00	 push	 OFFSET ??_C@_03NOBDJFIO@301@
  0029c	8b c8		 mov	 ecx, eax
; File D:\git\src\IBK\IBK_DRFN\ProjSrc\SrcDrfn\DrCommon\PartnerMng\ChartReplay.cpp

; 61   : 	else if(IS_CALL_CODE_3(strCode.Left(3)) || IS_PUT_CODE_3(strCode.Left(3)))

  0029e	89 9d c4 fe ff
	ff		 mov	 DWORD PTR $T11[ebp], ebx
; File C:\Program Files (x86)\Microsoft Visual Studio\2019\Community\VC\Tools\MSVC\14.29.30133\atlmfc\include\cstringt.h

; 2486 : 		return(str1.Compare(psz2) == 0);

  002a4	ff 15 00 00 00
	00		 call	 DWORD PTR __imp_?Compare@?$CStringT@DV?$StrTraitMFC_DLL@DV?$ChTraitsCRT@D@ATL@@@@@ATL@@QBEHPBD@Z
  002aa	85 c0		 test	 eax, eax
; File D:\git\src\IBK\IBK_DRFN\ProjSrc\SrcDrfn\DrCommon\PartnerMng\ChartReplay.cpp

; 61   : 	else if(IS_CALL_CODE_3(strCode.Left(3)) || IS_PUT_CODE_3(strCode.Left(3)))

  002ac	74 3d		 je	 SHORT $LN34@Convert
  002ae	6a 03		 push	 3
  002b0	8d 85 a8 fe ff
	ff		 lea	 eax, DWORD PTR $T3[ebp]
  002b6	50		 push	 eax
  002b7	8d 8d d4 fe ff
	ff		 lea	 ecx, DWORD PTR _strCode$[ebp]
  002bd	ff 15 00 00 00
	00		 call	 DWORD PTR __imp_?Left@?$CStringT@DV?$StrTraitMFC_DLL@DV?$ChTraitsCRT@D@ATL@@@@@ATL@@QBE?AV12@H@Z
  002c3	83 cb 40	 or	 ebx, 64			; 00000040H
  002c6	c7 45 fc 0a 00
	00 00		 mov	 DWORD PTR __$EHRec$[ebp+8], 10 ; 0000000aH
; File C:\Program Files (x86)\Microsoft Visual Studio\2019\Community\VC\Tools\MSVC\14.29.30133\atlmfc\include\cstringt.h

; 2486 : 		return(str1.Compare(psz2) == 0);

  002cd	68 00 00 00 00	 push	 OFFSET ??_C@_03LFCMDFBC@C01@
  002d2	8b c8		 mov	 ecx, eax
; File D:\git\src\IBK\IBK_DRFN\ProjSrc\SrcDrfn\DrCommon\PartnerMng\ChartReplay.cpp

; 61   : 	else if(IS_CALL_CODE_3(strCode.Left(3)) || IS_PUT_CODE_3(strCode.Left(3)))

  002d4	89 9d c4 fe ff
	ff		 mov	 DWORD PTR $T11[ebp], ebx
; File C:\Program Files (x86)\Microsoft Visual Studio\2019\Community\VC\Tools\MSVC\14.29.30133\atlmfc\include\cstringt.h

; 2486 : 		return(str1.Compare(psz2) == 0);

  002da	ff 15 00 00 00
	00		 call	 DWORD PTR __imp_?Compare@?$CStringT@DV?$StrTraitMFC_DLL@DV?$ChTraitsCRT@D@ATL@@@@@ATL@@QBEHPBD@Z
; File D:\git\src\IBK\IBK_DRFN\ProjSrc\SrcDrfn\DrCommon\PartnerMng\ChartReplay.cpp

; 61   : 	else if(IS_CALL_CODE_3(strCode.Left(3)) || IS_PUT_CODE_3(strCode.Left(3)))

  002e0	c6 85 db fe ff
	ff 00		 mov	 BYTE PTR $T12[ebp], 0
; File C:\Program Files (x86)\Microsoft Visual Studio\2019\Community\VC\Tools\MSVC\14.29.30133\atlmfc\include\cstringt.h

; 2486 : 		return(str1.Compare(psz2) == 0);

  002e7	85 c0		 test	 eax, eax
; File D:\git\src\IBK\IBK_DRFN\ProjSrc\SrcDrfn\DrCommon\PartnerMng\ChartReplay.cpp

; 61   : 	else if(IS_CALL_CODE_3(strCode.Left(3)) || IS_PUT_CODE_3(strCode.Left(3)))

  002e9	75 07		 jne	 SHORT $LN36@Convert
$LN34@Convert:
  002eb	c6 85 db fe ff
	ff 01		 mov	 BYTE PTR $T12[ebp], 1
$LN36@Convert:
  002f2	f6 c3 40	 test	 bl, 64			; 00000040H
  002f5	74 0f		 je	 SHORT $LN60@Convert
  002f7	8d 8d a8 fe ff
	ff		 lea	 ecx, DWORD PTR $T3[ebp]
  002fd	83 e3 bf	 and	 ebx, -65		; ffffffbfH
  00300	ff 15 00 00 00
	00		 call	 DWORD PTR __imp_??1?$CStringT@DV?$StrTraitMFC_DLL@DV?$ChTraitsCRT@D@ATL@@@@@ATL@@QAE@XZ
$LN60@Convert:
  00306	f6 c3 20	 test	 bl, 32			; 00000020H
  00309	74 0f		 je	 SHORT $LN61@Convert
  0030b	8d 8d b0 fe ff
	ff		 lea	 ecx, DWORD PTR $T5[ebp]
  00311	83 e3 df	 and	 ebx, -33		; ffffffdfH
  00314	ff 15 00 00 00
	00		 call	 DWORD PTR __imp_??1?$CStringT@DV?$StrTraitMFC_DLL@DV?$ChTraitsCRT@D@ATL@@@@@ATL@@QAE@XZ
$LN61@Convert:
  0031a	f6 c3 10	 test	 bl, 16			; 00000010H
  0031d	74 0f		 je	 SHORT $LN62@Convert
  0031f	8d 8d a4 fe ff
	ff		 lea	 ecx, DWORD PTR $T2[ebp]
  00325	83 e3 ef	 and	 ebx, -17		; ffffffefH
  00328	ff 15 00 00 00
	00		 call	 DWORD PTR __imp_??1?$CStringT@DV?$StrTraitMFC_DLL@DV?$ChTraitsCRT@D@ATL@@@@@ATL@@QAE@XZ
$LN62@Convert:
  0032e	c7 45 fc 03 00
	00 00		 mov	 DWORD PTR __$EHRec$[ebp+8], 3
  00335	f6 c3 08	 test	 bl, 8
  00338	74 0c		 je	 SHORT $LN63@Convert
  0033a	8d 8d c0 fe ff
	ff		 lea	 ecx, DWORD PTR $T10[ebp]
  00340	ff 15 00 00 00
	00		 call	 DWORD PTR __imp_??1?$CStringT@DV?$StrTraitMFC_DLL@DV?$ChTraitsCRT@D@ATL@@@@@ATL@@QAE@XZ
$LN63@Convert:
  00346	80 bd db fe ff
	ff 00		 cmp	 BYTE PTR $T12[ebp], 0
  0034d	8b 9d ac fe ff
	ff		 mov	 ebx, DWORD PTR _this$GSCopy$1$[ebp]
  00353	74 07		 je	 SHORT $LN10@Convert

; 62   : 		m_nFutOpt = OPTION;

  00355	c7 43 3c 02 00
	00 00		 mov	 DWORD PTR [ebx+60], 2
$LN10@Convert:

; 63   : 	
; 64   : 	strTemp = CString(m_InData.remindTime, sizeof(m_InData.remindTime));

  0035c	6a 06		 push	 6
  0035e	8d 43 16	 lea	 eax, DWORD PTR [ebx+22]
  00361	50		 push	 eax
  00362	8d 8d c0 fe ff
	ff		 lea	 ecx, DWORD PTR $T9[ebp]
  00368	ff 15 00 00 00
	00		 call	 DWORD PTR __imp_??0?$CStringT@DV?$StrTraitMFC_DLL@DV?$ChTraitsCRT@D@ATL@@@@@ATL@@QAE@PBDH@Z
  0036e	50		 push	 eax
  0036f	8d 8d d0 fe ff
	ff		 lea	 ecx, DWORD PTR _strTemp$[ebp]
  00375	c6 45 fc 0b	 mov	 BYTE PTR __$EHRec$[ebp+8], 11 ; 0000000bH
  00379	ff 15 00 00 00
	00		 call	 DWORD PTR __imp_??4?$CStringT@DV?$StrTraitMFC_DLL@DV?$ChTraitsCRT@D@ATL@@@@@ATL@@QAEAAV01@ABV01@@Z
  0037f	8d 8d c0 fe ff
	ff		 lea	 ecx, DWORD PTR $T9[ebp]
  00385	c6 45 fc 03	 mov	 BYTE PTR __$EHRec$[ebp+8], 3
  00389	ff 15 00 00 00
	00		 call	 DWORD PTR __imp_??1?$CStringT@DV?$StrTraitMFC_DLL@DV?$ChTraitsCRT@D@ATL@@@@@ATL@@QAE@XZ

; 65   : 	strTemp.TrimLeft(); strTemp.TrimRight();

  0038f	8d 8d d0 fe ff
	ff		 lea	 ecx, DWORD PTR _strTemp$[ebp]
  00395	ff 15 00 00 00
	00		 call	 DWORD PTR __imp_?TrimLeft@?$CStringT@DV?$StrTraitMFC_DLL@DV?$ChTraitsCRT@D@ATL@@@@@ATL@@QAEAAV12@XZ
  0039b	8d 8d d0 fe ff
	ff		 lea	 ecx, DWORD PTR _strTemp$[ebp]
  003a1	ff 15 00 00 00
	00		 call	 DWORD PTR __imp_?TrimRight@?$CStringT@DV?$StrTraitMFC_DLL@DV?$ChTraitsCRT@D@ATL@@@@@ATL@@QAEAAV12@XZ

; 66   : 	strFirstTime = strTemp;

  003a7	8d 85 d0 fe ff
	ff		 lea	 eax, DWORD PTR _strTemp$[ebp]
  003ad	50		 push	 eax
  003ae	8d 8d b4 fe ff
	ff		 lea	 ecx, DWORD PTR _strFirstTime$[ebp]
  003b4	ff 15 00 00 00
	00		 call	 DWORD PTR __imp_??4?$CStringT@DV?$StrTraitMFC_DLL@DV?$ChTraitsCRT@D@ATL@@@@@ATL@@QAEAAV01@ABV01@@Z
; File C:\Program Files (x86)\Microsoft Visual Studio\2019\Community\VC\Tools\MSVC\14.29.30133\atlmfc\include\atlsimpstr.h

; 519  : 		return( GetData()->nDataLength );

  003ba	8b 85 d0 fe ff
	ff		 mov	 eax, DWORD PTR _strTemp$[ebp]

; 533  : 		return( GetLength() == 0 );

  003c0	83 78 f4 00	 cmp	 DWORD PTR [eax-12], 0
; File D:\git\src\IBK\IBK_DRFN\ProjSrc\SrcDrfn\DrCommon\PartnerMng\ChartReplay.cpp

; 68   : 	if (strTemp.IsEmpty())		m_nPage = 0;

  003c4	75 09		 jne	 SHORT $LN11@Convert
  003c6	c7 43 40 00 00
	00 00		 mov	 DWORD PTR [ebx+64], 0
  003cd	eb 03		 jmp	 SHORT $LN12@Convert
$LN11@Convert:

; 69   : 	else						m_nPage++;

  003cf	ff 43 40	 inc	 DWORD PTR [ebx+64]
$LN12@Convert:

; 70   : 
; 71   : //////////////////////////////////////////////////////////////////////////
; 72   : //	Inbound 데이터 작성
; 73   : //////////////////////////////////////////////////////////////////////////
; 74   : 	_dataH	Datah;
; 75   : 	FillMemory(&Datah, sz_DATAH, 0x20);

  003d2	68 88 00 00 00	 push	 136			; 00000088H
  003d7	8d 85 e0 fe ff
	ff		 lea	 eax, DWORD PTR _Datah$[ebp]
  003dd	6a 20		 push	 32			; 00000020H
  003df	50		 push	 eax
  003e0	e8 00 00 00 00	 call	 _memset

; 76   : 	//	종목코드
; 77   : 	if (m_nFutOpt == FUTURE)	strData += "31301";	

  003e5	8b 43 3c	 mov	 eax, DWORD PTR [ebx+60]
  003e8	83 c4 0c	 add	 esp, 12			; 0000000cH
  003eb	83 f8 01	 cmp	 eax, 1
  003ee	75 07		 jne	 SHORT $LN13@Convert
  003f0	68 00 00 00 00	 push	 OFFSET ??_C@_05FADKAPAE@31301@
  003f5	eb 11		 jmp	 SHORT $LN114@Convert
$LN13@Convert:

; 78   : 	else if (m_nFutOpt == OPTION)	strData += "41301";		

  003f7	83 f8 02	 cmp	 eax, 2
  003fa	75 07		 jne	 SHORT $LN15@Convert
  003fc	68 00 00 00 00	 push	 OFFSET ??_C@_05ENDPDPLM@41301@
  00401	eb 05		 jmp	 SHORT $LN114@Convert
$LN15@Convert:

; 79   : 	else			strData += "1301";

  00403	68 00 00 00 00	 push	 OFFSET ??_C@_04KFDECMLJ@1301@
$LN114@Convert:

; 80   : 	strData += sDS;

  00408	8d 8d dc fe ff
	ff		 lea	 ecx, DWORD PTR _strData$[ebp]
  0040e	ff 15 00 00 00
	00		 call	 DWORD PTR __imp_??Y?$CStringT@DV?$StrTraitMFC_DLL@DV?$ChTraitsCRT@D@ATL@@@@@ATL@@QAEAAV01@PBD@Z
  00414	6a 7f		 push	 127			; 0000007fH
  00416	8d 8d dc fe ff
	ff		 lea	 ecx, DWORD PTR _strData$[ebp]
  0041c	ff 15 00 00 00
	00		 call	 DWORD PTR __imp_??Y?$CStringT@DV?$StrTraitMFC_DLL@DV?$ChTraitsCRT@D@ATL@@@@@ATL@@QAEAAV01@D@Z

; 81   : 	strData += strCode;

  00422	8d 85 d4 fe ff
	ff		 lea	 eax, DWORD PTR _strCode$[ebp]
  00428	50		 push	 eax
  00429	8d 8d dc fe ff
	ff		 lea	 ecx, DWORD PTR _strData$[ebp]
  0042f	ff 15 00 00 00
	00		 call	 DWORD PTR __imp_??Y?$CStringT@DV?$StrTraitMFC_DLL@DV?$ChTraitsCRT@D@ATL@@@@@ATL@@QAEAAV01@ABV?$CSimpleStringT@D$00@1@@Z

; 82   : 	strData += sCELL;

  00435	6a 09		 push	 9
  00437	8d 8d dc fe ff
	ff		 lea	 ecx, DWORD PTR _strData$[ebp]
  0043d	ff 15 00 00 00
	00		 call	 DWORD PTR __imp_??Y?$CStringT@DV?$StrTraitMFC_DLL@DV?$ChTraitsCRT@D@ATL@@@@@ATL@@QAEAAV01@D@Z

; 83   : 
; 84   : 	if (m_nFutOpt == FUTURE)	strData += "32340"; // 당일/전일구분 Input 심볼

  00443	8b 43 3c	 mov	 eax, DWORD PTR [ebx+60]
  00446	83 f8 01	 cmp	 eax, 1
  00449	75 07		 jne	 SHORT $LN17@Convert
  0044b	68 00 00 00 00	 push	 OFFSET ??_C@_05JIIOMEJ@32340@
  00450	eb 11		 jmp	 SHORT $LN115@Convert
$LN17@Convert:

; 85   : 	else if (m_nFutOpt == OPTION)	strData += "42340"; // 당일/전일구분 Input 심볼

  00452	83 f8 02	 cmp	 eax, 2
  00455	75 07		 jne	 SHORT $LN19@Convert
  00457	68 00 00 00 00	 push	 OFFSET ??_C@_05BEINNMPB@42340@
  0045c	eb 05		 jmp	 SHORT $LN115@Convert
$LN19@Convert:

; 86   : 	else			strData += "2340"; // 당일/전일구분 Input 심볼

  0045e	68 00 00 00 00	 push	 OFFSET ??_C@_04PMIGMPPE@2340@
$LN115@Convert:

; 87   : 	strData += sDS;

  00463	8d 8d dc fe ff
	ff		 lea	 ecx, DWORD PTR _strData$[ebp]
  00469	ff 15 00 00 00
	00		 call	 DWORD PTR __imp_??Y?$CStringT@DV?$StrTraitMFC_DLL@DV?$ChTraitsCRT@D@ATL@@@@@ATL@@QAEAAV01@PBD@Z
  0046f	6a 7f		 push	 127			; 0000007fH
  00471	8d 8d dc fe ff
	ff		 lea	 ecx, DWORD PTR _strData$[ebp]
  00477	ff 15 00 00 00
	00		 call	 DWORD PTR __imp_??Y?$CStringT@DV?$StrTraitMFC_DLL@DV?$ChTraitsCRT@D@ATL@@@@@ATL@@QAEAAV01@D@Z

; 88   : 	strTemp = CString(m_InData.remindDate, sizeof(m_InData.remindDate));

  0047d	6a 02		 push	 2
  0047f	8d 43 14	 lea	 eax, DWORD PTR [ebx+20]
  00482	50		 push	 eax
  00483	8d 8d c0 fe ff
	ff		 lea	 ecx, DWORD PTR $T8[ebp]
  00489	ff 15 00 00 00
	00		 call	 DWORD PTR __imp_??0?$CStringT@DV?$StrTraitMFC_DLL@DV?$ChTraitsCRT@D@ATL@@@@@ATL@@QAE@PBDH@Z
  0048f	50		 push	 eax
  00490	8d 8d d0 fe ff
	ff		 lea	 ecx, DWORD PTR _strTemp$[ebp]
  00496	c6 45 fc 0c	 mov	 BYTE PTR __$EHRec$[ebp+8], 12 ; 0000000cH
  0049a	ff 15 00 00 00
	00		 call	 DWORD PTR __imp_??4?$CStringT@DV?$StrTraitMFC_DLL@DV?$ChTraitsCRT@D@ATL@@@@@ATL@@QAEAAV01@ABV01@@Z
  004a0	8d 8d c0 fe ff
	ff		 lea	 ecx, DWORD PTR $T8[ebp]
  004a6	c6 45 fc 03	 mov	 BYTE PTR __$EHRec$[ebp+8], 3
  004aa	ff 15 00 00 00
	00		 call	 DWORD PTR __imp_??1?$CStringT@DV?$StrTraitMFC_DLL@DV?$ChTraitsCRT@D@ATL@@@@@ATL@@QAE@XZ

; 89   : 	if (atoi(strTemp) == 0)	

  004b0	ff b5 d0 fe ff
	ff		 push	 DWORD PTR _strTemp$[ebp]
  004b6	ff 15 00 00 00
	00		 call	 DWORD PTR __imp__atoi
  004bc	8b 35 00 00 00
	00		 mov	 esi, DWORD PTR __imp_?Format@?$CStringT@DV?$StrTraitMFC_DLL@DV?$ChTraitsCRT@D@ATL@@@@@ATL@@QAAXPBDZZ
  004c2	83 c4 04	 add	 esp, 4
  004c5	85 c0		 test	 eax, eax
  004c7	8d 85 d0 fe ff
	ff		 lea	 eax, DWORD PTR _strTemp$[ebp]
  004cd	ff b5 b4 fe ff
	ff		 push	 DWORD PTR _strFirstTime$[ebp]
  004d3	75 04		 jne	 SHORT $LN21@Convert

; 90   : 		strTemp.Format("%d%s", 0, strFirstTime); // 1 : 전일, 0 : 당일

  004d5	6a 00		 push	 0
  004d7	eb 02		 jmp	 SHORT $LN116@Convert
$LN21@Convert:

; 91   : 	else	
; 92   : 		strTemp.Format("%d%s", 1, strFirstTime);

  004d9	6a 01		 push	 1
$LN116@Convert:

; 93   : 	strData += strTemp;

  004db	68 00 00 00 00	 push	 OFFSET ??_C@_04LOCMGGPM@?$CFd?$CFs@
  004e0	50		 push	 eax
  004e1	ff d6		 call	 esi
  004e3	83 c4 10	 add	 esp, 16			; 00000010H
  004e6	8d 85 d0 fe ff
	ff		 lea	 eax, DWORD PTR _strTemp$[ebp]
  004ec	8d 8d dc fe ff
	ff		 lea	 ecx, DWORD PTR _strData$[ebp]
  004f2	50		 push	 eax
  004f3	ff 15 00 00 00
	00		 call	 DWORD PTR __imp_??Y?$CStringT@DV?$StrTraitMFC_DLL@DV?$ChTraitsCRT@D@ATL@@@@@ATL@@QAEAAV01@ABV?$CSimpleStringT@D$00@1@@Z

; 94   : 	strData += sCELL;

  004f9	6a 09		 push	 9
  004fb	8d 8d dc fe ff
	ff		 lea	 ecx, DWORD PTR _strData$[ebp]
  00501	ff 15 00 00 00
	00		 call	 DWORD PTR __imp_??Y?$CStringT@DV?$StrTraitMFC_DLL@DV?$ChTraitsCRT@D@ATL@@@@@ATL@@QAEAAV01@D@Z

; 95   : 
; 96   : //Data 세팅 : KHD 
; 97   : 	CString stRowData, stNextData, stNextKey;

  00507	8d 8d b8 fe ff
	ff		 lea	 ecx, DWORD PTR _stRowData$[ebp]
  0050d	ff 15 00 00 00
	00		 call	 DWORD PTR __imp_??0?$CStringT@DV?$StrTraitMFC_DLL@DV?$ChTraitsCRT@D@ATL@@@@@ATL@@QAE@XZ
  00513	8d 8d c8 fe ff
	ff		 lea	 ecx, DWORD PTR _stNextData$[ebp]
  00519	ff 15 00 00 00
	00		 call	 DWORD PTR __imp_??0?$CStringT@DV?$StrTraitMFC_DLL@DV?$ChTraitsCRT@D@ATL@@@@@ATL@@QAE@XZ
  0051f	8d 8d cc fe ff
	ff		 lea	 ecx, DWORD PTR _stNextKey$[ebp]
  00525	ff 15 00 00 00
	00		 call	 DWORD PTR __imp_??0?$CStringT@DV?$StrTraitMFC_DLL@DV?$ChTraitsCRT@D@ATL@@@@@ATL@@QAE@XZ

; 98   : 	Datah.dindex = GI_TICK;
; 99   : 	Datah.dunit = GI_TICK;
; 100  : 	if(m_nFutOpt == FUTURE)

  0052b	8b 43 3c	 mov	 eax, DWORD PTR [ebx+60]
  0052e	8d 7b 1c	 lea	 edi, DWORD PTR [ebx+28]
  00531	c6 45 fc 0f	 mov	 BYTE PTR __$EHRec$[ebp+8], 15 ; 0000000fH
  00535	8d 8d b8 fe ff
	ff		 lea	 ecx, DWORD PTR _stRowData$[ebp]
  0053b	66 c7 85 f6 fe
	ff ff 05 05	 mov	 WORD PTR _Datah$[ebp+22], 1285 ; 00000505H
  00544	83 f8 01	 cmp	 eax, 1
  00547	0f 85 b8 00 00
	00		 jne	 $LN23@Convert

; 101  : 	{
; 102  : 		stRowData = _T("?32500");

  0054d	68 00 00 00 00	 push	 OFFSET ??_C@_06FJGPLACP@?$DP32500@
  00552	ff 15 00 00 00
	00		 call	 DWORD PTR __imp_??4?$CStringT@DV?$StrTraitMFC_DLL@DV?$ChTraitsCRT@D@ATL@@@@@ATL@@QAEAAV01@PBD@Z

; 103  : 		stNextKey = "32324";

  00558	68 00 00 00 00	 push	 OFFSET ??_C@_05GJGJFFPP@32324@
  0055d	8d 8d cc fe ff
	ff		 lea	 ecx, DWORD PTR _stNextKey$[ebp]
  00563	ff 15 00 00 00
	00		 call	 DWORD PTR __imp_??4?$CStringT@DV?$StrTraitMFC_DLL@DV?$ChTraitsCRT@D@ATL@@@@@ATL@@QAEAAV01@PBD@Z

; 104  : 		stNextData.Format("%28.28s",m_InData.nkey );

  00569	57		 push	 edi
  0056a	8d 85 c8 fe ff
	ff		 lea	 eax, DWORD PTR _stNextData$[ebp]
  00570	68 00 00 00 00	 push	 OFFSET ??_C@_07PGCHECEN@?$CF28?428s@
  00575	50		 push	 eax
  00576	ff d6		 call	 esi
  00578	83 c4 0c	 add	 esp, 12			; 0000000cH

; 105  : 		strData += stNextKey; strData += sDS;	strData += stNextData;	strData += sCELL; // 넥스트 키값 : KHD 

  0057b	8d 85 cc fe ff
	ff		 lea	 eax, DWORD PTR _stNextKey$[ebp]
  00581	8d 8d dc fe ff
	ff		 lea	 ecx, DWORD PTR _strData$[ebp]
  00587	50		 push	 eax
  00588	ff 15 00 00 00
	00		 call	 DWORD PTR __imp_??Y?$CStringT@DV?$StrTraitMFC_DLL@DV?$ChTraitsCRT@D@ATL@@@@@ATL@@QAEAAV01@ABV?$CSimpleStringT@D$00@1@@Z
  0058e	6a 7f		 push	 127			; 0000007fH
  00590	8d 8d dc fe ff
	ff		 lea	 ecx, DWORD PTR _strData$[ebp]
  00596	ff 15 00 00 00
	00		 call	 DWORD PTR __imp_??Y?$CStringT@DV?$StrTraitMFC_DLL@DV?$ChTraitsCRT@D@ATL@@@@@ATL@@QAEAAV01@D@Z
  0059c	8d 85 c8 fe ff
	ff		 lea	 eax, DWORD PTR _stNextData$[ebp]
  005a2	50		 push	 eax
  005a3	8d 8d dc fe ff
	ff		 lea	 ecx, DWORD PTR _strData$[ebp]
  005a9	ff 15 00 00 00
	00		 call	 DWORD PTR __imp_??Y?$CStringT@DV?$StrTraitMFC_DLL@DV?$ChTraitsCRT@D@ATL@@@@@ATL@@QAEAAV01@ABV?$CSimpleStringT@D$00@1@@Z
  005af	6a 09		 push	 9
  005b1	8d 8d dc fe ff
	ff		 lea	 ecx, DWORD PTR _strData$[ebp]
  005b7	ff 15 00 00 00
	00		 call	 DWORD PTR __imp_??Y?$CStringT@DV?$StrTraitMFC_DLL@DV?$ChTraitsCRT@D@ATL@@@@@ATL@@QAEAAV01@D@Z

; 106  : 		
; 107  : 		strData += "31301";

  005bd	68 00 00 00 00	 push	 OFFSET ??_C@_05FADKAPAE@31301@
  005c2	8d 8d dc fe ff
	ff		 lea	 ecx, DWORD PTR _strData$[ebp]
  005c8	ff 15 00 00 00
	00		 call	 DWORD PTR __imp_??Y?$CStringT@DV?$StrTraitMFC_DLL@DV?$ChTraitsCRT@D@ATL@@@@@ATL@@QAEAAV01@PBD@Z

; 108  : 		strData += sCELL;

  005ce	6a 09		 push	 9
  005d0	8d 8d dc fe ff
	ff		 lea	 ecx, DWORD PTR _strData$[ebp]
  005d6	ff 15 00 00 00
	00		 call	 DWORD PTR __imp_??Y?$CStringT@DV?$StrTraitMFC_DLL@DV?$ChTraitsCRT@D@ATL@@@@@ATL@@QAEAAV01@D@Z

; 109  : 		strData += "31900";

  005dc	68 00 00 00 00	 push	 OFFSET ??_C@_05CGJMNOCB@31900@
  005e1	8d 8d dc fe ff
	ff		 lea	 ecx, DWORD PTR _strData$[ebp]
  005e7	ff 15 00 00 00
	00		 call	 DWORD PTR __imp_??Y?$CStringT@DV?$StrTraitMFC_DLL@DV?$ChTraitsCRT@D@ATL@@@@@ATL@@QAEAAV01@PBD@Z

; 110  : 		strData += sCELL;

  005ed	6a 09		 push	 9
  005ef	8d 8d dc fe ff
	ff		 lea	 ecx, DWORD PTR _strData$[ebp]
  005f5	ff 15 00 00 00
	00		 call	 DWORD PTR __imp_??Y?$CStringT@DV?$StrTraitMFC_DLL@DV?$ChTraitsCRT@D@ATL@@@@@ATL@@QAEAAV01@D@Z

; 111  : 		strData += "31901";

  005fb	68 00 00 00 00	 push	 OFFSET ??_C@_05DPIHOPGA@31901@

; 112  : 		strData += sCELL;
; 113  : 	}

  00600	e9 74 01 00 00	 jmp	 $LN117@Convert
$LN23@Convert:

; 114  : 	else if(m_nFutOpt == OPTION)

  00605	83 f8 02	 cmp	 eax, 2
  00608	0f 85 b8 00 00
	00		 jne	 $LN25@Convert

; 115  : 	{
; 116  : 		stRowData = _T("?42500");

  0060e	68 00 00 00 00	 push	 OFFSET ??_C@_06EEGKIAJH@?$DP42500@
  00613	ff 15 00 00 00
	00		 call	 DWORD PTR __imp_??4?$CStringT@DV?$StrTraitMFC_DLL@DV?$ChTraitsCRT@D@ATL@@@@@ATL@@QAEAAV01@PBD@Z

; 117  : 		stNextKey = "42324";

  00619	68 00 00 00 00	 push	 OFFSET ??_C@_05HEGMGFEH@42324@
  0061e	8d 8d cc fe ff
	ff		 lea	 ecx, DWORD PTR _stNextKey$[ebp]
  00624	ff 15 00 00 00
	00		 call	 DWORD PTR __imp_??4?$CStringT@DV?$StrTraitMFC_DLL@DV?$ChTraitsCRT@D@ATL@@@@@ATL@@QAEAAV01@PBD@Z

; 118  : 		stNextData.Format("%28.28s",m_InData.nkey );

  0062a	57		 push	 edi
  0062b	8d 85 c8 fe ff
	ff		 lea	 eax, DWORD PTR _stNextData$[ebp]
  00631	68 00 00 00 00	 push	 OFFSET ??_C@_07PGCHECEN@?$CF28?428s@
  00636	50		 push	 eax
  00637	ff d6		 call	 esi
  00639	83 c4 0c	 add	 esp, 12			; 0000000cH

; 119  : 		strData += stNextKey; strData += sDS;	strData += stNextData;	strData += sCELL; // 넥스트 키값 : KHD 

  0063c	8d 85 cc fe ff
	ff		 lea	 eax, DWORD PTR _stNextKey$[ebp]
  00642	8d 8d dc fe ff
	ff		 lea	 ecx, DWORD PTR _strData$[ebp]
  00648	50		 push	 eax
  00649	ff 15 00 00 00
	00		 call	 DWORD PTR __imp_??Y?$CStringT@DV?$StrTraitMFC_DLL@DV?$ChTraitsCRT@D@ATL@@@@@ATL@@QAEAAV01@ABV?$CSimpleStringT@D$00@1@@Z
  0064f	6a 7f		 push	 127			; 0000007fH
  00651	8d 8d dc fe ff
	ff		 lea	 ecx, DWORD PTR _strData$[ebp]
  00657	ff 15 00 00 00
	00		 call	 DWORD PTR __imp_??Y?$CStringT@DV?$StrTraitMFC_DLL@DV?$ChTraitsCRT@D@ATL@@@@@ATL@@QAEAAV01@D@Z
  0065d	8d 85 c8 fe ff
	ff		 lea	 eax, DWORD PTR _stNextData$[ebp]
  00663	50		 push	 eax
  00664	8d 8d dc fe ff
	ff		 lea	 ecx, DWORD PTR _strData$[ebp]
  0066a	ff 15 00 00 00
	00		 call	 DWORD PTR __imp_??Y?$CStringT@DV?$StrTraitMFC_DLL@DV?$ChTraitsCRT@D@ATL@@@@@ATL@@QAEAAV01@ABV?$CSimpleStringT@D$00@1@@Z
  00670	6a 09		 push	 9
  00672	8d 8d dc fe ff
	ff		 lea	 ecx, DWORD PTR _strData$[ebp]
  00678	ff 15 00 00 00
	00		 call	 DWORD PTR __imp_??Y?$CStringT@DV?$StrTraitMFC_DLL@DV?$ChTraitsCRT@D@ATL@@@@@ATL@@QAEAAV01@D@Z

; 120  : 		
; 121  : 		strData += "41301";

  0067e	68 00 00 00 00	 push	 OFFSET ??_C@_05ENDPDPLM@41301@
  00683	8d 8d dc fe ff
	ff		 lea	 ecx, DWORD PTR _strData$[ebp]
  00689	ff 15 00 00 00
	00		 call	 DWORD PTR __imp_??Y?$CStringT@DV?$StrTraitMFC_DLL@DV?$ChTraitsCRT@D@ATL@@@@@ATL@@QAEAAV01@PBD@Z

; 122  : 		strData += sCELL;

  0068f	6a 09		 push	 9
  00691	8d 8d dc fe ff
	ff		 lea	 ecx, DWORD PTR _strData$[ebp]
  00697	ff 15 00 00 00
	00		 call	 DWORD PTR __imp_??Y?$CStringT@DV?$StrTraitMFC_DLL@DV?$ChTraitsCRT@D@ATL@@@@@ATL@@QAEAAV01@D@Z

; 123  : 		strData += "41900";

  0069d	68 00 00 00 00	 push	 OFFSET ??_C@_05DLJJOOJJ@41900@
  006a2	8d 8d dc fe ff
	ff		 lea	 ecx, DWORD PTR _strData$[ebp]
  006a8	ff 15 00 00 00
	00		 call	 DWORD PTR __imp_??Y?$CStringT@DV?$StrTraitMFC_DLL@DV?$ChTraitsCRT@D@ATL@@@@@ATL@@QAEAAV01@PBD@Z

; 124  : 		strData += sCELL;

  006ae	6a 09		 push	 9
  006b0	8d 8d dc fe ff
	ff		 lea	 ecx, DWORD PTR _strData$[ebp]
  006b6	ff 15 00 00 00
	00		 call	 DWORD PTR __imp_??Y?$CStringT@DV?$StrTraitMFC_DLL@DV?$ChTraitsCRT@D@ATL@@@@@ATL@@QAEAAV01@D@Z

; 125  : 		strData += "41901";

  006bc	68 00 00 00 00	 push	 OFFSET ??_C@_05CCICNPNI@41901@

; 126  : 		strData += sCELL;
; 127  : 	}

  006c1	e9 b3 00 00 00	 jmp	 $LN117@Convert
$LN25@Convert:

; 128  : 	else//주식일경우 
; 129  : 	{
; 130  : 		stRowData = _T("?2500");

  006c6	68 00 00 00 00	 push	 OFFSET ??_C@_05FMCINLDC@?$DP2500@
  006cb	ff 15 00 00 00
	00		 call	 DWORD PTR __imp_??4?$CStringT@DV?$StrTraitMFC_DLL@DV?$ChTraitsCRT@D@ATL@@@@@ATL@@QAEAAV01@PBD@Z

; 131  : 		stNextKey = "2324";

  006d1	68 00 00 00 00	 push	 OFFSET ??_C@_04JMGHHGEC@2324@
  006d6	8d 8d cc fe ff
	ff		 lea	 ecx, DWORD PTR _stNextKey$[ebp]
  006dc	ff 15 00 00 00
	00		 call	 DWORD PTR __imp_??4?$CStringT@DV?$StrTraitMFC_DLL@DV?$ChTraitsCRT@D@ATL@@@@@ATL@@QAEAAV01@PBD@Z

; 132  : 		stNextData.Format("%28.28s",m_InData.nkey );

  006e2	57		 push	 edi
  006e3	8d 85 c8 fe ff
	ff		 lea	 eax, DWORD PTR _stNextData$[ebp]
  006e9	68 00 00 00 00	 push	 OFFSET ??_C@_07PGCHECEN@?$CF28?428s@
  006ee	50		 push	 eax
  006ef	ff d6		 call	 esi
  006f1	83 c4 0c	 add	 esp, 12			; 0000000cH

; 133  : 		strData += stNextKey; strData += sDS;	strData += stNextData;	strData += sCELL; // 넥스트 키값 : KHD 

  006f4	8d 85 cc fe ff
	ff		 lea	 eax, DWORD PTR _stNextKey$[ebp]
  006fa	8d 8d dc fe ff
	ff		 lea	 ecx, DWORD PTR _strData$[ebp]
  00700	50		 push	 eax
  00701	ff 15 00 00 00
	00		 call	 DWORD PTR __imp_??Y?$CStringT@DV?$StrTraitMFC_DLL@DV?$ChTraitsCRT@D@ATL@@@@@ATL@@QAEAAV01@ABV?$CSimpleStringT@D$00@1@@Z
  00707	6a 7f		 push	 127			; 0000007fH
  00709	8d 8d dc fe ff
	ff		 lea	 ecx, DWORD PTR _strData$[ebp]
  0070f	ff 15 00 00 00
	00		 call	 DWORD PTR __imp_??Y?$CStringT@DV?$StrTraitMFC_DLL@DV?$ChTraitsCRT@D@ATL@@@@@ATL@@QAEAAV01@D@Z
  00715	8d 85 c8 fe ff
	ff		 lea	 eax, DWORD PTR _stNextData$[ebp]
  0071b	50		 push	 eax
  0071c	8d 8d dc fe ff
	ff		 lea	 ecx, DWORD PTR _strData$[ebp]
  00722	ff 15 00 00 00
	00		 call	 DWORD PTR __imp_??Y?$CStringT@DV?$StrTraitMFC_DLL@DV?$ChTraitsCRT@D@ATL@@@@@ATL@@QAEAAV01@ABV?$CSimpleStringT@D$00@1@@Z
  00728	6a 09		 push	 9
  0072a	8d 8d dc fe ff
	ff		 lea	 ecx, DWORD PTR _strData$[ebp]
  00730	ff 15 00 00 00
	00		 call	 DWORD PTR __imp_??Y?$CStringT@DV?$StrTraitMFC_DLL@DV?$ChTraitsCRT@D@ATL@@@@@ATL@@QAEAAV01@D@Z

; 134  : 		
; 135  : 		strData += "1301";

  00736	68 00 00 00 00	 push	 OFFSET ??_C@_04KFDECMLJ@1301@
  0073b	8d 8d dc fe ff
	ff		 lea	 ecx, DWORD PTR _strData$[ebp]
  00741	ff 15 00 00 00
	00		 call	 DWORD PTR __imp_??Y?$CStringT@DV?$StrTraitMFC_DLL@DV?$ChTraitsCRT@D@ATL@@@@@ATL@@QAEAAV01@PBD@Z

; 136  : 		strData += sCELL;

  00747	6a 09		 push	 9
  00749	8d 8d dc fe ff
	ff		 lea	 ecx, DWORD PTR _strData$[ebp]
  0074f	ff 15 00 00 00
	00		 call	 DWORD PTR __imp_??Y?$CStringT@DV?$StrTraitMFC_DLL@DV?$ChTraitsCRT@D@ATL@@@@@ATL@@QAEAAV01@D@Z

; 137  : 		strData += "1900";

  00755	68 00 00 00 00	 push	 OFFSET ??_C@_04NDJCPNJM@1900@
  0075a	8d 8d dc fe ff
	ff		 lea	 ecx, DWORD PTR _strData$[ebp]
  00760	ff 15 00 00 00
	00		 call	 DWORD PTR __imp_??Y?$CStringT@DV?$StrTraitMFC_DLL@DV?$ChTraitsCRT@D@ATL@@@@@ATL@@QAEAAV01@PBD@Z

; 138  : 		strData += sCELL;

  00766	6a 09		 push	 9
  00768	8d 8d dc fe ff
	ff		 lea	 ecx, DWORD PTR _strData$[ebp]
  0076e	ff 15 00 00 00
	00		 call	 DWORD PTR __imp_??Y?$CStringT@DV?$StrTraitMFC_DLL@DV?$ChTraitsCRT@D@ATL@@@@@ATL@@QAEAAV01@D@Z

; 139  : 		strData += "1901";

  00774	68 00 00 00 00	 push	 OFFSET ??_C@_04MKIJMMNN@1901@
$LN117@Convert:

; 140  : 		strData += sCELL;
; 141  : 	}
; 142  : 
; 143  : 	strData += stNextKey;

  00779	8d 8d dc fe ff
	ff		 lea	 ecx, DWORD PTR _strData$[ebp]
  0077f	ff 15 00 00 00
	00		 call	 DWORD PTR __imp_??Y?$CStringT@DV?$StrTraitMFC_DLL@DV?$ChTraitsCRT@D@ATL@@@@@ATL@@QAEAAV01@PBD@Z
  00785	6a 09		 push	 9
  00787	8d 8d dc fe ff
	ff		 lea	 ecx, DWORD PTR _strData$[ebp]
  0078d	ff 15 00 00 00
	00		 call	 DWORD PTR __imp_??Y?$CStringT@DV?$StrTraitMFC_DLL@DV?$ChTraitsCRT@D@ATL@@@@@ATL@@QAEAAV01@D@Z
  00793	8d 85 cc fe ff
	ff		 lea	 eax, DWORD PTR _stNextKey$[ebp]
  00799	50		 push	 eax
  0079a	8d 8d dc fe ff
	ff		 lea	 ecx, DWORD PTR _strData$[ebp]
  007a0	ff 15 00 00 00
	00		 call	 DWORD PTR __imp_??Y?$CStringT@DV?$StrTraitMFC_DLL@DV?$ChTraitsCRT@D@ATL@@@@@ATL@@QAEAAV01@ABV?$CSimpleStringT@D$00@1@@Z

; 144  : 	strData += sCELL;

  007a6	6a 09		 push	 9
  007a8	8d 8d dc fe ff
	ff		 lea	 ecx, DWORD PTR _strData$[ebp]
  007ae	ff 15 00 00 00
	00		 call	 DWORD PTR __imp_??Y?$CStringT@DV?$StrTraitMFC_DLL@DV?$ChTraitsCRT@D@ATL@@@@@ATL@@QAEAAV01@D@Z

; 145  : 
; 146  : 	//////////////////////////////////////////////////////////////////////////
; 147  : 	// Row Data 구성
; 148  : 	strData += stRowData;

  007b4	8d 85 b8 fe ff
	ff		 lea	 eax, DWORD PTR _stRowData$[ebp]
  007ba	50		 push	 eax
  007bb	8d 8d dc fe ff
	ff		 lea	 ecx, DWORD PTR _strData$[ebp]
  007c1	ff 15 00 00 00
	00		 call	 DWORD PTR __imp_??Y?$CStringT@DV?$StrTraitMFC_DLL@DV?$ChTraitsCRT@D@ATL@@@@@ATL@@QAEAAV01@ABV?$CSimpleStringT@D$00@1@@Z

; 149  : 	strData += sDS;

  007c7	6a 7f		 push	 127			; 0000007fH
  007c9	8d 8d dc fe ff
	ff		 lea	 ecx, DWORD PTR _strData$[ebp]
  007cf	ff 15 00 00 00
	00		 call	 DWORD PTR __imp_??Y?$CStringT@DV?$StrTraitMFC_DLL@DV?$ChTraitsCRT@D@ATL@@@@@ATL@@QAEAAV01@D@Z

; 150  : 	
; 151  : 	CString temp;

  007d5	8d 8d bc fe ff
	ff		 lea	 ecx, DWORD PTR _temp$[ebp]
  007db	ff 15 00 00 00
	00		 call	 DWORD PTR __imp_??0?$CStringT@DV?$StrTraitMFC_DLL@DV?$ChTraitsCRT@D@ATL@@@@@ATL@@QAE@XZ

; 152  : 	//조회데이터 수 
; 153  : 	int GrpHLen = 0;
; 154  : 	temp.Format("%06d", 5000);

  007e1	68 88 13 00 00	 push	 5000			; 00001388H
  007e6	8d 85 bc fe ff
	ff		 lea	 eax, DWORD PTR _temp$[ebp]
  007ec	c6 45 fc 10	 mov	 BYTE PTR __$EHRec$[ebp+8], 16 ; 00000010H
  007f0	68 00 00 00 00	 push	 OFFSET ??_C@_04OBKAGHLG@?$CF06d@
  007f5	50		 push	 eax
  007f6	ff d6		 call	 esi

; 155  : 	CopyMemory(Datah.count, temp, temp.GetLength());

  007f8	8b 85 bc fe ff
	ff		 mov	 eax, DWORD PTR _temp$[ebp]
  007fe	ff 70 f4	 push	 DWORD PTR [eax-12]
  00801	50		 push	 eax
  00802	8d 85 e0 fe ff
	ff		 lea	 eax, DWORD PTR _Datah$[ebp]
  00808	50		 push	 eax
  00809	e8 00 00 00 00	 call	 _memcpy

; 156  : 	Datah.dkey = 0 + 0x30;
; 157  : 	//CString strDate	= CDataConverter::Char2String(m_InData.date, sizeof(m_InData.date));
; 158  : 	//CopyMemory(Datah.pday, strDate, strDate.GetLength());
; 159  : 	
; 160  : 	temp.Format("%0*d", sizeof(Datah.lgap), 1);// 1틱 

  0080e	6a 01		 push	 1
  00810	6a 04		 push	 4
  00812	8d 85 bc fe ff
	ff		 lea	 eax, DWORD PTR _temp$[ebp]
  00818	c6 85 ed fe ff
	ff 30		 mov	 BYTE PTR _Datah$[ebp+13], 48 ; 00000030H
  0081f	68 00 00 00 00	 push	 OFFSET ??_C@_04PEJMDNKC@?$CF0?$CKd@
  00824	50		 push	 eax
  00825	ff d6		 call	 esi

; 161  : 	CopyMemory(Datah.lgap, temp, temp.GetLength() );

  00827	8b 85 bc fe ff
	ff		 mov	 eax, DWORD PTR _temp$[ebp]
  0082d	ff 70 f4	 push	 DWORD PTR [eax-12]
  00830	50		 push	 eax
  00831	8d 85 f8 fe ff
	ff		 lea	 eax, DWORD PTR _Datah$[ebp+24]
  00837	50		 push	 eax
  00838	e8 00 00 00 00	 call	 _memcpy
  0083d	83 c4 34	 add	 esp, 52			; 00000034H

; 162  : 	
; 163  : 	char szData_i[sz_DATAH];
; 164  : 	memset(szData_i, 0x20, sz_DATAH);//sizeof(Datah));
; 165  : 	CopyMemory(szData_i, (char*)&Datah, sz_DATAH);//sizeof(Datah));

  00840	8d b5 e0 fe ff
	ff		 lea	 esi, DWORD PTR _Datah$[ebp]
  00846	b9 22 00 00 00	 mov	 ecx, 34			; 00000022H
  0084b	8d bd 68 ff ff
	ff		 lea	 edi, DWORD PTR _szData_i$[ebp]
  00851	f3 a5		 rep movsd

; 166  : 	szData_i[sz_DATAH-1] = 0x00; // KHD : 맨끝에 0x00문자를 집어 넣는다.
; 167  : 	strData += szData_i;

  00853	8d 85 68 ff ff
	ff		 lea	 eax, DWORD PTR _szData_i$[ebp]
  00859	c6 45 ef 00	 mov	 BYTE PTR _szData_i$[ebp+135], 0
  0085d	50		 push	 eax
  0085e	8d 8d dc fe ff
	ff		 lea	 ecx, DWORD PTR _strData$[ebp]
  00864	ff 15 00 00 00
	00		 call	 DWORD PTR __imp_??Y?$CStringT@DV?$StrTraitMFC_DLL@DV?$ChTraitsCRT@D@ATL@@@@@ATL@@QAEAAV01@PBD@Z

; 168  : 	for (i=0; i<m_nRepColCnt; i++)

  0086a	33 f6		 xor	 esi, esi
  0086c	39 73 44	 cmp	 DWORD PTR [ebx+68], esi
  0086f	7e 53		 jle	 SHORT $LN3@Convert
$LL4@Convert:

; 169  : 	{
; 170  : 		if (m_nFutOpt == FUTURE)	strData += "32";

  00871	8b 43 3c	 mov	 eax, DWORD PTR [ebx+60]
  00874	83 f8 01	 cmp	 eax, 1
  00877	75 07		 jne	 SHORT $LN27@Convert
  00879	68 00 00 00 00	 push	 OFFSET ??_C@_02MLODCJFF@32@
  0087e	eb 11		 jmp	 SHORT $LN118@Convert
$LN27@Convert:

; 171  : 		else if(m_nFutOpt == OPTION) strData += "42";

  00880	83 f8 02	 cmp	 eax, 2
  00883	75 07		 jne	 SHORT $LN29@Convert
  00885	68 00 00 00 00	 push	 OFFSET ??_C@_02MOKMDPNA@42@
  0088a	eb 05		 jmp	 SHORT $LN118@Convert
$LN29@Convert:

; 172  : 		else			strData += "5";

  0088c	68 00 00 00 00	 push	 OFFSET ??_C@_01BMBHCPLG@5@
$LN118@Convert:

; 173  : 
; 174  : 		strData += szReplayRowField[i];

  00891	8d 8d dc fe ff
	ff		 lea	 ecx, DWORD PTR _strData$[ebp]
  00897	ff 15 00 00 00
	00		 call	 DWORD PTR __imp_??Y?$CStringT@DV?$StrTraitMFC_DLL@DV?$ChTraitsCRT@D@ATL@@@@@ATL@@QAEAAV01@PBD@Z
  0089d	ff 34 b5 00 00
	00 00		 push	 DWORD PTR ?szReplayRowField@@3PAPADA[esi*4]
  008a4	8d 8d dc fe ff
	ff		 lea	 ecx, DWORD PTR _strData$[ebp]
  008aa	ff 15 00 00 00
	00		 call	 DWORD PTR __imp_??Y?$CStringT@DV?$StrTraitMFC_DLL@DV?$ChTraitsCRT@D@ATL@@@@@ATL@@QAEAAV01@PBD@Z

; 175  : 		strData += sCOL;

  008b0	6a 0a		 push	 10			; 0000000aH
  008b2	8d 8d dc fe ff
	ff		 lea	 ecx, DWORD PTR _strData$[ebp]
  008b8	ff 15 00 00 00
	00		 call	 DWORD PTR __imp_??Y?$CStringT@DV?$StrTraitMFC_DLL@DV?$ChTraitsCRT@D@ATL@@@@@ATL@@QAEAAV01@D@Z
  008be	46		 inc	 esi
  008bf	3b 73 44	 cmp	 esi, DWORD PTR [ebx+68]
  008c2	7c ad		 jl	 SHORT $LL4@Convert
$LN3@Convert:

; 176  : 	}
; 177  : 	strData += sCELL;

  008c4	6a 09		 push	 9
  008c6	8d 8d dc fe ff
	ff		 lea	 ecx, DWORD PTR _strData$[ebp]
  008cc	ff 15 00 00 00
	00		 call	 DWORD PTR __imp_??Y?$CStringT@DV?$StrTraitMFC_DLL@DV?$ChTraitsCRT@D@ATL@@@@@ATL@@QAEAAV01@D@Z

; 178  : 
; 179  : 	return strData;

  008d2	8b 8d a0 fe ff
	ff		 mov	 ecx, DWORD PTR ___$ReturnUdt$GSCopy$1$[ebp]
  008d8	8d 85 dc fe ff
	ff		 lea	 eax, DWORD PTR _strData$[ebp]
  008de	50		 push	 eax
  008df	ff 15 00 00 00
	00		 call	 DWORD PTR __imp_??0?$CStringT@DV?$StrTraitMFC_DLL@DV?$ChTraitsCRT@D@ATL@@@@@ATL@@QAE@ABV01@@Z
  008e5	8d 8d bc fe ff
	ff		 lea	 ecx, DWORD PTR _temp$[ebp]
  008eb	ff 15 00 00 00
	00		 call	 DWORD PTR __imp_??1?$CStringT@DV?$StrTraitMFC_DLL@DV?$ChTraitsCRT@D@ATL@@@@@ATL@@QAE@XZ
  008f1	8d 8d cc fe ff
	ff		 lea	 ecx, DWORD PTR _stNextKey$[ebp]
  008f7	ff 15 00 00 00
	00		 call	 DWORD PTR __imp_??1?$CStringT@DV?$StrTraitMFC_DLL@DV?$ChTraitsCRT@D@ATL@@@@@ATL@@QAE@XZ
  008fd	8d 8d c8 fe ff
	ff		 lea	 ecx, DWORD PTR _stNextData$[ebp]
  00903	ff 15 00 00 00
	00		 call	 DWORD PTR __imp_??1?$CStringT@DV?$StrTraitMFC_DLL@DV?$ChTraitsCRT@D@ATL@@@@@ATL@@QAE@XZ
  00909	8d 8d b8 fe ff
	ff		 lea	 ecx, DWORD PTR _stRowData$[ebp]
  0090f	ff 15 00 00 00
	00		 call	 DWORD PTR __imp_??1?$CStringT@DV?$StrTraitMFC_DLL@DV?$ChTraitsCRT@D@ATL@@@@@ATL@@QAE@XZ
  00915	8d 8d b4 fe ff
	ff		 lea	 ecx, DWORD PTR _strFirstTime$[ebp]
  0091b	ff 15 00 00 00
	00		 call	 DWORD PTR __imp_??1?$CStringT@DV?$StrTraitMFC_DLL@DV?$ChTraitsCRT@D@ATL@@@@@ATL@@QAE@XZ
  00921	8d 8d d0 fe ff
	ff		 lea	 ecx, DWORD PTR _strTemp$[ebp]
  00927	ff 15 00 00 00
	00		 call	 DWORD PTR __imp_??1?$CStringT@DV?$StrTraitMFC_DLL@DV?$ChTraitsCRT@D@ATL@@@@@ATL@@QAE@XZ
  0092d	8d 8d d4 fe ff
	ff		 lea	 ecx, DWORD PTR _strCode$[ebp]
  00933	ff 15 00 00 00
	00		 call	 DWORD PTR __imp_??1?$CStringT@DV?$StrTraitMFC_DLL@DV?$ChTraitsCRT@D@ATL@@@@@ATL@@QAE@XZ
  00939	8d 8d dc fe ff
	ff		 lea	 ecx, DWORD PTR _strData$[ebp]
  0093f	ff 15 00 00 00
	00		 call	 DWORD PTR __imp_??1?$CStringT@DV?$StrTraitMFC_DLL@DV?$ChTraitsCRT@D@ATL@@@@@ATL@@QAE@XZ
  00945	8b 85 a0 fe ff
	ff		 mov	 eax, DWORD PTR ___$ReturnUdt$GSCopy$1$[ebp]
$LN1@Convert:

; 180  : }

  0094b	8b 4d f4	 mov	 ecx, DWORD PTR __$EHRec$[ebp]
  0094e	64 89 0d 00 00
	00 00		 mov	 DWORD PTR fs:0, ecx
  00955	59		 pop	 ecx
  00956	5f		 pop	 edi
  00957	5e		 pop	 esi
  00958	5b		 pop	 ebx
  00959	8b 4d f0	 mov	 ecx, DWORD PTR __$ArrayPad$[ebp]
  0095c	33 cd		 xor	 ecx, ebp
  0095e	e8 00 00 00 00	 call	 @__security_check_cookie@4
  00963	8b e5		 mov	 esp, ebp
  00965	5d		 pop	 ebp
  00966	c2 04 00	 ret	 4
_TEXT	ENDS
;	COMDAT text$x
text$x	SEGMENT
__unwindfunclet$?Convert@CChartReplay@@QAE?AV?$CStringT@DV?$StrTraitMFC_DLL@DV?$ChTraitsCRT@D@ATL@@@@@ATL@@XZ$1:
  00000	8d 8d dc fe ff
	ff		 lea	 ecx, DWORD PTR _strData$[ebp]
  00006	ff 25 00 00 00
	00		 jmp	 DWORD PTR __imp_??1?$CStringT@DV?$StrTraitMFC_DLL@DV?$ChTraitsCRT@D@ATL@@@@@ATL@@QAE@XZ
__unwindfunclet$?Convert@CChartReplay@@QAE?AV?$CStringT@DV?$StrTraitMFC_DLL@DV?$ChTraitsCRT@D@ATL@@@@@ATL@@XZ$2:
  0000c	8d 8d d4 fe ff
	ff		 lea	 ecx, DWORD PTR _strCode$[ebp]
  00012	ff 25 00 00 00
	00		 jmp	 DWORD PTR __imp_??1?$CStringT@DV?$StrTraitMFC_DLL@DV?$ChTraitsCRT@D@ATL@@@@@ATL@@QAE@XZ
__unwindfunclet$?Convert@CChartReplay@@QAE?AV?$CStringT@DV?$StrTraitMFC_DLL@DV?$ChTraitsCRT@D@ATL@@@@@ATL@@XZ$3:
  00018	8d 8d d0 fe ff
	ff		 lea	 ecx, DWORD PTR _strTemp$[ebp]
  0001e	ff 25 00 00 00
	00		 jmp	 DWORD PTR __imp_??1?$CStringT@DV?$StrTraitMFC_DLL@DV?$ChTraitsCRT@D@ATL@@@@@ATL@@QAE@XZ
__unwindfunclet$?Convert@CChartReplay@@QAE?AV?$CStringT@DV?$StrTraitMFC_DLL@DV?$ChTraitsCRT@D@ATL@@@@@ATL@@XZ$4:
  00024	8d 8d b4 fe ff
	ff		 lea	 ecx, DWORD PTR _strFirstTime$[ebp]
  0002a	ff 25 00 00 00
	00		 jmp	 DWORD PTR __imp_??1?$CStringT@DV?$StrTraitMFC_DLL@DV?$ChTraitsCRT@D@ATL@@@@@ATL@@QAE@XZ
__unwindfunclet$?Convert@CChartReplay@@QAE?AV?$CStringT@DV?$StrTraitMFC_DLL@DV?$ChTraitsCRT@D@ATL@@@@@ATL@@XZ$5:
  00030	8d 8d b0 fe ff
	ff		 lea	 ecx, DWORD PTR $T7[ebp]
  00036	ff 25 00 00 00
	00		 jmp	 DWORD PTR __imp_??1?$CStringT@DV?$StrTraitMFC_DLL@DV?$ChTraitsCRT@D@ATL@@@@@ATL@@QAE@XZ
__unwindfunclet$?Convert@CChartReplay@@QAE?AV?$CStringT@DV?$StrTraitMFC_DLL@DV?$ChTraitsCRT@D@ATL@@@@@ATL@@XZ$6:
  0003c	8b 85 c4 fe ff
	ff		 mov	 eax, DWORD PTR $T11[ebp]
  00042	83 e0 02	 and	 eax, 2
  00045	0f 84 13 00 00
	00		 je	 $LN47@Convert
  0004b	83 a5 c4 fe ff
	ff fd		 and	 DWORD PTR $T11[ebp], -3	; fffffffdH
  00052	8d 8d a8 fe ff
	ff		 lea	 ecx, DWORD PTR $T4[ebp]
  00058	ff 25 00 00 00
	00		 jmp	 DWORD PTR __imp_??1?$CStringT@DV?$StrTraitMFC_DLL@DV?$ChTraitsCRT@D@ATL@@@@@ATL@@QAE@XZ
$LN47@Convert:
  0005e	c3		 ret	 0
__unwindfunclet$?Convert@CChartReplay@@QAE?AV?$CStringT@DV?$StrTraitMFC_DLL@DV?$ChTraitsCRT@D@ATL@@@@@ATL@@XZ$7:
  0005f	8b 85 c4 fe ff
	ff		 mov	 eax, DWORD PTR $T11[ebp]
  00065	83 e0 04	 and	 eax, 4
  00068	0f 84 13 00 00
	00		 je	 $LN49@Convert
  0006e	83 a5 c4 fe ff
	ff fb		 and	 DWORD PTR $T11[ebp], -5	; fffffffbH
  00075	8d 8d b0 fe ff
	ff		 lea	 ecx, DWORD PTR $T6[ebp]
  0007b	ff 25 00 00 00
	00		 jmp	 DWORD PTR __imp_??1?$CStringT@DV?$StrTraitMFC_DLL@DV?$ChTraitsCRT@D@ATL@@@@@ATL@@QAE@XZ
$LN49@Convert:
  00081	c3		 ret	 0
__unwindfunclet$?Convert@CChartReplay@@QAE?AV?$CStringT@DV?$StrTraitMFC_DLL@DV?$ChTraitsCRT@D@ATL@@@@@ATL@@XZ$8:
  00082	8b 85 c4 fe ff
	ff		 mov	 eax, DWORD PTR $T11[ebp]
  00088	83 e0 08	 and	 eax, 8
  0008b	0f 84 13 00 00
	00		 je	 $LN53@Convert
  00091	83 a5 c4 fe ff
	ff f7		 and	 DWORD PTR $T11[ebp], -9	; fffffff7H
  00098	8d 8d c0 fe ff
	ff		 lea	 ecx, DWORD PTR $T10[ebp]
  0009e	ff 25 00 00 00
	00		 jmp	 DWORD PTR __imp_??1?$CStringT@DV?$StrTraitMFC_DLL@DV?$ChTraitsCRT@D@ATL@@@@@ATL@@QAE@XZ
$LN53@Convert:
  000a4	c3		 ret	 0
__unwindfunclet$?Convert@CChartReplay@@QAE?AV?$CStringT@DV?$StrTraitMFC_DLL@DV?$ChTraitsCRT@D@ATL@@@@@ATL@@XZ$9:
  000a5	8b 85 c4 fe ff
	ff		 mov	 eax, DWORD PTR $T11[ebp]
  000ab	83 e0 10	 and	 eax, 16			; 00000010H
  000ae	0f 84 13 00 00
	00		 je	 $LN55@Convert
  000b4	83 a5 c4 fe ff
	ff ef		 and	 DWORD PTR $T11[ebp], -17 ; ffffffefH
  000bb	8d 8d a4 fe ff
	ff		 lea	 ecx, DWORD PTR $T2[ebp]
  000c1	ff 25 00 00 00
	00		 jmp	 DWORD PTR __imp_??1?$CStringT@DV?$StrTraitMFC_DLL@DV?$ChTraitsCRT@D@ATL@@@@@ATL@@QAE@XZ
$LN55@Convert:
  000c7	c3		 ret	 0
__unwindfunclet$?Convert@CChartReplay@@QAE?AV?$CStringT@DV?$StrTraitMFC_DLL@DV?$ChTraitsCRT@D@ATL@@@@@ATL@@XZ$10:
  000c8	8b 85 c4 fe ff
	ff		 mov	 eax, DWORD PTR $T11[ebp]
  000ce	83 e0 20	 and	 eax, 32			; 00000020H
  000d1	0f 84 13 00 00
	00		 je	 $LN57@Convert
  000d7	83 a5 c4 fe ff
	ff df		 and	 DWORD PTR $T11[ebp], -33 ; ffffffdfH
  000de	8d 8d b0 fe ff
	ff		 lea	 ecx, DWORD PTR $T5[ebp]
  000e4	ff 25 00 00 00
	00		 jmp	 DWORD PTR __imp_??1?$CStringT@DV?$StrTraitMFC_DLL@DV?$ChTraitsCRT@D@ATL@@@@@ATL@@QAE@XZ
$LN57@Convert:
  000ea	c3		 ret	 0
__unwindfunclet$?Convert@CChartReplay@@QAE?AV?$CStringT@DV?$StrTraitMFC_DLL@DV?$ChTraitsCRT@D@ATL@@@@@ATL@@XZ$11:
  000eb	8b 85 c4 fe ff
	ff		 mov	 eax, DWORD PTR $T11[ebp]
  000f1	83 e0 40	 and	 eax, 64			; 00000040H
  000f4	0f 84 13 00 00
	00		 je	 $LN59@Convert
  000fa	83 a5 c4 fe ff
	ff bf		 and	 DWORD PTR $T11[ebp], -65 ; ffffffbfH
  00101	8d 8d a8 fe ff
	ff		 lea	 ecx, DWORD PTR $T3[ebp]
  00107	ff 25 00 00 00
	00		 jmp	 DWORD PTR __imp_??1?$CStringT@DV?$StrTraitMFC_DLL@DV?$ChTraitsCRT@D@ATL@@@@@ATL@@QAE@XZ
$LN59@Convert:
  0010d	c3		 ret	 0
__unwindfunclet$?Convert@CChartReplay@@QAE?AV?$CStringT@DV?$StrTraitMFC_DLL@DV?$ChTraitsCRT@D@ATL@@@@@ATL@@XZ$12:
  0010e	8d 8d c0 fe ff
	ff		 lea	 ecx, DWORD PTR $T9[ebp]
  00114	ff 25 00 00 00
	00		 jmp	 DWORD PTR __imp_??1?$CStringT@DV?$StrTraitMFC_DLL@DV?$ChTraitsCRT@D@ATL@@@@@ATL@@QAE@XZ
__unwindfunclet$?Convert@CChartReplay@@QAE?AV?$CStringT@DV?$StrTraitMFC_DLL@DV?$ChTraitsCRT@D@ATL@@@@@ATL@@XZ$13:
  0011a	8d 8d c0 fe ff
	ff		 lea	 ecx, DWORD PTR $T8[ebp]
  00120	ff 25 00 00 00
	00		 jmp	 DWORD PTR __imp_??1?$CStringT@DV?$StrTraitMFC_DLL@DV?$ChTraitsCRT@D@ATL@@@@@ATL@@QAE@XZ
__unwindfunclet$?Convert@CChartReplay@@QAE?AV?$CStringT@DV?$StrTraitMFC_DLL@DV?$ChTraitsCRT@D@ATL@@@@@ATL@@XZ$14:
  00126	8d 8d b8 fe ff
	ff		 lea	 ecx, DWORD PTR _stRowData$[ebp]
  0012c	ff 25 00 00 00
	00		 jmp	 DWORD PTR __imp_??1?$CStringT@DV?$StrTraitMFC_DLL@DV?$ChTraitsCRT@D@ATL@@@@@ATL@@QAE@XZ
__unwindfunclet$?Convert@CChartReplay@@QAE?AV?$CStringT@DV?$StrTraitMFC_DLL@DV?$ChTraitsCRT@D@ATL@@@@@ATL@@XZ$15:
  00132	8d 8d c8 fe ff
	ff		 lea	 ecx, DWORD PTR _stNextData$[ebp]
  00138	ff 25 00 00 00
	00		 jmp	 DWORD PTR __imp_??1?$CStringT@DV?$StrTraitMFC_DLL@DV?$ChTraitsCRT@D@ATL@@@@@ATL@@QAE@XZ
__unwindfunclet$?Convert@CChartReplay@@QAE?AV?$CStringT@DV?$StrTraitMFC_DLL@DV?$ChTraitsCRT@D@ATL@@@@@ATL@@XZ$16:
  0013e	8d 8d cc fe ff
	ff		 lea	 ecx, DWORD PTR _stNextKey$[ebp]
  00144	ff 25 00 00 00
	00		 jmp	 DWORD PTR __imp_??1?$CStringT@DV?$StrTraitMFC_DLL@DV?$ChTraitsCRT@D@ATL@@@@@ATL@@QAE@XZ
__unwindfunclet$?Convert@CChartReplay@@QAE?AV?$CStringT@DV?$StrTraitMFC_DLL@DV?$ChTraitsCRT@D@ATL@@@@@ATL@@XZ$17:
  0014a	8d 8d bc fe ff
	ff		 lea	 ecx, DWORD PTR _temp$[ebp]
  00150	ff 25 00 00 00
	00		 jmp	 DWORD PTR __imp_??1?$CStringT@DV?$StrTraitMFC_DLL@DV?$ChTraitsCRT@D@ATL@@@@@ATL@@QAE@XZ
  00156	cc		 int	 3
  00157	cc		 int	 3
  00158	cc		 int	 3
  00159	cc		 int	 3
  0015a	cc		 int	 3
__ehhandler$?Convert@CChartReplay@@QAE?AV?$CStringT@DV?$StrTraitMFC_DLL@DV?$ChTraitsCRT@D@ATL@@@@@ATL@@XZ:
  0015b	90		 npad	 1
  0015c	90		 npad	 1
  0015d	8b 54 24 08	 mov	 edx, DWORD PTR [esp+8]
  00161	8d 42 0c	 lea	 eax, DWORD PTR [edx+12]
  00164	8b 8a 9c fe ff
	ff		 mov	 ecx, DWORD PTR [edx-356]
  0016a	33 c8		 xor	 ecx, eax
  0016c	e8 00 00 00 00	 call	 @__security_check_cookie@4
  00171	8b 4a fc	 mov	 ecx, DWORD PTR [edx-4]
  00174	33 c8		 xor	 ecx, eax
  00176	e8 00 00 00 00	 call	 @__security_check_cookie@4
  0017b	b8 00 00 00 00	 mov	 eax, OFFSET __ehfuncinfo$?Convert@CChartReplay@@QAE?AV?$CStringT@DV?$StrTraitMFC_DLL@DV?$ChTraitsCRT@D@ATL@@@@@ATL@@XZ
  00180	e9 00 00 00 00	 jmp	 ___CxxFrameHandler3
text$x	ENDS
?Convert@CChartReplay@@QAE?AV?$CStringT@DV?$StrTraitMFC_DLL@DV?$ChTraitsCRT@D@ATL@@@@@ATL@@XZ ENDP ; CChartReplay::Convert
; Function compile flags: /Ogtp
; File D:\git\src\IBK\IBK_DRFN\ProjSrc\SrcDrfn\DrCommon\PartnerMng\ChartReplay.cpp
;	COMDAT ?SetInData@CChartReplay@@QAEXPAUKB_d1016_InRec1@@@Z
_TEXT	SEGMENT
_pData$ = 8						; size = 4
?SetInData@CChartReplay@@QAEXPAUKB_d1016_InRec1@@@Z PROC ; CChartReplay::SetInData, COMDAT
; _this$ = ecx

; 35   : {

  00000	55		 push	 ebp
  00001	8b ec		 mov	 ebp, esp

; 36   : 	memcpy(&m_InData, pData, sizeof(KB_d1016_InRec1));

  00003	8b 45 08	 mov	 eax, DWORD PTR _pData$[ebp]
  00006	0f 10 00	 movups	 xmm0, XMMWORD PTR [eax]
  00009	0f 11 41 04	 movups	 XMMWORD PTR [ecx+4], xmm0
  0000d	0f 10 40 10	 movups	 xmm0, XMMWORD PTR [eax+16]
  00011	0f 11 41 14	 movups	 XMMWORD PTR [ecx+20], xmm0
  00015	0f 10 40 20	 movups	 xmm0, XMMWORD PTR [eax+32]
  00019	0f 11 41 24	 movups	 XMMWORD PTR [ecx+36], xmm0
  0001d	8b 40 30	 mov	 eax, DWORD PTR [eax+48]
  00020	89 41 34	 mov	 DWORD PTR [ecx+52], eax

; 37   : 	m_bSet = TRUE;

  00023	c6 41 38 01	 mov	 BYTE PTR [ecx+56], 1

; 38   : }

  00027	5d		 pop	 ebp
  00028	c2 04 00	 ret	 4
?SetInData@CChartReplay@@QAEXPAUKB_d1016_InRec1@@@Z ENDP ; CChartReplay::SetInData
_TEXT	ENDS
; Function compile flags: /Ogtp
; File D:\git\src\IBK\IBK_DRFN\ProjSrc\SrcDrfn\DrCommon\PartnerMng\ChartReplay.cpp
;	COMDAT ??1CChartReplay@@UAE@XZ
_TEXT	SEGMENT
??1CChartReplay@@UAE@XZ PROC				; CChartReplay::~CChartReplay, COMDAT
; _this$ = ecx

; 30   : {

  00000	c7 01 00 00 00
	00		 mov	 DWORD PTR [ecx], OFFSET ??_7CChartReplay@@6B@

; 31   : 
; 32   : }

  00006	c3		 ret	 0
??1CChartReplay@@UAE@XZ ENDP				; CChartReplay::~CChartReplay
_TEXT	ENDS
; Function compile flags: /Ogtp
; File D:\git\src\IBK\IBK_DRFN\ProjSrc\SrcDrfn\DrCommon\PartnerMng\ChartReplay.cpp
;	COMDAT ??0CChartReplay@@QAE@XZ
_TEXT	SEGMENT
??0CChartReplay@@QAE@XZ PROC				; CChartReplay::CChartReplay, COMDAT
; _this$ = ecx

; 22   : 	int nIndex=0;

  00000	33 c0		 xor	 eax, eax
  00002	c7 01 00 00 00
	00		 mov	 DWORD PTR [ecx], OFFSET ??_7CChartReplay@@6B@

; 23   : 	while (szReplayRowField[nIndex] != NULL)

  00008	39 05 00 00 00
	00		 cmp	 DWORD PTR ?szReplayRowField@@3PAPADA, eax
  0000e	74 0b		 je	 SHORT $LN9@CChartRepl
$LL2@CChartRepl:

; 24   : 		nIndex++;

  00010	40		 inc	 eax
  00011	83 3c 85 00 00
	00 00 00	 cmp	 DWORD PTR ?szReplayRowField@@3PAPADA[eax*4], 0
  00019	75 f5		 jne	 SHORT $LL2@CChartRepl
$LN9@CChartRepl:

; 25   : 
; 26   : 	m_nRepColCnt = nIndex;
; 27   : }

  0001b	89 41 44	 mov	 DWORD PTR [ecx+68], eax
  0001e	8b c1		 mov	 eax, ecx
  00020	c3		 ret	 0
??0CChartReplay@@QAE@XZ ENDP				; CChartReplay::CChartReplay
_TEXT	ENDS
; Function compile flags: /Ogtp
; File D:\git\src\IBK\IBK_DRFN\ProjSrc\SrcDrfn\Chart\commontr\TRDefine.h
;	COMDAT ??__ERMSG_GETSIGNAL_REAL@@YAXXZ
text$di	SEGMENT
??__ERMSG_GETSIGNAL_REAL@@YAXXZ PROC			; `dynamic initializer for 'RMSG_GETSIGNAL_REAL'', COMDAT

; 213  : const UINT RMSG_GETSIGNAL_REAL = ::RegisterWindowMessage(_T("RMSG_GETSIGNAL_REAL"));

  00000	68 00 00 00 00	 push	 OFFSET ??_C@_0BE@FJPKENOB@RMSG_GETSIGNAL_REAL@
  00005	ff 15 00 00 00
	00		 call	 DWORD PTR __imp__RegisterWindowMessageA@4
  0000b	a3 00 00 00 00	 mov	 DWORD PTR ?RMSG_GETSIGNAL_REAL@@3IB, eax
  00010	c3		 ret	 0
??__ERMSG_GETSIGNAL_REAL@@YAXXZ ENDP			; `dynamic initializer for 'RMSG_GETSIGNAL_REAL''
text$di	ENDS
; Function compile flags: /Ogtp
; File D:\git\src\IBK\IBK_DRFN\ProjSrc\SrcDrfn\inc\IBaseDefine.h
;	COMDAT ??__ERMSG_SETPCTRDATA@@YAXXZ
text$di	SEGMENT
??__ERMSG_SETPCTRDATA@@YAXXZ PROC			; `dynamic initializer for 'RMSG_SETPCTRDATA'', COMDAT

; 172  : const UINT RMSG_SETPCTRDATA = ::RegisterWindowMessage("RMSG_SETPCTRDATA");

  00000	68 00 00 00 00	 push	 OFFSET ??_C@_0BB@JPACFCL@RMSG_SETPCTRDATA@
  00005	ff 15 00 00 00
	00		 call	 DWORD PTR __imp__RegisterWindowMessageA@4
  0000b	a3 00 00 00 00	 mov	 DWORD PTR ?RMSG_SETPCTRDATA@@3IB, eax
  00010	c3		 ret	 0
??__ERMSG_SETPCTRDATA@@YAXXZ ENDP			; `dynamic initializer for 'RMSG_SETPCTRDATA''
text$di	ENDS
; Function compile flags: /Ogtp
; File D:\git\src\IBK\IBK_DRFN\ProjSrc\SrcDrfn\inc\IBaseDefine.h
;	COMDAT ??__ERMSG_GETPCTRDATA@@YAXXZ
text$di	SEGMENT
??__ERMSG_GETPCTRDATA@@YAXXZ PROC			; `dynamic initializer for 'RMSG_GETPCTRDATA'', COMDAT

; 171  : const UINT RMSG_GETPCTRDATA = ::RegisterWindowMessage("RMSG_GETPCTRDATA");

  00000	68 00 00 00 00	 push	 OFFSET ??_C@_0BB@GOOPDKI@RMSG_GETPCTRDATA@
  00005	ff 15 00 00 00
	00		 call	 DWORD PTR __imp__RegisterWindowMessageA@4
  0000b	a3 00 00 00 00	 mov	 DWORD PTR ?RMSG_GETPCTRDATA@@3IB, eax
  00010	c3		 ret	 0
??__ERMSG_GETPCTRDATA@@YAXXZ ENDP			; `dynamic initializer for 'RMSG_GETPCTRDATA''
text$di	ENDS
; Function compile flags: /Ogtp
; File D:\git\src\IBK\IBK_DRFN\ProjSrc\SrcDrfn\inc\IBaseDefine.h
;	COMDAT ??__ERMSG_INTERFACE@@YAXXZ
text$di	SEGMENT
??__ERMSG_INTERFACE@@YAXXZ PROC				; `dynamic initializer for 'RMSG_INTERFACE'', COMDAT

; 170  : const UINT RMSG_INTERFACE = ::RegisterWindowMessage("RMSG_INTERFACE");

  00000	68 00 00 00 00	 push	 OFFSET ??_C@_0P@BKKCOCLK@RMSG_INTERFACE@
  00005	ff 15 00 00 00
	00		 call	 DWORD PTR __imp__RegisterWindowMessageA@4
  0000b	a3 00 00 00 00	 mov	 DWORD PTR ?RMSG_INTERFACE@@3IB, eax
  00010	c3		 ret	 0
??__ERMSG_INTERFACE@@YAXXZ ENDP				; `dynamic initializer for 'RMSG_INTERFACE''
text$di	ENDS
; Function compile flags: /Ogtp
; File C:\Program Files (x86)\Windows Kits\10\Include\10.0.22000.0\ucrt\stdio.h
;	COMDAT _sprintf
_TEXT	SEGMENT
__Buffer$ = 8						; size = 4
__Format$ = 12						; size = 4
_sprintf PROC						; COMDAT

; 1771 :     {

  00000	55		 push	 ebp
  00001	8b ec		 mov	 ebp, esp

; 1392 :         int const _Result = __stdio_common_vsprintf(

  00003	8d 45 10	 lea	 eax, DWORD PTR __Format$[ebp+4]
  00006	50		 push	 eax
  00007	6a 00		 push	 0
  00009	ff 75 0c	 push	 DWORD PTR __Format$[ebp]
  0000c	6a ff		 push	 -1
  0000e	ff 75 08	 push	 DWORD PTR __Buffer$[ebp]
  00011	e8 00 00 00 00	 call	 ___local_stdio_printf_options
  00016	8b 08		 mov	 ecx, DWORD PTR [eax]
  00018	ff 70 04	 push	 DWORD PTR [eax+4]
  0001b	83 c9 01	 or	 ecx, 1
  0001e	51		 push	 ecx
  0001f	ff 15 00 00 00
	00		 call	 DWORD PTR __imp____stdio_common_vsprintf

; 1393 :             _CRT_INTERNAL_LOCAL_PRINTF_OPTIONS | _CRT_INTERNAL_PRINTF_LEGACY_VSPRINTF_NULL_TERMINATION,
; 1394 :             _Buffer, _BufferCount, _Format, _Locale, _ArgList);
; 1395 : 
; 1396 :         return _Result < 0 ? -1 : _Result;

  00025	83 c9 ff	 or	 ecx, -1
  00028	83 c4 1c	 add	 esp, 28			; 0000001cH
  0002b	85 c0		 test	 eax, eax
  0002d	0f 48 c1	 cmovs	 eax, ecx

; 1772 :         int _Result;
; 1773 :         va_list _ArgList;
; 1774 :         __crt_va_start(_ArgList, _Format);
; 1775 : 
; 1776 :         _Result = _vsprintf_l(_Buffer, _Format, NULL, _ArgList);
; 1777 : 
; 1778 :         __crt_va_end(_ArgList);
; 1779 :         return _Result;
; 1780 :     }

  00030	5d		 pop	 ebp
  00031	c3		 ret	 0
_sprintf ENDP
_TEXT	ENDS
; Function compile flags: /Ogtp
; File C:\Program Files (x86)\Windows Kits\10\Include\10.0.22000.0\ucrt\corecrt_stdio_config.h
;	COMDAT ___local_stdio_printf_options
_TEXT	SEGMENT
___local_stdio_printf_options PROC			; COMDAT

; 91   :         static unsigned __int64 _OptionsStorage;
; 92   :         return &_OptionsStorage;

  00000	b8 00 00 00 00	 mov	 eax, OFFSET ?_OptionsStorage@?1??__local_stdio_printf_options@@9@4_KA ; `__local_stdio_printf_options'::`2'::_OptionsStorage

; 93   :     }

  00005	c3		 ret	 0
___local_stdio_printf_options ENDP
_TEXT	ENDS
; Function compile flags: /Ogtp
; File D:\git\src\IBK\IBK_DRFN\ProjSrc\SrcDrfn\DrCommon\PartnerMng\ChartReplay.cpp
;	COMDAT ?__empty_global_delete@@YAXPAXI@Z
_TEXT	SEGMENT
___formal$ = 8						; size = 4
___formal$ = 12						; size = 4
?__empty_global_delete@@YAXPAXI@Z PROC			; __empty_global_delete, COMDAT

  00000	c2 00 00	 ret	 0
?__empty_global_delete@@YAXPAXI@Z ENDP			; __empty_global_delete
_TEXT	ENDS
; Function compile flags: /Ogtp
; File D:\git\src\IBK\IBK_DRFN\ProjSrc\SrcDrfn\DrCommon\PartnerMng\ChartReplay.cpp
;	COMDAT ?__empty_global_delete@@YAXPAX@Z
_TEXT	SEGMENT
___formal$ = 8						; size = 4
?__empty_global_delete@@YAXPAX@Z PROC			; __empty_global_delete, COMDAT

  00000	c2 00 00	 ret	 0
?__empty_global_delete@@YAXPAX@Z ENDP			; __empty_global_delete
_TEXT	ENDS
END
