; Listing generated by Microsoft (R) Optimizing Compiler Version 19.29.30145.0 

	TITLE	D:\git\src\IBK\IBK_DRFN\#DRfn-CS\_Obj\PartnerMng\ChartItemFOHoga.obj
	.686P
	.XMM
	include listing.inc
	.model	flat

INCLUDELIB MSVCRT
INCLUDELIB OLDNAMES

PUBLIC	?szFOHogaField@@3PAPADA				; szFOHogaField
PUBLIC	??_C@_05KEEBMGIL@30319@				; `string'
PUBLIC	??_C@_05BGOGBABK@30354@				; `string'
PUBLIC	??_C@_05PPNCBFL@30355@				; `string'
PUBLIC	??_C@_05HDDNBGAG@31023@				; `string'
PUBLIC	??_C@_05DOEBINB@32051@				; `string'
PUBLIC	??_C@_05CIMJELBC@32052@				; `string'
PUBLIC	??_C@_05DBNCHKFD@32053@				; `string'
PUBLIC	??_C@_05GAMMLP@32071@				; `string'
PUBLIC	??_C@_05CLENJPHM@32072@				; `string'
PUBLIC	??_C@_05DCFGKODN@32073@				; `string'
PUBLIC	?szOptionHogaField@@3PAPADA			; szOptionHogaField
PUBLIC	??_C@_05LJEEPGDD@40319@				; `string'
PUBLIC	??_C@_05LODCAKC@40354@				; `string'
PUBLIC	??_C@_05BCPIBBOD@40355@				; `string'
PUBLIC	??_C@_05GODICGLO@41023@				; `string'
PUBLIC	??_C@_05BOOBCIGJ@42051@				; `string'
PUBLIC	??_C@_05DFMMHLKK@42052@				; `string'
PUBLIC	??_C@_05CMNHEKOL@42053@				; `string'
PUBLIC	??_C@_05BNGFPMAH@42071@				; `string'
PUBLIC	??_C@_05DGEIKPME@42072@				; `string'
PUBLIC	??_C@_05CPFDJOIF@42073@				; `string'
PUBLIC	??_C@_0P@BKKCOCLK@RMSG_INTERFACE@		; `string'
PUBLIC	??_C@_0BB@GOOPDKI@RMSG_GETPCTRDATA@		; `string'
PUBLIC	??_C@_0BB@JPACFCL@RMSG_SETPCTRDATA@		; `string'
PUBLIC	??_C@_0BE@FJPKENOB@RMSG_GETSIGNAL_REAL@		; `string'
;	COMDAT ??_C@_0BE@FJPKENOB@RMSG_GETSIGNAL_REAL@
CONST	SEGMENT
??_C@_0BE@FJPKENOB@RMSG_GETSIGNAL_REAL@ DB 'RMSG_GETSIGNAL_REAL', 00H ; `string'
CONST	ENDS
;	COMDAT ??_C@_0BB@JPACFCL@RMSG_SETPCTRDATA@
CONST	SEGMENT
??_C@_0BB@JPACFCL@RMSG_SETPCTRDATA@ DB 'RMSG_SETPCTRDATA', 00H ; `string'
CONST	ENDS
;	COMDAT ??_C@_0BB@GOOPDKI@RMSG_GETPCTRDATA@
CONST	SEGMENT
??_C@_0BB@GOOPDKI@RMSG_GETPCTRDATA@ DB 'RMSG_GETPCTRDATA', 00H ; `string'
CONST	ENDS
;	COMDAT ??_C@_0P@BKKCOCLK@RMSG_INTERFACE@
CONST	SEGMENT
??_C@_0P@BKKCOCLK@RMSG_INTERFACE@ DB 'RMSG_INTERFACE', 00H ; `string'
CONST	ENDS
;	COMDAT ??_C@_05CPFDJOIF@42073@
CONST	SEGMENT
??_C@_05CPFDJOIF@42073@ DB '42073', 00H			; `string'
CONST	ENDS
;	COMDAT ??_C@_05DGEIKPME@42072@
CONST	SEGMENT
??_C@_05DGEIKPME@42072@ DB '42072', 00H			; `string'
CONST	ENDS
;	COMDAT ??_C@_05BNGFPMAH@42071@
CONST	SEGMENT
??_C@_05BNGFPMAH@42071@ DB '42071', 00H			; `string'
CONST	ENDS
;	COMDAT ??_C@_05CMNHEKOL@42053@
CONST	SEGMENT
??_C@_05CMNHEKOL@42053@ DB '42053', 00H			; `string'
CONST	ENDS
;	COMDAT ??_C@_05DFMMHLKK@42052@
CONST	SEGMENT
??_C@_05DFMMHLKK@42052@ DB '42052', 00H			; `string'
CONST	ENDS
;	COMDAT ??_C@_05BOOBCIGJ@42051@
CONST	SEGMENT
??_C@_05BOOBCIGJ@42051@ DB '42051', 00H			; `string'
CONST	ENDS
;	COMDAT ??_C@_05GODICGLO@41023@
CONST	SEGMENT
??_C@_05GODICGLO@41023@ DB '41023', 00H			; `string'
CONST	ENDS
;	COMDAT ??_C@_05BCPIBBOD@40355@
CONST	SEGMENT
??_C@_05BCPIBBOD@40355@ DB '40355', 00H			; `string'
CONST	ENDS
;	COMDAT ??_C@_05LODCAKC@40354@
CONST	SEGMENT
??_C@_05LODCAKC@40354@ DB '40354', 00H			; `string'
CONST	ENDS
;	COMDAT ??_C@_05LJEEPGDD@40319@
CONST	SEGMENT
??_C@_05LJEEPGDD@40319@ DB '40319', 00H			; `string'
CONST	ENDS
;	COMDAT ??_C@_05DCFGKODN@32073@
CONST	SEGMENT
??_C@_05DCFGKODN@32073@ DB '32073', 00H			; `string'
CONST	ENDS
;	COMDAT ??_C@_05CLENJPHM@32072@
CONST	SEGMENT
??_C@_05CLENJPHM@32072@ DB '32072', 00H			; `string'
CONST	ENDS
;	COMDAT ??_C@_05GAMMLP@32071@
CONST	SEGMENT
??_C@_05GAMMLP@32071@ DB '32071', 00H			; `string'
CONST	ENDS
;	COMDAT ??_C@_05DBNCHKFD@32053@
CONST	SEGMENT
??_C@_05DBNCHKFD@32053@ DB '32053', 00H			; `string'
CONST	ENDS
;	COMDAT ??_C@_05CIMJELBC@32052@
CONST	SEGMENT
??_C@_05CIMJELBC@32052@ DB '32052', 00H			; `string'
CONST	ENDS
;	COMDAT ??_C@_05DOEBINB@32051@
CONST	SEGMENT
??_C@_05DOEBINB@32051@ DB '32051', 00H			; `string'
CONST	ENDS
;	COMDAT ??_C@_05HDDNBGAG@31023@
CONST	SEGMENT
??_C@_05HDDNBGAG@31023@ DB '31023', 00H			; `string'
CONST	ENDS
;	COMDAT ??_C@_05PPNCBFL@30355@
CONST	SEGMENT
??_C@_05PPNCBFL@30355@ DB '30355', 00H			; `string'
CONST	ENDS
;	COMDAT ??_C@_05BGOGBABK@30354@
CONST	SEGMENT
??_C@_05BGOGBABK@30354@ DB '30354', 00H			; `string'
CONST	ENDS
;	COMDAT ??_C@_05KEEBMGIL@30319@
CONST	SEGMENT
??_C@_05KEEBMGIL@30319@ DB '30319', 00H			; `string'
CONST	ENDS
_DATA	SEGMENT
?szFOHogaField@@3PAPADA DD FLAT:??_C@_05KEEBMGIL@30319@	; szFOHogaField
	DD	FLAT:??_C@_05BGOGBABK@30354@
	DD	FLAT:??_C@_05PPNCBFL@30355@
	DD	FLAT:??_C@_05HDDNBGAG@31023@
	DD	FLAT:??_C@_05DOEBINB@32051@
	DD	FLAT:??_C@_05CIMJELBC@32052@
	DD	FLAT:??_C@_05DBNCHKFD@32053@
	DD	FLAT:??_C@_05GAMMLP@32071@
	DD	FLAT:??_C@_05CLENJPHM@32072@
	DD	FLAT:??_C@_05DCFGKODN@32073@
	DD	00H
?szOptionHogaField@@3PAPADA DD FLAT:??_C@_05LJEEPGDD@40319@ ; szOptionHogaField
	DD	FLAT:??_C@_05LODCAKC@40354@
	DD	FLAT:??_C@_05BCPIBBOD@40355@
	DD	FLAT:??_C@_05GODICGLO@41023@
	DD	FLAT:??_C@_05BOOBCIGJ@42051@
	DD	FLAT:??_C@_05DFMMHLKK@42052@
	DD	FLAT:??_C@_05CMNHEKOL@42053@
	DD	FLAT:??_C@_05BNGFPMAH@42071@
	DD	FLAT:??_C@_05DGEIKPME@42072@
	DD	FLAT:??_C@_05CPFDJOIF@42073@
	DD	00H
_DATA	ENDS
PUBLIC	?__empty_global_delete@@YAXPAX@Z		; __empty_global_delete
PUBLIC	?__empty_global_delete@@YAXPAXI@Z		; __empty_global_delete
PUBLIC	___local_stdio_scanf_options
PUBLIC	_sscanf
PUBLIC	??0CChartItemFOHoga@@QAE@XZ			; CChartItemFOHoga::CChartItemFOHoga
PUBLIC	??1CChartItemFOHoga@@UAE@XZ			; CChartItemFOHoga::~CChartItemFOHoga
PUBLIC	?SetInData@CChartItemFOHoga@@QAEXPAUKB_f0201_InRec1@@@Z ; CChartItemFOHoga::SetInData
PUBLIC	?Convert@CChartItemFOHoga@@QAE?AV?$CStringT@DV?$StrTraitMFC_DLL@DV?$ChTraitsCRT@D@ATL@@@@@ATL@@XZ ; CChartItemFOHoga::Convert
PUBLIC	?Convert2Struct@CChartItemFOHoga@@QAEPADPAEHV?$CStringT@DV?$StrTraitMFC_DLL@DV?$ChTraitsCRT@D@ATL@@@@@ATL@@AAH@Z ; CChartItemFOHoga::Convert2Struct
PUBLIC	?ConvertFuture@CChartItemFOHoga@@QAE?AV?$CStringT@DV?$StrTraitMFC_DLL@DV?$ChTraitsCRT@D@ATL@@@@@ATL@@XZ ; CChartItemFOHoga::ConvertFuture
PUBLIC	?ConvertOption@CChartItemFOHoga@@QAE?AV?$CStringT@DV?$StrTraitMFC_DLL@DV?$ChTraitsCRT@D@ATL@@@@@ATL@@XZ ; CChartItemFOHoga::ConvertOption
PUBLIC	??_GCChartItemFOHoga@@UAEPAXI@Z			; CChartItemFOHoga::`scalar deleting destructor'
PUBLIC	?_OptionsStorage@?1??__local_stdio_scanf_options@@9@4_KA ; `__local_stdio_scanf_options'::`2'::_OptionsStorage
PUBLIC	??_C@_00CNPNBAHC@@				; `string'
PUBLIC	??_C@_0M@CBBNGGHM@PcTrMng?4dll@			; `string'
PUBLIC	??_C@_0P@IDMAJEGN@HANAROPCTRMAIN@		; `string'
PUBLIC	??_C@_06NDLAHCHE@?$CFs?$CF08X@			; `string'
PUBLIC	??_C@_02EMFKHFLK@?$CFX@				; `string'
PUBLIC	??_7CChartItemFOHoga@@6B@			; CChartItemFOHoga::`vftable'
PUBLIC	??_C@_05GNFKCGLE@30301@				; `string'
PUBLIC	??_C@_05HAFPBGAM@40301@				; `string'
PUBLIC	??_C@_04EBNJJJJI@?$CF?4?$CKs@			; `string'
PUBLIC	??_R4CChartItemFOHoga@@6B@			; CChartItemFOHoga::`RTTI Complete Object Locator'
PUBLIC	??_R0?AVCChartItemFOHoga@@@8			; CChartItemFOHoga `RTTI Type Descriptor'
PUBLIC	??_R3CChartItemFOHoga@@8			; CChartItemFOHoga::`RTTI Class Hierarchy Descriptor'
PUBLIC	??_R2CChartItemFOHoga@@8			; CChartItemFOHoga::`RTTI Base Class Array'
PUBLIC	??_R1A@?0A@EA@CChartItemFOHoga@@8		; CChartItemFOHoga::`RTTI Base Class Descriptor at (0,-1,0,64)'
EXTRN	??3@YAXPAXI@Z:PROC				; operator delete
EXTRN	??_U@YAPAXI@Z:PROC				; operator new[]
EXTRN	__imp__GetEnvironmentVariableA@12:PROC
EXTRN	__imp__GetModuleHandleA@4:PROC
EXTRN	__imp__RegisterWindowMessageA@4:PROC
EXTRN	__imp__SendMessageA@16:PROC
EXTRN	__imp____stdio_common_vsscanf:PROC
EXTRN	__imp_??0?$CStringT@DV?$StrTraitMFC_DLL@DV?$ChTraitsCRT@D@ATL@@@@@ATL@@QAE@XZ:PROC
EXTRN	__imp_??0?$CStringT@DV?$StrTraitMFC_DLL@DV?$ChTraitsCRT@D@ATL@@@@@ATL@@QAE@PBD@Z:PROC
EXTRN	__imp_??0?$CStringT@DV?$StrTraitMFC_DLL@DV?$ChTraitsCRT@D@ATL@@@@@ATL@@QAE@DH@Z:PROC
EXTRN	__imp_??0?$CStringT@DV?$StrTraitMFC_DLL@DV?$ChTraitsCRT@D@ATL@@@@@ATL@@QAE@PBDH@Z:PROC
EXTRN	__imp_??1?$CStringT@DV?$StrTraitMFC_DLL@DV?$ChTraitsCRT@D@ATL@@@@@ATL@@QAE@XZ:PROC
EXTRN	__imp_??4?$CStringT@DV?$StrTraitMFC_DLL@DV?$ChTraitsCRT@D@ATL@@@@@ATL@@QAEAAV01@ABV01@@Z:PROC
EXTRN	__imp_??Y?$CStringT@DV?$StrTraitMFC_DLL@DV?$ChTraitsCRT@D@ATL@@@@@ATL@@QAEAAV01@ABV?$CSimpleStringT@D$00@1@@Z:PROC
EXTRN	__imp_??Y?$CStringT@DV?$StrTraitMFC_DLL@DV?$ChTraitsCRT@D@ATL@@@@@ATL@@QAEAAV01@PBD@Z:PROC
EXTRN	__imp_??Y?$CStringT@DV?$StrTraitMFC_DLL@DV?$ChTraitsCRT@D@ATL@@@@@ATL@@QAEAAV01@D@Z:PROC
EXTRN	__imp_?Remove@?$CStringT@DV?$StrTraitMFC_DLL@DV?$ChTraitsCRT@D@ATL@@@@@ATL@@QAEHD@Z:PROC
EXTRN	__imp_?Format@?$CStringT@DV?$StrTraitMFC_DLL@DV?$ChTraitsCRT@D@ATL@@@@@ATL@@QAAXPBDZZ:PROC
EXTRN	??_ECChartItemFOHoga@@UAEPAXI@Z:PROC		; CChartItemFOHoga::`vector deleting destructor'
EXTRN	?Parser@CDataConverter@@SA?AV?$CStringT@DV?$StrTraitMFC_DLL@DV?$ChTraitsCRT@D@ATL@@@@@ATL@@AAV23@V23@@Z:PROC ; CDataConverter::Parser
EXTRN	@__security_check_cookie@4:PROC
EXTRN	___CxxFrameHandler3:PROC
EXTRN	_memcpy:PROC
EXTRN	??_7type_info@@6B@:QWORD			; type_info::`vftable'
EXTRN	___security_cookie:DWORD
;	COMDAT ?_OptionsStorage@?1??__local_stdio_scanf_options@@9@4_KA
_BSS	SEGMENT
?_OptionsStorage@?1??__local_stdio_scanf_options@@9@4_KA DQ 01H DUP (?) ; `__local_stdio_scanf_options'::`2'::_OptionsStorage
_BSS	ENDS
_BSS	SEGMENT
?RMSG_INTERFACE@@3IB DD 01H DUP (?)			; RMSG_INTERFACE
?RMSG_GETPCTRDATA@@3IB DD 01H DUP (?)			; RMSG_GETPCTRDATA
?RMSG_SETPCTRDATA@@3IB DD 01H DUP (?)			; RMSG_SETPCTRDATA
?RMSG_GETSIGNAL_REAL@@3IB DD 01H DUP (?)		; RMSG_GETSIGNAL_REAL
_BSS	ENDS
CRT$XCU	SEGMENT
?RMSG_INTERFACE$initializer$@@3P6AXXZA DD FLAT:??__ERMSG_INTERFACE@@YAXXZ ; RMSG_INTERFACE$initializer$
CRT$XCU	ENDS
;	COMDAT ??_R1A@?0A@EA@CChartItemFOHoga@@8
rdata$r	SEGMENT
??_R1A@?0A@EA@CChartItemFOHoga@@8 DD FLAT:??_R0?AVCChartItemFOHoga@@@8 ; CChartItemFOHoga::`RTTI Base Class Descriptor at (0,-1,0,64)'
	DD	00H
	DD	00H
	DD	0ffffffffH
	DD	00H
	DD	040H
	DD	FLAT:??_R3CChartItemFOHoga@@8
rdata$r	ENDS
;	COMDAT ??_R2CChartItemFOHoga@@8
rdata$r	SEGMENT
??_R2CChartItemFOHoga@@8 DD FLAT:??_R1A@?0A@EA@CChartItemFOHoga@@8 ; CChartItemFOHoga::`RTTI Base Class Array'
rdata$r	ENDS
;	COMDAT ??_R3CChartItemFOHoga@@8
rdata$r	SEGMENT
??_R3CChartItemFOHoga@@8 DD 00H				; CChartItemFOHoga::`RTTI Class Hierarchy Descriptor'
	DD	00H
	DD	01H
	DD	FLAT:??_R2CChartItemFOHoga@@8
rdata$r	ENDS
;	COMDAT ??_R0?AVCChartItemFOHoga@@@8
data$rs	SEGMENT
??_R0?AVCChartItemFOHoga@@@8 DD FLAT:??_7type_info@@6B@	; CChartItemFOHoga `RTTI Type Descriptor'
	DD	00H
	DB	'.?AVCChartItemFOHoga@@', 00H
data$rs	ENDS
;	COMDAT ??_R4CChartItemFOHoga@@6B@
rdata$r	SEGMENT
??_R4CChartItemFOHoga@@6B@ DD 00H			; CChartItemFOHoga::`RTTI Complete Object Locator'
	DD	00H
	DD	00H
	DD	FLAT:??_R0?AVCChartItemFOHoga@@@8
	DD	FLAT:??_R3CChartItemFOHoga@@8
rdata$r	ENDS
;	COMDAT ??_C@_04EBNJJJJI@?$CF?4?$CKs@
CONST	SEGMENT
??_C@_04EBNJJJJI@?$CF?4?$CKs@ DB '%.*s', 00H		; `string'
CONST	ENDS
;	COMDAT ??_C@_05HAFPBGAM@40301@
CONST	SEGMENT
??_C@_05HAFPBGAM@40301@ DB '40301', 00H			; `string'
CONST	ENDS
;	COMDAT ??_C@_05GNFKCGLE@30301@
CONST	SEGMENT
??_C@_05GNFKCGLE@30301@ DB '30301', 00H			; `string'
CONST	ENDS
;	COMDAT ??_7CChartItemFOHoga@@6B@
CONST	SEGMENT
??_7CChartItemFOHoga@@6B@ DD FLAT:??_R4CChartItemFOHoga@@6B@ ; CChartItemFOHoga::`vftable'
	DD	FLAT:??_ECChartItemFOHoga@@UAEPAXI@Z
CONST	ENDS
;	COMDAT ??_C@_02EMFKHFLK@?$CFX@
CONST	SEGMENT
??_C@_02EMFKHFLK@?$CFX@ DB '%X', 00H			; `string'
CONST	ENDS
;	COMDAT ??_C@_06NDLAHCHE@?$CFs?$CF08X@
CONST	SEGMENT
??_C@_06NDLAHCHE@?$CFs?$CF08X@ DB '%s%08X', 00H		; `string'
CONST	ENDS
;	COMDAT ??_C@_0P@IDMAJEGN@HANAROPCTRMAIN@
CONST	SEGMENT
??_C@_0P@IDMAJEGN@HANAROPCTRMAIN@ DB 'HANAROPCTRMAIN', 00H ; `string'
CONST	ENDS
;	COMDAT ??_C@_0M@CBBNGGHM@PcTrMng?4dll@
CONST	SEGMENT
??_C@_0M@CBBNGGHM@PcTrMng?4dll@ DB 'PcTrMng.dll', 00H	; `string'
CONST	ENDS
;	COMDAT ??_C@_00CNPNBAHC@@
CONST	SEGMENT
??_C@_00CNPNBAHC@@ DB 00H				; `string'
CONST	ENDS
;	COMDAT xdata$x
xdata$x	SEGMENT
__unwindtable$?ConvertOption@CChartItemFOHoga@@QAE?AV?$CStringT@DV?$StrTraitMFC_DLL@DV?$ChTraitsCRT@D@ATL@@@@@ATL@@XZ DD 0ffffffffH
	DD	FLAT:__unwindfunclet$?ConvertOption@CChartItemFOHoga@@QAE?AV?$CStringT@DV?$StrTraitMFC_DLL@DV?$ChTraitsCRT@D@ATL@@@@@ATL@@XZ$0
	DD	00H
	DD	FLAT:__unwindfunclet$?ConvertOption@CChartItemFOHoga@@QAE?AV?$CStringT@DV?$StrTraitMFC_DLL@DV?$ChTraitsCRT@D@ATL@@@@@ATL@@XZ$1
	DD	01H
	DD	FLAT:__unwindfunclet$?ConvertOption@CChartItemFOHoga@@QAE?AV?$CStringT@DV?$StrTraitMFC_DLL@DV?$ChTraitsCRT@D@ATL@@@@@ATL@@XZ$2
__ehfuncinfo$?ConvertOption@CChartItemFOHoga@@QAE?AV?$CStringT@DV?$StrTraitMFC_DLL@DV?$ChTraitsCRT@D@ATL@@@@@ATL@@XZ DD 019930522H
	DD	03H
	DD	FLAT:__unwindtable$?ConvertOption@CChartItemFOHoga@@QAE?AV?$CStringT@DV?$StrTraitMFC_DLL@DV?$ChTraitsCRT@D@ATL@@@@@ATL@@XZ
	DD	2 DUP(00H)
	DD	2 DUP(00H)
	DD	00H
	DD	01H
xdata$x	ENDS
;	COMDAT xdata$x
xdata$x	SEGMENT
__unwindtable$?ConvertFuture@CChartItemFOHoga@@QAE?AV?$CStringT@DV?$StrTraitMFC_DLL@DV?$ChTraitsCRT@D@ATL@@@@@ATL@@XZ DD 0ffffffffH
	DD	FLAT:__unwindfunclet$?ConvertFuture@CChartItemFOHoga@@QAE?AV?$CStringT@DV?$StrTraitMFC_DLL@DV?$ChTraitsCRT@D@ATL@@@@@ATL@@XZ$0
	DD	00H
	DD	FLAT:__unwindfunclet$?ConvertFuture@CChartItemFOHoga@@QAE?AV?$CStringT@DV?$StrTraitMFC_DLL@DV?$ChTraitsCRT@D@ATL@@@@@ATL@@XZ$1
	DD	01H
	DD	FLAT:__unwindfunclet$?ConvertFuture@CChartItemFOHoga@@QAE?AV?$CStringT@DV?$StrTraitMFC_DLL@DV?$ChTraitsCRT@D@ATL@@@@@ATL@@XZ$2
__ehfuncinfo$?ConvertFuture@CChartItemFOHoga@@QAE?AV?$CStringT@DV?$StrTraitMFC_DLL@DV?$ChTraitsCRT@D@ATL@@@@@ATL@@XZ DD 019930522H
	DD	03H
	DD	FLAT:__unwindtable$?ConvertFuture@CChartItemFOHoga@@QAE?AV?$CStringT@DV?$StrTraitMFC_DLL@DV?$ChTraitsCRT@D@ATL@@@@@ATL@@XZ
	DD	2 DUP(00H)
	DD	2 DUP(00H)
	DD	00H
	DD	01H
xdata$x	ENDS
;	COMDAT xdata$x
xdata$x	SEGMENT
__ehfuncinfo$?Convert2Struct@CChartItemFOHoga@@QAEPADPAEHV?$CStringT@DV?$StrTraitMFC_DLL@DV?$ChTraitsCRT@D@ATL@@@@@ATL@@AAH@Z DD 019930522H
	DD	0dH
	DD	FLAT:__unwindtable$?Convert2Struct@CChartItemFOHoga@@QAEPADPAEHV?$CStringT@DV?$StrTraitMFC_DLL@DV?$ChTraitsCRT@D@ATL@@@@@ATL@@AAH@Z
	DD	2 DUP(00H)
	DD	2 DUP(00H)
	DD	00H
	DD	01H
__unwindtable$?Convert2Struct@CChartItemFOHoga@@QAEPADPAEHV?$CStringT@DV?$StrTraitMFC_DLL@DV?$ChTraitsCRT@D@ATL@@@@@ATL@@AAH@Z DD 0ffffffffH
	DD	FLAT:__unwindfunclet$?Convert2Struct@CChartItemFOHoga@@QAEPADPAEHV?$CStringT@DV?$StrTraitMFC_DLL@DV?$ChTraitsCRT@D@ATL@@@@@ATL@@AAH@Z$0
	DD	00H
	DD	FLAT:__unwindfunclet$?Convert2Struct@CChartItemFOHoga@@QAEPADPAEHV?$CStringT@DV?$StrTraitMFC_DLL@DV?$ChTraitsCRT@D@ATL@@@@@ATL@@AAH@Z$1
	DD	01H
	DD	FLAT:__unwindfunclet$?Convert2Struct@CChartItemFOHoga@@QAEPADPAEHV?$CStringT@DV?$StrTraitMFC_DLL@DV?$ChTraitsCRT@D@ATL@@@@@ATL@@AAH@Z$2
	DD	02H
	DD	FLAT:__unwindfunclet$?Convert2Struct@CChartItemFOHoga@@QAEPADPAEHV?$CStringT@DV?$StrTraitMFC_DLL@DV?$ChTraitsCRT@D@ATL@@@@@ATL@@AAH@Z$4
	DD	02H
	DD	FLAT:__unwindfunclet$?Convert2Struct@CChartItemFOHoga@@QAEPADPAEHV?$CStringT@DV?$StrTraitMFC_DLL@DV?$ChTraitsCRT@D@ATL@@@@@ATL@@AAH@Z$6
	DD	02H
	DD	FLAT:__unwindfunclet$?Convert2Struct@CChartItemFOHoga@@QAEPADPAEHV?$CStringT@DV?$StrTraitMFC_DLL@DV?$ChTraitsCRT@D@ATL@@@@@ATL@@AAH@Z$8
	DD	02H
	DD	FLAT:__unwindfunclet$?Convert2Struct@CChartItemFOHoga@@QAEPADPAEHV?$CStringT@DV?$StrTraitMFC_DLL@DV?$ChTraitsCRT@D@ATL@@@@@ATL@@AAH@Z$10
	DD	02H
	DD	FLAT:__unwindfunclet$?Convert2Struct@CChartItemFOHoga@@QAEPADPAEHV?$CStringT@DV?$StrTraitMFC_DLL@DV?$ChTraitsCRT@D@ATL@@@@@ATL@@AAH@Z$12
	DD	02H
	DD	FLAT:__unwindfunclet$?Convert2Struct@CChartItemFOHoga@@QAEPADPAEHV?$CStringT@DV?$StrTraitMFC_DLL@DV?$ChTraitsCRT@D@ATL@@@@@ATL@@AAH@Z$14
	DD	02H
	DD	FLAT:__unwindfunclet$?Convert2Struct@CChartItemFOHoga@@QAEPADPAEHV?$CStringT@DV?$StrTraitMFC_DLL@DV?$ChTraitsCRT@D@ATL@@@@@ATL@@AAH@Z$16
	DD	02H
	DD	FLAT:__unwindfunclet$?Convert2Struct@CChartItemFOHoga@@QAEPADPAEHV?$CStringT@DV?$StrTraitMFC_DLL@DV?$ChTraitsCRT@D@ATL@@@@@ATL@@AAH@Z$18
	DD	02H
	DD	FLAT:__unwindfunclet$?Convert2Struct@CChartItemFOHoga@@QAEPADPAEHV?$CStringT@DV?$StrTraitMFC_DLL@DV?$ChTraitsCRT@D@ATL@@@@@ATL@@AAH@Z$20
	DD	02H
	DD	FLAT:__unwindfunclet$?Convert2Struct@CChartItemFOHoga@@QAEPADPAEHV?$CStringT@DV?$StrTraitMFC_DLL@DV?$ChTraitsCRT@D@ATL@@@@@ATL@@AAH@Z$22
xdata$x	ENDS
;	COMDAT xdata$x
xdata$x	SEGMENT
__ehfuncinfo$?Convert@CChartItemFOHoga@@QAE?AV?$CStringT@DV?$StrTraitMFC_DLL@DV?$ChTraitsCRT@D@ATL@@@@@ATL@@XZ DD 019930522H
	DD	06H
	DD	FLAT:__unwindtable$?Convert@CChartItemFOHoga@@QAE?AV?$CStringT@DV?$StrTraitMFC_DLL@DV?$ChTraitsCRT@D@ATL@@@@@ATL@@XZ
	DD	2 DUP(00H)
	DD	2 DUP(00H)
	DD	00H
	DD	01H
__unwindtable$?Convert@CChartItemFOHoga@@QAE?AV?$CStringT@DV?$StrTraitMFC_DLL@DV?$ChTraitsCRT@D@ATL@@@@@ATL@@XZ DD 0ffffffffH
	DD	FLAT:__unwindfunclet$?Convert@CChartItemFOHoga@@QAE?AV?$CStringT@DV?$StrTraitMFC_DLL@DV?$ChTraitsCRT@D@ATL@@@@@ATL@@XZ$1
	DD	00H
	DD	FLAT:__unwindfunclet$?Convert@CChartItemFOHoga@@QAE?AV?$CStringT@DV?$StrTraitMFC_DLL@DV?$ChTraitsCRT@D@ATL@@@@@ATL@@XZ$2
	DD	00H
	DD	FLAT:__unwindfunclet$?Convert@CChartItemFOHoga@@QAE?AV?$CStringT@DV?$StrTraitMFC_DLL@DV?$ChTraitsCRT@D@ATL@@@@@ATL@@XZ$3
	DD	00H
	DD	FLAT:__unwindfunclet$?Convert@CChartItemFOHoga@@QAE?AV?$CStringT@DV?$StrTraitMFC_DLL@DV?$ChTraitsCRT@D@ATL@@@@@ATL@@XZ$4
	DD	03H
	DD	FLAT:__unwindfunclet$?Convert@CChartItemFOHoga@@QAE?AV?$CStringT@DV?$StrTraitMFC_DLL@DV?$ChTraitsCRT@D@ATL@@@@@ATL@@XZ$5
	DD	04H
	DD	FLAT:__unwindfunclet$?Convert@CChartItemFOHoga@@QAE?AV?$CStringT@DV?$StrTraitMFC_DLL@DV?$ChTraitsCRT@D@ATL@@@@@ATL@@XZ$6
xdata$x	ENDS
;	COMDAT xdata$x
xdata$x	SEGMENT
__unwindtable$?AfxGetPctrInterface@@YGJH@Z DD 0ffffffffH
	DD	FLAT:__unwindfunclet$?AfxGetPctrInterface@@YGJH@Z$0
__ehfuncinfo$?AfxGetPctrInterface@@YGJH@Z DD 019930522H
	DD	01H
	DD	FLAT:__unwindtable$?AfxGetPctrInterface@@YGJH@Z
	DD	2 DUP(00H)
	DD	2 DUP(00H)
	DD	00H
	DD	01H
xdata$x	ENDS
CRT$XCU	SEGMENT
?RMSG_GETPCTRDATA$initializer$@@3P6AXXZA DD FLAT:??__ERMSG_GETPCTRDATA@@YAXXZ ; RMSG_GETPCTRDATA$initializer$
CRT$XCU	ENDS
CRT$XCU	SEGMENT
?RMSG_SETPCTRDATA$initializer$@@3P6AXXZA DD FLAT:??__ERMSG_SETPCTRDATA@@YAXXZ ; RMSG_SETPCTRDATA$initializer$
CRT$XCU	ENDS
CRT$XCU	SEGMENT
?RMSG_GETSIGNAL_REAL$initializer$@@3P6AXXZA DD FLAT:??__ERMSG_GETSIGNAL_REAL@@YAXXZ ; RMSG_GETSIGNAL_REAL$initializer$
CRT$XCU	ENDS
; Function compile flags: /Ogtp
;	COMDAT ??_GCChartItemFOHoga@@UAEPAXI@Z
_TEXT	SEGMENT
___flags$ = 8						; size = 4
??_GCChartItemFOHoga@@UAEPAXI@Z PROC			; CChartItemFOHoga::`scalar deleting destructor', COMDAT
; _this$ = ecx
  00000	55		 push	 ebp
  00001	8b ec		 mov	 ebp, esp
  00003	f6 45 08 01	 test	 BYTE PTR ___flags$[ebp], 1
  00007	56		 push	 esi
  00008	8b f1		 mov	 esi, ecx
  0000a	c7 06 00 00 00
	00		 mov	 DWORD PTR [esi], OFFSET ??_7CChartItemFOHoga@@6B@
  00010	74 0b		 je	 SHORT $LN4@scalar
  00012	6a 18		 push	 24			; 00000018H
  00014	56		 push	 esi
  00015	e8 00 00 00 00	 call	 ??3@YAXPAXI@Z		; operator delete
  0001a	83 c4 08	 add	 esp, 8
$LN4@scalar:
  0001d	8b c6		 mov	 eax, esi
  0001f	5e		 pop	 esi
  00020	5d		 pop	 ebp
  00021	c2 04 00	 ret	 4
??_GCChartItemFOHoga@@UAEPAXI@Z ENDP			; CChartItemFOHoga::`scalar deleting destructor'
_TEXT	ENDS
; Function compile flags: /Ogtp
; File D:\git\src\IBK\IBK_DRFN\ProjSrc\SrcDrfn\DrCommon\PartnerMng\ChartItemFOHoga.cpp
;	COMDAT ?ConvertOption@CChartItemFOHoga@@QAE?AV?$CStringT@DV?$StrTraitMFC_DLL@DV?$ChTraitsCRT@D@ATL@@@@@ATL@@XZ
_TEXT	SEGMENT
$T2 = -24						; size = 4
$T3 = -20						; size = 4
_strCode$ = -16						; size = 4
__$EHRec$ = -12						; size = 12
___$ReturnUdt$ = 8					; size = 4
?ConvertOption@CChartItemFOHoga@@QAE?AV?$CStringT@DV?$StrTraitMFC_DLL@DV?$ChTraitsCRT@D@ATL@@@@@ATL@@XZ PROC ; CChartItemFOHoga::ConvertOption, COMDAT
; _this$ = ecx

; 106  : {

  00000	55		 push	 ebp
  00001	8b ec		 mov	 ebp, esp
  00003	6a ff		 push	 -1
  00005	68 00 00 00 00	 push	 __ehhandler$?ConvertOption@CChartItemFOHoga@@QAE?AV?$CStringT@DV?$StrTraitMFC_DLL@DV?$ChTraitsCRT@D@ATL@@@@@ATL@@XZ
  0000a	64 a1 00 00 00
	00		 mov	 eax, DWORD PTR fs:0
  00010	50		 push	 eax
  00011	83 ec 0c	 sub	 esp, 12			; 0000000cH
  00014	53		 push	 ebx
  00015	56		 push	 esi
  00016	57		 push	 edi
  00017	a1 00 00 00 00	 mov	 eax, DWORD PTR ___security_cookie
  0001c	33 c5		 xor	 eax, ebp
  0001e	50		 push	 eax
  0001f	8d 45 f4	 lea	 eax, DWORD PTR __$EHRec$[ebp]
  00022	64 a3 00 00 00
	00		 mov	 DWORD PTR fs:0, eax
  00028	8b d9		 mov	 ebx, ecx
  0002a	c7 45 ec 00 00
	00 00		 mov	 DWORD PTR $T3[ebp], 0

; 107  : 	CString strData, strCode;

  00031	8b 7d 08	 mov	 edi, DWORD PTR ___$ReturnUdt$[ebp]
  00034	8b cf		 mov	 ecx, edi
  00036	ff 15 00 00 00
	00		 call	 DWORD PTR __imp_??0?$CStringT@DV?$StrTraitMFC_DLL@DV?$ChTraitsCRT@D@ATL@@@@@ATL@@QAE@XZ

; 126  : 	}
; 127  : 	return strData;

  0003c	8d 4d f0	 lea	 ecx, DWORD PTR _strCode$[ebp]
  0003f	c7 45 ec 01 00
	00 00		 mov	 DWORD PTR $T3[ebp], 1
  00046	ff 15 00 00 00
	00		 call	 DWORD PTR __imp_??0?$CStringT@DV?$StrTraitMFC_DLL@DV?$ChTraitsCRT@D@ATL@@@@@ATL@@QAE@XZ
  0004c	6a 08		 push	 8
  0004e	8d 43 08	 lea	 eax, DWORD PTR [ebx+8]
  00051	c7 45 fc 01 00
	00 00		 mov	 DWORD PTR __$EHRec$[ebp+8], 1
  00058	50		 push	 eax
  00059	8d 4d e8	 lea	 ecx, DWORD PTR $T2[ebp]
  0005c	ff 15 00 00 00
	00		 call	 DWORD PTR __imp_??0?$CStringT@DV?$StrTraitMFC_DLL@DV?$ChTraitsCRT@D@ATL@@@@@ATL@@QAE@PBDH@Z
  00062	50		 push	 eax
  00063	8d 4d f0	 lea	 ecx, DWORD PTR _strCode$[ebp]
  00066	c6 45 fc 02	 mov	 BYTE PTR __$EHRec$[ebp+8], 2
  0006a	ff 15 00 00 00
	00		 call	 DWORD PTR __imp_??4?$CStringT@DV?$StrTraitMFC_DLL@DV?$ChTraitsCRT@D@ATL@@@@@ATL@@QAEAAV01@ABV01@@Z
  00070	8d 4d e8	 lea	 ecx, DWORD PTR $T2[ebp]
  00073	c6 45 fc 01	 mov	 BYTE PTR __$EHRec$[ebp+8], 1
  00077	ff 15 00 00 00
	00		 call	 DWORD PTR __imp_??1?$CStringT@DV?$StrTraitMFC_DLL@DV?$ChTraitsCRT@D@ATL@@@@@ATL@@QAE@XZ
  0007d	68 00 00 00 00	 push	 OFFSET ??_C@_05HAFPBGAM@40301@
  00082	8b cf		 mov	 ecx, edi
  00084	ff 15 00 00 00
	00		 call	 DWORD PTR __imp_??Y?$CStringT@DV?$StrTraitMFC_DLL@DV?$ChTraitsCRT@D@ATL@@@@@ATL@@QAEAAV01@PBD@Z
  0008a	6a 7f		 push	 127			; 0000007fH
  0008c	8b cf		 mov	 ecx, edi
  0008e	ff 15 00 00 00
	00		 call	 DWORD PTR __imp_??Y?$CStringT@DV?$StrTraitMFC_DLL@DV?$ChTraitsCRT@D@ATL@@@@@ATL@@QAEAAV01@D@Z
  00094	8d 45 f0	 lea	 eax, DWORD PTR _strCode$[ebp]
  00097	8b cf		 mov	 ecx, edi
  00099	50		 push	 eax
  0009a	ff 15 00 00 00
	00		 call	 DWORD PTR __imp_??Y?$CStringT@DV?$StrTraitMFC_DLL@DV?$ChTraitsCRT@D@ATL@@@@@ATL@@QAEAAV01@ABV?$CSimpleStringT@D$00@1@@Z
  000a0	6a 09		 push	 9
  000a2	8b cf		 mov	 ecx, edi
  000a4	ff 15 00 00 00
	00		 call	 DWORD PTR __imp_??Y?$CStringT@DV?$StrTraitMFC_DLL@DV?$ChTraitsCRT@D@ATL@@@@@ATL@@QAEAAV01@D@Z
  000aa	33 f6		 xor	 esi, esi
  000ac	39 73 04	 cmp	 DWORD PTR [ebx+4], esi
  000af	7e 1f		 jle	 SHORT $LN3@ConvertOpt
$LL4@ConvertOpt:

; 108  : 	strCode = CString(m_InData.futcode, sizeof(m_InData.futcode));
; 109  : 	
; 110  : 	//////////////////////////////////////////////////////////////////////////
; 111  : 	// Inbound 데이터 작성
; 112  : 	//////////////////////////////////////////////////////////////////////////
; 113  : 	// 차트 데이터
; 114  : 	strData += "40301"; // 종목코드 Input 심볼
; 115  : 	strData += sDS;
; 116  : 	
; 117  : 	strData += strCode;
; 118  : 	strData += sCELL;
; 119  : 	
; 120  : 	//////////////////////////////////////////////////////////////////////////
; 121  : 	// 종목 시세 OutBound
; 122  : 	for (int i=0; i<m_nCnt; i++)
; 123  : 	{
; 124  : 		strData += szOptionHogaField[i];

  000b1	ff 34 b5 00 00
	00 00		 push	 DWORD PTR ?szOptionHogaField@@3PAPADA[esi*4]
  000b8	8b cf		 mov	 ecx, edi
  000ba	ff 15 00 00 00
	00		 call	 DWORD PTR __imp_??Y?$CStringT@DV?$StrTraitMFC_DLL@DV?$ChTraitsCRT@D@ATL@@@@@ATL@@QAEAAV01@PBD@Z

; 125  : 		strData += sCELL;

  000c0	6a 09		 push	 9
  000c2	8b cf		 mov	 ecx, edi
  000c4	ff 15 00 00 00
	00		 call	 DWORD PTR __imp_??Y?$CStringT@DV?$StrTraitMFC_DLL@DV?$ChTraitsCRT@D@ATL@@@@@ATL@@QAEAAV01@D@Z
  000ca	46		 inc	 esi
  000cb	3b 73 04	 cmp	 esi, DWORD PTR [ebx+4]
  000ce	7c e1		 jl	 SHORT $LL4@ConvertOpt
$LN3@ConvertOpt:

; 126  : 	}
; 127  : 	return strData;

  000d0	8d 4d f0	 lea	 ecx, DWORD PTR _strCode$[ebp]
  000d3	ff 15 00 00 00
	00		 call	 DWORD PTR __imp_??1?$CStringT@DV?$StrTraitMFC_DLL@DV?$ChTraitsCRT@D@ATL@@@@@ATL@@QAE@XZ
  000d9	8b c7		 mov	 eax, edi

; 128  : }

  000db	8b 4d f4	 mov	 ecx, DWORD PTR __$EHRec$[ebp]
  000de	64 89 0d 00 00
	00 00		 mov	 DWORD PTR fs:0, ecx
  000e5	59		 pop	 ecx
  000e6	5f		 pop	 edi
  000e7	5e		 pop	 esi
  000e8	5b		 pop	 ebx
  000e9	8b e5		 mov	 esp, ebp
  000eb	5d		 pop	 ebp
  000ec	c2 04 00	 ret	 4
_TEXT	ENDS
;	COMDAT text$x
text$x	SEGMENT
__unwindfunclet$?ConvertOption@CChartItemFOHoga@@QAE?AV?$CStringT@DV?$StrTraitMFC_DLL@DV?$ChTraitsCRT@D@ATL@@@@@ATL@@XZ$0:
  00000	8b 45 ec	 mov	 eax, DWORD PTR $T3[ebp]
  00003	83 e0 01	 and	 eax, 1
  00006	0f 84 0d 00 00
	00		 je	 $LN7@ConvertOpt
  0000c	83 65 ec fe	 and	 DWORD PTR $T3[ebp], -2	; fffffffeH
  00010	8b 4d 08	 mov	 ecx, DWORD PTR ___$ReturnUdt$[ebp]
  00013	ff 25 00 00 00
	00		 jmp	 DWORD PTR __imp_??1?$CStringT@DV?$StrTraitMFC_DLL@DV?$ChTraitsCRT@D@ATL@@@@@ATL@@QAE@XZ
$LN7@ConvertOpt:
  00019	c3		 ret	 0
__unwindfunclet$?ConvertOption@CChartItemFOHoga@@QAE?AV?$CStringT@DV?$StrTraitMFC_DLL@DV?$ChTraitsCRT@D@ATL@@@@@ATL@@XZ$1:
  0001a	8d 4d f0	 lea	 ecx, DWORD PTR _strCode$[ebp]
  0001d	ff 25 00 00 00
	00		 jmp	 DWORD PTR __imp_??1?$CStringT@DV?$StrTraitMFC_DLL@DV?$ChTraitsCRT@D@ATL@@@@@ATL@@QAE@XZ
__unwindfunclet$?ConvertOption@CChartItemFOHoga@@QAE?AV?$CStringT@DV?$StrTraitMFC_DLL@DV?$ChTraitsCRT@D@ATL@@@@@ATL@@XZ$2:
  00023	8d 4d e8	 lea	 ecx, DWORD PTR $T2[ebp]
  00026	ff 25 00 00 00
	00		 jmp	 DWORD PTR __imp_??1?$CStringT@DV?$StrTraitMFC_DLL@DV?$ChTraitsCRT@D@ATL@@@@@ATL@@QAE@XZ
  0002c	cc		 int	 3
  0002d	cc		 int	 3
  0002e	cc		 int	 3
  0002f	cc		 int	 3
  00030	cc		 int	 3
__ehhandler$?ConvertOption@CChartItemFOHoga@@QAE?AV?$CStringT@DV?$StrTraitMFC_DLL@DV?$ChTraitsCRT@D@ATL@@@@@ATL@@XZ:
  00031	90		 npad	 1
  00032	90		 npad	 1
  00033	8b 54 24 08	 mov	 edx, DWORD PTR [esp+8]
  00037	8d 42 0c	 lea	 eax, DWORD PTR [edx+12]
  0003a	8b 4a e4	 mov	 ecx, DWORD PTR [edx-28]
  0003d	33 c8		 xor	 ecx, eax
  0003f	e8 00 00 00 00	 call	 @__security_check_cookie@4
  00044	b8 00 00 00 00	 mov	 eax, OFFSET __ehfuncinfo$?ConvertOption@CChartItemFOHoga@@QAE?AV?$CStringT@DV?$StrTraitMFC_DLL@DV?$ChTraitsCRT@D@ATL@@@@@ATL@@XZ
  00049	e9 00 00 00 00	 jmp	 ___CxxFrameHandler3
text$x	ENDS
?ConvertOption@CChartItemFOHoga@@QAE?AV?$CStringT@DV?$StrTraitMFC_DLL@DV?$ChTraitsCRT@D@ATL@@@@@ATL@@XZ ENDP ; CChartItemFOHoga::ConvertOption
; Function compile flags: /Ogtp
; File D:\git\src\IBK\IBK_DRFN\ProjSrc\SrcDrfn\DrCommon\PartnerMng\ChartItemFOHoga.cpp
;	COMDAT ?ConvertFuture@CChartItemFOHoga@@QAE?AV?$CStringT@DV?$StrTraitMFC_DLL@DV?$ChTraitsCRT@D@ATL@@@@@ATL@@XZ
_TEXT	SEGMENT
$T2 = -24						; size = 4
$T3 = -20						; size = 4
_strCode$ = -16						; size = 4
__$EHRec$ = -12						; size = 12
___$ReturnUdt$ = 8					; size = 4
?ConvertFuture@CChartItemFOHoga@@QAE?AV?$CStringT@DV?$StrTraitMFC_DLL@DV?$ChTraitsCRT@D@ATL@@@@@ATL@@XZ PROC ; CChartItemFOHoga::ConvertFuture, COMDAT
; _this$ = ecx

; 80   : {

  00000	55		 push	 ebp
  00001	8b ec		 mov	 ebp, esp
  00003	6a ff		 push	 -1
  00005	68 00 00 00 00	 push	 __ehhandler$?ConvertFuture@CChartItemFOHoga@@QAE?AV?$CStringT@DV?$StrTraitMFC_DLL@DV?$ChTraitsCRT@D@ATL@@@@@ATL@@XZ
  0000a	64 a1 00 00 00
	00		 mov	 eax, DWORD PTR fs:0
  00010	50		 push	 eax
  00011	83 ec 0c	 sub	 esp, 12			; 0000000cH
  00014	53		 push	 ebx
  00015	56		 push	 esi
  00016	57		 push	 edi
  00017	a1 00 00 00 00	 mov	 eax, DWORD PTR ___security_cookie
  0001c	33 c5		 xor	 eax, ebp
  0001e	50		 push	 eax
  0001f	8d 45 f4	 lea	 eax, DWORD PTR __$EHRec$[ebp]
  00022	64 a3 00 00 00
	00		 mov	 DWORD PTR fs:0, eax
  00028	8b d9		 mov	 ebx, ecx
  0002a	c7 45 ec 00 00
	00 00		 mov	 DWORD PTR $T3[ebp], 0

; 81   : 	CString strData, strCode;

  00031	8b 7d 08	 mov	 edi, DWORD PTR ___$ReturnUdt$[ebp]
  00034	8b cf		 mov	 ecx, edi
  00036	ff 15 00 00 00
	00		 call	 DWORD PTR __imp_??0?$CStringT@DV?$StrTraitMFC_DLL@DV?$ChTraitsCRT@D@ATL@@@@@ATL@@QAE@XZ

; 100  : 	}
; 101  : 
; 102  : 	return strData;

  0003c	8d 4d f0	 lea	 ecx, DWORD PTR _strCode$[ebp]
  0003f	c7 45 ec 01 00
	00 00		 mov	 DWORD PTR $T3[ebp], 1
  00046	ff 15 00 00 00
	00		 call	 DWORD PTR __imp_??0?$CStringT@DV?$StrTraitMFC_DLL@DV?$ChTraitsCRT@D@ATL@@@@@ATL@@QAE@XZ
  0004c	6a 08		 push	 8
  0004e	8d 43 08	 lea	 eax, DWORD PTR [ebx+8]
  00051	c7 45 fc 01 00
	00 00		 mov	 DWORD PTR __$EHRec$[ebp+8], 1
  00058	50		 push	 eax
  00059	8d 4d e8	 lea	 ecx, DWORD PTR $T2[ebp]
  0005c	ff 15 00 00 00
	00		 call	 DWORD PTR __imp_??0?$CStringT@DV?$StrTraitMFC_DLL@DV?$ChTraitsCRT@D@ATL@@@@@ATL@@QAE@PBDH@Z
  00062	50		 push	 eax
  00063	8d 4d f0	 lea	 ecx, DWORD PTR _strCode$[ebp]
  00066	c6 45 fc 02	 mov	 BYTE PTR __$EHRec$[ebp+8], 2
  0006a	ff 15 00 00 00
	00		 call	 DWORD PTR __imp_??4?$CStringT@DV?$StrTraitMFC_DLL@DV?$ChTraitsCRT@D@ATL@@@@@ATL@@QAEAAV01@ABV01@@Z
  00070	8d 4d e8	 lea	 ecx, DWORD PTR $T2[ebp]
  00073	c6 45 fc 01	 mov	 BYTE PTR __$EHRec$[ebp+8], 1
  00077	ff 15 00 00 00
	00		 call	 DWORD PTR __imp_??1?$CStringT@DV?$StrTraitMFC_DLL@DV?$ChTraitsCRT@D@ATL@@@@@ATL@@QAE@XZ
  0007d	68 00 00 00 00	 push	 OFFSET ??_C@_05GNFKCGLE@30301@
  00082	8b cf		 mov	 ecx, edi
  00084	ff 15 00 00 00
	00		 call	 DWORD PTR __imp_??Y?$CStringT@DV?$StrTraitMFC_DLL@DV?$ChTraitsCRT@D@ATL@@@@@ATL@@QAEAAV01@PBD@Z
  0008a	6a 7f		 push	 127			; 0000007fH
  0008c	8b cf		 mov	 ecx, edi
  0008e	ff 15 00 00 00
	00		 call	 DWORD PTR __imp_??Y?$CStringT@DV?$StrTraitMFC_DLL@DV?$ChTraitsCRT@D@ATL@@@@@ATL@@QAEAAV01@D@Z
  00094	8d 45 f0	 lea	 eax, DWORD PTR _strCode$[ebp]
  00097	8b cf		 mov	 ecx, edi
  00099	50		 push	 eax
  0009a	ff 15 00 00 00
	00		 call	 DWORD PTR __imp_??Y?$CStringT@DV?$StrTraitMFC_DLL@DV?$ChTraitsCRT@D@ATL@@@@@ATL@@QAEAAV01@ABV?$CSimpleStringT@D$00@1@@Z
  000a0	6a 09		 push	 9
  000a2	8b cf		 mov	 ecx, edi
  000a4	ff 15 00 00 00
	00		 call	 DWORD PTR __imp_??Y?$CStringT@DV?$StrTraitMFC_DLL@DV?$ChTraitsCRT@D@ATL@@@@@ATL@@QAEAAV01@D@Z
  000aa	33 f6		 xor	 esi, esi
  000ac	39 73 04	 cmp	 DWORD PTR [ebx+4], esi
  000af	7e 1f		 jle	 SHORT $LN3@ConvertFut
$LL4@ConvertFut:

; 82   : 	strCode = CString(m_InData.futcode, sizeof(m_InData.futcode));
; 83   : 	
; 84   : 	//////////////////////////////////////////////////////////////////////////
; 85   : 	// Inbound 데이터 작성
; 86   : 	//////////////////////////////////////////////////////////////////////////
; 87   : 	// 차트 데이터
; 88   : 	strData += "30301"; // 종목코드 Input 심볼
; 89   : 	strData += sDS;
; 90   : 	
; 91   : 	strData += strCode;
; 92   : 	strData += sCELL;
; 93   : 	
; 94   : 	//////////////////////////////////////////////////////////////////////////
; 95   : 	// 종목 시세 OutBound
; 96   : 	for (int i=0; i<m_nCnt; i++)
; 97   : 	{
; 98   : 		strData += szFOHogaField[i];

  000b1	ff 34 b5 00 00
	00 00		 push	 DWORD PTR ?szFOHogaField@@3PAPADA[esi*4]
  000b8	8b cf		 mov	 ecx, edi
  000ba	ff 15 00 00 00
	00		 call	 DWORD PTR __imp_??Y?$CStringT@DV?$StrTraitMFC_DLL@DV?$ChTraitsCRT@D@ATL@@@@@ATL@@QAEAAV01@PBD@Z

; 99   : 		strData += sCELL;

  000c0	6a 09		 push	 9
  000c2	8b cf		 mov	 ecx, edi
  000c4	ff 15 00 00 00
	00		 call	 DWORD PTR __imp_??Y?$CStringT@DV?$StrTraitMFC_DLL@DV?$ChTraitsCRT@D@ATL@@@@@ATL@@QAEAAV01@D@Z
  000ca	46		 inc	 esi
  000cb	3b 73 04	 cmp	 esi, DWORD PTR [ebx+4]
  000ce	7c e1		 jl	 SHORT $LL4@ConvertFut
$LN3@ConvertFut:

; 100  : 	}
; 101  : 
; 102  : 	return strData;

  000d0	8d 4d f0	 lea	 ecx, DWORD PTR _strCode$[ebp]
  000d3	ff 15 00 00 00
	00		 call	 DWORD PTR __imp_??1?$CStringT@DV?$StrTraitMFC_DLL@DV?$ChTraitsCRT@D@ATL@@@@@ATL@@QAE@XZ
  000d9	8b c7		 mov	 eax, edi

; 103  : }

  000db	8b 4d f4	 mov	 ecx, DWORD PTR __$EHRec$[ebp]
  000de	64 89 0d 00 00
	00 00		 mov	 DWORD PTR fs:0, ecx
  000e5	59		 pop	 ecx
  000e6	5f		 pop	 edi
  000e7	5e		 pop	 esi
  000e8	5b		 pop	 ebx
  000e9	8b e5		 mov	 esp, ebp
  000eb	5d		 pop	 ebp
  000ec	c2 04 00	 ret	 4
_TEXT	ENDS
;	COMDAT text$x
text$x	SEGMENT
__unwindfunclet$?ConvertFuture@CChartItemFOHoga@@QAE?AV?$CStringT@DV?$StrTraitMFC_DLL@DV?$ChTraitsCRT@D@ATL@@@@@ATL@@XZ$0:
  00000	8b 45 ec	 mov	 eax, DWORD PTR $T3[ebp]
  00003	83 e0 01	 and	 eax, 1
  00006	0f 84 0d 00 00
	00		 je	 $LN7@ConvertFut
  0000c	83 65 ec fe	 and	 DWORD PTR $T3[ebp], -2	; fffffffeH
  00010	8b 4d 08	 mov	 ecx, DWORD PTR ___$ReturnUdt$[ebp]
  00013	ff 25 00 00 00
	00		 jmp	 DWORD PTR __imp_??1?$CStringT@DV?$StrTraitMFC_DLL@DV?$ChTraitsCRT@D@ATL@@@@@ATL@@QAE@XZ
$LN7@ConvertFut:
  00019	c3		 ret	 0
__unwindfunclet$?ConvertFuture@CChartItemFOHoga@@QAE?AV?$CStringT@DV?$StrTraitMFC_DLL@DV?$ChTraitsCRT@D@ATL@@@@@ATL@@XZ$1:
  0001a	8d 4d f0	 lea	 ecx, DWORD PTR _strCode$[ebp]
  0001d	ff 25 00 00 00
	00		 jmp	 DWORD PTR __imp_??1?$CStringT@DV?$StrTraitMFC_DLL@DV?$ChTraitsCRT@D@ATL@@@@@ATL@@QAE@XZ
__unwindfunclet$?ConvertFuture@CChartItemFOHoga@@QAE?AV?$CStringT@DV?$StrTraitMFC_DLL@DV?$ChTraitsCRT@D@ATL@@@@@ATL@@XZ$2:
  00023	8d 4d e8	 lea	 ecx, DWORD PTR $T2[ebp]
  00026	ff 25 00 00 00
	00		 jmp	 DWORD PTR __imp_??1?$CStringT@DV?$StrTraitMFC_DLL@DV?$ChTraitsCRT@D@ATL@@@@@ATL@@QAE@XZ
  0002c	cc		 int	 3
  0002d	cc		 int	 3
  0002e	cc		 int	 3
  0002f	cc		 int	 3
  00030	cc		 int	 3
__ehhandler$?ConvertFuture@CChartItemFOHoga@@QAE?AV?$CStringT@DV?$StrTraitMFC_DLL@DV?$ChTraitsCRT@D@ATL@@@@@ATL@@XZ:
  00031	90		 npad	 1
  00032	90		 npad	 1
  00033	8b 54 24 08	 mov	 edx, DWORD PTR [esp+8]
  00037	8d 42 0c	 lea	 eax, DWORD PTR [edx+12]
  0003a	8b 4a e4	 mov	 ecx, DWORD PTR [edx-28]
  0003d	33 c8		 xor	 ecx, eax
  0003f	e8 00 00 00 00	 call	 @__security_check_cookie@4
  00044	b8 00 00 00 00	 mov	 eax, OFFSET __ehfuncinfo$?ConvertFuture@CChartItemFOHoga@@QAE?AV?$CStringT@DV?$StrTraitMFC_DLL@DV?$ChTraitsCRT@D@ATL@@@@@ATL@@XZ
  00049	e9 00 00 00 00	 jmp	 ___CxxFrameHandler3
text$x	ENDS
?ConvertFuture@CChartItemFOHoga@@QAE?AV?$CStringT@DV?$StrTraitMFC_DLL@DV?$ChTraitsCRT@D@ATL@@@@@ATL@@XZ ENDP ; CChartItemFOHoga::ConvertFuture
; Function compile flags: /Ogtp
; File D:\git\src\IBK\IBK_DRFN\ProjSrc\SrcDrfn\DrCommon\PartnerMng\ChartItemFOHoga.cpp
; File C:\Program Files (x86)\Microsoft Visual Studio\2019\Community\VC\Tools\MSVC\14.29.30133\atlmfc\include\atlsimpstr.h
; File D:\git\src\IBK\IBK_DRFN\ProjSrc\SrcDrfn\DrCommon\PartnerMng\ChartItemFOHoga.cpp
; File C:\Program Files (x86)\Microsoft Visual Studio\2019\Community\VC\Tools\MSVC\14.29.30133\atlmfc\include\atlsimpstr.h
; File D:\git\src\IBK\IBK_DRFN\ProjSrc\SrcDrfn\DrCommon\PartnerMng\ChartItemFOHoga.cpp
; File C:\Program Files (x86)\Microsoft Visual Studio\2019\Community\VC\Tools\MSVC\14.29.30133\atlmfc\include\atlsimpstr.h
; File D:\git\src\IBK\IBK_DRFN\ProjSrc\SrcDrfn\DrCommon\PartnerMng\ChartItemFOHoga.cpp
; File C:\Program Files (x86)\Microsoft Visual Studio\2019\Community\VC\Tools\MSVC\14.29.30133\atlmfc\include\atlsimpstr.h
; File D:\git\src\IBK\IBK_DRFN\ProjSrc\SrcDrfn\DrCommon\PartnerMng\ChartItemFOHoga.cpp
; File C:\Program Files (x86)\Microsoft Visual Studio\2019\Community\VC\Tools\MSVC\14.29.30133\atlmfc\include\atlsimpstr.h
; File D:\git\src\IBK\IBK_DRFN\ProjSrc\SrcDrfn\DrCommon\PartnerMng\ChartItemFOHoga.cpp
; File C:\Program Files (x86)\Microsoft Visual Studio\2019\Community\VC\Tools\MSVC\14.29.30133\atlmfc\include\atlsimpstr.h
; File D:\git\src\IBK\IBK_DRFN\ProjSrc\SrcDrfn\DrCommon\PartnerMng\ChartItemFOHoga.cpp
; File C:\Program Files (x86)\Microsoft Visual Studio\2019\Community\VC\Tools\MSVC\14.29.30133\atlmfc\include\atlsimpstr.h
; File D:\git\src\IBK\IBK_DRFN\ProjSrc\SrcDrfn\DrCommon\PartnerMng\ChartItemFOHoga.cpp
; File C:\Program Files (x86)\Microsoft Visual Studio\2019\Community\VC\Tools\MSVC\14.29.30133\atlmfc\include\atlsimpstr.h
; File D:\git\src\IBK\IBK_DRFN\ProjSrc\SrcDrfn\DrCommon\PartnerMng\ChartItemFOHoga.cpp
; File C:\Program Files (x86)\Microsoft Visual Studio\2019\Community\VC\Tools\MSVC\14.29.30133\atlmfc\include\atlsimpstr.h
; File D:\git\src\IBK\IBK_DRFN\ProjSrc\SrcDrfn\DrCommon\PartnerMng\ChartItemFOHoga.cpp
;	COMDAT ?Convert2Struct@CChartItemFOHoga@@QAEPADPAEHV?$CStringT@DV?$StrTraitMFC_DLL@DV?$ChTraitsCRT@D@ATL@@@@@ATL@@AAH@Z
_TEXT	SEGMENT
_strSrc$ = -96						; size = 4
$T2 = -92						; size = 4
$T3 = -92						; size = 4
$T4 = -92						; size = 4
$T5 = -92						; size = 4
$T6 = -92						; size = 4
$T7 = -92						; size = 4
$T8 = -92						; size = 4
$T9 = -92						; size = 4
$T10 = -92						; size = 4
$T11 = -92						; size = 4
_strNode$ = -88						; size = 4
_stOut$ = -84						; size = 68
__$ArrayPad$ = -16					; size = 4
__$EHRec$ = -12						; size = 12
_pData$ = 8						; size = 4
_nLen$ = 12						; size = 4
_szTRCode$ = 16						; size = 4
_nDataLen$ = 20						; size = 4
?Convert2Struct@CChartItemFOHoga@@QAEPADPAEHV?$CStringT@DV?$StrTraitMFC_DLL@DV?$ChTraitsCRT@D@ATL@@@@@ATL@@AAH@Z PROC ; CChartItemFOHoga::Convert2Struct, COMDAT
; _this$ = ecx

; 131  : {

  00000	55		 push	 ebp
  00001	8b ec		 mov	 ebp, esp
  00003	6a ff		 push	 -1
  00005	68 00 00 00 00	 push	 __ehhandler$?Convert2Struct@CChartItemFOHoga@@QAEPADPAEHV?$CStringT@DV?$StrTraitMFC_DLL@DV?$ChTraitsCRT@D@ATL@@@@@ATL@@AAH@Z
  0000a	64 a1 00 00 00
	00		 mov	 eax, DWORD PTR fs:0
  00010	50		 push	 eax
  00011	83 ec 54	 sub	 esp, 84			; 00000054H
  00014	a1 00 00 00 00	 mov	 eax, DWORD PTR ___security_cookie
  00019	33 c5		 xor	 eax, ebp
  0001b	89 45 f0	 mov	 DWORD PTR __$ArrayPad$[ebp], eax
  0001e	56		 push	 esi
  0001f	57		 push	 edi
  00020	50		 push	 eax
  00021	8d 45 f4	 lea	 eax, DWORD PTR __$EHRec$[ebp]
  00024	64 a3 00 00 00
	00		 mov	 DWORD PTR fs:0, eax
  0002a	8b f9		 mov	 edi, ecx
  0002c	8b 75 08	 mov	 esi, DWORD PTR _pData$[ebp]

; 132  : 	KB_f0201_OutRec1 stOut;
; 133  : 	CString strNode, strSrc;

  0002f	8d 4d a8	 lea	 ecx, DWORD PTR _strNode$[ebp]
  00032	c7 45 fc 00 00
	00 00		 mov	 DWORD PTR __$EHRec$[ebp+8], 0
  00039	ff 15 00 00 00
	00		 call	 DWORD PTR __imp_??0?$CStringT@DV?$StrTraitMFC_DLL@DV?$ChTraitsCRT@D@ATL@@@@@ATL@@QAE@XZ
  0003f	8d 4d a0	 lea	 ecx, DWORD PTR _strSrc$[ebp]
  00042	ff 15 00 00 00
	00		 call	 DWORD PTR __imp_??0?$CStringT@DV?$StrTraitMFC_DLL@DV?$ChTraitsCRT@D@ATL@@@@@ATL@@QAE@XZ

; 134  : 	strSrc.Format(_T("%.*s"), nLen, (char*)pData);

  00048	56		 push	 esi
  00049	ff 75 0c	 push	 DWORD PTR _nLen$[ebp]
  0004c	8d 45 a0	 lea	 eax, DWORD PTR _strSrc$[ebp]
  0004f	c6 45 fc 02	 mov	 BYTE PTR __$EHRec$[ebp+8], 2
  00053	68 00 00 00 00	 push	 OFFSET ??_C@_04EBNJJJJI@?$CF?4?$CKs@
  00058	50		 push	 eax
  00059	ff 15 00 00 00
	00		 call	 DWORD PTR __imp_?Format@?$CStringT@DV?$StrTraitMFC_DLL@DV?$ChTraitsCRT@D@ATL@@@@@ATL@@QAAXPBDZZ

; 135  : 
; 136  : 	memset(&stOut, 0x20, sizeof(stOut));
; 137  : 
; 138  : 	memcpy(stOut.futcode, m_InData.futcode, sizeof(stOut.futcode));

  0005f	8b 4f 0c	 mov	 ecx, DWORD PTR [edi+12]

; 139  : 
; 140  : 	strNode = CDataConverter::Parser(strSrc, sCELL);	// 기준가

  00062	83 c4 0c	 add	 esp, 12			; 0000000cH
  00065	8b 47 08	 mov	 eax, DWORD PTR [edi+8]
  00068	89 4d b0	 mov	 DWORD PTR _stOut$[ebp+4], ecx
  0006b	8b cc		 mov	 ecx, esp
  0006d	c7 45 b4 20 20
	20 20		 mov	 DWORD PTR _stOut$[ebp+8], 538976288 ; 20202020H
  00074	6a 01		 push	 1
  00076	6a 09		 push	 9
  00078	c7 45 b8 20 20
	20 20		 mov	 DWORD PTR _stOut$[ebp+12], 538976288 ; 20202020H
  0007f	c7 45 bc 20 20
	20 20		 mov	 DWORD PTR _stOut$[ebp+16], 538976288 ; 20202020H
  00086	c7 45 c0 20 20
	20 20		 mov	 DWORD PTR _stOut$[ebp+20], 538976288 ; 20202020H
  0008d	c7 45 c4 20 20
	20 20		 mov	 DWORD PTR _stOut$[ebp+24], 538976288 ; 20202020H
  00094	c7 45 c8 20 20
	20 20		 mov	 DWORD PTR _stOut$[ebp+28], 538976288 ; 20202020H
  0009b	c7 45 cc 20 20
	20 20		 mov	 DWORD PTR _stOut$[ebp+32], 538976288 ; 20202020H
  000a2	c7 45 d0 20 20
	20 20		 mov	 DWORD PTR _stOut$[ebp+36], 538976288 ; 20202020H
  000a9	c7 45 d4 20 20
	20 20		 mov	 DWORD PTR _stOut$[ebp+40], 538976288 ; 20202020H
  000b0	c7 45 d8 20 20
	20 20		 mov	 DWORD PTR _stOut$[ebp+44], 538976288 ; 20202020H
  000b7	c7 45 dc 20 20
	20 20		 mov	 DWORD PTR _stOut$[ebp+48], 538976288 ; 20202020H
  000be	c7 45 e0 20 20
	20 20		 mov	 DWORD PTR _stOut$[ebp+52], 538976288 ; 20202020H
  000c5	c7 45 e4 20 20
	20 20		 mov	 DWORD PTR _stOut$[ebp+56], 538976288 ; 20202020H
  000cc	c7 45 e8 20 20
	20 20		 mov	 DWORD PTR _stOut$[ebp+60], 538976288 ; 20202020H
  000d3	c7 45 ec 20 20
	20 20		 mov	 DWORD PTR _stOut$[ebp+64], 538976288 ; 20202020H
  000da	89 45 ac	 mov	 DWORD PTR _stOut$[ebp], eax
  000dd	ff 15 00 00 00
	00		 call	 DWORD PTR __imp_??0?$CStringT@DV?$StrTraitMFC_DLL@DV?$ChTraitsCRT@D@ATL@@@@@ATL@@QAE@DH@Z
  000e3	8d 45 a0	 lea	 eax, DWORD PTR _strSrc$[ebp]
  000e6	50		 push	 eax
  000e7	8d 45 a4	 lea	 eax, DWORD PTR $T11[ebp]
  000ea	50		 push	 eax
  000eb	e8 00 00 00 00	 call	 ?Parser@CDataConverter@@SA?AV?$CStringT@DV?$StrTraitMFC_DLL@DV?$ChTraitsCRT@D@ATL@@@@@ATL@@AAV23@V23@@Z ; CDataConverter::Parser
  000f0	83 c4 0c	 add	 esp, 12			; 0000000cH
  000f3	50		 push	 eax
  000f4	8d 4d a8	 lea	 ecx, DWORD PTR _strNode$[ebp]
  000f7	c6 45 fc 03	 mov	 BYTE PTR __$EHRec$[ebp+8], 3
  000fb	ff 15 00 00 00
	00		 call	 DWORD PTR __imp_??4?$CStringT@DV?$StrTraitMFC_DLL@DV?$ChTraitsCRT@D@ATL@@@@@ATL@@QAEAAV01@ABV01@@Z
  00101	8d 4d a4	 lea	 ecx, DWORD PTR $T11[ebp]
  00104	c6 45 fc 02	 mov	 BYTE PTR __$EHRec$[ebp+8], 2
  00108	ff 15 00 00 00
	00		 call	 DWORD PTR __imp_??1?$CStringT@DV?$StrTraitMFC_DLL@DV?$ChTraitsCRT@D@ATL@@@@@ATL@@QAE@XZ

; 141  : 	strNode.Remove('.');

  0010e	6a 2e		 push	 46			; 0000002eH
  00110	8d 4d a8	 lea	 ecx, DWORD PTR _strNode$[ebp]
  00113	ff 15 00 00 00
	00		 call	 DWORD PTR __imp_?Remove@?$CStringT@DV?$StrTraitMFC_DLL@DV?$ChTraitsCRT@D@ATL@@@@@ATL@@QAEHD@Z
; File C:\Program Files (x86)\Microsoft Visual Studio\2019\Community\VC\Tools\MSVC\14.29.30133\atlmfc\include\atlsimpstr.h

; 519  : 		return( GetData()->nDataLength );

  00119	8b 45 a8	 mov	 eax, DWORD PTR _strNode$[ebp]
; File D:\git\src\IBK\IBK_DRFN\ProjSrc\SrcDrfn\DrCommon\PartnerMng\ChartItemFOHoga.cpp

; 142  : 	memcpy(stOut.recprice, strNode, min(strNode.GetLength(), sizeof(stOut.recprice)));

  0011c	be 06 00 00 00	 mov	 esi, 6
  00121	8b ce		 mov	 ecx, esi
  00123	39 48 f4	 cmp	 DWORD PTR [eax-12], ecx
  00126	0f 42 48 f4	 cmovb	 ecx, DWORD PTR [eax-12]
  0012a	51		 push	 ecx
  0012b	50		 push	 eax
  0012c	8d 45 b4	 lea	 eax, DWORD PTR _stOut$[ebp+8]
  0012f	50		 push	 eax
  00130	e8 00 00 00 00	 call	 _memcpy

; 143  : 
; 144  : 	strNode = CDataConverter::Parser(strSrc, sCELL);	// 상한가

  00135	83 c4 08	 add	 esp, 8
  00138	8b cc		 mov	 ecx, esp
  0013a	6a 01		 push	 1
  0013c	6a 09		 push	 9
  0013e	ff 15 00 00 00
	00		 call	 DWORD PTR __imp_??0?$CStringT@DV?$StrTraitMFC_DLL@DV?$ChTraitsCRT@D@ATL@@@@@ATL@@QAE@DH@Z
  00144	8d 45 a0	 lea	 eax, DWORD PTR _strSrc$[ebp]
  00147	50		 push	 eax
  00148	8d 45 a4	 lea	 eax, DWORD PTR $T10[ebp]
  0014b	50		 push	 eax
  0014c	e8 00 00 00 00	 call	 ?Parser@CDataConverter@@SA?AV?$CStringT@DV?$StrTraitMFC_DLL@DV?$ChTraitsCRT@D@ATL@@@@@ATL@@AAV23@V23@@Z ; CDataConverter::Parser
  00151	83 c4 0c	 add	 esp, 12			; 0000000cH
  00154	c6 45 fc 04	 mov	 BYTE PTR __$EHRec$[ebp+8], 4
  00158	50		 push	 eax
  00159	8d 4d a8	 lea	 ecx, DWORD PTR _strNode$[ebp]
  0015c	ff 15 00 00 00
	00		 call	 DWORD PTR __imp_??4?$CStringT@DV?$StrTraitMFC_DLL@DV?$ChTraitsCRT@D@ATL@@@@@ATL@@QAEAAV01@ABV01@@Z
  00162	8d 4d a4	 lea	 ecx, DWORD PTR $T10[ebp]
  00165	c6 45 fc 02	 mov	 BYTE PTR __$EHRec$[ebp+8], 2
  00169	ff 15 00 00 00
	00		 call	 DWORD PTR __imp_??1?$CStringT@DV?$StrTraitMFC_DLL@DV?$ChTraitsCRT@D@ATL@@@@@ATL@@QAE@XZ

; 145  : 	strNode.Remove('.');

  0016f	6a 2e		 push	 46			; 0000002eH
  00171	8d 4d a8	 lea	 ecx, DWORD PTR _strNode$[ebp]
  00174	ff 15 00 00 00
	00		 call	 DWORD PTR __imp_?Remove@?$CStringT@DV?$StrTraitMFC_DLL@DV?$ChTraitsCRT@D@ATL@@@@@ATL@@QAEHD@Z
; File C:\Program Files (x86)\Microsoft Visual Studio\2019\Community\VC\Tools\MSVC\14.29.30133\atlmfc\include\atlsimpstr.h

; 519  : 		return( GetData()->nDataLength );

  0017a	8b 45 a8	 mov	 eax, DWORD PTR _strNode$[ebp]
; File D:\git\src\IBK\IBK_DRFN\ProjSrc\SrcDrfn\DrCommon\PartnerMng\ChartItemFOHoga.cpp

; 146  : 	memcpy(stOut.uplmtprice, strNode, min(strNode.GetLength(), sizeof(stOut.uplmtprice)));

  0017d	8b d6		 mov	 edx, esi
  0017f	39 50 f4	 cmp	 DWORD PTR [eax-12], edx
  00182	0f 42 50 f4	 cmovb	 edx, DWORD PTR [eax-12]
  00186	52		 push	 edx
  00187	50		 push	 eax
  00188	8d 45 ba	 lea	 eax, DWORD PTR _stOut$[ebp+14]
  0018b	50		 push	 eax
  0018c	e8 00 00 00 00	 call	 _memcpy

; 147  : 
; 148  : 	strNode = CDataConverter::Parser(strSrc, sCELL);	// 하한가

  00191	83 c4 08	 add	 esp, 8
  00194	8b cc		 mov	 ecx, esp
  00196	6a 01		 push	 1
  00198	6a 09		 push	 9
  0019a	ff 15 00 00 00
	00		 call	 DWORD PTR __imp_??0?$CStringT@DV?$StrTraitMFC_DLL@DV?$ChTraitsCRT@D@ATL@@@@@ATL@@QAE@DH@Z
  001a0	8d 45 a0	 lea	 eax, DWORD PTR _strSrc$[ebp]
  001a3	50		 push	 eax
  001a4	8d 45 a4	 lea	 eax, DWORD PTR $T9[ebp]
  001a7	50		 push	 eax
  001a8	e8 00 00 00 00	 call	 ?Parser@CDataConverter@@SA?AV?$CStringT@DV?$StrTraitMFC_DLL@DV?$ChTraitsCRT@D@ATL@@@@@ATL@@AAV23@V23@@Z ; CDataConverter::Parser
  001ad	83 c4 0c	 add	 esp, 12			; 0000000cH
  001b0	50		 push	 eax
  001b1	8d 4d a8	 lea	 ecx, DWORD PTR _strNode$[ebp]
  001b4	c6 45 fc 05	 mov	 BYTE PTR __$EHRec$[ebp+8], 5
  001b8	ff 15 00 00 00
	00		 call	 DWORD PTR __imp_??4?$CStringT@DV?$StrTraitMFC_DLL@DV?$ChTraitsCRT@D@ATL@@@@@ATL@@QAEAAV01@ABV01@@Z
  001be	8d 4d a4	 lea	 ecx, DWORD PTR $T9[ebp]
  001c1	c6 45 fc 02	 mov	 BYTE PTR __$EHRec$[ebp+8], 2
  001c5	ff 15 00 00 00
	00		 call	 DWORD PTR __imp_??1?$CStringT@DV?$StrTraitMFC_DLL@DV?$ChTraitsCRT@D@ATL@@@@@ATL@@QAE@XZ

; 149  : 	strNode.Remove('.');

  001cb	6a 2e		 push	 46			; 0000002eH
  001cd	8d 4d a8	 lea	 ecx, DWORD PTR _strNode$[ebp]
  001d0	ff 15 00 00 00
	00		 call	 DWORD PTR __imp_?Remove@?$CStringT@DV?$StrTraitMFC_DLL@DV?$ChTraitsCRT@D@ATL@@@@@ATL@@QAEHD@Z
; File C:\Program Files (x86)\Microsoft Visual Studio\2019\Community\VC\Tools\MSVC\14.29.30133\atlmfc\include\atlsimpstr.h

; 519  : 		return( GetData()->nDataLength );

  001d6	8b 45 a8	 mov	 eax, DWORD PTR _strNode$[ebp]
; File D:\git\src\IBK\IBK_DRFN\ProjSrc\SrcDrfn\DrCommon\PartnerMng\ChartItemFOHoga.cpp

; 150  : 	memcpy(stOut.dnlmtprice, strNode, min(strNode.GetLength(), sizeof(stOut.dnlmtprice)));

  001d9	8b d6		 mov	 edx, esi
  001db	39 50 f4	 cmp	 DWORD PTR [eax-12], edx
  001de	0f 42 50 f4	 cmovb	 edx, DWORD PTR [eax-12]
  001e2	52		 push	 edx
  001e3	50		 push	 eax
  001e4	8d 45 c0	 lea	 eax, DWORD PTR _stOut$[ebp+20]
  001e7	50		 push	 eax
  001e8	e8 00 00 00 00	 call	 _memcpy

; 151  : 
; 152  : 	strNode = CDataConverter::Parser(strSrc, sCELL);	// 현재가

  001ed	83 c4 08	 add	 esp, 8
  001f0	8b cc		 mov	 ecx, esp
  001f2	6a 01		 push	 1
  001f4	6a 09		 push	 9
  001f6	ff 15 00 00 00
	00		 call	 DWORD PTR __imp_??0?$CStringT@DV?$StrTraitMFC_DLL@DV?$ChTraitsCRT@D@ATL@@@@@ATL@@QAE@DH@Z
  001fc	8d 45 a0	 lea	 eax, DWORD PTR _strSrc$[ebp]
  001ff	50		 push	 eax
  00200	8d 45 a4	 lea	 eax, DWORD PTR $T8[ebp]
  00203	50		 push	 eax
  00204	e8 00 00 00 00	 call	 ?Parser@CDataConverter@@SA?AV?$CStringT@DV?$StrTraitMFC_DLL@DV?$ChTraitsCRT@D@ATL@@@@@ATL@@AAV23@V23@@Z ; CDataConverter::Parser
  00209	83 c4 0c	 add	 esp, 12			; 0000000cH
  0020c	50		 push	 eax
  0020d	8d 4d a8	 lea	 ecx, DWORD PTR _strNode$[ebp]
  00210	c6 45 fc 06	 mov	 BYTE PTR __$EHRec$[ebp+8], 6
  00214	ff 15 00 00 00
	00		 call	 DWORD PTR __imp_??4?$CStringT@DV?$StrTraitMFC_DLL@DV?$ChTraitsCRT@D@ATL@@@@@ATL@@QAEAAV01@ABV01@@Z
  0021a	8d 4d a4	 lea	 ecx, DWORD PTR $T8[ebp]
  0021d	c6 45 fc 02	 mov	 BYTE PTR __$EHRec$[ebp+8], 2
  00221	ff 15 00 00 00
	00		 call	 DWORD PTR __imp_??1?$CStringT@DV?$StrTraitMFC_DLL@DV?$ChTraitsCRT@D@ATL@@@@@ATL@@QAE@XZ

; 153  : 	strNode.Remove('.');

  00227	6a 2e		 push	 46			; 0000002eH
  00229	8d 4d a8	 lea	 ecx, DWORD PTR _strNode$[ebp]
  0022c	ff 15 00 00 00
	00		 call	 DWORD PTR __imp_?Remove@?$CStringT@DV?$StrTraitMFC_DLL@DV?$ChTraitsCRT@D@ATL@@@@@ATL@@QAEHD@Z
; File C:\Program Files (x86)\Microsoft Visual Studio\2019\Community\VC\Tools\MSVC\14.29.30133\atlmfc\include\atlsimpstr.h

; 519  : 		return( GetData()->nDataLength );

  00232	8b 45 a8	 mov	 eax, DWORD PTR _strNode$[ebp]
; File D:\git\src\IBK\IBK_DRFN\ProjSrc\SrcDrfn\DrCommon\PartnerMng\ChartItemFOHoga.cpp

; 154  : 	memcpy(stOut.price, strNode, min(strNode.GetLength(), sizeof(stOut.price)));

  00235	8b d6		 mov	 edx, esi
  00237	39 50 f4	 cmp	 DWORD PTR [eax-12], edx
  0023a	0f 42 50 f4	 cmovb	 edx, DWORD PTR [eax-12]
  0023e	52		 push	 edx
  0023f	50		 push	 eax
  00240	8d 45 c6	 lea	 eax, DWORD PTR _stOut$[ebp+26]
  00243	50		 push	 eax
  00244	e8 00 00 00 00	 call	 _memcpy

; 155  : 
; 156  : 	strNode = CDataConverter::Parser(strSrc, sCELL);	// 매도호가1

  00249	83 c4 08	 add	 esp, 8
  0024c	8b cc		 mov	 ecx, esp
  0024e	6a 01		 push	 1
  00250	6a 09		 push	 9
  00252	ff 15 00 00 00
	00		 call	 DWORD PTR __imp_??0?$CStringT@DV?$StrTraitMFC_DLL@DV?$ChTraitsCRT@D@ATL@@@@@ATL@@QAE@DH@Z
  00258	8d 45 a0	 lea	 eax, DWORD PTR _strSrc$[ebp]
  0025b	50		 push	 eax
  0025c	8d 45 a4	 lea	 eax, DWORD PTR $T7[ebp]
  0025f	50		 push	 eax
  00260	e8 00 00 00 00	 call	 ?Parser@CDataConverter@@SA?AV?$CStringT@DV?$StrTraitMFC_DLL@DV?$ChTraitsCRT@D@ATL@@@@@ATL@@AAV23@V23@@Z ; CDataConverter::Parser
  00265	83 c4 0c	 add	 esp, 12			; 0000000cH
  00268	50		 push	 eax
  00269	8d 4d a8	 lea	 ecx, DWORD PTR _strNode$[ebp]
  0026c	c6 45 fc 07	 mov	 BYTE PTR __$EHRec$[ebp+8], 7
  00270	ff 15 00 00 00
	00		 call	 DWORD PTR __imp_??4?$CStringT@DV?$StrTraitMFC_DLL@DV?$ChTraitsCRT@D@ATL@@@@@ATL@@QAEAAV01@ABV01@@Z
  00276	8d 4d a4	 lea	 ecx, DWORD PTR $T7[ebp]
  00279	c6 45 fc 02	 mov	 BYTE PTR __$EHRec$[ebp+8], 2
  0027d	ff 15 00 00 00
	00		 call	 DWORD PTR __imp_??1?$CStringT@DV?$StrTraitMFC_DLL@DV?$ChTraitsCRT@D@ATL@@@@@ATL@@QAE@XZ

; 157  : 	strNode.Remove('.');

  00283	6a 2e		 push	 46			; 0000002eH
  00285	8d 4d a8	 lea	 ecx, DWORD PTR _strNode$[ebp]
  00288	ff 15 00 00 00
	00		 call	 DWORD PTR __imp_?Remove@?$CStringT@DV?$StrTraitMFC_DLL@DV?$ChTraitsCRT@D@ATL@@@@@ATL@@QAEHD@Z
; File C:\Program Files (x86)\Microsoft Visual Studio\2019\Community\VC\Tools\MSVC\14.29.30133\atlmfc\include\atlsimpstr.h

; 519  : 		return( GetData()->nDataLength );

  0028e	8b 45 a8	 mov	 eax, DWORD PTR _strNode$[ebp]
; File D:\git\src\IBK\IBK_DRFN\ProjSrc\SrcDrfn\DrCommon\PartnerMng\ChartItemFOHoga.cpp

; 158  : 	memcpy(stOut.offerho1, strNode, min(strNode.GetLength(), sizeof(stOut.offerho1)));

  00291	8b d6		 mov	 edx, esi
  00293	39 50 f4	 cmp	 DWORD PTR [eax-12], edx
  00296	0f 42 50 f4	 cmovb	 edx, DWORD PTR [eax-12]
  0029a	52		 push	 edx
  0029b	50		 push	 eax
  0029c	8d 45 cc	 lea	 eax, DWORD PTR _stOut$[ebp+32]
  0029f	50		 push	 eax
  002a0	e8 00 00 00 00	 call	 _memcpy

; 159  : 
; 160  : 	strNode = CDataConverter::Parser(strSrc, sCELL);	// 매도호가2

  002a5	83 c4 08	 add	 esp, 8
  002a8	8b cc		 mov	 ecx, esp
  002aa	6a 01		 push	 1
  002ac	6a 09		 push	 9
  002ae	ff 15 00 00 00
	00		 call	 DWORD PTR __imp_??0?$CStringT@DV?$StrTraitMFC_DLL@DV?$ChTraitsCRT@D@ATL@@@@@ATL@@QAE@DH@Z
  002b4	8d 45 a0	 lea	 eax, DWORD PTR _strSrc$[ebp]
  002b7	50		 push	 eax
  002b8	8d 45 a4	 lea	 eax, DWORD PTR $T6[ebp]
  002bb	50		 push	 eax
  002bc	e8 00 00 00 00	 call	 ?Parser@CDataConverter@@SA?AV?$CStringT@DV?$StrTraitMFC_DLL@DV?$ChTraitsCRT@D@ATL@@@@@ATL@@AAV23@V23@@Z ; CDataConverter::Parser
  002c1	83 c4 0c	 add	 esp, 12			; 0000000cH
  002c4	50		 push	 eax
  002c5	8d 4d a8	 lea	 ecx, DWORD PTR _strNode$[ebp]
  002c8	c6 45 fc 08	 mov	 BYTE PTR __$EHRec$[ebp+8], 8
  002cc	ff 15 00 00 00
	00		 call	 DWORD PTR __imp_??4?$CStringT@DV?$StrTraitMFC_DLL@DV?$ChTraitsCRT@D@ATL@@@@@ATL@@QAEAAV01@ABV01@@Z
  002d2	8d 4d a4	 lea	 ecx, DWORD PTR $T6[ebp]
  002d5	c6 45 fc 02	 mov	 BYTE PTR __$EHRec$[ebp+8], 2
  002d9	ff 15 00 00 00
	00		 call	 DWORD PTR __imp_??1?$CStringT@DV?$StrTraitMFC_DLL@DV?$ChTraitsCRT@D@ATL@@@@@ATL@@QAE@XZ

; 161  : 	strNode.Remove('.');

  002df	6a 2e		 push	 46			; 0000002eH
  002e1	8d 4d a8	 lea	 ecx, DWORD PTR _strNode$[ebp]
  002e4	ff 15 00 00 00
	00		 call	 DWORD PTR __imp_?Remove@?$CStringT@DV?$StrTraitMFC_DLL@DV?$ChTraitsCRT@D@ATL@@@@@ATL@@QAEHD@Z
; File C:\Program Files (x86)\Microsoft Visual Studio\2019\Community\VC\Tools\MSVC\14.29.30133\atlmfc\include\atlsimpstr.h

; 519  : 		return( GetData()->nDataLength );

  002ea	8b 45 a8	 mov	 eax, DWORD PTR _strNode$[ebp]
; File D:\git\src\IBK\IBK_DRFN\ProjSrc\SrcDrfn\DrCommon\PartnerMng\ChartItemFOHoga.cpp

; 162  : 	memcpy(stOut.offerho2, strNode, min(strNode.GetLength(), sizeof(stOut.offerho2)));

  002ed	8b d6		 mov	 edx, esi
  002ef	39 50 f4	 cmp	 DWORD PTR [eax-12], edx
  002f2	0f 42 50 f4	 cmovb	 edx, DWORD PTR [eax-12]
  002f6	52		 push	 edx
  002f7	50		 push	 eax
  002f8	8d 45 d2	 lea	 eax, DWORD PTR _stOut$[ebp+38]
  002fb	50		 push	 eax
  002fc	e8 00 00 00 00	 call	 _memcpy

; 163  : 
; 164  : 	strNode = CDataConverter::Parser(strSrc, sCELL);	// 매도호가3

  00301	83 c4 08	 add	 esp, 8
  00304	8b cc		 mov	 ecx, esp
  00306	6a 01		 push	 1
  00308	6a 09		 push	 9
  0030a	ff 15 00 00 00
	00		 call	 DWORD PTR __imp_??0?$CStringT@DV?$StrTraitMFC_DLL@DV?$ChTraitsCRT@D@ATL@@@@@ATL@@QAE@DH@Z
  00310	8d 45 a0	 lea	 eax, DWORD PTR _strSrc$[ebp]
  00313	50		 push	 eax
  00314	8d 45 a4	 lea	 eax, DWORD PTR $T5[ebp]
  00317	50		 push	 eax
  00318	e8 00 00 00 00	 call	 ?Parser@CDataConverter@@SA?AV?$CStringT@DV?$StrTraitMFC_DLL@DV?$ChTraitsCRT@D@ATL@@@@@ATL@@AAV23@V23@@Z ; CDataConverter::Parser
  0031d	83 c4 0c	 add	 esp, 12			; 0000000cH
  00320	50		 push	 eax
  00321	8d 4d a8	 lea	 ecx, DWORD PTR _strNode$[ebp]
  00324	c6 45 fc 09	 mov	 BYTE PTR __$EHRec$[ebp+8], 9
  00328	ff 15 00 00 00
	00		 call	 DWORD PTR __imp_??4?$CStringT@DV?$StrTraitMFC_DLL@DV?$ChTraitsCRT@D@ATL@@@@@ATL@@QAEAAV01@ABV01@@Z
  0032e	8d 4d a4	 lea	 ecx, DWORD PTR $T5[ebp]
  00331	c6 45 fc 02	 mov	 BYTE PTR __$EHRec$[ebp+8], 2
  00335	ff 15 00 00 00
	00		 call	 DWORD PTR __imp_??1?$CStringT@DV?$StrTraitMFC_DLL@DV?$ChTraitsCRT@D@ATL@@@@@ATL@@QAE@XZ

; 165  : 	strNode.Remove('.');

  0033b	6a 2e		 push	 46			; 0000002eH
  0033d	8d 4d a8	 lea	 ecx, DWORD PTR _strNode$[ebp]
  00340	ff 15 00 00 00
	00		 call	 DWORD PTR __imp_?Remove@?$CStringT@DV?$StrTraitMFC_DLL@DV?$ChTraitsCRT@D@ATL@@@@@ATL@@QAEHD@Z
; File C:\Program Files (x86)\Microsoft Visual Studio\2019\Community\VC\Tools\MSVC\14.29.30133\atlmfc\include\atlsimpstr.h

; 519  : 		return( GetData()->nDataLength );

  00346	8b 45 a8	 mov	 eax, DWORD PTR _strNode$[ebp]
; File D:\git\src\IBK\IBK_DRFN\ProjSrc\SrcDrfn\DrCommon\PartnerMng\ChartItemFOHoga.cpp

; 166  : 	memcpy(stOut.offerho3, strNode, min(strNode.GetLength(), sizeof(stOut.offerho3)));

  00349	8b d6		 mov	 edx, esi
  0034b	39 50 f4	 cmp	 DWORD PTR [eax-12], edx
  0034e	0f 42 50 f4	 cmovb	 edx, DWORD PTR [eax-12]
  00352	52		 push	 edx
  00353	50		 push	 eax
  00354	8d 45 d8	 lea	 eax, DWORD PTR _stOut$[ebp+44]
  00357	50		 push	 eax
  00358	e8 00 00 00 00	 call	 _memcpy

; 167  : 
; 168  : 	strNode = CDataConverter::Parser(strSrc, sCELL);	// 매수호가1

  0035d	83 c4 08	 add	 esp, 8
  00360	8b cc		 mov	 ecx, esp
  00362	6a 01		 push	 1
  00364	6a 09		 push	 9
  00366	ff 15 00 00 00
	00		 call	 DWORD PTR __imp_??0?$CStringT@DV?$StrTraitMFC_DLL@DV?$ChTraitsCRT@D@ATL@@@@@ATL@@QAE@DH@Z
  0036c	8d 45 a0	 lea	 eax, DWORD PTR _strSrc$[ebp]
  0036f	50		 push	 eax
  00370	8d 45 a4	 lea	 eax, DWORD PTR $T4[ebp]
  00373	50		 push	 eax
  00374	e8 00 00 00 00	 call	 ?Parser@CDataConverter@@SA?AV?$CStringT@DV?$StrTraitMFC_DLL@DV?$ChTraitsCRT@D@ATL@@@@@ATL@@AAV23@V23@@Z ; CDataConverter::Parser
  00379	83 c4 0c	 add	 esp, 12			; 0000000cH
  0037c	50		 push	 eax
  0037d	8d 4d a8	 lea	 ecx, DWORD PTR _strNode$[ebp]
  00380	c6 45 fc 0a	 mov	 BYTE PTR __$EHRec$[ebp+8], 10 ; 0000000aH
  00384	ff 15 00 00 00
	00		 call	 DWORD PTR __imp_??4?$CStringT@DV?$StrTraitMFC_DLL@DV?$ChTraitsCRT@D@ATL@@@@@ATL@@QAEAAV01@ABV01@@Z
  0038a	8d 4d a4	 lea	 ecx, DWORD PTR $T4[ebp]
  0038d	c6 45 fc 02	 mov	 BYTE PTR __$EHRec$[ebp+8], 2
  00391	ff 15 00 00 00
	00		 call	 DWORD PTR __imp_??1?$CStringT@DV?$StrTraitMFC_DLL@DV?$ChTraitsCRT@D@ATL@@@@@ATL@@QAE@XZ

; 169  : 	strNode.Remove('.');

  00397	6a 2e		 push	 46			; 0000002eH
  00399	8d 4d a8	 lea	 ecx, DWORD PTR _strNode$[ebp]
  0039c	ff 15 00 00 00
	00		 call	 DWORD PTR __imp_?Remove@?$CStringT@DV?$StrTraitMFC_DLL@DV?$ChTraitsCRT@D@ATL@@@@@ATL@@QAEHD@Z
; File C:\Program Files (x86)\Microsoft Visual Studio\2019\Community\VC\Tools\MSVC\14.29.30133\atlmfc\include\atlsimpstr.h

; 519  : 		return( GetData()->nDataLength );

  003a2	8b 45 a8	 mov	 eax, DWORD PTR _strNode$[ebp]
; File D:\git\src\IBK\IBK_DRFN\ProjSrc\SrcDrfn\DrCommon\PartnerMng\ChartItemFOHoga.cpp

; 170  : 	memcpy(stOut.bidho1, strNode, min(strNode.GetLength(), sizeof(stOut.bidho1)));

  003a5	8b d6		 mov	 edx, esi
  003a7	39 50 f4	 cmp	 DWORD PTR [eax-12], edx
  003aa	0f 42 50 f4	 cmovb	 edx, DWORD PTR [eax-12]
  003ae	52		 push	 edx
  003af	50		 push	 eax
  003b0	8d 45 de	 lea	 eax, DWORD PTR _stOut$[ebp+50]
  003b3	50		 push	 eax
  003b4	e8 00 00 00 00	 call	 _memcpy

; 171  : 
; 172  : 	strNode = CDataConverter::Parser(strSrc, sCELL);	// 매수호가2

  003b9	83 c4 08	 add	 esp, 8
  003bc	8b cc		 mov	 ecx, esp
  003be	6a 01		 push	 1
  003c0	6a 09		 push	 9
  003c2	ff 15 00 00 00
	00		 call	 DWORD PTR __imp_??0?$CStringT@DV?$StrTraitMFC_DLL@DV?$ChTraitsCRT@D@ATL@@@@@ATL@@QAE@DH@Z
  003c8	8d 45 a0	 lea	 eax, DWORD PTR _strSrc$[ebp]
  003cb	50		 push	 eax
  003cc	8d 45 a4	 lea	 eax, DWORD PTR $T3[ebp]
  003cf	50		 push	 eax
  003d0	e8 00 00 00 00	 call	 ?Parser@CDataConverter@@SA?AV?$CStringT@DV?$StrTraitMFC_DLL@DV?$ChTraitsCRT@D@ATL@@@@@ATL@@AAV23@V23@@Z ; CDataConverter::Parser
  003d5	83 c4 0c	 add	 esp, 12			; 0000000cH
  003d8	50		 push	 eax
  003d9	8d 4d a8	 lea	 ecx, DWORD PTR _strNode$[ebp]
  003dc	c6 45 fc 0b	 mov	 BYTE PTR __$EHRec$[ebp+8], 11 ; 0000000bH
  003e0	ff 15 00 00 00
	00		 call	 DWORD PTR __imp_??4?$CStringT@DV?$StrTraitMFC_DLL@DV?$ChTraitsCRT@D@ATL@@@@@ATL@@QAEAAV01@ABV01@@Z
  003e6	8d 4d a4	 lea	 ecx, DWORD PTR $T3[ebp]
  003e9	c6 45 fc 02	 mov	 BYTE PTR __$EHRec$[ebp+8], 2
  003ed	ff 15 00 00 00
	00		 call	 DWORD PTR __imp_??1?$CStringT@DV?$StrTraitMFC_DLL@DV?$ChTraitsCRT@D@ATL@@@@@ATL@@QAE@XZ

; 173  : 	strNode.Remove('.');

  003f3	6a 2e		 push	 46			; 0000002eH
  003f5	8d 4d a8	 lea	 ecx, DWORD PTR _strNode$[ebp]
  003f8	ff 15 00 00 00
	00		 call	 DWORD PTR __imp_?Remove@?$CStringT@DV?$StrTraitMFC_DLL@DV?$ChTraitsCRT@D@ATL@@@@@ATL@@QAEHD@Z
; File C:\Program Files (x86)\Microsoft Visual Studio\2019\Community\VC\Tools\MSVC\14.29.30133\atlmfc\include\atlsimpstr.h

; 519  : 		return( GetData()->nDataLength );

  003fe	8b 45 a8	 mov	 eax, DWORD PTR _strNode$[ebp]
; File D:\git\src\IBK\IBK_DRFN\ProjSrc\SrcDrfn\DrCommon\PartnerMng\ChartItemFOHoga.cpp

; 174  : 	memcpy(stOut.bidho2, strNode, min(strNode.GetLength(), sizeof(stOut.bidho2)));

  00401	8b d6		 mov	 edx, esi
  00403	39 50 f4	 cmp	 DWORD PTR [eax-12], edx
  00406	0f 42 50 f4	 cmovb	 edx, DWORD PTR [eax-12]
  0040a	52		 push	 edx
  0040b	50		 push	 eax
  0040c	8d 45 e4	 lea	 eax, DWORD PTR _stOut$[ebp+56]
  0040f	50		 push	 eax
  00410	e8 00 00 00 00	 call	 _memcpy

; 175  : 
; 176  : 	strNode = CDataConverter::Parser(strSrc, sCELL);	// 매수호가3

  00415	83 c4 08	 add	 esp, 8
  00418	8b cc		 mov	 ecx, esp
  0041a	6a 01		 push	 1
  0041c	6a 09		 push	 9
  0041e	ff 15 00 00 00
	00		 call	 DWORD PTR __imp_??0?$CStringT@DV?$StrTraitMFC_DLL@DV?$ChTraitsCRT@D@ATL@@@@@ATL@@QAE@DH@Z
  00424	8d 45 a0	 lea	 eax, DWORD PTR _strSrc$[ebp]
  00427	50		 push	 eax
  00428	8d 45 a4	 lea	 eax, DWORD PTR $T2[ebp]
  0042b	50		 push	 eax
  0042c	e8 00 00 00 00	 call	 ?Parser@CDataConverter@@SA?AV?$CStringT@DV?$StrTraitMFC_DLL@DV?$ChTraitsCRT@D@ATL@@@@@ATL@@AAV23@V23@@Z ; CDataConverter::Parser
  00431	83 c4 0c	 add	 esp, 12			; 0000000cH
  00434	50		 push	 eax
  00435	8d 4d a8	 lea	 ecx, DWORD PTR _strNode$[ebp]
  00438	c6 45 fc 0c	 mov	 BYTE PTR __$EHRec$[ebp+8], 12 ; 0000000cH
  0043c	ff 15 00 00 00
	00		 call	 DWORD PTR __imp_??4?$CStringT@DV?$StrTraitMFC_DLL@DV?$ChTraitsCRT@D@ATL@@@@@ATL@@QAEAAV01@ABV01@@Z
  00442	8d 4d a4	 lea	 ecx, DWORD PTR $T2[ebp]
  00445	c6 45 fc 02	 mov	 BYTE PTR __$EHRec$[ebp+8], 2
  00449	ff 15 00 00 00
	00		 call	 DWORD PTR __imp_??1?$CStringT@DV?$StrTraitMFC_DLL@DV?$ChTraitsCRT@D@ATL@@@@@ATL@@QAE@XZ

; 177  : 	strNode.Remove('.');

  0044f	6a 2e		 push	 46			; 0000002eH
  00451	8d 4d a8	 lea	 ecx, DWORD PTR _strNode$[ebp]
  00454	ff 15 00 00 00
	00		 call	 DWORD PTR __imp_?Remove@?$CStringT@DV?$StrTraitMFC_DLL@DV?$ChTraitsCRT@D@ATL@@@@@ATL@@QAEHD@Z

; 178  : 	memcpy(stOut.bidho3, strNode, min(strNode.GetLength(), sizeof(stOut.bidho3)));

  0045a	8b 45 a8	 mov	 eax, DWORD PTR _strNode$[ebp]
  0045d	39 70 f4	 cmp	 DWORD PTR [eax-12], esi
  00460	0f 42 70 f4	 cmovb	 esi, DWORD PTR [eax-12]
  00464	56		 push	 esi
  00465	50		 push	 eax
  00466	8d 45 ea	 lea	 eax, DWORD PTR _stOut$[ebp+62]
  00469	50		 push	 eax
  0046a	e8 00 00 00 00	 call	 _memcpy

; 179  : 
; 180  : 	int nSize = sizeof(KB_f0201_OutRec1);
; 181  : 
; 182  : 	char* pDataBuf = NULL;
; 183  : 	pDataBuf = new char[nSize+1];

  0046f	6a 45		 push	 69			; 00000045H
  00471	e8 00 00 00 00	 call	 ??_U@YAPAXI@Z		; operator new[]
  00476	8b f0		 mov	 esi, eax
  00478	83 c4 10	 add	 esp, 16			; 00000010H

; 184  : 	memset(pDataBuf, 0x00, nSize+1);

  0047b	c6 46 44 00	 mov	 BYTE PTR [esi+68], 0

; 185  : 	memcpy(pDataBuf, &stOut, sizeof(stOut));

  0047f	0f 10 45 ac	 movups	 xmm0, XMMWORD PTR _stOut$[ebp]
  00483	8b 4d ec	 mov	 ecx, DWORD PTR _stOut$[ebp+64]
  00486	0f 11 06	 movups	 XMMWORD PTR [esi], xmm0
  00489	0f 10 45 bc	 movups	 xmm0, XMMWORD PTR _stOut$[ebp+16]
  0048d	0f 11 46 10	 movups	 XMMWORD PTR [esi+16], xmm0
  00491	0f 10 45 cc	 movups	 xmm0, XMMWORD PTR _stOut$[ebp+32]
  00495	0f 11 46 20	 movups	 XMMWORD PTR [esi+32], xmm0
  00499	0f 10 45 dc	 movups	 xmm0, XMMWORD PTR _stOut$[ebp+48]
  0049d	0f 11 46 30	 movups	 XMMWORD PTR [esi+48], xmm0
  004a1	89 4e 40	 mov	 DWORD PTR [esi+64], ecx

; 186  : 
; 187  : 	return pDataBuf;

  004a4	8d 4d a0	 lea	 ecx, DWORD PTR _strSrc$[ebp]
  004a7	ff 15 00 00 00
	00		 call	 DWORD PTR __imp_??1?$CStringT@DV?$StrTraitMFC_DLL@DV?$ChTraitsCRT@D@ATL@@@@@ATL@@QAE@XZ
  004ad	8d 4d a8	 lea	 ecx, DWORD PTR _strNode$[ebp]
  004b0	ff 15 00 00 00
	00		 call	 DWORD PTR __imp_??1?$CStringT@DV?$StrTraitMFC_DLL@DV?$ChTraitsCRT@D@ATL@@@@@ATL@@QAE@XZ
  004b6	8d 4d 10	 lea	 ecx, DWORD PTR _szTRCode$[ebp]
  004b9	ff 15 00 00 00
	00		 call	 DWORD PTR __imp_??1?$CStringT@DV?$StrTraitMFC_DLL@DV?$ChTraitsCRT@D@ATL@@@@@ATL@@QAE@XZ
  004bf	8b c6		 mov	 eax, esi

; 188  : }

  004c1	8b 4d f4	 mov	 ecx, DWORD PTR __$EHRec$[ebp]
  004c4	64 89 0d 00 00
	00 00		 mov	 DWORD PTR fs:0, ecx
  004cb	59		 pop	 ecx
  004cc	5f		 pop	 edi
  004cd	5e		 pop	 esi
  004ce	8b 4d f0	 mov	 ecx, DWORD PTR __$ArrayPad$[ebp]
  004d1	33 cd		 xor	 ecx, ebp
  004d3	e8 00 00 00 00	 call	 @__security_check_cookie@4
  004d8	8b e5		 mov	 esp, ebp
  004da	5d		 pop	 ebp
  004db	c2 10 00	 ret	 16			; 00000010H
_TEXT	ENDS
;	COMDAT text$x
text$x	SEGMENT
__unwindfunclet$?Convert2Struct@CChartItemFOHoga@@QAEPADPAEHV?$CStringT@DV?$StrTraitMFC_DLL@DV?$ChTraitsCRT@D@ATL@@@@@ATL@@AAH@Z$0:
  00000	8d 4d 10	 lea	 ecx, DWORD PTR _szTRCode$[ebp]
  00003	ff 25 00 00 00
	00		 jmp	 DWORD PTR __imp_??1?$CStringT@DV?$StrTraitMFC_DLL@DV?$ChTraitsCRT@D@ATL@@@@@ATL@@QAE@XZ
__unwindfunclet$?Convert2Struct@CChartItemFOHoga@@QAEPADPAEHV?$CStringT@DV?$StrTraitMFC_DLL@DV?$ChTraitsCRT@D@ATL@@@@@ATL@@AAH@Z$1:
  00009	8d 4d a8	 lea	 ecx, DWORD PTR _strNode$[ebp]
  0000c	ff 25 00 00 00
	00		 jmp	 DWORD PTR __imp_??1?$CStringT@DV?$StrTraitMFC_DLL@DV?$ChTraitsCRT@D@ATL@@@@@ATL@@QAE@XZ
__unwindfunclet$?Convert2Struct@CChartItemFOHoga@@QAEPADPAEHV?$CStringT@DV?$StrTraitMFC_DLL@DV?$ChTraitsCRT@D@ATL@@@@@ATL@@AAH@Z$2:
  00012	8d 4d a0	 lea	 ecx, DWORD PTR _strSrc$[ebp]
  00015	ff 25 00 00 00
	00		 jmp	 DWORD PTR __imp_??1?$CStringT@DV?$StrTraitMFC_DLL@DV?$ChTraitsCRT@D@ATL@@@@@ATL@@QAE@XZ
__unwindfunclet$?Convert2Struct@CChartItemFOHoga@@QAEPADPAEHV?$CStringT@DV?$StrTraitMFC_DLL@DV?$ChTraitsCRT@D@ATL@@@@@ATL@@AAH@Z$4:
  0001b	8d 4d a4	 lea	 ecx, DWORD PTR $T11[ebp]
  0001e	ff 25 00 00 00
	00		 jmp	 DWORD PTR __imp_??1?$CStringT@DV?$StrTraitMFC_DLL@DV?$ChTraitsCRT@D@ATL@@@@@ATL@@QAE@XZ
__unwindfunclet$?Convert2Struct@CChartItemFOHoga@@QAEPADPAEHV?$CStringT@DV?$StrTraitMFC_DLL@DV?$ChTraitsCRT@D@ATL@@@@@ATL@@AAH@Z$6:
  00024	8d 4d a4	 lea	 ecx, DWORD PTR $T10[ebp]
  00027	ff 25 00 00 00
	00		 jmp	 DWORD PTR __imp_??1?$CStringT@DV?$StrTraitMFC_DLL@DV?$ChTraitsCRT@D@ATL@@@@@ATL@@QAE@XZ
__unwindfunclet$?Convert2Struct@CChartItemFOHoga@@QAEPADPAEHV?$CStringT@DV?$StrTraitMFC_DLL@DV?$ChTraitsCRT@D@ATL@@@@@ATL@@AAH@Z$8:
  0002d	8d 4d a4	 lea	 ecx, DWORD PTR $T9[ebp]
  00030	ff 25 00 00 00
	00		 jmp	 DWORD PTR __imp_??1?$CStringT@DV?$StrTraitMFC_DLL@DV?$ChTraitsCRT@D@ATL@@@@@ATL@@QAE@XZ
__unwindfunclet$?Convert2Struct@CChartItemFOHoga@@QAEPADPAEHV?$CStringT@DV?$StrTraitMFC_DLL@DV?$ChTraitsCRT@D@ATL@@@@@ATL@@AAH@Z$10:
  00036	8d 4d a4	 lea	 ecx, DWORD PTR $T8[ebp]
  00039	ff 25 00 00 00
	00		 jmp	 DWORD PTR __imp_??1?$CStringT@DV?$StrTraitMFC_DLL@DV?$ChTraitsCRT@D@ATL@@@@@ATL@@QAE@XZ
__unwindfunclet$?Convert2Struct@CChartItemFOHoga@@QAEPADPAEHV?$CStringT@DV?$StrTraitMFC_DLL@DV?$ChTraitsCRT@D@ATL@@@@@ATL@@AAH@Z$12:
  0003f	8d 4d a4	 lea	 ecx, DWORD PTR $T7[ebp]
  00042	ff 25 00 00 00
	00		 jmp	 DWORD PTR __imp_??1?$CStringT@DV?$StrTraitMFC_DLL@DV?$ChTraitsCRT@D@ATL@@@@@ATL@@QAE@XZ
__unwindfunclet$?Convert2Struct@CChartItemFOHoga@@QAEPADPAEHV?$CStringT@DV?$StrTraitMFC_DLL@DV?$ChTraitsCRT@D@ATL@@@@@ATL@@AAH@Z$14:
  00048	8d 4d a4	 lea	 ecx, DWORD PTR $T6[ebp]
  0004b	ff 25 00 00 00
	00		 jmp	 DWORD PTR __imp_??1?$CStringT@DV?$StrTraitMFC_DLL@DV?$ChTraitsCRT@D@ATL@@@@@ATL@@QAE@XZ
__unwindfunclet$?Convert2Struct@CChartItemFOHoga@@QAEPADPAEHV?$CStringT@DV?$StrTraitMFC_DLL@DV?$ChTraitsCRT@D@ATL@@@@@ATL@@AAH@Z$16:
  00051	8d 4d a4	 lea	 ecx, DWORD PTR $T5[ebp]
  00054	ff 25 00 00 00
	00		 jmp	 DWORD PTR __imp_??1?$CStringT@DV?$StrTraitMFC_DLL@DV?$ChTraitsCRT@D@ATL@@@@@ATL@@QAE@XZ
__unwindfunclet$?Convert2Struct@CChartItemFOHoga@@QAEPADPAEHV?$CStringT@DV?$StrTraitMFC_DLL@DV?$ChTraitsCRT@D@ATL@@@@@ATL@@AAH@Z$18:
  0005a	8d 4d a4	 lea	 ecx, DWORD PTR $T4[ebp]
  0005d	ff 25 00 00 00
	00		 jmp	 DWORD PTR __imp_??1?$CStringT@DV?$StrTraitMFC_DLL@DV?$ChTraitsCRT@D@ATL@@@@@ATL@@QAE@XZ
__unwindfunclet$?Convert2Struct@CChartItemFOHoga@@QAEPADPAEHV?$CStringT@DV?$StrTraitMFC_DLL@DV?$ChTraitsCRT@D@ATL@@@@@ATL@@AAH@Z$20:
  00063	8d 4d a4	 lea	 ecx, DWORD PTR $T3[ebp]
  00066	ff 25 00 00 00
	00		 jmp	 DWORD PTR __imp_??1?$CStringT@DV?$StrTraitMFC_DLL@DV?$ChTraitsCRT@D@ATL@@@@@ATL@@QAE@XZ
__unwindfunclet$?Convert2Struct@CChartItemFOHoga@@QAEPADPAEHV?$CStringT@DV?$StrTraitMFC_DLL@DV?$ChTraitsCRT@D@ATL@@@@@ATL@@AAH@Z$22:
  0006c	8d 4d a4	 lea	 ecx, DWORD PTR $T2[ebp]
  0006f	ff 25 00 00 00
	00		 jmp	 DWORD PTR __imp_??1?$CStringT@DV?$StrTraitMFC_DLL@DV?$ChTraitsCRT@D@ATL@@@@@ATL@@QAE@XZ
  00075	cc		 int	 3
  00076	cc		 int	 3
  00077	cc		 int	 3
  00078	cc		 int	 3
  00079	cc		 int	 3
__ehhandler$?Convert2Struct@CChartItemFOHoga@@QAEPADPAEHV?$CStringT@DV?$StrTraitMFC_DLL@DV?$ChTraitsCRT@D@ATL@@@@@ATL@@AAH@Z:
  0007a	90		 npad	 1
  0007b	90		 npad	 1
  0007c	8b 54 24 08	 mov	 edx, DWORD PTR [esp+8]
  00080	8d 42 0c	 lea	 eax, DWORD PTR [edx+12]
  00083	8b 4a a0	 mov	 ecx, DWORD PTR [edx-96]
  00086	33 c8		 xor	 ecx, eax
  00088	e8 00 00 00 00	 call	 @__security_check_cookie@4
  0008d	8b 4a fc	 mov	 ecx, DWORD PTR [edx-4]
  00090	33 c8		 xor	 ecx, eax
  00092	e8 00 00 00 00	 call	 @__security_check_cookie@4
  00097	b8 00 00 00 00	 mov	 eax, OFFSET __ehfuncinfo$?Convert2Struct@CChartItemFOHoga@@QAEPADPAEHV?$CStringT@DV?$StrTraitMFC_DLL@DV?$ChTraitsCRT@D@ATL@@@@@ATL@@AAH@Z
  0009c	e9 00 00 00 00	 jmp	 ___CxxFrameHandler3
text$x	ENDS
?Convert2Struct@CChartItemFOHoga@@QAEPADPAEHV?$CStringT@DV?$StrTraitMFC_DLL@DV?$ChTraitsCRT@D@ATL@@@@@ATL@@AAH@Z ENDP ; CChartItemFOHoga::Convert2Struct
; Function compile flags: /Ogtp
; File D:\git\src\IBK\IBK_DRFN\ProjSrc\SrcDrfn\DrCommon\PartnerMng\ChartItemFOHoga.cpp
; File D:\git\src\IBK\IBK_DRFN\ProjSrc\SrcDrfn\inc\IBaseDefine.h
; File D:\git\src\IBK\IBK_DRFN\ProjSrc\SrcDrfn\DrCommon\PartnerMng\ChartItemFOHoga.cpp
;	COMDAT ?Convert@CChartItemFOHoga@@QAE?AV?$CStringT@DV?$StrTraitMFC_DLL@DV?$ChTraitsCRT@D@ATL@@@@@ATL@@XZ
_TEXT	SEGMENT
___$ReturnUdt$GSCopy$ = -48				; size = 4
$T2 = -44						; size = 4
_strCode$ = -40						; size = 4
$T3 = -36						; size = 4
_hMainWnd$4 = -36					; size = 4
$T5 = -36						; size = 4
_strCode$6 = -32					; size = 4
_szClipFormat$7 = -32					; size = 4
_aBufWnd$8 = -28					; size = 9
__$ArrayPad$ = -16					; size = 4
__$EHRec$ = -12						; size = 12
___$ReturnUdt$ = 8					; size = 4
?Convert@CChartItemFOHoga@@QAE?AV?$CStringT@DV?$StrTraitMFC_DLL@DV?$ChTraitsCRT@D@ATL@@@@@ATL@@XZ PROC ; CChartItemFOHoga::Convert, COMDAT
; _this$ = ecx

; 53   : {

  00000	55		 push	 ebp
  00001	8b ec		 mov	 ebp, esp
  00003	6a ff		 push	 -1
  00005	68 00 00 00 00	 push	 __ehhandler$?Convert@CChartItemFOHoga@@QAE?AV?$CStringT@DV?$StrTraitMFC_DLL@DV?$ChTraitsCRT@D@ATL@@@@@ATL@@XZ
  0000a	64 a1 00 00 00
	00		 mov	 eax, DWORD PTR fs:0
  00010	50		 push	 eax
  00011	83 ec 24	 sub	 esp, 36			; 00000024H
  00014	a1 00 00 00 00	 mov	 eax, DWORD PTR ___security_cookie
  00019	33 c5		 xor	 eax, ebp
  0001b	89 45 f0	 mov	 DWORD PTR __$ArrayPad$[ebp], eax
  0001e	53		 push	 ebx
  0001f	56		 push	 esi
  00020	57		 push	 edi
  00021	50		 push	 eax
  00022	8d 45 f4	 lea	 eax, DWORD PTR __$EHRec$[ebp]
  00025	64 a3 00 00 00
	00		 mov	 DWORD PTR fs:0, eax
  0002b	8b d9		 mov	 ebx, ecx
  0002d	8b 7d 08	 mov	 edi, DWORD PTR ___$ReturnUdt$[ebp]
  00030	89 7d d0	 mov	 DWORD PTR ___$ReturnUdt$GSCopy$[ebp], edi
  00033	c7 45 d4 00 00
	00 00		 mov	 DWORD PTR $T2[ebp], 0

; 54   : 	if(!m_bSet) return "";

  0003a	80 7b 14 00	 cmp	 BYTE PTR [ebx+20], 0
  0003e	75 12		 jne	 SHORT $LN4@Convert
  00040	68 00 00 00 00	 push	 OFFSET ??_C@_00CNPNBAHC@@
  00045	8b cf		 mov	 ecx, edi
  00047	ff 15 00 00 00
	00		 call	 DWORD PTR __imp_??0?$CStringT@DV?$StrTraitMFC_DLL@DV?$ChTraitsCRT@D@ATL@@@@@ATL@@QAE@PBD@Z
  0004d	e9 b9 01 00 00	 jmp	 $LN35@Convert
$LN4@Convert:

; 55   : 	CString strCode;

  00052	8d 4d d8	 lea	 ecx, DWORD PTR _strCode$[ebp]
  00055	ff 15 00 00 00
	00		 call	 DWORD PTR __imp_??0?$CStringT@DV?$StrTraitMFC_DLL@DV?$ChTraitsCRT@D@ATL@@@@@ATL@@QAE@XZ

; 56   : 	strCode = CString(m_InData.futcode, sizeof(m_InData.futcode));

  0005b	6a 08		 push	 8
  0005d	8d 73 08	 lea	 esi, DWORD PTR [ebx+8]
  00060	c7 45 fc 00 00
	00 00		 mov	 DWORD PTR __$EHRec$[ebp+8], 0
  00067	56		 push	 esi
  00068	8d 4d dc	 lea	 ecx, DWORD PTR $T5[ebp]
  0006b	ff 15 00 00 00
	00		 call	 DWORD PTR __imp_??0?$CStringT@DV?$StrTraitMFC_DLL@DV?$ChTraitsCRT@D@ATL@@@@@ATL@@QAE@PBDH@Z
  00071	50		 push	 eax
  00072	8d 4d d8	 lea	 ecx, DWORD PTR _strCode$[ebp]
  00075	c6 45 fc 01	 mov	 BYTE PTR __$EHRec$[ebp+8], 1
  00079	ff 15 00 00 00
	00		 call	 DWORD PTR __imp_??4?$CStringT@DV?$StrTraitMFC_DLL@DV?$ChTraitsCRT@D@ATL@@@@@ATL@@QAEAAV01@ABV01@@Z
  0007f	8d 4d dc	 lea	 ecx, DWORD PTR $T5[ebp]
  00082	ff 15 00 00 00
	00		 call	 DWORD PTR __imp_??1?$CStringT@DV?$StrTraitMFC_DLL@DV?$ChTraitsCRT@D@ATL@@@@@ATL@@QAE@XZ
  00088	0f 57 c0	 xorps	 xmm0, xmm0
; File D:\git\src\IBK\IBK_DRFN\ProjSrc\SrcDrfn\inc\IBaseDefine.h

; 262  : 	AfxGetHanaroMainWnd(hMainWnd);

  0008b	c7 45 dc 00 00
	00 00		 mov	 DWORD PTR _hMainWnd$4[ebp], 0
  00092	8d 4d e0	 lea	 ecx, DWORD PTR _szClipFormat$7[ebp]
  00095	66 0f d6 45 e4	 movq	 QWORD PTR _aBufWnd$8[ebp], xmm0
  0009a	c6 45 ec 00	 mov	 BYTE PTR _aBufWnd$8[ebp+8], 0
  0009e	ff 15 00 00 00
	00		 call	 DWORD PTR __imp_??0?$CStringT@DV?$StrTraitMFC_DLL@DV?$ChTraitsCRT@D@ATL@@@@@ATL@@QAE@XZ
  000a4	68 00 00 00 00	 push	 OFFSET ??_C@_0M@CBBNGGHM@PcTrMng?4dll@
  000a9	c6 45 fc 02	 mov	 BYTE PTR __$EHRec$[ebp+8], 2
  000ad	ff 15 00 00 00
	00		 call	 DWORD PTR __imp__GetModuleHandleA@4
  000b3	50		 push	 eax
  000b4	68 00 00 00 00	 push	 OFFSET ??_C@_0P@IDMAJEGN@HANAROPCTRMAIN@
  000b9	8d 45 e0	 lea	 eax, DWORD PTR _szClipFormat$7[ebp]
  000bc	68 00 00 00 00	 push	 OFFSET ??_C@_06NDLAHCHE@?$CFs?$CF08X@
  000c1	50		 push	 eax
  000c2	ff 15 00 00 00
	00		 call	 DWORD PTR __imp_?Format@?$CStringT@DV?$StrTraitMFC_DLL@DV?$ChTraitsCRT@D@ATL@@@@@ATL@@QAAXPBDZZ
  000c8	83 c4 10	 add	 esp, 16			; 00000010H
  000cb	8d 45 e4	 lea	 eax, DWORD PTR _aBufWnd$8[ebp]
  000ce	6a 09		 push	 9
  000d0	50		 push	 eax
  000d1	ff 75 e0	 push	 DWORD PTR _szClipFormat$7[ebp]
  000d4	ff 15 00 00 00
	00		 call	 DWORD PTR __imp__GetEnvironmentVariableA@12
  000da	8d 45 dc	 lea	 eax, DWORD PTR _hMainWnd$4[ebp]
  000dd	50		 push	 eax
  000de	8d 45 e4	 lea	 eax, DWORD PTR _aBufWnd$8[ebp]
  000e1	68 00 00 00 00	 push	 OFFSET ??_C@_02EMFKHFLK@?$CFX@
  000e6	50		 push	 eax
  000e7	e8 00 00 00 00	 call	 _sscanf
  000ec	83 c4 0c	 add	 esp, 12			; 0000000cH
  000ef	c6 45 fc 00	 mov	 BYTE PTR __$EHRec$[ebp+8], 0
  000f3	8d 4d e0	 lea	 ecx, DWORD PTR _szClipFormat$7[ebp]
  000f6	ff 15 00 00 00
	00		 call	 DWORD PTR __imp_??1?$CStringT@DV?$StrTraitMFC_DLL@DV?$ChTraitsCRT@D@ATL@@@@@ATL@@QAE@XZ

; 263  : 
; 264  : 	return ::SendMessage(hMainWnd, RMSG_INTERFACE, (WPARAM)nID, 0);

  000fc	6a 00		 push	 0
  000fe	6a 05		 push	 5
  00100	ff 35 00 00 00
	00		 push	 DWORD PTR ?RMSG_INTERFACE@@3IB
  00106	ff 75 dc	 push	 DWORD PTR _hMainWnd$4[ebp]
  00109	ff 15 00 00 00
	00		 call	 DWORD PTR __imp__SendMessageA@16
; File D:\git\src\IBK\IBK_DRFN\ProjSrc\SrcDrfn\DrCommon\PartnerMng\ChartItemFOHoga.cpp

; 58   : 	m_nCodeType = pMasterDataManager->GetCodeTypeFromCode(strCode);

  0010f	ff 75 d8	 push	 DWORD PTR _strCode$[ebp]
  00112	50		 push	 eax
  00113	8b 08		 mov	 ecx, DWORD PTR [eax]
  00115	ff 91 d4 00 00
	00		 call	 DWORD PTR [ecx+212]
  0011b	0f b6 c0	 movzx	 eax, al
  0011e	89 43 10	 mov	 DWORD PTR [ebx+16], eax

; 59   : 	
; 60   : 	switch(m_nCodeType)

  00121	83 e8 05	 sub	 eax, 5
  00124	0f 84 d0 00 00
	00		 je	 $LN5@Convert
  0012a	83 e8 01	 sub	 eax, 1
  0012d	74 1b		 je	 SHORT $LN7@Convert
  0012f	83 e8 01	 sub	 eax, 1
  00132	0f 84 c2 00 00
	00		 je	 $LN5@Convert

; 70   : 		break;
; 71   : 	case CDRCodeTypeInfo::CODE_FUTURE_SPREAD:
; 72   : 		return ConvertFuture();
; 73   : 		break;
; 74   : 	}
; 75   : 
; 76   : 	return "";

  00138	68 00 00 00 00	 push	 OFFSET ??_C@_00CNPNBAHC@@
  0013d	8b cf		 mov	 ecx, edi
  0013f	ff 15 00 00 00
	00		 call	 DWORD PTR __imp_??0?$CStringT@DV?$StrTraitMFC_DLL@DV?$ChTraitsCRT@D@ATL@@@@@ATL@@QAE@PBD@Z
  00145	e9 b8 00 00 00	 jmp	 $LN36@Convert
$LN7@Convert:

; 107  : 	CString strData, strCode;

  0014a	8b cf		 mov	 ecx, edi
  0014c	ff 15 00 00 00
	00		 call	 DWORD PTR __imp_??0?$CStringT@DV?$StrTraitMFC_DLL@DV?$ChTraitsCRT@D@ATL@@@@@ATL@@QAE@XZ
  00152	8d 4d e0	 lea	 ecx, DWORD PTR _strCode$6[ebp]

; 126  : 	}
; 127  : 	return strData;

  00155	c7 45 d4 02 00
	00 00		 mov	 DWORD PTR $T2[ebp], 2
  0015c	ff 15 00 00 00
	00		 call	 DWORD PTR __imp_??0?$CStringT@DV?$StrTraitMFC_DLL@DV?$ChTraitsCRT@D@ATL@@@@@ATL@@QAE@XZ
  00162	6a 08		 push	 8
  00164	56		 push	 esi
  00165	8d 4d dc	 lea	 ecx, DWORD PTR $T3[ebp]
  00168	c7 45 fc 04 00
	00 00		 mov	 DWORD PTR __$EHRec$[ebp+8], 4
  0016f	ff 15 00 00 00
	00		 call	 DWORD PTR __imp_??0?$CStringT@DV?$StrTraitMFC_DLL@DV?$ChTraitsCRT@D@ATL@@@@@ATL@@QAE@PBDH@Z
  00175	50		 push	 eax
  00176	8d 4d e0	 lea	 ecx, DWORD PTR _strCode$6[ebp]
  00179	c6 45 fc 05	 mov	 BYTE PTR __$EHRec$[ebp+8], 5
  0017d	ff 15 00 00 00
	00		 call	 DWORD PTR __imp_??4?$CStringT@DV?$StrTraitMFC_DLL@DV?$ChTraitsCRT@D@ATL@@@@@ATL@@QAEAAV01@ABV01@@Z
  00183	8d 4d dc	 lea	 ecx, DWORD PTR $T3[ebp]
  00186	c6 45 fc 04	 mov	 BYTE PTR __$EHRec$[ebp+8], 4
  0018a	ff 15 00 00 00
	00		 call	 DWORD PTR __imp_??1?$CStringT@DV?$StrTraitMFC_DLL@DV?$ChTraitsCRT@D@ATL@@@@@ATL@@QAE@XZ
  00190	68 00 00 00 00	 push	 OFFSET ??_C@_05HAFPBGAM@40301@
  00195	8b cf		 mov	 ecx, edi
  00197	ff 15 00 00 00
	00		 call	 DWORD PTR __imp_??Y?$CStringT@DV?$StrTraitMFC_DLL@DV?$ChTraitsCRT@D@ATL@@@@@ATL@@QAEAAV01@PBD@Z
  0019d	6a 7f		 push	 127			; 0000007fH
  0019f	8b cf		 mov	 ecx, edi
  001a1	ff 15 00 00 00
	00		 call	 DWORD PTR __imp_??Y?$CStringT@DV?$StrTraitMFC_DLL@DV?$ChTraitsCRT@D@ATL@@@@@ATL@@QAEAAV01@D@Z
  001a7	8d 45 e0	 lea	 eax, DWORD PTR _strCode$6[ebp]
  001aa	8b cf		 mov	 ecx, edi
  001ac	50		 push	 eax
  001ad	ff 15 00 00 00
	00		 call	 DWORD PTR __imp_??Y?$CStringT@DV?$StrTraitMFC_DLL@DV?$ChTraitsCRT@D@ATL@@@@@ATL@@QAEAAV01@ABV?$CSimpleStringT@D$00@1@@Z
  001b3	6a 09		 push	 9
  001b5	8b cf		 mov	 ecx, edi
  001b7	ff 15 00 00 00
	00		 call	 DWORD PTR __imp_??Y?$CStringT@DV?$StrTraitMFC_DLL@DV?$ChTraitsCRT@D@ATL@@@@@ATL@@QAEAAV01@D@Z
  001bd	33 f6		 xor	 esi, esi
  001bf	39 73 04	 cmp	 DWORD PTR [ebx+4], esi
  001c2	7e 2b		 jle	 SHORT $LN23@Convert
  001c4	0f 1f 40 00 0f
	1f 84 00 00 00
	00 00		 npad	 12
$LL24@Convert:

; 108  : 	strCode = CString(m_InData.futcode, sizeof(m_InData.futcode));
; 109  : 	
; 110  : 	//////////////////////////////////////////////////////////////////////////
; 111  : 	// Inbound 데이터 작성
; 112  : 	//////////////////////////////////////////////////////////////////////////
; 113  : 	// 차트 데이터
; 114  : 	strData += "40301"; // 종목코드 Input 심볼
; 115  : 	strData += sDS;
; 116  : 	
; 117  : 	strData += strCode;
; 118  : 	strData += sCELL;
; 119  : 	
; 120  : 	//////////////////////////////////////////////////////////////////////////
; 121  : 	// 종목 시세 OutBound
; 122  : 	for (int i=0; i<m_nCnt; i++)
; 123  : 	{
; 124  : 		strData += szOptionHogaField[i];

  001d0	ff 34 b5 00 00
	00 00		 push	 DWORD PTR ?szOptionHogaField@@3PAPADA[esi*4]
  001d7	8b cf		 mov	 ecx, edi
  001d9	ff 15 00 00 00
	00		 call	 DWORD PTR __imp_??Y?$CStringT@DV?$StrTraitMFC_DLL@DV?$ChTraitsCRT@D@ATL@@@@@ATL@@QAEAAV01@PBD@Z

; 125  : 		strData += sCELL;

  001df	6a 09		 push	 9
  001e1	8b cf		 mov	 ecx, edi
  001e3	ff 15 00 00 00
	00		 call	 DWORD PTR __imp_??Y?$CStringT@DV?$StrTraitMFC_DLL@DV?$ChTraitsCRT@D@ATL@@@@@ATL@@QAEAAV01@D@Z
  001e9	46		 inc	 esi
  001ea	3b 73 04	 cmp	 esi, DWORD PTR [ebx+4]
  001ed	7c e1		 jl	 SHORT $LL24@Convert
$LN23@Convert:

; 126  : 	}
; 127  : 	return strData;

  001ef	8d 4d e0	 lea	 ecx, DWORD PTR _strCode$6[ebp]
  001f2	ff 15 00 00 00
	00		 call	 DWORD PTR __imp_??1?$CStringT@DV?$StrTraitMFC_DLL@DV?$ChTraitsCRT@D@ATL@@@@@ATL@@QAE@XZ

; 64   : 		break;
; 65   : 	case CDRCodeTypeInfo::CODE_FUOPT_COMMODITY://상품선물 
; 66   : 	//	return ConvertCommodity();	
; 67   : 		break;
; 68   : 	case	CDRCodeTypeInfo::CODE_KOPTION:
; 69   : 		return ConvertOption();//옵션일경우 첫자리가 2,3

  001f8	eb 08		 jmp	 SHORT $LN36@Convert
$LN5@Convert:

; 61   : 	{
; 62   : 	case CDRCodeTypeInfo::CODE_KFUTURE://연결선물?? 
; 63   : 		return ConvertFuture();

  001fa	57		 push	 edi
  001fb	8b cb		 mov	 ecx, ebx
  001fd	e8 00 00 00 00	 call	 ?ConvertFuture@CChartItemFOHoga@@QAE?AV?$CStringT@DV?$StrTraitMFC_DLL@DV?$ChTraitsCRT@D@ATL@@@@@ATL@@XZ ; CChartItemFOHoga::ConvertFuture
$LN36@Convert:

; 77   : }

  00202	8d 4d d8	 lea	 ecx, DWORD PTR _strCode$[ebp]
  00205	ff 15 00 00 00
	00		 call	 DWORD PTR __imp_??1?$CStringT@DV?$StrTraitMFC_DLL@DV?$ChTraitsCRT@D@ATL@@@@@ATL@@QAE@XZ
$LN35@Convert:
  0020b	8b c7		 mov	 eax, edi
  0020d	8b 4d f4	 mov	 ecx, DWORD PTR __$EHRec$[ebp]
  00210	64 89 0d 00 00
	00 00		 mov	 DWORD PTR fs:0, ecx
  00217	59		 pop	 ecx
  00218	5f		 pop	 edi
  00219	5e		 pop	 esi
  0021a	5b		 pop	 ebx
  0021b	8b 4d f0	 mov	 ecx, DWORD PTR __$ArrayPad$[ebp]
  0021e	33 cd		 xor	 ecx, ebp
  00220	e8 00 00 00 00	 call	 @__security_check_cookie@4
  00225	8b e5		 mov	 esp, ebp
  00227	5d		 pop	 ebp
  00228	c2 04 00	 ret	 4
_TEXT	ENDS
;	COMDAT text$x
text$x	SEGMENT
__unwindfunclet$?Convert@CChartItemFOHoga@@QAE?AV?$CStringT@DV?$StrTraitMFC_DLL@DV?$ChTraitsCRT@D@ATL@@@@@ATL@@XZ$1:
  00000	8d 4d d8	 lea	 ecx, DWORD PTR _strCode$[ebp]
  00003	ff 25 00 00 00
	00		 jmp	 DWORD PTR __imp_??1?$CStringT@DV?$StrTraitMFC_DLL@DV?$ChTraitsCRT@D@ATL@@@@@ATL@@QAE@XZ
__unwindfunclet$?Convert@CChartItemFOHoga@@QAE?AV?$CStringT@DV?$StrTraitMFC_DLL@DV?$ChTraitsCRT@D@ATL@@@@@ATL@@XZ$2:
  00009	8d 4d dc	 lea	 ecx, DWORD PTR $T5[ebp]
  0000c	ff 25 00 00 00
	00		 jmp	 DWORD PTR __imp_??1?$CStringT@DV?$StrTraitMFC_DLL@DV?$ChTraitsCRT@D@ATL@@@@@ATL@@QAE@XZ
__unwindfunclet$?Convert@CChartItemFOHoga@@QAE?AV?$CStringT@DV?$StrTraitMFC_DLL@DV?$ChTraitsCRT@D@ATL@@@@@ATL@@XZ$3:
  00012	8d 4d e0	 lea	 ecx, DWORD PTR _szClipFormat$7[ebp]
  00015	ff 25 00 00 00
	00		 jmp	 DWORD PTR __imp_??1?$CStringT@DV?$StrTraitMFC_DLL@DV?$ChTraitsCRT@D@ATL@@@@@ATL@@QAE@XZ
__unwindfunclet$?Convert@CChartItemFOHoga@@QAE?AV?$CStringT@DV?$StrTraitMFC_DLL@DV?$ChTraitsCRT@D@ATL@@@@@ATL@@XZ$4:
  0001b	8b 45 d4	 mov	 eax, DWORD PTR $T2[ebp]
  0001e	83 e0 02	 and	 eax, 2
  00021	0f 84 0d 00 00
	00		 je	 $LN27@Convert
  00027	83 65 d4 fd	 and	 DWORD PTR $T2[ebp], -3	; fffffffdH
  0002b	8b 4d d0	 mov	 ecx, DWORD PTR ___$ReturnUdt$GSCopy$[ebp]
  0002e	ff 25 00 00 00
	00		 jmp	 DWORD PTR __imp_??1?$CStringT@DV?$StrTraitMFC_DLL@DV?$ChTraitsCRT@D@ATL@@@@@ATL@@QAE@XZ
$LN27@Convert:
  00034	c3		 ret	 0
__unwindfunclet$?Convert@CChartItemFOHoga@@QAE?AV?$CStringT@DV?$StrTraitMFC_DLL@DV?$ChTraitsCRT@D@ATL@@@@@ATL@@XZ$5:
  00035	8d 4d e0	 lea	 ecx, DWORD PTR _strCode$6[ebp]
  00038	ff 25 00 00 00
	00		 jmp	 DWORD PTR __imp_??1?$CStringT@DV?$StrTraitMFC_DLL@DV?$ChTraitsCRT@D@ATL@@@@@ATL@@QAE@XZ
__unwindfunclet$?Convert@CChartItemFOHoga@@QAE?AV?$CStringT@DV?$StrTraitMFC_DLL@DV?$ChTraitsCRT@D@ATL@@@@@ATL@@XZ$6:
  0003e	8d 4d dc	 lea	 ecx, DWORD PTR $T3[ebp]
  00041	ff 25 00 00 00
	00		 jmp	 DWORD PTR __imp_??1?$CStringT@DV?$StrTraitMFC_DLL@DV?$ChTraitsCRT@D@ATL@@@@@ATL@@QAE@XZ
  00047	cc		 int	 3
  00048	cc		 int	 3
  00049	cc		 int	 3
  0004a	cc		 int	 3
  0004b	cc		 int	 3
__ehhandler$?Convert@CChartItemFOHoga@@QAE?AV?$CStringT@DV?$StrTraitMFC_DLL@DV?$ChTraitsCRT@D@ATL@@@@@ATL@@XZ:
  0004c	90		 npad	 1
  0004d	90		 npad	 1
  0004e	8b 54 24 08	 mov	 edx, DWORD PTR [esp+8]
  00052	8d 42 0c	 lea	 eax, DWORD PTR [edx+12]
  00055	8b 4a cc	 mov	 ecx, DWORD PTR [edx-52]
  00058	33 c8		 xor	 ecx, eax
  0005a	e8 00 00 00 00	 call	 @__security_check_cookie@4
  0005f	8b 4a fc	 mov	 ecx, DWORD PTR [edx-4]
  00062	33 c8		 xor	 ecx, eax
  00064	e8 00 00 00 00	 call	 @__security_check_cookie@4
  00069	b8 00 00 00 00	 mov	 eax, OFFSET __ehfuncinfo$?Convert@CChartItemFOHoga@@QAE?AV?$CStringT@DV?$StrTraitMFC_DLL@DV?$ChTraitsCRT@D@ATL@@@@@ATL@@XZ
  0006e	e9 00 00 00 00	 jmp	 ___CxxFrameHandler3
text$x	ENDS
?Convert@CChartItemFOHoga@@QAE?AV?$CStringT@DV?$StrTraitMFC_DLL@DV?$ChTraitsCRT@D@ATL@@@@@ATL@@XZ ENDP ; CChartItemFOHoga::Convert
; Function compile flags: /Ogtp
; File D:\git\src\IBK\IBK_DRFN\ProjSrc\SrcDrfn\DrCommon\PartnerMng\ChartItemFOHoga.cpp
;	COMDAT ?SetInData@CChartItemFOHoga@@QAEXPAUKB_f0201_InRec1@@@Z
_TEXT	SEGMENT
_pData$ = 8						; size = 4
?SetInData@CChartItemFOHoga@@QAEXPAUKB_f0201_InRec1@@@Z PROC ; CChartItemFOHoga::SetInData, COMDAT
; _this$ = ecx

; 44   : {

  00000	55		 push	 ebp
  00001	8b ec		 mov	 ebp, esp

; 45   : 	memcpy(&m_InData, pData, sizeof(KB_f0201_InRec1));

  00003	8b 45 08	 mov	 eax, DWORD PTR _pData$[ebp]
  00006	8b 10		 mov	 edx, DWORD PTR [eax]
  00008	8b 40 04	 mov	 eax, DWORD PTR [eax+4]
  0000b	89 51 08	 mov	 DWORD PTR [ecx+8], edx
  0000e	89 41 0c	 mov	 DWORD PTR [ecx+12], eax

; 46   : 	m_bSet = TRUE;

  00011	c6 41 14 01	 mov	 BYTE PTR [ecx+20], 1

; 47   : }

  00015	5d		 pop	 ebp
  00016	c2 04 00	 ret	 4
?SetInData@CChartItemFOHoga@@QAEXPAUKB_f0201_InRec1@@@Z ENDP ; CChartItemFOHoga::SetInData
_TEXT	ENDS
; Function compile flags: /Ogtp
; File D:\git\src\IBK\IBK_DRFN\ProjSrc\SrcDrfn\DrCommon\PartnerMng\ChartItemFOHoga.cpp
;	COMDAT ??1CChartItemFOHoga@@UAE@XZ
_TEXT	SEGMENT
??1CChartItemFOHoga@@UAE@XZ PROC			; CChartItemFOHoga::~CChartItemFOHoga, COMDAT
; _this$ = ecx

; 39   : {

  00000	c7 01 00 00 00
	00		 mov	 DWORD PTR [ecx], OFFSET ??_7CChartItemFOHoga@@6B@

; 40   : 
; 41   : }

  00006	c3		 ret	 0
??1CChartItemFOHoga@@UAE@XZ ENDP			; CChartItemFOHoga::~CChartItemFOHoga
_TEXT	ENDS
; Function compile flags: /Ogtp
; File D:\git\src\IBK\IBK_DRFN\ProjSrc\SrcDrfn\DrCommon\PartnerMng\ChartItemFOHoga.cpp
;	COMDAT ??0CChartItemFOHoga@@QAE@XZ
_TEXT	SEGMENT
??0CChartItemFOHoga@@QAE@XZ PROC			; CChartItemFOHoga::CChartItemFOHoga, COMDAT
; _this$ = ecx

; 29   : 	m_bSet = FALSE;
; 30   : 
; 31   : 	int nIndex = 0;

  00000	33 c0		 xor	 eax, eax
  00002	c7 01 00 00 00
	00		 mov	 DWORD PTR [ecx], OFFSET ??_7CChartItemFOHoga@@6B@
  00008	c6 41 14 00	 mov	 BYTE PTR [ecx+20], 0

; 32   : 	while (szFOHogaField[nIndex] != NULL)

  0000c	39 05 00 00 00
	00		 cmp	 DWORD PTR ?szFOHogaField@@3PAPADA, eax
  00012	74 0b		 je	 SHORT $LN9@CChartItem
$LL2@CChartItem:

; 33   : 		nIndex++;

  00014	40		 inc	 eax
  00015	83 3c 85 00 00
	00 00 00	 cmp	 DWORD PTR ?szFOHogaField@@3PAPADA[eax*4], 0
  0001d	75 f5		 jne	 SHORT $LL2@CChartItem
$LN9@CChartItem:

; 34   : 
; 35   : 	m_nCnt = nIndex;
; 36   : }

  0001f	89 41 04	 mov	 DWORD PTR [ecx+4], eax
  00022	8b c1		 mov	 eax, ecx
  00024	c3		 ret	 0
??0CChartItemFOHoga@@QAE@XZ ENDP			; CChartItemFOHoga::CChartItemFOHoga
_TEXT	ENDS
; Function compile flags: /Ogtp
; File D:\git\src\IBK\IBK_DRFN\ProjSrc\SrcDrfn\Chart\commontr\TRDefine.h
;	COMDAT ??__ERMSG_GETSIGNAL_REAL@@YAXXZ
text$di	SEGMENT
??__ERMSG_GETSIGNAL_REAL@@YAXXZ PROC			; `dynamic initializer for 'RMSG_GETSIGNAL_REAL'', COMDAT

; 213  : const UINT RMSG_GETSIGNAL_REAL = ::RegisterWindowMessage(_T("RMSG_GETSIGNAL_REAL"));

  00000	68 00 00 00 00	 push	 OFFSET ??_C@_0BE@FJPKENOB@RMSG_GETSIGNAL_REAL@
  00005	ff 15 00 00 00
	00		 call	 DWORD PTR __imp__RegisterWindowMessageA@4
  0000b	a3 00 00 00 00	 mov	 DWORD PTR ?RMSG_GETSIGNAL_REAL@@3IB, eax
  00010	c3		 ret	 0
??__ERMSG_GETSIGNAL_REAL@@YAXXZ ENDP			; `dynamic initializer for 'RMSG_GETSIGNAL_REAL''
text$di	ENDS
; Function compile flags: /Ogtp
; File D:\git\src\IBK\IBK_DRFN\ProjSrc\SrcDrfn\inc\IBaseDefine.h
;	COMDAT ??__ERMSG_SETPCTRDATA@@YAXXZ
text$di	SEGMENT
??__ERMSG_SETPCTRDATA@@YAXXZ PROC			; `dynamic initializer for 'RMSG_SETPCTRDATA'', COMDAT

; 172  : const UINT RMSG_SETPCTRDATA = ::RegisterWindowMessage("RMSG_SETPCTRDATA");

  00000	68 00 00 00 00	 push	 OFFSET ??_C@_0BB@JPACFCL@RMSG_SETPCTRDATA@
  00005	ff 15 00 00 00
	00		 call	 DWORD PTR __imp__RegisterWindowMessageA@4
  0000b	a3 00 00 00 00	 mov	 DWORD PTR ?RMSG_SETPCTRDATA@@3IB, eax
  00010	c3		 ret	 0
??__ERMSG_SETPCTRDATA@@YAXXZ ENDP			; `dynamic initializer for 'RMSG_SETPCTRDATA''
text$di	ENDS
; Function compile flags: /Ogtp
; File D:\git\src\IBK\IBK_DRFN\ProjSrc\SrcDrfn\inc\IBaseDefine.h
;	COMDAT ??__ERMSG_GETPCTRDATA@@YAXXZ
text$di	SEGMENT
??__ERMSG_GETPCTRDATA@@YAXXZ PROC			; `dynamic initializer for 'RMSG_GETPCTRDATA'', COMDAT

; 171  : const UINT RMSG_GETPCTRDATA = ::RegisterWindowMessage("RMSG_GETPCTRDATA");

  00000	68 00 00 00 00	 push	 OFFSET ??_C@_0BB@GOOPDKI@RMSG_GETPCTRDATA@
  00005	ff 15 00 00 00
	00		 call	 DWORD PTR __imp__RegisterWindowMessageA@4
  0000b	a3 00 00 00 00	 mov	 DWORD PTR ?RMSG_GETPCTRDATA@@3IB, eax
  00010	c3		 ret	 0
??__ERMSG_GETPCTRDATA@@YAXXZ ENDP			; `dynamic initializer for 'RMSG_GETPCTRDATA''
text$di	ENDS
; Function compile flags: /Ogtp
; File D:\git\src\IBK\IBK_DRFN\ProjSrc\SrcDrfn\inc\IBaseDefine.h
;	COMDAT ??__ERMSG_INTERFACE@@YAXXZ
text$di	SEGMENT
??__ERMSG_INTERFACE@@YAXXZ PROC				; `dynamic initializer for 'RMSG_INTERFACE'', COMDAT

; 170  : const UINT RMSG_INTERFACE = ::RegisterWindowMessage("RMSG_INTERFACE");

  00000	68 00 00 00 00	 push	 OFFSET ??_C@_0P@BKKCOCLK@RMSG_INTERFACE@
  00005	ff 15 00 00 00
	00		 call	 DWORD PTR __imp__RegisterWindowMessageA@4
  0000b	a3 00 00 00 00	 mov	 DWORD PTR ?RMSG_INTERFACE@@3IB, eax
  00010	c3		 ret	 0
??__ERMSG_INTERFACE@@YAXXZ ENDP				; `dynamic initializer for 'RMSG_INTERFACE''
text$di	ENDS
; Function compile flags: /Ogtp
; File C:\Program Files (x86)\Windows Kits\10\Include\10.0.22000.0\ucrt\stdio.h
;	COMDAT _sscanf
_TEXT	SEGMENT
__Buffer$ = 8						; size = 4
__Format$ = 12						; size = 4
_sscanf	PROC						; COMDAT

; 2247 :     {

  00000	55		 push	 ebp
  00001	8b ec		 mov	 ebp, esp

; 2153 :         return __stdio_common_vsscanf(

  00003	8d 45 10	 lea	 eax, DWORD PTR __Format$[ebp+4]
  00006	50		 push	 eax
  00007	6a 00		 push	 0
  00009	ff 75 0c	 push	 DWORD PTR __Format$[ebp]
  0000c	6a ff		 push	 -1
  0000e	ff 75 08	 push	 DWORD PTR __Buffer$[ebp]
  00011	e8 00 00 00 00	 call	 ___local_stdio_scanf_options
  00016	ff 70 04	 push	 DWORD PTR [eax+4]
  00019	ff 30		 push	 DWORD PTR [eax]
  0001b	ff 15 00 00 00
	00		 call	 DWORD PTR __imp____stdio_common_vsscanf
  00021	83 c4 1c	 add	 esp, 28			; 0000001cH

; 2248 :         int _Result;
; 2249 :         va_list _ArgList;
; 2250 :         __crt_va_start(_ArgList, _Format);
; 2251 :         _Result = _vsscanf_l(_Buffer, _Format, NULL, _ArgList);
; 2252 :         __crt_va_end(_ArgList);
; 2253 :         return _Result;
; 2254 :     }

  00024	5d		 pop	 ebp
  00025	c3		 ret	 0
_sscanf	ENDP
_TEXT	ENDS
; Function compile flags: /Ogtp
; File C:\Program Files (x86)\Windows Kits\10\Include\10.0.22000.0\ucrt\corecrt_stdio_config.h
;	COMDAT ___local_stdio_scanf_options
_TEXT	SEGMENT
___local_stdio_scanf_options PROC			; COMDAT

; 101  :         static unsigned __int64 _OptionsStorage;
; 102  :         return &_OptionsStorage;

  00000	b8 00 00 00 00	 mov	 eax, OFFSET ?_OptionsStorage@?1??__local_stdio_scanf_options@@9@4_KA ; `__local_stdio_scanf_options'::`2'::_OptionsStorage

; 103  :     }

  00005	c3		 ret	 0
___local_stdio_scanf_options ENDP
_TEXT	ENDS
; Function compile flags: /Ogtp
; File D:\git\src\IBK\IBK_DRFN\ProjSrc\SrcDrfn\DrCommon\PartnerMng\ChartItemFOHoga.cpp
;	COMDAT ?__empty_global_delete@@YAXPAXI@Z
_TEXT	SEGMENT
___formal$ = 8						; size = 4
___formal$ = 12						; size = 4
?__empty_global_delete@@YAXPAXI@Z PROC			; __empty_global_delete, COMDAT

  00000	c2 00 00	 ret	 0
?__empty_global_delete@@YAXPAXI@Z ENDP			; __empty_global_delete
_TEXT	ENDS
; Function compile flags: /Ogtp
; File D:\git\src\IBK\IBK_DRFN\ProjSrc\SrcDrfn\DrCommon\PartnerMng\ChartItemFOHoga.cpp
;	COMDAT ?__empty_global_delete@@YAXPAX@Z
_TEXT	SEGMENT
___formal$ = 8						; size = 4
?__empty_global_delete@@YAXPAX@Z PROC			; __empty_global_delete, COMDAT

  00000	c2 00 00	 ret	 0
?__empty_global_delete@@YAXPAX@Z ENDP			; __empty_global_delete
_TEXT	ENDS
END
