; Listing generated by Microsoft (R) Optimizing Compiler Version 19.29.30145.0 

	TITLE	D:\git\src\IBK\IBK_DRFN\#DRfn-CS\_Obj\PartnerMng\ChartItemStock.obj
	.686P
	.XMM
	include listing.inc
	.model	flat

INCLUDELIB MSVCRT
INCLUDELIB OLDNAMES

PUBLIC	?szTickRowField@@3PAPADA			; szTickRowField
PUBLIC	??_C@_04MJLJAFKK@2302@				; `string'
PUBLIC	??_C@_04IPBALDJL@2034@				; `string'
PUBLIC	??_C@_04MBJDEPGL@2023@				; `string'
PUBLIC	??_C@_04DLHMKHOB@2029@				; `string'
PUBLIC	??_C@_04OLHMHGJP@2030@				; `string'
PUBLIC	??_C@_04PCGHEHNO@2031@				; `string'
PUBLIC	??_C@_04NJEKBEBN@2032@				; `string'
PUBLIC	??_C@_04CCGHJGKA@2028@				; `string'
PUBLIC	?szSecRowField@@3PAPADA				; szSecRowField
PUBLIC	??_C@_04DMDJKDGK@6302@				; `string'
PUBLIC	??_C@_04HKJABFFL@6034@				; `string'
PUBLIC	??_C@_04DEBDOJKL@6023@				; `string'
PUBLIC	??_C@_04MOPMABCB@6029@				; `string'
PUBLIC	??_C@_04BOPMNAFP@6030@				; `string'
PUBLIC	??_C@_04HOHOBBO@6031@				; `string'
PUBLIC	??_C@_04CMMKLCNN@6032@				; `string'
PUBLIC	??_C@_04NHOHDAGA@6028@				; `string'
PUBLIC	?szMinRowField@@3PAPADA				; szMinRowField
PUBLIC	??_C@_04EGPJPAAK@4302@				; `string'
PUBLIC	??_C@_04FAEGDL@4034@				; `string'
PUBLIC	??_C@_04EONDLKML@4023@				; `string'
PUBLIC	??_C@_04LEDMFCEB@4029@				; `string'
PUBLIC	??_C@_04GEDMIDDP@4030@				; `string'
PUBLIC	??_C@_04HNCHLCHO@4031@				; `string'
PUBLIC	??_C@_04FGAKOBLN@4032@				; `string'
PUBLIC	??_C@_04GFMHOMHA@1028@				; `string'
PUBLIC	?szDayRowField@@3PAPADA				; szDayRowField
PUBLIC	??_C@_04HLJJNJLK@5302@				; `string'
PUBLIC	??_C@_04HDLDJDHL@5023@				; `string'
PUBLIC	??_C@_04IJFMHLPB@5029@				; `string'
PUBLIC	??_C@_04FJFMKKIP@5030@				; `string'
PUBLIC	??_C@_04EAEHJLMO@5031@				; `string'
PUBLIC	??_C@_04BHNPFGHP@5027@				; `string'
PUBLIC	??_C@_04JAEHEKLA@5028@				; `string'
PUBLIC	??_C@_04FBHGOAEO@5311@				; `string'
PUBLIC	??_C@_04DMPCAFLM@5024@				; `string'
PUBLIC	?szWeekRowField@@3PAPADA			; szWeekRowField
PUBLIC	?szYearRowField@@3PAPADA			; szYearRowField
PUBLIC	?szStockGridSymbol@@3PAPADA			; szStockGridSymbol
PUBLIC	??_C@_04KFDECMLJ@1301@				; `string'
PUBLIC	??_C@_04JPCIAEPK@1022@				; `string'
PUBLIC	??_C@_04IGDDDFLL@1023@				; `string'
PUBLIC	??_C@_04OIDDAECH@1336@				; `string'
PUBLIC	??_C@_04MJHCKDHM@1024@				; `string'
PUBLIC	??_C@_04IHPBFPIM@1033@				; `string'
PUBLIC	??_C@_04OCFPPALP@1027@				; `string'
PUBLIC	??_C@_04NJIBLCML@1314@				; `string'
PUBLIC	??_C@_04KEPGEGIO@1311@				; `string'
PUBLIC	??_C@_04IPNLBFEN@1312@				; `string'
PUBLIC	??_C@_04HMNMNNDB@1029@				; `string'
PUBLIC	??_C@_04KMNMAMEP@1030@				; `string'
PUBLIC	??_C@_04LFMHDNAO@1031@				; `string'
PUBLIC	??_C@_04LPKLMJJG@1320@				; `string'
PUBLIC	??_C@_04KGLAPINH@1321@				; `string'
PUBLIC	??_C@_04INJNKLBE@1322@				; `string'
PUBLIC	??_C@_04PDGOILDP@1307@				; `string'
PUBLIC	??_C@_04NDJCPNJM@1900@				; `string'
PUBLIC	??_C@_04MKIJMMNN@1901@				; `string'
PUBLIC	??_C@_0P@BKKCOCLK@RMSG_INTERFACE@		; `string'
PUBLIC	??_C@_0BB@GOOPDKI@RMSG_GETPCTRDATA@		; `string'
PUBLIC	??_C@_0BB@JPACFCL@RMSG_SETPCTRDATA@		; `string'
PUBLIC	??_C@_0BE@FJPKENOB@RMSG_GETSIGNAL_REAL@		; `string'
;	COMDAT ??_C@_0BE@FJPKENOB@RMSG_GETSIGNAL_REAL@
CONST	SEGMENT
??_C@_0BE@FJPKENOB@RMSG_GETSIGNAL_REAL@ DB 'RMSG_GETSIGNAL_REAL', 00H ; `string'
CONST	ENDS
;	COMDAT ??_C@_0BB@JPACFCL@RMSG_SETPCTRDATA@
CONST	SEGMENT
??_C@_0BB@JPACFCL@RMSG_SETPCTRDATA@ DB 'RMSG_SETPCTRDATA', 00H ; `string'
CONST	ENDS
;	COMDAT ??_C@_0BB@GOOPDKI@RMSG_GETPCTRDATA@
CONST	SEGMENT
??_C@_0BB@GOOPDKI@RMSG_GETPCTRDATA@ DB 'RMSG_GETPCTRDATA', 00H ; `string'
CONST	ENDS
;	COMDAT ??_C@_0P@BKKCOCLK@RMSG_INTERFACE@
CONST	SEGMENT
??_C@_0P@BKKCOCLK@RMSG_INTERFACE@ DB 'RMSG_INTERFACE', 00H ; `string'
CONST	ENDS
;	COMDAT ??_C@_04MKIJMMNN@1901@
CONST	SEGMENT
??_C@_04MKIJMMNN@1901@ DB '1901', 00H			; `string'
CONST	ENDS
;	COMDAT ??_C@_04NDJCPNJM@1900@
CONST	SEGMENT
??_C@_04NDJCPNJM@1900@ DB '1900', 00H			; `string'
CONST	ENDS
;	COMDAT ??_C@_04PDGOILDP@1307@
CONST	SEGMENT
??_C@_04PDGOILDP@1307@ DB '1307', 00H			; `string'
CONST	ENDS
;	COMDAT ??_C@_04INJNKLBE@1322@
CONST	SEGMENT
??_C@_04INJNKLBE@1322@ DB '1322', 00H			; `string'
CONST	ENDS
;	COMDAT ??_C@_04KGLAPINH@1321@
CONST	SEGMENT
??_C@_04KGLAPINH@1321@ DB '1321', 00H			; `string'
CONST	ENDS
;	COMDAT ??_C@_04LPKLMJJG@1320@
CONST	SEGMENT
??_C@_04LPKLMJJG@1320@ DB '1320', 00H			; `string'
CONST	ENDS
;	COMDAT ??_C@_04LFMHDNAO@1031@
CONST	SEGMENT
??_C@_04LFMHDNAO@1031@ DB '1031', 00H			; `string'
CONST	ENDS
;	COMDAT ??_C@_04KMNMAMEP@1030@
CONST	SEGMENT
??_C@_04KMNMAMEP@1030@ DB '1030', 00H			; `string'
CONST	ENDS
;	COMDAT ??_C@_04HMNMNNDB@1029@
CONST	SEGMENT
??_C@_04HMNMNNDB@1029@ DB '1029', 00H			; `string'
CONST	ENDS
;	COMDAT ??_C@_04IPNLBFEN@1312@
CONST	SEGMENT
??_C@_04IPNLBFEN@1312@ DB '1312', 00H			; `string'
CONST	ENDS
;	COMDAT ??_C@_04KEPGEGIO@1311@
CONST	SEGMENT
??_C@_04KEPGEGIO@1311@ DB '1311', 00H			; `string'
CONST	ENDS
;	COMDAT ??_C@_04NJIBLCML@1314@
CONST	SEGMENT
??_C@_04NJIBLCML@1314@ DB '1314', 00H			; `string'
CONST	ENDS
;	COMDAT ??_C@_04OCFPPALP@1027@
CONST	SEGMENT
??_C@_04OCFPPALP@1027@ DB '1027', 00H			; `string'
CONST	ENDS
;	COMDAT ??_C@_04IHPBFPIM@1033@
CONST	SEGMENT
??_C@_04IHPBFPIM@1033@ DB '1033', 00H			; `string'
CONST	ENDS
;	COMDAT ??_C@_04MJHCKDHM@1024@
CONST	SEGMENT
??_C@_04MJHCKDHM@1024@ DB '1024', 00H			; `string'
CONST	ENDS
;	COMDAT ??_C@_04OIDDAECH@1336@
CONST	SEGMENT
??_C@_04OIDDAECH@1336@ DB '1336', 00H			; `string'
CONST	ENDS
;	COMDAT ??_C@_04IGDDDFLL@1023@
CONST	SEGMENT
??_C@_04IGDDDFLL@1023@ DB '1023', 00H			; `string'
CONST	ENDS
;	COMDAT ??_C@_04JPCIAEPK@1022@
CONST	SEGMENT
??_C@_04JPCIAEPK@1022@ DB '1022', 00H			; `string'
CONST	ENDS
;	COMDAT ??_C@_04KFDECMLJ@1301@
CONST	SEGMENT
??_C@_04KFDECMLJ@1301@ DB '1301', 00H			; `string'
CONST	ENDS
;	COMDAT ??_C@_04DMPCAFLM@5024@
CONST	SEGMENT
??_C@_04DMPCAFLM@5024@ DB '5024', 00H			; `string'
CONST	ENDS
;	COMDAT ??_C@_04FBHGOAEO@5311@
CONST	SEGMENT
??_C@_04FBHGOAEO@5311@ DB '5311', 00H			; `string'
CONST	ENDS
;	COMDAT ??_C@_04JAEHEKLA@5028@
CONST	SEGMENT
??_C@_04JAEHEKLA@5028@ DB '5028', 00H			; `string'
CONST	ENDS
;	COMDAT ??_C@_04BHNPFGHP@5027@
CONST	SEGMENT
??_C@_04BHNPFGHP@5027@ DB '5027', 00H			; `string'
CONST	ENDS
;	COMDAT ??_C@_04EAEHJLMO@5031@
CONST	SEGMENT
??_C@_04EAEHJLMO@5031@ DB '5031', 00H			; `string'
CONST	ENDS
;	COMDAT ??_C@_04FJFMKKIP@5030@
CONST	SEGMENT
??_C@_04FJFMKKIP@5030@ DB '5030', 00H			; `string'
CONST	ENDS
;	COMDAT ??_C@_04IJFMHLPB@5029@
CONST	SEGMENT
??_C@_04IJFMHLPB@5029@ DB '5029', 00H			; `string'
CONST	ENDS
;	COMDAT ??_C@_04HDLDJDHL@5023@
CONST	SEGMENT
??_C@_04HDLDJDHL@5023@ DB '5023', 00H			; `string'
CONST	ENDS
;	COMDAT ??_C@_04HLJJNJLK@5302@
CONST	SEGMENT
??_C@_04HLJJNJLK@5302@ DB '5302', 00H			; `string'
CONST	ENDS
;	COMDAT ??_C@_04GFMHOMHA@1028@
CONST	SEGMENT
??_C@_04GFMHOMHA@1028@ DB '1028', 00H			; `string'
CONST	ENDS
;	COMDAT ??_C@_04FGAKOBLN@4032@
CONST	SEGMENT
??_C@_04FGAKOBLN@4032@ DB '4032', 00H			; `string'
CONST	ENDS
;	COMDAT ??_C@_04HNCHLCHO@4031@
CONST	SEGMENT
??_C@_04HNCHLCHO@4031@ DB '4031', 00H			; `string'
CONST	ENDS
;	COMDAT ??_C@_04GEDMIDDP@4030@
CONST	SEGMENT
??_C@_04GEDMIDDP@4030@ DB '4030', 00H			; `string'
CONST	ENDS
;	COMDAT ??_C@_04LEDMFCEB@4029@
CONST	SEGMENT
??_C@_04LEDMFCEB@4029@ DB '4029', 00H			; `string'
CONST	ENDS
;	COMDAT ??_C@_04EONDLKML@4023@
CONST	SEGMENT
??_C@_04EONDLKML@4023@ DB '4023', 00H			; `string'
CONST	ENDS
;	COMDAT ??_C@_04FAEGDL@4034@
CONST	SEGMENT
??_C@_04FAEGDL@4034@ DB '4034', 00H			; `string'
CONST	ENDS
;	COMDAT ??_C@_04EGPJPAAK@4302@
CONST	SEGMENT
??_C@_04EGPJPAAK@4302@ DB '4302', 00H			; `string'
CONST	ENDS
;	COMDAT ??_C@_04NHOHDAGA@6028@
CONST	SEGMENT
??_C@_04NHOHDAGA@6028@ DB '6028', 00H			; `string'
CONST	ENDS
;	COMDAT ??_C@_04CMMKLCNN@6032@
CONST	SEGMENT
??_C@_04CMMKLCNN@6032@ DB '6032', 00H			; `string'
CONST	ENDS
;	COMDAT ??_C@_04HOHOBBO@6031@
CONST	SEGMENT
??_C@_04HOHOBBO@6031@ DB '6031', 00H			; `string'
CONST	ENDS
;	COMDAT ??_C@_04BOPMNAFP@6030@
CONST	SEGMENT
??_C@_04BOPMNAFP@6030@ DB '6030', 00H			; `string'
CONST	ENDS
;	COMDAT ??_C@_04MOPMABCB@6029@
CONST	SEGMENT
??_C@_04MOPMABCB@6029@ DB '6029', 00H			; `string'
CONST	ENDS
;	COMDAT ??_C@_04DEBDOJKL@6023@
CONST	SEGMENT
??_C@_04DEBDOJKL@6023@ DB '6023', 00H			; `string'
CONST	ENDS
;	COMDAT ??_C@_04HKJABFFL@6034@
CONST	SEGMENT
??_C@_04HKJABFFL@6034@ DB '6034', 00H			; `string'
CONST	ENDS
;	COMDAT ??_C@_04DMDJKDGK@6302@
CONST	SEGMENT
??_C@_04DMDJKDGK@6302@ DB '6302', 00H			; `string'
CONST	ENDS
;	COMDAT ??_C@_04CCGHJGKA@2028@
CONST	SEGMENT
??_C@_04CCGHJGKA@2028@ DB '2028', 00H			; `string'
CONST	ENDS
;	COMDAT ??_C@_04NJEKBEBN@2032@
CONST	SEGMENT
??_C@_04NJEKBEBN@2032@ DB '2032', 00H			; `string'
CONST	ENDS
;	COMDAT ??_C@_04PCGHEHNO@2031@
CONST	SEGMENT
??_C@_04PCGHEHNO@2031@ DB '2031', 00H			; `string'
CONST	ENDS
;	COMDAT ??_C@_04OLHMHGJP@2030@
CONST	SEGMENT
??_C@_04OLHMHGJP@2030@ DB '2030', 00H			; `string'
CONST	ENDS
;	COMDAT ??_C@_04DLHMKHOB@2029@
CONST	SEGMENT
??_C@_04DLHMKHOB@2029@ DB '2029', 00H			; `string'
CONST	ENDS
;	COMDAT ??_C@_04MBJDEPGL@2023@
CONST	SEGMENT
??_C@_04MBJDEPGL@2023@ DB '2023', 00H			; `string'
CONST	ENDS
;	COMDAT ??_C@_04IPBALDJL@2034@
CONST	SEGMENT
??_C@_04IPBALDJL@2034@ DB '2034', 00H			; `string'
CONST	ENDS
;	COMDAT ??_C@_04MJLJAFKK@2302@
CONST	SEGMENT
??_C@_04MJLJAFKK@2302@ DB '2302', 00H			; `string'
CONST	ENDS
_DATA	SEGMENT
?szTickRowField@@3PAPADA DD FLAT:??_C@_04MJLJAFKK@2302@	; szTickRowField
	DD	FLAT:??_C@_04IPBALDJL@2034@
	DD	FLAT:??_C@_04MBJDEPGL@2023@
	DD	FLAT:??_C@_04DLHMKHOB@2029@
	DD	FLAT:??_C@_04OLHMHGJP@2030@
	DD	FLAT:??_C@_04PCGHEHNO@2031@
	DD	FLAT:??_C@_04NJEKBEBN@2032@
	DD	FLAT:??_C@_04CCGHJGKA@2028@
	DD	00H
?szSecRowField@@3PAPADA DD FLAT:??_C@_04DMDJKDGK@6302@	; szSecRowField
	DD	FLAT:??_C@_04HKJABFFL@6034@
	DD	FLAT:??_C@_04DEBDOJKL@6023@
	DD	FLAT:??_C@_04MOPMABCB@6029@
	DD	FLAT:??_C@_04BOPMNAFP@6030@
	DD	FLAT:??_C@_04HOHOBBO@6031@
	DD	FLAT:??_C@_04CMMKLCNN@6032@
	DD	FLAT:??_C@_04NHOHDAGA@6028@
	DD	00H
?szMinRowField@@3PAPADA DD FLAT:??_C@_04EGPJPAAK@4302@	; szMinRowField
	DD	FLAT:??_C@_04FAEGDL@4034@
	DD	FLAT:??_C@_04EONDLKML@4023@
	DD	FLAT:??_C@_04LEDMFCEB@4029@
	DD	FLAT:??_C@_04GEDMIDDP@4030@
	DD	FLAT:??_C@_04HNCHLCHO@4031@
	DD	FLAT:??_C@_04FGAKOBLN@4032@
	DD	FLAT:??_C@_04GFMHOMHA@1028@
	DD	00H
?szDayRowField@@3PAPADA DD FLAT:??_C@_04HLJJNJLK@5302@	; szDayRowField
	DD	FLAT:??_C@_04HDLDJDHL@5023@
	DD	FLAT:??_C@_04IJFMHLPB@5029@
	DD	FLAT:??_C@_04FJFMKKIP@5030@
	DD	FLAT:??_C@_04EAEHJLMO@5031@
	DD	FLAT:??_C@_04BHNPFGHP@5027@
	DD	FLAT:??_C@_04JAEHEKLA@5028@
	DD	FLAT:??_C@_04FBHGOAEO@5311@
	DD	FLAT:??_C@_04DMPCAFLM@5024@
	DD	00H
?szWeekRowField@@3PAPADA DD FLAT:??_C@_04HLJJNJLK@5302@	; szWeekRowField
	DD	FLAT:??_C@_04HDLDJDHL@5023@
	DD	FLAT:??_C@_04IJFMHLPB@5029@
	DD	FLAT:??_C@_04FJFMKKIP@5030@
	DD	FLAT:??_C@_04EAEHJLMO@5031@
	DD	FLAT:??_C@_04BHNPFGHP@5027@
	DD	FLAT:??_C@_04JAEHEKLA@5028@
	DD	00H
?szYearRowField@@3PAPADA DD FLAT:??_C@_04HLJJNJLK@5302@	; szYearRowField
	DD	FLAT:??_C@_04HDLDJDHL@5023@
	DD	FLAT:??_C@_04IJFMHLPB@5029@
	DD	FLAT:??_C@_04FJFMKKIP@5030@
	DD	FLAT:??_C@_04EAEHJLMO@5031@
	DD	FLAT:??_C@_04BHNPFGHP@5027@
	DD	FLAT:??_C@_04JAEHEKLA@5028@
	DD	00H
	ORG $+4
?szStockGridSymbol@@3PAPADA DD FLAT:??_C@_04KFDECMLJ@1301@ ; szStockGridSymbol
	DD	FLAT:??_C@_04JPCIAEPK@1022@
	DD	FLAT:??_C@_04IGDDDFLL@1023@
	DD	FLAT:??_C@_04OIDDAECH@1336@
	DD	FLAT:??_C@_04MJHCKDHM@1024@
	DD	FLAT:??_C@_04IHPBFPIM@1033@
	DD	FLAT:??_C@_04OCFPPALP@1027@
	DD	FLAT:??_C@_04NJIBLCML@1314@
	DD	FLAT:??_C@_04KEPGEGIO@1311@
	DD	FLAT:??_C@_04IPNLBFEN@1312@
	DD	FLAT:??_C@_04HMNMNNDB@1029@
	DD	FLAT:??_C@_04KMNMAMEP@1030@
	DD	FLAT:??_C@_04LFMHDNAO@1031@
	DD	FLAT:??_C@_04LPKLMJJG@1320@
	DD	FLAT:??_C@_04KGLAPINH@1321@
	DD	FLAT:??_C@_04INJNKLBE@1322@
	DD	FLAT:??_C@_04PDGOILDP@1307@
	DD	FLAT:??_C@_04NDJCPNJM@1900@
	DD	FLAT:??_C@_04MKIJMMNN@1901@
	DD	FLAT:??_C@_04GFMHOMHA@1028@
	DD	00H
_DATA	ENDS
PUBLIC	?__empty_global_delete@@YAXPAX@Z		; __empty_global_delete
PUBLIC	?__empty_global_delete@@YAXPAXI@Z		; __empty_global_delete
PUBLIC	___local_stdio_printf_options
PUBLIC	_sprintf
PUBLIC	?Copy@CChartBozoInput@@UAEXABV1@@Z		; CChartBozoInput::Copy
PUBLIC	??4CChartBozoInput@@UAEAAV0@ABV0@@Z		; CChartBozoInput::operator=
PUBLIC	??1CChartBozoInput@@QAE@XZ			; CChartBozoInput::~CChartBozoInput
PUBLIC	??0CChartItemStock@@QAE@XZ			; CChartItemStock::CChartItemStock
PUBLIC	??1CChartItemStock@@UAE@XZ			; CChartItemStock::~CChartItemStock
PUBLIC	?SetInData@CChartItemStock@@QAEXPAUKB_p0602_InRec1@@@Z ; CChartItemStock::SetInData
PUBLIC	?Convert@CChartItemStock@@QAE?AV?$CStringT@DV?$StrTraitMFC_DLL@DV?$ChTraitsCRT@D@ATL@@@@@ATL@@XZ ; CChartItemStock::Convert
PUBLIC	?Convert2Struct@CChartItemStock@@QAEPADPAEHHAAH@Z ; CChartItemStock::Convert2Struct
PUBLIC	??_GCChartItemStock@@UAEPAXI@Z			; CChartItemStock::`scalar deleting destructor'
PUBLIC	?_OptionsStorage@?1??__local_stdio_printf_options@@9@4_KA ; `__local_stdio_printf_options'::`2'::_OptionsStorage
PUBLIC	??_R0PAVCException@@@8				; CException * `RTTI Type Descriptor'
PUBLIC	??_C@_02DPKJAMEF@?$CFd@				; `string'
PUBLIC	??_C@_00CNPNBAHC@@				; `string'
PUBLIC	??_C@_0BC@GJFJNGJF@DRLog_RequestData@		; `string'
PUBLIC	??_7CChartBozoInput@@6B@			; CChartBozoInput::`vftable'
PUBLIC	??_7CChartItemStock@@6B@			; CChartItemStock::`vftable'
PUBLIC	??_C@_07IKAGAOHD@SetInit@			; `string'
PUBLIC	??_C@_0P@FLGGHACJ@99999999999999@		; `string'
PUBLIC	??_C@_05OCAPCJBN@51305@				; `string'
PUBLIC	??_C@_0L@GJLPCMJN@USDKRWSMBS@			; `string'
PUBLIC	??_C@_07PGCHECEN@?$CF28?428s@			; `string'
PUBLIC	??_C@_05FMCINLDC@?$DP2500@			; `string'
PUBLIC	??_C@_04JMGHHGEC@2324@				; `string'
PUBLIC	??_C@_04CKENNMGB@2309@				; `string'
PUBLIC	??_C@_04LOCMGGPM@?$CFd?$CFs@			; `string'
PUBLIC	??_C@_04OFJNPOLF@2341@				; `string'
PUBLIC	??_C@_05NDGICOJC@?$DP4500@			; `string'
PUBLIC	??_C@_04BDCHIDOC@4324@				; `string'
PUBLIC	??_C@_04LMBGBIIA@4308@				; `string'
PUBLIC	??_C@_04KFANCJMB@4309@				; `string'
PUBLIC	??_C@_04KHELJHJI@4339@				; `string'
PUBLIC	??_C@_04GKNNALBF@4341@				; `string'
PUBLIC	??_C@_05OOAIAHCC@?$DP5500@			; `string'
PUBLIC	??_C@_04COEHKKFC@5324@				; `string'
PUBLIC	??_C@_04JKCLLOCI@5339@				; `string'
PUBLIC	??_C@_05KJKIHNPC@?$DP6500@			; `string'
PUBLIC	??_C@_04GJOHNAIC@6324@				; `string'
PUBLIC	??_C@_04MGNGELOA@6308@				; `string'
PUBLIC	??_C@_04NPMNHKKB@6309@				; `string'
PUBLIC	??_C@_05IECFFCEA@51331@				; `string'
PUBLIC	??_C@_04OBKAGHLG@?$CF06d@			; `string'
PUBLIC	??_C@_04PEJMDNKC@?$CF0?$CKd@			; `string'
PUBLIC	??_C@_02PKFBJPLJ@10@				; `string'
PUBLIC	??_C@_02ODEKKOPI@11@				; `string'
PUBLIC	??_C@_02MKCBEDGC@22@				; `string'
PUBLIC	??_C@_02PLJDPFIO@00@				; `string'
PUBLIC	??_C@_0BA@PKAGJNBB@?$CF4?44s00?$HM?$CF4?44s00@	; `string'
PUBLIC	??_C@_06GEKNBBDK@000000@			; `string'
PUBLIC	??_C@_04ODOGNJOP@?$CF05d@			; `string'
PUBLIC	??_C@_04IBKPHMDC@?$CFs12@			; `string'
PUBLIC	??_C@_03JALODAI@?$CFld@				; `string'
PUBLIC	??_C@_02HAOIJKIC@?$CFc@				; `string'
PUBLIC	??_C@_01HIHLOKLC@1@				; `string'
PUBLIC	??_C@_04OHGLKFFN@?$CF03d@			; `string'
PUBLIC	??_R4CChartBozoInput@@6B@			; CChartBozoInput::`RTTI Complete Object Locator'
PUBLIC	??_R0?AVCChartBozoInput@@@8			; CChartBozoInput `RTTI Type Descriptor'
PUBLIC	??_R3CChartBozoInput@@8				; CChartBozoInput::`RTTI Class Hierarchy Descriptor'
PUBLIC	??_R2CChartBozoInput@@8				; CChartBozoInput::`RTTI Base Class Array'
PUBLIC	??_R1A@?0A@EA@CChartBozoInput@@8		; CChartBozoInput::`RTTI Base Class Descriptor at (0,-1,0,64)'
PUBLIC	??_R4CChartItemStock@@6B@			; CChartItemStock::`RTTI Complete Object Locator'
PUBLIC	??_R0?AVCChartItemStock@@@8			; CChartItemStock `RTTI Type Descriptor'
PUBLIC	??_R3CChartItemStock@@8				; CChartItemStock::`RTTI Class Hierarchy Descriptor'
PUBLIC	??_R2CChartItemStock@@8				; CChartItemStock::`RTTI Base Class Array'
PUBLIC	??_R1A@?0A@EA@CChartItemStock@@8		; CChartItemStock::`RTTI Base Class Descriptor at (0,-1,0,64)'
PUBLIC	__real@4059000000000000
PUBLIC	__xmm@20202020202020202020202020202020
EXTRN	??3@YAXPAXI@Z:PROC				; operator delete
EXTRN	??_U@YAPAXI@Z:PROC				; operator new[]
EXTRN	__imp__GetProcAddress@8:PROC
EXTRN	__imp__RegisterWindowMessageA@4:PROC
EXTRN	__imp____stdio_common_vsprintf:PROC
EXTRN	__imp__atof:PROC
EXTRN	__imp__atoi:PROC
EXTRN	?AfxThrowInvalidArgException@@YGXXZ:PROC	; AfxThrowInvalidArgException
EXTRN	__imp_?Concatenate@?$CSimpleStringT@D$00@ATL@@KAXAAV12@PBDH1H@Z:PROC
EXTRN	__imp_??0?$CStringT@DV?$StrTraitMFC_DLL@DV?$ChTraitsCRT@D@ATL@@@@@ATL@@QAE@XZ:PROC
EXTRN	__imp_??0?$CStringT@DV?$StrTraitMFC_DLL@DV?$ChTraitsCRT@D@ATL@@@@@ATL@@QAE@PAUIAtlStringMgr@1@@Z:PROC
EXTRN	__imp_??0?$CStringT@DV?$StrTraitMFC_DLL@DV?$ChTraitsCRT@D@ATL@@@@@ATL@@QAE@ABV01@@Z:PROC
EXTRN	__imp_??0?$CStringT@DV?$StrTraitMFC_DLL@DV?$ChTraitsCRT@D@ATL@@@@@ATL@@QAE@PBD@Z:PROC
EXTRN	__imp_??0?$CStringT@DV?$StrTraitMFC_DLL@DV?$ChTraitsCRT@D@ATL@@@@@ATL@@QAE@DH@Z:PROC
EXTRN	__imp_??0?$CStringT@DV?$StrTraitMFC_DLL@DV?$ChTraitsCRT@D@ATL@@@@@ATL@@QAE@PBDH@Z:PROC
EXTRN	__imp_??1?$CStringT@DV?$StrTraitMFC_DLL@DV?$ChTraitsCRT@D@ATL@@@@@ATL@@QAE@XZ:PROC
EXTRN	__imp_??4?$CStringT@DV?$StrTraitMFC_DLL@DV?$ChTraitsCRT@D@ATL@@@@@ATL@@QAEAAV01@ABV01@@Z:PROC
EXTRN	__imp_??4?$CStringT@DV?$StrTraitMFC_DLL@DV?$ChTraitsCRT@D@ATL@@@@@ATL@@QAEAAV01@PBD@Z:PROC
EXTRN	__imp_??4?$CStringT@DV?$StrTraitMFC_DLL@DV?$ChTraitsCRT@D@ATL@@@@@ATL@@QAEAAV01@D@Z:PROC
EXTRN	__imp_??Y?$CStringT@DV?$StrTraitMFC_DLL@DV?$ChTraitsCRT@D@ATL@@@@@ATL@@QAEAAV01@ABV?$CSimpleStringT@D$00@1@@Z:PROC
EXTRN	__imp_??Y?$CStringT@DV?$StrTraitMFC_DLL@DV?$ChTraitsCRT@D@ATL@@@@@ATL@@QAEAAV01@PBD@Z:PROC
EXTRN	__imp_??Y?$CStringT@DV?$StrTraitMFC_DLL@DV?$ChTraitsCRT@D@ATL@@@@@ATL@@QAEAAV01@D@Z:PROC
EXTRN	__imp_?GetManager@?$CStringT@DV?$StrTraitMFC_DLL@DV?$ChTraitsCRT@D@ATL@@@@@ATL@@QBEPAUIAtlStringMgr@2@XZ:PROC
EXTRN	__imp_?Compare@?$CStringT@DV?$StrTraitMFC_DLL@DV?$ChTraitsCRT@D@ATL@@@@@ATL@@QBEHPBD@Z:PROC
EXTRN	__imp_?Remove@?$CStringT@DV?$StrTraitMFC_DLL@DV?$ChTraitsCRT@D@ATL@@@@@ATL@@QAEHD@Z:PROC
EXTRN	__imp_?Find@?$CStringT@DV?$StrTraitMFC_DLL@DV?$ChTraitsCRT@D@ATL@@@@@ATL@@QBEHDH@Z:PROC
EXTRN	__imp_?TrimRight@?$CStringT@DV?$StrTraitMFC_DLL@DV?$ChTraitsCRT@D@ATL@@@@@ATL@@QAEAAV12@XZ:PROC
EXTRN	__imp_?TrimLeft@?$CStringT@DV?$StrTraitMFC_DLL@DV?$ChTraitsCRT@D@ATL@@@@@ATL@@QAEAAV12@XZ:PROC
EXTRN	__imp_?Mid@?$CStringT@DV?$StrTraitMFC_DLL@DV?$ChTraitsCRT@D@ATL@@@@@ATL@@QBE?AV12@H@Z:PROC
EXTRN	__imp_?Right@?$CStringT@DV?$StrTraitMFC_DLL@DV?$ChTraitsCRT@D@ATL@@@@@ATL@@QBE?AV12@H@Z:PROC
EXTRN	__imp_?Left@?$CStringT@DV?$StrTraitMFC_DLL@DV?$ChTraitsCRT@D@ATL@@@@@ATL@@QBE?AV12@H@Z:PROC
EXTRN	__imp_?Format@?$CStringT@DV?$StrTraitMFC_DLL@DV?$ChTraitsCRT@D@ATL@@@@@ATL@@QAAXPBDZZ:PROC
EXTRN	??0CStringArray@@QAE@XZ:PROC			; CStringArray::CStringArray
EXTRN	?SetAtGrow@CStringArray@@QAEXHABV?$CStringT@DV?$StrTraitMFC_DLL@DV?$ChTraitsCRT@D@ATL@@@@@ATL@@@Z:PROC ; CStringArray::SetAtGrow
EXTRN	??1CStringArray@@UAE@XZ:PROC			; CStringArray::~CStringArray
EXTRN	??_ECChartItemStock@@UAEPAXI@Z:PROC		; CChartItemStock::`vector deleting destructor'
EXTRN	?Parser@CDataConverter@@SA?AV?$CStringT@DV?$StrTraitMFC_DLL@DV?$ChTraitsCRT@D@ATL@@@@@ATL@@AAV23@V23@@Z:PROC ; CDataConverter::Parser
EXTRN	?Get_PercentData@CDataConverter@@SA?AV?$CStringT@DV?$StrTraitMFC_DLL@DV?$ChTraitsCRT@D@ATL@@@@@ATL@@PADNH@Z:PROC ; CDataConverter::Get_PercentData
EXTRN	?Char2String@CDataConverter@@SA?AV?$CStringT@DV?$StrTraitMFC_DLL@DV?$ChTraitsCRT@D@ATL@@@@@ATL@@PADH@Z:PROC ; CDataConverter::Char2String
EXTRN	?Char2Int@CDataConverter@@SAHPADH@Z:PROC	; CDataConverter::Char2Int
EXTRN	?Char2Double@CDataConverter@@SANPADH@Z:PROC	; CDataConverter::Char2Double
EXTRN	?Get_RateData@CDataConverter@@SA?AV?$CStringT@DV?$StrTraitMFC_DLL@DV?$ChTraitsCRT@D@ATL@@@@@ATL@@PADNH@Z:PROC ; CDataConverter::Get_RateData
EXTRN	?GetChartBozoMsg@CChartBozoManager@@UAGHPBDPAVCChartBozoInput@@AAV?$CStringT@DV?$StrTraitMFC_DLL@DV?$ChTraitsCRT@D@ATL@@@@@ATL@@H@Z:PROC ; CChartBozoManager::GetChartBozoMsg
EXTRN	??0CChartBozoManager@@QAE@XZ:PROC		; CChartBozoManager::CChartBozoManager
EXTRN	?DoMapStrObj_UpDnInfo@CPartnerMngApp@@QAEXPBD00@Z:PROC ; CPartnerMngApp::DoMapStrObj_UpDnInfo
EXTRN	@__security_check_cookie@4:PROC
EXTRN	___CxxFrameHandler3:PROC
EXTRN	_memcpy:PROC
EXTRN	_memset:PROC
EXTRN	??_7type_info@@6B@:QWORD			; type_info::`vftable'
EXTRN	?g_pDRDebuger@@3PAVCDRDebugerLoader@@A:DWORD	; g_pDRDebuger
EXTRN	?theApp@@3VCPartnerMngApp@@A:BYTE		; theApp
EXTRN	___security_cookie:DWORD
EXTRN	__fltused:DWORD
;	COMDAT ?_OptionsStorage@?1??__local_stdio_printf_options@@9@4_KA
_BSS	SEGMENT
?_OptionsStorage@?1??__local_stdio_printf_options@@9@4_KA DQ 01H DUP (?) ; `__local_stdio_printf_options'::`2'::_OptionsStorage
_BSS	ENDS
_BSS	SEGMENT
?RMSG_INTERFACE@@3IB DD 01H DUP (?)			; RMSG_INTERFACE
?RMSG_GETPCTRDATA@@3IB DD 01H DUP (?)			; RMSG_GETPCTRDATA
?RMSG_SETPCTRDATA@@3IB DD 01H DUP (?)			; RMSG_SETPCTRDATA
?RMSG_GETSIGNAL_REAL@@3IB DD 01H DUP (?)		; RMSG_GETSIGNAL_REAL
_BSS	ENDS
CRT$XCU	SEGMENT
?RMSG_INTERFACE$initializer$@@3P6AXXZA DD FLAT:??__ERMSG_INTERFACE@@YAXXZ ; RMSG_INTERFACE$initializer$
CRT$XCU	ENDS
;	COMDAT __xmm@20202020202020202020202020202020
CONST	SEGMENT
__xmm@20202020202020202020202020202020 DB '                '
CONST	ENDS
;	COMDAT __real@4059000000000000
CONST	SEGMENT
__real@4059000000000000 DQ 04059000000000000r	; 100
CONST	ENDS
;	COMDAT ??_R1A@?0A@EA@CChartItemStock@@8
rdata$r	SEGMENT
??_R1A@?0A@EA@CChartItemStock@@8 DD FLAT:??_R0?AVCChartItemStock@@@8 ; CChartItemStock::`RTTI Base Class Descriptor at (0,-1,0,64)'
	DD	00H
	DD	00H
	DD	0ffffffffH
	DD	00H
	DD	040H
	DD	FLAT:??_R3CChartItemStock@@8
rdata$r	ENDS
;	COMDAT ??_R2CChartItemStock@@8
rdata$r	SEGMENT
??_R2CChartItemStock@@8 DD FLAT:??_R1A@?0A@EA@CChartItemStock@@8 ; CChartItemStock::`RTTI Base Class Array'
rdata$r	ENDS
;	COMDAT ??_R3CChartItemStock@@8
rdata$r	SEGMENT
??_R3CChartItemStock@@8 DD 00H				; CChartItemStock::`RTTI Class Hierarchy Descriptor'
	DD	00H
	DD	01H
	DD	FLAT:??_R2CChartItemStock@@8
rdata$r	ENDS
;	COMDAT ??_R0?AVCChartItemStock@@@8
data$rs	SEGMENT
??_R0?AVCChartItemStock@@@8 DD FLAT:??_7type_info@@6B@	; CChartItemStock `RTTI Type Descriptor'
	DD	00H
	DB	'.?AVCChartItemStock@@', 00H
data$rs	ENDS
;	COMDAT ??_R4CChartItemStock@@6B@
rdata$r	SEGMENT
??_R4CChartItemStock@@6B@ DD 00H			; CChartItemStock::`RTTI Complete Object Locator'
	DD	00H
	DD	00H
	DD	FLAT:??_R0?AVCChartItemStock@@@8
	DD	FLAT:??_R3CChartItemStock@@8
rdata$r	ENDS
;	COMDAT ??_R1A@?0A@EA@CChartBozoInput@@8
rdata$r	SEGMENT
??_R1A@?0A@EA@CChartBozoInput@@8 DD FLAT:??_R0?AVCChartBozoInput@@@8 ; CChartBozoInput::`RTTI Base Class Descriptor at (0,-1,0,64)'
	DD	00H
	DD	00H
	DD	0ffffffffH
	DD	00H
	DD	040H
	DD	FLAT:??_R3CChartBozoInput@@8
rdata$r	ENDS
;	COMDAT ??_R2CChartBozoInput@@8
rdata$r	SEGMENT
??_R2CChartBozoInput@@8 DD FLAT:??_R1A@?0A@EA@CChartBozoInput@@8 ; CChartBozoInput::`RTTI Base Class Array'
rdata$r	ENDS
;	COMDAT ??_R3CChartBozoInput@@8
rdata$r	SEGMENT
??_R3CChartBozoInput@@8 DD 00H				; CChartBozoInput::`RTTI Class Hierarchy Descriptor'
	DD	00H
	DD	01H
	DD	FLAT:??_R2CChartBozoInput@@8
rdata$r	ENDS
;	COMDAT ??_R0?AVCChartBozoInput@@@8
data$rs	SEGMENT
??_R0?AVCChartBozoInput@@@8 DD FLAT:??_7type_info@@6B@	; CChartBozoInput `RTTI Type Descriptor'
	DD	00H
	DB	'.?AVCChartBozoInput@@', 00H
data$rs	ENDS
;	COMDAT ??_R4CChartBozoInput@@6B@
rdata$r	SEGMENT
??_R4CChartBozoInput@@6B@ DD 00H			; CChartBozoInput::`RTTI Complete Object Locator'
	DD	00H
	DD	00H
	DD	FLAT:??_R0?AVCChartBozoInput@@@8
	DD	FLAT:??_R3CChartBozoInput@@8
rdata$r	ENDS
;	COMDAT ??_C@_04OHGLKFFN@?$CF03d@
CONST	SEGMENT
??_C@_04OHGLKFFN@?$CF03d@ DB '%03d', 00H		; `string'
CONST	ENDS
;	COMDAT ??_C@_01HIHLOKLC@1@
CONST	SEGMENT
??_C@_01HIHLOKLC@1@ DB '1', 00H				; `string'
CONST	ENDS
;	COMDAT ??_C@_02HAOIJKIC@?$CFc@
CONST	SEGMENT
??_C@_02HAOIJKIC@?$CFc@ DB '%c', 00H			; `string'
CONST	ENDS
;	COMDAT ??_C@_03JALODAI@?$CFld@
CONST	SEGMENT
??_C@_03JALODAI@?$CFld@ DB '%ld', 00H			; `string'
CONST	ENDS
;	COMDAT ??_C@_04IBKPHMDC@?$CFs12@
CONST	SEGMENT
??_C@_04IBKPHMDC@?$CFs12@ DB '%s12', 00H		; `string'
CONST	ENDS
;	COMDAT ??_C@_04ODOGNJOP@?$CF05d@
CONST	SEGMENT
??_C@_04ODOGNJOP@?$CF05d@ DB '%05d', 00H		; `string'
CONST	ENDS
;	COMDAT ??_C@_06GEKNBBDK@000000@
CONST	SEGMENT
??_C@_06GEKNBBDK@000000@ DB '000000', 00H		; `string'
CONST	ENDS
;	COMDAT ??_C@_0BA@PKAGJNBB@?$CF4?44s00?$HM?$CF4?44s00@
CONST	SEGMENT
??_C@_0BA@PKAGJNBB@?$CF4?44s00?$HM?$CF4?44s00@ DB '%4.4s00|%4.4s00', 00H ; `string'
CONST	ENDS
;	COMDAT ??_C@_02PLJDPFIO@00@
CONST	SEGMENT
??_C@_02PLJDPFIO@00@ DB '00', 00H			; `string'
CONST	ENDS
;	COMDAT ??_C@_02MKCBEDGC@22@
CONST	SEGMENT
??_C@_02MKCBEDGC@22@ DB '22', 00H			; `string'
CONST	ENDS
;	COMDAT ??_C@_02ODEKKOPI@11@
CONST	SEGMENT
??_C@_02ODEKKOPI@11@ DB '11', 00H			; `string'
CONST	ENDS
;	COMDAT ??_C@_02PKFBJPLJ@10@
CONST	SEGMENT
??_C@_02PKFBJPLJ@10@ DB '10', 00H			; `string'
CONST	ENDS
;	COMDAT ??_C@_04PEJMDNKC@?$CF0?$CKd@
CONST	SEGMENT
??_C@_04PEJMDNKC@?$CF0?$CKd@ DB '%0*d', 00H		; `string'
CONST	ENDS
;	COMDAT ??_C@_04OBKAGHLG@?$CF06d@
CONST	SEGMENT
??_C@_04OBKAGHLG@?$CF06d@ DB '%06d', 00H		; `string'
CONST	ENDS
;	COMDAT ??_C@_05IECFFCEA@51331@
CONST	SEGMENT
??_C@_05IECFFCEA@51331@ DB '51331', 00H			; `string'
CONST	ENDS
;	COMDAT ??_C@_04NPMNHKKB@6309@
CONST	SEGMENT
??_C@_04NPMNHKKB@6309@ DB '6309', 00H			; `string'
CONST	ENDS
;	COMDAT ??_C@_04MGNGELOA@6308@
CONST	SEGMENT
??_C@_04MGNGELOA@6308@ DB '6308', 00H			; `string'
CONST	ENDS
;	COMDAT ??_C@_04GJOHNAIC@6324@
CONST	SEGMENT
??_C@_04GJOHNAIC@6324@ DB '6324', 00H			; `string'
CONST	ENDS
;	COMDAT ??_C@_05KJKIHNPC@?$DP6500@
CONST	SEGMENT
??_C@_05KJKIHNPC@?$DP6500@ DB '?6500', 00H		; `string'
CONST	ENDS
;	COMDAT ??_C@_04JKCLLOCI@5339@
CONST	SEGMENT
??_C@_04JKCLLOCI@5339@ DB '5339', 00H			; `string'
CONST	ENDS
;	COMDAT ??_C@_04COEHKKFC@5324@
CONST	SEGMENT
??_C@_04COEHKKFC@5324@ DB '5324', 00H			; `string'
CONST	ENDS
;	COMDAT ??_C@_05OOAIAHCC@?$DP5500@
CONST	SEGMENT
??_C@_05OOAIAHCC@?$DP5500@ DB '?5500', 00H		; `string'
CONST	ENDS
;	COMDAT ??_C@_04GKNNALBF@4341@
CONST	SEGMENT
??_C@_04GKNNALBF@4341@ DB '4341', 00H			; `string'
CONST	ENDS
;	COMDAT ??_C@_04KHELJHJI@4339@
CONST	SEGMENT
??_C@_04KHELJHJI@4339@ DB '4339', 00H			; `string'
CONST	ENDS
;	COMDAT ??_C@_04KFANCJMB@4309@
CONST	SEGMENT
??_C@_04KFANCJMB@4309@ DB '4309', 00H			; `string'
CONST	ENDS
;	COMDAT ??_C@_04LMBGBIIA@4308@
CONST	SEGMENT
??_C@_04LMBGBIIA@4308@ DB '4308', 00H			; `string'
CONST	ENDS
;	COMDAT ??_C@_04BDCHIDOC@4324@
CONST	SEGMENT
??_C@_04BDCHIDOC@4324@ DB '4324', 00H			; `string'
CONST	ENDS
;	COMDAT ??_C@_05NDGICOJC@?$DP4500@
CONST	SEGMENT
??_C@_05NDGICOJC@?$DP4500@ DB '?4500', 00H		; `string'
CONST	ENDS
;	COMDAT ??_C@_04OFJNPOLF@2341@
CONST	SEGMENT
??_C@_04OFJNPOLF@2341@ DB '2341', 00H			; `string'
CONST	ENDS
;	COMDAT ??_C@_04LOCMGGPM@?$CFd?$CFs@
CONST	SEGMENT
??_C@_04LOCMGGPM@?$CFd?$CFs@ DB '%d%s', 00H		; `string'
CONST	ENDS
;	COMDAT ??_C@_04CKENNMGB@2309@
CONST	SEGMENT
??_C@_04CKENNMGB@2309@ DB '2309', 00H			; `string'
CONST	ENDS
;	COMDAT ??_C@_04JMGHHGEC@2324@
CONST	SEGMENT
??_C@_04JMGHHGEC@2324@ DB '2324', 00H			; `string'
CONST	ENDS
;	COMDAT ??_C@_05FMCINLDC@?$DP2500@
CONST	SEGMENT
??_C@_05FMCINLDC@?$DP2500@ DB '?2500', 00H		; `string'
CONST	ENDS
;	COMDAT ??_C@_07PGCHECEN@?$CF28?428s@
CONST	SEGMENT
??_C@_07PGCHECEN@?$CF28?428s@ DB '%28.28s', 00H		; `string'
CONST	ENDS
;	COMDAT ??_C@_0L@GJLPCMJN@USDKRWSMBS@
CONST	SEGMENT
??_C@_0L@GJLPCMJN@USDKRWSMBS@ DB 'USDKRWSMBS', 00H	; `string'
CONST	ENDS
;	COMDAT ??_C@_05OCAPCJBN@51305@
CONST	SEGMENT
??_C@_05OCAPCJBN@51305@ DB '51305', 00H			; `string'
CONST	ENDS
;	COMDAT ??_C@_0P@FLGGHACJ@99999999999999@
CONST	SEGMENT
??_C@_0P@FLGGHACJ@99999999999999@ DB '99999999999999', 00H ; `string'
CONST	ENDS
;	COMDAT ??_C@_07IKAGAOHD@SetInit@
CONST	SEGMENT
??_C@_07IKAGAOHD@SetInit@ DB 'SetInit', 00H		; `string'
CONST	ENDS
;	COMDAT ??_7CChartItemStock@@6B@
CONST	SEGMENT
??_7CChartItemStock@@6B@ DD FLAT:??_R4CChartItemStock@@6B@ ; CChartItemStock::`vftable'
	DD	FLAT:??_ECChartItemStock@@UAEPAXI@Z
CONST	ENDS
;	COMDAT ??_7CChartBozoInput@@6B@
CONST	SEGMENT
??_7CChartBozoInput@@6B@ DD FLAT:??_R4CChartBozoInput@@6B@ ; CChartBozoInput::`vftable'
	DD	FLAT:?Copy@CChartBozoInput@@UAEXABV1@@Z
	DD	FLAT:??4CChartBozoInput@@UAEAAV0@ABV0@@Z
CONST	ENDS
;	COMDAT ??_C@_0BC@GJFJNGJF@DRLog_RequestData@
CONST	SEGMENT
??_C@_0BC@GJFJNGJF@DRLog_RequestData@ DB 'DRLog_RequestData', 00H ; `string'
CONST	ENDS
;	COMDAT ??_C@_00CNPNBAHC@@
CONST	SEGMENT
??_C@_00CNPNBAHC@@ DB 00H				; `string'
CONST	ENDS
;	COMDAT ??_C@_02DPKJAMEF@?$CFd@
CONST	SEGMENT
??_C@_02DPKJAMEF@?$CFd@ DB '%d', 00H			; `string'
CONST	ENDS
;	COMDAT ??_R0PAVCException@@@8
data$r	SEGMENT
??_R0PAVCException@@@8 DD FLAT:??_7type_info@@6B@	; CException * `RTTI Type Descriptor'
	DD	00H
	DB	'.PAVCException@@', 00H
data$r	ENDS
;	COMDAT xdata$x
xdata$x	SEGMENT
__ehfuncinfo$?Convert2Struct@CChartItemStock@@QAEPADPAEHHAAH@Z DD 019930522H
	DD	04aH
	DD	FLAT:__unwindtable$?Convert2Struct@CChartItemStock@@QAEPADPAEHHAAH@Z
	DD	2 DUP(00H)
	DD	2 DUP(00H)
	DD	00H
	DD	01H
__unwindtable$?Convert2Struct@CChartItemStock@@QAEPADPAEHHAAH@Z DD 0ffffffffH
	DD	FLAT:__unwindfunclet$?Convert2Struct@CChartItemStock@@QAEPADPAEHHAAH@Z$0
	DD	00H
	DD	FLAT:__unwindfunclet$?Convert2Struct@CChartItemStock@@QAEPADPAEHHAAH@Z$1
	DD	01H
	DD	FLAT:__unwindfunclet$?Convert2Struct@CChartItemStock@@QAEPADPAEHHAAH@Z$2
	DD	02H
	DD	FLAT:__unwindfunclet$?Convert2Struct@CChartItemStock@@QAEPADPAEHHAAH@Z$3
	DD	03H
	DD	FLAT:__unwindfunclet$?Convert2Struct@CChartItemStock@@QAEPADPAEHHAAH@Z$4
	DD	04H
	DD	FLAT:__unwindfunclet$?Convert2Struct@CChartItemStock@@QAEPADPAEHHAAH@Z$5
	DD	05H
	DD	FLAT:__unwindfunclet$?Convert2Struct@CChartItemStock@@QAEPADPAEHHAAH@Z$6
	DD	06H
	DD	FLAT:__unwindfunclet$?Convert2Struct@CChartItemStock@@QAEPADPAEHHAAH@Z$7
	DD	07H
	DD	FLAT:__unwindfunclet$?Convert2Struct@CChartItemStock@@QAEPADPAEHHAAH@Z$8
	DD	08H
	DD	FLAT:__unwindfunclet$?Convert2Struct@CChartItemStock@@QAEPADPAEHHAAH@Z$9
	DD	09H
	DD	FLAT:__unwindfunclet$?Convert2Struct@CChartItemStock@@QAEPADPAEHHAAH@Z$10
	DD	0aH
	DD	FLAT:__unwindfunclet$?Convert2Struct@CChartItemStock@@QAEPADPAEHHAAH@Z$11
	DD	0bH
	DD	FLAT:__unwindfunclet$?Convert2Struct@CChartItemStock@@QAEPADPAEHHAAH@Z$12
	DD	0cH
	DD	FLAT:__unwindfunclet$?Convert2Struct@CChartItemStock@@QAEPADPAEHHAAH@Z$13
	DD	0dH
	DD	FLAT:__unwindfunclet$?Convert2Struct@CChartItemStock@@QAEPADPAEHHAAH@Z$14
	DD	0eH
	DD	FLAT:__unwindfunclet$?Convert2Struct@CChartItemStock@@QAEPADPAEHHAAH@Z$15
	DD	0fH
	DD	FLAT:__unwindfunclet$?Convert2Struct@CChartItemStock@@QAEPADPAEHHAAH@Z$16
	DD	010H
	DD	FLAT:__unwindfunclet$?Convert2Struct@CChartItemStock@@QAEPADPAEHHAAH@Z$17
	DD	011H
	DD	FLAT:__unwindfunclet$?Convert2Struct@CChartItemStock@@QAEPADPAEHHAAH@Z$18
	DD	012H
	DD	FLAT:__unwindfunclet$?Convert2Struct@CChartItemStock@@QAEPADPAEHHAAH@Z$20
	DD	012H
	DD	FLAT:__unwindfunclet$?Convert2Struct@CChartItemStock@@QAEPADPAEHHAAH@Z$22
	DD	012H
	DD	FLAT:__unwindfunclet$?Convert2Struct@CChartItemStock@@QAEPADPAEHHAAH@Z$24
	DD	012H
	DD	FLAT:__unwindfunclet$?Convert2Struct@CChartItemStock@@QAEPADPAEHHAAH@Z$26
	DD	012H
	DD	FLAT:__unwindfunclet$?Convert2Struct@CChartItemStock@@QAEPADPAEHHAAH@Z$28
	DD	012H
	DD	FLAT:__unwindfunclet$?Convert2Struct@CChartItemStock@@QAEPADPAEHHAAH@Z$29
	DD	012H
	DD	FLAT:__unwindfunclet$?Convert2Struct@CChartItemStock@@QAEPADPAEHHAAH@Z$31
	DD	012H
	DD	FLAT:__unwindfunclet$?Convert2Struct@CChartItemStock@@QAEPADPAEHHAAH@Z$33
	DD	012H
	DD	FLAT:__unwindfunclet$?Convert2Struct@CChartItemStock@@QAEPADPAEHHAAH@Z$35
	DD	012H
	DD	FLAT:__unwindfunclet$?Convert2Struct@CChartItemStock@@QAEPADPAEHHAAH@Z$37
	DD	012H
	DD	FLAT:__unwindfunclet$?Convert2Struct@CChartItemStock@@QAEPADPAEHHAAH@Z$39
	DD	012H
	DD	FLAT:__unwindfunclet$?Convert2Struct@CChartItemStock@@QAEPADPAEHHAAH@Z$41
	DD	012H
	DD	FLAT:__unwindfunclet$?Convert2Struct@CChartItemStock@@QAEPADPAEHHAAH@Z$43
	DD	012H
	DD	FLAT:__unwindfunclet$?Convert2Struct@CChartItemStock@@QAEPADPAEHHAAH@Z$45
	DD	012H
	DD	FLAT:__unwindfunclet$?Convert2Struct@CChartItemStock@@QAEPADPAEHHAAH@Z$47
	DD	012H
	DD	FLAT:__unwindfunclet$?Convert2Struct@CChartItemStock@@QAEPADPAEHHAAH@Z$49
	DD	012H
	DD	FLAT:__unwindfunclet$?Convert2Struct@CChartItemStock@@QAEPADPAEHHAAH@Z$51
	DD	012H
	DD	FLAT:__unwindfunclet$?Convert2Struct@CChartItemStock@@QAEPADPAEHHAAH@Z$53
	DD	024H
	DD	FLAT:__unwindfunclet$?Convert2Struct@CChartItemStock@@QAEPADPAEHHAAH@Z$55
	DD	025H
	DD	FLAT:__unwindfunclet$?Convert2Struct@CChartItemStock@@QAEPADPAEHHAAH@Z$57
	DD	026H
	DD	FLAT:__unwindfunclet$?Convert2Struct@CChartItemStock@@QAEPADPAEHHAAH@Z$58
	DD	027H
	DD	FLAT:__unwindfunclet$?Convert2Struct@CChartItemStock@@QAEPADPAEHHAAH@Z$60
	DD	028H
	DD	FLAT:__unwindfunclet$?Convert2Struct@CChartItemStock@@QAEPADPAEHHAAH@Z$62
	DD	029H
	DD	FLAT:__unwindfunclet$?Convert2Struct@CChartItemStock@@QAEPADPAEHHAAH@Z$64
	DD	02aH
	DD	FLAT:__unwindfunclet$?Convert2Struct@CChartItemStock@@QAEPADPAEHHAAH@Z$65
	DD	02aH
	DD	FLAT:__unwindfunclet$?Convert2Struct@CChartItemStock@@QAEPADPAEHHAAH@Z$66
	DD	02aH
	DD	FLAT:__unwindfunclet$?Convert2Struct@CChartItemStock@@QAEPADPAEHHAAH@Z$67
	DD	02aH
	DD	FLAT:__unwindfunclet$?Convert2Struct@CChartItemStock@@QAEPADPAEHHAAH@Z$68
	DD	02eH
	DD	FLAT:__unwindfunclet$?Convert2Struct@CChartItemStock@@QAEPADPAEHHAAH@Z$70
	DD	02eH
	DD	FLAT:__unwindfunclet$?Convert2Struct@CChartItemStock@@QAEPADPAEHHAAH@Z$71
	DD	030H
	DD	FLAT:__unwindfunclet$?Convert2Struct@CChartItemStock@@QAEPADPAEHHAAH@Z$72
	DD	031H
	DD	FLAT:__unwindfunclet$?Convert2Struct@CChartItemStock@@QAEPADPAEHHAAH@Z$73
	DD	032H
	DD	FLAT:__unwindfunclet$?Convert2Struct@CChartItemStock@@QAEPADPAEHHAAH@Z$74
	DD	033H
	DD	FLAT:__unwindfunclet$?Convert2Struct@CChartItemStock@@QAEPADPAEHHAAH@Z$98
	DD	032H
	DD	FLAT:__unwindfunclet$?Convert2Struct@CChartItemStock@@QAEPADPAEHHAAH@Z$76
	DD	035H
	DD	FLAT:__unwindfunclet$?Convert2Struct@CChartItemStock@@QAEPADPAEHHAAH@Z$77
	DD	036H
	DD	FLAT:__unwindfunclet$?Convert2Struct@CChartItemStock@@QAEPADPAEHHAAH@Z$99
	DD	032H
	DD	FLAT:__unwindfunclet$?Convert2Struct@CChartItemStock@@QAEPADPAEHHAAH@Z$79
	DD	032H
	DD	FLAT:__unwindfunclet$?Convert2Struct@CChartItemStock@@QAEPADPAEHHAAH@Z$80
	DD	039H
	DD	FLAT:__unwindfunclet$?Convert2Struct@CChartItemStock@@QAEPADPAEHHAAH@Z$81
	DD	03aH
	DD	FLAT:__unwindfunclet$?Convert2Struct@CChartItemStock@@QAEPADPAEHHAAH@Z$100
	DD	032H
	DD	FLAT:__unwindfunclet$?Convert2Struct@CChartItemStock@@QAEPADPAEHHAAH@Z$83
	DD	032H
	DD	FLAT:__unwindfunclet$?Convert2Struct@CChartItemStock@@QAEPADPAEHHAAH@Z$84
	DD	032H
	DD	FLAT:__unwindfunclet$?Convert2Struct@CChartItemStock@@QAEPADPAEHHAAH@Z$85
	DD	032H
	DD	FLAT:__unwindfunclet$?Convert2Struct@CChartItemStock@@QAEPADPAEHHAAH@Z$86
	DD	03fH
	DD	FLAT:__unwindfunclet$?Convert2Struct@CChartItemStock@@QAEPADPAEHHAAH@Z$87
	DD	03fH
	DD	FLAT:__unwindfunclet$?Convert2Struct@CChartItemStock@@QAEPADPAEHHAAH@Z$88
	DD	03fH
	DD	FLAT:__unwindfunclet$?Convert2Struct@CChartItemStock@@QAEPADPAEHHAAH@Z$89
	DD	03fH
	DD	FLAT:__unwindfunclet$?Convert2Struct@CChartItemStock@@QAEPADPAEHHAAH@Z$90
	DD	03fH
	DD	FLAT:__unwindfunclet$?Convert2Struct@CChartItemStock@@QAEPADPAEHHAAH@Z$91
	DD	03fH
	DD	FLAT:__unwindfunclet$?Convert2Struct@CChartItemStock@@QAEPADPAEHHAAH@Z$92
	DD	03fH
	DD	FLAT:__unwindfunclet$?Convert2Struct@CChartItemStock@@QAEPADPAEHHAAH@Z$93
	DD	03fH
	DD	FLAT:__unwindfunclet$?Convert2Struct@CChartItemStock@@QAEPADPAEHHAAH@Z$94
	DD	032H
	DD	FLAT:__unwindfunclet$?Convert2Struct@CChartItemStock@@QAEPADPAEHHAAH@Z$95
	DD	032H
	DD	FLAT:__unwindfunclet$?Convert2Struct@CChartItemStock@@QAEPADPAEHHAAH@Z$96
xdata$x	ENDS
;	COMDAT xdata$x
xdata$x	SEGMENT
__ehfuncinfo$?Convert@CChartItemStock@@QAE?AV?$CStringT@DV?$StrTraitMFC_DLL@DV?$ChTraitsCRT@D@ATL@@@@@ATL@@XZ DD 019930522H
	DD	019H
	DD	FLAT:__unwindtable$?Convert@CChartItemStock@@QAE?AV?$CStringT@DV?$StrTraitMFC_DLL@DV?$ChTraitsCRT@D@ATL@@@@@ATL@@XZ
	DD	2 DUP(00H)
	DD	2 DUP(00H)
	DD	00H
	DD	01H
__unwindtable$?Convert@CChartItemStock@@QAE?AV?$CStringT@DV?$StrTraitMFC_DLL@DV?$ChTraitsCRT@D@ATL@@@@@ATL@@XZ DD 0ffffffffH
	DD	FLAT:__unwindfunclet$?Convert@CChartItemStock@@QAE?AV?$CStringT@DV?$StrTraitMFC_DLL@DV?$ChTraitsCRT@D@ATL@@@@@ATL@@XZ$1
	DD	00H
	DD	FLAT:__unwindfunclet$?Convert@CChartItemStock@@QAE?AV?$CStringT@DV?$StrTraitMFC_DLL@DV?$ChTraitsCRT@D@ATL@@@@@ATL@@XZ$2
	DD	01H
	DD	FLAT:__unwindfunclet$?Convert@CChartItemStock@@QAE?AV?$CStringT@DV?$StrTraitMFC_DLL@DV?$ChTraitsCRT@D@ATL@@@@@ATL@@XZ$3
	DD	02H
	DD	FLAT:__unwindfunclet$?Convert@CChartItemStock@@QAE?AV?$CStringT@DV?$StrTraitMFC_DLL@DV?$ChTraitsCRT@D@ATL@@@@@ATL@@XZ$4
	DD	03H
	DD	FLAT:__unwindfunclet$?Convert@CChartItemStock@@QAE?AV?$CStringT@DV?$StrTraitMFC_DLL@DV?$ChTraitsCRT@D@ATL@@@@@ATL@@XZ$5
	DD	04H
	DD	FLAT:__unwindfunclet$?Convert@CChartItemStock@@QAE?AV?$CStringT@DV?$StrTraitMFC_DLL@DV?$ChTraitsCRT@D@ATL@@@@@ATL@@XZ$6
	DD	05H
	DD	FLAT:__unwindfunclet$?Convert@CChartItemStock@@QAE?AV?$CStringT@DV?$StrTraitMFC_DLL@DV?$ChTraitsCRT@D@ATL@@@@@ATL@@XZ$7
	DD	06H
	DD	FLAT:__unwindfunclet$?Convert@CChartItemStock@@QAE?AV?$CStringT@DV?$StrTraitMFC_DLL@DV?$ChTraitsCRT@D@ATL@@@@@ATL@@XZ$8
	DD	07H
	DD	FLAT:__unwindfunclet$?Convert@CChartItemStock@@QAE?AV?$CStringT@DV?$StrTraitMFC_DLL@DV?$ChTraitsCRT@D@ATL@@@@@ATL@@XZ$9
	DD	07H
	DD	FLAT:__unwindfunclet$?Convert@CChartItemStock@@QAE?AV?$CStringT@DV?$StrTraitMFC_DLL@DV?$ChTraitsCRT@D@ATL@@@@@ATL@@XZ$10
	DD	07H
	DD	FLAT:__unwindfunclet$?Convert@CChartItemStock@@QAE?AV?$CStringT@DV?$StrTraitMFC_DLL@DV?$ChTraitsCRT@D@ATL@@@@@ATL@@XZ$11
	DD	07H
	DD	FLAT:__unwindfunclet$?Convert@CChartItemStock@@QAE?AV?$CStringT@DV?$StrTraitMFC_DLL@DV?$ChTraitsCRT@D@ATL@@@@@ATL@@XZ$12
	DD	07H
	DD	FLAT:__unwindfunclet$?Convert@CChartItemStock@@QAE?AV?$CStringT@DV?$StrTraitMFC_DLL@DV?$ChTraitsCRT@D@ATL@@@@@ATL@@XZ$13
	DD	07H
	DD	FLAT:__unwindfunclet$?Convert@CChartItemStock@@QAE?AV?$CStringT@DV?$StrTraitMFC_DLL@DV?$ChTraitsCRT@D@ATL@@@@@ATL@@XZ$14
	DD	0dH
	DD	FLAT:__unwindfunclet$?Convert@CChartItemStock@@QAE?AV?$CStringT@DV?$StrTraitMFC_DLL@DV?$ChTraitsCRT@D@ATL@@@@@ATL@@XZ$15
	DD	0eH
	DD	FLAT:__unwindfunclet$?Convert@CChartItemStock@@QAE?AV?$CStringT@DV?$StrTraitMFC_DLL@DV?$ChTraitsCRT@D@ATL@@@@@ATL@@XZ$16
	DD	0fH
	DD	FLAT:__unwindfunclet$?Convert@CChartItemStock@@QAE?AV?$CStringT@DV?$StrTraitMFC_DLL@DV?$ChTraitsCRT@D@ATL@@@@@ATL@@XZ$17
	DD	010H
	DD	FLAT:__unwindfunclet$?Convert@CChartItemStock@@QAE?AV?$CStringT@DV?$StrTraitMFC_DLL@DV?$ChTraitsCRT@D@ATL@@@@@ATL@@XZ$18
	DD	010H
	DD	FLAT:__unwindfunclet$?Convert@CChartItemStock@@QAE?AV?$CStringT@DV?$StrTraitMFC_DLL@DV?$ChTraitsCRT@D@ATL@@@@@ATL@@XZ$19
	DD	010H
	DD	FLAT:__unwindfunclet$?Convert@CChartItemStock@@QAE?AV?$CStringT@DV?$StrTraitMFC_DLL@DV?$ChTraitsCRT@D@ATL@@@@@ATL@@XZ$20
	DD	010H
	DD	FLAT:__unwindfunclet$?Convert@CChartItemStock@@QAE?AV?$CStringT@DV?$StrTraitMFC_DLL@DV?$ChTraitsCRT@D@ATL@@@@@ATL@@XZ$21
	DD	010H
	DD	FLAT:__unwindfunclet$?Convert@CChartItemStock@@QAE?AV?$CStringT@DV?$StrTraitMFC_DLL@DV?$ChTraitsCRT@D@ATL@@@@@ATL@@XZ$22
	DD	010H
	DD	FLAT:__unwindfunclet$?Convert@CChartItemStock@@QAE?AV?$CStringT@DV?$StrTraitMFC_DLL@DV?$ChTraitsCRT@D@ATL@@@@@ATL@@XZ$23
	DD	010H
	DD	FLAT:__unwindfunclet$?Convert@CChartItemStock@@QAE?AV?$CStringT@DV?$StrTraitMFC_DLL@DV?$ChTraitsCRT@D@ATL@@@@@ATL@@XZ$24
	DD	010H
	DD	FLAT:__unwindfunclet$?Convert@CChartItemStock@@QAE?AV?$CStringT@DV?$StrTraitMFC_DLL@DV?$ChTraitsCRT@D@ATL@@@@@ATL@@XZ$25
xdata$x	ENDS
;	COMDAT xdata$x
xdata$x	SEGMENT
__catchsym$?SetInData@CChartItemStock@@QAEXPAUKB_p0602_InRec1@@@Z$2 DD 00H
	DD	FLAT:??_R0PAVCException@@@8
	DD	0fffffee0H
	DD	FLAT:__catch$?SetInData@CChartItemStock@@QAEXPAUKB_p0602_InRec1@@@Z$0
__unwindtable$?SetInData@CChartItemStock@@QAEXPAUKB_p0602_InRec1@@@Z DD 0ffffffffH
	DD	00H
	DD	0ffffffffH
	DD	00H
__tryblocktable$?SetInData@CChartItemStock@@QAEXPAUKB_p0602_InRec1@@@Z DD 00H
	DD	00H
	DD	01H
	DD	01H
	DD	FLAT:__catchsym$?SetInData@CChartItemStock@@QAEXPAUKB_p0602_InRec1@@@Z$2
__ehfuncinfo$?SetInData@CChartItemStock@@QAEXPAUKB_p0602_InRec1@@@Z DD 019930522H
	DD	02H
	DD	FLAT:__unwindtable$?SetInData@CChartItemStock@@QAEXPAUKB_p0602_InRec1@@@Z
	DD	01H
	DD	FLAT:__tryblocktable$?SetInData@CChartItemStock@@QAEXPAUKB_p0602_InRec1@@@Z
	DD	2 DUP(00H)
	DD	00H
	DD	01H
xdata$x	ENDS
;	COMDAT xdata$x
xdata$x	SEGMENT
__unwindtable$??HATL@@YA?AV?$CStringT@DV?$StrTraitMFC_DLL@DV?$ChTraitsCRT@D@ATL@@@@@0@ABV10@0@Z DD 0ffffffffH
	DD	FLAT:__unwindfunclet$??HATL@@YA?AV?$CStringT@DV?$StrTraitMFC_DLL@DV?$ChTraitsCRT@D@ATL@@@@@0@ABV10@0@Z$0
__ehfuncinfo$??HATL@@YA?AV?$CStringT@DV?$StrTraitMFC_DLL@DV?$ChTraitsCRT@D@ATL@@@@@0@ABV10@0@Z DD 019930522H
	DD	01H
	DD	FLAT:__unwindtable$??HATL@@YA?AV?$CStringT@DV?$StrTraitMFC_DLL@DV?$ChTraitsCRT@D@ATL@@@@@0@ABV10@0@Z
	DD	2 DUP(00H)
	DD	2 DUP(00H)
	DD	00H
	DD	01H
xdata$x	ENDS
CRT$XCU	SEGMENT
?RMSG_GETPCTRDATA$initializer$@@3P6AXXZA DD FLAT:??__ERMSG_GETPCTRDATA@@YAXXZ ; RMSG_GETPCTRDATA$initializer$
CRT$XCU	ENDS
CRT$XCU	SEGMENT
?RMSG_SETPCTRDATA$initializer$@@3P6AXXZA DD FLAT:??__ERMSG_SETPCTRDATA@@YAXXZ ; RMSG_SETPCTRDATA$initializer$
CRT$XCU	ENDS
CRT$XCU	SEGMENT
?RMSG_GETSIGNAL_REAL$initializer$@@3P6AXXZA DD FLAT:??__ERMSG_GETSIGNAL_REAL@@YAXXZ ; RMSG_GETSIGNAL_REAL$initializer$
CRT$XCU	ENDS
; Function compile flags: /Ogtp
; File D:\git\src\IBK\IBK_DRFN\ProjSrc\SrcDrfn\DrCommon\PartnerMng\ChartItemStock.cpp
;	COMDAT ??_GCChartItemStock@@UAEPAXI@Z
_TEXT	SEGMENT
___flags$ = 8						; size = 4
??_GCChartItemStock@@UAEPAXI@Z PROC			; CChartItemStock::`scalar deleting destructor', COMDAT
; _this$ = ecx
  00000	55		 push	 ebp
  00001	8b ec		 mov	 ebp, esp

; 48   : {

  00003	56		 push	 esi
  00004	8b f1		 mov	 esi, ecx

; 49   : }

  00006	8d 4e 74	 lea	 ecx, DWORD PTR [esi+116]
  00009	c7 06 00 00 00
	00		 mov	 DWORD PTR [esi], OFFSET ??_7CChartItemStock@@6B@
  0000f	e8 00 00 00 00	 call	 ??1CChartBozoInput@@QAE@XZ
  00014	f6 45 08 01	 test	 BYTE PTR ___flags$[ebp], 1
  00018	74 0e		 je	 SHORT $LN7@scalar
  0001a	68 40 01 00 00	 push	 320			; 00000140H
  0001f	56		 push	 esi
  00020	e8 00 00 00 00	 call	 ??3@YAXPAXI@Z		; operator delete
  00025	83 c4 08	 add	 esp, 8
$LN7@scalar:
  00028	8b c6		 mov	 eax, esi
  0002a	5e		 pop	 esi
  0002b	5d		 pop	 ebp
  0002c	c2 04 00	 ret	 4
??_GCChartItemStock@@UAEPAXI@Z ENDP			; CChartItemStock::`scalar deleting destructor'
_TEXT	ENDS
; Function compile flags: /Ogtp
; File D:\git\src\IBK\IBK_DRFN\ProjSrc\SrcDrfn\DrCommon\PartnerMng\ChartItemStock.cpp
; File C:\Program Files (x86)\Microsoft Visual Studio\2019\Community\VC\Tools\MSVC\14.29.30133\atlmfc\include\atlsimpstr.h
; File D:\git\src\IBK\IBK_DRFN\ProjSrc\SrcDrfn\DrCommon\PartnerMng\ChartItemStock.cpp
; File C:\Program Files (x86)\Microsoft Visual Studio\2019\Community\VC\Tools\MSVC\14.29.30133\atlmfc\include\atlsimpstr.h
; File D:\git\src\IBK\IBK_DRFN\ProjSrc\SrcDrfn\DrCommon\PartnerMng\ChartItemStock.cpp
; File C:\Program Files (x86)\Microsoft Visual Studio\2019\Community\VC\Tools\MSVC\14.29.30133\atlmfc\include\atlsimpstr.h
; File D:\git\src\IBK\IBK_DRFN\ProjSrc\SrcDrfn\DrCommon\PartnerMng\ChartItemStock.cpp
; File C:\Program Files (x86)\Microsoft Visual Studio\2019\Community\VC\Tools\MSVC\14.29.30133\atlmfc\include\atlsimpstr.h
; File D:\git\src\IBK\IBK_DRFN\ProjSrc\SrcDrfn\DrCommon\PartnerMng\ChartItemStock.cpp
; File C:\Program Files (x86)\Microsoft Visual Studio\2019\Community\VC\Tools\MSVC\14.29.30133\atlmfc\include\atlsimpstr.h
; File D:\git\src\IBK\IBK_DRFN\ProjSrc\SrcDrfn\DrCommon\PartnerMng\ChartItemStock.cpp
; File C:\Program Files (x86)\Microsoft Visual Studio\2019\Community\VC\Tools\MSVC\14.29.30133\atlmfc\include\atlsimpstr.h
; File D:\git\src\IBK\IBK_DRFN\ProjSrc\SrcDrfn\DrCommon\PartnerMng\ChartItemStock.cpp
; File C:\Program Files (x86)\Microsoft Visual Studio\2019\Community\VC\Tools\MSVC\14.29.30133\atlmfc\include\atlsimpstr.h
; File D:\git\src\IBK\IBK_DRFN\ProjSrc\SrcDrfn\DrCommon\PartnerMng\ChartItemStock.cpp
; File C:\Program Files (x86)\Microsoft Visual Studio\2019\Community\VC\Tools\MSVC\14.29.30133\atlmfc\include\atlsimpstr.h
; File D:\git\src\IBK\IBK_DRFN\ProjSrc\SrcDrfn\DrCommon\PartnerMng\ChartItemStock.cpp
; File C:\Program Files (x86)\Microsoft Visual Studio\2019\Community\VC\Tools\MSVC\14.29.30133\atlmfc\include\atlsimpstr.h
; File D:\git\src\IBK\IBK_DRFN\ProjSrc\SrcDrfn\DrCommon\PartnerMng\ChartItemStock.cpp
; File C:\Program Files (x86)\Microsoft Visual Studio\2019\Community\VC\Tools\MSVC\14.29.30133\atlmfc\include\atlsimpstr.h
; File D:\git\src\IBK\IBK_DRFN\ProjSrc\SrcDrfn\DrCommon\PartnerMng\ChartItemStock.cpp
; File C:\Program Files (x86)\Microsoft Visual Studio\2019\Community\VC\Tools\MSVC\14.29.30133\atlmfc\include\atlsimpstr.h
; File D:\git\src\IBK\IBK_DRFN\ProjSrc\SrcDrfn\DrCommon\PartnerMng\ChartItemStock.cpp
; File C:\Program Files (x86)\Microsoft Visual Studio\2019\Community\VC\Tools\MSVC\14.29.30133\atlmfc\include\atlsimpstr.h
; File D:\git\src\IBK\IBK_DRFN\ProjSrc\SrcDrfn\DrCommon\PartnerMng\ChartItemStock.cpp
; File C:\Program Files (x86)\Microsoft Visual Studio\2019\Community\VC\Tools\MSVC\14.29.30133\atlmfc\include\atlsimpstr.h
; File D:\git\src\IBK\IBK_DRFN\ProjSrc\SrcDrfn\DrCommon\PartnerMng\ChartItemStock.cpp
; File C:\Program Files (x86)\Microsoft Visual Studio\2019\Community\VC\Tools\MSVC\14.29.30133\atlmfc\include\cstringt.h
; File D:\git\src\IBK\IBK_DRFN\ProjSrc\SrcDrfn\DrCommon\PartnerMng\ChartItemStock.cpp
; File C:\Program Files (x86)\Microsoft Visual Studio\2019\Community\VC\Tools\MSVC\14.29.30133\atlmfc\include\atlsimpstr.h
; File D:\git\src\IBK\IBK_DRFN\ProjSrc\SrcDrfn\DrCommon\PartnerMng\ChartItemStock.cpp
; File C:\Program Files (x86)\Microsoft Visual Studio\2019\Community\VC\Tools\MSVC\14.29.30133\atlmfc\include\atlsimpstr.h
; File D:\git\src\IBK\IBK_DRFN\ProjSrc\SrcDrfn\DrCommon\PartnerMng\ChartItemStock.cpp
; File C:\Program Files (x86)\Microsoft Visual Studio\2019\Community\VC\Tools\MSVC\14.29.30133\atlmfc\include\atlsimpstr.h
; File D:\git\src\IBK\IBK_DRFN\ProjSrc\SrcDrfn\DrCommon\PartnerMng\ChartItemStock.cpp
; File C:\Program Files (x86)\Microsoft Visual Studio\2019\Community\VC\Tools\MSVC\14.29.30133\atlmfc\include\afxcoll.inl
; File C:\Program Files (x86)\Microsoft Visual Studio\2019\Community\VC\Tools\MSVC\14.29.30133\atlmfc\include\atlsimpstr.h
; File D:\git\src\IBK\IBK_DRFN\ProjSrc\SrcDrfn\DrCommon\PartnerMng\ChartItemStock.cpp
; File C:\Program Files (x86)\Microsoft Visual Studio\2019\Community\VC\Tools\MSVC\14.29.30133\atlmfc\include\afxcoll.inl
; File D:\git\src\IBK\IBK_DRFN\ProjSrc\SrcDrfn\DrCommon\PartnerMng\ChartItemStock.cpp
; File C:\Program Files (x86)\Microsoft Visual Studio\2019\Community\VC\Tools\MSVC\14.29.30133\atlmfc\include\afxcoll.inl
; File D:\git\src\IBK\IBK_DRFN\ProjSrc\SrcDrfn\DrCommon\PartnerMng\ChartItemStock.cpp
; File C:\Program Files (x86)\Microsoft Visual Studio\2019\Community\VC\Tools\MSVC\14.29.30133\atlmfc\include\afxcoll.inl
; File D:\git\src\IBK\IBK_DRFN\ProjSrc\SrcDrfn\DrCommon\PartnerMng\ChartItemStock.cpp
; File C:\Program Files (x86)\Microsoft Visual Studio\2019\Community\VC\Tools\MSVC\14.29.30133\atlmfc\include\afxcoll.inl
; File D:\git\src\IBK\IBK_DRFN\ProjSrc\SrcDrfn\DrCommon\PartnerMng\ChartItemStock.cpp
; File C:\Program Files (x86)\Microsoft Visual Studio\2019\Community\VC\Tools\MSVC\14.29.30133\atlmfc\include\cstringt.h
; File D:\git\src\IBK\IBK_DRFN\ProjSrc\SrcDrfn\DrCommon\PartnerMng\ChartItemStock.cpp
; File C:\Program Files (x86)\Microsoft Visual Studio\2019\Community\VC\Tools\MSVC\14.29.30133\atlmfc\include\cstringt.h
; File C:\Program Files (x86)\Microsoft Visual Studio\2019\Community\VC\Tools\MSVC\14.29.30133\atlmfc\include\atlsimpstr.h
; File C:\Program Files (x86)\Microsoft Visual Studio\2019\Community\VC\Tools\MSVC\14.29.30133\atlmfc\include\cstringt.h
; File C:\Program Files (x86)\Microsoft Visual Studio\2019\Community\VC\Tools\MSVC\14.29.30133\atlmfc\include\atlsimpstr.h
; File C:\Program Files (x86)\Microsoft Visual Studio\2019\Community\VC\Tools\MSVC\14.29.30133\atlmfc\include\cstringt.h
; File D:\git\src\IBK\IBK_DRFN\ProjSrc\SrcDrfn\DrCommon\PartnerMng\ChartItemStock.cpp
; File C:\Program Files (x86)\Microsoft Visual Studio\2019\Community\VC\Tools\MSVC\14.29.30133\atlmfc\include\cstringt.h
; File D:\git\src\IBK\IBK_DRFN\ProjSrc\SrcDrfn\DrCommon\PartnerMng\ChartItemStock.cpp
; File C:\Program Files (x86)\Microsoft Visual Studio\2019\Community\VC\Tools\MSVC\14.29.30133\atlmfc\include\cstringt.h
; File C:\Program Files (x86)\Microsoft Visual Studio\2019\Community\VC\Tools\MSVC\14.29.30133\atlmfc\include\atlsimpstr.h
; File C:\Program Files (x86)\Microsoft Visual Studio\2019\Community\VC\Tools\MSVC\14.29.30133\atlmfc\include\cstringt.h
; File C:\Program Files (x86)\Microsoft Visual Studio\2019\Community\VC\Tools\MSVC\14.29.30133\atlmfc\include\atlsimpstr.h
; File C:\Program Files (x86)\Microsoft Visual Studio\2019\Community\VC\Tools\MSVC\14.29.30133\atlmfc\include\cstringt.h
; File D:\git\src\IBK\IBK_DRFN\ProjSrc\SrcDrfn\DrCommon\PartnerMng\ChartItemStock.cpp
; File C:\Program Files (x86)\Microsoft Visual Studio\2019\Community\VC\Tools\MSVC\14.29.30133\atlmfc\include\cstringt.h
; File D:\git\src\IBK\IBK_DRFN\ProjSrc\SrcDrfn\DrCommon\PartnerMng\ChartItemStock.cpp
; File C:\Program Files (x86)\Microsoft Visual Studio\2019\Community\VC\Tools\MSVC\14.29.30133\atlmfc\include\cstringt.h
; File C:\Program Files (x86)\Microsoft Visual Studio\2019\Community\VC\Tools\MSVC\14.29.30133\atlmfc\include\atlsimpstr.h
; File C:\Program Files (x86)\Microsoft Visual Studio\2019\Community\VC\Tools\MSVC\14.29.30133\atlmfc\include\cstringt.h
; File C:\Program Files (x86)\Microsoft Visual Studio\2019\Community\VC\Tools\MSVC\14.29.30133\atlmfc\include\atlsimpstr.h
; File C:\Program Files (x86)\Microsoft Visual Studio\2019\Community\VC\Tools\MSVC\14.29.30133\atlmfc\include\cstringt.h
; File D:\git\src\IBK\IBK_DRFN\ProjSrc\SrcDrfn\DrCommon\PartnerMng\ChartItemStock.cpp
; File C:\Program Files (x86)\Microsoft Visual Studio\2019\Community\VC\Tools\MSVC\14.29.30133\atlmfc\include\atlsimpstr.h
; File D:\git\src\IBK\IBK_DRFN\ProjSrc\SrcDrfn\DrCommon\PartnerMng\ChartItemStock.cpp
; File C:\Program Files (x86)\Microsoft Visual Studio\2019\Community\VC\Tools\MSVC\14.29.30133\atlmfc\include\atlsimpstr.h
; File D:\git\src\IBK\IBK_DRFN\ProjSrc\SrcDrfn\DrCommon\PartnerMng\ChartItemStock.cpp
; File C:\Program Files (x86)\Microsoft Visual Studio\2019\Community\VC\Tools\MSVC\14.29.30133\atlmfc\include\afxcoll.inl
; File D:\git\src\IBK\IBK_DRFN\ProjSrc\SrcDrfn\DrCommon\PartnerMng\ChartItemStock.cpp
; File C:\Program Files (x86)\Microsoft Visual Studio\2019\Community\VC\Tools\MSVC\14.29.30133\atlmfc\include\afxcoll.inl
; File D:\git\src\IBK\IBK_DRFN\ProjSrc\SrcDrfn\DrCommon\PartnerMng\ChartItemStock.cpp
; File C:\Program Files (x86)\Microsoft Visual Studio\2019\Community\VC\Tools\MSVC\14.29.30133\atlmfc\include\atlsimpstr.h
; File D:\git\src\IBK\IBK_DRFN\ProjSrc\SrcDrfn\DrCommon\PartnerMng\ChartItemStock.cpp
; File C:\Program Files (x86)\Microsoft Visual Studio\2019\Community\VC\Tools\MSVC\14.29.30133\atlmfc\include\atlsimpstr.h
; File D:\git\src\IBK\IBK_DRFN\ProjSrc\SrcDrfn\DrCommon\PartnerMng\ChartItemStock.cpp
; File C:\Program Files (x86)\Microsoft Visual Studio\2019\Community\VC\Tools\MSVC\14.29.30133\atlmfc\include\afxcoll.inl
; File D:\git\src\IBK\IBK_DRFN\ProjSrc\SrcDrfn\DrCommon\PartnerMng\ChartItemStock.cpp
; File C:\Program Files (x86)\Microsoft Visual Studio\2019\Community\VC\Tools\MSVC\14.29.30133\atlmfc\include\afxcoll.inl
; File D:\git\src\IBK\IBK_DRFN\ProjSrc\SrcDrfn\DrCommon\PartnerMng\ChartItemStock.cpp
; File C:\Program Files (x86)\Microsoft Visual Studio\2019\Community\VC\Tools\MSVC\14.29.30133\atlmfc\include\atlsimpstr.h
; File D:\git\src\IBK\IBK_DRFN\ProjSrc\SrcDrfn\DrCommon\PartnerMng\ChartItemStock.cpp
; File C:\Program Files (x86)\Microsoft Visual Studio\2019\Community\VC\Tools\MSVC\14.29.30133\atlmfc\include\atlsimpstr.h
; File D:\git\src\IBK\IBK_DRFN\ProjSrc\SrcDrfn\DrCommon\PartnerMng\ChartItemStock.cpp
; File C:\Program Files (x86)\Microsoft Visual Studio\2019\Community\VC\Tools\MSVC\14.29.30133\atlmfc\include\afxcoll.inl
; File D:\git\src\IBK\IBK_DRFN\ProjSrc\SrcDrfn\DrCommon\PartnerMng\ChartItemStock.cpp
; File C:\Program Files (x86)\Microsoft Visual Studio\2019\Community\VC\Tools\MSVC\14.29.30133\atlmfc\include\afxcoll.inl
; File D:\git\src\IBK\IBK_DRFN\ProjSrc\SrcDrfn\DrCommon\PartnerMng\ChartItemStock.cpp
; File C:\Program Files (x86)\Microsoft Visual Studio\2019\Community\VC\Tools\MSVC\14.29.30133\atlmfc\include\atlsimpstr.h
; File D:\git\src\IBK\IBK_DRFN\ProjSrc\SrcDrfn\DrCommon\PartnerMng\ChartItemStock.cpp
; File C:\Program Files (x86)\Microsoft Visual Studio\2019\Community\VC\Tools\MSVC\14.29.30133\atlmfc\include\atlsimpstr.h
; File D:\git\src\IBK\IBK_DRFN\ProjSrc\SrcDrfn\DrCommon\PartnerMng\ChartItemStock.cpp
; File C:\Program Files (x86)\Microsoft Visual Studio\2019\Community\VC\Tools\MSVC\14.29.30133\atlmfc\include\afxcoll.inl
; File D:\git\src\IBK\IBK_DRFN\ProjSrc\SrcDrfn\DrCommon\PartnerMng\ChartItemStock.cpp
; File C:\Program Files (x86)\Microsoft Visual Studio\2019\Community\VC\Tools\MSVC\14.29.30133\atlmfc\include\afxcoll.inl
; File D:\git\src\IBK\IBK_DRFN\ProjSrc\SrcDrfn\DrCommon\PartnerMng\ChartItemStock.cpp
; File C:\Program Files (x86)\Microsoft Visual Studio\2019\Community\VC\Tools\MSVC\14.29.30133\atlmfc\include\atlsimpstr.h
; File D:\git\src\IBK\IBK_DRFN\ProjSrc\SrcDrfn\DrCommon\PartnerMng\ChartItemStock.cpp
; File C:\Program Files (x86)\Microsoft Visual Studio\2019\Community\VC\Tools\MSVC\14.29.30133\atlmfc\include\atlsimpstr.h
; File D:\git\src\IBK\IBK_DRFN\ProjSrc\SrcDrfn\DrCommon\PartnerMng\ChartItemStock.cpp
; File C:\Program Files (x86)\Microsoft Visual Studio\2019\Community\VC\Tools\MSVC\14.29.30133\atlmfc\include\afxcoll.inl
; File D:\git\src\IBK\IBK_DRFN\ProjSrc\SrcDrfn\DrCommon\PartnerMng\ChartItemStock.cpp
; File C:\Program Files (x86)\Microsoft Visual Studio\2019\Community\VC\Tools\MSVC\14.29.30133\atlmfc\include\afxcoll.inl
; File D:\git\src\IBK\IBK_DRFN\ProjSrc\SrcDrfn\DrCommon\PartnerMng\ChartItemStock.cpp
; File C:\Program Files (x86)\Microsoft Visual Studio\2019\Community\VC\Tools\MSVC\14.29.30133\atlmfc\include\atlsimpstr.h
; File D:\git\src\IBK\IBK_DRFN\ProjSrc\SrcDrfn\DrCommon\PartnerMng\ChartItemStock.cpp
; File C:\Program Files (x86)\Microsoft Visual Studio\2019\Community\VC\Tools\MSVC\14.29.30133\atlmfc\include\atlsimpstr.h
; File D:\git\src\IBK\IBK_DRFN\ProjSrc\SrcDrfn\DrCommon\PartnerMng\ChartItemStock.cpp
; File C:\Program Files (x86)\Microsoft Visual Studio\2019\Community\VC\Tools\MSVC\14.29.30133\atlmfc\include\afxcoll.inl
; File D:\git\src\IBK\IBK_DRFN\ProjSrc\SrcDrfn\DrCommon\PartnerMng\ChartItemStock.cpp
; File C:\Program Files (x86)\Microsoft Visual Studio\2019\Community\VC\Tools\MSVC\14.29.30133\atlmfc\include\afxcoll.inl
; File D:\git\src\IBK\IBK_DRFN\ProjSrc\SrcDrfn\DrCommon\PartnerMng\ChartItemStock.cpp
; File C:\Program Files (x86)\Microsoft Visual Studio\2019\Community\VC\Tools\MSVC\14.29.30133\atlmfc\include\atlsimpstr.h
; File D:\git\src\IBK\IBK_DRFN\ProjSrc\SrcDrfn\DrCommon\PartnerMng\ChartItemStock.cpp
; File C:\Program Files (x86)\Microsoft Visual Studio\2019\Community\VC\Tools\MSVC\14.29.30133\atlmfc\include\atlsimpstr.h
; File D:\git\src\IBK\IBK_DRFN\ProjSrc\SrcDrfn\DrCommon\PartnerMng\ChartItemStock.cpp
; File C:\Program Files (x86)\Microsoft Visual Studio\2019\Community\VC\Tools\MSVC\14.29.30133\atlmfc\include\afxcoll.inl
; File D:\git\src\IBK\IBK_DRFN\ProjSrc\SrcDrfn\DrCommon\PartnerMng\ChartItemStock.cpp
; File C:\Program Files (x86)\Microsoft Visual Studio\2019\Community\VC\Tools\MSVC\14.29.30133\atlmfc\include\afxcoll.inl
; File D:\git\src\IBK\IBK_DRFN\ProjSrc\SrcDrfn\DrCommon\PartnerMng\ChartItemStock.cpp
; File C:\Program Files (x86)\Microsoft Visual Studio\2019\Community\VC\Tools\MSVC\14.29.30133\atlmfc\include\atlsimpstr.h
; File D:\git\src\IBK\IBK_DRFN\ProjSrc\SrcDrfn\DrCommon\PartnerMng\ChartItemStock.cpp
; File C:\Program Files (x86)\Microsoft Visual Studio\2019\Community\VC\Tools\MSVC\14.29.30133\atlmfc\include\atlsimpstr.h
; File D:\git\src\IBK\IBK_DRFN\ProjSrc\SrcDrfn\DrCommon\PartnerMng\ChartItemStock.cpp
; File C:\Program Files (x86)\Microsoft Visual Studio\2019\Community\VC\Tools\MSVC\14.29.30133\atlmfc\include\afxcoll.inl
; File D:\git\src\IBK\IBK_DRFN\ProjSrc\SrcDrfn\DrCommon\PartnerMng\ChartItemStock.cpp
; File C:\Program Files (x86)\Microsoft Visual Studio\2019\Community\VC\Tools\MSVC\14.29.30133\atlmfc\include\afxcoll.inl
; File D:\git\src\IBK\IBK_DRFN\ProjSrc\SrcDrfn\DrCommon\PartnerMng\ChartItemStock.cpp
; File C:\Program Files (x86)\Microsoft Visual Studio\2019\Community\VC\Tools\MSVC\14.29.30133\atlmfc\include\atlsimpstr.h
; File D:\git\src\IBK\IBK_DRFN\ProjSrc\SrcDrfn\DrCommon\PartnerMng\ChartItemStock.cpp
; File C:\Program Files (x86)\Microsoft Visual Studio\2019\Community\VC\Tools\MSVC\14.29.30133\atlmfc\include\atlsimpstr.h
; File D:\git\src\IBK\IBK_DRFN\ProjSrc\SrcDrfn\DrCommon\PartnerMng\ChartItemStock.cpp
; File C:\Program Files (x86)\Microsoft Visual Studio\2019\Community\VC\Tools\MSVC\14.29.30133\atlmfc\include\atlsimpstr.h
; File D:\git\src\IBK\IBK_DRFN\ProjSrc\SrcDrfn\DrCommon\PartnerMng\ChartItemStock.cpp
; File C:\Program Files (x86)\Microsoft Visual Studio\2019\Community\VC\Tools\MSVC\14.29.30133\atlmfc\include\atlsimpstr.h
; File D:\git\src\IBK\IBK_DRFN\ProjSrc\SrcDrfn\DrCommon\PartnerMng\ChartItemStock.cpp
; File C:\Program Files (x86)\Microsoft Visual Studio\2019\Community\VC\Tools\MSVC\14.29.30133\atlmfc\include\atlsimpstr.h
; File D:\git\src\IBK\IBK_DRFN\ProjSrc\SrcDrfn\DrCommon\PartnerMng\ChartItemStock.cpp
; File C:\Program Files (x86)\Microsoft Visual Studio\2019\Community\VC\Tools\MSVC\14.29.30133\atlmfc\include\atlsimpstr.h
; File D:\git\src\IBK\IBK_DRFN\ProjSrc\SrcDrfn\DrCommon\PartnerMng\ChartItemStock.cpp
; File C:\Program Files (x86)\Microsoft Visual Studio\2019\Community\VC\Tools\MSVC\14.29.30133\atlmfc\include\atlsimpstr.h
; File D:\git\src\IBK\IBK_DRFN\ProjSrc\SrcDrfn\DrCommon\PartnerMng\ChartItemStock.cpp
; File C:\Program Files (x86)\Microsoft Visual Studio\2019\Community\VC\Tools\MSVC\14.29.30133\atlmfc\include\atlsimpstr.h
; File D:\git\src\IBK\IBK_DRFN\ProjSrc\SrcDrfn\DrCommon\PartnerMng\ChartItemStock.cpp
; File C:\Program Files (x86)\Microsoft Visual Studio\2019\Community\VC\Tools\MSVC\14.29.30133\atlmfc\include\atlsimpstr.h
; File D:\git\src\IBK\IBK_DRFN\ProjSrc\SrcDrfn\DrCommon\PartnerMng\ChartItemStock.cpp
; File C:\Program Files (x86)\Microsoft Visual Studio\2019\Community\VC\Tools\MSVC\14.29.30133\atlmfc\include\atlsimpstr.h
; File D:\git\src\IBK\IBK_DRFN\ProjSrc\SrcDrfn\DrCommon\PartnerMng\ChartItemStock.cpp
;	COMDAT ?Convert2Struct@CChartItemStock@@QAEPADPAEHHAAH@Z
_TEXT	SEGMENT
_arrTest$ = -1056					; size = 20
_bojoMng$ = -1036					; size = 4
$T2 = -1032						; size = 4
$T3 = -1028						; size = 4
_strLock$ = -1024					; size = 4
_strBozo$ = -1020					; size = 4
tv3466 = -1016						; size = 4
$T4 = -1012						; size = 4
$T5 = -1008						; size = 4
_strUSDollor$ = -1004					; size = 4
_szKey$ = -1000						; size = 4
$T6 = -996						; size = 4
$T7 = -992						; size = 4
_strPreVolume$ = -988					; size = 4
_strWonDollar$ = -984					; size = 4
_strBaseTime$ = -980					; size = 4
_strMarketTime$ = -976					; size = 4
_strJangEnd$ = -972					; size = 4
_strResetTime$ = -968					; size = 4
_nRow$1$ = -964						; size = 4
_strVolume$ = -960					; size = 4
_arrNode$ = -956					; size = 20
_strRealState$ = -936					; size = 4
_strVolAmt$ = -932					; size = 4
_dUSDollar$8 = -928					; size = 8
$T9 = -924						; size = 4
$T10 = -924						; size = 4
$T11 = -924						; size = 4
_strNextKey$ = -920					; size = 4
_strCode$ = -916					; size = 4
_strPreOpen$ = -912					; size = 4
_strTime$ = -908					; size = 4
_nDataLen$GSCopy$1$ = -904				; size = 4
$T12 = -904						; size = 4
$T13 = -900						; size = 4
$T14 = -900						; size = 4
$T15 = -900						; size = 4
_strPreHigh$ = -896					; size = 4
_strPreLow$ = -892					; size = 4
_pDataBuf$1$ = -888					; size = 4
_this$GSCopy$1$ = -884					; size = 4
_dUSDollar$1$ = -880					; size = 8
_dChRate$ = -880					; size = 8
$T16 = -876						; size = 4
$T17 = -876						; size = 4
$T18 = -876						; size = 4
$T19 = -876						; size = 4
_strPrePrice$ = -872					; size = 4
_strHigh$ = -868					; size = 4
_strLow$ = -864						; size = 4
_strHighLimit$ = -860					; size = 4
_strLowLimit$ = -856					; size = 4
_strJangStart$ = -852					; size = 4
_dDenom$2$ = -848					; size = 8
_dDenom$1$ = -848					; size = 8
$T20 = -844						; size = 4
_strOpen$ = -840					; size = 4
_strPrice$ = -836					; size = 4
_nType$1$ = -832					; size = 4
_strDate$ = -828					; size = 4
$T21 = -824						; size = 4
_nPrice$1$ = -820					; size = 4
tv3363 = -820						; size = 4
tv3360 = -820						; size = 4
$T22 = -820						; size = 4
$T23 = -820						; size = 4
$T24 = -820						; size = 4
_nCnt$1$ = -816						; size = 4
_nSize$1$ = -816					; size = 4
_dData$25 = -812					; size = 8
_dDenom$26 = -812					; size = 8
_nFirstClose$1$ = -808					; size = 4
$T27 = -808						; size = 4
$T28 = -808						; size = 4
$T29 = -808						; size = 4
$T30 = -808						; size = 4
_nIndex$1$ = -804					; size = 4
_strData$31 = -804					; size = 4
_strSrc$ = -800						; size = 4
_nLow$1$ = -796						; size = 4
$T32 = -796						; size = 4
$T33 = -796						; size = 4
$T34 = -796						; size = 4
$T35 = -796						; size = 4
$T36 = -796						; size = 4
$T37 = -796						; size = 4
$T38 = -796						; size = 4
$T39 = -796						; size = 4
$T40 = -796						; size = 4
$T41 = -796						; size = 4
$T42 = -796						; size = 4
$T43 = -796						; size = 4
$T44 = -796						; size = 4
$T45 = -796						; size = 4
$T46 = -796						; size = 4
$T47 = -796						; size = 4
$T48 = -796						; size = 4
$T49 = -796						; size = 4
$T50 = -796						; size = 4
_strNode$ = -792					; size = 4
_stOut$ = -788						; size = 610
_stFirstBong$ = -176					; size = 78
_stBong$51 = -96					; size = 78
_stBong$ = -96						; size = 78
__$ArrayPad$ = -16					; size = 4
__$EHRec$ = -12						; size = 12
_pData$ = 8						; size = 4
_nLen$ = 12						; size = 4
_nKey$ = 16						; size = 4
_nDataLen$ = 20						; size = 4
?Convert2Struct@CChartItemStock@@QAEPADPAEHHAAH@Z PROC	; CChartItemStock::Convert2Struct, COMDAT
; _this$ = ecx

; 315  : {

  00000	55		 push	 ebp
  00001	8b ec		 mov	 ebp, esp
  00003	6a ff		 push	 -1
  00005	68 00 00 00 00	 push	 __ehhandler$?Convert2Struct@CChartItemStock@@QAEPADPAEHHAAH@Z
  0000a	64 a1 00 00 00
	00		 mov	 eax, DWORD PTR fs:0
  00010	50		 push	 eax
  00011	81 ec 14 04 00
	00		 sub	 esp, 1044		; 00000414H
  00017	a1 00 00 00 00	 mov	 eax, DWORD PTR ___security_cookie
  0001c	33 c5		 xor	 eax, ebp
  0001e	89 45 f0	 mov	 DWORD PTR __$ArrayPad$[ebp], eax
  00021	56		 push	 esi
  00022	57		 push	 edi
  00023	50		 push	 eax
  00024	8d 45 f4	 lea	 eax, DWORD PTR __$EHRec$[ebp]
  00027	64 a3 00 00 00
	00		 mov	 DWORD PTR fs:0, eax
  0002d	89 8d 8c fc ff
	ff		 mov	 DWORD PTR _this$GSCopy$1$[ebp], ecx
  00033	8b 4d 14	 mov	 ecx, DWORD PTR _nDataLen$[ebp]
  00036	33 ff		 xor	 edi, edi
  00038	8b 45 08	 mov	 eax, DWORD PTR _pData$[ebp]
  0003b	89 8d 78 fc ff
	ff		 mov	 DWORD PTR _nDataLen$GSCopy$1$[ebp], ecx

; 316  : 	KB_p0602_OutRec1_EX stOut;
; 317  : 	CString strSrc = (char*)pData;

  00041	8d 8d e0 fc ff
	ff		 lea	 ecx, DWORD PTR _strSrc$[ebp]
  00047	50		 push	 eax
  00048	89 bd c8 fc ff
	ff		 mov	 DWORD PTR $T21[ebp], edi
  0004e	89 bd 20 fc ff
	ff		 mov	 DWORD PTR $T7[ebp], edi
  00054	ff 15 00 00 00
	00		 call	 DWORD PTR __imp_??0?$CStringT@DV?$StrTraitMFC_DLL@DV?$ChTraitsCRT@D@ATL@@@@@ATL@@QAE@PBD@Z

; 318  : 	CString strNode, strCode, strLock;

  0005a	8d 8d e8 fc ff
	ff		 lea	 ecx, DWORD PTR _strNode$[ebp]
  00060	89 7d fc	 mov	 DWORD PTR __$EHRec$[ebp+8], edi
  00063	ff 15 00 00 00
	00		 call	 DWORD PTR __imp_??0?$CStringT@DV?$StrTraitMFC_DLL@DV?$ChTraitsCRT@D@ATL@@@@@ATL@@QAE@XZ
  00069	8d 8d 6c fc ff
	ff		 lea	 ecx, DWORD PTR _strCode$[ebp]
  0006f	ff 15 00 00 00
	00		 call	 DWORD PTR __imp_??0?$CStringT@DV?$StrTraitMFC_DLL@DV?$ChTraitsCRT@D@ATL@@@@@ATL@@QAE@XZ
  00075	8d 8d 00 fc ff
	ff		 lea	 ecx, DWORD PTR _strLock$[ebp]
  0007b	ff 15 00 00 00
	00		 call	 DWORD PTR __imp_??0?$CStringT@DV?$StrTraitMFC_DLL@DV?$ChTraitsCRT@D@ATL@@@@@ATL@@QAE@XZ

; 319  : 	CString strPrice, strPrePrice, strVolume, strPreVolume;

  00081	8d 8d bc fc ff
	ff		 lea	 ecx, DWORD PTR _strPrice$[ebp]
  00087	ff 15 00 00 00
	00		 call	 DWORD PTR __imp_??0?$CStringT@DV?$StrTraitMFC_DLL@DV?$ChTraitsCRT@D@ATL@@@@@ATL@@QAE@XZ
  0008d	8d 8d 98 fc ff
	ff		 lea	 ecx, DWORD PTR _strPrePrice$[ebp]
  00093	ff 15 00 00 00
	00		 call	 DWORD PTR __imp_??0?$CStringT@DV?$StrTraitMFC_DLL@DV?$ChTraitsCRT@D@ATL@@@@@ATL@@QAE@XZ
  00099	8d 8d 40 fc ff
	ff		 lea	 ecx, DWORD PTR _strVolume$[ebp]
  0009f	ff 15 00 00 00
	00		 call	 DWORD PTR __imp_??0?$CStringT@DV?$StrTraitMFC_DLL@DV?$ChTraitsCRT@D@ATL@@@@@ATL@@QAE@XZ
  000a5	8d 8d 24 fc ff
	ff		 lea	 ecx, DWORD PTR _strPreVolume$[ebp]
  000ab	ff 15 00 00 00
	00		 call	 DWORD PTR __imp_??0?$CStringT@DV?$StrTraitMFC_DLL@DV?$ChTraitsCRT@D@ATL@@@@@ATL@@QAE@XZ

; 320  : 	CString strHigh, strLow, strOpen, strHighLimit, strLowLimit, strWonDollar;

  000b1	8d 8d 9c fc ff
	ff		 lea	 ecx, DWORD PTR _strHigh$[ebp]
  000b7	ff 15 00 00 00
	00		 call	 DWORD PTR __imp_??0?$CStringT@DV?$StrTraitMFC_DLL@DV?$ChTraitsCRT@D@ATL@@@@@ATL@@QAE@XZ
  000bd	8d 8d a0 fc ff
	ff		 lea	 ecx, DWORD PTR _strLow$[ebp]
  000c3	ff 15 00 00 00
	00		 call	 DWORD PTR __imp_??0?$CStringT@DV?$StrTraitMFC_DLL@DV?$ChTraitsCRT@D@ATL@@@@@ATL@@QAE@XZ
  000c9	8d 8d b8 fc ff
	ff		 lea	 ecx, DWORD PTR _strOpen$[ebp]
  000cf	ff 15 00 00 00
	00		 call	 DWORD PTR __imp_??0?$CStringT@DV?$StrTraitMFC_DLL@DV?$ChTraitsCRT@D@ATL@@@@@ATL@@QAE@XZ
  000d5	8d 8d a4 fc ff
	ff		 lea	 ecx, DWORD PTR _strHighLimit$[ebp]
  000db	ff 15 00 00 00
	00		 call	 DWORD PTR __imp_??0?$CStringT@DV?$StrTraitMFC_DLL@DV?$ChTraitsCRT@D@ATL@@@@@ATL@@QAE@XZ
  000e1	8d 8d a8 fc ff
	ff		 lea	 ecx, DWORD PTR _strLowLimit$[ebp]
  000e7	ff 15 00 00 00
	00		 call	 DWORD PTR __imp_??0?$CStringT@DV?$StrTraitMFC_DLL@DV?$ChTraitsCRT@D@ATL@@@@@ATL@@QAE@XZ
  000ed	8d 8d 28 fc ff
	ff		 lea	 ecx, DWORD PTR _strWonDollar$[ebp]
  000f3	ff 15 00 00 00
	00		 call	 DWORD PTR __imp_??0?$CStringT@DV?$StrTraitMFC_DLL@DV?$ChTraitsCRT@D@ATL@@@@@ATL@@QAE@XZ

; 321  : 	CString strPreHigh, strPreLow, strPreOpen;

  000f9	8d 8d 80 fc ff
	ff		 lea	 ecx, DWORD PTR _strPreHigh$[ebp]
  000ff	ff 15 00 00 00
	00		 call	 DWORD PTR __imp_??0?$CStringT@DV?$StrTraitMFC_DLL@DV?$ChTraitsCRT@D@ATL@@@@@ATL@@QAE@XZ
  00105	8d 8d 84 fc ff
	ff		 lea	 ecx, DWORD PTR _strPreLow$[ebp]
  0010b	ff 15 00 00 00
	00		 call	 DWORD PTR __imp_??0?$CStringT@DV?$StrTraitMFC_DLL@DV?$ChTraitsCRT@D@ATL@@@@@ATL@@QAE@XZ
  00111	8d 8d 70 fc ff
	ff		 lea	 ecx, DWORD PTR _strPreOpen$[ebp]
  00117	ff 15 00 00 00
	00		 call	 DWORD PTR __imp_??0?$CStringT@DV?$StrTraitMFC_DLL@DV?$ChTraitsCRT@D@ATL@@@@@ATL@@QAE@XZ

; 322  : 	CString strBaseTime, strMarketTime;

  0011d	8d 8d 2c fc ff
	ff		 lea	 ecx, DWORD PTR _strBaseTime$[ebp]
  00123	ff 15 00 00 00
	00		 call	 DWORD PTR __imp_??0?$CStringT@DV?$StrTraitMFC_DLL@DV?$ChTraitsCRT@D@ATL@@@@@ATL@@QAE@XZ
  00129	8d 8d 30 fc ff
	ff		 lea	 ecx, DWORD PTR _strMarketTime$[ebp]
  0012f	ff 15 00 00 00
	00		 call	 DWORD PTR __imp_??0?$CStringT@DV?$StrTraitMFC_DLL@DV?$ChTraitsCRT@D@ATL@@@@@ATL@@QAE@XZ

; 323  : 	int nPrice;
; 324  : 	double dChRate=0;
; 325  : 
; 326  : 	memset(&stOut, 0x20, sizeof(stOut));

  00135	68 62 02 00 00	 push	 610			; 00000262H
  0013a	8d 85 ec fc ff
	ff		 lea	 eax, DWORD PTR _stOut$[ebp]
  00140	c6 45 fc 12	 mov	 BYTE PTR __$EHRec$[ebp+8], 18 ; 00000012H
  00144	6a 20		 push	 32			; 00000020H
  00146	50		 push	 eax
  00147	e8 00 00 00 00	 call	 _memset

; 327  : 
; 328  : 	strCode = CDataConverter::Parser(strSrc, sCELL); // 

  0014c	83 c4 08	 add	 esp, 8
  0014f	8b cc		 mov	 ecx, esp
  00151	6a 01		 push	 1
  00153	6a 09		 push	 9
  00155	ff 15 00 00 00
	00		 call	 DWORD PTR __imp_??0?$CStringT@DV?$StrTraitMFC_DLL@DV?$ChTraitsCRT@D@ATL@@@@@ATL@@QAE@DH@Z
  0015b	8d 85 e0 fc ff
	ff		 lea	 eax, DWORD PTR _strSrc$[ebp]
  00161	50		 push	 eax
  00162	8d 85 cc fc ff
	ff		 lea	 eax, DWORD PTR $T24[ebp]
  00168	50		 push	 eax
  00169	e8 00 00 00 00	 call	 ?Parser@CDataConverter@@SA?AV?$CStringT@DV?$StrTraitMFC_DLL@DV?$ChTraitsCRT@D@ATL@@@@@ATL@@AAV23@V23@@Z ; CDataConverter::Parser
  0016e	83 c4 0c	 add	 esp, 12			; 0000000cH
  00171	50		 push	 eax
  00172	8d 8d 6c fc ff
	ff		 lea	 ecx, DWORD PTR _strCode$[ebp]
  00178	c6 45 fc 13	 mov	 BYTE PTR __$EHRec$[ebp+8], 19 ; 00000013H
  0017c	ff 15 00 00 00
	00		 call	 DWORD PTR __imp_??4?$CStringT@DV?$StrTraitMFC_DLL@DV?$ChTraitsCRT@D@ATL@@@@@ATL@@QAEAAV01@ABV01@@Z
  00182	8d 8d cc fc ff
	ff		 lea	 ecx, DWORD PTR $T24[ebp]
  00188	c6 45 fc 12	 mov	 BYTE PTR __$EHRec$[ebp+8], 18 ; 00000012H
  0018c	ff 15 00 00 00
	00		 call	 DWORD PTR __imp_??1?$CStringT@DV?$StrTraitMFC_DLL@DV?$ChTraitsCRT@D@ATL@@@@@ATL@@QAE@XZ

; 329  : 
; 330  : 	strNode = CDataConverter::Parser(strSrc, sCELL); // 

  00192	51		 push	 ecx
  00193	8b cc		 mov	 ecx, esp
  00195	6a 01		 push	 1
  00197	6a 09		 push	 9
  00199	ff 15 00 00 00
	00		 call	 DWORD PTR __imp_??0?$CStringT@DV?$StrTraitMFC_DLL@DV?$ChTraitsCRT@D@ATL@@@@@ATL@@QAE@DH@Z
  0019f	8d 85 e0 fc ff
	ff		 lea	 eax, DWORD PTR _strSrc$[ebp]
  001a5	50		 push	 eax
  001a6	8d 85 cc fc ff
	ff		 lea	 eax, DWORD PTR $T23[ebp]
  001ac	50		 push	 eax
  001ad	e8 00 00 00 00	 call	 ?Parser@CDataConverter@@SA?AV?$CStringT@DV?$StrTraitMFC_DLL@DV?$ChTraitsCRT@D@ATL@@@@@ATL@@AAV23@V23@@Z ; CDataConverter::Parser
  001b2	83 c4 0c	 add	 esp, 12			; 0000000cH
  001b5	50		 push	 eax
  001b6	8d 8d e8 fc ff
	ff		 lea	 ecx, DWORD PTR _strNode$[ebp]
  001bc	c6 45 fc 14	 mov	 BYTE PTR __$EHRec$[ebp+8], 20 ; 00000014H
  001c0	ff 15 00 00 00
	00		 call	 DWORD PTR __imp_??4?$CStringT@DV?$StrTraitMFC_DLL@DV?$ChTraitsCRT@D@ATL@@@@@ATL@@QAEAAV01@ABV01@@Z
  001c6	8d 8d cc fc ff
	ff		 lea	 ecx, DWORD PTR $T23[ebp]
  001cc	c6 45 fc 12	 mov	 BYTE PTR __$EHRec$[ebp+8], 18 ; 00000012H
  001d0	ff 15 00 00 00
	00		 call	 DWORD PTR __imp_??1?$CStringT@DV?$StrTraitMFC_DLL@DV?$ChTraitsCRT@D@ATL@@@@@ATL@@QAE@XZ
; File C:\Program Files (x86)\Microsoft Visual Studio\2019\Community\VC\Tools\MSVC\14.29.30133\atlmfc\include\atlsimpstr.h

; 519  : 		return( GetData()->nDataLength );

  001d6	8b 85 e8 fc ff
	ff		 mov	 eax, DWORD PTR _strNode$[ebp]
; File D:\git\src\IBK\IBK_DRFN\ProjSrc\SrcDrfn\DrCommon\PartnerMng\ChartItemStock.cpp

; 334  : 	memcpy(stOut.name, strNode, min(strNode.GetLength(), sizeof(stOut.name)));

  001dc	ba 1e 00 00 00	 mov	 edx, 30			; 0000001eH
  001e1	39 50 f4	 cmp	 DWORD PTR [eax-12], edx
  001e4	0f 42 50 f4	 cmovb	 edx, DWORD PTR [eax-12]
  001e8	52		 push	 edx
  001e9	50		 push	 eax
  001ea	8d 85 ec fc ff
	ff		 lea	 eax, DWORD PTR _stOut$[ebp]
  001f0	50		 push	 eax
  001f1	e8 00 00 00 00	 call	 _memcpy

; 335  : 
; 336  : 	strPrice = CDataConverter::Parser(strSrc, sCELL); // 

  001f6	83 c4 08	 add	 esp, 8
  001f9	8b cc		 mov	 ecx, esp
  001fb	6a 01		 push	 1
  001fd	6a 09		 push	 9
  001ff	ff 15 00 00 00
	00		 call	 DWORD PTR __imp_??0?$CStringT@DV?$StrTraitMFC_DLL@DV?$ChTraitsCRT@D@ATL@@@@@ATL@@QAE@DH@Z
  00205	8d 85 e0 fc ff
	ff		 lea	 eax, DWORD PTR _strSrc$[ebp]
  0020b	50		 push	 eax
  0020c	8d 85 cc fc ff
	ff		 lea	 eax, DWORD PTR $T22[ebp]
  00212	50		 push	 eax
  00213	e8 00 00 00 00	 call	 ?Parser@CDataConverter@@SA?AV?$CStringT@DV?$StrTraitMFC_DLL@DV?$ChTraitsCRT@D@ATL@@@@@ATL@@AAV23@V23@@Z ; CDataConverter::Parser
  00218	83 c4 0c	 add	 esp, 12			; 0000000cH
  0021b	50		 push	 eax
  0021c	8d 8d bc fc ff
	ff		 lea	 ecx, DWORD PTR _strPrice$[ebp]
  00222	c6 45 fc 15	 mov	 BYTE PTR __$EHRec$[ebp+8], 21 ; 00000015H
  00226	ff 15 00 00 00
	00		 call	 DWORD PTR __imp_??4?$CStringT@DV?$StrTraitMFC_DLL@DV?$ChTraitsCRT@D@ATL@@@@@ATL@@QAEAAV01@ABV01@@Z
  0022c	8d 8d cc fc ff
	ff		 lea	 ecx, DWORD PTR $T22[ebp]
  00232	c6 45 fc 12	 mov	 BYTE PTR __$EHRec$[ebp+8], 18 ; 00000012H
  00236	ff 15 00 00 00
	00		 call	 DWORD PTR __imp_??1?$CStringT@DV?$StrTraitMFC_DLL@DV?$ChTraitsCRT@D@ATL@@@@@ATL@@QAE@XZ

; 337  : 	nPrice = atoi(strPrice);

  0023c	ff b5 bc fc ff
	ff		 push	 DWORD PTR _strPrice$[ebp]
  00242	8b 35 00 00 00
	00		 mov	 esi, DWORD PTR __imp__atoi
  00248	ff d6		 call	 esi
  0024a	83 c4 04	 add	 esp, 4
  0024d	89 85 cc fc ff
	ff		 mov	 DWORD PTR _nPrice$1$[ebp], eax

; 338  : 	strPrice.Remove(_T('+')); strPrice.Remove(_T('-'));

  00253	8d 8d bc fc ff
	ff		 lea	 ecx, DWORD PTR _strPrice$[ebp]
  00259	6a 2b		 push	 43			; 0000002bH
  0025b	ff 15 00 00 00
	00		 call	 DWORD PTR __imp_?Remove@?$CStringT@DV?$StrTraitMFC_DLL@DV?$ChTraitsCRT@D@ATL@@@@@ATL@@QAEHD@Z
  00261	6a 2d		 push	 45			; 0000002dH
  00263	8d 8d bc fc ff
	ff		 lea	 ecx, DWORD PTR _strPrice$[ebp]
  00269	ff 15 00 00 00
	00		 call	 DWORD PTR __imp_?Remove@?$CStringT@DV?$StrTraitMFC_DLL@DV?$ChTraitsCRT@D@ATL@@@@@ATL@@QAEHD@Z
; File C:\Program Files (x86)\Microsoft Visual Studio\2019\Community\VC\Tools\MSVC\14.29.30133\atlmfc\include\atlsimpstr.h

; 519  : 		return( GetData()->nDataLength );

  0026f	8b 8d bc fc ff
	ff		 mov	 ecx, DWORD PTR _strPrice$[ebp]
; File D:\git\src\IBK\IBK_DRFN\ProjSrc\SrcDrfn\DrCommon\PartnerMng\ChartItemStock.cpp

; 339  : 	memcpy(stOut.price, strPrice, min(sizeof(stOut.price), strPrice.GetLength()));

  00275	b8 0a 00 00 00	 mov	 eax, 10			; 0000000aH
; File C:\Program Files (x86)\Microsoft Visual Studio\2019\Community\VC\Tools\MSVC\14.29.30133\atlmfc\include\atlsimpstr.h

; 519  : 		return( GetData()->nDataLength );

  0027a	8b 51 f4	 mov	 edx, DWORD PTR [ecx-12]
; File D:\git\src\IBK\IBK_DRFN\ProjSrc\SrcDrfn\DrCommon\PartnerMng\ChartItemStock.cpp

; 339  : 	memcpy(stOut.price, strPrice, min(sizeof(stOut.price), strPrice.GetLength()));

  0027d	3b d0		 cmp	 edx, eax
  0027f	0f 47 d0	 cmova	 edx, eax
  00282	8d 85 0a fd ff
	ff		 lea	 eax, DWORD PTR _stOut$[ebp+30]
  00288	52		 push	 edx
  00289	51		 push	 ecx
  0028a	50		 push	 eax
  0028b	e8 00 00 00 00	 call	 _memcpy

; 340  : 
; 341  : 	
; 342  : 	strPrePrice = CDataConverter::Parser(strSrc, sCELL); // 

  00290	83 c4 08	 add	 esp, 8
  00293	8b cc		 mov	 ecx, esp
  00295	6a 01		 push	 1
  00297	6a 09		 push	 9
  00299	ff 15 00 00 00
	00		 call	 DWORD PTR __imp_??0?$CStringT@DV?$StrTraitMFC_DLL@DV?$ChTraitsCRT@D@ATL@@@@@ATL@@QAE@DH@Z
  0029f	8d 85 e0 fc ff
	ff		 lea	 eax, DWORD PTR _strSrc$[ebp]
  002a5	50		 push	 eax
  002a6	8d 85 e4 fc ff
	ff		 lea	 eax, DWORD PTR $T50[ebp]
  002ac	50		 push	 eax
  002ad	e8 00 00 00 00	 call	 ?Parser@CDataConverter@@SA?AV?$CStringT@DV?$StrTraitMFC_DLL@DV?$ChTraitsCRT@D@ATL@@@@@ATL@@AAV23@V23@@Z ; CDataConverter::Parser
  002b2	83 c4 0c	 add	 esp, 12			; 0000000cH
  002b5	50		 push	 eax
  002b6	8d 8d 98 fc ff
	ff		 lea	 ecx, DWORD PTR _strPrePrice$[ebp]
  002bc	c6 45 fc 16	 mov	 BYTE PTR __$EHRec$[ebp+8], 22 ; 00000016H
  002c0	ff 15 00 00 00
	00		 call	 DWORD PTR __imp_??4?$CStringT@DV?$StrTraitMFC_DLL@DV?$ChTraitsCRT@D@ATL@@@@@ATL@@QAEAAV01@ABV01@@Z
  002c6	8d 8d e4 fc ff
	ff		 lea	 ecx, DWORD PTR $T50[ebp]
  002cc	c6 45 fc 12	 mov	 BYTE PTR __$EHRec$[ebp+8], 18 ; 00000012H
  002d0	ff 15 00 00 00
	00		 call	 DWORD PTR __imp_??1?$CStringT@DV?$StrTraitMFC_DLL@DV?$ChTraitsCRT@D@ATL@@@@@ATL@@QAE@XZ
; File C:\Program Files (x86)\Microsoft Visual Studio\2019\Community\VC\Tools\MSVC\14.29.30133\atlmfc\include\atlsimpstr.h

; 519  : 		return( GetData()->nDataLength );

  002d6	8b 85 98 fc ff
	ff		 mov	 eax, DWORD PTR _strPrePrice$[ebp]
; File D:\git\src\IBK\IBK_DRFN\ProjSrc\SrcDrfn\DrCommon\PartnerMng\ChartItemStock.cpp

; 343  : 	memcpy(stOut.preprice, strPrePrice, min(sizeof(stOut.preprice), strPrePrice.GetLength()));

  002dc	ba 0a 00 00 00	 mov	 edx, 10			; 0000000aH
; File C:\Program Files (x86)\Microsoft Visual Studio\2019\Community\VC\Tools\MSVC\14.29.30133\atlmfc\include\atlsimpstr.h

; 519  : 		return( GetData()->nDataLength );

  002e1	8b 48 f4	 mov	 ecx, DWORD PTR [eax-12]
; File D:\git\src\IBK\IBK_DRFN\ProjSrc\SrcDrfn\DrCommon\PartnerMng\ChartItemStock.cpp

; 343  : 	memcpy(stOut.preprice, strPrePrice, min(sizeof(stOut.preprice), strPrePrice.GetLength()));

  002e4	83 f9 0a	 cmp	 ecx, 10			; 0000000aH
  002e7	0f 47 ca	 cmova	 ecx, edx
  002ea	51		 push	 ecx
  002eb	50		 push	 eax
  002ec	8d 85 2f fd ff
	ff		 lea	 eax, DWORD PTR _stOut$[ebp+67]
  002f2	50		 push	 eax
  002f3	e8 00 00 00 00	 call	 _memcpy

; 344  : 
; 345  : 	strNode = CDataConverter::Parser(strSrc, sCELL); // 

  002f8	83 c4 08	 add	 esp, 8
  002fb	8b cc		 mov	 ecx, esp
  002fd	6a 01		 push	 1
  002ff	6a 09		 push	 9
  00301	ff 15 00 00 00
	00		 call	 DWORD PTR __imp_??0?$CStringT@DV?$StrTraitMFC_DLL@DV?$ChTraitsCRT@D@ATL@@@@@ATL@@QAE@DH@Z
  00307	8d 85 e0 fc ff
	ff		 lea	 eax, DWORD PTR _strSrc$[ebp]
  0030d	50		 push	 eax
  0030e	8d 85 e4 fc ff
	ff		 lea	 eax, DWORD PTR $T49[ebp]
  00314	50		 push	 eax
  00315	e8 00 00 00 00	 call	 ?Parser@CDataConverter@@SA?AV?$CStringT@DV?$StrTraitMFC_DLL@DV?$ChTraitsCRT@D@ATL@@@@@ATL@@AAV23@V23@@Z ; CDataConverter::Parser
  0031a	83 c4 0c	 add	 esp, 12			; 0000000cH
  0031d	50		 push	 eax
  0031e	8d 8d e8 fc ff
	ff		 lea	 ecx, DWORD PTR _strNode$[ebp]
  00324	c6 45 fc 17	 mov	 BYTE PTR __$EHRec$[ebp+8], 23 ; 00000017H
  00328	ff 15 00 00 00
	00		 call	 DWORD PTR __imp_??4?$CStringT@DV?$StrTraitMFC_DLL@DV?$ChTraitsCRT@D@ATL@@@@@ATL@@QAEAAV01@ABV01@@Z
  0032e	8d 8d e4 fc ff
	ff		 lea	 ecx, DWORD PTR $T49[ebp]
  00334	c6 45 fc 12	 mov	 BYTE PTR __$EHRec$[ebp+8], 18 ; 00000012H
  00338	ff 15 00 00 00
	00		 call	 DWORD PTR __imp_??1?$CStringT@DV?$StrTraitMFC_DLL@DV?$ChTraitsCRT@D@ATL@@@@@ATL@@QAE@XZ

; 346  : 	strNode = strNode.Mid(1);

  0033e	6a 01		 push	 1
  00340	8d 85 e4 fc ff
	ff		 lea	 eax, DWORD PTR $T48[ebp]
  00346	50		 push	 eax
  00347	8d 8d e8 fc ff
	ff		 lea	 ecx, DWORD PTR _strNode$[ebp]
  0034d	ff 15 00 00 00
	00		 call	 DWORD PTR __imp_?Mid@?$CStringT@DV?$StrTraitMFC_DLL@DV?$ChTraitsCRT@D@ATL@@@@@ATL@@QBE?AV12@H@Z
  00353	50		 push	 eax
  00354	8d 8d e8 fc ff
	ff		 lea	 ecx, DWORD PTR _strNode$[ebp]
  0035a	c6 45 fc 18	 mov	 BYTE PTR __$EHRec$[ebp+8], 24 ; 00000018H
  0035e	ff 15 00 00 00
	00		 call	 DWORD PTR __imp_??4?$CStringT@DV?$StrTraitMFC_DLL@DV?$ChTraitsCRT@D@ATL@@@@@ATL@@QAEAAV01@ABV01@@Z
  00364	8d 8d e4 fc ff
	ff		 lea	 ecx, DWORD PTR $T48[ebp]
  0036a	c6 45 fc 12	 mov	 BYTE PTR __$EHRec$[ebp+8], 18 ; 00000012H
  0036e	ff 15 00 00 00
	00		 call	 DWORD PTR __imp_??1?$CStringT@DV?$StrTraitMFC_DLL@DV?$ChTraitsCRT@D@ATL@@@@@ATL@@QAE@XZ
; File C:\Program Files (x86)\Microsoft Visual Studio\2019\Community\VC\Tools\MSVC\14.29.30133\atlmfc\include\atlsimpstr.h

; 519  : 		return( GetData()->nDataLength );

  00374	8b 85 e8 fc ff
	ff		 mov	 eax, DWORD PTR _strNode$[ebp]
; File D:\git\src\IBK\IBK_DRFN\ProjSrc\SrcDrfn\DrCommon\PartnerMng\ChartItemStock.cpp

; 347  : 	memcpy(stOut.change, strNode, min(sizeof(stOut.change), strNode.GetLength()));

  0037a	ba 0a 00 00 00	 mov	 edx, 10			; 0000000aH
; File C:\Program Files (x86)\Microsoft Visual Studio\2019\Community\VC\Tools\MSVC\14.29.30133\atlmfc\include\atlsimpstr.h

; 519  : 		return( GetData()->nDataLength );

  0037f	8b 48 f4	 mov	 ecx, DWORD PTR [eax-12]
; File D:\git\src\IBK\IBK_DRFN\ProjSrc\SrcDrfn\DrCommon\PartnerMng\ChartItemStock.cpp

; 347  : 	memcpy(stOut.change, strNode, min(sizeof(stOut.change), strNode.GetLength()));

  00382	83 f9 0a	 cmp	 ecx, 10			; 0000000aH
  00385	0f 47 ca	 cmova	 ecx, edx
  00388	51		 push	 ecx
  00389	50		 push	 eax
  0038a	8d 85 15 fd ff
	ff		 lea	 eax, DWORD PTR _stOut$[ebp+41]
  00390	50		 push	 eax
  00391	e8 00 00 00 00	 call	 _memcpy

; 348  : 	
; 349  : 	strNode = CDataConverter::Parser(strSrc, sCELL); // 

  00396	83 c4 08	 add	 esp, 8
  00399	8b cc		 mov	 ecx, esp
  0039b	6a 01		 push	 1
  0039d	6a 09		 push	 9
  0039f	ff 15 00 00 00
	00		 call	 DWORD PTR __imp_??0?$CStringT@DV?$StrTraitMFC_DLL@DV?$ChTraitsCRT@D@ATL@@@@@ATL@@QAE@DH@Z
  003a5	8d 85 e0 fc ff
	ff		 lea	 eax, DWORD PTR _strSrc$[ebp]
  003ab	50		 push	 eax
  003ac	8d 85 e4 fc ff
	ff		 lea	 eax, DWORD PTR $T47[ebp]
  003b2	50		 push	 eax
  003b3	e8 00 00 00 00	 call	 ?Parser@CDataConverter@@SA?AV?$CStringT@DV?$StrTraitMFC_DLL@DV?$ChTraitsCRT@D@ATL@@@@@ATL@@AAV23@V23@@Z ; CDataConverter::Parser
  003b8	83 c4 0c	 add	 esp, 12			; 0000000cH
  003bb	c6 45 fc 19	 mov	 BYTE PTR __$EHRec$[ebp+8], 25 ; 00000019H
  003bf	50		 push	 eax
  003c0	8d 8d e8 fc ff
	ff		 lea	 ecx, DWORD PTR _strNode$[ebp]
  003c6	ff 15 00 00 00
	00		 call	 DWORD PTR __imp_??4?$CStringT@DV?$StrTraitMFC_DLL@DV?$ChTraitsCRT@D@ATL@@@@@ATL@@QAEAAV01@ABV01@@Z
  003cc	8d 8d e4 fc ff
	ff		 lea	 ecx, DWORD PTR $T47[ebp]
  003d2	c6 45 fc 12	 mov	 BYTE PTR __$EHRec$[ebp+8], 18 ; 00000012H
  003d6	ff 15 00 00 00
	00		 call	 DWORD PTR __imp_??1?$CStringT@DV?$StrTraitMFC_DLL@DV?$ChTraitsCRT@D@ATL@@@@@ATL@@QAE@XZ

; 350  : 	dChRate = atof(strNode);

  003dc	ff b5 e8 fc ff
	ff		 push	 DWORD PTR _strNode$[ebp]
  003e2	ff 15 00 00 00
	00		 call	 DWORD PTR __imp__atof
  003e8	83 c4 04	 add	 esp, 4

; 351  : 	strNode.Remove(_T('+'));/*strNode.Remove(_T('-'));*/

  003eb	8d 8d e8 fc ff
	ff		 lea	 ecx, DWORD PTR _strNode$[ebp]
  003f1	dd 9d 90 fc ff
	ff		 fstp	 QWORD PTR _dChRate$[ebp]
  003f7	6a 2b		 push	 43			; 0000002bH
  003f9	ff 15 00 00 00
	00		 call	 DWORD PTR __imp_?Remove@?$CStringT@DV?$StrTraitMFC_DLL@DV?$ChTraitsCRT@D@ATL@@@@@ATL@@QAEHD@Z

; 352  : 	strNode.Remove(_T('.'));

  003ff	6a 2e		 push	 46			; 0000002eH
  00401	8d 8d e8 fc ff
	ff		 lea	 ecx, DWORD PTR _strNode$[ebp]
  00407	ff 15 00 00 00
	00		 call	 DWORD PTR __imp_?Remove@?$CStringT@DV?$StrTraitMFC_DLL@DV?$ChTraitsCRT@D@ATL@@@@@ATL@@QAEHD@Z
; File C:\Program Files (x86)\Microsoft Visual Studio\2019\Community\VC\Tools\MSVC\14.29.30133\atlmfc\include\atlsimpstr.h

; 519  : 		return( GetData()->nDataLength );

  0040d	8b 85 e8 fc ff
	ff		 mov	 eax, DWORD PTR _strNode$[ebp]
; File D:\git\src\IBK\IBK_DRFN\ProjSrc\SrcDrfn\DrCommon\PartnerMng\ChartItemStock.cpp

; 353  : 	memcpy(stOut.chrate, strNode, min(sizeof(stOut.chrate), strNode.GetLength()));

  00413	ba 06 00 00 00	 mov	 edx, 6
; File C:\Program Files (x86)\Microsoft Visual Studio\2019\Community\VC\Tools\MSVC\14.29.30133\atlmfc\include\atlsimpstr.h

; 519  : 		return( GetData()->nDataLength );

  00418	8b 48 f4	 mov	 ecx, DWORD PTR [eax-12]
; File D:\git\src\IBK\IBK_DRFN\ProjSrc\SrcDrfn\DrCommon\PartnerMng\ChartItemStock.cpp

; 353  : 	memcpy(stOut.chrate, strNode, min(sizeof(stOut.chrate), strNode.GetLength()));

  0041b	3b ca		 cmp	 ecx, edx
  0041d	0f 47 ca	 cmova	 ecx, edx
  00420	51		 push	 ecx
  00421	50		 push	 eax
  00422	8d 85 1f fd ff
	ff		 lea	 eax, DWORD PTR _stOut$[ebp+51]
  00428	50		 push	 eax
  00429	e8 00 00 00 00	 call	 _memcpy

; 354  : 
; 355  : 	strVolume = CDataConverter::Parser(strSrc, sCELL); // 

  0042e	83 c4 08	 add	 esp, 8
  00431	8b cc		 mov	 ecx, esp
  00433	6a 01		 push	 1
  00435	6a 09		 push	 9
  00437	ff 15 00 00 00
	00		 call	 DWORD PTR __imp_??0?$CStringT@DV?$StrTraitMFC_DLL@DV?$ChTraitsCRT@D@ATL@@@@@ATL@@QAE@DH@Z
  0043d	8d 85 e0 fc ff
	ff		 lea	 eax, DWORD PTR _strSrc$[ebp]
  00443	50		 push	 eax
  00444	8d 85 e4 fc ff
	ff		 lea	 eax, DWORD PTR $T46[ebp]
  0044a	50		 push	 eax
  0044b	e8 00 00 00 00	 call	 ?Parser@CDataConverter@@SA?AV?$CStringT@DV?$StrTraitMFC_DLL@DV?$ChTraitsCRT@D@ATL@@@@@ATL@@AAV23@V23@@Z ; CDataConverter::Parser
  00450	83 c4 0c	 add	 esp, 12			; 0000000cH
  00453	50		 push	 eax
  00454	8d 8d 40 fc ff
	ff		 lea	 ecx, DWORD PTR _strVolume$[ebp]
  0045a	c6 45 fc 1a	 mov	 BYTE PTR __$EHRec$[ebp+8], 26 ; 0000001aH
  0045e	ff 15 00 00 00
	00		 call	 DWORD PTR __imp_??4?$CStringT@DV?$StrTraitMFC_DLL@DV?$ChTraitsCRT@D@ATL@@@@@ATL@@QAEAAV01@ABV01@@Z
  00464	8d 8d e4 fc ff
	ff		 lea	 ecx, DWORD PTR $T46[ebp]
  0046a	c6 45 fc 12	 mov	 BYTE PTR __$EHRec$[ebp+8], 18 ; 00000012H
  0046e	ff 15 00 00 00
	00		 call	 DWORD PTR __imp_??1?$CStringT@DV?$StrTraitMFC_DLL@DV?$ChTraitsCRT@D@ATL@@@@@ATL@@QAE@XZ
; File C:\Program Files (x86)\Microsoft Visual Studio\2019\Community\VC\Tools\MSVC\14.29.30133\atlmfc\include\atlsimpstr.h

; 519  : 		return( GetData()->nDataLength );

  00474	8b 85 40 fc ff
	ff		 mov	 eax, DWORD PTR _strVolume$[ebp]
; File D:\git\src\IBK\IBK_DRFN\ProjSrc\SrcDrfn\DrCommon\PartnerMng\ChartItemStock.cpp

; 356  : 	memcpy(stOut.volume, strVolume, min(sizeof(stOut.volume), strVolume.GetLength()));

  0047a	ba 0a 00 00 00	 mov	 edx, 10			; 0000000aH
; File C:\Program Files (x86)\Microsoft Visual Studio\2019\Community\VC\Tools\MSVC\14.29.30133\atlmfc\include\atlsimpstr.h

; 519  : 		return( GetData()->nDataLength );

  0047f	8b 48 f4	 mov	 ecx, DWORD PTR [eax-12]
; File D:\git\src\IBK\IBK_DRFN\ProjSrc\SrcDrfn\DrCommon\PartnerMng\ChartItemStock.cpp

; 356  : 	memcpy(stOut.volume, strVolume, min(sizeof(stOut.volume), strVolume.GetLength()));

  00482	83 f9 0a	 cmp	 ecx, 10			; 0000000aH
  00485	0f 47 ca	 cmova	 ecx, edx
  00488	51		 push	 ecx
  00489	50		 push	 eax
  0048a	8d 85 25 fd ff
	ff		 lea	 eax, DWORD PTR _stOut$[ebp+57]
  00490	50		 push	 eax
  00491	e8 00 00 00 00	 call	 _memcpy

; 357  : 
; 358  : 	strPreVolume = CDataConverter::Parser(strSrc, sCELL); // 

  00496	83 c4 08	 add	 esp, 8
  00499	8b cc		 mov	 ecx, esp
  0049b	6a 01		 push	 1
  0049d	6a 09		 push	 9
  0049f	ff 15 00 00 00
	00		 call	 DWORD PTR __imp_??0?$CStringT@DV?$StrTraitMFC_DLL@DV?$ChTraitsCRT@D@ATL@@@@@ATL@@QAE@DH@Z
  004a5	8d 85 e0 fc ff
	ff		 lea	 eax, DWORD PTR _strSrc$[ebp]
  004ab	50		 push	 eax
  004ac	8d 85 e4 fc ff
	ff		 lea	 eax, DWORD PTR $T45[ebp]
  004b2	50		 push	 eax
  004b3	e8 00 00 00 00	 call	 ?Parser@CDataConverter@@SA?AV?$CStringT@DV?$StrTraitMFC_DLL@DV?$ChTraitsCRT@D@ATL@@@@@ATL@@AAV23@V23@@Z ; CDataConverter::Parser
  004b8	83 c4 0c	 add	 esp, 12			; 0000000cH
  004bb	50		 push	 eax
  004bc	8d 8d 24 fc ff
	ff		 lea	 ecx, DWORD PTR _strPreVolume$[ebp]
  004c2	c6 45 fc 1b	 mov	 BYTE PTR __$EHRec$[ebp+8], 27 ; 0000001bH
  004c6	ff 15 00 00 00
	00		 call	 DWORD PTR __imp_??4?$CStringT@DV?$StrTraitMFC_DLL@DV?$ChTraitsCRT@D@ATL@@@@@ATL@@QAEAAV01@ABV01@@Z
  004cc	8d 8d e4 fc ff
	ff		 lea	 ecx, DWORD PTR $T45[ebp]
  004d2	c6 45 fc 12	 mov	 BYTE PTR __$EHRec$[ebp+8], 18 ; 00000012H
  004d6	ff 15 00 00 00
	00		 call	 DWORD PTR __imp_??1?$CStringT@DV?$StrTraitMFC_DLL@DV?$ChTraitsCRT@D@ATL@@@@@ATL@@QAE@XZ

; 359  : 
; 360  : 	// Make sign value
; 361  : 	int nHigh, nLow;
; 362  : 	strHighLimit = CDataConverter::Parser(strSrc, sCELL); // 

  004dc	51		 push	 ecx
  004dd	8b cc		 mov	 ecx, esp
  004df	6a 01		 push	 1
  004e1	6a 09		 push	 9
  004e3	ff 15 00 00 00
	00		 call	 DWORD PTR __imp_??0?$CStringT@DV?$StrTraitMFC_DLL@DV?$ChTraitsCRT@D@ATL@@@@@ATL@@QAE@DH@Z
  004e9	8d 85 e0 fc ff
	ff		 lea	 eax, DWORD PTR _strSrc$[ebp]
  004ef	50		 push	 eax
  004f0	8d 85 e4 fc ff
	ff		 lea	 eax, DWORD PTR $T44[ebp]
  004f6	50		 push	 eax
  004f7	e8 00 00 00 00	 call	 ?Parser@CDataConverter@@SA?AV?$CStringT@DV?$StrTraitMFC_DLL@DV?$ChTraitsCRT@D@ATL@@@@@ATL@@AAV23@V23@@Z ; CDataConverter::Parser
  004fc	83 c4 0c	 add	 esp, 12			; 0000000cH
  004ff	50		 push	 eax
  00500	8d 8d a4 fc ff
	ff		 lea	 ecx, DWORD PTR _strHighLimit$[ebp]
  00506	c6 45 fc 1c	 mov	 BYTE PTR __$EHRec$[ebp+8], 28 ; 0000001cH
  0050a	ff 15 00 00 00
	00		 call	 DWORD PTR __imp_??4?$CStringT@DV?$StrTraitMFC_DLL@DV?$ChTraitsCRT@D@ATL@@@@@ATL@@QAEAAV01@ABV01@@Z
  00510	8d 8d e4 fc ff
	ff		 lea	 ecx, DWORD PTR $T44[ebp]
  00516	c6 45 fc 12	 mov	 BYTE PTR __$EHRec$[ebp+8], 18 ; 00000012H
  0051a	ff 15 00 00 00
	00		 call	 DWORD PTR __imp_??1?$CStringT@DV?$StrTraitMFC_DLL@DV?$ChTraitsCRT@D@ATL@@@@@ATL@@QAE@XZ

; 363  : 	nHigh = atoi(strHighLimit);

  00520	ff b5 a4 fc ff
	ff		 push	 DWORD PTR _strHighLimit$[ebp]
  00526	ff d6		 call	 esi

; 364  : 
; 365  : 	strLowLimit = CDataConverter::Parser(strSrc, sCELL); // 

  00528	8b cc		 mov	 ecx, esp
  0052a	8b f0		 mov	 esi, eax
  0052c	6a 01		 push	 1
  0052e	6a 09		 push	 9
  00530	ff 15 00 00 00
	00		 call	 DWORD PTR __imp_??0?$CStringT@DV?$StrTraitMFC_DLL@DV?$ChTraitsCRT@D@ATL@@@@@ATL@@QAE@DH@Z
  00536	8d 85 e0 fc ff
	ff		 lea	 eax, DWORD PTR _strSrc$[ebp]
  0053c	50		 push	 eax
  0053d	8d 85 e4 fc ff
	ff		 lea	 eax, DWORD PTR $T43[ebp]
  00543	50		 push	 eax
  00544	e8 00 00 00 00	 call	 ?Parser@CDataConverter@@SA?AV?$CStringT@DV?$StrTraitMFC_DLL@DV?$ChTraitsCRT@D@ATL@@@@@ATL@@AAV23@V23@@Z ; CDataConverter::Parser
  00549	83 c4 0c	 add	 esp, 12			; 0000000cH
  0054c	50		 push	 eax
  0054d	8d 8d a8 fc ff
	ff		 lea	 ecx, DWORD PTR _strLowLimit$[ebp]
  00553	c6 45 fc 1d	 mov	 BYTE PTR __$EHRec$[ebp+8], 29 ; 0000001dH
  00557	ff 15 00 00 00
	00		 call	 DWORD PTR __imp_??4?$CStringT@DV?$StrTraitMFC_DLL@DV?$ChTraitsCRT@D@ATL@@@@@ATL@@QAEAAV01@ABV01@@Z
  0055d	8d 8d e4 fc ff
	ff		 lea	 ecx, DWORD PTR $T43[ebp]
  00563	c6 45 fc 12	 mov	 BYTE PTR __$EHRec$[ebp+8], 18 ; 00000012H
  00567	ff 15 00 00 00
	00		 call	 DWORD PTR __imp_??1?$CStringT@DV?$StrTraitMFC_DLL@DV?$ChTraitsCRT@D@ATL@@@@@ATL@@QAE@XZ

; 366  : 	nLow = atoi(strLowLimit);

  0056d	ff b5 a8 fc ff
	ff		 push	 DWORD PTR _strLowLimit$[ebp]
  00573	ff 15 00 00 00
	00		 call	 DWORD PTR __imp__atoi
  00579	83 c4 04	 add	 esp, 4
  0057c	89 85 e4 fc ff
	ff		 mov	 DWORD PTR _nLow$1$[ebp], eax

; 367  : 
; 368  : 	theApp.DoMapStrObj_UpDnInfo(strCode, strHighLimit, strLowLimit);

  00582	b9 00 00 00 00	 mov	 ecx, OFFSET ?theApp@@3VCPartnerMngApp@@A ; theApp
  00587	ff b5 a8 fc ff
	ff		 push	 DWORD PTR _strLowLimit$[ebp]
  0058d	ff b5 a4 fc ff
	ff		 push	 DWORD PTR _strHighLimit$[ebp]
  00593	ff b5 6c fc ff
	ff		 push	 DWORD PTR _strCode$[ebp]
  00599	e8 00 00 00 00	 call	 ?DoMapStrObj_UpDnInfo@CPartnerMngApp@@QAEXPBD00@Z ; CPartnerMngApp::DoMapStrObj_UpDnInfo

; 369  : 
; 370  : 	if(abs(nPrice) == nHigh)		stOut.sign[0] = '1'; // UP_LIMIT

  0059e	8b 85 cc fc ff
	ff		 mov	 eax, DWORD PTR _nPrice$1$[ebp]
  005a4	99		 cdq
  005a5	33 c2		 xor	 eax, edx
  005a7	2b c2		 sub	 eax, edx
  005a9	3b c6		 cmp	 eax, esi
  005ab	75 09		 jne	 SHORT $LN15@Convert2St
  005ad	c6 85 14 fd ff
	ff 31		 mov	 BYTE PTR _stOut$[ebp+40], 49 ; 00000031H
  005b4	eb 43		 jmp	 SHORT $LN22@Convert2St
$LN15@Convert2St:

; 371  : 	else if(abs(nPrice) == nLow)	stOut.sign[0] = '4'; // DOWN_LIMIT

  005b6	3b 85 e4 fc ff
	ff		 cmp	 eax, DWORD PTR _nLow$1$[ebp]
  005bc	75 09		 jne	 SHORT $LN17@Convert2St
  005be	c6 85 14 fd ff
	ff 34		 mov	 BYTE PTR _stOut$[ebp+40], 52 ; 00000034H
  005c5	eb 32		 jmp	 SHORT $LN22@Convert2St
$LN17@Convert2St:

; 372  : 	else if(dChRate < 0)			stOut.sign[0] = '5'; // DOWN

  005c7	f2 0f 10 8d 90
	fc ff ff	 movsd	 xmm1, QWORD PTR _dChRate$[ebp]
  005cf	0f 57 c0	 xorps	 xmm0, xmm0
  005d2	66 0f 2f c1	 comisd	 xmm0, xmm1
  005d6	76 09		 jbe	 SHORT $LN19@Convert2St
  005d8	c6 85 14 fd ff
	ff 35		 mov	 BYTE PTR _stOut$[ebp+40], 53 ; 00000035H
  005df	eb 18		 jmp	 SHORT $LN22@Convert2St
$LN19@Convert2St:

; 373  : 	else if(dChRate == 0)			stOut.sign[0] = '3'; // SAME (BOHAP)

  005e1	66 0f 2e c8	 ucomisd xmm1, xmm0
  005e5	c6 85 14 fd ff
	ff 33		 mov	 BYTE PTR _stOut$[ebp+40], 51 ; 00000033H
  005ec	9f		 lahf
  005ed	f6 c4 44	 test	 ah, 68			; 00000044H
  005f0	7b 07		 jnp	 SHORT $LN22@Convert2St

; 374  : 	else							stOut.sign[0] = '2'; // UP

  005f2	c6 85 14 fd ff
	ff 32		 mov	 BYTE PTR _stOut$[ebp+40], 50 ; 00000032H
$LN22@Convert2St:

; 375  : 
; 376  : 
; 377  : 	strOpen = CDataConverter::Parser(strSrc, sCELL); // 

  005f9	51		 push	 ecx
  005fa	8b cc		 mov	 ecx, esp
  005fc	6a 01		 push	 1
  005fe	6a 09		 push	 9
  00600	ff 15 00 00 00
	00		 call	 DWORD PTR __imp_??0?$CStringT@DV?$StrTraitMFC_DLL@DV?$ChTraitsCRT@D@ATL@@@@@ATL@@QAE@DH@Z
  00606	8d 85 e0 fc ff
	ff		 lea	 eax, DWORD PTR _strSrc$[ebp]
  0060c	50		 push	 eax
  0060d	8d 85 e4 fc ff
	ff		 lea	 eax, DWORD PTR $T42[ebp]
  00613	50		 push	 eax
  00614	e8 00 00 00 00	 call	 ?Parser@CDataConverter@@SA?AV?$CStringT@DV?$StrTraitMFC_DLL@DV?$ChTraitsCRT@D@ATL@@@@@ATL@@AAV23@V23@@Z ; CDataConverter::Parser
  00619	83 c4 0c	 add	 esp, 12			; 0000000cH
  0061c	50		 push	 eax
  0061d	8d 8d b8 fc ff
	ff		 lea	 ecx, DWORD PTR _strOpen$[ebp]
  00623	c6 45 fc 1e	 mov	 BYTE PTR __$EHRec$[ebp+8], 30 ; 0000001eH
  00627	ff 15 00 00 00
	00		 call	 DWORD PTR __imp_??4?$CStringT@DV?$StrTraitMFC_DLL@DV?$ChTraitsCRT@D@ATL@@@@@ATL@@QAEAAV01@ABV01@@Z
  0062d	8d 8d e4 fc ff
	ff		 lea	 ecx, DWORD PTR $T42[ebp]
  00633	c6 45 fc 12	 mov	 BYTE PTR __$EHRec$[ebp+8], 18 ; 00000012H
  00637	ff 15 00 00 00
	00		 call	 DWORD PTR __imp_??1?$CStringT@DV?$StrTraitMFC_DLL@DV?$ChTraitsCRT@D@ATL@@@@@ATL@@QAE@XZ

; 378  : 	strOpen.Remove(_T('+')); strOpen.Remove(_T('-'));

  0063d	6a 2b		 push	 43			; 0000002bH
  0063f	8d 8d b8 fc ff
	ff		 lea	 ecx, DWORD PTR _strOpen$[ebp]
  00645	ff 15 00 00 00
	00		 call	 DWORD PTR __imp_?Remove@?$CStringT@DV?$StrTraitMFC_DLL@DV?$ChTraitsCRT@D@ATL@@@@@ATL@@QAEHD@Z
  0064b	6a 2d		 push	 45			; 0000002dH
  0064d	8d 8d b8 fc ff
	ff		 lea	 ecx, DWORD PTR _strOpen$[ebp]
  00653	ff 15 00 00 00
	00		 call	 DWORD PTR __imp_?Remove@?$CStringT@DV?$StrTraitMFC_DLL@DV?$ChTraitsCRT@D@ATL@@@@@ATL@@QAEHD@Z

; 379  : 	strHigh = CDataConverter::Parser(strSrc, sCELL); // 

  00659	51		 push	 ecx
  0065a	8b cc		 mov	 ecx, esp
  0065c	6a 01		 push	 1
  0065e	6a 09		 push	 9
  00660	ff 15 00 00 00
	00		 call	 DWORD PTR __imp_??0?$CStringT@DV?$StrTraitMFC_DLL@DV?$ChTraitsCRT@D@ATL@@@@@ATL@@QAE@DH@Z
  00666	8d 85 e0 fc ff
	ff		 lea	 eax, DWORD PTR _strSrc$[ebp]
  0066c	50		 push	 eax
  0066d	8d 85 e4 fc ff
	ff		 lea	 eax, DWORD PTR $T41[ebp]
  00673	50		 push	 eax
  00674	e8 00 00 00 00	 call	 ?Parser@CDataConverter@@SA?AV?$CStringT@DV?$StrTraitMFC_DLL@DV?$ChTraitsCRT@D@ATL@@@@@ATL@@AAV23@V23@@Z ; CDataConverter::Parser
  00679	83 c4 0c	 add	 esp, 12			; 0000000cH
  0067c	50		 push	 eax
  0067d	8d 8d 9c fc ff
	ff		 lea	 ecx, DWORD PTR _strHigh$[ebp]
  00683	c6 45 fc 1f	 mov	 BYTE PTR __$EHRec$[ebp+8], 31 ; 0000001fH
  00687	ff 15 00 00 00
	00		 call	 DWORD PTR __imp_??4?$CStringT@DV?$StrTraitMFC_DLL@DV?$ChTraitsCRT@D@ATL@@@@@ATL@@QAEAAV01@ABV01@@Z
  0068d	8d 8d e4 fc ff
	ff		 lea	 ecx, DWORD PTR $T41[ebp]
  00693	c6 45 fc 12	 mov	 BYTE PTR __$EHRec$[ebp+8], 18 ; 00000012H
  00697	ff 15 00 00 00
	00		 call	 DWORD PTR __imp_??1?$CStringT@DV?$StrTraitMFC_DLL@DV?$ChTraitsCRT@D@ATL@@@@@ATL@@QAE@XZ

; 380  : 	strHigh.Remove(_T('+')); strHigh.Remove(_T('-'));

  0069d	6a 2b		 push	 43			; 0000002bH
  0069f	8d 8d 9c fc ff
	ff		 lea	 ecx, DWORD PTR _strHigh$[ebp]
  006a5	ff 15 00 00 00
	00		 call	 DWORD PTR __imp_?Remove@?$CStringT@DV?$StrTraitMFC_DLL@DV?$ChTraitsCRT@D@ATL@@@@@ATL@@QAEHD@Z
  006ab	6a 2d		 push	 45			; 0000002dH
  006ad	8d 8d 9c fc ff
	ff		 lea	 ecx, DWORD PTR _strHigh$[ebp]
  006b3	ff 15 00 00 00
	00		 call	 DWORD PTR __imp_?Remove@?$CStringT@DV?$StrTraitMFC_DLL@DV?$ChTraitsCRT@D@ATL@@@@@ATL@@QAEHD@Z

; 381  : 	strLow = CDataConverter::Parser(strSrc, sCELL); // 

  006b9	51		 push	 ecx
  006ba	8b cc		 mov	 ecx, esp
  006bc	6a 01		 push	 1
  006be	6a 09		 push	 9
  006c0	ff 15 00 00 00
	00		 call	 DWORD PTR __imp_??0?$CStringT@DV?$StrTraitMFC_DLL@DV?$ChTraitsCRT@D@ATL@@@@@ATL@@QAE@DH@Z
  006c6	8d 85 e0 fc ff
	ff		 lea	 eax, DWORD PTR _strSrc$[ebp]
  006cc	50		 push	 eax
  006cd	8d 85 e4 fc ff
	ff		 lea	 eax, DWORD PTR $T40[ebp]
  006d3	50		 push	 eax
  006d4	e8 00 00 00 00	 call	 ?Parser@CDataConverter@@SA?AV?$CStringT@DV?$StrTraitMFC_DLL@DV?$ChTraitsCRT@D@ATL@@@@@ATL@@AAV23@V23@@Z ; CDataConverter::Parser
  006d9	83 c4 0c	 add	 esp, 12			; 0000000cH
  006dc	50		 push	 eax
  006dd	8d 8d a0 fc ff
	ff		 lea	 ecx, DWORD PTR _strLow$[ebp]
  006e3	c6 45 fc 20	 mov	 BYTE PTR __$EHRec$[ebp+8], 32 ; 00000020H
  006e7	ff 15 00 00 00
	00		 call	 DWORD PTR __imp_??4?$CStringT@DV?$StrTraitMFC_DLL@DV?$ChTraitsCRT@D@ATL@@@@@ATL@@QAEAAV01@ABV01@@Z
  006ed	8d 8d e4 fc ff
	ff		 lea	 ecx, DWORD PTR $T40[ebp]
  006f3	c6 45 fc 12	 mov	 BYTE PTR __$EHRec$[ebp+8], 18 ; 00000012H
  006f7	ff 15 00 00 00
	00		 call	 DWORD PTR __imp_??1?$CStringT@DV?$StrTraitMFC_DLL@DV?$ChTraitsCRT@D@ATL@@@@@ATL@@QAE@XZ

; 382  : 	strLow.Remove(_T('+')); strLow.Remove(_T('-'));

  006fd	6a 2b		 push	 43			; 0000002bH
  006ff	8d 8d a0 fc ff
	ff		 lea	 ecx, DWORD PTR _strLow$[ebp]
  00705	ff 15 00 00 00
	00		 call	 DWORD PTR __imp_?Remove@?$CStringT@DV?$StrTraitMFC_DLL@DV?$ChTraitsCRT@D@ATL@@@@@ATL@@QAEHD@Z
  0070b	6a 2d		 push	 45			; 0000002dH
  0070d	8d 8d a0 fc ff
	ff		 lea	 ecx, DWORD PTR _strLow$[ebp]
  00713	ff 15 00 00 00
	00		 call	 DWORD PTR __imp_?Remove@?$CStringT@DV?$StrTraitMFC_DLL@DV?$ChTraitsCRT@D@ATL@@@@@ATL@@QAEHD@Z

; 383  : 
; 384  : 	strPreOpen = CDataConverter::Parser(strSrc, sCELL);		// 

  00719	51		 push	 ecx
  0071a	8b cc		 mov	 ecx, esp
  0071c	6a 01		 push	 1
  0071e	6a 09		 push	 9
  00720	ff 15 00 00 00
	00		 call	 DWORD PTR __imp_??0?$CStringT@DV?$StrTraitMFC_DLL@DV?$ChTraitsCRT@D@ATL@@@@@ATL@@QAE@DH@Z
  00726	8d 85 e0 fc ff
	ff		 lea	 eax, DWORD PTR _strSrc$[ebp]
  0072c	50		 push	 eax
  0072d	8d 85 e4 fc ff
	ff		 lea	 eax, DWORD PTR $T39[ebp]
  00733	50		 push	 eax
  00734	e8 00 00 00 00	 call	 ?Parser@CDataConverter@@SA?AV?$CStringT@DV?$StrTraitMFC_DLL@DV?$ChTraitsCRT@D@ATL@@@@@ATL@@AAV23@V23@@Z ; CDataConverter::Parser
  00739	83 c4 0c	 add	 esp, 12			; 0000000cH
  0073c	50		 push	 eax
  0073d	8d 8d 70 fc ff
	ff		 lea	 ecx, DWORD PTR _strPreOpen$[ebp]
  00743	c6 45 fc 21	 mov	 BYTE PTR __$EHRec$[ebp+8], 33 ; 00000021H
  00747	ff 15 00 00 00
	00		 call	 DWORD PTR __imp_??4?$CStringT@DV?$StrTraitMFC_DLL@DV?$ChTraitsCRT@D@ATL@@@@@ATL@@QAEAAV01@ABV01@@Z
  0074d	8d 8d e4 fc ff
	ff		 lea	 ecx, DWORD PTR $T39[ebp]
  00753	c6 45 fc 12	 mov	 BYTE PTR __$EHRec$[ebp+8], 18 ; 00000012H
  00757	ff 15 00 00 00
	00		 call	 DWORD PTR __imp_??1?$CStringT@DV?$StrTraitMFC_DLL@DV?$ChTraitsCRT@D@ATL@@@@@ATL@@QAE@XZ

; 385  : 	strPreOpen.Remove(_T('+')); strPreOpen.Remove(_T('-'));

  0075d	6a 2b		 push	 43			; 0000002bH
  0075f	8d 8d 70 fc ff
	ff		 lea	 ecx, DWORD PTR _strPreOpen$[ebp]
  00765	ff 15 00 00 00
	00		 call	 DWORD PTR __imp_?Remove@?$CStringT@DV?$StrTraitMFC_DLL@DV?$ChTraitsCRT@D@ATL@@@@@ATL@@QAEHD@Z
  0076b	6a 2d		 push	 45			; 0000002dH
  0076d	8d 8d 70 fc ff
	ff		 lea	 ecx, DWORD PTR _strPreOpen$[ebp]
  00773	ff 15 00 00 00
	00		 call	 DWORD PTR __imp_?Remove@?$CStringT@DV?$StrTraitMFC_DLL@DV?$ChTraitsCRT@D@ATL@@@@@ATL@@QAEHD@Z

; 386  : 	strPreHigh = CDataConverter::Parser(strSrc, sCELL);		// 

  00779	51		 push	 ecx
  0077a	8b cc		 mov	 ecx, esp
  0077c	6a 01		 push	 1
  0077e	6a 09		 push	 9
  00780	ff 15 00 00 00
	00		 call	 DWORD PTR __imp_??0?$CStringT@DV?$StrTraitMFC_DLL@DV?$ChTraitsCRT@D@ATL@@@@@ATL@@QAE@DH@Z
  00786	8d 85 e0 fc ff
	ff		 lea	 eax, DWORD PTR _strSrc$[ebp]
  0078c	50		 push	 eax
  0078d	8d 85 e4 fc ff
	ff		 lea	 eax, DWORD PTR $T38[ebp]
  00793	50		 push	 eax
  00794	e8 00 00 00 00	 call	 ?Parser@CDataConverter@@SA?AV?$CStringT@DV?$StrTraitMFC_DLL@DV?$ChTraitsCRT@D@ATL@@@@@ATL@@AAV23@V23@@Z ; CDataConverter::Parser
  00799	83 c4 0c	 add	 esp, 12			; 0000000cH
  0079c	50		 push	 eax
  0079d	8d 8d 80 fc ff
	ff		 lea	 ecx, DWORD PTR _strPreHigh$[ebp]
  007a3	c6 45 fc 22	 mov	 BYTE PTR __$EHRec$[ebp+8], 34 ; 00000022H
  007a7	ff 15 00 00 00
	00		 call	 DWORD PTR __imp_??4?$CStringT@DV?$StrTraitMFC_DLL@DV?$ChTraitsCRT@D@ATL@@@@@ATL@@QAEAAV01@ABV01@@Z
  007ad	8d 8d e4 fc ff
	ff		 lea	 ecx, DWORD PTR $T38[ebp]
  007b3	c6 45 fc 12	 mov	 BYTE PTR __$EHRec$[ebp+8], 18 ; 00000012H
  007b7	ff 15 00 00 00
	00		 call	 DWORD PTR __imp_??1?$CStringT@DV?$StrTraitMFC_DLL@DV?$ChTraitsCRT@D@ATL@@@@@ATL@@QAE@XZ

; 387  : 	strPreHigh.Remove(_T('+')); strPreHigh.Remove(_T('-'));

  007bd	6a 2b		 push	 43			; 0000002bH
  007bf	8d 8d 80 fc ff
	ff		 lea	 ecx, DWORD PTR _strPreHigh$[ebp]
  007c5	ff 15 00 00 00
	00		 call	 DWORD PTR __imp_?Remove@?$CStringT@DV?$StrTraitMFC_DLL@DV?$ChTraitsCRT@D@ATL@@@@@ATL@@QAEHD@Z
  007cb	6a 2d		 push	 45			; 0000002dH
  007cd	8d 8d 80 fc ff
	ff		 lea	 ecx, DWORD PTR _strPreHigh$[ebp]
  007d3	ff 15 00 00 00
	00		 call	 DWORD PTR __imp_?Remove@?$CStringT@DV?$StrTraitMFC_DLL@DV?$ChTraitsCRT@D@ATL@@@@@ATL@@QAEHD@Z

; 388  : 	strPreLow = CDataConverter::Parser(strSrc, sCELL);		// 

  007d9	51		 push	 ecx
  007da	8b cc		 mov	 ecx, esp
  007dc	6a 01		 push	 1
  007de	6a 09		 push	 9
  007e0	ff 15 00 00 00
	00		 call	 DWORD PTR __imp_??0?$CStringT@DV?$StrTraitMFC_DLL@DV?$ChTraitsCRT@D@ATL@@@@@ATL@@QAE@DH@Z
  007e6	8d 85 e0 fc ff
	ff		 lea	 eax, DWORD PTR _strSrc$[ebp]
  007ec	50		 push	 eax
  007ed	8d 85 e4 fc ff
	ff		 lea	 eax, DWORD PTR $T37[ebp]
  007f3	50		 push	 eax
  007f4	e8 00 00 00 00	 call	 ?Parser@CDataConverter@@SA?AV?$CStringT@DV?$StrTraitMFC_DLL@DV?$ChTraitsCRT@D@ATL@@@@@ATL@@AAV23@V23@@Z ; CDataConverter::Parser
  007f9	83 c4 0c	 add	 esp, 12			; 0000000cH
  007fc	50		 push	 eax
  007fd	8d 8d 84 fc ff
	ff		 lea	 ecx, DWORD PTR _strPreLow$[ebp]
  00803	c6 45 fc 23	 mov	 BYTE PTR __$EHRec$[ebp+8], 35 ; 00000023H
  00807	ff 15 00 00 00
	00		 call	 DWORD PTR __imp_??4?$CStringT@DV?$StrTraitMFC_DLL@DV?$ChTraitsCRT@D@ATL@@@@@ATL@@QAEAAV01@ABV01@@Z
  0080d	8d 8d e4 fc ff
	ff		 lea	 ecx, DWORD PTR $T37[ebp]
  00813	c6 45 fc 12	 mov	 BYTE PTR __$EHRec$[ebp+8], 18 ; 00000012H
  00817	ff 15 00 00 00
	00		 call	 DWORD PTR __imp_??1?$CStringT@DV?$StrTraitMFC_DLL@DV?$ChTraitsCRT@D@ATL@@@@@ATL@@QAE@XZ

; 389  : 	strPreLow.Remove(_T('+')); strPreLow.Remove(_T('-'));

  0081d	6a 2b		 push	 43			; 0000002bH
  0081f	8d 8d 84 fc ff
	ff		 lea	 ecx, DWORD PTR _strPreLow$[ebp]
  00825	ff 15 00 00 00
	00		 call	 DWORD PTR __imp_?Remove@?$CStringT@DV?$StrTraitMFC_DLL@DV?$ChTraitsCRT@D@ATL@@@@@ATL@@QAEHD@Z
  0082b	6a 2d		 push	 45			; 0000002dH
  0082d	8d 8d 84 fc ff
	ff		 lea	 ecx, DWORD PTR _strPreLow$[ebp]
  00833	ff 15 00 00 00
	00		 call	 DWORD PTR __imp_?Remove@?$CStringT@DV?$StrTraitMFC_DLL@DV?$ChTraitsCRT@D@ATL@@@@@ATL@@QAEHD@Z

; 390  : 
; 391  : 	CString strRealState = CDataConverter::Parser(strSrc, sCELL);	

  00839	51		 push	 ecx
  0083a	8b cc		 mov	 ecx, esp
  0083c	6a 01		 push	 1
  0083e	6a 09		 push	 9
  00840	ff 15 00 00 00
	00		 call	 DWORD PTR __imp_??0?$CStringT@DV?$StrTraitMFC_DLL@DV?$ChTraitsCRT@D@ATL@@@@@ATL@@QAE@DH@Z
  00846	8d 85 e0 fc ff
	ff		 lea	 eax, DWORD PTR _strSrc$[ebp]
  0084c	50		 push	 eax
  0084d	8d 85 58 fc ff
	ff		 lea	 eax, DWORD PTR _strRealState$[ebp]
  00853	50		 push	 eax
  00854	e8 00 00 00 00	 call	 ?Parser@CDataConverter@@SA?AV?$CStringT@DV?$StrTraitMFC_DLL@DV?$ChTraitsCRT@D@ATL@@@@@ATL@@AAV23@V23@@Z ; CDataConverter::Parser
  00859	c6 45 fc 24	 mov	 BYTE PTR __$EHRec$[ebp+8], 36 ; 00000024H

; 392  : 	/* 0: */
; 393  : 	/* 2: */
; 394  : 	/* 3: */
; 395  : 	/* 4: */
; 396  : 	/* 5: */
; 397  : 	/* 6: */
; 398  : 	/* 7: */
; 399  : 	/*  */
; 400  : 	/* 8:CB 9:CB */
; 401  : 	/* 10:  */
; 402  : 	/* 11:  */
; 403  : 	/* 12: */
; 404  : 	/* 13: */
; 405  : 	/* 14: */
; 406  : 	/* 15: */
; 407  : 	/* 16:RANDOMEND */
; 408  : 	/* 17:RANDOMEND */
; 409  : 	/* 18: */
; 410  : 	/* 19: 20:*/
; 411  : 	/* 21:  */
; 412  : 	/* 22:  */
; 413  : 
; 414  : //	CString strRequestTime = CDataConverter::Parser(strSrc, sCELL);	// "1390" .
; 415  : //	CString strMarketStartTime = CDataConverter::Parser(strSrc, sFS); // "1389" (HHMM)
; 416  : //	CString strMarketStartTime = CDataConverter::Parser(strSrc, sFS); // "1600"  (/..)
; 417  : // 	if(strMarketStartTime.GetLength() == 4) // "0900" -> "090000"
; 418  : // 		strMarketStartTime += "00";
; 419  : 
; 420  : 	//        .
; 421  : 	CString strJangStart = CDataConverter::Parser(strSrc, sCELL); //"1391" (HHMM)

  0085d	83 c4 08	 add	 esp, 8
  00860	8b cc		 mov	 ecx, esp
  00862	6a 01		 push	 1
  00864	6a 09		 push	 9
  00866	ff 15 00 00 00
	00		 call	 DWORD PTR __imp_??0?$CStringT@DV?$StrTraitMFC_DLL@DV?$ChTraitsCRT@D@ATL@@@@@ATL@@QAE@DH@Z
  0086c	8d 85 e0 fc ff
	ff		 lea	 eax, DWORD PTR _strSrc$[ebp]
  00872	50		 push	 eax
  00873	8d 85 ac fc ff
	ff		 lea	 eax, DWORD PTR _strJangStart$[ebp]
  00879	50		 push	 eax
  0087a	e8 00 00 00 00	 call	 ?Parser@CDataConverter@@SA?AV?$CStringT@DV?$StrTraitMFC_DLL@DV?$ChTraitsCRT@D@ATL@@@@@ATL@@AAV23@V23@@Z ; CDataConverter::Parser

; 422  : 	CString strJangEnd   = CDataConverter::Parser(strSrc, sCELL); //"1392" (HHMM)

  0087f	83 c4 08	 add	 esp, 8
  00882	c6 45 fc 25	 mov	 BYTE PTR __$EHRec$[ebp+8], 37 ; 00000025H
  00886	8b cc		 mov	 ecx, esp
  00888	6a 01		 push	 1
  0088a	6a 09		 push	 9
  0088c	ff 15 00 00 00
	00		 call	 DWORD PTR __imp_??0?$CStringT@DV?$StrTraitMFC_DLL@DV?$ChTraitsCRT@D@ATL@@@@@ATL@@QAE@DH@Z
  00892	8d 85 e0 fc ff
	ff		 lea	 eax, DWORD PTR _strSrc$[ebp]
  00898	50		 push	 eax
  00899	8d 85 34 fc ff
	ff		 lea	 eax, DWORD PTR _strJangEnd$[ebp]
  0089f	50		 push	 eax
  008a0	e8 00 00 00 00	 call	 ?Parser@CDataConverter@@SA?AV?$CStringT@DV?$StrTraitMFC_DLL@DV?$ChTraitsCRT@D@ATL@@@@@ATL@@AAV23@V23@@Z ; CDataConverter::Parser
  008a5	83 c4 0c	 add	 esp, 12			; 0000000cH

; 423  : 	strJangStart.TrimRight();

  008a8	8d 8d ac fc ff
	ff		 lea	 ecx, DWORD PTR _strJangStart$[ebp]
  008ae	c6 45 fc 26	 mov	 BYTE PTR __$EHRec$[ebp+8], 38 ; 00000026H
  008b2	ff 15 00 00 00
	00		 call	 DWORD PTR __imp_?TrimRight@?$CStringT@DV?$StrTraitMFC_DLL@DV?$ChTraitsCRT@D@ATL@@@@@ATL@@QAEAAV12@XZ

; 424  : 	strJangEnd.TrimRight();

  008b8	8d 8d 34 fc ff
	ff		 lea	 ecx, DWORD PTR _strJangEnd$[ebp]
  008be	ff 15 00 00 00
	00		 call	 DWORD PTR __imp_?TrimRight@?$CStringT@DV?$StrTraitMFC_DLL@DV?$ChTraitsCRT@D@ATL@@@@@ATL@@QAEAAV12@XZ

; 425  : 
; 426  : 	BOOL bSetReal = FALSE;
; 427  : 	if(strRealState.Compare("10") == 0 || strRealState.Compare("11") == 0 || strRealState.Compare("22") == 0)

  008c4	68 00 00 00 00	 push	 OFFSET ??_C@_02PKFBJPLJ@10@
  008c9	8d 8d 58 fc ff
	ff		 lea	 ecx, DWORD PTR _strRealState$[ebp]
  008cf	33 f6		 xor	 esi, esi
  008d1	ff 15 00 00 00
	00		 call	 DWORD PTR __imp_?Compare@?$CStringT@DV?$StrTraitMFC_DLL@DV?$ChTraitsCRT@D@ATL@@@@@ATL@@QBEHPBD@Z
  008d7	85 c0		 test	 eax, eax
  008d9	74 2a		 je	 SHORT $LN24@Convert2St
  008db	68 00 00 00 00	 push	 OFFSET ??_C@_02ODEKKOPI@11@
  008e0	8d 8d 58 fc ff
	ff		 lea	 ecx, DWORD PTR _strRealState$[ebp]
  008e6	ff 15 00 00 00
	00		 call	 DWORD PTR __imp_?Compare@?$CStringT@DV?$StrTraitMFC_DLL@DV?$ChTraitsCRT@D@ATL@@@@@ATL@@QBEHPBD@Z
  008ec	85 c0		 test	 eax, eax
  008ee	74 15		 je	 SHORT $LN24@Convert2St
  008f0	68 00 00 00 00	 push	 OFFSET ??_C@_02MKCBEDGC@22@
  008f5	8d 8d 58 fc ff
	ff		 lea	 ecx, DWORD PTR _strRealState$[ebp]
  008fb	ff 15 00 00 00
	00		 call	 DWORD PTR __imp_?Compare@?$CStringT@DV?$StrTraitMFC_DLL@DV?$ChTraitsCRT@D@ATL@@@@@ATL@@QBEHPBD@Z
  00901	85 c0		 test	 eax, eax
  00903	75 05		 jne	 SHORT $LN23@Convert2St
$LN24@Convert2St:

; 428  : 		bSetReal = TRUE;

  00905	be 01 00 00 00	 mov	 esi, 1
$LN23@Convert2St:
; File C:\Program Files (x86)\Microsoft Visual Studio\2019\Community\VC\Tools\MSVC\14.29.30133\atlmfc\include\atlsimpstr.h

; 519  : 		return( GetData()->nDataLength );

  0090a	8b 85 ac fc ff
	ff		 mov	 eax, DWORD PTR _strJangStart$[ebp]
; File D:\git\src\IBK\IBK_DRFN\ProjSrc\SrcDrfn\DrCommon\PartnerMng\ChartItemStock.cpp

; 430  : 	if(strJangStart.GetLength() == 4)	strJangStart += "00";

  00910	83 78 f4 04	 cmp	 DWORD PTR [eax-12], 4
  00914	75 11		 jne	 SHORT $LN25@Convert2St
  00916	68 00 00 00 00	 push	 OFFSET ??_C@_02PLJDPFIO@00@
  0091b	8d 8d ac fc ff
	ff		 lea	 ecx, DWORD PTR _strJangStart$[ebp]
  00921	ff 15 00 00 00
	00		 call	 DWORD PTR __imp_??Y?$CStringT@DV?$StrTraitMFC_DLL@DV?$ChTraitsCRT@D@ATL@@@@@ATL@@QAEAAV01@PBD@Z
$LN25@Convert2St:

; 431  : 
; 432  : 	//>>0001067: []   9  (ex : ) N     
; 433  : 	//  9      .
; 434  : 	//BASETIME(HHMMSS) MARKETTIME(HHMMSS|HHMMSS)   .
; 435  : 	//if(strJangStart.Compare("090000") != 0)
; 436  : 	CString strResetTime = "";

  00927	68 00 00 00 00	 push	 OFFSET ??_C@_00CNPNBAHC@@
  0092c	8d 8d 38 fc ff
	ff		 lea	 ecx, DWORD PTR _strResetTime$[ebp]
  00932	ff 15 00 00 00
	00		 call	 DWORD PTR __imp_??0?$CStringT@DV?$StrTraitMFC_DLL@DV?$ChTraitsCRT@D@ATL@@@@@ATL@@QAE@PBD@Z
  00938	c6 45 fc 27	 mov	 BYTE PTR __$EHRec$[ebp+8], 39 ; 00000027H

; 437  : 	if(bSetReal)

  0093c	85 f6		 test	 esi, esi
  0093e	74 13		 je	 SHORT $LN26@Convert2St

; 438  : 	{
; 439  : 		strResetTime = strJangStart;

  00940	8d 85 ac fc ff
	ff		 lea	 eax, DWORD PTR _strJangStart$[ebp]
  00946	50		 push	 eax
  00947	8d 8d 38 fc ff
	ff		 lea	 ecx, DWORD PTR _strResetTime$[ebp]
  0094d	ff 15 00 00 00
	00		 call	 DWORD PTR __imp_??4?$CStringT@DV?$StrTraitMFC_DLL@DV?$ChTraitsCRT@D@ATL@@@@@ATL@@QAEAAV01@ABV01@@Z
$LN26@Convert2St:

; 440  : 	}
; 441  : 	strBaseTime = strJangStart;

  00953	8d 85 ac fc ff
	ff		 lea	 eax, DWORD PTR _strJangStart$[ebp]
  00959	50		 push	 eax
  0095a	8d 8d 2c fc ff
	ff		 lea	 ecx, DWORD PTR _strBaseTime$[ebp]
  00960	ff 15 00 00 00
	00		 call	 DWORD PTR __imp_??4?$CStringT@DV?$StrTraitMFC_DLL@DV?$ChTraitsCRT@D@ATL@@@@@ATL@@QAEAAV01@ABV01@@Z

; 442  : 	strMarketTime.Format("%4.4s00|%4.4s00", strJangStart, strJangEnd);

  00966	ff b5 34 fc ff
	ff		 push	 DWORD PTR _strJangEnd$[ebp]
  0096c	8d 85 30 fc ff
	ff		 lea	 eax, DWORD PTR _strMarketTime$[ebp]
  00972	ff b5 ac fc ff
	ff		 push	 DWORD PTR _strJangStart$[ebp]
  00978	68 00 00 00 00	 push	 OFFSET ??_C@_0BA@PKAGJNBB@?$CF4?44s00?$HM?$CF4?44s00@
  0097d	50		 push	 eax
  0097e	ff 15 00 00 00
	00		 call	 DWORD PTR __imp_?Format@?$CStringT@DV?$StrTraitMFC_DLL@DV?$ChTraitsCRT@D@ATL@@@@@ATL@@QAAXPBDZZ

; 443  : 	//<<
; 444  : 
; 445  : 	//if(strJangStart.Compare("0000")!=0)		strMarketStartTime.Empty();
; 446  : 
; 447  : 	//[A00000651][A00000652].
; 448  : 	CString strVolAmt = CDataConverter::Parser(strSrc, sCELL); //"2028" 

  00984	83 c4 0c	 add	 esp, 12			; 0000000cH
  00987	8b cc		 mov	 ecx, esp
  00989	6a 01		 push	 1
  0098b	6a 09		 push	 9
  0098d	ff 15 00 00 00
	00		 call	 DWORD PTR __imp_??0?$CStringT@DV?$StrTraitMFC_DLL@DV?$ChTraitsCRT@D@ATL@@@@@ATL@@QAE@DH@Z
  00993	8d 85 e0 fc ff
	ff		 lea	 eax, DWORD PTR _strSrc$[ebp]
  00999	50		 push	 eax
  0099a	8d 85 5c fc ff
	ff		 lea	 eax, DWORD PTR _strVolAmt$[ebp]
  009a0	50		 push	 eax
  009a1	e8 00 00 00 00	 call	 ?Parser@CDataConverter@@SA?AV?$CStringT@DV?$StrTraitMFC_DLL@DV?$ChTraitsCRT@D@ATL@@@@@ATL@@AAV23@V23@@Z ; CDataConverter::Parser
  009a6	83 c4 0c	 add	 esp, 12			; 0000000cH

; 449  : 	strVolAmt.TrimRight();

  009a9	8d 8d 5c fc ff
	ff		 lea	 ecx, DWORD PTR _strVolAmt$[ebp]
  009af	c6 45 fc 28	 mov	 BYTE PTR __$EHRec$[ebp+8], 40 ; 00000028H
  009b3	ff 15 00 00 00
	00		 call	 DWORD PTR __imp_?TrimRight@?$CStringT@DV?$StrTraitMFC_DLL@DV?$ChTraitsCRT@D@ATL@@@@@ATL@@QAEAAV12@XZ

; 450  : 	strVolAmt += _T("000000");

  009b9	68 00 00 00 00	 push	 OFFSET ??_C@_06GEKNBBDK@000000@
  009be	8d 8d 5c fc ff
	ff		 lea	 ecx, DWORD PTR _strVolAmt$[ebp]
  009c4	ff 15 00 00 00
	00		 call	 DWORD PTR __imp_??Y?$CStringT@DV?$StrTraitMFC_DLL@DV?$ChTraitsCRT@D@ATL@@@@@ATL@@QAEAAV01@PBD@Z

; 451  : 
; 452  : 	//KHD : NextKey
; 453  : 	CString strNextKey = CDataConverter::Parser(strSrc, sCELL);

  009ca	51		 push	 ecx
  009cb	8b cc		 mov	 ecx, esp
  009cd	6a 01		 push	 1
  009cf	6a 09		 push	 9
  009d1	ff 15 00 00 00
	00		 call	 DWORD PTR __imp_??0?$CStringT@DV?$StrTraitMFC_DLL@DV?$ChTraitsCRT@D@ATL@@@@@ATL@@QAE@DH@Z
  009d7	8d 85 e0 fc ff
	ff		 lea	 eax, DWORD PTR _strSrc$[ebp]
  009dd	50		 push	 eax
  009de	8d 85 68 fc ff
	ff		 lea	 eax, DWORD PTR _strNextKey$[ebp]
  009e4	50		 push	 eax
  009e5	e8 00 00 00 00	 call	 ?Parser@CDataConverter@@SA?AV?$CStringT@DV?$StrTraitMFC_DLL@DV?$ChTraitsCRT@D@ATL@@@@@ATL@@AAV23@V23@@Z ; CDataConverter::Parser

; 454  : 	//KHD : 
; 455  : 	CString strUSDollor = CDataConverter::Parser(strSrc, sCELL);

  009ea	83 c4 08	 add	 esp, 8
  009ed	c6 45 fc 29	 mov	 BYTE PTR __$EHRec$[ebp+8], 41 ; 00000029H
  009f1	8b cc		 mov	 ecx, esp
  009f3	6a 01		 push	 1
  009f5	6a 09		 push	 9
  009f7	ff 15 00 00 00
	00		 call	 DWORD PTR __imp_??0?$CStringT@DV?$StrTraitMFC_DLL@DV?$ChTraitsCRT@D@ATL@@@@@ATL@@QAE@DH@Z
  009fd	8d 85 e0 fc ff
	ff		 lea	 eax, DWORD PTR _strSrc$[ebp]
  00a03	50		 push	 eax
  00a04	8d 85 14 fc ff
	ff		 lea	 eax, DWORD PTR _strUSDollor$[ebp]
  00a0a	50		 push	 eax
  00a0b	e8 00 00 00 00	 call	 ?Parser@CDataConverter@@SA?AV?$CStringT@DV?$StrTraitMFC_DLL@DV?$ChTraitsCRT@D@ATL@@@@@ATL@@AAV23@V23@@Z ; CDataConverter::Parser
; File C:\Program Files (x86)\Microsoft Visual Studio\2019\Community\VC\Tools\MSVC\14.29.30133\atlmfc\include\atlsimpstr.h

; 519  : 		return( GetData()->nDataLength );

  00a10	8b 85 14 fc ff
	ff		 mov	 eax, DWORD PTR _strUSDollor$[ebp]
; File D:\git\src\IBK\IBK_DRFN\ProjSrc\SrcDrfn\DrCommon\PartnerMng\ChartItemStock.cpp

; 456  : 	memcpy(m_InData.usRate, (LPTSTR)(LPCTSTR)strUSDollor, min(strUSDollor.GetLength(), sizeof(m_InData.usRate)));

  00a16	ba 0a 00 00 00	 mov	 edx, 10			; 0000000aH
  00a1b	8b b5 8c fc ff
	ff		 mov	 esi, DWORD PTR _this$GSCopy$1$[ebp]
  00a21	c6 45 fc 2a	 mov	 BYTE PTR __$EHRec$[ebp+8], 42 ; 0000002aH
  00a25	39 50 f4	 cmp	 DWORD PTR [eax-12], edx
  00a28	8d 4e 69	 lea	 ecx, DWORD PTR [esi+105]
  00a2b	0f 42 50 f4	 cmovb	 edx, DWORD PTR [eax-12]
  00a2f	52		 push	 edx
  00a30	50		 push	 eax
  00a31	51		 push	 ecx
  00a32	e8 00 00 00 00	 call	 _memcpy
  00a37	83 c4 18	 add	 esp, 24			; 00000018H

; 457  : 	
; 458  : 	int nSize, nCnt, nType;
; 459  : 	strNode = CString(m_InData.button, sizeof(m_InData.button)); // (0)/(1)/(2)/(3)/(4)

  00a3a	8d 46 3e	 lea	 eax, DWORD PTR [esi+62]
  00a3d	8d 8d e4 fc ff
	ff		 lea	 ecx, DWORD PTR $T36[ebp]
  00a43	6a 01		 push	 1
  00a45	50		 push	 eax
  00a46	ff 15 00 00 00
	00		 call	 DWORD PTR __imp_??0?$CStringT@DV?$StrTraitMFC_DLL@DV?$ChTraitsCRT@D@ATL@@@@@ATL@@QAE@PBDH@Z
  00a4c	50		 push	 eax
  00a4d	8d 8d e8 fc ff
	ff		 lea	 ecx, DWORD PTR _strNode$[ebp]
  00a53	c6 45 fc 2b	 mov	 BYTE PTR __$EHRec$[ebp+8], 43 ; 0000002bH
  00a57	ff 15 00 00 00
	00		 call	 DWORD PTR __imp_??4?$CStringT@DV?$StrTraitMFC_DLL@DV?$ChTraitsCRT@D@ATL@@@@@ATL@@QAEAAV01@ABV01@@Z
  00a5d	8d 8d e4 fc ff
	ff		 lea	 ecx, DWORD PTR $T36[ebp]
  00a63	c6 45 fc 2a	 mov	 BYTE PTR __$EHRec$[ebp+8], 42 ; 0000002aH
  00a67	ff 15 00 00 00
	00		 call	 DWORD PTR __imp_??1?$CStringT@DV?$StrTraitMFC_DLL@DV?$ChTraitsCRT@D@ATL@@@@@ATL@@QAE@XZ

; 460  : 	nType = atoi(strNode);

  00a6d	ff b5 e8 fc ff
	ff		 push	 DWORD PTR _strNode$[ebp]
  00a73	ff 15 00 00 00
	00		 call	 DWORD PTR __imp__atoi
  00a79	83 c4 04	 add	 esp, 4
  00a7c	89 85 c0 fc ff
	ff		 mov	 DWORD PTR _nType$1$[ebp], eax

; 461  : 	if (nType == 0)			nSize = m_nTickCnt;	// 

  00a82	85 c0		 test	 eax, eax
  00a84	75 0b		 jne	 SHORT $LN27@Convert2St
  00a86	8b 76 04	 mov	 esi, DWORD PTR [esi+4]
  00a89	89 b5 d0 fc ff
	ff		 mov	 DWORD PTR _nSize$1$[ebp], esi
  00a8f	eb 49		 jmp	 SHORT $LN36@Convert2St
$LN27@Convert2St:

; 462  : 	else if (nType == 1)	nSize = m_nMinCnt;	// 

  00a91	83 f8 01	 cmp	 eax, 1
  00a94	75 0b		 jne	 SHORT $LN29@Convert2St
  00a96	8b 76 0c	 mov	 esi, DWORD PTR [esi+12]
  00a99	89 b5 d0 fc ff
	ff		 mov	 DWORD PTR _nSize$1$[ebp], esi
  00a9f	eb 39		 jmp	 SHORT $LN36@Convert2St
$LN29@Convert2St:

; 463  : 	else if (nType == 6)	nSize = m_nSecCnt;	// 

  00aa1	83 f8 06	 cmp	 eax, 6
  00aa4	75 0b		 jne	 SHORT $LN31@Convert2St
  00aa6	8b 76 08	 mov	 esi, DWORD PTR [esi+8]
  00aa9	89 b5 d0 fc ff
	ff		 mov	 DWORD PTR _nSize$1$[ebp], esi
  00aaf	eb 29		 jmp	 SHORT $LN36@Convert2St
$LN31@Convert2St:

; 464  : 	else if (nType == 2)	nSize = m_nDayCnt;	// 

  00ab1	83 f8 02	 cmp	 eax, 2
  00ab4	75 0b		 jne	 SHORT $LN33@Convert2St
  00ab6	8b 76 10	 mov	 esi, DWORD PTR [esi+16]
  00ab9	89 b5 d0 fc ff
	ff		 mov	 DWORD PTR _nSize$1$[ebp], esi
  00abf	eb 19		 jmp	 SHORT $LN36@Convert2St
$LN33@Convert2St:

; 465  : 	else if (nType == 5)	nSize = m_nYearCnt;	// 

  00ac1	83 f8 05	 cmp	 eax, 5
  00ac4	75 0b		 jne	 SHORT $LN35@Convert2St
  00ac6	8b 76 18	 mov	 esi, DWORD PTR [esi+24]
  00ac9	89 b5 d0 fc ff
	ff		 mov	 DWORD PTR _nSize$1$[ebp], esi
  00acf	eb 09		 jmp	 SHORT $LN36@Convert2St
$LN35@Convert2St:

; 466  : 	else					nSize = m_nWeekCnt;	// , 

  00ad1	8b 46 14	 mov	 eax, DWORD PTR [esi+20]
  00ad4	89 85 d0 fc ff
	ff		 mov	 DWORD PTR _nSize$1$[ebp], eax
$LN36@Convert2St:

; 467  : 
; 468  : //	 .	
; 469  : // 	CString szTTT;
; 470  : //	szTTT = CDataConverter::Parser(strSrc, sFS); // 17408  .
; 471  : 
; 472  : 	//  
; 473  : 	//GRAPH_IO gridOut;
; 474  : 	GRAPH_IO gridOut;
; 475  : 	strNode = strSrc.Left(sizeof(gridOut));

  00ada	68 88 00 00 00	 push	 136			; 00000088H
  00adf	8d 85 e4 fc ff
	ff		 lea	 eax, DWORD PTR $T35[ebp]
  00ae5	50		 push	 eax
  00ae6	8d 8d e0 fc ff
	ff		 lea	 ecx, DWORD PTR _strSrc$[ebp]
  00aec	ff 15 00 00 00
	00		 call	 DWORD PTR __imp_?Left@?$CStringT@DV?$StrTraitMFC_DLL@DV?$ChTraitsCRT@D@ATL@@@@@ATL@@QBE?AV12@H@Z
  00af2	50		 push	 eax
  00af3	8d 8d e8 fc ff
	ff		 lea	 ecx, DWORD PTR _strNode$[ebp]
  00af9	c6 45 fc 2c	 mov	 BYTE PTR __$EHRec$[ebp+8], 44 ; 0000002cH
  00afd	ff 15 00 00 00
	00		 call	 DWORD PTR __imp_??4?$CStringT@DV?$StrTraitMFC_DLL@DV?$ChTraitsCRT@D@ATL@@@@@ATL@@QAEAAV01@ABV01@@Z
  00b03	8d 8d e4 fc ff
	ff		 lea	 ecx, DWORD PTR $T35[ebp]
  00b09	c6 45 fc 2a	 mov	 BYTE PTR __$EHRec$[ebp+8], 42 ; 0000002aH
  00b0d	ff 15 00 00 00
	00		 call	 DWORD PTR __imp_??1?$CStringT@DV?$StrTraitMFC_DLL@DV?$ChTraitsCRT@D@ATL@@@@@ATL@@QAE@XZ

; 476  : 	memcpy(&gridOut, strNode, sizeof(gridOut)); 
; 477  : 	
; 478  : 	strSrc = strSrc.Mid(sizeof(gridOut));

  00b13	68 88 00 00 00	 push	 136			; 00000088H
  00b18	8d 85 e4 fc ff
	ff		 lea	 eax, DWORD PTR $T34[ebp]
  00b1e	50		 push	 eax
  00b1f	8d 8d e0 fc ff
	ff		 lea	 ecx, DWORD PTR _strSrc$[ebp]
  00b25	ff 15 00 00 00
	00		 call	 DWORD PTR __imp_?Mid@?$CStringT@DV?$StrTraitMFC_DLL@DV?$ChTraitsCRT@D@ATL@@@@@ATL@@QBE?AV12@H@Z
  00b2b	50		 push	 eax
  00b2c	8d 8d e0 fc ff
	ff		 lea	 ecx, DWORD PTR _strSrc$[ebp]
  00b32	c6 45 fc 2d	 mov	 BYTE PTR __$EHRec$[ebp+8], 45 ; 0000002dH
  00b36	ff 15 00 00 00
	00		 call	 DWORD PTR __imp_??4?$CStringT@DV?$StrTraitMFC_DLL@DV?$ChTraitsCRT@D@ATL@@@@@ATL@@QAEAAV01@ABV01@@Z
  00b3c	8d 8d e4 fc ff
	ff		 lea	 ecx, DWORD PTR $T34[ebp]
  00b42	c6 45 fc 2a	 mov	 BYTE PTR __$EHRec$[ebp+8], 42 ; 0000002aH
  00b46	ff 15 00 00 00
	00		 call	 DWORD PTR __imp_??1?$CStringT@DV?$StrTraitMFC_DLL@DV?$ChTraitsCRT@D@ATL@@@@@ATL@@QAE@XZ
; File C:\Program Files (x86)\Microsoft Visual Studio\2019\Community\VC\Tools\MSVC\14.29.30133\atlmfc\include\cstringt.h

; 2486 : 		return(str1.Compare(psz2) == 0);

  00b4c	68 00 00 00 00	 push	 OFFSET ??_C@_0P@FLGGHACJ@99999999999999@
  00b51	8d 8d 68 fc ff
	ff		 lea	 ecx, DWORD PTR _strNextKey$[ebp]
  00b57	ff 15 00 00 00
	00		 call	 DWORD PTR __imp_?Compare@?$CStringT@DV?$StrTraitMFC_DLL@DV?$ChTraitsCRT@D@ATL@@@@@ATL@@QBEHPBD@Z
  00b5d	85 c0		 test	 eax, eax
; File D:\git\src\IBK\IBK_DRFN\ProjSrc\SrcDrfn\DrCommon\PartnerMng\ChartItemStock.cpp

; 480  : 	if (strNextKey =="99999999999999" || atoi(strNextKey) == 0)// 9 14  .  

  00b5f	74 39		 je	 SHORT $LN39@Convert2St
  00b61	ff b5 68 fc ff
	ff		 push	 DWORD PTR _strNextKey$[ebp]
  00b67	ff 15 00 00 00
	00		 call	 DWORD PTR __imp__atoi
  00b6d	83 c4 04	 add	 esp, 4
  00b70	85 c0		 test	 eax, eax
  00b72	74 26		 je	 SHORT $LN39@Convert2St
; File C:\Program Files (x86)\Microsoft Visual Studio\2019\Community\VC\Tools\MSVC\14.29.30133\atlmfc\include\atlsimpstr.h

; 519  : 		return( GetData()->nDataLength );

  00b74	8b 85 68 fc ff
	ff		 mov	 eax, DWORD PTR _strNextKey$[ebp]
; File D:\git\src\IBK\IBK_DRFN\ProjSrc\SrcDrfn\DrCommon\PartnerMng\ChartItemStock.cpp

; 483  : 		memcpy(stOut.nkey, (LPCTSTR)strNextKey, min(sizeof(stOut.nkey),strNextKey.GetLength()));

  00b7a	ba 1c 00 00 00	 mov	 edx, 28			; 0000001cH
; File C:\Program Files (x86)\Microsoft Visual Studio\2019\Community\VC\Tools\MSVC\14.29.30133\atlmfc\include\atlsimpstr.h

; 519  : 		return( GetData()->nDataLength );

  00b7f	8b 48 f4	 mov	 ecx, DWORD PTR [eax-12]
; File D:\git\src\IBK\IBK_DRFN\ProjSrc\SrcDrfn\DrCommon\PartnerMng\ChartItemStock.cpp

; 483  : 		memcpy(stOut.nkey, (LPCTSTR)strNextKey, min(sizeof(stOut.nkey),strNextKey.GetLength()));

  00b82	3b ca		 cmp	 ecx, edx
  00b84	0f 47 ca	 cmova	 ecx, edx
  00b87	51		 push	 ecx
  00b88	50		 push	 eax
  00b89	8d 85 39 fd ff
	ff		 lea	 eax, DWORD PTR _stOut$[ebp+77]
  00b8f	50		 push	 eax
  00b90	e8 00 00 00 00	 call	 _memcpy
  00b95	83 c4 0c	 add	 esp, 12			; 0000000cH
  00b98	eb 20		 jmp	 SHORT $LN38@Convert2St
$LN39@Convert2St:

; 481  : 		memset(stOut.nkey, 0x20, sizeof(stOut.nkey));

  00b9a	0f 28 05 00 00
	00 00		 movaps	 xmm0, XMMWORD PTR __xmm@20202020202020202020202020202020
  00ba1	0f 11 85 39 fd
	ff ff		 movups	 XMMWORD PTR _stOut$[ebp+77], xmm0
  00ba8	c7 85 51 fd ff
	ff 20 20 20 20	 mov	 DWORD PTR _stOut$[ebp+101], 538976288 ; 20202020H
  00bb2	66 0f d6 85 49
	fd ff ff	 movq	 QWORD PTR _stOut$[ebp+93], xmm0
$LN38@Convert2St:

; 484  : 	//END
; 485  : 
; 486  : 	CStringArray arrNode;

  00bba	8d 8d 44 fc ff
	ff		 lea	 ecx, DWORD PTR _arrNode$[ebp]
  00bc0	e8 00 00 00 00	 call	 ??0CStringArray@@QAE@XZ	; CStringArray::CStringArray

; 487  : 	int nNodeIndex = 1;
; 488  : 	strSrc.TrimLeft(); strSrc.TrimRight();

  00bc5	8d 8d e0 fc ff
	ff		 lea	 ecx, DWORD PTR _strSrc$[ebp]
  00bcb	c6 45 fc 2e	 mov	 BYTE PTR __$EHRec$[ebp+8], 46 ; 0000002eH
  00bcf	be 01 00 00 00	 mov	 esi, 1
  00bd4	ff 15 00 00 00
	00		 call	 DWORD PTR __imp_?TrimLeft@?$CStringT@DV?$StrTraitMFC_DLL@DV?$ChTraitsCRT@D@ATL@@@@@ATL@@QAEAAV12@XZ
  00bda	8d 8d e0 fc ff
	ff		 lea	 ecx, DWORD PTR _strSrc$[ebp]
  00be0	ff 15 00 00 00
	00		 call	 DWORD PTR __imp_?TrimRight@?$CStringT@DV?$StrTraitMFC_DLL@DV?$ChTraitsCRT@D@ATL@@@@@ATL@@QAEAAV12@XZ

; 489  : 	strSrc+=sCELL;

  00be6	6a 09		 push	 9
  00be8	8d 8d e0 fc ff
	ff		 lea	 ecx, DWORD PTR _strSrc$[ebp]
  00bee	ff 15 00 00 00
	00		 call	 DWORD PTR __imp_??Y?$CStringT@DV?$StrTraitMFC_DLL@DV?$ChTraitsCRT@D@ATL@@@@@ATL@@QAEAAV01@D@Z

; 490  : 	strSrc+=sFS;

  00bf4	6a 0d		 push	 13			; 0000000dH
  00bf6	8d 8d e0 fc ff
	ff		 lea	 ecx, DWORD PTR _strSrc$[ebp]
  00bfc	ff 15 00 00 00
	00		 call	 DWORD PTR __imp_??Y?$CStringT@DV?$StrTraitMFC_DLL@DV?$ChTraitsCRT@D@ATL@@@@@ATL@@QAEAAV01@D@Z

; 491  : 	strSrc+=sROW;

  00c02	6a 0a		 push	 10			; 0000000aH
  00c04	8d 8d e0 fc ff
	ff		 lea	 ecx, DWORD PTR _strSrc$[ebp]
  00c0a	ff 15 00 00 00
	00		 call	 DWORD PTR __imp_??Y?$CStringT@DV?$StrTraitMFC_DLL@DV?$ChTraitsCRT@D@ATL@@@@@ATL@@QAEAAV01@D@Z

; 492  : 	strSrc+=sCELL;

  00c10	6a 09		 push	 9
  00c12	8d 8d e0 fc ff
	ff		 lea	 ecx, DWORD PTR _strSrc$[ebp]
  00c18	ff 15 00 00 00
	00		 call	 DWORD PTR __imp_??Y?$CStringT@DV?$StrTraitMFC_DLL@DV?$ChTraitsCRT@D@ATL@@@@@ATL@@QAEAAV01@D@Z
; File C:\Program Files (x86)\Microsoft Visual Studio\2019\Community\VC\Tools\MSVC\14.29.30133\atlmfc\include\atlsimpstr.h

; 519  : 		return( GetData()->nDataLength );

  00c1e	8b 85 e0 fc ff
	ff		 mov	 eax, DWORD PTR _strSrc$[ebp]

; 533  : 		return( GetLength() == 0 );

  00c24	83 78 f4 00	 cmp	 DWORD PTR [eax-12], 0
; File D:\git\src\IBK\IBK_DRFN\ProjSrc\SrcDrfn\DrCommon\PartnerMng\ChartItemStock.cpp

; 493  : 	while(strSrc.IsEmpty() == FALSE)

  00c28	0f 84 91 00 00
	00		 je	 $LN3@Convert2St
  00c2e	8b bd d0 fc ff
	ff		 mov	 edi, DWORD PTR _nSize$1$[ebp]
$LL2@Convert2St:

; 494  : 	{
; 495  : 		strNode = CDataConverter::Parser(strSrc, (nNodeIndex == nSize)?sROW:sCELL);

  00c34	3b f7		 cmp	 esi, edi
  00c36	51		 push	 ecx
  00c37	0f 94 c0	 sete	 al
  00c3a	8b cc		 mov	 ecx, esp
  00c3c	04 09		 add	 al, 9
  00c3e	6a 01		 push	 1
  00c40	0f b6 c0	 movzx	 eax, al
  00c43	50		 push	 eax
  00c44	ff 15 00 00 00
	00		 call	 DWORD PTR __imp_??0?$CStringT@DV?$StrTraitMFC_DLL@DV?$ChTraitsCRT@D@ATL@@@@@ATL@@QAE@DH@Z
  00c4a	8d 85 e0 fc ff
	ff		 lea	 eax, DWORD PTR _strSrc$[ebp]
  00c50	50		 push	 eax
  00c51	8d 85 e4 fc ff
	ff		 lea	 eax, DWORD PTR $T33[ebp]
  00c57	50		 push	 eax
  00c58	e8 00 00 00 00	 call	 ?Parser@CDataConverter@@SA?AV?$CStringT@DV?$StrTraitMFC_DLL@DV?$ChTraitsCRT@D@ATL@@@@@ATL@@AAV23@V23@@Z ; CDataConverter::Parser
  00c5d	83 c4 0c	 add	 esp, 12			; 0000000cH
  00c60	50		 push	 eax
  00c61	8d 8d e8 fc ff
	ff		 lea	 ecx, DWORD PTR _strNode$[ebp]
  00c67	c6 45 fc 2f	 mov	 BYTE PTR __$EHRec$[ebp+8], 47 ; 0000002fH
  00c6b	ff 15 00 00 00
	00		 call	 DWORD PTR __imp_??4?$CStringT@DV?$StrTraitMFC_DLL@DV?$ChTraitsCRT@D@ATL@@@@@ATL@@QAEAAV01@ABV01@@Z
  00c71	8d 8d e4 fc ff
	ff		 lea	 ecx, DWORD PTR $T33[ebp]
  00c77	c6 45 fc 2e	 mov	 BYTE PTR __$EHRec$[ebp+8], 46 ; 0000002eH
  00c7b	ff 15 00 00 00
	00		 call	 DWORD PTR __imp_??1?$CStringT@DV?$StrTraitMFC_DLL@DV?$ChTraitsCRT@D@ATL@@@@@ATL@@QAE@XZ
; File C:\Program Files (x86)\Microsoft Visual Studio\2019\Community\VC\Tools\MSVC\14.29.30133\atlmfc\include\afxcoll.inl

; 321  : 		SetAtGrow(nIndex, newElement);

  00c81	8d 85 e8 fc ff
	ff		 lea	 eax, DWORD PTR _strNode$[ebp]
  00c87	50		 push	 eax
  00c88	ff b5 4c fc ff
	ff		 push	 DWORD PTR _arrNode$[ebp+8]
  00c8e	8d 8d 44 fc ff
	ff		 lea	 ecx, DWORD PTR _arrNode$[ebp]
  00c94	e8 00 00 00 00	 call	 ?SetAtGrow@CStringArray@@QAEXHABV?$CStringT@DV?$StrTraitMFC_DLL@DV?$ChTraitsCRT@D@ATL@@@@@ATL@@@Z ; CStringArray::SetAtGrow
; File C:\Program Files (x86)\Microsoft Visual Studio\2019\Community\VC\Tools\MSVC\14.29.30133\atlmfc\include\atlsimpstr.h

; 519  : 		return( GetData()->nDataLength );

  00c99	8b 85 e0 fc ff
	ff		 mov	 eax, DWORD PTR _strSrc$[ebp]
  00c9f	3b f7		 cmp	 esi, edi
  00ca1	b9 01 00 00 00	 mov	 ecx, 1
  00ca6	8b 50 f4	 mov	 edx, DWORD PTR [eax-12]
  00ca9	8d 46 01	 lea	 eax, DWORD PTR [esi+1]
  00cac	0f 45 c8	 cmovne	 ecx, eax
  00caf	8b f1		 mov	 esi, ecx

; 533  : 		return( GetLength() == 0 );

  00cb1	85 d2		 test	 edx, edx
; File D:\git\src\IBK\IBK_DRFN\ProjSrc\SrcDrfn\DrCommon\PartnerMng\ChartItemStock.cpp

; 493  : 	while(strSrc.IsEmpty() == FALSE)

  00cb3	0f 85 7b ff ff
	ff		 jne	 $LL2@Convert2St
  00cb9	8b bd c8 fc ff
	ff		 mov	 edi, DWORD PTR $T21[ebp]
$LN3@Convert2St:

; 496  : 	
; 497  : 		arrNode.Add(strNode);
; 498  : 
; 499  : 		if(nNodeIndex == nSize) nNodeIndex = 1;
; 500  : 		else nNodeIndex++;
; 501  : 	}
; 502  : 
; 503  : 	//    
; 504  : 	nCnt = arrNode.GetSize()/ nSize;

  00cbf	8b 85 4c fc ff
	ff		 mov	 eax, DWORD PTR _arrNode$[ebp+8]
  00cc5	99		 cdq
  00cc6	f7 bd d0 fc ff
	ff		 idiv	 DWORD PTR _nSize$1$[ebp]
  00ccc	8b f0		 mov	 esi, eax

; 505  : 	strNode.Format("%05d", nCnt);

  00cce	8d 85 e8 fc ff
	ff		 lea	 eax, DWORD PTR _strNode$[ebp]
  00cd4	56		 push	 esi
  00cd5	68 00 00 00 00	 push	 OFFSET ??_C@_04ODOGNJOP@?$CF05d@
  00cda	50		 push	 eax
  00cdb	89 b5 d0 fc ff
	ff		 mov	 DWORD PTR _nCnt$1$[ebp], esi
  00ce1	ff 15 00 00 00
	00		 call	 DWORD PTR __imp_?Format@?$CStringT@DV?$StrTraitMFC_DLL@DV?$ChTraitsCRT@D@ATL@@@@@ATL@@QAAXPBDZZ

; 506  : 	memcpy(stOut.fcnt, strNode, sizeof(stOut.fcnt));

  00ce7	8b 8d e8 fc ff
	ff		 mov	 ecx, DWORD PTR _strNode$[ebp]
  00ced	83 c4 0c	 add	 esp, 12			; 0000000cH

; 507  : 
; 508  : 	//   
; 509  : 	int nBongSize = sizeof(KB_p0602_OutRec2);
; 510  : 	int nBufSize = sizeof(KB_p0602_OutRec1_EX) + nBongSize * nCnt;

  00cf0	6b f6 4e	 imul	 esi, esi, 78
  00cf3	8a 41 04	 mov	 al, BYTE PTR [ecx+4]
  00cf6	8b 11		 mov	 edx, DWORD PTR [ecx]

; 511  : 	int	nPosBong = sizeof(KB_p0602_OutRec1_EX);
; 512  : 
; 513  : 	nDataLen = nBufSize;
; 514  : 
; 515  : 	CString strDate, strTime;

  00cf8	8d 8d c4 fc ff
	ff		 lea	 ecx, DWORD PTR _strDate$[ebp]
  00cfe	88 85 59 fd ff
	ff		 mov	 BYTE PTR _stOut$[ebp+109], al
  00d04	81 c6 62 02 00
	00		 add	 esi, 610		; 00000262H
  00d0a	8b 85 78 fc ff
	ff		 mov	 eax, DWORD PTR _nDataLen$GSCopy$1$[ebp]
  00d10	89 95 55 fd ff
	ff		 mov	 DWORD PTR _stOut$[ebp+105], edx
  00d16	89 30		 mov	 DWORD PTR [eax], esi
  00d18	ff 15 00 00 00
	00		 call	 DWORD PTR __imp_??0?$CStringT@DV?$StrTraitMFC_DLL@DV?$ChTraitsCRT@D@ATL@@@@@ATL@@QAE@XZ
  00d1e	8d 8d 74 fc ff
	ff		 lea	 ecx, DWORD PTR _strTime$[ebp]
  00d24	ff 15 00 00 00
	00		 call	 DWORD PTR __imp_??0?$CStringT@DV?$StrTraitMFC_DLL@DV?$ChTraitsCRT@D@ATL@@@@@ATL@@QAE@XZ

; 516  : 	char* pDataBuf = new char[nBufSize+1];

  00d2a	8d 46 01	 lea	 eax, DWORD PTR [esi+1]
  00d2d	c6 45 fc 31	 mov	 BYTE PTR __$EHRec$[ebp+8], 49 ; 00000031H
  00d31	50		 push	 eax
  00d32	e8 00 00 00 00	 call	 ??_U@YAPAXI@Z		; operator new[]
  00d37	83 c4 04	 add	 esp, 4
  00d3a	89 85 88 fc ff
	ff		 mov	 DWORD PTR _pDataBuf$1$[ebp], eax

; 517  : 	KB_p0602_OutRec2 stFirstBong, stBong;
; 518  : 
; 519  : 	CStringArray arrTest;

  00d40	8d 8d e0 fb ff
	ff		 lea	 ecx, DWORD PTR _arrTest$[ebp]
  00d46	e8 00 00 00 00	 call	 ??0CStringArray@@QAE@XZ	; CStringArray::CStringArray

; 520  : 	double dValue=0;
; 521  : 	int nIndex = 0;

  00d4b	33 f6		 xor	 esi, esi
  00d4d	c6 45 fc 32	 mov	 BYTE PTR __$EHRec$[ebp+8], 50 ; 00000032H

; 522  : 	int nEmptyIndex = 0;
; 523  : 	int nRow = 0;
; 524  : 	for ( nRow = 0; nRow < nCnt; nRow++)

  00d51	89 b5 3c fc ff
	ff		 mov	 DWORD PTR _nRow$1$[ebp], esi
  00d57	39 b5 d0 fc ff
	ff		 cmp	 DWORD PTR _nCnt$1$[ebp], esi
  00d5d	0f 8e 63 07 00
	00		 jle	 $LN658@Convert2St
$LL6@Convert2St:

; 525  : 	{
; 526  : 		memset(&stBong, 0x20, sizeof(stBong));

  00d63	6a 4e		 push	 78			; 0000004eH
  00d65	8d 45 a0	 lea	 eax, DWORD PTR _stBong$[ebp]
  00d68	6a 20		 push	 32			; 00000020H
  00d6a	50		 push	 eax
  00d6b	e8 00 00 00 00	 call	 _memset
  00d70	83 c4 0c	 add	 esp, 12			; 0000000cH
; File C:\Program Files (x86)\Microsoft Visual Studio\2019\Community\VC\Tools\MSVC\14.29.30133\atlmfc\include\afxcoll.inl

; 289  : 		if( nIndex < 0 || nIndex >= m_nSize )

  00d73	85 f6		 test	 esi, esi
  00d75	0f 88 58 12 00
	00		 js	 $LN413@Convert2St
  00d7b	3b b5 4c fc ff
	ff		 cmp	 esi, DWORD PTR _arrNode$[ebp+8]
  00d81	0f 8d 4c 12 00
	00		 jge	 $LN413@Convert2St

; 291  : 		return m_pData[nIndex]; }

  00d87	8b 85 48 fc ff
	ff		 mov	 eax, DWORD PTR _arrNode$[ebp+4]
; File D:\git\src\IBK\IBK_DRFN\ProjSrc\SrcDrfn\DrCommon\PartnerMng\ChartItemStock.cpp

; 529  : 		strDate = arrNode.GetAt(nIndex++);

  00d8d	8d 8d c4 fc ff
	ff		 lea	 ecx, DWORD PTR _strDate$[ebp]
; File C:\Program Files (x86)\Microsoft Visual Studio\2019\Community\VC\Tools\MSVC\14.29.30133\atlmfc\include\afxcoll.inl

; 291  : 		return m_pData[nIndex]; }

  00d93	8d 04 b0	 lea	 eax, DWORD PTR [eax+esi*4]
; File D:\git\src\IBK\IBK_DRFN\ProjSrc\SrcDrfn\DrCommon\PartnerMng\ChartItemStock.cpp

; 529  : 		strDate = arrNode.GetAt(nIndex++);

  00d96	50		 push	 eax
  00d97	ff 15 00 00 00
	00		 call	 DWORD PTR __imp_??4?$CStringT@DV?$StrTraitMFC_DLL@DV?$ChTraitsCRT@D@ATL@@@@@ATL@@QAEAAV01@ABV01@@Z

; 530  : 		int Price = atoi(strDate);

  00d9d	ff b5 c4 fc ff
	ff		 push	 DWORD PTR _strDate$[ebp]
  00da3	46		 inc	 esi
  00da4	89 b5 dc fc ff
	ff		 mov	 DWORD PTR _nIndex$1$[ebp], esi
  00daa	ff 15 00 00 00
	00		 call	 DWORD PTR __imp__atoi

; 531  : 		
; 532  : 		// time : ,, 
; 533  : 		if (nType < 2 || nType == 6) 

  00db0	8b 85 c0 fc ff
	ff		 mov	 eax, DWORD PTR _nType$1$[ebp]
  00db6	83 c4 04	 add	 esp, 4
  00db9	83 f8 02	 cmp	 eax, 2
  00dbc	7c 09		 jl	 SHORT $LN43@Convert2St
  00dbe	83 f8 06	 cmp	 eax, 6
  00dc1	0f 85 be 01 00
	00		 jne	 $LN657@Convert2St
$LN43@Convert2St:
; File C:\Program Files (x86)\Microsoft Visual Studio\2019\Community\VC\Tools\MSVC\14.29.30133\atlmfc\include\afxcoll.inl

; 289  : 		if( nIndex < 0 || nIndex >= m_nSize )

  00dc7	3b b5 4c fc ff
	ff		 cmp	 esi, DWORD PTR _arrNode$[ebp+8]
  00dcd	0f 8d 00 12 00
	00		 jge	 $LN413@Convert2St

; 291  : 		return m_pData[nIndex]; }

  00dd3	8b 85 48 fc ff
	ff		 mov	 eax, DWORD PTR _arrNode$[ebp+4]
; File D:\git\src\IBK\IBK_DRFN\ProjSrc\SrcDrfn\DrCommon\PartnerMng\ChartItemStock.cpp

; 534  : 			strTime = arrNode.GetAt(nIndex++); 

  00dd9	8d 8d 74 fc ff
	ff		 lea	 ecx, DWORD PTR _strTime$[ebp]
; File C:\Program Files (x86)\Microsoft Visual Studio\2019\Community\VC\Tools\MSVC\14.29.30133\atlmfc\include\afxcoll.inl

; 291  : 		return m_pData[nIndex]; }

  00ddf	8d 04 b0	 lea	 eax, DWORD PTR [eax+esi*4]
; File D:\git\src\IBK\IBK_DRFN\ProjSrc\SrcDrfn\DrCommon\PartnerMng\ChartItemStock.cpp

; 534  : 			strTime = arrNode.GetAt(nIndex++); 

  00de2	50		 push	 eax
  00de3	ff 15 00 00 00
	00		 call	 DWORD PTR __imp_??4?$CStringT@DV?$StrTraitMFC_DLL@DV?$ChTraitsCRT@D@ATL@@@@@ATL@@QAEAAV01@ABV01@@Z
  00de9	46		 inc	 esi

; 535  : 		
; 536  : 		if (nType == 0) // DDHHMMSS

  00dea	83 bd c0 fc ff
	ff 00		 cmp	 DWORD PTR _nType$1$[ebp], 0
  00df1	8b c6		 mov	 eax, esi
  00df3	89 b5 dc fc ff
	ff		 mov	 DWORD PTR _nIndex$1$[ebp], esi
  00df9	89 85 08 fc ff
	ff		 mov	 DWORD PTR tv3466[ebp], eax
  00dff	0f 85 9c 00 00
	00		 jne	 $LN44@Convert2St

; 537  : 			strNode = strDate.Right(2) + strTime;

  00e05	6a 02		 push	 2
  00e07	8d 85 f8 fb ff
	ff		 lea	 eax, DWORD PTR $T2[ebp]
  00e0d	50		 push	 eax
  00e0e	8d 8d c4 fc ff
	ff		 lea	 ecx, DWORD PTR _strDate$[ebp]
  00e14	ff 15 00 00 00
	00		 call	 DWORD PTR __imp_?Right@?$CStringT@DV?$StrTraitMFC_DLL@DV?$ChTraitsCRT@D@ATL@@@@@ATL@@QBE?AV12@H@Z
  00e1a	8b f0		 mov	 esi, eax
; File C:\Program Files (x86)\Microsoft Visual Studio\2019\Community\VC\Tools\MSVC\14.29.30133\atlmfc\include\cstringt.h

; 2390 : 		CStringT strResult( str1.GetManager() );

  00e1c	8b ce		 mov	 ecx, esi
; File D:\git\src\IBK\IBK_DRFN\ProjSrc\SrcDrfn\DrCommon\PartnerMng\ChartItemStock.cpp

; 537  : 			strNode = strDate.Right(2) + strTime;

  00e1e	c6 45 fc 34	 mov	 BYTE PTR __$EHRec$[ebp+8], 52 ; 00000034H
; File C:\Program Files (x86)\Microsoft Visual Studio\2019\Community\VC\Tools\MSVC\14.29.30133\atlmfc\include\cstringt.h

; 2390 : 		CStringT strResult( str1.GetManager() );

  00e22	ff 15 00 00 00
	00		 call	 DWORD PTR __imp_?GetManager@?$CStringT@DV?$StrTraitMFC_DLL@DV?$ChTraitsCRT@D@ATL@@@@@ATL@@QBEPAUIAtlStringMgr@2@XZ
  00e28	50		 push	 eax
  00e29	8d 8d 1c fc ff
	ff		 lea	 ecx, DWORD PTR $T6[ebp]
  00e2f	ff 15 00 00 00
	00		 call	 DWORD PTR __imp_??0?$CStringT@DV?$StrTraitMFC_DLL@DV?$ChTraitsCRT@D@ATL@@@@@ATL@@QAE@PAUIAtlStringMgr@1@@Z
; File C:\Program Files (x86)\Microsoft Visual Studio\2019\Community\VC\Tools\MSVC\14.29.30133\atlmfc\include\atlsimpstr.h

; 519  : 		return( GetData()->nDataLength );

  00e35	8b 85 74 fc ff
	ff		 mov	 eax, DWORD PTR _strTime$[ebp]
; File C:\Program Files (x86)\Microsoft Visual Studio\2019\Community\VC\Tools\MSVC\14.29.30133\atlmfc\include\cstringt.h

; 2394 : 		return( strResult );

  00e3b	83 cf 01	 or	 edi, 1
; File C:\Program Files (x86)\Microsoft Visual Studio\2019\Community\VC\Tools\MSVC\14.29.30133\atlmfc\include\atlsimpstr.h

; 519  : 		return( GetData()->nDataLength );

  00e3e	8b 0e		 mov	 ecx, DWORD PTR [esi]
; File C:\Program Files (x86)\Microsoft Visual Studio\2019\Community\VC\Tools\MSVC\14.29.30133\atlmfc\include\cstringt.h

; 2394 : 		return( strResult );

  00e40	89 bd 20 fc ff
	ff		 mov	 DWORD PTR $T7[ebp], edi
  00e46	ff 70 f4	 push	 DWORD PTR [eax-12]
  00e49	50		 push	 eax
  00e4a	ff 71 f4	 push	 DWORD PTR [ecx-12]
  00e4d	8d 85 1c fc ff
	ff		 lea	 eax, DWORD PTR $T6[ebp]
  00e53	51		 push	 ecx
  00e54	50		 push	 eax
  00e55	ff 15 00 00 00
	00		 call	 DWORD PTR __imp_?Concatenate@?$CSimpleStringT@D$00@ATL@@KAXAAV12@PBDH1H@Z
  00e5b	83 c4 14	 add	 esp, 20			; 00000014H
; File D:\git\src\IBK\IBK_DRFN\ProjSrc\SrcDrfn\DrCommon\PartnerMng\ChartItemStock.cpp

; 537  : 			strNode = strDate.Right(2) + strTime;

  00e5e	8d 85 1c fc ff
	ff		 lea	 eax, DWORD PTR $T6[ebp]
  00e64	8d 8d e8 fc ff
	ff		 lea	 ecx, DWORD PTR _strNode$[ebp]
  00e6a	50		 push	 eax
  00e6b	ff 15 00 00 00
	00		 call	 DWORD PTR __imp_??4?$CStringT@DV?$StrTraitMFC_DLL@DV?$ChTraitsCRT@D@ATL@@@@@ATL@@QAEAAV01@ABV01@@Z
  00e71	83 e7 fe	 and	 edi, -2			; fffffffeH
  00e74	8d 8d 1c fc ff
	ff		 lea	 ecx, DWORD PTR $T6[ebp]
  00e7a	89 bd c8 fc ff
	ff		 mov	 DWORD PTR $T21[ebp], edi
  00e80	ff 15 00 00 00
	00		 call	 DWORD PTR __imp_??1?$CStringT@DV?$StrTraitMFC_DLL@DV?$ChTraitsCRT@D@ATL@@@@@ATL@@QAE@XZ
  00e86	8d 8d f8 fb ff
	ff		 lea	 ecx, DWORD PTR $T2[ebp]
  00e8c	c6 45 fc 32	 mov	 BYTE PTR __$EHRec$[ebp+8], 50 ; 00000032H
  00e90	ff 15 00 00 00
	00		 call	 DWORD PTR __imp_??1?$CStringT@DV?$StrTraitMFC_DLL@DV?$ChTraitsCRT@D@ATL@@@@@ATL@@QAE@XZ
  00e96	8b bd c0 fc ff
	ff		 mov	 edi, DWORD PTR _nType$1$[ebp]
  00e9c	e9 9a 02 00 00	 jmp	 $LN662@Convert2St
$LN44@Convert2St:

; 538  : 		else if (nType == 1) //MMDDHHMM

  00ea1	8b bd c0 fc ff
	ff		 mov	 edi, DWORD PTR _nType$1$[ebp]
  00ea7	89 85 dc fc ff
	ff		 mov	 DWORD PTR _nIndex$1$[ebp], eax
  00ead	83 ff 01	 cmp	 edi, 1
  00eb0	0f 85 d5 00 00
	00		 jne	 $LN46@Convert2St

; 539  : 			strNode = strDate.Right(4) + strTime.Left(4);

  00eb6	6a 04		 push	 4
  00eb8	8d 85 0c fc ff
	ff		 lea	 eax, DWORD PTR $T4[ebp]
  00ebe	50		 push	 eax
  00ebf	8d 8d 74 fc ff
	ff		 lea	 ecx, DWORD PTR _strTime$[ebp]
  00ec5	ff 15 00 00 00
	00		 call	 DWORD PTR __imp_?Left@?$CStringT@DV?$StrTraitMFC_DLL@DV?$ChTraitsCRT@D@ATL@@@@@ATL@@QBE?AV12@H@Z
  00ecb	8b f8		 mov	 edi, eax
  00ecd	6a 04		 push	 4
  00ecf	8d 85 10 fc ff
	ff		 lea	 eax, DWORD PTR $T5[ebp]
  00ed5	c6 45 fc 35	 mov	 BYTE PTR __$EHRec$[ebp+8], 53 ; 00000035H
  00ed9	50		 push	 eax
  00eda	8d 8d c4 fc ff
	ff		 lea	 ecx, DWORD PTR _strDate$[ebp]
  00ee0	ff 15 00 00 00
	00		 call	 DWORD PTR __imp_?Right@?$CStringT@DV?$StrTraitMFC_DLL@DV?$ChTraitsCRT@D@ATL@@@@@ATL@@QBE?AV12@H@Z
  00ee6	8b f0		 mov	 esi, eax
; File C:\Program Files (x86)\Microsoft Visual Studio\2019\Community\VC\Tools\MSVC\14.29.30133\atlmfc\include\cstringt.h

; 2390 : 		CStringT strResult( str1.GetManager() );

  00ee8	8b ce		 mov	 ecx, esi
; File D:\git\src\IBK\IBK_DRFN\ProjSrc\SrcDrfn\DrCommon\PartnerMng\ChartItemStock.cpp

; 539  : 			strNode = strDate.Right(4) + strTime.Left(4);

  00eea	c6 45 fc 37	 mov	 BYTE PTR __$EHRec$[ebp+8], 55 ; 00000037H
; File C:\Program Files (x86)\Microsoft Visual Studio\2019\Community\VC\Tools\MSVC\14.29.30133\atlmfc\include\cstringt.h

; 2390 : 		CStringT strResult( str1.GetManager() );

  00eee	ff 15 00 00 00
	00		 call	 DWORD PTR __imp_?GetManager@?$CStringT@DV?$StrTraitMFC_DLL@DV?$ChTraitsCRT@D@ATL@@@@@ATL@@QBEPAUIAtlStringMgr@2@XZ
  00ef4	50		 push	 eax
  00ef5	8d 8d 78 fc ff
	ff		 lea	 ecx, DWORD PTR $T12[ebp]
  00efb	ff 15 00 00 00
	00		 call	 DWORD PTR __imp_??0?$CStringT@DV?$StrTraitMFC_DLL@DV?$ChTraitsCRT@D@ATL@@@@@ATL@@QAE@PAUIAtlStringMgr@1@@Z

; 2394 : 		return( strResult );

  00f01	8b 85 c8 fc ff
	ff		 mov	 eax, DWORD PTR $T21[ebp]
; File C:\Program Files (x86)\Microsoft Visual Studio\2019\Community\VC\Tools\MSVC\14.29.30133\atlmfc\include\atlsimpstr.h

; 519  : 		return( GetData()->nDataLength );

  00f07	8b 0e		 mov	 ecx, DWORD PTR [esi]
; File C:\Program Files (x86)\Microsoft Visual Studio\2019\Community\VC\Tools\MSVC\14.29.30133\atlmfc\include\cstringt.h

; 2394 : 		return( strResult );

  00f09	83 c8 02	 or	 eax, 2
  00f0c	89 85 c8 fc ff
	ff		 mov	 DWORD PTR $T21[ebp], eax
  00f12	89 85 20 fc ff
	ff		 mov	 DWORD PTR $T7[ebp], eax
; File C:\Program Files (x86)\Microsoft Visual Studio\2019\Community\VC\Tools\MSVC\14.29.30133\atlmfc\include\atlsimpstr.h

; 519  : 		return( GetData()->nDataLength );

  00f18	8b 07		 mov	 eax, DWORD PTR [edi]
; File C:\Program Files (x86)\Microsoft Visual Studio\2019\Community\VC\Tools\MSVC\14.29.30133\atlmfc\include\cstringt.h

; 2392 : 		CThisSimpleString::Concatenate( strResult, str1, str1.GetLength(), str2, str2.GetLength() );

  00f1a	ff 70 f4	 push	 DWORD PTR [eax-12]
  00f1d	50		 push	 eax
  00f1e	ff 71 f4	 push	 DWORD PTR [ecx-12]
  00f21	8d 85 78 fc ff
	ff		 lea	 eax, DWORD PTR $T12[ebp]
  00f27	51		 push	 ecx
  00f28	50		 push	 eax
  00f29	ff 15 00 00 00
	00		 call	 DWORD PTR __imp_?Concatenate@?$CSimpleStringT@D$00@ATL@@KAXAAV12@PBDH1H@Z
  00f2f	83 c4 14	 add	 esp, 20			; 00000014H
; File D:\git\src\IBK\IBK_DRFN\ProjSrc\SrcDrfn\DrCommon\PartnerMng\ChartItemStock.cpp

; 539  : 			strNode = strDate.Right(4) + strTime.Left(4);

  00f32	8d 85 78 fc ff
	ff		 lea	 eax, DWORD PTR $T12[ebp]
  00f38	8d 8d e8 fc ff
	ff		 lea	 ecx, DWORD PTR _strNode$[ebp]
  00f3e	50		 push	 eax
  00f3f	ff 15 00 00 00
	00		 call	 DWORD PTR __imp_??4?$CStringT@DV?$StrTraitMFC_DLL@DV?$ChTraitsCRT@D@ATL@@@@@ATL@@QAEAAV01@ABV01@@Z
  00f45	83 a5 c8 fc ff
	ff fd		 and	 DWORD PTR $T21[ebp], -3	; fffffffdH
  00f4c	8d 8d 78 fc ff
	ff		 lea	 ecx, DWORD PTR $T12[ebp]
  00f52	ff 15 00 00 00
	00		 call	 DWORD PTR __imp_??1?$CStringT@DV?$StrTraitMFC_DLL@DV?$ChTraitsCRT@D@ATL@@@@@ATL@@QAE@XZ
  00f58	8d 8d 10 fc ff
	ff		 lea	 ecx, DWORD PTR $T5[ebp]
  00f5e	ff 15 00 00 00
	00		 call	 DWORD PTR __imp_??1?$CStringT@DV?$StrTraitMFC_DLL@DV?$ChTraitsCRT@D@ATL@@@@@ATL@@QAE@XZ
  00f64	8d 8d 0c fc ff
	ff		 lea	 ecx, DWORD PTR $T4[ebp]
  00f6a	c6 45 fc 32	 mov	 BYTE PTR __$EHRec$[ebp+8], 50 ; 00000032H
  00f6e	ff 15 00 00 00
	00		 call	 DWORD PTR __imp_??1?$CStringT@DV?$StrTraitMFC_DLL@DV?$ChTraitsCRT@D@ATL@@@@@ATL@@QAE@XZ
  00f74	8b b5 08 fc ff
	ff		 mov	 esi, DWORD PTR tv3466[ebp]
  00f7a	8b bd c0 fc ff
	ff		 mov	 edi, DWORD PTR _nType$1$[ebp]
  00f80	e9 bc 01 00 00	 jmp	 $LN53@Convert2St
$LN657@Convert2St:

; 531  : 		
; 532  : 		// time : ,, 
; 533  : 		if (nType < 2 || nType == 6) 

  00f85	8b bd c0 fc ff
	ff		 mov	 edi, DWORD PTR _nType$1$[ebp]
$LN46@Convert2St:

; 540  : 		else if (nType == 4) //YYYYMM

  00f8b	83 ff 04	 cmp	 edi, 4
  00f8e	75 3b		 jne	 SHORT $LN48@Convert2St

; 541  : 			strNode = strDate.Left(6);

  00f90	6a 06		 push	 6
  00f92	8d 85 fc fb ff
	ff		 lea	 eax, DWORD PTR $T3[ebp]
  00f98	50		 push	 eax
  00f99	8d 8d c4 fc ff
	ff		 lea	 ecx, DWORD PTR _strDate$[ebp]
  00f9f	ff 15 00 00 00
	00		 call	 DWORD PTR __imp_?Left@?$CStringT@DV?$StrTraitMFC_DLL@DV?$ChTraitsCRT@D@ATL@@@@@ATL@@QBE?AV12@H@Z
  00fa5	50		 push	 eax
  00fa6	8d 8d e8 fc ff
	ff		 lea	 ecx, DWORD PTR _strNode$[ebp]
  00fac	c6 45 fc 38	 mov	 BYTE PTR __$EHRec$[ebp+8], 56 ; 00000038H
  00fb0	ff 15 00 00 00
	00		 call	 DWORD PTR __imp_??4?$CStringT@DV?$StrTraitMFC_DLL@DV?$ChTraitsCRT@D@ATL@@@@@ATL@@QAEAAV01@ABV01@@Z
  00fb6	8d 8d fc fb ff
	ff		 lea	 ecx, DWORD PTR $T3[ebp]
  00fbc	c6 45 fc 32	 mov	 BYTE PTR __$EHRec$[ebp+8], 50 ; 00000032H
  00fc0	ff 15 00 00 00
	00		 call	 DWORD PTR __imp_??1?$CStringT@DV?$StrTraitMFC_DLL@DV?$ChTraitsCRT@D@ATL@@@@@ATL@@QAE@XZ
  00fc6	e9 70 01 00 00	 jmp	 $LN662@Convert2St
$LN48@Convert2St:

; 542  : 		else if (nType == 6) //DDHHMMSS

  00fcb	83 ff 06	 cmp	 edi, 6
  00fce	0f 85 c8 00 00
	00		 jne	 $LN50@Convert2St

; 543  : 			strNode = strDate.Right(2) + strTime.Left(6);

  00fd4	57		 push	 edi
  00fd5	8d 85 7c fc ff
	ff		 lea	 eax, DWORD PTR $T15[ebp]
  00fdb	50		 push	 eax
  00fdc	8d 8d 74 fc ff
	ff		 lea	 ecx, DWORD PTR _strTime$[ebp]
  00fe2	ff 15 00 00 00
	00		 call	 DWORD PTR __imp_?Left@?$CStringT@DV?$StrTraitMFC_DLL@DV?$ChTraitsCRT@D@ATL@@@@@ATL@@QBE?AV12@H@Z
  00fe8	8b f8		 mov	 edi, eax
  00fea	6a 02		 push	 2
  00fec	8d 85 b4 fc ff
	ff		 lea	 eax, DWORD PTR $T20[ebp]
  00ff2	c6 45 fc 39	 mov	 BYTE PTR __$EHRec$[ebp+8], 57 ; 00000039H
  00ff6	50		 push	 eax
  00ff7	8d 8d c4 fc ff
	ff		 lea	 ecx, DWORD PTR _strDate$[ebp]
  00ffd	ff 15 00 00 00
	00		 call	 DWORD PTR __imp_?Right@?$CStringT@DV?$StrTraitMFC_DLL@DV?$ChTraitsCRT@D@ATL@@@@@ATL@@QBE?AV12@H@Z
  01003	8b f0		 mov	 esi, eax
; File C:\Program Files (x86)\Microsoft Visual Studio\2019\Community\VC\Tools\MSVC\14.29.30133\atlmfc\include\cstringt.h

; 2390 : 		CStringT strResult( str1.GetManager() );

  01005	8b ce		 mov	 ecx, esi
; File D:\git\src\IBK\IBK_DRFN\ProjSrc\SrcDrfn\DrCommon\PartnerMng\ChartItemStock.cpp

; 543  : 			strNode = strDate.Right(2) + strTime.Left(6);

  01007	c6 45 fc 3b	 mov	 BYTE PTR __$EHRec$[ebp+8], 59 ; 0000003bH
; File C:\Program Files (x86)\Microsoft Visual Studio\2019\Community\VC\Tools\MSVC\14.29.30133\atlmfc\include\cstringt.h

; 2390 : 		CStringT strResult( str1.GetManager() );

  0100b	ff 15 00 00 00
	00		 call	 DWORD PTR __imp_?GetManager@?$CStringT@DV?$StrTraitMFC_DLL@DV?$ChTraitsCRT@D@ATL@@@@@ATL@@QBEPAUIAtlStringMgr@2@XZ
  01011	50		 push	 eax
  01012	8d 8d e4 fc ff
	ff		 lea	 ecx, DWORD PTR $T32[ebp]
  01018	ff 15 00 00 00
	00		 call	 DWORD PTR __imp_??0?$CStringT@DV?$StrTraitMFC_DLL@DV?$ChTraitsCRT@D@ATL@@@@@ATL@@QAE@PAUIAtlStringMgr@1@@Z

; 2394 : 		return( strResult );

  0101e	8b 85 c8 fc ff
	ff		 mov	 eax, DWORD PTR $T21[ebp]
; File C:\Program Files (x86)\Microsoft Visual Studio\2019\Community\VC\Tools\MSVC\14.29.30133\atlmfc\include\atlsimpstr.h

; 519  : 		return( GetData()->nDataLength );

  01024	8b 0e		 mov	 ecx, DWORD PTR [esi]
; File C:\Program Files (x86)\Microsoft Visual Studio\2019\Community\VC\Tools\MSVC\14.29.30133\atlmfc\include\cstringt.h

; 2394 : 		return( strResult );

  01026	83 c8 04	 or	 eax, 4
  01029	89 85 c8 fc ff
	ff		 mov	 DWORD PTR $T21[ebp], eax
  0102f	89 85 20 fc ff
	ff		 mov	 DWORD PTR $T7[ebp], eax
; File C:\Program Files (x86)\Microsoft Visual Studio\2019\Community\VC\Tools\MSVC\14.29.30133\atlmfc\include\atlsimpstr.h

; 519  : 		return( GetData()->nDataLength );

  01035	8b 07		 mov	 eax, DWORD PTR [edi]
; File C:\Program Files (x86)\Microsoft Visual Studio\2019\Community\VC\Tools\MSVC\14.29.30133\atlmfc\include\cstringt.h

; 2392 : 		CThisSimpleString::Concatenate( strResult, str1, str1.GetLength(), str2, str2.GetLength() );

  01037	ff 70 f4	 push	 DWORD PTR [eax-12]
  0103a	50		 push	 eax
  0103b	ff 71 f4	 push	 DWORD PTR [ecx-12]
  0103e	8d 85 e4 fc ff
	ff		 lea	 eax, DWORD PTR $T32[ebp]
  01044	51		 push	 ecx
  01045	50		 push	 eax
  01046	ff 15 00 00 00
	00		 call	 DWORD PTR __imp_?Concatenate@?$CSimpleStringT@D$00@ATL@@KAXAAV12@PBDH1H@Z
  0104c	83 c4 14	 add	 esp, 20			; 00000014H
; File D:\git\src\IBK\IBK_DRFN\ProjSrc\SrcDrfn\DrCommon\PartnerMng\ChartItemStock.cpp

; 543  : 			strNode = strDate.Right(2) + strTime.Left(6);

  0104f	8d 85 e4 fc ff
	ff		 lea	 eax, DWORD PTR $T32[ebp]
  01055	8d 8d e8 fc ff
	ff		 lea	 ecx, DWORD PTR _strNode$[ebp]
  0105b	50		 push	 eax
  0105c	ff 15 00 00 00
	00		 call	 DWORD PTR __imp_??4?$CStringT@DV?$StrTraitMFC_DLL@DV?$ChTraitsCRT@D@ATL@@@@@ATL@@QAEAAV01@ABV01@@Z
  01062	83 a5 c8 fc ff
	ff fb		 and	 DWORD PTR $T21[ebp], -5	; fffffffbH
  01069	8d 8d e4 fc ff
	ff		 lea	 ecx, DWORD PTR $T32[ebp]
  0106f	ff 15 00 00 00
	00		 call	 DWORD PTR __imp_??1?$CStringT@DV?$StrTraitMFC_DLL@DV?$ChTraitsCRT@D@ATL@@@@@ATL@@QAE@XZ
  01075	8d 8d b4 fc ff
	ff		 lea	 ecx, DWORD PTR $T20[ebp]
  0107b	ff 15 00 00 00
	00		 call	 DWORD PTR __imp_??1?$CStringT@DV?$StrTraitMFC_DLL@DV?$ChTraitsCRT@D@ATL@@@@@ATL@@QAE@XZ
  01081	8d 8d 7c fc ff
	ff		 lea	 ecx, DWORD PTR $T15[ebp]
  01087	c6 45 fc 32	 mov	 BYTE PTR __$EHRec$[ebp+8], 50 ; 00000032H
  0108b	ff 15 00 00 00
	00		 call	 DWORD PTR __imp_??1?$CStringT@DV?$StrTraitMFC_DLL@DV?$ChTraitsCRT@D@ATL@@@@@ATL@@QAE@XZ
  01091	8b bd c0 fc ff
	ff		 mov	 edi, DWORD PTR _nType$1$[ebp]
  01097	e9 9f 00 00 00	 jmp	 $LN662@Convert2St
$LN50@Convert2St:

; 544  : 		else if (nType == 5) // .

  0109c	83 ff 05	 cmp	 edi, 5
  0109f	0f 85 83 00 00
	00		 jne	 $LN52@Convert2St

; 545  : 		{
; 546  : 			if (nRow != nCnt-1)

  010a5	8b 85 d0 fc ff
	ff		 mov	 eax, DWORD PTR _nCnt$1$[ebp]
  010ab	8d 8d c4 fc ff
	ff		 lea	 ecx, DWORD PTR _strDate$[ebp]
  010b1	48		 dec	 eax
  010b2	39 85 3c fc ff
	ff		 cmp	 DWORD PTR _nRow$1$[ebp], eax
  010b8	74 3c		 je	 SHORT $LN54@Convert2St

; 547  : 				strNode.Format(_T("%s12"), strDate.Left(4));

  010ba	6a 04		 push	 4
  010bc	8d 85 64 fc ff
	ff		 lea	 eax, DWORD PTR $T11[ebp]
  010c2	50		 push	 eax
  010c3	ff 15 00 00 00
	00		 call	 DWORD PTR __imp_?Left@?$CStringT@DV?$StrTraitMFC_DLL@DV?$ChTraitsCRT@D@ATL@@@@@ATL@@QBE?AV12@H@Z
  010c9	ff 30		 push	 DWORD PTR [eax]
  010cb	8d 85 e8 fc ff
	ff		 lea	 eax, DWORD PTR _strNode$[ebp]
  010d1	c6 45 fc 3c	 mov	 BYTE PTR __$EHRec$[ebp+8], 60 ; 0000003cH
  010d5	68 00 00 00 00	 push	 OFFSET ??_C@_04IBKPHMDC@?$CFs12@
  010da	50		 push	 eax
  010db	ff 15 00 00 00
	00		 call	 DWORD PTR __imp_?Format@?$CStringT@DV?$StrTraitMFC_DLL@DV?$ChTraitsCRT@D@ATL@@@@@ATL@@QAAXPBDZZ
  010e1	83 c4 0c	 add	 esp, 12			; 0000000cH
  010e4	c6 45 fc 32	 mov	 BYTE PTR __$EHRec$[ebp+8], 50 ; 00000032H
  010e8	8d 8d 64 fc ff
	ff		 lea	 ecx, DWORD PTR $T11[ebp]
  010ee	ff 15 00 00 00
	00		 call	 DWORD PTR __imp_??1?$CStringT@DV?$StrTraitMFC_DLL@DV?$ChTraitsCRT@D@ATL@@@@@ATL@@QAE@XZ
  010f4	eb 45		 jmp	 SHORT $LN662@Convert2St
$LN54@Convert2St:

; 548  : 			else
; 549  : 				strNode = strDate.Left(6);

  010f6	6a 06		 push	 6
  010f8	8d 85 94 fc ff
	ff		 lea	 eax, DWORD PTR $T19[ebp]
  010fe	50		 push	 eax
  010ff	ff 15 00 00 00
	00		 call	 DWORD PTR __imp_?Left@?$CStringT@DV?$StrTraitMFC_DLL@DV?$ChTraitsCRT@D@ATL@@@@@ATL@@QBE?AV12@H@Z
  01105	50		 push	 eax
  01106	8d 8d e8 fc ff
	ff		 lea	 ecx, DWORD PTR _strNode$[ebp]
  0110c	c6 45 fc 3d	 mov	 BYTE PTR __$EHRec$[ebp+8], 61 ; 0000003dH
  01110	ff 15 00 00 00
	00		 call	 DWORD PTR __imp_??4?$CStringT@DV?$StrTraitMFC_DLL@DV?$ChTraitsCRT@D@ATL@@@@@ATL@@QAEAAV01@ABV01@@Z
  01116	8d 8d 94 fc ff
	ff		 lea	 ecx, DWORD PTR $T19[ebp]
  0111c	c6 45 fc 32	 mov	 BYTE PTR __$EHRec$[ebp+8], 50 ; 00000032H
  01120	ff 15 00 00 00
	00		 call	 DWORD PTR __imp_??1?$CStringT@DV?$StrTraitMFC_DLL@DV?$ChTraitsCRT@D@ATL@@@@@ATL@@QAE@XZ

; 550  : 		}

  01126	eb 13		 jmp	 SHORT $LN662@Convert2St
$LN52@Convert2St:

; 551  : 		else
; 552  : 			strNode = strDate;

  01128	8d 85 c4 fc ff
	ff		 lea	 eax, DWORD PTR _strDate$[ebp]
  0112e	50		 push	 eax
  0112f	8d 8d e8 fc ff
	ff		 lea	 ecx, DWORD PTR _strNode$[ebp]
  01135	ff 15 00 00 00
	00		 call	 DWORD PTR __imp_??4?$CStringT@DV?$StrTraitMFC_DLL@DV?$ChTraitsCRT@D@ATL@@@@@ATL@@QAEAAV01@ABV01@@Z
$LN662@Convert2St:
; File C:\Program Files (x86)\Microsoft Visual Studio\2019\Community\VC\Tools\MSVC\14.29.30133\atlmfc\include\atlsimpstr.h

; 519  : 		return( GetData()->nDataLength );

  0113b	8b b5 dc fc ff
	ff		 mov	 esi, DWORD PTR _nIndex$1$[ebp]
$LN53@Convert2St:
  01141	8b 85 e8 fc ff
	ff		 mov	 eax, DWORD PTR _strNode$[ebp]
; File D:\git\src\IBK\IBK_DRFN\ProjSrc\SrcDrfn\DrCommon\PartnerMng\ChartItemStock.cpp

; 554  : 		memcpy(stBong.date, strNode, min(sizeof(stBong.date), strNode.GetLength()));

  01147	ba 08 00 00 00	 mov	 edx, 8
; File C:\Program Files (x86)\Microsoft Visual Studio\2019\Community\VC\Tools\MSVC\14.29.30133\atlmfc\include\atlsimpstr.h

; 519  : 		return( GetData()->nDataLength );

  0114c	8b 48 f4	 mov	 ecx, DWORD PTR [eax-12]
; File D:\git\src\IBK\IBK_DRFN\ProjSrc\SrcDrfn\DrCommon\PartnerMng\ChartItemStock.cpp

; 554  : 		memcpy(stBong.date, strNode, min(sizeof(stBong.date), strNode.GetLength()));

  0114f	83 f9 08	 cmp	 ecx, 8
  01152	0f 47 ca	 cmova	 ecx, edx
  01155	51		 push	 ecx
  01156	50		 push	 eax
  01157	8d 45 a0	 lea	 eax, DWORD PTR _stBong$[ebp]
  0115a	50		 push	 eax
  0115b	e8 00 00 00 00	 call	 _memcpy
  01160	83 c4 0c	 add	 esp, 12			; 0000000cH
; File C:\Program Files (x86)\Microsoft Visual Studio\2019\Community\VC\Tools\MSVC\14.29.30133\atlmfc\include\afxcoll.inl

; 289  : 		if( nIndex < 0 || nIndex >= m_nSize )

  01163	85 f6		 test	 esi, esi
  01165	0f 88 68 0e 00
	00		 js	 $LN413@Convert2St
  0116b	3b b5 4c fc ff
	ff		 cmp	 esi, DWORD PTR _arrNode$[ebp+8]
  01171	0f 8d 5c 0e 00
	00		 jge	 $LN413@Convert2St

; 291  : 		return m_pData[nIndex]; }

  01177	8b 85 48 fc ff
	ff		 mov	 eax, DWORD PTR _arrNode$[ebp+4]
; File D:\git\src\IBK\IBK_DRFN\ProjSrc\SrcDrfn\DrCommon\PartnerMng\ChartItemStock.cpp

; 557  : 		strNode = arrNode.GetAt(nIndex++);

  0117d	8d 8d e8 fc ff
	ff		 lea	 ecx, DWORD PTR _strNode$[ebp]
; File C:\Program Files (x86)\Microsoft Visual Studio\2019\Community\VC\Tools\MSVC\14.29.30133\atlmfc\include\afxcoll.inl

; 291  : 		return m_pData[nIndex]; }

  01183	8d 04 b0	 lea	 eax, DWORD PTR [eax+esi*4]
; File D:\git\src\IBK\IBK_DRFN\ProjSrc\SrcDrfn\DrCommon\PartnerMng\ChartItemStock.cpp

; 557  : 		strNode = arrNode.GetAt(nIndex++);

  01186	50		 push	 eax
  01187	ff 15 00 00 00
	00		 call	 DWORD PTR __imp_??4?$CStringT@DV?$StrTraitMFC_DLL@DV?$ChTraitsCRT@D@ATL@@@@@ATL@@QAEAAV01@ABV01@@Z
; File C:\Program Files (x86)\Microsoft Visual Studio\2019\Community\VC\Tools\MSVC\14.29.30133\atlmfc\include\atlsimpstr.h

; 519  : 		return( GetData()->nDataLength );

  0118d	8b 85 e8 fc ff
	ff		 mov	 eax, DWORD PTR _strNode$[ebp]
; File D:\git\src\IBK\IBK_DRFN\ProjSrc\SrcDrfn\DrCommon\PartnerMng\ChartItemStock.cpp

; 557  : 		strNode = arrNode.GetAt(nIndex++);

  01193	46		 inc	 esi

; 559  : 		memcpy(stBong.close, strNode, min(sizeof(stBong.close), strNode.GetLength()));

  01194	ba 0a 00 00 00	 mov	 edx, 10			; 0000000aH
; File C:\Program Files (x86)\Microsoft Visual Studio\2019\Community\VC\Tools\MSVC\14.29.30133\atlmfc\include\atlsimpstr.h

; 519  : 		return( GetData()->nDataLength );

  01199	8b 48 f4	 mov	 ecx, DWORD PTR [eax-12]
; File D:\git\src\IBK\IBK_DRFN\ProjSrc\SrcDrfn\DrCommon\PartnerMng\ChartItemStock.cpp

; 559  : 		memcpy(stBong.close, strNode, min(sizeof(stBong.close), strNode.GetLength()));

  0119c	83 f9 0a	 cmp	 ecx, 10			; 0000000aH
  0119f	0f 47 ca	 cmova	 ecx, edx
  011a2	51		 push	 ecx
  011a3	50		 push	 eax
  011a4	8d 45 c6	 lea	 eax, DWORD PTR _stBong$[ebp+38]
  011a7	50		 push	 eax
  011a8	e8 00 00 00 00	 call	 _memcpy
  011ad	83 c4 0c	 add	 esp, 12			; 0000000cH
; File C:\Program Files (x86)\Microsoft Visual Studio\2019\Community\VC\Tools\MSVC\14.29.30133\atlmfc\include\afxcoll.inl

; 289  : 		if( nIndex < 0 || nIndex >= m_nSize )

  011b0	3b b5 4c fc ff
	ff		 cmp	 esi, DWORD PTR _arrNode$[ebp+8]
  011b6	0f 8d 17 0e 00
	00		 jge	 $LN413@Convert2St

; 291  : 		return m_pData[nIndex]; }

  011bc	8b 85 48 fc ff
	ff		 mov	 eax, DWORD PTR _arrNode$[ebp+4]
; File D:\git\src\IBK\IBK_DRFN\ProjSrc\SrcDrfn\DrCommon\PartnerMng\ChartItemStock.cpp

; 561  : 		strNode = arrNode.GetAt(nIndex++);

  011c2	8d 8d e8 fc ff
	ff		 lea	 ecx, DWORD PTR _strNode$[ebp]
; File C:\Program Files (x86)\Microsoft Visual Studio\2019\Community\VC\Tools\MSVC\14.29.30133\atlmfc\include\afxcoll.inl

; 291  : 		return m_pData[nIndex]; }

  011c8	8d 04 b0	 lea	 eax, DWORD PTR [eax+esi*4]
; File D:\git\src\IBK\IBK_DRFN\ProjSrc\SrcDrfn\DrCommon\PartnerMng\ChartItemStock.cpp

; 561  : 		strNode = arrNode.GetAt(nIndex++);

  011cb	50		 push	 eax
  011cc	ff 15 00 00 00
	00		 call	 DWORD PTR __imp_??4?$CStringT@DV?$StrTraitMFC_DLL@DV?$ChTraitsCRT@D@ATL@@@@@ATL@@QAEAAV01@ABV01@@Z
; File C:\Program Files (x86)\Microsoft Visual Studio\2019\Community\VC\Tools\MSVC\14.29.30133\atlmfc\include\atlsimpstr.h

; 519  : 		return( GetData()->nDataLength );

  011d2	8b 85 e8 fc ff
	ff		 mov	 eax, DWORD PTR _strNode$[ebp]
; File D:\git\src\IBK\IBK_DRFN\ProjSrc\SrcDrfn\DrCommon\PartnerMng\ChartItemStock.cpp

; 562  : 		memcpy(stBong.open, strNode, min(sizeof(stBong.open), strNode.GetLength()));

  011d8	ba 0a 00 00 00	 mov	 edx, 10			; 0000000aH
; File C:\Program Files (x86)\Microsoft Visual Studio\2019\Community\VC\Tools\MSVC\14.29.30133\atlmfc\include\atlsimpstr.h

; 519  : 		return( GetData()->nDataLength );

  011dd	8b 48 f4	 mov	 ecx, DWORD PTR [eax-12]
; File D:\git\src\IBK\IBK_DRFN\ProjSrc\SrcDrfn\DrCommon\PartnerMng\ChartItemStock.cpp

; 562  : 		memcpy(stBong.open, strNode, min(sizeof(stBong.open), strNode.GetLength()));

  011e0	83 f9 0a	 cmp	 ecx, 10			; 0000000aH
  011e3	0f 47 ca	 cmova	 ecx, edx
  011e6	51		 push	 ecx
  011e7	50		 push	 eax
  011e8	8d 45 a8	 lea	 eax, DWORD PTR _stBong$[ebp+8]
  011eb	50		 push	 eax
  011ec	e8 00 00 00 00	 call	 _memcpy
  011f1	83 c4 0c	 add	 esp, 12			; 0000000cH
  011f4	83 c6 01	 add	 esi, 1
; File C:\Program Files (x86)\Microsoft Visual Studio\2019\Community\VC\Tools\MSVC\14.29.30133\atlmfc\include\afxcoll.inl

; 289  : 		if( nIndex < 0 || nIndex >= m_nSize )

  011f7	0f 88 d6 0d 00
	00		 js	 $LN413@Convert2St
  011fd	3b b5 4c fc ff
	ff		 cmp	 esi, DWORD PTR _arrNode$[ebp+8]
  01203	0f 8d ca 0d 00
	00		 jge	 $LN413@Convert2St

; 291  : 		return m_pData[nIndex]; }

  01209	8b 85 48 fc ff
	ff		 mov	 eax, DWORD PTR _arrNode$[ebp+4]
; File D:\git\src\IBK\IBK_DRFN\ProjSrc\SrcDrfn\DrCommon\PartnerMng\ChartItemStock.cpp

; 564  : 		strNode = arrNode.GetAt(nIndex++);

  0120f	8d 8d e8 fc ff
	ff		 lea	 ecx, DWORD PTR _strNode$[ebp]
; File C:\Program Files (x86)\Microsoft Visual Studio\2019\Community\VC\Tools\MSVC\14.29.30133\atlmfc\include\afxcoll.inl

; 291  : 		return m_pData[nIndex]; }

  01215	8d 04 b0	 lea	 eax, DWORD PTR [eax+esi*4]
; File D:\git\src\IBK\IBK_DRFN\ProjSrc\SrcDrfn\DrCommon\PartnerMng\ChartItemStock.cpp

; 564  : 		strNode = arrNode.GetAt(nIndex++);

  01218	50		 push	 eax
  01219	ff 15 00 00 00
	00		 call	 DWORD PTR __imp_??4?$CStringT@DV?$StrTraitMFC_DLL@DV?$ChTraitsCRT@D@ATL@@@@@ATL@@QAEAAV01@ABV01@@Z
; File C:\Program Files (x86)\Microsoft Visual Studio\2019\Community\VC\Tools\MSVC\14.29.30133\atlmfc\include\atlsimpstr.h

; 519  : 		return( GetData()->nDataLength );

  0121f	8b 85 e8 fc ff
	ff		 mov	 eax, DWORD PTR _strNode$[ebp]
; File D:\git\src\IBK\IBK_DRFN\ProjSrc\SrcDrfn\DrCommon\PartnerMng\ChartItemStock.cpp

; 565  : 		memcpy(stBong.high, strNode, min(sizeof(stBong.high), strNode.GetLength()));

  01225	ba 0a 00 00 00	 mov	 edx, 10			; 0000000aH
; File C:\Program Files (x86)\Microsoft Visual Studio\2019\Community\VC\Tools\MSVC\14.29.30133\atlmfc\include\atlsimpstr.h

; 519  : 		return( GetData()->nDataLength );

  0122a	8b 48 f4	 mov	 ecx, DWORD PTR [eax-12]
; File D:\git\src\IBK\IBK_DRFN\ProjSrc\SrcDrfn\DrCommon\PartnerMng\ChartItemStock.cpp

; 565  : 		memcpy(stBong.high, strNode, min(sizeof(stBong.high), strNode.GetLength()));

  0122d	83 f9 0a	 cmp	 ecx, 10			; 0000000aH
  01230	0f 47 ca	 cmova	 ecx, edx
  01233	51		 push	 ecx
  01234	50		 push	 eax
  01235	8d 45 b2	 lea	 eax, DWORD PTR _stBong$[ebp+18]
  01238	50		 push	 eax
  01239	e8 00 00 00 00	 call	 _memcpy
  0123e	83 c4 0c	 add	 esp, 12			; 0000000cH
  01241	83 c6 01	 add	 esi, 1
; File C:\Program Files (x86)\Microsoft Visual Studio\2019\Community\VC\Tools\MSVC\14.29.30133\atlmfc\include\afxcoll.inl

; 289  : 		if( nIndex < 0 || nIndex >= m_nSize )

  01244	0f 88 89 0d 00
	00		 js	 $LN413@Convert2St
  0124a	3b b5 4c fc ff
	ff		 cmp	 esi, DWORD PTR _arrNode$[ebp+8]
  01250	0f 8d 7d 0d 00
	00		 jge	 $LN413@Convert2St

; 291  : 		return m_pData[nIndex]; }

  01256	8b 85 48 fc ff
	ff		 mov	 eax, DWORD PTR _arrNode$[ebp+4]
; File D:\git\src\IBK\IBK_DRFN\ProjSrc\SrcDrfn\DrCommon\PartnerMng\ChartItemStock.cpp

; 567  : 		strNode = arrNode.GetAt(nIndex++);

  0125c	8d 8d e8 fc ff
	ff		 lea	 ecx, DWORD PTR _strNode$[ebp]
; File C:\Program Files (x86)\Microsoft Visual Studio\2019\Community\VC\Tools\MSVC\14.29.30133\atlmfc\include\afxcoll.inl

; 291  : 		return m_pData[nIndex]; }

  01262	8d 04 b0	 lea	 eax, DWORD PTR [eax+esi*4]
; File D:\git\src\IBK\IBK_DRFN\ProjSrc\SrcDrfn\DrCommon\PartnerMng\ChartItemStock.cpp

; 567  : 		strNode = arrNode.GetAt(nIndex++);

  01265	50		 push	 eax
  01266	ff 15 00 00 00
	00		 call	 DWORD PTR __imp_??4?$CStringT@DV?$StrTraitMFC_DLL@DV?$ChTraitsCRT@D@ATL@@@@@ATL@@QAEAAV01@ABV01@@Z
; File C:\Program Files (x86)\Microsoft Visual Studio\2019\Community\VC\Tools\MSVC\14.29.30133\atlmfc\include\atlsimpstr.h

; 519  : 		return( GetData()->nDataLength );

  0126c	8b 85 e8 fc ff
	ff		 mov	 eax, DWORD PTR _strNode$[ebp]
; File D:\git\src\IBK\IBK_DRFN\ProjSrc\SrcDrfn\DrCommon\PartnerMng\ChartItemStock.cpp

; 568  : 		memcpy(stBong.low, strNode, min(sizeof(stBong.low), strNode.GetLength()));

  01272	ba 0a 00 00 00	 mov	 edx, 10			; 0000000aH
; File C:\Program Files (x86)\Microsoft Visual Studio\2019\Community\VC\Tools\MSVC\14.29.30133\atlmfc\include\atlsimpstr.h

; 519  : 		return( GetData()->nDataLength );

  01277	8b 48 f4	 mov	 ecx, DWORD PTR [eax-12]
; File D:\git\src\IBK\IBK_DRFN\ProjSrc\SrcDrfn\DrCommon\PartnerMng\ChartItemStock.cpp

; 568  : 		memcpy(stBong.low, strNode, min(sizeof(stBong.low), strNode.GetLength()));

  0127a	83 f9 0a	 cmp	 ecx, 10			; 0000000aH
  0127d	0f 47 ca	 cmova	 ecx, edx
  01280	51		 push	 ecx
  01281	50		 push	 eax
  01282	8d 45 bc	 lea	 eax, DWORD PTR _stBong$[ebp+28]
  01285	50		 push	 eax
  01286	e8 00 00 00 00	 call	 _memcpy
  0128b	83 c4 0c	 add	 esp, 12			; 0000000cH
  0128e	83 c6 01	 add	 esi, 1
; File C:\Program Files (x86)\Microsoft Visual Studio\2019\Community\VC\Tools\MSVC\14.29.30133\atlmfc\include\afxcoll.inl

; 289  : 		if( nIndex < 0 || nIndex >= m_nSize )

  01291	0f 88 3c 0d 00
	00		 js	 $LN413@Convert2St
  01297	3b b5 4c fc ff
	ff		 cmp	 esi, DWORD PTR _arrNode$[ebp+8]
  0129d	0f 8d 30 0d 00
	00		 jge	 $LN413@Convert2St

; 291  : 		return m_pData[nIndex]; }

  012a3	8b 85 48 fc ff
	ff		 mov	 eax, DWORD PTR _arrNode$[ebp+4]
; File D:\git\src\IBK\IBK_DRFN\ProjSrc\SrcDrfn\DrCommon\PartnerMng\ChartItemStock.cpp

; 570  : 		strNode = arrNode.GetAt(nIndex++);

  012a9	8d 8d e8 fc ff
	ff		 lea	 ecx, DWORD PTR _strNode$[ebp]
; File C:\Program Files (x86)\Microsoft Visual Studio\2019\Community\VC\Tools\MSVC\14.29.30133\atlmfc\include\afxcoll.inl

; 291  : 		return m_pData[nIndex]; }

  012af	8d 04 b0	 lea	 eax, DWORD PTR [eax+esi*4]
; File D:\git\src\IBK\IBK_DRFN\ProjSrc\SrcDrfn\DrCommon\PartnerMng\ChartItemStock.cpp

; 570  : 		strNode = arrNode.GetAt(nIndex++);

  012b2	50		 push	 eax
  012b3	ff 15 00 00 00
	00		 call	 DWORD PTR __imp_??4?$CStringT@DV?$StrTraitMFC_DLL@DV?$ChTraitsCRT@D@ATL@@@@@ATL@@QAEAAV01@ABV01@@Z
; File C:\Program Files (x86)\Microsoft Visual Studio\2019\Community\VC\Tools\MSVC\14.29.30133\atlmfc\include\atlsimpstr.h

; 519  : 		return( GetData()->nDataLength );

  012b9	8b 85 e8 fc ff
	ff		 mov	 eax, DWORD PTR _strNode$[ebp]
; File D:\git\src\IBK\IBK_DRFN\ProjSrc\SrcDrfn\DrCommon\PartnerMng\ChartItemStock.cpp

; 571  : 		memcpy(stBong.volume, strNode, min(sizeof(stBong.volume), strNode.GetLength()));

  012bf	ba 0a 00 00 00	 mov	 edx, 10			; 0000000aH
; File C:\Program Files (x86)\Microsoft Visual Studio\2019\Community\VC\Tools\MSVC\14.29.30133\atlmfc\include\atlsimpstr.h

; 519  : 		return( GetData()->nDataLength );

  012c4	8b 48 f4	 mov	 ecx, DWORD PTR [eax-12]
; File D:\git\src\IBK\IBK_DRFN\ProjSrc\SrcDrfn\DrCommon\PartnerMng\ChartItemStock.cpp

; 571  : 		memcpy(stBong.volume, strNode, min(sizeof(stBong.volume), strNode.GetLength()));

  012c7	83 f9 0a	 cmp	 ecx, 10			; 0000000aH
  012ca	0f 47 ca	 cmova	 ecx, edx
  012cd	51		 push	 ecx
  012ce	50		 push	 eax
  012cf	8d 45 d0	 lea	 eax, DWORD PTR _stBong$[ebp+48]
  012d2	50		 push	 eax
  012d3	e8 00 00 00 00	 call	 _memcpy
  012d8	83 c4 0c	 add	 esp, 12			; 0000000cH
  012db	83 c6 01	 add	 esi, 1
; File C:\Program Files (x86)\Microsoft Visual Studio\2019\Community\VC\Tools\MSVC\14.29.30133\atlmfc\include\afxcoll.inl

; 289  : 		if( nIndex < 0 || nIndex >= m_nSize )

  012de	0f 88 ef 0c 00
	00		 js	 $LN413@Convert2St
  012e4	3b b5 4c fc ff
	ff		 cmp	 esi, DWORD PTR _arrNode$[ebp+8]
  012ea	0f 8d e3 0c 00
	00		 jge	 $LN413@Convert2St

; 291  : 		return m_pData[nIndex]; }

  012f0	8b 85 48 fc ff
	ff		 mov	 eax, DWORD PTR _arrNode$[ebp+4]
; File D:\git\src\IBK\IBK_DRFN\ProjSrc\SrcDrfn\DrCommon\PartnerMng\ChartItemStock.cpp

; 574  : 		strNode = arrNode.GetAt(nIndex++);

  012f6	8d 8d e8 fc ff
	ff		 lea	 ecx, DWORD PTR _strNode$[ebp]
; File C:\Program Files (x86)\Microsoft Visual Studio\2019\Community\VC\Tools\MSVC\14.29.30133\atlmfc\include\afxcoll.inl

; 291  : 		return m_pData[nIndex]; }

  012fc	8d 04 b0	 lea	 eax, DWORD PTR [eax+esi*4]
; File D:\git\src\IBK\IBK_DRFN\ProjSrc\SrcDrfn\DrCommon\PartnerMng\ChartItemStock.cpp

; 574  : 		strNode = arrNode.GetAt(nIndex++);

  012ff	50		 push	 eax
  01300	ff 15 00 00 00
	00		 call	 DWORD PTR __imp_??4?$CStringT@DV?$StrTraitMFC_DLL@DV?$ChTraitsCRT@D@ATL@@@@@ATL@@QAEAAV01@ABV01@@Z
  01306	46		 inc	 esi
  01307	89 b5 dc fc ff
	ff		 mov	 DWORD PTR _nIndex$1$[ebp], esi

; 575  : 		//dValue = atof(strNode)*1000000;
; 576  : 		//strNode.Format(_T("%.0f"), dValue);
; 577  : 		if(nType < 2 || nType == 6)	//.

  0130d	83 ff 02	 cmp	 edi, 2
  01310	7c 6e		 jl	 SHORT $LN58@Convert2St
  01312	83 ff 06	 cmp	 edi, 6
  01315	74 69		 je	 SHORT $LN58@Convert2St

; 578  : 		{			
; 579  : 			//	strNode += "000000";//KHD
; 580  : 		}
; 581  : 		else
; 582  : 		{
; 583  : 			// 20121024 	  sCELL     .. sCELL    . --->>>>
; 584  : 			if (nRow == nCnt - 1)

  01317	8b 85 d0 fc ff
	ff		 mov	 eax, DWORD PTR _nCnt$1$[ebp]
  0131d	48		 dec	 eax
  0131e	39 85 3c fc ff
	ff		 cmp	 DWORD PTR _nRow$1$[ebp], eax
  01324	75 49		 jne	 SHORT $LN60@Convert2St

; 585  : 			{
; 586  : 				int nFind = strNode.Find(sCELL);

  01326	6a 00		 push	 0
  01328	6a 09		 push	 9
  0132a	8d 8d e8 fc ff
	ff		 lea	 ecx, DWORD PTR _strNode$[ebp]
  01330	ff 15 00 00 00
	00		 call	 DWORD PTR __imp_?Find@?$CStringT@DV?$StrTraitMFC_DLL@DV?$ChTraitsCRT@D@ATL@@@@@ATL@@QBEHDH@Z

; 587  : 				if (nFind > 0)

  01336	85 c0		 test	 eax, eax
  01338	7e 35		 jle	 SHORT $LN60@Convert2St

; 588  : 					strNode = strNode.Left(nFind);

  0133a	50		 push	 eax
  0133b	8d 85 d8 fc ff
	ff		 lea	 eax, DWORD PTR $T30[ebp]
  01341	50		 push	 eax
  01342	8d 8d e8 fc ff
	ff		 lea	 ecx, DWORD PTR _strNode$[ebp]
  01348	ff 15 00 00 00
	00		 call	 DWORD PTR __imp_?Left@?$CStringT@DV?$StrTraitMFC_DLL@DV?$ChTraitsCRT@D@ATL@@@@@ATL@@QBE?AV12@H@Z
  0134e	50		 push	 eax
  0134f	8d 8d e8 fc ff
	ff		 lea	 ecx, DWORD PTR _strNode$[ebp]
  01355	c6 45 fc 3e	 mov	 BYTE PTR __$EHRec$[ebp+8], 62 ; 0000003eH
  01359	ff 15 00 00 00
	00		 call	 DWORD PTR __imp_??4?$CStringT@DV?$StrTraitMFC_DLL@DV?$ChTraitsCRT@D@ATL@@@@@ATL@@QAEAAV01@ABV01@@Z
  0135f	8d 8d d8 fc ff
	ff		 lea	 ecx, DWORD PTR $T30[ebp]
  01365	c6 45 fc 32	 mov	 BYTE PTR __$EHRec$[ebp+8], 50 ; 00000032H
  01369	ff 15 00 00 00
	00		 call	 DWORD PTR __imp_??1?$CStringT@DV?$StrTraitMFC_DLL@DV?$ChTraitsCRT@D@ATL@@@@@ATL@@QAE@XZ
$LN60@Convert2St:

; 589  : 			}
; 590  : 			//	---------<<<<<<
; 591  : 
; 592  : 			strNode += "000000";

  0136f	68 00 00 00 00	 push	 OFFSET ??_C@_06GEKNBBDK@000000@
  01374	8d 8d e8 fc ff
	ff		 lea	 ecx, DWORD PTR _strNode$[ebp]
  0137a	ff 15 00 00 00
	00		 call	 DWORD PTR __imp_??Y?$CStringT@DV?$StrTraitMFC_DLL@DV?$ChTraitsCRT@D@ATL@@@@@ATL@@QAEAAV01@PBD@Z
$LN58@Convert2St:
; File C:\Program Files (x86)\Microsoft Visual Studio\2019\Community\VC\Tools\MSVC\14.29.30133\atlmfc\include\atlsimpstr.h

; 519  : 		return( GetData()->nDataLength );

  01380	8b 85 e8 fc ff
	ff		 mov	 eax, DWORD PTR _strNode$[ebp]
; File D:\git\src\IBK\IBK_DRFN\ProjSrc\SrcDrfn\DrCommon\PartnerMng\ChartItemStock.cpp

; 595  : 		memcpy(stBong.value, strNode, min(sizeof(stBong.value), strNode.GetLength()));

  01386	ba 12 00 00 00	 mov	 edx, 18			; 00000012H
; File C:\Program Files (x86)\Microsoft Visual Studio\2019\Community\VC\Tools\MSVC\14.29.30133\atlmfc\include\atlsimpstr.h

; 519  : 		return( GetData()->nDataLength );

  0138b	8b 48 f4	 mov	 ecx, DWORD PTR [eax-12]
; File D:\git\src\IBK\IBK_DRFN\ProjSrc\SrcDrfn\DrCommon\PartnerMng\ChartItemStock.cpp

; 595  : 		memcpy(stBong.value, strNode, min(sizeof(stBong.value), strNode.GetLength()));

  0138e	83 f9 12	 cmp	 ecx, 18			; 00000012H
  01391	0f 47 ca	 cmova	 ecx, edx
  01394	51		 push	 ecx
  01395	50		 push	 eax
  01396	8d 45 da	 lea	 eax, DWORD PTR _stBong$[ebp+58]
  01399	50		 push	 eax
  0139a	e8 00 00 00 00	 call	 _memcpy
  0139f	83 c4 0c	 add	 esp, 12			; 0000000cH

; 596  : 		//@Solomon	091202SM123	<--
; 597  : 
; 598  : 		// 
; 599  : 		if (nType == 2)

  013a2	83 ff 02	 cmp	 edi, 2
  013a5	0f 85 99 00 00
	00		 jne	 $LN61@Convert2St
; File C:\Program Files (x86)\Microsoft Visual Studio\2019\Community\VC\Tools\MSVC\14.29.30133\atlmfc\include\afxcoll.inl

; 289  : 		if( nIndex < 0 || nIndex >= m_nSize )

  013ab	85 f6		 test	 esi, esi
  013ad	0f 88 20 0c 00
	00		 js	 $LN413@Convert2St
  013b3	3b b5 4c fc ff
	ff		 cmp	 esi, DWORD PTR _arrNode$[ebp+8]
  013b9	0f 8d 14 0c 00
	00		 jge	 $LN413@Convert2St

; 291  : 		return m_pData[nIndex]; }

  013bf	8b 85 48 fc ff
	ff		 mov	 eax, DWORD PTR _arrNode$[ebp+4]
; File D:\git\src\IBK\IBK_DRFN\ProjSrc\SrcDrfn\DrCommon\PartnerMng\ChartItemStock.cpp

; 601  : 			strNode = arrNode.GetAt(nIndex++);

  013c5	8d 8d e8 fc ff
	ff		 lea	 ecx, DWORD PTR _strNode$[ebp]
; File C:\Program Files (x86)\Microsoft Visual Studio\2019\Community\VC\Tools\MSVC\14.29.30133\atlmfc\include\afxcoll.inl

; 291  : 		return m_pData[nIndex]; }

  013cb	8d 04 b0	 lea	 eax, DWORD PTR [eax+esi*4]
; File D:\git\src\IBK\IBK_DRFN\ProjSrc\SrcDrfn\DrCommon\PartnerMng\ChartItemStock.cpp

; 601  : 			strNode = arrNode.GetAt(nIndex++);

  013ce	50		 push	 eax
  013cf	ff 15 00 00 00
	00		 call	 DWORD PTR __imp_??4?$CStringT@DV?$StrTraitMFC_DLL@DV?$ChTraitsCRT@D@ATL@@@@@ATL@@QAEAAV01@ABV01@@Z
; File C:\Program Files (x86)\Microsoft Visual Studio\2019\Community\VC\Tools\MSVC\14.29.30133\atlmfc\include\atlsimpstr.h

; 519  : 		return( GetData()->nDataLength );

  013d5	8b 85 e8 fc ff
	ff		 mov	 eax, DWORD PTR _strNode$[ebp]
; File D:\git\src\IBK\IBK_DRFN\ProjSrc\SrcDrfn\DrCommon\PartnerMng\ChartItemStock.cpp

; 602  : 			memcpy(stBong.rights, strNode, min(sizeof(stBong.rights), strNode.GetLength()));

  013db	bf 01 00 00 00	 mov	 edi, 1
; File C:\Program Files (x86)\Microsoft Visual Studio\2019\Community\VC\Tools\MSVC\14.29.30133\atlmfc\include\atlsimpstr.h

; 519  : 		return( GetData()->nDataLength );

  013e0	8b 48 f4	 mov	 ecx, DWORD PTR [eax-12]
; File D:\git\src\IBK\IBK_DRFN\ProjSrc\SrcDrfn\DrCommon\PartnerMng\ChartItemStock.cpp

; 602  : 			memcpy(stBong.rights, strNode, min(sizeof(stBong.rights), strNode.GetLength()));

  013e3	83 f9 01	 cmp	 ecx, 1
  013e6	0f 47 cf	 cmova	 ecx, edi
  013e9	51		 push	 ecx
  013ea	50		 push	 eax
  013eb	8d 45 ec	 lea	 eax, DWORD PTR _stBong$[ebp+76]
  013ee	50		 push	 eax
  013ef	e8 00 00 00 00	 call	 _memcpy
  013f4	83 c4 0c	 add	 esp, 12			; 0000000cH
  013f7	03 f7		 add	 esi, edi
; File C:\Program Files (x86)\Microsoft Visual Studio\2019\Community\VC\Tools\MSVC\14.29.30133\atlmfc\include\afxcoll.inl

; 289  : 		if( nIndex < 0 || nIndex >= m_nSize )

  013f9	0f 88 d4 0b 00
	00		 js	 $LN413@Convert2St
  013ff	3b b5 4c fc ff
	ff		 cmp	 esi, DWORD PTR _arrNode$[ebp+8]
  01405	0f 8d c8 0b 00
	00		 jge	 $LN413@Convert2St

; 291  : 		return m_pData[nIndex]; }

  0140b	8b 85 48 fc ff
	ff		 mov	 eax, DWORD PTR _arrNode$[ebp+4]
; File D:\git\src\IBK\IBK_DRFN\ProjSrc\SrcDrfn\DrCommon\PartnerMng\ChartItemStock.cpp

; 604  : 			strNode = arrNode.GetAt(nIndex++);

  01411	8d 8d e8 fc ff
	ff		 lea	 ecx, DWORD PTR _strNode$[ebp]
; File C:\Program Files (x86)\Microsoft Visual Studio\2019\Community\VC\Tools\MSVC\14.29.30133\atlmfc\include\afxcoll.inl

; 291  : 		return m_pData[nIndex]; }

  01417	8d 04 b0	 lea	 eax, DWORD PTR [eax+esi*4]
; File D:\git\src\IBK\IBK_DRFN\ProjSrc\SrcDrfn\DrCommon\PartnerMng\ChartItemStock.cpp

; 604  : 			strNode = arrNode.GetAt(nIndex++);

  0141a	50		 push	 eax
  0141b	ff 15 00 00 00
	00		 call	 DWORD PTR __imp_??4?$CStringT@DV?$StrTraitMFC_DLL@DV?$ChTraitsCRT@D@ATL@@@@@ATL@@QAEAAV01@ABV01@@Z
; File C:\Program Files (x86)\Microsoft Visual Studio\2019\Community\VC\Tools\MSVC\14.29.30133\atlmfc\include\atlsimpstr.h

; 519  : 		return( GetData()->nDataLength );

  01421	8b 85 e8 fc ff
	ff		 mov	 eax, DWORD PTR _strNode$[ebp]
; File D:\git\src\IBK\IBK_DRFN\ProjSrc\SrcDrfn\DrCommon\PartnerMng\ChartItemStock.cpp

; 604  : 			strNode = arrNode.GetAt(nIndex++);

  01427	46		 inc	 esi
  01428	89 b5 dc fc ff
	ff		 mov	 DWORD PTR _nIndex$1$[ebp], esi
; File C:\Program Files (x86)\Microsoft Visual Studio\2019\Community\VC\Tools\MSVC\14.29.30133\atlmfc\include\atlsimpstr.h

; 519  : 		return( GetData()->nDataLength );

  0142e	8b 48 f4	 mov	 ecx, DWORD PTR [eax-12]
; File D:\git\src\IBK\IBK_DRFN\ProjSrc\SrcDrfn\DrCommon\PartnerMng\ChartItemStock.cpp

; 605  : 			memcpy(stBong.sign, strNode, min(sizeof(stBong.sign), strNode.GetLength()));

  01431	3b cf		 cmp	 ecx, edi
  01433	0f 47 cf	 cmova	 ecx, edi
  01436	51		 push	 ecx
  01437	50		 push	 eax
  01438	8d 45 ed	 lea	 eax, DWORD PTR _stBong$[ebp+77]
  0143b	50		 push	 eax
  0143c	e8 00 00 00 00	 call	 _memcpy
  01441	83 c4 0c	 add	 esp, 12			; 0000000cH
$LN61@Convert2St:

; 606  : 		}
; 607  : 
; 608  : 		memcpy(&pDataBuf[nPosBong + nRow*nBongSize], &stBong, nBongSize);

  01444	8b 95 3c fc ff
	ff		 mov	 edx, DWORD PTR _nRow$1$[ebp]
  0144a	8d 75 a0	 lea	 esi, DWORD PTR _stBong$[ebp]
  0144d	8b bd 88 fc ff
	ff		 mov	 edi, DWORD PTR _pDataBuf$1$[ebp]
  01453	b9 13 00 00 00	 mov	 ecx, 19			; 00000013H
  01458	6b c2 4e	 imul	 eax, edx, 78
  0145b	81 c7 62 02 00
	00		 add	 edi, 610		; 00000262H
  01461	03 f8		 add	 edi, eax
  01463	f3 a5		 rep movsd
  01465	66 a5		 movsw

; 609  : 
; 610  : 		//    .
; 611  : 	    if (nRow == 0)

  01467	85 d2		 test	 edx, edx
  01469	75 12		 jne	 SHORT $LN4@Convert2St

; 612  : 			memcpy(&stFirstBong, &stBong, sizeof(stBong));

  0146b	b9 13 00 00 00	 mov	 ecx, 19			; 00000013H
  01470	8d 75 a0	 lea	 esi, DWORD PTR _stBong$[ebp]
  01473	8d bd 50 ff ff
	ff		 lea	 edi, DWORD PTR _stFirstBong$[ebp]
  01479	f3 a5		 rep movsd
  0147b	66 a5		 movsw
$LN4@Convert2St:

; 522  : 	int nEmptyIndex = 0;
; 523  : 	int nRow = 0;
; 524  : 	for ( nRow = 0; nRow < nCnt; nRow++)

  0147d	8b b5 dc fc ff
	ff		 mov	 esi, DWORD PTR _nIndex$1$[ebp]
  01483	42		 inc	 edx
  01484	8b bd c8 fc ff
	ff		 mov	 edi, DWORD PTR $T21[ebp]
  0148a	89 95 3c fc ff
	ff		 mov	 DWORD PTR _nRow$1$[ebp], edx
  01490	3b 95 d0 fc ff
	ff		 cmp	 edx, DWORD PTR _nCnt$1$[ebp]
  01496	0f 8c c7 f8 ff
	ff		 jl	 $LL6@Convert2St

; 613  : 	}
; 614  : 
; 615  : 	// 20130222  :      .(   )
; 616  : 	if (nCnt > 0 && nType == 3 && m_InData.nflag[0] != _T('1'))

  0149c	83 bd c0 fc ff
	ff 03		 cmp	 DWORD PTR _nType$1$[ebp], 3
  014a3	8b bd 8c fc ff
	ff		 mov	 edi, DWORD PTR _this$GSCopy$1$[ebp]
  014a9	75 21		 jne	 SHORT $LN63@Convert2St
  014ab	80 7f 40 31	 cmp	 BYTE PTR [edi+64], 49	; 00000031H
  014af	74 1b		 je	 SHORT $LN63@Convert2St

; 617  : 		m_bojoInput.m_sLastDataTime = strDate;

  014b1	8d 85 c4 fc ff
	ff		 lea	 eax, DWORD PTR _strDate$[ebp]
  014b7	50		 push	 eax
  014b8	8d 8f 34 01 00
	00		 lea	 ecx, DWORD PTR [edi+308]
  014be	ff 15 00 00 00
	00		 call	 DWORD PTR __imp_??4?$CStringT@DV?$StrTraitMFC_DLL@DV?$ChTraitsCRT@D@ATL@@@@@ATL@@QAEAAV01@ABV01@@Z
  014c4	eb 17		 jmp	 SHORT $LN64@Convert2St
$LN658@Convert2St:

; 522  : 	int nEmptyIndex = 0;
; 523  : 	int nRow = 0;
; 524  : 	for ( nRow = 0; nRow < nCnt; nRow++)

  014c6	8b bd 8c fc ff
	ff		 mov	 edi, DWORD PTR _this$GSCopy$1$[ebp]
$LN63@Convert2St:

; 618  : 	else
; 619  : 		m_bojoInput.m_sLastDataTime = _T("");

  014cc	68 00 00 00 00	 push	 OFFSET ??_C@_00CNPNBAHC@@
  014d1	8d 8f 34 01 00
	00		 lea	 ecx, DWORD PTR [edi+308]
  014d7	ff 15 00 00 00
	00		 call	 DWORD PTR __imp_??4?$CStringT@DV?$StrTraitMFC_DLL@DV?$ChTraitsCRT@D@ATL@@@@@ATL@@QAEAAV01@PBD@Z
$LN64@Convert2St:

; 620  : 
; 621  : //	nCnt-=nEmptyIndex;
; 622  : 	double dUSDollar=0;
; 623  : 	//   :   
; 624  : 	int nDataType = int(m_InData.nDataGubun[0] - '0'); 

  014dd	0f be 77 5d	 movsx	 esi, BYTE PTR [edi+93]

; 625  : 	if(nDataType > 0)

  014e1	83 fe 30	 cmp	 esi, 48			; 00000030H
  014e4	0f 8e 85 02 00
	00		 jle	 $LN65@Convert2St

; 626  : 	{
; 627  : 		CString strData(stFirstBong.close, sizeof(stFirstBong.close));

  014ea	6a 0a		 push	 10			; 0000000aH
  014ec	8d 85 76 ff ff
	ff		 lea	 eax, DWORD PTR _stFirstBong$[ebp+38]
  014f2	50		 push	 eax
  014f3	8d 8d dc fc ff
	ff		 lea	 ecx, DWORD PTR _strData$31[ebp]
  014f9	ff 15 00 00 00
	00		 call	 DWORD PTR __imp_??0?$CStringT@DV?$StrTraitMFC_DLL@DV?$ChTraitsCRT@D@ATL@@@@@ATL@@QAE@PBDH@Z

; 628  : 		int nFirstClose = atoi(strData);

  014ff	ff b5 dc fc ff
	ff		 push	 DWORD PTR _strData$31[ebp]
  01505	c6 45 fc 3f	 mov	 BYTE PTR __$EHRec$[ebp+8], 63 ; 0000003fH
  01509	ff 15 00 00 00
	00		 call	 DWORD PTR __imp__atoi
  0150f	89 85 d8 fc ff
	ff		 mov	 DWORD PTR _nFirstClose$1$[ebp], eax

; 629  : 		double dDenom; //
; 630  : 		KB_p0602_OutRec2 stBong;
; 631  : 		//@Solomon	091123SM072
; 632  : 		double dData;
; 633  : 		double dUSDollar = CDataConverter::Char2Double(m_InData.usRate, sizeof(m_InData.usRate));

  01515	8d 47 69	 lea	 eax, DWORD PTR [edi+105]
  01518	6a 0a		 push	 10			; 0000000aH
  0151a	50		 push	 eax
  0151b	e8 00 00 00 00	 call	 ?Char2Double@CDataConverter@@SANPADH@Z ; CDataConverter::Char2Double

; 634  : 
; 635  : 		switch(nDataType)

  01520	8d 4e cf	 lea	 ecx, DWORD PTR [esi-49]
  01523	83 c4 0c	 add	 esp, 12			; 0000000cH
  01526	dd 95 90 fc ff
	ff		 fst	 QWORD PTR _dUSDollar$1$[ebp]
  0152c	dd 9d 60 fc ff
	ff		 fstp	 QWORD PTR _dUSDollar$8[ebp]
  01532	83 f9 04	 cmp	 ecx, 4
  01535	0f 87 28 06 00
	00		 ja	 $LN7@Convert2St
  0153b	ff 24 8d 00 00
	00 00		 jmp	 DWORD PTR $LN655@Convert2St[ecx*4]
$LN66@Convert2St:
  01542	66 0f 6e 85 d8
	fc ff ff	 movd	 xmm0, DWORD PTR _nFirstClose$1$[ebp]

; 636  : 		{
; 637  : 		case 1:	dDenom = nFirstClose;		break;	//  

  0154a	f3 0f e6 c0	 cvtdq2pd xmm0, xmm0
  0154e	eb 1d		 jmp	 SHORT $LN663@Convert2St
$LN67@Convert2St:

; 638  : 		case 3:	dDenom = atof(strOpen);		break;	// 

  01550	ff b5 b8 fc ff
	ff		 push	 DWORD PTR _strOpen$[ebp]
$LN665@Convert2St:

; 690  : 		else
; 691  : 		{
; 692  : 			for (nRow = 0; nRow < nCnt; nRow++)

  01556	ff 15 00 00 00
	00		 call	 DWORD PTR __imp__atof
  0155c	dd 9d d4 fc ff
	ff		 fstp	 QWORD PTR _dDenom$26[ebp]
  01562	83 c4 04	 add	 esp, 4
$LN656@Convert2St:
  01565	f2 0f 10 85 d4
	fc ff ff	 movsd	 xmm0, QWORD PTR _dDenom$26[ebp]
$LN663@Convert2St:
  0156d	83 bd d0 fc ff
	ff 00		 cmp	 DWORD PTR _nCnt$1$[ebp], 0
  01574	f2 0f 11 85 b0
	fc ff ff	 movsd	 QWORD PTR _dDenom$2$[ebp], xmm0
  0157c	0f 8e dd 01 00
	00		 jle	 $LN13@Convert2St
  01582	8b 85 88 fc ff
	ff		 mov	 eax, DWORD PTR _pDataBuf$1$[ebp]
  01588	05 62 02 00 00	 add	 eax, 610		; 00000262H
  0158d	89 85 cc fc ff
	ff		 mov	 DWORD PTR tv3360[ebp], eax
$LL14@Convert2St:

; 693  : 			{
; 694  : 				memcpy(&stBong, &pDataBuf[nPosBong + nRow*nBongSize], nBongSize);

  01593	8b f0		 mov	 esi, eax
  01595	8d 7d a0	 lea	 edi, DWORD PTR _stBong$51[ebp]
  01598	b9 13 00 00 00	 mov	 ecx, 19			; 00000013H

; 695  : 				// 
; 696  : 				strData = CDataConverter::Get_PercentData(stBong.open, dDenom, sizeof(stBong.open));

  0159d	8d 45 a8	 lea	 eax, DWORD PTR _stBong$51[ebp+8]
  015a0	f3 a5		 rep movsd
  015a2	6a 0a		 push	 10			; 0000000aH
  015a4	83 ec 08	 sub	 esp, 8
  015a7	66 a5		 movsw
  015a9	f2 0f 11 04 24	 movsd	 QWORD PTR [esp], xmm0
  015ae	50		 push	 eax
  015af	8d 85 d8 fc ff
	ff		 lea	 eax, DWORD PTR $T28[ebp]
  015b5	50		 push	 eax
  015b6	e8 00 00 00 00	 call	 ?Get_PercentData@CDataConverter@@SA?AV?$CStringT@DV?$StrTraitMFC_DLL@DV?$ChTraitsCRT@D@ATL@@@@@ATL@@PADNH@Z ; CDataConverter::Get_PercentData
  015bb	83 c4 14	 add	 esp, 20			; 00000014H
  015be	50		 push	 eax
  015bf	8d 8d dc fc ff
	ff		 lea	 ecx, DWORD PTR _strData$31[ebp]
  015c5	c6 45 fc 44	 mov	 BYTE PTR __$EHRec$[ebp+8], 68 ; 00000044H
  015c9	ff 15 00 00 00
	00		 call	 DWORD PTR __imp_??4?$CStringT@DV?$StrTraitMFC_DLL@DV?$ChTraitsCRT@D@ATL@@@@@ATL@@QAEAAV01@ABV01@@Z
  015cf	8d 8d d8 fc ff
	ff		 lea	 ecx, DWORD PTR $T28[ebp]
  015d5	c6 45 fc 3f	 mov	 BYTE PTR __$EHRec$[ebp+8], 63 ; 0000003fH
  015d9	ff 15 00 00 00
	00		 call	 DWORD PTR __imp_??1?$CStringT@DV?$StrTraitMFC_DLL@DV?$ChTraitsCRT@D@ATL@@@@@ATL@@QAE@XZ
; File C:\Program Files (x86)\Microsoft Visual Studio\2019\Community\VC\Tools\MSVC\14.29.30133\atlmfc\include\atlsimpstr.h

; 519  : 		return( GetData()->nDataLength );

  015df	8b 85 dc fc ff
	ff		 mov	 eax, DWORD PTR _strData$31[ebp]
; File D:\git\src\IBK\IBK_DRFN\ProjSrc\SrcDrfn\DrCommon\PartnerMng\ChartItemStock.cpp

; 697  : 				memcpy(stBong.open, strData, min(strData.GetLength(), sizeof(stBong.open)));

  015e5	be 0a 00 00 00	 mov	 esi, 10			; 0000000aH
  015ea	8b d6		 mov	 edx, esi
  015ec	39 50 f4	 cmp	 DWORD PTR [eax-12], edx
  015ef	0f 42 50 f4	 cmovb	 edx, DWORD PTR [eax-12]
  015f3	52		 push	 edx
  015f4	50		 push	 eax
  015f5	8d 45 a8	 lea	 eax, DWORD PTR _stBong$51[ebp+8]
  015f8	50		 push	 eax
  015f9	e8 00 00 00 00	 call	 _memcpy

; 698  : 				// 
; 699  : 				strData = CDataConverter::Get_PercentData(stBong.high, dDenom, sizeof(stBong.high));

  015fe	f2 0f 10 85 b0
	fc ff ff	 movsd	 xmm0, QWORD PTR _dDenom$2$[ebp]
  01606	8d 45 b2	 lea	 eax, DWORD PTR _stBong$51[ebp+18]
  01609	83 c4 0c	 add	 esp, 12			; 0000000cH
  0160c	56		 push	 esi
  0160d	83 ec 08	 sub	 esp, 8
  01610	f2 0f 11 04 24	 movsd	 QWORD PTR [esp], xmm0
  01615	50		 push	 eax
  01616	8d 85 94 fc ff
	ff		 lea	 eax, DWORD PTR $T17[ebp]
  0161c	50		 push	 eax
  0161d	e8 00 00 00 00	 call	 ?Get_PercentData@CDataConverter@@SA?AV?$CStringT@DV?$StrTraitMFC_DLL@DV?$ChTraitsCRT@D@ATL@@@@@ATL@@PADNH@Z ; CDataConverter::Get_PercentData
  01622	83 c4 14	 add	 esp, 20			; 00000014H
  01625	50		 push	 eax
  01626	8d 8d dc fc ff
	ff		 lea	 ecx, DWORD PTR _strData$31[ebp]
  0162c	c6 45 fc 45	 mov	 BYTE PTR __$EHRec$[ebp+8], 69 ; 00000045H
  01630	ff 15 00 00 00
	00		 call	 DWORD PTR __imp_??4?$CStringT@DV?$StrTraitMFC_DLL@DV?$ChTraitsCRT@D@ATL@@@@@ATL@@QAEAAV01@ABV01@@Z
  01636	8d 8d 94 fc ff
	ff		 lea	 ecx, DWORD PTR $T17[ebp]
  0163c	c6 45 fc 3f	 mov	 BYTE PTR __$EHRec$[ebp+8], 63 ; 0000003fH
  01640	ff 15 00 00 00
	00		 call	 DWORD PTR __imp_??1?$CStringT@DV?$StrTraitMFC_DLL@DV?$ChTraitsCRT@D@ATL@@@@@ATL@@QAE@XZ
; File C:\Program Files (x86)\Microsoft Visual Studio\2019\Community\VC\Tools\MSVC\14.29.30133\atlmfc\include\atlsimpstr.h

; 519  : 		return( GetData()->nDataLength );

  01646	8b 85 dc fc ff
	ff		 mov	 eax, DWORD PTR _strData$31[ebp]
; File D:\git\src\IBK\IBK_DRFN\ProjSrc\SrcDrfn\DrCommon\PartnerMng\ChartItemStock.cpp

; 700  : 				memcpy(stBong.high, strData, min(strData.GetLength(), sizeof(stBong.high)));

  0164c	8b d6		 mov	 edx, esi
  0164e	39 50 f4	 cmp	 DWORD PTR [eax-12], edx
  01651	0f 42 50 f4	 cmovb	 edx, DWORD PTR [eax-12]
  01655	52		 push	 edx
  01656	50		 push	 eax
  01657	8d 45 b2	 lea	 eax, DWORD PTR _stBong$51[ebp+18]
  0165a	50		 push	 eax
  0165b	e8 00 00 00 00	 call	 _memcpy

; 701  : 				// 
; 702  : 				strData = CDataConverter::Get_PercentData(stBong.low, dDenom, sizeof(stBong.low));

  01660	f2 0f 10 85 b0
	fc ff ff	 movsd	 xmm0, QWORD PTR _dDenom$2$[ebp]
  01668	8d 45 bc	 lea	 eax, DWORD PTR _stBong$51[ebp+28]
  0166b	83 c4 0c	 add	 esp, 12			; 0000000cH
  0166e	56		 push	 esi
  0166f	83 ec 08	 sub	 esp, 8
  01672	f2 0f 11 04 24	 movsd	 QWORD PTR [esp], xmm0
  01677	50		 push	 eax
  01678	8d 85 64 fc ff
	ff		 lea	 eax, DWORD PTR $T9[ebp]
  0167e	50		 push	 eax
  0167f	e8 00 00 00 00	 call	 ?Get_PercentData@CDataConverter@@SA?AV?$CStringT@DV?$StrTraitMFC_DLL@DV?$ChTraitsCRT@D@ATL@@@@@ATL@@PADNH@Z ; CDataConverter::Get_PercentData
  01684	83 c4 14	 add	 esp, 20			; 00000014H
  01687	50		 push	 eax
  01688	8d 8d dc fc ff
	ff		 lea	 ecx, DWORD PTR _strData$31[ebp]
  0168e	c6 45 fc 46	 mov	 BYTE PTR __$EHRec$[ebp+8], 70 ; 00000046H
  01692	ff 15 00 00 00
	00		 call	 DWORD PTR __imp_??4?$CStringT@DV?$StrTraitMFC_DLL@DV?$ChTraitsCRT@D@ATL@@@@@ATL@@QAEAAV01@ABV01@@Z
  01698	8d 8d 64 fc ff
	ff		 lea	 ecx, DWORD PTR $T9[ebp]
  0169e	c6 45 fc 3f	 mov	 BYTE PTR __$EHRec$[ebp+8], 63 ; 0000003fH
  016a2	ff 15 00 00 00
	00		 call	 DWORD PTR __imp_??1?$CStringT@DV?$StrTraitMFC_DLL@DV?$ChTraitsCRT@D@ATL@@@@@ATL@@QAE@XZ
; File C:\Program Files (x86)\Microsoft Visual Studio\2019\Community\VC\Tools\MSVC\14.29.30133\atlmfc\include\atlsimpstr.h

; 519  : 		return( GetData()->nDataLength );

  016a8	8b 85 dc fc ff
	ff		 mov	 eax, DWORD PTR _strData$31[ebp]
; File D:\git\src\IBK\IBK_DRFN\ProjSrc\SrcDrfn\DrCommon\PartnerMng\ChartItemStock.cpp

; 703  : 				memcpy(stBong.low, strData, min(strData.GetLength(), sizeof(stBong.low)));

  016ae	8b d6		 mov	 edx, esi
  016b0	39 50 f4	 cmp	 DWORD PTR [eax-12], edx
  016b3	0f 42 50 f4	 cmovb	 edx, DWORD PTR [eax-12]
  016b7	52		 push	 edx
  016b8	50		 push	 eax
  016b9	8d 45 bc	 lea	 eax, DWORD PTR _stBong$51[ebp+28]
  016bc	50		 push	 eax
  016bd	e8 00 00 00 00	 call	 _memcpy

; 704  : 				// 
; 705  : 				strData = CDataConverter::Get_PercentData(stBong.close, dDenom, sizeof(stBong.close));

  016c2	f2 0f 10 85 b0
	fc ff ff	 movsd	 xmm0, QWORD PTR _dDenom$2$[ebp]
  016ca	8d 45 c6	 lea	 eax, DWORD PTR _stBong$51[ebp+38]
  016cd	83 c4 0c	 add	 esp, 12			; 0000000cH
  016d0	56		 push	 esi
  016d1	83 ec 08	 sub	 esp, 8
  016d4	f2 0f 11 04 24	 movsd	 QWORD PTR [esp], xmm0
  016d9	50		 push	 eax
  016da	8d 85 7c fc ff
	ff		 lea	 eax, DWORD PTR $T13[ebp]
  016e0	50		 push	 eax
  016e1	e8 00 00 00 00	 call	 ?Get_PercentData@CDataConverter@@SA?AV?$CStringT@DV?$StrTraitMFC_DLL@DV?$ChTraitsCRT@D@ATL@@@@@ATL@@PADNH@Z ; CDataConverter::Get_PercentData
  016e6	83 c4 14	 add	 esp, 20			; 00000014H
  016e9	50		 push	 eax
  016ea	8d 8d dc fc ff
	ff		 lea	 ecx, DWORD PTR _strData$31[ebp]
  016f0	c6 45 fc 47	 mov	 BYTE PTR __$EHRec$[ebp+8], 71 ; 00000047H
  016f4	ff 15 00 00 00
	00		 call	 DWORD PTR __imp_??4?$CStringT@DV?$StrTraitMFC_DLL@DV?$ChTraitsCRT@D@ATL@@@@@ATL@@QAEAAV01@ABV01@@Z
  016fa	8d 8d 7c fc ff
	ff		 lea	 ecx, DWORD PTR $T13[ebp]
  01700	c6 45 fc 3f	 mov	 BYTE PTR __$EHRec$[ebp+8], 63 ; 0000003fH
  01704	ff 15 00 00 00
	00		 call	 DWORD PTR __imp_??1?$CStringT@DV?$StrTraitMFC_DLL@DV?$ChTraitsCRT@D@ATL@@@@@ATL@@QAE@XZ
; File C:\Program Files (x86)\Microsoft Visual Studio\2019\Community\VC\Tools\MSVC\14.29.30133\atlmfc\include\atlsimpstr.h

; 519  : 		return( GetData()->nDataLength );

  0170a	8b 85 dc fc ff
	ff		 mov	 eax, DWORD PTR _strData$31[ebp]
; File D:\git\src\IBK\IBK_DRFN\ProjSrc\SrcDrfn\DrCommon\PartnerMng\ChartItemStock.cpp

; 706  : 				memcpy(stBong.close, strData, min(strData.GetLength(), sizeof(stBong.close)));

  01710	8b d6		 mov	 edx, esi
  01712	39 50 f4	 cmp	 DWORD PTR [eax-12], edx
  01715	0f 42 50 f4	 cmovb	 edx, DWORD PTR [eax-12]
  01719	52		 push	 edx
  0171a	50		 push	 eax
  0171b	8d 45 c6	 lea	 eax, DWORD PTR _stBong$51[ebp+38]
  0171e	50		 push	 eax
  0171f	e8 00 00 00 00	 call	 _memcpy

; 707  : 				
; 708  : 				memcpy(&pDataBuf[nPosBong + nRow*nBongSize], &stBong, nBongSize);

  01724	8b 85 cc fc ff
	ff		 mov	 eax, DWORD PTR tv3360[ebp]
  0172a	8d 75 a0	 lea	 esi, DWORD PTR _stBong$51[ebp]
  0172d	8b f8		 mov	 edi, eax
  0172f	f2 0f 10 85 b0
	fc ff ff	 movsd	 xmm0, QWORD PTR _dDenom$2$[ebp]
  01737	b9 13 00 00 00	 mov	 ecx, 19			; 00000013H
  0173c	83 c0 4e	 add	 eax, 78			; 0000004eH
  0173f	f3 a5		 rep movsd
  01741	83 c4 0c	 add	 esp, 12			; 0000000cH
  01744	89 85 cc fc ff
	ff		 mov	 DWORD PTR tv3360[ebp], eax
  0174a	83 ad d0 fc ff
	ff 01		 sub	 DWORD PTR _nCnt$1$[ebp], 1
  01751	66 a5		 movsw
  01753	0f 85 3a fe ff
	ff		 jne	 $LL14@Convert2St
$LN664@Convert2St:

; 709  : 			}
; 710  : 		}
; 711  : 	}

  01759	8b bd 8c fc ff
	ff		 mov	 edi, DWORD PTR _this$GSCopy$1$[ebp]
$LN13@Convert2St:
  0175f	8d 8d dc fc ff
	ff		 lea	 ecx, DWORD PTR _strData$31[ebp]
  01765	c6 45 fc 32	 mov	 BYTE PTR __$EHRec$[ebp+8], 50 ; 00000032H
  01769	ff 15 00 00 00
	00		 call	 DWORD PTR __imp_??1?$CStringT@DV?$StrTraitMFC_DLL@DV?$ChTraitsCRT@D@ATL@@@@@ATL@@QAE@XZ
$LN65@Convert2St:

; 712  : 
; 713  : 	//////////////////////////////////////////////////////////////////////////
; 714  : 	//   
; 715  : 	CChartBozoManager bojoMng;

  0176f	8d 8d f4 fb ff
	ff		 lea	 ecx, DWORD PTR _bojoMng$[ebp]
  01775	e8 00 00 00 00	 call	 ??0CChartBozoManager@@QAE@XZ ; CChartBozoManager::CChartBozoManager

; 716  : 	m_bojoInput.m_sShcode = strCode;

  0177a	8d 85 6c fc ff
	ff		 lea	 eax, DWORD PTR _strCode$[ebp]
  01780	50		 push	 eax
  01781	8d 4f 7c	 lea	 ecx, DWORD PTR [edi+124]
  01784	ff 15 00 00 00
	00		 call	 DWORD PTR __imp_??4?$CStringT@DV?$StrTraitMFC_DLL@DV?$ChTraitsCRT@D@ATL@@@@@ATL@@QAEAAV01@ABV01@@Z

; 717  : 	m_bojoInput.m_sPrice = strPrice;		// 

  0178a	8d 85 bc fc ff
	ff		 lea	 eax, DWORD PTR _strPrice$[ebp]
  01790	50		 push	 eax
  01791	8d 8f 90 00 00
	00		 lea	 ecx, DWORD PTR [edi+144]
  01797	ff 15 00 00 00
	00		 call	 DWORD PTR __imp_??4?$CStringT@DV?$StrTraitMFC_DLL@DV?$ChTraitsCRT@D@ATL@@@@@ATL@@QAEAAV01@ABV01@@Z

; 718  : 	m_bojoInput.m_sVolume = strVolume;		// 

  0179d	8d 85 40 fc ff
	ff		 lea	 eax, DWORD PTR _strVolume$[ebp]
  017a3	50		 push	 eax
  017a4	8d 8f 94 00 00
	00		 lea	 ecx, DWORD PTR [edi+148]
  017aa	ff 15 00 00 00
	00		 call	 DWORD PTR __imp_??4?$CStringT@DV?$StrTraitMFC_DLL@DV?$ChTraitsCRT@D@ATL@@@@@ATL@@QAEAAV01@ABV01@@Z

; 719  : 	m_bojoInput.m_sUpLmtPrice = strHighLimit;	// 

  017b0	8d 85 a4 fc ff
	ff		 lea	 eax, DWORD PTR _strHighLimit$[ebp]
  017b6	50		 push	 eax
  017b7	8d 8f 98 00 00
	00		 lea	 ecx, DWORD PTR [edi+152]
  017bd	ff 15 00 00 00
	00		 call	 DWORD PTR __imp_??4?$CStringT@DV?$StrTraitMFC_DLL@DV?$ChTraitsCRT@D@ATL@@@@@ATL@@QAEAAV01@ABV01@@Z

; 720  : 	m_bojoInput.m_sDnLmtPrice = strLowLimit;	// 

  017c3	8d 85 a8 fc ff
	ff		 lea	 eax, DWORD PTR _strLowLimit$[ebp]
  017c9	50		 push	 eax
  017ca	8d 8f 9c 00 00
	00		 lea	 ecx, DWORD PTR [edi+156]
  017d0	ff 15 00 00 00
	00		 call	 DWORD PTR __imp_??4?$CStringT@DV?$StrTraitMFC_DLL@DV?$ChTraitsCRT@D@ATL@@@@@ATL@@QAEAAV01@ABV01@@Z

; 721  : 	m_bojoInput.m_sOpen = strOpen;		// 

  017d6	8d 85 b8 fc ff
	ff		 lea	 eax, DWORD PTR _strOpen$[ebp]
  017dc	50		 push	 eax
  017dd	8d 8f a0 00 00
	00		 lea	 ecx, DWORD PTR [edi+160]
  017e3	ff 15 00 00 00
	00		 call	 DWORD PTR __imp_??4?$CStringT@DV?$StrTraitMFC_DLL@DV?$ChTraitsCRT@D@ATL@@@@@ATL@@QAEAAV01@ABV01@@Z

; 722  : 	m_bojoInput.m_sHigh = strHigh;		// 

  017e9	8d 85 9c fc ff
	ff		 lea	 eax, DWORD PTR _strHigh$[ebp]
  017ef	50		 push	 eax
  017f0	8d 8f a4 00 00
	00		 lea	 ecx, DWORD PTR [edi+164]
  017f6	ff 15 00 00 00
	00		 call	 DWORD PTR __imp_??4?$CStringT@DV?$StrTraitMFC_DLL@DV?$ChTraitsCRT@D@ATL@@@@@ATL@@QAEAAV01@ABV01@@Z

; 723  : 	m_bojoInput.m_sLow = strLow;			// 

  017fc	8d 85 a0 fc ff
	ff		 lea	 eax, DWORD PTR _strLow$[ebp]
  01802	50		 push	 eax
  01803	8d 8f a8 00 00
	00		 lea	 ecx, DWORD PTR [edi+168]
  01809	ff 15 00 00 00
	00		 call	 DWORD PTR __imp_??4?$CStringT@DV?$StrTraitMFC_DLL@DV?$ChTraitsCRT@D@ATL@@@@@ATL@@QAEAAV01@ABV01@@Z

; 724  : //@Solomon:091123SM068 -->
; 725  : 	m_bojoInput.m_sPreOpen = strPreOpen;		// 

  0180f	8d 85 70 fc ff
	ff		 lea	 eax, DWORD PTR _strPreOpen$[ebp]
  01815	50		 push	 eax
  01816	8d 8f bc 00 00
	00		 lea	 ecx, DWORD PTR [edi+188]
  0181c	ff 15 00 00 00
	00		 call	 DWORD PTR __imp_??4?$CStringT@DV?$StrTraitMFC_DLL@DV?$ChTraitsCRT@D@ATL@@@@@ATL@@QAEAAV01@ABV01@@Z

; 726  : 	m_bojoInput.m_sPreHigh = strPreHigh;		// 

  01822	8d 85 80 fc ff
	ff		 lea	 eax, DWORD PTR _strPreHigh$[ebp]
  01828	50		 push	 eax
  01829	8d 8f c0 00 00
	00		 lea	 ecx, DWORD PTR [edi+192]
  0182f	ff 15 00 00 00
	00		 call	 DWORD PTR __imp_??4?$CStringT@DV?$StrTraitMFC_DLL@DV?$ChTraitsCRT@D@ATL@@@@@ATL@@QAEAAV01@ABV01@@Z

; 727  : 	m_bojoInput.m_sPreLow = strPreLow;		// 

  01835	8d 85 84 fc ff
	ff		 lea	 eax, DWORD PTR _strPreLow$[ebp]
  0183b	50		 push	 eax
  0183c	8d 8f c4 00 00
	00		 lea	 ecx, DWORD PTR [edi+196]
  01842	ff 15 00 00 00
	00		 call	 DWORD PTR __imp_??4?$CStringT@DV?$StrTraitMFC_DLL@DV?$ChTraitsCRT@D@ATL@@@@@ATL@@QAEAAV01@ABV01@@Z

; 728  : 	m_bojoInput.m_sWonDollor = strWonDollar;	//  

  01848	8d 85 28 fc ff
	ff		 lea	 eax, DWORD PTR _strWonDollar$[ebp]
  0184e	50		 push	 eax
  0184f	8d 8f c8 00 00
	00		 lea	 ecx, DWORD PTR [edi+200]
  01855	ff 15 00 00 00
	00		 call	 DWORD PTR __imp_??4?$CStringT@DV?$StrTraitMFC_DLL@DV?$ChTraitsCRT@D@ATL@@@@@ATL@@QAEAAV01@ABV01@@Z

; 729  : //@Solomon:091123SM068 <--
; 730  : 	m_bojoInput.m_sPreprice = strPrePrice;	// 

  0185b	8d 85 98 fc ff
	ff		 lea	 eax, DWORD PTR _strPrePrice$[ebp]
  01861	50		 push	 eax
  01862	8d 8f ac 00 00
	00		 lea	 ecx, DWORD PTR [edi+172]
  01868	ff 15 00 00 00
	00		 call	 DWORD PTR __imp_??4?$CStringT@DV?$StrTraitMFC_DLL@DV?$ChTraitsCRT@D@ATL@@@@@ATL@@QAEAAV01@ABV01@@Z

; 731  : 	m_bojoInput.m_sPreVolume = strPreVolume;	// 

  0186e	8d 85 24 fc ff
	ff		 lea	 eax, DWORD PTR _strPreVolume$[ebp]
  01874	50		 push	 eax
  01875	8d 8f b0 00 00
	00		 lea	 ecx, DWORD PTR [edi+176]
  0187b	ff 15 00 00 00
	00		 call	 DWORD PTR __imp_??4?$CStringT@DV?$StrTraitMFC_DLL@DV?$ChTraitsCRT@D@ATL@@@@@ATL@@QAEAAV01@ABV01@@Z

; 732  : 	m_bojoInput.m_sStartTime = strResetTime;//"090000";	// (HHMMSS) <<!>>

  01881	8d 85 38 fc ff
	ff		 lea	 eax, DWORD PTR _strResetTime$[ebp]
  01887	50		 push	 eax
  01888	8d 8f b4 00 00
	00		 lea	 ecx, DWORD PTR [edi+180]
  0188e	ff 15 00 00 00
	00		 call	 DWORD PTR __imp_??4?$CStringT@DV?$StrTraitMFC_DLL@DV?$ChTraitsCRT@D@ATL@@@@@ATL@@QAEAAV01@ABV01@@Z

; 733  : 	m_bojoInput.m_sFirstClose = CString(stFirstBong.close, sizeof(stFirstBong.close));	//   .

  01894	6a 0a		 push	 10			; 0000000aH
  01896	8d 85 76 ff ff
	ff		 lea	 eax, DWORD PTR _stFirstBong$[ebp+38]
  0189c	50		 push	 eax
  0189d	8d 8d d8 fc ff
	ff		 lea	 ecx, DWORD PTR $T27[ebp]
  018a3	ff 15 00 00 00
	00		 call	 DWORD PTR __imp_??0?$CStringT@DV?$StrTraitMFC_DLL@DV?$ChTraitsCRT@D@ATL@@@@@ATL@@QAE@PBDH@Z
  018a9	50		 push	 eax
  018aa	8d 8f b8 00 00
	00		 lea	 ecx, DWORD PTR [edi+184]
  018b0	c6 45 fc 48	 mov	 BYTE PTR __$EHRec$[ebp+8], 72 ; 00000048H
  018b4	ff 15 00 00 00
	00		 call	 DWORD PTR __imp_??4?$CStringT@DV?$StrTraitMFC_DLL@DV?$ChTraitsCRT@D@ATL@@@@@ATL@@QAEAAV01@ABV01@@Z
  018ba	8d 8d d8 fc ff
	ff		 lea	 ecx, DWORD PTR $T27[ebp]
  018c0	c6 45 fc 32	 mov	 BYTE PTR __$EHRec$[ebp+8], 50 ; 00000032H
  018c4	ff 15 00 00 00
	00		 call	 DWORD PTR __imp_??1?$CStringT@DV?$StrTraitMFC_DLL@DV?$ChTraitsCRT@D@ATL@@@@@ATL@@QAE@XZ

; 734  : 
; 735  : 	m_bojoInput.m_sDataType.Format(_T("%c"), m_InData.nDataGubun[0]);

  018ca	0f be 47 5d	 movsx	 eax, BYTE PTR [edi+93]
  018ce	50		 push	 eax
  018cf	8d 87 8c 00 00
	00		 lea	 eax, DWORD PTR [edi+140]
  018d5	68 00 00 00 00	 push	 OFFSET ??_C@_02HAOIJKIC@?$CFc@
  018da	50		 push	 eax
  018db	ff 15 00 00 00
	00		 call	 DWORD PTR __imp_?Format@?$CStringT@DV?$StrTraitMFC_DLL@DV?$ChTraitsCRT@D@ATL@@@@@ATL@@QAAXPBDZZ
  018e1	83 c4 0c	 add	 esp, 12			; 0000000cH

; 736  : 	m_bojoInput.m_sMarket = _T("1");			//	.   .

  018e4	8d 4f 78	 lea	 ecx, DWORD PTR [edi+120]
  018e7	68 00 00 00 00	 push	 OFFSET ??_C@_01HIHLOKLC@1@
  018ec	ff 15 00 00 00
	00		 call	 DWORD PTR __imp_??4?$CStringT@DV?$StrTraitMFC_DLL@DV?$ChTraitsCRT@D@ATL@@@@@ATL@@QAEAAV01@PBD@Z

; 737  : 	m_bojoInput.m_sNxtFlg = m_InData.nflag[0];

  018f2	0f b6 47 40	 movzx	 eax, BYTE PTR [edi+64]
  018f6	8d 8f 88 00 00
	00		 lea	 ecx, DWORD PTR [edi+136]
  018fc	50		 push	 eax
  018fd	ff 15 00 00 00
	00		 call	 DWORD PTR __imp_??4?$CStringT@DV?$StrTraitMFC_DLL@DV?$ChTraitsCRT@D@ATL@@@@@ATL@@QAEAAV01@D@Z

; 738  : 
; 739  : 	m_bojoInput.m_sTerm.Format("%d", nType);	//	,,

  01903	8b b5 c0 fc ff
	ff		 mov	 esi, DWORD PTR _nType$1$[ebp]
  01909	8d 87 84 00 00
	00		 lea	 eax, DWORD PTR [edi+132]
  0190f	56		 push	 esi
  01910	68 00 00 00 00	 push	 OFFSET ??_C@_02DPKJAMEF@?$CFd@
  01915	50		 push	 eax
  01916	ff 15 00 00 00
	00		 call	 DWORD PTR __imp_?Format@?$CStringT@DV?$StrTraitMFC_DLL@DV?$ChTraitsCRT@D@ATL@@@@@ATL@@QAAXPBDZZ
  0191c	83 c4 0c	 add	 esp, 12			; 0000000cH

; 740  : 	m_bojoInput.m_sTick = CString(m_InData.unit, sizeof(m_InData.unit));

  0191f	8d 47 3b	 lea	 eax, DWORD PTR [edi+59]
  01922	8d 8d 94 fc ff
	ff		 lea	 ecx, DWORD PTR $T16[ebp]
  01928	6a 03		 push	 3
  0192a	50		 push	 eax
  0192b	ff 15 00 00 00
	00		 call	 DWORD PTR __imp_??0?$CStringT@DV?$StrTraitMFC_DLL@DV?$ChTraitsCRT@D@ATL@@@@@ATL@@QAE@PBDH@Z
  01931	8d 8f 80 00 00
	00		 lea	 ecx, DWORD PTR [edi+128]
  01937	c6 45 fc 49	 mov	 BYTE PTR __$EHRec$[ebp+8], 73 ; 00000049H
  0193b	50		 push	 eax
  0193c	ff 15 00 00 00
	00		 call	 DWORD PTR __imp_??4?$CStringT@DV?$StrTraitMFC_DLL@DV?$ChTraitsCRT@D@ATL@@@@@ATL@@QAEAAV01@ABV01@@Z
  01942	8d 8d 94 fc ff
	ff		 lea	 ecx, DWORD PTR $T16[ebp]
  01948	c6 45 fc 32	 mov	 BYTE PTR __$EHRec$[ebp+8], 50 ; 00000032H
  0194c	ff 15 00 00 00
	00		 call	 DWORD PTR __imp_??1?$CStringT@DV?$StrTraitMFC_DLL@DV?$ChTraitsCRT@D@ATL@@@@@ATL@@QAE@XZ

; 741  : 	if (nType == 1)

  01952	83 fe 01	 cmp	 esi, 1
  01955	0f 85 10 04 00
	00		 jne	 $LN73@Convert2St

; 742  : 	{
; 743  : 		//{{JS.Kim_20100903 Solomon 60      
; 744  : 		int nTick = atoi(m_bojoInput.m_sTick);

  0195b	ff b7 80 00 00
	00		 push	 DWORD PTR [edi+128]
  01961	8d b7 80 00 00
	00		 lea	 esi, DWORD PTR [edi+128]
  01967	ff 15 00 00 00
	00		 call	 DWORD PTR __imp__atoi
  0196d	8b c8		 mov	 ecx, eax
  0196f	83 c4 04	 add	 esp, 4

; 745  : 		if( nTick >= 60 )

  01972	83 f9 3c	 cmp	 ecx, 60			; 0000003cH
  01975	0f 8c 09 04 00
	00		 jl	 $LN76@Convert2St

; 746  : 			m_bojoInput.m_sTick.Format("%d", (nTick/ 60) * 100 + nTick % 60);

  0197b	b8 89 88 88 88	 mov	 eax, -2004318071	; 88888889H
  01980	f7 e9		 imul	 ecx
  01982	03 d1		 add	 edx, ecx
  01984	c1 fa 05	 sar	 edx, 5
  01987	8b c2		 mov	 eax, edx
  01989	c1 e8 1f	 shr	 eax, 31			; 0000001fH
  0198c	03 c2		 add	 eax, edx
  0198e	8d 04 80	 lea	 eax, DWORD PTR [eax+eax*4]
  01991	8d 04 c1	 lea	 eax, DWORD PTR [ecx+eax*8]
  01994	50		 push	 eax
  01995	68 00 00 00 00	 push	 OFFSET ??_C@_02DPKJAMEF@?$CFd@
  0199a	56		 push	 esi
  0199b	ff 15 00 00 00
	00		 call	 DWORD PTR __imp_?Format@?$CStringT@DV?$StrTraitMFC_DLL@DV?$ChTraitsCRT@D@ATL@@@@@ATL@@QAAXPBDZZ
  019a1	83 c4 0c	 add	 esp, 12			; 0000000cH

; 747  : 		//}}
; 748  : 	}

  019a4	e9 db 03 00 00	 jmp	 $LN76@Convert2St
$LN68@Convert2St:
  019a9	66 0f 6e 85 cc
	fc ff ff	 movd	 xmm0, DWORD PTR _nPrice$1$[ebp]

; 639  : 		case 4:	dDenom = nPrice;			break;	// 

  019b1	f3 0f e6 c0	 cvtdq2pd xmm0, xmm0
  019b5	e9 b3 fb ff ff	 jmp	 $LN663@Convert2St
$LN69@Convert2St:

; 640  : 		case 5:	dDenom = atof(strPrePrice);	break;	// 

  019ba	ff b5 98 fc ff
	ff		 push	 DWORD PTR _strPrePrice$[ebp]
  019c0	e9 91 fb ff ff	 jmp	 $LN665@Convert2St
$LN70@Convert2St:

; 641  : 		case 2:
; 642  : 			dDenom = dUSDollar;

  019c5	f2 0f 10 85 60
	fc ff ff	 movsd	 xmm0, QWORD PTR _dUSDollar$8[ebp]

; 643  : 
; 644  : 			dData = atof(strPrePrice)*100 / dUSDollar;

  019cd	ff b5 98 fc ff
	ff		 push	 DWORD PTR _strPrePrice$[ebp]
  019d3	f2 0f 11 85 b0
	fc ff ff	 movsd	 QWORD PTR _dDenom$1$[ebp], xmm0
  019db	ff 15 00 00 00
	00		 call	 DWORD PTR __imp__atof
  019e1	dc 0d 00 00 00
	00		 fmul	 QWORD PTR __real@4059000000000000

; 645  : 			strPrePrice.Format(_T("%ld"), (long)dData);

  019e7	8b 35 00 00 00
	00		 mov	 esi, DWORD PTR __imp_?Format@?$CStringT@DV?$StrTraitMFC_DLL@DV?$ChTraitsCRT@D@ATL@@@@@ATL@@QAAXPBDZZ
  019ed	dc b5 90 fc ff
	ff		 fdiv	 QWORD PTR _dUSDollar$1$[ebp]
  019f3	dd 9d d4 fc ff
	ff		 fstp	 QWORD PTR _dData$25[ebp]
  019f9	f2 0f 2c 85 d4
	fc ff ff	 cvttsd2si eax, QWORD PTR _dData$25[ebp]
  01a01	50		 push	 eax
  01a02	8d 85 98 fc ff
	ff		 lea	 eax, DWORD PTR _strPrePrice$[ebp]
  01a08	68 00 00 00 00	 push	 OFFSET ??_C@_03JALODAI@?$CFld@
  01a0d	50		 push	 eax
  01a0e	ff d6		 call	 esi

; 646  : 			dData = atof(strLowLimit)*100 / dUSDollar;

  01a10	ff b5 a8 fc ff
	ff		 push	 DWORD PTR _strLowLimit$[ebp]
  01a16	ff 15 00 00 00
	00		 call	 DWORD PTR __imp__atof
  01a1c	dc 0d 00 00 00
	00		 fmul	 QWORD PTR __real@4059000000000000
  01a22	dc b5 90 fc ff
	ff		 fdiv	 QWORD PTR _dUSDollar$1$[ebp]
  01a28	dd 9d d4 fc ff
	ff		 fstp	 QWORD PTR _dData$25[ebp]

; 647  : 			strLowLimit.Format(_T("%ld"), (long)dData);

  01a2e	f2 0f 2c 85 d4
	fc ff ff	 cvttsd2si eax, QWORD PTR _dData$25[ebp]
  01a36	50		 push	 eax
  01a37	8d 85 a8 fc ff
	ff		 lea	 eax, DWORD PTR _strLowLimit$[ebp]
  01a3d	68 00 00 00 00	 push	 OFFSET ??_C@_03JALODAI@?$CFld@
  01a42	50		 push	 eax
  01a43	ff d6		 call	 esi

; 648  : 
; 649  : 			dData = atof(strHighLimit)*100 / dUSDollar;

  01a45	ff b5 a4 fc ff
	ff		 push	 DWORD PTR _strHighLimit$[ebp]
  01a4b	ff 15 00 00 00
	00		 call	 DWORD PTR __imp__atof
  01a51	dc 0d 00 00 00
	00		 fmul	 QWORD PTR __real@4059000000000000
  01a57	dc b5 90 fc ff
	ff		 fdiv	 QWORD PTR _dUSDollar$1$[ebp]
  01a5d	dd 9d d4 fc ff
	ff		 fstp	 QWORD PTR _dData$25[ebp]

; 650  : 			strHighLimit.Format(_T("%ld"), (long)dData);

  01a63	f2 0f 2c 85 d4
	fc ff ff	 cvttsd2si eax, QWORD PTR _dData$25[ebp]
  01a6b	50		 push	 eax
  01a6c	8d 85 a4 fc ff
	ff		 lea	 eax, DWORD PTR _strHighLimit$[ebp]
  01a72	68 00 00 00 00	 push	 OFFSET ??_C@_03JALODAI@?$CFld@
  01a77	50		 push	 eax
  01a78	ff d6		 call	 esi

; 651  :  ////KHD :    			
; 652  :  		dData = atof(strOpen)*100 ;// dUSDollar;

  01a7a	ff b5 b8 fc ff
	ff		 push	 DWORD PTR _strOpen$[ebp]
  01a80	ff 15 00 00 00
	00		 call	 DWORD PTR __imp__atof
  01a86	dc 0d 00 00 00
	00		 fmul	 QWORD PTR __real@4059000000000000
  01a8c	dd 9d d4 fc ff
	ff		 fstp	 QWORD PTR _dData$25[ebp]

; 653  :  			strOpen.Format(_T("%ld"), (long)dData);

  01a92	f2 0f 2c 85 d4
	fc ff ff	 cvttsd2si eax, QWORD PTR _dData$25[ebp]
  01a9a	50		 push	 eax
  01a9b	8d 85 b8 fc ff
	ff		 lea	 eax, DWORD PTR _strOpen$[ebp]
  01aa1	68 00 00 00 00	 push	 OFFSET ??_C@_03JALODAI@?$CFld@
  01aa6	50		 push	 eax
  01aa7	ff d6		 call	 esi
  01aa9	83 c4 40	 add	 esp, 64			; 00000040H

; 654  :  			dData = atof(strHigh)*100 ;// dUSDollar;

  01aac	ff b5 9c fc ff
	ff		 push	 DWORD PTR _strHigh$[ebp]
  01ab2	ff 15 00 00 00
	00		 call	 DWORD PTR __imp__atof
  01ab8	dc 0d 00 00 00
	00		 fmul	 QWORD PTR __real@4059000000000000
  01abe	dd 9d d4 fc ff
	ff		 fstp	 QWORD PTR _dData$25[ebp]

; 655  :  			strHigh.Format(_T("%ld"), (long)dData);

  01ac4	f2 0f 2c 85 d4
	fc ff ff	 cvttsd2si eax, QWORD PTR _dData$25[ebp]
  01acc	50		 push	 eax
  01acd	8d 85 9c fc ff
	ff		 lea	 eax, DWORD PTR _strHigh$[ebp]
  01ad3	68 00 00 00 00	 push	 OFFSET ??_C@_03JALODAI@?$CFld@
  01ad8	50		 push	 eax
  01ad9	ff d6		 call	 esi

; 656  :  			dData = atof(strLow)*100 ;// dUSDollar;

  01adb	ff b5 a0 fc ff
	ff		 push	 DWORD PTR _strLow$[ebp]
  01ae1	ff 15 00 00 00
	00		 call	 DWORD PTR __imp__atof
  01ae7	dc 0d 00 00 00
	00		 fmul	 QWORD PTR __real@4059000000000000
  01aed	dd 9d d4 fc ff
	ff		 fstp	 QWORD PTR _dData$25[ebp]

; 657  :  			strLow.Format(_T("%ld"), (long)dData);

  01af3	f2 0f 2c 85 d4
	fc ff ff	 cvttsd2si eax, QWORD PTR _dData$25[ebp]
  01afb	50		 push	 eax
  01afc	8d 85 a0 fc ff
	ff		 lea	 eax, DWORD PTR _strLow$[ebp]
  01b02	68 00 00 00 00	 push	 OFFSET ??_C@_03JALODAI@?$CFld@
  01b07	50		 push	 eax
  01b08	ff d6		 call	 esi

; 658  : //END 
; 659  : 			dData = atof(strPrice)*100 / dUSDollar;

  01b0a	ff b5 bc fc ff
	ff		 push	 DWORD PTR _strPrice$[ebp]
  01b10	ff 15 00 00 00
	00		 call	 DWORD PTR __imp__atof
  01b16	dc 0d 00 00 00
	00		 fmul	 QWORD PTR __real@4059000000000000
  01b1c	dc b5 90 fc ff
	ff		 fdiv	 QWORD PTR _dUSDollar$1$[ebp]
  01b22	dd 9d d4 fc ff
	ff		 fstp	 QWORD PTR _dData$25[ebp]

; 660  : 			strPrice.Format(_T("%ld"), (long)dData);

  01b28	f2 0f 2c 85 d4
	fc ff ff	 cvttsd2si eax, QWORD PTR _dData$25[ebp]
  01b30	50		 push	 eax
  01b31	8d 85 bc fc ff
	ff		 lea	 eax, DWORD PTR _strPrice$[ebp]
  01b37	68 00 00 00 00	 push	 OFFSET ??_C@_03JALODAI@?$CFld@
  01b3c	50		 push	 eax
  01b3d	ff d6		 call	 esi

; 661  : 
; 662  : 			strWonDollar.Format(_T("%ld"), (long)dUSDollar);

  01b3f	f2 0f 2c 85 60
	fc ff ff	 cvttsd2si eax, QWORD PTR _dUSDollar$8[ebp]
  01b47	50		 push	 eax
  01b48	68 00 00 00 00	 push	 OFFSET ??_C@_03JALODAI@?$CFld@
  01b4d	8d 85 28 fc ff
	ff		 lea	 eax, DWORD PTR _strWonDollar$[ebp]
  01b53	50		 push	 eax
  01b54	ff d6		 call	 esi
  01b56	f2 0f 10 85 60
	fc ff ff	 movsd	 xmm0, QWORD PTR _dUSDollar$8[ebp]
  01b5e	83 c4 3c	 add	 esp, 60			; 0000003cH
  01b61	eb 19		 jmp	 SHORT $LN652@Convert2St
$LN7@Convert2St:

; 663  : 			break;
; 664  : 		}
; 665  : 
; 666  : //		if (dDenom == 0)
; 667  : //			dDenom = atoi(strOpen);
; 668  : 
; 669  : 		if (nDataType == 2)

  01b63	83 fe 32	 cmp	 esi, 50			; 00000032H
  01b66	0f 85 f9 f9 ff
	ff		 jne	 $LN656@Convert2St
  01b6c	f2 0f 10 85 d4
	fc ff ff	 movsd	 xmm0, QWORD PTR _dDenom$26[ebp]
  01b74	f2 0f 11 85 b0
	fc ff ff	 movsd	 QWORD PTR _dDenom$1$[ebp], xmm0
$LN652@Convert2St:

; 670  : 		{
; 671  : 			for (nRow = 0; nRow < nCnt; nRow++)

  01b7c	83 bd d0 fc ff
	ff 00		 cmp	 DWORD PTR _nCnt$1$[ebp], 0
  01b83	0f 8e d6 fb ff
	ff		 jle	 $LN13@Convert2St
  01b89	8b 85 88 fc ff
	ff		 mov	 eax, DWORD PTR _pDataBuf$1$[ebp]
  01b8f	05 62 02 00 00	 add	 eax, 610		; 00000262H
  01b94	89 85 cc fc ff
	ff		 mov	 DWORD PTR tv3363[ebp], eax
  01b9a	66 0f 1f 44 00
	00		 npad	 6
$LL11@Convert2St:

; 672  : 			{
; 673  : 				memcpy(&stBong, &pDataBuf[nPosBong + nRow*nBongSize], nBongSize);

  01ba0	8b f0		 mov	 esi, eax
  01ba2	8d 7d a0	 lea	 edi, DWORD PTR _stBong$51[ebp]
  01ba5	b9 13 00 00 00	 mov	 ecx, 19			; 00000013H

; 674  : 				// 
; 675  : 				strData = CDataConverter::Get_RateData(stBong.open, dDenom, sizeof(stBong.open));

  01baa	8d 45 a8	 lea	 eax, DWORD PTR _stBong$51[ebp+8]
  01bad	f3 a5		 rep movsd
  01baf	6a 0a		 push	 10			; 0000000aH
  01bb1	83 ec 08	 sub	 esp, 8
  01bb4	66 a5		 movsw
  01bb6	f2 0f 11 04 24	 movsd	 QWORD PTR [esp], xmm0
  01bbb	50		 push	 eax
  01bbc	8d 85 d8 fc ff
	ff		 lea	 eax, DWORD PTR $T29[ebp]
  01bc2	50		 push	 eax
  01bc3	e8 00 00 00 00	 call	 ?Get_RateData@CDataConverter@@SA?AV?$CStringT@DV?$StrTraitMFC_DLL@DV?$ChTraitsCRT@D@ATL@@@@@ATL@@PADNH@Z ; CDataConverter::Get_RateData
  01bc8	83 c4 14	 add	 esp, 20			; 00000014H
  01bcb	50		 push	 eax
  01bcc	8d 8d dc fc ff
	ff		 lea	 ecx, DWORD PTR _strData$31[ebp]
  01bd2	c6 45 fc 40	 mov	 BYTE PTR __$EHRec$[ebp+8], 64 ; 00000040H
  01bd6	ff 15 00 00 00
	00		 call	 DWORD PTR __imp_??4?$CStringT@DV?$StrTraitMFC_DLL@DV?$ChTraitsCRT@D@ATL@@@@@ATL@@QAEAAV01@ABV01@@Z
  01bdc	8d 8d d8 fc ff
	ff		 lea	 ecx, DWORD PTR $T29[ebp]
  01be2	c6 45 fc 3f	 mov	 BYTE PTR __$EHRec$[ebp+8], 63 ; 0000003fH
  01be6	ff 15 00 00 00
	00		 call	 DWORD PTR __imp_??1?$CStringT@DV?$StrTraitMFC_DLL@DV?$ChTraitsCRT@D@ATL@@@@@ATL@@QAE@XZ
; File C:\Program Files (x86)\Microsoft Visual Studio\2019\Community\VC\Tools\MSVC\14.29.30133\atlmfc\include\atlsimpstr.h

; 519  : 		return( GetData()->nDataLength );

  01bec	8b 85 dc fc ff
	ff		 mov	 eax, DWORD PTR _strData$31[ebp]
; File D:\git\src\IBK\IBK_DRFN\ProjSrc\SrcDrfn\DrCommon\PartnerMng\ChartItemStock.cpp

; 676  : 				memcpy(stBong.open, strData, min(strData.GetLength(), sizeof(stBong.open)));

  01bf2	be 0a 00 00 00	 mov	 esi, 10			; 0000000aH
  01bf7	8b d6		 mov	 edx, esi
  01bf9	39 50 f4	 cmp	 DWORD PTR [eax-12], edx
  01bfc	0f 42 50 f4	 cmovb	 edx, DWORD PTR [eax-12]
  01c00	52		 push	 edx
  01c01	50		 push	 eax
  01c02	8d 45 a8	 lea	 eax, DWORD PTR _stBong$51[ebp+8]
  01c05	50		 push	 eax
  01c06	e8 00 00 00 00	 call	 _memcpy

; 677  : 				// 
; 678  : 				strData = CDataConverter::Get_RateData(stBong.high, dDenom, sizeof(stBong.high));

  01c0b	f2 0f 10 85 b0
	fc ff ff	 movsd	 xmm0, QWORD PTR _dDenom$1$[ebp]
  01c13	8d 45 b2	 lea	 eax, DWORD PTR _stBong$51[ebp+18]
  01c16	83 c4 0c	 add	 esp, 12			; 0000000cH
  01c19	56		 push	 esi
  01c1a	83 ec 08	 sub	 esp, 8
  01c1d	f2 0f 11 04 24	 movsd	 QWORD PTR [esp], xmm0
  01c22	50		 push	 eax
  01c23	8d 85 94 fc ff
	ff		 lea	 eax, DWORD PTR $T18[ebp]
  01c29	50		 push	 eax
  01c2a	e8 00 00 00 00	 call	 ?Get_RateData@CDataConverter@@SA?AV?$CStringT@DV?$StrTraitMFC_DLL@DV?$ChTraitsCRT@D@ATL@@@@@ATL@@PADNH@Z ; CDataConverter::Get_RateData
  01c2f	83 c4 14	 add	 esp, 20			; 00000014H
  01c32	50		 push	 eax
  01c33	8d 8d dc fc ff
	ff		 lea	 ecx, DWORD PTR _strData$31[ebp]
  01c39	c6 45 fc 41	 mov	 BYTE PTR __$EHRec$[ebp+8], 65 ; 00000041H
  01c3d	ff 15 00 00 00
	00		 call	 DWORD PTR __imp_??4?$CStringT@DV?$StrTraitMFC_DLL@DV?$ChTraitsCRT@D@ATL@@@@@ATL@@QAEAAV01@ABV01@@Z
  01c43	8d 8d 94 fc ff
	ff		 lea	 ecx, DWORD PTR $T18[ebp]
  01c49	c6 45 fc 3f	 mov	 BYTE PTR __$EHRec$[ebp+8], 63 ; 0000003fH
  01c4d	ff 15 00 00 00
	00		 call	 DWORD PTR __imp_??1?$CStringT@DV?$StrTraitMFC_DLL@DV?$ChTraitsCRT@D@ATL@@@@@ATL@@QAE@XZ
; File C:\Program Files (x86)\Microsoft Visual Studio\2019\Community\VC\Tools\MSVC\14.29.30133\atlmfc\include\atlsimpstr.h

; 519  : 		return( GetData()->nDataLength );

  01c53	8b 85 dc fc ff
	ff		 mov	 eax, DWORD PTR _strData$31[ebp]
; File D:\git\src\IBK\IBK_DRFN\ProjSrc\SrcDrfn\DrCommon\PartnerMng\ChartItemStock.cpp

; 679  : 				memcpy(stBong.high, strData, min(strData.GetLength(), sizeof(stBong.high)));

  01c59	8b d6		 mov	 edx, esi
  01c5b	39 50 f4	 cmp	 DWORD PTR [eax-12], edx
  01c5e	0f 42 50 f4	 cmovb	 edx, DWORD PTR [eax-12]
  01c62	52		 push	 edx
  01c63	50		 push	 eax
  01c64	8d 45 b2	 lea	 eax, DWORD PTR _stBong$51[ebp+18]
  01c67	50		 push	 eax
  01c68	e8 00 00 00 00	 call	 _memcpy

; 680  : 				// 
; 681  : 				strData = CDataConverter::Get_RateData(stBong.low, dDenom, sizeof(stBong.low));

  01c6d	f2 0f 10 85 b0
	fc ff ff	 movsd	 xmm0, QWORD PTR _dDenom$1$[ebp]
  01c75	8d 45 bc	 lea	 eax, DWORD PTR _stBong$51[ebp+28]
  01c78	83 c4 0c	 add	 esp, 12			; 0000000cH
  01c7b	56		 push	 esi
  01c7c	83 ec 08	 sub	 esp, 8
  01c7f	f2 0f 11 04 24	 movsd	 QWORD PTR [esp], xmm0
  01c84	50		 push	 eax
  01c85	8d 85 64 fc ff
	ff		 lea	 eax, DWORD PTR $T10[ebp]
  01c8b	50		 push	 eax
  01c8c	e8 00 00 00 00	 call	 ?Get_RateData@CDataConverter@@SA?AV?$CStringT@DV?$StrTraitMFC_DLL@DV?$ChTraitsCRT@D@ATL@@@@@ATL@@PADNH@Z ; CDataConverter::Get_RateData
  01c91	83 c4 14	 add	 esp, 20			; 00000014H
  01c94	50		 push	 eax
  01c95	8d 8d dc fc ff
	ff		 lea	 ecx, DWORD PTR _strData$31[ebp]
  01c9b	c6 45 fc 42	 mov	 BYTE PTR __$EHRec$[ebp+8], 66 ; 00000042H
  01c9f	ff 15 00 00 00
	00		 call	 DWORD PTR __imp_??4?$CStringT@DV?$StrTraitMFC_DLL@DV?$ChTraitsCRT@D@ATL@@@@@ATL@@QAEAAV01@ABV01@@Z
  01ca5	8d 8d 64 fc ff
	ff		 lea	 ecx, DWORD PTR $T10[ebp]
  01cab	c6 45 fc 3f	 mov	 BYTE PTR __$EHRec$[ebp+8], 63 ; 0000003fH
  01caf	ff 15 00 00 00
	00		 call	 DWORD PTR __imp_??1?$CStringT@DV?$StrTraitMFC_DLL@DV?$ChTraitsCRT@D@ATL@@@@@ATL@@QAE@XZ
; File C:\Program Files (x86)\Microsoft Visual Studio\2019\Community\VC\Tools\MSVC\14.29.30133\atlmfc\include\atlsimpstr.h

; 519  : 		return( GetData()->nDataLength );

  01cb5	8b 85 dc fc ff
	ff		 mov	 eax, DWORD PTR _strData$31[ebp]
; File D:\git\src\IBK\IBK_DRFN\ProjSrc\SrcDrfn\DrCommon\PartnerMng\ChartItemStock.cpp

; 682  : 				memcpy(stBong.low, strData, min(strData.GetLength(), sizeof(stBong.low)));

  01cbb	8b d6		 mov	 edx, esi
  01cbd	39 50 f4	 cmp	 DWORD PTR [eax-12], edx
  01cc0	0f 42 50 f4	 cmovb	 edx, DWORD PTR [eax-12]
  01cc4	52		 push	 edx
  01cc5	50		 push	 eax
  01cc6	8d 45 bc	 lea	 eax, DWORD PTR _stBong$51[ebp+28]
  01cc9	50		 push	 eax
  01cca	e8 00 00 00 00	 call	 _memcpy

; 683  : 				// 
; 684  : 				strData = CDataConverter::Get_RateData(stBong.close, dDenom, sizeof(stBong.close));

  01ccf	f2 0f 10 85 b0
	fc ff ff	 movsd	 xmm0, QWORD PTR _dDenom$1$[ebp]
  01cd7	8d 45 c6	 lea	 eax, DWORD PTR _stBong$51[ebp+38]
  01cda	83 c4 0c	 add	 esp, 12			; 0000000cH
  01cdd	56		 push	 esi
  01cde	83 ec 08	 sub	 esp, 8
  01ce1	f2 0f 11 04 24	 movsd	 QWORD PTR [esp], xmm0
  01ce6	50		 push	 eax
  01ce7	8d 85 7c fc ff
	ff		 lea	 eax, DWORD PTR $T14[ebp]
  01ced	50		 push	 eax
  01cee	e8 00 00 00 00	 call	 ?Get_RateData@CDataConverter@@SA?AV?$CStringT@DV?$StrTraitMFC_DLL@DV?$ChTraitsCRT@D@ATL@@@@@ATL@@PADNH@Z ; CDataConverter::Get_RateData
  01cf3	83 c4 14	 add	 esp, 20			; 00000014H
  01cf6	50		 push	 eax
  01cf7	8d 8d dc fc ff
	ff		 lea	 ecx, DWORD PTR _strData$31[ebp]
  01cfd	c6 45 fc 43	 mov	 BYTE PTR __$EHRec$[ebp+8], 67 ; 00000043H
  01d01	ff 15 00 00 00
	00		 call	 DWORD PTR __imp_??4?$CStringT@DV?$StrTraitMFC_DLL@DV?$ChTraitsCRT@D@ATL@@@@@ATL@@QAEAAV01@ABV01@@Z
  01d07	8d 8d 7c fc ff
	ff		 lea	 ecx, DWORD PTR $T14[ebp]
  01d0d	c6 45 fc 3f	 mov	 BYTE PTR __$EHRec$[ebp+8], 63 ; 0000003fH
  01d11	ff 15 00 00 00
	00		 call	 DWORD PTR __imp_??1?$CStringT@DV?$StrTraitMFC_DLL@DV?$ChTraitsCRT@D@ATL@@@@@ATL@@QAE@XZ
; File C:\Program Files (x86)\Microsoft Visual Studio\2019\Community\VC\Tools\MSVC\14.29.30133\atlmfc\include\atlsimpstr.h

; 519  : 		return( GetData()->nDataLength );

  01d17	8b 85 dc fc ff
	ff		 mov	 eax, DWORD PTR _strData$31[ebp]
; File D:\git\src\IBK\IBK_DRFN\ProjSrc\SrcDrfn\DrCommon\PartnerMng\ChartItemStock.cpp

; 685  : 				memcpy(stBong.close, strData, min(strData.GetLength(), sizeof(stBong.close)));

  01d1d	8b d6		 mov	 edx, esi
  01d1f	39 50 f4	 cmp	 DWORD PTR [eax-12], edx
  01d22	0f 42 50 f4	 cmovb	 edx, DWORD PTR [eax-12]
  01d26	52		 push	 edx
  01d27	50		 push	 eax
  01d28	8d 45 c6	 lea	 eax, DWORD PTR _stBong$51[ebp+38]
  01d2b	50		 push	 eax
  01d2c	e8 00 00 00 00	 call	 _memcpy

; 686  : 				
; 687  : 				memcpy(&pDataBuf[nPosBong + nRow*nBongSize], &stBong, nBongSize);

  01d31	8b 85 cc fc ff
	ff		 mov	 eax, DWORD PTR tv3363[ebp]
  01d37	8d 75 a0	 lea	 esi, DWORD PTR _stBong$51[ebp]
  01d3a	8b f8		 mov	 edi, eax
  01d3c	f2 0f 10 85 b0
	fc ff ff	 movsd	 xmm0, QWORD PTR _dDenom$1$[ebp]
  01d44	b9 13 00 00 00	 mov	 ecx, 19			; 00000013H
  01d49	83 c0 4e	 add	 eax, 78			; 0000004eH
  01d4c	f3 a5		 rep movsd
  01d4e	83 c4 0c	 add	 esp, 12			; 0000000cH
  01d51	89 85 cc fc ff
	ff		 mov	 DWORD PTR tv3363[ebp], eax
  01d57	83 ad d0 fc ff
	ff 01		 sub	 DWORD PTR _nCnt$1$[ebp], 1
  01d5e	66 a5		 movsw
  01d60	0f 85 3a fe ff
	ff		 jne	 $LL11@Convert2St

; 688  : 			}
; 689  : 		}

  01d66	e9 ee f9 ff ff	 jmp	 $LN664@Convert2St
$LN73@Convert2St:

; 749  : 	else if (nType >= 2 && nType <= 5)		//	,,,

  01d6b	8d 46 fe	 lea	 eax, DWORD PTR [esi-2]
  01d6e	83 f8 03	 cmp	 eax, 3
  01d71	77 11		 ja	 SHORT $LN76@Convert2St

; 750  : 		m_bojoInput.m_sTick = _T("1");

  01d73	68 00 00 00 00	 push	 OFFSET ??_C@_01HIHLOKLC@1@
  01d78	8d 8f 80 00 00
	00		 lea	 ecx, DWORD PTR [edi+128]
  01d7e	ff 15 00 00 00
	00		 call	 DWORD PTR __imp_??4?$CStringT@DV?$StrTraitMFC_DLL@DV?$ChTraitsCRT@D@ATL@@@@@ATL@@QAEAAV01@PBD@Z
$LN76@Convert2St:

; 751  : 
; 752  : 	m_bojoInput.m_sVolAmt = strVolAmt;	//[A00000651][A00000652].

  01d84	8d 85 5c fc ff
	ff		 lea	 eax, DWORD PTR _strVolAmt$[ebp]
  01d8a	50		 push	 eax
  01d8b	8d 8f cc 00 00
	00		 lea	 ecx, DWORD PTR [edi+204]
  01d91	ff 15 00 00 00
	00		 call	 DWORD PTR __imp_??4?$CStringT@DV?$StrTraitMFC_DLL@DV?$ChTraitsCRT@D@ATL@@@@@ATL@@QAEAAV01@ABV01@@Z

; 753  : 
; 754  : 	m_bojoInput.m_szMarketTime	= strMarketTime;	//.

  01d97	8d 85 30 fc ff
	ff		 lea	 eax, DWORD PTR _strMarketTime$[ebp]
  01d9d	50		 push	 eax
  01d9e	8d 8f d4 00 00
	00		 lea	 ecx, DWORD PTR [edi+212]
  01da4	ff 15 00 00 00
	00		 call	 DWORD PTR __imp_??4?$CStringT@DV?$StrTraitMFC_DLL@DV?$ChTraitsCRT@D@ATL@@@@@ATL@@QAEAAV01@ABV01@@Z

; 755  : 	m_bojoInput.m_szBaseTime	= strBaseTime;		//    .

  01daa	8d 85 2c fc ff
	ff		 lea	 eax, DWORD PTR _strBaseTime$[ebp]
  01db0	50		 push	 eax
  01db1	8d 8f d8 00 00
	00		 lea	 ecx, DWORD PTR [edi+216]
  01db7	ff 15 00 00 00
	00		 call	 DWORD PTR __imp_??4?$CStringT@DV?$StrTraitMFC_DLL@DV?$ChTraitsCRT@D@ATL@@@@@ATL@@QAEAAV01@ABV01@@Z

; 756  : 
; 757  : 	CString strBozo;

  01dbd	8d 8d 04 fc ff
	ff		 lea	 ecx, DWORD PTR _strBozo$[ebp]
  01dc3	ff 15 00 00 00
	00		 call	 DWORD PTR __imp_??0?$CStringT@DV?$StrTraitMFC_DLL@DV?$ChTraitsCRT@D@ATL@@@@@ATL@@QAE@XZ

; 758  : 	char szKey[4];
; 759  : 	memset(szKey, 0x00, sizeof(szKey));
; 760  : 	sprintf(szKey, _T("%03d"), 101); // 101 

  01dc9	6a 65		 push	 101			; 00000065H
  01dcb	8d 85 18 fc ff
	ff		 lea	 eax, DWORD PTR _szKey$[ebp]
  01dd1	c7 85 18 fc ff
	ff 00 00 00 00	 mov	 DWORD PTR _szKey$[ebp], 0
  01ddb	68 00 00 00 00	 push	 OFFSET ??_C@_04OHGLKFFN@?$CF03d@
  01de0	50		 push	 eax
  01de1	e8 00 00 00 00	 call	 _sprintf
  01de6	83 c4 0c	 add	 esp, 12			; 0000000cH

; 761  : 	
; 762  : 	nSize = bojoMng.GetChartBozoMsg(szKey, &m_bojoInput, strNode);

  01de9	8d 85 e8 fc ff
	ff		 lea	 eax, DWORD PTR _strNode$[ebp]
  01def	6a 00		 push	 0
  01df1	50		 push	 eax
  01df2	8d 47 74	 lea	 eax, DWORD PTR [edi+116]
  01df5	50		 push	 eax
  01df6	8d 85 18 fc ff
	ff		 lea	 eax, DWORD PTR _szKey$[ebp]
  01dfc	50		 push	 eax
  01dfd	8d 85 f4 fb ff
	ff		 lea	 eax, DWORD PTR _bojoMng$[ebp]
  01e03	50		 push	 eax
  01e04	e8 00 00 00 00	 call	 ?GetChartBozoMsg@CChartBozoManager@@UAGHPBDPAVCChartBozoInput@@AAV?$CStringT@DV?$StrTraitMFC_DLL@DV?$ChTraitsCRT@D@ATL@@@@@ATL@@H@Z ; CChartBozoManager::GetChartBozoMsg

; 763  : 	memcpy(stOut.bojomsg, strNode, nSize);

  01e09	50		 push	 eax
  01e0a	ff b5 e8 fc ff
	ff		 push	 DWORD PTR _strNode$[ebp]
  01e10	8d 85 5a fd ff
	ff		 lea	 eax, DWORD PTR _stOut$[ebp+110]
  01e16	50		 push	 eax
  01e17	e8 00 00 00 00	 call	 _memcpy

; 764  : 	memcpy(stOut.bojomsg, "0496", 4);
; 765  : 
; 766  : 	memcpy(pDataBuf, &stOut, sizeof(stOut));

  01e1c	8b bd 88 fc ff
	ff		 mov	 edi, DWORD PTR _pDataBuf$1$[ebp]
  01e22	8d b5 ec fc ff
	ff		 lea	 esi, DWORD PTR _stOut$[ebp]
  01e28	c7 85 5a fd ff
	ff 30 34 39 36	 mov	 DWORD PTR _stOut$[ebp+110], 909718576 ; 36393430H
  01e32	b9 98 00 00 00	 mov	 ecx, 152		; 00000098H
  01e37	f3 a5		 rep movsd
  01e39	83 c4 0c	 add	 esp, 12			; 0000000cH

; 767  : 
; 768  : 	return pDataBuf;

  01e3c	8d 8d 04 fc ff
	ff		 lea	 ecx, DWORD PTR _strBozo$[ebp]
  01e42	66 a5		 movsw
  01e44	ff 15 00 00 00
	00		 call	 DWORD PTR __imp_??1?$CStringT@DV?$StrTraitMFC_DLL@DV?$ChTraitsCRT@D@ATL@@@@@ATL@@QAE@XZ
  01e4a	8d 8d e0 fb ff
	ff		 lea	 ecx, DWORD PTR _arrTest$[ebp]
  01e50	e8 00 00 00 00	 call	 ??1CStringArray@@UAE@XZ	; CStringArray::~CStringArray
  01e55	8d 8d 74 fc ff
	ff		 lea	 ecx, DWORD PTR _strTime$[ebp]
  01e5b	ff 15 00 00 00
	00		 call	 DWORD PTR __imp_??1?$CStringT@DV?$StrTraitMFC_DLL@DV?$ChTraitsCRT@D@ATL@@@@@ATL@@QAE@XZ
  01e61	8d 8d c4 fc ff
	ff		 lea	 ecx, DWORD PTR _strDate$[ebp]
  01e67	ff 15 00 00 00
	00		 call	 DWORD PTR __imp_??1?$CStringT@DV?$StrTraitMFC_DLL@DV?$ChTraitsCRT@D@ATL@@@@@ATL@@QAE@XZ
  01e6d	8d 8d 44 fc ff
	ff		 lea	 ecx, DWORD PTR _arrNode$[ebp]
  01e73	e8 00 00 00 00	 call	 ??1CStringArray@@UAE@XZ	; CStringArray::~CStringArray
  01e78	8d 8d 14 fc ff
	ff		 lea	 ecx, DWORD PTR _strUSDollor$[ebp]
  01e7e	ff 15 00 00 00
	00		 call	 DWORD PTR __imp_??1?$CStringT@DV?$StrTraitMFC_DLL@DV?$ChTraitsCRT@D@ATL@@@@@ATL@@QAE@XZ
  01e84	8d 8d 68 fc ff
	ff		 lea	 ecx, DWORD PTR _strNextKey$[ebp]
  01e8a	ff 15 00 00 00
	00		 call	 DWORD PTR __imp_??1?$CStringT@DV?$StrTraitMFC_DLL@DV?$ChTraitsCRT@D@ATL@@@@@ATL@@QAE@XZ
  01e90	8d 8d 5c fc ff
	ff		 lea	 ecx, DWORD PTR _strVolAmt$[ebp]
  01e96	ff 15 00 00 00
	00		 call	 DWORD PTR __imp_??1?$CStringT@DV?$StrTraitMFC_DLL@DV?$ChTraitsCRT@D@ATL@@@@@ATL@@QAE@XZ
  01e9c	8d 8d 38 fc ff
	ff		 lea	 ecx, DWORD PTR _strResetTime$[ebp]
  01ea2	ff 15 00 00 00
	00		 call	 DWORD PTR __imp_??1?$CStringT@DV?$StrTraitMFC_DLL@DV?$ChTraitsCRT@D@ATL@@@@@ATL@@QAE@XZ
  01ea8	8d 8d 34 fc ff
	ff		 lea	 ecx, DWORD PTR _strJangEnd$[ebp]
  01eae	ff 15 00 00 00
	00		 call	 DWORD PTR __imp_??1?$CStringT@DV?$StrTraitMFC_DLL@DV?$ChTraitsCRT@D@ATL@@@@@ATL@@QAE@XZ
  01eb4	8d 8d ac fc ff
	ff		 lea	 ecx, DWORD PTR _strJangStart$[ebp]
  01eba	ff 15 00 00 00
	00		 call	 DWORD PTR __imp_??1?$CStringT@DV?$StrTraitMFC_DLL@DV?$ChTraitsCRT@D@ATL@@@@@ATL@@QAE@XZ
  01ec0	8d 8d 58 fc ff
	ff		 lea	 ecx, DWORD PTR _strRealState$[ebp]
  01ec6	ff 15 00 00 00
	00		 call	 DWORD PTR __imp_??1?$CStringT@DV?$StrTraitMFC_DLL@DV?$ChTraitsCRT@D@ATL@@@@@ATL@@QAE@XZ
  01ecc	8d 8d 30 fc ff
	ff		 lea	 ecx, DWORD PTR _strMarketTime$[ebp]
  01ed2	ff 15 00 00 00
	00		 call	 DWORD PTR __imp_??1?$CStringT@DV?$StrTraitMFC_DLL@DV?$ChTraitsCRT@D@ATL@@@@@ATL@@QAE@XZ
  01ed8	8d 8d 2c fc ff
	ff		 lea	 ecx, DWORD PTR _strBaseTime$[ebp]
  01ede	ff 15 00 00 00
	00		 call	 DWORD PTR __imp_??1?$CStringT@DV?$StrTraitMFC_DLL@DV?$ChTraitsCRT@D@ATL@@@@@ATL@@QAE@XZ
  01ee4	8d 8d 70 fc ff
	ff		 lea	 ecx, DWORD PTR _strPreOpen$[ebp]
  01eea	ff 15 00 00 00
	00		 call	 DWORD PTR __imp_??1?$CStringT@DV?$StrTraitMFC_DLL@DV?$ChTraitsCRT@D@ATL@@@@@ATL@@QAE@XZ
  01ef0	8d 8d 84 fc ff
	ff		 lea	 ecx, DWORD PTR _strPreLow$[ebp]
  01ef6	ff 15 00 00 00
	00		 call	 DWORD PTR __imp_??1?$CStringT@DV?$StrTraitMFC_DLL@DV?$ChTraitsCRT@D@ATL@@@@@ATL@@QAE@XZ
  01efc	8d 8d 80 fc ff
	ff		 lea	 ecx, DWORD PTR _strPreHigh$[ebp]
  01f02	ff 15 00 00 00
	00		 call	 DWORD PTR __imp_??1?$CStringT@DV?$StrTraitMFC_DLL@DV?$ChTraitsCRT@D@ATL@@@@@ATL@@QAE@XZ
  01f08	8d 8d 28 fc ff
	ff		 lea	 ecx, DWORD PTR _strWonDollar$[ebp]
  01f0e	ff 15 00 00 00
	00		 call	 DWORD PTR __imp_??1?$CStringT@DV?$StrTraitMFC_DLL@DV?$ChTraitsCRT@D@ATL@@@@@ATL@@QAE@XZ
  01f14	8d 8d a8 fc ff
	ff		 lea	 ecx, DWORD PTR _strLowLimit$[ebp]
  01f1a	ff 15 00 00 00
	00		 call	 DWORD PTR __imp_??1?$CStringT@DV?$StrTraitMFC_DLL@DV?$ChTraitsCRT@D@ATL@@@@@ATL@@QAE@XZ
  01f20	8d 8d a4 fc ff
	ff		 lea	 ecx, DWORD PTR _strHighLimit$[ebp]
  01f26	ff 15 00 00 00
	00		 call	 DWORD PTR __imp_??1?$CStringT@DV?$StrTraitMFC_DLL@DV?$ChTraitsCRT@D@ATL@@@@@ATL@@QAE@XZ
  01f2c	8d 8d b8 fc ff
	ff		 lea	 ecx, DWORD PTR _strOpen$[ebp]
  01f32	ff 15 00 00 00
	00		 call	 DWORD PTR __imp_??1?$CStringT@DV?$StrTraitMFC_DLL@DV?$ChTraitsCRT@D@ATL@@@@@ATL@@QAE@XZ
  01f38	8d 8d a0 fc ff
	ff		 lea	 ecx, DWORD PTR _strLow$[ebp]
  01f3e	ff 15 00 00 00
	00		 call	 DWORD PTR __imp_??1?$CStringT@DV?$StrTraitMFC_DLL@DV?$ChTraitsCRT@D@ATL@@@@@ATL@@QAE@XZ
  01f44	8d 8d 9c fc ff
	ff		 lea	 ecx, DWORD PTR _strHigh$[ebp]
  01f4a	ff 15 00 00 00
	00		 call	 DWORD PTR __imp_??1?$CStringT@DV?$StrTraitMFC_DLL@DV?$ChTraitsCRT@D@ATL@@@@@ATL@@QAE@XZ
  01f50	8d 8d 24 fc ff
	ff		 lea	 ecx, DWORD PTR _strPreVolume$[ebp]
  01f56	ff 15 00 00 00
	00		 call	 DWORD PTR __imp_??1?$CStringT@DV?$StrTraitMFC_DLL@DV?$ChTraitsCRT@D@ATL@@@@@ATL@@QAE@XZ
  01f5c	8d 8d 40 fc ff
	ff		 lea	 ecx, DWORD PTR _strVolume$[ebp]
  01f62	ff 15 00 00 00
	00		 call	 DWORD PTR __imp_??1?$CStringT@DV?$StrTraitMFC_DLL@DV?$ChTraitsCRT@D@ATL@@@@@ATL@@QAE@XZ
  01f68	8d 8d 98 fc ff
	ff		 lea	 ecx, DWORD PTR _strPrePrice$[ebp]
  01f6e	ff 15 00 00 00
	00		 call	 DWORD PTR __imp_??1?$CStringT@DV?$StrTraitMFC_DLL@DV?$ChTraitsCRT@D@ATL@@@@@ATL@@QAE@XZ
  01f74	8d 8d bc fc ff
	ff		 lea	 ecx, DWORD PTR _strPrice$[ebp]
  01f7a	ff 15 00 00 00
	00		 call	 DWORD PTR __imp_??1?$CStringT@DV?$StrTraitMFC_DLL@DV?$ChTraitsCRT@D@ATL@@@@@ATL@@QAE@XZ
  01f80	8d 8d 00 fc ff
	ff		 lea	 ecx, DWORD PTR _strLock$[ebp]
  01f86	ff 15 00 00 00
	00		 call	 DWORD PTR __imp_??1?$CStringT@DV?$StrTraitMFC_DLL@DV?$ChTraitsCRT@D@ATL@@@@@ATL@@QAE@XZ
  01f8c	8d 8d 6c fc ff
	ff		 lea	 ecx, DWORD PTR _strCode$[ebp]
  01f92	ff 15 00 00 00
	00		 call	 DWORD PTR __imp_??1?$CStringT@DV?$StrTraitMFC_DLL@DV?$ChTraitsCRT@D@ATL@@@@@ATL@@QAE@XZ
  01f98	8d 8d e8 fc ff
	ff		 lea	 ecx, DWORD PTR _strNode$[ebp]
  01f9e	ff 15 00 00 00
	00		 call	 DWORD PTR __imp_??1?$CStringT@DV?$StrTraitMFC_DLL@DV?$ChTraitsCRT@D@ATL@@@@@ATL@@QAE@XZ
  01fa4	8d 8d e0 fc ff
	ff		 lea	 ecx, DWORD PTR _strSrc$[ebp]
  01faa	ff 15 00 00 00
	00		 call	 DWORD PTR __imp_??1?$CStringT@DV?$StrTraitMFC_DLL@DV?$ChTraitsCRT@D@ATL@@@@@ATL@@QAE@XZ
  01fb0	8b 85 88 fc ff
	ff		 mov	 eax, DWORD PTR _pDataBuf$1$[ebp]

; 769  : }

  01fb6	8b 4d f4	 mov	 ecx, DWORD PTR __$EHRec$[ebp]
  01fb9	64 89 0d 00 00
	00 00		 mov	 DWORD PTR fs:0, ecx
  01fc0	59		 pop	 ecx
  01fc1	5f		 pop	 edi
  01fc2	5e		 pop	 esi
  01fc3	8b 4d f0	 mov	 ecx, DWORD PTR __$ArrayPad$[ebp]
  01fc6	33 cd		 xor	 ecx, ebp
  01fc8	e8 00 00 00 00	 call	 @__security_check_cookie@4
  01fcd	8b e5		 mov	 esp, ebp
  01fcf	5d		 pop	 ebp
  01fd0	c2 10 00	 ret	 16			; 00000010H
$LN413@Convert2St:
  01fd3	e8 00 00 00 00	 call	 ?AfxThrowInvalidArgException@@YGXXZ ; AfxThrowInvalidArgException
$LN661@Convert2St:
$LN655@Convert2St:
  01fd8	00 00 00 00	 DD	 $LN66@Convert2St
  01fdc	00 00 00 00	 DD	 $LN70@Convert2St
  01fe0	00 00 00 00	 DD	 $LN67@Convert2St
  01fe4	00 00 00 00	 DD	 $LN68@Convert2St
  01fe8	00 00 00 00	 DD	 $LN69@Convert2St
_TEXT	ENDS
;	COMDAT text$x
text$x	SEGMENT
__unwindfunclet$?Convert2Struct@CChartItemStock@@QAEPADPAEHHAAH@Z$0:
  00000	8d 8d e0 fc ff
	ff		 lea	 ecx, DWORD PTR _strSrc$[ebp]
  00006	ff 25 00 00 00
	00		 jmp	 DWORD PTR __imp_??1?$CStringT@DV?$StrTraitMFC_DLL@DV?$ChTraitsCRT@D@ATL@@@@@ATL@@QAE@XZ
__unwindfunclet$?Convert2Struct@CChartItemStock@@QAEPADPAEHHAAH@Z$1:
  0000c	8d 8d e8 fc ff
	ff		 lea	 ecx, DWORD PTR _strNode$[ebp]
  00012	ff 25 00 00 00
	00		 jmp	 DWORD PTR __imp_??1?$CStringT@DV?$StrTraitMFC_DLL@DV?$ChTraitsCRT@D@ATL@@@@@ATL@@QAE@XZ
__unwindfunclet$?Convert2Struct@CChartItemStock@@QAEPADPAEHHAAH@Z$2:
  00018	8d 8d 6c fc ff
	ff		 lea	 ecx, DWORD PTR _strCode$[ebp]
  0001e	ff 25 00 00 00
	00		 jmp	 DWORD PTR __imp_??1?$CStringT@DV?$StrTraitMFC_DLL@DV?$ChTraitsCRT@D@ATL@@@@@ATL@@QAE@XZ
__unwindfunclet$?Convert2Struct@CChartItemStock@@QAEPADPAEHHAAH@Z$3:
  00024	8d 8d 00 fc ff
	ff		 lea	 ecx, DWORD PTR _strLock$[ebp]
  0002a	ff 25 00 00 00
	00		 jmp	 DWORD PTR __imp_??1?$CStringT@DV?$StrTraitMFC_DLL@DV?$ChTraitsCRT@D@ATL@@@@@ATL@@QAE@XZ
__unwindfunclet$?Convert2Struct@CChartItemStock@@QAEPADPAEHHAAH@Z$4:
  00030	8d 8d bc fc ff
	ff		 lea	 ecx, DWORD PTR _strPrice$[ebp]
  00036	ff 25 00 00 00
	00		 jmp	 DWORD PTR __imp_??1?$CStringT@DV?$StrTraitMFC_DLL@DV?$ChTraitsCRT@D@ATL@@@@@ATL@@QAE@XZ
__unwindfunclet$?Convert2Struct@CChartItemStock@@QAEPADPAEHHAAH@Z$5:
  0003c	8d 8d 98 fc ff
	ff		 lea	 ecx, DWORD PTR _strPrePrice$[ebp]
  00042	ff 25 00 00 00
	00		 jmp	 DWORD PTR __imp_??1?$CStringT@DV?$StrTraitMFC_DLL@DV?$ChTraitsCRT@D@ATL@@@@@ATL@@QAE@XZ
__unwindfunclet$?Convert2Struct@CChartItemStock@@QAEPADPAEHHAAH@Z$6:
  00048	8d 8d 40 fc ff
	ff		 lea	 ecx, DWORD PTR _strVolume$[ebp]
  0004e	ff 25 00 00 00
	00		 jmp	 DWORD PTR __imp_??1?$CStringT@DV?$StrTraitMFC_DLL@DV?$ChTraitsCRT@D@ATL@@@@@ATL@@QAE@XZ
__unwindfunclet$?Convert2Struct@CChartItemStock@@QAEPADPAEHHAAH@Z$7:
  00054	8d 8d 24 fc ff
	ff		 lea	 ecx, DWORD PTR _strPreVolume$[ebp]
  0005a	ff 25 00 00 00
	00		 jmp	 DWORD PTR __imp_??1?$CStringT@DV?$StrTraitMFC_DLL@DV?$ChTraitsCRT@D@ATL@@@@@ATL@@QAE@XZ
__unwindfunclet$?Convert2Struct@CChartItemStock@@QAEPADPAEHHAAH@Z$8:
  00060	8d 8d 9c fc ff
	ff		 lea	 ecx, DWORD PTR _strHigh$[ebp]
  00066	ff 25 00 00 00
	00		 jmp	 DWORD PTR __imp_??1?$CStringT@DV?$StrTraitMFC_DLL@DV?$ChTraitsCRT@D@ATL@@@@@ATL@@QAE@XZ
__unwindfunclet$?Convert2Struct@CChartItemStock@@QAEPADPAEHHAAH@Z$9:
  0006c	8d 8d a0 fc ff
	ff		 lea	 ecx, DWORD PTR _strLow$[ebp]
  00072	ff 25 00 00 00
	00		 jmp	 DWORD PTR __imp_??1?$CStringT@DV?$StrTraitMFC_DLL@DV?$ChTraitsCRT@D@ATL@@@@@ATL@@QAE@XZ
__unwindfunclet$?Convert2Struct@CChartItemStock@@QAEPADPAEHHAAH@Z$10:
  00078	8d 8d b8 fc ff
	ff		 lea	 ecx, DWORD PTR _strOpen$[ebp]
  0007e	ff 25 00 00 00
	00		 jmp	 DWORD PTR __imp_??1?$CStringT@DV?$StrTraitMFC_DLL@DV?$ChTraitsCRT@D@ATL@@@@@ATL@@QAE@XZ
__unwindfunclet$?Convert2Struct@CChartItemStock@@QAEPADPAEHHAAH@Z$11:
  00084	8d 8d a4 fc ff
	ff		 lea	 ecx, DWORD PTR _strHighLimit$[ebp]
  0008a	ff 25 00 00 00
	00		 jmp	 DWORD PTR __imp_??1?$CStringT@DV?$StrTraitMFC_DLL@DV?$ChTraitsCRT@D@ATL@@@@@ATL@@QAE@XZ
__unwindfunclet$?Convert2Struct@CChartItemStock@@QAEPADPAEHHAAH@Z$12:
  00090	8d 8d a8 fc ff
	ff		 lea	 ecx, DWORD PTR _strLowLimit$[ebp]
  00096	ff 25 00 00 00
	00		 jmp	 DWORD PTR __imp_??1?$CStringT@DV?$StrTraitMFC_DLL@DV?$ChTraitsCRT@D@ATL@@@@@ATL@@QAE@XZ
__unwindfunclet$?Convert2Struct@CChartItemStock@@QAEPADPAEHHAAH@Z$13:
  0009c	8d 8d 28 fc ff
	ff		 lea	 ecx, DWORD PTR _strWonDollar$[ebp]
  000a2	ff 25 00 00 00
	00		 jmp	 DWORD PTR __imp_??1?$CStringT@DV?$StrTraitMFC_DLL@DV?$ChTraitsCRT@D@ATL@@@@@ATL@@QAE@XZ
__unwindfunclet$?Convert2Struct@CChartItemStock@@QAEPADPAEHHAAH@Z$14:
  000a8	8d 8d 80 fc ff
	ff		 lea	 ecx, DWORD PTR _strPreHigh$[ebp]
  000ae	ff 25 00 00 00
	00		 jmp	 DWORD PTR __imp_??1?$CStringT@DV?$StrTraitMFC_DLL@DV?$ChTraitsCRT@D@ATL@@@@@ATL@@QAE@XZ
__unwindfunclet$?Convert2Struct@CChartItemStock@@QAEPADPAEHHAAH@Z$15:
  000b4	8d 8d 84 fc ff
	ff		 lea	 ecx, DWORD PTR _strPreLow$[ebp]
  000ba	ff 25 00 00 00
	00		 jmp	 DWORD PTR __imp_??1?$CStringT@DV?$StrTraitMFC_DLL@DV?$ChTraitsCRT@D@ATL@@@@@ATL@@QAE@XZ
__unwindfunclet$?Convert2Struct@CChartItemStock@@QAEPADPAEHHAAH@Z$16:
  000c0	8d 8d 70 fc ff
	ff		 lea	 ecx, DWORD PTR _strPreOpen$[ebp]
  000c6	ff 25 00 00 00
	00		 jmp	 DWORD PTR __imp_??1?$CStringT@DV?$StrTraitMFC_DLL@DV?$ChTraitsCRT@D@ATL@@@@@ATL@@QAE@XZ
__unwindfunclet$?Convert2Struct@CChartItemStock@@QAEPADPAEHHAAH@Z$17:
  000cc	8d 8d 2c fc ff
	ff		 lea	 ecx, DWORD PTR _strBaseTime$[ebp]
  000d2	ff 25 00 00 00
	00		 jmp	 DWORD PTR __imp_??1?$CStringT@DV?$StrTraitMFC_DLL@DV?$ChTraitsCRT@D@ATL@@@@@ATL@@QAE@XZ
__unwindfunclet$?Convert2Struct@CChartItemStock@@QAEPADPAEHHAAH@Z$18:
  000d8	8d 8d 30 fc ff
	ff		 lea	 ecx, DWORD PTR _strMarketTime$[ebp]
  000de	ff 25 00 00 00
	00		 jmp	 DWORD PTR __imp_??1?$CStringT@DV?$StrTraitMFC_DLL@DV?$ChTraitsCRT@D@ATL@@@@@ATL@@QAE@XZ
__unwindfunclet$?Convert2Struct@CChartItemStock@@QAEPADPAEHHAAH@Z$20:
  000e4	8d 8d cc fc ff
	ff		 lea	 ecx, DWORD PTR $T24[ebp]
  000ea	ff 25 00 00 00
	00		 jmp	 DWORD PTR __imp_??1?$CStringT@DV?$StrTraitMFC_DLL@DV?$ChTraitsCRT@D@ATL@@@@@ATL@@QAE@XZ
__unwindfunclet$?Convert2Struct@CChartItemStock@@QAEPADPAEHHAAH@Z$22:
  000f0	8d 8d cc fc ff
	ff		 lea	 ecx, DWORD PTR $T23[ebp]
  000f6	ff 25 00 00 00
	00		 jmp	 DWORD PTR __imp_??1?$CStringT@DV?$StrTraitMFC_DLL@DV?$ChTraitsCRT@D@ATL@@@@@ATL@@QAE@XZ
__unwindfunclet$?Convert2Struct@CChartItemStock@@QAEPADPAEHHAAH@Z$24:
  000fc	8d 8d cc fc ff
	ff		 lea	 ecx, DWORD PTR $T22[ebp]
  00102	ff 25 00 00 00
	00		 jmp	 DWORD PTR __imp_??1?$CStringT@DV?$StrTraitMFC_DLL@DV?$ChTraitsCRT@D@ATL@@@@@ATL@@QAE@XZ
__unwindfunclet$?Convert2Struct@CChartItemStock@@QAEPADPAEHHAAH@Z$26:
  00108	8d 8d e4 fc ff
	ff		 lea	 ecx, DWORD PTR $T50[ebp]
  0010e	ff 25 00 00 00
	00		 jmp	 DWORD PTR __imp_??1?$CStringT@DV?$StrTraitMFC_DLL@DV?$ChTraitsCRT@D@ATL@@@@@ATL@@QAE@XZ
__unwindfunclet$?Convert2Struct@CChartItemStock@@QAEPADPAEHHAAH@Z$28:
  00114	8d 8d e4 fc ff
	ff		 lea	 ecx, DWORD PTR $T49[ebp]
  0011a	ff 25 00 00 00
	00		 jmp	 DWORD PTR __imp_??1?$CStringT@DV?$StrTraitMFC_DLL@DV?$ChTraitsCRT@D@ATL@@@@@ATL@@QAE@XZ
__unwindfunclet$?Convert2Struct@CChartItemStock@@QAEPADPAEHHAAH@Z$29:
  00120	8d 8d e4 fc ff
	ff		 lea	 ecx, DWORD PTR $T48[ebp]
  00126	ff 25 00 00 00
	00		 jmp	 DWORD PTR __imp_??1?$CStringT@DV?$StrTraitMFC_DLL@DV?$ChTraitsCRT@D@ATL@@@@@ATL@@QAE@XZ
__unwindfunclet$?Convert2Struct@CChartItemStock@@QAEPADPAEHHAAH@Z$31:
  0012c	8d 8d e4 fc ff
	ff		 lea	 ecx, DWORD PTR $T47[ebp]
  00132	ff 25 00 00 00
	00		 jmp	 DWORD PTR __imp_??1?$CStringT@DV?$StrTraitMFC_DLL@DV?$ChTraitsCRT@D@ATL@@@@@ATL@@QAE@XZ
__unwindfunclet$?Convert2Struct@CChartItemStock@@QAEPADPAEHHAAH@Z$33:
  00138	8d 8d e4 fc ff
	ff		 lea	 ecx, DWORD PTR $T46[ebp]
  0013e	ff 25 00 00 00
	00		 jmp	 DWORD PTR __imp_??1?$CStringT@DV?$StrTraitMFC_DLL@DV?$ChTraitsCRT@D@ATL@@@@@ATL@@QAE@XZ
__unwindfunclet$?Convert2Struct@CChartItemStock@@QAEPADPAEHHAAH@Z$35:
  00144	8d 8d e4 fc ff
	ff		 lea	 ecx, DWORD PTR $T45[ebp]
  0014a	ff 25 00 00 00
	00		 jmp	 DWORD PTR __imp_??1?$CStringT@DV?$StrTraitMFC_DLL@DV?$ChTraitsCRT@D@ATL@@@@@ATL@@QAE@XZ
__unwindfunclet$?Convert2Struct@CChartItemStock@@QAEPADPAEHHAAH@Z$37:
  00150	8d 8d e4 fc ff
	ff		 lea	 ecx, DWORD PTR $T44[ebp]
  00156	ff 25 00 00 00
	00		 jmp	 DWORD PTR __imp_??1?$CStringT@DV?$StrTraitMFC_DLL@DV?$ChTraitsCRT@D@ATL@@@@@ATL@@QAE@XZ
__unwindfunclet$?Convert2Struct@CChartItemStock@@QAEPADPAEHHAAH@Z$39:
  0015c	8d 8d e4 fc ff
	ff		 lea	 ecx, DWORD PTR $T43[ebp]
  00162	ff 25 00 00 00
	00		 jmp	 DWORD PTR __imp_??1?$CStringT@DV?$StrTraitMFC_DLL@DV?$ChTraitsCRT@D@ATL@@@@@ATL@@QAE@XZ
__unwindfunclet$?Convert2Struct@CChartItemStock@@QAEPADPAEHHAAH@Z$41:
  00168	8d 8d e4 fc ff
	ff		 lea	 ecx, DWORD PTR $T42[ebp]
  0016e	ff 25 00 00 00
	00		 jmp	 DWORD PTR __imp_??1?$CStringT@DV?$StrTraitMFC_DLL@DV?$ChTraitsCRT@D@ATL@@@@@ATL@@QAE@XZ
__unwindfunclet$?Convert2Struct@CChartItemStock@@QAEPADPAEHHAAH@Z$43:
  00174	8d 8d e4 fc ff
	ff		 lea	 ecx, DWORD PTR $T41[ebp]
  0017a	ff 25 00 00 00
	00		 jmp	 DWORD PTR __imp_??1?$CStringT@DV?$StrTraitMFC_DLL@DV?$ChTraitsCRT@D@ATL@@@@@ATL@@QAE@XZ
__unwindfunclet$?Convert2Struct@CChartItemStock@@QAEPADPAEHHAAH@Z$45:
  00180	8d 8d e4 fc ff
	ff		 lea	 ecx, DWORD PTR $T40[ebp]
  00186	ff 25 00 00 00
	00		 jmp	 DWORD PTR __imp_??1?$CStringT@DV?$StrTraitMFC_DLL@DV?$ChTraitsCRT@D@ATL@@@@@ATL@@QAE@XZ
__unwindfunclet$?Convert2Struct@CChartItemStock@@QAEPADPAEHHAAH@Z$47:
  0018c	8d 8d e4 fc ff
	ff		 lea	 ecx, DWORD PTR $T39[ebp]
  00192	ff 25 00 00 00
	00		 jmp	 DWORD PTR __imp_??1?$CStringT@DV?$StrTraitMFC_DLL@DV?$ChTraitsCRT@D@ATL@@@@@ATL@@QAE@XZ
__unwindfunclet$?Convert2Struct@CChartItemStock@@QAEPADPAEHHAAH@Z$49:
  00198	8d 8d e4 fc ff
	ff		 lea	 ecx, DWORD PTR $T38[ebp]
  0019e	ff 25 00 00 00
	00		 jmp	 DWORD PTR __imp_??1?$CStringT@DV?$StrTraitMFC_DLL@DV?$ChTraitsCRT@D@ATL@@@@@ATL@@QAE@XZ
__unwindfunclet$?Convert2Struct@CChartItemStock@@QAEPADPAEHHAAH@Z$51:
  001a4	8d 8d e4 fc ff
	ff		 lea	 ecx, DWORD PTR $T37[ebp]
  001aa	ff 25 00 00 00
	00		 jmp	 DWORD PTR __imp_??1?$CStringT@DV?$StrTraitMFC_DLL@DV?$ChTraitsCRT@D@ATL@@@@@ATL@@QAE@XZ
__unwindfunclet$?Convert2Struct@CChartItemStock@@QAEPADPAEHHAAH@Z$53:
  001b0	8d 8d 58 fc ff
	ff		 lea	 ecx, DWORD PTR _strRealState$[ebp]
  001b6	ff 25 00 00 00
	00		 jmp	 DWORD PTR __imp_??1?$CStringT@DV?$StrTraitMFC_DLL@DV?$ChTraitsCRT@D@ATL@@@@@ATL@@QAE@XZ
__unwindfunclet$?Convert2Struct@CChartItemStock@@QAEPADPAEHHAAH@Z$55:
  001bc	8d 8d ac fc ff
	ff		 lea	 ecx, DWORD PTR _strJangStart$[ebp]
  001c2	ff 25 00 00 00
	00		 jmp	 DWORD PTR __imp_??1?$CStringT@DV?$StrTraitMFC_DLL@DV?$ChTraitsCRT@D@ATL@@@@@ATL@@QAE@XZ
__unwindfunclet$?Convert2Struct@CChartItemStock@@QAEPADPAEHHAAH@Z$57:
  001c8	8d 8d 34 fc ff
	ff		 lea	 ecx, DWORD PTR _strJangEnd$[ebp]
  001ce	ff 25 00 00 00
	00		 jmp	 DWORD PTR __imp_??1?$CStringT@DV?$StrTraitMFC_DLL@DV?$ChTraitsCRT@D@ATL@@@@@ATL@@QAE@XZ
__unwindfunclet$?Convert2Struct@CChartItemStock@@QAEPADPAEHHAAH@Z$58:
  001d4	8d 8d 38 fc ff
	ff		 lea	 ecx, DWORD PTR _strResetTime$[ebp]
  001da	ff 25 00 00 00
	00		 jmp	 DWORD PTR __imp_??1?$CStringT@DV?$StrTraitMFC_DLL@DV?$ChTraitsCRT@D@ATL@@@@@ATL@@QAE@XZ
__unwindfunclet$?Convert2Struct@CChartItemStock@@QAEPADPAEHHAAH@Z$60:
  001e0	8d 8d 5c fc ff
	ff		 lea	 ecx, DWORD PTR _strVolAmt$[ebp]
  001e6	ff 25 00 00 00
	00		 jmp	 DWORD PTR __imp_??1?$CStringT@DV?$StrTraitMFC_DLL@DV?$ChTraitsCRT@D@ATL@@@@@ATL@@QAE@XZ
__unwindfunclet$?Convert2Struct@CChartItemStock@@QAEPADPAEHHAAH@Z$62:
  001ec	8d 8d 68 fc ff
	ff		 lea	 ecx, DWORD PTR _strNextKey$[ebp]
  001f2	ff 25 00 00 00
	00		 jmp	 DWORD PTR __imp_??1?$CStringT@DV?$StrTraitMFC_DLL@DV?$ChTraitsCRT@D@ATL@@@@@ATL@@QAE@XZ
__unwindfunclet$?Convert2Struct@CChartItemStock@@QAEPADPAEHHAAH@Z$64:
  001f8	8d 8d 14 fc ff
	ff		 lea	 ecx, DWORD PTR _strUSDollor$[ebp]
  001fe	ff 25 00 00 00
	00		 jmp	 DWORD PTR __imp_??1?$CStringT@DV?$StrTraitMFC_DLL@DV?$ChTraitsCRT@D@ATL@@@@@ATL@@QAE@XZ
__unwindfunclet$?Convert2Struct@CChartItemStock@@QAEPADPAEHHAAH@Z$65:
  00204	8d 8d e4 fc ff
	ff		 lea	 ecx, DWORD PTR $T36[ebp]
  0020a	ff 25 00 00 00
	00		 jmp	 DWORD PTR __imp_??1?$CStringT@DV?$StrTraitMFC_DLL@DV?$ChTraitsCRT@D@ATL@@@@@ATL@@QAE@XZ
__unwindfunclet$?Convert2Struct@CChartItemStock@@QAEPADPAEHHAAH@Z$66:
  00210	8d 8d e4 fc ff
	ff		 lea	 ecx, DWORD PTR $T35[ebp]
  00216	ff 25 00 00 00
	00		 jmp	 DWORD PTR __imp_??1?$CStringT@DV?$StrTraitMFC_DLL@DV?$ChTraitsCRT@D@ATL@@@@@ATL@@QAE@XZ
__unwindfunclet$?Convert2Struct@CChartItemStock@@QAEPADPAEHHAAH@Z$67:
  0021c	8d 8d e4 fc ff
	ff		 lea	 ecx, DWORD PTR $T34[ebp]
  00222	ff 25 00 00 00
	00		 jmp	 DWORD PTR __imp_??1?$CStringT@DV?$StrTraitMFC_DLL@DV?$ChTraitsCRT@D@ATL@@@@@ATL@@QAE@XZ
__unwindfunclet$?Convert2Struct@CChartItemStock@@QAEPADPAEHHAAH@Z$68:
  00228	8d 8d 44 fc ff
	ff		 lea	 ecx, DWORD PTR _arrNode$[ebp]
  0022e	e9 00 00 00 00	 jmp	 ??1CStringArray@@UAE@XZ	; CStringArray::~CStringArray
__unwindfunclet$?Convert2Struct@CChartItemStock@@QAEPADPAEHHAAH@Z$70:
  00233	8d 8d e4 fc ff
	ff		 lea	 ecx, DWORD PTR $T33[ebp]
  00239	ff 25 00 00 00
	00		 jmp	 DWORD PTR __imp_??1?$CStringT@DV?$StrTraitMFC_DLL@DV?$ChTraitsCRT@D@ATL@@@@@ATL@@QAE@XZ
__unwindfunclet$?Convert2Struct@CChartItemStock@@QAEPADPAEHHAAH@Z$71:
  0023f	8d 8d c4 fc ff
	ff		 lea	 ecx, DWORD PTR _strDate$[ebp]
  00245	ff 25 00 00 00
	00		 jmp	 DWORD PTR __imp_??1?$CStringT@DV?$StrTraitMFC_DLL@DV?$ChTraitsCRT@D@ATL@@@@@ATL@@QAE@XZ
__unwindfunclet$?Convert2Struct@CChartItemStock@@QAEPADPAEHHAAH@Z$72:
  0024b	8d 8d 74 fc ff
	ff		 lea	 ecx, DWORD PTR _strTime$[ebp]
  00251	ff 25 00 00 00
	00		 jmp	 DWORD PTR __imp_??1?$CStringT@DV?$StrTraitMFC_DLL@DV?$ChTraitsCRT@D@ATL@@@@@ATL@@QAE@XZ
__unwindfunclet$?Convert2Struct@CChartItemStock@@QAEPADPAEHHAAH@Z$73:
  00257	8d 8d e0 fb ff
	ff		 lea	 ecx, DWORD PTR _arrTest$[ebp]
  0025d	e9 00 00 00 00	 jmp	 ??1CStringArray@@UAE@XZ	; CStringArray::~CStringArray
__unwindfunclet$?Convert2Struct@CChartItemStock@@QAEPADPAEHHAAH@Z$74:
  00262	8d 8d f8 fb ff
	ff		 lea	 ecx, DWORD PTR $T2[ebp]
  00268	ff 25 00 00 00
	00		 jmp	 DWORD PTR __imp_??1?$CStringT@DV?$StrTraitMFC_DLL@DV?$ChTraitsCRT@D@ATL@@@@@ATL@@QAE@XZ
__unwindfunclet$?Convert2Struct@CChartItemStock@@QAEPADPAEHHAAH@Z$98:
  0026e	8b 85 20 fc ff
	ff		 mov	 eax, DWORD PTR $T7[ebp]
  00274	83 e0 01	 and	 eax, 1
  00277	0f 84 13 00 00
	00		 je	 $LN356@Convert2St
  0027d	83 a5 20 fc ff
	ff fe		 and	 DWORD PTR $T7[ebp], -2	; fffffffeH
  00284	8d 8d 1c fc ff
	ff		 lea	 ecx, DWORD PTR $T6[ebp]
  0028a	ff 25 00 00 00
	00		 jmp	 DWORD PTR __imp_??1?$CStringT@DV?$StrTraitMFC_DLL@DV?$ChTraitsCRT@D@ATL@@@@@ATL@@QAE@XZ
$LN356@Convert2St:
  00290	c3		 ret	 0
__unwindfunclet$?Convert2Struct@CChartItemStock@@QAEPADPAEHHAAH@Z$76:
  00291	8d 8d 0c fc ff
	ff		 lea	 ecx, DWORD PTR $T4[ebp]
  00297	ff 25 00 00 00
	00		 jmp	 DWORD PTR __imp_??1?$CStringT@DV?$StrTraitMFC_DLL@DV?$ChTraitsCRT@D@ATL@@@@@ATL@@QAE@XZ
__unwindfunclet$?Convert2Struct@CChartItemStock@@QAEPADPAEHHAAH@Z$77:
  0029d	8d 8d 10 fc ff
	ff		 lea	 ecx, DWORD PTR $T5[ebp]
  002a3	ff 25 00 00 00
	00		 jmp	 DWORD PTR __imp_??1?$CStringT@DV?$StrTraitMFC_DLL@DV?$ChTraitsCRT@D@ATL@@@@@ATL@@QAE@XZ
__unwindfunclet$?Convert2Struct@CChartItemStock@@QAEPADPAEHHAAH@Z$99:
  002a9	8b 85 20 fc ff
	ff		 mov	 eax, DWORD PTR $T7[ebp]
  002af	83 e0 02	 and	 eax, 2
  002b2	0f 84 13 00 00
	00		 je	 $LN372@Convert2St
  002b8	83 a5 20 fc ff
	ff fd		 and	 DWORD PTR $T7[ebp], -3	; fffffffdH
  002bf	8d 8d 78 fc ff
	ff		 lea	 ecx, DWORD PTR $T12[ebp]
  002c5	ff 25 00 00 00
	00		 jmp	 DWORD PTR __imp_??1?$CStringT@DV?$StrTraitMFC_DLL@DV?$ChTraitsCRT@D@ATL@@@@@ATL@@QAE@XZ
$LN372@Convert2St:
  002cb	c3		 ret	 0
__unwindfunclet$?Convert2Struct@CChartItemStock@@QAEPADPAEHHAAH@Z$79:
  002cc	8d 8d fc fb ff
	ff		 lea	 ecx, DWORD PTR $T3[ebp]
  002d2	ff 25 00 00 00
	00		 jmp	 DWORD PTR __imp_??1?$CStringT@DV?$StrTraitMFC_DLL@DV?$ChTraitsCRT@D@ATL@@@@@ATL@@QAE@XZ
__unwindfunclet$?Convert2Struct@CChartItemStock@@QAEPADPAEHHAAH@Z$80:
  002d8	8d 8d 7c fc ff
	ff		 lea	 ecx, DWORD PTR $T15[ebp]
  002de	ff 25 00 00 00
	00		 jmp	 DWORD PTR __imp_??1?$CStringT@DV?$StrTraitMFC_DLL@DV?$ChTraitsCRT@D@ATL@@@@@ATL@@QAE@XZ
__unwindfunclet$?Convert2Struct@CChartItemStock@@QAEPADPAEHHAAH@Z$81:
  002e4	8d 8d b4 fc ff
	ff		 lea	 ecx, DWORD PTR $T20[ebp]
  002ea	ff 25 00 00 00
	00		 jmp	 DWORD PTR __imp_??1?$CStringT@DV?$StrTraitMFC_DLL@DV?$ChTraitsCRT@D@ATL@@@@@ATL@@QAE@XZ
__unwindfunclet$?Convert2Struct@CChartItemStock@@QAEPADPAEHHAAH@Z$100:
  002f0	8b 85 20 fc ff
	ff		 mov	 eax, DWORD PTR $T7[ebp]
  002f6	83 e0 04	 and	 eax, 4
  002f9	0f 84 13 00 00
	00		 je	 $LN388@Convert2St
  002ff	83 a5 20 fc ff
	ff fb		 and	 DWORD PTR $T7[ebp], -5	; fffffffbH
  00306	8d 8d e4 fc ff
	ff		 lea	 ecx, DWORD PTR $T32[ebp]
  0030c	ff 25 00 00 00
	00		 jmp	 DWORD PTR __imp_??1?$CStringT@DV?$StrTraitMFC_DLL@DV?$ChTraitsCRT@D@ATL@@@@@ATL@@QAE@XZ
$LN388@Convert2St:
  00312	c3		 ret	 0
__unwindfunclet$?Convert2Struct@CChartItemStock@@QAEPADPAEHHAAH@Z$83:
  00313	8d 8d 64 fc ff
	ff		 lea	 ecx, DWORD PTR $T11[ebp]
  00319	ff 25 00 00 00
	00		 jmp	 DWORD PTR __imp_??1?$CStringT@DV?$StrTraitMFC_DLL@DV?$ChTraitsCRT@D@ATL@@@@@ATL@@QAE@XZ
__unwindfunclet$?Convert2Struct@CChartItemStock@@QAEPADPAEHHAAH@Z$84:
  0031f	8d 8d 94 fc ff
	ff		 lea	 ecx, DWORD PTR $T19[ebp]
  00325	ff 25 00 00 00
	00		 jmp	 DWORD PTR __imp_??1?$CStringT@DV?$StrTraitMFC_DLL@DV?$ChTraitsCRT@D@ATL@@@@@ATL@@QAE@XZ
__unwindfunclet$?Convert2Struct@CChartItemStock@@QAEPADPAEHHAAH@Z$85:
  0032b	8d 8d d8 fc ff
	ff		 lea	 ecx, DWORD PTR $T30[ebp]
  00331	ff 25 00 00 00
	00		 jmp	 DWORD PTR __imp_??1?$CStringT@DV?$StrTraitMFC_DLL@DV?$ChTraitsCRT@D@ATL@@@@@ATL@@QAE@XZ
__unwindfunclet$?Convert2Struct@CChartItemStock@@QAEPADPAEHHAAH@Z$86:
  00337	8d 8d dc fc ff
	ff		 lea	 ecx, DWORD PTR _strData$31[ebp]
  0033d	ff 25 00 00 00
	00		 jmp	 DWORD PTR __imp_??1?$CStringT@DV?$StrTraitMFC_DLL@DV?$ChTraitsCRT@D@ATL@@@@@ATL@@QAE@XZ
__unwindfunclet$?Convert2Struct@CChartItemStock@@QAEPADPAEHHAAH@Z$91:
  00343	8d 8d d8 fc ff
	ff		 lea	 ecx, DWORD PTR $T28[ebp]
  00349	ff 25 00 00 00
	00		 jmp	 DWORD PTR __imp_??1?$CStringT@DV?$StrTraitMFC_DLL@DV?$ChTraitsCRT@D@ATL@@@@@ATL@@QAE@XZ
__unwindfunclet$?Convert2Struct@CChartItemStock@@QAEPADPAEHHAAH@Z$92:
  0034f	8d 8d 94 fc ff
	ff		 lea	 ecx, DWORD PTR $T17[ebp]
  00355	ff 25 00 00 00
	00		 jmp	 DWORD PTR __imp_??1?$CStringT@DV?$StrTraitMFC_DLL@DV?$ChTraitsCRT@D@ATL@@@@@ATL@@QAE@XZ
__unwindfunclet$?Convert2Struct@CChartItemStock@@QAEPADPAEHHAAH@Z$93:
  0035b	8d 8d 64 fc ff
	ff		 lea	 ecx, DWORD PTR $T9[ebp]
  00361	ff 25 00 00 00
	00		 jmp	 DWORD PTR __imp_??1?$CStringT@DV?$StrTraitMFC_DLL@DV?$ChTraitsCRT@D@ATL@@@@@ATL@@QAE@XZ
__unwindfunclet$?Convert2Struct@CChartItemStock@@QAEPADPAEHHAAH@Z$94:
  00367	8d 8d 7c fc ff
	ff		 lea	 ecx, DWORD PTR $T13[ebp]
  0036d	ff 25 00 00 00
	00		 jmp	 DWORD PTR __imp_??1?$CStringT@DV?$StrTraitMFC_DLL@DV?$ChTraitsCRT@D@ATL@@@@@ATL@@QAE@XZ
__unwindfunclet$?Convert2Struct@CChartItemStock@@QAEPADPAEHHAAH@Z$95:
  00373	8d 8d d8 fc ff
	ff		 lea	 ecx, DWORD PTR $T27[ebp]
  00379	ff 25 00 00 00
	00		 jmp	 DWORD PTR __imp_??1?$CStringT@DV?$StrTraitMFC_DLL@DV?$ChTraitsCRT@D@ATL@@@@@ATL@@QAE@XZ
__unwindfunclet$?Convert2Struct@CChartItemStock@@QAEPADPAEHHAAH@Z$96:
  0037f	8d 8d 94 fc ff
	ff		 lea	 ecx, DWORD PTR $T16[ebp]
  00385	ff 25 00 00 00
	00		 jmp	 DWORD PTR __imp_??1?$CStringT@DV?$StrTraitMFC_DLL@DV?$ChTraitsCRT@D@ATL@@@@@ATL@@QAE@XZ
__unwindfunclet$?Convert2Struct@CChartItemStock@@QAEPADPAEHHAAH@Z$87:
  0038b	8d 8d d8 fc ff
	ff		 lea	 ecx, DWORD PTR $T29[ebp]
  00391	ff 25 00 00 00
	00		 jmp	 DWORD PTR __imp_??1?$CStringT@DV?$StrTraitMFC_DLL@DV?$ChTraitsCRT@D@ATL@@@@@ATL@@QAE@XZ
__unwindfunclet$?Convert2Struct@CChartItemStock@@QAEPADPAEHHAAH@Z$88:
  00397	8d 8d 94 fc ff
	ff		 lea	 ecx, DWORD PTR $T18[ebp]
  0039d	ff 25 00 00 00
	00		 jmp	 DWORD PTR __imp_??1?$CStringT@DV?$StrTraitMFC_DLL@DV?$ChTraitsCRT@D@ATL@@@@@ATL@@QAE@XZ
__unwindfunclet$?Convert2Struct@CChartItemStock@@QAEPADPAEHHAAH@Z$89:
  003a3	8d 8d 64 fc ff
	ff		 lea	 ecx, DWORD PTR $T10[ebp]
  003a9	ff 25 00 00 00
	00		 jmp	 DWORD PTR __imp_??1?$CStringT@DV?$StrTraitMFC_DLL@DV?$ChTraitsCRT@D@ATL@@@@@ATL@@QAE@XZ
__unwindfunclet$?Convert2Struct@CChartItemStock@@QAEPADPAEHHAAH@Z$90:
  003af	8d 8d 7c fc ff
	ff		 lea	 ecx, DWORD PTR $T14[ebp]
  003b5	ff 25 00 00 00
	00		 jmp	 DWORD PTR __imp_??1?$CStringT@DV?$StrTraitMFC_DLL@DV?$ChTraitsCRT@D@ATL@@@@@ATL@@QAE@XZ
  003bb	cc		 int	 3
  003bc	cc		 int	 3
  003bd	cc		 int	 3
  003be	cc		 int	 3
  003bf	cc		 int	 3
__ehhandler$?Convert2Struct@CChartItemStock@@QAEPADPAEHHAAH@Z:
  003c0	90		 npad	 1
  003c1	90		 npad	 1
  003c2	8b 54 24 08	 mov	 edx, DWORD PTR [esp+8]
  003c6	8d 42 0c	 lea	 eax, DWORD PTR [edx+12]
  003c9	8b 8a e0 fb ff
	ff		 mov	 ecx, DWORD PTR [edx-1056]
  003cf	33 c8		 xor	 ecx, eax
  003d1	e8 00 00 00 00	 call	 @__security_check_cookie@4
  003d6	8b 4a fc	 mov	 ecx, DWORD PTR [edx-4]
  003d9	33 c8		 xor	 ecx, eax
  003db	e8 00 00 00 00	 call	 @__security_check_cookie@4
  003e0	b8 00 00 00 00	 mov	 eax, OFFSET __ehfuncinfo$?Convert2Struct@CChartItemStock@@QAEPADPAEHHAAH@Z
  003e5	e9 00 00 00 00	 jmp	 ___CxxFrameHandler3
text$x	ENDS
?Convert2Struct@CChartItemStock@@QAEPADPAEHHAAH@Z ENDP	; CChartItemStock::Convert2Struct
; Function compile flags: /Ogtp
; File D:\git\src\IBK\IBK_DRFN\ProjSrc\SrcDrfn\DrCommon\PartnerMng\ChartItemStock.cpp
; File C:\Program Files (x86)\Microsoft Visual Studio\2019\Community\VC\Tools\MSVC\14.29.30133\atlmfc\include\atlsimpstr.h
; File D:\git\src\IBK\IBK_DRFN\ProjSrc\SrcDrfn\DrCommon\PartnerMng\ChartItemStock.cpp
;	COMDAT ?Convert@CChartItemStock@@QAE?AV?$CStringT@DV?$StrTraitMFC_DLL@DV?$ChTraitsCRT@D@ATL@@@@@ATL@@XZ
_TEXT	SEGMENT
___$ReturnUdt$GSCopy$1$ = -360				; size = 4
_nCount$1$ = -356					; size = 4
___$ReturnUdt$GSCopy$ = -352				; size = 4
_stNextKey2$ = -352					; size = 4
_strUnit$ = -348					; size = 4
_strCode$ = -344					; size = 4
_strDate$ = -340					; size = 4
_strImgRgb$ = -336					; size = 4
_strNow$ = -332						; size = 4
_temp$ = -328						; size = 4
_nUnit$1$ = -324					; size = 4
_stRowData$ = -320					; size = 4
_nType$1$ = -316					; size = 4
$T2 = -316						; size = 4
$T3 = -316						; size = 4
$T4 = -316						; size = 4
$T5 = -316						; size = 4
_strTime$ = -312					; size = 4
_strTemp$ = -308					; size = 4
_stNextData$ = -304					; size = 4
_stNextKey$ = -300					; size = 4
$T6 = -296						; size = 4
$T7 = -296						; size = 4
$T8 = -296						; size = 4
$T9 = -296						; size = 4
_stBefore$10 = -296					; size = 4
$T11 = -296						; size = 4
_stBefore$12 = -296					; size = 4
$T13 = -296						; size = 4
_strData$ = -292					; size = 4
_Datah$ = -288						; size = 136
_szData_i$ = -152					; size = 136
__$ArrayPad$ = -16					; size = 4
__$EHRec$ = -12						; size = 12
___$ReturnUdt$ = 8					; size = 4
?Convert@CChartItemStock@@QAE?AV?$CStringT@DV?$StrTraitMFC_DLL@DV?$ChTraitsCRT@D@ATL@@@@@ATL@@XZ PROC ; CChartItemStock::Convert, COMDAT
; _this$ = ecx

; 72   : {

  00000	55		 push	 ebp
  00001	8b ec		 mov	 ebp, esp
  00003	6a ff		 push	 -1
  00005	68 00 00 00 00	 push	 __ehhandler$?Convert@CChartItemStock@@QAE?AV?$CStringT@DV?$StrTraitMFC_DLL@DV?$ChTraitsCRT@D@ATL@@@@@ATL@@XZ
  0000a	64 a1 00 00 00
	00		 mov	 eax, DWORD PTR fs:0
  00010	50		 push	 eax
  00011	81 ec 5c 01 00
	00		 sub	 esp, 348		; 0000015cH
  00017	a1 00 00 00 00	 mov	 eax, DWORD PTR ___security_cookie
  0001c	33 c5		 xor	 eax, ebp
  0001e	89 45 f0	 mov	 DWORD PTR __$ArrayPad$[ebp], eax
  00021	53		 push	 ebx
  00022	56		 push	 esi
  00023	57		 push	 edi
  00024	50		 push	 eax
  00025	8d 45 f4	 lea	 eax, DWORD PTR __$EHRec$[ebp]
  00028	64 a3 00 00 00
	00		 mov	 DWORD PTR fs:0, eax
  0002e	8b d9		 mov	 ebx, ecx
  00030	8b 75 08	 mov	 esi, DWORD PTR ___$ReturnUdt$[ebp]
  00033	89 b5 a0 fe ff
	ff		 mov	 DWORD PTR ___$ReturnUdt$GSCopy$[ebp], esi

; 73   : 	if(!m_bSet) 

  00039	80 bb 3c 01 00
	00 00		 cmp	 BYTE PTR [ebx+316], 0
  00040	89 b5 98 fe ff
	ff		 mov	 DWORD PTR ___$ReturnUdt$GSCopy$1$[ebp], esi
  00046	75 14		 jne	 SHORT $LN27@Convert

; 74   : 		return "";

  00048	68 00 00 00 00	 push	 OFFSET ??_C@_00CNPNBAHC@@
  0004d	8b ce		 mov	 ecx, esi
  0004f	ff 15 00 00 00
	00		 call	 DWORD PTR __imp_??0?$CStringT@DV?$StrTraitMFC_DLL@DV?$ChTraitsCRT@D@ATL@@@@@ATL@@QAE@PBD@Z
  00055	8b c6		 mov	 eax, esi
  00057	e9 2e 0d 00 00	 jmp	 $LN1@Convert
$LN27@Convert:

; 75   : 
; 76   : 	CString strData, strCode, strTemp, strDate, strNow, strUnit, strTime, strImgRgb;

  0005c	8d 8d dc fe ff
	ff		 lea	 ecx, DWORD PTR _strData$[ebp]
  00062	ff 15 00 00 00
	00		 call	 DWORD PTR __imp_??0?$CStringT@DV?$StrTraitMFC_DLL@DV?$ChTraitsCRT@D@ATL@@@@@ATL@@QAE@XZ
  00068	8d 8d a8 fe ff
	ff		 lea	 ecx, DWORD PTR _strCode$[ebp]
  0006e	c7 45 fc 00 00
	00 00		 mov	 DWORD PTR __$EHRec$[ebp+8], 0
  00075	ff 15 00 00 00
	00		 call	 DWORD PTR __imp_??0?$CStringT@DV?$StrTraitMFC_DLL@DV?$ChTraitsCRT@D@ATL@@@@@ATL@@QAE@XZ
  0007b	8d 8d cc fe ff
	ff		 lea	 ecx, DWORD PTR _strTemp$[ebp]
  00081	ff 15 00 00 00
	00		 call	 DWORD PTR __imp_??0?$CStringT@DV?$StrTraitMFC_DLL@DV?$ChTraitsCRT@D@ATL@@@@@ATL@@QAE@XZ
  00087	8d 8d ac fe ff
	ff		 lea	 ecx, DWORD PTR _strDate$[ebp]
  0008d	ff 15 00 00 00
	00		 call	 DWORD PTR __imp_??0?$CStringT@DV?$StrTraitMFC_DLL@DV?$ChTraitsCRT@D@ATL@@@@@ATL@@QAE@XZ
  00093	8d 8d b4 fe ff
	ff		 lea	 ecx, DWORD PTR _strNow$[ebp]
  00099	ff 15 00 00 00
	00		 call	 DWORD PTR __imp_??0?$CStringT@DV?$StrTraitMFC_DLL@DV?$ChTraitsCRT@D@ATL@@@@@ATL@@QAE@XZ
  0009f	8d 8d a4 fe ff
	ff		 lea	 ecx, DWORD PTR _strUnit$[ebp]
  000a5	ff 15 00 00 00
	00		 call	 DWORD PTR __imp_??0?$CStringT@DV?$StrTraitMFC_DLL@DV?$ChTraitsCRT@D@ATL@@@@@ATL@@QAE@XZ
  000ab	8d 8d c8 fe ff
	ff		 lea	 ecx, DWORD PTR _strTime$[ebp]
  000b1	ff 15 00 00 00
	00		 call	 DWORD PTR __imp_??0?$CStringT@DV?$StrTraitMFC_DLL@DV?$ChTraitsCRT@D@ATL@@@@@ATL@@QAE@XZ
  000b7	8d 8d b0 fe ff
	ff		 lea	 ecx, DWORD PTR _strImgRgb$[ebp]
  000bd	ff 15 00 00 00
	00		 call	 DWORD PTR __imp_??0?$CStringT@DV?$StrTraitMFC_DLL@DV?$ChTraitsCRT@D@ATL@@@@@ATL@@QAE@XZ

; 77   : 	int i, nCount, nUnit, nType, nFlag;
; 78   : 	double dUSDollar=1;
; 79   : 
; 80   : 	strCode	= CDataConverter::Char2String(m_InData.shcode, sizeof(m_InData.shcode));

  000c3	6a 0f		 push	 15			; 0000000fH
  000c5	8d 43 20	 lea	 eax, DWORD PTR [ebx+32]
  000c8	c6 45 fc 07	 mov	 BYTE PTR __$EHRec$[ebp+8], 7
  000cc	50		 push	 eax
  000cd	8d 85 c4 fe ff
	ff		 lea	 eax, DWORD PTR $T5[ebp]
  000d3	50		 push	 eax
  000d4	e8 00 00 00 00	 call	 ?Char2String@CDataConverter@@SA?AV?$CStringT@DV?$StrTraitMFC_DLL@DV?$ChTraitsCRT@D@ATL@@@@@ATL@@PADH@Z ; CDataConverter::Char2String
  000d9	83 c4 0c	 add	 esp, 12			; 0000000cH
  000dc	50		 push	 eax
  000dd	8d 8d a8 fe ff
	ff		 lea	 ecx, DWORD PTR _strCode$[ebp]
  000e3	c6 45 fc 08	 mov	 BYTE PTR __$EHRec$[ebp+8], 8
  000e7	ff 15 00 00 00
	00		 call	 DWORD PTR __imp_??4?$CStringT@DV?$StrTraitMFC_DLL@DV?$ChTraitsCRT@D@ATL@@@@@ATL@@QAEAAV01@ABV01@@Z
  000ed	8d 8d c4 fe ff
	ff		 lea	 ecx, DWORD PTR $T5[ebp]
  000f3	c6 45 fc 07	 mov	 BYTE PTR __$EHRec$[ebp+8], 7
  000f7	ff 15 00 00 00
	00		 call	 DWORD PTR __imp_??1?$CStringT@DV?$StrTraitMFC_DLL@DV?$ChTraitsCRT@D@ATL@@@@@ATL@@QAE@XZ

; 81   : 	strDate	= CDataConverter::Char2String(m_InData.date, sizeof(m_InData.date));

  000fd	6a 08		 push	 8
  000ff	8d 43 2f	 lea	 eax, DWORD PTR [ebx+47]
  00102	50		 push	 eax
  00103	8d 85 c4 fe ff
	ff		 lea	 eax, DWORD PTR $T4[ebp]
  00109	50		 push	 eax
  0010a	e8 00 00 00 00	 call	 ?Char2String@CDataConverter@@SA?AV?$CStringT@DV?$StrTraitMFC_DLL@DV?$ChTraitsCRT@D@ATL@@@@@ATL@@PADH@Z ; CDataConverter::Char2String
  0010f	83 c4 0c	 add	 esp, 12			; 0000000cH
  00112	50		 push	 eax
  00113	8d 8d ac fe ff
	ff		 lea	 ecx, DWORD PTR _strDate$[ebp]
  00119	c6 45 fc 09	 mov	 BYTE PTR __$EHRec$[ebp+8], 9
  0011d	ff 15 00 00 00
	00		 call	 DWORD PTR __imp_??4?$CStringT@DV?$StrTraitMFC_DLL@DV?$ChTraitsCRT@D@ATL@@@@@ATL@@QAEAAV01@ABV01@@Z
  00123	8d 8d c4 fe ff
	ff		 lea	 ecx, DWORD PTR $T4[ebp]
  00129	c6 45 fc 07	 mov	 BYTE PTR __$EHRec$[ebp+8], 7
  0012d	ff 15 00 00 00
	00		 call	 DWORD PTR __imp_??1?$CStringT@DV?$StrTraitMFC_DLL@DV?$ChTraitsCRT@D@ATL@@@@@ATL@@QAE@XZ

; 82   : 	strNow	= CDataConverter::Char2String(m_InData.nowData, sizeof(m_InData.nowData));

  00133	6a 01		 push	 1
  00135	8d 43 68	 lea	 eax, DWORD PTR [ebx+104]
  00138	50		 push	 eax
  00139	8d 85 c4 fe ff
	ff		 lea	 eax, DWORD PTR $T3[ebp]
  0013f	50		 push	 eax
  00140	e8 00 00 00 00	 call	 ?Char2String@CDataConverter@@SA?AV?$CStringT@DV?$StrTraitMFC_DLL@DV?$ChTraitsCRT@D@ATL@@@@@ATL@@PADH@Z ; CDataConverter::Char2String
  00145	83 c4 0c	 add	 esp, 12			; 0000000cH
  00148	50		 push	 eax
  00149	8d 8d b4 fe ff
	ff		 lea	 ecx, DWORD PTR _strNow$[ebp]
  0014f	c6 45 fc 0a	 mov	 BYTE PTR __$EHRec$[ebp+8], 10 ; 0000000aH
  00153	ff 15 00 00 00
	00		 call	 DWORD PTR __imp_??4?$CStringT@DV?$StrTraitMFC_DLL@DV?$ChTraitsCRT@D@ATL@@@@@ATL@@QAEAAV01@ABV01@@Z
  00159	8d 8d c4 fe ff
	ff		 lea	 ecx, DWORD PTR $T3[ebp]
  0015f	c6 45 fc 07	 mov	 BYTE PTR __$EHRec$[ebp+8], 7
  00163	ff 15 00 00 00
	00		 call	 DWORD PTR __imp_??1?$CStringT@DV?$StrTraitMFC_DLL@DV?$ChTraitsCRT@D@ATL@@@@@ATL@@QAE@XZ

; 83   : 	strTime	= CDataConverter::Char2String(m_InData.Itime, sizeof(m_InData.Itime));

  00169	6a 06		 push	 6
  0016b	8d 43 62	 lea	 eax, DWORD PTR [ebx+98]
  0016e	50		 push	 eax
  0016f	8d 85 c4 fe ff
	ff		 lea	 eax, DWORD PTR $T2[ebp]
  00175	50		 push	 eax
  00176	e8 00 00 00 00	 call	 ?Char2String@CDataConverter@@SA?AV?$CStringT@DV?$StrTraitMFC_DLL@DV?$ChTraitsCRT@D@ATL@@@@@ATL@@PADH@Z ; CDataConverter::Char2String
  0017b	83 c4 0c	 add	 esp, 12			; 0000000cH
  0017e	c6 45 fc 0b	 mov	 BYTE PTR __$EHRec$[ebp+8], 11 ; 0000000bH
  00182	50		 push	 eax
  00183	8d 8d c8 fe ff
	ff		 lea	 ecx, DWORD PTR _strTime$[ebp]
  00189	ff 15 00 00 00
	00		 call	 DWORD PTR __imp_??4?$CStringT@DV?$StrTraitMFC_DLL@DV?$ChTraitsCRT@D@ATL@@@@@ATL@@QAEAAV01@ABV01@@Z
  0018f	8d 8d c4 fe ff
	ff		 lea	 ecx, DWORD PTR $T2[ebp]
  00195	c6 45 fc 07	 mov	 BYTE PTR __$EHRec$[ebp+8], 7
  00199	ff 15 00 00 00
	00		 call	 DWORD PTR __imp_??1?$CStringT@DV?$StrTraitMFC_DLL@DV?$ChTraitsCRT@D@ATL@@@@@ATL@@QAE@XZ

; 84   : 	nCount	= CDataConverter::Char2Int(m_InData.num, sizeof(m_InData.num));

  0019f	8d 43 37	 lea	 eax, DWORD PTR [ebx+55]
  001a2	6a 04		 push	 4
  001a4	50		 push	 eax
  001a5	e8 00 00 00 00	 call	 ?Char2Int@CDataConverter@@SAHPADH@Z ; CDataConverter::Char2Int

; 85   : 	nUnit	= CDataConverter::Char2Int(m_InData.unit, sizeof(m_InData.unit));

  001aa	8d 4b 3b	 lea	 ecx, DWORD PTR [ebx+59]
  001ad	89 85 9c fe ff
	ff		 mov	 DWORD PTR _nCount$1$[ebp], eax
  001b3	6a 03		 push	 3
  001b5	51		 push	 ecx
  001b6	e8 00 00 00 00	 call	 ?Char2Int@CDataConverter@@SAHPADH@Z ; CDataConverter::Char2Int

; 86   : 	nType	= CDataConverter::Char2Int(m_InData.button, sizeof(m_InData.button));	// (0)/(1)/(2)/(3)/(4)

  001bb	8d 4b 3e	 lea	 ecx, DWORD PTR [ebx+62]
  001be	8b f8		 mov	 edi, eax
  001c0	6a 01		 push	 1
  001c2	51		 push	 ecx
  001c3	89 bd bc fe ff
	ff		 mov	 DWORD PTR _nUnit$1$[ebp], edi
  001c9	e8 00 00 00 00	 call	 ?Char2Int@CDataConverter@@SAHPADH@Z ; CDataConverter::Char2Int

; 87   : 	strImgRgb = CDataConverter::Char2String(m_InData.ImgRgb, sizeof(m_InData.ImgRgb));

  001ce	6a 01		 push	 1
  001d0	8d 4b 5e	 lea	 ecx, DWORD PTR [ebx+94]
  001d3	89 85 c4 fe ff
	ff		 mov	 DWORD PTR _nType$1$[ebp], eax
  001d9	51		 push	 ecx
  001da	8d 85 d8 fe ff
	ff		 lea	 eax, DWORD PTR $T13[ebp]
  001e0	50		 push	 eax
  001e1	e8 00 00 00 00	 call	 ?Char2String@CDataConverter@@SA?AV?$CStringT@DV?$StrTraitMFC_DLL@DV?$ChTraitsCRT@D@ATL@@@@@ATL@@PADH@Z ; CDataConverter::Char2String
  001e6	83 c4 24	 add	 esp, 36			; 00000024H
  001e9	50		 push	 eax
  001ea	8d 8d b0 fe ff
	ff		 lea	 ecx, DWORD PTR _strImgRgb$[ebp]
  001f0	c6 45 fc 0c	 mov	 BYTE PTR __$EHRec$[ebp+8], 12 ; 0000000cH
  001f4	ff 15 00 00 00
	00		 call	 DWORD PTR __imp_??4?$CStringT@DV?$StrTraitMFC_DLL@DV?$ChTraitsCRT@D@ATL@@@@@ATL@@QAEAAV01@ABV01@@Z
  001fa	8d 8d d8 fe ff
	ff		 lea	 ecx, DWORD PTR $T13[ebp]
  00200	c6 45 fc 07	 mov	 BYTE PTR __$EHRec$[ebp+8], 7
  00204	ff 15 00 00 00
	00		 call	 DWORD PTR __imp_??1?$CStringT@DV?$StrTraitMFC_DLL@DV?$ChTraitsCRT@D@ATL@@@@@ATL@@QAE@XZ

; 88   : 	nFlag     = CDataConverter::Char2Int(m_InData.nflag, sizeof(m_InData.nflag));	// 0:

  0020a	8d 43 40	 lea	 eax, DWORD PTR [ebx+64]
  0020d	6a 01		 push	 1
  0020f	50		 push	 eax
  00210	e8 00 00 00 00	 call	 ?Char2Int@CDataConverter@@SAHPADH@Z ; CDataConverter::Char2Int

; 89   : 	//strDate = "20120531";
; 90   : 
; 91   : 	strUnit.Format(_T("%d"), nUnit);

  00215	57		 push	 edi
  00216	8b 3d 00 00 00
	00		 mov	 edi, DWORD PTR __imp_?Format@?$CStringT@DV?$StrTraitMFC_DLL@DV?$ChTraitsCRT@D@ATL@@@@@ATL@@QAAXPBDZZ
  0021c	8b f0		 mov	 esi, eax
  0021e	8d 85 a4 fe ff
	ff		 lea	 eax, DWORD PTR _strUnit$[ebp]
  00224	68 00 00 00 00	 push	 OFFSET ??_C@_02DPKJAMEF@?$CFd@
  00229	50		 push	 eax
  0022a	ff d7		 call	 edi

; 92   : 	
; 93   : 	//////////////////////////////////////////////////////////////////////////
; 94   : 	//	Inbound Data
; 95   : 
; 96   : 	//	 Input 
; 97   : 	_dataH	Datah;
; 98   : 	FillMemory(&Datah, sz_DATAH, 0x20);

  0022c	68 88 00 00 00	 push	 136			; 00000088H
  00231	8d 85 e0 fe ff
	ff		 lea	 eax, DWORD PTR _Datah$[ebp]
  00237	6a 20		 push	 32			; 00000020H
  00239	50		 push	 eax
  0023a	e8 00 00 00 00	 call	 _memset
  0023f	83 c4 20	 add	 esp, 32			; 00000020H

; 99   : 	strData += "1301";	strData += sDS;	strData += strCode;	strData += sCELL;//KHD sFS;

  00242	8d 8d dc fe ff
	ff		 lea	 ecx, DWORD PTR _strData$[ebp]
  00248	68 00 00 00 00	 push	 OFFSET ??_C@_04KFDECMLJ@1301@
  0024d	ff 15 00 00 00
	00		 call	 DWORD PTR __imp_??Y?$CStringT@DV?$StrTraitMFC_DLL@DV?$ChTraitsCRT@D@ATL@@@@@ATL@@QAEAAV01@PBD@Z
  00253	6a 7f		 push	 127			; 0000007fH
  00255	8d 8d dc fe ff
	ff		 lea	 ecx, DWORD PTR _strData$[ebp]
  0025b	ff 15 00 00 00
	00		 call	 DWORD PTR __imp_??Y?$CStringT@DV?$StrTraitMFC_DLL@DV?$ChTraitsCRT@D@ATL@@@@@ATL@@QAEAAV01@D@Z
  00261	8d 85 a8 fe ff
	ff		 lea	 eax, DWORD PTR _strCode$[ebp]
  00267	50		 push	 eax
  00268	8d 8d dc fe ff
	ff		 lea	 ecx, DWORD PTR _strData$[ebp]
  0026e	ff 15 00 00 00
	00		 call	 DWORD PTR __imp_??Y?$CStringT@DV?$StrTraitMFC_DLL@DV?$ChTraitsCRT@D@ATL@@@@@ATL@@QAEAAV01@ABV?$CSimpleStringT@D$00@1@@Z
  00274	6a 09		 push	 9
  00276	8d 8d dc fe ff
	ff		 lea	 ecx, DWORD PTR _strData$[ebp]
  0027c	ff 15 00 00 00
	00		 call	 DWORD PTR __imp_??Y?$CStringT@DV?$StrTraitMFC_DLL@DV?$ChTraitsCRT@D@ATL@@@@@ATL@@QAEAAV01@D@Z

; 100  : 	CString stRowData;

  00282	8d 8d c0 fe ff
	ff		 lea	 ecx, DWORD PTR _stRowData$[ebp]
  00288	ff 15 00 00 00
	00		 call	 DWORD PTR __imp_??0?$CStringT@DV?$StrTraitMFC_DLL@DV?$ChTraitsCRT@D@ATL@@@@@ATL@@QAE@XZ

; 101  : 	CString stNextData, stNextKey, stNextKey2;

  0028e	8d 8d d0 fe ff
	ff		 lea	 ecx, DWORD PTR _stNextData$[ebp]
  00294	ff 15 00 00 00
	00		 call	 DWORD PTR __imp_??0?$CStringT@DV?$StrTraitMFC_DLL@DV?$ChTraitsCRT@D@ATL@@@@@ATL@@QAE@XZ
  0029a	8d 8d d4 fe ff
	ff		 lea	 ecx, DWORD PTR _stNextKey$[ebp]
  002a0	ff 15 00 00 00
	00		 call	 DWORD PTR __imp_??0?$CStringT@DV?$StrTraitMFC_DLL@DV?$ChTraitsCRT@D@ATL@@@@@ATL@@QAE@XZ
  002a6	8d 8d a0 fe ff
	ff		 lea	 ecx, DWORD PTR _stNextKey2$[ebp]
  002ac	ff 15 00 00 00
	00		 call	 DWORD PTR __imp_??0?$CStringT@DV?$StrTraitMFC_DLL@DV?$ChTraitsCRT@D@ATL@@@@@ATL@@QAE@XZ
  002b2	c6 45 fc 10	 mov	 BYTE PTR __$EHRec$[ebp+8], 16 ; 00000010H

; 102  : 
; 103  : 	//NEXTKEY : KHD
; 104  : 	if(nFlag == 0)

  002b6	85 f6		 test	 esi, esi
  002b8	75 29		 jne	 SHORT $LN132@Convert

; 105  : 	{
; 106  : 		stNextData = "99999999999999";

  002ba	68 00 00 00 00	 push	 OFFSET ??_C@_0P@FLGGHACJ@99999999999999@
  002bf	8d 8d d0 fe ff
	ff		 lea	 ecx, DWORD PTR _stNextData$[ebp]
  002c5	ff 15 00 00 00
	00		 call	 DWORD PTR __imp_??4?$CStringT@DV?$StrTraitMFC_DLL@DV?$ChTraitsCRT@D@ATL@@@@@ATL@@QAEAAV01@PBD@Z
; File C:\Program Files (x86)\Microsoft Visual Studio\2019\Community\VC\Tools\MSVC\14.29.30133\atlmfc\include\atlsimpstr.h

; 519  : 		return( GetData()->nDataLength );

  002cb	8b 85 d0 fe ff
	ff		 mov	 eax, DWORD PTR _stNextData$[ebp]
; File D:\git\src\IBK\IBK_DRFN\ProjSrc\SrcDrfn\DrCommon\PartnerMng\ChartItemStock.cpp

; 107  : 		memcpy(m_InData.nkey, (LPCSTR)(LPCTSTR)stNextData,stNextData.GetLength());

  002d1	8d 73 41	 lea	 esi, DWORD PTR [ebx+65]
  002d4	ff 70 f4	 push	 DWORD PTR [eax-12]
  002d7	50		 push	 eax
  002d8	56		 push	 esi
  002d9	e8 00 00 00 00	 call	 _memcpy
  002de	83 c4 0c	 add	 esp, 12			; 0000000cH
  002e1	eb 03		 jmp	 SHORT $LN122@Convert
$LN132@Convert:

; 102  : 
; 103  : 	//NEXTKEY : KHD
; 104  : 	if(nFlag == 0)

  002e3	8d 73 41	 lea	 esi, DWORD PTR [ebx+65]
$LN122@Convert:

; 108  : 	}
; 109  : 	//
; 110  : 	strData += "51305"; strData += sDS;	strData += "USDKRWSMBS";	strData += sCELL; // OOP 

  002e6	68 00 00 00 00	 push	 OFFSET ??_C@_05OCAPCJBN@51305@
  002eb	8d 8d dc fe ff
	ff		 lea	 ecx, DWORD PTR _strData$[ebp]
  002f1	ff 15 00 00 00
	00		 call	 DWORD PTR __imp_??Y?$CStringT@DV?$StrTraitMFC_DLL@DV?$ChTraitsCRT@D@ATL@@@@@ATL@@QAEAAV01@PBD@Z
  002f7	6a 7f		 push	 127			; 0000007fH
  002f9	8d 8d dc fe ff
	ff		 lea	 ecx, DWORD PTR _strData$[ebp]
  002ff	ff 15 00 00 00
	00		 call	 DWORD PTR __imp_??Y?$CStringT@DV?$StrTraitMFC_DLL@DV?$ChTraitsCRT@D@ATL@@@@@ATL@@QAEAAV01@D@Z
  00305	68 00 00 00 00	 push	 OFFSET ??_C@_0L@GJLPCMJN@USDKRWSMBS@
  0030a	8d 8d dc fe ff
	ff		 lea	 ecx, DWORD PTR _strData$[ebp]
  00310	ff 15 00 00 00
	00		 call	 DWORD PTR __imp_??Y?$CStringT@DV?$StrTraitMFC_DLL@DV?$ChTraitsCRT@D@ATL@@@@@ATL@@QAEAAV01@PBD@Z
  00316	6a 09		 push	 9
  00318	8d 8d dc fe ff
	ff		 lea	 ecx, DWORD PTR _strData$[ebp]
  0031e	ff 15 00 00 00
	00		 call	 DWORD PTR __imp_??Y?$CStringT@DV?$StrTraitMFC_DLL@DV?$ChTraitsCRT@D@ATL@@@@@ATL@@QAEAAV01@D@Z

; 111  : 	//END 
; 112  : 	//////////////////////////////////////////////////////////////////////////
; 113  : 
; 114  : 	stNextData.Format("%28.28s", m_InData.nkey);

  00324	56		 push	 esi
  00325	8d 85 d0 fe ff
	ff		 lea	 eax, DWORD PTR _stNextData$[ebp]
  0032b	68 00 00 00 00	 push	 OFFSET ??_C@_07PGCHECEN@?$CF28?428s@
  00330	50		 push	 eax
  00331	ff d7		 call	 edi

; 115  : 
; 116  : 	switch (nType)

  00333	8b 85 c4 fe ff
	ff		 mov	 eax, DWORD PTR _nType$1$[ebp]
  00339	83 c4 0c	 add	 esp, 12			; 0000000cH
  0033c	83 f8 06	 cmp	 eax, 6
  0033f	0f 87 d7 06 00
	00		 ja	 $LN2@Convert
  00345	ff 24 85 00 00
	00 00		 jmp	 DWORD PTR $LN130@Convert[eax*4]
$LN29@Convert:

; 117  : 	{
; 118  : 	case 0:		// 
; 119  : 			Datah.dindex = GI_TICK;
; 120  : 			Datah.dunit = GI_TICK;
; 121  : 			stRowData = _T("?2500");

  0034c	68 00 00 00 00	 push	 OFFSET ??_C@_05FMCINLDC@?$DP2500@
  00351	8d 8d c0 fe ff
	ff		 lea	 ecx, DWORD PTR _stRowData$[ebp]
  00357	66 c7 85 f6 fe
	ff ff 05 05	 mov	 WORD PTR _Datah$[ebp+22], 1285 ; 00000505H
  00360	ff 15 00 00 00
	00		 call	 DWORD PTR __imp_??4?$CStringT@DV?$StrTraitMFC_DLL@DV?$ChTraitsCRT@D@ATL@@@@@ATL@@QAEAAV01@PBD@Z

; 122  : 			stNextKey = "2324";

  00366	68 00 00 00 00	 push	 OFFSET ??_C@_04JMGHHGEC@2324@
  0036b	8d 8d d4 fe ff
	ff		 lea	 ecx, DWORD PTR _stNextKey$[ebp]
  00371	ff 15 00 00 00
	00		 call	 DWORD PTR __imp_??4?$CStringT@DV?$StrTraitMFC_DLL@DV?$ChTraitsCRT@D@ATL@@@@@ATL@@QAEAAV01@PBD@Z

; 123  : 			// 		//  Input  (1:) 
; 124  : 			strData += "2309";	strData += sDS;	strData += strNow;	strData += sCELL;

  00377	68 00 00 00 00	 push	 OFFSET ??_C@_04CKENNMGB@2309@
  0037c	8d 8d dc fe ff
	ff		 lea	 ecx, DWORD PTR _strData$[ebp]
  00382	ff 15 00 00 00
	00		 call	 DWORD PTR __imp_??Y?$CStringT@DV?$StrTraitMFC_DLL@DV?$ChTraitsCRT@D@ATL@@@@@ATL@@QAEAAV01@PBD@Z
  00388	6a 7f		 push	 127			; 0000007fH
  0038a	8d 8d dc fe ff
	ff		 lea	 ecx, DWORD PTR _strData$[ebp]
  00390	ff 15 00 00 00
	00		 call	 DWORD PTR __imp_??Y?$CStringT@DV?$StrTraitMFC_DLL@DV?$ChTraitsCRT@D@ATL@@@@@ATL@@QAEAAV01@D@Z
  00396	8d 85 b4 fe ff
	ff		 lea	 eax, DWORD PTR _strNow$[ebp]
  0039c	50		 push	 eax
  0039d	8d 8d dc fe ff
	ff		 lea	 ecx, DWORD PTR _strData$[ebp]
  003a3	ff 15 00 00 00
	00		 call	 DWORD PTR __imp_??Y?$CStringT@DV?$StrTraitMFC_DLL@DV?$ChTraitsCRT@D@ATL@@@@@ATL@@QAEAAV01@ABV?$CSimpleStringT@D$00@1@@Z
  003a9	6a 09		 push	 9
  003ab	8d 8d dc fe ff
	ff		 lea	 ecx, DWORD PTR _strData$[ebp]
  003b1	ff 15 00 00 00
	00		 call	 DWORD PTR __imp_??Y?$CStringT@DV?$StrTraitMFC_DLL@DV?$ChTraitsCRT@D@ATL@@@@@ATL@@QAEAAV01@D@Z

; 125  : 			strData += stNextKey; strData += sDS;	strData += stNextData;	strData += sCELL; //   : KHD 

  003b7	8d 85 d4 fe ff
	ff		 lea	 eax, DWORD PTR _stNextKey$[ebp]
  003bd	50		 push	 eax
  003be	8d 8d dc fe ff
	ff		 lea	 ecx, DWORD PTR _strData$[ebp]
  003c4	ff 15 00 00 00
	00		 call	 DWORD PTR __imp_??Y?$CStringT@DV?$StrTraitMFC_DLL@DV?$ChTraitsCRT@D@ATL@@@@@ATL@@QAEAAV01@ABV?$CSimpleStringT@D$00@1@@Z
  003ca	6a 7f		 push	 127			; 0000007fH
  003cc	8d 8d dc fe ff
	ff		 lea	 ecx, DWORD PTR _strData$[ebp]
  003d2	ff 15 00 00 00
	00		 call	 DWORD PTR __imp_??Y?$CStringT@DV?$StrTraitMFC_DLL@DV?$ChTraitsCRT@D@ATL@@@@@ATL@@QAEAAV01@D@Z
  003d8	8d 85 d0 fe ff
	ff		 lea	 eax, DWORD PTR _stNextData$[ebp]
  003de	50		 push	 eax
  003df	8d 8d dc fe ff
	ff		 lea	 ecx, DWORD PTR _strData$[ebp]
  003e5	ff 15 00 00 00
	00		 call	 DWORD PTR __imp_??Y?$CStringT@DV?$StrTraitMFC_DLL@DV?$ChTraitsCRT@D@ATL@@@@@ATL@@QAEAAV01@ABV?$CSimpleStringT@D$00@1@@Z
  003eb	6a 09		 push	 9
  003ed	8d 8d dc fe ff
	ff		 lea	 ecx, DWORD PTR _strData$[ebp]
  003f3	ff 15 00 00 00
	00		 call	 DWORD PTR __imp_??Y?$CStringT@DV?$StrTraitMFC_DLL@DV?$ChTraitsCRT@D@ATL@@@@@ATL@@QAEAAV01@D@Z

; 126  : // 		//	  
; 127  :  		if (m_InData.Irecordgb[0] == '1')

  003f9	80 7b 5f 31	 cmp	 BYTE PTR [ebx+95], 49	; 00000031H
  003fd	0f 85 19 06 00
	00		 jne	 $LN2@Convert

; 128  : 		{
; 129  : 			int BeforeDay = CDataConverter::Char2Int(m_InData.nDayBefore, sizeof(m_InData.nDayBefore));	// 0:

  00403	8d 43 60	 lea	 eax, DWORD PTR [ebx+96]
  00406	6a 02		 push	 2
  00408	50		 push	 eax
  00409	e8 00 00 00 00	 call	 ?Char2Int@CDataConverter@@SAHPADH@Z ; CDataConverter::Char2Int
  0040e	83 c4 08	 add	 esp, 8

; 130  : 			CString stBefore;

  00411	8d 8d d8 fe ff
	ff		 lea	 ecx, DWORD PTR _stBefore$12[ebp]
  00417	8b f0		 mov	 esi, eax
  00419	ff 15 00 00 00
	00		 call	 DWORD PTR __imp_??0?$CStringT@DV?$StrTraitMFC_DLL@DV?$ChTraitsCRT@D@ATL@@@@@ATL@@QAE@XZ

; 131  : 			stBefore = strTime;

  0041f	8d 85 c8 fe ff
	ff		 lea	 eax, DWORD PTR _strTime$[ebp]
  00425	c6 45 fc 11	 mov	 BYTE PTR __$EHRec$[ebp+8], 17 ; 00000011H
  00429	50		 push	 eax
  0042a	8d 8d d8 fe ff
	ff		 lea	 ecx, DWORD PTR _stBefore$12[ebp]
  00430	ff 15 00 00 00
	00		 call	 DWORD PTR __imp_??4?$CStringT@DV?$StrTraitMFC_DLL@DV?$ChTraitsCRT@D@ATL@@@@@ATL@@QAEAAV01@ABV01@@Z

; 132  : 			strTime.Format("%d%s",BeforeDay,strTime);//0 :  , 1: 

  00436	ff b5 c8 fe ff
	ff		 push	 DWORD PTR _strTime$[ebp]
  0043c	8d 85 c8 fe ff
	ff		 lea	 eax, DWORD PTR _strTime$[ebp]
  00442	56		 push	 esi
  00443	68 00 00 00 00	 push	 OFFSET ??_C@_04LOCMGGPM@?$CFd?$CFs@
  00448	50		 push	 eax
  00449	ff d7		 call	 edi
  0044b	83 c4 10	 add	 esp, 16			; 00000010H

; 133  :  			strData += "2341";	strData += sDS;	strData += strTime;	strData += sCELL;

  0044e	8d 8d dc fe ff
	ff		 lea	 ecx, DWORD PTR _strData$[ebp]
  00454	68 00 00 00 00	 push	 OFFSET ??_C@_04OFJNPOLF@2341@
  00459	ff 15 00 00 00
	00		 call	 DWORD PTR __imp_??Y?$CStringT@DV?$StrTraitMFC_DLL@DV?$ChTraitsCRT@D@ATL@@@@@ATL@@QAEAAV01@PBD@Z
  0045f	6a 7f		 push	 127			; 0000007fH
  00461	8d 8d dc fe ff
	ff		 lea	 ecx, DWORD PTR _strData$[ebp]
  00467	ff 15 00 00 00
	00		 call	 DWORD PTR __imp_??Y?$CStringT@DV?$StrTraitMFC_DLL@DV?$ChTraitsCRT@D@ATL@@@@@ATL@@QAEAAV01@D@Z
  0046d	8d 85 c8 fe ff
	ff		 lea	 eax, DWORD PTR _strTime$[ebp]
  00473	50		 push	 eax
  00474	8d 8d dc fe ff
	ff		 lea	 ecx, DWORD PTR _strData$[ebp]
  0047a	ff 15 00 00 00
	00		 call	 DWORD PTR __imp_??Y?$CStringT@DV?$StrTraitMFC_DLL@DV?$ChTraitsCRT@D@ATL@@@@@ATL@@QAEAAV01@ABV?$CSimpleStringT@D$00@1@@Z
  00480	6a 09		 push	 9
  00482	8d 8d dc fe ff
	ff		 lea	 ecx, DWORD PTR _strData$[ebp]
  00488	ff 15 00 00 00
	00		 call	 DWORD PTR __imp_??Y?$CStringT@DV?$StrTraitMFC_DLL@DV?$ChTraitsCRT@D@ATL@@@@@ATL@@QAEAAV01@D@Z

; 134  : 		}

  0048e	8d 8d d8 fe ff
	ff		 lea	 ecx, DWORD PTR _stBefore$12[ebp]
  00494	c6 45 fc 10	 mov	 BYTE PTR __$EHRec$[ebp+8], 16 ; 00000010H
  00498	ff 15 00 00 00
	00		 call	 DWORD PTR __imp_??1?$CStringT@DV?$StrTraitMFC_DLL@DV?$ChTraitsCRT@D@ATL@@@@@ATL@@QAE@XZ

; 135  : //END
; 136  : 		break;

  0049e	e9 79 05 00 00	 jmp	 $LN2@Convert
$LN31@Convert:

; 137  : 
; 138  : 	case 1:		// 
; 139  : 			Datah.dindex = GI_MINUTE;
; 140  : 			Datah.dunit = GI_MINUTE;
; 141  : 			stRowData = _T("?4500");

  004a3	68 00 00 00 00	 push	 OFFSET ??_C@_05NDGICOJC@?$DP4500@
  004a8	8d 8d c0 fe ff
	ff		 lea	 ecx, DWORD PTR _stRowData$[ebp]
  004ae	66 c7 85 f6 fe
	ff ff 04 04	 mov	 WORD PTR _Datah$[ebp+22], 1028 ; 00000404H
  004b7	ff 15 00 00 00
	00		 call	 DWORD PTR __imp_??4?$CStringT@DV?$StrTraitMFC_DLL@DV?$ChTraitsCRT@D@ATL@@@@@ATL@@QAEAAV01@PBD@Z

; 142  : 		
; 143  : //KHD
; 144  : 		stNextKey = "4324";

  004bd	68 00 00 00 00	 push	 OFFSET ??_C@_04BDCHIDOC@4324@
  004c2	8d 8d d4 fe ff
	ff		 lea	 ecx, DWORD PTR _stNextKey$[ebp]
  004c8	ff 15 00 00 00
	00		 call	 DWORD PTR __imp_??4?$CStringT@DV?$StrTraitMFC_DLL@DV?$ChTraitsCRT@D@ATL@@@@@ATL@@QAEAAV01@PBD@Z

; 145  : 		strData += stNextKey; strData += sDS;	strData += stNextData;	strData += sCELL; //   : KHD 

  004ce	8d 85 d4 fe ff
	ff		 lea	 eax, DWORD PTR _stNextKey$[ebp]
  004d4	50		 push	 eax
  004d5	8d 8d dc fe ff
	ff		 lea	 ecx, DWORD PTR _strData$[ebp]
  004db	ff 15 00 00 00
	00		 call	 DWORD PTR __imp_??Y?$CStringT@DV?$StrTraitMFC_DLL@DV?$ChTraitsCRT@D@ATL@@@@@ATL@@QAEAAV01@ABV?$CSimpleStringT@D$00@1@@Z
  004e1	6a 7f		 push	 127			; 0000007fH
  004e3	8d 8d dc fe ff
	ff		 lea	 ecx, DWORD PTR _strData$[ebp]
  004e9	ff 15 00 00 00
	00		 call	 DWORD PTR __imp_??Y?$CStringT@DV?$StrTraitMFC_DLL@DV?$ChTraitsCRT@D@ATL@@@@@ATL@@QAEAAV01@D@Z
  004ef	8d 85 d0 fe ff
	ff		 lea	 eax, DWORD PTR _stNextData$[ebp]
  004f5	50		 push	 eax
  004f6	8d 8d dc fe ff
	ff		 lea	 ecx, DWORD PTR _strData$[ebp]
  004fc	ff 15 00 00 00
	00		 call	 DWORD PTR __imp_??Y?$CStringT@DV?$StrTraitMFC_DLL@DV?$ChTraitsCRT@D@ATL@@@@@ATL@@QAEAAV01@ABV?$CSimpleStringT@D$00@1@@Z
  00502	6a 09		 push	 9
  00504	8d 8d dc fe ff
	ff		 lea	 ecx, DWORD PTR _strData$[ebp]
  0050a	ff 15 00 00 00
	00		 call	 DWORD PTR __imp_??Y?$CStringT@DV?$StrTraitMFC_DLL@DV?$ChTraitsCRT@D@ATL@@@@@ATL@@QAEAAV01@D@Z

; 146  : // 		// /  (0:, 1:)
; 147  :  		strData += "4308";	strData += sDS;	strData += strImgRgb;	strData += sCELL;

  00510	68 00 00 00 00	 push	 OFFSET ??_C@_04LMBGBIIA@4308@
  00515	8d 8d dc fe ff
	ff		 lea	 ecx, DWORD PTR _strData$[ebp]
  0051b	ff 15 00 00 00
	00		 call	 DWORD PTR __imp_??Y?$CStringT@DV?$StrTraitMFC_DLL@DV?$ChTraitsCRT@D@ATL@@@@@ATL@@QAEAAV01@PBD@Z
  00521	6a 7f		 push	 127			; 0000007fH
  00523	8d 8d dc fe ff
	ff		 lea	 ecx, DWORD PTR _strData$[ebp]
  00529	ff 15 00 00 00
	00		 call	 DWORD PTR __imp_??Y?$CStringT@DV?$StrTraitMFC_DLL@DV?$ChTraitsCRT@D@ATL@@@@@ATL@@QAEAAV01@D@Z
  0052f	8d 85 b0 fe ff
	ff		 lea	 eax, DWORD PTR _strImgRgb$[ebp]
  00535	50		 push	 eax
  00536	8d 8d dc fe ff
	ff		 lea	 ecx, DWORD PTR _strData$[ebp]
  0053c	ff 15 00 00 00
	00		 call	 DWORD PTR __imp_??Y?$CStringT@DV?$StrTraitMFC_DLL@DV?$ChTraitsCRT@D@ATL@@@@@ATL@@QAEAAV01@ABV?$CSimpleStringT@D$00@1@@Z
  00542	6a 09		 push	 9
  00544	8d 8d dc fe ff
	ff		 lea	 ecx, DWORD PTR _strData$[ebp]
  0054a	ff 15 00 00 00
	00		 call	 DWORD PTR __imp_??Y?$CStringT@DV?$StrTraitMFC_DLL@DV?$ChTraitsCRT@D@ATL@@@@@ATL@@QAEAAV01@D@Z

; 148  : 		// 		//  Input  (1:) 
; 149  :  		strData += "4309";	strData += sDS;	strData += strNow;	strData += sCELL;

  00550	68 00 00 00 00	 push	 OFFSET ??_C@_04KFANCJMB@4309@
  00555	8d 8d dc fe ff
	ff		 lea	 ecx, DWORD PTR _strData$[ebp]
  0055b	ff 15 00 00 00
	00		 call	 DWORD PTR __imp_??Y?$CStringT@DV?$StrTraitMFC_DLL@DV?$ChTraitsCRT@D@ATL@@@@@ATL@@QAEAAV01@PBD@Z
  00561	6a 7f		 push	 127			; 0000007fH
  00563	8d 8d dc fe ff
	ff		 lea	 ecx, DWORD PTR _strData$[ebp]
  00569	ff 15 00 00 00
	00		 call	 DWORD PTR __imp_??Y?$CStringT@DV?$StrTraitMFC_DLL@DV?$ChTraitsCRT@D@ATL@@@@@ATL@@QAEAAV01@D@Z
  0056f	8d 85 b4 fe ff
	ff		 lea	 eax, DWORD PTR _strNow$[ebp]
  00575	50		 push	 eax
  00576	8d 8d dc fe ff
	ff		 lea	 ecx, DWORD PTR _strData$[ebp]
  0057c	ff 15 00 00 00
	00		 call	 DWORD PTR __imp_??Y?$CStringT@DV?$StrTraitMFC_DLL@DV?$ChTraitsCRT@D@ATL@@@@@ATL@@QAEAAV01@ABV?$CSimpleStringT@D$00@1@@Z
  00582	6a 09		 push	 9
  00584	8d 8d dc fe ff
	ff		 lea	 ecx, DWORD PTR _strData$[ebp]
  0058a	ff 15 00 00 00
	00		 call	 DWORD PTR __imp_??Y?$CStringT@DV?$StrTraitMFC_DLL@DV?$ChTraitsCRT@D@ATL@@@@@ATL@@QAEAAV01@D@Z

; 150  : 
; 151  : 		// 
; 152  : 		strTemp = CString(m_InData.modGb, sizeof(m_InData.modGb));

  00590	6a 01		 push	 1
  00592	8d 43 3f	 lea	 eax, DWORD PTR [ebx+63]
  00595	50		 push	 eax
  00596	8d 8d d8 fe ff
	ff		 lea	 ecx, DWORD PTR $T11[ebp]
  0059c	ff 15 00 00 00
	00		 call	 DWORD PTR __imp_??0?$CStringT@DV?$StrTraitMFC_DLL@DV?$ChTraitsCRT@D@ATL@@@@@ATL@@QAE@PBDH@Z
  005a2	50		 push	 eax
  005a3	8d 8d cc fe ff
	ff		 lea	 ecx, DWORD PTR _strTemp$[ebp]
  005a9	c6 45 fc 12	 mov	 BYTE PTR __$EHRec$[ebp+8], 18 ; 00000012H
  005ad	ff 15 00 00 00
	00		 call	 DWORD PTR __imp_??4?$CStringT@DV?$StrTraitMFC_DLL@DV?$ChTraitsCRT@D@ATL@@@@@ATL@@QAEAAV01@ABV01@@Z
  005b3	8d 8d d8 fe ff
	ff		 lea	 ecx, DWORD PTR $T11[ebp]
  005b9	c6 45 fc 10	 mov	 BYTE PTR __$EHRec$[ebp+8], 16 ; 00000010H
  005bd	ff 15 00 00 00
	00		 call	 DWORD PTR __imp_??1?$CStringT@DV?$StrTraitMFC_DLL@DV?$ChTraitsCRT@D@ATL@@@@@ATL@@QAE@XZ

; 153  : 		strData += "4339";	strData += sDS;	strData += strTemp;	strData += sCELL;

  005c3	68 00 00 00 00	 push	 OFFSET ??_C@_04KHELJHJI@4339@
  005c8	8d 8d dc fe ff
	ff		 lea	 ecx, DWORD PTR _strData$[ebp]
  005ce	ff 15 00 00 00
	00		 call	 DWORD PTR __imp_??Y?$CStringT@DV?$StrTraitMFC_DLL@DV?$ChTraitsCRT@D@ATL@@@@@ATL@@QAEAAV01@PBD@Z
  005d4	6a 7f		 push	 127			; 0000007fH
  005d6	8d 8d dc fe ff
	ff		 lea	 ecx, DWORD PTR _strData$[ebp]
  005dc	ff 15 00 00 00
	00		 call	 DWORD PTR __imp_??Y?$CStringT@DV?$StrTraitMFC_DLL@DV?$ChTraitsCRT@D@ATL@@@@@ATL@@QAEAAV01@D@Z
  005e2	8d 85 cc fe ff
	ff		 lea	 eax, DWORD PTR _strTemp$[ebp]
  005e8	50		 push	 eax
  005e9	8d 8d dc fe ff
	ff		 lea	 ecx, DWORD PTR _strData$[ebp]
  005ef	ff 15 00 00 00
	00		 call	 DWORD PTR __imp_??Y?$CStringT@DV?$StrTraitMFC_DLL@DV?$ChTraitsCRT@D@ATL@@@@@ATL@@QAEAAV01@ABV?$CSimpleStringT@D$00@1@@Z
  005f5	6a 09		 push	 9
  005f7	8d 8d dc fe ff
	ff		 lea	 ecx, DWORD PTR _strData$[ebp]
  005fd	ff 15 00 00 00
	00		 call	 DWORD PTR __imp_??Y?$CStringT@DV?$StrTraitMFC_DLL@DV?$ChTraitsCRT@D@ATL@@@@@ATL@@QAEAAV01@D@Z

; 154  : 
; 155  : 		if (m_InData.Irecordgb[0] == '1')	//	  

  00603	80 7b 5f 31	 cmp	 BYTE PTR [ebx+95], 49	; 00000031H
  00607	0f 85 0f 04 00
	00		 jne	 $LN2@Convert

; 156  :  		{
; 157  : 			int BeforeDay = CDataConverter::Char2Int(m_InData.nDayBefore, sizeof(m_InData.nDayBefore));	// 0:

  0060d	8d 43 60	 lea	 eax, DWORD PTR [ebx+96]
  00610	6a 02		 push	 2
  00612	50		 push	 eax
  00613	e8 00 00 00 00	 call	 ?Char2Int@CDataConverter@@SAHPADH@Z ; CDataConverter::Char2Int
  00618	83 c4 08	 add	 esp, 8

; 158  : 			CString stBefore;

  0061b	8d 8d d8 fe ff
	ff		 lea	 ecx, DWORD PTR _stBefore$10[ebp]
  00621	8b f0		 mov	 esi, eax
  00623	ff 15 00 00 00
	00		 call	 DWORD PTR __imp_??0?$CStringT@DV?$StrTraitMFC_DLL@DV?$ChTraitsCRT@D@ATL@@@@@ATL@@QAE@XZ

; 159  : 			stBefore = strTime;

  00629	8d 85 c8 fe ff
	ff		 lea	 eax, DWORD PTR _strTime$[ebp]
  0062f	c6 45 fc 13	 mov	 BYTE PTR __$EHRec$[ebp+8], 19 ; 00000013H
  00633	50		 push	 eax
  00634	8d 8d d8 fe ff
	ff		 lea	 ecx, DWORD PTR _stBefore$10[ebp]
  0063a	ff 15 00 00 00
	00		 call	 DWORD PTR __imp_??4?$CStringT@DV?$StrTraitMFC_DLL@DV?$ChTraitsCRT@D@ATL@@@@@ATL@@QAEAAV01@ABV01@@Z

; 160  : 			strTime.Format("%d%s",BeforeDay,strTime);//0 :  , 1: 

  00640	ff b5 c8 fe ff
	ff		 push	 DWORD PTR _strTime$[ebp]
  00646	8d 85 c8 fe ff
	ff		 lea	 eax, DWORD PTR _strTime$[ebp]
  0064c	56		 push	 esi
  0064d	68 00 00 00 00	 push	 OFFSET ??_C@_04LOCMGGPM@?$CFd?$CFs@
  00652	50		 push	 eax
  00653	ff d7		 call	 edi
  00655	83 c4 10	 add	 esp, 16			; 00000010H

; 161  :  			strData += "4341";	strData += sDS;	strData += strTime;	strData += sCELL;

  00658	8d 8d dc fe ff
	ff		 lea	 ecx, DWORD PTR _strData$[ebp]
  0065e	68 00 00 00 00	 push	 OFFSET ??_C@_04GKNNALBF@4341@
  00663	ff 15 00 00 00
	00		 call	 DWORD PTR __imp_??Y?$CStringT@DV?$StrTraitMFC_DLL@DV?$ChTraitsCRT@D@ATL@@@@@ATL@@QAEAAV01@PBD@Z
  00669	6a 7f		 push	 127			; 0000007fH
  0066b	8d 8d dc fe ff
	ff		 lea	 ecx, DWORD PTR _strData$[ebp]
  00671	ff 15 00 00 00
	00		 call	 DWORD PTR __imp_??Y?$CStringT@DV?$StrTraitMFC_DLL@DV?$ChTraitsCRT@D@ATL@@@@@ATL@@QAEAAV01@D@Z
  00677	8d 85 c8 fe ff
	ff		 lea	 eax, DWORD PTR _strTime$[ebp]
  0067d	50		 push	 eax
  0067e	8d 8d dc fe ff
	ff		 lea	 ecx, DWORD PTR _strData$[ebp]
  00684	ff 15 00 00 00
	00		 call	 DWORD PTR __imp_??Y?$CStringT@DV?$StrTraitMFC_DLL@DV?$ChTraitsCRT@D@ATL@@@@@ATL@@QAEAAV01@ABV?$CSimpleStringT@D$00@1@@Z
  0068a	6a 09		 push	 9
  0068c	8d 8d dc fe ff
	ff		 lea	 ecx, DWORD PTR _strData$[ebp]
  00692	ff 15 00 00 00
	00		 call	 DWORD PTR __imp_??Y?$CStringT@DV?$StrTraitMFC_DLL@DV?$ChTraitsCRT@D@ATL@@@@@ATL@@QAEAAV01@D@Z

; 162  :  		}

  00698	8d 8d d8 fe ff
	ff		 lea	 ecx, DWORD PTR _stBefore$10[ebp]
  0069e	c6 45 fc 10	 mov	 BYTE PTR __$EHRec$[ebp+8], 16 ; 00000010H
  006a2	ff 15 00 00 00
	00		 call	 DWORD PTR __imp_??1?$CStringT@DV?$StrTraitMFC_DLL@DV?$ChTraitsCRT@D@ATL@@@@@ATL@@QAE@XZ

; 163  : //END
; 164  : 		break;

  006a8	e9 6f 03 00 00	 jmp	 $LN2@Convert
$LN33@Convert:

; 165  : 
; 166  : 	case 2:		// 
; 167  : 			Datah.dindex = GI_DAY;
; 168  : 			 nUnit = 1;
; 169  : 			stRowData = _T("?5500");

  006ad	68 00 00 00 00	 push	 OFFSET ??_C@_05OOAIAHCC@?$DP5500@
  006b2	8d 8d c0 fe ff
	ff		 lea	 ecx, DWORD PTR _stRowData$[ebp]
  006b8	c6 85 f7 fe ff
	ff 01		 mov	 BYTE PTR _Datah$[ebp+23], 1
  006bf	c7 85 bc fe ff
	ff 01 00 00 00	 mov	 DWORD PTR _nUnit$1$[ebp], 1
  006c9	ff 15 00 00 00
	00		 call	 DWORD PTR __imp_??4?$CStringT@DV?$StrTraitMFC_DLL@DV?$ChTraitsCRT@D@ATL@@@@@ATL@@QAEAAV01@PBD@Z

; 170  : 			stNextKey = "5324";

  006cf	68 00 00 00 00	 push	 OFFSET ??_C@_04COEHKKFC@5324@
  006d4	8d 8d d4 fe ff
	ff		 lea	 ecx, DWORD PTR _stNextKey$[ebp]
  006da	ff 15 00 00 00
	00		 call	 DWORD PTR __imp_??4?$CStringT@DV?$StrTraitMFC_DLL@DV?$ChTraitsCRT@D@ATL@@@@@ATL@@QAEAAV01@PBD@Z

; 171  : 			strData += stNextKey; strData += sDS;	strData += stNextData;	strData += sCELL; //   : KHD 

  006e0	8d 85 d4 fe ff
	ff		 lea	 eax, DWORD PTR _stNextKey$[ebp]
  006e6	50		 push	 eax
  006e7	8d 8d dc fe ff
	ff		 lea	 ecx, DWORD PTR _strData$[ebp]
  006ed	ff 15 00 00 00
	00		 call	 DWORD PTR __imp_??Y?$CStringT@DV?$StrTraitMFC_DLL@DV?$ChTraitsCRT@D@ATL@@@@@ATL@@QAEAAV01@ABV?$CSimpleStringT@D$00@1@@Z
  006f3	6a 7f		 push	 127			; 0000007fH
  006f5	8d 8d dc fe ff
	ff		 lea	 ecx, DWORD PTR _strData$[ebp]
  006fb	ff 15 00 00 00
	00		 call	 DWORD PTR __imp_??Y?$CStringT@DV?$StrTraitMFC_DLL@DV?$ChTraitsCRT@D@ATL@@@@@ATL@@QAEAAV01@D@Z
  00701	8d 85 d0 fe ff
	ff		 lea	 eax, DWORD PTR _stNextData$[ebp]
  00707	50		 push	 eax
  00708	8d 8d dc fe ff
	ff		 lea	 ecx, DWORD PTR _strData$[ebp]
  0070e	ff 15 00 00 00
	00		 call	 DWORD PTR __imp_??Y?$CStringT@DV?$StrTraitMFC_DLL@DV?$ChTraitsCRT@D@ATL@@@@@ATL@@QAEAAV01@ABV?$CSimpleStringT@D$00@1@@Z
  00714	6a 09		 push	 9
  00716	8d 8d dc fe ff
	ff		 lea	 ecx, DWORD PTR _strData$[ebp]
  0071c	ff 15 00 00 00
	00		 call	 DWORD PTR __imp_??Y?$CStringT@DV?$StrTraitMFC_DLL@DV?$ChTraitsCRT@D@ATL@@@@@ATL@@QAEAAV01@D@Z

; 172  : 			//KHD : 
; 173  : 			strTemp = CString(m_InData.modGb, sizeof(m_InData.modGb));

  00722	6a 01		 push	 1
  00724	8d 43 3f	 lea	 eax, DWORD PTR [ebx+63]
  00727	50		 push	 eax
  00728	8d 8d d8 fe ff
	ff		 lea	 ecx, DWORD PTR $T9[ebp]
  0072e	ff 15 00 00 00
	00		 call	 DWORD PTR __imp_??0?$CStringT@DV?$StrTraitMFC_DLL@DV?$ChTraitsCRT@D@ATL@@@@@ATL@@QAE@PBDH@Z
  00734	c6 45 fc 14	 mov	 BYTE PTR __$EHRec$[ebp+8], 20 ; 00000014H
$LN135@Convert:

; 221  : 
; 222  : 		break;
; 223  : 	}
; 224  : 
; 225  : 	//////////////////////////////////////////////////////////////////////////
; 226  : 	//	OutBound Data
; 227  : 	for (i=0; i<m_nGridCnt; i++)

  00738	50		 push	 eax
  00739	8d 8d cc fe ff
	ff		 lea	 ecx, DWORD PTR _strTemp$[ebp]
  0073f	ff 15 00 00 00
	00		 call	 DWORD PTR __imp_??4?$CStringT@DV?$StrTraitMFC_DLL@DV?$ChTraitsCRT@D@ATL@@@@@ATL@@QAEAAV01@ABV01@@Z
  00745	8d 8d d8 fe ff
	ff		 lea	 ecx, DWORD PTR $T9[ebp]
  0074b	c6 45 fc 10	 mov	 BYTE PTR __$EHRec$[ebp+8], 16 ; 00000010H
  0074f	ff 15 00 00 00
	00		 call	 DWORD PTR __imp_??1?$CStringT@DV?$StrTraitMFC_DLL@DV?$ChTraitsCRT@D@ATL@@@@@ATL@@QAE@XZ
  00755	68 00 00 00 00	 push	 OFFSET ??_C@_04JKCLLOCI@5339@
  0075a	8d 8d dc fe ff
	ff		 lea	 ecx, DWORD PTR _strData$[ebp]
  00760	ff 15 00 00 00
	00		 call	 DWORD PTR __imp_??Y?$CStringT@DV?$StrTraitMFC_DLL@DV?$ChTraitsCRT@D@ATL@@@@@ATL@@QAEAAV01@PBD@Z
  00766	6a 7f		 push	 127			; 0000007fH
  00768	8d 8d dc fe ff
	ff		 lea	 ecx, DWORD PTR _strData$[ebp]
  0076e	ff 15 00 00 00
	00		 call	 DWORD PTR __imp_??Y?$CStringT@DV?$StrTraitMFC_DLL@DV?$ChTraitsCRT@D@ATL@@@@@ATL@@QAEAAV01@D@Z
  00774	8d 85 cc fe ff
	ff		 lea	 eax, DWORD PTR _strTemp$[ebp]
  0077a	e9 82 02 00 00	 jmp	 $LN134@Convert
$LN34@Convert:

; 174  : 			strData += "5339";	strData += sDS;	strData += strTemp;	strData += sCELL;
; 175  : 			
; 176  : 		break;
; 177  : 	case 3:		// 
; 178  : 			Datah.dindex = GI_WEEK;
; 179  : 			 nUnit = 1;
; 180  : 			stRowData = _T("?5500");

  0077f	68 00 00 00 00	 push	 OFFSET ??_C@_05OOAIAHCC@?$DP5500@
  00784	8d 8d c0 fe ff
	ff		 lea	 ecx, DWORD PTR _stRowData$[ebp]
  0078a	c6 85 f7 fe ff
	ff 02		 mov	 BYTE PTR _Datah$[ebp+23], 2
  00791	c7 85 bc fe ff
	ff 01 00 00 00	 mov	 DWORD PTR _nUnit$1$[ebp], 1
  0079b	ff 15 00 00 00
	00		 call	 DWORD PTR __imp_??4?$CStringT@DV?$StrTraitMFC_DLL@DV?$ChTraitsCRT@D@ATL@@@@@ATL@@QAEAAV01@PBD@Z

; 181  : 			stNextKey = "5324";

  007a1	68 00 00 00 00	 push	 OFFSET ??_C@_04COEHKKFC@5324@
  007a6	8d 8d d4 fe ff
	ff		 lea	 ecx, DWORD PTR _stNextKey$[ebp]
  007ac	ff 15 00 00 00
	00		 call	 DWORD PTR __imp_??4?$CStringT@DV?$StrTraitMFC_DLL@DV?$ChTraitsCRT@D@ATL@@@@@ATL@@QAEAAV01@PBD@Z

; 182  : 			strData += stNextKey; strData += sDS;	strData += stNextData;	strData += sCELL; //   : KHD 

  007b2	8d 85 d4 fe ff
	ff		 lea	 eax, DWORD PTR _stNextKey$[ebp]
  007b8	50		 push	 eax
  007b9	8d 8d dc fe ff
	ff		 lea	 ecx, DWORD PTR _strData$[ebp]
  007bf	ff 15 00 00 00
	00		 call	 DWORD PTR __imp_??Y?$CStringT@DV?$StrTraitMFC_DLL@DV?$ChTraitsCRT@D@ATL@@@@@ATL@@QAEAAV01@ABV?$CSimpleStringT@D$00@1@@Z
  007c5	6a 7f		 push	 127			; 0000007fH
  007c7	8d 8d dc fe ff
	ff		 lea	 ecx, DWORD PTR _strData$[ebp]
  007cd	ff 15 00 00 00
	00		 call	 DWORD PTR __imp_??Y?$CStringT@DV?$StrTraitMFC_DLL@DV?$ChTraitsCRT@D@ATL@@@@@ATL@@QAEAAV01@D@Z
  007d3	8d 85 d0 fe ff
	ff		 lea	 eax, DWORD PTR _stNextData$[ebp]
  007d9	50		 push	 eax
  007da	8d 8d dc fe ff
	ff		 lea	 ecx, DWORD PTR _strData$[ebp]
  007e0	ff 15 00 00 00
	00		 call	 DWORD PTR __imp_??Y?$CStringT@DV?$StrTraitMFC_DLL@DV?$ChTraitsCRT@D@ATL@@@@@ATL@@QAEAAV01@ABV?$CSimpleStringT@D$00@1@@Z
  007e6	6a 09		 push	 9
  007e8	8d 8d dc fe ff
	ff		 lea	 ecx, DWORD PTR _strData$[ebp]
  007ee	ff 15 00 00 00
	00		 call	 DWORD PTR __imp_??Y?$CStringT@DV?$StrTraitMFC_DLL@DV?$ChTraitsCRT@D@ATL@@@@@ATL@@QAEAAV01@D@Z

; 183  : 			//KHD : 
; 184  : 			strTemp = CString(m_InData.modGb, sizeof(m_InData.modGb));

  007f4	6a 01		 push	 1
  007f6	8d 43 3f	 lea	 eax, DWORD PTR [ebx+63]
  007f9	50		 push	 eax
  007fa	8d 8d d8 fe ff
	ff		 lea	 ecx, DWORD PTR $T8[ebp]
  00800	ff 15 00 00 00
	00		 call	 DWORD PTR __imp_??0?$CStringT@DV?$StrTraitMFC_DLL@DV?$ChTraitsCRT@D@ATL@@@@@ATL@@QAE@PBDH@Z
  00806	c6 45 fc 15	 mov	 BYTE PTR __$EHRec$[ebp+8], 21 ; 00000015H

; 185  : 			strData += "5339";	strData += sDS;	strData += strTemp;	strData += sCELL;
; 186  : 			
; 187  : 		break;

  0080a	e9 29 ff ff ff	 jmp	 $LN135@Convert
$LN35@Convert:

; 188  : 	case 4:		// 
; 189  : 			Datah.dindex = GI_MONTH;
; 190  : 			 nUnit = 1;
; 191  : 			stRowData = _T("?5500");

  0080f	68 00 00 00 00	 push	 OFFSET ??_C@_05OOAIAHCC@?$DP5500@
  00814	8d 8d c0 fe ff
	ff		 lea	 ecx, DWORD PTR _stRowData$[ebp]
  0081a	c6 85 f7 fe ff
	ff 03		 mov	 BYTE PTR _Datah$[ebp+23], 3
  00821	c7 85 bc fe ff
	ff 01 00 00 00	 mov	 DWORD PTR _nUnit$1$[ebp], 1
  0082b	ff 15 00 00 00
	00		 call	 DWORD PTR __imp_??4?$CStringT@DV?$StrTraitMFC_DLL@DV?$ChTraitsCRT@D@ATL@@@@@ATL@@QAEAAV01@PBD@Z

; 192  : 			stNextKey = "5324";

  00831	68 00 00 00 00	 push	 OFFSET ??_C@_04COEHKKFC@5324@
  00836	8d 8d d4 fe ff
	ff		 lea	 ecx, DWORD PTR _stNextKey$[ebp]
  0083c	ff 15 00 00 00
	00		 call	 DWORD PTR __imp_??4?$CStringT@DV?$StrTraitMFC_DLL@DV?$ChTraitsCRT@D@ATL@@@@@ATL@@QAEAAV01@PBD@Z

; 193  : 			strData += stNextKey; strData += sDS;	strData += stNextData;	strData += sCELL; //   : KHD 

  00842	8d 85 d4 fe ff
	ff		 lea	 eax, DWORD PTR _stNextKey$[ebp]
  00848	50		 push	 eax
  00849	8d 8d dc fe ff
	ff		 lea	 ecx, DWORD PTR _strData$[ebp]
  0084f	ff 15 00 00 00
	00		 call	 DWORD PTR __imp_??Y?$CStringT@DV?$StrTraitMFC_DLL@DV?$ChTraitsCRT@D@ATL@@@@@ATL@@QAEAAV01@ABV?$CSimpleStringT@D$00@1@@Z
  00855	6a 7f		 push	 127			; 0000007fH
  00857	8d 8d dc fe ff
	ff		 lea	 ecx, DWORD PTR _strData$[ebp]
  0085d	ff 15 00 00 00
	00		 call	 DWORD PTR __imp_??Y?$CStringT@DV?$StrTraitMFC_DLL@DV?$ChTraitsCRT@D@ATL@@@@@ATL@@QAEAAV01@D@Z
  00863	8d 85 d0 fe ff
	ff		 lea	 eax, DWORD PTR _stNextData$[ebp]
  00869	50		 push	 eax
  0086a	8d 8d dc fe ff
	ff		 lea	 ecx, DWORD PTR _strData$[ebp]
  00870	ff 15 00 00 00
	00		 call	 DWORD PTR __imp_??Y?$CStringT@DV?$StrTraitMFC_DLL@DV?$ChTraitsCRT@D@ATL@@@@@ATL@@QAEAAV01@ABV?$CSimpleStringT@D$00@1@@Z
  00876	6a 09		 push	 9
  00878	8d 8d dc fe ff
	ff		 lea	 ecx, DWORD PTR _strData$[ebp]
  0087e	ff 15 00 00 00
	00		 call	 DWORD PTR __imp_??Y?$CStringT@DV?$StrTraitMFC_DLL@DV?$ChTraitsCRT@D@ATL@@@@@ATL@@QAEAAV01@D@Z

; 194  : 			//KHD : 
; 195  : 			strTemp = CString(m_InData.modGb, sizeof(m_InData.modGb));

  00884	6a 01		 push	 1
  00886	8d 43 3f	 lea	 eax, DWORD PTR [ebx+63]
  00889	50		 push	 eax
  0088a	8d 8d d8 fe ff
	ff		 lea	 ecx, DWORD PTR $T7[ebp]
  00890	ff 15 00 00 00
	00		 call	 DWORD PTR __imp_??0?$CStringT@DV?$StrTraitMFC_DLL@DV?$ChTraitsCRT@D@ATL@@@@@ATL@@QAE@PBDH@Z
  00896	c6 45 fc 16	 mov	 BYTE PTR __$EHRec$[ebp+8], 22 ; 00000016H

; 196  : 			strData += "5339";	strData += sDS;	strData += strTemp;	strData += sCELL;
; 197  : 
; 198  : 		break;

  0089a	e9 99 fe ff ff	 jmp	 $LN135@Convert
$LN36@Convert:

; 199  : 
; 200  : 	case 5:		// 
; 201  : 			Datah.dindex = GI_YEAR;
; 202  : 			 nUnit = 1;
; 203  : 			stRowData = _T("?5500");

  0089f	68 00 00 00 00	 push	 OFFSET ??_C@_05OOAIAHCC@?$DP5500@
  008a4	8d 8d c0 fe ff
	ff		 lea	 ecx, DWORD PTR _stRowData$[ebp]
  008aa	c6 85 f7 fe ff
	ff 07		 mov	 BYTE PTR _Datah$[ebp+23], 7
  008b1	c7 85 bc fe ff
	ff 01 00 00 00	 mov	 DWORD PTR _nUnit$1$[ebp], 1
  008bb	ff 15 00 00 00
	00		 call	 DWORD PTR __imp_??4?$CStringT@DV?$StrTraitMFC_DLL@DV?$ChTraitsCRT@D@ATL@@@@@ATL@@QAEAAV01@PBD@Z

; 204  : 			stNextKey = "5324";

  008c1	68 00 00 00 00	 push	 OFFSET ??_C@_04COEHKKFC@5324@
  008c6	8d 8d d4 fe ff
	ff		 lea	 ecx, DWORD PTR _stNextKey$[ebp]
  008cc	ff 15 00 00 00
	00		 call	 DWORD PTR __imp_??4?$CStringT@DV?$StrTraitMFC_DLL@DV?$ChTraitsCRT@D@ATL@@@@@ATL@@QAEAAV01@PBD@Z

; 205  : 			strData += stNextKey; strData += sDS;	strData += stNextData;	strData += sCELL; //   : KHD 

  008d2	8d 85 d4 fe ff
	ff		 lea	 eax, DWORD PTR _stNextKey$[ebp]
  008d8	50		 push	 eax
  008d9	8d 8d dc fe ff
	ff		 lea	 ecx, DWORD PTR _strData$[ebp]
  008df	ff 15 00 00 00
	00		 call	 DWORD PTR __imp_??Y?$CStringT@DV?$StrTraitMFC_DLL@DV?$ChTraitsCRT@D@ATL@@@@@ATL@@QAEAAV01@ABV?$CSimpleStringT@D$00@1@@Z
  008e5	6a 7f		 push	 127			; 0000007fH
  008e7	8d 8d dc fe ff
	ff		 lea	 ecx, DWORD PTR _strData$[ebp]
  008ed	ff 15 00 00 00
	00		 call	 DWORD PTR __imp_??Y?$CStringT@DV?$StrTraitMFC_DLL@DV?$ChTraitsCRT@D@ATL@@@@@ATL@@QAEAAV01@D@Z
  008f3	8d 85 d0 fe ff
	ff		 lea	 eax, DWORD PTR _stNextData$[ebp]
  008f9	50		 push	 eax
  008fa	8d 8d dc fe ff
	ff		 lea	 ecx, DWORD PTR _strData$[ebp]
  00900	ff 15 00 00 00
	00		 call	 DWORD PTR __imp_??Y?$CStringT@DV?$StrTraitMFC_DLL@DV?$ChTraitsCRT@D@ATL@@@@@ATL@@QAEAAV01@ABV?$CSimpleStringT@D$00@1@@Z
  00906	6a 09		 push	 9
  00908	8d 8d dc fe ff
	ff		 lea	 ecx, DWORD PTR _strData$[ebp]
  0090e	ff 15 00 00 00
	00		 call	 DWORD PTR __imp_??Y?$CStringT@DV?$StrTraitMFC_DLL@DV?$ChTraitsCRT@D@ATL@@@@@ATL@@QAEAAV01@D@Z

; 206  : 			//KHD : 
; 207  : 			strTemp = CString(m_InData.modGb, sizeof(m_InData.modGb));

  00914	6a 01		 push	 1
  00916	8d 43 3f	 lea	 eax, DWORD PTR [ebx+63]
  00919	50		 push	 eax
  0091a	8d 8d d8 fe ff
	ff		 lea	 ecx, DWORD PTR $T6[ebp]
  00920	ff 15 00 00 00
	00		 call	 DWORD PTR __imp_??0?$CStringT@DV?$StrTraitMFC_DLL@DV?$ChTraitsCRT@D@ATL@@@@@ATL@@QAE@PBDH@Z
  00926	c6 45 fc 17	 mov	 BYTE PTR __$EHRec$[ebp+8], 23 ; 00000017H

; 208  : 			strData += "5339";	strData += sDS;	strData += strTemp;	strData += sCELL;
; 209  : 
; 210  : 		break;

  0092a	e9 09 fe ff ff	 jmp	 $LN135@Convert
$LN37@Convert:

; 211  : 
; 212  : 	case 6:		// 
; 213  : 		Datah.dindex = GI_SEC;
; 214  : 		Datah.dunit = GI_SEC;
; 215  : 		stRowData = _T("?6500");

  0092f	68 00 00 00 00	 push	 OFFSET ??_C@_05KJKIHNPC@?$DP6500@
  00934	8d 8d c0 fe ff
	ff		 lea	 ecx, DWORD PTR _stRowData$[ebp]
  0093a	66 c7 85 f6 fe
	ff ff 06 06	 mov	 WORD PTR _Datah$[ebp+22], 1542 ; 00000606H
  00943	ff 15 00 00 00
	00		 call	 DWORD PTR __imp_??4?$CStringT@DV?$StrTraitMFC_DLL@DV?$ChTraitsCRT@D@ATL@@@@@ATL@@QAEAAV01@PBD@Z

; 216  : 	
; 217  : 		stNextKey = "6324";

  00949	68 00 00 00 00	 push	 OFFSET ??_C@_04GJOHNAIC@6324@
  0094e	8d 8d d4 fe ff
	ff		 lea	 ecx, DWORD PTR _stNextKey$[ebp]
  00954	ff 15 00 00 00
	00		 call	 DWORD PTR __imp_??4?$CStringT@DV?$StrTraitMFC_DLL@DV?$ChTraitsCRT@D@ATL@@@@@ATL@@QAEAAV01@PBD@Z

; 218  : 		strData += stNextKey; strData += sDS;	strData += stNextData;	strData += sCELL;	//   : KHD 

  0095a	8d 85 d4 fe ff
	ff		 lea	 eax, DWORD PTR _stNextKey$[ebp]
  00960	50		 push	 eax
  00961	8d 8d dc fe ff
	ff		 lea	 ecx, DWORD PTR _strData$[ebp]
  00967	ff 15 00 00 00
	00		 call	 DWORD PTR __imp_??Y?$CStringT@DV?$StrTraitMFC_DLL@DV?$ChTraitsCRT@D@ATL@@@@@ATL@@QAEAAV01@ABV?$CSimpleStringT@D$00@1@@Z
  0096d	6a 7f		 push	 127			; 0000007fH
  0096f	8d 8d dc fe ff
	ff		 lea	 ecx, DWORD PTR _strData$[ebp]
  00975	ff 15 00 00 00
	00		 call	 DWORD PTR __imp_??Y?$CStringT@DV?$StrTraitMFC_DLL@DV?$ChTraitsCRT@D@ATL@@@@@ATL@@QAEAAV01@D@Z
  0097b	8d 85 d0 fe ff
	ff		 lea	 eax, DWORD PTR _stNextData$[ebp]
  00981	50		 push	 eax
  00982	8d 8d dc fe ff
	ff		 lea	 ecx, DWORD PTR _strData$[ebp]
  00988	ff 15 00 00 00
	00		 call	 DWORD PTR __imp_??Y?$CStringT@DV?$StrTraitMFC_DLL@DV?$ChTraitsCRT@D@ATL@@@@@ATL@@QAEAAV01@ABV?$CSimpleStringT@D$00@1@@Z
  0098e	6a 09		 push	 9
  00990	8d 8d dc fe ff
	ff		 lea	 ecx, DWORD PTR _strData$[ebp]
  00996	ff 15 00 00 00
	00		 call	 DWORD PTR __imp_??Y?$CStringT@DV?$StrTraitMFC_DLL@DV?$ChTraitsCRT@D@ATL@@@@@ATL@@QAEAAV01@D@Z

; 219  :  		strData += "6308";	strData += sDS;	strData += strImgRgb;	strData += sCELL;		// /  (0:, 1:)

  0099c	68 00 00 00 00	 push	 OFFSET ??_C@_04MGNGELOA@6308@
  009a1	8d 8d dc fe ff
	ff		 lea	 ecx, DWORD PTR _strData$[ebp]
  009a7	ff 15 00 00 00
	00		 call	 DWORD PTR __imp_??Y?$CStringT@DV?$StrTraitMFC_DLL@DV?$ChTraitsCRT@D@ATL@@@@@ATL@@QAEAAV01@PBD@Z
  009ad	6a 7f		 push	 127			; 0000007fH
  009af	8d 8d dc fe ff
	ff		 lea	 ecx, DWORD PTR _strData$[ebp]
  009b5	ff 15 00 00 00
	00		 call	 DWORD PTR __imp_??Y?$CStringT@DV?$StrTraitMFC_DLL@DV?$ChTraitsCRT@D@ATL@@@@@ATL@@QAEAAV01@D@Z
  009bb	8d 85 b0 fe ff
	ff		 lea	 eax, DWORD PTR _strImgRgb$[ebp]
  009c1	50		 push	 eax
  009c2	8d 8d dc fe ff
	ff		 lea	 ecx, DWORD PTR _strData$[ebp]
  009c8	ff 15 00 00 00
	00		 call	 DWORD PTR __imp_??Y?$CStringT@DV?$StrTraitMFC_DLL@DV?$ChTraitsCRT@D@ATL@@@@@ATL@@QAEAAV01@ABV?$CSimpleStringT@D$00@1@@Z
  009ce	6a 09		 push	 9
  009d0	8d 8d dc fe ff
	ff		 lea	 ecx, DWORD PTR _strData$[ebp]
  009d6	ff 15 00 00 00
	00		 call	 DWORD PTR __imp_??Y?$CStringT@DV?$StrTraitMFC_DLL@DV?$ChTraitsCRT@D@ATL@@@@@ATL@@QAEAAV01@D@Z

; 220  :  		strData += "6309";	strData += sDS;	strData += strNow;	strData += sCELL;			//  Input  (1:)

  009dc	68 00 00 00 00	 push	 OFFSET ??_C@_04NPMNHKKB@6309@
  009e1	8d 8d dc fe ff
	ff		 lea	 ecx, DWORD PTR _strData$[ebp]
  009e7	ff 15 00 00 00
	00		 call	 DWORD PTR __imp_??Y?$CStringT@DV?$StrTraitMFC_DLL@DV?$ChTraitsCRT@D@ATL@@@@@ATL@@QAEAAV01@PBD@Z
  009ed	6a 7f		 push	 127			; 0000007fH
  009ef	8d 8d dc fe ff
	ff		 lea	 ecx, DWORD PTR _strData$[ebp]
  009f5	ff 15 00 00 00
	00		 call	 DWORD PTR __imp_??Y?$CStringT@DV?$StrTraitMFC_DLL@DV?$ChTraitsCRT@D@ATL@@@@@ATL@@QAEAAV01@D@Z
  009fb	8d 85 b4 fe ff
	ff		 lea	 eax, DWORD PTR _strNow$[ebp]
$LN134@Convert:

; 221  : 
; 222  : 		break;
; 223  : 	}
; 224  : 
; 225  : 	//////////////////////////////////////////////////////////////////////////
; 226  : 	//	OutBound Data
; 227  : 	for (i=0; i<m_nGridCnt; i++)

  00a01	50		 push	 eax
  00a02	8d 8d dc fe ff
	ff		 lea	 ecx, DWORD PTR _strData$[ebp]
  00a08	ff 15 00 00 00
	00		 call	 DWORD PTR __imp_??Y?$CStringT@DV?$StrTraitMFC_DLL@DV?$ChTraitsCRT@D@ATL@@@@@ATL@@QAEAAV01@ABV?$CSimpleStringT@D$00@1@@Z
  00a0e	6a 09		 push	 9
  00a10	8d 8d dc fe ff
	ff		 lea	 ecx, DWORD PTR _strData$[ebp]
  00a16	ff 15 00 00 00
	00		 call	 DWORD PTR __imp_??Y?$CStringT@DV?$StrTraitMFC_DLL@DV?$ChTraitsCRT@D@ATL@@@@@ATL@@QAEAAV01@D@Z
$LN2@Convert:
  00a1c	33 f6		 xor	 esi, esi
  00a1e	39 73 1c	 cmp	 DWORD PTR [ebx+28], esi
  00a21	7e 27		 jle	 SHORT $LN5@Convert
$LL6@Convert:

; 228  : 	{
; 229  : 		strData += szStockGridSymbol[i];

  00a23	ff 34 b5 00 00
	00 00		 push	 DWORD PTR ?szStockGridSymbol@@3PAPADA[esi*4]
  00a2a	8d 8d dc fe ff
	ff		 lea	 ecx, DWORD PTR _strData$[ebp]
  00a30	ff 15 00 00 00
	00		 call	 DWORD PTR __imp_??Y?$CStringT@DV?$StrTraitMFC_DLL@DV?$ChTraitsCRT@D@ATL@@@@@ATL@@QAEAAV01@PBD@Z

; 230  : 		strData += sCELL;//KHD sFS;

  00a36	6a 09		 push	 9
  00a38	8d 8d dc fe ff
	ff		 lea	 ecx, DWORD PTR _strData$[ebp]
  00a3e	ff 15 00 00 00
	00		 call	 DWORD PTR __imp_??Y?$CStringT@DV?$StrTraitMFC_DLL@DV?$ChTraitsCRT@D@ATL@@@@@ATL@@QAEAAV01@D@Z
  00a44	46		 inc	 esi
  00a45	3b 73 1c	 cmp	 esi, DWORD PTR [ebx+28]
  00a48	7c d9		 jl	 SHORT $LL6@Convert
$LN5@Convert:

; 231  : 	}
; 232  : 	strData += stNextKey;

  00a4a	8d 85 d4 fe ff
	ff		 lea	 eax, DWORD PTR _stNextKey$[ebp]
  00a50	50		 push	 eax
  00a51	8d 8d dc fe ff
	ff		 lea	 ecx, DWORD PTR _strData$[ebp]
  00a57	ff 15 00 00 00
	00		 call	 DWORD PTR __imp_??Y?$CStringT@DV?$StrTraitMFC_DLL@DV?$ChTraitsCRT@D@ATL@@@@@ATL@@QAEAAV01@ABV?$CSimpleStringT@D$00@1@@Z

; 233  : 	strData += sCELL;

  00a5d	6a 09		 push	 9
  00a5f	8d 8d dc fe ff
	ff		 lea	 ecx, DWORD PTR _strData$[ebp]
  00a65	ff 15 00 00 00
	00		 call	 DWORD PTR __imp_??Y?$CStringT@DV?$StrTraitMFC_DLL@DV?$ChTraitsCRT@D@ATL@@@@@ATL@@QAEAAV01@D@Z

; 234  : //  
; 235  : 	strData += "51331";

  00a6b	68 00 00 00 00	 push	 OFFSET ??_C@_05IECFFCEA@51331@
  00a70	8d 8d dc fe ff
	ff		 lea	 ecx, DWORD PTR _strData$[ebp]
  00a76	ff 15 00 00 00
	00		 call	 DWORD PTR __imp_??Y?$CStringT@DV?$StrTraitMFC_DLL@DV?$ChTraitsCRT@D@ATL@@@@@ATL@@QAEAAV01@PBD@Z

; 236  : 	strData += sCELL;

  00a7c	6a 09		 push	 9
  00a7e	8d 8d dc fe ff
	ff		 lea	 ecx, DWORD PTR _strData$[ebp]
  00a84	ff 15 00 00 00
	00		 call	 DWORD PTR __imp_??Y?$CStringT@DV?$StrTraitMFC_DLL@DV?$ChTraitsCRT@D@ATL@@@@@ATL@@QAEAAV01@D@Z

; 237  : 
; 238  : 	// Row Data 
; 239  : 	strData += stRowData;

  00a8a	8d 85 c0 fe ff
	ff		 lea	 eax, DWORD PTR _stRowData$[ebp]
  00a90	50		 push	 eax
  00a91	8d 8d dc fe ff
	ff		 lea	 ecx, DWORD PTR _strData$[ebp]
  00a97	ff 15 00 00 00
	00		 call	 DWORD PTR __imp_??Y?$CStringT@DV?$StrTraitMFC_DLL@DV?$ChTraitsCRT@D@ATL@@@@@ATL@@QAEAAV01@ABV?$CSimpleStringT@D$00@1@@Z

; 240  : 	strData += sDS;

  00a9d	6a 7f		 push	 127			; 0000007fH
  00a9f	8d 8d dc fe ff
	ff		 lea	 ecx, DWORD PTR _strData$[ebp]
  00aa5	ff 15 00 00 00
	00		 call	 DWORD PTR __imp_??Y?$CStringT@DV?$StrTraitMFC_DLL@DV?$ChTraitsCRT@D@ATL@@@@@ATL@@QAEAAV01@D@Z

; 241  : 
; 242  : 	CString temp;

  00aab	8d 8d b8 fe ff
	ff		 lea	 ecx, DWORD PTR _temp$[ebp]
  00ab1	ff 15 00 00 00
	00		 call	 DWORD PTR __imp_??0?$CStringT@DV?$StrTraitMFC_DLL@DV?$ChTraitsCRT@D@ATL@@@@@ATL@@QAE@XZ

; 243  : 	//  
; 244  : 	int GrpHLen = 0;
; 245  : 	temp.Format("%06d", nCount);

  00ab7	ff b5 9c fe ff
	ff		 push	 DWORD PTR _nCount$1$[ebp]
  00abd	8d 85 b8 fe ff
	ff		 lea	 eax, DWORD PTR _temp$[ebp]
  00ac3	c6 45 fc 18	 mov	 BYTE PTR __$EHRec$[ebp+8], 24 ; 00000018H
  00ac7	68 00 00 00 00	 push	 OFFSET ??_C@_04OBKAGHLG@?$CF06d@
  00acc	50		 push	 eax
  00acd	ff d7		 call	 edi

; 246  : 	CopyMemory(Datah.count, temp, temp.GetLength());

  00acf	8b 85 b8 fe ff
	ff		 mov	 eax, DWORD PTR _temp$[ebp]
  00ad5	ff 70 f4	 push	 DWORD PTR [eax-12]
  00ad8	50		 push	 eax
  00ad9	8d 85 e0 fe ff
	ff		 lea	 eax, DWORD PTR _Datah$[ebp]
  00adf	50		 push	 eax
  00ae0	e8 00 00 00 00	 call	 _memcpy

; 247  : 	Datah.dkey = 0 + 0x30;
; 248  : 	
; 249  : 	CopyMemory(Datah.pday, strDate, strDate.GetLength());

  00ae5	8b 85 ac fe ff
	ff		 mov	 eax, DWORD PTR _strDate$[ebp]
  00aeb	c6 85 ed fe ff
	ff 30		 mov	 BYTE PTR _Datah$[ebp+13], 48 ; 00000030H
  00af2	ff 70 f4	 push	 DWORD PTR [eax-12]
  00af5	50		 push	 eax
  00af6	8d 85 ee fe ff
	ff		 lea	 eax, DWORD PTR _Datah$[ebp+14]
  00afc	50		 push	 eax
  00afd	e8 00 00 00 00	 call	 _memcpy

; 250  : 
; 251  : 	temp.Format("%0*d", sizeof(Datah.lgap), nUnit);// N 

  00b02	ff b5 bc fe ff
	ff		 push	 DWORD PTR _nUnit$1$[ebp]
  00b08	8d 85 b8 fe ff
	ff		 lea	 eax, DWORD PTR _temp$[ebp]
  00b0e	6a 04		 push	 4
  00b10	68 00 00 00 00	 push	 OFFSET ??_C@_04PEJMDNKC@?$CF0?$CKd@
  00b15	50		 push	 eax
  00b16	ff d7		 call	 edi

; 252  : 	CopyMemory(Datah.lgap, temp, temp.GetLength() );

  00b18	8b 85 b8 fe ff
	ff		 mov	 eax, DWORD PTR _temp$[ebp]
  00b1e	ff 70 f4	 push	 DWORD PTR [eax-12]
  00b21	50		 push	 eax
  00b22	8d 85 f8 fe ff
	ff		 lea	 eax, DWORD PTR _Datah$[ebp+24]
  00b28	50		 push	 eax
  00b29	e8 00 00 00 00	 call	 _memcpy
  00b2e	83 c4 40	 add	 esp, 64			; 00000040H

; 253  : 	
; 254  : 	char szData_i[sz_DATAH];
; 255  : 	memset(szData_i, 0x20, sz_DATAH);//sizeof(Datah));
; 256  :  	CopyMemory(szData_i, (char*)&Datah, sz_DATAH);//sizeof(Datah));

  00b31	8d b5 e0 fe ff
	ff		 lea	 esi, DWORD PTR _Datah$[ebp]
  00b37	b9 22 00 00 00	 mov	 ecx, 34			; 00000022H
  00b3c	8d bd 68 ff ff
	ff		 lea	 edi, DWORD PTR _szData_i$[ebp]
  00b42	f3 a5		 rep movsd

; 257  : 	szData_i[sz_DATAH-1] = 0x00; // KHD :  0x00  .
; 258  : 	strData += szData_i;

  00b44	8d 85 68 ff ff
	ff		 lea	 eax, DWORD PTR _szData_i$[ebp]
  00b4a	c6 45 ef 00	 mov	 BYTE PTR _szData_i$[ebp+135], 0
  00b4e	50		 push	 eax
  00b4f	8d 8d dc fe ff
	ff		 lea	 ecx, DWORD PTR _strData$[ebp]
  00b55	ff 15 00 00 00
	00		 call	 DWORD PTR __imp_??Y?$CStringT@DV?$StrTraitMFC_DLL@DV?$ChTraitsCRT@D@ATL@@@@@ATL@@QAEAAV01@PBD@Z

; 259  : 
; 260  : 	switch (nType)

  00b5b	8b 85 c4 fe ff
	ff		 mov	 eax, DWORD PTR _nType$1$[ebp]
  00b61	83 f8 06	 cmp	 eax, 6
  00b64	0f 87 5d 01 00
	00		 ja	 $LN25@Convert
  00b6a	ff 24 85 00 00
	00 00		 jmp	 DWORD PTR $LN131@Convert[eax*4]
$LN38@Convert:

; 261  : 	{
; 262  : 	case 0:		// 
; 263  : 		for (i = 0; i < m_nTickCnt; i++)

  00b71	33 f6		 xor	 esi, esi
  00b73	39 73 04	 cmp	 DWORD PTR [ebx+4], esi
  00b76	0f 8e 4b 01 00
	00		 jle	 $LN25@Convert
  00b7c	0f 1f 40 00	 npad	 4
$LL11@Convert:

; 264  : 		{
; 265  : 			strData += szTickRowField[i];

  00b80	ff 34 b5 00 00
	00 00		 push	 DWORD PTR ?szTickRowField@@3PAPADA[esi*4]
  00b87	8d 8d dc fe ff
	ff		 lea	 ecx, DWORD PTR _strData$[ebp]
  00b8d	ff 15 00 00 00
	00		 call	 DWORD PTR __imp_??Y?$CStringT@DV?$StrTraitMFC_DLL@DV?$ChTraitsCRT@D@ATL@@@@@ATL@@QAEAAV01@PBD@Z

; 266  : 			strData += sCOL;

  00b93	6a 0a		 push	 10			; 0000000aH
  00b95	8d 8d dc fe ff
	ff		 lea	 ecx, DWORD PTR _strData$[ebp]
  00b9b	ff 15 00 00 00
	00		 call	 DWORD PTR __imp_??Y?$CStringT@DV?$StrTraitMFC_DLL@DV?$ChTraitsCRT@D@ATL@@@@@ATL@@QAEAAV01@D@Z
  00ba1	46		 inc	 esi
  00ba2	3b 73 04	 cmp	 esi, DWORD PTR [ebx+4]
  00ba5	7c d9		 jl	 SHORT $LL11@Convert

; 267  : 		}
; 268  : 		break;

  00ba7	e9 1b 01 00 00	 jmp	 $LN25@Convert
$LN39@Convert:

; 269  : 
; 270  : 	case 1:		// 
; 271  : 		for(i = 0; i < m_nMinCnt; i++)

  00bac	33 f6		 xor	 esi, esi
  00bae	39 73 0c	 cmp	 DWORD PTR [ebx+12], esi
  00bb1	0f 8e 10 01 00
	00		 jle	 $LN25@Convert
  00bb7	66 0f 1f 84 00
	00 00 00 00	 npad	 9
$LL14@Convert:

; 272  : 		{
; 273  : 			strData += szMinRowField[i];

  00bc0	ff 34 b5 00 00
	00 00		 push	 DWORD PTR ?szMinRowField@@3PAPADA[esi*4]
  00bc7	8d 8d dc fe ff
	ff		 lea	 ecx, DWORD PTR _strData$[ebp]
  00bcd	ff 15 00 00 00
	00		 call	 DWORD PTR __imp_??Y?$CStringT@DV?$StrTraitMFC_DLL@DV?$ChTraitsCRT@D@ATL@@@@@ATL@@QAEAAV01@PBD@Z

; 274  : 			strData += sCOL;

  00bd3	6a 0a		 push	 10			; 0000000aH
  00bd5	8d 8d dc fe ff
	ff		 lea	 ecx, DWORD PTR _strData$[ebp]
  00bdb	ff 15 00 00 00
	00		 call	 DWORD PTR __imp_??Y?$CStringT@DV?$StrTraitMFC_DLL@DV?$ChTraitsCRT@D@ATL@@@@@ATL@@QAEAAV01@D@Z
  00be1	46		 inc	 esi
  00be2	3b 73 0c	 cmp	 esi, DWORD PTR [ebx+12]
  00be5	7c d9		 jl	 SHORT $LL14@Convert

; 275  : 		}
; 276  : 		break;

  00be7	e9 db 00 00 00	 jmp	 $LN25@Convert
$LN40@Convert:

; 277  : 
; 278  : 	case 2:		// 
; 279  : 		for(i = 0; i < m_nDayCnt; i++)

  00bec	33 f6		 xor	 esi, esi
  00bee	39 73 10	 cmp	 DWORD PTR [ebx+16], esi
  00bf1	0f 8e d0 00 00
	00		 jle	 $LN25@Convert
  00bf7	66 0f 1f 84 00
	00 00 00 00	 npad	 9
$LL17@Convert:

; 280  : 		{
; 281  : 			strData += szDayRowField[i];

  00c00	ff 34 b5 00 00
	00 00		 push	 DWORD PTR ?szDayRowField@@3PAPADA[esi*4]
  00c07	8d 8d dc fe ff
	ff		 lea	 ecx, DWORD PTR _strData$[ebp]
  00c0d	ff 15 00 00 00
	00		 call	 DWORD PTR __imp_??Y?$CStringT@DV?$StrTraitMFC_DLL@DV?$ChTraitsCRT@D@ATL@@@@@ATL@@QAEAAV01@PBD@Z

; 282  : 			strData += sCOL;

  00c13	6a 0a		 push	 10			; 0000000aH
  00c15	8d 8d dc fe ff
	ff		 lea	 ecx, DWORD PTR _strData$[ebp]
  00c1b	ff 15 00 00 00
	00		 call	 DWORD PTR __imp_??Y?$CStringT@DV?$StrTraitMFC_DLL@DV?$ChTraitsCRT@D@ATL@@@@@ATL@@QAEAAV01@D@Z
  00c21	46		 inc	 esi
  00c22	3b 73 10	 cmp	 esi, DWORD PTR [ebx+16]
  00c25	7c d9		 jl	 SHORT $LL17@Convert

; 283  : 		}
; 284  : 		break;

  00c27	e9 9b 00 00 00	 jmp	 $LN25@Convert
$LN41@Convert:

; 285  : 	case 3:		// 
; 286  : 	case 4:		// 
; 287  : 		for(i = 0; i < m_nWeekCnt; i++)

  00c2c	33 f6		 xor	 esi, esi
  00c2e	39 73 14	 cmp	 DWORD PTR [ebx+20], esi
  00c31	0f 8e 90 00 00
	00		 jle	 $LN25@Convert
  00c37	66 0f 1f 84 00
	00 00 00 00	 npad	 9
$LL20@Convert:

; 288  : 		{
; 289  : 			strData += szWeekRowField[i];

  00c40	ff 34 b5 00 00
	00 00		 push	 DWORD PTR ?szWeekRowField@@3PAPADA[esi*4]
  00c47	8d 8d dc fe ff
	ff		 lea	 ecx, DWORD PTR _strData$[ebp]
  00c4d	ff 15 00 00 00
	00		 call	 DWORD PTR __imp_??Y?$CStringT@DV?$StrTraitMFC_DLL@DV?$ChTraitsCRT@D@ATL@@@@@ATL@@QAEAAV01@PBD@Z

; 290  : 			strData += sCOL;

  00c53	6a 0a		 push	 10			; 0000000aH
  00c55	8d 8d dc fe ff
	ff		 lea	 ecx, DWORD PTR _strData$[ebp]
  00c5b	ff 15 00 00 00
	00		 call	 DWORD PTR __imp_??Y?$CStringT@DV?$StrTraitMFC_DLL@DV?$ChTraitsCRT@D@ATL@@@@@ATL@@QAEAAV01@D@Z
  00c61	46		 inc	 esi
  00c62	3b 73 14	 cmp	 esi, DWORD PTR [ebx+20]
  00c65	7c d9		 jl	 SHORT $LL20@Convert

; 291  : 		}
; 292  : 		break;

  00c67	eb 5e		 jmp	 SHORT $LN25@Convert
$LN43@Convert:

; 293  : 	case 6:		// 
; 294  : 		for(i = 0; i < m_nSecCnt; i++)

  00c69	33 f6		 xor	 esi, esi
  00c6b	39 73 08	 cmp	 DWORD PTR [ebx+8], esi
  00c6e	7e 57		 jle	 SHORT $LN25@Convert
$LL23@Convert:

; 295  : 		{
; 296  : 			strData += szSecRowField[i];

  00c70	ff 34 b5 00 00
	00 00		 push	 DWORD PTR ?szSecRowField@@3PAPADA[esi*4]
  00c77	8d 8d dc fe ff
	ff		 lea	 ecx, DWORD PTR _strData$[ebp]
  00c7d	ff 15 00 00 00
	00		 call	 DWORD PTR __imp_??Y?$CStringT@DV?$StrTraitMFC_DLL@DV?$ChTraitsCRT@D@ATL@@@@@ATL@@QAEAAV01@PBD@Z

; 297  : 			strData += sCOL;

  00c83	6a 0a		 push	 10			; 0000000aH
  00c85	8d 8d dc fe ff
	ff		 lea	 ecx, DWORD PTR _strData$[ebp]
  00c8b	ff 15 00 00 00
	00		 call	 DWORD PTR __imp_??Y?$CStringT@DV?$StrTraitMFC_DLL@DV?$ChTraitsCRT@D@ATL@@@@@ATL@@QAEAAV01@D@Z
  00c91	46		 inc	 esi
  00c92	3b 73 08	 cmp	 esi, DWORD PTR [ebx+8]
  00c95	7c d9		 jl	 SHORT $LL23@Convert

; 298  : 		}
; 299  : 		break;

  00c97	eb 2e		 jmp	 SHORT $LN25@Convert
$LN44@Convert:

; 300  : 	case 5:		// 
; 301  : 		for(i = 0; i < m_nYearCnt; i++)

  00c99	33 f6		 xor	 esi, esi
  00c9b	39 73 18	 cmp	 DWORD PTR [ebx+24], esi
  00c9e	7e 27		 jle	 SHORT $LN25@Convert
$LL26@Convert:

; 302  : 		{
; 303  : 			strData += szYearRowField[i];

  00ca0	ff 34 b5 00 00
	00 00		 push	 DWORD PTR ?szYearRowField@@3PAPADA[esi*4]
  00ca7	8d 8d dc fe ff
	ff		 lea	 ecx, DWORD PTR _strData$[ebp]
  00cad	ff 15 00 00 00
	00		 call	 DWORD PTR __imp_??Y?$CStringT@DV?$StrTraitMFC_DLL@DV?$ChTraitsCRT@D@ATL@@@@@ATL@@QAEAAV01@PBD@Z

; 304  : 			strData += sCOL;

  00cb3	6a 0a		 push	 10			; 0000000aH
  00cb5	8d 8d dc fe ff
	ff		 lea	 ecx, DWORD PTR _strData$[ebp]
  00cbb	ff 15 00 00 00
	00		 call	 DWORD PTR __imp_??Y?$CStringT@DV?$StrTraitMFC_DLL@DV?$ChTraitsCRT@D@ATL@@@@@ATL@@QAEAAV01@D@Z
  00cc1	46		 inc	 esi
  00cc2	3b 73 18	 cmp	 esi, DWORD PTR [ebx+24]
  00cc5	7c d9		 jl	 SHORT $LL26@Convert
$LN25@Convert:

; 305  : 		}
; 306  : 		break;
; 307  : 	}
; 308  : 	
; 309  : 	strData += sCELL;//sFS;

  00cc7	6a 09		 push	 9
  00cc9	8d 8d dc fe ff
	ff		 lea	 ecx, DWORD PTR _strData$[ebp]
  00ccf	ff 15 00 00 00
	00		 call	 DWORD PTR __imp_??Y?$CStringT@DV?$StrTraitMFC_DLL@DV?$ChTraitsCRT@D@ATL@@@@@ATL@@QAEAAV01@D@Z

; 310  : 
; 311  : 	return strData;

  00cd5	8b 8d 98 fe ff
	ff		 mov	 ecx, DWORD PTR ___$ReturnUdt$GSCopy$1$[ebp]
  00cdb	8d 85 dc fe ff
	ff		 lea	 eax, DWORD PTR _strData$[ebp]
  00ce1	50		 push	 eax
  00ce2	ff 15 00 00 00
	00		 call	 DWORD PTR __imp_??0?$CStringT@DV?$StrTraitMFC_DLL@DV?$ChTraitsCRT@D@ATL@@@@@ATL@@QAE@ABV01@@Z
  00ce8	8d 8d b8 fe ff
	ff		 lea	 ecx, DWORD PTR _temp$[ebp]
  00cee	ff 15 00 00 00
	00		 call	 DWORD PTR __imp_??1?$CStringT@DV?$StrTraitMFC_DLL@DV?$ChTraitsCRT@D@ATL@@@@@ATL@@QAE@XZ
  00cf4	8d 8d a0 fe ff
	ff		 lea	 ecx, DWORD PTR _stNextKey2$[ebp]
  00cfa	ff 15 00 00 00
	00		 call	 DWORD PTR __imp_??1?$CStringT@DV?$StrTraitMFC_DLL@DV?$ChTraitsCRT@D@ATL@@@@@ATL@@QAE@XZ
  00d00	8d 8d d4 fe ff
	ff		 lea	 ecx, DWORD PTR _stNextKey$[ebp]
  00d06	ff 15 00 00 00
	00		 call	 DWORD PTR __imp_??1?$CStringT@DV?$StrTraitMFC_DLL@DV?$ChTraitsCRT@D@ATL@@@@@ATL@@QAE@XZ
  00d0c	8d 8d d0 fe ff
	ff		 lea	 ecx, DWORD PTR _stNextData$[ebp]
  00d12	ff 15 00 00 00
	00		 call	 DWORD PTR __imp_??1?$CStringT@DV?$StrTraitMFC_DLL@DV?$ChTraitsCRT@D@ATL@@@@@ATL@@QAE@XZ
  00d18	8d 8d c0 fe ff
	ff		 lea	 ecx, DWORD PTR _stRowData$[ebp]
  00d1e	ff 15 00 00 00
	00		 call	 DWORD PTR __imp_??1?$CStringT@DV?$StrTraitMFC_DLL@DV?$ChTraitsCRT@D@ATL@@@@@ATL@@QAE@XZ
  00d24	8d 8d b0 fe ff
	ff		 lea	 ecx, DWORD PTR _strImgRgb$[ebp]
  00d2a	ff 15 00 00 00
	00		 call	 DWORD PTR __imp_??1?$CStringT@DV?$StrTraitMFC_DLL@DV?$ChTraitsCRT@D@ATL@@@@@ATL@@QAE@XZ
  00d30	8d 8d c8 fe ff
	ff		 lea	 ecx, DWORD PTR _strTime$[ebp]
  00d36	ff 15 00 00 00
	00		 call	 DWORD PTR __imp_??1?$CStringT@DV?$StrTraitMFC_DLL@DV?$ChTraitsCRT@D@ATL@@@@@ATL@@QAE@XZ
  00d3c	8d 8d a4 fe ff
	ff		 lea	 ecx, DWORD PTR _strUnit$[ebp]
  00d42	ff 15 00 00 00
	00		 call	 DWORD PTR __imp_??1?$CStringT@DV?$StrTraitMFC_DLL@DV?$ChTraitsCRT@D@ATL@@@@@ATL@@QAE@XZ
  00d48	8d 8d b4 fe ff
	ff		 lea	 ecx, DWORD PTR _strNow$[ebp]
  00d4e	ff 15 00 00 00
	00		 call	 DWORD PTR __imp_??1?$CStringT@DV?$StrTraitMFC_DLL@DV?$ChTraitsCRT@D@ATL@@@@@ATL@@QAE@XZ
  00d54	8d 8d ac fe ff
	ff		 lea	 ecx, DWORD PTR _strDate$[ebp]
  00d5a	ff 15 00 00 00
	00		 call	 DWORD PTR __imp_??1?$CStringT@DV?$StrTraitMFC_DLL@DV?$ChTraitsCRT@D@ATL@@@@@ATL@@QAE@XZ
  00d60	8d 8d cc fe ff
	ff		 lea	 ecx, DWORD PTR _strTemp$[ebp]
  00d66	ff 15 00 00 00
	00		 call	 DWORD PTR __imp_??1?$CStringT@DV?$StrTraitMFC_DLL@DV?$ChTraitsCRT@D@ATL@@@@@ATL@@QAE@XZ
  00d6c	8d 8d a8 fe ff
	ff		 lea	 ecx, DWORD PTR _strCode$[ebp]
  00d72	ff 15 00 00 00
	00		 call	 DWORD PTR __imp_??1?$CStringT@DV?$StrTraitMFC_DLL@DV?$ChTraitsCRT@D@ATL@@@@@ATL@@QAE@XZ
  00d78	8d 8d dc fe ff
	ff		 lea	 ecx, DWORD PTR _strData$[ebp]
  00d7e	ff 15 00 00 00
	00		 call	 DWORD PTR __imp_??1?$CStringT@DV?$StrTraitMFC_DLL@DV?$ChTraitsCRT@D@ATL@@@@@ATL@@QAE@XZ
  00d84	8b 85 98 fe ff
	ff		 mov	 eax, DWORD PTR ___$ReturnUdt$GSCopy$1$[ebp]
$LN1@Convert:

; 312  : }

  00d8a	8b 4d f4	 mov	 ecx, DWORD PTR __$EHRec$[ebp]
  00d8d	64 89 0d 00 00
	00 00		 mov	 DWORD PTR fs:0, ecx
  00d94	59		 pop	 ecx
  00d95	5f		 pop	 edi
  00d96	5e		 pop	 esi
  00d97	5b		 pop	 ebx
  00d98	8b 4d f0	 mov	 ecx, DWORD PTR __$ArrayPad$[ebp]
  00d9b	33 cd		 xor	 ecx, ebp
  00d9d	e8 00 00 00 00	 call	 @__security_check_cookie@4
  00da2	8b e5		 mov	 esp, ebp
  00da4	5d		 pop	 ebp
  00da5	c2 04 00	 ret	 4
$LN130@Convert:
  00da8	00 00 00 00	 DD	 $LN29@Convert
  00dac	00 00 00 00	 DD	 $LN31@Convert
  00db0	00 00 00 00	 DD	 $LN33@Convert
  00db4	00 00 00 00	 DD	 $LN34@Convert
  00db8	00 00 00 00	 DD	 $LN35@Convert
  00dbc	00 00 00 00	 DD	 $LN36@Convert
  00dc0	00 00 00 00	 DD	 $LN37@Convert
$LN131@Convert:
  00dc4	00 00 00 00	 DD	 $LN38@Convert
  00dc8	00 00 00 00	 DD	 $LN39@Convert
  00dcc	00 00 00 00	 DD	 $LN40@Convert
  00dd0	00 00 00 00	 DD	 $LN41@Convert
  00dd4	00 00 00 00	 DD	 $LN41@Convert
  00dd8	00 00 00 00	 DD	 $LN44@Convert
  00ddc	00 00 00 00	 DD	 $LN43@Convert
_TEXT	ENDS
;	COMDAT text$x
text$x	SEGMENT
__unwindfunclet$?Convert@CChartItemStock@@QAE?AV?$CStringT@DV?$StrTraitMFC_DLL@DV?$ChTraitsCRT@D@ATL@@@@@ATL@@XZ$1:
  00000	8d 8d dc fe ff
	ff		 lea	 ecx, DWORD PTR _strData$[ebp]
  00006	ff 25 00 00 00
	00		 jmp	 DWORD PTR __imp_??1?$CStringT@DV?$StrTraitMFC_DLL@DV?$ChTraitsCRT@D@ATL@@@@@ATL@@QAE@XZ
__unwindfunclet$?Convert@CChartItemStock@@QAE?AV?$CStringT@DV?$StrTraitMFC_DLL@DV?$ChTraitsCRT@D@ATL@@@@@ATL@@XZ$2:
  0000c	8d 8d a8 fe ff
	ff		 lea	 ecx, DWORD PTR _strCode$[ebp]
  00012	ff 25 00 00 00
	00		 jmp	 DWORD PTR __imp_??1?$CStringT@DV?$StrTraitMFC_DLL@DV?$ChTraitsCRT@D@ATL@@@@@ATL@@QAE@XZ
__unwindfunclet$?Convert@CChartItemStock@@QAE?AV?$CStringT@DV?$StrTraitMFC_DLL@DV?$ChTraitsCRT@D@ATL@@@@@ATL@@XZ$3:
  00018	8d 8d cc fe ff
	ff		 lea	 ecx, DWORD PTR _strTemp$[ebp]
  0001e	ff 25 00 00 00
	00		 jmp	 DWORD PTR __imp_??1?$CStringT@DV?$StrTraitMFC_DLL@DV?$ChTraitsCRT@D@ATL@@@@@ATL@@QAE@XZ
__unwindfunclet$?Convert@CChartItemStock@@QAE?AV?$CStringT@DV?$StrTraitMFC_DLL@DV?$ChTraitsCRT@D@ATL@@@@@ATL@@XZ$4:
  00024	8d 8d ac fe ff
	ff		 lea	 ecx, DWORD PTR _strDate$[ebp]
  0002a	ff 25 00 00 00
	00		 jmp	 DWORD PTR __imp_??1?$CStringT@DV?$StrTraitMFC_DLL@DV?$ChTraitsCRT@D@ATL@@@@@ATL@@QAE@XZ
__unwindfunclet$?Convert@CChartItemStock@@QAE?AV?$CStringT@DV?$StrTraitMFC_DLL@DV?$ChTraitsCRT@D@ATL@@@@@ATL@@XZ$5:
  00030	8d 8d b4 fe ff
	ff		 lea	 ecx, DWORD PTR _strNow$[ebp]
  00036	ff 25 00 00 00
	00		 jmp	 DWORD PTR __imp_??1?$CStringT@DV?$StrTraitMFC_DLL@DV?$ChTraitsCRT@D@ATL@@@@@ATL@@QAE@XZ
__unwindfunclet$?Convert@CChartItemStock@@QAE?AV?$CStringT@DV?$StrTraitMFC_DLL@DV?$ChTraitsCRT@D@ATL@@@@@ATL@@XZ$6:
  0003c	8d 8d a4 fe ff
	ff		 lea	 ecx, DWORD PTR _strUnit$[ebp]
  00042	ff 25 00 00 00
	00		 jmp	 DWORD PTR __imp_??1?$CStringT@DV?$StrTraitMFC_DLL@DV?$ChTraitsCRT@D@ATL@@@@@ATL@@QAE@XZ
__unwindfunclet$?Convert@CChartItemStock@@QAE?AV?$CStringT@DV?$StrTraitMFC_DLL@DV?$ChTraitsCRT@D@ATL@@@@@ATL@@XZ$7:
  00048	8d 8d c8 fe ff
	ff		 lea	 ecx, DWORD PTR _strTime$[ebp]
  0004e	ff 25 00 00 00
	00		 jmp	 DWORD PTR __imp_??1?$CStringT@DV?$StrTraitMFC_DLL@DV?$ChTraitsCRT@D@ATL@@@@@ATL@@QAE@XZ
__unwindfunclet$?Convert@CChartItemStock@@QAE?AV?$CStringT@DV?$StrTraitMFC_DLL@DV?$ChTraitsCRT@D@ATL@@@@@ATL@@XZ$8:
  00054	8d 8d b0 fe ff
	ff		 lea	 ecx, DWORD PTR _strImgRgb$[ebp]
  0005a	ff 25 00 00 00
	00		 jmp	 DWORD PTR __imp_??1?$CStringT@DV?$StrTraitMFC_DLL@DV?$ChTraitsCRT@D@ATL@@@@@ATL@@QAE@XZ
__unwindfunclet$?Convert@CChartItemStock@@QAE?AV?$CStringT@DV?$StrTraitMFC_DLL@DV?$ChTraitsCRT@D@ATL@@@@@ATL@@XZ$9:
  00060	8d 8d c4 fe ff
	ff		 lea	 ecx, DWORD PTR $T5[ebp]
  00066	ff 25 00 00 00
	00		 jmp	 DWORD PTR __imp_??1?$CStringT@DV?$StrTraitMFC_DLL@DV?$ChTraitsCRT@D@ATL@@@@@ATL@@QAE@XZ
__unwindfunclet$?Convert@CChartItemStock@@QAE?AV?$CStringT@DV?$StrTraitMFC_DLL@DV?$ChTraitsCRT@D@ATL@@@@@ATL@@XZ$10:
  0006c	8d 8d c4 fe ff
	ff		 lea	 ecx, DWORD PTR $T4[ebp]
  00072	ff 25 00 00 00
	00		 jmp	 DWORD PTR __imp_??1?$CStringT@DV?$StrTraitMFC_DLL@DV?$ChTraitsCRT@D@ATL@@@@@ATL@@QAE@XZ
__unwindfunclet$?Convert@CChartItemStock@@QAE?AV?$CStringT@DV?$StrTraitMFC_DLL@DV?$ChTraitsCRT@D@ATL@@@@@ATL@@XZ$11:
  00078	8d 8d c4 fe ff
	ff		 lea	 ecx, DWORD PTR $T3[ebp]
  0007e	ff 25 00 00 00
	00		 jmp	 DWORD PTR __imp_??1?$CStringT@DV?$StrTraitMFC_DLL@DV?$ChTraitsCRT@D@ATL@@@@@ATL@@QAE@XZ
__unwindfunclet$?Convert@CChartItemStock@@QAE?AV?$CStringT@DV?$StrTraitMFC_DLL@DV?$ChTraitsCRT@D@ATL@@@@@ATL@@XZ$12:
  00084	8d 8d c4 fe ff
	ff		 lea	 ecx, DWORD PTR $T2[ebp]
  0008a	ff 25 00 00 00
	00		 jmp	 DWORD PTR __imp_??1?$CStringT@DV?$StrTraitMFC_DLL@DV?$ChTraitsCRT@D@ATL@@@@@ATL@@QAE@XZ
__unwindfunclet$?Convert@CChartItemStock@@QAE?AV?$CStringT@DV?$StrTraitMFC_DLL@DV?$ChTraitsCRT@D@ATL@@@@@ATL@@XZ$13:
  00090	8d 8d d8 fe ff
	ff		 lea	 ecx, DWORD PTR $T13[ebp]
  00096	ff 25 00 00 00
	00		 jmp	 DWORD PTR __imp_??1?$CStringT@DV?$StrTraitMFC_DLL@DV?$ChTraitsCRT@D@ATL@@@@@ATL@@QAE@XZ
__unwindfunclet$?Convert@CChartItemStock@@QAE?AV?$CStringT@DV?$StrTraitMFC_DLL@DV?$ChTraitsCRT@D@ATL@@@@@ATL@@XZ$14:
  0009c	8d 8d c0 fe ff
	ff		 lea	 ecx, DWORD PTR _stRowData$[ebp]
  000a2	ff 25 00 00 00
	00		 jmp	 DWORD PTR __imp_??1?$CStringT@DV?$StrTraitMFC_DLL@DV?$ChTraitsCRT@D@ATL@@@@@ATL@@QAE@XZ
__unwindfunclet$?Convert@CChartItemStock@@QAE?AV?$CStringT@DV?$StrTraitMFC_DLL@DV?$ChTraitsCRT@D@ATL@@@@@ATL@@XZ$15:
  000a8	8d 8d d0 fe ff
	ff		 lea	 ecx, DWORD PTR _stNextData$[ebp]
  000ae	ff 25 00 00 00
	00		 jmp	 DWORD PTR __imp_??1?$CStringT@DV?$StrTraitMFC_DLL@DV?$ChTraitsCRT@D@ATL@@@@@ATL@@QAE@XZ
__unwindfunclet$?Convert@CChartItemStock@@QAE?AV?$CStringT@DV?$StrTraitMFC_DLL@DV?$ChTraitsCRT@D@ATL@@@@@ATL@@XZ$16:
  000b4	8d 8d d4 fe ff
	ff		 lea	 ecx, DWORD PTR _stNextKey$[ebp]
  000ba	ff 25 00 00 00
	00		 jmp	 DWORD PTR __imp_??1?$CStringT@DV?$StrTraitMFC_DLL@DV?$ChTraitsCRT@D@ATL@@@@@ATL@@QAE@XZ
__unwindfunclet$?Convert@CChartItemStock@@QAE?AV?$CStringT@DV?$StrTraitMFC_DLL@DV?$ChTraitsCRT@D@ATL@@@@@ATL@@XZ$17:
  000c0	8d 8d a0 fe ff
	ff		 lea	 ecx, DWORD PTR _stNextKey2$[ebp]
  000c6	ff 25 00 00 00
	00		 jmp	 DWORD PTR __imp_??1?$CStringT@DV?$StrTraitMFC_DLL@DV?$ChTraitsCRT@D@ATL@@@@@ATL@@QAE@XZ
__unwindfunclet$?Convert@CChartItemStock@@QAE?AV?$CStringT@DV?$StrTraitMFC_DLL@DV?$ChTraitsCRT@D@ATL@@@@@ATL@@XZ$18:
  000cc	8d 8d d8 fe ff
	ff		 lea	 ecx, DWORD PTR _stBefore$12[ebp]
  000d2	ff 25 00 00 00
	00		 jmp	 DWORD PTR __imp_??1?$CStringT@DV?$StrTraitMFC_DLL@DV?$ChTraitsCRT@D@ATL@@@@@ATL@@QAE@XZ
__unwindfunclet$?Convert@CChartItemStock@@QAE?AV?$CStringT@DV?$StrTraitMFC_DLL@DV?$ChTraitsCRT@D@ATL@@@@@ATL@@XZ$19:
  000d8	8d 8d d8 fe ff
	ff		 lea	 ecx, DWORD PTR $T11[ebp]
  000de	ff 25 00 00 00
	00		 jmp	 DWORD PTR __imp_??1?$CStringT@DV?$StrTraitMFC_DLL@DV?$ChTraitsCRT@D@ATL@@@@@ATL@@QAE@XZ
__unwindfunclet$?Convert@CChartItemStock@@QAE?AV?$CStringT@DV?$StrTraitMFC_DLL@DV?$ChTraitsCRT@D@ATL@@@@@ATL@@XZ$20:
  000e4	8d 8d d8 fe ff
	ff		 lea	 ecx, DWORD PTR _stBefore$10[ebp]
  000ea	ff 25 00 00 00
	00		 jmp	 DWORD PTR __imp_??1?$CStringT@DV?$StrTraitMFC_DLL@DV?$ChTraitsCRT@D@ATL@@@@@ATL@@QAE@XZ
__unwindfunclet$?Convert@CChartItemStock@@QAE?AV?$CStringT@DV?$StrTraitMFC_DLL@DV?$ChTraitsCRT@D@ATL@@@@@ATL@@XZ$21:
  000f0	8d 8d d8 fe ff
	ff		 lea	 ecx, DWORD PTR $T9[ebp]
  000f6	ff 25 00 00 00
	00		 jmp	 DWORD PTR __imp_??1?$CStringT@DV?$StrTraitMFC_DLL@DV?$ChTraitsCRT@D@ATL@@@@@ATL@@QAE@XZ
__unwindfunclet$?Convert@CChartItemStock@@QAE?AV?$CStringT@DV?$StrTraitMFC_DLL@DV?$ChTraitsCRT@D@ATL@@@@@ATL@@XZ$22:
  000fc	8d 8d d8 fe ff
	ff		 lea	 ecx, DWORD PTR $T8[ebp]
  00102	ff 25 00 00 00
	00		 jmp	 DWORD PTR __imp_??1?$CStringT@DV?$StrTraitMFC_DLL@DV?$ChTraitsCRT@D@ATL@@@@@ATL@@QAE@XZ
__unwindfunclet$?Convert@CChartItemStock@@QAE?AV?$CStringT@DV?$StrTraitMFC_DLL@DV?$ChTraitsCRT@D@ATL@@@@@ATL@@XZ$23:
  00108	8d 8d d8 fe ff
	ff		 lea	 ecx, DWORD PTR $T7[ebp]
  0010e	ff 25 00 00 00
	00		 jmp	 DWORD PTR __imp_??1?$CStringT@DV?$StrTraitMFC_DLL@DV?$ChTraitsCRT@D@ATL@@@@@ATL@@QAE@XZ
__unwindfunclet$?Convert@CChartItemStock@@QAE?AV?$CStringT@DV?$StrTraitMFC_DLL@DV?$ChTraitsCRT@D@ATL@@@@@ATL@@XZ$24:
  00114	8d 8d d8 fe ff
	ff		 lea	 ecx, DWORD PTR $T6[ebp]
  0011a	ff 25 00 00 00
	00		 jmp	 DWORD PTR __imp_??1?$CStringT@DV?$StrTraitMFC_DLL@DV?$ChTraitsCRT@D@ATL@@@@@ATL@@QAE@XZ
__unwindfunclet$?Convert@CChartItemStock@@QAE?AV?$CStringT@DV?$StrTraitMFC_DLL@DV?$ChTraitsCRT@D@ATL@@@@@ATL@@XZ$25:
  00120	8d 8d b8 fe ff
	ff		 lea	 ecx, DWORD PTR _temp$[ebp]
  00126	ff 25 00 00 00
	00		 jmp	 DWORD PTR __imp_??1?$CStringT@DV?$StrTraitMFC_DLL@DV?$ChTraitsCRT@D@ATL@@@@@ATL@@QAE@XZ
  0012c	cc		 int	 3
  0012d	cc		 int	 3
  0012e	cc		 int	 3
  0012f	cc		 int	 3
  00130	cc		 int	 3
__ehhandler$?Convert@CChartItemStock@@QAE?AV?$CStringT@DV?$StrTraitMFC_DLL@DV?$ChTraitsCRT@D@ATL@@@@@ATL@@XZ:
  00131	90		 npad	 1
  00132	90		 npad	 1
  00133	8b 54 24 08	 mov	 edx, DWORD PTR [esp+8]
  00137	8d 42 0c	 lea	 eax, DWORD PTR [edx+12]
  0013a	8b 8a 94 fe ff
	ff		 mov	 ecx, DWORD PTR [edx-364]
  00140	33 c8		 xor	 ecx, eax
  00142	e8 00 00 00 00	 call	 @__security_check_cookie@4
  00147	8b 4a fc	 mov	 ecx, DWORD PTR [edx-4]
  0014a	33 c8		 xor	 ecx, eax
  0014c	e8 00 00 00 00	 call	 @__security_check_cookie@4
  00151	b8 00 00 00 00	 mov	 eax, OFFSET __ehfuncinfo$?Convert@CChartItemStock@@QAE?AV?$CStringT@DV?$StrTraitMFC_DLL@DV?$ChTraitsCRT@D@ATL@@@@@ATL@@XZ
  00156	e9 00 00 00 00	 jmp	 ___CxxFrameHandler3
text$x	ENDS
?Convert@CChartItemStock@@QAE?AV?$CStringT@DV?$StrTraitMFC_DLL@DV?$ChTraitsCRT@D@ATL@@@@@ATL@@XZ ENDP ; CChartItemStock::Convert
; Function compile flags: /Ogtp
; File D:\git\src\IBK\IBK_DRFN\ProjSrc\SrcDrfn\DrCommon\PartnerMng\ChartItemStock.cpp
; File D:\git\src\IBK\IBK_DRFN\ProjSrc\SrcDrfn\inc\LoadDRDebuger.h
; File D:\git\src\IBK\IBK_DRFN\ProjSrc\SrcDrfn\DrCommon\PartnerMng\ChartItemStock.cpp
;	COMDAT ?SetInData@CChartItemStock@@QAEXPAUKB_p0602_InRec1@@@Z
_TEXT	SEGMENT
_e$2 = -288						; size = 4
_this$GSCopy$1$ = -284					; size = 4
_aBuff$3 = -280						; size = 260
__$ArrayPad$ = -20					; size = 4
__$EHRec$ = -16						; size = 16
_pData$ = 8						; size = 4
?SetInData@CChartItemStock@@QAEXPAUKB_p0602_InRec1@@@Z PROC ; CChartItemStock::SetInData, COMDAT
; _this$ = ecx

; 52   : {

  00000	55		 push	 ebp
  00001	8b ec		 mov	 ebp, esp
  00003	6a ff		 push	 -1
  00005	68 00 00 00 00	 push	 __ehhandler$?SetInData@CChartItemStock@@QAEXPAUKB_p0602_InRec1@@@Z
  0000a	64 a1 00 00 00
	00		 mov	 eax, DWORD PTR fs:0
  00010	50		 push	 eax
  00011	81 ec 14 01 00
	00		 sub	 esp, 276		; 00000114H
  00017	a1 00 00 00 00	 mov	 eax, DWORD PTR ___security_cookie
  0001c	33 c5		 xor	 eax, ebp
  0001e	89 45 ec	 mov	 DWORD PTR __$ArrayPad$[ebp], eax
  00021	53		 push	 ebx
  00022	56		 push	 esi
  00023	57		 push	 edi
  00024	50		 push	 eax
  00025	8d 45 f4	 lea	 eax, DWORD PTR __$EHRec$[ebp+4]
  00028	64 a3 00 00 00
	00		 mov	 DWORD PTR fs:0, eax
  0002e	89 65 f0	 mov	 DWORD PTR __$EHRec$[ebp], esp
  00031	8b f9		 mov	 edi, ecx
  00033	89 bd e4 fe ff
	ff		 mov	 DWORD PTR _this$GSCopy$1$[ebp], edi

; 53   : 	try
; 54   : 	{
; 55   : 		//if(gDebugMng) gDebugMng->TraceTran('I', "SetInit", sizeof(KB_p0602_InRec1), (LPBYTE)pData);
; 56   : 		if(g_pDRDebuger) g_pDRDebuger->DRLog_RequestData("SetInit", (LPBYTE)pData, sizeof(KB_p0602_InRec1));

  00039	8b 35 00 00 00
	00		 mov	 esi, DWORD PTR ?g_pDRDebuger@@3PAVCDRDebugerLoader@@A ; g_pDRDebuger
  0003f	8b 5d 08	 mov	 ebx, DWORD PTR _pData$[ebp]
  00042	c7 45 fc 00 00
	00 00		 mov	 DWORD PTR __$EHRec$[ebp+12], 0
  00049	85 f6		 test	 esi, esi
  0004b	74 2c		 je	 SHORT $LN9@SetInData
; File D:\git\src\IBK\IBK_DRFN\ProjSrc\SrcDrfn\inc\LoadDRDebuger.h

; 227  : 		def_DRDebuger_GetProc(m_fpRequestData		, FpDRLog_RequestData		, "DRLog_RequestData");

  0004d	8b 0e		 mov	 ecx, DWORD PTR [esi]
  0004f	85 c9		 test	 ecx, ecx
  00051	74 26		 je	 SHORT $LN9@SetInData
  00053	8b 46 18	 mov	 eax, DWORD PTR [esi+24]
  00056	85 c0		 test	 eax, eax
  00058	75 13		 jne	 SHORT $LN12@SetInData
  0005a	68 00 00 00 00	 push	 OFFSET ??_C@_0BC@GJFJNGJF@DRLog_RequestData@
  0005f	51		 push	 ecx
  00060	ff 15 00 00 00
	00		 call	 DWORD PTR __imp__GetProcAddress@8
  00066	89 46 18	 mov	 DWORD PTR [esi+24], eax
  00069	85 c0		 test	 eax, eax
  0006b	74 0c		 je	 SHORT $LN9@SetInData
$LN12@SetInData:

; 228  : 		m_fpRequestData(p_szIOKey, p_Data, p_DataLen, szExtraData);

  0006d	6a 00		 push	 0
  0006f	6a 53		 push	 83			; 00000053H
  00071	53		 push	 ebx
  00072	68 00 00 00 00	 push	 OFFSET ??_C@_07IKAGAOHD@SetInit@
  00077	ff d0		 call	 eax
$LN9@SetInData:
; File D:\git\src\IBK\IBK_DRFN\ProjSrc\SrcDrfn\DrCommon\PartnerMng\ChartItemStock.cpp

; 58   : 		memcpy(&m_InData, pData, sizeof(KB_p0602_InRec1));

  00079	83 c7 20	 add	 edi, 32			; 00000020H

; 59   : 		m_bSet = TRUE;

  0007c	8b 85 e4 fe ff
	ff		 mov	 eax, DWORD PTR _this$GSCopy$1$[ebp]
  00082	b9 14 00 00 00	 mov	 ecx, 20			; 00000014H
  00087	8b f3		 mov	 esi, ebx
  00089	f3 a5		 rep movsd
  0008b	66 a5		 movsw
  0008d	a4		 movsb
  0008e	c6 80 3c 01 00
	00 01		 mov	 BYTE PTR [eax+316], 1
$LN5@SetInData:

; 66   : }

  00095	8b 4d f4	 mov	 ecx, DWORD PTR __$EHRec$[ebp+4]
  00098	64 89 0d 00 00
	00 00		 mov	 DWORD PTR fs:0, ecx
  0009f	59		 pop	 ecx
  000a0	5f		 pop	 edi
  000a1	5e		 pop	 esi
  000a2	5b		 pop	 ebx
  000a3	8b 4d ec	 mov	 ecx, DWORD PTR __$ArrayPad$[ebp]
  000a6	33 cd		 xor	 ecx, ebp
  000a8	e8 00 00 00 00	 call	 @__security_check_cookie@4
  000ad	8b e5		 mov	 esp, ebp
  000af	5d		 pop	 ebp
  000b0	c2 04 00	 ret	 4
__catch$?SetInData@CChartItemStock@@QAEXPAUKB_p0602_InRec1@@@Z$0:

; 60   : 	}
; 61   : 	catch (CException* e)
; 62   : 	{
; 63   : 		char aBuff[MAX_PATH]={0,};

  000b3	68 04 01 00 00	 push	 260			; 00000104H
  000b8	8d 85 e8 fe ff
	ff		 lea	 eax, DWORD PTR _aBuff$3[ebp]
  000be	6a 00		 push	 0
  000c0	50		 push	 eax
  000c1	e8 00 00 00 00	 call	 _memset

; 64   : 		e->GetErrorMessage(aBuff, MAX_PATH);

  000c6	8b 8d e0 fe ff
	ff		 mov	 ecx, DWORD PTR _e$2[ebp]
  000cc	8d 95 e8 fe ff
	ff		 lea	 edx, DWORD PTR _aBuff$3[ebp]
  000d2	83 c4 0c	 add	 esp, 12			; 0000000cH
  000d5	8b 01		 mov	 eax, DWORD PTR [ecx]
  000d7	6a 00		 push	 0
  000d9	68 04 01 00 00	 push	 260			; 00000104H
  000de	52		 push	 edx
  000df	ff 50 14	 call	 DWORD PTR [eax+20]

; 65   : 	}

  000e2	b8 00 00 00 00	 mov	 eax, $LN5@SetInData
  000e7	c3		 ret	 0
  000e8	cc		 int	 3
  000e9	cc		 int	 3
  000ea	cc		 int	 3
  000eb	cc		 int	 3
  000ec	cc		 int	 3
_TEXT	ENDS
;	COMDAT text$x
text$x	SEGMENT
__ehhandler$?SetInData@CChartItemStock@@QAEXPAUKB_p0602_InRec1@@@Z:
  00000	90		 npad	 1
  00001	90		 npad	 1
  00002	8b 54 24 08	 mov	 edx, DWORD PTR [esp+8]
  00006	8d 42 0c	 lea	 eax, DWORD PTR [edx+12]
  00009	8b 8a dc fe ff
	ff		 mov	 ecx, DWORD PTR [edx-292]
  0000f	33 c8		 xor	 ecx, eax
  00011	e8 00 00 00 00	 call	 @__security_check_cookie@4
  00016	8b 4a f8	 mov	 ecx, DWORD PTR [edx-8]
  00019	33 c8		 xor	 ecx, eax
  0001b	e8 00 00 00 00	 call	 @__security_check_cookie@4
  00020	b8 00 00 00 00	 mov	 eax, OFFSET __ehfuncinfo$?SetInData@CChartItemStock@@QAEXPAUKB_p0602_InRec1@@@Z
  00025	e9 00 00 00 00	 jmp	 ___CxxFrameHandler3
text$x	ENDS
?SetInData@CChartItemStock@@QAEXPAUKB_p0602_InRec1@@@Z ENDP ; CChartItemStock::SetInData
; Function compile flags: /Ogtp
; File D:\git\src\IBK\IBK_DRFN\ProjSrc\SrcDrfn\DrCommon\PartnerMng\ChartItemStock.cpp
;	COMDAT ??1CChartItemStock@@UAE@XZ
_TEXT	SEGMENT
??1CChartItemStock@@UAE@XZ PROC				; CChartItemStock::~CChartItemStock, COMDAT
; _this$ = ecx

; 48   : {

  00000	c7 01 00 00 00
	00		 mov	 DWORD PTR [ecx], OFFSET ??_7CChartItemStock@@6B@

; 49   : }

  00006	83 c1 74	 add	 ecx, 116		; 00000074H
  00009	e9 00 00 00 00	 jmp	 ??1CChartBozoInput@@QAE@XZ
??1CChartItemStock@@UAE@XZ ENDP				; CChartItemStock::~CChartItemStock
_TEXT	ENDS
; Function compile flags: /Ogtp
; File D:\git\src\IBK\IBK_DRFN\ProjSrc\SrcDrfn\DrCommon\PartnerMng\ChartItemStock.cpp
; File D:\git\src\IBK\IBK_DRFN\ProjSrc\SrcDrfn\inc\IChartBozoMsgMng.h
; File D:\git\src\IBK\IBK_DRFN\ProjSrc\SrcDrfn\DrCommon\PartnerMng\ChartItemStock.cpp
;	COMDAT ??0CChartItemStock@@QAE@XZ
_TEXT	SEGMENT
_this$ = -4						; size = 4
??0CChartItemStock@@QAE@XZ PROC				; CChartItemStock::CChartItemStock, COMDAT
; _this$ = ecx

; 35   : {

  00000	55		 push	 ebp
  00001	8b ec		 mov	 ebp, esp
  00003	51		 push	 ecx
  00004	56		 push	 esi
  00005	8b f1		 mov	 esi, ecx
  00007	89 75 fc	 mov	 DWORD PTR _this$[ebp], esi
  0000a	c7 06 00 00 00
	00		 mov	 DWORD PTR [esi], OFFSET ??_7CChartItemStock@@6B@
; File D:\git\src\IBK\IBK_DRFN\ProjSrc\SrcDrfn\inc\IChartBozoMsgMng.h

; 39   : 	CChartBozoInput()	{ InitData();	};

  00010	8d 4e 78	 lea	 ecx, DWORD PTR [esi+120]
  00013	c7 46 74 00 00
	00 00		 mov	 DWORD PTR [esi+116], OFFSET ??_7CChartBozoInput@@6B@
  0001a	ff 15 00 00 00
	00		 call	 DWORD PTR __imp_??0?$CStringT@DV?$StrTraitMFC_DLL@DV?$ChTraitsCRT@D@ATL@@@@@ATL@@QAE@XZ
  00020	8d 4e 7c	 lea	 ecx, DWORD PTR [esi+124]
  00023	ff 15 00 00 00
	00		 call	 DWORD PTR __imp_??0?$CStringT@DV?$StrTraitMFC_DLL@DV?$ChTraitsCRT@D@ATL@@@@@ATL@@QAE@XZ
  00029	8d 8e 80 00 00
	00		 lea	 ecx, DWORD PTR [esi+128]
  0002f	ff 15 00 00 00
	00		 call	 DWORD PTR __imp_??0?$CStringT@DV?$StrTraitMFC_DLL@DV?$ChTraitsCRT@D@ATL@@@@@ATL@@QAE@XZ
  00035	8d 8e 84 00 00
	00		 lea	 ecx, DWORD PTR [esi+132]
  0003b	ff 15 00 00 00
	00		 call	 DWORD PTR __imp_??0?$CStringT@DV?$StrTraitMFC_DLL@DV?$ChTraitsCRT@D@ATL@@@@@ATL@@QAE@XZ
  00041	8d 8e 88 00 00
	00		 lea	 ecx, DWORD PTR [esi+136]
  00047	ff 15 00 00 00
	00		 call	 DWORD PTR __imp_??0?$CStringT@DV?$StrTraitMFC_DLL@DV?$ChTraitsCRT@D@ATL@@@@@ATL@@QAE@XZ
  0004d	8d 8e 8c 00 00
	00		 lea	 ecx, DWORD PTR [esi+140]
  00053	ff 15 00 00 00
	00		 call	 DWORD PTR __imp_??0?$CStringT@DV?$StrTraitMFC_DLL@DV?$ChTraitsCRT@D@ATL@@@@@ATL@@QAE@XZ
  00059	8d 8e 90 00 00
	00		 lea	 ecx, DWORD PTR [esi+144]
  0005f	ff 15 00 00 00
	00		 call	 DWORD PTR __imp_??0?$CStringT@DV?$StrTraitMFC_DLL@DV?$ChTraitsCRT@D@ATL@@@@@ATL@@QAE@XZ
  00065	8d 8e 94 00 00
	00		 lea	 ecx, DWORD PTR [esi+148]
  0006b	ff 15 00 00 00
	00		 call	 DWORD PTR __imp_??0?$CStringT@DV?$StrTraitMFC_DLL@DV?$ChTraitsCRT@D@ATL@@@@@ATL@@QAE@XZ
  00071	8d 8e 98 00 00
	00		 lea	 ecx, DWORD PTR [esi+152]
  00077	ff 15 00 00 00
	00		 call	 DWORD PTR __imp_??0?$CStringT@DV?$StrTraitMFC_DLL@DV?$ChTraitsCRT@D@ATL@@@@@ATL@@QAE@XZ
  0007d	8d 8e 9c 00 00
	00		 lea	 ecx, DWORD PTR [esi+156]
  00083	ff 15 00 00 00
	00		 call	 DWORD PTR __imp_??0?$CStringT@DV?$StrTraitMFC_DLL@DV?$ChTraitsCRT@D@ATL@@@@@ATL@@QAE@XZ
  00089	8d 8e a0 00 00
	00		 lea	 ecx, DWORD PTR [esi+160]
  0008f	ff 15 00 00 00
	00		 call	 DWORD PTR __imp_??0?$CStringT@DV?$StrTraitMFC_DLL@DV?$ChTraitsCRT@D@ATL@@@@@ATL@@QAE@XZ
  00095	8d 8e a4 00 00
	00		 lea	 ecx, DWORD PTR [esi+164]
  0009b	ff 15 00 00 00
	00		 call	 DWORD PTR __imp_??0?$CStringT@DV?$StrTraitMFC_DLL@DV?$ChTraitsCRT@D@ATL@@@@@ATL@@QAE@XZ
  000a1	8d 8e a8 00 00
	00		 lea	 ecx, DWORD PTR [esi+168]
  000a7	ff 15 00 00 00
	00		 call	 DWORD PTR __imp_??0?$CStringT@DV?$StrTraitMFC_DLL@DV?$ChTraitsCRT@D@ATL@@@@@ATL@@QAE@XZ
  000ad	8d 8e ac 00 00
	00		 lea	 ecx, DWORD PTR [esi+172]
  000b3	ff 15 00 00 00
	00		 call	 DWORD PTR __imp_??0?$CStringT@DV?$StrTraitMFC_DLL@DV?$ChTraitsCRT@D@ATL@@@@@ATL@@QAE@XZ
  000b9	8d 8e b0 00 00
	00		 lea	 ecx, DWORD PTR [esi+176]
  000bf	ff 15 00 00 00
	00		 call	 DWORD PTR __imp_??0?$CStringT@DV?$StrTraitMFC_DLL@DV?$ChTraitsCRT@D@ATL@@@@@ATL@@QAE@XZ
  000c5	8d 8e b4 00 00
	00		 lea	 ecx, DWORD PTR [esi+180]
  000cb	ff 15 00 00 00
	00		 call	 DWORD PTR __imp_??0?$CStringT@DV?$StrTraitMFC_DLL@DV?$ChTraitsCRT@D@ATL@@@@@ATL@@QAE@XZ
  000d1	8d 8e b8 00 00
	00		 lea	 ecx, DWORD PTR [esi+184]
  000d7	ff 15 00 00 00
	00		 call	 DWORD PTR __imp_??0?$CStringT@DV?$StrTraitMFC_DLL@DV?$ChTraitsCRT@D@ATL@@@@@ATL@@QAE@XZ
  000dd	8d 8e bc 00 00
	00		 lea	 ecx, DWORD PTR [esi+188]
  000e3	ff 15 00 00 00
	00		 call	 DWORD PTR __imp_??0?$CStringT@DV?$StrTraitMFC_DLL@DV?$ChTraitsCRT@D@ATL@@@@@ATL@@QAE@XZ
  000e9	8d 8e c0 00 00
	00		 lea	 ecx, DWORD PTR [esi+192]
  000ef	ff 15 00 00 00
	00		 call	 DWORD PTR __imp_??0?$CStringT@DV?$StrTraitMFC_DLL@DV?$ChTraitsCRT@D@ATL@@@@@ATL@@QAE@XZ
  000f5	8d 8e c4 00 00
	00		 lea	 ecx, DWORD PTR [esi+196]
  000fb	ff 15 00 00 00
	00		 call	 DWORD PTR __imp_??0?$CStringT@DV?$StrTraitMFC_DLL@DV?$ChTraitsCRT@D@ATL@@@@@ATL@@QAE@XZ
  00101	8d 8e c8 00 00
	00		 lea	 ecx, DWORD PTR [esi+200]
  00107	ff 15 00 00 00
	00		 call	 DWORD PTR __imp_??0?$CStringT@DV?$StrTraitMFC_DLL@DV?$ChTraitsCRT@D@ATL@@@@@ATL@@QAE@XZ
  0010d	8d 8e cc 00 00
	00		 lea	 ecx, DWORD PTR [esi+204]
  00113	ff 15 00 00 00
	00		 call	 DWORD PTR __imp_??0?$CStringT@DV?$StrTraitMFC_DLL@DV?$ChTraitsCRT@D@ATL@@@@@ATL@@QAE@XZ
  00119	8d 8e d0 00 00
	00		 lea	 ecx, DWORD PTR [esi+208]
  0011f	ff 15 00 00 00
	00		 call	 DWORD PTR __imp_??0?$CStringT@DV?$StrTraitMFC_DLL@DV?$ChTraitsCRT@D@ATL@@@@@ATL@@QAE@XZ
  00125	8d 8e d4 00 00
	00		 lea	 ecx, DWORD PTR [esi+212]
  0012b	ff 15 00 00 00
	00		 call	 DWORD PTR __imp_??0?$CStringT@DV?$StrTraitMFC_DLL@DV?$ChTraitsCRT@D@ATL@@@@@ATL@@QAE@XZ
  00131	8d 8e d8 00 00
	00		 lea	 ecx, DWORD PTR [esi+216]
  00137	ff 15 00 00 00
	00		 call	 DWORD PTR __imp_??0?$CStringT@DV?$StrTraitMFC_DLL@DV?$ChTraitsCRT@D@ATL@@@@@ATL@@QAE@XZ
  0013d	8d 8e 34 01 00
	00		 lea	 ecx, DWORD PTR [esi+308]
  00143	ff 15 00 00 00
	00		 call	 DWORD PTR __imp_??0?$CStringT@DV?$StrTraitMFC_DLL@DV?$ChTraitsCRT@D@ATL@@@@@ATL@@QAE@XZ

; 49   : 		ZeroMemory(sDataType, sizeof(sDataType));

  00149	33 c0		 xor	 eax, eax
  0014b	0f 57 c0	 xorps	 xmm0, xmm0

; 40   : 	CChartBozoInput(const CChartBozoInput& obj)	{ *this = obj;	};
; 41   : 
; 42   : 	void InitData()
; 43   : 	{
; 44   : 		ZeroMemory(sShcode, sizeof(sShcode));

  0014e	0f 11 86 dc 00
	00 00		 movups	 XMMWORD PTR [esi+220], xmm0

; 45   : //		ZeroMemory(sTick, sizeof(sTick));
; 46   : 		lTick = 0;

  00155	c7 86 ec 00 00
	00 00 00 00 00	 mov	 DWORD PTR [esi+236], 0

; 47   : 		ZeroMemory(sTerm, sizeof(sTerm));
; 48   : 		ZeroMemory(sNxtFlg, sizeof(sNxtFlg));
; 49   : 		ZeroMemory(sDataType, sizeof(sDataType));

  0015f	66 89 86 f0 00
	00 00		 mov	 WORD PTR [esi+240], ax
  00166	88 86 f2 00 00
	00		 mov	 BYTE PTR [esi+242], al

; 50   : 		lPrice = 0;

  0016c	89 86 f4 00 00
	00		 mov	 DWORD PTR [esi+244], eax

; 51   : 		lVolume = 0;

  00172	89 86 f8 00 00
	00		 mov	 DWORD PTR [esi+248], eax

; 52   : 		lUpLmtPrice = 0;

  00178	89 86 fc 00 00
	00		 mov	 DWORD PTR [esi+252], eax

; 53   : 		lDnLmtPrice = 0;

  0017e	89 86 00 01 00
	00		 mov	 DWORD PTR [esi+256], eax

; 54   : 		lOpen;
; 55   : 		lHigh;
; 56   : 		lLow;
; 57   : 		lPreprice;	
; 58   : 		lPreVolume;	
; 59   : 		lPreOpen;
; 60   : 		lPreHigh;
; 61   : 		lPreLow;
; 62   : 		//ZeroMemory(sStartTime, sizeof(sStartTime));
; 63   : 		lFirstClose = 0;		

  00184	89 86 18 01 00
	00		 mov	 DWORD PTR [esi+280], eax

; 64   : 		nMarket = 0;

  0018a	89 86 28 01 00
	00		 mov	 DWORD PTR [esi+296], eax

; 65   : 		lWonDollar = 0;

  00190	89 86 2c 01 00
	00		 mov	 DWORD PTR [esi+300], eax

; 66   : 
; 67   : //vntsorl_20110420:[A00000410]      
; 68   : 		nPacketType = 0;

  00196	89 86 30 01 00
	00		 mov	 DWORD PTR [esi+304], eax
; File D:\git\src\IBK\IBK_DRFN\ProjSrc\SrcDrfn\DrCommon\PartnerMng\ChartItemStock.cpp

; 36   : 	m_bSet = FALSE;

  0019c	88 86 3c 01 00
	00		 mov	 BYTE PTR [esi+316], al

; 37   : 	m_nTickCnt = 0;	m_nSecCnt = 0;	m_nMinCnt = 0;	m_nDayCnt = 0;	m_nWeekCnt = 0;	m_nYearCnt = 0; m_nGridCnt=0;

  001a2	89 46 04	 mov	 DWORD PTR [esi+4], eax
  001a5	89 46 08	 mov	 DWORD PTR [esi+8], eax
  001a8	89 46 0c	 mov	 DWORD PTR [esi+12], eax
  001ab	89 46 10	 mov	 DWORD PTR [esi+16], eax
  001ae	89 46 14	 mov	 DWORD PTR [esi+20], eax
  001b1	89 46 18	 mov	 DWORD PTR [esi+24], eax
  001b4	89 46 1c	 mov	 DWORD PTR [esi+28], eax

; 38   : 	while (szTickRowField[m_nTickCnt] != NULL)		m_nTickCnt++;

  001b7	39 05 00 00 00
	00		 cmp	 DWORD PTR ?szTickRowField@@3PAPADA, eax
  001bd	74 0f		 je	 SHORT $LN23@CChartItem
  001bf	90		 npad	 1
$LL2@CChartItem:
  001c0	40		 inc	 eax
  001c1	89 46 04	 mov	 DWORD PTR [esi+4], eax
  001c4	83 3c 85 00 00
	00 00 00	 cmp	 DWORD PTR ?szTickRowField@@3PAPADA[eax*4], 0
  001cc	75 f2		 jne	 SHORT $LL2@CChartItem
$LN23@CChartItem:

; 39   : 	while (szSecRowField[m_nSecCnt] != NULL)		m_nSecCnt++;

  001ce	83 3d 00 00 00
	00 00		 cmp	 DWORD PTR ?szSecRowField@@3PAPADA, 0
  001d5	74 17		 je	 SHORT $LN24@CChartItem
  001d7	33 c0		 xor	 eax, eax
  001d9	0f 1f 80 00 00
	00 00		 npad	 7
$LL4@CChartItem:
  001e0	40		 inc	 eax
  001e1	89 46 08	 mov	 DWORD PTR [esi+8], eax
  001e4	83 3c 85 00 00
	00 00 00	 cmp	 DWORD PTR ?szSecRowField@@3PAPADA[eax*4], 0
  001ec	75 f2		 jne	 SHORT $LL4@CChartItem
$LN24@CChartItem:

; 40   : 	while (szMinRowField[m_nMinCnt] != NULL)		m_nMinCnt++;

  001ee	83 3d 00 00 00
	00 00		 cmp	 DWORD PTR ?szMinRowField@@3PAPADA, 0
  001f5	74 17		 je	 SHORT $LN25@CChartItem
  001f7	33 c0		 xor	 eax, eax
  001f9	0f 1f 80 00 00
	00 00		 npad	 7
$LL6@CChartItem:
  00200	40		 inc	 eax
  00201	89 46 0c	 mov	 DWORD PTR [esi+12], eax
  00204	83 3c 85 00 00
	00 00 00	 cmp	 DWORD PTR ?szMinRowField@@3PAPADA[eax*4], 0
  0020c	75 f2		 jne	 SHORT $LL6@CChartItem
$LN25@CChartItem:

; 41   : 	while (szDayRowField[m_nDayCnt] != NULL)		m_nDayCnt++;

  0020e	83 3d 00 00 00
	00 00		 cmp	 DWORD PTR ?szDayRowField@@3PAPADA, 0
  00215	74 17		 je	 SHORT $LN26@CChartItem
  00217	33 c0		 xor	 eax, eax
  00219	0f 1f 80 00 00
	00 00		 npad	 7
$LL8@CChartItem:
  00220	40		 inc	 eax
  00221	89 46 10	 mov	 DWORD PTR [esi+16], eax
  00224	83 3c 85 00 00
	00 00 00	 cmp	 DWORD PTR ?szDayRowField@@3PAPADA[eax*4], 0
  0022c	75 f2		 jne	 SHORT $LL8@CChartItem
$LN26@CChartItem:

; 42   : 	while (szWeekRowField[m_nWeekCnt] != NULL)		m_nWeekCnt++;

  0022e	83 3d 00 00 00
	00 00		 cmp	 DWORD PTR ?szWeekRowField@@3PAPADA, 0
  00235	74 17		 je	 SHORT $LN27@CChartItem
  00237	33 c0		 xor	 eax, eax
  00239	0f 1f 80 00 00
	00 00		 npad	 7
$LL10@CChartItem:
  00240	40		 inc	 eax
  00241	89 46 14	 mov	 DWORD PTR [esi+20], eax
  00244	83 3c 85 00 00
	00 00 00	 cmp	 DWORD PTR ?szWeekRowField@@3PAPADA[eax*4], 0
  0024c	75 f2		 jne	 SHORT $LL10@CChartItem
$LN27@CChartItem:

; 43   : 	while (szYearRowField[m_nYearCnt] != NULL)		m_nYearCnt++;

  0024e	83 3d 00 00 00
	00 00		 cmp	 DWORD PTR ?szYearRowField@@3PAPADA, 0
  00255	74 17		 je	 SHORT $LN28@CChartItem
  00257	33 c0		 xor	 eax, eax
  00259	0f 1f 80 00 00
	00 00		 npad	 7
$LL12@CChartItem:
  00260	40		 inc	 eax
  00261	89 46 18	 mov	 DWORD PTR [esi+24], eax
  00264	83 3c 85 00 00
	00 00 00	 cmp	 DWORD PTR ?szYearRowField@@3PAPADA[eax*4], 0
  0026c	75 f2		 jne	 SHORT $LL12@CChartItem
$LN28@CChartItem:

; 44   : 	while (szStockGridSymbol[m_nGridCnt] != NULL)	m_nGridCnt++;

  0026e	83 3d 00 00 00
	00 00		 cmp	 DWORD PTR ?szStockGridSymbol@@3PAPADA, 0
  00275	74 17		 je	 SHORT $LN50@CChartItem
  00277	33 c0		 xor	 eax, eax
  00279	0f 1f 80 00 00
	00 00		 npad	 7
$LL14@CChartItem:
  00280	40		 inc	 eax
  00281	89 46 1c	 mov	 DWORD PTR [esi+28], eax
  00284	83 3c 85 00 00
	00 00 00	 cmp	 DWORD PTR ?szStockGridSymbol@@3PAPADA[eax*4], 0
  0028c	75 f2		 jne	 SHORT $LL14@CChartItem
$LN50@CChartItem:

; 45   : }

  0028e	8b c6		 mov	 eax, esi
  00290	5e		 pop	 esi
  00291	8b e5		 mov	 esp, ebp
  00293	5d		 pop	 ebp
  00294	c3		 ret	 0
??0CChartItemStock@@QAE@XZ ENDP				; CChartItemStock::CChartItemStock
_TEXT	ENDS
; Function compile flags: /Ogtp
;	COMDAT ??1CChartBozoInput@@QAE@XZ
_TEXT	SEGMENT
??1CChartBozoInput@@QAE@XZ PROC				; CChartBozoInput::~CChartBozoInput, COMDAT
; _this$ = ecx
  00000	56		 push	 esi
  00001	8b f1		 mov	 esi, ecx
  00003	8d 8e c0 00 00
	00		 lea	 ecx, DWORD PTR [esi+192]
  00009	ff 15 00 00 00
	00		 call	 DWORD PTR __imp_??1?$CStringT@DV?$StrTraitMFC_DLL@DV?$ChTraitsCRT@D@ATL@@@@@ATL@@QAE@XZ
  0000f	8d 4e 64	 lea	 ecx, DWORD PTR [esi+100]
  00012	ff 15 00 00 00
	00		 call	 DWORD PTR __imp_??1?$CStringT@DV?$StrTraitMFC_DLL@DV?$ChTraitsCRT@D@ATL@@@@@ATL@@QAE@XZ
  00018	8d 4e 60	 lea	 ecx, DWORD PTR [esi+96]
  0001b	ff 15 00 00 00
	00		 call	 DWORD PTR __imp_??1?$CStringT@DV?$StrTraitMFC_DLL@DV?$ChTraitsCRT@D@ATL@@@@@ATL@@QAE@XZ
  00021	8d 4e 5c	 lea	 ecx, DWORD PTR [esi+92]
  00024	ff 15 00 00 00
	00		 call	 DWORD PTR __imp_??1?$CStringT@DV?$StrTraitMFC_DLL@DV?$ChTraitsCRT@D@ATL@@@@@ATL@@QAE@XZ
  0002a	8d 4e 58	 lea	 ecx, DWORD PTR [esi+88]
  0002d	ff 15 00 00 00
	00		 call	 DWORD PTR __imp_??1?$CStringT@DV?$StrTraitMFC_DLL@DV?$ChTraitsCRT@D@ATL@@@@@ATL@@QAE@XZ
  00033	8d 4e 54	 lea	 ecx, DWORD PTR [esi+84]
  00036	ff 15 00 00 00
	00		 call	 DWORD PTR __imp_??1?$CStringT@DV?$StrTraitMFC_DLL@DV?$ChTraitsCRT@D@ATL@@@@@ATL@@QAE@XZ
  0003c	8d 4e 50	 lea	 ecx, DWORD PTR [esi+80]
  0003f	ff 15 00 00 00
	00		 call	 DWORD PTR __imp_??1?$CStringT@DV?$StrTraitMFC_DLL@DV?$ChTraitsCRT@D@ATL@@@@@ATL@@QAE@XZ
  00045	8d 4e 4c	 lea	 ecx, DWORD PTR [esi+76]
  00048	ff 15 00 00 00
	00		 call	 DWORD PTR __imp_??1?$CStringT@DV?$StrTraitMFC_DLL@DV?$ChTraitsCRT@D@ATL@@@@@ATL@@QAE@XZ
  0004e	8d 4e 48	 lea	 ecx, DWORD PTR [esi+72]
  00051	ff 15 00 00 00
	00		 call	 DWORD PTR __imp_??1?$CStringT@DV?$StrTraitMFC_DLL@DV?$ChTraitsCRT@D@ATL@@@@@ATL@@QAE@XZ
  00057	8d 4e 44	 lea	 ecx, DWORD PTR [esi+68]
  0005a	ff 15 00 00 00
	00		 call	 DWORD PTR __imp_??1?$CStringT@DV?$StrTraitMFC_DLL@DV?$ChTraitsCRT@D@ATL@@@@@ATL@@QAE@XZ
  00060	8d 4e 40	 lea	 ecx, DWORD PTR [esi+64]
  00063	ff 15 00 00 00
	00		 call	 DWORD PTR __imp_??1?$CStringT@DV?$StrTraitMFC_DLL@DV?$ChTraitsCRT@D@ATL@@@@@ATL@@QAE@XZ
  00069	8d 4e 3c	 lea	 ecx, DWORD PTR [esi+60]
  0006c	ff 15 00 00 00
	00		 call	 DWORD PTR __imp_??1?$CStringT@DV?$StrTraitMFC_DLL@DV?$ChTraitsCRT@D@ATL@@@@@ATL@@QAE@XZ
  00072	8d 4e 38	 lea	 ecx, DWORD PTR [esi+56]
  00075	ff 15 00 00 00
	00		 call	 DWORD PTR __imp_??1?$CStringT@DV?$StrTraitMFC_DLL@DV?$ChTraitsCRT@D@ATL@@@@@ATL@@QAE@XZ
  0007b	8d 4e 34	 lea	 ecx, DWORD PTR [esi+52]
  0007e	ff 15 00 00 00
	00		 call	 DWORD PTR __imp_??1?$CStringT@DV?$StrTraitMFC_DLL@DV?$ChTraitsCRT@D@ATL@@@@@ATL@@QAE@XZ
  00084	8d 4e 30	 lea	 ecx, DWORD PTR [esi+48]
  00087	ff 15 00 00 00
	00		 call	 DWORD PTR __imp_??1?$CStringT@DV?$StrTraitMFC_DLL@DV?$ChTraitsCRT@D@ATL@@@@@ATL@@QAE@XZ
  0008d	8d 4e 2c	 lea	 ecx, DWORD PTR [esi+44]
  00090	ff 15 00 00 00
	00		 call	 DWORD PTR __imp_??1?$CStringT@DV?$StrTraitMFC_DLL@DV?$ChTraitsCRT@D@ATL@@@@@ATL@@QAE@XZ
  00096	8d 4e 28	 lea	 ecx, DWORD PTR [esi+40]
  00099	ff 15 00 00 00
	00		 call	 DWORD PTR __imp_??1?$CStringT@DV?$StrTraitMFC_DLL@DV?$ChTraitsCRT@D@ATL@@@@@ATL@@QAE@XZ
  0009f	8d 4e 24	 lea	 ecx, DWORD PTR [esi+36]
  000a2	ff 15 00 00 00
	00		 call	 DWORD PTR __imp_??1?$CStringT@DV?$StrTraitMFC_DLL@DV?$ChTraitsCRT@D@ATL@@@@@ATL@@QAE@XZ
  000a8	8d 4e 20	 lea	 ecx, DWORD PTR [esi+32]
  000ab	ff 15 00 00 00
	00		 call	 DWORD PTR __imp_??1?$CStringT@DV?$StrTraitMFC_DLL@DV?$ChTraitsCRT@D@ATL@@@@@ATL@@QAE@XZ
  000b1	8d 4e 1c	 lea	 ecx, DWORD PTR [esi+28]
  000b4	ff 15 00 00 00
	00		 call	 DWORD PTR __imp_??1?$CStringT@DV?$StrTraitMFC_DLL@DV?$ChTraitsCRT@D@ATL@@@@@ATL@@QAE@XZ
  000ba	8d 4e 18	 lea	 ecx, DWORD PTR [esi+24]
  000bd	ff 15 00 00 00
	00		 call	 DWORD PTR __imp_??1?$CStringT@DV?$StrTraitMFC_DLL@DV?$ChTraitsCRT@D@ATL@@@@@ATL@@QAE@XZ
  000c3	8d 4e 14	 lea	 ecx, DWORD PTR [esi+20]
  000c6	ff 15 00 00 00
	00		 call	 DWORD PTR __imp_??1?$CStringT@DV?$StrTraitMFC_DLL@DV?$ChTraitsCRT@D@ATL@@@@@ATL@@QAE@XZ
  000cc	8d 4e 10	 lea	 ecx, DWORD PTR [esi+16]
  000cf	ff 15 00 00 00
	00		 call	 DWORD PTR __imp_??1?$CStringT@DV?$StrTraitMFC_DLL@DV?$ChTraitsCRT@D@ATL@@@@@ATL@@QAE@XZ
  000d5	8d 4e 0c	 lea	 ecx, DWORD PTR [esi+12]
  000d8	ff 15 00 00 00
	00		 call	 DWORD PTR __imp_??1?$CStringT@DV?$StrTraitMFC_DLL@DV?$ChTraitsCRT@D@ATL@@@@@ATL@@QAE@XZ
  000de	8d 4e 08	 lea	 ecx, DWORD PTR [esi+8]
  000e1	ff 15 00 00 00
	00		 call	 DWORD PTR __imp_??1?$CStringT@DV?$StrTraitMFC_DLL@DV?$ChTraitsCRT@D@ATL@@@@@ATL@@QAE@XZ
  000e7	8d 4e 04	 lea	 ecx, DWORD PTR [esi+4]
  000ea	5e		 pop	 esi
  000eb	ff 25 00 00 00
	00		 jmp	 DWORD PTR __imp_??1?$CStringT@DV?$StrTraitMFC_DLL@DV?$ChTraitsCRT@D@ATL@@@@@ATL@@QAE@XZ
??1CChartBozoInput@@QAE@XZ ENDP				; CChartBozoInput::~CChartBozoInput
_TEXT	ENDS
; Function compile flags: /Ogtp
; File D:\git\src\IBK\IBK_DRFN\ProjSrc\SrcDrfn\inc\IChartBozoMsgMng.h
;	COMDAT ??4CChartBozoInput@@UAEAAV0@ABV0@@Z
_TEXT	SEGMENT
_item$ = 8						; size = 4
??4CChartBozoInput@@UAEAAV0@ABV0@@Z PROC		; CChartBozoInput::operator=, COMDAT
; _this$ = ecx

; 124  : 	virtual CChartBozoInput& operator = (const CChartBozoInput& item)	{ Copy(item);	return *this; };

  00000	55		 push	 ebp
  00001	8b ec		 mov	 ebp, esp
  00003	56		 push	 esi
  00004	ff 75 08	 push	 DWORD PTR _item$[ebp]
  00007	8b f1		 mov	 esi, ecx
  00009	8b 06		 mov	 eax, DWORD PTR [esi]
  0000b	ff 10		 call	 DWORD PTR [eax]
  0000d	8b c6		 mov	 eax, esi
  0000f	5e		 pop	 esi
  00010	5d		 pop	 ebp
  00011	c2 04 00	 ret	 4
??4CChartBozoInput@@UAEAAV0@ABV0@@Z ENDP		; CChartBozoInput::operator=
_TEXT	ENDS
; Function compile flags: /Ogtp
; File D:\git\src\IBK\IBK_DRFN\ProjSrc\SrcDrfn\inc\IChartBozoMsgMng.h
;	COMDAT ?Copy@CChartBozoInput@@UAEXABV1@@Z
_TEXT	SEGMENT
_right$ = 8						; size = 4
?Copy@CChartBozoInput@@UAEXABV1@@Z PROC			; CChartBozoInput::Copy, COMDAT
; _this$ = ecx

; 72   : 	{

  00000	55		 push	 ebp
  00001	8b ec		 mov	 ebp, esp
  00003	56		 push	 esi

; 73   : 		m_sMarket		= right.m_sMarket;

  00004	8b 75 08	 mov	 esi, DWORD PTR _right$[ebp]
  00007	57		 push	 edi
  00008	8b f9		 mov	 edi, ecx
  0000a	8d 46 04	 lea	 eax, DWORD PTR [esi+4]
  0000d	50		 push	 eax
  0000e	8d 4f 04	 lea	 ecx, DWORD PTR [edi+4]
  00011	ff 15 00 00 00
	00		 call	 DWORD PTR __imp_??4?$CStringT@DV?$StrTraitMFC_DLL@DV?$ChTraitsCRT@D@ATL@@@@@ATL@@QAEAAV01@ABV01@@Z

; 74   : 		m_sShcode		= right.m_sShcode;

  00017	8d 46 08	 lea	 eax, DWORD PTR [esi+8]
  0001a	50		 push	 eax
  0001b	8d 4f 08	 lea	 ecx, DWORD PTR [edi+8]
  0001e	ff 15 00 00 00
	00		 call	 DWORD PTR __imp_??4?$CStringT@DV?$StrTraitMFC_DLL@DV?$ChTraitsCRT@D@ATL@@@@@ATL@@QAEAAV01@ABV01@@Z

; 75   : 		m_sTick			= right.m_sTick;

  00024	8d 46 0c	 lea	 eax, DWORD PTR [esi+12]
  00027	50		 push	 eax
  00028	8d 4f 0c	 lea	 ecx, DWORD PTR [edi+12]
  0002b	ff 15 00 00 00
	00		 call	 DWORD PTR __imp_??4?$CStringT@DV?$StrTraitMFC_DLL@DV?$ChTraitsCRT@D@ATL@@@@@ATL@@QAEAAV01@ABV01@@Z

; 76   : 		m_sTerm			= right.m_sTerm;

  00031	8d 46 10	 lea	 eax, DWORD PTR [esi+16]
  00034	50		 push	 eax
  00035	8d 4f 10	 lea	 ecx, DWORD PTR [edi+16]
  00038	ff 15 00 00 00
	00		 call	 DWORD PTR __imp_??4?$CStringT@DV?$StrTraitMFC_DLL@DV?$ChTraitsCRT@D@ATL@@@@@ATL@@QAEAAV01@ABV01@@Z

; 77   : 		m_sNxtFlg		= right.m_sNxtFlg;

  0003e	8d 46 14	 lea	 eax, DWORD PTR [esi+20]
  00041	50		 push	 eax
  00042	8d 4f 14	 lea	 ecx, DWORD PTR [edi+20]
  00045	ff 15 00 00 00
	00		 call	 DWORD PTR __imp_??4?$CStringT@DV?$StrTraitMFC_DLL@DV?$ChTraitsCRT@D@ATL@@@@@ATL@@QAEAAV01@ABV01@@Z

; 78   : 		m_sDataType		= right.m_sDataType;

  0004b	8d 46 18	 lea	 eax, DWORD PTR [esi+24]
  0004e	50		 push	 eax
  0004f	8d 4f 18	 lea	 ecx, DWORD PTR [edi+24]
  00052	ff 15 00 00 00
	00		 call	 DWORD PTR __imp_??4?$CStringT@DV?$StrTraitMFC_DLL@DV?$ChTraitsCRT@D@ATL@@@@@ATL@@QAEAAV01@ABV01@@Z

; 79   : 		m_sVolume		= right.m_sVolume;

  00058	8d 46 20	 lea	 eax, DWORD PTR [esi+32]
  0005b	50		 push	 eax
  0005c	8d 4f 20	 lea	 ecx, DWORD PTR [edi+32]
  0005f	ff 15 00 00 00
	00		 call	 DWORD PTR __imp_??4?$CStringT@DV?$StrTraitMFC_DLL@DV?$ChTraitsCRT@D@ATL@@@@@ATL@@QAEAAV01@ABV01@@Z

; 80   : 		m_sUpLmtPrice	= right.m_sUpLmtPrice;

  00065	8d 46 24	 lea	 eax, DWORD PTR [esi+36]
  00068	50		 push	 eax
  00069	8d 4f 24	 lea	 ecx, DWORD PTR [edi+36]
  0006c	ff 15 00 00 00
	00		 call	 DWORD PTR __imp_??4?$CStringT@DV?$StrTraitMFC_DLL@DV?$ChTraitsCRT@D@ATL@@@@@ATL@@QAEAAV01@ABV01@@Z

; 81   : 		m_sDnLmtPrice	= right.m_sDnLmtPrice;

  00072	8d 46 28	 lea	 eax, DWORD PTR [esi+40]
  00075	50		 push	 eax
  00076	8d 4f 28	 lea	 ecx, DWORD PTR [edi+40]
  00079	ff 15 00 00 00
	00		 call	 DWORD PTR __imp_??4?$CStringT@DV?$StrTraitMFC_DLL@DV?$ChTraitsCRT@D@ATL@@@@@ATL@@QAEAAV01@ABV01@@Z

; 82   : 		m_sOpen			= right.m_sOpen;

  0007f	8d 46 2c	 lea	 eax, DWORD PTR [esi+44]
  00082	50		 push	 eax
  00083	8d 4f 2c	 lea	 ecx, DWORD PTR [edi+44]
  00086	ff 15 00 00 00
	00		 call	 DWORD PTR __imp_??4?$CStringT@DV?$StrTraitMFC_DLL@DV?$ChTraitsCRT@D@ATL@@@@@ATL@@QAEAAV01@ABV01@@Z

; 83   : 		m_sHigh			= right.m_sHigh;

  0008c	8d 46 30	 lea	 eax, DWORD PTR [esi+48]
  0008f	50		 push	 eax
  00090	8d 4f 30	 lea	 ecx, DWORD PTR [edi+48]
  00093	ff 15 00 00 00
	00		 call	 DWORD PTR __imp_??4?$CStringT@DV?$StrTraitMFC_DLL@DV?$ChTraitsCRT@D@ATL@@@@@ATL@@QAEAAV01@ABV01@@Z

; 84   : 		m_sLow			= right.m_sLow;

  00099	8d 46 34	 lea	 eax, DWORD PTR [esi+52]
  0009c	50		 push	 eax
  0009d	8d 4f 34	 lea	 ecx, DWORD PTR [edi+52]
  000a0	ff 15 00 00 00
	00		 call	 DWORD PTR __imp_??4?$CStringT@DV?$StrTraitMFC_DLL@DV?$ChTraitsCRT@D@ATL@@@@@ATL@@QAEAAV01@ABV01@@Z

; 85   : 		m_sPrice		= right.m_sPrice;		// 20100326_JS.Kim.     

  000a6	8d 46 1c	 lea	 eax, DWORD PTR [esi+28]
  000a9	50		 push	 eax
  000aa	8d 4f 1c	 lea	 ecx, DWORD PTR [edi+28]
  000ad	ff 15 00 00 00
	00		 call	 DWORD PTR __imp_??4?$CStringT@DV?$StrTraitMFC_DLL@DV?$ChTraitsCRT@D@ATL@@@@@ATL@@QAEAAV01@ABV01@@Z

; 86   : 		m_sPreprice		= right.m_sPreprice;

  000b3	8d 46 38	 lea	 eax, DWORD PTR [esi+56]
  000b6	50		 push	 eax
  000b7	8d 4f 38	 lea	 ecx, DWORD PTR [edi+56]
  000ba	ff 15 00 00 00
	00		 call	 DWORD PTR __imp_??4?$CStringT@DV?$StrTraitMFC_DLL@DV?$ChTraitsCRT@D@ATL@@@@@ATL@@QAEAAV01@ABV01@@Z

; 87   : 		m_sPreVolume	= right.m_sPreVolume;

  000c0	8d 46 3c	 lea	 eax, DWORD PTR [esi+60]
  000c3	50		 push	 eax
  000c4	8d 4f 3c	 lea	 ecx, DWORD PTR [edi+60]
  000c7	ff 15 00 00 00
	00		 call	 DWORD PTR __imp_??4?$CStringT@DV?$StrTraitMFC_DLL@DV?$ChTraitsCRT@D@ATL@@@@@ATL@@QAEAAV01@ABV01@@Z

; 88   : 		m_sStartTime	= right.m_sStartTime;

  000cd	8d 46 40	 lea	 eax, DWORD PTR [esi+64]
  000d0	50		 push	 eax
  000d1	8d 4f 40	 lea	 ecx, DWORD PTR [edi+64]
  000d4	ff 15 00 00 00
	00		 call	 DWORD PTR __imp_??4?$CStringT@DV?$StrTraitMFC_DLL@DV?$ChTraitsCRT@D@ATL@@@@@ATL@@QAEAAV01@ABV01@@Z

; 89   : 		m_sFirstClose	= right.m_sFirstClose;

  000da	8d 46 44	 lea	 eax, DWORD PTR [esi+68]
  000dd	50		 push	 eax
  000de	8d 4f 44	 lea	 ecx, DWORD PTR [edi+68]
  000e1	ff 15 00 00 00
	00		 call	 DWORD PTR __imp_??4?$CStringT@DV?$StrTraitMFC_DLL@DV?$ChTraitsCRT@D@ATL@@@@@ATL@@QAEAAV01@ABV01@@Z

; 90   : 		m_sPreOpen		= right.m_sPreOpen;

  000e7	8d 46 48	 lea	 eax, DWORD PTR [esi+72]
  000ea	50		 push	 eax
  000eb	8d 4f 48	 lea	 ecx, DWORD PTR [edi+72]
  000ee	ff 15 00 00 00
	00		 call	 DWORD PTR __imp_??4?$CStringT@DV?$StrTraitMFC_DLL@DV?$ChTraitsCRT@D@ATL@@@@@ATL@@QAEAAV01@ABV01@@Z

; 91   : 		m_sPreHigh		= right.m_sPreHigh;

  000f4	8d 46 4c	 lea	 eax, DWORD PTR [esi+76]
  000f7	50		 push	 eax
  000f8	8d 4f 4c	 lea	 ecx, DWORD PTR [edi+76]
  000fb	ff 15 00 00 00
	00		 call	 DWORD PTR __imp_??4?$CStringT@DV?$StrTraitMFC_DLL@DV?$ChTraitsCRT@D@ATL@@@@@ATL@@QAEAAV01@ABV01@@Z

; 92   : 		m_sPreLow		= right.m_sPreLow;

  00101	8d 46 50	 lea	 eax, DWORD PTR [esi+80]
  00104	50		 push	 eax
  00105	8d 4f 50	 lea	 ecx, DWORD PTR [edi+80]
  00108	ff 15 00 00 00
	00		 call	 DWORD PTR __imp_??4?$CStringT@DV?$StrTraitMFC_DLL@DV?$ChTraitsCRT@D@ATL@@@@@ATL@@QAEAAV01@ABV01@@Z

; 93   : 		m_sWonDollor	= right.m_sWonDollor;

  0010e	8d 46 54	 lea	 eax, DWORD PTR [esi+84]
  00111	50		 push	 eax
  00112	8d 4f 54	 lea	 ecx, DWORD PTR [edi+84]
  00115	ff 15 00 00 00
	00		 call	 DWORD PTR __imp_??4?$CStringT@DV?$StrTraitMFC_DLL@DV?$ChTraitsCRT@D@ATL@@@@@ATL@@QAEAAV01@ABV01@@Z

; 94   : 		memcpy(sShcode, right.sShcode, sizeof(sShcode));

  0011b	0f 10 46 68	 movups	 xmm0, XMMWORD PTR [esi+104]

; 95   : 		lTick			= right.lTick;
; 96   : 		memcpy(sTerm, right.sTerm, sizeof(sTerm));
; 97   : 		memcpy(sNxtFlg, right.sNxtFlg, sizeof(sNxtFlg));
; 98   : 		memcpy(sDataType, right.sDataType, sizeof(sDataType));
; 99   : 		lPrice			= right.lPrice;
; 100  : 		lVolume			= right.lVolume;
; 101  : 		lUpLmtPrice		= right.lUpLmtPrice;
; 102  : 		lDnLmtPrice		= right.lDnLmtPrice;
; 103  : 		lOpen			= right.lOpen;
; 104  : 		lHigh			= right.lHigh;
; 105  : 		lLow			= right.lLow;
; 106  : 		lPreprice		= right.lPreprice;
; 107  : 		lPreVolume		= right.lPreVolume;
; 108  : 		lFirstClose		= right.lFirstClose;
; 109  : 		lPreOpen		= right.lPreOpen;
; 110  : 		lPreHigh		= right.lPreHigh;
; 111  : 		lPreLow			= right.lPreHigh;
; 112  : 		nMarket			= right.nMarket;
; 113  : 		lWonDollar		= right.lWonDollar;
; 114  : //vntsorl_20110420:[A00000410]      
; 115  : 		nPacketType		= right.nPacketType;
; 116  : 		m_sLastDataTime	= right.m_sLastDataTime;

  0011f	8d 8f c0 00 00
	00		 lea	 ecx, DWORD PTR [edi+192]
  00125	0f 11 47 68	 movups	 XMMWORD PTR [edi+104], xmm0
  00129	8b 46 78	 mov	 eax, DWORD PTR [esi+120]
  0012c	89 47 78	 mov	 DWORD PTR [edi+120], eax
  0012f	0f b6 46 7c	 movzx	 eax, BYTE PTR [esi+124]
  00133	88 47 7c	 mov	 BYTE PTR [edi+124], al
  00136	0f b6 46 7d	 movzx	 eax, BYTE PTR [esi+125]
  0013a	88 47 7d	 mov	 BYTE PTR [edi+125], al
  0013d	0f b6 46 7e	 movzx	 eax, BYTE PTR [esi+126]
  00141	88 47 7e	 mov	 BYTE PTR [edi+126], al
  00144	8b 86 80 00 00
	00		 mov	 eax, DWORD PTR [esi+128]
  0014a	89 87 80 00 00
	00		 mov	 DWORD PTR [edi+128], eax
  00150	8b 86 84 00 00
	00		 mov	 eax, DWORD PTR [esi+132]
  00156	89 87 84 00 00
	00		 mov	 DWORD PTR [edi+132], eax
  0015c	8b 86 88 00 00
	00		 mov	 eax, DWORD PTR [esi+136]
  00162	89 87 88 00 00
	00		 mov	 DWORD PTR [edi+136], eax
  00168	8b 86 8c 00 00
	00		 mov	 eax, DWORD PTR [esi+140]
  0016e	89 87 8c 00 00
	00		 mov	 DWORD PTR [edi+140], eax
  00174	8b 86 90 00 00
	00		 mov	 eax, DWORD PTR [esi+144]
  0017a	89 87 90 00 00
	00		 mov	 DWORD PTR [edi+144], eax
  00180	8b 86 94 00 00
	00		 mov	 eax, DWORD PTR [esi+148]
  00186	89 87 94 00 00
	00		 mov	 DWORD PTR [edi+148], eax
  0018c	8b 86 98 00 00
	00		 mov	 eax, DWORD PTR [esi+152]
  00192	89 87 98 00 00
	00		 mov	 DWORD PTR [edi+152], eax
  00198	8b 86 9c 00 00
	00		 mov	 eax, DWORD PTR [esi+156]
  0019e	89 87 9c 00 00
	00		 mov	 DWORD PTR [edi+156], eax
  001a4	8b 86 a0 00 00
	00		 mov	 eax, DWORD PTR [esi+160]
  001aa	89 87 a0 00 00
	00		 mov	 DWORD PTR [edi+160], eax
  001b0	8b 86 a4 00 00
	00		 mov	 eax, DWORD PTR [esi+164]
  001b6	89 87 a4 00 00
	00		 mov	 DWORD PTR [edi+164], eax
  001bc	8b 86 a8 00 00
	00		 mov	 eax, DWORD PTR [esi+168]
  001c2	89 87 a8 00 00
	00		 mov	 DWORD PTR [edi+168], eax
  001c8	8b 86 ac 00 00
	00		 mov	 eax, DWORD PTR [esi+172]
  001ce	89 87 ac 00 00
	00		 mov	 DWORD PTR [edi+172], eax
  001d4	8b 86 ac 00 00
	00		 mov	 eax, DWORD PTR [esi+172]
  001da	89 87 b0 00 00
	00		 mov	 DWORD PTR [edi+176], eax
  001e0	8b 86 b4 00 00
	00		 mov	 eax, DWORD PTR [esi+180]
  001e6	89 87 b4 00 00
	00		 mov	 DWORD PTR [edi+180], eax
  001ec	8b 86 b8 00 00
	00		 mov	 eax, DWORD PTR [esi+184]
  001f2	89 87 b8 00 00
	00		 mov	 DWORD PTR [edi+184], eax
  001f8	8b 86 bc 00 00
	00		 mov	 eax, DWORD PTR [esi+188]
  001fe	89 87 bc 00 00
	00		 mov	 DWORD PTR [edi+188], eax
  00204	8d 86 c0 00 00
	00		 lea	 eax, DWORD PTR [esi+192]
  0020a	50		 push	 eax
  0020b	ff 15 00 00 00
	00		 call	 DWORD PTR __imp_??4?$CStringT@DV?$StrTraitMFC_DLL@DV?$ChTraitsCRT@D@ATL@@@@@ATL@@QAEAAV01@ABV01@@Z

; 117  : 		m_sVolAmt		= right.m_sVolAmt;		//[A00000651][A00000652].

  00211	8d 46 58	 lea	 eax, DWORD PTR [esi+88]
  00214	50		 push	 eax
  00215	8d 4f 58	 lea	 ecx, DWORD PTR [edi+88]
  00218	ff 15 00 00 00
	00		 call	 DWORD PTR __imp_??4?$CStringT@DV?$StrTraitMFC_DLL@DV?$ChTraitsCRT@D@ATL@@@@@ATL@@QAEAAV01@ABV01@@Z

; 118  : 
; 119  : 		m_szMarketTime	= right.m_szMarketTime;;

  0021e	8d 46 60	 lea	 eax, DWORD PTR [esi+96]
  00221	50		 push	 eax
  00222	8d 4f 60	 lea	 ecx, DWORD PTR [edi+96]
  00225	ff 15 00 00 00
	00		 call	 DWORD PTR __imp_??4?$CStringT@DV?$StrTraitMFC_DLL@DV?$ChTraitsCRT@D@ATL@@@@@ATL@@QAEAAV01@ABV01@@Z

; 120  : 		m_szBaseTime	= right.m_szBaseTime;;

  0022b	8d 46 64	 lea	 eax, DWORD PTR [esi+100]
  0022e	50		 push	 eax
  0022f	8d 4f 64	 lea	 ecx, DWORD PTR [edi+100]
  00232	ff 15 00 00 00
	00		 call	 DWORD PTR __imp_??4?$CStringT@DV?$StrTraitMFC_DLL@DV?$ChTraitsCRT@D@ATL@@@@@ATL@@QAEAAV01@ABV01@@Z
  00238	5f		 pop	 edi
  00239	5e		 pop	 esi

; 121  : 
; 122  : 	};

  0023a	5d		 pop	 ebp
  0023b	c2 04 00	 ret	 4
?Copy@CChartBozoInput@@UAEXABV1@@Z ENDP			; CChartBozoInput::Copy
_TEXT	ENDS
; Function compile flags: /Ogtp
; File D:\git\src\IBK\IBK_DRFN\ProjSrc\SrcDrfn\Chart\commontr\TRDefine.h
;	COMDAT ??__ERMSG_GETSIGNAL_REAL@@YAXXZ
text$di	SEGMENT
??__ERMSG_GETSIGNAL_REAL@@YAXXZ PROC			; `dynamic initializer for 'RMSG_GETSIGNAL_REAL'', COMDAT

; 213  : const UINT RMSG_GETSIGNAL_REAL = ::RegisterWindowMessage(_T("RMSG_GETSIGNAL_REAL"));

  00000	68 00 00 00 00	 push	 OFFSET ??_C@_0BE@FJPKENOB@RMSG_GETSIGNAL_REAL@
  00005	ff 15 00 00 00
	00		 call	 DWORD PTR __imp__RegisterWindowMessageA@4
  0000b	a3 00 00 00 00	 mov	 DWORD PTR ?RMSG_GETSIGNAL_REAL@@3IB, eax
  00010	c3		 ret	 0
??__ERMSG_GETSIGNAL_REAL@@YAXXZ ENDP			; `dynamic initializer for 'RMSG_GETSIGNAL_REAL''
text$di	ENDS
; Function compile flags: /Ogtp
; File D:\git\src\IBK\IBK_DRFN\ProjSrc\SrcDrfn\inc\IBaseDefine.h
;	COMDAT ??__ERMSG_SETPCTRDATA@@YAXXZ
text$di	SEGMENT
??__ERMSG_SETPCTRDATA@@YAXXZ PROC			; `dynamic initializer for 'RMSG_SETPCTRDATA'', COMDAT

; 172  : const UINT RMSG_SETPCTRDATA = ::RegisterWindowMessage("RMSG_SETPCTRDATA");

  00000	68 00 00 00 00	 push	 OFFSET ??_C@_0BB@JPACFCL@RMSG_SETPCTRDATA@
  00005	ff 15 00 00 00
	00		 call	 DWORD PTR __imp__RegisterWindowMessageA@4
  0000b	a3 00 00 00 00	 mov	 DWORD PTR ?RMSG_SETPCTRDATA@@3IB, eax
  00010	c3		 ret	 0
??__ERMSG_SETPCTRDATA@@YAXXZ ENDP			; `dynamic initializer for 'RMSG_SETPCTRDATA''
text$di	ENDS
; Function compile flags: /Ogtp
; File D:\git\src\IBK\IBK_DRFN\ProjSrc\SrcDrfn\inc\IBaseDefine.h
;	COMDAT ??__ERMSG_GETPCTRDATA@@YAXXZ
text$di	SEGMENT
??__ERMSG_GETPCTRDATA@@YAXXZ PROC			; `dynamic initializer for 'RMSG_GETPCTRDATA'', COMDAT

; 171  : const UINT RMSG_GETPCTRDATA = ::RegisterWindowMessage("RMSG_GETPCTRDATA");

  00000	68 00 00 00 00	 push	 OFFSET ??_C@_0BB@GOOPDKI@RMSG_GETPCTRDATA@
  00005	ff 15 00 00 00
	00		 call	 DWORD PTR __imp__RegisterWindowMessageA@4
  0000b	a3 00 00 00 00	 mov	 DWORD PTR ?RMSG_GETPCTRDATA@@3IB, eax
  00010	c3		 ret	 0
??__ERMSG_GETPCTRDATA@@YAXXZ ENDP			; `dynamic initializer for 'RMSG_GETPCTRDATA''
text$di	ENDS
; Function compile flags: /Ogtp
; File D:\git\src\IBK\IBK_DRFN\ProjSrc\SrcDrfn\inc\IBaseDefine.h
;	COMDAT ??__ERMSG_INTERFACE@@YAXXZ
text$di	SEGMENT
??__ERMSG_INTERFACE@@YAXXZ PROC				; `dynamic initializer for 'RMSG_INTERFACE'', COMDAT

; 170  : const UINT RMSG_INTERFACE = ::RegisterWindowMessage("RMSG_INTERFACE");

  00000	68 00 00 00 00	 push	 OFFSET ??_C@_0P@BKKCOCLK@RMSG_INTERFACE@
  00005	ff 15 00 00 00
	00		 call	 DWORD PTR __imp__RegisterWindowMessageA@4
  0000b	a3 00 00 00 00	 mov	 DWORD PTR ?RMSG_INTERFACE@@3IB, eax
  00010	c3		 ret	 0
??__ERMSG_INTERFACE@@YAXXZ ENDP				; `dynamic initializer for 'RMSG_INTERFACE''
text$di	ENDS
; Function compile flags: /Ogtp
; File C:\Program Files (x86)\Windows Kits\10\Include\10.0.22000.0\ucrt\stdio.h
;	COMDAT _sprintf
_TEXT	SEGMENT
__Buffer$ = 8						; size = 4
__Format$ = 12						; size = 4
_sprintf PROC						; COMDAT

; 1771 :     {

  00000	55		 push	 ebp
  00001	8b ec		 mov	 ebp, esp

; 1392 :         int const _Result = __stdio_common_vsprintf(

  00003	8d 45 10	 lea	 eax, DWORD PTR __Format$[ebp+4]
  00006	50		 push	 eax
  00007	6a 00		 push	 0
  00009	ff 75 0c	 push	 DWORD PTR __Format$[ebp]
  0000c	6a ff		 push	 -1
  0000e	ff 75 08	 push	 DWORD PTR __Buffer$[ebp]
  00011	e8 00 00 00 00	 call	 ___local_stdio_printf_options
  00016	8b 08		 mov	 ecx, DWORD PTR [eax]
  00018	ff 70 04	 push	 DWORD PTR [eax+4]
  0001b	83 c9 01	 or	 ecx, 1
  0001e	51		 push	 ecx
  0001f	ff 15 00 00 00
	00		 call	 DWORD PTR __imp____stdio_common_vsprintf

; 1393 :             _CRT_INTERNAL_LOCAL_PRINTF_OPTIONS | _CRT_INTERNAL_PRINTF_LEGACY_VSPRINTF_NULL_TERMINATION,
; 1394 :             _Buffer, _BufferCount, _Format, _Locale, _ArgList);
; 1395 : 
; 1396 :         return _Result < 0 ? -1 : _Result;

  00025	83 c9 ff	 or	 ecx, -1
  00028	83 c4 1c	 add	 esp, 28			; 0000001cH
  0002b	85 c0		 test	 eax, eax
  0002d	0f 48 c1	 cmovs	 eax, ecx

; 1772 :         int _Result;
; 1773 :         va_list _ArgList;
; 1774 :         __crt_va_start(_ArgList, _Format);
; 1775 : 
; 1776 :         _Result = _vsprintf_l(_Buffer, _Format, NULL, _ArgList);
; 1777 : 
; 1778 :         __crt_va_end(_ArgList);
; 1779 :         return _Result;
; 1780 :     }

  00030	5d		 pop	 ebp
  00031	c3		 ret	 0
_sprintf ENDP
_TEXT	ENDS
; Function compile flags: /Ogtp
; File C:\Program Files (x86)\Windows Kits\10\Include\10.0.22000.0\ucrt\corecrt_stdio_config.h
;	COMDAT ___local_stdio_printf_options
_TEXT	SEGMENT
___local_stdio_printf_options PROC			; COMDAT

; 91   :         static unsigned __int64 _OptionsStorage;
; 92   :         return &_OptionsStorage;

  00000	b8 00 00 00 00	 mov	 eax, OFFSET ?_OptionsStorage@?1??__local_stdio_printf_options@@9@4_KA ; `__local_stdio_printf_options'::`2'::_OptionsStorage

; 93   :     }

  00005	c3		 ret	 0
___local_stdio_printf_options ENDP
_TEXT	ENDS
; Function compile flags: /Ogtp
; File D:\git\src\IBK\IBK_DRFN\ProjSrc\SrcDrfn\DrCommon\PartnerMng\ChartItemStock.cpp
;	COMDAT ?__empty_global_delete@@YAXPAXI@Z
_TEXT	SEGMENT
___formal$ = 8						; size = 4
___formal$ = 12						; size = 4
?__empty_global_delete@@YAXPAXI@Z PROC			; __empty_global_delete, COMDAT

  00000	c2 00 00	 ret	 0
?__empty_global_delete@@YAXPAXI@Z ENDP			; __empty_global_delete
_TEXT	ENDS
; Function compile flags: /Ogtp
; File D:\git\src\IBK\IBK_DRFN\ProjSrc\SrcDrfn\DrCommon\PartnerMng\ChartItemStock.cpp
;	COMDAT ?__empty_global_delete@@YAXPAX@Z
_TEXT	SEGMENT
___formal$ = 8						; size = 4
?__empty_global_delete@@YAXPAX@Z PROC			; __empty_global_delete, COMDAT

  00000	c2 00 00	 ret	 0
?__empty_global_delete@@YAXPAX@Z ENDP			; __empty_global_delete
_TEXT	ENDS
END
