; Listing generated by Microsoft (R) Optimizing Compiler Version 19.29.30145.0 

	TITLE	D:\git\src\IBK\IBK_DRFN\#DRfn-CS\_Obj\PartnerMng\ChartItemUpjong.obj
	.686P
	.XMM
	include listing.inc
	.model	flat

INCLUDELIB MSVCRT
INCLUDELIB OLDNAMES

PUBLIC	?szTickRowFieldUJ@@3PAPADA			; szTickRowFieldUJ
PUBLIC	??_C@_05PHOLPFLC@22302@				; `string'
PUBLIC	??_C@_05LBECEDID@22034@				; `string'
PUBLIC	??_C@_05PPMBLPHD@22023@				; `string'
PUBLIC	??_C@_05FCOFHPJ@22029@				; `string'
PUBLIC	??_C@_05NFCOIGIH@22030@				; `string'
PUBLIC	??_C@_05MMDFLHMG@22031@				; `string'
PUBLIC	??_C@_05OHBIOEAF@22032@				; `string'
PUBLIC	??_C@_05BMDFGGLI@22028@				; `string'
PUBLIC	?szSecRowFieldUJ@@3PAPADA			; szSecRowFieldUJ
PUBLIC	??_C@_05CGLFDHC@26302@				; `string'
PUBLIC	??_C@_05EEMCOFED@26034@				; `string'
PUBLIC	??_C@_05KEBBJLD@26023@				; `string'
PUBLIC	??_C@_05PAKOPBDJ@26029@				; `string'
PUBLIC	??_C@_05CAKOCAEH@26030@				; `string'
PUBLIC	??_C@_05DJLFBBAG@26031@				; `string'
PUBLIC	??_C@_05BCJIECMF@26032@				; `string'
PUBLIC	??_C@_05OJLFMAHI@26028@				; `string'
PUBLIC	?szMinRowFieldUJ@@3PAPADA			; szMinRowFieldUJ
PUBLIC	??_C@_05HIKLAABC@24302@				; `string'
PUBLIC	??_C@_05DOACLGCD@24034@				; `string'
PUBLIC	??_C@_05HAIBEKND@24023@				; `string'
PUBLIC	??_C@_05IKGOKCFJ@24029@				; `string'
PUBLIC	??_C@_05FKGOHDCH@24030@				; `string'
PUBLIC	??_C@_05EDHFECGG@24031@				; `string'
PUBLIC	??_C@_05GIFIBBKF@24032@				; `string'
PUBLIC	??_C@_05JDHFJDBI@24028@				; `string'
PUBLIC	?szDayRowFieldUJ@@3PAPADA			; szDayRowFieldUJ
PUBLIC	??_C@_05EFMLCJKC@25302@				; `string'
PUBLIC	??_C@_05ENOBGDGD@25023@				; `string'
PUBLIC	??_C@_05LHAOILOJ@25029@				; `string'
PUBLIC	??_C@_05GHAOFKJH@25030@				; `string'
PUBLIC	??_C@_05HOBFGLNG@25031@				; `string'
PUBLIC	??_C@_05CJINKGGH@25027@				; `string'
PUBLIC	??_C@_05KOBFLKKI@25028@				; `string'
PUBLIC	??_C@_0P@BKKCOCLK@RMSG_INTERFACE@		; `string'
PUBLIC	??_C@_0BB@GOOPDKI@RMSG_GETPCTRDATA@		; `string'
PUBLIC	??_C@_0BB@JPACFCL@RMSG_SETPCTRDATA@		; `string'
PUBLIC	??_C@_0BE@FJPKENOB@RMSG_GETSIGNAL_REAL@		; `string'
;	COMDAT ??_C@_0BE@FJPKENOB@RMSG_GETSIGNAL_REAL@
CONST	SEGMENT
??_C@_0BE@FJPKENOB@RMSG_GETSIGNAL_REAL@ DB 'RMSG_GETSIGNAL_REAL', 00H ; `string'
CONST	ENDS
;	COMDAT ??_C@_0BB@JPACFCL@RMSG_SETPCTRDATA@
CONST	SEGMENT
??_C@_0BB@JPACFCL@RMSG_SETPCTRDATA@ DB 'RMSG_SETPCTRDATA', 00H ; `string'
CONST	ENDS
;	COMDAT ??_C@_0BB@GOOPDKI@RMSG_GETPCTRDATA@
CONST	SEGMENT
??_C@_0BB@GOOPDKI@RMSG_GETPCTRDATA@ DB 'RMSG_GETPCTRDATA', 00H ; `string'
CONST	ENDS
;	COMDAT ??_C@_0P@BKKCOCLK@RMSG_INTERFACE@
CONST	SEGMENT
??_C@_0P@BKKCOCLK@RMSG_INTERFACE@ DB 'RMSG_INTERFACE', 00H ; `string'
CONST	ENDS
;	COMDAT ??_C@_05KOBFLKKI@25028@
CONST	SEGMENT
??_C@_05KOBFLKKI@25028@ DB '25028', 00H			; `string'
CONST	ENDS
;	COMDAT ??_C@_05CJINKGGH@25027@
CONST	SEGMENT
??_C@_05CJINKGGH@25027@ DB '25027', 00H			; `string'
CONST	ENDS
;	COMDAT ??_C@_05HOBFGLNG@25031@
CONST	SEGMENT
??_C@_05HOBFGLNG@25031@ DB '25031', 00H			; `string'
CONST	ENDS
;	COMDAT ??_C@_05GHAOFKJH@25030@
CONST	SEGMENT
??_C@_05GHAOFKJH@25030@ DB '25030', 00H			; `string'
CONST	ENDS
;	COMDAT ??_C@_05LHAOILOJ@25029@
CONST	SEGMENT
??_C@_05LHAOILOJ@25029@ DB '25029', 00H			; `string'
CONST	ENDS
;	COMDAT ??_C@_05ENOBGDGD@25023@
CONST	SEGMENT
??_C@_05ENOBGDGD@25023@ DB '25023', 00H			; `string'
CONST	ENDS
;	COMDAT ??_C@_05EFMLCJKC@25302@
CONST	SEGMENT
??_C@_05EFMLCJKC@25302@ DB '25302', 00H			; `string'
CONST	ENDS
;	COMDAT ??_C@_05JDHFJDBI@24028@
CONST	SEGMENT
??_C@_05JDHFJDBI@24028@ DB '24028', 00H			; `string'
CONST	ENDS
;	COMDAT ??_C@_05GIFIBBKF@24032@
CONST	SEGMENT
??_C@_05GIFIBBKF@24032@ DB '24032', 00H			; `string'
CONST	ENDS
;	COMDAT ??_C@_05EDHFECGG@24031@
CONST	SEGMENT
??_C@_05EDHFECGG@24031@ DB '24031', 00H			; `string'
CONST	ENDS
;	COMDAT ??_C@_05FKGOHDCH@24030@
CONST	SEGMENT
??_C@_05FKGOHDCH@24030@ DB '24030', 00H			; `string'
CONST	ENDS
;	COMDAT ??_C@_05IKGOKCFJ@24029@
CONST	SEGMENT
??_C@_05IKGOKCFJ@24029@ DB '24029', 00H			; `string'
CONST	ENDS
;	COMDAT ??_C@_05HAIBEKND@24023@
CONST	SEGMENT
??_C@_05HAIBEKND@24023@ DB '24023', 00H			; `string'
CONST	ENDS
;	COMDAT ??_C@_05DOACLGCD@24034@
CONST	SEGMENT
??_C@_05DOACLGCD@24034@ DB '24034', 00H			; `string'
CONST	ENDS
;	COMDAT ??_C@_05HIKLAABC@24302@
CONST	SEGMENT
??_C@_05HIKLAABC@24302@ DB '24302', 00H			; `string'
CONST	ENDS
;	COMDAT ??_C@_05OJLFMAHI@26028@
CONST	SEGMENT
??_C@_05OJLFMAHI@26028@ DB '26028', 00H			; `string'
CONST	ENDS
;	COMDAT ??_C@_05BCJIECMF@26032@
CONST	SEGMENT
??_C@_05BCJIECMF@26032@ DB '26032', 00H			; `string'
CONST	ENDS
;	COMDAT ??_C@_05DJLFBBAG@26031@
CONST	SEGMENT
??_C@_05DJLFBBAG@26031@ DB '26031', 00H			; `string'
CONST	ENDS
;	COMDAT ??_C@_05CAKOCAEH@26030@
CONST	SEGMENT
??_C@_05CAKOCAEH@26030@ DB '26030', 00H			; `string'
CONST	ENDS
;	COMDAT ??_C@_05PAKOPBDJ@26029@
CONST	SEGMENT
??_C@_05PAKOPBDJ@26029@ DB '26029', 00H			; `string'
CONST	ENDS
;	COMDAT ??_C@_05KEBBJLD@26023@
CONST	SEGMENT
??_C@_05KEBBJLD@26023@ DB '26023', 00H			; `string'
CONST	ENDS
;	COMDAT ??_C@_05EEMCOFED@26034@
CONST	SEGMENT
??_C@_05EEMCOFED@26034@ DB '26034', 00H			; `string'
CONST	ENDS
;	COMDAT ??_C@_05CGLFDHC@26302@
CONST	SEGMENT
??_C@_05CGLFDHC@26302@ DB '26302', 00H			; `string'
CONST	ENDS
;	COMDAT ??_C@_05BMDFGGLI@22028@
CONST	SEGMENT
??_C@_05BMDFGGLI@22028@ DB '22028', 00H			; `string'
CONST	ENDS
;	COMDAT ??_C@_05OHBIOEAF@22032@
CONST	SEGMENT
??_C@_05OHBIOEAF@22032@ DB '22032', 00H			; `string'
CONST	ENDS
;	COMDAT ??_C@_05MMDFLHMG@22031@
CONST	SEGMENT
??_C@_05MMDFLHMG@22031@ DB '22031', 00H			; `string'
CONST	ENDS
;	COMDAT ??_C@_05NFCOIGIH@22030@
CONST	SEGMENT
??_C@_05NFCOIGIH@22030@ DB '22030', 00H			; `string'
CONST	ENDS
;	COMDAT ??_C@_05FCOFHPJ@22029@
CONST	SEGMENT
??_C@_05FCOFHPJ@22029@ DB '22029', 00H			; `string'
CONST	ENDS
;	COMDAT ??_C@_05PPMBLPHD@22023@
CONST	SEGMENT
??_C@_05PPMBLPHD@22023@ DB '22023', 00H			; `string'
CONST	ENDS
;	COMDAT ??_C@_05LBECEDID@22034@
CONST	SEGMENT
??_C@_05LBECEDID@22034@ DB '22034', 00H			; `string'
CONST	ENDS
;	COMDAT ??_C@_05PHOLPFLC@22302@
CONST	SEGMENT
??_C@_05PHOLPFLC@22302@ DB '22302', 00H			; `string'
CONST	ENDS
_DATA	SEGMENT
?szTickRowFieldUJ@@3PAPADA DD FLAT:??_C@_05PHOLPFLC@22302@ ; szTickRowFieldUJ
	DD	FLAT:??_C@_05LBECEDID@22034@
	DD	FLAT:??_C@_05PPMBLPHD@22023@
	DD	FLAT:??_C@_05FCOFHPJ@22029@
	DD	FLAT:??_C@_05NFCOIGIH@22030@
	DD	FLAT:??_C@_05MMDFLHMG@22031@
	DD	FLAT:??_C@_05OHBIOEAF@22032@
	DD	FLAT:??_C@_05BMDFGGLI@22028@
?szSecRowFieldUJ@@3PAPADA DD FLAT:??_C@_05CGLFDHC@26302@ ; szSecRowFieldUJ
	DD	FLAT:??_C@_05EEMCOFED@26034@
	DD	FLAT:??_C@_05KEBBJLD@26023@
	DD	FLAT:??_C@_05PAKOPBDJ@26029@
	DD	FLAT:??_C@_05CAKOCAEH@26030@
	DD	FLAT:??_C@_05DJLFBBAG@26031@
	DD	FLAT:??_C@_05BCJIECMF@26032@
	DD	FLAT:??_C@_05OJLFMAHI@26028@
?szMinRowFieldUJ@@3PAPADA DD FLAT:??_C@_05HIKLAABC@24302@ ; szMinRowFieldUJ
	DD	FLAT:??_C@_05DOACLGCD@24034@
	DD	FLAT:??_C@_05HAIBEKND@24023@
	DD	FLAT:??_C@_05IKGOKCFJ@24029@
	DD	FLAT:??_C@_05FKGOHDCH@24030@
	DD	FLAT:??_C@_05EDHFECGG@24031@
	DD	FLAT:??_C@_05GIFIBBKF@24032@
	DD	FLAT:??_C@_05JDHFJDBI@24028@
?szDayRowFieldUJ@@3PAPADA DD FLAT:??_C@_05EFMLCJKC@25302@ ; szDayRowFieldUJ
	DD	FLAT:??_C@_05ENOBGDGD@25023@
	DD	FLAT:??_C@_05LHAOILOJ@25029@
	DD	FLAT:??_C@_05GHAOFKJH@25030@
	DD	FLAT:??_C@_05HOBFGLNG@25031@
	DD	FLAT:??_C@_05CJINKGGH@25027@
	DD	FLAT:??_C@_05KOBFLKKI@25028@
_DATA	ENDS
PUBLIC	?__empty_global_delete@@YAXPAX@Z		; __empty_global_delete
PUBLIC	?__empty_global_delete@@YAXPAXI@Z		; __empty_global_delete
PUBLIC	___local_stdio_printf_options
PUBLIC	_sprintf
PUBLIC	?Copy@CChartBozoInput@@UAEXABV1@@Z		; CChartBozoInput::Copy
PUBLIC	??4CChartBozoInput@@UAEAAV0@ABV0@@Z		; CChartBozoInput::operator=
PUBLIC	??1CChartBozoInput@@QAE@XZ			; CChartBozoInput::~CChartBozoInput
PUBLIC	??0CChartItemUpjong@@QAE@XZ			; CChartItemUpjong::CChartItemUpjong
PUBLIC	??1CChartItemUpjong@@UAE@XZ			; CChartItemUpjong::~CChartItemUpjong
PUBLIC	?SetInData@CChartItemUpjong@@QAEXPAUKB_p0603_InRec1@@@Z ; CChartItemUpjong::SetInData
PUBLIC	?Convert@CChartItemUpjong@@QAE?AV?$CStringT@DV?$StrTraitMFC_DLL@DV?$ChTraitsCRT@D@ATL@@@@@ATL@@XZ ; CChartItemUpjong::Convert
PUBLIC	?Convert2Struct@CChartItemUpjong@@QAEPADPAEHHAAH@Z ; CChartItemUpjong::Convert2Struct
PUBLIC	??_GCChartItemUpjong@@UAEPAXI@Z			; CChartItemUpjong::`scalar deleting destructor'
PUBLIC	?_OptionsStorage@?1??__local_stdio_printf_options@@9@4_KA ; `__local_stdio_printf_options'::`2'::_OptionsStorage
PUBLIC	??_C@_02DPKJAMEF@?$CFd@				; `string'
PUBLIC	??_C@_00CNPNBAHC@@				; `string'
PUBLIC	??_7CChartBozoInput@@6B@			; CChartBozoInput::`vftable'
PUBLIC	??_7CChartItemUpjong@@6B@			; CChartItemUpjong::`vftable'
PUBLIC	??_C@_05JLGGNMKB@21301@				; `string'
PUBLIC	??_C@_0P@FLGGHACJ@99999999999999@		; `string'
PUBLIC	??_C@_06JCDDGDIK@?$DP22500@			; `string'
PUBLIC	??_C@_05BEBPCMHJ@22309@				; `string'
PUBLIC	??_C@_05KCDFIGFK@22324@				; `string'
PUBLIC	??_C@_07BEGHJBJI@?$CF20?420s@			; `string'
PUBLIC	??_C@_06BNHDJGCK@?$DP24500@			; `string'
PUBLIC	??_C@_05CNHFHDPK@24324@				; `string'
PUBLIC	??_C@_07KLKCMOCB@?$CF14?414s@			; `string'
PUBLIC	??_C@_05ICEEOIJI@24308@				; `string'
PUBLIC	??_C@_05JLFPNJNJ@24309@				; `string'
PUBLIC	??_C@_06CABDLPJK@?$DP25500@			; `string'
PUBLIC	??_C@_05BABFFKEK@25324@				; `string'
PUBLIC	??_C@_05OGIKHPIO@?$CF8?48s@			; `string'
PUBLIC	??_C@_06GHLDMFEK@?$DP26500@			; `string'
PUBLIC	??_C@_05FHLFCAJK@26324@				; `string'
PUBLIC	??_C@_05PIIELLPI@26308@				; `string'
PUBLIC	??_C@_05OBJPIKLJ@26309@				; `string'
PUBLIC	??_C@_05KBHKPEOC@21022@				; `string'
PUBLIC	??_C@_05LIGBMFKD@21023@				; `string'
PUBLIC	??_C@_05KIJCNEBE@21313@				; `string'
PUBLIC	??_C@_05PHCAFDGE@21024@				; `string'
PUBLIC	??_C@_05LJKDKPJE@21033@				; `string'
PUBLIC	??_C@_05NMANAAKH@21027@				; `string'
PUBLIC	??_C@_05FLJFBMGI@21028@				; `string'
PUBLIC	??_C@_05ECIOCNCJ@21029@				; `string'
PUBLIC	??_C@_05JCIOPMFH@21030@				; `string'
PUBLIC	??_C@_05ILJFMNBG@21031@				; `string'
PUBLIC	??_C@_05IBPJDJIO@21320@				; `string'
PUBLIC	??_C@_05JIOCAIMP@21321@				; `string'
PUBLIC	??_C@_05LDMPFLAM@21322@				; `string'
PUBLIC	??_C@_05MNDMHLCH@21307@				; `string'
PUBLIC	??_C@_05ONMAANIE@21900@				; `string'
PUBLIC	??_C@_05PENLDMMF@21901@				; `string'
PUBLIC	??_C@_04OBKAGHLG@?$CF06d@			; `string'
PUBLIC	??_C@_04PEJMDNKC@?$CF0?$CKd@			; `string'
PUBLIC	??_C@_04EBNJJJJI@?$CF?4?$CKs@			; `string'
PUBLIC	??_C@_02PLJDPFIO@00@				; `string'
PUBLIC	??_C@_02PKFBJPLJ@10@				; `string'
PUBLIC	??_C@_02ODEKKOPI@11@				; `string'
PUBLIC	??_C@_02PNFIDHGF@50@				; `string'
PUBLIC	??_C@_0BA@PKAGJNBB@?$CF4?44s00?$HM?$CF4?44s00@	; `string'
PUBLIC	??_C@_04ODOGNJOP@?$CF05d@			; `string'
PUBLIC	??_C@_04IBKPHMDC@?$CFs12@			; `string'
PUBLIC	??_C@_06GEKNBBDK@000000@			; `string'
PUBLIC	??_C@_04GHNNFJCK@?$CF?40f@			; `string'
PUBLIC	??_C@_01GBGANLPD@0@				; `string'
PUBLIC	??_C@_01HIHLOKLC@1@				; `string'
PUBLIC	??_C@_04OHGLKFFN@?$CF03d@			; `string'
PUBLIC	??_R4CChartBozoInput@@6B@			; CChartBozoInput::`RTTI Complete Object Locator'
PUBLIC	??_R0?AVCChartBozoInput@@@8			; CChartBozoInput `RTTI Type Descriptor'
PUBLIC	??_R3CChartBozoInput@@8				; CChartBozoInput::`RTTI Class Hierarchy Descriptor'
PUBLIC	??_R2CChartBozoInput@@8				; CChartBozoInput::`RTTI Base Class Array'
PUBLIC	??_R1A@?0A@EA@CChartBozoInput@@8		; CChartBozoInput::`RTTI Base Class Descriptor at (0,-1,0,64)'
PUBLIC	??_R4CChartItemUpjong@@6B@			; CChartItemUpjong::`RTTI Complete Object Locator'
PUBLIC	??_R0?AVCChartItemUpjong@@@8			; CChartItemUpjong `RTTI Type Descriptor'
PUBLIC	??_R3CChartItemUpjong@@8			; CChartItemUpjong::`RTTI Class Hierarchy Descriptor'
PUBLIC	??_R2CChartItemUpjong@@8			; CChartItemUpjong::`RTTI Base Class Array'
PUBLIC	??_R1A@?0A@EA@CChartItemUpjong@@8		; CChartItemUpjong::`RTTI Base Class Descriptor at (0,-1,0,64)'
PUBLIC	__real@3ff0000000000000
PUBLIC	__real@4059000000000000
PUBLIC	__xmm@20202020202020202020202020202020
PUBLIC	__xmm@7fffffffffffffff7fffffffffffffff
EXTRN	??3@YAXPAXI@Z:PROC				; operator delete
EXTRN	??_U@YAPAXI@Z:PROC				; operator new[]
EXTRN	__imp__RegisterWindowMessageA@4:PROC
EXTRN	__imp____stdio_common_vsprintf:PROC
EXTRN	__imp__atof:PROC
EXTRN	__imp__atoi:PROC
EXTRN	?AfxThrowInvalidArgException@@YGXXZ:PROC	; AfxThrowInvalidArgException
EXTRN	__imp_?Concatenate@?$CSimpleStringT@D$00@ATL@@KAXAAV12@PBDH1H@Z:PROC
EXTRN	__imp_??0?$CStringT@DV?$StrTraitMFC_DLL@DV?$ChTraitsCRT@D@ATL@@@@@ATL@@QAE@XZ:PROC
EXTRN	__imp_??0?$CStringT@DV?$StrTraitMFC_DLL@DV?$ChTraitsCRT@D@ATL@@@@@ATL@@QAE@PAUIAtlStringMgr@1@@Z:PROC
EXTRN	__imp_??0?$CStringT@DV?$StrTraitMFC_DLL@DV?$ChTraitsCRT@D@ATL@@@@@ATL@@QAE@ABV01@@Z:PROC
EXTRN	__imp_??0?$CStringT@DV?$StrTraitMFC_DLL@DV?$ChTraitsCRT@D@ATL@@@@@ATL@@QAE@PBD@Z:PROC
EXTRN	__imp_??0?$CStringT@DV?$StrTraitMFC_DLL@DV?$ChTraitsCRT@D@ATL@@@@@ATL@@QAE@DH@Z:PROC
EXTRN	__imp_??0?$CStringT@DV?$StrTraitMFC_DLL@DV?$ChTraitsCRT@D@ATL@@@@@ATL@@QAE@PBDH@Z:PROC
EXTRN	__imp_??1?$CStringT@DV?$StrTraitMFC_DLL@DV?$ChTraitsCRT@D@ATL@@@@@ATL@@QAE@XZ:PROC
EXTRN	__imp_??4?$CStringT@DV?$StrTraitMFC_DLL@DV?$ChTraitsCRT@D@ATL@@@@@ATL@@QAEAAV01@ABV01@@Z:PROC
EXTRN	__imp_??4?$CStringT@DV?$StrTraitMFC_DLL@DV?$ChTraitsCRT@D@ATL@@@@@ATL@@QAEAAV01@PBD@Z:PROC
EXTRN	__imp_??4?$CStringT@DV?$StrTraitMFC_DLL@DV?$ChTraitsCRT@D@ATL@@@@@ATL@@QAEAAV01@D@Z:PROC
EXTRN	__imp_??Y?$CStringT@DV?$StrTraitMFC_DLL@DV?$ChTraitsCRT@D@ATL@@@@@ATL@@QAEAAV01@ABV?$CSimpleStringT@D$00@1@@Z:PROC
EXTRN	__imp_??Y?$CStringT@DV?$StrTraitMFC_DLL@DV?$ChTraitsCRT@D@ATL@@@@@ATL@@QAEAAV01@PBD@Z:PROC
EXTRN	__imp_??Y?$CStringT@DV?$StrTraitMFC_DLL@DV?$ChTraitsCRT@D@ATL@@@@@ATL@@QAEAAV01@D@Z:PROC
EXTRN	__imp_?GetManager@?$CStringT@DV?$StrTraitMFC_DLL@DV?$ChTraitsCRT@D@ATL@@@@@ATL@@QBEPAUIAtlStringMgr@2@XZ:PROC
EXTRN	__imp_?Compare@?$CStringT@DV?$StrTraitMFC_DLL@DV?$ChTraitsCRT@D@ATL@@@@@ATL@@QBEHPBD@Z:PROC
EXTRN	__imp_?Remove@?$CStringT@DV?$StrTraitMFC_DLL@DV?$ChTraitsCRT@D@ATL@@@@@ATL@@QAEHD@Z:PROC
EXTRN	__imp_?TrimRight@?$CStringT@DV?$StrTraitMFC_DLL@DV?$ChTraitsCRT@D@ATL@@@@@ATL@@QAEAAV12@XZ:PROC
EXTRN	__imp_?TrimLeft@?$CStringT@DV?$StrTraitMFC_DLL@DV?$ChTraitsCRT@D@ATL@@@@@ATL@@QAEAAV12@XZ:PROC
EXTRN	__imp_?Mid@?$CStringT@DV?$StrTraitMFC_DLL@DV?$ChTraitsCRT@D@ATL@@@@@ATL@@QBE?AV12@H@Z:PROC
EXTRN	__imp_?Right@?$CStringT@DV?$StrTraitMFC_DLL@DV?$ChTraitsCRT@D@ATL@@@@@ATL@@QBE?AV12@H@Z:PROC
EXTRN	__imp_?Left@?$CStringT@DV?$StrTraitMFC_DLL@DV?$ChTraitsCRT@D@ATL@@@@@ATL@@QBE?AV12@H@Z:PROC
EXTRN	__imp_?Format@?$CStringT@DV?$StrTraitMFC_DLL@DV?$ChTraitsCRT@D@ATL@@@@@ATL@@QAAXPBDZZ:PROC
EXTRN	??0CStringArray@@QAE@XZ:PROC			; CStringArray::CStringArray
EXTRN	?SetAtGrow@CStringArray@@QAEXHABV?$CStringT@DV?$StrTraitMFC_DLL@DV?$ChTraitsCRT@D@ATL@@@@@ATL@@@Z:PROC ; CStringArray::SetAtGrow
EXTRN	??1CStringArray@@UAE@XZ:PROC			; CStringArray::~CStringArray
EXTRN	??_ECChartItemUpjong@@UAEPAXI@Z:PROC		; CChartItemUpjong::`vector deleting destructor'
EXTRN	?Parser@CDataConverter@@SA?AV?$CStringT@DV?$StrTraitMFC_DLL@DV?$ChTraitsCRT@D@ATL@@@@@ATL@@AAV23@V23@@Z:PROC ; CDataConverter::Parser
EXTRN	?Get_PercentData@CDataConverter@@SA?AV?$CStringT@DV?$StrTraitMFC_DLL@DV?$ChTraitsCRT@D@ATL@@@@@ATL@@PADNH@Z:PROC ; CDataConverter::Get_PercentData
EXTRN	?Char2String@CDataConverter@@SA?AV?$CStringT@DV?$StrTraitMFC_DLL@DV?$ChTraitsCRT@D@ATL@@@@@ATL@@PADH@Z:PROC ; CDataConverter::Char2String
EXTRN	?Char2Int@CDataConverter@@SAHPADH@Z:PROC	; CDataConverter::Char2Int
EXTRN	?GetChartBozoMsg@CChartBozoManager@@UAGHPBDPAVCChartBozoInput@@AAV?$CStringT@DV?$StrTraitMFC_DLL@DV?$ChTraitsCRT@D@ATL@@@@@ATL@@H@Z:PROC ; CChartBozoManager::GetChartBozoMsg
EXTRN	??0CChartBozoManager@@QAE@XZ:PROC		; CChartBozoManager::CChartBozoManager
EXTRN	@__security_check_cookie@4:PROC
EXTRN	___CxxFrameHandler3:PROC
EXTRN	_memcpy:PROC
EXTRN	_memset:PROC
EXTRN	??_7type_info@@6B@:QWORD			; type_info::`vftable'
EXTRN	___security_cookie:DWORD
EXTRN	__fltused:DWORD
;	COMDAT ?_OptionsStorage@?1??__local_stdio_printf_options@@9@4_KA
_BSS	SEGMENT
?_OptionsStorage@?1??__local_stdio_printf_options@@9@4_KA DQ 01H DUP (?) ; `__local_stdio_printf_options'::`2'::_OptionsStorage
_BSS	ENDS
_BSS	SEGMENT
?RMSG_INTERFACE@@3IB DD 01H DUP (?)			; RMSG_INTERFACE
?RMSG_GETPCTRDATA@@3IB DD 01H DUP (?)			; RMSG_GETPCTRDATA
?RMSG_SETPCTRDATA@@3IB DD 01H DUP (?)			; RMSG_SETPCTRDATA
?RMSG_GETSIGNAL_REAL@@3IB DD 01H DUP (?)		; RMSG_GETSIGNAL_REAL
_BSS	ENDS
CRT$XCU	SEGMENT
?RMSG_INTERFACE$initializer$@@3P6AXXZA DD FLAT:??__ERMSG_INTERFACE@@YAXXZ ; RMSG_INTERFACE$initializer$
CRT$XCU	ENDS
;	COMDAT __xmm@7fffffffffffffff7fffffffffffffff
CONST	SEGMENT
__xmm@7fffffffffffffff7fffffffffffffff DB 0ffH, 0ffH, 0ffH, 0ffH, 0ffH, 0ffH
	DB	0ffH, 07fH, 0ffH, 0ffH, 0ffH, 0ffH, 0ffH, 0ffH, 0ffH, 07fH
CONST	ENDS
;	COMDAT __xmm@20202020202020202020202020202020
CONST	SEGMENT
__xmm@20202020202020202020202020202020 DB '                '
CONST	ENDS
;	COMDAT __real@4059000000000000
CONST	SEGMENT
__real@4059000000000000 DQ 04059000000000000r	; 100
CONST	ENDS
;	COMDAT __real@3ff0000000000000
CONST	SEGMENT
__real@3ff0000000000000 DQ 03ff0000000000000r	; 1
CONST	ENDS
;	COMDAT ??_R1A@?0A@EA@CChartItemUpjong@@8
rdata$r	SEGMENT
??_R1A@?0A@EA@CChartItemUpjong@@8 DD FLAT:??_R0?AVCChartItemUpjong@@@8 ; CChartItemUpjong::`RTTI Base Class Descriptor at (0,-1,0,64)'
	DD	00H
	DD	00H
	DD	0ffffffffH
	DD	00H
	DD	040H
	DD	FLAT:??_R3CChartItemUpjong@@8
rdata$r	ENDS
;	COMDAT ??_R2CChartItemUpjong@@8
rdata$r	SEGMENT
??_R2CChartItemUpjong@@8 DD FLAT:??_R1A@?0A@EA@CChartItemUpjong@@8 ; CChartItemUpjong::`RTTI Base Class Array'
rdata$r	ENDS
;	COMDAT ??_R3CChartItemUpjong@@8
rdata$r	SEGMENT
??_R3CChartItemUpjong@@8 DD 00H				; CChartItemUpjong::`RTTI Class Hierarchy Descriptor'
	DD	00H
	DD	01H
	DD	FLAT:??_R2CChartItemUpjong@@8
rdata$r	ENDS
;	COMDAT ??_R0?AVCChartItemUpjong@@@8
data$rs	SEGMENT
??_R0?AVCChartItemUpjong@@@8 DD FLAT:??_7type_info@@6B@	; CChartItemUpjong `RTTI Type Descriptor'
	DD	00H
	DB	'.?AVCChartItemUpjong@@', 00H
data$rs	ENDS
;	COMDAT ??_R4CChartItemUpjong@@6B@
rdata$r	SEGMENT
??_R4CChartItemUpjong@@6B@ DD 00H			; CChartItemUpjong::`RTTI Complete Object Locator'
	DD	00H
	DD	00H
	DD	FLAT:??_R0?AVCChartItemUpjong@@@8
	DD	FLAT:??_R3CChartItemUpjong@@8
rdata$r	ENDS
;	COMDAT ??_R1A@?0A@EA@CChartBozoInput@@8
rdata$r	SEGMENT
??_R1A@?0A@EA@CChartBozoInput@@8 DD FLAT:??_R0?AVCChartBozoInput@@@8 ; CChartBozoInput::`RTTI Base Class Descriptor at (0,-1,0,64)'
	DD	00H
	DD	00H
	DD	0ffffffffH
	DD	00H
	DD	040H
	DD	FLAT:??_R3CChartBozoInput@@8
rdata$r	ENDS
;	COMDAT ??_R2CChartBozoInput@@8
rdata$r	SEGMENT
??_R2CChartBozoInput@@8 DD FLAT:??_R1A@?0A@EA@CChartBozoInput@@8 ; CChartBozoInput::`RTTI Base Class Array'
rdata$r	ENDS
;	COMDAT ??_R3CChartBozoInput@@8
rdata$r	SEGMENT
??_R3CChartBozoInput@@8 DD 00H				; CChartBozoInput::`RTTI Class Hierarchy Descriptor'
	DD	00H
	DD	01H
	DD	FLAT:??_R2CChartBozoInput@@8
rdata$r	ENDS
;	COMDAT ??_R0?AVCChartBozoInput@@@8
data$rs	SEGMENT
??_R0?AVCChartBozoInput@@@8 DD FLAT:??_7type_info@@6B@	; CChartBozoInput `RTTI Type Descriptor'
	DD	00H
	DB	'.?AVCChartBozoInput@@', 00H
data$rs	ENDS
;	COMDAT ??_R4CChartBozoInput@@6B@
rdata$r	SEGMENT
??_R4CChartBozoInput@@6B@ DD 00H			; CChartBozoInput::`RTTI Complete Object Locator'
	DD	00H
	DD	00H
	DD	FLAT:??_R0?AVCChartBozoInput@@@8
	DD	FLAT:??_R3CChartBozoInput@@8
rdata$r	ENDS
;	COMDAT ??_C@_04OHGLKFFN@?$CF03d@
CONST	SEGMENT
??_C@_04OHGLKFFN@?$CF03d@ DB '%03d', 00H		; `string'
CONST	ENDS
;	COMDAT ??_C@_01HIHLOKLC@1@
CONST	SEGMENT
??_C@_01HIHLOKLC@1@ DB '1', 00H				; `string'
CONST	ENDS
;	COMDAT ??_C@_01GBGANLPD@0@
CONST	SEGMENT
??_C@_01GBGANLPD@0@ DB '0', 00H				; `string'
CONST	ENDS
;	COMDAT ??_C@_04GHNNFJCK@?$CF?40f@
CONST	SEGMENT
??_C@_04GHNNFJCK@?$CF?40f@ DB '%.0f', 00H		; `string'
CONST	ENDS
;	COMDAT ??_C@_06GEKNBBDK@000000@
CONST	SEGMENT
??_C@_06GEKNBBDK@000000@ DB '000000', 00H		; `string'
CONST	ENDS
;	COMDAT ??_C@_04IBKPHMDC@?$CFs12@
CONST	SEGMENT
??_C@_04IBKPHMDC@?$CFs12@ DB '%s12', 00H		; `string'
CONST	ENDS
;	COMDAT ??_C@_04ODOGNJOP@?$CF05d@
CONST	SEGMENT
??_C@_04ODOGNJOP@?$CF05d@ DB '%05d', 00H		; `string'
CONST	ENDS
;	COMDAT ??_C@_0BA@PKAGJNBB@?$CF4?44s00?$HM?$CF4?44s00@
CONST	SEGMENT
??_C@_0BA@PKAGJNBB@?$CF4?44s00?$HM?$CF4?44s00@ DB '%4.4s00|%4.4s00', 00H ; `string'
CONST	ENDS
;	COMDAT ??_C@_02PNFIDHGF@50@
CONST	SEGMENT
??_C@_02PNFIDHGF@50@ DB '50', 00H			; `string'
CONST	ENDS
;	COMDAT ??_C@_02ODEKKOPI@11@
CONST	SEGMENT
??_C@_02ODEKKOPI@11@ DB '11', 00H			; `string'
CONST	ENDS
;	COMDAT ??_C@_02PKFBJPLJ@10@
CONST	SEGMENT
??_C@_02PKFBJPLJ@10@ DB '10', 00H			; `string'
CONST	ENDS
;	COMDAT ??_C@_02PLJDPFIO@00@
CONST	SEGMENT
??_C@_02PLJDPFIO@00@ DB '00', 00H			; `string'
CONST	ENDS
;	COMDAT ??_C@_04EBNJJJJI@?$CF?4?$CKs@
CONST	SEGMENT
??_C@_04EBNJJJJI@?$CF?4?$CKs@ DB '%.*s', 00H		; `string'
CONST	ENDS
;	COMDAT ??_C@_04PEJMDNKC@?$CF0?$CKd@
CONST	SEGMENT
??_C@_04PEJMDNKC@?$CF0?$CKd@ DB '%0*d', 00H		; `string'
CONST	ENDS
;	COMDAT ??_C@_04OBKAGHLG@?$CF06d@
CONST	SEGMENT
??_C@_04OBKAGHLG@?$CF06d@ DB '%06d', 00H		; `string'
CONST	ENDS
;	COMDAT ??_C@_05PENLDMMF@21901@
CONST	SEGMENT
??_C@_05PENLDMMF@21901@ DB '21901', 00H			; `string'
CONST	ENDS
;	COMDAT ??_C@_05ONMAANIE@21900@
CONST	SEGMENT
??_C@_05ONMAANIE@21900@ DB '21900', 00H			; `string'
CONST	ENDS
;	COMDAT ??_C@_05MNDMHLCH@21307@
CONST	SEGMENT
??_C@_05MNDMHLCH@21307@ DB '21307', 00H			; `string'
CONST	ENDS
;	COMDAT ??_C@_05LDMPFLAM@21322@
CONST	SEGMENT
??_C@_05LDMPFLAM@21322@ DB '21322', 00H			; `string'
CONST	ENDS
;	COMDAT ??_C@_05JIOCAIMP@21321@
CONST	SEGMENT
??_C@_05JIOCAIMP@21321@ DB '21321', 00H			; `string'
CONST	ENDS
;	COMDAT ??_C@_05IBPJDJIO@21320@
CONST	SEGMENT
??_C@_05IBPJDJIO@21320@ DB '21320', 00H			; `string'
CONST	ENDS
;	COMDAT ??_C@_05ILJFMNBG@21031@
CONST	SEGMENT
??_C@_05ILJFMNBG@21031@ DB '21031', 00H			; `string'
CONST	ENDS
;	COMDAT ??_C@_05JCIOPMFH@21030@
CONST	SEGMENT
??_C@_05JCIOPMFH@21030@ DB '21030', 00H			; `string'
CONST	ENDS
;	COMDAT ??_C@_05ECIOCNCJ@21029@
CONST	SEGMENT
??_C@_05ECIOCNCJ@21029@ DB '21029', 00H			; `string'
CONST	ENDS
;	COMDAT ??_C@_05FLJFBMGI@21028@
CONST	SEGMENT
??_C@_05FLJFBMGI@21028@ DB '21028', 00H			; `string'
CONST	ENDS
;	COMDAT ??_C@_05NMANAAKH@21027@
CONST	SEGMENT
??_C@_05NMANAAKH@21027@ DB '21027', 00H			; `string'
CONST	ENDS
;	COMDAT ??_C@_05LJKDKPJE@21033@
CONST	SEGMENT
??_C@_05LJKDKPJE@21033@ DB '21033', 00H			; `string'
CONST	ENDS
;	COMDAT ??_C@_05PHCAFDGE@21024@
CONST	SEGMENT
??_C@_05PHCAFDGE@21024@ DB '21024', 00H			; `string'
CONST	ENDS
;	COMDAT ??_C@_05KIJCNEBE@21313@
CONST	SEGMENT
??_C@_05KIJCNEBE@21313@ DB '21313', 00H			; `string'
CONST	ENDS
;	COMDAT ??_C@_05LIGBMFKD@21023@
CONST	SEGMENT
??_C@_05LIGBMFKD@21023@ DB '21023', 00H			; `string'
CONST	ENDS
;	COMDAT ??_C@_05KBHKPEOC@21022@
CONST	SEGMENT
??_C@_05KBHKPEOC@21022@ DB '21022', 00H			; `string'
CONST	ENDS
;	COMDAT ??_C@_05OBJPIKLJ@26309@
CONST	SEGMENT
??_C@_05OBJPIKLJ@26309@ DB '26309', 00H			; `string'
CONST	ENDS
;	COMDAT ??_C@_05PIIELLPI@26308@
CONST	SEGMENT
??_C@_05PIIELLPI@26308@ DB '26308', 00H			; `string'
CONST	ENDS
;	COMDAT ??_C@_05FHLFCAJK@26324@
CONST	SEGMENT
??_C@_05FHLFCAJK@26324@ DB '26324', 00H			; `string'
CONST	ENDS
;	COMDAT ??_C@_06GHLDMFEK@?$DP26500@
CONST	SEGMENT
??_C@_06GHLDMFEK@?$DP26500@ DB '?26500', 00H		; `string'
CONST	ENDS
;	COMDAT ??_C@_05OGIKHPIO@?$CF8?48s@
CONST	SEGMENT
??_C@_05OGIKHPIO@?$CF8?48s@ DB '%8.8s', 00H		; `string'
CONST	ENDS
;	COMDAT ??_C@_05BABFFKEK@25324@
CONST	SEGMENT
??_C@_05BABFFKEK@25324@ DB '25324', 00H			; `string'
CONST	ENDS
;	COMDAT ??_C@_06CABDLPJK@?$DP25500@
CONST	SEGMENT
??_C@_06CABDLPJK@?$DP25500@ DB '?25500', 00H		; `string'
CONST	ENDS
;	COMDAT ??_C@_05JLFPNJNJ@24309@
CONST	SEGMENT
??_C@_05JLFPNJNJ@24309@ DB '24309', 00H			; `string'
CONST	ENDS
;	COMDAT ??_C@_05ICEEOIJI@24308@
CONST	SEGMENT
??_C@_05ICEEOIJI@24308@ DB '24308', 00H			; `string'
CONST	ENDS
;	COMDAT ??_C@_07KLKCMOCB@?$CF14?414s@
CONST	SEGMENT
??_C@_07KLKCMOCB@?$CF14?414s@ DB '%14.14s', 00H		; `string'
CONST	ENDS
;	COMDAT ??_C@_05CNHFHDPK@24324@
CONST	SEGMENT
??_C@_05CNHFHDPK@24324@ DB '24324', 00H			; `string'
CONST	ENDS
;	COMDAT ??_C@_06BNHDJGCK@?$DP24500@
CONST	SEGMENT
??_C@_06BNHDJGCK@?$DP24500@ DB '?24500', 00H		; `string'
CONST	ENDS
;	COMDAT ??_C@_07BEGHJBJI@?$CF20?420s@
CONST	SEGMENT
??_C@_07BEGHJBJI@?$CF20?420s@ DB '%20.20s', 00H		; `string'
CONST	ENDS
;	COMDAT ??_C@_05KCDFIGFK@22324@
CONST	SEGMENT
??_C@_05KCDFIGFK@22324@ DB '22324', 00H			; `string'
CONST	ENDS
;	COMDAT ??_C@_05BEBPCMHJ@22309@
CONST	SEGMENT
??_C@_05BEBPCMHJ@22309@ DB '22309', 00H			; `string'
CONST	ENDS
;	COMDAT ??_C@_06JCDDGDIK@?$DP22500@
CONST	SEGMENT
??_C@_06JCDDGDIK@?$DP22500@ DB '?22500', 00H		; `string'
CONST	ENDS
;	COMDAT ??_C@_0P@FLGGHACJ@99999999999999@
CONST	SEGMENT
??_C@_0P@FLGGHACJ@99999999999999@ DB '99999999999999', 00H ; `string'
CONST	ENDS
;	COMDAT ??_C@_05JLGGNMKB@21301@
CONST	SEGMENT
??_C@_05JLGGNMKB@21301@ DB '21301', 00H			; `string'
CONST	ENDS
;	COMDAT ??_7CChartItemUpjong@@6B@
CONST	SEGMENT
??_7CChartItemUpjong@@6B@ DD FLAT:??_R4CChartItemUpjong@@6B@ ; CChartItemUpjong::`vftable'
	DD	FLAT:??_ECChartItemUpjong@@UAEPAXI@Z
CONST	ENDS
;	COMDAT ??_7CChartBozoInput@@6B@
CONST	SEGMENT
??_7CChartBozoInput@@6B@ DD FLAT:??_R4CChartBozoInput@@6B@ ; CChartBozoInput::`vftable'
	DD	FLAT:?Copy@CChartBozoInput@@UAEXABV1@@Z
	DD	FLAT:??4CChartBozoInput@@UAEAAV0@ABV0@@Z
CONST	ENDS
;	COMDAT ??_C@_00CNPNBAHC@@
CONST	SEGMENT
??_C@_00CNPNBAHC@@ DB 00H				; `string'
CONST	ENDS
;	COMDAT ??_C@_02DPKJAMEF@?$CFd@
CONST	SEGMENT
??_C@_02DPKJAMEF@?$CFd@ DB '%d', 00H			; `string'
CONST	ENDS
;	COMDAT xdata$x
xdata$x	SEGMENT
__ehfuncinfo$?Convert2Struct@CChartItemUpjong@@QAEPADPAEHHAAH@Z DD 019930522H
	DD	037H
	DD	FLAT:__unwindtable$?Convert2Struct@CChartItemUpjong@@QAEPADPAEHHAAH@Z
	DD	2 DUP(00H)
	DD	2 DUP(00H)
	DD	00H
	DD	01H
__unwindtable$?Convert2Struct@CChartItemUpjong@@QAEPADPAEHHAAH@Z DD 0ffffffffH
	DD	FLAT:__unwindfunclet$?Convert2Struct@CChartItemUpjong@@QAEPADPAEHHAAH@Z$0
	DD	00H
	DD	FLAT:__unwindfunclet$?Convert2Struct@CChartItemUpjong@@QAEPADPAEHHAAH@Z$1
	DD	01H
	DD	FLAT:__unwindfunclet$?Convert2Struct@CChartItemUpjong@@QAEPADPAEHHAAH@Z$2
	DD	02H
	DD	FLAT:__unwindfunclet$?Convert2Struct@CChartItemUpjong@@QAEPADPAEHHAAH@Z$3
	DD	03H
	DD	FLAT:__unwindfunclet$?Convert2Struct@CChartItemUpjong@@QAEPADPAEHHAAH@Z$4
	DD	04H
	DD	FLAT:__unwindfunclet$?Convert2Struct@CChartItemUpjong@@QAEPADPAEHHAAH@Z$5
	DD	05H
	DD	FLAT:__unwindfunclet$?Convert2Struct@CChartItemUpjong@@QAEPADPAEHHAAH@Z$6
	DD	06H
	DD	FLAT:__unwindfunclet$?Convert2Struct@CChartItemUpjong@@QAEPADPAEHHAAH@Z$8
	DD	06H
	DD	FLAT:__unwindfunclet$?Convert2Struct@CChartItemUpjong@@QAEPADPAEHHAAH@Z$10
	DD	06H
	DD	FLAT:__unwindfunclet$?Convert2Struct@CChartItemUpjong@@QAEPADPAEHHAAH@Z$12
	DD	06H
	DD	FLAT:__unwindfunclet$?Convert2Struct@CChartItemUpjong@@QAEPADPAEHHAAH@Z$14
	DD	06H
	DD	FLAT:__unwindfunclet$?Convert2Struct@CChartItemUpjong@@QAEPADPAEHHAAH@Z$16
	DD	06H
	DD	FLAT:__unwindfunclet$?Convert2Struct@CChartItemUpjong@@QAEPADPAEHHAAH@Z$17
	DD	06H
	DD	FLAT:__unwindfunclet$?Convert2Struct@CChartItemUpjong@@QAEPADPAEHHAAH@Z$19
	DD	06H
	DD	FLAT:__unwindfunclet$?Convert2Struct@CChartItemUpjong@@QAEPADPAEHHAAH@Z$21
	DD	06H
	DD	FLAT:__unwindfunclet$?Convert2Struct@CChartItemUpjong@@QAEPADPAEHHAAH@Z$23
	DD	06H
	DD	FLAT:__unwindfunclet$?Convert2Struct@CChartItemUpjong@@QAEPADPAEHHAAH@Z$25
	DD	06H
	DD	FLAT:__unwindfunclet$?Convert2Struct@CChartItemUpjong@@QAEPADPAEHHAAH@Z$27
	DD	06H
	DD	FLAT:__unwindfunclet$?Convert2Struct@CChartItemUpjong@@QAEPADPAEHHAAH@Z$29
	DD	06H
	DD	FLAT:__unwindfunclet$?Convert2Struct@CChartItemUpjong@@QAEPADPAEHHAAH@Z$31
	DD	06H
	DD	FLAT:__unwindfunclet$?Convert2Struct@CChartItemUpjong@@QAEPADPAEHHAAH@Z$33
	DD	06H
	DD	FLAT:__unwindfunclet$?Convert2Struct@CChartItemUpjong@@QAEPADPAEHHAAH@Z$35
	DD	06H
	DD	FLAT:__unwindfunclet$?Convert2Struct@CChartItemUpjong@@QAEPADPAEHHAAH@Z$37
	DD	016H
	DD	FLAT:__unwindfunclet$?Convert2Struct@CChartItemUpjong@@QAEPADPAEHHAAH@Z$39
	DD	017H
	DD	FLAT:__unwindfunclet$?Convert2Struct@CChartItemUpjong@@QAEPADPAEHHAAH@Z$41
	DD	018H
	DD	FLAT:__unwindfunclet$?Convert2Struct@CChartItemUpjong@@QAEPADPAEHHAAH@Z$42
	DD	019H
	DD	FLAT:__unwindfunclet$?Convert2Struct@CChartItemUpjong@@QAEPADPAEHHAAH@Z$43
	DD	01aH
	DD	FLAT:__unwindfunclet$?Convert2Struct@CChartItemUpjong@@QAEPADPAEHHAAH@Z$44
	DD	01bH
	DD	FLAT:__unwindfunclet$?Convert2Struct@CChartItemUpjong@@QAEPADPAEHHAAH@Z$46
	DD	01cH
	DD	FLAT:__unwindfunclet$?Convert2Struct@CChartItemUpjong@@QAEPADPAEHHAAH@Z$47
	DD	01cH
	DD	FLAT:__unwindfunclet$?Convert2Struct@CChartItemUpjong@@QAEPADPAEHHAAH@Z$48
	DD	01cH
	DD	FLAT:__unwindfunclet$?Convert2Struct@CChartItemUpjong@@QAEPADPAEHHAAH@Z$49
	DD	01cH
	DD	FLAT:__unwindfunclet$?Convert2Struct@CChartItemUpjong@@QAEPADPAEHHAAH@Z$50
	DD	020H
	DD	FLAT:__unwindfunclet$?Convert2Struct@CChartItemUpjong@@QAEPADPAEHHAAH@Z$52
	DD	020H
	DD	FLAT:__unwindfunclet$?Convert2Struct@CChartItemUpjong@@QAEPADPAEHHAAH@Z$53
	DD	022H
	DD	FLAT:__unwindfunclet$?Convert2Struct@CChartItemUpjong@@QAEPADPAEHHAAH@Z$54
	DD	023H
	DD	FLAT:__unwindfunclet$?Convert2Struct@CChartItemUpjong@@QAEPADPAEHHAAH@Z$55
	DD	024H
	DD	FLAT:__unwindfunclet$?Convert2Struct@CChartItemUpjong@@QAEPADPAEHHAAH@Z$75
	DD	023H
	DD	FLAT:__unwindfunclet$?Convert2Struct@CChartItemUpjong@@QAEPADPAEHHAAH@Z$57
	DD	026H
	DD	FLAT:__unwindfunclet$?Convert2Struct@CChartItemUpjong@@QAEPADPAEHHAAH@Z$58
	DD	027H
	DD	FLAT:__unwindfunclet$?Convert2Struct@CChartItemUpjong@@QAEPADPAEHHAAH@Z$76
	DD	023H
	DD	FLAT:__unwindfunclet$?Convert2Struct@CChartItemUpjong@@QAEPADPAEHHAAH@Z$60
	DD	023H
	DD	FLAT:__unwindfunclet$?Convert2Struct@CChartItemUpjong@@QAEPADPAEHHAAH@Z$61
	DD	02aH
	DD	FLAT:__unwindfunclet$?Convert2Struct@CChartItemUpjong@@QAEPADPAEHHAAH@Z$62
	DD	02bH
	DD	FLAT:__unwindfunclet$?Convert2Struct@CChartItemUpjong@@QAEPADPAEHHAAH@Z$77
	DD	023H
	DD	FLAT:__unwindfunclet$?Convert2Struct@CChartItemUpjong@@QAEPADPAEHHAAH@Z$64
	DD	023H
	DD	FLAT:__unwindfunclet$?Convert2Struct@CChartItemUpjong@@QAEPADPAEHHAAH@Z$65
	DD	023H
	DD	FLAT:__unwindfunclet$?Convert2Struct@CChartItemUpjong@@QAEPADPAEHHAAH@Z$66
	DD	023H
	DD	FLAT:__unwindfunclet$?Convert2Struct@CChartItemUpjong@@QAEPADPAEHHAAH@Z$67
	DD	030H
	DD	FLAT:__unwindfunclet$?Convert2Struct@CChartItemUpjong@@QAEPADPAEHHAAH@Z$68
	DD	030H
	DD	FLAT:__unwindfunclet$?Convert2Struct@CChartItemUpjong@@QAEPADPAEHHAAH@Z$69
	DD	030H
	DD	FLAT:__unwindfunclet$?Convert2Struct@CChartItemUpjong@@QAEPADPAEHHAAH@Z$70
	DD	030H
	DD	FLAT:__unwindfunclet$?Convert2Struct@CChartItemUpjong@@QAEPADPAEHHAAH@Z$71
	DD	023H
	DD	FLAT:__unwindfunclet$?Convert2Struct@CChartItemUpjong@@QAEPADPAEHHAAH@Z$72
	DD	023H
	DD	FLAT:__unwindfunclet$?Convert2Struct@CChartItemUpjong@@QAEPADPAEHHAAH@Z$73
xdata$x	ENDS
;	COMDAT xdata$x
xdata$x	SEGMENT
__ehfuncinfo$?Convert@CChartItemUpjong@@QAE?AV?$CStringT@DV?$StrTraitMFC_DLL@DV?$ChTraitsCRT@D@ATL@@@@@ATL@@XZ DD 019930522H
	DD	012H
	DD	FLAT:__unwindtable$?Convert@CChartItemUpjong@@QAE?AV?$CStringT@DV?$StrTraitMFC_DLL@DV?$ChTraitsCRT@D@ATL@@@@@ATL@@XZ
	DD	2 DUP(00H)
	DD	2 DUP(00H)
	DD	00H
	DD	01H
__unwindtable$?Convert@CChartItemUpjong@@QAE?AV?$CStringT@DV?$StrTraitMFC_DLL@DV?$ChTraitsCRT@D@ATL@@@@@ATL@@XZ DD 0ffffffffH
	DD	FLAT:__unwindfunclet$?Convert@CChartItemUpjong@@QAE?AV?$CStringT@DV?$StrTraitMFC_DLL@DV?$ChTraitsCRT@D@ATL@@@@@ATL@@XZ$1
	DD	00H
	DD	FLAT:__unwindfunclet$?Convert@CChartItemUpjong@@QAE?AV?$CStringT@DV?$StrTraitMFC_DLL@DV?$ChTraitsCRT@D@ATL@@@@@ATL@@XZ$2
	DD	01H
	DD	FLAT:__unwindfunclet$?Convert@CChartItemUpjong@@QAE?AV?$CStringT@DV?$StrTraitMFC_DLL@DV?$ChTraitsCRT@D@ATL@@@@@ATL@@XZ$3
	DD	02H
	DD	FLAT:__unwindfunclet$?Convert@CChartItemUpjong@@QAE?AV?$CStringT@DV?$StrTraitMFC_DLL@DV?$ChTraitsCRT@D@ATL@@@@@ATL@@XZ$4
	DD	03H
	DD	FLAT:__unwindfunclet$?Convert@CChartItemUpjong@@QAE?AV?$CStringT@DV?$StrTraitMFC_DLL@DV?$ChTraitsCRT@D@ATL@@@@@ATL@@XZ$5
	DD	04H
	DD	FLAT:__unwindfunclet$?Convert@CChartItemUpjong@@QAE?AV?$CStringT@DV?$StrTraitMFC_DLL@DV?$ChTraitsCRT@D@ATL@@@@@ATL@@XZ$6
	DD	04H
	DD	FLAT:__unwindfunclet$?Convert@CChartItemUpjong@@QAE?AV?$CStringT@DV?$StrTraitMFC_DLL@DV?$ChTraitsCRT@D@ATL@@@@@ATL@@XZ$7
	DD	04H
	DD	FLAT:__unwindfunclet$?Convert@CChartItemUpjong@@QAE?AV?$CStringT@DV?$StrTraitMFC_DLL@DV?$ChTraitsCRT@D@ATL@@@@@ATL@@XZ$8
	DD	04H
	DD	FLAT:__unwindfunclet$?Convert@CChartItemUpjong@@QAE?AV?$CStringT@DV?$StrTraitMFC_DLL@DV?$ChTraitsCRT@D@ATL@@@@@ATL@@XZ$9
	DD	04H
	DD	FLAT:__unwindfunclet$?Convert@CChartItemUpjong@@QAE?AV?$CStringT@DV?$StrTraitMFC_DLL@DV?$ChTraitsCRT@D@ATL@@@@@ATL@@XZ$10
	DD	04H
	DD	FLAT:__unwindfunclet$?Convert@CChartItemUpjong@@QAE?AV?$CStringT@DV?$StrTraitMFC_DLL@DV?$ChTraitsCRT@D@ATL@@@@@ATL@@XZ$11
	DD	04H
	DD	FLAT:__unwindfunclet$?Convert@CChartItemUpjong@@QAE?AV?$CStringT@DV?$StrTraitMFC_DLL@DV?$ChTraitsCRT@D@ATL@@@@@ATL@@XZ$12
	DD	0bH
	DD	FLAT:__unwindfunclet$?Convert@CChartItemUpjong@@QAE?AV?$CStringT@DV?$StrTraitMFC_DLL@DV?$ChTraitsCRT@D@ATL@@@@@ATL@@XZ$13
	DD	0cH
	DD	FLAT:__unwindfunclet$?Convert@CChartItemUpjong@@QAE?AV?$CStringT@DV?$StrTraitMFC_DLL@DV?$ChTraitsCRT@D@ATL@@@@@ATL@@XZ$14
	DD	0dH
	DD	FLAT:__unwindfunclet$?Convert@CChartItemUpjong@@QAE?AV?$CStringT@DV?$StrTraitMFC_DLL@DV?$ChTraitsCRT@D@ATL@@@@@ATL@@XZ$15
	DD	0eH
	DD	FLAT:__unwindfunclet$?Convert@CChartItemUpjong@@QAE?AV?$CStringT@DV?$StrTraitMFC_DLL@DV?$ChTraitsCRT@D@ATL@@@@@ATL@@XZ$16
	DD	0eH
	DD	FLAT:__unwindfunclet$?Convert@CChartItemUpjong@@QAE?AV?$CStringT@DV?$StrTraitMFC_DLL@DV?$ChTraitsCRT@D@ATL@@@@@ATL@@XZ$17
	DD	0eH
	DD	FLAT:__unwindfunclet$?Convert@CChartItemUpjong@@QAE?AV?$CStringT@DV?$StrTraitMFC_DLL@DV?$ChTraitsCRT@D@ATL@@@@@ATL@@XZ$18
xdata$x	ENDS
;	COMDAT xdata$x
xdata$x	SEGMENT
__unwindtable$??HATL@@YA?AV?$CStringT@DV?$StrTraitMFC_DLL@DV?$ChTraitsCRT@D@ATL@@@@@0@ABV10@0@Z DD 0ffffffffH
	DD	FLAT:__unwindfunclet$??HATL@@YA?AV?$CStringT@DV?$StrTraitMFC_DLL@DV?$ChTraitsCRT@D@ATL@@@@@0@ABV10@0@Z$0
__ehfuncinfo$??HATL@@YA?AV?$CStringT@DV?$StrTraitMFC_DLL@DV?$ChTraitsCRT@D@ATL@@@@@0@ABV10@0@Z DD 019930522H
	DD	01H
	DD	FLAT:__unwindtable$??HATL@@YA?AV?$CStringT@DV?$StrTraitMFC_DLL@DV?$ChTraitsCRT@D@ATL@@@@@0@ABV10@0@Z
	DD	2 DUP(00H)
	DD	2 DUP(00H)
	DD	00H
	DD	01H
xdata$x	ENDS
CRT$XCU	SEGMENT
?RMSG_GETPCTRDATA$initializer$@@3P6AXXZA DD FLAT:??__ERMSG_GETPCTRDATA@@YAXXZ ; RMSG_GETPCTRDATA$initializer$
CRT$XCU	ENDS
CRT$XCU	SEGMENT
?RMSG_SETPCTRDATA$initializer$@@3P6AXXZA DD FLAT:??__ERMSG_SETPCTRDATA@@YAXXZ ; RMSG_SETPCTRDATA$initializer$
CRT$XCU	ENDS
CRT$XCU	SEGMENT
?RMSG_GETSIGNAL_REAL$initializer$@@3P6AXXZA DD FLAT:??__ERMSG_GETSIGNAL_REAL@@YAXXZ ; RMSG_GETSIGNAL_REAL$initializer$
CRT$XCU	ENDS
; Function compile flags: /Ogtp
; File D:\git\src\IBK\IBK_DRFN\ProjSrc\SrcDrfn\DrCommon\PartnerMng\ChartItemUpjong.cpp
;	COMDAT ??_GCChartItemUpjong@@UAEPAXI@Z
_TEXT	SEGMENT
___flags$ = 8						; size = 4
??_GCChartItemUpjong@@UAEPAXI@Z PROC			; CChartItemUpjong::`scalar deleting destructor', COMDAT
; _this$ = ecx
  00000	55		 push	 ebp
  00001	8b ec		 mov	 ebp, esp

; 29   : {

  00003	56		 push	 esi
  00004	8b f1		 mov	 esi, ecx

; 30   : 
; 31   : }

  00006	8d 4e 38	 lea	 ecx, DWORD PTR [esi+56]
  00009	c7 06 00 00 00
	00		 mov	 DWORD PTR [esi], OFFSET ??_7CChartItemUpjong@@6B@
  0000f	e8 00 00 00 00	 call	 ??1CChartBozoInput@@QAE@XZ
  00014	f6 45 08 01	 test	 BYTE PTR ___flags$[ebp], 1
  00018	74 0e		 je	 SHORT $LN7@scalar
  0001a	68 04 01 00 00	 push	 260			; 00000104H
  0001f	56		 push	 esi
  00020	e8 00 00 00 00	 call	 ??3@YAXPAXI@Z		; operator delete
  00025	83 c4 08	 add	 esp, 8
$LN7@scalar:
  00028	8b c6		 mov	 eax, esi
  0002a	5e		 pop	 esi
  0002b	5d		 pop	 ebp
  0002c	c2 04 00	 ret	 4
??_GCChartItemUpjong@@UAEPAXI@Z ENDP			; CChartItemUpjong::`scalar deleting destructor'
_TEXT	ENDS
; Function compile flags: /Ogtp
; File D:\git\src\IBK\IBK_DRFN\ProjSrc\SrcDrfn\DrCommon\PartnerMng\ChartItemUpjong.cpp
; File C:\Program Files (x86)\Microsoft Visual Studio\2019\Community\VC\Tools\MSVC\14.29.30133\atlmfc\include\atlsimpstr.h
; File D:\git\src\IBK\IBK_DRFN\ProjSrc\SrcDrfn\DrCommon\PartnerMng\ChartItemUpjong.cpp
; File C:\Program Files (x86)\Microsoft Visual Studio\2019\Community\VC\Tools\MSVC\14.29.30133\atlmfc\include\atlsimpstr.h
; File D:\git\src\IBK\IBK_DRFN\ProjSrc\SrcDrfn\DrCommon\PartnerMng\ChartItemUpjong.cpp
; File C:\Program Files (x86)\Microsoft Visual Studio\2019\Community\VC\Tools\MSVC\14.29.30133\atlmfc\include\atlsimpstr.h
; File D:\git\src\IBK\IBK_DRFN\ProjSrc\SrcDrfn\DrCommon\PartnerMng\ChartItemUpjong.cpp
; File C:\Program Files (x86)\Microsoft Visual Studio\2019\Community\VC\Tools\MSVC\14.29.30133\atlmfc\include\atlsimpstr.h
; File D:\git\src\IBK\IBK_DRFN\ProjSrc\SrcDrfn\DrCommon\PartnerMng\ChartItemUpjong.cpp
; File C:\Program Files (x86)\Microsoft Visual Studio\2019\Community\VC\Tools\MSVC\14.29.30133\atlmfc\include\atlsimpstr.h
; File D:\git\src\IBK\IBK_DRFN\ProjSrc\SrcDrfn\DrCommon\PartnerMng\ChartItemUpjong.cpp
; File C:\Program Files (x86)\Microsoft Visual Studio\2019\Community\VC\Tools\MSVC\14.29.30133\atlmfc\include\atlsimpstr.h
; File D:\git\src\IBK\IBK_DRFN\ProjSrc\SrcDrfn\DrCommon\PartnerMng\ChartItemUpjong.cpp
; File C:\Program Files (x86)\Microsoft Visual Studio\2019\Community\VC\Tools\MSVC\14.29.30133\atlmfc\include\atlsimpstr.h
; File D:\git\src\IBK\IBK_DRFN\ProjSrc\SrcDrfn\DrCommon\PartnerMng\ChartItemUpjong.cpp
; File C:\Program Files (x86)\Microsoft Visual Studio\2019\Community\VC\Tools\MSVC\14.29.30133\atlmfc\include\atlsimpstr.h
; File D:\git\src\IBK\IBK_DRFN\ProjSrc\SrcDrfn\DrCommon\PartnerMng\ChartItemUpjong.cpp
; File C:\Program Files (x86)\Microsoft Visual Studio\2019\Community\VC\Tools\MSVC\14.29.30133\atlmfc\include\atlsimpstr.h
; File D:\git\src\IBK\IBK_DRFN\ProjSrc\SrcDrfn\DrCommon\PartnerMng\ChartItemUpjong.cpp
; File C:\Program Files (x86)\Microsoft Visual Studio\2019\Community\VC\Tools\MSVC\14.29.30133\atlmfc\include\atlsimpstr.h
; File D:\git\src\IBK\IBK_DRFN\ProjSrc\SrcDrfn\DrCommon\PartnerMng\ChartItemUpjong.cpp
; File C:\Program Files (x86)\Microsoft Visual Studio\2019\Community\VC\Tools\MSVC\14.29.30133\atlmfc\include\atlsimpstr.h
; File D:\git\src\IBK\IBK_DRFN\ProjSrc\SrcDrfn\DrCommon\PartnerMng\ChartItemUpjong.cpp
; File C:\Program Files (x86)\Microsoft Visual Studio\2019\Community\VC\Tools\MSVC\14.29.30133\atlmfc\include\atlsimpstr.h
; File D:\git\src\IBK\IBK_DRFN\ProjSrc\SrcDrfn\DrCommon\PartnerMng\ChartItemUpjong.cpp
; File C:\Program Files (x86)\Microsoft Visual Studio\2019\Community\VC\Tools\MSVC\14.29.30133\atlmfc\include\cstringt.h
; File D:\git\src\IBK\IBK_DRFN\ProjSrc\SrcDrfn\DrCommon\PartnerMng\ChartItemUpjong.cpp
; File C:\Program Files (x86)\Microsoft Visual Studio\2019\Community\VC\Tools\MSVC\14.29.30133\atlmfc\include\atlsimpstr.h
; File D:\git\src\IBK\IBK_DRFN\ProjSrc\SrcDrfn\DrCommon\PartnerMng\ChartItemUpjong.cpp
; File C:\Program Files (x86)\Microsoft Visual Studio\2019\Community\VC\Tools\MSVC\14.29.30133\atlmfc\include\atlsimpstr.h
; File D:\git\src\IBK\IBK_DRFN\ProjSrc\SrcDrfn\DrCommon\PartnerMng\ChartItemUpjong.cpp
; File C:\Program Files (x86)\Microsoft Visual Studio\2019\Community\VC\Tools\MSVC\14.29.30133\atlmfc\include\atlsimpstr.h
; File D:\git\src\IBK\IBK_DRFN\ProjSrc\SrcDrfn\DrCommon\PartnerMng\ChartItemUpjong.cpp
; File C:\Program Files (x86)\Microsoft Visual Studio\2019\Community\VC\Tools\MSVC\14.29.30133\atlmfc\include\atlsimpstr.h
; File D:\git\src\IBK\IBK_DRFN\ProjSrc\SrcDrfn\DrCommon\PartnerMng\ChartItemUpjong.cpp
; File C:\Program Files (x86)\Microsoft Visual Studio\2019\Community\VC\Tools\MSVC\14.29.30133\atlmfc\include\afxcoll.inl
; File C:\Program Files (x86)\Microsoft Visual Studio\2019\Community\VC\Tools\MSVC\14.29.30133\atlmfc\include\atlsimpstr.h
; File D:\git\src\IBK\IBK_DRFN\ProjSrc\SrcDrfn\DrCommon\PartnerMng\ChartItemUpjong.cpp
; File C:\Program Files (x86)\Microsoft Visual Studio\2019\Community\VC\Tools\MSVC\14.29.30133\atlmfc\include\afxcoll.inl
; File D:\git\src\IBK\IBK_DRFN\ProjSrc\SrcDrfn\DrCommon\PartnerMng\ChartItemUpjong.cpp
; File C:\Program Files (x86)\Microsoft Visual Studio\2019\Community\VC\Tools\MSVC\14.29.30133\atlmfc\include\afxcoll.inl
; File D:\git\src\IBK\IBK_DRFN\ProjSrc\SrcDrfn\DrCommon\PartnerMng\ChartItemUpjong.cpp
; File C:\Program Files (x86)\Microsoft Visual Studio\2019\Community\VC\Tools\MSVC\14.29.30133\atlmfc\include\afxcoll.inl
; File D:\git\src\IBK\IBK_DRFN\ProjSrc\SrcDrfn\DrCommon\PartnerMng\ChartItemUpjong.cpp
; File C:\Program Files (x86)\Microsoft Visual Studio\2019\Community\VC\Tools\MSVC\14.29.30133\atlmfc\include\afxcoll.inl
; File D:\git\src\IBK\IBK_DRFN\ProjSrc\SrcDrfn\DrCommon\PartnerMng\ChartItemUpjong.cpp
; File C:\Program Files (x86)\Microsoft Visual Studio\2019\Community\VC\Tools\MSVC\14.29.30133\atlmfc\include\cstringt.h
; File D:\git\src\IBK\IBK_DRFN\ProjSrc\SrcDrfn\DrCommon\PartnerMng\ChartItemUpjong.cpp
; File C:\Program Files (x86)\Microsoft Visual Studio\2019\Community\VC\Tools\MSVC\14.29.30133\atlmfc\include\cstringt.h
; File C:\Program Files (x86)\Microsoft Visual Studio\2019\Community\VC\Tools\MSVC\14.29.30133\atlmfc\include\atlsimpstr.h
; File C:\Program Files (x86)\Microsoft Visual Studio\2019\Community\VC\Tools\MSVC\14.29.30133\atlmfc\include\cstringt.h
; File C:\Program Files (x86)\Microsoft Visual Studio\2019\Community\VC\Tools\MSVC\14.29.30133\atlmfc\include\atlsimpstr.h
; File C:\Program Files (x86)\Microsoft Visual Studio\2019\Community\VC\Tools\MSVC\14.29.30133\atlmfc\include\cstringt.h
; File D:\git\src\IBK\IBK_DRFN\ProjSrc\SrcDrfn\DrCommon\PartnerMng\ChartItemUpjong.cpp
; File C:\Program Files (x86)\Microsoft Visual Studio\2019\Community\VC\Tools\MSVC\14.29.30133\atlmfc\include\cstringt.h
; File D:\git\src\IBK\IBK_DRFN\ProjSrc\SrcDrfn\DrCommon\PartnerMng\ChartItemUpjong.cpp
; File C:\Program Files (x86)\Microsoft Visual Studio\2019\Community\VC\Tools\MSVC\14.29.30133\atlmfc\include\cstringt.h
; File C:\Program Files (x86)\Microsoft Visual Studio\2019\Community\VC\Tools\MSVC\14.29.30133\atlmfc\include\atlsimpstr.h
; File C:\Program Files (x86)\Microsoft Visual Studio\2019\Community\VC\Tools\MSVC\14.29.30133\atlmfc\include\cstringt.h
; File C:\Program Files (x86)\Microsoft Visual Studio\2019\Community\VC\Tools\MSVC\14.29.30133\atlmfc\include\atlsimpstr.h
; File C:\Program Files (x86)\Microsoft Visual Studio\2019\Community\VC\Tools\MSVC\14.29.30133\atlmfc\include\cstringt.h
; File D:\git\src\IBK\IBK_DRFN\ProjSrc\SrcDrfn\DrCommon\PartnerMng\ChartItemUpjong.cpp
; File C:\Program Files (x86)\Microsoft Visual Studio\2019\Community\VC\Tools\MSVC\14.29.30133\atlmfc\include\cstringt.h
; File D:\git\src\IBK\IBK_DRFN\ProjSrc\SrcDrfn\DrCommon\PartnerMng\ChartItemUpjong.cpp
; File C:\Program Files (x86)\Microsoft Visual Studio\2019\Community\VC\Tools\MSVC\14.29.30133\atlmfc\include\cstringt.h
; File C:\Program Files (x86)\Microsoft Visual Studio\2019\Community\VC\Tools\MSVC\14.29.30133\atlmfc\include\atlsimpstr.h
; File C:\Program Files (x86)\Microsoft Visual Studio\2019\Community\VC\Tools\MSVC\14.29.30133\atlmfc\include\cstringt.h
; File C:\Program Files (x86)\Microsoft Visual Studio\2019\Community\VC\Tools\MSVC\14.29.30133\atlmfc\include\atlsimpstr.h
; File C:\Program Files (x86)\Microsoft Visual Studio\2019\Community\VC\Tools\MSVC\14.29.30133\atlmfc\include\cstringt.h
; File D:\git\src\IBK\IBK_DRFN\ProjSrc\SrcDrfn\DrCommon\PartnerMng\ChartItemUpjong.cpp
; File C:\Program Files (x86)\Microsoft Visual Studio\2019\Community\VC\Tools\MSVC\14.29.30133\atlmfc\include\atlsimpstr.h
; File D:\git\src\IBK\IBK_DRFN\ProjSrc\SrcDrfn\DrCommon\PartnerMng\ChartItemUpjong.cpp
; File C:\Program Files (x86)\Microsoft Visual Studio\2019\Community\VC\Tools\MSVC\14.29.30133\atlmfc\include\atlsimpstr.h
; File D:\git\src\IBK\IBK_DRFN\ProjSrc\SrcDrfn\DrCommon\PartnerMng\ChartItemUpjong.cpp
; File C:\Program Files (x86)\Microsoft Visual Studio\2019\Community\VC\Tools\MSVC\14.29.30133\atlmfc\include\afxcoll.inl
; File D:\git\src\IBK\IBK_DRFN\ProjSrc\SrcDrfn\DrCommon\PartnerMng\ChartItemUpjong.cpp
; File C:\Program Files (x86)\Microsoft Visual Studio\2019\Community\VC\Tools\MSVC\14.29.30133\atlmfc\include\afxcoll.inl
; File D:\git\src\IBK\IBK_DRFN\ProjSrc\SrcDrfn\DrCommon\PartnerMng\ChartItemUpjong.cpp
; File C:\Program Files (x86)\Microsoft Visual Studio\2019\Community\VC\Tools\MSVC\14.29.30133\atlmfc\include\atlsimpstr.h
; File D:\git\src\IBK\IBK_DRFN\ProjSrc\SrcDrfn\DrCommon\PartnerMng\ChartItemUpjong.cpp
; File C:\Program Files (x86)\Microsoft Visual Studio\2019\Community\VC\Tools\MSVC\14.29.30133\atlmfc\include\atlsimpstr.h
; File D:\git\src\IBK\IBK_DRFN\ProjSrc\SrcDrfn\DrCommon\PartnerMng\ChartItemUpjong.cpp
; File C:\Program Files (x86)\Microsoft Visual Studio\2019\Community\VC\Tools\MSVC\14.29.30133\atlmfc\include\afxcoll.inl
; File D:\git\src\IBK\IBK_DRFN\ProjSrc\SrcDrfn\DrCommon\PartnerMng\ChartItemUpjong.cpp
; File C:\Program Files (x86)\Microsoft Visual Studio\2019\Community\VC\Tools\MSVC\14.29.30133\atlmfc\include\afxcoll.inl
; File D:\git\src\IBK\IBK_DRFN\ProjSrc\SrcDrfn\DrCommon\PartnerMng\ChartItemUpjong.cpp
; File C:\Program Files (x86)\Microsoft Visual Studio\2019\Community\VC\Tools\MSVC\14.29.30133\atlmfc\include\atlsimpstr.h
; File D:\git\src\IBK\IBK_DRFN\ProjSrc\SrcDrfn\DrCommon\PartnerMng\ChartItemUpjong.cpp
; File C:\Program Files (x86)\Microsoft Visual Studio\2019\Community\VC\Tools\MSVC\14.29.30133\atlmfc\include\afxcoll.inl
; File D:\git\src\IBK\IBK_DRFN\ProjSrc\SrcDrfn\DrCommon\PartnerMng\ChartItemUpjong.cpp
; File C:\Program Files (x86)\Microsoft Visual Studio\2019\Community\VC\Tools\MSVC\14.29.30133\atlmfc\include\afxcoll.inl
; File D:\git\src\IBK\IBK_DRFN\ProjSrc\SrcDrfn\DrCommon\PartnerMng\ChartItemUpjong.cpp
; File C:\Program Files (x86)\Microsoft Visual Studio\2019\Community\VC\Tools\MSVC\14.29.30133\atlmfc\include\atlsimpstr.h
; File D:\git\src\IBK\IBK_DRFN\ProjSrc\SrcDrfn\DrCommon\PartnerMng\ChartItemUpjong.cpp
; File C:\Program Files (x86)\Microsoft Visual Studio\2019\Community\VC\Tools\MSVC\14.29.30133\atlmfc\include\afxcoll.inl
; File D:\git\src\IBK\IBK_DRFN\ProjSrc\SrcDrfn\DrCommon\PartnerMng\ChartItemUpjong.cpp
; File C:\Program Files (x86)\Microsoft Visual Studio\2019\Community\VC\Tools\MSVC\14.29.30133\atlmfc\include\afxcoll.inl
; File D:\git\src\IBK\IBK_DRFN\ProjSrc\SrcDrfn\DrCommon\PartnerMng\ChartItemUpjong.cpp
; File C:\Program Files (x86)\Microsoft Visual Studio\2019\Community\VC\Tools\MSVC\14.29.30133\atlmfc\include\atlsimpstr.h
; File D:\git\src\IBK\IBK_DRFN\ProjSrc\SrcDrfn\DrCommon\PartnerMng\ChartItemUpjong.cpp
; File C:\Program Files (x86)\Microsoft Visual Studio\2019\Community\VC\Tools\MSVC\14.29.30133\atlmfc\include\afxcoll.inl
; File D:\git\src\IBK\IBK_DRFN\ProjSrc\SrcDrfn\DrCommon\PartnerMng\ChartItemUpjong.cpp
; File C:\Program Files (x86)\Microsoft Visual Studio\2019\Community\VC\Tools\MSVC\14.29.30133\atlmfc\include\afxcoll.inl
; File D:\git\src\IBK\IBK_DRFN\ProjSrc\SrcDrfn\DrCommon\PartnerMng\ChartItemUpjong.cpp
; File C:\Program Files (x86)\Microsoft Visual Studio\2019\Community\VC\Tools\MSVC\14.29.30133\atlmfc\include\atlsimpstr.h
; File D:\git\src\IBK\IBK_DRFN\ProjSrc\SrcDrfn\DrCommon\PartnerMng\ChartItemUpjong.cpp
; File C:\Program Files (x86)\Microsoft Visual Studio\2019\Community\VC\Tools\MSVC\14.29.30133\atlmfc\include\afxcoll.inl
; File D:\git\src\IBK\IBK_DRFN\ProjSrc\SrcDrfn\DrCommon\PartnerMng\ChartItemUpjong.cpp
; File C:\Program Files (x86)\Microsoft Visual Studio\2019\Community\VC\Tools\MSVC\14.29.30133\atlmfc\include\afxcoll.inl
; File D:\git\src\IBK\IBK_DRFN\ProjSrc\SrcDrfn\DrCommon\PartnerMng\ChartItemUpjong.cpp
; File C:\Program Files (x86)\Microsoft Visual Studio\2019\Community\VC\Tools\MSVC\14.29.30133\atlmfc\include\atlsimpstr.h
; File D:\git\src\IBK\IBK_DRFN\ProjSrc\SrcDrfn\DrCommon\PartnerMng\ChartItemUpjong.cpp
; File C:\Program Files (x86)\Microsoft Visual Studio\2019\Community\VC\Tools\MSVC\14.29.30133\atlmfc\include\atlsimpstr.h
; File D:\git\src\IBK\IBK_DRFN\ProjSrc\SrcDrfn\DrCommon\PartnerMng\ChartItemUpjong.cpp
; File C:\Program Files (x86)\Microsoft Visual Studio\2019\Community\VC\Tools\MSVC\14.29.30133\atlmfc\include\atlsimpstr.h
; File D:\git\src\IBK\IBK_DRFN\ProjSrc\SrcDrfn\DrCommon\PartnerMng\ChartItemUpjong.cpp
; File C:\Program Files (x86)\Microsoft Visual Studio\2019\Community\VC\Tools\MSVC\14.29.30133\atlmfc\include\atlsimpstr.h
; File D:\git\src\IBK\IBK_DRFN\ProjSrc\SrcDrfn\DrCommon\PartnerMng\ChartItemUpjong.cpp
; File C:\Program Files (x86)\Microsoft Visual Studio\2019\Community\VC\Tools\MSVC\14.29.30133\atlmfc\include\atlsimpstr.h
; File D:\git\src\IBK\IBK_DRFN\ProjSrc\SrcDrfn\DrCommon\PartnerMng\ChartItemUpjong.cpp
; File C:\Program Files (x86)\Microsoft Visual Studio\2019\Community\VC\Tools\MSVC\14.29.30133\atlmfc\include\atlsimpstr.h
; File D:\git\src\IBK\IBK_DRFN\ProjSrc\SrcDrfn\DrCommon\PartnerMng\ChartItemUpjong.cpp
; File C:\Program Files (x86)\Microsoft Visual Studio\2019\Community\VC\Tools\MSVC\14.29.30133\atlmfc\include\afxcoll.inl
; File D:\git\src\IBK\IBK_DRFN\ProjSrc\SrcDrfn\DrCommon\PartnerMng\ChartItemUpjong.cpp
;	COMDAT ?Convert2Struct@CChartItemUpjong@@QAEPADPAEHHAAH@Z
_TEXT	SEGMENT
_dPreHigh$1$ = -1012					; size = 8
_dPreOpen$1$ = -1004					; size = 8
_dLow$1$ = -996						; size = 8
_dHigh$1$ = -988					; size = 8
_dPreLow$1$ = -980					; size = 8
_dDenom$2 = -980					; size = 8
$T3 = -972						; size = 4
$T4 = -968						; size = 4
$T5 = -964						; size = 4
_strLock$ = -960					; size = 4
_dPrePrice$1$ = -956					; size = 8
_strBozo$ = -948					; size = 4
_bojoMng$ = -944					; size = 4
_strBaseTime$ = -940					; size = 4
_szKey$ = -936						; size = 4
_dOpen$1$ = -932					; size = 8
tv3036 = -932						; size = 8
tv2975 = -932						; size = 8
_strCode$ = -924					; size = 4
_strPreVolume$ = -920					; size = 4
_strJangEnd$ = -916					; size = 4
_strResetTime$ = -912					; size = 4
_strMarketTime$ = -908					; size = 4
$T6 = -904						; size = 4
$T7 = -900						; size = 4
$T8 = -896						; size = 4
$T9 = -896						; size = 4
$T10 = -892						; size = 4
$T11 = -892						; size = 4
$T12 = -888						; size = 4
tv2636 = -884						; size = 4
$T13 = -884						; size = 4
_arrNode$ = -880					; size = 20
_pDataBuf$1$ = -860					; size = 4
_strVolume$ = -856					; size = 4
_strNextKey$ = -852					; size = 4
_nType$1$ = -848					; size = 4
$T14 = -844						; size = 4
$T15 = -844						; size = 4
$T16 = -844						; size = 4
_dDenom$1$ = -840					; size = 8
tv2605 = -836						; size = 4
_nDataLen$GSCopy$1$ = -832				; size = 4
$T17 = -832						; size = 4
_strRealState$ = -828					; size = 4
_strTime$ = -824					; size = 4
_this$GSCopy$1$ = -820					; size = 4
_nCnt$1$ = -816						; size = 4
_strJangStart$ = -812					; size = 4
_strPrice$ = -808					; size = 4
_strDate$ = -804					; size = 4
_nRow$2$ = -800						; size = 4
_nPrice$1$ = -800					; size = 4
$T18 = -800						; size = 4
$T19 = -800						; size = 4
$T20 = -800						; size = 4
$T21 = -796						; size = 4
tv2965 = -792						; size = 8
tv2955 = -792						; size = 8
tv2945 = -792						; size = 8
tv2935 = -792						; size = 8
tv2925 = -792						; size = 8
$T22 = -788						; size = 4
$T23 = -788						; size = 4
$T24 = -788						; size = 4
$T25 = -788						; size = 4
_nIndex$1$ = -784					; size = 4
_strData$26 = -784					; size = 4
_strSrc$ = -780						; size = 4
_nRow$1$ = -776						; size = 4
_nSize$1$ = -776					; size = 4
_bSetReal$1$ = -776					; size = 4
tv2569 = -776						; size = 4
$T27 = -776						; size = 4
$T28 = -776						; size = 4
$T29 = -776						; size = 4
$T30 = -776						; size = 4
$T31 = -776						; size = 4
$T32 = -776						; size = 4
$T33 = -776						; size = 4
$T34 = -776						; size = 4
$T35 = -776						; size = 4
$T36 = -776						; size = 4
$T37 = -776						; size = 4
$T38 = -776						; size = 4
$T39 = -776						; size = 4
$T40 = -776						; size = 4
$T41 = -776						; size = 4
$T42 = -776						; size = 4
_strNode$ = -772					; size = 4
_stOut$ = -768						; size = 510
_stFirstBong$ = -256					; size = 77
_stBong$43 = -176					; size = 78
_stBong$ = -96						; size = 77
__$ArrayPad$ = -16					; size = 4
__$EHRec$ = -12						; size = 12
_pData$ = 8						; size = 4
_nLen$ = 12						; size = 4
_nKey$ = 16						; size = 4
_nDataLen$ = 20						; size = 4
?Convert2Struct@CChartItemUpjong@@QAEPADPAEHHAAH@Z PROC	; CChartItemUpjong::Convert2Struct, COMDAT
; _this$ = ecx

; 267  : {

  00000	55		 push	 ebp
  00001	8b ec		 mov	 ebp, esp
  00003	6a ff		 push	 -1
  00005	68 00 00 00 00	 push	 __ehhandler$?Convert2Struct@CChartItemUpjong@@QAEPADPAEHHAAH@Z
  0000a	64 a1 00 00 00
	00		 mov	 eax, DWORD PTR fs:0
  00010	50		 push	 eax
  00011	81 ec e8 03 00
	00		 sub	 esp, 1000		; 000003e8H
  00017	a1 00 00 00 00	 mov	 eax, DWORD PTR ___security_cookie
  0001c	33 c5		 xor	 eax, ebp
  0001e	89 45 f0	 mov	 DWORD PTR __$ArrayPad$[ebp], eax
  00021	56		 push	 esi
  00022	57		 push	 edi
  00023	50		 push	 eax
  00024	8d 45 f4	 lea	 eax, DWORD PTR __$EHRec$[ebp]
  00027	64 a3 00 00 00
	00		 mov	 DWORD PTR fs:0, eax
  0002d	89 8d cc fc ff
	ff		 mov	 DWORD PTR _this$GSCopy$1$[ebp], ecx
  00033	8b 45 14	 mov	 eax, DWORD PTR _nDataLen$[ebp]

; 268  : 	KB_p0603_OutRec1_EX stOut;
; 269  : 	CString strSrc;

  00036	8d 8d f4 fc ff
	ff		 lea	 ecx, DWORD PTR _strSrc$[ebp]
  0003c	8b 75 08	 mov	 esi, DWORD PTR _pData$[ebp]
  0003f	33 ff		 xor	 edi, edi
  00041	89 85 c0 fc ff
	ff		 mov	 DWORD PTR _nDataLen$GSCopy$1$[ebp], eax
  00047	89 bd e4 fc ff
	ff		 mov	 DWORD PTR $T21[ebp], edi
  0004d	89 bd 78 fc ff
	ff		 mov	 DWORD PTR $T6[ebp], edi
  00053	ff 15 00 00 00
	00		 call	 DWORD PTR __imp_??0?$CStringT@DV?$StrTraitMFC_DLL@DV?$ChTraitsCRT@D@ATL@@@@@ATL@@QAE@XZ

; 270  : 	strSrc.Format(_T("%.*s"), nLen, (char*)pData);

  00059	56		 push	 esi
  0005a	ff 75 0c	 push	 DWORD PTR _nLen$[ebp]
  0005d	8b 35 00 00 00
	00		 mov	 esi, DWORD PTR __imp_?Format@?$CStringT@DV?$StrTraitMFC_DLL@DV?$ChTraitsCRT@D@ATL@@@@@ATL@@QAAXPBDZZ
  00063	8d 85 f4 fc ff
	ff		 lea	 eax, DWORD PTR _strSrc$[ebp]
  00069	68 00 00 00 00	 push	 OFFSET ??_C@_04EBNJJJJI@?$CF?4?$CKs@
  0006e	50		 push	 eax
  0006f	89 7d fc	 mov	 DWORD PTR __$EHRec$[ebp+8], edi
  00072	ff d6		 call	 esi
  00074	83 c4 10	 add	 esp, 16			; 00000010H

; 271  : 	CString strNode, strCode, strLock;

  00077	8d 8d fc fc ff
	ff		 lea	 ecx, DWORD PTR _strNode$[ebp]
  0007d	ff 15 00 00 00
	00		 call	 DWORD PTR __imp_??0?$CStringT@DV?$StrTraitMFC_DLL@DV?$ChTraitsCRT@D@ATL@@@@@ATL@@QAE@XZ
  00083	8d 8d 64 fc ff
	ff		 lea	 ecx, DWORD PTR _strCode$[ebp]
  00089	ff 15 00 00 00
	00		 call	 DWORD PTR __imp_??0?$CStringT@DV?$StrTraitMFC_DLL@DV?$ChTraitsCRT@D@ATL@@@@@ATL@@QAE@XZ
  0008f	8d 8d 40 fc ff
	ff		 lea	 ecx, DWORD PTR _strLock$[ebp]
  00095	ff 15 00 00 00
	00		 call	 DWORD PTR __imp_??0?$CStringT@DV?$StrTraitMFC_DLL@DV?$ChTraitsCRT@D@ATL@@@@@ATL@@QAE@XZ

; 272  : 	CString strPrice, strVolume, strPreVolume;

  0009b	8d 8d d8 fc ff
	ff		 lea	 ecx, DWORD PTR _strPrice$[ebp]
  000a1	ff 15 00 00 00
	00		 call	 DWORD PTR __imp_??0?$CStringT@DV?$StrTraitMFC_DLL@DV?$ChTraitsCRT@D@ATL@@@@@ATL@@QAE@XZ
  000a7	8d 8d a8 fc ff
	ff		 lea	 ecx, DWORD PTR _strVolume$[ebp]
  000ad	ff 15 00 00 00
	00		 call	 DWORD PTR __imp_??0?$CStringT@DV?$StrTraitMFC_DLL@DV?$ChTraitsCRT@D@ATL@@@@@ATL@@QAE@XZ
  000b3	8d 8d 68 fc ff
	ff		 lea	 ecx, DWORD PTR _strPreVolume$[ebp]
  000b9	ff 15 00 00 00
	00		 call	 DWORD PTR __imp_??0?$CStringT@DV?$StrTraitMFC_DLL@DV?$ChTraitsCRT@D@ATL@@@@@ATL@@QAE@XZ

; 273  : 
; 274  : 	double dOpen, dHigh, dLow, dPreOpen, dPreHigh, dPreLow;//, dMaxHigh, dMinLow;
; 275  : 	double dPrePrice;
; 276  : 
; 277  : 	memset(&stOut, 0x20, sizeof(stOut));

  000bf	68 fe 01 00 00	 push	 510			; 000001feH
  000c4	8d 85 00 fd ff
	ff		 lea	 eax, DWORD PTR _stOut$[ebp]
  000ca	c6 45 fc 06	 mov	 BYTE PTR __$EHRec$[ebp+8], 6
  000ce	6a 20		 push	 32			; 00000020H
  000d0	50		 push	 eax
  000d1	e8 00 00 00 00	 call	 _memset

; 278  : 
; 279  : //  ,  ,  , , ,  , , 
; 280  : //{ "20301", "20022", "20023", "20306", "20024", "20033", "20027", "20307",
; 281  : //  , , ,
; 282  : //	"20029", "20030", "20031", };
; 283  : 
; 284  : 	strCode = CDataConverter::Parser(strSrc, sCELL); // 

  000d6	83 c4 08	 add	 esp, 8
  000d9	8b cc		 mov	 ecx, esp
  000db	6a 01		 push	 1
  000dd	6a 09		 push	 9
  000df	ff 15 00 00 00
	00		 call	 DWORD PTR __imp_??0?$CStringT@DV?$StrTraitMFC_DLL@DV?$ChTraitsCRT@D@ATL@@@@@ATL@@QAE@DH@Z
  000e5	8d 85 f4 fc ff
	ff		 lea	 eax, DWORD PTR _strSrc$[ebp]
  000eb	50		 push	 eax
  000ec	8d 85 e0 fc ff
	ff		 lea	 eax, DWORD PTR $T20[ebp]
  000f2	50		 push	 eax
  000f3	e8 00 00 00 00	 call	 ?Parser@CDataConverter@@SA?AV?$CStringT@DV?$StrTraitMFC_DLL@DV?$ChTraitsCRT@D@ATL@@@@@ATL@@AAV23@V23@@Z ; CDataConverter::Parser
  000f8	83 c4 0c	 add	 esp, 12			; 0000000cH
  000fb	50		 push	 eax
  000fc	8d 8d 64 fc ff
	ff		 lea	 ecx, DWORD PTR _strCode$[ebp]
  00102	c6 45 fc 07	 mov	 BYTE PTR __$EHRec$[ebp+8], 7
  00106	ff 15 00 00 00
	00		 call	 DWORD PTR __imp_??4?$CStringT@DV?$StrTraitMFC_DLL@DV?$ChTraitsCRT@D@ATL@@@@@ATL@@QAEAAV01@ABV01@@Z
  0010c	8d 8d e0 fc ff
	ff		 lea	 ecx, DWORD PTR $T20[ebp]
  00112	c6 45 fc 06	 mov	 BYTE PTR __$EHRec$[ebp+8], 6
  00116	ff 15 00 00 00
	00		 call	 DWORD PTR __imp_??1?$CStringT@DV?$StrTraitMFC_DLL@DV?$ChTraitsCRT@D@ATL@@@@@ATL@@QAE@XZ

; 285  : 
; 286  : 	strNode = CDataConverter::Parser(strSrc, sCELL); // 

  0011c	51		 push	 ecx
  0011d	8b cc		 mov	 ecx, esp
  0011f	6a 01		 push	 1
  00121	6a 09		 push	 9
  00123	ff 15 00 00 00
	00		 call	 DWORD PTR __imp_??0?$CStringT@DV?$StrTraitMFC_DLL@DV?$ChTraitsCRT@D@ATL@@@@@ATL@@QAE@DH@Z
  00129	8d 85 f4 fc ff
	ff		 lea	 eax, DWORD PTR _strSrc$[ebp]
  0012f	50		 push	 eax
  00130	8d 85 e0 fc ff
	ff		 lea	 eax, DWORD PTR $T19[ebp]
  00136	50		 push	 eax
  00137	e8 00 00 00 00	 call	 ?Parser@CDataConverter@@SA?AV?$CStringT@DV?$StrTraitMFC_DLL@DV?$ChTraitsCRT@D@ATL@@@@@ATL@@AAV23@V23@@Z ; CDataConverter::Parser
  0013c	83 c4 0c	 add	 esp, 12			; 0000000cH
  0013f	50		 push	 eax
  00140	8d 8d fc fc ff
	ff		 lea	 ecx, DWORD PTR _strNode$[ebp]
  00146	c6 45 fc 08	 mov	 BYTE PTR __$EHRec$[ebp+8], 8
  0014a	ff 15 00 00 00
	00		 call	 DWORD PTR __imp_??4?$CStringT@DV?$StrTraitMFC_DLL@DV?$ChTraitsCRT@D@ATL@@@@@ATL@@QAEAAV01@ABV01@@Z
  00150	8d 8d e0 fc ff
	ff		 lea	 ecx, DWORD PTR $T19[ebp]
  00156	c6 45 fc 06	 mov	 BYTE PTR __$EHRec$[ebp+8], 6
  0015a	ff 15 00 00 00
	00		 call	 DWORD PTR __imp_??1?$CStringT@DV?$StrTraitMFC_DLL@DV?$ChTraitsCRT@D@ATL@@@@@ATL@@QAE@XZ
; File C:\Program Files (x86)\Microsoft Visual Studio\2019\Community\VC\Tools\MSVC\14.29.30133\atlmfc\include\atlsimpstr.h

; 519  : 		return( GetData()->nDataLength );

  00160	8b 85 fc fc ff
	ff		 mov	 eax, DWORD PTR _strNode$[ebp]
; File D:\git\src\IBK\IBK_DRFN\ProjSrc\SrcDrfn\DrCommon\PartnerMng\ChartItemUpjong.cpp

; 287  : 	memcpy(stOut.name, strNode, min(strNode.GetLength(), sizeof(stOut.name)));

  00166	ba 1e 00 00 00	 mov	 edx, 30			; 0000001eH
  0016b	39 50 f4	 cmp	 DWORD PTR [eax-12], edx
  0016e	0f 42 50 f4	 cmovb	 edx, DWORD PTR [eax-12]
  00172	52		 push	 edx
  00173	50		 push	 eax
  00174	8d 85 00 fd ff
	ff		 lea	 eax, DWORD PTR _stOut$[ebp]
  0017a	50		 push	 eax
  0017b	e8 00 00 00 00	 call	 _memcpy

; 288  : 
; 289  : 	strPrice = CDataConverter::Parser(strSrc, sCELL); // 

  00180	83 c4 08	 add	 esp, 8
  00183	8b cc		 mov	 ecx, esp
  00185	6a 01		 push	 1
  00187	6a 09		 push	 9
  00189	ff 15 00 00 00
	00		 call	 DWORD PTR __imp_??0?$CStringT@DV?$StrTraitMFC_DLL@DV?$ChTraitsCRT@D@ATL@@@@@ATL@@QAE@DH@Z
  0018f	8d 85 f4 fc ff
	ff		 lea	 eax, DWORD PTR _strSrc$[ebp]
  00195	50		 push	 eax
  00196	8d 85 e0 fc ff
	ff		 lea	 eax, DWORD PTR $T18[ebp]
  0019c	50		 push	 eax
  0019d	e8 00 00 00 00	 call	 ?Parser@CDataConverter@@SA?AV?$CStringT@DV?$StrTraitMFC_DLL@DV?$ChTraitsCRT@D@ATL@@@@@ATL@@AAV23@V23@@Z ; CDataConverter::Parser
  001a2	83 c4 0c	 add	 esp, 12			; 0000000cH
  001a5	50		 push	 eax
  001a6	8d 8d d8 fc ff
	ff		 lea	 ecx, DWORD PTR _strPrice$[ebp]
  001ac	c6 45 fc 09	 mov	 BYTE PTR __$EHRec$[ebp+8], 9
  001b0	ff 15 00 00 00
	00		 call	 DWORD PTR __imp_??4?$CStringT@DV?$StrTraitMFC_DLL@DV?$ChTraitsCRT@D@ATL@@@@@ATL@@QAEAAV01@ABV01@@Z
  001b6	8d 8d e0 fc ff
	ff		 lea	 ecx, DWORD PTR $T18[ebp]
  001bc	c6 45 fc 06	 mov	 BYTE PTR __$EHRec$[ebp+8], 6
  001c0	ff 15 00 00 00
	00		 call	 DWORD PTR __imp_??1?$CStringT@DV?$StrTraitMFC_DLL@DV?$ChTraitsCRT@D@ATL@@@@@ATL@@QAE@XZ

; 290  : 	int nPrice = atoi(strPrice);

  001c6	ff b5 d8 fc ff
	ff		 push	 DWORD PTR _strPrice$[ebp]
  001cc	ff 15 00 00 00
	00		 call	 DWORD PTR __imp__atoi
  001d2	83 c4 04	 add	 esp, 4
  001d5	89 85 e0 fc ff
	ff		 mov	 DWORD PTR _nPrice$1$[ebp], eax

; 291  : 	strPrice.Remove(_T('+')); strPrice.Remove(_T('-')); strPrice.Remove(_T('.'));

  001db	8d 8d d8 fc ff
	ff		 lea	 ecx, DWORD PTR _strPrice$[ebp]
  001e1	6a 2b		 push	 43			; 0000002bH
  001e3	ff 15 00 00 00
	00		 call	 DWORD PTR __imp_?Remove@?$CStringT@DV?$StrTraitMFC_DLL@DV?$ChTraitsCRT@D@ATL@@@@@ATL@@QAEHD@Z
  001e9	6a 2d		 push	 45			; 0000002dH
  001eb	8d 8d d8 fc ff
	ff		 lea	 ecx, DWORD PTR _strPrice$[ebp]
  001f1	ff 15 00 00 00
	00		 call	 DWORD PTR __imp_?Remove@?$CStringT@DV?$StrTraitMFC_DLL@DV?$ChTraitsCRT@D@ATL@@@@@ATL@@QAEHD@Z
  001f7	6a 2e		 push	 46			; 0000002eH
  001f9	8d 8d d8 fc ff
	ff		 lea	 ecx, DWORD PTR _strPrice$[ebp]
  001ff	ff 15 00 00 00
	00		 call	 DWORD PTR __imp_?Remove@?$CStringT@DV?$StrTraitMFC_DLL@DV?$ChTraitsCRT@D@ATL@@@@@ATL@@QAEHD@Z
; File C:\Program Files (x86)\Microsoft Visual Studio\2019\Community\VC\Tools\MSVC\14.29.30133\atlmfc\include\atlsimpstr.h

; 519  : 		return( GetData()->nDataLength );

  00205	8b 85 d8 fc ff
	ff		 mov	 eax, DWORD PTR _strPrice$[ebp]
; File D:\git\src\IBK\IBK_DRFN\ProjSrc\SrcDrfn\DrCommon\PartnerMng\ChartItemUpjong.cpp

; 292  : 	memcpy(stOut.price, strPrice, min(sizeof(stOut.price), strPrice.GetLength()));

  0020b	ba 0a 00 00 00	 mov	 edx, 10			; 0000000aH
; File C:\Program Files (x86)\Microsoft Visual Studio\2019\Community\VC\Tools\MSVC\14.29.30133\atlmfc\include\atlsimpstr.h

; 519  : 		return( GetData()->nDataLength );

  00210	8b 48 f4	 mov	 ecx, DWORD PTR [eax-12]
; File D:\git\src\IBK\IBK_DRFN\ProjSrc\SrcDrfn\DrCommon\PartnerMng\ChartItemUpjong.cpp

; 292  : 	memcpy(stOut.price, strPrice, min(sizeof(stOut.price), strPrice.GetLength()));

  00213	3b ca		 cmp	 ecx, edx
  00215	0f 47 ca	 cmova	 ecx, edx
  00218	51		 push	 ecx
  00219	50		 push	 eax
  0021a	8d 85 1e fd ff
	ff		 lea	 eax, DWORD PTR _stOut$[ebp+30]
  00220	50		 push	 eax
  00221	e8 00 00 00 00	 call	 _memcpy

; 293  : 	
; 294  : 	strNode = CDataConverter::Parser(strSrc, sCELL);	dPrePrice = fabs(atof(strNode));	// 

  00226	83 c4 08	 add	 esp, 8
  00229	8b cc		 mov	 ecx, esp
  0022b	6a 01		 push	 1
  0022d	6a 09		 push	 9
  0022f	ff 15 00 00 00
	00		 call	 DWORD PTR __imp_??0?$CStringT@DV?$StrTraitMFC_DLL@DV?$ChTraitsCRT@D@ATL@@@@@ATL@@QAE@DH@Z
  00235	8d 85 f4 fc ff
	ff		 lea	 eax, DWORD PTR _strSrc$[ebp]
  0023b	50		 push	 eax
  0023c	8d 85 f8 fc ff
	ff		 lea	 eax, DWORD PTR $T42[ebp]
  00242	50		 push	 eax
  00243	e8 00 00 00 00	 call	 ?Parser@CDataConverter@@SA?AV?$CStringT@DV?$StrTraitMFC_DLL@DV?$ChTraitsCRT@D@ATL@@@@@ATL@@AAV23@V23@@Z ; CDataConverter::Parser
  00248	83 c4 0c	 add	 esp, 12			; 0000000cH
  0024b	50		 push	 eax
  0024c	8d 8d fc fc ff
	ff		 lea	 ecx, DWORD PTR _strNode$[ebp]
  00252	c6 45 fc 0a	 mov	 BYTE PTR __$EHRec$[ebp+8], 10 ; 0000000aH
  00256	ff 15 00 00 00
	00		 call	 DWORD PTR __imp_??4?$CStringT@DV?$StrTraitMFC_DLL@DV?$ChTraitsCRT@D@ATL@@@@@ATL@@QAEAAV01@ABV01@@Z
  0025c	8d 8d f8 fc ff
	ff		 lea	 ecx, DWORD PTR $T42[ebp]
  00262	c6 45 fc 06	 mov	 BYTE PTR __$EHRec$[ebp+8], 6
  00266	ff 15 00 00 00
	00		 call	 DWORD PTR __imp_??1?$CStringT@DV?$StrTraitMFC_DLL@DV?$ChTraitsCRT@D@ATL@@@@@ATL@@QAE@XZ
  0026c	ff b5 fc fc ff
	ff		 push	 DWORD PTR _strNode$[ebp]
  00272	ff 15 00 00 00
	00		 call	 DWORD PTR __imp__atof
  00278	dd 9d 5c fc ff
	ff		 fstp	 QWORD PTR tv3036[ebp]
  0027e	f2 0f 10 85 5c
	fc ff ff	 movsd	 xmm0, QWORD PTR tv3036[ebp]

; 295  : 	strNode.Format(_T("%d"), dPrePrice*100);

  00286	8d 85 fc fc ff
	ff		 lea	 eax, DWORD PTR _strNode$[ebp]
  0028c	0f 54 05 00 00
	00 00		 andps	 xmm0, QWORD PTR __xmm@7fffffffffffffff7fffffffffffffff
  00293	f2 0f 59 05 00
	00 00 00	 mulsd	 xmm0, QWORD PTR __real@4059000000000000
  0029b	51		 push	 ecx
  0029c	f2 0f 11 04 24	 movsd	 QWORD PTR [esp], xmm0
  002a1	68 00 00 00 00	 push	 OFFSET ??_C@_02DPKJAMEF@?$CFd@
  002a6	f2 0f 11 85 44
	fc ff ff	 movsd	 QWORD PTR _dPrePrice$1$[ebp], xmm0
  002ae	50		 push	 eax
  002af	ff d6		 call	 esi
; File C:\Program Files (x86)\Microsoft Visual Studio\2019\Community\VC\Tools\MSVC\14.29.30133\atlmfc\include\atlsimpstr.h

; 519  : 		return( GetData()->nDataLength );

  002b1	8b 85 fc fc ff
	ff		 mov	 eax, DWORD PTR _strNode$[ebp]
; File D:\git\src\IBK\IBK_DRFN\ProjSrc\SrcDrfn\DrCommon\PartnerMng\ChartItemUpjong.cpp

; 296  : 	memcpy(stOut.preprice, strNode, min(sizeof(stOut.preprice), strNode.GetLength()));

  002b7	ba 0a 00 00 00	 mov	 edx, 10			; 0000000aH
; File C:\Program Files (x86)\Microsoft Visual Studio\2019\Community\VC\Tools\MSVC\14.29.30133\atlmfc\include\atlsimpstr.h

; 519  : 		return( GetData()->nDataLength );

  002bc	8b 48 f4	 mov	 ecx, DWORD PTR [eax-12]
; File D:\git\src\IBK\IBK_DRFN\ProjSrc\SrcDrfn\DrCommon\PartnerMng\ChartItemUpjong.cpp

; 296  : 	memcpy(stOut.preprice, strNode, min(sizeof(stOut.preprice), strNode.GetLength()));

  002bf	83 f9 0a	 cmp	 ecx, 10			; 0000000aH
  002c2	0f 47 ca	 cmova	 ecx, edx
  002c5	51		 push	 ecx
  002c6	50		 push	 eax
  002c7	8d 85 43 fd ff
	ff		 lea	 eax, DWORD PTR _stOut$[ebp+67]
  002cd	50		 push	 eax
  002ce	e8 00 00 00 00	 call	 _memcpy

; 297  : 
; 298  : 	strNode = CDataConverter::Parser(strSrc, sCELL); // 

  002d3	83 c4 18	 add	 esp, 24			; 00000018H
  002d6	8b cc		 mov	 ecx, esp
  002d8	6a 01		 push	 1
  002da	6a 09		 push	 9
  002dc	ff 15 00 00 00
	00		 call	 DWORD PTR __imp_??0?$CStringT@DV?$StrTraitMFC_DLL@DV?$ChTraitsCRT@D@ATL@@@@@ATL@@QAE@DH@Z
  002e2	8d 85 f4 fc ff
	ff		 lea	 eax, DWORD PTR _strSrc$[ebp]
  002e8	50		 push	 eax
  002e9	8d 85 f8 fc ff
	ff		 lea	 eax, DWORD PTR $T41[ebp]
  002ef	50		 push	 eax
  002f0	e8 00 00 00 00	 call	 ?Parser@CDataConverter@@SA?AV?$CStringT@DV?$StrTraitMFC_DLL@DV?$ChTraitsCRT@D@ATL@@@@@ATL@@AAV23@V23@@Z ; CDataConverter::Parser
  002f5	83 c4 0c	 add	 esp, 12			; 0000000cH
  002f8	50		 push	 eax
  002f9	8d 8d fc fc ff
	ff		 lea	 ecx, DWORD PTR _strNode$[ebp]
  002ff	c6 45 fc 0b	 mov	 BYTE PTR __$EHRec$[ebp+8], 11 ; 0000000bH
  00303	ff 15 00 00 00
	00		 call	 DWORD PTR __imp_??4?$CStringT@DV?$StrTraitMFC_DLL@DV?$ChTraitsCRT@D@ATL@@@@@ATL@@QAEAAV01@ABV01@@Z
  00309	8d 8d f8 fc ff
	ff		 lea	 ecx, DWORD PTR $T41[ebp]
  0030f	c6 45 fc 06	 mov	 BYTE PTR __$EHRec$[ebp+8], 6
  00313	ff 15 00 00 00
	00		 call	 DWORD PTR __imp_??1?$CStringT@DV?$StrTraitMFC_DLL@DV?$ChTraitsCRT@D@ATL@@@@@ATL@@QAE@XZ

; 299  : 	strNode = strNode.Mid(1);

  00319	6a 01		 push	 1
  0031b	8d 85 f8 fc ff
	ff		 lea	 eax, DWORD PTR $T40[ebp]
  00321	50		 push	 eax
  00322	8d 8d fc fc ff
	ff		 lea	 ecx, DWORD PTR _strNode$[ebp]
  00328	ff 15 00 00 00
	00		 call	 DWORD PTR __imp_?Mid@?$CStringT@DV?$StrTraitMFC_DLL@DV?$ChTraitsCRT@D@ATL@@@@@ATL@@QBE?AV12@H@Z
  0032e	50		 push	 eax
  0032f	8d 8d fc fc ff
	ff		 lea	 ecx, DWORD PTR _strNode$[ebp]
  00335	c6 45 fc 0c	 mov	 BYTE PTR __$EHRec$[ebp+8], 12 ; 0000000cH
  00339	ff 15 00 00 00
	00		 call	 DWORD PTR __imp_??4?$CStringT@DV?$StrTraitMFC_DLL@DV?$ChTraitsCRT@D@ATL@@@@@ATL@@QAEAAV01@ABV01@@Z
  0033f	8d 8d f8 fc ff
	ff		 lea	 ecx, DWORD PTR $T40[ebp]
  00345	c6 45 fc 06	 mov	 BYTE PTR __$EHRec$[ebp+8], 6
  00349	ff 15 00 00 00
	00		 call	 DWORD PTR __imp_??1?$CStringT@DV?$StrTraitMFC_DLL@DV?$ChTraitsCRT@D@ATL@@@@@ATL@@QAE@XZ

; 300  : 	strNode.Remove(_T('.'));

  0034f	6a 2e		 push	 46			; 0000002eH
  00351	8d 8d fc fc ff
	ff		 lea	 ecx, DWORD PTR _strNode$[ebp]
  00357	ff 15 00 00 00
	00		 call	 DWORD PTR __imp_?Remove@?$CStringT@DV?$StrTraitMFC_DLL@DV?$ChTraitsCRT@D@ATL@@@@@ATL@@QAEHD@Z
; File C:\Program Files (x86)\Microsoft Visual Studio\2019\Community\VC\Tools\MSVC\14.29.30133\atlmfc\include\atlsimpstr.h

; 519  : 		return( GetData()->nDataLength );

  0035d	8b 85 fc fc ff
	ff		 mov	 eax, DWORD PTR _strNode$[ebp]
; File D:\git\src\IBK\IBK_DRFN\ProjSrc\SrcDrfn\DrCommon\PartnerMng\ChartItemUpjong.cpp

; 301  : 	memcpy(stOut.change, strNode, min(sizeof(stOut.change), strNode.GetLength()));

  00363	ba 0a 00 00 00	 mov	 edx, 10			; 0000000aH
; File C:\Program Files (x86)\Microsoft Visual Studio\2019\Community\VC\Tools\MSVC\14.29.30133\atlmfc\include\atlsimpstr.h

; 519  : 		return( GetData()->nDataLength );

  00368	8b 48 f4	 mov	 ecx, DWORD PTR [eax-12]
; File D:\git\src\IBK\IBK_DRFN\ProjSrc\SrcDrfn\DrCommon\PartnerMng\ChartItemUpjong.cpp

; 301  : 	memcpy(stOut.change, strNode, min(sizeof(stOut.change), strNode.GetLength()));

  0036b	83 f9 0a	 cmp	 ecx, 10			; 0000000aH
  0036e	0f 47 ca	 cmova	 ecx, edx
  00371	51		 push	 ecx
  00372	50		 push	 eax
  00373	8d 85 29 fd ff
	ff		 lea	 eax, DWORD PTR _stOut$[ebp+41]
  00379	50		 push	 eax
  0037a	e8 00 00 00 00	 call	 _memcpy

; 302  : 	
; 303  : 	strNode = CDataConverter::Parser(strSrc, sCELL); // 

  0037f	83 c4 08	 add	 esp, 8
  00382	8b cc		 mov	 ecx, esp
  00384	6a 01		 push	 1
  00386	6a 09		 push	 9
  00388	ff 15 00 00 00
	00		 call	 DWORD PTR __imp_??0?$CStringT@DV?$StrTraitMFC_DLL@DV?$ChTraitsCRT@D@ATL@@@@@ATL@@QAE@DH@Z
  0038e	8d 85 f4 fc ff
	ff		 lea	 eax, DWORD PTR _strSrc$[ebp]
  00394	50		 push	 eax
  00395	8d 85 f8 fc ff
	ff		 lea	 eax, DWORD PTR $T39[ebp]
  0039b	50		 push	 eax
  0039c	e8 00 00 00 00	 call	 ?Parser@CDataConverter@@SA?AV?$CStringT@DV?$StrTraitMFC_DLL@DV?$ChTraitsCRT@D@ATL@@@@@ATL@@AAV23@V23@@Z ; CDataConverter::Parser
  003a1	83 c4 0c	 add	 esp, 12			; 0000000cH
  003a4	50		 push	 eax
  003a5	8d 8d fc fc ff
	ff		 lea	 ecx, DWORD PTR _strNode$[ebp]
  003ab	c6 45 fc 0d	 mov	 BYTE PTR __$EHRec$[ebp+8], 13 ; 0000000dH
  003af	ff 15 00 00 00
	00		 call	 DWORD PTR __imp_??4?$CStringT@DV?$StrTraitMFC_DLL@DV?$ChTraitsCRT@D@ATL@@@@@ATL@@QAEAAV01@ABV01@@Z
  003b5	8d 8d f8 fc ff
	ff		 lea	 ecx, DWORD PTR $T39[ebp]
  003bb	c6 45 fc 06	 mov	 BYTE PTR __$EHRec$[ebp+8], 6
  003bf	ff 15 00 00 00
	00		 call	 DWORD PTR __imp_??1?$CStringT@DV?$StrTraitMFC_DLL@DV?$ChTraitsCRT@D@ATL@@@@@ATL@@QAE@XZ

; 304  : 	strNode.Remove(_T('+'));/*strNode.Remove(_T('-'));*/

  003c5	6a 2b		 push	 43			; 0000002bH
  003c7	8d 8d fc fc ff
	ff		 lea	 ecx, DWORD PTR _strNode$[ebp]
  003cd	ff 15 00 00 00
	00		 call	 DWORD PTR __imp_?Remove@?$CStringT@DV?$StrTraitMFC_DLL@DV?$ChTraitsCRT@D@ATL@@@@@ATL@@QAEHD@Z

; 305  : 	strNode.Remove(_T('.'));

  003d3	6a 2e		 push	 46			; 0000002eH
  003d5	8d 8d fc fc ff
	ff		 lea	 ecx, DWORD PTR _strNode$[ebp]
  003db	ff 15 00 00 00
	00		 call	 DWORD PTR __imp_?Remove@?$CStringT@DV?$StrTraitMFC_DLL@DV?$ChTraitsCRT@D@ATL@@@@@ATL@@QAEHD@Z
; File C:\Program Files (x86)\Microsoft Visual Studio\2019\Community\VC\Tools\MSVC\14.29.30133\atlmfc\include\atlsimpstr.h

; 519  : 		return( GetData()->nDataLength );

  003e1	8b 85 fc fc ff
	ff		 mov	 eax, DWORD PTR _strNode$[ebp]
; File D:\git\src\IBK\IBK_DRFN\ProjSrc\SrcDrfn\DrCommon\PartnerMng\ChartItemUpjong.cpp

; 306  : 	memcpy(stOut.chrate, strNode, min(sizeof(stOut.chrate), strNode.GetLength()));

  003e7	ba 06 00 00 00	 mov	 edx, 6
; File C:\Program Files (x86)\Microsoft Visual Studio\2019\Community\VC\Tools\MSVC\14.29.30133\atlmfc\include\atlsimpstr.h

; 519  : 		return( GetData()->nDataLength );

  003ec	8b 48 f4	 mov	 ecx, DWORD PTR [eax-12]
; File D:\git\src\IBK\IBK_DRFN\ProjSrc\SrcDrfn\DrCommon\PartnerMng\ChartItemUpjong.cpp

; 306  : 	memcpy(stOut.chrate, strNode, min(sizeof(stOut.chrate), strNode.GetLength()));

  003ef	3b ca		 cmp	 ecx, edx
  003f1	0f 47 ca	 cmova	 ecx, edx
  003f4	51		 push	 ecx
  003f5	50		 push	 eax
  003f6	8d 85 33 fd ff
	ff		 lea	 eax, DWORD PTR _stOut$[ebp+51]
  003fc	50		 push	 eax
  003fd	e8 00 00 00 00	 call	 _memcpy

; 307  : 
; 308  : 	strVolume = CDataConverter::Parser(strSrc, sCELL); // 

  00402	83 c4 08	 add	 esp, 8
  00405	8b cc		 mov	 ecx, esp
  00407	6a 01		 push	 1
  00409	6a 09		 push	 9
  0040b	ff 15 00 00 00
	00		 call	 DWORD PTR __imp_??0?$CStringT@DV?$StrTraitMFC_DLL@DV?$ChTraitsCRT@D@ATL@@@@@ATL@@QAE@DH@Z
  00411	8d 85 f4 fc ff
	ff		 lea	 eax, DWORD PTR _strSrc$[ebp]
  00417	50		 push	 eax
  00418	8d 85 f8 fc ff
	ff		 lea	 eax, DWORD PTR $T38[ebp]
  0041e	50		 push	 eax
  0041f	e8 00 00 00 00	 call	 ?Parser@CDataConverter@@SA?AV?$CStringT@DV?$StrTraitMFC_DLL@DV?$ChTraitsCRT@D@ATL@@@@@ATL@@AAV23@V23@@Z ; CDataConverter::Parser
  00424	83 c4 0c	 add	 esp, 12			; 0000000cH
  00427	50		 push	 eax
  00428	8d 8d a8 fc ff
	ff		 lea	 ecx, DWORD PTR _strVolume$[ebp]
  0042e	c6 45 fc 0e	 mov	 BYTE PTR __$EHRec$[ebp+8], 14 ; 0000000eH
  00432	ff 15 00 00 00
	00		 call	 DWORD PTR __imp_??4?$CStringT@DV?$StrTraitMFC_DLL@DV?$ChTraitsCRT@D@ATL@@@@@ATL@@QAEAAV01@ABV01@@Z
  00438	8d 8d f8 fc ff
	ff		 lea	 ecx, DWORD PTR $T38[ebp]
  0043e	c6 45 fc 06	 mov	 BYTE PTR __$EHRec$[ebp+8], 6
  00442	ff 15 00 00 00
	00		 call	 DWORD PTR __imp_??1?$CStringT@DV?$StrTraitMFC_DLL@DV?$ChTraitsCRT@D@ATL@@@@@ATL@@QAE@XZ
; File C:\Program Files (x86)\Microsoft Visual Studio\2019\Community\VC\Tools\MSVC\14.29.30133\atlmfc\include\atlsimpstr.h

; 519  : 		return( GetData()->nDataLength );

  00448	8b 85 a8 fc ff
	ff		 mov	 eax, DWORD PTR _strVolume$[ebp]
; File D:\git\src\IBK\IBK_DRFN\ProjSrc\SrcDrfn\DrCommon\PartnerMng\ChartItemUpjong.cpp

; 309  : 	memcpy(stOut.volume, strVolume, min(sizeof(stOut.volume), strVolume.GetLength()));

  0044e	ba 0a 00 00 00	 mov	 edx, 10			; 0000000aH
; File C:\Program Files (x86)\Microsoft Visual Studio\2019\Community\VC\Tools\MSVC\14.29.30133\atlmfc\include\atlsimpstr.h

; 519  : 		return( GetData()->nDataLength );

  00453	8b 48 f4	 mov	 ecx, DWORD PTR [eax-12]
; File D:\git\src\IBK\IBK_DRFN\ProjSrc\SrcDrfn\DrCommon\PartnerMng\ChartItemUpjong.cpp

; 309  : 	memcpy(stOut.volume, strVolume, min(sizeof(stOut.volume), strVolume.GetLength()));

  00456	83 f9 0a	 cmp	 ecx, 10			; 0000000aH
  00459	0f 47 ca	 cmova	 ecx, edx
  0045c	51		 push	 ecx
  0045d	50		 push	 eax
  0045e	8d 85 39 fd ff
	ff		 lea	 eax, DWORD PTR _stOut$[ebp+57]
  00464	50		 push	 eax
  00465	e8 00 00 00 00	 call	 _memcpy

; 310  : 
; 311  : 	strPreVolume = CDataConverter::Parser(strSrc, sCELL); // 

  0046a	83 c4 08	 add	 esp, 8
  0046d	8b cc		 mov	 ecx, esp
  0046f	6a 01		 push	 1
  00471	6a 09		 push	 9
  00473	ff 15 00 00 00
	00		 call	 DWORD PTR __imp_??0?$CStringT@DV?$StrTraitMFC_DLL@DV?$ChTraitsCRT@D@ATL@@@@@ATL@@QAE@DH@Z
  00479	8d 85 f4 fc ff
	ff		 lea	 eax, DWORD PTR _strSrc$[ebp]
  0047f	50		 push	 eax
  00480	8d 85 f8 fc ff
	ff		 lea	 eax, DWORD PTR $T37[ebp]
  00486	50		 push	 eax
  00487	e8 00 00 00 00	 call	 ?Parser@CDataConverter@@SA?AV?$CStringT@DV?$StrTraitMFC_DLL@DV?$ChTraitsCRT@D@ATL@@@@@ATL@@AAV23@V23@@Z ; CDataConverter::Parser
  0048c	83 c4 0c	 add	 esp, 12			; 0000000cH
  0048f	50		 push	 eax
  00490	8d 8d 68 fc ff
	ff		 lea	 ecx, DWORD PTR _strPreVolume$[ebp]
  00496	c6 45 fc 0f	 mov	 BYTE PTR __$EHRec$[ebp+8], 15 ; 0000000fH
  0049a	ff 15 00 00 00
	00		 call	 DWORD PTR __imp_??4?$CStringT@DV?$StrTraitMFC_DLL@DV?$ChTraitsCRT@D@ATL@@@@@ATL@@QAEAAV01@ABV01@@Z
  004a0	8d 8d f8 fc ff
	ff		 lea	 ecx, DWORD PTR $T37[ebp]
  004a6	c6 45 fc 06	 mov	 BYTE PTR __$EHRec$[ebp+8], 6
  004aa	ff 15 00 00 00
	00		 call	 DWORD PTR __imp_??1?$CStringT@DV?$StrTraitMFC_DLL@DV?$ChTraitsCRT@D@ATL@@@@@ATL@@QAE@XZ

; 312  : 
; 313  : 	// Make sign value
; 314  : 	if(nPrice < 0)		stOut.sign[0] = '5'; // DOWN

  004b0	8b 85 e0 fc ff
	ff		 mov	 eax, DWORD PTR _nPrice$1$[ebp]
  004b6	85 c0		 test	 eax, eax
  004b8	79 09		 jns	 SHORT $LN12@Convert2St
  004ba	c6 85 28 fd ff
	ff 35		 mov	 BYTE PTR _stOut$[ebp+40], 53 ; 00000035H
  004c1	eb 1a		 jmp	 SHORT $LN14@Convert2St
$LN12@Convert2St:

; 315  : 	else if(abs(nPrice) == (int)(dPrePrice*100))	stOut.sign[0] = '3'; // Same (BOHAP)

  004c3	f2 0f 2c 8d 44
	fc ff ff	 cvttsd2si ecx, QWORD PTR _dPrePrice$1$[ebp]
  004cb	99		 cdq
  004cc	33 c2		 xor	 eax, edx
  004ce	2b c2		 sub	 eax, edx
  004d0	3b c1		 cmp	 eax, ecx
  004d2	0f 94 c0	 sete	 al
  004d5	04 32		 add	 al, 50			; 00000032H
  004d7	88 85 28 fd ff
	ff		 mov	 BYTE PTR _stOut$[ebp+40], al
$LN14@Convert2St:

; 316  : 	else stOut.sign[0] = '2'; // UP
; 317  : 	
; 318  : 	strNode = CDataConverter::Parser(strSrc, sCELL);	dOpen = fabs(atof(strNode));	// 

  004dd	51		 push	 ecx
  004de	8b cc		 mov	 ecx, esp
  004e0	6a 01		 push	 1
  004e2	6a 09		 push	 9
  004e4	ff 15 00 00 00
	00		 call	 DWORD PTR __imp_??0?$CStringT@DV?$StrTraitMFC_DLL@DV?$ChTraitsCRT@D@ATL@@@@@ATL@@QAE@DH@Z
  004ea	8d 85 f4 fc ff
	ff		 lea	 eax, DWORD PTR _strSrc$[ebp]
  004f0	50		 push	 eax
  004f1	8d 85 f8 fc ff
	ff		 lea	 eax, DWORD PTR $T36[ebp]
  004f7	50		 push	 eax
  004f8	e8 00 00 00 00	 call	 ?Parser@CDataConverter@@SA?AV?$CStringT@DV?$StrTraitMFC_DLL@DV?$ChTraitsCRT@D@ATL@@@@@ATL@@AAV23@V23@@Z ; CDataConverter::Parser
  004fd	83 c4 0c	 add	 esp, 12			; 0000000cH
  00500	50		 push	 eax
  00501	8d 8d fc fc ff
	ff		 lea	 ecx, DWORD PTR _strNode$[ebp]
  00507	c6 45 fc 10	 mov	 BYTE PTR __$EHRec$[ebp+8], 16 ; 00000010H
  0050b	ff 15 00 00 00
	00		 call	 DWORD PTR __imp_??4?$CStringT@DV?$StrTraitMFC_DLL@DV?$ChTraitsCRT@D@ATL@@@@@ATL@@QAEAAV01@ABV01@@Z
  00511	8d 8d f8 fc ff
	ff		 lea	 ecx, DWORD PTR $T36[ebp]
  00517	c6 45 fc 06	 mov	 BYTE PTR __$EHRec$[ebp+8], 6
  0051b	ff 15 00 00 00
	00		 call	 DWORD PTR __imp_??1?$CStringT@DV?$StrTraitMFC_DLL@DV?$ChTraitsCRT@D@ATL@@@@@ATL@@QAE@XZ
  00521	ff b5 fc fc ff
	ff		 push	 DWORD PTR _strNode$[ebp]
  00527	ff 15 00 00 00
	00		 call	 DWORD PTR __imp__atof
  0052d	dd 9d 5c fc ff
	ff		 fstp	 QWORD PTR tv2975[ebp]
  00533	f2 0f 10 85 5c
	fc ff ff	 movsd	 xmm0, QWORD PTR tv2975[ebp]

; 319  : 	strNode = CDataConverter::Parser(strSrc, sCELL);	dHigh = fabs(atof(strNode));	// 

  0053b	8b cc		 mov	 ecx, esp
  0053d	0f 54 05 00 00
	00 00		 andps	 xmm0, QWORD PTR __xmm@7fffffffffffffff7fffffffffffffff
  00544	6a 01		 push	 1
  00546	6a 09		 push	 9
  00548	f2 0f 11 85 5c
	fc ff ff	 movsd	 QWORD PTR _dOpen$1$[ebp], xmm0
  00550	ff 15 00 00 00
	00		 call	 DWORD PTR __imp_??0?$CStringT@DV?$StrTraitMFC_DLL@DV?$ChTraitsCRT@D@ATL@@@@@ATL@@QAE@DH@Z
  00556	8d 85 f4 fc ff
	ff		 lea	 eax, DWORD PTR _strSrc$[ebp]
  0055c	50		 push	 eax
  0055d	8d 85 f8 fc ff
	ff		 lea	 eax, DWORD PTR $T35[ebp]
  00563	50		 push	 eax
  00564	e8 00 00 00 00	 call	 ?Parser@CDataConverter@@SA?AV?$CStringT@DV?$StrTraitMFC_DLL@DV?$ChTraitsCRT@D@ATL@@@@@ATL@@AAV23@V23@@Z ; CDataConverter::Parser
  00569	83 c4 0c	 add	 esp, 12			; 0000000cH
  0056c	50		 push	 eax
  0056d	8d 8d fc fc ff
	ff		 lea	 ecx, DWORD PTR _strNode$[ebp]
  00573	c6 45 fc 11	 mov	 BYTE PTR __$EHRec$[ebp+8], 17 ; 00000011H
  00577	ff 15 00 00 00
	00		 call	 DWORD PTR __imp_??4?$CStringT@DV?$StrTraitMFC_DLL@DV?$ChTraitsCRT@D@ATL@@@@@ATL@@QAEAAV01@ABV01@@Z
  0057d	8d 8d f8 fc ff
	ff		 lea	 ecx, DWORD PTR $T35[ebp]
  00583	c6 45 fc 06	 mov	 BYTE PTR __$EHRec$[ebp+8], 6
  00587	ff 15 00 00 00
	00		 call	 DWORD PTR __imp_??1?$CStringT@DV?$StrTraitMFC_DLL@DV?$ChTraitsCRT@D@ATL@@@@@ATL@@QAE@XZ
  0058d	ff b5 fc fc ff
	ff		 push	 DWORD PTR _strNode$[ebp]
  00593	ff 15 00 00 00
	00		 call	 DWORD PTR __imp__atof

; 320  : 	strNode = CDataConverter::Parser(strSrc, sCELL);	dLow = fabs(atof(strNode));		// 

  00599	8b cc		 mov	 ecx, esp
  0059b	dd 9d e8 fc ff
	ff		 fstp	 QWORD PTR tv2965[ebp]
  005a1	f2 0f 10 85 e8
	fc ff ff	 movsd	 xmm0, QWORD PTR tv2965[ebp]
  005a9	0f 54 05 00 00
	00 00		 andps	 xmm0, QWORD PTR __xmm@7fffffffffffffff7fffffffffffffff
  005b0	6a 01		 push	 1
  005b2	6a 09		 push	 9
  005b4	f2 0f 11 85 24
	fc ff ff	 movsd	 QWORD PTR _dHigh$1$[ebp], xmm0
  005bc	ff 15 00 00 00
	00		 call	 DWORD PTR __imp_??0?$CStringT@DV?$StrTraitMFC_DLL@DV?$ChTraitsCRT@D@ATL@@@@@ATL@@QAE@DH@Z
  005c2	8d 85 f4 fc ff
	ff		 lea	 eax, DWORD PTR _strSrc$[ebp]
  005c8	50		 push	 eax
  005c9	8d 85 f8 fc ff
	ff		 lea	 eax, DWORD PTR $T34[ebp]
  005cf	50		 push	 eax
  005d0	e8 00 00 00 00	 call	 ?Parser@CDataConverter@@SA?AV?$CStringT@DV?$StrTraitMFC_DLL@DV?$ChTraitsCRT@D@ATL@@@@@ATL@@AAV23@V23@@Z ; CDataConverter::Parser
  005d5	83 c4 0c	 add	 esp, 12			; 0000000cH
  005d8	50		 push	 eax
  005d9	8d 8d fc fc ff
	ff		 lea	 ecx, DWORD PTR _strNode$[ebp]
  005df	c6 45 fc 12	 mov	 BYTE PTR __$EHRec$[ebp+8], 18 ; 00000012H
  005e3	ff 15 00 00 00
	00		 call	 DWORD PTR __imp_??4?$CStringT@DV?$StrTraitMFC_DLL@DV?$ChTraitsCRT@D@ATL@@@@@ATL@@QAEAAV01@ABV01@@Z
  005e9	8d 8d f8 fc ff
	ff		 lea	 ecx, DWORD PTR $T34[ebp]
  005ef	c6 45 fc 06	 mov	 BYTE PTR __$EHRec$[ebp+8], 6
  005f3	ff 15 00 00 00
	00		 call	 DWORD PTR __imp_??1?$CStringT@DV?$StrTraitMFC_DLL@DV?$ChTraitsCRT@D@ATL@@@@@ATL@@QAE@XZ
  005f9	ff b5 fc fc ff
	ff		 push	 DWORD PTR _strNode$[ebp]
  005ff	ff 15 00 00 00
	00		 call	 DWORD PTR __imp__atof

; 321  : 	strNode = CDataConverter::Parser(strSrc, sCELL);	dPreOpen = fabs(atof(strNode));	// 

  00605	8b cc		 mov	 ecx, esp
  00607	dd 9d e8 fc ff
	ff		 fstp	 QWORD PTR tv2955[ebp]
  0060d	f2 0f 10 85 e8
	fc ff ff	 movsd	 xmm0, QWORD PTR tv2955[ebp]
  00615	0f 54 05 00 00
	00 00		 andps	 xmm0, QWORD PTR __xmm@7fffffffffffffff7fffffffffffffff
  0061c	6a 01		 push	 1
  0061e	6a 09		 push	 9
  00620	f2 0f 11 85 1c
	fc ff ff	 movsd	 QWORD PTR _dLow$1$[ebp], xmm0
  00628	ff 15 00 00 00
	00		 call	 DWORD PTR __imp_??0?$CStringT@DV?$StrTraitMFC_DLL@DV?$ChTraitsCRT@D@ATL@@@@@ATL@@QAE@DH@Z
  0062e	8d 85 f4 fc ff
	ff		 lea	 eax, DWORD PTR _strSrc$[ebp]
  00634	50		 push	 eax
  00635	8d 85 f8 fc ff
	ff		 lea	 eax, DWORD PTR $T33[ebp]
  0063b	50		 push	 eax
  0063c	e8 00 00 00 00	 call	 ?Parser@CDataConverter@@SA?AV?$CStringT@DV?$StrTraitMFC_DLL@DV?$ChTraitsCRT@D@ATL@@@@@ATL@@AAV23@V23@@Z ; CDataConverter::Parser
  00641	83 c4 0c	 add	 esp, 12			; 0000000cH
  00644	50		 push	 eax
  00645	8d 8d fc fc ff
	ff		 lea	 ecx, DWORD PTR _strNode$[ebp]
  0064b	c6 45 fc 13	 mov	 BYTE PTR __$EHRec$[ebp+8], 19 ; 00000013H
  0064f	ff 15 00 00 00
	00		 call	 DWORD PTR __imp_??4?$CStringT@DV?$StrTraitMFC_DLL@DV?$ChTraitsCRT@D@ATL@@@@@ATL@@QAEAAV01@ABV01@@Z
  00655	8d 8d f8 fc ff
	ff		 lea	 ecx, DWORD PTR $T33[ebp]
  0065b	c6 45 fc 06	 mov	 BYTE PTR __$EHRec$[ebp+8], 6
  0065f	ff 15 00 00 00
	00		 call	 DWORD PTR __imp_??1?$CStringT@DV?$StrTraitMFC_DLL@DV?$ChTraitsCRT@D@ATL@@@@@ATL@@QAE@XZ
  00665	ff b5 fc fc ff
	ff		 push	 DWORD PTR _strNode$[ebp]
  0066b	ff 15 00 00 00
	00		 call	 DWORD PTR __imp__atof

; 322  : 	strNode = CDataConverter::Parser(strSrc, sCELL);	dPreHigh = fabs(atof(strNode));	// 

  00671	8b cc		 mov	 ecx, esp
  00673	dd 9d e8 fc ff
	ff		 fstp	 QWORD PTR tv2945[ebp]
  00679	f2 0f 10 85 e8
	fc ff ff	 movsd	 xmm0, QWORD PTR tv2945[ebp]
  00681	0f 54 05 00 00
	00 00		 andps	 xmm0, QWORD PTR __xmm@7fffffffffffffff7fffffffffffffff
  00688	6a 01		 push	 1
  0068a	6a 09		 push	 9
  0068c	f2 0f 11 85 14
	fc ff ff	 movsd	 QWORD PTR _dPreOpen$1$[ebp], xmm0
  00694	ff 15 00 00 00
	00		 call	 DWORD PTR __imp_??0?$CStringT@DV?$StrTraitMFC_DLL@DV?$ChTraitsCRT@D@ATL@@@@@ATL@@QAE@DH@Z
  0069a	8d 85 f4 fc ff
	ff		 lea	 eax, DWORD PTR _strSrc$[ebp]
  006a0	50		 push	 eax
  006a1	8d 85 f8 fc ff
	ff		 lea	 eax, DWORD PTR $T32[ebp]
  006a7	50		 push	 eax
  006a8	e8 00 00 00 00	 call	 ?Parser@CDataConverter@@SA?AV?$CStringT@DV?$StrTraitMFC_DLL@DV?$ChTraitsCRT@D@ATL@@@@@ATL@@AAV23@V23@@Z ; CDataConverter::Parser
  006ad	83 c4 0c	 add	 esp, 12			; 0000000cH
  006b0	50		 push	 eax
  006b1	8d 8d fc fc ff
	ff		 lea	 ecx, DWORD PTR _strNode$[ebp]
  006b7	c6 45 fc 14	 mov	 BYTE PTR __$EHRec$[ebp+8], 20 ; 00000014H
  006bb	ff 15 00 00 00
	00		 call	 DWORD PTR __imp_??4?$CStringT@DV?$StrTraitMFC_DLL@DV?$ChTraitsCRT@D@ATL@@@@@ATL@@QAEAAV01@ABV01@@Z
  006c1	8d 8d f8 fc ff
	ff		 lea	 ecx, DWORD PTR $T32[ebp]
  006c7	c6 45 fc 06	 mov	 BYTE PTR __$EHRec$[ebp+8], 6
  006cb	ff 15 00 00 00
	00		 call	 DWORD PTR __imp_??1?$CStringT@DV?$StrTraitMFC_DLL@DV?$ChTraitsCRT@D@ATL@@@@@ATL@@QAE@XZ
  006d1	ff b5 fc fc ff
	ff		 push	 DWORD PTR _strNode$[ebp]
  006d7	ff 15 00 00 00
	00		 call	 DWORD PTR __imp__atof

; 323  : 	strNode = CDataConverter::Parser(strSrc, sCELL);	dPreLow = fabs(atof(strNode));	// 

  006dd	8b cc		 mov	 ecx, esp
  006df	dd 9d e8 fc ff
	ff		 fstp	 QWORD PTR tv2935[ebp]
  006e5	f2 0f 10 85 e8
	fc ff ff	 movsd	 xmm0, QWORD PTR tv2935[ebp]
  006ed	0f 54 05 00 00
	00 00		 andps	 xmm0, QWORD PTR __xmm@7fffffffffffffff7fffffffffffffff
  006f4	6a 01		 push	 1
  006f6	6a 09		 push	 9
  006f8	f2 0f 11 85 0c
	fc ff ff	 movsd	 QWORD PTR _dPreHigh$1$[ebp], xmm0
  00700	ff 15 00 00 00
	00		 call	 DWORD PTR __imp_??0?$CStringT@DV?$StrTraitMFC_DLL@DV?$ChTraitsCRT@D@ATL@@@@@ATL@@QAE@DH@Z
  00706	8d 85 f4 fc ff
	ff		 lea	 eax, DWORD PTR _strSrc$[ebp]
  0070c	50		 push	 eax
  0070d	8d 85 f8 fc ff
	ff		 lea	 eax, DWORD PTR $T31[ebp]
  00713	50		 push	 eax
  00714	e8 00 00 00 00	 call	 ?Parser@CDataConverter@@SA?AV?$CStringT@DV?$StrTraitMFC_DLL@DV?$ChTraitsCRT@D@ATL@@@@@ATL@@AAV23@V23@@Z ; CDataConverter::Parser
  00719	83 c4 0c	 add	 esp, 12			; 0000000cH
  0071c	50		 push	 eax
  0071d	8d 8d fc fc ff
	ff		 lea	 ecx, DWORD PTR _strNode$[ebp]
  00723	c6 45 fc 15	 mov	 BYTE PTR __$EHRec$[ebp+8], 21 ; 00000015H
  00727	ff 15 00 00 00
	00		 call	 DWORD PTR __imp_??4?$CStringT@DV?$StrTraitMFC_DLL@DV?$ChTraitsCRT@D@ATL@@@@@ATL@@QAEAAV01@ABV01@@Z
  0072d	8d 8d f8 fc ff
	ff		 lea	 ecx, DWORD PTR $T31[ebp]
  00733	c6 45 fc 06	 mov	 BYTE PTR __$EHRec$[ebp+8], 6
  00737	ff 15 00 00 00
	00		 call	 DWORD PTR __imp_??1?$CStringT@DV?$StrTraitMFC_DLL@DV?$ChTraitsCRT@D@ATL@@@@@ATL@@QAE@XZ
  0073d	ff b5 fc fc ff
	ff		 push	 DWORD PTR _strNode$[ebp]
  00743	ff 15 00 00 00
	00		 call	 DWORD PTR __imp__atof

; 324  : 	
; 325  : 	CString strRealState = CDataConverter::Parser(strSrc, sCELL);   // 

  00749	8b cc		 mov	 ecx, esp
  0074b	dd 9d e8 fc ff
	ff		 fstp	 QWORD PTR tv2925[ebp]
  00751	f2 0f 10 85 e8
	fc ff ff	 movsd	 xmm0, QWORD PTR tv2925[ebp]
  00759	0f 54 05 00 00
	00 00		 andps	 xmm0, QWORD PTR __xmm@7fffffffffffffff7fffffffffffffff
  00760	6a 01		 push	 1
  00762	6a 09		 push	 9
  00764	f2 0f 11 85 2c
	fc ff ff	 movsd	 QWORD PTR _dPreLow$1$[ebp], xmm0
  0076c	ff 15 00 00 00
	00		 call	 DWORD PTR __imp_??0?$CStringT@DV?$StrTraitMFC_DLL@DV?$ChTraitsCRT@D@ATL@@@@@ATL@@QAE@DH@Z
  00772	8d 85 f4 fc ff
	ff		 lea	 eax, DWORD PTR _strSrc$[ebp]
  00778	50		 push	 eax
  00779	8d 85 c4 fc ff
	ff		 lea	 eax, DWORD PTR _strRealState$[ebp]
  0077f	50		 push	 eax
  00780	e8 00 00 00 00	 call	 ?Parser@CDataConverter@@SA?AV?$CStringT@DV?$StrTraitMFC_DLL@DV?$ChTraitsCRT@D@ATL@@@@@ATL@@AAV23@V23@@Z ; CDataConverter::Parser

; 326  : 																	// 00:                    
; 327  : 																	// 10:                  
; 328  : 																	// 11:              
; 329  : 																	// 20:                  
; 330  : 																	// 21:              
; 331  : 																	// 30:                  
; 332  : 																	// 40:                        
; 333  : 																	// 50:              
; 334  : 																	// 60:          
; 335  : 																	// 65:              
; 336  : 																	// 70:                
; 337  : 																	// 80:                
; 338  : 																	// 90:                    
; 339  : 																	// 99:              
; 340  : 	CString strJangStart = CDataConverter::Parser(strSrc, sCELL);   // (HHMM)

  00785	83 c4 08	 add	 esp, 8
  00788	c6 45 fc 16	 mov	 BYTE PTR __$EHRec$[ebp+8], 22 ; 00000016H
  0078c	8b cc		 mov	 ecx, esp
  0078e	6a 01		 push	 1
  00790	6a 09		 push	 9
  00792	ff 15 00 00 00
	00		 call	 DWORD PTR __imp_??0?$CStringT@DV?$StrTraitMFC_DLL@DV?$ChTraitsCRT@D@ATL@@@@@ATL@@QAE@DH@Z
  00798	8d 85 f4 fc ff
	ff		 lea	 eax, DWORD PTR _strSrc$[ebp]
  0079e	50		 push	 eax
  0079f	8d 85 d4 fc ff
	ff		 lea	 eax, DWORD PTR _strJangStart$[ebp]
  007a5	50		 push	 eax
  007a6	e8 00 00 00 00	 call	 ?Parser@CDataConverter@@SA?AV?$CStringT@DV?$StrTraitMFC_DLL@DV?$ChTraitsCRT@D@ATL@@@@@ATL@@AAV23@V23@@Z ; CDataConverter::Parser

; 341  : 	CString strJangEnd   = CDataConverter::Parser(strSrc, sCELL);   // (HHMM)

  007ab	83 c4 08	 add	 esp, 8
  007ae	c6 45 fc 17	 mov	 BYTE PTR __$EHRec$[ebp+8], 23 ; 00000017H
  007b2	8b cc		 mov	 ecx, esp
  007b4	6a 01		 push	 1
  007b6	6a 09		 push	 9
  007b8	ff 15 00 00 00
	00		 call	 DWORD PTR __imp_??0?$CStringT@DV?$StrTraitMFC_DLL@DV?$ChTraitsCRT@D@ATL@@@@@ATL@@QAE@DH@Z
  007be	8d 85 f4 fc ff
	ff		 lea	 eax, DWORD PTR _strSrc$[ebp]
  007c4	50		 push	 eax
  007c5	8d 85 6c fc ff
	ff		 lea	 eax, DWORD PTR _strJangEnd$[ebp]
  007cb	50		 push	 eax
  007cc	e8 00 00 00 00	 call	 ?Parser@CDataConverter@@SA?AV?$CStringT@DV?$StrTraitMFC_DLL@DV?$ChTraitsCRT@D@ATL@@@@@ATL@@AAV23@V23@@Z ; CDataConverter::Parser
  007d1	83 c4 0c	 add	 esp, 12			; 0000000cH

; 342  : 	strJangStart.TrimRight();

  007d4	8d 8d d4 fc ff
	ff		 lea	 ecx, DWORD PTR _strJangStart$[ebp]
  007da	c6 45 fc 18	 mov	 BYTE PTR __$EHRec$[ebp+8], 24 ; 00000018H
  007de	ff 15 00 00 00
	00		 call	 DWORD PTR __imp_?TrimRight@?$CStringT@DV?$StrTraitMFC_DLL@DV?$ChTraitsCRT@D@ATL@@@@@ATL@@QAEAAV12@XZ

; 343  : 	strJangEnd.TrimRight();

  007e4	8d 8d 6c fc ff
	ff		 lea	 ecx, DWORD PTR _strJangEnd$[ebp]
  007ea	ff 15 00 00 00
	00		 call	 DWORD PTR __imp_?TrimRight@?$CStringT@DV?$StrTraitMFC_DLL@DV?$ChTraitsCRT@D@ATL@@@@@ATL@@QAEAAV12@XZ

; 344  : 	
; 345  : 	BOOL bSetReal = FALSE;
; 346  : 	if(strRealState.Compare("00") == 0 || strRealState.Compare("10") == 0 || strRealState.Compare("11") == 0 || strRealState.Compare("50") == 0)

  007f0	68 00 00 00 00	 push	 OFFSET ??_C@_02PLJDPFIO@00@
  007f5	8d 8d c4 fc ff
	ff		 lea	 ecx, DWORD PTR _strRealState$[ebp]
  007fb	c7 85 f8 fc ff
	ff 00 00 00 00	 mov	 DWORD PTR _bSetReal$1$[ebp], 0
  00805	ff 15 00 00 00
	00		 call	 DWORD PTR __imp_?Compare@?$CStringT@DV?$StrTraitMFC_DLL@DV?$ChTraitsCRT@D@ATL@@@@@ATL@@QBEHPBD@Z
  0080b	85 c0		 test	 eax, eax
  0080d	74 3f		 je	 SHORT $LN17@Convert2St
  0080f	68 00 00 00 00	 push	 OFFSET ??_C@_02PKFBJPLJ@10@
  00814	8d 8d c4 fc ff
	ff		 lea	 ecx, DWORD PTR _strRealState$[ebp]
  0081a	ff 15 00 00 00
	00		 call	 DWORD PTR __imp_?Compare@?$CStringT@DV?$StrTraitMFC_DLL@DV?$ChTraitsCRT@D@ATL@@@@@ATL@@QBEHPBD@Z
  00820	85 c0		 test	 eax, eax
  00822	74 2a		 je	 SHORT $LN17@Convert2St
  00824	68 00 00 00 00	 push	 OFFSET ??_C@_02ODEKKOPI@11@
  00829	8d 8d c4 fc ff
	ff		 lea	 ecx, DWORD PTR _strRealState$[ebp]
  0082f	ff 15 00 00 00
	00		 call	 DWORD PTR __imp_?Compare@?$CStringT@DV?$StrTraitMFC_DLL@DV?$ChTraitsCRT@D@ATL@@@@@ATL@@QBEHPBD@Z
  00835	85 c0		 test	 eax, eax
  00837	74 15		 je	 SHORT $LN17@Convert2St
  00839	68 00 00 00 00	 push	 OFFSET ??_C@_02PNFIDHGF@50@
  0083e	8d 8d c4 fc ff
	ff		 lea	 ecx, DWORD PTR _strRealState$[ebp]
  00844	ff 15 00 00 00
	00		 call	 DWORD PTR __imp_?Compare@?$CStringT@DV?$StrTraitMFC_DLL@DV?$ChTraitsCRT@D@ATL@@@@@ATL@@QBEHPBD@Z
  0084a	85 c0		 test	 eax, eax
  0084c	75 0a		 jne	 SHORT $LN16@Convert2St
$LN17@Convert2St:

; 347  : 		bSetReal = TRUE;

  0084e	c7 85 f8 fc ff
	ff 01 00 00 00	 mov	 DWORD PTR _bSetReal$1$[ebp], 1
$LN16@Convert2St:
; File C:\Program Files (x86)\Microsoft Visual Studio\2019\Community\VC\Tools\MSVC\14.29.30133\atlmfc\include\atlsimpstr.h

; 519  : 		return( GetData()->nDataLength );

  00858	8b 85 d4 fc ff
	ff		 mov	 eax, DWORD PTR _strJangStart$[ebp]
; File D:\git\src\IBK\IBK_DRFN\ProjSrc\SrcDrfn\DrCommon\PartnerMng\ChartItemUpjong.cpp

; 349  : 	if(strJangStart.GetLength() == 4)	strJangStart += "00";

  0085e	83 78 f4 04	 cmp	 DWORD PTR [eax-12], 4
  00862	75 11		 jne	 SHORT $LN18@Convert2St
  00864	68 00 00 00 00	 push	 OFFSET ??_C@_02PLJDPFIO@00@
  00869	8d 8d d4 fc ff
	ff		 lea	 ecx, DWORD PTR _strJangStart$[ebp]
  0086f	ff 15 00 00 00
	00		 call	 DWORD PTR __imp_??Y?$CStringT@DV?$StrTraitMFC_DLL@DV?$ChTraitsCRT@D@ATL@@@@@ATL@@QAEAAV01@PBD@Z
$LN18@Convert2St:

; 350  : 
; 351  : 
; 352  : 	CString strResetTime = "";

  00875	68 00 00 00 00	 push	 OFFSET ??_C@_00CNPNBAHC@@
  0087a	8d 8d 70 fc ff
	ff		 lea	 ecx, DWORD PTR _strResetTime$[ebp]
  00880	ff 15 00 00 00
	00		 call	 DWORD PTR __imp_??0?$CStringT@DV?$StrTraitMFC_DLL@DV?$ChTraitsCRT@D@ATL@@@@@ATL@@QAE@PBD@Z

; 353  : 	if(bSetReal)

  00886	83 bd f8 fc ff
	ff 00		 cmp	 DWORD PTR _bSetReal$1$[ebp], 0
  0088d	c6 45 fc 19	 mov	 BYTE PTR __$EHRec$[ebp+8], 25 ; 00000019H
  00891	74 13		 je	 SHORT $LN19@Convert2St

; 354  : 	{
; 355  : 		strResetTime = strJangStart;

  00893	8d 85 d4 fc ff
	ff		 lea	 eax, DWORD PTR _strJangStart$[ebp]
  00899	50		 push	 eax
  0089a	8d 8d 70 fc ff
	ff		 lea	 ecx, DWORD PTR _strResetTime$[ebp]
  008a0	ff 15 00 00 00
	00		 call	 DWORD PTR __imp_??4?$CStringT@DV?$StrTraitMFC_DLL@DV?$ChTraitsCRT@D@ATL@@@@@ATL@@QAEAAV01@ABV01@@Z
$LN19@Convert2St:

; 356  : 	}
; 357  : 	CString strBaseTime = strJangStart;

  008a6	8d 85 d4 fc ff
	ff		 lea	 eax, DWORD PTR _strJangStart$[ebp]
  008ac	50		 push	 eax
  008ad	8d 8d 54 fc ff
	ff		 lea	 ecx, DWORD PTR _strBaseTime$[ebp]
  008b3	ff 15 00 00 00
	00		 call	 DWORD PTR __imp_??0?$CStringT@DV?$StrTraitMFC_DLL@DV?$ChTraitsCRT@D@ATL@@@@@ATL@@QAE@ABV01@@Z

; 358  : 	CString strMarketTime;

  008b9	8d 8d 74 fc ff
	ff		 lea	 ecx, DWORD PTR _strMarketTime$[ebp]
  008bf	ff 15 00 00 00
	00		 call	 DWORD PTR __imp_??0?$CStringT@DV?$StrTraitMFC_DLL@DV?$ChTraitsCRT@D@ATL@@@@@ATL@@QAE@XZ

; 359  : 	strMarketTime.Format("%4.4s00|%4.4s00", strJangStart, strJangEnd);

  008c5	ff b5 6c fc ff
	ff		 push	 DWORD PTR _strJangEnd$[ebp]
  008cb	8d 85 74 fc ff
	ff		 lea	 eax, DWORD PTR _strMarketTime$[ebp]
  008d1	c6 45 fc 1b	 mov	 BYTE PTR __$EHRec$[ebp+8], 27 ; 0000001bH
  008d5	ff b5 d4 fc ff
	ff		 push	 DWORD PTR _strJangStart$[ebp]
  008db	68 00 00 00 00	 push	 OFFSET ??_C@_0BA@PKAGJNBB@?$CF4?44s00?$HM?$CF4?44s00@
  008e0	50		 push	 eax
  008e1	ff d6		 call	 esi

; 360  : 
; 361  : 	//KHD : NextKey
; 362  : 	CString strNextKey = CDataConverter::Parser(strSrc, sCELL);

  008e3	83 c4 0c	 add	 esp, 12			; 0000000cH
  008e6	8b cc		 mov	 ecx, esp
  008e8	6a 01		 push	 1
  008ea	6a 09		 push	 9
  008ec	ff 15 00 00 00
	00		 call	 DWORD PTR __imp_??0?$CStringT@DV?$StrTraitMFC_DLL@DV?$ChTraitsCRT@D@ATL@@@@@ATL@@QAE@DH@Z
  008f2	8d 85 f4 fc ff
	ff		 lea	 eax, DWORD PTR _strSrc$[ebp]
  008f8	50		 push	 eax
  008f9	8d 85 ac fc ff
	ff		 lea	 eax, DWORD PTR _strNextKey$[ebp]
  008ff	50		 push	 eax
  00900	e8 00 00 00 00	 call	 ?Parser@CDataConverter@@SA?AV?$CStringT@DV?$StrTraitMFC_DLL@DV?$ChTraitsCRT@D@ATL@@@@@ATL@@AAV23@V23@@Z ; CDataConverter::Parser
  00905	83 c4 0c	 add	 esp, 12			; 0000000cH

; 363  : 
; 364  : 	int nSize, nCnt, nType;
; 365  : 	strNode = CString(m_InData.Sbtngb, sizeof(m_InData.Sbtngb)); // (0)/(1)/(2)/(3)/(4)

  00908	8b 85 cc fc ff
	ff		 mov	 eax, DWORD PTR _this$GSCopy$1$[ebp]
  0090e	8d 8d f8 fc ff
	ff		 lea	 ecx, DWORD PTR $T30[ebp]
  00914	6a 01		 push	 1
  00916	83 c0 17	 add	 eax, 23			; 00000017H
  00919	c6 45 fc 1c	 mov	 BYTE PTR __$EHRec$[ebp+8], 28 ; 0000001cH
  0091d	50		 push	 eax
  0091e	ff 15 00 00 00
	00		 call	 DWORD PTR __imp_??0?$CStringT@DV?$StrTraitMFC_DLL@DV?$ChTraitsCRT@D@ATL@@@@@ATL@@QAE@PBDH@Z
  00924	50		 push	 eax
  00925	8d 8d fc fc ff
	ff		 lea	 ecx, DWORD PTR _strNode$[ebp]
  0092b	c6 45 fc 1d	 mov	 BYTE PTR __$EHRec$[ebp+8], 29 ; 0000001dH
  0092f	ff 15 00 00 00
	00		 call	 DWORD PTR __imp_??4?$CStringT@DV?$StrTraitMFC_DLL@DV?$ChTraitsCRT@D@ATL@@@@@ATL@@QAEAAV01@ABV01@@Z
  00935	8d 8d f8 fc ff
	ff		 lea	 ecx, DWORD PTR $T30[ebp]
  0093b	c6 45 fc 1c	 mov	 BYTE PTR __$EHRec$[ebp+8], 28 ; 0000001cH
  0093f	ff 15 00 00 00
	00		 call	 DWORD PTR __imp_??1?$CStringT@DV?$StrTraitMFC_DLL@DV?$ChTraitsCRT@D@ATL@@@@@ATL@@QAE@XZ

; 366  : 	nType = atoi(strNode);

  00945	ff b5 fc fc ff
	ff		 push	 DWORD PTR _strNode$[ebp]
  0094b	ff 15 00 00 00
	00		 call	 DWORD PTR __imp__atoi
  00951	83 c4 04	 add	 esp, 4
  00954	89 85 b0 fc ff
	ff		 mov	 DWORD PTR _nType$1$[ebp], eax

; 367  : 	if(nType == 0) // 

  0095a	85 c0		 test	 eax, eax
  0095c	75 05		 jne	 SHORT $LN20@Convert2St

; 368  : 		nSize = sizeof(szTickRowFieldUJ)/sizeof(char*);

  0095e	8d 70 08	 lea	 esi, DWORD PTR [eax+8]
  00961	eb 1d		 jmp	 SHORT $LN24@Convert2St
$LN20@Convert2St:

; 369  : 	else if(nType == 1) //

  00963	83 f8 01	 cmp	 eax, 1
  00966	75 05		 jne	 SHORT $LN22@Convert2St

; 370  : 		nSize = sizeof(szMinRowFieldUJ)/sizeof(char*);

  00968	8d 70 07	 lea	 esi, DWORD PTR [eax+7]
  0096b	eb 13		 jmp	 SHORT $LN24@Convert2St
$LN22@Convert2St:

; 371  : 	else if(nType == 6) //

  0096d	33 c9		 xor	 ecx, ecx
  0096f	83 f8 06	 cmp	 eax, 6
  00972	0f 94 c1	 sete	 cl
  00975	83 c1 07	 add	 ecx, 7
  00978	89 8d f8 fc ff
	ff		 mov	 DWORD PTR _nSize$1$[ebp], ecx
  0097e	8b f1		 mov	 esi, ecx
$LN24@Convert2St:

; 372  : 		nSize = sizeof(szSecRowFieldUJ)/sizeof(char*);
; 373  : 	else		// , , , 
; 374  : 		nSize = sizeof(szDayRowFieldUJ)/sizeof(char*);
; 375  : 	
; 376  : 	//  
; 377  : 	GRAPH_IO gridOut;
; 378  : 	strNode = strSrc.Left(sizeof(gridOut));

  00980	68 88 00 00 00	 push	 136			; 00000088H
  00985	8d 85 f8 fc ff
	ff		 lea	 eax, DWORD PTR $T29[ebp]
  0098b	50		 push	 eax
  0098c	8d 8d f4 fc ff
	ff		 lea	 ecx, DWORD PTR _strSrc$[ebp]
  00992	ff 15 00 00 00
	00		 call	 DWORD PTR __imp_?Left@?$CStringT@DV?$StrTraitMFC_DLL@DV?$ChTraitsCRT@D@ATL@@@@@ATL@@QBE?AV12@H@Z
  00998	50		 push	 eax
  00999	8d 8d fc fc ff
	ff		 lea	 ecx, DWORD PTR _strNode$[ebp]
  0099f	c6 45 fc 1e	 mov	 BYTE PTR __$EHRec$[ebp+8], 30 ; 0000001eH
  009a3	ff 15 00 00 00
	00		 call	 DWORD PTR __imp_??4?$CStringT@DV?$StrTraitMFC_DLL@DV?$ChTraitsCRT@D@ATL@@@@@ATL@@QAEAAV01@ABV01@@Z
  009a9	8d 8d f8 fc ff
	ff		 lea	 ecx, DWORD PTR $T29[ebp]
  009af	c6 45 fc 1c	 mov	 BYTE PTR __$EHRec$[ebp+8], 28 ; 0000001cH
  009b3	ff 15 00 00 00
	00		 call	 DWORD PTR __imp_??1?$CStringT@DV?$StrTraitMFC_DLL@DV?$ChTraitsCRT@D@ATL@@@@@ATL@@QAE@XZ

; 379  : 	memcpy(&gridOut, strNode, sizeof(gridOut)); 
; 380  : 	
; 381  : 	strSrc = strSrc.Mid(sizeof(gridOut));

  009b9	68 88 00 00 00	 push	 136			; 00000088H
  009be	8d 85 f8 fc ff
	ff		 lea	 eax, DWORD PTR $T28[ebp]
  009c4	50		 push	 eax
  009c5	8d 8d f4 fc ff
	ff		 lea	 ecx, DWORD PTR _strSrc$[ebp]
  009cb	ff 15 00 00 00
	00		 call	 DWORD PTR __imp_?Mid@?$CStringT@DV?$StrTraitMFC_DLL@DV?$ChTraitsCRT@D@ATL@@@@@ATL@@QBE?AV12@H@Z
  009d1	50		 push	 eax
  009d2	8d 8d f4 fc ff
	ff		 lea	 ecx, DWORD PTR _strSrc$[ebp]
  009d8	c6 45 fc 1f	 mov	 BYTE PTR __$EHRec$[ebp+8], 31 ; 0000001fH
  009dc	ff 15 00 00 00
	00		 call	 DWORD PTR __imp_??4?$CStringT@DV?$StrTraitMFC_DLL@DV?$ChTraitsCRT@D@ATL@@@@@ATL@@QAEAAV01@ABV01@@Z
  009e2	8d 8d f8 fc ff
	ff		 lea	 ecx, DWORD PTR $T28[ebp]
  009e8	c6 45 fc 1c	 mov	 BYTE PTR __$EHRec$[ebp+8], 28 ; 0000001cH
  009ec	ff 15 00 00 00
	00		 call	 DWORD PTR __imp_??1?$CStringT@DV?$StrTraitMFC_DLL@DV?$ChTraitsCRT@D@ATL@@@@@ATL@@QAE@XZ

; 382  : 	//091027-alzioyes. DRFN   . .
; 383  : 	strSrc.Remove('.');

  009f2	6a 2e		 push	 46			; 0000002eH
  009f4	8d 8d f4 fc ff
	ff		 lea	 ecx, DWORD PTR _strSrc$[ebp]
  009fa	ff 15 00 00 00
	00		 call	 DWORD PTR __imp_?Remove@?$CStringT@DV?$StrTraitMFC_DLL@DV?$ChTraitsCRT@D@ATL@@@@@ATL@@QAEHD@Z
; File C:\Program Files (x86)\Microsoft Visual Studio\2019\Community\VC\Tools\MSVC\14.29.30133\atlmfc\include\cstringt.h

; 2486 : 		return(str1.Compare(psz2) == 0);

  00a00	68 00 00 00 00	 push	 OFFSET ??_C@_0P@FLGGHACJ@99999999999999@
  00a05	8d 8d ac fc ff
	ff		 lea	 ecx, DWORD PTR _strNextKey$[ebp]
  00a0b	ff 15 00 00 00
	00		 call	 DWORD PTR __imp_?Compare@?$CStringT@DV?$StrTraitMFC_DLL@DV?$ChTraitsCRT@D@ATL@@@@@ATL@@QBEHPBD@Z
  00a11	85 c0		 test	 eax, eax
; File D:\git\src\IBK\IBK_DRFN\ProjSrc\SrcDrfn\DrCommon\PartnerMng\ChartItemUpjong.cpp

; 385  : 	if (strNextKey =="99999999999999" || atoi(strNextKey) == 0)// 9 14  .  

  00a13	74 39		 je	 SHORT $LN28@Convert2St
  00a15	ff b5 ac fc ff
	ff		 push	 DWORD PTR _strNextKey$[ebp]
  00a1b	ff 15 00 00 00
	00		 call	 DWORD PTR __imp__atoi
  00a21	83 c4 04	 add	 esp, 4
  00a24	85 c0		 test	 eax, eax
  00a26	74 26		 je	 SHORT $LN28@Convert2St
; File C:\Program Files (x86)\Microsoft Visual Studio\2019\Community\VC\Tools\MSVC\14.29.30133\atlmfc\include\atlsimpstr.h

; 519  : 		return( GetData()->nDataLength );

  00a28	8b 85 ac fc ff
	ff		 mov	 eax, DWORD PTR _strNextKey$[ebp]
; File D:\git\src\IBK\IBK_DRFN\ProjSrc\SrcDrfn\DrCommon\PartnerMng\ChartItemUpjong.cpp

; 388  : 		memcpy(stOut.nkey, (LPCTSTR)strNextKey, min(sizeof(stOut.nkey),strNextKey.GetLength()));

  00a2e	ba 1c 00 00 00	 mov	 edx, 28			; 0000001cH
; File C:\Program Files (x86)\Microsoft Visual Studio\2019\Community\VC\Tools\MSVC\14.29.30133\atlmfc\include\atlsimpstr.h

; 519  : 		return( GetData()->nDataLength );

  00a33	8b 48 f4	 mov	 ecx, DWORD PTR [eax-12]
; File D:\git\src\IBK\IBK_DRFN\ProjSrc\SrcDrfn\DrCommon\PartnerMng\ChartItemUpjong.cpp

; 388  : 		memcpy(stOut.nkey, (LPCTSTR)strNextKey, min(sizeof(stOut.nkey),strNextKey.GetLength()));

  00a36	3b ca		 cmp	 ecx, edx
  00a38	0f 47 ca	 cmova	 ecx, edx
  00a3b	51		 push	 ecx
  00a3c	50		 push	 eax
  00a3d	8d 85 4d fd ff
	ff		 lea	 eax, DWORD PTR _stOut$[ebp+77]
  00a43	50		 push	 eax
  00a44	e8 00 00 00 00	 call	 _memcpy
  00a49	83 c4 0c	 add	 esp, 12			; 0000000cH
  00a4c	eb 20		 jmp	 SHORT $LN27@Convert2St
$LN28@Convert2St:

; 386  : 		memset(stOut.nkey, 0x20, sizeof(stOut.nkey));

  00a4e	0f 28 05 00 00
	00 00		 movaps	 xmm0, XMMWORD PTR __xmm@20202020202020202020202020202020
  00a55	0f 11 85 4d fd
	ff ff		 movups	 XMMWORD PTR _stOut$[ebp+77], xmm0
  00a5c	c7 85 65 fd ff
	ff 20 20 20 20	 mov	 DWORD PTR _stOut$[ebp+101], 538976288 ; 20202020H
  00a66	66 0f d6 85 5d
	fd ff ff	 movq	 QWORD PTR _stOut$[ebp+93], xmm0
$LN27@Convert2St:

; 391  : 	CStringArray arrNode;

  00a6e	8d 8d 90 fc ff
	ff		 lea	 ecx, DWORD PTR _arrNode$[ebp]
  00a74	e8 00 00 00 00	 call	 ??0CStringArray@@QAE@XZ	; CStringArray::CStringArray
; File C:\Program Files (x86)\Microsoft Visual Studio\2019\Community\VC\Tools\MSVC\14.29.30133\atlmfc\include\atlsimpstr.h

; 519  : 		return( GetData()->nDataLength );

  00a79	8b 85 f4 fc ff
	ff		 mov	 eax, DWORD PTR _strSrc$[ebp]
; File D:\git\src\IBK\IBK_DRFN\ProjSrc\SrcDrfn\DrCommon\PartnerMng\ChartItemUpjong.cpp

; 391  : 	CStringArray arrNode;

  00a7f	c6 45 fc 20	 mov	 BYTE PTR __$EHRec$[ebp+8], 32 ; 00000020H
; File C:\Program Files (x86)\Microsoft Visual Studio\2019\Community\VC\Tools\MSVC\14.29.30133\atlmfc\include\atlsimpstr.h

; 533  : 		return( GetLength() == 0 );

  00a83	83 78 f4 00	 cmp	 DWORD PTR [eax-12], 0
; File D:\git\src\IBK\IBK_DRFN\ProjSrc\SrcDrfn\DrCommon\PartnerMng\ChartItemUpjong.cpp

; 393  : 	while(strSrc.IsEmpty() == FALSE)

  00a87	0f 84 90 00 00
	00		 je	 $LN3@Convert2St
  00a8d	bf 01 00 00 00	 mov	 edi, 1
$LL2@Convert2St:

; 394  : 	{	
; 395  : 		strNode = CDataConverter::Parser(strSrc, (nNodeIndex == nSize)?sROW:sCELL);

  00a92	3b fe		 cmp	 edi, esi
  00a94	51		 push	 ecx
  00a95	0f 94 c0	 sete	 al
  00a98	8b cc		 mov	 ecx, esp
  00a9a	04 09		 add	 al, 9
  00a9c	6a 01		 push	 1
  00a9e	0f b6 c0	 movzx	 eax, al
  00aa1	50		 push	 eax
  00aa2	ff 15 00 00 00
	00		 call	 DWORD PTR __imp_??0?$CStringT@DV?$StrTraitMFC_DLL@DV?$ChTraitsCRT@D@ATL@@@@@ATL@@QAE@DH@Z
  00aa8	8d 85 f4 fc ff
	ff		 lea	 eax, DWORD PTR _strSrc$[ebp]
  00aae	50		 push	 eax
  00aaf	8d 85 f8 fc ff
	ff		 lea	 eax, DWORD PTR $T27[ebp]
  00ab5	50		 push	 eax
  00ab6	e8 00 00 00 00	 call	 ?Parser@CDataConverter@@SA?AV?$CStringT@DV?$StrTraitMFC_DLL@DV?$ChTraitsCRT@D@ATL@@@@@ATL@@AAV23@V23@@Z ; CDataConverter::Parser
  00abb	83 c4 0c	 add	 esp, 12			; 0000000cH
  00abe	50		 push	 eax
  00abf	8d 8d fc fc ff
	ff		 lea	 ecx, DWORD PTR _strNode$[ebp]
  00ac5	c6 45 fc 21	 mov	 BYTE PTR __$EHRec$[ebp+8], 33 ; 00000021H
  00ac9	ff 15 00 00 00
	00		 call	 DWORD PTR __imp_??4?$CStringT@DV?$StrTraitMFC_DLL@DV?$ChTraitsCRT@D@ATL@@@@@ATL@@QAEAAV01@ABV01@@Z
  00acf	8d 8d f8 fc ff
	ff		 lea	 ecx, DWORD PTR $T27[ebp]
  00ad5	c6 45 fc 20	 mov	 BYTE PTR __$EHRec$[ebp+8], 32 ; 00000020H
  00ad9	ff 15 00 00 00
	00		 call	 DWORD PTR __imp_??1?$CStringT@DV?$StrTraitMFC_DLL@DV?$ChTraitsCRT@D@ATL@@@@@ATL@@QAE@XZ
; File C:\Program Files (x86)\Microsoft Visual Studio\2019\Community\VC\Tools\MSVC\14.29.30133\atlmfc\include\afxcoll.inl

; 321  : 		SetAtGrow(nIndex, newElement);

  00adf	8d 85 fc fc ff
	ff		 lea	 eax, DWORD PTR _strNode$[ebp]
  00ae5	50		 push	 eax
  00ae6	ff b5 98 fc ff
	ff		 push	 DWORD PTR _arrNode$[ebp+8]
  00aec	8d 8d 90 fc ff
	ff		 lea	 ecx, DWORD PTR _arrNode$[ebp]
  00af2	e8 00 00 00 00	 call	 ?SetAtGrow@CStringArray@@QAEXHABV?$CStringT@DV?$StrTraitMFC_DLL@DV?$ChTraitsCRT@D@ATL@@@@@ATL@@@Z ; CStringArray::SetAtGrow
; File C:\Program Files (x86)\Microsoft Visual Studio\2019\Community\VC\Tools\MSVC\14.29.30133\atlmfc\include\atlsimpstr.h

; 519  : 		return( GetData()->nDataLength );

  00af7	8b 85 f4 fc ff
	ff		 mov	 eax, DWORD PTR _strSrc$[ebp]
  00afd	3b fe		 cmp	 edi, esi
  00aff	b9 01 00 00 00	 mov	 ecx, 1
  00b04	8b 50 f4	 mov	 edx, DWORD PTR [eax-12]
  00b07	8d 47 01	 lea	 eax, DWORD PTR [edi+1]
  00b0a	0f 45 c8	 cmovne	 ecx, eax
  00b0d	8b f9		 mov	 edi, ecx

; 533  : 		return( GetLength() == 0 );

  00b0f	85 d2		 test	 edx, edx
; File D:\git\src\IBK\IBK_DRFN\ProjSrc\SrcDrfn\DrCommon\PartnerMng\ChartItemUpjong.cpp

; 393  : 	while(strSrc.IsEmpty() == FALSE)

  00b11	0f 85 7b ff ff
	ff		 jne	 $LL2@Convert2St
  00b17	8b bd e4 fc ff
	ff		 mov	 edi, DWORD PTR $T21[ebp]
$LN3@Convert2St:

; 396  : 	//	strNode.TrimLeft(); strNode.TrimRight();
; 397  : 		arrNode.Add(strNode);
; 398  : 
; 399  : 		if(nNodeIndex == nSize) nNodeIndex = 1;
; 400  : 		else nNodeIndex++;
; 401  : 	}
; 402  : 
; 403  : 	//    
; 404  : 	nCnt = arrNode.GetSize()/ nSize;

  00b1d	8b 85 98 fc ff
	ff		 mov	 eax, DWORD PTR _arrNode$[ebp+8]
  00b23	99		 cdq
  00b24	f7 fe		 idiv	 esi
  00b26	8b f0		 mov	 esi, eax

; 405  : 	strNode.Format("%05d", nCnt);

  00b28	8d 85 fc fc ff
	ff		 lea	 eax, DWORD PTR _strNode$[ebp]
  00b2e	56		 push	 esi
  00b2f	68 00 00 00 00	 push	 OFFSET ??_C@_04ODOGNJOP@?$CF05d@
  00b34	50		 push	 eax
  00b35	89 b5 d0 fc ff
	ff		 mov	 DWORD PTR _nCnt$1$[ebp], esi
  00b3b	ff 15 00 00 00
	00		 call	 DWORD PTR __imp_?Format@?$CStringT@DV?$StrTraitMFC_DLL@DV?$ChTraitsCRT@D@ATL@@@@@ATL@@QAAXPBDZZ

; 406  : 	memcpy(stOut.fcnt, strNode, sizeof(stOut.fcnt));

  00b41	8b 8d fc fc ff
	ff		 mov	 ecx, DWORD PTR _strNode$[ebp]
  00b47	83 c4 0c	 add	 esp, 12			; 0000000cH

; 407  : 
; 408  : 	//   
; 409  : 	int nBongSize = sizeof(KB_p0603_OutRec2);
; 410  : 	int nBufSize = sizeof(KB_p0603_OutRec1_EX) + nBongSize * nCnt;

  00b4a	6b f6 4d	 imul	 esi, esi, 77
  00b4d	8a 41 04	 mov	 al, BYTE PTR [ecx+4]
  00b50	8b 11		 mov	 edx, DWORD PTR [ecx]

; 411  : 	int	nPosBong = sizeof(KB_p0603_OutRec1_EX);
; 412  : 
; 413  : 	nDataLen = nBufSize;
; 414  : 	
; 415  : 	CString strDate, strTime;

  00b52	8d 8d dc fc ff
	ff		 lea	 ecx, DWORD PTR _strDate$[ebp]
  00b58	88 85 6d fd ff
	ff		 mov	 BYTE PTR _stOut$[ebp+109], al
  00b5e	81 c6 fe 01 00
	00		 add	 esi, 510		; 000001feH
  00b64	8b 85 c0 fc ff
	ff		 mov	 eax, DWORD PTR _nDataLen$GSCopy$1$[ebp]
  00b6a	89 95 69 fd ff
	ff		 mov	 DWORD PTR _stOut$[ebp+105], edx
  00b70	89 30		 mov	 DWORD PTR [eax], esi
  00b72	ff 15 00 00 00
	00		 call	 DWORD PTR __imp_??0?$CStringT@DV?$StrTraitMFC_DLL@DV?$ChTraitsCRT@D@ATL@@@@@ATL@@QAE@XZ
  00b78	8d 8d c8 fc ff
	ff		 lea	 ecx, DWORD PTR _strTime$[ebp]
  00b7e	ff 15 00 00 00
	00		 call	 DWORD PTR __imp_??0?$CStringT@DV?$StrTraitMFC_DLL@DV?$ChTraitsCRT@D@ATL@@@@@ATL@@QAE@XZ

; 416  : 	char* pDataBuf = new char[nBufSize+1];

  00b84	8d 46 01	 lea	 eax, DWORD PTR [esi+1]
  00b87	c6 45 fc 23	 mov	 BYTE PTR __$EHRec$[ebp+8], 35 ; 00000023H
  00b8b	50		 push	 eax
  00b8c	e8 00 00 00 00	 call	 ??_U@YAPAXI@Z		; operator new[]

; 417  : 	KB_p0603_OutRec2 stFirstBong, stBong;
; 418  : 
; 419  : 	double dValue=0;
; 420  : 	int nIndex = 0;

  00b91	33 f6		 xor	 esi, esi
  00b93	89 85 a4 fc ff
	ff		 mov	 DWORD PTR _pDataBuf$1$[ebp], eax
  00b99	83 c4 04	 add	 esp, 4

; 421  : 	int nRow = 0;
; 422  : 	for( nRow = 0; nRow < nCnt; nRow++)

  00b9c	89 b5 f8 fc ff
	ff		 mov	 DWORD PTR _nRow$1$[ebp], esi
  00ba2	39 b5 d0 fc ff
	ff		 cmp	 DWORD PTR _nCnt$1$[ebp], esi
  00ba8	0f 8e 3b 06 00
	00		 jle	 $LN501@Convert2St
  00bae	66 90		 npad	 2
$LL6@Convert2St:

; 423  : 	{
; 424  : 		memset(&stBong, 0x20, sizeof(stBong));

  00bb0	6a 4d		 push	 77			; 0000004dH
  00bb2	8d 45 a0	 lea	 eax, DWORD PTR _stBong$[ebp]
  00bb5	6a 20		 push	 32			; 00000020H
  00bb7	50		 push	 eax
  00bb8	e8 00 00 00 00	 call	 _memset
  00bbd	83 c4 0c	 add	 esp, 12			; 0000000cH
; File C:\Program Files (x86)\Microsoft Visual Studio\2019\Community\VC\Tools\MSVC\14.29.30133\atlmfc\include\afxcoll.inl

; 289  : 		if( nIndex < 0 || nIndex >= m_nSize )

  00bc0	85 f6		 test	 esi, esi
  00bc2	0f 88 08 0d 00
	00		 js	 $LN281@Convert2St
  00bc8	3b b5 98 fc ff
	ff		 cmp	 esi, DWORD PTR _arrNode$[ebp+8]
  00bce	0f 8d fc 0c 00
	00		 jge	 $LN281@Convert2St

; 291  : 		return m_pData[nIndex]; }

  00bd4	8b 85 94 fc ff
	ff		 mov	 eax, DWORD PTR _arrNode$[ebp+4]
; File D:\git\src\IBK\IBK_DRFN\ProjSrc\SrcDrfn\DrCommon\PartnerMng\ChartItemUpjong.cpp

; 427  : 		strDate = arrNode.GetAt(nIndex++);

  00bda	8d 8d dc fc ff
	ff		 lea	 ecx, DWORD PTR _strDate$[ebp]
; File C:\Program Files (x86)\Microsoft Visual Studio\2019\Community\VC\Tools\MSVC\14.29.30133\atlmfc\include\afxcoll.inl

; 291  : 		return m_pData[nIndex]; }

  00be0	8d 04 b0	 lea	 eax, DWORD PTR [eax+esi*4]
; File D:\git\src\IBK\IBK_DRFN\ProjSrc\SrcDrfn\DrCommon\PartnerMng\ChartItemUpjong.cpp

; 427  : 		strDate = arrNode.GetAt(nIndex++);

  00be3	50		 push	 eax
  00be4	ff 15 00 00 00
	00		 call	 DWORD PTR __imp_??4?$CStringT@DV?$StrTraitMFC_DLL@DV?$ChTraitsCRT@D@ATL@@@@@ATL@@QAEAAV01@ABV01@@Z

; 428  : 		
; 429  : 		// time : ,, 
; 430  : 		if (nType < 2 || nType == 6)

  00bea	8b 85 b0 fc ff
	ff		 mov	 eax, DWORD PTR _nType$1$[ebp]
  00bf0	46		 inc	 esi
  00bf1	89 b5 f0 fc ff
	ff		 mov	 DWORD PTR _nIndex$1$[ebp], esi
  00bf7	83 f8 02	 cmp	 eax, 2
  00bfa	7c 09		 jl	 SHORT $LN32@Convert2St
  00bfc	83 f8 06	 cmp	 eax, 6
  00bff	0f 85 ad 01 00
	00		 jne	 $LN35@Convert2St
$LN32@Convert2St:
; File C:\Program Files (x86)\Microsoft Visual Studio\2019\Community\VC\Tools\MSVC\14.29.30133\atlmfc\include\afxcoll.inl

; 289  : 		if( nIndex < 0 || nIndex >= m_nSize )

  00c05	3b b5 98 fc ff
	ff		 cmp	 esi, DWORD PTR _arrNode$[ebp+8]
  00c0b	0f 8d bf 0c 00
	00		 jge	 $LN281@Convert2St

; 291  : 		return m_pData[nIndex]; }

  00c11	8b 85 94 fc ff
	ff		 mov	 eax, DWORD PTR _arrNode$[ebp+4]
; File D:\git\src\IBK\IBK_DRFN\ProjSrc\SrcDrfn\DrCommon\PartnerMng\ChartItemUpjong.cpp

; 431  : 			strTime = arrNode.GetAt(nIndex++); 

  00c17	8d 8d c8 fc ff
	ff		 lea	 ecx, DWORD PTR _strTime$[ebp]
; File C:\Program Files (x86)\Microsoft Visual Studio\2019\Community\VC\Tools\MSVC\14.29.30133\atlmfc\include\afxcoll.inl

; 291  : 		return m_pData[nIndex]; }

  00c1d	8d 04 b0	 lea	 eax, DWORD PTR [eax+esi*4]
; File D:\git\src\IBK\IBK_DRFN\ProjSrc\SrcDrfn\DrCommon\PartnerMng\ChartItemUpjong.cpp

; 431  : 			strTime = arrNode.GetAt(nIndex++); 

  00c20	50		 push	 eax
  00c21	ff 15 00 00 00
	00		 call	 DWORD PTR __imp_??4?$CStringT@DV?$StrTraitMFC_DLL@DV?$ChTraitsCRT@D@ATL@@@@@ATL@@QAEAAV01@ABV01@@Z

; 432  : 		
; 433  : 		if (nType == 0) // DDHHMMSS

  00c27	8b 85 b0 fc ff
	ff		 mov	 eax, DWORD PTR _nType$1$[ebp]
  00c2d	46		 inc	 esi
  00c2e	89 b5 f0 fc ff
	ff		 mov	 DWORD PTR _nIndex$1$[ebp], esi
  00c34	8b ce		 mov	 ecx, esi
  00c36	89 8d bc fc ff
	ff		 mov	 DWORD PTR tv2605[ebp], ecx
  00c3c	85 c0		 test	 eax, eax
  00c3e	0f 85 96 00 00
	00		 jne	 $LN33@Convert2St

; 434  : 			strNode = strDate.Right(2) + strTime;

  00c44	6a 02		 push	 2
  00c46	8d 85 3c fc ff
	ff		 lea	 eax, DWORD PTR $T5[ebp]
  00c4c	50		 push	 eax
  00c4d	8d 8d dc fc ff
	ff		 lea	 ecx, DWORD PTR _strDate$[ebp]
  00c53	ff 15 00 00 00
	00		 call	 DWORD PTR __imp_?Right@?$CStringT@DV?$StrTraitMFC_DLL@DV?$ChTraitsCRT@D@ATL@@@@@ATL@@QBE?AV12@H@Z
  00c59	8b f0		 mov	 esi, eax
; File C:\Program Files (x86)\Microsoft Visual Studio\2019\Community\VC\Tools\MSVC\14.29.30133\atlmfc\include\cstringt.h

; 2390 : 		CStringT strResult( str1.GetManager() );

  00c5b	8b ce		 mov	 ecx, esi
; File D:\git\src\IBK\IBK_DRFN\ProjSrc\SrcDrfn\DrCommon\PartnerMng\ChartItemUpjong.cpp

; 434  : 			strNode = strDate.Right(2) + strTime;

  00c5d	c6 45 fc 25	 mov	 BYTE PTR __$EHRec$[ebp+8], 37 ; 00000025H
; File C:\Program Files (x86)\Microsoft Visual Studio\2019\Community\VC\Tools\MSVC\14.29.30133\atlmfc\include\cstringt.h

; 2390 : 		CStringT strResult( str1.GetManager() );

  00c61	ff 15 00 00 00
	00		 call	 DWORD PTR __imp_?GetManager@?$CStringT@DV?$StrTraitMFC_DLL@DV?$ChTraitsCRT@D@ATL@@@@@ATL@@QBEPAUIAtlStringMgr@2@XZ
  00c67	50		 push	 eax
  00c68	8d 8d 88 fc ff
	ff		 lea	 ecx, DWORD PTR $T12[ebp]
  00c6e	ff 15 00 00 00
	00		 call	 DWORD PTR __imp_??0?$CStringT@DV?$StrTraitMFC_DLL@DV?$ChTraitsCRT@D@ATL@@@@@ATL@@QAE@PAUIAtlStringMgr@1@@Z
; File C:\Program Files (x86)\Microsoft Visual Studio\2019\Community\VC\Tools\MSVC\14.29.30133\atlmfc\include\atlsimpstr.h

; 519  : 		return( GetData()->nDataLength );

  00c74	8b 85 c8 fc ff
	ff		 mov	 eax, DWORD PTR _strTime$[ebp]
; File C:\Program Files (x86)\Microsoft Visual Studio\2019\Community\VC\Tools\MSVC\14.29.30133\atlmfc\include\cstringt.h

; 2394 : 		return( strResult );

  00c7a	83 cf 01	 or	 edi, 1
; File C:\Program Files (x86)\Microsoft Visual Studio\2019\Community\VC\Tools\MSVC\14.29.30133\atlmfc\include\atlsimpstr.h

; 519  : 		return( GetData()->nDataLength );

  00c7d	8b 0e		 mov	 ecx, DWORD PTR [esi]
; File C:\Program Files (x86)\Microsoft Visual Studio\2019\Community\VC\Tools\MSVC\14.29.30133\atlmfc\include\cstringt.h

; 2394 : 		return( strResult );

  00c7f	89 bd 78 fc ff
	ff		 mov	 DWORD PTR $T6[ebp], edi
  00c85	ff 70 f4	 push	 DWORD PTR [eax-12]
  00c88	50		 push	 eax
  00c89	ff 71 f4	 push	 DWORD PTR [ecx-12]
  00c8c	8d 85 88 fc ff
	ff		 lea	 eax, DWORD PTR $T12[ebp]
  00c92	51		 push	 ecx
  00c93	50		 push	 eax
  00c94	ff 15 00 00 00
	00		 call	 DWORD PTR __imp_?Concatenate@?$CSimpleStringT@D$00@ATL@@KAXAAV12@PBDH1H@Z
  00c9a	83 c4 14	 add	 esp, 20			; 00000014H
; File D:\git\src\IBK\IBK_DRFN\ProjSrc\SrcDrfn\DrCommon\PartnerMng\ChartItemUpjong.cpp

; 434  : 			strNode = strDate.Right(2) + strTime;

  00c9d	8d 85 88 fc ff
	ff		 lea	 eax, DWORD PTR $T12[ebp]
  00ca3	8d 8d fc fc ff
	ff		 lea	 ecx, DWORD PTR _strNode$[ebp]
  00ca9	50		 push	 eax
  00caa	ff 15 00 00 00
	00		 call	 DWORD PTR __imp_??4?$CStringT@DV?$StrTraitMFC_DLL@DV?$ChTraitsCRT@D@ATL@@@@@ATL@@QAEAAV01@ABV01@@Z
  00cb0	83 e7 fe	 and	 edi, -2			; fffffffeH
  00cb3	8d 8d 88 fc ff
	ff		 lea	 ecx, DWORD PTR $T12[ebp]
  00cb9	89 bd e4 fc ff
	ff		 mov	 DWORD PTR $T21[ebp], edi
  00cbf	ff 15 00 00 00
	00		 call	 DWORD PTR __imp_??1?$CStringT@DV?$StrTraitMFC_DLL@DV?$ChTraitsCRT@D@ATL@@@@@ATL@@QAE@XZ
  00cc5	8d 8d 3c fc ff
	ff		 lea	 ecx, DWORD PTR $T5[ebp]
  00ccb	c6 45 fc 23	 mov	 BYTE PTR __$EHRec$[ebp+8], 35 ; 00000023H
  00ccf	ff 15 00 00 00
	00		 call	 DWORD PTR __imp_??1?$CStringT@DV?$StrTraitMFC_DLL@DV?$ChTraitsCRT@D@ATL@@@@@ATL@@QAE@XZ
  00cd5	e9 82 02 00 00	 jmp	 $LN505@Convert2St
$LN33@Convert2St:

; 435  : 		else if (nType == 1) //MMDDHHMM

  00cda	89 8d f0 fc ff
	ff		 mov	 DWORD PTR _nIndex$1$[ebp], ecx
  00ce0	83 f8 01	 cmp	 eax, 1
  00ce3	0f 85 c9 00 00
	00		 jne	 $LN35@Convert2St

; 436  : 			strNode = strDate.Right(4) + strTime.Left(4);

  00ce9	6a 04		 push	 4
  00ceb	8d 85 34 fc ff
	ff		 lea	 eax, DWORD PTR $T3[ebp]
  00cf1	50		 push	 eax
  00cf2	8d 8d c8 fc ff
	ff		 lea	 ecx, DWORD PTR _strTime$[ebp]
  00cf8	ff 15 00 00 00
	00		 call	 DWORD PTR __imp_?Left@?$CStringT@DV?$StrTraitMFC_DLL@DV?$ChTraitsCRT@D@ATL@@@@@ATL@@QBE?AV12@H@Z
  00cfe	8b f8		 mov	 edi, eax
  00d00	6a 04		 push	 4
  00d02	8d 85 38 fc ff
	ff		 lea	 eax, DWORD PTR $T4[ebp]
  00d08	c6 45 fc 26	 mov	 BYTE PTR __$EHRec$[ebp+8], 38 ; 00000026H
  00d0c	50		 push	 eax
  00d0d	8d 8d dc fc ff
	ff		 lea	 ecx, DWORD PTR _strDate$[ebp]
  00d13	ff 15 00 00 00
	00		 call	 DWORD PTR __imp_?Right@?$CStringT@DV?$StrTraitMFC_DLL@DV?$ChTraitsCRT@D@ATL@@@@@ATL@@QBE?AV12@H@Z
  00d19	8b f0		 mov	 esi, eax
; File C:\Program Files (x86)\Microsoft Visual Studio\2019\Community\VC\Tools\MSVC\14.29.30133\atlmfc\include\cstringt.h

; 2390 : 		CStringT strResult( str1.GetManager() );

  00d1b	8b ce		 mov	 ecx, esi
; File D:\git\src\IBK\IBK_DRFN\ProjSrc\SrcDrfn\DrCommon\PartnerMng\ChartItemUpjong.cpp

; 436  : 			strNode = strDate.Right(4) + strTime.Left(4);

  00d1d	c6 45 fc 28	 mov	 BYTE PTR __$EHRec$[ebp+8], 40 ; 00000028H
; File C:\Program Files (x86)\Microsoft Visual Studio\2019\Community\VC\Tools\MSVC\14.29.30133\atlmfc\include\cstringt.h

; 2390 : 		CStringT strResult( str1.GetManager() );

  00d21	ff 15 00 00 00
	00		 call	 DWORD PTR __imp_?GetManager@?$CStringT@DV?$StrTraitMFC_DLL@DV?$ChTraitsCRT@D@ATL@@@@@ATL@@QBEPAUIAtlStringMgr@2@XZ
  00d27	50		 push	 eax
  00d28	8d 8d 7c fc ff
	ff		 lea	 ecx, DWORD PTR $T7[ebp]
  00d2e	ff 15 00 00 00
	00		 call	 DWORD PTR __imp_??0?$CStringT@DV?$StrTraitMFC_DLL@DV?$ChTraitsCRT@D@ATL@@@@@ATL@@QAE@PAUIAtlStringMgr@1@@Z

; 2394 : 		return( strResult );

  00d34	8b 85 e4 fc ff
	ff		 mov	 eax, DWORD PTR $T21[ebp]
; File C:\Program Files (x86)\Microsoft Visual Studio\2019\Community\VC\Tools\MSVC\14.29.30133\atlmfc\include\atlsimpstr.h

; 519  : 		return( GetData()->nDataLength );

  00d3a	8b 0e		 mov	 ecx, DWORD PTR [esi]
; File C:\Program Files (x86)\Microsoft Visual Studio\2019\Community\VC\Tools\MSVC\14.29.30133\atlmfc\include\cstringt.h

; 2394 : 		return( strResult );

  00d3c	83 c8 02	 or	 eax, 2
  00d3f	89 85 e4 fc ff
	ff		 mov	 DWORD PTR $T21[ebp], eax
  00d45	89 85 78 fc ff
	ff		 mov	 DWORD PTR $T6[ebp], eax
; File C:\Program Files (x86)\Microsoft Visual Studio\2019\Community\VC\Tools\MSVC\14.29.30133\atlmfc\include\atlsimpstr.h

; 519  : 		return( GetData()->nDataLength );

  00d4b	8b 07		 mov	 eax, DWORD PTR [edi]
; File C:\Program Files (x86)\Microsoft Visual Studio\2019\Community\VC\Tools\MSVC\14.29.30133\atlmfc\include\cstringt.h

; 2392 : 		CThisSimpleString::Concatenate( strResult, str1, str1.GetLength(), str2, str2.GetLength() );

  00d4d	ff 70 f4	 push	 DWORD PTR [eax-12]
  00d50	50		 push	 eax
  00d51	ff 71 f4	 push	 DWORD PTR [ecx-12]
  00d54	8d 85 7c fc ff
	ff		 lea	 eax, DWORD PTR $T7[ebp]
  00d5a	51		 push	 ecx
  00d5b	50		 push	 eax
  00d5c	ff 15 00 00 00
	00		 call	 DWORD PTR __imp_?Concatenate@?$CSimpleStringT@D$00@ATL@@KAXAAV12@PBDH1H@Z
  00d62	83 c4 14	 add	 esp, 20			; 00000014H
; File D:\git\src\IBK\IBK_DRFN\ProjSrc\SrcDrfn\DrCommon\PartnerMng\ChartItemUpjong.cpp

; 436  : 			strNode = strDate.Right(4) + strTime.Left(4);

  00d65	8d 85 7c fc ff
	ff		 lea	 eax, DWORD PTR $T7[ebp]
  00d6b	8d 8d fc fc ff
	ff		 lea	 ecx, DWORD PTR _strNode$[ebp]
  00d71	50		 push	 eax
  00d72	ff 15 00 00 00
	00		 call	 DWORD PTR __imp_??4?$CStringT@DV?$StrTraitMFC_DLL@DV?$ChTraitsCRT@D@ATL@@@@@ATL@@QAEAAV01@ABV01@@Z
  00d78	83 a5 e4 fc ff
	ff fd		 and	 DWORD PTR $T21[ebp], -3	; fffffffdH
  00d7f	8d 8d 7c fc ff
	ff		 lea	 ecx, DWORD PTR $T7[ebp]
  00d85	ff 15 00 00 00
	00		 call	 DWORD PTR __imp_??1?$CStringT@DV?$StrTraitMFC_DLL@DV?$ChTraitsCRT@D@ATL@@@@@ATL@@QAE@XZ
  00d8b	8d 8d 38 fc ff
	ff		 lea	 ecx, DWORD PTR $T4[ebp]
  00d91	ff 15 00 00 00
	00		 call	 DWORD PTR __imp_??1?$CStringT@DV?$StrTraitMFC_DLL@DV?$ChTraitsCRT@D@ATL@@@@@ATL@@QAE@XZ
  00d97	8d 8d 34 fc ff
	ff		 lea	 ecx, DWORD PTR $T3[ebp]
  00d9d	c6 45 fc 23	 mov	 BYTE PTR __$EHRec$[ebp+8], 35 ; 00000023H
  00da1	ff 15 00 00 00
	00		 call	 DWORD PTR __imp_??1?$CStringT@DV?$StrTraitMFC_DLL@DV?$ChTraitsCRT@D@ATL@@@@@ATL@@QAE@XZ
  00da7	8b b5 bc fc ff
	ff		 mov	 esi, DWORD PTR tv2605[ebp]
  00dad	e9 b0 01 00 00	 jmp	 $LN42@Convert2St
$LN35@Convert2St:

; 437  : 		else if (nType == 4) //YYYYMM

  00db2	83 f8 04	 cmp	 eax, 4
  00db5	75 3b		 jne	 SHORT $LN37@Convert2St

; 438  : 			strNode = strDate.Left(6);

  00db7	6a 06		 push	 6
  00db9	8d 85 8c fc ff
	ff		 lea	 eax, DWORD PTR $T13[ebp]
  00dbf	50		 push	 eax
  00dc0	8d 8d dc fc ff
	ff		 lea	 ecx, DWORD PTR _strDate$[ebp]
  00dc6	ff 15 00 00 00
	00		 call	 DWORD PTR __imp_?Left@?$CStringT@DV?$StrTraitMFC_DLL@DV?$ChTraitsCRT@D@ATL@@@@@ATL@@QBE?AV12@H@Z
  00dcc	50		 push	 eax
  00dcd	8d 8d fc fc ff
	ff		 lea	 ecx, DWORD PTR _strNode$[ebp]
  00dd3	c6 45 fc 29	 mov	 BYTE PTR __$EHRec$[ebp+8], 41 ; 00000029H
  00dd7	ff 15 00 00 00
	00		 call	 DWORD PTR __imp_??4?$CStringT@DV?$StrTraitMFC_DLL@DV?$ChTraitsCRT@D@ATL@@@@@ATL@@QAEAAV01@ABV01@@Z
  00ddd	8d 8d 8c fc ff
	ff		 lea	 ecx, DWORD PTR $T13[ebp]
  00de3	c6 45 fc 23	 mov	 BYTE PTR __$EHRec$[ebp+8], 35 ; 00000023H
  00de7	ff 15 00 00 00
	00		 call	 DWORD PTR __imp_??1?$CStringT@DV?$StrTraitMFC_DLL@DV?$ChTraitsCRT@D@ATL@@@@@ATL@@QAE@XZ
  00ded	e9 6a 01 00 00	 jmp	 $LN505@Convert2St
$LN37@Convert2St:

; 439  : 		else if (nType == 6) //DDHHMMSS

  00df2	83 f8 06	 cmp	 eax, 6
  00df5	0f 85 c2 00 00
	00		 jne	 $LN39@Convert2St

; 440  : 			strNode = strDate.Right(2) + strTime.Left(6);

  00dfb	50		 push	 eax
  00dfc	8d 85 80 fc ff
	ff		 lea	 eax, DWORD PTR $T9[ebp]
  00e02	50		 push	 eax
  00e03	8d 8d c8 fc ff
	ff		 lea	 ecx, DWORD PTR _strTime$[ebp]
  00e09	ff 15 00 00 00
	00		 call	 DWORD PTR __imp_?Left@?$CStringT@DV?$StrTraitMFC_DLL@DV?$ChTraitsCRT@D@ATL@@@@@ATL@@QBE?AV12@H@Z
  00e0f	8b f8		 mov	 edi, eax
  00e11	6a 02		 push	 2
  00e13	8d 85 84 fc ff
	ff		 lea	 eax, DWORD PTR $T11[ebp]
  00e19	c6 45 fc 2a	 mov	 BYTE PTR __$EHRec$[ebp+8], 42 ; 0000002aH
  00e1d	50		 push	 eax
  00e1e	8d 8d dc fc ff
	ff		 lea	 ecx, DWORD PTR _strDate$[ebp]
  00e24	ff 15 00 00 00
	00		 call	 DWORD PTR __imp_?Right@?$CStringT@DV?$StrTraitMFC_DLL@DV?$ChTraitsCRT@D@ATL@@@@@ATL@@QBE?AV12@H@Z
  00e2a	8b f0		 mov	 esi, eax
; File C:\Program Files (x86)\Microsoft Visual Studio\2019\Community\VC\Tools\MSVC\14.29.30133\atlmfc\include\cstringt.h

; 2390 : 		CStringT strResult( str1.GetManager() );

  00e2c	8b ce		 mov	 ecx, esi
; File D:\git\src\IBK\IBK_DRFN\ProjSrc\SrcDrfn\DrCommon\PartnerMng\ChartItemUpjong.cpp

; 440  : 			strNode = strDate.Right(2) + strTime.Left(6);

  00e2e	c6 45 fc 2c	 mov	 BYTE PTR __$EHRec$[ebp+8], 44 ; 0000002cH
; File C:\Program Files (x86)\Microsoft Visual Studio\2019\Community\VC\Tools\MSVC\14.29.30133\atlmfc\include\cstringt.h

; 2390 : 		CStringT strResult( str1.GetManager() );

  00e32	ff 15 00 00 00
	00		 call	 DWORD PTR __imp_?GetManager@?$CStringT@DV?$StrTraitMFC_DLL@DV?$ChTraitsCRT@D@ATL@@@@@ATL@@QBEPAUIAtlStringMgr@2@XZ
  00e38	50		 push	 eax
  00e39	8d 8d c0 fc ff
	ff		 lea	 ecx, DWORD PTR $T17[ebp]
  00e3f	ff 15 00 00 00
	00		 call	 DWORD PTR __imp_??0?$CStringT@DV?$StrTraitMFC_DLL@DV?$ChTraitsCRT@D@ATL@@@@@ATL@@QAE@PAUIAtlStringMgr@1@@Z

; 2394 : 		return( strResult );

  00e45	8b 85 e4 fc ff
	ff		 mov	 eax, DWORD PTR $T21[ebp]
; File C:\Program Files (x86)\Microsoft Visual Studio\2019\Community\VC\Tools\MSVC\14.29.30133\atlmfc\include\atlsimpstr.h

; 519  : 		return( GetData()->nDataLength );

  00e4b	8b 0e		 mov	 ecx, DWORD PTR [esi]
; File C:\Program Files (x86)\Microsoft Visual Studio\2019\Community\VC\Tools\MSVC\14.29.30133\atlmfc\include\cstringt.h

; 2394 : 		return( strResult );

  00e4d	83 c8 04	 or	 eax, 4
  00e50	89 85 e4 fc ff
	ff		 mov	 DWORD PTR $T21[ebp], eax
  00e56	89 85 78 fc ff
	ff		 mov	 DWORD PTR $T6[ebp], eax
; File C:\Program Files (x86)\Microsoft Visual Studio\2019\Community\VC\Tools\MSVC\14.29.30133\atlmfc\include\atlsimpstr.h

; 519  : 		return( GetData()->nDataLength );

  00e5c	8b 07		 mov	 eax, DWORD PTR [edi]
; File C:\Program Files (x86)\Microsoft Visual Studio\2019\Community\VC\Tools\MSVC\14.29.30133\atlmfc\include\cstringt.h

; 2392 : 		CThisSimpleString::Concatenate( strResult, str1, str1.GetLength(), str2, str2.GetLength() );

  00e5e	ff 70 f4	 push	 DWORD PTR [eax-12]
  00e61	50		 push	 eax
  00e62	ff 71 f4	 push	 DWORD PTR [ecx-12]
  00e65	8d 85 c0 fc ff
	ff		 lea	 eax, DWORD PTR $T17[ebp]
  00e6b	51		 push	 ecx
  00e6c	50		 push	 eax
  00e6d	ff 15 00 00 00
	00		 call	 DWORD PTR __imp_?Concatenate@?$CSimpleStringT@D$00@ATL@@KAXAAV12@PBDH1H@Z
  00e73	83 c4 14	 add	 esp, 20			; 00000014H
; File D:\git\src\IBK\IBK_DRFN\ProjSrc\SrcDrfn\DrCommon\PartnerMng\ChartItemUpjong.cpp

; 440  : 			strNode = strDate.Right(2) + strTime.Left(6);

  00e76	8d 85 c0 fc ff
	ff		 lea	 eax, DWORD PTR $T17[ebp]
  00e7c	8d 8d fc fc ff
	ff		 lea	 ecx, DWORD PTR _strNode$[ebp]
  00e82	50		 push	 eax
  00e83	ff 15 00 00 00
	00		 call	 DWORD PTR __imp_??4?$CStringT@DV?$StrTraitMFC_DLL@DV?$ChTraitsCRT@D@ATL@@@@@ATL@@QAEAAV01@ABV01@@Z
  00e89	83 a5 e4 fc ff
	ff fb		 and	 DWORD PTR $T21[ebp], -5	; fffffffbH
  00e90	8d 8d c0 fc ff
	ff		 lea	 ecx, DWORD PTR $T17[ebp]
  00e96	ff 15 00 00 00
	00		 call	 DWORD PTR __imp_??1?$CStringT@DV?$StrTraitMFC_DLL@DV?$ChTraitsCRT@D@ATL@@@@@ATL@@QAE@XZ
  00e9c	8d 8d 84 fc ff
	ff		 lea	 ecx, DWORD PTR $T11[ebp]
  00ea2	ff 15 00 00 00
	00		 call	 DWORD PTR __imp_??1?$CStringT@DV?$StrTraitMFC_DLL@DV?$ChTraitsCRT@D@ATL@@@@@ATL@@QAE@XZ
  00ea8	8d 8d 80 fc ff
	ff		 lea	 ecx, DWORD PTR $T9[ebp]
  00eae	c6 45 fc 23	 mov	 BYTE PTR __$EHRec$[ebp+8], 35 ; 00000023H
  00eb2	ff 15 00 00 00
	00		 call	 DWORD PTR __imp_??1?$CStringT@DV?$StrTraitMFC_DLL@DV?$ChTraitsCRT@D@ATL@@@@@ATL@@QAE@XZ
  00eb8	e9 9f 00 00 00	 jmp	 $LN505@Convert2St
$LN39@Convert2St:

; 441  : 		else if (nType == 5) // .

  00ebd	83 f8 05	 cmp	 eax, 5
  00ec0	0f 85 83 00 00
	00		 jne	 $LN41@Convert2St

; 442  : 		{
; 443  : 			if (nRow != nCnt-1)

  00ec6	8b 85 d0 fc ff
	ff		 mov	 eax, DWORD PTR _nCnt$1$[ebp]
  00ecc	8d 8d dc fc ff
	ff		 lea	 ecx, DWORD PTR _strDate$[ebp]
  00ed2	48		 dec	 eax
  00ed3	39 85 f8 fc ff
	ff		 cmp	 DWORD PTR _nRow$1$[ebp], eax
  00ed9	74 3c		 je	 SHORT $LN43@Convert2St

; 444  : 				strNode.Format(_T("%s12"), strDate.Left(4));

  00edb	6a 04		 push	 4
  00edd	8d 85 b4 fc ff
	ff		 lea	 eax, DWORD PTR $T16[ebp]
  00ee3	50		 push	 eax
  00ee4	ff 15 00 00 00
	00		 call	 DWORD PTR __imp_?Left@?$CStringT@DV?$StrTraitMFC_DLL@DV?$ChTraitsCRT@D@ATL@@@@@ATL@@QBE?AV12@H@Z
  00eea	ff 30		 push	 DWORD PTR [eax]
  00eec	8d 85 fc fc ff
	ff		 lea	 eax, DWORD PTR _strNode$[ebp]
  00ef2	c6 45 fc 2d	 mov	 BYTE PTR __$EHRec$[ebp+8], 45 ; 0000002dH
  00ef6	68 00 00 00 00	 push	 OFFSET ??_C@_04IBKPHMDC@?$CFs12@
  00efb	50		 push	 eax
  00efc	ff 15 00 00 00
	00		 call	 DWORD PTR __imp_?Format@?$CStringT@DV?$StrTraitMFC_DLL@DV?$ChTraitsCRT@D@ATL@@@@@ATL@@QAAXPBDZZ
  00f02	83 c4 0c	 add	 esp, 12			; 0000000cH
  00f05	c6 45 fc 23	 mov	 BYTE PTR __$EHRec$[ebp+8], 35 ; 00000023H
  00f09	8d 8d b4 fc ff
	ff		 lea	 ecx, DWORD PTR $T16[ebp]
  00f0f	ff 15 00 00 00
	00		 call	 DWORD PTR __imp_??1?$CStringT@DV?$StrTraitMFC_DLL@DV?$ChTraitsCRT@D@ATL@@@@@ATL@@QAE@XZ
  00f15	eb 45		 jmp	 SHORT $LN505@Convert2St
$LN43@Convert2St:

; 445  : 			else
; 446  : 				strNode = strDate.Left(6);

  00f17	6a 06		 push	 6
  00f19	8d 85 ec fc ff
	ff		 lea	 eax, DWORD PTR $T25[ebp]
  00f1f	50		 push	 eax
  00f20	ff 15 00 00 00
	00		 call	 DWORD PTR __imp_?Left@?$CStringT@DV?$StrTraitMFC_DLL@DV?$ChTraitsCRT@D@ATL@@@@@ATL@@QBE?AV12@H@Z
  00f26	50		 push	 eax
  00f27	8d 8d fc fc ff
	ff		 lea	 ecx, DWORD PTR _strNode$[ebp]
  00f2d	c6 45 fc 2e	 mov	 BYTE PTR __$EHRec$[ebp+8], 46 ; 0000002eH
  00f31	ff 15 00 00 00
	00		 call	 DWORD PTR __imp_??4?$CStringT@DV?$StrTraitMFC_DLL@DV?$ChTraitsCRT@D@ATL@@@@@ATL@@QAEAAV01@ABV01@@Z
  00f37	8d 8d ec fc ff
	ff		 lea	 ecx, DWORD PTR $T25[ebp]
  00f3d	c6 45 fc 23	 mov	 BYTE PTR __$EHRec$[ebp+8], 35 ; 00000023H
  00f41	ff 15 00 00 00
	00		 call	 DWORD PTR __imp_??1?$CStringT@DV?$StrTraitMFC_DLL@DV?$ChTraitsCRT@D@ATL@@@@@ATL@@QAE@XZ

; 447  : 		}

  00f47	eb 13		 jmp	 SHORT $LN505@Convert2St
$LN41@Convert2St:

; 448  : 		else
; 449  : 			strNode = strDate;

  00f49	8d 85 dc fc ff
	ff		 lea	 eax, DWORD PTR _strDate$[ebp]
  00f4f	50		 push	 eax
  00f50	8d 8d fc fc ff
	ff		 lea	 ecx, DWORD PTR _strNode$[ebp]
  00f56	ff 15 00 00 00
	00		 call	 DWORD PTR __imp_??4?$CStringT@DV?$StrTraitMFC_DLL@DV?$ChTraitsCRT@D@ATL@@@@@ATL@@QAEAAV01@ABV01@@Z
$LN505@Convert2St:
; File C:\Program Files (x86)\Microsoft Visual Studio\2019\Community\VC\Tools\MSVC\14.29.30133\atlmfc\include\atlsimpstr.h

; 519  : 		return( GetData()->nDataLength );

  00f5c	8b b5 f0 fc ff
	ff		 mov	 esi, DWORD PTR _nIndex$1$[ebp]
$LN42@Convert2St:
  00f62	8b 85 fc fc ff
	ff		 mov	 eax, DWORD PTR _strNode$[ebp]
; File D:\git\src\IBK\IBK_DRFN\ProjSrc\SrcDrfn\DrCommon\PartnerMng\ChartItemUpjong.cpp

; 451  : 		memcpy(stBong.date, strNode, min(sizeof(stBong.date), strNode.GetLength()));

  00f68	ba 08 00 00 00	 mov	 edx, 8
; File C:\Program Files (x86)\Microsoft Visual Studio\2019\Community\VC\Tools\MSVC\14.29.30133\atlmfc\include\atlsimpstr.h

; 519  : 		return( GetData()->nDataLength );

  00f6d	8b 48 f4	 mov	 ecx, DWORD PTR [eax-12]
; File D:\git\src\IBK\IBK_DRFN\ProjSrc\SrcDrfn\DrCommon\PartnerMng\ChartItemUpjong.cpp

; 451  : 		memcpy(stBong.date, strNode, min(sizeof(stBong.date), strNode.GetLength()));

  00f70	83 f9 08	 cmp	 ecx, 8
  00f73	0f 47 ca	 cmova	 ecx, edx
  00f76	51		 push	 ecx
  00f77	50		 push	 eax
  00f78	8d 45 a0	 lea	 eax, DWORD PTR _stBong$[ebp]
  00f7b	50		 push	 eax
  00f7c	e8 00 00 00 00	 call	 _memcpy
  00f81	83 c4 0c	 add	 esp, 12			; 0000000cH
; File C:\Program Files (x86)\Microsoft Visual Studio\2019\Community\VC\Tools\MSVC\14.29.30133\atlmfc\include\afxcoll.inl

; 289  : 		if( nIndex < 0 || nIndex >= m_nSize )

  00f84	85 f6		 test	 esi, esi
  00f86	0f 88 44 09 00
	00		 js	 $LN281@Convert2St
  00f8c	3b b5 98 fc ff
	ff		 cmp	 esi, DWORD PTR _arrNode$[ebp+8]
  00f92	0f 8d 38 09 00
	00		 jge	 $LN281@Convert2St

; 291  : 		return m_pData[nIndex]; }

  00f98	8b 85 94 fc ff
	ff		 mov	 eax, DWORD PTR _arrNode$[ebp+4]
; File D:\git\src\IBK\IBK_DRFN\ProjSrc\SrcDrfn\DrCommon\PartnerMng\ChartItemUpjong.cpp

; 454  : 		strNode = arrNode.GetAt(nIndex++);

  00f9e	8d 8d fc fc ff
	ff		 lea	 ecx, DWORD PTR _strNode$[ebp]
; File C:\Program Files (x86)\Microsoft Visual Studio\2019\Community\VC\Tools\MSVC\14.29.30133\atlmfc\include\afxcoll.inl

; 291  : 		return m_pData[nIndex]; }

  00fa4	8d 04 b0	 lea	 eax, DWORD PTR [eax+esi*4]
; File D:\git\src\IBK\IBK_DRFN\ProjSrc\SrcDrfn\DrCommon\PartnerMng\ChartItemUpjong.cpp

; 454  : 		strNode = arrNode.GetAt(nIndex++);

  00fa7	50		 push	 eax
  00fa8	ff 15 00 00 00
	00		 call	 DWORD PTR __imp_??4?$CStringT@DV?$StrTraitMFC_DLL@DV?$ChTraitsCRT@D@ATL@@@@@ATL@@QAEAAV01@ABV01@@Z
; File C:\Program Files (x86)\Microsoft Visual Studio\2019\Community\VC\Tools\MSVC\14.29.30133\atlmfc\include\atlsimpstr.h

; 519  : 		return( GetData()->nDataLength );

  00fae	8b 85 fc fc ff
	ff		 mov	 eax, DWORD PTR _strNode$[ebp]
; File D:\git\src\IBK\IBK_DRFN\ProjSrc\SrcDrfn\DrCommon\PartnerMng\ChartItemUpjong.cpp

; 454  : 		strNode = arrNode.GetAt(nIndex++);

  00fb4	46		 inc	 esi

; 455  : 		memcpy(stBong.close, strNode, min(sizeof(stBong.close), strNode.GetLength()));

  00fb5	bf 0a 00 00 00	 mov	 edi, 10			; 0000000aH
; File C:\Program Files (x86)\Microsoft Visual Studio\2019\Community\VC\Tools\MSVC\14.29.30133\atlmfc\include\atlsimpstr.h

; 519  : 		return( GetData()->nDataLength );

  00fba	8b 48 f4	 mov	 ecx, DWORD PTR [eax-12]
; File D:\git\src\IBK\IBK_DRFN\ProjSrc\SrcDrfn\DrCommon\PartnerMng\ChartItemUpjong.cpp

; 455  : 		memcpy(stBong.close, strNode, min(sizeof(stBong.close), strNode.GetLength()));

  00fbd	83 f9 0a	 cmp	 ecx, 10			; 0000000aH
  00fc0	0f 47 cf	 cmova	 ecx, edi
  00fc3	51		 push	 ecx
  00fc4	50		 push	 eax
  00fc5	8d 45 c6	 lea	 eax, DWORD PTR _stBong$[ebp+38]
  00fc8	50		 push	 eax
  00fc9	e8 00 00 00 00	 call	 _memcpy
  00fce	83 c4 0c	 add	 esp, 12			; 0000000cH
; File C:\Program Files (x86)\Microsoft Visual Studio\2019\Community\VC\Tools\MSVC\14.29.30133\atlmfc\include\afxcoll.inl

; 289  : 		if( nIndex < 0 || nIndex >= m_nSize )

  00fd1	3b b5 98 fc ff
	ff		 cmp	 esi, DWORD PTR _arrNode$[ebp+8]
  00fd7	0f 8d f3 08 00
	00		 jge	 $LN281@Convert2St

; 291  : 		return m_pData[nIndex]; }

  00fdd	8b 85 94 fc ff
	ff		 mov	 eax, DWORD PTR _arrNode$[ebp+4]
; File D:\git\src\IBK\IBK_DRFN\ProjSrc\SrcDrfn\DrCommon\PartnerMng\ChartItemUpjong.cpp

; 457  : 		strNode = arrNode.GetAt(nIndex++);

  00fe3	8d 8d fc fc ff
	ff		 lea	 ecx, DWORD PTR _strNode$[ebp]
; File C:\Program Files (x86)\Microsoft Visual Studio\2019\Community\VC\Tools\MSVC\14.29.30133\atlmfc\include\afxcoll.inl

; 291  : 		return m_pData[nIndex]; }

  00fe9	8d 04 b0	 lea	 eax, DWORD PTR [eax+esi*4]
; File D:\git\src\IBK\IBK_DRFN\ProjSrc\SrcDrfn\DrCommon\PartnerMng\ChartItemUpjong.cpp

; 457  : 		strNode = arrNode.GetAt(nIndex++);

  00fec	50		 push	 eax
  00fed	ff 15 00 00 00
	00		 call	 DWORD PTR __imp_??4?$CStringT@DV?$StrTraitMFC_DLL@DV?$ChTraitsCRT@D@ATL@@@@@ATL@@QAEAAV01@ABV01@@Z
; File C:\Program Files (x86)\Microsoft Visual Studio\2019\Community\VC\Tools\MSVC\14.29.30133\atlmfc\include\atlsimpstr.h

; 519  : 		return( GetData()->nDataLength );

  00ff3	8b 85 fc fc ff
	ff		 mov	 eax, DWORD PTR _strNode$[ebp]
  00ff9	8b 48 f4	 mov	 ecx, DWORD PTR [eax-12]
; File D:\git\src\IBK\IBK_DRFN\ProjSrc\SrcDrfn\DrCommon\PartnerMng\ChartItemUpjong.cpp

; 458  : 		memcpy(stBong.open, strNode, min(sizeof(stBong.open), strNode.GetLength()));

  00ffc	3b cf		 cmp	 ecx, edi
  00ffe	0f 47 cf	 cmova	 ecx, edi
  01001	51		 push	 ecx
  01002	50		 push	 eax
  01003	8d 45 a8	 lea	 eax, DWORD PTR _stBong$[ebp+8]
  01006	50		 push	 eax
  01007	e8 00 00 00 00	 call	 _memcpy
  0100c	83 c4 0c	 add	 esp, 12			; 0000000cH
  0100f	83 c6 01	 add	 esi, 1
; File C:\Program Files (x86)\Microsoft Visual Studio\2019\Community\VC\Tools\MSVC\14.29.30133\atlmfc\include\afxcoll.inl

; 289  : 		if( nIndex < 0 || nIndex >= m_nSize )

  01012	0f 88 b8 08 00
	00		 js	 $LN281@Convert2St
  01018	3b b5 98 fc ff
	ff		 cmp	 esi, DWORD PTR _arrNode$[ebp+8]
  0101e	0f 8d ac 08 00
	00		 jge	 $LN281@Convert2St

; 291  : 		return m_pData[nIndex]; }

  01024	8b 85 94 fc ff
	ff		 mov	 eax, DWORD PTR _arrNode$[ebp+4]
; File D:\git\src\IBK\IBK_DRFN\ProjSrc\SrcDrfn\DrCommon\PartnerMng\ChartItemUpjong.cpp

; 460  : 		strNode = arrNode.GetAt(nIndex++);

  0102a	8d 8d fc fc ff
	ff		 lea	 ecx, DWORD PTR _strNode$[ebp]
; File C:\Program Files (x86)\Microsoft Visual Studio\2019\Community\VC\Tools\MSVC\14.29.30133\atlmfc\include\afxcoll.inl

; 291  : 		return m_pData[nIndex]; }

  01030	8d 04 b0	 lea	 eax, DWORD PTR [eax+esi*4]
; File D:\git\src\IBK\IBK_DRFN\ProjSrc\SrcDrfn\DrCommon\PartnerMng\ChartItemUpjong.cpp

; 460  : 		strNode = arrNode.GetAt(nIndex++);

  01033	50		 push	 eax
  01034	ff 15 00 00 00
	00		 call	 DWORD PTR __imp_??4?$CStringT@DV?$StrTraitMFC_DLL@DV?$ChTraitsCRT@D@ATL@@@@@ATL@@QAEAAV01@ABV01@@Z
; File C:\Program Files (x86)\Microsoft Visual Studio\2019\Community\VC\Tools\MSVC\14.29.30133\atlmfc\include\atlsimpstr.h

; 519  : 		return( GetData()->nDataLength );

  0103a	8b 85 fc fc ff
	ff		 mov	 eax, DWORD PTR _strNode$[ebp]
  01040	8b 48 f4	 mov	 ecx, DWORD PTR [eax-12]
; File D:\git\src\IBK\IBK_DRFN\ProjSrc\SrcDrfn\DrCommon\PartnerMng\ChartItemUpjong.cpp

; 461  : 		memcpy(stBong.high, strNode, min(sizeof(stBong.high), strNode.GetLength()));

  01043	3b cf		 cmp	 ecx, edi
  01045	0f 47 cf	 cmova	 ecx, edi
  01048	51		 push	 ecx
  01049	50		 push	 eax
  0104a	8d 45 b2	 lea	 eax, DWORD PTR _stBong$[ebp+18]
  0104d	50		 push	 eax
  0104e	e8 00 00 00 00	 call	 _memcpy
  01053	83 c4 0c	 add	 esp, 12			; 0000000cH
  01056	83 c6 01	 add	 esi, 1
; File C:\Program Files (x86)\Microsoft Visual Studio\2019\Community\VC\Tools\MSVC\14.29.30133\atlmfc\include\afxcoll.inl

; 289  : 		if( nIndex < 0 || nIndex >= m_nSize )

  01059	0f 88 71 08 00
	00		 js	 $LN281@Convert2St
  0105f	3b b5 98 fc ff
	ff		 cmp	 esi, DWORD PTR _arrNode$[ebp+8]
  01065	0f 8d 65 08 00
	00		 jge	 $LN281@Convert2St

; 291  : 		return m_pData[nIndex]; }

  0106b	8b 85 94 fc ff
	ff		 mov	 eax, DWORD PTR _arrNode$[ebp+4]
; File D:\git\src\IBK\IBK_DRFN\ProjSrc\SrcDrfn\DrCommon\PartnerMng\ChartItemUpjong.cpp

; 463  : 		strNode = arrNode.GetAt(nIndex++);

  01071	8d 8d fc fc ff
	ff		 lea	 ecx, DWORD PTR _strNode$[ebp]
; File C:\Program Files (x86)\Microsoft Visual Studio\2019\Community\VC\Tools\MSVC\14.29.30133\atlmfc\include\afxcoll.inl

; 291  : 		return m_pData[nIndex]; }

  01077	8d 04 b0	 lea	 eax, DWORD PTR [eax+esi*4]
; File D:\git\src\IBK\IBK_DRFN\ProjSrc\SrcDrfn\DrCommon\PartnerMng\ChartItemUpjong.cpp

; 463  : 		strNode = arrNode.GetAt(nIndex++);

  0107a	50		 push	 eax
  0107b	ff 15 00 00 00
	00		 call	 DWORD PTR __imp_??4?$CStringT@DV?$StrTraitMFC_DLL@DV?$ChTraitsCRT@D@ATL@@@@@ATL@@QAEAAV01@ABV01@@Z
; File C:\Program Files (x86)\Microsoft Visual Studio\2019\Community\VC\Tools\MSVC\14.29.30133\atlmfc\include\atlsimpstr.h

; 519  : 		return( GetData()->nDataLength );

  01081	8b 85 fc fc ff
	ff		 mov	 eax, DWORD PTR _strNode$[ebp]
  01087	8b 48 f4	 mov	 ecx, DWORD PTR [eax-12]
; File D:\git\src\IBK\IBK_DRFN\ProjSrc\SrcDrfn\DrCommon\PartnerMng\ChartItemUpjong.cpp

; 464  : 		memcpy(stBong.low, strNode, min(sizeof(stBong.low), strNode.GetLength()));

  0108a	3b cf		 cmp	 ecx, edi
  0108c	0f 47 cf	 cmova	 ecx, edi
  0108f	51		 push	 ecx
  01090	50		 push	 eax
  01091	8d 45 bc	 lea	 eax, DWORD PTR _stBong$[ebp+28]
  01094	50		 push	 eax
  01095	e8 00 00 00 00	 call	 _memcpy
  0109a	83 c4 0c	 add	 esp, 12			; 0000000cH
  0109d	83 c6 01	 add	 esi, 1
; File C:\Program Files (x86)\Microsoft Visual Studio\2019\Community\VC\Tools\MSVC\14.29.30133\atlmfc\include\afxcoll.inl

; 289  : 		if( nIndex < 0 || nIndex >= m_nSize )

  010a0	0f 88 2a 08 00
	00		 js	 $LN281@Convert2St
  010a6	3b b5 98 fc ff
	ff		 cmp	 esi, DWORD PTR _arrNode$[ebp+8]
  010ac	0f 8d 1e 08 00
	00		 jge	 $LN281@Convert2St

; 291  : 		return m_pData[nIndex]; }

  010b2	8b 85 94 fc ff
	ff		 mov	 eax, DWORD PTR _arrNode$[ebp+4]
; File D:\git\src\IBK\IBK_DRFN\ProjSrc\SrcDrfn\DrCommon\PartnerMng\ChartItemUpjong.cpp

; 466  : 		strNode = arrNode.GetAt(nIndex++);

  010b8	8d 8d fc fc ff
	ff		 lea	 ecx, DWORD PTR _strNode$[ebp]
; File C:\Program Files (x86)\Microsoft Visual Studio\2019\Community\VC\Tools\MSVC\14.29.30133\atlmfc\include\afxcoll.inl

; 291  : 		return m_pData[nIndex]; }

  010be	8d 04 b0	 lea	 eax, DWORD PTR [eax+esi*4]
; File D:\git\src\IBK\IBK_DRFN\ProjSrc\SrcDrfn\DrCommon\PartnerMng\ChartItemUpjong.cpp

; 466  : 		strNode = arrNode.GetAt(nIndex++);

  010c1	50		 push	 eax
  010c2	ff 15 00 00 00
	00		 call	 DWORD PTR __imp_??4?$CStringT@DV?$StrTraitMFC_DLL@DV?$ChTraitsCRT@D@ATL@@@@@ATL@@QAEAAV01@ABV01@@Z
; File C:\Program Files (x86)\Microsoft Visual Studio\2019\Community\VC\Tools\MSVC\14.29.30133\atlmfc\include\atlsimpstr.h

; 519  : 		return( GetData()->nDataLength );

  010c8	8b 85 fc fc ff
	ff		 mov	 eax, DWORD PTR _strNode$[ebp]
  010ce	8b 48 f4	 mov	 ecx, DWORD PTR [eax-12]
; File D:\git\src\IBK\IBK_DRFN\ProjSrc\SrcDrfn\DrCommon\PartnerMng\ChartItemUpjong.cpp

; 467  : 		memcpy(stBong.volume, strNode, min(sizeof(stBong.volume), strNode.GetLength()));

  010d1	3b cf		 cmp	 ecx, edi
  010d3	0f 47 cf	 cmova	 ecx, edi
  010d6	51		 push	 ecx
  010d7	50		 push	 eax
  010d8	8d 45 d0	 lea	 eax, DWORD PTR _stBong$[ebp+48]
  010db	50		 push	 eax
  010dc	e8 00 00 00 00	 call	 _memcpy
  010e1	83 c4 0c	 add	 esp, 12			; 0000000cH
  010e4	83 c6 01	 add	 esi, 1
; File C:\Program Files (x86)\Microsoft Visual Studio\2019\Community\VC\Tools\MSVC\14.29.30133\atlmfc\include\afxcoll.inl

; 289  : 		if( nIndex < 0 || nIndex >= m_nSize )

  010e7	0f 88 e3 07 00
	00		 js	 $LN281@Convert2St
  010ed	3b b5 98 fc ff
	ff		 cmp	 esi, DWORD PTR _arrNode$[ebp+8]
  010f3	0f 8d d7 07 00
	00		 jge	 $LN281@Convert2St

; 291  : 		return m_pData[nIndex]; }

  010f9	8b 85 94 fc ff
	ff		 mov	 eax, DWORD PTR _arrNode$[ebp+4]
; File D:\git\src\IBK\IBK_DRFN\ProjSrc\SrcDrfn\DrCommon\PartnerMng\ChartItemUpjong.cpp

; 470  : 		strNode = arrNode.GetAt(nIndex++);

  010ff	8d 8d fc fc ff
	ff		 lea	 ecx, DWORD PTR _strNode$[ebp]
; File C:\Program Files (x86)\Microsoft Visual Studio\2019\Community\VC\Tools\MSVC\14.29.30133\atlmfc\include\afxcoll.inl

; 291  : 		return m_pData[nIndex]; }

  01105	8d 04 b0	 lea	 eax, DWORD PTR [eax+esi*4]
; File D:\git\src\IBK\IBK_DRFN\ProjSrc\SrcDrfn\DrCommon\PartnerMng\ChartItemUpjong.cpp

; 470  : 		strNode = arrNode.GetAt(nIndex++);

  01108	50		 push	 eax
  01109	ff 15 00 00 00
	00		 call	 DWORD PTR __imp_??4?$CStringT@DV?$StrTraitMFC_DLL@DV?$ChTraitsCRT@D@ATL@@@@@ATL@@QAEAAV01@ABV01@@Z
  0110f	46		 inc	 esi

; 471  : 		//dValue = atof(strNode)*1000000;
; 472  : 		//strNode.Format(_T("%.0f"), dValue);
; 473  : 		strNode += "000000";

  01110	8d 8d fc fc ff
	ff		 lea	 ecx, DWORD PTR _strNode$[ebp]
  01116	68 00 00 00 00	 push	 OFFSET ??_C@_06GEKNBBDK@000000@
  0111b	89 b5 f0 fc ff
	ff		 mov	 DWORD PTR _nIndex$1$[ebp], esi
  01121	ff 15 00 00 00
	00		 call	 DWORD PTR __imp_??Y?$CStringT@DV?$StrTraitMFC_DLL@DV?$ChTraitsCRT@D@ATL@@@@@ATL@@QAEAAV01@PBD@Z
; File C:\Program Files (x86)\Microsoft Visual Studio\2019\Community\VC\Tools\MSVC\14.29.30133\atlmfc\include\atlsimpstr.h

; 519  : 		return( GetData()->nDataLength );

  01127	8b 85 fc fc ff
	ff		 mov	 eax, DWORD PTR _strNode$[ebp]
; File D:\git\src\IBK\IBK_DRFN\ProjSrc\SrcDrfn\DrCommon\PartnerMng\ChartItemUpjong.cpp

; 480  : 		memcpy(stBong.value, strNode, min(sizeof(stBong.value), strNode.GetLength()));

  0112d	ba 12 00 00 00	 mov	 edx, 18			; 00000012H
; File C:\Program Files (x86)\Microsoft Visual Studio\2019\Community\VC\Tools\MSVC\14.29.30133\atlmfc\include\atlsimpstr.h

; 519  : 		return( GetData()->nDataLength );

  01132	8b 48 f4	 mov	 ecx, DWORD PTR [eax-12]
; File D:\git\src\IBK\IBK_DRFN\ProjSrc\SrcDrfn\DrCommon\PartnerMng\ChartItemUpjong.cpp

; 480  : 		memcpy(stBong.value, strNode, min(sizeof(stBong.value), strNode.GetLength()));

  01135	83 f9 12	 cmp	 ecx, 18			; 00000012H
  01138	0f 47 ca	 cmova	 ecx, edx
  0113b	51		 push	 ecx
  0113c	50		 push	 eax
  0113d	8d 45 da	 lea	 eax, DWORD PTR _stBong$[ebp+58]
  01140	50		 push	 eax
  01141	e8 00 00 00 00	 call	 _memcpy

; 481  : 		//@Solomon	091202SM123	<--
; 482  : 
; 483  : 		//   ,  ,,  
; 484  : 		memcpy(&pDataBuf[nPosBong + nRow*nBongSize], &stBong, nBongSize);

  01146	8b 95 f8 fc ff
	ff		 mov	 edx, DWORD PTR _nRow$1$[ebp]
  0114c	8d 75 a0	 lea	 esi, DWORD PTR _stBong$[ebp]
  0114f	8b bd a4 fc ff
	ff		 mov	 edi, DWORD PTR _pDataBuf$1$[ebp]
  01155	b9 13 00 00 00	 mov	 ecx, 19			; 00000013H
  0115a	6b c2 4d	 imul	 eax, edx, 77
  0115d	81 c7 fe 01 00
	00		 add	 edi, 510		; 000001feH
  01163	83 c4 0c	 add	 esp, 12			; 0000000cH
  01166	03 f8		 add	 edi, eax
  01168	f3 a5		 rep movsd
  0116a	a4		 movsb

; 485  : 
; 486  : 		//    .
; 487  : 		if(nRow == 0)

  0116b	85 d2		 test	 edx, edx
  0116d	75 11		 jne	 SHORT $LN4@Convert2St

; 488  : 			memcpy(&stFirstBong, &stBong, sizeof(stBong));

  0116f	b9 13 00 00 00	 mov	 ecx, 19			; 00000013H
  01174	8d 75 a0	 lea	 esi, DWORD PTR _stBong$[ebp]
  01177	8d bd 00 ff ff
	ff		 lea	 edi, DWORD PTR _stFirstBong$[ebp]
  0117d	f3 a5		 rep movsd
  0117f	a4		 movsb
$LN4@Convert2St:

; 421  : 	int nRow = 0;
; 422  : 	for( nRow = 0; nRow < nCnt; nRow++)

  01180	8b b5 f0 fc ff
	ff		 mov	 esi, DWORD PTR _nIndex$1$[ebp]
  01186	42		 inc	 edx
  01187	8b bd e4 fc ff
	ff		 mov	 edi, DWORD PTR $T21[ebp]
  0118d	89 95 f8 fc ff
	ff		 mov	 DWORD PTR _nRow$1$[ebp], edx
  01193	3b 95 d0 fc ff
	ff		 cmp	 edx, DWORD PTR _nCnt$1$[ebp]
  01199	0f 8c 11 fa ff
	ff		 jl	 $LL6@Convert2St

; 489  : 	}
; 490  : 
; 491  : 	// 20130222  :      .(   )
; 492  : 	if (nCnt > 0 && nType == 3 && m_InData.Snextgb[0] != _T('1'))

  0119f	83 bd b0 fc ff
	ff 03		 cmp	 DWORD PTR _nType$1$[ebp], 3
  011a6	8b bd cc fc ff
	ff		 mov	 edi, DWORD PTR _this$GSCopy$1$[ebp]
  011ac	75 41		 jne	 SHORT $LN46@Convert2St
  011ae	80 7f 18 31	 cmp	 BYTE PTR [edi+24], 49	; 00000031H
  011b2	74 3b		 je	 SHORT $LN46@Convert2St

; 493  : 		m_bojoInput.m_sLastDataTime = CString(stBong.date, sizeof(stBong.date));

  011b4	6a 08		 push	 8
  011b6	8d 45 a0	 lea	 eax, DWORD PTR _stBong$[ebp]
  011b9	50		 push	 eax
  011ba	8d 8d ec fc ff
	ff		 lea	 ecx, DWORD PTR $T24[ebp]
  011c0	ff 15 00 00 00
	00		 call	 DWORD PTR __imp_??0?$CStringT@DV?$StrTraitMFC_DLL@DV?$ChTraitsCRT@D@ATL@@@@@ATL@@QAE@PBDH@Z
  011c6	50		 push	 eax
  011c7	8d 8f f8 00 00
	00		 lea	 ecx, DWORD PTR [edi+248]
  011cd	c6 45 fc 2f	 mov	 BYTE PTR __$EHRec$[ebp+8], 47 ; 0000002fH
  011d1	ff 15 00 00 00
	00		 call	 DWORD PTR __imp_??4?$CStringT@DV?$StrTraitMFC_DLL@DV?$ChTraitsCRT@D@ATL@@@@@ATL@@QAEAAV01@ABV01@@Z
  011d7	8d 8d ec fc ff
	ff		 lea	 ecx, DWORD PTR $T24[ebp]
  011dd	c6 45 fc 23	 mov	 BYTE PTR __$EHRec$[ebp+8], 35 ; 00000023H
  011e1	ff 15 00 00 00
	00		 call	 DWORD PTR __imp_??1?$CStringT@DV?$StrTraitMFC_DLL@DV?$ChTraitsCRT@D@ATL@@@@@ATL@@QAE@XZ
  011e7	eb 17		 jmp	 SHORT $LN47@Convert2St
$LN501@Convert2St:

; 421  : 	int nRow = 0;
; 422  : 	for( nRow = 0; nRow < nCnt; nRow++)

  011e9	8b bd cc fc ff
	ff		 mov	 edi, DWORD PTR _this$GSCopy$1$[ebp]
$LN46@Convert2St:

; 494  : 	else
; 495  : 		m_bojoInput.m_sLastDataTime = _T("");

  011ef	68 00 00 00 00	 push	 OFFSET ??_C@_00CNPNBAHC@@
  011f4	8d 8f f8 00 00
	00		 lea	 ecx, DWORD PTR [edi+248]
  011fa	ff 15 00 00 00
	00		 call	 DWORD PTR __imp_??4?$CStringT@DV?$StrTraitMFC_DLL@DV?$ChTraitsCRT@D@ATL@@@@@ATL@@QAEAAV01@PBD@Z
$LN47@Convert2St:

; 496  : 
; 497  : 	//   :   
; 498  : 	int nDataType = int(m_InData.SdataType[0] - '0'); 

  01200	0f be 77 35	 movsx	 esi, BYTE PTR [edi+53]
  01204	89 b5 8c fc ff
	ff		 mov	 DWORD PTR tv2636[ebp], esi

; 499  : 	if(nDataType > 0)

  0120a	83 fe 30	 cmp	 esi, 48			; 00000030H
  0120d	0f 8e c0 02 00
	00		 jle	 $LN48@Convert2St

; 500  : 	{
; 501  : 		CString strData(stFirstBong.close, sizeof(stFirstBong.close));

  01213	6a 0a		 push	 10			; 0000000aH
  01215	8d 85 26 ff ff
	ff		 lea	 eax, DWORD PTR _stFirstBong$[ebp+38]
  0121b	50		 push	 eax
  0121c	8d 8d f0 fc ff
	ff		 lea	 ecx, DWORD PTR _strData$26[ebp]
  01222	ff 15 00 00 00
	00		 call	 DWORD PTR __imp_??0?$CStringT@DV?$StrTraitMFC_DLL@DV?$ChTraitsCRT@D@ATL@@@@@ATL@@QAE@PBDH@Z

; 502  : 		int nFirstClose = atoi(strData);

  01228	ff b5 f0 fc ff
	ff		 push	 DWORD PTR _strData$26[ebp]
  0122e	c6 45 fc 30	 mov	 BYTE PTR __$EHRec$[ebp+8], 48 ; 00000030H
  01232	ff 15 00 00 00
	00		 call	 DWORD PTR __imp__atoi

; 503  : 		double dDenom; //
; 504  : 		KB_p0602_OutRec2 stBong;
; 505  : 		
; 506  : 		switch(nDataType)

  01238	8d 4e cf	 lea	 ecx, DWORD PTR [esi-49]
  0123b	83 c4 04	 add	 esp, 4
  0123e	83 f9 04	 cmp	 ecx, 4
  01241	77 45		 ja	 SHORT $LN499@Convert2St
  01243	ff 24 8d 00 00
	00 00		 jmp	 DWORD PTR $LN498@Convert2St[ecx*4]
$LN49@Convert2St:
  0124a	66 0f 6e c0	 movd	 xmm0, eax

; 507  : 		{
; 508  : 		case 1:	dDenom = nFirstClose;		break;	//  

  0124e	f3 0f e6 c0	 cvtdq2pd xmm0, xmm0
  01252	eb 3c		 jmp	 SHORT $LN506@Convert2St
$LN50@Convert2St:

; 509  : 		case 2:	dDenom = 1;					break;	// $   

  01254	f2 0f 10 05 00
	00 00 00	 movsd	 xmm0, QWORD PTR __real@3ff0000000000000
  0125c	eb 32		 jmp	 SHORT $LN506@Convert2St
$LN51@Convert2St:

; 510  : 		case 3:	dDenom = dOpen*100;			break;	// 

  0125e	f2 0f 10 85 5c
	fc ff ff	 movsd	 xmm0, QWORD PTR _dOpen$1$[ebp]
  01266	f2 0f 59 05 00
	00 00 00	 mulsd	 xmm0, QWORD PTR __real@4059000000000000
  0126e	eb 20		 jmp	 SHORT $LN506@Convert2St
$LN52@Convert2St:
  01270	66 0f 6e 85 e0
	fc ff ff	 movd	 xmm0, DWORD PTR _nPrice$1$[ebp]

; 511  : 		case 4:	dDenom = nPrice;			break;	// 

  01278	f3 0f e6 c0	 cvtdq2pd xmm0, xmm0
  0127c	eb 12		 jmp	 SHORT $LN506@Convert2St
$LN53@Convert2St:

; 512  : 		case 5:	dDenom = dPrePrice*100;		break;	// 

  0127e	f2 0f 10 85 44
	fc ff ff	 movsd	 xmm0, QWORD PTR _dPrePrice$1$[ebp]
  01286	eb 08		 jmp	 SHORT $LN506@Convert2St
$LN499@Convert2St:

; 503  : 		double dDenom; //
; 504  : 		KB_p0602_OutRec2 stBong;
; 505  : 		
; 506  : 		switch(nDataType)

  01288	f2 0f 10 85 2c
	fc ff ff	 movsd	 xmm0, QWORD PTR _dDenom$2[ebp]
$LN506@Convert2St:

; 513  : 		}
; 514  : 
; 515  : 		for(nRow = 0; nRow < nCnt; nRow++)

  01290	83 bd d0 fc ff
	ff 00		 cmp	 DWORD PTR _nCnt$1$[ebp], 0
  01297	f2 0f 11 85 b8
	fc ff ff	 movsd	 QWORD PTR _dDenom$1$[ebp], xmm0
  0129f	c7 85 e0 fc ff
	ff 00 00 00 00	 mov	 DWORD PTR _nRow$2$[ebp], 0
  012a9	0f 8e 14 02 00
	00		 jle	 $LN487@Convert2St
  012af	8b 85 a4 fc ff
	ff		 mov	 eax, DWORD PTR _pDataBuf$1$[ebp]
  012b5	05 fe 01 00 00	 add	 eax, 510		; 000001feH
  012ba	89 85 f8 fc ff
	ff		 mov	 DWORD PTR tv2569[ebp], eax
$LL11@Convert2St:

; 516  : 		{
; 517  : 			if(nDataType == 2) break;

  012c0	83 fe 32	 cmp	 esi, 50			; 00000032H
  012c3	0f 84 f4 01 00
	00		 je	 $LN500@Convert2St

; 518  : 
; 519  : 			memcpy(&stBong, &pDataBuf[nPosBong + nRow*nBongSize], nBongSize);

  012c9	8b f0		 mov	 esi, eax
  012cb	8d bd 50 ff ff
	ff		 lea	 edi, DWORD PTR _stBong$43[ebp]
  012d1	b9 13 00 00 00	 mov	 ecx, 19			; 00000013H

; 520  : 			// 
; 521  : 			strData = CDataConverter::Get_PercentData(stBong.open, dDenom, sizeof(stBong.open));

  012d6	8d 85 58 ff ff
	ff		 lea	 eax, DWORD PTR _stBong$43[ebp+8]
  012dc	f3 a5		 rep movsd
  012de	6a 0a		 push	 10			; 0000000aH
  012e0	83 ec 08	 sub	 esp, 8
  012e3	a4		 movsb
  012e4	f2 0f 11 04 24	 movsd	 QWORD PTR [esp], xmm0
  012e9	50		 push	 eax
  012ea	8d 85 ec fc ff
	ff		 lea	 eax, DWORD PTR $T23[ebp]
  012f0	50		 push	 eax
  012f1	e8 00 00 00 00	 call	 ?Get_PercentData@CDataConverter@@SA?AV?$CStringT@DV?$StrTraitMFC_DLL@DV?$ChTraitsCRT@D@ATL@@@@@ATL@@PADNH@Z ; CDataConverter::Get_PercentData
  012f6	83 c4 14	 add	 esp, 20			; 00000014H
  012f9	50		 push	 eax
  012fa	8d 8d f0 fc ff
	ff		 lea	 ecx, DWORD PTR _strData$26[ebp]
  01300	c6 45 fc 31	 mov	 BYTE PTR __$EHRec$[ebp+8], 49 ; 00000031H
  01304	ff 15 00 00 00
	00		 call	 DWORD PTR __imp_??4?$CStringT@DV?$StrTraitMFC_DLL@DV?$ChTraitsCRT@D@ATL@@@@@ATL@@QAEAAV01@ABV01@@Z
  0130a	8d 8d ec fc ff
	ff		 lea	 ecx, DWORD PTR $T23[ebp]
  01310	c6 45 fc 30	 mov	 BYTE PTR __$EHRec$[ebp+8], 48 ; 00000030H
  01314	ff 15 00 00 00
	00		 call	 DWORD PTR __imp_??1?$CStringT@DV?$StrTraitMFC_DLL@DV?$ChTraitsCRT@D@ATL@@@@@ATL@@QAE@XZ
; File C:\Program Files (x86)\Microsoft Visual Studio\2019\Community\VC\Tools\MSVC\14.29.30133\atlmfc\include\atlsimpstr.h

; 519  : 		return( GetData()->nDataLength );

  0131a	8b 85 f0 fc ff
	ff		 mov	 eax, DWORD PTR _strData$26[ebp]
; File D:\git\src\IBK\IBK_DRFN\ProjSrc\SrcDrfn\DrCommon\PartnerMng\ChartItemUpjong.cpp

; 522  : 			memcpy(stBong.open, strData, min(strData.GetLength(), sizeof(stBong.open)));

  01320	be 0a 00 00 00	 mov	 esi, 10			; 0000000aH
  01325	8b d6		 mov	 edx, esi
  01327	39 50 f4	 cmp	 DWORD PTR [eax-12], edx
  0132a	0f 42 50 f4	 cmovb	 edx, DWORD PTR [eax-12]
  0132e	52		 push	 edx
  0132f	50		 push	 eax
  01330	8d 85 58 ff ff
	ff		 lea	 eax, DWORD PTR _stBong$43[ebp+8]
  01336	50		 push	 eax
  01337	e8 00 00 00 00	 call	 _memcpy

; 523  : 			// 
; 524  : 			strData = CDataConverter::Get_PercentData(stBong.high, dDenom, sizeof(stBong.high));

  0133c	f2 0f 10 85 b8
	fc ff ff	 movsd	 xmm0, QWORD PTR _dDenom$1$[ebp]
  01344	8d 85 62 ff ff
	ff		 lea	 eax, DWORD PTR _stBong$43[ebp+18]
  0134a	83 c4 0c	 add	 esp, 12			; 0000000cH
  0134d	56		 push	 esi
  0134e	83 ec 08	 sub	 esp, 8
  01351	f2 0f 11 04 24	 movsd	 QWORD PTR [esp], xmm0
  01356	50		 push	 eax
  01357	8d 85 b4 fc ff
	ff		 lea	 eax, DWORD PTR $T15[ebp]
  0135d	50		 push	 eax
  0135e	e8 00 00 00 00	 call	 ?Get_PercentData@CDataConverter@@SA?AV?$CStringT@DV?$StrTraitMFC_DLL@DV?$ChTraitsCRT@D@ATL@@@@@ATL@@PADNH@Z ; CDataConverter::Get_PercentData
  01363	83 c4 14	 add	 esp, 20			; 00000014H
  01366	50		 push	 eax
  01367	8d 8d f0 fc ff
	ff		 lea	 ecx, DWORD PTR _strData$26[ebp]
  0136d	c6 45 fc 32	 mov	 BYTE PTR __$EHRec$[ebp+8], 50 ; 00000032H
  01371	ff 15 00 00 00
	00		 call	 DWORD PTR __imp_??4?$CStringT@DV?$StrTraitMFC_DLL@DV?$ChTraitsCRT@D@ATL@@@@@ATL@@QAEAAV01@ABV01@@Z
  01377	8d 8d b4 fc ff
	ff		 lea	 ecx, DWORD PTR $T15[ebp]
  0137d	c6 45 fc 30	 mov	 BYTE PTR __$EHRec$[ebp+8], 48 ; 00000030H
  01381	ff 15 00 00 00
	00		 call	 DWORD PTR __imp_??1?$CStringT@DV?$StrTraitMFC_DLL@DV?$ChTraitsCRT@D@ATL@@@@@ATL@@QAE@XZ
; File C:\Program Files (x86)\Microsoft Visual Studio\2019\Community\VC\Tools\MSVC\14.29.30133\atlmfc\include\atlsimpstr.h

; 519  : 		return( GetData()->nDataLength );

  01387	8b 85 f0 fc ff
	ff		 mov	 eax, DWORD PTR _strData$26[ebp]
; File D:\git\src\IBK\IBK_DRFN\ProjSrc\SrcDrfn\DrCommon\PartnerMng\ChartItemUpjong.cpp

; 525  : 			memcpy(stBong.high, strData, min(strData.GetLength(), sizeof(stBong.high)));

  0138d	8b d6		 mov	 edx, esi
  0138f	39 50 f4	 cmp	 DWORD PTR [eax-12], edx
  01392	0f 42 50 f4	 cmovb	 edx, DWORD PTR [eax-12]
  01396	52		 push	 edx
  01397	50		 push	 eax
  01398	8d 85 62 ff ff
	ff		 lea	 eax, DWORD PTR _stBong$43[ebp+18]
  0139e	50		 push	 eax
  0139f	e8 00 00 00 00	 call	 _memcpy

; 526  : 			// 
; 527  : 			strData = CDataConverter::Get_PercentData(stBong.low, dDenom, sizeof(stBong.low));

  013a4	f2 0f 10 85 b8
	fc ff ff	 movsd	 xmm0, QWORD PTR _dDenom$1$[ebp]
  013ac	8d 85 6c ff ff
	ff		 lea	 eax, DWORD PTR _stBong$43[ebp+28]
  013b2	83 c4 0c	 add	 esp, 12			; 0000000cH
  013b5	56		 push	 esi
  013b6	83 ec 08	 sub	 esp, 8
  013b9	f2 0f 11 04 24	 movsd	 QWORD PTR [esp], xmm0
  013be	50		 push	 eax
  013bf	8d 85 80 fc ff
	ff		 lea	 eax, DWORD PTR $T8[ebp]
  013c5	50		 push	 eax
  013c6	e8 00 00 00 00	 call	 ?Get_PercentData@CDataConverter@@SA?AV?$CStringT@DV?$StrTraitMFC_DLL@DV?$ChTraitsCRT@D@ATL@@@@@ATL@@PADNH@Z ; CDataConverter::Get_PercentData
  013cb	83 c4 14	 add	 esp, 20			; 00000014H
  013ce	50		 push	 eax
  013cf	8d 8d f0 fc ff
	ff		 lea	 ecx, DWORD PTR _strData$26[ebp]
  013d5	c6 45 fc 33	 mov	 BYTE PTR __$EHRec$[ebp+8], 51 ; 00000033H
  013d9	ff 15 00 00 00
	00		 call	 DWORD PTR __imp_??4?$CStringT@DV?$StrTraitMFC_DLL@DV?$ChTraitsCRT@D@ATL@@@@@ATL@@QAEAAV01@ABV01@@Z
  013df	8d 8d 80 fc ff
	ff		 lea	 ecx, DWORD PTR $T8[ebp]
  013e5	c6 45 fc 30	 mov	 BYTE PTR __$EHRec$[ebp+8], 48 ; 00000030H
  013e9	ff 15 00 00 00
	00		 call	 DWORD PTR __imp_??1?$CStringT@DV?$StrTraitMFC_DLL@DV?$ChTraitsCRT@D@ATL@@@@@ATL@@QAE@XZ
; File C:\Program Files (x86)\Microsoft Visual Studio\2019\Community\VC\Tools\MSVC\14.29.30133\atlmfc\include\atlsimpstr.h

; 519  : 		return( GetData()->nDataLength );

  013ef	8b 85 f0 fc ff
	ff		 mov	 eax, DWORD PTR _strData$26[ebp]
; File D:\git\src\IBK\IBK_DRFN\ProjSrc\SrcDrfn\DrCommon\PartnerMng\ChartItemUpjong.cpp

; 528  : 			memcpy(stBong.low, strData, min(strData.GetLength(), sizeof(stBong.low)));

  013f5	8b d6		 mov	 edx, esi
  013f7	39 50 f4	 cmp	 DWORD PTR [eax-12], edx
  013fa	0f 42 50 f4	 cmovb	 edx, DWORD PTR [eax-12]
  013fe	52		 push	 edx
  013ff	50		 push	 eax
  01400	8d 85 6c ff ff
	ff		 lea	 eax, DWORD PTR _stBong$43[ebp+28]
  01406	50		 push	 eax
  01407	e8 00 00 00 00	 call	 _memcpy

; 529  : 			// 
; 530  : 			strData = CDataConverter::Get_PercentData(stBong.close, dDenom, sizeof(stBong.close));

  0140c	f2 0f 10 85 b8
	fc ff ff	 movsd	 xmm0, QWORD PTR _dDenom$1$[ebp]
  01414	8d 85 76 ff ff
	ff		 lea	 eax, DWORD PTR _stBong$43[ebp+38]
  0141a	83 c4 0c	 add	 esp, 12			; 0000000cH
  0141d	56		 push	 esi
  0141e	83 ec 08	 sub	 esp, 8
  01421	f2 0f 11 04 24	 movsd	 QWORD PTR [esp], xmm0
  01426	50		 push	 eax
  01427	8d 85 84 fc ff
	ff		 lea	 eax, DWORD PTR $T10[ebp]
  0142d	50		 push	 eax
  0142e	e8 00 00 00 00	 call	 ?Get_PercentData@CDataConverter@@SA?AV?$CStringT@DV?$StrTraitMFC_DLL@DV?$ChTraitsCRT@D@ATL@@@@@ATL@@PADNH@Z ; CDataConverter::Get_PercentData
  01433	83 c4 14	 add	 esp, 20			; 00000014H
  01436	50		 push	 eax
  01437	8d 8d f0 fc ff
	ff		 lea	 ecx, DWORD PTR _strData$26[ebp]
  0143d	c6 45 fc 34	 mov	 BYTE PTR __$EHRec$[ebp+8], 52 ; 00000034H
  01441	ff 15 00 00 00
	00		 call	 DWORD PTR __imp_??4?$CStringT@DV?$StrTraitMFC_DLL@DV?$ChTraitsCRT@D@ATL@@@@@ATL@@QAEAAV01@ABV01@@Z
  01447	8d 8d 84 fc ff
	ff		 lea	 ecx, DWORD PTR $T10[ebp]
  0144d	c6 45 fc 30	 mov	 BYTE PTR __$EHRec$[ebp+8], 48 ; 00000030H
  01451	ff 15 00 00 00
	00		 call	 DWORD PTR __imp_??1?$CStringT@DV?$StrTraitMFC_DLL@DV?$ChTraitsCRT@D@ATL@@@@@ATL@@QAE@XZ
; File C:\Program Files (x86)\Microsoft Visual Studio\2019\Community\VC\Tools\MSVC\14.29.30133\atlmfc\include\atlsimpstr.h

; 519  : 		return( GetData()->nDataLength );

  01457	8b 85 f0 fc ff
	ff		 mov	 eax, DWORD PTR _strData$26[ebp]
; File D:\git\src\IBK\IBK_DRFN\ProjSrc\SrcDrfn\DrCommon\PartnerMng\ChartItemUpjong.cpp

; 531  : 			memcpy(stBong.close, strData, min(strData.GetLength(), sizeof(stBong.close)));

  0145d	8b d6		 mov	 edx, esi
  0145f	39 50 f4	 cmp	 DWORD PTR [eax-12], edx
  01462	0f 42 50 f4	 cmovb	 edx, DWORD PTR [eax-12]
  01466	52		 push	 edx
  01467	50		 push	 eax
  01468	8d 85 76 ff ff
	ff		 lea	 eax, DWORD PTR _stBong$43[ebp+38]
  0146e	50		 push	 eax
  0146f	e8 00 00 00 00	 call	 _memcpy

; 532  : 
; 533  : 			memcpy(&pDataBuf[nPosBong + nRow*nBongSize], &stBong, nBongSize);

  01474	8b 85 f8 fc ff
	ff		 mov	 eax, DWORD PTR tv2569[ebp]
  0147a	8d b5 50 ff ff
	ff		 lea	 esi, DWORD PTR _stBong$43[ebp]
  01480	8b f8		 mov	 edi, eax
  01482	f2 0f 10 85 b8
	fc ff ff	 movsd	 xmm0, QWORD PTR _dDenom$1$[ebp]
  0148a	b9 13 00 00 00	 mov	 ecx, 19			; 00000013H
  0148f	83 c0 4d	 add	 eax, 77			; 0000004dH
  01492	f3 a5		 rep movsd
  01494	8b 8d e0 fc ff
	ff		 mov	 ecx, DWORD PTR _nRow$2$[ebp]
  0149a	83 c4 0c	 add	 esp, 12			; 0000000cH
  0149d	41		 inc	 ecx
  0149e	89 85 f8 fc ff
	ff		 mov	 DWORD PTR tv2569[ebp], eax
  014a4	89 8d e0 fc ff
	ff		 mov	 DWORD PTR _nRow$2$[ebp], ecx
  014aa	a4		 movsb
  014ab	8b b5 8c fc ff
	ff		 mov	 esi, DWORD PTR tv2636[ebp]
  014b1	3b 8d d0 fc ff
	ff		 cmp	 ecx, DWORD PTR _nCnt$1$[ebp]
  014b7	0f 8c 03 fe ff
	ff		 jl	 $LL11@Convert2St
$LN500@Convert2St:
  014bd	8b bd cc fc ff
	ff		 mov	 edi, DWORD PTR _this$GSCopy$1$[ebp]
$LN487@Convert2St:

; 534  : 		}
; 535  : 	}

  014c3	8d 8d f0 fc ff
	ff		 lea	 ecx, DWORD PTR _strData$26[ebp]
  014c9	c6 45 fc 23	 mov	 BYTE PTR __$EHRec$[ebp+8], 35 ; 00000023H
  014cd	ff 15 00 00 00
	00		 call	 DWORD PTR __imp_??1?$CStringT@DV?$StrTraitMFC_DLL@DV?$ChTraitsCRT@D@ATL@@@@@ATL@@QAE@XZ
$LN48@Convert2St:

; 536  : 	//////////////////////////////////////////////////////////////////////////
; 537  : 	//   
; 538  : 	CChartBozoManager bojoMng;

  014d3	8d 8d 50 fc ff
	ff		 lea	 ecx, DWORD PTR _bojoMng$[ebp]
  014d9	e8 00 00 00 00	 call	 ??0CChartBozoManager@@QAE@XZ ; CChartBozoManager::CChartBozoManager

; 539  : 	m_bojoInput.m_sShcode = strCode;

  014de	8d 85 64 fc ff
	ff		 lea	 eax, DWORD PTR _strCode$[ebp]
  014e4	50		 push	 eax
  014e5	8d 4f 40	 lea	 ecx, DWORD PTR [edi+64]
  014e8	ff 15 00 00 00
	00		 call	 DWORD PTR __imp_??4?$CStringT@DV?$StrTraitMFC_DLL@DV?$ChTraitsCRT@D@ATL@@@@@ATL@@QAEAAV01@ABV01@@Z

; 540  : 	m_bojoInput.m_sPrice = strPrice;		// 

  014ee	8d 85 d8 fc ff
	ff		 lea	 eax, DWORD PTR _strPrice$[ebp]
  014f4	50		 push	 eax
  014f5	8d 4f 54	 lea	 ecx, DWORD PTR [edi+84]
  014f8	ff 15 00 00 00
	00		 call	 DWORD PTR __imp_??4?$CStringT@DV?$StrTraitMFC_DLL@DV?$ChTraitsCRT@D@ATL@@@@@ATL@@QAEAAV01@ABV01@@Z

; 541  : 	m_bojoInput.m_sVolume = strVolume;		// 

  014fe	8d 85 a8 fc ff
	ff		 lea	 eax, DWORD PTR _strVolume$[ebp]
  01504	50		 push	 eax
  01505	8d 4f 58	 lea	 ecx, DWORD PTR [edi+88]
  01508	ff 15 00 00 00
	00		 call	 DWORD PTR __imp_??4?$CStringT@DV?$StrTraitMFC_DLL@DV?$ChTraitsCRT@D@ATL@@@@@ATL@@QAEAAV01@ABV01@@Z

; 542  : //	m_bojoInput.m_sUpLmtPrice.Format(_T("%.0f"), dMaxHigh*100);	// 
; 543  : //	m_bojoInput.m_sDnLmtPrice.Format(_T("%.0f"), dMinLow*100);	// 
; 544  : 	m_bojoInput.m_sOpen.Format(_T("%.0f"), dOpen*100);			// 

  0150e	f2 0f 10 85 5c
	fc ff ff	 movsd	 xmm0, QWORD PTR _dOpen$1$[ebp]
  01516	8d 47 64	 lea	 eax, DWORD PTR [edi+100]
  01519	f2 0f 59 05 00
	00 00 00	 mulsd	 xmm0, QWORD PTR __real@4059000000000000
  01521	83 ec 08	 sub	 esp, 8
  01524	8b 35 00 00 00
	00		 mov	 esi, DWORD PTR __imp_?Format@?$CStringT@DV?$StrTraitMFC_DLL@DV?$ChTraitsCRT@D@ATL@@@@@ATL@@QAAXPBDZZ
  0152a	f2 0f 11 04 24	 movsd	 QWORD PTR [esp], xmm0
  0152f	68 00 00 00 00	 push	 OFFSET ??_C@_04GHNNFJCK@?$CF?40f@
  01534	50		 push	 eax
  01535	ff d6		 call	 esi

; 545  : 	m_bojoInput.m_sHigh.Format(_T("%.0f"), dHigh*100);			// 

  01537	f2 0f 10 85 24
	fc ff ff	 movsd	 xmm0, QWORD PTR _dHigh$1$[ebp]
  0153f	8d 47 68	 lea	 eax, DWORD PTR [edi+104]
  01542	f2 0f 59 05 00
	00 00 00	 mulsd	 xmm0, QWORD PTR __real@4059000000000000
  0154a	83 c4 08	 add	 esp, 8
  0154d	f2 0f 11 04 24	 movsd	 QWORD PTR [esp], xmm0
  01552	68 00 00 00 00	 push	 OFFSET ??_C@_04GHNNFJCK@?$CF?40f@
  01557	50		 push	 eax
  01558	ff d6		 call	 esi

; 546  : 	m_bojoInput.m_sLow.Format(_T("%.0f"), dLow*100);			// 

  0155a	f2 0f 10 85 1c
	fc ff ff	 movsd	 xmm0, QWORD PTR _dLow$1$[ebp]
  01562	8d 47 6c	 lea	 eax, DWORD PTR [edi+108]
  01565	f2 0f 59 05 00
	00 00 00	 mulsd	 xmm0, QWORD PTR __real@4059000000000000
  0156d	83 c4 08	 add	 esp, 8
  01570	f2 0f 11 04 24	 movsd	 QWORD PTR [esp], xmm0
  01575	68 00 00 00 00	 push	 OFFSET ??_C@_04GHNNFJCK@?$CF?40f@
  0157a	50		 push	 eax
  0157b	ff d6		 call	 esi

; 547  : 	//@Solomon:091123SM068 -->
; 548  : 	m_bojoInput.m_sPreOpen.Format(_T("%.0f"), dPreOpen*100);	// 

  0157d	f2 0f 10 85 14
	fc ff ff	 movsd	 xmm0, QWORD PTR _dPreOpen$1$[ebp]
  01585	8d 87 80 00 00
	00		 lea	 eax, DWORD PTR [edi+128]
  0158b	f2 0f 59 05 00
	00 00 00	 mulsd	 xmm0, QWORD PTR __real@4059000000000000
  01593	83 c4 08	 add	 esp, 8
  01596	f2 0f 11 04 24	 movsd	 QWORD PTR [esp], xmm0
  0159b	68 00 00 00 00	 push	 OFFSET ??_C@_04GHNNFJCK@?$CF?40f@
  015a0	50		 push	 eax
  015a1	ff d6		 call	 esi

; 549  : 	m_bojoInput.m_sPreHigh.Format(_T("%.0f"), dPreHigh*100);	// 

  015a3	f2 0f 10 85 0c
	fc ff ff	 movsd	 xmm0, QWORD PTR _dPreHigh$1$[ebp]
  015ab	8d 87 84 00 00
	00		 lea	 eax, DWORD PTR [edi+132]
  015b1	f2 0f 59 05 00
	00 00 00	 mulsd	 xmm0, QWORD PTR __real@4059000000000000
  015b9	83 c4 08	 add	 esp, 8
  015bc	f2 0f 11 04 24	 movsd	 QWORD PTR [esp], xmm0
  015c1	68 00 00 00 00	 push	 OFFSET ??_C@_04GHNNFJCK@?$CF?40f@
  015c6	50		 push	 eax
  015c7	ff d6		 call	 esi

; 550  : 	m_bojoInput.m_sPreLow.Format(_T("%.0f"), dPreLow*100);		// 

  015c9	f2 0f 10 85 2c
	fc ff ff	 movsd	 xmm0, QWORD PTR _dPreLow$1$[ebp]
  015d1	8d 87 88 00 00
	00		 lea	 eax, DWORD PTR [edi+136]
  015d7	f2 0f 59 05 00
	00 00 00	 mulsd	 xmm0, QWORD PTR __real@4059000000000000
  015df	83 c4 08	 add	 esp, 8
  015e2	f2 0f 11 04 24	 movsd	 QWORD PTR [esp], xmm0
  015e7	68 00 00 00 00	 push	 OFFSET ??_C@_04GHNNFJCK@?$CF?40f@
  015ec	50		 push	 eax
  015ed	ff d6		 call	 esi

; 551  : 	//@Solomon:091123SM068 <--
; 552  : 	m_bojoInput.m_sPreprice.Format(_T("%.0f"), dPrePrice*100);	// 

  015ef	f2 0f 10 85 44
	fc ff ff	 movsd	 xmm0, QWORD PTR _dPrePrice$1$[ebp]
  015f7	8d 47 70	 lea	 eax, DWORD PTR [edi+112]
  015fa	83 c4 08	 add	 esp, 8
  015fd	f2 0f 11 04 24	 movsd	 QWORD PTR [esp], xmm0
  01602	68 00 00 00 00	 push	 OFFSET ??_C@_04GHNNFJCK@?$CF?40f@
  01607	50		 push	 eax
  01608	ff d6		 call	 esi
  0160a	83 c4 10	 add	 esp, 16			; 00000010H

; 553  : 	m_bojoInput.m_sPreVolume = strPreVolume;	// 

  0160d	8d 85 68 fc ff
	ff		 lea	 eax, DWORD PTR _strPreVolume$[ebp]
  01613	8d 4f 74	 lea	 ecx, DWORD PTR [edi+116]
  01616	50		 push	 eax
  01617	ff 15 00 00 00
	00		 call	 DWORD PTR __imp_??4?$CStringT@DV?$StrTraitMFC_DLL@DV?$ChTraitsCRT@D@ATL@@@@@ATL@@QAEAAV01@ABV01@@Z

; 554  : 	m_bojoInput.m_sStartTime = strResetTime;	// (HHMMSS) <<!>>

  0161d	8d 85 70 fc ff
	ff		 lea	 eax, DWORD PTR _strResetTime$[ebp]
  01623	50		 push	 eax
  01624	8d 4f 78	 lea	 ecx, DWORD PTR [edi+120]
  01627	ff 15 00 00 00
	00		 call	 DWORD PTR __imp_??4?$CStringT@DV?$StrTraitMFC_DLL@DV?$ChTraitsCRT@D@ATL@@@@@ATL@@QAEAAV01@ABV01@@Z

; 555  : 	m_bojoInput.m_sFirstClose = CString(stFirstBong.close, sizeof(stFirstBong.close)) ;	//   .

  0162d	6a 0a		 push	 10			; 0000000aH
  0162f	8d 85 26 ff ff
	ff		 lea	 eax, DWORD PTR _stFirstBong$[ebp+38]
  01635	50		 push	 eax
  01636	8d 8d ec fc ff
	ff		 lea	 ecx, DWORD PTR $T22[ebp]
  0163c	ff 15 00 00 00
	00		 call	 DWORD PTR __imp_??0?$CStringT@DV?$StrTraitMFC_DLL@DV?$ChTraitsCRT@D@ATL@@@@@ATL@@QAE@PBDH@Z
  01642	50		 push	 eax
  01643	8d 4f 7c	 lea	 ecx, DWORD PTR [edi+124]
  01646	c6 45 fc 35	 mov	 BYTE PTR __$EHRec$[ebp+8], 53 ; 00000035H
  0164a	ff 15 00 00 00
	00		 call	 DWORD PTR __imp_??4?$CStringT@DV?$StrTraitMFC_DLL@DV?$ChTraitsCRT@D@ATL@@@@@ATL@@QAEAAV01@ABV01@@Z
  01650	8d 8d ec fc ff
	ff		 lea	 ecx, DWORD PTR $T22[ebp]
  01656	c6 45 fc 23	 mov	 BYTE PTR __$EHRec$[ebp+8], 35 ; 00000023H
  0165a	ff 15 00 00 00
	00		 call	 DWORD PTR __imp_??1?$CStringT@DV?$StrTraitMFC_DLL@DV?$ChTraitsCRT@D@ATL@@@@@ATL@@QAE@XZ

; 556  : 
; 557  : 	m_bojoInput.m_sDataType = _T("0");		//	.   .

  01660	68 00 00 00 00	 push	 OFFSET ??_C@_01GBGANLPD@0@
  01665	8d 4f 50	 lea	 ecx, DWORD PTR [edi+80]
  01668	ff 15 00 00 00
	00		 call	 DWORD PTR __imp_??4?$CStringT@DV?$StrTraitMFC_DLL@DV?$ChTraitsCRT@D@ATL@@@@@ATL@@QAEAAV01@PBD@Z

; 558  : 	m_bojoInput.m_sMarket = _T("1");			//	.   .

  0166e	68 00 00 00 00	 push	 OFFSET ??_C@_01HIHLOKLC@1@
  01673	8d 4f 3c	 lea	 ecx, DWORD PTR [edi+60]
  01676	ff 15 00 00 00
	00		 call	 DWORD PTR __imp_??4?$CStringT@DV?$StrTraitMFC_DLL@DV?$ChTraitsCRT@D@ATL@@@@@ATL@@QAEAAV01@PBD@Z

; 559  : 	m_bojoInput.m_sNxtFlg = m_InData.Snextgb[0];

  0167c	0f b6 47 18	 movzx	 eax, BYTE PTR [edi+24]
  01680	8d 4f 4c	 lea	 ecx, DWORD PTR [edi+76]
  01683	50		 push	 eax
  01684	ff 15 00 00 00
	00		 call	 DWORD PTR __imp_??4?$CStringT@DV?$StrTraitMFC_DLL@DV?$ChTraitsCRT@D@ATL@@@@@ATL@@QAEAAV01@D@Z

; 560  : 
; 561  : 	m_bojoInput.m_sTerm.Format("%d", nType);

  0168a	8b b5 b0 fc ff
	ff		 mov	 esi, DWORD PTR _nType$1$[ebp]
  01690	8d 47 48	 lea	 eax, DWORD PTR [edi+72]
  01693	56		 push	 esi
  01694	68 00 00 00 00	 push	 OFFSET ??_C@_02DPKJAMEF@?$CFd@
  01699	50		 push	 eax
  0169a	ff 15 00 00 00
	00		 call	 DWORD PTR __imp_?Format@?$CStringT@DV?$StrTraitMFC_DLL@DV?$ChTraitsCRT@D@ATL@@@@@ATL@@QAAXPBDZZ
  016a0	83 c4 0c	 add	 esp, 12			; 0000000cH

; 562  : 	m_bojoInput.m_sTick = CString(m_InData.Sunit, sizeof(m_InData.Sunit));

  016a3	8d 47 14	 lea	 eax, DWORD PTR [edi+20]
  016a6	8d 8d b4 fc ff
	ff		 lea	 ecx, DWORD PTR $T14[ebp]
  016ac	6a 03		 push	 3
  016ae	50		 push	 eax
  016af	ff 15 00 00 00
	00		 call	 DWORD PTR __imp_??0?$CStringT@DV?$StrTraitMFC_DLL@DV?$ChTraitsCRT@D@ATL@@@@@ATL@@QAE@PBDH@Z
  016b5	8d 4f 44	 lea	 ecx, DWORD PTR [edi+68]
  016b8	c6 45 fc 36	 mov	 BYTE PTR __$EHRec$[ebp+8], 54 ; 00000036H
  016bc	50		 push	 eax
  016bd	ff 15 00 00 00
	00		 call	 DWORD PTR __imp_??4?$CStringT@DV?$StrTraitMFC_DLL@DV?$ChTraitsCRT@D@ATL@@@@@ATL@@QAEAAV01@ABV01@@Z
  016c3	8d 8d b4 fc ff
	ff		 lea	 ecx, DWORD PTR $T14[ebp]
  016c9	c6 45 fc 23	 mov	 BYTE PTR __$EHRec$[ebp+8], 35 ; 00000023H
  016cd	ff 15 00 00 00
	00		 call	 DWORD PTR __imp_??1?$CStringT@DV?$StrTraitMFC_DLL@DV?$ChTraitsCRT@D@ATL@@@@@ATL@@QAE@XZ

; 563  : 	if (nType == 1)

  016d3	83 fe 01	 cmp	 esi, 1
  016d6	75 54		 jne	 SHORT $LN55@Convert2St

; 564  : 	{
; 565  : 		//{{JS.Kim_20100903 Solomon 60      
; 566  : 		int nTick = atoi(m_bojoInput.m_sTick);

  016d8	ff 77 44	 push	 DWORD PTR [edi+68]
  016db	8d 77 44	 lea	 esi, DWORD PTR [edi+68]
  016de	ff 15 00 00 00
	00		 call	 DWORD PTR __imp__atoi
  016e4	8b c8		 mov	 ecx, eax
  016e6	83 c4 04	 add	 esp, 4

; 567  : 		if( nTick >= 60 )

  016e9	83 f9 3c	 cmp	 ecx, 60			; 0000003cH
  016ec	7c 29		 jl	 SHORT $LN57@Convert2St

; 568  : 			m_bojoInput.m_sTick.Format("%d", (nTick/ 60) * 100 + nTick % 60);

  016ee	b8 89 88 88 88	 mov	 eax, -2004318071	; 88888889H
  016f3	f7 e9		 imul	 ecx
  016f5	03 d1		 add	 edx, ecx
  016f7	c1 fa 05	 sar	 edx, 5
  016fa	8b c2		 mov	 eax, edx
  016fc	c1 e8 1f	 shr	 eax, 31			; 0000001fH
  016ff	03 c2		 add	 eax, edx
  01701	8d 04 80	 lea	 eax, DWORD PTR [eax+eax*4]
  01704	8d 04 c1	 lea	 eax, DWORD PTR [ecx+eax*8]
  01707	50		 push	 eax
  01708	68 00 00 00 00	 push	 OFFSET ??_C@_02DPKJAMEF@?$CFd@
  0170d	56		 push	 esi
  0170e	ff 15 00 00 00
	00		 call	 DWORD PTR __imp_?Format@?$CStringT@DV?$StrTraitMFC_DLL@DV?$ChTraitsCRT@D@ATL@@@@@ATL@@QAAXPBDZZ
  01714	83 c4 0c	 add	 esp, 12			; 0000000cH
$LN57@Convert2St:

; 569  : 		//}}
; 570  : 		m_bojoInput.m_szBaseTime	= strBaseTime;	

  01717	8d 85 54 fc ff
	ff		 lea	 eax, DWORD PTR _strBaseTime$[ebp]
  0171d	50		 push	 eax
  0171e	8d 8f 9c 00 00
	00		 lea	 ecx, DWORD PTR [edi+156]
  01724	ff 15 00 00 00
	00		 call	 DWORD PTR __imp_??4?$CStringT@DV?$StrTraitMFC_DLL@DV?$ChTraitsCRT@D@ATL@@@@@ATL@@QAEAAV01@ABV01@@Z

; 571  : 	}

  0172a	eb 16		 jmp	 SHORT $LN58@Convert2St
$LN55@Convert2St:

; 572  : 	else if (nType >= 2 && nType <= 5)		//	,,,

  0172c	8d 46 fe	 lea	 eax, DWORD PTR [esi-2]
  0172f	83 f8 03	 cmp	 eax, 3
  01732	77 0e		 ja	 SHORT $LN58@Convert2St

; 573  : 		m_bojoInput.m_sTick = _T("1");

  01734	68 00 00 00 00	 push	 OFFSET ??_C@_01HIHLOKLC@1@
  01739	8d 4f 44	 lea	 ecx, DWORD PTR [edi+68]
  0173c	ff 15 00 00 00
	00		 call	 DWORD PTR __imp_??4?$CStringT@DV?$StrTraitMFC_DLL@DV?$ChTraitsCRT@D@ATL@@@@@ATL@@QAEAAV01@PBD@Z
$LN58@Convert2St:

; 574  : 
; 575  : 	m_bojoInput.m_szMarketTime	= strMarketTime;	//.

  01742	8d 85 74 fc ff
	ff		 lea	 eax, DWORD PTR _strMarketTime$[ebp]
  01748	50		 push	 eax
  01749	8d 8f 98 00 00
	00		 lea	 ecx, DWORD PTR [edi+152]
  0174f	ff 15 00 00 00
	00		 call	 DWORD PTR __imp_??4?$CStringT@DV?$StrTraitMFC_DLL@DV?$ChTraitsCRT@D@ATL@@@@@ATL@@QAEAAV01@ABV01@@Z

; 576  : 
; 577  : 	CString strBozo;

  01755	8d 8d 4c fc ff
	ff		 lea	 ecx, DWORD PTR _strBozo$[ebp]
  0175b	ff 15 00 00 00
	00		 call	 DWORD PTR __imp_??0?$CStringT@DV?$StrTraitMFC_DLL@DV?$ChTraitsCRT@D@ATL@@@@@ATL@@QAE@XZ

; 578  : 	char szKey[4];
; 579  : 	memset(szKey, 0x00, sizeof(szKey));
; 580  : 	sprintf(szKey, _T("%03d"), 20); // 102 

  01761	6a 14		 push	 20			; 00000014H
  01763	8d 85 58 fc ff
	ff		 lea	 eax, DWORD PTR _szKey$[ebp]
  01769	c7 85 58 fc ff
	ff 00 00 00 00	 mov	 DWORD PTR _szKey$[ebp], 0
  01773	68 00 00 00 00	 push	 OFFSET ??_C@_04OHGLKFFN@?$CF03d@
  01778	50		 push	 eax
  01779	e8 00 00 00 00	 call	 _sprintf
  0177e	83 c4 0c	 add	 esp, 12			; 0000000cH

; 581  : 	
; 582  : 	nSize = bojoMng.GetChartBozoMsg(szKey, &m_bojoInput, strNode);

  01781	8d 85 fc fc ff
	ff		 lea	 eax, DWORD PTR _strNode$[ebp]
  01787	6a 00		 push	 0
  01789	50		 push	 eax
  0178a	8d 47 38	 lea	 eax, DWORD PTR [edi+56]
  0178d	50		 push	 eax
  0178e	8d 85 58 fc ff
	ff		 lea	 eax, DWORD PTR _szKey$[ebp]
  01794	50		 push	 eax
  01795	8d 85 50 fc ff
	ff		 lea	 eax, DWORD PTR _bojoMng$[ebp]
  0179b	50		 push	 eax
  0179c	e8 00 00 00 00	 call	 ?GetChartBozoMsg@CChartBozoManager@@UAGHPBDPAVCChartBozoInput@@AAV?$CStringT@DV?$StrTraitMFC_DLL@DV?$ChTraitsCRT@D@ATL@@@@@ATL@@H@Z ; CChartBozoManager::GetChartBozoMsg

; 583  : 	//nSize = bojoMng.GetChartBozoMsg(szKey, &m_bojoInput, strNode, 1);
; 584  : 
; 585  : 	memcpy(stOut.bojomsg, strNode, nSize);

  017a1	50		 push	 eax
  017a2	ff b5 fc fc ff
	ff		 push	 DWORD PTR _strNode$[ebp]
  017a8	8d 85 6e fd ff
	ff		 lea	 eax, DWORD PTR _stOut$[ebp+110]
  017ae	50		 push	 eax
  017af	e8 00 00 00 00	 call	 _memcpy

; 586  : 	memcpy(stOut.bojomsg, "0396", 4);
; 587  : 
; 588  : 	memcpy(pDataBuf, &stOut, sizeof(stOut));

  017b4	8b bd a4 fc ff
	ff		 mov	 edi, DWORD PTR _pDataBuf$1$[ebp]
  017ba	8d b5 00 fd ff
	ff		 lea	 esi, DWORD PTR _stOut$[ebp]
  017c0	c7 85 6e fd ff
	ff 30 33 39 36	 mov	 DWORD PTR _stOut$[ebp+110], 909718320 ; 36393330H
  017ca	b9 7f 00 00 00	 mov	 ecx, 127		; 0000007fH
  017cf	f3 a5		 rep movsd
  017d1	83 c4 0c	 add	 esp, 12			; 0000000cH

; 589  : 
; 590  : 	return pDataBuf;

  017d4	8d 8d 4c fc ff
	ff		 lea	 ecx, DWORD PTR _strBozo$[ebp]
  017da	66 a5		 movsw
  017dc	ff 15 00 00 00
	00		 call	 DWORD PTR __imp_??1?$CStringT@DV?$StrTraitMFC_DLL@DV?$ChTraitsCRT@D@ATL@@@@@ATL@@QAE@XZ
  017e2	8d 8d c8 fc ff
	ff		 lea	 ecx, DWORD PTR _strTime$[ebp]
  017e8	ff 15 00 00 00
	00		 call	 DWORD PTR __imp_??1?$CStringT@DV?$StrTraitMFC_DLL@DV?$ChTraitsCRT@D@ATL@@@@@ATL@@QAE@XZ
  017ee	8d 8d dc fc ff
	ff		 lea	 ecx, DWORD PTR _strDate$[ebp]
  017f4	ff 15 00 00 00
	00		 call	 DWORD PTR __imp_??1?$CStringT@DV?$StrTraitMFC_DLL@DV?$ChTraitsCRT@D@ATL@@@@@ATL@@QAE@XZ
  017fa	8d 8d 90 fc ff
	ff		 lea	 ecx, DWORD PTR _arrNode$[ebp]
  01800	e8 00 00 00 00	 call	 ??1CStringArray@@UAE@XZ	; CStringArray::~CStringArray
  01805	8d 8d ac fc ff
	ff		 lea	 ecx, DWORD PTR _strNextKey$[ebp]
  0180b	ff 15 00 00 00
	00		 call	 DWORD PTR __imp_??1?$CStringT@DV?$StrTraitMFC_DLL@DV?$ChTraitsCRT@D@ATL@@@@@ATL@@QAE@XZ
  01811	8d 8d 74 fc ff
	ff		 lea	 ecx, DWORD PTR _strMarketTime$[ebp]
  01817	ff 15 00 00 00
	00		 call	 DWORD PTR __imp_??1?$CStringT@DV?$StrTraitMFC_DLL@DV?$ChTraitsCRT@D@ATL@@@@@ATL@@QAE@XZ
  0181d	8d 8d 54 fc ff
	ff		 lea	 ecx, DWORD PTR _strBaseTime$[ebp]
  01823	ff 15 00 00 00
	00		 call	 DWORD PTR __imp_??1?$CStringT@DV?$StrTraitMFC_DLL@DV?$ChTraitsCRT@D@ATL@@@@@ATL@@QAE@XZ
  01829	8d 8d 70 fc ff
	ff		 lea	 ecx, DWORD PTR _strResetTime$[ebp]
  0182f	ff 15 00 00 00
	00		 call	 DWORD PTR __imp_??1?$CStringT@DV?$StrTraitMFC_DLL@DV?$ChTraitsCRT@D@ATL@@@@@ATL@@QAE@XZ
  01835	8d 8d 6c fc ff
	ff		 lea	 ecx, DWORD PTR _strJangEnd$[ebp]
  0183b	ff 15 00 00 00
	00		 call	 DWORD PTR __imp_??1?$CStringT@DV?$StrTraitMFC_DLL@DV?$ChTraitsCRT@D@ATL@@@@@ATL@@QAE@XZ
  01841	8d 8d d4 fc ff
	ff		 lea	 ecx, DWORD PTR _strJangStart$[ebp]
  01847	ff 15 00 00 00
	00		 call	 DWORD PTR __imp_??1?$CStringT@DV?$StrTraitMFC_DLL@DV?$ChTraitsCRT@D@ATL@@@@@ATL@@QAE@XZ
  0184d	8d 8d c4 fc ff
	ff		 lea	 ecx, DWORD PTR _strRealState$[ebp]
  01853	ff 15 00 00 00
	00		 call	 DWORD PTR __imp_??1?$CStringT@DV?$StrTraitMFC_DLL@DV?$ChTraitsCRT@D@ATL@@@@@ATL@@QAE@XZ
  01859	8d 8d 68 fc ff
	ff		 lea	 ecx, DWORD PTR _strPreVolume$[ebp]
  0185f	ff 15 00 00 00
	00		 call	 DWORD PTR __imp_??1?$CStringT@DV?$StrTraitMFC_DLL@DV?$ChTraitsCRT@D@ATL@@@@@ATL@@QAE@XZ
  01865	8d 8d a8 fc ff
	ff		 lea	 ecx, DWORD PTR _strVolume$[ebp]
  0186b	ff 15 00 00 00
	00		 call	 DWORD PTR __imp_??1?$CStringT@DV?$StrTraitMFC_DLL@DV?$ChTraitsCRT@D@ATL@@@@@ATL@@QAE@XZ
  01871	8d 8d d8 fc ff
	ff		 lea	 ecx, DWORD PTR _strPrice$[ebp]
  01877	ff 15 00 00 00
	00		 call	 DWORD PTR __imp_??1?$CStringT@DV?$StrTraitMFC_DLL@DV?$ChTraitsCRT@D@ATL@@@@@ATL@@QAE@XZ
  0187d	8d 8d 40 fc ff
	ff		 lea	 ecx, DWORD PTR _strLock$[ebp]
  01883	ff 15 00 00 00
	00		 call	 DWORD PTR __imp_??1?$CStringT@DV?$StrTraitMFC_DLL@DV?$ChTraitsCRT@D@ATL@@@@@ATL@@QAE@XZ
  01889	8d 8d 64 fc ff
	ff		 lea	 ecx, DWORD PTR _strCode$[ebp]
  0188f	ff 15 00 00 00
	00		 call	 DWORD PTR __imp_??1?$CStringT@DV?$StrTraitMFC_DLL@DV?$ChTraitsCRT@D@ATL@@@@@ATL@@QAE@XZ
  01895	8d 8d fc fc ff
	ff		 lea	 ecx, DWORD PTR _strNode$[ebp]
  0189b	ff 15 00 00 00
	00		 call	 DWORD PTR __imp_??1?$CStringT@DV?$StrTraitMFC_DLL@DV?$ChTraitsCRT@D@ATL@@@@@ATL@@QAE@XZ
  018a1	8d 8d f4 fc ff
	ff		 lea	 ecx, DWORD PTR _strSrc$[ebp]
  018a7	ff 15 00 00 00
	00		 call	 DWORD PTR __imp_??1?$CStringT@DV?$StrTraitMFC_DLL@DV?$ChTraitsCRT@D@ATL@@@@@ATL@@QAE@XZ
  018ad	8b 85 a4 fc ff
	ff		 mov	 eax, DWORD PTR _pDataBuf$1$[ebp]

; 591  : }

  018b3	8b 4d f4	 mov	 ecx, DWORD PTR __$EHRec$[ebp]
  018b6	64 89 0d 00 00
	00 00		 mov	 DWORD PTR fs:0, ecx
  018bd	59		 pop	 ecx
  018be	5f		 pop	 edi
  018bf	5e		 pop	 esi
  018c0	8b 4d f0	 mov	 ecx, DWORD PTR __$ArrayPad$[ebp]
  018c3	33 cd		 xor	 ecx, ebp
  018c5	e8 00 00 00 00	 call	 @__security_check_cookie@4
  018ca	8b e5		 mov	 esp, ebp
  018cc	5d		 pop	 ebp
  018cd	c2 10 00	 ret	 16			; 00000010H
$LN281@Convert2St:
; File C:\Program Files (x86)\Microsoft Visual Studio\2019\Community\VC\Tools\MSVC\14.29.30133\atlmfc\include\afxcoll.inl

; 290  : 			AfxThrowInvalidArgException();

  018d0	e8 00 00 00 00	 call	 ?AfxThrowInvalidArgException@@YGXXZ ; AfxThrowInvalidArgException
$LN504@Convert2St:
  018d5	0f 1f 00	 npad	 3
$LN498@Convert2St:
; File D:\git\src\IBK\IBK_DRFN\ProjSrc\SrcDrfn\DrCommon\PartnerMng\ChartItemUpjong.cpp

; 591  : }

  018d8	00 00 00 00	 DD	 $LN49@Convert2St
  018dc	00 00 00 00	 DD	 $LN50@Convert2St
  018e0	00 00 00 00	 DD	 $LN51@Convert2St
  018e4	00 00 00 00	 DD	 $LN52@Convert2St
  018e8	00 00 00 00	 DD	 $LN53@Convert2St
_TEXT	ENDS
;	COMDAT text$x
text$x	SEGMENT
__unwindfunclet$?Convert2Struct@CChartItemUpjong@@QAEPADPAEHHAAH@Z$0:
  00000	8d 8d f4 fc ff
	ff		 lea	 ecx, DWORD PTR _strSrc$[ebp]
  00006	ff 25 00 00 00
	00		 jmp	 DWORD PTR __imp_??1?$CStringT@DV?$StrTraitMFC_DLL@DV?$ChTraitsCRT@D@ATL@@@@@ATL@@QAE@XZ
__unwindfunclet$?Convert2Struct@CChartItemUpjong@@QAEPADPAEHHAAH@Z$1:
  0000c	8d 8d fc fc ff
	ff		 lea	 ecx, DWORD PTR _strNode$[ebp]
  00012	ff 25 00 00 00
	00		 jmp	 DWORD PTR __imp_??1?$CStringT@DV?$StrTraitMFC_DLL@DV?$ChTraitsCRT@D@ATL@@@@@ATL@@QAE@XZ
__unwindfunclet$?Convert2Struct@CChartItemUpjong@@QAEPADPAEHHAAH@Z$2:
  00018	8d 8d 64 fc ff
	ff		 lea	 ecx, DWORD PTR _strCode$[ebp]
  0001e	ff 25 00 00 00
	00		 jmp	 DWORD PTR __imp_??1?$CStringT@DV?$StrTraitMFC_DLL@DV?$ChTraitsCRT@D@ATL@@@@@ATL@@QAE@XZ
__unwindfunclet$?Convert2Struct@CChartItemUpjong@@QAEPADPAEHHAAH@Z$3:
  00024	8d 8d 40 fc ff
	ff		 lea	 ecx, DWORD PTR _strLock$[ebp]
  0002a	ff 25 00 00 00
	00		 jmp	 DWORD PTR __imp_??1?$CStringT@DV?$StrTraitMFC_DLL@DV?$ChTraitsCRT@D@ATL@@@@@ATL@@QAE@XZ
__unwindfunclet$?Convert2Struct@CChartItemUpjong@@QAEPADPAEHHAAH@Z$4:
  00030	8d 8d d8 fc ff
	ff		 lea	 ecx, DWORD PTR _strPrice$[ebp]
  00036	ff 25 00 00 00
	00		 jmp	 DWORD PTR __imp_??1?$CStringT@DV?$StrTraitMFC_DLL@DV?$ChTraitsCRT@D@ATL@@@@@ATL@@QAE@XZ
__unwindfunclet$?Convert2Struct@CChartItemUpjong@@QAEPADPAEHHAAH@Z$5:
  0003c	8d 8d a8 fc ff
	ff		 lea	 ecx, DWORD PTR _strVolume$[ebp]
  00042	ff 25 00 00 00
	00		 jmp	 DWORD PTR __imp_??1?$CStringT@DV?$StrTraitMFC_DLL@DV?$ChTraitsCRT@D@ATL@@@@@ATL@@QAE@XZ
__unwindfunclet$?Convert2Struct@CChartItemUpjong@@QAEPADPAEHHAAH@Z$6:
  00048	8d 8d 68 fc ff
	ff		 lea	 ecx, DWORD PTR _strPreVolume$[ebp]
  0004e	ff 25 00 00 00
	00		 jmp	 DWORD PTR __imp_??1?$CStringT@DV?$StrTraitMFC_DLL@DV?$ChTraitsCRT@D@ATL@@@@@ATL@@QAE@XZ
__unwindfunclet$?Convert2Struct@CChartItemUpjong@@QAEPADPAEHHAAH@Z$8:
  00054	8d 8d e0 fc ff
	ff		 lea	 ecx, DWORD PTR $T20[ebp]
  0005a	ff 25 00 00 00
	00		 jmp	 DWORD PTR __imp_??1?$CStringT@DV?$StrTraitMFC_DLL@DV?$ChTraitsCRT@D@ATL@@@@@ATL@@QAE@XZ
__unwindfunclet$?Convert2Struct@CChartItemUpjong@@QAEPADPAEHHAAH@Z$10:
  00060	8d 8d e0 fc ff
	ff		 lea	 ecx, DWORD PTR $T19[ebp]
  00066	ff 25 00 00 00
	00		 jmp	 DWORD PTR __imp_??1?$CStringT@DV?$StrTraitMFC_DLL@DV?$ChTraitsCRT@D@ATL@@@@@ATL@@QAE@XZ
__unwindfunclet$?Convert2Struct@CChartItemUpjong@@QAEPADPAEHHAAH@Z$12:
  0006c	8d 8d e0 fc ff
	ff		 lea	 ecx, DWORD PTR $T18[ebp]
  00072	ff 25 00 00 00
	00		 jmp	 DWORD PTR __imp_??1?$CStringT@DV?$StrTraitMFC_DLL@DV?$ChTraitsCRT@D@ATL@@@@@ATL@@QAE@XZ
__unwindfunclet$?Convert2Struct@CChartItemUpjong@@QAEPADPAEHHAAH@Z$14:
  00078	8d 8d f8 fc ff
	ff		 lea	 ecx, DWORD PTR $T42[ebp]
  0007e	ff 25 00 00 00
	00		 jmp	 DWORD PTR __imp_??1?$CStringT@DV?$StrTraitMFC_DLL@DV?$ChTraitsCRT@D@ATL@@@@@ATL@@QAE@XZ
__unwindfunclet$?Convert2Struct@CChartItemUpjong@@QAEPADPAEHHAAH@Z$16:
  00084	8d 8d f8 fc ff
	ff		 lea	 ecx, DWORD PTR $T41[ebp]
  0008a	ff 25 00 00 00
	00		 jmp	 DWORD PTR __imp_??1?$CStringT@DV?$StrTraitMFC_DLL@DV?$ChTraitsCRT@D@ATL@@@@@ATL@@QAE@XZ
__unwindfunclet$?Convert2Struct@CChartItemUpjong@@QAEPADPAEHHAAH@Z$17:
  00090	8d 8d f8 fc ff
	ff		 lea	 ecx, DWORD PTR $T40[ebp]
  00096	ff 25 00 00 00
	00		 jmp	 DWORD PTR __imp_??1?$CStringT@DV?$StrTraitMFC_DLL@DV?$ChTraitsCRT@D@ATL@@@@@ATL@@QAE@XZ
__unwindfunclet$?Convert2Struct@CChartItemUpjong@@QAEPADPAEHHAAH@Z$19:
  0009c	8d 8d f8 fc ff
	ff		 lea	 ecx, DWORD PTR $T39[ebp]
  000a2	ff 25 00 00 00
	00		 jmp	 DWORD PTR __imp_??1?$CStringT@DV?$StrTraitMFC_DLL@DV?$ChTraitsCRT@D@ATL@@@@@ATL@@QAE@XZ
__unwindfunclet$?Convert2Struct@CChartItemUpjong@@QAEPADPAEHHAAH@Z$21:
  000a8	8d 8d f8 fc ff
	ff		 lea	 ecx, DWORD PTR $T38[ebp]
  000ae	ff 25 00 00 00
	00		 jmp	 DWORD PTR __imp_??1?$CStringT@DV?$StrTraitMFC_DLL@DV?$ChTraitsCRT@D@ATL@@@@@ATL@@QAE@XZ
__unwindfunclet$?Convert2Struct@CChartItemUpjong@@QAEPADPAEHHAAH@Z$23:
  000b4	8d 8d f8 fc ff
	ff		 lea	 ecx, DWORD PTR $T37[ebp]
  000ba	ff 25 00 00 00
	00		 jmp	 DWORD PTR __imp_??1?$CStringT@DV?$StrTraitMFC_DLL@DV?$ChTraitsCRT@D@ATL@@@@@ATL@@QAE@XZ
__unwindfunclet$?Convert2Struct@CChartItemUpjong@@QAEPADPAEHHAAH@Z$25:
  000c0	8d 8d f8 fc ff
	ff		 lea	 ecx, DWORD PTR $T36[ebp]
  000c6	ff 25 00 00 00
	00		 jmp	 DWORD PTR __imp_??1?$CStringT@DV?$StrTraitMFC_DLL@DV?$ChTraitsCRT@D@ATL@@@@@ATL@@QAE@XZ
__unwindfunclet$?Convert2Struct@CChartItemUpjong@@QAEPADPAEHHAAH@Z$27:
  000cc	8d 8d f8 fc ff
	ff		 lea	 ecx, DWORD PTR $T35[ebp]
  000d2	ff 25 00 00 00
	00		 jmp	 DWORD PTR __imp_??1?$CStringT@DV?$StrTraitMFC_DLL@DV?$ChTraitsCRT@D@ATL@@@@@ATL@@QAE@XZ
__unwindfunclet$?Convert2Struct@CChartItemUpjong@@QAEPADPAEHHAAH@Z$29:
  000d8	8d 8d f8 fc ff
	ff		 lea	 ecx, DWORD PTR $T34[ebp]
  000de	ff 25 00 00 00
	00		 jmp	 DWORD PTR __imp_??1?$CStringT@DV?$StrTraitMFC_DLL@DV?$ChTraitsCRT@D@ATL@@@@@ATL@@QAE@XZ
__unwindfunclet$?Convert2Struct@CChartItemUpjong@@QAEPADPAEHHAAH@Z$31:
  000e4	8d 8d f8 fc ff
	ff		 lea	 ecx, DWORD PTR $T33[ebp]
  000ea	ff 25 00 00 00
	00		 jmp	 DWORD PTR __imp_??1?$CStringT@DV?$StrTraitMFC_DLL@DV?$ChTraitsCRT@D@ATL@@@@@ATL@@QAE@XZ
__unwindfunclet$?Convert2Struct@CChartItemUpjong@@QAEPADPAEHHAAH@Z$33:
  000f0	8d 8d f8 fc ff
	ff		 lea	 ecx, DWORD PTR $T32[ebp]
  000f6	ff 25 00 00 00
	00		 jmp	 DWORD PTR __imp_??1?$CStringT@DV?$StrTraitMFC_DLL@DV?$ChTraitsCRT@D@ATL@@@@@ATL@@QAE@XZ
__unwindfunclet$?Convert2Struct@CChartItemUpjong@@QAEPADPAEHHAAH@Z$35:
  000fc	8d 8d f8 fc ff
	ff		 lea	 ecx, DWORD PTR $T31[ebp]
  00102	ff 25 00 00 00
	00		 jmp	 DWORD PTR __imp_??1?$CStringT@DV?$StrTraitMFC_DLL@DV?$ChTraitsCRT@D@ATL@@@@@ATL@@QAE@XZ
__unwindfunclet$?Convert2Struct@CChartItemUpjong@@QAEPADPAEHHAAH@Z$37:
  00108	8d 8d c4 fc ff
	ff		 lea	 ecx, DWORD PTR _strRealState$[ebp]
  0010e	ff 25 00 00 00
	00		 jmp	 DWORD PTR __imp_??1?$CStringT@DV?$StrTraitMFC_DLL@DV?$ChTraitsCRT@D@ATL@@@@@ATL@@QAE@XZ
__unwindfunclet$?Convert2Struct@CChartItemUpjong@@QAEPADPAEHHAAH@Z$39:
  00114	8d 8d d4 fc ff
	ff		 lea	 ecx, DWORD PTR _strJangStart$[ebp]
  0011a	ff 25 00 00 00
	00		 jmp	 DWORD PTR __imp_??1?$CStringT@DV?$StrTraitMFC_DLL@DV?$ChTraitsCRT@D@ATL@@@@@ATL@@QAE@XZ
__unwindfunclet$?Convert2Struct@CChartItemUpjong@@QAEPADPAEHHAAH@Z$41:
  00120	8d 8d 6c fc ff
	ff		 lea	 ecx, DWORD PTR _strJangEnd$[ebp]
  00126	ff 25 00 00 00
	00		 jmp	 DWORD PTR __imp_??1?$CStringT@DV?$StrTraitMFC_DLL@DV?$ChTraitsCRT@D@ATL@@@@@ATL@@QAE@XZ
__unwindfunclet$?Convert2Struct@CChartItemUpjong@@QAEPADPAEHHAAH@Z$42:
  0012c	8d 8d 70 fc ff
	ff		 lea	 ecx, DWORD PTR _strResetTime$[ebp]
  00132	ff 25 00 00 00
	00		 jmp	 DWORD PTR __imp_??1?$CStringT@DV?$StrTraitMFC_DLL@DV?$ChTraitsCRT@D@ATL@@@@@ATL@@QAE@XZ
__unwindfunclet$?Convert2Struct@CChartItemUpjong@@QAEPADPAEHHAAH@Z$43:
  00138	8d 8d 54 fc ff
	ff		 lea	 ecx, DWORD PTR _strBaseTime$[ebp]
  0013e	ff 25 00 00 00
	00		 jmp	 DWORD PTR __imp_??1?$CStringT@DV?$StrTraitMFC_DLL@DV?$ChTraitsCRT@D@ATL@@@@@ATL@@QAE@XZ
__unwindfunclet$?Convert2Struct@CChartItemUpjong@@QAEPADPAEHHAAH@Z$44:
  00144	8d 8d 74 fc ff
	ff		 lea	 ecx, DWORD PTR _strMarketTime$[ebp]
  0014a	ff 25 00 00 00
	00		 jmp	 DWORD PTR __imp_??1?$CStringT@DV?$StrTraitMFC_DLL@DV?$ChTraitsCRT@D@ATL@@@@@ATL@@QAE@XZ
__unwindfunclet$?Convert2Struct@CChartItemUpjong@@QAEPADPAEHHAAH@Z$46:
  00150	8d 8d ac fc ff
	ff		 lea	 ecx, DWORD PTR _strNextKey$[ebp]
  00156	ff 25 00 00 00
	00		 jmp	 DWORD PTR __imp_??1?$CStringT@DV?$StrTraitMFC_DLL@DV?$ChTraitsCRT@D@ATL@@@@@ATL@@QAE@XZ
__unwindfunclet$?Convert2Struct@CChartItemUpjong@@QAEPADPAEHHAAH@Z$47:
  0015c	8d 8d f8 fc ff
	ff		 lea	 ecx, DWORD PTR $T30[ebp]
  00162	ff 25 00 00 00
	00		 jmp	 DWORD PTR __imp_??1?$CStringT@DV?$StrTraitMFC_DLL@DV?$ChTraitsCRT@D@ATL@@@@@ATL@@QAE@XZ
__unwindfunclet$?Convert2Struct@CChartItemUpjong@@QAEPADPAEHHAAH@Z$48:
  00168	8d 8d f8 fc ff
	ff		 lea	 ecx, DWORD PTR $T29[ebp]
  0016e	ff 25 00 00 00
	00		 jmp	 DWORD PTR __imp_??1?$CStringT@DV?$StrTraitMFC_DLL@DV?$ChTraitsCRT@D@ATL@@@@@ATL@@QAE@XZ
__unwindfunclet$?Convert2Struct@CChartItemUpjong@@QAEPADPAEHHAAH@Z$49:
  00174	8d 8d f8 fc ff
	ff		 lea	 ecx, DWORD PTR $T28[ebp]
  0017a	ff 25 00 00 00
	00		 jmp	 DWORD PTR __imp_??1?$CStringT@DV?$StrTraitMFC_DLL@DV?$ChTraitsCRT@D@ATL@@@@@ATL@@QAE@XZ
__unwindfunclet$?Convert2Struct@CChartItemUpjong@@QAEPADPAEHHAAH@Z$50:
  00180	8d 8d 90 fc ff
	ff		 lea	 ecx, DWORD PTR _arrNode$[ebp]
  00186	e9 00 00 00 00	 jmp	 ??1CStringArray@@UAE@XZ	; CStringArray::~CStringArray
__unwindfunclet$?Convert2Struct@CChartItemUpjong@@QAEPADPAEHHAAH@Z$52:
  0018b	8d 8d f8 fc ff
	ff		 lea	 ecx, DWORD PTR $T27[ebp]
  00191	ff 25 00 00 00
	00		 jmp	 DWORD PTR __imp_??1?$CStringT@DV?$StrTraitMFC_DLL@DV?$ChTraitsCRT@D@ATL@@@@@ATL@@QAE@XZ
__unwindfunclet$?Convert2Struct@CChartItemUpjong@@QAEPADPAEHHAAH@Z$53:
  00197	8d 8d dc fc ff
	ff		 lea	 ecx, DWORD PTR _strDate$[ebp]
  0019d	ff 25 00 00 00
	00		 jmp	 DWORD PTR __imp_??1?$CStringT@DV?$StrTraitMFC_DLL@DV?$ChTraitsCRT@D@ATL@@@@@ATL@@QAE@XZ
__unwindfunclet$?Convert2Struct@CChartItemUpjong@@QAEPADPAEHHAAH@Z$54:
  001a3	8d 8d c8 fc ff
	ff		 lea	 ecx, DWORD PTR _strTime$[ebp]
  001a9	ff 25 00 00 00
	00		 jmp	 DWORD PTR __imp_??1?$CStringT@DV?$StrTraitMFC_DLL@DV?$ChTraitsCRT@D@ATL@@@@@ATL@@QAE@XZ
__unwindfunclet$?Convert2Struct@CChartItemUpjong@@QAEPADPAEHHAAH@Z$55:
  001af	8d 8d 3c fc ff
	ff		 lea	 ecx, DWORD PTR $T5[ebp]
  001b5	ff 25 00 00 00
	00		 jmp	 DWORD PTR __imp_??1?$CStringT@DV?$StrTraitMFC_DLL@DV?$ChTraitsCRT@D@ATL@@@@@ATL@@QAE@XZ
__unwindfunclet$?Convert2Struct@CChartItemUpjong@@QAEPADPAEHHAAH@Z$75:
  001bb	8b 85 78 fc ff
	ff		 mov	 eax, DWORD PTR $T6[ebp]
  001c1	83 e0 01	 and	 eax, 1
  001c4	0f 84 13 00 00
	00		 je	 $LN291@Convert2St
  001ca	83 a5 78 fc ff
	ff fe		 and	 DWORD PTR $T6[ebp], -2	; fffffffeH
  001d1	8d 8d 88 fc ff
	ff		 lea	 ecx, DWORD PTR $T12[ebp]
  001d7	ff 25 00 00 00
	00		 jmp	 DWORD PTR __imp_??1?$CStringT@DV?$StrTraitMFC_DLL@DV?$ChTraitsCRT@D@ATL@@@@@ATL@@QAE@XZ
$LN291@Convert2St:
  001dd	c3		 ret	 0
__unwindfunclet$?Convert2Struct@CChartItemUpjong@@QAEPADPAEHHAAH@Z$57:
  001de	8d 8d 34 fc ff
	ff		 lea	 ecx, DWORD PTR $T3[ebp]
  001e4	ff 25 00 00 00
	00		 jmp	 DWORD PTR __imp_??1?$CStringT@DV?$StrTraitMFC_DLL@DV?$ChTraitsCRT@D@ATL@@@@@ATL@@QAE@XZ
__unwindfunclet$?Convert2Struct@CChartItemUpjong@@QAEPADPAEHHAAH@Z$58:
  001ea	8d 8d 38 fc ff
	ff		 lea	 ecx, DWORD PTR $T4[ebp]
  001f0	ff 25 00 00 00
	00		 jmp	 DWORD PTR __imp_??1?$CStringT@DV?$StrTraitMFC_DLL@DV?$ChTraitsCRT@D@ATL@@@@@ATL@@QAE@XZ
__unwindfunclet$?Convert2Struct@CChartItemUpjong@@QAEPADPAEHHAAH@Z$76:
  001f6	8b 85 78 fc ff
	ff		 mov	 eax, DWORD PTR $T6[ebp]
  001fc	83 e0 02	 and	 eax, 2
  001ff	0f 84 13 00 00
	00		 je	 $LN307@Convert2St
  00205	83 a5 78 fc ff
	ff fd		 and	 DWORD PTR $T6[ebp], -3	; fffffffdH
  0020c	8d 8d 7c fc ff
	ff		 lea	 ecx, DWORD PTR $T7[ebp]
  00212	ff 25 00 00 00
	00		 jmp	 DWORD PTR __imp_??1?$CStringT@DV?$StrTraitMFC_DLL@DV?$ChTraitsCRT@D@ATL@@@@@ATL@@QAE@XZ
$LN307@Convert2St:
  00218	c3		 ret	 0
__unwindfunclet$?Convert2Struct@CChartItemUpjong@@QAEPADPAEHHAAH@Z$60:
  00219	8d 8d 8c fc ff
	ff		 lea	 ecx, DWORD PTR $T13[ebp]
  0021f	ff 25 00 00 00
	00		 jmp	 DWORD PTR __imp_??1?$CStringT@DV?$StrTraitMFC_DLL@DV?$ChTraitsCRT@D@ATL@@@@@ATL@@QAE@XZ
__unwindfunclet$?Convert2Struct@CChartItemUpjong@@QAEPADPAEHHAAH@Z$61:
  00225	8d 8d 80 fc ff
	ff		 lea	 ecx, DWORD PTR $T9[ebp]
  0022b	ff 25 00 00 00
	00		 jmp	 DWORD PTR __imp_??1?$CStringT@DV?$StrTraitMFC_DLL@DV?$ChTraitsCRT@D@ATL@@@@@ATL@@QAE@XZ
__unwindfunclet$?Convert2Struct@CChartItemUpjong@@QAEPADPAEHHAAH@Z$62:
  00231	8d 8d 84 fc ff
	ff		 lea	 ecx, DWORD PTR $T11[ebp]
  00237	ff 25 00 00 00
	00		 jmp	 DWORD PTR __imp_??1?$CStringT@DV?$StrTraitMFC_DLL@DV?$ChTraitsCRT@D@ATL@@@@@ATL@@QAE@XZ
__unwindfunclet$?Convert2Struct@CChartItemUpjong@@QAEPADPAEHHAAH@Z$77:
  0023d	8b 85 78 fc ff
	ff		 mov	 eax, DWORD PTR $T6[ebp]
  00243	83 e0 04	 and	 eax, 4
  00246	0f 84 13 00 00
	00		 je	 $LN323@Convert2St
  0024c	83 a5 78 fc ff
	ff fb		 and	 DWORD PTR $T6[ebp], -5	; fffffffbH
  00253	8d 8d c0 fc ff
	ff		 lea	 ecx, DWORD PTR $T17[ebp]
  00259	ff 25 00 00 00
	00		 jmp	 DWORD PTR __imp_??1?$CStringT@DV?$StrTraitMFC_DLL@DV?$ChTraitsCRT@D@ATL@@@@@ATL@@QAE@XZ
$LN323@Convert2St:
  0025f	c3		 ret	 0
__unwindfunclet$?Convert2Struct@CChartItemUpjong@@QAEPADPAEHHAAH@Z$64:
  00260	8d 8d b4 fc ff
	ff		 lea	 ecx, DWORD PTR $T16[ebp]
  00266	ff 25 00 00 00
	00		 jmp	 DWORD PTR __imp_??1?$CStringT@DV?$StrTraitMFC_DLL@DV?$ChTraitsCRT@D@ATL@@@@@ATL@@QAE@XZ
__unwindfunclet$?Convert2Struct@CChartItemUpjong@@QAEPADPAEHHAAH@Z$65:
  0026c	8d 8d ec fc ff
	ff		 lea	 ecx, DWORD PTR $T25[ebp]
  00272	ff 25 00 00 00
	00		 jmp	 DWORD PTR __imp_??1?$CStringT@DV?$StrTraitMFC_DLL@DV?$ChTraitsCRT@D@ATL@@@@@ATL@@QAE@XZ
__unwindfunclet$?Convert2Struct@CChartItemUpjong@@QAEPADPAEHHAAH@Z$66:
  00278	8d 8d ec fc ff
	ff		 lea	 ecx, DWORD PTR $T24[ebp]
  0027e	ff 25 00 00 00
	00		 jmp	 DWORD PTR __imp_??1?$CStringT@DV?$StrTraitMFC_DLL@DV?$ChTraitsCRT@D@ATL@@@@@ATL@@QAE@XZ
__unwindfunclet$?Convert2Struct@CChartItemUpjong@@QAEPADPAEHHAAH@Z$67:
  00284	8d 8d f0 fc ff
	ff		 lea	 ecx, DWORD PTR _strData$26[ebp]
  0028a	ff 25 00 00 00
	00		 jmp	 DWORD PTR __imp_??1?$CStringT@DV?$StrTraitMFC_DLL@DV?$ChTraitsCRT@D@ATL@@@@@ATL@@QAE@XZ
__unwindfunclet$?Convert2Struct@CChartItemUpjong@@QAEPADPAEHHAAH@Z$68:
  00290	8d 8d ec fc ff
	ff		 lea	 ecx, DWORD PTR $T23[ebp]
  00296	ff 25 00 00 00
	00		 jmp	 DWORD PTR __imp_??1?$CStringT@DV?$StrTraitMFC_DLL@DV?$ChTraitsCRT@D@ATL@@@@@ATL@@QAE@XZ
__unwindfunclet$?Convert2Struct@CChartItemUpjong@@QAEPADPAEHHAAH@Z$69:
  0029c	8d 8d b4 fc ff
	ff		 lea	 ecx, DWORD PTR $T15[ebp]
  002a2	ff 25 00 00 00
	00		 jmp	 DWORD PTR __imp_??1?$CStringT@DV?$StrTraitMFC_DLL@DV?$ChTraitsCRT@D@ATL@@@@@ATL@@QAE@XZ
__unwindfunclet$?Convert2Struct@CChartItemUpjong@@QAEPADPAEHHAAH@Z$70:
  002a8	8d 8d 80 fc ff
	ff		 lea	 ecx, DWORD PTR $T8[ebp]
  002ae	ff 25 00 00 00
	00		 jmp	 DWORD PTR __imp_??1?$CStringT@DV?$StrTraitMFC_DLL@DV?$ChTraitsCRT@D@ATL@@@@@ATL@@QAE@XZ
__unwindfunclet$?Convert2Struct@CChartItemUpjong@@QAEPADPAEHHAAH@Z$71:
  002b4	8d 8d 84 fc ff
	ff		 lea	 ecx, DWORD PTR $T10[ebp]
  002ba	ff 25 00 00 00
	00		 jmp	 DWORD PTR __imp_??1?$CStringT@DV?$StrTraitMFC_DLL@DV?$ChTraitsCRT@D@ATL@@@@@ATL@@QAE@XZ
__unwindfunclet$?Convert2Struct@CChartItemUpjong@@QAEPADPAEHHAAH@Z$72:
  002c0	8d 8d ec fc ff
	ff		 lea	 ecx, DWORD PTR $T22[ebp]
  002c6	ff 25 00 00 00
	00		 jmp	 DWORD PTR __imp_??1?$CStringT@DV?$StrTraitMFC_DLL@DV?$ChTraitsCRT@D@ATL@@@@@ATL@@QAE@XZ
__unwindfunclet$?Convert2Struct@CChartItemUpjong@@QAEPADPAEHHAAH@Z$73:
  002cc	8d 8d b4 fc ff
	ff		 lea	 ecx, DWORD PTR $T14[ebp]
  002d2	ff 25 00 00 00
	00		 jmp	 DWORD PTR __imp_??1?$CStringT@DV?$StrTraitMFC_DLL@DV?$ChTraitsCRT@D@ATL@@@@@ATL@@QAE@XZ
  002d8	cc		 int	 3
  002d9	cc		 int	 3
  002da	cc		 int	 3
  002db	cc		 int	 3
  002dc	cc		 int	 3
__ehhandler$?Convert2Struct@CChartItemUpjong@@QAEPADPAEHHAAH@Z:
  002dd	90		 npad	 1
  002de	90		 npad	 1
  002df	8b 54 24 08	 mov	 edx, DWORD PTR [esp+8]
  002e3	8d 42 0c	 lea	 eax, DWORD PTR [edx+12]
  002e6	8b 8a 0c fc ff
	ff		 mov	 ecx, DWORD PTR [edx-1012]
  002ec	33 c8		 xor	 ecx, eax
  002ee	e8 00 00 00 00	 call	 @__security_check_cookie@4
  002f3	8b 4a fc	 mov	 ecx, DWORD PTR [edx-4]
  002f6	33 c8		 xor	 ecx, eax
  002f8	e8 00 00 00 00	 call	 @__security_check_cookie@4
  002fd	b8 00 00 00 00	 mov	 eax, OFFSET __ehfuncinfo$?Convert2Struct@CChartItemUpjong@@QAEPADPAEHHAAH@Z
  00302	e9 00 00 00 00	 jmp	 ___CxxFrameHandler3
text$x	ENDS
?Convert2Struct@CChartItemUpjong@@QAEPADPAEHHAAH@Z ENDP	; CChartItemUpjong::Convert2Struct
; Function compile flags: /Ogtp
; File D:\git\src\IBK\IBK_DRFN\ProjSrc\SrcDrfn\DrCommon\PartnerMng\ChartItemUpjong.cpp
; File C:\Program Files (x86)\Microsoft Visual Studio\2019\Community\VC\Tools\MSVC\14.29.30133\atlmfc\include\atlsimpstr.h
; File D:\git\src\IBK\IBK_DRFN\ProjSrc\SrcDrfn\DrCommon\PartnerMng\ChartItemUpjong.cpp
;	COMDAT ?Convert@CChartItemUpjong@@QAE?AV?$CStringT@DV?$StrTraitMFC_DLL@DV?$ChTraitsCRT@D@ATL@@@@@ATL@@XZ
_TEXT	SEGMENT
___$ReturnUdt$GSCopy$1$ = -416				; size = 4
_nCount$1$ = -412					; size = 4
___$ReturnUdt$GSCopy$ = -412				; size = 4
_strNow$ = -408						; size = 4
_strDate$ = -404					; size = 4
_strImgRgb$ = -400					; size = 4
_strCode$ = -396					; size = 4
_temp$ = -392						; size = 4
_nUnit$1$ = -388					; size = 4
_stRowData$ = -384					; size = 4
tv1054 = -380						; size = 4
$T2 = -380						; size = 4
$T3 = -380						; size = 4
$T4 = -380						; size = 4
$T5 = -380						; size = 4
_strTemp$ = -376					; size = 4
_this$GSCopy$1$ = -372					; size = 4
_nType$1$ = -372					; size = 4
$T6 = -372						; size = 4
$T7 = -372						; size = 4
$T8 = -372						; size = 4
$T9 = -372						; size = 4
_stNextKey$ = -368					; size = 4
_stNextData$ = -364					; size = 4
_strData$ = -360					; size = 4
_Datah$ = -356						; size = 136
_pUpjongSymbol$ = -220					; size = 68
_szData_i$ = -152					; size = 136
__$ArrayPad$ = -16					; size = 4
__$EHRec$ = -12						; size = 12
___$ReturnUdt$ = 8					; size = 4
?Convert@CChartItemUpjong@@QAE?AV?$CStringT@DV?$StrTraitMFC_DLL@DV?$ChTraitsCRT@D@ATL@@@@@ATL@@XZ PROC ; CChartItemUpjong::Convert, COMDAT
; _this$ = ecx

; 43   : {

  00000	55		 push	 ebp
  00001	8b ec		 mov	 ebp, esp
  00003	6a ff		 push	 -1
  00005	68 00 00 00 00	 push	 __ehhandler$?Convert@CChartItemUpjong@@QAE?AV?$CStringT@DV?$StrTraitMFC_DLL@DV?$ChTraitsCRT@D@ATL@@@@@ATL@@XZ
  0000a	64 a1 00 00 00
	00		 mov	 eax, DWORD PTR fs:0
  00010	50		 push	 eax
  00011	81 ec 94 01 00
	00		 sub	 esp, 404		; 00000194H
  00017	a1 00 00 00 00	 mov	 eax, DWORD PTR ___security_cookie
  0001c	33 c5		 xor	 eax, ebp
  0001e	89 45 f0	 mov	 DWORD PTR __$ArrayPad$[ebp], eax
  00021	53		 push	 ebx
  00022	56		 push	 esi
  00023	57		 push	 edi
  00024	50		 push	 eax
  00025	8d 45 f4	 lea	 eax, DWORD PTR __$EHRec$[ebp]
  00028	64 a3 00 00 00
	00		 mov	 DWORD PTR fs:0, eax
  0002e	89 8d 8c fe ff
	ff		 mov	 DWORD PTR _this$GSCopy$1$[ebp], ecx

; 44   : 	if(!m_bSet) 

  00034	80 b9 00 01 00
	00 00		 cmp	 BYTE PTR [ecx+256], 0
  0003b	8b 5d 08	 mov	 ebx, DWORD PTR ___$ReturnUdt$[ebp]
  0003e	89 9d 60 fe ff
	ff		 mov	 DWORD PTR ___$ReturnUdt$GSCopy$1$[ebp], ebx
  00044	89 9d 64 fe ff
	ff		 mov	 DWORD PTR ___$ReturnUdt$GSCopy$[ebp], ebx
  0004a	75 14		 jne	 SHORT $LN21@Convert

; 45   : 		return "";

  0004c	68 00 00 00 00	 push	 OFFSET ??_C@_00CNPNBAHC@@
  00051	8b cb		 mov	 ecx, ebx
  00053	ff 15 00 00 00
	00		 call	 DWORD PTR __imp_??0?$CStringT@DV?$StrTraitMFC_DLL@DV?$ChTraitsCRT@D@ATL@@@@@ATL@@QAE@PBD@Z
  00059	8b c3		 mov	 eax, ebx
  0005b	e9 36 09 00 00	 jmp	 $LN1@Convert
$LN21@Convert:

; 46   : 
; 47   : 	CString strData, strCode, strTemp, strImgRgb, strDate;

  00060	8d 8d 98 fe ff
	ff		 lea	 ecx, DWORD PTR _strData$[ebp]
  00066	ff 15 00 00 00
	00		 call	 DWORD PTR __imp_??0?$CStringT@DV?$StrTraitMFC_DLL@DV?$ChTraitsCRT@D@ATL@@@@@ATL@@QAE@XZ
  0006c	8d 8d 74 fe ff
	ff		 lea	 ecx, DWORD PTR _strCode$[ebp]
  00072	c7 45 fc 00 00
	00 00		 mov	 DWORD PTR __$EHRec$[ebp+8], 0
  00079	ff 15 00 00 00
	00		 call	 DWORD PTR __imp_??0?$CStringT@DV?$StrTraitMFC_DLL@DV?$ChTraitsCRT@D@ATL@@@@@ATL@@QAE@XZ
  0007f	8d 8d 88 fe ff
	ff		 lea	 ecx, DWORD PTR _strTemp$[ebp]
  00085	ff 15 00 00 00
	00		 call	 DWORD PTR __imp_??0?$CStringT@DV?$StrTraitMFC_DLL@DV?$ChTraitsCRT@D@ATL@@@@@ATL@@QAE@XZ
  0008b	8d 8d 70 fe ff
	ff		 lea	 ecx, DWORD PTR _strImgRgb$[ebp]
  00091	ff 15 00 00 00
	00		 call	 DWORD PTR __imp_??0?$CStringT@DV?$StrTraitMFC_DLL@DV?$ChTraitsCRT@D@ATL@@@@@ATL@@QAE@XZ
  00097	8d 8d 6c fe ff
	ff		 lea	 ecx, DWORD PTR _strDate$[ebp]
  0009d	ff 15 00 00 00
	00		 call	 DWORD PTR __imp_??0?$CStringT@DV?$StrTraitMFC_DLL@DV?$ChTraitsCRT@D@ATL@@@@@ATL@@QAE@XZ

; 48   : 	int i, nCount;
; 49   : 	
; 50   : 	strTemp = CString(m_InData.Smaxbong, sizeof(m_InData.Smaxbong));

  000a3	8b 9d 8c fe ff
	ff		 mov	 ebx, DWORD PTR _this$GSCopy$1$[ebp]
  000a9	8d 8d 8c fe ff
	ff		 lea	 ecx, DWORD PTR $T9[ebp]
  000af	6a 04		 push	 4
  000b1	c6 45 fc 04	 mov	 BYTE PTR __$EHRec$[ebp+8], 4
  000b5	8d 43 10	 lea	 eax, DWORD PTR [ebx+16]
  000b8	50		 push	 eax
  000b9	ff 15 00 00 00
	00		 call	 DWORD PTR __imp_??0?$CStringT@DV?$StrTraitMFC_DLL@DV?$ChTraitsCRT@D@ATL@@@@@ATL@@QAE@PBDH@Z
  000bf	50		 push	 eax
  000c0	8d 8d 88 fe ff
	ff		 lea	 ecx, DWORD PTR _strTemp$[ebp]
  000c6	c6 45 fc 05	 mov	 BYTE PTR __$EHRec$[ebp+8], 5
  000ca	ff 15 00 00 00
	00		 call	 DWORD PTR __imp_??4?$CStringT@DV?$StrTraitMFC_DLL@DV?$ChTraitsCRT@D@ATL@@@@@ATL@@QAEAAV01@ABV01@@Z
  000d0	8d 8d 8c fe ff
	ff		 lea	 ecx, DWORD PTR $T9[ebp]
  000d6	c6 45 fc 04	 mov	 BYTE PTR __$EHRec$[ebp+8], 4
  000da	ff 15 00 00 00
	00		 call	 DWORD PTR __imp_??1?$CStringT@DV?$StrTraitMFC_DLL@DV?$ChTraitsCRT@D@ATL@@@@@ATL@@QAE@XZ

; 51   : 	nCount = atoi(strTemp);

  000e0	ff b5 88 fe ff
	ff		 push	 DWORD PTR _strTemp$[ebp]
  000e6	8b 35 00 00 00
	00		 mov	 esi, DWORD PTR __imp__atoi
  000ec	ff d6		 call	 esi
  000ee	83 c4 04	 add	 esp, 4
  000f1	89 85 64 fe ff
	ff		 mov	 DWORD PTR _nCount$1$[ebp], eax

; 52   : 
; 53   : 	strCode = CString(m_InData.Supcode, sizeof(m_InData.Supcode));

  000f7	8d 4b 05	 lea	 ecx, DWORD PTR [ebx+5]
  000fa	6a 03		 push	 3
  000fc	51		 push	 ecx
  000fd	8d 8d 8c fe ff
	ff		 lea	 ecx, DWORD PTR $T8[ebp]
  00103	ff 15 00 00 00
	00		 call	 DWORD PTR __imp_??0?$CStringT@DV?$StrTraitMFC_DLL@DV?$ChTraitsCRT@D@ATL@@@@@ATL@@QAE@PBDH@Z
  00109	50		 push	 eax
  0010a	8d 8d 74 fe ff
	ff		 lea	 ecx, DWORD PTR _strCode$[ebp]
  00110	c6 45 fc 06	 mov	 BYTE PTR __$EHRec$[ebp+8], 6
  00114	ff 15 00 00 00
	00		 call	 DWORD PTR __imp_??4?$CStringT@DV?$StrTraitMFC_DLL@DV?$ChTraitsCRT@D@ATL@@@@@ATL@@QAEAAV01@ABV01@@Z
  0011a	8d 8d 8c fe ff
	ff		 lea	 ecx, DWORD PTR $T8[ebp]
  00120	c6 45 fc 04	 mov	 BYTE PTR __$EHRec$[ebp+8], 4
  00124	ff 15 00 00 00
	00		 call	 DWORD PTR __imp_??1?$CStringT@DV?$StrTraitMFC_DLL@DV?$ChTraitsCRT@D@ATL@@@@@ATL@@QAE@XZ

; 54   : 	strCode.TrimLeft(); strCode.TrimRight();

  0012a	8d 8d 74 fe ff
	ff		 lea	 ecx, DWORD PTR _strCode$[ebp]
  00130	ff 15 00 00 00
	00		 call	 DWORD PTR __imp_?TrimLeft@?$CStringT@DV?$StrTraitMFC_DLL@DV?$ChTraitsCRT@D@ATL@@@@@ATL@@QAEAAV12@XZ
  00136	8d 8d 74 fe ff
	ff		 lea	 ecx, DWORD PTR _strCode$[ebp]
  0013c	ff 15 00 00 00
	00		 call	 DWORD PTR __imp_?TrimRight@?$CStringT@DV?$StrTraitMFC_DLL@DV?$ChTraitsCRT@D@ATL@@@@@ATL@@QAEAAV12@XZ

; 55   : 
; 56   : 	strTemp = CString(m_InData.Sunit, sizeof(m_InData.Sunit));

  00142	6a 03		 push	 3
  00144	8d 43 14	 lea	 eax, DWORD PTR [ebx+20]
  00147	50		 push	 eax
  00148	8d 8d 8c fe ff
	ff		 lea	 ecx, DWORD PTR $T7[ebp]
  0014e	ff 15 00 00 00
	00		 call	 DWORD PTR __imp_??0?$CStringT@DV?$StrTraitMFC_DLL@DV?$ChTraitsCRT@D@ATL@@@@@ATL@@QAE@PBDH@Z
  00154	50		 push	 eax
  00155	8d 8d 88 fe ff
	ff		 lea	 ecx, DWORD PTR _strTemp$[ebp]
  0015b	c6 45 fc 07	 mov	 BYTE PTR __$EHRec$[ebp+8], 7
  0015f	ff 15 00 00 00
	00		 call	 DWORD PTR __imp_??4?$CStringT@DV?$StrTraitMFC_DLL@DV?$ChTraitsCRT@D@ATL@@@@@ATL@@QAEAAV01@ABV01@@Z
  00165	8d 8d 8c fe ff
	ff		 lea	 ecx, DWORD PTR $T7[ebp]
  0016b	c6 45 fc 04	 mov	 BYTE PTR __$EHRec$[ebp+8], 4
  0016f	ff 15 00 00 00
	00		 call	 DWORD PTR __imp_??1?$CStringT@DV?$StrTraitMFC_DLL@DV?$ChTraitsCRT@D@ATL@@@@@ATL@@QAE@XZ

; 57   : 	int nUnit = atoi(strTemp);

  00175	ff b5 88 fe ff
	ff		 push	 DWORD PTR _strTemp$[ebp]
  0017b	ff d6		 call	 esi
  0017d	83 c4 04	 add	 esp, 4
  00180	89 85 7c fe ff
	ff		 mov	 DWORD PTR _nUnit$1$[ebp], eax

; 58   : 
; 59   : 	strTemp = CString(m_InData.Sbtngb, sizeof(m_InData.Sbtngb)); // (0)/(1)/(2)/(3)/(4)

  00186	8d 4b 17	 lea	 ecx, DWORD PTR [ebx+23]
  00189	6a 01		 push	 1
  0018b	51		 push	 ecx
  0018c	8d 8d 8c fe ff
	ff		 lea	 ecx, DWORD PTR $T6[ebp]
  00192	ff 15 00 00 00
	00		 call	 DWORD PTR __imp_??0?$CStringT@DV?$StrTraitMFC_DLL@DV?$ChTraitsCRT@D@ATL@@@@@ATL@@QAE@PBDH@Z
  00198	50		 push	 eax
  00199	8d 8d 88 fe ff
	ff		 lea	 ecx, DWORD PTR _strTemp$[ebp]
  0019f	c6 45 fc 08	 mov	 BYTE PTR __$EHRec$[ebp+8], 8
  001a3	ff 15 00 00 00
	00		 call	 DWORD PTR __imp_??4?$CStringT@DV?$StrTraitMFC_DLL@DV?$ChTraitsCRT@D@ATL@@@@@ATL@@QAEAAV01@ABV01@@Z
  001a9	c6 45 fc 04	 mov	 BYTE PTR __$EHRec$[ebp+8], 4
  001ad	8d 8d 8c fe ff
	ff		 lea	 ecx, DWORD PTR $T6[ebp]
  001b3	ff 15 00 00 00
	00		 call	 DWORD PTR __imp_??1?$CStringT@DV?$StrTraitMFC_DLL@DV?$ChTraitsCRT@D@ATL@@@@@ATL@@QAE@XZ

; 60   : 	int nType = atoi(strTemp);

  001b9	ff b5 88 fe ff
	ff		 push	 DWORD PTR _strTemp$[ebp]
  001bf	ff d6		 call	 esi
  001c1	8b f8		 mov	 edi, eax

; 61   : 	strDate	= CDataConverter::Char2String(m_InData.Sdate, sizeof(m_InData.Sdate));

  001c3	8d 4b 08	 lea	 ecx, DWORD PTR [ebx+8]
  001c6	6a 08		 push	 8
  001c8	51		 push	 ecx
  001c9	8d 85 84 fe ff
	ff		 lea	 eax, DWORD PTR $T5[ebp]
  001cf	89 bd 8c fe ff
	ff		 mov	 DWORD PTR _nType$1$[ebp], edi
  001d5	50		 push	 eax
  001d6	e8 00 00 00 00	 call	 ?Char2String@CDataConverter@@SA?AV?$CStringT@DV?$StrTraitMFC_DLL@DV?$ChTraitsCRT@D@ATL@@@@@ATL@@PADH@Z ; CDataConverter::Char2String
  001db	83 c4 10	 add	 esp, 16			; 00000010H
  001de	50		 push	 eax
  001df	8d 8d 6c fe ff
	ff		 lea	 ecx, DWORD PTR _strDate$[ebp]
  001e5	c6 45 fc 09	 mov	 BYTE PTR __$EHRec$[ebp+8], 9
  001e9	ff 15 00 00 00
	00		 call	 DWORD PTR __imp_??4?$CStringT@DV?$StrTraitMFC_DLL@DV?$ChTraitsCRT@D@ATL@@@@@ATL@@QAEAAV01@ABV01@@Z
  001ef	8d 8d 84 fe ff
	ff		 lea	 ecx, DWORD PTR $T5[ebp]
  001f5	c6 45 fc 04	 mov	 BYTE PTR __$EHRec$[ebp+8], 4
  001f9	ff 15 00 00 00
	00		 call	 DWORD PTR __imp_??1?$CStringT@DV?$StrTraitMFC_DLL@DV?$ChTraitsCRT@D@ATL@@@@@ATL@@QAE@XZ

; 62   : 	strImgRgb = CDataConverter::Char2String(m_InData.ImgRgb, sizeof(m_InData.ImgRgb));

  001ff	6a 01		 push	 1
  00201	8d 43 37	 lea	 eax, DWORD PTR [ebx+55]
  00204	50		 push	 eax
  00205	8d 85 84 fe ff
	ff		 lea	 eax, DWORD PTR $T4[ebp]
  0020b	50		 push	 eax
  0020c	e8 00 00 00 00	 call	 ?Char2String@CDataConverter@@SA?AV?$CStringT@DV?$StrTraitMFC_DLL@DV?$ChTraitsCRT@D@ATL@@@@@ATL@@PADH@Z ; CDataConverter::Char2String
  00211	83 c4 0c	 add	 esp, 12			; 0000000cH
  00214	50		 push	 eax
  00215	8d 8d 70 fe ff
	ff		 lea	 ecx, DWORD PTR _strImgRgb$[ebp]
  0021b	c6 45 fc 0a	 mov	 BYTE PTR __$EHRec$[ebp+8], 10 ; 0000000aH
  0021f	ff 15 00 00 00
	00		 call	 DWORD PTR __imp_??4?$CStringT@DV?$StrTraitMFC_DLL@DV?$ChTraitsCRT@D@ATL@@@@@ATL@@QAEAAV01@ABV01@@Z
  00225	8d 8d 84 fe ff
	ff		 lea	 ecx, DWORD PTR $T4[ebp]
  0022b	c6 45 fc 04	 mov	 BYTE PTR __$EHRec$[ebp+8], 4
  0022f	ff 15 00 00 00
	00		 call	 DWORD PTR __imp_??1?$CStringT@DV?$StrTraitMFC_DLL@DV?$ChTraitsCRT@D@ATL@@@@@ATL@@QAE@XZ

; 63   : 	CString strNow	= CDataConverter::Char2String(m_InData.nowData, sizeof(m_InData.nowData));

  00235	8d 43 36	 lea	 eax, DWORD PTR [ebx+54]
  00238	6a 01		 push	 1
  0023a	50		 push	 eax
  0023b	89 85 84 fe ff
	ff		 mov	 DWORD PTR tv1054[ebp], eax
  00241	8d 85 68 fe ff
	ff		 lea	 eax, DWORD PTR _strNow$[ebp]
  00247	50		 push	 eax
  00248	e8 00 00 00 00	 call	 ?Char2String@CDataConverter@@SA?AV?$CStringT@DV?$StrTraitMFC_DLL@DV?$ChTraitsCRT@D@ATL@@@@@ATL@@PADH@Z ; CDataConverter::Char2String

; 64   : 	int nFlag     = CDataConverter::Char2Int(m_InData.Snextgb, sizeof(m_InData.Snextgb));	// 0:

  0024d	8d 43 18	 lea	 eax, DWORD PTR [ebx+24]
  00250	c6 45 fc 0b	 mov	 BYTE PTR __$EHRec$[ebp+8], 11 ; 0000000bH
  00254	6a 01		 push	 1
  00256	50		 push	 eax
  00257	e8 00 00 00 00	 call	 ?Char2Int@CDataConverter@@SAHPADH@Z ; CDataConverter::Char2Int
  0025c	83 c4 14	 add	 esp, 20			; 00000014H

; 65   : 	//////////////////////////////////////////////////////////////////////////
; 66   : 	// Inbound  
; 67   : 	//////////////////////////////////////////////////////////////////////////
; 68   : 
; 69   : 	//  
; 70   : 	strData += "21301"; //  Input 

  0025f	8d 8d 98 fe ff
	ff		 lea	 ecx, DWORD PTR _strData$[ebp]
  00265	8b f0		 mov	 esi, eax
  00267	68 00 00 00 00	 push	 OFFSET ??_C@_05JLGGNMKB@21301@
  0026c	ff 15 00 00 00
	00		 call	 DWORD PTR __imp_??Y?$CStringT@DV?$StrTraitMFC_DLL@DV?$ChTraitsCRT@D@ATL@@@@@ATL@@QAEAAV01@PBD@Z

; 71   : 	strData += sDS;

  00272	6a 7f		 push	 127			; 0000007fH
  00274	8d 8d 98 fe ff
	ff		 lea	 ecx, DWORD PTR _strData$[ebp]
  0027a	ff 15 00 00 00
	00		 call	 DWORD PTR __imp_??Y?$CStringT@DV?$StrTraitMFC_DLL@DV?$ChTraitsCRT@D@ATL@@@@@ATL@@QAEAAV01@D@Z

; 72   : 
; 73   : 	strData += strCode;

  00280	8d 85 74 fe ff
	ff		 lea	 eax, DWORD PTR _strCode$[ebp]
  00286	50		 push	 eax
  00287	8d 8d 98 fe ff
	ff		 lea	 ecx, DWORD PTR _strData$[ebp]
  0028d	ff 15 00 00 00
	00		 call	 DWORD PTR __imp_??Y?$CStringT@DV?$StrTraitMFC_DLL@DV?$ChTraitsCRT@D@ATL@@@@@ATL@@QAEAAV01@ABV?$CSimpleStringT@D$00@1@@Z

; 74   : 	strData +=  sCELL;//KHD sFS;

  00293	6a 09		 push	 9
  00295	8d 8d 98 fe ff
	ff		 lea	 ecx, DWORD PTR _strData$[ebp]
  0029b	ff 15 00 00 00
	00		 call	 DWORD PTR __imp_??Y?$CStringT@DV?$StrTraitMFC_DLL@DV?$ChTraitsCRT@D@ATL@@@@@ATL@@QAEAAV01@D@Z

; 75   : 
; 76   : 	CString stNextData, stNextKey;

  002a1	8d 8d 94 fe ff
	ff		 lea	 ecx, DWORD PTR _stNextData$[ebp]
  002a7	ff 15 00 00 00
	00		 call	 DWORD PTR __imp_??0?$CStringT@DV?$StrTraitMFC_DLL@DV?$ChTraitsCRT@D@ATL@@@@@ATL@@QAE@XZ
  002ad	8d 8d 90 fe ff
	ff		 lea	 ecx, DWORD PTR _stNextKey$[ebp]
  002b3	ff 15 00 00 00
	00		 call	 DWORD PTR __imp_??0?$CStringT@DV?$StrTraitMFC_DLL@DV?$ChTraitsCRT@D@ATL@@@@@ATL@@QAE@XZ
  002b9	83 c3 19	 add	 ebx, 25			; 00000019H
  002bc	c6 45 fc 0d	 mov	 BYTE PTR __$EHRec$[ebp+8], 13 ; 0000000dH

; 77   : 	
; 78   : 	//NEXTKEY : KHD
; 79   : 	if(nFlag == 0)

  002c0	85 f6		 test	 esi, esi
  002c2	75 24		 jne	 SHORT $LN107@Convert

; 80   : 	{
; 81   : 		stNextData = "99999999999999";

  002c4	68 00 00 00 00	 push	 OFFSET ??_C@_0P@FLGGHACJ@99999999999999@
  002c9	8d 8d 94 fe ff
	ff		 lea	 ecx, DWORD PTR _stNextData$[ebp]
  002cf	ff 15 00 00 00
	00		 call	 DWORD PTR __imp_??4?$CStringT@DV?$StrTraitMFC_DLL@DV?$ChTraitsCRT@D@ATL@@@@@ATL@@QAEAAV01@PBD@Z
; File C:\Program Files (x86)\Microsoft Visual Studio\2019\Community\VC\Tools\MSVC\14.29.30133\atlmfc\include\atlsimpstr.h

; 519  : 		return( GetData()->nDataLength );

  002d5	8b 85 94 fe ff
	ff		 mov	 eax, DWORD PTR _stNextData$[ebp]
; File D:\git\src\IBK\IBK_DRFN\ProjSrc\SrcDrfn\DrCommon\PartnerMng\ChartItemUpjong.cpp

; 82   : 		memcpy(m_InData.Snextkey, (LPCSTR)(LPCTSTR)stNextData,stNextData.GetLength());

  002db	ff 70 f4	 push	 DWORD PTR [eax-12]
  002de	50		 push	 eax
  002df	53		 push	 ebx
  002e0	e8 00 00 00 00	 call	 _memcpy
  002e5	83 c4 0c	 add	 esp, 12			; 0000000cH
$LN107@Convert:

; 83   : 	}
; 84   : 	//
; 85   : 	CString stRowData;

  002e8	8d 8d 80 fe ff
	ff		 lea	 ecx, DWORD PTR _stRowData$[ebp]
  002ee	ff 15 00 00 00
	00		 call	 DWORD PTR __imp_??0?$CStringT@DV?$StrTraitMFC_DLL@DV?$ChTraitsCRT@D@ATL@@@@@ATL@@QAE@XZ

; 86   : 	_dataH	Datah;
; 87   : 	FillMemory(&Datah, sz_DATAH, 0x20);

  002f4	68 88 00 00 00	 push	 136			; 00000088H
  002f9	8d 85 9c fe ff
	ff		 lea	 eax, DWORD PTR _Datah$[ebp]
  002ff	c6 45 fc 0e	 mov	 BYTE PTR __$EHRec$[ebp+8], 14 ; 0000000eH
  00303	6a 20		 push	 32			; 00000020H
  00305	50		 push	 eax
  00306	e8 00 00 00 00	 call	 _memset
  0030b	83 c4 0c	 add	 esp, 12			; 0000000cH

; 88   : 	switch(nType)

  0030e	83 ff 06	 cmp	 edi, 6
  00311	8b 3d 00 00 00
	00		 mov	 edi, DWORD PTR __imp_?Format@?$CStringT@DV?$StrTraitMFC_DLL@DV?$ChTraitsCRT@D@ATL@@@@@ATL@@QAAXPBDZZ
  00317	0f 87 38 03 00
	00		 ja	 $LN2@Convert
  0031d	8b 85 8c fe ff
	ff		 mov	 eax, DWORD PTR _nType$1$[ebp]
  00323	ff 24 85 00 00
	00 00		 jmp	 DWORD PTR $LN113@Convert[eax*4]
$LN23@Convert:

; 89   : 	{
; 90   : 	case 0:		// 
; 91   : 		Datah.dindex = GI_TICK;
; 92   : 		stRowData = _T("?22500");

  0032a	68 00 00 00 00	 push	 OFFSET ??_C@_06JCDDGDIK@?$DP22500@
  0032f	8d 8d 80 fe ff
	ff		 lea	 ecx, DWORD PTR _stRowData$[ebp]
  00335	c6 85 b3 fe ff
	ff 05		 mov	 BYTE PTR _Datah$[ebp+23], 5
  0033c	ff 15 00 00 00
	00		 call	 DWORD PTR __imp_??4?$CStringT@DV?$StrTraitMFC_DLL@DV?$ChTraitsCRT@D@ATL@@@@@ATL@@QAEAAV01@PBD@Z

; 93   : 	
; 94   : 		strData += "22309";	strData += sDS;	strData += strNow;	strData += sCELL;//

  00342	68 00 00 00 00	 push	 OFFSET ??_C@_05BEBPCMHJ@22309@
  00347	8d 8d 98 fe ff
	ff		 lea	 ecx, DWORD PTR _strData$[ebp]
  0034d	ff 15 00 00 00
	00		 call	 DWORD PTR __imp_??Y?$CStringT@DV?$StrTraitMFC_DLL@DV?$ChTraitsCRT@D@ATL@@@@@ATL@@QAEAAV01@PBD@Z
  00353	6a 7f		 push	 127			; 0000007fH
  00355	8d 8d 98 fe ff
	ff		 lea	 ecx, DWORD PTR _strData$[ebp]
  0035b	ff 15 00 00 00
	00		 call	 DWORD PTR __imp_??Y?$CStringT@DV?$StrTraitMFC_DLL@DV?$ChTraitsCRT@D@ATL@@@@@ATL@@QAEAAV01@D@Z
  00361	8d 85 68 fe ff
	ff		 lea	 eax, DWORD PTR _strNow$[ebp]
  00367	50		 push	 eax
  00368	8d 8d 98 fe ff
	ff		 lea	 ecx, DWORD PTR _strData$[ebp]
  0036e	ff 15 00 00 00
	00		 call	 DWORD PTR __imp_??Y?$CStringT@DV?$StrTraitMFC_DLL@DV?$ChTraitsCRT@D@ATL@@@@@ATL@@QAEAAV01@ABV?$CSimpleStringT@D$00@1@@Z
  00374	6a 09		 push	 9
  00376	8d 8d 98 fe ff
	ff		 lea	 ecx, DWORD PTR _strData$[ebp]
  0037c	ff 15 00 00 00
	00		 call	 DWORD PTR __imp_??Y?$CStringT@DV?$StrTraitMFC_DLL@DV?$ChTraitsCRT@D@ATL@@@@@ATL@@QAEAAV01@D@Z

; 95   : //KHD : NEXT		
; 96   : 		stNextKey = "22324";

  00382	68 00 00 00 00	 push	 OFFSET ??_C@_05KCDFIGFK@22324@
  00387	8d 8d 90 fe ff
	ff		 lea	 ecx, DWORD PTR _stNextKey$[ebp]
  0038d	ff 15 00 00 00
	00		 call	 DWORD PTR __imp_??4?$CStringT@DV?$StrTraitMFC_DLL@DV?$ChTraitsCRT@D@ATL@@@@@ATL@@QAEAAV01@PBD@Z

; 97   : 		stNextData.Format("%20.20s",m_InData.Snextkey);

  00393	53		 push	 ebx
  00394	68 00 00 00 00	 push	 OFFSET ??_C@_07BEGHJBJI@?$CF20?420s@
$LN118@Convert:

; 170  : 		strData += strTemp;
; 171  :  		strData += sCELL;
; 172  : 		break;
; 173  : 	}
; 174  : 
; 175  : 	//////////////////////////////////////////////////////////////////////////
; 176  : 	//   OutBound
; 177  : 						//  ,  ,  , , ,  , , ()
; 178  : 	char* pUpjongSymbol[] = { "21301", "21022", "21023", "21313", "21024", "21033", "21027", "21028",

  00399	8d 85 94 fe ff
	ff		 lea	 eax, DWORD PTR _stNextData$[ebp]
  0039f	50		 push	 eax
  003a0	ff d7		 call	 edi
  003a2	83 c4 0c	 add	 esp, 12			; 0000000cH
  003a5	8d 85 90 fe ff
	ff		 lea	 eax, DWORD PTR _stNextKey$[ebp]
  003ab	8d 8d 98 fe ff
	ff		 lea	 ecx, DWORD PTR _strData$[ebp]
  003b1	50		 push	 eax
  003b2	ff 15 00 00 00
	00		 call	 DWORD PTR __imp_??Y?$CStringT@DV?$StrTraitMFC_DLL@DV?$ChTraitsCRT@D@ATL@@@@@ATL@@QAEAAV01@ABV?$CSimpleStringT@D$00@1@@Z
  003b8	6a 7f		 push	 127			; 0000007fH
  003ba	8d 8d 98 fe ff
	ff		 lea	 ecx, DWORD PTR _strData$[ebp]
  003c0	ff 15 00 00 00
	00		 call	 DWORD PTR __imp_??Y?$CStringT@DV?$StrTraitMFC_DLL@DV?$ChTraitsCRT@D@ATL@@@@@ATL@@QAEAAV01@D@Z
  003c6	8d 85 94 fe ff
	ff		 lea	 eax, DWORD PTR _stNextData$[ebp]
  003cc	e9 69 02 00 00	 jmp	 $LN116@Convert
$LN24@Convert:

; 98   : 		strData += stNextKey; strData += sDS;	strData += stNextData;	strData += sCELL; //   : KHD 
; 99   : //END	
; 100  : 		break;
; 101  : 
; 102  : 	case 1:		// 
; 103  : 		Datah.dindex = GI_MINUTE;
; 104  : 		stRowData = _T("?24500");

  003d1	68 00 00 00 00	 push	 OFFSET ??_C@_06BNHDJGCK@?$DP24500@
  003d6	8d 8d 80 fe ff
	ff		 lea	 ecx, DWORD PTR _stRowData$[ebp]
  003dc	c6 85 b3 fe ff
	ff 04		 mov	 BYTE PTR _Datah$[ebp+23], 4
  003e3	ff 15 00 00 00
	00		 call	 DWORD PTR __imp_??4?$CStringT@DV?$StrTraitMFC_DLL@DV?$ChTraitsCRT@D@ATL@@@@@ATL@@QAEAAV01@PBD@Z

; 105  : 		
; 106  : 		stNextKey = "24324";

  003e9	68 00 00 00 00	 push	 OFFSET ??_C@_05CNHFHDPK@24324@
  003ee	8d 8d 90 fe ff
	ff		 lea	 ecx, DWORD PTR _stNextKey$[ebp]
  003f4	ff 15 00 00 00
	00		 call	 DWORD PTR __imp_??4?$CStringT@DV?$StrTraitMFC_DLL@DV?$ChTraitsCRT@D@ATL@@@@@ATL@@QAEAAV01@PBD@Z

; 107  : 		stNextData.Format("%14.14s",m_InData.Snextkey );

  003fa	53		 push	 ebx
  003fb	8d 85 94 fe ff
	ff		 lea	 eax, DWORD PTR _stNextData$[ebp]
  00401	68 00 00 00 00	 push	 OFFSET ??_C@_07KLKCMOCB@?$CF14?414s@
  00406	50		 push	 eax
  00407	ff d7		 call	 edi
  00409	83 c4 0c	 add	 esp, 12			; 0000000cH

; 108  : 		strData += stNextKey; strData += sDS;	strData += stNextData;	strData += sCELL; //   : KHD 

  0040c	8d 85 90 fe ff
	ff		 lea	 eax, DWORD PTR _stNextKey$[ebp]
  00412	8d 8d 98 fe ff
	ff		 lea	 ecx, DWORD PTR _strData$[ebp]
  00418	50		 push	 eax
  00419	ff 15 00 00 00
	00		 call	 DWORD PTR __imp_??Y?$CStringT@DV?$StrTraitMFC_DLL@DV?$ChTraitsCRT@D@ATL@@@@@ATL@@QAEAAV01@ABV?$CSimpleStringT@D$00@1@@Z
  0041f	6a 7f		 push	 127			; 0000007fH
  00421	8d 8d 98 fe ff
	ff		 lea	 ecx, DWORD PTR _strData$[ebp]
  00427	ff 15 00 00 00
	00		 call	 DWORD PTR __imp_??Y?$CStringT@DV?$StrTraitMFC_DLL@DV?$ChTraitsCRT@D@ATL@@@@@ATL@@QAEAAV01@D@Z
  0042d	8d 85 94 fe ff
	ff		 lea	 eax, DWORD PTR _stNextData$[ebp]
  00433	50		 push	 eax
  00434	8d 8d 98 fe ff
	ff		 lea	 ecx, DWORD PTR _strData$[ebp]
  0043a	ff 15 00 00 00
	00		 call	 DWORD PTR __imp_??Y?$CStringT@DV?$StrTraitMFC_DLL@DV?$ChTraitsCRT@D@ATL@@@@@ATL@@QAEAAV01@ABV?$CSimpleStringT@D$00@1@@Z
  00440	6a 09		 push	 9
  00442	8d 8d 98 fe ff
	ff		 lea	 ecx, DWORD PTR _strData$[ebp]
  00448	ff 15 00 00 00
	00		 call	 DWORD PTR __imp_??Y?$CStringT@DV?$StrTraitMFC_DLL@DV?$ChTraitsCRT@D@ATL@@@@@ATL@@QAEAAV01@D@Z

; 109  : 
; 110  : 		// /  (0:, 1:)
; 111  : 		strData += "24308";	strData += sDS;	strData += strImgRgb;	strData += sCELL;

  0044e	68 00 00 00 00	 push	 OFFSET ??_C@_05ICEEOIJI@24308@
  00453	8d 8d 98 fe ff
	ff		 lea	 ecx, DWORD PTR _strData$[ebp]
  00459	ff 15 00 00 00
	00		 call	 DWORD PTR __imp_??Y?$CStringT@DV?$StrTraitMFC_DLL@DV?$ChTraitsCRT@D@ATL@@@@@ATL@@QAEAAV01@PBD@Z
  0045f	6a 7f		 push	 127			; 0000007fH
  00461	8d 8d 98 fe ff
	ff		 lea	 ecx, DWORD PTR _strData$[ebp]
  00467	ff 15 00 00 00
	00		 call	 DWORD PTR __imp_??Y?$CStringT@DV?$StrTraitMFC_DLL@DV?$ChTraitsCRT@D@ATL@@@@@ATL@@QAEAAV01@D@Z
  0046d	8d 85 70 fe ff
	ff		 lea	 eax, DWORD PTR _strImgRgb$[ebp]
  00473	50		 push	 eax
  00474	8d 8d 98 fe ff
	ff		 lea	 ecx, DWORD PTR _strData$[ebp]
  0047a	ff 15 00 00 00
	00		 call	 DWORD PTR __imp_??Y?$CStringT@DV?$StrTraitMFC_DLL@DV?$ChTraitsCRT@D@ATL@@@@@ATL@@QAEAAV01@ABV?$CSimpleStringT@D$00@1@@Z
  00480	6a 09		 push	 9
  00482	8d 8d 98 fe ff
	ff		 lea	 ecx, DWORD PTR _strData$[ebp]
  00488	ff 15 00 00 00
	00		 call	 DWORD PTR __imp_??Y?$CStringT@DV?$StrTraitMFC_DLL@DV?$ChTraitsCRT@D@ATL@@@@@ATL@@QAEAAV01@D@Z

; 112  : 		//  
; 113  : 		strData += "24309"; //  Input 

  0048e	68 00 00 00 00	 push	 OFFSET ??_C@_05JLFPNJNJ@24309@
  00493	8d 8d 98 fe ff
	ff		 lea	 ecx, DWORD PTR _strData$[ebp]
  00499	ff 15 00 00 00
	00		 call	 DWORD PTR __imp_??Y?$CStringT@DV?$StrTraitMFC_DLL@DV?$ChTraitsCRT@D@ATL@@@@@ATL@@QAEAAV01@PBD@Z

; 114  : 		strData += sDS;

  0049f	6a 7f		 push	 127			; 0000007fH
  004a1	8d 8d 98 fe ff
	ff		 lea	 ecx, DWORD PTR _strData$[ebp]
  004a7	ff 15 00 00 00
	00		 call	 DWORD PTR __imp_??Y?$CStringT@DV?$StrTraitMFC_DLL@DV?$ChTraitsCRT@D@ATL@@@@@ATL@@QAEAAV01@D@Z

; 115  : 		strTemp = CString(m_InData.nowData, sizeof(m_InData.nowData));

  004ad	6a 01		 push	 1
  004af	ff b5 84 fe ff
	ff		 push	 DWORD PTR tv1054[ebp]
  004b5	8d 8d 84 fe ff
	ff		 lea	 ecx, DWORD PTR $T3[ebp]
  004bb	ff 15 00 00 00
	00		 call	 DWORD PTR __imp_??0?$CStringT@DV?$StrTraitMFC_DLL@DV?$ChTraitsCRT@D@ATL@@@@@ATL@@QAE@PBDH@Z
  004c1	c6 45 fc 0f	 mov	 BYTE PTR __$EHRec$[ebp+8], 15 ; 0000000fH

; 116  : 		strData += strTemp;
; 117  :  		strData += sCELL;
; 118  : 
; 119  : 		break;

  004c5	e9 4d 01 00 00	 jmp	 $LN117@Convert
$LN25@Convert:

; 120  : 
; 121  : 	case 2:		// 
; 122  : 		Datah.dindex = GI_DAY;

  004ca	c6 85 b3 fe ff
	ff 01		 mov	 BYTE PTR _Datah$[ebp+23], 1
$LN119@Convert:

; 170  : 		strData += strTemp;
; 171  :  		strData += sCELL;
; 172  : 		break;
; 173  : 	}
; 174  : 
; 175  : 	//////////////////////////////////////////////////////////////////////////
; 176  : 	//   OutBound
; 177  : 						//  ,  ,  , , ,  , , ()
; 178  : 	char* pUpjongSymbol[] = { "21301", "21022", "21023", "21313", "21024", "21033", "21027", "21028",

  004d1	68 00 00 00 00	 push	 OFFSET ??_C@_06CABDLPJK@?$DP25500@
  004d6	8d 8d 80 fe ff
	ff		 lea	 ecx, DWORD PTR _stRowData$[ebp]
  004dc	ff 15 00 00 00
	00		 call	 DWORD PTR __imp_??4?$CStringT@DV?$StrTraitMFC_DLL@DV?$ChTraitsCRT@D@ATL@@@@@ATL@@QAEAAV01@PBD@Z
  004e2	68 00 00 00 00	 push	 OFFSET ??_C@_05BABFFKEK@25324@
  004e7	8d 8d 90 fe ff
	ff		 lea	 ecx, DWORD PTR _stNextKey$[ebp]
  004ed	c7 85 7c fe ff
	ff 01 00 00 00	 mov	 DWORD PTR _nUnit$1$[ebp], 1
  004f7	ff 15 00 00 00
	00		 call	 DWORD PTR __imp_??4?$CStringT@DV?$StrTraitMFC_DLL@DV?$ChTraitsCRT@D@ATL@@@@@ATL@@QAEAAV01@PBD@Z
  004fd	53		 push	 ebx
  004fe	68 00 00 00 00	 push	 OFFSET ??_C@_05OGIKHPIO@?$CF8?48s@
  00503	e9 91 fe ff ff	 jmp	 $LN118@Convert
$LN26@Convert:

; 123  : 		stRowData = _T("?25500");
; 124  : 		nUnit = 1;
; 125  : 		stNextKey = "25324";
; 126  : 		stNextData.Format("%8.8s",m_InData.Snextkey );
; 127  : 		strData += stNextKey; strData += sDS;	strData += stNextData;	strData += sCELL; //   : KHD 
; 128  : 
; 129  : 		break;
; 130  : 	case 3:		// 
; 131  : 		Datah.dindex = GI_WEEK;

  00508	c6 85 b3 fe ff
	ff 02		 mov	 BYTE PTR _Datah$[ebp+23], 2

; 132  : 		stRowData = _T("?25500");
; 133  : 		nUnit = 1;
; 134  : 		stNextKey = "25324";
; 135  : 		stNextData.Format("%8.8s",m_InData.Snextkey );
; 136  : 		strData += stNextKey; strData += sDS;	strData += stNextData;	strData += sCELL; //   : KHD 
; 137  : 
; 138  : 		break;

  0050f	eb c0		 jmp	 SHORT $LN119@Convert
$LN27@Convert:

; 139  : 	case 4:		// 
; 140  : 		Datah.dindex = GI_MONTH;

  00511	c6 85 b3 fe ff
	ff 03		 mov	 BYTE PTR _Datah$[ebp+23], 3

; 141  : 		stRowData = _T("?25500");
; 142  : 		nUnit = 1;
; 143  : 		stNextKey = "25324";
; 144  : 		stNextData.Format("%8.8s",m_InData.Snextkey );
; 145  : 		strData += stNextKey; strData += sDS;	strData += stNextData;	strData += sCELL; //   : KHD 
; 146  : 
; 147  : 		break;

  00518	eb b7		 jmp	 SHORT $LN119@Convert
$LN28@Convert:

; 148  : 	case 5:		// 
; 149  : 		Datah.dindex = GI_YEAR;

  0051a	c6 85 b3 fe ff
	ff 07		 mov	 BYTE PTR _Datah$[ebp+23], 7

; 150  : 		stRowData = _T("?25500");
; 151  : 		nUnit = 1;
; 152  : 		stNextKey = "25324";
; 153  : 		stNextData.Format("%8.8s",m_InData.Snextkey );
; 154  : 		strData += stNextKey; strData += sDS;	strData += stNextData;	strData += sCELL; //   : KHD 
; 155  : 
; 156  : 		break;

  00521	eb ae		 jmp	 SHORT $LN119@Convert
$LN29@Convert:

; 157  : 	case 6:		// 
; 158  : 		Datah.dindex = GI_SEC;
; 159  : 		stRowData = _T("?26500");

  00523	68 00 00 00 00	 push	 OFFSET ??_C@_06GHLDMFEK@?$DP26500@
  00528	8d 8d 80 fe ff
	ff		 lea	 ecx, DWORD PTR _stRowData$[ebp]
  0052e	c6 85 b3 fe ff
	ff 06		 mov	 BYTE PTR _Datah$[ebp+23], 6
  00535	ff 15 00 00 00
	00		 call	 DWORD PTR __imp_??4?$CStringT@DV?$StrTraitMFC_DLL@DV?$ChTraitsCRT@D@ATL@@@@@ATL@@QAEAAV01@PBD@Z

; 160  : 		stNextKey = "26324";

  0053b	68 00 00 00 00	 push	 OFFSET ??_C@_05FHLFCAJK@26324@
  00540	8d 8d 90 fe ff
	ff		 lea	 ecx, DWORD PTR _stNextKey$[ebp]
  00546	ff 15 00 00 00
	00		 call	 DWORD PTR __imp_??4?$CStringT@DV?$StrTraitMFC_DLL@DV?$ChTraitsCRT@D@ATL@@@@@ATL@@QAEAAV01@PBD@Z

; 161  : 		stNextData.Format("%14.14s",m_InData.Snextkey );

  0054c	53		 push	 ebx
  0054d	8d 85 94 fe ff
	ff		 lea	 eax, DWORD PTR _stNextData$[ebp]
  00553	68 00 00 00 00	 push	 OFFSET ??_C@_07KLKCMOCB@?$CF14?414s@
  00558	50		 push	 eax
  00559	ff d7		 call	 edi
  0055b	83 c4 0c	 add	 esp, 12			; 0000000cH

; 162  : 		strData += stNextKey; strData += sDS;	strData += stNextData;	strData += sCELL; //   : KHD 

  0055e	8d 85 90 fe ff
	ff		 lea	 eax, DWORD PTR _stNextKey$[ebp]
  00564	8d 8d 98 fe ff
	ff		 lea	 ecx, DWORD PTR _strData$[ebp]
  0056a	50		 push	 eax
  0056b	ff 15 00 00 00
	00		 call	 DWORD PTR __imp_??Y?$CStringT@DV?$StrTraitMFC_DLL@DV?$ChTraitsCRT@D@ATL@@@@@ATL@@QAEAAV01@ABV?$CSimpleStringT@D$00@1@@Z
  00571	6a 7f		 push	 127			; 0000007fH
  00573	8d 8d 98 fe ff
	ff		 lea	 ecx, DWORD PTR _strData$[ebp]
  00579	ff 15 00 00 00
	00		 call	 DWORD PTR __imp_??Y?$CStringT@DV?$StrTraitMFC_DLL@DV?$ChTraitsCRT@D@ATL@@@@@ATL@@QAEAAV01@D@Z
  0057f	8d 85 94 fe ff
	ff		 lea	 eax, DWORD PTR _stNextData$[ebp]
  00585	50		 push	 eax
  00586	8d 8d 98 fe ff
	ff		 lea	 ecx, DWORD PTR _strData$[ebp]
  0058c	ff 15 00 00 00
	00		 call	 DWORD PTR __imp_??Y?$CStringT@DV?$StrTraitMFC_DLL@DV?$ChTraitsCRT@D@ATL@@@@@ATL@@QAEAAV01@ABV?$CSimpleStringT@D$00@1@@Z
  00592	6a 09		 push	 9
  00594	8d 8d 98 fe ff
	ff		 lea	 ecx, DWORD PTR _strData$[ebp]
  0059a	ff 15 00 00 00
	00		 call	 DWORD PTR __imp_??Y?$CStringT@DV?$StrTraitMFC_DLL@DV?$ChTraitsCRT@D@ATL@@@@@ATL@@QAEAAV01@D@Z

; 163  : 
; 164  : 		// /  (0:, 1:)
; 165  : 		strData += "26308";	strData += sDS;	strData += strImgRgb;	strData += sCELL;

  005a0	68 00 00 00 00	 push	 OFFSET ??_C@_05PIIELLPI@26308@
  005a5	8d 8d 98 fe ff
	ff		 lea	 ecx, DWORD PTR _strData$[ebp]
  005ab	ff 15 00 00 00
	00		 call	 DWORD PTR __imp_??Y?$CStringT@DV?$StrTraitMFC_DLL@DV?$ChTraitsCRT@D@ATL@@@@@ATL@@QAEAAV01@PBD@Z
  005b1	6a 7f		 push	 127			; 0000007fH
  005b3	8d 8d 98 fe ff
	ff		 lea	 ecx, DWORD PTR _strData$[ebp]
  005b9	ff 15 00 00 00
	00		 call	 DWORD PTR __imp_??Y?$CStringT@DV?$StrTraitMFC_DLL@DV?$ChTraitsCRT@D@ATL@@@@@ATL@@QAEAAV01@D@Z
  005bf	8d 85 70 fe ff
	ff		 lea	 eax, DWORD PTR _strImgRgb$[ebp]
  005c5	50		 push	 eax
  005c6	8d 8d 98 fe ff
	ff		 lea	 ecx, DWORD PTR _strData$[ebp]
  005cc	ff 15 00 00 00
	00		 call	 DWORD PTR __imp_??Y?$CStringT@DV?$StrTraitMFC_DLL@DV?$ChTraitsCRT@D@ATL@@@@@ATL@@QAEAAV01@ABV?$CSimpleStringT@D$00@1@@Z
  005d2	6a 09		 push	 9
  005d4	8d 8d 98 fe ff
	ff		 lea	 ecx, DWORD PTR _strData$[ebp]
  005da	ff 15 00 00 00
	00		 call	 DWORD PTR __imp_??Y?$CStringT@DV?$StrTraitMFC_DLL@DV?$ChTraitsCRT@D@ATL@@@@@ATL@@QAEAAV01@D@Z

; 166  : 		//  
; 167  : 		strData += "26309"; //  Input 

  005e0	68 00 00 00 00	 push	 OFFSET ??_C@_05OBJPIKLJ@26309@
  005e5	8d 8d 98 fe ff
	ff		 lea	 ecx, DWORD PTR _strData$[ebp]
  005eb	ff 15 00 00 00
	00		 call	 DWORD PTR __imp_??Y?$CStringT@DV?$StrTraitMFC_DLL@DV?$ChTraitsCRT@D@ATL@@@@@ATL@@QAEAAV01@PBD@Z

; 168  : 		strData += sDS;

  005f1	6a 7f		 push	 127			; 0000007fH
  005f3	8d 8d 98 fe ff
	ff		 lea	 ecx, DWORD PTR _strData$[ebp]
  005f9	ff 15 00 00 00
	00		 call	 DWORD PTR __imp_??Y?$CStringT@DV?$StrTraitMFC_DLL@DV?$ChTraitsCRT@D@ATL@@@@@ATL@@QAEAAV01@D@Z

; 169  : 		strTemp = CString(m_InData.nowData, sizeof(m_InData.nowData));

  005ff	6a 01		 push	 1
  00601	ff b5 84 fe ff
	ff		 push	 DWORD PTR tv1054[ebp]
  00607	8d 8d 84 fe ff
	ff		 lea	 ecx, DWORD PTR $T2[ebp]
  0060d	ff 15 00 00 00
	00		 call	 DWORD PTR __imp_??0?$CStringT@DV?$StrTraitMFC_DLL@DV?$ChTraitsCRT@D@ATL@@@@@ATL@@QAE@PBDH@Z
  00613	c6 45 fc 10	 mov	 BYTE PTR __$EHRec$[ebp+8], 16 ; 00000010H
$LN117@Convert:

; 170  : 		strData += strTemp;
; 171  :  		strData += sCELL;
; 172  : 		break;
; 173  : 	}
; 174  : 
; 175  : 	//////////////////////////////////////////////////////////////////////////
; 176  : 	//   OutBound
; 177  : 						//  ,  ,  , , ,  , , ()
; 178  : 	char* pUpjongSymbol[] = { "21301", "21022", "21023", "21313", "21024", "21033", "21027", "21028",

  00617	50		 push	 eax
  00618	8d 8d 88 fe ff
	ff		 lea	 ecx, DWORD PTR _strTemp$[ebp]
  0061e	ff 15 00 00 00
	00		 call	 DWORD PTR __imp_??4?$CStringT@DV?$StrTraitMFC_DLL@DV?$ChTraitsCRT@D@ATL@@@@@ATL@@QAEAAV01@ABV01@@Z
  00624	8d 8d 84 fe ff
	ff		 lea	 ecx, DWORD PTR $T2[ebp]
  0062a	c6 45 fc 0e	 mov	 BYTE PTR __$EHRec$[ebp+8], 14 ; 0000000eH
  0062e	ff 15 00 00 00
	00		 call	 DWORD PTR __imp_??1?$CStringT@DV?$StrTraitMFC_DLL@DV?$ChTraitsCRT@D@ATL@@@@@ATL@@QAE@XZ
  00634	8d 85 88 fe ff
	ff		 lea	 eax, DWORD PTR _strTemp$[ebp]
$LN116@Convert:
  0063a	50		 push	 eax
  0063b	8d 8d 98 fe ff
	ff		 lea	 ecx, DWORD PTR _strData$[ebp]
  00641	ff 15 00 00 00
	00		 call	 DWORD PTR __imp_??Y?$CStringT@DV?$StrTraitMFC_DLL@DV?$ChTraitsCRT@D@ATL@@@@@ATL@@QAEAAV01@ABV?$CSimpleStringT@D$00@1@@Z
  00647	6a 09		 push	 9
  00649	8d 8d 98 fe ff
	ff		 lea	 ecx, DWORD PTR _strData$[ebp]
  0064f	ff 15 00 00 00
	00		 call	 DWORD PTR __imp_??Y?$CStringT@DV?$StrTraitMFC_DLL@DV?$ChTraitsCRT@D@ATL@@@@@ATL@@QAEAAV01@D@Z
$LN2@Convert:
  00655	c7 85 24 ff ff
	ff 00 00 00 00	 mov	 DWORD PTR _pUpjongSymbol$[ebp], OFFSET ??_C@_05JLGGNMKB@21301@
  0065f	33 f6		 xor	 esi, esi
  00661	c7 85 28 ff ff
	ff 00 00 00 00	 mov	 DWORD PTR _pUpjongSymbol$[ebp+4], OFFSET ??_C@_05KBHKPEOC@21022@
  0066b	c7 85 2c ff ff
	ff 00 00 00 00	 mov	 DWORD PTR _pUpjongSymbol$[ebp+8], OFFSET ??_C@_05LIGBMFKD@21023@
  00675	c7 85 30 ff ff
	ff 00 00 00 00	 mov	 DWORD PTR _pUpjongSymbol$[ebp+12], OFFSET ??_C@_05KIJCNEBE@21313@
  0067f	c7 85 34 ff ff
	ff 00 00 00 00	 mov	 DWORD PTR _pUpjongSymbol$[ebp+16], OFFSET ??_C@_05PHCAFDGE@21024@
  00689	c7 85 38 ff ff
	ff 00 00 00 00	 mov	 DWORD PTR _pUpjongSymbol$[ebp+20], OFFSET ??_C@_05LJKDKPJE@21033@
  00693	c7 85 3c ff ff
	ff 00 00 00 00	 mov	 DWORD PTR _pUpjongSymbol$[ebp+24], OFFSET ??_C@_05NMANAAKH@21027@
  0069d	c7 85 40 ff ff
	ff 00 00 00 00	 mov	 DWORD PTR _pUpjongSymbol$[ebp+28], OFFSET ??_C@_05FLJFBMGI@21028@

; 179  : 						//  , , ,  , , ,
; 180  : 							"21029", "21030", "21031", "21320", "21321", "21322", "21307" ,"21900", "21901" };

  006a7	c7 85 44 ff ff
	ff 00 00 00 00	 mov	 DWORD PTR _pUpjongSymbol$[ebp+32], OFFSET ??_C@_05ECIOCNCJ@21029@
  006b1	c7 85 48 ff ff
	ff 00 00 00 00	 mov	 DWORD PTR _pUpjongSymbol$[ebp+36], OFFSET ??_C@_05JCIOPMFH@21030@
  006bb	c7 85 4c ff ff
	ff 00 00 00 00	 mov	 DWORD PTR _pUpjongSymbol$[ebp+40], OFFSET ??_C@_05ILJFMNBG@21031@
  006c5	c7 85 50 ff ff
	ff 00 00 00 00	 mov	 DWORD PTR _pUpjongSymbol$[ebp+44], OFFSET ??_C@_05IBPJDJIO@21320@
  006cf	c7 85 54 ff ff
	ff 00 00 00 00	 mov	 DWORD PTR _pUpjongSymbol$[ebp+48], OFFSET ??_C@_05JIOCAIMP@21321@
  006d9	c7 85 58 ff ff
	ff 00 00 00 00	 mov	 DWORD PTR _pUpjongSymbol$[ebp+52], OFFSET ??_C@_05LDMPFLAM@21322@
  006e3	c7 85 5c ff ff
	ff 00 00 00 00	 mov	 DWORD PTR _pUpjongSymbol$[ebp+56], OFFSET ??_C@_05MNDMHLCH@21307@
  006ed	c7 85 60 ff ff
	ff 00 00 00 00	 mov	 DWORD PTR _pUpjongSymbol$[ebp+60], OFFSET ??_C@_05ONMAANIE@21900@
  006f7	c7 85 64 ff ff
	ff 00 00 00 00	 mov	 DWORD PTR _pUpjongSymbol$[ebp+64], OFFSET ??_C@_05PENLDMMF@21901@
$LL6@Convert:

; 181  : 
; 182  : 	for(i = 0; i < sizeof(pUpjongSymbol)/sizeof(char*); i++)
; 183  : 	{
; 184  : 		strData += pUpjongSymbol[i];

  00701	ff b4 b5 24 ff
	ff ff		 push	 DWORD PTR _pUpjongSymbol$[ebp+esi*4]
  00708	8d 8d 98 fe ff
	ff		 lea	 ecx, DWORD PTR _strData$[ebp]
  0070e	ff 15 00 00 00
	00		 call	 DWORD PTR __imp_??Y?$CStringT@DV?$StrTraitMFC_DLL@DV?$ChTraitsCRT@D@ATL@@@@@ATL@@QAEAAV01@PBD@Z

; 185  : 		strData += sCELL;//KHDsFS;

  00714	6a 09		 push	 9
  00716	8d 8d 98 fe ff
	ff		 lea	 ecx, DWORD PTR _strData$[ebp]
  0071c	ff 15 00 00 00
	00		 call	 DWORD PTR __imp_??Y?$CStringT@DV?$StrTraitMFC_DLL@DV?$ChTraitsCRT@D@ATL@@@@@ATL@@QAEAAV01@D@Z
  00722	46		 inc	 esi
  00723	83 fe 11	 cmp	 esi, 17			; 00000011H
  00726	72 d9		 jb	 SHORT $LL6@Convert

; 186  : 	}
; 187  : 	strData += stNextKey;

  00728	8d 85 90 fe ff
	ff		 lea	 eax, DWORD PTR _stNextKey$[ebp]
  0072e	50		 push	 eax
  0072f	8d 8d 98 fe ff
	ff		 lea	 ecx, DWORD PTR _strData$[ebp]
  00735	ff 15 00 00 00
	00		 call	 DWORD PTR __imp_??Y?$CStringT@DV?$StrTraitMFC_DLL@DV?$ChTraitsCRT@D@ATL@@@@@ATL@@QAEAAV01@ABV?$CSimpleStringT@D$00@1@@Z

; 188  : 	strData += sCELL;

  0073b	6a 09		 push	 9
  0073d	8d 8d 98 fe ff
	ff		 lea	 ecx, DWORD PTR _strData$[ebp]
  00743	ff 15 00 00 00
	00		 call	 DWORD PTR __imp_??Y?$CStringT@DV?$StrTraitMFC_DLL@DV?$ChTraitsCRT@D@ATL@@@@@ATL@@QAEAAV01@D@Z

; 189  : 	//////////////////////////////////////////////////////////////////////////
; 190  : 	//  (, ) OutBound
; 191  : 	//////////////////////////////////////////////////////////////////////////
; 192  : 
; 193  : 	//  
; 194  : 	//////////////////////////////////////////////////////////////////////////
; 195  : 	// Row Data 
; 196  : 
; 197  : 	strData += stRowData;

  00749	8d 85 80 fe ff
	ff		 lea	 eax, DWORD PTR _stRowData$[ebp]
  0074f	50		 push	 eax
  00750	8d 8d 98 fe ff
	ff		 lea	 ecx, DWORD PTR _strData$[ebp]
  00756	ff 15 00 00 00
	00		 call	 DWORD PTR __imp_??Y?$CStringT@DV?$StrTraitMFC_DLL@DV?$ChTraitsCRT@D@ATL@@@@@ATL@@QAEAAV01@ABV?$CSimpleStringT@D$00@1@@Z

; 198  : 	strData += sDS;

  0075c	6a 7f		 push	 127			; 0000007fH
  0075e	8d 8d 98 fe ff
	ff		 lea	 ecx, DWORD PTR _strData$[ebp]
  00764	ff 15 00 00 00
	00		 call	 DWORD PTR __imp_??Y?$CStringT@DV?$StrTraitMFC_DLL@DV?$ChTraitsCRT@D@ATL@@@@@ATL@@QAEAAV01@D@Z

; 199  : 	
; 200  : 	CString temp;

  0076a	8d 8d 78 fe ff
	ff		 lea	 ecx, DWORD PTR _temp$[ebp]
  00770	ff 15 00 00 00
	00		 call	 DWORD PTR __imp_??0?$CStringT@DV?$StrTraitMFC_DLL@DV?$ChTraitsCRT@D@ATL@@@@@ATL@@QAE@XZ

; 201  : 	//  
; 202  : 	int GrpHLen = 0;
; 203  : 	temp.Format("%06d", nCount);

  00776	ff b5 64 fe ff
	ff		 push	 DWORD PTR _nCount$1$[ebp]
  0077c	8d 85 78 fe ff
	ff		 lea	 eax, DWORD PTR _temp$[ebp]
  00782	c6 45 fc 11	 mov	 BYTE PTR __$EHRec$[ebp+8], 17 ; 00000011H
  00786	68 00 00 00 00	 push	 OFFSET ??_C@_04OBKAGHLG@?$CF06d@
  0078b	50		 push	 eax
  0078c	ff d7		 call	 edi

; 204  : 	CopyMemory(Datah.count, temp, temp.GetLength());

  0078e	8b 85 78 fe ff
	ff		 mov	 eax, DWORD PTR _temp$[ebp]
  00794	ff 70 f4	 push	 DWORD PTR [eax-12]
  00797	50		 push	 eax
  00798	8d 85 9c fe ff
	ff		 lea	 eax, DWORD PTR _Datah$[ebp]
  0079e	50		 push	 eax
  0079f	e8 00 00 00 00	 call	 _memcpy

; 205  : 	Datah.dkey = 0 + 0x30;
; 206  : 	
; 207  : 	CopyMemory(Datah.pday, strDate, strDate.GetLength());

  007a4	8b 85 6c fe ff
	ff		 mov	 eax, DWORD PTR _strDate$[ebp]
  007aa	c6 85 a9 fe ff
	ff 30		 mov	 BYTE PTR _Datah$[ebp+13], 48 ; 00000030H
  007b1	ff 70 f4	 push	 DWORD PTR [eax-12]
  007b4	50		 push	 eax
  007b5	8d 85 aa fe ff
	ff		 lea	 eax, DWORD PTR _Datah$[ebp+14]
  007bb	50		 push	 eax
  007bc	e8 00 00 00 00	 call	 _memcpy

; 208  : 	
; 209  : 	temp.Format("%0*d", sizeof(Datah.lgap), nUnit);// N 

  007c1	ff b5 7c fe ff
	ff		 push	 DWORD PTR _nUnit$1$[ebp]
  007c7	8d 85 78 fe ff
	ff		 lea	 eax, DWORD PTR _temp$[ebp]
  007cd	6a 04		 push	 4
  007cf	68 00 00 00 00	 push	 OFFSET ??_C@_04PEJMDNKC@?$CF0?$CKd@
  007d4	50		 push	 eax
  007d5	ff d7		 call	 edi

; 210  : 	CopyMemory(Datah.lgap, temp, temp.GetLength() );

  007d7	8b 85 78 fe ff
	ff		 mov	 eax, DWORD PTR _temp$[ebp]
  007dd	ff 70 f4	 push	 DWORD PTR [eax-12]
  007e0	50		 push	 eax
  007e1	8d 85 b4 fe ff
	ff		 lea	 eax, DWORD PTR _Datah$[ebp+24]
  007e7	50		 push	 eax
  007e8	e8 00 00 00 00	 call	 _memcpy
  007ed	83 c4 40	 add	 esp, 64			; 00000040H

; 211  : 	
; 212  : 	char szData_i[sz_DATAH];
; 213  : 	memset(szData_i, 0x00, sizeof(Datah));
; 214  : 	memcpy(szData_i, (char*)&Datah, sizeof(Datah));

  007f0	8d b5 9c fe ff
	ff		 lea	 esi, DWORD PTR _Datah$[ebp]
  007f6	b9 22 00 00 00	 mov	 ecx, 34			; 00000022H
  007fb	8d bd 68 ff ff
	ff		 lea	 edi, DWORD PTR _szData_i$[ebp]
  00801	f3 a5		 rep movsd

; 215  : 	szData_i[sz_DATAH-1] = 0x00; // KHD :  0x00  .
; 216  : 	strData += szData_i;

  00803	8d 85 68 ff ff
	ff		 lea	 eax, DWORD PTR _szData_i$[ebp]
  00809	c6 45 ef 00	 mov	 BYTE PTR _szData_i$[ebp+135], 0
  0080d	50		 push	 eax
  0080e	8d 8d 98 fe ff
	ff		 lea	 ecx, DWORD PTR _strData$[ebp]
  00814	ff 15 00 00 00
	00		 call	 DWORD PTR __imp_??Y?$CStringT@DV?$StrTraitMFC_DLL@DV?$ChTraitsCRT@D@ATL@@@@@ATL@@QAEAAV01@PBD@Z

; 217  : 
; 218  : 	int nSize;
; 219  : 
; 220  : 	switch(nType)

  0081a	8b 85 8c fe ff
	ff		 mov	 eax, DWORD PTR _nType$1$[ebp]
  00820	83 f8 06	 cmp	 eax, 6
  00823	0f 87 ce 00 00
	00		 ja	 $LN19@Convert
  00829	ff 24 85 00 00
	00 00		 jmp	 DWORD PTR $LN114@Convert[eax*4]
$LN30@Convert:

; 221  : 	{
; 222  : 	case 0:		// 
; 223  : 		nSize = sizeof(szTickRowFieldUJ)/sizeof(char*);

  00830	be 00 00 00 00	 mov	 esi, OFFSET ?szTickRowFieldUJ@@3PAPADA ; szTickRowFieldUJ
  00835	66 66 66 0f 1f
	84 00 00 00 00
	00		 npad	 11
$LL11@Convert:

; 224  : 		for(i = 0; i < nSize; i++)
; 225  : 		{
; 226  : 			strData += szTickRowFieldUJ[i];

  00840	ff 36		 push	 DWORD PTR [esi]
  00842	8d 8d 98 fe ff
	ff		 lea	 ecx, DWORD PTR _strData$[ebp]
  00848	ff 15 00 00 00
	00		 call	 DWORD PTR __imp_??Y?$CStringT@DV?$StrTraitMFC_DLL@DV?$ChTraitsCRT@D@ATL@@@@@ATL@@QAEAAV01@PBD@Z

; 227  : 			strData += sCOL;

  0084e	6a 0a		 push	 10			; 0000000aH
  00850	8d 8d 98 fe ff
	ff		 lea	 ecx, DWORD PTR _strData$[ebp]
  00856	ff 15 00 00 00
	00		 call	 DWORD PTR __imp_??Y?$CStringT@DV?$StrTraitMFC_DLL@DV?$ChTraitsCRT@D@ATL@@@@@ATL@@QAEAAV01@D@Z
  0085c	83 c6 04	 add	 esi, 4
  0085f	81 fe 20 00 00
	00		 cmp	 esi, OFFSET ?szTickRowFieldUJ@@3PAPADA+32
  00865	7c d9		 jl	 SHORT $LL11@Convert

; 228  : 		}
; 229  : 		break;

  00867	e9 8b 00 00 00	 jmp	 $LN19@Convert
$LN31@Convert:

; 230  : 
; 231  : 	case 1:		// 
; 232  : 		nSize = sizeof(szMinRowFieldUJ)/sizeof(char*);

  0086c	be 00 00 00 00	 mov	 esi, OFFSET ?szMinRowFieldUJ@@3PAPADA ; szMinRowFieldUJ
$LL14@Convert:

; 233  : 		for(i = 0; i < nSize; i++)
; 234  : 		{
; 235  : 			strData += szMinRowFieldUJ[i];

  00871	ff 36		 push	 DWORD PTR [esi]
  00873	8d 8d 98 fe ff
	ff		 lea	 ecx, DWORD PTR _strData$[ebp]
  00879	ff 15 00 00 00
	00		 call	 DWORD PTR __imp_??Y?$CStringT@DV?$StrTraitMFC_DLL@DV?$ChTraitsCRT@D@ATL@@@@@ATL@@QAEAAV01@PBD@Z

; 236  : 			strData += sCOL;

  0087f	6a 0a		 push	 10			; 0000000aH
  00881	8d 8d 98 fe ff
	ff		 lea	 ecx, DWORD PTR _strData$[ebp]
  00887	ff 15 00 00 00
	00		 call	 DWORD PTR __imp_??Y?$CStringT@DV?$StrTraitMFC_DLL@DV?$ChTraitsCRT@D@ATL@@@@@ATL@@QAEAAV01@D@Z
  0088d	83 c6 04	 add	 esi, 4
  00890	81 fe 20 00 00
	00		 cmp	 esi, OFFSET ?szMinRowFieldUJ@@3PAPADA+32
  00896	7c d9		 jl	 SHORT $LL14@Convert

; 237  : 		}
; 238  : 		break;

  00898	eb 5d		 jmp	 SHORT $LN19@Convert
$LN32@Convert:

; 239  : 
; 240  : 	case 2:		// 
; 241  : 	case 3:		// 
; 242  : 	case 4:		// 
; 243  : 	case 5:		// 
; 244  : 		nSize = sizeof(szDayRowFieldUJ)/sizeof(char*);

  0089a	be 00 00 00 00	 mov	 esi, OFFSET ?szDayRowFieldUJ@@3PAPADA ; szDayRowFieldUJ
  0089f	90		 npad	 1
$LL17@Convert:

; 245  : 		for(i = 0; i < nSize; i++)
; 246  : 		{
; 247  : 			strData += szDayRowFieldUJ[i];

  008a0	ff 36		 push	 DWORD PTR [esi]
  008a2	8d 8d 98 fe ff
	ff		 lea	 ecx, DWORD PTR _strData$[ebp]
  008a8	ff 15 00 00 00
	00		 call	 DWORD PTR __imp_??Y?$CStringT@DV?$StrTraitMFC_DLL@DV?$ChTraitsCRT@D@ATL@@@@@ATL@@QAEAAV01@PBD@Z

; 248  : 			strData += sCOL;

  008ae	6a 0a		 push	 10			; 0000000aH
  008b0	8d 8d 98 fe ff
	ff		 lea	 ecx, DWORD PTR _strData$[ebp]
  008b6	ff 15 00 00 00
	00		 call	 DWORD PTR __imp_??Y?$CStringT@DV?$StrTraitMFC_DLL@DV?$ChTraitsCRT@D@ATL@@@@@ATL@@QAEAAV01@D@Z
  008bc	83 c6 04	 add	 esi, 4
  008bf	81 fe 1c 00 00
	00		 cmp	 esi, OFFSET ?szDayRowFieldUJ@@3PAPADA+28
  008c5	7c d9		 jl	 SHORT $LL17@Convert

; 249  : 		}
; 250  : 		break;

  008c7	eb 2e		 jmp	 SHORT $LN19@Convert
$LN36@Convert:

; 251  : 	case 6:		// 
; 252  : 		nSize = sizeof(szSecRowFieldUJ)/sizeof(char*);

  008c9	be 00 00 00 00	 mov	 esi, OFFSET ?szSecRowFieldUJ@@3PAPADA ; szSecRowFieldUJ
  008ce	66 90		 npad	 2
$LL20@Convert:

; 253  : 		for(i = 0; i < nSize; i++)
; 254  : 		{
; 255  : 			strData += szSecRowFieldUJ[i];

  008d0	ff 36		 push	 DWORD PTR [esi]
  008d2	8d 8d 98 fe ff
	ff		 lea	 ecx, DWORD PTR _strData$[ebp]
  008d8	ff 15 00 00 00
	00		 call	 DWORD PTR __imp_??Y?$CStringT@DV?$StrTraitMFC_DLL@DV?$ChTraitsCRT@D@ATL@@@@@ATL@@QAEAAV01@PBD@Z

; 256  : 			strData += sCOL;

  008de	6a 0a		 push	 10			; 0000000aH
  008e0	8d 8d 98 fe ff
	ff		 lea	 ecx, DWORD PTR _strData$[ebp]
  008e6	ff 15 00 00 00
	00		 call	 DWORD PTR __imp_??Y?$CStringT@DV?$StrTraitMFC_DLL@DV?$ChTraitsCRT@D@ATL@@@@@ATL@@QAEAAV01@D@Z
  008ec	83 c6 04	 add	 esi, 4
  008ef	81 fe 20 00 00
	00		 cmp	 esi, OFFSET ?szSecRowFieldUJ@@3PAPADA+32
  008f5	7c d9		 jl	 SHORT $LL20@Convert
$LN19@Convert:

; 257  : 		}
; 258  : 		break;
; 259  : 	}
; 260  : 	
; 261  : 	strData += sCELL;//sFS;

  008f7	6a 09		 push	 9
  008f9	8d 8d 98 fe ff
	ff		 lea	 ecx, DWORD PTR _strData$[ebp]
  008ff	ff 15 00 00 00
	00		 call	 DWORD PTR __imp_??Y?$CStringT@DV?$StrTraitMFC_DLL@DV?$ChTraitsCRT@D@ATL@@@@@ATL@@QAEAAV01@D@Z

; 262  : 
; 263  : 	return strData;

  00905	8b 8d 60 fe ff
	ff		 mov	 ecx, DWORD PTR ___$ReturnUdt$GSCopy$1$[ebp]
  0090b	8d 85 98 fe ff
	ff		 lea	 eax, DWORD PTR _strData$[ebp]
  00911	50		 push	 eax
  00912	ff 15 00 00 00
	00		 call	 DWORD PTR __imp_??0?$CStringT@DV?$StrTraitMFC_DLL@DV?$ChTraitsCRT@D@ATL@@@@@ATL@@QAE@ABV01@@Z
  00918	8d 8d 78 fe ff
	ff		 lea	 ecx, DWORD PTR _temp$[ebp]
  0091e	ff 15 00 00 00
	00		 call	 DWORD PTR __imp_??1?$CStringT@DV?$StrTraitMFC_DLL@DV?$ChTraitsCRT@D@ATL@@@@@ATL@@QAE@XZ
  00924	8d 8d 80 fe ff
	ff		 lea	 ecx, DWORD PTR _stRowData$[ebp]
  0092a	ff 15 00 00 00
	00		 call	 DWORD PTR __imp_??1?$CStringT@DV?$StrTraitMFC_DLL@DV?$ChTraitsCRT@D@ATL@@@@@ATL@@QAE@XZ
  00930	8d 8d 90 fe ff
	ff		 lea	 ecx, DWORD PTR _stNextKey$[ebp]
  00936	ff 15 00 00 00
	00		 call	 DWORD PTR __imp_??1?$CStringT@DV?$StrTraitMFC_DLL@DV?$ChTraitsCRT@D@ATL@@@@@ATL@@QAE@XZ
  0093c	8d 8d 94 fe ff
	ff		 lea	 ecx, DWORD PTR _stNextData$[ebp]
  00942	ff 15 00 00 00
	00		 call	 DWORD PTR __imp_??1?$CStringT@DV?$StrTraitMFC_DLL@DV?$ChTraitsCRT@D@ATL@@@@@ATL@@QAE@XZ
  00948	8d 8d 68 fe ff
	ff		 lea	 ecx, DWORD PTR _strNow$[ebp]
  0094e	ff 15 00 00 00
	00		 call	 DWORD PTR __imp_??1?$CStringT@DV?$StrTraitMFC_DLL@DV?$ChTraitsCRT@D@ATL@@@@@ATL@@QAE@XZ
  00954	8d 8d 6c fe ff
	ff		 lea	 ecx, DWORD PTR _strDate$[ebp]
  0095a	ff 15 00 00 00
	00		 call	 DWORD PTR __imp_??1?$CStringT@DV?$StrTraitMFC_DLL@DV?$ChTraitsCRT@D@ATL@@@@@ATL@@QAE@XZ
  00960	8d 8d 70 fe ff
	ff		 lea	 ecx, DWORD PTR _strImgRgb$[ebp]
  00966	ff 15 00 00 00
	00		 call	 DWORD PTR __imp_??1?$CStringT@DV?$StrTraitMFC_DLL@DV?$ChTraitsCRT@D@ATL@@@@@ATL@@QAE@XZ
  0096c	8d 8d 88 fe ff
	ff		 lea	 ecx, DWORD PTR _strTemp$[ebp]
  00972	ff 15 00 00 00
	00		 call	 DWORD PTR __imp_??1?$CStringT@DV?$StrTraitMFC_DLL@DV?$ChTraitsCRT@D@ATL@@@@@ATL@@QAE@XZ
  00978	8d 8d 74 fe ff
	ff		 lea	 ecx, DWORD PTR _strCode$[ebp]
  0097e	ff 15 00 00 00
	00		 call	 DWORD PTR __imp_??1?$CStringT@DV?$StrTraitMFC_DLL@DV?$ChTraitsCRT@D@ATL@@@@@ATL@@QAE@XZ
  00984	8d 8d 98 fe ff
	ff		 lea	 ecx, DWORD PTR _strData$[ebp]
  0098a	ff 15 00 00 00
	00		 call	 DWORD PTR __imp_??1?$CStringT@DV?$StrTraitMFC_DLL@DV?$ChTraitsCRT@D@ATL@@@@@ATL@@QAE@XZ
  00990	8b 85 60 fe ff
	ff		 mov	 eax, DWORD PTR ___$ReturnUdt$GSCopy$1$[ebp]
$LN1@Convert:

; 264  : }

  00996	8b 4d f4	 mov	 ecx, DWORD PTR __$EHRec$[ebp]
  00999	64 89 0d 00 00
	00 00		 mov	 DWORD PTR fs:0, ecx
  009a0	59		 pop	 ecx
  009a1	5f		 pop	 edi
  009a2	5e		 pop	 esi
  009a3	5b		 pop	 ebx
  009a4	8b 4d f0	 mov	 ecx, DWORD PTR __$ArrayPad$[ebp]
  009a7	33 cd		 xor	 ecx, ebp
  009a9	e8 00 00 00 00	 call	 @__security_check_cookie@4
  009ae	8b e5		 mov	 esp, ebp
  009b0	5d		 pop	 ebp
  009b1	c2 04 00	 ret	 4
$LN113@Convert:
  009b4	00 00 00 00	 DD	 $LN23@Convert
  009b8	00 00 00 00	 DD	 $LN24@Convert
  009bc	00 00 00 00	 DD	 $LN25@Convert
  009c0	00 00 00 00	 DD	 $LN26@Convert
  009c4	00 00 00 00	 DD	 $LN27@Convert
  009c8	00 00 00 00	 DD	 $LN28@Convert
  009cc	00 00 00 00	 DD	 $LN29@Convert
$LN114@Convert:
  009d0	00 00 00 00	 DD	 $LN30@Convert
  009d4	00 00 00 00	 DD	 $LN31@Convert
  009d8	00 00 00 00	 DD	 $LN32@Convert
  009dc	00 00 00 00	 DD	 $LN32@Convert
  009e0	00 00 00 00	 DD	 $LN32@Convert
  009e4	00 00 00 00	 DD	 $LN32@Convert
  009e8	00 00 00 00	 DD	 $LN36@Convert
_TEXT	ENDS
;	COMDAT text$x
text$x	SEGMENT
__unwindfunclet$?Convert@CChartItemUpjong@@QAE?AV?$CStringT@DV?$StrTraitMFC_DLL@DV?$ChTraitsCRT@D@ATL@@@@@ATL@@XZ$1:
  00000	8d 8d 98 fe ff
	ff		 lea	 ecx, DWORD PTR _strData$[ebp]
  00006	ff 25 00 00 00
	00		 jmp	 DWORD PTR __imp_??1?$CStringT@DV?$StrTraitMFC_DLL@DV?$ChTraitsCRT@D@ATL@@@@@ATL@@QAE@XZ
__unwindfunclet$?Convert@CChartItemUpjong@@QAE?AV?$CStringT@DV?$StrTraitMFC_DLL@DV?$ChTraitsCRT@D@ATL@@@@@ATL@@XZ$2:
  0000c	8d 8d 74 fe ff
	ff		 lea	 ecx, DWORD PTR _strCode$[ebp]
  00012	ff 25 00 00 00
	00		 jmp	 DWORD PTR __imp_??1?$CStringT@DV?$StrTraitMFC_DLL@DV?$ChTraitsCRT@D@ATL@@@@@ATL@@QAE@XZ
__unwindfunclet$?Convert@CChartItemUpjong@@QAE?AV?$CStringT@DV?$StrTraitMFC_DLL@DV?$ChTraitsCRT@D@ATL@@@@@ATL@@XZ$3:
  00018	8d 8d 88 fe ff
	ff		 lea	 ecx, DWORD PTR _strTemp$[ebp]
  0001e	ff 25 00 00 00
	00		 jmp	 DWORD PTR __imp_??1?$CStringT@DV?$StrTraitMFC_DLL@DV?$ChTraitsCRT@D@ATL@@@@@ATL@@QAE@XZ
__unwindfunclet$?Convert@CChartItemUpjong@@QAE?AV?$CStringT@DV?$StrTraitMFC_DLL@DV?$ChTraitsCRT@D@ATL@@@@@ATL@@XZ$4:
  00024	8d 8d 70 fe ff
	ff		 lea	 ecx, DWORD PTR _strImgRgb$[ebp]
  0002a	ff 25 00 00 00
	00		 jmp	 DWORD PTR __imp_??1?$CStringT@DV?$StrTraitMFC_DLL@DV?$ChTraitsCRT@D@ATL@@@@@ATL@@QAE@XZ
__unwindfunclet$?Convert@CChartItemUpjong@@QAE?AV?$CStringT@DV?$StrTraitMFC_DLL@DV?$ChTraitsCRT@D@ATL@@@@@ATL@@XZ$5:
  00030	8d 8d 6c fe ff
	ff		 lea	 ecx, DWORD PTR _strDate$[ebp]
  00036	ff 25 00 00 00
	00		 jmp	 DWORD PTR __imp_??1?$CStringT@DV?$StrTraitMFC_DLL@DV?$ChTraitsCRT@D@ATL@@@@@ATL@@QAE@XZ
__unwindfunclet$?Convert@CChartItemUpjong@@QAE?AV?$CStringT@DV?$StrTraitMFC_DLL@DV?$ChTraitsCRT@D@ATL@@@@@ATL@@XZ$6:
  0003c	8d 8d 8c fe ff
	ff		 lea	 ecx, DWORD PTR $T9[ebp]
  00042	ff 25 00 00 00
	00		 jmp	 DWORD PTR __imp_??1?$CStringT@DV?$StrTraitMFC_DLL@DV?$ChTraitsCRT@D@ATL@@@@@ATL@@QAE@XZ
__unwindfunclet$?Convert@CChartItemUpjong@@QAE?AV?$CStringT@DV?$StrTraitMFC_DLL@DV?$ChTraitsCRT@D@ATL@@@@@ATL@@XZ$7:
  00048	8d 8d 8c fe ff
	ff		 lea	 ecx, DWORD PTR $T8[ebp]
  0004e	ff 25 00 00 00
	00		 jmp	 DWORD PTR __imp_??1?$CStringT@DV?$StrTraitMFC_DLL@DV?$ChTraitsCRT@D@ATL@@@@@ATL@@QAE@XZ
__unwindfunclet$?Convert@CChartItemUpjong@@QAE?AV?$CStringT@DV?$StrTraitMFC_DLL@DV?$ChTraitsCRT@D@ATL@@@@@ATL@@XZ$8:
  00054	8d 8d 8c fe ff
	ff		 lea	 ecx, DWORD PTR $T7[ebp]
  0005a	ff 25 00 00 00
	00		 jmp	 DWORD PTR __imp_??1?$CStringT@DV?$StrTraitMFC_DLL@DV?$ChTraitsCRT@D@ATL@@@@@ATL@@QAE@XZ
__unwindfunclet$?Convert@CChartItemUpjong@@QAE?AV?$CStringT@DV?$StrTraitMFC_DLL@DV?$ChTraitsCRT@D@ATL@@@@@ATL@@XZ$9:
  00060	8d 8d 8c fe ff
	ff		 lea	 ecx, DWORD PTR $T6[ebp]
  00066	ff 25 00 00 00
	00		 jmp	 DWORD PTR __imp_??1?$CStringT@DV?$StrTraitMFC_DLL@DV?$ChTraitsCRT@D@ATL@@@@@ATL@@QAE@XZ
__unwindfunclet$?Convert@CChartItemUpjong@@QAE?AV?$CStringT@DV?$StrTraitMFC_DLL@DV?$ChTraitsCRT@D@ATL@@@@@ATL@@XZ$10:
  0006c	8d 8d 84 fe ff
	ff		 lea	 ecx, DWORD PTR $T5[ebp]
  00072	ff 25 00 00 00
	00		 jmp	 DWORD PTR __imp_??1?$CStringT@DV?$StrTraitMFC_DLL@DV?$ChTraitsCRT@D@ATL@@@@@ATL@@QAE@XZ
__unwindfunclet$?Convert@CChartItemUpjong@@QAE?AV?$CStringT@DV?$StrTraitMFC_DLL@DV?$ChTraitsCRT@D@ATL@@@@@ATL@@XZ$11:
  00078	8d 8d 84 fe ff
	ff		 lea	 ecx, DWORD PTR $T4[ebp]
  0007e	ff 25 00 00 00
	00		 jmp	 DWORD PTR __imp_??1?$CStringT@DV?$StrTraitMFC_DLL@DV?$ChTraitsCRT@D@ATL@@@@@ATL@@QAE@XZ
__unwindfunclet$?Convert@CChartItemUpjong@@QAE?AV?$CStringT@DV?$StrTraitMFC_DLL@DV?$ChTraitsCRT@D@ATL@@@@@ATL@@XZ$12:
  00084	8d 8d 68 fe ff
	ff		 lea	 ecx, DWORD PTR _strNow$[ebp]
  0008a	ff 25 00 00 00
	00		 jmp	 DWORD PTR __imp_??1?$CStringT@DV?$StrTraitMFC_DLL@DV?$ChTraitsCRT@D@ATL@@@@@ATL@@QAE@XZ
__unwindfunclet$?Convert@CChartItemUpjong@@QAE?AV?$CStringT@DV?$StrTraitMFC_DLL@DV?$ChTraitsCRT@D@ATL@@@@@ATL@@XZ$13:
  00090	8d 8d 94 fe ff
	ff		 lea	 ecx, DWORD PTR _stNextData$[ebp]
  00096	ff 25 00 00 00
	00		 jmp	 DWORD PTR __imp_??1?$CStringT@DV?$StrTraitMFC_DLL@DV?$ChTraitsCRT@D@ATL@@@@@ATL@@QAE@XZ
__unwindfunclet$?Convert@CChartItemUpjong@@QAE?AV?$CStringT@DV?$StrTraitMFC_DLL@DV?$ChTraitsCRT@D@ATL@@@@@ATL@@XZ$14:
  0009c	8d 8d 90 fe ff
	ff		 lea	 ecx, DWORD PTR _stNextKey$[ebp]
  000a2	ff 25 00 00 00
	00		 jmp	 DWORD PTR __imp_??1?$CStringT@DV?$StrTraitMFC_DLL@DV?$ChTraitsCRT@D@ATL@@@@@ATL@@QAE@XZ
__unwindfunclet$?Convert@CChartItemUpjong@@QAE?AV?$CStringT@DV?$StrTraitMFC_DLL@DV?$ChTraitsCRT@D@ATL@@@@@ATL@@XZ$15:
  000a8	8d 8d 80 fe ff
	ff		 lea	 ecx, DWORD PTR _stRowData$[ebp]
  000ae	ff 25 00 00 00
	00		 jmp	 DWORD PTR __imp_??1?$CStringT@DV?$StrTraitMFC_DLL@DV?$ChTraitsCRT@D@ATL@@@@@ATL@@QAE@XZ
__unwindfunclet$?Convert@CChartItemUpjong@@QAE?AV?$CStringT@DV?$StrTraitMFC_DLL@DV?$ChTraitsCRT@D@ATL@@@@@ATL@@XZ$16:
  000b4	8d 8d 84 fe ff
	ff		 lea	 ecx, DWORD PTR $T3[ebp]
  000ba	ff 25 00 00 00
	00		 jmp	 DWORD PTR __imp_??1?$CStringT@DV?$StrTraitMFC_DLL@DV?$ChTraitsCRT@D@ATL@@@@@ATL@@QAE@XZ
__unwindfunclet$?Convert@CChartItemUpjong@@QAE?AV?$CStringT@DV?$StrTraitMFC_DLL@DV?$ChTraitsCRT@D@ATL@@@@@ATL@@XZ$17:
  000c0	8d 8d 84 fe ff
	ff		 lea	 ecx, DWORD PTR $T2[ebp]
  000c6	ff 25 00 00 00
	00		 jmp	 DWORD PTR __imp_??1?$CStringT@DV?$StrTraitMFC_DLL@DV?$ChTraitsCRT@D@ATL@@@@@ATL@@QAE@XZ
__unwindfunclet$?Convert@CChartItemUpjong@@QAE?AV?$CStringT@DV?$StrTraitMFC_DLL@DV?$ChTraitsCRT@D@ATL@@@@@ATL@@XZ$18:
  000cc	8d 8d 78 fe ff
	ff		 lea	 ecx, DWORD PTR _temp$[ebp]
  000d2	ff 25 00 00 00
	00		 jmp	 DWORD PTR __imp_??1?$CStringT@DV?$StrTraitMFC_DLL@DV?$ChTraitsCRT@D@ATL@@@@@ATL@@QAE@XZ
  000d8	cc		 int	 3
  000d9	cc		 int	 3
  000da	cc		 int	 3
  000db	cc		 int	 3
  000dc	cc		 int	 3
__ehhandler$?Convert@CChartItemUpjong@@QAE?AV?$CStringT@DV?$StrTraitMFC_DLL@DV?$ChTraitsCRT@D@ATL@@@@@ATL@@XZ:
  000dd	90		 npad	 1
  000de	90		 npad	 1
  000df	8b 54 24 08	 mov	 edx, DWORD PTR [esp+8]
  000e3	8d 42 0c	 lea	 eax, DWORD PTR [edx+12]
  000e6	8b 8a 5c fe ff
	ff		 mov	 ecx, DWORD PTR [edx-420]
  000ec	33 c8		 xor	 ecx, eax
  000ee	e8 00 00 00 00	 call	 @__security_check_cookie@4
  000f3	8b 4a fc	 mov	 ecx, DWORD PTR [edx-4]
  000f6	33 c8		 xor	 ecx, eax
  000f8	e8 00 00 00 00	 call	 @__security_check_cookie@4
  000fd	b8 00 00 00 00	 mov	 eax, OFFSET __ehfuncinfo$?Convert@CChartItemUpjong@@QAE?AV?$CStringT@DV?$StrTraitMFC_DLL@DV?$ChTraitsCRT@D@ATL@@@@@ATL@@XZ
  00102	e9 00 00 00 00	 jmp	 ___CxxFrameHandler3
text$x	ENDS
?Convert@CChartItemUpjong@@QAE?AV?$CStringT@DV?$StrTraitMFC_DLL@DV?$ChTraitsCRT@D@ATL@@@@@ATL@@XZ ENDP ; CChartItemUpjong::Convert
; Function compile flags: /Ogtp
; File D:\git\src\IBK\IBK_DRFN\ProjSrc\SrcDrfn\DrCommon\PartnerMng\ChartItemUpjong.cpp
;	COMDAT ?SetInData@CChartItemUpjong@@QAEXPAUKB_p0603_InRec1@@@Z
_TEXT	SEGMENT
_pData$ = 8						; size = 4
?SetInData@CChartItemUpjong@@QAEXPAUKB_p0603_InRec1@@@Z PROC ; CChartItemUpjong::SetInData, COMDAT
; _this$ = ecx

; 34   : {

  00000	55		 push	 ebp
  00001	8b ec		 mov	 ebp, esp

; 35   : 	memcpy(&m_InData, pData, sizeof(KB_p0603_InRec1));

  00003	8b 45 08	 mov	 eax, DWORD PTR _pData$[ebp]
  00006	0f 10 00	 movups	 xmm0, XMMWORD PTR [eax]
  00009	0f 11 41 04	 movups	 XMMWORD PTR [ecx+4], xmm0
  0000d	0f 10 40 10	 movups	 xmm0, XMMWORD PTR [eax+16]
  00011	0f 11 41 14	 movups	 XMMWORD PTR [ecx+20], xmm0
  00015	0f 10 40 20	 movups	 xmm0, XMMWORD PTR [eax+32]
  00019	0f 11 41 24	 movups	 XMMWORD PTR [ecx+36], xmm0
  0001d	8b 40 30	 mov	 eax, DWORD PTR [eax+48]
  00020	89 41 34	 mov	 DWORD PTR [ecx+52], eax

; 36   : 	m_bSet = TRUE;

  00023	c6 81 00 01 00
	00 01		 mov	 BYTE PTR [ecx+256], 1

; 37   : }

  0002a	5d		 pop	 ebp
  0002b	c2 04 00	 ret	 4
?SetInData@CChartItemUpjong@@QAEXPAUKB_p0603_InRec1@@@Z ENDP ; CChartItemUpjong::SetInData
_TEXT	ENDS
; Function compile flags: /Ogtp
; File D:\git\src\IBK\IBK_DRFN\ProjSrc\SrcDrfn\DrCommon\PartnerMng\ChartItemUpjong.cpp
;	COMDAT ??1CChartItemUpjong@@UAE@XZ
_TEXT	SEGMENT
??1CChartItemUpjong@@UAE@XZ PROC			; CChartItemUpjong::~CChartItemUpjong, COMDAT
; _this$ = ecx

; 29   : {

  00000	c7 01 00 00 00
	00		 mov	 DWORD PTR [ecx], OFFSET ??_7CChartItemUpjong@@6B@

; 30   : 
; 31   : }

  00006	83 c1 38	 add	 ecx, 56			; 00000038H
  00009	e9 00 00 00 00	 jmp	 ??1CChartBozoInput@@QAE@XZ
??1CChartItemUpjong@@UAE@XZ ENDP			; CChartItemUpjong::~CChartItemUpjong
_TEXT	ENDS
; Function compile flags: /Ogtp
; File D:\git\src\IBK\IBK_DRFN\ProjSrc\SrcDrfn\DrCommon\PartnerMng\ChartItemUpjong.cpp
; File D:\git\src\IBK\IBK_DRFN\ProjSrc\SrcDrfn\inc\IChartBozoMsgMng.h
; File D:\git\src\IBK\IBK_DRFN\ProjSrc\SrcDrfn\DrCommon\PartnerMng\ChartItemUpjong.cpp
;	COMDAT ??0CChartItemUpjong@@QAE@XZ
_TEXT	SEGMENT
_this$ = -4						; size = 4
??0CChartItemUpjong@@QAE@XZ PROC			; CChartItemUpjong::CChartItemUpjong, COMDAT
; _this$ = ecx

; 24   : {

  00000	55		 push	 ebp
  00001	8b ec		 mov	 ebp, esp
  00003	51		 push	 ecx
  00004	56		 push	 esi
  00005	8b f1		 mov	 esi, ecx
  00007	89 75 fc	 mov	 DWORD PTR _this$[ebp], esi
  0000a	c7 06 00 00 00
	00		 mov	 DWORD PTR [esi], OFFSET ??_7CChartItemUpjong@@6B@
; File D:\git\src\IBK\IBK_DRFN\ProjSrc\SrcDrfn\inc\IChartBozoMsgMng.h

; 39   : 	CChartBozoInput()	{ InitData();	};

  00010	8d 4e 3c	 lea	 ecx, DWORD PTR [esi+60]
  00013	c7 46 38 00 00
	00 00		 mov	 DWORD PTR [esi+56], OFFSET ??_7CChartBozoInput@@6B@
  0001a	ff 15 00 00 00
	00		 call	 DWORD PTR __imp_??0?$CStringT@DV?$StrTraitMFC_DLL@DV?$ChTraitsCRT@D@ATL@@@@@ATL@@QAE@XZ
  00020	8d 4e 40	 lea	 ecx, DWORD PTR [esi+64]
  00023	ff 15 00 00 00
	00		 call	 DWORD PTR __imp_??0?$CStringT@DV?$StrTraitMFC_DLL@DV?$ChTraitsCRT@D@ATL@@@@@ATL@@QAE@XZ
  00029	8d 4e 44	 lea	 ecx, DWORD PTR [esi+68]
  0002c	ff 15 00 00 00
	00		 call	 DWORD PTR __imp_??0?$CStringT@DV?$StrTraitMFC_DLL@DV?$ChTraitsCRT@D@ATL@@@@@ATL@@QAE@XZ
  00032	8d 4e 48	 lea	 ecx, DWORD PTR [esi+72]
  00035	ff 15 00 00 00
	00		 call	 DWORD PTR __imp_??0?$CStringT@DV?$StrTraitMFC_DLL@DV?$ChTraitsCRT@D@ATL@@@@@ATL@@QAE@XZ
  0003b	8d 4e 4c	 lea	 ecx, DWORD PTR [esi+76]
  0003e	ff 15 00 00 00
	00		 call	 DWORD PTR __imp_??0?$CStringT@DV?$StrTraitMFC_DLL@DV?$ChTraitsCRT@D@ATL@@@@@ATL@@QAE@XZ
  00044	8d 4e 50	 lea	 ecx, DWORD PTR [esi+80]
  00047	ff 15 00 00 00
	00		 call	 DWORD PTR __imp_??0?$CStringT@DV?$StrTraitMFC_DLL@DV?$ChTraitsCRT@D@ATL@@@@@ATL@@QAE@XZ
  0004d	8d 4e 54	 lea	 ecx, DWORD PTR [esi+84]
  00050	ff 15 00 00 00
	00		 call	 DWORD PTR __imp_??0?$CStringT@DV?$StrTraitMFC_DLL@DV?$ChTraitsCRT@D@ATL@@@@@ATL@@QAE@XZ
  00056	8d 4e 58	 lea	 ecx, DWORD PTR [esi+88]
  00059	ff 15 00 00 00
	00		 call	 DWORD PTR __imp_??0?$CStringT@DV?$StrTraitMFC_DLL@DV?$ChTraitsCRT@D@ATL@@@@@ATL@@QAE@XZ
  0005f	8d 4e 5c	 lea	 ecx, DWORD PTR [esi+92]
  00062	ff 15 00 00 00
	00		 call	 DWORD PTR __imp_??0?$CStringT@DV?$StrTraitMFC_DLL@DV?$ChTraitsCRT@D@ATL@@@@@ATL@@QAE@XZ
  00068	8d 4e 60	 lea	 ecx, DWORD PTR [esi+96]
  0006b	ff 15 00 00 00
	00		 call	 DWORD PTR __imp_??0?$CStringT@DV?$StrTraitMFC_DLL@DV?$ChTraitsCRT@D@ATL@@@@@ATL@@QAE@XZ
  00071	8d 4e 64	 lea	 ecx, DWORD PTR [esi+100]
  00074	ff 15 00 00 00
	00		 call	 DWORD PTR __imp_??0?$CStringT@DV?$StrTraitMFC_DLL@DV?$ChTraitsCRT@D@ATL@@@@@ATL@@QAE@XZ
  0007a	8d 4e 68	 lea	 ecx, DWORD PTR [esi+104]
  0007d	ff 15 00 00 00
	00		 call	 DWORD PTR __imp_??0?$CStringT@DV?$StrTraitMFC_DLL@DV?$ChTraitsCRT@D@ATL@@@@@ATL@@QAE@XZ
  00083	8d 4e 6c	 lea	 ecx, DWORD PTR [esi+108]
  00086	ff 15 00 00 00
	00		 call	 DWORD PTR __imp_??0?$CStringT@DV?$StrTraitMFC_DLL@DV?$ChTraitsCRT@D@ATL@@@@@ATL@@QAE@XZ
  0008c	8d 4e 70	 lea	 ecx, DWORD PTR [esi+112]
  0008f	ff 15 00 00 00
	00		 call	 DWORD PTR __imp_??0?$CStringT@DV?$StrTraitMFC_DLL@DV?$ChTraitsCRT@D@ATL@@@@@ATL@@QAE@XZ
  00095	8d 4e 74	 lea	 ecx, DWORD PTR [esi+116]
  00098	ff 15 00 00 00
	00		 call	 DWORD PTR __imp_??0?$CStringT@DV?$StrTraitMFC_DLL@DV?$ChTraitsCRT@D@ATL@@@@@ATL@@QAE@XZ
  0009e	8d 4e 78	 lea	 ecx, DWORD PTR [esi+120]
  000a1	ff 15 00 00 00
	00		 call	 DWORD PTR __imp_??0?$CStringT@DV?$StrTraitMFC_DLL@DV?$ChTraitsCRT@D@ATL@@@@@ATL@@QAE@XZ
  000a7	8d 4e 7c	 lea	 ecx, DWORD PTR [esi+124]
  000aa	ff 15 00 00 00
	00		 call	 DWORD PTR __imp_??0?$CStringT@DV?$StrTraitMFC_DLL@DV?$ChTraitsCRT@D@ATL@@@@@ATL@@QAE@XZ
  000b0	8d 8e 80 00 00
	00		 lea	 ecx, DWORD PTR [esi+128]
  000b6	ff 15 00 00 00
	00		 call	 DWORD PTR __imp_??0?$CStringT@DV?$StrTraitMFC_DLL@DV?$ChTraitsCRT@D@ATL@@@@@ATL@@QAE@XZ
  000bc	8d 8e 84 00 00
	00		 lea	 ecx, DWORD PTR [esi+132]
  000c2	ff 15 00 00 00
	00		 call	 DWORD PTR __imp_??0?$CStringT@DV?$StrTraitMFC_DLL@DV?$ChTraitsCRT@D@ATL@@@@@ATL@@QAE@XZ
  000c8	8d 8e 88 00 00
	00		 lea	 ecx, DWORD PTR [esi+136]
  000ce	ff 15 00 00 00
	00		 call	 DWORD PTR __imp_??0?$CStringT@DV?$StrTraitMFC_DLL@DV?$ChTraitsCRT@D@ATL@@@@@ATL@@QAE@XZ
  000d4	8d 8e 8c 00 00
	00		 lea	 ecx, DWORD PTR [esi+140]
  000da	ff 15 00 00 00
	00		 call	 DWORD PTR __imp_??0?$CStringT@DV?$StrTraitMFC_DLL@DV?$ChTraitsCRT@D@ATL@@@@@ATL@@QAE@XZ
  000e0	8d 8e 90 00 00
	00		 lea	 ecx, DWORD PTR [esi+144]
  000e6	ff 15 00 00 00
	00		 call	 DWORD PTR __imp_??0?$CStringT@DV?$StrTraitMFC_DLL@DV?$ChTraitsCRT@D@ATL@@@@@ATL@@QAE@XZ
  000ec	8d 8e 94 00 00
	00		 lea	 ecx, DWORD PTR [esi+148]
  000f2	ff 15 00 00 00
	00		 call	 DWORD PTR __imp_??0?$CStringT@DV?$StrTraitMFC_DLL@DV?$ChTraitsCRT@D@ATL@@@@@ATL@@QAE@XZ
  000f8	8d 8e 98 00 00
	00		 lea	 ecx, DWORD PTR [esi+152]
  000fe	ff 15 00 00 00
	00		 call	 DWORD PTR __imp_??0?$CStringT@DV?$StrTraitMFC_DLL@DV?$ChTraitsCRT@D@ATL@@@@@ATL@@QAE@XZ
  00104	8d 8e 9c 00 00
	00		 lea	 ecx, DWORD PTR [esi+156]
  0010a	ff 15 00 00 00
	00		 call	 DWORD PTR __imp_??0?$CStringT@DV?$StrTraitMFC_DLL@DV?$ChTraitsCRT@D@ATL@@@@@ATL@@QAE@XZ
  00110	8d 8e f8 00 00
	00		 lea	 ecx, DWORD PTR [esi+248]
  00116	ff 15 00 00 00
	00		 call	 DWORD PTR __imp_??0?$CStringT@DV?$StrTraitMFC_DLL@DV?$ChTraitsCRT@D@ATL@@@@@ATL@@QAE@XZ

; 49   : 		ZeroMemory(sDataType, sizeof(sDataType));

  0011c	33 c0		 xor	 eax, eax
  0011e	0f 57 c0	 xorps	 xmm0, xmm0

; 40   : 	CChartBozoInput(const CChartBozoInput& obj)	{ *this = obj;	};
; 41   : 
; 42   : 	void InitData()
; 43   : 	{
; 44   : 		ZeroMemory(sShcode, sizeof(sShcode));

  00121	0f 11 86 a0 00
	00 00		 movups	 XMMWORD PTR [esi+160], xmm0

; 45   : //		ZeroMemory(sTick, sizeof(sTick));
; 46   : 		lTick = 0;

  00128	c7 86 b0 00 00
	00 00 00 00 00	 mov	 DWORD PTR [esi+176], 0

; 47   : 		ZeroMemory(sTerm, sizeof(sTerm));
; 48   : 		ZeroMemory(sNxtFlg, sizeof(sNxtFlg));
; 49   : 		ZeroMemory(sDataType, sizeof(sDataType));

  00132	66 89 86 b4 00
	00 00		 mov	 WORD PTR [esi+180], ax
  00139	88 86 b6 00 00
	00		 mov	 BYTE PTR [esi+182], al

; 50   : 		lPrice = 0;

  0013f	89 86 b8 00 00
	00		 mov	 DWORD PTR [esi+184], eax

; 51   : 		lVolume = 0;

  00145	89 86 bc 00 00
	00		 mov	 DWORD PTR [esi+188], eax

; 52   : 		lUpLmtPrice = 0;

  0014b	89 86 c0 00 00
	00		 mov	 DWORD PTR [esi+192], eax

; 53   : 		lDnLmtPrice = 0;

  00151	89 86 c4 00 00
	00		 mov	 DWORD PTR [esi+196], eax

; 54   : 		lOpen;
; 55   : 		lHigh;
; 56   : 		lLow;
; 57   : 		lPreprice;	
; 58   : 		lPreVolume;	
; 59   : 		lPreOpen;
; 60   : 		lPreHigh;
; 61   : 		lPreLow;
; 62   : 		//ZeroMemory(sStartTime, sizeof(sStartTime));
; 63   : 		lFirstClose = 0;		

  00157	89 86 dc 00 00
	00		 mov	 DWORD PTR [esi+220], eax

; 64   : 		nMarket = 0;

  0015d	89 86 ec 00 00
	00		 mov	 DWORD PTR [esi+236], eax

; 65   : 		lWonDollar = 0;

  00163	89 86 f0 00 00
	00		 mov	 DWORD PTR [esi+240], eax

; 66   : 
; 67   : //vntsorl_20110420:[A00000410]      
; 68   : 		nPacketType = 0;

  00169	89 86 f4 00 00
	00		 mov	 DWORD PTR [esi+244], eax
; File D:\git\src\IBK\IBK_DRFN\ProjSrc\SrcDrfn\DrCommon\PartnerMng\ChartItemUpjong.cpp

; 25   : 	m_bSet = FALSE;

  0016f	88 86 00 01 00
	00		 mov	 BYTE PTR [esi+256], al

; 26   : }

  00175	8b c6		 mov	 eax, esi
  00177	5e		 pop	 esi
  00178	8b e5		 mov	 esp, ebp
  0017a	5d		 pop	 ebp
  0017b	c3		 ret	 0
??0CChartItemUpjong@@QAE@XZ ENDP			; CChartItemUpjong::CChartItemUpjong
_TEXT	ENDS
; Function compile flags: /Ogtp
;	COMDAT ??1CChartBozoInput@@QAE@XZ
_TEXT	SEGMENT
??1CChartBozoInput@@QAE@XZ PROC				; CChartBozoInput::~CChartBozoInput, COMDAT
; _this$ = ecx
  00000	56		 push	 esi
  00001	8b f1		 mov	 esi, ecx
  00003	8d 8e c0 00 00
	00		 lea	 ecx, DWORD PTR [esi+192]
  00009	ff 15 00 00 00
	00		 call	 DWORD PTR __imp_??1?$CStringT@DV?$StrTraitMFC_DLL@DV?$ChTraitsCRT@D@ATL@@@@@ATL@@QAE@XZ
  0000f	8d 4e 64	 lea	 ecx, DWORD PTR [esi+100]
  00012	ff 15 00 00 00
	00		 call	 DWORD PTR __imp_??1?$CStringT@DV?$StrTraitMFC_DLL@DV?$ChTraitsCRT@D@ATL@@@@@ATL@@QAE@XZ
  00018	8d 4e 60	 lea	 ecx, DWORD PTR [esi+96]
  0001b	ff 15 00 00 00
	00		 call	 DWORD PTR __imp_??1?$CStringT@DV?$StrTraitMFC_DLL@DV?$ChTraitsCRT@D@ATL@@@@@ATL@@QAE@XZ
  00021	8d 4e 5c	 lea	 ecx, DWORD PTR [esi+92]
  00024	ff 15 00 00 00
	00		 call	 DWORD PTR __imp_??1?$CStringT@DV?$StrTraitMFC_DLL@DV?$ChTraitsCRT@D@ATL@@@@@ATL@@QAE@XZ
  0002a	8d 4e 58	 lea	 ecx, DWORD PTR [esi+88]
  0002d	ff 15 00 00 00
	00		 call	 DWORD PTR __imp_??1?$CStringT@DV?$StrTraitMFC_DLL@DV?$ChTraitsCRT@D@ATL@@@@@ATL@@QAE@XZ
  00033	8d 4e 54	 lea	 ecx, DWORD PTR [esi+84]
  00036	ff 15 00 00 00
	00		 call	 DWORD PTR __imp_??1?$CStringT@DV?$StrTraitMFC_DLL@DV?$ChTraitsCRT@D@ATL@@@@@ATL@@QAE@XZ
  0003c	8d 4e 50	 lea	 ecx, DWORD PTR [esi+80]
  0003f	ff 15 00 00 00
	00		 call	 DWORD PTR __imp_??1?$CStringT@DV?$StrTraitMFC_DLL@DV?$ChTraitsCRT@D@ATL@@@@@ATL@@QAE@XZ
  00045	8d 4e 4c	 lea	 ecx, DWORD PTR [esi+76]
  00048	ff 15 00 00 00
	00		 call	 DWORD PTR __imp_??1?$CStringT@DV?$StrTraitMFC_DLL@DV?$ChTraitsCRT@D@ATL@@@@@ATL@@QAE@XZ
  0004e	8d 4e 48	 lea	 ecx, DWORD PTR [esi+72]
  00051	ff 15 00 00 00
	00		 call	 DWORD PTR __imp_??1?$CStringT@DV?$StrTraitMFC_DLL@DV?$ChTraitsCRT@D@ATL@@@@@ATL@@QAE@XZ
  00057	8d 4e 44	 lea	 ecx, DWORD PTR [esi+68]
  0005a	ff 15 00 00 00
	00		 call	 DWORD PTR __imp_??1?$CStringT@DV?$StrTraitMFC_DLL@DV?$ChTraitsCRT@D@ATL@@@@@ATL@@QAE@XZ
  00060	8d 4e 40	 lea	 ecx, DWORD PTR [esi+64]
  00063	ff 15 00 00 00
	00		 call	 DWORD PTR __imp_??1?$CStringT@DV?$StrTraitMFC_DLL@DV?$ChTraitsCRT@D@ATL@@@@@ATL@@QAE@XZ
  00069	8d 4e 3c	 lea	 ecx, DWORD PTR [esi+60]
  0006c	ff 15 00 00 00
	00		 call	 DWORD PTR __imp_??1?$CStringT@DV?$StrTraitMFC_DLL@DV?$ChTraitsCRT@D@ATL@@@@@ATL@@QAE@XZ
  00072	8d 4e 38	 lea	 ecx, DWORD PTR [esi+56]
  00075	ff 15 00 00 00
	00		 call	 DWORD PTR __imp_??1?$CStringT@DV?$StrTraitMFC_DLL@DV?$ChTraitsCRT@D@ATL@@@@@ATL@@QAE@XZ
  0007b	8d 4e 34	 lea	 ecx, DWORD PTR [esi+52]
  0007e	ff 15 00 00 00
	00		 call	 DWORD PTR __imp_??1?$CStringT@DV?$StrTraitMFC_DLL@DV?$ChTraitsCRT@D@ATL@@@@@ATL@@QAE@XZ
  00084	8d 4e 30	 lea	 ecx, DWORD PTR [esi+48]
  00087	ff 15 00 00 00
	00		 call	 DWORD PTR __imp_??1?$CStringT@DV?$StrTraitMFC_DLL@DV?$ChTraitsCRT@D@ATL@@@@@ATL@@QAE@XZ
  0008d	8d 4e 2c	 lea	 ecx, DWORD PTR [esi+44]
  00090	ff 15 00 00 00
	00		 call	 DWORD PTR __imp_??1?$CStringT@DV?$StrTraitMFC_DLL@DV?$ChTraitsCRT@D@ATL@@@@@ATL@@QAE@XZ
  00096	8d 4e 28	 lea	 ecx, DWORD PTR [esi+40]
  00099	ff 15 00 00 00
	00		 call	 DWORD PTR __imp_??1?$CStringT@DV?$StrTraitMFC_DLL@DV?$ChTraitsCRT@D@ATL@@@@@ATL@@QAE@XZ
  0009f	8d 4e 24	 lea	 ecx, DWORD PTR [esi+36]
  000a2	ff 15 00 00 00
	00		 call	 DWORD PTR __imp_??1?$CStringT@DV?$StrTraitMFC_DLL@DV?$ChTraitsCRT@D@ATL@@@@@ATL@@QAE@XZ
  000a8	8d 4e 20	 lea	 ecx, DWORD PTR [esi+32]
  000ab	ff 15 00 00 00
	00		 call	 DWORD PTR __imp_??1?$CStringT@DV?$StrTraitMFC_DLL@DV?$ChTraitsCRT@D@ATL@@@@@ATL@@QAE@XZ
  000b1	8d 4e 1c	 lea	 ecx, DWORD PTR [esi+28]
  000b4	ff 15 00 00 00
	00		 call	 DWORD PTR __imp_??1?$CStringT@DV?$StrTraitMFC_DLL@DV?$ChTraitsCRT@D@ATL@@@@@ATL@@QAE@XZ
  000ba	8d 4e 18	 lea	 ecx, DWORD PTR [esi+24]
  000bd	ff 15 00 00 00
	00		 call	 DWORD PTR __imp_??1?$CStringT@DV?$StrTraitMFC_DLL@DV?$ChTraitsCRT@D@ATL@@@@@ATL@@QAE@XZ
  000c3	8d 4e 14	 lea	 ecx, DWORD PTR [esi+20]
  000c6	ff 15 00 00 00
	00		 call	 DWORD PTR __imp_??1?$CStringT@DV?$StrTraitMFC_DLL@DV?$ChTraitsCRT@D@ATL@@@@@ATL@@QAE@XZ
  000cc	8d 4e 10	 lea	 ecx, DWORD PTR [esi+16]
  000cf	ff 15 00 00 00
	00		 call	 DWORD PTR __imp_??1?$CStringT@DV?$StrTraitMFC_DLL@DV?$ChTraitsCRT@D@ATL@@@@@ATL@@QAE@XZ
  000d5	8d 4e 0c	 lea	 ecx, DWORD PTR [esi+12]
  000d8	ff 15 00 00 00
	00		 call	 DWORD PTR __imp_??1?$CStringT@DV?$StrTraitMFC_DLL@DV?$ChTraitsCRT@D@ATL@@@@@ATL@@QAE@XZ
  000de	8d 4e 08	 lea	 ecx, DWORD PTR [esi+8]
  000e1	ff 15 00 00 00
	00		 call	 DWORD PTR __imp_??1?$CStringT@DV?$StrTraitMFC_DLL@DV?$ChTraitsCRT@D@ATL@@@@@ATL@@QAE@XZ
  000e7	8d 4e 04	 lea	 ecx, DWORD PTR [esi+4]
  000ea	5e		 pop	 esi
  000eb	ff 25 00 00 00
	00		 jmp	 DWORD PTR __imp_??1?$CStringT@DV?$StrTraitMFC_DLL@DV?$ChTraitsCRT@D@ATL@@@@@ATL@@QAE@XZ
??1CChartBozoInput@@QAE@XZ ENDP				; CChartBozoInput::~CChartBozoInput
_TEXT	ENDS
; Function compile flags: /Ogtp
; File D:\git\src\IBK\IBK_DRFN\ProjSrc\SrcDrfn\inc\IChartBozoMsgMng.h
;	COMDAT ??4CChartBozoInput@@UAEAAV0@ABV0@@Z
_TEXT	SEGMENT
_item$ = 8						; size = 4
??4CChartBozoInput@@UAEAAV0@ABV0@@Z PROC		; CChartBozoInput::operator=, COMDAT
; _this$ = ecx

; 124  : 	virtual CChartBozoInput& operator = (const CChartBozoInput& item)	{ Copy(item);	return *this; };

  00000	55		 push	 ebp
  00001	8b ec		 mov	 ebp, esp
  00003	56		 push	 esi
  00004	ff 75 08	 push	 DWORD PTR _item$[ebp]
  00007	8b f1		 mov	 esi, ecx
  00009	8b 06		 mov	 eax, DWORD PTR [esi]
  0000b	ff 10		 call	 DWORD PTR [eax]
  0000d	8b c6		 mov	 eax, esi
  0000f	5e		 pop	 esi
  00010	5d		 pop	 ebp
  00011	c2 04 00	 ret	 4
??4CChartBozoInput@@UAEAAV0@ABV0@@Z ENDP		; CChartBozoInput::operator=
_TEXT	ENDS
; Function compile flags: /Ogtp
; File D:\git\src\IBK\IBK_DRFN\ProjSrc\SrcDrfn\inc\IChartBozoMsgMng.h
;	COMDAT ?Copy@CChartBozoInput@@UAEXABV1@@Z
_TEXT	SEGMENT
_right$ = 8						; size = 4
?Copy@CChartBozoInput@@UAEXABV1@@Z PROC			; CChartBozoInput::Copy, COMDAT
; _this$ = ecx

; 72   : 	{

  00000	55		 push	 ebp
  00001	8b ec		 mov	 ebp, esp
  00003	56		 push	 esi

; 73   : 		m_sMarket		= right.m_sMarket;

  00004	8b 75 08	 mov	 esi, DWORD PTR _right$[ebp]
  00007	57		 push	 edi
  00008	8b f9		 mov	 edi, ecx
  0000a	8d 46 04	 lea	 eax, DWORD PTR [esi+4]
  0000d	50		 push	 eax
  0000e	8d 4f 04	 lea	 ecx, DWORD PTR [edi+4]
  00011	ff 15 00 00 00
	00		 call	 DWORD PTR __imp_??4?$CStringT@DV?$StrTraitMFC_DLL@DV?$ChTraitsCRT@D@ATL@@@@@ATL@@QAEAAV01@ABV01@@Z

; 74   : 		m_sShcode		= right.m_sShcode;

  00017	8d 46 08	 lea	 eax, DWORD PTR [esi+8]
  0001a	50		 push	 eax
  0001b	8d 4f 08	 lea	 ecx, DWORD PTR [edi+8]
  0001e	ff 15 00 00 00
	00		 call	 DWORD PTR __imp_??4?$CStringT@DV?$StrTraitMFC_DLL@DV?$ChTraitsCRT@D@ATL@@@@@ATL@@QAEAAV01@ABV01@@Z

; 75   : 		m_sTick			= right.m_sTick;

  00024	8d 46 0c	 lea	 eax, DWORD PTR [esi+12]
  00027	50		 push	 eax
  00028	8d 4f 0c	 lea	 ecx, DWORD PTR [edi+12]
  0002b	ff 15 00 00 00
	00		 call	 DWORD PTR __imp_??4?$CStringT@DV?$StrTraitMFC_DLL@DV?$ChTraitsCRT@D@ATL@@@@@ATL@@QAEAAV01@ABV01@@Z

; 76   : 		m_sTerm			= right.m_sTerm;

  00031	8d 46 10	 lea	 eax, DWORD PTR [esi+16]
  00034	50		 push	 eax
  00035	8d 4f 10	 lea	 ecx, DWORD PTR [edi+16]
  00038	ff 15 00 00 00
	00		 call	 DWORD PTR __imp_??4?$CStringT@DV?$StrTraitMFC_DLL@DV?$ChTraitsCRT@D@ATL@@@@@ATL@@QAEAAV01@ABV01@@Z

; 77   : 		m_sNxtFlg		= right.m_sNxtFlg;

  0003e	8d 46 14	 lea	 eax, DWORD PTR [esi+20]
  00041	50		 push	 eax
  00042	8d 4f 14	 lea	 ecx, DWORD PTR [edi+20]
  00045	ff 15 00 00 00
	00		 call	 DWORD PTR __imp_??4?$CStringT@DV?$StrTraitMFC_DLL@DV?$ChTraitsCRT@D@ATL@@@@@ATL@@QAEAAV01@ABV01@@Z

; 78   : 		m_sDataType		= right.m_sDataType;

  0004b	8d 46 18	 lea	 eax, DWORD PTR [esi+24]
  0004e	50		 push	 eax
  0004f	8d 4f 18	 lea	 ecx, DWORD PTR [edi+24]
  00052	ff 15 00 00 00
	00		 call	 DWORD PTR __imp_??4?$CStringT@DV?$StrTraitMFC_DLL@DV?$ChTraitsCRT@D@ATL@@@@@ATL@@QAEAAV01@ABV01@@Z

; 79   : 		m_sVolume		= right.m_sVolume;

  00058	8d 46 20	 lea	 eax, DWORD PTR [esi+32]
  0005b	50		 push	 eax
  0005c	8d 4f 20	 lea	 ecx, DWORD PTR [edi+32]
  0005f	ff 15 00 00 00
	00		 call	 DWORD PTR __imp_??4?$CStringT@DV?$StrTraitMFC_DLL@DV?$ChTraitsCRT@D@ATL@@@@@ATL@@QAEAAV01@ABV01@@Z

; 80   : 		m_sUpLmtPrice	= right.m_sUpLmtPrice;

  00065	8d 46 24	 lea	 eax, DWORD PTR [esi+36]
  00068	50		 push	 eax
  00069	8d 4f 24	 lea	 ecx, DWORD PTR [edi+36]
  0006c	ff 15 00 00 00
	00		 call	 DWORD PTR __imp_??4?$CStringT@DV?$StrTraitMFC_DLL@DV?$ChTraitsCRT@D@ATL@@@@@ATL@@QAEAAV01@ABV01@@Z

; 81   : 		m_sDnLmtPrice	= right.m_sDnLmtPrice;

  00072	8d 46 28	 lea	 eax, DWORD PTR [esi+40]
  00075	50		 push	 eax
  00076	8d 4f 28	 lea	 ecx, DWORD PTR [edi+40]
  00079	ff 15 00 00 00
	00		 call	 DWORD PTR __imp_??4?$CStringT@DV?$StrTraitMFC_DLL@DV?$ChTraitsCRT@D@ATL@@@@@ATL@@QAEAAV01@ABV01@@Z

; 82   : 		m_sOpen			= right.m_sOpen;

  0007f	8d 46 2c	 lea	 eax, DWORD PTR [esi+44]
  00082	50		 push	 eax
  00083	8d 4f 2c	 lea	 ecx, DWORD PTR [edi+44]
  00086	ff 15 00 00 00
	00		 call	 DWORD PTR __imp_??4?$CStringT@DV?$StrTraitMFC_DLL@DV?$ChTraitsCRT@D@ATL@@@@@ATL@@QAEAAV01@ABV01@@Z

; 83   : 		m_sHigh			= right.m_sHigh;

  0008c	8d 46 30	 lea	 eax, DWORD PTR [esi+48]
  0008f	50		 push	 eax
  00090	8d 4f 30	 lea	 ecx, DWORD PTR [edi+48]
  00093	ff 15 00 00 00
	00		 call	 DWORD PTR __imp_??4?$CStringT@DV?$StrTraitMFC_DLL@DV?$ChTraitsCRT@D@ATL@@@@@ATL@@QAEAAV01@ABV01@@Z

; 84   : 		m_sLow			= right.m_sLow;

  00099	8d 46 34	 lea	 eax, DWORD PTR [esi+52]
  0009c	50		 push	 eax
  0009d	8d 4f 34	 lea	 ecx, DWORD PTR [edi+52]
  000a0	ff 15 00 00 00
	00		 call	 DWORD PTR __imp_??4?$CStringT@DV?$StrTraitMFC_DLL@DV?$ChTraitsCRT@D@ATL@@@@@ATL@@QAEAAV01@ABV01@@Z

; 85   : 		m_sPrice		= right.m_sPrice;		// 20100326_JS.Kim.     

  000a6	8d 46 1c	 lea	 eax, DWORD PTR [esi+28]
  000a9	50		 push	 eax
  000aa	8d 4f 1c	 lea	 ecx, DWORD PTR [edi+28]
  000ad	ff 15 00 00 00
	00		 call	 DWORD PTR __imp_??4?$CStringT@DV?$StrTraitMFC_DLL@DV?$ChTraitsCRT@D@ATL@@@@@ATL@@QAEAAV01@ABV01@@Z

; 86   : 		m_sPreprice		= right.m_sPreprice;

  000b3	8d 46 38	 lea	 eax, DWORD PTR [esi+56]
  000b6	50		 push	 eax
  000b7	8d 4f 38	 lea	 ecx, DWORD PTR [edi+56]
  000ba	ff 15 00 00 00
	00		 call	 DWORD PTR __imp_??4?$CStringT@DV?$StrTraitMFC_DLL@DV?$ChTraitsCRT@D@ATL@@@@@ATL@@QAEAAV01@ABV01@@Z

; 87   : 		m_sPreVolume	= right.m_sPreVolume;

  000c0	8d 46 3c	 lea	 eax, DWORD PTR [esi+60]
  000c3	50		 push	 eax
  000c4	8d 4f 3c	 lea	 ecx, DWORD PTR [edi+60]
  000c7	ff 15 00 00 00
	00		 call	 DWORD PTR __imp_??4?$CStringT@DV?$StrTraitMFC_DLL@DV?$ChTraitsCRT@D@ATL@@@@@ATL@@QAEAAV01@ABV01@@Z

; 88   : 		m_sStartTime	= right.m_sStartTime;

  000cd	8d 46 40	 lea	 eax, DWORD PTR [esi+64]
  000d0	50		 push	 eax
  000d1	8d 4f 40	 lea	 ecx, DWORD PTR [edi+64]
  000d4	ff 15 00 00 00
	00		 call	 DWORD PTR __imp_??4?$CStringT@DV?$StrTraitMFC_DLL@DV?$ChTraitsCRT@D@ATL@@@@@ATL@@QAEAAV01@ABV01@@Z

; 89   : 		m_sFirstClose	= right.m_sFirstClose;

  000da	8d 46 44	 lea	 eax, DWORD PTR [esi+68]
  000dd	50		 push	 eax
  000de	8d 4f 44	 lea	 ecx, DWORD PTR [edi+68]
  000e1	ff 15 00 00 00
	00		 call	 DWORD PTR __imp_??4?$CStringT@DV?$StrTraitMFC_DLL@DV?$ChTraitsCRT@D@ATL@@@@@ATL@@QAEAAV01@ABV01@@Z

; 90   : 		m_sPreOpen		= right.m_sPreOpen;

  000e7	8d 46 48	 lea	 eax, DWORD PTR [esi+72]
  000ea	50		 push	 eax
  000eb	8d 4f 48	 lea	 ecx, DWORD PTR [edi+72]
  000ee	ff 15 00 00 00
	00		 call	 DWORD PTR __imp_??4?$CStringT@DV?$StrTraitMFC_DLL@DV?$ChTraitsCRT@D@ATL@@@@@ATL@@QAEAAV01@ABV01@@Z

; 91   : 		m_sPreHigh		= right.m_sPreHigh;

  000f4	8d 46 4c	 lea	 eax, DWORD PTR [esi+76]
  000f7	50		 push	 eax
  000f8	8d 4f 4c	 lea	 ecx, DWORD PTR [edi+76]
  000fb	ff 15 00 00 00
	00		 call	 DWORD PTR __imp_??4?$CStringT@DV?$StrTraitMFC_DLL@DV?$ChTraitsCRT@D@ATL@@@@@ATL@@QAEAAV01@ABV01@@Z

; 92   : 		m_sPreLow		= right.m_sPreLow;

  00101	8d 46 50	 lea	 eax, DWORD PTR [esi+80]
  00104	50		 push	 eax
  00105	8d 4f 50	 lea	 ecx, DWORD PTR [edi+80]
  00108	ff 15 00 00 00
	00		 call	 DWORD PTR __imp_??4?$CStringT@DV?$StrTraitMFC_DLL@DV?$ChTraitsCRT@D@ATL@@@@@ATL@@QAEAAV01@ABV01@@Z

; 93   : 		m_sWonDollor	= right.m_sWonDollor;

  0010e	8d 46 54	 lea	 eax, DWORD PTR [esi+84]
  00111	50		 push	 eax
  00112	8d 4f 54	 lea	 ecx, DWORD PTR [edi+84]
  00115	ff 15 00 00 00
	00		 call	 DWORD PTR __imp_??4?$CStringT@DV?$StrTraitMFC_DLL@DV?$ChTraitsCRT@D@ATL@@@@@ATL@@QAEAAV01@ABV01@@Z

; 94   : 		memcpy(sShcode, right.sShcode, sizeof(sShcode));

  0011b	0f 10 46 68	 movups	 xmm0, XMMWORD PTR [esi+104]

; 95   : 		lTick			= right.lTick;
; 96   : 		memcpy(sTerm, right.sTerm, sizeof(sTerm));
; 97   : 		memcpy(sNxtFlg, right.sNxtFlg, sizeof(sNxtFlg));
; 98   : 		memcpy(sDataType, right.sDataType, sizeof(sDataType));
; 99   : 		lPrice			= right.lPrice;
; 100  : 		lVolume			= right.lVolume;
; 101  : 		lUpLmtPrice		= right.lUpLmtPrice;
; 102  : 		lDnLmtPrice		= right.lDnLmtPrice;
; 103  : 		lOpen			= right.lOpen;
; 104  : 		lHigh			= right.lHigh;
; 105  : 		lLow			= right.lLow;
; 106  : 		lPreprice		= right.lPreprice;
; 107  : 		lPreVolume		= right.lPreVolume;
; 108  : 		lFirstClose		= right.lFirstClose;
; 109  : 		lPreOpen		= right.lPreOpen;
; 110  : 		lPreHigh		= right.lPreHigh;
; 111  : 		lPreLow			= right.lPreHigh;
; 112  : 		nMarket			= right.nMarket;
; 113  : 		lWonDollar		= right.lWonDollar;
; 114  : //vntsorl_20110420:[A00000410]      
; 115  : 		nPacketType		= right.nPacketType;
; 116  : 		m_sLastDataTime	= right.m_sLastDataTime;

  0011f	8d 8f c0 00 00
	00		 lea	 ecx, DWORD PTR [edi+192]
  00125	0f 11 47 68	 movups	 XMMWORD PTR [edi+104], xmm0
  00129	8b 46 78	 mov	 eax, DWORD PTR [esi+120]
  0012c	89 47 78	 mov	 DWORD PTR [edi+120], eax
  0012f	0f b6 46 7c	 movzx	 eax, BYTE PTR [esi+124]
  00133	88 47 7c	 mov	 BYTE PTR [edi+124], al
  00136	0f b6 46 7d	 movzx	 eax, BYTE PTR [esi+125]
  0013a	88 47 7d	 mov	 BYTE PTR [edi+125], al
  0013d	0f b6 46 7e	 movzx	 eax, BYTE PTR [esi+126]
  00141	88 47 7e	 mov	 BYTE PTR [edi+126], al
  00144	8b 86 80 00 00
	00		 mov	 eax, DWORD PTR [esi+128]
  0014a	89 87 80 00 00
	00		 mov	 DWORD PTR [edi+128], eax
  00150	8b 86 84 00 00
	00		 mov	 eax, DWORD PTR [esi+132]
  00156	89 87 84 00 00
	00		 mov	 DWORD PTR [edi+132], eax
  0015c	8b 86 88 00 00
	00		 mov	 eax, DWORD PTR [esi+136]
  00162	89 87 88 00 00
	00		 mov	 DWORD PTR [edi+136], eax
  00168	8b 86 8c 00 00
	00		 mov	 eax, DWORD PTR [esi+140]
  0016e	89 87 8c 00 00
	00		 mov	 DWORD PTR [edi+140], eax
  00174	8b 86 90 00 00
	00		 mov	 eax, DWORD PTR [esi+144]
  0017a	89 87 90 00 00
	00		 mov	 DWORD PTR [edi+144], eax
  00180	8b 86 94 00 00
	00		 mov	 eax, DWORD PTR [esi+148]
  00186	89 87 94 00 00
	00		 mov	 DWORD PTR [edi+148], eax
  0018c	8b 86 98 00 00
	00		 mov	 eax, DWORD PTR [esi+152]
  00192	89 87 98 00 00
	00		 mov	 DWORD PTR [edi+152], eax
  00198	8b 86 9c 00 00
	00		 mov	 eax, DWORD PTR [esi+156]
  0019e	89 87 9c 00 00
	00		 mov	 DWORD PTR [edi+156], eax
  001a4	8b 86 a0 00 00
	00		 mov	 eax, DWORD PTR [esi+160]
  001aa	89 87 a0 00 00
	00		 mov	 DWORD PTR [edi+160], eax
  001b0	8b 86 a4 00 00
	00		 mov	 eax, DWORD PTR [esi+164]
  001b6	89 87 a4 00 00
	00		 mov	 DWORD PTR [edi+164], eax
  001bc	8b 86 a8 00 00
	00		 mov	 eax, DWORD PTR [esi+168]
  001c2	89 87 a8 00 00
	00		 mov	 DWORD PTR [edi+168], eax
  001c8	8b 86 ac 00 00
	00		 mov	 eax, DWORD PTR [esi+172]
  001ce	89 87 ac 00 00
	00		 mov	 DWORD PTR [edi+172], eax
  001d4	8b 86 ac 00 00
	00		 mov	 eax, DWORD PTR [esi+172]
  001da	89 87 b0 00 00
	00		 mov	 DWORD PTR [edi+176], eax
  001e0	8b 86 b4 00 00
	00		 mov	 eax, DWORD PTR [esi+180]
  001e6	89 87 b4 00 00
	00		 mov	 DWORD PTR [edi+180], eax
  001ec	8b 86 b8 00 00
	00		 mov	 eax, DWORD PTR [esi+184]
  001f2	89 87 b8 00 00
	00		 mov	 DWORD PTR [edi+184], eax
  001f8	8b 86 bc 00 00
	00		 mov	 eax, DWORD PTR [esi+188]
  001fe	89 87 bc 00 00
	00		 mov	 DWORD PTR [edi+188], eax
  00204	8d 86 c0 00 00
	00		 lea	 eax, DWORD PTR [esi+192]
  0020a	50		 push	 eax
  0020b	ff 15 00 00 00
	00		 call	 DWORD PTR __imp_??4?$CStringT@DV?$StrTraitMFC_DLL@DV?$ChTraitsCRT@D@ATL@@@@@ATL@@QAEAAV01@ABV01@@Z

; 117  : 		m_sVolAmt		= right.m_sVolAmt;		//[A00000651][A00000652].

  00211	8d 46 58	 lea	 eax, DWORD PTR [esi+88]
  00214	50		 push	 eax
  00215	8d 4f 58	 lea	 ecx, DWORD PTR [edi+88]
  00218	ff 15 00 00 00
	00		 call	 DWORD PTR __imp_??4?$CStringT@DV?$StrTraitMFC_DLL@DV?$ChTraitsCRT@D@ATL@@@@@ATL@@QAEAAV01@ABV01@@Z

; 118  : 
; 119  : 		m_szMarketTime	= right.m_szMarketTime;;

  0021e	8d 46 60	 lea	 eax, DWORD PTR [esi+96]
  00221	50		 push	 eax
  00222	8d 4f 60	 lea	 ecx, DWORD PTR [edi+96]
  00225	ff 15 00 00 00
	00		 call	 DWORD PTR __imp_??4?$CStringT@DV?$StrTraitMFC_DLL@DV?$ChTraitsCRT@D@ATL@@@@@ATL@@QAEAAV01@ABV01@@Z

; 120  : 		m_szBaseTime	= right.m_szBaseTime;;

  0022b	8d 46 64	 lea	 eax, DWORD PTR [esi+100]
  0022e	50		 push	 eax
  0022f	8d 4f 64	 lea	 ecx, DWORD PTR [edi+100]
  00232	ff 15 00 00 00
	00		 call	 DWORD PTR __imp_??4?$CStringT@DV?$StrTraitMFC_DLL@DV?$ChTraitsCRT@D@ATL@@@@@ATL@@QAEAAV01@ABV01@@Z
  00238	5f		 pop	 edi
  00239	5e		 pop	 esi

; 121  : 
; 122  : 	};

  0023a	5d		 pop	 ebp
  0023b	c2 04 00	 ret	 4
?Copy@CChartBozoInput@@UAEXABV1@@Z ENDP			; CChartBozoInput::Copy
_TEXT	ENDS
; Function compile flags: /Ogtp
; File D:\git\src\IBK\IBK_DRFN\ProjSrc\SrcDrfn\Chart\commontr\TRDefine.h
;	COMDAT ??__ERMSG_GETSIGNAL_REAL@@YAXXZ
text$di	SEGMENT
??__ERMSG_GETSIGNAL_REAL@@YAXXZ PROC			; `dynamic initializer for 'RMSG_GETSIGNAL_REAL'', COMDAT

; 213  : const UINT RMSG_GETSIGNAL_REAL = ::RegisterWindowMessage(_T("RMSG_GETSIGNAL_REAL"));

  00000	68 00 00 00 00	 push	 OFFSET ??_C@_0BE@FJPKENOB@RMSG_GETSIGNAL_REAL@
  00005	ff 15 00 00 00
	00		 call	 DWORD PTR __imp__RegisterWindowMessageA@4
  0000b	a3 00 00 00 00	 mov	 DWORD PTR ?RMSG_GETSIGNAL_REAL@@3IB, eax
  00010	c3		 ret	 0
??__ERMSG_GETSIGNAL_REAL@@YAXXZ ENDP			; `dynamic initializer for 'RMSG_GETSIGNAL_REAL''
text$di	ENDS
; Function compile flags: /Ogtp
; File D:\git\src\IBK\IBK_DRFN\ProjSrc\SrcDrfn\inc\IBaseDefine.h
;	COMDAT ??__ERMSG_SETPCTRDATA@@YAXXZ
text$di	SEGMENT
??__ERMSG_SETPCTRDATA@@YAXXZ PROC			; `dynamic initializer for 'RMSG_SETPCTRDATA'', COMDAT

; 172  : const UINT RMSG_SETPCTRDATA = ::RegisterWindowMessage("RMSG_SETPCTRDATA");

  00000	68 00 00 00 00	 push	 OFFSET ??_C@_0BB@JPACFCL@RMSG_SETPCTRDATA@
  00005	ff 15 00 00 00
	00		 call	 DWORD PTR __imp__RegisterWindowMessageA@4
  0000b	a3 00 00 00 00	 mov	 DWORD PTR ?RMSG_SETPCTRDATA@@3IB, eax
  00010	c3		 ret	 0
??__ERMSG_SETPCTRDATA@@YAXXZ ENDP			; `dynamic initializer for 'RMSG_SETPCTRDATA''
text$di	ENDS
; Function compile flags: /Ogtp
; File D:\git\src\IBK\IBK_DRFN\ProjSrc\SrcDrfn\inc\IBaseDefine.h
;	COMDAT ??__ERMSG_GETPCTRDATA@@YAXXZ
text$di	SEGMENT
??__ERMSG_GETPCTRDATA@@YAXXZ PROC			; `dynamic initializer for 'RMSG_GETPCTRDATA'', COMDAT

; 171  : const UINT RMSG_GETPCTRDATA = ::RegisterWindowMessage("RMSG_GETPCTRDATA");

  00000	68 00 00 00 00	 push	 OFFSET ??_C@_0BB@GOOPDKI@RMSG_GETPCTRDATA@
  00005	ff 15 00 00 00
	00		 call	 DWORD PTR __imp__RegisterWindowMessageA@4
  0000b	a3 00 00 00 00	 mov	 DWORD PTR ?RMSG_GETPCTRDATA@@3IB, eax
  00010	c3		 ret	 0
??__ERMSG_GETPCTRDATA@@YAXXZ ENDP			; `dynamic initializer for 'RMSG_GETPCTRDATA''
text$di	ENDS
; Function compile flags: /Ogtp
; File D:\git\src\IBK\IBK_DRFN\ProjSrc\SrcDrfn\inc\IBaseDefine.h
;	COMDAT ??__ERMSG_INTERFACE@@YAXXZ
text$di	SEGMENT
??__ERMSG_INTERFACE@@YAXXZ PROC				; `dynamic initializer for 'RMSG_INTERFACE'', COMDAT

; 170  : const UINT RMSG_INTERFACE = ::RegisterWindowMessage("RMSG_INTERFACE");

  00000	68 00 00 00 00	 push	 OFFSET ??_C@_0P@BKKCOCLK@RMSG_INTERFACE@
  00005	ff 15 00 00 00
	00		 call	 DWORD PTR __imp__RegisterWindowMessageA@4
  0000b	a3 00 00 00 00	 mov	 DWORD PTR ?RMSG_INTERFACE@@3IB, eax
  00010	c3		 ret	 0
??__ERMSG_INTERFACE@@YAXXZ ENDP				; `dynamic initializer for 'RMSG_INTERFACE''
text$di	ENDS
; Function compile flags: /Ogtp
; File C:\Program Files (x86)\Windows Kits\10\Include\10.0.22000.0\ucrt\stdio.h
;	COMDAT _sprintf
_TEXT	SEGMENT
__Buffer$ = 8						; size = 4
__Format$ = 12						; size = 4
_sprintf PROC						; COMDAT

; 1771 :     {

  00000	55		 push	 ebp
  00001	8b ec		 mov	 ebp, esp

; 1392 :         int const _Result = __stdio_common_vsprintf(

  00003	8d 45 10	 lea	 eax, DWORD PTR __Format$[ebp+4]
  00006	50		 push	 eax
  00007	6a 00		 push	 0
  00009	ff 75 0c	 push	 DWORD PTR __Format$[ebp]
  0000c	6a ff		 push	 -1
  0000e	ff 75 08	 push	 DWORD PTR __Buffer$[ebp]
  00011	e8 00 00 00 00	 call	 ___local_stdio_printf_options
  00016	8b 08		 mov	 ecx, DWORD PTR [eax]
  00018	ff 70 04	 push	 DWORD PTR [eax+4]
  0001b	83 c9 01	 or	 ecx, 1
  0001e	51		 push	 ecx
  0001f	ff 15 00 00 00
	00		 call	 DWORD PTR __imp____stdio_common_vsprintf

; 1393 :             _CRT_INTERNAL_LOCAL_PRINTF_OPTIONS | _CRT_INTERNAL_PRINTF_LEGACY_VSPRINTF_NULL_TERMINATION,
; 1394 :             _Buffer, _BufferCount, _Format, _Locale, _ArgList);
; 1395 : 
; 1396 :         return _Result < 0 ? -1 : _Result;

  00025	83 c9 ff	 or	 ecx, -1
  00028	83 c4 1c	 add	 esp, 28			; 0000001cH
  0002b	85 c0		 test	 eax, eax
  0002d	0f 48 c1	 cmovs	 eax, ecx

; 1772 :         int _Result;
; 1773 :         va_list _ArgList;
; 1774 :         __crt_va_start(_ArgList, _Format);
; 1775 : 
; 1776 :         _Result = _vsprintf_l(_Buffer, _Format, NULL, _ArgList);
; 1777 : 
; 1778 :         __crt_va_end(_ArgList);
; 1779 :         return _Result;
; 1780 :     }

  00030	5d		 pop	 ebp
  00031	c3		 ret	 0
_sprintf ENDP
_TEXT	ENDS
; Function compile flags: /Ogtp
; File C:\Program Files (x86)\Windows Kits\10\Include\10.0.22000.0\ucrt\corecrt_stdio_config.h
;	COMDAT ___local_stdio_printf_options
_TEXT	SEGMENT
___local_stdio_printf_options PROC			; COMDAT

; 91   :         static unsigned __int64 _OptionsStorage;
; 92   :         return &_OptionsStorage;

  00000	b8 00 00 00 00	 mov	 eax, OFFSET ?_OptionsStorage@?1??__local_stdio_printf_options@@9@4_KA ; `__local_stdio_printf_options'::`2'::_OptionsStorage

; 93   :     }

  00005	c3		 ret	 0
___local_stdio_printf_options ENDP
_TEXT	ENDS
; Function compile flags: /Ogtp
; File D:\git\src\IBK\IBK_DRFN\ProjSrc\SrcDrfn\DrCommon\PartnerMng\ChartItemUpjong.cpp
;	COMDAT ?__empty_global_delete@@YAXPAXI@Z
_TEXT	SEGMENT
___formal$ = 8						; size = 4
___formal$ = 12						; size = 4
?__empty_global_delete@@YAXPAXI@Z PROC			; __empty_global_delete, COMDAT

  00000	c2 00 00	 ret	 0
?__empty_global_delete@@YAXPAXI@Z ENDP			; __empty_global_delete
_TEXT	ENDS
; Function compile flags: /Ogtp
; File D:\git\src\IBK\IBK_DRFN\ProjSrc\SrcDrfn\DrCommon\PartnerMng\ChartItemUpjong.cpp
;	COMDAT ?__empty_global_delete@@YAXPAX@Z
_TEXT	SEGMENT
___formal$ = 8						; size = 4
?__empty_global_delete@@YAXPAX@Z PROC			; __empty_global_delete, COMDAT

  00000	c2 00 00	 ret	 0
?__empty_global_delete@@YAXPAX@Z ENDP			; __empty_global_delete
_TEXT	ENDS
END
