; Listing generated by Microsoft (R) Optimizing Compiler Version 19.29.30145.0 

	TITLE	D:\git\src\IBK\IBK_DRFN\#DRfn-CS\_Obj\PartnerMng\ChartItemForeign.obj
	.686P
	.XMM
	include listing.inc
	.model	flat

INCLUDELIB MSVCRT
INCLUDELIB OLDNAMES

PUBLIC	?szTickRowFieldForeign@@3PAPADA			; szTickRowFieldForeign
PUBLIC	??_C@_06BHNJHBCC@104302@			; `string'
PUBLIC	??_C@_06FBHAMHBD@104034@			; `string'
PUBLIC	??_C@_06BPPDDLOD@104023@			; `string'
PUBLIC	??_C@_06OFBMNDGJ@104029@			; `string'
PUBLIC	??_C@_06DFBMACBH@104030@			; `string'
PUBLIC	??_C@_06CMAHDDFG@104031@			; `string'
PUBLIC	??_C@_06HCKGAJF@104032@				; `string'
PUBLIC	?szSecRowFieldForeign@@3PAPADA			; szSecRowFieldForeign
PUBLIC	?szMinRowFieldForeign@@3PAPADA			; szMinRowFieldForeign
PUBLIC	?szDayRowFieldForeign@@3PAPADA			; szDayRowFieldForeign
PUBLIC	??_C@_05OKOOMFAK@52302@				; `string'
PUBLIC	??_C@_05OCMEIPML@52023@				; `string'
PUBLIC	??_C@_05BICLGHEB@52029@				; `string'
PUBLIC	??_C@_05MICLLGDP@52030@				; `string'
PUBLIC	??_C@_05NBDAIHHO@52031@				; `string'
PUBLIC	??_C@_05IGKIEKMP@52027@				; `string'
PUBLIC	??_C@_0P@BKKCOCLK@RMSG_INTERFACE@		; `string'
PUBLIC	??_C@_0BB@GOOPDKI@RMSG_GETPCTRDATA@		; `string'
PUBLIC	??_C@_0BB@JPACFCL@RMSG_SETPCTRDATA@		; `string'
PUBLIC	??_C@_0BE@FJPKENOB@RMSG_GETSIGNAL_REAL@		; `string'
;	COMDAT ??_C@_0BE@FJPKENOB@RMSG_GETSIGNAL_REAL@
CONST	SEGMENT
??_C@_0BE@FJPKENOB@RMSG_GETSIGNAL_REAL@ DB 'RMSG_GETSIGNAL_REAL', 00H ; `string'
CONST	ENDS
;	COMDAT ??_C@_0BB@JPACFCL@RMSG_SETPCTRDATA@
CONST	SEGMENT
??_C@_0BB@JPACFCL@RMSG_SETPCTRDATA@ DB 'RMSG_SETPCTRDATA', 00H ; `string'
CONST	ENDS
;	COMDAT ??_C@_0BB@GOOPDKI@RMSG_GETPCTRDATA@
CONST	SEGMENT
??_C@_0BB@GOOPDKI@RMSG_GETPCTRDATA@ DB 'RMSG_GETPCTRDATA', 00H ; `string'
CONST	ENDS
;	COMDAT ??_C@_0P@BKKCOCLK@RMSG_INTERFACE@
CONST	SEGMENT
??_C@_0P@BKKCOCLK@RMSG_INTERFACE@ DB 'RMSG_INTERFACE', 00H ; `string'
CONST	ENDS
;	COMDAT ??_C@_05IGKIEKMP@52027@
CONST	SEGMENT
??_C@_05IGKIEKMP@52027@ DB '52027', 00H			; `string'
CONST	ENDS
;	COMDAT ??_C@_05NBDAIHHO@52031@
CONST	SEGMENT
??_C@_05NBDAIHHO@52031@ DB '52031', 00H			; `string'
CONST	ENDS
;	COMDAT ??_C@_05MICLLGDP@52030@
CONST	SEGMENT
??_C@_05MICLLGDP@52030@ DB '52030', 00H			; `string'
CONST	ENDS
;	COMDAT ??_C@_05BICLGHEB@52029@
CONST	SEGMENT
??_C@_05BICLGHEB@52029@ DB '52029', 00H			; `string'
CONST	ENDS
;	COMDAT ??_C@_05OCMEIPML@52023@
CONST	SEGMENT
??_C@_05OCMEIPML@52023@ DB '52023', 00H			; `string'
CONST	ENDS
;	COMDAT ??_C@_05OKOOMFAK@52302@
CONST	SEGMENT
??_C@_05OKOOMFAK@52302@ DB '52302', 00H			; `string'
CONST	ENDS
;	COMDAT ??_C@_06HCKGAJF@104032@
CONST	SEGMENT
??_C@_06HCKGAJF@104032@ DB '104032', 00H		; `string'
CONST	ENDS
;	COMDAT ??_C@_06CMAHDDFG@104031@
CONST	SEGMENT
??_C@_06CMAHDDFG@104031@ DB '104031', 00H		; `string'
CONST	ENDS
;	COMDAT ??_C@_06DFBMACBH@104030@
CONST	SEGMENT
??_C@_06DFBMACBH@104030@ DB '104030', 00H		; `string'
CONST	ENDS
;	COMDAT ??_C@_06OFBMNDGJ@104029@
CONST	SEGMENT
??_C@_06OFBMNDGJ@104029@ DB '104029', 00H		; `string'
CONST	ENDS
;	COMDAT ??_C@_06BPPDDLOD@104023@
CONST	SEGMENT
??_C@_06BPPDDLOD@104023@ DB '104023', 00H		; `string'
CONST	ENDS
;	COMDAT ??_C@_06FBHAMHBD@104034@
CONST	SEGMENT
??_C@_06FBHAMHBD@104034@ DB '104034', 00H		; `string'
CONST	ENDS
;	COMDAT ??_C@_06BHNJHBCC@104302@
CONST	SEGMENT
??_C@_06BHNJHBCC@104302@ DB '104302', 00H		; `string'
CONST	ENDS
_DATA	SEGMENT
?szTickRowFieldForeign@@3PAPADA DD FLAT:??_C@_06BHNJHBCC@104302@ ; szTickRowFieldForeign
	DD	FLAT:??_C@_06FBHAMHBD@104034@
	DD	FLAT:??_C@_06BPPDDLOD@104023@
	DD	FLAT:??_C@_06OFBMNDGJ@104029@
	DD	FLAT:??_C@_06DFBMACBH@104030@
	DD	FLAT:??_C@_06CMAHDDFG@104031@
	DD	FLAT:??_C@_06HCKGAJF@104032@
?szSecRowFieldForeign@@3PAPADA DD FLAT:??_C@_06BHNJHBCC@104302@ ; szSecRowFieldForeign
	DD	FLAT:??_C@_06FBHAMHBD@104034@
	DD	FLAT:??_C@_06BPPDDLOD@104023@
	DD	FLAT:??_C@_06OFBMNDGJ@104029@
	DD	FLAT:??_C@_06DFBMACBH@104030@
	DD	FLAT:??_C@_06CMAHDDFG@104031@
	DD	FLAT:??_C@_06HCKGAJF@104032@
?szMinRowFieldForeign@@3PAPADA DD FLAT:??_C@_06BHNJHBCC@104302@ ; szMinRowFieldForeign
	DD	FLAT:??_C@_06FBHAMHBD@104034@
	DD	FLAT:??_C@_06BPPDDLOD@104023@
	DD	FLAT:??_C@_06OFBMNDGJ@104029@
	DD	FLAT:??_C@_06DFBMACBH@104030@
	DD	FLAT:??_C@_06CMAHDDFG@104031@
	DD	FLAT:??_C@_06HCKGAJF@104032@
?szDayRowFieldForeign@@3PAPADA DD FLAT:??_C@_05OKOOMFAK@52302@ ; szDayRowFieldForeign
	DD	FLAT:??_C@_05OCMEIPML@52023@
	DD	FLAT:??_C@_05BICLGHEB@52029@
	DD	FLAT:??_C@_05MICLLGDP@52030@
	DD	FLAT:??_C@_05NBDAIHHO@52031@
	DD	FLAT:??_C@_05IGKIEKMP@52027@
_DATA	ENDS
PUBLIC	?__empty_global_delete@@YAXPAX@Z		; __empty_global_delete
PUBLIC	?__empty_global_delete@@YAXPAXI@Z		; __empty_global_delete
PUBLIC	___local_stdio_printf_options
PUBLIC	___local_stdio_scanf_options
PUBLIC	_sprintf
PUBLIC	_sscanf
PUBLIC	?Copy@CChartBozoInput@@UAEXABV1@@Z		; CChartBozoInput::Copy
PUBLIC	??4CChartBozoInput@@UAEAAV0@ABV0@@Z		; CChartBozoInput::operator=
PUBLIC	??1CChartBozoInput@@QAE@XZ			; CChartBozoInput::~CChartBozoInput
PUBLIC	??0CChartItemForeign@@QAE@XZ			; CChartItemForeign::CChartItemForeign
PUBLIC	??1CChartItemForeign@@UAE@XZ			; CChartItemForeign::~CChartItemForeign
PUBLIC	?SetInData@CChartItemForeign@@QAEXPAUKB_p0606_InRec1@@@Z ; CChartItemForeign::SetInData
PUBLIC	?Convert@CChartItemForeign@@QAE?AV?$CStringT@DV?$StrTraitMFC_DLL@DV?$ChTraitsCRT@D@ATL@@@@@ATL@@XZ ; CChartItemForeign::Convert
PUBLIC	?Convert2Struct@CChartItemForeign@@QAEPADPAEHHAAH@Z ; CChartItemForeign::Convert2Struct
PUBLIC	??_GCChartItemForeign@@UAEPAXI@Z		; CChartItemForeign::`scalar deleting destructor'
PUBLIC	?_OptionsStorage@?1??__local_stdio_printf_options@@9@4_KA ; `__local_stdio_printf_options'::`2'::_OptionsStorage
PUBLIC	?_OptionsStorage@?1??__local_stdio_scanf_options@@9@4_KA ; `__local_stdio_scanf_options'::`2'::_OptionsStorage
PUBLIC	??_C@_02DPKJAMEF@?$CFd@				; `string'
PUBLIC	??_C@_00CNPNBAHC@@				; `string'
PUBLIC	??_C@_0M@CBBNGGHM@PcTrMng?4dll@			; `string'
PUBLIC	??_C@_0P@IDMAJEGN@HANAROPCTRMAIN@		; `string'
PUBLIC	??_C@_06NDLAHCHE@?$CFs?$CF08X@			; `string'
PUBLIC	??_C@_02EMFKHFLK@?$CFX@				; `string'
PUBLIC	??_7CChartBozoInput@@6B@			; CChartBozoInput::`vftable'
PUBLIC	??_7CChartItemForeign@@6B@			; CChartItemForeign::`vftable'
PUBLIC	??_C@_05IGGDOMBJ@51301@				; `string'
PUBLIC	??_C@_0P@FLGGHACJ@99999999999999@		; `string'
PUBLIC	??_C@_06IPDGFDDC@?$DP52500@			; `string'
PUBLIC	??_C@_05LPDALGOC@52324@				; `string'
PUBLIC	??_C@_05OGIKHPIO@?$CF8?48s@			; `string'
PUBLIC	??_C@_05LMHPMEFK@51022@				; `string'
PUBLIC	??_C@_05KFGEPFBL@51023@				; `string'
PUBLIC	??_C@_05LFJHOEKM@51313@				; `string'
PUBLIC	??_C@_05OKCFGDNM@51024@				; `string'
PUBLIC	??_C@_05KEKGJPCM@51033@				; `string'
PUBLIC	??_C@_05MBAIDABP@51027@				; `string'
PUBLIC	??_C@_05FPILBNJB@51029@				; `string'
PUBLIC	??_C@_05IPILMMOP@51030@				; `string'
PUBLIC	??_C@_05JGJAPNKO@51031@				; `string'
PUBLIC	??_C@_04OBKAGHLG@?$CF06d@			; `string'
PUBLIC	??_C@_04PEJMDNKC@?$CF0?$CKd@			; `string'
PUBLIC	??_C@_04EBNJJJJI@?$CF?4?$CKs@			; `string'
PUBLIC	??_C@_04ODOGNJOP@?$CF05d@			; `string'
PUBLIC	??_C@_08LEDEEJEF@00000000@			; `string'
PUBLIC	??_C@_01GBGANLPD@0@				; `string'
PUBLIC	??_C@_01HIHLOKLC@1@				; `string'
PUBLIC	??_C@_01DHDKHMHF@6@				; `string'
PUBLIC	??_C@_04OHGLKFFN@?$CF03d@			; `string'
PUBLIC	??_R4CChartBozoInput@@6B@			; CChartBozoInput::`RTTI Complete Object Locator'
PUBLIC	??_R0?AVCChartBozoInput@@@8			; CChartBozoInput `RTTI Type Descriptor'
PUBLIC	??_R3CChartBozoInput@@8				; CChartBozoInput::`RTTI Class Hierarchy Descriptor'
PUBLIC	??_R2CChartBozoInput@@8				; CChartBozoInput::`RTTI Base Class Array'
PUBLIC	??_R1A@?0A@EA@CChartBozoInput@@8		; CChartBozoInput::`RTTI Base Class Descriptor at (0,-1,0,64)'
PUBLIC	??_R4CChartItemForeign@@6B@			; CChartItemForeign::`RTTI Complete Object Locator'
PUBLIC	??_R0?AVCChartItemForeign@@@8			; CChartItemForeign `RTTI Type Descriptor'
PUBLIC	??_R3CChartItemForeign@@8			; CChartItemForeign::`RTTI Class Hierarchy Descriptor'
PUBLIC	??_R2CChartItemForeign@@8			; CChartItemForeign::`RTTI Base Class Array'
PUBLIC	??_R1A@?0A@EA@CChartItemForeign@@8		; CChartItemForeign::`RTTI Base Class Descriptor at (0,-1,0,64)'
PUBLIC	__real@3ff0000000000000
PUBLIC	__xmm@20202020202020202020202020202020
PUBLIC	__xmm@7fffffffffffffff7fffffffffffffff
EXTRN	??3@YAXPAXI@Z:PROC				; operator delete
EXTRN	??_U@YAPAXI@Z:PROC				; operator new[]
EXTRN	__imp__GetEnvironmentVariableA@12:PROC
EXTRN	__imp__GetModuleHandleA@4:PROC
EXTRN	__imp__RegisterWindowMessageA@4:PROC
EXTRN	__imp__SendMessageA@16:PROC
EXTRN	__imp____stdio_common_vsprintf:PROC
EXTRN	__imp____stdio_common_vsscanf:PROC
EXTRN	__imp__atof:PROC
EXTRN	__imp__atoi:PROC
EXTRN	?AfxThrowInvalidArgException@@YGXXZ:PROC	; AfxThrowInvalidArgException
EXTRN	__imp_?Concatenate@?$CSimpleStringT@D$00@ATL@@KAXAAV12@PBDH1H@Z:PROC
EXTRN	__imp_??0?$CStringT@DV?$StrTraitMFC_DLL@DV?$ChTraitsCRT@D@ATL@@@@@ATL@@QAE@XZ:PROC
EXTRN	__imp_??0?$CStringT@DV?$StrTraitMFC_DLL@DV?$ChTraitsCRT@D@ATL@@@@@ATL@@QAE@PAUIAtlStringMgr@1@@Z:PROC
EXTRN	__imp_??0?$CStringT@DV?$StrTraitMFC_DLL@DV?$ChTraitsCRT@D@ATL@@@@@ATL@@QAE@ABV01@@Z:PROC
EXTRN	__imp_??0?$CStringT@DV?$StrTraitMFC_DLL@DV?$ChTraitsCRT@D@ATL@@@@@ATL@@QAE@PBD@Z:PROC
EXTRN	__imp_??0?$CStringT@DV?$StrTraitMFC_DLL@DV?$ChTraitsCRT@D@ATL@@@@@ATL@@QAE@DH@Z:PROC
EXTRN	__imp_??0?$CStringT@DV?$StrTraitMFC_DLL@DV?$ChTraitsCRT@D@ATL@@@@@ATL@@QAE@PBDH@Z:PROC
EXTRN	__imp_??1?$CStringT@DV?$StrTraitMFC_DLL@DV?$ChTraitsCRT@D@ATL@@@@@ATL@@QAE@XZ:PROC
EXTRN	__imp_??4?$CStringT@DV?$StrTraitMFC_DLL@DV?$ChTraitsCRT@D@ATL@@@@@ATL@@QAEAAV01@ABV01@@Z:PROC
EXTRN	__imp_??4?$CStringT@DV?$StrTraitMFC_DLL@DV?$ChTraitsCRT@D@ATL@@@@@ATL@@QAEAAV01@PBD@Z:PROC
EXTRN	__imp_??4?$CStringT@DV?$StrTraitMFC_DLL@DV?$ChTraitsCRT@D@ATL@@@@@ATL@@QAEAAV01@D@Z:PROC
EXTRN	__imp_??Y?$CStringT@DV?$StrTraitMFC_DLL@DV?$ChTraitsCRT@D@ATL@@@@@ATL@@QAEAAV01@ABV?$CSimpleStringT@D$00@1@@Z:PROC
EXTRN	__imp_??Y?$CStringT@DV?$StrTraitMFC_DLL@DV?$ChTraitsCRT@D@ATL@@@@@ATL@@QAEAAV01@PBD@Z:PROC
EXTRN	__imp_??Y?$CStringT@DV?$StrTraitMFC_DLL@DV?$ChTraitsCRT@D@ATL@@@@@ATL@@QAEAAV01@D@Z:PROC
EXTRN	__imp_?GetManager@?$CStringT@DV?$StrTraitMFC_DLL@DV?$ChTraitsCRT@D@ATL@@@@@ATL@@QBEPAUIAtlStringMgr@2@XZ:PROC
EXTRN	__imp_?Compare@?$CStringT@DV?$StrTraitMFC_DLL@DV?$ChTraitsCRT@D@ATL@@@@@ATL@@QBEHPBD@Z:PROC
EXTRN	__imp_?Remove@?$CStringT@DV?$StrTraitMFC_DLL@DV?$ChTraitsCRT@D@ATL@@@@@ATL@@QAEHD@Z:PROC
EXTRN	__imp_?TrimRight@?$CStringT@DV?$StrTraitMFC_DLL@DV?$ChTraitsCRT@D@ATL@@@@@ATL@@QAEAAV12@XZ:PROC
EXTRN	__imp_?TrimLeft@?$CStringT@DV?$StrTraitMFC_DLL@DV?$ChTraitsCRT@D@ATL@@@@@ATL@@QAEAAV12@XZ:PROC
EXTRN	__imp_?Mid@?$CStringT@DV?$StrTraitMFC_DLL@DV?$ChTraitsCRT@D@ATL@@@@@ATL@@QBE?AV12@H@Z:PROC
EXTRN	__imp_?Right@?$CStringT@DV?$StrTraitMFC_DLL@DV?$ChTraitsCRT@D@ATL@@@@@ATL@@QBE?AV12@H@Z:PROC
EXTRN	__imp_?Left@?$CStringT@DV?$StrTraitMFC_DLL@DV?$ChTraitsCRT@D@ATL@@@@@ATL@@QBE?AV12@H@Z:PROC
EXTRN	__imp_?Format@?$CStringT@DV?$StrTraitMFC_DLL@DV?$ChTraitsCRT@D@ATL@@@@@ATL@@QAAXPBDZZ:PROC
EXTRN	??0CStringArray@@QAE@XZ:PROC			; CStringArray::CStringArray
EXTRN	?SetAtGrow@CStringArray@@QAEXHABV?$CStringT@DV?$StrTraitMFC_DLL@DV?$ChTraitsCRT@D@ATL@@@@@ATL@@@Z:PROC ; CStringArray::SetAtGrow
EXTRN	??1CStringArray@@UAE@XZ:PROC			; CStringArray::~CStringArray
EXTRN	??_ECChartItemForeign@@UAEPAXI@Z:PROC		; CChartItemForeign::`vector deleting destructor'
EXTRN	?Parser@CDataConverter@@SA?AV?$CStringT@DV?$StrTraitMFC_DLL@DV?$ChTraitsCRT@D@ATL@@@@@ATL@@AAV23@V23@@Z:PROC ; CDataConverter::Parser
EXTRN	?Get_PercentData@CDataConverter@@SA?AV?$CStringT@DV?$StrTraitMFC_DLL@DV?$ChTraitsCRT@D@ATL@@@@@ATL@@PADNH@Z:PROC ; CDataConverter::Get_PercentData
EXTRN	?Char2String@CDataConverter@@SA?AV?$CStringT@DV?$StrTraitMFC_DLL@DV?$ChTraitsCRT@D@ATL@@@@@ATL@@PADH@Z:PROC ; CDataConverter::Char2String
EXTRN	?Char2Int@CDataConverter@@SAHPADH@Z:PROC	; CDataConverter::Char2Int
EXTRN	?GetChartBozoMsg@CChartBozoManager@@UAGHPBDPAVCChartBozoInput@@AAV?$CStringT@DV?$StrTraitMFC_DLL@DV?$ChTraitsCRT@D@ATL@@@@@ATL@@H@Z:PROC ; CChartBozoManager::GetChartBozoMsg
EXTRN	??0CChartBozoManager@@QAE@XZ:PROC		; CChartBozoManager::CChartBozoManager
EXTRN	@__security_check_cookie@4:PROC
EXTRN	___CxxFrameHandler3:PROC
EXTRN	_memcpy:PROC
EXTRN	_memset:PROC
EXTRN	??_7type_info@@6B@:QWORD			; type_info::`vftable'
EXTRN	___security_cookie:DWORD
EXTRN	__fltused:DWORD
;	COMDAT ?_OptionsStorage@?1??__local_stdio_printf_options@@9@4_KA
_BSS	SEGMENT
?_OptionsStorage@?1??__local_stdio_printf_options@@9@4_KA DQ 01H DUP (?) ; `__local_stdio_printf_options'::`2'::_OptionsStorage
_BSS	ENDS
;	COMDAT ?_OptionsStorage@?1??__local_stdio_scanf_options@@9@4_KA
_BSS	SEGMENT
?_OptionsStorage@?1??__local_stdio_scanf_options@@9@4_KA DQ 01H DUP (?) ; `__local_stdio_scanf_options'::`2'::_OptionsStorage
_BSS	ENDS
_BSS	SEGMENT
?RMSG_INTERFACE@@3IB DD 01H DUP (?)			; RMSG_INTERFACE
?RMSG_GETPCTRDATA@@3IB DD 01H DUP (?)			; RMSG_GETPCTRDATA
?RMSG_SETPCTRDATA@@3IB DD 01H DUP (?)			; RMSG_SETPCTRDATA
?RMSG_GETSIGNAL_REAL@@3IB DD 01H DUP (?)		; RMSG_GETSIGNAL_REAL
_BSS	ENDS
CRT$XCU	SEGMENT
?RMSG_INTERFACE$initializer$@@3P6AXXZA DD FLAT:??__ERMSG_INTERFACE@@YAXXZ ; RMSG_INTERFACE$initializer$
CRT$XCU	ENDS
;	COMDAT __xmm@7fffffffffffffff7fffffffffffffff
CONST	SEGMENT
__xmm@7fffffffffffffff7fffffffffffffff DB 0ffH, 0ffH, 0ffH, 0ffH, 0ffH, 0ffH
	DB	0ffH, 07fH, 0ffH, 0ffH, 0ffH, 0ffH, 0ffH, 0ffH, 0ffH, 07fH
CONST	ENDS
;	COMDAT __xmm@20202020202020202020202020202020
CONST	SEGMENT
__xmm@20202020202020202020202020202020 DB '                '
CONST	ENDS
;	COMDAT __real@3ff0000000000000
CONST	SEGMENT
__real@3ff0000000000000 DQ 03ff0000000000000r	; 1
CONST	ENDS
;	COMDAT ??_R1A@?0A@EA@CChartItemForeign@@8
rdata$r	SEGMENT
??_R1A@?0A@EA@CChartItemForeign@@8 DD FLAT:??_R0?AVCChartItemForeign@@@8 ; CChartItemForeign::`RTTI Base Class Descriptor at (0,-1,0,64)'
	DD	00H
	DD	00H
	DD	0ffffffffH
	DD	00H
	DD	040H
	DD	FLAT:??_R3CChartItemForeign@@8
rdata$r	ENDS
;	COMDAT ??_R2CChartItemForeign@@8
rdata$r	SEGMENT
??_R2CChartItemForeign@@8 DD FLAT:??_R1A@?0A@EA@CChartItemForeign@@8 ; CChartItemForeign::`RTTI Base Class Array'
rdata$r	ENDS
;	COMDAT ??_R3CChartItemForeign@@8
rdata$r	SEGMENT
??_R3CChartItemForeign@@8 DD 00H			; CChartItemForeign::`RTTI Class Hierarchy Descriptor'
	DD	00H
	DD	01H
	DD	FLAT:??_R2CChartItemForeign@@8
rdata$r	ENDS
;	COMDAT ??_R0?AVCChartItemForeign@@@8
data$rs	SEGMENT
??_R0?AVCChartItemForeign@@@8 DD FLAT:??_7type_info@@6B@ ; CChartItemForeign `RTTI Type Descriptor'
	DD	00H
	DB	'.?AVCChartItemForeign@@', 00H
data$rs	ENDS
;	COMDAT ??_R4CChartItemForeign@@6B@
rdata$r	SEGMENT
??_R4CChartItemForeign@@6B@ DD 00H			; CChartItemForeign::`RTTI Complete Object Locator'
	DD	00H
	DD	00H
	DD	FLAT:??_R0?AVCChartItemForeign@@@8
	DD	FLAT:??_R3CChartItemForeign@@8
rdata$r	ENDS
;	COMDAT ??_R1A@?0A@EA@CChartBozoInput@@8
rdata$r	SEGMENT
??_R1A@?0A@EA@CChartBozoInput@@8 DD FLAT:??_R0?AVCChartBozoInput@@@8 ; CChartBozoInput::`RTTI Base Class Descriptor at (0,-1,0,64)'
	DD	00H
	DD	00H
	DD	0ffffffffH
	DD	00H
	DD	040H
	DD	FLAT:??_R3CChartBozoInput@@8
rdata$r	ENDS
;	COMDAT ??_R2CChartBozoInput@@8
rdata$r	SEGMENT
??_R2CChartBozoInput@@8 DD FLAT:??_R1A@?0A@EA@CChartBozoInput@@8 ; CChartBozoInput::`RTTI Base Class Array'
rdata$r	ENDS
;	COMDAT ??_R3CChartBozoInput@@8
rdata$r	SEGMENT
??_R3CChartBozoInput@@8 DD 00H				; CChartBozoInput::`RTTI Class Hierarchy Descriptor'
	DD	00H
	DD	01H
	DD	FLAT:??_R2CChartBozoInput@@8
rdata$r	ENDS
;	COMDAT ??_R0?AVCChartBozoInput@@@8
data$rs	SEGMENT
??_R0?AVCChartBozoInput@@@8 DD FLAT:??_7type_info@@6B@	; CChartBozoInput `RTTI Type Descriptor'
	DD	00H
	DB	'.?AVCChartBozoInput@@', 00H
data$rs	ENDS
;	COMDAT ??_R4CChartBozoInput@@6B@
rdata$r	SEGMENT
??_R4CChartBozoInput@@6B@ DD 00H			; CChartBozoInput::`RTTI Complete Object Locator'
	DD	00H
	DD	00H
	DD	FLAT:??_R0?AVCChartBozoInput@@@8
	DD	FLAT:??_R3CChartBozoInput@@8
rdata$r	ENDS
;	COMDAT ??_C@_04OHGLKFFN@?$CF03d@
CONST	SEGMENT
??_C@_04OHGLKFFN@?$CF03d@ DB '%03d', 00H		; `string'
CONST	ENDS
;	COMDAT ??_C@_01DHDKHMHF@6@
CONST	SEGMENT
??_C@_01DHDKHMHF@6@ DB '6', 00H				; `string'
CONST	ENDS
;	COMDAT ??_C@_01HIHLOKLC@1@
CONST	SEGMENT
??_C@_01HIHLOKLC@1@ DB '1', 00H				; `string'
CONST	ENDS
;	COMDAT ??_C@_01GBGANLPD@0@
CONST	SEGMENT
??_C@_01GBGANLPD@0@ DB '0', 00H				; `string'
CONST	ENDS
;	COMDAT ??_C@_08LEDEEJEF@00000000@
CONST	SEGMENT
??_C@_08LEDEEJEF@00000000@ DB '00000000', 00H		; `string'
CONST	ENDS
;	COMDAT ??_C@_04ODOGNJOP@?$CF05d@
CONST	SEGMENT
??_C@_04ODOGNJOP@?$CF05d@ DB '%05d', 00H		; `string'
CONST	ENDS
;	COMDAT ??_C@_04EBNJJJJI@?$CF?4?$CKs@
CONST	SEGMENT
??_C@_04EBNJJJJI@?$CF?4?$CKs@ DB '%.*s', 00H		; `string'
CONST	ENDS
;	COMDAT ??_C@_04PEJMDNKC@?$CF0?$CKd@
CONST	SEGMENT
??_C@_04PEJMDNKC@?$CF0?$CKd@ DB '%0*d', 00H		; `string'
CONST	ENDS
;	COMDAT ??_C@_04OBKAGHLG@?$CF06d@
CONST	SEGMENT
??_C@_04OBKAGHLG@?$CF06d@ DB '%06d', 00H		; `string'
CONST	ENDS
;	COMDAT ??_C@_05JGJAPNKO@51031@
CONST	SEGMENT
??_C@_05JGJAPNKO@51031@ DB '51031', 00H			; `string'
CONST	ENDS
;	COMDAT ??_C@_05IPILMMOP@51030@
CONST	SEGMENT
??_C@_05IPILMMOP@51030@ DB '51030', 00H			; `string'
CONST	ENDS
;	COMDAT ??_C@_05FPILBNJB@51029@
CONST	SEGMENT
??_C@_05FPILBNJB@51029@ DB '51029', 00H			; `string'
CONST	ENDS
;	COMDAT ??_C@_05MBAIDABP@51027@
CONST	SEGMENT
??_C@_05MBAIDABP@51027@ DB '51027', 00H			; `string'
CONST	ENDS
;	COMDAT ??_C@_05KEKGJPCM@51033@
CONST	SEGMENT
??_C@_05KEKGJPCM@51033@ DB '51033', 00H			; `string'
CONST	ENDS
;	COMDAT ??_C@_05OKCFGDNM@51024@
CONST	SEGMENT
??_C@_05OKCFGDNM@51024@ DB '51024', 00H			; `string'
CONST	ENDS
;	COMDAT ??_C@_05LFJHOEKM@51313@
CONST	SEGMENT
??_C@_05LFJHOEKM@51313@ DB '51313', 00H			; `string'
CONST	ENDS
;	COMDAT ??_C@_05KFGEPFBL@51023@
CONST	SEGMENT
??_C@_05KFGEPFBL@51023@ DB '51023', 00H			; `string'
CONST	ENDS
;	COMDAT ??_C@_05LMHPMEFK@51022@
CONST	SEGMENT
??_C@_05LMHPMEFK@51022@ DB '51022', 00H			; `string'
CONST	ENDS
;	COMDAT ??_C@_05OGIKHPIO@?$CF8?48s@
CONST	SEGMENT
??_C@_05OGIKHPIO@?$CF8?48s@ DB '%8.8s', 00H		; `string'
CONST	ENDS
;	COMDAT ??_C@_05LPDALGOC@52324@
CONST	SEGMENT
??_C@_05LPDALGOC@52324@ DB '52324', 00H			; `string'
CONST	ENDS
;	COMDAT ??_C@_06IPDGFDDC@?$DP52500@
CONST	SEGMENT
??_C@_06IPDGFDDC@?$DP52500@ DB '?52500', 00H		; `string'
CONST	ENDS
;	COMDAT ??_C@_0P@FLGGHACJ@99999999999999@
CONST	SEGMENT
??_C@_0P@FLGGHACJ@99999999999999@ DB '99999999999999', 00H ; `string'
CONST	ENDS
;	COMDAT ??_C@_05IGGDOMBJ@51301@
CONST	SEGMENT
??_C@_05IGGDOMBJ@51301@ DB '51301', 00H			; `string'
CONST	ENDS
;	COMDAT ??_7CChartItemForeign@@6B@
CONST	SEGMENT
??_7CChartItemForeign@@6B@ DD FLAT:??_R4CChartItemForeign@@6B@ ; CChartItemForeign::`vftable'
	DD	FLAT:??_ECChartItemForeign@@UAEPAXI@Z
CONST	ENDS
;	COMDAT ??_7CChartBozoInput@@6B@
CONST	SEGMENT
??_7CChartBozoInput@@6B@ DD FLAT:??_R4CChartBozoInput@@6B@ ; CChartBozoInput::`vftable'
	DD	FLAT:?Copy@CChartBozoInput@@UAEXABV1@@Z
	DD	FLAT:??4CChartBozoInput@@UAEAAV0@ABV0@@Z
CONST	ENDS
;	COMDAT ??_C@_02EMFKHFLK@?$CFX@
CONST	SEGMENT
??_C@_02EMFKHFLK@?$CFX@ DB '%X', 00H			; `string'
CONST	ENDS
;	COMDAT ??_C@_06NDLAHCHE@?$CFs?$CF08X@
CONST	SEGMENT
??_C@_06NDLAHCHE@?$CFs?$CF08X@ DB '%s%08X', 00H		; `string'
CONST	ENDS
;	COMDAT ??_C@_0P@IDMAJEGN@HANAROPCTRMAIN@
CONST	SEGMENT
??_C@_0P@IDMAJEGN@HANAROPCTRMAIN@ DB 'HANAROPCTRMAIN', 00H ; `string'
CONST	ENDS
;	COMDAT ??_C@_0M@CBBNGGHM@PcTrMng?4dll@
CONST	SEGMENT
??_C@_0M@CBBNGGHM@PcTrMng?4dll@ DB 'PcTrMng.dll', 00H	; `string'
CONST	ENDS
;	COMDAT ??_C@_00CNPNBAHC@@
CONST	SEGMENT
??_C@_00CNPNBAHC@@ DB 00H				; `string'
CONST	ENDS
;	COMDAT ??_C@_02DPKJAMEF@?$CFd@
CONST	SEGMENT
??_C@_02DPKJAMEF@?$CFd@ DB '%d', 00H			; `string'
CONST	ENDS
;	COMDAT xdata$x
xdata$x	SEGMENT
__ehfuncinfo$?Convert2Struct@CChartItemForeign@@QAEPADPAEHHAAH@Z DD 019930522H
	DD	036H
	DD	FLAT:__unwindtable$?Convert2Struct@CChartItemForeign@@QAEPADPAEHHAAH@Z
	DD	2 DUP(00H)
	DD	2 DUP(00H)
	DD	00H
	DD	01H
__unwindtable$?Convert2Struct@CChartItemForeign@@QAEPADPAEHHAAH@Z DD 0ffffffffH
	DD	FLAT:__unwindfunclet$?Convert2Struct@CChartItemForeign@@QAEPADPAEHHAAH@Z$0
	DD	00H
	DD	FLAT:__unwindfunclet$?Convert2Struct@CChartItemForeign@@QAEPADPAEHHAAH@Z$1
	DD	01H
	DD	FLAT:__unwindfunclet$?Convert2Struct@CChartItemForeign@@QAEPADPAEHHAAH@Z$2
	DD	02H
	DD	FLAT:__unwindfunclet$?Convert2Struct@CChartItemForeign@@QAEPADPAEHHAAH@Z$3
	DD	03H
	DD	FLAT:__unwindfunclet$?Convert2Struct@CChartItemForeign@@QAEPADPAEHHAAH@Z$4
	DD	04H
	DD	FLAT:__unwindfunclet$?Convert2Struct@CChartItemForeign@@QAEPADPAEHHAAH@Z$5
	DD	05H
	DD	FLAT:__unwindfunclet$?Convert2Struct@CChartItemForeign@@QAEPADPAEHHAAH@Z$6
	DD	06H
	DD	FLAT:__unwindfunclet$?Convert2Struct@CChartItemForeign@@QAEPADPAEHHAAH@Z$7
	DD	07H
	DD	FLAT:__unwindfunclet$?Convert2Struct@CChartItemForeign@@QAEPADPAEHHAAH@Z$8
	DD	08H
	DD	FLAT:__unwindfunclet$?Convert2Struct@CChartItemForeign@@QAEPADPAEHHAAH@Z$9
	DD	09H
	DD	FLAT:__unwindfunclet$?Convert2Struct@CChartItemForeign@@QAEPADPAEHHAAH@Z$10
	DD	0aH
	DD	FLAT:__unwindfunclet$?Convert2Struct@CChartItemForeign@@QAEPADPAEHHAAH@Z$11
	DD	0bH
	DD	FLAT:__unwindfunclet$?Convert2Struct@CChartItemForeign@@QAEPADPAEHHAAH@Z$12
	DD	0cH
	DD	FLAT:__unwindfunclet$?Convert2Struct@CChartItemForeign@@QAEPADPAEHHAAH@Z$13
	DD	0dH
	DD	FLAT:__unwindfunclet$?Convert2Struct@CChartItemForeign@@QAEPADPAEHHAAH@Z$14
	DD	0eH
	DD	FLAT:__unwindfunclet$?Convert2Struct@CChartItemForeign@@QAEPADPAEHHAAH@Z$16
	DD	0eH
	DD	FLAT:__unwindfunclet$?Convert2Struct@CChartItemForeign@@QAEPADPAEHHAAH@Z$18
	DD	0eH
	DD	FLAT:__unwindfunclet$?Convert2Struct@CChartItemForeign@@QAEPADPAEHHAAH@Z$20
	DD	0eH
	DD	FLAT:__unwindfunclet$?Convert2Struct@CChartItemForeign@@QAEPADPAEHHAAH@Z$22
	DD	0eH
	DD	FLAT:__unwindfunclet$?Convert2Struct@CChartItemForeign@@QAEPADPAEHHAAH@Z$24
	DD	0eH
	DD	FLAT:__unwindfunclet$?Convert2Struct@CChartItemForeign@@QAEPADPAEHHAAH@Z$25
	DD	0eH
	DD	FLAT:__unwindfunclet$?Convert2Struct@CChartItemForeign@@QAEPADPAEHHAAH@Z$27
	DD	0eH
	DD	FLAT:__unwindfunclet$?Convert2Struct@CChartItemForeign@@QAEPADPAEHHAAH@Z$29
	DD	0eH
	DD	FLAT:__unwindfunclet$?Convert2Struct@CChartItemForeign@@QAEPADPAEHHAAH@Z$31
	DD	0eH
	DD	FLAT:__unwindfunclet$?Convert2Struct@CChartItemForeign@@QAEPADPAEHHAAH@Z$33
	DD	0eH
	DD	FLAT:__unwindfunclet$?Convert2Struct@CChartItemForeign@@QAEPADPAEHHAAH@Z$35
	DD	0eH
	DD	FLAT:__unwindfunclet$?Convert2Struct@CChartItemForeign@@QAEPADPAEHHAAH@Z$37
	DD	01aH
	DD	FLAT:__unwindfunclet$?Convert2Struct@CChartItemForeign@@QAEPADPAEHHAAH@Z$38
	DD	01aH
	DD	FLAT:__unwindfunclet$?Convert2Struct@CChartItemForeign@@QAEPADPAEHHAAH@Z$39
	DD	01aH
	DD	FLAT:__unwindfunclet$?Convert2Struct@CChartItemForeign@@QAEPADPAEHHAAH@Z$40
	DD	01aH
	DD	FLAT:__unwindfunclet$?Convert2Struct@CChartItemForeign@@QAEPADPAEHHAAH@Z$41
	DD	01eH
	DD	FLAT:__unwindfunclet$?Convert2Struct@CChartItemForeign@@QAEPADPAEHHAAH@Z$43
	DD	01eH
	DD	FLAT:__unwindfunclet$?Convert2Struct@CChartItemForeign@@QAEPADPAEHHAAH@Z$44
	DD	020H
	DD	FLAT:__unwindfunclet$?Convert2Struct@CChartItemForeign@@QAEPADPAEHHAAH@Z$45
	DD	021H
	DD	FLAT:__unwindfunclet$?Convert2Struct@CChartItemForeign@@QAEPADPAEHHAAH@Z$66
	DD	021H
	DD	FLAT:__unwindfunclet$?Convert2Struct@CChartItemForeign@@QAEPADPAEHHAAH@Z$46
	DD	023H
	DD	FLAT:__unwindfunclet$?Convert2Struct@CChartItemForeign@@QAEPADPAEHHAAH@Z$67
	DD	021H
	DD	FLAT:__unwindfunclet$?Convert2Struct@CChartItemForeign@@QAEPADPAEHHAAH@Z$48
	DD	025H
	DD	FLAT:__unwindfunclet$?Convert2Struct@CChartItemForeign@@QAEPADPAEHHAAH@Z$49
	DD	026H
	DD	FLAT:__unwindfunclet$?Convert2Struct@CChartItemForeign@@QAEPADPAEHHAAH@Z$68
	DD	021H
	DD	FLAT:__unwindfunclet$?Convert2Struct@CChartItemForeign@@QAEPADPAEHHAAH@Z$51
	DD	021H
	DD	FLAT:__unwindfunclet$?Convert2Struct@CChartItemForeign@@QAEPADPAEHHAAH@Z$52
	DD	029H
	DD	FLAT:__unwindfunclet$?Convert2Struct@CChartItemForeign@@QAEPADPAEHHAAH@Z$53
	DD	02aH
	DD	FLAT:__unwindfunclet$?Convert2Struct@CChartItemForeign@@QAEPADPAEHHAAH@Z$69
	DD	021H
	DD	FLAT:__unwindfunclet$?Convert2Struct@CChartItemForeign@@QAEPADPAEHHAAH@Z$55
	DD	021H
	DD	FLAT:__unwindfunclet$?Convert2Struct@CChartItemForeign@@QAEPADPAEHHAAH@Z$56
	DD	02dH
	DD	FLAT:__unwindfunclet$?Convert2Struct@CChartItemForeign@@QAEPADPAEHHAAH@Z$57
	DD	02dH
	DD	FLAT:__unwindfunclet$?Convert2Struct@CChartItemForeign@@QAEPADPAEHHAAH@Z$58
	DD	02dH
	DD	FLAT:__unwindfunclet$?Convert2Struct@CChartItemForeign@@QAEPADPAEHHAAH@Z$59
	DD	02dH
	DD	FLAT:__unwindfunclet$?Convert2Struct@CChartItemForeign@@QAEPADPAEHHAAH@Z$60
	DD	021H
	DD	FLAT:__unwindfunclet$?Convert2Struct@CChartItemForeign@@QAEPADPAEHHAAH@Z$61
	DD	021H
	DD	FLAT:__unwindfunclet$?Convert2Struct@CChartItemForeign@@QAEPADPAEHHAAH@Z$62
	DD	021H
	DD	FLAT:__unwindfunclet$?Convert2Struct@CChartItemForeign@@QAEPADPAEHHAAH@Z$63
	DD	021H
	DD	FLAT:__unwindfunclet$?Convert2Struct@CChartItemForeign@@QAEPADPAEHHAAH@Z$64
xdata$x	ENDS
;	COMDAT xdata$x
xdata$x	SEGMENT
__ehfuncinfo$?Convert@CChartItemForeign@@QAE?AV?$CStringT@DV?$StrTraitMFC_DLL@DV?$ChTraitsCRT@D@ATL@@@@@ATL@@XZ DD 019930522H
	DD	0eH
	DD	FLAT:__unwindtable$?Convert@CChartItemForeign@@QAE?AV?$CStringT@DV?$StrTraitMFC_DLL@DV?$ChTraitsCRT@D@ATL@@@@@ATL@@XZ
	DD	2 DUP(00H)
	DD	2 DUP(00H)
	DD	00H
	DD	01H
__unwindtable$?Convert@CChartItemForeign@@QAE?AV?$CStringT@DV?$StrTraitMFC_DLL@DV?$ChTraitsCRT@D@ATL@@@@@ATL@@XZ DD 0ffffffffH
	DD	FLAT:__unwindfunclet$?Convert@CChartItemForeign@@QAE?AV?$CStringT@DV?$StrTraitMFC_DLL@DV?$ChTraitsCRT@D@ATL@@@@@ATL@@XZ$1
	DD	00H
	DD	FLAT:__unwindfunclet$?Convert@CChartItemForeign@@QAE?AV?$CStringT@DV?$StrTraitMFC_DLL@DV?$ChTraitsCRT@D@ATL@@@@@ATL@@XZ$2
	DD	01H
	DD	FLAT:__unwindfunclet$?Convert@CChartItemForeign@@QAE?AV?$CStringT@DV?$StrTraitMFC_DLL@DV?$ChTraitsCRT@D@ATL@@@@@ATL@@XZ$3
	DD	02H
	DD	FLAT:__unwindfunclet$?Convert@CChartItemForeign@@QAE?AV?$CStringT@DV?$StrTraitMFC_DLL@DV?$ChTraitsCRT@D@ATL@@@@@ATL@@XZ$4
	DD	03H
	DD	FLAT:__unwindfunclet$?Convert@CChartItemForeign@@QAE?AV?$CStringT@DV?$StrTraitMFC_DLL@DV?$ChTraitsCRT@D@ATL@@@@@ATL@@XZ$5
	DD	03H
	DD	FLAT:__unwindfunclet$?Convert@CChartItemForeign@@QAE?AV?$CStringT@DV?$StrTraitMFC_DLL@DV?$ChTraitsCRT@D@ATL@@@@@ATL@@XZ$6
	DD	03H
	DD	FLAT:__unwindfunclet$?Convert@CChartItemForeign@@QAE?AV?$CStringT@DV?$StrTraitMFC_DLL@DV?$ChTraitsCRT@D@ATL@@@@@ATL@@XZ$7
	DD	03H
	DD	FLAT:__unwindfunclet$?Convert@CChartItemForeign@@QAE?AV?$CStringT@DV?$StrTraitMFC_DLL@DV?$ChTraitsCRT@D@ATL@@@@@ATL@@XZ$8
	DD	03H
	DD	FLAT:__unwindfunclet$?Convert@CChartItemForeign@@QAE?AV?$CStringT@DV?$StrTraitMFC_DLL@DV?$ChTraitsCRT@D@ATL@@@@@ATL@@XZ$9
	DD	03H
	DD	FLAT:__unwindfunclet$?Convert@CChartItemForeign@@QAE?AV?$CStringT@DV?$StrTraitMFC_DLL@DV?$ChTraitsCRT@D@ATL@@@@@ATL@@XZ$10
	DD	09H
	DD	FLAT:__unwindfunclet$?Convert@CChartItemForeign@@QAE?AV?$CStringT@DV?$StrTraitMFC_DLL@DV?$ChTraitsCRT@D@ATL@@@@@ATL@@XZ$11
	DD	0aH
	DD	FLAT:__unwindfunclet$?Convert@CChartItemForeign@@QAE?AV?$CStringT@DV?$StrTraitMFC_DLL@DV?$ChTraitsCRT@D@ATL@@@@@ATL@@XZ$12
	DD	0bH
	DD	FLAT:__unwindfunclet$?Convert@CChartItemForeign@@QAE?AV?$CStringT@DV?$StrTraitMFC_DLL@DV?$ChTraitsCRT@D@ATL@@@@@ATL@@XZ$13
	DD	0cH
	DD	FLAT:__unwindfunclet$?Convert@CChartItemForeign@@QAE?AV?$CStringT@DV?$StrTraitMFC_DLL@DV?$ChTraitsCRT@D@ATL@@@@@ATL@@XZ$14
xdata$x	ENDS
;	COMDAT xdata$x
xdata$x	SEGMENT
__unwindtable$?AfxGetPctrInterface@@YGJH@Z DD 0ffffffffH
	DD	FLAT:__unwindfunclet$?AfxGetPctrInterface@@YGJH@Z$0
__ehfuncinfo$?AfxGetPctrInterface@@YGJH@Z DD 019930522H
	DD	01H
	DD	FLAT:__unwindtable$?AfxGetPctrInterface@@YGJH@Z
	DD	2 DUP(00H)
	DD	2 DUP(00H)
	DD	00H
	DD	01H
xdata$x	ENDS
;	COMDAT xdata$x
xdata$x	SEGMENT
__unwindtable$??HATL@@YA?AV?$CStringT@DV?$StrTraitMFC_DLL@DV?$ChTraitsCRT@D@ATL@@@@@0@ABV10@0@Z DD 0ffffffffH
	DD	FLAT:__unwindfunclet$??HATL@@YA?AV?$CStringT@DV?$StrTraitMFC_DLL@DV?$ChTraitsCRT@D@ATL@@@@@0@ABV10@0@Z$0
__ehfuncinfo$??HATL@@YA?AV?$CStringT@DV?$StrTraitMFC_DLL@DV?$ChTraitsCRT@D@ATL@@@@@0@ABV10@0@Z DD 019930522H
	DD	01H
	DD	FLAT:__unwindtable$??HATL@@YA?AV?$CStringT@DV?$StrTraitMFC_DLL@DV?$ChTraitsCRT@D@ATL@@@@@0@ABV10@0@Z
	DD	2 DUP(00H)
	DD	2 DUP(00H)
	DD	00H
	DD	01H
xdata$x	ENDS
CRT$XCU	SEGMENT
?RMSG_GETPCTRDATA$initializer$@@3P6AXXZA DD FLAT:??__ERMSG_GETPCTRDATA@@YAXXZ ; RMSG_GETPCTRDATA$initializer$
CRT$XCU	ENDS
CRT$XCU	SEGMENT
?RMSG_SETPCTRDATA$initializer$@@3P6AXXZA DD FLAT:??__ERMSG_SETPCTRDATA@@YAXXZ ; RMSG_SETPCTRDATA$initializer$
CRT$XCU	ENDS
CRT$XCU	SEGMENT
?RMSG_GETSIGNAL_REAL$initializer$@@3P6AXXZA DD FLAT:??__ERMSG_GETSIGNAL_REAL@@YAXXZ ; RMSG_GETSIGNAL_REAL$initializer$
CRT$XCU	ENDS
; Function compile flags: /Ogtp
; File D:\git\src\IBK\IBK_DRFN\ProjSrc\SrcDrfn\DrCommon\PartnerMng\ChartItemForeign.cpp
;	COMDAT ??_GCChartItemForeign@@UAEPAXI@Z
_TEXT	SEGMENT
___flags$ = 8						; size = 4
??_GCChartItemForeign@@UAEPAXI@Z PROC			; CChartItemForeign::`scalar deleting destructor', COMDAT
; _this$ = ecx
  00000	55		 push	 ebp
  00001	8b ec		 mov	 ebp, esp

; 38   : {

  00003	56		 push	 esi
  00004	8b f1		 mov	 esi, ecx

; 39   : 
; 40   : }

  00006	8d 4e 44	 lea	 ecx, DWORD PTR [esi+68]
  00009	c7 06 00 00 00
	00		 mov	 DWORD PTR [esi], OFFSET ??_7CChartItemForeign@@6B@
  0000f	e8 00 00 00 00	 call	 ??1CChartBozoInput@@QAE@XZ
  00014	f6 45 08 01	 test	 BYTE PTR ___flags$[ebp], 1
  00018	74 0e		 je	 SHORT $LN7@scalar
  0001a	68 10 01 00 00	 push	 272			; 00000110H
  0001f	56		 push	 esi
  00020	e8 00 00 00 00	 call	 ??3@YAXPAXI@Z		; operator delete
  00025	83 c4 08	 add	 esp, 8
$LN7@scalar:
  00028	8b c6		 mov	 eax, esi
  0002a	5e		 pop	 esi
  0002b	5d		 pop	 ebp
  0002c	c2 04 00	 ret	 4
??_GCChartItemForeign@@UAEPAXI@Z ENDP			; CChartItemForeign::`scalar deleting destructor'
_TEXT	ENDS
; Function compile flags: /Ogtp
; File D:\git\src\IBK\IBK_DRFN\ProjSrc\SrcDrfn\DrCommon\PartnerMng\ChartItemForeign.cpp
; File C:\Program Files (x86)\Microsoft Visual Studio\2019\Community\VC\Tools\MSVC\14.29.30133\atlmfc\include\atlsimpstr.h
; File D:\git\src\IBK\IBK_DRFN\ProjSrc\SrcDrfn\DrCommon\PartnerMng\ChartItemForeign.cpp
; File C:\Program Files (x86)\Microsoft Visual Studio\2019\Community\VC\Tools\MSVC\14.29.30133\atlmfc\include\atlsimpstr.h
; File D:\git\src\IBK\IBK_DRFN\ProjSrc\SrcDrfn\DrCommon\PartnerMng\ChartItemForeign.cpp
; File C:\Program Files (x86)\Microsoft Visual Studio\2019\Community\VC\Tools\MSVC\14.29.30133\atlmfc\include\atlsimpstr.h
; File D:\git\src\IBK\IBK_DRFN\ProjSrc\SrcDrfn\DrCommon\PartnerMng\ChartItemForeign.cpp
; File C:\Program Files (x86)\Microsoft Visual Studio\2019\Community\VC\Tools\MSVC\14.29.30133\atlmfc\include\atlsimpstr.h
; File D:\git\src\IBK\IBK_DRFN\ProjSrc\SrcDrfn\DrCommon\PartnerMng\ChartItemForeign.cpp
; File C:\Program Files (x86)\Microsoft Visual Studio\2019\Community\VC\Tools\MSVC\14.29.30133\atlmfc\include\atlsimpstr.h
; File D:\git\src\IBK\IBK_DRFN\ProjSrc\SrcDrfn\DrCommon\PartnerMng\ChartItemForeign.cpp
; File C:\Program Files (x86)\Microsoft Visual Studio\2019\Community\VC\Tools\MSVC\14.29.30133\atlmfc\include\atlsimpstr.h
; File D:\git\src\IBK\IBK_DRFN\ProjSrc\SrcDrfn\DrCommon\PartnerMng\ChartItemForeign.cpp
; File C:\Program Files (x86)\Microsoft Visual Studio\2019\Community\VC\Tools\MSVC\14.29.30133\atlmfc\include\atlsimpstr.h
; File D:\git\src\IBK\IBK_DRFN\ProjSrc\SrcDrfn\DrCommon\PartnerMng\ChartItemForeign.cpp
; File C:\Program Files (x86)\Microsoft Visual Studio\2019\Community\VC\Tools\MSVC\14.29.30133\atlmfc\include\atlsimpstr.h
; File D:\git\src\IBK\IBK_DRFN\ProjSrc\SrcDrfn\DrCommon\PartnerMng\ChartItemForeign.cpp
; File C:\Program Files (x86)\Microsoft Visual Studio\2019\Community\VC\Tools\MSVC\14.29.30133\atlmfc\include\atlsimpstr.h
; File D:\git\src\IBK\IBK_DRFN\ProjSrc\SrcDrfn\DrCommon\PartnerMng\ChartItemForeign.cpp
; File C:\Program Files (x86)\Microsoft Visual Studio\2019\Community\VC\Tools\MSVC\14.29.30133\atlmfc\include\atlsimpstr.h
; File D:\git\src\IBK\IBK_DRFN\ProjSrc\SrcDrfn\DrCommon\PartnerMng\ChartItemForeign.cpp
; File C:\Program Files (x86)\Microsoft Visual Studio\2019\Community\VC\Tools\MSVC\14.29.30133\atlmfc\include\atlsimpstr.h
; File D:\git\src\IBK\IBK_DRFN\ProjSrc\SrcDrfn\DrCommon\PartnerMng\ChartItemForeign.cpp
; File C:\Program Files (x86)\Microsoft Visual Studio\2019\Community\VC\Tools\MSVC\14.29.30133\atlmfc\include\cstringt.h
; File D:\git\src\IBK\IBK_DRFN\ProjSrc\SrcDrfn\DrCommon\PartnerMng\ChartItemForeign.cpp
; File C:\Program Files (x86)\Microsoft Visual Studio\2019\Community\VC\Tools\MSVC\14.29.30133\atlmfc\include\atlsimpstr.h
; File D:\git\src\IBK\IBK_DRFN\ProjSrc\SrcDrfn\DrCommon\PartnerMng\ChartItemForeign.cpp
; File C:\Program Files (x86)\Microsoft Visual Studio\2019\Community\VC\Tools\MSVC\14.29.30133\atlmfc\include\atlsimpstr.h
; File D:\git\src\IBK\IBK_DRFN\ProjSrc\SrcDrfn\DrCommon\PartnerMng\ChartItemForeign.cpp
; File C:\Program Files (x86)\Microsoft Visual Studio\2019\Community\VC\Tools\MSVC\14.29.30133\atlmfc\include\atlsimpstr.h
; File D:\git\src\IBK\IBK_DRFN\ProjSrc\SrcDrfn\DrCommon\PartnerMng\ChartItemForeign.cpp
; File C:\Program Files (x86)\Microsoft Visual Studio\2019\Community\VC\Tools\MSVC\14.29.30133\atlmfc\include\atlsimpstr.h
; File D:\git\src\IBK\IBK_DRFN\ProjSrc\SrcDrfn\DrCommon\PartnerMng\ChartItemForeign.cpp
; File C:\Program Files (x86)\Microsoft Visual Studio\2019\Community\VC\Tools\MSVC\14.29.30133\atlmfc\include\afxcoll.inl
; File C:\Program Files (x86)\Microsoft Visual Studio\2019\Community\VC\Tools\MSVC\14.29.30133\atlmfc\include\atlsimpstr.h
; File D:\git\src\IBK\IBK_DRFN\ProjSrc\SrcDrfn\DrCommon\PartnerMng\ChartItemForeign.cpp
; File D:\git\src\IBK\IBK_DRFN\ProjSrc\SrcDrfn\inc\IBaseDefine.h
; File D:\git\src\IBK\IBK_DRFN\ProjSrc\SrcDrfn\DrCommon\PartnerMng\ChartItemForeign.cpp
; File D:\git\src\IBK\IBK_DRFN\ProjSrc\SrcDrfn\inc\IBaseDefine.h
; File D:\git\src\IBK\IBK_DRFN\ProjSrc\SrcDrfn\DrCommon\PartnerMng\ChartItemForeign.cpp
; File C:\Program Files (x86)\Microsoft Visual Studio\2019\Community\VC\Tools\MSVC\14.29.30133\atlmfc\include\afxcoll.inl
; File D:\git\src\IBK\IBK_DRFN\ProjSrc\SrcDrfn\DrCommon\PartnerMng\ChartItemForeign.cpp
; File C:\Program Files (x86)\Microsoft Visual Studio\2019\Community\VC\Tools\MSVC\14.29.30133\atlmfc\include\afxcoll.inl
; File D:\git\src\IBK\IBK_DRFN\ProjSrc\SrcDrfn\DrCommon\PartnerMng\ChartItemForeign.cpp
; File C:\Program Files (x86)\Microsoft Visual Studio\2019\Community\VC\Tools\MSVC\14.29.30133\atlmfc\include\afxcoll.inl
; File D:\git\src\IBK\IBK_DRFN\ProjSrc\SrcDrfn\DrCommon\PartnerMng\ChartItemForeign.cpp
; File C:\Program Files (x86)\Microsoft Visual Studio\2019\Community\VC\Tools\MSVC\14.29.30133\atlmfc\include\afxcoll.inl
; File D:\git\src\IBK\IBK_DRFN\ProjSrc\SrcDrfn\DrCommon\PartnerMng\ChartItemForeign.cpp
; File C:\Program Files (x86)\Microsoft Visual Studio\2019\Community\VC\Tools\MSVC\14.29.30133\atlmfc\include\cstringt.h
; File D:\git\src\IBK\IBK_DRFN\ProjSrc\SrcDrfn\DrCommon\PartnerMng\ChartItemForeign.cpp
; File C:\Program Files (x86)\Microsoft Visual Studio\2019\Community\VC\Tools\MSVC\14.29.30133\atlmfc\include\cstringt.h
; File C:\Program Files (x86)\Microsoft Visual Studio\2019\Community\VC\Tools\MSVC\14.29.30133\atlmfc\include\atlsimpstr.h
; File C:\Program Files (x86)\Microsoft Visual Studio\2019\Community\VC\Tools\MSVC\14.29.30133\atlmfc\include\cstringt.h
; File C:\Program Files (x86)\Microsoft Visual Studio\2019\Community\VC\Tools\MSVC\14.29.30133\atlmfc\include\atlsimpstr.h
; File C:\Program Files (x86)\Microsoft Visual Studio\2019\Community\VC\Tools\MSVC\14.29.30133\atlmfc\include\cstringt.h
; File D:\git\src\IBK\IBK_DRFN\ProjSrc\SrcDrfn\DrCommon\PartnerMng\ChartItemForeign.cpp
; File C:\Program Files (x86)\Microsoft Visual Studio\2019\Community\VC\Tools\MSVC\14.29.30133\atlmfc\include\cstringt.h
; File D:\git\src\IBK\IBK_DRFN\ProjSrc\SrcDrfn\DrCommon\PartnerMng\ChartItemForeign.cpp
; File C:\Program Files (x86)\Microsoft Visual Studio\2019\Community\VC\Tools\MSVC\14.29.30133\atlmfc\include\cstringt.h
; File C:\Program Files (x86)\Microsoft Visual Studio\2019\Community\VC\Tools\MSVC\14.29.30133\atlmfc\include\atlsimpstr.h
; File C:\Program Files (x86)\Microsoft Visual Studio\2019\Community\VC\Tools\MSVC\14.29.30133\atlmfc\include\cstringt.h
; File C:\Program Files (x86)\Microsoft Visual Studio\2019\Community\VC\Tools\MSVC\14.29.30133\atlmfc\include\atlsimpstr.h
; File C:\Program Files (x86)\Microsoft Visual Studio\2019\Community\VC\Tools\MSVC\14.29.30133\atlmfc\include\cstringt.h
; File D:\git\src\IBK\IBK_DRFN\ProjSrc\SrcDrfn\DrCommon\PartnerMng\ChartItemForeign.cpp
; File C:\Program Files (x86)\Microsoft Visual Studio\2019\Community\VC\Tools\MSVC\14.29.30133\atlmfc\include\cstringt.h
; File D:\git\src\IBK\IBK_DRFN\ProjSrc\SrcDrfn\DrCommon\PartnerMng\ChartItemForeign.cpp
; File C:\Program Files (x86)\Microsoft Visual Studio\2019\Community\VC\Tools\MSVC\14.29.30133\atlmfc\include\cstringt.h
; File C:\Program Files (x86)\Microsoft Visual Studio\2019\Community\VC\Tools\MSVC\14.29.30133\atlmfc\include\atlsimpstr.h
; File C:\Program Files (x86)\Microsoft Visual Studio\2019\Community\VC\Tools\MSVC\14.29.30133\atlmfc\include\cstringt.h
; File C:\Program Files (x86)\Microsoft Visual Studio\2019\Community\VC\Tools\MSVC\14.29.30133\atlmfc\include\atlsimpstr.h
; File C:\Program Files (x86)\Microsoft Visual Studio\2019\Community\VC\Tools\MSVC\14.29.30133\atlmfc\include\cstringt.h
; File D:\git\src\IBK\IBK_DRFN\ProjSrc\SrcDrfn\DrCommon\PartnerMng\ChartItemForeign.cpp
; File C:\Program Files (x86)\Microsoft Visual Studio\2019\Community\VC\Tools\MSVC\14.29.30133\atlmfc\include\atlsimpstr.h
; File D:\git\src\IBK\IBK_DRFN\ProjSrc\SrcDrfn\DrCommon\PartnerMng\ChartItemForeign.cpp
; File C:\Program Files (x86)\Microsoft Visual Studio\2019\Community\VC\Tools\MSVC\14.29.30133\atlmfc\include\atlsimpstr.h
; File D:\git\src\IBK\IBK_DRFN\ProjSrc\SrcDrfn\DrCommon\PartnerMng\ChartItemForeign.cpp
; File C:\Program Files (x86)\Microsoft Visual Studio\2019\Community\VC\Tools\MSVC\14.29.30133\atlmfc\include\afxcoll.inl
; File D:\git\src\IBK\IBK_DRFN\ProjSrc\SrcDrfn\DrCommon\PartnerMng\ChartItemForeign.cpp
; File C:\Program Files (x86)\Microsoft Visual Studio\2019\Community\VC\Tools\MSVC\14.29.30133\atlmfc\include\afxcoll.inl
; File D:\git\src\IBK\IBK_DRFN\ProjSrc\SrcDrfn\DrCommon\PartnerMng\ChartItemForeign.cpp
; File C:\Program Files (x86)\Microsoft Visual Studio\2019\Community\VC\Tools\MSVC\14.29.30133\atlmfc\include\atlsimpstr.h
; File D:\git\src\IBK\IBK_DRFN\ProjSrc\SrcDrfn\DrCommon\PartnerMng\ChartItemForeign.cpp
; File C:\Program Files (x86)\Microsoft Visual Studio\2019\Community\VC\Tools\MSVC\14.29.30133\atlmfc\include\atlsimpstr.h
; File D:\git\src\IBK\IBK_DRFN\ProjSrc\SrcDrfn\DrCommon\PartnerMng\ChartItemForeign.cpp
; File C:\Program Files (x86)\Microsoft Visual Studio\2019\Community\VC\Tools\MSVC\14.29.30133\atlmfc\include\afxcoll.inl
; File D:\git\src\IBK\IBK_DRFN\ProjSrc\SrcDrfn\DrCommon\PartnerMng\ChartItemForeign.cpp
; File C:\Program Files (x86)\Microsoft Visual Studio\2019\Community\VC\Tools\MSVC\14.29.30133\atlmfc\include\afxcoll.inl
; File D:\git\src\IBK\IBK_DRFN\ProjSrc\SrcDrfn\DrCommon\PartnerMng\ChartItemForeign.cpp
; File C:\Program Files (x86)\Microsoft Visual Studio\2019\Community\VC\Tools\MSVC\14.29.30133\atlmfc\include\atlsimpstr.h
; File D:\git\src\IBK\IBK_DRFN\ProjSrc\SrcDrfn\DrCommon\PartnerMng\ChartItemForeign.cpp
; File C:\Program Files (x86)\Microsoft Visual Studio\2019\Community\VC\Tools\MSVC\14.29.30133\atlmfc\include\atlsimpstr.h
; File D:\git\src\IBK\IBK_DRFN\ProjSrc\SrcDrfn\DrCommon\PartnerMng\ChartItemForeign.cpp
; File C:\Program Files (x86)\Microsoft Visual Studio\2019\Community\VC\Tools\MSVC\14.29.30133\atlmfc\include\afxcoll.inl
; File D:\git\src\IBK\IBK_DRFN\ProjSrc\SrcDrfn\DrCommon\PartnerMng\ChartItemForeign.cpp
; File C:\Program Files (x86)\Microsoft Visual Studio\2019\Community\VC\Tools\MSVC\14.29.30133\atlmfc\include\afxcoll.inl
; File D:\git\src\IBK\IBK_DRFN\ProjSrc\SrcDrfn\DrCommon\PartnerMng\ChartItemForeign.cpp
; File C:\Program Files (x86)\Microsoft Visual Studio\2019\Community\VC\Tools\MSVC\14.29.30133\atlmfc\include\atlsimpstr.h
; File D:\git\src\IBK\IBK_DRFN\ProjSrc\SrcDrfn\DrCommon\PartnerMng\ChartItemForeign.cpp
; File C:\Program Files (x86)\Microsoft Visual Studio\2019\Community\VC\Tools\MSVC\14.29.30133\atlmfc\include\atlsimpstr.h
; File D:\git\src\IBK\IBK_DRFN\ProjSrc\SrcDrfn\DrCommon\PartnerMng\ChartItemForeign.cpp
; File C:\Program Files (x86)\Microsoft Visual Studio\2019\Community\VC\Tools\MSVC\14.29.30133\atlmfc\include\afxcoll.inl
; File D:\git\src\IBK\IBK_DRFN\ProjSrc\SrcDrfn\DrCommon\PartnerMng\ChartItemForeign.cpp
; File C:\Program Files (x86)\Microsoft Visual Studio\2019\Community\VC\Tools\MSVC\14.29.30133\atlmfc\include\afxcoll.inl
; File D:\git\src\IBK\IBK_DRFN\ProjSrc\SrcDrfn\DrCommon\PartnerMng\ChartItemForeign.cpp
; File C:\Program Files (x86)\Microsoft Visual Studio\2019\Community\VC\Tools\MSVC\14.29.30133\atlmfc\include\atlsimpstr.h
; File D:\git\src\IBK\IBK_DRFN\ProjSrc\SrcDrfn\DrCommon\PartnerMng\ChartItemForeign.cpp
; File C:\Program Files (x86)\Microsoft Visual Studio\2019\Community\VC\Tools\MSVC\14.29.30133\atlmfc\include\atlsimpstr.h
; File D:\git\src\IBK\IBK_DRFN\ProjSrc\SrcDrfn\DrCommon\PartnerMng\ChartItemForeign.cpp
; File C:\Program Files (x86)\Microsoft Visual Studio\2019\Community\VC\Tools\MSVC\14.29.30133\atlmfc\include\afxcoll.inl
; File D:\git\src\IBK\IBK_DRFN\ProjSrc\SrcDrfn\DrCommon\PartnerMng\ChartItemForeign.cpp
; File C:\Program Files (x86)\Microsoft Visual Studio\2019\Community\VC\Tools\MSVC\14.29.30133\atlmfc\include\afxcoll.inl
; File D:\git\src\IBK\IBK_DRFN\ProjSrc\SrcDrfn\DrCommon\PartnerMng\ChartItemForeign.cpp
; File C:\Program Files (x86)\Microsoft Visual Studio\2019\Community\VC\Tools\MSVC\14.29.30133\atlmfc\include\atlsimpstr.h
; File D:\git\src\IBK\IBK_DRFN\ProjSrc\SrcDrfn\DrCommon\PartnerMng\ChartItemForeign.cpp
; File C:\Program Files (x86)\Microsoft Visual Studio\2019\Community\VC\Tools\MSVC\14.29.30133\atlmfc\include\atlsimpstr.h
; File D:\git\src\IBK\IBK_DRFN\ProjSrc\SrcDrfn\DrCommon\PartnerMng\ChartItemForeign.cpp
; File C:\Program Files (x86)\Microsoft Visual Studio\2019\Community\VC\Tools\MSVC\14.29.30133\atlmfc\include\atlsimpstr.h
; File D:\git\src\IBK\IBK_DRFN\ProjSrc\SrcDrfn\DrCommon\PartnerMng\ChartItemForeign.cpp
; File C:\Program Files (x86)\Microsoft Visual Studio\2019\Community\VC\Tools\MSVC\14.29.30133\atlmfc\include\atlsimpstr.h
; File D:\git\src\IBK\IBK_DRFN\ProjSrc\SrcDrfn\DrCommon\PartnerMng\ChartItemForeign.cpp
; File C:\Program Files (x86)\Microsoft Visual Studio\2019\Community\VC\Tools\MSVC\14.29.30133\atlmfc\include\atlsimpstr.h
; File D:\git\src\IBK\IBK_DRFN\ProjSrc\SrcDrfn\DrCommon\PartnerMng\ChartItemForeign.cpp
; File C:\Program Files (x86)\Microsoft Visual Studio\2019\Community\VC\Tools\MSVC\14.29.30133\atlmfc\include\atlsimpstr.h
; File D:\git\src\IBK\IBK_DRFN\ProjSrc\SrcDrfn\DrCommon\PartnerMng\ChartItemForeign.cpp
; File C:\Program Files (x86)\Microsoft Visual Studio\2019\Community\VC\Tools\MSVC\14.29.30133\atlmfc\include\afxcoll.inl
; File D:\git\src\IBK\IBK_DRFN\ProjSrc\SrcDrfn\DrCommon\PartnerMng\ChartItemForeign.cpp
;	COMDAT ?Convert2Struct@CChartItemForeign@@QAEPADPAEHHAAH@Z
_TEXT	SEGMENT
_dDenom$2 = -940					; size = 8
_strLock$ = -936					; size = 4
_strHighLimit$ = -932					; size = 4
_strLowLimit$ = -928					; size = 4
_strBozo$ = -924					; size = 4
_bojoMng$ = -920					; size = 4
$T3 = -916						; size = 4
$T4 = -912						; size = 4
$T5 = -908						; size = 4
_dPrePrice$1$ = -904					; size = 8
$T6 = -900						; size = 4
$T7 = -900						; size = 4
_strPreHigh$ = -896					; size = 4
_strPreLow$ = -892					; size = 4
_strPreOpen$ = -888					; size = 4
_szKey$ = -884						; size = 4
_arrNode$ = -880					; size = 20
$T8 = -860						; size = 4
$T9 = -856						; size = 4
$T10 = -852						; size = 4
_strVolume$ = -848					; size = 4
_strCode$ = -844					; size = 4
_pDataBuf$1$ = -840					; size = 4
tv2585 = -836						; size = 8
tv2580 = -836						; size = 8
_dwRate$ = -836						; size = 8
$T11 = -832						; size = 4
$T12 = -832						; size = 4
_strHigh$ = -828					; size = 4
_strLow$ = -824						; size = 4
_strNextKey$ = -820					; size = 4
_nCnt$1$ = -816						; size = 4
_dDenom$1$ = -812					; size = 8
tv2409 = -808						; size = 4
_strOpen$ = -804					; size = 4
_strTime$ = -800					; size = 4
_this$GSCopy$1$ = -796					; size = 4
_nType$1$ = -792					; size = 4
_strPrePrice$ = -788					; size = 4
_strDate$ = -784					; size = 4
_nIndex$1$ = -780					; size = 4
_szClipFormat$13 = -780					; size = 4
_nDataLen$GSCopy$1$ = -776				; size = 4
_nRow$2$ = -776						; size = 4
$T14 = -776						; size = 4
_strPrice$ = -772					; size = 4
_nPrice$1$ = -768					; size = 4
$T15 = -768						; size = 4
$T16 = -768						; size = 4
$T17 = -768						; size = 4
$T18 = -768						; size = 4
$T19 = -768						; size = 4
_strSrc$ = -764						; size = 4
$T20 = -760						; size = 4
_strData$21 = -760					; size = 4
_strNode$ = -756					; size = 4
_nRow$1$ = -752						; size = 4
_nSize$1$ = -752					; size = 4
tv2433 = -752						; size = 4
_hMainWnd$22 = -752					; size = 4
$T23 = -752						; size = 4
$T24 = -752						; size = 4
$T25 = -752						; size = 4
$T26 = -752						; size = 4
$T27 = -752						; size = 4
$T28 = -752						; size = 4
$T29 = -752						; size = 4
$T30 = -752						; size = 4
$T31 = -752						; size = 4
$T32 = -752						; size = 4
$T33 = -752						; size = 4
$T34 = -752						; size = 4
$T35 = -752						; size = 4
$T36 = -752						; size = 4
$T37 = -752						; size = 4
_stOut$ = -748						; size = 520
_stFirstBong$ = -228					; size = 58
_stBong$38 = -168					; size = 78
_stBong$ = -88						; size = 58
tv2590 = -28						; size = 8
_aBufWnd$39 = -28					; size = 9
_nFirstClose$1$ = -24					; size = 4
$T40 = -24						; size = 4
$T41 = -24						; size = 4
$T42 = -24						; size = 4
__$ArrayPad$ = -16					; size = 4
__$EHRec$ = -12						; size = 12
_pData$ = 8						; size = 4
_nLen$ = 12						; size = 4
_nKey$ = 16						; size = 4
_nDataLen$ = 20						; size = 4
?Convert2Struct@CChartItemForeign@@QAEPADPAEHHAAH@Z PROC ; CChartItemForeign::Convert2Struct, COMDAT
; _this$ = ecx

; 323  : {

  00000	55		 push	 ebp
  00001	8b ec		 mov	 ebp, esp
  00003	6a ff		 push	 -1
  00005	68 00 00 00 00	 push	 __ehhandler$?Convert2Struct@CChartItemForeign@@QAEPADPAEHHAAH@Z
  0000a	64 a1 00 00 00
	00		 mov	 eax, DWORD PTR fs:0
  00010	50		 push	 eax
  00011	81 ec a0 03 00
	00		 sub	 esp, 928		; 000003a0H
  00017	a1 00 00 00 00	 mov	 eax, DWORD PTR ___security_cookie
  0001c	33 c5		 xor	 eax, ebp
  0001e	89 45 f0	 mov	 DWORD PTR __$ArrayPad$[ebp], eax
  00021	56		 push	 esi
  00022	57		 push	 edi
  00023	50		 push	 eax
  00024	8d 45 f4	 lea	 eax, DWORD PTR __$EHRec$[ebp]
  00027	64 a3 00 00 00
	00		 mov	 DWORD PTR fs:0, eax
  0002d	89 8d e4 fc ff
	ff		 mov	 DWORD PTR _this$GSCopy$1$[ebp], ecx
  00033	8b 45 14	 mov	 eax, DWORD PTR _nDataLen$[ebp]

; 324  : 	KB_p0606_OutRec1_EX stOut;
; 325  : 	CString strSrc;

  00036	8d 8d 04 fd ff
	ff		 lea	 ecx, DWORD PTR _strSrc$[ebp]
  0003c	8b 75 08	 mov	 esi, DWORD PTR _pData$[ebp]
  0003f	33 ff		 xor	 edi, edi
  00041	89 85 f8 fc ff
	ff		 mov	 DWORD PTR _nDataLen$GSCopy$1$[ebp], eax
  00047	89 bd 08 fd ff
	ff		 mov	 DWORD PTR $T20[ebp], edi
  0004d	89 bd ac fc ff
	ff		 mov	 DWORD PTR $T10[ebp], edi
  00053	ff 15 00 00 00
	00		 call	 DWORD PTR __imp_??0?$CStringT@DV?$StrTraitMFC_DLL@DV?$ChTraitsCRT@D@ATL@@@@@ATL@@QAE@XZ

; 326  : 	strSrc.Format(_T("%.*s"), nLen, (char*)pData);

  00059	56		 push	 esi
  0005a	ff 75 0c	 push	 DWORD PTR _nLen$[ebp]
  0005d	8d 85 04 fd ff
	ff		 lea	 eax, DWORD PTR _strSrc$[ebp]
  00063	89 7d fc	 mov	 DWORD PTR __$EHRec$[ebp+8], edi
  00066	68 00 00 00 00	 push	 OFFSET ??_C@_04EBNJJJJI@?$CF?4?$CKs@
  0006b	50		 push	 eax
  0006c	ff 15 00 00 00
	00		 call	 DWORD PTR __imp_?Format@?$CStringT@DV?$StrTraitMFC_DLL@DV?$ChTraitsCRT@D@ATL@@@@@ATL@@QAAXPBDZZ
  00072	83 c4 10	 add	 esp, 16			; 00000010H

; 327  : 	CString strNode, strCode, strLock;

  00075	8d 8d 0c fd ff
	ff		 lea	 ecx, DWORD PTR _strNode$[ebp]
  0007b	ff 15 00 00 00
	00		 call	 DWORD PTR __imp_??0?$CStringT@DV?$StrTraitMFC_DLL@DV?$ChTraitsCRT@D@ATL@@@@@ATL@@QAE@XZ
  00081	8d 8d b4 fc ff
	ff		 lea	 ecx, DWORD PTR _strCode$[ebp]
  00087	ff 15 00 00 00
	00		 call	 DWORD PTR __imp_??0?$CStringT@DV?$StrTraitMFC_DLL@DV?$ChTraitsCRT@D@ATL@@@@@ATL@@QAE@XZ
  0008d	8d 8d 58 fc ff
	ff		 lea	 ecx, DWORD PTR _strLock$[ebp]
  00093	ff 15 00 00 00
	00		 call	 DWORD PTR __imp_??0?$CStringT@DV?$StrTraitMFC_DLL@DV?$ChTraitsCRT@D@ATL@@@@@ATL@@QAE@XZ

; 328  : 	CString strPrice, strPrePrice, strVolume;

  00099	8d 8d fc fc ff
	ff		 lea	 ecx, DWORD PTR _strPrice$[ebp]
  0009f	ff 15 00 00 00
	00		 call	 DWORD PTR __imp_??0?$CStringT@DV?$StrTraitMFC_DLL@DV?$ChTraitsCRT@D@ATL@@@@@ATL@@QAE@XZ
  000a5	8d 8d ec fc ff
	ff		 lea	 ecx, DWORD PTR _strPrePrice$[ebp]
  000ab	ff 15 00 00 00
	00		 call	 DWORD PTR __imp_??0?$CStringT@DV?$StrTraitMFC_DLL@DV?$ChTraitsCRT@D@ATL@@@@@ATL@@QAE@XZ
  000b1	8d 8d b0 fc ff
	ff		 lea	 ecx, DWORD PTR _strVolume$[ebp]
  000b7	ff 15 00 00 00
	00		 call	 DWORD PTR __imp_??0?$CStringT@DV?$StrTraitMFC_DLL@DV?$ChTraitsCRT@D@ATL@@@@@ATL@@QAE@XZ

; 329  : 	CString strHigh, strLow, strOpen, strHighLimit, strLowLimit;

  000bd	8d 8d c4 fc ff
	ff		 lea	 ecx, DWORD PTR _strHigh$[ebp]
  000c3	ff 15 00 00 00
	00		 call	 DWORD PTR __imp_??0?$CStringT@DV?$StrTraitMFC_DLL@DV?$ChTraitsCRT@D@ATL@@@@@ATL@@QAE@XZ
  000c9	8d 8d c8 fc ff
	ff		 lea	 ecx, DWORD PTR _strLow$[ebp]
  000cf	ff 15 00 00 00
	00		 call	 DWORD PTR __imp_??0?$CStringT@DV?$StrTraitMFC_DLL@DV?$ChTraitsCRT@D@ATL@@@@@ATL@@QAE@XZ
  000d5	8d 8d dc fc ff
	ff		 lea	 ecx, DWORD PTR _strOpen$[ebp]
  000db	ff 15 00 00 00
	00		 call	 DWORD PTR __imp_??0?$CStringT@DV?$StrTraitMFC_DLL@DV?$ChTraitsCRT@D@ATL@@@@@ATL@@QAE@XZ
  000e1	8d 8d 5c fc ff
	ff		 lea	 ecx, DWORD PTR _strHighLimit$[ebp]
  000e7	ff 15 00 00 00
	00		 call	 DWORD PTR __imp_??0?$CStringT@DV?$StrTraitMFC_DLL@DV?$ChTraitsCRT@D@ATL@@@@@ATL@@QAE@XZ
  000ed	8d 8d 60 fc ff
	ff		 lea	 ecx, DWORD PTR _strLowLimit$[ebp]
  000f3	ff 15 00 00 00
	00		 call	 DWORD PTR __imp_??0?$CStringT@DV?$StrTraitMFC_DLL@DV?$ChTraitsCRT@D@ATL@@@@@ATL@@QAE@XZ

; 330  : 	CString strPreHigh, strPreLow, strPreOpen;

  000f9	8d 8d 80 fc ff
	ff		 lea	 ecx, DWORD PTR _strPreHigh$[ebp]
  000ff	ff 15 00 00 00
	00		 call	 DWORD PTR __imp_??0?$CStringT@DV?$StrTraitMFC_DLL@DV?$ChTraitsCRT@D@ATL@@@@@ATL@@QAE@XZ
  00105	8d 8d 84 fc ff
	ff		 lea	 ecx, DWORD PTR _strPreLow$[ebp]
  0010b	ff 15 00 00 00
	00		 call	 DWORD PTR __imp_??0?$CStringT@DV?$StrTraitMFC_DLL@DV?$ChTraitsCRT@D@ATL@@@@@ATL@@QAE@XZ
  00111	8d 8d 88 fc ff
	ff		 lea	 ecx, DWORD PTR _strPreOpen$[ebp]
  00117	ff 15 00 00 00
	00		 call	 DWORD PTR __imp_??0?$CStringT@DV?$StrTraitMFC_DLL@DV?$ChTraitsCRT@D@ATL@@@@@ATL@@QAE@XZ

; 331  : 
; 332  : 	memset(&stOut, 0x20, sizeof(stOut));

  0011d	68 08 02 00 00	 push	 520			; 00000208H
  00122	8d 85 14 fd ff
	ff		 lea	 eax, DWORD PTR _stOut$[ebp]
  00128	c6 45 fc 0e	 mov	 BYTE PTR __$EHRec$[ebp+8], 14 ; 0000000eH
  0012c	6a 20		 push	 32			; 00000020H
  0012e	50		 push	 eax
  0012f	e8 00 00 00 00	 call	 _memset

; 333  : 
; 334  : // ,  ,  , ,, , 
; 335  : //{ "30301", "30022", "31023", "31356", "31024", "31033", "31027",
; 336  : // ,   ,  ,  ,  ,
; 337  : //	"30354", "30355", "30358", "30359", "30360", };
; 338  : 
; 339  : 	strCode = CDataConverter::Parser(strSrc, sCELL); // 

  00134	83 c4 08	 add	 esp, 8
  00137	8b cc		 mov	 ecx, esp
  00139	6a 01		 push	 1
  0013b	6a 09		 push	 9
  0013d	ff 15 00 00 00
	00		 call	 DWORD PTR __imp_??0?$CStringT@DV?$StrTraitMFC_DLL@DV?$ChTraitsCRT@D@ATL@@@@@ATL@@QAE@DH@Z
  00143	8d 85 04 fd ff
	ff		 lea	 eax, DWORD PTR _strSrc$[ebp]
  00149	50		 push	 eax
  0014a	8d 85 10 fd ff
	ff		 lea	 eax, DWORD PTR $T37[ebp]
  00150	50		 push	 eax
  00151	e8 00 00 00 00	 call	 ?Parser@CDataConverter@@SA?AV?$CStringT@DV?$StrTraitMFC_DLL@DV?$ChTraitsCRT@D@ATL@@@@@ATL@@AAV23@V23@@Z ; CDataConverter::Parser
  00156	83 c4 0c	 add	 esp, 12			; 0000000cH
  00159	50		 push	 eax
  0015a	8d 8d b4 fc ff
	ff		 lea	 ecx, DWORD PTR _strCode$[ebp]
  00160	c6 45 fc 0f	 mov	 BYTE PTR __$EHRec$[ebp+8], 15 ; 0000000fH
  00164	ff 15 00 00 00
	00		 call	 DWORD PTR __imp_??4?$CStringT@DV?$StrTraitMFC_DLL@DV?$ChTraitsCRT@D@ATL@@@@@ATL@@QAEAAV01@ABV01@@Z
  0016a	8d 8d 10 fd ff
	ff		 lea	 ecx, DWORD PTR $T37[ebp]
  00170	c6 45 fc 0e	 mov	 BYTE PTR __$EHRec$[ebp+8], 14 ; 0000000eH
  00174	ff 15 00 00 00
	00		 call	 DWORD PTR __imp_??1?$CStringT@DV?$StrTraitMFC_DLL@DV?$ChTraitsCRT@D@ATL@@@@@ATL@@QAE@XZ

; 340  : 
; 341  : 	strNode = CDataConverter::Parser(strSrc, sCELL); // 

  0017a	51		 push	 ecx
  0017b	8b cc		 mov	 ecx, esp
  0017d	6a 01		 push	 1
  0017f	6a 09		 push	 9
  00181	ff 15 00 00 00
	00		 call	 DWORD PTR __imp_??0?$CStringT@DV?$StrTraitMFC_DLL@DV?$ChTraitsCRT@D@ATL@@@@@ATL@@QAE@DH@Z
  00187	8d 85 04 fd ff
	ff		 lea	 eax, DWORD PTR _strSrc$[ebp]
  0018d	50		 push	 eax
  0018e	8d 85 10 fd ff
	ff		 lea	 eax, DWORD PTR $T36[ebp]
  00194	50		 push	 eax
  00195	e8 00 00 00 00	 call	 ?Parser@CDataConverter@@SA?AV?$CStringT@DV?$StrTraitMFC_DLL@DV?$ChTraitsCRT@D@ATL@@@@@ATL@@AAV23@V23@@Z ; CDataConverter::Parser
  0019a	83 c4 0c	 add	 esp, 12			; 0000000cH
  0019d	50		 push	 eax
  0019e	8d 8d 0c fd ff
	ff		 lea	 ecx, DWORD PTR _strNode$[ebp]
  001a4	c6 45 fc 10	 mov	 BYTE PTR __$EHRec$[ebp+8], 16 ; 00000010H
  001a8	ff 15 00 00 00
	00		 call	 DWORD PTR __imp_??4?$CStringT@DV?$StrTraitMFC_DLL@DV?$ChTraitsCRT@D@ATL@@@@@ATL@@QAEAAV01@ABV01@@Z
  001ae	8d 8d 10 fd ff
	ff		 lea	 ecx, DWORD PTR $T36[ebp]
  001b4	c6 45 fc 0e	 mov	 BYTE PTR __$EHRec$[ebp+8], 14 ; 0000000eH
  001b8	ff 15 00 00 00
	00		 call	 DWORD PTR __imp_??1?$CStringT@DV?$StrTraitMFC_DLL@DV?$ChTraitsCRT@D@ATL@@@@@ATL@@QAE@XZ
; File C:\Program Files (x86)\Microsoft Visual Studio\2019\Community\VC\Tools\MSVC\14.29.30133\atlmfc\include\atlsimpstr.h

; 519  : 		return( GetData()->nDataLength );

  001be	8b 85 0c fd ff
	ff		 mov	 eax, DWORD PTR _strNode$[ebp]
; File D:\git\src\IBK\IBK_DRFN\ProjSrc\SrcDrfn\DrCommon\PartnerMng\ChartItemForeign.cpp

; 342  : 	memcpy(stOut.name, strNode, min(strNode.GetLength(), sizeof(stOut.name)));

  001c4	ba 28 00 00 00	 mov	 edx, 40			; 00000028H
  001c9	39 50 f4	 cmp	 DWORD PTR [eax-12], edx
  001cc	0f 42 50 f4	 cmovb	 edx, DWORD PTR [eax-12]
  001d0	52		 push	 edx
  001d1	50		 push	 eax
  001d2	8d 85 14 fd ff
	ff		 lea	 eax, DWORD PTR _stOut$[ebp]
  001d8	50		 push	 eax
  001d9	e8 00 00 00 00	 call	 _memcpy

; 343  : 
; 344  : 	strPrice = CDataConverter::Parser(strSrc, sCELL); // 

  001de	83 c4 08	 add	 esp, 8
  001e1	8b cc		 mov	 ecx, esp
  001e3	6a 01		 push	 1
  001e5	6a 09		 push	 9
  001e7	ff 15 00 00 00
	00		 call	 DWORD PTR __imp_??0?$CStringT@DV?$StrTraitMFC_DLL@DV?$ChTraitsCRT@D@ATL@@@@@ATL@@QAE@DH@Z
  001ed	8d 85 04 fd ff
	ff		 lea	 eax, DWORD PTR _strSrc$[ebp]
  001f3	50		 push	 eax
  001f4	8d 85 10 fd ff
	ff		 lea	 eax, DWORD PTR $T35[ebp]
  001fa	50		 push	 eax
  001fb	e8 00 00 00 00	 call	 ?Parser@CDataConverter@@SA?AV?$CStringT@DV?$StrTraitMFC_DLL@DV?$ChTraitsCRT@D@ATL@@@@@ATL@@AAV23@V23@@Z ; CDataConverter::Parser
  00200	83 c4 0c	 add	 esp, 12			; 0000000cH
  00203	50		 push	 eax
  00204	8d 8d fc fc ff
	ff		 lea	 ecx, DWORD PTR _strPrice$[ebp]
  0020a	c6 45 fc 11	 mov	 BYTE PTR __$EHRec$[ebp+8], 17 ; 00000011H
  0020e	ff 15 00 00 00
	00		 call	 DWORD PTR __imp_??4?$CStringT@DV?$StrTraitMFC_DLL@DV?$ChTraitsCRT@D@ATL@@@@@ATL@@QAEAAV01@ABV01@@Z
  00214	8d 8d 10 fd ff
	ff		 lea	 ecx, DWORD PTR $T35[ebp]
  0021a	c6 45 fc 0e	 mov	 BYTE PTR __$EHRec$[ebp+8], 14 ; 0000000eH
  0021e	ff 15 00 00 00
	00		 call	 DWORD PTR __imp_??1?$CStringT@DV?$StrTraitMFC_DLL@DV?$ChTraitsCRT@D@ATL@@@@@ATL@@QAE@XZ

; 345  : 	strPrice.Remove(_T('+')); strPrice.Remove(_T('-')); strPrice.Remove(_T('.'));

  00224	6a 2b		 push	 43			; 0000002bH
  00226	8d 8d fc fc ff
	ff		 lea	 ecx, DWORD PTR _strPrice$[ebp]
  0022c	ff 15 00 00 00
	00		 call	 DWORD PTR __imp_?Remove@?$CStringT@DV?$StrTraitMFC_DLL@DV?$ChTraitsCRT@D@ATL@@@@@ATL@@QAEHD@Z
  00232	6a 2d		 push	 45			; 0000002dH
  00234	8d 8d fc fc ff
	ff		 lea	 ecx, DWORD PTR _strPrice$[ebp]
  0023a	ff 15 00 00 00
	00		 call	 DWORD PTR __imp_?Remove@?$CStringT@DV?$StrTraitMFC_DLL@DV?$ChTraitsCRT@D@ATL@@@@@ATL@@QAEHD@Z
  00240	6a 2e		 push	 46			; 0000002eH
  00242	8d 8d fc fc ff
	ff		 lea	 ecx, DWORD PTR _strPrice$[ebp]
  00248	ff 15 00 00 00
	00		 call	 DWORD PTR __imp_?Remove@?$CStringT@DV?$StrTraitMFC_DLL@DV?$ChTraitsCRT@D@ATL@@@@@ATL@@QAEHD@Z

; 346  : 	int nPrice = atoi(strPrice);

  0024e	ff b5 fc fc ff
	ff		 push	 DWORD PTR _strPrice$[ebp]
  00254	8b 35 00 00 00
	00		 mov	 esi, DWORD PTR __imp__atoi
  0025a	ff d6		 call	 esi
; File C:\Program Files (x86)\Microsoft Visual Studio\2019\Community\VC\Tools\MSVC\14.29.30133\atlmfc\include\atlsimpstr.h

; 519  : 		return( GetData()->nDataLength );

  0025c	8b 8d fc fc ff
	ff		 mov	 ecx, DWORD PTR _strPrice$[ebp]
; File D:\git\src\IBK\IBK_DRFN\ProjSrc\SrcDrfn\DrCommon\PartnerMng\ChartItemForeign.cpp

; 346  : 	int nPrice = atoi(strPrice);

  00262	89 85 00 fd ff
	ff		 mov	 DWORD PTR _nPrice$1$[ebp], eax

; 347  : 	memcpy(stOut.price, strPrice, min(sizeof(stOut.price), strPrice.GetLength()));

  00268	b8 0a 00 00 00	 mov	 eax, 10			; 0000000aH
; File C:\Program Files (x86)\Microsoft Visual Studio\2019\Community\VC\Tools\MSVC\14.29.30133\atlmfc\include\atlsimpstr.h

; 519  : 		return( GetData()->nDataLength );

  0026d	8b 51 f4	 mov	 edx, DWORD PTR [ecx-12]
; File D:\git\src\IBK\IBK_DRFN\ProjSrc\SrcDrfn\DrCommon\PartnerMng\ChartItemForeign.cpp

; 347  : 	memcpy(stOut.price, strPrice, min(sizeof(stOut.price), strPrice.GetLength()));

  00270	3b d0		 cmp	 edx, eax
  00272	0f 47 d0	 cmova	 edx, eax
  00275	8d 85 3c fd ff
	ff		 lea	 eax, DWORD PTR _stOut$[ebp+40]
  0027b	52		 push	 edx
  0027c	51		 push	 ecx
  0027d	50		 push	 eax
  0027e	e8 00 00 00 00	 call	 _memcpy

; 348  : 
; 349  : 	strPrePrice = CDataConverter::Parser(strSrc, sCELL); // 

  00283	83 c4 0c	 add	 esp, 12			; 0000000cH
  00286	8b cc		 mov	 ecx, esp
  00288	6a 01		 push	 1
  0028a	6a 09		 push	 9
  0028c	ff 15 00 00 00
	00		 call	 DWORD PTR __imp_??0?$CStringT@DV?$StrTraitMFC_DLL@DV?$ChTraitsCRT@D@ATL@@@@@ATL@@QAE@DH@Z
  00292	8d 85 04 fd ff
	ff		 lea	 eax, DWORD PTR _strSrc$[ebp]
  00298	50		 push	 eax
  00299	8d 85 10 fd ff
	ff		 lea	 eax, DWORD PTR $T34[ebp]
  0029f	50		 push	 eax
  002a0	e8 00 00 00 00	 call	 ?Parser@CDataConverter@@SA?AV?$CStringT@DV?$StrTraitMFC_DLL@DV?$ChTraitsCRT@D@ATL@@@@@ATL@@AAV23@V23@@Z ; CDataConverter::Parser
  002a5	83 c4 0c	 add	 esp, 12			; 0000000cH
  002a8	50		 push	 eax
  002a9	8d 8d ec fc ff
	ff		 lea	 ecx, DWORD PTR _strPrePrice$[ebp]
  002af	c6 45 fc 12	 mov	 BYTE PTR __$EHRec$[ebp+8], 18 ; 00000012H
  002b3	ff 15 00 00 00
	00		 call	 DWORD PTR __imp_??4?$CStringT@DV?$StrTraitMFC_DLL@DV?$ChTraitsCRT@D@ATL@@@@@ATL@@QAEAAV01@ABV01@@Z
  002b9	8d 8d 10 fd ff
	ff		 lea	 ecx, DWORD PTR $T34[ebp]
  002bf	c6 45 fc 0e	 mov	 BYTE PTR __$EHRec$[ebp+8], 14 ; 0000000eH
  002c3	ff 15 00 00 00
	00		 call	 DWORD PTR __imp_??1?$CStringT@DV?$StrTraitMFC_DLL@DV?$ChTraitsCRT@D@ATL@@@@@ATL@@QAE@XZ

; 350  : 	strPrePrice.Remove(_T('.'));

  002c9	6a 2e		 push	 46			; 0000002eH
  002cb	8d 8d ec fc ff
	ff		 lea	 ecx, DWORD PTR _strPrePrice$[ebp]
  002d1	ff 15 00 00 00
	00		 call	 DWORD PTR __imp_?Remove@?$CStringT@DV?$StrTraitMFC_DLL@DV?$ChTraitsCRT@D@ATL@@@@@ATL@@QAEHD@Z
; File C:\Program Files (x86)\Microsoft Visual Studio\2019\Community\VC\Tools\MSVC\14.29.30133\atlmfc\include\atlsimpstr.h

; 519  : 		return( GetData()->nDataLength );

  002d7	8b 85 ec fc ff
	ff		 mov	 eax, DWORD PTR _strPrePrice$[ebp]
; File D:\git\src\IBK\IBK_DRFN\ProjSrc\SrcDrfn\DrCommon\PartnerMng\ChartItemForeign.cpp

; 351  : 	memcpy(stOut.preprice, strPrePrice, min(sizeof(stOut.preprice), strPrePrice.GetLength()));

  002dd	ba 0a 00 00 00	 mov	 edx, 10			; 0000000aH
; File C:\Program Files (x86)\Microsoft Visual Studio\2019\Community\VC\Tools\MSVC\14.29.30133\atlmfc\include\atlsimpstr.h

; 519  : 		return( GetData()->nDataLength );

  002e2	8b 48 f4	 mov	 ecx, DWORD PTR [eax-12]
; File D:\git\src\IBK\IBK_DRFN\ProjSrc\SrcDrfn\DrCommon\PartnerMng\ChartItemForeign.cpp

; 351  : 	memcpy(stOut.preprice, strPrePrice, min(sizeof(stOut.preprice), strPrePrice.GetLength()));

  002e5	83 f9 0a	 cmp	 ecx, 10			; 0000000aH
  002e8	0f 47 ca	 cmova	 ecx, edx
  002eb	51		 push	 ecx
  002ec	50		 push	 eax
  002ed	8d 85 61 fd ff
	ff		 lea	 eax, DWORD PTR _stOut$[ebp+77]
  002f3	50		 push	 eax
  002f4	e8 00 00 00 00	 call	 _memcpy

; 352  : 
; 353  : 	strNode = CDataConverter::Parser(strSrc, sCELL); // 

  002f9	83 c4 08	 add	 esp, 8
  002fc	8b cc		 mov	 ecx, esp
  002fe	6a 01		 push	 1
  00300	6a 09		 push	 9
  00302	ff 15 00 00 00
	00		 call	 DWORD PTR __imp_??0?$CStringT@DV?$StrTraitMFC_DLL@DV?$ChTraitsCRT@D@ATL@@@@@ATL@@QAE@DH@Z
  00308	8d 85 04 fd ff
	ff		 lea	 eax, DWORD PTR _strSrc$[ebp]
  0030e	50		 push	 eax
  0030f	8d 85 10 fd ff
	ff		 lea	 eax, DWORD PTR $T33[ebp]
  00315	50		 push	 eax
  00316	e8 00 00 00 00	 call	 ?Parser@CDataConverter@@SA?AV?$CStringT@DV?$StrTraitMFC_DLL@DV?$ChTraitsCRT@D@ATL@@@@@ATL@@AAV23@V23@@Z ; CDataConverter::Parser
  0031b	83 c4 0c	 add	 esp, 12			; 0000000cH
  0031e	50		 push	 eax
  0031f	8d 8d 0c fd ff
	ff		 lea	 ecx, DWORD PTR _strNode$[ebp]
  00325	c6 45 fc 13	 mov	 BYTE PTR __$EHRec$[ebp+8], 19 ; 00000013H
  00329	ff 15 00 00 00
	00		 call	 DWORD PTR __imp_??4?$CStringT@DV?$StrTraitMFC_DLL@DV?$ChTraitsCRT@D@ATL@@@@@ATL@@QAEAAV01@ABV01@@Z
  0032f	8d 8d 10 fd ff
	ff		 lea	 ecx, DWORD PTR $T33[ebp]
  00335	c6 45 fc 0e	 mov	 BYTE PTR __$EHRec$[ebp+8], 14 ; 0000000eH
  00339	ff 15 00 00 00
	00		 call	 DWORD PTR __imp_??1?$CStringT@DV?$StrTraitMFC_DLL@DV?$ChTraitsCRT@D@ATL@@@@@ATL@@QAE@XZ

; 354  : 	strNode = strNode.Mid(1);

  0033f	6a 01		 push	 1
  00341	8d 85 10 fd ff
	ff		 lea	 eax, DWORD PTR $T32[ebp]
  00347	50		 push	 eax
  00348	8d 8d 0c fd ff
	ff		 lea	 ecx, DWORD PTR _strNode$[ebp]
  0034e	ff 15 00 00 00
	00		 call	 DWORD PTR __imp_?Mid@?$CStringT@DV?$StrTraitMFC_DLL@DV?$ChTraitsCRT@D@ATL@@@@@ATL@@QBE?AV12@H@Z
  00354	50		 push	 eax
  00355	8d 8d 0c fd ff
	ff		 lea	 ecx, DWORD PTR _strNode$[ebp]
  0035b	c6 45 fc 14	 mov	 BYTE PTR __$EHRec$[ebp+8], 20 ; 00000014H
  0035f	ff 15 00 00 00
	00		 call	 DWORD PTR __imp_??4?$CStringT@DV?$StrTraitMFC_DLL@DV?$ChTraitsCRT@D@ATL@@@@@ATL@@QAEAAV01@ABV01@@Z
  00365	8d 8d 10 fd ff
	ff		 lea	 ecx, DWORD PTR $T32[ebp]
  0036b	c6 45 fc 0e	 mov	 BYTE PTR __$EHRec$[ebp+8], 14 ; 0000000eH
  0036f	ff 15 00 00 00
	00		 call	 DWORD PTR __imp_??1?$CStringT@DV?$StrTraitMFC_DLL@DV?$ChTraitsCRT@D@ATL@@@@@ATL@@QAE@XZ

; 355  : 	strNode.Remove(_T('.'));

  00375	6a 2e		 push	 46			; 0000002eH
  00377	8d 8d 0c fd ff
	ff		 lea	 ecx, DWORD PTR _strNode$[ebp]
  0037d	ff 15 00 00 00
	00		 call	 DWORD PTR __imp_?Remove@?$CStringT@DV?$StrTraitMFC_DLL@DV?$ChTraitsCRT@D@ATL@@@@@ATL@@QAEHD@Z
; File C:\Program Files (x86)\Microsoft Visual Studio\2019\Community\VC\Tools\MSVC\14.29.30133\atlmfc\include\atlsimpstr.h

; 519  : 		return( GetData()->nDataLength );

  00383	8b 85 0c fd ff
	ff		 mov	 eax, DWORD PTR _strNode$[ebp]
; File D:\git\src\IBK\IBK_DRFN\ProjSrc\SrcDrfn\DrCommon\PartnerMng\ChartItemForeign.cpp

; 356  : 	memcpy(stOut.change, strNode, min(sizeof(stOut.change), strNode.GetLength()));

  00389	ba 0a 00 00 00	 mov	 edx, 10			; 0000000aH
; File C:\Program Files (x86)\Microsoft Visual Studio\2019\Community\VC\Tools\MSVC\14.29.30133\atlmfc\include\atlsimpstr.h

; 519  : 		return( GetData()->nDataLength );

  0038e	8b 48 f4	 mov	 ecx, DWORD PTR [eax-12]
; File D:\git\src\IBK\IBK_DRFN\ProjSrc\SrcDrfn\DrCommon\PartnerMng\ChartItemForeign.cpp

; 356  : 	memcpy(stOut.change, strNode, min(sizeof(stOut.change), strNode.GetLength()));

  00391	83 f9 0a	 cmp	 ecx, 10			; 0000000aH
  00394	0f 47 ca	 cmova	 ecx, edx
  00397	51		 push	 ecx
  00398	50		 push	 eax
  00399	8d 85 47 fd ff
	ff		 lea	 eax, DWORD PTR _stOut$[ebp+51]
  0039f	50		 push	 eax
  003a0	e8 00 00 00 00	 call	 _memcpy

; 357  : 
; 358  : 	strNode = CDataConverter::Parser(strSrc, sCELL); // 

  003a5	83 c4 08	 add	 esp, 8
  003a8	8b cc		 mov	 ecx, esp
  003aa	6a 01		 push	 1
  003ac	6a 09		 push	 9
  003ae	ff 15 00 00 00
	00		 call	 DWORD PTR __imp_??0?$CStringT@DV?$StrTraitMFC_DLL@DV?$ChTraitsCRT@D@ATL@@@@@ATL@@QAE@DH@Z
  003b4	8d 85 04 fd ff
	ff		 lea	 eax, DWORD PTR _strSrc$[ebp]
  003ba	50		 push	 eax
  003bb	8d 85 10 fd ff
	ff		 lea	 eax, DWORD PTR $T31[ebp]
  003c1	50		 push	 eax
  003c2	e8 00 00 00 00	 call	 ?Parser@CDataConverter@@SA?AV?$CStringT@DV?$StrTraitMFC_DLL@DV?$ChTraitsCRT@D@ATL@@@@@ATL@@AAV23@V23@@Z ; CDataConverter::Parser
  003c7	83 c4 0c	 add	 esp, 12			; 0000000cH
  003ca	50		 push	 eax
  003cb	8d 8d 0c fd ff
	ff		 lea	 ecx, DWORD PTR _strNode$[ebp]
  003d1	c6 45 fc 15	 mov	 BYTE PTR __$EHRec$[ebp+8], 21 ; 00000015H
  003d5	ff 15 00 00 00
	00		 call	 DWORD PTR __imp_??4?$CStringT@DV?$StrTraitMFC_DLL@DV?$ChTraitsCRT@D@ATL@@@@@ATL@@QAEAAV01@ABV01@@Z
  003db	8d 8d 10 fd ff
	ff		 lea	 ecx, DWORD PTR $T31[ebp]
  003e1	c6 45 fc 0e	 mov	 BYTE PTR __$EHRec$[ebp+8], 14 ; 0000000eH
  003e5	ff 15 00 00 00
	00		 call	 DWORD PTR __imp_??1?$CStringT@DV?$StrTraitMFC_DLL@DV?$ChTraitsCRT@D@ATL@@@@@ATL@@QAE@XZ

; 359  : 	double dwRate = atof(strNode);

  003eb	ff b5 0c fd ff
	ff		 push	 DWORD PTR _strNode$[ebp]
  003f1	ff 15 00 00 00
	00		 call	 DWORD PTR __imp__atof
  003f7	83 c4 04	 add	 esp, 4

; 360  : 	strNode.Remove(_T('+'));/*strNode.Remove(_T('-'));*/strNode.Remove(_T('.'));

  003fa	8d 8d 0c fd ff
	ff		 lea	 ecx, DWORD PTR _strNode$[ebp]
  00400	dd 9d bc fc ff
	ff		 fstp	 QWORD PTR _dwRate$[ebp]
  00406	6a 2b		 push	 43			; 0000002bH
  00408	ff 15 00 00 00
	00		 call	 DWORD PTR __imp_?Remove@?$CStringT@DV?$StrTraitMFC_DLL@DV?$ChTraitsCRT@D@ATL@@@@@ATL@@QAEHD@Z
  0040e	6a 2e		 push	 46			; 0000002eH
  00410	8d 8d 0c fd ff
	ff		 lea	 ecx, DWORD PTR _strNode$[ebp]
  00416	ff 15 00 00 00
	00		 call	 DWORD PTR __imp_?Remove@?$CStringT@DV?$StrTraitMFC_DLL@DV?$ChTraitsCRT@D@ATL@@@@@ATL@@QAEHD@Z
; File C:\Program Files (x86)\Microsoft Visual Studio\2019\Community\VC\Tools\MSVC\14.29.30133\atlmfc\include\atlsimpstr.h

; 519  : 		return( GetData()->nDataLength );

  0041c	8b 85 0c fd ff
	ff		 mov	 eax, DWORD PTR _strNode$[ebp]
; File D:\git\src\IBK\IBK_DRFN\ProjSrc\SrcDrfn\DrCommon\PartnerMng\ChartItemForeign.cpp

; 361  : 	memcpy(stOut.chrate, strNode, min(sizeof(stOut.chrate), strNode.GetLength()));

  00422	ba 06 00 00 00	 mov	 edx, 6
; File C:\Program Files (x86)\Microsoft Visual Studio\2019\Community\VC\Tools\MSVC\14.29.30133\atlmfc\include\atlsimpstr.h

; 519  : 		return( GetData()->nDataLength );

  00427	8b 48 f4	 mov	 ecx, DWORD PTR [eax-12]
; File D:\git\src\IBK\IBK_DRFN\ProjSrc\SrcDrfn\DrCommon\PartnerMng\ChartItemForeign.cpp

; 361  : 	memcpy(stOut.chrate, strNode, min(sizeof(stOut.chrate), strNode.GetLength()));

  0042a	3b ca		 cmp	 ecx, edx
  0042c	0f 47 ca	 cmova	 ecx, edx
  0042f	51		 push	 ecx
  00430	50		 push	 eax
  00431	8d 85 51 fd ff
	ff		 lea	 eax, DWORD PTR _stOut$[ebp+61]
  00437	50		 push	 eax
  00438	e8 00 00 00 00	 call	 _memcpy

; 362  : 
; 363  : 	strVolume = CDataConverter::Parser(strSrc, sCELL); // 

  0043d	83 c4 08	 add	 esp, 8
  00440	8b cc		 mov	 ecx, esp
  00442	6a 01		 push	 1
  00444	6a 09		 push	 9
  00446	ff 15 00 00 00
	00		 call	 DWORD PTR __imp_??0?$CStringT@DV?$StrTraitMFC_DLL@DV?$ChTraitsCRT@D@ATL@@@@@ATL@@QAE@DH@Z
  0044c	8d 85 04 fd ff
	ff		 lea	 eax, DWORD PTR _strSrc$[ebp]
  00452	50		 push	 eax
  00453	8d 85 10 fd ff
	ff		 lea	 eax, DWORD PTR $T30[ebp]
  00459	50		 push	 eax
  0045a	e8 00 00 00 00	 call	 ?Parser@CDataConverter@@SA?AV?$CStringT@DV?$StrTraitMFC_DLL@DV?$ChTraitsCRT@D@ATL@@@@@ATL@@AAV23@V23@@Z ; CDataConverter::Parser
  0045f	83 c4 0c	 add	 esp, 12			; 0000000cH
  00462	50		 push	 eax
  00463	8d 8d b0 fc ff
	ff		 lea	 ecx, DWORD PTR _strVolume$[ebp]
  00469	c6 45 fc 16	 mov	 BYTE PTR __$EHRec$[ebp+8], 22 ; 00000016H
  0046d	ff 15 00 00 00
	00		 call	 DWORD PTR __imp_??4?$CStringT@DV?$StrTraitMFC_DLL@DV?$ChTraitsCRT@D@ATL@@@@@ATL@@QAEAAV01@ABV01@@Z
  00473	8d 8d 10 fd ff
	ff		 lea	 ecx, DWORD PTR $T30[ebp]
  00479	c6 45 fc 0e	 mov	 BYTE PTR __$EHRec$[ebp+8], 14 ; 0000000eH
  0047d	ff 15 00 00 00
	00		 call	 DWORD PTR __imp_??1?$CStringT@DV?$StrTraitMFC_DLL@DV?$ChTraitsCRT@D@ATL@@@@@ATL@@QAE@XZ
; File C:\Program Files (x86)\Microsoft Visual Studio\2019\Community\VC\Tools\MSVC\14.29.30133\atlmfc\include\atlsimpstr.h

; 519  : 		return( GetData()->nDataLength );

  00483	8b 85 b0 fc ff
	ff		 mov	 eax, DWORD PTR _strVolume$[ebp]
; File D:\git\src\IBK\IBK_DRFN\ProjSrc\SrcDrfn\DrCommon\PartnerMng\ChartItemForeign.cpp

; 364  : 	memcpy(stOut.volume, strVolume, min(sizeof(stOut.volume), strVolume.GetLength()));

  00489	ba 0a 00 00 00	 mov	 edx, 10			; 0000000aH
; File C:\Program Files (x86)\Microsoft Visual Studio\2019\Community\VC\Tools\MSVC\14.29.30133\atlmfc\include\atlsimpstr.h

; 519  : 		return( GetData()->nDataLength );

  0048e	8b 48 f4	 mov	 ecx, DWORD PTR [eax-12]
; File D:\git\src\IBK\IBK_DRFN\ProjSrc\SrcDrfn\DrCommon\PartnerMng\ChartItemForeign.cpp

; 364  : 	memcpy(stOut.volume, strVolume, min(sizeof(stOut.volume), strVolume.GetLength()));

  00491	83 f9 0a	 cmp	 ecx, 10			; 0000000aH
  00494	0f 47 ca	 cmova	 ecx, edx
  00497	51		 push	 ecx
  00498	50		 push	 eax
  00499	8d 85 57 fd ff
	ff		 lea	 eax, DWORD PTR _stOut$[ebp+67]
  0049f	50		 push	 eax
  004a0	e8 00 00 00 00	 call	 _memcpy

; 365  : 
; 366  : 	//[CSA00000065] Make sign value
; 367  : 	if(dwRate < 0)			stOut.sign[0] = '5'; // DOWN

  004a5	f2 0f 10 8d bc
	fc ff ff	 movsd	 xmm1, QWORD PTR _dwRate$[ebp]
  004ad	0f 57 c0	 xorps	 xmm0, xmm0
  004b0	83 c4 0c	 add	 esp, 12			; 0000000cH
  004b3	66 0f 2f c1	 comisd	 xmm0, xmm1
  004b7	76 09		 jbe	 SHORT $LN12@Convert2St
  004b9	c6 85 46 fd ff
	ff 35		 mov	 BYTE PTR _stOut$[ebp+50], 53 ; 00000035H
  004c0	eb 0f		 jmp	 SHORT $LN14@Convert2St
$LN12@Convert2St:

; 368  : 	else if(dwRate > 0) stOut.sign[0] = '2'; // UP

  004c2	66 0f 2f c8	 comisd	 xmm1, xmm0
  004c6	0f 96 c0	 setbe	 al
  004c9	04 32		 add	 al, 50			; 00000032H
  004cb	88 85 46 fd ff
	ff		 mov	 BYTE PTR _stOut$[ebp+50], al
$LN14@Convert2St:

; 369  : 	else stOut.sign[0] = '3'; // SAME (BOHAP)
; 370  : 
; 371  : 	strOpen = CDataConverter::Parser(strSrc, sCELL); // 

  004d1	51		 push	 ecx
  004d2	8b cc		 mov	 ecx, esp
  004d4	6a 01		 push	 1
  004d6	6a 09		 push	 9
  004d8	ff 15 00 00 00
	00		 call	 DWORD PTR __imp_??0?$CStringT@DV?$StrTraitMFC_DLL@DV?$ChTraitsCRT@D@ATL@@@@@ATL@@QAE@DH@Z
  004de	8d 85 04 fd ff
	ff		 lea	 eax, DWORD PTR _strSrc$[ebp]
  004e4	50		 push	 eax
  004e5	8d 85 10 fd ff
	ff		 lea	 eax, DWORD PTR $T29[ebp]
  004eb	50		 push	 eax
  004ec	e8 00 00 00 00	 call	 ?Parser@CDataConverter@@SA?AV?$CStringT@DV?$StrTraitMFC_DLL@DV?$ChTraitsCRT@D@ATL@@@@@ATL@@AAV23@V23@@Z ; CDataConverter::Parser
  004f1	83 c4 0c	 add	 esp, 12			; 0000000cH
  004f4	50		 push	 eax
  004f5	8d 8d dc fc ff
	ff		 lea	 ecx, DWORD PTR _strOpen$[ebp]
  004fb	c6 45 fc 17	 mov	 BYTE PTR __$EHRec$[ebp+8], 23 ; 00000017H
  004ff	ff 15 00 00 00
	00		 call	 DWORD PTR __imp_??4?$CStringT@DV?$StrTraitMFC_DLL@DV?$ChTraitsCRT@D@ATL@@@@@ATL@@QAEAAV01@ABV01@@Z
  00505	8d 8d 10 fd ff
	ff		 lea	 ecx, DWORD PTR $T29[ebp]
  0050b	c6 45 fc 0e	 mov	 BYTE PTR __$EHRec$[ebp+8], 14 ; 0000000eH
  0050f	ff 15 00 00 00
	00		 call	 DWORD PTR __imp_??1?$CStringT@DV?$StrTraitMFC_DLL@DV?$ChTraitsCRT@D@ATL@@@@@ATL@@QAE@XZ

; 372  : 	strHigh = CDataConverter::Parser(strSrc, sCELL); // 

  00515	51		 push	 ecx
  00516	8b cc		 mov	 ecx, esp
  00518	6a 01		 push	 1
  0051a	6a 09		 push	 9
  0051c	ff 15 00 00 00
	00		 call	 DWORD PTR __imp_??0?$CStringT@DV?$StrTraitMFC_DLL@DV?$ChTraitsCRT@D@ATL@@@@@ATL@@QAE@DH@Z
  00522	8d 85 04 fd ff
	ff		 lea	 eax, DWORD PTR _strSrc$[ebp]
  00528	50		 push	 eax
  00529	8d 85 10 fd ff
	ff		 lea	 eax, DWORD PTR $T28[ebp]
  0052f	50		 push	 eax
  00530	e8 00 00 00 00	 call	 ?Parser@CDataConverter@@SA?AV?$CStringT@DV?$StrTraitMFC_DLL@DV?$ChTraitsCRT@D@ATL@@@@@ATL@@AAV23@V23@@Z ; CDataConverter::Parser
  00535	83 c4 0c	 add	 esp, 12			; 0000000cH
  00538	50		 push	 eax
  00539	8d 8d c4 fc ff
	ff		 lea	 ecx, DWORD PTR _strHigh$[ebp]
  0053f	c6 45 fc 18	 mov	 BYTE PTR __$EHRec$[ebp+8], 24 ; 00000018H
  00543	ff 15 00 00 00
	00		 call	 DWORD PTR __imp_??4?$CStringT@DV?$StrTraitMFC_DLL@DV?$ChTraitsCRT@D@ATL@@@@@ATL@@QAEAAV01@ABV01@@Z
  00549	8d 8d 10 fd ff
	ff		 lea	 ecx, DWORD PTR $T28[ebp]
  0054f	c6 45 fc 0e	 mov	 BYTE PTR __$EHRec$[ebp+8], 14 ; 0000000eH
  00553	ff 15 00 00 00
	00		 call	 DWORD PTR __imp_??1?$CStringT@DV?$StrTraitMFC_DLL@DV?$ChTraitsCRT@D@ATL@@@@@ATL@@QAE@XZ

; 373  : 	strLow = CDataConverter::Parser(strSrc, sCELL); // 

  00559	51		 push	 ecx
  0055a	8b cc		 mov	 ecx, esp
  0055c	6a 01		 push	 1
  0055e	6a 09		 push	 9
  00560	ff 15 00 00 00
	00		 call	 DWORD PTR __imp_??0?$CStringT@DV?$StrTraitMFC_DLL@DV?$ChTraitsCRT@D@ATL@@@@@ATL@@QAE@DH@Z
  00566	8d 85 04 fd ff
	ff		 lea	 eax, DWORD PTR _strSrc$[ebp]
  0056c	50		 push	 eax
  0056d	8d 85 10 fd ff
	ff		 lea	 eax, DWORD PTR $T27[ebp]
  00573	50		 push	 eax
  00574	e8 00 00 00 00	 call	 ?Parser@CDataConverter@@SA?AV?$CStringT@DV?$StrTraitMFC_DLL@DV?$ChTraitsCRT@D@ATL@@@@@ATL@@AAV23@V23@@Z ; CDataConverter::Parser
  00579	83 c4 0c	 add	 esp, 12			; 0000000cH
  0057c	50		 push	 eax
  0057d	8d 8d c8 fc ff
	ff		 lea	 ecx, DWORD PTR _strLow$[ebp]
  00583	c6 45 fc 19	 mov	 BYTE PTR __$EHRec$[ebp+8], 25 ; 00000019H
  00587	ff 15 00 00 00
	00		 call	 DWORD PTR __imp_??4?$CStringT@DV?$StrTraitMFC_DLL@DV?$ChTraitsCRT@D@ATL@@@@@ATL@@QAEAAV01@ABV01@@Z
  0058d	8d 8d 10 fd ff
	ff		 lea	 ecx, DWORD PTR $T27[ebp]
  00593	c6 45 fc 0e	 mov	 BYTE PTR __$EHRec$[ebp+8], 14 ; 0000000eH
  00597	ff 15 00 00 00
	00		 call	 DWORD PTR __imp_??1?$CStringT@DV?$StrTraitMFC_DLL@DV?$ChTraitsCRT@D@ATL@@@@@ATL@@QAE@XZ

; 374  : 	strOpen.Remove(_T('.'));

  0059d	6a 2e		 push	 46			; 0000002eH
  0059f	8d 8d dc fc ff
	ff		 lea	 ecx, DWORD PTR _strOpen$[ebp]
  005a5	ff 15 00 00 00
	00		 call	 DWORD PTR __imp_?Remove@?$CStringT@DV?$StrTraitMFC_DLL@DV?$ChTraitsCRT@D@ATL@@@@@ATL@@QAEHD@Z

; 375  : 	strHigh.Remove(_T('.'));

  005ab	6a 2e		 push	 46			; 0000002eH
  005ad	8d 8d c4 fc ff
	ff		 lea	 ecx, DWORD PTR _strHigh$[ebp]
  005b3	ff 15 00 00 00
	00		 call	 DWORD PTR __imp_?Remove@?$CStringT@DV?$StrTraitMFC_DLL@DV?$ChTraitsCRT@D@ATL@@@@@ATL@@QAEHD@Z

; 376  : 	strLow.Remove(_T('.'));

  005b9	6a 2e		 push	 46			; 0000002eH
  005bb	8d 8d c8 fc ff
	ff		 lea	 ecx, DWORD PTR _strLow$[ebp]
  005c1	ff 15 00 00 00
	00		 call	 DWORD PTR __imp_?Remove@?$CStringT@DV?$StrTraitMFC_DLL@DV?$ChTraitsCRT@D@ATL@@@@@ATL@@QAEHD@Z

; 377  : /*
; 378  : 	strPreOpen = CDataConverter::Parser(strSrc, sFS);		// 
; 379  : 	strPreOpen.Remove(_T('+'));
; 380  : 	strPreHigh = CDataConverter::Parser(strSrc, sFS);		// 
; 381  : 	strPreHigh.Remove(_T('+'));
; 382  : 	strPreLow = CDataConverter::Parser(strSrc, sFS);		// 
; 383  : 	strPreLow.Remove(_T('+'));
; 384  : */	
; 385  : 	//KHD : NextKey
; 386  : 	CString strNextKey = CDataConverter::Parser(strSrc, sCELL);

  005c7	51		 push	 ecx
  005c8	8b cc		 mov	 ecx, esp
  005ca	6a 01		 push	 1
  005cc	6a 09		 push	 9
  005ce	ff 15 00 00 00
	00		 call	 DWORD PTR __imp_??0?$CStringT@DV?$StrTraitMFC_DLL@DV?$ChTraitsCRT@D@ATL@@@@@ATL@@QAE@DH@Z
  005d4	8d 85 04 fd ff
	ff		 lea	 eax, DWORD PTR _strSrc$[ebp]
  005da	50		 push	 eax
  005db	8d 85 cc fc ff
	ff		 lea	 eax, DWORD PTR _strNextKey$[ebp]
  005e1	50		 push	 eax
  005e2	e8 00 00 00 00	 call	 ?Parser@CDataConverter@@SA?AV?$CStringT@DV?$StrTraitMFC_DLL@DV?$ChTraitsCRT@D@ATL@@@@@ATL@@AAV23@V23@@Z ; CDataConverter::Parser
  005e7	83 c4 0c	 add	 esp, 12			; 0000000cH

; 387  : 
; 388  : 	int nSize, nCnt, nType;
; 389  : 	strNode = CString(m_InData.button, sizeof(m_InData.button)); // (0)/(1)/(2)/(3)/(4)

  005ea	8b 85 e4 fc ff
	ff		 mov	 eax, DWORD PTR _this$GSCopy$1$[ebp]
  005f0	c6 45 fc 1a	 mov	 BYTE PTR __$EHRec$[ebp+8], 26 ; 0000001aH
  005f4	6a 01		 push	 1
  005f6	83 c0 23	 add	 eax, 35			; 00000023H
  005f9	8d 8d 10 fd ff
	ff		 lea	 ecx, DWORD PTR $T26[ebp]
  005ff	50		 push	 eax
  00600	ff 15 00 00 00
	00		 call	 DWORD PTR __imp_??0?$CStringT@DV?$StrTraitMFC_DLL@DV?$ChTraitsCRT@D@ATL@@@@@ATL@@QAE@PBDH@Z
  00606	50		 push	 eax
  00607	8d 8d 0c fd ff
	ff		 lea	 ecx, DWORD PTR _strNode$[ebp]
  0060d	c6 45 fc 1b	 mov	 BYTE PTR __$EHRec$[ebp+8], 27 ; 0000001bH
  00611	ff 15 00 00 00
	00		 call	 DWORD PTR __imp_??4?$CStringT@DV?$StrTraitMFC_DLL@DV?$ChTraitsCRT@D@ATL@@@@@ATL@@QAEAAV01@ABV01@@Z
  00617	8d 8d 10 fd ff
	ff		 lea	 ecx, DWORD PTR $T26[ebp]
  0061d	c6 45 fc 1a	 mov	 BYTE PTR __$EHRec$[ebp+8], 26 ; 0000001aH
  00621	ff 15 00 00 00
	00		 call	 DWORD PTR __imp_??1?$CStringT@DV?$StrTraitMFC_DLL@DV?$ChTraitsCRT@D@ATL@@@@@ATL@@QAE@XZ

; 390  : 	nType = atoi(strNode);

  00627	ff b5 0c fd ff
	ff		 push	 DWORD PTR _strNode$[ebp]
  0062d	ff d6		 call	 esi
  0062f	83 c4 04	 add	 esp, 4
  00632	89 85 e8 fc ff
	ff		 mov	 DWORD PTR _nType$1$[ebp], eax

; 391  : 	if(nType == 0) // 

  00638	85 c0		 test	 eax, eax
  0063a	75 05		 jne	 SHORT $LN16@Convert2St

; 392  : 		nSize = sizeof(szTickRowFieldForeign)/sizeof(char*);

  0063c	8d 70 07	 lea	 esi, DWORD PTR [eax+7]
  0063f	eb 1d		 jmp	 SHORT $LN20@Convert2St
$LN16@Convert2St:

; 393  : 	else if(nType == 1) //

  00641	83 f8 01	 cmp	 eax, 1
  00644	75 05		 jne	 SHORT $LN18@Convert2St

; 394  : 		nSize = sizeof(szMinRowFieldForeign)/sizeof(char*);

  00646	8d 70 06	 lea	 esi, DWORD PTR [eax+6]
  00649	eb 13		 jmp	 SHORT $LN20@Convert2St
$LN18@Convert2St:

; 395  : 	else if(nType == 6) //

  0064b	33 c9		 xor	 ecx, ecx
  0064d	83 f8 06	 cmp	 eax, 6
  00650	0f 94 c1	 sete	 cl
  00653	83 c1 06	 add	 ecx, 6
  00656	89 8d 10 fd ff
	ff		 mov	 DWORD PTR _nSize$1$[ebp], ecx
  0065c	8b f1		 mov	 esi, ecx
$LN20@Convert2St:

; 396  : 		nSize = sizeof(szSecRowFieldForeign)/sizeof(char*);
; 397  : 	else		// , , 
; 398  : 		nSize = sizeof(szDayRowFieldForeign)/sizeof(char*);
; 399  : 	
; 400  : 	//  
; 401  : 	GRAPH_IO gridOut;
; 402  : 	strNode = strSrc.Left(sizeof(gridOut));

  0065e	68 88 00 00 00	 push	 136			; 00000088H
  00663	8d 85 10 fd ff
	ff		 lea	 eax, DWORD PTR $T25[ebp]
  00669	50		 push	 eax
  0066a	8d 8d 04 fd ff
	ff		 lea	 ecx, DWORD PTR _strSrc$[ebp]
  00670	ff 15 00 00 00
	00		 call	 DWORD PTR __imp_?Left@?$CStringT@DV?$StrTraitMFC_DLL@DV?$ChTraitsCRT@D@ATL@@@@@ATL@@QBE?AV12@H@Z
  00676	50		 push	 eax
  00677	8d 8d 0c fd ff
	ff		 lea	 ecx, DWORD PTR _strNode$[ebp]
  0067d	c6 45 fc 1c	 mov	 BYTE PTR __$EHRec$[ebp+8], 28 ; 0000001cH
  00681	ff 15 00 00 00
	00		 call	 DWORD PTR __imp_??4?$CStringT@DV?$StrTraitMFC_DLL@DV?$ChTraitsCRT@D@ATL@@@@@ATL@@QAEAAV01@ABV01@@Z
  00687	8d 8d 10 fd ff
	ff		 lea	 ecx, DWORD PTR $T25[ebp]
  0068d	c6 45 fc 1a	 mov	 BYTE PTR __$EHRec$[ebp+8], 26 ; 0000001aH
  00691	ff 15 00 00 00
	00		 call	 DWORD PTR __imp_??1?$CStringT@DV?$StrTraitMFC_DLL@DV?$ChTraitsCRT@D@ATL@@@@@ATL@@QAE@XZ

; 403  : 	memcpy(&gridOut, strNode, sizeof(gridOut)); 
; 404  : 	
; 405  : 	strSrc = strSrc.Mid(sizeof(gridOut));

  00697	68 88 00 00 00	 push	 136			; 00000088H
  0069c	8d 85 10 fd ff
	ff		 lea	 eax, DWORD PTR $T24[ebp]
  006a2	50		 push	 eax
  006a3	8d 8d 04 fd ff
	ff		 lea	 ecx, DWORD PTR _strSrc$[ebp]
  006a9	ff 15 00 00 00
	00		 call	 DWORD PTR __imp_?Mid@?$CStringT@DV?$StrTraitMFC_DLL@DV?$ChTraitsCRT@D@ATL@@@@@ATL@@QBE?AV12@H@Z
  006af	50		 push	 eax
  006b0	8d 8d 04 fd ff
	ff		 lea	 ecx, DWORD PTR _strSrc$[ebp]
  006b6	c6 45 fc 1d	 mov	 BYTE PTR __$EHRec$[ebp+8], 29 ; 0000001dH
  006ba	ff 15 00 00 00
	00		 call	 DWORD PTR __imp_??4?$CStringT@DV?$StrTraitMFC_DLL@DV?$ChTraitsCRT@D@ATL@@@@@ATL@@QAEAAV01@ABV01@@Z
  006c0	8d 8d 10 fd ff
	ff		 lea	 ecx, DWORD PTR $T24[ebp]
  006c6	c6 45 fc 1a	 mov	 BYTE PTR __$EHRec$[ebp+8], 26 ; 0000001aH
  006ca	ff 15 00 00 00
	00		 call	 DWORD PTR __imp_??1?$CStringT@DV?$StrTraitMFC_DLL@DV?$ChTraitsCRT@D@ATL@@@@@ATL@@QAE@XZ
; File C:\Program Files (x86)\Microsoft Visual Studio\2019\Community\VC\Tools\MSVC\14.29.30133\atlmfc\include\cstringt.h

; 2486 : 		return(str1.Compare(psz2) == 0);

  006d0	68 00 00 00 00	 push	 OFFSET ??_C@_0P@FLGGHACJ@99999999999999@
  006d5	8d 8d cc fc ff
	ff		 lea	 ecx, DWORD PTR _strNextKey$[ebp]
  006db	ff 15 00 00 00
	00		 call	 DWORD PTR __imp_?Compare@?$CStringT@DV?$StrTraitMFC_DLL@DV?$ChTraitsCRT@D@ATL@@@@@ATL@@QBEHPBD@Z
  006e1	85 c0		 test	 eax, eax
; File D:\git\src\IBK\IBK_DRFN\ProjSrc\SrcDrfn\DrCommon\PartnerMng\ChartItemForeign.cpp

; 407  : 	if (strNextKey == "99999999999999" || atoi(strNextKey) == 0)	// 9 14  .

  006e3	74 39		 je	 SHORT $LN24@Convert2St
  006e5	ff b5 cc fc ff
	ff		 push	 DWORD PTR _strNextKey$[ebp]
  006eb	ff 15 00 00 00
	00		 call	 DWORD PTR __imp__atoi
  006f1	83 c4 04	 add	 esp, 4
  006f4	85 c0		 test	 eax, eax
  006f6	74 26		 je	 SHORT $LN24@Convert2St
; File C:\Program Files (x86)\Microsoft Visual Studio\2019\Community\VC\Tools\MSVC\14.29.30133\atlmfc\include\atlsimpstr.h

; 519  : 		return( GetData()->nDataLength );

  006f8	8b 85 cc fc ff
	ff		 mov	 eax, DWORD PTR _strNextKey$[ebp]
; File D:\git\src\IBK\IBK_DRFN\ProjSrc\SrcDrfn\DrCommon\PartnerMng\ChartItemForeign.cpp

; 410  : 		memcpy(stOut.nkey, (LPCTSTR)strNextKey, min(sizeof(stOut.nkey),strNextKey.GetLength()));

  006fe	ba 1c 00 00 00	 mov	 edx, 28			; 0000001cH
; File C:\Program Files (x86)\Microsoft Visual Studio\2019\Community\VC\Tools\MSVC\14.29.30133\atlmfc\include\atlsimpstr.h

; 519  : 		return( GetData()->nDataLength );

  00703	8b 48 f4	 mov	 ecx, DWORD PTR [eax-12]
; File D:\git\src\IBK\IBK_DRFN\ProjSrc\SrcDrfn\DrCommon\PartnerMng\ChartItemForeign.cpp

; 410  : 		memcpy(stOut.nkey, (LPCTSTR)strNextKey, min(sizeof(stOut.nkey),strNextKey.GetLength()));

  00706	3b ca		 cmp	 ecx, edx
  00708	0f 47 ca	 cmova	 ecx, edx
  0070b	51		 push	 ecx
  0070c	50		 push	 eax
  0070d	8d 85 6b fd ff
	ff		 lea	 eax, DWORD PTR _stOut$[ebp+87]
  00713	50		 push	 eax
  00714	e8 00 00 00 00	 call	 _memcpy
  00719	83 c4 0c	 add	 esp, 12			; 0000000cH
  0071c	eb 20		 jmp	 SHORT $LN23@Convert2St
$LN24@Convert2St:

; 408  : 		memset(stOut.nkey, 0x20, sizeof(stOut.nkey));

  0071e	0f 28 05 00 00
	00 00		 movaps	 xmm0, XMMWORD PTR __xmm@20202020202020202020202020202020
  00725	0f 11 85 6b fd
	ff ff		 movups	 XMMWORD PTR _stOut$[ebp+87], xmm0
  0072c	c7 85 83 fd ff
	ff 20 20 20 20	 mov	 DWORD PTR _stOut$[ebp+111], 538976288 ; 20202020H
  00736	66 0f d6 85 7b
	fd ff ff	 movq	 QWORD PTR _stOut$[ebp+103], xmm0
$LN23@Convert2St:

; 413  : 	CStringArray arrNode;

  0073e	8d 8d 90 fc ff
	ff		 lea	 ecx, DWORD PTR _arrNode$[ebp]
  00744	e8 00 00 00 00	 call	 ??0CStringArray@@QAE@XZ	; CStringArray::CStringArray
; File C:\Program Files (x86)\Microsoft Visual Studio\2019\Community\VC\Tools\MSVC\14.29.30133\atlmfc\include\atlsimpstr.h

; 519  : 		return( GetData()->nDataLength );

  00749	8b 85 04 fd ff
	ff		 mov	 eax, DWORD PTR _strSrc$[ebp]
; File D:\git\src\IBK\IBK_DRFN\ProjSrc\SrcDrfn\DrCommon\PartnerMng\ChartItemForeign.cpp

; 413  : 	CStringArray arrNode;

  0074f	c6 45 fc 1e	 mov	 BYTE PTR __$EHRec$[ebp+8], 30 ; 0000001eH
; File C:\Program Files (x86)\Microsoft Visual Studio\2019\Community\VC\Tools\MSVC\14.29.30133\atlmfc\include\atlsimpstr.h

; 533  : 		return( GetLength() == 0 );

  00753	83 78 f4 00	 cmp	 DWORD PTR [eax-12], 0
; File D:\git\src\IBK\IBK_DRFN\ProjSrc\SrcDrfn\DrCommon\PartnerMng\ChartItemForeign.cpp

; 415  : 	while(strSrc.IsEmpty() == FALSE)

  00757	0f 84 a8 00 00
	00		 je	 $LN3@Convert2St
  0075d	bf 01 00 00 00	 mov	 edi, 1
$LL2@Convert2St:

; 416  : 	{
; 417  : 		strNode = CDataConverter::Parser(strSrc, (nNodeIndex == nSize)?sROW:sCELL);

  00762	3b fe		 cmp	 edi, esi
  00764	51		 push	 ecx
  00765	0f 94 c0	 sete	 al
  00768	8b cc		 mov	 ecx, esp
  0076a	04 09		 add	 al, 9
  0076c	6a 01		 push	 1
  0076e	0f b6 c0	 movzx	 eax, al
  00771	50		 push	 eax
  00772	ff 15 00 00 00
	00		 call	 DWORD PTR __imp_??0?$CStringT@DV?$StrTraitMFC_DLL@DV?$ChTraitsCRT@D@ATL@@@@@ATL@@QAE@DH@Z
  00778	8d 85 04 fd ff
	ff		 lea	 eax, DWORD PTR _strSrc$[ebp]
  0077e	50		 push	 eax
  0077f	8d 85 10 fd ff
	ff		 lea	 eax, DWORD PTR $T23[ebp]
  00785	50		 push	 eax
  00786	e8 00 00 00 00	 call	 ?Parser@CDataConverter@@SA?AV?$CStringT@DV?$StrTraitMFC_DLL@DV?$ChTraitsCRT@D@ATL@@@@@ATL@@AAV23@V23@@Z ; CDataConverter::Parser
  0078b	83 c4 0c	 add	 esp, 12			; 0000000cH
  0078e	50		 push	 eax
  0078f	8d 8d 0c fd ff
	ff		 lea	 ecx, DWORD PTR _strNode$[ebp]
  00795	c6 45 fc 1f	 mov	 BYTE PTR __$EHRec$[ebp+8], 31 ; 0000001fH
  00799	ff 15 00 00 00
	00		 call	 DWORD PTR __imp_??4?$CStringT@DV?$StrTraitMFC_DLL@DV?$ChTraitsCRT@D@ATL@@@@@ATL@@QAEAAV01@ABV01@@Z
  0079f	8d 8d 10 fd ff
	ff		 lea	 ecx, DWORD PTR $T23[ebp]
  007a5	c6 45 fc 1e	 mov	 BYTE PTR __$EHRec$[ebp+8], 30 ; 0000001eH
  007a9	ff 15 00 00 00
	00		 call	 DWORD PTR __imp_??1?$CStringT@DV?$StrTraitMFC_DLL@DV?$ChTraitsCRT@D@ATL@@@@@ATL@@QAE@XZ

; 418  : 		strNode.TrimLeft(); strNode.TrimRight();

  007af	8d 8d 0c fd ff
	ff		 lea	 ecx, DWORD PTR _strNode$[ebp]
  007b5	ff 15 00 00 00
	00		 call	 DWORD PTR __imp_?TrimLeft@?$CStringT@DV?$StrTraitMFC_DLL@DV?$ChTraitsCRT@D@ATL@@@@@ATL@@QAEAAV12@XZ
  007bb	8d 8d 0c fd ff
	ff		 lea	 ecx, DWORD PTR _strNode$[ebp]
  007c1	ff 15 00 00 00
	00		 call	 DWORD PTR __imp_?TrimRight@?$CStringT@DV?$StrTraitMFC_DLL@DV?$ChTraitsCRT@D@ATL@@@@@ATL@@QAEAAV12@XZ
; File C:\Program Files (x86)\Microsoft Visual Studio\2019\Community\VC\Tools\MSVC\14.29.30133\atlmfc\include\afxcoll.inl

; 321  : 		SetAtGrow(nIndex, newElement);

  007c7	8d 85 0c fd ff
	ff		 lea	 eax, DWORD PTR _strNode$[ebp]
  007cd	50		 push	 eax
  007ce	ff b5 98 fc ff
	ff		 push	 DWORD PTR _arrNode$[ebp+8]
  007d4	8d 8d 90 fc ff
	ff		 lea	 ecx, DWORD PTR _arrNode$[ebp]
  007da	e8 00 00 00 00	 call	 ?SetAtGrow@CStringArray@@QAEXHABV?$CStringT@DV?$StrTraitMFC_DLL@DV?$ChTraitsCRT@D@ATL@@@@@ATL@@@Z ; CStringArray::SetAtGrow
; File C:\Program Files (x86)\Microsoft Visual Studio\2019\Community\VC\Tools\MSVC\14.29.30133\atlmfc\include\atlsimpstr.h

; 519  : 		return( GetData()->nDataLength );

  007df	8b 85 04 fd ff
	ff		 mov	 eax, DWORD PTR _strSrc$[ebp]
  007e5	3b fe		 cmp	 edi, esi
  007e7	b9 01 00 00 00	 mov	 ecx, 1
  007ec	8b 50 f4	 mov	 edx, DWORD PTR [eax-12]
  007ef	8d 47 01	 lea	 eax, DWORD PTR [edi+1]
  007f2	0f 45 c8	 cmovne	 ecx, eax
  007f5	8b f9		 mov	 edi, ecx

; 533  : 		return( GetLength() == 0 );

  007f7	85 d2		 test	 edx, edx
; File D:\git\src\IBK\IBK_DRFN\ProjSrc\SrcDrfn\DrCommon\PartnerMng\ChartItemForeign.cpp

; 415  : 	while(strSrc.IsEmpty() == FALSE)

  007f9	0f 85 63 ff ff
	ff		 jne	 $LL2@Convert2St
  007ff	8b bd 08 fd ff
	ff		 mov	 edi, DWORD PTR $T20[ebp]
$LN3@Convert2St:

; 419  : 		arrNode.Add(strNode);
; 420  : 
; 421  : 		if(nNodeIndex == nSize) nNodeIndex = 1;
; 422  : 		else nNodeIndex++;
; 423  : 	}
; 424  : 
; 425  : 	//    
; 426  : 	nCnt = arrNode.GetSize()/ nSize;

  00805	8b 85 98 fc ff
	ff		 mov	 eax, DWORD PTR _arrNode$[ebp+8]
  0080b	99		 cdq
  0080c	f7 fe		 idiv	 esi
  0080e	8b f0		 mov	 esi, eax

; 427  : 	strNode.Format("%05d", nCnt);

  00810	8d 85 0c fd ff
	ff		 lea	 eax, DWORD PTR _strNode$[ebp]
  00816	56		 push	 esi
  00817	68 00 00 00 00	 push	 OFFSET ??_C@_04ODOGNJOP@?$CF05d@
  0081c	50		 push	 eax
  0081d	89 b5 d0 fc ff
	ff		 mov	 DWORD PTR _nCnt$1$[ebp], esi
  00823	ff 15 00 00 00
	00		 call	 DWORD PTR __imp_?Format@?$CStringT@DV?$StrTraitMFC_DLL@DV?$ChTraitsCRT@D@ATL@@@@@ATL@@QAAXPBDZZ

; 428  : 	memcpy(stOut.fcnt, strNode, sizeof(stOut.fcnt));

  00829	8b 8d 0c fd ff
	ff		 mov	 ecx, DWORD PTR _strNode$[ebp]
  0082f	83 c4 0c	 add	 esp, 12			; 0000000cH

; 429  : 
; 430  : 	//   
; 431  : 	int nBongSize = sizeof(KB_p0606_OutRec2);
; 432  : 	int nBufSize = sizeof(KB_p0606_OutRec1_EX) + nBongSize * nCnt;

  00832	6b f6 3a	 imul	 esi, esi, 58
  00835	8a 41 04	 mov	 al, BYTE PTR [ecx+4]
  00838	8b 11		 mov	 edx, DWORD PTR [ecx]

; 433  : 	int	nPosBong = sizeof(KB_p0606_OutRec1_EX);
; 434  : 
; 435  : 	nDataLen = nBufSize;
; 436  : 	
; 437  : 	CString strDate = "00000000", strTime;

  0083a	8d 8d f0 fc ff
	ff		 lea	 ecx, DWORD PTR _strDate$[ebp]
  00840	88 85 8b fd ff
	ff		 mov	 BYTE PTR _stOut$[ebp+119], al
  00846	81 c6 08 02 00
	00		 add	 esi, 520		; 00000208H
  0084c	8b 85 f8 fc ff
	ff		 mov	 eax, DWORD PTR _nDataLen$GSCopy$1$[ebp]
  00852	68 00 00 00 00	 push	 OFFSET ??_C@_08LEDEEJEF@00000000@
  00857	89 95 87 fd ff
	ff		 mov	 DWORD PTR _stOut$[ebp+115], edx
  0085d	89 30		 mov	 DWORD PTR [eax], esi
  0085f	ff 15 00 00 00
	00		 call	 DWORD PTR __imp_??0?$CStringT@DV?$StrTraitMFC_DLL@DV?$ChTraitsCRT@D@ATL@@@@@ATL@@QAE@PBD@Z
  00865	8d 8d e0 fc ff
	ff		 lea	 ecx, DWORD PTR _strTime$[ebp]
  0086b	ff 15 00 00 00
	00		 call	 DWORD PTR __imp_??0?$CStringT@DV?$StrTraitMFC_DLL@DV?$ChTraitsCRT@D@ATL@@@@@ATL@@QAE@XZ

; 438  : 	char* pDataBuf = new char[nBufSize+1];

  00871	8d 46 01	 lea	 eax, DWORD PTR [esi+1]
  00874	c6 45 fc 21	 mov	 BYTE PTR __$EHRec$[ebp+8], 33 ; 00000021H
  00878	50		 push	 eax
  00879	e8 00 00 00 00	 call	 ??_U@YAPAXI@Z		; operator new[]
  0087e	83 c4 04	 add	 esp, 4
  00881	89 85 b8 fc ff
	ff		 mov	 DWORD PTR _pDataBuf$1$[ebp], eax
  00887	0f 57 c0	 xorps	 xmm0, xmm0
; File D:\git\src\IBK\IBK_DRFN\ProjSrc\SrcDrfn\inc\IBaseDefine.h

; 262  : 	AfxGetHanaroMainWnd(hMainWnd);

  0088a	c6 45 ec 00	 mov	 BYTE PTR _aBufWnd$39[ebp+8], 0
; File D:\git\src\IBK\IBK_DRFN\ProjSrc\SrcDrfn\DrCommon\PartnerMng\ChartItemForeign.cpp

; 442  : 	int nIndex = 0;

  0088e	33 f6		 xor	 esi, esi
; File D:\git\src\IBK\IBK_DRFN\ProjSrc\SrcDrfn\inc\IBaseDefine.h

; 262  : 	AfxGetHanaroMainWnd(hMainWnd);

  00890	66 0f d6 45 e4	 movq	 QWORD PTR _aBufWnd$39[ebp], xmm0
  00895	8d 8d f4 fc ff
	ff		 lea	 ecx, DWORD PTR _szClipFormat$13[ebp]
  0089b	89 b5 10 fd ff
	ff		 mov	 DWORD PTR _hMainWnd$22[ebp], esi
  008a1	ff 15 00 00 00
	00		 call	 DWORD PTR __imp_??0?$CStringT@DV?$StrTraitMFC_DLL@DV?$ChTraitsCRT@D@ATL@@@@@ATL@@QAE@XZ
  008a7	68 00 00 00 00	 push	 OFFSET ??_C@_0M@CBBNGGHM@PcTrMng?4dll@
  008ac	c6 45 fc 22	 mov	 BYTE PTR __$EHRec$[ebp+8], 34 ; 00000022H
  008b0	ff 15 00 00 00
	00		 call	 DWORD PTR __imp__GetModuleHandleA@4
  008b6	50		 push	 eax
  008b7	68 00 00 00 00	 push	 OFFSET ??_C@_0P@IDMAJEGN@HANAROPCTRMAIN@
  008bc	8d 85 f4 fc ff
	ff		 lea	 eax, DWORD PTR _szClipFormat$13[ebp]
  008c2	68 00 00 00 00	 push	 OFFSET ??_C@_06NDLAHCHE@?$CFs?$CF08X@
  008c7	50		 push	 eax
  008c8	ff 15 00 00 00
	00		 call	 DWORD PTR __imp_?Format@?$CStringT@DV?$StrTraitMFC_DLL@DV?$ChTraitsCRT@D@ATL@@@@@ATL@@QAAXPBDZZ
  008ce	83 c4 10	 add	 esp, 16			; 00000010H
  008d1	8d 45 e4	 lea	 eax, DWORD PTR _aBufWnd$39[ebp]
  008d4	6a 09		 push	 9
  008d6	50		 push	 eax
  008d7	ff b5 f4 fc ff
	ff		 push	 DWORD PTR _szClipFormat$13[ebp]
  008dd	ff 15 00 00 00
	00		 call	 DWORD PTR __imp__GetEnvironmentVariableA@12
  008e3	8d 85 10 fd ff
	ff		 lea	 eax, DWORD PTR _hMainWnd$22[ebp]
  008e9	50		 push	 eax
  008ea	8d 45 e4	 lea	 eax, DWORD PTR _aBufWnd$39[ebp]
  008ed	68 00 00 00 00	 push	 OFFSET ??_C@_02EMFKHFLK@?$CFX@
  008f2	50		 push	 eax
  008f3	e8 00 00 00 00	 call	 _sscanf
  008f8	83 c4 0c	 add	 esp, 12			; 0000000cH
  008fb	c6 45 fc 21	 mov	 BYTE PTR __$EHRec$[ebp+8], 33 ; 00000021H
  008ff	8d 8d f4 fc ff
	ff		 lea	 ecx, DWORD PTR _szClipFormat$13[ebp]
  00905	ff 15 00 00 00
	00		 call	 DWORD PTR __imp_??1?$CStringT@DV?$StrTraitMFC_DLL@DV?$ChTraitsCRT@D@ATL@@@@@ATL@@QAE@XZ

; 263  : 
; 264  : 	return ::SendMessage(hMainWnd, RMSG_INTERFACE, (WPARAM)nID, 0);

  0090b	56		 push	 esi
  0090c	6a 05		 push	 5
  0090e	ff 35 00 00 00
	00		 push	 DWORD PTR ?RMSG_INTERFACE@@3IB
  00914	ff b5 10 fd ff
	ff		 push	 DWORD PTR _hMainWnd$22[ebp]
  0091a	ff 15 00 00 00
	00		 call	 DWORD PTR __imp__SendMessageA@16
; File D:\git\src\IBK\IBK_DRFN\ProjSrc\SrcDrfn\DrCommon\PartnerMng\ChartItemForeign.cpp

; 444  : 	int nCodeType = pMasterDataManager->GetCodeTypeFromCode(strCode);

  00920	ff b5 b4 fc ff
	ff		 push	 DWORD PTR _strCode$[ebp]
  00926	50		 push	 eax
  00927	8b 08		 mov	 ecx, DWORD PTR [eax]
  00929	ff 91 d4 00 00
	00		 call	 DWORD PTR [ecx+212]

; 445  : 
; 446  : 	KB_p0606_OutRec2 stBong;
; 447  : 	int nRow = 0;
; 448  : 	for( nRow = 0; nRow < nCnt; nRow++)

  0092f	89 b5 10 fd ff
	ff		 mov	 DWORD PTR _nRow$1$[ebp], esi
  00935	39 b5 d0 fc ff
	ff		 cmp	 DWORD PTR _nCnt$1$[ebp], esi
  0093b	0f 8e b7 05 00
	00		 jle	 $LN471@Convert2St
$LL6@Convert2St:

; 449  : 	{
; 450  : 		memset(&stBong, 0x20, sizeof(stBong));

  00941	6a 3a		 push	 58			; 0000003aH
  00943	8d 45 a8	 lea	 eax, DWORD PTR _stBong$[ebp]
  00946	6a 20		 push	 32			; 00000020H
  00948	50		 push	 eax
  00949	e8 00 00 00 00	 call	 _memset
  0094e	83 c4 0c	 add	 esp, 12			; 0000000cH
; File C:\Program Files (x86)\Microsoft Visual Studio\2019\Community\VC\Tools\MSVC\14.29.30133\atlmfc\include\afxcoll.inl

; 289  : 		if( nIndex < 0 || nIndex >= m_nSize )

  00951	85 f6		 test	 esi, esi
  00953	0f 88 ec 0c 00
	00		 js	 $LN258@Convert2St
  00959	3b b5 98 fc ff
	ff		 cmp	 esi, DWORD PTR _arrNode$[ebp+8]
  0095f	0f 8d e0 0c 00
	00		 jge	 $LN258@Convert2St

; 291  : 		return m_pData[nIndex]; }

  00965	8b 85 94 fc ff
	ff		 mov	 eax, DWORD PTR _arrNode$[ebp+4]
; File D:\git\src\IBK\IBK_DRFN\ProjSrc\SrcDrfn\DrCommon\PartnerMng\ChartItemForeign.cpp

; 453  : 		strDate = arrNode.GetAt(nIndex++);

  0096b	8d 8d f0 fc ff
	ff		 lea	 ecx, DWORD PTR _strDate$[ebp]
; File C:\Program Files (x86)\Microsoft Visual Studio\2019\Community\VC\Tools\MSVC\14.29.30133\atlmfc\include\afxcoll.inl

; 291  : 		return m_pData[nIndex]; }

  00971	8d 04 b0	 lea	 eax, DWORD PTR [eax+esi*4]
; File D:\git\src\IBK\IBK_DRFN\ProjSrc\SrcDrfn\DrCommon\PartnerMng\ChartItemForeign.cpp

; 453  : 		strDate = arrNode.GetAt(nIndex++);

  00974	50		 push	 eax
  00975	ff 15 00 00 00
	00		 call	 DWORD PTR __imp_??4?$CStringT@DV?$StrTraitMFC_DLL@DV?$ChTraitsCRT@D@ATL@@@@@ATL@@QAEAAV01@ABV01@@Z

; 454  : 
; 455  : 		// time : ,, 
; 456  : 		if	(nType < 2 || nType == 6)

  0097b	8b 85 e8 fc ff
	ff		 mov	 eax, DWORD PTR _nType$1$[ebp]
  00981	46		 inc	 esi
  00982	89 b5 f4 fc ff
	ff		 mov	 DWORD PTR _nIndex$1$[ebp], esi
  00988	83 f8 02	 cmp	 eax, 2
  0098b	7c 09		 jl	 SHORT $LN28@Convert2St
  0098d	83 f8 06	 cmp	 eax, 6
  00990	0f 85 bd 01 00
	00		 jne	 $LN31@Convert2St
$LN28@Convert2St:
; File C:\Program Files (x86)\Microsoft Visual Studio\2019\Community\VC\Tools\MSVC\14.29.30133\atlmfc\include\afxcoll.inl

; 289  : 		if( nIndex < 0 || nIndex >= m_nSize )

  00996	3b b5 98 fc ff
	ff		 cmp	 esi, DWORD PTR _arrNode$[ebp+8]
  0099c	0f 8d a3 0c 00
	00		 jge	 $LN258@Convert2St

; 291  : 		return m_pData[nIndex]; }

  009a2	8b 85 94 fc ff
	ff		 mov	 eax, DWORD PTR _arrNode$[ebp+4]
; File D:\git\src\IBK\IBK_DRFN\ProjSrc\SrcDrfn\DrCommon\PartnerMng\ChartItemForeign.cpp

; 458  : 			strTime = arrNode.GetAt(nIndex++);	// 

  009a8	8d 8d e0 fc ff
	ff		 lea	 ecx, DWORD PTR _strTime$[ebp]
; File C:\Program Files (x86)\Microsoft Visual Studio\2019\Community\VC\Tools\MSVC\14.29.30133\atlmfc\include\afxcoll.inl

; 291  : 		return m_pData[nIndex]; }

  009ae	8d 04 b0	 lea	 eax, DWORD PTR [eax+esi*4]
; File D:\git\src\IBK\IBK_DRFN\ProjSrc\SrcDrfn\DrCommon\PartnerMng\ChartItemForeign.cpp

; 458  : 			strTime = arrNode.GetAt(nIndex++);	// 

  009b1	50		 push	 eax
  009b2	ff 15 00 00 00
	00		 call	 DWORD PTR __imp_??4?$CStringT@DV?$StrTraitMFC_DLL@DV?$ChTraitsCRT@D@ATL@@@@@ATL@@QAEAAV01@ABV01@@Z

; 459  : #ifndef LOCALTIME_SET
; 460  : 			if (cTimeGB == '1')
; 461  : 				strNode = arrNode.GetAt(nIndex++);	//  .
; 462  : 			else
; 463  : 				strTime = arrNode.GetAt(nIndex++);	//  .
; 464  : #endif
; 465  : 		}
; 466  : 		
; 467  : 		if(nType == 0) // DDHHMMSS

  009b8	8b 85 e8 fc ff
	ff		 mov	 eax, DWORD PTR _nType$1$[ebp]
  009be	46		 inc	 esi
  009bf	89 b5 f4 fc ff
	ff		 mov	 DWORD PTR _nIndex$1$[ebp], esi
  009c5	8b ce		 mov	 ecx, esi
  009c7	89 8d d8 fc ff
	ff		 mov	 DWORD PTR tv2409[ebp], ecx
  009cd	85 c0		 test	 eax, eax
  009cf	0f 85 9c 00 00
	00		 jne	 $LN29@Convert2St

; 468  : 			strNode = strDate.Right(2) + strTime;

  009d5	6a 02		 push	 2
  009d7	8d 85 74 fc ff
	ff		 lea	 eax, DWORD PTR $T5[ebp]
  009dd	50		 push	 eax
  009de	8d 8d f0 fc ff
	ff		 lea	 ecx, DWORD PTR _strDate$[ebp]
  009e4	ff 15 00 00 00
	00		 call	 DWORD PTR __imp_?Right@?$CStringT@DV?$StrTraitMFC_DLL@DV?$ChTraitsCRT@D@ATL@@@@@ATL@@QBE?AV12@H@Z
  009ea	8b f0		 mov	 esi, eax
; File C:\Program Files (x86)\Microsoft Visual Studio\2019\Community\VC\Tools\MSVC\14.29.30133\atlmfc\include\cstringt.h

; 2390 : 		CStringT strResult( str1.GetManager() );

  009ec	8b ce		 mov	 ecx, esi
; File D:\git\src\IBK\IBK_DRFN\ProjSrc\SrcDrfn\DrCommon\PartnerMng\ChartItemForeign.cpp

; 468  : 			strNode = strDate.Right(2) + strTime;

  009ee	c6 45 fc 24	 mov	 BYTE PTR __$EHRec$[ebp+8], 36 ; 00000024H
; File C:\Program Files (x86)\Microsoft Visual Studio\2019\Community\VC\Tools\MSVC\14.29.30133\atlmfc\include\cstringt.h

; 2390 : 		CStringT strResult( str1.GetManager() );

  009f2	ff 15 00 00 00
	00		 call	 DWORD PTR __imp_?GetManager@?$CStringT@DV?$StrTraitMFC_DLL@DV?$ChTraitsCRT@D@ATL@@@@@ATL@@QBEPAUIAtlStringMgr@2@XZ
  009f8	50		 push	 eax
  009f9	8d 8d a4 fc ff
	ff		 lea	 ecx, DWORD PTR $T8[ebp]
  009ff	ff 15 00 00 00
	00		 call	 DWORD PTR __imp_??0?$CStringT@DV?$StrTraitMFC_DLL@DV?$ChTraitsCRT@D@ATL@@@@@ATL@@QAE@PAUIAtlStringMgr@1@@Z
; File C:\Program Files (x86)\Microsoft Visual Studio\2019\Community\VC\Tools\MSVC\14.29.30133\atlmfc\include\atlsimpstr.h

; 519  : 		return( GetData()->nDataLength );

  00a05	8b 85 e0 fc ff
	ff		 mov	 eax, DWORD PTR _strTime$[ebp]
; File C:\Program Files (x86)\Microsoft Visual Studio\2019\Community\VC\Tools\MSVC\14.29.30133\atlmfc\include\cstringt.h

; 2394 : 		return( strResult );

  00a0b	83 cf 01	 or	 edi, 1
; File C:\Program Files (x86)\Microsoft Visual Studio\2019\Community\VC\Tools\MSVC\14.29.30133\atlmfc\include\atlsimpstr.h

; 519  : 		return( GetData()->nDataLength );

  00a0e	8b 0e		 mov	 ecx, DWORD PTR [esi]
; File C:\Program Files (x86)\Microsoft Visual Studio\2019\Community\VC\Tools\MSVC\14.29.30133\atlmfc\include\cstringt.h

; 2394 : 		return( strResult );

  00a10	89 bd ac fc ff
	ff		 mov	 DWORD PTR $T10[ebp], edi
  00a16	ff 70 f4	 push	 DWORD PTR [eax-12]
  00a19	50		 push	 eax
  00a1a	ff 71 f4	 push	 DWORD PTR [ecx-12]
  00a1d	8d 85 a4 fc ff
	ff		 lea	 eax, DWORD PTR $T8[ebp]
  00a23	51		 push	 ecx
  00a24	50		 push	 eax
  00a25	ff 15 00 00 00
	00		 call	 DWORD PTR __imp_?Concatenate@?$CSimpleStringT@D$00@ATL@@KAXAAV12@PBDH1H@Z
  00a2b	83 c4 14	 add	 esp, 20			; 00000014H
; File D:\git\src\IBK\IBK_DRFN\ProjSrc\SrcDrfn\DrCommon\PartnerMng\ChartItemForeign.cpp

; 468  : 			strNode = strDate.Right(2) + strTime;

  00a2e	8d 85 a4 fc ff
	ff		 lea	 eax, DWORD PTR $T8[ebp]
  00a34	8d 8d 0c fd ff
	ff		 lea	 ecx, DWORD PTR _strNode$[ebp]
  00a3a	50		 push	 eax
  00a3b	ff 15 00 00 00
	00		 call	 DWORD PTR __imp_??4?$CStringT@DV?$StrTraitMFC_DLL@DV?$ChTraitsCRT@D@ATL@@@@@ATL@@QAEAAV01@ABV01@@Z
  00a41	83 e7 fe	 and	 edi, -2			; fffffffeH
  00a44	8d 8d a4 fc ff
	ff		 lea	 ecx, DWORD PTR $T8[ebp]
  00a4a	89 bd 08 fd ff
	ff		 mov	 DWORD PTR $T20[ebp], edi
  00a50	ff 15 00 00 00
	00		 call	 DWORD PTR __imp_??1?$CStringT@DV?$StrTraitMFC_DLL@DV?$ChTraitsCRT@D@ATL@@@@@ATL@@QAE@XZ
  00a56	8d 8d 74 fc ff
	ff		 lea	 ecx, DWORD PTR $T5[ebp]
  00a5c	c6 45 fc 21	 mov	 BYTE PTR __$EHRec$[ebp+8], 33 ; 00000021H
  00a60	ff 15 00 00 00
	00		 call	 DWORD PTR __imp_??1?$CStringT@DV?$StrTraitMFC_DLL@DV?$ChTraitsCRT@D@ATL@@@@@ATL@@QAE@XZ
  00a66	8b b5 f4 fc ff
	ff		 mov	 esi, DWORD PTR _nIndex$1$[ebp]
  00a6c	e9 05 02 00 00	 jmp	 $LN36@Convert2St
$LN29@Convert2St:

; 469  : 		else if(nType == 1) //MMDDHHMM

  00a71	8b f1		 mov	 esi, ecx
  00a73	89 b5 f4 fc ff
	ff		 mov	 DWORD PTR _nIndex$1$[ebp], esi
  00a79	83 f8 01	 cmp	 eax, 1
  00a7c	0f 85 d1 00 00
	00		 jne	 $LN31@Convert2St

; 470  : 			strNode = strDate.Right(4) + strTime.Left(4);

  00a82	6a 04		 push	 4
  00a84	8d 85 6c fc ff
	ff		 lea	 eax, DWORD PTR $T3[ebp]
  00a8a	50		 push	 eax
  00a8b	8d 8d e0 fc ff
	ff		 lea	 ecx, DWORD PTR _strTime$[ebp]
  00a91	ff 15 00 00 00
	00		 call	 DWORD PTR __imp_?Left@?$CStringT@DV?$StrTraitMFC_DLL@DV?$ChTraitsCRT@D@ATL@@@@@ATL@@QBE?AV12@H@Z
  00a97	8b f8		 mov	 edi, eax
  00a99	6a 04		 push	 4
  00a9b	8d 85 70 fc ff
	ff		 lea	 eax, DWORD PTR $T4[ebp]
  00aa1	c6 45 fc 25	 mov	 BYTE PTR __$EHRec$[ebp+8], 37 ; 00000025H
  00aa5	50		 push	 eax
  00aa6	8d 8d f0 fc ff
	ff		 lea	 ecx, DWORD PTR _strDate$[ebp]
  00aac	ff 15 00 00 00
	00		 call	 DWORD PTR __imp_?Right@?$CStringT@DV?$StrTraitMFC_DLL@DV?$ChTraitsCRT@D@ATL@@@@@ATL@@QBE?AV12@H@Z
  00ab2	8b f0		 mov	 esi, eax
; File C:\Program Files (x86)\Microsoft Visual Studio\2019\Community\VC\Tools\MSVC\14.29.30133\atlmfc\include\cstringt.h

; 2390 : 		CStringT strResult( str1.GetManager() );

  00ab4	8b ce		 mov	 ecx, esi
; File D:\git\src\IBK\IBK_DRFN\ProjSrc\SrcDrfn\DrCommon\PartnerMng\ChartItemForeign.cpp

; 470  : 			strNode = strDate.Right(4) + strTime.Left(4);

  00ab6	c6 45 fc 27	 mov	 BYTE PTR __$EHRec$[ebp+8], 39 ; 00000027H
; File C:\Program Files (x86)\Microsoft Visual Studio\2019\Community\VC\Tools\MSVC\14.29.30133\atlmfc\include\cstringt.h

; 2390 : 		CStringT strResult( str1.GetManager() );

  00aba	ff 15 00 00 00
	00		 call	 DWORD PTR __imp_?GetManager@?$CStringT@DV?$StrTraitMFC_DLL@DV?$ChTraitsCRT@D@ATL@@@@@ATL@@QBEPAUIAtlStringMgr@2@XZ
  00ac0	50		 push	 eax
  00ac1	8d 8d a8 fc ff
	ff		 lea	 ecx, DWORD PTR $T9[ebp]
  00ac7	ff 15 00 00 00
	00		 call	 DWORD PTR __imp_??0?$CStringT@DV?$StrTraitMFC_DLL@DV?$ChTraitsCRT@D@ATL@@@@@ATL@@QAE@PAUIAtlStringMgr@1@@Z

; 2394 : 		return( strResult );

  00acd	8b 85 08 fd ff
	ff		 mov	 eax, DWORD PTR $T20[ebp]
; File C:\Program Files (x86)\Microsoft Visual Studio\2019\Community\VC\Tools\MSVC\14.29.30133\atlmfc\include\atlsimpstr.h

; 519  : 		return( GetData()->nDataLength );

  00ad3	8b 0e		 mov	 ecx, DWORD PTR [esi]
; File C:\Program Files (x86)\Microsoft Visual Studio\2019\Community\VC\Tools\MSVC\14.29.30133\atlmfc\include\cstringt.h

; 2394 : 		return( strResult );

  00ad5	83 c8 02	 or	 eax, 2
  00ad8	89 85 08 fd ff
	ff		 mov	 DWORD PTR $T20[ebp], eax
  00ade	89 85 ac fc ff
	ff		 mov	 DWORD PTR $T10[ebp], eax
; File C:\Program Files (x86)\Microsoft Visual Studio\2019\Community\VC\Tools\MSVC\14.29.30133\atlmfc\include\atlsimpstr.h

; 519  : 		return( GetData()->nDataLength );

  00ae4	8b 07		 mov	 eax, DWORD PTR [edi]
; File C:\Program Files (x86)\Microsoft Visual Studio\2019\Community\VC\Tools\MSVC\14.29.30133\atlmfc\include\cstringt.h

; 2392 : 		CThisSimpleString::Concatenate( strResult, str1, str1.GetLength(), str2, str2.GetLength() );

  00ae6	ff 70 f4	 push	 DWORD PTR [eax-12]
  00ae9	50		 push	 eax
  00aea	ff 71 f4	 push	 DWORD PTR [ecx-12]
  00aed	8d 85 a8 fc ff
	ff		 lea	 eax, DWORD PTR $T9[ebp]
  00af3	51		 push	 ecx
  00af4	50		 push	 eax
  00af5	ff 15 00 00 00
	00		 call	 DWORD PTR __imp_?Concatenate@?$CSimpleStringT@D$00@ATL@@KAXAAV12@PBDH1H@Z
  00afb	83 c4 14	 add	 esp, 20			; 00000014H
; File D:\git\src\IBK\IBK_DRFN\ProjSrc\SrcDrfn\DrCommon\PartnerMng\ChartItemForeign.cpp

; 470  : 			strNode = strDate.Right(4) + strTime.Left(4);

  00afe	8d 85 a8 fc ff
	ff		 lea	 eax, DWORD PTR $T9[ebp]
  00b04	8d 8d 0c fd ff
	ff		 lea	 ecx, DWORD PTR _strNode$[ebp]
  00b0a	50		 push	 eax
  00b0b	ff 15 00 00 00
	00		 call	 DWORD PTR __imp_??4?$CStringT@DV?$StrTraitMFC_DLL@DV?$ChTraitsCRT@D@ATL@@@@@ATL@@QAEAAV01@ABV01@@Z
  00b11	8b bd 08 fd ff
	ff		 mov	 edi, DWORD PTR $T20[ebp]
  00b17	8d 8d a8 fc ff
	ff		 lea	 ecx, DWORD PTR $T9[ebp]
  00b1d	83 e7 fd	 and	 edi, -3			; fffffffdH
  00b20	89 bd 08 fd ff
	ff		 mov	 DWORD PTR $T20[ebp], edi
  00b26	ff 15 00 00 00
	00		 call	 DWORD PTR __imp_??1?$CStringT@DV?$StrTraitMFC_DLL@DV?$ChTraitsCRT@D@ATL@@@@@ATL@@QAE@XZ
  00b2c	8d 8d 70 fc ff
	ff		 lea	 ecx, DWORD PTR $T4[ebp]
  00b32	ff 15 00 00 00
	00		 call	 DWORD PTR __imp_??1?$CStringT@DV?$StrTraitMFC_DLL@DV?$ChTraitsCRT@D@ATL@@@@@ATL@@QAE@XZ
  00b38	8d 8d 6c fc ff
	ff		 lea	 ecx, DWORD PTR $T3[ebp]
  00b3e	c6 45 fc 21	 mov	 BYTE PTR __$EHRec$[ebp+8], 33 ; 00000021H
  00b42	ff 15 00 00 00
	00		 call	 DWORD PTR __imp_??1?$CStringT@DV?$StrTraitMFC_DLL@DV?$ChTraitsCRT@D@ATL@@@@@ATL@@QAE@XZ
  00b48	8b b5 d8 fc ff
	ff		 mov	 esi, DWORD PTR tv2409[ebp]
  00b4e	e9 23 01 00 00	 jmp	 $LN36@Convert2St
$LN31@Convert2St:

; 471  : 		else if(nType == 4) //YYYYMM

  00b53	83 f8 04	 cmp	 eax, 4
  00b56	75 3b		 jne	 SHORT $LN33@Convert2St

; 472  : 			strNode = strDate.Left(6);

  00b58	6a 06		 push	 6
  00b5a	8d 85 7c fc ff
	ff		 lea	 eax, DWORD PTR $T7[ebp]
  00b60	50		 push	 eax
  00b61	8d 8d f0 fc ff
	ff		 lea	 ecx, DWORD PTR _strDate$[ebp]
  00b67	ff 15 00 00 00
	00		 call	 DWORD PTR __imp_?Left@?$CStringT@DV?$StrTraitMFC_DLL@DV?$ChTraitsCRT@D@ATL@@@@@ATL@@QBE?AV12@H@Z
  00b6d	50		 push	 eax
  00b6e	8d 8d 0c fd ff
	ff		 lea	 ecx, DWORD PTR _strNode$[ebp]
  00b74	c6 45 fc 28	 mov	 BYTE PTR __$EHRec$[ebp+8], 40 ; 00000028H
  00b78	ff 15 00 00 00
	00		 call	 DWORD PTR __imp_??4?$CStringT@DV?$StrTraitMFC_DLL@DV?$ChTraitsCRT@D@ATL@@@@@ATL@@QAEAAV01@ABV01@@Z
  00b7e	8d 8d 7c fc ff
	ff		 lea	 ecx, DWORD PTR $T7[ebp]
  00b84	c6 45 fc 21	 mov	 BYTE PTR __$EHRec$[ebp+8], 33 ; 00000021H
  00b88	ff 15 00 00 00
	00		 call	 DWORD PTR __imp_??1?$CStringT@DV?$StrTraitMFC_DLL@DV?$ChTraitsCRT@D@ATL@@@@@ATL@@QAE@XZ
  00b8e	e9 e3 00 00 00	 jmp	 $LN36@Convert2St
$LN33@Convert2St:

; 473  : 		else if(nType == 6) //DDHHMMSS

  00b93	83 f8 06	 cmp	 eax, 6
  00b96	0f 85 c7 00 00
	00		 jne	 $LN35@Convert2St

; 474  : 			strNode = strDate.Right(2) + strTime.Left(6);

  00b9c	50		 push	 eax
  00b9d	8d 45 e8	 lea	 eax, DWORD PTR $T42[ebp]
  00ba0	50		 push	 eax
  00ba1	8d 8d e0 fc ff
	ff		 lea	 ecx, DWORD PTR _strTime$[ebp]
  00ba7	ff 15 00 00 00
	00		 call	 DWORD PTR __imp_?Left@?$CStringT@DV?$StrTraitMFC_DLL@DV?$ChTraitsCRT@D@ATL@@@@@ATL@@QBE?AV12@H@Z
  00bad	8b f8		 mov	 edi, eax
  00baf	6a 02		 push	 2
  00bb1	8d 85 c0 fc ff
	ff		 lea	 eax, DWORD PTR $T12[ebp]
  00bb7	c6 45 fc 29	 mov	 BYTE PTR __$EHRec$[ebp+8], 41 ; 00000029H
  00bbb	50		 push	 eax
  00bbc	8d 8d f0 fc ff
	ff		 lea	 ecx, DWORD PTR _strDate$[ebp]
  00bc2	ff 15 00 00 00
	00		 call	 DWORD PTR __imp_?Right@?$CStringT@DV?$StrTraitMFC_DLL@DV?$ChTraitsCRT@D@ATL@@@@@ATL@@QBE?AV12@H@Z
  00bc8	8b f0		 mov	 esi, eax
; File C:\Program Files (x86)\Microsoft Visual Studio\2019\Community\VC\Tools\MSVC\14.29.30133\atlmfc\include\cstringt.h

; 2390 : 		CStringT strResult( str1.GetManager() );

  00bca	8b ce		 mov	 ecx, esi
; File D:\git\src\IBK\IBK_DRFN\ProjSrc\SrcDrfn\DrCommon\PartnerMng\ChartItemForeign.cpp

; 474  : 			strNode = strDate.Right(2) + strTime.Left(6);

  00bcc	c6 45 fc 2b	 mov	 BYTE PTR __$EHRec$[ebp+8], 43 ; 0000002bH
; File C:\Program Files (x86)\Microsoft Visual Studio\2019\Community\VC\Tools\MSVC\14.29.30133\atlmfc\include\cstringt.h

; 2390 : 		CStringT strResult( str1.GetManager() );

  00bd0	ff 15 00 00 00
	00		 call	 DWORD PTR __imp_?GetManager@?$CStringT@DV?$StrTraitMFC_DLL@DV?$ChTraitsCRT@D@ATL@@@@@ATL@@QBEPAUIAtlStringMgr@2@XZ
  00bd6	50		 push	 eax
  00bd7	8d 8d f8 fc ff
	ff		 lea	 ecx, DWORD PTR $T14[ebp]
  00bdd	ff 15 00 00 00
	00		 call	 DWORD PTR __imp_??0?$CStringT@DV?$StrTraitMFC_DLL@DV?$ChTraitsCRT@D@ATL@@@@@ATL@@QAE@PAUIAtlStringMgr@1@@Z

; 2394 : 		return( strResult );

  00be3	8b 85 08 fd ff
	ff		 mov	 eax, DWORD PTR $T20[ebp]
; File C:\Program Files (x86)\Microsoft Visual Studio\2019\Community\VC\Tools\MSVC\14.29.30133\atlmfc\include\atlsimpstr.h

; 519  : 		return( GetData()->nDataLength );

  00be9	8b 0e		 mov	 ecx, DWORD PTR [esi]
; File C:\Program Files (x86)\Microsoft Visual Studio\2019\Community\VC\Tools\MSVC\14.29.30133\atlmfc\include\cstringt.h

; 2394 : 		return( strResult );

  00beb	83 c8 04	 or	 eax, 4
  00bee	89 85 08 fd ff
	ff		 mov	 DWORD PTR $T20[ebp], eax
  00bf4	89 85 ac fc ff
	ff		 mov	 DWORD PTR $T10[ebp], eax
; File C:\Program Files (x86)\Microsoft Visual Studio\2019\Community\VC\Tools\MSVC\14.29.30133\atlmfc\include\atlsimpstr.h

; 519  : 		return( GetData()->nDataLength );

  00bfa	8b 07		 mov	 eax, DWORD PTR [edi]
; File C:\Program Files (x86)\Microsoft Visual Studio\2019\Community\VC\Tools\MSVC\14.29.30133\atlmfc\include\cstringt.h

; 2392 : 		CThisSimpleString::Concatenate( strResult, str1, str1.GetLength(), str2, str2.GetLength() );

  00bfc	ff 70 f4	 push	 DWORD PTR [eax-12]
  00bff	50		 push	 eax
  00c00	ff 71 f4	 push	 DWORD PTR [ecx-12]
  00c03	8d 85 f8 fc ff
	ff		 lea	 eax, DWORD PTR $T14[ebp]
  00c09	51		 push	 ecx
  00c0a	50		 push	 eax
  00c0b	ff 15 00 00 00
	00		 call	 DWORD PTR __imp_?Concatenate@?$CSimpleStringT@D$00@ATL@@KAXAAV12@PBDH1H@Z
  00c11	83 c4 14	 add	 esp, 20			; 00000014H
; File D:\git\src\IBK\IBK_DRFN\ProjSrc\SrcDrfn\DrCommon\PartnerMng\ChartItemForeign.cpp

; 474  : 			strNode = strDate.Right(2) + strTime.Left(6);

  00c14	8d 85 f8 fc ff
	ff		 lea	 eax, DWORD PTR $T14[ebp]
  00c1a	8d 8d 0c fd ff
	ff		 lea	 ecx, DWORD PTR _strNode$[ebp]
  00c20	50		 push	 eax
  00c21	ff 15 00 00 00
	00		 call	 DWORD PTR __imp_??4?$CStringT@DV?$StrTraitMFC_DLL@DV?$ChTraitsCRT@D@ATL@@@@@ATL@@QAEAAV01@ABV01@@Z
  00c27	8b bd 08 fd ff
	ff		 mov	 edi, DWORD PTR $T20[ebp]
  00c2d	8d 8d f8 fc ff
	ff		 lea	 ecx, DWORD PTR $T14[ebp]
  00c33	83 e7 fb	 and	 edi, -5			; fffffffbH
  00c36	89 bd 08 fd ff
	ff		 mov	 DWORD PTR $T20[ebp], edi
  00c3c	ff 15 00 00 00
	00		 call	 DWORD PTR __imp_??1?$CStringT@DV?$StrTraitMFC_DLL@DV?$ChTraitsCRT@D@ATL@@@@@ATL@@QAE@XZ
  00c42	8d 8d c0 fc ff
	ff		 lea	 ecx, DWORD PTR $T12[ebp]
  00c48	ff 15 00 00 00
	00		 call	 DWORD PTR __imp_??1?$CStringT@DV?$StrTraitMFC_DLL@DV?$ChTraitsCRT@D@ATL@@@@@ATL@@QAE@XZ
  00c4e	8d 4d e8	 lea	 ecx, DWORD PTR $T42[ebp]
  00c51	c6 45 fc 21	 mov	 BYTE PTR __$EHRec$[ebp+8], 33 ; 00000021H
  00c55	ff 15 00 00 00
	00		 call	 DWORD PTR __imp_??1?$CStringT@DV?$StrTraitMFC_DLL@DV?$ChTraitsCRT@D@ATL@@@@@ATL@@QAE@XZ
  00c5b	8b b5 f4 fc ff
	ff		 mov	 esi, DWORD PTR _nIndex$1$[ebp]
  00c61	eb 13		 jmp	 SHORT $LN36@Convert2St
$LN35@Convert2St:

; 475  : 		else 
; 476  : 			strNode = strDate;

  00c63	8d 85 f0 fc ff
	ff		 lea	 eax, DWORD PTR _strDate$[ebp]
  00c69	50		 push	 eax
  00c6a	8d 8d 0c fd ff
	ff		 lea	 ecx, DWORD PTR _strNode$[ebp]
  00c70	ff 15 00 00 00
	00		 call	 DWORD PTR __imp_??4?$CStringT@DV?$StrTraitMFC_DLL@DV?$ChTraitsCRT@D@ATL@@@@@ATL@@QAEAAV01@ABV01@@Z
$LN36@Convert2St:
; File C:\Program Files (x86)\Microsoft Visual Studio\2019\Community\VC\Tools\MSVC\14.29.30133\atlmfc\include\atlsimpstr.h

; 519  : 		return( GetData()->nDataLength );

  00c76	8b 85 0c fd ff
	ff		 mov	 eax, DWORD PTR _strNode$[ebp]
; File D:\git\src\IBK\IBK_DRFN\ProjSrc\SrcDrfn\DrCommon\PartnerMng\ChartItemForeign.cpp

; 478  : 		memcpy(stBong.date, strNode, min(sizeof(stBong.date), strNode.GetLength()));

  00c7c	ba 08 00 00 00	 mov	 edx, 8
; File C:\Program Files (x86)\Microsoft Visual Studio\2019\Community\VC\Tools\MSVC\14.29.30133\atlmfc\include\atlsimpstr.h

; 519  : 		return( GetData()->nDataLength );

  00c81	8b 48 f4	 mov	 ecx, DWORD PTR [eax-12]
; File D:\git\src\IBK\IBK_DRFN\ProjSrc\SrcDrfn\DrCommon\PartnerMng\ChartItemForeign.cpp

; 478  : 		memcpy(stBong.date, strNode, min(sizeof(stBong.date), strNode.GetLength()));

  00c84	83 f9 08	 cmp	 ecx, 8
  00c87	0f 47 ca	 cmova	 ecx, edx
  00c8a	51		 push	 ecx
  00c8b	50		 push	 eax
  00c8c	8d 45 a8	 lea	 eax, DWORD PTR _stBong$[ebp]
  00c8f	50		 push	 eax
  00c90	e8 00 00 00 00	 call	 _memcpy
  00c95	83 c4 0c	 add	 esp, 12			; 0000000cH
; File C:\Program Files (x86)\Microsoft Visual Studio\2019\Community\VC\Tools\MSVC\14.29.30133\atlmfc\include\afxcoll.inl

; 289  : 		if( nIndex < 0 || nIndex >= m_nSize )

  00c98	85 f6		 test	 esi, esi
  00c9a	0f 88 a5 09 00
	00		 js	 $LN258@Convert2St
  00ca0	3b b5 98 fc ff
	ff		 cmp	 esi, DWORD PTR _arrNode$[ebp+8]
  00ca6	0f 8d 99 09 00
	00		 jge	 $LN258@Convert2St

; 291  : 		return m_pData[nIndex]; }

  00cac	8b 85 94 fc ff
	ff		 mov	 eax, DWORD PTR _arrNode$[ebp+4]
; File D:\git\src\IBK\IBK_DRFN\ProjSrc\SrcDrfn\DrCommon\PartnerMng\ChartItemForeign.cpp

; 481  : 		strNode = arrNode.GetAt(nIndex++);

  00cb2	8d 8d 0c fd ff
	ff		 lea	 ecx, DWORD PTR _strNode$[ebp]
; File C:\Program Files (x86)\Microsoft Visual Studio\2019\Community\VC\Tools\MSVC\14.29.30133\atlmfc\include\afxcoll.inl

; 291  : 		return m_pData[nIndex]; }

  00cb8	8d 04 b0	 lea	 eax, DWORD PTR [eax+esi*4]
; File D:\git\src\IBK\IBK_DRFN\ProjSrc\SrcDrfn\DrCommon\PartnerMng\ChartItemForeign.cpp

; 481  : 		strNode = arrNode.GetAt(nIndex++);

  00cbb	50		 push	 eax
  00cbc	ff 15 00 00 00
	00		 call	 DWORD PTR __imp_??4?$CStringT@DV?$StrTraitMFC_DLL@DV?$ChTraitsCRT@D@ATL@@@@@ATL@@QAEAAV01@ABV01@@Z
; File C:\Program Files (x86)\Microsoft Visual Studio\2019\Community\VC\Tools\MSVC\14.29.30133\atlmfc\include\atlsimpstr.h

; 519  : 		return( GetData()->nDataLength );

  00cc2	8b 85 0c fd ff
	ff		 mov	 eax, DWORD PTR _strNode$[ebp]
; File D:\git\src\IBK\IBK_DRFN\ProjSrc\SrcDrfn\DrCommon\PartnerMng\ChartItemForeign.cpp

; 481  : 		strNode = arrNode.GetAt(nIndex++);

  00cc8	46		 inc	 esi

; 492  : 		memcpy(stBong.close, strNode, min(sizeof(stBong.close), strNode.GetLength()));

  00cc9	ba 0a 00 00 00	 mov	 edx, 10			; 0000000aH
; File C:\Program Files (x86)\Microsoft Visual Studio\2019\Community\VC\Tools\MSVC\14.29.30133\atlmfc\include\atlsimpstr.h

; 519  : 		return( GetData()->nDataLength );

  00cce	8b 48 f4	 mov	 ecx, DWORD PTR [eax-12]
; File D:\git\src\IBK\IBK_DRFN\ProjSrc\SrcDrfn\DrCommon\PartnerMng\ChartItemForeign.cpp

; 492  : 		memcpy(stBong.close, strNode, min(sizeof(stBong.close), strNode.GetLength()));

  00cd1	83 f9 0a	 cmp	 ecx, 10			; 0000000aH
  00cd4	0f 47 ca	 cmova	 ecx, edx
  00cd7	51		 push	 ecx
  00cd8	50		 push	 eax
  00cd9	8d 45 ce	 lea	 eax, DWORD PTR _stBong$[ebp+38]
  00cdc	50		 push	 eax
  00cdd	e8 00 00 00 00	 call	 _memcpy
  00ce2	83 c4 0c	 add	 esp, 12			; 0000000cH
; File C:\Program Files (x86)\Microsoft Visual Studio\2019\Community\VC\Tools\MSVC\14.29.30133\atlmfc\include\afxcoll.inl

; 289  : 		if( nIndex < 0 || nIndex >= m_nSize )

  00ce5	3b b5 98 fc ff
	ff		 cmp	 esi, DWORD PTR _arrNode$[ebp+8]
  00ceb	0f 8d 54 09 00
	00		 jge	 $LN258@Convert2St

; 291  : 		return m_pData[nIndex]; }

  00cf1	8b 85 94 fc ff
	ff		 mov	 eax, DWORD PTR _arrNode$[ebp+4]
; File D:\git\src\IBK\IBK_DRFN\ProjSrc\SrcDrfn\DrCommon\PartnerMng\ChartItemForeign.cpp

; 494  : 		strNode = arrNode.GetAt(nIndex++);

  00cf7	8d 8d 0c fd ff
	ff		 lea	 ecx, DWORD PTR _strNode$[ebp]
; File C:\Program Files (x86)\Microsoft Visual Studio\2019\Community\VC\Tools\MSVC\14.29.30133\atlmfc\include\afxcoll.inl

; 291  : 		return m_pData[nIndex]; }

  00cfd	8d 04 b0	 lea	 eax, DWORD PTR [eax+esi*4]
; File D:\git\src\IBK\IBK_DRFN\ProjSrc\SrcDrfn\DrCommon\PartnerMng\ChartItemForeign.cpp

; 494  : 		strNode = arrNode.GetAt(nIndex++);

  00d00	50		 push	 eax
  00d01	ff 15 00 00 00
	00		 call	 DWORD PTR __imp_??4?$CStringT@DV?$StrTraitMFC_DLL@DV?$ChTraitsCRT@D@ATL@@@@@ATL@@QAEAAV01@ABV01@@Z
; File C:\Program Files (x86)\Microsoft Visual Studio\2019\Community\VC\Tools\MSVC\14.29.30133\atlmfc\include\atlsimpstr.h

; 519  : 		return( GetData()->nDataLength );

  00d07	8b 85 0c fd ff
	ff		 mov	 eax, DWORD PTR _strNode$[ebp]
; File D:\git\src\IBK\IBK_DRFN\ProjSrc\SrcDrfn\DrCommon\PartnerMng\ChartItemForeign.cpp

; 495  : 		memcpy(stBong.open, strNode, min(sizeof(stBong.open), strNode.GetLength()));

  00d0d	ba 0a 00 00 00	 mov	 edx, 10			; 0000000aH
; File C:\Program Files (x86)\Microsoft Visual Studio\2019\Community\VC\Tools\MSVC\14.29.30133\atlmfc\include\atlsimpstr.h

; 519  : 		return( GetData()->nDataLength );

  00d12	8b 48 f4	 mov	 ecx, DWORD PTR [eax-12]
; File D:\git\src\IBK\IBK_DRFN\ProjSrc\SrcDrfn\DrCommon\PartnerMng\ChartItemForeign.cpp

; 495  : 		memcpy(stBong.open, strNode, min(sizeof(stBong.open), strNode.GetLength()));

  00d15	83 f9 0a	 cmp	 ecx, 10			; 0000000aH
  00d18	0f 47 ca	 cmova	 ecx, edx
  00d1b	51		 push	 ecx
  00d1c	50		 push	 eax
  00d1d	8d 45 b0	 lea	 eax, DWORD PTR _stBong$[ebp+8]
  00d20	50		 push	 eax
  00d21	e8 00 00 00 00	 call	 _memcpy
  00d26	83 c4 0c	 add	 esp, 12			; 0000000cH
  00d29	83 c6 01	 add	 esi, 1
; File C:\Program Files (x86)\Microsoft Visual Studio\2019\Community\VC\Tools\MSVC\14.29.30133\atlmfc\include\afxcoll.inl

; 289  : 		if( nIndex < 0 || nIndex >= m_nSize )

  00d2c	0f 88 13 09 00
	00		 js	 $LN258@Convert2St
  00d32	3b b5 98 fc ff
	ff		 cmp	 esi, DWORD PTR _arrNode$[ebp+8]
  00d38	0f 8d 07 09 00
	00		 jge	 $LN258@Convert2St

; 291  : 		return m_pData[nIndex]; }

  00d3e	8b 85 94 fc ff
	ff		 mov	 eax, DWORD PTR _arrNode$[ebp+4]
; File D:\git\src\IBK\IBK_DRFN\ProjSrc\SrcDrfn\DrCommon\PartnerMng\ChartItemForeign.cpp

; 497  : 		strNode = arrNode.GetAt(nIndex++);

  00d44	8d 8d 0c fd ff
	ff		 lea	 ecx, DWORD PTR _strNode$[ebp]
; File C:\Program Files (x86)\Microsoft Visual Studio\2019\Community\VC\Tools\MSVC\14.29.30133\atlmfc\include\afxcoll.inl

; 291  : 		return m_pData[nIndex]; }

  00d4a	8d 04 b0	 lea	 eax, DWORD PTR [eax+esi*4]
; File D:\git\src\IBK\IBK_DRFN\ProjSrc\SrcDrfn\DrCommon\PartnerMng\ChartItemForeign.cpp

; 497  : 		strNode = arrNode.GetAt(nIndex++);

  00d4d	50		 push	 eax
  00d4e	ff 15 00 00 00
	00		 call	 DWORD PTR __imp_??4?$CStringT@DV?$StrTraitMFC_DLL@DV?$ChTraitsCRT@D@ATL@@@@@ATL@@QAEAAV01@ABV01@@Z
; File C:\Program Files (x86)\Microsoft Visual Studio\2019\Community\VC\Tools\MSVC\14.29.30133\atlmfc\include\atlsimpstr.h

; 519  : 		return( GetData()->nDataLength );

  00d54	8b 85 0c fd ff
	ff		 mov	 eax, DWORD PTR _strNode$[ebp]
; File D:\git\src\IBK\IBK_DRFN\ProjSrc\SrcDrfn\DrCommon\PartnerMng\ChartItemForeign.cpp

; 498  : 		memcpy(stBong.high, strNode, min(sizeof(stBong.high), strNode.GetLength()));

  00d5a	ba 0a 00 00 00	 mov	 edx, 10			; 0000000aH
; File C:\Program Files (x86)\Microsoft Visual Studio\2019\Community\VC\Tools\MSVC\14.29.30133\atlmfc\include\atlsimpstr.h

; 519  : 		return( GetData()->nDataLength );

  00d5f	8b 48 f4	 mov	 ecx, DWORD PTR [eax-12]
; File D:\git\src\IBK\IBK_DRFN\ProjSrc\SrcDrfn\DrCommon\PartnerMng\ChartItemForeign.cpp

; 498  : 		memcpy(stBong.high, strNode, min(sizeof(stBong.high), strNode.GetLength()));

  00d62	83 f9 0a	 cmp	 ecx, 10			; 0000000aH
  00d65	0f 47 ca	 cmova	 ecx, edx
  00d68	51		 push	 ecx
  00d69	50		 push	 eax
  00d6a	8d 45 ba	 lea	 eax, DWORD PTR _stBong$[ebp+18]
  00d6d	50		 push	 eax
  00d6e	e8 00 00 00 00	 call	 _memcpy
  00d73	83 c4 0c	 add	 esp, 12			; 0000000cH
  00d76	83 c6 01	 add	 esi, 1
; File C:\Program Files (x86)\Microsoft Visual Studio\2019\Community\VC\Tools\MSVC\14.29.30133\atlmfc\include\afxcoll.inl

; 289  : 		if( nIndex < 0 || nIndex >= m_nSize )

  00d79	0f 88 c6 08 00
	00		 js	 $LN258@Convert2St
  00d7f	3b b5 98 fc ff
	ff		 cmp	 esi, DWORD PTR _arrNode$[ebp+8]
  00d85	0f 8d ba 08 00
	00		 jge	 $LN258@Convert2St

; 291  : 		return m_pData[nIndex]; }

  00d8b	8b 85 94 fc ff
	ff		 mov	 eax, DWORD PTR _arrNode$[ebp+4]
; File D:\git\src\IBK\IBK_DRFN\ProjSrc\SrcDrfn\DrCommon\PartnerMng\ChartItemForeign.cpp

; 500  : 		strNode = arrNode.GetAt(nIndex++);

  00d91	8d 8d 0c fd ff
	ff		 lea	 ecx, DWORD PTR _strNode$[ebp]
; File C:\Program Files (x86)\Microsoft Visual Studio\2019\Community\VC\Tools\MSVC\14.29.30133\atlmfc\include\afxcoll.inl

; 291  : 		return m_pData[nIndex]; }

  00d97	8d 04 b0	 lea	 eax, DWORD PTR [eax+esi*4]
; File D:\git\src\IBK\IBK_DRFN\ProjSrc\SrcDrfn\DrCommon\PartnerMng\ChartItemForeign.cpp

; 500  : 		strNode = arrNode.GetAt(nIndex++);

  00d9a	50		 push	 eax
  00d9b	ff 15 00 00 00
	00		 call	 DWORD PTR __imp_??4?$CStringT@DV?$StrTraitMFC_DLL@DV?$ChTraitsCRT@D@ATL@@@@@ATL@@QAEAAV01@ABV01@@Z
; File C:\Program Files (x86)\Microsoft Visual Studio\2019\Community\VC\Tools\MSVC\14.29.30133\atlmfc\include\atlsimpstr.h

; 519  : 		return( GetData()->nDataLength );

  00da1	8b 85 0c fd ff
	ff		 mov	 eax, DWORD PTR _strNode$[ebp]
; File D:\git\src\IBK\IBK_DRFN\ProjSrc\SrcDrfn\DrCommon\PartnerMng\ChartItemForeign.cpp

; 501  : 		memcpy(stBong.low, strNode, min(sizeof(stBong.low), strNode.GetLength()));

  00da7	ba 0a 00 00 00	 mov	 edx, 10			; 0000000aH
; File C:\Program Files (x86)\Microsoft Visual Studio\2019\Community\VC\Tools\MSVC\14.29.30133\atlmfc\include\atlsimpstr.h

; 519  : 		return( GetData()->nDataLength );

  00dac	8b 48 f4	 mov	 ecx, DWORD PTR [eax-12]
; File D:\git\src\IBK\IBK_DRFN\ProjSrc\SrcDrfn\DrCommon\PartnerMng\ChartItemForeign.cpp

; 501  : 		memcpy(stBong.low, strNode, min(sizeof(stBong.low), strNode.GetLength()));

  00daf	83 f9 0a	 cmp	 ecx, 10			; 0000000aH
  00db2	0f 47 ca	 cmova	 ecx, edx
  00db5	51		 push	 ecx
  00db6	50		 push	 eax
  00db7	8d 45 c4	 lea	 eax, DWORD PTR _stBong$[ebp+28]
  00dba	50		 push	 eax
  00dbb	e8 00 00 00 00	 call	 _memcpy
  00dc0	83 c4 0c	 add	 esp, 12			; 0000000cH
  00dc3	83 c6 01	 add	 esi, 1
; File C:\Program Files (x86)\Microsoft Visual Studio\2019\Community\VC\Tools\MSVC\14.29.30133\atlmfc\include\afxcoll.inl

; 289  : 		if( nIndex < 0 || nIndex >= m_nSize )

  00dc6	0f 88 79 08 00
	00		 js	 $LN258@Convert2St
  00dcc	3b b5 98 fc ff
	ff		 cmp	 esi, DWORD PTR _arrNode$[ebp+8]
  00dd2	0f 8d 6d 08 00
	00		 jge	 $LN258@Convert2St

; 291  : 		return m_pData[nIndex]; }

  00dd8	8b 85 94 fc ff
	ff		 mov	 eax, DWORD PTR _arrNode$[ebp+4]
; File D:\git\src\IBK\IBK_DRFN\ProjSrc\SrcDrfn\DrCommon\PartnerMng\ChartItemForeign.cpp

; 503  : 		strNode = arrNode.GetAt(nIndex++);

  00dde	8d 8d 0c fd ff
	ff		 lea	 ecx, DWORD PTR _strNode$[ebp]
; File C:\Program Files (x86)\Microsoft Visual Studio\2019\Community\VC\Tools\MSVC\14.29.30133\atlmfc\include\afxcoll.inl

; 291  : 		return m_pData[nIndex]; }

  00de4	8d 04 b0	 lea	 eax, DWORD PTR [eax+esi*4]
; File D:\git\src\IBK\IBK_DRFN\ProjSrc\SrcDrfn\DrCommon\PartnerMng\ChartItemForeign.cpp

; 503  : 		strNode = arrNode.GetAt(nIndex++);

  00de7	50		 push	 eax
  00de8	ff 15 00 00 00
	00		 call	 DWORD PTR __imp_??4?$CStringT@DV?$StrTraitMFC_DLL@DV?$ChTraitsCRT@D@ATL@@@@@ATL@@QAEAAV01@ABV01@@Z
; File C:\Program Files (x86)\Microsoft Visual Studio\2019\Community\VC\Tools\MSVC\14.29.30133\atlmfc\include\atlsimpstr.h

; 519  : 		return( GetData()->nDataLength );

  00dee	8b 85 0c fd ff
	ff		 mov	 eax, DWORD PTR _strNode$[ebp]
; File D:\git\src\IBK\IBK_DRFN\ProjSrc\SrcDrfn\DrCommon\PartnerMng\ChartItemForeign.cpp

; 503  : 		strNode = arrNode.GetAt(nIndex++);

  00df4	46		 inc	 esi

; 504  : 		memcpy(stBong.volume, strNode, min(sizeof(stBong.volume), strNode.GetLength()));

  00df5	ba 0a 00 00 00	 mov	 edx, 10			; 0000000aH
; File C:\Program Files (x86)\Microsoft Visual Studio\2019\Community\VC\Tools\MSVC\14.29.30133\atlmfc\include\atlsimpstr.h

; 519  : 		return( GetData()->nDataLength );

  00dfa	8b 48 f4	 mov	 ecx, DWORD PTR [eax-12]
; File D:\git\src\IBK\IBK_DRFN\ProjSrc\SrcDrfn\DrCommon\PartnerMng\ChartItemForeign.cpp

; 504  : 		memcpy(stBong.volume, strNode, min(sizeof(stBong.volume), strNode.GetLength()));

  00dfd	83 f9 0a	 cmp	 ecx, 10			; 0000000aH
  00e00	0f 47 ca	 cmova	 ecx, edx
  00e03	51		 push	 ecx
  00e04	50		 push	 eax
  00e05	8d 45 d8	 lea	 eax, DWORD PTR _stBong$[ebp+48]
  00e08	50		 push	 eax
  00e09	e8 00 00 00 00	 call	 _memcpy

; 505  : 
; 506  : 		//   ,  ,,  
; 507  : 	//	if (nType == 6)
; 508  : 	//		memcpy(&pDataBuf[nPosBong + nRow*nBongSize], &stBong, nBongSize);
; 509  : 	//	else
; 510  : 	//		memcpy(&pDataBuf[nBufSize - (nRow+1)*nBongSize], &stBong, nBongSize);
; 511  : 		memcpy(&pDataBuf[nPosBong + nRow*nBongSize], &stBong, nBongSize);//KHD :     

  00e0e	6b 8d 10 fd ff
	ff 3a		 imul	 ecx, DWORD PTR _nRow$1$[ebp], 58
  00e15	83 c4 0c	 add	 esp, 12			; 0000000cH
  00e18	0f 10 45 a8	 movups	 xmm0, XMMWORD PTR _stBong$[ebp]
  00e1c	8b 95 b8 fc ff
	ff		 mov	 edx, DWORD PTR _pDataBuf$1$[ebp]
  00e22	0f 11 84 11 08
	02 00 00	 movups	 XMMWORD PTR [ecx+edx+520], xmm0
  00e2a	0f 10 45 b8	 movups	 xmm0, XMMWORD PTR _stBong$[ebp+16]
  00e2e	0f 11 84 11 18
	02 00 00	 movups	 XMMWORD PTR [ecx+edx+536], xmm0
  00e36	0f 10 45 c8	 movups	 xmm0, XMMWORD PTR _stBong$[ebp+32]
  00e3a	0f 11 84 11 28
	02 00 00	 movups	 XMMWORD PTR [ecx+edx+552], xmm0
  00e42	f3 0f 7e 45 d8	 movq	 xmm0, QWORD PTR _stBong$[ebp+48]
  00e47	66 0f d6 84 11
	38 02 00 00	 movq	 QWORD PTR [ecx+edx+568], xmm0
  00e50	66 8b 45 e0	 mov	 ax, WORD PTR _stBong$[ebp+56]
  00e54	66 89 84 11 40
	02 00 00	 mov	 WORD PTR [ecx+edx+576], ax

; 512  : 		//    .
; 513  : 		if ( nRow == 0)

  00e5c	8b 8d 10 fd ff
	ff		 mov	 ecx, DWORD PTR _nRow$1$[ebp]
  00e62	85 c9		 test	 ecx, ecx
  00e64	75 39		 jne	 SHORT $LN4@Convert2St

; 514  : 			memcpy(&stFirstBong, &stBong, sizeof(stBong));

  00e66	0f 10 45 a8	 movups	 xmm0, XMMWORD PTR _stBong$[ebp]
  00e6a	66 8b 45 e0	 mov	 ax, WORD PTR _stBong$[ebp+56]
  00e6e	66 89 85 54 ff
	ff ff		 mov	 WORD PTR _stFirstBong$[ebp+56], ax
  00e75	0f 11 85 1c ff
	ff ff		 movups	 XMMWORD PTR _stFirstBong$[ebp], xmm0
  00e7c	0f 10 45 b8	 movups	 xmm0, XMMWORD PTR _stBong$[ebp+16]
  00e80	0f 11 85 2c ff
	ff ff		 movups	 XMMWORD PTR _stFirstBong$[ebp+16], xmm0
  00e87	0f 10 45 c8	 movups	 xmm0, XMMWORD PTR _stBong$[ebp+32]
  00e8b	0f 11 85 3c ff
	ff ff		 movups	 XMMWORD PTR _stFirstBong$[ebp+32], xmm0
  00e92	f3 0f 7e 45 d8	 movq	 xmm0, QWORD PTR _stBong$[ebp+48]
  00e97	66 0f d6 85 4c
	ff ff ff	 movq	 QWORD PTR _stFirstBong$[ebp+48], xmm0
$LN4@Convert2St:

; 445  : 
; 446  : 	KB_p0606_OutRec2 stBong;
; 447  : 	int nRow = 0;
; 448  : 	for( nRow = 0; nRow < nCnt; nRow++)

  00e9f	41		 inc	 ecx
  00ea0	89 8d 10 fd ff
	ff		 mov	 DWORD PTR _nRow$1$[ebp], ecx
  00ea6	3b 8d d0 fc ff
	ff		 cmp	 ecx, DWORD PTR _nCnt$1$[ebp]
  00eac	0f 8c 8f fa ff
	ff		 jl	 $LL6@Convert2St

; 515  : 	}
; 516  : 
; 517  : 	// 20130222  :      .(   )
; 518  : 	if (nCnt > 0 && nType == 3 && m_InData.nflag[0] != _T('1'))

  00eb2	8b b5 e8 fc ff
	ff		 mov	 esi, DWORD PTR _nType$1$[ebp]
  00eb8	8b bd e4 fc ff
	ff		 mov	 edi, DWORD PTR _this$GSCopy$1$[ebp]
  00ebe	83 fe 03	 cmp	 esi, 3
  00ec1	75 41		 jne	 SHORT $LN39@Convert2St
  00ec3	80 7f 24 31	 cmp	 BYTE PTR [edi+36], 49	; 00000031H
  00ec7	74 3b		 je	 SHORT $LN39@Convert2St

; 519  : 		m_bojoInput.m_sLastDataTime = CString(stBong.date, sizeof(stBong.date));

  00ec9	6a 08		 push	 8
  00ecb	8d 45 a8	 lea	 eax, DWORD PTR _stBong$[ebp]
  00ece	50		 push	 eax
  00ecf	8d 4d e8	 lea	 ecx, DWORD PTR $T41[ebp]
  00ed2	ff 15 00 00 00
	00		 call	 DWORD PTR __imp_??0?$CStringT@DV?$StrTraitMFC_DLL@DV?$ChTraitsCRT@D@ATL@@@@@ATL@@QAE@PBDH@Z
  00ed8	50		 push	 eax
  00ed9	8d 8f 04 01 00
	00		 lea	 ecx, DWORD PTR [edi+260]
  00edf	c6 45 fc 2c	 mov	 BYTE PTR __$EHRec$[ebp+8], 44 ; 0000002cH
  00ee3	ff 15 00 00 00
	00		 call	 DWORD PTR __imp_??4?$CStringT@DV?$StrTraitMFC_DLL@DV?$ChTraitsCRT@D@ATL@@@@@ATL@@QAEAAV01@ABV01@@Z
  00ee9	8d 4d e8	 lea	 ecx, DWORD PTR $T41[ebp]
  00eec	c6 45 fc 21	 mov	 BYTE PTR __$EHRec$[ebp+8], 33 ; 00000021H
  00ef0	ff 15 00 00 00
	00		 call	 DWORD PTR __imp_??1?$CStringT@DV?$StrTraitMFC_DLL@DV?$ChTraitsCRT@D@ATL@@@@@ATL@@QAE@XZ
  00ef6	eb 1d		 jmp	 SHORT $LN40@Convert2St
$LN471@Convert2St:

; 445  : 
; 446  : 	KB_p0606_OutRec2 stBong;
; 447  : 	int nRow = 0;
; 448  : 	for( nRow = 0; nRow < nCnt; nRow++)

  00ef8	8b b5 e8 fc ff
	ff		 mov	 esi, DWORD PTR _nType$1$[ebp]
  00efe	8b bd e4 fc ff
	ff		 mov	 edi, DWORD PTR _this$GSCopy$1$[ebp]
$LN39@Convert2St:

; 520  : 	else
; 521  : 		m_bojoInput.m_sLastDataTime = _T("");

  00f04	68 00 00 00 00	 push	 OFFSET ??_C@_00CNPNBAHC@@
  00f09	8d 8f 04 01 00
	00		 lea	 ecx, DWORD PTR [edi+260]
  00f0f	ff 15 00 00 00
	00		 call	 DWORD PTR __imp_??4?$CStringT@DV?$StrTraitMFC_DLL@DV?$ChTraitsCRT@D@ATL@@@@@ATL@@QAEAAV01@PBD@Z
$LN40@Convert2St:

; 522  : 
; 523  : 	int nDataType = int(m_InData.dataType[0] - '0'); 

  00f15	0f be 47 43	 movsx	 eax, BYTE PTR [edi+67]
  00f19	89 85 10 fd ff
	ff		 mov	 DWORD PTR tv2433[ebp], eax

; 524  : 	if(nDataType > 0)

  00f1f	83 f8 30	 cmp	 eax, 48			; 00000030H
  00f22	0f 8e 5a 03 00
	00		 jle	 $LN41@Convert2St

; 525  : 	{
; 526  : 		CString strData(stFirstBong.close, sizeof(stFirstBong.close));

  00f28	6a 0a		 push	 10			; 0000000aH
  00f2a	8d 85 42 ff ff
	ff		 lea	 eax, DWORD PTR _stFirstBong$[ebp+38]
  00f30	50		 push	 eax
  00f31	8d 8d 08 fd ff
	ff		 lea	 ecx, DWORD PTR _strData$21[ebp]
  00f37	ff 15 00 00 00
	00		 call	 DWORD PTR __imp_??0?$CStringT@DV?$StrTraitMFC_DLL@DV?$ChTraitsCRT@D@ATL@@@@@ATL@@QAE@PBDH@Z

; 527  : 		int nFirstClose = (int)fabs(atof(strData));

  00f3d	ff b5 08 fd ff
	ff		 push	 DWORD PTR _strData$21[ebp]
  00f43	c6 45 fc 2d	 mov	 BYTE PTR __$EHRec$[ebp+8], 45 ; 0000002dH
  00f47	ff 15 00 00 00
	00		 call	 DWORD PTR __imp__atof

; 528  : 		double dDenom,dPrePrice,dOpen; //
; 529  : 		KB_p0602_OutRec2 stBong;
; 530  : 		dPrePrice = fabs(atof(strPrePrice));

  00f4d	ff b5 ec fc ff
	ff		 push	 DWORD PTR _strPrePrice$[ebp]
  00f53	dd 5d e4	 fstp	 QWORD PTR tv2590[ebp]
  00f56	f2 0f 10 45 e4	 movsd	 xmm0, QWORD PTR tv2590[ebp]
  00f5b	0f 54 05 00 00
	00 00		 andps	 xmm0, QWORD PTR __xmm@7fffffffffffffff7fffffffffffffff
  00f62	f2 0f 2c c0	 cvttsd2si eax, xmm0
  00f66	89 45 e8	 mov	 DWORD PTR _nFirstClose$1$[ebp], eax
  00f69	ff 15 00 00 00
	00		 call	 DWORD PTR __imp__atof

; 531  : 		dOpen = fabs(atof(strOpen));

  00f6f	ff b5 dc fc ff
	ff		 push	 DWORD PTR _strOpen$[ebp]
  00f75	dd 9d bc fc ff
	ff		 fstp	 QWORD PTR tv2585[ebp]
  00f7b	f2 0f 10 85 bc
	fc ff ff	 movsd	 xmm0, QWORD PTR tv2585[ebp]
  00f83	0f 54 05 00 00
	00 00		 andps	 xmm0, QWORD PTR __xmm@7fffffffffffffff7fffffffffffffff
  00f8a	f2 0f 11 85 78
	fc ff ff	 movsd	 QWORD PTR _dPrePrice$1$[ebp], xmm0
  00f92	ff 15 00 00 00
	00		 call	 DWORD PTR __imp__atof

; 532  : 		switch(nDataType)

  00f98	8b 85 10 fd ff
	ff		 mov	 eax, DWORD PTR tv2433[ebp]
  00f9e	83 c4 0c	 add	 esp, 12			; 0000000cH
  00fa1	dd 9d bc fc ff
	ff		 fstp	 QWORD PTR tv2580[ebp]
  00fa7	f2 0f 10 8d bc
	fc ff ff	 movsd	 xmm1, QWORD PTR tv2580[ebp]
  00faf	83 c0 cf	 add	 eax, -49		; ffffffcfH
  00fb2	0f 54 0d 00 00
	00 00		 andps	 xmm1, QWORD PTR __xmm@7fffffffffffffff7fffffffffffffff
  00fb9	f2 0f 11 8d d4
	fc ff ff	 movsd	 QWORD PTR _dDenom$1$[ebp], xmm1
  00fc1	83 f8 04	 cmp	 eax, 4
  00fc4	77 34		 ja	 SHORT $LN469@Convert2St
  00fc6	ff 24 85 00 00
	00 00		 jmp	 DWORD PTR $LN468@Convert2St[eax*4]
$LN42@Convert2St:
  00fcd	66 0f 6e 4d e8	 movd	 xmm1, DWORD PTR _nFirstClose$1$[ebp]

; 533  : 		{
; 534  : 		case 1:	dDenom = nFirstClose;		break;	//  

  00fd2	f3 0f e6 c9	 cvtdq2pd xmm1, xmm1
  00fd6	eb 2a		 jmp	 SHORT $LN475@Convert2St
$LN43@Convert2St:

; 535  : 		case 2:	dDenom = 1;					break;	// $   

  00fd8	f2 0f 10 0d 00
	00 00 00	 movsd	 xmm1, QWORD PTR __real@3ff0000000000000
  00fe0	eb 20		 jmp	 SHORT $LN475@Convert2St
$LN45@Convert2St:
  00fe2	66 0f 6e 8d 00
	fd ff ff	 movd	 xmm1, DWORD PTR _nPrice$1$[ebp]

; 536  : 		case 3:	dDenom = dOpen;			break;	// 
; 537  : 		case 4:	dDenom = nPrice;			break;	// 

  00fea	f3 0f e6 c9	 cvtdq2pd xmm1, xmm1
  00fee	eb 12		 jmp	 SHORT $LN475@Convert2St
$LN46@Convert2St:

; 538  : 		case 5:	dDenom = dPrePrice;		break;	// 

  00ff0	f2 0f 10 8d 78
	fc ff ff	 movsd	 xmm1, QWORD PTR _dPrePrice$1$[ebp]
  00ff8	eb 08		 jmp	 SHORT $LN475@Convert2St
$LN469@Convert2St:

; 532  : 		switch(nDataType)

  00ffa	f2 0f 10 8d 54
	fc ff ff	 movsd	 xmm1, QWORD PTR _dDenom$2[ebp]
$LN475@Convert2St:

; 539  : 		}
; 540  : 		
; 541  : 		for(nRow = 0; nRow < nCnt; nRow++)

  01002	f2 0f 11 8d d4
	fc ff ff	 movsd	 QWORD PTR _dDenom$1$[ebp], xmm1
$LN7@Convert2St:
  0100a	83 bd d0 fc ff
	ff 00		 cmp	 DWORD PTR _nCnt$1$[ebp], 0
  01011	c7 85 f8 fc ff
	ff 00 00 00 00	 mov	 DWORD PTR _nRow$2$[ebp], 0
  0101b	0f 8e 51 02 00
	00		 jle	 $LN457@Convert2St
  01021	8b bd b8 fc ff
	ff		 mov	 edi, DWORD PTR _pDataBuf$1$[ebp]
  01027	8b b5 10 fd ff
	ff		 mov	 esi, DWORD PTR tv2433[ebp]
  0102d	81 c7 08 02 00
	00		 add	 edi, 520		; 00000208H
$LL11@Convert2St:

; 542  : 		{
; 543  : 			if(nDataType == 2) break;

  01033	83 fe 32	 cmp	 esi, 50			; 00000032H
  01036	0f 84 2a 02 00
	00		 je	 $LN470@Convert2St

; 544  : 			
; 545  : 			memcpy(&stBong, &pDataBuf[nPosBong + nRow*nBongSize], nBongSize);

  0103c	0f 10 07	 movups	 xmm0, XMMWORD PTR [edi]
  0103f	0f b7 47 38	 movzx	 eax, WORD PTR [edi+56]

; 546  : 			// 
; 547  : 			strData = CDataConverter::Get_PercentData(stBong.open, dDenom, sizeof(stBong.open));

  01043	6a 0a		 push	 10			; 0000000aH
  01045	0f 11 85 58 ff
	ff ff		 movups	 XMMWORD PTR _stBong$38[ebp], xmm0
  0104c	83 ec 08	 sub	 esp, 8
  0104f	66 89 45 90	 mov	 WORD PTR _stBong$38[ebp+56], ax
  01053	0f 10 47 10	 movups	 xmm0, XMMWORD PTR [edi+16]
  01057	8d 85 60 ff ff
	ff		 lea	 eax, DWORD PTR _stBong$38[ebp+8]
  0105d	0f 11 85 68 ff
	ff ff		 movups	 XMMWORD PTR _stBong$38[ebp+16], xmm0
  01064	0f 10 47 20	 movups	 xmm0, XMMWORD PTR [edi+32]
  01068	f2 0f 11 0c 24	 movsd	 QWORD PTR [esp], xmm1
  0106d	50		 push	 eax
  0106e	0f 11 85 78 ff
	ff ff		 movups	 XMMWORD PTR _stBong$38[ebp+32], xmm0
  01075	8d 85 00 fd ff
	ff		 lea	 eax, DWORD PTR $T19[ebp]
  0107b	f3 0f 7e 47 30	 movq	 xmm0, QWORD PTR [edi+48]
  01080	50		 push	 eax
  01081	66 0f d6 45 88	 movq	 QWORD PTR _stBong$38[ebp+48], xmm0
  01086	e8 00 00 00 00	 call	 ?Get_PercentData@CDataConverter@@SA?AV?$CStringT@DV?$StrTraitMFC_DLL@DV?$ChTraitsCRT@D@ATL@@@@@ATL@@PADNH@Z ; CDataConverter::Get_PercentData
  0108b	83 c4 14	 add	 esp, 20			; 00000014H
  0108e	50		 push	 eax
  0108f	8d 8d 08 fd ff
	ff		 lea	 ecx, DWORD PTR _strData$21[ebp]
  01095	c6 45 fc 2e	 mov	 BYTE PTR __$EHRec$[ebp+8], 46 ; 0000002eH
  01099	ff 15 00 00 00
	00		 call	 DWORD PTR __imp_??4?$CStringT@DV?$StrTraitMFC_DLL@DV?$ChTraitsCRT@D@ATL@@@@@ATL@@QAEAAV01@ABV01@@Z
  0109f	8d 8d 00 fd ff
	ff		 lea	 ecx, DWORD PTR $T19[ebp]
  010a5	c6 45 fc 2d	 mov	 BYTE PTR __$EHRec$[ebp+8], 45 ; 0000002dH
  010a9	ff 15 00 00 00
	00		 call	 DWORD PTR __imp_??1?$CStringT@DV?$StrTraitMFC_DLL@DV?$ChTraitsCRT@D@ATL@@@@@ATL@@QAE@XZ
; File C:\Program Files (x86)\Microsoft Visual Studio\2019\Community\VC\Tools\MSVC\14.29.30133\atlmfc\include\atlsimpstr.h

; 519  : 		return( GetData()->nDataLength );

  010af	8b 85 08 fd ff
	ff		 mov	 eax, DWORD PTR _strData$21[ebp]
; File D:\git\src\IBK\IBK_DRFN\ProjSrc\SrcDrfn\DrCommon\PartnerMng\ChartItemForeign.cpp

; 548  : 			memcpy(stBong.open, strData, min(strData.GetLength(), sizeof(stBong.open)));

  010b5	ba 0a 00 00 00	 mov	 edx, 10			; 0000000aH
  010ba	39 50 f4	 cmp	 DWORD PTR [eax-12], edx
  010bd	0f 42 50 f4	 cmovb	 edx, DWORD PTR [eax-12]
  010c1	52		 push	 edx
  010c2	50		 push	 eax
  010c3	8d 85 60 ff ff
	ff		 lea	 eax, DWORD PTR _stBong$38[ebp+8]
  010c9	50		 push	 eax
  010ca	e8 00 00 00 00	 call	 _memcpy

; 549  : 			// 
; 550  : 			strData = CDataConverter::Get_PercentData(stBong.high, dDenom, sizeof(stBong.high));

  010cf	f2 0f 10 85 d4
	fc ff ff	 movsd	 xmm0, QWORD PTR _dDenom$1$[ebp]
  010d7	8d 85 6a ff ff
	ff		 lea	 eax, DWORD PTR _stBong$38[ebp+18]
  010dd	83 c4 0c	 add	 esp, 12			; 0000000cH
  010e0	6a 0a		 push	 10			; 0000000aH
  010e2	83 ec 08	 sub	 esp, 8
  010e5	f2 0f 11 04 24	 movsd	 QWORD PTR [esp], xmm0
  010ea	50		 push	 eax
  010eb	8d 45 e8	 lea	 eax, DWORD PTR $T40[ebp]
  010ee	50		 push	 eax
  010ef	e8 00 00 00 00	 call	 ?Get_PercentData@CDataConverter@@SA?AV?$CStringT@DV?$StrTraitMFC_DLL@DV?$ChTraitsCRT@D@ATL@@@@@ATL@@PADNH@Z ; CDataConverter::Get_PercentData
  010f4	83 c4 14	 add	 esp, 20			; 00000014H
  010f7	50		 push	 eax
  010f8	8d 8d 08 fd ff
	ff		 lea	 ecx, DWORD PTR _strData$21[ebp]
  010fe	c6 45 fc 2f	 mov	 BYTE PTR __$EHRec$[ebp+8], 47 ; 0000002fH
  01102	ff 15 00 00 00
	00		 call	 DWORD PTR __imp_??4?$CStringT@DV?$StrTraitMFC_DLL@DV?$ChTraitsCRT@D@ATL@@@@@ATL@@QAEAAV01@ABV01@@Z
  01108	8d 4d e8	 lea	 ecx, DWORD PTR $T40[ebp]
  0110b	c6 45 fc 2d	 mov	 BYTE PTR __$EHRec$[ebp+8], 45 ; 0000002dH
  0110f	ff 15 00 00 00
	00		 call	 DWORD PTR __imp_??1?$CStringT@DV?$StrTraitMFC_DLL@DV?$ChTraitsCRT@D@ATL@@@@@ATL@@QAE@XZ
; File C:\Program Files (x86)\Microsoft Visual Studio\2019\Community\VC\Tools\MSVC\14.29.30133\atlmfc\include\atlsimpstr.h

; 519  : 		return( GetData()->nDataLength );

  01115	8b 85 08 fd ff
	ff		 mov	 eax, DWORD PTR _strData$21[ebp]
; File D:\git\src\IBK\IBK_DRFN\ProjSrc\SrcDrfn\DrCommon\PartnerMng\ChartItemForeign.cpp

; 551  : 			memcpy(stBong.high, strData, min(strData.GetLength(), sizeof(stBong.high)));

  0111b	ba 0a 00 00 00	 mov	 edx, 10			; 0000000aH
  01120	39 50 f4	 cmp	 DWORD PTR [eax-12], edx
  01123	0f 42 50 f4	 cmovb	 edx, DWORD PTR [eax-12]
  01127	52		 push	 edx
  01128	50		 push	 eax
  01129	8d 85 6a ff ff
	ff		 lea	 eax, DWORD PTR _stBong$38[ebp+18]
  0112f	50		 push	 eax
  01130	e8 00 00 00 00	 call	 _memcpy

; 552  : 			// 
; 553  : 			strData = CDataConverter::Get_PercentData(stBong.low, dDenom, sizeof(stBong.low));

  01135	f2 0f 10 85 d4
	fc ff ff	 movsd	 xmm0, QWORD PTR _dDenom$1$[ebp]
  0113d	8d 85 74 ff ff
	ff		 lea	 eax, DWORD PTR _stBong$38[ebp+28]
  01143	83 c4 0c	 add	 esp, 12			; 0000000cH
  01146	6a 0a		 push	 10			; 0000000aH
  01148	83 ec 08	 sub	 esp, 8
  0114b	f2 0f 11 04 24	 movsd	 QWORD PTR [esp], xmm0
  01150	50		 push	 eax
  01151	8d 85 c0 fc ff
	ff		 lea	 eax, DWORD PTR $T11[ebp]
  01157	50		 push	 eax
  01158	e8 00 00 00 00	 call	 ?Get_PercentData@CDataConverter@@SA?AV?$CStringT@DV?$StrTraitMFC_DLL@DV?$ChTraitsCRT@D@ATL@@@@@ATL@@PADNH@Z ; CDataConverter::Get_PercentData
  0115d	83 c4 14	 add	 esp, 20			; 00000014H
  01160	50		 push	 eax
  01161	8d 8d 08 fd ff
	ff		 lea	 ecx, DWORD PTR _strData$21[ebp]
  01167	c6 45 fc 30	 mov	 BYTE PTR __$EHRec$[ebp+8], 48 ; 00000030H
  0116b	ff 15 00 00 00
	00		 call	 DWORD PTR __imp_??4?$CStringT@DV?$StrTraitMFC_DLL@DV?$ChTraitsCRT@D@ATL@@@@@ATL@@QAEAAV01@ABV01@@Z
  01171	c6 45 fc 2d	 mov	 BYTE PTR __$EHRec$[ebp+8], 45 ; 0000002dH
  01175	8d 8d c0 fc ff
	ff		 lea	 ecx, DWORD PTR $T11[ebp]
  0117b	ff 15 00 00 00
	00		 call	 DWORD PTR __imp_??1?$CStringT@DV?$StrTraitMFC_DLL@DV?$ChTraitsCRT@D@ATL@@@@@ATL@@QAE@XZ
; File C:\Program Files (x86)\Microsoft Visual Studio\2019\Community\VC\Tools\MSVC\14.29.30133\atlmfc\include\atlsimpstr.h

; 519  : 		return( GetData()->nDataLength );

  01181	8b 85 08 fd ff
	ff		 mov	 eax, DWORD PTR _strData$21[ebp]
; File D:\git\src\IBK\IBK_DRFN\ProjSrc\SrcDrfn\DrCommon\PartnerMng\ChartItemForeign.cpp

; 554  : 			memcpy(stBong.low, strData, min(strData.GetLength(), sizeof(stBong.low)));

  01187	ba 0a 00 00 00	 mov	 edx, 10			; 0000000aH
  0118c	39 50 f4	 cmp	 DWORD PTR [eax-12], edx
  0118f	0f 42 50 f4	 cmovb	 edx, DWORD PTR [eax-12]
  01193	52		 push	 edx
  01194	50		 push	 eax
  01195	8d 85 74 ff ff
	ff		 lea	 eax, DWORD PTR _stBong$38[ebp+28]
  0119b	50		 push	 eax
  0119c	e8 00 00 00 00	 call	 _memcpy

; 555  : 			// 
; 556  : 			strData = CDataConverter::Get_PercentData(stBong.close, dDenom, sizeof(stBong.close));

  011a1	f2 0f 10 85 d4
	fc ff ff	 movsd	 xmm0, QWORD PTR _dDenom$1$[ebp]
  011a9	8d 85 7e ff ff
	ff		 lea	 eax, DWORD PTR _stBong$38[ebp+38]
  011af	83 c4 0c	 add	 esp, 12			; 0000000cH
  011b2	6a 0a		 push	 10			; 0000000aH
  011b4	83 ec 08	 sub	 esp, 8
  011b7	f2 0f 11 04 24	 movsd	 QWORD PTR [esp], xmm0
  011bc	50		 push	 eax
  011bd	8d 85 7c fc ff
	ff		 lea	 eax, DWORD PTR $T6[ebp]
  011c3	50		 push	 eax
  011c4	e8 00 00 00 00	 call	 ?Get_PercentData@CDataConverter@@SA?AV?$CStringT@DV?$StrTraitMFC_DLL@DV?$ChTraitsCRT@D@ATL@@@@@ATL@@PADNH@Z ; CDataConverter::Get_PercentData
  011c9	83 c4 14	 add	 esp, 20			; 00000014H
  011cc	50		 push	 eax
  011cd	8d 8d 08 fd ff
	ff		 lea	 ecx, DWORD PTR _strData$21[ebp]
  011d3	c6 45 fc 31	 mov	 BYTE PTR __$EHRec$[ebp+8], 49 ; 00000031H
  011d7	ff 15 00 00 00
	00		 call	 DWORD PTR __imp_??4?$CStringT@DV?$StrTraitMFC_DLL@DV?$ChTraitsCRT@D@ATL@@@@@ATL@@QAEAAV01@ABV01@@Z
  011dd	8d 8d 7c fc ff
	ff		 lea	 ecx, DWORD PTR $T6[ebp]
  011e3	c6 45 fc 2d	 mov	 BYTE PTR __$EHRec$[ebp+8], 45 ; 0000002dH
  011e7	ff 15 00 00 00
	00		 call	 DWORD PTR __imp_??1?$CStringT@DV?$StrTraitMFC_DLL@DV?$ChTraitsCRT@D@ATL@@@@@ATL@@QAE@XZ
; File C:\Program Files (x86)\Microsoft Visual Studio\2019\Community\VC\Tools\MSVC\14.29.30133\atlmfc\include\atlsimpstr.h

; 519  : 		return( GetData()->nDataLength );

  011ed	8b 85 08 fd ff
	ff		 mov	 eax, DWORD PTR _strData$21[ebp]
; File D:\git\src\IBK\IBK_DRFN\ProjSrc\SrcDrfn\DrCommon\PartnerMng\ChartItemForeign.cpp

; 557  : 			memcpy(stBong.close, strData, min(strData.GetLength(), sizeof(stBong.close)));

  011f3	ba 0a 00 00 00	 mov	 edx, 10			; 0000000aH
  011f8	39 50 f4	 cmp	 DWORD PTR [eax-12], edx
  011fb	0f 42 50 f4	 cmovb	 edx, DWORD PTR [eax-12]
  011ff	52		 push	 edx
  01200	50		 push	 eax
  01201	8d 85 7e ff ff
	ff		 lea	 eax, DWORD PTR _stBong$38[ebp+38]
  01207	50		 push	 eax
  01208	e8 00 00 00 00	 call	 _memcpy

; 558  : 			
; 559  : 			memcpy(&pDataBuf[nPosBong + nRow*nBongSize], &stBong, nBongSize);

  0120d	0f 10 85 58 ff
	ff ff		 movups	 xmm0, XMMWORD PTR _stBong$38[ebp]
  01214	0f b7 45 90	 movzx	 eax, WORD PTR _stBong$38[ebp+56]
  01218	83 c4 0c	 add	 esp, 12			; 0000000cH
  0121b	f2 0f 10 8d d4
	fc ff ff	 movsd	 xmm1, QWORD PTR _dDenom$1$[ebp]
  01223	0f 11 07	 movups	 XMMWORD PTR [edi], xmm0
  01226	0f 10 85 68 ff
	ff ff		 movups	 xmm0, XMMWORD PTR _stBong$38[ebp+16]
  0122d	0f 11 47 10	 movups	 XMMWORD PTR [edi+16], xmm0
  01231	0f 10 85 78 ff
	ff ff		 movups	 xmm0, XMMWORD PTR _stBong$38[ebp+32]
  01238	0f 11 47 20	 movups	 XMMWORD PTR [edi+32], xmm0
  0123c	f3 0f 7e 45 88	 movq	 xmm0, QWORD PTR _stBong$38[ebp+48]
  01241	66 0f d6 47 30	 movq	 QWORD PTR [edi+48], xmm0
  01246	66 89 47 38	 mov	 WORD PTR [edi+56], ax
  0124a	83 c7 3a	 add	 edi, 58			; 0000003aH
  0124d	8b 85 f8 fc ff
	ff		 mov	 eax, DWORD PTR _nRow$2$[ebp]
  01253	40		 inc	 eax
  01254	89 85 f8 fc ff
	ff		 mov	 DWORD PTR _nRow$2$[ebp], eax
  0125a	3b 85 d0 fc ff
	ff		 cmp	 eax, DWORD PTR _nCnt$1$[ebp]
  01260	0f 8c cd fd ff
	ff		 jl	 $LL11@Convert2St
$LN470@Convert2St:
  01266	8b b5 e8 fc ff
	ff		 mov	 esi, DWORD PTR _nType$1$[ebp]
  0126c	8b bd e4 fc ff
	ff		 mov	 edi, DWORD PTR _this$GSCopy$1$[ebp]
$LN457@Convert2St:

; 560  : 		}
; 561  : 	}

  01272	8d 8d 08 fd ff
	ff		 lea	 ecx, DWORD PTR _strData$21[ebp]
  01278	c6 45 fc 21	 mov	 BYTE PTR __$EHRec$[ebp+8], 33 ; 00000021H
  0127c	ff 15 00 00 00
	00		 call	 DWORD PTR __imp_??1?$CStringT@DV?$StrTraitMFC_DLL@DV?$ChTraitsCRT@D@ATL@@@@@ATL@@QAE@XZ
$LN41@Convert2St:

; 562  : 	//////////////////////////////////////////////////////////////////////////
; 563  : 	//   
; 564  : 	CChartBozoManager bojoMng;

  01282	8d 8d 68 fc ff
	ff		 lea	 ecx, DWORD PTR _bojoMng$[ebp]
  01288	e8 00 00 00 00	 call	 ??0CChartBozoManager@@QAE@XZ ; CChartBozoManager::CChartBozoManager

; 565  : 	m_bojoInput.m_sShcode = strCode;

  0128d	8d 85 b4 fc ff
	ff		 lea	 eax, DWORD PTR _strCode$[ebp]
  01293	50		 push	 eax
  01294	8d 4f 4c	 lea	 ecx, DWORD PTR [edi+76]
  01297	ff 15 00 00 00
	00		 call	 DWORD PTR __imp_??4?$CStringT@DV?$StrTraitMFC_DLL@DV?$ChTraitsCRT@D@ATL@@@@@ATL@@QAEAAV01@ABV01@@Z

; 566  : 	m_bojoInput.m_sPrice = strPrice;		// 

  0129d	8d 85 fc fc ff
	ff		 lea	 eax, DWORD PTR _strPrice$[ebp]
  012a3	50		 push	 eax
  012a4	8d 4f 60	 lea	 ecx, DWORD PTR [edi+96]
  012a7	ff 15 00 00 00
	00		 call	 DWORD PTR __imp_??4?$CStringT@DV?$StrTraitMFC_DLL@DV?$ChTraitsCRT@D@ATL@@@@@ATL@@QAEAAV01@ABV01@@Z

; 567  : 	m_bojoInput.m_sVolume = strVolume;		// 

  012ad	8d 85 b0 fc ff
	ff		 lea	 eax, DWORD PTR _strVolume$[ebp]
  012b3	50		 push	 eax
  012b4	8d 4f 64	 lea	 ecx, DWORD PTR [edi+100]
  012b7	ff 15 00 00 00
	00		 call	 DWORD PTR __imp_??4?$CStringT@DV?$StrTraitMFC_DLL@DV?$ChTraitsCRT@D@ATL@@@@@ATL@@QAEAAV01@ABV01@@Z

; 568  : //	m_bojoInput.m_sUpLmtPrice = strHighLimit;	// 
; 569  : //	m_bojoInput.m_sDnLmtPrice = strLowLimit;	// 
; 570  : 	m_bojoInput.m_sOpen = strOpen;		// 

  012bd	8d 85 dc fc ff
	ff		 lea	 eax, DWORD PTR _strOpen$[ebp]
  012c3	50		 push	 eax
  012c4	8d 4f 70	 lea	 ecx, DWORD PTR [edi+112]
  012c7	ff 15 00 00 00
	00		 call	 DWORD PTR __imp_??4?$CStringT@DV?$StrTraitMFC_DLL@DV?$ChTraitsCRT@D@ATL@@@@@ATL@@QAEAAV01@ABV01@@Z

; 571  : 	m_bojoInput.m_sHigh = strHigh;		// 

  012cd	8d 85 c4 fc ff
	ff		 lea	 eax, DWORD PTR _strHigh$[ebp]
  012d3	50		 push	 eax
  012d4	8d 4f 74	 lea	 ecx, DWORD PTR [edi+116]
  012d7	ff 15 00 00 00
	00		 call	 DWORD PTR __imp_??4?$CStringT@DV?$StrTraitMFC_DLL@DV?$ChTraitsCRT@D@ATL@@@@@ATL@@QAEAAV01@ABV01@@Z

; 572  : 	m_bojoInput.m_sLow = strLow;			// 

  012dd	8d 85 c8 fc ff
	ff		 lea	 eax, DWORD PTR _strLow$[ebp]
  012e3	50		 push	 eax
  012e4	8d 4f 78	 lea	 ecx, DWORD PTR [edi+120]
  012e7	ff 15 00 00 00
	00		 call	 DWORD PTR __imp_??4?$CStringT@DV?$StrTraitMFC_DLL@DV?$ChTraitsCRT@D@ATL@@@@@ATL@@QAEAAV01@ABV01@@Z

; 573  : 	//@Solomon:091123SM068 -->
; 574  : 	m_bojoInput.m_sPreOpen = strPreOpen;		// 

  012ed	8d 85 88 fc ff
	ff		 lea	 eax, DWORD PTR _strPreOpen$[ebp]
  012f3	50		 push	 eax
  012f4	8d 8f 8c 00 00
	00		 lea	 ecx, DWORD PTR [edi+140]
  012fa	ff 15 00 00 00
	00		 call	 DWORD PTR __imp_??4?$CStringT@DV?$StrTraitMFC_DLL@DV?$ChTraitsCRT@D@ATL@@@@@ATL@@QAEAAV01@ABV01@@Z

; 575  : 	m_bojoInput.m_sPreHigh = strPreHigh;		// 

  01300	8d 85 80 fc ff
	ff		 lea	 eax, DWORD PTR _strPreHigh$[ebp]
  01306	50		 push	 eax
  01307	8d 8f 90 00 00
	00		 lea	 ecx, DWORD PTR [edi+144]
  0130d	ff 15 00 00 00
	00		 call	 DWORD PTR __imp_??4?$CStringT@DV?$StrTraitMFC_DLL@DV?$ChTraitsCRT@D@ATL@@@@@ATL@@QAEAAV01@ABV01@@Z

; 576  : 	m_bojoInput.m_sPreLow = strPreLow;		// 

  01313	8d 85 84 fc ff
	ff		 lea	 eax, DWORD PTR _strPreLow$[ebp]
  01319	50		 push	 eax
  0131a	8d 8f 94 00 00
	00		 lea	 ecx, DWORD PTR [edi+148]
  01320	ff 15 00 00 00
	00		 call	 DWORD PTR __imp_??4?$CStringT@DV?$StrTraitMFC_DLL@DV?$ChTraitsCRT@D@ATL@@@@@ATL@@QAEAAV01@ABV01@@Z

; 577  : 	//@Solomon:091123SM068 <--
; 578  : 	m_bojoInput.m_sPreprice = strPrePrice;	// 

  01326	8d 85 ec fc ff
	ff		 lea	 eax, DWORD PTR _strPrePrice$[ebp]
  0132c	50		 push	 eax
  0132d	8d 4f 7c	 lea	 ecx, DWORD PTR [edi+124]
  01330	ff 15 00 00 00
	00		 call	 DWORD PTR __imp_??4?$CStringT@DV?$StrTraitMFC_DLL@DV?$ChTraitsCRT@D@ATL@@@@@ATL@@QAEAAV01@ABV01@@Z

; 579  : //	m_bojoInput.m_sPreVolume = strPreVolume;	// 
; 580  : //	m_bojoInput.m_sStartTime = "090000";	// (HHMMSS) <<!>>
; 581  : 	m_bojoInput.m_sFirstClose = CString(stFirstBong.close, sizeof(stFirstBong.close)) ;	//   .

  01336	6a 0a		 push	 10			; 0000000aH
  01338	8d 85 42 ff ff
	ff		 lea	 eax, DWORD PTR _stFirstBong$[ebp+38]
  0133e	50		 push	 eax
  0133f	8d 8d 00 fd ff
	ff		 lea	 ecx, DWORD PTR $T18[ebp]
  01345	ff 15 00 00 00
	00		 call	 DWORD PTR __imp_??0?$CStringT@DV?$StrTraitMFC_DLL@DV?$ChTraitsCRT@D@ATL@@@@@ATL@@QAE@PBDH@Z
  0134b	50		 push	 eax
  0134c	8d 8f 88 00 00
	00		 lea	 ecx, DWORD PTR [edi+136]
  01352	c6 45 fc 32	 mov	 BYTE PTR __$EHRec$[ebp+8], 50 ; 00000032H
  01356	ff 15 00 00 00
	00		 call	 DWORD PTR __imp_??4?$CStringT@DV?$StrTraitMFC_DLL@DV?$ChTraitsCRT@D@ATL@@@@@ATL@@QAEAAV01@ABV01@@Z
  0135c	8d 8d 00 fd ff
	ff		 lea	 ecx, DWORD PTR $T18[ebp]
  01362	c6 45 fc 21	 mov	 BYTE PTR __$EHRec$[ebp+8], 33 ; 00000021H
  01366	ff 15 00 00 00
	00		 call	 DWORD PTR __imp_??1?$CStringT@DV?$StrTraitMFC_DLL@DV?$ChTraitsCRT@D@ATL@@@@@ATL@@QAE@XZ

; 582  : 
; 583  : 	m_bojoInput.m_sDataType = _T("0");		//	.   .

  0136c	68 00 00 00 00	 push	 OFFSET ??_C@_01GBGANLPD@0@
  01371	8d 4f 5c	 lea	 ecx, DWORD PTR [edi+92]
  01374	ff 15 00 00 00
	00		 call	 DWORD PTR __imp_??4?$CStringT@DV?$StrTraitMFC_DLL@DV?$ChTraitsCRT@D@ATL@@@@@ATL@@QAEAAV01@PBD@Z

; 584  : 	m_bojoInput.m_sMarket = _T("1");			//	.   .

  0137a	68 00 00 00 00	 push	 OFFSET ??_C@_01HIHLOKLC@1@
  0137f	8d 4f 48	 lea	 ecx, DWORD PTR [edi+72]
  01382	ff 15 00 00 00
	00		 call	 DWORD PTR __imp_??4?$CStringT@DV?$StrTraitMFC_DLL@DV?$ChTraitsCRT@D@ATL@@@@@ATL@@QAEAAV01@PBD@Z

; 585  : 	m_bojoInput.m_sNxtFlg = m_InData.nflag[0];

  01388	0f b6 47 24	 movzx	 eax, BYTE PTR [edi+36]
  0138c	8d 4f 58	 lea	 ecx, DWORD PTR [edi+88]
  0138f	50		 push	 eax
  01390	ff 15 00 00 00
	00		 call	 DWORD PTR __imp_??4?$CStringT@DV?$StrTraitMFC_DLL@DV?$ChTraitsCRT@D@ATL@@@@@ATL@@QAEAAV01@D@Z

; 586  : 
; 587  : 	if(nType == 0)

  01396	85 f6		 test	 esi, esi
  01398	75 29		 jne	 SHORT $LN48@Convert2St

; 588  : 	{
; 589  : 		m_bojoInput.m_sTerm = "0";	//	

  0139a	68 00 00 00 00	 push	 OFFSET ??_C@_01GBGANLPD@0@
  0139f	8d 4f 54	 lea	 ecx, DWORD PTR [edi+84]
  013a2	ff 15 00 00 00
	00		 call	 DWORD PTR __imp_??4?$CStringT@DV?$StrTraitMFC_DLL@DV?$ChTraitsCRT@D@ATL@@@@@ATL@@QAEAAV01@PBD@Z

; 590  : 		m_bojoInput.m_sTick = CString(m_InData.unit, sizeof(m_InData.unit));

  013a8	6a 03		 push	 3
  013aa	8d 47 20	 lea	 eax, DWORD PTR [edi+32]
  013ad	50		 push	 eax
  013ae	8d 8d 00 fd ff
	ff		 lea	 ecx, DWORD PTR $T17[ebp]
  013b4	ff 15 00 00 00
	00		 call	 DWORD PTR __imp_??0?$CStringT@DV?$StrTraitMFC_DLL@DV?$ChTraitsCRT@D@ATL@@@@@ATL@@QAE@PBDH@Z
  013ba	c6 45 fc 33	 mov	 BYTE PTR __$EHRec$[ebp+8], 51 ; 00000033H

; 591  : 	}

  013be	e9 b3 00 00 00	 jmp	 $LN476@Convert2St
$LN48@Convert2St:

; 592  : 	else if(nType == 1)

  013c3	83 fe 01	 cmp	 esi, 1
  013c6	0f 85 81 00 00
	00		 jne	 $LN50@Convert2St

; 593  : 	{
; 594  : 		m_bojoInput.m_sTerm = "1";	//	

  013cc	68 00 00 00 00	 push	 OFFSET ??_C@_01HIHLOKLC@1@
  013d1	8d 4f 54	 lea	 ecx, DWORD PTR [edi+84]
  013d4	ff 15 00 00 00
	00		 call	 DWORD PTR __imp_??4?$CStringT@DV?$StrTraitMFC_DLL@DV?$ChTraitsCRT@D@ATL@@@@@ATL@@QAEAAV01@PBD@Z

; 595  : 		m_bojoInput.m_sTick = CString(m_InData.unit, sizeof(m_InData.unit));

  013da	6a 03		 push	 3
  013dc	8d 47 20	 lea	 eax, DWORD PTR [edi+32]
  013df	50		 push	 eax
  013e0	8d 8d 00 fd ff
	ff		 lea	 ecx, DWORD PTR $T16[ebp]
  013e6	ff 15 00 00 00
	00		 call	 DWORD PTR __imp_??0?$CStringT@DV?$StrTraitMFC_DLL@DV?$ChTraitsCRT@D@ATL@@@@@ATL@@QAE@PBDH@Z
  013ec	8d 77 50	 lea	 esi, DWORD PTR [edi+80]
  013ef	c6 45 fc 34	 mov	 BYTE PTR __$EHRec$[ebp+8], 52 ; 00000034H
  013f3	50		 push	 eax
  013f4	8b ce		 mov	 ecx, esi
  013f6	ff 15 00 00 00
	00		 call	 DWORD PTR __imp_??4?$CStringT@DV?$StrTraitMFC_DLL@DV?$ChTraitsCRT@D@ATL@@@@@ATL@@QAEAAV01@ABV01@@Z
  013fc	8d 8d 00 fd ff
	ff		 lea	 ecx, DWORD PTR $T16[ebp]
  01402	c6 45 fc 21	 mov	 BYTE PTR __$EHRec$[ebp+8], 33 ; 00000021H
  01406	ff 15 00 00 00
	00		 call	 DWORD PTR __imp_??1?$CStringT@DV?$StrTraitMFC_DLL@DV?$ChTraitsCRT@D@ATL@@@@@ATL@@QAE@XZ

; 596  : 		//{{JS.Kim_20100903 Solomon 60      
; 597  : 		int nTick = atoi(m_bojoInput.m_sTick);

  0140c	ff 36		 push	 DWORD PTR [esi]
  0140e	ff 15 00 00 00
	00		 call	 DWORD PTR __imp__atoi
  01414	8b c8		 mov	 ecx, eax
  01416	83 c4 04	 add	 esp, 4

; 598  : 		if( nTick >= 60 )

  01419	83 f9 3c	 cmp	 ecx, 60			; 0000003cH
  0141c	0f 8c 92 00 00
	00		 jl	 $LN55@Convert2St

; 599  : 			m_bojoInput.m_sTick.Format("%d", (nTick/ 60) * 100 + nTick % 60);

  01422	b8 89 88 88 88	 mov	 eax, -2004318071	; 88888889H
  01427	f7 e9		 imul	 ecx
  01429	03 d1		 add	 edx, ecx
  0142b	c1 fa 05	 sar	 edx, 5
  0142e	8b c2		 mov	 eax, edx
  01430	c1 e8 1f	 shr	 eax, 31			; 0000001fH
  01433	03 c2		 add	 eax, edx
  01435	8d 04 80	 lea	 eax, DWORD PTR [eax+eax*4]
  01438	8d 04 c1	 lea	 eax, DWORD PTR [ecx+eax*8]
  0143b	50		 push	 eax
  0143c	68 00 00 00 00	 push	 OFFSET ??_C@_02DPKJAMEF@?$CFd@
  01441	56		 push	 esi
  01442	ff 15 00 00 00
	00		 call	 DWORD PTR __imp_?Format@?$CStringT@DV?$StrTraitMFC_DLL@DV?$ChTraitsCRT@D@ATL@@@@@ATL@@QAAXPBDZZ
  01448	83 c4 0c	 add	 esp, 12			; 0000000cH

; 600  : 		//}}
; 601  : 	}

  0144b	eb 67		 jmp	 SHORT $LN55@Convert2St
$LN50@Convert2St:

; 602  : 	else if(nType == 6)

  0144d	83 fe 06	 cmp	 esi, 6
  01450	75 3c		 jne	 SHORT $LN53@Convert2St

; 603  : 	{
; 604  : 		m_bojoInput.m_sTerm = "6";	//	

  01452	68 00 00 00 00	 push	 OFFSET ??_C@_01DHDKHMHF@6@
  01457	8d 4f 54	 lea	 ecx, DWORD PTR [edi+84]
  0145a	ff 15 00 00 00
	00		 call	 DWORD PTR __imp_??4?$CStringT@DV?$StrTraitMFC_DLL@DV?$ChTraitsCRT@D@ATL@@@@@ATL@@QAEAAV01@PBD@Z

; 605  : 		m_bojoInput.m_sTick = CString(m_InData.unit, sizeof(m_InData.unit));

  01460	6a 03		 push	 3
  01462	8d 47 20	 lea	 eax, DWORD PTR [edi+32]
  01465	50		 push	 eax
  01466	8d 8d 00 fd ff
	ff		 lea	 ecx, DWORD PTR $T15[ebp]
  0146c	ff 15 00 00 00
	00		 call	 DWORD PTR __imp_??0?$CStringT@DV?$StrTraitMFC_DLL@DV?$ChTraitsCRT@D@ATL@@@@@ATL@@QAE@PBDH@Z
  01472	c6 45 fc 35	 mov	 BYTE PTR __$EHRec$[ebp+8], 53 ; 00000035H
$LN476@Convert2St:

; 611  : 	}
; 612  : 
; 613  : 	CString strBozo;

  01476	50		 push	 eax
  01477	8d 4f 50	 lea	 ecx, DWORD PTR [edi+80]
  0147a	ff 15 00 00 00
	00		 call	 DWORD PTR __imp_??4?$CStringT@DV?$StrTraitMFC_DLL@DV?$ChTraitsCRT@D@ATL@@@@@ATL@@QAEAAV01@ABV01@@Z
  01480	8d 8d 00 fd ff
	ff		 lea	 ecx, DWORD PTR $T15[ebp]
  01486	ff 15 00 00 00
	00		 call	 DWORD PTR __imp_??1?$CStringT@DV?$StrTraitMFC_DLL@DV?$ChTraitsCRT@D@ATL@@@@@ATL@@QAE@XZ
  0148c	eb 26		 jmp	 SHORT $LN55@Convert2St
$LN53@Convert2St:

; 606  : 	}
; 607  : 	else if(nType >= 2)

  0148e	83 fe 02	 cmp	 esi, 2
  01491	7c 21		 jl	 SHORT $LN55@Convert2St

; 608  : 	{
; 609  : 		m_bojoInput.m_sTerm.Format("%d", nType);	//	,,

  01493	56		 push	 esi
  01494	8d 47 54	 lea	 eax, DWORD PTR [edi+84]
  01497	68 00 00 00 00	 push	 OFFSET ??_C@_02DPKJAMEF@?$CFd@
  0149c	50		 push	 eax
  0149d	ff 15 00 00 00
	00		 call	 DWORD PTR __imp_?Format@?$CStringT@DV?$StrTraitMFC_DLL@DV?$ChTraitsCRT@D@ATL@@@@@ATL@@QAAXPBDZZ
  014a3	83 c4 0c	 add	 esp, 12			; 0000000cH

; 610  : 		m_bojoInput.m_sTick = _T("1");

  014a6	8d 4f 50	 lea	 ecx, DWORD PTR [edi+80]
  014a9	68 00 00 00 00	 push	 OFFSET ??_C@_01HIHLOKLC@1@
  014ae	ff 15 00 00 00
	00		 call	 DWORD PTR __imp_??4?$CStringT@DV?$StrTraitMFC_DLL@DV?$ChTraitsCRT@D@ATL@@@@@ATL@@QAEAAV01@PBD@Z
$LN55@Convert2St:

; 611  : 	}
; 612  : 
; 613  : 	CString strBozo;

  014b4	8d 8d 64 fc ff
	ff		 lea	 ecx, DWORD PTR _strBozo$[ebp]
  014ba	ff 15 00 00 00
	00		 call	 DWORD PTR __imp_??0?$CStringT@DV?$StrTraitMFC_DLL@DV?$ChTraitsCRT@D@ATL@@@@@ATL@@QAE@XZ

; 614  : 	char szKey[4];
; 615  : 	memset(szKey, 0x00, sizeof(szKey));
; 616  : 	sprintf(szKey, _T("%03d"), 104); // 103 

  014c0	6a 68		 push	 104			; 00000068H
  014c2	8d 85 8c fc ff
	ff		 lea	 eax, DWORD PTR _szKey$[ebp]
  014c8	c7 85 8c fc ff
	ff 00 00 00 00	 mov	 DWORD PTR _szKey$[ebp], 0
  014d2	68 00 00 00 00	 push	 OFFSET ??_C@_04OHGLKFFN@?$CF03d@
  014d7	50		 push	 eax
  014d8	e8 00 00 00 00	 call	 _sprintf
  014dd	83 c4 0c	 add	 esp, 12			; 0000000cH

; 617  : 	
; 618  : 	nSize = bojoMng.GetChartBozoMsg(szKey, &m_bojoInput, strNode);

  014e0	8d 85 0c fd ff
	ff		 lea	 eax, DWORD PTR _strNode$[ebp]
  014e6	6a 00		 push	 0
  014e8	50		 push	 eax
  014e9	8d 47 44	 lea	 eax, DWORD PTR [edi+68]
  014ec	50		 push	 eax
  014ed	8d 85 8c fc ff
	ff		 lea	 eax, DWORD PTR _szKey$[ebp]
  014f3	50		 push	 eax
  014f4	8d 85 68 fc ff
	ff		 lea	 eax, DWORD PTR _bojoMng$[ebp]
  014fa	50		 push	 eax
  014fb	e8 00 00 00 00	 call	 ?GetChartBozoMsg@CChartBozoManager@@UAGHPBDPAVCChartBozoInput@@AAV?$CStringT@DV?$StrTraitMFC_DLL@DV?$ChTraitsCRT@D@ATL@@@@@ATL@@H@Z ; CChartBozoManager::GetChartBozoMsg

; 619  : 	memcpy(stOut.bojomsg, strNode, nSize);

  01500	50		 push	 eax
  01501	ff b5 0c fd ff
	ff		 push	 DWORD PTR _strNode$[ebp]
  01507	8d 85 8c fd ff
	ff		 lea	 eax, DWORD PTR _stOut$[ebp+120]
  0150d	50		 push	 eax
  0150e	e8 00 00 00 00	 call	 _memcpy

; 620  : 	memcpy(stOut.bojomsg, "0396", 4);
; 621  : 
; 622  : 	memcpy(pDataBuf, &stOut, sizeof(stOut));

  01513	8b bd b8 fc ff
	ff		 mov	 edi, DWORD PTR _pDataBuf$1$[ebp]
  01519	8d b5 14 fd ff
	ff		 lea	 esi, DWORD PTR _stOut$[ebp]
  0151f	b9 82 00 00 00	 mov	 ecx, 130		; 00000082H
  01524	c7 85 8c fd ff
	ff 30 33 39 36	 mov	 DWORD PTR _stOut$[ebp+120], 909718320 ; 36393330H
  0152e	83 c4 0c	 add	 esp, 12			; 0000000cH
  01531	f3 a5		 rep movsd

; 623  : 
; 624  : 	return pDataBuf;

  01533	8d 8d 64 fc ff
	ff		 lea	 ecx, DWORD PTR _strBozo$[ebp]
  01539	ff 15 00 00 00
	00		 call	 DWORD PTR __imp_??1?$CStringT@DV?$StrTraitMFC_DLL@DV?$ChTraitsCRT@D@ATL@@@@@ATL@@QAE@XZ
  0153f	8d 8d e0 fc ff
	ff		 lea	 ecx, DWORD PTR _strTime$[ebp]
  01545	ff 15 00 00 00
	00		 call	 DWORD PTR __imp_??1?$CStringT@DV?$StrTraitMFC_DLL@DV?$ChTraitsCRT@D@ATL@@@@@ATL@@QAE@XZ
  0154b	8d 8d f0 fc ff
	ff		 lea	 ecx, DWORD PTR _strDate$[ebp]
  01551	ff 15 00 00 00
	00		 call	 DWORD PTR __imp_??1?$CStringT@DV?$StrTraitMFC_DLL@DV?$ChTraitsCRT@D@ATL@@@@@ATL@@QAE@XZ
  01557	8d 8d 90 fc ff
	ff		 lea	 ecx, DWORD PTR _arrNode$[ebp]
  0155d	e8 00 00 00 00	 call	 ??1CStringArray@@UAE@XZ	; CStringArray::~CStringArray
  01562	8d 8d cc fc ff
	ff		 lea	 ecx, DWORD PTR _strNextKey$[ebp]
  01568	ff 15 00 00 00
	00		 call	 DWORD PTR __imp_??1?$CStringT@DV?$StrTraitMFC_DLL@DV?$ChTraitsCRT@D@ATL@@@@@ATL@@QAE@XZ
  0156e	8d 8d 88 fc ff
	ff		 lea	 ecx, DWORD PTR _strPreOpen$[ebp]
  01574	ff 15 00 00 00
	00		 call	 DWORD PTR __imp_??1?$CStringT@DV?$StrTraitMFC_DLL@DV?$ChTraitsCRT@D@ATL@@@@@ATL@@QAE@XZ
  0157a	8d 8d 84 fc ff
	ff		 lea	 ecx, DWORD PTR _strPreLow$[ebp]
  01580	ff 15 00 00 00
	00		 call	 DWORD PTR __imp_??1?$CStringT@DV?$StrTraitMFC_DLL@DV?$ChTraitsCRT@D@ATL@@@@@ATL@@QAE@XZ
  01586	8d 8d 80 fc ff
	ff		 lea	 ecx, DWORD PTR _strPreHigh$[ebp]
  0158c	ff 15 00 00 00
	00		 call	 DWORD PTR __imp_??1?$CStringT@DV?$StrTraitMFC_DLL@DV?$ChTraitsCRT@D@ATL@@@@@ATL@@QAE@XZ
  01592	8d 8d 60 fc ff
	ff		 lea	 ecx, DWORD PTR _strLowLimit$[ebp]
  01598	ff 15 00 00 00
	00		 call	 DWORD PTR __imp_??1?$CStringT@DV?$StrTraitMFC_DLL@DV?$ChTraitsCRT@D@ATL@@@@@ATL@@QAE@XZ
  0159e	8d 8d 5c fc ff
	ff		 lea	 ecx, DWORD PTR _strHighLimit$[ebp]
  015a4	ff 15 00 00 00
	00		 call	 DWORD PTR __imp_??1?$CStringT@DV?$StrTraitMFC_DLL@DV?$ChTraitsCRT@D@ATL@@@@@ATL@@QAE@XZ
  015aa	8d 8d dc fc ff
	ff		 lea	 ecx, DWORD PTR _strOpen$[ebp]
  015b0	ff 15 00 00 00
	00		 call	 DWORD PTR __imp_??1?$CStringT@DV?$StrTraitMFC_DLL@DV?$ChTraitsCRT@D@ATL@@@@@ATL@@QAE@XZ
  015b6	8d 8d c8 fc ff
	ff		 lea	 ecx, DWORD PTR _strLow$[ebp]
  015bc	ff 15 00 00 00
	00		 call	 DWORD PTR __imp_??1?$CStringT@DV?$StrTraitMFC_DLL@DV?$ChTraitsCRT@D@ATL@@@@@ATL@@QAE@XZ
  015c2	8d 8d c4 fc ff
	ff		 lea	 ecx, DWORD PTR _strHigh$[ebp]
  015c8	ff 15 00 00 00
	00		 call	 DWORD PTR __imp_??1?$CStringT@DV?$StrTraitMFC_DLL@DV?$ChTraitsCRT@D@ATL@@@@@ATL@@QAE@XZ
  015ce	8d 8d b0 fc ff
	ff		 lea	 ecx, DWORD PTR _strVolume$[ebp]
  015d4	ff 15 00 00 00
	00		 call	 DWORD PTR __imp_??1?$CStringT@DV?$StrTraitMFC_DLL@DV?$ChTraitsCRT@D@ATL@@@@@ATL@@QAE@XZ
  015da	8d 8d ec fc ff
	ff		 lea	 ecx, DWORD PTR _strPrePrice$[ebp]
  015e0	ff 15 00 00 00
	00		 call	 DWORD PTR __imp_??1?$CStringT@DV?$StrTraitMFC_DLL@DV?$ChTraitsCRT@D@ATL@@@@@ATL@@QAE@XZ
  015e6	8d 8d fc fc ff
	ff		 lea	 ecx, DWORD PTR _strPrice$[ebp]
  015ec	ff 15 00 00 00
	00		 call	 DWORD PTR __imp_??1?$CStringT@DV?$StrTraitMFC_DLL@DV?$ChTraitsCRT@D@ATL@@@@@ATL@@QAE@XZ
  015f2	8d 8d 58 fc ff
	ff		 lea	 ecx, DWORD PTR _strLock$[ebp]
  015f8	ff 15 00 00 00
	00		 call	 DWORD PTR __imp_??1?$CStringT@DV?$StrTraitMFC_DLL@DV?$ChTraitsCRT@D@ATL@@@@@ATL@@QAE@XZ
  015fe	8d 8d b4 fc ff
	ff		 lea	 ecx, DWORD PTR _strCode$[ebp]
  01604	ff 15 00 00 00
	00		 call	 DWORD PTR __imp_??1?$CStringT@DV?$StrTraitMFC_DLL@DV?$ChTraitsCRT@D@ATL@@@@@ATL@@QAE@XZ
  0160a	8d 8d 0c fd ff
	ff		 lea	 ecx, DWORD PTR _strNode$[ebp]
  01610	ff 15 00 00 00
	00		 call	 DWORD PTR __imp_??1?$CStringT@DV?$StrTraitMFC_DLL@DV?$ChTraitsCRT@D@ATL@@@@@ATL@@QAE@XZ
  01616	8d 8d 04 fd ff
	ff		 lea	 ecx, DWORD PTR _strSrc$[ebp]
  0161c	ff 15 00 00 00
	00		 call	 DWORD PTR __imp_??1?$CStringT@DV?$StrTraitMFC_DLL@DV?$ChTraitsCRT@D@ATL@@@@@ATL@@QAE@XZ
  01622	8b 85 b8 fc ff
	ff		 mov	 eax, DWORD PTR _pDataBuf$1$[ebp]

; 625  : }

  01628	8b 4d f4	 mov	 ecx, DWORD PTR __$EHRec$[ebp]
  0162b	64 89 0d 00 00
	00 00		 mov	 DWORD PTR fs:0, ecx
  01632	59		 pop	 ecx
  01633	5f		 pop	 edi
  01634	5e		 pop	 esi
  01635	8b 4d f0	 mov	 ecx, DWORD PTR __$ArrayPad$[ebp]
  01638	33 cd		 xor	 ecx, ebp
  0163a	e8 00 00 00 00	 call	 @__security_check_cookie@4
  0163f	8b e5		 mov	 esp, ebp
  01641	5d		 pop	 ebp
  01642	c2 10 00	 ret	 16			; 00000010H
$LN258@Convert2St:
; File C:\Program Files (x86)\Microsoft Visual Studio\2019\Community\VC\Tools\MSVC\14.29.30133\atlmfc\include\afxcoll.inl

; 290  : 			AfxThrowInvalidArgException();

  01645	e8 00 00 00 00	 call	 ?AfxThrowInvalidArgException@@YGXXZ ; AfxThrowInvalidArgException
$LN474@Convert2St:
  0164a	66 90		 npad	 2
$LN468@Convert2St:
; File D:\git\src\IBK\IBK_DRFN\ProjSrc\SrcDrfn\DrCommon\PartnerMng\ChartItemForeign.cpp

; 625  : }

  0164c	00 00 00 00	 DD	 $LN42@Convert2St
  01650	00 00 00 00	 DD	 $LN43@Convert2St
  01654	00 00 00 00	 DD	 $LN7@Convert2St
  01658	00 00 00 00	 DD	 $LN45@Convert2St
  0165c	00 00 00 00	 DD	 $LN46@Convert2St
_TEXT	ENDS
;	COMDAT text$x
text$x	SEGMENT
__unwindfunclet$?Convert2Struct@CChartItemForeign@@QAEPADPAEHHAAH@Z$0:
  00000	8d 8d 04 fd ff
	ff		 lea	 ecx, DWORD PTR _strSrc$[ebp]
  00006	ff 25 00 00 00
	00		 jmp	 DWORD PTR __imp_??1?$CStringT@DV?$StrTraitMFC_DLL@DV?$ChTraitsCRT@D@ATL@@@@@ATL@@QAE@XZ
__unwindfunclet$?Convert2Struct@CChartItemForeign@@QAEPADPAEHHAAH@Z$1:
  0000c	8d 8d 0c fd ff
	ff		 lea	 ecx, DWORD PTR _strNode$[ebp]
  00012	ff 25 00 00 00
	00		 jmp	 DWORD PTR __imp_??1?$CStringT@DV?$StrTraitMFC_DLL@DV?$ChTraitsCRT@D@ATL@@@@@ATL@@QAE@XZ
__unwindfunclet$?Convert2Struct@CChartItemForeign@@QAEPADPAEHHAAH@Z$2:
  00018	8d 8d b4 fc ff
	ff		 lea	 ecx, DWORD PTR _strCode$[ebp]
  0001e	ff 25 00 00 00
	00		 jmp	 DWORD PTR __imp_??1?$CStringT@DV?$StrTraitMFC_DLL@DV?$ChTraitsCRT@D@ATL@@@@@ATL@@QAE@XZ
__unwindfunclet$?Convert2Struct@CChartItemForeign@@QAEPADPAEHHAAH@Z$3:
  00024	8d 8d 58 fc ff
	ff		 lea	 ecx, DWORD PTR _strLock$[ebp]
  0002a	ff 25 00 00 00
	00		 jmp	 DWORD PTR __imp_??1?$CStringT@DV?$StrTraitMFC_DLL@DV?$ChTraitsCRT@D@ATL@@@@@ATL@@QAE@XZ
__unwindfunclet$?Convert2Struct@CChartItemForeign@@QAEPADPAEHHAAH@Z$4:
  00030	8d 8d fc fc ff
	ff		 lea	 ecx, DWORD PTR _strPrice$[ebp]
  00036	ff 25 00 00 00
	00		 jmp	 DWORD PTR __imp_??1?$CStringT@DV?$StrTraitMFC_DLL@DV?$ChTraitsCRT@D@ATL@@@@@ATL@@QAE@XZ
__unwindfunclet$?Convert2Struct@CChartItemForeign@@QAEPADPAEHHAAH@Z$5:
  0003c	8d 8d ec fc ff
	ff		 lea	 ecx, DWORD PTR _strPrePrice$[ebp]
  00042	ff 25 00 00 00
	00		 jmp	 DWORD PTR __imp_??1?$CStringT@DV?$StrTraitMFC_DLL@DV?$ChTraitsCRT@D@ATL@@@@@ATL@@QAE@XZ
__unwindfunclet$?Convert2Struct@CChartItemForeign@@QAEPADPAEHHAAH@Z$6:
  00048	8d 8d b0 fc ff
	ff		 lea	 ecx, DWORD PTR _strVolume$[ebp]
  0004e	ff 25 00 00 00
	00		 jmp	 DWORD PTR __imp_??1?$CStringT@DV?$StrTraitMFC_DLL@DV?$ChTraitsCRT@D@ATL@@@@@ATL@@QAE@XZ
__unwindfunclet$?Convert2Struct@CChartItemForeign@@QAEPADPAEHHAAH@Z$7:
  00054	8d 8d c4 fc ff
	ff		 lea	 ecx, DWORD PTR _strHigh$[ebp]
  0005a	ff 25 00 00 00
	00		 jmp	 DWORD PTR __imp_??1?$CStringT@DV?$StrTraitMFC_DLL@DV?$ChTraitsCRT@D@ATL@@@@@ATL@@QAE@XZ
__unwindfunclet$?Convert2Struct@CChartItemForeign@@QAEPADPAEHHAAH@Z$8:
  00060	8d 8d c8 fc ff
	ff		 lea	 ecx, DWORD PTR _strLow$[ebp]
  00066	ff 25 00 00 00
	00		 jmp	 DWORD PTR __imp_??1?$CStringT@DV?$StrTraitMFC_DLL@DV?$ChTraitsCRT@D@ATL@@@@@ATL@@QAE@XZ
__unwindfunclet$?Convert2Struct@CChartItemForeign@@QAEPADPAEHHAAH@Z$9:
  0006c	8d 8d dc fc ff
	ff		 lea	 ecx, DWORD PTR _strOpen$[ebp]
  00072	ff 25 00 00 00
	00		 jmp	 DWORD PTR __imp_??1?$CStringT@DV?$StrTraitMFC_DLL@DV?$ChTraitsCRT@D@ATL@@@@@ATL@@QAE@XZ
__unwindfunclet$?Convert2Struct@CChartItemForeign@@QAEPADPAEHHAAH@Z$10:
  00078	8d 8d 5c fc ff
	ff		 lea	 ecx, DWORD PTR _strHighLimit$[ebp]
  0007e	ff 25 00 00 00
	00		 jmp	 DWORD PTR __imp_??1?$CStringT@DV?$StrTraitMFC_DLL@DV?$ChTraitsCRT@D@ATL@@@@@ATL@@QAE@XZ
__unwindfunclet$?Convert2Struct@CChartItemForeign@@QAEPADPAEHHAAH@Z$11:
  00084	8d 8d 60 fc ff
	ff		 lea	 ecx, DWORD PTR _strLowLimit$[ebp]
  0008a	ff 25 00 00 00
	00		 jmp	 DWORD PTR __imp_??1?$CStringT@DV?$StrTraitMFC_DLL@DV?$ChTraitsCRT@D@ATL@@@@@ATL@@QAE@XZ
__unwindfunclet$?Convert2Struct@CChartItemForeign@@QAEPADPAEHHAAH@Z$12:
  00090	8d 8d 80 fc ff
	ff		 lea	 ecx, DWORD PTR _strPreHigh$[ebp]
  00096	ff 25 00 00 00
	00		 jmp	 DWORD PTR __imp_??1?$CStringT@DV?$StrTraitMFC_DLL@DV?$ChTraitsCRT@D@ATL@@@@@ATL@@QAE@XZ
__unwindfunclet$?Convert2Struct@CChartItemForeign@@QAEPADPAEHHAAH@Z$13:
  0009c	8d 8d 84 fc ff
	ff		 lea	 ecx, DWORD PTR _strPreLow$[ebp]
  000a2	ff 25 00 00 00
	00		 jmp	 DWORD PTR __imp_??1?$CStringT@DV?$StrTraitMFC_DLL@DV?$ChTraitsCRT@D@ATL@@@@@ATL@@QAE@XZ
__unwindfunclet$?Convert2Struct@CChartItemForeign@@QAEPADPAEHHAAH@Z$14:
  000a8	8d 8d 88 fc ff
	ff		 lea	 ecx, DWORD PTR _strPreOpen$[ebp]
  000ae	ff 25 00 00 00
	00		 jmp	 DWORD PTR __imp_??1?$CStringT@DV?$StrTraitMFC_DLL@DV?$ChTraitsCRT@D@ATL@@@@@ATL@@QAE@XZ
__unwindfunclet$?Convert2Struct@CChartItemForeign@@QAEPADPAEHHAAH@Z$16:
  000b4	8d 8d 10 fd ff
	ff		 lea	 ecx, DWORD PTR $T37[ebp]
  000ba	ff 25 00 00 00
	00		 jmp	 DWORD PTR __imp_??1?$CStringT@DV?$StrTraitMFC_DLL@DV?$ChTraitsCRT@D@ATL@@@@@ATL@@QAE@XZ
__unwindfunclet$?Convert2Struct@CChartItemForeign@@QAEPADPAEHHAAH@Z$18:
  000c0	8d 8d 10 fd ff
	ff		 lea	 ecx, DWORD PTR $T36[ebp]
  000c6	ff 25 00 00 00
	00		 jmp	 DWORD PTR __imp_??1?$CStringT@DV?$StrTraitMFC_DLL@DV?$ChTraitsCRT@D@ATL@@@@@ATL@@QAE@XZ
__unwindfunclet$?Convert2Struct@CChartItemForeign@@QAEPADPAEHHAAH@Z$20:
  000cc	8d 8d 10 fd ff
	ff		 lea	 ecx, DWORD PTR $T35[ebp]
  000d2	ff 25 00 00 00
	00		 jmp	 DWORD PTR __imp_??1?$CStringT@DV?$StrTraitMFC_DLL@DV?$ChTraitsCRT@D@ATL@@@@@ATL@@QAE@XZ
__unwindfunclet$?Convert2Struct@CChartItemForeign@@QAEPADPAEHHAAH@Z$22:
  000d8	8d 8d 10 fd ff
	ff		 lea	 ecx, DWORD PTR $T34[ebp]
  000de	ff 25 00 00 00
	00		 jmp	 DWORD PTR __imp_??1?$CStringT@DV?$StrTraitMFC_DLL@DV?$ChTraitsCRT@D@ATL@@@@@ATL@@QAE@XZ
__unwindfunclet$?Convert2Struct@CChartItemForeign@@QAEPADPAEHHAAH@Z$24:
  000e4	8d 8d 10 fd ff
	ff		 lea	 ecx, DWORD PTR $T33[ebp]
  000ea	ff 25 00 00 00
	00		 jmp	 DWORD PTR __imp_??1?$CStringT@DV?$StrTraitMFC_DLL@DV?$ChTraitsCRT@D@ATL@@@@@ATL@@QAE@XZ
__unwindfunclet$?Convert2Struct@CChartItemForeign@@QAEPADPAEHHAAH@Z$25:
  000f0	8d 8d 10 fd ff
	ff		 lea	 ecx, DWORD PTR $T32[ebp]
  000f6	ff 25 00 00 00
	00		 jmp	 DWORD PTR __imp_??1?$CStringT@DV?$StrTraitMFC_DLL@DV?$ChTraitsCRT@D@ATL@@@@@ATL@@QAE@XZ
__unwindfunclet$?Convert2Struct@CChartItemForeign@@QAEPADPAEHHAAH@Z$27:
  000fc	8d 8d 10 fd ff
	ff		 lea	 ecx, DWORD PTR $T31[ebp]
  00102	ff 25 00 00 00
	00		 jmp	 DWORD PTR __imp_??1?$CStringT@DV?$StrTraitMFC_DLL@DV?$ChTraitsCRT@D@ATL@@@@@ATL@@QAE@XZ
__unwindfunclet$?Convert2Struct@CChartItemForeign@@QAEPADPAEHHAAH@Z$29:
  00108	8d 8d 10 fd ff
	ff		 lea	 ecx, DWORD PTR $T30[ebp]
  0010e	ff 25 00 00 00
	00		 jmp	 DWORD PTR __imp_??1?$CStringT@DV?$StrTraitMFC_DLL@DV?$ChTraitsCRT@D@ATL@@@@@ATL@@QAE@XZ
__unwindfunclet$?Convert2Struct@CChartItemForeign@@QAEPADPAEHHAAH@Z$31:
  00114	8d 8d 10 fd ff
	ff		 lea	 ecx, DWORD PTR $T29[ebp]
  0011a	ff 25 00 00 00
	00		 jmp	 DWORD PTR __imp_??1?$CStringT@DV?$StrTraitMFC_DLL@DV?$ChTraitsCRT@D@ATL@@@@@ATL@@QAE@XZ
__unwindfunclet$?Convert2Struct@CChartItemForeign@@QAEPADPAEHHAAH@Z$33:
  00120	8d 8d 10 fd ff
	ff		 lea	 ecx, DWORD PTR $T28[ebp]
  00126	ff 25 00 00 00
	00		 jmp	 DWORD PTR __imp_??1?$CStringT@DV?$StrTraitMFC_DLL@DV?$ChTraitsCRT@D@ATL@@@@@ATL@@QAE@XZ
__unwindfunclet$?Convert2Struct@CChartItemForeign@@QAEPADPAEHHAAH@Z$35:
  0012c	8d 8d 10 fd ff
	ff		 lea	 ecx, DWORD PTR $T27[ebp]
  00132	ff 25 00 00 00
	00		 jmp	 DWORD PTR __imp_??1?$CStringT@DV?$StrTraitMFC_DLL@DV?$ChTraitsCRT@D@ATL@@@@@ATL@@QAE@XZ
__unwindfunclet$?Convert2Struct@CChartItemForeign@@QAEPADPAEHHAAH@Z$37:
  00138	8d 8d cc fc ff
	ff		 lea	 ecx, DWORD PTR _strNextKey$[ebp]
  0013e	ff 25 00 00 00
	00		 jmp	 DWORD PTR __imp_??1?$CStringT@DV?$StrTraitMFC_DLL@DV?$ChTraitsCRT@D@ATL@@@@@ATL@@QAE@XZ
__unwindfunclet$?Convert2Struct@CChartItemForeign@@QAEPADPAEHHAAH@Z$38:
  00144	8d 8d 10 fd ff
	ff		 lea	 ecx, DWORD PTR $T26[ebp]
  0014a	ff 25 00 00 00
	00		 jmp	 DWORD PTR __imp_??1?$CStringT@DV?$StrTraitMFC_DLL@DV?$ChTraitsCRT@D@ATL@@@@@ATL@@QAE@XZ
__unwindfunclet$?Convert2Struct@CChartItemForeign@@QAEPADPAEHHAAH@Z$39:
  00150	8d 8d 10 fd ff
	ff		 lea	 ecx, DWORD PTR $T25[ebp]
  00156	ff 25 00 00 00
	00		 jmp	 DWORD PTR __imp_??1?$CStringT@DV?$StrTraitMFC_DLL@DV?$ChTraitsCRT@D@ATL@@@@@ATL@@QAE@XZ
__unwindfunclet$?Convert2Struct@CChartItemForeign@@QAEPADPAEHHAAH@Z$40:
  0015c	8d 8d 10 fd ff
	ff		 lea	 ecx, DWORD PTR $T24[ebp]
  00162	ff 25 00 00 00
	00		 jmp	 DWORD PTR __imp_??1?$CStringT@DV?$StrTraitMFC_DLL@DV?$ChTraitsCRT@D@ATL@@@@@ATL@@QAE@XZ
__unwindfunclet$?Convert2Struct@CChartItemForeign@@QAEPADPAEHHAAH@Z$41:
  00168	8d 8d 90 fc ff
	ff		 lea	 ecx, DWORD PTR _arrNode$[ebp]
  0016e	e9 00 00 00 00	 jmp	 ??1CStringArray@@UAE@XZ	; CStringArray::~CStringArray
__unwindfunclet$?Convert2Struct@CChartItemForeign@@QAEPADPAEHHAAH@Z$43:
  00173	8d 8d 10 fd ff
	ff		 lea	 ecx, DWORD PTR $T23[ebp]
  00179	ff 25 00 00 00
	00		 jmp	 DWORD PTR __imp_??1?$CStringT@DV?$StrTraitMFC_DLL@DV?$ChTraitsCRT@D@ATL@@@@@ATL@@QAE@XZ
__unwindfunclet$?Convert2Struct@CChartItemForeign@@QAEPADPAEHHAAH@Z$44:
  0017f	8d 8d f0 fc ff
	ff		 lea	 ecx, DWORD PTR _strDate$[ebp]
  00185	ff 25 00 00 00
	00		 jmp	 DWORD PTR __imp_??1?$CStringT@DV?$StrTraitMFC_DLL@DV?$ChTraitsCRT@D@ATL@@@@@ATL@@QAE@XZ
__unwindfunclet$?Convert2Struct@CChartItemForeign@@QAEPADPAEHHAAH@Z$45:
  0018b	8d 8d e0 fc ff
	ff		 lea	 ecx, DWORD PTR _strTime$[ebp]
  00191	ff 25 00 00 00
	00		 jmp	 DWORD PTR __imp_??1?$CStringT@DV?$StrTraitMFC_DLL@DV?$ChTraitsCRT@D@ATL@@@@@ATL@@QAE@XZ
__unwindfunclet$?Convert2Struct@CChartItemForeign@@QAEPADPAEHHAAH@Z$66:
  00197	8d 8d f4 fc ff
	ff		 lea	 ecx, DWORD PTR _szClipFormat$13[ebp]
  0019d	ff 25 00 00 00
	00		 jmp	 DWORD PTR __imp_??1?$CStringT@DV?$StrTraitMFC_DLL@DV?$ChTraitsCRT@D@ATL@@@@@ATL@@QAE@XZ
__unwindfunclet$?Convert2Struct@CChartItemForeign@@QAEPADPAEHHAAH@Z$46:
  001a3	8d 8d 74 fc ff
	ff		 lea	 ecx, DWORD PTR $T5[ebp]
  001a9	ff 25 00 00 00
	00		 jmp	 DWORD PTR __imp_??1?$CStringT@DV?$StrTraitMFC_DLL@DV?$ChTraitsCRT@D@ATL@@@@@ATL@@QAE@XZ
__unwindfunclet$?Convert2Struct@CChartItemForeign@@QAEPADPAEHHAAH@Z$67:
  001af	8b 85 ac fc ff
	ff		 mov	 eax, DWORD PTR $T10[ebp]
  001b5	83 e0 01	 and	 eax, 1
  001b8	0f 84 13 00 00
	00		 je	 $LN268@Convert2St
  001be	83 a5 ac fc ff
	ff fe		 and	 DWORD PTR $T10[ebp], -2	; fffffffeH
  001c5	8d 8d a4 fc ff
	ff		 lea	 ecx, DWORD PTR $T8[ebp]
  001cb	ff 25 00 00 00
	00		 jmp	 DWORD PTR __imp_??1?$CStringT@DV?$StrTraitMFC_DLL@DV?$ChTraitsCRT@D@ATL@@@@@ATL@@QAE@XZ
$LN268@Convert2St:
  001d1	c3		 ret	 0
__unwindfunclet$?Convert2Struct@CChartItemForeign@@QAEPADPAEHHAAH@Z$48:
  001d2	8d 8d 6c fc ff
	ff		 lea	 ecx, DWORD PTR $T3[ebp]
  001d8	ff 25 00 00 00
	00		 jmp	 DWORD PTR __imp_??1?$CStringT@DV?$StrTraitMFC_DLL@DV?$ChTraitsCRT@D@ATL@@@@@ATL@@QAE@XZ
__unwindfunclet$?Convert2Struct@CChartItemForeign@@QAEPADPAEHHAAH@Z$49:
  001de	8d 8d 70 fc ff
	ff		 lea	 ecx, DWORD PTR $T4[ebp]
  001e4	ff 25 00 00 00
	00		 jmp	 DWORD PTR __imp_??1?$CStringT@DV?$StrTraitMFC_DLL@DV?$ChTraitsCRT@D@ATL@@@@@ATL@@QAE@XZ
__unwindfunclet$?Convert2Struct@CChartItemForeign@@QAEPADPAEHHAAH@Z$68:
  001ea	8b 85 ac fc ff
	ff		 mov	 eax, DWORD PTR $T10[ebp]
  001f0	83 e0 02	 and	 eax, 2
  001f3	0f 84 13 00 00
	00		 je	 $LN284@Convert2St
  001f9	83 a5 ac fc ff
	ff fd		 and	 DWORD PTR $T10[ebp], -3	; fffffffdH
  00200	8d 8d a8 fc ff
	ff		 lea	 ecx, DWORD PTR $T9[ebp]
  00206	ff 25 00 00 00
	00		 jmp	 DWORD PTR __imp_??1?$CStringT@DV?$StrTraitMFC_DLL@DV?$ChTraitsCRT@D@ATL@@@@@ATL@@QAE@XZ
$LN284@Convert2St:
  0020c	c3		 ret	 0
__unwindfunclet$?Convert2Struct@CChartItemForeign@@QAEPADPAEHHAAH@Z$51:
  0020d	8d 8d 7c fc ff
	ff		 lea	 ecx, DWORD PTR $T7[ebp]
  00213	ff 25 00 00 00
	00		 jmp	 DWORD PTR __imp_??1?$CStringT@DV?$StrTraitMFC_DLL@DV?$ChTraitsCRT@D@ATL@@@@@ATL@@QAE@XZ
__unwindfunclet$?Convert2Struct@CChartItemForeign@@QAEPADPAEHHAAH@Z$52:
  00219	8d 4d e8	 lea	 ecx, DWORD PTR $T42[ebp]
  0021c	ff 25 00 00 00
	00		 jmp	 DWORD PTR __imp_??1?$CStringT@DV?$StrTraitMFC_DLL@DV?$ChTraitsCRT@D@ATL@@@@@ATL@@QAE@XZ
__unwindfunclet$?Convert2Struct@CChartItemForeign@@QAEPADPAEHHAAH@Z$53:
  00222	8d 8d c0 fc ff
	ff		 lea	 ecx, DWORD PTR $T12[ebp]
  00228	ff 25 00 00 00
	00		 jmp	 DWORD PTR __imp_??1?$CStringT@DV?$StrTraitMFC_DLL@DV?$ChTraitsCRT@D@ATL@@@@@ATL@@QAE@XZ
__unwindfunclet$?Convert2Struct@CChartItemForeign@@QAEPADPAEHHAAH@Z$69:
  0022e	8b 85 ac fc ff
	ff		 mov	 eax, DWORD PTR $T10[ebp]
  00234	83 e0 04	 and	 eax, 4
  00237	0f 84 13 00 00
	00		 je	 $LN300@Convert2St
  0023d	83 a5 ac fc ff
	ff fb		 and	 DWORD PTR $T10[ebp], -5	; fffffffbH
  00244	8d 8d f8 fc ff
	ff		 lea	 ecx, DWORD PTR $T14[ebp]
  0024a	ff 25 00 00 00
	00		 jmp	 DWORD PTR __imp_??1?$CStringT@DV?$StrTraitMFC_DLL@DV?$ChTraitsCRT@D@ATL@@@@@ATL@@QAE@XZ
$LN300@Convert2St:
  00250	c3		 ret	 0
__unwindfunclet$?Convert2Struct@CChartItemForeign@@QAEPADPAEHHAAH@Z$55:
  00251	8d 4d e8	 lea	 ecx, DWORD PTR $T41[ebp]
  00254	ff 25 00 00 00
	00		 jmp	 DWORD PTR __imp_??1?$CStringT@DV?$StrTraitMFC_DLL@DV?$ChTraitsCRT@D@ATL@@@@@ATL@@QAE@XZ
__unwindfunclet$?Convert2Struct@CChartItemForeign@@QAEPADPAEHHAAH@Z$56:
  0025a	8d 8d 08 fd ff
	ff		 lea	 ecx, DWORD PTR _strData$21[ebp]
  00260	ff 25 00 00 00
	00		 jmp	 DWORD PTR __imp_??1?$CStringT@DV?$StrTraitMFC_DLL@DV?$ChTraitsCRT@D@ATL@@@@@ATL@@QAE@XZ
__unwindfunclet$?Convert2Struct@CChartItemForeign@@QAEPADPAEHHAAH@Z$57:
  00266	8d 8d 00 fd ff
	ff		 lea	 ecx, DWORD PTR $T19[ebp]
  0026c	ff 25 00 00 00
	00		 jmp	 DWORD PTR __imp_??1?$CStringT@DV?$StrTraitMFC_DLL@DV?$ChTraitsCRT@D@ATL@@@@@ATL@@QAE@XZ
__unwindfunclet$?Convert2Struct@CChartItemForeign@@QAEPADPAEHHAAH@Z$58:
  00272	8d 4d e8	 lea	 ecx, DWORD PTR $T40[ebp]
  00275	ff 25 00 00 00
	00		 jmp	 DWORD PTR __imp_??1?$CStringT@DV?$StrTraitMFC_DLL@DV?$ChTraitsCRT@D@ATL@@@@@ATL@@QAE@XZ
__unwindfunclet$?Convert2Struct@CChartItemForeign@@QAEPADPAEHHAAH@Z$59:
  0027b	8d 8d c0 fc ff
	ff		 lea	 ecx, DWORD PTR $T11[ebp]
  00281	ff 25 00 00 00
	00		 jmp	 DWORD PTR __imp_??1?$CStringT@DV?$StrTraitMFC_DLL@DV?$ChTraitsCRT@D@ATL@@@@@ATL@@QAE@XZ
__unwindfunclet$?Convert2Struct@CChartItemForeign@@QAEPADPAEHHAAH@Z$60:
  00287	8d 8d 7c fc ff
	ff		 lea	 ecx, DWORD PTR $T6[ebp]
  0028d	ff 25 00 00 00
	00		 jmp	 DWORD PTR __imp_??1?$CStringT@DV?$StrTraitMFC_DLL@DV?$ChTraitsCRT@D@ATL@@@@@ATL@@QAE@XZ
__unwindfunclet$?Convert2Struct@CChartItemForeign@@QAEPADPAEHHAAH@Z$61:
  00293	8d 8d 00 fd ff
	ff		 lea	 ecx, DWORD PTR $T18[ebp]
  00299	ff 25 00 00 00
	00		 jmp	 DWORD PTR __imp_??1?$CStringT@DV?$StrTraitMFC_DLL@DV?$ChTraitsCRT@D@ATL@@@@@ATL@@QAE@XZ
__unwindfunclet$?Convert2Struct@CChartItemForeign@@QAEPADPAEHHAAH@Z$62:
  0029f	8d 8d 00 fd ff
	ff		 lea	 ecx, DWORD PTR $T17[ebp]
  002a5	ff 25 00 00 00
	00		 jmp	 DWORD PTR __imp_??1?$CStringT@DV?$StrTraitMFC_DLL@DV?$ChTraitsCRT@D@ATL@@@@@ATL@@QAE@XZ
__unwindfunclet$?Convert2Struct@CChartItemForeign@@QAEPADPAEHHAAH@Z$63:
  002ab	8d 8d 00 fd ff
	ff		 lea	 ecx, DWORD PTR $T16[ebp]
  002b1	ff 25 00 00 00
	00		 jmp	 DWORD PTR __imp_??1?$CStringT@DV?$StrTraitMFC_DLL@DV?$ChTraitsCRT@D@ATL@@@@@ATL@@QAE@XZ
__unwindfunclet$?Convert2Struct@CChartItemForeign@@QAEPADPAEHHAAH@Z$64:
  002b7	8d 8d 00 fd ff
	ff		 lea	 ecx, DWORD PTR $T15[ebp]
  002bd	ff 25 00 00 00
	00		 jmp	 DWORD PTR __imp_??1?$CStringT@DV?$StrTraitMFC_DLL@DV?$ChTraitsCRT@D@ATL@@@@@ATL@@QAE@XZ
  002c3	cc		 int	 3
  002c4	cc		 int	 3
  002c5	cc		 int	 3
  002c6	cc		 int	 3
  002c7	cc		 int	 3
__ehhandler$?Convert2Struct@CChartItemForeign@@QAEPADPAEHHAAH@Z:
  002c8	90		 npad	 1
  002c9	90		 npad	 1
  002ca	8b 54 24 08	 mov	 edx, DWORD PTR [esp+8]
  002ce	8d 42 0c	 lea	 eax, DWORD PTR [edx+12]
  002d1	8b 8a 54 fc ff
	ff		 mov	 ecx, DWORD PTR [edx-940]
  002d7	33 c8		 xor	 ecx, eax
  002d9	e8 00 00 00 00	 call	 @__security_check_cookie@4
  002de	8b 4a fc	 mov	 ecx, DWORD PTR [edx-4]
  002e1	33 c8		 xor	 ecx, eax
  002e3	e8 00 00 00 00	 call	 @__security_check_cookie@4
  002e8	b8 00 00 00 00	 mov	 eax, OFFSET __ehfuncinfo$?Convert2Struct@CChartItemForeign@@QAEPADPAEHHAAH@Z
  002ed	e9 00 00 00 00	 jmp	 ___CxxFrameHandler3
text$x	ENDS
?Convert2Struct@CChartItemForeign@@QAEPADPAEHHAAH@Z ENDP ; CChartItemForeign::Convert2Struct
; Function compile flags: /Ogtp
; File D:\git\src\IBK\IBK_DRFN\ProjSrc\SrcDrfn\DrCommon\PartnerMng\ChartItemForeign.cpp
; File C:\Program Files (x86)\Microsoft Visual Studio\2019\Community\VC\Tools\MSVC\14.29.30133\atlmfc\include\atlsimpstr.h
; File D:\git\src\IBK\IBK_DRFN\ProjSrc\SrcDrfn\DrCommon\PartnerMng\ChartItemForeign.cpp
;	COMDAT ?Convert@CChartItemForeign@@QAE?AV?$CStringT@DV?$StrTraitMFC_DLL@DV?$ChTraitsCRT@D@ATL@@@@@ATL@@XZ
_TEXT	SEGMENT
_nCount$1$ = -384					; size = 4
_nType$1$ = -380					; size = 4
___$ReturnUdt$GSCopy$ = -380				; size = 4
_stNextKey2$ = -376					; size = 4
$T2 = -372						; size = 4
$T3 = -372						; size = 4
_strDate$ = -368					; size = 4
tv833 = -364						; size = 4
_this$GSCopy$1$ = -364					; size = 4
_temp$ = -360						; size = 4
_strCode$ = -356					; size = 4
_stRowData$ = -352					; size = 4
_strTemp$ = -348					; size = 4
_stNextKey$ = -344					; size = 4
_nUnit$1$ = -340					; size = 4
$T4 = -340						; size = 4
$T5 = -340						; size = 4
$T6 = -340						; size = 4
_stNextData$ = -336					; size = 4
_strData$ = -332					; size = 4
_Datah$ = -328						; size = 136
_pFOSymbol$ = -192					; size = 40
_szData_i$ = -152					; size = 136
__$ArrayPad$ = -16					; size = 4
__$EHRec$ = -12						; size = 12
___$ReturnUdt$ = 8					; size = 4
?Convert@CChartItemForeign@@QAE?AV?$CStringT@DV?$StrTraitMFC_DLL@DV?$ChTraitsCRT@D@ATL@@@@@ATL@@XZ PROC ; CChartItemForeign::Convert, COMDAT
; _this$ = ecx

; 49   : {

  00000	55		 push	 ebp
  00001	8b ec		 mov	 ebp, esp
  00003	6a ff		 push	 -1
  00005	68 00 00 00 00	 push	 __ehhandler$?Convert@CChartItemForeign@@QAE?AV?$CStringT@DV?$StrTraitMFC_DLL@DV?$ChTraitsCRT@D@ATL@@@@@ATL@@XZ
  0000a	64 a1 00 00 00
	00		 mov	 eax, DWORD PTR fs:0
  00010	50		 push	 eax
  00011	81 ec 74 01 00
	00		 sub	 esp, 372		; 00000174H
  00017	a1 00 00 00 00	 mov	 eax, DWORD PTR ___security_cookie
  0001c	33 c5		 xor	 eax, ebp
  0001e	89 45 f0	 mov	 DWORD PTR __$ArrayPad$[ebp], eax
  00021	53		 push	 ebx
  00022	56		 push	 esi
  00023	57		 push	 edi
  00024	50		 push	 eax
  00025	8d 45 f4	 lea	 eax, DWORD PTR __$EHRec$[ebp]
  00028	64 a3 00 00 00
	00		 mov	 DWORD PTR fs:0, eax
  0002e	8b f9		 mov	 edi, ecx
  00030	89 bd 94 fe ff
	ff		 mov	 DWORD PTR _this$GSCopy$1$[ebp], edi

; 50   : 	if(!m_bSet) return "";

  00036	80 bf 0c 01 00
	00 00		 cmp	 BYTE PTR [edi+268], 0
  0003d	8b 5d 08	 mov	 ebx, DWORD PTR ___$ReturnUdt$[ebp]
  00040	89 9d 84 fe ff
	ff		 mov	 DWORD PTR ___$ReturnUdt$GSCopy$[ebp], ebx
  00046	75 12		 jne	 SHORT $LN21@Convert
  00048	68 00 00 00 00	 push	 OFFSET ??_C@_00CNPNBAHC@@
  0004d	8b cb		 mov	 ecx, ebx
  0004f	ff 15 00 00 00
	00		 call	 DWORD PTR __imp_??0?$CStringT@DV?$StrTraitMFC_DLL@DV?$ChTraitsCRT@D@ATL@@@@@ATL@@QAE@PBD@Z
  00055	e9 35 06 00 00	 jmp	 $LN112@Convert
$LN21@Convert:

; 51   : 
; 52   : //	50021
; 53   : //	104309 // 1: , 0:.
; 54   : 
; 55   : 	CString strData, strCode, strTemp, strDate;

  0005a	8d 8d b4 fe ff
	ff		 lea	 ecx, DWORD PTR _strData$[ebp]
  00060	ff 15 00 00 00
	00		 call	 DWORD PTR __imp_??0?$CStringT@DV?$StrTraitMFC_DLL@DV?$ChTraitsCRT@D@ATL@@@@@ATL@@QAE@XZ
  00066	8d 8d 9c fe ff
	ff		 lea	 ecx, DWORD PTR _strCode$[ebp]
  0006c	c7 45 fc 00 00
	00 00		 mov	 DWORD PTR __$EHRec$[ebp+8], 0
  00073	ff 15 00 00 00
	00		 call	 DWORD PTR __imp_??0?$CStringT@DV?$StrTraitMFC_DLL@DV?$ChTraitsCRT@D@ATL@@@@@ATL@@QAE@XZ
  00079	8d 8d a4 fe ff
	ff		 lea	 ecx, DWORD PTR _strTemp$[ebp]
  0007f	ff 15 00 00 00
	00		 call	 DWORD PTR __imp_??0?$CStringT@DV?$StrTraitMFC_DLL@DV?$ChTraitsCRT@D@ATL@@@@@ATL@@QAE@XZ
  00085	8d 8d 90 fe ff
	ff		 lea	 ecx, DWORD PTR _strDate$[ebp]
  0008b	ff 15 00 00 00
	00		 call	 DWORD PTR __imp_??0?$CStringT@DV?$StrTraitMFC_DLL@DV?$ChTraitsCRT@D@ATL@@@@@ATL@@QAE@XZ

; 56   : 	int i, nCount;
; 57   : 	
; 58   : 	strTemp = CString(m_InData.num, sizeof(m_InData.num));

  00091	6a 04		 push	 4
  00093	8d 47 1c	 lea	 eax, DWORD PTR [edi+28]
  00096	c6 45 fc 03	 mov	 BYTE PTR __$EHRec$[ebp+8], 3
  0009a	50		 push	 eax
  0009b	8d 8d ac fe ff
	ff		 lea	 ecx, DWORD PTR $T6[ebp]
  000a1	ff 15 00 00 00
	00		 call	 DWORD PTR __imp_??0?$CStringT@DV?$StrTraitMFC_DLL@DV?$ChTraitsCRT@D@ATL@@@@@ATL@@QAE@PBDH@Z
  000a7	50		 push	 eax
  000a8	8d 8d a4 fe ff
	ff		 lea	 ecx, DWORD PTR _strTemp$[ebp]
  000ae	c6 45 fc 04	 mov	 BYTE PTR __$EHRec$[ebp+8], 4
  000b2	ff 15 00 00 00
	00		 call	 DWORD PTR __imp_??4?$CStringT@DV?$StrTraitMFC_DLL@DV?$ChTraitsCRT@D@ATL@@@@@ATL@@QAEAAV01@ABV01@@Z
  000b8	8d 8d ac fe ff
	ff		 lea	 ecx, DWORD PTR $T6[ebp]
  000be	c6 45 fc 03	 mov	 BYTE PTR __$EHRec$[ebp+8], 3
  000c2	ff 15 00 00 00
	00		 call	 DWORD PTR __imp_??1?$CStringT@DV?$StrTraitMFC_DLL@DV?$ChTraitsCRT@D@ATL@@@@@ATL@@QAE@XZ

; 59   : 	nCount = atoi(strTemp);

  000c8	ff b5 a4 fe ff
	ff		 push	 DWORD PTR _strTemp$[ebp]
  000ce	8b 35 00 00 00
	00		 mov	 esi, DWORD PTR __imp__atoi
  000d4	ff d6		 call	 esi
  000d6	83 c4 04	 add	 esp, 4
  000d9	89 85 80 fe ff
	ff		 mov	 DWORD PTR _nCount$1$[ebp], eax

; 60   : 
; 61   : 	strCode = CString(m_InData.Shcode, sizeof(m_InData.Shcode));

  000df	8d 4f 04	 lea	 ecx, DWORD PTR [edi+4]
  000e2	6a 10		 push	 16			; 00000010H
  000e4	51		 push	 ecx
  000e5	8d 8d ac fe ff
	ff		 lea	 ecx, DWORD PTR $T5[ebp]
  000eb	ff 15 00 00 00
	00		 call	 DWORD PTR __imp_??0?$CStringT@DV?$StrTraitMFC_DLL@DV?$ChTraitsCRT@D@ATL@@@@@ATL@@QAE@PBDH@Z
  000f1	50		 push	 eax
  000f2	8d 8d 9c fe ff
	ff		 lea	 ecx, DWORD PTR _strCode$[ebp]
  000f8	c6 45 fc 05	 mov	 BYTE PTR __$EHRec$[ebp+8], 5
  000fc	ff 15 00 00 00
	00		 call	 DWORD PTR __imp_??4?$CStringT@DV?$StrTraitMFC_DLL@DV?$ChTraitsCRT@D@ATL@@@@@ATL@@QAEAAV01@ABV01@@Z
  00102	8d 8d ac fe ff
	ff		 lea	 ecx, DWORD PTR $T5[ebp]
  00108	c6 45 fc 03	 mov	 BYTE PTR __$EHRec$[ebp+8], 3
  0010c	ff 15 00 00 00
	00		 call	 DWORD PTR __imp_??1?$CStringT@DV?$StrTraitMFC_DLL@DV?$ChTraitsCRT@D@ATL@@@@@ATL@@QAE@XZ

; 62   : 	strCode.TrimLeft(); strCode.TrimRight();

  00112	8d 8d 9c fe ff
	ff		 lea	 ecx, DWORD PTR _strCode$[ebp]
  00118	ff 15 00 00 00
	00		 call	 DWORD PTR __imp_?TrimLeft@?$CStringT@DV?$StrTraitMFC_DLL@DV?$ChTraitsCRT@D@ATL@@@@@ATL@@QAEAAV12@XZ
  0011e	8d 8d 9c fe ff
	ff		 lea	 ecx, DWORD PTR _strCode$[ebp]
  00124	ff 15 00 00 00
	00		 call	 DWORD PTR __imp_?TrimRight@?$CStringT@DV?$StrTraitMFC_DLL@DV?$ChTraitsCRT@D@ATL@@@@@ATL@@QAEAAV12@XZ

; 63   : 
; 64   : 	strTemp = CString(m_InData.unit, sizeof(m_InData.unit));

  0012a	6a 03		 push	 3
  0012c	8d 47 20	 lea	 eax, DWORD PTR [edi+32]
  0012f	50		 push	 eax
  00130	8d 8d ac fe ff
	ff		 lea	 ecx, DWORD PTR $T4[ebp]
  00136	ff 15 00 00 00
	00		 call	 DWORD PTR __imp_??0?$CStringT@DV?$StrTraitMFC_DLL@DV?$ChTraitsCRT@D@ATL@@@@@ATL@@QAE@PBDH@Z
  0013c	50		 push	 eax
  0013d	8d 8d a4 fe ff
	ff		 lea	 ecx, DWORD PTR _strTemp$[ebp]
  00143	c6 45 fc 06	 mov	 BYTE PTR __$EHRec$[ebp+8], 6
  00147	ff 15 00 00 00
	00		 call	 DWORD PTR __imp_??4?$CStringT@DV?$StrTraitMFC_DLL@DV?$ChTraitsCRT@D@ATL@@@@@ATL@@QAEAAV01@ABV01@@Z
  0014d	8d 8d ac fe ff
	ff		 lea	 ecx, DWORD PTR $T4[ebp]
  00153	c6 45 fc 03	 mov	 BYTE PTR __$EHRec$[ebp+8], 3
  00157	ff 15 00 00 00
	00		 call	 DWORD PTR __imp_??1?$CStringT@DV?$StrTraitMFC_DLL@DV?$ChTraitsCRT@D@ATL@@@@@ATL@@QAE@XZ

; 65   : 	int nUnit = atoi(strTemp);

  0015d	ff b5 a4 fe ff
	ff		 push	 DWORD PTR _strTemp$[ebp]
  00163	ff d6		 call	 esi
  00165	83 c4 04	 add	 esp, 4
  00168	89 85 ac fe ff
	ff		 mov	 DWORD PTR _nUnit$1$[ebp], eax

; 66   : 
; 67   : 	strTemp = CString(m_InData.button, sizeof(m_InData.button)); // (0)/(1)/(2)/(3)/(4)

  0016e	8d 4f 23	 lea	 ecx, DWORD PTR [edi+35]
  00171	6a 01		 push	 1
  00173	51		 push	 ecx
  00174	8d 8d 8c fe ff
	ff		 lea	 ecx, DWORD PTR $T3[ebp]
  0017a	ff 15 00 00 00
	00		 call	 DWORD PTR __imp_??0?$CStringT@DV?$StrTraitMFC_DLL@DV?$ChTraitsCRT@D@ATL@@@@@ATL@@QAE@PBDH@Z
  00180	50		 push	 eax
  00181	8d 8d a4 fe ff
	ff		 lea	 ecx, DWORD PTR _strTemp$[ebp]
  00187	c6 45 fc 07	 mov	 BYTE PTR __$EHRec$[ebp+8], 7
  0018b	ff 15 00 00 00
	00		 call	 DWORD PTR __imp_??4?$CStringT@DV?$StrTraitMFC_DLL@DV?$ChTraitsCRT@D@ATL@@@@@ATL@@QAEAAV01@ABV01@@Z
  00191	8d 8d 8c fe ff
	ff		 lea	 ecx, DWORD PTR $T3[ebp]
  00197	c6 45 fc 03	 mov	 BYTE PTR __$EHRec$[ebp+8], 3
  0019b	ff 15 00 00 00
	00		 call	 DWORD PTR __imp_??1?$CStringT@DV?$StrTraitMFC_DLL@DV?$ChTraitsCRT@D@ATL@@@@@ATL@@QAE@XZ

; 68   : 	int nType = atoi(strTemp);

  001a1	ff b5 a4 fe ff
	ff		 push	 DWORD PTR _strTemp$[ebp]
  001a7	ff d6		 call	 esi

; 69   : 
; 70   : 	strDate	= CDataConverter::Char2String(m_InData.date, sizeof(m_InData.date));

  001a9	8b b5 94 fe ff
	ff		 mov	 esi, DWORD PTR _this$GSCopy$1$[ebp]
  001af	8b f8		 mov	 edi, eax
  001b1	6a 08		 push	 8
  001b3	8d 85 8c fe ff
	ff		 lea	 eax, DWORD PTR $T2[ebp]
  001b9	89 bd 84 fe ff
	ff		 mov	 DWORD PTR _nType$1$[ebp], edi
  001bf	8d 4e 14	 lea	 ecx, DWORD PTR [esi+20]
  001c2	51		 push	 ecx
  001c3	50		 push	 eax
  001c4	e8 00 00 00 00	 call	 ?Char2String@CDataConverter@@SA?AV?$CStringT@DV?$StrTraitMFC_DLL@DV?$ChTraitsCRT@D@ATL@@@@@ATL@@PADH@Z ; CDataConverter::Char2String
  001c9	83 c4 10	 add	 esp, 16			; 00000010H
  001cc	50		 push	 eax
  001cd	8d 8d 90 fe ff
	ff		 lea	 ecx, DWORD PTR _strDate$[ebp]
  001d3	c6 45 fc 08	 mov	 BYTE PTR __$EHRec$[ebp+8], 8
  001d7	ff 15 00 00 00
	00		 call	 DWORD PTR __imp_??4?$CStringT@DV?$StrTraitMFC_DLL@DV?$ChTraitsCRT@D@ATL@@@@@ATL@@QAEAAV01@ABV01@@Z
  001dd	8d 8d 8c fe ff
	ff		 lea	 ecx, DWORD PTR $T2[ebp]
  001e3	c6 45 fc 03	 mov	 BYTE PTR __$EHRec$[ebp+8], 3
  001e7	ff 15 00 00 00
	00		 call	 DWORD PTR __imp_??1?$CStringT@DV?$StrTraitMFC_DLL@DV?$ChTraitsCRT@D@ATL@@@@@ATL@@QAE@XZ

; 71   : 	int nFlag     = CDataConverter::Char2Int(m_InData.nflag, sizeof(m_InData.nflag));	// 0:

  001ed	8d 46 24	 lea	 eax, DWORD PTR [esi+36]
  001f0	6a 01		 push	 1
  001f2	50		 push	 eax
  001f3	e8 00 00 00 00	 call	 ?Char2Int@CDataConverter@@SAHPADH@Z ; CDataConverter::Char2Int
  001f8	83 c4 08	 add	 esp, 8

; 72   : 	//////////////////////////////////////////////////////////////////////////
; 73   : 	// Inbound  
; 74   : 	//////////////////////////////////////////////////////////////////////////
; 75   : 
; 76   : 	//  
; 77   : 	strData += "51301"; //  Input 

  001fb	8d 8d b4 fe ff
	ff		 lea	 ecx, DWORD PTR _strData$[ebp]
  00201	8b f0		 mov	 esi, eax
  00203	68 00 00 00 00	 push	 OFFSET ??_C@_05IGGDOMBJ@51301@
  00208	ff 15 00 00 00
	00		 call	 DWORD PTR __imp_??Y?$CStringT@DV?$StrTraitMFC_DLL@DV?$ChTraitsCRT@D@ATL@@@@@ATL@@QAEAAV01@PBD@Z

; 78   : 	strData += sDS;

  0020e	6a 7f		 push	 127			; 0000007fH
  00210	8d 8d b4 fe ff
	ff		 lea	 ecx, DWORD PTR _strData$[ebp]
  00216	ff 15 00 00 00
	00		 call	 DWORD PTR __imp_??Y?$CStringT@DV?$StrTraitMFC_DLL@DV?$ChTraitsCRT@D@ATL@@@@@ATL@@QAEAAV01@D@Z

; 79   : 
; 80   : 	strData += strCode;

  0021c	8d 85 9c fe ff
	ff		 lea	 eax, DWORD PTR _strCode$[ebp]
  00222	50		 push	 eax
  00223	8d 8d b4 fe ff
	ff		 lea	 ecx, DWORD PTR _strData$[ebp]
  00229	ff 15 00 00 00
	00		 call	 DWORD PTR __imp_??Y?$CStringT@DV?$StrTraitMFC_DLL@DV?$ChTraitsCRT@D@ATL@@@@@ATL@@QAEAAV01@ABV?$CSimpleStringT@D$00@1@@Z

; 81   : 	strData += sCELL;

  0022f	6a 09		 push	 9
  00231	8d 8d b4 fe ff
	ff		 lea	 ecx, DWORD PTR _strData$[ebp]
  00237	ff 15 00 00 00
	00		 call	 DWORD PTR __imp_??Y?$CStringT@DV?$StrTraitMFC_DLL@DV?$ChTraitsCRT@D@ATL@@@@@ATL@@QAEAAV01@D@Z

; 82   : 	CString stRowData;

  0023d	8d 8d a0 fe ff
	ff		 lea	 ecx, DWORD PTR _stRowData$[ebp]
  00243	ff 15 00 00 00
	00		 call	 DWORD PTR __imp_??0?$CStringT@DV?$StrTraitMFC_DLL@DV?$ChTraitsCRT@D@ATL@@@@@ATL@@QAE@XZ

; 83   : 	_dataH	Datah;
; 84   : 	FillMemory(&Datah, sz_DATAH, 0x20);

  00249	68 88 00 00 00	 push	 136			; 00000088H
  0024e	8d 85 b8 fe ff
	ff		 lea	 eax, DWORD PTR _Datah$[ebp]
  00254	6a 20		 push	 32			; 00000020H
  00256	50		 push	 eax
  00257	e8 00 00 00 00	 call	 _memset
  0025c	83 c4 0c	 add	 esp, 12			; 0000000cH

; 85   : 	//NEXTKEY : KHD
; 86   : 	CString stNextData, stNextKey, stNextKey2;

  0025f	8d 8d b0 fe ff
	ff		 lea	 ecx, DWORD PTR _stNextData$[ebp]
  00265	ff 15 00 00 00
	00		 call	 DWORD PTR __imp_??0?$CStringT@DV?$StrTraitMFC_DLL@DV?$ChTraitsCRT@D@ATL@@@@@ATL@@QAE@XZ
  0026b	8d 8d a8 fe ff
	ff		 lea	 ecx, DWORD PTR _stNextKey$[ebp]
  00271	ff 15 00 00 00
	00		 call	 DWORD PTR __imp_??0?$CStringT@DV?$StrTraitMFC_DLL@DV?$ChTraitsCRT@D@ATL@@@@@ATL@@QAE@XZ
  00277	8d 8d 88 fe ff
	ff		 lea	 ecx, DWORD PTR _stNextKey2$[ebp]
  0027d	ff 15 00 00 00
	00		 call	 DWORD PTR __imp_??0?$CStringT@DV?$StrTraitMFC_DLL@DV?$ChTraitsCRT@D@ATL@@@@@ATL@@QAE@XZ
  00283	8b 85 94 fe ff
	ff		 mov	 eax, DWORD PTR _this$GSCopy$1$[ebp]
  00289	83 c0 25	 add	 eax, 37			; 00000025H
  0028c	c6 45 fc 0c	 mov	 BYTE PTR __$EHRec$[ebp+8], 12 ; 0000000cH
  00290	89 85 94 fe ff
	ff		 mov	 DWORD PTR tv833[ebp], eax

; 87   : 	if(nFlag == 0)

  00296	85 f6		 test	 esi, esi
  00298	75 2c		 jne	 SHORT $LN110@Convert

; 88   : 	{
; 89   : 		stNextData = "99999999999999";

  0029a	68 00 00 00 00	 push	 OFFSET ??_C@_0P@FLGGHACJ@99999999999999@
  0029f	8d 8d b0 fe ff
	ff		 lea	 ecx, DWORD PTR _stNextData$[ebp]
  002a5	ff 15 00 00 00
	00		 call	 DWORD PTR __imp_??4?$CStringT@DV?$StrTraitMFC_DLL@DV?$ChTraitsCRT@D@ATL@@@@@ATL@@QAEAAV01@PBD@Z
; File C:\Program Files (x86)\Microsoft Visual Studio\2019\Community\VC\Tools\MSVC\14.29.30133\atlmfc\include\atlsimpstr.h

; 519  : 		return( GetData()->nDataLength );

  002ab	8b 85 b0 fe ff
	ff		 mov	 eax, DWORD PTR _stNextData$[ebp]
; File D:\git\src\IBK\IBK_DRFN\ProjSrc\SrcDrfn\DrCommon\PartnerMng\ChartItemForeign.cpp

; 90   : 		memcpy(m_InData.nkey, (LPCSTR)(LPCTSTR)stNextData,stNextData.GetLength());

  002b1	8b b5 94 fe ff
	ff		 mov	 esi, DWORD PTR tv833[ebp]
  002b7	ff 70 f4	 push	 DWORD PTR [eax-12]
  002ba	50		 push	 eax
  002bb	56		 push	 esi
  002bc	e8 00 00 00 00	 call	 _memcpy
  002c1	83 c4 0c	 add	 esp, 12			; 0000000cH
  002c4	eb 02		 jmp	 SHORT $LN103@Convert
$LN110@Convert:

; 87   : 	if(nFlag == 0)

  002c6	8b f0		 mov	 esi, eax
$LN103@Convert:

; 91   : 	}
; 92   : 
; 93   : 	//KHD :  . .    IBK  . 
; 94   : 	if(nType== 0 || nType == 1 || nType == 6) return "";

  002c8	85 ff		 test	 edi, edi
  002ca	0f 84 52 03 00
	00		 je	 $LN24@Convert
  002d0	83 ff 01	 cmp	 edi, 1
  002d3	0f 84 49 03 00
	00		 je	 $LN24@Convert
  002d9	83 ff 06	 cmp	 edi, 6
  002dc	0f 84 40 03 00
	00		 je	 $LN24@Convert

; 95   : 	switch(nType)

  002e2	8b c7		 mov	 eax, edi
  002e4	8b 3d 00 00 00
	00		 mov	 edi, DWORD PTR __imp_?Format@?$CStringT@DV?$StrTraitMFC_DLL@DV?$ChTraitsCRT@D@ATL@@@@@ATL@@QAAXPBDZZ
  002ea	83 e8 02	 sub	 eax, 2
  002ed	74 20		 je	 SHORT $LN27@Convert
  002ef	83 e8 01	 sub	 eax, 1
  002f2	74 12		 je	 SHORT $LN28@Convert
  002f4	83 e8 01	 sub	 eax, 1
  002f7	0f 85 99 00 00
	00		 jne	 $LN30@Convert

; 174  : 	case 4:		// 
; 175  : 		Datah.dindex = GI_MONTH;

  002fd	c6 85 cf fe ff
	ff 03		 mov	 BYTE PTR _Datah$[ebp+23], 3

; 176  : 		nUnit = 1;
; 177  : 		stRowData = _T("?52500");
; 178  : 		stNextKey = "52324";
; 179  : 		stNextData.Format("%8.8s",m_InData.nkey );
; 180  : 		strData += stNextKey; strData += sDS;	strData += stNextData;	strData += sCELL; //   : KHD 
; 181  : 
; 182  : 		break;

  00304	eb 10		 jmp	 SHORT $LN113@Convert
$LN28@Convert:

; 158  : 		nUnit = 1;
; 159  : 		stRowData = _T("?52500");
; 160  : 		stNextKey = "52324";
; 161  : 		stNextData.Format("%8.8s",m_InData.nkey );
; 162  : 		strData += stNextKey; strData += sDS;	strData += stNextData;	strData += sCELL; //   : KHD 
; 163  : 
; 164  : 		break;
; 165  : 	case 3:		// 
; 166  : 		Datah.dindex = GI_WEEK;

  00306	c6 85 cf fe ff
	ff 02		 mov	 BYTE PTR _Datah$[ebp+23], 2

; 167  : 		nUnit = 1;
; 168  : 		stRowData = _T("?52500");
; 169  : 		stNextKey = "52324";
; 170  : 		stNextData.Format("%8.8s",m_InData.nkey );
; 171  : 		strData += stNextKey; strData += sDS;	strData += stNextData;	strData += sCELL; //   : KHD 
; 172  : 
; 173  : 		break;

  0030d	eb 07		 jmp	 SHORT $LN113@Convert
$LN27@Convert:

; 96   : 	{
; 97   : 	case 0:		// 
; 98   : /*		strData += "104306"; //  Input 
; 99   : 		strData += sDS;
; 100  : 		strTemp = CString(m_InData.date, sizeof(m_InData.date));
; 101  : 		strData += strTemp;
; 102  : 		strData += sFS;
; 103  : 		
; 104  : 		strData += "104307"; //  Input 
; 105  : 		strData += sDS;
; 106  : 		strTemp = CString(m_InData.nowData, sizeof(m_InData.nowData));
; 107  : 		strData += strTemp;
; 108  : 		strData += sFS;
; 109  : */
; 110  : /*	KHD	strData += "104308"; // GAP Input 
; 111  : 		strData += sDS;
; 112  : 		strTemp.Format("%d", nUnit);
; 113  : 		strData += strTemp;
; 114  : 		strData += sFS;
; 115  : #ifndef LOCALTIME_SET
; 116  : 		strData += "104309";
; 117  : 		strData += sDS;
; 118  : 		strTemp.Format("%c", m_InData.timeGB[0]);
; 119  : 		strData += strTemp;
; 120  : 		strData += sFS;
; 121  : #endif
; 122  : */
; 123  : 		break;
; 124  : 
; 125  : 	case 1:		//  //KHD :      .
; 126  : 	
; 127  : 		break;
; 128  : /*		strData += "104306"; //  Input 
; 129  : 		strData += sDS;
; 130  : 		strTemp = " ";//CString(m_InData.date, sizeof(m_InData.date));
; 131  : 		strData += strTemp;
; 132  : 		strData += sFS;
; 133  : 
; 134  : 		strData += "104307"; //  Input 
; 135  : 		strData += sDS;
; 136  : 		strTemp = CString(m_InData.nowData, sizeof(m_InData.nowData));
; 137  : 		strData += strTemp;
; 138  : 		strData += sFS;
; 139  : */
; 140  : /*	KHD	strData += "104308"; //  Input 
; 141  : 		strData += sDS;
; 142  : 		strTemp.Format("%d", nUnit);
; 143  : 		strData += strTemp;
; 144  : 		strData += sFS;
; 145  : 
; 146  : #ifndef LOCALTIME_SET
; 147  : 		strData += "104309";
; 148  : 		strData += sDS;
; 149  : 		strTemp.Format("%c", m_InData.timeGB[0]);
; 150  : 		strData += strTemp;
; 151  : 		strData += sFS;
; 152  : #endif
; 153  : */
; 154  : 		break;
; 155  : 
; 156  : 	case 2:		// 
; 157  : 		Datah.dindex = GI_DAY;

  0030f	c6 85 cf fe ff
	ff 01		 mov	 BYTE PTR _Datah$[ebp+23], 1
$LN113@Convert:

; 183  : 
; 184  : /*		strData += "104306"; //  Input   <<!>>  
; 185  : 		strData += sDS;
; 186  : 		strTemp = CString(m_InData.date, sizeof(m_InData.date));
; 187  : 		strData += strTemp;
; 188  : 		strData += sFS;
; 189  : */
; 190  : /* KHD		strData += "104308"; // (1)(2)(3) Input 
; 191  : 		strData += sDS;
; 192  : 		strTemp = (nType==2) ? "1":(nType==3 ? "2":"3");
; 193  : 		strData += strTemp;
; 194  : 		strData += sFS;*/
; 195  : /*
; 196  : 		//   	
; 197  : 		strData += "104309"; //  Input 
; 198  : 		strData += sDS;
; 199  : 		strTemp = " "; //CString(m_InData.modGb, sizeof(m_InData.modGb));
; 200  : 		strData += strTemp;
; 201  : 		strData += sFS;
; 202  : */
; 203  : 		break;
; 204  : 	case 6:		// 
; 205  : /*KHD
; 206  : 		strData += "101307"; //   (1:, 0:) Input 
; 207  : 		strData += sDS;
; 208  : 		strTemp = CString(m_InData.nowData, sizeof(m_InData.nowData));
; 209  : 		strData += strTemp;
; 210  : 		strData += sFS;
; 211  : 		
; 212  : 		strData += "101308"; // n  Input 
; 213  : 		strData += sDS;
; 214  : 		strTemp.Format("%d", nUnit);
; 215  : 		strData += strTemp;
; 216  : 		strData += sFS;
; 217  : 
; 218  : #ifndef LOCALTIME_SET
; 219  : 		strData += "104309";
; 220  : 		strData += sDS;
; 221  : 		strTemp.Format("%c", m_InData.timeGB[0]);
; 222  : 		strData += strTemp;
; 223  : 		strData += sFS;
; 224  : #endif
; 225  : 		*/
; 226  : 		break;
; 227  : 	}
; 228  : 
; 229  : 	//////////////////////////////////////////////////////////////////////////
; 230  : 	//   OutBound
; 231  : 						// ,  ,  , ,, , 
; 232  : 	char* pFOSymbol[] = { "51301", "51022", "51023", "51313", "51024", "51033", "51027",

  00316	68 00 00 00 00	 push	 OFFSET ??_C@_06IPDGFDDC@?$DP52500@
  0031b	8d 8d a0 fe ff
	ff		 lea	 ecx, DWORD PTR _stRowData$[ebp]
  00321	c7 85 ac fe ff
	ff 01 00 00 00	 mov	 DWORD PTR _nUnit$1$[ebp], 1
  0032b	ff 15 00 00 00
	00		 call	 DWORD PTR __imp_??4?$CStringT@DV?$StrTraitMFC_DLL@DV?$ChTraitsCRT@D@ATL@@@@@ATL@@QAEAAV01@PBD@Z
  00331	68 00 00 00 00	 push	 OFFSET ??_C@_05LPDALGOC@52324@
  00336	8d 8d a8 fe ff
	ff		 lea	 ecx, DWORD PTR _stNextKey$[ebp]
  0033c	ff 15 00 00 00
	00		 call	 DWORD PTR __imp_??4?$CStringT@DV?$StrTraitMFC_DLL@DV?$ChTraitsCRT@D@ATL@@@@@ATL@@QAEAAV01@PBD@Z
  00342	56		 push	 esi
  00343	8d 85 b0 fe ff
	ff		 lea	 eax, DWORD PTR _stNextData$[ebp]
  00349	68 00 00 00 00	 push	 OFFSET ??_C@_05OGIKHPIO@?$CF8?48s@
  0034e	50		 push	 eax
  0034f	ff d7		 call	 edi
  00351	83 c4 0c	 add	 esp, 12			; 0000000cH
  00354	8d 85 a8 fe ff
	ff		 lea	 eax, DWORD PTR _stNextKey$[ebp]
  0035a	8d 8d b4 fe ff
	ff		 lea	 ecx, DWORD PTR _strData$[ebp]
  00360	50		 push	 eax
  00361	ff 15 00 00 00
	00		 call	 DWORD PTR __imp_??Y?$CStringT@DV?$StrTraitMFC_DLL@DV?$ChTraitsCRT@D@ATL@@@@@ATL@@QAEAAV01@ABV?$CSimpleStringT@D$00@1@@Z
  00367	6a 7f		 push	 127			; 0000007fH
  00369	8d 8d b4 fe ff
	ff		 lea	 ecx, DWORD PTR _strData$[ebp]
  0036f	ff 15 00 00 00
	00		 call	 DWORD PTR __imp_??Y?$CStringT@DV?$StrTraitMFC_DLL@DV?$ChTraitsCRT@D@ATL@@@@@ATL@@QAEAAV01@D@Z
  00375	8d 85 b0 fe ff
	ff		 lea	 eax, DWORD PTR _stNextData$[ebp]
  0037b	50		 push	 eax
  0037c	8d 8d b4 fe ff
	ff		 lea	 ecx, DWORD PTR _strData$[ebp]
  00382	ff 15 00 00 00
	00		 call	 DWORD PTR __imp_??Y?$CStringT@DV?$StrTraitMFC_DLL@DV?$ChTraitsCRT@D@ATL@@@@@ATL@@QAEAAV01@ABV?$CSimpleStringT@D$00@1@@Z
  00388	6a 09		 push	 9
  0038a	8d 8d b4 fe ff
	ff		 lea	 ecx, DWORD PTR _strData$[ebp]
  00390	ff 15 00 00 00
	00		 call	 DWORD PTR __imp_??Y?$CStringT@DV?$StrTraitMFC_DLL@DV?$ChTraitsCRT@D@ATL@@@@@ATL@@QAEAAV01@D@Z
$LN30@Convert:
  00396	c7 85 40 ff ff
	ff 00 00 00 00	 mov	 DWORD PTR _pFOSymbol$[ebp], OFFSET ??_C@_05IGGDOMBJ@51301@
  003a0	33 f6		 xor	 esi, esi
  003a2	c7 85 44 ff ff
	ff 00 00 00 00	 mov	 DWORD PTR _pFOSymbol$[ebp+4], OFFSET ??_C@_05LMHPMEFK@51022@
  003ac	c7 85 48 ff ff
	ff 00 00 00 00	 mov	 DWORD PTR _pFOSymbol$[ebp+8], OFFSET ??_C@_05KFGEPFBL@51023@
  003b6	c7 85 4c ff ff
	ff 00 00 00 00	 mov	 DWORD PTR _pFOSymbol$[ebp+12], OFFSET ??_C@_05LFJHOEKM@51313@
  003c0	c7 85 50 ff ff
	ff 00 00 00 00	 mov	 DWORD PTR _pFOSymbol$[ebp+16], OFFSET ??_C@_05OKCFGDNM@51024@
  003ca	c7 85 54 ff ff
	ff 00 00 00 00	 mov	 DWORD PTR _pFOSymbol$[ebp+20], OFFSET ??_C@_05KEKGJPCM@51033@
  003d4	c7 85 58 ff ff
	ff 00 00 00 00	 mov	 DWORD PTR _pFOSymbol$[ebp+24], OFFSET ??_C@_05MBAIDABP@51027@

; 233  : 						// ,  ,  ,// ,  ,  ,
; 234  : 						"51029", "51030", "51031"};// "51029", "51030", "51031", };

  003de	c7 85 5c ff ff
	ff 00 00 00 00	 mov	 DWORD PTR _pFOSymbol$[ebp+28], OFFSET ??_C@_05FPILBNJB@51029@
  003e8	c7 85 60 ff ff
	ff 00 00 00 00	 mov	 DWORD PTR _pFOSymbol$[ebp+32], OFFSET ??_C@_05IPILMMOP@51030@
  003f2	c7 85 64 ff ff
	ff 00 00 00 00	 mov	 DWORD PTR _pFOSymbol$[ebp+36], OFFSET ??_C@_05JGJAPNKO@51031@
  003fc	0f 1f 40 00	 npad	 4
$LL6@Convert:

; 235  : 						// ,   ,  ,  ,  ,
; 236  : //							"30354", "30355", "30358", "30359", "30360", };
; 237  : 
; 238  : 	for(i = 0; i < sizeof(pFOSymbol)/sizeof(char*); i++)
; 239  : 	{
; 240  : 		strData += pFOSymbol[i];

  00400	ff b4 b5 40 ff
	ff ff		 push	 DWORD PTR _pFOSymbol$[ebp+esi*4]
  00407	8d 8d b4 fe ff
	ff		 lea	 ecx, DWORD PTR _strData$[ebp]
  0040d	ff 15 00 00 00
	00		 call	 DWORD PTR __imp_??Y?$CStringT@DV?$StrTraitMFC_DLL@DV?$ChTraitsCRT@D@ATL@@@@@ATL@@QAEAAV01@PBD@Z

; 241  : 		strData += sCELL;

  00413	6a 09		 push	 9
  00415	8d 8d b4 fe ff
	ff		 lea	 ecx, DWORD PTR _strData$[ebp]
  0041b	ff 15 00 00 00
	00		 call	 DWORD PTR __imp_??Y?$CStringT@DV?$StrTraitMFC_DLL@DV?$ChTraitsCRT@D@ATL@@@@@ATL@@QAEAAV01@D@Z
  00421	46		 inc	 esi
  00422	83 fe 0a	 cmp	 esi, 10			; 0000000aH
  00425	72 d9		 jb	 SHORT $LL6@Convert

; 242  : 	}
; 243  : 
; 244  : 	strData += stNextKey;

  00427	8d 85 a8 fe ff
	ff		 lea	 eax, DWORD PTR _stNextKey$[ebp]
  0042d	50		 push	 eax
  0042e	8d 8d b4 fe ff
	ff		 lea	 ecx, DWORD PTR _strData$[ebp]
  00434	ff 15 00 00 00
	00		 call	 DWORD PTR __imp_??Y?$CStringT@DV?$StrTraitMFC_DLL@DV?$ChTraitsCRT@D@ATL@@@@@ATL@@QAEAAV01@ABV?$CSimpleStringT@D$00@1@@Z

; 245  : 	strData += sCELL;

  0043a	6a 09		 push	 9
  0043c	8d 8d b4 fe ff
	ff		 lea	 ecx, DWORD PTR _strData$[ebp]
  00442	ff 15 00 00 00
	00		 call	 DWORD PTR __imp_??Y?$CStringT@DV?$StrTraitMFC_DLL@DV?$ChTraitsCRT@D@ATL@@@@@ATL@@QAEAAV01@D@Z

; 246  : 	//////////////////////////////////////////////////////////////////////////
; 247  : 	//  (, ) OutBound
; 248  : 	//////////////////////////////////////////////////////////////////////////
; 249  : 
; 250  : 	//  
; 251  : 
; 252  : 
; 253  : 	//////////////////////////////////////////////////////////////////////////
; 254  : 	// Row Data 
; 255  : 	int nSize;
; 256  : 	strData += stRowData;

  00448	8d 85 a0 fe ff
	ff		 lea	 eax, DWORD PTR _stRowData$[ebp]
  0044e	50		 push	 eax
  0044f	8d 8d b4 fe ff
	ff		 lea	 ecx, DWORD PTR _strData$[ebp]
  00455	ff 15 00 00 00
	00		 call	 DWORD PTR __imp_??Y?$CStringT@DV?$StrTraitMFC_DLL@DV?$ChTraitsCRT@D@ATL@@@@@ATL@@QAEAAV01@ABV?$CSimpleStringT@D$00@1@@Z

; 257  : 	strData += sDS;

  0045b	6a 7f		 push	 127			; 0000007fH
  0045d	8d 8d b4 fe ff
	ff		 lea	 ecx, DWORD PTR _strData$[ebp]
  00463	ff 15 00 00 00
	00		 call	 DWORD PTR __imp_??Y?$CStringT@DV?$StrTraitMFC_DLL@DV?$ChTraitsCRT@D@ATL@@@@@ATL@@QAEAAV01@D@Z

; 258  : 	
; 259  : 	CString temp;

  00469	8d 8d 98 fe ff
	ff		 lea	 ecx, DWORD PTR _temp$[ebp]
  0046f	ff 15 00 00 00
	00		 call	 DWORD PTR __imp_??0?$CStringT@DV?$StrTraitMFC_DLL@DV?$ChTraitsCRT@D@ATL@@@@@ATL@@QAE@XZ

; 260  : 	//  
; 261  : 	int GrpHLen = 0;
; 262  : 	temp.Format("%06d", nCount);

  00475	ff b5 80 fe ff
	ff		 push	 DWORD PTR _nCount$1$[ebp]
  0047b	8d 85 98 fe ff
	ff		 lea	 eax, DWORD PTR _temp$[ebp]
  00481	c6 45 fc 0d	 mov	 BYTE PTR __$EHRec$[ebp+8], 13 ; 0000000dH
  00485	68 00 00 00 00	 push	 OFFSET ??_C@_04OBKAGHLG@?$CF06d@
  0048a	50		 push	 eax
  0048b	ff d7		 call	 edi

; 263  : 	CopyMemory(Datah.count, temp, temp.GetLength());

  0048d	8b 85 98 fe ff
	ff		 mov	 eax, DWORD PTR _temp$[ebp]
  00493	ff 70 f4	 push	 DWORD PTR [eax-12]
  00496	50		 push	 eax
  00497	8d 85 b8 fe ff
	ff		 lea	 eax, DWORD PTR _Datah$[ebp]
  0049d	50		 push	 eax
  0049e	e8 00 00 00 00	 call	 _memcpy

; 264  : 	Datah.dkey = 0 + 0x30;
; 265  : 	
; 266  : 	CopyMemory(Datah.pday, strDate, strDate.GetLength());

  004a3	8b 85 90 fe ff
	ff		 mov	 eax, DWORD PTR _strDate$[ebp]
  004a9	c6 85 c5 fe ff
	ff 30		 mov	 BYTE PTR _Datah$[ebp+13], 48 ; 00000030H
  004b0	ff 70 f4	 push	 DWORD PTR [eax-12]
  004b3	50		 push	 eax
  004b4	8d 85 c6 fe ff
	ff		 lea	 eax, DWORD PTR _Datah$[ebp+14]
  004ba	50		 push	 eax
  004bb	e8 00 00 00 00	 call	 _memcpy

; 267  : 	
; 268  : 	temp.Format("%0*d", sizeof(Datah.lgap), nUnit);// N 

  004c0	ff b5 ac fe ff
	ff		 push	 DWORD PTR _nUnit$1$[ebp]
  004c6	8d 85 98 fe ff
	ff		 lea	 eax, DWORD PTR _temp$[ebp]
  004cc	6a 04		 push	 4
  004ce	68 00 00 00 00	 push	 OFFSET ??_C@_04PEJMDNKC@?$CF0?$CKd@
  004d3	50		 push	 eax
  004d4	ff d7		 call	 edi

; 269  : 	CopyMemory(Datah.lgap, temp, temp.GetLength() );

  004d6	8b 85 98 fe ff
	ff		 mov	 eax, DWORD PTR _temp$[ebp]
  004dc	ff 70 f4	 push	 DWORD PTR [eax-12]
  004df	50		 push	 eax
  004e0	8d 85 d0 fe ff
	ff		 lea	 eax, DWORD PTR _Datah$[ebp+24]
  004e6	50		 push	 eax
  004e7	e8 00 00 00 00	 call	 _memcpy
  004ec	83 c4 40	 add	 esp, 64			; 00000040H

; 270  : 	
; 271  : 	char szData_i[sz_DATAH];
; 272  : 	memset(szData_i, 0x00, sizeof(Datah));
; 273  : 	memcpy(szData_i, (char*)&Datah, sizeof(Datah));

  004ef	8d b5 b8 fe ff
	ff		 lea	 esi, DWORD PTR _Datah$[ebp]
  004f5	b9 22 00 00 00	 mov	 ecx, 34			; 00000022H
  004fa	8d bd 68 ff ff
	ff		 lea	 edi, DWORD PTR _szData_i$[ebp]
  00500	f3 a5		 rep movsd

; 274  : 	szData_i[sz_DATAH-1] = 0x00; // KHD :  0x00  .
; 275  : 	strData += szData_i;

  00502	8d 85 68 ff ff
	ff		 lea	 eax, DWORD PTR _szData_i$[ebp]
  00508	c6 45 ef 00	 mov	 BYTE PTR _szData_i$[ebp+135], 0
  0050c	50		 push	 eax
  0050d	8d 8d b4 fe ff
	ff		 lea	 ecx, DWORD PTR _strData$[ebp]
  00513	ff 15 00 00 00
	00		 call	 DWORD PTR __imp_??Y?$CStringT@DV?$StrTraitMFC_DLL@DV?$ChTraitsCRT@D@ATL@@@@@ATL@@QAEAAV01@PBD@Z

; 276  : 
; 277  : 	switch(nType)

  00519	8b 85 84 fe ff
	ff		 mov	 eax, DWORD PTR _nType$1$[ebp]
  0051f	83 f8 06	 cmp	 eax, 6
  00522	0f 87 cf 00 00
	00		 ja	 $LN19@Convert
  00528	ff 24 85 00 00
	00 00		 jmp	 DWORD PTR $LN109@Convert[eax*4]
$LN31@Convert:

; 278  : 	{
; 279  : 	case 0:		// 
; 280  : 		nSize = sizeof(szTickRowFieldForeign)/sizeof(char*);

  0052f	be 00 00 00 00	 mov	 esi, OFFSET ?szTickRowFieldForeign@@3PAPADA ; szTickRowFieldForeign
  00534	0f 1f 40 00 0f
	1f 84 00 00 00
	00 00		 npad	 12
$LL11@Convert:

; 281  : 		for(i = 0; i < nSize; i++)
; 282  : 		{
; 283  : 			strData += szTickRowFieldForeign[i];

  00540	ff 36		 push	 DWORD PTR [esi]
  00542	8d 8d b4 fe ff
	ff		 lea	 ecx, DWORD PTR _strData$[ebp]
  00548	ff 15 00 00 00
	00		 call	 DWORD PTR __imp_??Y?$CStringT@DV?$StrTraitMFC_DLL@DV?$ChTraitsCRT@D@ATL@@@@@ATL@@QAEAAV01@PBD@Z

; 284  : 			strData += sCOL;

  0054e	6a 0a		 push	 10			; 0000000aH
  00550	8d 8d b4 fe ff
	ff		 lea	 ecx, DWORD PTR _strData$[ebp]
  00556	ff 15 00 00 00
	00		 call	 DWORD PTR __imp_??Y?$CStringT@DV?$StrTraitMFC_DLL@DV?$ChTraitsCRT@D@ATL@@@@@ATL@@QAEAAV01@D@Z
  0055c	83 c6 04	 add	 esi, 4
  0055f	81 fe 1c 00 00
	00		 cmp	 esi, OFFSET ?szTickRowFieldForeign@@3PAPADA+28
  00565	7c d9		 jl	 SHORT $LL11@Convert

; 285  : 		}
; 286  : 		break;

  00567	e9 8b 00 00 00	 jmp	 $LN19@Convert
$LN32@Convert:

; 287  : 
; 288  : 	case 1:		// 
; 289  : 		nSize = sizeof(szMinRowFieldForeign)/sizeof(char*);

  0056c	be 00 00 00 00	 mov	 esi, OFFSET ?szMinRowFieldForeign@@3PAPADA ; szMinRowFieldForeign
$LL14@Convert:

; 290  : 		for(i = 0; i < nSize; i++)
; 291  : 		{
; 292  : 			strData += szMinRowFieldForeign[i];

  00571	ff 36		 push	 DWORD PTR [esi]
  00573	8d 8d b4 fe ff
	ff		 lea	 ecx, DWORD PTR _strData$[ebp]
  00579	ff 15 00 00 00
	00		 call	 DWORD PTR __imp_??Y?$CStringT@DV?$StrTraitMFC_DLL@DV?$ChTraitsCRT@D@ATL@@@@@ATL@@QAEAAV01@PBD@Z

; 293  : 			strData += sCOL;

  0057f	6a 0a		 push	 10			; 0000000aH
  00581	8d 8d b4 fe ff
	ff		 lea	 ecx, DWORD PTR _strData$[ebp]
  00587	ff 15 00 00 00
	00		 call	 DWORD PTR __imp_??Y?$CStringT@DV?$StrTraitMFC_DLL@DV?$ChTraitsCRT@D@ATL@@@@@ATL@@QAEAAV01@D@Z
  0058d	83 c6 04	 add	 esi, 4
  00590	81 fe 1c 00 00
	00		 cmp	 esi, OFFSET ?szMinRowFieldForeign@@3PAPADA+28
  00596	7c d9		 jl	 SHORT $LL14@Convert

; 294  : 		}
; 295  : 		break;

  00598	eb 5d		 jmp	 SHORT $LN19@Convert
$LN33@Convert:

; 296  : 
; 297  : 	case 2:		// 
; 298  : 	case 3:		// 
; 299  : 	case 4:		// 
; 300  : 		nSize = sizeof(szDayRowFieldForeign)/sizeof(char*);

  0059a	be 00 00 00 00	 mov	 esi, OFFSET ?szDayRowFieldForeign@@3PAPADA ; szDayRowFieldForeign
  0059f	90		 npad	 1
$LL17@Convert:

; 301  : 		for(i = 0; i < nSize; i++)
; 302  : 		{
; 303  : 			strData += szDayRowFieldForeign[i];

  005a0	ff 36		 push	 DWORD PTR [esi]
  005a2	8d 8d b4 fe ff
	ff		 lea	 ecx, DWORD PTR _strData$[ebp]
  005a8	ff 15 00 00 00
	00		 call	 DWORD PTR __imp_??Y?$CStringT@DV?$StrTraitMFC_DLL@DV?$ChTraitsCRT@D@ATL@@@@@ATL@@QAEAAV01@PBD@Z

; 304  : 			strData += sCOL;

  005ae	6a 0a		 push	 10			; 0000000aH
  005b0	8d 8d b4 fe ff
	ff		 lea	 ecx, DWORD PTR _strData$[ebp]
  005b6	ff 15 00 00 00
	00		 call	 DWORD PTR __imp_??Y?$CStringT@DV?$StrTraitMFC_DLL@DV?$ChTraitsCRT@D@ATL@@@@@ATL@@QAEAAV01@D@Z
  005bc	83 c6 04	 add	 esi, 4
  005bf	81 fe 18 00 00
	00		 cmp	 esi, OFFSET ?szDayRowFieldForeign@@3PAPADA+24
  005c5	7c d9		 jl	 SHORT $LL17@Convert

; 305  : 		}
; 306  : 		break;

  005c7	eb 2e		 jmp	 SHORT $LN19@Convert
$LN36@Convert:

; 307  : 	case 6:		// 
; 308  : 		nSize = sizeof(szSecRowFieldForeign)/sizeof(char*);

  005c9	be 00 00 00 00	 mov	 esi, OFFSET ?szSecRowFieldForeign@@3PAPADA ; szSecRowFieldForeign
  005ce	66 90		 npad	 2
$LL20@Convert:

; 309  : 		for(i = 0; i < nSize; i++)
; 310  : 		{
; 311  : 			strData += szSecRowFieldForeign[i];

  005d0	ff 36		 push	 DWORD PTR [esi]
  005d2	8d 8d b4 fe ff
	ff		 lea	 ecx, DWORD PTR _strData$[ebp]
  005d8	ff 15 00 00 00
	00		 call	 DWORD PTR __imp_??Y?$CStringT@DV?$StrTraitMFC_DLL@DV?$ChTraitsCRT@D@ATL@@@@@ATL@@QAEAAV01@PBD@Z

; 312  : 			strData += sCOL;

  005de	6a 0a		 push	 10			; 0000000aH
  005e0	8d 8d b4 fe ff
	ff		 lea	 ecx, DWORD PTR _strData$[ebp]
  005e6	ff 15 00 00 00
	00		 call	 DWORD PTR __imp_??Y?$CStringT@DV?$StrTraitMFC_DLL@DV?$ChTraitsCRT@D@ATL@@@@@ATL@@QAEAAV01@D@Z
  005ec	83 c6 04	 add	 esi, 4
  005ef	81 fe 1c 00 00
	00		 cmp	 esi, OFFSET ?szSecRowFieldForeign@@3PAPADA+28
  005f5	7c d9		 jl	 SHORT $LL20@Convert
$LN19@Convert:

; 313  : 		}
; 314  : 		break;
; 315  : 	}
; 316  : 
; 317  : 	strData += sCELL;

  005f7	6a 09		 push	 9
  005f9	8d 8d b4 fe ff
	ff		 lea	 ecx, DWORD PTR _strData$[ebp]
  005ff	ff 15 00 00 00
	00		 call	 DWORD PTR __imp_??Y?$CStringT@DV?$StrTraitMFC_DLL@DV?$ChTraitsCRT@D@ATL@@@@@ATL@@QAEAAV01@D@Z

; 318  : 
; 319  : 	return strData;

  00605	8d 85 b4 fe ff
	ff		 lea	 eax, DWORD PTR _strData$[ebp]
  0060b	8b cb		 mov	 ecx, ebx
  0060d	50		 push	 eax
  0060e	ff 15 00 00 00
	00		 call	 DWORD PTR __imp_??0?$CStringT@DV?$StrTraitMFC_DLL@DV?$ChTraitsCRT@D@ATL@@@@@ATL@@QAE@ABV01@@Z
  00614	8d 8d 98 fe ff
	ff		 lea	 ecx, DWORD PTR _temp$[ebp]
  0061a	ff 15 00 00 00
	00		 call	 DWORD PTR __imp_??1?$CStringT@DV?$StrTraitMFC_DLL@DV?$ChTraitsCRT@D@ATL@@@@@ATL@@QAE@XZ
  00620	eb 0d		 jmp	 SHORT $LN114@Convert
$LN24@Convert:

; 91   : 	}
; 92   : 
; 93   : 	//KHD :  . .    IBK  . 
; 94   : 	if(nType== 0 || nType == 1 || nType == 6) return "";

  00622	68 00 00 00 00	 push	 OFFSET ??_C@_00CNPNBAHC@@
  00627	8b cb		 mov	 ecx, ebx
  00629	ff 15 00 00 00
	00		 call	 DWORD PTR __imp_??0?$CStringT@DV?$StrTraitMFC_DLL@DV?$ChTraitsCRT@D@ATL@@@@@ATL@@QAE@PBD@Z
$LN114@Convert:

; 320  : }

  0062f	8d 8d 88 fe ff
	ff		 lea	 ecx, DWORD PTR _stNextKey2$[ebp]
  00635	ff 15 00 00 00
	00		 call	 DWORD PTR __imp_??1?$CStringT@DV?$StrTraitMFC_DLL@DV?$ChTraitsCRT@D@ATL@@@@@ATL@@QAE@XZ
  0063b	8d 8d a8 fe ff
	ff		 lea	 ecx, DWORD PTR _stNextKey$[ebp]
  00641	ff 15 00 00 00
	00		 call	 DWORD PTR __imp_??1?$CStringT@DV?$StrTraitMFC_DLL@DV?$ChTraitsCRT@D@ATL@@@@@ATL@@QAE@XZ
  00647	8d 8d b0 fe ff
	ff		 lea	 ecx, DWORD PTR _stNextData$[ebp]
  0064d	ff 15 00 00 00
	00		 call	 DWORD PTR __imp_??1?$CStringT@DV?$StrTraitMFC_DLL@DV?$ChTraitsCRT@D@ATL@@@@@ATL@@QAE@XZ
  00653	8d 8d a0 fe ff
	ff		 lea	 ecx, DWORD PTR _stRowData$[ebp]
  00659	ff 15 00 00 00
	00		 call	 DWORD PTR __imp_??1?$CStringT@DV?$StrTraitMFC_DLL@DV?$ChTraitsCRT@D@ATL@@@@@ATL@@QAE@XZ
  0065f	8d 8d 90 fe ff
	ff		 lea	 ecx, DWORD PTR _strDate$[ebp]
  00665	ff 15 00 00 00
	00		 call	 DWORD PTR __imp_??1?$CStringT@DV?$StrTraitMFC_DLL@DV?$ChTraitsCRT@D@ATL@@@@@ATL@@QAE@XZ
  0066b	8d 8d a4 fe ff
	ff		 lea	 ecx, DWORD PTR _strTemp$[ebp]
  00671	ff 15 00 00 00
	00		 call	 DWORD PTR __imp_??1?$CStringT@DV?$StrTraitMFC_DLL@DV?$ChTraitsCRT@D@ATL@@@@@ATL@@QAE@XZ
  00677	8d 8d 9c fe ff
	ff		 lea	 ecx, DWORD PTR _strCode$[ebp]
  0067d	ff 15 00 00 00
	00		 call	 DWORD PTR __imp_??1?$CStringT@DV?$StrTraitMFC_DLL@DV?$ChTraitsCRT@D@ATL@@@@@ATL@@QAE@XZ
  00683	8d 8d b4 fe ff
	ff		 lea	 ecx, DWORD PTR _strData$[ebp]
  00689	ff 15 00 00 00
	00		 call	 DWORD PTR __imp_??1?$CStringT@DV?$StrTraitMFC_DLL@DV?$ChTraitsCRT@D@ATL@@@@@ATL@@QAE@XZ
$LN112@Convert:
  0068f	8b c3		 mov	 eax, ebx
  00691	8b 4d f4	 mov	 ecx, DWORD PTR __$EHRec$[ebp]
  00694	64 89 0d 00 00
	00 00		 mov	 DWORD PTR fs:0, ecx
  0069b	59		 pop	 ecx
  0069c	5f		 pop	 edi
  0069d	5e		 pop	 esi
  0069e	5b		 pop	 ebx
  0069f	8b 4d f0	 mov	 ecx, DWORD PTR __$ArrayPad$[ebp]
  006a2	33 cd		 xor	 ecx, ebp
  006a4	e8 00 00 00 00	 call	 @__security_check_cookie@4
  006a9	8b e5		 mov	 esp, ebp
  006ab	5d		 pop	 ebp
  006ac	c2 04 00	 ret	 4
  006af	90		 npad	 1
$LN109@Convert:
  006b0	00 00 00 00	 DD	 $LN31@Convert
  006b4	00 00 00 00	 DD	 $LN32@Convert
  006b8	00 00 00 00	 DD	 $LN33@Convert
  006bc	00 00 00 00	 DD	 $LN33@Convert
  006c0	00 00 00 00	 DD	 $LN33@Convert
  006c4	00 00 00 00	 DD	 $LN19@Convert
  006c8	00 00 00 00	 DD	 $LN36@Convert
_TEXT	ENDS
;	COMDAT text$x
text$x	SEGMENT
__unwindfunclet$?Convert@CChartItemForeign@@QAE?AV?$CStringT@DV?$StrTraitMFC_DLL@DV?$ChTraitsCRT@D@ATL@@@@@ATL@@XZ$1:
  00000	8d 8d b4 fe ff
	ff		 lea	 ecx, DWORD PTR _strData$[ebp]
  00006	ff 25 00 00 00
	00		 jmp	 DWORD PTR __imp_??1?$CStringT@DV?$StrTraitMFC_DLL@DV?$ChTraitsCRT@D@ATL@@@@@ATL@@QAE@XZ
__unwindfunclet$?Convert@CChartItemForeign@@QAE?AV?$CStringT@DV?$StrTraitMFC_DLL@DV?$ChTraitsCRT@D@ATL@@@@@ATL@@XZ$2:
  0000c	8d 8d 9c fe ff
	ff		 lea	 ecx, DWORD PTR _strCode$[ebp]
  00012	ff 25 00 00 00
	00		 jmp	 DWORD PTR __imp_??1?$CStringT@DV?$StrTraitMFC_DLL@DV?$ChTraitsCRT@D@ATL@@@@@ATL@@QAE@XZ
__unwindfunclet$?Convert@CChartItemForeign@@QAE?AV?$CStringT@DV?$StrTraitMFC_DLL@DV?$ChTraitsCRT@D@ATL@@@@@ATL@@XZ$3:
  00018	8d 8d a4 fe ff
	ff		 lea	 ecx, DWORD PTR _strTemp$[ebp]
  0001e	ff 25 00 00 00
	00		 jmp	 DWORD PTR __imp_??1?$CStringT@DV?$StrTraitMFC_DLL@DV?$ChTraitsCRT@D@ATL@@@@@ATL@@QAE@XZ
__unwindfunclet$?Convert@CChartItemForeign@@QAE?AV?$CStringT@DV?$StrTraitMFC_DLL@DV?$ChTraitsCRT@D@ATL@@@@@ATL@@XZ$4:
  00024	8d 8d 90 fe ff
	ff		 lea	 ecx, DWORD PTR _strDate$[ebp]
  0002a	ff 25 00 00 00
	00		 jmp	 DWORD PTR __imp_??1?$CStringT@DV?$StrTraitMFC_DLL@DV?$ChTraitsCRT@D@ATL@@@@@ATL@@QAE@XZ
__unwindfunclet$?Convert@CChartItemForeign@@QAE?AV?$CStringT@DV?$StrTraitMFC_DLL@DV?$ChTraitsCRT@D@ATL@@@@@ATL@@XZ$5:
  00030	8d 8d ac fe ff
	ff		 lea	 ecx, DWORD PTR $T6[ebp]
  00036	ff 25 00 00 00
	00		 jmp	 DWORD PTR __imp_??1?$CStringT@DV?$StrTraitMFC_DLL@DV?$ChTraitsCRT@D@ATL@@@@@ATL@@QAE@XZ
__unwindfunclet$?Convert@CChartItemForeign@@QAE?AV?$CStringT@DV?$StrTraitMFC_DLL@DV?$ChTraitsCRT@D@ATL@@@@@ATL@@XZ$6:
  0003c	8d 8d ac fe ff
	ff		 lea	 ecx, DWORD PTR $T5[ebp]
  00042	ff 25 00 00 00
	00		 jmp	 DWORD PTR __imp_??1?$CStringT@DV?$StrTraitMFC_DLL@DV?$ChTraitsCRT@D@ATL@@@@@ATL@@QAE@XZ
__unwindfunclet$?Convert@CChartItemForeign@@QAE?AV?$CStringT@DV?$StrTraitMFC_DLL@DV?$ChTraitsCRT@D@ATL@@@@@ATL@@XZ$7:
  00048	8d 8d ac fe ff
	ff		 lea	 ecx, DWORD PTR $T4[ebp]
  0004e	ff 25 00 00 00
	00		 jmp	 DWORD PTR __imp_??1?$CStringT@DV?$StrTraitMFC_DLL@DV?$ChTraitsCRT@D@ATL@@@@@ATL@@QAE@XZ
__unwindfunclet$?Convert@CChartItemForeign@@QAE?AV?$CStringT@DV?$StrTraitMFC_DLL@DV?$ChTraitsCRT@D@ATL@@@@@ATL@@XZ$8:
  00054	8d 8d 8c fe ff
	ff		 lea	 ecx, DWORD PTR $T3[ebp]
  0005a	ff 25 00 00 00
	00		 jmp	 DWORD PTR __imp_??1?$CStringT@DV?$StrTraitMFC_DLL@DV?$ChTraitsCRT@D@ATL@@@@@ATL@@QAE@XZ
__unwindfunclet$?Convert@CChartItemForeign@@QAE?AV?$CStringT@DV?$StrTraitMFC_DLL@DV?$ChTraitsCRT@D@ATL@@@@@ATL@@XZ$9:
  00060	8d 8d 8c fe ff
	ff		 lea	 ecx, DWORD PTR $T2[ebp]
  00066	ff 25 00 00 00
	00		 jmp	 DWORD PTR __imp_??1?$CStringT@DV?$StrTraitMFC_DLL@DV?$ChTraitsCRT@D@ATL@@@@@ATL@@QAE@XZ
__unwindfunclet$?Convert@CChartItemForeign@@QAE?AV?$CStringT@DV?$StrTraitMFC_DLL@DV?$ChTraitsCRT@D@ATL@@@@@ATL@@XZ$10:
  0006c	8d 8d a0 fe ff
	ff		 lea	 ecx, DWORD PTR _stRowData$[ebp]
  00072	ff 25 00 00 00
	00		 jmp	 DWORD PTR __imp_??1?$CStringT@DV?$StrTraitMFC_DLL@DV?$ChTraitsCRT@D@ATL@@@@@ATL@@QAE@XZ
__unwindfunclet$?Convert@CChartItemForeign@@QAE?AV?$CStringT@DV?$StrTraitMFC_DLL@DV?$ChTraitsCRT@D@ATL@@@@@ATL@@XZ$11:
  00078	8d 8d b0 fe ff
	ff		 lea	 ecx, DWORD PTR _stNextData$[ebp]
  0007e	ff 25 00 00 00
	00		 jmp	 DWORD PTR __imp_??1?$CStringT@DV?$StrTraitMFC_DLL@DV?$ChTraitsCRT@D@ATL@@@@@ATL@@QAE@XZ
__unwindfunclet$?Convert@CChartItemForeign@@QAE?AV?$CStringT@DV?$StrTraitMFC_DLL@DV?$ChTraitsCRT@D@ATL@@@@@ATL@@XZ$12:
  00084	8d 8d a8 fe ff
	ff		 lea	 ecx, DWORD PTR _stNextKey$[ebp]
  0008a	ff 25 00 00 00
	00		 jmp	 DWORD PTR __imp_??1?$CStringT@DV?$StrTraitMFC_DLL@DV?$ChTraitsCRT@D@ATL@@@@@ATL@@QAE@XZ
__unwindfunclet$?Convert@CChartItemForeign@@QAE?AV?$CStringT@DV?$StrTraitMFC_DLL@DV?$ChTraitsCRT@D@ATL@@@@@ATL@@XZ$13:
  00090	8d 8d 88 fe ff
	ff		 lea	 ecx, DWORD PTR _stNextKey2$[ebp]
  00096	ff 25 00 00 00
	00		 jmp	 DWORD PTR __imp_??1?$CStringT@DV?$StrTraitMFC_DLL@DV?$ChTraitsCRT@D@ATL@@@@@ATL@@QAE@XZ
__unwindfunclet$?Convert@CChartItemForeign@@QAE?AV?$CStringT@DV?$StrTraitMFC_DLL@DV?$ChTraitsCRT@D@ATL@@@@@ATL@@XZ$14:
  0009c	8d 8d 98 fe ff
	ff		 lea	 ecx, DWORD PTR _temp$[ebp]
  000a2	ff 25 00 00 00
	00		 jmp	 DWORD PTR __imp_??1?$CStringT@DV?$StrTraitMFC_DLL@DV?$ChTraitsCRT@D@ATL@@@@@ATL@@QAE@XZ
  000a8	cc		 int	 3
  000a9	cc		 int	 3
  000aa	cc		 int	 3
  000ab	cc		 int	 3
  000ac	cc		 int	 3
__ehhandler$?Convert@CChartItemForeign@@QAE?AV?$CStringT@DV?$StrTraitMFC_DLL@DV?$ChTraitsCRT@D@ATL@@@@@ATL@@XZ:
  000ad	90		 npad	 1
  000ae	90		 npad	 1
  000af	8b 54 24 08	 mov	 edx, DWORD PTR [esp+8]
  000b3	8d 42 0c	 lea	 eax, DWORD PTR [edx+12]
  000b6	8b 8a 7c fe ff
	ff		 mov	 ecx, DWORD PTR [edx-388]
  000bc	33 c8		 xor	 ecx, eax
  000be	e8 00 00 00 00	 call	 @__security_check_cookie@4
  000c3	8b 4a fc	 mov	 ecx, DWORD PTR [edx-4]
  000c6	33 c8		 xor	 ecx, eax
  000c8	e8 00 00 00 00	 call	 @__security_check_cookie@4
  000cd	b8 00 00 00 00	 mov	 eax, OFFSET __ehfuncinfo$?Convert@CChartItemForeign@@QAE?AV?$CStringT@DV?$StrTraitMFC_DLL@DV?$ChTraitsCRT@D@ATL@@@@@ATL@@XZ
  000d2	e9 00 00 00 00	 jmp	 ___CxxFrameHandler3
text$x	ENDS
?Convert@CChartItemForeign@@QAE?AV?$CStringT@DV?$StrTraitMFC_DLL@DV?$ChTraitsCRT@D@ATL@@@@@ATL@@XZ ENDP ; CChartItemForeign::Convert
; Function compile flags: /Ogtp
; File D:\git\src\IBK\IBK_DRFN\ProjSrc\SrcDrfn\DrCommon\PartnerMng\ChartItemForeign.cpp
;	COMDAT ?SetInData@CChartItemForeign@@QAEXPAUKB_p0606_InRec1@@@Z
_TEXT	SEGMENT
_pData$ = 8						; size = 4
?SetInData@CChartItemForeign@@QAEXPAUKB_p0606_InRec1@@@Z PROC ; CChartItemForeign::SetInData, COMDAT
; _this$ = ecx

; 43   : {

  00000	55		 push	 ebp
  00001	8b ec		 mov	 ebp, esp

; 44   : 	memcpy(&m_InData, pData, sizeof(KB_p0606_InRec1));

  00003	8b 45 08	 mov	 eax, DWORD PTR _pData$[ebp]
  00006	0f 10 00	 movups	 xmm0, XMMWORD PTR [eax]
  00009	0f 11 41 04	 movups	 XMMWORD PTR [ecx+4], xmm0
  0000d	0f 10 40 10	 movups	 xmm0, XMMWORD PTR [eax+16]
  00011	0f 11 41 14	 movups	 XMMWORD PTR [ecx+20], xmm0
  00015	0f 10 40 20	 movups	 xmm0, XMMWORD PTR [eax+32]
  00019	0f 11 41 24	 movups	 XMMWORD PTR [ecx+36], xmm0
  0001d	0f 10 40 30	 movups	 xmm0, XMMWORD PTR [eax+48]

; 45   : 	m_bSet = TRUE;

  00021	c6 81 0c 01 00
	00 01		 mov	 BYTE PTR [ecx+268], 1
  00028	0f 11 41 34	 movups	 XMMWORD PTR [ecx+52], xmm0

; 46   : }

  0002c	5d		 pop	 ebp
  0002d	c2 04 00	 ret	 4
?SetInData@CChartItemForeign@@QAEXPAUKB_p0606_InRec1@@@Z ENDP ; CChartItemForeign::SetInData
_TEXT	ENDS
; Function compile flags: /Ogtp
; File D:\git\src\IBK\IBK_DRFN\ProjSrc\SrcDrfn\DrCommon\PartnerMng\ChartItemForeign.cpp
;	COMDAT ??1CChartItemForeign@@UAE@XZ
_TEXT	SEGMENT
??1CChartItemForeign@@UAE@XZ PROC			; CChartItemForeign::~CChartItemForeign, COMDAT
; _this$ = ecx

; 38   : {

  00000	c7 01 00 00 00
	00		 mov	 DWORD PTR [ecx], OFFSET ??_7CChartItemForeign@@6B@

; 39   : 
; 40   : }

  00006	83 c1 44	 add	 ecx, 68			; 00000044H
  00009	e9 00 00 00 00	 jmp	 ??1CChartBozoInput@@QAE@XZ
??1CChartItemForeign@@UAE@XZ ENDP			; CChartItemForeign::~CChartItemForeign
_TEXT	ENDS
; Function compile flags: /Ogtp
; File D:\git\src\IBK\IBK_DRFN\ProjSrc\SrcDrfn\DrCommon\PartnerMng\ChartItemForeign.cpp
; File D:\git\src\IBK\IBK_DRFN\ProjSrc\SrcDrfn\inc\IChartBozoMsgMng.h
; File D:\git\src\IBK\IBK_DRFN\ProjSrc\SrcDrfn\DrCommon\PartnerMng\ChartItemForeign.cpp
;	COMDAT ??0CChartItemForeign@@QAE@XZ
_TEXT	SEGMENT
_this$ = -4						; size = 4
??0CChartItemForeign@@QAE@XZ PROC			; CChartItemForeign::CChartItemForeign, COMDAT
; _this$ = ecx

; 33   : {

  00000	55		 push	 ebp
  00001	8b ec		 mov	 ebp, esp
  00003	51		 push	 ecx
  00004	56		 push	 esi
  00005	8b f1		 mov	 esi, ecx
  00007	89 75 fc	 mov	 DWORD PTR _this$[ebp], esi
  0000a	c7 06 00 00 00
	00		 mov	 DWORD PTR [esi], OFFSET ??_7CChartItemForeign@@6B@
; File D:\git\src\IBK\IBK_DRFN\ProjSrc\SrcDrfn\inc\IChartBozoMsgMng.h

; 39   : 	CChartBozoInput()	{ InitData();	};

  00010	8d 4e 48	 lea	 ecx, DWORD PTR [esi+72]
  00013	c7 46 44 00 00
	00 00		 mov	 DWORD PTR [esi+68], OFFSET ??_7CChartBozoInput@@6B@
  0001a	ff 15 00 00 00
	00		 call	 DWORD PTR __imp_??0?$CStringT@DV?$StrTraitMFC_DLL@DV?$ChTraitsCRT@D@ATL@@@@@ATL@@QAE@XZ
  00020	8d 4e 4c	 lea	 ecx, DWORD PTR [esi+76]
  00023	ff 15 00 00 00
	00		 call	 DWORD PTR __imp_??0?$CStringT@DV?$StrTraitMFC_DLL@DV?$ChTraitsCRT@D@ATL@@@@@ATL@@QAE@XZ
  00029	8d 4e 50	 lea	 ecx, DWORD PTR [esi+80]
  0002c	ff 15 00 00 00
	00		 call	 DWORD PTR __imp_??0?$CStringT@DV?$StrTraitMFC_DLL@DV?$ChTraitsCRT@D@ATL@@@@@ATL@@QAE@XZ
  00032	8d 4e 54	 lea	 ecx, DWORD PTR [esi+84]
  00035	ff 15 00 00 00
	00		 call	 DWORD PTR __imp_??0?$CStringT@DV?$StrTraitMFC_DLL@DV?$ChTraitsCRT@D@ATL@@@@@ATL@@QAE@XZ
  0003b	8d 4e 58	 lea	 ecx, DWORD PTR [esi+88]
  0003e	ff 15 00 00 00
	00		 call	 DWORD PTR __imp_??0?$CStringT@DV?$StrTraitMFC_DLL@DV?$ChTraitsCRT@D@ATL@@@@@ATL@@QAE@XZ
  00044	8d 4e 5c	 lea	 ecx, DWORD PTR [esi+92]
  00047	ff 15 00 00 00
	00		 call	 DWORD PTR __imp_??0?$CStringT@DV?$StrTraitMFC_DLL@DV?$ChTraitsCRT@D@ATL@@@@@ATL@@QAE@XZ
  0004d	8d 4e 60	 lea	 ecx, DWORD PTR [esi+96]
  00050	ff 15 00 00 00
	00		 call	 DWORD PTR __imp_??0?$CStringT@DV?$StrTraitMFC_DLL@DV?$ChTraitsCRT@D@ATL@@@@@ATL@@QAE@XZ
  00056	8d 4e 64	 lea	 ecx, DWORD PTR [esi+100]
  00059	ff 15 00 00 00
	00		 call	 DWORD PTR __imp_??0?$CStringT@DV?$StrTraitMFC_DLL@DV?$ChTraitsCRT@D@ATL@@@@@ATL@@QAE@XZ
  0005f	8d 4e 68	 lea	 ecx, DWORD PTR [esi+104]
  00062	ff 15 00 00 00
	00		 call	 DWORD PTR __imp_??0?$CStringT@DV?$StrTraitMFC_DLL@DV?$ChTraitsCRT@D@ATL@@@@@ATL@@QAE@XZ
  00068	8d 4e 6c	 lea	 ecx, DWORD PTR [esi+108]
  0006b	ff 15 00 00 00
	00		 call	 DWORD PTR __imp_??0?$CStringT@DV?$StrTraitMFC_DLL@DV?$ChTraitsCRT@D@ATL@@@@@ATL@@QAE@XZ
  00071	8d 4e 70	 lea	 ecx, DWORD PTR [esi+112]
  00074	ff 15 00 00 00
	00		 call	 DWORD PTR __imp_??0?$CStringT@DV?$StrTraitMFC_DLL@DV?$ChTraitsCRT@D@ATL@@@@@ATL@@QAE@XZ
  0007a	8d 4e 74	 lea	 ecx, DWORD PTR [esi+116]
  0007d	ff 15 00 00 00
	00		 call	 DWORD PTR __imp_??0?$CStringT@DV?$StrTraitMFC_DLL@DV?$ChTraitsCRT@D@ATL@@@@@ATL@@QAE@XZ
  00083	8d 4e 78	 lea	 ecx, DWORD PTR [esi+120]
  00086	ff 15 00 00 00
	00		 call	 DWORD PTR __imp_??0?$CStringT@DV?$StrTraitMFC_DLL@DV?$ChTraitsCRT@D@ATL@@@@@ATL@@QAE@XZ
  0008c	8d 4e 7c	 lea	 ecx, DWORD PTR [esi+124]
  0008f	ff 15 00 00 00
	00		 call	 DWORD PTR __imp_??0?$CStringT@DV?$StrTraitMFC_DLL@DV?$ChTraitsCRT@D@ATL@@@@@ATL@@QAE@XZ
  00095	8d 8e 80 00 00
	00		 lea	 ecx, DWORD PTR [esi+128]
  0009b	ff 15 00 00 00
	00		 call	 DWORD PTR __imp_??0?$CStringT@DV?$StrTraitMFC_DLL@DV?$ChTraitsCRT@D@ATL@@@@@ATL@@QAE@XZ
  000a1	8d 8e 84 00 00
	00		 lea	 ecx, DWORD PTR [esi+132]
  000a7	ff 15 00 00 00
	00		 call	 DWORD PTR __imp_??0?$CStringT@DV?$StrTraitMFC_DLL@DV?$ChTraitsCRT@D@ATL@@@@@ATL@@QAE@XZ
  000ad	8d 8e 88 00 00
	00		 lea	 ecx, DWORD PTR [esi+136]
  000b3	ff 15 00 00 00
	00		 call	 DWORD PTR __imp_??0?$CStringT@DV?$StrTraitMFC_DLL@DV?$ChTraitsCRT@D@ATL@@@@@ATL@@QAE@XZ
  000b9	8d 8e 8c 00 00
	00		 lea	 ecx, DWORD PTR [esi+140]
  000bf	ff 15 00 00 00
	00		 call	 DWORD PTR __imp_??0?$CStringT@DV?$StrTraitMFC_DLL@DV?$ChTraitsCRT@D@ATL@@@@@ATL@@QAE@XZ
  000c5	8d 8e 90 00 00
	00		 lea	 ecx, DWORD PTR [esi+144]
  000cb	ff 15 00 00 00
	00		 call	 DWORD PTR __imp_??0?$CStringT@DV?$StrTraitMFC_DLL@DV?$ChTraitsCRT@D@ATL@@@@@ATL@@QAE@XZ
  000d1	8d 8e 94 00 00
	00		 lea	 ecx, DWORD PTR [esi+148]
  000d7	ff 15 00 00 00
	00		 call	 DWORD PTR __imp_??0?$CStringT@DV?$StrTraitMFC_DLL@DV?$ChTraitsCRT@D@ATL@@@@@ATL@@QAE@XZ
  000dd	8d 8e 98 00 00
	00		 lea	 ecx, DWORD PTR [esi+152]
  000e3	ff 15 00 00 00
	00		 call	 DWORD PTR __imp_??0?$CStringT@DV?$StrTraitMFC_DLL@DV?$ChTraitsCRT@D@ATL@@@@@ATL@@QAE@XZ
  000e9	8d 8e 9c 00 00
	00		 lea	 ecx, DWORD PTR [esi+156]
  000ef	ff 15 00 00 00
	00		 call	 DWORD PTR __imp_??0?$CStringT@DV?$StrTraitMFC_DLL@DV?$ChTraitsCRT@D@ATL@@@@@ATL@@QAE@XZ
  000f5	8d 8e a0 00 00
	00		 lea	 ecx, DWORD PTR [esi+160]
  000fb	ff 15 00 00 00
	00		 call	 DWORD PTR __imp_??0?$CStringT@DV?$StrTraitMFC_DLL@DV?$ChTraitsCRT@D@ATL@@@@@ATL@@QAE@XZ
  00101	8d 8e a4 00 00
	00		 lea	 ecx, DWORD PTR [esi+164]
  00107	ff 15 00 00 00
	00		 call	 DWORD PTR __imp_??0?$CStringT@DV?$StrTraitMFC_DLL@DV?$ChTraitsCRT@D@ATL@@@@@ATL@@QAE@XZ
  0010d	8d 8e a8 00 00
	00		 lea	 ecx, DWORD PTR [esi+168]
  00113	ff 15 00 00 00
	00		 call	 DWORD PTR __imp_??0?$CStringT@DV?$StrTraitMFC_DLL@DV?$ChTraitsCRT@D@ATL@@@@@ATL@@QAE@XZ
  00119	8d 8e 04 01 00
	00		 lea	 ecx, DWORD PTR [esi+260]
  0011f	ff 15 00 00 00
	00		 call	 DWORD PTR __imp_??0?$CStringT@DV?$StrTraitMFC_DLL@DV?$ChTraitsCRT@D@ATL@@@@@ATL@@QAE@XZ

; 49   : 		ZeroMemory(sDataType, sizeof(sDataType));

  00125	33 c0		 xor	 eax, eax
  00127	0f 57 c0	 xorps	 xmm0, xmm0

; 40   : 	CChartBozoInput(const CChartBozoInput& obj)	{ *this = obj;	};
; 41   : 
; 42   : 	void InitData()
; 43   : 	{
; 44   : 		ZeroMemory(sShcode, sizeof(sShcode));

  0012a	0f 11 86 ac 00
	00 00		 movups	 XMMWORD PTR [esi+172], xmm0

; 45   : //		ZeroMemory(sTick, sizeof(sTick));
; 46   : 		lTick = 0;

  00131	c7 86 bc 00 00
	00 00 00 00 00	 mov	 DWORD PTR [esi+188], 0

; 47   : 		ZeroMemory(sTerm, sizeof(sTerm));
; 48   : 		ZeroMemory(sNxtFlg, sizeof(sNxtFlg));
; 49   : 		ZeroMemory(sDataType, sizeof(sDataType));

  0013b	66 89 86 c0 00
	00 00		 mov	 WORD PTR [esi+192], ax
  00142	88 86 c2 00 00
	00		 mov	 BYTE PTR [esi+194], al

; 50   : 		lPrice = 0;

  00148	89 86 c4 00 00
	00		 mov	 DWORD PTR [esi+196], eax

; 51   : 		lVolume = 0;

  0014e	89 86 c8 00 00
	00		 mov	 DWORD PTR [esi+200], eax

; 52   : 		lUpLmtPrice = 0;

  00154	89 86 cc 00 00
	00		 mov	 DWORD PTR [esi+204], eax

; 53   : 		lDnLmtPrice = 0;

  0015a	89 86 d0 00 00
	00		 mov	 DWORD PTR [esi+208], eax

; 54   : 		lOpen;
; 55   : 		lHigh;
; 56   : 		lLow;
; 57   : 		lPreprice;	
; 58   : 		lPreVolume;	
; 59   : 		lPreOpen;
; 60   : 		lPreHigh;
; 61   : 		lPreLow;
; 62   : 		//ZeroMemory(sStartTime, sizeof(sStartTime));
; 63   : 		lFirstClose = 0;		

  00160	89 86 e8 00 00
	00		 mov	 DWORD PTR [esi+232], eax

; 64   : 		nMarket = 0;

  00166	89 86 f8 00 00
	00		 mov	 DWORD PTR [esi+248], eax

; 65   : 		lWonDollar = 0;

  0016c	89 86 fc 00 00
	00		 mov	 DWORD PTR [esi+252], eax

; 66   : 
; 67   : //vntsorl_20110420:[A00000410]      
; 68   : 		nPacketType = 0;

  00172	89 86 00 01 00
	00		 mov	 DWORD PTR [esi+256], eax
; File D:\git\src\IBK\IBK_DRFN\ProjSrc\SrcDrfn\DrCommon\PartnerMng\ChartItemForeign.cpp

; 34   : 	m_bSet = FALSE;

  00178	88 86 0c 01 00
	00		 mov	 BYTE PTR [esi+268], al

; 35   : }

  0017e	8b c6		 mov	 eax, esi
  00180	5e		 pop	 esi
  00181	8b e5		 mov	 esp, ebp
  00183	5d		 pop	 ebp
  00184	c3		 ret	 0
??0CChartItemForeign@@QAE@XZ ENDP			; CChartItemForeign::CChartItemForeign
_TEXT	ENDS
; Function compile flags: /Ogtp
;	COMDAT ??1CChartBozoInput@@QAE@XZ
_TEXT	SEGMENT
??1CChartBozoInput@@QAE@XZ PROC				; CChartBozoInput::~CChartBozoInput, COMDAT
; _this$ = ecx
  00000	56		 push	 esi
  00001	8b f1		 mov	 esi, ecx
  00003	8d 8e c0 00 00
	00		 lea	 ecx, DWORD PTR [esi+192]
  00009	ff 15 00 00 00
	00		 call	 DWORD PTR __imp_??1?$CStringT@DV?$StrTraitMFC_DLL@DV?$ChTraitsCRT@D@ATL@@@@@ATL@@QAE@XZ
  0000f	8d 4e 64	 lea	 ecx, DWORD PTR [esi+100]
  00012	ff 15 00 00 00
	00		 call	 DWORD PTR __imp_??1?$CStringT@DV?$StrTraitMFC_DLL@DV?$ChTraitsCRT@D@ATL@@@@@ATL@@QAE@XZ
  00018	8d 4e 60	 lea	 ecx, DWORD PTR [esi+96]
  0001b	ff 15 00 00 00
	00		 call	 DWORD PTR __imp_??1?$CStringT@DV?$StrTraitMFC_DLL@DV?$ChTraitsCRT@D@ATL@@@@@ATL@@QAE@XZ
  00021	8d 4e 5c	 lea	 ecx, DWORD PTR [esi+92]
  00024	ff 15 00 00 00
	00		 call	 DWORD PTR __imp_??1?$CStringT@DV?$StrTraitMFC_DLL@DV?$ChTraitsCRT@D@ATL@@@@@ATL@@QAE@XZ
  0002a	8d 4e 58	 lea	 ecx, DWORD PTR [esi+88]
  0002d	ff 15 00 00 00
	00		 call	 DWORD PTR __imp_??1?$CStringT@DV?$StrTraitMFC_DLL@DV?$ChTraitsCRT@D@ATL@@@@@ATL@@QAE@XZ
  00033	8d 4e 54	 lea	 ecx, DWORD PTR [esi+84]
  00036	ff 15 00 00 00
	00		 call	 DWORD PTR __imp_??1?$CStringT@DV?$StrTraitMFC_DLL@DV?$ChTraitsCRT@D@ATL@@@@@ATL@@QAE@XZ
  0003c	8d 4e 50	 lea	 ecx, DWORD PTR [esi+80]
  0003f	ff 15 00 00 00
	00		 call	 DWORD PTR __imp_??1?$CStringT@DV?$StrTraitMFC_DLL@DV?$ChTraitsCRT@D@ATL@@@@@ATL@@QAE@XZ
  00045	8d 4e 4c	 lea	 ecx, DWORD PTR [esi+76]
  00048	ff 15 00 00 00
	00		 call	 DWORD PTR __imp_??1?$CStringT@DV?$StrTraitMFC_DLL@DV?$ChTraitsCRT@D@ATL@@@@@ATL@@QAE@XZ
  0004e	8d 4e 48	 lea	 ecx, DWORD PTR [esi+72]
  00051	ff 15 00 00 00
	00		 call	 DWORD PTR __imp_??1?$CStringT@DV?$StrTraitMFC_DLL@DV?$ChTraitsCRT@D@ATL@@@@@ATL@@QAE@XZ
  00057	8d 4e 44	 lea	 ecx, DWORD PTR [esi+68]
  0005a	ff 15 00 00 00
	00		 call	 DWORD PTR __imp_??1?$CStringT@DV?$StrTraitMFC_DLL@DV?$ChTraitsCRT@D@ATL@@@@@ATL@@QAE@XZ
  00060	8d 4e 40	 lea	 ecx, DWORD PTR [esi+64]
  00063	ff 15 00 00 00
	00		 call	 DWORD PTR __imp_??1?$CStringT@DV?$StrTraitMFC_DLL@DV?$ChTraitsCRT@D@ATL@@@@@ATL@@QAE@XZ
  00069	8d 4e 3c	 lea	 ecx, DWORD PTR [esi+60]
  0006c	ff 15 00 00 00
	00		 call	 DWORD PTR __imp_??1?$CStringT@DV?$StrTraitMFC_DLL@DV?$ChTraitsCRT@D@ATL@@@@@ATL@@QAE@XZ
  00072	8d 4e 38	 lea	 ecx, DWORD PTR [esi+56]
  00075	ff 15 00 00 00
	00		 call	 DWORD PTR __imp_??1?$CStringT@DV?$StrTraitMFC_DLL@DV?$ChTraitsCRT@D@ATL@@@@@ATL@@QAE@XZ
  0007b	8d 4e 34	 lea	 ecx, DWORD PTR [esi+52]
  0007e	ff 15 00 00 00
	00		 call	 DWORD PTR __imp_??1?$CStringT@DV?$StrTraitMFC_DLL@DV?$ChTraitsCRT@D@ATL@@@@@ATL@@QAE@XZ
  00084	8d 4e 30	 lea	 ecx, DWORD PTR [esi+48]
  00087	ff 15 00 00 00
	00		 call	 DWORD PTR __imp_??1?$CStringT@DV?$StrTraitMFC_DLL@DV?$ChTraitsCRT@D@ATL@@@@@ATL@@QAE@XZ
  0008d	8d 4e 2c	 lea	 ecx, DWORD PTR [esi+44]
  00090	ff 15 00 00 00
	00		 call	 DWORD PTR __imp_??1?$CStringT@DV?$StrTraitMFC_DLL@DV?$ChTraitsCRT@D@ATL@@@@@ATL@@QAE@XZ
  00096	8d 4e 28	 lea	 ecx, DWORD PTR [esi+40]
  00099	ff 15 00 00 00
	00		 call	 DWORD PTR __imp_??1?$CStringT@DV?$StrTraitMFC_DLL@DV?$ChTraitsCRT@D@ATL@@@@@ATL@@QAE@XZ
  0009f	8d 4e 24	 lea	 ecx, DWORD PTR [esi+36]
  000a2	ff 15 00 00 00
	00		 call	 DWORD PTR __imp_??1?$CStringT@DV?$StrTraitMFC_DLL@DV?$ChTraitsCRT@D@ATL@@@@@ATL@@QAE@XZ
  000a8	8d 4e 20	 lea	 ecx, DWORD PTR [esi+32]
  000ab	ff 15 00 00 00
	00		 call	 DWORD PTR __imp_??1?$CStringT@DV?$StrTraitMFC_DLL@DV?$ChTraitsCRT@D@ATL@@@@@ATL@@QAE@XZ
  000b1	8d 4e 1c	 lea	 ecx, DWORD PTR [esi+28]
  000b4	ff 15 00 00 00
	00		 call	 DWORD PTR __imp_??1?$CStringT@DV?$StrTraitMFC_DLL@DV?$ChTraitsCRT@D@ATL@@@@@ATL@@QAE@XZ
  000ba	8d 4e 18	 lea	 ecx, DWORD PTR [esi+24]
  000bd	ff 15 00 00 00
	00		 call	 DWORD PTR __imp_??1?$CStringT@DV?$StrTraitMFC_DLL@DV?$ChTraitsCRT@D@ATL@@@@@ATL@@QAE@XZ
  000c3	8d 4e 14	 lea	 ecx, DWORD PTR [esi+20]
  000c6	ff 15 00 00 00
	00		 call	 DWORD PTR __imp_??1?$CStringT@DV?$StrTraitMFC_DLL@DV?$ChTraitsCRT@D@ATL@@@@@ATL@@QAE@XZ
  000cc	8d 4e 10	 lea	 ecx, DWORD PTR [esi+16]
  000cf	ff 15 00 00 00
	00		 call	 DWORD PTR __imp_??1?$CStringT@DV?$StrTraitMFC_DLL@DV?$ChTraitsCRT@D@ATL@@@@@ATL@@QAE@XZ
  000d5	8d 4e 0c	 lea	 ecx, DWORD PTR [esi+12]
  000d8	ff 15 00 00 00
	00		 call	 DWORD PTR __imp_??1?$CStringT@DV?$StrTraitMFC_DLL@DV?$ChTraitsCRT@D@ATL@@@@@ATL@@QAE@XZ
  000de	8d 4e 08	 lea	 ecx, DWORD PTR [esi+8]
  000e1	ff 15 00 00 00
	00		 call	 DWORD PTR __imp_??1?$CStringT@DV?$StrTraitMFC_DLL@DV?$ChTraitsCRT@D@ATL@@@@@ATL@@QAE@XZ
  000e7	8d 4e 04	 lea	 ecx, DWORD PTR [esi+4]
  000ea	5e		 pop	 esi
  000eb	ff 25 00 00 00
	00		 jmp	 DWORD PTR __imp_??1?$CStringT@DV?$StrTraitMFC_DLL@DV?$ChTraitsCRT@D@ATL@@@@@ATL@@QAE@XZ
??1CChartBozoInput@@QAE@XZ ENDP				; CChartBozoInput::~CChartBozoInput
_TEXT	ENDS
; Function compile flags: /Ogtp
; File D:\git\src\IBK\IBK_DRFN\ProjSrc\SrcDrfn\inc\IChartBozoMsgMng.h
;	COMDAT ??4CChartBozoInput@@UAEAAV0@ABV0@@Z
_TEXT	SEGMENT
_item$ = 8						; size = 4
??4CChartBozoInput@@UAEAAV0@ABV0@@Z PROC		; CChartBozoInput::operator=, COMDAT
; _this$ = ecx

; 124  : 	virtual CChartBozoInput& operator = (const CChartBozoInput& item)	{ Copy(item);	return *this; };

  00000	55		 push	 ebp
  00001	8b ec		 mov	 ebp, esp
  00003	56		 push	 esi
  00004	ff 75 08	 push	 DWORD PTR _item$[ebp]
  00007	8b f1		 mov	 esi, ecx
  00009	8b 06		 mov	 eax, DWORD PTR [esi]
  0000b	ff 10		 call	 DWORD PTR [eax]
  0000d	8b c6		 mov	 eax, esi
  0000f	5e		 pop	 esi
  00010	5d		 pop	 ebp
  00011	c2 04 00	 ret	 4
??4CChartBozoInput@@UAEAAV0@ABV0@@Z ENDP		; CChartBozoInput::operator=
_TEXT	ENDS
; Function compile flags: /Ogtp
; File D:\git\src\IBK\IBK_DRFN\ProjSrc\SrcDrfn\inc\IChartBozoMsgMng.h
;	COMDAT ?Copy@CChartBozoInput@@UAEXABV1@@Z
_TEXT	SEGMENT
_right$ = 8						; size = 4
?Copy@CChartBozoInput@@UAEXABV1@@Z PROC			; CChartBozoInput::Copy, COMDAT
; _this$ = ecx

; 72   : 	{

  00000	55		 push	 ebp
  00001	8b ec		 mov	 ebp, esp
  00003	56		 push	 esi

; 73   : 		m_sMarket		= right.m_sMarket;

  00004	8b 75 08	 mov	 esi, DWORD PTR _right$[ebp]
  00007	57		 push	 edi
  00008	8b f9		 mov	 edi, ecx
  0000a	8d 46 04	 lea	 eax, DWORD PTR [esi+4]
  0000d	50		 push	 eax
  0000e	8d 4f 04	 lea	 ecx, DWORD PTR [edi+4]
  00011	ff 15 00 00 00
	00		 call	 DWORD PTR __imp_??4?$CStringT@DV?$StrTraitMFC_DLL@DV?$ChTraitsCRT@D@ATL@@@@@ATL@@QAEAAV01@ABV01@@Z

; 74   : 		m_sShcode		= right.m_sShcode;

  00017	8d 46 08	 lea	 eax, DWORD PTR [esi+8]
  0001a	50		 push	 eax
  0001b	8d 4f 08	 lea	 ecx, DWORD PTR [edi+8]
  0001e	ff 15 00 00 00
	00		 call	 DWORD PTR __imp_??4?$CStringT@DV?$StrTraitMFC_DLL@DV?$ChTraitsCRT@D@ATL@@@@@ATL@@QAEAAV01@ABV01@@Z

; 75   : 		m_sTick			= right.m_sTick;

  00024	8d 46 0c	 lea	 eax, DWORD PTR [esi+12]
  00027	50		 push	 eax
  00028	8d 4f 0c	 lea	 ecx, DWORD PTR [edi+12]
  0002b	ff 15 00 00 00
	00		 call	 DWORD PTR __imp_??4?$CStringT@DV?$StrTraitMFC_DLL@DV?$ChTraitsCRT@D@ATL@@@@@ATL@@QAEAAV01@ABV01@@Z

; 76   : 		m_sTerm			= right.m_sTerm;

  00031	8d 46 10	 lea	 eax, DWORD PTR [esi+16]
  00034	50		 push	 eax
  00035	8d 4f 10	 lea	 ecx, DWORD PTR [edi+16]
  00038	ff 15 00 00 00
	00		 call	 DWORD PTR __imp_??4?$CStringT@DV?$StrTraitMFC_DLL@DV?$ChTraitsCRT@D@ATL@@@@@ATL@@QAEAAV01@ABV01@@Z

; 77   : 		m_sNxtFlg		= right.m_sNxtFlg;

  0003e	8d 46 14	 lea	 eax, DWORD PTR [esi+20]
  00041	50		 push	 eax
  00042	8d 4f 14	 lea	 ecx, DWORD PTR [edi+20]
  00045	ff 15 00 00 00
	00		 call	 DWORD PTR __imp_??4?$CStringT@DV?$StrTraitMFC_DLL@DV?$ChTraitsCRT@D@ATL@@@@@ATL@@QAEAAV01@ABV01@@Z

; 78   : 		m_sDataType		= right.m_sDataType;

  0004b	8d 46 18	 lea	 eax, DWORD PTR [esi+24]
  0004e	50		 push	 eax
  0004f	8d 4f 18	 lea	 ecx, DWORD PTR [edi+24]
  00052	ff 15 00 00 00
	00		 call	 DWORD PTR __imp_??4?$CStringT@DV?$StrTraitMFC_DLL@DV?$ChTraitsCRT@D@ATL@@@@@ATL@@QAEAAV01@ABV01@@Z

; 79   : 		m_sVolume		= right.m_sVolume;

  00058	8d 46 20	 lea	 eax, DWORD PTR [esi+32]
  0005b	50		 push	 eax
  0005c	8d 4f 20	 lea	 ecx, DWORD PTR [edi+32]
  0005f	ff 15 00 00 00
	00		 call	 DWORD PTR __imp_??4?$CStringT@DV?$StrTraitMFC_DLL@DV?$ChTraitsCRT@D@ATL@@@@@ATL@@QAEAAV01@ABV01@@Z

; 80   : 		m_sUpLmtPrice	= right.m_sUpLmtPrice;

  00065	8d 46 24	 lea	 eax, DWORD PTR [esi+36]
  00068	50		 push	 eax
  00069	8d 4f 24	 lea	 ecx, DWORD PTR [edi+36]
  0006c	ff 15 00 00 00
	00		 call	 DWORD PTR __imp_??4?$CStringT@DV?$StrTraitMFC_DLL@DV?$ChTraitsCRT@D@ATL@@@@@ATL@@QAEAAV01@ABV01@@Z

; 81   : 		m_sDnLmtPrice	= right.m_sDnLmtPrice;

  00072	8d 46 28	 lea	 eax, DWORD PTR [esi+40]
  00075	50		 push	 eax
  00076	8d 4f 28	 lea	 ecx, DWORD PTR [edi+40]
  00079	ff 15 00 00 00
	00		 call	 DWORD PTR __imp_??4?$CStringT@DV?$StrTraitMFC_DLL@DV?$ChTraitsCRT@D@ATL@@@@@ATL@@QAEAAV01@ABV01@@Z

; 82   : 		m_sOpen			= right.m_sOpen;

  0007f	8d 46 2c	 lea	 eax, DWORD PTR [esi+44]
  00082	50		 push	 eax
  00083	8d 4f 2c	 lea	 ecx, DWORD PTR [edi+44]
  00086	ff 15 00 00 00
	00		 call	 DWORD PTR __imp_??4?$CStringT@DV?$StrTraitMFC_DLL@DV?$ChTraitsCRT@D@ATL@@@@@ATL@@QAEAAV01@ABV01@@Z

; 83   : 		m_sHigh			= right.m_sHigh;

  0008c	8d 46 30	 lea	 eax, DWORD PTR [esi+48]
  0008f	50		 push	 eax
  00090	8d 4f 30	 lea	 ecx, DWORD PTR [edi+48]
  00093	ff 15 00 00 00
	00		 call	 DWORD PTR __imp_??4?$CStringT@DV?$StrTraitMFC_DLL@DV?$ChTraitsCRT@D@ATL@@@@@ATL@@QAEAAV01@ABV01@@Z

; 84   : 		m_sLow			= right.m_sLow;

  00099	8d 46 34	 lea	 eax, DWORD PTR [esi+52]
  0009c	50		 push	 eax
  0009d	8d 4f 34	 lea	 ecx, DWORD PTR [edi+52]
  000a0	ff 15 00 00 00
	00		 call	 DWORD PTR __imp_??4?$CStringT@DV?$StrTraitMFC_DLL@DV?$ChTraitsCRT@D@ATL@@@@@ATL@@QAEAAV01@ABV01@@Z

; 85   : 		m_sPrice		= right.m_sPrice;		// 20100326_JS.Kim.     

  000a6	8d 46 1c	 lea	 eax, DWORD PTR [esi+28]
  000a9	50		 push	 eax
  000aa	8d 4f 1c	 lea	 ecx, DWORD PTR [edi+28]
  000ad	ff 15 00 00 00
	00		 call	 DWORD PTR __imp_??4?$CStringT@DV?$StrTraitMFC_DLL@DV?$ChTraitsCRT@D@ATL@@@@@ATL@@QAEAAV01@ABV01@@Z

; 86   : 		m_sPreprice		= right.m_sPreprice;

  000b3	8d 46 38	 lea	 eax, DWORD PTR [esi+56]
  000b6	50		 push	 eax
  000b7	8d 4f 38	 lea	 ecx, DWORD PTR [edi+56]
  000ba	ff 15 00 00 00
	00		 call	 DWORD PTR __imp_??4?$CStringT@DV?$StrTraitMFC_DLL@DV?$ChTraitsCRT@D@ATL@@@@@ATL@@QAEAAV01@ABV01@@Z

; 87   : 		m_sPreVolume	= right.m_sPreVolume;

  000c0	8d 46 3c	 lea	 eax, DWORD PTR [esi+60]
  000c3	50		 push	 eax
  000c4	8d 4f 3c	 lea	 ecx, DWORD PTR [edi+60]
  000c7	ff 15 00 00 00
	00		 call	 DWORD PTR __imp_??4?$CStringT@DV?$StrTraitMFC_DLL@DV?$ChTraitsCRT@D@ATL@@@@@ATL@@QAEAAV01@ABV01@@Z

; 88   : 		m_sStartTime	= right.m_sStartTime;

  000cd	8d 46 40	 lea	 eax, DWORD PTR [esi+64]
  000d0	50		 push	 eax
  000d1	8d 4f 40	 lea	 ecx, DWORD PTR [edi+64]
  000d4	ff 15 00 00 00
	00		 call	 DWORD PTR __imp_??4?$CStringT@DV?$StrTraitMFC_DLL@DV?$ChTraitsCRT@D@ATL@@@@@ATL@@QAEAAV01@ABV01@@Z

; 89   : 		m_sFirstClose	= right.m_sFirstClose;

  000da	8d 46 44	 lea	 eax, DWORD PTR [esi+68]
  000dd	50		 push	 eax
  000de	8d 4f 44	 lea	 ecx, DWORD PTR [edi+68]
  000e1	ff 15 00 00 00
	00		 call	 DWORD PTR __imp_??4?$CStringT@DV?$StrTraitMFC_DLL@DV?$ChTraitsCRT@D@ATL@@@@@ATL@@QAEAAV01@ABV01@@Z

; 90   : 		m_sPreOpen		= right.m_sPreOpen;

  000e7	8d 46 48	 lea	 eax, DWORD PTR [esi+72]
  000ea	50		 push	 eax
  000eb	8d 4f 48	 lea	 ecx, DWORD PTR [edi+72]
  000ee	ff 15 00 00 00
	00		 call	 DWORD PTR __imp_??4?$CStringT@DV?$StrTraitMFC_DLL@DV?$ChTraitsCRT@D@ATL@@@@@ATL@@QAEAAV01@ABV01@@Z

; 91   : 		m_sPreHigh		= right.m_sPreHigh;

  000f4	8d 46 4c	 lea	 eax, DWORD PTR [esi+76]
  000f7	50		 push	 eax
  000f8	8d 4f 4c	 lea	 ecx, DWORD PTR [edi+76]
  000fb	ff 15 00 00 00
	00		 call	 DWORD PTR __imp_??4?$CStringT@DV?$StrTraitMFC_DLL@DV?$ChTraitsCRT@D@ATL@@@@@ATL@@QAEAAV01@ABV01@@Z

; 92   : 		m_sPreLow		= right.m_sPreLow;

  00101	8d 46 50	 lea	 eax, DWORD PTR [esi+80]
  00104	50		 push	 eax
  00105	8d 4f 50	 lea	 ecx, DWORD PTR [edi+80]
  00108	ff 15 00 00 00
	00		 call	 DWORD PTR __imp_??4?$CStringT@DV?$StrTraitMFC_DLL@DV?$ChTraitsCRT@D@ATL@@@@@ATL@@QAEAAV01@ABV01@@Z

; 93   : 		m_sWonDollor	= right.m_sWonDollor;

  0010e	8d 46 54	 lea	 eax, DWORD PTR [esi+84]
  00111	50		 push	 eax
  00112	8d 4f 54	 lea	 ecx, DWORD PTR [edi+84]
  00115	ff 15 00 00 00
	00		 call	 DWORD PTR __imp_??4?$CStringT@DV?$StrTraitMFC_DLL@DV?$ChTraitsCRT@D@ATL@@@@@ATL@@QAEAAV01@ABV01@@Z

; 94   : 		memcpy(sShcode, right.sShcode, sizeof(sShcode));

  0011b	0f 10 46 68	 movups	 xmm0, XMMWORD PTR [esi+104]

; 95   : 		lTick			= right.lTick;
; 96   : 		memcpy(sTerm, right.sTerm, sizeof(sTerm));
; 97   : 		memcpy(sNxtFlg, right.sNxtFlg, sizeof(sNxtFlg));
; 98   : 		memcpy(sDataType, right.sDataType, sizeof(sDataType));
; 99   : 		lPrice			= right.lPrice;
; 100  : 		lVolume			= right.lVolume;
; 101  : 		lUpLmtPrice		= right.lUpLmtPrice;
; 102  : 		lDnLmtPrice		= right.lDnLmtPrice;
; 103  : 		lOpen			= right.lOpen;
; 104  : 		lHigh			= right.lHigh;
; 105  : 		lLow			= right.lLow;
; 106  : 		lPreprice		= right.lPreprice;
; 107  : 		lPreVolume		= right.lPreVolume;
; 108  : 		lFirstClose		= right.lFirstClose;
; 109  : 		lPreOpen		= right.lPreOpen;
; 110  : 		lPreHigh		= right.lPreHigh;
; 111  : 		lPreLow			= right.lPreHigh;
; 112  : 		nMarket			= right.nMarket;
; 113  : 		lWonDollar		= right.lWonDollar;
; 114  : //vntsorl_20110420:[A00000410]      
; 115  : 		nPacketType		= right.nPacketType;
; 116  : 		m_sLastDataTime	= right.m_sLastDataTime;

  0011f	8d 8f c0 00 00
	00		 lea	 ecx, DWORD PTR [edi+192]
  00125	0f 11 47 68	 movups	 XMMWORD PTR [edi+104], xmm0
  00129	8b 46 78	 mov	 eax, DWORD PTR [esi+120]
  0012c	89 47 78	 mov	 DWORD PTR [edi+120], eax
  0012f	0f b6 46 7c	 movzx	 eax, BYTE PTR [esi+124]
  00133	88 47 7c	 mov	 BYTE PTR [edi+124], al
  00136	0f b6 46 7d	 movzx	 eax, BYTE PTR [esi+125]
  0013a	88 47 7d	 mov	 BYTE PTR [edi+125], al
  0013d	0f b6 46 7e	 movzx	 eax, BYTE PTR [esi+126]
  00141	88 47 7e	 mov	 BYTE PTR [edi+126], al
  00144	8b 86 80 00 00
	00		 mov	 eax, DWORD PTR [esi+128]
  0014a	89 87 80 00 00
	00		 mov	 DWORD PTR [edi+128], eax
  00150	8b 86 84 00 00
	00		 mov	 eax, DWORD PTR [esi+132]
  00156	89 87 84 00 00
	00		 mov	 DWORD PTR [edi+132], eax
  0015c	8b 86 88 00 00
	00		 mov	 eax, DWORD PTR [esi+136]
  00162	89 87 88 00 00
	00		 mov	 DWORD PTR [edi+136], eax
  00168	8b 86 8c 00 00
	00		 mov	 eax, DWORD PTR [esi+140]
  0016e	89 87 8c 00 00
	00		 mov	 DWORD PTR [edi+140], eax
  00174	8b 86 90 00 00
	00		 mov	 eax, DWORD PTR [esi+144]
  0017a	89 87 90 00 00
	00		 mov	 DWORD PTR [edi+144], eax
  00180	8b 86 94 00 00
	00		 mov	 eax, DWORD PTR [esi+148]
  00186	89 87 94 00 00
	00		 mov	 DWORD PTR [edi+148], eax
  0018c	8b 86 98 00 00
	00		 mov	 eax, DWORD PTR [esi+152]
  00192	89 87 98 00 00
	00		 mov	 DWORD PTR [edi+152], eax
  00198	8b 86 9c 00 00
	00		 mov	 eax, DWORD PTR [esi+156]
  0019e	89 87 9c 00 00
	00		 mov	 DWORD PTR [edi+156], eax
  001a4	8b 86 a0 00 00
	00		 mov	 eax, DWORD PTR [esi+160]
  001aa	89 87 a0 00 00
	00		 mov	 DWORD PTR [edi+160], eax
  001b0	8b 86 a4 00 00
	00		 mov	 eax, DWORD PTR [esi+164]
  001b6	89 87 a4 00 00
	00		 mov	 DWORD PTR [edi+164], eax
  001bc	8b 86 a8 00 00
	00		 mov	 eax, DWORD PTR [esi+168]
  001c2	89 87 a8 00 00
	00		 mov	 DWORD PTR [edi+168], eax
  001c8	8b 86 ac 00 00
	00		 mov	 eax, DWORD PTR [esi+172]
  001ce	89 87 ac 00 00
	00		 mov	 DWORD PTR [edi+172], eax
  001d4	8b 86 ac 00 00
	00		 mov	 eax, DWORD PTR [esi+172]
  001da	89 87 b0 00 00
	00		 mov	 DWORD PTR [edi+176], eax
  001e0	8b 86 b4 00 00
	00		 mov	 eax, DWORD PTR [esi+180]
  001e6	89 87 b4 00 00
	00		 mov	 DWORD PTR [edi+180], eax
  001ec	8b 86 b8 00 00
	00		 mov	 eax, DWORD PTR [esi+184]
  001f2	89 87 b8 00 00
	00		 mov	 DWORD PTR [edi+184], eax
  001f8	8b 86 bc 00 00
	00		 mov	 eax, DWORD PTR [esi+188]
  001fe	89 87 bc 00 00
	00		 mov	 DWORD PTR [edi+188], eax
  00204	8d 86 c0 00 00
	00		 lea	 eax, DWORD PTR [esi+192]
  0020a	50		 push	 eax
  0020b	ff 15 00 00 00
	00		 call	 DWORD PTR __imp_??4?$CStringT@DV?$StrTraitMFC_DLL@DV?$ChTraitsCRT@D@ATL@@@@@ATL@@QAEAAV01@ABV01@@Z

; 117  : 		m_sVolAmt		= right.m_sVolAmt;		//[A00000651][A00000652].

  00211	8d 46 58	 lea	 eax, DWORD PTR [esi+88]
  00214	50		 push	 eax
  00215	8d 4f 58	 lea	 ecx, DWORD PTR [edi+88]
  00218	ff 15 00 00 00
	00		 call	 DWORD PTR __imp_??4?$CStringT@DV?$StrTraitMFC_DLL@DV?$ChTraitsCRT@D@ATL@@@@@ATL@@QAEAAV01@ABV01@@Z

; 118  : 
; 119  : 		m_szMarketTime	= right.m_szMarketTime;;

  0021e	8d 46 60	 lea	 eax, DWORD PTR [esi+96]
  00221	50		 push	 eax
  00222	8d 4f 60	 lea	 ecx, DWORD PTR [edi+96]
  00225	ff 15 00 00 00
	00		 call	 DWORD PTR __imp_??4?$CStringT@DV?$StrTraitMFC_DLL@DV?$ChTraitsCRT@D@ATL@@@@@ATL@@QAEAAV01@ABV01@@Z

; 120  : 		m_szBaseTime	= right.m_szBaseTime;;

  0022b	8d 46 64	 lea	 eax, DWORD PTR [esi+100]
  0022e	50		 push	 eax
  0022f	8d 4f 64	 lea	 ecx, DWORD PTR [edi+100]
  00232	ff 15 00 00 00
	00		 call	 DWORD PTR __imp_??4?$CStringT@DV?$StrTraitMFC_DLL@DV?$ChTraitsCRT@D@ATL@@@@@ATL@@QAEAAV01@ABV01@@Z
  00238	5f		 pop	 edi
  00239	5e		 pop	 esi

; 121  : 
; 122  : 	};

  0023a	5d		 pop	 ebp
  0023b	c2 04 00	 ret	 4
?Copy@CChartBozoInput@@UAEXABV1@@Z ENDP			; CChartBozoInput::Copy
_TEXT	ENDS
; Function compile flags: /Ogtp
; File D:\git\src\IBK\IBK_DRFN\ProjSrc\SrcDrfn\Chart\commontr\TRDefine.h
;	COMDAT ??__ERMSG_GETSIGNAL_REAL@@YAXXZ
text$di	SEGMENT
??__ERMSG_GETSIGNAL_REAL@@YAXXZ PROC			; `dynamic initializer for 'RMSG_GETSIGNAL_REAL'', COMDAT

; 213  : const UINT RMSG_GETSIGNAL_REAL = ::RegisterWindowMessage(_T("RMSG_GETSIGNAL_REAL"));

  00000	68 00 00 00 00	 push	 OFFSET ??_C@_0BE@FJPKENOB@RMSG_GETSIGNAL_REAL@
  00005	ff 15 00 00 00
	00		 call	 DWORD PTR __imp__RegisterWindowMessageA@4
  0000b	a3 00 00 00 00	 mov	 DWORD PTR ?RMSG_GETSIGNAL_REAL@@3IB, eax
  00010	c3		 ret	 0
??__ERMSG_GETSIGNAL_REAL@@YAXXZ ENDP			; `dynamic initializer for 'RMSG_GETSIGNAL_REAL''
text$di	ENDS
; Function compile flags: /Ogtp
; File D:\git\src\IBK\IBK_DRFN\ProjSrc\SrcDrfn\inc\IBaseDefine.h
;	COMDAT ??__ERMSG_SETPCTRDATA@@YAXXZ
text$di	SEGMENT
??__ERMSG_SETPCTRDATA@@YAXXZ PROC			; `dynamic initializer for 'RMSG_SETPCTRDATA'', COMDAT

; 172  : const UINT RMSG_SETPCTRDATA = ::RegisterWindowMessage("RMSG_SETPCTRDATA");

  00000	68 00 00 00 00	 push	 OFFSET ??_C@_0BB@JPACFCL@RMSG_SETPCTRDATA@
  00005	ff 15 00 00 00
	00		 call	 DWORD PTR __imp__RegisterWindowMessageA@4
  0000b	a3 00 00 00 00	 mov	 DWORD PTR ?RMSG_SETPCTRDATA@@3IB, eax
  00010	c3		 ret	 0
??__ERMSG_SETPCTRDATA@@YAXXZ ENDP			; `dynamic initializer for 'RMSG_SETPCTRDATA''
text$di	ENDS
; Function compile flags: /Ogtp
; File D:\git\src\IBK\IBK_DRFN\ProjSrc\SrcDrfn\inc\IBaseDefine.h
;	COMDAT ??__ERMSG_GETPCTRDATA@@YAXXZ
text$di	SEGMENT
??__ERMSG_GETPCTRDATA@@YAXXZ PROC			; `dynamic initializer for 'RMSG_GETPCTRDATA'', COMDAT

; 171  : const UINT RMSG_GETPCTRDATA = ::RegisterWindowMessage("RMSG_GETPCTRDATA");

  00000	68 00 00 00 00	 push	 OFFSET ??_C@_0BB@GOOPDKI@RMSG_GETPCTRDATA@
  00005	ff 15 00 00 00
	00		 call	 DWORD PTR __imp__RegisterWindowMessageA@4
  0000b	a3 00 00 00 00	 mov	 DWORD PTR ?RMSG_GETPCTRDATA@@3IB, eax
  00010	c3		 ret	 0
??__ERMSG_GETPCTRDATA@@YAXXZ ENDP			; `dynamic initializer for 'RMSG_GETPCTRDATA''
text$di	ENDS
; Function compile flags: /Ogtp
; File D:\git\src\IBK\IBK_DRFN\ProjSrc\SrcDrfn\inc\IBaseDefine.h
;	COMDAT ??__ERMSG_INTERFACE@@YAXXZ
text$di	SEGMENT
??__ERMSG_INTERFACE@@YAXXZ PROC				; `dynamic initializer for 'RMSG_INTERFACE'', COMDAT

; 170  : const UINT RMSG_INTERFACE = ::RegisterWindowMessage("RMSG_INTERFACE");

  00000	68 00 00 00 00	 push	 OFFSET ??_C@_0P@BKKCOCLK@RMSG_INTERFACE@
  00005	ff 15 00 00 00
	00		 call	 DWORD PTR __imp__RegisterWindowMessageA@4
  0000b	a3 00 00 00 00	 mov	 DWORD PTR ?RMSG_INTERFACE@@3IB, eax
  00010	c3		 ret	 0
??__ERMSG_INTERFACE@@YAXXZ ENDP				; `dynamic initializer for 'RMSG_INTERFACE''
text$di	ENDS
; Function compile flags: /Ogtp
; File C:\Program Files (x86)\Windows Kits\10\Include\10.0.22000.0\ucrt\stdio.h
;	COMDAT _sscanf
_TEXT	SEGMENT
__Buffer$ = 8						; size = 4
__Format$ = 12						; size = 4
_sscanf	PROC						; COMDAT

; 2247 :     {

  00000	55		 push	 ebp
  00001	8b ec		 mov	 ebp, esp

; 2153 :         return __stdio_common_vsscanf(

  00003	8d 45 10	 lea	 eax, DWORD PTR __Format$[ebp+4]
  00006	50		 push	 eax
  00007	6a 00		 push	 0
  00009	ff 75 0c	 push	 DWORD PTR __Format$[ebp]
  0000c	6a ff		 push	 -1
  0000e	ff 75 08	 push	 DWORD PTR __Buffer$[ebp]
  00011	e8 00 00 00 00	 call	 ___local_stdio_scanf_options
  00016	ff 70 04	 push	 DWORD PTR [eax+4]
  00019	ff 30		 push	 DWORD PTR [eax]
  0001b	ff 15 00 00 00
	00		 call	 DWORD PTR __imp____stdio_common_vsscanf
  00021	83 c4 1c	 add	 esp, 28			; 0000001cH

; 2248 :         int _Result;
; 2249 :         va_list _ArgList;
; 2250 :         __crt_va_start(_ArgList, _Format);
; 2251 :         _Result = _vsscanf_l(_Buffer, _Format, NULL, _ArgList);
; 2252 :         __crt_va_end(_ArgList);
; 2253 :         return _Result;
; 2254 :     }

  00024	5d		 pop	 ebp
  00025	c3		 ret	 0
_sscanf	ENDP
_TEXT	ENDS
; Function compile flags: /Ogtp
; File C:\Program Files (x86)\Windows Kits\10\Include\10.0.22000.0\ucrt\stdio.h
;	COMDAT _sprintf
_TEXT	SEGMENT
__Buffer$ = 8						; size = 4
__Format$ = 12						; size = 4
_sprintf PROC						; COMDAT

; 1771 :     {

  00000	55		 push	 ebp
  00001	8b ec		 mov	 ebp, esp

; 1392 :         int const _Result = __stdio_common_vsprintf(

  00003	8d 45 10	 lea	 eax, DWORD PTR __Format$[ebp+4]
  00006	50		 push	 eax
  00007	6a 00		 push	 0
  00009	ff 75 0c	 push	 DWORD PTR __Format$[ebp]
  0000c	6a ff		 push	 -1
  0000e	ff 75 08	 push	 DWORD PTR __Buffer$[ebp]
  00011	e8 00 00 00 00	 call	 ___local_stdio_printf_options
  00016	8b 08		 mov	 ecx, DWORD PTR [eax]
  00018	ff 70 04	 push	 DWORD PTR [eax+4]
  0001b	83 c9 01	 or	 ecx, 1
  0001e	51		 push	 ecx
  0001f	ff 15 00 00 00
	00		 call	 DWORD PTR __imp____stdio_common_vsprintf

; 1393 :             _CRT_INTERNAL_LOCAL_PRINTF_OPTIONS | _CRT_INTERNAL_PRINTF_LEGACY_VSPRINTF_NULL_TERMINATION,
; 1394 :             _Buffer, _BufferCount, _Format, _Locale, _ArgList);
; 1395 : 
; 1396 :         return _Result < 0 ? -1 : _Result;

  00025	83 c9 ff	 or	 ecx, -1
  00028	83 c4 1c	 add	 esp, 28			; 0000001cH
  0002b	85 c0		 test	 eax, eax
  0002d	0f 48 c1	 cmovs	 eax, ecx

; 1772 :         int _Result;
; 1773 :         va_list _ArgList;
; 1774 :         __crt_va_start(_ArgList, _Format);
; 1775 : 
; 1776 :         _Result = _vsprintf_l(_Buffer, _Format, NULL, _ArgList);
; 1777 : 
; 1778 :         __crt_va_end(_ArgList);
; 1779 :         return _Result;
; 1780 :     }

  00030	5d		 pop	 ebp
  00031	c3		 ret	 0
_sprintf ENDP
_TEXT	ENDS
; Function compile flags: /Ogtp
; File C:\Program Files (x86)\Windows Kits\10\Include\10.0.22000.0\ucrt\corecrt_stdio_config.h
;	COMDAT ___local_stdio_scanf_options
_TEXT	SEGMENT
___local_stdio_scanf_options PROC			; COMDAT

; 101  :         static unsigned __int64 _OptionsStorage;
; 102  :         return &_OptionsStorage;

  00000	b8 00 00 00 00	 mov	 eax, OFFSET ?_OptionsStorage@?1??__local_stdio_scanf_options@@9@4_KA ; `__local_stdio_scanf_options'::`2'::_OptionsStorage

; 103  :     }

  00005	c3		 ret	 0
___local_stdio_scanf_options ENDP
_TEXT	ENDS
; Function compile flags: /Ogtp
; File C:\Program Files (x86)\Windows Kits\10\Include\10.0.22000.0\ucrt\corecrt_stdio_config.h
;	COMDAT ___local_stdio_printf_options
_TEXT	SEGMENT
___local_stdio_printf_options PROC			; COMDAT

; 91   :         static unsigned __int64 _OptionsStorage;
; 92   :         return &_OptionsStorage;

  00000	b8 00 00 00 00	 mov	 eax, OFFSET ?_OptionsStorage@?1??__local_stdio_printf_options@@9@4_KA ; `__local_stdio_printf_options'::`2'::_OptionsStorage

; 93   :     }

  00005	c3		 ret	 0
___local_stdio_printf_options ENDP
_TEXT	ENDS
; Function compile flags: /Ogtp
; File D:\git\src\IBK\IBK_DRFN\ProjSrc\SrcDrfn\DrCommon\PartnerMng\ChartItemForeign.cpp
;	COMDAT ?__empty_global_delete@@YAXPAXI@Z
_TEXT	SEGMENT
___formal$ = 8						; size = 4
___formal$ = 12						; size = 4
?__empty_global_delete@@YAXPAXI@Z PROC			; __empty_global_delete, COMDAT

  00000	c2 00 00	 ret	 0
?__empty_global_delete@@YAXPAXI@Z ENDP			; __empty_global_delete
_TEXT	ENDS
; Function compile flags: /Ogtp
; File D:\git\src\IBK\IBK_DRFN\ProjSrc\SrcDrfn\DrCommon\PartnerMng\ChartItemForeign.cpp
;	COMDAT ?__empty_global_delete@@YAXPAX@Z
_TEXT	SEGMENT
___formal$ = 8						; size = 4
?__empty_global_delete@@YAXPAX@Z PROC			; __empty_global_delete, COMDAT

  00000	c2 00 00	 ret	 0
?__empty_global_delete@@YAXPAX@Z ENDP			; __empty_global_delete
_TEXT	ENDS
END
